; Listing generated by Microsoft (R) Optimizing Compiler Version 13.10.3077 

	TITLE	.\src\Gui\util\BalloonHelp.cpp
	.386P
include listing.inc
if @Version gt 510
.model FLAT
else
_TEXT	SEGMENT PARA USE32 PUBLIC 'CODE'
_TEXT	ENDS
_DATA	SEGMENT DWORD USE32 PUBLIC 'DATA'
_DATA	ENDS
CONST	SEGMENT DWORD USE32 PUBLIC 'CONST'
CONST	ENDS
_BSS	SEGMENT DWORD USE32 PUBLIC 'BSS'
_BSS	ENDS
$$SYMBOLS	SEGMENT BYTE USE32 'DEBSYM'
$$SYMBOLS	ENDS
_TLS	SEGMENT DWORD USE32 PUBLIC 'TLS'
_TLS	ENDS
;	COMDAT ??_C@_0EN@IBFBLEEG@D?3?2Program?5Files?5?$CIx86?$CJ?2Microsoft@
CONST	SEGMENT DWORD USE32 PUBLIC 'CONST'
CONST	ENDS
;	COMDAT ??_C@_0O@JFAOIAID@m_mov?5?$DN?$DN?50xB9?$AA@
CONST	SEGMENT DWORD USE32 PUBLIC 'CONST'
CONST	ENDS
;	COMDAT ??_C@_0EF@FBPFHFEG@d?3?2boxgit?2playbox?2playbox?2dev?2pr@
CONST	SEGMENT DWORD USE32 PUBLIC 'CONST'
CONST	ENDS
rdata$r	SEGMENT DWORD USE32 PUBLIC 'CONST'
rdata$r	ENDS
xdata$x	SEGMENT DWORD USE32 PUBLIC 'CONST'
xdata$x	ENDS
text$AFX_COL1	SEGMENT PARA USE32 PUBLIC ''
text$AFX_COL1	ENDS
text$yc	SEGMENT PARA USE32 PUBLIC 'CODE'
text$yc	ENDS
CRT$XCA	SEGMENT DWORD USE32 PUBLIC 'DATA'
CRT$XCA	ENDS
CRT$XCU	SEGMENT DWORD USE32 PUBLIC 'DATA'
CRT$XCU	ENDS
CRT$XCL	SEGMENT DWORD USE32 PUBLIC 'DATA'
CRT$XCL	ENDS
CRT$XCC	SEGMENT DWORD USE32 PUBLIC 'DATA'
CRT$XCC	ENDS
CRT$XCZ	SEGMENT DWORD USE32 PUBLIC 'DATA'
CRT$XCZ	ENDS
text$yd	SEGMENT PARA USE32 PUBLIC 'CODE'
text$yd	ENDS
ATL$__m	SEGMENT DWORD USE32 PUBLIC ''
ATL$__m	ENDS
ATL$__z	SEGMENT DWORD USE32 PUBLIC ''
ATL$__z	ENDS
ATL$__a	SEGMENT DWORD USE32 PUBLIC ''
ATL$__a	ENDS
;	COMDAT ?CalcHeaderSize@CBalloonHelp@@IAE?AVCSize@@PAVCDC@@@Z
_TEXT	SEGMENT PARA USE32 PUBLIC 'CODE'
_TEXT	ENDS
;	COMDAT ?CalcContentSize@CBalloonHelp@@IAE?AVCSize@@PAVCDC@@@Z
_TEXT	SEGMENT PARA USE32 PUBLIC 'CODE'
_TEXT	ENDS
;	COMDAT ??_GCBalloonHelp@@UAEPAXI@Z
_TEXT	SEGMENT PARA USE32 PUBLIC 'CODE'
_TEXT	ENDS
;	COMDAT ??B?$CComPtrBase@UITypeInfo2@@@ATL@@QBEPAUITypeInfo2@@XZ
_TEXT	SEGMENT PARA USE32 PUBLIC 'CODE'
_TEXT	ENDS
;	COMDAT ?equal@?$istreambuf_iterator@DU?$char_traits@D@std@@@std@@QBE_NABV12@@Z
_TEXT	SEGMENT PARA USE32 PUBLIC 'CODE'
_TEXT	ENDS
;	COMDAT ?equal@?$istreambuf_iterator@_WU?$char_traits@_W@std@@@std@@QBE_NABV12@@Z
_TEXT	SEGMENT PARA USE32 PUBLIC 'CODE'
_TEXT	ENDS
;	COMDAT ?InitThunk@?$_ThunkImpl@VCBalloonHelp@@@@IAEXP8CBalloonHelp@@AEXXZPBV2@@Z
_TEXT	SEGMENT PARA USE32 PUBLIC 'CODE'
_TEXT	ENDS
;	COMDAT ?GetThunk@?$_ThunkImpl@VCBalloonHelp@@@@IBEP6GHXZXZ
_TEXT	SEGMENT PARA USE32 PUBLIC 'CODE'
_TEXT	ENDS
;	COMDAT ?Unlock@?$CComCritSecLock@VCComCriticalSection@ATL@@@ATL@@QAEXXZ
_TEXT	SEGMENT PARA USE32 PUBLIC 'CODE'
_TEXT	ENDS
;	COMDAT ??$_Maklocstr@D@std@@YAPADPBDPADABU_Cvtvec@@@Z
_TEXT	SEGMENT PARA USE32 PUBLIC 'CODE'
_TEXT	ENDS
;	COMDAT ??_R3?$numpunct@_W@std@@8
rdata$r	SEGMENT DWORD USE32 PUBLIC 'CONST'
rdata$r	ENDS
;	COMDAT ??_R3?$numpunct@D@std@@8
rdata$r	SEGMENT DWORD USE32 PUBLIC 'CONST'
rdata$r	ENDS
;	COMDAT ??_R3CBalloonHelp@@8
rdata$r	SEGMENT DWORD USE32 PUBLIC 'CONST'
rdata$r	ENDS
;	COMDAT ??_R2?$numpunct@_W@std@@8
rdata$r	SEGMENT DWORD USE32 PUBLIC 'CONST'
rdata$r	ENDS
;	COMDAT ??_R2?$numpunct@D@std@@8
rdata$r	SEGMENT DWORD USE32 PUBLIC 'CONST'
rdata$r	ENDS
;	COMDAT ??_R2CBalloonHelp@@8
rdata$r	SEGMENT DWORD USE32 PUBLIC 'CONST'
rdata$r	ENDS
;	COMDAT ??_R1A@?0A@A@?$numpunct@_W@std@@8
rdata$r	SEGMENT DWORD USE32 PUBLIC 'CONST'
rdata$r	ENDS
;	COMDAT ??_R1A@?0A@A@facet@locale@std@@8
rdata$r	SEGMENT DWORD USE32 PUBLIC 'CONST'
rdata$r	ENDS
;	COMDAT ??_R0?AVfacet@locale@std@@@8
_DATA	SEGMENT DWORD USE32 PUBLIC 'DATA'
_DATA	ENDS
;	COMDAT ??_R1A@?0A@A@?$numpunct@D@std@@8
rdata$r	SEGMENT DWORD USE32 PUBLIC 'CONST'
rdata$r	ENDS
;	COMDAT ??_R1GI@?0A@1?$_ThunkImpl@VCBalloonHelp@@@@8
rdata$r	SEGMENT DWORD USE32 PUBLIC 'CONST'
rdata$r	ENDS
;	COMDAT ??_R1GI@?0A@A@?$BHCallWndRetHookThunk@VCBalloonHelp@@@@8
rdata$r	SEGMENT DWORD USE32 PUBLIC 'CONST'
rdata$r	ENDS
;	COMDAT ??_R1FO@?0A@1?$_ThunkImpl@VCBalloonHelp@@@@8
rdata$r	SEGMENT DWORD USE32 PUBLIC 'CONST'
rdata$r	ENDS
;	COMDAT ??_R1FO@?0A@A@?$BHMouseHookThunk@VCBalloonHelp@@@@8
rdata$r	SEGMENT DWORD USE32 PUBLIC 'CONST'
rdata$r	ENDS
;	COMDAT ??_R1FE@?0A@1?$_ThunkImpl@VCBalloonHelp@@@@8
rdata$r	SEGMENT DWORD USE32 PUBLIC 'CONST'
rdata$r	ENDS
;	COMDAT ??_R1FE@?0A@A@?$BHKeybHookThunk@VCBalloonHelp@@@@8
rdata$r	SEGMENT DWORD USE32 PUBLIC 'CONST'
rdata$r	ENDS
;	COMDAT ??_R1A@?0A@A@CObject@@8
rdata$r	SEGMENT DWORD USE32 PUBLIC 'CONST'
rdata$r	ENDS
;	COMDAT ??_R0?AVCObject@@@8
_DATA	SEGMENT DWORD USE32 PUBLIC 'DATA'
_DATA	ENDS
;	COMDAT ??_R1A@?0A@A@CCmdTarget@@8
rdata$r	SEGMENT DWORD USE32 PUBLIC 'CONST'
rdata$r	ENDS
;	COMDAT ??_R0?AVCCmdTarget@@@8
_DATA	SEGMENT DWORD USE32 PUBLIC 'DATA'
_DATA	ENDS
;	COMDAT ??_R1A@?0A@A@CWnd@@8
rdata$r	SEGMENT DWORD USE32 PUBLIC 'CONST'
rdata$r	ENDS
;	COMDAT ??_R0?AVCWnd@@@8
_DATA	SEGMENT DWORD USE32 PUBLIC 'DATA'
_DATA	ENDS
;	COMDAT ??_R1A@?0A@A@CBalloonHelp@@8
rdata$r	SEGMENT DWORD USE32 PUBLIC 'CONST'
rdata$r	ENDS
;	COMDAT ??_R0?AV?$numpunct@_W@std@@@8
_DATA	SEGMENT DWORD USE32 PUBLIC 'DATA'
_DATA	ENDS
;	COMDAT ??_R0?AV?$numpunct@D@std@@@8
_DATA	SEGMENT DWORD USE32 PUBLIC 'DATA'
_DATA	ENDS
;	COMDAT ??_R0?AV?$BHCallWndRetHookThunk@VCBalloonHelp@@@@@8
_DATA	SEGMENT DWORD USE32 PUBLIC 'DATA'
_DATA	ENDS
;	COMDAT ??_R0?AV?$BHMouseHookThunk@VCBalloonHelp@@@@@8
_DATA	SEGMENT DWORD USE32 PUBLIC 'DATA'
_DATA	ENDS
;	COMDAT ??_R0?AV?$_ThunkImpl@VCBalloonHelp@@@@@8
_DATA	SEGMENT DWORD USE32 PUBLIC 'DATA'
_DATA	ENDS
;	COMDAT ??_R0?AV?$BHKeybHookThunk@VCBalloonHelp@@@@@8
_DATA	SEGMENT DWORD USE32 PUBLIC 'DATA'
_DATA	ENDS
;	COMDAT ??_R0?AVCBalloonHelp@@@8
_DATA	SEGMENT DWORD USE32 PUBLIC 'DATA'
_DATA	ENDS
;	COMDAT ??0?$allocator@_W@std@@QAE@XZ
_TEXT	SEGMENT PARA USE32 PUBLIC 'CODE'
_TEXT	ENDS
;	COMDAT ??0?$allocator@D@std@@QAE@ABV01@@Z
_TEXT	SEGMENT PARA USE32 PUBLIC 'CODE'
_TEXT	ENDS
;	COMDAT ??0?$allocator@D@std@@QAE@XZ
_TEXT	SEGMENT PARA USE32 PUBLIC 'CODE'
_TEXT	ENDS
;	COMDAT ?deallocate@?$allocator@D@std@@QAEXPADI@Z
_TEXT	SEGMENT PARA USE32 PUBLIC 'CODE'
_TEXT	ENDS
;	COMDAT ?max_size@?$allocator@D@std@@QBEIXZ
_TEXT	SEGMENT PARA USE32 PUBLIC 'CODE'
_TEXT	ENDS
;	COMDAT ?allocate@?$allocator@D@std@@QAEPADI@Z
_TEXT	SEGMENT PARA USE32 PUBLIC 'CODE'
_TEXT	ENDS
;	COMDAT ??$_Allocate@D@std@@YAPADIPAD@Z
_TEXT	SEGMENT PARA USE32 PUBLIC 'CODE'
_TEXT	ENDS
;	COMDAT ??_G?$numpunct@_W@std@@MAEPAXI@Z
_TEXT	SEGMENT PARA USE32 PUBLIC 'CODE'
_TEXT	ENDS
;	COMDAT ??_R4?$numpunct@_W@std@@6B@
rdata$r	SEGMENT DWORD USE32 PUBLIC 'CONST'
rdata$r	ENDS
;	COMDAT ??_G?$numpunct@D@std@@MAEPAXI@Z
_TEXT	SEGMENT PARA USE32 PUBLIC 'CODE'
_TEXT	ENDS
;	COMDAT ??_R4?$numpunct@D@std@@6B@
rdata$r	SEGMENT DWORD USE32 PUBLIC 'CONST'
rdata$r	ENDS
;	COMDAT ??_R4CBalloonHelp@@6B@
rdata$r	SEGMENT DWORD USE32 PUBLIC 'CONST'
rdata$r	ENDS
;	COMDAT ??_C@_0EN@CBMLGOH@D?3?2Program?5Files?5?$CIx86?$CJ?2Microsoft@
CONST	SEGMENT DWORD USE32 PUBLIC 'CONST'
CONST	ENDS
;	COMDAT ?_Psave@?$_Facetptr@V?$numpunct@_W@std@@@std@@2PBVfacet@locale@2@B
_DATA	SEGMENT DWORD USE32 PUBLIC 'DATA'
_DATA	ENDS
;	COMDAT ?_Psave@?$_Facetptr@V?$numpunct@D@std@@@std@@2PBVfacet@locale@2@B
_DATA	SEGMENT DWORD USE32 PUBLIC 'DATA'
_DATA	ENDS
;	COMDAT ?Unlock@CComCriticalSection@ATL@@QAEJXZ
_TEXT	SEGMENT PARA USE32 PUBLIC 'CODE'
_TEXT	ENDS
;	COMDAT ??_C@_0FG@LDNDNCJM@D?3?2Program?5Files?5?$CIx86?$CJ?2Microsoft@
CONST	SEGMENT DWORD USE32 PUBLIC 'CONST'
CONST	ENDS
;	COMDAT ??_C@_09HIEJFN@m_bLocked?$AA@
CONST	SEGMENT DWORD USE32 PUBLIC 'CONST'
CONST	ENDS
;	COMDAT ?_Psave@?$_Facetptr@V?$ctype@_W@std@@@std@@2PBVfacet@locale@2@B
_DATA	SEGMENT DWORD USE32 PUBLIC 'DATA'
_DATA	ENDS
;	COMDAT ?_Psave@?$_Facetptr@V?$ctype@D@std@@@std@@2PBVfacet@locale@2@B
_DATA	SEGMENT DWORD USE32 PUBLIC 'DATA'
_DATA	ENDS
;	COMDAT ??$_Maklocchr@_W@std@@YA_WDPA_WABU_Cvtvec@@@Z
_TEXT	SEGMENT PARA USE32 PUBLIC 'CODE'
_TEXT	ENDS
;	COMDAT ??$_DebugHeapDelete@X@std@@YAXPAX@Z
_TEXT	SEGMENT PARA USE32 PUBLIC 'CODE'
_TEXT	ENDS
;	COMDAT ??$_Maklocstr@_W@std@@YAPA_WPBDPA_WABU_Cvtvec@@@Z
_TEXT	SEGMENT PARA USE32 PUBLIC 'CODE'
_TEXT	ENDS
;	COMDAT ??$_Maklocchr@D@std@@YADDPADABU_Cvtvec@@@Z
_TEXT	SEGMENT PARA USE32 PUBLIC 'CODE'
_TEXT	ENDS
;	COMDAT ??_C@_04LOAJBDKD@true?$AA@
CONST	SEGMENT DWORD USE32 PUBLIC 'CONST'
CONST	ENDS
;	COMDAT ??_C@_05LAPONLG@false?$AA@
CONST	SEGMENT DWORD USE32 PUBLIC 'CONST'
CONST	ENDS
;	COMDAT _wmemcpy
_TEXT	SEGMENT PARA USE32 PUBLIC 'CODE'
_TEXT	ENDS
;	COMDAT ?max_size@?$allocator@_W@std@@QBEIXZ
_TEXT	SEGMENT PARA USE32 PUBLIC 'CODE'
_TEXT	ENDS
;	COMDAT ?allocate@?$allocator@_W@std@@QAEPA_WI@Z
_TEXT	SEGMENT PARA USE32 PUBLIC 'CODE'
_TEXT	ENDS
;	COMDAT ??$_Allocate@_W@std@@YAPA_WIPA_W@Z
_TEXT	SEGMENT PARA USE32 PUBLIC 'CODE'
_TEXT	ENDS
;	COMDAT ??_C@_01GFHCPBMG@C?$AA@
CONST	SEGMENT DWORD USE32 PUBLIC 'CONST'
CONST	ENDS
;	COMDAT ?_Peek@?$istreambuf_iterator@_WU?$char_traits@_W@std@@@std@@AAE_WXZ
_TEXT	SEGMENT PARA USE32 PUBLIC 'CODE'
_TEXT	ENDS
;	COMDAT ?_Peek@?$istreambuf_iterator@DU?$char_traits@D@std@@@std@@AAEDXZ
_TEXT	SEGMENT PARA USE32 PUBLIC 'CODE'
_TEXT	ENDS
;	COMDAT ??$use_facet@V?$ctype@_W@std@@@std@@YAABV?$ctype@_W@0@ABVlocale@0@@Z
_TEXT	SEGMENT PARA USE32 PUBLIC 'CODE'
_TEXT	ENDS
;	COMDAT ??_S?$ctype@_W@std@@6B@
CONST	SEGMENT DWORD USE32 PUBLIC 'CONST'
CONST	ENDS
;	COMDAT ??_R4?$ctype@_W@std@@6B@
rdata$r	SEGMENT DWORD USE32 PUBLIC 'CONST'
rdata$r	ENDS
;	COMDAT ??_R0?AV?$ctype@_W@std@@@8
_DATA	SEGMENT DWORD USE32 PUBLIC 'DATA'
_DATA	ENDS
;	COMDAT ??_R3?$ctype@_W@std@@8
rdata$r	SEGMENT DWORD USE32 PUBLIC 'CONST'
rdata$r	ENDS
;	COMDAT ??_R2?$ctype@_W@std@@8
rdata$r	SEGMENT DWORD USE32 PUBLIC 'CONST'
rdata$r	ENDS
;	COMDAT ??_R1A@?0A@A@?$ctype@_W@std@@8
rdata$r	SEGMENT DWORD USE32 PUBLIC 'CONST'
rdata$r	ENDS
;	COMDAT ??_R1A@?0A@A@ctype_base@std@@8
rdata$r	SEGMENT DWORD USE32 PUBLIC 'CONST'
rdata$r	ENDS
;	COMDAT ??_R0?AUctype_base@std@@@8
_DATA	SEGMENT DWORD USE32 PUBLIC 'DATA'
_DATA	ENDS
;	COMDAT ??_G?$ctype@_W@std@@MAEPAXI@Z
_TEXT	SEGMENT PARA USE32 PUBLIC 'CODE'
_TEXT	ENDS
;	COMDAT ??_C@_08EPJLHIJG@bad?5cast?$AA@
CONST	SEGMENT DWORD USE32 PUBLIC 'CONST'
CONST	ENDS
;	COMDAT __TI2?AVbad_cast@@
xdata$x	SEGMENT DWORD USE32 PUBLIC 'CONST'
xdata$x	ENDS
;	COMDAT __CTA2?AVbad_cast@@
xdata$x	SEGMENT DWORD USE32 PUBLIC 'CONST'
xdata$x	ENDS
;	COMDAT __CT??_R0?AVbad_cast@@@8??0bad_cast@@QAE@ABV0@@Z12
xdata$x	SEGMENT DWORD USE32 PUBLIC 'CONST'
xdata$x	ENDS
;	COMDAT ??_R0?AVbad_cast@@@8
_DATA	SEGMENT DWORD USE32 PUBLIC 'DATA'
_DATA	ENDS
;	COMDAT __CT??_R0?AVexception@@@8??0exception@@QAE@ABV0@@Z12
xdata$x	SEGMENT DWORD USE32 PUBLIC 'CONST'
xdata$x	ENDS
;	COMDAT ??_R0?AVexception@@@8
_DATA	SEGMENT DWORD USE32 PUBLIC 'DATA'
_DATA	ENDS
;	COMDAT ??$_DebugHeapDelete@Vfacet@locale@std@@@std@@YAXPAVfacet@locale@0@@Z
_TEXT	SEGMENT PARA USE32 PUBLIC 'CODE'
_TEXT	ENDS
;	COMDAT ??$use_facet@V?$ctype@D@std@@@std@@YAABV?$ctype@D@0@ABVlocale@0@@Z
_TEXT	SEGMENT PARA USE32 PUBLIC 'CODE'
_TEXT	ENDS
;	COMDAT ??_S?$ctype@D@std@@6B@
CONST	SEGMENT DWORD USE32 PUBLIC 'CONST'
CONST	ENDS
;	COMDAT ??_R4?$ctype@D@std@@6B@
rdata$r	SEGMENT DWORD USE32 PUBLIC 'CONST'
rdata$r	ENDS
;	COMDAT ??_R0?AV?$ctype@D@std@@@8
_DATA	SEGMENT DWORD USE32 PUBLIC 'DATA'
_DATA	ENDS
;	COMDAT ??_R3?$ctype@D@std@@8
rdata$r	SEGMENT DWORD USE32 PUBLIC 'CONST'
rdata$r	ENDS
;	COMDAT ??_R2?$ctype@D@std@@8
rdata$r	SEGMENT DWORD USE32 PUBLIC 'CONST'
rdata$r	ENDS
;	COMDAT ??_R1A@?0A@A@?$ctype@D@std@@8
rdata$r	SEGMENT DWORD USE32 PUBLIC 'CONST'
rdata$r	ENDS
;	COMDAT ??_G?$ctype@D@std@@MAEPAXI@Z
_TEXT	SEGMENT PARA USE32 PUBLIC 'CODE'
_TEXT	ENDS
;	COMDAT ??_S?$numpunct@_W@std@@6B@
CONST	SEGMENT DWORD USE32 PUBLIC 'CONST'
CONST	ENDS
;	COMDAT ??_S?$numpunct@D@std@@6B@
CONST	SEGMENT DWORD USE32 PUBLIC 'CONST'
CONST	ENDS
;	COMDAT _wmemmove
_TEXT	SEGMENT PARA USE32 PUBLIC 'CODE'
_TEXT	ENDS
;	COMDAT ?deallocate@?$allocator@_W@std@@QAEXPA_WI@Z
_TEXT	SEGMENT PARA USE32 PUBLIC 'CODE'
_TEXT	ENDS
;	COMDAT ??0?$allocator@_W@std@@QAE@ABV01@@Z
_TEXT	SEGMENT PARA USE32 PUBLIC 'CODE'
_TEXT	ENDS
;	COMDAT ?_messageEntries@CBalloonHelp@@0QBUAFX_MSGMAP_ENTRY@@B
CONST	SEGMENT DWORD USE32 PUBLIC 'CONST'
CONST	ENDS
;	COMDAT ?messageMap@CBalloonHelp@@1UAFX_MSGMAP@@B
CONST	SEGMENT DWORD USE32 PUBLIC 'CONST'
CONST	ENDS
;	COMDAT ??_H@YGXPAXIHP6EPAX0@Z@Z
_TEXT	SEGMENT PARA USE32 PUBLIC 'CODE'
_TEXT	ENDS
;	COMDAT ??_C@_0BA@GOIMFHNK@pStringMgr?5?$CB?$DN?50?$AA@
CONST	SEGMENT DWORD USE32 PUBLIC 'CONST'
CONST	ENDS
;	COMDAT ??_C@_0FJ@DMHPDOJC@D?3?2Program?5Files?5?$CIx86?$CJ?2Microsoft@
CONST	SEGMENT DWORD USE32 PUBLIC 'CONST'
CONST	ENDS
;	COMDAT ?data@CStringData@ATL@@QAEPAXXZ
_TEXT	SEGMENT PARA USE32 PUBLIC 'CODE'
_TEXT	ENDS
;	COMDAT ?GetDefaultManager@?$StrTraitMFC_DLL@DV?$ChTraitsCRT@D@ATL@@@@SAPAUIAtlStringMgr@ATL@@XZ
_TEXT	SEGMENT PARA USE32 PUBLIC 'CODE'
_TEXT	ENDS
;	COMDAT ?Release@CStringData@ATL@@QAEXXZ
_TEXT	SEGMENT PARA USE32 PUBLIC 'CODE'
_TEXT	ENDS
;	COMDAT ??_C@_0L@OIIMFBNE@nRefs?5?$CB?$DN?50?$AA@
CONST	SEGMENT DWORD USE32 PUBLIC 'CONST'
CONST	ENDS
;	COMDAT ?IsLocked@CStringData@ATL@@QBE_NXZ
_TEXT	SEGMENT PARA USE32 PUBLIC 'CODE'
_TEXT	ENDS
;	COMDAT ??_C@_0N@ILOMLJGA@nLength?5?$DO?$DN?50?$AA@
CONST	SEGMENT DWORD USE32 PUBLIC 'CONST'
CONST	ENDS
;	COMDAT ??_C@_0CD@EEFFJEGJ@nLength?5?$DM?$DN?5GetData?$CI?$CJ?9?$DOnAllocLeng@
CONST	SEGMENT DWORD USE32 PUBLIC 'CONST'
CONST	ENDS
;	COMDAT ?AtlThrow@ATL@@YGXJ@Z
_TEXT	SEGMENT PARA USE32 PUBLIC 'CODE'
_TEXT	ENDS
;	COMDAT ??RCTraceFileAndLineInfo@ATL@@QBAXKIPBDZZ
_TEXT	SEGMENT PARA USE32 PUBLIC 'CODE'
_TEXT	ENDS
;	COMDAT ?TraceV@CTrace@ATL@@QBAXPBDHKI0PAD@Z
_TEXT	SEGMENT PARA USE32 PUBLIC 'CODE'
_TEXT	ENDS
;	COMDAT ??0CTraceFileAndLineInfo@ATL@@QAE@PBDH@Z
_TEXT	SEGMENT PARA USE32 PUBLIC 'CODE'
_TEXT	ENDS
;	COMDAT ??_C@_0FI@NHHJANPC@D?3?2Program?5Files?5?$CIx86?$CJ?2Microsoft@
CONST	SEGMENT DWORD USE32 PUBLIC 'CONST'
CONST	ENDS
;	COMDAT ??_C@_0BF@IAAKIJDJ@AtlThrow?3?5hr?5?$DN?50x?$CFx?6?$AA@
CONST	SEGMENT DWORD USE32 PUBLIC 'CONST'
CONST	ENDS
;	COMDAT ??BCTraceCategory@ATL@@QBEKXZ
_TEXT	SEGMENT PARA USE32 PUBLIC 'CODE'
_TEXT	ENDS
;	COMDAT ?IsShared@CStringData@ATL@@QBE_NXZ
_TEXT	SEGMENT PARA USE32 PUBLIC 'CODE'
_TEXT	ENDS
;	COMDAT ??_C@_0CB@GFHAPKDK@pOldData?9?$DOnAllocLength?5?$DM?5nLength@
CONST	SEGMENT DWORD USE32 PUBLIC 'CONST'
CONST	ENDS
;	COMDAT ??_C@_0BA@GNIEOBOF@nNewLength?5?$DO?$DN?50?$AA@
CONST	SEGMENT DWORD USE32 PUBLIC 'CONST'
CONST	ENDS
;	COMDAT ?AddRef@CStringData@ATL@@QAEXXZ
_TEXT	SEGMENT PARA USE32 PUBLIC 'CODE'
_TEXT	ENDS
;	COMDAT ??_C@_09EEBKLCFA@nRefs?5?$DO?50?$AA@
CONST	SEGMENT DWORD USE32 PUBLIC 'CONST'
CONST	ENDS
;	COMDAT ?FindStringResourceInstance@?$StrTraitMFC_DLL@DV?$ChTraitsCRT@D@ATL@@@@SAPAUHINSTANCE__@@I@Z
_TEXT	SEGMENT PARA USE32 PUBLIC 'CODE'
_TEXT	ENDS
;	COMDAT ?AtlGetStringResourceImage@ATL@@YAPBUATLSTRINGRESOURCEIMAGE@1@PAUHINSTANCE__@@I@Z
_TEXT	SEGMENT PARA USE32 PUBLIC 'CODE'
_TEXT	ENDS
;	COMDAT ?_AtlGetStringResourceImage@ATL@@YAPBUATLSTRINGRESOURCEIMAGE@1@PAUHINSTANCE__@@PAUHRSRC__@@I@Z
_TEXT	SEGMENT PARA USE32 PUBLIC 'CODE'
_TEXT	ENDS
;	COMDAT ?GetBaseTypeLength@?$ChTraitsCRT@D@ATL@@SAHPB_WH@Z
_TEXT	SEGMENT PARA USE32 PUBLIC 'CODE'
_TEXT	ENDS
;	COMDAT ?_AtlGetConversionACP@ATL@@YGIXZ
_TEXT	SEGMENT PARA USE32 PUBLIC 'CODE'
_TEXT	ENDS
;	COMDAT ?g_pfnGetThreadACP@ATL@@3P6GIXZA
_DATA	SEGMENT DWORD USE32 PUBLIC 'DATA'
_DATA	ENDS
;	COMDAT ?_AtlGetThreadACPThunk@ATL@@YGIXZ
_TEXT	SEGMENT PARA USE32 PUBLIC 'CODE'
_TEXT	ENDS
;	COMDAT ?_AtlGetThreadACPReal@ATL@@YGIXZ
_TEXT	SEGMENT PARA USE32 PUBLIC 'CODE'
_TEXT	ENDS
;	COMDAT ?_AtlGetThreadACPFake@ATL@@YGIXZ
_TEXT	SEGMENT PARA USE32 PUBLIC 'CODE'
_TEXT	ENDS
;	COMDAT ?InterlockedExchangePointer@@YGPAXPAPAXPAX@Z
_TEXT	SEGMENT PARA USE32 PUBLIC 'CODE'
_TEXT	ENDS
;	COMDAT ?ConvertToBaseType@?$ChTraitsCRT@D@ATL@@SAXPADHPB_WH@Z
_TEXT	SEGMENT PARA USE32 PUBLIC 'CODE'
_TEXT	ENDS
;	COMDAT ??_C@_0FH@KDPNIMBO@D?3?2Program?5Files?5?$CIx86?$CJ?2Microsoft@
CONST	SEGMENT DWORD USE32 PUBLIC 'CONST'
CONST	ENDS
;	COMDAT ??_C@_0CJ@FJEKGMMD@Warning?3?5implicit?5LoadString?$CI?$CFu?$CJ@
CONST	SEGMENT DWORD USE32 PUBLIC 'CONST'
CONST	ENDS
;	COMDAT ??_7CBalloonHelp@@6B@
CONST	SEGMENT DWORD USE32 PUBLIC 'CONST'
CONST	ENDS
sxdata	SEGMENT DWORD USE32 'SXDATA'
sxdata	ENDS
FLAT	GROUP _DATA, CONST, _BSS
	ASSUME	CS: FLAT, DS: FLAT, SS: FLAT
endif

INCLUDELIB MSVCRTD
INCLUDELIB OLDNAMES

PUBLIC	?g_pfnGetThreadACP@ATL@@3P6GIXZA		; ATL::g_pfnGetThreadACP
PUBLIC	?_AtlGetThreadACPThunk@ATL@@YGIXZ		; ATL::_AtlGetThreadACPThunk
PUBLIC	?unCLOSE_ON_LBUTTON_UP@CBalloonHelp@@2IB	; CBalloonHelp::unCLOSE_ON_LBUTTON_UP
PUBLIC	?unCLOSE_ON_MBUTTON_UP@CBalloonHelp@@2IB	; CBalloonHelp::unCLOSE_ON_MBUTTON_UP
PUBLIC	?unCLOSE_ON_RBUTTON_UP@CBalloonHelp@@2IB	; CBalloonHelp::unCLOSE_ON_RBUTTON_UP
PUBLIC	?unCLOSE_ON_LBUTTON_DOWN@CBalloonHelp@@2IB	; CBalloonHelp::unCLOSE_ON_LBUTTON_DOWN
PUBLIC	?unCLOSE_ON_MBUTTON_DOWN@CBalloonHelp@@2IB	; CBalloonHelp::unCLOSE_ON_MBUTTON_DOWN
PUBLIC	?unCLOSE_ON_RBUTTON_DOWN@CBalloonHelp@@2IB	; CBalloonHelp::unCLOSE_ON_RBUTTON_DOWN
PUBLIC	?unCLOSE_ON_MOUSE_MOVE@CBalloonHelp@@2IB	; CBalloonHelp::unCLOSE_ON_MOUSE_MOVE
PUBLIC	?unCLOSE_ON_KEYPRESS@CBalloonHelp@@2IB		; CBalloonHelp::unCLOSE_ON_KEYPRESS
PUBLIC	?unCLOSE_ON_ANYTHING@CBalloonHelp@@2IB		; CBalloonHelp::unCLOSE_ON_ANYTHING
PUBLIC	?unDELAY_CLOSE@CBalloonHelp@@2IB		; CBalloonHelp::unDELAY_CLOSE
PUBLIC	?unDELETE_THIS_ON_CLOSE@CBalloonHelp@@2IB	; CBalloonHelp::unDELETE_THIS_ON_CLOSE
PUBLIC	?unSHOW_CLOSE_BUTTON@CBalloonHelp@@2IB		; CBalloonHelp::unSHOW_CLOSE_BUTTON
PUBLIC	?unSHOW_INNER_SHADOW@CBalloonHelp@@2IB		; CBalloonHelp::unSHOW_INNER_SHADOW
PUBLIC	?unSHOW_TOPMOST@CBalloonHelp@@2IB		; CBalloonHelp::unSHOW_TOPMOST
PUBLIC	?unDISABLE_XP_SHADOW@CBalloonHelp@@2IB		; CBalloonHelp::unDISABLE_XP_SHADOW
PUBLIC	?unDISABLE_FADEIN@CBalloonHelp@@2IB		; CBalloonHelp::unDISABLE_FADEIN
PUBLIC	?unDISABLE_FADEOUT@CBalloonHelp@@2IB		; CBalloonHelp::unDISABLE_FADEOUT
PUBLIC	?unDISABLE_FADE@CBalloonHelp@@2IB		; CBalloonHelp::unDISABLE_FADE
PUBLIC	?nTIP_TAIL@CBalloonHelp@@1HB			; CBalloonHelp::nTIP_TAIL
PUBLIC	?nTIP_MARGIN@CBalloonHelp@@1HB			; CBalloonHelp::nTIP_MARGIN
PUBLIC	?OnShowWindow@CBalloonHelp@@IAEXHI@Z		; CBalloonHelp::OnShowWindow
PUBLIC	?OnPrint@CBalloonHelp@@IAEJIJ@Z			; CBalloonHelp::OnPrint
PUBLIC	?OnPrintClient@CBalloonHelp@@IAEJIJ@Z		; CBalloonHelp::OnPrintClient
PUBLIC	?OnEraseBkgnd@CBalloonHelp@@IAEHPAVCDC@@@Z	; CBalloonHelp::OnEraseBkgnd
PUBLIC	?OnPaint@CBalloonHelp@@IAEXXZ			; CBalloonHelp::OnPaint
PUBLIC	?OnNcPaint@CBalloonHelp@@IAEXXZ			; CBalloonHelp::OnNcPaint
PUBLIC	?OnLButtonDown@CBalloonHelp@@IAEXIVCPoint@@@Z	; CBalloonHelp::OnLButtonDown
PUBLIC	?OnLButtonUp@CBalloonHelp@@IAEXIVCPoint@@@Z	; CBalloonHelp::OnLButtonUp
PUBLIC	?OnNcCalcSize@CBalloonHelp@@IAEXHPAUtagNCCALCSIZE_PARAMS@@@Z ; CBalloonHelp::OnNcCalcSize
PUBLIC	?OnTimer@CBalloonHelp@@IAEXI@Z			; CBalloonHelp::OnTimer
PUBLIC	?OnMouseMove@CBalloonHelp@@IAEXIVCPoint@@@Z	; CBalloonHelp::OnMouseMove
PUBLIC	?OnNcHitTest@CBalloonHelp@@IAEIVCPoint@@@Z	; CBalloonHelp::OnNcHitTest
PUBLIC	?OnClose@CBalloonHelp@@IAEXXZ			; CBalloonHelp::OnClose
PUBLIC	?OnDestroy@CBalloonHelp@@IAEXXZ			; CBalloonHelp::OnDestroy
PUBLIC	?_messageEntries@CBalloonHelp@@0QBUAFX_MSGMAP_ENTRY@@B ; CBalloonHelp::_messageEntries
PUBLIC	?messageMap@CBalloonHelp@@1UAFX_MSGMAP@@B	; CBalloonHelp::messageMap
PUBLIC	?s_ClassAtom@CBalloonHelp@@0GA			; CBalloonHelp::s_ClassAtom
PUBLIC	?s_ClassAtomShadowed@CBalloonHelp@@0GA		; CBalloonHelp::s_ClassAtomShadowed
PUBLIC	_g_pfnGetSystemMetrics
PUBLIC	_g_pfnMonitorFromWindow
PUBLIC	_g_pfnMonitorFromRect
PUBLIC	_g_pfnMonitorFromPoint
PUBLIC	_g_pfnGetMonitorInfo
PUBLIC	_g_pfnEnumDisplayMonitors
PUBLIC	_g_pfnEnumDisplayDevices
PUBLIC	_g_fMultiMonInitDone
PUBLIC	_g_fMultimonPlatformNT
EXTRN	?GetThisMessageMap@CWnd@@KGPBUAFX_MSGMAP@@XZ:NEAR ; CWnd::GetThisMessageMap
_BSS	SEGMENT
?s_ClassAtom@CBalloonHelp@@0GA DW 01H DUP (?)		; CBalloonHelp::s_ClassAtom
	ALIGN	4

?s_ClassAtomShadowed@CBalloonHelp@@0GA DW 01H DUP (?)	; CBalloonHelp::s_ClassAtomShadowed
	ALIGN	4

_g_pfnGetSystemMetrics DD 01H DUP (?)
_g_pfnMonitorFromWindow DD 01H DUP (?)
_g_pfnMonitorFromRect DD 01H DUP (?)
_g_pfnMonitorFromPoint DD 01H DUP (?)
_g_pfnGetMonitorInfo DD 01H DUP (?)
_g_pfnEnumDisplayMonitors DD 01H DUP (?)
_g_pfnEnumDisplayDevices DD 01H DUP (?)
_g_fMultiMonInitDone DD 01H DUP (?)
_g_fMultimonPlatformNT DD 01H DUP (?)
_BSS	ENDS
CONST	SEGMENT
$SG187342 DB	'USER32', 00H
	ORG $+1
$SG187351 DB	'GetSystemMetrics', 00H
	ORG $+3
$SG187352 DB	'MonitorFromWindow', 00H
	ORG $+2
$SG187353 DB	'MonitorFromRect', 00H
$SG187354 DB	'MonitorFromPoint', 00H
	ORG $+3
$SG187355 DB	'EnumDisplayMonitors', 00H
$SG187356 DB	'GetMonitorInfoA', 00H
$SG187357 DB	'EnumDisplayDevicesA', 00H
$SG187411 DB	'DISPLAY', 00H
$SG187451 DB	'DISPLAY', 00H
$SG187454 DB	'DISPLAY', 00H
CONST	ENDS
_DATA	SEGMENT
_THIS_FILE DB	'.\src\Gui\util\BalloonHelp.cpp', 00H
_DATA	ENDS
CONST	SEGMENT
?unCLOSE_ON_LBUTTON_UP@CBalloonHelp@@2IB DD 01H		; CBalloonHelp::unCLOSE_ON_LBUTTON_UP
?unCLOSE_ON_MBUTTON_UP@CBalloonHelp@@2IB DD 02H		; CBalloonHelp::unCLOSE_ON_MBUTTON_UP
?unCLOSE_ON_RBUTTON_UP@CBalloonHelp@@2IB DD 04H		; CBalloonHelp::unCLOSE_ON_RBUTTON_UP
?unCLOSE_ON_LBUTTON_DOWN@CBalloonHelp@@2IB DD 08H	; CBalloonHelp::unCLOSE_ON_LBUTTON_DOWN
?unCLOSE_ON_MBUTTON_DOWN@CBalloonHelp@@2IB DD 010H	; CBalloonHelp::unCLOSE_ON_MBUTTON_DOWN
?unCLOSE_ON_RBUTTON_DOWN@CBalloonHelp@@2IB DD 020H	; CBalloonHelp::unCLOSE_ON_RBUTTON_DOWN
?unCLOSE_ON_MOUSE_MOVE@CBalloonHelp@@2IB DD 040H	; CBalloonHelp::unCLOSE_ON_MOUSE_MOVE
?unCLOSE_ON_KEYPRESS@CBalloonHelp@@2IB DD 080H		; CBalloonHelp::unCLOSE_ON_KEYPRESS
?unCLOSE_ON_ANYTHING@CBalloonHelp@@2IB DD 07fH		; CBalloonHelp::unCLOSE_ON_ANYTHING
?unDELAY_CLOSE@CBalloonHelp@@2IB DD 0100H		; CBalloonHelp::unDELAY_CLOSE
?unDELETE_THIS_ON_CLOSE@CBalloonHelp@@2IB DD 0200H	; CBalloonHelp::unDELETE_THIS_ON_CLOSE
?unSHOW_CLOSE_BUTTON@CBalloonHelp@@2IB DD 0400H		; CBalloonHelp::unSHOW_CLOSE_BUTTON
?unSHOW_INNER_SHADOW@CBalloonHelp@@2IB DD 0800H		; CBalloonHelp::unSHOW_INNER_SHADOW
?unSHOW_TOPMOST@CBalloonHelp@@2IB DD 01000H		; CBalloonHelp::unSHOW_TOPMOST
?unDISABLE_XP_SHADOW@CBalloonHelp@@2IB DD 02000H	; CBalloonHelp::unDISABLE_XP_SHADOW
?unDISABLE_FADEIN@CBalloonHelp@@2IB DD 04000H		; CBalloonHelp::unDISABLE_FADEIN
?unDISABLE_FADEOUT@CBalloonHelp@@2IB DD 08000H		; CBalloonHelp::unDISABLE_FADEOUT
?unDISABLE_FADE@CBalloonHelp@@2IB DD 0c000H		; CBalloonHelp::unDISABLE_FADE
?nTIP_TAIL@CBalloonHelp@@1HB DD 014H			; CBalloonHelp::nTIP_TAIL
?nTIP_MARGIN@CBalloonHelp@@1HB DD 08H			; CBalloonHelp::nTIP_MARGIN
$SG187477 DB	00H
$SG187478 DB	00H
	ORG $+2
$SG187480 DB	'USER32.DLL', 00H
	ORG $+1
$SG187483 DB	'AnimateWindow', 00H
	ORG $+2
$SG187855 DB	'BalloonHelpClassDS', 00H
	ORG $+1
$SG187856 DB	'BalloonHelpClass', 00H
CONST	ENDS
;	COMDAT ?_messageEntries@CBalloonHelp@@0QBUAFX_MSGMAP_ENTRY@@B
CONST	SEGMENT
?_messageEntries@CBalloonHelp@@0QBUAFX_MSGMAP_ENTRY@@B DD 014H ; CBalloonHelp::_messageEntries
	DD	00H
	DD	00H
	DD	00H
	DD	01H
	DD	FLAT:?OnEraseBkgnd@CBalloonHelp@@IAEHPAVCDC@@@Z
	DD	0fH
	DD	00H
	DD	00H
	DD	00H
	DD	010H
	DD	FLAT:?OnPaint@CBalloonHelp@@IAEXXZ
	DD	085H
	DD	00H
	DD	00H
	DD	00H
	DD	010H
	DD	FLAT:?OnNcPaint@CBalloonHelp@@IAEXXZ
	DD	0201H
	DD	00H
	DD	00H
	DD	00H
	DD	032H
	DD	FLAT:?OnLButtonDown@CBalloonHelp@@IAEXIVCPoint@@@Z
	DD	0202H
	DD	00H
	DD	00H
	DD	00H
	DD	032H
	DD	FLAT:?OnLButtonUp@CBalloonHelp@@IAEXIVCPoint@@@Z
	DD	083H
	DD	00H
	DD	00H
	DD	00H
	DD	02fH
	DD	FLAT:?OnNcCalcSize@CBalloonHelp@@IAEXHPAUtagNCCALCSIZE_PARAMS@@@Z
	DD	0113H
	DD	00H
	DD	00H
	DD	00H
	DD	011H
	DD	FLAT:?OnTimer@CBalloonHelp@@IAEXI@Z
	DD	084H
	DD	00H
	DD	00H
	DD	00H
	DD	02dH
	DD	FLAT:?OnNcHitTest@CBalloonHelp@@IAEIVCPoint@@@Z
	DD	0200H
	DD	00H
	DD	00H
	DD	00H
	DD	032H
	DD	FLAT:?OnMouseMove@CBalloonHelp@@IAEXIVCPoint@@@Z
	DD	02H
	DD	00H
	DD	00H
	DD	00H
	DD	010H
	DD	FLAT:?OnDestroy@CBalloonHelp@@IAEXXZ
	DD	010H
	DD	00H
	DD	00H
	DD	00H
	DD	010H
	DD	FLAT:?OnClose@CBalloonHelp@@IAEXXZ
	DD	018H
	DD	00H
	DD	00H
	DD	00H
	DD	012H
	DD	FLAT:?OnShowWindow@CBalloonHelp@@IAEXHI@Z
	DD	0317H
	DD	00H
	DD	00H
	DD	00H
	DD	0eH
	DD	FLAT:?OnPrint@CBalloonHelp@@IAEJIJ@Z
	DD	0318H
	DD	00H
	DD	00H
	DD	00H
	DD	0eH
	DD	FLAT:?OnPrintClient@CBalloonHelp@@IAEJIJ@Z
	DD	00H
	DD	00H
	DD	00H
	DD	00H
	DD	00H
	DD	00H
CONST	ENDS
;	COMDAT ?messageMap@CBalloonHelp@@1UAFX_MSGMAP@@B
CONST	SEGMENT
?messageMap@CBalloonHelp@@1UAFX_MSGMAP@@B DD FLAT:?GetThisMessageMap@CWnd@@KGPBUAFX_MSGMAP@@XZ ; CBalloonHelp::messageMap
	DD	FLAT:?_messageEntries@CBalloonHelp@@0QBUAFX_MSGMAP_ENTRY@@B
CONST	ENDS
;	COMDAT ?g_pfnGetThreadACP@ATL@@3P6GIXZA
_DATA	SEGMENT
?g_pfnGetThreadACP@ATL@@3P6GIXZA DD FLAT:?_AtlGetThreadACPThunk@ATL@@YGIXZ ; ATL::g_pfnGetThreadACP
_DATA	ENDS
PUBLIC	_IsPlatformNT
EXTRN	__RTC_InitBase:NEAR
EXTRN	__RTC_Shutdown:NEAR
EXTRN	__RTC_CheckEsp:NEAR
EXTRN	___security_cookie:DWORD
EXTRN	@_RTC_CheckStackVars@8:NEAR
EXTRN	@__security_check_cookie@4:NEAR
EXTRN	__imp__GetVersionExA@4:NEAR
;	COMDAT rtc$IMZ
; File d:\program files (x86)\microsoft visual studio .net 2003\vc7\platformsdk\include\multimon.h
rtc$IMZ	SEGMENT
__RTC_InitBase.rtc$IMZ DD FLAT:__RTC_InitBase
rtc$IMZ	ENDS
;	COMDAT rtc$TMZ
rtc$TMZ	SEGMENT
__RTC_Shutdown.rtc$TMZ DD FLAT:__RTC_Shutdown
; Function compile flags: /Odt /RTCsu
rtc$TMZ	ENDS
_TEXT	SEGMENT
_osvi$ = -156						; size = 148
__$ArrayPad$ = -4					; size = 4
__$ReturnAddr$ = 4					; size = 4
_IsPlatformNT PROC NEAR

; 169  : { 

  00000	55		 push	 ebp
  00001	8b ec		 mov	 ebp, esp
  00003	81 ec a0 00 00
	00		 sub	 esp, 160		; 000000a0H
  00009	56		 push	 esi
  0000a	57		 push	 edi
  0000b	8d bd 60 ff ff
	ff		 lea	 edi, DWORD PTR [ebp-160]
  00011	b9 28 00 00 00	 mov	 ecx, 40			; 00000028H
  00016	b8 cc cc cc cc	 mov	 eax, -858993460		; ccccccccH
  0001b	f3 ab		 rep stosd
  0001d	a1 00 00 00 00	 mov	 eax, DWORD PTR ___security_cookie
  00022	89 45 fc	 mov	 DWORD PTR __$ArrayPad$[ebp], eax

; 170  :     OSVERSIONINFOA osvi = {0};

  00025	c7 85 64 ff ff
	ff 00 00 00 00	 mov	 DWORD PTR _osvi$[ebp], 0
  0002f	b9 24 00 00 00	 mov	 ecx, 36			; 00000024H
  00034	33 c0		 xor	 eax, eax
  00036	8d bd 68 ff ff
	ff		 lea	 edi, DWORD PTR _osvi$[ebp+4]
  0003c	f3 ab		 rep stosd

; 171  :     osvi.dwOSVersionInfoSize = sizeof(osvi);

  0003e	c7 85 64 ff ff
	ff 94 00 00 00	 mov	 DWORD PTR _osvi$[ebp], 148 ; 00000094H

; 172  :     GetVersionExA((OSVERSIONINFOA*)&osvi);

  00048	8b f4		 mov	 esi, esp
  0004a	8d 85 64 ff ff
	ff		 lea	 eax, DWORD PTR _osvi$[ebp]
  00050	50		 push	 eax
  00051	ff 15 00 00 00
	00		 call	 DWORD PTR __imp__GetVersionExA@4
  00057	3b f4		 cmp	 esi, esp
  00059	e8 00 00 00 00	 call	 __RTC_CheckEsp

; 173  :     return (VER_PLATFORM_WIN32_NT == osvi.dwPlatformId);    

  0005e	33 c0		 xor	 eax, eax
  00060	83 bd 74 ff ff
	ff 02		 cmp	 DWORD PTR _osvi$[ebp+16], 2
  00067	0f 94 c0	 sete	 al

; 174  : }

  0006a	52		 push	 edx
  0006b	8b cd		 mov	 ecx, ebp
  0006d	50		 push	 eax
  0006e	8d 15 00 00 00
	00		 lea	 edx, DWORD PTR $L188739
  00074	e8 00 00 00 00	 call	 @_RTC_CheckStackVars@8
  00079	58		 pop	 eax
  0007a	5a		 pop	 edx
  0007b	8b 4d fc	 mov	 ecx, DWORD PTR __$ArrayPad$[ebp]
  0007e	e8 00 00 00 00	 call	 @__security_check_cookie@4
  00083	5f		 pop	 edi
  00084	5e		 pop	 esi
  00085	81 c4 a0 00 00
	00		 add	 esp, 160		; 000000a0H
  0008b	3b ec		 cmp	 ebp, esp
  0008d	e8 00 00 00 00	 call	 __RTC_CheckEsp
  00092	8b e5		 mov	 esp, ebp
  00094	5d		 pop	 ebp
  00095	c3		 ret	 0
$L188739:
  00096	01 00 00 00	 DD	 1
  0009a	00 00 00 00	 DD	 $L188738
$L188738:
  0009e	64 ff ff ff	 DD	 -156			; ffffff64H
  000a2	94 00 00 00	 DD	 148			; 00000094H
  000a6	00 00 00 00	 DD	 $L188735
$L188735:
  000aa	6f		 DB	 111			; 0000006fH
  000ab	73		 DB	 115			; 00000073H
  000ac	76		 DB	 118			; 00000076H
  000ad	69		 DB	 105			; 00000069H
  000ae	00		 DB	 0
_IsPlatformNT ENDP
_TEXT	ENDS
PUBLIC	_InitMultipleMonitorStubs
EXTRN	__imp__GetProcAddress@8:NEAR
EXTRN	__imp__GetModuleHandleA@4:NEAR
; Function compile flags: /Odt /RTCsu
_TEXT	SEGMENT
_hUser32$ = -4						; size = 4
_InitMultipleMonitorStubs PROC NEAR

; 177  : {

  000b0	55		 push	 ebp
  000b1	8b ec		 mov	 ebp, esp
  000b3	51		 push	 ecx
  000b4	56		 push	 esi
  000b5	c7 45 fc cc cc
	cc cc		 mov	 DWORD PTR [ebp-4], -858993460 ; ccccccccH

; 178  :     HMODULE hUser32;
; 179  :     if (g_fMultiMonInitDone)

  000bc	83 3d 00 00 00
	00 00		 cmp	 DWORD PTR _g_fMultiMonInitDone, 0
  000c3	74 11		 je	 SHORT $L187341

; 180  :     {
; 181  :         return g_pfnGetMonitorInfo != NULL;

  000c5	33 c0		 xor	 eax, eax
  000c7	83 3d 00 00 00
	00 00		 cmp	 DWORD PTR _g_pfnGetMonitorInfo, 0
  000ce	0f 95 c0	 setne	 al
  000d1	e9 a8 01 00 00	 jmp	 $L187339
$L187341:

; 182  :     }
; 183  : 
; 184  :     g_fMultimonPlatformNT = IsPlatformNT();

  000d6	e8 00 00 00 00	 call	 _IsPlatformNT
  000db	a3 00 00 00 00	 mov	 DWORD PTR _g_fMultimonPlatformNT, eax

; 185  :     hUser32 = GetModuleHandle(TEXT("USER32"));

  000e0	8b f4		 mov	 esi, esp
  000e2	68 00 00 00 00	 push	 OFFSET FLAT:$SG187342
  000e7	ff 15 00 00 00
	00		 call	 DWORD PTR __imp__GetModuleHandleA@4
  000ed	3b f4		 cmp	 esi, esp
  000ef	e8 00 00 00 00	 call	 __RTC_CheckEsp
  000f4	89 45 fc	 mov	 DWORD PTR _hUser32$[ebp], eax

; 186  :     if (hUser32 &&
; 187  :         (*(FARPROC*)&g_pfnGetSystemMetrics    = GetProcAddress(hUser32,"GetSystemMetrics")) != NULL &&
; 188  :         (*(FARPROC*)&g_pfnMonitorFromWindow   = GetProcAddress(hUser32,"MonitorFromWindow")) != NULL &&
; 189  :         (*(FARPROC*)&g_pfnMonitorFromRect     = GetProcAddress(hUser32,"MonitorFromRect")) != NULL &&
; 190  :         (*(FARPROC*)&g_pfnMonitorFromPoint    = GetProcAddress(hUser32,"MonitorFromPoint")) != NULL &&
; 191  :         (*(FARPROC*)&g_pfnEnumDisplayMonitors = GetProcAddress(hUser32,"EnumDisplayMonitors")) != NULL &&
; 192  : #ifdef UNICODE
; 193  :         (*(FARPROC*)&g_pfnEnumDisplayDevices  = GetProcAddress(hUser32,"EnumDisplayDevicesW")) != NULL &&
; 194  :         (*(FARPROC*)&g_pfnGetMonitorInfo      = g_fMultimonPlatformNT ? GetProcAddress(hUser32,"GetMonitorInfoW") : 
; 195  :                                                 GetProcAddress(hUser32,"GetMonitorInfoA")) != NULL
; 196  : #else
; 197  :         (*(FARPROC*)&g_pfnGetMonitorInfo      = GetProcAddress(hUser32,"GetMonitorInfoA")) != NULL &&
; 198  :         (*(FARPROC*)&g_pfnEnumDisplayDevices  = GetProcAddress(hUser32,"EnumDisplayDevicesA")) != NULL
; 199  : #endif
; 200  :     ) {

  000f7	83 7d fc 00	 cmp	 DWORD PTR _hUser32$[ebp], 0
  000fb	0f 84 2b 01 00
	00		 je	 $L187350
  00101	8b f4		 mov	 esi, esp
  00103	68 00 00 00 00	 push	 OFFSET FLAT:$SG187351
  00108	8b 45 fc	 mov	 eax, DWORD PTR _hUser32$[ebp]
  0010b	50		 push	 eax
  0010c	ff 15 00 00 00
	00		 call	 DWORD PTR __imp__GetProcAddress@8
  00112	3b f4		 cmp	 esi, esp
  00114	e8 00 00 00 00	 call	 __RTC_CheckEsp
  00119	a3 00 00 00 00	 mov	 DWORD PTR _g_pfnGetSystemMetrics, eax
  0011e	83 3d 00 00 00
	00 00		 cmp	 DWORD PTR _g_pfnGetSystemMetrics, 0
  00125	0f 84 01 01 00
	00		 je	 $L187350
  0012b	8b f4		 mov	 esi, esp
  0012d	68 00 00 00 00	 push	 OFFSET FLAT:$SG187352
  00132	8b 4d fc	 mov	 ecx, DWORD PTR _hUser32$[ebp]
  00135	51		 push	 ecx
  00136	ff 15 00 00 00
	00		 call	 DWORD PTR __imp__GetProcAddress@8
  0013c	3b f4		 cmp	 esi, esp
  0013e	e8 00 00 00 00	 call	 __RTC_CheckEsp
  00143	a3 00 00 00 00	 mov	 DWORD PTR _g_pfnMonitorFromWindow, eax
  00148	83 3d 00 00 00
	00 00		 cmp	 DWORD PTR _g_pfnMonitorFromWindow, 0
  0014f	0f 84 d7 00 00
	00		 je	 $L187350
  00155	8b f4		 mov	 esi, esp
  00157	68 00 00 00 00	 push	 OFFSET FLAT:$SG187353
  0015c	8b 55 fc	 mov	 edx, DWORD PTR _hUser32$[ebp]
  0015f	52		 push	 edx
  00160	ff 15 00 00 00
	00		 call	 DWORD PTR __imp__GetProcAddress@8
  00166	3b f4		 cmp	 esi, esp
  00168	e8 00 00 00 00	 call	 __RTC_CheckEsp
  0016d	a3 00 00 00 00	 mov	 DWORD PTR _g_pfnMonitorFromRect, eax
  00172	83 3d 00 00 00
	00 00		 cmp	 DWORD PTR _g_pfnMonitorFromRect, 0
  00179	0f 84 ad 00 00
	00		 je	 $L187350
  0017f	8b f4		 mov	 esi, esp
  00181	68 00 00 00 00	 push	 OFFSET FLAT:$SG187354
  00186	8b 45 fc	 mov	 eax, DWORD PTR _hUser32$[ebp]
  00189	50		 push	 eax
  0018a	ff 15 00 00 00
	00		 call	 DWORD PTR __imp__GetProcAddress@8
  00190	3b f4		 cmp	 esi, esp
  00192	e8 00 00 00 00	 call	 __RTC_CheckEsp
  00197	a3 00 00 00 00	 mov	 DWORD PTR _g_pfnMonitorFromPoint, eax
  0019c	83 3d 00 00 00
	00 00		 cmp	 DWORD PTR _g_pfnMonitorFromPoint, 0
  001a3	0f 84 83 00 00
	00		 je	 $L187350
  001a9	8b f4		 mov	 esi, esp
  001ab	68 00 00 00 00	 push	 OFFSET FLAT:$SG187355
  001b0	8b 4d fc	 mov	 ecx, DWORD PTR _hUser32$[ebp]
  001b3	51		 push	 ecx
  001b4	ff 15 00 00 00
	00		 call	 DWORD PTR __imp__GetProcAddress@8
  001ba	3b f4		 cmp	 esi, esp
  001bc	e8 00 00 00 00	 call	 __RTC_CheckEsp
  001c1	a3 00 00 00 00	 mov	 DWORD PTR _g_pfnEnumDisplayMonitors, eax
  001c6	83 3d 00 00 00
	00 00		 cmp	 DWORD PTR _g_pfnEnumDisplayMonitors, 0
  001cd	74 5d		 je	 SHORT $L187350
  001cf	8b f4		 mov	 esi, esp
  001d1	68 00 00 00 00	 push	 OFFSET FLAT:$SG187356
  001d6	8b 55 fc	 mov	 edx, DWORD PTR _hUser32$[ebp]
  001d9	52		 push	 edx
  001da	ff 15 00 00 00
	00		 call	 DWORD PTR __imp__GetProcAddress@8
  001e0	3b f4		 cmp	 esi, esp
  001e2	e8 00 00 00 00	 call	 __RTC_CheckEsp
  001e7	a3 00 00 00 00	 mov	 DWORD PTR _g_pfnGetMonitorInfo, eax
  001ec	83 3d 00 00 00
	00 00		 cmp	 DWORD PTR _g_pfnGetMonitorInfo, 0
  001f3	74 37		 je	 SHORT $L187350
  001f5	8b f4		 mov	 esi, esp
  001f7	68 00 00 00 00	 push	 OFFSET FLAT:$SG187357
  001fc	8b 45 fc	 mov	 eax, DWORD PTR _hUser32$[ebp]
  001ff	50		 push	 eax
  00200	ff 15 00 00 00
	00		 call	 DWORD PTR __imp__GetProcAddress@8
  00206	3b f4		 cmp	 esi, esp
  00208	e8 00 00 00 00	 call	 __RTC_CheckEsp
  0020d	a3 00 00 00 00	 mov	 DWORD PTR _g_pfnEnumDisplayDevices, eax
  00212	83 3d 00 00 00
	00 00		 cmp	 DWORD PTR _g_pfnEnumDisplayDevices, 0
  00219	74 11		 je	 SHORT $L187350

; 201  :         g_fMultiMonInitDone = TRUE;

  0021b	c7 05 00 00 00
	00 01 00 00 00	 mov	 DWORD PTR _g_fMultiMonInitDone, 1

; 202  :         return TRUE;

  00225	b8 01 00 00 00	 mov	 eax, 1
  0022a	eb 52		 jmp	 SHORT $L187339
$L187350:

; 203  :     }
; 204  :     else
; 205  :     {
; 206  :         g_pfnGetSystemMetrics    = NULL;

  0022c	c7 05 00 00 00
	00 00 00 00 00	 mov	 DWORD PTR _g_pfnGetSystemMetrics, 0

; 207  :         g_pfnMonitorFromWindow   = NULL;

  00236	c7 05 00 00 00
	00 00 00 00 00	 mov	 DWORD PTR _g_pfnMonitorFromWindow, 0

; 208  :         g_pfnMonitorFromRect     = NULL;

  00240	c7 05 00 00 00
	00 00 00 00 00	 mov	 DWORD PTR _g_pfnMonitorFromRect, 0

; 209  :         g_pfnMonitorFromPoint    = NULL;

  0024a	c7 05 00 00 00
	00 00 00 00 00	 mov	 DWORD PTR _g_pfnMonitorFromPoint, 0

; 210  :         g_pfnGetMonitorInfo      = NULL;

  00254	c7 05 00 00 00
	00 00 00 00 00	 mov	 DWORD PTR _g_pfnGetMonitorInfo, 0

; 211  :         g_pfnEnumDisplayMonitors = NULL;

  0025e	c7 05 00 00 00
	00 00 00 00 00	 mov	 DWORD PTR _g_pfnEnumDisplayMonitors, 0

; 212  :         g_pfnEnumDisplayDevices  = NULL;

  00268	c7 05 00 00 00
	00 00 00 00 00	 mov	 DWORD PTR _g_pfnEnumDisplayDevices, 0

; 213  : 
; 214  :         g_fMultiMonInitDone = TRUE;

  00272	c7 05 00 00 00
	00 01 00 00 00	 mov	 DWORD PTR _g_fMultiMonInitDone, 1

; 215  :         return FALSE;

  0027c	33 c0		 xor	 eax, eax
$L187339:

; 216  :     }
; 217  : }

  0027e	5e		 pop	 esi
  0027f	83 c4 04	 add	 esp, 4
  00282	3b ec		 cmp	 ebp, esp
  00284	e8 00 00 00 00	 call	 __RTC_CheckEsp
  00289	8b e5		 mov	 esp, ebp
  0028b	5d		 pop	 ebp
  0028c	c3		 ret	 0
_InitMultipleMonitorStubs ENDP
_TEXT	ENDS
PUBLIC	_xGetSystemMetrics@4
EXTRN	__imp__GetSystemMetrics@4:NEAR
; Function compile flags: /Odt /RTCsu
_TEXT	SEGMENT
tv68 = -4						; size = 4
_nIndex$ = 8						; size = 4
_xGetSystemMetrics@4 PROC NEAR

; 228  : {

  00290	55		 push	 ebp
  00291	8b ec		 mov	 ebp, esp
  00293	51		 push	 ecx
  00294	56		 push	 esi
  00295	c7 45 fc cc cc
	cc cc		 mov	 DWORD PTR [ebp-4], -858993460 ; ccccccccH

; 229  :     if (InitMultipleMonitorStubs())

  0029c	e8 00 00 00 00	 call	 _InitMultipleMonitorStubs
  002a1	85 c0		 test	 eax, eax
  002a3	74 15		 je	 SHORT $L187362

; 230  :         return g_pfnGetSystemMetrics(nIndex);

  002a5	8b f4		 mov	 esi, esp
  002a7	8b 45 08	 mov	 eax, DWORD PTR _nIndex$[ebp]
  002aa	50		 push	 eax
  002ab	ff 15 00 00 00
	00		 call	 DWORD PTR _g_pfnGetSystemMetrics
  002b1	3b f4		 cmp	 esi, esp
  002b3	e8 00 00 00 00	 call	 __RTC_CheckEsp
  002b8	eb 4d		 jmp	 SHORT $L187361
$L187362:

; 231  : 
; 232  :     switch (nIndex)

  002ba	8b 4d 08	 mov	 ecx, DWORD PTR _nIndex$[ebp]
  002bd	89 4d fc	 mov	 DWORD PTR tv68[ebp], ecx
  002c0	8b 55 fc	 mov	 edx, DWORD PTR tv68[ebp]
  002c3	83 ea 4c	 sub	 edx, 76			; 0000004cH
  002c6	89 55 fc	 mov	 DWORD PTR tv68[ebp], edx
  002c9	83 7d fc 05	 cmp	 DWORD PTR tv68[ebp], 5
  002cd	77 25		 ja	 SHORT $L187364
  002cf	8b 45 fc	 mov	 eax, DWORD PTR tv68[ebp]
  002d2	ff 24 85 00 00
	00 00		 jmp	 DWORD PTR $L188744[eax*4]
$L187367:

; 233  :     {
; 234  :     case SM_CMONITORS:
; 235  :     case SM_SAMEDISPLAYFORMAT:
; 236  :         return 1;

  002d9	b8 01 00 00 00	 mov	 eax, 1
  002de	eb 27		 jmp	 SHORT $L187361
$L187368:

; 237  : 
; 238  :     case SM_XVIRTUALSCREEN:
; 239  :     case SM_YVIRTUALSCREEN:
; 240  :         return 0;

  002e0	33 c0		 xor	 eax, eax
  002e2	eb 23		 jmp	 SHORT $L187361
$L187369:

; 241  : 
; 242  :     case SM_CXVIRTUALSCREEN:
; 243  :         nIndex = SM_CXSCREEN;

  002e4	c7 45 08 00 00
	00 00		 mov	 DWORD PTR _nIndex$[ebp], 0

; 244  :         break;

  002eb	eb 07		 jmp	 SHORT $L187364
$L187370:

; 245  : 
; 246  :     case SM_CYVIRTUALSCREEN:
; 247  :         nIndex = SM_CYSCREEN;

  002ed	c7 45 08 01 00
	00 00		 mov	 DWORD PTR _nIndex$[ebp], 1
$L187364:

; 248  :         break;
; 249  :     }
; 250  : 
; 251  :     return GetSystemMetrics(nIndex);

  002f4	8b f4		 mov	 esi, esp
  002f6	8b 4d 08	 mov	 ecx, DWORD PTR _nIndex$[ebp]
  002f9	51		 push	 ecx
  002fa	ff 15 00 00 00
	00		 call	 DWORD PTR __imp__GetSystemMetrics@4
  00300	3b f4		 cmp	 esi, esp
  00302	e8 00 00 00 00	 call	 __RTC_CheckEsp
$L187361:

; 252  : }

  00307	5e		 pop	 esi
  00308	83 c4 04	 add	 esp, 4
  0030b	3b ec		 cmp	 ebp, esp
  0030d	e8 00 00 00 00	 call	 __RTC_CheckEsp
  00312	8b e5		 mov	 esp, ebp
  00314	5d		 pop	 ebp
  00315	c2 04 00	 ret	 4
$L188744:
  00318	00 00 00 00	 DD	 $L187368
  0031c	00 00 00 00	 DD	 $L187368
  00320	00 00 00 00	 DD	 $L187369
  00324	00 00 00 00	 DD	 $L187370
  00328	00 00 00 00	 DD	 $L187367
  0032c	00 00 00 00	 DD	 $L187367
_xGetSystemMetrics@4 ENDP
_TEXT	ENDS
PUBLIC	_xMonitorFromPoint@12
; Function compile flags: /Odt /RTCsu
_TEXT	SEGMENT
_ptScreenCoords$ = 8					; size = 8
_dwFlags$ = 16						; size = 4
_xMonitorFromPoint@12 PROC NEAR

; 258  : {

  00330	55		 push	 ebp
  00331	8b ec		 mov	 ebp, esp
  00333	56		 push	 esi

; 259  :     if (InitMultipleMonitorStubs())

  00334	e8 00 00 00 00	 call	 _InitMultipleMonitorStubs
  00339	85 c0		 test	 eax, eax
  0033b	74 1d		 je	 SHORT $L187375

; 260  :         return g_pfnMonitorFromPoint(ptScreenCoords, dwFlags);

  0033d	8b f4		 mov	 esi, esp
  0033f	8b 45 10	 mov	 eax, DWORD PTR _dwFlags$[ebp]
  00342	50		 push	 eax
  00343	8b 4d 0c	 mov	 ecx, DWORD PTR _ptScreenCoords$[ebp+4]
  00346	51		 push	 ecx
  00347	8b 55 08	 mov	 edx, DWORD PTR _ptScreenCoords$[ebp]
  0034a	52		 push	 edx
  0034b	ff 15 00 00 00
	00		 call	 DWORD PTR _g_pfnMonitorFromPoint
  00351	3b f4		 cmp	 esi, esp
  00353	e8 00 00 00 00	 call	 __RTC_CheckEsp
  00358	eb 49		 jmp	 SHORT $L187374
$L187375:

; 261  : 
; 262  :     if ((dwFlags & (MONITOR_DEFAULTTOPRIMARY | MONITOR_DEFAULTTONEAREST)) ||
; 263  :         ((ptScreenCoords.x >= 0) &&
; 264  :         (ptScreenCoords.x < GetSystemMetrics(SM_CXSCREEN)) &&
; 265  :         (ptScreenCoords.y >= 0) &&
; 266  :         (ptScreenCoords.y < GetSystemMetrics(SM_CYSCREEN))))

  0035a	8b 45 10	 mov	 eax, DWORD PTR _dwFlags$[ebp]
  0035d	83 e0 03	 and	 eax, 3
  00360	75 38		 jne	 SHORT $L187377
  00362	83 7d 08 00	 cmp	 DWORD PTR _ptScreenCoords$[ebp], 0
  00366	7c 39		 jl	 SHORT $L187376
  00368	8b f4		 mov	 esi, esp
  0036a	6a 00		 push	 0
  0036c	ff 15 00 00 00
	00		 call	 DWORD PTR __imp__GetSystemMetrics@4
  00372	3b f4		 cmp	 esi, esp
  00374	e8 00 00 00 00	 call	 __RTC_CheckEsp
  00379	39 45 08	 cmp	 DWORD PTR _ptScreenCoords$[ebp], eax
  0037c	7d 23		 jge	 SHORT $L187376
  0037e	83 7d 0c 00	 cmp	 DWORD PTR _ptScreenCoords$[ebp+4], 0
  00382	7c 1d		 jl	 SHORT $L187376
  00384	8b f4		 mov	 esi, esp
  00386	6a 01		 push	 1
  00388	ff 15 00 00 00
	00		 call	 DWORD PTR __imp__GetSystemMetrics@4
  0038e	3b f4		 cmp	 esi, esp
  00390	e8 00 00 00 00	 call	 __RTC_CheckEsp
  00395	39 45 0c	 cmp	 DWORD PTR _ptScreenCoords$[ebp+4], eax
  00398	7d 07		 jge	 SHORT $L187376
$L187377:

; 267  :     {
; 268  :         return xPRIMARY_MONITOR;

  0039a	b8 42 00 34 12	 mov	 eax, 305397826		; 12340042H
  0039f	eb 02		 jmp	 SHORT $L187374
$L187376:

; 269  :     }
; 270  : 
; 271  :     return NULL;

  003a1	33 c0		 xor	 eax, eax
$L187374:

; 272  : }

  003a3	5e		 pop	 esi
  003a4	3b ec		 cmp	 ebp, esp
  003a6	e8 00 00 00 00	 call	 __RTC_CheckEsp
  003ab	5d		 pop	 ebp
  003ac	c2 0c 00	 ret	 12			; 0000000cH
_xMonitorFromPoint@12 ENDP
_TEXT	ENDS
PUBLIC	_xMonitorFromRect@8
; Function compile flags: /Odt /RTCsu
_TEXT	SEGMENT
_lprcScreenCoords$ = 8					; size = 4
_dwFlags$ = 12						; size = 4
_xMonitorFromRect@8 PROC NEAR

; 276  : {

  003b0	55		 push	 ebp
  003b1	8b ec		 mov	 ebp, esp
  003b3	56		 push	 esi

; 277  :     if (InitMultipleMonitorStubs())

  003b4	e8 00 00 00 00	 call	 _InitMultipleMonitorStubs
  003b9	85 c0		 test	 eax, eax
  003bb	74 19		 je	 SHORT $L187383

; 278  :         return g_pfnMonitorFromRect(lprcScreenCoords, dwFlags);

  003bd	8b f4		 mov	 esi, esp
  003bf	8b 45 0c	 mov	 eax, DWORD PTR _dwFlags$[ebp]
  003c2	50		 push	 eax
  003c3	8b 4d 08	 mov	 ecx, DWORD PTR _lprcScreenCoords$[ebp]
  003c6	51		 push	 ecx
  003c7	ff 15 00 00 00
	00		 call	 DWORD PTR _g_pfnMonitorFromRect
  003cd	3b f4		 cmp	 esi, esp
  003cf	e8 00 00 00 00	 call	 __RTC_CheckEsp
  003d4	eb 54		 jmp	 SHORT $L187382
$L187383:

; 279  : 
; 280  :     if ((dwFlags & (MONITOR_DEFAULTTOPRIMARY | MONITOR_DEFAULTTONEAREST)) ||
; 281  :         ((lprcScreenCoords->right > 0) &&
; 282  :         (lprcScreenCoords->bottom > 0) &&
; 283  :         (lprcScreenCoords->left < GetSystemMetrics(SM_CXSCREEN)) &&
; 284  :         (lprcScreenCoords->top < GetSystemMetrics(SM_CYSCREEN))))

  003d6	8b 55 0c	 mov	 edx, DWORD PTR _dwFlags$[ebp]
  003d9	83 e2 03	 and	 edx, 3
  003dc	75 43		 jne	 SHORT $L187385
  003de	8b 45 08	 mov	 eax, DWORD PTR _lprcScreenCoords$[ebp]
  003e1	83 78 08 00	 cmp	 DWORD PTR [eax+8], 0
  003e5	7e 41		 jle	 SHORT $L187384
  003e7	8b 4d 08	 mov	 ecx, DWORD PTR _lprcScreenCoords$[ebp]
  003ea	83 79 0c 00	 cmp	 DWORD PTR [ecx+12], 0
  003ee	7e 38		 jle	 SHORT $L187384
  003f0	8b f4		 mov	 esi, esp
  003f2	6a 00		 push	 0
  003f4	ff 15 00 00 00
	00		 call	 DWORD PTR __imp__GetSystemMetrics@4
  003fa	3b f4		 cmp	 esi, esp
  003fc	e8 00 00 00 00	 call	 __RTC_CheckEsp
  00401	8b 55 08	 mov	 edx, DWORD PTR _lprcScreenCoords$[ebp]
  00404	39 02		 cmp	 DWORD PTR [edx], eax
  00406	7d 20		 jge	 SHORT $L187384
  00408	8b f4		 mov	 esi, esp
  0040a	6a 01		 push	 1
  0040c	ff 15 00 00 00
	00		 call	 DWORD PTR __imp__GetSystemMetrics@4
  00412	3b f4		 cmp	 esi, esp
  00414	e8 00 00 00 00	 call	 __RTC_CheckEsp
  00419	8b 4d 08	 mov	 ecx, DWORD PTR _lprcScreenCoords$[ebp]
  0041c	39 41 04	 cmp	 DWORD PTR [ecx+4], eax
  0041f	7d 07		 jge	 SHORT $L187384
$L187385:

; 285  :     {
; 286  :         return xPRIMARY_MONITOR;

  00421	b8 42 00 34 12	 mov	 eax, 305397826		; 12340042H
  00426	eb 02		 jmp	 SHORT $L187382
$L187384:

; 287  :     }
; 288  : 
; 289  :     return NULL;

  00428	33 c0		 xor	 eax, eax
$L187382:

; 290  : }

  0042a	5e		 pop	 esi
  0042b	3b ec		 cmp	 ebp, esp
  0042d	e8 00 00 00 00	 call	 __RTC_CheckEsp
  00432	5d		 pop	 ebp
  00433	c2 08 00	 ret	 8
_xMonitorFromRect@8 ENDP
_TEXT	ENDS
PUBLIC	_xMonitorFromWindow@8
EXTRN	__imp__GetWindowPlacement@8:NEAR
EXTRN	__imp__IsIconic@4:NEAR
EXTRN	__imp__GetWindowRect@8:NEAR
; Function compile flags: /Odt /RTCsu
_TEXT	SEGMENT
tv80 = -56						; size = 4
_wp$ = -48						; size = 44
_hWnd$ = 8						; size = 4
_dwFlags$ = 12						; size = 4
_xMonitorFromWindow@8 PROC NEAR

; 294  : {

  00440	55		 push	 ebp
  00441	8b ec		 mov	 ebp, esp
  00443	83 ec 38	 sub	 esp, 56			; 00000038H
  00446	56		 push	 esi
  00447	57		 push	 edi
  00448	8d 7d c8	 lea	 edi, DWORD PTR [ebp-56]
  0044b	b9 0e 00 00 00	 mov	 ecx, 14			; 0000000eH
  00450	b8 cc cc cc cc	 mov	 eax, -858993460		; ccccccccH
  00455	f3 ab		 rep stosd

; 295  :     WINDOWPLACEMENT wp;
; 296  : 
; 297  :     if (InitMultipleMonitorStubs())

  00457	e8 00 00 00 00	 call	 _InitMultipleMonitorStubs
  0045c	85 c0		 test	 eax, eax
  0045e	74 19		 je	 SHORT $L187392

; 298  :         return g_pfnMonitorFromWindow(hWnd, dwFlags);

  00460	8b f4		 mov	 esi, esp
  00462	8b 45 0c	 mov	 eax, DWORD PTR _dwFlags$[ebp]
  00465	50		 push	 eax
  00466	8b 4d 08	 mov	 ecx, DWORD PTR _hWnd$[ebp]
  00469	51		 push	 ecx
  0046a	ff 15 00 00 00
	00		 call	 DWORD PTR _g_pfnMonitorFromWindow
  00470	3b f4		 cmp	 esi, esp
  00472	e8 00 00 00 00	 call	 __RTC_CheckEsp
  00477	eb 73		 jmp	 SHORT $L187390
$L187392:

; 299  : 
; 300  :     if (dwFlags & (MONITOR_DEFAULTTOPRIMARY | MONITOR_DEFAULTTONEAREST))

  00479	8b 55 0c	 mov	 edx, DWORD PTR _dwFlags$[ebp]
  0047c	83 e2 03	 and	 edx, 3
  0047f	74 07		 je	 SHORT $L187393

; 301  :         return xPRIMARY_MONITOR;

  00481	b8 42 00 34 12	 mov	 eax, 305397826		; 12340042H
  00486	eb 64		 jmp	 SHORT $L187390
$L187393:

; 302  : 
; 303  :     if (IsIconic(hWnd) ?
; 304  :             GetWindowPlacement(hWnd, &wp) :
; 305  :             GetWindowRect(hWnd, &wp.rcNormalPosition)) {

  00488	8b f4		 mov	 esi, esp
  0048a	8b 45 08	 mov	 eax, DWORD PTR _hWnd$[ebp]
  0048d	50		 push	 eax
  0048e	ff 15 00 00 00
	00		 call	 DWORD PTR __imp__IsIconic@4
  00494	3b f4		 cmp	 esi, esp
  00496	e8 00 00 00 00	 call	 __RTC_CheckEsp
  0049b	85 c0		 test	 eax, eax
  0049d	74 1c		 je	 SHORT $L188748
  0049f	8b f4		 mov	 esi, esp
  004a1	8d 4d d0	 lea	 ecx, DWORD PTR _wp$[ebp]
  004a4	51		 push	 ecx
  004a5	8b 55 08	 mov	 edx, DWORD PTR _hWnd$[ebp]
  004a8	52		 push	 edx
  004a9	ff 15 00 00 00
	00		 call	 DWORD PTR __imp__GetWindowPlacement@8
  004af	3b f4		 cmp	 esi, esp
  004b1	e8 00 00 00 00	 call	 __RTC_CheckEsp
  004b6	89 45 c8	 mov	 DWORD PTR tv80[ebp], eax
  004b9	eb 1a		 jmp	 SHORT $L188749
$L188748:
  004bb	8b f4		 mov	 esi, esp
  004bd	8d 45 ec	 lea	 eax, DWORD PTR _wp$[ebp+28]
  004c0	50		 push	 eax
  004c1	8b 4d 08	 mov	 ecx, DWORD PTR _hWnd$[ebp]
  004c4	51		 push	 ecx
  004c5	ff 15 00 00 00
	00		 call	 DWORD PTR __imp__GetWindowRect@8
  004cb	3b f4		 cmp	 esi, esp
  004cd	e8 00 00 00 00	 call	 __RTC_CheckEsp
  004d2	89 45 c8	 mov	 DWORD PTR tv80[ebp], eax
$L188749:
  004d5	83 7d c8 00	 cmp	 DWORD PTR tv80[ebp], 0
  004d9	74 0f		 je	 SHORT $L187395

; 306  : 
; 307  :         return xMonitorFromRect(&wp.rcNormalPosition, dwFlags);

  004db	8b 55 0c	 mov	 edx, DWORD PTR _dwFlags$[ebp]
  004de	52		 push	 edx
  004df	8d 45 ec	 lea	 eax, DWORD PTR _wp$[ebp+28]
  004e2	50		 push	 eax
  004e3	e8 00 00 00 00	 call	 _xMonitorFromRect@8
  004e8	eb 02		 jmp	 SHORT $L187390
$L187395:

; 308  :     }
; 309  : 
; 310  :     return NULL;

  004ea	33 c0		 xor	 eax, eax
$L187390:

; 311  : }

  004ec	52		 push	 edx
  004ed	8b cd		 mov	 ecx, ebp
  004ef	50		 push	 eax
  004f0	8d 15 00 00 00
	00		 lea	 edx, DWORD PTR $L188752
  004f6	e8 00 00 00 00	 call	 @_RTC_CheckStackVars@8
  004fb	58		 pop	 eax
  004fc	5a		 pop	 edx
  004fd	5f		 pop	 edi
  004fe	5e		 pop	 esi
  004ff	83 c4 38	 add	 esp, 56			; 00000038H
  00502	3b ec		 cmp	 ebp, esp
  00504	e8 00 00 00 00	 call	 __RTC_CheckEsp
  00509	8b e5		 mov	 esp, ebp
  0050b	5d		 pop	 ebp
  0050c	c2 08 00	 ret	 8
$L188752:
  0050f	01 00 00 00	 DD	 1
  00513	00 00 00 00	 DD	 $L188751
$L188751:
  00517	d0 ff ff ff	 DD	 -48			; ffffffd0H
  0051b	2c 00 00 00	 DD	 44			; 0000002cH
  0051f	00 00 00 00	 DD	 $L188750
$L188750:
  00523	77		 DB	 119			; 00000077H
  00524	70		 DB	 112			; 00000070H
  00525	00		 DB	 0
_xMonitorFromWindow@8 ENDP
_TEXT	ENDS
PUBLIC	_xGetMonitorInfo@8
EXTRN	__imp__lstrcpynA@12:NEAR
EXTRN	__imp__SystemParametersInfoA@16:NEAR
; Function compile flags: /Odt /RTCsu
_TEXT	SEGMENT
_f$187402 = -28						; size = 4
_rcWork$ = -20						; size = 16
_hMonitor$ = 8						; size = 4
_lpMonitorInfo$ = 12					; size = 4
_xGetMonitorInfo@8 PROC NEAR

; 315  : {

  00530	55		 push	 ebp
  00531	8b ec		 mov	 ebp, esp
  00533	83 ec 1c	 sub	 esp, 28			; 0000001cH
  00536	56		 push	 esi
  00537	b8 cc cc cc cc	 mov	 eax, -858993460		; ccccccccH
  0053c	89 45 e4	 mov	 DWORD PTR [ebp-28], eax
  0053f	89 45 e8	 mov	 DWORD PTR [ebp-24], eax
  00542	89 45 ec	 mov	 DWORD PTR [ebp-20], eax
  00545	89 45 f0	 mov	 DWORD PTR [ebp-16], eax
  00548	89 45 f4	 mov	 DWORD PTR [ebp-12], eax
  0054b	89 45 f8	 mov	 DWORD PTR [ebp-8], eax
  0054e	89 45 fc	 mov	 DWORD PTR [ebp-4], eax

; 316  :     RECT rcWork;
; 317  : 
; 318  :     if (InitMultipleMonitorStubs())

  00551	e8 00 00 00 00	 call	 _InitMultipleMonitorStubs
  00556	85 c0		 test	 eax, eax
  00558	74 22		 je	 SHORT $L187401

; 319  :     {
; 320  :         BOOL f = g_pfnGetMonitorInfo(hMonitor, lpMonitorInfo);

  0055a	8b f4		 mov	 esi, esp
  0055c	8b 45 0c	 mov	 eax, DWORD PTR _lpMonitorInfo$[ebp]
  0055f	50		 push	 eax
  00560	8b 4d 08	 mov	 ecx, DWORD PTR _hMonitor$[ebp]
  00563	51		 push	 ecx
  00564	ff 15 00 00 00
	00		 call	 DWORD PTR _g_pfnGetMonitorInfo
  0056a	3b f4		 cmp	 esi, esp
  0056c	e8 00 00 00 00	 call	 __RTC_CheckEsp
  00571	89 45 e4	 mov	 DWORD PTR _f$187402[ebp], eax

; 321  : #ifdef UNICODE
; 322  :         if (f && !g_fMultimonPlatformNT && (lpMonitorInfo->cbSize >= sizeof(MONITORINFOEX)))
; 323  :         { 
; 324  :             MultiByteToWideChar(CP_ACP, 0,
; 325  :                 (LPSTR)((MONITORINFOEX*)lpMonitorInfo)->szDevice, -1,
; 326  :                 ((MONITORINFOEX*)lpMonitorInfo)->szDevice, (sizeof(((MONITORINFOEX*)lpMonitorInfo)->szDevice)/sizeof(TCHAR)));
; 327  :         }
; 328  : #endif
; 329  :         return f;

  00574	8b 45 e4	 mov	 eax, DWORD PTR _f$187402[ebp]
  00577	e9 db 00 00 00	 jmp	 $L187399
$L187401:

; 330  :     }
; 331  : 
; 332  :     if ((hMonitor == xPRIMARY_MONITOR) &&
; 333  :         lpMonitorInfo &&
; 334  :         (lpMonitorInfo->cbSize >= sizeof(MONITORINFO)) &&
; 335  :         SystemParametersInfoA(SPI_GETWORKAREA, 0, &rcWork, 0))

  0057c	81 7d 08 42 00
	34 12		 cmp	 DWORD PTR _hMonitor$[ebp], 305397826 ; 12340042H
  00583	0f 85 cc 00 00
	00		 jne	 $L187405
  00589	83 7d 0c 00	 cmp	 DWORD PTR _lpMonitorInfo$[ebp], 0
  0058d	0f 84 c2 00 00
	00		 je	 $L187405
  00593	8b 55 0c	 mov	 edx, DWORD PTR _lpMonitorInfo$[ebp]
  00596	83 3a 28	 cmp	 DWORD PTR [edx], 40	; 00000028H
  00599	0f 82 b6 00 00
	00		 jb	 $L187405
  0059f	8b f4		 mov	 esi, esp
  005a1	6a 00		 push	 0
  005a3	8d 45 ec	 lea	 eax, DWORD PTR _rcWork$[ebp]
  005a6	50		 push	 eax
  005a7	6a 00		 push	 0
  005a9	6a 30		 push	 48			; 00000030H
  005ab	ff 15 00 00 00
	00		 call	 DWORD PTR __imp__SystemParametersInfoA@16
  005b1	3b f4		 cmp	 esi, esp
  005b3	e8 00 00 00 00	 call	 __RTC_CheckEsp
  005b8	85 c0		 test	 eax, eax
  005ba	0f 84 95 00 00
	00		 je	 $L187405

; 336  :     {
; 337  :         lpMonitorInfo->rcMonitor.left = 0;

  005c0	8b 4d 0c	 mov	 ecx, DWORD PTR _lpMonitorInfo$[ebp]
  005c3	c7 41 04 00 00
	00 00		 mov	 DWORD PTR [ecx+4], 0

; 338  :         lpMonitorInfo->rcMonitor.top  = 0;

  005ca	8b 55 0c	 mov	 edx, DWORD PTR _lpMonitorInfo$[ebp]
  005cd	c7 42 08 00 00
	00 00		 mov	 DWORD PTR [edx+8], 0

; 339  :         lpMonitorInfo->rcMonitor.right  = GetSystemMetrics(SM_CXSCREEN);

  005d4	8b f4		 mov	 esi, esp
  005d6	6a 00		 push	 0
  005d8	ff 15 00 00 00
	00		 call	 DWORD PTR __imp__GetSystemMetrics@4
  005de	3b f4		 cmp	 esi, esp
  005e0	e8 00 00 00 00	 call	 __RTC_CheckEsp
  005e5	8b 4d 0c	 mov	 ecx, DWORD PTR _lpMonitorInfo$[ebp]
  005e8	89 41 0c	 mov	 DWORD PTR [ecx+12], eax

; 340  :         lpMonitorInfo->rcMonitor.bottom = GetSystemMetrics(SM_CYSCREEN);

  005eb	8b f4		 mov	 esi, esp
  005ed	6a 01		 push	 1
  005ef	ff 15 00 00 00
	00		 call	 DWORD PTR __imp__GetSystemMetrics@4
  005f5	3b f4		 cmp	 esi, esp
  005f7	e8 00 00 00 00	 call	 __RTC_CheckEsp
  005fc	8b 55 0c	 mov	 edx, DWORD PTR _lpMonitorInfo$[ebp]
  005ff	89 42 10	 mov	 DWORD PTR [edx+16], eax

; 341  :         lpMonitorInfo->rcWork = rcWork;

  00602	8b 45 0c	 mov	 eax, DWORD PTR _lpMonitorInfo$[ebp]
  00605	83 c0 14	 add	 eax, 20			; 00000014H
  00608	8b 4d ec	 mov	 ecx, DWORD PTR _rcWork$[ebp]
  0060b	89 08		 mov	 DWORD PTR [eax], ecx
  0060d	8b 55 f0	 mov	 edx, DWORD PTR _rcWork$[ebp+4]
  00610	89 50 04	 mov	 DWORD PTR [eax+4], edx
  00613	8b 4d f4	 mov	 ecx, DWORD PTR _rcWork$[ebp+8]
  00616	89 48 08	 mov	 DWORD PTR [eax+8], ecx
  00619	8b 55 f8	 mov	 edx, DWORD PTR _rcWork$[ebp+12]
  0061c	89 50 0c	 mov	 DWORD PTR [eax+12], edx

; 342  :         lpMonitorInfo->dwFlags = MONITORINFOF_PRIMARY;

  0061f	8b 45 0c	 mov	 eax, DWORD PTR _lpMonitorInfo$[ebp]
  00622	c7 40 24 01 00
	00 00		 mov	 DWORD PTR [eax+36], 1

; 343  : 
; 344  :         if (lpMonitorInfo->cbSize >= sizeof(MONITORINFOEX))

  00629	8b 4d 0c	 mov	 ecx, DWORD PTR _lpMonitorInfo$[ebp]
  0062c	83 39 48	 cmp	 DWORD PTR [ecx], 72	; 00000048H
  0062f	72 1d		 jb	 SHORT $L187407

; 345  :         {
; 346  : #ifdef UNICODE
; 347  :             MultiByteToWideChar(CP_ACP, 0, "DISPLAY", -1, ((MONITORINFOEX*)lpMonitorInfo)->szDevice, (sizeof(((MONITORINFOEX*)lpMonitorInfo)->szDevice)/sizeof(TCHAR)));
; 348  : #else // UNICODE
; 349  :             lstrcpyn(((MONITORINFOEX*)lpMonitorInfo)->szDevice, TEXT("DISPLAY"), (sizeof(((MONITORINFOEX*)lpMonitorInfo)->szDevice)/sizeof(TCHAR)));

  00631	8b f4		 mov	 esi, esp
  00633	6a 20		 push	 32			; 00000020H
  00635	68 00 00 00 00	 push	 OFFSET FLAT:$SG187411
  0063a	8b 55 0c	 mov	 edx, DWORD PTR _lpMonitorInfo$[ebp]
  0063d	83 c2 28	 add	 edx, 40			; 00000028H
  00640	52		 push	 edx
  00641	ff 15 00 00 00
	00		 call	 DWORD PTR __imp__lstrcpynA@12
  00647	3b f4		 cmp	 esi, esp
  00649	e8 00 00 00 00	 call	 __RTC_CheckEsp
$L187407:

; 350  : #endif // UNICODE
; 351  :         }
; 352  : 
; 353  :         return TRUE;

  0064e	b8 01 00 00 00	 mov	 eax, 1
  00653	eb 02		 jmp	 SHORT $L187399
$L187405:

; 354  :     }
; 355  : 
; 356  :     return FALSE;

  00655	33 c0		 xor	 eax, eax
$L187399:

; 357  : }

  00657	52		 push	 edx
  00658	8b cd		 mov	 ecx, ebp
  0065a	50		 push	 eax
  0065b	8d 15 00 00 00
	00		 lea	 edx, DWORD PTR $L188756
  00661	e8 00 00 00 00	 call	 @_RTC_CheckStackVars@8
  00666	58		 pop	 eax
  00667	5a		 pop	 edx
  00668	5e		 pop	 esi
  00669	83 c4 1c	 add	 esp, 28			; 0000001cH
  0066c	3b ec		 cmp	 ebp, esp
  0066e	e8 00 00 00 00	 call	 __RTC_CheckEsp
  00673	8b e5		 mov	 esp, ebp
  00675	5d		 pop	 ebp
  00676	c2 08 00	 ret	 8
$L188756:
  00679	01 00 00 00	 DD	 1
  0067d	00 00 00 00	 DD	 $L188755
$L188755:
  00681	ec ff ff ff	 DD	 -20			; ffffffecH
  00685	10 00 00 00	 DD	 16			; 00000010H
  00689	00 00 00 00	 DD	 $L188754
$L188754:
  0068d	72		 DB	 114			; 00000072H
  0068e	63		 DB	 99			; 00000063H
  0068f	57		 DB	 87			; 00000057H
  00690	6f		 DB	 111			; 0000006fH
  00691	72		 DB	 114			; 00000072H
  00692	6b		 DB	 107			; 0000006bH
  00693	00		 DB	 0
_xGetMonitorInfo@8 ENDP
_TEXT	ENDS
PUBLIC	_xEnumDisplayMonitors@16
EXTRN	__imp__GetClipBox@8:NEAR
EXTRN	__imp__IntersectRect@12:NEAR
EXTRN	__imp__OffsetRect@12:NEAR
EXTRN	__imp__GetDCOrgEx@8:NEAR
; Function compile flags: /Odt /RTCsu
_TEXT	SEGMENT
tv80 = -68						; size = 4
_ptOrg$187423 = -60					; size = 8
_rcClip$187422 = -44					; size = 16
_rcLimit$ = -20						; size = 16
_hdcOptionalForPainting$ = 8				; size = 4
_lprcEnumMonitorsThatIntersect$ = 12			; size = 4
_lpfnEnumProc$ = 16					; size = 4
_dwData$ = 20						; size = 4
_xEnumDisplayMonitors@16 PROC NEAR

; 365  : {

  006a0	55		 push	 ebp
  006a1	8b ec		 mov	 ebp, esp
  006a3	83 ec 44	 sub	 esp, 68			; 00000044H
  006a6	56		 push	 esi
  006a7	57		 push	 edi
  006a8	8d 7d bc	 lea	 edi, DWORD PTR [ebp-68]
  006ab	b9 11 00 00 00	 mov	 ecx, 17			; 00000011H
  006b0	b8 cc cc cc cc	 mov	 eax, -858993460		; ccccccccH
  006b5	f3 ab		 rep stosd

; 366  :     RECT rcLimit;
; 367  : 
; 368  :     if (InitMultipleMonitorStubs()) {

  006b7	e8 00 00 00 00	 call	 _InitMultipleMonitorStubs
  006bc	85 c0		 test	 eax, eax
  006be	74 24		 je	 SHORT $L187419

; 369  :         return g_pfnEnumDisplayMonitors(
; 370  :                 hdcOptionalForPainting,
; 371  :                 lprcEnumMonitorsThatIntersect,
; 372  :                 lpfnEnumProc,
; 373  :                 dwData);

  006c0	8b f4		 mov	 esi, esp
  006c2	8b 45 14	 mov	 eax, DWORD PTR _dwData$[ebp]
  006c5	50		 push	 eax
  006c6	8b 4d 10	 mov	 ecx, DWORD PTR _lpfnEnumProc$[ebp]
  006c9	51		 push	 ecx
  006ca	8b 55 0c	 mov	 edx, DWORD PTR _lprcEnumMonitorsThatIntersect$[ebp]
  006cd	52		 push	 edx
  006ce	8b 45 08	 mov	 eax, DWORD PTR _hdcOptionalForPainting$[ebp]
  006d1	50		 push	 eax
  006d2	ff 15 00 00 00
	00		 call	 DWORD PTR _g_pfnEnumDisplayMonitors
  006d8	3b f4		 cmp	 esi, esp
  006da	e8 00 00 00 00	 call	 __RTC_CheckEsp
  006df	e9 58 01 00 00	 jmp	 $L187417
$L187419:

; 374  :     }
; 375  : 
; 376  :     if (!lpfnEnumProc)

  006e4	83 7d 10 00	 cmp	 DWORD PTR _lpfnEnumProc$[ebp], 0
  006e8	75 07		 jne	 SHORT $L187420

; 377  :         return FALSE;

  006ea	33 c0		 xor	 eax, eax
  006ec	e9 4b 01 00 00	 jmp	 $L187417
$L187420:

; 378  : 
; 379  :     rcLimit.left   = 0;

  006f1	c7 45 ec 00 00
	00 00		 mov	 DWORD PTR _rcLimit$[ebp], 0

; 380  :     rcLimit.top    = 0;

  006f8	c7 45 f0 00 00
	00 00		 mov	 DWORD PTR _rcLimit$[ebp+4], 0

; 381  :     rcLimit.right  = GetSystemMetrics(SM_CXSCREEN);

  006ff	8b f4		 mov	 esi, esp
  00701	6a 00		 push	 0
  00703	ff 15 00 00 00
	00		 call	 DWORD PTR __imp__GetSystemMetrics@4
  00709	3b f4		 cmp	 esi, esp
  0070b	e8 00 00 00 00	 call	 __RTC_CheckEsp
  00710	89 45 f4	 mov	 DWORD PTR _rcLimit$[ebp+8], eax

; 382  :     rcLimit.bottom = GetSystemMetrics(SM_CYSCREEN);

  00713	8b f4		 mov	 esi, esp
  00715	6a 01		 push	 1
  00717	ff 15 00 00 00
	00		 call	 DWORD PTR __imp__GetSystemMetrics@4
  0071d	3b f4		 cmp	 esi, esp
  0071f	e8 00 00 00 00	 call	 __RTC_CheckEsp
  00724	89 45 f8	 mov	 DWORD PTR _rcLimit$[ebp+12], eax

; 383  : 
; 384  :     if (hdcOptionalForPainting)

  00727	83 7d 08 00	 cmp	 DWORD PTR _hdcOptionalForPainting$[ebp], 0
  0072b	0f 84 c2 00 00
	00		 je	 $L187421

; 385  :     {
; 386  :         RECT    rcClip;
; 387  :         POINT   ptOrg;
; 388  : 
; 389  :         switch (GetClipBox(hdcOptionalForPainting, &rcClip))

  00731	8b f4		 mov	 esi, esp
  00733	8d 4d d4	 lea	 ecx, DWORD PTR _rcClip$187422[ebp]
  00736	51		 push	 ecx
  00737	8b 55 08	 mov	 edx, DWORD PTR _hdcOptionalForPainting$[ebp]
  0073a	52		 push	 edx
  0073b	ff 15 00 00 00
	00		 call	 DWORD PTR __imp__GetClipBox@8
  00741	3b f4		 cmp	 esi, esp
  00743	e8 00 00 00 00	 call	 __RTC_CheckEsp
  00748	89 45 bc	 mov	 DWORD PTR tv80[ebp], eax
  0074b	83 7d bc 00	 cmp	 DWORD PTR tv80[ebp], 0
  0074f	0f 84 98 00 00
	00		 je	 $L187433
  00755	83 7d bc 01	 cmp	 DWORD PTR tv80[ebp], 1
  00759	0f 84 87 00 00
	00		 je	 $L187432

; 390  :         {
; 391  :         default:
; 392  :             if (!GetDCOrgEx(hdcOptionalForPainting, &ptOrg))

  0075f	8b f4		 mov	 esi, esp
  00761	8d 45 c4	 lea	 eax, DWORD PTR _ptOrg$187423[ebp]
  00764	50		 push	 eax
  00765	8b 4d 08	 mov	 ecx, DWORD PTR _hdcOptionalForPainting$[ebp]
  00768	51		 push	 ecx
  00769	ff 15 00 00 00
	00		 call	 DWORD PTR __imp__GetDCOrgEx@8
  0076f	3b f4		 cmp	 esi, esp
  00771	e8 00 00 00 00	 call	 __RTC_CheckEsp
  00776	85 c0		 test	 eax, eax
  00778	75 07		 jne	 SHORT $L187429

; 393  :                 return FALSE;

  0077a	33 c0		 xor	 eax, eax
  0077c	e9 bb 00 00 00	 jmp	 $L187417
$L187429:

; 394  : 
; 395  :             OffsetRect(&rcLimit, -ptOrg.x, -ptOrg.y);

  00781	8b 55 c8	 mov	 edx, DWORD PTR _ptOrg$187423[ebp+4]
  00784	f7 da		 neg	 edx
  00786	8b f4		 mov	 esi, esp
  00788	52		 push	 edx
  00789	8b 45 c4	 mov	 eax, DWORD PTR _ptOrg$187423[ebp]
  0078c	f7 d8		 neg	 eax
  0078e	50		 push	 eax
  0078f	8d 4d ec	 lea	 ecx, DWORD PTR _rcLimit$[ebp]
  00792	51		 push	 ecx
  00793	ff 15 00 00 00
	00		 call	 DWORD PTR __imp__OffsetRect@12
  00799	3b f4		 cmp	 esi, esp
  0079b	e8 00 00 00 00	 call	 __RTC_CheckEsp

; 396  :             if (IntersectRect(&rcLimit, &rcLimit, &rcClip) &&
; 397  :                 (!lprcEnumMonitorsThatIntersect ||
; 398  :                      IntersectRect(&rcLimit, &rcLimit, lprcEnumMonitorsThatIntersect))) {

  007a0	8b f4		 mov	 esi, esp
  007a2	8d 55 d4	 lea	 edx, DWORD PTR _rcClip$187422[ebp]
  007a5	52		 push	 edx
  007a6	8d 45 ec	 lea	 eax, DWORD PTR _rcLimit$[ebp]
  007a9	50		 push	 eax
  007aa	8d 4d ec	 lea	 ecx, DWORD PTR _rcLimit$[ebp]
  007ad	51		 push	 ecx
  007ae	ff 15 00 00 00
	00		 call	 DWORD PTR __imp__IntersectRect@12
  007b4	3b f4		 cmp	 esi, esp
  007b6	e8 00 00 00 00	 call	 __RTC_CheckEsp
  007bb	85 c0		 test	 eax, eax
  007bd	74 27		 je	 SHORT $L187432
  007bf	83 7d 0c 00	 cmp	 DWORD PTR _lprcEnumMonitorsThatIntersect$[ebp], 0
  007c3	74 1f		 je	 SHORT $L187431
  007c5	8b f4		 mov	 esi, esp
  007c7	8b 55 0c	 mov	 edx, DWORD PTR _lprcEnumMonitorsThatIntersect$[ebp]
  007ca	52		 push	 edx
  007cb	8d 45 ec	 lea	 eax, DWORD PTR _rcLimit$[ebp]
  007ce	50		 push	 eax
  007cf	8d 4d ec	 lea	 ecx, DWORD PTR _rcLimit$[ebp]
  007d2	51		 push	 ecx
  007d3	ff 15 00 00 00
	00		 call	 DWORD PTR __imp__IntersectRect@12
  007d9	3b f4		 cmp	 esi, esp
  007db	e8 00 00 00 00	 call	 __RTC_CheckEsp
  007e0	85 c0		 test	 eax, eax
  007e2	74 02		 je	 SHORT $L187432
$L187431:

; 399  : 
; 400  :                 break;

  007e4	eb 0b		 jmp	 SHORT $L187425
$L187432:

; 401  :             }
; 402  :             //fall thru
; 403  :         case NULLREGION:
; 404  :              return TRUE;

  007e6	b8 01 00 00 00	 mov	 eax, 1
  007eb	eb 4f		 jmp	 SHORT $L187417
$L187433:

; 405  :         case ERROR:
; 406  :              return FALSE;

  007ed	33 c0		 xor	 eax, eax
  007ef	eb 4b		 jmp	 SHORT $L187417
$L187425:

; 407  :         }
; 408  :     } else {

  007f1	eb 2c		 jmp	 SHORT $L187434
$L187421:

; 409  :         if (    lprcEnumMonitorsThatIntersect &&
; 410  :                 !IntersectRect(&rcLimit, &rcLimit, lprcEnumMonitorsThatIntersect)) {

  007f3	83 7d 0c 00	 cmp	 DWORD PTR _lprcEnumMonitorsThatIntersect$[ebp], 0
  007f7	74 26		 je	 SHORT $L187434
  007f9	8b f4		 mov	 esi, esp
  007fb	8b 55 0c	 mov	 edx, DWORD PTR _lprcEnumMonitorsThatIntersect$[ebp]
  007fe	52		 push	 edx
  007ff	8d 45 ec	 lea	 eax, DWORD PTR _rcLimit$[ebp]
  00802	50		 push	 eax
  00803	8d 4d ec	 lea	 ecx, DWORD PTR _rcLimit$[ebp]
  00806	51		 push	 ecx
  00807	ff 15 00 00 00
	00		 call	 DWORD PTR __imp__IntersectRect@12
  0080d	3b f4		 cmp	 esi, esp
  0080f	e8 00 00 00 00	 call	 __RTC_CheckEsp
  00814	85 c0		 test	 eax, eax
  00816	75 07		 jne	 SHORT $L187434

; 411  : 
; 412  :             return TRUE;

  00818	b8 01 00 00 00	 mov	 eax, 1
  0081d	eb 1d		 jmp	 SHORT $L187417
$L187434:

; 413  :         }
; 414  :     }
; 415  : 
; 416  :     return lpfnEnumProc(
; 417  :             xPRIMARY_MONITOR,
; 418  :             hdcOptionalForPainting,
; 419  :             &rcLimit,
; 420  :             dwData);

  0081f	8b f4		 mov	 esi, esp
  00821	8b 55 14	 mov	 edx, DWORD PTR _dwData$[ebp]
  00824	52		 push	 edx
  00825	8d 45 ec	 lea	 eax, DWORD PTR _rcLimit$[ebp]
  00828	50		 push	 eax
  00829	8b 4d 08	 mov	 ecx, DWORD PTR _hdcOptionalForPainting$[ebp]
  0082c	51		 push	 ecx
  0082d	68 42 00 34 12	 push	 305397826		; 12340042H
  00832	ff 55 10	 call	 DWORD PTR _lpfnEnumProc$[ebp]
  00835	3b f4		 cmp	 esi, esp
  00837	e8 00 00 00 00	 call	 __RTC_CheckEsp
$L187417:

; 421  : }

  0083c	52		 push	 edx
  0083d	8b cd		 mov	 ecx, ebp
  0083f	50		 push	 eax
  00840	8d 15 00 00 00
	00		 lea	 edx, DWORD PTR $L188762
  00846	e8 00 00 00 00	 call	 @_RTC_CheckStackVars@8
  0084b	58		 pop	 eax
  0084c	5a		 pop	 edx
  0084d	5f		 pop	 edi
  0084e	5e		 pop	 esi
  0084f	83 c4 44	 add	 esp, 68			; 00000044H
  00852	3b ec		 cmp	 ebp, esp
  00854	e8 00 00 00 00	 call	 __RTC_CheckEsp
  00859	8b e5		 mov	 esp, ebp
  0085b	5d		 pop	 ebp
  0085c	c2 10 00	 ret	 16			; 00000010H
$L188762:
  0085f	03 00 00 00	 DD	 3
  00863	00 00 00 00	 DD	 $L188761
$L188761:
  00867	ec ff ff ff	 DD	 -20			; ffffffecH
  0086b	10 00 00 00	 DD	 16			; 00000010H
  0086f	00 00 00 00	 DD	 $L188758
  00873	d4 ff ff ff	 DD	 -44			; ffffffd4H
  00877	10 00 00 00	 DD	 16			; 00000010H
  0087b	00 00 00 00	 DD	 $L188759
  0087f	c4 ff ff ff	 DD	 -60			; ffffffc4H
  00883	08 00 00 00	 DD	 8
  00887	00 00 00 00	 DD	 $L188760
$L188760:
  0088b	70		 DB	 112			; 00000070H
  0088c	74		 DB	 116			; 00000074H
  0088d	4f		 DB	 79			; 0000004fH
  0088e	72		 DB	 114			; 00000072H
  0088f	67		 DB	 103			; 00000067H
  00890	00		 DB	 0
$L188759:
  00891	72		 DB	 114			; 00000072H
  00892	63		 DB	 99			; 00000063H
  00893	43		 DB	 67			; 00000043H
  00894	6c		 DB	 108			; 0000006cH
  00895	69		 DB	 105			; 00000069H
  00896	70		 DB	 112			; 00000070H
  00897	00		 DB	 0
$L188758:
  00898	72		 DB	 114			; 00000072H
  00899	63		 DB	 99			; 00000063H
  0089a	4c		 DB	 76			; 0000004cH
  0089b	69		 DB	 105			; 00000069H
  0089c	6d		 DB	 109			; 0000006dH
  0089d	69		 DB	 105			; 00000069H
  0089e	74		 DB	 116			; 00000074H
  0089f	00		 DB	 0
_xEnumDisplayMonitors@16 ENDP
_TEXT	ENDS
PUBLIC	_xEnumDisplayDevices@16
; Function compile flags: /Odt /RTCsu
_TEXT	SEGMENT
_Unused$ = 8						; size = 4
_iDevNum$ = 12						; size = 4
_lpDisplayDevice$ = 16					; size = 4
_dwFlags$ = 20						; size = 4
_xEnumDisplayDevices@16 PROC NEAR

; 429  : {

  008a0	55		 push	 ebp
  008a1	8b ec		 mov	 ebp, esp
  008a3	56		 push	 esi

; 430  :     if (InitMultipleMonitorStubs())

  008a4	e8 00 00 00 00	 call	 _InitMultipleMonitorStubs
  008a9	85 c0		 test	 eax, eax
  008ab	74 21		 je	 SHORT $L187443

; 431  :         return g_pfnEnumDisplayDevices(Unused, iDevNum, lpDisplayDevice, dwFlags);

  008ad	8b f4		 mov	 esi, esp
  008af	8b 45 14	 mov	 eax, DWORD PTR _dwFlags$[ebp]
  008b2	50		 push	 eax
  008b3	8b 4d 10	 mov	 ecx, DWORD PTR _lpDisplayDevice$[ebp]
  008b6	51		 push	 ecx
  008b7	8b 55 0c	 mov	 edx, DWORD PTR _iDevNum$[ebp]
  008ba	52		 push	 edx
  008bb	8b 45 08	 mov	 eax, DWORD PTR _Unused$[ebp]
  008be	50		 push	 eax
  008bf	ff 15 00 00 00
	00		 call	 DWORD PTR _g_pfnEnumDisplayDevices
  008c5	3b f4		 cmp	 esi, esp
  008c7	e8 00 00 00 00	 call	 __RTC_CheckEsp
  008cc	eb 78		 jmp	 SHORT $L187442
$L187443:

; 432  : 
; 433  :     if (Unused != NULL)

  008ce	83 7d 08 00	 cmp	 DWORD PTR _Unused$[ebp], 0
  008d2	74 04		 je	 SHORT $L187444

; 434  :         return FALSE;

  008d4	33 c0		 xor	 eax, eax
  008d6	eb 6e		 jmp	 SHORT $L187442
$L187444:

; 435  : 
; 436  :     if (iDevNum != 0)

  008d8	83 7d 0c 00	 cmp	 DWORD PTR _iDevNum$[ebp], 0
  008dc	74 04		 je	 SHORT $L187445

; 437  :         return FALSE;

  008de	33 c0		 xor	 eax, eax
  008e0	eb 64		 jmp	 SHORT $L187442
$L187445:

; 438  : 
; 439  :     if (lpDisplayDevice == NULL || lpDisplayDevice->cb < sizeof(DISPLAY_DEVICE))

  008e2	83 7d 10 00	 cmp	 DWORD PTR _lpDisplayDevice$[ebp], 0
  008e6	74 0b		 je	 SHORT $L187448
  008e8	8b 4d 10	 mov	 ecx, DWORD PTR _lpDisplayDevice$[ebp]
  008eb	81 39 a8 01 00
	00		 cmp	 DWORD PTR [ecx], 424	; 000001a8H
  008f1	73 04		 jae	 SHORT $L187447
$L187448:

; 440  :         return FALSE;

  008f3	33 c0		 xor	 eax, eax
  008f5	eb 4f		 jmp	 SHORT $L187442
$L187447:

; 441  : 
; 442  : #ifdef UNICODE
; 443  :     MultiByteToWideChar(CP_ACP, 0, "DISPLAY", -1, lpDisplayDevice->DeviceName, (sizeof(lpDisplayDevice->DeviceName)/sizeof(TCHAR)));
; 444  :     MultiByteToWideChar(CP_ACP, 0, "DISPLAY", -1, lpDisplayDevice->DeviceString, (sizeof(lpDisplayDevice->DeviceString)/sizeof(TCHAR)));
; 445  : #else // UNICODE
; 446  :     lstrcpyn((LPTSTR)lpDisplayDevice->DeviceName,   TEXT("DISPLAY"), (sizeof(lpDisplayDevice->DeviceName)/sizeof(TCHAR)));

  008f7	8b f4		 mov	 esi, esp
  008f9	6a 20		 push	 32			; 00000020H
  008fb	68 00 00 00 00	 push	 OFFSET FLAT:$SG187451
  00900	8b 55 10	 mov	 edx, DWORD PTR _lpDisplayDevice$[ebp]
  00903	83 c2 04	 add	 edx, 4
  00906	52		 push	 edx
  00907	ff 15 00 00 00
	00		 call	 DWORD PTR __imp__lstrcpynA@12
  0090d	3b f4		 cmp	 esi, esp
  0090f	e8 00 00 00 00	 call	 __RTC_CheckEsp

; 447  :     lstrcpyn((LPTSTR)lpDisplayDevice->DeviceString, TEXT("DISPLAY"), (sizeof(lpDisplayDevice->DeviceString)/sizeof(TCHAR)));

  00914	8b f4		 mov	 esi, esp
  00916	68 80 00 00 00	 push	 128			; 00000080H
  0091b	68 00 00 00 00	 push	 OFFSET FLAT:$SG187454
  00920	8b 45 10	 mov	 eax, DWORD PTR _lpDisplayDevice$[ebp]
  00923	83 c0 24	 add	 eax, 36			; 00000024H
  00926	50		 push	 eax
  00927	ff 15 00 00 00
	00		 call	 DWORD PTR __imp__lstrcpynA@12
  0092d	3b f4		 cmp	 esi, esp
  0092f	e8 00 00 00 00	 call	 __RTC_CheckEsp

; 448  : #endif // UNICODE
; 449  : 
; 450  :     lpDisplayDevice->StateFlags = DISPLAY_DEVICE_ATTACHED_TO_DESKTOP | DISPLAY_DEVICE_PRIMARY_DEVICE;

  00934	8b 4d 10	 mov	 ecx, DWORD PTR _lpDisplayDevice$[ebp]
  00937	c7 81 a4 00 00
	00 05 00 00 00	 mov	 DWORD PTR [ecx+164], 5

; 451  : 
; 452  :     return TRUE;

  00941	b8 01 00 00 00	 mov	 eax, 1
$L187442:

; 453  : }

  00946	5e		 pop	 esi
  00947	3b ec		 cmp	 ebp, esp
  00949	e8 00 00 00 00	 call	 __RTC_CheckEsp
  0094e	5d		 pop	 ebp
  0094f	c2 10 00	 ret	 16			; 00000010H
_xEnumDisplayDevices@16 ENDP
_TEXT	ENDS
PUBLIC	??0CBalloonHelp@@QAE@XZ				; CBalloonHelp::CBalloonHelp
PUBLIC	?Create@CBalloonHelp@@QAEHABV?$CStringT@DV?$StrTraitMFC_DLL@DV?$ChTraitsCRT@D@ATL@@@@@ATL@@0ABVCPoint@@IPAVCWnd@@V23@IPAUHICON__@@@Z ; CBalloonHelp::Create
PUBLIC	?LaunchBalloon@CBalloonHelp@@SAXABV?$CStringT@DV?$StrTraitMFC_DLL@DV?$ChTraitsCRT@D@ATL@@@@@ATL@@0ABVCPoint@@PBDIPAVCWnd@@V23@I@Z ; CBalloonHelp::LaunchBalloon
EXTRN	__except_list:DWORD
EXTRN	___CxxFrameHandler:NEAR
EXTRN	??2CObject@@SGPAXIPBDH@Z:NEAR			; CObject::operator new
EXTRN	??3CObject@@SGXPAXPBDH@Z:NEAR			; CObject::operator delete
EXTRN	__imp_??0?$CStringT@DV?$StrTraitMFC_DLL@DV?$ChTraitsCRT@D@ATL@@@@@ATL@@QAE@ABV01@@Z:NEAR
EXTRN	__imp_??1?$CStringT@DV?$StrTraitMFC_DLL@DV?$ChTraitsCRT@D@ATL@@@@@ATL@@QAE@XZ:NEAR
xdata$x	SEGMENT
$T188779 DD	0ffffffffH
	DD	FLAT:$L188770
	DD	00H
	DD	FLAT:$L188771
$T188776 DD	019930520H
	DD	02H
	DD	FLAT:$T188779
	DD	2 DUP(00H)
	DD	2 DUP(00H)
; Function compile flags: /Odt /RTCsu
; File d:\boxgit\playbox\playbox\dev\prj\playbox\src\gui\util\balloonhelp.cpp
xdata$x	ENDS
_TEXT	SEGMENT
tv138 = -36						; size = 4
tv76 = -32						; size = 4
$T188769 = -28						; size = 4
$T188766 = -24						; size = 4
$T188765 = -20						; size = 4
_pbh$ = -16						; size = 4
__$EHRec$ = -12						; size = 12
_strTitle$ = 8						; size = 4
_strContent$ = 12					; size = 4
_ptAnchor$ = 16						; size = 4
_szIcon$ = 20						; size = 4
_unOptions$ = 24					; size = 4
_pParentWnd$ = 28					; size = 4
_strURL$ = 32						; size = 4
_unTimeout$ = 36					; size = 4
?LaunchBalloon@CBalloonHelp@@SAXABV?$CStringT@DV?$StrTraitMFC_DLL@DV?$ChTraitsCRT@D@ATL@@@@@ATL@@0ABVCPoint@@PBDIPAVCWnd@@V23@I@Z PROC NEAR ; CBalloonHelp::LaunchBalloon

; 152  : {

  00960	55		 push	 ebp
  00961	8b ec		 mov	 ebp, esp
  00963	6a ff		 push	 -1
  00965	68 00 00 00 00	 push	 __ehhandler$?LaunchBalloon@CBalloonHelp@@SAXABV?$CStringT@DV?$StrTraitMFC_DLL@DV?$ChTraitsCRT@D@ATL@@@@@ATL@@0ABVCPoint@@PBDIPAVCWnd@@V23@I@Z
  0096a	64 a1 00 00 00
	00		 mov	 eax, DWORD PTR fs:__except_list
  00970	50		 push	 eax
  00971	64 89 25 00 00
	00 00		 mov	 DWORD PTR fs:__except_list, esp
  00978	83 ec 18	 sub	 esp, 24			; 00000018H
  0097b	56		 push	 esi
  0097c	b8 cc cc cc cc	 mov	 eax, -858993460		; ccccccccH
  00981	89 45 dc	 mov	 DWORD PTR [ebp-36], eax
  00984	89 45 e0	 mov	 DWORD PTR [ebp-32], eax
  00987	89 45 e4	 mov	 DWORD PTR [ebp-28], eax
  0098a	89 45 e8	 mov	 DWORD PTR [ebp-24], eax
  0098d	89 45 ec	 mov	 DWORD PTR [ebp-20], eax
  00990	89 45 f0	 mov	 DWORD PTR [ebp-16], eax
  00993	c7 45 fc 00 00
	00 00		 mov	 DWORD PTR __$EHRec$[ebp+8], 0

; 153  :    CBalloonHelp* pbh = new CBalloonHelp;

  0099a	68 99 00 00 00	 push	 153			; 00000099H
  0099f	68 00 00 00 00	 push	 OFFSET FLAT:_THIS_FILE
  009a4	68 e4 00 00 00	 push	 228			; 000000e4H
  009a9	e8 00 00 00 00	 call	 ??2CObject@@SGPAXIPBDH@Z ; CObject::operator new
  009ae	89 45 e8	 mov	 DWORD PTR $T188766[ebp], eax
  009b1	c6 45 fc 01	 mov	 BYTE PTR __$EHRec$[ebp+8], 1
  009b5	83 7d e8 00	 cmp	 DWORD PTR $T188766[ebp], 0
  009b9	74 0d		 je	 SHORT $L188767
  009bb	8b 4d e8	 mov	 ecx, DWORD PTR $T188766[ebp]
  009be	e8 00 00 00 00	 call	 ??0CBalloonHelp@@QAE@XZ	; CBalloonHelp::CBalloonHelp
  009c3	89 45 e0	 mov	 DWORD PTR tv76[ebp], eax
  009c6	eb 07		 jmp	 SHORT $L188768
$L188767:
  009c8	c7 45 e0 00 00
	00 00		 mov	 DWORD PTR tv76[ebp], 0
$L188768:
  009cf	8b 45 e0	 mov	 eax, DWORD PTR tv76[ebp]
  009d2	89 45 ec	 mov	 DWORD PTR $T188765[ebp], eax
  009d5	c6 45 fc 00	 mov	 BYTE PTR __$EHRec$[ebp+8], 0
  009d9	8b 4d ec	 mov	 ecx, DWORD PTR $T188765[ebp]
  009dc	89 4d f0	 mov	 DWORD PTR _pbh$[ebp], ecx

; 154  :    //if ( NULL != szIcon )
; 155  :    //{
; 156  :    //   CSize sizeIcon(max(::GetSystemMetrics(SM_CXSIZE), ::GetSystemMetrics(SM_CXSMICON)), max(::GetSystemMetrics(SM_CYSIZE), ::GetSystemMetrics(SM_CYSMICON)));
; 157  : 
; 158  : 	  //HBITMAP hIcon = LoadBitmap(AfxGetInstanceHandle(), MAKEINTRESOURCE(IDB_BMPDrag));
; 159  :    //   if (NULL != hIcon)
; 160  : 		 // pbh->SetIcon(hIcon, RGB(255,255,255)); // bitmap, transparent color
; 161  : 	  //DeleteObject( hIcon );
; 162  :    //}
; 163  : 
; 164  :    pbh->Create(strTitle, strContent, ptAnchor, unOptions|unDELETE_THIS_ON_CLOSE, 
; 165  :                pParentWnd, strURL, unTimeout, NULL);

  009df	6a 00		 push	 0
  009e1	8b 55 24	 mov	 edx, DWORD PTR _unTimeout$[ebp]
  009e4	52		 push	 edx
  009e5	51		 push	 ecx
  009e6	8b cc		 mov	 ecx, esp
  009e8	89 65 e4	 mov	 DWORD PTR $T188769[ebp], esp
  009eb	8b f4		 mov	 esi, esp
  009ed	8d 45 20	 lea	 eax, DWORD PTR _strURL$[ebp]
  009f0	50		 push	 eax
  009f1	ff 15 00 00 00
	00		 call	 DWORD PTR __imp_??0?$CStringT@DV?$StrTraitMFC_DLL@DV?$ChTraitsCRT@D@ATL@@@@@ATL@@QAE@ABV01@@Z
  009f7	3b f4		 cmp	 esi, esp
  009f9	e8 00 00 00 00	 call	 __RTC_CheckEsp
  009fe	89 45 dc	 mov	 DWORD PTR tv138[ebp], eax
  00a01	8b 4d 1c	 mov	 ecx, DWORD PTR _pParentWnd$[ebp]
  00a04	51		 push	 ecx
  00a05	8b 55 18	 mov	 edx, DWORD PTR _unOptions$[ebp]
  00a08	81 ca 00 02 00
	00		 or	 edx, 512		; 00000200H
  00a0e	52		 push	 edx
  00a0f	8b 45 10	 mov	 eax, DWORD PTR _ptAnchor$[ebp]
  00a12	50		 push	 eax
  00a13	8b 4d 0c	 mov	 ecx, DWORD PTR _strContent$[ebp]
  00a16	51		 push	 ecx
  00a17	8b 55 08	 mov	 edx, DWORD PTR _strTitle$[ebp]
  00a1a	52		 push	 edx
  00a1b	8b 4d f0	 mov	 ecx, DWORD PTR _pbh$[ebp]
  00a1e	e8 00 00 00 00	 call	 ?Create@CBalloonHelp@@QAEHABV?$CStringT@DV?$StrTraitMFC_DLL@DV?$ChTraitsCRT@D@ATL@@@@@ATL@@0ABVCPoint@@IPAVCWnd@@V23@IPAUHICON__@@@Z ; CBalloonHelp::Create

; 166  : }

  00a23	c7 45 fc ff ff
	ff ff		 mov	 DWORD PTR __$EHRec$[ebp+8], -1
  00a2a	8b f4		 mov	 esi, esp
  00a2c	8d 4d 20	 lea	 ecx, DWORD PTR _strURL$[ebp]
  00a2f	ff 15 00 00 00
	00		 call	 DWORD PTR __imp_??1?$CStringT@DV?$StrTraitMFC_DLL@DV?$ChTraitsCRT@D@ATL@@@@@ATL@@QAE@XZ
  00a35	3b f4		 cmp	 esi, esp
  00a37	e8 00 00 00 00	 call	 __RTC_CheckEsp
  00a3c	8b 4d f4	 mov	 ecx, DWORD PTR __$EHRec$[ebp]
  00a3f	64 89 0d 00 00
	00 00		 mov	 DWORD PTR fs:__except_list, ecx
  00a46	5e		 pop	 esi
  00a47	83 c4 24	 add	 esp, 36			; 00000024H
  00a4a	3b ec		 cmp	 ebp, esp
  00a4c	e8 00 00 00 00	 call	 __RTC_CheckEsp
  00a51	8b e5		 mov	 esp, ebp
  00a53	5d		 pop	 ebp
  00a54	c3		 ret	 0
_TEXT	ENDS
text$x	SEGMENT
$L188770:
  00000	8b f4		 mov	 esi, esp
  00002	8d 4d 20	 lea	 ecx, DWORD PTR _strURL$[ebp]
  00005	ff 15 00 00 00
	00		 call	 DWORD PTR __imp_??1?$CStringT@DV?$StrTraitMFC_DLL@DV?$ChTraitsCRT@D@ATL@@@@@ATL@@QAE@XZ
  0000b	3b f4		 cmp	 esi, esp
  0000d	e9 00 00 00 00	 jmp	 __RTC_CheckEsp
$L188771:
  00012	68 99 00 00 00	 push	 153			; 00000099H
  00017	68 00 00 00 00	 push	 OFFSET FLAT:_THIS_FILE
  0001c	8b 45 e8	 mov	 eax, DWORD PTR $T188766[ebp]
  0001f	50		 push	 eax
  00020	e8 00 00 00 00	 call	 ??3CObject@@SGXPAXPBDH@Z ; CObject::operator delete
  00025	c3		 ret	 0
__ehhandler$?LaunchBalloon@CBalloonHelp@@SAXABV?$CStringT@DV?$StrTraitMFC_DLL@DV?$ChTraitsCRT@D@ATL@@@@@ATL@@0ABVCPoint@@PBDIPAVCWnd@@V23@I@Z:
  00026	b8 00 00 00 00	 mov	 eax, OFFSET FLAT:$T188776
  0002b	e9 00 00 00 00	 jmp	 ___CxxFrameHandler
text$x	ENDS
?LaunchBalloon@CBalloonHelp@@SAXABV?$CStringT@DV?$StrTraitMFC_DLL@DV?$ChTraitsCRT@D@ATL@@@@@ATL@@0ABVCPoint@@PBDIPAVCWnd@@V23@I@Z ENDP ; CBalloonHelp::LaunchBalloon
PUBLIC	??_R1A@?0A@A@CWnd@@8				; CWnd::`RTTI Base Class Descriptor at (0,-1,0,0)'
PUBLIC	??_R0?AVCWnd@@@8				; CWnd `RTTI Type Descriptor'
PUBLIC	??_R1A@?0A@A@CCmdTarget@@8			; CCmdTarget::`RTTI Base Class Descriptor at (0,-1,0,0)'
PUBLIC	??_R0?AVCCmdTarget@@@8				; CCmdTarget `RTTI Type Descriptor'
PUBLIC	??_R1A@?0A@A@CObject@@8				; CObject::`RTTI Base Class Descriptor at (0,-1,0,0)'
PUBLIC	??_R0?AVCObject@@@8				; CObject `RTTI Type Descriptor'
PUBLIC	?InitThunk@?$_ThunkImpl@VCBalloonHelp@@@@IAEXP8CBalloonHelp@@AEXXZPBV2@@Z ; _ThunkImpl<CBalloonHelp>::InitThunk
PUBLIC	?DrawNonClientArea@CBalloonHelp@@MAEXPAVCDC@@@Z	; CBalloonHelp::DrawNonClientArea
PUBLIC	?DrawClientArea@CBalloonHelp@@MAEXPAVCDC@@@Z	; CBalloonHelp::DrawClientArea
PUBLIC	?DrawHeader@CBalloonHelp@@MAE?AVCSize@@PAVCDC@@_N@Z ; CBalloonHelp::DrawHeader
PUBLIC	?DrawContent@CBalloonHelp@@MAE?AVCSize@@PAVCDC@@H_N@Z ; CBalloonHelp::DrawContent
PUBLIC	?PostNcDestroy@CBalloonHelp@@MAEXXZ		; CBalloonHelp::PostNcDestroy
PUBLIC	?GetMessageMap@CBalloonHelp@@MBEPBUAFX_MSGMAP@@XZ ; CBalloonHelp::GetMessageMap
PUBLIC	?KeyboardHookProc@CBalloonHelp@@AAEJHIJ@Z	; CBalloonHelp::KeyboardHookProc
PUBLIC	?MouseHookProc@CBalloonHelp@@AAEJHIJ@Z		; CBalloonHelp::MouseHookProc
PUBLIC	?CallWndRetProc@CBalloonHelp@@AAEJHIJ@Z		; CBalloonHelp::CallWndRetProc
PUBLIC	??_R4CBalloonHelp@@6B@				; CBalloonHelp::`RTTI Complete Object Locator'
PUBLIC	??_R0?AVCBalloonHelp@@@8			; CBalloonHelp `RTTI Type Descriptor'
PUBLIC	??_R3CBalloonHelp@@8				; CBalloonHelp::`RTTI Class Hierarchy Descriptor'
PUBLIC	??_R2CBalloonHelp@@8				; CBalloonHelp::`RTTI Base Class Array'
PUBLIC	??_R1A@?0A@A@CBalloonHelp@@8			; CBalloonHelp::`RTTI Base Class Descriptor at (0,-1,0,0)'
PUBLIC	??_R1FE@?0A@A@?$BHKeybHookThunk@VCBalloonHelp@@@@8 ; BHKeybHookThunk<CBalloonHelp>::`RTTI Base Class Descriptor at (84,-1,0,0)'
PUBLIC	??_R0?AV?$BHKeybHookThunk@VCBalloonHelp@@@@@8	; BHKeybHookThunk<CBalloonHelp> `RTTI Type Descriptor'
PUBLIC	??_R1FE@?0A@1?$_ThunkImpl@VCBalloonHelp@@@@8	; _ThunkImpl<CBalloonHelp>::`RTTI Base Class Descriptor at (84,-1,0,2)'
PUBLIC	??_R0?AV?$_ThunkImpl@VCBalloonHelp@@@@@8	; _ThunkImpl<CBalloonHelp> `RTTI Type Descriptor'
PUBLIC	??_R1FO@?0A@A@?$BHMouseHookThunk@VCBalloonHelp@@@@8 ; BHMouseHookThunk<CBalloonHelp>::`RTTI Base Class Descriptor at (94,-1,0,0)'
PUBLIC	??_R0?AV?$BHMouseHookThunk@VCBalloonHelp@@@@@8	; BHMouseHookThunk<CBalloonHelp> `RTTI Type Descriptor'
PUBLIC	??_R1FO@?0A@1?$_ThunkImpl@VCBalloonHelp@@@@8	; _ThunkImpl<CBalloonHelp>::`RTTI Base Class Descriptor at (94,-1,0,2)'
PUBLIC	??_R1GI@?0A@A@?$BHCallWndRetHookThunk@VCBalloonHelp@@@@8 ; BHCallWndRetHookThunk<CBalloonHelp>::`RTTI Base Class Descriptor at (104,-1,0,0)'
PUBLIC	??_R0?AV?$BHCallWndRetHookThunk@VCBalloonHelp@@@@@8 ; BHCallWndRetHookThunk<CBalloonHelp> `RTTI Type Descriptor'
PUBLIC	??_R1GI@?0A@1?$_ThunkImpl@VCBalloonHelp@@@@8	; _ThunkImpl<CBalloonHelp>::`RTTI Base Class Descriptor at (104,-1,0,2)'
PUBLIC	??_7CBalloonHelp@@6B@				; CBalloonHelp::`vftable'
PUBLIC	??_GCBalloonHelp@@UAEPAXI@Z			; CBalloonHelp::`scalar deleting destructor'
EXTRN	?GetInterfaceMap@CWnd@@MBEPBUAFX_INTERFACEMAP@@XZ:NEAR ; CWnd::GetInterfaceMap
EXTRN	??1CImageList@@UAE@XZ:NEAR			; CImageList::~CImageList
EXTRN	?EnsureStdObj@CWnd@@UAEJXZ:NEAR			; CWnd::EnsureStdObj
EXTRN	?get_accParent@CWnd@@UAEJPAPAUIDispatch@@@Z:NEAR ; CWnd::get_accParent
EXTRN	?OnCmdMsg@CCmdTarget@@UAEHIHPAXPAUAFX_CMDHANDLERINFO@@@Z:NEAR ; CCmdTarget::OnCmdMsg
EXTRN	?get_accChildCount@CWnd@@UAEJPAJ@Z:NEAR		; CWnd::get_accChildCount
EXTRN	?IsInvokeAllowed@CCmdTarget@@UAEHJ@Z:NEAR	; CCmdTarget::IsInvokeAllowed
EXTRN	?get_accChild@CWnd@@UAEJUtagVARIANT@@PAPAUIDispatch@@@Z:NEAR ; CWnd::get_accChild
EXTRN	?get_accName@CWnd@@UAEJUtagVARIANT@@PAPA_W@Z:NEAR ; CWnd::get_accName
EXTRN	?get_accValue@CWnd@@UAEJUtagVARIANT@@PAPA_W@Z:NEAR ; CWnd::get_accValue
EXTRN	?GetDispatchIID@CCmdTarget@@UAEHPAU_GUID@@@Z:NEAR ; CCmdTarget::GetDispatchIID
EXTRN	?GetTypeInfoCount@CCmdTarget@@UAEIXZ:NEAR	; CCmdTarget::GetTypeInfoCount
EXTRN	?GetTypeLibCache@CCmdTarget@@UAEPAVCTypeLibCache@@XZ:NEAR ; CCmdTarget::GetTypeLibCache
EXTRN	?get_accDescription@CWnd@@UAEJUtagVARIANT@@PAPA_W@Z:NEAR ; CWnd::get_accDescription
EXTRN	?GetTypeLib@CCmdTarget@@UAEJKPAPAUITypeLib@@@Z:NEAR ; CCmdTarget::GetTypeLib
EXTRN	?get_accRole@CWnd@@UAEJUtagVARIANT@@PAU2@@Z:NEAR ; CWnd::get_accRole
EXTRN	?get_accState@CWnd@@UAEJUtagVARIANT@@PAU2@@Z:NEAR ; CWnd::get_accState
EXTRN	?get_accHelp@CWnd@@UAEJUtagVARIANT@@PAPA_W@Z:NEAR ; CWnd::get_accHelp
EXTRN	?get_accHelpTopic@CWnd@@UAEJPAPA_WUtagVARIANT@@PAJ@Z:NEAR ; CWnd::get_accHelpTopic
EXTRN	?get_accKeyboardShortcut@CWnd@@UAEJUtagVARIANT@@PAPA_W@Z:NEAR ; CWnd::get_accKeyboardShortcut
EXTRN	?get_accFocus@CWnd@@UAEJPAUtagVARIANT@@@Z:NEAR	; CWnd::get_accFocus
EXTRN	?get_accSelection@CWnd@@UAEJPAUtagVARIANT@@@Z:NEAR ; CWnd::get_accSelection
EXTRN	?get_accDefaultAction@CWnd@@UAEJUtagVARIANT@@PAPA_W@Z:NEAR ; CWnd::get_accDefaultAction
EXTRN	?GetCommandMap@CCmdTarget@@MBEPBUAFX_OLECMDMAP@@XZ:NEAR ; CCmdTarget::GetCommandMap
EXTRN	?accSelect@CWnd@@UAEJJUtagVARIANT@@@Z:NEAR	; CWnd::accSelect
EXTRN	?accLocation@CWnd@@UAEJPAJ000UtagVARIANT@@@Z:NEAR ; CWnd::accLocation
EXTRN	?GetDispatchMap@CCmdTarget@@MBEPBUAFX_DISPMAP@@XZ:NEAR ; CCmdTarget::GetDispatchMap
EXTRN	?accNavigate@CWnd@@UAEJJUtagVARIANT@@PAU2@@Z:NEAR ; CWnd::accNavigate
EXTRN	?accHitTest@CWnd@@UAEJJJPAUtagVARIANT@@@Z:NEAR	; CWnd::accHitTest
EXTRN	?GetConnectionMap@CCmdTarget@@MBEPBUAFX_CONNECTIONMAP@@XZ:NEAR ; CCmdTarget::GetConnectionMap
EXTRN	?accDoDefaultAction@CWnd@@UAEJUtagVARIANT@@@Z:NEAR ; CWnd::accDoDefaultAction
EXTRN	?put_accName@CWnd@@UAEJUtagVARIANT@@PA_W@Z:NEAR	; CWnd::put_accName
EXTRN	?put_accValue@CWnd@@UAEJUtagVARIANT@@PA_W@Z:NEAR ; CWnd::put_accValue
EXTRN	?SetProxy@CWnd@@UAEJPAUIAccessibleProxy@@@Z:NEAR ; CWnd::SetProxy
EXTRN	?CreateAccessibleProxy@CWnd@@UAEJIJPAJ@Z:NEAR	; CWnd::CreateAccessibleProxy
EXTRN	?GetEventSinkMap@CCmdTarget@@MBEPBUAFX_EVENTSINKMAP@@XZ:NEAR ; CCmdTarget::GetEventSinkMap
EXTRN	?OnCreateAggregates@CCmdTarget@@UAEHXZ:NEAR	; CCmdTarget::OnCreateAggregates
EXTRN	?OnCommand@CWnd@@MAEHIJ@Z:NEAR			; CWnd::OnCommand
EXTRN	?GetInterfaceHook@CCmdTarget@@UAEPAUIUnknown@@PBX@Z:NEAR ; CCmdTarget::GetInterfaceHook
EXTRN	?OnNotify@CWnd@@MAEHIJPAJ@Z:NEAR		; CWnd::OnNotify
EXTRN	?GetExtraConnectionPoints@CCmdTarget@@MAEHPAVCPtrArray@@@Z:NEAR ; CCmdTarget::GetExtraConnectionPoints
EXTRN	?GetConnectionHook@CCmdTarget@@MAEPAUIConnectionPoint@@ABU_GUID@@@Z:NEAR ; CCmdTarget::GetConnectionHook
EXTRN	??0CPoint@@QAE@HH@Z:NEAR			; CPoint::CPoint
EXTRN	?GetRuntimeClass@CWnd@@UBEPAUCRuntimeClass@@XZ:NEAR ; CWnd::GetRuntimeClass
EXTRN	??0CWnd@@QAE@XZ:NEAR				; CWnd::CWnd
EXTRN	??0CRect@@QAE@HHHH@Z:NEAR			; CRect::CRect
EXTRN	?PreSubclassWindow@CWnd@@UAEXXZ:NEAR		; CWnd::PreSubclassWindow
EXTRN	?Create@CWnd@@UAEHPBD0KABUtagRECT@@PAV1@IPAUCCreateContext@@@Z:NEAR ; CWnd::Create
EXTRN	?CreateEx@CWnd@@UAEHKPBD0KHHHHPAUHWND__@@PAUHMENU__@@PAX@Z:NEAR ; CWnd::CreateEx
EXTRN	?CreateEx@CWnd@@UAEHKPBD0KABUtagRECT@@PAV1@IPAX@Z:NEAR ; CWnd::CreateEx
EXTRN	?Serialize@CObject@@UAEXAAVCArchive@@@Z:NEAR	; CObject::Serialize
EXTRN	?DestroyWindow@CWnd@@UAEHXZ:NEAR		; CWnd::DestroyWindow
EXTRN	?PreCreateWindow@CWnd@@UAEHAAUtagCREATESTRUCTA@@@Z:NEAR ; CWnd::PreCreateWindow
EXTRN	?CalcWindowRect@CWnd@@UAEXPAUtagRECT@@I@Z:NEAR	; CWnd::CalcWindowRect
EXTRN	??0CRgn@@QAE@XZ:NEAR				; CRgn::CRgn
EXTRN	?GetSuperWndProcAddr@CWnd@@MAEPAP6GJPAUHWND__@@IIJ@ZXZ:NEAR ; CWnd::GetSuperWndProcAddr
EXTRN	?DoDataExchange@CWnd@@MAEXPAVCDataExchange@@@Z:NEAR ; CWnd::DoDataExchange
EXTRN	?BeginModalState@CWnd@@UAEXXZ:NEAR		; CWnd::BeginModalState
EXTRN	?EndModalState@CWnd@@UAEXXZ:NEAR		; CWnd::EndModalState
EXTRN	?PreTranslateMessage@CWnd@@UAEHPAUtagMSG@@@Z:NEAR ; CWnd::PreTranslateMessage
EXTRN	?OnAmbientProperty@CWnd@@UAEHPAVCOleControlSite@@JPAUtagVARIANT@@@Z:NEAR ; CWnd::OnAmbientProperty
EXTRN	?WindowProc@CWnd@@MAEJIIJ@Z:NEAR		; CWnd::WindowProc
EXTRN	?OnWndMsg@CWnd@@MAEHIIJPAJ@Z:NEAR		; CWnd::OnWndMsg
EXTRN	?DefWindowProcA@CWnd@@MAEJIIJ@Z:NEAR		; CWnd::DefWindowProcA
EXTRN	?OnChildNotify@CWnd@@MAEHIIJPAJ@Z:NEAR		; CWnd::OnChildNotify
EXTRN	??1CWnd@@UAE@XZ:NEAR				; CWnd::~CWnd
EXTRN	?CheckAutoCenter@CWnd@@UAEHXZ:NEAR		; CWnd::CheckAutoCenter
EXTRN	?AssertValid@CWnd@@UBEXXZ:NEAR			; CWnd::AssertValid
EXTRN	?Dump@CWnd@@UBEXAAVCDumpContext@@@Z:NEAR	; CWnd::Dump
EXTRN	??1CRgn@@UAE@XZ:NEAR				; CRgn::~CRgn
EXTRN	?IsFrameWnd@CWnd@@UBEHXZ:NEAR			; CWnd::IsFrameWnd
EXTRN	?OnFinalRelease@CWnd@@UAEXXZ:NEAR		; CWnd::OnFinalRelease
EXTRN	__imp__GetSysColor@4:NEAR
EXTRN	?CreateControlContainer@CWnd@@MAEHPAPAVCOleControlContainer@@@Z:NEAR ; CWnd::CreateControlContainer
EXTRN	?CreateControlSite@CWnd@@MAEHPAVCOleControlContainer@@PAPAVCOleControlSite@@IABU_GUID@@@Z:NEAR ; CWnd::CreateControlSite
EXTRN	?SetOccDialogInfo@CWnd@@MAEHPAU_AFX_OCC_DIALOG_INFO@@@Z:NEAR ; CWnd::SetOccDialogInfo
EXTRN	?OnToolHitTest@CWnd@@UBEHVCPoint@@PAUtagTOOLINFOA@@@Z:NEAR ; CWnd::OnToolHitTest
EXTRN	__imp_??0?$CStringT@DV?$StrTraitMFC_DLL@DV?$ChTraitsCRT@D@ATL@@@@@ATL@@QAE@PBD@Z:NEAR
EXTRN	?GetScrollBarCtrl@CWnd@@UBEPAVCScrollBar@@H@Z:NEAR ; CWnd::GetScrollBarCtrl
EXTRN	??_ECBalloonHelp@@UAEPAXI@Z:NEAR		; CBalloonHelp::`vector deleting destructor'
EXTRN	??0CImageList@@QAE@XZ:NEAR			; CImageList::CImageList
EXTRN	?WinHelpA@CWnd@@UAEXKI@Z:NEAR			; CWnd::WinHelpA
EXTRN	?HtmlHelpA@CWnd@@UAEXKI@Z:NEAR			; CWnd::HtmlHelpA
EXTRN	??_7type_info@@6B@:QWORD			; type_info::`vftable'
EXTRN	?WinHelpInternal@CWnd@@UAEXKI@Z:NEAR		; CWnd::WinHelpInternal
EXTRN	?ContinueModal@CWnd@@UAEHXZ:NEAR		; CWnd::ContinueModal
EXTRN	?EndModalLoop@CWnd@@UAEXH@Z:NEAR		; CWnd::EndModalLoop
xdata$x	SEGMENT
$T188796 DD	0ffffffffH
	DD	FLAT:$L188785
	DD	00H
	DD	FLAT:$L188786
	DD	01H
	DD	FLAT:$L188787
	DD	02H
	DD	FLAT:$L188788
	DD	03H
	DD	FLAT:$L188789
$T188791 DD	019930520H
	DD	05H
	DD	FLAT:$T188796
	DD	2 DUP(00H)
	DD	2 DUP(00H)
xdata$x	ENDS
;	COMDAT ??_7CBalloonHelp@@6B@
CONST	SEGMENT
??_7CBalloonHelp@@6B@ DD FLAT:??_R4CBalloonHelp@@6B@	; CBalloonHelp::`vftable'
	DD	FLAT:?GetRuntimeClass@CWnd@@UBEPAUCRuntimeClass@@XZ
	DD	FLAT:??_ECBalloonHelp@@UAEPAXI@Z
	DD	FLAT:?Serialize@CObject@@UAEXAAVCArchive@@@Z
	DD	FLAT:?AssertValid@CWnd@@UBEXXZ
	DD	FLAT:?Dump@CWnd@@UBEXAAVCDumpContext@@@Z
	DD	FLAT:?OnCmdMsg@CCmdTarget@@UAEHIHPAXPAUAFX_CMDHANDLERINFO@@@Z
	DD	FLAT:?OnFinalRelease@CWnd@@UAEXXZ
	DD	FLAT:?IsInvokeAllowed@CCmdTarget@@UAEHJ@Z
	DD	FLAT:?GetDispatchIID@CCmdTarget@@UAEHPAU_GUID@@@Z
	DD	FLAT:?GetTypeInfoCount@CCmdTarget@@UAEIXZ
	DD	FLAT:?GetTypeLibCache@CCmdTarget@@UAEPAVCTypeLibCache@@XZ
	DD	FLAT:?GetTypeLib@CCmdTarget@@UAEJKPAPAUITypeLib@@@Z
	DD	FLAT:?GetMessageMap@CBalloonHelp@@MBEPBUAFX_MSGMAP@@XZ
	DD	FLAT:?GetCommandMap@CCmdTarget@@MBEPBUAFX_OLECMDMAP@@XZ
	DD	FLAT:?GetDispatchMap@CCmdTarget@@MBEPBUAFX_DISPMAP@@XZ
	DD	FLAT:?GetConnectionMap@CCmdTarget@@MBEPBUAFX_CONNECTIONMAP@@XZ
	DD	FLAT:?GetInterfaceMap@CWnd@@MBEPBUAFX_INTERFACEMAP@@XZ
	DD	FLAT:?GetEventSinkMap@CCmdTarget@@MBEPBUAFX_EVENTSINKMAP@@XZ
	DD	FLAT:?OnCreateAggregates@CCmdTarget@@UAEHXZ
	DD	FLAT:?GetInterfaceHook@CCmdTarget@@UAEPAUIUnknown@@PBX@Z
	DD	FLAT:?GetExtraConnectionPoints@CCmdTarget@@MAEHPAVCPtrArray@@@Z
	DD	FLAT:?GetConnectionHook@CCmdTarget@@MAEPAUIConnectionPoint@@ABU_GUID@@@Z
	DD	FLAT:?PreSubclassWindow@CWnd@@UAEXXZ
	DD	FLAT:?Create@CWnd@@UAEHPBD0KABUtagRECT@@PAV1@IPAUCCreateContext@@@Z
	DD	FLAT:?CreateEx@CWnd@@UAEHKPBD0KABUtagRECT@@PAV1@IPAX@Z
	DD	FLAT:?CreateEx@CWnd@@UAEHKPBD0KHHHHPAUHWND__@@PAUHMENU__@@PAX@Z
	DD	FLAT:?DestroyWindow@CWnd@@UAEHXZ
	DD	FLAT:?PreCreateWindow@CWnd@@UAEHAAUtagCREATESTRUCTA@@@Z
	DD	FLAT:?CalcWindowRect@CWnd@@UAEXPAUtagRECT@@I@Z
	DD	FLAT:?OnToolHitTest@CWnd@@UBEHVCPoint@@PAUtagTOOLINFOA@@@Z
	DD	FLAT:?GetScrollBarCtrl@CWnd@@UBEPAVCScrollBar@@H@Z
	DD	FLAT:?WinHelpA@CWnd@@UAEXKI@Z
	DD	FLAT:?HtmlHelpA@CWnd@@UAEXKI@Z
	DD	FLAT:?WinHelpInternal@CWnd@@UAEXKI@Z
	DD	FLAT:?ContinueModal@CWnd@@UAEHXZ
	DD	FLAT:?EndModalLoop@CWnd@@UAEXH@Z
	DD	FLAT:?EnsureStdObj@CWnd@@UAEJXZ
	DD	FLAT:?get_accParent@CWnd@@UAEJPAPAUIDispatch@@@Z
	DD	FLAT:?get_accChildCount@CWnd@@UAEJPAJ@Z
	DD	FLAT:?get_accChild@CWnd@@UAEJUtagVARIANT@@PAPAUIDispatch@@@Z
	DD	FLAT:?get_accName@CWnd@@UAEJUtagVARIANT@@PAPA_W@Z
	DD	FLAT:?get_accValue@CWnd@@UAEJUtagVARIANT@@PAPA_W@Z
	DD	FLAT:?get_accDescription@CWnd@@UAEJUtagVARIANT@@PAPA_W@Z
	DD	FLAT:?get_accRole@CWnd@@UAEJUtagVARIANT@@PAU2@@Z
	DD	FLAT:?get_accState@CWnd@@UAEJUtagVARIANT@@PAU2@@Z
	DD	FLAT:?get_accHelp@CWnd@@UAEJUtagVARIANT@@PAPA_W@Z
	DD	FLAT:?get_accHelpTopic@CWnd@@UAEJPAPA_WUtagVARIANT@@PAJ@Z
	DD	FLAT:?get_accKeyboardShortcut@CWnd@@UAEJUtagVARIANT@@PAPA_W@Z
	DD	FLAT:?get_accFocus@CWnd@@UAEJPAUtagVARIANT@@@Z
	DD	FLAT:?get_accSelection@CWnd@@UAEJPAUtagVARIANT@@@Z
	DD	FLAT:?get_accDefaultAction@CWnd@@UAEJUtagVARIANT@@PAPA_W@Z
	DD	FLAT:?accSelect@CWnd@@UAEJJUtagVARIANT@@@Z
	DD	FLAT:?accLocation@CWnd@@UAEJPAJ000UtagVARIANT@@@Z
	DD	FLAT:?accNavigate@CWnd@@UAEJJUtagVARIANT@@PAU2@@Z
	DD	FLAT:?accHitTest@CWnd@@UAEJJJPAUtagVARIANT@@@Z
	DD	FLAT:?accDoDefaultAction@CWnd@@UAEJUtagVARIANT@@@Z
	DD	FLAT:?put_accName@CWnd@@UAEJUtagVARIANT@@PA_W@Z
	DD	FLAT:?put_accValue@CWnd@@UAEJUtagVARIANT@@PA_W@Z
	DD	FLAT:?SetProxy@CWnd@@UAEJPAUIAccessibleProxy@@@Z
	DD	FLAT:?CreateAccessibleProxy@CWnd@@UAEJIJPAJ@Z
	DD	FLAT:?OnCommand@CWnd@@MAEHIJ@Z
	DD	FLAT:?OnNotify@CWnd@@MAEHIJPAJ@Z
	DD	FLAT:?GetSuperWndProcAddr@CWnd@@MAEPAP6GJPAUHWND__@@IIJ@ZXZ
	DD	FLAT:?DoDataExchange@CWnd@@MAEXPAVCDataExchange@@@Z
	DD	FLAT:?BeginModalState@CWnd@@UAEXXZ
	DD	FLAT:?EndModalState@CWnd@@UAEXXZ
	DD	FLAT:?PreTranslateMessage@CWnd@@UAEHPAUtagMSG@@@Z
	DD	FLAT:?OnAmbientProperty@CWnd@@UAEHPAVCOleControlSite@@JPAUtagVARIANT@@@Z
	DD	FLAT:?WindowProc@CWnd@@MAEJIIJ@Z
	DD	FLAT:?OnWndMsg@CWnd@@MAEHIIJPAJ@Z
	DD	FLAT:?DefWindowProcA@CWnd@@MAEJIIJ@Z
	DD	FLAT:?PostNcDestroy@CBalloonHelp@@MAEXXZ
	DD	FLAT:?OnChildNotify@CWnd@@MAEHIIJPAJ@Z
	DD	FLAT:?CheckAutoCenter@CWnd@@UAEHXZ
	DD	FLAT:?IsFrameWnd@CWnd@@UBEHXZ
	DD	FLAT:?CreateControlContainer@CWnd@@MAEHPAPAVCOleControlContainer@@@Z
	DD	FLAT:?CreateControlSite@CWnd@@MAEHPAVCOleControlContainer@@PAPAVCOleControlSite@@IABU_GUID@@@Z
	DD	FLAT:?SetOccDialogInfo@CWnd@@MAEHPAU_AFX_OCC_DIALOG_INFO@@@Z
	DD	FLAT:?DrawNonClientArea@CBalloonHelp@@MAEXPAVCDC@@@Z
	DD	FLAT:?DrawClientArea@CBalloonHelp@@MAEXPAVCDC@@@Z
	DD	FLAT:?DrawHeader@CBalloonHelp@@MAE?AVCSize@@PAVCDC@@_N@Z
	DD	FLAT:?DrawContent@CBalloonHelp@@MAE?AVCSize@@PAVCDC@@H_N@Z
CONST	ENDS
;	COMDAT ??_R4CBalloonHelp@@6B@
rdata$r	SEGMENT
??_R4CBalloonHelp@@6B@ DD 00H				; CBalloonHelp::`RTTI Complete Object Locator'
	DD	00H
	DD	00H
	DD	FLAT:??_R0?AVCBalloonHelp@@@8
	DD	FLAT:??_R3CBalloonHelp@@8
rdata$r	ENDS
;	COMDAT ??_R0?AVCBalloonHelp@@@8
_DATA	SEGMENT
??_R0?AVCBalloonHelp@@@8 DD FLAT:??_7type_info@@6B@	; CBalloonHelp `RTTI Type Descriptor'
	DD	00H
	DB	'.?AVCBalloonHelp@@', 00H
_DATA	ENDS
;	COMDAT ??_R3CBalloonHelp@@8
rdata$r	SEGMENT
??_R3CBalloonHelp@@8 DD 00H				; CBalloonHelp::`RTTI Class Hierarchy Descriptor'
	DD	05H
	DD	0aH
	DD	FLAT:??_R2CBalloonHelp@@8
rdata$r	ENDS
;	COMDAT ??_R2CBalloonHelp@@8
rdata$r	SEGMENT
??_R2CBalloonHelp@@8 DD FLAT:??_R1A@?0A@A@CBalloonHelp@@8 ; CBalloonHelp::`RTTI Base Class Array'
	DD	FLAT:??_R1A@?0A@A@CWnd@@8
	DD	FLAT:??_R1A@?0A@A@CCmdTarget@@8
	DD	FLAT:??_R1A@?0A@A@CObject@@8
	DD	FLAT:??_R1FE@?0A@A@?$BHKeybHookThunk@VCBalloonHelp@@@@8
	DD	FLAT:??_R1FE@?0A@1?$_ThunkImpl@VCBalloonHelp@@@@8
	DD	FLAT:??_R1FO@?0A@A@?$BHMouseHookThunk@VCBalloonHelp@@@@8
	DD	FLAT:??_R1FO@?0A@1?$_ThunkImpl@VCBalloonHelp@@@@8
	DD	FLAT:??_R1GI@?0A@A@?$BHCallWndRetHookThunk@VCBalloonHelp@@@@8
	DD	FLAT:??_R1GI@?0A@1?$_ThunkImpl@VCBalloonHelp@@@@8
rdata$r	ENDS
;	COMDAT ??_R1A@?0A@A@CBalloonHelp@@8
rdata$r	SEGMENT
??_R1A@?0A@A@CBalloonHelp@@8 DD FLAT:??_R0?AVCBalloonHelp@@@8 ; CBalloonHelp::`RTTI Base Class Descriptor at (0,-1,0,0)'
	DD	09H
	DD	00H
	DD	0ffffffffH
	DD	00H
	DD	00H
rdata$r	ENDS
;	COMDAT ??_R1A@?0A@A@CWnd@@8
rdata$r	SEGMENT
??_R1A@?0A@A@CWnd@@8 DD FLAT:??_R0?AVCWnd@@@8		; CWnd::`RTTI Base Class Descriptor at (0,-1,0,0)'
	DD	02H
	DD	00H
	DD	0ffffffffH
	DD	00H
	DD	00H
rdata$r	ENDS
;	COMDAT ??_R0?AVCWnd@@@8
_DATA	SEGMENT
??_R0?AVCWnd@@@8 DD FLAT:??_7type_info@@6B@		; CWnd `RTTI Type Descriptor'
	DD	00H
	DB	'.?AVCWnd@@', 00H
_DATA	ENDS
;	COMDAT ??_R1A@?0A@A@CCmdTarget@@8
rdata$r	SEGMENT
??_R1A@?0A@A@CCmdTarget@@8 DD FLAT:??_R0?AVCCmdTarget@@@8 ; CCmdTarget::`RTTI Base Class Descriptor at (0,-1,0,0)'
	DD	01H
	DD	00H
	DD	0ffffffffH
	DD	00H
	DD	00H
rdata$r	ENDS
;	COMDAT ??_R0?AVCCmdTarget@@@8
_DATA	SEGMENT
??_R0?AVCCmdTarget@@@8 DD FLAT:??_7type_info@@6B@	; CCmdTarget `RTTI Type Descriptor'
	DD	00H
	DB	'.?AVCCmdTarget@@', 00H
_DATA	ENDS
;	COMDAT ??_R1A@?0A@A@CObject@@8
rdata$r	SEGMENT
??_R1A@?0A@A@CObject@@8 DD FLAT:??_R0?AVCObject@@@8	; CObject::`RTTI Base Class Descriptor at (0,-1,0,0)'
	DD	00H
	DD	00H
	DD	0ffffffffH
	DD	00H
	DD	00H
rdata$r	ENDS
;	COMDAT ??_R0?AVCObject@@@8
_DATA	SEGMENT
??_R0?AVCObject@@@8 DD FLAT:??_7type_info@@6B@		; CObject `RTTI Type Descriptor'
	DD	00H
	DB	'.?AVCObject@@', 00H
_DATA	ENDS
;	COMDAT ??_R1FE@?0A@A@?$BHKeybHookThunk@VCBalloonHelp@@@@8
rdata$r	SEGMENT
??_R1FE@?0A@A@?$BHKeybHookThunk@VCBalloonHelp@@@@8 DD FLAT:??_R0?AV?$BHKeybHookThunk@VCBalloonHelp@@@@@8 ; BHKeybHookThunk<CBalloonHelp>::`RTTI Base Class Descriptor at (84,-1,0,0)'
	DD	01H
	DD	054H
	DD	0ffffffffH
	DD	00H
	DD	00H
rdata$r	ENDS
;	COMDAT ??_R0?AV?$BHKeybHookThunk@VCBalloonHelp@@@@@8
_DATA	SEGMENT
??_R0?AV?$BHKeybHookThunk@VCBalloonHelp@@@@@8 DD FLAT:??_7type_info@@6B@ ; BHKeybHookThunk<CBalloonHelp> `RTTI Type Descriptor'
	DD	00H
	DB	'.?AV?$BHKeybHookThunk@VCBalloonHelp@@@@', 00H
_DATA	ENDS
;	COMDAT ??_R1FE@?0A@1?$_ThunkImpl@VCBalloonHelp@@@@8
rdata$r	SEGMENT
??_R1FE@?0A@1?$_ThunkImpl@VCBalloonHelp@@@@8 DD FLAT:??_R0?AV?$_ThunkImpl@VCBalloonHelp@@@@@8 ; _ThunkImpl<CBalloonHelp>::`RTTI Base Class Descriptor at (84,-1,0,2)'
	DD	00H
	DD	054H
	DD	0ffffffffH
	DD	00H
	DD	02H
rdata$r	ENDS
;	COMDAT ??_R0?AV?$_ThunkImpl@VCBalloonHelp@@@@@8
_DATA	SEGMENT
??_R0?AV?$_ThunkImpl@VCBalloonHelp@@@@@8 DD FLAT:??_7type_info@@6B@ ; _ThunkImpl<CBalloonHelp> `RTTI Type Descriptor'
	DD	00H
	DB	'.?AV?$_ThunkImpl@VCBalloonHelp@@@@', 00H
_DATA	ENDS
;	COMDAT ??_R1FO@?0A@A@?$BHMouseHookThunk@VCBalloonHelp@@@@8
rdata$r	SEGMENT
??_R1FO@?0A@A@?$BHMouseHookThunk@VCBalloonHelp@@@@8 DD FLAT:??_R0?AV?$BHMouseHookThunk@VCBalloonHelp@@@@@8 ; BHMouseHookThunk<CBalloonHelp>::`RTTI Base Class Descriptor at (94,-1,0,0)'
	DD	01H
	DD	05eH
	DD	0ffffffffH
	DD	00H
	DD	00H
rdata$r	ENDS
;	COMDAT ??_R0?AV?$BHMouseHookThunk@VCBalloonHelp@@@@@8
_DATA	SEGMENT
??_R0?AV?$BHMouseHookThunk@VCBalloonHelp@@@@@8 DD FLAT:??_7type_info@@6B@ ; BHMouseHookThunk<CBalloonHelp> `RTTI Type Descriptor'
	DD	00H
	DB	'.?AV?$BHMouseHookThunk@VCBalloonHelp@@@@', 00H
_DATA	ENDS
;	COMDAT ??_R1FO@?0A@1?$_ThunkImpl@VCBalloonHelp@@@@8
rdata$r	SEGMENT
??_R1FO@?0A@1?$_ThunkImpl@VCBalloonHelp@@@@8 DD FLAT:??_R0?AV?$_ThunkImpl@VCBalloonHelp@@@@@8 ; _ThunkImpl<CBalloonHelp>::`RTTI Base Class Descriptor at (94,-1,0,2)'
	DD	00H
	DD	05eH
	DD	0ffffffffH
	DD	00H
	DD	02H
rdata$r	ENDS
;	COMDAT ??_R1GI@?0A@A@?$BHCallWndRetHookThunk@VCBalloonHelp@@@@8
rdata$r	SEGMENT
??_R1GI@?0A@A@?$BHCallWndRetHookThunk@VCBalloonHelp@@@@8 DD FLAT:??_R0?AV?$BHCallWndRetHookThunk@VCBalloonHelp@@@@@8 ; BHCallWndRetHookThunk<CBalloonHelp>::`RTTI Base Class Descriptor at (104,-1,0,0)'
	DD	01H
	DD	068H
	DD	0ffffffffH
	DD	00H
	DD	00H
rdata$r	ENDS
;	COMDAT ??_R0?AV?$BHCallWndRetHookThunk@VCBalloonHelp@@@@@8
_DATA	SEGMENT
??_R0?AV?$BHCallWndRetHookThunk@VCBalloonHelp@@@@@8 DD FLAT:??_7type_info@@6B@ ; BHCallWndRetHookThunk<CBalloonHelp> `RTTI Type Descriptor'
	DD	00H
	DB	'.?AV?$BHCallWndRetHookThunk@VCBalloonHelp@@@@', 00H
_DATA	ENDS
;	COMDAT ??_R1GI@?0A@1?$_ThunkImpl@VCBalloonHelp@@@@8
rdata$r	SEGMENT
??_R1GI@?0A@1?$_ThunkImpl@VCBalloonHelp@@@@8 DD FLAT:??_R0?AV?$_ThunkImpl@VCBalloonHelp@@@@@8 ; _ThunkImpl<CBalloonHelp>::`RTTI Base Class Descriptor at (104,-1,0,2)'
	DD	00H
	DD	068H
	DD	0ffffffffH
	DD	00H
	DD	02H
; Function compile flags: /Odt /RTCsu
rdata$r	ENDS
_TEXT	SEGMENT
$T188784 = -56						; size = 8
$T188783 = -48						; size = 8
$T188782 = -40						; size = 8
_nTol$ = -28						; size = 4
_hUser32$ = -20						; size = 4
_this$ = -16						; size = 4
__$EHRec$ = -12						; size = 12
??0CBalloonHelp@@QAE@XZ PROC NEAR			; CBalloonHelp::CBalloonHelp
; _this$ = ecx

; 193  : {

  00a60	55		 push	 ebp
  00a61	8b ec		 mov	 ebp, esp
  00a63	6a ff		 push	 -1
  00a65	68 00 00 00 00	 push	 __ehhandler$??0CBalloonHelp@@QAE@XZ
  00a6a	64 a1 00 00 00
	00		 mov	 eax, DWORD PTR fs:__except_list
  00a70	50		 push	 eax
  00a71	64 89 25 00 00
	00 00		 mov	 DWORD PTR fs:__except_list, esp
  00a78	83 ec 2c	 sub	 esp, 44			; 0000002cH
  00a7b	56		 push	 esi
  00a7c	57		 push	 edi
  00a7d	51		 push	 ecx
  00a7e	8d 7d c8	 lea	 edi, DWORD PTR [ebp-56]
  00a81	b9 0b 00 00 00	 mov	 ecx, 11			; 0000000bH
  00a86	b8 cc cc cc cc	 mov	 eax, -858993460		; ccccccccH
  00a8b	f3 ab		 rep stosd
  00a8d	59		 pop	 ecx
  00a8e	89 4d f0	 mov	 DWORD PTR _this$[ebp], ecx
  00a91	8b 4d f0	 mov	 ecx, DWORD PTR _this$[ebp]
  00a94	e8 00 00 00 00	 call	 ??0CWnd@@QAE@XZ		; CWnd::CWnd
  00a99	c7 45 fc 00 00
	00 00		 mov	 DWORD PTR __$EHRec$[ebp+8], 0
  00aa0	8b 45 f0	 mov	 eax, DWORD PTR _this$[ebp]
  00aa3	c7 00 00 00 00
	00		 mov	 DWORD PTR [eax], OFFSET FLAT:??_7CBalloonHelp@@6B@
  00aa9	8b 4d f0	 mov	 ecx, DWORD PTR _this$[ebp]
  00aac	c7 41 74 00 00
	00 00		 mov	 DWORD PTR [ecx+116], 0
  00ab3	8b 55 f0	 mov	 edx, DWORD PTR _this$[ebp]
  00ab6	c7 42 78 00 00
	00 00		 mov	 DWORD PTR [edx+120], 0
  00abd	8b 45 f0	 mov	 eax, DWORD PTR _this$[ebp]
  00ac0	c7 40 7c 00 00
	00 00		 mov	 DWORD PTR [eax+124], 0
  00ac7	8b 4d f0	 mov	 ecx, DWORD PTR _this$[ebp]
  00aca	c7 81 80 00 00
	00 00 00 00 00	 mov	 DWORD PTR [ecx+128], 0
  00ad4	8b 55 f0	 mov	 edx, DWORD PTR _this$[ebp]
  00ad7	c7 82 84 00 00
	00 00 00 00 00	 mov	 DWORD PTR [edx+132], 0
  00ae1	8b 45 f0	 mov	 eax, DWORD PTR _this$[ebp]
  00ae4	c7 80 88 00 00
	00 00 00 00 00	 mov	 DWORD PTR [eax+136], 0
  00aee	8b 4d f0	 mov	 ecx, DWORD PTR _this$[ebp]
  00af1	c7 81 8c 00 00
	00 00 00 00 00	 mov	 DWORD PTR [ecx+140], 0
  00afb	8b f4		 mov	 esi, esp
  00afd	68 00 00 00 00	 push	 OFFSET FLAT:$SG187477
  00b02	8b 4d f0	 mov	 ecx, DWORD PTR _this$[ebp]
  00b05	81 c1 90 00 00
	00		 add	 ecx, 144		; 00000090H
  00b0b	ff 15 00 00 00
	00		 call	 DWORD PTR __imp_??0?$CStringT@DV?$StrTraitMFC_DLL@DV?$ChTraitsCRT@D@ATL@@@@@ATL@@QAE@PBD@Z
  00b11	3b f4		 cmp	 esi, esp
  00b13	e8 00 00 00 00	 call	 __RTC_CheckEsp
  00b18	c6 45 fc 01	 mov	 BYTE PTR __$EHRec$[ebp+8], 1
  00b1c	8b f4		 mov	 esi, esp
  00b1e	68 00 00 00 00	 push	 OFFSET FLAT:$SG187478
  00b23	8b 4d f0	 mov	 ecx, DWORD PTR _this$[ebp]
  00b26	81 c1 94 00 00
	00		 add	 ecx, 148		; 00000094H
  00b2c	ff 15 00 00 00
	00		 call	 DWORD PTR __imp_??0?$CStringT@DV?$StrTraitMFC_DLL@DV?$ChTraitsCRT@D@ATL@@@@@ATL@@QAE@PBD@Z
  00b32	3b f4		 cmp	 esi, esp
  00b34	e8 00 00 00 00	 call	 __RTC_CheckEsp
  00b39	c6 45 fc 02	 mov	 BYTE PTR __$EHRec$[ebp+8], 2
  00b3d	8b 55 f0	 mov	 edx, DWORD PTR _this$[ebp]
  00b40	c7 82 98 00 00
	00 00 00 00 00	 mov	 DWORD PTR [edx+152], 0
  00b4a	6a 00		 push	 0
  00b4c	6a 00		 push	 0
  00b4e	8b 4d f0	 mov	 ecx, DWORD PTR _this$[ebp]
  00b51	81 c1 9c 00 00
	00		 add	 ecx, 156		; 0000009cH
  00b57	e8 00 00 00 00	 call	 ??0CPoint@@QAE@HH@Z	; CPoint::CPoint
  00b5c	8b 4d f0	 mov	 ecx, DWORD PTR _this$[ebp]
  00b5f	81 c1 a4 00 00
	00		 add	 ecx, 164		; 000000a4H
  00b65	e8 00 00 00 00	 call	 ??0CImageList@@QAE@XZ	; CImageList::CImageList
  00b6a	c6 45 fc 03	 mov	 BYTE PTR __$EHRec$[ebp+8], 3
  00b6e	8b 45 f0	 mov	 eax, DWORD PTR _this$[ebp]
  00b71	c7 80 ac 00 00
	00 00 00 00 00	 mov	 DWORD PTR [eax+172], 0
  00b7b	8b 4d f0	 mov	 ecx, DWORD PTR _this$[ebp]
  00b7e	c7 81 b0 00 00
	00 00 00 00 00	 mov	 DWORD PTR [ecx+176], 0
  00b88	8b f4		 mov	 esi, esp
  00b8a	6a 18		 push	 24			; 00000018H
  00b8c	ff 15 00 00 00
	00		 call	 DWORD PTR __imp__GetSysColor@4
  00b92	3b f4		 cmp	 esi, esp
  00b94	e8 00 00 00 00	 call	 __RTC_CheckEsp
  00b99	8b 55 f0	 mov	 edx, DWORD PTR _this$[ebp]
  00b9c	89 82 b4 00 00
	00		 mov	 DWORD PTR [edx+180], eax
  00ba2	8b f4		 mov	 esi, esp
  00ba4	6a 17		 push	 23			; 00000017H
  00ba6	ff 15 00 00 00
	00		 call	 DWORD PTR __imp__GetSysColor@4
  00bac	3b f4		 cmp	 esi, esp
  00bae	e8 00 00 00 00	 call	 __RTC_CheckEsp
  00bb3	8b 4d f0	 mov	 ecx, DWORD PTR _this$[ebp]
  00bb6	89 81 b8 00 00
	00		 mov	 DWORD PTR [ecx+184], eax
  00bbc	6a 00		 push	 0
  00bbe	6a 00		 push	 0
  00bc0	6a 00		 push	 0
  00bc2	6a 00		 push	 0
  00bc4	8b 4d f0	 mov	 ecx, DWORD PTR _this$[ebp]
  00bc7	81 c1 bc 00 00
	00		 add	 ecx, 188		; 000000bcH
  00bcd	e8 00 00 00 00	 call	 ??0CRect@@QAE@HHHH@Z	; CRect::CRect
  00bd2	8b 4d f0	 mov	 ecx, DWORD PTR _this$[ebp]
  00bd5	81 c1 cc 00 00
	00		 add	 ecx, 204		; 000000ccH
  00bdb	e8 00 00 00 00	 call	 ??0CRgn@@QAE@XZ		; CRgn::CRgn
  00be0	c6 45 fc 04	 mov	 BYTE PTR __$EHRec$[ebp+8], 4
  00be4	6a 00		 push	 0
  00be6	6a 00		 push	 0
  00be8	8b 4d f0	 mov	 ecx, DWORD PTR _this$[ebp]
  00beb	81 c1 d4 00 00
	00		 add	 ecx, 212		; 000000d4H
  00bf1	e8 00 00 00 00	 call	 ??0CPoint@@QAE@HH@Z	; CPoint::CPoint
  00bf6	8b 55 f0	 mov	 edx, DWORD PTR _this$[ebp]
  00bf9	c7 82 dc 00 00
	00 00 00 00 00	 mov	 DWORD PTR [edx+220], 0
  00c03	8b 45 f0	 mov	 eax, DWORD PTR _this$[ebp]
  00c06	c7 80 e0 00 00
	00 03 00 00 00	 mov	 DWORD PTR [eax+224], 3

; 194  :    // retrieve window animation API if available
; 195  :    HMODULE hUser32 = GetModuleHandle(_T("USER32.DLL"));

  00c10	8b f4		 mov	 esi, esp
  00c12	68 00 00 00 00	 push	 OFFSET FLAT:$SG187480
  00c17	ff 15 00 00 00
	00		 call	 DWORD PTR __imp__GetModuleHandleA@4
  00c1d	3b f4		 cmp	 esi, esp
  00c1f	e8 00 00 00 00	 call	 __RTC_CheckEsp
  00c24	89 45 ec	 mov	 DWORD PTR _hUser32$[ebp], eax

; 196  :    // can't imagine why that would fail, but might as well *look* safe...  ;~)
; 197  :    if ( NULL != hUser32 )

  00c27	83 7d ec 00	 cmp	 DWORD PTR _hUser32$[ebp], 0
  00c2b	74 20		 je	 SHORT $L187481

; 198  :       m_fnAnimateWindow = (FN_ANIMATE_WINDOW)GetProcAddress(hUser32, _T("AnimateWindow"));

  00c2d	8b f4		 mov	 esi, esp
  00c2f	68 00 00 00 00	 push	 OFFSET FLAT:$SG187483
  00c34	8b 4d ec	 mov	 ecx, DWORD PTR _hUser32$[ebp]
  00c37	51		 push	 ecx
  00c38	ff 15 00 00 00
	00		 call	 DWORD PTR __imp__GetProcAddress@8
  00c3e	3b f4		 cmp	 esi, esp
  00c40	e8 00 00 00 00	 call	 __RTC_CheckEsp
  00c45	8b 55 f0	 mov	 edx, DWORD PTR _this$[ebp]
  00c48	89 42 74	 mov	 DWORD PTR [edx+116], eax

; 199  :    else

  00c4b	eb 0a		 jmp	 SHORT $L187484
$L187481:

; 200  :       m_fnAnimateWindow = NULL;

  00c4d	8b 45 f0	 mov	 eax, DWORD PTR _this$[ebp]
  00c50	c7 40 74 00 00
	00 00		 mov	 DWORD PTR [eax+116], 0
$L187484:

; 201  : 
; 202  :    // get system tolerance values
; 203  :    int nTol = 0;

  00c57	c7 45 e4 00 00
	00 00		 mov	 DWORD PTR _nTol$[ebp], 0

; 204  :    if ( ::SystemParametersInfo(SPI_GETMOUSEHOVERWIDTH, 0, &nTol, 0) && nTol > 0 )

  00c5e	8b f4		 mov	 esi, esp
  00c60	6a 00		 push	 0
  00c62	8d 4d e4	 lea	 ecx, DWORD PTR _nTol$[ebp]
  00c65	51		 push	 ecx
  00c66	6a 00		 push	 0
  00c68	6a 62		 push	 98			; 00000062H
  00c6a	ff 15 00 00 00
	00		 call	 DWORD PTR __imp__SystemParametersInfoA@16
  00c70	3b f4		 cmp	 esi, esp
  00c72	e8 00 00 00 00	 call	 __RTC_CheckEsp
  00c77	85 c0		 test	 eax, eax
  00c79	74 12		 je	 SHORT $L187486
  00c7b	83 7d e4 00	 cmp	 DWORD PTR _nTol$[ebp], 0
  00c7f	7e 0c		 jle	 SHORT $L187486

; 205  :       m_nMouseMoveTolerance = nTol;

  00c81	8b 55 f0	 mov	 edx, DWORD PTR _this$[ebp]
  00c84	8b 45 e4	 mov	 eax, DWORD PTR _nTol$[ebp]
  00c87	89 82 e0 00 00
	00		 mov	 DWORD PTR [edx+224], eax
$L187486:

; 206  : 
; 207  :    // setup hook procedures
; 208  :    BHKeybHookThunk<CBalloonHelp>::InitThunk((TMFP)KeyboardHookProc, this);

  00c8d	c7 45 d8 00 00
	00 00		 mov	 DWORD PTR $T188782[ebp], OFFSET FLAT:?KeyboardHookProc@CBalloonHelp@@AAEJHIJ@Z ; CBalloonHelp::KeyboardHookProc
  00c94	c7 45 dc 00 00
	00 00		 mov	 DWORD PTR $T188782[ebp+4], 0
  00c9b	8b 4d f0	 mov	 ecx, DWORD PTR _this$[ebp]
  00c9e	51		 push	 ecx
  00c9f	8b 55 dc	 mov	 edx, DWORD PTR $T188782[ebp+4]
  00ca2	52		 push	 edx
  00ca3	8b 45 d8	 mov	 eax, DWORD PTR $T188782[ebp]
  00ca6	50		 push	 eax
  00ca7	8b 4d f0	 mov	 ecx, DWORD PTR _this$[ebp]
  00caa	83 c1 54	 add	 ecx, 84			; 00000054H
  00cad	e8 00 00 00 00	 call	 ?InitThunk@?$_ThunkImpl@VCBalloonHelp@@@@IAEXP8CBalloonHelp@@AEXXZPBV2@@Z ; _ThunkImpl<CBalloonHelp>::InitThunk

; 209  :    BHMouseHookThunk<CBalloonHelp>::InitThunk((TMFP)MouseHookProc, this);

  00cb2	c7 45 d0 00 00
	00 00		 mov	 DWORD PTR $T188783[ebp], OFFSET FLAT:?MouseHookProc@CBalloonHelp@@AAEJHIJ@Z ; CBalloonHelp::MouseHookProc
  00cb9	c7 45 d4 00 00
	00 00		 mov	 DWORD PTR $T188783[ebp+4], 0
  00cc0	8b 4d f0	 mov	 ecx, DWORD PTR _this$[ebp]
  00cc3	51		 push	 ecx
  00cc4	8b 55 d4	 mov	 edx, DWORD PTR $T188783[ebp+4]
  00cc7	52		 push	 edx
  00cc8	8b 45 d0	 mov	 eax, DWORD PTR $T188783[ebp]
  00ccb	50		 push	 eax
  00ccc	8b 4d f0	 mov	 ecx, DWORD PTR _this$[ebp]
  00ccf	83 c1 5e	 add	 ecx, 94			; 0000005eH
  00cd2	e8 00 00 00 00	 call	 ?InitThunk@?$_ThunkImpl@VCBalloonHelp@@@@IAEXP8CBalloonHelp@@AEXXZPBV2@@Z ; _ThunkImpl<CBalloonHelp>::InitThunk

; 210  :    BHCallWndRetHookThunk<CBalloonHelp>::InitThunk((TMFP)CallWndRetProc, this);

  00cd7	c7 45 c8 00 00
	00 00		 mov	 DWORD PTR $T188784[ebp], OFFSET FLAT:?CallWndRetProc@CBalloonHelp@@AAEJHIJ@Z ; CBalloonHelp::CallWndRetProc
  00cde	c7 45 cc 00 00
	00 00		 mov	 DWORD PTR $T188784[ebp+4], 0
  00ce5	8b 4d f0	 mov	 ecx, DWORD PTR _this$[ebp]
  00ce8	51		 push	 ecx
  00ce9	8b 55 cc	 mov	 edx, DWORD PTR $T188784[ebp+4]
  00cec	52		 push	 edx
  00ced	8b 45 c8	 mov	 eax, DWORD PTR $T188784[ebp]
  00cf0	50		 push	 eax
  00cf1	8b 4d f0	 mov	 ecx, DWORD PTR _this$[ebp]
  00cf4	83 c1 68	 add	 ecx, 104		; 00000068H
  00cf7	e8 00 00 00 00	 call	 ?InitThunk@?$_ThunkImpl@VCBalloonHelp@@@@IAEXP8CBalloonHelp@@AEXXZPBV2@@Z ; _ThunkImpl<CBalloonHelp>::InitThunk

; 211  : }

  00cfc	c7 45 fc ff ff
	ff ff		 mov	 DWORD PTR __$EHRec$[ebp+8], -1
  00d03	8b 45 f0	 mov	 eax, DWORD PTR _this$[ebp]
  00d06	52		 push	 edx
  00d07	8b cd		 mov	 ecx, ebp
  00d09	50		 push	 eax
  00d0a	8d 15 00 00 00
	00		 lea	 edx, DWORD PTR $L188795
  00d10	e8 00 00 00 00	 call	 @_RTC_CheckStackVars@8
  00d15	58		 pop	 eax
  00d16	5a		 pop	 edx
  00d17	8b 4d f4	 mov	 ecx, DWORD PTR __$EHRec$[ebp]
  00d1a	64 89 0d 00 00
	00 00		 mov	 DWORD PTR fs:__except_list, ecx
  00d21	5f		 pop	 edi
  00d22	5e		 pop	 esi
  00d23	83 c4 38	 add	 esp, 56			; 00000038H
  00d26	3b ec		 cmp	 ebp, esp
  00d28	e8 00 00 00 00	 call	 __RTC_CheckEsp
  00d2d	8b e5		 mov	 esp, ebp
  00d2f	5d		 pop	 ebp
  00d30	c3		 ret	 0
$L188795:
  00d31	01 00 00 00	 DD	 1
  00d35	00 00 00 00	 DD	 $L188794
$L188794:
  00d39	e4 ff ff ff	 DD	 -28			; ffffffe4H
  00d3d	04 00 00 00	 DD	 4
  00d41	00 00 00 00	 DD	 $L188792
$L188792:
  00d45	6e		 DB	 110			; 0000006eH
  00d46	54		 DB	 84			; 00000054H
  00d47	6f		 DB	 111			; 0000006fH
  00d48	6c		 DB	 108			; 0000006cH
  00d49	00		 DB	 0
_TEXT	ENDS
text$x	SEGMENT
$L188785:
  00030	8b 4d f0	 mov	 ecx, DWORD PTR _this$[ebp]
  00033	e9 00 00 00 00	 jmp	 ??1CWnd@@UAE@XZ		; CWnd::~CWnd
$L188786:
  00038	8b 4d f0	 mov	 ecx, DWORD PTR _this$[ebp]
  0003b	81 c1 90 00 00
	00		 add	 ecx, 144		; 00000090H
  00041	8b f4		 mov	 esi, esp
  00043	ff 15 00 00 00
	00		 call	 DWORD PTR __imp_??1?$CStringT@DV?$StrTraitMFC_DLL@DV?$ChTraitsCRT@D@ATL@@@@@ATL@@QAE@XZ
  00049	3b f4		 cmp	 esi, esp
  0004b	e9 00 00 00 00	 jmp	 __RTC_CheckEsp
$L188787:
  00050	8b 4d f0	 mov	 ecx, DWORD PTR _this$[ebp]
  00053	81 c1 94 00 00
	00		 add	 ecx, 148		; 00000094H
  00059	8b f4		 mov	 esi, esp
  0005b	ff 15 00 00 00
	00		 call	 DWORD PTR __imp_??1?$CStringT@DV?$StrTraitMFC_DLL@DV?$ChTraitsCRT@D@ATL@@@@@ATL@@QAE@XZ
  00061	3b f4		 cmp	 esi, esp
  00063	e9 00 00 00 00	 jmp	 __RTC_CheckEsp
$L188788:
  00068	8b 4d f0	 mov	 ecx, DWORD PTR _this$[ebp]
  0006b	81 c1 a4 00 00
	00		 add	 ecx, 164		; 000000a4H
  00071	e9 00 00 00 00	 jmp	 ??1CImageList@@UAE@XZ	; CImageList::~CImageList
$L188789:
  00076	8b 4d f0	 mov	 ecx, DWORD PTR _this$[ebp]
  00079	81 c1 cc 00 00
	00		 add	 ecx, 204		; 000000ccH
  0007f	e9 00 00 00 00	 jmp	 ??1CRgn@@UAE@XZ		; CRgn::~CRgn
__ehhandler$??0CBalloonHelp@@QAE@XZ:
  00084	b8 00 00 00 00	 mov	 eax, OFFSET FLAT:$T188791
  00089	e9 00 00 00 00	 jmp	 ___CxxFrameHandler
text$x	ENDS
??0CBalloonHelp@@QAE@XZ ENDP				; CBalloonHelp::CBalloonHelp
PUBLIC	??1CBalloonHelp@@UAE@XZ				; CBalloonHelp::~CBalloonHelp
EXTRN	??3CObject@@SGXPAX@Z:NEAR			; CObject::operator delete
; Function compile flags: /Odt /RTCsu
;	COMDAT ??_GCBalloonHelp@@UAEPAXI@Z
_TEXT	SEGMENT
_this$ = -4						; size = 4
___flags$ = 8						; size = 4
??_GCBalloonHelp@@UAEPAXI@Z PROC NEAR			; CBalloonHelp::`scalar deleting destructor', COMDAT
; _this$ = ecx
  00000	55		 push	 ebp
  00001	8b ec		 mov	 ebp, esp
  00003	51		 push	 ecx
  00004	c7 45 fc cc cc
	cc cc		 mov	 DWORD PTR [ebp-4], -858993460 ; ccccccccH
  0000b	89 4d fc	 mov	 DWORD PTR _this$[ebp], ecx
  0000e	8b 4d fc	 mov	 ecx, DWORD PTR _this$[ebp]
  00011	e8 00 00 00 00	 call	 ??1CBalloonHelp@@UAE@XZ	; CBalloonHelp::~CBalloonHelp
  00016	8b 45 08	 mov	 eax, DWORD PTR ___flags$[ebp]
  00019	83 e0 01	 and	 eax, 1
  0001c	74 09		 je	 SHORT $L187496
  0001e	8b 4d fc	 mov	 ecx, DWORD PTR _this$[ebp]
  00021	51		 push	 ecx
  00022	e8 00 00 00 00	 call	 ??3CObject@@SGXPAX@Z	; CObject::operator delete
$L187496:
  00027	8b 45 fc	 mov	 eax, DWORD PTR _this$[ebp]
  0002a	83 c4 04	 add	 esp, 4
  0002d	3b ec		 cmp	 ebp, esp
  0002f	e8 00 00 00 00	 call	 __RTC_CheckEsp
  00034	8b e5		 mov	 esp, ebp
  00036	5d		 pop	 ebp
  00037	c2 04 00	 ret	 4
??_GCBalloonHelp@@UAEPAXI@Z ENDP			; CBalloonHelp::`scalar deleting destructor'
_TEXT	ENDS
xdata$x	SEGMENT
$T188815 DD	0ffffffffH
	DD	FLAT:$L188807
	DD	00H
	DD	FLAT:$L188808
	DD	01H
	DD	FLAT:$L188809
	DD	02H
	DD	FLAT:$L188810
	DD	03H
	DD	FLAT:$L188811
$T188813 DD	019930520H
	DD	05H
	DD	FLAT:$T188815
	DD	2 DUP(00H)
	DD	2 DUP(00H)
; Function compile flags: /Odt /RTCsu
xdata$x	ENDS
_TEXT	SEGMENT
tv133 = -40						; size = 4
tv90 = -36						; size = 4
$T188804 = -32						; size = 4
$T188803 = -28						; size = 4
$T188800 = -24						; size = 4
$T188799 = -20						; size = 4
_this$ = -16						; size = 4
__$EHRec$ = -12						; size = 12
??1CBalloonHelp@@UAE@XZ PROC NEAR			; CBalloonHelp::~CBalloonHelp
; _this$ = ecx

; 214  : {

  00d50	55		 push	 ebp
  00d51	8b ec		 mov	 ebp, esp
  00d53	6a ff		 push	 -1
  00d55	68 00 00 00 00	 push	 __ehhandler$??1CBalloonHelp@@UAE@XZ
  00d5a	64 a1 00 00 00
	00		 mov	 eax, DWORD PTR fs:__except_list
  00d60	50		 push	 eax
  00d61	64 89 25 00 00
	00 00		 mov	 DWORD PTR fs:__except_list, esp
  00d68	83 ec 1c	 sub	 esp, 28			; 0000001cH
  00d6b	56		 push	 esi
  00d6c	b8 cc cc cc cc	 mov	 eax, -858993460		; ccccccccH
  00d71	89 45 d8	 mov	 DWORD PTR [ebp-40], eax
  00d74	89 45 dc	 mov	 DWORD PTR [ebp-36], eax
  00d77	89 45 e0	 mov	 DWORD PTR [ebp-32], eax
  00d7a	89 45 e4	 mov	 DWORD PTR [ebp-28], eax
  00d7d	89 45 e8	 mov	 DWORD PTR [ebp-24], eax
  00d80	89 45 ec	 mov	 DWORD PTR [ebp-20], eax
  00d83	89 45 f0	 mov	 DWORD PTR [ebp-16], eax
  00d86	89 4d f0	 mov	 DWORD PTR _this$[ebp], ecx
  00d89	8b 45 f0	 mov	 eax, DWORD PTR _this$[ebp]
  00d8c	c7 00 00 00 00
	00		 mov	 DWORD PTR [eax], OFFSET FLAT:??_7CBalloonHelp@@6B@
  00d92	c7 45 fc 04 00
	00 00		 mov	 DWORD PTR __$EHRec$[ebp+8], 4

; 215  :    if ( NULL != m_pTitleFont )

  00d99	8b 4d f0	 mov	 ecx, DWORD PTR _this$[ebp]
  00d9c	83 b9 ac 00 00
	00 00		 cmp	 DWORD PTR [ecx+172], 0
  00da3	74 3a		 je	 SHORT $L187500

; 216  :       delete m_pTitleFont;

  00da5	8b 55 f0	 mov	 edx, DWORD PTR _this$[ebp]
  00da8	8b 82 ac 00 00
	00		 mov	 eax, DWORD PTR [edx+172]
  00dae	89 45 e8	 mov	 DWORD PTR $T188800[ebp], eax
  00db1	8b 4d e8	 mov	 ecx, DWORD PTR $T188800[ebp]
  00db4	89 4d ec	 mov	 DWORD PTR $T188799[ebp], ecx
  00db7	83 7d ec 00	 cmp	 DWORD PTR $T188799[ebp], 0
  00dbb	74 1b		 je	 SHORT $L188801
  00dbd	8b f4		 mov	 esi, esp
  00dbf	6a 01		 push	 1
  00dc1	8b 55 ec	 mov	 edx, DWORD PTR $T188799[ebp]
  00dc4	8b 02		 mov	 eax, DWORD PTR [edx]
  00dc6	8b 4d ec	 mov	 ecx, DWORD PTR $T188799[ebp]
  00dc9	ff 50 04	 call	 DWORD PTR [eax+4]
  00dcc	3b f4		 cmp	 esi, esp
  00dce	e8 00 00 00 00	 call	 __RTC_CheckEsp
  00dd3	89 45 dc	 mov	 DWORD PTR tv90[ebp], eax
  00dd6	eb 07		 jmp	 SHORT $L187500
$L188801:
  00dd8	c7 45 dc 00 00
	00 00		 mov	 DWORD PTR tv90[ebp], 0
$L187500:

; 217  :    m_pTitleFont = NULL;

  00ddf	8b 4d f0	 mov	 ecx, DWORD PTR _this$[ebp]
  00de2	c7 81 ac 00 00
	00 00 00 00 00	 mov	 DWORD PTR [ecx+172], 0

; 218  :    if ( NULL != m_pContentFont )

  00dec	8b 55 f0	 mov	 edx, DWORD PTR _this$[ebp]
  00def	83 ba b0 00 00
	00 00		 cmp	 DWORD PTR [edx+176], 0
  00df6	74 3a		 je	 SHORT $L187503

; 219  :       delete m_pContentFont;

  00df8	8b 45 f0	 mov	 eax, DWORD PTR _this$[ebp]
  00dfb	8b 88 b0 00 00
	00		 mov	 ecx, DWORD PTR [eax+176]
  00e01	89 4d e0	 mov	 DWORD PTR $T188804[ebp], ecx
  00e04	8b 55 e0	 mov	 edx, DWORD PTR $T188804[ebp]
  00e07	89 55 e4	 mov	 DWORD PTR $T188803[ebp], edx
  00e0a	83 7d e4 00	 cmp	 DWORD PTR $T188803[ebp], 0
  00e0e	74 1b		 je	 SHORT $L188805
  00e10	8b f4		 mov	 esi, esp
  00e12	6a 01		 push	 1
  00e14	8b 45 e4	 mov	 eax, DWORD PTR $T188803[ebp]
  00e17	8b 10		 mov	 edx, DWORD PTR [eax]
  00e19	8b 4d e4	 mov	 ecx, DWORD PTR $T188803[ebp]
  00e1c	ff 52 04	 call	 DWORD PTR [edx+4]
  00e1f	3b f4		 cmp	 esi, esp
  00e21	e8 00 00 00 00	 call	 __RTC_CheckEsp
  00e26	89 45 d8	 mov	 DWORD PTR tv133[ebp], eax
  00e29	eb 07		 jmp	 SHORT $L187503
$L188805:
  00e2b	c7 45 d8 00 00
	00 00		 mov	 DWORD PTR tv133[ebp], 0
$L187503:

; 220  :    m_pContentFont = NULL;

  00e32	8b 45 f0	 mov	 eax, DWORD PTR _this$[ebp]
  00e35	c7 80 b0 00 00
	00 00 00 00 00	 mov	 DWORD PTR [eax+176], 0

; 221  : }

  00e3f	c6 45 fc 03	 mov	 BYTE PTR __$EHRec$[ebp+8], 3
  00e43	8b 4d f0	 mov	 ecx, DWORD PTR _this$[ebp]
  00e46	81 c1 cc 00 00
	00		 add	 ecx, 204		; 000000ccH
  00e4c	e8 00 00 00 00	 call	 ??1CRgn@@UAE@XZ		; CRgn::~CRgn
  00e51	c6 45 fc 02	 mov	 BYTE PTR __$EHRec$[ebp+8], 2
  00e55	8b 4d f0	 mov	 ecx, DWORD PTR _this$[ebp]
  00e58	81 c1 a4 00 00
	00		 add	 ecx, 164		; 000000a4H
  00e5e	e8 00 00 00 00	 call	 ??1CImageList@@UAE@XZ	; CImageList::~CImageList
  00e63	c6 45 fc 01	 mov	 BYTE PTR __$EHRec$[ebp+8], 1
  00e67	8b 4d f0	 mov	 ecx, DWORD PTR _this$[ebp]
  00e6a	81 c1 94 00 00
	00		 add	 ecx, 148		; 00000094H
  00e70	8b f4		 mov	 esi, esp
  00e72	ff 15 00 00 00
	00		 call	 DWORD PTR __imp_??1?$CStringT@DV?$StrTraitMFC_DLL@DV?$ChTraitsCRT@D@ATL@@@@@ATL@@QAE@XZ
  00e78	3b f4		 cmp	 esi, esp
  00e7a	e8 00 00 00 00	 call	 __RTC_CheckEsp
  00e7f	c6 45 fc 00	 mov	 BYTE PTR __$EHRec$[ebp+8], 0
  00e83	8b 4d f0	 mov	 ecx, DWORD PTR _this$[ebp]
  00e86	81 c1 90 00 00
	00		 add	 ecx, 144		; 00000090H
  00e8c	8b f4		 mov	 esi, esp
  00e8e	ff 15 00 00 00
	00		 call	 DWORD PTR __imp_??1?$CStringT@DV?$StrTraitMFC_DLL@DV?$ChTraitsCRT@D@ATL@@@@@ATL@@QAE@XZ
  00e94	3b f4		 cmp	 esi, esp
  00e96	e8 00 00 00 00	 call	 __RTC_CheckEsp
  00e9b	c7 45 fc ff ff
	ff ff		 mov	 DWORD PTR __$EHRec$[ebp+8], -1
  00ea2	8b 4d f0	 mov	 ecx, DWORD PTR _this$[ebp]
  00ea5	e8 00 00 00 00	 call	 ??1CWnd@@UAE@XZ		; CWnd::~CWnd
  00eaa	8b 4d f4	 mov	 ecx, DWORD PTR __$EHRec$[ebp]
  00ead	64 89 0d 00 00
	00 00		 mov	 DWORD PTR fs:__except_list, ecx
  00eb4	5e		 pop	 esi
  00eb5	83 c4 28	 add	 esp, 40			; 00000028H
  00eb8	3b ec		 cmp	 ebp, esp
  00eba	e8 00 00 00 00	 call	 __RTC_CheckEsp
  00ebf	8b e5		 mov	 esp, ebp
  00ec1	5d		 pop	 ebp
  00ec2	c3		 ret	 0
_TEXT	ENDS
text$x	SEGMENT
$L188807:
  0008e	8b 4d f0	 mov	 ecx, DWORD PTR _this$[ebp]
  00091	e9 00 00 00 00	 jmp	 ??1CWnd@@UAE@XZ		; CWnd::~CWnd
$L188808:
  00096	8b 4d f0	 mov	 ecx, DWORD PTR _this$[ebp]
  00099	81 c1 90 00 00
	00		 add	 ecx, 144		; 00000090H
  0009f	8b f4		 mov	 esi, esp
  000a1	ff 15 00 00 00
	00		 call	 DWORD PTR __imp_??1?$CStringT@DV?$StrTraitMFC_DLL@DV?$ChTraitsCRT@D@ATL@@@@@ATL@@QAE@XZ
  000a7	3b f4		 cmp	 esi, esp
  000a9	e9 00 00 00 00	 jmp	 __RTC_CheckEsp
$L188809:
  000ae	8b 4d f0	 mov	 ecx, DWORD PTR _this$[ebp]
  000b1	81 c1 94 00 00
	00		 add	 ecx, 148		; 00000094H
  000b7	8b f4		 mov	 esi, esp
  000b9	ff 15 00 00 00
	00		 call	 DWORD PTR __imp_??1?$CStringT@DV?$StrTraitMFC_DLL@DV?$ChTraitsCRT@D@ATL@@@@@ATL@@QAE@XZ
  000bf	3b f4		 cmp	 esi, esp
  000c1	e9 00 00 00 00	 jmp	 __RTC_CheckEsp
$L188810:
  000c6	8b 4d f0	 mov	 ecx, DWORD PTR _this$[ebp]
  000c9	81 c1 a4 00 00
	00		 add	 ecx, 164		; 000000a4H
  000cf	e9 00 00 00 00	 jmp	 ??1CImageList@@UAE@XZ	; CImageList::~CImageList
$L188811:
  000d4	8b 4d f0	 mov	 ecx, DWORD PTR _this$[ebp]
  000d7	81 c1 cc 00 00
	00		 add	 ecx, 204		; 000000ccH
  000dd	e9 00 00 00 00	 jmp	 ??1CRgn@@UAE@XZ		; CRgn::~CRgn
__ehhandler$??1CBalloonHelp@@UAE@XZ:
  000e2	b8 00 00 00 00	 mov	 eax, OFFSET FLAT:$T188813
  000e7	e9 00 00 00 00	 jmp	 ___CxxFrameHandler
text$x	ENDS
??1CBalloonHelp@@UAE@XZ ENDP				; CBalloonHelp::~CBalloonHelp
PUBLIC	?SetTitleFont@CBalloonHelp@@QAEXPAVCFont@@@Z	; CBalloonHelp::SetTitleFont
PUBLIC	?PositionWindow@CBalloonHelp@@IAEXXZ		; CBalloonHelp::PositionWindow
; Function compile flags: /Odt /RTCsu
_TEXT	SEGMENT
tv73 = -16						; size = 4
$T188818 = -12						; size = 4
$T188817 = -8						; size = 4
_this$ = -4						; size = 4
_pFont$ = 8						; size = 4
?SetTitleFont@CBalloonHelp@@QAEXPAVCFont@@@Z PROC NEAR	; CBalloonHelp::SetTitleFont
; _this$ = ecx

; 226  : {

  00ed0	55		 push	 ebp
  00ed1	8b ec		 mov	 ebp, esp
  00ed3	83 ec 10	 sub	 esp, 16			; 00000010H
  00ed6	56		 push	 esi
  00ed7	b8 cc cc cc cc	 mov	 eax, -858993460		; ccccccccH
  00edc	89 45 f0	 mov	 DWORD PTR [ebp-16], eax
  00edf	89 45 f4	 mov	 DWORD PTR [ebp-12], eax
  00ee2	89 45 f8	 mov	 DWORD PTR [ebp-8], eax
  00ee5	89 45 fc	 mov	 DWORD PTR [ebp-4], eax
  00ee8	89 4d fc	 mov	 DWORD PTR _this$[ebp], ecx

; 227  :    if ( NULL != m_pTitleFont )

  00eeb	8b 45 fc	 mov	 eax, DWORD PTR _this$[ebp]
  00eee	83 b8 ac 00 00
	00 00		 cmp	 DWORD PTR [eax+172], 0
  00ef5	74 3a		 je	 SHORT $L187510

; 228  :       delete m_pTitleFont;

  00ef7	8b 4d fc	 mov	 ecx, DWORD PTR _this$[ebp]
  00efa	8b 91 ac 00 00
	00		 mov	 edx, DWORD PTR [ecx+172]
  00f00	89 55 f4	 mov	 DWORD PTR $T188818[ebp], edx
  00f03	8b 45 f4	 mov	 eax, DWORD PTR $T188818[ebp]
  00f06	89 45 f8	 mov	 DWORD PTR $T188817[ebp], eax
  00f09	83 7d f8 00	 cmp	 DWORD PTR $T188817[ebp], 0
  00f0d	74 1b		 je	 SHORT $L188819
  00f0f	8b f4		 mov	 esi, esp
  00f11	6a 01		 push	 1
  00f13	8b 4d f8	 mov	 ecx, DWORD PTR $T188817[ebp]
  00f16	8b 11		 mov	 edx, DWORD PTR [ecx]
  00f18	8b 4d f8	 mov	 ecx, DWORD PTR $T188817[ebp]
  00f1b	ff 52 04	 call	 DWORD PTR [edx+4]
  00f1e	3b f4		 cmp	 esi, esp
  00f20	e8 00 00 00 00	 call	 __RTC_CheckEsp
  00f25	89 45 f0	 mov	 DWORD PTR tv73[ebp], eax
  00f28	eb 07		 jmp	 SHORT $L187510
$L188819:
  00f2a	c7 45 f0 00 00
	00 00		 mov	 DWORD PTR tv73[ebp], 0
$L187510:

; 229  :    m_pTitleFont = pFont;

  00f31	8b 45 fc	 mov	 eax, DWORD PTR _this$[ebp]
  00f34	8b 4d 08	 mov	 ecx, DWORD PTR _pFont$[ebp]
  00f37	89 88 ac 00 00
	00		 mov	 DWORD PTR [eax+172], ecx

; 230  :    // if already visible, resize & move
; 231  :    if ( NULL != m_hWnd )

  00f3d	8b 55 fc	 mov	 edx, DWORD PTR _this$[ebp]
  00f40	83 7a 20 00	 cmp	 DWORD PTR [edx+32], 0
  00f44	74 08		 je	 SHORT $L187509

; 232  :       PositionWindow();

  00f46	8b 4d fc	 mov	 ecx, DWORD PTR _this$[ebp]
  00f49	e8 00 00 00 00	 call	 ?PositionWindow@CBalloonHelp@@IAEXXZ ; CBalloonHelp::PositionWindow
$L187509:

; 233  : }

  00f4e	5e		 pop	 esi
  00f4f	83 c4 10	 add	 esp, 16			; 00000010H
  00f52	3b ec		 cmp	 ebp, esp
  00f54	e8 00 00 00 00	 call	 __RTC_CheckEsp
  00f59	8b e5		 mov	 esp, ebp
  00f5b	5d		 pop	 ebp
  00f5c	c2 04 00	 ret	 4
?SetTitleFont@CBalloonHelp@@QAEXPAVCFont@@@Z ENDP	; CBalloonHelp::SetTitleFont
_TEXT	ENDS
PUBLIC	?SetContentFont@CBalloonHelp@@QAEXPAVCFont@@@Z	; CBalloonHelp::SetContentFont
; Function compile flags: /Odt /RTCsu
_TEXT	SEGMENT
tv73 = -16						; size = 4
$T188823 = -12						; size = 4
$T188822 = -8						; size = 4
_this$ = -4						; size = 4
_pFont$ = 8						; size = 4
?SetContentFont@CBalloonHelp@@QAEXPAVCFont@@@Z PROC NEAR ; CBalloonHelp::SetContentFont
; _this$ = ecx

; 237  : {

  00f60	55		 push	 ebp
  00f61	8b ec		 mov	 ebp, esp
  00f63	83 ec 10	 sub	 esp, 16			; 00000010H
  00f66	56		 push	 esi
  00f67	b8 cc cc cc cc	 mov	 eax, -858993460		; ccccccccH
  00f6c	89 45 f0	 mov	 DWORD PTR [ebp-16], eax
  00f6f	89 45 f4	 mov	 DWORD PTR [ebp-12], eax
  00f72	89 45 f8	 mov	 DWORD PTR [ebp-8], eax
  00f75	89 45 fc	 mov	 DWORD PTR [ebp-4], eax
  00f78	89 4d fc	 mov	 DWORD PTR _this$[ebp], ecx

; 238  :    if ( NULL != m_pContentFont )

  00f7b	8b 45 fc	 mov	 eax, DWORD PTR _this$[ebp]
  00f7e	83 b8 b0 00 00
	00 00		 cmp	 DWORD PTR [eax+176], 0
  00f85	74 3a		 je	 SHORT $L187518

; 239  :       delete m_pContentFont;

  00f87	8b 4d fc	 mov	 ecx, DWORD PTR _this$[ebp]
  00f8a	8b 91 b0 00 00
	00		 mov	 edx, DWORD PTR [ecx+176]
  00f90	89 55 f4	 mov	 DWORD PTR $T188823[ebp], edx
  00f93	8b 45 f4	 mov	 eax, DWORD PTR $T188823[ebp]
  00f96	89 45 f8	 mov	 DWORD PTR $T188822[ebp], eax
  00f99	83 7d f8 00	 cmp	 DWORD PTR $T188822[ebp], 0
  00f9d	74 1b		 je	 SHORT $L188824
  00f9f	8b f4		 mov	 esi, esp
  00fa1	6a 01		 push	 1
  00fa3	8b 4d f8	 mov	 ecx, DWORD PTR $T188822[ebp]
  00fa6	8b 11		 mov	 edx, DWORD PTR [ecx]
  00fa8	8b 4d f8	 mov	 ecx, DWORD PTR $T188822[ebp]
  00fab	ff 52 04	 call	 DWORD PTR [edx+4]
  00fae	3b f4		 cmp	 esi, esp
  00fb0	e8 00 00 00 00	 call	 __RTC_CheckEsp
  00fb5	89 45 f0	 mov	 DWORD PTR tv73[ebp], eax
  00fb8	eb 07		 jmp	 SHORT $L187518
$L188824:
  00fba	c7 45 f0 00 00
	00 00		 mov	 DWORD PTR tv73[ebp], 0
$L187518:

; 240  :    m_pContentFont = pFont;

  00fc1	8b 45 fc	 mov	 eax, DWORD PTR _this$[ebp]
  00fc4	8b 4d 08	 mov	 ecx, DWORD PTR _pFont$[ebp]
  00fc7	89 88 b0 00 00
	00		 mov	 DWORD PTR [eax+176], ecx

; 241  :    // if already visible, resize & move
; 242  :    if ( NULL != m_hWnd )

  00fcd	8b 55 fc	 mov	 edx, DWORD PTR _this$[ebp]
  00fd0	83 7a 20 00	 cmp	 DWORD PTR [edx+32], 0
  00fd4	74 08		 je	 SHORT $L187517

; 243  :       PositionWindow();

  00fd6	8b 4d fc	 mov	 ecx, DWORD PTR _this$[ebp]
  00fd9	e8 00 00 00 00	 call	 ?PositionWindow@CBalloonHelp@@IAEXXZ ; CBalloonHelp::PositionWindow
$L187517:

; 244  : }

  00fde	5e		 pop	 esi
  00fdf	83 c4 10	 add	 esp, 16			; 00000010H
  00fe2	3b ec		 cmp	 ebp, esp
  00fe4	e8 00 00 00 00	 call	 __RTC_CheckEsp
  00fe9	8b e5		 mov	 esp, ebp
  00feb	5d		 pop	 ebp
  00fec	c2 04 00	 ret	 4
?SetContentFont@CBalloonHelp@@QAEXPAVCFont@@@Z ENDP	; CBalloonHelp::SetContentFont
_TEXT	ENDS
PUBLIC	?SetIcon@CBalloonHelp@@QAEXPAUHICON__@@@Z	; CBalloonHelp::SetIcon
PUBLIC	?SetIcon@CBalloonHelp@@QAEXPAUHBITMAP__@@0@Z	; CBalloonHelp::SetIcon
EXTRN	__imp__GetIconInfo@8:NEAR
EXTRN	__imp__DeleteObject@4:NEAR
EXTRN	?DeleteImageList@CImageList@@QAEHXZ:NEAR	; CImageList::DeleteImageList
; Function compile flags: /Odt /RTCsu
_TEXT	SEGMENT
_iconinfo$ = -28					; size = 20
_this$ = -4						; size = 4
_hIcon$ = 8						; size = 4
?SetIcon@CBalloonHelp@@QAEXPAUHICON__@@@Z PROC NEAR	; CBalloonHelp::SetIcon
; _this$ = ecx

; 248  : {

  00ff0	55		 push	 ebp
  00ff1	8b ec		 mov	 ebp, esp
  00ff3	83 ec 20	 sub	 esp, 32			; 00000020H
  00ff6	56		 push	 esi
  00ff7	b8 cc cc cc cc	 mov	 eax, -858993460		; ccccccccH
  00ffc	89 45 e0	 mov	 DWORD PTR [ebp-32], eax
  00fff	89 45 e4	 mov	 DWORD PTR [ebp-28], eax
  01002	89 45 e8	 mov	 DWORD PTR [ebp-24], eax
  01005	89 45 ec	 mov	 DWORD PTR [ebp-20], eax
  01008	89 45 f0	 mov	 DWORD PTR [ebp-16], eax
  0100b	89 45 f4	 mov	 DWORD PTR [ebp-12], eax
  0100e	89 45 f8	 mov	 DWORD PTR [ebp-8], eax
  01011	89 45 fc	 mov	 DWORD PTR [ebp-4], eax
  01014	89 4d fc	 mov	 DWORD PTR _this$[ebp], ecx

; 249  :    if ( NULL != m_ilIcon.m_hImageList )

  01017	8b 45 fc	 mov	 eax, DWORD PTR _this$[ebp]
  0101a	83 b8 a8 00 00
	00 00		 cmp	 DWORD PTR [eax+168], 0
  01021	74 0e		 je	 SHORT $L187526

; 250  :       m_ilIcon.DeleteImageList();

  01023	8b 4d fc	 mov	 ecx, DWORD PTR _this$[ebp]
  01026	81 c1 a4 00 00
	00		 add	 ecx, 164		; 000000a4H
  0102c	e8 00 00 00 00	 call	 ?DeleteImageList@CImageList@@QAEHXZ ; CImageList::DeleteImageList
$L187526:

; 251  :    ICONINFO iconinfo;
; 252  :    if ( NULL != hIcon && ::GetIconInfo(hIcon, &iconinfo) )

  01031	83 7d 08 00	 cmp	 DWORD PTR _hIcon$[ebp], 0
  01035	74 51		 je	 SHORT $L187528
  01037	8b f4		 mov	 esi, esp
  01039	8d 4d e4	 lea	 ecx, DWORD PTR _iconinfo$[ebp]
  0103c	51		 push	 ecx
  0103d	8b 55 08	 mov	 edx, DWORD PTR _hIcon$[ebp]
  01040	52		 push	 edx
  01041	ff 15 00 00 00
	00		 call	 DWORD PTR __imp__GetIconInfo@8
  01047	3b f4		 cmp	 esi, esp
  01049	e8 00 00 00 00	 call	 __RTC_CheckEsp
  0104e	85 c0		 test	 eax, eax
  01050	74 36		 je	 SHORT $L187528

; 253  :    {
; 254  :       SetIcon(iconinfo.hbmColor, iconinfo.hbmMask);

  01052	8b 45 f0	 mov	 eax, DWORD PTR _iconinfo$[ebp+12]
  01055	50		 push	 eax
  01056	8b 4d f4	 mov	 ecx, DWORD PTR _iconinfo$[ebp+16]
  01059	51		 push	 ecx
  0105a	8b 4d fc	 mov	 ecx, DWORD PTR _this$[ebp]
  0105d	e8 00 00 00 00	 call	 ?SetIcon@CBalloonHelp@@QAEXPAUHBITMAP__@@0@Z ; CBalloonHelp::SetIcon

; 255  :       ::DeleteObject(iconinfo.hbmColor);

  01062	8b f4		 mov	 esi, esp
  01064	8b 55 f4	 mov	 edx, DWORD PTR _iconinfo$[ebp+16]
  01067	52		 push	 edx
  01068	ff 15 00 00 00
	00		 call	 DWORD PTR __imp__DeleteObject@4
  0106e	3b f4		 cmp	 esi, esp
  01070	e8 00 00 00 00	 call	 __RTC_CheckEsp

; 256  :       ::DeleteObject(iconinfo.hbmMask);

  01075	8b f4		 mov	 esi, esp
  01077	8b 45 f0	 mov	 eax, DWORD PTR _iconinfo$[ebp+12]
  0107a	50		 push	 eax
  0107b	ff 15 00 00 00
	00		 call	 DWORD PTR __imp__DeleteObject@4
  01081	3b f4		 cmp	 esi, esp
  01083	e8 00 00 00 00	 call	 __RTC_CheckEsp
$L187528:

; 257  :    }
; 258  :    // if already visible, resize & move (icon size may have changed)
; 259  :    if ( NULL != m_hWnd )

  01088	8b 4d fc	 mov	 ecx, DWORD PTR _this$[ebp]
  0108b	83 79 20 00	 cmp	 DWORD PTR [ecx+32], 0
  0108f	74 08		 je	 SHORT $L187525

; 260  :       PositionWindow();

  01091	8b 4d fc	 mov	 ecx, DWORD PTR _this$[ebp]
  01094	e8 00 00 00 00	 call	 ?PositionWindow@CBalloonHelp@@IAEXXZ ; CBalloonHelp::PositionWindow
$L187525:

; 261  : }

  01099	52		 push	 edx
  0109a	8b cd		 mov	 ecx, ebp
  0109c	50		 push	 eax
  0109d	8d 15 00 00 00
	00		 lea	 edx, DWORD PTR $L188829
  010a3	e8 00 00 00 00	 call	 @_RTC_CheckStackVars@8
  010a8	58		 pop	 eax
  010a9	5a		 pop	 edx
  010aa	5e		 pop	 esi
  010ab	83 c4 20	 add	 esp, 32			; 00000020H
  010ae	3b ec		 cmp	 ebp, esp
  010b0	e8 00 00 00 00	 call	 __RTC_CheckEsp
  010b5	8b e5		 mov	 esp, ebp
  010b7	5d		 pop	 ebp
  010b8	c2 04 00	 ret	 4
$L188829:
  010bb	01 00 00 00	 DD	 1
  010bf	00 00 00 00	 DD	 $L188828
$L188828:
  010c3	e4 ff ff ff	 DD	 -28			; ffffffe4H
  010c7	14 00 00 00	 DD	 20			; 00000014H
  010cb	00 00 00 00	 DD	 $L188827
$L188827:
  010cf	69		 DB	 105			; 00000069H
  010d0	63		 DB	 99			; 00000063H
  010d1	6f		 DB	 111			; 0000006fH
  010d2	6e		 DB	 110			; 0000006eH
  010d3	69		 DB	 105			; 00000069H
  010d4	6e		 DB	 110			; 0000006eH
  010d5	66		 DB	 102			; 00000066H
  010d6	6f		 DB	 111			; 0000006fH
  010d7	00		 DB	 0
?SetIcon@CBalloonHelp@@QAEXPAUHICON__@@@Z ENDP		; CBalloonHelp::SetIcon
_TEXT	ENDS
PUBLIC	?SetIconScaled@CBalloonHelp@@QAEXPAUHICON__@@HH@Z ; CBalloonHelp::SetIconScaled
PUBLIC	?SetIcon@CBalloonHelp@@QAEXPAUHBITMAP__@@K@Z	; CBalloonHelp::SetIcon
EXTRN	__imp__DrawIconEx@36:NEAR
EXTRN	?StretchBlt@CDC@@QAEHHHHHPAV1@HHHHK@Z:NEAR	; CDC::StretchBlt
EXTRN	__imp__GetDC@4:NEAR
EXTRN	__imp__ReleaseDC@8:NEAR
EXTRN	?FillSolidRect@CDC@@QAEXHHHHK@Z:NEAR		; CDC::FillSolidRect
EXTRN	??1CDC@@UAE@XZ:NEAR				; CDC::~CDC
EXTRN	??0CBitmap@@QAE@XZ:NEAR				; CBitmap::CBitmap
EXTRN	?CreateCompatibleBitmap@CBitmap@@QAEHPAVCDC@@HH@Z:NEAR ; CBitmap::CreateCompatibleBitmap
EXTRN	??BCBitmap@@QBEPAUHBITMAP__@@XZ:NEAR		; CBitmap::operator HBITMAP__ *
EXTRN	??1CBitmap@@UAE@XZ:NEAR				; CBitmap::~CBitmap
EXTRN	??BCDC@@QBEPAUHDC__@@XZ:NEAR			; CDC::operator HDC__ *
EXTRN	?Attach@CDC@@QAEHPAUHDC__@@@Z:NEAR		; CDC::Attach
EXTRN	?Detach@CDC@@QAEPAUHDC__@@XZ:NEAR		; CDC::Detach
EXTRN	??0CDC@@QAE@XZ:NEAR				; CDC::CDC
EXTRN	__imp__GetObjectA@12:NEAR
EXTRN	?CreateCompatibleDC@CDC@@QAEHPAV1@@Z:NEAR	; CDC::CreateCompatibleDC
EXTRN	?SelectObject@CDC@@QAEPAVCBitmap@@PAV2@@Z:NEAR	; CDC::SelectObject
EXTRN	?SetStretchBltMode@CDC@@QAEHH@Z:NEAR		; CDC::SetStretchBltMode
xdata$x	SEGMENT
$T188848 DD	0ffffffffH
	DD	FLAT:$L188831
	DD	00H
	DD	FLAT:$L188832
	DD	01H
	DD	FLAT:$L188833
	DD	02H
	DD	FLAT:$L188834
	DD	03H
	DD	FLAT:$L188835
$T188837 DD	019930520H
	DD	05H
	DD	FLAT:$T188848
	DD	2 DUP(00H)
	DD	2 DUP(00H)
; Function compile flags: /Odt /RTCsu
xdata$x	ENDS
_TEXT	SEGMENT
_pbmpOld2$187547 = -188					; size = 4
_pbmpOld1$187546 = -184					; size = 4
_bmpIconScaled$187545 = -176				; size = 8
_bmpIcon$187544 = -160					; size = 8
_dcTmp2$187543 = -144					; size = 16
_dcTmp1$187542 = -120					; size = 16
_dc$187541 = -96					; size = 16
_bm$187538 = -72					; size = 24
_iconinfo$ = -40					; size = 20
_this$ = -16						; size = 4
__$EHRec$ = -12						; size = 12
_hIcon$ = 8						; size = 4
_cx$ = 12						; size = 4
_cy$ = 16						; size = 4
?SetIconScaled@CBalloonHelp@@QAEXPAUHICON__@@HH@Z PROC NEAR ; CBalloonHelp::SetIconScaled
; _this$ = ecx

; 265  : {

  010e0	55		 push	 ebp
  010e1	8b ec		 mov	 ebp, esp
  010e3	6a ff		 push	 -1
  010e5	68 00 00 00 00	 push	 __ehhandler$?SetIconScaled@CBalloonHelp@@QAEXPAUHICON__@@HH@Z
  010ea	64 a1 00 00 00
	00		 mov	 eax, DWORD PTR fs:__except_list
  010f0	50		 push	 eax
  010f1	64 89 25 00 00
	00 00		 mov	 DWORD PTR fs:__except_list, esp
  010f8	81 ec b0 00 00
	00		 sub	 esp, 176		; 000000b0H
  010fe	56		 push	 esi
  010ff	57		 push	 edi
  01100	51		 push	 ecx
  01101	8d bd 44 ff ff
	ff		 lea	 edi, DWORD PTR [ebp-188]
  01107	b9 2c 00 00 00	 mov	 ecx, 44			; 0000002cH
  0110c	b8 cc cc cc cc	 mov	 eax, -858993460		; ccccccccH
  01111	f3 ab		 rep stosd
  01113	59		 pop	 ecx
  01114	89 4d f0	 mov	 DWORD PTR _this$[ebp], ecx

; 266  :    // i now have two device contexts and two bitmaps.
; 267  :    // i will select a bitmap in each device context,
; 268  :    // draw the icon into the first one,
; 269  :    // scale it into the second one,
; 270  :    // and set the second one as the balloon icon.
; 271  :    // This is a rather long process to get a scaled icon,
; 272  :    // but ensures maximum compatibility between different
; 273  :    // versions of Windows, while producing the best possible
; 274  :    // results on each version (quite good in WinNT and better, sorta ok in Win9x).
; 275  :    ICONINFO iconinfo;
; 276  :    if ( NULL != hIcon && ::GetIconInfo(hIcon, &iconinfo) )

  01117	83 7d 08 00	 cmp	 DWORD PTR _hIcon$[ebp], 0
  0111b	0f 84 64 02 00
	00		 je	 $L187535
  01121	8b f4		 mov	 esi, esp
  01123	8d 45 d8	 lea	 eax, DWORD PTR _iconinfo$[ebp]
  01126	50		 push	 eax
  01127	8b 4d 08	 mov	 ecx, DWORD PTR _hIcon$[ebp]
  0112a	51		 push	 ecx
  0112b	ff 15 00 00 00
	00		 call	 DWORD PTR __imp__GetIconInfo@8
  01131	3b f4		 cmp	 esi, esp
  01133	e8 00 00 00 00	 call	 __RTC_CheckEsp
  01138	85 c0		 test	 eax, eax
  0113a	0f 84 45 02 00
	00		 je	 $L187535

; 277  :    {
; 278  :       BITMAP bm;
; 279  :       if (::GetObject(iconinfo.hbmColor, sizeof(bm),(LPVOID)&bm))

  01140	8b f4		 mov	 esi, esp
  01142	8d 55 b8	 lea	 edx, DWORD PTR _bm$187538[ebp]
  01145	52		 push	 edx
  01146	6a 18		 push	 24			; 00000018H
  01148	8b 45 e8	 mov	 eax, DWORD PTR _iconinfo$[ebp+16]
  0114b	50		 push	 eax
  0114c	ff 15 00 00 00
	00		 call	 DWORD PTR __imp__GetObjectA@12
  01152	3b f4		 cmp	 esi, esp
  01154	e8 00 00 00 00	 call	 __RTC_CheckEsp
  01159	85 c0		 test	 eax, eax
  0115b	0f 84 fe 01 00
	00		 je	 $L187540

; 280  :       {
; 281  :          CDC dc;

  01161	8d 4d a0	 lea	 ecx, DWORD PTR _dc$187541[ebp]
  01164	e8 00 00 00 00	 call	 ??0CDC@@QAE@XZ		; CDC::CDC
  01169	c7 45 fc 00 00
	00 00		 mov	 DWORD PTR __$EHRec$[ebp+8], 0

; 282  :          CDC dcTmp1;

  01170	8d 4d 88	 lea	 ecx, DWORD PTR _dcTmp1$187542[ebp]
  01173	e8 00 00 00 00	 call	 ??0CDC@@QAE@XZ		; CDC::CDC
  01178	c6 45 fc 01	 mov	 BYTE PTR __$EHRec$[ebp+8], 1

; 283  :          CDC dcTmp2;

  0117c	8d 8d 70 ff ff
	ff		 lea	 ecx, DWORD PTR _dcTmp2$187543[ebp]
  01182	e8 00 00 00 00	 call	 ??0CDC@@QAE@XZ		; CDC::CDC
  01187	c6 45 fc 02	 mov	 BYTE PTR __$EHRec$[ebp+8], 2

; 284  :          CBitmap bmpIcon;

  0118b	8d 8d 60 ff ff
	ff		 lea	 ecx, DWORD PTR _bmpIcon$187544[ebp]
  01191	e8 00 00 00 00	 call	 ??0CBitmap@@QAE@XZ	; CBitmap::CBitmap
  01196	c6 45 fc 03	 mov	 BYTE PTR __$EHRec$[ebp+8], 3

; 285  :          CBitmap bmpIconScaled;

  0119a	8d 8d 50 ff ff
	ff		 lea	 ecx, DWORD PTR _bmpIconScaled$187545[ebp]
  011a0	e8 00 00 00 00	 call	 ??0CBitmap@@QAE@XZ	; CBitmap::CBitmap
  011a5	c6 45 fc 04	 mov	 BYTE PTR __$EHRec$[ebp+8], 4

; 286  :          dc.Attach(::GetDC(NULL));

  011a9	8b f4		 mov	 esi, esp
  011ab	6a 00		 push	 0
  011ad	ff 15 00 00 00
	00		 call	 DWORD PTR __imp__GetDC@4
  011b3	3b f4		 cmp	 esi, esp
  011b5	e8 00 00 00 00	 call	 __RTC_CheckEsp
  011ba	50		 push	 eax
  011bb	8d 4d a0	 lea	 ecx, DWORD PTR _dc$187541[ebp]
  011be	e8 00 00 00 00	 call	 ?Attach@CDC@@QAEHPAUHDC__@@@Z ; CDC::Attach

; 287  :          dcTmp1.CreateCompatibleDC(&dc);

  011c3	8d 4d a0	 lea	 ecx, DWORD PTR _dc$187541[ebp]
  011c6	51		 push	 ecx
  011c7	8d 4d 88	 lea	 ecx, DWORD PTR _dcTmp1$187542[ebp]
  011ca	e8 00 00 00 00	 call	 ?CreateCompatibleDC@CDC@@QAEHPAV1@@Z ; CDC::CreateCompatibleDC

; 288  :          dcTmp2.CreateCompatibleDC(&dc);

  011cf	8d 55 a0	 lea	 edx, DWORD PTR _dc$187541[ebp]
  011d2	52		 push	 edx
  011d3	8d 8d 70 ff ff
	ff		 lea	 ecx, DWORD PTR _dcTmp2$187543[ebp]
  011d9	e8 00 00 00 00	 call	 ?CreateCompatibleDC@CDC@@QAEHPAV1@@Z ; CDC::CreateCompatibleDC

; 289  :          bmpIcon.CreateCompatibleBitmap(&dc, bm.bmWidth, bm.bmHeight);

  011de	8b 45 c0	 mov	 eax, DWORD PTR _bm$187538[ebp+8]
  011e1	50		 push	 eax
  011e2	8b 4d bc	 mov	 ecx, DWORD PTR _bm$187538[ebp+4]
  011e5	51		 push	 ecx
  011e6	8d 55 a0	 lea	 edx, DWORD PTR _dc$187541[ebp]
  011e9	52		 push	 edx
  011ea	8d 8d 60 ff ff
	ff		 lea	 ecx, DWORD PTR _bmpIcon$187544[ebp]
  011f0	e8 00 00 00 00	 call	 ?CreateCompatibleBitmap@CBitmap@@QAEHPAVCDC@@HH@Z ; CBitmap::CreateCompatibleBitmap

; 290  :          bmpIconScaled.CreateCompatibleBitmap(&dc, cx, cy);

  011f5	8b 45 10	 mov	 eax, DWORD PTR _cy$[ebp]
  011f8	50		 push	 eax
  011f9	8b 4d 0c	 mov	 ecx, DWORD PTR _cx$[ebp]
  011fc	51		 push	 ecx
  011fd	8d 55 a0	 lea	 edx, DWORD PTR _dc$187541[ebp]
  01200	52		 push	 edx
  01201	8d 8d 50 ff ff
	ff		 lea	 ecx, DWORD PTR _bmpIconScaled$187545[ebp]
  01207	e8 00 00 00 00	 call	 ?CreateCompatibleBitmap@CBitmap@@QAEHPAVCDC@@HH@Z ; CBitmap::CreateCompatibleBitmap

; 291  :          ::ReleaseDC(NULL, dc.Detach());

  0120c	8d 4d a0	 lea	 ecx, DWORD PTR _dc$187541[ebp]
  0120f	e8 00 00 00 00	 call	 ?Detach@CDC@@QAEPAUHDC__@@XZ ; CDC::Detach
  01214	8b f4		 mov	 esi, esp
  01216	50		 push	 eax
  01217	6a 00		 push	 0
  01219	ff 15 00 00 00
	00		 call	 DWORD PTR __imp__ReleaseDC@8
  0121f	3b f4		 cmp	 esi, esp
  01221	e8 00 00 00 00	 call	 __RTC_CheckEsp

; 292  : 
; 293  :          CBitmap* pbmpOld1 = dcTmp1.SelectObject(&bmpIcon);

  01226	8d 85 60 ff ff
	ff		 lea	 eax, DWORD PTR _bmpIcon$187544[ebp]
  0122c	50		 push	 eax
  0122d	8d 4d 88	 lea	 ecx, DWORD PTR _dcTmp1$187542[ebp]
  01230	e8 00 00 00 00	 call	 ?SelectObject@CDC@@QAEPAVCBitmap@@PAV2@@Z ; CDC::SelectObject
  01235	89 85 48 ff ff
	ff		 mov	 DWORD PTR _pbmpOld1$187546[ebp], eax

; 294  :          CBitmap* pbmpOld2 = dcTmp2.SelectObject(&bmpIconScaled);

  0123b	8d 8d 50 ff ff
	ff		 lea	 ecx, DWORD PTR _bmpIconScaled$187545[ebp]
  01241	51		 push	 ecx
  01242	8d 8d 70 ff ff
	ff		 lea	 ecx, DWORD PTR _dcTmp2$187543[ebp]
  01248	e8 00 00 00 00	 call	 ?SelectObject@CDC@@QAEPAVCBitmap@@PAV2@@Z ; CDC::SelectObject
  0124d	89 85 44 ff ff
	ff		 mov	 DWORD PTR _pbmpOld2$187547[ebp], eax

; 295  :          dcTmp1.FillSolidRect(0,0,bm.bmWidth,bm.bmHeight, m_crBackground);

  01253	8b 55 f0	 mov	 edx, DWORD PTR _this$[ebp]
  01256	8b 82 b4 00 00
	00		 mov	 eax, DWORD PTR [edx+180]
  0125c	50		 push	 eax
  0125d	8b 4d c0	 mov	 ecx, DWORD PTR _bm$187538[ebp+8]
  01260	51		 push	 ecx
  01261	8b 55 bc	 mov	 edx, DWORD PTR _bm$187538[ebp+4]
  01264	52		 push	 edx
  01265	6a 00		 push	 0
  01267	6a 00		 push	 0
  01269	8d 4d 88	 lea	 ecx, DWORD PTR _dcTmp1$187542[ebp]
  0126c	e8 00 00 00 00	 call	 ?FillSolidRect@CDC@@QAEXHHHHK@Z ; CDC::FillSolidRect

; 296  :          ::DrawIconEx(dcTmp1, 0,0,hIcon,bm.bmWidth,bm.bmHeight,0,NULL,DI_NORMAL);

  01271	8b f4		 mov	 esi, esp
  01273	6a 03		 push	 3
  01275	6a 00		 push	 0
  01277	6a 00		 push	 0
  01279	8b 45 c0	 mov	 eax, DWORD PTR _bm$187538[ebp+8]
  0127c	50		 push	 eax
  0127d	8b 4d bc	 mov	 ecx, DWORD PTR _bm$187538[ebp+4]
  01280	51		 push	 ecx
  01281	8b 55 08	 mov	 edx, DWORD PTR _hIcon$[ebp]
  01284	52		 push	 edx
  01285	6a 00		 push	 0
  01287	6a 00		 push	 0
  01289	8d 4d 88	 lea	 ecx, DWORD PTR _dcTmp1$187542[ebp]
  0128c	e8 00 00 00 00	 call	 ??BCDC@@QBEPAUHDC__@@XZ	; CDC::operator HDC__ *
  01291	50		 push	 eax
  01292	ff 15 00 00 00
	00		 call	 DWORD PTR __imp__DrawIconEx@36
  01298	3b f4		 cmp	 esi, esp
  0129a	e8 00 00 00 00	 call	 __RTC_CheckEsp

; 297  :          dcTmp2.SetStretchBltMode(HALFTONE);

  0129f	6a 04		 push	 4
  012a1	8d 8d 70 ff ff
	ff		 lea	 ecx, DWORD PTR _dcTmp2$187543[ebp]
  012a7	e8 00 00 00 00	 call	 ?SetStretchBltMode@CDC@@QAEHH@Z ; CDC::SetStretchBltMode

; 298  :          dcTmp2.StretchBlt(0,0,cx,cy,&dcTmp1, 0,0,bm.bmWidth,bm.bmHeight,SRCCOPY);

  012ac	68 20 00 cc 00	 push	 13369376		; 00cc0020H
  012b1	8b 45 c0	 mov	 eax, DWORD PTR _bm$187538[ebp+8]
  012b4	50		 push	 eax
  012b5	8b 4d bc	 mov	 ecx, DWORD PTR _bm$187538[ebp+4]
  012b8	51		 push	 ecx
  012b9	6a 00		 push	 0
  012bb	6a 00		 push	 0
  012bd	8d 55 88	 lea	 edx, DWORD PTR _dcTmp1$187542[ebp]
  012c0	52		 push	 edx
  012c1	8b 45 10	 mov	 eax, DWORD PTR _cy$[ebp]
  012c4	50		 push	 eax
  012c5	8b 4d 0c	 mov	 ecx, DWORD PTR _cx$[ebp]
  012c8	51		 push	 ecx
  012c9	6a 00		 push	 0
  012cb	6a 00		 push	 0
  012cd	8d 8d 70 ff ff
	ff		 lea	 ecx, DWORD PTR _dcTmp2$187543[ebp]
  012d3	e8 00 00 00 00	 call	 ?StretchBlt@CDC@@QAEHHHHHPAV1@HHHHK@Z ; CDC::StretchBlt

; 299  :          dcTmp1.SelectObject(pbmpOld1);

  012d8	8b 95 48 ff ff
	ff		 mov	 edx, DWORD PTR _pbmpOld1$187546[ebp]
  012de	52		 push	 edx
  012df	8d 4d 88	 lea	 ecx, DWORD PTR _dcTmp1$187542[ebp]
  012e2	e8 00 00 00 00	 call	 ?SelectObject@CDC@@QAEPAVCBitmap@@PAV2@@Z ; CDC::SelectObject

; 300  :          dcTmp2.SelectObject(pbmpOld2);

  012e7	8b 85 44 ff ff
	ff		 mov	 eax, DWORD PTR _pbmpOld2$187547[ebp]
  012ed	50		 push	 eax
  012ee	8d 8d 70 ff ff
	ff		 lea	 ecx, DWORD PTR _dcTmp2$187543[ebp]
  012f4	e8 00 00 00 00	 call	 ?SelectObject@CDC@@QAEPAVCBitmap@@PAV2@@Z ; CDC::SelectObject

; 301  : 
; 302  :          SetIcon(bmpIconScaled, m_crBackground);

  012f9	8b 4d f0	 mov	 ecx, DWORD PTR _this$[ebp]
  012fc	8b 91 b4 00 00
	00		 mov	 edx, DWORD PTR [ecx+180]
  01302	52		 push	 edx
  01303	8d 8d 50 ff ff
	ff		 lea	 ecx, DWORD PTR _bmpIconScaled$187545[ebp]
  01309	e8 00 00 00 00	 call	 ??BCBitmap@@QBEPAUHBITMAP__@@XZ ; CBitmap::operator HBITMAP__ *
  0130e	50		 push	 eax
  0130f	8b 4d f0	 mov	 ecx, DWORD PTR _this$[ebp]
  01312	e8 00 00 00 00	 call	 ?SetIcon@CBalloonHelp@@QAEXPAUHBITMAP__@@K@Z ; CBalloonHelp::SetIcon

; 303  :       }

  01317	c6 45 fc 03	 mov	 BYTE PTR __$EHRec$[ebp+8], 3
  0131b	8d 8d 50 ff ff
	ff		 lea	 ecx, DWORD PTR _bmpIconScaled$187545[ebp]
  01321	e8 00 00 00 00	 call	 ??1CBitmap@@UAE@XZ	; CBitmap::~CBitmap
  01326	c6 45 fc 02	 mov	 BYTE PTR __$EHRec$[ebp+8], 2
  0132a	8d 8d 60 ff ff
	ff		 lea	 ecx, DWORD PTR _bmpIcon$187544[ebp]
  01330	e8 00 00 00 00	 call	 ??1CBitmap@@UAE@XZ	; CBitmap::~CBitmap
  01335	c6 45 fc 01	 mov	 BYTE PTR __$EHRec$[ebp+8], 1
  01339	8d 8d 70 ff ff
	ff		 lea	 ecx, DWORD PTR _dcTmp2$187543[ebp]
  0133f	e8 00 00 00 00	 call	 ??1CDC@@UAE@XZ		; CDC::~CDC
  01344	c6 45 fc 00	 mov	 BYTE PTR __$EHRec$[ebp+8], 0
  01348	8d 4d 88	 lea	 ecx, DWORD PTR _dcTmp1$187542[ebp]
  0134b	e8 00 00 00 00	 call	 ??1CDC@@UAE@XZ		; CDC::~CDC
  01350	c7 45 fc ff ff
	ff ff		 mov	 DWORD PTR __$EHRec$[ebp+8], -1
  01357	8d 4d a0	 lea	 ecx, DWORD PTR _dc$187541[ebp]
  0135a	e8 00 00 00 00	 call	 ??1CDC@@UAE@XZ		; CDC::~CDC
$L187540:

; 304  :       ::DeleteObject(iconinfo.hbmColor);

  0135f	8b f4		 mov	 esi, esp
  01361	8b 45 e8	 mov	 eax, DWORD PTR _iconinfo$[ebp+16]
  01364	50		 push	 eax
  01365	ff 15 00 00 00
	00		 call	 DWORD PTR __imp__DeleteObject@4
  0136b	3b f4		 cmp	 esi, esp
  0136d	e8 00 00 00 00	 call	 __RTC_CheckEsp

; 305  :       ::DeleteObject(iconinfo.hbmMask);

  01372	8b f4		 mov	 esi, esp
  01374	8b 4d e4	 mov	 ecx, DWORD PTR _iconinfo$[ebp+12]
  01377	51		 push	 ecx
  01378	ff 15 00 00 00
	00		 call	 DWORD PTR __imp__DeleteObject@4
  0137e	3b f4		 cmp	 esi, esp
  01380	e8 00 00 00 00	 call	 __RTC_CheckEsp
$L187535:

; 306  :    }
; 307  : }

  01385	52		 push	 edx
  01386	8b cd		 mov	 ecx, ebp
  01388	50		 push	 eax
  01389	8d 15 00 00 00
	00		 lea	 edx, DWORD PTR $L188847
  0138f	e8 00 00 00 00	 call	 @_RTC_CheckStackVars@8
  01394	58		 pop	 eax
  01395	5a		 pop	 edx
  01396	8b 4d f4	 mov	 ecx, DWORD PTR __$EHRec$[ebp]
  01399	64 89 0d 00 00
	00 00		 mov	 DWORD PTR fs:__except_list, ecx
  013a0	5f		 pop	 edi
  013a1	5e		 pop	 esi
  013a2	81 c4 bc 00 00
	00		 add	 esp, 188		; 000000bcH
  013a8	3b ec		 cmp	 ebp, esp
  013aa	e8 00 00 00 00	 call	 __RTC_CheckEsp
  013af	8b e5		 mov	 esp, ebp
  013b1	5d		 pop	 ebp
  013b2	c2 0c 00	 ret	 12			; 0000000cH
$L188847:
  013b5	07 00 00 00	 DD	 7
  013b9	00 00 00 00	 DD	 $L188846
$L188846:
  013bd	d8 ff ff ff	 DD	 -40			; ffffffd8H
  013c1	14 00 00 00	 DD	 20			; 00000014H
  013c5	00 00 00 00	 DD	 $L188838
  013c9	b8 ff ff ff	 DD	 -72			; ffffffb8H
  013cd	18 00 00 00	 DD	 24			; 00000018H
  013d1	00 00 00 00	 DD	 $L188839
  013d5	a0 ff ff ff	 DD	 -96			; ffffffa0H
  013d9	10 00 00 00	 DD	 16			; 00000010H
  013dd	00 00 00 00	 DD	 $L188840
  013e1	88 ff ff ff	 DD	 -120			; ffffff88H
  013e5	10 00 00 00	 DD	 16			; 00000010H
  013e9	00 00 00 00	 DD	 $L188841
  013ed	70 ff ff ff	 DD	 -144			; ffffff70H
  013f1	10 00 00 00	 DD	 16			; 00000010H
  013f5	00 00 00 00	 DD	 $L188842
  013f9	60 ff ff ff	 DD	 -160			; ffffff60H
  013fd	08 00 00 00	 DD	 8
  01401	00 00 00 00	 DD	 $L188843
  01405	50 ff ff ff	 DD	 -176			; ffffff50H
  01409	08 00 00 00	 DD	 8
  0140d	00 00 00 00	 DD	 $L188844
$L188844:
  01411	62		 DB	 98			; 00000062H
  01412	6d		 DB	 109			; 0000006dH
  01413	70		 DB	 112			; 00000070H
  01414	49		 DB	 73			; 00000049H
  01415	63		 DB	 99			; 00000063H
  01416	6f		 DB	 111			; 0000006fH
  01417	6e		 DB	 110			; 0000006eH
  01418	53		 DB	 83			; 00000053H
  01419	63		 DB	 99			; 00000063H
  0141a	61		 DB	 97			; 00000061H
  0141b	6c		 DB	 108			; 0000006cH
  0141c	65		 DB	 101			; 00000065H
  0141d	64		 DB	 100			; 00000064H
  0141e	00		 DB	 0
$L188843:
  0141f	62		 DB	 98			; 00000062H
  01420	6d		 DB	 109			; 0000006dH
  01421	70		 DB	 112			; 00000070H
  01422	49		 DB	 73			; 00000049H
  01423	63		 DB	 99			; 00000063H
  01424	6f		 DB	 111			; 0000006fH
  01425	6e		 DB	 110			; 0000006eH
  01426	00		 DB	 0
$L188842:
  01427	64		 DB	 100			; 00000064H
  01428	63		 DB	 99			; 00000063H
  01429	54		 DB	 84			; 00000054H
  0142a	6d		 DB	 109			; 0000006dH
  0142b	70		 DB	 112			; 00000070H
  0142c	32		 DB	 50			; 00000032H
  0142d	00		 DB	 0
$L188841:
  0142e	64		 DB	 100			; 00000064H
  0142f	63		 DB	 99			; 00000063H
  01430	54		 DB	 84			; 00000054H
  01431	6d		 DB	 109			; 0000006dH
  01432	70		 DB	 112			; 00000070H
  01433	31		 DB	 49			; 00000031H
  01434	00		 DB	 0
$L188840:
  01435	64		 DB	 100			; 00000064H
  01436	63		 DB	 99			; 00000063H
  01437	00		 DB	 0
$L188839:
  01438	62		 DB	 98			; 00000062H
  01439	6d		 DB	 109			; 0000006dH
  0143a	00		 DB	 0
$L188838:
  0143b	69		 DB	 105			; 00000069H
  0143c	63		 DB	 99			; 00000063H
  0143d	6f		 DB	 111			; 0000006fH
  0143e	6e		 DB	 110			; 0000006eH
  0143f	69		 DB	 105			; 00000069H
  01440	6e		 DB	 110			; 0000006eH
  01441	66		 DB	 102			; 00000066H
  01442	6f		 DB	 111			; 0000006fH
  01443	00		 DB	 0
_TEXT	ENDS
text$x	SEGMENT
$L188831:
  000ec	8d 4d a0	 lea	 ecx, DWORD PTR _dc$187541[ebp]
  000ef	e9 00 00 00 00	 jmp	 ??1CDC@@UAE@XZ		; CDC::~CDC
$L188832:
  000f4	8d 4d 88	 lea	 ecx, DWORD PTR _dcTmp1$187542[ebp]
  000f7	e9 00 00 00 00	 jmp	 ??1CDC@@UAE@XZ		; CDC::~CDC
$L188833:
  000fc	8d 8d 70 ff ff
	ff		 lea	 ecx, DWORD PTR _dcTmp2$187543[ebp]
  00102	e9 00 00 00 00	 jmp	 ??1CDC@@UAE@XZ		; CDC::~CDC
$L188834:
  00107	8d 8d 60 ff ff
	ff		 lea	 ecx, DWORD PTR _bmpIcon$187544[ebp]
  0010d	e9 00 00 00 00	 jmp	 ??1CBitmap@@UAE@XZ	; CBitmap::~CBitmap
$L188835:
  00112	8d 8d 50 ff ff
	ff		 lea	 ecx, DWORD PTR _bmpIconScaled$187545[ebp]
  00118	e9 00 00 00 00	 jmp	 ??1CBitmap@@UAE@XZ	; CBitmap::~CBitmap
__ehhandler$?SetIconScaled@CBalloonHelp@@QAEXPAUHICON__@@HH@Z:
  0011d	b8 00 00 00 00	 mov	 eax, OFFSET FLAT:$T188837
  00122	e9 00 00 00 00	 jmp	 ___CxxFrameHandler
text$x	ENDS
?SetIconScaled@CBalloonHelp@@QAEXPAUHICON__@@HH@Z ENDP	; CBalloonHelp::SetIconScaled
EXTRN	?FromHandle@CBitmap@@SGPAV1@PAUHBITMAP__@@@Z:NEAR ; CBitmap::FromHandle
EXTRN	?Create@CImageList@@QAEHHHIHH@Z:NEAR		; CImageList::Create
EXTRN	?Add@CImageList@@QAEHPAVCBitmap@@K@Z:NEAR	; CImageList::Add
; Function compile flags: /Odt /RTCsu
_TEXT	SEGMENT
_bm$187556 = -32					; size = 24
_this$ = -4						; size = 4
_hBitmap$ = 8						; size = 4
_crMask$ = 12						; size = 4
?SetIcon@CBalloonHelp@@QAEXPAUHBITMAP__@@K@Z PROC NEAR	; CBalloonHelp::SetIcon
; _this$ = ecx

; 311  : {

  01450	55		 push	 ebp
  01451	8b ec		 mov	 ebp, esp
  01453	83 ec 24	 sub	 esp, 36			; 00000024H
  01456	56		 push	 esi
  01457	b8 cc cc cc cc	 mov	 eax, -858993460		; ccccccccH
  0145c	89 45 dc	 mov	 DWORD PTR [ebp-36], eax
  0145f	89 45 e0	 mov	 DWORD PTR [ebp-32], eax
  01462	89 45 e4	 mov	 DWORD PTR [ebp-28], eax
  01465	89 45 e8	 mov	 DWORD PTR [ebp-24], eax
  01468	89 45 ec	 mov	 DWORD PTR [ebp-20], eax
  0146b	89 45 f0	 mov	 DWORD PTR [ebp-16], eax
  0146e	89 45 f4	 mov	 DWORD PTR [ebp-12], eax
  01471	89 45 f8	 mov	 DWORD PTR [ebp-8], eax
  01474	89 45 fc	 mov	 DWORD PTR [ebp-4], eax
  01477	89 4d fc	 mov	 DWORD PTR _this$[ebp], ecx

; 312  :    if ( NULL != m_ilIcon.m_hImageList )

  0147a	8b 45 fc	 mov	 eax, DWORD PTR _this$[ebp]
  0147d	83 b8 a8 00 00
	00 00		 cmp	 DWORD PTR [eax+168], 0
  01484	74 0e		 je	 SHORT $L187554

; 313  :       m_ilIcon.DeleteImageList();

  01486	8b 4d fc	 mov	 ecx, DWORD PTR _this$[ebp]
  01489	81 c1 a4 00 00
	00		 add	 ecx, 164		; 000000a4H
  0148f	e8 00 00 00 00	 call	 ?DeleteImageList@CImageList@@QAEHXZ ; CImageList::DeleteImageList
$L187554:

; 314  : 
; 315  :    if ( NULL != hBitmap )

  01494	83 7d 08 00	 cmp	 DWORD PTR _hBitmap$[ebp], 0
  01498	74 55		 je	 SHORT $L187555

; 316  :    {
; 317  :       BITMAP bm;
; 318  :       if (::GetObject(hBitmap, sizeof(bm),(LPVOID)&bm))

  0149a	8b f4		 mov	 esi, esp
  0149c	8d 4d e0	 lea	 ecx, DWORD PTR _bm$187556[ebp]
  0149f	51		 push	 ecx
  014a0	6a 18		 push	 24			; 00000018H
  014a2	8b 55 08	 mov	 edx, DWORD PTR _hBitmap$[ebp]
  014a5	52		 push	 edx
  014a6	ff 15 00 00 00
	00		 call	 DWORD PTR __imp__GetObjectA@12
  014ac	3b f4		 cmp	 esi, esp
  014ae	e8 00 00 00 00	 call	 __RTC_CheckEsp
  014b3	85 c0		 test	 eax, eax
  014b5	74 38		 je	 SHORT $L187555

; 319  :       {
; 320  :          m_ilIcon.Create(bm.bmWidth, bm.bmHeight, ILC_COLOR24|ILC_MASK,1,0);

  014b7	6a 00		 push	 0
  014b9	6a 01		 push	 1
  014bb	6a 19		 push	 25			; 00000019H
  014bd	8b 45 e8	 mov	 eax, DWORD PTR _bm$187556[ebp+8]
  014c0	50		 push	 eax
  014c1	8b 4d e4	 mov	 ecx, DWORD PTR _bm$187556[ebp+4]
  014c4	51		 push	 ecx
  014c5	8b 4d fc	 mov	 ecx, DWORD PTR _this$[ebp]
  014c8	81 c1 a4 00 00
	00		 add	 ecx, 164		; 000000a4H
  014ce	e8 00 00 00 00	 call	 ?Create@CImageList@@QAEHHHIHH@Z ; CImageList::Create

; 321  :          m_ilIcon.Add(CBitmap::FromHandle(hBitmap), crMask);

  014d3	8b 55 0c	 mov	 edx, DWORD PTR _crMask$[ebp]
  014d6	52		 push	 edx
  014d7	8b 45 08	 mov	 eax, DWORD PTR _hBitmap$[ebp]
  014da	50		 push	 eax
  014db	e8 00 00 00 00	 call	 ?FromHandle@CBitmap@@SGPAV1@PAUHBITMAP__@@@Z ; CBitmap::FromHandle
  014e0	50		 push	 eax
  014e1	8b 4d fc	 mov	 ecx, DWORD PTR _this$[ebp]
  014e4	81 c1 a4 00 00
	00		 add	 ecx, 164		; 000000a4H
  014ea	e8 00 00 00 00	 call	 ?Add@CImageList@@QAEHPAVCBitmap@@K@Z ; CImageList::Add
$L187555:

; 322  :       }
; 323  :    }
; 324  :    // if already visible, resize & move (icon size may have changed)
; 325  :    if ( NULL != m_hWnd )

  014ef	8b 4d fc	 mov	 ecx, DWORD PTR _this$[ebp]
  014f2	83 79 20 00	 cmp	 DWORD PTR [ecx+32], 0
  014f6	74 08		 je	 SHORT $L187553

; 326  :       PositionWindow();

  014f8	8b 4d fc	 mov	 ecx, DWORD PTR _this$[ebp]
  014fb	e8 00 00 00 00	 call	 ?PositionWindow@CBalloonHelp@@IAEXXZ ; CBalloonHelp::PositionWindow
$L187553:

; 327  : }

  01500	52		 push	 edx
  01501	8b cd		 mov	 ecx, ebp
  01503	50		 push	 eax
  01504	8d 15 00 00 00
	00		 lea	 edx, DWORD PTR $L188852
  0150a	e8 00 00 00 00	 call	 @_RTC_CheckStackVars@8
  0150f	58		 pop	 eax
  01510	5a		 pop	 edx
  01511	5e		 pop	 esi
  01512	83 c4 24	 add	 esp, 36			; 00000024H
  01515	3b ec		 cmp	 ebp, esp
  01517	e8 00 00 00 00	 call	 __RTC_CheckEsp
  0151c	8b e5		 mov	 esp, ebp
  0151e	5d		 pop	 ebp
  0151f	c2 08 00	 ret	 8
$L188852:
  01522	01 00 00 00	 DD	 1
  01526	00 00 00 00	 DD	 $L188851
$L188851:
  0152a	e0 ff ff ff	 DD	 -32			; ffffffe0H
  0152e	18 00 00 00	 DD	 24			; 00000018H
  01532	00 00 00 00	 DD	 $L188850
$L188850:
  01536	62		 DB	 98			; 00000062H
  01537	6d		 DB	 109			; 0000006dH
  01538	00		 DB	 0
?SetIcon@CBalloonHelp@@QAEXPAUHBITMAP__@@K@Z ENDP	; CBalloonHelp::SetIcon
_TEXT	ENDS
EXTRN	?AfxAssertFailedLine@@YGHPBDH@Z:NEAR		; AfxAssertFailedLine
EXTRN	?Add@CImageList@@QAEHPAVCBitmap@@0@Z:NEAR	; CImageList::Add
; Function compile flags: /Odt /RTCsu
_TEXT	SEGMENT
_bm$ = -32						; size = 24
_this$ = -4						; size = 4
_hBitmap$ = 8						; size = 4
_hMask$ = 12						; size = 4
?SetIcon@CBalloonHelp@@QAEXPAUHBITMAP__@@0@Z PROC NEAR	; CBalloonHelp::SetIcon
; _this$ = ecx

; 331  : {

  01540	55		 push	 ebp
  01541	8b ec		 mov	 ebp, esp
  01543	83 ec 24	 sub	 esp, 36			; 00000024H
  01546	56		 push	 esi
  01547	b8 cc cc cc cc	 mov	 eax, -858993460		; ccccccccH
  0154c	89 45 dc	 mov	 DWORD PTR [ebp-36], eax
  0154f	89 45 e0	 mov	 DWORD PTR [ebp-32], eax
  01552	89 45 e4	 mov	 DWORD PTR [ebp-28], eax
  01555	89 45 e8	 mov	 DWORD PTR [ebp-24], eax
  01558	89 45 ec	 mov	 DWORD PTR [ebp-20], eax
  0155b	89 45 f0	 mov	 DWORD PTR [ebp-16], eax
  0155e	89 45 f4	 mov	 DWORD PTR [ebp-12], eax
  01561	89 45 f8	 mov	 DWORD PTR [ebp-8], eax
  01564	89 45 fc	 mov	 DWORD PTR [ebp-4], eax
  01567	89 4d fc	 mov	 DWORD PTR _this$[ebp], ecx

; 332  :    if ( NULL != m_ilIcon.m_hImageList )

  0156a	8b 45 fc	 mov	 eax, DWORD PTR _this$[ebp]
  0156d	83 b8 a8 00 00
	00 00		 cmp	 DWORD PTR [eax+168], 0
  01574	74 0e		 je	 SHORT $L187565

; 333  :       m_ilIcon.DeleteImageList();

  01576	8b 4d fc	 mov	 ecx, DWORD PTR _this$[ebp]
  01579	81 c1 a4 00 00
	00		 add	 ecx, 164		; 000000a4H
  0157f	e8 00 00 00 00	 call	 ?DeleteImageList@CImageList@@QAEHXZ ; CImageList::DeleteImageList
$L187565:

; 334  : 
; 335  :    ASSERT(NULL != hBitmap);

  01584	83 7d 08 00	 cmp	 DWORD PTR _hBitmap$[ebp], 0
  01588	75 14		 jne	 SHORT $L188854
  0158a	68 4f 01 00 00	 push	 335			; 0000014fH
  0158f	68 00 00 00 00	 push	 OFFSET FLAT:_THIS_FILE
  01594	e8 00 00 00 00	 call	 ?AfxAssertFailedLine@@YGHPBDH@Z ; AfxAssertFailedLine
  01599	85 c0		 test	 eax, eax
  0159b	74 01		 je	 SHORT $L188854
  0159d	cc		 int	 3
$L188854:

; 336  :    ASSERT(NULL != hMask);

  0159e	83 7d 0c 00	 cmp	 DWORD PTR _hMask$[ebp], 0
  015a2	75 14		 jne	 SHORT $L188855
  015a4	68 50 01 00 00	 push	 336			; 00000150H
  015a9	68 00 00 00 00	 push	 OFFSET FLAT:_THIS_FILE
  015ae	e8 00 00 00 00	 call	 ?AfxAssertFailedLine@@YGHPBDH@Z ; AfxAssertFailedLine
  015b3	85 c0		 test	 eax, eax
  015b5	74 01		 je	 SHORT $L188855
  015b7	cc		 int	 3
$L188855:

; 337  : 
; 338  :    BITMAP bm;
; 339  :    if (::GetObject(hBitmap, sizeof(bm),(LPVOID)&bm))

  015b8	8b f4		 mov	 esi, esp
  015ba	8d 45 e0	 lea	 eax, DWORD PTR _bm$[ebp]
  015bd	50		 push	 eax
  015be	6a 18		 push	 24			; 00000018H
  015c0	8b 4d 08	 mov	 ecx, DWORD PTR _hBitmap$[ebp]
  015c3	51		 push	 ecx
  015c4	ff 15 00 00 00
	00		 call	 DWORD PTR __imp__GetObjectA@12
  015ca	3b f4		 cmp	 esi, esp
  015cc	e8 00 00 00 00	 call	 __RTC_CheckEsp
  015d1	85 c0		 test	 eax, eax
  015d3	74 3e		 je	 SHORT $L187570

; 340  :    {
; 341  :       m_ilIcon.Create(bm.bmWidth, bm.bmHeight, ILC_COLOR24|ILC_MASK,1,0);

  015d5	6a 00		 push	 0
  015d7	6a 01		 push	 1
  015d9	6a 19		 push	 25			; 00000019H
  015db	8b 55 e8	 mov	 edx, DWORD PTR _bm$[ebp+8]
  015de	52		 push	 edx
  015df	8b 45 e4	 mov	 eax, DWORD PTR _bm$[ebp+4]
  015e2	50		 push	 eax
  015e3	8b 4d fc	 mov	 ecx, DWORD PTR _this$[ebp]
  015e6	81 c1 a4 00 00
	00		 add	 ecx, 164		; 000000a4H
  015ec	e8 00 00 00 00	 call	 ?Create@CImageList@@QAEHHHIHH@Z ; CImageList::Create

; 342  :       m_ilIcon.Add(CBitmap::FromHandle(hBitmap), CBitmap::FromHandle(hMask));

  015f1	8b 4d 0c	 mov	 ecx, DWORD PTR _hMask$[ebp]
  015f4	51		 push	 ecx
  015f5	e8 00 00 00 00	 call	 ?FromHandle@CBitmap@@SGPAV1@PAUHBITMAP__@@@Z ; CBitmap::FromHandle
  015fa	50		 push	 eax
  015fb	8b 55 08	 mov	 edx, DWORD PTR _hBitmap$[ebp]
  015fe	52		 push	 edx
  015ff	e8 00 00 00 00	 call	 ?FromHandle@CBitmap@@SGPAV1@PAUHBITMAP__@@@Z ; CBitmap::FromHandle
  01604	50		 push	 eax
  01605	8b 4d fc	 mov	 ecx, DWORD PTR _this$[ebp]
  01608	81 c1 a4 00 00
	00		 add	 ecx, 164		; 000000a4H
  0160e	e8 00 00 00 00	 call	 ?Add@CImageList@@QAEHPAVCBitmap@@0@Z ; CImageList::Add
$L187570:

; 343  :    }
; 344  :    // if already visible, resize & move (icon size may have changed)
; 345  :    if ( NULL != m_hWnd )

  01613	8b 45 fc	 mov	 eax, DWORD PTR _this$[ebp]
  01616	83 78 20 00	 cmp	 DWORD PTR [eax+32], 0
  0161a	74 08		 je	 SHORT $L187564

; 346  :       PositionWindow();

  0161c	8b 4d fc	 mov	 ecx, DWORD PTR _this$[ebp]
  0161f	e8 00 00 00 00	 call	 ?PositionWindow@CBalloonHelp@@IAEXXZ ; CBalloonHelp::PositionWindow
$L187564:

; 347  : }

  01624	52		 push	 edx
  01625	8b cd		 mov	 ecx, ebp
  01627	50		 push	 eax
  01628	8d 15 00 00 00
	00		 lea	 edx, DWORD PTR $L188858
  0162e	e8 00 00 00 00	 call	 @_RTC_CheckStackVars@8
  01633	58		 pop	 eax
  01634	5a		 pop	 edx
  01635	5e		 pop	 esi
  01636	83 c4 24	 add	 esp, 36			; 00000024H
  01639	3b ec		 cmp	 ebp, esp
  0163b	e8 00 00 00 00	 call	 __RTC_CheckEsp
  01640	8b e5		 mov	 esp, ebp
  01642	5d		 pop	 ebp
  01643	c2 08 00	 ret	 8
$L188858:
  01646	01 00 00 00	 DD	 1
  0164a	00 00 00 00	 DD	 $L188857
$L188857:
  0164e	e0 ff ff ff	 DD	 -32			; ffffffe0H
  01652	18 00 00 00	 DD	 24			; 00000018H
  01656	00 00 00 00	 DD	 $L188856
$L188856:
  0165a	62		 DB	 98			; 00000062H
  0165b	6d		 DB	 109			; 0000006dH
  0165c	00		 DB	 0
?SetIcon@CBalloonHelp@@QAEXPAUHBITMAP__@@0@Z ENDP	; CBalloonHelp::SetIcon
_TEXT	ENDS
PUBLIC	?SetIcon@CBalloonHelp@@QAEXPAVCImageList@@H@Z	; CBalloonHelp::SetIcon
EXTRN	?AfxAssertValidObject@@YGXPBVCObject@@PBDH@Z:NEAR ; AfxAssertValidObject
EXTRN	__imp__DestroyIcon@4:NEAR
EXTRN	?GetImageCount@CImageList@@QBEHXZ:NEAR		; CImageList::GetImageCount
EXTRN	?ExtractIconA@CImageList@@QAEPAUHICON__@@H@Z:NEAR ; CImageList::ExtractIconA
; Function compile flags: /Odt /RTCsu
_TEXT	SEGMENT
_hIcon$ = -8						; size = 4
_this$ = -4						; size = 4
_pImageList$ = 8					; size = 4
_nIconIndex$ = 12					; size = 4
?SetIcon@CBalloonHelp@@QAEXPAVCImageList@@H@Z PROC NEAR	; CBalloonHelp::SetIcon
; _this$ = ecx

; 351  : {

  01660	55		 push	 ebp
  01661	8b ec		 mov	 ebp, esp
  01663	83 ec 08	 sub	 esp, 8
  01666	56		 push	 esi
  01667	c7 45 f8 cc cc
	cc cc		 mov	 DWORD PTR [ebp-8], -858993460 ; ccccccccH
  0166e	c7 45 fc cc cc
	cc cc		 mov	 DWORD PTR [ebp-4], -858993460 ; ccccccccH
  01675	89 4d fc	 mov	 DWORD PTR _this$[ebp], ecx

; 352  :    // sanity checks
; 353  :    ASSERT_VALID(pImageList);

  01678	68 61 01 00 00	 push	 353			; 00000161H
  0167d	68 00 00 00 00	 push	 OFFSET FLAT:_THIS_FILE
  01682	8b 45 08	 mov	 eax, DWORD PTR _pImageList$[ebp]
  01685	50		 push	 eax
  01686	e8 00 00 00 00	 call	 ?AfxAssertValidObject@@YGXPBVCObject@@PBDH@Z ; AfxAssertValidObject

; 354  :    ASSERT(nIconIndex >= 0 && nIconIndex < pImageList->GetImageCount() );

  0168b	83 7d 0c 00	 cmp	 DWORD PTR _nIconIndex$[ebp], 0
  0168f	7c 0d		 jl	 SHORT $L188860
  01691	8b 4d 08	 mov	 ecx, DWORD PTR _pImageList$[ebp]
  01694	e8 00 00 00 00	 call	 ?GetImageCount@CImageList@@QBEHXZ ; CImageList::GetImageCount
  01699	39 45 0c	 cmp	 DWORD PTR _nIconIndex$[ebp], eax
  0169c	7c 14		 jl	 SHORT $L188861
$L188860:
  0169e	68 62 01 00 00	 push	 354			; 00000162H
  016a3	68 00 00 00 00	 push	 OFFSET FLAT:_THIS_FILE
  016a8	e8 00 00 00 00	 call	 ?AfxAssertFailedLine@@YGHPBDH@Z ; AfxAssertFailedLine
  016ad	85 c0		 test	 eax, eax
  016af	74 01		 je	 SHORT $L188861
  016b1	cc		 int	 3
$L188861:

; 355  : 
; 356  :    HICON hIcon = NULL;

  016b2	c7 45 f8 00 00
	00 00		 mov	 DWORD PTR _hIcon$[ebp], 0

; 357  :    if ( NULL != pImageList && nIconIndex >= 0 && nIconIndex < pImageList->GetImageCount() )

  016b9	83 7d 08 00	 cmp	 DWORD PTR _pImageList$[ebp], 0
  016bd	74 22		 je	 SHORT $L187579
  016bf	83 7d 0c 00	 cmp	 DWORD PTR _nIconIndex$[ebp], 0
  016c3	7c 1c		 jl	 SHORT $L187579
  016c5	8b 4d 08	 mov	 ecx, DWORD PTR _pImageList$[ebp]
  016c8	e8 00 00 00 00	 call	 ?GetImageCount@CImageList@@QBEHXZ ; CImageList::GetImageCount
  016cd	39 45 0c	 cmp	 DWORD PTR _nIconIndex$[ebp], eax
  016d0	7d 0f		 jge	 SHORT $L187579

; 358  :       hIcon = pImageList->ExtractIcon(nIconIndex);

  016d2	8b 55 0c	 mov	 edx, DWORD PTR _nIconIndex$[ebp]
  016d5	52		 push	 edx
  016d6	8b 4d 08	 mov	 ecx, DWORD PTR _pImageList$[ebp]
  016d9	e8 00 00 00 00	 call	 ?ExtractIconA@CImageList@@QAEPAUHICON__@@H@Z ; CImageList::ExtractIconA
  016de	89 45 f8	 mov	 DWORD PTR _hIcon$[ebp], eax
$L187579:

; 359  :    SetIcon(hIcon);

  016e1	8b 45 f8	 mov	 eax, DWORD PTR _hIcon$[ebp]
  016e4	50		 push	 eax
  016e5	8b 4d fc	 mov	 ecx, DWORD PTR _this$[ebp]
  016e8	e8 00 00 00 00	 call	 ?SetIcon@CBalloonHelp@@QAEXPAUHICON__@@@Z ; CBalloonHelp::SetIcon

; 360  :    if ( NULL != hIcon )

  016ed	83 7d f8 00	 cmp	 DWORD PTR _hIcon$[ebp], 0
  016f1	74 13		 je	 SHORT $L187580

; 361  :       ::DestroyIcon(hIcon);

  016f3	8b f4		 mov	 esi, esp
  016f5	8b 4d f8	 mov	 ecx, DWORD PTR _hIcon$[ebp]
  016f8	51		 push	 ecx
  016f9	ff 15 00 00 00
	00		 call	 DWORD PTR __imp__DestroyIcon@4
  016ff	3b f4		 cmp	 esi, esp
  01701	e8 00 00 00 00	 call	 __RTC_CheckEsp
$L187580:

; 362  :    // if already visible, resize & move (icon size may have changed)
; 363  :    if ( NULL != m_hWnd )

  01706	8b 55 fc	 mov	 edx, DWORD PTR _this$[ebp]
  01709	83 7a 20 00	 cmp	 DWORD PTR [edx+32], 0
  0170d	74 08		 je	 SHORT $L187576

; 364  :       PositionWindow();

  0170f	8b 4d fc	 mov	 ecx, DWORD PTR _this$[ebp]
  01712	e8 00 00 00 00	 call	 ?PositionWindow@CBalloonHelp@@IAEXXZ ; CBalloonHelp::PositionWindow
$L187576:

; 365  : }

  01717	5e		 pop	 esi
  01718	83 c4 08	 add	 esp, 8
  0171b	3b ec		 cmp	 ebp, esp
  0171d	e8 00 00 00 00	 call	 __RTC_CheckEsp
  01722	8b e5		 mov	 esp, ebp
  01724	5d		 pop	 ebp
  01725	c2 08 00	 ret	 8
?SetIcon@CBalloonHelp@@QAEXPAVCImageList@@H@Z ENDP	; CBalloonHelp::SetIcon
_TEXT	ENDS
PUBLIC	?SetURL@CBalloonHelp@@QAEXABV?$CStringT@DV?$StrTraitMFC_DLL@DV?$ChTraitsCRT@D@ATL@@@@@ATL@@@Z ; CBalloonHelp::SetURL
EXTRN	__imp_??4?$CStringT@DV?$StrTraitMFC_DLL@DV?$ChTraitsCRT@D@ATL@@@@@ATL@@QAEAAV01@ABV01@@Z:NEAR
; Function compile flags: /Odt /RTCsu
_TEXT	SEGMENT
_this$ = -4						; size = 4
_strURL$ = 8						; size = 4
?SetURL@CBalloonHelp@@QAEXABV?$CStringT@DV?$StrTraitMFC_DLL@DV?$ChTraitsCRT@D@ATL@@@@@ATL@@@Z PROC NEAR ; CBalloonHelp::SetURL
; _this$ = ecx

; 369  : {

  01730	55		 push	 ebp
  01731	8b ec		 mov	 ebp, esp
  01733	51		 push	 ecx
  01734	56		 push	 esi
  01735	c7 45 fc cc cc
	cc cc		 mov	 DWORD PTR [ebp-4], -858993460 ; ccccccccH
  0173c	89 4d fc	 mov	 DWORD PTR _this$[ebp], ecx

; 370  :    m_strURL = strURL;

  0173f	8b f4		 mov	 esi, esp
  01741	8b 45 08	 mov	 eax, DWORD PTR _strURL$[ebp]
  01744	50		 push	 eax
  01745	8b 4d fc	 mov	 ecx, DWORD PTR _this$[ebp]
  01748	81 c1 94 00 00
	00		 add	 ecx, 148		; 00000094H
  0174e	ff 15 00 00 00
	00		 call	 DWORD PTR __imp_??4?$CStringT@DV?$StrTraitMFC_DLL@DV?$ChTraitsCRT@D@ATL@@@@@ATL@@QAEAAV01@ABV01@@Z
  01754	3b f4		 cmp	 esi, esp
  01756	e8 00 00 00 00	 call	 __RTC_CheckEsp

; 371  : }

  0175b	5e		 pop	 esi
  0175c	83 c4 04	 add	 esp, 4
  0175f	3b ec		 cmp	 ebp, esp
  01761	e8 00 00 00 00	 call	 __RTC_CheckEsp
  01766	8b e5		 mov	 esp, ebp
  01768	5d		 pop	 ebp
  01769	c2 04 00	 ret	 4
?SetURL@CBalloonHelp@@QAEXABV?$CStringT@DV?$StrTraitMFC_DLL@DV?$ChTraitsCRT@D@ATL@@@@@ATL@@@Z ENDP ; CBalloonHelp::SetURL
_TEXT	ENDS
PUBLIC	?SetTimeout@CBalloonHelp@@QAEXI@Z		; CBalloonHelp::SetTimeout
EXTRN	?SetTimer@CWnd@@QAEIIIP6GXPAUHWND__@@IIK@Z@Z:NEAR ; CWnd::SetTimer
EXTRN	?KillTimer@CWnd@@QAEHI@Z:NEAR			; CWnd::KillTimer
; Function compile flags: /Odt /RTCsu
_TEXT	SEGMENT
_this$ = -4						; size = 4
_unTimeout$ = 8						; size = 4
?SetTimeout@CBalloonHelp@@QAEXI@Z PROC NEAR		; CBalloonHelp::SetTimeout
; _this$ = ecx

; 375  : {

  01770	55		 push	 ebp
  01771	8b ec		 mov	 ebp, esp
  01773	51		 push	 ecx
  01774	c7 45 fc cc cc
	cc cc		 mov	 DWORD PTR [ebp-4], -858993460 ; ccccccccH
  0177b	89 4d fc	 mov	 DWORD PTR _this$[ebp], ecx

; 376  :    m_unTimeout = unTimeout;

  0177e	8b 45 fc	 mov	 eax, DWORD PTR _this$[ebp]
  01781	8b 4d 08	 mov	 ecx, DWORD PTR _unTimeout$[ebp]
  01784	89 88 88 00 00
	00		 mov	 DWORD PTR [eax+136], ecx

; 377  :    // if timer is already set, reset.
; 378  :    if ( NULL != m_hWnd )

  0178a	8b 55 fc	 mov	 edx, DWORD PTR _this$[ebp]
  0178d	83 7a 20 00	 cmp	 DWORD PTR [edx+32], 0
  01791	74 3f		 je	 SHORT $L187589

; 379  :    {
; 380  :       if ( m_unTimeout > 0 )

  01793	8b 45 fc	 mov	 eax, DWORD PTR _this$[ebp]
  01796	83 b8 88 00 00
	00 00		 cmp	 DWORD PTR [eax+136], 0
  0179d	76 21		 jbe	 SHORT $L187591

; 381  :       {
; 382  :          m_unTimerClose = (unsigned int) SetTimer(ID_TIMER_CLOSE, m_unTimeout, NULL);

  0179f	6a 00		 push	 0
  017a1	8b 4d fc	 mov	 ecx, DWORD PTR _this$[ebp]
  017a4	8b 91 88 00 00
	00		 mov	 edx, DWORD PTR [ecx+136]
  017aa	52		 push	 edx
  017ab	6a 01		 push	 1
  017ad	8b 4d fc	 mov	 ecx, DWORD PTR _this$[ebp]
  017b0	e8 00 00 00 00	 call	 ?SetTimer@CWnd@@QAEIIIP6GXPAUHWND__@@IIK@Z@Z ; CWnd::SetTimer
  017b5	8b 4d fc	 mov	 ecx, DWORD PTR _this$[ebp]
  017b8	89 81 8c 00 00
	00		 mov	 DWORD PTR [ecx+140], eax

; 383  :       }
; 384  :       else

  017be	eb 12		 jmp	 SHORT $L187589
$L187591:

; 385  :       {
; 386  :          KillTimer(m_unTimerClose);

  017c0	8b 55 fc	 mov	 edx, DWORD PTR _this$[ebp]
  017c3	8b 82 8c 00 00
	00		 mov	 eax, DWORD PTR [edx+140]
  017c9	50		 push	 eax
  017ca	8b 4d fc	 mov	 ecx, DWORD PTR _this$[ebp]
  017cd	e8 00 00 00 00	 call	 ?KillTimer@CWnd@@QAEHI@Z ; CWnd::KillTimer
$L187589:

; 387  :       }
; 388  :    }
; 389  : }

  017d2	83 c4 04	 add	 esp, 4
  017d5	3b ec		 cmp	 ebp, esp
  017d7	e8 00 00 00 00	 call	 __RTC_CheckEsp
  017dc	8b e5		 mov	 esp, ebp
  017de	5d		 pop	 ebp
  017df	c2 04 00	 ret	 4
?SetTimeout@CBalloonHelp@@QAEXI@Z ENDP			; CBalloonHelp::SetTimeout
_TEXT	ENDS
PUBLIC	?InterlockedExchangePointer@@YGPAXPAPAXPAX@Z	; InterlockedExchangePointer
PUBLIC	?_AtlGetThreadACPFake@ATL@@YGIXZ		; ATL::_AtlGetThreadACPFake
PUBLIC	?_AtlGetThreadACPReal@ATL@@YGIXZ		; ATL::_AtlGetThreadACPReal
; Function compile flags: /Odt /RTCsu
; File d:\program files (x86)\microsoft visual studio .net 2003\vc7\atlmfc\include\atlconv.h
;	COMDAT ?_AtlGetThreadACPThunk@ATL@@YGIXZ
_TEXT	SEGMENT
_pfnGetThreadACP$ = -164				; size = 4
_ver$ = -156						; size = 148
__$ArrayPad$ = -4					; size = 4
__$ReturnAddr$ = 4					; size = 4
?_AtlGetThreadACPThunk@ATL@@YGIXZ PROC NEAR		; ATL::_AtlGetThreadACPThunk, COMDAT

; 134  : {

  00000	55		 push	 ebp
  00001	8b ec		 mov	 ebp, esp
  00003	81 ec a4 00 00
	00		 sub	 esp, 164		; 000000a4H
  00009	56		 push	 esi
  0000a	57		 push	 edi
  0000b	8d bd 5c ff ff
	ff		 lea	 edi, DWORD PTR [ebp-164]
  00011	b9 29 00 00 00	 mov	 ecx, 41			; 00000029H
  00016	b8 cc cc cc cc	 mov	 eax, -858993460		; ccccccccH
  0001b	f3 ab		 rep stosd
  0001d	a1 00 00 00 00	 mov	 eax, DWORD PTR ___security_cookie
  00022	89 45 fc	 mov	 DWORD PTR __$ArrayPad$[ebp], eax

; 135  : 	OSVERSIONINFO ver;
; 136  : 	ATLGETTHREADACP pfnGetThreadACP;
; 137  : 
; 138  : 	ver.dwOSVersionInfoSize = sizeof( ver );

  00025	c7 85 64 ff ff
	ff 94 00 00 00	 mov	 DWORD PTR _ver$[ebp], 148 ; 00000094H

; 139  : 	::GetVersionEx( &ver );

  0002f	8b f4		 mov	 esi, esp
  00031	8d 85 64 ff ff
	ff		 lea	 eax, DWORD PTR _ver$[ebp]
  00037	50		 push	 eax
  00038	ff 15 00 00 00
	00		 call	 DWORD PTR __imp__GetVersionExA@4
  0003e	3b f4		 cmp	 esi, esp
  00040	e8 00 00 00 00	 call	 __RTC_CheckEsp

; 140  : 	if( (ver.dwPlatformId == VER_PLATFORM_WIN32_NT) && (ver.dwMajorVersion >= 5) )

  00045	83 bd 74 ff ff
	ff 02		 cmp	 DWORD PTR _ver$[ebp+16], 2
  0004c	75 15		 jne	 SHORT $L24163
  0004e	83 bd 68 ff ff
	ff 05		 cmp	 DWORD PTR _ver$[ebp+4], 5
  00055	72 0c		 jb	 SHORT $L24163

; 141  : 	{
; 142  : 		// On Win2K, CP_THREAD_ACP is supported
; 143  : 		pfnGetThreadACP = _AtlGetThreadACPReal;

  00057	c7 85 5c ff ff
	ff 00 00 00 00	 mov	 DWORD PTR _pfnGetThreadACP$[ebp], OFFSET FLAT:?_AtlGetThreadACPReal@ATL@@YGIXZ ; ATL::_AtlGetThreadACPReal

; 144  : 	}
; 145  : 	else

  00061	eb 0a		 jmp	 SHORT $L24164
$L24163:

; 146  : 	{
; 147  : 		pfnGetThreadACP = _AtlGetThreadACPFake;

  00063	c7 85 5c ff ff
	ff 00 00 00 00	 mov	 DWORD PTR _pfnGetThreadACP$[ebp], OFFSET FLAT:?_AtlGetThreadACPFake@ATL@@YGIXZ ; ATL::_AtlGetThreadACPFake
$L24164:

; 148  : 	}
; 149  : 	InterlockedExchangePointer( reinterpret_cast< void** >(&g_pfnGetThreadACP), pfnGetThreadACP );

  0006d	8b 8d 5c ff ff
	ff		 mov	 ecx, DWORD PTR _pfnGetThreadACP$[ebp]
  00073	51		 push	 ecx
  00074	68 00 00 00 00	 push	 OFFSET FLAT:?g_pfnGetThreadACP@ATL@@3P6GIXZA ; ATL::g_pfnGetThreadACP
  00079	e8 00 00 00 00	 call	 ?InterlockedExchangePointer@@YGPAXPAPAXPAX@Z ; InterlockedExchangePointer

; 150  : 
; 151  : 	return( g_pfnGetThreadACP() );

  0007e	8b f4		 mov	 esi, esp
  00080	ff 15 00 00 00
	00		 call	 DWORD PTR ?g_pfnGetThreadACP@ATL@@3P6GIXZA ; ATL::g_pfnGetThreadACP
  00086	3b f4		 cmp	 esi, esp
  00088	e8 00 00 00 00	 call	 __RTC_CheckEsp

; 152  : }

  0008d	52		 push	 edx
  0008e	8b cd		 mov	 ecx, ebp
  00090	50		 push	 eax
  00091	8d 15 00 00 00
	00		 lea	 edx, DWORD PTR $L188869
  00097	e8 00 00 00 00	 call	 @_RTC_CheckStackVars@8
  0009c	58		 pop	 eax
  0009d	5a		 pop	 edx
  0009e	8b 4d fc	 mov	 ecx, DWORD PTR __$ArrayPad$[ebp]
  000a1	e8 00 00 00 00	 call	 @__security_check_cookie@4
  000a6	5f		 pop	 edi
  000a7	5e		 pop	 esi
  000a8	81 c4 a4 00 00
	00		 add	 esp, 164		; 000000a4H
  000ae	3b ec		 cmp	 ebp, esp
  000b0	e8 00 00 00 00	 call	 __RTC_CheckEsp
  000b5	8b e5		 mov	 esp, ebp
  000b7	5d		 pop	 ebp
  000b8	c3		 ret	 0
$L188869:
  000b9	01 00 00 00	 DD	 1
  000bd	00 00 00 00	 DD	 $L188868
$L188868:
  000c1	64 ff ff ff	 DD	 -156			; ffffff64H
  000c5	94 00 00 00	 DD	 148			; 00000094H
  000c9	00 00 00 00	 DD	 $L188866
$L188866:
  000cd	76		 DB	 118			; 00000076H
  000ce	65		 DB	 101			; 00000065H
  000cf	72		 DB	 114			; 00000072H
  000d0	00		 DB	 0
?_AtlGetThreadACPThunk@ATL@@YGIXZ ENDP			; ATL::_AtlGetThreadACPThunk
_TEXT	ENDS
EXTRN	__imp__InterlockedExchange@8:NEAR
; Function compile flags: /Odt /RTCsu
;	COMDAT ?InterlockedExchangePointer@@YGPAXPAPAXPAX@Z
_TEXT	SEGMENT
_pp$ = 8						; size = 4
_pNew$ = 12						; size = 4
?InterlockedExchangePointer@@YGPAXPAPAXPAX@Z PROC NEAR	; InterlockedExchangePointer, COMDAT

; 91   : {

  00000	55		 push	 ebp
  00001	8b ec		 mov	 ebp, esp
  00003	56		 push	 esi

; 92   : 	return( reinterpret_cast<void*>(static_cast<LONG_PTR>(::InterlockedExchange(reinterpret_cast<LONG*>(pp), static_cast<LONG>(reinterpret_cast<LONG_PTR>(pNew))))) );

  00004	8b f4		 mov	 esi, esp
  00006	8b 45 0c	 mov	 eax, DWORD PTR _pNew$[ebp]
  00009	50		 push	 eax
  0000a	8b 4d 08	 mov	 ecx, DWORD PTR _pp$[ebp]
  0000d	51		 push	 ecx
  0000e	ff 15 00 00 00
	00		 call	 DWORD PTR __imp__InterlockedExchange@8
  00014	3b f4		 cmp	 esi, esp
  00016	e8 00 00 00 00	 call	 __RTC_CheckEsp

; 93   : }

  0001b	5e		 pop	 esi
  0001c	3b ec		 cmp	 ebp, esp
  0001e	e8 00 00 00 00	 call	 __RTC_CheckEsp
  00023	5d		 pop	 ebp
  00024	c2 08 00	 ret	 8
?InterlockedExchangePointer@@YGPAXPAPAXPAX@Z ENDP	; InterlockedExchangePointer
_TEXT	ENDS
EXTRN	__imp__GetACP@0:NEAR
EXTRN	__imp__GetLocaleInfoA@16:NEAR
EXTRN	__imp__GetThreadLocale@0:NEAR
; Function compile flags: /Odt /RTCsu
;	COMDAT ?_AtlGetThreadACPFake@ATL@@YGIXZ
_TEXT	SEGMENT
_pch$24151 = -32					; size = 4
_szACP$ = -24						; size = 7
_lcidThread$ = -12					; size = 4
_nACP$ = -8						; size = 4
__$ArrayPad$ = -4					; size = 4
__$ReturnAddr$ = 4					; size = 4
?_AtlGetThreadACPFake@ATL@@YGIXZ PROC NEAR		; ATL::_AtlGetThreadACPFake, COMDAT

; 101  : {

  00000	55		 push	 ebp
  00001	8b ec		 mov	 ebp, esp
  00003	83 ec 20	 sub	 esp, 32			; 00000020H
  00006	56		 push	 esi
  00007	b8 cc cc cc cc	 mov	 eax, -858993460		; ccccccccH
  0000c	89 45 e0	 mov	 DWORD PTR [ebp-32], eax
  0000f	89 45 e4	 mov	 DWORD PTR [ebp-28], eax
  00012	89 45 e8	 mov	 DWORD PTR [ebp-24], eax
  00015	89 45 ec	 mov	 DWORD PTR [ebp-20], eax
  00018	89 45 f0	 mov	 DWORD PTR [ebp-16], eax
  0001b	89 45 f4	 mov	 DWORD PTR [ebp-12], eax
  0001e	89 45 f8	 mov	 DWORD PTR [ebp-8], eax
  00021	89 45 fc	 mov	 DWORD PTR [ebp-4], eax
  00024	a1 00 00 00 00	 mov	 eax, DWORD PTR ___security_cookie
  00029	89 45 fc	 mov	 DWORD PTR __$ArrayPad$[ebp], eax

; 102  : 	UINT nACP = 0;

  0002c	c7 45 f8 00 00
	00 00		 mov	 DWORD PTR _nACP$[ebp], 0

; 103  : 
; 104  : 	LCID lcidThread = ::GetThreadLocale();

  00033	8b f4		 mov	 esi, esp
  00035	ff 15 00 00 00
	00		 call	 DWORD PTR __imp__GetThreadLocale@0
  0003b	3b f4		 cmp	 esi, esp
  0003d	e8 00 00 00 00	 call	 __RTC_CheckEsp
  00042	89 45 f4	 mov	 DWORD PTR _lcidThread$[ebp], eax

; 105  : 
; 106  : 	char szACP[7];
; 107  : 	// GetLocaleInfoA will fail for a Unicode-only LCID, but those are only supported on 
; 108  : 	// Windows 2000.  Since Windows 2000 supports CP_THREAD_ACP, this code path is never
; 109  : 	// executed on Windows 2000.
; 110  : 	if (::GetLocaleInfoA(lcidThread, LOCALE_IDEFAULTANSICODEPAGE, szACP, 7) != 0)

  00045	8b f4		 mov	 esi, esp
  00047	6a 07		 push	 7
  00049	8d 45 e8	 lea	 eax, DWORD PTR _szACP$[ebp]
  0004c	50		 push	 eax
  0004d	68 04 10 00 00	 push	 4100			; 00001004H
  00052	8b 4d f4	 mov	 ecx, DWORD PTR _lcidThread$[ebp]
  00055	51		 push	 ecx
  00056	ff 15 00 00 00
	00		 call	 DWORD PTR __imp__GetLocaleInfoA@16
  0005c	3b f4		 cmp	 esi, esp
  0005e	e8 00 00 00 00	 call	 __RTC_CheckEsp
  00063	85 c0		 test	 eax, eax
  00065	74 34		 je	 SHORT $L24150

; 111  : 	{
; 112  : 		char* pch = szACP;

  00067	8d 55 e8	 lea	 edx, DWORD PTR _szACP$[ebp]
  0006a	89 55 e0	 mov	 DWORD PTR _pch$24151[ebp], edx
$L24153:

; 113  : 		while (*pch != '\0')

  0006d	8b 45 e0	 mov	 eax, DWORD PTR _pch$24151[ebp]
  00070	0f be 08	 movsx	 ecx, BYTE PTR [eax]
  00073	85 c9		 test	 ecx, ecx
  00075	74 24		 je	 SHORT $L24150

; 114  : 		{
; 115  : 			nACP *= 10;

  00077	8b 55 f8	 mov	 edx, DWORD PTR _nACP$[ebp]
  0007a	6b d2 0a	 imul	 edx, 10			; 0000000aH
  0007d	89 55 f8	 mov	 DWORD PTR _nACP$[ebp], edx

; 116  : 			nACP += *pch++ - '0';

  00080	8b 45 e0	 mov	 eax, DWORD PTR _pch$24151[ebp]
  00083	0f be 08	 movsx	 ecx, BYTE PTR [eax]
  00086	8b 55 f8	 mov	 edx, DWORD PTR _nACP$[ebp]
  00089	8d 44 0a d0	 lea	 eax, DWORD PTR [edx+ecx-48]
  0008d	89 45 f8	 mov	 DWORD PTR _nACP$[ebp], eax
  00090	8b 4d e0	 mov	 ecx, DWORD PTR _pch$24151[ebp]
  00093	83 c1 01	 add	 ecx, 1
  00096	89 4d e0	 mov	 DWORD PTR _pch$24151[ebp], ecx

; 117  : 		}

  00099	eb d2		 jmp	 SHORT $L24153
$L24150:

; 118  : 	}
; 119  : 	// Use the Default ANSI Code Page if we were unable to get the thread ACP or if one does not exist.
; 120  : 	if (nACP == 0)

  0009b	83 7d f8 00	 cmp	 DWORD PTR _nACP$[ebp], 0
  0009f	75 12		 jne	 SHORT $L24155

; 121  : 		nACP = ::GetACP();

  000a1	8b f4		 mov	 esi, esp
  000a3	ff 15 00 00 00
	00		 call	 DWORD PTR __imp__GetACP@0
  000a9	3b f4		 cmp	 esi, esp
  000ab	e8 00 00 00 00	 call	 __RTC_CheckEsp
  000b0	89 45 f8	 mov	 DWORD PTR _nACP$[ebp], eax
$L24155:

; 122  : 
; 123  : 	return nACP;

  000b3	8b 45 f8	 mov	 eax, DWORD PTR _nACP$[ebp]

; 124  : }

  000b6	52		 push	 edx
  000b7	8b cd		 mov	 ecx, ebp
  000b9	50		 push	 eax
  000ba	8d 15 00 00 00
	00		 lea	 edx, DWORD PTR $L188876
  000c0	e8 00 00 00 00	 call	 @_RTC_CheckStackVars@8
  000c5	58		 pop	 eax
  000c6	5a		 pop	 edx
  000c7	8b 4d fc	 mov	 ecx, DWORD PTR __$ArrayPad$[ebp]
  000ca	e8 00 00 00 00	 call	 @__security_check_cookie@4
  000cf	5e		 pop	 esi
  000d0	83 c4 20	 add	 esp, 32			; 00000020H
  000d3	3b ec		 cmp	 ebp, esp
  000d5	e8 00 00 00 00	 call	 __RTC_CheckEsp
  000da	8b e5		 mov	 esp, ebp
  000dc	5d		 pop	 ebp
  000dd	c3		 ret	 0
$L188876:
  000de	01 00 00 00	 DD	 1
  000e2	00 00 00 00	 DD	 $L188875
$L188875:
  000e6	e8 ff ff ff	 DD	 -24			; ffffffe8H
  000ea	07 00 00 00	 DD	 7
  000ee	00 00 00 00	 DD	 $L188873
$L188873:
  000f2	73		 DB	 115			; 00000073H
  000f3	7a		 DB	 122			; 0000007aH
  000f4	41		 DB	 65			; 00000041H
  000f5	43		 DB	 67			; 00000043H
  000f6	50		 DB	 80			; 00000050H
  000f7	00		 DB	 0
?_AtlGetThreadACPFake@ATL@@YGIXZ ENDP			; ATL::_AtlGetThreadACPFake
; Function compile flags: /Odt /RTCsu
_TEXT	ENDS
;	COMDAT ?_AtlGetThreadACPReal@ATL@@YGIXZ
_TEXT	SEGMENT
?_AtlGetThreadACPReal@ATL@@YGIXZ PROC NEAR		; ATL::_AtlGetThreadACPReal, COMDAT

; 127  : {

  00000	55		 push	 ebp
  00001	8b ec		 mov	 ebp, esp

; 128  : 	return( CP_THREAD_ACP );

  00003	b8 03 00 00 00	 mov	 eax, 3

; 129  : }

  00008	5d		 pop	 ebp
  00009	c3		 ret	 0
?_AtlGetThreadACPReal@ATL@@YGIXZ ENDP			; ATL::_AtlGetThreadACPReal
_TEXT	ENDS
PUBLIC	?SetAnchorPoint@CBalloonHelp@@QAEXVCPoint@@PAVCWnd@@@Z ; CBalloonHelp::SetAnchorPoint
PUBLIC	?SetCallWndRetHook@CBalloonHelp@@AAEXXZ		; CBalloonHelp::SetCallWndRetHook
PUBLIC	?RemoveCallWndRetHook@CBalloonHelp@@AAEXXZ	; CBalloonHelp::RemoveCallWndRetHook
EXTRN	?GetSafeHwnd@CWnd@@QBEPAUHWND__@@XZ:NEAR	; CWnd::GetSafeHwnd
; Function compile flags: /Odt /RTCsu
; File d:\boxgit\playbox\playbox\dev\prj\playbox\src\gui\util\balloonhelp.cpp
_TEXT	SEGMENT
_this$ = -4						; size = 4
_ptAnchor$ = 8						; size = 8
_pWndAnchor$ = 16					; size = 4
?SetAnchorPoint@CBalloonHelp@@QAEXVCPoint@@PAVCWnd@@@Z PROC NEAR ; CBalloonHelp::SetAnchorPoint
; _this$ = ecx

; 393  : {

  017f0	55		 push	 ebp
  017f1	8b ec		 mov	 ebp, esp
  017f3	51		 push	 ecx
  017f4	c7 45 fc cc cc
	cc cc		 mov	 DWORD PTR [ebp-4], -858993460 ; ccccccccH
  017fb	89 4d fc	 mov	 DWORD PTR _this$[ebp], ecx

; 394  :    m_ptAnchor = ptAnchor;

  017fe	8b 45 fc	 mov	 eax, DWORD PTR _this$[ebp]
  01801	8b 4d 08	 mov	 ecx, DWORD PTR _ptAnchor$[ebp]
  01804	89 88 9c 00 00
	00		 mov	 DWORD PTR [eax+156], ecx
  0180a	8b 55 0c	 mov	 edx, DWORD PTR _ptAnchor$[ebp+4]
  0180d	89 90 a0 00 00
	00		 mov	 DWORD PTR [eax+160], edx

; 395  :    m_hwndAnchor = pWndAnchor->GetSafeHwnd();

  01813	8b 4d 10	 mov	 ecx, DWORD PTR _pWndAnchor$[ebp]
  01816	e8 00 00 00 00	 call	 ?GetSafeHwnd@CWnd@@QBEPAUHWND__@@XZ ; CWnd::GetSafeHwnd
  0181b	8b 4d fc	 mov	 ecx, DWORD PTR _this$[ebp]
  0181e	89 81 98 00 00
	00		 mov	 DWORD PTR [ecx+152], eax

; 396  : 
; 397  :    // if we're anchored to a window, set hook
; 398  :    if ( NULL != m_hwndAnchor )

  01824	8b 55 fc	 mov	 edx, DWORD PTR _this$[ebp]
  01827	83 ba 98 00 00
	00 00		 cmp	 DWORD PTR [edx+152], 0
  0182e	74 0a		 je	 SHORT $L187599

; 399  :       SetCallWndRetHook();

  01830	8b 4d fc	 mov	 ecx, DWORD PTR _this$[ebp]
  01833	e8 00 00 00 00	 call	 ?SetCallWndRetHook@CBalloonHelp@@AAEXXZ ; CBalloonHelp::SetCallWndRetHook

; 400  :    else

  01838	eb 08		 jmp	 SHORT $L187600
$L187599:

; 401  :       RemoveCallWndRetHook();

  0183a	8b 4d fc	 mov	 ecx, DWORD PTR _this$[ebp]
  0183d	e8 00 00 00 00	 call	 ?RemoveCallWndRetHook@CBalloonHelp@@AAEXXZ ; CBalloonHelp::RemoveCallWndRetHook
$L187600:

; 402  : 
; 403  :    // if already visible, move
; 404  :    if ( NULL != m_hWnd )

  01842	8b 45 fc	 mov	 eax, DWORD PTR _this$[ebp]
  01845	83 78 20 00	 cmp	 DWORD PTR [eax+32], 0
  01849	74 08		 je	 SHORT $L187598

; 405  :    {
; 406  :       // reposition
; 407  :       PositionWindow();

  0184b	8b 4d fc	 mov	 ecx, DWORD PTR _this$[ebp]
  0184e	e8 00 00 00 00	 call	 ?PositionWindow@CBalloonHelp@@IAEXXZ ; CBalloonHelp::PositionWindow
$L187598:

; 408  :    }
; 409  : }

  01853	83 c4 04	 add	 esp, 4
  01856	3b ec		 cmp	 ebp, esp
  01858	e8 00 00 00 00	 call	 __RTC_CheckEsp
  0185d	8b e5		 mov	 esp, ebp
  0185f	5d		 pop	 ebp
  01860	c2 0c 00	 ret	 12			; 0000000cH
?SetAnchorPoint@CBalloonHelp@@QAEXVCPoint@@PAVCWnd@@@Z ENDP ; CBalloonHelp::SetAnchorPoint
_TEXT	ENDS
PUBLIC	?SetTitle@CBalloonHelp@@QAEXABV?$CStringT@DV?$StrTraitMFC_DLL@DV?$ChTraitsCRT@D@ATL@@@@@ATL@@@Z ; CBalloonHelp::SetTitle
EXTRN	?SetWindowTextA@CWnd@@QAEXPBD@Z:NEAR		; CWnd::SetWindowTextA
EXTRN	__imp_??B?$CSimpleStringT@D$00@ATL@@QBEPBDXZ:NEAR
; Function compile flags: /Odt /RTCsu
_TEXT	SEGMENT
_this$ = -4						; size = 4
_strTitle$ = 8						; size = 4
?SetTitle@CBalloonHelp@@QAEXABV?$CStringT@DV?$StrTraitMFC_DLL@DV?$ChTraitsCRT@D@ATL@@@@@ATL@@@Z PROC NEAR ; CBalloonHelp::SetTitle
; _this$ = ecx

; 413  : {

  01870	55		 push	 ebp
  01871	8b ec		 mov	 ebp, esp
  01873	51		 push	 ecx
  01874	56		 push	 esi
  01875	c7 45 fc cc cc
	cc cc		 mov	 DWORD PTR [ebp-4], -858993460 ; ccccccccH
  0187c	89 4d fc	 mov	 DWORD PTR _this$[ebp], ecx

; 414  :    SetWindowText(strTitle);

  0187f	8b f4		 mov	 esi, esp
  01881	8b 4d 08	 mov	 ecx, DWORD PTR _strTitle$[ebp]
  01884	ff 15 00 00 00
	00		 call	 DWORD PTR __imp_??B?$CSimpleStringT@D$00@ATL@@QBEPBDXZ
  0188a	3b f4		 cmp	 esi, esp
  0188c	e8 00 00 00 00	 call	 __RTC_CheckEsp
  01891	50		 push	 eax
  01892	8b 4d fc	 mov	 ecx, DWORD PTR _this$[ebp]
  01895	e8 00 00 00 00	 call	 ?SetWindowTextA@CWnd@@QAEXPBD@Z ; CWnd::SetWindowTextA

; 415  :    // if already visible, resize & move
; 416  :    if ( NULL != m_hWnd )

  0189a	8b 45 fc	 mov	 eax, DWORD PTR _this$[ebp]
  0189d	83 78 20 00	 cmp	 DWORD PTR [eax+32], 0
  018a1	74 08		 je	 SHORT $L187605

; 417  :       PositionWindow();

  018a3	8b 4d fc	 mov	 ecx, DWORD PTR _this$[ebp]
  018a6	e8 00 00 00 00	 call	 ?PositionWindow@CBalloonHelp@@IAEXXZ ; CBalloonHelp::PositionWindow
$L187605:

; 418  : }

  018ab	5e		 pop	 esi
  018ac	83 c4 04	 add	 esp, 4
  018af	3b ec		 cmp	 ebp, esp
  018b1	e8 00 00 00 00	 call	 __RTC_CheckEsp
  018b6	8b e5		 mov	 esp, ebp
  018b8	5d		 pop	 ebp
  018b9	c2 04 00	 ret	 4
?SetTitle@CBalloonHelp@@QAEXABV?$CStringT@DV?$StrTraitMFC_DLL@DV?$ChTraitsCRT@D@ATL@@@@@ATL@@@Z ENDP ; CBalloonHelp::SetTitle
_TEXT	ENDS
PUBLIC	?SetContent@CBalloonHelp@@QAEXABV?$CStringT@DV?$StrTraitMFC_DLL@DV?$ChTraitsCRT@D@ATL@@@@@ATL@@@Z ; CBalloonHelp::SetContent
; Function compile flags: /Odt /RTCsu
_TEXT	SEGMENT
_this$ = -4						; size = 4
_strContent$ = 8					; size = 4
?SetContent@CBalloonHelp@@QAEXABV?$CStringT@DV?$StrTraitMFC_DLL@DV?$ChTraitsCRT@D@ATL@@@@@ATL@@@Z PROC NEAR ; CBalloonHelp::SetContent
; _this$ = ecx

; 422  : {

  018c0	55		 push	 ebp
  018c1	8b ec		 mov	 ebp, esp
  018c3	51		 push	 ecx
  018c4	56		 push	 esi
  018c5	c7 45 fc cc cc
	cc cc		 mov	 DWORD PTR [ebp-4], -858993460 ; ccccccccH
  018cc	89 4d fc	 mov	 DWORD PTR _this$[ebp], ecx

; 423  :    m_strContent = strContent;

  018cf	8b f4		 mov	 esi, esp
  018d1	8b 45 08	 mov	 eax, DWORD PTR _strContent$[ebp]
  018d4	50		 push	 eax
  018d5	8b 4d fc	 mov	 ecx, DWORD PTR _this$[ebp]
  018d8	81 c1 90 00 00
	00		 add	 ecx, 144		; 00000090H
  018de	ff 15 00 00 00
	00		 call	 DWORD PTR __imp_??4?$CStringT@DV?$StrTraitMFC_DLL@DV?$ChTraitsCRT@D@ATL@@@@@ATL@@QAEAAV01@ABV01@@Z
  018e4	3b f4		 cmp	 esi, esp
  018e6	e8 00 00 00 00	 call	 __RTC_CheckEsp

; 424  :    // if already visible, resize & move
; 425  :    if ( NULL != m_hWnd )

  018eb	8b 4d fc	 mov	 ecx, DWORD PTR _this$[ebp]
  018ee	83 79 20 00	 cmp	 DWORD PTR [ecx+32], 0
  018f2	74 08		 je	 SHORT $L187610

; 426  :       PositionWindow();

  018f4	8b 4d fc	 mov	 ecx, DWORD PTR _this$[ebp]
  018f7	e8 00 00 00 00	 call	 ?PositionWindow@CBalloonHelp@@IAEXXZ ; CBalloonHelp::PositionWindow
$L187610:

; 427  : }

  018fc	5e		 pop	 esi
  018fd	83 c4 04	 add	 esp, 4
  01900	3b ec		 cmp	 ebp, esp
  01902	e8 00 00 00 00	 call	 __RTC_CheckEsp
  01907	8b e5		 mov	 esp, ebp
  01909	5d		 pop	 ebp
  0190a	c2 04 00	 ret	 4
?SetContent@CBalloonHelp@@QAEXABV?$CStringT@DV?$StrTraitMFC_DLL@DV?$ChTraitsCRT@D@ATL@@@@@ATL@@@Z ENDP ; CBalloonHelp::SetContent
_TEXT	ENDS
PUBLIC	?SetForegroundColor@CBalloonHelp@@QAEXK@Z	; CBalloonHelp::SetForegroundColor
EXTRN	?Invalidate@CWnd@@QAEXH@Z:NEAR			; CWnd::Invalidate
; Function compile flags: /Odt /RTCsu
_TEXT	SEGMENT
_this$ = -4						; size = 4
_crForeground$ = 8					; size = 4
?SetForegroundColor@CBalloonHelp@@QAEXK@Z PROC NEAR	; CBalloonHelp::SetForegroundColor
; _this$ = ecx

; 431  : {

  01910	55		 push	 ebp
  01911	8b ec		 mov	 ebp, esp
  01913	51		 push	 ecx
  01914	c7 45 fc cc cc
	cc cc		 mov	 DWORD PTR [ebp-4], -858993460 ; ccccccccH
  0191b	89 4d fc	 mov	 DWORD PTR _this$[ebp], ecx

; 432  :    m_crForeground = crForeground;

  0191e	8b 45 fc	 mov	 eax, DWORD PTR _this$[ebp]
  01921	8b 4d 08	 mov	 ecx, DWORD PTR _crForeground$[ebp]
  01924	89 88 b8 00 00
	00		 mov	 DWORD PTR [eax+184], ecx

; 433  :    // repaint if visible
; 434  :    if ( NULL != m_hWnd )

  0192a	8b 55 fc	 mov	 edx, DWORD PTR _this$[ebp]
  0192d	83 7a 20 00	 cmp	 DWORD PTR [edx+32], 0
  01931	74 0a		 je	 SHORT $L187615

; 435  :       Invalidate(FALSE);

  01933	6a 00		 push	 0
  01935	8b 4d fc	 mov	 ecx, DWORD PTR _this$[ebp]
  01938	e8 00 00 00 00	 call	 ?Invalidate@CWnd@@QAEXH@Z ; CWnd::Invalidate
$L187615:

; 436  : }

  0193d	83 c4 04	 add	 esp, 4
  01940	3b ec		 cmp	 ebp, esp
  01942	e8 00 00 00 00	 call	 __RTC_CheckEsp
  01947	8b e5		 mov	 esp, ebp
  01949	5d		 pop	 ebp
  0194a	c2 04 00	 ret	 4
?SetForegroundColor@CBalloonHelp@@QAEXK@Z ENDP		; CBalloonHelp::SetForegroundColor
_TEXT	ENDS
PUBLIC	?SetBackgroundColor@CBalloonHelp@@QAEXK@Z	; CBalloonHelp::SetBackgroundColor
; Function compile flags: /Odt /RTCsu
_TEXT	SEGMENT
_this$ = -4						; size = 4
_crBackground$ = 8					; size = 4
?SetBackgroundColor@CBalloonHelp@@QAEXK@Z PROC NEAR	; CBalloonHelp::SetBackgroundColor
; _this$ = ecx

; 440  : {

  01950	55		 push	 ebp
  01951	8b ec		 mov	 ebp, esp
  01953	51		 push	 ecx
  01954	c7 45 fc cc cc
	cc cc		 mov	 DWORD PTR [ebp-4], -858993460 ; ccccccccH
  0195b	89 4d fc	 mov	 DWORD PTR _this$[ebp], ecx

; 441  :    m_crBackground = crBackground;

  0195e	8b 45 fc	 mov	 eax, DWORD PTR _this$[ebp]
  01961	8b 4d 08	 mov	 ecx, DWORD PTR _crBackground$[ebp]
  01964	89 88 b4 00 00
	00		 mov	 DWORD PTR [eax+180], ecx

; 442  :    // repaint if visible
; 443  :    if ( NULL != m_hWnd )

  0196a	8b 55 fc	 mov	 edx, DWORD PTR _this$[ebp]
  0196d	83 7a 20 00	 cmp	 DWORD PTR [edx+32], 0
  01971	74 0a		 je	 SHORT $L187620

; 444  :       Invalidate(FALSE);

  01973	6a 00		 push	 0
  01975	8b 4d fc	 mov	 ecx, DWORD PTR _this$[ebp]
  01978	e8 00 00 00 00	 call	 ?Invalidate@CWnd@@QAEXH@Z ; CWnd::Invalidate
$L187620:

; 445  : }

  0197d	83 c4 04	 add	 esp, 4
  01980	3b ec		 cmp	 ebp, esp
  01982	e8 00 00 00 00	 call	 __RTC_CheckEsp
  01987	8b e5		 mov	 esp, ebp
  01989	5d		 pop	 ebp
  0198a	c2 04 00	 ret	 4
?SetBackgroundColor@CBalloonHelp@@QAEXK@Z ENDP		; CBalloonHelp::SetBackgroundColor
_TEXT	ENDS
PUBLIC	?SetMouseMoveTolerance@CBalloonHelp@@QAEXH@Z	; CBalloonHelp::SetMouseMoveTolerance
; Function compile flags: /Odt /RTCsu
_TEXT	SEGMENT
_this$ = -4						; size = 4
_nTolerance$ = 8					; size = 4
?SetMouseMoveTolerance@CBalloonHelp@@QAEXH@Z PROC NEAR	; CBalloonHelp::SetMouseMoveTolerance
; _this$ = ecx

; 449  : {

  01990	55		 push	 ebp
  01991	8b ec		 mov	 ebp, esp
  01993	51		 push	 ecx
  01994	c7 45 fc cc cc
	cc cc		 mov	 DWORD PTR [ebp-4], -858993460 ; ccccccccH
  0199b	89 4d fc	 mov	 DWORD PTR _this$[ebp], ecx

; 450  :    m_nMouseMoveTolerance = nTolerance;

  0199e	8b 45 fc	 mov	 eax, DWORD PTR _this$[ebp]
  019a1	8b 4d 08	 mov	 ecx, DWORD PTR _nTolerance$[ebp]
  019a4	89 88 e0 00 00
	00		 mov	 DWORD PTR [eax+224], ecx

; 451  : }

  019aa	8b e5		 mov	 esp, ebp
  019ac	5d		 pop	 ebp
  019ad	c2 04 00	 ret	 4
?SetMouseMoveTolerance@CBalloonHelp@@QAEXH@Z ENDP	; CBalloonHelp::SetMouseMoveTolerance
_TEXT	ENDS
PUBLIC	?ShowBalloon@CBalloonHelp@@IAEXXZ		; CBalloonHelp::ShowBalloon
PUBLIC	?GetClassAtom@CBalloonHelp@@KAGH@Z		; CBalloonHelp::GetClassAtom
PUBLIC	?SetKeyboardHook@CBalloonHelp@@AAEXXZ		; CBalloonHelp::SetKeyboardHook
PUBLIC	?SetMouseHook@CBalloonHelp@@AAEXXZ		; CBalloonHelp::SetMouseHook
EXTRN	?CreateStockObject@CGdiObject@@QAEHH@Z:NEAR	; CGdiObject::CreateStockObject
EXTRN	??0CFont@@QAE@XZ:NEAR				; CFont::CFont
EXTRN	?CreateFontIndirectA@CFont@@QAEHPBUtagLOGFONTA@@@Z:NEAR ; CFont::CreateFontIndirectA
EXTRN	?GetLogFont@CFont@@QAEHPAUtagLOGFONTA@@@Z:NEAR	; CFont::GetLogFont
EXTRN	?GetSafeOwner@CWnd@@SGPAV1@PAV1@PAPAUHWND__@@@Z:NEAR ; CWnd::GetSafeOwner
EXTRN	__imp__GetCursorPos@4:NEAR
EXTRN	?GetCapture@CWnd@@SGPAV1@XZ:NEAR		; CWnd::GetCapture
EXTRN	?SetCapture@CWnd@@QAEPAV1@XZ:NEAR		; CWnd::SetCapture
xdata$x	SEGMENT
$T188913 DD	0ffffffffH
	DD	FLAT:$L188902
	DD	00H
	DD	FLAT:$L188903
	DD	00H
	DD	FLAT:$L188904
$T188906 DD	019930520H
	DD	03H
	DD	FLAT:$T188913
	DD	2 DUP(00H)
	DD	2 DUP(00H)
; Function compile flags: /Odt /RTCsu
xdata$x	ENDS
_TEXT	SEGMENT
tv155 = -172						; size = 4
tv135 = -168						; size = 4
$T188901 = -164						; size = 4
$T188900 = -160						; size = 4
$T188899 = -156						; size = 16
$T188898 = -140						; size = 4
$T188897 = -136						; size = 4
$T188894 = -132						; size = 4
$T188893 = -128						; size = 4
$T188892 = -124						; size = 4
$T188889 = -120						; size = 4
$T188888 = -116						; size = 4
$T188887 = -112						; size = 4
_dwExStyle$ = -108					; size = 4
_bFade$ = -100						; size = 4
_wndClass$ = -92					; size = 2
_LogFont$187657 = -84					; size = 60
_this$ = -20						; size = 4
__$ArrayPad$ = -16					; size = 4
__$EHRec$ = -12						; size = 12
__$ReturnAddr$ = 4					; size = 4
_strTitle$ = 8						; size = 4
_strContent$ = 12					; size = 4
_ptAnchor$ = 16						; size = 4
_unOptions$ = 20					; size = 4
_pParentWnd$ = 24					; size = 4
_strURL$ = 28						; size = 4
_unTimeout$ = 32					; size = 4
_hIcon$ = 36						; size = 4
?Create@CBalloonHelp@@QAEHABV?$CStringT@DV?$StrTraitMFC_DLL@DV?$ChTraitsCRT@D@ATL@@@@@ATL@@0ABVCPoint@@IPAVCWnd@@V23@IPAUHICON__@@@Z PROC NEAR ; CBalloonHelp::Create
; _this$ = ecx

; 493  : {

  019b0	55		 push	 ebp
  019b1	8b ec		 mov	 ebp, esp
  019b3	6a ff		 push	 -1
  019b5	68 00 00 00 00	 push	 __ehhandler$?Create@CBalloonHelp@@QAEHABV?$CStringT@DV?$StrTraitMFC_DLL@DV?$ChTraitsCRT@D@ATL@@@@@ATL@@0ABVCPoint@@IPAVCWnd@@V23@IPAUHICON__@@@Z
  019ba	64 a1 00 00 00
	00		 mov	 eax, DWORD PTR fs:__except_list
  019c0	50		 push	 eax
  019c1	64 89 25 00 00
	00 00		 mov	 DWORD PTR fs:__except_list, esp
  019c8	81 ec a0 00 00
	00		 sub	 esp, 160		; 000000a0H
  019ce	56		 push	 esi
  019cf	57		 push	 edi
  019d0	51		 push	 ecx
  019d1	8d bd 54 ff ff
	ff		 lea	 edi, DWORD PTR [ebp-172]
  019d7	b9 28 00 00 00	 mov	 ecx, 40			; 00000028H
  019dc	b8 cc cc cc cc	 mov	 eax, -858993460		; ccccccccH
  019e1	f3 ab		 rep stosd
  019e3	59		 pop	 ecx
  019e4	a1 00 00 00 00	 mov	 eax, DWORD PTR ___security_cookie
  019e9	89 45 f0	 mov	 DWORD PTR __$ArrayPad$[ebp], eax
  019ec	89 4d ec	 mov	 DWORD PTR _this$[ebp], ecx
  019ef	c7 45 fc 00 00
	00 00		 mov	 DWORD PTR __$EHRec$[ebp+8], 0

; 494  :    m_strContent   = strContent;

  019f6	8b f4		 mov	 esi, esp
  019f8	8b 45 0c	 mov	 eax, DWORD PTR _strContent$[ebp]
  019fb	50		 push	 eax
  019fc	8b 4d ec	 mov	 ecx, DWORD PTR _this$[ebp]
  019ff	81 c1 90 00 00
	00		 add	 ecx, 144		; 00000090H
  01a05	ff 15 00 00 00
	00		 call	 DWORD PTR __imp_??4?$CStringT@DV?$StrTraitMFC_DLL@DV?$ChTraitsCRT@D@ATL@@@@@ATL@@QAEAAV01@ABV01@@Z
  01a0b	3b f4		 cmp	 esi, esp
  01a0d	e8 00 00 00 00	 call	 __RTC_CheckEsp

; 495  :    SetAnchorPoint(ptAnchor, pParentWnd);

  01a12	8b 4d 18	 mov	 ecx, DWORD PTR _pParentWnd$[ebp]
  01a15	51		 push	 ecx
  01a16	8b 55 10	 mov	 edx, DWORD PTR _ptAnchor$[ebp]
  01a19	8b 42 04	 mov	 eax, DWORD PTR [edx+4]
  01a1c	50		 push	 eax
  01a1d	8b 0a		 mov	 ecx, DWORD PTR [edx]
  01a1f	51		 push	 ecx
  01a20	8b 4d ec	 mov	 ecx, DWORD PTR _this$[ebp]
  01a23	e8 00 00 00 00	 call	 ?SetAnchorPoint@CBalloonHelp@@QAEXVCPoint@@PAVCWnd@@@Z ; CBalloonHelp::SetAnchorPoint

; 496  :    m_unOptions    = unOptions;

  01a28	8b 55 ec	 mov	 edx, DWORD PTR _this$[ebp]
  01a2b	8b 45 14	 mov	 eax, DWORD PTR _unOptions$[ebp]
  01a2e	89 82 84 00 00
	00		 mov	 DWORD PTR [edx+132], eax

; 497  :    m_strURL       = strURL;

  01a34	8b f4		 mov	 esi, esp
  01a36	8d 4d 1c	 lea	 ecx, DWORD PTR _strURL$[ebp]
  01a39	51		 push	 ecx
  01a3a	8b 4d ec	 mov	 ecx, DWORD PTR _this$[ebp]
  01a3d	81 c1 94 00 00
	00		 add	 ecx, 148		; 00000094H
  01a43	ff 15 00 00 00
	00		 call	 DWORD PTR __imp_??4?$CStringT@DV?$StrTraitMFC_DLL@DV?$ChTraitsCRT@D@ATL@@@@@ATL@@QAEAAV01@ABV01@@Z
  01a49	3b f4		 cmp	 esi, esp
  01a4b	e8 00 00 00 00	 call	 __RTC_CheckEsp

; 498  :    m_unTimeout    = unTimeout;

  01a50	8b 55 ec	 mov	 edx, DWORD PTR _this$[ebp]
  01a53	8b 45 20	 mov	 eax, DWORD PTR _unTimeout$[ebp]
  01a56	89 82 88 00 00
	00		 mov	 DWORD PTR [edx+136], eax

; 499  : 
; 500  :    if ( NULL != hIcon )

  01a5c	83 7d 24 00	 cmp	 DWORD PTR _hIcon$[ebp], 0
  01a60	74 0c		 je	 SHORT $L187637

; 501  :       SetIcon(hIcon);

  01a62	8b 4d 24	 mov	 ecx, DWORD PTR _hIcon$[ebp]
  01a65	51		 push	 ecx
  01a66	8b 4d ec	 mov	 ecx, DWORD PTR _this$[ebp]
  01a69	e8 00 00 00 00	 call	 ?SetIcon@CBalloonHelp@@QAEXPAUHICON__@@@Z ; CBalloonHelp::SetIcon
$L187637:

; 502  :    
; 503  :    pParentWnd = GetSafeOwner(pParentWnd);

  01a6e	6a 00		 push	 0
  01a70	8b 55 18	 mov	 edx, DWORD PTR _pParentWnd$[ebp]
  01a73	52		 push	 edx
  01a74	e8 00 00 00 00	 call	 ?GetSafeOwner@CWnd@@SGPAV1@PAV1@PAPAUHWND__@@@Z ; CWnd::GetSafeOwner
  01a79	89 45 18	 mov	 DWORD PTR _pParentWnd$[ebp], eax

; 504  :    if ( NULL == pParentWnd )

  01a7c	83 7d 18 00	 cmp	 DWORD PTR _pParentWnd$[ebp], 0
  01a80	75 40		 jne	 SHORT $L187638

; 505  :    {
; 506  :       // something is wrong; MFC should be able to find a main window.
; 507  :       ASSERT(FALSE);

  01a82	33 c0		 xor	 eax, eax
  01a84	75 14		 jne	 SHORT $L188886
  01a86	68 fb 01 00 00	 push	 507			; 000001fbH
  01a8b	68 00 00 00 00	 push	 OFFSET FLAT:_THIS_FILE
  01a90	e8 00 00 00 00	 call	 ?AfxAssertFailedLine@@YGHPBDH@Z ; AfxAssertFailedLine
  01a95	85 c0		 test	 eax, eax
  01a97	74 01		 je	 SHORT $L188886
  01a99	cc		 int	 3
$L188886:

; 508  :       return FALSE;

  01a9a	c7 45 90 00 00
	00 00		 mov	 DWORD PTR $T188887[ebp], 0
  01aa1	c7 45 fc ff ff
	ff ff		 mov	 DWORD PTR __$EHRec$[ebp+8], -1
  01aa8	8b f4		 mov	 esi, esp
  01aaa	8d 4d 1c	 lea	 ecx, DWORD PTR _strURL$[ebp]
  01aad	ff 15 00 00 00
	00		 call	 DWORD PTR __imp_??1?$CStringT@DV?$StrTraitMFC_DLL@DV?$ChTraitsCRT@D@ATL@@@@@ATL@@QAE@XZ
  01ab3	3b f4		 cmp	 esi, esp
  01ab5	e8 00 00 00 00	 call	 __RTC_CheckEsp
  01aba	8b 45 90	 mov	 eax, DWORD PTR $T188887[ebp]
  01abd	e9 db 03 00 00	 jmp	 $L187636
$L187638:

; 509  :    }
; 510  : 
; 511  :    // if no fonts set, use defaults
; 512  :    if ( NULL == m_pContentFont )

  01ac2	8b 55 ec	 mov	 edx, DWORD PTR _this$[ebp]
  01ac5	83 ba b0 00 00
	00 00		 cmp	 DWORD PTR [edx+176], 0
  01acc	0f 85 8d 00 00
	00		 jne	 $L187641

; 513  :    {
; 514  :       m_pContentFont = new CFont;

  01ad2	68 02 02 00 00	 push	 514			; 00000202H
  01ad7	68 00 00 00 00	 push	 OFFSET FLAT:_THIS_FILE
  01adc	6a 08		 push	 8
  01ade	e8 00 00 00 00	 call	 ??2CObject@@SGPAXIPBDH@Z ; CObject::operator new
  01ae3	89 45 88	 mov	 DWORD PTR $T188889[ebp], eax
  01ae6	c6 45 fc 01	 mov	 BYTE PTR __$EHRec$[ebp+8], 1
  01aea	83 7d 88 00	 cmp	 DWORD PTR $T188889[ebp], 0
  01aee	74 10		 je	 SHORT $L188890
  01af0	8b 4d 88	 mov	 ecx, DWORD PTR $T188889[ebp]
  01af3	e8 00 00 00 00	 call	 ??0CFont@@QAE@XZ	; CFont::CFont
  01af8	89 85 58 ff ff
	ff		 mov	 DWORD PTR tv135[ebp], eax
  01afe	eb 0a		 jmp	 SHORT $L188891
$L188890:
  01b00	c7 85 58 ff ff
	ff 00 00 00 00	 mov	 DWORD PTR tv135[ebp], 0
$L188891:
  01b0a	8b 85 58 ff ff
	ff		 mov	 eax, DWORD PTR tv135[ebp]
  01b10	89 45 8c	 mov	 DWORD PTR $T188888[ebp], eax
  01b13	c6 45 fc 00	 mov	 BYTE PTR __$EHRec$[ebp+8], 0
  01b17	8b 4d ec	 mov	 ecx, DWORD PTR _this$[ebp]
  01b1a	8b 55 8c	 mov	 edx, DWORD PTR $T188888[ebp]
  01b1d	89 91 b0 00 00
	00		 mov	 DWORD PTR [ecx+176], edx

; 515  :       if ( !m_pContentFont->CreateStockObject(DEFAULT_GUI_FONT) )

  01b23	6a 11		 push	 17			; 00000011H
  01b25	8b 45 ec	 mov	 eax, DWORD PTR _this$[ebp]
  01b28	8b 88 b0 00 00
	00		 mov	 ecx, DWORD PTR [eax+176]
  01b2e	e8 00 00 00 00	 call	 ?CreateStockObject@CGdiObject@@QAEHH@Z ; CGdiObject::CreateStockObject
  01b33	85 c0		 test	 eax, eax
  01b35	75 28		 jne	 SHORT $L187641

; 516  :          return FALSE;

  01b37	c7 45 84 00 00
	00 00		 mov	 DWORD PTR $T188892[ebp], 0
  01b3e	c7 45 fc ff ff
	ff ff		 mov	 DWORD PTR __$EHRec$[ebp+8], -1
  01b45	8b f4		 mov	 esi, esp
  01b47	8d 4d 1c	 lea	 ecx, DWORD PTR _strURL$[ebp]
  01b4a	ff 15 00 00 00
	00		 call	 DWORD PTR __imp_??1?$CStringT@DV?$StrTraitMFC_DLL@DV?$ChTraitsCRT@D@ATL@@@@@ATL@@QAE@XZ
  01b50	3b f4		 cmp	 esi, esp
  01b52	e8 00 00 00 00	 call	 __RTC_CheckEsp
  01b57	8b 45 84	 mov	 eax, DWORD PTR $T188892[ebp]
  01b5a	e9 3e 03 00 00	 jmp	 $L187636
$L187641:

; 517  :    }
; 518  : 
; 519  :    // title font defaults to bold version of content font
; 520  :    if ( NULL == m_pTitleFont )

  01b5f	8b 4d ec	 mov	 ecx, DWORD PTR _this$[ebp]
  01b62	83 b9 ac 00 00
	00 00		 cmp	 DWORD PTR [ecx+172], 0
  01b69	0f 85 b7 00 00
	00		 jne	 $L187650

; 521  :    {
; 522  :       m_pTitleFont = new CFont;

  01b6f	68 0a 02 00 00	 push	 522			; 0000020aH
  01b74	68 00 00 00 00	 push	 OFFSET FLAT:_THIS_FILE
  01b79	6a 08		 push	 8
  01b7b	e8 00 00 00 00	 call	 ??2CObject@@SGPAXIPBDH@Z ; CObject::operator new
  01b80	89 85 7c ff ff
	ff		 mov	 DWORD PTR $T188894[ebp], eax
  01b86	c6 45 fc 02	 mov	 BYTE PTR __$EHRec$[ebp+8], 2
  01b8a	83 bd 7c ff ff
	ff 00		 cmp	 DWORD PTR $T188894[ebp], 0
  01b91	74 13		 je	 SHORT $L188895
  01b93	8b 8d 7c ff ff
	ff		 mov	 ecx, DWORD PTR $T188894[ebp]
  01b99	e8 00 00 00 00	 call	 ??0CFont@@QAE@XZ	; CFont::CFont
  01b9e	89 85 54 ff ff
	ff		 mov	 DWORD PTR tv155[ebp], eax
  01ba4	eb 0a		 jmp	 SHORT $L188896
$L188895:
  01ba6	c7 85 54 ff ff
	ff 00 00 00 00	 mov	 DWORD PTR tv155[ebp], 0
$L188896:
  01bb0	8b 95 54 ff ff
	ff		 mov	 edx, DWORD PTR tv155[ebp]
  01bb6	89 55 80	 mov	 DWORD PTR $T188893[ebp], edx
  01bb9	c6 45 fc 00	 mov	 BYTE PTR __$EHRec$[ebp+8], 0
  01bbd	8b 45 ec	 mov	 eax, DWORD PTR _this$[ebp]
  01bc0	8b 4d 80	 mov	 ecx, DWORD PTR $T188893[ebp]
  01bc3	89 88 ac 00 00
	00		 mov	 DWORD PTR [eax+172], ecx

; 523  :       LOGFONT LogFont;
; 524  :       m_pContentFont->GetLogFont(&LogFont);

  01bc9	8d 55 ac	 lea	 edx, DWORD PTR _LogFont$187657[ebp]
  01bcc	52		 push	 edx
  01bcd	8b 45 ec	 mov	 eax, DWORD PTR _this$[ebp]
  01bd0	8b 88 b0 00 00
	00		 mov	 ecx, DWORD PTR [eax+176]
  01bd6	e8 00 00 00 00	 call	 ?GetLogFont@CFont@@QAEHPAUtagLOGFONTA@@@Z ; CFont::GetLogFont

; 525  :       LogFont.lfWeight = FW_BOLD;

  01bdb	c7 45 bc bc 02
	00 00		 mov	 DWORD PTR _LogFont$187657[ebp+16], 700 ; 000002bcH

; 526  :       if ( !m_pTitleFont->CreateFontIndirect(&LogFont) )

  01be2	8d 4d ac	 lea	 ecx, DWORD PTR _LogFont$187657[ebp]
  01be5	51		 push	 ecx
  01be6	8b 55 ec	 mov	 edx, DWORD PTR _this$[ebp]
  01be9	8b 8a ac 00 00
	00		 mov	 ecx, DWORD PTR [edx+172]
  01bef	e8 00 00 00 00	 call	 ?CreateFontIndirectA@CFont@@QAEHPBUtagLOGFONTA@@@Z ; CFont::CreateFontIndirectA
  01bf4	85 c0		 test	 eax, eax
  01bf6	75 2e		 jne	 SHORT $L187650

; 527  :          return FALSE;

  01bf8	c7 85 78 ff ff
	ff 00 00 00 00	 mov	 DWORD PTR $T188897[ebp], 0
  01c02	c7 45 fc ff ff
	ff ff		 mov	 DWORD PTR __$EHRec$[ebp+8], -1
  01c09	8b f4		 mov	 esi, esp
  01c0b	8d 4d 1c	 lea	 ecx, DWORD PTR _strURL$[ebp]
  01c0e	ff 15 00 00 00
	00		 call	 DWORD PTR __imp_??1?$CStringT@DV?$StrTraitMFC_DLL@DV?$ChTraitsCRT@D@ATL@@@@@ATL@@QAE@XZ
  01c14	3b f4		 cmp	 esi, esp
  01c16	e8 00 00 00 00	 call	 __RTC_CheckEsp
  01c1b	8b 85 78 ff ff
	ff		 mov	 eax, DWORD PTR $T188897[ebp]
  01c21	e9 77 02 00 00	 jmp	 $L187636
$L187650:

; 528  :    }
; 529  : 
; 530  :    ATOM wndClass = GetClassAtom(!(m_unOptions&unDISABLE_XP_SHADOW));

  01c26	8b 45 ec	 mov	 eax, DWORD PTR _this$[ebp]
  01c29	8b 88 84 00 00
	00		 mov	 ecx, DWORD PTR [eax+132]
  01c2f	81 e1 00 20 00
	00		 and	 ecx, 8192		; 00002000H
  01c35	f7 d9		 neg	 ecx
  01c37	1b c9		 sbb	 ecx, ecx
  01c39	41		 inc	 ecx
  01c3a	51		 push	 ecx
  01c3b	e8 00 00 00 00	 call	 ?GetClassAtom@CBalloonHelp@@KAGH@Z ; CBalloonHelp::GetClassAtom
  01c40	83 c4 04	 add	 esp, 4
  01c43	66 89 45 a4	 mov	 WORD PTR _wndClass$[ebp], ax

; 531  :    if ( NULL == wndClass )  // couldn't register class

  01c47	0f b7 55 a4	 movzx	 edx, WORD PTR _wndClass$[ebp]
  01c4b	85 d2		 test	 edx, edx
  01c4d	75 2e		 jne	 SHORT $L187661

; 532  :       return FALSE;

  01c4f	c7 85 74 ff ff
	ff 00 00 00 00	 mov	 DWORD PTR $T188898[ebp], 0
  01c59	c7 45 fc ff ff
	ff ff		 mov	 DWORD PTR __$EHRec$[ebp+8], -1
  01c60	8b f4		 mov	 esi, esp
  01c62	8d 4d 1c	 lea	 ecx, DWORD PTR _strURL$[ebp]
  01c65	ff 15 00 00 00
	00		 call	 DWORD PTR __imp_??1?$CStringT@DV?$StrTraitMFC_DLL@DV?$ChTraitsCRT@D@ATL@@@@@ATL@@QAE@XZ
  01c6b	3b f4		 cmp	 esi, esp
  01c6d	e8 00 00 00 00	 call	 __RTC_CheckEsp
  01c72	8b 85 74 ff ff
	ff		 mov	 eax, DWORD PTR $T188898[ebp]
  01c78	e9 20 02 00 00	 jmp	 $L187636
$L187661:

; 533  : 
; 534  :    // check system settings: if fade effects are disabled or unavailable, disable here too
; 535  :    BOOL bFade = FALSE;

  01c7d	c7 45 9c 00 00
	00 00		 mov	 DWORD PTR _bFade$[ebp], 0

; 536  :    ::SystemParametersInfo(SPI_GETTOOLTIPANIMATION, 0, &bFade, 0);

  01c84	8b f4		 mov	 esi, esp
  01c86	6a 00		 push	 0
  01c88	8d 45 9c	 lea	 eax, DWORD PTR _bFade$[ebp]
  01c8b	50		 push	 eax
  01c8c	6a 00		 push	 0
  01c8e	68 16 10 00 00	 push	 4118			; 00001016H
  01c93	ff 15 00 00 00
	00		 call	 DWORD PTR __imp__SystemParametersInfoA@16
  01c99	3b f4		 cmp	 esi, esp
  01c9b	e8 00 00 00 00	 call	 __RTC_CheckEsp

; 537  :    if (bFade)

  01ca0	83 7d 9c 00	 cmp	 DWORD PTR _bFade$[ebp], 0
  01ca4	74 1c		 je	 SHORT $L187664

; 538  :       ::SystemParametersInfo(SPI_GETTOOLTIPFADE, 0, &bFade, 0);

  01ca6	8b f4		 mov	 esi, esp
  01ca8	6a 00		 push	 0
  01caa	8d 4d 9c	 lea	 ecx, DWORD PTR _bFade$[ebp]
  01cad	51		 push	 ecx
  01cae	6a 00		 push	 0
  01cb0	68 18 10 00 00	 push	 4120			; 00001018H
  01cb5	ff 15 00 00 00
	00		 call	 DWORD PTR __imp__SystemParametersInfoA@16
  01cbb	3b f4		 cmp	 esi, esp
  01cbd	e8 00 00 00 00	 call	 __RTC_CheckEsp
$L187664:

; 539  :    if (!bFade || NULL == m_fnAnimateWindow)

  01cc2	83 7d 9c 00	 cmp	 DWORD PTR _bFade$[ebp], 0
  01cc6	74 09		 je	 SHORT $L187666
  01cc8	8b 55 ec	 mov	 edx, DWORD PTR _this$[ebp]
  01ccb	83 7a 74 00	 cmp	 DWORD PTR [edx+116], 0
  01ccf	75 18		 jne	 SHORT $L187665
$L187666:

; 540  :       m_unOptions |= unDISABLE_FADE;

  01cd1	8b 45 ec	 mov	 eax, DWORD PTR _this$[ebp]
  01cd4	8b 88 84 00 00
	00		 mov	 ecx, DWORD PTR [eax+132]
  01cda	81 c9 00 c0 00
	00		 or	 ecx, 49152		; 0000c000H
  01ce0	8b 55 ec	 mov	 edx, DWORD PTR _this$[ebp]
  01ce3	89 8a 84 00 00
	00		 mov	 DWORD PTR [edx+132], ecx
$L187665:

; 541  : 
; 542  :    // create invisible at arbitrary position; then position, set region, and finally show
; 543  : 
; 544  :    // the idea with WS_EX_TOOLWINDOW is, you can't switch to this using alt+tab
; 545  :    DWORD dwExStyle = WS_EX_TOOLWINDOW;

  01ce9	c7 45 94 80 00
	00 00		 mov	 DWORD PTR _dwExStyle$[ebp], 128 ; 00000080H

; 546  :    if ( m_unOptions&unSHOW_TOPMOST )      // make topmost, if requested

  01cf0	8b 45 ec	 mov	 eax, DWORD PTR _this$[ebp]
  01cf3	8b 88 84 00 00
	00		 mov	 ecx, DWORD PTR [eax+132]
  01cf9	81 e1 00 10 00
	00		 and	 ecx, 4096		; 00001000H
  01cff	74 09		 je	 SHORT $L187668

; 547  :       dwExStyle |= WS_EX_TOPMOST;

  01d01	8b 55 94	 mov	 edx, DWORD PTR _dwExStyle$[ebp]
  01d04	83 ca 08	 or	 edx, 8
  01d07	89 55 94	 mov	 DWORD PTR _dwExStyle$[ebp], edx
$L187668:

; 548  :    if ( !CreateEx(dwExStyle, (LPCTSTR)wndClass, strTitle, WS_POPUP, CRect(0,0,10,10), pParentWnd, 0, NULL) )

  01d0a	8b f4		 mov	 esi, esp
  01d0c	6a 00		 push	 0
  01d0e	6a 00		 push	 0
  01d10	8b 45 18	 mov	 eax, DWORD PTR _pParentWnd$[ebp]
  01d13	50		 push	 eax
  01d14	6a 0a		 push	 10			; 0000000aH
  01d16	6a 0a		 push	 10			; 0000000aH
  01d18	6a 00		 push	 0
  01d1a	6a 00		 push	 0
  01d1c	8d 8d 64 ff ff
	ff		 lea	 ecx, DWORD PTR $T188899[ebp]
  01d22	e8 00 00 00 00	 call	 ??0CRect@@QAE@HHHH@Z	; CRect::CRect
  01d27	50		 push	 eax
  01d28	68 00 00 00 80	 push	 -2147483648		; 80000000H
  01d2d	8b fc		 mov	 edi, esp
  01d2f	8b 4d 08	 mov	 ecx, DWORD PTR _strTitle$[ebp]
  01d32	ff 15 00 00 00
	00		 call	 DWORD PTR __imp_??B?$CSimpleStringT@D$00@ATL@@QBEPBDXZ
  01d38	3b fc		 cmp	 edi, esp
  01d3a	e8 00 00 00 00	 call	 __RTC_CheckEsp
  01d3f	50		 push	 eax
  01d40	0f b7 4d a4	 movzx	 ecx, WORD PTR _wndClass$[ebp]
  01d44	51		 push	 ecx
  01d45	8b 55 94	 mov	 edx, DWORD PTR _dwExStyle$[ebp]
  01d48	52		 push	 edx
  01d49	8b 45 ec	 mov	 eax, DWORD PTR _this$[ebp]
  01d4c	8b 10		 mov	 edx, DWORD PTR [eax]
  01d4e	8b 4d ec	 mov	 ecx, DWORD PTR _this$[ebp]
  01d51	ff 52 60	 call	 DWORD PTR [edx+96]
  01d54	3b f4		 cmp	 esi, esp
  01d56	e8 00 00 00 00	 call	 __RTC_CheckEsp
  01d5b	85 c0		 test	 eax, eax
  01d5d	75 2e		 jne	 SHORT $L187671

; 549  :       return FALSE;

  01d5f	c7 85 60 ff ff
	ff 00 00 00 00	 mov	 DWORD PTR $T188900[ebp], 0
  01d69	c7 45 fc ff ff
	ff ff		 mov	 DWORD PTR __$EHRec$[ebp+8], -1
  01d70	8b f4		 mov	 esi, esp
  01d72	8d 4d 1c	 lea	 ecx, DWORD PTR _strURL$[ebp]
  01d75	ff 15 00 00 00
	00		 call	 DWORD PTR __imp_??1?$CStringT@DV?$StrTraitMFC_DLL@DV?$ChTraitsCRT@D@ATL@@@@@ATL@@QAE@XZ
  01d7b	3b f4		 cmp	 esi, esp
  01d7d	e8 00 00 00 00	 call	 __RTC_CheckEsp
  01d82	8b 85 60 ff ff
	ff		 mov	 eax, DWORD PTR $T188900[ebp]
  01d88	e9 10 01 00 00	 jmp	 $L187636
$L187671:

; 550  :    PositionWindow();

  01d8d	8b 4d ec	 mov	 ecx, DWORD PTR _this$[ebp]
  01d90	e8 00 00 00 00	 call	 ?PositionWindow@CBalloonHelp@@IAEXXZ ; CBalloonHelp::PositionWindow

; 551  : 
; 552  :    if ( (m_unOptions&unCLOSE_ON_MOUSE_MOVE)
; 553  :       ||(m_unOptions&unCLOSE_ON_LBUTTON_UP)
; 554  :       ||(m_unOptions&unCLOSE_ON_LBUTTON_DOWN)
; 555  :       ||(m_unOptions&unCLOSE_ON_MBUTTON_UP)
; 556  :       ||(m_unOptions&unCLOSE_ON_MBUTTON_DOWN)
; 557  :       ||(m_unOptions&unCLOSE_ON_RBUTTON_UP)
; 558  :       ||(m_unOptions&unCLOSE_ON_RBUTTON_DOWN) )

  01d95	8b 45 ec	 mov	 eax, DWORD PTR _this$[ebp]
  01d98	8b 88 84 00 00
	00		 mov	 ecx, DWORD PTR [eax+132]
  01d9e	83 e1 40	 and	 ecx, 64			; 00000040H
  01da1	75 54		 jne	 SHORT $L187674
  01da3	8b 55 ec	 mov	 edx, DWORD PTR _this$[ebp]
  01da6	8b 82 84 00 00
	00		 mov	 eax, DWORD PTR [edx+132]
  01dac	83 e0 01	 and	 eax, 1
  01daf	75 46		 jne	 SHORT $L187674
  01db1	8b 4d ec	 mov	 ecx, DWORD PTR _this$[ebp]
  01db4	8b 91 84 00 00
	00		 mov	 edx, DWORD PTR [ecx+132]
  01dba	83 e2 08	 and	 edx, 8
  01dbd	75 38		 jne	 SHORT $L187674
  01dbf	8b 45 ec	 mov	 eax, DWORD PTR _this$[ebp]
  01dc2	8b 88 84 00 00
	00		 mov	 ecx, DWORD PTR [eax+132]
  01dc8	83 e1 02	 and	 ecx, 2
  01dcb	75 2a		 jne	 SHORT $L187674
  01dcd	8b 55 ec	 mov	 edx, DWORD PTR _this$[ebp]
  01dd0	8b 82 84 00 00
	00		 mov	 eax, DWORD PTR [edx+132]
  01dd6	83 e0 10	 and	 eax, 16			; 00000010H
  01dd9	75 1c		 jne	 SHORT $L187674
  01ddb	8b 4d ec	 mov	 ecx, DWORD PTR _this$[ebp]
  01dde	8b 91 84 00 00
	00		 mov	 edx, DWORD PTR [ecx+132]
  01de4	83 e2 04	 and	 edx, 4
  01de7	75 0e		 jne	 SHORT $L187674
  01de9	8b 45 ec	 mov	 eax, DWORD PTR _this$[ebp]
  01dec	8b 88 84 00 00
	00		 mov	 ecx, DWORD PTR [eax+132]
  01df2	83 e1 20	 and	 ecx, 32			; 00000020H
  01df5	74 21		 je	 SHORT $L187673
$L187674:

; 559  :    {
; 560  :       ::GetCursorPos(&m_ptMouseOrig);

  01df7	8b 55 ec	 mov	 edx, DWORD PTR _this$[ebp]
  01dfa	81 c2 d4 00 00
	00		 add	 edx, 212		; 000000d4H
  01e00	8b f4		 mov	 esi, esp
  01e02	52		 push	 edx
  01e03	ff 15 00 00 00
	00		 call	 DWORD PTR __imp__GetCursorPos@4
  01e09	3b f4		 cmp	 esi, esp
  01e0b	e8 00 00 00 00	 call	 __RTC_CheckEsp

; 561  :       SetMouseHook();

  01e10	8b 4d ec	 mov	 ecx, DWORD PTR _this$[ebp]
  01e13	e8 00 00 00 00	 call	 ?SetMouseHook@CBalloonHelp@@AAEXXZ ; CBalloonHelp::SetMouseHook
$L187673:

; 562  :    }
; 563  : 
; 564  :    // these need to take effect even if the window receiving them
; 565  :    // is not owned by this process.  So, if this process does not
; 566  :    // already have the mouse captured, capture it!
; 567  :    if ( (m_unOptions&unCLOSE_ON_LBUTTON_UP)
; 568  :       ||(m_unOptions&unCLOSE_ON_MBUTTON_UP)
; 569  :       ||(m_unOptions&unCLOSE_ON_RBUTTON_UP) )

  01e18	8b 45 ec	 mov	 eax, DWORD PTR _this$[ebp]
  01e1b	8b 88 84 00 00
	00		 mov	 ecx, DWORD PTR [eax+132]
  01e21	83 e1 01	 and	 ecx, 1
  01e24	75 1c		 jne	 SHORT $L187676
  01e26	8b 55 ec	 mov	 edx, DWORD PTR _this$[ebp]
  01e29	8b 82 84 00 00
	00		 mov	 eax, DWORD PTR [edx+132]
  01e2f	83 e0 02	 and	 eax, 2
  01e32	75 0e		 jne	 SHORT $L187676
  01e34	8b 4d ec	 mov	 ecx, DWORD PTR _this$[ebp]
  01e37	8b 91 84 00 00
	00		 mov	 edx, DWORD PTR [ecx+132]
  01e3d	83 e2 04	 and	 edx, 4
  01e40	74 11		 je	 SHORT $L187675
$L187676:

; 570  :    {
; 571  :       // no, i don't particularly need or want to deal with a situation
; 572  :       // where a balloon is being created and another program has captured
; 573  :       // the mouse.  If you need it, it shouldn't be too hard, just do it here.
; 574  :       if ( NULL == GetCapture() )

  01e42	e8 00 00 00 00	 call	 ?GetCapture@CWnd@@SGPAV1@XZ ; CWnd::GetCapture
  01e47	85 c0		 test	 eax, eax
  01e49	75 08		 jne	 SHORT $L187675

; 575  :          SetCapture();

  01e4b	8b 4d ec	 mov	 ecx, DWORD PTR _this$[ebp]
  01e4e	e8 00 00 00 00	 call	 ?SetCapture@CWnd@@QAEPAV1@XZ ; CWnd::SetCapture
$L187675:

; 576  :    }
; 577  : 
; 578  :    if ( m_unOptions&unCLOSE_ON_KEYPRESS )

  01e53	8b 45 ec	 mov	 eax, DWORD PTR _this$[ebp]
  01e56	8b 88 84 00 00
	00		 mov	 ecx, DWORD PTR [eax+132]
  01e5c	81 e1 80 00 00
	00		 and	 ecx, 128		; 00000080H
  01e62	74 08		 je	 SHORT $L187678

; 579  :       SetKeyboardHook();

  01e64	8b 4d ec	 mov	 ecx, DWORD PTR _this$[ebp]
  01e67	e8 00 00 00 00	 call	 ?SetKeyboardHook@CBalloonHelp@@AAEXXZ ; CBalloonHelp::SetKeyboardHook
$L187678:

; 580  : 
; 581  :    ShowBalloon();

  01e6c	8b 4d ec	 mov	 ecx, DWORD PTR _this$[ebp]
  01e6f	e8 00 00 00 00	 call	 ?ShowBalloon@CBalloonHelp@@IAEXXZ ; CBalloonHelp::ShowBalloon

; 582  :    return TRUE;

  01e74	c7 85 5c ff ff
	ff 01 00 00 00	 mov	 DWORD PTR $T188901[ebp], 1
  01e7e	c7 45 fc ff ff
	ff ff		 mov	 DWORD PTR __$EHRec$[ebp+8], -1
  01e85	8b f4		 mov	 esi, esp
  01e87	8d 4d 1c	 lea	 ecx, DWORD PTR _strURL$[ebp]
  01e8a	ff 15 00 00 00
	00		 call	 DWORD PTR __imp_??1?$CStringT@DV?$StrTraitMFC_DLL@DV?$ChTraitsCRT@D@ATL@@@@@ATL@@QAE@XZ
  01e90	3b f4		 cmp	 esi, esp
  01e92	e8 00 00 00 00	 call	 __RTC_CheckEsp
  01e97	8b 85 5c ff ff
	ff		 mov	 eax, DWORD PTR $T188901[ebp]
$L187636:

; 583  : }

  01e9d	52		 push	 edx
  01e9e	8b cd		 mov	 ecx, ebp
  01ea0	50		 push	 eax
  01ea1	8d 15 00 00 00
	00		 lea	 edx, DWORD PTR $L188912
  01ea7	e8 00 00 00 00	 call	 @_RTC_CheckStackVars@8
  01eac	58		 pop	 eax
  01ead	5a		 pop	 edx
  01eae	8b 4d f4	 mov	 ecx, DWORD PTR __$EHRec$[ebp]
  01eb1	64 89 0d 00 00
	00 00		 mov	 DWORD PTR fs:__except_list, ecx
  01eb8	8b 4d f0	 mov	 ecx, DWORD PTR __$ArrayPad$[ebp]
  01ebb	e8 00 00 00 00	 call	 @__security_check_cookie@4
  01ec0	5f		 pop	 edi
  01ec1	5e		 pop	 esi
  01ec2	81 c4 ac 00 00
	00		 add	 esp, 172		; 000000acH
  01ec8	3b ec		 cmp	 ebp, esp
  01eca	e8 00 00 00 00	 call	 __RTC_CheckEsp
  01ecf	8b e5		 mov	 esp, ebp
  01ed1	5d		 pop	 ebp
  01ed2	c2 20 00	 ret	 32			; 00000020H
$L188912:
  01ed5	02 00 00 00	 DD	 2
  01ed9	00 00 00 00	 DD	 $L188911
$L188911:
  01edd	ac ff ff ff	 DD	 -84			; ffffffacH
  01ee1	3c 00 00 00	 DD	 60			; 0000003cH
  01ee5	00 00 00 00	 DD	 $L188907
  01ee9	9c ff ff ff	 DD	 -100			; ffffff9cH
  01eed	04 00 00 00	 DD	 4
  01ef1	00 00 00 00	 DD	 $L188908
$L188908:
  01ef5	62		 DB	 98			; 00000062H
  01ef6	46		 DB	 70			; 00000046H
  01ef7	61		 DB	 97			; 00000061H
  01ef8	64		 DB	 100			; 00000064H
  01ef9	65		 DB	 101			; 00000065H
  01efa	00		 DB	 0
$L188907:
  01efb	4c		 DB	 76			; 0000004cH
  01efc	6f		 DB	 111			; 0000006fH
  01efd	67		 DB	 103			; 00000067H
  01efe	46		 DB	 70			; 00000046H
  01eff	6f		 DB	 111			; 0000006fH
  01f00	6e		 DB	 110			; 0000006eH
  01f01	74		 DB	 116			; 00000074H
  01f02	00		 DB	 0
_TEXT	ENDS
text$x	SEGMENT
$L188902:
  00127	8b f4		 mov	 esi, esp
  00129	8d 4d 1c	 lea	 ecx, DWORD PTR _strURL$[ebp]
  0012c	ff 15 00 00 00
	00		 call	 DWORD PTR __imp_??1?$CStringT@DV?$StrTraitMFC_DLL@DV?$ChTraitsCRT@D@ATL@@@@@ATL@@QAE@XZ
  00132	3b f4		 cmp	 esi, esp
  00134	e9 00 00 00 00	 jmp	 __RTC_CheckEsp
$L188903:
  00139	68 02 02 00 00	 push	 514			; 00000202H
  0013e	68 00 00 00 00	 push	 OFFSET FLAT:_THIS_FILE
  00143	8b 45 88	 mov	 eax, DWORD PTR $T188889[ebp]
  00146	50		 push	 eax
  00147	e8 00 00 00 00	 call	 ??3CObject@@SGXPAXPBDH@Z ; CObject::operator delete
  0014c	c3		 ret	 0
$L188904:
  0014d	68 0a 02 00 00	 push	 522			; 0000020aH
  00152	68 00 00 00 00	 push	 OFFSET FLAT:_THIS_FILE
  00157	8b 85 7c ff ff
	ff		 mov	 eax, DWORD PTR $T188894[ebp]
  0015d	50		 push	 eax
  0015e	e8 00 00 00 00	 call	 ??3CObject@@SGXPAXPBDH@Z ; CObject::operator delete
  00163	c3		 ret	 0
__ehhandler$?Create@CBalloonHelp@@QAEHABV?$CStringT@DV?$StrTraitMFC_DLL@DV?$ChTraitsCRT@D@ATL@@@@@ATL@@0ABVCPoint@@IPAVCWnd@@V23@IPAUHICON__@@@Z:
  00164	b8 00 00 00 00	 mov	 eax, OFFSET FLAT:$T188906
  00169	e9 00 00 00 00	 jmp	 ___CxxFrameHandler
text$x	ENDS
?Create@CBalloonHelp@@QAEHABV?$CStringT@DV?$StrTraitMFC_DLL@DV?$ChTraitsCRT@D@ATL@@@@@ATL@@0ABVCPoint@@IPAVCWnd@@V23@IPAUHICON__@@@Z ENDP ; CBalloonHelp::Create
PUBLIC	?GetAnchorPoint@CBalloonHelp@@IAE?AVCPoint@@XZ	; CBalloonHelp::GetAnchorPoint
EXTRN	__imp__ClientToScreen@8:NEAR
; Function compile flags: /Odt /RTCsu
_TEXT	SEGMENT
_ptAnchor$ = -16					; size = 8
_this$ = -4						; size = 4
___$ReturnUdt$ = 8					; size = 4
?GetAnchorPoint@CBalloonHelp@@IAE?AVCPoint@@XZ PROC NEAR ; CBalloonHelp::GetAnchorPoint
; _this$ = ecx

; 587  : {

  01f10	55		 push	 ebp
  01f11	8b ec		 mov	 ebp, esp
  01f13	83 ec 14	 sub	 esp, 20			; 00000014H
  01f16	56		 push	 esi
  01f17	b8 cc cc cc cc	 mov	 eax, -858993460		; ccccccccH
  01f1c	89 45 ec	 mov	 DWORD PTR [ebp-20], eax
  01f1f	89 45 f0	 mov	 DWORD PTR [ebp-16], eax
  01f22	89 45 f4	 mov	 DWORD PTR [ebp-12], eax
  01f25	89 45 f8	 mov	 DWORD PTR [ebp-8], eax
  01f28	89 45 fc	 mov	 DWORD PTR [ebp-4], eax
  01f2b	89 4d fc	 mov	 DWORD PTR _this$[ebp], ecx

; 588  :    CPoint ptAnchor = m_ptAnchor;

  01f2e	8b 45 fc	 mov	 eax, DWORD PTR _this$[ebp]
  01f31	8b 88 9c 00 00
	00		 mov	 ecx, DWORD PTR [eax+156]
  01f37	8b 90 a0 00 00
	00		 mov	 edx, DWORD PTR [eax+160]
  01f3d	89 4d f0	 mov	 DWORD PTR _ptAnchor$[ebp], ecx
  01f40	89 55 f4	 mov	 DWORD PTR _ptAnchor$[ebp+4], edx

; 589  :    // assume if window was given, point is in client coords
; 590  :    if ( NULL != m_hwndAnchor )

  01f43	8b 45 fc	 mov	 eax, DWORD PTR _this$[ebp]
  01f46	83 b8 98 00 00
	00 00		 cmp	 DWORD PTR [eax+152], 0
  01f4d	74 1d		 je	 SHORT $L187685

; 591  :       ::ClientToScreen(m_hwndAnchor, &ptAnchor);

  01f4f	8b f4		 mov	 esi, esp
  01f51	8d 4d f0	 lea	 ecx, DWORD PTR _ptAnchor$[ebp]
  01f54	51		 push	 ecx
  01f55	8b 55 fc	 mov	 edx, DWORD PTR _this$[ebp]
  01f58	8b 82 98 00 00
	00		 mov	 eax, DWORD PTR [edx+152]
  01f5e	50		 push	 eax
  01f5f	ff 15 00 00 00
	00		 call	 DWORD PTR __imp__ClientToScreen@8
  01f65	3b f4		 cmp	 esi, esp
  01f67	e8 00 00 00 00	 call	 __RTC_CheckEsp
$L187685:

; 592  :    return ptAnchor;

  01f6c	8b 4d 08	 mov	 ecx, DWORD PTR ___$ReturnUdt$[ebp]
  01f6f	8b 55 f0	 mov	 edx, DWORD PTR _ptAnchor$[ebp]
  01f72	89 11		 mov	 DWORD PTR [ecx], edx
  01f74	8b 45 f4	 mov	 eax, DWORD PTR _ptAnchor$[ebp+4]
  01f77	89 41 04	 mov	 DWORD PTR [ecx+4], eax
  01f7a	8b 45 08	 mov	 eax, DWORD PTR ___$ReturnUdt$[ebp]

; 593  : }

  01f7d	52		 push	 edx
  01f7e	8b cd		 mov	 ecx, ebp
  01f80	50		 push	 eax
  01f81	8d 15 00 00 00
	00		 lea	 edx, DWORD PTR $L188917
  01f87	e8 00 00 00 00	 call	 @_RTC_CheckStackVars@8
  01f8c	58		 pop	 eax
  01f8d	5a		 pop	 edx
  01f8e	5e		 pop	 esi
  01f8f	83 c4 14	 add	 esp, 20			; 00000014H
  01f92	3b ec		 cmp	 ebp, esp
  01f94	e8 00 00 00 00	 call	 __RTC_CheckEsp
  01f99	8b e5		 mov	 esp, ebp
  01f9b	5d		 pop	 ebp
  01f9c	c2 04 00	 ret	 4
$L188917:
  01f9f	01 00 00 00	 DD	 1
  01fa3	00 00 00 00	 DD	 $L188916
$L188916:
  01fa7	f0 ff ff ff	 DD	 -16			; fffffff0H
  01fab	08 00 00 00	 DD	 8
  01faf	00 00 00 00	 DD	 $L188915
$L188915:
  01fb3	70		 DB	 112			; 00000070H
  01fb4	74		 DB	 116			; 00000074H
  01fb5	41		 DB	 65			; 00000041H
  01fb6	6e		 DB	 110			; 0000006eH
  01fb7	63		 DB	 99			; 00000063H
  01fb8	68		 DB	 104			; 00000068H
  01fb9	6f		 DB	 111			; 0000006fH
  01fba	72		 DB	 114			; 00000072H
  01fbb	00		 DB	 0
?GetAnchorPoint@CBalloonHelp@@IAE?AVCPoint@@XZ ENDP	; CBalloonHelp::GetAnchorPoint
_TEXT	ENDS
PUBLIC	?GetAnchorScreenBounds@CBalloonHelp@@IAEXAAVCRect@@@Z ; CBalloonHelp::GetAnchorScreenBounds
EXTRN	?IsRectEmpty@CRect@@QBEHXZ:NEAR			; CRect::IsRectEmpty
EXTRN	??4CRect@@QAEXABUtagRECT@@@Z:NEAR		; CRect::operator=
; Function compile flags: /Odt /RTCsu
_TEXT	SEGMENT
$T188920 = -72						; size = 8
$T188919 = -64						; size = 8
_mi$187694 = -52					; size = 40
_hMonitor$187691 = -8					; size = 4
_this$ = -4						; size = 4
_rect$ = 8						; size = 4
?GetAnchorScreenBounds@CBalloonHelp@@IAEXAAVCRect@@@Z PROC NEAR ; CBalloonHelp::GetAnchorScreenBounds
; _this$ = ecx

; 597  : {

  01fc0	55		 push	 ebp
  01fc1	8b ec		 mov	 ebp, esp
  01fc3	83 ec 48	 sub	 esp, 72			; 00000048H
  01fc6	57		 push	 edi
  01fc7	51		 push	 ecx
  01fc8	8d 7d b8	 lea	 edi, DWORD PTR [ebp-72]
  01fcb	b9 12 00 00 00	 mov	 ecx, 18			; 00000012H
  01fd0	b8 cc cc cc cc	 mov	 eax, -858993460		; ccccccccH
  01fd5	f3 ab		 rep stosd
  01fd7	59		 pop	 ecx
  01fd8	89 4d fc	 mov	 DWORD PTR _this$[ebp], ecx

; 598  :    if ( m_screenRect.IsRectEmpty() )

  01fdb	8b 4d fc	 mov	 ecx, DWORD PTR _this$[ebp]
  01fde	81 c1 bc 00 00
	00		 add	 ecx, 188		; 000000bcH
  01fe4	e8 00 00 00 00	 call	 ?IsRectEmpty@CRect@@QBEHXZ ; CRect::IsRectEmpty
  01fe9	85 c0		 test	 eax, eax
  01feb	74 4f		 je	 SHORT $L187690

; 599  :    {     
; 600  :       // get the nearest monitor to the anchor
; 601  :       HMONITOR hMonitor = MonitorFromPoint(GetAnchorPoint(), MONITOR_DEFAULTTONEAREST);

  01fed	8d 45 b8	 lea	 eax, DWORD PTR $T188920[ebp]
  01ff0	50		 push	 eax
  01ff1	8b 4d fc	 mov	 ecx, DWORD PTR _this$[ebp]
  01ff4	e8 00 00 00 00	 call	 ?GetAnchorPoint@CBalloonHelp@@IAE?AVCPoint@@XZ ; CBalloonHelp::GetAnchorPoint
  01ff9	8b 08		 mov	 ecx, DWORD PTR [eax]
  01ffb	8b 50 04	 mov	 edx, DWORD PTR [eax+4]
  01ffe	89 4d c0	 mov	 DWORD PTR $T188919[ebp], ecx
  02001	89 55 c4	 mov	 DWORD PTR $T188919[ebp+4], edx
  02004	6a 02		 push	 2
  02006	8b 45 c4	 mov	 eax, DWORD PTR $T188919[ebp+4]
  02009	50		 push	 eax
  0200a	8b 4d c0	 mov	 ecx, DWORD PTR $T188919[ebp]
  0200d	51		 push	 ecx
  0200e	e8 00 00 00 00	 call	 _xMonitorFromPoint@12
  02013	89 45 f8	 mov	 DWORD PTR _hMonitor$187691[ebp], eax

; 602  : 
; 603  :       // get the monitor bounds
; 604  :       MONITORINFO mi;
; 605  :       mi.cbSize = sizeof(mi);

  02016	c7 45 cc 28 00
	00 00		 mov	 DWORD PTR _mi$187694[ebp], 40 ; 00000028H

; 606  :       GetMonitorInfo(hMonitor, &mi);

  0201d	8d 55 cc	 lea	 edx, DWORD PTR _mi$187694[ebp]
  02020	52		 push	 edx
  02021	8b 45 f8	 mov	 eax, DWORD PTR _hMonitor$187691[ebp]
  02024	50		 push	 eax
  02025	e8 00 00 00 00	 call	 _xGetMonitorInfo@8

; 607  : 
; 608  :       // work area (area not obscured by task bar, etc.)
; 609  :       m_screenRect = mi.rcWork;

  0202a	8d 4d e0	 lea	 ecx, DWORD PTR _mi$187694[ebp+20]
  0202d	51		 push	 ecx
  0202e	8b 4d fc	 mov	 ecx, DWORD PTR _this$[ebp]
  02031	81 c1 bc 00 00
	00		 add	 ecx, 188		; 000000bcH
  02037	e8 00 00 00 00	 call	 ??4CRect@@QAEXABUtagRECT@@@Z ; CRect::operator=
$L187690:

; 610  :    }
; 611  :    rect = m_screenRect;

  0203c	8b 55 fc	 mov	 edx, DWORD PTR _this$[ebp]
  0203f	81 c2 bc 00 00
	00		 add	 edx, 188		; 000000bcH
  02045	8b 45 08	 mov	 eax, DWORD PTR _rect$[ebp]
  02048	8b 0a		 mov	 ecx, DWORD PTR [edx]
  0204a	89 08		 mov	 DWORD PTR [eax], ecx
  0204c	8b 4a 04	 mov	 ecx, DWORD PTR [edx+4]
  0204f	89 48 04	 mov	 DWORD PTR [eax+4], ecx
  02052	8b 4a 08	 mov	 ecx, DWORD PTR [edx+8]
  02055	89 48 08	 mov	 DWORD PTR [eax+8], ecx
  02058	8b 52 0c	 mov	 edx, DWORD PTR [edx+12]
  0205b	89 50 0c	 mov	 DWORD PTR [eax+12], edx

; 612  : }

  0205e	52		 push	 edx
  0205f	8b cd		 mov	 ecx, ebp
  02061	50		 push	 eax
  02062	8d 15 00 00 00
	00		 lea	 edx, DWORD PTR $L188923
  02068	e8 00 00 00 00	 call	 @_RTC_CheckStackVars@8
  0206d	58		 pop	 eax
  0206e	5a		 pop	 edx
  0206f	5f		 pop	 edi
  02070	83 c4 48	 add	 esp, 72			; 00000048H
  02073	3b ec		 cmp	 ebp, esp
  02075	e8 00 00 00 00	 call	 __RTC_CheckEsp
  0207a	8b e5		 mov	 esp, ebp
  0207c	5d		 pop	 ebp
  0207d	c2 04 00	 ret	 4
$L188923:
  02080	01 00 00 00	 DD	 1
  02084	00 00 00 00	 DD	 $L188922
$L188922:
  02088	cc ff ff ff	 DD	 -52			; ffffffccH
  0208c	28 00 00 00	 DD	 40			; 00000028H
  02090	00 00 00 00	 DD	 $L188921
$L188921:
  02094	6d		 DB	 109			; 0000006dH
  02095	69		 DB	 105			; 00000069H
  02096	00		 DB	 0
?GetAnchorScreenBounds@CBalloonHelp@@IAEXAAVCRect@@@Z ENDP ; CBalloonHelp::GetAnchorScreenBounds
_TEXT	ENDS
PUBLIC	?GetBalloonQuadrant@CBalloonHelp@@IAE?AW4BALLOON_QUADRANT@1@XZ ; CBalloonHelp::GetBalloonQuadrant
EXTRN	??0CRect@@QAE@XZ:NEAR				; CRect::CRect
EXTRN	?Width@CRect@@QBEHXZ:NEAR			; CRect::Width
EXTRN	?Height@CRect@@QBEHXZ:NEAR			; CRect::Height
; Function compile flags: /Odt /RTCsu
_TEXT	SEGMENT
_ptAnchor$ = -40					; size = 8
_rectDesktop$ = -24					; size = 16
_this$ = -4						; size = 4
?GetBalloonQuadrant@CBalloonHelp@@IAE?AW4BALLOON_QUADRANT@1@XZ PROC NEAR ; CBalloonHelp::GetBalloonQuadrant
; _this$ = ecx

; 617  : {

  020a0	55		 push	 ebp
  020a1	8b ec		 mov	 ebp, esp
  020a3	83 ec 2c	 sub	 esp, 44			; 0000002cH
  020a6	57		 push	 edi
  020a7	51		 push	 ecx
  020a8	8d 7d d4	 lea	 edi, DWORD PTR [ebp-44]
  020ab	b9 0b 00 00 00	 mov	 ecx, 11			; 0000000bH
  020b0	b8 cc cc cc cc	 mov	 eax, -858993460		; ccccccccH
  020b5	f3 ab		 rep stosd
  020b7	59		 pop	 ecx
  020b8	89 4d fc	 mov	 DWORD PTR _this$[ebp], ecx

; 618  :    CRect rectDesktop;

  020bb	8d 4d e8	 lea	 ecx, DWORD PTR _rectDesktop$[ebp]
  020be	e8 00 00 00 00	 call	 ??0CRect@@QAE@XZ	; CRect::CRect

; 619  :    GetAnchorScreenBounds(rectDesktop);

  020c3	8d 45 e8	 lea	 eax, DWORD PTR _rectDesktop$[ebp]
  020c6	50		 push	 eax
  020c7	8b 4d fc	 mov	 ecx, DWORD PTR _this$[ebp]
  020ca	e8 00 00 00 00	 call	 ?GetAnchorScreenBounds@CBalloonHelp@@IAEXAAVCRect@@@Z ; CBalloonHelp::GetAnchorScreenBounds

; 620  :    CPoint ptAnchor = GetAnchorPoint();

  020cf	8d 4d d8	 lea	 ecx, DWORD PTR _ptAnchor$[ebp]
  020d2	51		 push	 ecx
  020d3	8b 4d fc	 mov	 ecx, DWORD PTR _this$[ebp]
  020d6	e8 00 00 00 00	 call	 ?GetAnchorPoint@CBalloonHelp@@IAE?AVCPoint@@XZ ; CBalloonHelp::GetAnchorPoint

; 621  :    
; 622  :    if ( ptAnchor.y < rectDesktop.top + rectDesktop.Height()/2 )

  020db	8d 4d e8	 lea	 ecx, DWORD PTR _rectDesktop$[ebp]
  020de	e8 00 00 00 00	 call	 ?Height@CRect@@QBEHXZ	; CRect::Height
  020e3	99		 cdq
  020e4	2b c2		 sub	 eax, edx
  020e6	d1 f8		 sar	 eax, 1
  020e8	03 45 ec	 add	 eax, DWORD PTR _rectDesktop$[ebp+4]
  020eb	39 45 dc	 cmp	 DWORD PTR _ptAnchor$[ebp+4], eax
  020ee	7d 20		 jge	 SHORT $L187701

; 623  :    {
; 624  :       if ( ptAnchor.x < rectDesktop.left + rectDesktop.Width()/2 )

  020f0	8d 4d e8	 lea	 ecx, DWORD PTR _rectDesktop$[ebp]
  020f3	e8 00 00 00 00	 call	 ?Width@CRect@@QBEHXZ	; CRect::Width
  020f8	99		 cdq
  020f9	2b c2		 sub	 eax, edx
  020fb	d1 f8		 sar	 eax, 1
  020fd	03 45 e8	 add	 eax, DWORD PTR _rectDesktop$[ebp]
  02100	39 45 d8	 cmp	 DWORD PTR _ptAnchor$[ebp], eax
  02103	7d 07		 jge	 SHORT $L187702

; 625  :       {
; 626  :          return BQ_TOPLEFT;

  02105	b8 01 00 00 00	 mov	 eax, 1
  0210a	eb 25		 jmp	 SHORT $L187697
$L187702:

; 627  :       }
; 628  :       else
; 629  :       {
; 630  :          return BQ_TOPRIGHT;

  0210c	33 c0		 xor	 eax, eax
  0210e	eb 21		 jmp	 SHORT $L187697
$L187701:

; 631  :       }
; 632  :    }
; 633  :    else
; 634  :    {
; 635  :       if ( ptAnchor.x < rectDesktop.left + rectDesktop.Width()/2 )

  02110	8d 4d e8	 lea	 ecx, DWORD PTR _rectDesktop$[ebp]
  02113	e8 00 00 00 00	 call	 ?Width@CRect@@QBEHXZ	; CRect::Width
  02118	99		 cdq
  02119	2b c2		 sub	 eax, edx
  0211b	d1 f8		 sar	 eax, 1
  0211d	03 45 e8	 add	 eax, DWORD PTR _rectDesktop$[ebp]
  02120	39 45 d8	 cmp	 DWORD PTR _ptAnchor$[ebp], eax
  02123	7d 07		 jge	 SHORT $L187705

; 636  :       {
; 637  :          return BQ_BOTTOMLEFT;

  02125	b8 03 00 00 00	 mov	 eax, 3
  0212a	eb 05		 jmp	 SHORT $L187697
$L187705:

; 638  :       }
; 639  :       else
; 640  :       {
; 641  :          return BQ_BOTTOMRIGHT;

  0212c	b8 02 00 00 00	 mov	 eax, 2
$L187697:

; 642  :       }
; 643  :    }
; 644  : 
; 645  :    // unreachable
; 646  : }

  02131	52		 push	 edx
  02132	8b cd		 mov	 ecx, ebp
  02134	50		 push	 eax
  02135	8d 15 00 00 00
	00		 lea	 edx, DWORD PTR $L188928
  0213b	e8 00 00 00 00	 call	 @_RTC_CheckStackVars@8
  02140	58		 pop	 eax
  02141	5a		 pop	 edx
  02142	5f		 pop	 edi
  02143	83 c4 2c	 add	 esp, 44			; 0000002cH
  02146	3b ec		 cmp	 ebp, esp
  02148	e8 00 00 00 00	 call	 __RTC_CheckEsp
  0214d	8b e5		 mov	 esp, ebp
  0214f	5d		 pop	 ebp
  02150	c3		 ret	 0
$L188928:
  02151	02 00 00 00	 DD	 2
  02155	00 00 00 00	 DD	 $L188927
$L188927:
  02159	e8 ff ff ff	 DD	 -24			; ffffffe8H
  0215d	10 00 00 00	 DD	 16			; 00000010H
  02161	00 00 00 00	 DD	 $L188925
  02165	d8 ff ff ff	 DD	 -40			; ffffffd8H
  02169	08 00 00 00	 DD	 8
  0216d	00 00 00 00	 DD	 $L188926
$L188926:
  02171	70		 DB	 112			; 00000070H
  02172	74		 DB	 116			; 00000074H
  02173	41		 DB	 65			; 00000041H
  02174	6e		 DB	 110			; 0000006eH
  02175	63		 DB	 99			; 00000063H
  02176	68		 DB	 104			; 00000068H
  02177	6f		 DB	 111			; 0000006fH
  02178	72		 DB	 114			; 00000072H
  02179	00		 DB	 0
$L188925:
  0217a	72		 DB	 114			; 00000072H
  0217b	65		 DB	 101			; 00000065H
  0217c	63		 DB	 99			; 00000063H
  0217d	74		 DB	 116			; 00000074H
  0217e	44		 DB	 68			; 00000044H
  0217f	65		 DB	 101			; 00000065H
  02180	73		 DB	 115			; 00000073H
  02181	6b		 DB	 107			; 0000006bH
  02182	74		 DB	 116			; 00000074H
  02183	6f		 DB	 111			; 0000006fH
  02184	70		 DB	 112			; 00000070H
  02185	00		 DB	 0
?GetBalloonQuadrant@CBalloonHelp@@IAE?AW4BALLOON_QUADRANT@1@XZ ENDP ; CBalloonHelp::GetBalloonQuadrant
_TEXT	ENDS
EXTRN	?DeleteObject@CGdiObject@@QAEHXZ:NEAR		; CGdiObject::DeleteObject
EXTRN	??0CBrush@@QAE@XZ:NEAR				; CBrush::CBrush
EXTRN	?CreateSolidBrush@CBrush@@QAEHK@Z:NEAR		; CBrush::CreateSolidBrush
EXTRN	??1CBrush@@UAE@XZ:NEAR				; CBrush::~CBrush
EXTRN	?FillSolidRect@CDC@@QAEXPBUtagRECT@@K@Z:NEAR	; CDC::FillSolidRect
EXTRN	?OffsetRect@CRect@@QAEXHH@Z:NEAR		; CRect::OffsetRect
EXTRN	?OffsetRgn@CRgn@@QAEHHH@Z:NEAR			; CRgn::OffsetRgn
EXTRN	?GetWindowRect@CWnd@@QBEXPAUtagRECT@@@Z:NEAR	; CWnd::GetWindowRect
EXTRN	?GetClientRect@CWnd@@QBEXPAUtagRECT@@@Z:NEAR	; CWnd::GetClientRect
EXTRN	?ScreenToClient@CWnd@@QBEXPAUtagRECT@@@Z:NEAR	; CWnd::ScreenToClient
EXTRN	?FrameRgn@CDC@@QAEHPAVCRgn@@PAVCBrush@@HH@Z:NEAR ; CDC::FrameRgn
EXTRN	?SelectClipRgn@CDC@@QAEHPAVCRgn@@@Z:NEAR	; CDC::SelectClipRgn
EXTRN	?ExcludeClipRect@CDC@@QAEHPBUtagRECT@@@Z:NEAR	; CDC::ExcludeClipRect
xdata$x	SEGMENT
$T188942 DD	0ffffffffH
	DD	FLAT:$L188931
	DD	00H
	DD	FLAT:$L188932
$T188934 DD	019930520H
	DD	02H
	DD	FLAT:$T188942
	DD	2 DUP(00H)
	DD	2 DUP(00H)
; Function compile flags: /Odt /RTCsu
xdata$x	ENDS
_TEXT	SEGMENT
_blue$187722 = -108					; size = 4
_green$187719 = -104					; size = 4
_red$187717 = -100					; size = 4
_brushHL$187716 = -92					; size = 8
_brushFg$ = -76						; size = 8
_rectClient$ = -60					; size = 16
_rect$ = -36						; size = 16
_this$ = -16						; size = 4
__$EHRec$ = -12						; size = 12
_pDC$ = 8						; size = 4
?DrawNonClientArea@CBalloonHelp@@MAEXPAVCDC@@@Z PROC NEAR ; CBalloonHelp::DrawNonClientArea
; _this$ = ecx

; 650  : {

  02190	55		 push	 ebp
  02191	8b ec		 mov	 ebp, esp
  02193	6a ff		 push	 -1
  02195	68 00 00 00 00	 push	 __ehhandler$?DrawNonClientArea@CBalloonHelp@@MAEXPAVCDC@@@Z
  0219a	64 a1 00 00 00
	00		 mov	 eax, DWORD PTR fs:__except_list
  021a0	50		 push	 eax
  021a1	64 89 25 00 00
	00 00		 mov	 DWORD PTR fs:__except_list, esp
  021a8	83 ec 60	 sub	 esp, 96			; 00000060H
  021ab	56		 push	 esi
  021ac	57		 push	 edi
  021ad	51		 push	 ecx
  021ae	8d 7d 94	 lea	 edi, DWORD PTR [ebp-108]
  021b1	b9 18 00 00 00	 mov	 ecx, 24			; 00000018H
  021b6	b8 cc cc cc cc	 mov	 eax, -858993460		; ccccccccH
  021bb	f3 ab		 rep stosd
  021bd	59		 pop	 ecx
  021be	89 4d f0	 mov	 DWORD PTR _this$[ebp], ecx

; 651  :    CRect rect;

  021c1	8d 4d dc	 lea	 ecx, DWORD PTR _rect$[ebp]
  021c4	e8 00 00 00 00	 call	 ??0CRect@@QAE@XZ	; CRect::CRect

; 652  :    GetWindowRect(&rect);

  021c9	8d 45 dc	 lea	 eax, DWORD PTR _rect$[ebp]
  021cc	50		 push	 eax
  021cd	8b 4d f0	 mov	 ecx, DWORD PTR _this$[ebp]
  021d0	e8 00 00 00 00	 call	 ?GetWindowRect@CWnd@@QBEXPAUtagRECT@@@Z ; CWnd::GetWindowRect

; 653  :    ScreenToClient(&rect);

  021d5	8d 4d dc	 lea	 ecx, DWORD PTR _rect$[ebp]
  021d8	51		 push	 ecx
  021d9	8b 4d f0	 mov	 ecx, DWORD PTR _this$[ebp]
  021dc	e8 00 00 00 00	 call	 ?ScreenToClient@CWnd@@QBEXPAUtagRECT@@@Z ; CWnd::ScreenToClient

; 654  :    CRect rectClient;

  021e1	8d 4d c4	 lea	 ecx, DWORD PTR _rectClient$[ebp]
  021e4	e8 00 00 00 00	 call	 ??0CRect@@QAE@XZ	; CRect::CRect

; 655  :    GetClientRect(&rectClient);

  021e9	8d 55 c4	 lea	 edx, DWORD PTR _rectClient$[ebp]
  021ec	52		 push	 edx
  021ed	8b 4d f0	 mov	 ecx, DWORD PTR _this$[ebp]
  021f0	e8 00 00 00 00	 call	 ?GetClientRect@CWnd@@QBEXPAUtagRECT@@@Z ; CWnd::GetClientRect

; 656  :    rectClient.OffsetRect(-rect.left, -rect.top);

  021f5	8b 45 e0	 mov	 eax, DWORD PTR _rect$[ebp+4]
  021f8	f7 d8		 neg	 eax
  021fa	50		 push	 eax
  021fb	8b 4d dc	 mov	 ecx, DWORD PTR _rect$[ebp]
  021fe	f7 d9		 neg	 ecx
  02200	51		 push	 ecx
  02201	8d 4d c4	 lea	 ecx, DWORD PTR _rectClient$[ebp]
  02204	e8 00 00 00 00	 call	 ?OffsetRect@CRect@@QAEXHH@Z ; CRect::OffsetRect

; 657  :    rect.OffsetRect(-rect.left, -rect.top);

  02209	8b 55 e0	 mov	 edx, DWORD PTR _rect$[ebp+4]
  0220c	f7 da		 neg	 edx
  0220e	52		 push	 edx
  0220f	8b 45 dc	 mov	 eax, DWORD PTR _rect$[ebp]
  02212	f7 d8		 neg	 eax
  02214	50		 push	 eax
  02215	8d 4d dc	 lea	 ecx, DWORD PTR _rect$[ebp]
  02218	e8 00 00 00 00	 call	 ?OffsetRect@CRect@@QAEXHH@Z ; CRect::OffsetRect

; 658  :    pDC->ExcludeClipRect(&rectClient);

  0221d	8d 4d c4	 lea	 ecx, DWORD PTR _rectClient$[ebp]
  02220	51		 push	 ecx
  02221	8b 4d 08	 mov	 ecx, DWORD PTR _pDC$[ebp]
  02224	e8 00 00 00 00	 call	 ?ExcludeClipRect@CDC@@QAEHPBUtagRECT@@@Z ; CDC::ExcludeClipRect

; 659  :    pDC->FillSolidRect(&rect, m_crBackground);

  02229	8b 55 f0	 mov	 edx, DWORD PTR _this$[ebp]
  0222c	8b 82 b4 00 00
	00		 mov	 eax, DWORD PTR [edx+180]
  02232	50		 push	 eax
  02233	8d 4d dc	 lea	 ecx, DWORD PTR _rect$[ebp]
  02236	51		 push	 ecx
  02237	8b 4d 08	 mov	 ecx, DWORD PTR _pDC$[ebp]
  0223a	e8 00 00 00 00	 call	 ?FillSolidRect@CDC@@QAEXPBUtagRECT@@K@Z ; CDC::FillSolidRect

; 660  :    pDC->SelectClipRgn(NULL);

  0223f	6a 00		 push	 0
  02241	8b 4d 08	 mov	 ecx, DWORD PTR _pDC$[ebp]
  02244	e8 00 00 00 00	 call	 ?SelectClipRgn@CDC@@QAEHPAVCRgn@@@Z ; CDC::SelectClipRgn

; 661  : 
; 662  :    ASSERT(NULL != m_rgnComplete.m_hObject);

  02249	8b 55 f0	 mov	 edx, DWORD PTR _this$[ebp]
  0224c	83 ba d0 00 00
	00 00		 cmp	 DWORD PTR [edx+208], 0
  02253	75 14		 jne	 SHORT $L188930
  02255	68 96 02 00 00	 push	 662			; 00000296H
  0225a	68 00 00 00 00	 push	 OFFSET FLAT:_THIS_FILE
  0225f	e8 00 00 00 00	 call	 ?AfxAssertFailedLine@@YGHPBDH@Z ; AfxAssertFailedLine
  02264	85 c0		 test	 eax, eax
  02266	74 01		 je	 SHORT $L188930
  02268	cc		 int	 3
$L188930:

; 663  :    CBrush   brushFg;

  02269	8d 4d b4	 lea	 ecx, DWORD PTR _brushFg$[ebp]
  0226c	e8 00 00 00 00	 call	 ??0CBrush@@QAE@XZ	; CBrush::CBrush
  02271	c7 45 fc 00 00
	00 00		 mov	 DWORD PTR __$EHRec$[ebp+8], 0

; 664  :    brushFg.CreateSolidBrush(m_crForeground);

  02278	8b 4d f0	 mov	 ecx, DWORD PTR _this$[ebp]
  0227b	8b 91 b8 00 00
	00		 mov	 edx, DWORD PTR [ecx+184]
  02281	52		 push	 edx
  02282	8d 4d b4	 lea	 ecx, DWORD PTR _brushFg$[ebp]
  02285	e8 00 00 00 00	 call	 ?CreateSolidBrush@CBrush@@QAEHK@Z ; CBrush::CreateSolidBrush

; 665  :    if ( m_unOptions & unSHOW_INNER_SHADOW )

  0228a	8b 45 f0	 mov	 eax, DWORD PTR _this$[ebp]
  0228d	8b 88 84 00 00
	00		 mov	 ecx, DWORD PTR [eax+132]
  02293	81 e1 00 08 00
	00		 and	 ecx, 2048		; 00000800H
  02299	0f 84 b9 01 00
	00		 je	 $L187715

; 666  :    {
; 667  :       CBrush   brushHL;

  0229f	8d 4d a4	 lea	 ecx, DWORD PTR _brushHL$187716[ebp]
  022a2	e8 00 00 00 00	 call	 ??0CBrush@@QAE@XZ	; CBrush::CBrush
  022a7	c6 45 fc 01	 mov	 BYTE PTR __$EHRec$[ebp+8], 1

; 668  :       // slightly lighter color
; 669  :       int red = 170 + GetRValue(m_crBackground)/3;

  022ab	8b 55 f0	 mov	 edx, DWORD PTR _this$[ebp]
  022ae	0f b6 82 b4 00
	00 00		 movzx	 eax, BYTE PTR [edx+180]
  022b5	99		 cdq
  022b6	b9 03 00 00 00	 mov	 ecx, 3
  022bb	f7 f9		 idiv	 ecx
  022bd	05 aa 00 00 00	 add	 eax, 170		; 000000aaH
  022c2	89 45 9c	 mov	 DWORD PTR _red$187717[ebp], eax

; 670  :       int green = 170 + GetGValue(m_crBackground)/3;

  022c5	8b 55 f0	 mov	 edx, DWORD PTR _this$[ebp]
  022c8	0f b7 82 b4 00
	00 00		 movzx	 eax, WORD PTR [edx+180]
  022cf	c1 f8 08	 sar	 eax, 8
  022d2	0f b6 c0	 movzx	 eax, al
  022d5	99		 cdq
  022d6	b9 03 00 00 00	 mov	 ecx, 3
  022db	f7 f9		 idiv	 ecx
  022dd	05 aa 00 00 00	 add	 eax, 170		; 000000aaH
  022e2	89 45 98	 mov	 DWORD PTR _green$187719[ebp], eax

; 671  :       int blue = 170 + GetBValue(m_crBackground)/3;

  022e5	8b 55 f0	 mov	 edx, DWORD PTR _this$[ebp]
  022e8	8b 82 b4 00 00
	00		 mov	 eax, DWORD PTR [edx+180]
  022ee	c1 e8 10	 shr	 eax, 16			; 00000010H
  022f1	0f b6 c0	 movzx	 eax, al
  022f4	99		 cdq
  022f5	b9 03 00 00 00	 mov	 ecx, 3
  022fa	f7 f9		 idiv	 ecx
  022fc	05 aa 00 00 00	 add	 eax, 170		; 000000aaH
  02301	89 45 94	 mov	 DWORD PTR _blue$187722[ebp], eax

; 672  :       brushHL.CreateSolidBrush(RGB(red,green,blue));

  02304	0f b6 55 9c	 movzx	 edx, BYTE PTR _red$187717[ebp]
  02308	0f b6 45 98	 movzx	 eax, BYTE PTR _green$187719[ebp]
  0230c	c1 e0 08	 shl	 eax, 8
  0230f	0b d0		 or	 edx, eax
  02311	0f b6 4d 94	 movzx	 ecx, BYTE PTR _blue$187722[ebp]
  02315	c1 e1 10	 shl	 ecx, 16			; 00000010H
  02318	0b d1		 or	 edx, ecx
  0231a	52		 push	 edx
  0231b	8d 4d a4	 lea	 ecx, DWORD PTR _brushHL$187716[ebp]
  0231e	e8 00 00 00 00	 call	 ?CreateSolidBrush@CBrush@@QAEHK@Z ; CBrush::CreateSolidBrush

; 673  :       m_rgnComplete.OffsetRgn(1,1);

  02323	6a 01		 push	 1
  02325	6a 01		 push	 1
  02327	8b 4d f0	 mov	 ecx, DWORD PTR _this$[ebp]
  0232a	81 c1 cc 00 00
	00		 add	 ecx, 204		; 000000ccH
  02330	e8 00 00 00 00	 call	 ?OffsetRgn@CRgn@@QAEHHH@Z ; CRgn::OffsetRgn

; 674  :       pDC->FrameRgn(&m_rgnComplete, &brushHL, 2, 2);

  02335	6a 02		 push	 2
  02337	6a 02		 push	 2
  02339	8d 55 a4	 lea	 edx, DWORD PTR _brushHL$187716[ebp]
  0233c	52		 push	 edx
  0233d	8b 45 f0	 mov	 eax, DWORD PTR _this$[ebp]
  02340	05 cc 00 00 00	 add	 eax, 204		; 000000ccH
  02345	50		 push	 eax
  02346	8b 4d 08	 mov	 ecx, DWORD PTR _pDC$[ebp]
  02349	e8 00 00 00 00	 call	 ?FrameRgn@CDC@@QAEHPAVCRgn@@PAVCBrush@@HH@Z ; CDC::FrameRgn

; 675  :       // slightly darker color
; 676  :       red = GetRValue(m_crForeground)/3 + GetRValue(m_crBackground)/3*2;

  0234e	8b 4d f0	 mov	 ecx, DWORD PTR _this$[ebp]
  02351	0f b6 81 b8 00
	00 00		 movzx	 eax, BYTE PTR [ecx+184]
  02358	99		 cdq
  02359	b9 03 00 00 00	 mov	 ecx, 3
  0235e	f7 f9		 idiv	 ecx
  02360	8b c8		 mov	 ecx, eax
  02362	8b 55 f0	 mov	 edx, DWORD PTR _this$[ebp]
  02365	0f b6 82 b4 00
	00 00		 movzx	 eax, BYTE PTR [edx+180]
  0236c	99		 cdq
  0236d	be 03 00 00 00	 mov	 esi, 3
  02372	f7 fe		 idiv	 esi
  02374	8d 04 41	 lea	 eax, DWORD PTR [ecx+eax*2]
  02377	89 45 9c	 mov	 DWORD PTR _red$187717[ebp], eax

; 677  :       green = GetGValue(m_crForeground)/3 + GetGValue(m_crBackground)/3*2;

  0237a	8b 4d f0	 mov	 ecx, DWORD PTR _this$[ebp]
  0237d	0f b7 91 b8 00
	00 00		 movzx	 edx, WORD PTR [ecx+184]
  02384	c1 fa 08	 sar	 edx, 8
  02387	0f b6 c2	 movzx	 eax, dl
  0238a	99		 cdq
  0238b	b9 03 00 00 00	 mov	 ecx, 3
  02390	f7 f9		 idiv	 ecx
  02392	8b c8		 mov	 ecx, eax
  02394	8b 55 f0	 mov	 edx, DWORD PTR _this$[ebp]
  02397	0f b7 82 b4 00
	00 00		 movzx	 eax, WORD PTR [edx+180]
  0239e	c1 f8 08	 sar	 eax, 8
  023a1	0f b6 c0	 movzx	 eax, al
  023a4	99		 cdq
  023a5	be 03 00 00 00	 mov	 esi, 3
  023aa	f7 fe		 idiv	 esi
  023ac	8d 0c 41	 lea	 ecx, DWORD PTR [ecx+eax*2]
  023af	89 4d 98	 mov	 DWORD PTR _green$187719[ebp], ecx

; 678  :       blue = GetBValue(m_crForeground)/3 + GetBValue(m_crBackground)/3*2;

  023b2	8b 55 f0	 mov	 edx, DWORD PTR _this$[ebp]
  023b5	8b 82 b8 00 00
	00		 mov	 eax, DWORD PTR [edx+184]
  023bb	c1 e8 10	 shr	 eax, 16			; 00000010H
  023be	0f b6 c0	 movzx	 eax, al
  023c1	99		 cdq
  023c2	b9 03 00 00 00	 mov	 ecx, 3
  023c7	f7 f9		 idiv	 ecx
  023c9	8b c8		 mov	 ecx, eax
  023cb	8b 55 f0	 mov	 edx, DWORD PTR _this$[ebp]
  023ce	8b 82 b4 00 00
	00		 mov	 eax, DWORD PTR [edx+180]
  023d4	c1 e8 10	 shr	 eax, 16			; 00000010H
  023d7	0f b6 c0	 movzx	 eax, al
  023da	99		 cdq
  023db	be 03 00 00 00	 mov	 esi, 3
  023e0	f7 fe		 idiv	 esi
  023e2	8d 0c 41	 lea	 ecx, DWORD PTR [ecx+eax*2]
  023e5	89 4d 94	 mov	 DWORD PTR _blue$187722[ebp], ecx

; 679  :       brushHL.DeleteObject();

  023e8	8d 4d a4	 lea	 ecx, DWORD PTR _brushHL$187716[ebp]
  023eb	e8 00 00 00 00	 call	 ?DeleteObject@CGdiObject@@QAEHXZ ; CGdiObject::DeleteObject

; 680  :       m_rgnComplete.OffsetRgn(-2,-2);

  023f0	6a fe		 push	 -2			; fffffffeH
  023f2	6a fe		 push	 -2			; fffffffeH
  023f4	8b 4d f0	 mov	 ecx, DWORD PTR _this$[ebp]
  023f7	81 c1 cc 00 00
	00		 add	 ecx, 204		; 000000ccH
  023fd	e8 00 00 00 00	 call	 ?OffsetRgn@CRgn@@QAEHHH@Z ; CRgn::OffsetRgn

; 681  :       brushHL.CreateSolidBrush(RGB(red,green,blue));

  02402	0f b6 55 9c	 movzx	 edx, BYTE PTR _red$187717[ebp]
  02406	0f b6 45 98	 movzx	 eax, BYTE PTR _green$187719[ebp]
  0240a	c1 e0 08	 shl	 eax, 8
  0240d	0b d0		 or	 edx, eax
  0240f	0f b6 4d 94	 movzx	 ecx, BYTE PTR _blue$187722[ebp]
  02413	c1 e1 10	 shl	 ecx, 16			; 00000010H
  02416	0b d1		 or	 edx, ecx
  02418	52		 push	 edx
  02419	8d 4d a4	 lea	 ecx, DWORD PTR _brushHL$187716[ebp]
  0241c	e8 00 00 00 00	 call	 ?CreateSolidBrush@CBrush@@QAEHK@Z ; CBrush::CreateSolidBrush

; 682  :       pDC->FrameRgn(&m_rgnComplete, &brushHL, 2, 2);

  02421	6a 02		 push	 2
  02423	6a 02		 push	 2
  02425	8d 55 a4	 lea	 edx, DWORD PTR _brushHL$187716[ebp]
  02428	52		 push	 edx
  02429	8b 45 f0	 mov	 eax, DWORD PTR _this$[ebp]
  0242c	05 cc 00 00 00	 add	 eax, 204		; 000000ccH
  02431	50		 push	 eax
  02432	8b 4d 08	 mov	 ecx, DWORD PTR _pDC$[ebp]
  02435	e8 00 00 00 00	 call	 ?FrameRgn@CDC@@QAEHPAVCRgn@@PAVCBrush@@HH@Z ; CDC::FrameRgn

; 683  :       m_rgnComplete.OffsetRgn(1,1);

  0243a	6a 01		 push	 1
  0243c	6a 01		 push	 1
  0243e	8b 4d f0	 mov	 ecx, DWORD PTR _this$[ebp]
  02441	81 c1 cc 00 00
	00		 add	 ecx, 204		; 000000ccH
  02447	e8 00 00 00 00	 call	 ?OffsetRgn@CRgn@@QAEHHH@Z ; CRgn::OffsetRgn

; 684  :    }

  0244c	c6 45 fc 00	 mov	 BYTE PTR __$EHRec$[ebp+8], 0
  02450	8d 4d a4	 lea	 ecx, DWORD PTR _brushHL$187716[ebp]
  02453	e8 00 00 00 00	 call	 ??1CBrush@@UAE@XZ	; CBrush::~CBrush
$L187715:

; 685  :    // outline
; 686  :    pDC->FrameRgn(&m_rgnComplete, &brushFg, 1, 1);

  02458	6a 01		 push	 1
  0245a	6a 01		 push	 1
  0245c	8d 4d b4	 lea	 ecx, DWORD PTR _brushFg$[ebp]
  0245f	51		 push	 ecx
  02460	8b 55 f0	 mov	 edx, DWORD PTR _this$[ebp]
  02463	81 c2 cc 00 00
	00		 add	 edx, 204		; 000000ccH
  02469	52		 push	 edx
  0246a	8b 4d 08	 mov	 ecx, DWORD PTR _pDC$[ebp]
  0246d	e8 00 00 00 00	 call	 ?FrameRgn@CDC@@QAEHPAVCRgn@@PAVCBrush@@HH@Z ; CDC::FrameRgn

; 687  : }

  02472	c7 45 fc ff ff
	ff ff		 mov	 DWORD PTR __$EHRec$[ebp+8], -1
  02479	8d 4d b4	 lea	 ecx, DWORD PTR _brushFg$[ebp]
  0247c	e8 00 00 00 00	 call	 ??1CBrush@@UAE@XZ	; CBrush::~CBrush
  02481	52		 push	 edx
  02482	8b cd		 mov	 ecx, ebp
  02484	50		 push	 eax
  02485	8d 15 00 00 00
	00		 lea	 edx, DWORD PTR $L188941
  0248b	e8 00 00 00 00	 call	 @_RTC_CheckStackVars@8
  02490	58		 pop	 eax
  02491	5a		 pop	 edx
  02492	8b 4d f4	 mov	 ecx, DWORD PTR __$EHRec$[ebp]
  02495	64 89 0d 00 00
	00 00		 mov	 DWORD PTR fs:__except_list, ecx
  0249c	5f		 pop	 edi
  0249d	5e		 pop	 esi
  0249e	83 c4 6c	 add	 esp, 108		; 0000006cH
  024a1	3b ec		 cmp	 ebp, esp
  024a3	e8 00 00 00 00	 call	 __RTC_CheckEsp
  024a8	8b e5		 mov	 esp, ebp
  024aa	5d		 pop	 ebp
  024ab	c2 04 00	 ret	 4
$L188941:
  024ae	04 00 00 00	 DD	 4
  024b2	00 00 00 00	 DD	 $L188940
$L188940:
  024b6	dc ff ff ff	 DD	 -36			; ffffffdcH
  024ba	10 00 00 00	 DD	 16			; 00000010H
  024be	00 00 00 00	 DD	 $L188935
  024c2	c4 ff ff ff	 DD	 -60			; ffffffc4H
  024c6	10 00 00 00	 DD	 16			; 00000010H
  024ca	00 00 00 00	 DD	 $L188936
  024ce	b4 ff ff ff	 DD	 -76			; ffffffb4H
  024d2	08 00 00 00	 DD	 8
  024d6	00 00 00 00	 DD	 $L188937
  024da	a4 ff ff ff	 DD	 -92			; ffffffa4H
  024de	08 00 00 00	 DD	 8
  024e2	00 00 00 00	 DD	 $L188938
$L188938:
  024e6	62		 DB	 98			; 00000062H
  024e7	72		 DB	 114			; 00000072H
  024e8	75		 DB	 117			; 00000075H
  024e9	73		 DB	 115			; 00000073H
  024ea	68		 DB	 104			; 00000068H
  024eb	48		 DB	 72			; 00000048H
  024ec	4c		 DB	 76			; 0000004cH
  024ed	00		 DB	 0
$L188937:
  024ee	62		 DB	 98			; 00000062H
  024ef	72		 DB	 114			; 00000072H
  024f0	75		 DB	 117			; 00000075H
  024f1	73		 DB	 115			; 00000073H
  024f2	68		 DB	 104			; 00000068H
  024f3	46		 DB	 70			; 00000046H
  024f4	67		 DB	 103			; 00000067H
  024f5	00		 DB	 0
$L188936:
  024f6	72		 DB	 114			; 00000072H
  024f7	65		 DB	 101			; 00000065H
  024f8	63		 DB	 99			; 00000063H
  024f9	74		 DB	 116			; 00000074H
  024fa	43		 DB	 67			; 00000043H
  024fb	6c		 DB	 108			; 0000006cH
  024fc	69		 DB	 105			; 00000069H
  024fd	65		 DB	 101			; 00000065H
  024fe	6e		 DB	 110			; 0000006eH
  024ff	74		 DB	 116			; 00000074H
  02500	00		 DB	 0
$L188935:
  02501	72		 DB	 114			; 00000072H
  02502	65		 DB	 101			; 00000065H
  02503	63		 DB	 99			; 00000063H
  02504	74		 DB	 116			; 00000074H
  02505	00		 DB	 0
_TEXT	ENDS
text$x	SEGMENT
$L188931:
  0016e	8d 4d b4	 lea	 ecx, DWORD PTR _brushFg$[ebp]
  00171	e9 00 00 00 00	 jmp	 ??1CBrush@@UAE@XZ	; CBrush::~CBrush
$L188932:
  00176	8d 4d a4	 lea	 ecx, DWORD PTR _brushHL$187716[ebp]
  00179	e9 00 00 00 00	 jmp	 ??1CBrush@@UAE@XZ	; CBrush::~CBrush
__ehhandler$?DrawNonClientArea@CBalloonHelp@@MAEXPAVCDC@@@Z:
  0017e	b8 00 00 00 00	 mov	 eax, OFFSET FLAT:$T188934
  00183	e9 00 00 00 00	 jmp	 ___CxxFrameHandler
text$x	ENDS
?DrawNonClientArea@CBalloonHelp@@MAEXPAVCDC@@@Z ENDP	; CBalloonHelp::DrawNonClientArea
; Function compile flags: /Odt /RTCsu
_TEXT	SEGMENT
$T188944 = -28						; size = 8
_sizeHeader$ = -16					; size = 8
_this$ = -4						; size = 4
_pDC$ = 8						; size = 4
?DrawClientArea@CBalloonHelp@@MAEXPAVCDC@@@Z PROC NEAR	; CBalloonHelp::DrawClientArea
; _this$ = ecx

; 691  : {

  02510	55		 push	 ebp
  02511	8b ec		 mov	 ebp, esp
  02513	83 ec 1c	 sub	 esp, 28			; 0000001cH
  02516	56		 push	 esi
  02517	b8 cc cc cc cc	 mov	 eax, -858993460		; ccccccccH
  0251c	89 45 e4	 mov	 DWORD PTR [ebp-28], eax
  0251f	89 45 e8	 mov	 DWORD PTR [ebp-24], eax
  02522	89 45 ec	 mov	 DWORD PTR [ebp-20], eax
  02525	89 45 f0	 mov	 DWORD PTR [ebp-16], eax
  02528	89 45 f4	 mov	 DWORD PTR [ebp-12], eax
  0252b	89 45 f8	 mov	 DWORD PTR [ebp-8], eax
  0252e	89 45 fc	 mov	 DWORD PTR [ebp-4], eax
  02531	89 4d fc	 mov	 DWORD PTR _this$[ebp], ecx

; 692  :    CSize sizeHeader = DrawHeader(pDC);

  02534	8b f4		 mov	 esi, esp
  02536	6a 01		 push	 1
  02538	8b 45 08	 mov	 eax, DWORD PTR _pDC$[ebp]
  0253b	50		 push	 eax
  0253c	8d 4d f0	 lea	 ecx, DWORD PTR _sizeHeader$[ebp]
  0253f	51		 push	 ecx
  02540	8b 55 fc	 mov	 edx, DWORD PTR _this$[ebp]
  02543	8b 02		 mov	 eax, DWORD PTR [edx]
  02545	8b 4d fc	 mov	 ecx, DWORD PTR _this$[ebp]
  02548	ff 90 40 01 00
	00		 call	 DWORD PTR [eax+320]
  0254e	3b f4		 cmp	 esi, esp
  02550	e8 00 00 00 00	 call	 __RTC_CheckEsp

; 693  :    DrawContent(pDC, sizeHeader.cy+nTIP_MARGIN);

  02555	8b f4		 mov	 esi, esp
  02557	6a 01		 push	 1
  02559	8b 4d f4	 mov	 ecx, DWORD PTR _sizeHeader$[ebp+4]
  0255c	83 c1 08	 add	 ecx, 8
  0255f	51		 push	 ecx
  02560	8b 55 08	 mov	 edx, DWORD PTR _pDC$[ebp]
  02563	52		 push	 edx
  02564	8d 45 e4	 lea	 eax, DWORD PTR $T188944[ebp]
  02567	50		 push	 eax
  02568	8b 4d fc	 mov	 ecx, DWORD PTR _this$[ebp]
  0256b	8b 11		 mov	 edx, DWORD PTR [ecx]
  0256d	8b 4d fc	 mov	 ecx, DWORD PTR _this$[ebp]
  02570	ff 92 44 01 00
	00		 call	 DWORD PTR [edx+324]
  02576	3b f4		 cmp	 esi, esp
  02578	e8 00 00 00 00	 call	 __RTC_CheckEsp

; 694  : }

  0257d	52		 push	 edx
  0257e	8b cd		 mov	 ecx, ebp
  02580	50		 push	 eax
  02581	8d 15 00 00 00
	00		 lea	 edx, DWORD PTR $L188947
  02587	e8 00 00 00 00	 call	 @_RTC_CheckStackVars@8
  0258c	58		 pop	 eax
  0258d	5a		 pop	 edx
  0258e	5e		 pop	 esi
  0258f	83 c4 1c	 add	 esp, 28			; 0000001cH
  02592	3b ec		 cmp	 ebp, esp
  02594	e8 00 00 00 00	 call	 __RTC_CheckEsp
  02599	8b e5		 mov	 esp, ebp
  0259b	5d		 pop	 ebp
  0259c	c2 04 00	 ret	 4
$L188947:
  0259f	01 00 00 00	 DD	 1
  025a3	00 00 00 00	 DD	 $L188946
$L188946:
  025a7	f0 ff ff ff	 DD	 -16			; fffffff0H
  025ab	08 00 00 00	 DD	 8
  025af	00 00 00 00	 DD	 $L188945
$L188945:
  025b3	73		 DB	 115			; 00000073H
  025b4	69		 DB	 105			; 00000069H
  025b5	7a		 DB	 122			; 0000007aH
  025b6	65		 DB	 101			; 00000065H
  025b7	48		 DB	 72			; 00000048H
  025b8	65		 DB	 101			; 00000065H
  025b9	61		 DB	 97			; 00000061H
  025ba	64		 DB	 100			; 00000064H
  025bb	65		 DB	 101			; 00000065H
  025bc	72		 DB	 114			; 00000072H
  025bd	00		 DB	 0
?DrawClientArea@CBalloonHelp@@MAEXPAVCDC@@@Z ENDP	; CBalloonHelp::DrawClientArea
_TEXT	ENDS
EXTRN	?DrawTextA@CDC@@QAEHABV?$CStringT@DV?$StrTraitMFC_DLL@DV?$ChTraitsCRT@D@ATL@@@@@ATL@@PAUtagRECT@@I@Z:NEAR ; CDC::DrawTextA
EXTRN	?DrawFrameControl@CDC@@QAEHPAUtagRECT@@II@Z:NEAR ; CDC::DrawFrameControl
EXTRN	??0CSize@@QAE@HH@Z:NEAR				; CSize::CSize
EXTRN	??BCRect@@QAEPAUtagRECT@@XZ:NEAR		; CRect::operator tagRECT *
EXTRN	?GetWindowTextA@CWnd@@QBEXAAV?$CStringT@DV?$StrTraitMFC_DLL@DV?$ChTraitsCRT@D@ATL@@@@@ATL@@@Z:NEAR ; CWnd::GetWindowTextA
EXTRN	__imp_?IsEmpty@?$CSimpleStringT@D$00@ATL@@QBE_NXZ:NEAR
EXTRN	__imp__ImageList_GetIconSize@12:NEAR
EXTRN	?SetBkMode@CDC@@QAEHH@Z:NEAR			; CDC::SetBkMode
EXTRN	__imp_??0?$CStringT@DV?$StrTraitMFC_DLL@DV?$ChTraitsCRT@D@ATL@@@@@ATL@@QAE@XZ:NEAR
EXTRN	??BCImageList@@QBEPAU_IMAGELIST@@XZ:NEAR	; CImageList::operator _IMAGELIST *
EXTRN	?SetBkColor@CImageList@@QAEKK@Z:NEAR		; CImageList::SetBkColor
EXTRN	?Draw@CImageList@@QAEHPAVCDC@@HUtagPOINT@@I@Z:NEAR ; CImageList::Draw
xdata$x	SEGMENT
$T188970 DD	0ffffffffH
	DD	FLAT:$L188958
$T188960 DD	019930520H
	DD	01H
	DD	FLAT:$T188970
	DD	2 DUP(00H)
	DD	2 DUP(00H)
; Function compile flags: /Odt /RTCsu
xdata$x	ENDS
_TEXT	SEGMENT
tv194 = -168						; size = 4
tv143 = -164						; size = 4
tv81 = -160						; size = 4
$T188955 = -156						; size = 16
$T188952 = -140						; size = 8
$T188951 = -132						; size = 8
_rectTitle$187774 = -120				; size = 16
_pOldFont$187772 = -100					; size = 4
_strTitle$ = -92					; size = 4
_nBtnWidth$187766 = -84					; size = 4
_y$187761 = -76						; size = 4
_x$187760 = -64						; size = 4
_rectClient$ = -52					; size = 16
_sizeHdr$ = -28						; size = 8
_this$ = -16						; size = 4
__$EHRec$ = -12						; size = 12
___$ReturnUdt$ = 8					; size = 4
_pDC$ = 12						; size = 4
_bDraw$ = 16						; size = 1
?DrawHeader@CBalloonHelp@@MAE?AVCSize@@PAVCDC@@_N@Z PROC NEAR ; CBalloonHelp::DrawHeader
; _this$ = ecx

; 698  : {

  025c0	55		 push	 ebp
  025c1	8b ec		 mov	 ebp, esp
  025c3	6a ff		 push	 -1
  025c5	68 00 00 00 00	 push	 __ehhandler$?DrawHeader@CBalloonHelp@@MAE?AVCSize@@PAVCDC@@_N@Z
  025ca	64 a1 00 00 00
	00		 mov	 eax, DWORD PTR fs:__except_list
  025d0	50		 push	 eax
  025d1	64 89 25 00 00
	00 00		 mov	 DWORD PTR fs:__except_list, esp
  025d8	81 ec 9c 00 00
	00		 sub	 esp, 156		; 0000009cH
  025de	56		 push	 esi
  025df	57		 push	 edi
  025e0	51		 push	 ecx
  025e1	8d bd 58 ff ff
	ff		 lea	 edi, DWORD PTR [ebp-168]
  025e7	b9 27 00 00 00	 mov	 ecx, 39			; 00000027H
  025ec	b8 cc cc cc cc	 mov	 eax, -858993460		; ccccccccH
  025f1	f3 ab		 rep stosd
  025f3	59		 pop	 ecx
  025f4	89 4d f0	 mov	 DWORD PTR _this$[ebp], ecx

; 699  :    CSize sizeHdr(0,0);

  025f7	6a 00		 push	 0
  025f9	6a 00		 push	 0
  025fb	8d 4d e4	 lea	 ecx, DWORD PTR _sizeHdr$[ebp]
  025fe	e8 00 00 00 00	 call	 ??0CSize@@QAE@HH@Z	; CSize::CSize

; 700  :    CRect rectClient;

  02603	8d 4d cc	 lea	 ecx, DWORD PTR _rectClient$[ebp]
  02606	e8 00 00 00 00	 call	 ??0CRect@@QAE@XZ	; CRect::CRect

; 701  :    GetClientRect(&rectClient);   // use this for positioning when drawing

  0260b	8d 45 cc	 lea	 eax, DWORD PTR _rectClient$[ebp]
  0260e	50		 push	 eax
  0260f	8b 4d f0	 mov	 ecx, DWORD PTR _this$[ebp]
  02612	e8 00 00 00 00	 call	 ?GetClientRect@CWnd@@QBEXPAUtagRECT@@@Z ; CWnd::GetClientRect

; 702  :                                  // else if content is wider than title, centering wouldn't work
; 703  : 
; 704  :    // calc & draw icon
; 705  :    if ( NULL != m_ilIcon.m_hImageList )

  02617	8b 4d f0	 mov	 ecx, DWORD PTR _this$[ebp]
  0261a	83 b9 a8 00 00
	00 00		 cmp	 DWORD PTR [ecx+168], 0
  02621	0f 84 c9 00 00
	00		 je	 $L187759

; 706  :    {
; 707  :       int x = 0;

  02627	c7 45 c0 00 00
	00 00		 mov	 DWORD PTR _x$187760[ebp], 0

; 708  :       int y = 0;

  0262e	c7 45 b4 00 00
	00 00		 mov	 DWORD PTR _y$187761[ebp], 0

; 709  :       ImageList_GetIconSize(m_ilIcon, &x, &y);

  02635	8b f4		 mov	 esi, esp
  02637	8d 55 b4	 lea	 edx, DWORD PTR _y$187761[ebp]
  0263a	52		 push	 edx
  0263b	8d 45 c0	 lea	 eax, DWORD PTR _x$187760[ebp]
  0263e	50		 push	 eax
  0263f	8b 4d f0	 mov	 ecx, DWORD PTR _this$[ebp]
  02642	81 c1 a4 00 00
	00		 add	 ecx, 164		; 000000a4H
  02648	e8 00 00 00 00	 call	 ??BCImageList@@QBEPAU_IMAGELIST@@XZ ; CImageList::operator _IMAGELIST *
  0264d	50		 push	 eax
  0264e	ff 15 00 00 00
	00		 call	 DWORD PTR __imp__ImageList_GetIconSize@12
  02654	3b f4		 cmp	 esi, esp
  02656	e8 00 00 00 00	 call	 __RTC_CheckEsp

; 710  :       sizeHdr.cx += x;

  0265b	8b 4d e4	 mov	 ecx, DWORD PTR _sizeHdr$[ebp]
  0265e	03 4d c0	 add	 ecx, DWORD PTR _x$187760[ebp]
  02661	89 4d e4	 mov	 DWORD PTR _sizeHdr$[ebp], ecx

; 711  :       sizeHdr.cy = max(sizeHdr.cy, y);

  02664	8b 55 e8	 mov	 edx, DWORD PTR _sizeHdr$[ebp+4]
  02667	3b 55 b4	 cmp	 edx, DWORD PTR _y$187761[ebp]
  0266a	7e 0b		 jle	 SHORT $L188949
  0266c	8b 45 e8	 mov	 eax, DWORD PTR _sizeHdr$[ebp+4]
  0266f	89 85 60 ff ff
	ff		 mov	 DWORD PTR tv81[ebp], eax
  02675	eb 09		 jmp	 SHORT $L188950
$L188949:
  02677	8b 4d b4	 mov	 ecx, DWORD PTR _y$187761[ebp]
  0267a	89 8d 60 ff ff
	ff		 mov	 DWORD PTR tv81[ebp], ecx
$L188950:
  02680	8b 95 60 ff ff
	ff		 mov	 edx, DWORD PTR tv81[ebp]
  02686	89 55 e8	 mov	 DWORD PTR _sizeHdr$[ebp+4], edx

; 712  :       m_ilIcon.SetBkColor(m_crBackground);

