; Listing generated by Microsoft (R) Optimizing Compiler Version 13.10.3077 

	TITLE	.\src\Gui\CommonControl\BasicWnd.cpp
	.386P
include listing.inc
if @Version gt 510
.model FLAT
else
_TEXT	SEGMENT PARA USE32 PUBLIC 'CODE'
_TEXT	ENDS
_DATA	SEGMENT DWORD USE32 PUBLIC 'DATA'
_DATA	ENDS
CONST	SEGMENT DWORD USE32 PUBLIC 'CONST'
CONST	ENDS
_BSS	SEGMENT DWORD USE32 PUBLIC 'BSS'
_BSS	ENDS
$$SYMBOLS	SEGMENT BYTE USE32 'DEBSYM'
$$SYMBOLS	ENDS
_TLS	SEGMENT DWORD USE32 PUBLIC 'TLS'
_TLS	ENDS
;	COMDAT ??_C@_0EN@IBFBLEEG@D?3?2Program?5Files?5?$CIx86?$CJ?2Microsoft@
CONST	SEGMENT DWORD USE32 PUBLIC 'CONST'
CONST	ENDS
rdata$r	SEGMENT DWORD USE32 PUBLIC 'CONST'
rdata$r	ENDS
xdata$x	SEGMENT DWORD USE32 PUBLIC 'CONST'
xdata$x	ENDS
text$AFX_COL1	SEGMENT PARA USE32 PUBLIC ''
text$AFX_COL1	ENDS
text$yc	SEGMENT PARA USE32 PUBLIC 'CODE'
text$yc	ENDS
CRT$XCA	SEGMENT DWORD USE32 PUBLIC 'DATA'
CRT$XCA	ENDS
CRT$XCU	SEGMENT DWORD USE32 PUBLIC 'DATA'
CRT$XCU	ENDS
CRT$XCL	SEGMENT DWORD USE32 PUBLIC 'DATA'
CRT$XCL	ENDS
CRT$XCC	SEGMENT DWORD USE32 PUBLIC 'DATA'
CRT$XCC	ENDS
CRT$XCZ	SEGMENT DWORD USE32 PUBLIC 'DATA'
CRT$XCZ	ENDS
text$yd	SEGMENT PARA USE32 PUBLIC 'CODE'
text$yd	ENDS
ATL$__m	SEGMENT DWORD USE32 PUBLIC ''
ATL$__m	ENDS
ATL$__z	SEGMENT DWORD USE32 PUBLIC ''
ATL$__z	ENDS
ATL$__a	SEGMENT DWORD USE32 PUBLIC ''
ATL$__a	ENDS
;	COMDAT ??_GCBasicWnd@@UAEPAXI@Z
_TEXT	SEGMENT PARA USE32 PUBLIC 'CODE'
_TEXT	ENDS
;	COMDAT ??B?$CComPtrBase@UITypeInfo2@@@ATL@@QBEPAUITypeInfo2@@XZ
_TEXT	SEGMENT PARA USE32 PUBLIC 'CODE'
_TEXT	ENDS
;	COMDAT ?equal@?$istreambuf_iterator@DU?$char_traits@D@std@@@std@@QBE_NABV12@@Z
_TEXT	SEGMENT PARA USE32 PUBLIC 'CODE'
_TEXT	ENDS
;	COMDAT ?equal@?$istreambuf_iterator@_WU?$char_traits@_W@std@@@std@@QBE_NABV12@@Z
_TEXT	SEGMENT PARA USE32 PUBLIC 'CODE'
_TEXT	ENDS
;	COMDAT ?Unlock@?$CComCritSecLock@VCComCriticalSection@ATL@@@ATL@@QAEXXZ
_TEXT	SEGMENT PARA USE32 PUBLIC 'CODE'
_TEXT	ENDS
;	COMDAT ??$_Maklocstr@D@std@@YAPADPBDPADABU_Cvtvec@@@Z
_TEXT	SEGMENT PARA USE32 PUBLIC 'CODE'
_TEXT	ENDS
;	COMDAT ??_R3CBasicWnd@@8
rdata$r	SEGMENT DWORD USE32 PUBLIC 'CONST'
rdata$r	ENDS
;	COMDAT ??_R3?$numpunct@_W@std@@8
rdata$r	SEGMENT DWORD USE32 PUBLIC 'CONST'
rdata$r	ENDS
;	COMDAT ??_R3?$numpunct@D@std@@8
rdata$r	SEGMENT DWORD USE32 PUBLIC 'CONST'
rdata$r	ENDS
;	COMDAT ??_R2CBasicWnd@@8
rdata$r	SEGMENT DWORD USE32 PUBLIC 'CONST'
rdata$r	ENDS
;	COMDAT ??_R2?$numpunct@_W@std@@8
rdata$r	SEGMENT DWORD USE32 PUBLIC 'CONST'
rdata$r	ENDS
;	COMDAT ??_R2?$numpunct@D@std@@8
rdata$r	SEGMENT DWORD USE32 PUBLIC 'CONST'
rdata$r	ENDS
;	COMDAT ??_R1A@?0A@A@CObject@@8
rdata$r	SEGMENT DWORD USE32 PUBLIC 'CONST'
rdata$r	ENDS
;	COMDAT ??_R0?AVCObject@@@8
_DATA	SEGMENT DWORD USE32 PUBLIC 'DATA'
_DATA	ENDS
;	COMDAT ??_R1A@?0A@A@CCmdTarget@@8
rdata$r	SEGMENT DWORD USE32 PUBLIC 'CONST'
rdata$r	ENDS
;	COMDAT ??_R0?AVCCmdTarget@@@8
_DATA	SEGMENT DWORD USE32 PUBLIC 'DATA'
_DATA	ENDS
;	COMDAT ??_R1A@?0A@A@CWnd@@8
rdata$r	SEGMENT DWORD USE32 PUBLIC 'CONST'
rdata$r	ENDS
;	COMDAT ??_R0?AVCWnd@@@8
_DATA	SEGMENT DWORD USE32 PUBLIC 'DATA'
_DATA	ENDS
;	COMDAT ??_R1A@?0A@A@CBasicWnd@@8
rdata$r	SEGMENT DWORD USE32 PUBLIC 'CONST'
rdata$r	ENDS
;	COMDAT ??_R1A@?0A@A@?$numpunct@_W@std@@8
rdata$r	SEGMENT DWORD USE32 PUBLIC 'CONST'
rdata$r	ENDS
;	COMDAT ??_R1A@?0A@A@facet@locale@std@@8
rdata$r	SEGMENT DWORD USE32 PUBLIC 'CONST'
rdata$r	ENDS
;	COMDAT ??_R0?AVfacet@locale@std@@@8
_DATA	SEGMENT DWORD USE32 PUBLIC 'DATA'
_DATA	ENDS
;	COMDAT ??_R1A@?0A@A@?$numpunct@D@std@@8
rdata$r	SEGMENT DWORD USE32 PUBLIC 'CONST'
rdata$r	ENDS
;	COMDAT ??_R0?AVCBasicWnd@@@8
_DATA	SEGMENT DWORD USE32 PUBLIC 'DATA'
_DATA	ENDS
;	COMDAT ??_R0?AV?$numpunct@_W@std@@@8
_DATA	SEGMENT DWORD USE32 PUBLIC 'DATA'
_DATA	ENDS
;	COMDAT ??_R0?AV?$numpunct@D@std@@@8
_DATA	SEGMENT DWORD USE32 PUBLIC 'DATA'
_DATA	ENDS
;	COMDAT ??_R4CBasicWnd@@6B@
rdata$r	SEGMENT DWORD USE32 PUBLIC 'CONST'
rdata$r	ENDS
;	COMDAT ??0?$allocator@_W@std@@QAE@XZ
_TEXT	SEGMENT PARA USE32 PUBLIC 'CODE'
_TEXT	ENDS
;	COMDAT ??0?$allocator@D@std@@QAE@ABV01@@Z
_TEXT	SEGMENT PARA USE32 PUBLIC 'CODE'
_TEXT	ENDS
;	COMDAT ??0?$allocator@D@std@@QAE@XZ
_TEXT	SEGMENT PARA USE32 PUBLIC 'CODE'
_TEXT	ENDS
;	COMDAT ?deallocate@?$allocator@D@std@@QAEXPADI@Z
_TEXT	SEGMENT PARA USE32 PUBLIC 'CODE'
_TEXT	ENDS
;	COMDAT ?max_size@?$allocator@D@std@@QBEIXZ
_TEXT	SEGMENT PARA USE32 PUBLIC 'CODE'
_TEXT	ENDS
;	COMDAT ?allocate@?$allocator@D@std@@QAEPADI@Z
_TEXT	SEGMENT PARA USE32 PUBLIC 'CODE'
_TEXT	ENDS
;	COMDAT ??$_Allocate@D@std@@YAPADIPAD@Z
_TEXT	SEGMENT PARA USE32 PUBLIC 'CODE'
_TEXT	ENDS
;	COMDAT ??_G?$numpunct@_W@std@@MAEPAXI@Z
_TEXT	SEGMENT PARA USE32 PUBLIC 'CODE'
_TEXT	ENDS
;	COMDAT ??_R4?$numpunct@_W@std@@6B@
rdata$r	SEGMENT DWORD USE32 PUBLIC 'CONST'
rdata$r	ENDS
;	COMDAT ??_G?$numpunct@D@std@@MAEPAXI@Z
_TEXT	SEGMENT PARA USE32 PUBLIC 'CODE'
_TEXT	ENDS
;	COMDAT ??_R4?$numpunct@D@std@@6B@
rdata$r	SEGMENT DWORD USE32 PUBLIC 'CONST'
rdata$r	ENDS
;	COMDAT ??_C@_0EN@CBMLGOH@D?3?2Program?5Files?5?$CIx86?$CJ?2Microsoft@
CONST	SEGMENT DWORD USE32 PUBLIC 'CONST'
CONST	ENDS
;	COMDAT ?_Psave@?$_Facetptr@V?$numpunct@_W@std@@@std@@2PBVfacet@locale@2@B
_DATA	SEGMENT DWORD USE32 PUBLIC 'DATA'
_DATA	ENDS
;	COMDAT ?_Psave@?$_Facetptr@V?$numpunct@D@std@@@std@@2PBVfacet@locale@2@B
_DATA	SEGMENT DWORD USE32 PUBLIC 'DATA'
_DATA	ENDS
;	COMDAT ?Unlock@CComCriticalSection@ATL@@QAEJXZ
_TEXT	SEGMENT PARA USE32 PUBLIC 'CODE'
_TEXT	ENDS
;	COMDAT ??_C@_0FG@LDNDNCJM@D?3?2Program?5Files?5?$CIx86?$CJ?2Microsoft@
CONST	SEGMENT DWORD USE32 PUBLIC 'CONST'
CONST	ENDS
;	COMDAT ??_C@_09HIEJFN@m_bLocked?$AA@
CONST	SEGMENT DWORD USE32 PUBLIC 'CONST'
CONST	ENDS
;	COMDAT ?_Psave@?$_Facetptr@V?$ctype@_W@std@@@std@@2PBVfacet@locale@2@B
_DATA	SEGMENT DWORD USE32 PUBLIC 'DATA'
_DATA	ENDS
;	COMDAT ?_Psave@?$_Facetptr@V?$ctype@D@std@@@std@@2PBVfacet@locale@2@B
_DATA	SEGMENT DWORD USE32 PUBLIC 'DATA'
_DATA	ENDS
;	COMDAT ??$_Maklocchr@_W@std@@YA_WDPA_WABU_Cvtvec@@@Z
_TEXT	SEGMENT PARA USE32 PUBLIC 'CODE'
_TEXT	ENDS
;	COMDAT ??$_DebugHeapDelete@X@std@@YAXPAX@Z
_TEXT	SEGMENT PARA USE32 PUBLIC 'CODE'
_TEXT	ENDS
;	COMDAT ??$_Maklocstr@_W@std@@YAPA_WPBDPA_WABU_Cvtvec@@@Z
_TEXT	SEGMENT PARA USE32 PUBLIC 'CODE'
_TEXT	ENDS
;	COMDAT ??$_Maklocchr@D@std@@YADDPADABU_Cvtvec@@@Z
_TEXT	SEGMENT PARA USE32 PUBLIC 'CODE'
_TEXT	ENDS
;	COMDAT ??_C@_04LOAJBDKD@true?$AA@
CONST	SEGMENT DWORD USE32 PUBLIC 'CONST'
CONST	ENDS
;	COMDAT ??_C@_05LAPONLG@false?$AA@
CONST	SEGMENT DWORD USE32 PUBLIC 'CONST'
CONST	ENDS
;	COMDAT _wmemcpy
_TEXT	SEGMENT PARA USE32 PUBLIC 'CODE'
_TEXT	ENDS
;	COMDAT ?max_size@?$allocator@_W@std@@QBEIXZ
_TEXT	SEGMENT PARA USE32 PUBLIC 'CODE'
_TEXT	ENDS
;	COMDAT ?allocate@?$allocator@_W@std@@QAEPA_WI@Z
_TEXT	SEGMENT PARA USE32 PUBLIC 'CODE'
_TEXT	ENDS
;	COMDAT ??$_Allocate@_W@std@@YAPA_WIPA_W@Z
_TEXT	SEGMENT PARA USE32 PUBLIC 'CODE'
_TEXT	ENDS
;	COMDAT ??_C@_01GFHCPBMG@C?$AA@
CONST	SEGMENT DWORD USE32 PUBLIC 'CONST'
CONST	ENDS
;	COMDAT ?_Peek@?$istreambuf_iterator@_WU?$char_traits@_W@std@@@std@@AAE_WXZ
_TEXT	SEGMENT PARA USE32 PUBLIC 'CODE'
_TEXT	ENDS
;	COMDAT ?_Peek@?$istreambuf_iterator@DU?$char_traits@D@std@@@std@@AAEDXZ
_TEXT	SEGMENT PARA USE32 PUBLIC 'CODE'
_TEXT	ENDS
;	COMDAT ??$use_facet@V?$ctype@_W@std@@@std@@YAABV?$ctype@_W@0@ABVlocale@0@@Z
_TEXT	SEGMENT PARA USE32 PUBLIC 'CODE'
_TEXT	ENDS
;	COMDAT ??_S?$ctype@_W@std@@6B@
CONST	SEGMENT DWORD USE32 PUBLIC 'CONST'
CONST	ENDS
;	COMDAT ??_R4?$ctype@_W@std@@6B@
rdata$r	SEGMENT DWORD USE32 PUBLIC 'CONST'
rdata$r	ENDS
;	COMDAT ??_R0?AV?$ctype@_W@std@@@8
_DATA	SEGMENT DWORD USE32 PUBLIC 'DATA'
_DATA	ENDS
;	COMDAT ??_R3?$ctype@_W@std@@8
rdata$r	SEGMENT DWORD USE32 PUBLIC 'CONST'
rdata$r	ENDS
;	COMDAT ??_R2?$ctype@_W@std@@8
rdata$r	SEGMENT DWORD USE32 PUBLIC 'CONST'
rdata$r	ENDS
;	COMDAT ??_R1A@?0A@A@?$ctype@_W@std@@8
rdata$r	SEGMENT DWORD USE32 PUBLIC 'CONST'
rdata$r	ENDS
;	COMDAT ??_R1A@?0A@A@ctype_base@std@@8
rdata$r	SEGMENT DWORD USE32 PUBLIC 'CONST'
rdata$r	ENDS
;	COMDAT ??_R0?AUctype_base@std@@@8
_DATA	SEGMENT DWORD USE32 PUBLIC 'DATA'
_DATA	ENDS
;	COMDAT ??_G?$ctype@_W@std@@MAEPAXI@Z
_TEXT	SEGMENT PARA USE32 PUBLIC 'CODE'
_TEXT	ENDS
;	COMDAT ??_C@_08EPJLHIJG@bad?5cast?$AA@
CONST	SEGMENT DWORD USE32 PUBLIC 'CONST'
CONST	ENDS
;	COMDAT __TI2?AVbad_cast@@
xdata$x	SEGMENT DWORD USE32 PUBLIC 'CONST'
xdata$x	ENDS
;	COMDAT __CTA2?AVbad_cast@@
xdata$x	SEGMENT DWORD USE32 PUBLIC 'CONST'
xdata$x	ENDS
;	COMDAT __CT??_R0?AVbad_cast@@@8??0bad_cast@@QAE@ABV0@@Z12
xdata$x	SEGMENT DWORD USE32 PUBLIC 'CONST'
xdata$x	ENDS
;	COMDAT ??_R0?AVbad_cast@@@8
_DATA	SEGMENT DWORD USE32 PUBLIC 'DATA'
_DATA	ENDS
;	COMDAT __CT??_R0?AVexception@@@8??0exception@@QAE@ABV0@@Z12
xdata$x	SEGMENT DWORD USE32 PUBLIC 'CONST'
xdata$x	ENDS
;	COMDAT ??_R0?AVexception@@@8
_DATA	SEGMENT DWORD USE32 PUBLIC 'DATA'
_DATA	ENDS
;	COMDAT ??$_DebugHeapDelete@Vfacet@locale@std@@@std@@YAXPAVfacet@locale@0@@Z
_TEXT	SEGMENT PARA USE32 PUBLIC 'CODE'
_TEXT	ENDS
;	COMDAT ??$use_facet@V?$ctype@D@std@@@std@@YAABV?$ctype@D@0@ABVlocale@0@@Z
_TEXT	SEGMENT PARA USE32 PUBLIC 'CODE'
_TEXT	ENDS
;	COMDAT ??_S?$ctype@D@std@@6B@
CONST	SEGMENT DWORD USE32 PUBLIC 'CONST'
CONST	ENDS
;	COMDAT ??_R4?$ctype@D@std@@6B@
rdata$r	SEGMENT DWORD USE32 PUBLIC 'CONST'
rdata$r	ENDS
;	COMDAT ??_R0?AV?$ctype@D@std@@@8
_DATA	SEGMENT DWORD USE32 PUBLIC 'DATA'
_DATA	ENDS
;	COMDAT ??_R3?$ctype@D@std@@8
rdata$r	SEGMENT DWORD USE32 PUBLIC 'CONST'
rdata$r	ENDS
;	COMDAT ??_R2?$ctype@D@std@@8
rdata$r	SEGMENT DWORD USE32 PUBLIC 'CONST'
rdata$r	ENDS
;	COMDAT ??_R1A@?0A@A@?$ctype@D@std@@8
rdata$r	SEGMENT DWORD USE32 PUBLIC 'CONST'
rdata$r	ENDS
;	COMDAT ??_G?$ctype@D@std@@MAEPAXI@Z
_TEXT	SEGMENT PARA USE32 PUBLIC 'CODE'
_TEXT	ENDS
;	COMDAT ??_S?$numpunct@_W@std@@6B@
CONST	SEGMENT DWORD USE32 PUBLIC 'CONST'
CONST	ENDS
;	COMDAT ??_S?$numpunct@D@std@@6B@
CONST	SEGMENT DWORD USE32 PUBLIC 'CONST'
CONST	ENDS
;	COMDAT _wmemmove
_TEXT	SEGMENT PARA USE32 PUBLIC 'CODE'
_TEXT	ENDS
;	COMDAT ?deallocate@?$allocator@_W@std@@QAEXPA_WI@Z
_TEXT	SEGMENT PARA USE32 PUBLIC 'CODE'
_TEXT	ENDS
;	COMDAT ??0?$allocator@_W@std@@QAE@ABV01@@Z
_TEXT	SEGMENT PARA USE32 PUBLIC 'CODE'
_TEXT	ENDS
;	COMDAT ?_messageEntries@CBasicWnd@@0QBUAFX_MSGMAP_ENTRY@@B
CONST	SEGMENT DWORD USE32 PUBLIC 'CONST'
CONST	ENDS
;	COMDAT ?messageMap@CBasicWnd@@1UAFX_MSGMAP@@B
CONST	SEGMENT DWORD USE32 PUBLIC 'CONST'
CONST	ENDS
;	COMDAT ??_7CBasicWnd@@6B@
CONST	SEGMENT DWORD USE32 PUBLIC 'CONST'
CONST	ENDS
;	COMDAT ?classCBasicWnd@CBasicWnd@@2UCRuntimeClass@@B
CONST	SEGMENT DWORD USE32 PUBLIC 'CONST'
CONST	ENDS
sxdata	SEGMENT DWORD USE32 'SXDATA'
sxdata	ENDS
FLAT	GROUP _DATA, CONST, _BSS
	ASSUME	CS: FLAT, DS: FLAT, SS: FLAT
endif

INCLUDELIB MSVCRTD
INCLUDELIB OLDNAMES

PUBLIC	?classCBasicWnd@CBasicWnd@@2UCRuntimeClass@@B	; CBasicWnd::classCBasicWnd
PUBLIC	?_messageEntries@CBasicWnd@@0QBUAFX_MSGMAP_ENTRY@@B ; CBasicWnd::_messageEntries
PUBLIC	?messageMap@CBasicWnd@@1UAFX_MSGMAP@@B		; CBasicWnd::messageMap
PUBLIC	?OnLButtonDown@CBasicWnd@@IAEXIVCPoint@@@Z	; CBasicWnd::OnLButtonDown
PUBLIC	?OnLButtonUp@CBasicWnd@@IAEXIVCPoint@@@Z	; CBasicWnd::OnLButtonUp
PUBLIC	?OnMouseMove@CBasicWnd@@IAEXIVCPoint@@@Z	; CBasicWnd::OnMouseMove
PUBLIC	?OnPaint@CBasicWnd@@IAEXXZ			; CBasicWnd::OnPaint
PUBLIC	?OnSize@CBasicWnd@@IAEXIHH@Z			; CBasicWnd::OnSize
EXTRN	?GetThisClass@CWnd@@SGPAUCRuntimeClass@@XZ:NEAR	; CWnd::GetThisClass
EXTRN	?GetThisMessageMap@CWnd@@KGPBUAFX_MSGMAP@@XZ:NEAR ; CWnd::GetThisMessageMap
CONST	SEGMENT
$SG187047 DB	'CBasicWnd', 00H
CONST	ENDS
;	COMDAT ?classCBasicWnd@CBasicWnd@@2UCRuntimeClass@@B
CONST	SEGMENT
?classCBasicWnd@CBasicWnd@@2UCRuntimeClass@@B DD FLAT:$SG187047 ; CBasicWnd::classCBasicWnd
	DD	054H
	DD	0ffffH
	DD	00H
	DD	FLAT:?GetThisClass@CWnd@@SGPAUCRuntimeClass@@XZ
	DD	00H
	DD	00H
CONST	ENDS
;	COMDAT ?_messageEntries@CBasicWnd@@0QBUAFX_MSGMAP_ENTRY@@B
CONST	SEGMENT
?_messageEntries@CBasicWnd@@0QBUAFX_MSGMAP_ENTRY@@B DD 0202H ; CBasicWnd::_messageEntries
	DD	00H
	DD	00H
	DD	00H
	DD	032H
	DD	FLAT:?OnLButtonUp@CBasicWnd@@IAEXIVCPoint@@@Z
	DD	0201H
	DD	00H
	DD	00H
	DD	00H
	DD	032H
	DD	FLAT:?OnLButtonDown@CBasicWnd@@IAEXIVCPoint@@@Z
	DD	0200H
	DD	00H
	DD	00H
	DD	00H
	DD	032H
	DD	FLAT:?OnMouseMove@CBasicWnd@@IAEXIVCPoint@@@Z
	DD	0fH
	DD	00H
	DD	00H
	DD	00H
	DD	010H
	DD	FLAT:?OnPaint@CBasicWnd@@IAEXXZ
	DD	05H
	DD	00H
	DD	00H
	DD	00H
	DD	016H
	DD	FLAT:?OnSize@CBasicWnd@@IAEXIHH@Z
	DD	00H
	DD	00H
	DD	00H
	DD	00H
	DD	00H
	DD	00H
CONST	ENDS
;	COMDAT ?messageMap@CBasicWnd@@1UAFX_MSGMAP@@B
CONST	SEGMENT
?messageMap@CBasicWnd@@1UAFX_MSGMAP@@B DD FLAT:?GetThisMessageMap@CWnd@@KGPBUAFX_MSGMAP@@XZ ; CBasicWnd::messageMap
	DD	FLAT:?_messageEntries@CBasicWnd@@0QBUAFX_MSGMAP_ENTRY@@B
CONST	ENDS
PUBLIC	?GetThisClass@CBasicWnd@@SGPAUCRuntimeClass@@XZ	; CBasicWnd::GetThisClass
EXTRN	__RTC_InitBase:NEAR
EXTRN	__RTC_Shutdown:NEAR
;	COMDAT rtc$IMZ
; File d:\boxgit\playbox\playbox\dev\prj\playbox\src\gui\commoncontrol\basicwnd.cpp
rtc$IMZ	SEGMENT
__RTC_InitBase.rtc$IMZ DD FLAT:__RTC_InitBase
rtc$IMZ	ENDS
;	COMDAT rtc$TMZ
rtc$TMZ	SEGMENT
__RTC_Shutdown.rtc$TMZ DD FLAT:__RTC_Shutdown
; Function compile flags: /Odt /RTCsu
rtc$TMZ	ENDS
_TEXT	SEGMENT
?GetThisClass@CBasicWnd@@SGPAUCRuntimeClass@@XZ PROC NEAR ; CBasicWnd::GetThisClass

; 4    : IMPLEMENT_DYNAMIC(CBasicWnd, CWnd)

  00000	55		 push	 ebp
  00001	8b ec		 mov	 ebp, esp
  00003	b8 00 00 00 00	 mov	 eax, OFFSET FLAT:?classCBasicWnd@CBasicWnd@@2UCRuntimeClass@@B ; CBasicWnd::classCBasicWnd
  00008	5d		 pop	 ebp
  00009	c3		 ret	 0
?GetThisClass@CBasicWnd@@SGPAUCRuntimeClass@@XZ ENDP	; CBasicWnd::GetThisClass
_TEXT	ENDS
PUBLIC	?GetRuntimeClass@CBasicWnd@@UBEPAUCRuntimeClass@@XZ ; CBasicWnd::GetRuntimeClass
; Function compile flags: /Odt /RTCsu
_TEXT	SEGMENT
_this$ = -4						; size = 4
?GetRuntimeClass@CBasicWnd@@UBEPAUCRuntimeClass@@XZ PROC NEAR ; CBasicWnd::GetRuntimeClass
; _this$ = ecx

; 4    : IMPLEMENT_DYNAMIC(CBasicWnd, CWnd)

  00010	55		 push	 ebp
  00011	8b ec		 mov	 ebp, esp
  00013	51		 push	 ecx
  00014	c7 45 fc cc cc
	cc cc		 mov	 DWORD PTR [ebp-4], -858993460 ; ccccccccH
  0001b	89 4d fc	 mov	 DWORD PTR _this$[ebp], ecx
  0001e	b8 00 00 00 00	 mov	 eax, OFFSET FLAT:?classCBasicWnd@CBasicWnd@@2UCRuntimeClass@@B ; CBasicWnd::classCBasicWnd
  00023	8b e5		 mov	 esp, ebp
  00025	5d		 pop	 ebp
  00026	c3		 ret	 0
?GetRuntimeClass@CBasicWnd@@UBEPAUCRuntimeClass@@XZ ENDP ; CBasicWnd::GetRuntimeClass
_TEXT	ENDS
PUBLIC	??_R1A@?0A@A@CWnd@@8				; CWnd::`RTTI Base Class Descriptor at (0,-1,0,0)'
PUBLIC	??_R0?AVCWnd@@@8				; CWnd `RTTI Type Descriptor'
PUBLIC	??_R1A@?0A@A@CCmdTarget@@8			; CCmdTarget::`RTTI Base Class Descriptor at (0,-1,0,0)'
PUBLIC	??_R0?AVCCmdTarget@@@8				; CCmdTarget `RTTI Type Descriptor'
PUBLIC	??_R1A@?0A@A@CObject@@8				; CObject::`RTTI Base Class Descriptor at (0,-1,0,0)'
PUBLIC	??_R0?AVCObject@@@8				; CObject `RTTI Type Descriptor'
PUBLIC	??0CBasicWnd@@QAE@XZ				; CBasicWnd::CBasicWnd
PUBLIC	?GetMessageMap@CBasicWnd@@MBEPBUAFX_MSGMAP@@XZ	; CBasicWnd::GetMessageMap
PUBLIC	??_7CBasicWnd@@6B@				; CBasicWnd::`vftable'
PUBLIC	??_GCBasicWnd@@UAEPAXI@Z			; CBasicWnd::`scalar deleting destructor'
PUBLIC	??_R4CBasicWnd@@6B@				; CBasicWnd::`RTTI Complete Object Locator'
PUBLIC	??_R0?AVCBasicWnd@@@8				; CBasicWnd `RTTI Type Descriptor'
PUBLIC	??_R3CBasicWnd@@8				; CBasicWnd::`RTTI Class Hierarchy Descriptor'
PUBLIC	??_R2CBasicWnd@@8				; CBasicWnd::`RTTI Base Class Array'
PUBLIC	??_R1A@?0A@A@CBasicWnd@@8			; CBasicWnd::`RTTI Base Class Descriptor at (0,-1,0,0)'
EXTRN	?GetInterfaceMap@CWnd@@MBEPBUAFX_INTERFACEMAP@@XZ:NEAR ; CWnd::GetInterfaceMap
EXTRN	?EnsureStdObj@CWnd@@UAEJXZ:NEAR			; CWnd::EnsureStdObj
EXTRN	?get_accParent@CWnd@@UAEJPAPAUIDispatch@@@Z:NEAR ; CWnd::get_accParent
EXTRN	?OnCmdMsg@CCmdTarget@@UAEHIHPAXPAUAFX_CMDHANDLERINFO@@@Z:NEAR ; CCmdTarget::OnCmdMsg
EXTRN	?get_accChildCount@CWnd@@UAEJPAJ@Z:NEAR		; CWnd::get_accChildCount
EXTRN	__RTC_CheckEsp:NEAR
EXTRN	?IsInvokeAllowed@CCmdTarget@@UAEHJ@Z:NEAR	; CCmdTarget::IsInvokeAllowed
EXTRN	?get_accChild@CWnd@@UAEJUtagVARIANT@@PAPAUIDispatch@@@Z:NEAR ; CWnd::get_accChild
EXTRN	?get_accName@CWnd@@UAEJUtagVARIANT@@PAPA_W@Z:NEAR ; CWnd::get_accName
EXTRN	?get_accValue@CWnd@@UAEJUtagVARIANT@@PAPA_W@Z:NEAR ; CWnd::get_accValue
EXTRN	?GetDispatchIID@CCmdTarget@@UAEHPAU_GUID@@@Z:NEAR ; CCmdTarget::GetDispatchIID
EXTRN	?GetTypeInfoCount@CCmdTarget@@UAEIXZ:NEAR	; CCmdTarget::GetTypeInfoCount
EXTRN	?GetTypeLibCache@CCmdTarget@@UAEPAVCTypeLibCache@@XZ:NEAR ; CCmdTarget::GetTypeLibCache
EXTRN	?get_accDescription@CWnd@@UAEJUtagVARIANT@@PAPA_W@Z:NEAR ; CWnd::get_accDescription
EXTRN	?GetTypeLib@CCmdTarget@@UAEJKPAPAUITypeLib@@@Z:NEAR ; CCmdTarget::GetTypeLib
EXTRN	?get_accRole@CWnd@@UAEJUtagVARIANT@@PAU2@@Z:NEAR ; CWnd::get_accRole
EXTRN	?get_accState@CWnd@@UAEJUtagVARIANT@@PAU2@@Z:NEAR ; CWnd::get_accState
EXTRN	?get_accHelp@CWnd@@UAEJUtagVARIANT@@PAPA_W@Z:NEAR ; CWnd::get_accHelp
EXTRN	?get_accHelpTopic@CWnd@@UAEJPAPA_WUtagVARIANT@@PAJ@Z:NEAR ; CWnd::get_accHelpTopic
EXTRN	?get_accKeyboardShortcut@CWnd@@UAEJUtagVARIANT@@PAPA_W@Z:NEAR ; CWnd::get_accKeyboardShortcut
EXTRN	?get_accFocus@CWnd@@UAEJPAUtagVARIANT@@@Z:NEAR	; CWnd::get_accFocus
EXTRN	?get_accSelection@CWnd@@UAEJPAUtagVARIANT@@@Z:NEAR ; CWnd::get_accSelection
EXTRN	?get_accDefaultAction@CWnd@@UAEJUtagVARIANT@@PAPA_W@Z:NEAR ; CWnd::get_accDefaultAction
EXTRN	?GetCommandMap@CCmdTarget@@MBEPBUAFX_OLECMDMAP@@XZ:NEAR ; CCmdTarget::GetCommandMap
EXTRN	?accSelect@CWnd@@UAEJJUtagVARIANT@@@Z:NEAR	; CWnd::accSelect
EXTRN	?accLocation@CWnd@@UAEJPAJ000UtagVARIANT@@@Z:NEAR ; CWnd::accLocation
EXTRN	?GetDispatchMap@CCmdTarget@@MBEPBUAFX_DISPMAP@@XZ:NEAR ; CCmdTarget::GetDispatchMap
EXTRN	?accNavigate@CWnd@@UAEJJUtagVARIANT@@PAU2@@Z:NEAR ; CWnd::accNavigate
EXTRN	?accHitTest@CWnd@@UAEJJJPAUtagVARIANT@@@Z:NEAR	; CWnd::accHitTest
EXTRN	?GetConnectionMap@CCmdTarget@@MBEPBUAFX_CONNECTIONMAP@@XZ:NEAR ; CCmdTarget::GetConnectionMap
EXTRN	?accDoDefaultAction@CWnd@@UAEJUtagVARIANT@@@Z:NEAR ; CWnd::accDoDefaultAction
EXTRN	?put_accName@CWnd@@UAEJUtagVARIANT@@PA_W@Z:NEAR	; CWnd::put_accName
EXTRN	?put_accValue@CWnd@@UAEJUtagVARIANT@@PA_W@Z:NEAR ; CWnd::put_accValue
EXTRN	?SetProxy@CWnd@@UAEJPAUIAccessibleProxy@@@Z:NEAR ; CWnd::SetProxy
EXTRN	?CreateAccessibleProxy@CWnd@@UAEJIJPAJ@Z:NEAR	; CWnd::CreateAccessibleProxy
EXTRN	?GetEventSinkMap@CCmdTarget@@MBEPBUAFX_EVENTSINKMAP@@XZ:NEAR ; CCmdTarget::GetEventSinkMap
EXTRN	?OnCreateAggregates@CCmdTarget@@UAEHXZ:NEAR	; CCmdTarget::OnCreateAggregates
EXTRN	?OnCommand@CWnd@@MAEHIJ@Z:NEAR			; CWnd::OnCommand
EXTRN	?GetInterfaceHook@CCmdTarget@@UAEPAUIUnknown@@PBX@Z:NEAR ; CCmdTarget::GetInterfaceHook
EXTRN	?OnNotify@CWnd@@MAEHIJPAJ@Z:NEAR		; CWnd::OnNotify
EXTRN	?GetExtraConnectionPoints@CCmdTarget@@MAEHPAVCPtrArray@@@Z:NEAR ; CCmdTarget::GetExtraConnectionPoints
EXTRN	?GetConnectionHook@CCmdTarget@@MAEPAUIConnectionPoint@@ABU_GUID@@@Z:NEAR ; CCmdTarget::GetConnectionHook
EXTRN	??0CWnd@@QAE@XZ:NEAR				; CWnd::CWnd
EXTRN	?PreSubclassWindow@CWnd@@UAEXXZ:NEAR		; CWnd::PreSubclassWindow
EXTRN	?Create@CWnd@@UAEHPBD0KABUtagRECT@@PAV1@IPAUCCreateContext@@@Z:NEAR ; CWnd::Create
EXTRN	?CreateEx@CWnd@@UAEHKPBD0KHHHHPAUHWND__@@PAUHMENU__@@PAX@Z:NEAR ; CWnd::CreateEx
EXTRN	?CreateEx@CWnd@@UAEHKPBD0KABUtagRECT@@PAV1@IPAX@Z:NEAR ; CWnd::CreateEx
EXTRN	?Serialize@CObject@@UAEXAAVCArchive@@@Z:NEAR	; CObject::Serialize
EXTRN	?DestroyWindow@CWnd@@UAEHXZ:NEAR		; CWnd::DestroyWindow
EXTRN	?PreCreateWindow@CWnd@@UAEHAAUtagCREATESTRUCTA@@@Z:NEAR ; CWnd::PreCreateWindow
EXTRN	?CalcWindowRect@CWnd@@UAEXPAUtagRECT@@I@Z:NEAR	; CWnd::CalcWindowRect
EXTRN	?GetSuperWndProcAddr@CWnd@@MAEPAP6GJPAUHWND__@@IIJ@ZXZ:NEAR ; CWnd::GetSuperWndProcAddr
EXTRN	?DoDataExchange@CWnd@@MAEXPAVCDataExchange@@@Z:NEAR ; CWnd::DoDataExchange
EXTRN	?BeginModalState@CWnd@@UAEXXZ:NEAR		; CWnd::BeginModalState
EXTRN	?EndModalState@CWnd@@UAEXXZ:NEAR		; CWnd::EndModalState
EXTRN	?PreTranslateMessage@CWnd@@UAEHPAUtagMSG@@@Z:NEAR ; CWnd::PreTranslateMessage
EXTRN	?OnAmbientProperty@CWnd@@UAEHPAVCOleControlSite@@JPAUtagVARIANT@@@Z:NEAR ; CWnd::OnAmbientProperty
EXTRN	?WindowProc@CWnd@@MAEJIIJ@Z:NEAR		; CWnd::WindowProc
EXTRN	?OnWndMsg@CWnd@@MAEHIIJPAJ@Z:NEAR		; CWnd::OnWndMsg
EXTRN	?DefWindowProcA@CWnd@@MAEJIIJ@Z:NEAR		; CWnd::DefWindowProcA
EXTRN	?PostNcDestroy@CWnd@@MAEXXZ:NEAR		; CWnd::PostNcDestroy
EXTRN	?OnChildNotify@CWnd@@MAEHIIJPAJ@Z:NEAR		; CWnd::OnChildNotify
EXTRN	?CheckAutoCenter@CWnd@@UAEHXZ:NEAR		; CWnd::CheckAutoCenter
EXTRN	?AssertValid@CWnd@@UBEXXZ:NEAR			; CWnd::AssertValid
EXTRN	?Dump@CWnd@@UBEXAAVCDumpContext@@@Z:NEAR	; CWnd::Dump
EXTRN	?IsFrameWnd@CWnd@@UBEHXZ:NEAR			; CWnd::IsFrameWnd
EXTRN	?OnFinalRelease@CWnd@@UAEXXZ:NEAR		; CWnd::OnFinalRelease
EXTRN	??_ECBasicWnd@@UAEPAXI@Z:NEAR			; CBasicWnd::`vector deleting destructor'
EXTRN	?CreateControlContainer@CWnd@@MAEHPAPAVCOleControlContainer@@@Z:NEAR ; CWnd::CreateControlContainer
EXTRN	?CreateControlSite@CWnd@@MAEHPAVCOleControlContainer@@PAPAVCOleControlSite@@IABU_GUID@@@Z:NEAR ; CWnd::CreateControlSite
EXTRN	?SetOccDialogInfo@CWnd@@MAEHPAU_AFX_OCC_DIALOG_INFO@@@Z:NEAR ; CWnd::SetOccDialogInfo
EXTRN	?OnToolHitTest@CWnd@@UBEHVCPoint@@PAUtagTOOLINFOA@@@Z:NEAR ; CWnd::OnToolHitTest
EXTRN	?GetScrollBarCtrl@CWnd@@UBEPAVCScrollBar@@H@Z:NEAR ; CWnd::GetScrollBarCtrl
EXTRN	?WinHelpA@CWnd@@UAEXKI@Z:NEAR			; CWnd::WinHelpA
EXTRN	?HtmlHelpA@CWnd@@UAEXKI@Z:NEAR			; CWnd::HtmlHelpA
EXTRN	??_7type_info@@6B@:QWORD			; type_info::`vftable'
EXTRN	?WinHelpInternal@CWnd@@UAEXKI@Z:NEAR		; CWnd::WinHelpInternal
EXTRN	?ContinueModal@CWnd@@UAEHXZ:NEAR		; CWnd::ContinueModal
EXTRN	?EndModalLoop@CWnd@@UAEXH@Z:NEAR		; CWnd::EndModalLoop
;	COMDAT ??_7CBasicWnd@@6B@
CONST	SEGMENT
??_7CBasicWnd@@6B@ DD FLAT:??_R4CBasicWnd@@6B@		; CBasicWnd::`vftable'
	DD	FLAT:?GetRuntimeClass@CBasicWnd@@UBEPAUCRuntimeClass@@XZ
	DD	FLAT:??_ECBasicWnd@@UAEPAXI@Z
	DD	FLAT:?Serialize@CObject@@UAEXAAVCArchive@@@Z
	DD	FLAT:?AssertValid@CWnd@@UBEXXZ
	DD	FLAT:?Dump@CWnd@@UBEXAAVCDumpContext@@@Z
	DD	FLAT:?OnCmdMsg@CCmdTarget@@UAEHIHPAXPAUAFX_CMDHANDLERINFO@@@Z
	DD	FLAT:?OnFinalRelease@CWnd@@UAEXXZ
	DD	FLAT:?IsInvokeAllowed@CCmdTarget@@UAEHJ@Z
	DD	FLAT:?GetDispatchIID@CCmdTarget@@UAEHPAU_GUID@@@Z
	DD	FLAT:?GetTypeInfoCount@CCmdTarget@@UAEIXZ
	DD	FLAT:?GetTypeLibCache@CCmdTarget@@UAEPAVCTypeLibCache@@XZ
	DD	FLAT:?GetTypeLib@CCmdTarget@@UAEJKPAPAUITypeLib@@@Z
	DD	FLAT:?GetMessageMap@CBasicWnd@@MBEPBUAFX_MSGMAP@@XZ
	DD	FLAT:?GetCommandMap@CCmdTarget@@MBEPBUAFX_OLECMDMAP@@XZ
	DD	FLAT:?GetDispatchMap@CCmdTarget@@MBEPBUAFX_DISPMAP@@XZ
	DD	FLAT:?GetConnectionMap@CCmdTarget@@MBEPBUAFX_CONNECTIONMAP@@XZ
	DD	FLAT:?GetInterfaceMap@CWnd@@MBEPBUAFX_INTERFACEMAP@@XZ
	DD	FLAT:?GetEventSinkMap@CCmdTarget@@MBEPBUAFX_EVENTSINKMAP@@XZ
	DD	FLAT:?OnCreateAggregates@CCmdTarget@@UAEHXZ
	DD	FLAT:?GetInterfaceHook@CCmdTarget@@UAEPAUIUnknown@@PBX@Z
	DD	FLAT:?GetExtraConnectionPoints@CCmdTarget@@MAEHPAVCPtrArray@@@Z
	DD	FLAT:?GetConnectionHook@CCmdTarget@@MAEPAUIConnectionPoint@@ABU_GUID@@@Z
	DD	FLAT:?PreSubclassWindow@CWnd@@UAEXXZ
	DD	FLAT:?Create@CWnd@@UAEHPBD0KABUtagRECT@@PAV1@IPAUCCreateContext@@@Z
	DD	FLAT:?CreateEx@CWnd@@UAEHKPBD0KABUtagRECT@@PAV1@IPAX@Z
	DD	FLAT:?CreateEx@CWnd@@UAEHKPBD0KHHHHPAUHWND__@@PAUHMENU__@@PAX@Z
	DD	FLAT:?DestroyWindow@CWnd@@UAEHXZ
	DD	FLAT:?PreCreateWindow@CWnd@@UAEHAAUtagCREATESTRUCTA@@@Z
	DD	FLAT:?CalcWindowRect@CWnd@@UAEXPAUtagRECT@@I@Z
	DD	FLAT:?OnToolHitTest@CWnd@@UBEHVCPoint@@PAUtagTOOLINFOA@@@Z
	DD	FLAT:?GetScrollBarCtrl@CWnd@@UBEPAVCScrollBar@@H@Z
	DD	FLAT:?WinHelpA@CWnd@@UAEXKI@Z
	DD	FLAT:?HtmlHelpA@CWnd@@UAEXKI@Z
	DD	FLAT:?WinHelpInternal@CWnd@@UAEXKI@Z
	DD	FLAT:?ContinueModal@CWnd@@UAEHXZ
	DD	FLAT:?EndModalLoop@CWnd@@UAEXH@Z
	DD	FLAT:?EnsureStdObj@CWnd@@UAEJXZ
	DD	FLAT:?get_accParent@CWnd@@UAEJPAPAUIDispatch@@@Z
	DD	FLAT:?get_accChildCount@CWnd@@UAEJPAJ@Z
	DD	FLAT:?get_accChild@CWnd@@UAEJUtagVARIANT@@PAPAUIDispatch@@@Z
	DD	FLAT:?get_accName@CWnd@@UAEJUtagVARIANT@@PAPA_W@Z
	DD	FLAT:?get_accValue@CWnd@@UAEJUtagVARIANT@@PAPA_W@Z
	DD	FLAT:?get_accDescription@CWnd@@UAEJUtagVARIANT@@PAPA_W@Z
	DD	FLAT:?get_accRole@CWnd@@UAEJUtagVARIANT@@PAU2@@Z
	DD	FLAT:?get_accState@CWnd@@UAEJUtagVARIANT@@PAU2@@Z
	DD	FLAT:?get_accHelp@CWnd@@UAEJUtagVARIANT@@PAPA_W@Z
	DD	FLAT:?get_accHelpTopic@CWnd@@UAEJPAPA_WUtagVARIANT@@PAJ@Z
	DD	FLAT:?get_accKeyboardShortcut@CWnd@@UAEJUtagVARIANT@@PAPA_W@Z
	DD	FLAT:?get_accFocus@CWnd@@UAEJPAUtagVARIANT@@@Z
	DD	FLAT:?get_accSelection@CWnd@@UAEJPAUtagVARIANT@@@Z
	DD	FLAT:?get_accDefaultAction@CWnd@@UAEJUtagVARIANT@@PAPA_W@Z
	DD	FLAT:?accSelect@CWnd@@UAEJJUtagVARIANT@@@Z
	DD	FLAT:?accLocation@CWnd@@UAEJPAJ000UtagVARIANT@@@Z
	DD	FLAT:?accNavigate@CWnd@@UAEJJUtagVARIANT@@PAU2@@Z
	DD	FLAT:?accHitTest@CWnd@@UAEJJJPAUtagVARIANT@@@Z
	DD	FLAT:?accDoDefaultAction@CWnd@@UAEJUtagVARIANT@@@Z
	DD	FLAT:?put_accName@CWnd@@UAEJUtagVARIANT@@PA_W@Z
	DD	FLAT:?put_accValue@CWnd@@UAEJUtagVARIANT@@PA_W@Z
	DD	FLAT:?SetProxy@CWnd@@UAEJPAUIAccessibleProxy@@@Z
	DD	FLAT:?CreateAccessibleProxy@CWnd@@UAEJIJPAJ@Z
	DD	FLAT:?OnCommand@CWnd@@MAEHIJ@Z
	DD	FLAT:?OnNotify@CWnd@@MAEHIJPAJ@Z
	DD	FLAT:?GetSuperWndProcAddr@CWnd@@MAEPAP6GJPAUHWND__@@IIJ@ZXZ
	DD	FLAT:?DoDataExchange@CWnd@@MAEXPAVCDataExchange@@@Z
	DD	FLAT:?BeginModalState@CWnd@@UAEXXZ
	DD	FLAT:?EndModalState@CWnd@@UAEXXZ
	DD	FLAT:?PreTranslateMessage@CWnd@@UAEHPAUtagMSG@@@Z
	DD	FLAT:?OnAmbientProperty@CWnd@@UAEHPAVCOleControlSite@@JPAUtagVARIANT@@@Z
	DD	FLAT:?WindowProc@CWnd@@MAEJIIJ@Z
	DD	FLAT:?OnWndMsg@CWnd@@MAEHIIJPAJ@Z
	DD	FLAT:?DefWindowProcA@CWnd@@MAEJIIJ@Z
	DD	FLAT:?PostNcDestroy@CWnd@@MAEXXZ
	DD	FLAT:?OnChildNotify@CWnd@@MAEHIIJPAJ@Z
	DD	FLAT:?CheckAutoCenter@CWnd@@UAEHXZ
	DD	FLAT:?IsFrameWnd@CWnd@@UBEHXZ
	DD	FLAT:?CreateControlContainer@CWnd@@MAEHPAPAVCOleControlContainer@@@Z
	DD	FLAT:?CreateControlSite@CWnd@@MAEHPAVCOleControlContainer@@PAPAVCOleControlSite@@IABU_GUID@@@Z
	DD	FLAT:?SetOccDialogInfo@CWnd@@MAEHPAU_AFX_OCC_DIALOG_INFO@@@Z
CONST	ENDS
;	COMDAT ??_R4CBasicWnd@@6B@
rdata$r	SEGMENT
??_R4CBasicWnd@@6B@ DD 00H				; CBasicWnd::`RTTI Complete Object Locator'
	DD	00H
	DD	00H
	DD	FLAT:??_R0?AVCBasicWnd@@@8
	DD	FLAT:??_R3CBasicWnd@@8
rdata$r	ENDS
;	COMDAT ??_R0?AVCBasicWnd@@@8
_DATA	SEGMENT
??_R0?AVCBasicWnd@@@8 DD FLAT:??_7type_info@@6B@	; CBasicWnd `RTTI Type Descriptor'
	DD	00H
	DB	'.?AVCBasicWnd@@', 00H
_DATA	ENDS
;	COMDAT ??_R3CBasicWnd@@8
rdata$r	SEGMENT
??_R3CBasicWnd@@8 DD 00H				; CBasicWnd::`RTTI Class Hierarchy Descriptor'
	DD	00H
	DD	04H
	DD	FLAT:??_R2CBasicWnd@@8
rdata$r	ENDS
;	COMDAT ??_R2CBasicWnd@@8
rdata$r	SEGMENT
??_R2CBasicWnd@@8 DD FLAT:??_R1A@?0A@A@CBasicWnd@@8	; CBasicWnd::`RTTI Base Class Array'
	DD	FLAT:??_R1A@?0A@A@CWnd@@8
	DD	FLAT:??_R1A@?0A@A@CCmdTarget@@8
	DD	FLAT:??_R1A@?0A@A@CObject@@8
rdata$r	ENDS
;	COMDAT ??_R1A@?0A@A@CBasicWnd@@8
rdata$r	SEGMENT
??_R1A@?0A@A@CBasicWnd@@8 DD FLAT:??_R0?AVCBasicWnd@@@8	; CBasicWnd::`RTTI Base Class Descriptor at (0,-1,0,0)'
	DD	03H
	DD	00H
	DD	0ffffffffH
	DD	00H
	DD	00H
rdata$r	ENDS
;	COMDAT ??_R1A@?0A@A@CWnd@@8
rdata$r	SEGMENT
??_R1A@?0A@A@CWnd@@8 DD FLAT:??_R0?AVCWnd@@@8		; CWnd::`RTTI Base Class Descriptor at (0,-1,0,0)'
	DD	02H
	DD	00H
	DD	0ffffffffH
	DD	00H
	DD	00H
rdata$r	ENDS
;	COMDAT ??_R0?AVCWnd@@@8
_DATA	SEGMENT
??_R0?AVCWnd@@@8 DD FLAT:??_7type_info@@6B@		; CWnd `RTTI Type Descriptor'
	DD	00H
	DB	'.?AVCWnd@@', 00H
_DATA	ENDS
;	COMDAT ??_R1A@?0A@A@CCmdTarget@@8
rdata$r	SEGMENT
??_R1A@?0A@A@CCmdTarget@@8 DD FLAT:??_R0?AVCCmdTarget@@@8 ; CCmdTarget::`RTTI Base Class Descriptor at (0,-1,0,0)'
	DD	01H
	DD	00H
	DD	0ffffffffH
	DD	00H
	DD	00H
rdata$r	ENDS
;	COMDAT ??_R0?AVCCmdTarget@@@8
_DATA	SEGMENT
??_R0?AVCCmdTarget@@@8 DD FLAT:??_7type_info@@6B@	; CCmdTarget `RTTI Type Descriptor'
	DD	00H
	DB	'.?AVCCmdTarget@@', 00H
_DATA	ENDS
;	COMDAT ??_R1A@?0A@A@CObject@@8
rdata$r	SEGMENT
??_R1A@?0A@A@CObject@@8 DD FLAT:??_R0?AVCObject@@@8	; CObject::`RTTI Base Class Descriptor at (0,-1,0,0)'
	DD	00H
	DD	00H
	DD	0ffffffffH
	DD	00H
	DD	00H
rdata$r	ENDS
;	COMDAT ??_R0?AVCObject@@@8
_DATA	SEGMENT
??_R0?AVCObject@@@8 DD FLAT:??_7type_info@@6B@		; CObject `RTTI Type Descriptor'
	DD	00H
	DB	'.?AVCObject@@', 00H
; Function compile flags: /Odt /RTCsu
_DATA	ENDS
_TEXT	SEGMENT
_this$ = -4						; size = 4
??0CBasicWnd@@QAE@XZ PROC NEAR				; CBasicWnd::CBasicWnd
; _this$ = ecx

; 6    : {

  00030	55		 push	 ebp
  00031	8b ec		 mov	 ebp, esp
  00033	51		 push	 ecx
  00034	c7 45 fc cc cc
	cc cc		 mov	 DWORD PTR [ebp-4], -858993460 ; ccccccccH
  0003b	89 4d fc	 mov	 DWORD PTR _this$[ebp], ecx
  0003e	8b 4d fc	 mov	 ecx, DWORD PTR _this$[ebp]
  00041	e8 00 00 00 00	 call	 ??0CWnd@@QAE@XZ		; CWnd::CWnd
  00046	8b 45 fc	 mov	 eax, DWORD PTR _this$[ebp]
  00049	c7 00 00 00 00
	00		 mov	 DWORD PTR [eax], OFFSET FLAT:??_7CBasicWnd@@6B@

; 7    : }

  0004f	8b 45 fc	 mov	 eax, DWORD PTR _this$[ebp]
  00052	83 c4 04	 add	 esp, 4
  00055	3b ec		 cmp	 ebp, esp
  00057	e8 00 00 00 00	 call	 __RTC_CheckEsp
  0005c	8b e5		 mov	 esp, ebp
  0005e	5d		 pop	 ebp
  0005f	c3		 ret	 0
??0CBasicWnd@@QAE@XZ ENDP				; CBasicWnd::CBasicWnd
_TEXT	ENDS
PUBLIC	??1CBasicWnd@@UAE@XZ				; CBasicWnd::~CBasicWnd
EXTRN	??3CObject@@SGXPAX@Z:NEAR			; CObject::operator delete
; Function compile flags: /Odt /RTCsu
;	COMDAT ??_GCBasicWnd@@UAEPAXI@Z
_TEXT	SEGMENT
_this$ = -4						; size = 4
___flags$ = 8						; size = 4
??_GCBasicWnd@@UAEPAXI@Z PROC NEAR			; CBasicWnd::`scalar deleting destructor', COMDAT
; _this$ = ecx
  00000	55		 push	 ebp
  00001	8b ec		 mov	 ebp, esp
  00003	51		 push	 ecx
  00004	c7 45 fc cc cc
	cc cc		 mov	 DWORD PTR [ebp-4], -858993460 ; ccccccccH
  0000b	89 4d fc	 mov	 DWORD PTR _this$[ebp], ecx
  0000e	8b 4d fc	 mov	 ecx, DWORD PTR _this$[ebp]
  00011	e8 00 00 00 00	 call	 ??1CBasicWnd@@UAE@XZ	; CBasicWnd::~CBasicWnd
  00016	8b 45 08	 mov	 eax, DWORD PTR ___flags$[ebp]
  00019	83 e0 01	 and	 eax, 1
  0001c	74 09		 je	 SHORT $L187062
  0001e	8b 4d fc	 mov	 ecx, DWORD PTR _this$[ebp]
  00021	51		 push	 ecx
  00022	e8 00 00 00 00	 call	 ??3CObject@@SGXPAX@Z	; CObject::operator delete
$L187062:
  00027	8b 45 fc	 mov	 eax, DWORD PTR _this$[ebp]
  0002a	83 c4 04	 add	 esp, 4
  0002d	3b ec		 cmp	 ebp, esp
  0002f	e8 00 00 00 00	 call	 __RTC_CheckEsp
  00034	8b e5		 mov	 esp, ebp
  00036	5d		 pop	 ebp
  00037	c2 04 00	 ret	 4
??_GCBasicWnd@@UAEPAXI@Z ENDP				; CBasicWnd::`scalar deleting destructor'
_TEXT	ENDS
EXTRN	??1CWnd@@UAE@XZ:NEAR				; CWnd::~CWnd
; Function compile flags: /Odt /RTCsu
_TEXT	SEGMENT
_this$ = -4						; size = 4
??1CBasicWnd@@UAE@XZ PROC NEAR				; CBasicWnd::~CBasicWnd
; _this$ = ecx

; 10   : {

  00060	55		 push	 ebp
  00061	8b ec		 mov	 ebp, esp
  00063	51		 push	 ecx
  00064	c7 45 fc cc cc
	cc cc		 mov	 DWORD PTR [ebp-4], -858993460 ; ccccccccH
  0006b	89 4d fc	 mov	 DWORD PTR _this$[ebp], ecx
  0006e	8b 45 fc	 mov	 eax, DWORD PTR _this$[ebp]
  00071	c7 00 00 00 00
	00		 mov	 DWORD PTR [eax], OFFSET FLAT:??_7CBasicWnd@@6B@

; 11   : }

  00077	8b 4d fc	 mov	 ecx, DWORD PTR _this$[ebp]
  0007a	e8 00 00 00 00	 call	 ??1CWnd@@UAE@XZ		; CWnd::~CWnd
  0007f	83 c4 04	 add	 esp, 4
  00082	3b ec		 cmp	 ebp, esp
  00084	e8 00 00 00 00	 call	 __RTC_CheckEsp
  00089	8b e5		 mov	 esp, ebp
  0008b	5d		 pop	 ebp
  0008c	c3		 ret	 0
??1CBasicWnd@@UAE@XZ ENDP				; CBasicWnd::~CBasicWnd
_TEXT	ENDS
PUBLIC	?GetThisMessageMap@CBasicWnd@@KGPBUAFX_MSGMAP@@XZ ; CBasicWnd::GetThisMessageMap
; Function compile flags: /Odt /RTCsu
_TEXT	SEGMENT
?GetThisMessageMap@CBasicWnd@@KGPBUAFX_MSGMAP@@XZ PROC NEAR ; CBasicWnd::GetThisMessageMap

; 14   : BEGIN_MESSAGE_MAP(CBasicWnd, CWnd)

  00090	55		 push	 ebp
  00091	8b ec		 mov	 ebp, esp
  00093	b8 00 00 00 00	 mov	 eax, OFFSET FLAT:?messageMap@CBasicWnd@@1UAFX_MSGMAP@@B ; CBasicWnd::messageMap
  00098	5d		 pop	 ebp
  00099	c3		 ret	 0
?GetThisMessageMap@CBasicWnd@@KGPBUAFX_MSGMAP@@XZ ENDP	; CBasicWnd::GetThisMessageMap
; Function compile flags: /Odt /RTCsu
_this$ = -4						; size = 4
?GetMessageMap@CBasicWnd@@MBEPBUAFX_MSGMAP@@XZ PROC NEAR ; CBasicWnd::GetMessageMap
; _this$ = ecx

; 14   : BEGIN_MESSAGE_MAP(CBasicWnd, CWnd)

  000a0	55		 push	 ebp
  000a1	8b ec		 mov	 ebp, esp
  000a3	51		 push	 ecx
  000a4	c7 45 fc cc cc
	cc cc		 mov	 DWORD PTR [ebp-4], -858993460 ; ccccccccH
  000ab	89 4d fc	 mov	 DWORD PTR _this$[ebp], ecx
  000ae	b8 00 00 00 00	 mov	 eax, OFFSET FLAT:?messageMap@CBasicWnd@@1UAFX_MSGMAP@@B ; CBasicWnd::messageMap
  000b3	8b e5		 mov	 esp, ebp
  000b5	5d		 pop	 ebp
  000b6	c3		 ret	 0
?GetMessageMap@CBasicWnd@@MBEPBUAFX_MSGMAP@@XZ ENDP	; CBasicWnd::GetMessageMap
_TEXT	ENDS
EXTRN	__imp__SendMessageA@16:NEAR
EXTRN	?AfxGetMainWindow@@YAPAVCWnd@@XZ:NEAR		; AfxGetMainWindow
EXTRN	?OnLButtonDown@CWnd@@IAEXIVCPoint@@@Z:NEAR	; CWnd::OnLButtonDown
EXTRN	__imp__ScreenToClient@8:NEAR
EXTRN	?ClientToScreen@CWnd@@QBEXPAUtagPOINT@@@Z:NEAR	; CWnd::ClientToScreen
EXTRN	?GetParent@CWnd@@QBEPAV1@XZ:NEAR		; CWnd::GetParent
; Function compile flags: /Odt /RTCsu
_TEXT	SEGMENT
_lParam$ = -16						; size = 4
_wParam$ = -12						; size = 4
_pParent$ = -8						; size = 4
_this$ = -4						; size = 4
_nFlags$ = 8						; size = 4
_point$ = 12						; size = 8
?OnLButtonDown@CBasicWnd@@IAEXIVCPoint@@@Z PROC NEAR	; CBasicWnd::OnLButtonDown
; _this$ = ecx

; 26   : {	

  000c0	55		 push	 ebp
  000c1	8b ec		 mov	 ebp, esp
  000c3	83 ec 10	 sub	 esp, 16			; 00000010H
  000c6	56		 push	 esi
  000c7	b8 cc cc cc cc	 mov	 eax, -858993460		; ccccccccH
  000cc	89 45 f0	 mov	 DWORD PTR [ebp-16], eax
  000cf	89 45 f4	 mov	 DWORD PTR [ebp-12], eax
  000d2	89 45 f8	 mov	 DWORD PTR [ebp-8], eax
  000d5	89 45 fc	 mov	 DWORD PTR [ebp-4], eax
  000d8	89 4d fc	 mov	 DWORD PTR _this$[ebp], ecx

; 27   : 	CWnd * pParent = GetParent();

  000db	8b 4d fc	 mov	 ecx, DWORD PTR _this$[ebp]
  000de	e8 00 00 00 00	 call	 ?GetParent@CWnd@@QBEPAV1@XZ ; CWnd::GetParent
  000e3	89 45 f8	 mov	 DWORD PTR _pParent$[ebp], eax

; 28   : 
; 29   : 	pParent = AfxGetMainWindow();

  000e6	e8 00 00 00 00	 call	 ?AfxGetMainWindow@@YAPAVCWnd@@XZ ; AfxGetMainWindow
  000eb	89 45 f8	 mov	 DWORD PTR _pParent$[ebp], eax

; 30   : 
; 31   : 	WPARAM wParam;
; 32   : 	LPARAM lParam;
; 33   : 
; 34   : 	ClientToScreen( &point);

  000ee	8d 45 0c	 lea	 eax, DWORD PTR _point$[ebp]
  000f1	50		 push	 eax
  000f2	8b 4d fc	 mov	 ecx, DWORD PTR _this$[ebp]
  000f5	e8 00 00 00 00	 call	 ?ClientToScreen@CWnd@@QBEXPAUtagPOINT@@@Z ; CWnd::ClientToScreen

; 35   : 	::ScreenToClient( pParent->m_hWnd,&point );

  000fa	8b f4		 mov	 esi, esp
  000fc	8d 4d 0c	 lea	 ecx, DWORD PTR _point$[ebp]
  000ff	51		 push	 ecx
  00100	8b 55 f8	 mov	 edx, DWORD PTR _pParent$[ebp]
  00103	8b 42 20	 mov	 eax, DWORD PTR [edx+32]
  00106	50		 push	 eax
  00107	ff 15 00 00 00
	00		 call	 DWORD PTR __imp__ScreenToClient@8
  0010d	3b f4		 cmp	 esi, esp
  0010f	e8 00 00 00 00	 call	 __RTC_CheckEsp

; 36   : 
; 37   : 	wParam = nFlags;

  00114	8b 4d 08	 mov	 ecx, DWORD PTR _nFlags$[ebp]
  00117	89 4d f4	 mov	 DWORD PTR _wParam$[ebp], ecx

; 38   : 	lParam = (WORD)point.x;

  0011a	0f b7 55 0c	 movzx	 edx, WORD PTR _point$[ebp]
  0011e	89 55 f0	 mov	 DWORD PTR _lParam$[ebp], edx

; 39   : 	lParam += ((WORD)point.y) << 16;		

  00121	0f b7 45 10	 movzx	 eax, WORD PTR _point$[ebp+4]
  00125	c1 e0 10	 shl	 eax, 16			; 00000010H
  00128	03 45 f0	 add	 eax, DWORD PTR _lParam$[ebp]
  0012b	89 45 f0	 mov	 DWORD PTR _lParam$[ebp], eax

; 40   : 
; 41   : //	::PostMessage( AfxGetMainWindow()->m_hWnd,WM_NCLBUTTONDOWN, HTCAPTION, lParam );	
; 42   : 
; 43   : 	::SendMessage(pParent->m_hWnd,WM_LBUTTONDOWN, wParam,lParam );	

  0012e	8b f4		 mov	 esi, esp
  00130	8b 4d f0	 mov	 ecx, DWORD PTR _lParam$[ebp]
  00133	51		 push	 ecx
  00134	8b 55 f4	 mov	 edx, DWORD PTR _wParam$[ebp]
  00137	52		 push	 edx
  00138	68 01 02 00 00	 push	 513			; 00000201H
  0013d	8b 45 f8	 mov	 eax, DWORD PTR _pParent$[ebp]
  00140	8b 48 20	 mov	 ecx, DWORD PTR [eax+32]
  00143	51		 push	 ecx
  00144	ff 15 00 00 00
	00		 call	 DWORD PTR __imp__SendMessageA@16
  0014a	3b f4		 cmp	 esi, esp
  0014c	e8 00 00 00 00	 call	 __RTC_CheckEsp

; 44   : 	__super::OnLButtonDown(nFlags, point);

  00151	8b 55 10	 mov	 edx, DWORD PTR _point$[ebp+4]
  00154	52		 push	 edx
  00155	8b 45 0c	 mov	 eax, DWORD PTR _point$[ebp]
  00158	50		 push	 eax
  00159	8b 4d 08	 mov	 ecx, DWORD PTR _nFlags$[ebp]
  0015c	51		 push	 ecx
  0015d	8b 4d fc	 mov	 ecx, DWORD PTR _this$[ebp]
  00160	e8 00 00 00 00	 call	 ?OnLButtonDown@CWnd@@IAEXIVCPoint@@@Z ; CWnd::OnLButtonDown

; 45   : }

  00165	5e		 pop	 esi
  00166	83 c4 10	 add	 esp, 16			; 00000010H
  00169	3b ec		 cmp	 ebp, esp
  0016b	e8 00 00 00 00	 call	 __RTC_CheckEsp
  00170	8b e5		 mov	 esp, ebp
  00172	5d		 pop	 ebp
  00173	c2 0c 00	 ret	 12			; 0000000cH
?OnLButtonDown@CBasicWnd@@IAEXIVCPoint@@@Z ENDP		; CBasicWnd::OnLButtonDown
_TEXT	ENDS
EXTRN	?OnLButtonUp@CWnd@@IAEXIVCPoint@@@Z:NEAR	; CWnd::OnLButtonUp
; Function compile flags: /Odt /RTCsu
_TEXT	SEGMENT
_lParam$ = -16						; size = 4
_wParam$ = -12						; size = 4
_pParent$ = -8						; size = 4
_this$ = -4						; size = 4
_nFlags$ = 8						; size = 4
_point$ = 12						; size = 8
?OnLButtonUp@CBasicWnd@@IAEXIVCPoint@@@Z PROC NEAR	; CBasicWnd::OnLButtonUp
; _this$ = ecx

; 48   : {

  00180	55		 push	 ebp
  00181	8b ec		 mov	 ebp, esp
  00183	83 ec 10	 sub	 esp, 16			; 00000010H
  00186	56		 push	 esi
  00187	b8 cc cc cc cc	 mov	 eax, -858993460		; ccccccccH
  0018c	89 45 f0	 mov	 DWORD PTR [ebp-16], eax
  0018f	89 45 f4	 mov	 DWORD PTR [ebp-12], eax
  00192	89 45 f8	 mov	 DWORD PTR [ebp-8], eax
  00195	89 45 fc	 mov	 DWORD PTR [ebp-4], eax
  00198	89 4d fc	 mov	 DWORD PTR _this$[ebp], ecx

; 49   : 	CWnd * pParent = GetParent();

  0019b	8b 4d fc	 mov	 ecx, DWORD PTR _this$[ebp]
  0019e	e8 00 00 00 00	 call	 ?GetParent@CWnd@@QBEPAV1@XZ ; CWnd::GetParent
  001a3	89 45 f8	 mov	 DWORD PTR _pParent$[ebp], eax

; 50   : 
; 51   : 	pParent = AfxGetMainWindow();

  001a6	e8 00 00 00 00	 call	 ?AfxGetMainWindow@@YAPAVCWnd@@XZ ; AfxGetMainWindow
  001ab	89 45 f8	 mov	 DWORD PTR _pParent$[ebp], eax

; 52   : 
; 53   : 	WPARAM wParam;
; 54   : 	LPARAM lParam;
; 55   : 
; 56   : 	ClientToScreen( &point);

  001ae	8d 45 0c	 lea	 eax, DWORD PTR _point$[ebp]
  001b1	50		 push	 eax
  001b2	8b 4d fc	 mov	 ecx, DWORD PTR _this$[ebp]
  001b5	e8 00 00 00 00	 call	 ?ClientToScreen@CWnd@@QBEXPAUtagPOINT@@@Z ; CWnd::ClientToScreen

; 57   : 	::ScreenToClient( pParent->m_hWnd,&point );

  001ba	8b f4		 mov	 esi, esp
  001bc	8d 4d 0c	 lea	 ecx, DWORD PTR _point$[ebp]
  001bf	51		 push	 ecx
  001c0	8b 55 f8	 mov	 edx, DWORD PTR _pParent$[ebp]
  001c3	8b 42 20	 mov	 eax, DWORD PTR [edx+32]
  001c6	50		 push	 eax
  001c7	ff 15 00 00 00
	00		 call	 DWORD PTR __imp__ScreenToClient@8
  001cd	3b f4		 cmp	 esi, esp
  001cf	e8 00 00 00 00	 call	 __RTC_CheckEsp

; 58   : 
; 59   : 	wParam = nFlags;

  001d4	8b 4d 08	 mov	 ecx, DWORD PTR _nFlags$[ebp]
  001d7	89 4d f4	 mov	 DWORD PTR _wParam$[ebp], ecx

; 60   : 	lParam = (WORD)point.x;

  001da	0f b7 55 0c	 movzx	 edx, WORD PTR _point$[ebp]
  001de	89 55 f0	 mov	 DWORD PTR _lParam$[ebp], edx

; 61   : 	lParam += ((WORD)point.y) << 16;		

  001e1	0f b7 45 10	 movzx	 eax, WORD PTR _point$[ebp+4]
  001e5	c1 e0 10	 shl	 eax, 16			; 00000010H
  001e8	03 45 f0	 add	 eax, DWORD PTR _lParam$[ebp]
  001eb	89 45 f0	 mov	 DWORD PTR _lParam$[ebp], eax

; 62   : 
; 63   : 	::SendMessage(pParent->m_hWnd,WM_LBUTTONUP, wParam,lParam );	

  001ee	8b f4		 mov	 esi, esp
  001f0	8b 4d f0	 mov	 ecx, DWORD PTR _lParam$[ebp]
  001f3	51		 push	 ecx
  001f4	8b 55 f4	 mov	 edx, DWORD PTR _wParam$[ebp]
  001f7	52		 push	 edx
  001f8	68 02 02 00 00	 push	 514			; 00000202H
  001fd	8b 45 f8	 mov	 eax, DWORD PTR _pParent$[ebp]
  00200	8b 48 20	 mov	 ecx, DWORD PTR [eax+32]
  00203	51		 push	 ecx
  00204	ff 15 00 00 00
	00		 call	 DWORD PTR __imp__SendMessageA@16
  0020a	3b f4		 cmp	 esi, esp
  0020c	e8 00 00 00 00	 call	 __RTC_CheckEsp

; 64   : 
; 65   : 	__super::OnLButtonUp(nFlags, point);

  00211	8b 55 10	 mov	 edx, DWORD PTR _point$[ebp+4]
  00214	52		 push	 edx
  00215	8b 45 0c	 mov	 eax, DWORD PTR _point$[ebp]
  00218	50		 push	 eax
  00219	8b 4d 08	 mov	 ecx, DWORD PTR _nFlags$[ebp]
  0021c	51		 push	 ecx
  0021d	8b 4d fc	 mov	 ecx, DWORD PTR _this$[ebp]
  00220	e8 00 00 00 00	 call	 ?OnLButtonUp@CWnd@@IAEXIVCPoint@@@Z ; CWnd::OnLButtonUp

; 66   : }

  00225	5e		 pop	 esi
  00226	83 c4 10	 add	 esp, 16			; 00000010H
  00229	3b ec		 cmp	 ebp, esp
  0022b	e8 00 00 00 00	 call	 __RTC_CheckEsp
  00230	8b e5		 mov	 esp, ebp
  00232	5d		 pop	 ebp
  00233	c2 0c 00	 ret	 12			; 0000000cH
?OnLButtonUp@CBasicWnd@@IAEXIVCPoint@@@Z ENDP		; CBasicWnd::OnLButtonUp
_TEXT	ENDS
EXTRN	?OnMouseMove@CWnd@@IAEXIVCPoint@@@Z:NEAR	; CWnd::OnMouseMove
; Function compile flags: /Odt /RTCsu
_TEXT	SEGMENT
_lParam$ = -16						; size = 4
_wParam$ = -12						; size = 4
_pParent$ = -8						; size = 4
_this$ = -4						; size = 4
_nFlags$ = 8						; size = 4
_point$ = 12						; size = 8
?OnMouseMove@CBasicWnd@@IAEXIVCPoint@@@Z PROC NEAR	; CBasicWnd::OnMouseMove
; _this$ = ecx

; 69   : {

  00240	55		 push	 ebp
  00241	8b ec		 mov	 ebp, esp
  00243	83 ec 10	 sub	 esp, 16			; 00000010H
  00246	56		 push	 esi
  00247	b8 cc cc cc cc	 mov	 eax, -858993460		; ccccccccH
  0024c	89 45 f0	 mov	 DWORD PTR [ebp-16], eax
  0024f	89 45 f4	 mov	 DWORD PTR [ebp-12], eax
  00252	89 45 f8	 mov	 DWORD PTR [ebp-8], eax
  00255	89 45 fc	 mov	 DWORD PTR [ebp-4], eax
  00258	89 4d fc	 mov	 DWORD PTR _this$[ebp], ecx

; 70   : 	CWnd * pParent = GetParent();

  0025b	8b 4d fc	 mov	 ecx, DWORD PTR _this$[ebp]
  0025e	e8 00 00 00 00	 call	 ?GetParent@CWnd@@QBEPAV1@XZ ; CWnd::GetParent
  00263	89 45 f8	 mov	 DWORD PTR _pParent$[ebp], eax

; 71   : 
; 72   : 	pParent = AfxGetMainWindow();

  00266	e8 00 00 00 00	 call	 ?AfxGetMainWindow@@YAPAVCWnd@@XZ ; AfxGetMainWindow
  0026b	89 45 f8	 mov	 DWORD PTR _pParent$[ebp], eax

; 73   : 
; 74   : 	WPARAM wParam;
; 75   : 	LPARAM lParam;
; 76   : 
; 77   : 	ClientToScreen( &point);

  0026e	8d 45 0c	 lea	 eax, DWORD PTR _point$[ebp]
  00271	50		 push	 eax
  00272	8b 4d fc	 mov	 ecx, DWORD PTR _this$[ebp]
  00275	e8 00 00 00 00	 call	 ?ClientToScreen@CWnd@@QBEXPAUtagPOINT@@@Z ; CWnd::ClientToScreen

; 78   : 	::ScreenToClient( pParent->m_hWnd,&point );

  0027a	8b f4		 mov	 esi, esp
  0027c	8d 4d 0c	 lea	 ecx, DWORD PTR _point$[ebp]
  0027f	51		 push	 ecx
  00280	8b 55 f8	 mov	 edx, DWORD PTR _pParent$[ebp]
  00283	8b 42 20	 mov	 eax, DWORD PTR [edx+32]
  00286	50		 push	 eax
  00287	ff 15 00 00 00
	00		 call	 DWORD PTR __imp__ScreenToClient@8
  0028d	3b f4		 cmp	 esi, esp
  0028f	e8 00 00 00 00	 call	 __RTC_CheckEsp

; 79   : 
; 80   : 	wParam = nFlags;

  00294	8b 4d 08	 mov	 ecx, DWORD PTR _nFlags$[ebp]
  00297	89 4d f4	 mov	 DWORD PTR _wParam$[ebp], ecx

; 81   : 	lParam = (WORD)point.x;

  0029a	0f b7 55 0c	 movzx	 edx, WORD PTR _point$[ebp]
  0029e	89 55 f0	 mov	 DWORD PTR _lParam$[ebp], edx

; 82   : 	lParam += ((WORD)point.y) << 16;		

  002a1	0f b7 45 10	 movzx	 eax, WORD PTR _point$[ebp+4]
  002a5	c1 e0 10	 shl	 eax, 16			; 00000010H
  002a8	03 45 f0	 add	 eax, DWORD PTR _lParam$[ebp]
  002ab	89 45 f0	 mov	 DWORD PTR _lParam$[ebp], eax

; 83   : 
; 84   : 	::SendMessage(pParent->m_hWnd, WM_MOUSEMOVE,wParam,lParam );	

  002ae	8b f4		 mov	 esi, esp
  002b0	8b 4d f0	 mov	 ecx, DWORD PTR _lParam$[ebp]
  002b3	51		 push	 ecx
  002b4	8b 55 f4	 mov	 edx, DWORD PTR _wParam$[ebp]
  002b7	52		 push	 edx
  002b8	68 00 02 00 00	 push	 512			; 00000200H
  002bd	8b 45 f8	 mov	 eax, DWORD PTR _pParent$[ebp]
  002c0	8b 48 20	 mov	 ecx, DWORD PTR [eax+32]
  002c3	51		 push	 ecx
  002c4	ff 15 00 00 00
	00		 call	 DWORD PTR __imp__SendMessageA@16
  002ca	3b f4		 cmp	 esi, esp
  002cc	e8 00 00 00 00	 call	 __RTC_CheckEsp

; 85   : 
; 86   : 	__super::OnMouseMove(nFlags, point);

  002d1	8b 55 10	 mov	 edx, DWORD PTR _point$[ebp+4]
  002d4	52		 push	 edx
  002d5	8b 45 0c	 mov	 eax, DWORD PTR _point$[ebp]
  002d8	50		 push	 eax
  002d9	8b 4d 08	 mov	 ecx, DWORD PTR _nFlags$[ebp]
  002dc	51		 push	 ecx
  002dd	8b 4d fc	 mov	 ecx, DWORD PTR _this$[ebp]
  002e0	e8 00 00 00 00	 call	 ?OnMouseMove@CWnd@@IAEXIVCPoint@@@Z ; CWnd::OnMouseMove

; 87   : }

  002e5	5e		 pop	 esi
  002e6	83 c4 10	 add	 esp, 16			; 00000010H
  002e9	3b ec		 cmp	 ebp, esp
  002eb	e8 00 00 00 00	 call	 __RTC_CheckEsp
  002f0	8b e5		 mov	 esp, ebp
  002f2	5d		 pop	 ebp
  002f3	c2 0c 00	 ret	 12			; 0000000cH
?OnMouseMove@CBasicWnd@@IAEXIVCPoint@@@Z ENDP		; CBasicWnd::OnMouseMove
_TEXT	ENDS
EXTRN	?AfxGetUIManager@@YAPAVIUIManager@@XZ:NEAR	; AfxGetUIManager
EXTRN	__except_list:DWORD
EXTRN	___security_cookie:DWORD
EXTRN	@_RTC_CheckStackVars@8:NEAR
EXTRN	@__security_check_cookie@4:NEAR
EXTRN	___CxxFrameHandler:NEAR
EXTRN	??0CPaintDC@@QAE@PAVCWnd@@@Z:NEAR		; CPaintDC::CPaintDC
EXTRN	??1CPaintDC@@UAE@XZ:NEAR			; CPaintDC::~CPaintDC
xdata$x	SEGMENT
$T187596 DD	0ffffffffH
	DD	FLAT:$L187582
$T187586 DD	019930520H
	DD	01H
	DD	FLAT:$T187596
	DD	2 DUP(00H)
	DD	2 DUP(00H)
; Function compile flags: /Odt /RTCsu
xdata$x	ENDS
_TEXT	SEGMENT
tv75 = -120						; size = 4
tv70 = -116						; size = 4
_dc$ = -108						; size = 84
_this$ = -20						; size = 4
__$ArrayPad$ = -16					; size = 4
__$EHRec$ = -12						; size = 12
__$ReturnAddr$ = 4					; size = 4
?OnPaint@CBasicWnd@@IAEXXZ PROC NEAR			; CBasicWnd::OnPaint
; _this$ = ecx

; 90   : {

  00300	55		 push	 ebp
  00301	8b ec		 mov	 ebp, esp
  00303	6a ff		 push	 -1
  00305	68 00 00 00 00	 push	 __ehhandler$?OnPaint@CBasicWnd@@IAEXXZ
  0030a	64 a1 00 00 00
	00		 mov	 eax, DWORD PTR fs:__except_list
  00310	50		 push	 eax
  00311	64 89 25 00 00
	00 00		 mov	 DWORD PTR fs:__except_list, esp
  00318	83 ec 6c	 sub	 esp, 108		; 0000006cH
  0031b	56		 push	 esi
  0031c	57		 push	 edi
  0031d	51		 push	 ecx
  0031e	8d 7d 88	 lea	 edi, DWORD PTR [ebp-120]
  00321	b9 1b 00 00 00	 mov	 ecx, 27			; 0000001bH
  00326	b8 cc cc cc cc	 mov	 eax, -858993460		; ccccccccH
  0032b	f3 ab		 rep stosd
  0032d	59		 pop	 ecx
  0032e	a1 00 00 00 00	 mov	 eax, DWORD PTR ___security_cookie
  00333	89 45 f0	 mov	 DWORD PTR __$ArrayPad$[ebp], eax
  00336	89 4d ec	 mov	 DWORD PTR _this$[ebp], ecx

; 91   : 	CPaintDC dc(this);

  00339	8b 45 ec	 mov	 eax, DWORD PTR _this$[ebp]
  0033c	50		 push	 eax
  0033d	8d 4d 94	 lea	 ecx, DWORD PTR _dc$[ebp]
  00340	e8 00 00 00 00	 call	 ??0CPaintDC@@QAE@PAVCWnd@@@Z ; CPaintDC::CPaintDC
  00345	c7 45 fc 00 00
	00 00		 mov	 DWORD PTR __$EHRec$[ebp+8], 0

; 92   : 	AfxGetUIManager()->UIGetLayoutMgr()->PaintBkGround( m_hWnd,&dc,true );

  0034c	e8 00 00 00 00	 call	 ?AfxGetUIManager@@YAPAVIUIManager@@XZ ; AfxGetUIManager
  00351	89 45 8c	 mov	 DWORD PTR tv70[ebp], eax
  00354	8b f4		 mov	 esi, esp
  00356	8b 4d 8c	 mov	 ecx, DWORD PTR tv70[ebp]
  00359	8b 11		 mov	 edx, DWORD PTR [ecx]
  0035b	8b 4d 8c	 mov	 ecx, DWORD PTR tv70[ebp]
  0035e	ff 52 24	 call	 DWORD PTR [edx+36]
  00361	3b f4		 cmp	 esi, esp
  00363	e8 00 00 00 00	 call	 __RTC_CheckEsp
  00368	89 45 88	 mov	 DWORD PTR tv75[ebp], eax
  0036b	8b f4		 mov	 esi, esp
  0036d	6a 01		 push	 1
  0036f	8d 45 94	 lea	 eax, DWORD PTR _dc$[ebp]
  00372	50		 push	 eax
  00373	8b 4d ec	 mov	 ecx, DWORD PTR _this$[ebp]
  00376	8b 51 20	 mov	 edx, DWORD PTR [ecx+32]
  00379	52		 push	 edx
  0037a	8b 45 88	 mov	 eax, DWORD PTR tv75[ebp]
  0037d	8b 10		 mov	 edx, DWORD PTR [eax]
  0037f	8b 4d 88	 mov	 ecx, DWORD PTR tv75[ebp]
  00382	ff 52 5c	 call	 DWORD PTR [edx+92]
  00385	3b f4		 cmp	 esi, esp
  00387	e8 00 00 00 00	 call	 __RTC_CheckEsp

; 93   : }

  0038c	c7 45 fc ff ff
	ff ff		 mov	 DWORD PTR __$EHRec$[ebp+8], -1
  00393	8d 4d 94	 lea	 ecx, DWORD PTR _dc$[ebp]
  00396	e8 00 00 00 00	 call	 ??1CPaintDC@@UAE@XZ	; CPaintDC::~CPaintDC
  0039b	52		 push	 edx
  0039c	8b cd		 mov	 ecx, ebp
  0039e	50		 push	 eax
  0039f	8d 15 00 00 00
	00		 lea	 edx, DWORD PTR $L187593
  003a5	e8 00 00 00 00	 call	 @_RTC_CheckStackVars@8
  003aa	58		 pop	 eax
  003ab	5a		 pop	 edx
  003ac	8b 4d f4	 mov	 ecx, DWORD PTR __$EHRec$[ebp]
  003af	64 89 0d 00 00
	00 00		 mov	 DWORD PTR fs:__except_list, ecx
  003b6	8b 4d f0	 mov	 ecx, DWORD PTR __$ArrayPad$[ebp]
  003b9	e8 00 00 00 00	 call	 @__security_check_cookie@4
  003be	5f		 pop	 edi
  003bf	5e		 pop	 esi
  003c0	83 c4 78	 add	 esp, 120		; 00000078H
  003c3	3b ec		 cmp	 ebp, esp
  003c5	e8 00 00 00 00	 call	 __RTC_CheckEsp
  003ca	8b e5		 mov	 esp, ebp
  003cc	5d		 pop	 ebp
  003cd	c3		 ret	 0
$L187593:
  003ce	01 00 00 00	 DD	 1
  003d2	00 00 00 00	 DD	 $L187592
$L187592:
  003d6	94 ff ff ff	 DD	 -108			; ffffff94H
  003da	54 00 00 00	 DD	 84			; 00000054H
  003de	00 00 00 00	 DD	 $L187587
$L187587:
  003e2	64		 DB	 100			; 00000064H
  003e3	63		 DB	 99			; 00000063H
  003e4	00		 DB	 0
_TEXT	ENDS
text$x	SEGMENT
$L187582:
  00000	8d 4d 94	 lea	 ecx, DWORD PTR _dc$[ebp]
  00003	e9 00 00 00 00	 jmp	 ??1CPaintDC@@UAE@XZ	; CPaintDC::~CPaintDC
__ehhandler$?OnPaint@CBasicWnd@@IAEXXZ:
  00008	b8 00 00 00 00	 mov	 eax, OFFSET FLAT:$T187586
  0000d	e9 00 00 00 00	 jmp	 ___CxxFrameHandler
text$x	ENDS
?OnPaint@CBasicWnd@@IAEXXZ ENDP				; CBasicWnd::OnPaint
; Function compile flags: /Odt /RTCsu
_TEXT	SEGMENT
tv71 = -12						; size = 4
tv66 = -8						; size = 4
_this$ = -4						; size = 4
_nType$ = 8						; size = 4
_cx$ = 12						; size = 4
_cy$ = 16						; size = 4
?OnSize@CBasicWnd@@IAEXIHH@Z PROC NEAR			; CBasicWnd::OnSize
; _this$ = ecx

; 95   : {

  003f0	55		 push	 ebp
  003f1	8b ec		 mov	 ebp, esp
  003f3	83 ec 0c	 sub	 esp, 12			; 0000000cH
  003f6	56		 push	 esi
  003f7	c7 45 f4 cc cc
	cc cc		 mov	 DWORD PTR [ebp-12], -858993460 ; ccccccccH
  003fe	c7 45 f8 cc cc
	cc cc		 mov	 DWORD PTR [ebp-8], -858993460 ; ccccccccH
  00405	c7 45 fc cc cc
	cc cc		 mov	 DWORD PTR [ebp-4], -858993460 ; ccccccccH
  0040c	89 4d fc	 mov	 DWORD PTR _this$[ebp], ecx

; 96   : 	AfxGetUIManager()->UIGetLayoutMgr()->UpdateLayout( m_hWnd );

  0040f	e8 00 00 00 00	 call	 ?AfxGetUIManager@@YAPAVIUIManager@@XZ ; AfxGetUIManager
  00414	89 45 f8	 mov	 DWORD PTR tv66[ebp], eax
  00417	8b f4		 mov	 esi, esp
  00419	8b 45 f8	 mov	 eax, DWORD PTR tv66[ebp]
  0041c	8b 10		 mov	 edx, DWORD PTR [eax]
  0041e	8b 4d f8	 mov	 ecx, DWORD PTR tv66[ebp]
  00421	ff 52 24	 call	 DWORD PTR [edx+36]
  00424	3b f4		 cmp	 esi, esp
  00426	e8 00 00 00 00	 call	 __RTC_CheckEsp
  0042b	89 45 f4	 mov	 DWORD PTR tv71[ebp], eax
  0042e	8b f4		 mov	 esi, esp
  00430	8b 45 fc	 mov	 eax, DWORD PTR _this$[ebp]
  00433	8b 48 20	 mov	 ecx, DWORD PTR [eax+32]
  00436	51		 push	 ecx
  00437	8b 55 f4	 mov	 edx, DWORD PTR tv71[ebp]
  0043a	8b 02		 mov	 eax, DWORD PTR [edx]
  0043c	8b 4d f4	 mov	 ecx, DWORD PTR tv71[ebp]
  0043f	ff 50 14	 call	 DWORD PTR [eax+20]
  00442	3b f4		 cmp	 esi, esp
  00444	e8 00 00 00 00	 call	 __RTC_CheckEsp

; 97   : }

  00449	5e		 pop	 esi
  0044a	83 c4 0c	 add	 esp, 12			; 0000000cH
  0044d	3b ec		 cmp	 ebp, esp
  0044f	e8 00 00 00 00	 call	 __RTC_CheckEsp
  00454	8b e5		 mov	 esp, ebp
  00456	5d		 pop	 ebp
  00457	c2 0c 00	 ret	 12			; 0000000cH
?OnSize@CBasicWnd@@IAEXIHH@Z ENDP			; CBasicWnd::OnSize
_TEXT	ENDS
END
