; Listing generated by Microsoft (R) Optimizing Compiler Version 13.10.3077 

	TITLE	.\src\Gui\util\BCMenu.cpp
	.386P
include listing.inc
if @Version gt 510
.model FLAT
else
_TEXT	SEGMENT PARA USE32 PUBLIC 'CODE'
_TEXT	ENDS
_DATA	SEGMENT DWORD USE32 PUBLIC 'DATA'
_DATA	ENDS
CONST	SEGMENT DWORD USE32 PUBLIC 'CONST'
CONST	ENDS
_BSS	SEGMENT DWORD USE32 PUBLIC 'BSS'
_BSS	ENDS
$$SYMBOLS	SEGMENT BYTE USE32 'DEBSYM'
$$SYMBOLS	ENDS
_TLS	SEGMENT DWORD USE32 PUBLIC 'TLS'
_TLS	ENDS
;	COMDAT ??_C@_0EA@CPOAACJC@d?3?2boxgit?2playbox?2playbox?2dev?2pr@
CONST	SEGMENT DWORD USE32 PUBLIC 'CONST'
CONST	ENDS
;	COMDAT ??_C@_0CG@FPGHCJFK@?$CIiChar?5?$DO?$DN?50?$CJ?5?$CG?$CG?5?$CIiChar?5?$DM?5GetLeng@
CONST	SEGMENT DWORD USE32 PUBLIC 'CONST'
CONST	ENDS
;	COMDAT ??_C@_0BI@GIMJKKKN@AtlIsValidString?$CI?5psz?5?$CJ?$AA@
CONST	SEGMENT DWORD USE32 PUBLIC 'CONST'
CONST	ENDS
;	COMDAT ??_C@_0M@GOJCFFEC@iStart?5?$DO?$DN?50?$AA@
CONST	SEGMENT DWORD USE32 PUBLIC 'CONST'
CONST	ENDS
;	COMDAT ??_C@_0BL@PKIBFLAK@AtlIsValidString?$CI?5pszSub?5?$CJ?$AA@
CONST	SEGMENT DWORD USE32 PUBLIC 'CONST'
CONST	ENDS
;	COMDAT ??_C@_0EN@IBFBLEEG@D?3?2Program?5Files?5?$CIx86?$CJ?2Microsoft@
CONST	SEGMENT DWORD USE32 PUBLIC 'CONST'
CONST	ENDS
;	COMDAT ??_C@_0DC@KJIHKHDE@?$CInCount?5?$DN?$DN?50?$CJ?5?$HM?$HM?5?$CI?$CIiFirst?$CLnCount@
CONST	SEGMENT DWORD USE32 PUBLIC 'CONST'
CONST	ENDS
;	COMDAT ??_C@_0FH@BMBEKJNI@D?3?2Program?5Files?5?$CIx86?$CJ?2Microsoft@
CONST	SEGMENT DWORD USE32 PUBLIC 'CONST'
CONST	ENDS
rdata$r	SEGMENT DWORD USE32 PUBLIC 'CONST'
rdata$r	ENDS
xdata$x	SEGMENT DWORD USE32 PUBLIC 'CONST'
xdata$x	ENDS
text$AFX_COL1	SEGMENT PARA USE32 PUBLIC ''
text$AFX_COL1	ENDS
text$yc	SEGMENT PARA USE32 PUBLIC 'CODE'
text$yc	ENDS
CRT$XCA	SEGMENT DWORD USE32 PUBLIC 'DATA'
CRT$XCA	ENDS
CRT$XCU	SEGMENT DWORD USE32 PUBLIC 'DATA'
CRT$XCU	ENDS
CRT$XCL	SEGMENT DWORD USE32 PUBLIC 'DATA'
CRT$XCL	ENDS
CRT$XCC	SEGMENT DWORD USE32 PUBLIC 'DATA'
CRT$XCC	ENDS
CRT$XCZ	SEGMENT DWORD USE32 PUBLIC 'DATA'
CRT$XCZ	ENDS
text$yd	SEGMENT PARA USE32 PUBLIC 'CODE'
text$yd	ENDS
ATL$__m	SEGMENT DWORD USE32 PUBLIC ''
ATL$__m	ENDS
ATL$__z	SEGMENT DWORD USE32 PUBLIC ''
ATL$__z	ENDS
ATL$__a	SEGMENT DWORD USE32 PUBLIC ''
ATL$__a	ENDS
;	COMDAT ??0BCMenuData@@QAE@XZ
_TEXT	SEGMENT PARA USE32 PUBLIC 'CODE'
_TEXT	ENDS
;	COMDAT ?GetWideString@BCMenuData@@QAEPB_WXZ
_TEXT	SEGMENT PARA USE32 PUBLIC 'CODE'
_TEXT	ENDS
;	COMDAT ??0CMenuItemInfo@@QAE@XZ
_TEXT	SEGMENT PARA USE32 PUBLIC 'CODE'
_TEXT	ENDS
;	COMDAT ??0BCMenuMemDC@@QAE@PAVCDC@@PBUtagRECT@@@Z
_TEXT	SEGMENT PARA USE32 PUBLIC 'CODE'
_TEXT	ENDS
;	COMDAT ??1BCMenuMemDC@@UAE@XZ
_TEXT	SEGMENT PARA USE32 PUBLIC 'CODE'
_TEXT	ENDS
;	COMDAT ??_GBCMenuMemDC@@UAEPAXI@Z
_TEXT	SEGMENT PARA USE32 PUBLIC 'CODE'
_TEXT	ENDS
;	COMDAT _$E5
text$yc	SEGMENT PARA USE32 PUBLIC 'CODE'
text$yc	ENDS
;	COMDAT _$E6
text$yd	SEGMENT PARA USE32 PUBLIC 'CODE'
text$yd	ENDS
;	COMDAT _$E8
text$yc	SEGMENT PARA USE32 PUBLIC 'CODE'
text$yc	ENDS
;	COMDAT _$E9
text$yd	SEGMENT PARA USE32 PUBLIC 'CODE'
text$yd	ENDS
;	COMDAT _$E11
text$yc	SEGMENT PARA USE32 PUBLIC 'CODE'
text$yc	ENDS
;	COMDAT _$E13
text$yc	SEGMENT PARA USE32 PUBLIC 'CODE'
text$yc	ENDS
;	COMDAT _$E14
text$yd	SEGMENT PARA USE32 PUBLIC 'CODE'
text$yd	ENDS
;	COMDAT ??0?$CTypedPtrArray@VCPtrArray@@PAUHMENU__@@@@QAE@XZ
_TEXT	SEGMENT PARA USE32 PUBLIC 'CODE'
_TEXT	ENDS
;	COMDAT ??1?$CTypedPtrArray@VCPtrArray@@PAUHMENU__@@@@UAE@XZ
_TEXT	SEGMENT PARA USE32 PUBLIC 'CODE'
_TEXT	ENDS
;	COMDAT ??_G?$CTypedPtrArray@VCPtrArray@@PAUHMENU__@@@@UAEPAXI@Z
_TEXT	SEGMENT PARA USE32 PUBLIC 'CODE'
_TEXT	ENDS
;	COMDAT ??_GBCMenu@@UAEPAXI@Z
_TEXT	SEGMENT PARA USE32 PUBLIC 'CODE'
_TEXT	ENDS
;	COMDAT ??0?$CTypedPtrArray@VCPtrArray@@PAVBCMenuData@@@@QAE@XZ
_TEXT	SEGMENT PARA USE32 PUBLIC 'CODE'
_TEXT	ENDS
;	COMDAT ??1?$CTypedPtrArray@VCPtrArray@@PAVBCMenuData@@@@UAE@XZ
_TEXT	SEGMENT PARA USE32 PUBLIC 'CODE'
_TEXT	ENDS
;	COMDAT ??_G?$CTypedPtrArray@VCPtrArray@@PAVBCMenuData@@@@UAEPAXI@Z
_TEXT	SEGMENT PARA USE32 PUBLIC 'CODE'
_TEXT	ENDS
;	COMDAT ??_GBCMenuData@@QAEPAXI@Z
_TEXT	SEGMENT PARA USE32 PUBLIC 'CODE'
_TEXT	ENDS
;	COMDAT ??0?$CTypedPtrArray@VCPtrArray@@PAVBCMenu@@@@QAE@XZ
_TEXT	SEGMENT PARA USE32 PUBLIC 'CODE'
_TEXT	ENDS
;	COMDAT ??1?$CTypedPtrArray@VCPtrArray@@PAVBCMenu@@@@UAE@XZ
_TEXT	SEGMENT PARA USE32 PUBLIC 'CODE'
_TEXT	ENDS
;	COMDAT ??_G?$CTypedPtrArray@VCPtrArray@@PAVBCMenu@@@@UAEPAXI@Z
_TEXT	SEGMENT PARA USE32 PUBLIC 'CODE'
_TEXT	ENDS
;	COMDAT ??8ATL@@YA_NABV?$CStringT@DV?$StrTraitMFC_DLL@DV?$ChTraitsCRT@D@ATL@@@@@0@0@Z
_TEXT	SEGMENT PARA USE32 PUBLIC 'CODE'
_TEXT	ENDS
;	COMDAT ??8ATL@@YA_NABV?$CStringT@DV?$StrTraitMFC_DLL@DV?$ChTraitsCRT@D@ATL@@@@@0@PBD@Z
_TEXT	SEGMENT PARA USE32 PUBLIC 'CODE'
_TEXT	ENDS
;	COMDAT ??B?$CComPtrBase@UITypeInfo2@@@ATL@@QBEPAUITypeInfo2@@XZ
_TEXT	SEGMENT PARA USE32 PUBLIC 'CODE'
_TEXT	ENDS
;	COMDAT ?equal@?$istreambuf_iterator@DU?$char_traits@D@std@@@std@@QBE_NABV12@@Z
_TEXT	SEGMENT PARA USE32 PUBLIC 'CODE'
_TEXT	ENDS
;	COMDAT ?equal@?$istreambuf_iterator@_WU?$char_traits@_W@std@@@std@@QBE_NABV12@@Z
_TEXT	SEGMENT PARA USE32 PUBLIC 'CODE'
_TEXT	ENDS
;	COMDAT ?GetAt@?$CTypedPtrArray@VCPtrArray@@PAVBCMenuData@@@@QBEPAVBCMenuData@@H@Z
_TEXT	SEGMENT PARA USE32 PUBLIC 'CODE'
_TEXT	ENDS
;	COMDAT ?Add@?$CTypedPtrArray@VCPtrArray@@PAVBCMenuData@@@@QAEHPAVBCMenuData@@@Z
_TEXT	SEGMENT PARA USE32 PUBLIC 'CODE'
_TEXT	ENDS
;	COMDAT ?Append@?$CTypedPtrArray@VCPtrArray@@PAVBCMenuData@@@@QAEHABV1@@Z
_TEXT	SEGMENT PARA USE32 PUBLIC 'CODE'
_TEXT	ENDS
;	COMDAT ?InsertAt@?$CTypedPtrArray@VCPtrArray@@PAVBCMenuData@@@@QAEXHPAVBCMenuData@@H@Z
_TEXT	SEGMENT PARA USE32 PUBLIC 'CODE'
_TEXT	ENDS
;	COMDAT ??A?$CTypedPtrArray@VCPtrArray@@PAVBCMenuData@@@@QAEAAPAVBCMenuData@@H@Z
_TEXT	SEGMENT PARA USE32 PUBLIC 'CODE'
_TEXT	ENDS
;	COMDAT ?Add@?$CTypedPtrArray@VCPtrArray@@PAUHMENU__@@@@QAEHPAUHMENU__@@@Z
_TEXT	SEGMENT PARA USE32 PUBLIC 'CODE'
_TEXT	ENDS
;	COMDAT ??A?$CTypedPtrArray@VCPtrArray@@PAUHMENU__@@@@QAEAAPAUHMENU__@@H@Z
_TEXT	SEGMENT PARA USE32 PUBLIC 'CODE'
_TEXT	ENDS
;	COMDAT ?Add@?$CTypedPtrArray@VCPtrArray@@PAVBCMenu@@@@QAEHPAVBCMenu@@@Z
_TEXT	SEGMENT PARA USE32 PUBLIC 'CODE'
_TEXT	ENDS
;	COMDAT ??A?$CTypedPtrArray@VCPtrArray@@PAVBCMenu@@@@QAEAAPAVBCMenu@@H@Z
_TEXT	SEGMENT PARA USE32 PUBLIC 'CODE'
_TEXT	ENDS
;	COMDAT ?StringCompare@?$ChTraitsCRT@D@ATL@@SAHPBD0@Z
_TEXT	SEGMENT PARA USE32 PUBLIC 'CODE'
_TEXT	ENDS
;	COMDAT ?StringFindString@?$ChTraitsCRT@D@ATL@@SAPBDPBD0@Z
_TEXT	SEGMENT PARA USE32 PUBLIC 'CODE'
_TEXT	ENDS
;	COMDAT ?StringFindChar@?$ChTraitsCRT@D@ATL@@SAPBDPBDD@Z
_TEXT	SEGMENT PARA USE32 PUBLIC 'CODE'
_TEXT	ENDS
;	COMDAT ?StringFindCharRev@?$ChTraitsCRT@D@ATL@@SAPBDPBDD@Z
_TEXT	SEGMENT PARA USE32 PUBLIC 'CODE'
_TEXT	ENDS
;	COMDAT ?StringLowercase@?$ChTraitsCRT@D@ATL@@SAPADPAD@Z
_TEXT	SEGMENT PARA USE32 PUBLIC 'CODE'
_TEXT	ENDS
;	COMDAT ?FloodCharacters@?$ChTraitsCRT@D@ATL@@SAXDHPAD@Z
_TEXT	SEGMENT PARA USE32 PUBLIC 'CODE'
_TEXT	ENDS
;	COMDAT ?Unlock@?$CComCritSecLock@VCComCriticalSection@ATL@@@ATL@@QAEXXZ
_TEXT	SEGMENT PARA USE32 PUBLIC 'CODE'
_TEXT	ENDS
;	COMDAT ??0?$CArray@HAAH@@QAE@XZ
_TEXT	SEGMENT PARA USE32 PUBLIC 'CODE'
_TEXT	ENDS
;	COMDAT ?GetSize@?$CArray@HAAH@@QBEHXZ
_TEXT	SEGMENT PARA USE32 PUBLIC 'CODE'
_TEXT	ENDS
;	COMDAT ?Add@?$CArray@HAAH@@QAEHAAH@Z
_TEXT	SEGMENT PARA USE32 PUBLIC 'CODE'
_TEXT	ENDS
;	COMDAT ??A?$CArray@HAAH@@QAEAAHH@Z
_TEXT	SEGMENT PARA USE32 PUBLIC 'CODE'
_TEXT	ENDS
;	COMDAT ??1?$CArray@HAAH@@UAE@XZ
_TEXT	SEGMENT PARA USE32 PUBLIC 'CODE'
_TEXT	ENDS
;	COMDAT ?Serialize@?$CArray@HAAH@@UAEXAAVCArchive@@@Z
_TEXT	SEGMENT PARA USE32 PUBLIC 'CODE'
_TEXT	ENDS
;	COMDAT ?Dump@?$CArray@HAAH@@UBEXAAVCDumpContext@@@Z
_TEXT	SEGMENT PARA USE32 PUBLIC 'CODE'
_TEXT	ENDS
;	COMDAT ?AssertValid@?$CArray@HAAH@@UBEXXZ
_TEXT	SEGMENT PARA USE32 PUBLIC 'CODE'
_TEXT	ENDS
;	COMDAT ??0?$CArray@PAVBCMenu@@PAV1@@@QAE@XZ
_TEXT	SEGMENT PARA USE32 PUBLIC 'CODE'
_TEXT	ENDS
;	COMDAT ?GetSize@?$CArray@PAVBCMenu@@PAV1@@@QBEHXZ
_TEXT	SEGMENT PARA USE32 PUBLIC 'CODE'
_TEXT	ENDS
;	COMDAT ?Add@?$CArray@PAVBCMenu@@PAV1@@@QAEHPAVBCMenu@@@Z
_TEXT	SEGMENT PARA USE32 PUBLIC 'CODE'
_TEXT	ENDS
;	COMDAT ??A?$CArray@PAVBCMenu@@PAV1@@@QAEAAPAVBCMenu@@H@Z
_TEXT	SEGMENT PARA USE32 PUBLIC 'CODE'
_TEXT	ENDS
;	COMDAT ??1?$CArray@PAVBCMenu@@PAV1@@@UAE@XZ
_TEXT	SEGMENT PARA USE32 PUBLIC 'CODE'
_TEXT	ENDS
;	COMDAT ?Serialize@?$CArray@PAVBCMenu@@PAV1@@@UAEXAAVCArchive@@@Z
_TEXT	SEGMENT PARA USE32 PUBLIC 'CODE'
_TEXT	ENDS
;	COMDAT ?Dump@?$CArray@PAVBCMenu@@PAV1@@@UBEXAAVCDumpContext@@@Z
_TEXT	SEGMENT PARA USE32 PUBLIC 'CODE'
_TEXT	ENDS
;	COMDAT ?AssertValid@?$CArray@PAVBCMenu@@PAV1@@@UBEXXZ
_TEXT	SEGMENT PARA USE32 PUBLIC 'CODE'
_TEXT	ENDS
;	COMDAT ??0?$CArray@HH@@QAE@XZ
_TEXT	SEGMENT PARA USE32 PUBLIC 'CODE'
_TEXT	ENDS
;	COMDAT ?GetAt@?$CArray@HH@@QAEAAHH@Z
_TEXT	SEGMENT PARA USE32 PUBLIC 'CODE'
_TEXT	ENDS
;	COMDAT ?SetAt@?$CArray@HH@@QAEXHH@Z
_TEXT	SEGMENT PARA USE32 PUBLIC 'CODE'
_TEXT	ENDS
;	COMDAT ?Add@?$CArray@HH@@QAEHH@Z
_TEXT	SEGMENT PARA USE32 PUBLIC 'CODE'
_TEXT	ENDS
;	COMDAT ?RemoveAt@?$CArray@HH@@QAEXHH@Z
_TEXT	SEGMENT PARA USE32 PUBLIC 'CODE'
_TEXT	ENDS
;	COMDAT ??1?$CArray@HH@@UAE@XZ
_TEXT	SEGMENT PARA USE32 PUBLIC 'CODE'
_TEXT	ENDS
;	COMDAT ?Serialize@?$CArray@HH@@UAEXAAVCArchive@@@Z
_TEXT	SEGMENT PARA USE32 PUBLIC 'CODE'
_TEXT	ENDS
;	COMDAT ?Dump@?$CArray@HH@@UBEXAAVCDumpContext@@@Z
_TEXT	SEGMENT PARA USE32 PUBLIC 'CODE'
_TEXT	ENDS
;	COMDAT ?AssertValid@?$CArray@HH@@UBEXXZ
_TEXT	SEGMENT PARA USE32 PUBLIC 'CODE'
_TEXT	ENDS
;	COMDAT ??$_Maklocstr@D@std@@YAPADPBDPADABU_Cvtvec@@@Z
_TEXT	SEGMENT PARA USE32 PUBLIC 'CODE'
_TEXT	ENDS
;	COMDAT ??_G?$CArray@HAAH@@UAEPAXI@Z
_TEXT	SEGMENT PARA USE32 PUBLIC 'CODE'
_TEXT	ENDS
;	COMDAT ??_G?$CArray@PAVBCMenu@@PAV1@@@UAEPAXI@Z
_TEXT	SEGMENT PARA USE32 PUBLIC 'CODE'
_TEXT	ENDS
;	COMDAT ??_G?$CArray@HH@@UAEPAXI@Z
_TEXT	SEGMENT PARA USE32 PUBLIC 'CODE'
_TEXT	ENDS
;	COMDAT ?SetSize@?$CArray@HAAH@@QAEXHH@Z
_TEXT	SEGMENT PARA USE32 PUBLIC 'CODE'
_TEXT	ENDS
;	COMDAT ?ElementAt@?$CArray@HAAH@@QAEAAHH@Z
_TEXT	SEGMENT PARA USE32 PUBLIC 'CODE'
_TEXT	ENDS
;	COMDAT ?SetAtGrow@?$CArray@HAAH@@QAEXHAAH@Z
_TEXT	SEGMENT PARA USE32 PUBLIC 'CODE'
_TEXT	ENDS
;	COMDAT ??$SerializeElements@H@@YGXAAVCArchive@@PAHH@Z
_TEXT	SEGMENT PARA USE32 PUBLIC 'CODE'
_TEXT	ENDS
;	COMDAT ??$DumpElements@H@@YGXAAVCDumpContext@@PBHH@Z
_TEXT	SEGMENT PARA USE32 PUBLIC 'CODE'
_TEXT	ENDS
;	COMDAT ?SetSize@?$CArray@PAVBCMenu@@PAV1@@@QAEXHH@Z
_TEXT	SEGMENT PARA USE32 PUBLIC 'CODE'
_TEXT	ENDS
;	COMDAT ?ElementAt@?$CArray@PAVBCMenu@@PAV1@@@QAEAAPAVBCMenu@@H@Z
_TEXT	SEGMENT PARA USE32 PUBLIC 'CODE'
_TEXT	ENDS
;	COMDAT ?SetAtGrow@?$CArray@PAVBCMenu@@PAV1@@@QAEXHPAVBCMenu@@@Z
_TEXT	SEGMENT PARA USE32 PUBLIC 'CODE'
_TEXT	ENDS
;	COMDAT ??$SerializeElements@PAVBCMenu@@@@YGXAAVCArchive@@PAPAVBCMenu@@H@Z
_TEXT	SEGMENT PARA USE32 PUBLIC 'CODE'
_TEXT	ENDS
;	COMDAT ??$DumpElements@PAVBCMenu@@@@YGXAAVCDumpContext@@PBQAVBCMenu@@H@Z
_TEXT	SEGMENT PARA USE32 PUBLIC 'CODE'
_TEXT	ENDS
;	COMDAT ?SetSize@?$CArray@HH@@QAEXHH@Z
_TEXT	SEGMENT PARA USE32 PUBLIC 'CODE'
_TEXT	ENDS
;	COMDAT ?SetAtGrow@?$CArray@HH@@QAEXHH@Z
_TEXT	SEGMENT PARA USE32 PUBLIC 'CODE'
_TEXT	ENDS
;	COMDAT ??_R3BCMenu@@8
rdata$r	SEGMENT DWORD USE32 PUBLIC 'CONST'
rdata$r	ENDS
;	COMDAT ??_R3BCMenuMemDC@@8
rdata$r	SEGMENT DWORD USE32 PUBLIC 'CONST'
rdata$r	ENDS
;	COMDAT ??_R3?$CTypedPtrArray@VCPtrArray@@PAVBCMenu@@@@8
rdata$r	SEGMENT DWORD USE32 PUBLIC 'CONST'
rdata$r	ENDS
;	COMDAT ??_R3?$CArray@HAAH@@8
rdata$r	SEGMENT DWORD USE32 PUBLIC 'CONST'
rdata$r	ENDS
;	COMDAT ??_R3?$CArray@PAVBCMenu@@PAV1@@@8
rdata$r	SEGMENT DWORD USE32 PUBLIC 'CONST'
rdata$r	ENDS
;	COMDAT ??_R3?$CArray@HH@@8
rdata$r	SEGMENT DWORD USE32 PUBLIC 'CONST'
rdata$r	ENDS
;	COMDAT ??_R3?$numpunct@_W@std@@8
rdata$r	SEGMENT DWORD USE32 PUBLIC 'CONST'
rdata$r	ENDS
;	COMDAT ??_R3?$numpunct@D@std@@8
rdata$r	SEGMENT DWORD USE32 PUBLIC 'CONST'
rdata$r	ENDS
;	COMDAT ??_R3?$CTypedPtrArray@VCPtrArray@@PAUHMENU__@@@@8
rdata$r	SEGMENT DWORD USE32 PUBLIC 'CONST'
rdata$r	ENDS
;	COMDAT ??_R3?$CTypedPtrArray@VCPtrArray@@PAVBCMenuData@@@@8
rdata$r	SEGMENT DWORD USE32 PUBLIC 'CONST'
rdata$r	ENDS
;	COMDAT ??_R2BCMenu@@8
rdata$r	SEGMENT DWORD USE32 PUBLIC 'CONST'
rdata$r	ENDS
;	COMDAT ??_R2BCMenuMemDC@@8
rdata$r	SEGMENT DWORD USE32 PUBLIC 'CONST'
rdata$r	ENDS
;	COMDAT ??_R2?$CTypedPtrArray@VCPtrArray@@PAVBCMenu@@@@8
rdata$r	SEGMENT DWORD USE32 PUBLIC 'CONST'
rdata$r	ENDS
;	COMDAT ??_R2?$CArray@HAAH@@8
rdata$r	SEGMENT DWORD USE32 PUBLIC 'CONST'
rdata$r	ENDS
;	COMDAT ??_R2?$CArray@PAVBCMenu@@PAV1@@@8
rdata$r	SEGMENT DWORD USE32 PUBLIC 'CONST'
rdata$r	ENDS
;	COMDAT ??_R2?$CArray@HH@@8
rdata$r	SEGMENT DWORD USE32 PUBLIC 'CONST'
rdata$r	ENDS
;	COMDAT ??_R2?$numpunct@_W@std@@8
rdata$r	SEGMENT DWORD USE32 PUBLIC 'CONST'
rdata$r	ENDS
;	COMDAT ??_R2?$numpunct@D@std@@8
rdata$r	SEGMENT DWORD USE32 PUBLIC 'CONST'
rdata$r	ENDS
;	COMDAT ??_R2?$CTypedPtrArray@VCPtrArray@@PAUHMENU__@@@@8
rdata$r	SEGMENT DWORD USE32 PUBLIC 'CONST'
rdata$r	ENDS
;	COMDAT ??_R2?$CTypedPtrArray@VCPtrArray@@PAVBCMenuData@@@@8
rdata$r	SEGMENT DWORD USE32 PUBLIC 'CONST'
rdata$r	ENDS
;	COMDAT ??_R1A@?0A@A@CMenu@@8
rdata$r	SEGMENT DWORD USE32 PUBLIC 'CONST'
rdata$r	ENDS
;	COMDAT ??_R1A@?0A@A@BCMenu@@8
rdata$r	SEGMENT DWORD USE32 PUBLIC 'CONST'
rdata$r	ENDS
;	COMDAT ??_R1A@?0A@A@CDC@@8
rdata$r	SEGMENT DWORD USE32 PUBLIC 'CONST'
rdata$r	ENDS
;	COMDAT ??_R0?AVCDC@@@8
_DATA	SEGMENT DWORD USE32 PUBLIC 'DATA'
_DATA	ENDS
;	COMDAT ??_R1A@?0A@A@BCMenuMemDC@@8
rdata$r	SEGMENT DWORD USE32 PUBLIC 'CONST'
rdata$r	ENDS
;	COMDAT ??_R1A@?0A@A@?$CTypedPtrArray@VCPtrArray@@PAVBCMenu@@@@8
rdata$r	SEGMENT DWORD USE32 PUBLIC 'CONST'
rdata$r	ENDS
;	COMDAT ??_R1A@?0A@A@?$CArray@HAAH@@8
rdata$r	SEGMENT DWORD USE32 PUBLIC 'CONST'
rdata$r	ENDS
;	COMDAT ??_R1A@?0A@A@?$CArray@PAVBCMenu@@PAV1@@@8
rdata$r	SEGMENT DWORD USE32 PUBLIC 'CONST'
rdata$r	ENDS
;	COMDAT ??_R1A@?0A@A@?$CArray@HH@@8
rdata$r	SEGMENT DWORD USE32 PUBLIC 'CONST'
rdata$r	ENDS
;	COMDAT ??_R1A@?0A@A@?$numpunct@_W@std@@8
rdata$r	SEGMENT DWORD USE32 PUBLIC 'CONST'
rdata$r	ENDS
;	COMDAT ??_R1A@?0A@A@facet@locale@std@@8
rdata$r	SEGMENT DWORD USE32 PUBLIC 'CONST'
rdata$r	ENDS
;	COMDAT ??_R0?AVfacet@locale@std@@@8
_DATA	SEGMENT DWORD USE32 PUBLIC 'DATA'
_DATA	ENDS
;	COMDAT ??_R1A@?0A@A@?$numpunct@D@std@@8
rdata$r	SEGMENT DWORD USE32 PUBLIC 'CONST'
rdata$r	ENDS
;	COMDAT ??_R1A@?0A@A@?$CTypedPtrArray@VCPtrArray@@PAUHMENU__@@@@8
rdata$r	SEGMENT DWORD USE32 PUBLIC 'CONST'
rdata$r	ENDS
;	COMDAT ??_R1A@?0A@A@CObject@@8
rdata$r	SEGMENT DWORD USE32 PUBLIC 'CONST'
rdata$r	ENDS
;	COMDAT ??_R0?AVCObject@@@8
_DATA	SEGMENT DWORD USE32 PUBLIC 'DATA'
_DATA	ENDS
;	COMDAT ??_R1A@?0A@A@CPtrArray@@8
rdata$r	SEGMENT DWORD USE32 PUBLIC 'CONST'
rdata$r	ENDS
;	COMDAT ??_R1A@?0A@A@?$CTypedPtrArray@VCPtrArray@@PAVBCMenuData@@@@8
rdata$r	SEGMENT DWORD USE32 PUBLIC 'CONST'
rdata$r	ENDS
;	COMDAT ??_R0?AVBCMenuMemDC@@@8
_DATA	SEGMENT DWORD USE32 PUBLIC 'DATA'
_DATA	ENDS
;	COMDAT ??_R0?AV?$CTypedPtrArray@VCPtrArray@@PAVBCMenu@@@@@8
_DATA	SEGMENT DWORD USE32 PUBLIC 'DATA'
_DATA	ENDS
;	COMDAT ??_R0?AV?$CArray@HAAH@@@8
_DATA	SEGMENT DWORD USE32 PUBLIC 'DATA'
_DATA	ENDS
;	COMDAT ??_R0?AV?$CArray@PAVBCMenu@@PAV1@@@@8
_DATA	SEGMENT DWORD USE32 PUBLIC 'DATA'
_DATA	ENDS
;	COMDAT ??_R0?AV?$CArray@HH@@@8
_DATA	SEGMENT DWORD USE32 PUBLIC 'DATA'
_DATA	ENDS
;	COMDAT ??_R0?AV?$numpunct@_W@std@@@8
_DATA	SEGMENT DWORD USE32 PUBLIC 'DATA'
_DATA	ENDS
;	COMDAT ??_R0?AV?$numpunct@D@std@@@8
_DATA	SEGMENT DWORD USE32 PUBLIC 'DATA'
_DATA	ENDS
;	COMDAT ??_R0?AV?$CTypedPtrArray@VCPtrArray@@PAUHMENU__@@@@@8
_DATA	SEGMENT DWORD USE32 PUBLIC 'DATA'
_DATA	ENDS
;	COMDAT ??_R0?AVCPtrArray@@@8
_DATA	SEGMENT DWORD USE32 PUBLIC 'DATA'
_DATA	ENDS
;	COMDAT ??_R0?AV?$CTypedPtrArray@VCPtrArray@@PAVBCMenuData@@@@@8
_DATA	SEGMENT DWORD USE32 PUBLIC 'DATA'
_DATA	ENDS
;	COMDAT ??_R4BCMenu@@6B@
rdata$r	SEGMENT DWORD USE32 PUBLIC 'CONST'
rdata$r	ENDS
;	COMDAT ??_R4BCMenuMemDC@@6B@
rdata$r	SEGMENT DWORD USE32 PUBLIC 'CONST'
rdata$r	ENDS
;	COMDAT ??_R4?$CTypedPtrArray@VCPtrArray@@PAVBCMenu@@@@6B@
rdata$r	SEGMENT DWORD USE32 PUBLIC 'CONST'
rdata$r	ENDS
;	COMDAT ??_R4?$CArray@HAAH@@6B@
rdata$r	SEGMENT DWORD USE32 PUBLIC 'CONST'
rdata$r	ENDS
;	COMDAT ??_R4?$CArray@PAVBCMenu@@PAV1@@@6B@
rdata$r	SEGMENT DWORD USE32 PUBLIC 'CONST'
rdata$r	ENDS
;	COMDAT ??_R4?$CArray@HH@@6B@
rdata$r	SEGMENT DWORD USE32 PUBLIC 'CONST'
rdata$r	ENDS
;	COMDAT ??0?$allocator@_W@std@@QAE@XZ
_TEXT	SEGMENT PARA USE32 PUBLIC 'CODE'
_TEXT	ENDS
;	COMDAT ??0?$allocator@D@std@@QAE@ABV01@@Z
_TEXT	SEGMENT PARA USE32 PUBLIC 'CODE'
_TEXT	ENDS
;	COMDAT ??0?$allocator@D@std@@QAE@XZ
_TEXT	SEGMENT PARA USE32 PUBLIC 'CODE'
_TEXT	ENDS
;	COMDAT ?deallocate@?$allocator@D@std@@QAEXPADI@Z
_TEXT	SEGMENT PARA USE32 PUBLIC 'CODE'
_TEXT	ENDS
;	COMDAT ?max_size@?$allocator@D@std@@QBEIXZ
_TEXT	SEGMENT PARA USE32 PUBLIC 'CODE'
_TEXT	ENDS
;	COMDAT ?allocate@?$allocator@D@std@@QAEPADI@Z
_TEXT	SEGMENT PARA USE32 PUBLIC 'CODE'
_TEXT	ENDS
;	COMDAT ??$_Allocate@D@std@@YAPADIPAD@Z
_TEXT	SEGMENT PARA USE32 PUBLIC 'CODE'
_TEXT	ENDS
;	COMDAT ??_G?$numpunct@_W@std@@MAEPAXI@Z
_TEXT	SEGMENT PARA USE32 PUBLIC 'CODE'
_TEXT	ENDS
;	COMDAT ??_R4?$numpunct@_W@std@@6B@
rdata$r	SEGMENT DWORD USE32 PUBLIC 'CONST'
rdata$r	ENDS
;	COMDAT ??_G?$numpunct@D@std@@MAEPAXI@Z
_TEXT	SEGMENT PARA USE32 PUBLIC 'CODE'
_TEXT	ENDS
;	COMDAT ??_R4?$numpunct@D@std@@6B@
rdata$r	SEGMENT DWORD USE32 PUBLIC 'CONST'
rdata$r	ENDS
;	COMDAT ??_R4?$CTypedPtrArray@VCPtrArray@@PAUHMENU__@@@@6B@
rdata$r	SEGMENT DWORD USE32 PUBLIC 'CONST'
rdata$r	ENDS
;	COMDAT ??_R4?$CTypedPtrArray@VCPtrArray@@PAVBCMenuData@@@@6B@
rdata$r	SEGMENT DWORD USE32 PUBLIC 'CONST'
rdata$r	ENDS
;	COMDAT ??2@YAPAXIPAX@Z
_TEXT	SEGMENT PARA USE32 PUBLIC 'CODE'
_TEXT	ENDS
;	COMDAT ??_C@_0EN@CBMLGOH@D?3?2Program?5Files?5?$CIx86?$CJ?2Microsoft@
CONST	SEGMENT DWORD USE32 PUBLIC 'CONST'
CONST	ENDS
;	COMDAT ??_7?$CArray@HH@@6B@
CONST	SEGMENT DWORD USE32 PUBLIC 'CONST'
CONST	ENDS
;	COMDAT ??_7?$CArray@PAVBCMenu@@PAV1@@@6B@
CONST	SEGMENT DWORD USE32 PUBLIC 'CONST'
CONST	ENDS
;	COMDAT ??_7?$CArray@HAAH@@6B@
CONST	SEGMENT DWORD USE32 PUBLIC 'CONST'
CONST	ENDS
;	COMDAT ?_Psave@?$_Facetptr@V?$numpunct@_W@std@@@std@@2PBVfacet@locale@2@B
_DATA	SEGMENT DWORD USE32 PUBLIC 'DATA'
_DATA	ENDS
;	COMDAT ?_Psave@?$_Facetptr@V?$numpunct@D@std@@@std@@2PBVfacet@locale@2@B
_DATA	SEGMENT DWORD USE32 PUBLIC 'DATA'
_DATA	ENDS
;	COMDAT ?Unlock@CComCriticalSection@ATL@@QAEJXZ
_TEXT	SEGMENT PARA USE32 PUBLIC 'CODE'
_TEXT	ENDS
;	COMDAT ??_C@_0FG@LDNDNCJM@D?3?2Program?5Files?5?$CIx86?$CJ?2Microsoft@
CONST	SEGMENT DWORD USE32 PUBLIC 'CONST'
CONST	ENDS
;	COMDAT ??_C@_09HIEJFN@m_bLocked?$AA@
CONST	SEGMENT DWORD USE32 PUBLIC 'CONST'
CONST	ENDS
;	COMDAT ?_Psave@?$_Facetptr@V?$ctype@_W@std@@@std@@2PBVfacet@locale@2@B
_DATA	SEGMENT DWORD USE32 PUBLIC 'DATA'
_DATA	ENDS
;	COMDAT ?_Psave@?$_Facetptr@V?$ctype@D@std@@@std@@2PBVfacet@locale@2@B
_DATA	SEGMENT DWORD USE32 PUBLIC 'DATA'
_DATA	ENDS
;	COMDAT ??$_Maklocchr@_W@std@@YA_WDPA_WABU_Cvtvec@@@Z
_TEXT	SEGMENT PARA USE32 PUBLIC 'CODE'
_TEXT	ENDS
;	COMDAT ??$_DebugHeapDelete@X@std@@YAXPAX@Z
_TEXT	SEGMENT PARA USE32 PUBLIC 'CODE'
_TEXT	ENDS
;	COMDAT ??$_Maklocstr@_W@std@@YAPA_WPBDPA_WABU_Cvtvec@@@Z
_TEXT	SEGMENT PARA USE32 PUBLIC 'CODE'
_TEXT	ENDS
;	COMDAT ??$_Maklocchr@D@std@@YADDPADABU_Cvtvec@@@Z
_TEXT	SEGMENT PARA USE32 PUBLIC 'CODE'
_TEXT	ENDS
;	COMDAT ??_C@_04LOAJBDKD@true?$AA@
CONST	SEGMENT DWORD USE32 PUBLIC 'CONST'
CONST	ENDS
;	COMDAT ??_C@_05LAPONLG@false?$AA@
CONST	SEGMENT DWORD USE32 PUBLIC 'CONST'
CONST	ENDS
;	COMDAT _wmemcpy
_TEXT	SEGMENT PARA USE32 PUBLIC 'CODE'
_TEXT	ENDS
;	COMDAT ?max_size@?$allocator@_W@std@@QBEIXZ
_TEXT	SEGMENT PARA USE32 PUBLIC 'CODE'
_TEXT	ENDS
;	COMDAT ?allocate@?$allocator@_W@std@@QAEPA_WI@Z
_TEXT	SEGMENT PARA USE32 PUBLIC 'CODE'
_TEXT	ENDS
;	COMDAT ??$_Allocate@_W@std@@YAPA_WIPA_W@Z
_TEXT	SEGMENT PARA USE32 PUBLIC 'CODE'
_TEXT	ENDS
;	COMDAT ??_C@_0CD@EEFFJEGJ@nLength?5?$DM?$DN?5GetData?$CI?$CJ?9?$DOnAllocLeng@
CONST	SEGMENT DWORD USE32 PUBLIC 'CONST'
CONST	ENDS
;	COMDAT ?data@CStringData@ATL@@QAEPAXXZ
_TEXT	SEGMENT PARA USE32 PUBLIC 'CODE'
_TEXT	ENDS
;	COMDAT ??_C@_0BA@GOIMFHNK@pStringMgr?5?$CB?$DN?50?$AA@
CONST	SEGMENT DWORD USE32 PUBLIC 'CONST'
CONST	ENDS
;	COMDAT ??_C@_01GFHCPBMG@C?$AA@
CONST	SEGMENT DWORD USE32 PUBLIC 'CONST'
CONST	ENDS
;	COMDAT ?_Peek@?$istreambuf_iterator@_WU?$char_traits@_W@std@@@std@@AAE_WXZ
_TEXT	SEGMENT PARA USE32 PUBLIC 'CODE'
_TEXT	ENDS
;	COMDAT ?_Peek@?$istreambuf_iterator@DU?$char_traits@D@std@@@std@@AAEDXZ
_TEXT	SEGMENT PARA USE32 PUBLIC 'CODE'
_TEXT	ENDS
;	COMDAT ??$use_facet@V?$ctype@_W@std@@@std@@YAABV?$ctype@_W@0@ABVlocale@0@@Z
_TEXT	SEGMENT PARA USE32 PUBLIC 'CODE'
_TEXT	ENDS
;	COMDAT ??_S?$ctype@_W@std@@6B@
CONST	SEGMENT DWORD USE32 PUBLIC 'CONST'
CONST	ENDS
;	COMDAT ??_R4?$ctype@_W@std@@6B@
rdata$r	SEGMENT DWORD USE32 PUBLIC 'CONST'
rdata$r	ENDS
;	COMDAT ??_R0?AV?$ctype@_W@std@@@8
_DATA	SEGMENT DWORD USE32 PUBLIC 'DATA'
_DATA	ENDS
;	COMDAT ??_R3?$ctype@_W@std@@8
rdata$r	SEGMENT DWORD USE32 PUBLIC 'CONST'
rdata$r	ENDS
;	COMDAT ??_R2?$ctype@_W@std@@8
rdata$r	SEGMENT DWORD USE32 PUBLIC 'CONST'
rdata$r	ENDS
;	COMDAT ??_R1A@?0A@A@?$ctype@_W@std@@8
rdata$r	SEGMENT DWORD USE32 PUBLIC 'CONST'
rdata$r	ENDS
;	COMDAT ??_R1A@?0A@A@ctype_base@std@@8
rdata$r	SEGMENT DWORD USE32 PUBLIC 'CONST'
rdata$r	ENDS
;	COMDAT ??_R0?AUctype_base@std@@@8
_DATA	SEGMENT DWORD USE32 PUBLIC 'DATA'
_DATA	ENDS
;	COMDAT ??_G?$ctype@_W@std@@MAEPAXI@Z
_TEXT	SEGMENT PARA USE32 PUBLIC 'CODE'
_TEXT	ENDS
;	COMDAT ??_C@_08EPJLHIJG@bad?5cast?$AA@
CONST	SEGMENT DWORD USE32 PUBLIC 'CONST'
CONST	ENDS
;	COMDAT __TI2?AVbad_cast@@
xdata$x	SEGMENT DWORD USE32 PUBLIC 'CONST'
xdata$x	ENDS
;	COMDAT __CTA2?AVbad_cast@@
xdata$x	SEGMENT DWORD USE32 PUBLIC 'CONST'
xdata$x	ENDS
;	COMDAT __CT??_R0?AVbad_cast@@@8??0bad_cast@@QAE@ABV0@@Z12
xdata$x	SEGMENT DWORD USE32 PUBLIC 'CONST'
xdata$x	ENDS
;	COMDAT ??_R0?AVbad_cast@@@8
_DATA	SEGMENT DWORD USE32 PUBLIC 'DATA'
_DATA	ENDS
;	COMDAT __CT??_R0?AVexception@@@8??0exception@@QAE@ABV0@@Z12
xdata$x	SEGMENT DWORD USE32 PUBLIC 'CONST'
xdata$x	ENDS
;	COMDAT ??_R0?AVexception@@@8
_DATA	SEGMENT DWORD USE32 PUBLIC 'DATA'
_DATA	ENDS
;	COMDAT ??$_DebugHeapDelete@Vfacet@locale@std@@@std@@YAXPAVfacet@locale@0@@Z
_TEXT	SEGMENT PARA USE32 PUBLIC 'CODE'
_TEXT	ENDS
;	COMDAT ??$use_facet@V?$ctype@D@std@@@std@@YAABV?$ctype@D@0@ABVlocale@0@@Z
_TEXT	SEGMENT PARA USE32 PUBLIC 'CODE'
_TEXT	ENDS
;	COMDAT ??_S?$ctype@D@std@@6B@
CONST	SEGMENT DWORD USE32 PUBLIC 'CONST'
CONST	ENDS
;	COMDAT ??_R4?$ctype@D@std@@6B@
rdata$r	SEGMENT DWORD USE32 PUBLIC 'CONST'
rdata$r	ENDS
;	COMDAT ??_R0?AV?$ctype@D@std@@@8
_DATA	SEGMENT DWORD USE32 PUBLIC 'DATA'
_DATA	ENDS
;	COMDAT ??_R3?$ctype@D@std@@8
rdata$r	SEGMENT DWORD USE32 PUBLIC 'CONST'
rdata$r	ENDS
;	COMDAT ??_R2?$ctype@D@std@@8
rdata$r	SEGMENT DWORD USE32 PUBLIC 'CONST'
rdata$r	ENDS
;	COMDAT ??_R1A@?0A@A@?$ctype@D@std@@8
rdata$r	SEGMENT DWORD USE32 PUBLIC 'CONST'
rdata$r	ENDS
;	COMDAT ??_G?$ctype@D@std@@MAEPAXI@Z
_TEXT	SEGMENT PARA USE32 PUBLIC 'CODE'
_TEXT	ENDS
;	COMDAT ??_S?$numpunct@_W@std@@6B@
CONST	SEGMENT DWORD USE32 PUBLIC 'CONST'
CONST	ENDS
;	COMDAT ??_S?$numpunct@D@std@@6B@
CONST	SEGMENT DWORD USE32 PUBLIC 'CONST'
CONST	ENDS
;	COMDAT _wmemmove
_TEXT	SEGMENT PARA USE32 PUBLIC 'CODE'
_TEXT	ENDS
;	COMDAT ?deallocate@?$allocator@_W@std@@QAEXPA_WI@Z
_TEXT	SEGMENT PARA USE32 PUBLIC 'CODE'
_TEXT	ENDS
;	COMDAT ??0?$allocator@_W@std@@QAE@ABV01@@Z
_TEXT	SEGMENT PARA USE32 PUBLIC 'CODE'
_TEXT	ENDS
;	COMDAT ?AtlIsValidString@ATL@@YAHPBDI@Z
_TEXT	SEGMENT PARA USE32 PUBLIC 'CODE'
_TEXT	ENDS
;	COMDAT ?IsShared@CStringData@ATL@@QBE_NXZ
_TEXT	SEGMENT PARA USE32 PUBLIC 'CODE'
_TEXT	ENDS
;	COMDAT ?Release@CStringData@ATL@@QAEXXZ
_TEXT	SEGMENT PARA USE32 PUBLIC 'CODE'
_TEXT	ENDS
;	COMDAT ??_C@_0L@OIIMFBNE@nRefs?5?$CB?$DN?50?$AA@
CONST	SEGMENT DWORD USE32 PUBLIC 'CONST'
CONST	ENDS
;	COMDAT ??_C@_0CB@GFHAPKDK@pOldData?9?$DOnAllocLength?5?$DM?5nLength@
CONST	SEGMENT DWORD USE32 PUBLIC 'CONST'
CONST	ENDS
;	COMDAT ??_C@_0FH@KDPNIMBO@D?3?2Program?5Files?5?$CIx86?$CJ?2Microsoft@
CONST	SEGMENT DWORD USE32 PUBLIC 'CONST'
CONST	ENDS
;	COMDAT ??_C@_0N@ILOMLJGA@nLength?5?$DO?$DN?50?$AA@
CONST	SEGMENT DWORD USE32 PUBLIC 'CONST'
CONST	ENDS
;	COMDAT ?GetDefaultManager@?$StrTraitMFC_DLL@DV?$ChTraitsCRT@D@ATL@@@@SAPAUIAtlStringMgr@ATL@@XZ
_TEXT	SEGMENT PARA USE32 PUBLIC 'CODE'
_TEXT	ENDS
;	COMDAT ??_C@_0BA@GNIEOBOF@nNewLength?5?$DO?$DN?50?$AA@
CONST	SEGMENT DWORD USE32 PUBLIC 'CONST'
CONST	ENDS
;	COMDAT ?AtlThrow@ATL@@YGXJ@Z
_TEXT	SEGMENT PARA USE32 PUBLIC 'CODE'
_TEXT	ENDS
;	COMDAT ??RCTraceFileAndLineInfo@ATL@@QBAXKIPBDZZ
_TEXT	SEGMENT PARA USE32 PUBLIC 'CODE'
_TEXT	ENDS
;	COMDAT ?TraceV@CTrace@ATL@@QBAXPBDHKI0PAD@Z
_TEXT	SEGMENT PARA USE32 PUBLIC 'CODE'
_TEXT	ENDS
;	COMDAT ??0CTraceFileAndLineInfo@ATL@@QAE@PBDH@Z
_TEXT	SEGMENT PARA USE32 PUBLIC 'CODE'
_TEXT	ENDS
;	COMDAT ??_C@_0FI@NHHJANPC@D?3?2Program?5Files?5?$CIx86?$CJ?2Microsoft@
CONST	SEGMENT DWORD USE32 PUBLIC 'CONST'
CONST	ENDS
;	COMDAT ??_C@_0BF@IAAKIJDJ@AtlThrow?3?5hr?5?$DN?50x?$CFx?6?$AA@
CONST	SEGMENT DWORD USE32 PUBLIC 'CONST'
CONST	ENDS
;	COMDAT ??BCTraceCategory@ATL@@QBEKXZ
_TEXT	SEGMENT PARA USE32 PUBLIC 'CODE'
_TEXT	ENDS
;	COMDAT ??_C@_0FJ@DMHPDOJC@D?3?2Program?5Files?5?$CIx86?$CJ?2Microsoft@
CONST	SEGMENT DWORD USE32 PUBLIC 'CONST'
CONST	ENDS
;	COMDAT ?XPTheme_returnflag@?1??IsWindowsClassicTheme@BCMenu@@KAHXZ@4HA
_DATA	SEGMENT DWORD USE32 PUBLIC 'DATA'
_DATA	ENDS
;	COMDAT ?XPTheme_checkflag@?1??IsWindowsClassicTheme@BCMenu@@KAHXZ@4HA
_DATA	SEGMENT DWORD USE32 PUBLIC 'DATA'
_DATA	ENDS
;	COMDAT ?FindStringResourceInstance@?$StrTraitMFC_DLL@DV?$ChTraitsCRT@D@ATL@@@@SAPAUHINSTANCE__@@I@Z
_TEXT	SEGMENT PARA USE32 PUBLIC 'CODE'
_TEXT	ENDS
;	COMDAT ?AtlGetStringResourceImage@ATL@@YAPBUATLSTRINGRESOURCEIMAGE@1@PAUHINSTANCE__@@I@Z
_TEXT	SEGMENT PARA USE32 PUBLIC 'CODE'
_TEXT	ENDS
;	COMDAT ?_AtlGetStringResourceImage@ATL@@YAPBUATLSTRINGRESOURCEIMAGE@1@PAUHINSTANCE__@@PAUHRSRC__@@I@Z
_TEXT	SEGMENT PARA USE32 PUBLIC 'CODE'
_TEXT	ENDS
;	COMDAT ?GetBaseTypeLength@?$ChTraitsCRT@D@ATL@@SAHPB_WH@Z
_TEXT	SEGMENT PARA USE32 PUBLIC 'CODE'
_TEXT	ENDS
;	COMDAT ?ConvertToBaseType@?$ChTraitsCRT@D@ATL@@SAXPADHPB_WH@Z
_TEXT	SEGMENT PARA USE32 PUBLIC 'CODE'
_TEXT	ENDS
;	COMDAT ??_C@_0CJ@FJEKGMMD@Warning?3?5implicit?5LoadString?$CI?$CFu?$CJ@
CONST	SEGMENT DWORD USE32 PUBLIC 'CONST'
CONST	ENDS
;	COMDAT ??_7?$CTypedPtrArray@VCPtrArray@@PAVBCMenu@@@@6B@
CONST	SEGMENT DWORD USE32 PUBLIC 'CONST'
CONST	ENDS
;	COMDAT ??_R0?AVCMenu@@@8
_DATA	SEGMENT DWORD USE32 PUBLIC 'DATA'
_DATA	ENDS
;	COMDAT ??_R0?AVBCMenu@@@8
_DATA	SEGMENT DWORD USE32 PUBLIC 'DATA'
_DATA	ENDS
;	COMDAT ?GetBaseTypeLength@?$ChTraitsCRT@D@ATL@@SAHPB_W@Z
_TEXT	SEGMENT PARA USE32 PUBLIC 'CODE'
_TEXT	ENDS
;	COMDAT ?IsLocked@CStringData@ATL@@QBE_NXZ
_TEXT	SEGMENT PARA USE32 PUBLIC 'CODE'
_TEXT	ENDS
;	COMDAT ?AddRef@CStringData@ATL@@QAEXXZ
_TEXT	SEGMENT PARA USE32 PUBLIC 'CODE'
_TEXT	ENDS
;	COMDAT ??_C@_09EEBKLCFA@nRefs?5?$DO?50?$AA@
CONST	SEGMENT DWORD USE32 PUBLIC 'CONST'
CONST	ENDS
;	COMDAT ??_7?$CTypedPtrArray@VCPtrArray@@PAVBCMenuData@@@@6B@
CONST	SEGMENT DWORD USE32 PUBLIC 'CONST'
CONST	ENDS
;	COMDAT ??_7BCMenu@@6B@
CONST	SEGMENT DWORD USE32 PUBLIC 'CONST'
CONST	ENDS
;	COMDAT ?classBCMenu@BCMenu@@2UCRuntimeClass@@B
CONST	SEGMENT DWORD USE32 PUBLIC 'CONST'
CONST	ENDS
;	COMDAT ??_7?$CTypedPtrArray@VCPtrArray@@PAUHMENU__@@@@6B@
CONST	SEGMENT DWORD USE32 PUBLIC 'CONST'
CONST	ENDS
;	COMDAT ?_AtlGetConversionACP@ATL@@YGIXZ
_TEXT	SEGMENT PARA USE32 PUBLIC 'CODE'
_TEXT	ENDS
;	COMDAT ?g_pfnGetThreadACP@ATL@@3P6GIXZA
_DATA	SEGMENT DWORD USE32 PUBLIC 'DATA'
_DATA	ENDS
;	COMDAT ?_AtlGetThreadACPThunk@ATL@@YGIXZ
_TEXT	SEGMENT PARA USE32 PUBLIC 'CODE'
_TEXT	ENDS
;	COMDAT ?_AtlGetThreadACPReal@ATL@@YGIXZ
_TEXT	SEGMENT PARA USE32 PUBLIC 'CODE'
_TEXT	ENDS
;	COMDAT ?_AtlGetThreadACPFake@ATL@@YGIXZ
_TEXT	SEGMENT PARA USE32 PUBLIC 'CODE'
_TEXT	ENDS
;	COMDAT ?InterlockedExchangePointer@@YGPAXPAPAXPAX@Z
_TEXT	SEGMENT PARA USE32 PUBLIC 'CODE'
_TEXT	ENDS
;	COMDAT ??_7BCMenuMemDC@@6B@
CONST	SEGMENT DWORD USE32 PUBLIC 'CONST'
CONST	ENDS
sxdata	SEGMENT DWORD USE32 'SXDATA'
sxdata	ENDS
FLAT	GROUP _DATA, CONST, _BSS
	ASSUME	CS: FLAT, DS: FLAT, SS: FLAT
endif

INCLUDELIB MSVCRTD
INCLUDELIB OLDNAMES

PUBLIC	?m_iconX@BCMenu@@1HA				; BCMenu::m_iconX
PUBLIC	?m_iconY@BCMenu@@1HA				; BCMenu::m_iconY
PUBLIC	?original_drawmode@BCMenu@@1IA			; BCMenu::original_drawmode
PUBLIC	?original_select_disabled@BCMenu@@1HA		; BCMenu::original_select_disabled
PUBLIC	?xp_drawmode@BCMenu@@1IA			; BCMenu::xp_drawmode
PUBLIC	?xp_select_disabled@BCMenu@@1HA			; BCMenu::xp_select_disabled
PUBLIC	?xp_draw_3D_bitmaps@BCMenu@@1HA			; BCMenu::xp_draw_3D_bitmaps
PUBLIC	?hicolor_bitmaps@BCMenu@@1HA			; BCMenu::hicolor_bitmaps
PUBLIC	?xp_space_accelerators@BCMenu@@1HA		; BCMenu::xp_space_accelerators
PUBLIC	?original_space_accelerators@BCMenu@@1HA	; BCMenu::original_space_accelerators
PUBLIC	?g_pfnGetThreadACP@ATL@@3P6GIXZA		; ATL::g_pfnGetThreadACP
PUBLIC	?_AtlGetThreadACPThunk@ATL@@YGIXZ		; ATL::_AtlGetThreadACPThunk
PUBLIC	?classBCMenu@BCMenu@@2UCRuntimeClass@@B		; BCMenu::classBCMenu
EXTRN	?GetThisClass@CMenu@@SGPAUCRuntimeClass@@XZ:NEAR ; CMenu::GetThisClass
_BSS	SEGMENT
?original_drawmode@BCMenu@@1IA DD 01H DUP (?)		; BCMenu::original_drawmode
?xp_select_disabled@BCMenu@@1HA DD 01H DUP (?)		; BCMenu::xp_select_disabled
?hicolor_bitmaps@BCMenu@@1HA DD 01H DUP (?)		; BCMenu::hicolor_bitmaps
_BSS	ENDS
_DATA	SEGMENT
_THIS_FILE DB	'.\src\Gui\util\BCMenu.cpp', 00H
	ORG $+2
?original_select_disabled@BCMenu@@1HA DD 01H		; BCMenu::original_select_disabled
?xp_drawmode@BCMenu@@1IA DD 01H				; BCMenu::xp_drawmode
?xp_draw_3D_bitmaps@BCMenu@@1HA DD 01H			; BCMenu::xp_draw_3D_bitmaps
?xp_space_accelerators@BCMenu@@1HA DD 01H		; BCMenu::xp_space_accelerators
?original_space_accelerators@BCMenu@@1HA DD 01H		; BCMenu::original_space_accelerators
?m_iconX@BCMenu@@1HA DD 010H				; BCMenu::m_iconX
?m_iconY@BCMenu@@1HA DD 0fH				; BCMenu::m_iconY
_DATA	ENDS
CONST	SEGMENT
$SG187837 DB	'BCMenu', 00H
CONST	ENDS
;	COMDAT ?classBCMenu@BCMenu@@2UCRuntimeClass@@B
CONST	SEGMENT
?classBCMenu@BCMenu@@2UCRuntimeClass@@B DD FLAT:$SG187837 ; BCMenu::classBCMenu
	DD	064H
	DD	0ffffH
	DD	00H
	DD	FLAT:?GetThisClass@CMenu@@SGPAUCRuntimeClass@@XZ
	DD	00H
	DD	00H
CONST	ENDS
CONST	SEGMENT
	ORG $+1
$SG189268 DB	' ', 00H
$SG189443 DB	00H
$SG189936 DB	00H
$SG190357 DB	'Software\Microsoft\Plus!\Themes\Current', 00H
$SG190362 DB	'Windows Classic.theme', 00H
	ORG $+6
$SG190731 DB	'D:\Program Files (x86)\Microsoft Visual Studio .NET 2003'
	DB	'\Vc7\atlmfc\include\afxtempl.h', 00H
	ORG $+1
$SG190745 DB	'D:\Program Files (x86)\Microsoft Visual Studio .NET 2003'
	DB	'\Vc7\atlmfc\include\afxtempl.h', 00H
	ORG $+1
$SG190761 DB	'with ', 00H
	ORG $+2
$SG190762 DB	' elements', 00H
	ORG $+2
$SG190764 DB	0aH, 00H
	ORG $+2
$SG190771 DB	0aH, 00H
	ORG $+6
$SG190779 DB	'D:\Program Files (x86)\Microsoft Visual Studio .NET 2003'
	DB	'\Vc7\atlmfc\include\afxtempl.h', 00H
	ORG $+1
$SG190781 DB	'D:\Program Files (x86)\Microsoft Visual Studio .NET 2003'
	DB	'\Vc7\atlmfc\include\afxtempl.h', 00H
	ORG $+1
$SG190784 DB	'D:\Program Files (x86)\Microsoft Visual Studio .NET 2003'
	DB	'\Vc7\atlmfc\include\afxtempl.h', 00H
	ORG $+1
$SG190786 DB	'D:\Program Files (x86)\Microsoft Visual Studio .NET 2003'
	DB	'\Vc7\atlmfc\include\afxtempl.h', 00H
	ORG $+1
$SG190788 DB	'D:\Program Files (x86)\Microsoft Visual Studio .NET 2003'
	DB	'\Vc7\atlmfc\include\afxtempl.h', 00H
	ORG $+1
$SG190791 DB	'D:\Program Files (x86)\Microsoft Visual Studio .NET 2003'
	DB	'\Vc7\atlmfc\include\afxtempl.h', 00H
	ORG $+1
$SG190820 DB	'D:\Program Files (x86)\Microsoft Visual Studio .NET 2003'
	DB	'\Vc7\atlmfc\include\afxtempl.h', 00H
	ORG $+1
$SG190834 DB	'D:\Program Files (x86)\Microsoft Visual Studio .NET 2003'
	DB	'\Vc7\atlmfc\include\afxtempl.h', 00H
	ORG $+1
$SG190850 DB	'with ', 00H
	ORG $+2
$SG190851 DB	' elements', 00H
	ORG $+2
$SG190853 DB	0aH, 00H
	ORG $+2
$SG190860 DB	0aH, 00H
	ORG $+6
$SG190868 DB	'D:\Program Files (x86)\Microsoft Visual Studio .NET 2003'
	DB	'\Vc7\atlmfc\include\afxtempl.h', 00H
	ORG $+1
$SG190870 DB	'D:\Program Files (x86)\Microsoft Visual Studio .NET 2003'
	DB	'\Vc7\atlmfc\include\afxtempl.h', 00H
	ORG $+1
$SG190873 DB	'D:\Program Files (x86)\Microsoft Visual Studio .NET 2003'
	DB	'\Vc7\atlmfc\include\afxtempl.h', 00H
	ORG $+1
$SG190875 DB	'D:\Program Files (x86)\Microsoft Visual Studio .NET 2003'
	DB	'\Vc7\atlmfc\include\afxtempl.h', 00H
	ORG $+1
$SG190877 DB	'D:\Program Files (x86)\Microsoft Visual Studio .NET 2003'
	DB	'\Vc7\atlmfc\include\afxtempl.h', 00H
	ORG $+1
$SG190880 DB	'D:\Program Files (x86)\Microsoft Visual Studio .NET 2003'
	DB	'\Vc7\atlmfc\include\afxtempl.h', 00H
	ORG $+1
$SG190919 DB	'D:\Program Files (x86)\Microsoft Visual Studio .NET 2003'
	DB	'\Vc7\atlmfc\include\afxtempl.h', 00H
	ORG $+1
$SG190921 DB	'D:\Program Files (x86)\Microsoft Visual Studio .NET 2003'
	DB	'\Vc7\atlmfc\include\afxtempl.h', 00H
	ORG $+1
$SG190923 DB	'D:\Program Files (x86)\Microsoft Visual Studio .NET 2003'
	DB	'\Vc7\atlmfc\include\afxtempl.h', 00H
	ORG $+1
$SG190925 DB	'D:\Program Files (x86)\Microsoft Visual Studio .NET 2003'
	DB	'\Vc7\atlmfc\include\afxtempl.h', 00H
	ORG $+1
$SG190941 DB	'D:\Program Files (x86)\Microsoft Visual Studio .NET 2003'
	DB	'\Vc7\atlmfc\include\afxtempl.h', 00H
	ORG $+1
$SG190955 DB	'D:\Program Files (x86)\Microsoft Visual Studio .NET 2003'
	DB	'\Vc7\atlmfc\include\afxtempl.h', 00H
	ORG $+1
$SG190965 DB	'with ', 00H
	ORG $+2
$SG190966 DB	' elements', 00H
	ORG $+2
$SG190968 DB	0aH, 00H
	ORG $+2
$SG190969 DB	0aH, 00H
	ORG $+6
$SG190977 DB	'D:\Program Files (x86)\Microsoft Visual Studio .NET 2003'
	DB	'\Vc7\atlmfc\include\afxtempl.h', 00H
	ORG $+1
$SG190979 DB	'D:\Program Files (x86)\Microsoft Visual Studio .NET 2003'
	DB	'\Vc7\atlmfc\include\afxtempl.h', 00H
	ORG $+1
$SG190982 DB	'D:\Program Files (x86)\Microsoft Visual Studio .NET 2003'
	DB	'\Vc7\atlmfc\include\afxtempl.h', 00H
	ORG $+1
$SG190984 DB	'D:\Program Files (x86)\Microsoft Visual Studio .NET 2003'
	DB	'\Vc7\atlmfc\include\afxtempl.h', 00H
	ORG $+1
$SG190986 DB	'D:\Program Files (x86)\Microsoft Visual Studio .NET 2003'
	DB	'\Vc7\atlmfc\include\afxtempl.h', 00H
	ORG $+1
$SG190989 DB	'D:\Program Files (x86)\Microsoft Visual Studio .NET 2003'
	DB	'\Vc7\atlmfc\include\afxtempl.h', 00H
	ORG $+1
$SG191020 DB	'D:\Program Files (x86)\Microsoft Visual Studio .NET 2003'
	DB	'\Vc7\atlmfc\include\afxtempl.h', 00H
	ORG $+1
$SG191022 DB	'D:\Program Files (x86)\Microsoft Visual Studio .NET 2003'
	DB	'\Vc7\atlmfc\include\afxtempl.h', 00H
	ORG $+1
$SG191037 DB	'D:\Program Files (x86)\Microsoft Visual Studio .NET 2003'
	DB	'\Vc7\atlmfc\include\afxtempl.h', 00H
	ORG $+1
$SG191044 DB	'D:\Program Files (x86)\Microsoft Visual Studio .NET 2003'
	DB	'\Vc7\atlmfc\include\afxtempl.h', 00H
	ORG $+1
$SG191080 DB	'D:\Program Files (x86)\Microsoft Visual Studio .NET 2003'
	DB	'\Vc7\atlmfc\include\afxtempl.h', 00H
	ORG $+1
$SG191084 DB	'D:\Program Files (x86)\Microsoft Visual Studio .NET 2003'
	DB	'\Vc7\atlmfc\include\afxtempl.h', 00H
	ORG $+1
$SG191094 DB	'D:\Program Files (x86)\Microsoft Visual Studio .NET 2003'
	DB	'\Vc7\atlmfc\include\afxtempl.h', 00H
	ORG $+1
$SG191122 DB	'D:\Program Files (x86)\Microsoft Visual Studio .NET 2003'
	DB	'\Vc7\atlmfc\include\afxtempl.h', 00H
	ORG $+1
$SG191124 DB	'D:\Program Files (x86)\Microsoft Visual Studio .NET 2003'
	DB	'\Vc7\atlmfc\include\afxtempl.h', 00H
	ORG $+1
$SG191131 DB	'D:\Program Files (x86)\Microsoft Visual Studio .NET 2003'
	DB	'\Vc7\atlmfc\include\afxtempl.h', 00H
	ORG $+1
$SG191156 DB	'D:\Program Files (x86)\Microsoft Visual Studio .NET 2003'
	DB	'\Vc7\atlmfc\include\afxtempl.h', 00H
	ORG $+1
$SG191164 DB	'D:\Program Files (x86)\Microsoft Visual Studio .NET 2003'
	DB	'\Vc7\atlmfc\include\afxtempl.h', 00H
	ORG $+1
$SG191166 DB	'D:\Program Files (x86)\Microsoft Visual Studio .NET 2003'
	DB	'\Vc7\atlmfc\include\afxtempl.h', 00H
	ORG $+1
$SG191181 DB	'D:\Program Files (x86)\Microsoft Visual Studio .NET 2003'
	DB	'\Vc7\atlmfc\include\afxtempl.h', 00H
	ORG $+1
$SG191188 DB	'D:\Program Files (x86)\Microsoft Visual Studio .NET 2003'
	DB	'\Vc7\atlmfc\include\afxtempl.h', 00H
	ORG $+1
$SG191224 DB	'D:\Program Files (x86)\Microsoft Visual Studio .NET 2003'
	DB	'\Vc7\atlmfc\include\afxtempl.h', 00H
	ORG $+1
$SG191228 DB	'D:\Program Files (x86)\Microsoft Visual Studio .NET 2003'
	DB	'\Vc7\atlmfc\include\afxtempl.h', 00H
	ORG $+1
$SG191238 DB	'D:\Program Files (x86)\Microsoft Visual Studio .NET 2003'
	DB	'\Vc7\atlmfc\include\afxtempl.h', 00H
	ORG $+1
$SG191266 DB	'D:\Program Files (x86)\Microsoft Visual Studio .NET 2003'
	DB	'\Vc7\atlmfc\include\afxtempl.h', 00H
	ORG $+1
$SG191268 DB	'D:\Program Files (x86)\Microsoft Visual Studio .NET 2003'
	DB	'\Vc7\atlmfc\include\afxtempl.h', 00H
	ORG $+1
$SG191275 DB	'D:\Program Files (x86)\Microsoft Visual Studio .NET 2003'
	DB	'\Vc7\atlmfc\include\afxtempl.h', 00H
	ORG $+1
$SG191300 DB	'D:\Program Files (x86)\Microsoft Visual Studio .NET 2003'
	DB	'\Vc7\atlmfc\include\afxtempl.h', 00H
	ORG $+1
$SG191308 DB	'D:\Program Files (x86)\Microsoft Visual Studio .NET 2003'
	DB	'\Vc7\atlmfc\include\afxtempl.h', 00H
	ORG $+1
$SG191310 DB	'D:\Program Files (x86)\Microsoft Visual Studio .NET 2003'
	DB	'\Vc7\atlmfc\include\afxtempl.h', 00H
	ORG $+1
$SG191325 DB	'D:\Program Files (x86)\Microsoft Visual Studio .NET 2003'
	DB	'\Vc7\atlmfc\include\afxtempl.h', 00H
	ORG $+1
$SG191332 DB	'D:\Program Files (x86)\Microsoft Visual Studio .NET 2003'
	DB	'\Vc7\atlmfc\include\afxtempl.h', 00H
	ORG $+1
$SG191368 DB	'D:\Program Files (x86)\Microsoft Visual Studio .NET 2003'
	DB	'\Vc7\atlmfc\include\afxtempl.h', 00H
	ORG $+1
$SG191372 DB	'D:\Program Files (x86)\Microsoft Visual Studio .NET 2003'
	DB	'\Vc7\atlmfc\include\afxtempl.h', 00H
	ORG $+1
$SG191382 DB	'D:\Program Files (x86)\Microsoft Visual Studio .NET 2003'
	DB	'\Vc7\atlmfc\include\afxtempl.h', 00H
	ORG $+1
$SG191402 DB	'D:\Program Files (x86)\Microsoft Visual Studio .NET 2003'
	DB	'\Vc7\atlmfc\include\afxtempl.h', 00H
	ORG $+1
$SG191404 DB	'D:\Program Files (x86)\Microsoft Visual Studio .NET 2003'
	DB	'\Vc7\atlmfc\include\afxtempl.h', 00H
CONST	ENDS
;	COMDAT ?g_pfnGetThreadACP@ATL@@3P6GIXZA
_DATA	SEGMENT
?g_pfnGetThreadACP@ATL@@3P6GIXZA DD FLAT:?_AtlGetThreadACPThunk@ATL@@YGIXZ ; ATL::g_pfnGetThreadACP
_DATA	ENDS
PUBLIC	?IsShellType@@YA?AW4Win32Type@@XZ		; IsShellType
EXTRN	__imp__GetVersion@0:NEAR
EXTRN	__imp__GetVersionExA@4:NEAR
EXTRN	__RTC_InitBase:NEAR
EXTRN	__RTC_Shutdown:NEAR
EXTRN	__RTC_CheckEsp:NEAR
EXTRN	_memset:NEAR
EXTRN	__imp__free:NEAR
EXTRN	__imp__malloc:NEAR
;	COMDAT rtc$IMZ
; File d:\boxgit\playbox\playbox\dev\prj\playbox\src\gui\util\bcmenu.cpp
rtc$IMZ	SEGMENT
__RTC_InitBase.rtc$IMZ DD FLAT:__RTC_InitBase
rtc$IMZ	ENDS
;	COMDAT rtc$TMZ
rtc$TMZ	SEGMENT
__RTC_Shutdown.rtc$TMZ DD FLAT:__RTC_Shutdown
; Function compile flags: /Odt /RTCsu
rtc$TMZ	ENDS
_TEXT	SEGMENT
_osvi$ = -12						; size = 4
_winVer$ = -8						; size = 4
_ShellType$ = -4					; size = 4
?IsShellType@@YA?AW4Win32Type@@XZ PROC NEAR		; IsShellType

; 85   : {

  00000	55		 push	 ebp
  00001	8b ec		 mov	 ebp, esp
  00003	83 ec 0c	 sub	 esp, 12			; 0000000cH
  00006	56		 push	 esi
  00007	c7 45 f4 cc cc
	cc cc		 mov	 DWORD PTR [ebp-12], -858993460 ; ccccccccH
  0000e	c7 45 f8 cc cc
	cc cc		 mov	 DWORD PTR [ebp-8], -858993460 ; ccccccccH
  00015	c7 45 fc cc cc
	cc cc		 mov	 DWORD PTR [ebp-4], -858993460 ; ccccccccH

; 86   : 	Win32Type  ShellType;
; 87   : 	DWORD winVer;
; 88   : 	OSVERSIONINFO *osvi;
; 89   : 	
; 90   : 	winVer=GetVersion();

  0001c	8b f4		 mov	 esi, esp
  0001e	ff 15 00 00 00
	00		 call	 DWORD PTR __imp__GetVersion@0
  00024	3b f4		 cmp	 esi, esp
  00026	e8 00 00 00 00	 call	 __RTC_CheckEsp
  0002b	89 45 f8	 mov	 DWORD PTR _winVer$[ebp], eax

; 91   : 	if(winVer<0x80000000){/*NT */

  0002e	81 7d f8 00 00
	00 80		 cmp	 DWORD PTR _winVer$[ebp], -2147483648 ; 80000000H
  00035	0f 83 bb 00 00
	00		 jae	 $L187772

; 92   : 		ShellType=WinNT3;

  0003b	c7 45 fc 01 00
	00 00		 mov	 DWORD PTR _ShellType$[ebp], 1

; 93   : 		osvi= (OSVERSIONINFO *)malloc(sizeof(OSVERSIONINFO));

  00042	8b f4		 mov	 esi, esp
  00044	68 94 00 00 00	 push	 148			; 00000094H
  00049	ff 15 00 00 00
	00		 call	 DWORD PTR __imp__malloc
  0004f	83 c4 04	 add	 esp, 4
  00052	3b f4		 cmp	 esi, esp
  00054	e8 00 00 00 00	 call	 __RTC_CheckEsp
  00059	89 45 f4	 mov	 DWORD PTR _osvi$[ebp], eax

; 94   : 		if (osvi!=NULL){

  0005c	83 7d f4 00	 cmp	 DWORD PTR _osvi$[ebp], 0
  00060	0f 84 8b 00 00
	00		 je	 $L187775

; 95   : 			memset(osvi,0,sizeof(OSVERSIONINFO));

  00066	68 94 00 00 00	 push	 148			; 00000094H
  0006b	6a 00		 push	 0
  0006d	8b 45 f4	 mov	 eax, DWORD PTR _osvi$[ebp]
  00070	50		 push	 eax
  00071	e8 00 00 00 00	 call	 _memset
  00076	83 c4 0c	 add	 esp, 12			; 0000000cH

; 96   : 			osvi->dwOSVersionInfoSize=sizeof(OSVERSIONINFO);

  00079	8b 4d f4	 mov	 ecx, DWORD PTR _osvi$[ebp]
  0007c	c7 01 94 00 00
	00		 mov	 DWORD PTR [ecx], 148	; 00000094H

; 97   : 			GetVersionEx(osvi);

  00082	8b f4		 mov	 esi, esp
  00084	8b 55 f4	 mov	 edx, DWORD PTR _osvi$[ebp]
  00087	52		 push	 edx
  00088	ff 15 00 00 00
	00		 call	 DWORD PTR __imp__GetVersionExA@4
  0008e	3b f4		 cmp	 esi, esp
  00090	e8 00 00 00 00	 call	 __RTC_CheckEsp

; 98   : 			if(osvi->dwMajorVersion==4L)ShellType=WinNT4;

  00095	8b 45 f4	 mov	 eax, DWORD PTR _osvi$[ebp]
  00098	83 78 04 04	 cmp	 DWORD PTR [eax+4], 4
  0009c	75 09		 jne	 SHORT $L187778
  0009e	c7 45 fc 05 00
	00 00		 mov	 DWORD PTR _ShellType$[ebp], 5

; 99   : 			else if(osvi->dwMajorVersion==5L&&osvi->dwMinorVersion==0L)ShellType=Win2000;

  000a5	eb 34		 jmp	 SHORT $L187779
$L187778:
  000a7	8b 4d f4	 mov	 ecx, DWORD PTR _osvi$[ebp]
  000aa	83 79 04 05	 cmp	 DWORD PTR [ecx+4], 5
  000ae	75 12		 jne	 SHORT $L187780
  000b0	8b 55 f4	 mov	 edx, DWORD PTR _osvi$[ebp]
  000b3	83 7a 08 00	 cmp	 DWORD PTR [edx+8], 0
  000b7	75 09		 jne	 SHORT $L187780
  000b9	c7 45 fc 06 00
	00 00		 mov	 DWORD PTR _ShellType$[ebp], 6

; 100  : 			else if(osvi->dwMajorVersion==5L&&osvi->dwMinorVersion==1L)ShellType=WinXP;

  000c0	eb 19		 jmp	 SHORT $L187779
$L187780:
  000c2	8b 45 f4	 mov	 eax, DWORD PTR _osvi$[ebp]
  000c5	83 78 04 05	 cmp	 DWORD PTR [eax+4], 5
  000c9	75 10		 jne	 SHORT $L187779
  000cb	8b 4d f4	 mov	 ecx, DWORD PTR _osvi$[ebp]
  000ce	83 79 08 01	 cmp	 DWORD PTR [ecx+8], 1
  000d2	75 07		 jne	 SHORT $L187779
  000d4	c7 45 fc 07 00
	00 00		 mov	 DWORD PTR _ShellType$[ebp], 7
$L187779:

; 101  : 			free(osvi);

  000db	8b f4		 mov	 esi, esp
  000dd	8b 55 f4	 mov	 edx, DWORD PTR _osvi$[ebp]
  000e0	52		 push	 edx
  000e1	ff 15 00 00 00
	00		 call	 DWORD PTR __imp__free
  000e7	83 c4 04	 add	 esp, 4
  000ea	3b f4		 cmp	 esi, esp
  000ec	e8 00 00 00 00	 call	 __RTC_CheckEsp
$L187775:

; 102  : 		}
; 103  : 	}
; 104  : 	else if  (LOBYTE(LOWORD(winVer))<4)

  000f1	e9 c5 00 00 00	 jmp	 $L187783
$L187772:
  000f6	8b 45 f8	 mov	 eax, DWORD PTR _winVer$[ebp]
  000f9	25 ff ff 00 00	 and	 eax, 65535		; 0000ffffH
  000fe	0f b7 c8	 movzx	 ecx, ax
  00101	81 e1 ff 00 00
	00		 and	 ecx, 255		; 000000ffH
  00107	0f b6 d1	 movzx	 edx, cl
  0010a	83 fa 04	 cmp	 edx, 4
  0010d	7d 0c		 jge	 SHORT $L187788

; 105  : 		ShellType=Win32s;

  0010f	c7 45 fc 00 00
	00 00		 mov	 DWORD PTR _ShellType$[ebp], 0

; 106  : 	else{

  00116	e9 a0 00 00 00	 jmp	 $L187783
$L187788:

; 107  : 		ShellType=Win95;

  0011b	c7 45 fc 02 00
	00 00		 mov	 DWORD PTR _ShellType$[ebp], 2

; 108  : 		osvi= (OSVERSIONINFO *)malloc(sizeof(OSVERSIONINFO));

  00122	8b f4		 mov	 esi, esp
  00124	68 94 00 00 00	 push	 148			; 00000094H
  00129	ff 15 00 00 00
	00		 call	 DWORD PTR __imp__malloc
  0012f	83 c4 04	 add	 esp, 4
  00132	3b f4		 cmp	 esi, esp
  00134	e8 00 00 00 00	 call	 __RTC_CheckEsp
  00139	89 45 f4	 mov	 DWORD PTR _osvi$[ebp], eax

; 109  : 		if (osvi!=NULL){

  0013c	83 7d f4 00	 cmp	 DWORD PTR _osvi$[ebp], 0
  00140	74 79		 je	 SHORT $L187783

; 110  : 			memset(osvi,0,sizeof(OSVERSIONINFO));

  00142	68 94 00 00 00	 push	 148			; 00000094H
  00147	6a 00		 push	 0
  00149	8b 45 f4	 mov	 eax, DWORD PTR _osvi$[ebp]
  0014c	50		 push	 eax
  0014d	e8 00 00 00 00	 call	 _memset
  00152	83 c4 0c	 add	 esp, 12			; 0000000cH

; 111  : 			osvi->dwOSVersionInfoSize=sizeof(OSVERSIONINFO);

  00155	8b 4d f4	 mov	 ecx, DWORD PTR _osvi$[ebp]
  00158	c7 01 94 00 00
	00		 mov	 DWORD PTR [ecx], 148	; 00000094H

; 112  : 			GetVersionEx(osvi);

  0015e	8b f4		 mov	 esi, esp
  00160	8b 55 f4	 mov	 edx, DWORD PTR _osvi$[ebp]
  00163	52		 push	 edx
  00164	ff 15 00 00 00
	00		 call	 DWORD PTR __imp__GetVersionExA@4
  0016a	3b f4		 cmp	 esi, esp
  0016c	e8 00 00 00 00	 call	 __RTC_CheckEsp

; 113  : 			if(osvi->dwMajorVersion==4L&&osvi->dwMinorVersion==10L)ShellType=Win98;

  00171	8b 45 f4	 mov	 eax, DWORD PTR _osvi$[ebp]
  00174	83 78 04 04	 cmp	 DWORD PTR [eax+4], 4
  00178	75 12		 jne	 SHORT $L187795
  0017a	8b 4d f4	 mov	 ecx, DWORD PTR _osvi$[ebp]
  0017d	83 79 08 0a	 cmp	 DWORD PTR [ecx+8], 10	; 0000000aH
  00181	75 09		 jne	 SHORT $L187795
  00183	c7 45 fc 03 00
	00 00		 mov	 DWORD PTR _ShellType$[ebp], 3

; 114  : 			else if(osvi->dwMajorVersion==4L&&osvi->dwMinorVersion==90L)ShellType=WinME;

  0018a	eb 19		 jmp	 SHORT $L187796
$L187795:
  0018c	8b 55 f4	 mov	 edx, DWORD PTR _osvi$[ebp]
  0018f	83 7a 04 04	 cmp	 DWORD PTR [edx+4], 4
  00193	75 10		 jne	 SHORT $L187796
  00195	8b 45 f4	 mov	 eax, DWORD PTR _osvi$[ebp]
  00198	83 78 08 5a	 cmp	 DWORD PTR [eax+8], 90	; 0000005aH
  0019c	75 07		 jne	 SHORT $L187796
  0019e	c7 45 fc 04 00
	00 00		 mov	 DWORD PTR _ShellType$[ebp], 4
$L187796:

; 115  : 			free(osvi);

  001a5	8b f4		 mov	 esi, esp
  001a7	8b 4d f4	 mov	 ecx, DWORD PTR _osvi$[ebp]
  001aa	51		 push	 ecx
  001ab	ff 15 00 00 00
	00		 call	 DWORD PTR __imp__free
  001b1	83 c4 04	 add	 esp, 4
  001b4	3b f4		 cmp	 esi, esp
  001b6	e8 00 00 00 00	 call	 __RTC_CheckEsp
$L187783:

; 116  : 		}
; 117  : 	}
; 118  : 	return ShellType;

  001bb	8b 45 fc	 mov	 eax, DWORD PTR _ShellType$[ebp]

; 119  : }

  001be	5e		 pop	 esi
  001bf	83 c4 0c	 add	 esp, 12			; 0000000cH
  001c2	3b ec		 cmp	 ebp, esp
  001c4	e8 00 00 00 00	 call	 __RTC_CheckEsp
  001c9	8b e5		 mov	 esp, ebp
  001cb	5d		 pop	 ebp
  001cc	c3		 ret	 0
?IsShellType@@YA?AW4Win32Type@@XZ ENDP			; IsShellType
_TEXT	ENDS
PUBLIC	?SetAnsiString@BCMenuData@@QAEXPBD@Z		; BCMenuData::SetAnsiString
PUBLIC	?SetWideString@BCMenuData@@QAEXPB_W@Z		; BCMenuData::SetWideString
EXTRN	??_V@YAXPAX@Z:NEAR				; operator delete[]
EXTRN	__imp__MultiByteToWideChar@24:NEAR
EXTRN	??_U@YAPAXIPBDH@Z:NEAR				; operator new[]
; Function compile flags: /Odt /RTCsu
_TEXT	SEGMENT
$T192026 = -20						; size = 4
$T192025 = -16						; size = 4
_wszUtf8$ = -12						; size = 4
_len$ = -8						; size = 4
_this$ = -4						; size = 4
_szAnsiString$ = 8					; size = 4
?SetAnsiString@BCMenuData@@QAEXPBD@Z PROC NEAR		; BCMenuData::SetAnsiString
; _this$ = ecx

; 124  : {

  001d0	55		 push	 ebp
  001d1	8b ec		 mov	 ebp, esp
  001d3	83 ec 14	 sub	 esp, 20			; 00000014H
  001d6	56		 push	 esi
  001d7	b8 cc cc cc cc	 mov	 eax, -858993460		; ccccccccH
  001dc	89 45 ec	 mov	 DWORD PTR [ebp-20], eax
  001df	89 45 f0	 mov	 DWORD PTR [ebp-16], eax
  001e2	89 45 f4	 mov	 DWORD PTR [ebp-12], eax
  001e5	89 45 f8	 mov	 DWORD PTR [ebp-8], eax
  001e8	89 45 fc	 mov	 DWORD PTR [ebp-4], eax
  001eb	89 4d fc	 mov	 DWORD PTR _this$[ebp], ecx

; 125  : 	int len=MultiByteToWideChar(CP_ACP, 0,szAnsiString, -1,NULL,0);

  001ee	8b f4		 mov	 esi, esp
  001f0	6a 00		 push	 0
  001f2	6a 00		 push	 0
  001f4	6a ff		 push	 -1
  001f6	8b 45 08	 mov	 eax, DWORD PTR _szAnsiString$[ebp]
  001f9	50		 push	 eax
  001fa	6a 00		 push	 0
  001fc	6a 00		 push	 0
  001fe	ff 15 00 00 00
	00		 call	 DWORD PTR __imp__MultiByteToWideChar@24
  00204	3b f4		 cmp	 esi, esp
  00206	e8 00 00 00 00	 call	 __RTC_CheckEsp
  0020b	89 45 f8	 mov	 DWORD PTR _len$[ebp], eax

; 126  : 	wchar_t* wszUtf8 = new wchar_t[len];

  0020e	6a 7e		 push	 126			; 0000007eH
  00210	68 00 00 00 00	 push	 OFFSET FLAT:_THIS_FILE
  00215	8b 4d f8	 mov	 ecx, DWORD PTR _len$[ebp]
  00218	d1 e1		 shl	 ecx, 1
  0021a	51		 push	 ecx
  0021b	e8 00 00 00 00	 call	 ??_U@YAPAXIPBDH@Z	; operator new[]
  00220	83 c4 0c	 add	 esp, 12			; 0000000cH
  00223	89 45 f0	 mov	 DWORD PTR $T192025[ebp], eax
  00226	8b 55 f0	 mov	 edx, DWORD PTR $T192025[ebp]
  00229	89 55 f4	 mov	 DWORD PTR _wszUtf8$[ebp], edx

; 127  : 	memset(wszUtf8, 0, len * 2);

  0022c	8b 45 f8	 mov	 eax, DWORD PTR _len$[ebp]
  0022f	d1 e0		 shl	 eax, 1
  00231	50		 push	 eax
  00232	6a 00		 push	 0
  00234	8b 4d f4	 mov	 ecx, DWORD PTR _wszUtf8$[ebp]
  00237	51		 push	 ecx
  00238	e8 00 00 00 00	 call	 _memset
  0023d	83 c4 0c	 add	 esp, 12			; 0000000cH

; 128  : 	MultiByteToWideChar(CP_ACP, 0, szAnsiString, -1, (LPWSTR)wszUtf8, len);	

  00240	8b f4		 mov	 esi, esp
  00242	8b 55 f8	 mov	 edx, DWORD PTR _len$[ebp]
  00245	52		 push	 edx
  00246	8b 45 f4	 mov	 eax, DWORD PTR _wszUtf8$[ebp]
  00249	50		 push	 eax
  0024a	6a ff		 push	 -1
  0024c	8b 4d 08	 mov	 ecx, DWORD PTR _szAnsiString$[ebp]
  0024f	51		 push	 ecx
  00250	6a 00		 push	 0
  00252	6a 00		 push	 0
  00254	ff 15 00 00 00
	00		 call	 DWORD PTR __imp__MultiByteToWideChar@24
  0025a	3b f4		 cmp	 esi, esp
  0025c	e8 00 00 00 00	 call	 __RTC_CheckEsp

; 129  : 
; 130  : 	SetWideString( wszUtf8);  //SK:  see MFC Tech Note 059

  00261	8b 55 f4	 mov	 edx, DWORD PTR _wszUtf8$[ebp]
  00264	52		 push	 edx
  00265	8b 4d fc	 mov	 ecx, DWORD PTR _this$[ebp]
  00268	e8 00 00 00 00	 call	 ?SetWideString@BCMenuData@@QAEXPB_W@Z ; BCMenuData::SetWideString

; 131  : 	delete[] wszUtf8;

  0026d	8b 45 f4	 mov	 eax, DWORD PTR _wszUtf8$[ebp]
  00270	89 45 ec	 mov	 DWORD PTR $T192026[ebp], eax
  00273	8b 4d ec	 mov	 ecx, DWORD PTR $T192026[ebp]
  00276	51		 push	 ecx
  00277	e8 00 00 00 00	 call	 ??_V@YAXPAX@Z		; operator delete[]
  0027c	83 c4 04	 add	 esp, 4

; 132  : }

  0027f	5e		 pop	 esi
  00280	83 c4 14	 add	 esp, 20			; 00000014H
  00283	3b ec		 cmp	 ebp, esp
  00285	e8 00 00 00 00	 call	 __RTC_CheckEsp
  0028a	8b e5		 mov	 esp, ebp
  0028c	5d		 pop	 ebp
  0028d	c2 04 00	 ret	 4
?SetAnsiString@BCMenuData@@QAEXPBD@Z ENDP		; BCMenuData::SetAnsiString
_TEXT	ENDS
PUBLIC	?_AtlGetConversionACP@ATL@@YGIXZ		; ATL::_AtlGetConversionACP
PUBLIC	?GetString@BCMenuData@@QAE?AV?$CStringT@DV?$StrTraitMFC_DLL@DV?$ChTraitsCRT@D@ATL@@@@@ATL@@XZ ; BCMenuData::GetString
EXTRN	__imp__WideCharToMultiByte@32:NEAR
EXTRN	__except_list:DWORD
EXTRN	___security_cookie:DWORD
EXTRN	@_RTC_CheckStackVars@8:NEAR
EXTRN	@__security_check_cookie@4:NEAR
EXTRN	___CxxFrameHandler:NEAR
EXTRN	__imp_??0?$CStringT@DV?$StrTraitMFC_DLL@DV?$ChTraitsCRT@D@ATL@@@@@ATL@@QAE@XZ:NEAR
EXTRN	__imp_??0?$CStringT@DV?$StrTraitMFC_DLL@DV?$ChTraitsCRT@D@ATL@@@@@ATL@@QAE@ABV01@@Z:NEAR
EXTRN	__imp_??1?$CStringT@DV?$StrTraitMFC_DLL@DV?$ChTraitsCRT@D@ATL@@@@@ATL@@QAE@XZ:NEAR
EXTRN	__imp_??4?$CStringT@DV?$StrTraitMFC_DLL@DV?$ChTraitsCRT@D@ATL@@@@@ATL@@QAEAAV01@PBD@Z:NEAR
xdata$x	SEGMENT
$T192047 DD	0ffffffffH
	DD	FLAT:$L192029
$T192036 DD	019930520H
	DD	01H
	DD	FLAT:$T192047
	DD	2 DUP(00H)
	DD	2 DUP(00H)
; Function compile flags: /Odt /RTCsu
xdata$x	ENDS
_TEXT	SEGMENT
$T192031 = -316						; size = 4
_szbuffer$187823 = -308					; size = 256
__lpa$187822 = -48					; size = 4
__lpw$187821 = -44					; size = 4
__acp$187820 = -40					; size = 4
__convert$187819 = -36					; size = 4
_strText$ = -28						; size = 4
_this$ = -20						; size = 4
__$ArrayPad$ = -16					; size = 4
__$EHRec$ = -12						; size = 12
__$ReturnAddr$ = 4					; size = 4
___$ReturnUdt$ = 8					; size = 4
?GetString@BCMenuData@@QAE?AV?$CStringT@DV?$StrTraitMFC_DLL@DV?$ChTraitsCRT@D@ATL@@@@@ATL@@XZ PROC NEAR ; BCMenuData::GetString
; _this$ = ecx

; 136  : {

  00290	55		 push	 ebp
  00291	8b ec		 mov	 ebp, esp
  00293	6a ff		 push	 -1
  00295	68 00 00 00 00	 push	 __ehhandler$?GetString@BCMenuData@@QAE?AV?$CStringT@DV?$StrTraitMFC_DLL@DV?$ChTraitsCRT@D@ATL@@@@@ATL@@XZ
  0029a	64 a1 00 00 00
	00		 mov	 eax, DWORD PTR fs:__except_list
  002a0	50		 push	 eax
  002a1	64 89 25 00 00
	00 00		 mov	 DWORD PTR fs:__except_list, esp
  002a8	81 ec 30 01 00
	00		 sub	 esp, 304		; 00000130H
  002ae	56		 push	 esi
  002af	57		 push	 edi
  002b0	51		 push	 ecx
  002b1	8d bd c4 fe ff
	ff		 lea	 edi, DWORD PTR [ebp-316]
  002b7	b9 4c 00 00 00	 mov	 ecx, 76			; 0000004cH
  002bc	b8 cc cc cc cc	 mov	 eax, -858993460		; ccccccccH
  002c1	f3 ab		 rep stosd
  002c3	59		 pop	 ecx
  002c4	a1 00 00 00 00	 mov	 eax, DWORD PTR ___security_cookie
  002c9	89 45 f0	 mov	 DWORD PTR __$ArrayPad$[ebp], eax
  002cc	89 4d ec	 mov	 DWORD PTR _this$[ebp], ecx
  002cf	c7 85 c4 fe ff
	ff 00 00 00 00	 mov	 DWORD PTR $T192031[ebp], 0

; 137  : 	CString strText;

  002d9	8b f4		 mov	 esi, esp
  002db	8d 4d e4	 lea	 ecx, DWORD PTR _strText$[ebp]
  002de	ff 15 00 00 00
	00		 call	 DWORD PTR __imp_??0?$CStringT@DV?$StrTraitMFC_DLL@DV?$ChTraitsCRT@D@ATL@@@@@ATL@@QAE@XZ
  002e4	3b f4		 cmp	 esi, esp
  002e6	e8 00 00 00 00	 call	 __RTC_CheckEsp
  002eb	c7 45 fc 00 00
	00 00		 mov	 DWORD PTR __$EHRec$[ebp+8], 0

; 138  : 	if (m_szMenuText)

  002f2	8b 45 ec	 mov	 eax, DWORD PTR _this$[ebp]
  002f5	83 38 00	 cmp	 DWORD PTR [eax], 0
  002f8	74 61		 je	 SHORT $L187818

; 139  :     {
; 140  : #ifdef UNICODE
; 141  : 		strText = m_szMenuText;
; 142  : #else
; 143  : 		USES_CONVERSION;

  002fa	c7 45 dc 00 00
	00 00		 mov	 DWORD PTR __convert$187819[ebp], 0
  00301	e8 00 00 00 00	 call	 ?_AtlGetConversionACP@ATL@@YGIXZ ; ATL::_AtlGetConversionACP
  00306	89 45 d8	 mov	 DWORD PTR __acp$187820[ebp], eax
  00309	c7 45 d4 00 00
	00 00		 mov	 DWORD PTR __lpw$187821[ebp], 0
  00310	c7 45 d0 00 00
	00 00		 mov	 DWORD PTR __lpa$187822[ebp], 0

; 144  : 		char szbuffer[256];
; 145  : 
; 146  : 		WideCharToMultiByte( CP_ACP, 0, m_szMenuText, -1,
; 147  : 			szbuffer, 256, NULL, NULL );

  00317	8b f4		 mov	 esi, esp
  00319	6a 00		 push	 0
  0031b	6a 00		 push	 0
  0031d	68 00 01 00 00	 push	 256			; 00000100H
  00322	8d 8d cc fe ff
	ff		 lea	 ecx, DWORD PTR _szbuffer$187823[ebp]
  00328	51		 push	 ecx
  00329	6a ff		 push	 -1
  0032b	8b 55 ec	 mov	 edx, DWORD PTR _this$[ebp]
  0032e	8b 02		 mov	 eax, DWORD PTR [edx]
  00330	50		 push	 eax
  00331	6a 00		 push	 0
  00333	6a 00		 push	 0
  00335	ff 15 00 00 00
	00		 call	 DWORD PTR __imp__WideCharToMultiByte@32
  0033b	3b f4		 cmp	 esi, esp
  0033d	e8 00 00 00 00	 call	 __RTC_CheckEsp

; 148  : 
; 149  : //		strText=W2A(m_szMenuText);     //SK:  see MFC Tech Note 059
; 150  : //		WildChar
; 151  : 		strText = szbuffer;

  00342	8b f4		 mov	 esi, esp
  00344	8d 8d cc fe ff
	ff		 lea	 ecx, DWORD PTR _szbuffer$187823[ebp]
  0034a	51		 push	 ecx
  0034b	8d 4d e4	 lea	 ecx, DWORD PTR _strText$[ebp]
  0034e	ff 15 00 00 00
	00		 call	 DWORD PTR __imp_??4?$CStringT@DV?$StrTraitMFC_DLL@DV?$ChTraitsCRT@D@ATL@@@@@ATL@@QAEAAV01@PBD@Z
  00354	3b f4		 cmp	 esi, esp
  00356	e8 00 00 00 00	 call	 __RTC_CheckEsp
$L187818:

; 152  : #endif    
; 153  :     }
; 154  : 	return strText;

  0035b	8b f4		 mov	 esi, esp
  0035d	8d 55 e4	 lea	 edx, DWORD PTR _strText$[ebp]
  00360	52		 push	 edx
  00361	8b 4d 08	 mov	 ecx, DWORD PTR ___$ReturnUdt$[ebp]
  00364	ff 15 00 00 00
	00		 call	 DWORD PTR __imp_??0?$CStringT@DV?$StrTraitMFC_DLL@DV?$ChTraitsCRT@D@ATL@@@@@ATL@@QAE@ABV01@@Z
  0036a	3b f4		 cmp	 esi, esp
  0036c	e8 00 00 00 00	 call	 __RTC_CheckEsp
  00371	8b 85 c4 fe ff
	ff		 mov	 eax, DWORD PTR $T192031[ebp]
  00377	83 c8 01	 or	 eax, 1
  0037a	89 85 c4 fe ff
	ff		 mov	 DWORD PTR $T192031[ebp], eax
  00380	c7 45 fc ff ff
	ff ff		 mov	 DWORD PTR __$EHRec$[ebp+8], -1
  00387	8b f4		 mov	 esi, esp
  00389	8d 4d e4	 lea	 ecx, DWORD PTR _strText$[ebp]
  0038c	ff 15 00 00 00
	00		 call	 DWORD PTR __imp_??1?$CStringT@DV?$StrTraitMFC_DLL@DV?$ChTraitsCRT@D@ATL@@@@@ATL@@QAE@XZ
  00392	3b f4		 cmp	 esi, esp
  00394	e8 00 00 00 00	 call	 __RTC_CheckEsp
  00399	8b 45 08	 mov	 eax, DWORD PTR ___$ReturnUdt$[ebp]

; 155  : }

  0039c	52		 push	 edx
  0039d	8b cd		 mov	 ecx, ebp
  0039f	50		 push	 eax
  003a0	8d 15 00 00 00
	00		 lea	 edx, DWORD PTR $L192044
  003a6	e8 00 00 00 00	 call	 @_RTC_CheckStackVars@8
  003ab	58		 pop	 eax
  003ac	5a		 pop	 edx
  003ad	8b 4d f4	 mov	 ecx, DWORD PTR __$EHRec$[ebp]
  003b0	64 89 0d 00 00
	00 00		 mov	 DWORD PTR fs:__except_list, ecx
  003b7	8b 4d f0	 mov	 ecx, DWORD PTR __$ArrayPad$[ebp]
  003ba	e8 00 00 00 00	 call	 @__security_check_cookie@4
  003bf	5f		 pop	 edi
  003c0	5e		 pop	 esi
  003c1	81 c4 3c 01 00
	00		 add	 esp, 316		; 0000013cH
  003c7	3b ec		 cmp	 ebp, esp
  003c9	e8 00 00 00 00	 call	 __RTC_CheckEsp
  003ce	8b e5		 mov	 esp, ebp
  003d0	5d		 pop	 ebp
  003d1	c2 04 00	 ret	 4
$L192044:
  003d4	02 00 00 00	 DD	 2
  003d8	00 00 00 00	 DD	 $L192043
$L192043:
  003dc	e4 ff ff ff	 DD	 -28			; ffffffe4H
  003e0	04 00 00 00	 DD	 4
  003e4	00 00 00 00	 DD	 $L192037
  003e8	cc fe ff ff	 DD	 -308			; fffffeccH
  003ec	00 01 00 00	 DD	 256			; 00000100H
  003f0	00 00 00 00	 DD	 $L192038
$L192038:
  003f4	73		 DB	 115			; 00000073H
  003f5	7a		 DB	 122			; 0000007aH
  003f6	62		 DB	 98			; 00000062H
  003f7	75		 DB	 117			; 00000075H
  003f8	66		 DB	 102			; 00000066H
  003f9	66		 DB	 102			; 00000066H
  003fa	65		 DB	 101			; 00000065H
  003fb	72		 DB	 114			; 00000072H
  003fc	00		 DB	 0
$L192037:
  003fd	73		 DB	 115			; 00000073H
  003fe	74		 DB	 116			; 00000074H
  003ff	72		 DB	 114			; 00000072H
  00400	54		 DB	 84			; 00000054H
  00401	65		 DB	 101			; 00000065H
  00402	78		 DB	 120			; 00000078H
  00403	74		 DB	 116			; 00000074H
  00404	00		 DB	 0
_TEXT	ENDS
text$x	SEGMENT
$L192029:
  00000	8b f4		 mov	 esi, esp
  00002	8d 4d e4	 lea	 ecx, DWORD PTR _strText$[ebp]
  00005	ff 15 00 00 00
	00		 call	 DWORD PTR __imp_??1?$CStringT@DV?$StrTraitMFC_DLL@DV?$ChTraitsCRT@D@ATL@@@@@ATL@@QAE@XZ
  0000b	3b f4		 cmp	 esi, esp
  0000d	e9 00 00 00 00	 jmp	 __RTC_CheckEsp
__ehhandler$?GetString@BCMenuData@@QAE?AV?$CStringT@DV?$StrTraitMFC_DLL@DV?$ChTraitsCRT@D@ATL@@@@@ATL@@XZ:
  00012	b8 00 00 00 00	 mov	 eax, OFFSET FLAT:$T192036
  00017	e9 00 00 00 00	 jmp	 ___CxxFrameHandler
text$x	ENDS
?GetString@BCMenuData@@QAE?AV?$CStringT@DV?$StrTraitMFC_DLL@DV?$ChTraitsCRT@D@ATL@@@@@ATL@@XZ ENDP ; BCMenuData::GetString
PUBLIC	?GetThisClass@BCMenu@@SGPAUCRuntimeClass@@XZ	; BCMenu::GetThisClass
; Function compile flags: /Odt /RTCsu
_TEXT	SEGMENT
?GetThisClass@BCMenu@@SGPAUCRuntimeClass@@XZ PROC NEAR	; BCMenu::GetThisClass

; 159  : IMPLEMENT_DYNAMIC( BCMenu, CMenu )

  00410	55		 push	 ebp
  00411	8b ec		 mov	 ebp, esp
  00413	b8 00 00 00 00	 mov	 eax, OFFSET FLAT:?classBCMenu@BCMenu@@2UCRuntimeClass@@B ; BCMenu::classBCMenu
  00418	5d		 pop	 ebp
  00419	c3		 ret	 0
?GetThisClass@BCMenu@@SGPAUCRuntimeClass@@XZ ENDP	; BCMenu::GetThisClass
_TEXT	ENDS
PUBLIC	?GetRuntimeClass@BCMenu@@UBEPAUCRuntimeClass@@XZ ; BCMenu::GetRuntimeClass
; Function compile flags: /Odt /RTCsu
_TEXT	SEGMENT
_this$ = -4						; size = 4
?GetRuntimeClass@BCMenu@@UBEPAUCRuntimeClass@@XZ PROC NEAR ; BCMenu::GetRuntimeClass
; _this$ = ecx

; 159  : IMPLEMENT_DYNAMIC( BCMenu, CMenu )

  00420	55		 push	 ebp
  00421	8b ec		 mov	 ebp, esp
  00423	51		 push	 ecx
  00424	c7 45 fc cc cc
	cc cc		 mov	 DWORD PTR [ebp-4], -858993460 ; ccccccccH
  0042b	89 4d fc	 mov	 DWORD PTR _this$[ebp], ecx
  0042e	b8 00 00 00 00	 mov	 eax, OFFSET FLAT:?classBCMenu@BCMenu@@2UCRuntimeClass@@B ; BCMenu::classBCMenu
  00433	8b e5		 mov	 esp, ebp
  00435	5d		 pop	 ebp
  00436	c3		 ret	 0
?GetRuntimeClass@BCMenu@@UBEPAUCRuntimeClass@@XZ ENDP	; BCMenu::GetRuntimeClass
_TEXT	ENDS
PUBLIC	??0?$CTypedPtrArray@VCPtrArray@@PAVBCMenuData@@@@QAE@XZ ; CTypedPtrArray<CPtrArray,BCMenuData *>::CTypedPtrArray<CPtrArray,BCMenuData *>
PUBLIC	??1?$CTypedPtrArray@VCPtrArray@@PAVBCMenuData@@@@UAE@XZ ; CTypedPtrArray<CPtrArray,BCMenuData *>::~CTypedPtrArray<CPtrArray,BCMenuData *>
PUBLIC	??0?$CTypedPtrArray@VCPtrArray@@PAUHMENU__@@@@QAE@XZ ; CTypedPtrArray<CPtrArray,HMENU__ *>::CTypedPtrArray<CPtrArray,HMENU__ *>
PUBLIC	??1?$CTypedPtrArray@VCPtrArray@@PAUHMENU__@@@@UAE@XZ ; CTypedPtrArray<CPtrArray,HMENU__ *>::~CTypedPtrArray<CPtrArray,HMENU__ *>
PUBLIC	??_7BCMenu@@6B@					; BCMenu::`vftable'
PUBLIC	??_GBCMenu@@UAEPAXI@Z				; BCMenu::`scalar deleting destructor'
PUBLIC	??_R1A@?0A@A@CObject@@8				; CObject::`RTTI Base Class Descriptor at (0,-1,0,0)'
PUBLIC	??_R0?AVCObject@@@8				; CObject `RTTI Type Descriptor'
PUBLIC	??_R0?AVCMenu@@@8				; CMenu `RTTI Type Descriptor'
PUBLIC	??_R0?AVBCMenu@@@8				; BCMenu `RTTI Type Descriptor'
PUBLIC	??0BCMenu@@QAE@XZ				; BCMenu::BCMenu
PUBLIC	?LoadMenuA@BCMenu@@UAEHPBD@Z			; BCMenu::LoadMenuA
PUBLIC	?LoadMenuA@BCMenu@@UAEHH@Z			; BCMenu::LoadMenuA
PUBLIC	?DestroyMenu@BCMenu@@UAEHXZ			; BCMenu::DestroyMenu
PUBLIC	?DrawItem@BCMenu@@UAEXPAUtagDRAWITEMSTRUCT@@@Z	; BCMenu::DrawItem
PUBLIC	?MeasureItem@BCMenu@@UAEXPAUtagMEASUREITEMSTRUCT@@@Z ; BCMenu::MeasureItem
PUBLIC	??_R4BCMenu@@6B@				; BCMenu::`RTTI Complete Object Locator'
PUBLIC	??_R3BCMenu@@8					; BCMenu::`RTTI Class Hierarchy Descriptor'
PUBLIC	??_R2BCMenu@@8					; BCMenu::`RTTI Base Class Array'
PUBLIC	??_R1A@?0A@A@BCMenu@@8				; BCMenu::`RTTI Base Class Descriptor at (0,-1,0,0)'
PUBLIC	??_R1A@?0A@A@CMenu@@8				; CMenu::`RTTI Base Class Descriptor at (0,-1,0,0)'
PUBLIC	?IsWinXPLuna@BCMenu@@KAHXZ			; BCMenu::IsWinXPLuna
EXTRN	??_EBCMenu@@UAEPAXI@Z:NEAR			; BCMenu::`vector deleting destructor'
EXTRN	__imp__GetCPInfo@8:NEAR
EXTRN	??0CMenu@@QAE@XZ:NEAR				; CMenu::CMenu
EXTRN	?Serialize@CObject@@UAEXAAVCArchive@@@Z:NEAR	; CObject::Serialize
EXTRN	??1CMenu@@UAE@XZ:NEAR				; CMenu::~CMenu
EXTRN	?AssertValid@CMenu@@UBEXXZ:NEAR			; CMenu::AssertValid
EXTRN	?Dump@CMenu@@UBEXAAVCDumpContext@@@Z:NEAR	; CMenu::Dump
EXTRN	__imp__GetSysColor@4:NEAR
EXTRN	??_7type_info@@6B@:QWORD			; type_info::`vftable'
_BSS	SEGMENT
_CPInfo	DB	014H DUP (?)
_BSS	ENDS
xdata$x	SEGMENT
$T192058 DD	0ffffffffH
	DD	FLAT:$L192052
	DD	00H
	DD	FLAT:$L192053
	DD	01H
	DD	FLAT:$L192054
$T192056 DD	019930520H
	DD	03H
	DD	FLAT:$T192058
	DD	2 DUP(00H)
	DD	2 DUP(00H)
xdata$x	ENDS
;	COMDAT ??_7BCMenu@@6B@
CONST	SEGMENT
??_7BCMenu@@6B@ DD FLAT:??_R4BCMenu@@6B@		; BCMenu::`vftable'
	DD	FLAT:?GetRuntimeClass@BCMenu@@UBEPAUCRuntimeClass@@XZ
	DD	FLAT:??_EBCMenu@@UAEPAXI@Z
	DD	FLAT:?Serialize@CObject@@UAEXAAVCArchive@@@Z
	DD	FLAT:?AssertValid@CMenu@@UBEXXZ
	DD	FLAT:?Dump@CMenu@@UBEXAAVCDumpContext@@@Z
	DD	FLAT:?DrawItem@BCMenu@@UAEXPAUtagDRAWITEMSTRUCT@@@Z
	DD	FLAT:?MeasureItem@BCMenu@@UAEXPAUtagMEASUREITEMSTRUCT@@@Z
	DD	FLAT:?LoadMenuA@BCMenu@@UAEHH@Z
	DD	FLAT:?LoadMenuA@BCMenu@@UAEHPBD@Z
	DD	FLAT:?DestroyMenu@BCMenu@@UAEHXZ
CONST	ENDS
;	COMDAT ??_R4BCMenu@@6B@
rdata$r	SEGMENT
??_R4BCMenu@@6B@ DD 00H					; BCMenu::`RTTI Complete Object Locator'
	DD	00H
	DD	00H
	DD	FLAT:??_R0?AVBCMenu@@@8
	DD	FLAT:??_R3BCMenu@@8
rdata$r	ENDS
;	COMDAT ??_R0?AVBCMenu@@@8
_DATA	SEGMENT
??_R0?AVBCMenu@@@8 DD FLAT:??_7type_info@@6B@		; BCMenu `RTTI Type Descriptor'
	DD	00H
	DB	'.?AVBCMenu@@', 00H
_DATA	ENDS
;	COMDAT ??_R3BCMenu@@8
rdata$r	SEGMENT
??_R3BCMenu@@8 DD 00H					; BCMenu::`RTTI Class Hierarchy Descriptor'
	DD	00H
	DD	03H
	DD	FLAT:??_R2BCMenu@@8
rdata$r	ENDS
;	COMDAT ??_R2BCMenu@@8
rdata$r	SEGMENT
??_R2BCMenu@@8 DD FLAT:??_R1A@?0A@A@BCMenu@@8		; BCMenu::`RTTI Base Class Array'
	DD	FLAT:??_R1A@?0A@A@CMenu@@8
	DD	FLAT:??_R1A@?0A@A@CObject@@8
rdata$r	ENDS
;	COMDAT ??_R1A@?0A@A@BCMenu@@8
rdata$r	SEGMENT
??_R1A@?0A@A@BCMenu@@8 DD FLAT:??_R0?AVBCMenu@@@8	; BCMenu::`RTTI Base Class Descriptor at (0,-1,0,0)'
	DD	02H
	DD	00H
	DD	0ffffffffH
	DD	00H
	DD	00H
rdata$r	ENDS
;	COMDAT ??_R1A@?0A@A@CMenu@@8
rdata$r	SEGMENT
??_R1A@?0A@A@CMenu@@8 DD FLAT:??_R0?AVCMenu@@@8		; CMenu::`RTTI Base Class Descriptor at (0,-1,0,0)'
	DD	01H
	DD	00H
	DD	0ffffffffH
	DD	00H
	DD	00H
rdata$r	ENDS
;	COMDAT ??_R0?AVCMenu@@@8
_DATA	SEGMENT
??_R0?AVCMenu@@@8 DD FLAT:??_7type_info@@6B@		; CMenu `RTTI Type Descriptor'
	DD	00H
	DB	'.?AVCMenu@@', 00H
_DATA	ENDS
;	COMDAT ??_R1A@?0A@A@CObject@@8
rdata$r	SEGMENT
??_R1A@?0A@A@CObject@@8 DD FLAT:??_R0?AVCObject@@@8	; CObject::`RTTI Base Class Descriptor at (0,-1,0,0)'
	DD	00H
	DD	00H
	DD	0ffffffffH
	DD	00H
	DD	00H
rdata$r	ENDS
;	COMDAT ??_R0?AVCObject@@@8
_DATA	SEGMENT
??_R0?AVCObject@@@8 DD FLAT:??_7type_info@@6B@		; CObject `RTTI Type Descriptor'
	DD	00H
	DB	'.?AVCObject@@', 00H
; Function compile flags: /Odt /RTCsu
_DATA	ENDS
_TEXT	SEGMENT
_this$ = -16						; size = 4
__$EHRec$ = -12						; size = 12
??0BCMenu@@QAE@XZ PROC NEAR				; BCMenu::BCMenu
; _this$ = ecx

; 173  : {

  00440	55		 push	 ebp
  00441	8b ec		 mov	 ebp, esp
  00443	6a ff		 push	 -1
  00445	68 00 00 00 00	 push	 __ehhandler$??0BCMenu@@QAE@XZ
  0044a	64 a1 00 00 00
	00		 mov	 eax, DWORD PTR fs:__except_list
  00450	50		 push	 eax
  00451	64 89 25 00 00
	00 00		 mov	 DWORD PTR fs:__except_list, esp
  00458	51		 push	 ecx
  00459	56		 push	 esi
  0045a	c7 45 f0 cc cc
	cc cc		 mov	 DWORD PTR [ebp-16], -858993460 ; ccccccccH
  00461	89 4d f0	 mov	 DWORD PTR _this$[ebp], ecx
  00464	8b 4d f0	 mov	 ecx, DWORD PTR _this$[ebp]
  00467	e8 00 00 00 00	 call	 ??0CMenu@@QAE@XZ	; CMenu::CMenu
  0046c	c7 45 fc 00 00
	00 00		 mov	 DWORD PTR __$EHRec$[ebp+8], 0
  00473	8b 45 f0	 mov	 eax, DWORD PTR _this$[ebp]
  00476	c7 00 00 00 00
	00		 mov	 DWORD PTR [eax], OFFSET FLAT:??_7BCMenu@@6B@
  0047c	8b 4d f0	 mov	 ecx, DWORD PTR _this$[ebp]
  0047f	83 c1 08	 add	 ecx, 8
  00482	e8 00 00 00 00	 call	 ??0?$CTypedPtrArray@VCPtrArray@@PAVBCMenuData@@@@QAE@XZ
  00487	c6 45 fc 01	 mov	 BYTE PTR __$EHRec$[ebp+8], 1
  0048b	8b 4d f0	 mov	 ecx, DWORD PTR _this$[ebp]
  0048e	83 c1 1c	 add	 ecx, 28			; 0000001cH
  00491	e8 00 00 00 00	 call	 ??0?$CTypedPtrArray@VCPtrArray@@PAUHMENU__@@@@QAE@XZ
  00496	c6 45 fc 02	 mov	 BYTE PTR __$EHRec$[ebp+8], 2

; 174  : 	m_bDynIcons = FALSE;     // O.S. - no dynamic icons by default

  0049a	8b 4d f0	 mov	 ecx, DWORD PTR _this$[ebp]
  0049d	c7 41 4c 00 00
	00 00		 mov	 DWORD PTR [ecx+76], 0

; 175  : 	disable_old_style=FALSE;

  004a4	8b 55 f0	 mov	 edx, DWORD PTR _this$[ebp]
  004a7	c7 42 38 00 00
	00 00		 mov	 DWORD PTR [edx+56], 0

; 176  : 	m_selectcheck = -1;

  004ae	8b 45 f0	 mov	 eax, DWORD PTR _this$[ebp]
  004b1	c7 40 44 ff ff
	ff ff		 mov	 DWORD PTR [eax+68], -1

; 177  : 	m_unselectcheck = -1;

  004b8	8b 4d f0	 mov	 ecx, DWORD PTR _this$[ebp]
  004bb	c7 41 48 ff ff
	ff ff		 mov	 DWORD PTR [ecx+72], -1

; 178  : 	checkmaps=NULL;

  004c2	8b 55 f0	 mov	 edx, DWORD PTR _this$[ebp]
  004c5	c7 42 3c 00 00
	00 00		 mov	 DWORD PTR [edx+60], 0

; 179  : 	checkmapsshare=FALSE;

  004cc	8b 45 f0	 mov	 eax, DWORD PTR _this$[ebp]
  004cf	c7 40 40 00 00
	00 00		 mov	 DWORD PTR [eax+64], 0

; 180  : 	// set the color used for the transparent background in all bitmaps
; 181  : 	m_bitmapBackground=RGB(192,192,192); //gray

  004d6	8b 4d f0	 mov	 ecx, DWORD PTR _this$[ebp]
  004d9	c7 41 30 c0 c0
	c0 00		 mov	 DWORD PTR [ecx+48], 12632256 ; 00c0c0c0H

; 182  : 	m_bitmapBackgroundFlag=FALSE;

  004e0	8b 55 f0	 mov	 edx, DWORD PTR _this$[ebp]
  004e3	c7 42 34 00 00
	00 00		 mov	 DWORD PTR [edx+52], 0

; 183  : 	GetCPInfo(CP_ACP,&CPInfo);

  004ea	8b f4		 mov	 esi, esp
  004ec	68 00 00 00 00	 push	 OFFSET FLAT:_CPInfo
  004f1	6a 00		 push	 0
  004f3	ff 15 00 00 00
	00		 call	 DWORD PTR __imp__GetCPInfo@8
  004f9	3b f4		 cmp	 esi, esp
  004fb	e8 00 00 00 00	 call	 __RTC_CheckEsp

; 184  : 	m_loadmenu=FALSE;

  00500	8b 45 f0	 mov	 eax, DWORD PTR _this$[ebp]
  00503	c7 40 50 00 00
	00 00		 mov	 DWORD PTR [eax+80], 0

; 185  : 
; 186  : //added by vito--
; 187  : 	if(IsWinXPLuna())m_menuItemBitmapBkColor=GetSysColor(COLOR_3DFACE);

  0050a	e8 00 00 00 00	 call	 ?IsWinXPLuna@BCMenu@@KAHXZ ; BCMenu::IsWinXPLuna
  0050f	85 c0		 test	 eax, eax
  00511	74 19		 je	 SHORT $L187855
  00513	8b f4		 mov	 esi, esp
  00515	6a 0f		 push	 15			; 0000000fH
  00517	ff 15 00 00 00
	00		 call	 DWORD PTR __imp__GetSysColor@4
  0051d	3b f4		 cmp	 esi, esp
  0051f	e8 00 00 00 00	 call	 __RTC_CheckEsp
  00524	8b 4d f0	 mov	 ecx, DWORD PTR _this$[ebp]
  00527	89 41 58	 mov	 DWORD PTR [ecx+88], eax

; 188  : 	else m_menuItemBitmapBkColor=GetSysColor(COLOR_MENU);

  0052a	eb 17		 jmp	 SHORT $L187856
$L187855:
  0052c	8b f4		 mov	 esi, esp
  0052e	6a 04		 push	 4
  00530	ff 15 00 00 00
	00		 call	 DWORD PTR __imp__GetSysColor@4
  00536	3b f4		 cmp	 esi, esp
  00538	e8 00 00 00 00	 call	 __RTC_CheckEsp
  0053d	8b 55 f0	 mov	 edx, DWORD PTR _this$[ebp]
  00540	89 42 58	 mov	 DWORD PTR [edx+88], eax
$L187856:

; 189  : 
; 190  : 	m_menuItemBkColor=GetSysColor(COLOR_WINDOW);

  00543	8b f4		 mov	 esi, esp
  00545	6a 05		 push	 5
  00547	ff 15 00 00 00
	00		 call	 DWORD PTR __imp__GetSysColor@4
  0054d	3b f4		 cmp	 esi, esp
  0054f	e8 00 00 00 00	 call	 __RTC_CheckEsp
  00554	8b 4d f0	 mov	 ecx, DWORD PTR _this$[ebp]
  00557	89 41 54	 mov	 DWORD PTR [ecx+84], eax

; 191  : 	m_menuItemTextColor= GetSysColor(COLOR_MENUTEXT);

  0055a	8b f4		 mov	 esi, esp
  0055c	6a 07		 push	 7
  0055e	ff 15 00 00 00
	00		 call	 DWORD PTR __imp__GetSysColor@4
  00564	3b f4		 cmp	 esi, esp
  00566	e8 00 00 00 00	 call	 __RTC_CheckEsp
  0056b	8b 55 f0	 mov	 edx, DWORD PTR _this$[ebp]
  0056e	89 42 5c	 mov	 DWORD PTR [edx+92], eax

; 192  : 	m_menuItemSelectBKColor = GetSysColor(COLOR_HIGHLIGHT);

  00571	8b f4		 mov	 esi, esp
  00573	6a 0d		 push	 13			; 0000000dH
  00575	ff 15 00 00 00
	00		 call	 DWORD PTR __imp__GetSysColor@4
  0057b	3b f4		 cmp	 esi, esp
  0057d	e8 00 00 00 00	 call	 __RTC_CheckEsp
  00582	8b 4d f0	 mov	 ecx, DWORD PTR _this$[ebp]
  00585	89 41 60	 mov	 DWORD PTR [ecx+96], eax

; 193  : //==
; 194  : }

  00588	c7 45 fc ff ff
	ff ff		 mov	 DWORD PTR __$EHRec$[ebp+8], -1
  0058f	8b 45 f0	 mov	 eax, DWORD PTR _this$[ebp]
  00592	8b 4d f4	 mov	 ecx, DWORD PTR __$EHRec$[ebp]
  00595	64 89 0d 00 00
	00 00		 mov	 DWORD PTR fs:__except_list, ecx
  0059c	5e		 pop	 esi
  0059d	83 c4 10	 add	 esp, 16			; 00000010H
  005a0	3b ec		 cmp	 ebp, esp
  005a2	e8 00 00 00 00	 call	 __RTC_CheckEsp
  005a7	8b e5		 mov	 esp, ebp
  005a9	5d		 pop	 ebp
  005aa	c3		 ret	 0
_TEXT	ENDS
text$x	SEGMENT
$L192052:
  0001c	8b 4d f0	 mov	 ecx, DWORD PTR _this$[ebp]
  0001f	e9 00 00 00 00	 jmp	 ??1CMenu@@UAE@XZ	; CMenu::~CMenu
$L192053:
  00024	8b 4d f0	 mov	 ecx, DWORD PTR _this$[ebp]
  00027	83 c1 08	 add	 ecx, 8
  0002a	e9 00 00 00 00	 jmp	 ??1?$CTypedPtrArray@VCPtrArray@@PAVBCMenuData@@@@UAE@XZ
$L192054:
  0002f	8b 4d f0	 mov	 ecx, DWORD PTR _this$[ebp]
  00032	83 c1 1c	 add	 ecx, 28			; 0000001cH
  00035	e9 00 00 00 00	 jmp	 ??1?$CTypedPtrArray@VCPtrArray@@PAUHMENU__@@@@UAE@XZ
__ehhandler$??0BCMenu@@QAE@XZ:
  0003a	b8 00 00 00 00	 mov	 eax, OFFSET FLAT:$T192056
  0003f	e9 00 00 00 00	 jmp	 ___CxxFrameHandler
text$x	ENDS
??0BCMenu@@QAE@XZ ENDP					; BCMenu::BCMenu
PUBLIC	??_7?$CTypedPtrArray@VCPtrArray@@PAUHMENU__@@@@6B@ ; CTypedPtrArray<CPtrArray,HMENU__ *>::`vftable'
PUBLIC	??_G?$CTypedPtrArray@VCPtrArray@@PAUHMENU__@@@@UAEPAXI@Z ; CTypedPtrArray<CPtrArray,HMENU__ *>::`scalar deleting destructor'
PUBLIC	??_R1A@?0A@A@CPtrArray@@8			; CPtrArray::`RTTI Base Class Descriptor at (0,-1,0,0)'
PUBLIC	??_R0?AVCPtrArray@@@8				; CPtrArray `RTTI Type Descriptor'
PUBLIC	??_R4?$CTypedPtrArray@VCPtrArray@@PAUHMENU__@@@@6B@ ; CTypedPtrArray<CPtrArray,HMENU__ *>::`RTTI Complete Object Locator'
PUBLIC	??_R0?AV?$CTypedPtrArray@VCPtrArray@@PAUHMENU__@@@@@8 ; CTypedPtrArray<CPtrArray,HMENU__ *> `RTTI Type Descriptor'
PUBLIC	??_R3?$CTypedPtrArray@VCPtrArray@@PAUHMENU__@@@@8 ; CTypedPtrArray<CPtrArray,HMENU__ *>::`RTTI Class Hierarchy Descriptor'
PUBLIC	??_R2?$CTypedPtrArray@VCPtrArray@@PAUHMENU__@@@@8 ; CTypedPtrArray<CPtrArray,HMENU__ *>::`RTTI Base Class Array'
PUBLIC	??_R1A@?0A@A@?$CTypedPtrArray@VCPtrArray@@PAUHMENU__@@@@8 ; CTypedPtrArray<CPtrArray,HMENU__ *>::`RTTI Base Class Descriptor at (0,-1,0,0)'
EXTRN	??_E?$CTypedPtrArray@VCPtrArray@@PAUHMENU__@@@@UAEPAXI@Z:NEAR ; CTypedPtrArray<CPtrArray,HMENU__ *>::`vector deleting destructor'
EXTRN	?GetRuntimeClass@CPtrArray@@UBEPAUCRuntimeClass@@XZ:NEAR ; CPtrArray::GetRuntimeClass
EXTRN	??0CPtrArray@@QAE@XZ:NEAR			; CPtrArray::CPtrArray
EXTRN	?Dump@CPtrArray@@UBEXAAVCDumpContext@@@Z:NEAR	; CPtrArray::Dump
EXTRN	?AssertValid@CPtrArray@@UBEXXZ:NEAR		; CPtrArray::AssertValid
;	COMDAT ??_7?$CTypedPtrArray@VCPtrArray@@PAUHMENU__@@@@6B@
CONST	SEGMENT
??_7?$CTypedPtrArray@VCPtrArray@@PAUHMENU__@@@@6B@ DD FLAT:??_R4?$CTypedPtrArray@VCPtrArray@@PAUHMENU__@@@@6B@ ; CTypedPtrArray<CPtrArray,HMENU__ *>::`vftable'
	DD	FLAT:?GetRuntimeClass@CPtrArray@@UBEPAUCRuntimeClass@@XZ
	DD	FLAT:??_E?$CTypedPtrArray@VCPtrArray@@PAUHMENU__@@@@UAEPAXI@Z
	DD	FLAT:?Serialize@CObject@@UAEXAAVCArchive@@@Z
	DD	FLAT:?AssertValid@CPtrArray@@UBEXXZ
	DD	FLAT:?Dump@CPtrArray@@UBEXAAVCDumpContext@@@Z
CONST	ENDS
;	COMDAT ??_R4?$CTypedPtrArray@VCPtrArray@@PAUHMENU__@@@@6B@
rdata$r	SEGMENT
??_R4?$CTypedPtrArray@VCPtrArray@@PAUHMENU__@@@@6B@ DD 00H ; CTypedPtrArray<CPtrArray,HMENU__ *>::`RTTI Complete Object Locator'
	DD	00H
	DD	00H
	DD	FLAT:??_R0?AV?$CTypedPtrArray@VCPtrArray@@PAUHMENU__@@@@@8
	DD	FLAT:??_R3?$CTypedPtrArray@VCPtrArray@@PAUHMENU__@@@@8
rdata$r	ENDS
;	COMDAT ??_R0?AV?$CTypedPtrArray@VCPtrArray@@PAUHMENU__@@@@@8
_DATA	SEGMENT
??_R0?AV?$CTypedPtrArray@VCPtrArray@@PAUHMENU__@@@@@8 DD FLAT:??_7type_info@@6B@ ; CTypedPtrArray<CPtrArray,HMENU__ *> `RTTI Type Descriptor'
	DD	00H
	DB	'.?AV?$CTypedPtrArray@VCPtrArray@@PAUHMENU__@@@@', 00H
_DATA	ENDS
;	COMDAT ??_R3?$CTypedPtrArray@VCPtrArray@@PAUHMENU__@@@@8
rdata$r	SEGMENT
??_R3?$CTypedPtrArray@VCPtrArray@@PAUHMENU__@@@@8 DD 00H ; CTypedPtrArray<CPtrArray,HMENU__ *>::`RTTI Class Hierarchy Descriptor'
	DD	00H
	DD	03H
	DD	FLAT:??_R2?$CTypedPtrArray@VCPtrArray@@PAUHMENU__@@@@8
rdata$r	ENDS
;	COMDAT ??_R2?$CTypedPtrArray@VCPtrArray@@PAUHMENU__@@@@8
rdata$r	SEGMENT
??_R2?$CTypedPtrArray@VCPtrArray@@PAUHMENU__@@@@8 DD FLAT:??_R1A@?0A@A@?$CTypedPtrArray@VCPtrArray@@PAUHMENU__@@@@8 ; CTypedPtrArray<CPtrArray,HMENU__ *>::`RTTI Base Class Array'
	DD	FLAT:??_R1A@?0A@A@CPtrArray@@8
	DD	FLAT:??_R1A@?0A@A@CObject@@8
rdata$r	ENDS
;	COMDAT ??_R1A@?0A@A@?$CTypedPtrArray@VCPtrArray@@PAUHMENU__@@@@8
rdata$r	SEGMENT
??_R1A@?0A@A@?$CTypedPtrArray@VCPtrArray@@PAUHMENU__@@@@8 DD FLAT:??_R0?AV?$CTypedPtrArray@VCPtrArray@@PAUHMENU__@@@@@8 ; CTypedPtrArray<CPtrArray,HMENU__ *>::`RTTI Base Class Descriptor at (0,-1,0,0)'
	DD	02H
	DD	00H
	DD	0ffffffffH
	DD	00H
	DD	00H
rdata$r	ENDS
;	COMDAT ??_R1A@?0A@A@CPtrArray@@8
rdata$r	SEGMENT
??_R1A@?0A@A@CPtrArray@@8 DD FLAT:??_R0?AVCPtrArray@@@8	; CPtrArray::`RTTI Base Class Descriptor at (0,-1,0,0)'
	DD	01H
	DD	00H
	DD	0ffffffffH
	DD	00H
	DD	00H
rdata$r	ENDS
;	COMDAT ??_R0?AVCPtrArray@@@8
_DATA	SEGMENT
??_R0?AVCPtrArray@@@8 DD FLAT:??_7type_info@@6B@	; CPtrArray `RTTI Type Descriptor'
	DD	00H
	DB	'.?AVCPtrArray@@', 00H
; Function compile flags: /Odt /RTCsu
_DATA	ENDS
;	COMDAT ??0?$CTypedPtrArray@VCPtrArray@@PAUHMENU__@@@@QAE@XZ
_TEXT	SEGMENT
_this$ = -4						; size = 4
??0?$CTypedPtrArray@VCPtrArray@@PAUHMENU__@@@@QAE@XZ PROC NEAR ; CTypedPtrArray<CPtrArray,HMENU__ *>::CTypedPtrArray<CPtrArray,HMENU__ *>, COMDAT
; _this$ = ecx
  00000	55		 push	 ebp
  00001	8b ec		 mov	 ebp, esp
  00003	51		 push	 ecx
  00004	c7 45 fc cc cc
	cc cc		 mov	 DWORD PTR [ebp-4], -858993460 ; ccccccccH
  0000b	89 4d fc	 mov	 DWORD PTR _this$[ebp], ecx
  0000e	8b 4d fc	 mov	 ecx, DWORD PTR _this$[ebp]
  00011	e8 00 00 00 00	 call	 ??0CPtrArray@@QAE@XZ	; CPtrArray::CPtrArray
  00016	8b 45 fc	 mov	 eax, DWORD PTR _this$[ebp]
  00019	c7 00 00 00 00
	00		 mov	 DWORD PTR [eax], OFFSET FLAT:??_7?$CTypedPtrArray@VCPtrArray@@PAUHMENU__@@@@6B@
  0001f	8b 45 fc	 mov	 eax, DWORD PTR _this$[ebp]
  00022	83 c4 04	 add	 esp, 4
  00025	3b ec		 cmp	 ebp, esp
  00027	e8 00 00 00 00	 call	 __RTC_CheckEsp
  0002c	8b e5		 mov	 esp, ebp
  0002e	5d		 pop	 ebp
  0002f	c3		 ret	 0
??0?$CTypedPtrArray@VCPtrArray@@PAUHMENU__@@@@QAE@XZ ENDP ; CTypedPtrArray<CPtrArray,HMENU__ *>::CTypedPtrArray<CPtrArray,HMENU__ *>
_TEXT	ENDS
EXTRN	??1CPtrArray@@UAE@XZ:NEAR			; CPtrArray::~CPtrArray
; Function compile flags: /Odt /RTCsu
;	COMDAT ??1?$CTypedPtrArray@VCPtrArray@@PAUHMENU__@@@@UAE@XZ
_TEXT	SEGMENT
_this$ = -4						; size = 4
??1?$CTypedPtrArray@VCPtrArray@@PAUHMENU__@@@@UAE@XZ PROC NEAR ; CTypedPtrArray<CPtrArray,HMENU__ *>::~CTypedPtrArray<CPtrArray,HMENU__ *>, COMDAT
; _this$ = ecx
  00000	55		 push	 ebp
  00001	8b ec		 mov	 ebp, esp
  00003	51		 push	 ecx
  00004	c7 45 fc cc cc
	cc cc		 mov	 DWORD PTR [ebp-4], -858993460 ; ccccccccH
  0000b	89 4d fc	 mov	 DWORD PTR _this$[ebp], ecx
  0000e	8b 4d fc	 mov	 ecx, DWORD PTR _this$[ebp]
  00011	e8 00 00 00 00	 call	 ??1CPtrArray@@UAE@XZ	; CPtrArray::~CPtrArray
  00016	83 c4 04	 add	 esp, 4
  00019	3b ec		 cmp	 ebp, esp
  0001b	e8 00 00 00 00	 call	 __RTC_CheckEsp
  00020	8b e5		 mov	 esp, ebp
  00022	5d		 pop	 ebp
  00023	c3		 ret	 0
??1?$CTypedPtrArray@VCPtrArray@@PAUHMENU__@@@@UAE@XZ ENDP ; CTypedPtrArray<CPtrArray,HMENU__ *>::~CTypedPtrArray<CPtrArray,HMENU__ *>
_TEXT	ENDS
EXTRN	??3CObject@@SGXPAX@Z:NEAR			; CObject::operator delete
; Function compile flags: /Odt /RTCsu
;	COMDAT ??_G?$CTypedPtrArray@VCPtrArray@@PAUHMENU__@@@@UAEPAXI@Z
_TEXT	SEGMENT
_this$ = -4						; size = 4
___flags$ = 8						; size = 4
??_G?$CTypedPtrArray@VCPtrArray@@PAUHMENU__@@@@UAEPAXI@Z PROC NEAR ; CTypedPtrArray<CPtrArray,HMENU__ *>::`scalar deleting destructor', COMDAT
; _this$ = ecx
  00000	55		 push	 ebp
  00001	8b ec		 mov	 ebp, esp
  00003	51		 push	 ecx
  00004	c7 45 fc cc cc
	cc cc		 mov	 DWORD PTR [ebp-4], -858993460 ; ccccccccH
  0000b	89 4d fc	 mov	 DWORD PTR _this$[ebp], ecx
  0000e	8b 4d fc	 mov	 ecx, DWORD PTR _this$[ebp]
  00011	e8 00 00 00 00	 call	 ??1?$CTypedPtrArray@VCPtrArray@@PAUHMENU__@@@@UAE@XZ
  00016	8b 45 08	 mov	 eax, DWORD PTR ___flags$[ebp]
  00019	83 e0 01	 and	 eax, 1
  0001c	74 09		 je	 SHORT $L187836
  0001e	8b 4d fc	 mov	 ecx, DWORD PTR _this$[ebp]
  00021	51		 push	 ecx
  00022	e8 00 00 00 00	 call	 ??3CObject@@SGXPAX@Z	; CObject::operator delete
$L187836:
  00027	8b 45 fc	 mov	 eax, DWORD PTR _this$[ebp]
  0002a	83 c4 04	 add	 esp, 4
  0002d	3b ec		 cmp	 ebp, esp
  0002f	e8 00 00 00 00	 call	 __RTC_CheckEsp
  00034	8b e5		 mov	 esp, ebp
  00036	5d		 pop	 ebp
  00037	c2 04 00	 ret	 4
??_G?$CTypedPtrArray@VCPtrArray@@PAUHMENU__@@@@UAEPAXI@Z ENDP ; CTypedPtrArray<CPtrArray,HMENU__ *>::`scalar deleting destructor'
_TEXT	ENDS
PUBLIC	??1BCMenu@@UAE@XZ				; BCMenu::~BCMenu
; Function compile flags: /Odt /RTCsu
;	COMDAT ??_GBCMenu@@UAEPAXI@Z
_TEXT	SEGMENT
_this$ = -4						; size = 4
___flags$ = 8						; size = 4
??_GBCMenu@@UAEPAXI@Z PROC NEAR				; BCMenu::`scalar deleting destructor', COMDAT
; _this$ = ecx
  00000	55		 push	 ebp
  00001	8b ec		 mov	 ebp, esp
  00003	51		 push	 ecx
  00004	c7 45 fc cc cc
	cc cc		 mov	 DWORD PTR [ebp-4], -858993460 ; ccccccccH
  0000b	89 4d fc	 mov	 DWORD PTR _this$[ebp], ecx
  0000e	8b 4d fc	 mov	 ecx, DWORD PTR _this$[ebp]
  00011	e8 00 00 00 00	 call	 ??1BCMenu@@UAE@XZ	; BCMenu::~BCMenu
  00016	8b 45 08	 mov	 eax, DWORD PTR ___flags$[ebp]
  00019	83 e0 01	 and	 eax, 1
  0001c	74 09		 je	 SHORT $L187860
  0001e	8b 4d fc	 mov	 ecx, DWORD PTR _this$[ebp]
  00021	51		 push	 ecx
  00022	e8 00 00 00 00	 call	 ??3CObject@@SGXPAX@Z	; CObject::operator delete
$L187860:
  00027	8b 45 fc	 mov	 eax, DWORD PTR _this$[ebp]
  0002a	83 c4 04	 add	 esp, 4
  0002d	3b ec		 cmp	 ebp, esp
  0002f	e8 00 00 00 00	 call	 __RTC_CheckEsp
  00034	8b e5		 mov	 esp, ebp
  00036	5d		 pop	 ebp
  00037	c2 04 00	 ret	 4
??_GBCMenu@@UAEPAXI@Z ENDP				; BCMenu::`scalar deleting destructor'
_TEXT	ENDS
PUBLIC	??_7?$CTypedPtrArray@VCPtrArray@@PAVBCMenuData@@@@6B@ ; CTypedPtrArray<CPtrArray,BCMenuData *>::`vftable'
PUBLIC	??_G?$CTypedPtrArray@VCPtrArray@@PAVBCMenuData@@@@UAEPAXI@Z ; CTypedPtrArray<CPtrArray,BCMenuData *>::`scalar deleting destructor'
PUBLIC	??_R4?$CTypedPtrArray@VCPtrArray@@PAVBCMenuData@@@@6B@ ; CTypedPtrArray<CPtrArray,BCMenuData *>::`RTTI Complete Object Locator'
PUBLIC	??_R0?AV?$CTypedPtrArray@VCPtrArray@@PAVBCMenuData@@@@@8 ; CTypedPtrArray<CPtrArray,BCMenuData *> `RTTI Type Descriptor'
PUBLIC	??_R3?$CTypedPtrArray@VCPtrArray@@PAVBCMenuData@@@@8 ; CTypedPtrArray<CPtrArray,BCMenuData *>::`RTTI Class Hierarchy Descriptor'
PUBLIC	??_R2?$CTypedPtrArray@VCPtrArray@@PAVBCMenuData@@@@8 ; CTypedPtrArray<CPtrArray,BCMenuData *>::`RTTI Base Class Array'
PUBLIC	??_R1A@?0A@A@?$CTypedPtrArray@VCPtrArray@@PAVBCMenuData@@@@8 ; CTypedPtrArray<CPtrArray,BCMenuData *>::`RTTI Base Class Descriptor at (0,-1,0,0)'
EXTRN	??_E?$CTypedPtrArray@VCPtrArray@@PAVBCMenuData@@@@UAEPAXI@Z:NEAR ; CTypedPtrArray<CPtrArray,BCMenuData *>::`vector deleting destructor'
;	COMDAT ??_7?$CTypedPtrArray@VCPtrArray@@PAVBCMenuData@@@@6B@
CONST	SEGMENT
??_7?$CTypedPtrArray@VCPtrArray@@PAVBCMenuData@@@@6B@ DD FLAT:??_R4?$CTypedPtrArray@VCPtrArray@@PAVBCMenuData@@@@6B@ ; CTypedPtrArray<CPtrArray,BCMenuData *>::`vftable'
	DD	FLAT:?GetRuntimeClass@CPtrArray@@UBEPAUCRuntimeClass@@XZ
	DD	FLAT:??_E?$CTypedPtrArray@VCPtrArray@@PAVBCMenuData@@@@UAEPAXI@Z
	DD	FLAT:?Serialize@CObject@@UAEXAAVCArchive@@@Z
	DD	FLAT:?AssertValid@CPtrArray@@UBEXXZ
	DD	FLAT:?Dump@CPtrArray@@UBEXAAVCDumpContext@@@Z
CONST	ENDS
;	COMDAT ??_R4?$CTypedPtrArray@VCPtrArray@@PAVBCMenuData@@@@6B@
rdata$r	SEGMENT
??_R4?$CTypedPtrArray@VCPtrArray@@PAVBCMenuData@@@@6B@ DD 00H ; CTypedPtrArray<CPtrArray,BCMenuData *>::`RTTI Complete Object Locator'
	DD	00H
	DD	00H
	DD	FLAT:??_R0?AV?$CTypedPtrArray@VCPtrArray@@PAVBCMenuData@@@@@8
	DD	FLAT:??_R3?$CTypedPtrArray@VCPtrArray@@PAVBCMenuData@@@@8
rdata$r	ENDS
;	COMDAT ??_R0?AV?$CTypedPtrArray@VCPtrArray@@PAVBCMenuData@@@@@8
_DATA	SEGMENT
??_R0?AV?$CTypedPtrArray@VCPtrArray@@PAVBCMenuData@@@@@8 DD FLAT:??_7type_info@@6B@ ; CTypedPtrArray<CPtrArray,BCMenuData *> `RTTI Type Descriptor'
	DD	00H
	DB	'.?AV?$CTypedPtrArray@VCPtrArray@@PAVBCMenuData@@@@', 00H
_DATA	ENDS
;	COMDAT ??_R3?$CTypedPtrArray@VCPtrArray@@PAVBCMenuData@@@@8
rdata$r	SEGMENT
??_R3?$CTypedPtrArray@VCPtrArray@@PAVBCMenuData@@@@8 DD 00H ; CTypedPtrArray<CPtrArray,BCMenuData *>::`RTTI Class Hierarchy Descriptor'
	DD	00H
	DD	03H
	DD	FLAT:??_R2?$CTypedPtrArray@VCPtrArray@@PAVBCMenuData@@@@8
rdata$r	ENDS
;	COMDAT ??_R2?$CTypedPtrArray@VCPtrArray@@PAVBCMenuData@@@@8
rdata$r	SEGMENT
??_R2?$CTypedPtrArray@VCPtrArray@@PAVBCMenuData@@@@8 DD FLAT:??_R1A@?0A@A@?$CTypedPtrArray@VCPtrArray@@PAVBCMenuData@@@@8 ; CTypedPtrArray<CPtrArray,BCMenuData *>::`RTTI Base Class Array'
	DD	FLAT:??_R1A@?0A@A@CPtrArray@@8
	DD	FLAT:??_R1A@?0A@A@CObject@@8
rdata$r	ENDS
;	COMDAT ??_R1A@?0A@A@?$CTypedPtrArray@VCPtrArray@@PAVBCMenuData@@@@8
rdata$r	SEGMENT
??_R1A@?0A@A@?$CTypedPtrArray@VCPtrArray@@PAVBCMenuData@@@@8 DD FLAT:??_R0?AV?$CTypedPtrArray@VCPtrArray@@PAVBCMenuData@@@@@8 ; CTypedPtrArray<CPtrArray,BCMenuData *>::`RTTI Base Class Descriptor at (0,-1,0,0)'
	DD	02H
	DD	00H
	DD	0ffffffffH
	DD	00H
	DD	00H
; Function compile flags: /Odt /RTCsu
rdata$r	ENDS
;	COMDAT ??0?$CTypedPtrArray@VCPtrArray@@PAVBCMenuData@@@@QAE@XZ
_TEXT	SEGMENT
_this$ = -4						; size = 4
??0?$CTypedPtrArray@VCPtrArray@@PAVBCMenuData@@@@QAE@XZ PROC NEAR ; CTypedPtrArray<CPtrArray,BCMenuData *>::CTypedPtrArray<CPtrArray,BCMenuData *>, COMDAT
; _this$ = ecx
  00000	55		 push	 ebp
  00001	8b ec		 mov	 ebp, esp
  00003	51		 push	 ecx
  00004	c7 45 fc cc cc
	cc cc		 mov	 DWORD PTR [ebp-4], -858993460 ; ccccccccH
  0000b	89 4d fc	 mov	 DWORD PTR _this$[ebp], ecx
  0000e	8b 4d fc	 mov	 ecx, DWORD PTR _this$[ebp]
  00011	e8 00 00 00 00	 call	 ??0CPtrArray@@QAE@XZ	; CPtrArray::CPtrArray
  00016	8b 45 fc	 mov	 eax, DWORD PTR _this$[ebp]
  00019	c7 00 00 00 00
	00		 mov	 DWORD PTR [eax], OFFSET FLAT:??_7?$CTypedPtrArray@VCPtrArray@@PAVBCMenuData@@@@6B@
  0001f	8b 45 fc	 mov	 eax, DWORD PTR _this$[ebp]
  00022	83 c4 04	 add	 esp, 4
  00025	3b ec		 cmp	 ebp, esp
  00027	e8 00 00 00 00	 call	 __RTC_CheckEsp
  0002c	8b e5		 mov	 esp, ebp
  0002e	5d		 pop	 ebp
  0002f	c3		 ret	 0
??0?$CTypedPtrArray@VCPtrArray@@PAVBCMenuData@@@@QAE@XZ ENDP ; CTypedPtrArray<CPtrArray,BCMenuData *>::CTypedPtrArray<CPtrArray,BCMenuData *>
; Function compile flags: /Odt /RTCsu
_TEXT	ENDS
;	COMDAT ??1?$CTypedPtrArray@VCPtrArray@@PAVBCMenuData@@@@UAE@XZ
_TEXT	SEGMENT
_this$ = -4						; size = 4
??1?$CTypedPtrArray@VCPtrArray@@PAVBCMenuData@@@@UAE@XZ PROC NEAR ; CTypedPtrArray<CPtrArray,BCMenuData *>::~CTypedPtrArray<CPtrArray,BCMenuData *>, COMDAT
; _this$ = ecx
  00000	55		 push	 ebp
  00001	8b ec		 mov	 ebp, esp
  00003	51		 push	 ecx
  00004	c7 45 fc cc cc
	cc cc		 mov	 DWORD PTR [ebp-4], -858993460 ; ccccccccH
  0000b	89 4d fc	 mov	 DWORD PTR _this$[ebp], ecx
  0000e	8b 4d fc	 mov	 ecx, DWORD PTR _this$[ebp]
  00011	e8 00 00 00 00	 call	 ??1CPtrArray@@UAE@XZ	; CPtrArray::~CPtrArray
  00016	83 c4 04	 add	 esp, 4
  00019	3b ec		 cmp	 ebp, esp
  0001b	e8 00 00 00 00	 call	 __RTC_CheckEsp
  00020	8b e5		 mov	 esp, ebp
  00022	5d		 pop	 ebp
  00023	c3		 ret	 0
??1?$CTypedPtrArray@VCPtrArray@@PAVBCMenuData@@@@UAE@XZ ENDP ; CTypedPtrArray<CPtrArray,BCMenuData *>::~CTypedPtrArray<CPtrArray,BCMenuData *>
; Function compile flags: /Odt /RTCsu
_TEXT	ENDS
;	COMDAT ??_G?$CTypedPtrArray@VCPtrArray@@PAVBCMenuData@@@@UAEPAXI@Z
_TEXT	SEGMENT
_this$ = -4						; size = 4
___flags$ = 8						; size = 4
??_G?$CTypedPtrArray@VCPtrArray@@PAVBCMenuData@@@@UAEPAXI@Z PROC NEAR ; CTypedPtrArray<CPtrArray,BCMenuData *>::`scalar deleting destructor', COMDAT
; _this$ = ecx
  00000	55		 push	 ebp
  00001	8b ec		 mov	 ebp, esp
  00003	51		 push	 ecx
  00004	c7 45 fc cc cc
	cc cc		 mov	 DWORD PTR [ebp-4], -858993460 ; ccccccccH
  0000b	89 4d fc	 mov	 DWORD PTR _this$[ebp], ecx
  0000e	8b 4d fc	 mov	 ecx, DWORD PTR _this$[ebp]
  00011	e8 00 00 00 00	 call	 ??1?$CTypedPtrArray@VCPtrArray@@PAVBCMenuData@@@@UAE@XZ
  00016	8b 45 08	 mov	 eax, DWORD PTR ___flags$[ebp]
  00019	83 e0 01	 and	 eax, 1
  0001c	74 09		 je	 SHORT $L187868
  0001e	8b 4d fc	 mov	 ecx, DWORD PTR _this$[ebp]
  00021	51		 push	 ecx
  00022	e8 00 00 00 00	 call	 ??3CObject@@SGXPAX@Z	; CObject::operator delete
$L187868:
  00027	8b 45 fc	 mov	 eax, DWORD PTR _this$[ebp]
  0002a	83 c4 04	 add	 esp, 4
  0002d	3b ec		 cmp	 ebp, esp
  0002f	e8 00 00 00 00	 call	 __RTC_CheckEsp
  00034	8b e5		 mov	 esp, ebp
  00036	5d		 pop	 ebp
  00037	c2 04 00	 ret	 4
??_G?$CTypedPtrArray@VCPtrArray@@PAVBCMenuData@@@@UAEPAXI@Z ENDP ; CTypedPtrArray<CPtrArray,BCMenuData *>::`scalar deleting destructor'
_TEXT	ENDS
xdata$x	SEGMENT
$T192077 DD	0ffffffffH
	DD	FLAT:$L192071
	DD	00H
	DD	FLAT:$L192072
	DD	01H
	DD	FLAT:$L192073
$T192075 DD	019930520H
	DD	03H
	DD	FLAT:$T192077
	DD	2 DUP(00H)
	DD	2 DUP(00H)
; Function compile flags: /Odt /RTCsu
xdata$x	ENDS
_TEXT	SEGMENT
_this$ = -16						; size = 4
__$EHRec$ = -12						; size = 12
??1BCMenu@@UAE@XZ PROC NEAR				; BCMenu::~BCMenu
; _this$ = ecx

; 197  : {

  005b0	55		 push	 ebp
  005b1	8b ec		 mov	 ebp, esp
  005b3	6a ff		 push	 -1
  005b5	68 00 00 00 00	 push	 __ehhandler$??1BCMenu@@UAE@XZ
  005ba	64 a1 00 00 00
	00		 mov	 eax, DWORD PTR fs:__except_list
  005c0	50		 push	 eax
  005c1	64 89 25 00 00
	00 00		 mov	 DWORD PTR fs:__except_list, esp
  005c8	51		 push	 ecx
  005c9	c7 45 f0 cc cc
	cc cc		 mov	 DWORD PTR [ebp-16], -858993460 ; ccccccccH
  005d0	89 4d f0	 mov	 DWORD PTR _this$[ebp], ecx
  005d3	8b 45 f0	 mov	 eax, DWORD PTR _this$[ebp]
  005d6	c7 00 00 00 00
	00		 mov	 DWORD PTR [eax], OFFSET FLAT:??_7BCMenu@@6B@
  005dc	c7 45 fc 02 00
	00 00		 mov	 DWORD PTR __$EHRec$[ebp+8], 2

; 198  : 	DestroyMenu();

  005e3	8b 4d f0	 mov	 ecx, DWORD PTR _this$[ebp]
  005e6	e8 00 00 00 00	 call	 ?DestroyMenu@BCMenu@@UAEHXZ ; BCMenu::DestroyMenu

; 199  : }

  005eb	c6 45 fc 01	 mov	 BYTE PTR __$EHRec$[ebp+8], 1
  005ef	8b 4d f0	 mov	 ecx, DWORD PTR _this$[ebp]
  005f2	83 c1 1c	 add	 ecx, 28			; 0000001cH
  005f5	e8 00 00 00 00	 call	 ??1?$CTypedPtrArray@VCPtrArray@@PAUHMENU__@@@@UAE@XZ
  005fa	c6 45 fc 00	 mov	 BYTE PTR __$EHRec$[ebp+8], 0
  005fe	8b 4d f0	 mov	 ecx, DWORD PTR _this$[ebp]
  00601	83 c1 08	 add	 ecx, 8
  00604	e8 00 00 00 00	 call	 ??1?$CTypedPtrArray@VCPtrArray@@PAVBCMenuData@@@@UAE@XZ
  00609	c7 45 fc ff ff
	ff ff		 mov	 DWORD PTR __$EHRec$[ebp+8], -1
  00610	8b 4d f0	 mov	 ecx, DWORD PTR _this$[ebp]
  00613	e8 00 00 00 00	 call	 ??1CMenu@@UAE@XZ	; CMenu::~CMenu
  00618	8b 4d f4	 mov	 ecx, DWORD PTR __$EHRec$[ebp]
  0061b	64 89 0d 00 00
	00 00		 mov	 DWORD PTR fs:__except_list, ecx
  00622	83 c4 10	 add	 esp, 16			; 00000010H
  00625	3b ec		 cmp	 ebp, esp
  00627	e8 00 00 00 00	 call	 __RTC_CheckEsp
  0062c	8b e5		 mov	 esp, ebp
  0062e	5d		 pop	 ebp
  0062f	c3		 ret	 0
_TEXT	ENDS
text$x	SEGMENT
$L192071:
  00044	8b 4d f0	 mov	 ecx, DWORD PTR _this$[ebp]
  00047	e9 00 00 00 00	 jmp	 ??1CMenu@@UAE@XZ	; CMenu::~CMenu
$L192072:
  0004c	8b 4d f0	 mov	 ecx, DWORD PTR _this$[ebp]
  0004f	83 c1 08	 add	 ecx, 8
  00052	e9 00 00 00 00	 jmp	 ??1?$CTypedPtrArray@VCPtrArray@@PAVBCMenuData@@@@UAE@XZ
$L192073:
  00057	8b 4d f0	 mov	 ecx, DWORD PTR _this$[ebp]
  0005a	83 c1 1c	 add	 ecx, 28			; 0000001cH
  0005d	e9 00 00 00 00	 jmp	 ??1?$CTypedPtrArray@VCPtrArray@@PAUHMENU__@@@@UAE@XZ
__ehhandler$??1BCMenu@@UAE@XZ:
  00062	b8 00 00 00 00	 mov	 eax, OFFSET FLAT:$T192075
  00067	e9 00 00 00 00	 jmp	 ___CxxFrameHandler
text$x	ENDS
??1BCMenu@@UAE@XZ ENDP					; BCMenu::~BCMenu
PUBLIC	?IsNewShell@BCMenu@@KAHXZ			; BCMenu::IsNewShell
; Function compile flags: /Odt /RTCsu
_TEXT	SEGMENT
?IsNewShell@BCMenu@@KAHXZ PROC NEAR			; BCMenu::IsNewShell

; 202  : {

  00630	55		 push	 ebp
  00631	8b ec		 mov	 ebp, esp

; 203  : 	return (g_Shell>=Win95);

  00633	33 c0		 xor	 eax, eax
  00635	83 3d 00 00 00
	00 02		 cmp	 DWORD PTR _g_Shell, 2
  0063c	0f 9d c0	 setge	 al

; 204  : }

  0063f	5d		 pop	 ebp
  00640	c3		 ret	 0
?IsNewShell@BCMenu@@KAHXZ ENDP				; BCMenu::IsNewShell
_TEXT	ENDS
PUBLIC	?IsWindowsClassicTheme@BCMenu@@KAHXZ		; BCMenu::IsWindowsClassicTheme
; Function compile flags: /Odt /RTCsu
_TEXT	SEGMENT
?IsWinXPLuna@BCMenu@@KAHXZ PROC NEAR			; BCMenu::IsWinXPLuna

; 207  : {

  00650	55		 push	 ebp
  00651	8b ec		 mov	 ebp, esp

; 208  : 	if(g_Shell==WinXP){

  00653	83 3d 00 00 00
	00 07		 cmp	 DWORD PTR _g_Shell, 7
  0065a	75 14		 jne	 SHORT $L187876

; 209  : 		if(IsWindowsClassicTheme())return(FALSE);

  0065c	e8 00 00 00 00	 call	 ?IsWindowsClassicTheme@BCMenu@@KAHXZ ; BCMenu::IsWindowsClassicTheme
  00661	85 c0		 test	 eax, eax
  00663	74 04		 je	 SHORT $L187877
  00665	33 c0		 xor	 eax, eax
  00667	eb 09		 jmp	 SHORT $L187875
$L187877:

; 210  : 		else return(TRUE);

  00669	b8 01 00 00 00	 mov	 eax, 1
  0066e	eb 02		 jmp	 SHORT $L187875
$L187876:

; 211  : 	}
; 212  : 	return(FALSE);

  00670	33 c0		 xor	 eax, eax
$L187875:

; 213  : }

  00672	3b ec		 cmp	 ebp, esp
  00674	e8 00 00 00 00	 call	 __RTC_CheckEsp
  00679	5d		 pop	 ebp
  0067a	c3		 ret	 0
?IsWinXPLuna@BCMenu@@KAHXZ ENDP				; BCMenu::IsWinXPLuna
_TEXT	ENDS
PUBLIC	?IsLunaMenuStyle@BCMenu@@KAHXZ			; BCMenu::IsLunaMenuStyle
; Function compile flags: /Odt /RTCsu
_TEXT	SEGMENT
?IsLunaMenuStyle@BCMenu@@KAHXZ PROC NEAR		; BCMenu::IsLunaMenuStyle

; 216  : {

  00680	55		 push	 ebp
  00681	8b ec		 mov	 ebp, esp

; 217  : 	if(IsWinXPLuna()){

  00683	e8 00 00 00 00	 call	 ?IsWinXPLuna@BCMenu@@KAHXZ ; BCMenu::IsWinXPLuna
  00688	85 c0		 test	 eax, eax
  0068a	74 12		 je	 SHORT $L187881

; 218  : 		if(xp_drawmode==BCMENU_DRAWMODE_XP)return(TRUE);

  0068c	83 3d 00 00 00
	00 01		 cmp	 DWORD PTR ?xp_drawmode@BCMenu@@1IA, 1 ; BCMenu::xp_drawmode
  00693	75 07		 jne	 SHORT $L187882
  00695	b8 01 00 00 00	 mov	 eax, 1
  0069a	eb 14		 jmp	 SHORT $L187880
$L187882:

; 219  : 	}
; 220  : 	else{

  0069c	eb 10		 jmp	 SHORT $L187883
$L187881:

; 221  : 		if(original_drawmode==BCMENU_DRAWMODE_XP)return(TRUE);

  0069e	83 3d 00 00 00
	00 01		 cmp	 DWORD PTR ?original_drawmode@BCMenu@@1IA, 1 ; BCMenu::original_drawmode
  006a5	75 07		 jne	 SHORT $L187883
  006a7	b8 01 00 00 00	 mov	 eax, 1
  006ac	eb 02		 jmp	 SHORT $L187880
$L187883:

; 222  : 	}
; 223  : 	return(FALSE);

  006ae	33 c0		 xor	 eax, eax
$L187880:

; 224  : }

  006b0	3b ec		 cmp	 ebp, esp
  006b2	e8 00 00 00 00	 call	 __RTC_CheckEsp
  006b7	5d		 pop	 ebp
  006b8	c3		 ret	 0
?IsLunaMenuStyle@BCMenu@@KAHXZ ENDP			; BCMenu::IsLunaMenuStyle
_TEXT	ENDS
PUBLIC	??1BCMenuData@@QAE@XZ				; BCMenuData::~BCMenuData
; Function compile flags: /Odt /RTCsu
_TEXT	SEGMENT
tv73 = -20						; size = 4
$T192086 = -16						; size = 4
$T192083 = -12						; size = 4
$T192082 = -8						; size = 4
_this$ = -4						; size = 4
??1BCMenuData@@QAE@XZ PROC NEAR				; BCMenuData::~BCMenuData
; _this$ = ecx

; 227  : {

  006c0	55		 push	 ebp
  006c1	8b ec		 mov	 ebp, esp
  006c3	83 ec 14	 sub	 esp, 20			; 00000014H
  006c6	56		 push	 esi
  006c7	b8 cc cc cc cc	 mov	 eax, -858993460		; ccccccccH
  006cc	89 45 ec	 mov	 DWORD PTR [ebp-20], eax
  006cf	89 45 f0	 mov	 DWORD PTR [ebp-16], eax
  006d2	89 45 f4	 mov	 DWORD PTR [ebp-12], eax
  006d5	89 45 f8	 mov	 DWORD PTR [ebp-8], eax
  006d8	89 45 fc	 mov	 DWORD PTR [ebp-4], eax
  006db	89 4d fc	 mov	 DWORD PTR _this$[ebp], ecx

; 228  : 	if(bitmap)

  006de	8b 45 fc	 mov	 eax, DWORD PTR _this$[ebp]
  006e1	83 78 1c 00	 cmp	 DWORD PTR [eax+28], 0
  006e5	74 37		 je	 SHORT $L187888

; 229  : 		delete(bitmap);

  006e7	8b 4d fc	 mov	 ecx, DWORD PTR _this$[ebp]
  006ea	8b 51 1c	 mov	 edx, DWORD PTR [ecx+28]
  006ed	89 55 f4	 mov	 DWORD PTR $T192083[ebp], edx
  006f0	8b 45 f4	 mov	 eax, DWORD PTR $T192083[ebp]
  006f3	89 45 f8	 mov	 DWORD PTR $T192082[ebp], eax
  006f6	83 7d f8 00	 cmp	 DWORD PTR $T192082[ebp], 0
  006fa	74 1b		 je	 SHORT $L192084
  006fc	8b f4		 mov	 esi, esp
  006fe	6a 01		 push	 1
  00700	8b 4d f8	 mov	 ecx, DWORD PTR $T192082[ebp]
  00703	8b 11		 mov	 edx, DWORD PTR [ecx]
  00705	8b 4d f8	 mov	 ecx, DWORD PTR $T192082[ebp]
  00708	ff 52 04	 call	 DWORD PTR [edx+4]
  0070b	3b f4		 cmp	 esi, esp
  0070d	e8 00 00 00 00	 call	 __RTC_CheckEsp
  00712	89 45 ec	 mov	 DWORD PTR tv73[ebp], eax
  00715	eb 07		 jmp	 SHORT $L187888
$L192084:
  00717	c7 45 ec 00 00
	00 00		 mov	 DWORD PTR tv73[ebp], 0
$L187888:

; 230  : 	
; 231  : 	delete[] m_szMenuText; //Need not check for NULL because ANSI X3J16 allows "delete NULL"

  0071e	8b 45 fc	 mov	 eax, DWORD PTR _this$[ebp]
  00721	8b 08		 mov	 ecx, DWORD PTR [eax]
  00723	89 4d f0	 mov	 DWORD PTR $T192086[ebp], ecx
  00726	8b 55 f0	 mov	 edx, DWORD PTR $T192086[ebp]
  00729	52		 push	 edx
  0072a	e8 00 00 00 00	 call	 ??_V@YAXPAX@Z		; operator delete[]
  0072f	83 c4 04	 add	 esp, 4

; 232  : }

  00732	5e		 pop	 esi
  00733	83 c4 14	 add	 esp, 20			; 00000014H
  00736	3b ec		 cmp	 ebp, esp
  00738	e8 00 00 00 00	 call	 __RTC_CheckEsp
  0073d	8b e5		 mov	 esp, ebp
  0073f	5d		 pop	 ebp
  00740	c3		 ret	 0
??1BCMenuData@@QAE@XZ ENDP				; BCMenuData::~BCMenuData
_TEXT	ENDS
EXTRN	__imp__wcscpy:NEAR
EXTRN	__imp__wcslen:NEAR
; Function compile flags: /Odt /RTCsu
_TEXT	SEGMENT
$T192089 = -12						; size = 4
$T192088 = -8						; size = 4
_this$ = -4						; size = 4
_szWideString$ = 8					; size = 4
?SetWideString@BCMenuData@@QAEXPB_W@Z PROC NEAR		; BCMenuData::SetWideString
; _this$ = ecx

; 236  : {

  00750	55		 push	 ebp
  00751	8b ec		 mov	 ebp, esp
  00753	83 ec 0c	 sub	 esp, 12			; 0000000cH
  00756	56		 push	 esi
  00757	c7 45 f4 cc cc
	cc cc		 mov	 DWORD PTR [ebp-12], -858993460 ; ccccccccH
  0075e	c7 45 f8 cc cc
	cc cc		 mov	 DWORD PTR [ebp-8], -858993460 ; ccccccccH
  00765	c7 45 fc cc cc
	cc cc		 mov	 DWORD PTR [ebp-4], -858993460 ; ccccccccH
  0076c	89 4d fc	 mov	 DWORD PTR _this$[ebp], ecx

; 237  : 	delete[] m_szMenuText;//Need not check for NULL because ANSI X3J16 allows "delete NULL"

  0076f	8b 45 fc	 mov	 eax, DWORD PTR _this$[ebp]
  00772	8b 08		 mov	 ecx, DWORD PTR [eax]
  00774	89 4d f8	 mov	 DWORD PTR $T192088[ebp], ecx
  00777	8b 55 f8	 mov	 edx, DWORD PTR $T192088[ebp]
  0077a	52		 push	 edx
  0077b	e8 00 00 00 00	 call	 ??_V@YAXPAX@Z		; operator delete[]
  00780	83 c4 04	 add	 esp, 4

; 238  : 	
; 239  : 	if (szWideString)

  00783	83 7d 08 00	 cmp	 DWORD PTR _szWideString$[ebp], 0
  00787	74 60		 je	 SHORT $L187897

; 240  :     {
; 241  : 		m_szMenuText = new wchar_t[sizeof(wchar_t)*(wcslen(szWideString)+1)];

  00789	68 f1 00 00 00	 push	 241			; 000000f1H
  0078e	68 00 00 00 00	 push	 OFFSET FLAT:_THIS_FILE
  00793	8b f4		 mov	 esi, esp
  00795	8b 45 08	 mov	 eax, DWORD PTR _szWideString$[ebp]
  00798	50		 push	 eax
  00799	ff 15 00 00 00
	00		 call	 DWORD PTR __imp__wcslen
  0079f	83 c4 04	 add	 esp, 4
  007a2	3b f4		 cmp	 esi, esp
  007a4	e8 00 00 00 00	 call	 __RTC_CheckEsp
  007a9	8d 4c 00 02	 lea	 ecx, DWORD PTR [eax+eax+2]
  007ad	d1 e1		 shl	 ecx, 1
  007af	51		 push	 ecx
  007b0	e8 00 00 00 00	 call	 ??_U@YAPAXIPBDH@Z	; operator new[]
  007b5	83 c4 0c	 add	 esp, 12			; 0000000cH
  007b8	89 45 f4	 mov	 DWORD PTR $T192089[ebp], eax
  007bb	8b 55 fc	 mov	 edx, DWORD PTR _this$[ebp]
  007be	8b 45 f4	 mov	 eax, DWORD PTR $T192089[ebp]
  007c1	89 02		 mov	 DWORD PTR [edx], eax

; 242  : 		if (m_szMenuText)

  007c3	8b 4d fc	 mov	 ecx, DWORD PTR _this$[ebp]
  007c6	83 39 00	 cmp	 DWORD PTR [ecx], 0
  007c9	74 1c		 je	 SHORT $L187901

; 243  : 			wcscpy(m_szMenuText,szWideString);

  007cb	8b f4		 mov	 esi, esp
  007cd	8b 55 08	 mov	 edx, DWORD PTR _szWideString$[ebp]
  007d0	52		 push	 edx
  007d1	8b 45 fc	 mov	 eax, DWORD PTR _this$[ebp]
  007d4	8b 08		 mov	 ecx, DWORD PTR [eax]
  007d6	51		 push	 ecx
  007d7	ff 15 00 00 00
	00		 call	 DWORD PTR __imp__wcscpy
  007dd	83 c4 08	 add	 esp, 8
  007e0	3b f4		 cmp	 esi, esp
  007e2	e8 00 00 00 00	 call	 __RTC_CheckEsp
$L187901:

; 244  :     }
; 245  : 	else

  007e7	eb 09		 jmp	 SHORT $L187895
$L187897:

; 246  : 		m_szMenuText=NULL;//set to NULL so we need not bother about dangling non-NULL Ptrs

  007e9	8b 55 fc	 mov	 edx, DWORD PTR _this$[ebp]
  007ec	c7 02 00 00 00
	00		 mov	 DWORD PTR [edx], 0
$L187895:

; 247  : }

  007f2	5e		 pop	 esi
  007f3	83 c4 0c	 add	 esp, 12			; 0000000cH
  007f6	3b ec		 cmp	 ebp, esp
  007f8	e8 00 00 00 00	 call	 __RTC_CheckEsp
  007fd	8b e5		 mov	 esp, ebp
  007ff	5d		 pop	 ebp
  00800	c2 04 00	 ret	 4
?SetWideString@BCMenuData@@QAEXPB_W@Z ENDP		; BCMenuData::SetWideString
_TEXT	ENDS
PUBLIC	??A?$CTypedPtrArray@VCPtrArray@@PAUHMENU__@@@@QAEAAPAUHMENU__@@H@Z ; CTypedPtrArray<CPtrArray,HMENU__ *>::operator[]
PUBLIC	?IsMenu@BCMenu@@SAHPAVCMenu@@@Z			; BCMenu::IsMenu
EXTRN	?GetUpperBound@CPtrArray@@QBEHXZ:NEAR		; CPtrArray::GetUpperBound
; Function compile flags: /Odt /RTCsu
_TEXT	SEGMENT
_numSubMenus$ = -8					; size = 4
_m$ = -4						; size = 4
_submenu$ = 8						; size = 4
?IsMenu@BCMenu@@SAHPAVCMenu@@@Z PROC NEAR		; BCMenu::IsMenu

; 250  : {

  00810	55		 push	 ebp
  00811	8b ec		 mov	 ebp, esp
  00813	83 ec 08	 sub	 esp, 8
  00816	c7 45 f8 cc cc
	cc cc		 mov	 DWORD PTR [ebp-8], -858993460 ; ccccccccH
  0081d	c7 45 fc cc cc
	cc cc		 mov	 DWORD PTR [ebp-4], -858993460 ; ccccccccH

; 251  : 	int m;
; 252  : 	int numSubMenus = (int)m_AllSubMenus.GetUpperBound();

  00824	b9 00 00 00 00	 mov	 ecx, OFFSET FLAT:?m_AllSubMenus@BCMenu@@1V?$CTypedPtrArray@VCPtrArray@@PAUHMENU__@@@@A
  00829	e8 00 00 00 00	 call	 ?GetUpperBound@CPtrArray@@QBEHXZ ; CPtrArray::GetUpperBound
  0082e	89 45 f8	 mov	 DWORD PTR _numSubMenus$[ebp], eax

; 253  : 	for(m=0;m<=numSubMenus;++m){

  00831	c7 45 fc 00 00
	00 00		 mov	 DWORD PTR _m$[ebp], 0
  00838	eb 09		 jmp	 SHORT $L187909
$L187910:
  0083a	8b 45 fc	 mov	 eax, DWORD PTR _m$[ebp]
  0083d	83 c0 01	 add	 eax, 1
  00840	89 45 fc	 mov	 DWORD PTR _m$[ebp], eax
$L187909:
  00843	8b 4d fc	 mov	 ecx, DWORD PTR _m$[ebp]
  00846	3b 4d f8	 cmp	 ecx, DWORD PTR _numSubMenus$[ebp]
  00849	7f 21		 jg	 SHORT $L187911

; 254  : 		if(submenu->m_hMenu==m_AllSubMenus[m])return(TRUE);

  0084b	8b 55 fc	 mov	 edx, DWORD PTR _m$[ebp]
  0084e	52		 push	 edx
  0084f	b9 00 00 00 00	 mov	 ecx, OFFSET FLAT:?m_AllSubMenus@BCMenu@@1V?$CTypedPtrArray@VCPtrArray@@PAUHMENU__@@@@A
  00854	e8 00 00 00 00	 call	 ??A?$CTypedPtrArray@VCPtrArray@@PAUHMENU__@@@@QAEAAPAUHMENU__@@H@Z ; CTypedPtrArray<CPtrArray,HMENU__ *>::operator[]
  00859	8b 4d 08	 mov	 ecx, DWORD PTR _submenu$[ebp]
  0085c	8b 51 04	 mov	 edx, DWORD PTR [ecx+4]
  0085f	3b 10		 cmp	 edx, DWORD PTR [eax]
  00861	75 07		 jne	 SHORT $L187912
  00863	b8 01 00 00 00	 mov	 eax, 1
  00868	eb 04		 jmp	 SHORT $L187905
$L187912:

; 255  : 	}

  0086a	eb ce		 jmp	 SHORT $L187910
$L187911:

; 256  : 	return(FALSE);

  0086c	33 c0		 xor	 eax, eax
$L187905:

; 257  : }

  0086e	83 c4 08	 add	 esp, 8
  00871	3b ec		 cmp	 ebp, esp
  00873	e8 00 00 00 00	 call	 __RTC_CheckEsp
  00878	8b e5		 mov	 esp, ebp
  0087a	5d		 pop	 ebp
  0087b	c3		 ret	 0
?IsMenu@BCMenu@@SAHPAVCMenu@@@Z ENDP			; BCMenu::IsMenu
_TEXT	ENDS
PUBLIC	?IsMenu@BCMenu@@SAHPAUHMENU__@@@Z		; BCMenu::IsMenu
; Function compile flags: /Odt /RTCsu
_TEXT	SEGMENT
_numSubMenus$ = -8					; size = 4
_m$ = -4						; size = 4
_submenu$ = 8						; size = 4
?IsMenu@BCMenu@@SAHPAUHMENU__@@@Z PROC NEAR		; BCMenu::IsMenu

; 260  : {

  00880	55		 push	 ebp
  00881	8b ec		 mov	 ebp, esp
  00883	83 ec 08	 sub	 esp, 8
  00886	c7 45 f8 cc cc
	cc cc		 mov	 DWORD PTR [ebp-8], -858993460 ; ccccccccH
  0088d	c7 45 fc cc cc
	cc cc		 mov	 DWORD PTR [ebp-4], -858993460 ; ccccccccH

; 261  : 	int m;
; 262  : 	int numSubMenus = (int)m_AllSubMenus.GetUpperBound();

  00894	b9 00 00 00 00	 mov	 ecx, OFFSET FLAT:?m_AllSubMenus@BCMenu@@1V?$CTypedPtrArray@VCPtrArray@@PAUHMENU__@@@@A
  00899	e8 00 00 00 00	 call	 ?GetUpperBound@CPtrArray@@QBEHXZ ; CPtrArray::GetUpperBound
  0089e	89 45 f8	 mov	 DWORD PTR _numSubMenus$[ebp], eax

; 263  : 	for(m=0;m<=numSubMenus;++m){

  008a1	c7 45 fc 00 00
	00 00		 mov	 DWORD PTR _m$[ebp], 0
  008a8	eb 09		 jmp	 SHORT $L187919
$L187920:
  008aa	8b 45 fc	 mov	 eax, DWORD PTR _m$[ebp]
  008ad	83 c0 01	 add	 eax, 1
  008b0	89 45 fc	 mov	 DWORD PTR _m$[ebp], eax
$L187919:
  008b3	8b 4d fc	 mov	 ecx, DWORD PTR _m$[ebp]
  008b6	3b 4d f8	 cmp	 ecx, DWORD PTR _numSubMenus$[ebp]
  008b9	7f 1e		 jg	 SHORT $L187921

; 264  : 		if(submenu==m_AllSubMenus[m])return(TRUE);

  008bb	8b 55 fc	 mov	 edx, DWORD PTR _m$[ebp]
  008be	52		 push	 edx
  008bf	b9 00 00 00 00	 mov	 ecx, OFFSET FLAT:?m_AllSubMenus@BCMenu@@1V?$CTypedPtrArray@VCPtrArray@@PAUHMENU__@@@@A
  008c4	e8 00 00 00 00	 call	 ??A?$CTypedPtrArray@VCPtrArray@@PAUHMENU__@@@@QAEAAPAUHMENU__@@H@Z ; CTypedPtrArray<CPtrArray,HMENU__ *>::operator[]
  008c9	8b 4d 08	 mov	 ecx, DWORD PTR _submenu$[ebp]
  008cc	3b 08		 cmp	 ecx, DWORD PTR [eax]
  008ce	75 07		 jne	 SHORT $L187922
  008d0	b8 01 00 00 00	 mov	 eax, 1
  008d5	eb 04		 jmp	 SHORT $L187915
$L187922:

; 265  : 	}

  008d7	eb d1		 jmp	 SHORT $L187920
$L187921:

; 266  : 	return(FALSE);

  008d9	33 c0		 xor	 eax, eax
$L187915:

; 267  : }

  008db	83 c4 08	 add	 esp, 8
  008de	3b ec		 cmp	 ebp, esp
  008e0	e8 00 00 00 00	 call	 __RTC_CheckEsp
  008e5	8b e5		 mov	 esp, ebp
  008e7	5d		 pop	 ebp
  008e8	c3		 ret	 0
?IsMenu@BCMenu@@SAHPAUHMENU__@@@Z ENDP			; BCMenu::IsMenu
_TEXT	ENDS
PUBLIC	??A?$CTypedPtrArray@VCPtrArray@@PAVBCMenuData@@@@QAEAAPAVBCMenuData@@H@Z ; CTypedPtrArray<CPtrArray,BCMenuData *>::operator[]
PUBLIC	??_GBCMenuData@@QAEPAXI@Z			; BCMenuData::`scalar deleting destructor'
EXTRN	?RemoveAll@CPtrArray@@QAEXXZ:NEAR		; CPtrArray::RemoveAll
EXTRN	?RemoveAt@CPtrArray@@QAEXHH@Z:NEAR		; CPtrArray::RemoveAt
EXTRN	?DestroyMenu@CMenu@@QAEHXZ:NEAR			; CMenu::DestroyMenu
EXTRN	?FromHandle@CMenu@@SGPAV1@PAUHMENU__@@@Z:NEAR	; CMenu::FromHandle
EXTRN	?IsKindOf@CObject@@QBEHPBUCRuntimeClass@@@Z:NEAR ; CObject::IsKindOf
; Function compile flags: /Odt /RTCsu
_TEXT	SEGMENT
tv180 = -68						; size = 4
tv165 = -64						; size = 4
tv147 = -60						; size = 4
$T192102 = -56						; size = 4
$T192101 = -52						; size = 4
$T192098 = -48						; size = 4
$T192097 = -44						; size = 4
$T192094 = -40						; size = 4
$T192093 = -36						; size = 4
_numItems$ = -32					; size = 4
_flag$187946 = -28					; size = 4
_ptr$187944 = -24					; size = 4
_numSubMenus$ = -20					; size = 4
_numAllSubMenus$ = -16					; size = 4
_n$ = -12						; size = 4
_m$ = -8						; size = 4
_this$ = -4						; size = 4
?DestroyMenu@BCMenu@@UAEHXZ PROC NEAR			; BCMenu::DestroyMenu
; _this$ = ecx

; 270  : {

  008f0	55		 push	 ebp
  008f1	8b ec		 mov	 ebp, esp
  008f3	83 ec 44	 sub	 esp, 68			; 00000044H
  008f6	56		 push	 esi
  008f7	57		 push	 edi
  008f8	51		 push	 ecx
  008f9	8d 7d bc	 lea	 edi, DWORD PTR [ebp-68]
  008fc	b9 11 00 00 00	 mov	 ecx, 17			; 00000011H
  00901	b8 cc cc cc cc	 mov	 eax, -858993460		; ccccccccH
  00906	f3 ab		 rep stosd
  00908	59		 pop	 ecx
  00909	89 4d fc	 mov	 DWORD PTR _this$[ebp], ecx

; 271  : 	// Destroy Sub menus:
; 272  : 	int m,n;
; 273  : 	int numAllSubMenus = (int)m_AllSubMenus.GetUpperBound();

  0090c	b9 00 00 00 00	 mov	 ecx, OFFSET FLAT:?m_AllSubMenus@BCMenu@@1V?$CTypedPtrArray@VCPtrArray@@PAUHMENU__@@@@A
  00911	e8 00 00 00 00	 call	 ?GetUpperBound@CPtrArray@@QBEHXZ ; CPtrArray::GetUpperBound
  00916	89 45 f0	 mov	 DWORD PTR _numAllSubMenus$[ebp], eax

; 274  : 	for(n = numAllSubMenus; n>= 0; n--){

  00919	8b 45 f0	 mov	 eax, DWORD PTR _numAllSubMenus$[ebp]
  0091c	89 45 f4	 mov	 DWORD PTR _n$[ebp], eax
  0091f	eb 09		 jmp	 SHORT $L187930
$L187931:
  00921	8b 4d f4	 mov	 ecx, DWORD PTR _n$[ebp]
  00924	83 e9 01	 sub	 ecx, 1
  00927	89 4d f4	 mov	 DWORD PTR _n$[ebp], ecx
$L187930:
  0092a	83 7d f4 00	 cmp	 DWORD PTR _n$[ebp], 0
  0092e	7c 2a		 jl	 SHORT $L187932

; 275  : 		if(m_AllSubMenus[n]==this->m_hMenu)m_AllSubMenus.RemoveAt(n);

  00930	8b 55 f4	 mov	 edx, DWORD PTR _n$[ebp]
  00933	52		 push	 edx
  00934	b9 00 00 00 00	 mov	 ecx, OFFSET FLAT:?m_AllSubMenus@BCMenu@@1V?$CTypedPtrArray@VCPtrArray@@PAUHMENU__@@@@A
  00939	e8 00 00 00 00	 call	 ??A?$CTypedPtrArray@VCPtrArray@@PAUHMENU__@@@@QAEAAPAUHMENU__@@H@Z ; CTypedPtrArray<CPtrArray,HMENU__ *>::operator[]
  0093e	8b 4d fc	 mov	 ecx, DWORD PTR _this$[ebp]
  00941	8b 10		 mov	 edx, DWORD PTR [eax]
  00943	3b 51 04	 cmp	 edx, DWORD PTR [ecx+4]
  00946	75 10		 jne	 SHORT $L187933
  00948	6a 01		 push	 1
  0094a	8b 45 f4	 mov	 eax, DWORD PTR _n$[ebp]
  0094d	50		 push	 eax
  0094e	b9 00 00 00 00	 mov	 ecx, OFFSET FLAT:?m_AllSubMenus@BCMenu@@1V?$CTypedPtrArray@VCPtrArray@@PAUHMENU__@@@@A
  00953	e8 00 00 00 00	 call	 ?RemoveAt@CPtrArray@@QAEXHH@Z ; CPtrArray::RemoveAt
$L187933:

; 276  : 	}

  00958	eb c7		 jmp	 SHORT $L187931
$L187932:

; 277  : 	int numSubMenus = (int)m_SubMenus.GetUpperBound();

  0095a	8b 4d fc	 mov	 ecx, DWORD PTR _this$[ebp]
  0095d	83 c1 1c	 add	 ecx, 28			; 0000001cH
  00960	e8 00 00 00 00	 call	 ?GetUpperBound@CPtrArray@@QBEHXZ ; CPtrArray::GetUpperBound
  00965	89 45 ec	 mov	 DWORD PTR _numSubMenus$[ebp], eax

; 278  : 	for(m = numSubMenus; m >= 0; m--)

  00968	8b 4d ec	 mov	 ecx, DWORD PTR _numSubMenus$[ebp]
  0096b	89 4d f8	 mov	 DWORD PTR _m$[ebp], ecx
  0096e	eb 09		 jmp	 SHORT $L187936
$L187937:
  00970	8b 55 f8	 mov	 edx, DWORD PTR _m$[ebp]
  00973	83 ea 01	 sub	 edx, 1
  00976	89 55 f8	 mov	 DWORD PTR _m$[ebp], edx
$L187936:
  00979	83 7d f8 00	 cmp	 DWORD PTR _m$[ebp], 0
  0097d	0f 8c cb 00 00
	00		 jl	 $L187938

; 279  : 	{
; 280  : 		numAllSubMenus = (int)m_AllSubMenus.GetUpperBound();

  00983	b9 00 00 00 00	 mov	 ecx, OFFSET FLAT:?m_AllSubMenus@BCMenu@@1V?$CTypedPtrArray@VCPtrArray@@PAUHMENU__@@@@A
  00988	e8 00 00 00 00	 call	 ?GetUpperBound@CPtrArray@@QBEHXZ ; CPtrArray::GetUpperBound
  0098d	89 45 f0	 mov	 DWORD PTR _numAllSubMenus$[ebp], eax

; 281  : 		for(n = numAllSubMenus; n>= 0; n--)

  00990	8b 45 f0	 mov	 eax, DWORD PTR _numAllSubMenus$[ebp]
  00993	89 45 f4	 mov	 DWORD PTR _n$[ebp], eax
  00996	eb 09		 jmp	 SHORT $L187940
$L187941:
  00998	8b 4d f4	 mov	 ecx, DWORD PTR _n$[ebp]
  0099b	83 e9 01	 sub	 ecx, 1
  0099e	89 4d f4	 mov	 DWORD PTR _n$[ebp], ecx
$L187940:
  009a1	83 7d f4 00	 cmp	 DWORD PTR _n$[ebp], 0
  009a5	7c 37		 jl	 SHORT $L187942

; 282  : 		{
; 283  : 			if(m_AllSubMenus[n]==m_SubMenus[m])m_AllSubMenus.RemoveAt(n);

  009a7	8b 55 f4	 mov	 edx, DWORD PTR _n$[ebp]
  009aa	52		 push	 edx
  009ab	b9 00 00 00 00	 mov	 ecx, OFFSET FLAT:?m_AllSubMenus@BCMenu@@1V?$CTypedPtrArray@VCPtrArray@@PAUHMENU__@@@@A
  009b0	e8 00 00 00 00	 call	 ??A?$CTypedPtrArray@VCPtrArray@@PAUHMENU__@@@@QAEAAPAUHMENU__@@H@Z ; CTypedPtrArray<CPtrArray,HMENU__ *>::operator[]
  009b5	8b f0		 mov	 esi, eax
  009b7	8b 45 f8	 mov	 eax, DWORD PTR _m$[ebp]
  009ba	50		 push	 eax
  009bb	8b 4d fc	 mov	 ecx, DWORD PTR _this$[ebp]
  009be	83 c1 1c	 add	 ecx, 28			; 0000001cH
  009c1	e8 00 00 00 00	 call	 ??A?$CTypedPtrArray@VCPtrArray@@PAUHMENU__@@@@QAEAAPAUHMENU__@@H@Z ; CTypedPtrArray<CPtrArray,HMENU__ *>::operator[]
  009c6	8b 0e		 mov	 ecx, DWORD PTR [esi]
  009c8	3b 08		 cmp	 ecx, DWORD PTR [eax]
  009ca	75 10		 jne	 SHORT $L187943
  009cc	6a 01		 push	 1
  009ce	8b 55 f4	 mov	 edx, DWORD PTR _n$[ebp]
  009d1	52		 push	 edx
  009d2	b9 00 00 00 00	 mov	 ecx, OFFSET FLAT:?m_AllSubMenus@BCMenu@@1V?$CTypedPtrArray@VCPtrArray@@PAUHMENU__@@@@A
  009d7	e8 00 00 00 00	 call	 ?RemoveAt@CPtrArray@@QAEXHH@Z ; CPtrArray::RemoveAt
$L187943:

; 284  : 		}

  009dc	eb ba		 jmp	 SHORT $L187941
$L187942:

; 285  : 		CMenu *ptr=FromHandle(m_SubMenus[m]);

  009de	8b 45 f8	 mov	 eax, DWORD PTR _m$[ebp]
  009e1	50		 push	 eax
  009e2	8b 4d fc	 mov	 ecx, DWORD PTR _this$[ebp]
  009e5	83 c1 1c	 add	 ecx, 28			; 0000001cH
  009e8	e8 00 00 00 00	 call	 ??A?$CTypedPtrArray@VCPtrArray@@PAUHMENU__@@@@QAEAAPAUHMENU__@@H@Z ; CTypedPtrArray<CPtrArray,HMENU__ *>::operator[]
  009ed	8b 08		 mov	 ecx, DWORD PTR [eax]
  009ef	51		 push	 ecx
  009f0	e8 00 00 00 00	 call	 ?FromHandle@CMenu@@SGPAV1@PAUHMENU__@@@Z ; CMenu::FromHandle
  009f5	89 45 e8	 mov	 DWORD PTR _ptr$187944[ebp], eax

; 286  : 		if(ptr)

  009f8	83 7d e8 00	 cmp	 DWORD PTR _ptr$187944[ebp], 0
  009fc	74 4b		 je	 SHORT $L187945

; 287  : 		{
; 288  : 			BOOL flag=ptr->IsKindOf(RUNTIME_CLASS( BCMenu ));

  009fe	e8 00 00 00 00	 call	 ?GetThisClass@BCMenu@@SGPAUCRuntimeClass@@XZ ; BCMenu::GetThisClass
  00a03	50		 push	 eax
  00a04	8b 4d e8	 mov	 ecx, DWORD PTR _ptr$187944[ebp]
  00a07	e8 00 00 00 00	 call	 ?IsKindOf@CObject@@QBEHPBUCRuntimeClass@@@Z ; CObject::IsKindOf
  00a0c	89 45 e4	 mov	 DWORD PTR _flag$187946[ebp], eax

; 289  : 			if(flag)

  00a0f	83 7d e4 00	 cmp	 DWORD PTR _flag$187946[ebp], 0
  00a13	74 34		 je	 SHORT $L187945

; 290  : 				delete((BCMenu *)ptr);

  00a15	8b 55 e8	 mov	 edx, DWORD PTR _ptr$187944[ebp]
  00a18	89 55 d8	 mov	 DWORD PTR $T192094[ebp], edx
  00a1b	8b 45 d8	 mov	 eax, DWORD PTR $T192094[ebp]
  00a1e	89 45 dc	 mov	 DWORD PTR $T192093[ebp], eax
  00a21	83 7d dc 00	 cmp	 DWORD PTR $T192093[ebp], 0
  00a25	74 1b		 je	 SHORT $L192095
  00a27	8b f4		 mov	 esi, esp
  00a29	6a 01		 push	 1
  00a2b	8b 4d dc	 mov	 ecx, DWORD PTR $T192093[ebp]
  00a2e	8b 11		 mov	 edx, DWORD PTR [ecx]
  00a30	8b 4d dc	 mov	 ecx, DWORD PTR $T192093[ebp]
  00a33	ff 52 04	 call	 DWORD PTR [edx+4]
  00a36	3b f4		 cmp	 esi, esp
  00a38	e8 00 00 00 00	 call	 __RTC_CheckEsp
  00a3d	89 45 c4	 mov	 DWORD PTR tv147[ebp], eax
  00a40	eb 07		 jmp	 SHORT $L187945
$L192095:
  00a42	c7 45 c4 00 00
	00 00		 mov	 DWORD PTR tv147[ebp], 0
$L187945:

; 291  : 		}
; 292  : 	}

  00a49	e9 22 ff ff ff	 jmp	 $L187937
$L187938:

; 293  : 	m_SubMenus.RemoveAll();

  00a4e	8b 4d fc	 mov	 ecx, DWORD PTR _this$[ebp]
  00a51	83 c1 1c	 add	 ecx, 28			; 0000001cH
  00a54	e8 00 00 00 00	 call	 ?RemoveAll@CPtrArray@@QAEXXZ ; CPtrArray::RemoveAll

; 294  : 	// Destroy menu data
; 295  : 	int numItems = (int)m_MenuList.GetUpperBound();

  00a59	8b 4d fc	 mov	 ecx, DWORD PTR _this$[ebp]
  00a5c	83 c1 08	 add	 ecx, 8
  00a5f	e8 00 00 00 00	 call	 ?GetUpperBound@CPtrArray@@QBEHXZ ; CPtrArray::GetUpperBound
  00a64	89 45 e0	 mov	 DWORD PTR _numItems$[ebp], eax

; 296  : 	for(m = 0; m <= numItems; m++)delete(m_MenuList[m]);

  00a67	c7 45 f8 00 00
	00 00		 mov	 DWORD PTR _m$[ebp], 0
  00a6e	eb 09		 jmp	 SHORT $L187953
$L187954:
  00a70	8b 45 f8	 mov	 eax, DWORD PTR _m$[ebp]
  00a73	83 c0 01	 add	 eax, 1
  00a76	89 45 f8	 mov	 DWORD PTR _m$[ebp], eax
$L187953:
  00a79	8b 4d f8	 mov	 ecx, DWORD PTR _m$[ebp]
  00a7c	3b 4d e0	 cmp	 ecx, DWORD PTR _numItems$[ebp]
  00a7f	7f 38		 jg	 SHORT $L187955
  00a81	8b 55 f8	 mov	 edx, DWORD PTR _m$[ebp]
  00a84	52		 push	 edx
  00a85	8b 4d fc	 mov	 ecx, DWORD PTR _this$[ebp]
  00a88	83 c1 08	 add	 ecx, 8
  00a8b	e8 00 00 00 00	 call	 ??A?$CTypedPtrArray@VCPtrArray@@PAVBCMenuData@@@@QAEAAPAVBCMenuData@@H@Z ; CTypedPtrArray<CPtrArray,BCMenuData *>::operator[]
  00a90	8b 00		 mov	 eax, DWORD PTR [eax]
  00a92	89 45 d0	 mov	 DWORD PTR $T192098[ebp], eax
  00a95	8b 4d d0	 mov	 ecx, DWORD PTR $T192098[ebp]
  00a98	89 4d d4	 mov	 DWORD PTR $T192097[ebp], ecx
  00a9b	83 7d d4 00	 cmp	 DWORD PTR $T192097[ebp], 0
  00a9f	74 0f		 je	 SHORT $L192099
  00aa1	6a 01		 push	 1
  00aa3	8b 4d d4	 mov	 ecx, DWORD PTR $T192097[ebp]
  00aa6	e8 00 00 00 00	 call	 ??_GBCMenuData@@QAEPAXI@Z
  00aab	89 45 c0	 mov	 DWORD PTR tv165[ebp], eax
  00aae	eb 07		 jmp	 SHORT $L192100
$L192099:
  00ab0	c7 45 c0 00 00
	00 00		 mov	 DWORD PTR tv165[ebp], 0
$L192100:
  00ab7	eb b7		 jmp	 SHORT $L187954
$L187955:

; 297  : 	m_MenuList.RemoveAll();

  00ab9	8b 4d fc	 mov	 ecx, DWORD PTR _this$[ebp]
  00abc	83 c1 08	 add	 ecx, 8
  00abf	e8 00 00 00 00	 call	 ?RemoveAll@CPtrArray@@QAEXXZ ; CPtrArray::RemoveAll

; 298  : 	if(checkmaps&&!checkmapsshare){

  00ac4	8b 55 fc	 mov	 edx, DWORD PTR _this$[ebp]
  00ac7	83 7a 3c 00	 cmp	 DWORD PTR [edx+60], 0
  00acb	74 4a		 je	 SHORT $L187958
  00acd	8b 45 fc	 mov	 eax, DWORD PTR _this$[ebp]
  00ad0	83 78 40 00	 cmp	 DWORD PTR [eax+64], 0
  00ad4	75 41		 jne	 SHORT $L187958

; 299  : 		delete checkmaps;

  00ad6	8b 4d fc	 mov	 ecx, DWORD PTR _this$[ebp]
  00ad9	8b 51 3c	 mov	 edx, DWORD PTR [ecx+60]
  00adc	89 55 c8	 mov	 DWORD PTR $T192102[ebp], edx
  00adf	8b 45 c8	 mov	 eax, DWORD PTR $T192102[ebp]
  00ae2	89 45 cc	 mov	 DWORD PTR $T192101[ebp], eax
  00ae5	83 7d cc 00	 cmp	 DWORD PTR $T192101[ebp], 0
  00ae9	74 1b		 je	 SHORT $L192103
  00aeb	8b f4		 mov	 esi, esp
  00aed	6a 01		 push	 1
  00aef	8b 4d cc	 mov	 ecx, DWORD PTR $T192101[ebp]
  00af2	8b 11		 mov	 edx, DWORD PTR [ecx]
  00af4	8b 4d cc	 mov	 ecx, DWORD PTR $T192101[ebp]
  00af7	ff 52 04	 call	 DWORD PTR [edx+4]
  00afa	3b f4		 cmp	 esi, esp
  00afc	e8 00 00 00 00	 call	 __RTC_CheckEsp
  00b01	89 45 bc	 mov	 DWORD PTR tv180[ebp], eax
  00b04	eb 07		 jmp	 SHORT $L192104
$L192103:
  00b06	c7 45 bc 00 00
	00 00		 mov	 DWORD PTR tv180[ebp], 0
$L192104:

; 300  : 		checkmaps=NULL;

  00b0d	8b 45 fc	 mov	 eax, DWORD PTR _this$[ebp]
  00b10	c7 40 3c 00 00
	00 00		 mov	 DWORD PTR [eax+60], 0
$L187958:

; 301  : 	}
; 302  : 	// Call base-class implementation last:
; 303  : 	return(CMenu::DestroyMenu());

  00b17	8b 4d fc	 mov	 ecx, DWORD PTR _this$[ebp]
  00b1a	e8 00 00 00 00	 call	 ?DestroyMenu@CMenu@@QAEHXZ ; CMenu::DestroyMenu

; 304  : };

  00b1f	5f		 pop	 edi
  00b20	5e		 pop	 esi
  00b21	83 c4 44	 add	 esp, 68			; 00000044H
  00b24	3b ec		 cmp	 ebp, esp
  00b26	e8 00 00 00 00	 call	 __RTC_CheckEsp
  00b2b	8b e5		 mov	 esp, ebp
  00b2d	5d		 pop	 ebp
  00b2e	c3		 ret	 0
?DestroyMenu@BCMenu@@UAEHXZ ENDP			; BCMenu::DestroyMenu
_TEXT	ENDS
EXTRN	??3@YAXPAX@Z:NEAR				; operator delete
; Function compile flags: /Odt /RTCsu
;	COMDAT ??_GBCMenuData@@QAEPAXI@Z
_TEXT	SEGMENT
_this$ = -4						; size = 4
___flags$ = 8						; size = 4
??_GBCMenuData@@QAEPAXI@Z PROC NEAR			; BCMenuData::`scalar deleting destructor', COMDAT
; _this$ = ecx
  00000	55		 push	 ebp
  00001	8b ec		 mov	 ebp, esp
  00003	51		 push	 ecx
  00004	c7 45 fc cc cc
	cc cc		 mov	 DWORD PTR [ebp-4], -858993460 ; ccccccccH
  0000b	89 4d fc	 mov	 DWORD PTR _this$[ebp], ecx
  0000e	8b 4d fc	 mov	 ecx, DWORD PTR _this$[ebp]
  00011	e8 00 00 00 00	 call	 ??1BCMenuData@@QAE@XZ	; BCMenuData::~BCMenuData
  00016	8b 45 08	 mov	 eax, DWORD PTR ___flags$[ebp]
  00019	83 e0 01	 and	 eax, 1
  0001c	74 0c		 je	 SHORT $L187964
  0001e	8b 4d fc	 mov	 ecx, DWORD PTR _this$[ebp]
  00021	51		 push	 ecx
  00022	e8 00 00 00 00	 call	 ??3@YAXPAX@Z		; operator delete
  00027	83 c4 04	 add	 esp, 4
$L187964:
  0002a	8b 45 fc	 mov	 eax, DWORD PTR _this$[ebp]
  0002d	83 c4 04	 add	 esp, 4
  00030	3b ec		 cmp	 ebp, esp
  00032	e8 00 00 00 00	 call	 __RTC_CheckEsp
  00037	8b e5		 mov	 esp, ebp
  00039	5d		 pop	 ebp
  0003a	c2 04 00	 ret	 4
??_GBCMenuData@@QAEPAXI@Z ENDP				; BCMenuData::`scalar deleting destructor'
_TEXT	ENDS
PUBLIC	?GetMenuDrawMode@BCMenu@@SAHXZ			; BCMenu::GetMenuDrawMode
; Function compile flags: /Odt /RTCsu
_TEXT	SEGMENT
?GetMenuDrawMode@BCMenu@@SAHXZ PROC NEAR		; BCMenu::GetMenuDrawMode

; 307  : {

  00b30	55		 push	 ebp
  00b31	8b ec		 mov	 ebp, esp

; 308  : 	if(IsWinXPLuna())return(xp_drawmode);

  00b33	e8 00 00 00 00	 call	 ?IsWinXPLuna@BCMenu@@KAHXZ ; BCMenu::IsWinXPLuna
  00b38	85 c0		 test	 eax, eax
  00b3a	74 07		 je	 SHORT $L187968
  00b3c	a1 00 00 00 00	 mov	 eax, DWORD PTR ?xp_drawmode@BCMenu@@1IA ; BCMenu::xp_drawmode
  00b41	eb 05		 jmp	 SHORT $L187967
$L187968:

; 309  : 	return(original_drawmode);

  00b43	a1 00 00 00 00	 mov	 eax, DWORD PTR ?original_drawmode@BCMenu@@1IA ; BCMenu::original_drawmode
$L187967:

; 310  : }

  00b48	3b ec		 cmp	 ebp, esp
  00b4a	e8 00 00 00 00	 call	 __RTC_CheckEsp
  00b4f	5d		 pop	 ebp
  00b50	c3		 ret	 0
?GetMenuDrawMode@BCMenu@@SAHXZ ENDP			; BCMenu::GetMenuDrawMode
_TEXT	ENDS
PUBLIC	?GetSelectDisableMode@BCMenu@@SAHXZ		; BCMenu::GetSelectDisableMode
; Function compile flags: /Odt /RTCsu
_TEXT	SEGMENT
?GetSelectDisableMode@BCMenu@@SAHXZ PROC NEAR		; BCMenu::GetSelectDisableMode

; 313  : {

  00b60	55		 push	 ebp
  00b61	8b ec		 mov	 ebp, esp

; 314  : 	if(IsLunaMenuStyle())return(xp_select_disabled);

  00b63	e8 00 00 00 00	 call	 ?IsLunaMenuStyle@BCMenu@@KAHXZ ; BCMenu::IsLunaMenuStyle
  00b68	85 c0		 test	 eax, eax
  00b6a	74 07		 je	 SHORT $L187972
  00b6c	a1 00 00 00 00	 mov	 eax, DWORD PTR ?xp_select_disabled@BCMenu@@1HA ; BCMenu::xp_select_disabled
  00b71	eb 05		 jmp	 SHORT $L187971
$L187972:

; 315  : 	return(original_select_disabled);

  00b73	a1 00 00 00 00	 mov	 eax, DWORD PTR ?original_select_disabled@BCMenu@@1HA ; BCMenu::original_select_disabled
$L187971:

; 316  : }

  00b78	3b ec		 cmp	 ebp, esp
  00b7a	e8 00 00 00 00	 call	 __RTC_CheckEsp
  00b7f	5d		 pop	 ebp
  00b80	c3		 ret	 0
?GetSelectDisableMode@BCMenu@@SAHXZ ENDP		; BCMenu::GetSelectDisableMode
_TEXT	ENDS
PUBLIC	?DrawItem_Win9xNT2000@BCMenu@@IAEXPAUtagDRAWITEMSTRUCT@@@Z ; BCMenu::DrawItem_Win9xNT2000
PUBLIC	?DrawItem_WinXP@BCMenu@@IAEXPAUtagDRAWITEMSTRUCT@@@Z ; BCMenu::DrawItem_WinXP
EXTRN	?AfxAssertFailedLine@@YGHPBDH@Z:NEAR		; AfxAssertFailedLine
EXTRN	?FromHandle@CDC@@SGPAV1@PAUHDC__@@@Z:NEAR	; CDC::FromHandle
EXTRN	?GetDeviceCaps@CDC@@QBEHH@Z:NEAR		; CDC::GetDeviceCaps
; Function compile flags: /Odt /RTCsu
_TEXT	SEGMENT
_pDC$ = -8						; size = 4
_this$ = -4						; size = 4
_lpDIS$ = 8						; size = 4
?DrawItem@BCMenu@@UAEXPAUtagDRAWITEMSTRUCT@@@Z PROC NEAR ; BCMenu::DrawItem
; _this$ = ecx

; 331  : {

  00b90	55		 push	 ebp
  00b91	8b ec		 mov	 ebp, esp
  00b93	83 ec 08	 sub	 esp, 8
  00b96	c7 45 f8 cc cc
	cc cc		 mov	 DWORD PTR [ebp-8], -858993460 ; ccccccccH
  00b9d	c7 45 fc cc cc
	cc cc		 mov	 DWORD PTR [ebp-4], -858993460 ; ccccccccH
  00ba4	89 4d fc	 mov	 DWORD PTR _this$[ebp], ecx

; 332  : 	ASSERT(lpDIS != NULL);	

  00ba7	83 7d 08 00	 cmp	 DWORD PTR _lpDIS$[ebp], 0
  00bab	75 14		 jne	 SHORT $L192109
  00bad	68 4c 01 00 00	 push	 332			; 0000014cH
  00bb2	68 00 00 00 00	 push	 OFFSET FLAT:_THIS_FILE
  00bb7	e8 00 00 00 00	 call	 ?AfxAssertFailedLine@@YGHPBDH@Z ; AfxAssertFailedLine
  00bbc	85 c0		 test	 eax, eax
  00bbe	74 01		 je	 SHORT $L192109
  00bc0	cc		 int	 3
$L192109:

; 333  : 	CDC* pDC = CDC::FromHandle(lpDIS->hDC);

  00bc1	8b 4d 08	 mov	 ecx, DWORD PTR _lpDIS$[ebp]
  00bc4	8b 51 18	 mov	 edx, DWORD PTR [ecx+24]
  00bc7	52		 push	 edx
  00bc8	e8 00 00 00 00	 call	 ?FromHandle@CDC@@SGPAV1@PAUHDC__@@@Z ; CDC::FromHandle
  00bcd	89 45 f8	 mov	 DWORD PTR _pDC$[ebp], eax

; 334  : 	if(pDC->GetDeviceCaps(RASTERCAPS) & RC_PALETTE)DrawItem_Win9xNT2000(lpDIS);

  00bd0	6a 26		 push	 38			; 00000026H
  00bd2	8b 4d f8	 mov	 ecx, DWORD PTR _pDC$[ebp]
  00bd5	e8 00 00 00 00	 call	 ?GetDeviceCaps@CDC@@QBEHH@Z ; CDC::GetDeviceCaps
  00bda	25 00 01 00 00	 and	 eax, 256		; 00000100H
  00bdf	74 0e		 je	 SHORT $L187979
  00be1	8b 45 08	 mov	 eax, DWORD PTR _lpDIS$[ebp]
  00be4	50		 push	 eax
  00be5	8b 4d fc	 mov	 ecx, DWORD PTR _this$[ebp]
  00be8	e8 00 00 00 00	 call	 ?DrawItem_Win9xNT2000@BCMenu@@IAEXPAUtagDRAWITEMSTRUCT@@@Z ; BCMenu::DrawItem_Win9xNT2000

; 335  : 	else{

  00bed	eb 51		 jmp	 SHORT $L187976
$L187979:

; 336  : 		if(IsWinXPLuna()){

  00bef	e8 00 00 00 00	 call	 ?IsWinXPLuna@BCMenu@@KAHXZ ; BCMenu::IsWinXPLuna
  00bf4	85 c0		 test	 eax, eax
  00bf6	74 25		 je	 SHORT $L187981

; 337  : 			if(xp_drawmode==BCMENU_DRAWMODE_XP) DrawItem_WinXP(lpDIS);

  00bf8	83 3d 00 00 00
	00 01		 cmp	 DWORD PTR ?xp_drawmode@BCMenu@@1IA, 1 ; BCMenu::xp_drawmode
  00bff	75 0e		 jne	 SHORT $L187982
  00c01	8b 4d 08	 mov	 ecx, DWORD PTR _lpDIS$[ebp]
  00c04	51		 push	 ecx
  00c05	8b 4d fc	 mov	 ecx, DWORD PTR _this$[ebp]
  00c08	e8 00 00 00 00	 call	 ?DrawItem_WinXP@BCMenu@@IAEXPAUtagDRAWITEMSTRUCT@@@Z ; BCMenu::DrawItem_WinXP

; 338  : 			else DrawItem_Win9xNT2000(lpDIS);

  00c0d	eb 0c		 jmp	 SHORT $L187983
$L187982:
  00c0f	8b 55 08	 mov	 edx, DWORD PTR _lpDIS$[ebp]
  00c12	52		 push	 edx
  00c13	8b 4d fc	 mov	 ecx, DWORD PTR _this$[ebp]
  00c16	e8 00 00 00 00	 call	 ?DrawItem_Win9xNT2000@BCMenu@@IAEXPAUtagDRAWITEMSTRUCT@@@Z ; BCMenu::DrawItem_Win9xNT2000
$L187983:

; 339  : 		}
; 340  : 		else{

  00c1b	eb 23		 jmp	 SHORT $L187976
$L187981:

; 341  : 			if(original_drawmode==BCMENU_DRAWMODE_XP) DrawItem_WinXP(lpDIS);

  00c1d	83 3d 00 00 00
	00 01		 cmp	 DWORD PTR ?original_drawmode@BCMenu@@1IA, 1 ; BCMenu::original_drawmode
  00c24	75 0e		 jne	 SHORT $L187985
  00c26	8b 45 08	 mov	 eax, DWORD PTR _lpDIS$[ebp]
  00c29	50		 push	 eax
  00c2a	8b 4d fc	 mov	 ecx, DWORD PTR _this$[ebp]
  00c2d	e8 00 00 00 00	 call	 ?DrawItem_WinXP@BCMenu@@IAEXPAUtagDRAWITEMSTRUCT@@@Z ; BCMenu::DrawItem_WinXP

; 342  : 			else DrawItem_Win9xNT2000(lpDIS);

  00c32	eb 0c		 jmp	 SHORT $L187976
$L187985:
  00c34	8b 4d 08	 mov	 ecx, DWORD PTR _lpDIS$[ebp]
  00c37	51		 push	 ecx
  00c38	8b 4d fc	 mov	 ecx, DWORD PTR _this$[ebp]
  00c3b	e8 00 00 00 00	 call	 ?DrawItem_Win9xNT2000@BCMenu@@IAEXPAUtagDRAWITEMSTRUCT@@@Z ; BCMenu::DrawItem_Win9xNT2000
$L187976:

; 343  : 		}	
; 344  : 	}
; 345  : }

  00c40	83 c4 08	 add	 esp, 8
  00c43	3b ec		 cmp	 ebp, esp
  00c45	e8 00 00 00 00	 call	 __RTC_CheckEsp
  00c4a	8b e5		 mov	 esp, ebp
  00c4c	5d		 pop	 ebp
  00c4d	c2 04 00	 ret	 4
?DrawItem@BCMenu@@UAEXPAUtagDRAWITEMSTRUCT@@@Z ENDP	; BCMenu::DrawItem
_TEXT	ENDS
PUBLIC	?Draw3DCheckmark@BCMenu@@IAEHPAVCDC@@ABVCRect@@HPAUHBITMAP__@@@Z ; BCMenu::Draw3DCheckmark
PUBLIC	?DitherBlt@BCMenu@@IAEXPAUHDC__@@HHHHPAUHBITMAP__@@HHK@Z ; BCMenu::DitherBlt
PUBLIC	?DitherBlt2@BCMenu@@IAEXPAVCDC@@HHHHAAVCBitmap@@HHK@Z ; BCMenu::DitherBlt2
PUBLIC	?DitherBlt3@BCMenu@@IAEXPAVCDC@@HHHHAAVCBitmap@@K@Z ; BCMenu::DitherBlt3
PUBLIC	?GetBitmapFromImageList@BCMenu@@IAEHPAVCDC@@PAVCImageList@@HAAVCBitmap@@@Z ; BCMenu::GetBitmapFromImageList
PUBLIC	__real@3fe3333333333333
PUBLIC	??0CMenuItemInfo@@QAE@XZ			; CMenuItemInfo::CMenuItemInfo
PUBLIC	?LightenColor@BCMenu@@SAKKN@Z			; BCMenu::LightenColor
EXTRN	__imp_?Mid@?$CStringT@DV?$StrTraitMFC_DLL@DV?$ChTraitsCRT@D@ATL@@@@@ATL@@QBE?AV12@H@Z:NEAR
EXTRN	__imp_?Left@?$CStringT@DV?$StrTraitMFC_DLL@DV?$ChTraitsCRT@D@ATL@@@@@ATL@@QBE?AV12@H@Z:NEAR
EXTRN	__imp__GetMenuItemInfoA@16:NEAR
EXTRN	?DrawTextA@CDC@@QAEHABV?$CStringT@DV?$StrTraitMFC_DLL@DV?$ChTraitsCRT@D@ATL@@@@@ATL@@PAUtagRECT@@I@Z:NEAR ; CDC::DrawTextA
EXTRN	?DrawEdge@CDC@@QAEHPAUtagRECT@@II@Z:NEAR	; CDC::DrawEdge
EXTRN	?DeleteObject@CGdiObject@@QAEHXZ:NEAR		; CGdiObject::DeleteObject
EXTRN	??0CPen@@QAE@XZ:NEAR				; CPen::CPen
EXTRN	?CreatePen@CPen@@QAEHHHK@Z:NEAR			; CPen::CreatePen
EXTRN	??1CPen@@UAE@XZ:NEAR				; CPen::~CPen
EXTRN	??0CBrush@@QAE@XZ:NEAR				; CBrush::CBrush
EXTRN	?CreateSolidBrush@CBrush@@QAEHK@Z:NEAR		; CBrush::CreateSolidBrush
EXTRN	??1CBrush@@UAE@XZ:NEAR				; CBrush::~CBrush
EXTRN	??0CPoint@@QAE@HH@Z:NEAR			; CPoint::CPoint
EXTRN	?Draw3dRect@CDC@@QAEXPBUtagRECT@@KK@Z:NEAR	; CDC::Draw3dRect
EXTRN	??0CRect@@QAE@XZ:NEAR				; CRect::CRect
EXTRN	??0CBitmap@@QAE@XZ:NEAR				; CBitmap::CBitmap
EXTRN	??0CRect@@QAE@HHHH@Z:NEAR			; CRect::CRect
EXTRN	?Height@CRect@@QBEHXZ:NEAR			; CRect::Height
EXTRN	??BCRect@@QAEPAUtagRECT@@XZ:NEAR		; CRect::operator tagRECT *
EXTRN	??BCBitmap@@QBEPAUHBITMAP__@@XZ:NEAR		; CBitmap::operator HBITMAP__ *
EXTRN	?SetRect@CRect@@QAEXHHHH@Z:NEAR			; CRect::SetRect
EXTRN	??1CBitmap@@UAE@XZ:NEAR				; CBitmap::~CBitmap
EXTRN	?CopyRect@CRect@@QAEXPBUtagRECT@@@Z:NEAR	; CRect::CopyRect
EXTRN	__fltused:NEAR
EXTRN	__imp_?Empty@?$CSimpleStringT@D$00@ATL@@QAEXXZ:NEAR
EXTRN	__imp_?IsEmpty@?$CSimpleStringT@D$00@ATL@@QBE_NXZ:NEAR
EXTRN	?SelectObject@CDC@@QAEPAVCPen@@PAV2@@Z:NEAR	; CDC::SelectObject
EXTRN	?GetBkMode@CDC@@QBEHXZ:NEAR			; CDC::GetBkMode
EXTRN	?SetBkMode@CDC@@QAEHH@Z:NEAR			; CDC::SetBkMode
EXTRN	__imp_??4?$CStringT@DV?$StrTraitMFC_DLL@DV?$ChTraitsCRT@D@ATL@@@@@ATL@@QAEAAV01@ABV01@@Z:NEAR
EXTRN	__imp_?Find@?$CStringT@DV?$StrTraitMFC_DLL@DV?$ChTraitsCRT@D@ATL@@@@@ATL@@QBEHDH@Z:NEAR
EXTRN	__imp_?ReverseFind@?$CStringT@DV?$StrTraitMFC_DLL@DV?$ChTraitsCRT@D@ATL@@@@@ATL@@QBEHD@Z:NEAR
EXTRN	?FillRect@CDC@@QAEXPBUtagRECT@@PAVCBrush@@@Z:NEAR ; CDC::FillRect
EXTRN	?Draw@CImageList@@QAEHPAVCDC@@HUtagPOINT@@I@Z:NEAR ; CImageList::Draw
xdata$x	SEGMENT
$T192156 DD	0ffffffffH
	DD	FLAT:$L192121
	DD	00H
	DD	FLAT:$L192122
	DD	01H
	DD	FLAT:$L192123
	DD	02H
	DD	FLAT:$L192124
	DD	03H
	DD	FLAT:$L192125
	DD	03H
	DD	FLAT:$L192126
	DD	03H
	DD	FLAT:$L192127
	DD	03H
	DD	FLAT:$L192128
	DD	07H
	DD	FLAT:$L192129
	DD	08H
	DD	FLAT:$L192130
	DD	08H
	DD	FLAT:$L192131
$T192133 DD	019930520H
	DD	0bH
	DD	FLAT:$T192156
	DD	2 DUP(00H)
	DD	2 DUP(00H)
xdata$x	ENDS
;	COMDAT __real@3fe3333333333333
CONST	SEGMENT
__real@3fe3333333333333 DQ 03fe3333333333333r	; 0.6
; Function compile flags: /Odt /RTCsu
CONST	ENDS
_TEXT	SEGMENT
tv772 = -496						; size = 4
tv777 = -492						; size = 4
tv770 = -488						; size = 4
tv774 = -484						; size = 4
tv585 = -480						; size = 4
tv764 = -476						; size = 4
tv146 = -472						; size = 4
$T192120 = -468						; size = 4
$T192119 = -464						; size = 4
$T192116 = -460						; size = 8
$T192115 = -452						; size = 8
$T192114 = -444						; size = 8
$T192113 = -436						; size = 8
$T192112 = -428						; size = 4
_offset$188098 = -420					; size = 16
_nFormatr$188093 = -400					; size = 4
_nFormat$188092 = -396					; size = 4
_iOldMode$188091 = -392					; size = 4
_tablocr$188086 = -388					; size = 4
_rightStr$188085 = -380					; size = 4
_leftStr$188084 = -368					; size = 4
_rectt$188083 = -356					; size = 16
_info$188078 = -332					; size = 48
_ptImage$188074 = -276					; size = 8
_col$188071 = -264					; size = 4
_brush$188070 = -256					; size = 8
_ptImage$188065 = -240					; size = 8
_bitmapstandard$188054 = -224				; size = 8
_ptImage$188046 = -208					; size = 8
_pOldPen$188042 = -196					; size = 4
_pOldPen$188038 = -192					; size = 4
_strText$188018 = -184					; size = 4
_state$188017 = -176					; size = 4
_bitmap$188016 = -172					; size = 4
_global_offset$188015 = -168				; size = 4
_xoffset$188014 = -164					; size = 4
_nIconNormal$188013 = -160				; size = 4
_dy$188012 = -156					; size = 4
_y0$188011 = -152					; size = 4
_x0$188010 = -148					; size = 4
_m_penBack$188009 = -140				; size = 8
_m_brSelect$188008 = -124				; size = 8
_crText$188007 = -112					; size = 4
_checkflag$188006 = -108				; size = 4
_disableflag$188005 = -104				; size = 4
_selectedflag$188004 = -100				; size = 4
_standardflag$188003 = -96				; size = 4
_rect2$188002 = -88					; size = 16
_m_clrBack$ = -68					; size = 4
_m_brBackground$ = -60					; size = 8
_state$ = -48						; size = 4
_rect$ = -40						; size = 16
_pDC$ = -20						; size = 4
_this$ = -16						; size = 4
__$EHRec$ = -12						; size = 12
_lpDIS$ = 8						; size = 4
?DrawItem_Win9xNT2000@BCMenu@@IAEXPAUtagDRAWITEMSTRUCT@@@Z PROC NEAR ; BCMenu::DrawItem_Win9xNT2000
; _this$ = ecx

; 348  : {

  00c50	55		 push	 ebp
  00c51	8b ec		 mov	 ebp, esp
  00c53	6a ff		 push	 -1
  00c55	68 00 00 00 00	 push	 __ehhandler$?DrawItem_Win9xNT2000@BCMenu@@IAEXPAUtagDRAWITEMSTRUCT@@@Z
  00c5a	64 a1 00 00 00
	00		 mov	 eax, DWORD PTR fs:__except_list
  00c60	50		 push	 eax
  00c61	64 89 25 00 00
	00 00		 mov	 DWORD PTR fs:__except_list, esp
  00c68	81 ec e4 01 00
	00		 sub	 esp, 484		; 000001e4H
  00c6e	56		 push	 esi
  00c6f	57		 push	 edi
  00c70	51		 push	 ecx
  00c71	8d bd 10 fe ff
	ff		 lea	 edi, DWORD PTR [ebp-496]
  00c77	b9 79 00 00 00	 mov	 ecx, 121		; 00000079H
  00c7c	b8 cc cc cc cc	 mov	 eax, -858993460		; ccccccccH
  00c81	f3 ab		 rep stosd
  00c83	59		 pop	 ecx
  00c84	89 4d f0	 mov	 DWORD PTR _this$[ebp], ecx

; 349  : 	ASSERT(lpDIS != NULL);

  00c87	83 7d 08 00	 cmp	 DWORD PTR _lpDIS$[ebp], 0
  00c8b	75 14		 jne	 SHORT $L192111
  00c8d	68 5d 01 00 00	 push	 349			; 0000015dH
  00c92	68 00 00 00 00	 push	 OFFSET FLAT:_THIS_FILE
  00c97	e8 00 00 00 00	 call	 ?AfxAssertFailedLine@@YGHPBDH@Z ; AfxAssertFailedLine
  00c9c	85 c0		 test	 eax, eax
  00c9e	74 01		 je	 SHORT $L192111
  00ca0	cc		 int	 3
$L192111:

; 350  : 	CDC* pDC = CDC::FromHandle(lpDIS->hDC);

  00ca1	8b 4d 08	 mov	 ecx, DWORD PTR _lpDIS$[ebp]
  00ca4	8b 51 18	 mov	 edx, DWORD PTR [ecx+24]
  00ca7	52		 push	 edx
  00ca8	e8 00 00 00 00	 call	 ?FromHandle@CDC@@SGPAV1@PAUHDC__@@@Z ; CDC::FromHandle
  00cad	89 45 ec	 mov	 DWORD PTR _pDC$[ebp], eax

; 351  : 	CRect rect;

  00cb0	8d 4d d8	 lea	 ecx, DWORD PTR _rect$[ebp]
  00cb3	e8 00 00 00 00	 call	 ??0CRect@@QAE@XZ	; CRect::CRect

; 352  : 	UINT state = (((BCMenuData*)(lpDIS->itemData))->nFlags);

  00cb8	8b 45 08	 mov	 eax, DWORD PTR _lpDIS$[ebp]
  00cbb	8b 48 2c	 mov	 ecx, DWORD PTR [eax+44]
  00cbe	8b 51 10	 mov	 edx, DWORD PTR [ecx+16]
  00cc1	89 55 d0	 mov	 DWORD PTR _state$[ebp], edx

; 353  : 	CBrush m_brBackground;

  00cc4	8d 4d c4	 lea	 ecx, DWORD PTR _m_brBackground$[ebp]
  00cc7	e8 00 00 00 00	 call	 ??0CBrush@@QAE@XZ	; CBrush::CBrush
  00ccc	c7 45 fc 00 00
	00 00		 mov	 DWORD PTR __$EHRec$[ebp+8], 0

; 354  : 	COLORREF m_clrBack;
; 355  : //modified by vito--
; 356  : /*	if(IsWinXPLuna())m_clrBack=GetSysColor(COLOR_3DFACE);
; 357  : 	else m_clrBack=GetSysColor(COLOR_MENU);
; 358  : */
; 359  : 	m_clrBack = m_menuItemBkColor;

  00cd3	8b 45 f0	 mov	 eax, DWORD PTR _this$[ebp]
  00cd6	8b 48 54	 mov	 ecx, DWORD PTR [eax+84]
  00cd9	89 4d bc	 mov	 DWORD PTR _m_clrBack$[ebp], ecx

; 360  : //--
; 361  : 	m_brBackground.CreateSolidBrush(m_clrBack);

  00cdc	8b 55 bc	 mov	 edx, DWORD PTR _m_clrBack$[ebp]
  00cdf	52		 push	 edx
  00ce0	8d 4d c4	 lea	 ecx, DWORD PTR _m_brBackground$[ebp]
  00ce3	e8 00 00 00 00	 call	 ?CreateSolidBrush@CBrush@@QAEHK@Z ; CBrush::CreateSolidBrush

; 362  : 
; 363  : 	// remove the selected bit if it's grayed out
; 364  : 	if(lpDIS->itemState & ODS_GRAYED&&!original_select_disabled){

  00ce8	8b 45 08	 mov	 eax, DWORD PTR _lpDIS$[ebp]
  00ceb	8b 48 10	 mov	 ecx, DWORD PTR [eax+16]
  00cee	83 e1 02	 and	 ecx, 2
  00cf1	74 23		 je	 SHORT $L187998
  00cf3	83 3d 00 00 00
	00 00		 cmp	 DWORD PTR ?original_select_disabled@BCMenu@@1HA, 0 ; BCMenu::original_select_disabled
  00cfa	75 1a		 jne	 SHORT $L187998

; 365  : 		if(lpDIS->itemState & ODS_SELECTED)lpDIS->itemState=lpDIS->itemState & ~ODS_SELECTED;

  00cfc	8b 55 08	 mov	 edx, DWORD PTR _lpDIS$[ebp]
  00cff	8b 42 10	 mov	 eax, DWORD PTR [edx+16]
  00d02	83 e0 01	 and	 eax, 1
  00d05	74 0f		 je	 SHORT $L187998
  00d07	8b 4d 08	 mov	 ecx, DWORD PTR _lpDIS$[ebp]
  00d0a	8b 51 10	 mov	 edx, DWORD PTR [ecx+16]
  00d0d	83 e2 fe	 and	 edx, -2			; fffffffeH
  00d10	8b 45 08	 mov	 eax, DWORD PTR _lpDIS$[ebp]
  00d13	89 50 10	 mov	 DWORD PTR [eax+16], edx
$L187998:

; 366  : 	}
; 367  : 	
; 368  : 	if(state & MF_SEPARATOR){

  00d16	8b 4d d0	 mov	 ecx, DWORD PTR _state$[ebp]
  00d19	81 e1 00 08 00
	00		 and	 ecx, 2048		; 00000800H
  00d1f	74 49		 je	 SHORT $L188000

; 369  : 		rect.CopyRect(&lpDIS->rcItem);

  00d21	8b 55 08	 mov	 edx, DWORD PTR _lpDIS$[ebp]
  00d24	83 c2 1c	 add	 edx, 28			; 0000001cH
  00d27	52		 push	 edx
  00d28	8d 4d d8	 lea	 ecx, DWORD PTR _rect$[ebp]
  00d2b	e8 00 00 00 00	 call	 ?CopyRect@CRect@@QAEXPBUtagRECT@@@Z ; CRect::CopyRect

; 370  : 		pDC->FillRect (rect,&m_brBackground);

  00d30	8d 45 c4	 lea	 eax, DWORD PTR _m_brBackground$[ebp]
  00d33	50		 push	 eax
  00d34	8d 4d d8	 lea	 ecx, DWORD PTR _rect$[ebp]
  00d37	e8 00 00 00 00	 call	 ??BCRect@@QAEPAUtagRECT@@XZ ; CRect::operator tagRECT *
  00d3c	50		 push	 eax
  00d3d	8b 4d ec	 mov	 ecx, DWORD PTR _pDC$[ebp]
  00d40	e8 00 00 00 00	 call	 ?FillRect@CDC@@QAEXPBUtagRECT@@PAVCBrush@@@Z ; CDC::FillRect

; 371  : 		rect.top += (rect.Height()>>1);

  00d45	8d 4d d8	 lea	 ecx, DWORD PTR _rect$[ebp]
  00d48	e8 00 00 00 00	 call	 ?Height@CRect@@QBEHXZ	; CRect::Height
  00d4d	d1 f8		 sar	 eax, 1
  00d4f	03 45 dc	 add	 eax, DWORD PTR _rect$[ebp+4]
  00d52	89 45 dc	 mov	 DWORD PTR _rect$[ebp+4], eax

; 372  : 		pDC->DrawEdge(&rect,EDGE_ETCHED,BF_TOP);

  00d55	6a 02		 push	 2
  00d57	6a 06		 push	 6
  00d59	8d 4d d8	 lea	 ecx, DWORD PTR _rect$[ebp]
  00d5c	51		 push	 ecx
  00d5d	8b 4d ec	 mov	 ecx, DWORD PTR _pDC$[ebp]
  00d60	e8 00 00 00 00	 call	 ?DrawEdge@CDC@@QAEHPAUtagRECT@@II@Z ; CDC::DrawEdge

; 373  : 	}
; 374  : 	else{

  00d65	e9 a6 0f 00 00	 jmp	 $L188001
$L188000:

; 375  : 		CRect rect2;

  00d6a	8d 4d a8	 lea	 ecx, DWORD PTR _rect2$188002[ebp]
  00d6d	e8 00 00 00 00	 call	 ??0CRect@@QAE@XZ	; CRect::CRect

; 376  : 		BOOL standardflag=FALSE,selectedflag=FALSE,disableflag=FALSE;

  00d72	c7 45 a0 00 00
	00 00		 mov	 DWORD PTR _standardflag$188003[ebp], 0
  00d79	c7 45 9c 00 00
	00 00		 mov	 DWORD PTR _selectedflag$188004[ebp], 0
  00d80	c7 45 98 00 00
	00 00		 mov	 DWORD PTR _disableflag$188005[ebp], 0

; 377  : 		BOOL checkflag=FALSE;

  00d87	c7 45 94 00 00
	00 00		 mov	 DWORD PTR _checkflag$188006[ebp], 0

; 378  : 		COLORREF crText = GetSysColor(COLOR_MENUTEXT);

  00d8e	8b f4		 mov	 esi, esp
  00d90	6a 07		 push	 7
  00d92	ff 15 00 00 00
	00		 call	 DWORD PTR __imp__GetSysColor@4
  00d98	3b f4		 cmp	 esi, esp
  00d9a	e8 00 00 00 00	 call	 __RTC_CheckEsp
  00d9f	89 45 90	 mov	 DWORD PTR _crText$188007[ebp], eax

; 379  : 		CBrush m_brSelect;

  00da2	8d 4d 84	 lea	 ecx, DWORD PTR _m_brSelect$188008[ebp]
  00da5	e8 00 00 00 00	 call	 ??0CBrush@@QAE@XZ	; CBrush::CBrush
  00daa	c6 45 fc 01	 mov	 BYTE PTR __$EHRec$[ebp+8], 1

; 380  : 		CPen m_penBack;

  00dae	8d 8d 74 ff ff
	ff		 lea	 ecx, DWORD PTR _m_penBack$188009[ebp]
  00db4	e8 00 00 00 00	 call	 ??0CPen@@QAE@XZ		; CPen::CPen
  00db9	c6 45 fc 02	 mov	 BYTE PTR __$EHRec$[ebp+8], 2

; 381  : 		int x0,y0,dy;
; 382  : 		int nIconNormal=-1,xoffset=-1,global_offset=-1;

  00dbd	c7 85 60 ff ff
	ff ff ff ff ff	 mov	 DWORD PTR _nIconNormal$188013[ebp], -1
  00dc7	c7 85 5c ff ff
	ff ff ff ff ff	 mov	 DWORD PTR _xoffset$188014[ebp], -1
  00dd1	c7 85 58 ff ff
	ff ff ff ff ff	 mov	 DWORD PTR _global_offset$188015[ebp], -1

; 383  : 		CImageList *bitmap=NULL;

  00ddb	c7 85 54 ff ff
	ff 00 00 00 00	 mov	 DWORD PTR _bitmap$188016[ebp], 0

; 384  : 		
; 385  : 		// set some colors
; 386  : 		m_penBack.CreatePen (PS_SOLID,0,m_clrBack);

  00de5	8b 55 bc	 mov	 edx, DWORD PTR _m_clrBack$[ebp]
  00de8	52		 push	 edx
  00de9	6a 00		 push	 0
  00deb	6a 00		 push	 0
  00ded	8d 8d 74 ff ff
	ff		 lea	 ecx, DWORD PTR _m_penBack$188009[ebp]
  00df3	e8 00 00 00 00	 call	 ?CreatePen@CPen@@QAEHHHK@Z ; CPen::CreatePen

; 387  : 		m_brSelect.CreateSolidBrush(GetSysColor(COLOR_HIGHLIGHT));

  00df8	8b f4		 mov	 esi, esp
  00dfa	6a 0d		 push	 13			; 0000000dH
  00dfc	ff 15 00 00 00
	00		 call	 DWORD PTR __imp__GetSysColor@4
  00e02	3b f4		 cmp	 esi, esp
  00e04	e8 00 00 00 00	 call	 __RTC_CheckEsp
  00e09	50		 push	 eax
  00e0a	8d 4d 84	 lea	 ecx, DWORD PTR _m_brSelect$188008[ebp]
  00e0d	e8 00 00 00 00	 call	 ?CreateSolidBrush@CBrush@@QAEHK@Z ; CBrush::CreateSolidBrush

; 388  : 		
; 389  : 		// draw the colored rectangle portion
; 390  : 		
; 391  : 		rect.CopyRect(&lpDIS->rcItem);

  00e12	8b 45 08	 mov	 eax, DWORD PTR _lpDIS$[ebp]
  00e15	83 c0 1c	 add	 eax, 28			; 0000001cH
  00e18	50		 push	 eax
  00e19	8d 4d d8	 lea	 ecx, DWORD PTR _rect$[ebp]
  00e1c	e8 00 00 00 00	 call	 ?CopyRect@CRect@@QAEXPBUtagRECT@@@Z ; CRect::CopyRect

; 392  : 		rect2=rect;

  00e21	8b 4d d8	 mov	 ecx, DWORD PTR _rect$[ebp]
  00e24	89 4d a8	 mov	 DWORD PTR _rect2$188002[ebp], ecx
  00e27	8b 55 dc	 mov	 edx, DWORD PTR _rect$[ebp+4]
  00e2a	89 55 ac	 mov	 DWORD PTR _rect2$188002[ebp+4], edx
  00e2d	8b 45 e0	 mov	 eax, DWORD PTR _rect$[ebp+8]
  00e30	89 45 b0	 mov	 DWORD PTR _rect2$188002[ebp+8], eax
  00e33	8b 4d e4	 mov	 ecx, DWORD PTR _rect$[ebp+12]
  00e36	89 4d b4	 mov	 DWORD PTR _rect2$188002[ebp+12], ecx

; 393  : 		
; 394  : 		// draw the up/down/focused/disabled state
; 395  : 		
; 396  : 		UINT state = lpDIS->itemState;

  00e39	8b 55 08	 mov	 edx, DWORD PTR _lpDIS$[ebp]
  00e3c	8b 42 10	 mov	 eax, DWORD PTR [edx+16]
  00e3f	89 85 50 ff ff
	ff		 mov	 DWORD PTR _state$188017[ebp], eax

; 397  : 		CString strText;

  00e45	8b f4		 mov	 esi, esp
  00e47	8d 8d 48 ff ff
	ff		 lea	 ecx, DWORD PTR _strText$188018[ebp]
  00e4d	ff 15 00 00 00
	00		 call	 DWORD PTR __imp_??0?$CStringT@DV?$StrTraitMFC_DLL@DV?$ChTraitsCRT@D@ATL@@@@@ATL@@QAE@XZ
  00e53	3b f4		 cmp	 esi, esp
  00e55	e8 00 00 00 00	 call	 __RTC_CheckEsp
  00e5a	c6 45 fc 03	 mov	 BYTE PTR __$EHRec$[ebp+8], 3

; 398  : 		
; 399  : 		if(lpDIS->itemData != NULL){

  00e5e	8b 4d 08	 mov	 ecx, DWORD PTR _lpDIS$[ebp]
  00e61	83 79 2c 00	 cmp	 DWORD PTR [ecx+44], 0
  00e65	0f 84 51 01 00
	00		 je	 $L188019

; 400  : 			nIconNormal = (((BCMenuData*)(lpDIS->itemData))->menuIconNormal);

  00e6b	8b 55 08	 mov	 edx, DWORD PTR _lpDIS$[ebp]
  00e6e	8b 42 2c	 mov	 eax, DWORD PTR [edx+44]
  00e71	8b 48 0c	 mov	 ecx, DWORD PTR [eax+12]
  00e74	89 8d 60 ff ff
	ff		 mov	 DWORD PTR _nIconNormal$188013[ebp], ecx

; 401  : 			xoffset = (((BCMenuData*)(lpDIS->itemData))->xoffset);

  00e7a	8b 55 08	 mov	 edx, DWORD PTR _lpDIS$[ebp]
  00e7d	8b 42 2c	 mov	 eax, DWORD PTR [edx+44]
  00e80	8b 48 04	 mov	 ecx, DWORD PTR [eax+4]
  00e83	89 8d 5c ff ff
	ff		 mov	 DWORD PTR _xoffset$188014[ebp], ecx

; 402  : 			global_offset = (((BCMenuData*)(lpDIS->itemData))->global_offset);

  00e89	8b 55 08	 mov	 edx, DWORD PTR _lpDIS$[ebp]
  00e8c	8b 42 2c	 mov	 eax, DWORD PTR [edx+44]
  00e8f	8b 48 08	 mov	 ecx, DWORD PTR [eax+8]
  00e92	89 8d 58 ff ff
	ff		 mov	 DWORD PTR _global_offset$188015[ebp], ecx

; 403  : 			bitmap = (((BCMenuData*)(lpDIS->itemData))->bitmap);

  00e98	8b 55 08	 mov	 edx, DWORD PTR _lpDIS$[ebp]
  00e9b	8b 42 2c	 mov	 eax, DWORD PTR [edx+44]
  00e9e	8b 48 1c	 mov	 ecx, DWORD PTR [eax+28]
  00ea1	89 8d 54 ff ff
	ff		 mov	 DWORD PTR _bitmap$188016[ebp], ecx

; 404  : 			strText = ((BCMenuData*) (lpDIS->itemData))->GetString();

  00ea7	8d 95 54 fe ff
	ff		 lea	 edx, DWORD PTR $T192112[ebp]
  00ead	52		 push	 edx
  00eae	8b 45 08	 mov	 eax, DWORD PTR _lpDIS$[ebp]
  00eb1	8b 48 2c	 mov	 ecx, DWORD PTR [eax+44]
  00eb4	e8 00 00 00 00	 call	 ?GetString@BCMenuData@@QAE?AV?$CStringT@DV?$StrTraitMFC_DLL@DV?$ChTraitsCRT@D@ATL@@@@@ATL@@XZ ; BCMenuData::GetString
  00eb9	89 85 28 fe ff
	ff		 mov	 DWORD PTR tv146[ebp], eax
  00ebf	8b 8d 28 fe ff
	ff		 mov	 ecx, DWORD PTR tv146[ebp]
  00ec5	89 8d 24 fe ff
	ff		 mov	 DWORD PTR tv764[ebp], ecx
  00ecb	c6 45 fc 04	 mov	 BYTE PTR __$EHRec$[ebp+8], 4
  00ecf	8b f4		 mov	 esi, esp
  00ed1	8b 95 24 fe ff
	ff		 mov	 edx, DWORD PTR tv764[ebp]
  00ed7	52		 push	 edx
  00ed8	8d 8d 48 ff ff
	ff		 lea	 ecx, DWORD PTR _strText$188018[ebp]
  00ede	ff 15 00 00 00
	00		 call	 DWORD PTR __imp_??4?$CStringT@DV?$StrTraitMFC_DLL@DV?$ChTraitsCRT@D@ATL@@@@@ATL@@QAEAAV01@ABV01@@Z
  00ee4	3b f4		 cmp	 esi, esp
  00ee6	e8 00 00 00 00	 call	 __RTC_CheckEsp
  00eeb	c6 45 fc 03	 mov	 BYTE PTR __$EHRec$[ebp+8], 3
  00eef	8b f4		 mov	 esi, esp
  00ef1	8d 8d 54 fe ff
	ff		 lea	 ecx, DWORD PTR $T192112[ebp]
  00ef7	ff 15 00 00 00
	00		 call	 DWORD PTR __imp_??1?$CStringT@DV?$StrTraitMFC_DLL@DV?$ChTraitsCRT@D@ATL@@@@@ATL@@QAE@XZ
  00efd	3b f4		 cmp	 esi, esp
  00eff	e8 00 00 00 00	 call	 __RTC_CheckEsp

; 405  : 
; 406  : 			if(nIconNormal<0&&global_offset>=0){

  00f04	83 bd 60 ff ff
	ff 00		 cmp	 DWORD PTR _nIconNormal$188013[ebp], 0
  00f0b	7d 29		 jge	 SHORT $L188026
  00f0d	83 bd 58 ff ff
	ff 00		 cmp	 DWORD PTR _global_offset$188015[ebp], 0
  00f14	7c 20		 jl	 SHORT $L188026

; 407  : 				xoffset=global_offset;

  00f16	8b 85 58 ff ff
	ff		 mov	 eax, DWORD PTR _global_offset$188015[ebp]
  00f1c	89 85 5c ff ff
	ff		 mov	 DWORD PTR _xoffset$188014[ebp], eax

; 408  : 				nIconNormal=0;

  00f22	c7 85 60 ff ff
	ff 00 00 00 00	 mov	 DWORD PTR _nIconNormal$188013[ebp], 0

; 409  : 				bitmap = &m_AllImages;

  00f2c	c7 85 54 ff ff
	ff 00 00 00 00	 mov	 DWORD PTR _bitmap$188016[ebp], OFFSET FLAT:?m_AllImages@BCMenu@@1VCImageList@@A ; BCMenu::m_AllImages
$L188026:

; 410  : 			}
; 411  : 			
; 412  : 			if(state&ODS_CHECKED && nIconNormal<0){

  00f36	8b 8d 50 ff ff
	ff		 mov	 ecx, DWORD PTR _state$188017[ebp]
  00f3c	83 e1 08	 and	 ecx, 8
  00f3f	74 38		 je	 SHORT $L188027
  00f41	83 bd 60 ff ff
	ff 00		 cmp	 DWORD PTR _nIconNormal$188013[ebp], 0
  00f48	7d 2f		 jge	 SHORT $L188027

; 413  : 				if(state&ODS_SELECTED && m_selectcheck>0)checkflag=TRUE;

  00f4a	8b 95 50 ff ff
	ff		 mov	 edx, DWORD PTR _state$188017[ebp]
  00f50	83 e2 01	 and	 edx, 1
  00f53	74 12		 je	 SHORT $L188028
  00f55	8b 45 f0	 mov	 eax, DWORD PTR _this$[ebp]
  00f58	83 78 44 00	 cmp	 DWORD PTR [eax+68], 0
  00f5c	7e 09		 jle	 SHORT $L188028
  00f5e	c7 45 94 01 00
	00 00		 mov	 DWORD PTR _checkflag$188006[ebp], 1

; 414  : 				else if(m_unselectcheck>0) checkflag=TRUE;

  00f65	eb 10		 jmp	 SHORT $L188029
$L188028:
  00f67	8b 4d f0	 mov	 ecx, DWORD PTR _this$[ebp]
  00f6a	83 79 48 00	 cmp	 DWORD PTR [ecx+72], 0
  00f6e	7e 07		 jle	 SHORT $L188029
  00f70	c7 45 94 01 00
	00 00		 mov	 DWORD PTR _checkflag$188006[ebp], 1
$L188029:

; 415  : 			}
; 416  : 			else if(nIconNormal != -1){

  00f77	eb 41		 jmp	 SHORT $L188031
$L188027:
  00f79	83 bd 60 ff ff
	ff ff		 cmp	 DWORD PTR _nIconNormal$188013[ebp], -1
  00f80	74 38		 je	 SHORT $L188031

; 417  : 				standardflag=TRUE;

  00f82	c7 45 a0 01 00
	00 00		 mov	 DWORD PTR _standardflag$188003[ebp], 1

; 418  : 				if(state&ODS_SELECTED && !(state&ODS_GRAYED))selectedflag=TRUE;

  00f89	8b 95 50 ff ff
	ff		 mov	 edx, DWORD PTR _state$188017[ebp]
  00f8f	83 e2 01	 and	 edx, 1
  00f92	74 14		 je	 SHORT $L188033
  00f94	8b 85 50 ff ff
	ff		 mov	 eax, DWORD PTR _state$188017[ebp]
  00f9a	83 e0 02	 and	 eax, 2
  00f9d	75 09		 jne	 SHORT $L188033
  00f9f	c7 45 9c 01 00
	00 00		 mov	 DWORD PTR _selectedflag$188004[ebp], 1

; 419  : 				else if(state&ODS_GRAYED) disableflag=TRUE;

  00fa6	eb 12		 jmp	 SHORT $L188031
$L188033:
  00fa8	8b 8d 50 ff ff
	ff		 mov	 ecx, DWORD PTR _state$188017[ebp]
  00fae	83 e1 02	 and	 ecx, 2
  00fb1	74 07		 je	 SHORT $L188031
  00fb3	c7 45 98 01 00
	00 00		 mov	 DWORD PTR _disableflag$188005[ebp], 1
$L188031:

; 420  : 			}
; 421  : 		}
; 422  : 		else{

  00fba	eb 15		 jmp	 SHORT $L188036
$L188019:

; 423  : 			strText.Empty();

  00fbc	8b f4		 mov	 esi, esp
  00fbe	8d 8d 48 ff ff
	ff		 lea	 ecx, DWORD PTR _strText$188018[ebp]
  00fc4	ff 15 00 00 00
	00		 call	 DWORD PTR __imp_?Empty@?$CSimpleStringT@D$00@ATL@@QAEXXZ
  00fca	3b f4		 cmp	 esi, esp
  00fcc	e8 00 00 00 00	 call	 __RTC_CheckEsp
$L188036:

; 424  : 		}
; 425  : 		
; 426  : 		if(state&ODS_SELECTED){ // draw the down edges

  00fd1	8b 95 50 ff ff
	ff		 mov	 edx, DWORD PTR _state$188017[ebp]
  00fd7	83 e2 01	 and	 edx, 1
  00fda	0f 84 94 00 00
	00		 je	 $L188037

; 427  : 			
; 428  : 			CPen *pOldPen = pDC->SelectObject (&m_penBack);

  00fe0	8d 85 74 ff ff
	ff		 lea	 eax, DWORD PTR _m_penBack$188009[ebp]
  00fe6	50		 push	 eax
  00fe7	8b 4d ec	 mov	 ecx, DWORD PTR _pDC$[ebp]
  00fea	e8 00 00 00 00	 call	 ?SelectObject@CDC@@QAEPAVCPen@@PAV2@@Z ; CDC::SelectObject
  00fef	89 85 40 ff ff
	ff		 mov	 DWORD PTR _pOldPen$188038[ebp], eax

; 429  : 			
; 430  : 			// You need only Text highlight and thats what you get
; 431  : 			
; 432  : 			if(checkflag||standardflag||selectedflag||disableflag||state&ODS_CHECKED)

  00ff5	83 7d 94 00	 cmp	 DWORD PTR _checkflag$188006[ebp], 0
  00ff9	75 1d		 jne	 SHORT $L188040
  00ffb	83 7d a0 00	 cmp	 DWORD PTR _standardflag$188003[ebp], 0
  00fff	75 17		 jne	 SHORT $L188040
  01001	83 7d 9c 00	 cmp	 DWORD PTR _selectedflag$188004[ebp], 0
  01005	75 11		 jne	 SHORT $L188040
  01007	83 7d 98 00	 cmp	 DWORD PTR _disableflag$188005[ebp], 0
  0100b	75 0b		 jne	 SHORT $L188040
  0100d	8b 8d 50 ff ff
	ff		 mov	 ecx, DWORD PTR _state$188017[ebp]
  01013	83 e1 08	 and	 ecx, 8
  01016	74 22		 je	 SHORT $L188039
$L188040:

; 433  : 				rect2.SetRect(rect.left+m_iconX+4+BCMENU_GAP,rect.top,rect.right,rect.bottom);

  01018	8b 55 e4	 mov	 edx, DWORD PTR _rect$[ebp+12]
  0101b	52		 push	 edx
  0101c	8b 45 e0	 mov	 eax, DWORD PTR _rect$[ebp+8]
  0101f	50		 push	 eax
  01020	8b 4d dc	 mov	 ecx, DWORD PTR _rect$[ebp+4]
  01023	51		 push	 ecx
  01024	8b 15 00 00 00
	00		 mov	 edx, DWORD PTR ?m_iconX@BCMenu@@1HA ; BCMenu::m_iconX
  0102a	8b 45 d8	 mov	 eax, DWORD PTR _rect$[ebp]
  0102d	8d 4c 10 05	 lea	 ecx, DWORD PTR [eax+edx+5]
  01031	51		 push	 ecx
  01032	8d 4d a8	 lea	 ecx, DWORD PTR _rect2$188002[ebp]
  01035	e8 00 00 00 00	 call	 ?SetRect@CRect@@QAEXHHHH@Z ; CRect::SetRect
$L188039:

; 434  : 			pDC->FillRect (rect2,&m_brSelect);

  0103a	8d 55 84	 lea	 edx, DWORD PTR _m_brSelect$188008[ebp]
  0103d	52		 push	 edx
  0103e	8d 4d a8	 lea	 ecx, DWORD PTR _rect2$188002[ebp]
  01041	e8 00 00 00 00	 call	 ??BCRect@@QAEPAUtagRECT@@XZ ; CRect::operator tagRECT *
  01046	50		 push	 eax
  01047	8b 4d ec	 mov	 ecx, DWORD PTR _pDC$[ebp]
  0104a	e8 00 00 00 00	 call	 ?FillRect@CDC@@QAEXPBUtagRECT@@PAVCBrush@@@Z ; CDC::FillRect

; 435  : 			
; 436  : 			pDC->SelectObject (pOldPen);

  0104f	8b 85 40 ff ff
	ff		 mov	 eax, DWORD PTR _pOldPen$188038[ebp]
  01055	50		 push	 eax
  01056	8b 4d ec	 mov	 ecx, DWORD PTR _pDC$[ebp]
  01059	e8 00 00 00 00	 call	 ?SelectObject@CDC@@QAEPAVCPen@@PAV2@@Z ; CDC::SelectObject

; 437  : 			crText = GetSysColor(COLOR_HIGHLIGHTTEXT);

  0105e	8b f4		 mov	 esi, esp
  01060	6a 0e		 push	 14			; 0000000eH
  01062	ff 15 00 00 00
	00		 call	 DWORD PTR __imp__GetSysColor@4
  01068	3b f4		 cmp	 esi, esp
  0106a	e8 00 00 00 00	 call	 __RTC_CheckEsp
  0106f	89 45 90	 mov	 DWORD PTR _crText$188007[ebp], eax

; 438  : 		}
; 439  : 		else {

  01072	eb 52		 jmp	 SHORT $L188041
$L188037:

; 440  : 			CPen *pOldPen = pDC->SelectObject (&m_penBack);

  01074	8d 8d 74 ff ff
	ff		 lea	 ecx, DWORD PTR _m_penBack$188009[ebp]
  0107a	51		 push	 ecx
  0107b	8b 4d ec	 mov	 ecx, DWORD PTR _pDC$[ebp]
  0107e	e8 00 00 00 00	 call	 ?SelectObject@CDC@@QAEPAVCPen@@PAV2@@Z ; CDC::SelectObject
  01083	89 85 3c ff ff
	ff		 mov	 DWORD PTR _pOldPen$188042[ebp], eax

; 441  : 			pDC->FillRect (rect,&m_brBackground);

  01089	8d 55 c4	 lea	 edx, DWORD PTR _m_brBackground$[ebp]
  0108c	52		 push	 edx
  0108d	8d 4d d8	 lea	 ecx, DWORD PTR _rect$[ebp]
  01090	e8 00 00 00 00	 call	 ??BCRect@@QAEPAUtagRECT@@XZ ; CRect::operator tagRECT *
  01095	50		 push	 eax
  01096	8b 4d ec	 mov	 ecx, DWORD PTR _pDC$[ebp]
  01099	e8 00 00 00 00	 call	 ?FillRect@CDC@@QAEXPBUtagRECT@@PAVCBrush@@@Z ; CDC::FillRect

; 442  : 			pDC->SelectObject (pOldPen);

  0109e	8b 85 3c ff ff
	ff		 mov	 eax, DWORD PTR _pOldPen$188042[ebp]
  010a4	50		 push	 eax
  010a5	8b 4d ec	 mov	 ecx, DWORD PTR _pDC$[ebp]
  010a8	e8 00 00 00 00	 call	 ?SelectObject@CDC@@QAEPAVCPen@@PAV2@@Z ; CDC::SelectObject

; 443  : 			
; 444  : 			// draw the up edges	
; 445  : 			pDC->Draw3dRect (rect,m_clrBack,m_clrBack);

  010ad	8b 4d bc	 mov	 ecx, DWORD PTR _m_clrBack$[ebp]
  010b0	51		 push	 ecx
  010b1	8b 55 bc	 mov	 edx, DWORD PTR _m_clrBack$[ebp]
  010b4	52		 push	 edx
  010b5	8d 4d d8	 lea	 ecx, DWORD PTR _rect$[ebp]
  010b8	e8 00 00 00 00	 call	 ??BCRect@@QAEPAUtagRECT@@XZ ; CRect::operator tagRECT *
  010bd	50		 push	 eax
  010be	8b 4d ec	 mov	 ecx, DWORD PTR _pDC$[ebp]
  010c1	e8 00 00 00 00	 call	 ?Draw3dRect@CDC@@QAEXPBUtagRECT@@KK@Z ; CDC::Draw3dRect
$L188041:

; 446  : 		}
; 447  : 		
; 448  : 		// draw the text if there is any
; 449  : 		//We have to paint the text only if the image is nonexistant
; 450  : 		
; 451  : 		dy = (rect.Height()-4-m_iconY)/2;

  010c6	8d 4d d8	 lea	 ecx, DWORD PTR _rect$[ebp]
  010c9	e8 00 00 00 00	 call	 ?Height@CRect@@QBEHXZ	; CRect::Height
  010ce	83 e8 04	 sub	 eax, 4
  010d1	2b 05 00 00 00
	00		 sub	 eax, DWORD PTR ?m_iconY@BCMenu@@1HA ; BCMenu::m_iconY
  010d7	99		 cdq
  010d8	2b c2		 sub	 eax, edx
  010da	d1 f8		 sar	 eax, 1
  010dc	89 85 64 ff ff
	ff		 mov	 DWORD PTR _dy$188012[ebp], eax

; 452  : 		dy = dy<0 ? 0 : dy;

  010e2	33 c0		 xor	 eax, eax
  010e4	83 bd 64 ff ff
	ff 00		 cmp	 DWORD PTR _dy$188012[ebp], 0
  010eb	0f 9c c0	 setl	 al
  010ee	48		 dec	 eax
  010ef	23 85 64 ff ff
	ff		 and	 eax, DWORD PTR _dy$188012[ebp]
  010f5	89 85 64 ff ff
	ff		 mov	 DWORD PTR _dy$188012[ebp], eax

; 453  : 		
; 454  : 		if(checkflag||standardflag||selectedflag||disableflag){

  010fb	83 7d 94 00	 cmp	 DWORD PTR _checkflag$188006[ebp], 0
  010ff	75 16		 jne	 SHORT $L188044
  01101	83 7d a0 00	 cmp	 DWORD PTR _standardflag$188003[ebp], 0
  01105	75 10		 jne	 SHORT $L188044
  01107	83 7d 9c 00	 cmp	 DWORD PTR _selectedflag$188004[ebp], 0
  0110b	75 0a		 jne	 SHORT $L188044
  0110d	83 7d 98 00	 cmp	 DWORD PTR _disableflag$188005[ebp], 0
  01111	0f 84 15 06 00
	00		 je	 $L188043
$L188044:

; 455  : 			rect2.SetRect(rect.left+1,rect.top+1+dy,rect.left+m_iconX+3,
; 456  : 				rect.top+m_iconY+3+dy);

  01117	8b 4d dc	 mov	 ecx, DWORD PTR _rect$[ebp+4]
  0111a	03 0d 00 00 00
	00		 add	 ecx, DWORD PTR ?m_iconY@BCMenu@@1HA ; BCMenu::m_iconY
  01120	8b 95 64 ff ff
	ff		 mov	 edx, DWORD PTR _dy$188012[ebp]
  01126	8d 44 11 03	 lea	 eax, DWORD PTR [ecx+edx+3]
  0112a	50		 push	 eax
  0112b	8b 0d 00 00 00
	00		 mov	 ecx, DWORD PTR ?m_iconX@BCMenu@@1HA ; BCMenu::m_iconX
  01131	8b 55 d8	 mov	 edx, DWORD PTR _rect$[ebp]
  01134	8d 44 0a 03	 lea	 eax, DWORD PTR [edx+ecx+3]
  01138	50		 push	 eax
  01139	8b 8d 64 ff ff
	ff		 mov	 ecx, DWORD PTR _dy$188012[ebp]
  0113f	8b 55 dc	 mov	 edx, DWORD PTR _rect$[ebp+4]
  01142	8d 44 0a 01	 lea	 eax, DWORD PTR [edx+ecx+1]
  01146	50		 push	 eax
  01147	8b 4d d8	 mov	 ecx, DWORD PTR _rect$[ebp]
  0114a	83 c1 01	 add	 ecx, 1
  0114d	51		 push	 ecx
  0114e	8d 4d a8	 lea	 ecx, DWORD PTR _rect2$188002[ebp]
  01151	e8 00 00 00 00	 call	 ?SetRect@CRect@@QAEXHHHH@Z ; CRect::SetRect

; 457  : 			pDC->Draw3dRect (rect2,m_clrBack,m_clrBack);

  01156	8b 55 bc	 mov	 edx, DWORD PTR _m_clrBack$[ebp]
  01159	52		 push	 edx
  0115a	8b 45 bc	 mov	 eax, DWORD PTR _m_clrBack$[ebp]
  0115d	50		 push	 eax
  0115e	8d 4d a8	 lea	 ecx, DWORD PTR _rect2$188002[ebp]
  01161	e8 00 00 00 00	 call	 ??BCRect@@QAEPAUtagRECT@@XZ ; CRect::operator tagRECT *
  01166	50		 push	 eax
  01167	8b 4d ec	 mov	 ecx, DWORD PTR _pDC$[ebp]
  0116a	e8 00 00 00 00	 call	 ?Draw3dRect@CDC@@QAEXPBUtagRECT@@KK@Z ; CDC::Draw3dRect

; 458  : 			if(checkflag && checkmaps){

  0116f	83 7d 94 00	 cmp	 DWORD PTR _checkflag$188006[ebp], 0
  01173	0f 84 16 01 00
	00		 je	 $L188045
  01179	8b 4d f0	 mov	 ecx, DWORD PTR _this$[ebp]
  0117c	83 79 3c 00	 cmp	 DWORD PTR [ecx+60], 0
  01180	0f 84 09 01 00
	00		 je	 $L188045

; 459  : 				pDC->FillRect (rect2,&m_brBackground);

  01186	8d 55 c4	 lea	 edx, DWORD PTR _m_brBackground$[ebp]
  01189	52		 push	 edx
  0118a	8d 4d a8	 lea	 ecx, DWORD PTR _rect2$188002[ebp]
  0118d	e8 00 00 00 00	 call	 ??BCRect@@QAEPAUtagRECT@@XZ ; CRect::operator tagRECT *
  01192	50		 push	 eax
  01193	8b 4d ec	 mov	 ecx, DWORD PTR _pDC$[ebp]
  01196	e8 00 00 00 00	 call	 ?FillRect@CDC@@QAEXPBUtagRECT@@PAVCBrush@@@Z ; CDC::FillRect

; 460  : 				rect2.SetRect(rect.left,rect.top+dy,rect.left+m_iconX+4,
; 461  : 					rect.top+m_iconY+4+dy);

  0119b	8b 45 dc	 mov	 eax, DWORD PTR _rect$[ebp+4]
  0119e	03 05 00 00 00
	00		 add	 eax, DWORD PTR ?m_iconY@BCMenu@@1HA ; BCMenu::m_iconY
  011a4	8b 8d 64 ff ff
	ff		 mov	 ecx, DWORD PTR _dy$188012[ebp]
  011aa	8d 54 08 04	 lea	 edx, DWORD PTR [eax+ecx+4]
  011ae	52		 push	 edx
  011af	a1 00 00 00 00	 mov	 eax, DWORD PTR ?m_iconX@BCMenu@@1HA ; BCMenu::m_iconX
  011b4	8b 4d d8	 mov	 ecx, DWORD PTR _rect$[ebp]
  011b7	8d 54 01 04	 lea	 edx, DWORD PTR [ecx+eax+4]
  011bb	52		 push	 edx
  011bc	8b 45 dc	 mov	 eax, DWORD PTR _rect$[ebp+4]
  011bf	03 85 64 ff ff
	ff		 add	 eax, DWORD PTR _dy$188012[ebp]
  011c5	50		 push	 eax
  011c6	8b 4d d8	 mov	 ecx, DWORD PTR _rect$[ebp]
  011c9	51		 push	 ecx
  011ca	8d 4d a8	 lea	 ecx, DWORD PTR _rect2$188002[ebp]
  011cd	e8 00 00 00 00	 call	 ?SetRect@CRect@@QAEXHHHH@Z ; CRect::SetRect

; 462  : 				
; 463  : 				pDC->Draw3dRect (rect2,m_clrBack,m_clrBack);

  011d2	8b 55 bc	 mov	 edx, DWORD PTR _m_clrBack$[ebp]
  011d5	52		 push	 edx
  011d6	8b 45 bc	 mov	 eax, DWORD PTR _m_clrBack$[ebp]
  011d9	50		 push	 eax
  011da	8d 4d a8	 lea	 ecx, DWORD PTR _rect2$188002[ebp]
  011dd	e8 00 00 00 00	 call	 ??BCRect@@QAEPAUtagRECT@@XZ ; CRect::operator tagRECT *
  011e2	50		 push	 eax
  011e3	8b 4d ec	 mov	 ecx, DWORD PTR _pDC$[ebp]
  011e6	e8 00 00 00 00	 call	 ?Draw3dRect@CDC@@QAEXPBUtagRECT@@KK@Z ; CDC::Draw3dRect

; 464  : 				CPoint ptImage(rect.left+2,rect.top+2+dy);

  011eb	8b 8d 64 ff ff
	ff		 mov	 ecx, DWORD PTR _dy$188012[ebp]
  011f1	8b 55 dc	 mov	 edx, DWORD PTR _rect$[ebp+4]
  011f4	8d 44 0a 02	 lea	 eax, DWORD PTR [edx+ecx+2]
  011f8	50		 push	 eax
  011f9	8b 4d d8	 mov	 ecx, DWORD PTR _rect$[ebp]
  011fc	83 c1 02	 add	 ecx, 2
  011ff	51		 push	 ecx
  01200	8d 8d 30 ff ff
	ff		 lea	 ecx, DWORD PTR _ptImage$188046[ebp]
  01206	e8 00 00 00 00	 call	 ??0CPoint@@QAE@HH@Z	; CPoint::CPoint

; 465  : 				
; 466  : 				if(state&ODS_SELECTED)checkmaps->Draw(pDC,1,ptImage,ILD_TRANSPARENT);

  0120b	8b 95 50 ff ff
	ff		 mov	 edx, DWORD PTR _state$188017[ebp]
  01211	83 e2 01	 and	 edx, 1
  01214	74 3b		 je	 SHORT $L188047
  01216	8b 85 30 ff ff
	ff		 mov	 eax, DWORD PTR _ptImage$188046[ebp]
  0121c	89 85 4c fe ff
	ff		 mov	 DWORD PTR $T192113[ebp], eax
  01222	8b 8d 34 ff ff
	ff		 mov	 ecx, DWORD PTR _ptImage$188046[ebp+4]
  01228	89 8d 50 fe ff
	ff		 mov	 DWORD PTR $T192113[ebp+4], ecx
  0122e	6a 01		 push	 1
  01230	8b 95 50 fe ff
	ff		 mov	 edx, DWORD PTR $T192113[ebp+4]
  01236	52		 push	 edx
  01237	8b 85 4c fe ff
	ff		 mov	 eax, DWORD PTR $T192113[ebp]
  0123d	50		 push	 eax
  0123e	6a 01		 push	 1
  01240	8b 4d ec	 mov	 ecx, DWORD PTR _pDC$[ebp]
  01243	51		 push	 ecx
  01244	8b 55 f0	 mov	 edx, DWORD PTR _this$[ebp]
  01247	8b 4a 3c	 mov	 ecx, DWORD PTR [edx+60]
  0124a	e8 00 00 00 00	 call	 ?Draw@CImageList@@QAEHPAVCDC@@HUtagPOINT@@I@Z ; CImageList::Draw

; 467  : 				else checkmaps->Draw(pDC,0,ptImage,ILD_TRANSPARENT);

  0124f	eb 39		 jmp	 SHORT $L188049
$L188047:
  01251	8b 85 30 ff ff
	ff		 mov	 eax, DWORD PTR _ptImage$188046[ebp]
  01257	89 85 44 fe ff
	ff		 mov	 DWORD PTR $T192114[ebp], eax
  0125d	8b 8d 34 ff ff
	ff		 mov	 ecx, DWORD PTR _ptImage$188046[ebp+4]
  01263	89 8d 48 fe ff
	ff		 mov	 DWORD PTR $T192114[ebp+4], ecx
  01269	6a 01		 push	 1
  0126b	8b 95 48 fe ff
	ff		 mov	 edx, DWORD PTR $T192114[ebp+4]
  01271	52		 push	 edx
  01272	8b 85 44 fe ff
	ff		 mov	 eax, DWORD PTR $T192114[ebp]
  01278	50		 push	 eax
  01279	6a 00		 push	 0
  0127b	8b 4d ec	 mov	 ecx, DWORD PTR _pDC$[ebp]
  0127e	51		 push	 ecx
  0127f	8b 55 f0	 mov	 edx, DWORD PTR _this$[ebp]
  01282	8b 4a 3c	 mov	 ecx, DWORD PTR [edx+60]
  01285	e8 00 00 00 00	 call	 ?Draw@CImageList@@QAEHPAVCDC@@HUtagPOINT@@I@Z ; CImageList::Draw
$L188049:

; 468  : 			}
; 469  : 			else if(disableflag){

  0128a	e9 9d 04 00 00	 jmp	 $L188043
$L188045:
  0128f	83 7d 98 00	 cmp	 DWORD PTR _disableflag$188005[ebp], 0
  01293	0f 84 7f 01 00
	00		 je	 $L188052

; 470  : 				if(!selectedflag){

  01299	83 7d 9c 00	 cmp	 DWORD PTR _selectedflag$188004[ebp], 0
  0129d	0f 85 70 01 00
	00		 jne	 $L188053

; 471  : 					CBitmap bitmapstandard;

  012a3	8d 8d 20 ff ff
	ff		 lea	 ecx, DWORD PTR _bitmapstandard$188054[ebp]
  012a9	e8 00 00 00 00	 call	 ??0CBitmap@@QAE@XZ	; CBitmap::CBitmap
  012ae	c6 45 fc 05	 mov	 BYTE PTR __$EHRec$[ebp+8], 5

; 472  : 					GetBitmapFromImageList(pDC,bitmap,xoffset,bitmapstandard);

  012b2	8d 85 20 ff ff
	ff		 lea	 eax, DWORD PTR _bitmapstandard$188054[ebp]
  012b8	50		 push	 eax
  012b9	8b 8d 5c ff ff
	ff		 mov	 ecx, DWORD PTR _xoffset$188014[ebp]
  012bf	51		 push	 ecx
  012c0	8b 95 54 ff ff
	ff		 mov	 edx, DWORD PTR _bitmap$188016[ebp]
  012c6	52		 push	 edx
  012c7	8b 45 ec	 mov	 eax, DWORD PTR _pDC$[ebp]
  012ca	50		 push	 eax
  012cb	8b 4d f0	 mov	 ecx, DWORD PTR _this$[ebp]
  012ce	e8 00 00 00 00	 call	 ?GetBitmapFromImageList@BCMenu@@IAEHPAVCDC@@PAVCImageList@@HAAVCBitmap@@@Z ; BCMenu::GetBitmapFromImageList

; 473  : 					rect2.SetRect(rect.left,rect.top+dy,rect.left+m_iconX+4,
; 474  :                         rect.top+m_iconY+4+dy);

  012d3	8b 4d dc	 mov	 ecx, DWORD PTR _rect$[ebp+4]
  012d6	03 0d 00 00 00
	00		 add	 ecx, DWORD PTR ?m_iconY@BCMenu@@1HA ; BCMenu::m_iconY
  012dc	8b 95 64 ff ff
	ff		 mov	 edx, DWORD PTR _dy$188012[ebp]
  012e2	8d 44 11 04	 lea	 eax, DWORD PTR [ecx+edx+4]
  012e6	50		 push	 eax
  012e7	8b 0d 00 00 00
	00		 mov	 ecx, DWORD PTR ?m_iconX@BCMenu@@1HA ; BCMenu::m_iconX
  012ed	8b 55 d8	 mov	 edx, DWORD PTR _rect$[ebp]
  012f0	8d 44 0a 04	 lea	 eax, DWORD PTR [edx+ecx+4]
  012f4	50		 push	 eax
  012f5	8b 4d dc	 mov	 ecx, DWORD PTR _rect$[ebp+4]
  012f8	03 8d 64 ff ff
	ff		 add	 ecx, DWORD PTR _dy$188012[ebp]
  012fe	51		 push	 ecx
  012ff	8b 55 d8	 mov	 edx, DWORD PTR _rect$[ebp]
  01302	52		 push	 edx
  01303	8d 4d a8	 lea	 ecx, DWORD PTR _rect2$188002[ebp]
  01306	e8 00 00 00 00	 call	 ?SetRect@CRect@@QAEXHHHH@Z ; CRect::SetRect

; 475  : 					pDC->Draw3dRect (rect2,m_clrBack,m_clrBack);

  0130b	8b 45 bc	 mov	 eax, DWORD PTR _m_clrBack$[ebp]
  0130e	50		 push	 eax
  0130f	8b 4d bc	 mov	 ecx, DWORD PTR _m_clrBack$[ebp]
  01312	51		 push	 ecx
  01313	8d 4d a8	 lea	 ecx, DWORD PTR _rect2$188002[ebp]
  01316	e8 00 00 00 00	 call	 ??BCRect@@QAEPAUtagRECT@@XZ ; CRect::operator tagRECT *
  0131b	50		 push	 eax
  0131c	8b 4d ec	 mov	 ecx, DWORD PTR _pDC$[ebp]
  0131f	e8 00 00 00 00	 call	 ?Draw3dRect@CDC@@QAEXPBUtagRECT@@KK@Z ; CDC::Draw3dRect

; 476  : 					if(disable_old_style)

  01324	8b 55 f0	 mov	 edx, DWORD PTR _this$[ebp]
  01327	83 7a 38 00	 cmp	 DWORD PTR [edx+56], 0
  0132b	74 4b		 je	 SHORT $L188055

; 477  : 						DitherBlt(lpDIS->hDC,rect.left+2,rect.top+2+dy,m_iconX,m_iconY,
; 478  : 						(HBITMAP)(bitmapstandard),0,0,m_clrBack);

  0132d	8b 45 bc	 mov	 eax, DWORD PTR _m_clrBack$[ebp]
  01330	50		 push	 eax
  01331	6a 00		 push	 0
  01333	6a 00		 push	 0
  01335	8d 8d 20 ff ff
	ff		 lea	 ecx, DWORD PTR _bitmapstandard$188054[ebp]
  0133b	e8 00 00 00 00	 call	 ??BCBitmap@@QBEPAUHBITMAP__@@XZ ; CBitmap::operator HBITMAP__ *
  01340	50		 push	 eax
  01341	8b 0d 00 00 00
	00		 mov	 ecx, DWORD PTR ?m_iconY@BCMenu@@1HA ; BCMenu::m_iconY
  01347	51		 push	 ecx
  01348	8b 15 00 00 00
	00		 mov	 edx, DWORD PTR ?m_iconX@BCMenu@@1HA ; BCMenu::m_iconX
  0134e	52		 push	 edx
  0134f	8b 85 64 ff ff
	ff		 mov	 eax, DWORD PTR _dy$188012[ebp]
  01355	8b 4d dc	 mov	 ecx, DWORD PTR _rect$[ebp+4]
  01358	8d 54 01 02	 lea	 edx, DWORD PTR [ecx+eax+2]
  0135c	52		 push	 edx
  0135d	8b 45 d8	 mov	 eax, DWORD PTR _rect$[ebp]
  01360	83 c0 02	 add	 eax, 2
  01363	50		 push	 eax
  01364	8b 4d 08	 mov	 ecx, DWORD PTR _lpDIS$[ebp]
  01367	8b 51 18	 mov	 edx, DWORD PTR [ecx+24]
  0136a	52		 push	 edx
  0136b	8b 4d f0	 mov	 ecx, DWORD PTR _this$[ebp]
  0136e	e8 00 00 00 00	 call	 ?DitherBlt@BCMenu@@IAEXPAUHDC__@@HHHHPAUHBITMAP__@@HHK@Z ; BCMenu::DitherBlt

; 479  : 					else{

  01373	e9 81 00 00 00	 jmp	 $L188057
$L188055:

; 480  : 						if(hicolor_bitmaps)

  01378	83 3d 00 00 00
	00 00		 cmp	 DWORD PTR ?hicolor_bitmaps@BCMenu@@1HA, 0 ; BCMenu::hicolor_bitmaps
  0137f	74 3b		 je	 SHORT $L188058

; 481  : 							DitherBlt3(pDC,rect.left+2,rect.top+2+dy,m_iconX,m_iconY,
; 482  : 							bitmapstandard,m_clrBack);

  01381	8b 45 bc	 mov	 eax, DWORD PTR _m_clrBack$[ebp]
  01384	50		 push	 eax
  01385	8d 8d 20 ff ff
	ff		 lea	 ecx, DWORD PTR _bitmapstandard$188054[ebp]
  0138b	51		 push	 ecx
  0138c	8b 15 00 00 00
	00		 mov	 edx, DWORD PTR ?m_iconY@BCMenu@@1HA ; BCMenu::m_iconY
  01392	52		 push	 edx
  01393	a1 00 00 00 00	 mov	 eax, DWORD PTR ?m_iconX@BCMenu@@1HA ; BCMenu::m_iconX
  01398	50		 push	 eax
  01399	8b 8d 64 ff ff
	ff		 mov	 ecx, DWORD PTR _dy$188012[ebp]
  0139f	8b 55 dc	 mov	 edx, DWORD PTR _rect$[ebp+4]
  013a2	8d 44 0a 02	 lea	 eax, DWORD PTR [edx+ecx+2]
  013a6	50		 push	 eax
  013a7	8b 4d d8	 mov	 ecx, DWORD PTR _rect$[ebp]
  013aa	83 c1 02	 add	 ecx, 2
  013ad	51		 push	 ecx
  013ae	8b 55 ec	 mov	 edx, DWORD PTR _pDC$[ebp]
  013b1	52		 push	 edx
  013b2	8b 4d f0	 mov	 ecx, DWORD PTR _this$[ebp]
  013b5	e8 00 00 00 00	 call	 ?DitherBlt3@BCMenu@@IAEXPAVCDC@@HHHHAAVCBitmap@@K@Z ; BCMenu::DitherBlt3

; 483  : 						else

  013ba	eb 3d		 jmp	 SHORT $L188057
$L188058:

; 484  : 							DitherBlt2(pDC,rect.left+2,rect.top+2+dy,m_iconX,m_iconY,
; 485  : 							bitmapstandard,0,0,m_clrBack);

  013bc	8b 45 bc	 mov	 eax, DWORD PTR _m_clrBack$[ebp]
  013bf	50		 push	 eax
  013c0	6a 00		 push	 0
  013c2	6a 00		 push	 0
  013c4	8d 8d 20 ff ff
	ff		 lea	 ecx, DWORD PTR _bitmapstandard$188054[ebp]
  013ca	51		 push	 ecx
  013cb	8b 15 00 00 00
	00		 mov	 edx, DWORD PTR ?m_iconY@BCMenu@@1HA ; BCMenu::m_iconY
  013d1	52		 push	 edx
  013d2	a1 00 00 00 00	 mov	 eax, DWORD PTR ?m_iconX@BCMenu@@1HA ; BCMenu::m_iconX
  013d7	50		 push	 eax
  013d8	8b 8d 64 ff ff
	ff		 mov	 ecx, DWORD PTR _dy$188012[ebp]
  013de	8b 55 dc	 mov	 edx, DWORD PTR _rect$[ebp+4]
  013e1	8d 44 0a 02	 lea	 eax, DWORD PTR [edx+ecx+2]
  013e5	50		 push	 eax
  013e6	8b 4d d8	 mov	 ecx, DWORD PTR _rect$[ebp]
  013e9	83 c1 02	 add	 ecx, 2
  013ec	51		 push	 ecx
  013ed	8b 55 ec	 mov	 edx, DWORD PTR _pDC$[ebp]
  013f0	52		 push	 edx
  013f1	8b 4d f0	 mov	 ecx, DWORD PTR _this$[ebp]
  013f4	e8 00 00 00 00	 call	 ?DitherBlt2@BCMenu@@IAEXPAVCDC@@HHHHAAVCBitmap@@HHK@Z ; BCMenu::DitherBlt2
$L188057:

; 486  : 					}
; 487  : 					bitmapstandard.DeleteObject();

  013f9	8d 8d 20 ff ff
	ff		 lea	 ecx, DWORD PTR _bitmapstandard$188054[ebp]
  013ff	e8 00 00 00 00	 call	 ?DeleteObject@CGdiObject@@QAEHXZ ; CGdiObject::DeleteObject

; 488  : 				}

  01404	c6 45 fc 03	 mov	 BYTE PTR __$EHRec$[ebp+8], 3
  01408	8d 8d 20 ff ff
	ff		 lea	 ecx, DWORD PTR _bitmapstandard$188054[ebp]
  0140e	e8 00 00 00 00	 call	 ??1CBitmap@@UAE@XZ	; CBitmap::~CBitmap
$L188053:

; 489  : 			}
; 490  : 			else if(selectedflag){

  01413	e9 14 03 00 00	 jmp	 $L188043
$L188052:
  01418	83 7d 9c 00	 cmp	 DWORD PTR _selectedflag$188004[ebp], 0
  0141c	0f 84 39 01 00
	00		 je	 $L188061

; 491  : 				pDC->FillRect (rect2,&m_brBackground);

  01422	8d 45 c4	 lea	 eax, DWORD PTR _m_brBackground$[ebp]
  01425	50		 push	 eax
  01426	8d 4d a8	 lea	 ecx, DWORD PTR _rect2$188002[ebp]
  01429	e8 00 00 00 00	 call	 ??BCRect@@QAEPAUtagRECT@@XZ ; CRect::operator tagRECT *
  0142e	50		 push	 eax
  0142f	8b 4d ec	 mov	 ecx, DWORD PTR _pDC$[ebp]
  01432	e8 00 00 00 00	 call	 ?FillRect@CDC@@QAEXPBUtagRECT@@PAVCBrush@@@Z ; CDC::FillRect

; 492  : 				rect2.SetRect(rect.left,rect.top+dy,rect.left+m_iconX+4,
; 493  : 					rect.top+m_iconY+4+dy);

  01437	8b 4d dc	 mov	 ecx, DWORD PTR _rect$[ebp+4]
  0143a	03 0d 00 00 00
	00		 add	 ecx, DWORD PTR ?m_iconY@BCMenu@@1HA ; BCMenu::m_iconY
  01440	8b 95 64 ff ff
	ff		 mov	 edx, DWORD PTR _dy$188012[ebp]
  01446	8d 44 11 04	 lea	 eax, DWORD PTR [ecx+edx+4]
  0144a	50		 push	 eax
  0144b	8b 0d 00 00 00
	00		 mov	 ecx, DWORD PTR ?m_iconX@BCMenu@@1HA ; BCMenu::m_iconX
  01451	8b 55 d8	 mov	 edx, DWORD PTR _rect$[ebp]
  01454	8d 44 0a 04	 lea	 eax, DWORD PTR [edx+ecx+4]
  01458	50		 push	 eax
  01459	8b 4d dc	 mov	 ecx, DWORD PTR _rect$[ebp+4]
  0145c	03 8d 64 ff ff
	ff		 add	 ecx, DWORD PTR _dy$188012[ebp]
  01462	51		 push	 ecx
  01463	8b 55 d8	 mov	 edx, DWORD PTR _rect$[ebp]
  01466	52		 push	 edx
  01467	8d 4d a8	 lea	 ecx, DWORD PTR _rect2$188002[ebp]
  0146a	e8 00 00 00 00	 call	 ?SetRect@CRect@@QAEXHHHH@Z ; CRect::SetRect

; 494  : 				if (IsNewShell()){

  0146f	e8 00 00 00 00	 call	 ?IsNewShell@BCMenu@@KAHXZ ; BCMenu::IsNewShell
  01474	85 c0		 test	 eax, eax
  01476	74 77		 je	 SHORT $L188062

; 495  : 					if(state&ODS_CHECKED)

  01478	8b 85 50 ff ff
	ff		 mov	 eax, DWORD PTR _state$188017[ebp]
  0147e	83 e0 08	 and	 eax, 8
  01481	74 37		 je	 SHORT $L188063

; 496  : 						pDC->Draw3dRect(rect2,GetSysColor(COLOR_3DSHADOW),
; 497  : 						GetSysColor(COLOR_3DHILIGHT));

  01483	8b f4		 mov	 esi, esp
  01485	6a 14		 push	 20			; 00000014H
  01487	ff 15 00 00 00
	00		 call	 DWORD PTR __imp__GetSysColor@4
  0148d	3b f4		 cmp	 esi, esp
  0148f	e8 00 00 00 00	 call	 __RTC_CheckEsp
  01494	50		 push	 eax
  01495	8b f4		 mov	 esi, esp
  01497	6a 10		 push	 16			; 00000010H
  01499	ff 15 00 00 00
	00		 call	 DWORD PTR __imp__GetSysColor@4
  0149f	3b f4		 cmp	 esi, esp
  014a1	e8 00 00 00 00	 call	 __RTC_CheckEsp
  014a6	50		 push	 eax
  014a7	8d 4d a8	 lea	 ecx, DWORD PTR _rect2$188002[ebp]
  014aa	e8 00 00 00 00	 call	 ??BCRect@@QAEPAUtagRECT@@XZ ; CRect::operator tagRECT *
  014af	50		 push	 eax
  014b0	8b 4d ec	 mov	 ecx, DWORD PTR _pDC$[ebp]
  014b3	e8 00 00 00 00	 call	 ?Draw3dRect@CDC@@QAEXPBUtagRECT@@KK@Z ; CDC::Draw3dRect

; 498  : 					else

  014b8	eb 35		 jmp	 SHORT $L188062
$L188063:

; 499  : 						pDC->Draw3dRect(rect2,GetSysColor(COLOR_3DHILIGHT),
; 500  : 						GetSysColor(COLOR_3DSHADOW));

  014ba	8b f4		 mov	 esi, esp
  014bc	6a 10		 push	 16			; 00000010H
  014be	ff 15 00 00 00
	00		 call	 DWORD PTR __imp__GetSysColor@4
  014c4	3b f4		 cmp	 esi, esp
  014c6	e8 00 00 00 00	 call	 __RTC_CheckEsp
  014cb	50		 push	 eax
  014cc	8b f4		 mov	 esi, esp
  014ce	6a 14		 push	 20			; 00000014H
  014d0	ff 15 00 00 00
	00		 call	 DWORD PTR __imp__GetSysColor@4
  014d6	3b f4		 cmp	 esi, esp
  014d8	e8 00 00 00 00	 call	 __RTC_CheckEsp
  014dd	50		 push	 eax
  014de	8d 4d a8	 lea	 ecx, DWORD PTR _rect2$188002[ebp]
  014e1	e8 00 00 00 00	 call	 ??BCRect@@QAEPAUtagRECT@@XZ ; CRect::operator tagRECT *
  014e6	50		 push	 eax
  014e7	8b 4d ec	 mov	 ecx, DWORD PTR _pDC$[ebp]
  014ea	e8 00 00 00 00	 call	 ?Draw3dRect@CDC@@QAEXPBUtagRECT@@KK@Z ; CDC::Draw3dRect
$L188062:

; 501  : 				}
; 502  : 				CPoint ptImage(rect.left+2,rect.top+2+dy);

  014ef	8b 8d 64 ff ff
	ff		 mov	 ecx, DWORD PTR _dy$188012[ebp]
  014f5	8b 55 dc	 mov	 edx, DWORD PTR _rect$[ebp+4]
  014f8	8d 44 0a 02	 lea	 eax, DWORD PTR [edx+ecx+2]
  014fc	50		 push	 eax
  014fd	8b 4d d8	 mov	 ecx, DWORD PTR _rect$[ebp]
  01500	83 c1 02	 add	 ecx, 2
  01503	51		 push	 ecx
  01504	8d 8d 10 ff ff
	ff		 lea	 ecx, DWORD PTR _ptImage$188065[ebp]
  0150a	e8 00 00 00 00	 call	 ??0CPoint@@QAE@HH@Z	; CPoint::CPoint

; 503  : 				if(bitmap)bitmap->Draw(pDC,xoffset,ptImage,ILD_TRANSPARENT);

  0150f	83 bd 54 ff ff
	ff 00		 cmp	 DWORD PTR _bitmap$188016[ebp], 0
  01516	74 3e		 je	 SHORT $L188066
  01518	8b 95 10 ff ff
	ff		 mov	 edx, DWORD PTR _ptImage$188065[ebp]
  0151e	89 95 3c fe ff
	ff		 mov	 DWORD PTR $T192115[ebp], edx
  01524	8b 85 14 ff ff
	ff		 mov	 eax, DWORD PTR _ptImage$188065[ebp+4]
  0152a	89 85 40 fe ff
	ff		 mov	 DWORD PTR $T192115[ebp+4], eax
  01530	6a 01		 push	 1
  01532	8b 8d 40 fe ff
	ff		 mov	 ecx, DWORD PTR $T192115[ebp+4]
  01538	51		 push	 ecx
  01539	8b 95 3c fe ff
	ff		 mov	 edx, DWORD PTR $T192115[ebp]
  0153f	52		 push	 edx
  01540	8b 85 5c ff ff
	ff		 mov	 eax, DWORD PTR _xoffset$188014[ebp]
  01546	50		 push	 eax
  01547	8b 4d ec	 mov	 ecx, DWORD PTR _pDC$[ebp]
  0154a	51		 push	 ecx
  0154b	8b 8d 54 ff ff
	ff		 mov	 ecx, DWORD PTR _bitmap$188016[ebp]
  01551	e8 00 00 00 00	 call	 ?Draw@CImageList@@QAEHPAVCDC@@HUtagPOINT@@I@Z ; CImageList::Draw
$L188066:

; 504  : 			}
; 505  : 			else{

  01556	e9 d1 01 00 00	 jmp	 $L188043
$L188061:

; 506  : 				if(state&ODS_CHECKED){

  0155b	8b 95 50 ff ff
	ff		 mov	 edx, DWORD PTR _state$188017[ebp]
  01561	83 e2 08	 and	 edx, 8
  01564	0f 84 f5 00 00
	00		 je	 $L188069

; 507  : 					CBrush brush;

  0156a	8d 8d 00 ff ff
	ff		 lea	 ecx, DWORD PTR _brush$188070[ebp]
  01570	e8 00 00 00 00	 call	 ??0CBrush@@QAE@XZ	; CBrush::CBrush
  01575	c6 45 fc 06	 mov	 BYTE PTR __$EHRec$[ebp+8], 6

; 508  : 					COLORREF col = m_clrBack;

  01579	8b 45 bc	 mov	 eax, DWORD PTR _m_clrBack$[ebp]
  0157c	89 85 f8 fe ff
	ff		 mov	 DWORD PTR _col$188071[ebp], eax

; 509  : 					col = LightenColor(col,0.6);

  01582	dd 05 00 00 00
	00		 fld	 QWORD PTR __real@3fe3333333333333
  01588	83 ec 08	 sub	 esp, 8
  0158b	dd 1c 24	 fstp	 QWORD PTR [esp]
  0158e	8b 8d f8 fe ff
	ff		 mov	 ecx, DWORD PTR _col$188071[ebp]
  01594	51		 push	 ecx
  01595	e8 00 00 00 00	 call	 ?LightenColor@BCMenu@@SAKKN@Z ; BCMenu::LightenColor
  0159a	83 c4 0c	 add	 esp, 12			; 0000000cH
  0159d	89 85 f8 fe ff
	ff		 mov	 DWORD PTR _col$188071[ebp], eax

; 510  : 					brush.CreateSolidBrush(col);

  015a3	8b 95 f8 fe ff
	ff		 mov	 edx, DWORD PTR _col$188071[ebp]
  015a9	52		 push	 edx
  015aa	8d 8d 00 ff ff
	ff		 lea	 ecx, DWORD PTR _brush$188070[ebp]
  015b0	e8 00 00 00 00	 call	 ?CreateSolidBrush@CBrush@@QAEHK@Z ; CBrush::CreateSolidBrush

; 511  : 					pDC->FillRect(rect2,&brush);

  015b5	8d 85 00 ff ff
	ff		 lea	 eax, DWORD PTR _brush$188070[ebp]
  015bb	50		 push	 eax
  015bc	8d 4d a8	 lea	 ecx, DWORD PTR _rect2$188002[ebp]
  015bf	e8 00 00 00 00	 call	 ??BCRect@@QAEPAUtagRECT@@XZ ; CRect::operator tagRECT *
  015c4	50		 push	 eax
  015c5	8b 4d ec	 mov	 ecx, DWORD PTR _pDC$[ebp]
  015c8	e8 00 00 00 00	 call	 ?FillRect@CDC@@QAEXPBUtagRECT@@PAVCBrush@@@Z ; CDC::FillRect

; 512  : 					brush.DeleteObject();

  015cd	8d 8d 00 ff ff
	ff		 lea	 ecx, DWORD PTR _brush$188070[ebp]
  015d3	e8 00 00 00 00	 call	 ?DeleteObject@CGdiObject@@QAEHXZ ; CGdiObject::DeleteObject

; 513  : 					rect2.SetRect(rect.left,rect.top+dy,rect.left+m_iconX+4,
; 514  :                         rect.top+m_iconY+4+dy);

  015d8	8b 4d dc	 mov	 ecx, DWORD PTR _rect$[ebp+4]
  015db	03 0d 00 00 00
	00		 add	 ecx, DWORD PTR ?m_iconY@BCMenu@@1HA ; BCMenu::m_iconY
  015e1	8b 95 64 ff ff
	ff		 mov	 edx, DWORD PTR _dy$188012[ebp]
  015e7	8d 44 11 04	 lea	 eax, DWORD PTR [ecx+edx+4]
  015eb	50		 push	 eax
  015ec	8b 0d 00 00 00
	00		 mov	 ecx, DWORD PTR ?m_iconX@BCMenu@@1HA ; BCMenu::m_iconX
  015f2	8b 55 d8	 mov	 edx, DWORD PTR _rect$[ebp]
  015f5	8d 44 0a 04	 lea	 eax, DWORD PTR [edx+ecx+4]
  015f9	50		 push	 eax
  015fa	8b 4d dc	 mov	 ecx, DWORD PTR _rect$[ebp+4]
  015fd	03 8d 64 ff ff
	ff		 add	 ecx, DWORD PTR _dy$188012[ebp]
  01603	51		 push	 ecx
  01604	8b 55 d8	 mov	 edx, DWORD PTR _rect$[ebp]
  01607	52		 push	 edx
  01608	8d 4d a8	 lea	 ecx, DWORD PTR _rect2$188002[ebp]
  0160b	e8 00 00 00 00	 call	 ?SetRect@CRect@@QAEXHHHH@Z ; CRect::SetRect

; 515  : 					if (IsNewShell())

  01610	e8 00 00 00 00	 call	 ?IsNewShell@BCMenu@@KAHXZ ; BCMenu::IsNewShell
  01615	85 c0		 test	 eax, eax
  01617	74 35		 je	 SHORT $L188072

; 516  : 						pDC->Draw3dRect(rect2,GetSysColor(COLOR_3DSHADOW),
; 517  : 						GetSysColor(COLOR_3DHILIGHT));

  01619	8b f4		 mov	 esi, esp
  0161b	6a 14		 push	 20			; 00000014H
  0161d	ff 15 00 00 00
	00		 call	 DWORD PTR __imp__GetSysColor@4
  01623	3b f4		 cmp	 esi, esp
  01625	e8 00 00 00 00	 call	 __RTC_CheckEsp
  0162a	50		 push	 eax
  0162b	8b f4		 mov	 esi, esp
  0162d	6a 10		 push	 16			; 00000010H
  0162f	ff 15 00 00 00
	00		 call	 DWORD PTR __imp__GetSysColor@4
  01635	3b f4		 cmp	 esi, esp
  01637	e8 00 00 00 00	 call	 __RTC_CheckEsp
  0163c	50		 push	 eax
  0163d	8d 4d a8	 lea	 ecx, DWORD PTR _rect2$188002[ebp]
  01640	e8 00 00 00 00	 call	 ??BCRect@@QAEPAUtagRECT@@XZ ; CRect::operator tagRECT *
  01645	50		 push	 eax
  01646	8b 4d ec	 mov	 ecx, DWORD PTR _pDC$[ebp]
  01649	e8 00 00 00 00	 call	 ?Draw3dRect@CDC@@QAEXPBUtagRECT@@KK@Z ; CDC::Draw3dRect
$L188072:

; 518  : 				}

  0164e	c6 45 fc 03	 mov	 BYTE PTR __$EHRec$[ebp+8], 3
  01652	8d 8d 00 ff ff
	ff		 lea	 ecx, DWORD PTR _brush$188070[ebp]
  01658	e8 00 00 00 00	 call	 ??1CBrush@@UAE@XZ	; CBrush::~CBrush

; 519  : 				else{

  0165d	eb 66		 jmp	 SHORT $L188073
$L188069:

; 520  : 					pDC->FillRect (rect2,&m_brBackground);

  0165f	8d 45 c4	 lea	 eax, DWORD PTR _m_brBackground$[ebp]
  01662	50		 push	 eax
  01663	8d 4d a8	 lea	 ecx, DWORD PTR _rect2$188002[ebp]
  01666	e8 00 00 00 00	 call	 ??BCRect@@QAEPAUtagRECT@@XZ ; CRect::operator tagRECT *
  0166b	50		 push	 eax
  0166c	8b 4d ec	 mov	 ecx, DWORD PTR _pDC$[ebp]
  0166f	e8 00 00 00 00	 call	 ?FillRect@CDC@@QAEXPBUtagRECT@@PAVCBrush@@@Z ; CDC::FillRect

; 521  : 					rect2.SetRect(rect.left,rect.top+dy,rect.left+m_iconX+4,
; 522  :                         rect.top+m_iconY+4+dy);

  01674	8b 4d dc	 mov	 ecx, DWORD PTR _rect$[ebp+4]
  01677	03 0d 00 00 00
	00		 add	 ecx, DWORD PTR ?m_iconY@BCMenu@@1HA ; BCMenu::m_iconY
  0167d	8b 95 64 ff ff
	ff		 mov	 edx, DWORD PTR _dy$188012[ebp]
  01683	8d 44 11 04	 lea	 eax, DWORD PTR [ecx+edx+4]
  01687	50		 push	 eax
  01688	8b 0d 00 00 00
	00		 mov	 ecx, DWORD PTR ?m_iconX@BCMenu@@1HA ; BCMenu::m_iconX
  0168e	8b 55 d8	 mov	 edx, DWORD PTR _rect$[ebp]
  01691	8d 44 0a 04	 lea	 eax, DWORD PTR [edx+ecx+4]
  01695	50		 push	 eax
  01696	8b 4d dc	 mov	 ecx, DWORD PTR _rect$[ebp+4]
  01699	03 8d 64 ff ff
	ff		 add	 ecx, DWORD PTR _dy$188012[ebp]
  0169f	51		 push	 ecx
  016a0	8b 55 d8	 mov	 edx, DWORD PTR _rect$[ebp]
  016a3	52		 push	 edx
  016a4	8d 4d a8	 lea	 ecx, DWORD PTR _rect2$188002[ebp]
  016a7	e8 00 00 00 00	 call	 ?SetRect@CRect@@QAEXHHHH@Z ; CRect::SetRect

; 523  : 					pDC->Draw3dRect (rect2,m_clrBack,m_clrBack);

  016ac	8b 45 bc	 mov	 eax, DWORD PTR _m_clrBack$[ebp]
  016af	50		 push	 eax
  016b0	8b 4d bc	 mov	 ecx, DWORD PTR _m_clrBack$[ebp]
  016b3	51		 push	 ecx
  016b4	8d 4d a8	 lea	 ecx, DWORD PTR _rect2$188002[ebp]
  016b7	e8 00 00 00 00	 call	 ??BCRect@@QAEPAUtagRECT@@XZ ; CRect::operator tagRECT *
  016bc	50		 push	 eax
  016bd	8b 4d ec	 mov	 ecx, DWORD PTR _pDC$[ebp]
  016c0	e8 00 00 00 00	 call	 ?Draw3dRect@CDC@@QAEXPBUtagRECT@@KK@Z ; CDC::Draw3dRect
$L188073:

; 524  : 				}
; 525  : 				CPoint ptImage(rect.left+2,rect.top+2+dy);

  016c5	8b 95 64 ff ff
	ff		 mov	 edx, DWORD PTR _dy$188012[ebp]
  016cb	8b 45 dc	 mov	 eax, DWORD PTR _rect$[ebp+4]
  016ce	8d 4c 10 02	 lea	 ecx, DWORD PTR [eax+edx+2]
  016d2	51		 push	 ecx
  016d3	8b 55 d8	 mov	 edx, DWORD PTR _rect$[ebp]
  016d6	83 c2 02	 add	 edx, 2
  016d9	52		 push	 edx
  016da	8d 8d ec fe ff
	ff		 lea	 ecx, DWORD PTR _ptImage$188074[ebp]
  016e0	e8 00 00 00 00	 call	 ??0CPoint@@QAE@HH@Z	; CPoint::CPoint

; 526  : 				if(bitmap)bitmap->Draw(pDC,xoffset,ptImage,ILD_TRANSPARENT);

  016e5	83 bd 54 ff ff
	ff 00		 cmp	 DWORD PTR _bitmap$188016[ebp], 0
  016ec	74 3e		 je	 SHORT $L188043
  016ee	8b 85 ec fe ff
	ff		 mov	 eax, DWORD PTR _ptImage$188074[ebp]
  016f4	89 85 34 fe ff
	ff		 mov	 DWORD PTR $T192116[ebp], eax
  016fa	8b 8d f0 fe ff
	ff		 mov	 ecx, DWORD PTR _ptImage$188074[ebp+4]
  01700	89 8d 38 fe ff
	ff		 mov	 DWORD PTR $T192116[ebp+4], ecx
  01706	6a 01		 push	 1
  01708	8b 95 38 fe ff
	ff		 mov	 edx, DWORD PTR $T192116[ebp+4]
  0170e	52		 push	 edx
  0170f	8b 85 34 fe ff
	ff		 mov	 eax, DWORD PTR $T192116[ebp]
  01715	50		 push	 eax
  01716	8b 8d 5c ff ff
	ff		 mov	 ecx, DWORD PTR _xoffset$188014[ebp]
  0171c	51		 push	 ecx
  0171d	8b 55 ec	 mov	 edx, DWORD PTR _pDC$[ebp]
  01720	52		 push	 edx
  01721	8b 8d 54 ff ff
	ff		 mov	 ecx, DWORD PTR _bitmap$188016[ebp]
  01727	e8 00 00 00 00	 call	 ?Draw@CImageList@@QAEHPAVCDC@@HUtagPOINT@@I@Z ; CImageList::Draw
$L188043:

; 527  : 			}
; 528  : 		}
; 529  : 		if(nIconNormal<0 && state&ODS_CHECKED && !checkflag){

  0172c	83 bd 60 ff ff
	ff 00		 cmp	 DWORD PTR _nIconNormal$188013[ebp], 0
  01733	0f 8d ed 00 00
	00		 jge	 $L188077
  01739	8b 85 50 ff ff
	ff		 mov	 eax, DWORD PTR _state$188017[ebp]
  0173f	83 e0 08	 and	 eax, 8
  01742	0f 84 de 00 00
	00		 je	 $L188077
  01748	83 7d 94 00	 cmp	 DWORD PTR _checkflag$188006[ebp], 0
  0174c	0f 85 d4 00 00
	00		 jne	 $L188077

; 530  : 			rect2.SetRect(rect.left+1,rect.top+2+dy,rect.left+m_iconX+1,
; 531  : 				rect.top+m_iconY+2+dy);

  01752	8b 4d dc	 mov	 ecx, DWORD PTR _rect$[ebp+4]
  01755	03 0d 00 00 00
	00		 add	 ecx, DWORD PTR ?m_iconY@BCMenu@@1HA ; BCMenu::m_iconY
  0175b	8b 95 64 ff ff
	ff		 mov	 edx, DWORD PTR _dy$188012[ebp]
  01761	8d 44 11 02	 lea	 eax, DWORD PTR [ecx+edx+2]
  01765	50		 push	 eax
  01766	8b 0d 00 00 00
	00		 mov	 ecx, DWORD PTR ?m_iconX@BCMenu@@1HA ; BCMenu::m_iconX
  0176c	8b 55 d8	 mov	 edx, DWORD PTR _rect$[ebp]
  0176f	8d 44 0a 01	 lea	 eax, DWORD PTR [edx+ecx+1]
  01773	50		 push	 eax
  01774	8b 8d 64 ff ff
	ff		 mov	 ecx, DWORD PTR _dy$188012[ebp]
  0177a	8b 55 dc	 mov	 edx, DWORD PTR _rect$[ebp+4]
  0177d	8d 44 0a 02	 lea	 eax, DWORD PTR [edx+ecx+2]
  01781	50		 push	 eax
  01782	8b 4d d8	 mov	 ecx, DWORD PTR _rect$[ebp]
  01785	83 c1 01	 add	 ecx, 1
  01788	51		 push	 ecx
  01789	8d 4d a8	 lea	 ecx, DWORD PTR _rect2$188002[ebp]
  0178c	e8 00 00 00 00	 call	 ?SetRect@CRect@@QAEXHHHH@Z ; CRect::SetRect

; 532  : 			CMenuItemInfo info;

  01791	8d 8d b4 fe ff
	ff		 lea	 ecx, DWORD PTR _info$188078[ebp]
  01797	e8 00 00 00 00	 call	 ??0CMenuItemInfo@@QAE@XZ ; CMenuItemInfo::CMenuItemInfo

; 533  : 			info.fMask = MIIM_CHECKMARKS;

  0179c	c7 85 b8 fe ff
	ff 08 00 00 00	 mov	 DWORD PTR _info$188078[ebp+4], 8

; 534  : 			::GetMenuItemInfo((HMENU)lpDIS->hwndItem,lpDIS->itemID,
; 535  : 				MF_BYCOMMAND, &info);

  017a6	8b f4		 mov	 esi, esp
  017a8	8d 95 b4 fe ff
	ff		 lea	 edx, DWORD PTR _info$188078[ebp]
  017ae	52		 push	 edx
  017af	6a 00		 push	 0
  017b1	8b 45 08	 mov	 eax, DWORD PTR _lpDIS$[ebp]
  017b4	8b 48 08	 mov	 ecx, DWORD PTR [eax+8]
  017b7	51		 push	 ecx
  017b8	8b 55 08	 mov	 edx, DWORD PTR _lpDIS$[ebp]
  017bb	8b 42 14	 mov	 eax, DWORD PTR [edx+20]
  017be	50		 push	 eax
  017bf	ff 15 00 00 00
	00		 call	 DWORD PTR __imp__GetMenuItemInfoA@16
  017c5	3b f4		 cmp	 esi, esp
  017c7	e8 00 00 00 00	 call	 __RTC_CheckEsp

; 536  : 			if(state&ODS_CHECKED || info.hbmpUnchecked) {

  017cc	8b 8d 50 ff ff
	ff		 mov	 ecx, DWORD PTR _state$188017[ebp]
  017d2	83 e1 08	 and	 ecx, 8
  017d5	75 09		 jne	 SHORT $L188081
  017d7	83 bd d0 fe ff
	ff 00		 cmp	 DWORD PTR _info$188078[ebp+28], 0
  017de	74 46		 je	 SHORT $L188077
$L188081:

; 537  : 				Draw3DCheckmark(pDC, rect2, state&ODS_SELECTED,
; 538  : 					state&ODS_CHECKED ? info.hbmpChecked :
; 539  : 				info.hbmpUnchecked);

  017e0	8b 95 50 ff ff
	ff		 mov	 edx, DWORD PTR _state$188017[ebp]
  017e6	83 e2 08	 and	 edx, 8
  017e9	74 0e		 je	 SHORT $L192117
  017eb	8b 85 cc fe ff
	ff		 mov	 eax, DWORD PTR _info$188078[ebp+24]
  017f1	89 85 20 fe ff
	ff		 mov	 DWORD PTR tv585[ebp], eax
  017f7	eb 0c		 jmp	 SHORT $L192118
$L192117:
  017f9	8b 8d d0 fe ff
	ff		 mov	 ecx, DWORD PTR _info$188078[ebp+28]
  017ff	89 8d 20 fe ff
	ff		 mov	 DWORD PTR tv585[ebp], ecx
$L192118:
  01805	8b 95 20 fe ff
	ff		 mov	 edx, DWORD PTR tv585[ebp]
  0180b	52		 push	 edx
  0180c	8b 85 50 ff ff
	ff		 mov	 eax, DWORD PTR _state$188017[ebp]
  01812	83 e0 01	 and	 eax, 1
  01815	50		 push	 eax
  01816	8d 4d a8	 lea	 ecx, DWORD PTR _rect2$188002[ebp]
  01819	51		 push	 ecx
  0181a	8b 55 ec	 mov	 edx, DWORD PTR _pDC$[ebp]
  0181d	52		 push	 edx
  0181e	8b 4d f0	 mov	 ecx, DWORD PTR _this$[ebp]
  01821	e8 00 00 00 00	 call	 ?Draw3DCheckmark@BCMenu@@IAEHPAVCDC@@ABVCRect@@HPAUHBITMAP__@@@Z ; BCMenu::Draw3DCheckmark
$L188077:

; 540  : 			}
; 541  : 		}
; 542  : 		
; 543  : 		//This is needed always so that we can have the space for check marks
; 544  : 		
; 545  : 		x0=rect.left;y0=rect.top;

  01826	8b 45 d8	 mov	 eax, DWORD PTR _rect$[ebp]
  01829	89 85 6c ff ff
	ff		 mov	 DWORD PTR _x0$188010[ebp], eax
  0182f	8b 4d dc	 mov	 ecx, DWORD PTR _rect$[ebp+4]
  01832	89 8d 68 ff ff
	ff		 mov	 DWORD PTR _y0$188011[ebp], ecx

; 546  : 		rect.left = rect.left + m_iconX + 8 + BCMENU_GAP; 

  01838	8b 15 00 00 00
	00		 mov	 edx, DWORD PTR ?m_iconX@BCMenu@@1HA ; BCMenu::m_iconX
  0183e	8b 45 d8	 mov	 eax, DWORD PTR _rect$[ebp]
  01841	8d 4c 10 09	 lea	 ecx, DWORD PTR [eax+edx+9]
  01845	89 4d d8	 mov	 DWORD PTR _rect$[ebp], ecx

; 547  : 		
; 548  : 		if(!strText.IsEmpty()){

  01848	8b f4		 mov	 esi, esp
  0184a	8d 8d 48 ff ff
	ff		 lea	 ecx, DWORD PTR _strText$188018[ebp]
  01850	ff 15 00 00 00
	00		 call	 DWORD PTR __imp_?IsEmpty@?$CSimpleStringT@D$00@ATL@@QBE_NXZ
  01856	3b f4		 cmp	 esi, esp
  01858	e8 00 00 00 00	 call	 __RTC_CheckEsp
  0185d	0f b6 d0	 movzx	 edx, al
  01860	85 d2		 test	 edx, edx
  01862	0f 85 61 04 00
	00		 jne	 $L188082

; 549  : 			
; 550  : 			CRect rectt(rect.left,rect.top,rect.right,rect.bottom);

  01868	8b 45 e4	 mov	 eax, DWORD PTR _rect$[ebp+12]
  0186b	50		 push	 eax
  0186c	8b 4d e0	 mov	 ecx, DWORD PTR _rect$[ebp+8]
  0186f	51		 push	 ecx
  01870	8b 55 dc	 mov	 edx, DWORD PTR _rect$[ebp+4]
  01873	52		 push	 edx
  01874	8b 45 d8	 mov	 eax, DWORD PTR _rect$[ebp]
  01877	50		 push	 eax
  01878	8d 8d 9c fe ff
	ff		 lea	 ecx, DWORD PTR _rectt$188083[ebp]
  0187e	e8 00 00 00 00	 call	 ??0CRect@@QAE@HHHH@Z	; CRect::CRect

; 551  : 			
; 552  : 			//   Find tabs
; 553  : 			
; 554  : 			CString leftStr,rightStr;

  01883	8b f4		 mov	 esi, esp
  01885	8d 8d 90 fe ff
	ff		 lea	 ecx, DWORD PTR _leftStr$188084[ebp]
  0188b	ff 15 00 00 00
	00		 call	 DWORD PTR __imp_??0?$CStringT@DV?$StrTraitMFC_DLL@DV?$ChTraitsCRT@D@ATL@@@@@ATL@@QAE@XZ
  01891	3b f4		 cmp	 esi, esp
  01893	e8 00 00 00 00	 call	 __RTC_CheckEsp
  01898	c6 45 fc 07	 mov	 BYTE PTR __$EHRec$[ebp+8], 7
  0189c	8b f4		 mov	 esi, esp
  0189e	8d 8d 84 fe ff
	ff		 lea	 ecx, DWORD PTR _rightStr$188085[ebp]
  018a4	ff 15 00 00 00
	00		 call	 DWORD PTR __imp_??0?$CStringT@DV?$StrTraitMFC_DLL@DV?$ChTraitsCRT@D@ATL@@@@@ATL@@QAE@XZ
  018aa	3b f4		 cmp	 esi, esp
  018ac	e8 00 00 00 00	 call	 __RTC_CheckEsp
  018b1	c6 45 fc 08	 mov	 BYTE PTR __$EHRec$[ebp+8], 8

; 555  : 			leftStr.Empty();rightStr.Empty();

  018b5	8b f4		 mov	 esi, esp
  018b7	8d 8d 90 fe ff
	ff		 lea	 ecx, DWORD PTR _leftStr$188084[ebp]
  018bd	ff 15 00 00 00
	00		 call	 DWORD PTR __imp_?Empty@?$CSimpleStringT@D$00@ATL@@QAEXXZ
  018c3	3b f4		 cmp	 esi, esp
  018c5	e8 00 00 00 00	 call	 __RTC_CheckEsp
  018ca	8b f4		 mov	 esi, esp
  018cc	8d 8d 84 fe ff
	ff		 lea	 ecx, DWORD PTR _rightStr$188085[ebp]
  018d2	ff 15 00 00 00
	00		 call	 DWORD PTR __imp_?Empty@?$CSimpleStringT@D$00@ATL@@QAEXXZ
  018d8	3b f4		 cmp	 esi, esp
  018da	e8 00 00 00 00	 call	 __RTC_CheckEsp

; 556  : 			int tablocr=strText.ReverseFind(_T('\t'));

  018df	8b f4		 mov	 esi, esp
  018e1	6a 09		 push	 9
  018e3	8d 8d 48 ff ff
	ff		 lea	 ecx, DWORD PTR _strText$188018[ebp]
  018e9	ff 15 00 00 00
	00		 call	 DWORD PTR __imp_?ReverseFind@?$CStringT@DV?$StrTraitMFC_DLL@DV?$ChTraitsCRT@D@ATL@@@@@ATL@@QBEHD@Z
  018ef	3b f4		 cmp	 esi, esp
  018f1	e8 00 00 00 00	 call	 __RTC_CheckEsp
  018f6	89 85 7c fe ff
	ff		 mov	 DWORD PTR _tablocr$188086[ebp], eax

; 557  : 			if(tablocr!=-1){

  018fc	83 bd 7c fe ff
	ff ff		 cmp	 DWORD PTR _tablocr$188086[ebp], -1
  01903	0f 84 06 01 00
	00		 je	 $L188087

; 558  : 				rightStr=strText.Mid(tablocr+1);

  01909	8b 8d 7c fe ff
	ff		 mov	 ecx, DWORD PTR _tablocr$188086[ebp]
  0190f	83 c1 01	 add	 ecx, 1
  01912	8b f4		 mov	 esi, esp
  01914	51		 push	 ecx
  01915	8d 95 30 fe ff
	ff		 lea	 edx, DWORD PTR $T192119[ebp]
  0191b	52		 push	 edx
  0191c	8d 8d 48 ff ff
	ff		 lea	 ecx, DWORD PTR _strText$188018[ebp]
  01922	ff 15 00 00 00
	00		 call	 DWORD PTR __imp_?Mid@?$CStringT@DV?$StrTraitMFC_DLL@DV?$ChTraitsCRT@D@ATL@@@@@ATL@@QBE?AV12@H@Z
  01928	3b f4		 cmp	 esi, esp
  0192a	e8 00 00 00 00	 call	 __RTC_CheckEsp
  0192f	89 85 1c fe ff
	ff		 mov	 DWORD PTR tv774[ebp], eax
  01935	8b 85 1c fe ff
	ff		 mov	 eax, DWORD PTR tv774[ebp]
  0193b	89 85 18 fe ff
	ff		 mov	 DWORD PTR tv770[ebp], eax
  01941	c6 45 fc 09	 mov	 BYTE PTR __$EHRec$[ebp+8], 9
  01945	8b f4		 mov	 esi, esp
  01947	8b 8d 18 fe ff
	ff		 mov	 ecx, DWORD PTR tv770[ebp]
  0194d	51		 push	 ecx
  0194e	8d 8d 84 fe ff
	ff		 lea	 ecx, DWORD PTR _rightStr$188085[ebp]
  01954	ff 15 00 00 00
	00		 call	 DWORD PTR __imp_??4?$CStringT@DV?$StrTraitMFC_DLL@DV?$ChTraitsCRT@D@ATL@@@@@ATL@@QAEAAV01@ABV01@@Z
  0195a	3b f4		 cmp	 esi, esp
  0195c	e8 00 00 00 00	 call	 __RTC_CheckEsp
  01961	c6 45 fc 08	 mov	 BYTE PTR __$EHRec$[ebp+8], 8
  01965	8b f4		 mov	 esi, esp
  01967	8d 8d 30 fe ff
	ff		 lea	 ecx, DWORD PTR $T192119[ebp]
  0196d	ff 15 00 00 00
	00		 call	 DWORD PTR __imp_??1?$CStringT@DV?$StrTraitMFC_DLL@DV?$ChTraitsCRT@D@ATL@@@@@ATL@@QAE@XZ
  01973	3b f4		 cmp	 esi, esp
  01975	e8 00 00 00 00	 call	 __RTC_CheckEsp

; 559  : 				leftStr=strText.Left(strText.Find(_T('\t')));

  0197a	8b f4		 mov	 esi, esp
  0197c	6a 00		 push	 0
  0197e	6a 09		 push	 9
  01980	8d 8d 48 ff ff
	ff		 lea	 ecx, DWORD PTR _strText$188018[ebp]
  01986	ff 15 00 00 00
	00		 call	 DWORD PTR __imp_?Find@?$CStringT@DV?$StrTraitMFC_DLL@DV?$ChTraitsCRT@D@ATL@@@@@ATL@@QBEHDH@Z
  0198c	3b f4		 cmp	 esi, esp
  0198e	e8 00 00 00 00	 call	 __RTC_CheckEsp
  01993	8b f4		 mov	 esi, esp
  01995	50		 push	 eax
  01996	8d 95 2c fe ff
	ff		 lea	 edx, DWORD PTR $T192120[ebp]
  0199c	52		 push	 edx
  0199d	8d 8d 48 ff ff
	ff		 lea	 ecx, DWORD PTR _strText$188018[ebp]
  019a3	ff 15 00 00 00
	00		 call	 DWORD PTR __imp_?Left@?$CStringT@DV?$StrTraitMFC_DLL@DV?$ChTraitsCRT@D@ATL@@@@@ATL@@QBE?AV12@H@Z
  019a9	3b f4		 cmp	 esi, esp
  019ab	e8 00 00 00 00	 call	 __RTC_CheckEsp
  019b0	89 85 14 fe ff
	ff		 mov	 DWORD PTR tv777[ebp], eax
  019b6	8b 85 14 fe ff
	ff		 mov	 eax, DWORD PTR tv777[ebp]
  019bc	89 85 10 fe ff
	ff		 mov	 DWORD PTR tv772[ebp], eax
  019c2	c6 45 fc 0a	 mov	 BYTE PTR __$EHRec$[ebp+8], 10 ; 0000000aH
  019c6	8b f4		 mov	 esi, esp
  019c8	8b 8d 10 fe ff
	ff		 mov	 ecx, DWORD PTR tv772[ebp]
  019ce	51		 push	 ecx
  019cf	8d 8d 90 fe ff
	ff		 lea	 ecx, DWORD PTR _leftStr$188084[ebp]
  019d5	ff 15 00 00 00
	00		 call	 DWORD PTR __imp_??4?$CStringT@DV?$StrTraitMFC_DLL@DV?$ChTraitsCRT@D@ATL@@@@@ATL@@QAEAAV01@ABV01@@Z
  019db	3b f4		 cmp	 esi, esp
  019dd	e8 00 00 00 00	 call	 __RTC_CheckEsp
  019e2	c6 45 fc 08	 mov	 BYTE PTR __$EHRec$[ebp+8], 8
  019e6	8b f4		 mov	 esi, esp
  019e8	8d 8d 2c fe ff
	ff		 lea	 ecx, DWORD PTR $T192120[ebp]
  019ee	ff 15 00 00 00
	00		 call	 DWORD PTR __imp_??1?$CStringT@DV?$StrTraitMFC_DLL@DV?$ChTraitsCRT@D@ATL@@@@@ATL@@QAE@XZ
  019f4	3b f4		 cmp	 esi, esp
  019f6	e8 00 00 00 00	 call	 __RTC_CheckEsp

; 560  : 				rectt.right-=m_iconX;

  019fb	8b 95 a4 fe ff
	ff		 mov	 edx, DWORD PTR _rectt$188083[ebp+8]
  01a01	2b 15 00 00 00
	00		 sub	 edx, DWORD PTR ?m_iconX@BCMenu@@1HA ; BCMenu::m_iconX
  01a07	89 95 a4 fe ff
	ff		 mov	 DWORD PTR _rectt$188083[ebp+8], edx

; 561  : 			}
; 562  : 			else leftStr=strText;

  01a0d	eb 1c		 jmp	 SHORT $L188090
$L188087:
  01a0f	8b f4		 mov	 esi, esp
  01a11	8d 85 48 ff ff
	ff		 lea	 eax, DWORD PTR _strText$188018[ebp]
  01a17	50		 push	 eax
  01a18	8d 8d 90 fe ff
	ff		 lea	 ecx, DWORD PTR _leftStr$188084[ebp]
  01a1e	ff 15 00 00 00
	00		 call	 DWORD PTR __imp_??4?$CStringT@DV?$StrTraitMFC_DLL@DV?$ChTraitsCRT@D@ATL@@@@@ATL@@QAEAAV01@ABV01@@Z
  01a24	3b f4		 cmp	 esi, esp
  01a26	e8 00 00 00 00	 call	 __RTC_CheckEsp
$L188090:

; 563  : 			
; 564  : 			int iOldMode = pDC->GetBkMode();

  01a2b	8b 4d ec	 mov	 ecx, DWORD PTR _pDC$[ebp]
  01a2e	e8 00 00 00 00	 call	 ?GetBkMode@CDC@@QBEHXZ	; CDC::GetBkMode
  01a33	89 85 78 fe ff
	ff		 mov	 DWORD PTR _iOldMode$188091[ebp], eax

; 565  : 			pDC->SetBkMode( TRANSPARENT);

  01a39	6a 01		 push	 1
  01a3b	8b 4d ec	 mov	 ecx, DWORD PTR _pDC$[ebp]
  01a3e	e8 00 00 00 00	 call	 ?SetBkMode@CDC@@QAEHH@Z	; CDC::SetBkMode

; 566  : 			
; 567  : 			// Draw the text in the correct colour:
; 568  : 			
; 569  : 			UINT nFormat  = DT_LEFT|DT_SINGLELINE|DT_VCENTER;

  01a43	c7 85 74 fe ff
	ff 24 00 00 00	 mov	 DWORD PTR _nFormat$188092[ebp], 36 ; 00000024H

; 570  : 			UINT nFormatr = DT_RIGHT|DT_SINGLELINE|DT_VCENTER;

  01a4d	c7 85 70 fe ff
	ff 26 00 00 00	 mov	 DWORD PTR _nFormatr$188093[ebp], 38 ; 00000026H

; 571  : 			if(!(lpDIS->itemState & ODS_GRAYED)){

  01a57	8b 4d 08	 mov	 ecx, DWORD PTR _lpDIS$[ebp]
  01a5a	8b 51 10	 mov	 edx, DWORD PTR [ecx+16]
  01a5d	83 e2 02	 and	 edx, 2
  01a60	75 6a		 jne	 SHORT $L188094

; 572  : 				pDC->SetTextColor(crText);

  01a62	8b f4		 mov	 esi, esp
  01a64	8b 45 90	 mov	 eax, DWORD PTR _crText$188007[ebp]
  01a67	50		 push	 eax
  01a68	8b 4d ec	 mov	 ecx, DWORD PTR _pDC$[ebp]
  01a6b	8b 11		 mov	 edx, DWORD PTR [ecx]
  01a6d	8b 4d ec	 mov	 ecx, DWORD PTR _pDC$[ebp]
  01a70	ff 52 38	 call	 DWORD PTR [edx+56]
  01a73	3b f4		 cmp	 esi, esp
  01a75	e8 00 00 00 00	 call	 __RTC_CheckEsp

; 573  : 				pDC->DrawText (leftStr,rectt,nFormat);

  01a7a	8b 85 74 fe ff
	ff		 mov	 eax, DWORD PTR _nFormat$188092[ebp]
  01a80	50		 push	 eax
  01a81	8d 8d 9c fe ff
	ff		 lea	 ecx, DWORD PTR _rectt$188083[ebp]
  01a87	e8 00 00 00 00	 call	 ??BCRect@@QAEPAUtagRECT@@XZ ; CRect::operator tagRECT *
  01a8c	50		 push	 eax
  01a8d	8d 8d 90 fe ff
	ff		 lea	 ecx, DWORD PTR _leftStr$188084[ebp]
  01a93	51		 push	 ecx
  01a94	8b 4d ec	 mov	 ecx, DWORD PTR _pDC$[ebp]
  01a97	e8 00 00 00 00	 call	 ?DrawTextA@CDC@@QAEHABV?$CStringT@DV?$StrTraitMFC_DLL@DV?$ChTraitsCRT@D@ATL@@@@@ATL@@PAUtagRECT@@I@Z ; CDC::DrawTextA

; 574  : 				if(tablocr!=-1) pDC->DrawText (rightStr,rectt,nFormatr);

  01a9c	83 bd 7c fe ff
	ff ff		 cmp	 DWORD PTR _tablocr$188086[ebp], -1
  01aa3	74 22		 je	 SHORT $L188095
  01aa5	8b 95 70 fe ff
	ff		 mov	 edx, DWORD PTR _nFormatr$188093[ebp]
  01aab	52		 push	 edx
  01aac	8d 8d 9c fe ff
	ff		 lea	 ecx, DWORD PTR _rectt$188083[ebp]
  01ab2	e8 00 00 00 00	 call	 ??BCRect@@QAEPAUtagRECT@@XZ ; CRect::operator tagRECT *
  01ab7	50		 push	 eax
  01ab8	8d 85 84 fe ff
	ff		 lea	 eax, DWORD PTR _rightStr$188085[ebp]
  01abe	50		 push	 eax
  01abf	8b 4d ec	 mov	 ecx, DWORD PTR _pDC$[ebp]
  01ac2	e8 00 00 00 00	 call	 ?DrawTextA@CDC@@QAEHABV?$CStringT@DV?$StrTraitMFC_DLL@DV?$ChTraitsCRT@D@ATL@@@@@ATL@@PAUtagRECT@@I@Z ; CDC::DrawTextA
$L188095:

; 575  : 			}
; 576  : 			else{

  01ac7	e9 bc 01 00 00	 jmp	 $L188096
$L188094:

; 577  : 				
; 578  : 				// Draw the disabled text
; 579  : 				if(!(state & ODS_SELECTED)){

  01acc	8b 8d 50 ff ff
	ff		 mov	 ecx, DWORD PTR _state$188017[ebp]
  01ad2	83 e1 01	 and	 ecx, 1
  01ad5	0f 85 48 01 00
	00		 jne	 $L188097

; 580  : 					RECT offset = *rectt;

  01adb	8d 8d 9c fe ff
	ff		 lea	 ecx, DWORD PTR _rectt$188083[ebp]
  01ae1	e8 00 00 00 00	 call	 ??BCRect@@QAEPAUtagRECT@@XZ ; CRect::operator tagRECT *
  01ae6	8b 10		 mov	 edx, DWORD PTR [eax]
  01ae8	89 95 5c fe ff
	ff		 mov	 DWORD PTR _offset$188098[ebp], edx
  01aee	8b 48 04	 mov	 ecx, DWORD PTR [eax+4]
  01af1	89 8d 60 fe ff
	ff		 mov	 DWORD PTR _offset$188098[ebp+4], ecx
  01af7	8b 50 08	 mov	 edx, DWORD PTR [eax+8]
  01afa	89 95 64 fe ff
	ff		 mov	 DWORD PTR _offset$188098[ebp+8], edx
  01b00	8b 40 0c	 mov	 eax, DWORD PTR [eax+12]
  01b03	89 85 68 fe ff
	ff		 mov	 DWORD PTR _offset$188098[ebp+12], eax

; 581  : 					offset.left+=1;

  01b09	8b 8d 5c fe ff
	ff		 mov	 ecx, DWORD PTR _offset$188098[ebp]
  01b0f	83 c1 01	 add	 ecx, 1
  01b12	89 8d 5c fe ff
	ff		 mov	 DWORD PTR _offset$188098[ebp], ecx

; 582  : 					offset.right+=1;

  01b18	8b 95 64 fe ff
	ff		 mov	 edx, DWORD PTR _offset$188098[ebp+8]
  01b1e	83 c2 01	 add	 edx, 1
  01b21	89 95 64 fe ff
	ff		 mov	 DWORD PTR _offset$188098[ebp+8], edx

; 583  : 					offset.top+=1;

  01b27	8b 85 60 fe ff
	ff		 mov	 eax, DWORD PTR _offset$188098[ebp+4]
  01b2d	83 c0 01	 add	 eax, 1
  01b30	89 85 60 fe ff
	ff		 mov	 DWORD PTR _offset$188098[ebp+4], eax

; 584  : 					offset.bottom+=1;

  01b36	8b 8d 68 fe ff
	ff		 mov	 ecx, DWORD PTR _offset$188098[ebp+12]
  01b3c	83 c1 01	 add	 ecx, 1
  01b3f	89 8d 68 fe ff
	ff		 mov	 DWORD PTR _offset$188098[ebp+12], ecx

; 585  : 					pDC->SetTextColor(GetSysColor(COLOR_BTNHILIGHT));

  01b45	8b f4		 mov	 esi, esp
  01b47	6a 14		 push	 20			; 00000014H
  01b49	ff 15 00 00 00
	00		 call	 DWORD PTR __imp__GetSysColor@4
  01b4f	3b f4		 cmp	 esi, esp
  01b51	e8 00 00 00 00	 call	 __RTC_CheckEsp
  01b56	8b f4		 mov	 esi, esp
  01b58	50		 push	 eax
  01b59	8b 55 ec	 mov	 edx, DWORD PTR _pDC$[ebp]
  01b5c	8b 02		 mov	 eax, DWORD PTR [edx]
  01b5e	8b 4d ec	 mov	 ecx, DWORD PTR _pDC$[ebp]
  01b61	ff 50 38	 call	 DWORD PTR [eax+56]
  01b64	3b f4		 cmp	 esi, esp
  01b66	e8 00 00 00 00	 call	 __RTC_CheckEsp

; 586  : 					pDC->DrawText(leftStr,&offset, nFormat);

  01b6b	8b 8d 74 fe ff
	ff		 mov	 ecx, DWORD PTR _nFormat$188092[ebp]
  01b71	51		 push	 ecx
  01b72	8d 95 5c fe ff
	ff		 lea	 edx, DWORD PTR _offset$188098[ebp]
  01b78	52		 push	 edx
  01b79	8d 85 90 fe ff
	ff		 lea	 eax, DWORD PTR _leftStr$188084[ebp]
  01b7f	50		 push	 eax
  01b80	8b 4d ec	 mov	 ecx, DWORD PTR _pDC$[ebp]
  01b83	e8 00 00 00 00	 call	 ?DrawTextA@CDC@@QAEHABV?$CStringT@DV?$StrTraitMFC_DLL@DV?$ChTraitsCRT@D@ATL@@@@@ATL@@PAUtagRECT@@I@Z ; CDC::DrawTextA

; 587  : 					if(tablocr!=-1) pDC->DrawText (rightStr,&offset,nFormatr);

  01b88	83 bd 7c fe ff
	ff ff		 cmp	 DWORD PTR _tablocr$188086[ebp], -1
  01b8f	74 1d		 je	 SHORT $L188099
  01b91	8b 8d 70 fe ff
	ff		 mov	 ecx, DWORD PTR _nFormatr$188093[ebp]
  01b97	51		 push	 ecx
  01b98	8d 95 5c fe ff
	ff		 lea	 edx, DWORD PTR _offset$188098[ebp]
  01b9e	52		 push	 edx
  01b9f	8d 85 84 fe ff
	ff		 lea	 eax, DWORD PTR _rightStr$188085[ebp]
  01ba5	50		 push	 eax
  01ba6	8b 4d ec	 mov	 ecx, DWORD PTR _pDC$[ebp]
  01ba9	e8 00 00 00 00	 call	 ?DrawTextA@CDC@@QAEHABV?$CStringT@DV?$StrTraitMFC_DLL@DV?$ChTraitsCRT@D@ATL@@@@@ATL@@PAUtagRECT@@I@Z ; CDC::DrawTextA
$L188099:

; 588  : 					pDC->SetTextColor(GetSysColor(COLOR_GRAYTEXT));

  01bae	8b f4		 mov	 esi, esp
  01bb0	6a 11		 push	 17			; 00000011H
  01bb2	ff 15 00 00 00
	00		 call	 DWORD PTR __imp__GetSysColor@4
  01bb8	3b f4		 cmp	 esi, esp
  01bba	e8 00 00 00 00	 call	 __RTC_CheckEsp
  01bbf	8b f4		 mov	 esi, esp
  01bc1	50		 push	 eax
  01bc2	8b 4d ec	 mov	 ecx, DWORD PTR _pDC$[ebp]
  01bc5	8b 11		 mov	 edx, DWORD PTR [ecx]
  01bc7	8b 4d ec	 mov	 ecx, DWORD PTR _pDC$[ebp]
  01bca	ff 52 38	 call	 DWORD PTR [edx+56]
  01bcd	3b f4		 cmp	 esi, esp
  01bcf	e8 00 00 00 00	 call	 __RTC_CheckEsp

; 589  : 					pDC->DrawText(leftStr,rectt, nFormat);

  01bd4	8b 85 74 fe ff
	ff		 mov	 eax, DWORD PTR _nFormat$188092[ebp]
  01bda	50		 push	 eax
  01bdb	8d 8d 9c fe ff
	ff		 lea	 ecx, DWORD PTR _rectt$188083[ebp]
  01be1	e8 00 00 00 00	 call	 ??BCRect@@QAEPAUtagRECT@@XZ ; CRect::operator tagRECT *
  01be6	50		 push	 eax
  01be7	8d 8d 90 fe ff
	ff		 lea	 ecx, DWORD PTR _leftStr$188084[ebp]
  01bed	51		 push	 ecx
  01bee	8b 4d ec	 mov	 ecx, DWORD PTR _pDC$[ebp]
  01bf1	e8 00 00 00 00	 call	 ?DrawTextA@CDC@@QAEHABV?$CStringT@DV?$StrTraitMFC_DLL@DV?$ChTraitsCRT@D@ATL@@@@@ATL@@PAUtagRECT@@I@Z ; CDC::DrawTextA

; 590  : 					if(tablocr!=-1) pDC->DrawText (rightStr,rectt,nFormatr);

  01bf6	83 bd 7c fe ff
	ff ff		 cmp	 DWORD PTR _tablocr$188086[ebp], -1
  01bfd	74 22		 je	 SHORT $L188100
  01bff	8b 95 70 fe ff
	ff		 mov	 edx, DWORD PTR _nFormatr$188093[ebp]
  01c05	52		 push	 edx
  01c06	8d 8d 9c fe ff
	ff		 lea	 ecx, DWORD PTR _rectt$188083[ebp]
  01c0c	e8 00 00 00 00	 call	 ??BCRect@@QAEPAUtagRECT@@XZ ; CRect::operator tagRECT *
  01c11	50		 push	 eax
  01c12	8d 85 84 fe ff
	ff		 lea	 eax, DWORD PTR _rightStr$188085[ebp]
  01c18	50		 push	 eax
  01c19	8b 4d ec	 mov	 ecx, DWORD PTR _pDC$[ebp]
  01c1c	e8 00 00 00 00	 call	 ?DrawTextA@CDC@@QAEHABV?$CStringT@DV?$StrTraitMFC_DLL@DV?$ChTraitsCRT@D@ATL@@@@@ATL@@PAUtagRECT@@I@Z ; CDC::DrawTextA
$L188100:

; 591  : 				}
; 592  : 				else{

  01c21	eb 65		 jmp	 SHORT $L188096
$L188097:

; 593  : 					// And the standard Grey text:
; 594  : 					pDC->SetTextColor(m_clrBack);

  01c23	8b f4		 mov	 esi, esp
  01c25	8b 4d bc	 mov	 ecx, DWORD PTR _m_clrBack$[ebp]
  01c28	51		 push	 ecx
  01c29	8b 55 ec	 mov	 edx, DWORD PTR _pDC$[ebp]
  01c2c	8b 02		 mov	 eax, DWORD PTR [edx]
  01c2e	8b 4d ec	 mov	 ecx, DWORD PTR _pDC$[ebp]
  01c31	ff 50 38	 call	 DWORD PTR [eax+56]
  01c34	3b f4		 cmp	 esi, esp
  01c36	e8 00 00 00 00	 call	 __RTC_CheckEsp

; 595  : 					pDC->DrawText(leftStr,rectt, nFormat);

  01c3b	8b 8d 74 fe ff
	ff		 mov	 ecx, DWORD PTR _nFormat$188092[ebp]
  01c41	51		 push	 ecx
  01c42	8d 8d 9c fe ff
	ff		 lea	 ecx, DWORD PTR _rectt$188083[ebp]
  01c48	e8 00 00 00 00	 call	 ??BCRect@@QAEPAUtagRECT@@XZ ; CRect::operator tagRECT *
  01c4d	50		 push	 eax
  01c4e	8d 95 90 fe ff
	ff		 lea	 edx, DWORD PTR _leftStr$188084[ebp]
  01c54	52		 push	 edx
  01c55	8b 4d ec	 mov	 ecx, DWORD PTR _pDC$[ebp]
  01c58	e8 00 00 00 00	 call	 ?DrawTextA@CDC@@QAEHABV?$CStringT@DV?$StrTraitMFC_DLL@DV?$ChTraitsCRT@D@ATL@@@@@ATL@@PAUtagRECT@@I@Z ; CDC::DrawTextA

; 596  : 					if(tablocr!=-1) pDC->DrawText (rightStr,rectt,nFormatr);

  01c5d	83 bd 7c fe ff
	ff ff		 cmp	 DWORD PTR _tablocr$188086[ebp], -1
  01c64	74 22		 je	 SHORT $L188096
  01c66	8b 85 70 fe ff
	ff		 mov	 eax, DWORD PTR _nFormatr$188093[ebp]
  01c6c	50		 push	 eax
  01c6d	8d 8d 9c fe ff
	ff		 lea	 ecx, DWORD PTR _rectt$188083[ebp]
  01c73	e8 00 00 00 00	 call	 ??BCRect@@QAEPAUtagRECT@@XZ ; CRect::operator tagRECT *
  01c78	50		 push	 eax
  01c79	8d 8d 84 fe ff
	ff		 lea	 ecx, DWORD PTR _rightStr$188085[ebp]
  01c7f	51		 push	 ecx
  01c80	8b 4d ec	 mov	 ecx, DWORD PTR _pDC$[ebp]
  01c83	e8 00 00 00 00	 call	 ?DrawTextA@CDC@@QAEHABV?$CStringT@DV?$StrTraitMFC_DLL@DV?$ChTraitsCRT@D@ATL@@@@@ATL@@PAUtagRECT@@I@Z ; CDC::DrawTextA
$L188096:

; 597  : 				}
; 598  : 			}
; 599  : 			pDC->SetBkMode( iOldMode );

  01c88	8b 95 78 fe ff
	ff		 mov	 edx, DWORD PTR _iOldMode$188091[ebp]
  01c8e	52		 push	 edx
  01c8f	8b 4d ec	 mov	 ecx, DWORD PTR _pDC$[ebp]
  01c92	e8 00 00 00 00	 call	 ?SetBkMode@CDC@@QAEHH@Z	; CDC::SetBkMode

; 600  : 		}

  01c97	c6 45 fc 07	 mov	 BYTE PTR __$EHRec$[ebp+8], 7
  01c9b	8b f4		 mov	 esi, esp
  01c9d	8d 8d 84 fe ff
	ff		 lea	 ecx, DWORD PTR _rightStr$188085[ebp]
  01ca3	ff 15 00 00 00
	00		 call	 DWORD PTR __imp_??1?$CStringT@DV?$StrTraitMFC_DLL@DV?$ChTraitsCRT@D@ATL@@@@@ATL@@QAE@XZ
  01ca9	3b f4		 cmp	 esi, esp
  01cab	e8 00 00 00 00	 call	 __RTC_CheckEsp
  01cb0	c6 45 fc 03	 mov	 BYTE PTR __$EHRec$[ebp+8], 3
  01cb4	8b f4		 mov	 esi, esp
  01cb6	8d 8d 90 fe ff
	ff		 lea	 ecx, DWORD PTR _leftStr$188084[ebp]
  01cbc	ff 15 00 00 00
	00		 call	 DWORD PTR __imp_??1?$CStringT@DV?$StrTraitMFC_DLL@DV?$ChTraitsCRT@D@ATL@@@@@ATL@@QAE@XZ
  01cc2	3b f4		 cmp	 esi, esp
  01cc4	e8 00 00 00 00	 call	 __RTC_CheckEsp
$L188082:

; 601  : 		
; 602  : 		m_penBack.DeleteObject();

  01cc9	8d 8d 74 ff ff
	ff		 lea	 ecx, DWORD PTR _m_penBack$188009[ebp]
  01ccf	e8 00 00 00 00	 call	 ?DeleteObject@CGdiObject@@QAEHXZ ; CGdiObject::DeleteObject

; 603  : 		m_brSelect.DeleteObject();

  01cd4	8d 4d 84	 lea	 ecx, DWORD PTR _m_brSelect$188008[ebp]
  01cd7	e8 00 00 00 00	 call	 ?DeleteObject@CGdiObject@@QAEHXZ ; CGdiObject::DeleteObject

; 604  : 	}

  01cdc	c6 45 fc 02	 mov	 BYTE PTR __$EHRec$[ebp+8], 2
  01ce0	8b f4		 mov	 esi, esp
  01ce2	8d 8d 48 ff ff
	ff		 lea	 ecx, DWORD PTR _strText$188018[ebp]
  01ce8	ff 15 00 00 00
	00		 call	 DWORD PTR __imp_??1?$CStringT@DV?$StrTraitMFC_DLL@DV?$ChTraitsCRT@D@ATL@@@@@ATL@@QAE@XZ
  01cee	3b f4		 cmp	 esi, esp
  01cf0	e8 00 00 00 00	 call	 __RTC_CheckEsp
  01cf5	c6 45 fc 01	 mov	 BYTE PTR __$EHRec$[ebp+8], 1
  01cf9	8d 8d 74 ff ff
	ff		 lea	 ecx, DWORD PTR _m_penBack$188009[ebp]
  01cff	e8 00 00 00 00	 call	 ??1CPen@@UAE@XZ		; CPen::~CPen
  01d04	c6 45 fc 00	 mov	 BYTE PTR __$EHRec$[ebp+8], 0
  01d08	8d 4d 84	 lea	 ecx, DWORD PTR _m_brSelect$188008[ebp]
  01d0b	e8 00 00 00 00	 call	 ??1CBrush@@UAE@XZ	; CBrush::~CBrush
$L188001:

; 605  : 	m_brBackground.DeleteObject();

  01d10	8d 4d c4	 lea	 ecx, DWORD PTR _m_brBackground$[ebp]
  01d13	e8 00 00 00 00	 call	 ?DeleteObject@CGdiObject@@QAEHXZ ; CGdiObject::DeleteObject

; 606  : }

  01d18	c7 45 fc ff ff
	ff ff		 mov	 DWORD PTR __$EHRec$[ebp+8], -1
  01d1f	8d 4d c4	 lea	 ecx, DWORD PTR _m_brBackground$[ebp]
  01d22	e8 00 00 00 00	 call	 ??1CBrush@@UAE@XZ	; CBrush::~CBrush
  01d27	52		 push	 edx
  01d28	8b cd		 mov	 ecx, ebp
  01d2a	50		 push	 eax
  01d2b	8d 15 00 00 00
	00		 lea	 edx, DWORD PTR $L192154
  01d31	e8 00 00 00 00	 call	 @_RTC_CheckStackVars@8
  01d36	58		 pop	 eax
  01d37	5a		 pop	 edx
  01d38	8b 4d f4	 mov	 ecx, DWORD PTR __$EHRec$[ebp]
  01d3b	64 89 0d 00 00
	00 00		 mov	 DWORD PTR fs:__except_list, ecx
  01d42	5f		 pop	 edi
  01d43	5e		 pop	 esi
  01d44	81 c4 f0 01 00
	00		 add	 esp, 496		; 000001f0H
  01d4a	3b ec		 cmp	 ebp, esp
  01d4c	e8 00 00 00 00	 call	 __RTC_CheckEsp
  01d51	8b e5		 mov	 esp, ebp
  01d53	5d		 pop	 ebp
  01d54	c2 04 00	 ret	 4
$L192154:
  01d57	10 00 00 00	 DD	 16			; 00000010H
  01d5b	00 00 00 00	 DD	 $L192153
$L192153:
  01d5f	d8 ff ff ff	 DD	 -40			; ffffffd8H
  01d63	10 00 00 00	 DD	 16			; 00000010H
  01d67	00 00 00 00	 DD	 $L192136
  01d6b	c4 ff ff ff	 DD	 -60			; ffffffc4H
  01d6f	08 00 00 00	 DD	 8
  01d73	00 00 00 00	 DD	 $L192137
  01d77	a8 ff ff ff	 DD	 -88			; ffffffa8H
  01d7b	10 00 00 00	 DD	 16			; 00000010H
  01d7f	00 00 00 00	 DD	 $L192138
  01d83	84 ff ff ff	 DD	 -124			; ffffff84H
  01d87	08 00 00 00	 DD	 8
  01d8b	00 00 00 00	 DD	 $L192139
  01d8f	74 ff ff ff	 DD	 -140			; ffffff74H
  01d93	08 00 00 00	 DD	 8
  01d97	00 00 00 00	 DD	 $L192140
  01d9b	48 ff ff ff	 DD	 -184			; ffffff48H
  01d9f	04 00 00 00	 DD	 4
  01da3	00 00 00 00	 DD	 $L192141
  01da7	30 ff ff ff	 DD	 -208			; ffffff30H
  01dab	08 00 00 00	 DD	 8
  01daf	00 00 00 00	 DD	 $L192142
  01db3	20 ff ff ff	 DD	 -224			; ffffff20H
  01db7	08 00 00 00	 DD	 8
  01dbb	00 00 00 00	 DD	 $L192143
  01dbf	10 ff ff ff	 DD	 -240			; ffffff10H
  01dc3	08 00 00 00	 DD	 8
  01dc7	00 00 00 00	 DD	 $L192144
  01dcb	00 ff ff ff	 DD	 -256			; ffffff00H
  01dcf	08 00 00 00	 DD	 8
  01dd3	00 00 00 00	 DD	 $L192145
  01dd7	ec fe ff ff	 DD	 -276			; fffffeecH
  01ddb	08 00 00 00	 DD	 8
  01ddf	00 00 00 00	 DD	 $L192146
  01de3	b4 fe ff ff	 DD	 -332			; fffffeb4H
  01de7	30 00 00 00	 DD	 48			; 00000030H
  01deb	00 00 00 00	 DD	 $L192147
  01def	9c fe ff ff	 DD	 -356			; fffffe9cH
  01df3	10 00 00 00	 DD	 16			; 00000010H
  01df7	00 00 00 00	 DD	 $L192148
  01dfb	90 fe ff ff	 DD	 -368			; fffffe90H
  01dff	04 00 00 00	 DD	 4
  01e03	00 00 00 00	 DD	 $L192149
  01e07	84 fe ff ff	 DD	 -380			; fffffe84H
  01e0b	04 00 00 00	 DD	 4
  01e0f	00 00 00 00	 DD	 $L192150
  01e13	5c fe ff ff	 DD	 -420			; fffffe5cH
  01e17	10 00 00 00	 DD	 16			; 00000010H
  01e1b	00 00 00 00	 DD	 $L192151
$L192151:
  01e1f	6f		 DB	 111			; 0000006fH
  01e20	66		 DB	 102			; 00000066H
  01e21	66		 DB	 102			; 00000066H
  01e22	73		 DB	 115			; 00000073H
  01e23	65		 DB	 101			; 00000065H
  01e24	74		 DB	 116			; 00000074H
  01e25	00		 DB	 0
$L192150:
  01e26	72		 DB	 114			; 00000072H
  01e27	69		 DB	 105			; 00000069H
  01e28	67		 DB	 103			; 00000067H
  01e29	68		 DB	 104			; 00000068H
  01e2a	74		 DB	 116			; 00000074H
  01e2b	53		 DB	 83			; 00000053H
  01e2c	74		 DB	 116			; 00000074H
  01e2d	72		 DB	 114			; 00000072H
  01e2e	00		 DB	 0
$L192149:
  01e2f	6c		 DB	 108			; 0000006cH
  01e30	65		 DB	 101			; 00000065H
  01e31	66		 DB	 102			; 00000066H
  01e32	74		 DB	 116			; 00000074H
  01e33	53		 DB	 83			; 00000053H
  01e34	74		 DB	 116			; 00000074H
  01e35	72		 DB	 114			; 00000072H
  01e36	00		 DB	 0
$L192148:
  01e37	72		 DB	 114			; 00000072H
  01e38	65		 DB	 101			; 00000065H
  01e39	63		 DB	 99			; 00000063H
  01e3a	74		 DB	 116			; 00000074H
  01e3b	74		 DB	 116			; 00000074H
  01e3c	00		 DB	 0
$L192147:
  01e3d	69		 DB	 105			; 00000069H
  01e3e	6e		 DB	 110			; 0000006eH
  01e3f	66		 DB	 102			; 00000066H
  01e40	6f		 DB	 111			; 0000006fH
  01e41	00		 DB	 0
$L192146:
  01e42	70		 DB	 112			; 00000070H
  01e43	74		 DB	 116			; 00000074H
  01e44	49		 DB	 73			; 00000049H
  01e45	6d		 DB	 109			; 0000006dH
  01e46	61		 DB	 97			; 00000061H
  01e47	67		 DB	 103			; 00000067H
  01e48	65		 DB	 101			; 00000065H
  01e49	00		 DB	 0
$L192145:
  01e4a	62		 DB	 98			; 00000062H
  01e4b	72		 DB	 114			; 00000072H
  01e4c	75		 DB	 117			; 00000075H
  01e4d	73		 DB	 115			; 00000073H
  01e4e	68		 DB	 104			; 00000068H
  01e4f	00		 DB	 0
$L192144:
  01e50	70		 DB	 112			; 00000070H
  01e51	74		 DB	 116			; 00000074H
  01e52	49		 DB	 73			; 00000049H
  01e53	6d		 DB	 109			; 0000006dH
  01e54	61		 DB	 97			; 00000061H
  01e55	67		 DB	 103			; 00000067H
  01e56	65		 DB	 101			; 00000065H
  01e57	00		 DB	 0
$L192143:
  01e58	62		 DB	 98			; 00000062H
  01e59	69		 DB	 105			; 00000069H
  01e5a	74		 DB	 116			; 00000074H
  01e5b	6d		 DB	 109			; 0000006dH
  01e5c	61		 DB	 97			; 00000061H
  01e5d	70		 DB	 112			; 00000070H
  01e5e	73		 DB	 115			; 00000073H
  01e5f	74		 DB	 116			; 00000074H
  01e60	61		 DB	 97			; 00000061H
  01e61	6e		 DB	 110			; 0000006eH
  01e62	64		 DB	 100			; 00000064H
  01e63	61		 DB	 97			; 00000061H
  01e64	72		 DB	 114			; 00000072H
  01e65	64		 DB	 100			; 00000064H
  01e66	00		 DB	 0
$L192142:
  01e67	70		 DB	 112			; 00000070H
  01e68	74		 DB	 116			; 00000074H
  01e69	49		 DB	 73			; 00000049H
  01e6a	6d		 DB	 109			; 0000006dH
  01e6b	61		 DB	 97			; 00000061H
  01e6c	67		 DB	 103			; 00000067H
  01e6d	65		 DB	 101			; 00000065H
  01e6e	00		 DB	 0
$L192141:
  01e6f	73		 DB	 115			; 00000073H
  01e70	74		 DB	 116			; 00000074H
  01e71	72		 DB	 114			; 00000072H
  01e72	54		 DB	 84			; 00000054H
  01e73	65		 DB	 101			; 00000065H
  01e74	78		 DB	 120			; 00000078H
  01e75	74		 DB	 116			; 00000074H
  01e76	00		 DB	 0
$L192140:
  01e77	6d		 DB	 109			; 0000006dH
  01e78	5f		 DB	 95			; 0000005fH
  01e79	70		 DB	 112			; 00000070H
  01e7a	65		 DB	 101			; 00000065H
  01e7b	6e		 DB	 110			; 0000006eH
  01e7c	42		 DB	 66			; 00000042H
  01e7d	61		 DB	 97			; 00000061H
  01e7e	63		 DB	 99			; 00000063H
  01e7f	6b		 DB	 107			; 0000006bH
  01e80	00		 DB	 0
$L192139:
  01e81	6d		 DB	 109			; 0000006dH
  01e82	5f		 DB	 95			; 0000005fH
  01e83	62		 DB	 98			; 00000062H
  01e84	72		 DB	 114			; 00000072H
  01e85	53		 DB	 83			; 00000053H
  01e86	65		 DB	 101			; 00000065H
  01e87	6c		 DB	 108			; 0000006cH
  01e88	65		 DB	 101			; 00000065H
  01e89	63		 DB	 99			; 00000063H
  01e8a	74		 DB	 116			; 00000074H
  01e8b	00		 DB	 0
$L192138:
  01e8c	72		 DB	 114			; 00000072H
  01e8d	65		 DB	 101			; 00000065H
  01e8e	63		 DB	 99			; 00000063H
  01e8f	74		 DB	 116			; 00000074H
  01e90	32		 DB	 50			; 00000032H
  01e91	00		 DB	 0
$L192137:
  01e92	6d		 DB	 109			; 0000006dH
  01e93	5f		 DB	 95			; 0000005fH
  01e94	62		 DB	 98			; 00000062H
  01e95	72		 DB	 114			; 00000072H
  01e96	42		 DB	 66			; 00000042H
  01e97	61		 DB	 97			; 00000061H
  01e98	63		 DB	 99			; 00000063H
  01e99	6b		 DB	 107			; 0000006bH
  01e9a	67		 DB	 103			; 00000067H
  01e9b	72		 DB	 114			; 00000072H
  01e9c	6f		 DB	 111			; 0000006fH
  01e9d	75		 DB	 117			; 00000075H
  01e9e	6e		 DB	 110			; 0000006eH
  01e9f	64		 DB	 100			; 00000064H
  01ea0	00		 DB	 0
$L192136:
  01ea1	72		 DB	 114			; 00000072H
  01ea2	65		 DB	 101			; 00000065H
  01ea3	63		 DB	 99			; 00000063H
  01ea4	74		 DB	 116			; 00000074H
  01ea5	00		 DB	 0
_TEXT	ENDS
text$x	SEGMENT
$L192121:
  0006c	8d 4d c4	 lea	 ecx, DWORD PTR _m_brBackground$[ebp]
  0006f	e9 00 00 00 00	 jmp	 ??1CBrush@@UAE@XZ	; CBrush::~CBrush
$L192122:
  00074	8d 4d 84	 lea	 ecx, DWORD PTR _m_brSelect$188008[ebp]
  00077	e9 00 00 00 00	 jmp	 ??1CBrush@@UAE@XZ	; CBrush::~CBrush
$L192123:
  0007c	8d 8d 74 ff ff
	ff		 lea	 ecx, DWORD PTR _m_penBack$188009[ebp]
  00082	e9 00 00 00 00	 jmp	 ??1CPen@@UAE@XZ		; CPen::~CPen
$L192124:
  00087	8b f4		 mov	 esi, esp
  00089	8d 8d 48 ff ff
	ff		 lea	 ecx, DWORD PTR _strText$188018[ebp]
  0008f	ff 15 00 00 00
	00		 call	 DWORD PTR __imp_??1?$CStringT@DV?$StrTraitMFC_DLL@DV?$ChTraitsCRT@D@ATL@@@@@ATL@@QAE@XZ
  00095	3b f4		 cmp	 esi, esp
  00097	e9 00 00 00 00	 jmp	 __RTC_CheckEsp
$L192125:
  0009c	8b f4		 mov	 esi, esp
  0009e	8d 8d 54 fe ff
	ff		 lea	 ecx, DWORD PTR $T192112[ebp]
  000a4	ff 15 00 00 00
	00		 call	 DWORD PTR __imp_??1?$CStringT@DV?$StrTraitMFC_DLL@DV?$ChTraitsCRT@D@ATL@@@@@ATL@@QAE@XZ
  000aa	3b f4		 cmp	 esi, esp
  000ac	e9 00 00 00 00	 jmp	 __RTC_CheckEsp
$L192126:
  000b1	8d 8d 20 ff ff
	ff		 lea	 ecx, DWORD PTR _bitmapstandard$188054[ebp]
  000b7	e9 00 00 00 00	 jmp	 ??1CBitmap@@UAE@XZ	; CBitmap::~CBitmap
$L192127:
  000bc	8d 8d 00 ff ff
	ff		 lea	 ecx, DWORD PTR _brush$188070[ebp]
  000c2	e9 00 00 00 00	 jmp	 ??1CBrush@@UAE@XZ	; CBrush::~CBrush
$L192128:
  000c7	8b f4		 mov	 esi, esp
  000c9	8d 8d 90 fe ff
	ff		 lea	 ecx, DWORD PTR _leftStr$188084[ebp]
  000cf	ff 15 00 00 00
	00		 call	 DWORD PTR __imp_??1?$CStringT@DV?$StrTraitMFC_DLL@DV?$ChTraitsCRT@D@ATL@@@@@ATL@@QAE@XZ
  000d5	3b f4		 cmp	 esi, esp
  000d7	e9 00 00 00 00	 jmp	 __RTC_CheckEsp
$L192129:
  000dc	8b f4		 mov	 esi, esp
  000de	8d 8d 84 fe ff
	ff		 lea	 ecx, DWORD PTR _rightStr$188085[ebp]
  000e4	ff 15 00 00 00
	00		 call	 DWORD PTR __imp_??1?$CStringT@DV?$StrTraitMFC_DLL@DV?$ChTraitsCRT@D@ATL@@@@@ATL@@QAE@XZ
  000ea	3b f4		 cmp	 esi, esp
  000ec	e9 00 00 00 00	 jmp	 __RTC_CheckEsp
$L192130:
  000f1	8b f4		 mov	 esi, esp
  000f3	8d 8d 30 fe ff
	ff		 lea	 ecx, DWORD PTR $T192119[ebp]
  000f9	ff 15 00 00 00
	00		 call	 DWORD PTR __imp_??1?$CStringT@DV?$StrTraitMFC_DLL@DV?$ChTraitsCRT@D@ATL@@@@@ATL@@QAE@XZ
  000ff	3b f4		 cmp	 esi, esp
  00101	e9 00 00 00 00	 jmp	 __RTC_CheckEsp
$L192131:
  00106	8b f4		 mov	 esi, esp
  00108	8d 8d 2c fe ff
	ff		 lea	 ecx, DWORD PTR $T192120[ebp]
  0010e	ff 15 00 00 00
	00		 call	 DWORD PTR __imp_??1?$CStringT@DV?$StrTraitMFC_DLL@DV?$ChTraitsCRT@D@ATL@@@@@ATL@@QAE@XZ
  00114	3b f4		 cmp	 esi, esp
  00116	e9 00 00 00 00	 jmp	 __RTC_CheckEsp
__ehhandler$?DrawItem_Win9xNT2000@BCMenu@@IAEXPAUtagDRAWITEMSTRUCT@@@Z:
  0011b	b8 00 00 00 00	 mov	 eax, OFFSET FLAT:$T192133
  00120	e9 00 00 00 00	 jmp	 ___CxxFrameHandler
text$x	ENDS
?DrawItem_Win9xNT2000@BCMenu@@IAEXPAUtagDRAWITEMSTRUCT@@@Z ENDP ; BCMenu::DrawItem_Win9xNT2000
; Function compile flags: /Odt /RTCsu
; File d:\boxgit\playbox\playbox\dev\prj\playbox\src\gui\util\bcmenu.h
;	COMDAT ??0CMenuItemInfo@@QAE@XZ
_TEXT	SEGMENT
_this$ = -4						; size = 4
??0CMenuItemInfo@@QAE@XZ PROC NEAR			; CMenuItemInfo::CMenuItemInfo, COMDAT
; _this$ = ecx

; 64   : 	CMenuItemInfo()

  00000	55		 push	 ebp
  00001	8b ec		 mov	 ebp, esp
  00003	51		 push	 ecx
  00004	c7 45 fc cc cc
	cc cc		 mov	 DWORD PTR [ebp-4], -858993460 ; ccccccccH
  0000b	89 4d fc	 mov	 DWORD PTR _this$[ebp], ecx

; 65   : 	{
; 66   : 		memset(this, 0, sizeof(MENUITEMINFO));

  0000e	6a 30		 push	 48			; 00000030H
  00010	6a 00		 push	 0
  00012	8b 45 fc	 mov	 eax, DWORD PTR _this$[ebp]
  00015	50		 push	 eax
  00016	e8 00 00 00 00	 call	 _memset
  0001b	83 c4 0c	 add	 esp, 12			; 0000000cH

; 67   : 		cbSize = sizeof(MENUITEMINFO);

  0001e	8b 4d fc	 mov	 ecx, DWORD PTR _this$[ebp]
  00021	c7 01 30 00 00
	00		 mov	 DWORD PTR [ecx], 48	; 00000030H

; 68   : 	}

  00027	8b 45 fc	 mov	 eax, DWORD PTR _this$[ebp]
  0002a	83 c4 04	 add	 esp, 4
  0002d	3b ec		 cmp	 ebp, esp
  0002f	e8 00 00 00 00	 call	 __RTC_CheckEsp
  00034	8b e5		 mov	 esp, ebp
  00036	5d		 pop	 ebp
  00037	c3		 ret	 0
??0CMenuItemInfo@@QAE@XZ ENDP				; CMenuItemInfo::CMenuItemInfo
_TEXT	ENDS
PUBLIC	?InterlockedExchangePointer@@YGPAXPAPAXPAX@Z	; InterlockedExchangePointer
PUBLIC	?_AtlGetThreadACPFake@ATL@@YGIXZ		; ATL::_AtlGetThreadACPFake
PUBLIC	?_AtlGetThreadACPReal@ATL@@YGIXZ		; ATL::_AtlGetThreadACPReal
; Function compile flags: /Odt /RTCsu
; File d:\program files (x86)\microsoft visual studio .net 2003\vc7\atlmfc\include\atlconv.h
;	COMDAT ?_AtlGetThreadACPThunk@ATL@@YGIXZ
_TEXT	SEGMENT
_pfnGetThreadACP$ = -164				; size = 4
_ver$ = -156						; size = 148
__$ArrayPad$ = -4					; size = 4
__$ReturnAddr$ = 4					; size = 4
?_AtlGetThreadACPThunk@ATL@@YGIXZ PROC NEAR		; ATL::_AtlGetThreadACPThunk, COMDAT

; 134  : {

  00000	55		 push	 ebp
  00001	8b ec		 mov	 ebp, esp
  00003	81 ec a4 00 00
	00		 sub	 esp, 164		; 000000a4H
  00009	56		 push	 esi
  0000a	57		 push	 edi
  0000b	8d bd 5c ff ff
	ff		 lea	 edi, DWORD PTR [ebp-164]
  00011	b9 29 00 00 00	 mov	 ecx, 41			; 00000029H
  00016	b8 cc cc cc cc	 mov	 eax, -858993460		; ccccccccH
  0001b	f3 ab		 rep stosd
  0001d	a1 00 00 00 00	 mov	 eax, DWORD PTR ___security_cookie
  00022	89 45 fc	 mov	 DWORD PTR __$ArrayPad$[ebp], eax

; 135  : 	OSVERSIONINFO ver;
; 136  : 	ATLGETTHREADACP pfnGetThreadACP;
; 137  : 
; 138  : 	ver.dwOSVersionInfoSize = sizeof( ver );

  00025	c7 85 64 ff ff
	ff 94 00 00 00	 mov	 DWORD PTR _ver$[ebp], 148 ; 00000094H

; 139  : 	::GetVersionEx( &ver );

  0002f	8b f4		 mov	 esi, esp
  00031	8d 85 64 ff ff
	ff		 lea	 eax, DWORD PTR _ver$[ebp]
  00037	50		 push	 eax
  00038	ff 15 00 00 00
	00		 call	 DWORD PTR __imp__GetVersionExA@4
  0003e	3b f4		 cmp	 esi, esp
  00040	e8 00 00 00 00	 call	 __RTC_CheckEsp

; 140  : 	if( (ver.dwPlatformId == VER_PLATFORM_WIN32_NT) && (ver.dwMajorVersion >= 5) )

  00045	83 bd 74 ff ff
	ff 02		 cmp	 DWORD PTR _ver$[ebp+16], 2
  0004c	75 15		 jne	 SHORT $L24163
  0004e	83 bd 68 ff ff
	ff 05		 cmp	 DWORD PTR _ver$[ebp+4], 5
  00055	72 0c		 jb	 SHORT $L24163

; 141  : 	{
; 142  : 		// On Win2K, CP_THREAD_ACP is supported
; 143  : 		pfnGetThreadACP = _AtlGetThreadACPReal;

  00057	c7 85 5c ff ff
	ff 00 00 00 00	 mov	 DWORD PTR _pfnGetThreadACP$[ebp], OFFSET FLAT:?_AtlGetThreadACPReal@ATL@@YGIXZ ; ATL::_AtlGetThreadACPReal

; 144  : 	}
; 145  : 	else

  00061	eb 0a		 jmp	 SHORT $L24164
$L24163:

; 146  : 	{
; 147  : 		pfnGetThreadACP = _AtlGetThreadACPFake;

  00063	c7 85 5c ff ff
	ff 00 00 00 00	 mov	 DWORD PTR _pfnGetThreadACP$[ebp], OFFSET FLAT:?_AtlGetThreadACPFake@ATL@@YGIXZ ; ATL::_AtlGetThreadACPFake
$L24164:

; 148  : 	}
; 149  : 	InterlockedExchangePointer( reinterpret_cast< void** >(&g_pfnGetThreadACP), pfnGetThreadACP );

  0006d	8b 8d 5c ff ff
	ff		 mov	 ecx, DWORD PTR _pfnGetThreadACP$[ebp]
  00073	51		 push	 ecx
  00074	68 00 00 00 00	 push	 OFFSET FLAT:?g_pfnGetThreadACP@ATL@@3P6GIXZA ; ATL::g_pfnGetThreadACP
  00079	e8 00 00 00 00	 call	 ?InterlockedExchangePointer@@YGPAXPAPAXPAX@Z ; InterlockedExchangePointer

; 150  : 
; 151  : 	return( g_pfnGetThreadACP() );

  0007e	8b f4		 mov	 esi, esp
  00080	ff 15 00 00 00
	00		 call	 DWORD PTR ?g_pfnGetThreadACP@ATL@@3P6GIXZA ; ATL::g_pfnGetThreadACP
  00086	3b f4		 cmp	 esi, esp
  00088	e8 00 00 00 00	 call	 __RTC_CheckEsp

; 152  : }

  0008d	52		 push	 edx
  0008e	8b cd		 mov	 ecx, ebp
  00090	50		 push	 eax
  00091	8d 15 00 00 00
	00		 lea	 edx, DWORD PTR $L192163
  00097	e8 00 00 00 00	 call	 @_RTC_CheckStackVars@8
  0009c	58		 pop	 eax
  0009d	5a		 pop	 edx
  0009e	8b 4d fc	 mov	 ecx, DWORD PTR __$ArrayPad$[ebp]
  000a1	e8 00 00 00 00	 call	 @__security_check_cookie@4
  000a6	5f		 pop	 edi
  000a7	5e		 pop	 esi
  000a8	81 c4 a4 00 00
	00		 add	 esp, 164		; 000000a4H
  000ae	3b ec		 cmp	 ebp, esp
  000b0	e8 00 00 00 00	 call	 __RTC_CheckEsp
  000b5	8b e5		 mov	 esp, ebp
  000b7	5d		 pop	 ebp
  000b8	c3		 ret	 0
$L192163:
  000b9	01 00 00 00	 DD	 1
  000bd	00 00 00 00	 DD	 $L192162
$L192162:
  000c1	64 ff ff ff	 DD	 -156			; ffffff64H
  000c5	94 00 00 00	 DD	 148			; 00000094H
  000c9	00 00 00 00	 DD	 $L192160
$L192160:
  000cd	76		 DB	 118			; 00000076H
  000ce	65		 DB	 101			; 00000065H
  000cf	72		 DB	 114			; 00000072H
  000d0	00		 DB	 0
?_AtlGetThreadACPThunk@ATL@@YGIXZ ENDP			; ATL::_AtlGetThreadACPThunk
_TEXT	ENDS
EXTRN	__imp__InterlockedExchange@8:NEAR
; Function compile flags: /Odt /RTCsu
;	COMDAT ?InterlockedExchangePointer@@YGPAXPAPAXPAX@Z
_TEXT	SEGMENT
_pp$ = 8						; size = 4
_pNew$ = 12						; size = 4
?InterlockedExchangePointer@@YGPAXPAPAXPAX@Z PROC NEAR	; InterlockedExchangePointer, COMDAT

; 91   : {

  00000	55		 push	 ebp
  00001	8b ec		 mov	 ebp, esp
  00003	56		 push	 esi

; 92   : 	return( reinterpret_cast<void*>(static_cast<LONG_PTR>(::InterlockedExchange(reinterpret_cast<LONG*>(pp), static_cast<LONG>(reinterpret_cast<LONG_PTR>(pNew))))) );

  00004	8b f4		 mov	 esi, esp
  00006	8b 45 0c	 mov	 eax, DWORD PTR _pNew$[ebp]
  00009	50		 push	 eax
  0000a	8b 4d 08	 mov	 ecx, DWORD PTR _pp$[ebp]
  0000d	51		 push	 ecx
  0000e	ff 15 00 00 00
	00		 call	 DWORD PTR __imp__InterlockedExchange@8
  00014	3b f4		 cmp	 esi, esp
  00016	e8 00 00 00 00	 call	 __RTC_CheckEsp

; 93   : }

  0001b	5e		 pop	 esi
  0001c	3b ec		 cmp	 ebp, esp
  0001e	e8 00 00 00 00	 call	 __RTC_CheckEsp
  00023	5d		 pop	 ebp
  00024	c2 08 00	 ret	 8
?InterlockedExchangePointer@@YGPAXPAPAXPAX@Z ENDP	; InterlockedExchangePointer
_TEXT	ENDS
EXTRN	__imp__GetACP@0:NEAR
EXTRN	__imp__GetLocaleInfoA@16:NEAR
EXTRN	__imp__GetThreadLocale@0:NEAR
; Function compile flags: /Odt /RTCsu
;	COMDAT ?_AtlGetThreadACPFake@ATL@@YGIXZ
_TEXT	SEGMENT
_pch$24151 = -32					; size = 4
_szACP$ = -24						; size = 7
_lcidThread$ = -12					; size = 4
_nACP$ = -8						; size = 4
__$ArrayPad$ = -4					; size = 4
__$ReturnAddr$ = 4					; size = 4
?_AtlGetThreadACPFake@ATL@@YGIXZ PROC NEAR		; ATL::_AtlGetThreadACPFake, COMDAT

; 101  : {

  00000	55		 push	 ebp
  00001	8b ec		 mov	 ebp, esp
  00003	83 ec 20	 sub	 esp, 32			; 00000020H
  00006	56		 push	 esi
  00007	b8 cc cc cc cc	 mov	 eax, -858993460		; ccccccccH
  0000c	89 45 e0	 mov	 DWORD PTR [ebp-32], eax
  0000f	89 45 e4	 mov	 DWORD PTR [ebp-28], eax
  00012	89 45 e8	 mov	 DWORD PTR [ebp-24], eax
  00015	89 45 ec	 mov	 DWORD PTR [ebp-20], eax
  00018	89 45 f0	 mov	 DWORD PTR [ebp-16], eax
  0001b	89 45 f4	 mov	 DWORD PTR [ebp-12], eax
  0001e	89 45 f8	 mov	 DWORD PTR [ebp-8], eax
  00021	89 45 fc	 mov	 DWORD PTR [ebp-4], eax
  00024	a1 00 00 00 00	 mov	 eax, DWORD PTR ___security_cookie
  00029	89 45 fc	 mov	 DWORD PTR __$ArrayPad$[ebp], eax

; 102  : 	UINT nACP = 0;

  0002c	c7 45 f8 00 00
	00 00		 mov	 DWORD PTR _nACP$[ebp], 0

; 103  : 
; 104  : 	LCID lcidThread = ::GetThreadLocale();

  00033	8b f4		 mov	 esi, esp
  00035	ff 15 00 00 00
	00		 call	 DWORD PTR __imp__GetThreadLocale@0
  0003b	3b f4		 cmp	 esi, esp
  0003d	e8 00 00 00 00	 call	 __RTC_CheckEsp
  00042	89 45 f4	 mov	 DWORD PTR _lcidThread$[ebp], eax

; 105  : 
; 106  : 	char szACP[7];
; 107  : 	// GetLocaleInfoA will fail for a Unicode-only LCID, but those are only supported on 
; 108  : 	// Windows 2000.  Since Windows 2000 supports CP_THREAD_ACP, this code path is never
; 109  : 	// executed on Windows 2000.
; 110  : 	if (::GetLocaleInfoA(lcidThread, LOCALE_IDEFAULTANSICODEPAGE, szACP, 7) != 0)

  00045	8b f4		 mov	 esi, esp
  00047	6a 07		 push	 7
  00049	8d 45 e8	 lea	 eax, DWORD PTR _szACP$[ebp]
  0004c	50		 push	 eax
  0004d	68 04 10 00 00	 push	 4100			; 00001004H
  00052	8b 4d f4	 mov	 ecx, DWORD PTR _lcidThread$[ebp]
  00055	51		 push	 ecx
  00056	ff 15 00 00 00
	00		 call	 DWORD PTR __imp__GetLocaleInfoA@16
  0005c	3b f4		 cmp	 esi, esp
  0005e	e8 00 00 00 00	 call	 __RTC_CheckEsp
  00063	85 c0		 test	 eax, eax
  00065	74 34		 je	 SHORT $L24150

; 111  : 	{
; 112  : 		char* pch = szACP;

  00067	8d 55 e8	 lea	 edx, DWORD PTR _szACP$[ebp]
  0006a	89 55 e0	 mov	 DWORD PTR _pch$24151[ebp], edx
$L24153:

; 113  : 		while (*pch != '\0')

  0006d	8b 45 e0	 mov	 eax, DWORD PTR _pch$24151[ebp]
  00070	0f be 08	 movsx	 ecx, BYTE PTR [eax]
  00073	85 c9		 test	 ecx, ecx
  00075	74 24		 je	 SHORT $L24150

; 114  : 		{
; 115  : 			nACP *= 10;

  00077	8b 55 f8	 mov	 edx, DWORD PTR _nACP$[ebp]
  0007a	6b d2 0a	 imul	 edx, 10			; 0000000aH
  0007d	89 55 f8	 mov	 DWORD PTR _nACP$[ebp], edx

; 116  : 			nACP += *pch++ - '0';

  00080	8b 45 e0	 mov	 eax, DWORD PTR _pch$24151[ebp]
  00083	0f be 08	 movsx	 ecx, BYTE PTR [eax]
  00086	8b 55 f8	 mov	 edx, DWORD PTR _nACP$[ebp]
  00089	8d 44 0a d0	 lea	 eax, DWORD PTR [edx+ecx-48]
  0008d	89 45 f8	 mov	 DWORD PTR _nACP$[ebp], eax
  00090	8b 4d e0	 mov	 ecx, DWORD PTR _pch$24151[ebp]
  00093	83 c1 01	 add	 ecx, 1
  00096	89 4d e0	 mov	 DWORD PTR _pch$24151[ebp], ecx

; 117  : 		}

  00099	eb d2		 jmp	 SHORT $L24153
$L24150:

; 118  : 	}
; 119  : 	// Use the Default ANSI Code Page if we were unable to get the thread ACP or if one does not exist.
; 120  : 	if (nACP == 0)

  0009b	83 7d f8 00	 cmp	 DWORD PTR _nACP$[ebp], 0
  0009f	75 12		 jne	 SHORT $L24155

; 121  : 		nACP = ::GetACP();

  000a1	8b f4		 mov	 esi, esp
  000a3	ff 15 00 00 00
	00		 call	 DWORD PTR __imp__GetACP@0
  000a9	3b f4		 cmp	 esi, esp
  000ab	e8 00 00 00 00	 call	 __RTC_CheckEsp
  000b0	89 45 f8	 mov	 DWORD PTR _nACP$[ebp], eax
$L24155:

; 122  : 
; 123  : 	return nACP;

  000b3	8b 45 f8	 mov	 eax, DWORD PTR _nACP$[ebp]

; 124  : }

  000b6	52		 push	 edx
  000b7	8b cd		 mov	 ecx, ebp
  000b9	50		 push	 eax
  000ba	8d 15 00 00 00
	00		 lea	 edx, DWORD PTR $L192170
  000c0	e8 00 00 00 00	 call	 @_RTC_CheckStackVars@8
  000c5	58		 pop	 eax
  000c6	5a		 pop	 edx
  000c7	8b 4d fc	 mov	 ecx, DWORD PTR __$ArrayPad$[ebp]
  000ca	e8 00 00 00 00	 call	 @__security_check_cookie@4
  000cf	5e		 pop	 esi
  000d0	83 c4 20	 add	 esp, 32			; 00000020H
  000d3	3b ec		 cmp	 ebp, esp
  000d5	e8 00 00 00 00	 call	 __RTC_CheckEsp
  000da	8b e5		 mov	 esp, ebp
  000dc	5d		 pop	 ebp
  000dd	c3		 ret	 0
$L192170:
  000de	01 00 00 00	 DD	 1
  000e2	00 00 00 00	 DD	 $L192169
$L192169:
  000e6	e8 ff ff ff	 DD	 -24			; ffffffe8H
  000ea	07 00 00 00	 DD	 7
  000ee	00 00 00 00	 DD	 $L192167
$L192167:
  000f2	73		 DB	 115			; 00000073H
  000f3	7a		 DB	 122			; 0000007aH
  000f4	41		 DB	 65			; 00000041H
  000f5	43		 DB	 67			; 00000043H
  000f6	50		 DB	 80			; 00000050H
  000f7	00		 DB	 0
?_AtlGetThreadACPFake@ATL@@YGIXZ ENDP			; ATL::_AtlGetThreadACPFake
; Function compile flags: /Odt /RTCsu
_TEXT	ENDS
;	COMDAT ?_AtlGetThreadACPReal@ATL@@YGIXZ
_TEXT	SEGMENT
?_AtlGetThreadACPReal@ATL@@YGIXZ PROC NEAR		; ATL::_AtlGetThreadACPReal, COMDAT

; 127  : {

  00000	55		 push	 ebp
  00001	8b ec		 mov	 ebp, esp

; 128  : 	return( CP_THREAD_ACP );

  00003	b8 03 00 00 00	 mov	 eax, 3

; 129  : }

  00008	5d		 pop	 ebp
  00009	c3		 ret	 0
?_AtlGetThreadACPReal@ATL@@YGIXZ ENDP			; ATL::_AtlGetThreadACPReal
; Function compile flags: /Odt /RTCsu
_TEXT	ENDS
;	COMDAT ?_AtlGetConversionACP@ATL@@YGIXZ
_TEXT	SEGMENT
?_AtlGetConversionACP@ATL@@YGIXZ PROC NEAR		; ATL::_AtlGetConversionACP, COMDAT

; 157  : {

  00000	55		 push	 ebp
  00001	8b ec		 mov	 ebp, esp
  00003	56		 push	 esi

; 158  : 	return( g_pfnGetThreadACP() );

  00004	8b f4		 mov	 esi, esp
  00006	ff 15 00 00 00
	00		 call	 DWORD PTR ?g_pfnGetThreadACP@ATL@@3P6GIXZA ; ATL::g_pfnGetThreadACP
  0000c	3b f4		 cmp	 esi, esp
  0000e	e8 00 00 00 00	 call	 __RTC_CheckEsp

; 159  : }

  00013	5e		 pop	 esi
  00014	3b ec		 cmp	 ebp, esp
  00016	e8 00 00 00 00	 call	 __RTC_CheckEsp
  0001b	5d		 pop	 ebp
  0001c	c3		 ret	 0
?_AtlGetConversionACP@ATL@@YGIXZ ENDP			; ATL::_AtlGetConversionACP
_TEXT	ENDS
PUBLIC	__real@0000000000000000
PUBLIC	__real@3ff0000000000000
EXTRN	__ftol2:NEAR
;	COMDAT __real@0000000000000000
; File d:\boxgit\playbox\playbox\dev\prj\playbox\src\gui\util\bcmenu.cpp
CONST	SEGMENT
__real@0000000000000000 DQ 00000000000000000r	; 0
CONST	ENDS
;	COMDAT __real@3ff0000000000000
CONST	SEGMENT
__real@3ff0000000000000 DQ 03ff0000000000000r	; 1
; Function compile flags: /Odt /RTCsu
CONST	ENDS
_TEXT	SEGMENT
tv162 = -32						; size = 4
tv161 = -28						; size = 4
tv157 = -24						; size = 4
tv156 = -20						; size = 4
tv152 = -16						; size = 4
tv151 = -12						; size = 4
_lightblue$188113 = -6					; size = 1
_lightgreen$188112 = -5					; size = 1
_lightred$188111 = -4					; size = 1
_blue$188110 = -3					; size = 1
_green$188109 = -2					; size = 1
_red$188108 = -1					; size = 1
_col$ = 8						; size = 4
_factor$ = 12						; size = 8
?LightenColor@BCMenu@@SAKKN@Z PROC NEAR			; BCMenu::LightenColor

; 609  : {

  01eb0	55		 push	 ebp
  01eb1	8b ec		 mov	 ebp, esp
  01eb3	83 ec 20	 sub	 esp, 32			; 00000020H
  01eb6	b8 cc cc cc cc	 mov	 eax, -858993460		; ccccccccH
  01ebb	89 45 e0	 mov	 DWORD PTR [ebp-32], eax
  01ebe	89 45 e4	 mov	 DWORD PTR [ebp-28], eax
  01ec1	89 45 e8	 mov	 DWORD PTR [ebp-24], eax
  01ec4	89 45 ec	 mov	 DWORD PTR [ebp-20], eax
  01ec7	89 45 f0	 mov	 DWORD PTR [ebp-16], eax
  01eca	89 45 f4	 mov	 DWORD PTR [ebp-12], eax
  01ecd	89 45 f8	 mov	 DWORD PTR [ebp-8], eax
  01ed0	89 45 fc	 mov	 DWORD PTR [ebp-4], eax

; 610  : 	if(factor>0.0&&factor<=1.0){

  01ed3	dd 45 0c	 fld	 QWORD PTR _factor$[ebp]
  01ed6	dc 1d 00 00 00
	00		 fcomp	 QWORD PTR __real@0000000000000000
  01edc	df e0		 fnstsw	 ax
  01ede	f6 c4 41	 test	 ah, 65			; 00000041H
  01ee1	0f 85 be 00 00
	00		 jne	 $L188107
  01ee7	dd 45 0c	 fld	 QWORD PTR _factor$[ebp]
  01eea	dc 1d 00 00 00
	00		 fcomp	 QWORD PTR __real@3ff0000000000000
  01ef0	df e0		 fnstsw	 ax
  01ef2	f6 c4 41	 test	 ah, 65			; 00000041H
  01ef5	0f 8a aa 00 00
	00		 jp	 $L188107

; 611  : 		BYTE red,green,blue,lightred,lightgreen,lightblue;
; 612  : 		red = GetRValue(col);

  01efb	8a 45 08	 mov	 al, BYTE PTR _col$[ebp]
  01efe	88 45 ff	 mov	 BYTE PTR _red$188108[ebp], al

; 613  : 		green = GetGValue(col);

  01f01	0f b7 4d 08	 movzx	 ecx, WORD PTR _col$[ebp]
  01f05	c1 f9 08	 sar	 ecx, 8
  01f08	88 4d fe	 mov	 BYTE PTR _green$188109[ebp], cl

; 614  : 		blue = GetBValue(col);

  01f0b	8b 55 08	 mov	 edx, DWORD PTR _col$[ebp]
  01f0e	c1 ea 10	 shr	 edx, 16			; 00000010H
  01f11	88 55 fd	 mov	 BYTE PTR _blue$188110[ebp], dl

; 615  : 		lightred = (BYTE)((factor*(255-red)) + red);

  01f14	0f b6 45 ff	 movzx	 eax, BYTE PTR _red$188108[ebp]
  01f18	b9 ff 00 00 00	 mov	 ecx, 255		; 000000ffH
  01f1d	2b c8		 sub	 ecx, eax
  01f1f	89 4d f4	 mov	 DWORD PTR tv151[ebp], ecx
  01f22	db 45 f4	 fild	 DWORD PTR tv151[ebp]
  01f25	dc 4d 0c	 fmul	 QWORD PTR _factor$[ebp]
  01f28	0f b6 55 ff	 movzx	 edx, BYTE PTR _red$188108[ebp]
  01f2c	89 55 f0	 mov	 DWORD PTR tv152[ebp], edx
  01f2f	db 45 f0	 fild	 DWORD PTR tv152[ebp]
  01f32	de c1		 faddp	 ST(1), ST(0)
  01f34	e8 00 00 00 00	 call	 __ftol2
  01f39	88 45 fc	 mov	 BYTE PTR _lightred$188111[ebp], al

; 616  : 		lightgreen = (BYTE)((factor*(255-green)) + green);

  01f3c	0f b6 45 fe	 movzx	 eax, BYTE PTR _green$188109[ebp]
  01f40	b9 ff 00 00 00	 mov	 ecx, 255		; 000000ffH
  01f45	2b c8		 sub	 ecx, eax
  01f47	89 4d ec	 mov	 DWORD PTR tv156[ebp], ecx
  01f4a	db 45 ec	 fild	 DWORD PTR tv156[ebp]
  01f4d	dc 4d 0c	 fmul	 QWORD PTR _factor$[ebp]
  01f50	0f b6 55 fe	 movzx	 edx, BYTE PTR _green$188109[ebp]
  01f54	89 55 e8	 mov	 DWORD PTR tv157[ebp], edx
  01f57	db 45 e8	 fild	 DWORD PTR tv157[ebp]
  01f5a	de c1		 faddp	 ST(1), ST(0)
  01f5c	e8 00 00 00 00	 call	 __ftol2
  01f61	88 45 fb	 mov	 BYTE PTR _lightgreen$188112[ebp], al

; 617  : 		lightblue = (BYTE)((factor*(255-blue)) + blue);

  01f64	0f b6 45 fd	 movzx	 eax, BYTE PTR _blue$188110[ebp]
  01f68	b9 ff 00 00 00	 mov	 ecx, 255		; 000000ffH
  01f6d	2b c8		 sub	 ecx, eax
  01f6f	89 4d e4	 mov	 DWORD PTR tv161[ebp], ecx
  01f72	db 45 e4	 fild	 DWORD PTR tv161[ebp]
  01f75	dc 4d 0c	 fmul	 QWORD PTR _factor$[ebp]
  01f78	0f b6 55 fd	 movzx	 edx, BYTE PTR _blue$188110[ebp]
  01f7c	89 55 e0	 mov	 DWORD PTR tv162[ebp], edx
  01f7f	db 45 e0	 fild	 DWORD PTR tv162[ebp]
  01f82	de c1		 faddp	 ST(1), ST(0)
  01f84	e8 00 00 00 00	 call	 __ftol2
  01f89	88 45 fa	 mov	 BYTE PTR _lightblue$188113[ebp], al

; 618  : 		col = RGB(lightred,lightgreen,lightblue);

  01f8c	0f b6 45 fc	 movzx	 eax, BYTE PTR _lightred$188111[ebp]
  01f90	0f b6 4d fb	 movzx	 ecx, BYTE PTR _lightgreen$188112[ebp]
  01f94	c1 e1 08	 shl	 ecx, 8
  01f97	0b c1		 or	 eax, ecx
  01f99	0f b6 55 fa	 movzx	 edx, BYTE PTR _lightblue$188113[ebp]
  01f9d	c1 e2 10	 shl	 edx, 16			; 00000010H
  01fa0	0b c2		 or	 eax, edx
  01fa2	89 45 08	 mov	 DWORD PTR _col$[ebp], eax
$L188107:

; 619  : 	}
; 620  : 	return(col);

  01fa5	8b 45 08	 mov	 eax, DWORD PTR _col$[ebp]

; 621  : }

  01fa8	8b e5		 mov	 esp, ebp
  01faa	5d		 pop	 ebp
  01fab	c3		 ret	 0
?LightenColor@BCMenu@@SAKKN@Z ENDP			; BCMenu::LightenColor
_TEXT	ENDS
PUBLIC	?DarkenColor@BCMenu@@SAKKN@Z			; BCMenu::DarkenColor
; Function compile flags: /Odt /RTCsu
_TEXT	SEGMENT
tv156 = -32						; size = 4
tv155 = -28						; size = 4
tv152 = -24						; size = 4
tv151 = -20						; size = 4
tv148 = -16						; size = 4
tv147 = -12						; size = 4
_lightblue$188137 = -6					; size = 1
_lightgreen$188136 = -5					; size = 1
_lightred$188135 = -4					; size = 1
_blue$188134 = -3					; size = 1
_green$188133 = -2					; size = 1
_red$188132 = -1					; size = 1
_col$ = 8						; size = 4
_factor$ = 12						; size = 8
?DarkenColor@BCMenu@@SAKKN@Z PROC NEAR			; BCMenu::DarkenColor

; 624  : {

  01fb0	55		 push	 ebp
  01fb1	8b ec		 mov	 ebp, esp
  01fb3	83 ec 20	 sub	 esp, 32			; 00000020H
  01fb6	b8 cc cc cc cc	 mov	 eax, -858993460		; ccccccccH
  01fbb	89 45 e0	 mov	 DWORD PTR [ebp-32], eax
  01fbe	89 45 e4	 mov	 DWORD PTR [ebp-28], eax
  01fc1	89 45 e8	 mov	 DWORD PTR [ebp-24], eax
  01fc4	89 45 ec	 mov	 DWORD PTR [ebp-20], eax
  01fc7	89 45 f0	 mov	 DWORD PTR [ebp-16], eax
  01fca	89 45 f4	 mov	 DWORD PTR [ebp-12], eax
  01fcd	89 45 f8	 mov	 DWORD PTR [ebp-8], eax
  01fd0	89 45 fc	 mov	 DWORD PTR [ebp-4], eax

; 625  : 	if(factor>0.0&&factor<=1.0){

  01fd3	dd 45 0c	 fld	 QWORD PTR _factor$[ebp]
  01fd6	dc 1d 00 00 00
	00		 fcomp	 QWORD PTR __real@0000000000000000
  01fdc	df e0		 fnstsw	 ax
  01fde	f6 c4 41	 test	 ah, 65			; 00000041H
  01fe1	0f 85 a9 00 00
	00		 jne	 $L188131
  01fe7	dd 45 0c	 fld	 QWORD PTR _factor$[ebp]
  01fea	dc 1d 00 00 00
	00		 fcomp	 QWORD PTR __real@3ff0000000000000
  01ff0	df e0		 fnstsw	 ax
  01ff2	f6 c4 41	 test	 ah, 65			; 00000041H
  01ff5	0f 8a 95 00 00
	00		 jp	 $L188131

; 626  : 		BYTE red,green,blue,lightred,lightgreen,lightblue;
; 627  : 		red = GetRValue(col);

  01ffb	8a 45 08	 mov	 al, BYTE PTR _col$[ebp]
  01ffe	88 45 ff	 mov	 BYTE PTR _red$188132[ebp], al

; 628  : 		green = GetGValue(col);

  02001	0f b7 4d 08	 movzx	 ecx, WORD PTR _col$[ebp]
  02005	c1 f9 08	 sar	 ecx, 8
  02008	88 4d fe	 mov	 BYTE PTR _green$188133[ebp], cl

; 629  : 		blue = GetBValue(col);

  0200b	8b 55 08	 mov	 edx, DWORD PTR _col$[ebp]
  0200e	c1 ea 10	 shr	 edx, 16			; 00000010H
  02011	88 55 fd	 mov	 BYTE PTR _blue$188134[ebp], dl

; 630  : 		lightred = (BYTE)(red-(factor*red));

  02014	0f b6 45 ff	 movzx	 eax, BYTE PTR _red$188132[ebp]
  02018	89 45 f4	 mov	 DWORD PTR tv147[ebp], eax
  0201b	db 45 f4	 fild	 DWORD PTR tv147[ebp]
  0201e	0f b6 4d ff	 movzx	 ecx, BYTE PTR _red$188132[ebp]
  02022	89 4d f0	 mov	 DWORD PTR tv148[ebp], ecx
  02025	db 45 f0	 fild	 DWORD PTR tv148[ebp]
  02028	dc 4d 0c	 fmul	 QWORD PTR _factor$[ebp]
  0202b	de e9		 fsubp	 ST(1), ST(0)
  0202d	e8 00 00 00 00	 call	 __ftol2
  02032	88 45 fc	 mov	 BYTE PTR _lightred$188135[ebp], al

; 631  : 		lightgreen = (BYTE)(green-(factor*green));

  02035	0f b6 55 fe	 movzx	 edx, BYTE PTR _green$188133[ebp]
  02039	89 55 ec	 mov	 DWORD PTR tv151[ebp], edx
  0203c	db 45 ec	 fild	 DWORD PTR tv151[ebp]
  0203f	0f b6 45 fe	 movzx	 eax, BYTE PTR _green$188133[ebp]
  02043	89 45 e8	 mov	 DWORD PTR tv152[ebp], eax
  02046	db 45 e8	 fild	 DWORD PTR tv152[ebp]
  02049	dc 4d 0c	 fmul	 QWORD PTR _factor$[ebp]
  0204c	de e9		 fsubp	 ST(1), ST(0)
  0204e	e8 00 00 00 00	 call	 __ftol2
  02053	88 45 fb	 mov	 BYTE PTR _lightgreen$188136[ebp], al

; 632  : 		lightblue = (BYTE)(blue-(factor*blue));

  02056	0f b6 4d fd	 movzx	 ecx, BYTE PTR _blue$188134[ebp]
  0205a	89 4d e4	 mov	 DWORD PTR tv155[ebp], ecx
  0205d	db 45 e4	 fild	 DWORD PTR tv155[ebp]
  02060	0f b6 55 fd	 movzx	 edx, BYTE PTR _blue$188134[ebp]
  02064	89 55 e0	 mov	 DWORD PTR tv156[ebp], edx
  02067	db 45 e0	 fild	 DWORD PTR tv156[ebp]
  0206a	dc 4d 0c	 fmul	 QWORD PTR _factor$[ebp]
  0206d	de e9		 fsubp	 ST(1), ST(0)
  0206f	e8 00 00 00 00	 call	 __ftol2
  02074	88 45 fa	 mov	 BYTE PTR _lightblue$188137[ebp], al

; 633  : 		col = RGB(lightred,lightgreen,lightblue);

  02077	0f b6 45 fc	 movzx	 eax, BYTE PTR _lightred$188135[ebp]
  0207b	0f b6 4d fb	 movzx	 ecx, BYTE PTR _lightgreen$188136[ebp]
  0207f	c1 e1 08	 shl	 ecx, 8
  02082	0b c1		 or	 eax, ecx
  02084	0f b6 55 fa	 movzx	 edx, BYTE PTR _lightblue$188137[ebp]
  02088	c1 e2 10	 shl	 edx, 16			; 00000010H
  0208b	0b c2		 or	 eax, edx
  0208d	89 45 08	 mov	 DWORD PTR _col$[ebp], eax
$L188131:

; 634  : 	}
; 635  : 	return(col);

  02090	8b 45 08	 mov	 eax, DWORD PTR _col$[ebp]

; 636  : }

  02093	8b e5		 mov	 esp, ebp
  02095	5d		 pop	 ebp
  02096	c3		 ret	 0
?DarkenColor@BCMenu@@SAKKN@Z ENDP			; BCMenu::DarkenColor
_TEXT	ENDS
PUBLIC	?DrawXPCheckmark@BCMenu@@IAEHPAVCDC@@ABVCRect@@PAUHBITMAP__@@AAKH@Z ; BCMenu::DrawXPCheckmark
PUBLIC	?CanDraw3DImageList@BCMenu@@IAEHH@Z		; BCMenu::CanDraw3DImageList
PUBLIC	??0BCMenuMemDC@@QAE@PAVCDC@@PBUtagRECT@@@Z	; BCMenuMemDC::BCMenuMemDC
PUBLIC	__real@3f947ae147ae147b
PUBLIC	__real@3fd0000000000000
PUBLIC	__real@3feb333333333333
PUBLIC	__real@3fe6666666666666
PUBLIC	__real@4000000000000000
PUBLIC	__real@3fe0000000000000
PUBLIC	__real@3fe199999999999a
PUBLIC	__real@3fd999999999999a
EXTRN	??0CFont@@QAE@XZ:NEAR				; CFont::CFont
EXTRN	?CreateFontIndirectA@CFont@@QAEHPBUtagLOGFONTA@@@Z:NEAR ; CFont::CreateFontIndirectA
EXTRN	??1CFont@@UAE@XZ:NEAR				; CFont::~CFont
EXTRN	??2CObject@@SGPAXIPBDH@Z:NEAR			; CObject::operator new
EXTRN	??3CObject@@SGXPAXPBDH@Z:NEAR			; CObject::operator delete
EXTRN	__imp__SystemParametersInfoA@16:NEAR
EXTRN	?GetImageCount@CImageList@@QBEHXZ:NEAR		; CImageList::GetImageCount
xdata$x	SEGMENT
$T192269 DD	0ffffffffH
	DD	FLAT:$L192206
	DD	00H
	DD	FLAT:$L192207
	DD	01H
	DD	FLAT:$L192208
	DD	02H
	DD	FLAT:$L192209
	DD	02H
	DD	FLAT:$L192210
	DD	04H
	DD	FLAT:$L192211
	DD	05H
	DD	FLAT:$L192212
	DD	06H
	DD	FLAT:$L192213
	DD	06H
	DD	FLAT:$L192214
	DD	06H
	DD	FLAT:$L192215
	DD	06H
	DD	FLAT:$L192216
	DD	06H
	DD	FLAT:$L192217
	DD	0bH
	DD	FLAT:$L192218
	DD	0cH
	DD	FLAT:$L192219
	DD	0cH
	DD	FLAT:$L192220
$T192222 DD	019930520H
	DD	0fH
	DD	FLAT:$T192269
	DD	2 DUP(00H)
	DD	2 DUP(00H)
xdata$x	ENDS
;	COMDAT __real@3f947ae147ae147b
CONST	SEGMENT
__real@3f947ae147ae147b DQ 03f947ae147ae147br	; 0.02
CONST	ENDS
;	COMDAT __real@3fd0000000000000
CONST	SEGMENT
__real@3fd0000000000000 DQ 03fd0000000000000r	; 0.25
CONST	ENDS
;	COMDAT __real@3feb333333333333
CONST	SEGMENT
__real@3feb333333333333 DQ 03feb333333333333r	; 0.85
CONST	ENDS
;	COMDAT __real@3fe6666666666666
CONST	SEGMENT
__real@3fe6666666666666 DQ 03fe6666666666666r	; 0.7
CONST	ENDS
;	COMDAT __real@4000000000000000
CONST	SEGMENT
__real@4000000000000000 DQ 04000000000000000r	; 2
CONST	ENDS
;	COMDAT __real@3fe0000000000000
CONST	SEGMENT
__real@3fe0000000000000 DQ 03fe0000000000000r	; 0.5
CONST	ENDS
;	COMDAT __real@3fe199999999999a
CONST	SEGMENT
__real@3fe199999999999a DQ 03fe199999999999ar	; 0.55
CONST	ENDS
;	COMDAT __real@3fd999999999999a
CONST	SEGMENT
__real@3fd999999999999a DQ 03fd999999999999ar	; 0.4
; Function compile flags: /Odt /RTCsu
CONST	ENDS
_TEXT	SEGMENT
tv846 = -1160						; size = 4
tv866 = -1156						; size = 4
tv869 = -1152						; size = 4
tv864 = -1148						; size = 4
tv487 = -1144						; size = 4
tv682 = -1140						; size = 4
tv1082 = -1136						; size = 4
tv1074 = -1132						; size = 4
tv857 = -1128						; size = 4
tv258 = -1124						; size = 4
tv158 = -1120						; size = 4
$T192203 = -1116					; size = 4
$T192202 = -1112					; size = 4
$T192201 = -1108					; size = 4
$T192200 = -1104					; size = 4
$T192197 = -1100					; size = 8
$T192196 = -1092					; size = 8
$T192195 = -1084					; size = 8
$T192194 = -1076					; size = 8
$T192193 = -1068					; size = 8
$T192192 = -1060					; size = 8
$T192191 = -1052					; size = 8
$T192190 = -1044					; size = 8
$T192189 = -1036					; size = 8
$T192188 = -1028					; size = 4
$T192184 = -1024					; size = 4
$T192183 = -1020					; size = 4
_graycol$188310 = -1016					; size = 4
_offset$188308 = -1008					; size = 16
_nFormatr$188304 = -988					; size = 4
_nFormat$188303 = -984					; size = 4
_iOldMode$188302 = -980					; size = 4
_tablocr$188297 = -976					; size = 4
_rightStr$188296 = -968					; size = 4
_leftStr$188295 = -956					; size = 4
_rectt$188294 = -944					; size = 16
_info$188289 = -920					; size = 48
_ptImage$188282 = -864					; size = 8
_ptImage$188278 = -848					; size = 8
_brushin$188277 = -832					; size = 8
_ptImage2$188270 = -816					; size = 8
_ptImage1$188269 = -800					; size = 8
_brushin$188265 = -784					; size = 8
_ptImage$188263 = -768					; size = 8
_transparentcol$188255 = -756				; size = 4
_bitmapstandard$188254 = -748				; size = 8
_ptImage$188251 = -732					; size = 8
_ptImage$188242 = -716					; size = 8
_pOldPen$188236 = -704					; size = 4
_pOldPen$188234 = -700					; size = 4
_strText$188212 = -692					; size = 4
_state$188211 = -684					; size = 4
_CanDraw3D$188210 = -680				; size = 4
_bitmap$188209 = -676					; size = 4
_disabled_offset$188208 = -672				; size = 4
_shadow_offset$188207 = -668				; size = 4
_faded_offset$188206 = -664				; size = 4
_global_offset$188205 = -660				; size = 4
_xoffset$188204 = -656					; size = 4
_nIconNormal$188203 = -652				; size = 4
_dy$188202 = -648					; size = 4
_dx$188201 = -644					; size = 4
_y0$188200 = -640					; size = 4
_x0$188199 = -636					; size = 4
_m_penBack$188198 = -628				; size = 8
_m_brSelect$188197 = -612				; size = 8
_crSelectFill$188194 = -600				; size = 4
_crSelect$188193 = -592					; size = 4
_crText$188192 = -584					; size = 4
_checkflag$188191 = -580				; size = 4
_disableflag$188190 = -576				; size = 4
_selectedflag$188189 = -572				; size = 4
_standardflag$188188 = -568				; size = 4
_nm$188183 = -560					; size = 340
_barwidth$ = -216					; size = 4
_BCMENU_PAD$ = -212					; size = 4
_m_brBackground$ = -204					; size = 8
_m_newbrBackground$ = -188				; size = 8
_m_lf$ = -172						; size = 60
_pFont$ = -108						; size = 4
_m_fontMenu$ = -100					; size = 8
_m_clrBack$ = -88					; size = 4
_m_newclrBack$ = -84					; size = 4
_state$ = -80						; size = 4
_rect2$ = -72						; size = 16
_rect$ = -48						; size = 16
_pMemDC$ = -28						; size = 4
_pDC$ = -24						; size = 4
_this$ = -20						; size = 4
__$ArrayPad$ = -16					; size = 4
__$EHRec$ = -12						; size = 12
__$ReturnAddr$ = 4					; size = 4
_lpDIS$ = 8						; size = 4
?DrawItem_WinXP@BCMenu@@IAEXPAUtagDRAWITEMSTRUCT@@@Z PROC NEAR ; BCMenu::DrawItem_WinXP
; _this$ = ecx

; 639  : {

  020a0	55		 push	 ebp
  020a1	8b ec		 mov	 ebp, esp
  020a3	6a ff		 push	 -1
  020a5	68 00 00 00 00	 push	 __ehhandler$?DrawItem_WinXP@BCMenu@@IAEXPAUtagDRAWITEMSTRUCT@@@Z
  020aa	64 a1 00 00 00
	00		 mov	 eax, DWORD PTR fs:__except_list
  020b0	50		 push	 eax
  020b1	64 89 25 00 00
	00 00		 mov	 DWORD PTR fs:__except_list, esp
  020b8	81 ec 7c 04 00
	00		 sub	 esp, 1148		; 0000047cH
  020be	56		 push	 esi
  020bf	57		 push	 edi
  020c0	51		 push	 ecx
  020c1	8d bd 78 fb ff
	ff		 lea	 edi, DWORD PTR [ebp-1160]
  020c7	b9 1f 01 00 00	 mov	 ecx, 287		; 0000011fH
  020cc	b8 cc cc cc cc	 mov	 eax, -858993460		; ccccccccH
  020d1	f3 ab		 rep stosd
  020d3	59		 pop	 ecx
  020d4	a1 00 00 00 00	 mov	 eax, DWORD PTR ___security_cookie
  020d9	89 45 f0	 mov	 DWORD PTR __$ArrayPad$[ebp], eax
  020dc	89 4d ec	 mov	 DWORD PTR _this$[ebp], ecx

; 640  : 	ASSERT(lpDIS != NULL);

  020df	83 7d 08 00	 cmp	 DWORD PTR _lpDIS$[ebp], 0
  020e3	75 14		 jne	 SHORT $L192182
  020e5	68 80 02 00 00	 push	 640			; 00000280H
  020ea	68 00 00 00 00	 push	 OFFSET FLAT:_THIS_FILE
  020ef	e8 00 00 00 00	 call	 ?AfxAssertFailedLine@@YGHPBDH@Z ; AfxAssertFailedLine
  020f4	85 c0		 test	 eax, eax
  020f6	74 01		 je	 SHORT $L192182
  020f8	cc		 int	 3
$L192182:

; 641  : 	CDC* pDC = CDC::FromHandle(lpDIS->hDC);

  020f9	8b 4d 08	 mov	 ecx, DWORD PTR _lpDIS$[ebp]
  020fc	8b 51 18	 mov	 edx, DWORD PTR [ecx+24]
  020ff	52		 push	 edx
  02100	e8 00 00 00 00	 call	 ?FromHandle@CDC@@SGPAV1@PAUHDC__@@@Z ; CDC::FromHandle
  02105	89 45 e8	 mov	 DWORD PTR _pDC$[ebp], eax

; 642  : #ifdef BCMENU_USE_MEMDC
; 643  : 	BCMenuMemDC *pMemDC=NULL;

  02108	c7 45 e4 00 00
	00 00		 mov	 DWORD PTR _pMemDC$[ebp], 0

; 644  : #endif
; 645  : 	CRect rect,rect2;

  0210f	8d 4d d0	 lea	 ecx, DWORD PTR _rect$[ebp]
  02112	e8 00 00 00 00	 call	 ??0CRect@@QAE@XZ	; CRect::CRect
  02117	8d 4d b8	 lea	 ecx, DWORD PTR _rect2$[ebp]
  0211a	e8 00 00 00 00	 call	 ??0CRect@@QAE@XZ	; CRect::CRect

; 646  : 	UINT state = (((BCMenuData*)(lpDIS->itemData))->nFlags);

  0211f	8b 45 08	 mov	 eax, DWORD PTR _lpDIS$[ebp]
  02122	8b 48 2c	 mov	 ecx, DWORD PTR [eax+44]
  02125	8b 51 10	 mov	 edx, DWORD PTR [ecx+16]
  02128	89 55 b0	 mov	 DWORD PTR _state$[ebp], edx

; 647  : //modified by vito--
; 648  : /*	COLORREF m_newclrBack=GetSysColor(COLOR_3DFACE);
; 649  : 	COLORREF m_clrBack=GetSysColor(COLOR_WINDOW);
; 650  : */
; 651  : 	COLORREF m_newclrBack=m_menuItemBitmapBkColor;

  0212b	8b 45 ec	 mov	 eax, DWORD PTR _this$[ebp]
  0212e	8b 48 58	 mov	 ecx, DWORD PTR [eax+88]
  02131	89 4d ac	 mov	 DWORD PTR _m_newclrBack$[ebp], ecx

; 652  : 	COLORREF m_clrBack=m_menuItemBkColor;

  02134	8b 55 ec	 mov	 edx, DWORD PTR _this$[ebp]
  02137	8b 42 54	 mov	 eax, DWORD PTR [edx+84]
  0213a	89 45 a8	 mov	 DWORD PTR _m_clrBack$[ebp], eax

; 653  : //--
; 654  : 	m_clrBack=DarkenColor(m_clrBack,0.02);

  0213d	dd 05 00 00 00
	00		 fld	 QWORD PTR __real@3f947ae147ae147b
  02143	83 ec 08	 sub	 esp, 8
  02146	dd 1c 24	 fstp	 QWORD PTR [esp]
  02149	8b 4d a8	 mov	 ecx, DWORD PTR _m_clrBack$[ebp]
  0214c	51		 push	 ecx
  0214d	e8 00 00 00 00	 call	 ?DarkenColor@BCMenu@@SAKKN@Z ; BCMenu::DarkenColor
  02152	83 c4 0c	 add	 esp, 12			; 0000000cH
  02155	89 45 a8	 mov	 DWORD PTR _m_clrBack$[ebp], eax

; 655  : 	CFont m_fontMenu,*pFont=NULL;

  02158	8d 4d 9c	 lea	 ecx, DWORD PTR _m_fontMenu$[ebp]
  0215b	e8 00 00 00 00	 call	 ??0CFont@@QAE@XZ	; CFont::CFont
  02160	c7 45 fc 00 00
	00 00		 mov	 DWORD PTR __$EHRec$[ebp+8], 0
  02167	c7 45 94 00 00
	00 00		 mov	 DWORD PTR _pFont$[ebp], 0

; 656  : 	LOGFONT m_lf;
; 657  : 	if(!IsWinXPLuna())m_newclrBack=LightenColor(m_newclrBack,0.25);

  0216e	e8 00 00 00 00	 call	 ?IsWinXPLuna@BCMenu@@KAHXZ ; BCMenu::IsWinXPLuna
  02173	85 c0		 test	 eax, eax
  02175	75 1b		 jne	 SHORT $L188167
  02177	dd 05 00 00 00
	00		 fld	 QWORD PTR __real@3fd0000000000000
  0217d	83 ec 08	 sub	 esp, 8
  02180	dd 1c 24	 fstp	 QWORD PTR [esp]
  02183	8b 55 ac	 mov	 edx, DWORD PTR _m_newclrBack$[ebp]
  02186	52		 push	 edx
  02187	e8 00 00 00 00	 call	 ?LightenColor@BCMenu@@SAKKN@Z ; BCMenu::LightenColor
  0218c	83 c4 0c	 add	 esp, 12			; 0000000cH
  0218f	89 45 ac	 mov	 DWORD PTR _m_newclrBack$[ebp], eax
$L188167:

; 658  : 	CBrush m_newbrBackground,m_brBackground;

  02192	8d 8d 44 ff ff
	ff		 lea	 ecx, DWORD PTR _m_newbrBackground$[ebp]
  02198	e8 00 00 00 00	 call	 ??0CBrush@@QAE@XZ	; CBrush::CBrush
  0219d	c6 45 fc 01	 mov	 BYTE PTR __$EHRec$[ebp+8], 1
  021a1	8d 8d 34 ff ff
	ff		 lea	 ecx, DWORD PTR _m_brBackground$[ebp]
  021a7	e8 00 00 00 00	 call	 ??0CBrush@@QAE@XZ	; CBrush::CBrush
  021ac	c6 45 fc 02	 mov	 BYTE PTR __$EHRec$[ebp+8], 2

; 659  : 	m_brBackground.CreateSolidBrush(m_clrBack);

  021b0	8b 45 a8	 mov	 eax, DWORD PTR _m_clrBack$[ebp]
  021b3	50		 push	 eax
  021b4	8d 8d 34 ff ff
	ff		 lea	 ecx, DWORD PTR _m_brBackground$[ebp]
  021ba	e8 00 00 00 00	 call	 ?CreateSolidBrush@CBrush@@QAEHK@Z ; CBrush::CreateSolidBrush

; 660  : 	m_newbrBackground.CreateSolidBrush(m_newclrBack);

  021bf	8b 4d ac	 mov	 ecx, DWORD PTR _m_newclrBack$[ebp]
  021c2	51		 push	 ecx
  021c3	8d 8d 44 ff ff
	ff		 lea	 ecx, DWORD PTR _m_newbrBackground$[ebp]
  021c9	e8 00 00 00 00	 call	 ?CreateSolidBrush@CBrush@@QAEHK@Z ; CBrush::CreateSolidBrush

; 661  : 	int BCMENU_PAD=4;

  021ce	c7 85 2c ff ff
	ff 04 00 00 00	 mov	 DWORD PTR _BCMENU_PAD$[ebp], 4

; 662  : 	if(xp_draw_3D_bitmaps)BCMENU_PAD=7;

  021d8	83 3d 00 00 00
	00 00		 cmp	 DWORD PTR ?xp_draw_3D_bitmaps@BCMenu@@1HA, 0 ; BCMenu::xp_draw_3D_bitmaps
  021df	74 0a		 je	 SHORT $L188171
  021e1	c7 85 2c ff ff
	ff 07 00 00 00	 mov	 DWORD PTR _BCMENU_PAD$[ebp], 7
$L188171:

; 663  : 	int barwidth=m_iconX+BCMENU_PAD;

  021eb	8b 15 00 00 00
	00		 mov	 edx, DWORD PTR ?m_iconX@BCMenu@@1HA ; BCMenu::m_iconX
  021f1	03 95 2c ff ff
	ff		 add	 edx, DWORD PTR _BCMENU_PAD$[ebp]
  021f7	89 95 28 ff ff
	ff		 mov	 DWORD PTR _barwidth$[ebp], edx

; 664  : 	
; 665  : 	// remove the selected bit if it's grayed out
; 666  : 	if(lpDIS->itemState & ODS_GRAYED&&!xp_select_disabled){

  021fd	8b 45 08	 mov	 eax, DWORD PTR _lpDIS$[ebp]
  02200	8b 48 10	 mov	 ecx, DWORD PTR [eax+16]
  02203	83 e1 02	 and	 ecx, 2
  02206	0f 84 25 01 00
	00		 je	 $L188173
  0220c	83 3d 00 00 00
	00 00		 cmp	 DWORD PTR ?xp_select_disabled@BCMenu@@1HA, 0 ; BCMenu::xp_select_disabled
  02213	0f 85 18 01 00
	00		 jne	 $L188173

; 667  : 		if(lpDIS->itemState & ODS_SELECTED)lpDIS->itemState=lpDIS->itemState & ~ODS_SELECTED;

  02219	8b 55 08	 mov	 edx, DWORD PTR _lpDIS$[ebp]
  0221c	8b 42 10	 mov	 eax, DWORD PTR [edx+16]
  0221f	83 e0 01	 and	 eax, 1
  02222	74 0f		 je	 SHORT $L188174
  02224	8b 4d 08	 mov	 ecx, DWORD PTR _lpDIS$[ebp]
  02227	8b 51 10	 mov	 edx, DWORD PTR [ecx+16]
  0222a	83 e2 fe	 and	 edx, -2			; fffffffeH
  0222d	8b 45 08	 mov	 eax, DWORD PTR _lpDIS$[ebp]
  02230	89 50 10	 mov	 DWORD PTR [eax+16], edx
$L188174:

; 668  : #ifdef BCMENU_USE_MEMDC
; 669  : 		pMemDC=new BCMenuMemDC(pDC,&lpDIS->rcItem);

  02233	68 9d 02 00 00	 push	 669			; 0000029dH
  02238	68 00 00 00 00	 push	 OFFSET FLAT:_THIS_FILE
  0223d	6a 34		 push	 52			; 00000034H
  0223f	e8 00 00 00 00	 call	 ??2CObject@@SGPAXIPBDH@Z ; CObject::operator new
  02244	89 85 00 fc ff
	ff		 mov	 DWORD PTR $T192184[ebp], eax
  0224a	c6 45 fc 03	 mov	 BYTE PTR __$EHRec$[ebp+8], 3
  0224e	83 bd 00 fc ff
	ff 00		 cmp	 DWORD PTR $T192184[ebp], 0
  02255	74 1e		 je	 SHORT $L192185
  02257	8b 4d 08	 mov	 ecx, DWORD PTR _lpDIS$[ebp]
  0225a	83 c1 1c	 add	 ecx, 28			; 0000001cH
  0225d	51		 push	 ecx
  0225e	8b 55 e8	 mov	 edx, DWORD PTR _pDC$[ebp]
  02261	52		 push	 edx
  02262	8b 8d 00 fc ff
	ff		 mov	 ecx, DWORD PTR $T192184[ebp]
  02268	e8 00 00 00 00	 call	 ??0BCMenuMemDC@@QAE@PAVCDC@@PBUtagRECT@@@Z ; BCMenuMemDC::BCMenuMemDC
  0226d	89 85 a0 fb ff
	ff		 mov	 DWORD PTR tv158[ebp], eax
  02273	eb 0a		 jmp	 SHORT $L192186
$L192185:
  02275	c7 85 a0 fb ff
	ff 00 00 00 00	 mov	 DWORD PTR tv158[ebp], 0
$L192186:
  0227f	8b 85 a0 fb ff
	ff		 mov	 eax, DWORD PTR tv158[ebp]
  02285	89 85 04 fc ff
	ff		 mov	 DWORD PTR $T192183[ebp], eax
  0228b	c6 45 fc 02	 mov	 BYTE PTR __$EHRec$[ebp+8], 2
  0228f	8b 8d 04 fc ff
	ff		 mov	 ecx, DWORD PTR $T192183[ebp]
  02295	89 4d e4	 mov	 DWORD PTR _pMemDC$[ebp], ecx

; 670  : 		pDC = pMemDC;

  02298	8b 55 e4	 mov	 edx, DWORD PTR _pMemDC$[ebp]
  0229b	89 55 e8	 mov	 DWORD PTR _pDC$[ebp], edx

; 671  : 		ZeroMemory ((PVOID) &m_lf,sizeof (LOGFONT));

  0229e	6a 3c		 push	 60			; 0000003cH
  022a0	6a 00		 push	 0
  022a2	8d 85 54 ff ff
	ff		 lea	 eax, DWORD PTR _m_lf$[ebp]
  022a8	50		 push	 eax
  022a9	e8 00 00 00 00	 call	 _memset
  022ae	83 c4 0c	 add	 esp, 12			; 0000000cH

; 672  : 		NONCLIENTMETRICS nm;
; 673  : 		nm.cbSize = sizeof (NONCLIENTMETRICS);

  022b1	c7 85 d0 fd ff
	ff 54 01 00 00	 mov	 DWORD PTR _nm$188183[ebp], 340 ; 00000154H

; 674  : 		VERIFY (SystemParametersInfo(SPI_GETNONCLIENTMETRICS,nm.cbSize,&nm,0)); 

  022bb	8b f4		 mov	 esi, esp
  022bd	6a 00		 push	 0
  022bf	8d 8d d0 fd ff
	ff		 lea	 ecx, DWORD PTR _nm$188183[ebp]
  022c5	51		 push	 ecx
  022c6	8b 95 d0 fd ff
	ff		 mov	 edx, DWORD PTR _nm$188183[ebp]
  022cc	52		 push	 edx
  022cd	6a 29		 push	 41			; 00000029H
  022cf	ff 15 00 00 00
	00		 call	 DWORD PTR __imp__SystemParametersInfoA@16
  022d5	3b f4		 cmp	 esi, esp
  022d7	e8 00 00 00 00	 call	 __RTC_CheckEsp
  022dc	85 c0		 test	 eax, eax
  022de	75 14		 jne	 SHORT $L192187
  022e0	68 a2 02 00 00	 push	 674			; 000002a2H
  022e5	68 00 00 00 00	 push	 OFFSET FLAT:_THIS_FILE
  022ea	e8 00 00 00 00	 call	 ?AfxAssertFailedLine@@YGHPBDH@Z ; AfxAssertFailedLine
  022ef	85 c0		 test	 eax, eax
  022f1	74 01		 je	 SHORT $L192187
  022f3	cc		 int	 3
$L192187:

; 675  : 		m_lf =  nm.lfMenuFont;

  022f4	b9 0f 00 00 00	 mov	 ecx, 15			; 0000000fH
  022f9	8d b5 70 fe ff
	ff		 lea	 esi, DWORD PTR _nm$188183[ebp+160]
  022ff	8d bd 54 ff ff
	ff		 lea	 edi, DWORD PTR _m_lf$[ebp]
  02305	f3 a5		 rep movsd

; 676  : 		m_fontMenu.CreateFontIndirect (&m_lf);

  02307	8d 8d 54 ff ff
	ff		 lea	 ecx, DWORD PTR _m_lf$[ebp]
  0230d	51		 push	 ecx
  0230e	8d 4d 9c	 lea	 ecx, DWORD PTR _m_fontMenu$[ebp]
  02311	e8 00 00 00 00	 call	 ?CreateFontIndirectA@CFont@@QAEHPBUtagLOGFONTA@@@Z ; CFont::CreateFontIndirectA

; 677  : 		pFont = pDC->SelectObject (&m_fontMenu);

  02316	8b f4		 mov	 esi, esp
  02318	8d 55 9c	 lea	 edx, DWORD PTR _m_fontMenu$[ebp]
  0231b	52		 push	 edx
  0231c	8b 45 e8	 mov	 eax, DWORD PTR _pDC$[ebp]
  0231f	8b 10		 mov	 edx, DWORD PTR [eax]
  02321	8b 4d e8	 mov	 ecx, DWORD PTR _pDC$[ebp]
  02324	ff 52 30	 call	 DWORD PTR [edx+48]
  02327	3b f4		 cmp	 esi, esp
  02329	e8 00 00 00 00	 call	 __RTC_CheckEsp
  0232e	89 45 94	 mov	 DWORD PTR _pFont$[ebp], eax
$L188173:

; 678  : #endif
; 679  : 
; 680  : 	}
; 681  : 	
; 682  : 	if(state & MF_SEPARATOR){

  02331	8b 45 b0	 mov	 eax, DWORD PTR _state$[ebp]
  02334	25 00 08 00 00	 and	 eax, 2048		; 00000800H
  02339	0f 84 a7 00 00
	00		 je	 $L188186

; 683  : 		rect.CopyRect(&lpDIS->rcItem);

  0233f	8b 4d 08	 mov	 ecx, DWORD PTR _lpDIS$[ebp]
  02342	83 c1 1c	 add	 ecx, 28			; 0000001cH
  02345	51		 push	 ecx
  02346	8d 4d d0	 lea	 ecx, DWORD PTR _rect$[ebp]
  02349	e8 00 00 00 00	 call	 ?CopyRect@CRect@@QAEXPBUtagRECT@@@Z ; CRect::CopyRect

; 684  : 		pDC->FillRect (rect,&m_brBackground);

  0234e	8d 95 34 ff ff
	ff		 lea	 edx, DWORD PTR _m_brBackground$[ebp]
  02354	52		 push	 edx
  02355	8d 4d d0	 lea	 ecx, DWORD PTR _rect$[ebp]
  02358	e8 00 00 00 00	 call	 ??BCRect@@QAEPAUtagRECT@@XZ ; CRect::operator tagRECT *
  0235d	50		 push	 eax
  0235e	8b 4d e8	 mov	 ecx, DWORD PTR _pDC$[ebp]
  02361	e8 00 00 00 00	 call	 ?FillRect@CDC@@QAEXPBUtagRECT@@PAVCBrush@@@Z ; CDC::FillRect

; 685  : 		rect2.SetRect(rect.left,rect.top,rect.left+barwidth,rect.bottom);

  02366	8b 45 dc	 mov	 eax, DWORD PTR _rect$[ebp+12]
  02369	50		 push	 eax
  0236a	8b 4d d0	 mov	 ecx, DWORD PTR _rect$[ebp]
  0236d	03 8d 28 ff ff
