; Listing generated by Microsoft (R) Optimizing Compiler Version 13.10.3077 

	TITLE	.\src\LayoutMgr\ChangeColor\BitMapOperate.cpp
	.386P
include listing.inc
if @Version gt 510
.model FLAT
else
_TEXT	SEGMENT PARA USE32 PUBLIC 'CODE'
_TEXT	ENDS
_DATA	SEGMENT DWORD USE32 PUBLIC 'DATA'
_DATA	ENDS
CONST	SEGMENT DWORD USE32 PUBLIC 'CONST'
CONST	ENDS
_BSS	SEGMENT DWORD USE32 PUBLIC 'BSS'
_BSS	ENDS
$$SYMBOLS	SEGMENT BYTE USE32 'DEBSYM'
$$SYMBOLS	ENDS
_TLS	SEGMENT DWORD USE32 PUBLIC 'TLS'
_TLS	ENDS
;	COMDAT ??_C@_0EN@IBFBLEEG@D?3?2Program?5Files?5?$CIx86?$CJ?2Microsoft@
CONST	SEGMENT DWORD USE32 PUBLIC 'CONST'
CONST	ENDS
rdata$r	SEGMENT DWORD USE32 PUBLIC 'CONST'
rdata$r	ENDS
xdata$x	SEGMENT DWORD USE32 PUBLIC 'CONST'
xdata$x	ENDS
text$AFX_COL1	SEGMENT PARA USE32 PUBLIC ''
text$AFX_COL1	ENDS
text$yc	SEGMENT PARA USE32 PUBLIC 'CODE'
text$yc	ENDS
CRT$XCA	SEGMENT DWORD USE32 PUBLIC 'DATA'
CRT$XCA	ENDS
CRT$XCU	SEGMENT DWORD USE32 PUBLIC 'DATA'
CRT$XCU	ENDS
CRT$XCL	SEGMENT DWORD USE32 PUBLIC 'DATA'
CRT$XCL	ENDS
CRT$XCC	SEGMENT DWORD USE32 PUBLIC 'DATA'
CRT$XCC	ENDS
CRT$XCZ	SEGMENT DWORD USE32 PUBLIC 'DATA'
CRT$XCZ	ENDS
text$yd	SEGMENT PARA USE32 PUBLIC 'CODE'
text$yd	ENDS
ATL$__m	SEGMENT DWORD USE32 PUBLIC ''
ATL$__m	ENDS
ATL$__z	SEGMENT DWORD USE32 PUBLIC ''
ATL$__z	ENDS
ATL$__a	SEGMENT DWORD USE32 PUBLIC ''
ATL$__a	ENDS
;	COMDAT ??0DIBINFO@@QAE@XZ
_TEXT	SEGMENT PARA USE32 PUBLIC 'CODE'
_TEXT	ENDS
;	COMDAT ??1DIBINFO@@UAE@XZ
_TEXT	SEGMENT PARA USE32 PUBLIC 'CODE'
_TEXT	ENDS
;	COMDAT ??_GDIBINFO@@UAEPAXI@Z
_TEXT	SEGMENT PARA USE32 PUBLIC 'CODE'
_TEXT	ENDS
;	COMDAT ??_GCBitMapOperate@@UAEPAXI@Z
_TEXT	SEGMENT PARA USE32 PUBLIC 'CODE'
_TEXT	ENDS
;	COMDAT ?RGBtoHSL@CBitMapOperate@@QAEXMMMPAM00@Z
_TEXT	SEGMENT PARA USE32 PUBLIC 'CODE'
_TEXT	ENDS
;	COMDAT ?RGBtoHSL@CBitMapOperate@@QAEXKPAN00@Z
_TEXT	SEGMENT PARA USE32 PUBLIC 'CODE'
_TEXT	ENDS
;	COMDAT ?HLStoRGB@CBitMapOperate@@QAEXABM00PAE11@Z
_TEXT	SEGMENT PARA USE32 PUBLIC 'CODE'
_TEXT	ENDS
;	COMDAT ?HLStoRGB@CBitMapOperate@@QAEKABN00@Z
_TEXT	SEGMENT PARA USE32 PUBLIC 'CODE'
_TEXT	ENDS
;	COMDAT ?HuetoRGB@CBitMapOperate@@QAEMMMM@Z
_TEXT	SEGMENT PARA USE32 PUBLIC 'CODE'
_TEXT	ENDS
;	COMDAT _$E5
text$yc	SEGMENT PARA USE32 PUBLIC 'CODE'
text$yc	ENDS
;	COMDAT _$E6
text$yd	SEGMENT PARA USE32 PUBLIC 'CODE'
text$yd	ENDS
;	COMDAT ??B?$CComPtrBase@UITypeInfo2@@@ATL@@QBEPAUITypeInfo2@@XZ
_TEXT	SEGMENT PARA USE32 PUBLIC 'CODE'
_TEXT	ENDS
;	COMDAT ?equal@?$istreambuf_iterator@DU?$char_traits@D@std@@@std@@QBE_NABV12@@Z
_TEXT	SEGMENT PARA USE32 PUBLIC 'CODE'
_TEXT	ENDS
;	COMDAT ?equal@?$istreambuf_iterator@_WU?$char_traits@_W@std@@@std@@QBE_NABV12@@Z
_TEXT	SEGMENT PARA USE32 PUBLIC 'CODE'
_TEXT	ENDS
;	COMDAT ??0iterator@?$_Tree@V?$_Tmap_traits@KKU?$less@K@std@@V?$allocator@U?$pair@$$CBKK@std@@@2@$0A@@std@@@std@@QAE@XZ
_TEXT	SEGMENT PARA USE32 PUBLIC 'CODE'
_TEXT	ENDS
;	COMDAT ??0const_iterator@?$_Tree@V?$_Tmap_traits@KKU?$less@K@std@@V?$allocator@U?$pair@$$CBKK@std@@@2@$0A@@std@@@std@@QAE@XZ
_TEXT	SEGMENT PARA USE32 PUBLIC 'CODE'
_TEXT	ENDS
;	COMDAT ?Unlock@?$CComCritSecLock@VCComCriticalSection@ATL@@@ATL@@QAEXXZ
_TEXT	SEGMENT PARA USE32 PUBLIC 'CODE'
_TEXT	ENDS
;	COMDAT ??$_Maklocstr@D@std@@YAPADPBDPADABU_Cvtvec@@@Z
_TEXT	SEGMENT PARA USE32 PUBLIC 'CODE'
_TEXT	ENDS
;	COMDAT ??_R3DIBINFO@@8
rdata$r	SEGMENT DWORD USE32 PUBLIC 'CONST'
rdata$r	ENDS
;	COMDAT ??_R3?$numpunct@_W@std@@8
rdata$r	SEGMENT DWORD USE32 PUBLIC 'CONST'
rdata$r	ENDS
;	COMDAT ??_R3?$numpunct@D@std@@8
rdata$r	SEGMENT DWORD USE32 PUBLIC 'CONST'
rdata$r	ENDS
;	COMDAT ??_R3CBitMapOperate@@8
rdata$r	SEGMENT DWORD USE32 PUBLIC 'CONST'
rdata$r	ENDS
;	COMDAT ??_R2DIBINFO@@8
rdata$r	SEGMENT DWORD USE32 PUBLIC 'CONST'
rdata$r	ENDS
;	COMDAT ??_R2?$numpunct@_W@std@@8
rdata$r	SEGMENT DWORD USE32 PUBLIC 'CONST'
rdata$r	ENDS
;	COMDAT ??_R2?$numpunct@D@std@@8
rdata$r	SEGMENT DWORD USE32 PUBLIC 'CONST'
rdata$r	ENDS
;	COMDAT ??_R2CBitMapOperate@@8
rdata$r	SEGMENT DWORD USE32 PUBLIC 'CONST'
rdata$r	ENDS
;	COMDAT ??_R1A@?0A@A@?$numpunct@_W@std@@8
rdata$r	SEGMENT DWORD USE32 PUBLIC 'CONST'
rdata$r	ENDS
;	COMDAT ??_R1A@?0A@A@facet@locale@std@@8
rdata$r	SEGMENT DWORD USE32 PUBLIC 'CONST'
rdata$r	ENDS
;	COMDAT ??_R0?AVfacet@locale@std@@@8
_DATA	SEGMENT DWORD USE32 PUBLIC 'DATA'
_DATA	ENDS
;	COMDAT ??_R1A@?0A@A@?$numpunct@D@std@@8
rdata$r	SEGMENT DWORD USE32 PUBLIC 'CONST'
rdata$r	ENDS
;	COMDAT ??_R1A@?0A@A@DIBINFO@@8
rdata$r	SEGMENT DWORD USE32 PUBLIC 'CONST'
rdata$r	ENDS
;	COMDAT ??_R1A@?0A@A@CBitMapOperate@@8
rdata$r	SEGMENT DWORD USE32 PUBLIC 'CONST'
rdata$r	ENDS
;	COMDAT ??_R0?AV?$numpunct@_W@std@@@8
_DATA	SEGMENT DWORD USE32 PUBLIC 'DATA'
_DATA	ENDS
;	COMDAT ??_R0?AV?$numpunct@D@std@@@8
_DATA	SEGMENT DWORD USE32 PUBLIC 'DATA'
_DATA	ENDS
;	COMDAT ??_R0?AVDIBINFO@@@8
_DATA	SEGMENT DWORD USE32 PUBLIC 'DATA'
_DATA	ENDS
;	COMDAT ??_R0?AVCBitMapOperate@@@8
_DATA	SEGMENT DWORD USE32 PUBLIC 'DATA'
_DATA	ENDS
;	COMDAT ??_R4DIBINFO@@6B@
rdata$r	SEGMENT DWORD USE32 PUBLIC 'CONST'
rdata$r	ENDS
;	COMDAT ??0?$allocator@_W@std@@QAE@XZ
_TEXT	SEGMENT PARA USE32 PUBLIC 'CODE'
_TEXT	ENDS
;	COMDAT ??0?$allocator@D@std@@QAE@ABV01@@Z
_TEXT	SEGMENT PARA USE32 PUBLIC 'CODE'
_TEXT	ENDS
;	COMDAT ??0?$allocator@D@std@@QAE@XZ
_TEXT	SEGMENT PARA USE32 PUBLIC 'CODE'
_TEXT	ENDS
;	COMDAT ?deallocate@?$allocator@D@std@@QAEXPADI@Z
_TEXT	SEGMENT PARA USE32 PUBLIC 'CODE'
_TEXT	ENDS
;	COMDAT ?max_size@?$allocator@D@std@@QBEIXZ
_TEXT	SEGMENT PARA USE32 PUBLIC 'CODE'
_TEXT	ENDS
;	COMDAT ?allocate@?$allocator@D@std@@QAEPADI@Z
_TEXT	SEGMENT PARA USE32 PUBLIC 'CODE'
_TEXT	ENDS
;	COMDAT ??$_Allocate@D@std@@YAPADIPAD@Z
_TEXT	SEGMENT PARA USE32 PUBLIC 'CODE'
_TEXT	ENDS
;	COMDAT ??_G?$numpunct@_W@std@@MAEPAXI@Z
_TEXT	SEGMENT PARA USE32 PUBLIC 'CODE'
_TEXT	ENDS
;	COMDAT ??_R4?$numpunct@_W@std@@6B@
rdata$r	SEGMENT DWORD USE32 PUBLIC 'CONST'
rdata$r	ENDS
;	COMDAT ??_G?$numpunct@D@std@@MAEPAXI@Z
_TEXT	SEGMENT PARA USE32 PUBLIC 'CODE'
_TEXT	ENDS
;	COMDAT ??_R4?$numpunct@D@std@@6B@
rdata$r	SEGMENT DWORD USE32 PUBLIC 'CONST'
rdata$r	ENDS
;	COMDAT ??_R4CBitMapOperate@@6B@
rdata$r	SEGMENT DWORD USE32 PUBLIC 'CONST'
rdata$r	ENDS
;	COMDAT ??_C@_0EN@CBMLGOH@D?3?2Program?5Files?5?$CIx86?$CJ?2Microsoft@
CONST	SEGMENT DWORD USE32 PUBLIC 'CONST'
CONST	ENDS
;	COMDAT ?_Psave@?$_Facetptr@V?$numpunct@_W@std@@@std@@2PBVfacet@locale@2@B
_DATA	SEGMENT DWORD USE32 PUBLIC 'DATA'
_DATA	ENDS
;	COMDAT ?_Psave@?$_Facetptr@V?$numpunct@D@std@@@std@@2PBVfacet@locale@2@B
_DATA	SEGMENT DWORD USE32 PUBLIC 'DATA'
_DATA	ENDS
;	COMDAT ?Unlock@CComCriticalSection@ATL@@QAEJXZ
_TEXT	SEGMENT PARA USE32 PUBLIC 'CODE'
_TEXT	ENDS
;	COMDAT ??_C@_0FG@LDNDNCJM@D?3?2Program?5Files?5?$CIx86?$CJ?2Microsoft@
CONST	SEGMENT DWORD USE32 PUBLIC 'CONST'
CONST	ENDS
;	COMDAT ??_C@_09HIEJFN@m_bLocked?$AA@
CONST	SEGMENT DWORD USE32 PUBLIC 'CONST'
CONST	ENDS
;	COMDAT ?_Psave@?$_Facetptr@V?$ctype@_W@std@@@std@@2PBVfacet@locale@2@B
_DATA	SEGMENT DWORD USE32 PUBLIC 'DATA'
_DATA	ENDS
;	COMDAT ?_Psave@?$_Facetptr@V?$ctype@D@std@@@std@@2PBVfacet@locale@2@B
_DATA	SEGMENT DWORD USE32 PUBLIC 'DATA'
_DATA	ENDS
;	COMDAT ??$_Maklocchr@_W@std@@YA_WDPA_WABU_Cvtvec@@@Z
_TEXT	SEGMENT PARA USE32 PUBLIC 'CODE'
_TEXT	ENDS
;	COMDAT ??$_DebugHeapDelete@X@std@@YAXPAX@Z
_TEXT	SEGMENT PARA USE32 PUBLIC 'CODE'
_TEXT	ENDS
;	COMDAT ??$_Maklocstr@_W@std@@YAPA_WPBDPA_WABU_Cvtvec@@@Z
_TEXT	SEGMENT PARA USE32 PUBLIC 'CODE'
_TEXT	ENDS
;	COMDAT ??$_Maklocchr@D@std@@YADDPADABU_Cvtvec@@@Z
_TEXT	SEGMENT PARA USE32 PUBLIC 'CODE'
_TEXT	ENDS
;	COMDAT ??_C@_04LOAJBDKD@true?$AA@
CONST	SEGMENT DWORD USE32 PUBLIC 'CONST'
CONST	ENDS
;	COMDAT ??_C@_05LAPONLG@false?$AA@
CONST	SEGMENT DWORD USE32 PUBLIC 'CONST'
CONST	ENDS
;	COMDAT _wmemcpy
_TEXT	SEGMENT PARA USE32 PUBLIC 'CODE'
_TEXT	ENDS
;	COMDAT ?max_size@?$allocator@_W@std@@QBEIXZ
_TEXT	SEGMENT PARA USE32 PUBLIC 'CODE'
_TEXT	ENDS
;	COMDAT ?allocate@?$allocator@_W@std@@QAEPA_WI@Z
_TEXT	SEGMENT PARA USE32 PUBLIC 'CODE'
_TEXT	ENDS
;	COMDAT ??$_Allocate@_W@std@@YAPA_WIPA_W@Z
_TEXT	SEGMENT PARA USE32 PUBLIC 'CODE'
_TEXT	ENDS
;	COMDAT ??_C@_01GFHCPBMG@C?$AA@
CONST	SEGMENT DWORD USE32 PUBLIC 'CONST'
CONST	ENDS
;	COMDAT ?_Peek@?$istreambuf_iterator@_WU?$char_traits@_W@std@@@std@@AAE_WXZ
_TEXT	SEGMENT PARA USE32 PUBLIC 'CODE'
_TEXT	ENDS
;	COMDAT ?_Peek@?$istreambuf_iterator@DU?$char_traits@D@std@@@std@@AAEDXZ
_TEXT	SEGMENT PARA USE32 PUBLIC 'CODE'
_TEXT	ENDS
;	COMDAT ??$use_facet@V?$ctype@_W@std@@@std@@YAABV?$ctype@_W@0@ABVlocale@0@@Z
_TEXT	SEGMENT PARA USE32 PUBLIC 'CODE'
_TEXT	ENDS
;	COMDAT ??_S?$ctype@_W@std@@6B@
CONST	SEGMENT DWORD USE32 PUBLIC 'CONST'
CONST	ENDS
;	COMDAT ??_R4?$ctype@_W@std@@6B@
rdata$r	SEGMENT DWORD USE32 PUBLIC 'CONST'
rdata$r	ENDS
;	COMDAT ??_R0?AV?$ctype@_W@std@@@8
_DATA	SEGMENT DWORD USE32 PUBLIC 'DATA'
_DATA	ENDS
;	COMDAT ??_R3?$ctype@_W@std@@8
rdata$r	SEGMENT DWORD USE32 PUBLIC 'CONST'
rdata$r	ENDS
;	COMDAT ??_R2?$ctype@_W@std@@8
rdata$r	SEGMENT DWORD USE32 PUBLIC 'CONST'
rdata$r	ENDS
;	COMDAT ??_R1A@?0A@A@?$ctype@_W@std@@8
rdata$r	SEGMENT DWORD USE32 PUBLIC 'CONST'
rdata$r	ENDS
;	COMDAT ??_R1A@?0A@A@ctype_base@std@@8
rdata$r	SEGMENT DWORD USE32 PUBLIC 'CONST'
rdata$r	ENDS
;	COMDAT ??_R0?AUctype_base@std@@@8
_DATA	SEGMENT DWORD USE32 PUBLIC 'DATA'
_DATA	ENDS
;	COMDAT ??_G?$ctype@_W@std@@MAEPAXI@Z
_TEXT	SEGMENT PARA USE32 PUBLIC 'CODE'
_TEXT	ENDS
;	COMDAT ??_C@_08EPJLHIJG@bad?5cast?$AA@
CONST	SEGMENT DWORD USE32 PUBLIC 'CONST'
CONST	ENDS
;	COMDAT __TI2?AVbad_cast@@
xdata$x	SEGMENT DWORD USE32 PUBLIC 'CONST'
xdata$x	ENDS
;	COMDAT __CTA2?AVbad_cast@@
xdata$x	SEGMENT DWORD USE32 PUBLIC 'CONST'
xdata$x	ENDS
;	COMDAT __CT??_R0?AVbad_cast@@@8??0bad_cast@@QAE@ABV0@@Z12
xdata$x	SEGMENT DWORD USE32 PUBLIC 'CONST'
xdata$x	ENDS
;	COMDAT ??_R0?AVbad_cast@@@8
_DATA	SEGMENT DWORD USE32 PUBLIC 'DATA'
_DATA	ENDS
;	COMDAT __CT??_R0?AVexception@@@8??0exception@@QAE@ABV0@@Z12
xdata$x	SEGMENT DWORD USE32 PUBLIC 'CONST'
xdata$x	ENDS
;	COMDAT ??_R0?AVexception@@@8
_DATA	SEGMENT DWORD USE32 PUBLIC 'DATA'
_DATA	ENDS
;	COMDAT ??$_DebugHeapDelete@Vfacet@locale@std@@@std@@YAXPAVfacet@locale@0@@Z
_TEXT	SEGMENT PARA USE32 PUBLIC 'CODE'
_TEXT	ENDS
;	COMDAT ??$use_facet@V?$ctype@D@std@@@std@@YAABV?$ctype@D@0@ABVlocale@0@@Z
_TEXT	SEGMENT PARA USE32 PUBLIC 'CODE'
_TEXT	ENDS
;	COMDAT ??_S?$ctype@D@std@@6B@
CONST	SEGMENT DWORD USE32 PUBLIC 'CONST'
CONST	ENDS
;	COMDAT ??_R4?$ctype@D@std@@6B@
rdata$r	SEGMENT DWORD USE32 PUBLIC 'CONST'
rdata$r	ENDS
;	COMDAT ??_R0?AV?$ctype@D@std@@@8
_DATA	SEGMENT DWORD USE32 PUBLIC 'DATA'
_DATA	ENDS
;	COMDAT ??_R3?$ctype@D@std@@8
rdata$r	SEGMENT DWORD USE32 PUBLIC 'CONST'
rdata$r	ENDS
;	COMDAT ??_R2?$ctype@D@std@@8
rdata$r	SEGMENT DWORD USE32 PUBLIC 'CONST'
rdata$r	ENDS
;	COMDAT ??_R1A@?0A@A@?$ctype@D@std@@8
rdata$r	SEGMENT DWORD USE32 PUBLIC 'CONST'
rdata$r	ENDS
;	COMDAT ??_G?$ctype@D@std@@MAEPAXI@Z
_TEXT	SEGMENT PARA USE32 PUBLIC 'CODE'
_TEXT	ENDS
;	COMDAT ??_S?$numpunct@_W@std@@6B@
CONST	SEGMENT DWORD USE32 PUBLIC 'CONST'
CONST	ENDS
;	COMDAT ??_S?$numpunct@D@std@@6B@
CONST	SEGMENT DWORD USE32 PUBLIC 'CONST'
CONST	ENDS
;	COMDAT _wmemmove
_TEXT	SEGMENT PARA USE32 PUBLIC 'CODE'
_TEXT	ENDS
;	COMDAT ?deallocate@?$allocator@_W@std@@QAEXPA_WI@Z
_TEXT	SEGMENT PARA USE32 PUBLIC 'CODE'
_TEXT	ENDS
;	COMDAT ??0?$allocator@_W@std@@QAE@ABV01@@Z
_TEXT	SEGMENT PARA USE32 PUBLIC 'CODE'
_TEXT	ENDS
;	COMDAT ?Release@CStringData@ATL@@QAEXXZ
_TEXT	SEGMENT PARA USE32 PUBLIC 'CODE'
_TEXT	ENDS
;	COMDAT ??_C@_0L@OIIMFBNE@nRefs?5?$CB?$DN?50?$AA@
CONST	SEGMENT DWORD USE32 PUBLIC 'CONST'
CONST	ENDS
;	COMDAT ??_C@_0FJ@DMHPDOJC@D?3?2Program?5Files?5?$CIx86?$CJ?2Microsoft@
CONST	SEGMENT DWORD USE32 PUBLIC 'CONST'
CONST	ENDS
;	COMDAT ?count@?9??ChangeBmpSkin@CBitMapOperate@@QAEPAVDIBINFO@@AAV3@AAIAAK21@Z@4HA
_DATA	SEGMENT DWORD USE32 PUBLIC 'DATA'
_DATA	ENDS
;	COMDAT ?count1@?9??ChangeBmpSkin@CBitMapOperate@@QAEPAVDIBINFO@@AAV3@AAIAAK21@Z@4HA
_DATA	SEGMENT DWORD USE32 PUBLIC 'DATA'
_DATA	ENDS
;	COMDAT ??_7CBitMapOperate@@6B@
CONST	SEGMENT DWORD USE32 PUBLIC 'CONST'
CONST	ENDS
;	COMDAT ??_7DIBINFO@@6B@
CONST	SEGMENT DWORD USE32 PUBLIC 'CONST'
CONST	ENDS
sxdata	SEGMENT DWORD USE32 'SXDATA'
sxdata	ENDS
FLAT	GROUP _DATA, CONST, _BSS
	ASSUME	CS: FLAT, DS: FLAT, SS: FLAT
endif

INCLUDELIB MSVCRTD
INCLUDELIB OLDNAMES

_DATA	SEGMENT
_THIS_FILE DB	'.\src\LayoutMgr\ChangeColor\BitMapOperate.cpp', 00H
_DATA	ENDS
CONST	SEGMENT
$SG188737 DB	0c1H, 0a5H, 0caH, 0e9H, 00H
CONST	ENDS
PUBLIC	??_R4CBitMapOperate@@6B@			; CBitMapOperate::`RTTI Complete Object Locator'
PUBLIC	??_R0?AVCBitMapOperate@@@8			; CBitMapOperate `RTTI Type Descriptor'
PUBLIC	??_R3CBitMapOperate@@8				; CBitMapOperate::`RTTI Class Hierarchy Descriptor'
PUBLIC	??_R2CBitMapOperate@@8				; CBitMapOperate::`RTTI Base Class Array'
PUBLIC	??_R1A@?0A@A@CBitMapOperate@@8			; CBitMapOperate::`RTTI Base Class Descriptor at (0,-1,0,0)'
PUBLIC	??_R1A@?0A@A@DIBINFO@@8				; DIBINFO::`RTTI Base Class Descriptor at (0,-1,0,0)'
PUBLIC	??_R0?AVDIBINFO@@@8				; DIBINFO `RTTI Type Descriptor'
PUBLIC	??0DIBINFO@@QAE@XZ				; DIBINFO::DIBINFO
PUBLIC	??0CBitMapOperate@@QAE@XZ			; CBitMapOperate::CBitMapOperate
PUBLIC	?FillRectangle@CBitMapOperate@@UAEXPAUHDC__@@UtagRECT@@KKW4ENUM_DrawOrientation@1@HI@Z ; CBitMapOperate::FillRectangle
PUBLIC	?FillRectangleHue@CBitMapOperate@@UAEXPAUHDC__@@UtagRECT@@KKW4ENUM_DrawOrientation@1@HI@Z ; CBitMapOperate::FillRectangleHue
PUBLIC	?FillRectangleLight@CBitMapOperate@@UAEXPAUHDC__@@UtagRECT@@KKIW4ENUM_DrawOrientation@1@HI@Z ; CBitMapOperate::FillRectangleLight
PUBLIC	?FillRectangle@CBitMapOperate@@UAEXPAUHDC__@@UtagRECT@@KH@Z ; CBitMapOperate::FillRectangle
PUBLIC	?DrawLine@CBitMapOperate@@UAEXPAUHDC__@@KMHHHHH@Z ; CBitMapOperate::DrawLine
PUBLIC	?DrawArrow@CBitMapOperate@@UAEXPAUHDC__@@KHHHHHHH@Z ; CBitMapOperate::DrawArrow
PUBLIC	?DrawTextA@CBitMapOperate@@UAEXPAVCDC@@V?$CStringT@DV?$StrTraitMFC_DLL@DV?$ChTraitsCRT@D@ATL@@@@@ATL@@KAAUtagRECT@@I_NIIIV?$basic_string@DU?$char_traits@D@std@@V?$allocator@D@2@@std@@@Z ; CBitMapOperate::DrawTextA
PUBLIC	??_7CBitMapOperate@@6B@				; CBitMapOperate::`vftable'
PUBLIC	??_GCBitMapOperate@@UAEPAXI@Z			; CBitMapOperate::`scalar deleting destructor'
EXTRN	__RTC_InitBase:NEAR
EXTRN	__RTC_Shutdown:NEAR
EXTRN	__RTC_CheckEsp:NEAR
EXTRN	??_ECBitMapOperate@@UAEPAXI@Z:NEAR		; CBitMapOperate::`vector deleting destructor'
EXTRN	??_7type_info@@6B@:QWORD			; type_info::`vftable'
;	COMDAT rtc$IMZ
; File d:\boxgit\playbox\playbox\dev\prj\playbox\src\layoutmgr\changecolor\bitmapoperate.cpp
rtc$IMZ	SEGMENT
__RTC_InitBase.rtc$IMZ DD FLAT:__RTC_InitBase
rtc$IMZ	ENDS
;	COMDAT rtc$TMZ
rtc$TMZ	SEGMENT
__RTC_Shutdown.rtc$TMZ DD FLAT:__RTC_Shutdown
rtc$TMZ	ENDS
;	COMDAT ??_7CBitMapOperate@@6B@
CONST	SEGMENT
??_7CBitMapOperate@@6B@ DD FLAT:??_R4CBitMapOperate@@6B@ ; CBitMapOperate::`vftable'
	DD	FLAT:??_ECBitMapOperate@@UAEPAXI@Z
	DD	FLAT:?FillRectangle@CBitMapOperate@@UAEXPAUHDC__@@UtagRECT@@KH@Z
	DD	FLAT:?FillRectangle@CBitMapOperate@@UAEXPAUHDC__@@UtagRECT@@KKW4ENUM_DrawOrientation@1@HI@Z
	DD	FLAT:?FillRectangleHue@CBitMapOperate@@UAEXPAUHDC__@@UtagRECT@@KKW4ENUM_DrawOrientation@1@HI@Z
	DD	FLAT:?FillRectangleLight@CBitMapOperate@@UAEXPAUHDC__@@UtagRECT@@KKIW4ENUM_DrawOrientation@1@HI@Z
	DD	FLAT:?DrawLine@CBitMapOperate@@UAEXPAUHDC__@@KMHHHHH@Z
	DD	FLAT:?DrawArrow@CBitMapOperate@@UAEXPAUHDC__@@KHHHHHHH@Z
	DD	FLAT:?DrawTextA@CBitMapOperate@@UAEXPAVCDC@@V?$CStringT@DV?$StrTraitMFC_DLL@DV?$ChTraitsCRT@D@ATL@@@@@ATL@@KAAUtagRECT@@I_NIIIV?$basic_string@DU?$char_traits@D@std@@V?$allocator@D@2@@std@@@Z
CONST	ENDS
;	COMDAT ??_R4CBitMapOperate@@6B@
rdata$r	SEGMENT
??_R4CBitMapOperate@@6B@ DD 00H				; CBitMapOperate::`RTTI Complete Object Locator'
	DD	00H
	DD	00H
	DD	FLAT:??_R0?AVCBitMapOperate@@@8
	DD	FLAT:??_R3CBitMapOperate@@8
rdata$r	ENDS
;	COMDAT ??_R0?AVCBitMapOperate@@@8
_DATA	SEGMENT
??_R0?AVCBitMapOperate@@@8 DD FLAT:??_7type_info@@6B@	; CBitMapOperate `RTTI Type Descriptor'
	DD	00H
	DB	'.?AVCBitMapOperate@@', 00H
_DATA	ENDS
;	COMDAT ??_R3CBitMapOperate@@8
rdata$r	SEGMENT
??_R3CBitMapOperate@@8 DD 00H				; CBitMapOperate::`RTTI Class Hierarchy Descriptor'
	DD	00H
	DD	02H
	DD	FLAT:??_R2CBitMapOperate@@8
rdata$r	ENDS
;	COMDAT ??_R2CBitMapOperate@@8
rdata$r	SEGMENT
??_R2CBitMapOperate@@8 DD FLAT:??_R1A@?0A@A@CBitMapOperate@@8 ; CBitMapOperate::`RTTI Base Class Array'
	DD	FLAT:??_R1A@?0A@A@DIBINFO@@8
rdata$r	ENDS
;	COMDAT ??_R1A@?0A@A@CBitMapOperate@@8
rdata$r	SEGMENT
??_R1A@?0A@A@CBitMapOperate@@8 DD FLAT:??_R0?AVCBitMapOperate@@@8 ; CBitMapOperate::`RTTI Base Class Descriptor at (0,-1,0,0)'
	DD	01H
	DD	00H
	DD	0ffffffffH
	DD	00H
	DD	00H
rdata$r	ENDS
;	COMDAT ??_R1A@?0A@A@DIBINFO@@8
rdata$r	SEGMENT
??_R1A@?0A@A@DIBINFO@@8 DD FLAT:??_R0?AVDIBINFO@@@8	; DIBINFO::`RTTI Base Class Descriptor at (0,-1,0,0)'
	DD	00H
	DD	00H
	DD	0ffffffffH
	DD	00H
	DD	00H
rdata$r	ENDS
;	COMDAT ??_R0?AVDIBINFO@@@8
_DATA	SEGMENT
??_R0?AVDIBINFO@@@8 DD FLAT:??_7type_info@@6B@		; DIBINFO `RTTI Type Descriptor'
	DD	00H
	DB	'.?AVDIBINFO@@', 00H
; Function compile flags: /Odt /RTCsu
_DATA	ENDS
_TEXT	SEGMENT
_this$ = -4						; size = 4
??0CBitMapOperate@@QAE@XZ PROC NEAR			; CBitMapOperate::CBitMapOperate
; _this$ = ecx

; 23   : {

  00000	55		 push	 ebp
  00001	8b ec		 mov	 ebp, esp
  00003	51		 push	 ecx
  00004	c7 45 fc cc cc
	cc cc		 mov	 DWORD PTR [ebp-4], -858993460 ; ccccccccH
  0000b	89 4d fc	 mov	 DWORD PTR _this$[ebp], ecx
  0000e	8b 4d fc	 mov	 ecx, DWORD PTR _this$[ebp]
  00011	e8 00 00 00 00	 call	 ??0DIBINFO@@QAE@XZ	; DIBINFO::DIBINFO
  00016	8b 45 fc	 mov	 eax, DWORD PTR _this$[ebp]
  00019	c7 00 00 00 00
	00		 mov	 DWORD PTR [eax], OFFSET FLAT:??_7CBitMapOperate@@6B@

; 24   : 	m_nLastLightPos = 120;

  0001f	8b 4d fc	 mov	 ecx, DWORD PTR _this$[ebp]
  00022	c7 41 18 78 00
	00 00		 mov	 DWORD PTR [ecx+24], 120	; 00000078H

; 25   : }

  00029	8b 45 fc	 mov	 eax, DWORD PTR _this$[ebp]
  0002c	83 c4 04	 add	 esp, 4
  0002f	3b ec		 cmp	 ebp, esp
  00031	e8 00 00 00 00	 call	 __RTC_CheckEsp
  00036	8b e5		 mov	 esp, ebp
  00038	5d		 pop	 ebp
  00039	c3		 ret	 0
??0CBitMapOperate@@QAE@XZ ENDP				; CBitMapOperate::CBitMapOperate
_TEXT	ENDS
PUBLIC	??_R4DIBINFO@@6B@				; DIBINFO::`RTTI Complete Object Locator'
PUBLIC	??_R3DIBINFO@@8					; DIBINFO::`RTTI Class Hierarchy Descriptor'
PUBLIC	??_R2DIBINFO@@8					; DIBINFO::`RTTI Base Class Array'
PUBLIC	??_7DIBINFO@@6B@				; DIBINFO::`vftable'
PUBLIC	??_GDIBINFO@@UAEPAXI@Z				; DIBINFO::`scalar deleting destructor'
EXTRN	??_EDIBINFO@@UAEPAXI@Z:NEAR			; DIBINFO::`vector deleting destructor'
EXTRN	_memset:NEAR
;	COMDAT ??_7DIBINFO@@6B@
; File d:\boxgit\playbox\playbox\dev\prj\playbox\src\layoutmgr\changecolor\bitmapoperate.h
CONST	SEGMENT
??_7DIBINFO@@6B@ DD FLAT:??_R4DIBINFO@@6B@		; DIBINFO::`vftable'
	DD	FLAT:??_EDIBINFO@@UAEPAXI@Z
CONST	ENDS
;	COMDAT ??_R4DIBINFO@@6B@
rdata$r	SEGMENT
??_R4DIBINFO@@6B@ DD 00H				; DIBINFO::`RTTI Complete Object Locator'
	DD	00H
	DD	00H
	DD	FLAT:??_R0?AVDIBINFO@@@8
	DD	FLAT:??_R3DIBINFO@@8
rdata$r	ENDS
;	COMDAT ??_R3DIBINFO@@8
rdata$r	SEGMENT
??_R3DIBINFO@@8 DD 00H					; DIBINFO::`RTTI Class Hierarchy Descriptor'
	DD	00H
	DD	01H
	DD	FLAT:??_R2DIBINFO@@8
rdata$r	ENDS
;	COMDAT ??_R2DIBINFO@@8
rdata$r	SEGMENT
??_R2DIBINFO@@8 DD FLAT:??_R1A@?0A@A@DIBINFO@@8		; DIBINFO::`RTTI Base Class Array'
; Function compile flags: /Odt /RTCsu
rdata$r	ENDS
;	COMDAT ??0DIBINFO@@QAE@XZ
_TEXT	SEGMENT
_this$ = -4						; size = 4
??0DIBINFO@@QAE@XZ PROC NEAR				; DIBINFO::DIBINFO, COMDAT
; _this$ = ecx

; 16   : 	DIBINFO()

  00000	55		 push	 ebp
  00001	8b ec		 mov	 ebp, esp
  00003	51		 push	 ecx
  00004	c7 45 fc cc cc
	cc cc		 mov	 DWORD PTR [ebp-4], -858993460 ; ccccccccH
  0000b	89 4d fc	 mov	 DWORD PTR _this$[ebp], ecx
  0000e	8b 45 fc	 mov	 eax, DWORD PTR _this$[ebp]
  00011	c7 00 00 00 00
	00		 mov	 DWORD PTR [eax], OFFSET FLAT:??_7DIBINFO@@6B@

; 17   : 	{
; 18   : 		::ZeroMemory(this,sizeof(*this) );

  00017	6a 18		 push	 24			; 00000018H
  00019	6a 00		 push	 0
  0001b	8b 4d fc	 mov	 ecx, DWORD PTR _this$[ebp]
  0001e	51		 push	 ecx
  0001f	e8 00 00 00 00	 call	 _memset
  00024	83 c4 0c	 add	 esp, 12			; 0000000cH

; 19   : 	};

  00027	8b 45 fc	 mov	 eax, DWORD PTR _this$[ebp]
  0002a	83 c4 04	 add	 esp, 4
  0002d	3b ec		 cmp	 ebp, esp
  0002f	e8 00 00 00 00	 call	 __RTC_CheckEsp
  00034	8b e5		 mov	 esp, ebp
  00036	5d		 pop	 ebp
  00037	c3		 ret	 0
??0DIBINFO@@QAE@XZ ENDP					; DIBINFO::DIBINFO
_TEXT	ENDS
PUBLIC	??1DIBINFO@@UAE@XZ				; DIBINFO::~DIBINFO
EXTRN	??3@YAXPAX@Z:NEAR				; operator delete
; Function compile flags: /Odt /RTCsu
;	COMDAT ??_GDIBINFO@@UAEPAXI@Z
_TEXT	SEGMENT
_this$ = -4						; size = 4
___flags$ = 8						; size = 4
??_GDIBINFO@@UAEPAXI@Z PROC NEAR			; DIBINFO::`scalar deleting destructor', COMDAT
; _this$ = ecx
  00000	55		 push	 ebp
  00001	8b ec		 mov	 ebp, esp
  00003	51		 push	 ecx
  00004	c7 45 fc cc cc
	cc cc		 mov	 DWORD PTR [ebp-4], -858993460 ; ccccccccH
  0000b	89 4d fc	 mov	 DWORD PTR _this$[ebp], ecx
  0000e	8b 4d fc	 mov	 ecx, DWORD PTR _this$[ebp]
  00011	e8 00 00 00 00	 call	 ??1DIBINFO@@UAE@XZ	; DIBINFO::~DIBINFO
  00016	8b 45 08	 mov	 eax, DWORD PTR ___flags$[ebp]
  00019	83 e0 01	 and	 eax, 1
  0001c	74 0c		 je	 SHORT $L187058
  0001e	8b 4d fc	 mov	 ecx, DWORD PTR _this$[ebp]
  00021	51		 push	 ecx
  00022	e8 00 00 00 00	 call	 ??3@YAXPAX@Z		; operator delete
  00027	83 c4 04	 add	 esp, 4
$L187058:
  0002a	8b 45 fc	 mov	 eax, DWORD PTR _this$[ebp]
  0002d	83 c4 04	 add	 esp, 4
  00030	3b ec		 cmp	 ebp, esp
  00032	e8 00 00 00 00	 call	 __RTC_CheckEsp
  00037	8b e5		 mov	 esp, ebp
  00039	5d		 pop	 ebp
  0003a	c2 04 00	 ret	 4
??_GDIBINFO@@UAEPAXI@Z ENDP				; DIBINFO::`scalar deleting destructor'
; Function compile flags: /Odt /RTCsu
_TEXT	ENDS
;	COMDAT ??1DIBINFO@@UAE@XZ
_TEXT	SEGMENT
_this$ = -4						; size = 4
??1DIBINFO@@UAE@XZ PROC NEAR				; DIBINFO::~DIBINFO, COMDAT
; _this$ = ecx

; 25   : 	{

  00000	55		 push	 ebp
  00001	8b ec		 mov	 ebp, esp
  00003	51		 push	 ecx
  00004	c7 45 fc cc cc
	cc cc		 mov	 DWORD PTR [ebp-4], -858993460 ; ccccccccH
  0000b	89 4d fc	 mov	 DWORD PTR _this$[ebp], ecx
  0000e	8b 45 fc	 mov	 eax, DWORD PTR _this$[ebp]
  00011	c7 00 00 00 00
	00		 mov	 DWORD PTR [eax], OFFSET FLAT:??_7DIBINFO@@6B@

; 26   : 		::ZeroMemory(this,sizeof(*this) );

  00017	6a 18		 push	 24			; 00000018H
  00019	6a 00		 push	 0
  0001b	8b 4d fc	 mov	 ecx, DWORD PTR _this$[ebp]
  0001e	51		 push	 ecx
  0001f	e8 00 00 00 00	 call	 _memset
  00024	83 c4 0c	 add	 esp, 12			; 0000000cH

; 27   : 	};

  00027	83 c4 04	 add	 esp, 4
  0002a	3b ec		 cmp	 ebp, esp
  0002c	e8 00 00 00 00	 call	 __RTC_CheckEsp
  00031	8b e5		 mov	 esp, ebp
  00033	5d		 pop	 ebp
  00034	c3		 ret	 0
??1DIBINFO@@UAE@XZ ENDP					; DIBINFO::~DIBINFO
_TEXT	ENDS
PUBLIC	??1CBitMapOperate@@UAE@XZ			; CBitMapOperate::~CBitMapOperate
; Function compile flags: /Odt /RTCsu
;	COMDAT ??_GCBitMapOperate@@UAEPAXI@Z
_TEXT	SEGMENT
_this$ = -4						; size = 4
___flags$ = 8						; size = 4
??_GCBitMapOperate@@UAEPAXI@Z PROC NEAR			; CBitMapOperate::`scalar deleting destructor', COMDAT
; _this$ = ecx
  00000	55		 push	 ebp
  00001	8b ec		 mov	 ebp, esp
  00003	51		 push	 ecx
  00004	c7 45 fc cc cc
	cc cc		 mov	 DWORD PTR [ebp-4], -858993460 ; ccccccccH
  0000b	89 4d fc	 mov	 DWORD PTR _this$[ebp], ecx
  0000e	8b 4d fc	 mov	 ecx, DWORD PTR _this$[ebp]
  00011	e8 00 00 00 00	 call	 ??1CBitMapOperate@@UAE@XZ ; CBitMapOperate::~CBitMapOperate
  00016	8b 45 08	 mov	 eax, DWORD PTR ___flags$[ebp]
  00019	83 e0 01	 and	 eax, 1
  0001c	74 0c		 je	 SHORT $L187226
  0001e	8b 4d fc	 mov	 ecx, DWORD PTR _this$[ebp]
  00021	51		 push	 ecx
  00022	e8 00 00 00 00	 call	 ??3@YAXPAX@Z		; operator delete
  00027	83 c4 04	 add	 esp, 4
$L187226:
  0002a	8b 45 fc	 mov	 eax, DWORD PTR _this$[ebp]
  0002d	83 c4 04	 add	 esp, 4
  00030	3b ec		 cmp	 ebp, esp
  00032	e8 00 00 00 00	 call	 __RTC_CheckEsp
  00037	8b e5		 mov	 esp, ebp
  00039	5d		 pop	 ebp
  0003a	c2 04 00	 ret	 4
??_GCBitMapOperate@@UAEPAXI@Z ENDP			; CBitMapOperate::`scalar deleting destructor'
; Function compile flags: /Odt /RTCsu
; File d:\boxgit\playbox\playbox\dev\prj\playbox\src\layoutmgr\changecolor\bitmapoperate.cpp
_TEXT	ENDS
_TEXT	SEGMENT
_this$ = -4						; size = 4
??1CBitMapOperate@@UAE@XZ PROC NEAR			; CBitMapOperate::~CBitMapOperate
; _this$ = ecx

; 28   : {

  00040	55		 push	 ebp
  00041	8b ec		 mov	 ebp, esp
  00043	51		 push	 ecx
  00044	c7 45 fc cc cc
	cc cc		 mov	 DWORD PTR [ebp-4], -858993460 ; ccccccccH
  0004b	89 4d fc	 mov	 DWORD PTR _this$[ebp], ecx
  0004e	8b 45 fc	 mov	 eax, DWORD PTR _this$[ebp]
  00051	c7 00 00 00 00
	00		 mov	 DWORD PTR [eax], OFFSET FLAT:??_7CBitMapOperate@@6B@

; 29   : }

  00057	8b 4d fc	 mov	 ecx, DWORD PTR _this$[ebp]
  0005a	e8 00 00 00 00	 call	 ??1DIBINFO@@UAE@XZ	; DIBINFO::~DIBINFO
  0005f	83 c4 04	 add	 esp, 4
  00062	3b ec		 cmp	 ebp, esp
  00064	e8 00 00 00 00	 call	 __RTC_CheckEsp
  00069	8b e5		 mov	 esp, ebp
  0006b	5d		 pop	 ebp
  0006c	c3		 ret	 0
??1CBitMapOperate@@UAE@XZ ENDP				; CBitMapOperate::~CBitMapOperate
_TEXT	ENDS
PUBLIC	?SetHBS@CBitMapOperate@@QAEXKAAM00@Z		; CBitMapOperate::SetHBS
PUBLIC	__real@43ff0000
PUBLIC	__real@3f000000
PUBLIC	__real@40c00000
PUBLIC	__real@42700000
PUBLIC	__real@40000000
PUBLIC	__real@40800000
PUBLIC	__real@43b40000
EXTRN	__fltused:NEAR
;	COMDAT __real@43ff0000
CONST	SEGMENT
__real@43ff0000 DD 043ff0000r			; 510
CONST	ENDS
;	COMDAT __real@3f000000
CONST	SEGMENT
__real@3f000000 DD 03f000000r			; 0.5
CONST	ENDS
;	COMDAT __real@40c00000
CONST	SEGMENT
__real@40c00000 DD 040c00000r			; 6
CONST	ENDS
;	COMDAT __real@42700000
CONST	SEGMENT
__real@42700000 DD 042700000r			; 60
CONST	ENDS
;	COMDAT __real@40000000
CONST	SEGMENT
__real@40000000 DD 040000000r			; 2
CONST	ENDS
;	COMDAT __real@40800000
CONST	SEGMENT
__real@40800000 DD 040800000r			; 4
CONST	ENDS
;	COMDAT __real@43b40000
CONST	SEGMENT
__real@43b40000 DD 043b40000r			; 360
; Function compile flags: /Odt /RTCsu
CONST	ENDS
_TEXT	SEGMENT
tv85 = -80						; size = 4
tv86 = -76						; size = 4
tv82 = -72						; size = 4
tv79 = -68						; size = 4
tv80 = -64						; size = 4
tv76 = -60						; size = 4
tv157 = -56						; size = 4
tv155 = -52						; size = 4
tv154 = -48						; size = 4
_lfBlueTarget$ = -44					; size = 4
_lfGreenTarget$ = -40					; size = 4
_lfRedTarget$ = -36					; size = 4
_lfSum$ = -32						; size = 4
_lfDiff$ = -28						; size = 4
_lfMinValue$ = -24					; size = 4
_lfMaxValue$ = -20					; size = 4
_lfBlue$ = -16						; size = 4
_lfGreen$ = -12						; size = 4
_lfRed$ = -8						; size = 4
_this$ = -4						; size = 4
_aSourceColor$ = 8					; size = 4
_afHue$ = 12						; size = 4
_afBrightness$ = 16					; size = 4
_afSaturation$ = 20					; size = 4
?SetHBS@CBitMapOperate@@QAEXKAAM00@Z PROC NEAR		; CBitMapOperate::SetHBS
; _this$ = ecx

; 170  : {

  00070	55		 push	 ebp
  00071	8b ec		 mov	 ebp, esp
  00073	83 ec 50	 sub	 esp, 80			; 00000050H
  00076	57		 push	 edi
  00077	51		 push	 ecx
  00078	8d 7d b0	 lea	 edi, DWORD PTR [ebp-80]
  0007b	b9 14 00 00 00	 mov	 ecx, 20			; 00000014H
  00080	b8 cc cc cc cc	 mov	 eax, -858993460		; ccccccccH
  00085	f3 ab		 rep stosd
  00087	59		 pop	 ecx
  00088	89 4d fc	 mov	 DWORD PTR _this$[ebp], ecx

; 171  : 	FLOAT lfRed   = GetRValue(aSourceColor);

  0008b	0f b6 45 08	 movzx	 eax, BYTE PTR _aSourceColor$[ebp]
  0008f	89 45 d0	 mov	 DWORD PTR tv154[ebp], eax
  00092	db 45 d0	 fild	 DWORD PTR tv154[ebp]
  00095	d9 5d f8	 fstp	 DWORD PTR _lfRed$[ebp]

; 172  : 	FLOAT lfGreen = GetGValue(aSourceColor);

  00098	0f b7 4d 08	 movzx	 ecx, WORD PTR _aSourceColor$[ebp]
  0009c	c1 f9 08	 sar	 ecx, 8
  0009f	0f b6 d1	 movzx	 edx, cl
  000a2	89 55 cc	 mov	 DWORD PTR tv155[ebp], edx
  000a5	db 45 cc	 fild	 DWORD PTR tv155[ebp]
  000a8	d9 5d f4	 fstp	 DWORD PTR _lfGreen$[ebp]

; 173  : 	FLOAT lfBlue  = GetBValue(aSourceColor);

  000ab	8b 45 08	 mov	 eax, DWORD PTR _aSourceColor$[ebp]
  000ae	c1 e8 10	 shr	 eax, 16			; 00000010H
  000b1	0f b6 c8	 movzx	 ecx, al
  000b4	89 4d c8	 mov	 DWORD PTR tv157[ebp], ecx
  000b7	db 45 c8	 fild	 DWORD PTR tv157[ebp]
  000ba	d9 5d f0	 fstp	 DWORD PTR _lfBlue$[ebp]

; 174  : 
; 175  : 	FLOAT lfMaxValue = max(lfRed, max(lfGreen, lfBlue));

  000bd	d9 45 f4	 fld	 DWORD PTR _lfGreen$[ebp]
  000c0	d8 5d f0	 fcomp	 DWORD PTR _lfBlue$[ebp]
  000c3	df e0		 fnstsw	 ax
  000c5	f6 c4 41	 test	 ah, 65			; 00000041H
  000c8	75 08		 jne	 SHORT $L189237
  000ca	8b 55 f4	 mov	 edx, DWORD PTR _lfGreen$[ebp]
  000cd	89 55 c4	 mov	 DWORD PTR tv76[ebp], edx
  000d0	eb 06		 jmp	 SHORT $L189238
$L189237:
  000d2	8b 45 f0	 mov	 eax, DWORD PTR _lfBlue$[ebp]
  000d5	89 45 c4	 mov	 DWORD PTR tv76[ebp], eax
$L189238:
  000d8	d9 45 f8	 fld	 DWORD PTR _lfRed$[ebp]
  000db	d8 5d c4	 fcomp	 DWORD PTR tv76[ebp]
  000de	df e0		 fnstsw	 ax
  000e0	f6 c4 41	 test	 ah, 65			; 00000041H
  000e3	75 08		 jne	 SHORT $L189241
  000e5	8b 4d f8	 mov	 ecx, DWORD PTR _lfRed$[ebp]
  000e8	89 4d c0	 mov	 DWORD PTR tv80[ebp], ecx
  000eb	eb 21		 jmp	 SHORT $L189242
$L189241:
  000ed	d9 45 f4	 fld	 DWORD PTR _lfGreen$[ebp]
  000f0	d8 5d f0	 fcomp	 DWORD PTR _lfBlue$[ebp]
  000f3	df e0		 fnstsw	 ax
  000f5	f6 c4 41	 test	 ah, 65			; 00000041H
  000f8	75 08		 jne	 SHORT $L189239
  000fa	8b 55 f4	 mov	 edx, DWORD PTR _lfGreen$[ebp]
  000fd	89 55 bc	 mov	 DWORD PTR tv79[ebp], edx
  00100	eb 06		 jmp	 SHORT $L189240
$L189239:
  00102	8b 45 f0	 mov	 eax, DWORD PTR _lfBlue$[ebp]
  00105	89 45 bc	 mov	 DWORD PTR tv79[ebp], eax
$L189240:
  00108	8b 4d bc	 mov	 ecx, DWORD PTR tv79[ebp]
  0010b	89 4d c0	 mov	 DWORD PTR tv80[ebp], ecx
$L189242:
  0010e	8b 55 c0	 mov	 edx, DWORD PTR tv80[ebp]
  00111	89 55 ec	 mov	 DWORD PTR _lfMaxValue$[ebp], edx

; 176  : 	FLOAT lfMinValue = min(lfRed, min(lfGreen, lfBlue));

  00114	d9 45 f4	 fld	 DWORD PTR _lfGreen$[ebp]
  00117	d8 5d f0	 fcomp	 DWORD PTR _lfBlue$[ebp]
  0011a	df e0		 fnstsw	 ax
  0011c	f6 c4 05	 test	 ah, 5
  0011f	7a 08		 jp	 SHORT $L189243
  00121	8b 45 f4	 mov	 eax, DWORD PTR _lfGreen$[ebp]
  00124	89 45 b8	 mov	 DWORD PTR tv82[ebp], eax
  00127	eb 06		 jmp	 SHORT $L189244
$L189243:
  00129	8b 4d f0	 mov	 ecx, DWORD PTR _lfBlue$[ebp]
  0012c	89 4d b8	 mov	 DWORD PTR tv82[ebp], ecx
$L189244:
  0012f	d9 45 f8	 fld	 DWORD PTR _lfRed$[ebp]
  00132	d8 5d b8	 fcomp	 DWORD PTR tv82[ebp]
  00135	df e0		 fnstsw	 ax
  00137	f6 c4 05	 test	 ah, 5
  0013a	7a 08		 jp	 SHORT $L189247
  0013c	8b 55 f8	 mov	 edx, DWORD PTR _lfRed$[ebp]
  0013f	89 55 b4	 mov	 DWORD PTR tv86[ebp], edx
  00142	eb 21		 jmp	 SHORT $L189248
$L189247:
  00144	d9 45 f4	 fld	 DWORD PTR _lfGreen$[ebp]
  00147	d8 5d f0	 fcomp	 DWORD PTR _lfBlue$[ebp]
  0014a	df e0		 fnstsw	 ax
  0014c	f6 c4 05	 test	 ah, 5
  0014f	7a 08		 jp	 SHORT $L189245
  00151	8b 45 f4	 mov	 eax, DWORD PTR _lfGreen$[ebp]
  00154	89 45 b0	 mov	 DWORD PTR tv85[ebp], eax
  00157	eb 06		 jmp	 SHORT $L189246
$L189245:
  00159	8b 4d f0	 mov	 ecx, DWORD PTR _lfBlue$[ebp]
  0015c	89 4d b0	 mov	 DWORD PTR tv85[ebp], ecx
$L189246:
  0015f	8b 55 b0	 mov	 edx, DWORD PTR tv85[ebp]
  00162	89 55 b4	 mov	 DWORD PTR tv86[ebp], edx
$L189248:
  00165	8b 45 b4	 mov	 eax, DWORD PTR tv86[ebp]
  00168	89 45 e8	 mov	 DWORD PTR _lfMinValue$[ebp], eax

; 177  : 
; 178  : 	FLOAT lfDiff, lfSum, lfRedTarget, lfGreenTarget, lfBlueTarget;
; 179  : 
; 180  : 	lfDiff = lfMaxValue - lfMinValue;

  0016b	d9 45 ec	 fld	 DWORD PTR _lfMaxValue$[ebp]
  0016e	d8 65 e8	 fsub	 DWORD PTR _lfMinValue$[ebp]
  00171	d9 5d e4	 fstp	 DWORD PTR _lfDiff$[ebp]

; 181  : 	lfSum  = lfMaxValue + lfMinValue;

  00174	d9 45 ec	 fld	 DWORD PTR _lfMaxValue$[ebp]
  00177	d8 45 e8	 fadd	 DWORD PTR _lfMinValue$[ebp]
  0017a	d9 55 e0	 fst	 DWORD PTR _lfSum$[ebp]

; 182  : 	afBrightness = lfSum / 510.0f;

  0017d	d8 35 00 00 00
	00		 fdiv	 DWORD PTR __real@43ff0000
  00183	8b 4d 10	 mov	 ecx, DWORD PTR _afBrightness$[ebp]
  00186	d9 19		 fstp	 DWORD PTR [ecx]

; 183  : 
; 184  : 	if (lfMaxValue == lfMinValue)

  00188	d9 45 e8	 fld	 DWORD PTR _lfMinValue$[ebp]
  0018b	d9 45 ec	 fld	 DWORD PTR _lfMaxValue$[ebp]
  0018e	da e9		 fucompp
  00190	df e0		 fnstsw	 ax
  00192	f6 c4 44	 test	 ah, 68			; 00000044H
  00195	7a 17		 jp	 SHORT $L187383

; 185  : 	{
; 186  : 		afSaturation = 0.0f;

  00197	8b 55 14	 mov	 edx, DWORD PTR _afSaturation$[ebp]
  0019a	c7 02 00 00 00
	00		 mov	 DWORD PTR [edx], 0

; 187  : 		afHue = 0.0f;

  001a0	8b 45 0c	 mov	 eax, DWORD PTR _afHue$[ebp]
  001a3	c7 00 00 00 00
	00		 mov	 DWORD PTR [eax], 0

; 188  : 	}
; 189  : 	else

  001a9	e9 e8 00 00 00	 jmp	 $L187368
$L187383:

; 190  : 	{
; 191  : 		lfRedTarget = (lfMaxValue - lfRed) / lfDiff;

  001ae	d9 45 ec	 fld	 DWORD PTR _lfMaxValue$[ebp]
  001b1	d8 65 f8	 fsub	 DWORD PTR _lfRed$[ebp]
  001b4	d8 75 e4	 fdiv	 DWORD PTR _lfDiff$[ebp]
  001b7	d9 5d dc	 fstp	 DWORD PTR _lfRedTarget$[ebp]

; 192  : 		lfGreenTarget = (lfMaxValue - lfGreen) / lfDiff;

  001ba	d9 45 ec	 fld	 DWORD PTR _lfMaxValue$[ebp]
  001bd	d8 65 f4	 fsub	 DWORD PTR _lfGreen$[ebp]
  001c0	d8 75 e4	 fdiv	 DWORD PTR _lfDiff$[ebp]
  001c3	d9 5d d8	 fstp	 DWORD PTR _lfGreenTarget$[ebp]

; 193  : 		lfBlueTarget = (lfMaxValue - lfBlue) / lfDiff;

  001c6	d9 45 ec	 fld	 DWORD PTR _lfMaxValue$[ebp]
  001c9	d8 65 f0	 fsub	 DWORD PTR _lfBlue$[ebp]
  001cc	d8 75 e4	 fdiv	 DWORD PTR _lfDiff$[ebp]
  001cf	d9 5d d4	 fstp	 DWORD PTR _lfBlueTarget$[ebp]

; 194  : 
; 195  : 		if (afBrightness <= 0.5f)

  001d2	8b 4d 10	 mov	 ecx, DWORD PTR _afBrightness$[ebp]
  001d5	d9 01		 fld	 DWORD PTR [ecx]
  001d7	d8 1d 00 00 00
	00		 fcomp	 DWORD PTR __real@3f000000
  001dd	df e0		 fnstsw	 ax
  001df	f6 c4 41	 test	 ah, 65			; 00000041H
  001e2	7a 0d		 jp	 SHORT $L187385

; 196  : 			afSaturation = lfDiff / lfSum;

  001e4	d9 45 e4	 fld	 DWORD PTR _lfDiff$[ebp]
  001e7	d8 75 e0	 fdiv	 DWORD PTR _lfSum$[ebp]
  001ea	8b 55 14	 mov	 edx, DWORD PTR _afSaturation$[ebp]
  001ed	d9 1a		 fstp	 DWORD PTR [edx]

; 197  : 		else

  001ef	eb 11		 jmp	 SHORT $L187386
$L187385:

; 198  : 			afSaturation = lfDiff / (510.0f - lfSum);

  001f1	d9 05 00 00 00
	00		 fld	 DWORD PTR __real@43ff0000
  001f7	d8 65 e0	 fsub	 DWORD PTR _lfSum$[ebp]
  001fa	d8 7d e4	 fdivr	 DWORD PTR _lfDiff$[ebp]
  001fd	8b 45 14	 mov	 eax, DWORD PTR _afSaturation$[ebp]
  00200	d9 18		 fstp	 DWORD PTR [eax]
$L187386:

; 199  : 
; 200  : 		if (lfRed == lfMaxValue)

  00202	d9 45 ec	 fld	 DWORD PTR _lfMaxValue$[ebp]
  00205	d9 45 f8	 fld	 DWORD PTR _lfRed$[ebp]
  00208	da e9		 fucompp
  0020a	df e0		 fnstsw	 ax
  0020c	f6 c4 44	 test	 ah, 68			; 00000044H
  0020f	7a 17		 jp	 SHORT $L187387

; 201  : 			afHue = 60.0f * (6.0f + lfBlueTarget - lfGreenTarget);

  00211	d9 05 00 00 00
	00		 fld	 DWORD PTR __real@40c00000
  00217	d8 45 d4	 fadd	 DWORD PTR _lfBlueTarget$[ebp]
  0021a	d8 65 d8	 fsub	 DWORD PTR _lfGreenTarget$[ebp]
  0021d	d8 0d 00 00 00
	00		 fmul	 DWORD PTR __real@42700000
  00223	8b 4d 0c	 mov	 ecx, DWORD PTR _afHue$[ebp]
  00226	d9 19		 fstp	 DWORD PTR [ecx]
$L187387:

; 202  : 		if (lfGreen == lfMaxValue)

  00228	d9 45 ec	 fld	 DWORD PTR _lfMaxValue$[ebp]
  0022b	d9 45 f4	 fld	 DWORD PTR _lfGreen$[ebp]
  0022e	da e9		 fucompp
  00230	df e0		 fnstsw	 ax
  00232	f6 c4 44	 test	 ah, 68			; 00000044H
  00235	7a 17		 jp	 SHORT $L187388

; 203  : 			afHue = 60.0f * (2.0f + lfRedTarget - lfBlueTarget);

  00237	d9 05 00 00 00
	00		 fld	 DWORD PTR __real@40000000
  0023d	d8 45 dc	 fadd	 DWORD PTR _lfRedTarget$[ebp]
  00240	d8 65 d4	 fsub	 DWORD PTR _lfBlueTarget$[ebp]
  00243	d8 0d 00 00 00
	00		 fmul	 DWORD PTR __real@42700000
  00249	8b 55 0c	 mov	 edx, DWORD PTR _afHue$[ebp]
  0024c	d9 1a		 fstp	 DWORD PTR [edx]
$L187388:

; 204  : 		if (lfBlue == lfMaxValue)

  0024e	d9 45 ec	 fld	 DWORD PTR _lfMaxValue$[ebp]
  00251	d9 45 f0	 fld	 DWORD PTR _lfBlue$[ebp]
  00254	da e9		 fucompp
  00256	df e0		 fnstsw	 ax
  00258	f6 c4 44	 test	 ah, 68			; 00000044H
  0025b	7a 17		 jp	 SHORT $L187389

; 205  : 			afHue = 60.0f * (4.0f + lfGreenTarget - lfRedTarget);

  0025d	d9 05 00 00 00
	00		 fld	 DWORD PTR __real@40800000
  00263	d8 45 d8	 fadd	 DWORD PTR _lfGreenTarget$[ebp]
  00266	d8 65 dc	 fsub	 DWORD PTR _lfRedTarget$[ebp]
  00269	d8 0d 00 00 00
	00		 fmul	 DWORD PTR __real@42700000
  0026f	8b 45 0c	 mov	 eax, DWORD PTR _afHue$[ebp]
  00272	d9 18		 fstp	 DWORD PTR [eax]
$L187389:

; 206  : 		if (afHue > 360.0f)

  00274	8b 4d 0c	 mov	 ecx, DWORD PTR _afHue$[ebp]
  00277	d9 01		 fld	 DWORD PTR [ecx]
  00279	d8 1d 00 00 00
	00		 fcomp	 DWORD PTR __real@43b40000
  0027f	df e0		 fnstsw	 ax
  00281	f6 c4 41	 test	 ah, 65			; 00000041H
  00284	75 10		 jne	 SHORT $L187368

; 207  : 			afHue = afHue - 360.0f;

  00286	8b 55 0c	 mov	 edx, DWORD PTR _afHue$[ebp]
  00289	d9 02		 fld	 DWORD PTR [edx]
  0028b	d8 25 00 00 00
	00		 fsub	 DWORD PTR __real@43b40000
  00291	8b 45 0c	 mov	 eax, DWORD PTR _afHue$[ebp]
  00294	d9 18		 fstp	 DWORD PTR [eax]
$L187368:

; 208  : 	}
; 209  : }

  00296	5f		 pop	 edi
  00297	8b e5		 mov	 esp, ebp
  00299	5d		 pop	 ebp
  0029a	c2 10 00	 ret	 16			; 00000010H
?SetHBS@CBitMapOperate@@QAEXKAAM00@Z ENDP		; CBitMapOperate::SetHBS
_TEXT	ENDS
PUBLIC	?HuetoRGB@CBitMapOperate@@QAEMMMM@Z		; CBitMapOperate::HuetoRGB
PUBLIC	?SetRGB@CBitMapOperate@@QAEXAAKMMM@Z		; CBitMapOperate::SetRGB
PUBLIC	__real@00000000
PUBLIC	__real@437f0000
PUBLIC	__real@42f00000
EXTRN	__ftol2:NEAR
;	COMDAT __real@00000000
CONST	SEGMENT
__real@00000000 DD 000000000r			; 0
CONST	ENDS
;	COMDAT __real@437f0000
CONST	SEGMENT
__real@437f0000 DD 0437f0000r			; 255
CONST	ENDS
;	COMDAT __real@42f00000
CONST	SEGMENT
__real@42f00000 DD 042f00000r			; 120
; Function compile flags: /Odt /RTCsu
CONST	ENDS
_TEXT	SEGMENT
tv150 = -36						; size = 4
tv147 = -32						; size = 4
tv145 = -28						; size = 4
_lfValue2$187408 = -24					; size = 4
_lfValue1$187407 = -20					; size = 4
_lfBlue$ = -16						; size = 4
_lfGreen$ = -12						; size = 4
_lfRed$ = -8						; size = 4
_this$ = -4						; size = 4
_aSourceColor$ = 8					; size = 4
_afHue$ = 12						; size = 4
_afBrightness$ = 16					; size = 4
_afSaturation$ = 20					; size = 4
?SetRGB@CBitMapOperate@@QAEXAAKMMM@Z PROC NEAR		; CBitMapOperate::SetRGB
; _this$ = ecx

; 211  : {

  002a0	55		 push	 ebp
  002a1	8b ec		 mov	 ebp, esp
  002a3	83 ec 24	 sub	 esp, 36			; 00000024H
  002a6	56		 push	 esi
  002a7	b8 cc cc cc cc	 mov	 eax, -858993460		; ccccccccH
  002ac	89 45 dc	 mov	 DWORD PTR [ebp-36], eax
  002af	89 45 e0	 mov	 DWORD PTR [ebp-32], eax
  002b2	89 45 e4	 mov	 DWORD PTR [ebp-28], eax
  002b5	89 45 e8	 mov	 DWORD PTR [ebp-24], eax
  002b8	89 45 ec	 mov	 DWORD PTR [ebp-20], eax
  002bb	89 45 f0	 mov	 DWORD PTR [ebp-16], eax
  002be	89 45 f4	 mov	 DWORD PTR [ebp-12], eax
  002c1	89 45 f8	 mov	 DWORD PTR [ebp-8], eax
  002c4	89 45 fc	 mov	 DWORD PTR [ebp-4], eax
  002c7	89 4d fc	 mov	 DWORD PTR _this$[ebp], ecx

; 212  : 	FLOAT lfRed = GetRValue(aSourceColor);

  002ca	8b 45 08	 mov	 eax, DWORD PTR _aSourceColor$[ebp]
  002cd	0f b6 08	 movzx	 ecx, BYTE PTR [eax]
  002d0	89 4d e4	 mov	 DWORD PTR tv145[ebp], ecx
  002d3	db 45 e4	 fild	 DWORD PTR tv145[ebp]
  002d6	d9 5d f8	 fstp	 DWORD PTR _lfRed$[ebp]

; 213  : 	FLOAT lfGreen = GetGValue(aSourceColor);

  002d9	8b 55 08	 mov	 edx, DWORD PTR _aSourceColor$[ebp]
  002dc	0f b7 02	 movzx	 eax, WORD PTR [edx]
  002df	c1 f8 08	 sar	 eax, 8
  002e2	0f b6 c8	 movzx	 ecx, al
  002e5	89 4d e0	 mov	 DWORD PTR tv147[ebp], ecx
  002e8	db 45 e0	 fild	 DWORD PTR tv147[ebp]
  002eb	d9 5d f4	 fstp	 DWORD PTR _lfGreen$[ebp]

; 214  : 	FLOAT lfBlue = GetBValue(aSourceColor);

  002ee	8b 55 08	 mov	 edx, DWORD PTR _aSourceColor$[ebp]
  002f1	8b 02		 mov	 eax, DWORD PTR [edx]
  002f3	c1 e8 10	 shr	 eax, 16			; 00000010H
  002f6	0f b6 c8	 movzx	 ecx, al
  002f9	89 4d dc	 mov	 DWORD PTR tv150[ebp], ecx
  002fc	db 45 dc	 fild	 DWORD PTR tv150[ebp]
  002ff	d9 5d f0	 fstp	 DWORD PTR _lfBlue$[ebp]

; 215  : 
; 216  : 	if (afSaturation == 0.0f)

  00302	d9 05 00 00 00
	00		 fld	 DWORD PTR __real@00000000
  00308	d9 45 14	 fld	 DWORD PTR _afSaturation$[ebp]
  0030b	da e9		 fucompp
  0030d	df e0		 fnstsw	 ax
  0030f	f6 c4 44	 test	 ah, 68			; 00000044H
  00312	7a 1d		 jp	 SHORT $L187405

; 217  : 	{
; 218  : 		lfRed = lfGreen = lfBlue = afBrightness * 255.0f;

  00314	d9 45 10	 fld	 DWORD PTR _afBrightness$[ebp]
  00317	d8 0d 00 00 00
	00		 fmul	 DWORD PTR __real@437f0000
  0031d	d9 5d f0	 fstp	 DWORD PTR _lfBlue$[ebp]
  00320	8b 55 f0	 mov	 edx, DWORD PTR _lfBlue$[ebp]
  00323	89 55 f4	 mov	 DWORD PTR _lfGreen$[ebp], edx
  00326	8b 45 f4	 mov	 eax, DWORD PTR _lfGreen$[ebp]
  00329	89 45 f8	 mov	 DWORD PTR _lfRed$[ebp], eax

; 219  : 	}
; 220  : 	else

  0032c	e9 95 00 00 00	 jmp	 $L187406
$L187405:

; 221  : 	{
; 222  : 		FLOAT lfValue1, lfValue2;
; 223  : 
; 224  : 		if (afBrightness <= 0.5f)

  00331	d9 45 10	 fld	 DWORD PTR _afBrightness$[ebp]
  00334	d8 1d 00 00 00
	00		 fcomp	 DWORD PTR __real@3f000000
  0033a	df e0		 fnstsw	 ax
  0033c	f6 c4 41	 test	 ah, 65			; 00000041H
  0033f	7a 0e		 jp	 SHORT $L187409

; 225  : 			lfValue2 = afBrightness + afBrightness * afSaturation;

  00341	d9 45 10	 fld	 DWORD PTR _afBrightness$[ebp]
  00344	d8 4d 14	 fmul	 DWORD PTR _afSaturation$[ebp]
  00347	d8 45 10	 fadd	 DWORD PTR _afBrightness$[ebp]
  0034a	d9 5d e8	 fstp	 DWORD PTR _lfValue2$187408[ebp]

; 226  : 		else

  0034d	eb 11		 jmp	 SHORT $L187410
$L187409:

; 227  : 			lfValue2 = afBrightness + afSaturation - afBrightness * afSaturation;

  0034f	d9 45 10	 fld	 DWORD PTR _afBrightness$[ebp]
  00352	d8 45 14	 fadd	 DWORD PTR _afSaturation$[ebp]
  00355	d9 45 10	 fld	 DWORD PTR _afBrightness$[ebp]
  00358	d8 4d 14	 fmul	 DWORD PTR _afSaturation$[ebp]
  0035b	de e9		 fsubp	 ST(1), ST(0)
  0035d	d9 5d e8	 fstp	 DWORD PTR _lfValue2$187408[ebp]
$L187410:

; 228  : 
; 229  : 		lfValue1 = 2.0f * afBrightness - lfValue2;

  00360	d9 05 00 00 00
	00		 fld	 DWORD PTR __real@40000000
  00366	d8 4d 10	 fmul	 DWORD PTR _afBrightness$[ebp]
  00369	d8 65 e8	 fsub	 DWORD PTR _lfValue2$187408[ebp]
  0036c	d9 5d ec	 fstp	 DWORD PTR _lfValue1$187407[ebp]

; 230  : 		lfRed = HuetoRGB(lfValue1, lfValue2, afHue + 120.0f);

  0036f	d9 45 0c	 fld	 DWORD PTR _afHue$[ebp]
  00372	d8 05 00 00 00
	00		 fadd	 DWORD PTR __real@42f00000
  00378	51		 push	 ecx
  00379	d9 1c 24	 fstp	 DWORD PTR [esp]
  0037c	8b 4d e8	 mov	 ecx, DWORD PTR _lfValue2$187408[ebp]
  0037f	51		 push	 ecx
  00380	8b 55 ec	 mov	 edx, DWORD PTR _lfValue1$187407[ebp]
  00383	52		 push	 edx
  00384	8b 4d fc	 mov	 ecx, DWORD PTR _this$[ebp]
  00387	e8 00 00 00 00	 call	 ?HuetoRGB@CBitMapOperate@@QAEMMMM@Z ; CBitMapOperate::HuetoRGB
  0038c	d9 5d f8	 fstp	 DWORD PTR _lfRed$[ebp]

; 231  : 		lfGreen = HuetoRGB(lfValue1, lfValue2, afHue);

  0038f	8b 45 0c	 mov	 eax, DWORD PTR _afHue$[ebp]
  00392	50		 push	 eax
  00393	8b 4d e8	 mov	 ecx, DWORD PTR _lfValue2$187408[ebp]
  00396	51		 push	 ecx
  00397	8b 55 ec	 mov	 edx, DWORD PTR _lfValue1$187407[ebp]
  0039a	52		 push	 edx
  0039b	8b 4d fc	 mov	 ecx, DWORD PTR _this$[ebp]
  0039e	e8 00 00 00 00	 call	 ?HuetoRGB@CBitMapOperate@@QAEMMMM@Z ; CBitMapOperate::HuetoRGB
  003a3	d9 5d f4	 fstp	 DWORD PTR _lfGreen$[ebp]

; 232  : 		lfBlue = HuetoRGB(lfValue1, lfValue2, afHue - 120.0f);

  003a6	d9 45 0c	 fld	 DWORD PTR _afHue$[ebp]
  003a9	d8 25 00 00 00
	00		 fsub	 DWORD PTR __real@42f00000
  003af	51		 push	 ecx
  003b0	d9 1c 24	 fstp	 DWORD PTR [esp]
  003b3	8b 45 e8	 mov	 eax, DWORD PTR _lfValue2$187408[ebp]
  003b6	50		 push	 eax
  003b7	8b 4d ec	 mov	 ecx, DWORD PTR _lfValue1$187407[ebp]
  003ba	51		 push	 ecx
  003bb	8b 4d fc	 mov	 ecx, DWORD PTR _this$[ebp]
  003be	e8 00 00 00 00	 call	 ?HuetoRGB@CBitMapOperate@@QAEMMMM@Z ; CBitMapOperate::HuetoRGB
  003c3	d9 5d f0	 fstp	 DWORD PTR _lfBlue$[ebp]
$L187406:

; 233  : 	}
; 234  : 
; 235  : 	aSourceColor = RGB(lfRed, lfGreen, lfBlue);

  003c6	d9 45 f8	 fld	 DWORD PTR _lfRed$[ebp]
  003c9	e8 00 00 00 00	 call	 __ftol2
  003ce	0f b6 f0	 movzx	 esi, al
  003d1	d9 45 f4	 fld	 DWORD PTR _lfGreen$[ebp]
  003d4	e8 00 00 00 00	 call	 __ftol2
  003d9	0f b6 d0	 movzx	 edx, al
  003dc	c1 e2 08	 shl	 edx, 8
  003df	0b f2		 or	 esi, edx
  003e1	d9 45 f0	 fld	 DWORD PTR _lfBlue$[ebp]
  003e4	e8 00 00 00 00	 call	 __ftol2
  003e9	0f b6 c0	 movzx	 eax, al
  003ec	c1 e0 10	 shl	 eax, 16			; 00000010H
  003ef	0b f0		 or	 esi, eax
  003f1	8b 4d 08	 mov	 ecx, DWORD PTR _aSourceColor$[ebp]
  003f4	89 31		 mov	 DWORD PTR [ecx], esi

; 236  : }

  003f6	5e		 pop	 esi
  003f7	83 c4 24	 add	 esp, 36			; 00000024H
  003fa	3b ec		 cmp	 ebp, esp
  003fc	e8 00 00 00 00	 call	 __RTC_CheckEsp
  00401	8b e5		 mov	 esp, ebp
  00403	5d		 pop	 ebp
  00404	c2 10 00	 ret	 16			; 00000010H
?SetRGB@CBitMapOperate@@QAEXAAKMMM@Z ENDP		; CBitMapOperate::SetRGB
_TEXT	ENDS
PUBLIC	__real@3ff0000000000000
PUBLIC	__real@3f800000
PUBLIC	__real@3fc555555c7dda4b
PUBLIC	__real@4018000000000000
PUBLIC	__real@3fe0000000000000
PUBLIC	__real@3fe55555571f7693
;	COMDAT __real@3ff0000000000000
CONST	SEGMENT
__real@3ff0000000000000 DQ 03ff0000000000000r	; 1
CONST	ENDS
;	COMDAT __real@3f800000
CONST	SEGMENT
__real@3f800000 DD 03f800000r			; 1
CONST	ENDS
;	COMDAT __real@3fc555555c7dda4b
CONST	SEGMENT
__real@3fc555555c7dda4b DQ 03fc555555c7dda4br	; 0.166667
CONST	ENDS
;	COMDAT __real@4018000000000000
CONST	SEGMENT
__real@4018000000000000 DQ 04018000000000000r	; 6
CONST	ENDS
;	COMDAT __real@3fe0000000000000
CONST	SEGMENT
__real@3fe0000000000000 DQ 03fe0000000000000r	; 0.5
CONST	ENDS
;	COMDAT __real@3fe55555571f7693
CONST	SEGMENT
__real@3fe55555571f7693 DQ 03fe55555571f7693r	; 0.666667
; Function compile flags: /Odt /RTCsu
CONST	ENDS
;	COMDAT ?HuetoRGB@CBitMapOperate@@QAEMMMM@Z
_TEXT	SEGMENT
tv155 = -12						; size = 4
tv146 = -8						; size = 4
_this$ = -4						; size = 4
_m1$ = 8						; size = 4
_m2$ = 12						; size = 4
_h$ = 16						; size = 4
?HuetoRGB@CBitMapOperate@@QAEMMMM@Z PROC NEAR		; CBitMapOperate::HuetoRGB, COMDAT
; _this$ = ecx

; 156  : {

  00000	55		 push	 ebp
  00001	8b ec		 mov	 ebp, esp
  00003	83 ec 0c	 sub	 esp, 12			; 0000000cH
  00006	c7 45 f4 cc cc
	cc cc		 mov	 DWORD PTR [ebp-12], -858993460 ; ccccccccH
  0000d	c7 45 f8 cc cc
	cc cc		 mov	 DWORD PTR [ebp-8], -858993460 ; ccccccccH
  00014	c7 45 fc cc cc
	cc cc		 mov	 DWORD PTR [ebp-4], -858993460 ; ccccccccH
  0001b	89 4d fc	 mov	 DWORD PTR _this$[ebp], ecx

; 157  : 	if (h < 0)

  0001e	d9 45 10	 fld	 DWORD PTR _h$[ebp]
  00021	d8 1d 00 00 00
	00		 fcomp	 DWORD PTR __real@00000000
  00027	df e0		 fnstsw	 ax
  00029	f6 c4 05	 test	 ah, 5
  0002c	7a 0e		 jp	 SHORT $L187356

; 158  : 		h += 1.0;

  0002e	d9 45 10	 fld	 DWORD PTR _h$[ebp]
  00031	dc 05 00 00 00
	00		 fadd	 QWORD PTR __real@3ff0000000000000
  00037	d9 5d 10	 fstp	 DWORD PTR _h$[ebp]

; 159  : 	else if (h > 1)

  0003a	eb 1c		 jmp	 SHORT $L187357
$L187356:
  0003c	d9 45 10	 fld	 DWORD PTR _h$[ebp]
  0003f	d8 1d 00 00 00
	00		 fcomp	 DWORD PTR __real@3f800000
  00045	df e0		 fnstsw	 ax
  00047	f6 c4 41	 test	 ah, 65			; 00000041H
  0004a	75 0c		 jne	 SHORT $L187357

; 160  : 		h -= 1.0;

  0004c	d9 45 10	 fld	 DWORD PTR _h$[ebp]
  0004f	dc 25 00 00 00
	00		 fsub	 QWORD PTR __real@3ff0000000000000
  00055	d9 5d 10	 fstp	 DWORD PTR _h$[ebp]
$L187357:

; 161  : 	if (h < 0.16666667)

  00058	d9 45 10	 fld	 DWORD PTR _h$[ebp]
  0005b	dc 1d 00 00 00
	00		 fcomp	 QWORD PTR __real@3fc555555c7dda4b
  00061	df e0		 fnstsw	 ax
  00063	f6 c4 05	 test	 ah, 5
  00066	7a 19		 jp	 SHORT $L187359

; 162  : 		return (m1+(m2-m1)*h*6.0);

  00068	d9 45 08	 fld	 DWORD PTR _m1$[ebp]
  0006b	d9 45 0c	 fld	 DWORD PTR _m2$[ebp]
  0006e	d8 65 08	 fsub	 DWORD PTR _m1$[ebp]
  00071	d8 4d 10	 fmul	 DWORD PTR _h$[ebp]
  00074	dc 0d 00 00 00
	00		 fmul	 QWORD PTR __real@4018000000000000
  0007a	de c1		 faddp	 ST(1), ST(0)
  0007c	d9 55 f8	 fst	 DWORD PTR tv146[ebp]
  0007f	eb 49		 jmp	 SHORT $L187355
$L187359:

; 163  : 	if (h < 0.5)

  00081	d9 45 10	 fld	 DWORD PTR _h$[ebp]
  00084	dc 1d 00 00 00
	00		 fcomp	 QWORD PTR __real@3fe0000000000000
  0008a	df e0		 fnstsw	 ax
  0008c	f6 c4 05	 test	 ah, 5
  0008f	7a 05		 jp	 SHORT $L187360

; 164  : 		return m2;

  00091	d9 45 0c	 fld	 DWORD PTR _m2$[ebp]
  00094	eb 34		 jmp	 SHORT $L187355
$L187360:

; 165  : 	if (h < 0.66666667)

  00096	d9 45 10	 fld	 DWORD PTR _h$[ebp]
  00099	dc 1d 00 00 00
	00		 fcomp	 QWORD PTR __real@3fe55555571f7693
  0009f	df e0		 fnstsw	 ax
  000a1	f6 c4 05	 test	 ah, 5
  000a4	7a 21		 jp	 SHORT $L187361

; 166  : 		return (m1+(m2-m1)*(0.66666667-h)*6.0);

  000a6	d9 45 08	 fld	 DWORD PTR _m1$[ebp]
  000a9	d9 45 0c	 fld	 DWORD PTR _m2$[ebp]
  000ac	d8 65 08	 fsub	 DWORD PTR _m1$[ebp]
  000af	d9 45 10	 fld	 DWORD PTR _h$[ebp]
  000b2	dc 2d 00 00 00
	00		 fsubr	 QWORD PTR __real@3fe55555571f7693
  000b8	de c9		 fmulp	 ST(1), ST(0)
  000ba	dc 0d 00 00 00
	00		 fmul	 QWORD PTR __real@4018000000000000
  000c0	de c1		 faddp	 ST(1), ST(0)
  000c2	d9 55 f4	 fst	 DWORD PTR tv155[ebp]
  000c5	eb 03		 jmp	 SHORT $L187355
$L187361:

; 167  : 	return m1;

  000c7	d9 45 08	 fld	 DWORD PTR _m1$[ebp]
$L187355:

; 168  : }

  000ca	8b e5		 mov	 esp, ebp
  000cc	5d		 pop	 ebp
  000cd	c2 0c 00	 ret	 12			; 0000000cH
?HuetoRGB@CBitMapOperate@@QAEMMMM@Z ENDP		; CBitMapOperate::HuetoRGB
_TEXT	ENDS
PUBLIC	?RGBtoHSL@CBitMapOperate@@QAEXKPAN00@Z		; CBitMapOperate::RGBtoHSL
PUBLIC	?HLStoRGB@CBitMapOperate@@QAEKABN00@Z		; CBitMapOperate::HLStoRGB
PUBLIC	?ChangeBmpSkin@CBitMapOperate@@QAEPAUHBITMAP__@@AAPAU2@AAIAAK21@Z ; CBitMapOperate::ChangeBmpSkin
PUBLIC	__real@405e000000000000
EXTRN	__imp__SelectObject@8:NEAR
EXTRN	__imp__BitBlt@36:NEAR
EXTRN	__imp__CreateCompatibleDC@4:NEAR
EXTRN	__imp__DeleteDC@4:NEAR
EXTRN	__imp__CreateDIBSection@24:NEAR
EXTRN	__imp__GetObjectA@12:NEAR
EXTRN	__imp__ColorRGBToHLS@16:NEAR
EXTRN	__imp__ColorHLSToRGB@12:NEAR
EXTRN	_abs:NEAR
EXTRN	@_RTC_CheckStackVars@8:NEAR
;	COMDAT __real@405e000000000000
CONST	SEGMENT
__real@405e000000000000 DQ 0405e000000000000r	; 120
; Function compile flags: /Odt /RTCsu
CONST	ENDS
_TEXT	SEGMENT
tv366 = -352						; size = 4
tv359 = -348						; size = 8
tv224 = -340						; size = 8
_wS2$187496 = -328					; size = 2
_wH2$187495 = -316					; size = 2
_wL2$187494 = -304					; size = 2
_wS1$187493 = -292					; size = 2
_wH1$187492 = -280					; size = 2
_wL1$187491 = -268					; size = 2
_c$187490 = -260					; size = 4
_lAdjuest$187480 = -256					; size = 8
_lL$187469 = -244					; size = 8
_lS$187468 = -228					; size = 8
_lH$187467 = -212					; size = 8
_lB$187466 = -200					; size = 4
_lG$187465 = -196					; size = 4
_lR$187464 = -192					; size = 4
_i$187459 = -188					; size = 4
_lL2$187448 = -180					; size = 8
_lS2$187447 = -164					; size = 8
_lH2$187446 = -148					; size = 8
_lB2$187445 = -136					; size = 4
_lG2$187444 = -132					; size = 4
_lR2$187443 = -128					; size = 4
_lSourceObject$187441 = -124				; size = 4
_lDirectBitmap$187437 = -120				; size = 4
_lptPixels$187436 = -112				; size = 4
_RGB24Bit$187433 = -100					; size = 44
_lbMap$187432 = -48					; size = 24
_lDirectDC$187430 = -20					; size = 4
_lSourceBufferObject$187429 = -16			; size = 4
_lBufferDC$187427 = -12					; size = 4
_lhNewBmp$ = -8						; size = 4
_this$ = -4						; size = 4
_ahSourceBmp$ = 8					; size = 4
_aColorGroup$ = 12					; size = 4
_aBaseColor$ = 16					; size = 4
_aMaskColor$ = 20					; size = 4
_aiLightPos$ = 24					; size = 4
?ChangeBmpSkin@CBitMapOperate@@QAEPAUHBITMAP__@@AAPAU2@AAIAAK21@Z PROC NEAR ; CBitMapOperate::ChangeBmpSkin
; _this$ = ecx

; 238  : {

  00410	55		 push	 ebp
  00411	8b ec		 mov	 ebp, esp
  00413	81 ec 60 01 00
	00		 sub	 esp, 352		; 00000160H
  00419	56		 push	 esi
  0041a	57		 push	 edi
  0041b	51		 push	 ecx
  0041c	8d bd a0 fe ff
	ff		 lea	 edi, DWORD PTR [ebp-352]
  00422	b9 58 00 00 00	 mov	 ecx, 88			; 00000058H
  00427	b8 cc cc cc cc	 mov	 eax, -858993460		; ccccccccH
  0042c	f3 ab		 rep stosd
  0042e	59		 pop	 ecx
  0042f	89 4d fc	 mov	 DWORD PTR _this$[ebp], ecx

; 239  : 	HBITMAP lhNewBmp=NULL;

  00432	c7 45 f8 00 00
	00 00		 mov	 DWORD PTR _lhNewBmp$[ebp], 0

; 240  : 	if (ahSourceBmp)

  00439	8b 45 08	 mov	 eax, DWORD PTR _ahSourceBmp$[ebp]
  0043c	83 38 00	 cmp	 DWORD PTR [eax], 0
  0043f	0f 84 82 04 00
	00		 je	 $L187426

; 241  : 	{	
; 242  : 		HDC lBufferDC=CreateCompatibleDC(NULL);	

  00445	8b f4		 mov	 esi, esp
  00447	6a 00		 push	 0
  00449	ff 15 00 00 00
	00		 call	 DWORD PTR __imp__CreateCompatibleDC@4
  0044f	3b f4		 cmp	 esi, esp
  00451	e8 00 00 00 00	 call	 __RTC_CheckEsp
  00456	89 45 f4	 mov	 DWORD PTR _lBufferDC$187427[ebp], eax

; 243  : 		if (lBufferDC)

  00459	83 7d f4 00	 cmp	 DWORD PTR _lBufferDC$187427[ebp], 0
  0045d	0f 84 64 04 00
	00		 je	 $L187426

; 244  : 		{
; 245  : 			HGDIOBJ lSourceBufferObject = SelectObject(lBufferDC,ahSourceBmp);	

  00463	8b f4		 mov	 esi, esp
  00465	8b 4d 08	 mov	 ecx, DWORD PTR _ahSourceBmp$[ebp]
  00468	8b 11		 mov	 edx, DWORD PTR [ecx]
  0046a	52		 push	 edx
  0046b	8b 45 f4	 mov	 eax, DWORD PTR _lBufferDC$187427[ebp]
  0046e	50		 push	 eax
  0046f	ff 15 00 00 00
	00		 call	 DWORD PTR __imp__SelectObject@8
  00475	3b f4		 cmp	 esi, esp
  00477	e8 00 00 00 00	 call	 __RTC_CheckEsp
  0047c	89 45 f0	 mov	 DWORD PTR _lSourceBufferObject$187429[ebp], eax

; 246  : 			HDC lDirectDC=CreateCompatibleDC(NULL);

  0047f	8b f4		 mov	 esi, esp
  00481	6a 00		 push	 0
  00483	ff 15 00 00 00
	00		 call	 DWORD PTR __imp__CreateCompatibleDC@4
  00489	3b f4		 cmp	 esi, esp
  0048b	e8 00 00 00 00	 call	 __RTC_CheckEsp
  00490	89 45 ec	 mov	 DWORD PTR _lDirectDC$187430[ebp], eax

; 247  : 			if (lDirectDC)

  00493	83 7d ec 00	 cmp	 DWORD PTR _lDirectDC$187430[ebp], 0
  00497	0f 84 00 04 00
	00		 je	 $L187431

; 248  : 			{
; 249  : 				BITMAP lbMap;
; 250  : 				GetObject(ahSourceBmp, sizeof(lbMap), &lbMap);

  0049d	8b f4		 mov	 esi, esp
  0049f	8d 4d d0	 lea	 ecx, DWORD PTR _lbMap$187432[ebp]
  004a2	51		 push	 ecx
  004a3	6a 18		 push	 24			; 00000018H
  004a5	8b 55 08	 mov	 edx, DWORD PTR _ahSourceBmp$[ebp]
  004a8	8b 02		 mov	 eax, DWORD PTR [edx]
  004aa	50		 push	 eax
  004ab	ff 15 00 00 00
	00		 call	 DWORD PTR __imp__GetObjectA@12
  004b1	3b f4		 cmp	 esi, esp
  004b3	e8 00 00 00 00	 call	 __RTC_CheckEsp

; 251  : 				BITMAPINFO RGB24Bit; 
; 252  : 				ZeroMemory(&RGB24Bit,sizeof(BITMAPINFO));

  004b8	6a 2c		 push	 44			; 0000002cH
  004ba	6a 00		 push	 0
  004bc	8d 4d 9c	 lea	 ecx, DWORD PTR _RGB24Bit$187433[ebp]
  004bf	51		 push	 ecx
  004c0	e8 00 00 00 00	 call	 _memset
  004c5	83 c4 0c	 add	 esp, 12			; 0000000cH

; 253  : 				RGB24Bit.bmiHeader.biSize=sizeof(BITMAPINFOHEADER);

  004c8	c7 45 9c 28 00
	00 00		 mov	 DWORD PTR _RGB24Bit$187433[ebp], 40 ; 00000028H

; 254  : 				RGB24Bit.bmiHeader.biWidth=lbMap.bmWidth;

  004cf	8b 55 d4	 mov	 edx, DWORD PTR _lbMap$187432[ebp+4]
  004d2	89 55 a0	 mov	 DWORD PTR _RGB24Bit$187433[ebp+4], edx

; 255  : 				RGB24Bit.bmiHeader.biHeight=lbMap.bmHeight;

  004d5	8b 45 d8	 mov	 eax, DWORD PTR _lbMap$187432[ebp+8]
  004d8	89 45 a4	 mov	 DWORD PTR _RGB24Bit$187433[ebp+8], eax

; 256  : 				RGB24Bit.bmiHeader.biPlanes=1;

  004db	66 c7 45 a8 01
	00		 mov	 WORD PTR _RGB24Bit$187433[ebp+12], 1

; 257  : 				RGB24Bit.bmiHeader.biBitCount=32;

  004e1	66 c7 45 aa 20
	00		 mov	 WORD PTR _RGB24Bit$187433[ebp+14], 32 ; 00000020H

; 258  : 				UINT * lptPixels;
; 259  : 				HBITMAP lDirectBitmap= CreateDIBSection(lDirectDC, (BITMAPINFO *)&RGB24Bit, DIB_RGB_COLORS,(void **)&lptPixels, NULL, 0);

  004e7	8b f4		 mov	 esi, esp
  004e9	6a 00		 push	 0
  004eb	6a 00		 push	 0
  004ed	8d 4d 90	 lea	 ecx, DWORD PTR _lptPixels$187436[ebp]
  004f0	51		 push	 ecx
  004f1	6a 00		 push	 0
  004f3	8d 55 9c	 lea	 edx, DWORD PTR _RGB24Bit$187433[ebp]
  004f6	52		 push	 edx
  004f7	8b 45 ec	 mov	 eax, DWORD PTR _lDirectDC$187430[ebp]
  004fa	50		 push	 eax
  004fb	ff 15 00 00 00
	00		 call	 DWORD PTR __imp__CreateDIBSection@24
  00501	3b f4		 cmp	 esi, esp
  00503	e8 00 00 00 00	 call	 __RTC_CheckEsp
  00508	89 45 88	 mov	 DWORD PTR _lDirectBitmap$187437[ebp], eax

; 260  : 				if (lDirectBitmap)

  0050b	83 7d 88 00	 cmp	 DWORD PTR _lDirectBitmap$187437[ebp], 0
  0050f	0f 84 75 03 00
	00		 je	 $L187440

; 261  : 				{
; 262  : 					HGDIOBJ lSourceObject=SelectObject(lDirectDC, lDirectBitmap);

  00515	8b f4		 mov	 esi, esp
  00517	8b 4d 88	 mov	 ecx, DWORD PTR _lDirectBitmap$187437[ebp]
  0051a	51		 push	 ecx
  0051b	8b 55 ec	 mov	 edx, DWORD PTR _lDirectDC$187430[ebp]
  0051e	52		 push	 edx
  0051f	ff 15 00 00 00
	00		 call	 DWORD PTR __imp__SelectObject@8
  00525	3b f4		 cmp	 esi, esp
  00527	e8 00 00 00 00	 call	 __RTC_CheckEsp
  0052c	89 45 84	 mov	 DWORD PTR _lSourceObject$187441[ebp], eax

; 263  : 					BitBlt(lDirectDC,0,0,lbMap.bmWidth,lbMap.bmHeight,lBufferDC,0,0,SRCCOPY);	

  0052f	8b f4		 mov	 esi, esp
  00531	68 20 00 cc 00	 push	 13369376		; 00cc0020H
  00536	6a 00		 push	 0
  00538	6a 00		 push	 0
  0053a	8b 45 f4	 mov	 eax, DWORD PTR _lBufferDC$187427[ebp]
  0053d	50		 push	 eax
  0053e	8b 4d d8	 mov	 ecx, DWORD PTR _lbMap$187432[ebp+8]
  00541	51		 push	 ecx
  00542	8b 55 d4	 mov	 edx, DWORD PTR _lbMap$187432[ebp+4]
  00545	52		 push	 edx
  00546	6a 00		 push	 0
  00548	6a 00		 push	 0
  0054a	8b 45 ec	 mov	 eax, DWORD PTR _lDirectDC$187430[ebp]
  0054d	50		 push	 eax
  0054e	ff 15 00 00 00
	00		 call	 DWORD PTR __imp__BitBlt@36
  00554	3b f4		 cmp	 esi, esp
  00556	e8 00 00 00 00	 call	 __RTC_CheckEsp

; 264  : 
; 265  : 					int lR2,lG2,lB2;
; 266  : 					double  lH2,lS2,lL2;
; 267  : 					lR2 = GetRValue(aBaseColor);

  0055b	8b 4d 10	 mov	 ecx, DWORD PTR _aBaseColor$[ebp]
  0055e	0f b6 11	 movzx	 edx, BYTE PTR [ecx]
  00561	89 55 80	 mov	 DWORD PTR _lR2$187443[ebp], edx

; 268  : 					lG2 = GetGValue(aBaseColor);

  00564	8b 45 10	 mov	 eax, DWORD PTR _aBaseColor$[ebp]
  00567	0f b7 08	 movzx	 ecx, WORD PTR [eax]
  0056a	c1 f9 08	 sar	 ecx, 8
  0056d	0f b6 d1	 movzx	 edx, cl
  00570	89 95 7c ff ff
	ff		 mov	 DWORD PTR _lG2$187444[ebp], edx

; 269  : 					lB2 = GetBValue(aBaseColor);

  00576	8b 45 10	 mov	 eax, DWORD PTR _aBaseColor$[ebp]
  00579	8b 08		 mov	 ecx, DWORD PTR [eax]
  0057b	c1 e9 10	 shr	 ecx, 16			; 00000010H
  0057e	0f b6 d1	 movzx	 edx, cl
  00581	89 95 78 ff ff
	ff		 mov	 DWORD PTR _lB2$187445[ebp], edx

; 270  : 					RGBtoHSL(RGB(lR2,lG2,lB2),&lH2,&lS2,&lL2);

  00587	8d 85 4c ff ff
	ff		 lea	 eax, DWORD PTR _lL2$187448[ebp]
  0058d	50		 push	 eax
  0058e	8d 8d 5c ff ff
	ff		 lea	 ecx, DWORD PTR _lS2$187447[ebp]
  00594	51		 push	 ecx
  00595	8d 95 6c ff ff
	ff		 lea	 edx, DWORD PTR _lH2$187446[ebp]
  0059b	52		 push	 edx
  0059c	0f b6 45 80	 movzx	 eax, BYTE PTR _lR2$187443[ebp]
  005a0	0f b6 8d 7c ff
	ff ff		 movzx	 ecx, BYTE PTR _lG2$187444[ebp]
  005a7	c1 e1 08	 shl	 ecx, 8
  005aa	0b c1		 or	 eax, ecx
  005ac	0f b6 95 78 ff
	ff ff		 movzx	 edx, BYTE PTR _lB2$187445[ebp]
  005b3	c1 e2 10	 shl	 edx, 16			; 00000010H
  005b6	0b c2		 or	 eax, edx
  005b8	50		 push	 eax
  005b9	8b 4d fc	 mov	 ecx, DWORD PTR _this$[ebp]
  005bc	e8 00 00 00 00	 call	 ?RGBtoHSL@CBitMapOperate@@QAEXKPAN00@Z ; CBitMapOperate::RGBtoHSL

; 271  : 
; 272  : 					for (int i=((lbMap.bmWidth*lbMap.bmHeight)-1 );i>0;i--)

  005c1	8b 45 d4	 mov	 eax, DWORD PTR _lbMap$187432[ebp+4]
  005c4	0f af 45 d8	 imul	 eax, DWORD PTR _lbMap$187432[ebp+8]
  005c8	83 e8 01	 sub	 eax, 1
  005cb	89 85 44 ff ff
	ff		 mov	 DWORD PTR _i$187459[ebp], eax
  005d1	eb 0f		 jmp	 SHORT $L187460
$L187461:
  005d3	8b 8d 44 ff ff
	ff		 mov	 ecx, DWORD PTR _i$187459[ebp]
  005d9	83 e9 01	 sub	 ecx, 1
  005dc	89 8d 44 ff ff
	ff		 mov	 DWORD PTR _i$187459[ebp], ecx
$L187460:
  005e2	83 bd 44 ff ff
	ff 00		 cmp	 DWORD PTR _i$187459[ebp], 0
  005e9	0f 8e 7e 02 00
	00		 jle	 $L187462

; 273  : 					{
; 274  : 						if(  lptPixels[i] != aMaskColor ) 

  005ef	8b 95 44 ff ff
	ff		 mov	 edx, DWORD PTR _i$187459[ebp]
  005f5	8b 45 90	 mov	 eax, DWORD PTR _lptPixels$187436[ebp]
  005f8	8b 4d 14	 mov	 ecx, DWORD PTR _aMaskColor$[ebp]
  005fb	8b 14 90	 mov	 edx, DWORD PTR [eax+edx*4]
  005fe	3b 11		 cmp	 edx, DWORD PTR [ecx]
  00600	0f 84 62 02 00
	00		 je	 $L187463

; 275  : 						{
; 276  : 							int    lR,lG,lB;
; 277  : 							double lH,lS,lL;
; 278  : 							lR =  GetBValue(lptPixels[i]);

  00606	8b 85 44 ff ff
	ff		 mov	 eax, DWORD PTR _i$187459[ebp]
  0060c	8b 4d 90	 mov	 ecx, DWORD PTR _lptPixels$187436[ebp]
  0060f	8b 14 81	 mov	 edx, DWORD PTR [ecx+eax*4]
  00612	c1 ea 10	 shr	 edx, 16			; 00000010H
  00615	0f b6 c2	 movzx	 eax, dl
  00618	89 85 40 ff ff
	ff		 mov	 DWORD PTR _lR$187464[ebp], eax

; 279  : 							lG =  GetGValue(lptPixels[i]);

  0061e	8b 8d 44 ff ff
	ff		 mov	 ecx, DWORD PTR _i$187459[ebp]
  00624	8b 55 90	 mov	 edx, DWORD PTR _lptPixels$187436[ebp]
  00627	0f b7 04 8a	 movzx	 eax, WORD PTR [edx+ecx*4]
  0062b	c1 f8 08	 sar	 eax, 8
  0062e	0f b6 c8	 movzx	 ecx, al
  00631	89 8d 3c ff ff
	ff		 mov	 DWORD PTR _lG$187465[ebp], ecx

; 280  : 							lB =  GetRValue(lptPixels[i]);

  00637	8b 95 44 ff ff
	ff		 mov	 edx, DWORD PTR _i$187459[ebp]
  0063d	8b 45 90	 mov	 eax, DWORD PTR _lptPixels$187436[ebp]
  00640	0f b6 0c 90	 movzx	 ecx, BYTE PTR [eax+edx*4]
  00644	89 8d 38 ff ff
	ff		 mov	 DWORD PTR _lB$187466[ebp], ecx

; 281  : 
; 282  : 							RGBtoHSL(RGB(lR,lG,lB),&lH,&lS,&lL);

  0064a	8d 95 0c ff ff
	ff		 lea	 edx, DWORD PTR _lL$187469[ebp]
  00650	52		 push	 edx
  00651	8d 85 1c ff ff
	ff		 lea	 eax, DWORD PTR _lS$187468[ebp]
  00657	50		 push	 eax
  00658	8d 8d 2c ff ff
	ff		 lea	 ecx, DWORD PTR _lH$187467[ebp]
  0065e	51		 push	 ecx
  0065f	0f b6 95 40 ff
	ff ff		 movzx	 edx, BYTE PTR _lR$187464[ebp]
  00666	0f b6 85 3c ff
	ff ff		 movzx	 eax, BYTE PTR _lG$187465[ebp]
  0066d	c1 e0 08	 shl	 eax, 8
  00670	0b d0		 or	 edx, eax
  00672	0f b6 8d 38 ff
	ff ff		 movzx	 ecx, BYTE PTR _lB$187466[ebp]
  00679	c1 e1 10	 shl	 ecx, 16			; 00000010H
  0067c	0b d1		 or	 edx, ecx
  0067e	52		 push	 edx
  0067f	8b 4d fc	 mov	 ecx, DWORD PTR _this$[ebp]
  00682	e8 00 00 00 00	 call	 ?RGBtoHSL@CBitMapOperate@@QAEXKPAN00@Z ; CBitMapOperate::RGBtoHSL

; 283  : 							double lAdjuest = min( (double)(1.0 - lL), lL ); 

  00687	dd 05 00 00 00
	00		 fld	 QWORD PTR __real@3ff0000000000000
  0068d	dc a5 0c ff ff
	ff		 fsub	 QWORD PTR _lL$187469[ebp]
  00693	dc 9d 0c ff ff
	ff		 fcomp	 QWORD PTR _lL$187469[ebp]
  00699	df e0		 fnstsw	 ax
  0069b	f6 c4 05	 test	 ah, 5
  0069e	7a 14		 jp	 SHORT $L189286
  006a0	dd 05 00 00 00
	00		 fld	 QWORD PTR __real@3ff0000000000000
  006a6	dc a5 0c ff ff
	ff		 fsub	 QWORD PTR _lL$187469[ebp]
  006ac	dd 9d ac fe ff
	ff		 fstp	 QWORD PTR tv224[ebp]
  006b2	eb 0c		 jmp	 SHORT $L189287
$L189286:
  006b4	dd 85 0c ff ff
	ff		 fld	 QWORD PTR _lL$187469[ebp]
  006ba	dd 9d ac fe ff
	ff		 fstp	 QWORD PTR tv224[ebp]
$L189287:
  006c0	dd 85 ac fe ff
	ff		 fld	 QWORD PTR tv224[ebp]
  006c6	dd 9d 00 ff ff
	ff		 fstp	 QWORD PTR _lAdjuest$187480[ebp]

; 284  : 							if( aiLightPos>120 )

  006cc	8b 55 18	 mov	 edx, DWORD PTR _aiLightPos$[ebp]
  006cf	83 3a 78	 cmp	 DWORD PTR [edx], 120	; 00000078H
  006d2	76 44		 jbe	 SHORT $L187483

; 285  : 							{
; 286  : 								lAdjuest = ( ((double)(aiLightPos-120) )/ (double)120 ) * lAdjuest;

  006d4	8b 45 18	 mov	 eax, DWORD PTR _aiLightPos$[ebp]
  006d7	8b 08		 mov	 ecx, DWORD PTR [eax]
  006d9	83 e9 78	 sub	 ecx, 120		; 00000078H
  006dc	89 8d a4 fe ff
	ff		 mov	 DWORD PTR tv359[ebp], ecx
  006e2	c7 85 a8 fe ff
	ff 00 00 00 00	 mov	 DWORD PTR tv359[ebp+4], 0
  006ec	df ad a4 fe ff
	ff		 fild	 QWORD PTR tv359[ebp]
  006f2	dc 35 00 00 00
	00		 fdiv	 QWORD PTR __real@405e000000000000
  006f8	dc 8d 00 ff ff
	ff		 fmul	 QWORD PTR _lAdjuest$187480[ebp]
  006fe	dd 9d 00 ff ff
	ff		 fstp	 QWORD PTR _lAdjuest$187480[ebp]

; 287  : 								lL += lAdjuest;

  00704	dd 85 0c ff ff
	ff		 fld	 QWORD PTR _lL$187469[ebp]
  0070a	dc 85 00 ff ff
	ff		 fadd	 QWORD PTR _lAdjuest$187480[ebp]
  00710	dd 9d 0c ff ff
	ff		 fstp	 QWORD PTR _lL$187469[ebp]

; 288  : 							}
; 289  : 							else

  00716	eb 49		 jmp	 SHORT $L187486
$L187483:

; 290  : 							{
; 291  : 								if( aiLightPos<120)

  00718	8b 55 18	 mov	 edx, DWORD PTR _aiLightPos$[ebp]
  0071b	83 3a 78	 cmp	 DWORD PTR [edx], 120	; 00000078H
  0071e	73 41		 jae	 SHORT $L187486

; 292  : 								{
; 293  : 									lAdjuest = ( ((double)(abs(int(aiLightPos-120) )) )/ (double)120 ) * lAdjuest;

  00720	8b 45 18	 mov	 eax, DWORD PTR _aiLightPos$[ebp]
  00723	8b 08		 mov	 ecx, DWORD PTR [eax]
  00725	83 e9 78	 sub	 ecx, 120		; 00000078H
  00728	51		 push	 ecx
  00729	e8 00 00 00 00	 call	 _abs
  0072e	83 c4 04	 add	 esp, 4
  00731	89 85 a0 fe ff
	ff		 mov	 DWORD PTR tv366[ebp], eax
  00737	db 85 a0 fe ff
	ff		 fild	 DWORD PTR tv366[ebp]
  0073d	dc 35 00 00 00
	00		 fdiv	 QWORD PTR __real@405e000000000000
  00743	dc 8d 00 ff ff
	ff		 fmul	 QWORD PTR _lAdjuest$187480[ebp]
  00749	dd 9d 00 ff ff
	ff		 fstp	 QWORD PTR _lAdjuest$187480[ebp]

; 294  : 									lL -= lAdjuest;

  0074f	dd 85 0c ff ff
	ff		 fld	 QWORD PTR _lL$187469[ebp]
  00755	dc a5 00 ff ff
	ff		 fsub	 QWORD PTR _lAdjuest$187480[ebp]
  0075b	dd 9d 0c ff ff
	ff		 fstp	 QWORD PTR _lL$187469[ebp]
$L187486:

; 295  : 								}
; 296  : 							}
; 297  : 							/*int lgroup;
; 298  : 							if( lH!= 0)
; 299  : 							{
; 300  : 							lgroup = ( lH/0.125 + 1 );
; 301  : 							}
; 302  : 							else
; 303  : 							{
; 304  : 							lgroup = 1; 
; 305  : 							}*/
; 306  : 							COLORREF c   = COLORREF2RGB( HLStoRGB(lH2,lL,lS ) );

  00761	8d 95 1c ff ff
	ff		 lea	 edx, DWORD PTR _lS$187468[ebp]
  00767	52		 push	 edx
  00768	8d 85 0c ff ff
	ff		 lea	 eax, DWORD PTR _lL$187469[ebp]
  0076e	50		 push	 eax
  0076f	8d 8d 6c ff ff
	ff		 lea	 ecx, DWORD PTR _lH2$187446[ebp]
  00775	51		 push	 ecx
  00776	8b 4d fc	 mov	 ecx, DWORD PTR _this$[ebp]
  00779	e8 00 00 00 00	 call	 ?HLStoRGB@CBitMapOperate@@QAEKABN00@Z ; CBitMapOperate::HLStoRGB
  0077e	8b f0		 mov	 esi, eax
  00780	81 e6 00 ff 00
	00		 and	 esi, 65280		; 0000ff00H
  00786	8d 95 1c ff ff
	ff		 lea	 edx, DWORD PTR _lS$187468[ebp]
  0078c	52		 push	 edx
  0078d	8d 85 0c ff ff
	ff		 lea	 eax, DWORD PTR _lL$187469[ebp]
  00793	50		 push	 eax
  00794	8d 8d 6c ff ff
	ff		 lea	 ecx, DWORD PTR _lH2$187446[ebp]
  0079a	51		 push	 ecx
  0079b	8b 4d fc	 mov	 ecx, DWORD PTR _this$[ebp]
  0079e	e8 00 00 00 00	 call	 ?HLStoRGB@CBitMapOperate@@QAEKABN00@Z ; CBitMapOperate::HLStoRGB
  007a3	c1 e8 10	 shr	 eax, 16			; 00000010H
  007a6	25 ff 00 00 00	 and	 eax, 255		; 000000ffH
  007ab	0b f0		 or	 esi, eax
  007ad	8d 95 1c ff ff
	ff		 lea	 edx, DWORD PTR _lS$187468[ebp]
  007b3	52		 push	 edx
  007b4	8d 85 0c ff ff
	ff		 lea	 eax, DWORD PTR _lL$187469[ebp]
  007ba	50		 push	 eax
  007bb	8d 8d 6c ff ff
	ff		 lea	 ecx, DWORD PTR _lH2$187446[ebp]
  007c1	51		 push	 ecx
  007c2	8b 4d fc	 mov	 ecx, DWORD PTR _this$[ebp]
  007c5	e8 00 00 00 00	 call	 ?HLStoRGB@CBitMapOperate@@QAEKABN00@Z ; CBitMapOperate::HLStoRGB
  007ca	c1 e0 10	 shl	 eax, 16			; 00000010H
  007cd	25 00 00 ff 00	 and	 eax, 16711680		; 00ff0000H
  007d2	0b f0		 or	 esi, eax
  007d4	89 b5 fc fe ff
	ff		 mov	 DWORD PTR _c$187490[ebp], esi

; 307  : //							lptPixels[i] = c;
; 308  : 
; 309  : //							int lR3 = GetRValue(aColor);
; 310  : //							int lG3 = GetGValue(aColor);
; 311  : //							int lB3 = GetBValue(aColor);
; 312  : 
; 313  : 							WORD wL1,wH1,wS1,wL2,wH2,wS2;
; 314  : 							ColorRGBToHLS(lptPixels[i],&wH1,&wL1,&wS1);

  007da	8b f4		 mov	 esi, esp
  007dc	8d 95 dc fe ff
	ff		 lea	 edx, DWORD PTR _wS1$187493[ebp]
  007e2	52		 push	 edx
  007e3	8d 85 f4 fe ff
	ff		 lea	 eax, DWORD PTR _wL1$187491[ebp]
  007e9	50		 push	 eax
  007ea	8d 8d e8 fe ff
	ff		 lea	 ecx, DWORD PTR _wH1$187492[ebp]
  007f0	51		 push	 ecx
  007f1	8b 95 44 ff ff
	ff		 mov	 edx, DWORD PTR _i$187459[ebp]
  007f7	8b 45 90	 mov	 eax, DWORD PTR _lptPixels$187436[ebp]
  007fa	8b 0c 90	 mov	 ecx, DWORD PTR [eax+edx*4]
  007fd	51		 push	 ecx
  007fe	ff 15 00 00 00
	00		 call	 DWORD PTR __imp__ColorRGBToHLS@16
  00804	3b f4		 cmp	 esi, esp
  00806	e8 00 00 00 00	 call	 __RTC_CheckEsp

; 315  : 							ColorRGBToHLS(aBaseColor,&wH2,&wL2,&wS2);

  0080b	8b f4		 mov	 esi, esp
  0080d	8d 95 b8 fe ff
	ff		 lea	 edx, DWORD PTR _wS2$187496[ebp]
  00813	52		 push	 edx
  00814	8d 85 d0 fe ff
	ff		 lea	 eax, DWORD PTR _wL2$187494[ebp]
  0081a	50		 push	 eax
  0081b	8d 8d c4 fe ff
	ff		 lea	 ecx, DWORD PTR _wH2$187495[ebp]
  00821	51		 push	 ecx
  00822	8b 55 10	 mov	 edx, DWORD PTR _aBaseColor$[ebp]
  00825	8b 02		 mov	 eax, DWORD PTR [edx]
  00827	50		 push	 eax
  00828	ff 15 00 00 00
	00		 call	 DWORD PTR __imp__ColorRGBToHLS@16
  0082e	3b f4		 cmp	 esi, esp
  00830	e8 00 00 00 00	 call	 __RTC_CheckEsp

; 316  : 
; 317  : 							lptPixels[i] = ColorHLSToRGB(wH2,wL1,wS1);							

  00835	8b f4		 mov	 esi, esp
  00837	66 8b 8d dc fe
	ff ff		 mov	 cx, WORD PTR _wS1$187493[ebp]
  0083e	51		 push	 ecx
  0083f	66 8b 95 f4 fe
	ff ff		 mov	 dx, WORD PTR _wL1$187491[ebp]
  00846	52		 push	 edx
  00847	66 8b 85 c4 fe
	ff ff		 mov	 ax, WORD PTR _wH2$187495[ebp]
  0084e	50		 push	 eax
  0084f	ff 15 00 00 00
	00		 call	 DWORD PTR __imp__ColorHLSToRGB@12
  00855	3b f4		 cmp	 esi, esp
  00857	e8 00 00 00 00	 call	 __RTC_CheckEsp
  0085c	8b 8d 44 ff ff
	ff		 mov	 ecx, DWORD PTR _i$187459[ebp]
  00862	8b 55 90	 mov	 edx, DWORD PTR _lptPixels$187436[ebp]
  00865	89 04 8a	 mov	 DWORD PTR [edx+ecx*4], eax
$L187463:

; 318  : 
; 319  : 							//}
; 320  : 							/*	else
; 321  : 							{
; 322  : 							lptPixels[i] = COLORREF2RGB( HLStoRGB(lH,lL,lS2) );
; 323  : 							}*/
; 324  : 						}
; 325  : 					}

  00868	e9 66 fd ff ff	 jmp	 $L187461
$L187462:

; 326  : 					SelectObject(lDirectDC,lSourceObject);

  0086d	8b f4		 mov	 esi, esp
  0086f	8b 45 84	 mov	 eax, DWORD PTR _lSourceObject$187441[ebp]
  00872	50		 push	 eax
  00873	8b 4d ec	 mov	 ecx, DWORD PTR _lDirectDC$187430[ebp]
  00876	51		 push	 ecx
  00877	ff 15 00 00 00
	00		 call	 DWORD PTR __imp__SelectObject@8
  0087d	3b f4		 cmp	 esi, esp
  0087f	e8 00 00 00 00	 call	 __RTC_CheckEsp

; 327  : 					lhNewBmp=lDirectBitmap;

  00884	8b 55 88	 mov	 edx, DWORD PTR _lDirectBitmap$187437[ebp]
  00887	89 55 f8	 mov	 DWORD PTR _lhNewBmp$[ebp], edx
$L187440:

; 328  : 				}
; 329  : 				DeleteDC(lDirectDC);

  0088a	8b f4		 mov	 esi, esp
  0088c	8b 45 ec	 mov	 eax, DWORD PTR _lDirectDC$187430[ebp]
  0088f	50		 push	 eax
  00890	ff 15 00 00 00
	00		 call	 DWORD PTR __imp__DeleteDC@4
  00896	3b f4		 cmp	 esi, esp
  00898	e8 00 00 00 00	 call	 __RTC_CheckEsp
$L187431:

; 330  : 			}			
; 331  : 			SelectObject(lBufferDC,lSourceBufferObject);

  0089d	8b f4		 mov	 esi, esp
  0089f	8b 4d f0	 mov	 ecx, DWORD PTR _lSourceBufferObject$187429[ebp]
  008a2	51		 push	 ecx
  008a3	8b 55 f4	 mov	 edx, DWORD PTR _lBufferDC$187427[ebp]
  008a6	52		 push	 edx
  008a7	ff 15 00 00 00
	00		 call	 DWORD PTR __imp__SelectObject@8
  008ad	3b f4		 cmp	 esi, esp
  008af	e8 00 00 00 00	 call	 __RTC_CheckEsp

; 332  : 			DeleteDC(lBufferDC);

  008b4	8b f4		 mov	 esi, esp
  008b6	8b 45 f4	 mov	 eax, DWORD PTR _lBufferDC$187427[ebp]
  008b9	50		 push	 eax
  008ba	ff 15 00 00 00
	00		 call	 DWORD PTR __imp__DeleteDC@4
  008c0	3b f4		 cmp	 esi, esp
  008c2	e8 00 00 00 00	 call	 __RTC_CheckEsp
$L187426:

; 333  : 		}
; 334  : 	}
; 335  : 	return lhNewBmp;

  008c7	8b 45 f8	 mov	 eax, DWORD PTR _lhNewBmp$[ebp]

; 336  : }

  008ca	52		 push	 edx
  008cb	8b cd		 mov	 ecx, ebp
  008cd	50		 push	 eax
  008ce	8d 15 00 00 00
	00		 lea	 edx, DWORD PTR $L189306
  008d4	e8 00 00 00 00	 call	 @_RTC_CheckStackVars@8
  008d9	58		 pop	 eax
  008da	5a		 pop	 edx
  008db	5f		 pop	 edi
  008dc	5e		 pop	 esi
  008dd	81 c4 60 01 00
	00		 add	 esp, 352		; 00000160H
  008e3	3b ec		 cmp	 ebp, esp
  008e5	e8 00 00 00 00	 call	 __RTC_CheckEsp
  008ea	8b e5		 mov	 esp, ebp
  008ec	5d		 pop	 ebp
  008ed	c2 14 00	 ret	 20			; 00000014H
$L189306:
  008f0	0f 00 00 00	 DD	 15			; 0000000fH
  008f4	00 00 00 00	 DD	 $L189305
$L189305:
  008f8	d0 ff ff ff	 DD	 -48			; ffffffd0H
  008fc	18 00 00 00	 DD	 24			; 00000018H
  00900	00 00 00 00	 DD	 $L189290
  00904	9c ff ff ff	 DD	 -100			; ffffff9cH
  00908	2c 00 00 00	 DD	 44			; 0000002cH
  0090c	00 00 00 00	 DD	 $L189291
  00910	90 ff ff ff	 DD	 -112			; ffffff90H
  00914	04 00 00 00	 DD	 4
  00918	00 00 00 00	 DD	 $L189292
  0091c	6c ff ff ff	 DD	 -148			; ffffff6cH
  00920	08 00 00 00	 DD	 8
  00924	00 00 00 00	 DD	 $L189293
  00928	5c ff ff ff	 DD	 -164			; ffffff5cH
  0092c	08 00 00 00	 DD	 8
  00930	00 00 00 00	 DD	 $L189294
  00934	4c ff ff ff	 DD	 -180			; ffffff4cH
  00938	08 00 00 00	 DD	 8
  0093c	00 00 00 00	 DD	 $L189295
  00940	2c ff ff ff	 DD	 -212			; ffffff2cH
  00944	08 00 00 00	 DD	 8
  00948	00 00 00 00	 DD	 $L189296
  0094c	1c ff ff ff	 DD	 -228			; ffffff1cH
  00950	08 00 00 00	 DD	 8
  00954	00 00 00 00	 DD	 $L189297
  00958	0c ff ff ff	 DD	 -244			; ffffff0cH
  0095c	08 00 00 00	 DD	 8
  00960	00 00 00 00	 DD	 $L189298
  00964	f4 fe ff ff	 DD	 -268			; fffffef4H
  00968	02 00 00 00	 DD	 2
  0096c	00 00 00 00	 DD	 $L189299
  00970	e8 fe ff ff	 DD	 -280			; fffffee8H
  00974	02 00 00 00	 DD	 2
  00978	00 00 00 00	 DD	 $L189300
  0097c	dc fe ff ff	 DD	 -292			; fffffedcH
  00980	02 00 00 00	 DD	 2
  00984	00 00 00 00	 DD	 $L189301
  00988	d0 fe ff ff	 DD	 -304			; fffffed0H
  0098c	02 00 00 00	 DD	 2
  00990	00 00 00 00	 DD	 $L189302
  00994	c4 fe ff ff	 DD	 -316			; fffffec4H
  00998	02 00 00 00	 DD	 2
  0099c	00 00 00 00	 DD	 $L189303
  009a0	b8 fe ff ff	 DD	 -328			; fffffeb8H
  009a4	02 00 00 00	 DD	 2
  009a8	00 00 00 00	 DD	 $L189304
$L189304:
  009ac	77		 DB	 119			; 00000077H
  009ad	53		 DB	 83			; 00000053H
  009ae	32		 DB	 50			; 00000032H
  009af	00		 DB	 0
$L189303:
  009b0	77		 DB	 119			; 00000077H
  009b1	48		 DB	 72			; 00000048H
  009b2	32		 DB	 50			; 00000032H
  009b3	00		 DB	 0
$L189302:
  009b4	77		 DB	 119			; 00000077H
  009b5	4c		 DB	 76			; 0000004cH
  009b6	32		 DB	 50			; 00000032H
  009b7	00		 DB	 0
$L189301:
  009b8	77		 DB	 119			; 00000077H
  009b9	53		 DB	 83			; 00000053H
  009ba	31		 DB	 49			; 00000031H
  009bb	00		 DB	 0
$L189300:
  009bc	77		 DB	 119			; 00000077H
  009bd	48		 DB	 72			; 00000048H
  009be	31		 DB	 49			; 00000031H
  009bf	00		 DB	 0
$L189299:
  009c0	77		 DB	 119			; 00000077H
  009c1	4c		 DB	 76			; 0000004cH
  009c2	31		 DB	 49			; 00000031H
  009c3	00		 DB	 0
$L189298:
  009c4	6c		 DB	 108			; 0000006cH
  009c5	4c		 DB	 76			; 0000004cH
  009c6	00		 DB	 0
$L189297:
  009c7	6c		 DB	 108			; 0000006cH
  009c8	53		 DB	 83			; 00000053H
  009c9	00		 DB	 0
$L189296:
  009ca	6c		 DB	 108			; 0000006cH
  009cb	48		 DB	 72			; 00000048H
  009cc	00		 DB	 0
$L189295:
  009cd	6c		 DB	 108			; 0000006cH
  009ce	4c		 DB	 76			; 0000004cH
  009cf	32		 DB	 50			; 00000032H
  009d0	00		 DB	 0
$L189294:
  009d1	6c		 DB	 108			; 0000006cH
  009d2	53		 DB	 83			; 00000053H
  009d3	32		 DB	 50			; 00000032H
  009d4	00		 DB	 0
$L189293:
  009d5	6c		 DB	 108			; 0000006cH
  009d6	48		 DB	 72			; 00000048H
  009d7	32		 DB	 50			; 00000032H
  009d8	00		 DB	 0
$L189292:
  009d9	6c		 DB	 108			; 0000006cH
  009da	70		 DB	 112			; 00000070H
  009db	74		 DB	 116			; 00000074H
  009dc	50		 DB	 80			; 00000050H
  009dd	69		 DB	 105			; 00000069H
  009de	78		 DB	 120			; 00000078H
  009df	65		 DB	 101			; 00000065H
  009e0	6c		 DB	 108			; 0000006cH
  009e1	73		 DB	 115			; 00000073H
  009e2	00		 DB	 0
$L189291:
  009e3	52		 DB	 82			; 00000052H
  009e4	47		 DB	 71			; 00000047H
  009e5	42		 DB	 66			; 00000042H
  009e6	32		 DB	 50			; 00000032H
  009e7	34		 DB	 52			; 00000034H
  009e8	42		 DB	 66			; 00000042H
  009e9	69		 DB	 105			; 00000069H
  009ea	74		 DB	 116			; 00000074H
  009eb	00		 DB	 0
$L189290:
  009ec	6c		 DB	 108			; 0000006cH
  009ed	62		 DB	 98			; 00000062H
  009ee	4d		 DB	 77			; 0000004dH
  009ef	61		 DB	 97			; 00000061H
  009f0	70		 DB	 112			; 00000070H
  009f1	00		 DB	 0
?ChangeBmpSkin@CBitMapOperate@@QAEPAUHBITMAP__@@AAPAU2@AAIAAK21@Z ENDP ; CBitMapOperate::ChangeBmpSkin
_TEXT	ENDS
PUBLIC	__real@406fe00000000000
PUBLIC	__real@4000000000000000
PUBLIC	__real@0000000000000000
PUBLIC	__real@4010000000000000
;	COMDAT __real@406fe00000000000
CONST	SEGMENT
__real@406fe00000000000 DQ 0406fe00000000000r	; 255
CONST	ENDS
;	COMDAT __real@4000000000000000
CONST	SEGMENT
__real@4000000000000000 DQ 04000000000000000r	; 2
CONST	ENDS
;	COMDAT __real@0000000000000000
CONST	SEGMENT
__real@0000000000000000 DQ 00000000000000000r	; 0
CONST	ENDS
;	COMDAT __real@4010000000000000
CONST	SEGMENT
__real@4010000000000000 DQ 04010000000000000r	; 4
; Function compile flags: /Odt /RTCsu
CONST	ENDS
;	COMDAT ?RGBtoHSL@CBitMapOperate@@QAEXKPAN00@Z
_TEXT	SEGMENT
tv88 = -112						; size = 8
tv89 = -104						; size = 8
tv85 = -96						; size = 8
tv82 = -88						; size = 8
tv83 = -80						; size = 8
tv79 = -72						; size = 8
tv158 = -64						; size = 4
tv156 = -60						; size = 4
tv155 = -56						; size = 4
_cmin$ = -52						; size = 8
_cmax$ = -44						; size = 8
_b$ = -36						; size = 8
_g$ = -28						; size = 8
_r$ = -20						; size = 8
_delta$ = -12						; size = 8
_this$ = -4						; size = 4
_rgb$ = 8						; size = 4
_H$ = 12						; size = 4
_S$ = 16						; size = 4
_L$ = 20						; size = 4
?RGBtoHSL@CBitMapOperate@@QAEXKPAN00@Z PROC NEAR	; CBitMapOperate::RGBtoHSL, COMDAT
; _this$ = ecx

; 73   : {

  00000	55		 push	 ebp
  00001	8b ec		 mov	 ebp, esp
  00003	83 ec 70	 sub	 esp, 112		; 00000070H
  00006	57		 push	 edi
  00007	51		 push	 ecx
  00008	8d 7d 90	 lea	 edi, DWORD PTR [ebp-112]
  0000b	b9 1c 00 00 00	 mov	 ecx, 28			; 0000001cH
  00010	b8 cc cc cc cc	 mov	 eax, -858993460		; ccccccccH
  00015	f3 ab		 rep stosd
  00017	59		 pop	 ecx
  00018	89 4d fc	 mov	 DWORD PTR _this$[ebp], ecx

; 74   : 	double delta;
; 75   : 	double r = (double)GetRValue(rgb)/255;

  0001b	0f b6 45 08	 movzx	 eax, BYTE PTR _rgb$[ebp]
  0001f	89 45 c8	 mov	 DWORD PTR tv155[ebp], eax
  00022	db 45 c8	 fild	 DWORD PTR tv155[ebp]
  00025	dc 35 00 00 00
	00		 fdiv	 QWORD PTR __real@406fe00000000000
  0002b	dd 5d ec	 fstp	 QWORD PTR _r$[ebp]

; 76   : 	double g = (double)GetGValue(rgb)/255;

  0002e	0f b7 4d 08	 movzx	 ecx, WORD PTR _rgb$[ebp]
  00032	c1 f9 08	 sar	 ecx, 8
  00035	0f b6 d1	 movzx	 edx, cl
  00038	89 55 c4	 mov	 DWORD PTR tv156[ebp], edx
  0003b	db 45 c4	 fild	 DWORD PTR tv156[ebp]
  0003e	dc 35 00 00 00
	00		 fdiv	 QWORD PTR __real@406fe00000000000
  00044	dd 5d e4	 fstp	 QWORD PTR _g$[ebp]

; 77   : 	double b = (double)GetBValue(rgb)/255;

  00047	8b 45 08	 mov	 eax, DWORD PTR _rgb$[ebp]
  0004a	c1 e8 10	 shr	 eax, 16			; 00000010H
  0004d	0f b6 c8	 movzx	 ecx, al
  00050	89 4d c0	 mov	 DWORD PTR tv158[ebp], ecx
  00053	db 45 c0	 fild	 DWORD PTR tv158[ebp]
  00056	dc 35 00 00 00
	00		 fdiv	 QWORD PTR __real@406fe00000000000
  0005c	dd 5d dc	 fstp	 QWORD PTR _b$[ebp]

; 78   : 	double cmax = max(r,max(g,b));

  0005f	dd 45 e4	 fld	 QWORD PTR _g$[ebp]
  00062	dc 5d dc	 fcomp	 QWORD PTR _b$[ebp]
  00065	df e0		 fnstsw	 ax
  00067	f6 c4 41	 test	 ah, 65			; 00000041H
  0006a	75 08		 jne	 SHORT $L189309
  0006c	dd 45 e4	 fld	 QWORD PTR _g$[ebp]
  0006f	dd 5d b8	 fstp	 QWORD PTR tv79[ebp]
  00072	eb 06		 jmp	 SHORT $L189310
$L189309:
  00074	dd 45 dc	 fld	 QWORD PTR _b$[ebp]
  00077	dd 5d b8	 fstp	 QWORD PTR tv79[ebp]
$L189310:
  0007a	dd 45 ec	 fld	 QWORD PTR _r$[ebp]
  0007d	dc 5d b8	 fcomp	 QWORD PTR tv79[ebp]
  00080	df e0		 fnstsw	 ax
  00082	f6 c4 41	 test	 ah, 65			; 00000041H
  00085	75 08		 jne	 SHORT $L189313
  00087	dd 45 ec	 fld	 QWORD PTR _r$[ebp]
  0008a	dd 5d b0	 fstp	 QWORD PTR tv83[ebp]
  0008d	eb 21		 jmp	 SHORT $L189314
$L189313:
  0008f	dd 45 e4	 fld	 QWORD PTR _g$[ebp]
  00092	dc 5d dc	 fcomp	 QWORD PTR _b$[ebp]
  00095	df e0		 fnstsw	 ax
  00097	f6 c4 41	 test	 ah, 65			; 00000041H
  0009a	75 08		 jne	 SHORT $L189311
  0009c	dd 45 e4	 fld	 QWORD PTR _g$[ebp]
  0009f	dd 5d a8	 fstp	 QWORD PTR tv82[ebp]
  000a2	eb 06		 jmp	 SHORT $L189312
$L189311:
  000a4	dd 45 dc	 fld	 QWORD PTR _b$[ebp]
  000a7	dd 5d a8	 fstp	 QWORD PTR tv82[ebp]
$L189312:
  000aa	dd 45 a8	 fld	 QWORD PTR tv82[ebp]
  000ad	dd 5d b0	 fstp	 QWORD PTR tv83[ebp]
$L189314:
  000b0	dd 45 b0	 fld	 QWORD PTR tv83[ebp]
  000b3	dd 5d d4	 fstp	 QWORD PTR _cmax$[ebp]

; 79   : 	double cmin = min(r,min(g,b));

  000b6	dd 45 e4	 fld	 QWORD PTR _g$[ebp]
  000b9	dc 5d dc	 fcomp	 QWORD PTR _b$[ebp]
  000bc	df e0		 fnstsw	 ax
  000be	f6 c4 05	 test	 ah, 5
  000c1	7a 08		 jp	 SHORT $L189315
  000c3	dd 45 e4	 fld	 QWORD PTR _g$[ebp]
  000c6	dd 5d a0	 fstp	 QWORD PTR tv85[ebp]
  000c9	eb 06		 jmp	 SHORT $L189316
$L189315:
  000cb	dd 45 dc	 fld	 QWORD PTR _b$[ebp]
  000ce	dd 5d a0	 fstp	 QWORD PTR tv85[ebp]
$L189316:
  000d1	dd 45 ec	 fld	 QWORD PTR _r$[ebp]
  000d4	dc 5d a0	 fcomp	 QWORD PTR tv85[ebp]
  000d7	df e0		 fnstsw	 ax
  000d9	f6 c4 05	 test	 ah, 5
  000dc	7a 08		 jp	 SHORT $L189319
  000de	dd 45 ec	 fld	 QWORD PTR _r$[ebp]
  000e1	dd 5d 98	 fstp	 QWORD PTR tv89[ebp]
  000e4	eb 21		 jmp	 SHORT $L189320
$L189319:
  000e6	dd 45 e4	 fld	 QWORD PTR _g$[ebp]
  000e9	dc 5d dc	 fcomp	 QWORD PTR _b$[ebp]
  000ec	df e0		 fnstsw	 ax
  000ee	f6 c4 05	 test	 ah, 5
  000f1	7a 08		 jp	 SHORT $L189317
  000f3	dd 45 e4	 fld	 QWORD PTR _g$[ebp]
  000f6	dd 5d 90	 fstp	 QWORD PTR tv88[ebp]
  000f9	eb 06		 jmp	 SHORT $L189318
$L189317:
  000fb	dd 45 dc	 fld	 QWORD PTR _b$[ebp]
  000fe	dd 5d 90	 fstp	 QWORD PTR tv88[ebp]
$L189318:
  00101	dd 45 90	 fld	 QWORD PTR tv88[ebp]
  00104	dd 5d 98	 fstp	 QWORD PTR tv89[ebp]
$L189320:
  00107	dd 45 98	 fld	 QWORD PTR tv89[ebp]
  0010a	dd 5d cc	 fstp	 QWORD PTR _cmin$[ebp]

; 80   : 	*L = (cmax+cmin)/2.0;

  0010d	dd 45 d4	 fld	 QWORD PTR _cmax$[ebp]
  00110	dc 45 cc	 fadd	 QWORD PTR _cmin$[ebp]
  00113	dc 35 00 00 00
	00		 fdiv	 QWORD PTR __real@4000000000000000
  00119	8b 55 14	 mov	 edx, DWORD PTR _L$[ebp]
  0011c	dd 1a		 fstp	 QWORD PTR [edx]

; 81   : 	if (cmax == cmin)

  0011e	dd 45 cc	 fld	 QWORD PTR _cmin$[ebp]
  00121	dd 45 d4	 fld	 QWORD PTR _cmax$[ebp]
  00124	da e9		 fucompp
  00126	df e0		 fnstsw	 ax
  00128	f6 c4 44	 test	 ah, 68			; 00000044H
  0012b	7a 1b		 jp	 SHORT $L187277

; 82   : 	{
; 83   : 		*S = 0;

  0012d	8b 45 10	 mov	 eax, DWORD PTR _S$[ebp]
  00130	dd 05 00 00 00
	00		 fld	 QWORD PTR __real@0000000000000000
  00136	dd 18		 fstp	 QWORD PTR [eax]

; 84   : 		*H = 0; // it's really undefined

  00138	8b 4d 0c	 mov	 ecx, DWORD PTR _H$[ebp]
  0013b	dd 05 00 00 00
	00		 fld	 QWORD PTR __real@0000000000000000
  00141	dd 19		 fstp	 QWORD PTR [ecx]

; 85   : 	}
; 86   : 	else

  00143	e9 d3 00 00 00	 jmp	 $L187263
$L187277:

; 87   : 	{
; 88   : 		if (*L < 0.5)

  00148	8b 55 14	 mov	 edx, DWORD PTR _L$[ebp]
  0014b	dd 02		 fld	 QWORD PTR [edx]
  0014d	dc 1d 00 00 00
	00		 fcomp	 QWORD PTR __real@3fe0000000000000
  00153	df e0		 fnstsw	 ax
  00155	f6 c4 05	 test	 ah, 5
  00158	7a 15		 jp	 SHORT $L187279

; 89   : 			*S = (cmax-cmin)/(cmax+cmin);

  0015a	dd 45 d4	 fld	 QWORD PTR _cmax$[ebp]
  0015d	dc 65 cc	 fsub	 QWORD PTR _cmin$[ebp]
  00160	dd 45 d4	 fld	 QWORD PTR _cmax$[ebp]
  00163	dc 45 cc	 fadd	 QWORD PTR _cmin$[ebp]
  00166	de f9		 fdivp	 ST(1), ST(0)
  00168	8b 45 10	 mov	 eax, DWORD PTR _S$[ebp]
  0016b	dd 18		 fstp	 QWORD PTR [eax]

; 90   : 		else

  0016d	eb 19		 jmp	 SHORT $L187280
$L187279:

; 91   : 			*S = (cmax-cmin)/(2.0-cmax-cmin);

  0016f	dd 45 d4	 fld	 QWORD PTR _cmax$[ebp]
  00172	dc 65 cc	 fsub	 QWORD PTR _cmin$[ebp]
  00175	dd 05 00 00 00
	00		 fld	 QWORD PTR __real@4000000000000000
  0017b	dc 65 d4	 fsub	 QWORD PTR _cmax$[ebp]
  0017e	dc 65 cc	 fsub	 QWORD PTR _cmin$[ebp]
  00181	de f9		 fdivp	 ST(1), ST(0)
  00183	8b 4d 10	 mov	 ecx, DWORD PTR _S$[ebp]
  00186	dd 19		 fstp	 QWORD PTR [ecx]
$L187280:

; 92   : 		delta = cmax - cmin;

  00188	dd 45 d4	 fld	 QWORD PTR _cmax$[ebp]
  0018b	dc 65 cc	 fsub	 QWORD PTR _cmin$[ebp]
  0018e	dd 5d f4	 fstp	 QWORD PTR _delta$[ebp]

; 93   : 		if (r==cmax)

  00191	dd 45 d4	 fld	 QWORD PTR _cmax$[ebp]
  00194	dd 45 ec	 fld	 QWORD PTR _r$[ebp]
  00197	da e9		 fucompp
  00199	df e0		 fnstsw	 ax
  0019b	f6 c4 44	 test	 ah, 68			; 00000044H
  0019e	7a 10		 jp	 SHORT $L187281

; 94   : 			*H = (g-b)/delta;

  001a0	dd 45 e4	 fld	 QWORD PTR _g$[ebp]
  001a3	dc 65 dc	 fsub	 QWORD PTR _b$[ebp]
  001a6	dc 75 f4	 fdiv	 QWORD PTR _delta$[ebp]
  001a9	8b 55 0c	 mov	 edx, DWORD PTR _H$[ebp]
  001ac	dd 1a		 fstp	 QWORD PTR [edx]

; 95   : 		else if (g==cmax)

  001ae	eb 39		 jmp	 SHORT $L187282
$L187281:
  001b0	dd 45 d4	 fld	 QWORD PTR _cmax$[ebp]
  001b3	dd 45 e4	 fld	 QWORD PTR _g$[ebp]
  001b6	da e9		 fucompp
  001b8	df e0		 fnstsw	 ax
  001ba	f6 c4 44	 test	 ah, 68			; 00000044H
  001bd	7a 16		 jp	 SHORT $L187283

; 96   : 			*H = 2.0 +(b-r)/delta;

  001bf	dd 45 dc	 fld	 QWORD PTR _b$[ebp]
  001c2	dc 65 ec	 fsub	 QWORD PTR _r$[ebp]
  001c5	dc 75 f4	 fdiv	 QWORD PTR _delta$[ebp]
  001c8	dc 05 00 00 00
	00		 fadd	 QWORD PTR __real@4000000000000000
  001ce	8b 45 0c	 mov	 eax, DWORD PTR _H$[ebp]
  001d1	dd 18		 fstp	 QWORD PTR [eax]

; 97   : 		else

  001d3	eb 14		 jmp	 SHORT $L187282
$L187283:

; 98   : 			*H = 4.0+(r-g)/delta;

  001d5	dd 45 ec	 fld	 QWORD PTR _r$[ebp]
  001d8	dc 65 e4	 fsub	 QWORD PTR _g$[ebp]
  001db	dc 75 f4	 fdiv	 QWORD PTR _delta$[ebp]
  001de	dc 05 00 00 00
	00		 fadd	 QWORD PTR __real@4010000000000000
  001e4	8b 4d 0c	 mov	 ecx, DWORD PTR _H$[ebp]
  001e7	dd 19		 fstp	 QWORD PTR [ecx]
$L187282:

; 99   : 		*H /= 6.0;

  001e9	8b 55 0c	 mov	 edx, DWORD PTR _H$[ebp]
  001ec	dd 02		 fld	 QWORD PTR [edx]
  001ee	dc 35 00 00 00
	00		 fdiv	 QWORD PTR __real@4018000000000000
  001f4	8b 45 0c	 mov	 eax, DWORD PTR _H$[ebp]
  001f7	dd 18		 fstp	 QWORD PTR [eax]

; 100  : 		if (*H < 0.0)

  001f9	8b 4d 0c	 mov	 ecx, DWORD PTR _H$[ebp]
  001fc	dd 01		 fld	 QWORD PTR [ecx]
  001fe	dc 1d 00 00 00
	00		 fcomp	 QWORD PTR __real@0000000000000000
  00204	df e0		 fnstsw	 ax
  00206	f6 c4 05	 test	 ah, 5
  00209	7a 10		 jp	 SHORT $L187263

; 101  : 			*H += 1;

  0020b	8b 55 0c	 mov	 edx, DWORD PTR _H$[ebp]
  0020e	dd 02		 fld	 QWORD PTR [edx]
  00210	dc 05 00 00 00
	00		 fadd	 QWORD PTR __real@3ff0000000000000
  00216	8b 45 0c	 mov	 eax, DWORD PTR _H$[ebp]
  00219	dd 18		 fstp	 QWORD PTR [eax]
$L187263:

; 102  : 	}
; 103  : }

  0021b	5f		 pop	 edi
  0021c	8b e5		 mov	 esp, ebp
  0021e	5d		 pop	 ebp
  0021f	c2 10 00	 ret	 16			; 00000010H
?RGBtoHSL@CBitMapOperate@@QAEXKPAN00@Z ENDP		; CBitMapOperate::RGBtoHSL
_TEXT	ENDS
PUBLIC	?HLStoRGB@CBitMapOperate@@QAEXABM00PAE11@Z	; CBitMapOperate::HLStoRGB
; Function compile flags: /Odt /RTCsu
;	COMDAT ?HLStoRGB@CBitMapOperate@@QAEKABN00@Z
_TEXT	SEGMENT
tv232 = -128						; size = 4
tv230 = -124						; size = 4
tv228 = -120						; size = 4
tv221 = -116						; size = 4
tv219 = -112						; size = 4
tv217 = -108						; size = 4
tv210 = -104						; size = 4
tv208 = -100						; size = 4
tv206 = -96						; size = 4
$T189332 = -92						; size = 4
$T189331 = -88						; size = 4
$T189330 = -84						; size = 4
_R$ = -33						; size = 1
_G$ = -21						; size = 1
_B$ = -9						; size = 1
_this$ = -4						; size = 4
_H$ = 8							; size = 4
_L$ = 12						; size = 4
_S$ = 16						; size = 4
?HLStoRGB@CBitMapOperate@@QAEKABN00@Z PROC NEAR		; CBitMapOperate::HLStoRGB, COMDAT
; _this$ = ecx

; 129  : {

  00000	55		 push	 ebp
  00001	8b ec		 mov	 ebp, esp
  00003	81 ec 80 00 00
	00		 sub	 esp, 128		; 00000080H
  00009	56		 push	 esi
  0000a	57		 push	 edi
  0000b	51		 push	 ecx
  0000c	8d 7d 80	 lea	 edi, DWORD PTR [ebp-128]
  0000f	b9 20 00 00 00	 mov	 ecx, 32			; 00000020H
  00014	b8 cc cc cc cc	 mov	 eax, -858993460		; ccccccccH
  00019	f3 ab		 rep stosd
  0001b	59		 pop	 ecx
  0001c	89 4d fc	 mov	 DWORD PTR _this$[ebp], ecx

; 130  : 	unsigned char B, G, R;
; 131  : 	HLStoRGB(H,L,S, &R,&G,&B);

  0001f	8b 45 10	 mov	 eax, DWORD PTR _S$[ebp]
  00022	dd 00		 fld	 QWORD PTR [eax]
  00024	d9 5d ac	 fstp	 DWORD PTR $T189330[ebp]
  00027	8b 4d 0c	 mov	 ecx, DWORD PTR _L$[ebp]
  0002a	dd 01		 fld	 QWORD PTR [ecx]
  0002c	d9 5d a8	 fstp	 DWORD PTR $T189331[ebp]
  0002f	8b 55 08	 mov	 edx, DWORD PTR _H$[ebp]
  00032	dd 02		 fld	 QWORD PTR [edx]
  00034	d9 5d a4	 fstp	 DWORD PTR $T189332[ebp]
  00037	8d 45 f7	 lea	 eax, DWORD PTR _B$[ebp]
  0003a	50		 push	 eax
  0003b	8d 4d eb	 lea	 ecx, DWORD PTR _G$[ebp]
  0003e	51		 push	 ecx
  0003f	8d 55 df	 lea	 edx, DWORD PTR _R$[ebp]
  00042	52		 push	 edx
  00043	8d 45 ac	 lea	 eax, DWORD PTR $T189330[ebp]
  00046	50		 push	 eax
  00047	8d 4d a8	 lea	 ecx, DWORD PTR $T189331[ebp]
  0004a	51		 push	 ecx
  0004b	8d 55 a4	 lea	 edx, DWORD PTR $T189332[ebp]
  0004e	52		 push	 edx
  0004f	8b 4d fc	 mov	 ecx, DWORD PTR _this$[ebp]
  00052	e8 00 00 00 00	 call	 ?HLStoRGB@CBitMapOperate@@QAEXABM00PAE11@Z ; CBitMapOperate::HLStoRGB

; 132  : 
; 133  : 	return RGB(R,G,B);

  00057	0f b6 45 df	 movzx	 eax, BYTE PTR _R$[ebp]
  0005b	0f b6 4d eb	 movzx	 ecx, BYTE PTR _G$[ebp]
  0005f	c1 e1 08	 shl	 ecx, 8
  00062	0b c1		 or	 eax, ecx
  00064	0f b6 55 f7	 movzx	 edx, BYTE PTR _B$[ebp]
  00068	c1 e2 10	 shl	 edx, 16			; 00000010H
  0006b	0b c2		 or	 eax, edx

; 134  : 	double r,g,b;
; 135  : 	double m1, m2;
; 136  : 
; 137  : 	if (S==0)
; 138  : 	{
; 139  : 		r=g=b=L;
; 140  : 	}
; 141  : 	else
; 142  : 	{
; 143  : 		if (L <= 0.5)
; 144  : 			m2 = L*(1.0+S);
; 145  : 		else
; 146  : 			m2 = L+S-L*S;
; 147  : 		m1 = 2.0*L-m2;
; 148  : 		r = HuetoRGB(m1, m2, H+1.0/3.0);
; 149  : 		g = HuetoRGB(m1, m2, H);
; 150  : 		b = HuetoRGB(m1, m2, H-1.0/3.0);
; 151  : 	}
; 152  : 	return RGB((BYTE)(r*255),(BYTE)(g*255),(BYTE)(b*255));
; 153  : }

  0006d	52		 push	 edx
  0006e	8b cd		 mov	 ecx, ebp
  00070	50		 push	 eax
  00071	8d 15 00 00 00
	00		 lea	 edx, DWORD PTR $L189339
  00077	e8 00 00 00 00	 call	 @_RTC_CheckStackVars@8
  0007c	58		 pop	 eax
  0007d	5a		 pop	 edx
  0007e	5f		 pop	 edi
  0007f	5e		 pop	 esi
  00080	81 c4 80 00 00
	00		 add	 esp, 128		; 00000080H
  00086	3b ec		 cmp	 ebp, esp
  00088	e8 00 00 00 00	 call	 __RTC_CheckEsp
  0008d	8b e5		 mov	 esp, ebp
  0008f	5d		 pop	 ebp
  00090	c2 0c 00	 ret	 12			; 0000000cH
$L189339:
  00093	03 00 00 00	 DD	 3
  00097	00 00 00 00	 DD	 $L189338
$L189338:
  0009b	f7 ff ff ff	 DD	 -9			; fffffff7H
  0009f	01 00 00 00	 DD	 1
  000a3	00 00 00 00	 DD	 $L189335
  000a7	eb ff ff ff	 DD	 -21			; ffffffebH
  000ab	01 00 00 00	 DD	 1
  000af	00 00 00 00	 DD	 $L189336
  000b3	df ff ff ff	 DD	 -33			; ffffffdfH
  000b7	01 00 00 00	 DD	 1
  000bb	00 00 00 00	 DD	 $L189337
$L189337:
  000bf	52		 DB	 82			; 00000052H
  000c0	00		 DB	 0
$L189336:
  000c1	47		 DB	 71			; 00000047H
  000c2	00		 DB	 0
$L189335:
  000c3	42		 DB	 66			; 00000042H
  000c4	00		 DB	 0
?HLStoRGB@CBitMapOperate@@QAEKABN00@Z ENDP		; CBitMapOperate::HLStoRGB
_TEXT	ENDS
PUBLIC	__real@3f2aaaab
;	COMDAT __real@3f2aaaab
CONST	SEGMENT
__real@3f2aaaab DD 03f2aaaabr			; 0.666667
; Function compile flags: /Odt /RTCsu
CONST	ENDS
;	COMDAT ?HLStoRGB@CBitMapOperate@@QAEXABM00PAE11@Z
_TEXT	SEGMENT
_m2$ = -24						; size = 4
_m1$ = -20						; size = 4
_b$ = -16						; size = 4
_g$ = -12						; size = 4
_r$ = -8						; size = 4
_this$ = -4						; size = 4
_H$ = 8							; size = 4
_L$ = 12						; size = 4
_S$ = 16						; size = 4
_B$ = 20						; size = 4
_G$ = 24						; size = 4
_R$ = 28						; size = 4
?HLStoRGB@CBitMapOperate@@QAEXABM00PAE11@Z PROC NEAR	; CBitMapOperate::HLStoRGB, COMDAT
; _this$ = ecx

; 105  : {

  00000	55		 push	 ebp
  00001	8b ec		 mov	 ebp, esp
  00003	83 ec 18	 sub	 esp, 24			; 00000018H
  00006	b8 cc cc cc cc	 mov	 eax, -858993460		; ccccccccH
  0000b	89 45 e8	 mov	 DWORD PTR [ebp-24], eax
  0000e	89 45 ec	 mov	 DWORD PTR [ebp-20], eax
  00011	89 45 f0	 mov	 DWORD PTR [ebp-16], eax
  00014	89 45 f4	 mov	 DWORD PTR [ebp-12], eax
  00017	89 45 f8	 mov	 DWORD PTR [ebp-8], eax
  0001a	89 45 fc	 mov	 DWORD PTR [ebp-4], eax
  0001d	89 4d fc	 mov	 DWORD PTR _this$[ebp], ecx

; 106  : 	float r,g,b;
; 107  : 	float m1, m2;
; 108  : 
; 109  : 	if (S==0)

  00020	8b 45 10	 mov	 eax, DWORD PTR _S$[ebp]
  00023	d9 05 00 00 00
	00		 fld	 DWORD PTR __real@00000000
  00029	d9 00		 fld	 DWORD PTR [eax]
  0002b	da e9		 fucompp
  0002d	df e0		 fnstsw	 ax
  0002f	f6 c4 44	 test	 ah, 68			; 00000044H
  00032	7a 40		 jp	 SHORT $L187300

; 110  : 	{
; 111  : 		r=g=b=L;

  00034	8b 4d 0c	 mov	 ecx, DWORD PTR _L$[ebp]
  00037	8b 11		 mov	 edx, DWORD PTR [ecx]
  00039	89 55 f0	 mov	 DWORD PTR _b$[ebp], edx
  0003c	8b 45 f0	 mov	 eax, DWORD PTR _b$[ebp]
  0003f	89 45 f4	 mov	 DWORD PTR _g$[ebp], eax
  00042	8b 4d f4	 mov	 ecx, DWORD PTR _g$[ebp]
  00045	89 4d f8	 mov	 DWORD PTR _r$[ebp], ecx

; 112  : 		*R = 255.0 * r;

  00048	d9 45 f8	 fld	 DWORD PTR _r$[ebp]
  0004b	dc 0d 00 00 00
	00		 fmul	 QWORD PTR __real@406fe00000000000
  00051	e8 00 00 00 00	 call	 __ftol2
  00056	8b 55 1c	 mov	 edx, DWORD PTR _R$[ebp]
  00059	88 02		 mov	 BYTE PTR [edx], al

; 113  : 		*G = *B = *R;

  0005b	8b 45 14	 mov	 eax, DWORD PTR _B$[ebp]
  0005e	8b 4d 1c	 mov	 ecx, DWORD PTR _R$[ebp]
  00061	8a 11		 mov	 dl, BYTE PTR [ecx]
  00063	88 10		 mov	 BYTE PTR [eax], dl
  00065	8b 45 18	 mov	 eax, DWORD PTR _G$[ebp]
  00068	8b 4d 14	 mov	 ecx, DWORD PTR _B$[ebp]
  0006b	8a 11		 mov	 dl, BYTE PTR [ecx]
  0006d	88 10		 mov	 BYTE PTR [eax], dl

; 114  : 	}
; 115  : 	else

  0006f	e9 d5 00 00 00	 jmp	 $L187294
$L187300:

; 116  : 	{
; 117  : 		if (L <= 0.5)

  00074	8b 45 0c	 mov	 eax, DWORD PTR _L$[ebp]
  00077	d9 00		 fld	 DWORD PTR [eax]
  00079	dc 1d 00 00 00
	00		 fcomp	 QWORD PTR __real@3fe0000000000000
  0007f	df e0		 fnstsw	 ax
  00081	f6 c4 41	 test	 ah, 65			; 00000041H
  00084	7a 15		 jp	 SHORT $L187302

; 118  : 			m2 = L*((float)1.0+S);

  00086	8b 4d 10	 mov	 ecx, DWORD PTR _S$[ebp]
  00089	d9 05 00 00 00
	00		 fld	 DWORD PTR __real@3f800000
  0008f	d8 01		 fadd	 DWORD PTR [ecx]
  00091	8b 55 0c	 mov	 edx, DWORD PTR _L$[ebp]
  00094	d8 0a		 fmul	 DWORD PTR [edx]
  00096	d9 5d e8	 fstp	 DWORD PTR _m2$[ebp]

; 119  : 		else

  00099	eb 19		 jmp	 SHORT $L187304
$L187302:

; 120  : 			m2 = L+S-L*S;

  0009b	8b 45 0c	 mov	 eax, DWORD PTR _L$[ebp]
  0009e	8b 4d 10	 mov	 ecx, DWORD PTR _S$[ebp]
  000a1	d9 00		 fld	 DWORD PTR [eax]
  000a3	d8 01		 fadd	 DWORD PTR [ecx]
  000a5	8b 55 0c	 mov	 edx, DWORD PTR _L$[ebp]
  000a8	8b 45 10	 mov	 eax, DWORD PTR _S$[ebp]
  000ab	d9 02		 fld	 DWORD PTR [edx]
  000ad	d8 08		 fmul	 DWORD PTR [eax]
  000af	de e9		 fsubp	 ST(1), ST(0)
  000b1	d9 5d e8	 fstp	 DWORD PTR _m2$[ebp]
$L187304:

; 121  : 		m1 = (float)2.0*L-m2;

  000b4	8b 4d 0c	 mov	 ecx, DWORD PTR _L$[ebp]
  000b7	d9 05 00 00 00
	00		 fld	 DWORD PTR __real@40000000
  000bd	d8 09		 fmul	 DWORD PTR [ecx]
  000bf	d8 65 e8	 fsub	 DWORD PTR _m2$[ebp]
  000c2	d9 5d ec	 fstp	 DWORD PTR _m1$[ebp]

; 122  : 		*R = (unsigned char) (HuetoRGB(m1, m2, H+(float)0.66666667) * (float)255.0);

  000c5	8b 55 08	 mov	 edx, DWORD PTR _H$[ebp]
  000c8	d9 02		 fld	 DWORD PTR [edx]
  000ca	d8 05 00 00 00
	00		 fadd	 DWORD PTR __real@3f2aaaab
  000d0	51		 push	 ecx
  000d1	d9 1c 24	 fstp	 DWORD PTR [esp]
  000d4	8b 45 e8	 mov	 eax, DWORD PTR _m2$[ebp]
  000d7	50		 push	 eax
  000d8	8b 4d ec	 mov	 ecx, DWORD PTR _m1$[ebp]
  000db	51		 push	 ecx
  000dc	8b 4d fc	 mov	 ecx, DWORD PTR _this$[ebp]
  000df	e8 00 00 00 00	 call	 ?HuetoRGB@CBitMapOperate@@QAEMMMM@Z ; CBitMapOperate::HuetoRGB
  000e4	d8 0d 00 00 00
	00		 fmul	 DWORD PTR __real@437f0000
  000ea	e8 00 00 00 00	 call	 __ftol2
  000ef	8b 55 1c	 mov	 edx, DWORD PTR _R$[ebp]
  000f2	88 02		 mov	 BYTE PTR [edx], al

; 123  : 		*G = (unsigned char) (HuetoRGB(m1, m2, H) * (float)255.0);

  000f4	8b 45 08	 mov	 eax, DWORD PTR _H$[ebp]
  000f7	8b 08		 mov	 ecx, DWORD PTR [eax]
  000f9	51		 push	 ecx
  000fa	8b 55 e8	 mov	 edx, DWORD PTR _m2$[ebp]
  000fd	52		 push	 edx
  000fe	8b 45 ec	 mov	 eax, DWORD PTR _m1$[ebp]
  00101	50		 push	 eax
  00102	8b 4d fc	 mov	 ecx, DWORD PTR _this$[ebp]
  00105	e8 00 00 00 00	 call	 ?HuetoRGB@CBitMapOperate@@QAEMMMM@Z ; CBitMapOperate::HuetoRGB
  0010a	d8 0d 00 00 00
	00		 fmul	 DWORD PTR __real@437f0000
  00110	e8 00 00 00 00	 call	 __ftol2
  00115	8b 4d 18	 mov	 ecx, DWORD PTR _G$[ebp]
  00118	88 01		 mov	 BYTE PTR [ecx], al

; 124  : 		*B = (unsigned char )(HuetoRGB(m1, m2, H-(float)0.66666667) * (float)255.0);

  0011a	8b 55 08	 mov	 edx, DWORD PTR _H$[ebp]
  0011d	d9 02		 fld	 DWORD PTR [edx]
  0011f	d8 25 00 00 00
	00		 fsub	 DWORD PTR __real@3f2aaaab
  00125	51		 push	 ecx
  00126	d9 1c 24	 fstp	 DWORD PTR [esp]
  00129	8b 45 e8	 mov	 eax, DWORD PTR _m2$[ebp]
  0012c	50		 push	 eax
  0012d	8b 4d ec	 mov	 ecx, DWORD PTR _m1$[ebp]
  00130	51		 push	 ecx
  00131	8b 4d fc	 mov	 ecx, DWORD PTR _this$[ebp]
  00134	e8 00 00 00 00	 call	 ?HuetoRGB@CBitMapOperate@@QAEMMMM@Z ; CBitMapOperate::HuetoRGB
  00139	d8 0d 00 00 00
	00		 fmul	 DWORD PTR __real@437f0000
  0013f	e8 00 00 00 00	 call	 __ftol2
  00144	8b 55 14	 mov	 edx, DWORD PTR _B$[ebp]
  00147	88 02		 mov	 BYTE PTR [edx], al
$L187294:

; 125  : 	}
; 126  : }

  00149	83 c4 18	 add	 esp, 24			; 00000018H
  0014c	3b ec		 cmp	 ebp, esp
  0014e	e8 00 00 00 00	 call	 __RTC_CheckEsp
  00153	8b e5		 mov	 esp, ebp
  00155	5d		 pop	 ebp
  00156	c2 18 00	 ret	 24			; 00000018H
?HLStoRGB@CBitMapOperate@@QAEXABM00PAE11@Z ENDP		; CBitMapOperate::HLStoRGB
_TEXT	ENDS
PUBLIC	?RGBtoHSL@CBitMapOperate@@QAEXMMMPAM00@Z	; CBitMapOperate::RGBtoHSL
PUBLIC	?ChangeBmpSkin@CBitMapOperate@@QAEPAVDIBINFO@@AAV2@AAIAAK21@Z ; CBitMapOperate::ChangeBmpSkin
PUBLIC	??0iterator@?$_Tree@V?$_Tmap_traits@KKU?$less@K@std@@V?$allocator@U?$pair@$$CBKK@std@@@2@$0A@@std@@@std@@QAE@XZ ; std::_Tree<std::_Tmap_traits<unsigned long,unsigned long,std::less<unsigned long>,std::allocator<std::pair<unsigned long const ,unsigned long> >,0> >::iterator::iterator
PUBLIC	__real@4014000000000000
EXTRN	?ReportError@CException@@UAEHII@Z:NEAR		; CException::ReportError
EXTRN	??0CMemoryException@@QAE@XZ:NEAR		; CMemoryException::CMemoryException
EXTRN	??1CMemoryException@@UAE@XZ:NEAR		; CMemoryException::~CMemoryException
EXTRN	__except_list:DWORD
EXTRN	___security_cookie:DWORD
EXTRN	@__security_check_cookie@4:NEAR
EXTRN	___CxxFrameHandler:NEAR
;	COMDAT ?count@?9??ChangeBmpSkin@CBitMapOperate@@QAEPAVDIBINFO@@AAV3@AAIAAK21@Z@4HA
_BSS	SEGMENT
?count@?9??ChangeBmpSkin@CBitMapOperate@@QAEPAVDIBINFO@@AAV3@AAIAAK21@Z@4HA DD 01H DUP (?) ; `CBitMapOperate::ChangeBmpSkin'::`10'::count
_BSS	ENDS
;	COMDAT ?count1@?9??ChangeBmpSkin@CBitMapOperate@@QAEPAVDIBINFO@@AAV3@AAIAAK21@Z@4HA
_BSS	SEGMENT
?count1@?9??ChangeBmpSkin@CBitMapOperate@@QAEPAVDIBINFO@@AAV3@AAIAAK21@Z@4HA DD 01H DUP (?) ; `CBitMapOperate::ChangeBmpSkin'::`10'::count1
_BSS	ENDS
xdata$x	SEGMENT
$T189371 DD	0ffffffffH
	DD	00H
	DD	0ffffffffH
	DD	00H
	DD	01H
	DD	FLAT:$L189349
$T189373 DD	00H
	DD	00H
	DD	00H
	DD	FLAT:$L189348
$T189372 DD	00H
	DD	00H
	DD	02H
	DD	01H
	DD	FLAT:$T189373
$T189353 DD	019930520H
	DD	03H
	DD	FLAT:$T189371
	DD	01H
	DD	FLAT:$T189372
	DD	2 DUP(00H)
xdata$x	ENDS
;	COMDAT __real@4014000000000000
CONST	SEGMENT
__real@4014000000000000 DQ 04014000000000000r	; 5
; Function compile flags: /Odt /RTCsu
CONST	ENDS
_TEXT	SEGMENT
tv394 = -376						; size = 4
tv391 = -372						; size = 4
tv388 = -368						; size = 4
tv354 = -364						; size = 8
tv142 = -356						; size = 4
_lmemexcept$188208 = -348				; size = 160
_lWidthIndex$188195 = -184				; size = 4
_lHightIndex$188191 = -180				; size = 4
_it$188190 = -172					; size = 4
_lL$187560 = -160					; size = 4
_lS$187559 = -148					; size = 4
_lH$187558 = -136					; size = 4
_lLastAdjust$187556 = -128				; size = 4
_lAdjust1$187554 = -124					; size = 4
_lRowStart$187553 = -120				; size = 4
_lRowWidth$187552 = -116				; size = 4
_lpBitTable$ = -112					; size = 4
_lnFillBit$ = -108					; size = 4
_lL2$ = -100						; size = 8
_lS2$ = -84						; size = 8
_lH2$ = -68						; size = 8
_lMB$ = -56						; size = 4
_lMG$ = -52						; size = 4
_lMR$ = -48						; size = 4
_lB2$ = -44						; size = 4
_lG2$ = -40						; size = 4
_lR2$ = -36						; size = 4
_bJustLight$ = -32					; size = 4
_bJustBaseColor$ = -28					; size = 4
_this$ = -24						; size = 4
__$ArrayPad$ = -20					; size = 4
__$EHRec$ = -16						; size = 16
__$ReturnAddr$ = 4					; size = 4
_ahSourceDib$ = 8					; size = 4
_aColorGroup$ = 12					; size = 4
_aBaseColor$ = 16					; size = 4
_aMaskColor$ = 20					; size = 4
_aiLightPos$ = 24					; size = 4
?ChangeBmpSkin@CBitMapOperate@@QAEPAVDIBINFO@@AAV2@AAIAAK21@Z PROC NEAR ; CBitMapOperate::ChangeBmpSkin
; _this$ = ecx

; 355  : {

  00a00	55		 push	 ebp
  00a01	8b ec		 mov	 ebp, esp
  00a03	6a ff		 push	 -1
  00a05	68 00 00 00 00	 push	 __ehhandler$?ChangeBmpSkin@CBitMapOperate@@QAEPAVDIBINFO@@AAV2@AAIAAK21@Z
  00a0a	64 a1 00 00 00
	00		 mov	 eax, DWORD PTR fs:__except_list
  00a10	50		 push	 eax
  00a11	64 89 25 00 00
	00 00		 mov	 DWORD PTR fs:__except_list, esp
  00a18	51		 push	 ecx
  00a19	81 ec 68 01 00
	00		 sub	 esp, 360		; 00000168H
  00a1f	53		 push	 ebx
  00a20	56		 push	 esi
  00a21	57		 push	 edi
  00a22	51		 push	 ecx
  00a23	8d bd 88 fe ff
	ff		 lea	 edi, DWORD PTR [ebp-376]
  00a29	b9 5a 00 00 00	 mov	 ecx, 90			; 0000005aH
  00a2e	b8 cc cc cc cc	 mov	 eax, -858993460		; ccccccccH
  00a33	f3 ab		 rep stosd
  00a35	59		 pop	 ecx
  00a36	a1 00 00 00 00	 mov	 eax, DWORD PTR ___security_cookie
  00a3b	89 45 ec	 mov	 DWORD PTR __$ArrayPad$[ebp], eax
  00a3e	89 65 f0	 mov	 DWORD PTR __$EHRec$[ebp], esp
  00a41	89 4d e8	 mov	 DWORD PTR _this$[ebp], ecx

; 356  : 	if( (0==ahSourceDib.m_hight) || (0 == ahSourceDib.m_width) ) return &ahSourceDib;

  00a44	8b 45 08	 mov	 eax, DWORD PTR _ahSourceDib$[ebp]
  00a47	83 78 0c 00	 cmp	 DWORD PTR [eax+12], 0
  00a4b	74 09		 je	 SHORT $L187515
  00a4d	8b 4d 08	 mov	 ecx, DWORD PTR _ahSourceDib$[ebp]
  00a50	83 79 08 00	 cmp	 DWORD PTR [ecx+8], 0
  00a54	75 08		 jne	 SHORT $L187514
$L187515:
  00a56	8b 45 08	 mov	 eax, DWORD PTR _ahSourceDib$[ebp]
  00a59	e9 e8 04 00 00	 jmp	 $L187513
$L187514:

; 357  : 
; 358  : 	if(aBaseColor == 0)

  00a5e	8b 55 10	 mov	 edx, DWORD PTR _aBaseColor$[ebp]
  00a61	83 3a 00	 cmp	 DWORD PTR [edx], 0
  00a64	75 08		 jne	 SHORT $L187516

; 359  : 		return &ahSourceDib;

  00a66	8b 45 08	 mov	 eax, DWORD PTR _ahSourceDib$[ebp]
  00a69	e9 d8 04 00 00	 jmp	 $L187513
$L187516:

; 360  : 
; 361  : 	BOOL bJustBaseColor = false;

  00a6e	c7 45 e4 00 00
	00 00		 mov	 DWORD PTR _bJustBaseColor$[ebp], 0

; 362  : 	BOOL bJustLight = false;

  00a75	c7 45 e0 00 00
	00 00		 mov	 DWORD PTR _bJustLight$[ebp], 0

; 363  : 
; 364  : 	if(aiLightPos == m_nLastLightPos)

  00a7c	8b 45 18	 mov	 eax, DWORD PTR _aiLightPos$[ebp]
  00a7f	8b 4d e8	 mov	 ecx, DWORD PTR _this$[ebp]
  00a82	8b 10		 mov	 edx, DWORD PTR [eax]
  00a84	3b 51 18	 cmp	 edx, DWORD PTR [ecx+24]
  00a87	75 07		 jne	 SHORT $L187519

; 365  : 		bJustBaseColor = true;

  00a89	c7 45 e4 01 00
	00 00		 mov	 DWORD PTR _bJustBaseColor$[ebp], 1
$L187519:

; 366  : 
; 367  : 	if( 24 != ahSourceDib.m_biBitCount ) return &ahSourceDib;

  00a90	8b 45 08	 mov	 eax, DWORD PTR _ahSourceDib$[ebp]
  00a93	0f b7 48 10	 movzx	 ecx, WORD PTR [eax+16]
  00a97	83 f9 18	 cmp	 ecx, 24			; 00000018H
  00a9a	74 08		 je	 SHORT $L187520
  00a9c	8b 45 08	 mov	 eax, DWORD PTR _ahSourceDib$[ebp]
  00a9f	e9 a2 04 00 00	 jmp	 $L187513
$L187520:

; 368  : 	int lR2,lG2,lB2;
; 369  : 	int lMR, lMG, lMB;
; 370  : 	double lH2,lS2,lL2;
; 371  : 	lR2 = GetRValue(aBaseColor);

  00aa4	8b 55 10	 mov	 edx, DWORD PTR _aBaseColor$[ebp]
  00aa7	0f b6 02	 movzx	 eax, BYTE PTR [edx]
  00aaa	89 45 dc	 mov	 DWORD PTR _lR2$[ebp], eax

; 372  : 	lG2 = GetGValue(aBaseColor);

  00aad	8b 4d 10	 mov	 ecx, DWORD PTR _aBaseColor$[ebp]
  00ab0	0f b7 11	 movzx	 edx, WORD PTR [ecx]
  00ab3	c1 fa 08	 sar	 edx, 8
  00ab6	0f b6 c2	 movzx	 eax, dl
  00ab9	89 45 d8	 mov	 DWORD PTR _lG2$[ebp], eax

; 373  : 	lB2 = GetBValue(aBaseColor);

  00abc	8b 4d 10	 mov	 ecx, DWORD PTR _aBaseColor$[ebp]
  00abf	8b 11		 mov	 edx, DWORD PTR [ecx]
  00ac1	c1 ea 10	 shr	 edx, 16			; 00000010H
  00ac4	0f b6 c2	 movzx	 eax, dl
  00ac7	89 45 d4	 mov	 DWORD PTR _lB2$[ebp], eax

; 374  : 
; 375  : 	lMR = GetRValue(aMaskColor);

  00aca	8b 4d 14	 mov	 ecx, DWORD PTR _aMaskColor$[ebp]
  00acd	0f b6 11	 movzx	 edx, BYTE PTR [ecx]
  00ad0	89 55 d0	 mov	 DWORD PTR _lMR$[ebp], edx

; 376  : 	lMG = GetGValue(aMaskColor);

  00ad3	8b 45 14	 mov	 eax, DWORD PTR _aMaskColor$[ebp]
  00ad6	0f b7 08	 movzx	 ecx, WORD PTR [eax]
  00ad9	c1 f9 08	 sar	 ecx, 8
  00adc	0f b6 d1	 movzx	 edx, cl
  00adf	89 55 cc	 mov	 DWORD PTR _lMG$[ebp], edx

; 377  : 	lMB = GetBValue(aMaskColor);

  00ae2	8b 45 14	 mov	 eax, DWORD PTR _aMaskColor$[ebp]
  00ae5	8b 08		 mov	 ecx, DWORD PTR [eax]
  00ae7	c1 e9 10	 shr	 ecx, 16			; 00000010H
  00aea	0f b6 d1	 movzx	 edx, cl
  00aed	89 55 c8	 mov	 DWORD PTR _lMB$[ebp], edx

; 378  : 
; 379  : 	RGBtoHSL(RGB(lR2,lG2,lB2),&lH2,&lS2,&lL2);

  00af0	8d 45 9c	 lea	 eax, DWORD PTR _lL2$[ebp]
  00af3	50		 push	 eax
  00af4	8d 4d ac	 lea	 ecx, DWORD PTR _lS2$[ebp]
  00af7	51		 push	 ecx
  00af8	8d 55 bc	 lea	 edx, DWORD PTR _lH2$[ebp]
  00afb	52		 push	 edx
  00afc	0f b6 45 d4	 movzx	 eax, BYTE PTR _lB2$[ebp]
  00b00	c1 e0 10	 shl	 eax, 16			; 00000010H
  00b03	0f b6 4d d8	 movzx	 ecx, BYTE PTR _lG2$[ebp]
  00b07	c1 e1 08	 shl	 ecx, 8
  00b0a	0f b6 55 dc	 movzx	 edx, BYTE PTR _lR2$[ebp]
  00b0e	0b d1		 or	 edx, ecx
  00b10	0b d0		 or	 edx, eax
  00b12	52		 push	 edx
  00b13	8b 4d e8	 mov	 ecx, DWORD PTR _this$[ebp]
  00b16	e8 00 00 00 00	 call	 ?RGBtoHSL@CBitMapOperate@@QAEXKPAN00@Z ; CBitMapOperate::RGBtoHSL

; 380  : 
; 381  : 	int lnFillBit = ahSourceDib.m_width * 3%4 == 0 ? 0 : 4-ahSourceDib.m_width * 3%4;

  00b1b	8b 45 08	 mov	 eax, DWORD PTR _ahSourceDib$[ebp]
  00b1e	8b 40 08	 mov	 eax, DWORD PTR [eax+8]
  00b21	6b c0 03	 imul	 eax, 3
  00b24	33 d2		 xor	 edx, edx
  00b26	b9 04 00 00 00	 mov	 ecx, 4
  00b2b	f7 f1		 div	 ecx
  00b2d	85 d2		 test	 edx, edx
  00b2f	75 0c		 jne	 SHORT $L189345
  00b31	c7 85 9c fe ff
	ff 00 00 00 00	 mov	 DWORD PTR tv142[ebp], 0
  00b3b	eb 1f		 jmp	 SHORT $L189346
$L189345:
  00b3d	8b 55 08	 mov	 edx, DWORD PTR _ahSourceDib$[ebp]
  00b40	8b 42 08	 mov	 eax, DWORD PTR [edx+8]
  00b43	6b c0 03	 imul	 eax, 3
  00b46	33 d2		 xor	 edx, edx
  00b48	b9 04 00 00 00	 mov	 ecx, 4
  00b4d	f7 f1		 div	 ecx
  00b4f	b8 04 00 00 00	 mov	 eax, 4
  00b54	2b c2		 sub	 eax, edx
  00b56	89 85 9c fe ff
	ff		 mov	 DWORD PTR tv142[ebp], eax
$L189346:
  00b5c	8b 8d 9c fe ff
	ff		 mov	 ecx, DWORD PTR tv142[ebp]
  00b62	89 4d 94	 mov	 DWORD PTR _lnFillBit$[ebp], ecx

; 382  : 	LPBYTE lpBitTable =  (LPBYTE)(ahSourceDib.m_lpvColorTable);

  00b65	8b 55 08	 mov	 edx, DWORD PTR _ahSourceDib$[ebp]
  00b68	8b 42 04	 mov	 eax, DWORD PTR [edx+4]
  00b6b	89 45 90	 mov	 DWORD PTR _lpBitTable$[ebp], eax

; 383  : 		static int count = 0;
; 384  : 		static int count1 = 0;
; 385  : 
; 386  : 		count1 ++;

  00b6e	8b 0d 00 00 00
	00		 mov	 ecx, DWORD PTR ?count1@?9??ChangeBmpSkin@CBitMapOperate@@QAEPAVDIBINFO@@AAV3@AAIAAK21@Z@4HA
  00b74	83 c1 01	 add	 ecx, 1
  00b77	89 0d 00 00 00
	00		 mov	 DWORD PTR ?count1@?9??ChangeBmpSkin@CBitMapOperate@@QAEPAVDIBINFO@@AAV3@AAIAAK21@Z@4HA, ecx

; 387  : 
; 388  : 	try
; 389  : 	{

  00b7d	c7 45 fc 00 00
	00 00		 mov	 DWORD PTR __$EHRec$[ebp+12], 0

; 390  : 		int lRowWidth = ahSourceDib.m_width*3 + lnFillBit;

  00b84	8b 55 08	 mov	 edx, DWORD PTR _ahSourceDib$[ebp]
  00b87	8b 42 08	 mov	 eax, DWORD PTR [edx+8]
  00b8a	6b c0 03	 imul	 eax, 3
  00b8d	03 45 94	 add	 eax, DWORD PTR _lnFillBit$[ebp]
  00b90	89 45 8c	 mov	 DWORD PTR _lRowWidth$187552[ebp], eax

; 391  : 		int lRowStart = 0;

  00b93	c7 45 88 00 00
	00 00		 mov	 DWORD PTR _lRowStart$187553[ebp], 0

; 392  : 
; 393  : 		float lAdjust1 = ((float)aiLightPos / 120.0 - 1.0);

  00b9a	8b 4d 18	 mov	 ecx, DWORD PTR _aiLightPos$[ebp]
  00b9d	8b 11		 mov	 edx, DWORD PTR [ecx]
  00b9f	89 95 94 fe ff
	ff		 mov	 DWORD PTR tv354[ebp], edx
  00ba5	c7 85 98 fe ff
	ff 00 00 00 00	 mov	 DWORD PTR tv354[ebp+4], 0
  00baf	df ad 94 fe ff
	ff		 fild	 QWORD PTR tv354[ebp]
  00bb5	dc 35 00 00 00
	00		 fdiv	 QWORD PTR __real@405e000000000000
  00bbb	dc 25 00 00 00
	00		 fsub	 QWORD PTR __real@3ff0000000000000
  00bc1	d9 5d 84	 fstp	 DWORD PTR _lAdjust1$187554[ebp]

; 394  : 		float lLastAdjust = ((float)m_nLastLightPos / 120.0 - 1.0);

  00bc4	8b 45 e8	 mov	 eax, DWORD PTR _this$[ebp]
  00bc7	db 40 18	 fild	 DWORD PTR [eax+24]
  00bca	dc 35 00 00 00
	00		 fdiv	 QWORD PTR __real@405e000000000000
  00bd0	dc 25 00 00 00
	00		 fsub	 QWORD PTR __real@3ff0000000000000
  00bd6	d9 5d 80	 fstp	 DWORD PTR _lLastAdjust$187556[ebp]

; 395  : 
; 396  : 		lAdjust1 /= 5.0;

  00bd9	d9 45 84	 fld	 DWORD PTR _lAdjust1$187554[ebp]
  00bdc	dc 35 00 00 00
	00		 fdiv	 QWORD PTR __real@4014000000000000
  00be2	d9 5d 84	 fstp	 DWORD PTR _lAdjust1$187554[ebp]

; 397  : 		lLastAdjust /= 5.0;

  00be5	d9 45 80	 fld	 DWORD PTR _lLastAdjust$187556[ebp]
  00be8	dc 35 00 00 00
	00		 fdiv	 QWORD PTR __real@4014000000000000
  00bee	d9 5d 80	 fstp	 DWORD PTR _lLastAdjust$187556[ebp]

; 398  : 
; 399  : 		float lH,lS,lL;
; 400  : 		//memset(&m_clrMap, 0, sizeof(COLORREF) * 65536);
; 401  : 
; 402  : 		CHANGE_COLOR_MAP::iterator it;

  00bf1	8d 8d 54 ff ff
	ff		 lea	 ecx, DWORD PTR _it$188190[ebp]
  00bf7	e8 00 00 00 00	 call	 ??0iterator@?$_Tree@V?$_Tmap_traits@KKU?$less@K@std@@V?$allocator@U?$pair@$$CBKK@std@@@2@$0A@@std@@@std@@QAE@XZ ; std::_Tree<std::_Tmap_traits<unsigned long,unsigned long,std::less<unsigned long>,std::allocator<std::pair<unsigned long const ,unsigned long> >,0> >::iterator::iterator

; 403  : 		for (int lHightIndex = 0; lHightIndex<ahSourceDib.m_hight;  lHightIndex++, lRowStart += lRowWidth  )

  00bfc	c7 85 4c ff ff
	ff 00 00 00 00	 mov	 DWORD PTR _lHightIndex$188191[ebp], 0
  00c06	eb 18		 jmp	 SHORT $L188192
$L188193:
  00c08	8b 8d 4c ff ff
	ff		 mov	 ecx, DWORD PTR _lHightIndex$188191[ebp]
  00c0e	83 c1 01	 add	 ecx, 1
  00c11	89 8d 4c ff ff
	ff		 mov	 DWORD PTR _lHightIndex$188191[ebp], ecx
  00c17	8b 55 88	 mov	 edx, DWORD PTR _lRowStart$187553[ebp]
  00c1a	03 55 8c	 add	 edx, DWORD PTR _lRowWidth$187552[ebp]
  00c1d	89 55 88	 mov	 DWORD PTR _lRowStart$187553[ebp], edx
$L188192:
  00c20	8b 45 08	 mov	 eax, DWORD PTR _ahSourceDib$[ebp]
  00c23	8b 8d 4c ff ff
	ff		 mov	 ecx, DWORD PTR _lHightIndex$188191[ebp]
  00c29	3b 48 0c	 cmp	 ecx, DWORD PTR [eax+12]
  00c2c	0f 83 d5 02 00
	00		 jae	 $L188194

; 404  : 		{
; 405  : 			for(int lWidthIndex = 0; lWidthIndex< lRowWidth ; lWidthIndex++  )

  00c32	c7 85 48 ff ff
	ff 00 00 00 00	 mov	 DWORD PTR _lWidthIndex$188195[ebp], 0
  00c3c	eb 0f		 jmp	 SHORT $L188196
$L188197:
  00c3e	8b 95 48 ff ff
	ff		 mov	 edx, DWORD PTR _lWidthIndex$188195[ebp]
  00c44	83 c2 01	 add	 edx, 1
  00c47	89 95 48 ff ff
	ff		 mov	 DWORD PTR _lWidthIndex$188195[ebp], edx
$L188196:
  00c4d	8b 85 48 ff ff
	ff		 mov	 eax, DWORD PTR _lWidthIndex$188195[ebp]
  00c53	3b 45 8c	 cmp	 eax, DWORD PTR _lRowWidth$187552[ebp]
  00c56	0f 8d a6 02 00
	00		 jge	 $L188198

; 406  : 			{
; 407  : 				if( lWidthIndex + 2 > lRowWidth - lnFillBit ) break; 

  00c5c	8b 4d 8c	 mov	 ecx, DWORD PTR _lRowWidth$187552[ebp]
  00c5f	2b 4d 94	 sub	 ecx, DWORD PTR _lnFillBit$[ebp]
  00c62	8b 95 48 ff ff
	ff		 mov	 edx, DWORD PTR _lWidthIndex$188195[ebp]
  00c68	83 c2 02	 add	 edx, 2
  00c6b	3b d1		 cmp	 edx, ecx
  00c6d	7e 05		 jle	 SHORT $L188199
  00c6f	e9 8e 02 00 00	 jmp	 $L188198
$L188199:

; 408  : 
; 409  : 				if(lMR == lpBitTable[lRowStart + lWidthIndex + 2] && 
; 410  : 				   lMG ==  lpBitTable[lRowStart + lWidthIndex + 1] &&
; 411  : 				   lMB == lpBitTable[lRowStart + lWidthIndex])

  00c74	8b 45 88	 mov	 eax, DWORD PTR _lRowStart$187553[ebp]
  00c77	03 85 48 ff ff
	ff		 add	 eax, DWORD PTR _lWidthIndex$188195[ebp]
  00c7d	8b 4d 90	 mov	 ecx, DWORD PTR _lpBitTable$[ebp]
  00c80	0f b6 54 01 02	 movzx	 edx, BYTE PTR [ecx+eax+2]
  00c85	39 55 d0	 cmp	 DWORD PTR _lMR$[ebp], edx
  00c88	75 3f		 jne	 SHORT $L188200
  00c8a	8b 45 88	 mov	 eax, DWORD PTR _lRowStart$187553[ebp]
  00c8d	03 85 48 ff ff
	ff		 add	 eax, DWORD PTR _lWidthIndex$188195[ebp]
  00c93	8b 4d 90	 mov	 ecx, DWORD PTR _lpBitTable$[ebp]
  00c96	0f b6 54 01 01	 movzx	 edx, BYTE PTR [ecx+eax+1]
  00c9b	39 55 cc	 cmp	 DWORD PTR _lMG$[ebp], edx
  00c9e	75 29		 jne	 SHORT $L188200
  00ca0	8b 45 88	 mov	 eax, DWORD PTR _lRowStart$187553[ebp]
  00ca3	03 85 48 ff ff
	ff		 add	 eax, DWORD PTR _lWidthIndex$188195[ebp]
  00ca9	8b 4d 90	 mov	 ecx, DWORD PTR _lpBitTable$[ebp]
  00cac	0f b6 14 01	 movzx	 edx, BYTE PTR [ecx+eax]
  00cb0	39 55 c8	 cmp	 DWORD PTR _lMB$[ebp], edx
  00cb3	75 14		 jne	 SHORT $L188200

; 412  : 				{
; 413  : 					lWidthIndex += 2;

  00cb5	8b 85 48 ff ff
	ff		 mov	 eax, DWORD PTR _lWidthIndex$188195[ebp]
  00cbb	83 c0 02	 add	 eax, 2
  00cbe	89 85 48 ff ff
	ff		 mov	 DWORD PTR _lWidthIndex$188195[ebp], eax

; 414  : 					continue;

  00cc4	e9 75 ff ff ff	 jmp	 $L188197
$L188200:

; 415  : 				}
; 416  : 				if(lpBitTable[lRowStart + lWidthIndex + 2] == 0
; 417  : 					&&  lpBitTable[lRowStart + lWidthIndex + 1] == 0
; 418  : 					&& lpBitTable[lRowStart + lWidthIndex ]  == 0)

  00cc9	8b 4d 88	 mov	 ecx, DWORD PTR _lRowStart$187553[ebp]
  00ccc	03 8d 48 ff ff
	ff		 add	 ecx, DWORD PTR _lWidthIndex$188195[ebp]
  00cd2	8b 55 90	 mov	 edx, DWORD PTR _lpBitTable$[ebp]
  00cd5	0f b6 44 0a 02	 movzx	 eax, BYTE PTR [edx+ecx+2]
  00cda	85 c0		 test	 eax, eax
  00cdc	75 3d		 jne	 SHORT $L188201
  00cde	8b 4d 88	 mov	 ecx, DWORD PTR _lRowStart$187553[ebp]
  00ce1	03 8d 48 ff ff
	ff		 add	 ecx, DWORD PTR _lWidthIndex$188195[ebp]
  00ce7	8b 55 90	 mov	 edx, DWORD PTR _lpBitTable$[ebp]
  00cea	0f b6 44 0a 01	 movzx	 eax, BYTE PTR [edx+ecx+1]
  00cef	85 c0		 test	 eax, eax
  00cf1	75 28		 jne	 SHORT $L188201
  00cf3	8b 4d 88	 mov	 ecx, DWORD PTR _lRowStart$187553[ebp]
  00cf6	03 8d 48 ff ff
	ff		 add	 ecx, DWORD PTR _lWidthIndex$188195[ebp]
  00cfc	8b 55 90	 mov	 edx, DWORD PTR _lpBitTable$[ebp]
  00cff	0f b6 04 0a	 movzx	 eax, BYTE PTR [edx+ecx]
  00d03	85 c0		 test	 eax, eax
  00d05	75 14		 jne	 SHORT $L188201

; 419  : 				{
; 420  : 					lWidthIndex += 2;

  00d07	8b 8d 48 ff ff
	ff		 mov	 ecx, DWORD PTR _lWidthIndex$188195[ebp]
  00d0d	83 c1 02	 add	 ecx, 2
  00d10	89 8d 48 ff ff
	ff		 mov	 DWORD PTR _lWidthIndex$188195[ebp], ecx

; 421  : 					continue;

  00d16	e9 23 ff ff ff	 jmp	 $L188197
$L188201:

; 422  : 				}
; 423  : 
; 424  : 
; 425  : 				RGBtoHSL(
; 426  : 					lpBitTable[lRowStart + lWidthIndex + 2],
; 427  : 					lpBitTable[lRowStart + lWidthIndex + 1],
; 428  : 					lpBitTable[lRowStart + lWidthIndex ],
; 429  : 				&lH,&lS,&lL);

  00d1b	8d 95 60 ff ff
	ff		 lea	 edx, DWORD PTR _lL$187560[ebp]
  00d21	52		 push	 edx
  00d22	8d 85 6c ff ff
	ff		 lea	 eax, DWORD PTR _lS$187559[ebp]
  00d28	50		 push	 eax
  00d29	8d 8d 78 ff ff
	ff		 lea	 ecx, DWORD PTR _lH$187558[ebp]
  00d2f	51		 push	 ecx
  00d30	8b 55 88	 mov	 edx, DWORD PTR _lRowStart$187553[ebp]
  00d33	03 95 48 ff ff
	ff		 add	 edx, DWORD PTR _lWidthIndex$188195[ebp]
  00d39	8b 45 90	 mov	 eax, DWORD PTR _lpBitTable$[ebp]
  00d3c	0f b6 0c 10	 movzx	 ecx, BYTE PTR [eax+edx]
  00d40	89 8d 90 fe ff
	ff		 mov	 DWORD PTR tv388[ebp], ecx
  00d46	db 85 90 fe ff
	ff		 fild	 DWORD PTR tv388[ebp]
  00d4c	51		 push	 ecx
  00d4d	d9 1c 24	 fstp	 DWORD PTR [esp]
  00d50	8b 55 88	 mov	 edx, DWORD PTR _lRowStart$187553[ebp]
  00d53	03 95 48 ff ff
	ff		 add	 edx, DWORD PTR _lWidthIndex$188195[ebp]
  00d59	8b 45 90	 mov	 eax, DWORD PTR _lpBitTable$[ebp]
  00d5c	0f b6 4c 10 01	 movzx	 ecx, BYTE PTR [eax+edx+1]
  00d61	89 8d 8c fe ff
	ff		 mov	 DWORD PTR tv391[ebp], ecx
  00d67	db 85 8c fe ff
	ff		 fild	 DWORD PTR tv391[ebp]
  00d6d	51		 push	 ecx
  00d6e	d9 1c 24	 fstp	 DWORD PTR [esp]
  00d71	8b 55 88	 mov	 edx, DWORD PTR _lRowStart$187553[ebp]
  00d74	03 95 48 ff ff
	ff		 add	 edx, DWORD PTR _lWidthIndex$188195[ebp]
  00d7a	8b 45 90	 mov	 eax, DWORD PTR _lpBitTable$[ebp]
  00d7d	0f b6 4c 10 02	 movzx	 ecx, BYTE PTR [eax+edx+2]
  00d82	89 8d 88 fe ff
	ff		 mov	 DWORD PTR tv394[ebp], ecx
  00d88	db 85 88 fe ff
	ff		 fild	 DWORD PTR tv394[ebp]
  00d8e	51		 push	 ecx
  00d8f	d9 1c 24	 fstp	 DWORD PTR [esp]
  00d92	8b 4d e8	 mov	 ecx, DWORD PTR _this$[ebp]
  00d95	e8 00 00 00 00	 call	 ?RGBtoHSL@CBitMapOperate@@QAEXMMMPAM00@Z ; CBitMapOperate::RGBtoHSL

; 430  : 
; 431  : 				/*if(!bJustBaseColor)
; 432  : 				{
; 433  : 					lL = this->GetOriLValue(lL, lLastAdjust);
; 434  : 					float lAdjuest = (1.0 - lL > lL) ? lL: 1.0-lL; 
; 435  : 					lL += lAdjust1 * lAdjuest;
; 436  : 				}*/
; 437  : 	/*			lL = lL + lL2/2;
; 438  : 				if(lL > 1.0)
; 439  : 					lL = 1.0;*/
; 440  : 
; 441  : 				lH = lH2;

  00d9a	dd 45 bc	 fld	 QWORD PTR _lH2$[ebp]
  00d9d	d9 9d 78 ff ff
	ff		 fstp	 DWORD PTR _lH$187558[ebp]

; 442  : 				if(lH > 1.0)

  00da3	d9 85 78 ff ff
	ff		 fld	 DWORD PTR _lH$187558[ebp]
  00da9	dc 1d 00 00 00
	00		 fcomp	 QWORD PTR __real@3ff0000000000000
  00daf	df e0		 fnstsw	 ax
  00db1	f6 c4 41	 test	 ah, 65			; 00000041H
  00db4	75 12		 jne	 SHORT $L188202

; 443  : 					lH -= 1.0;

  00db6	d9 85 78 ff ff
	ff		 fld	 DWORD PTR _lH$187558[ebp]
  00dbc	dc 25 00 00 00
	00		 fsub	 QWORD PTR __real@3ff0000000000000
  00dc2	d9 9d 78 ff ff
	ff		 fstp	 DWORD PTR _lH$187558[ebp]
$L188202:

; 444  : 				if(lH < 0)

  00dc8	d9 85 78 ff ff
	ff		 fld	 DWORD PTR _lH$187558[ebp]
  00dce	d8 1d 00 00 00
	00		 fcomp	 DWORD PTR __real@00000000
  00dd4	df e0		 fnstsw	 ax
  00dd6	f6 c4 05	 test	 ah, 5
  00dd9	7a 12		 jp	 SHORT $L188203

; 445  : 					lH += 1.0;

  00ddb	d9 85 78 ff ff
	ff		 fld	 DWORD PTR _lH$187558[ebp]
  00de1	dc 05 00 00 00
	00		 fadd	 QWORD PTR __real@3ff0000000000000
  00de7	d9 9d 78 ff ff
	ff		 fstp	 DWORD PTR _lH$187558[ebp]
$L188203:

; 446  : 
; 447  : 				lL = lL + (lL2 - 0.5)/4;

  00ded	dd 45 9c	 fld	 QWORD PTR _lL2$[ebp]
  00df0	dc 25 00 00 00
	00		 fsub	 QWORD PTR __real@3fe0000000000000
  00df6	dc 35 00 00 00
	00		 fdiv	 QWORD PTR __real@4010000000000000
  00dfc	d8 85 60 ff ff
	ff		 fadd	 DWORD PTR _lL$187560[ebp]
  00e02	d9 9d 60 ff ff
	ff		 fstp	 DWORD PTR _lL$187560[ebp]

; 448  : 				if(lL > 1.0)

  00e08	d9 85 60 ff ff
	ff		 fld	 DWORD PTR _lL$187560[ebp]
  00e0e	dc 1d 00 00 00
	00		 fcomp	 QWORD PTR __real@3ff0000000000000
  00e14	df e0		 fnstsw	 ax
  00e16	f6 c4 41	 test	 ah, 65			; 00000041H
  00e19	75 0a		 jne	 SHORT $L188204

; 449  : 					lL = 1.0;

  00e1b	c7 85 60 ff ff
	ff 00 00 80 3f	 mov	 DWORD PTR _lL$187560[ebp], 1065353216 ; 3f800000H
$L188204:

; 450  : 				if(lL <= 0)

  00e25	d9 85 60 ff ff
	ff		 fld	 DWORD PTR _lL$187560[ebp]
  00e2b	d8 1d 00 00 00
	00		 fcomp	 DWORD PTR __real@00000000
  00e31	df e0		 fnstsw	 ax
  00e33	f6 c4 41	 test	 ah, 65			; 00000041H
  00e36	7a 0a		 jp	 SHORT $L188205

; 451  : 					lL = 0.1;

  00e38	c7 85 60 ff ff
	ff cd cc cc 3d	 mov	 DWORD PTR _lL$187560[ebp], 1036831949 ; 3dcccccdH
$L188205:

; 452  : 				lS = lS + (lS2 - 0.5) * 2;

  00e42	dd 45 ac	 fld	 QWORD PTR _lS2$[ebp]
  00e45	dc 25 00 00 00
	00		 fsub	 QWORD PTR __real@3fe0000000000000
  00e4b	dc c0		 fadd	 ST(0), ST(0)
  00e4d	d8 85 6c ff ff
	ff		 fadd	 DWORD PTR _lS$187559[ebp]
  00e53	d9 9d 6c ff ff
	ff		 fstp	 DWORD PTR _lS$187559[ebp]

; 453  : 				if(lS > 1.0)

  00e59	d9 85 6c ff ff
	ff		 fld	 DWORD PTR _lS$187559[ebp]
  00e5f	dc 1d 00 00 00
	00		 fcomp	 QWORD PTR __real@3ff0000000000000
  00e65	df e0		 fnstsw	 ax
  00e67	f6 c4 41	 test	 ah, 65			; 00000041H
  00e6a	75 0a		 jne	 SHORT $L188206

; 454  : 						lS = 1.0;

  00e6c	c7 85 6c ff ff
	ff 00 00 80 3f	 mov	 DWORD PTR _lS$187559[ebp], 1065353216 ; 3f800000H
$L188206:

; 455  : 				if(lS <= 0)

  00e76	d9 85 6c ff ff
	ff		 fld	 DWORD PTR _lS$187559[ebp]
  00e7c	d8 1d 00 00 00
	00		 fcomp	 DWORD PTR __real@00000000
  00e82	df e0		 fnstsw	 ax
  00e84	f6 c4 41	 test	 ah, 65			; 00000041H
  00e87	7a 0a		 jp	 SHORT $L188207

; 456  : 						lS = 0.1;

  00e89	c7 85 6c ff ff
	ff cd cc cc 3d	 mov	 DWORD PTR _lS$187559[ebp], 1036831949 ; 3dcccccdH
$L188207:

; 457  : 
; 458  : 				HLStoRGB(lH,lL,lS,
; 459  : 					lpBitTable +  lRowStart + lWidthIndex + 2,
; 460  : 					lpBitTable +  lRowStart + lWidthIndex + 1,
; 461  : 					lpBitTable +  lRowStart + lWidthIndex );

  00e93	8b 55 90	 mov	 edx, DWORD PTR _lpBitTable$[ebp]
  00e96	03 55 88	 add	 edx, DWORD PTR _lRowStart$187553[ebp]
  00e99	03 95 48 ff ff
	ff		 add	 edx, DWORD PTR _lWidthIndex$188195[ebp]
  00e9f	52		 push	 edx
  00ea0	8b 45 90	 mov	 eax, DWORD PTR _lpBitTable$[ebp]
  00ea3	03 45 88	 add	 eax, DWORD PTR _lRowStart$187553[ebp]
  00ea6	8b 8d 48 ff ff
	ff		 mov	 ecx, DWORD PTR _lWidthIndex$188195[ebp]
  00eac	8d 54 08 01	 lea	 edx, DWORD PTR [eax+ecx+1]
  00eb0	52		 push	 edx
  00eb1	8b 45 90	 mov	 eax, DWORD PTR _lpBitTable$[ebp]
  00eb4	03 45 88	 add	 eax, DWORD PTR _lRowStart$187553[ebp]
  00eb7	8b 8d 48 ff ff
	ff		 mov	 ecx, DWORD PTR _lWidthIndex$188195[ebp]
  00ebd	8d 54 08 02	 lea	 edx, DWORD PTR [eax+ecx+2]
  00ec1	52		 push	 edx
  00ec2	8d 85 6c ff ff
	ff		 lea	 eax, DWORD PTR _lS$187559[ebp]
  00ec8	50		 push	 eax
  00ec9	8d 8d 60 ff ff
	ff		 lea	 ecx, DWORD PTR _lL$187560[ebp]
  00ecf	51		 push	 ecx
  00ed0	8d 95 78 ff ff
	ff		 lea	 edx, DWORD PTR _lH$187558[ebp]
  00ed6	52		 push	 edx
  00ed7	8b 4d e8	 mov	 ecx, DWORD PTR _this$[ebp]
  00eda	e8 00 00 00 00	 call	 ?HLStoRGB@CBitMapOperate@@QAEXABM00PAE11@Z ; CBitMapOperate::HLStoRGB

; 462  : 
; 463  : 				lWidthIndex += 2;

  00edf	8b 85 48 ff ff
	ff		 mov	 eax, DWORD PTR _lWidthIndex$188195[ebp]
  00ee5	83 c0 02	 add	 eax, 2
  00ee8	89 85 48 ff ff
	ff		 mov	 DWORD PTR _lWidthIndex$188195[ebp], eax

; 464  : 					count ++;

  00eee	8b 0d 00 00 00
	00		 mov	 ecx, DWORD PTR ?count@?9??ChangeBmpSkin@CBitMapOperate@@QAEPAVDIBINFO@@AAV3@AAIAAK21@Z@4HA
  00ef4	83 c1 01	 add	 ecx, 1
  00ef7	89 0d 00 00 00
	00		 mov	 DWORD PTR ?count@?9??ChangeBmpSkin@CBitMapOperate@@QAEPAVDIBINFO@@AAV3@AAIAAK21@Z@4HA, ecx

; 465  : 
; 466  : 			}

  00efd	e9 3c fd ff ff	 jmp	 $L188197
$L188198:

; 467  : 		}

  00f02	e9 01 fd ff ff	 jmp	 $L188193
$L188194:
  00f07	eb 33		 jmp	 SHORT $L189347
$L189348:

; 468  : 	}
; 469  : 	catch(...)
; 470  : 	{
; 471  : 		CMemoryException lmemexcept;

  00f09	8d 8d a4 fe ff
	ff		 lea	 ecx, DWORD PTR _lmemexcept$188208[ebp]
  00f0f	e8 00 00 00 00	 call	 ??0CMemoryException@@QAE@XZ ; CMemoryException::CMemoryException
  00f14	c6 45 fc 02	 mov	 BYTE PTR __$EHRec$[ebp+12], 2

; 472  : 		lmemexcept.ReportError();

  00f18	6a 00		 push	 0
  00f1a	6a 00		 push	 0
  00f1c	8d 8d a4 fe ff
	ff		 lea	 ecx, DWORD PTR _lmemexcept$188208[ebp]
  00f22	e8 00 00 00 00	 call	 ?ReportError@CException@@UAEHII@Z ; CException::ReportError

; 473  : 	}

  00f27	c6 45 fc 01	 mov	 BYTE PTR __$EHRec$[ebp+12], 1
  00f2b	8d 8d a4 fe ff
	ff		 lea	 ecx, DWORD PTR _lmemexcept$188208[ebp]
  00f31	e8 00 00 00 00	 call	 ??1CMemoryException@@UAE@XZ ; CMemoryException::~CMemoryException
  00f36	b8 00 00 00 00	 mov	 eax, $L189347
  00f3b	c3		 ret	 0
$L189347:
  00f3c	c7 45 fc ff ff
	ff ff		 mov	 DWORD PTR __$EHRec$[ebp+12], -1

; 474  : 	
; 475  : 	//TRACE("<%d, %d> \n ", count, count1);
; 476  : 	return &ahSourceDib;

  00f43	8b 45 08	 mov	 eax, DWORD PTR _ahSourceDib$[ebp]
$L187513:

; 477  : }

  00f46	52		 push	 edx
  00f47	8b cd		 mov	 ecx, ebp
  00f49	50		 push	 eax
  00f4a	8d 15 00 00 00
	00		 lea	 edx, DWORD PTR $L189369
  00f50	e8 00 00 00 00	 call	 @_RTC_CheckStackVars@8
  00f55	58		 pop	 eax
  00f56	5a		 pop	 edx
  00f57	8b 4d f4	 mov	 ecx, DWORD PTR __$EHRec$[ebp+4]
  00f5a	64 89 0d 00 00
	00 00		 mov	 DWORD PTR fs:__except_list, ecx
  00f61	8b 4d ec	 mov	 ecx, DWORD PTR __$ArrayPad$[ebp]
  00f64	e8 00 00 00 00	 call	 @__security_check_cookie@4
  00f69	5f		 pop	 edi
  00f6a	5e		 pop	 esi
  00f6b	5b		 pop	 ebx
  00f6c	81 c4 78 01 00
	00		 add	 esp, 376		; 00000178H
  00f72	3b ec		 cmp	 ebp, esp
  00f74	e8 00 00 00 00	 call	 __RTC_CheckEsp
  00f79	8b e5		 mov	 esp, ebp
  00f7b	5d		 pop	 ebp
  00f7c	c2 14 00	 ret	 20			; 00000014H
$L189369:
  00f7f	08 00 00 00	 DD	 8
  00f83	00 00 00 00	 DD	 $L189368
$L189368:
  00f87	bc ff ff ff	 DD	 -68			; ffffffbcH
  00f8b	08 00 00 00	 DD	 8
  00f8f	00 00 00 00	 DD	 $L189356
  00f93	ac ff ff ff	 DD	 -84			; ffffffacH
  00f97	08 00 00 00	 DD	 8
  00f9b	00 00 00 00	 DD	 $L189357
  00f9f	9c ff ff ff	 DD	 -100			; ffffff9cH
  00fa3	08 00 00 00	 DD	 8
  00fa7	00 00 00 00	 DD	 $L189358
  00fab	78 ff ff ff	 DD	 -136			; ffffff78H
  00faf	04 00 00 00	 DD	 4
  00fb3	00 00 00 00	 DD	 $L189359
  00fb7	6c ff ff ff	 DD	 -148			; ffffff6cH
  00fbb	04 00 00 00	 DD	 4
  00fbf	00 00 00 00	 DD	 $L189360
  00fc3	60 ff ff ff	 DD	 -160			; ffffff60H
  00fc7	04 00 00 00	 DD	 4
  00fcb	00 00 00 00	 DD	 $L189361
  00fcf	54 ff ff ff	 DD	 -172			; ffffff54H
  00fd3	04 00 00 00	 DD	 4
  00fd7	00 00 00 00	 DD	 $L189362
  00fdb	a4 fe ff ff	 DD	 -348			; fffffea4H
  00fdf	a0 00 00 00	 DD	 160			; 000000a0H
  00fe3	00 00 00 00	 DD	 $L189363
$L189363:
  00fe7	6c		 DB	 108			; 0000006cH
  00fe8	6d		 DB	 109			; 0000006dH
  00fe9	65		 DB	 101			; 00000065H
  00fea	6d		 DB	 109			; 0000006dH
  00feb	65		 DB	 101			; 00000065H
  00fec	78		 DB	 120			; 00000078H
  00fed	63		 DB	 99			; 00000063H
  00fee	65		 DB	 101			; 00000065H
  00fef	70		 DB	 112			; 00000070H
  00ff0	74		 DB	 116			; 00000074H
  00ff1	00		 DB	 0
$L189362:
  00ff2	69		 DB	 105			; 00000069H
  00ff3	74		 DB	 116			; 00000074H
  00ff4	00		 DB	 0
$L189361:
  00ff5	6c		 DB	 108			; 0000006cH
  00ff6	4c		 DB	 76			; 0000004cH
  00ff7	00		 DB	 0
$L189360:
  00ff8	6c		 DB	 108			; 0000006cH
  00ff9	53		 DB	 83			; 00000053H
  00ffa	00		 DB	 0
$L189359:
  00ffb	6c		 DB	 108			; 0000006cH
  00ffc	48		 DB	 72			; 00000048H
  00ffd	00		 DB	 0
$L189358:
  00ffe	6c		 DB	 108			; 0000006cH
  00fff	4c		 DB	 76			; 0000004cH
  01000	32		 DB	 50			; 00000032H
  01001	00		 DB	 0
$L189357:
  01002	6c		 DB	 108			; 0000006cH
  01003	53		 DB	 83			; 00000053H
  01004	32		 DB	 50			; 00000032H
  01005	00		 DB	 0
$L189356:
  01006	6c		 DB	 108			; 0000006cH
  01007	48		 DB	 72			; 00000048H
  01008	32		 DB	 50			; 00000032H
  01009	00		 DB	 0
_TEXT	ENDS
text$x	SEGMENT
$L189349:
  00000	8d 8d a4 fe ff
	ff		 lea	 ecx, DWORD PTR _lmemexcept$188208[ebp]
  00006	e9 00 00 00 00	 jmp	 ??1CMemoryException@@UAE@XZ ; CMemoryException::~CMemoryException
__ehhandler$?ChangeBmpSkin@CBitMapOperate@@QAEPAVDIBINFO@@AAV2@AAIAAK21@Z:
  0000b	b8 00 00 00 00	 mov	 eax, OFFSET FLAT:$T189353
  00010	e9 00 00 00 00	 jmp	 ___CxxFrameHandler
text$x	ENDS
?ChangeBmpSkin@CBitMapOperate@@QAEPAVDIBINFO@@AAV2@AAIAAK21@Z ENDP ; CBitMapOperate::ChangeBmpSkin
; Function compile flags: /Odt /RTCsu
;	COMDAT ?RGBtoHSL@CBitMapOperate@@QAEXMMMPAM00@Z
_TEXT	SEGMENT
tv77 = -40						; size = 4
tv78 = -36						; size = 4
tv74 = -32						; size = 4
tv71 = -28						; size = 4
tv72 = -24						; size = 4
tv68 = -20						; size = 4
_cmin$ = -16						; size = 4
_cmax$ = -12						; size = 4
_delta$ = -8						; size = 4
_this$ = -4						; size = 4
_r$ = 8							; size = 4
_g$ = 12						; size = 4
_b$ = 16						; size = 4
_H$ = 20						; size = 4
_S$ = 24						; size = 4
_L$ = 28						; size = 4
?RGBtoHSL@CBitMapOperate@@QAEXMMMPAM00@Z PROC NEAR	; CBitMapOperate::RGBtoHSL, COMDAT
; _this$ = ecx

; 32   : {

  00000	55		 push	 ebp
  00001	8b ec		 mov	 ebp, esp
  00003	83 ec 28	 sub	 esp, 40			; 00000028H
  00006	57		 push	 edi
  00007	51		 push	 ecx
  00008	8d 7d d8	 lea	 edi, DWORD PTR [ebp-40]
  0000b	b9 0a 00 00 00	 mov	 ecx, 10			; 0000000aH
  00010	b8 cc cc cc cc	 mov	 eax, -858993460		; ccccccccH
  00015	f3 ab		 rep stosd
  00017	59		 pop	 ecx
  00018	89 4d fc	 mov	 DWORD PTR _this$[ebp], ecx

; 33   : 	float delta;
; 34   : 	//double r = (double)GetRValue(rgb)/255;
; 35   : 	//double g = (double)GetGValue(rgb)/255;
; 36   : 	//double b = (double)GetBValue(rgb)/255;
; 37   : 	r /= 255;

  0001b	d9 45 08	 fld	 DWORD PTR _r$[ebp]
  0001e	d8 35 00 00 00
	00		 fdiv	 DWORD PTR __real@437f0000
  00024	d9 5d 08	 fstp	 DWORD PTR _r$[ebp]

; 38   : 	g /=255;

  00027	d9 45 0c	 fld	 DWORD PTR _g$[ebp]
  0002a	d8 35 00 00 00
	00		 fdiv	 DWORD PTR __real@437f0000
  00030	d9 5d 0c	 fstp	 DWORD PTR _g$[ebp]

; 39   : 	b /= 255;

  00033	d9 45 10	 fld	 DWORD PTR _b$[ebp]
  00036	d8 35 00 00 00
	00		 fdiv	 DWORD PTR __real@437f0000
  0003c	d9 5d 10	 fstp	 DWORD PTR _b$[ebp]

; 40   : 
; 41   : 	float cmax = max(r,max(g,b));

  0003f	d9 45 0c	 fld	 DWORD PTR _g$[ebp]
  00042	d8 5d 10	 fcomp	 DWORD PTR _b$[ebp]
  00045	df e0		 fnstsw	 ax
  00047	f6 c4 41	 test	 ah, 65			; 00000041H
  0004a	75 08		 jne	 SHORT $L189378
  0004c	8b 45 0c	 mov	 eax, DWORD PTR _g$[ebp]
  0004f	89 45 ec	 mov	 DWORD PTR tv68[ebp], eax
  00052	eb 06		 jmp	 SHORT $L189379
$L189378:
  00054	8b 4d 10	 mov	 ecx, DWORD PTR _b$[ebp]
  00057	89 4d ec	 mov	 DWORD PTR tv68[ebp], ecx
$L189379:
  0005a	d9 45 08	 fld	 DWORD PTR _r$[ebp]
  0005d	d8 5d ec	 fcomp	 DWORD PTR tv68[ebp]
  00060	df e0		 fnstsw	 ax
  00062	f6 c4 41	 test	 ah, 65			; 00000041H
  00065	75 08		 jne	 SHORT $L189382
  00067	8b 55 08	 mov	 edx, DWORD PTR _r$[ebp]
  0006a	89 55 e8	 mov	 DWORD PTR tv72[ebp], edx
  0006d	eb 21		 jmp	 SHORT $L189383
$L189382:
  0006f	d9 45 0c	 fld	 DWORD PTR _g$[ebp]
  00072	d8 5d 10	 fcomp	 DWORD PTR _b$[ebp]
  00075	df e0		 fnstsw	 ax
  00077	f6 c4 41	 test	 ah, 65			; 00000041H
  0007a	75 08		 jne	 SHORT $L189380
  0007c	8b 45 0c	 mov	 eax, DWORD PTR _g$[ebp]
  0007f	89 45 e4	 mov	 DWORD PTR tv71[ebp], eax
  00082	eb 06		 jmp	 SHORT $L189381
$L189380:
  00084	8b 4d 10	 mov	 ecx, DWORD PTR _b$[ebp]
  00087	89 4d e4	 mov	 DWORD PTR tv71[ebp], ecx
$L189381:
  0008a	8b 55 e4	 mov	 edx, DWORD PTR tv71[ebp]
  0008d	89 55 e8	 mov	 DWORD PTR tv72[ebp], edx
$L189383:
  00090	8b 45 e8	 mov	 eax, DWORD PTR tv72[ebp]
  00093	89 45 f4	 mov	 DWORD PTR _cmax$[ebp], eax

; 42   : 	float cmin = min(r,min(g,b));

  00096	d9 45 0c	 fld	 DWORD PTR _g$[ebp]
  00099	d8 5d 10	 fcomp	 DWORD PTR _b$[ebp]
  0009c	df e0		 fnstsw	 ax
  0009e	f6 c4 05	 test	 ah, 5
  000a1	7a 08		 jp	 SHORT $L189384
  000a3	8b 4d 0c	 mov	 ecx, DWORD PTR _g$[ebp]
  000a6	89 4d e0	 mov	 DWORD PTR tv74[ebp], ecx
  000a9	eb 06		 jmp	 SHORT $L189385
$L189384:
  000ab	8b 55 10	 mov	 edx, DWORD PTR _b$[ebp]
  000ae	89 55 e0	 mov	 DWORD PTR tv74[ebp], edx
$L189385:
  000b1	d9 45 08	 fld	 DWORD PTR _r$[ebp]
  000b4	d8 5d e0	 fcomp	 DWORD PTR tv74[ebp]
  000b7	df e0		 fnstsw	 ax
  000b9	f6 c4 05	 test	 ah, 5
  000bc	7a 08		 jp	 SHORT $L189388
  000be	8b 45 08	 mov	 eax, DWORD PTR _r$[ebp]
  000c1	89 45 dc	 mov	 DWORD PTR tv78[ebp], eax
  000c4	eb 21		 jmp	 SHORT $L189389
$L189388:
  000c6	d9 45 0c	 fld	 DWORD PTR _g$[ebp]
  000c9	d8 5d 10	 fcomp	 DWORD PTR _b$[ebp]
  000cc	df e0		 fnstsw	 ax
  000ce	f6 c4 05	 test	 ah, 5
  000d1	7a 08		 jp	 SHORT $L189386
  000d3	8b 4d 0c	 mov	 ecx, DWORD PTR _g$[ebp]
  000d6	89 4d d8	 mov	 DWORD PTR tv77[ebp], ecx
  000d9	eb 06		 jmp	 SHORT $L189387
$L189386:
  000db	8b 55 10	 mov	 edx, DWORD PTR _b$[ebp]
  000de	89 55 d8	 mov	 DWORD PTR tv77[ebp], edx
$L189387:
  000e1	8b 45 d8	 mov	 eax, DWORD PTR tv77[ebp]
  000e4	89 45 dc	 mov	 DWORD PTR tv78[ebp], eax
$L189389:
  000e7	8b 4d dc	 mov	 ecx, DWORD PTR tv78[ebp]
  000ea	89 4d f0	 mov	 DWORD PTR _cmin$[ebp], ecx

; 43   : 	*L = (cmax+cmin)/(float)2.0;

  000ed	d9 45 f4	 fld	 DWORD PTR _cmax$[ebp]
  000f0	d8 45 f0	 fadd	 DWORD PTR _cmin$[ebp]
  000f3	d8 35 00 00 00
	00		 fdiv	 DWORD PTR __real@40000000
  000f9	8b 55 1c	 mov	 edx, DWORD PTR _L$[ebp]
  000fc	d9 1a		 fstp	 DWORD PTR [edx]

; 44   : 	if (cmax == cmin)

  000fe	d9 45 f0	 fld	 DWORD PTR _cmin$[ebp]
  00101	d9 45 f4	 fld	 DWORD PTR _cmax$[ebp]
  00104	da e9		 fucompp
  00106	df e0		 fnstsw	 ax
  00108	f6 c4 44	 test	 ah, 68			; 00000044H
  0010b	7a 17		 jp	 SHORT $L187244

; 45   : 	{
; 46   : 		*S = 0;

  0010d	8b 45 18	 mov	 eax, DWORD PTR _S$[ebp]
  00110	c7 00 00 00 00
	00		 mov	 DWORD PTR [eax], 0

; 47   : 		*H = 0; // it's really undefined

  00116	8b 4d 14	 mov	 ecx, DWORD PTR _H$[ebp]
  00119	c7 01 00 00 00
	00		 mov	 DWORD PTR [ecx], 0

; 48   : 	}
; 49   : 	else

  0011f	e9 d3 00 00 00	 jmp	 $L187239
$L187244:

; 50   : 	{
; 51   : 		if (*L < 0.5)

  00124	8b 55 1c	 mov	 edx, DWORD PTR _L$[ebp]
  00127	d9 02		 fld	 DWORD PTR [edx]
  00129	dc 1d 00 00 00
	00		 fcomp	 QWORD PTR __real@3fe0000000000000
  0012f	df e0		 fnstsw	 ax
  00131	f6 c4 05	 test	 ah, 5
  00134	7a 15		 jp	 SHORT $L187246

; 52   : 			*S = (cmax-cmin)/(cmax+cmin);

  00136	d9 45 f4	 fld	 DWORD PTR _cmax$[ebp]
  00139	d8 65 f0	 fsub	 DWORD PTR _cmin$[ebp]
  0013c	d9 45 f4	 fld	 DWORD PTR _cmax$[ebp]
  0013f	d8 45 f0	 fadd	 DWORD PTR _cmin$[ebp]
  00142	de f9		 fdivp	 ST(1), ST(0)
  00144	8b 45 18	 mov	 eax, DWORD PTR _S$[ebp]
  00147	d9 18		 fstp	 DWORD PTR [eax]

; 53   : 		else

  00149	eb 19		 jmp	 SHORT $L187247
$L187246:

; 54   : 			*S = (cmax-cmin)/((float)2.0-cmax-cmin);

  0014b	d9 45 f4	 fld	 DWORD PTR _cmax$[ebp]
  0014e	d8 65 f0	 fsub	 DWORD PTR _cmin$[ebp]
  00151	d9 05 00 00 00
	00		 fld	 DWORD PTR __real@40000000
  00157	d8 65 f4	 fsub	 DWORD PTR _cmax$[ebp]
  0015a	d8 65 f0	 fsub	 DWORD PTR _cmin$[ebp]
  0015d	de f9		 fdivp	 ST(1), ST(0)
  0015f	8b 4d 18	 mov	 ecx, DWORD PTR _S$[ebp]
  00162	d9 19		 fstp	 DWORD PTR [ecx]
$L187247:

; 55   : 
; 56   : 		//return ;
; 57   : 
; 58   : 		delta = cmax - cmin;

  00164	d9 45 f4	 fld	 DWORD PTR _cmax$[ebp]
  00167	d8 65 f0	 fsub	 DWORD PTR _cmin$[ebp]
  0016a	d9 5d f8	 fstp	 DWORD PTR _delta$[ebp]

; 59   : 		if (r==cmax)

  0016d	d9 45 f4	 fld	 DWORD PTR _cmax$[ebp]
  00170	d9 45 08	 fld	 DWORD PTR _r$[ebp]
  00173	da e9		 fucompp
  00175	df e0		 fnstsw	 ax
  00177	f6 c4 44	 test	 ah, 68			; 00000044H
  0017a	7a 10		 jp	 SHORT $L187249

; 60   : 			*H = (g-b)/delta;

  0017c	d9 45 0c	 fld	 DWORD PTR _g$[ebp]
  0017f	d8 65 10	 fsub	 DWORD PTR _b$[ebp]
  00182	d8 75 f8	 fdiv	 DWORD PTR _delta$[ebp]
  00185	8b 55 14	 mov	 edx, DWORD PTR _H$[ebp]
  00188	d9 1a		 fstp	 DWORD PTR [edx]

; 61   : 		else if (g==cmax)

  0018a	eb 39		 jmp	 SHORT $L187250
$L187249:
  0018c	d9 45 f4	 fld	 DWORD PTR _cmax$[ebp]
  0018f	d9 45 0c	 fld	 DWORD PTR _g$[ebp]
  00192	da e9		 fucompp
  00194	df e0		 fnstsw	 ax
  00196	f6 c4 44	 test	 ah, 68			; 00000044H
  00199	7a 16		 jp	 SHORT $L187251

; 62   : 			*H = (float)2.0 +(b-r)/delta;

  0019b	d9 45 10	 fld	 DWORD PTR _b$[ebp]
  0019e	d8 65 08	 fsub	 DWORD PTR _r$[ebp]
  001a1	d8 75 f8	 fdiv	 DWORD PTR _delta$[ebp]
  001a4	d8 05 00 00 00
	00		 fadd	 DWORD PTR __real@40000000
  001aa	8b 45 14	 mov	 eax, DWORD PTR _H$[ebp]
  001ad	d9 18		 fstp	 DWORD PTR [eax]

; 63   : 		else

  001af	eb 14		 jmp	 SHORT $L187250
$L187251:

; 64   : 			*H = (float)4.0+(r-g)/delta;

  001b1	d9 45 08	 fld	 DWORD PTR _r$[ebp]
  001b4	d8 65 0c	 fsub	 DWORD PTR _g$[ebp]
  001b7	d8 75 f8	 fdiv	 DWORD PTR _delta$[ebp]
  001ba	d8 05 00 00 00
	00		 fadd	 DWORD PTR __real@40800000
  001c0	8b 4d 14	 mov	 ecx, DWORD PTR _H$[ebp]
  001c3	d9 19		 fstp	 DWORD PTR [ecx]
$L187250:

; 65   : 		*H /= (float)6.0;

  001c5	8b 55 14	 mov	 edx, DWORD PTR _H$[ebp]
  001c8	d9 02		 fld	 DWORD PTR [edx]
  001ca	d8 35 00 00 00
	00		 fdiv	 DWORD PTR __real@40c00000
  001d0	8b 45 14	 mov	 eax, DWORD PTR _H$[ebp]
  001d3	d9 18		 fstp	 DWORD PTR [eax]

; 66   : 		if (*H < 0.0)

  001d5	8b 4d 14	 mov	 ecx, DWORD PTR _H$[ebp]
  001d8	d9 01		 fld	 DWORD PTR [ecx]
  001da	dc 1d 00 00 00
	00		 fcomp	 QWORD PTR __real@0000000000000000
  001e0	df e0		 fnstsw	 ax
  001e2	f6 c4 05	 test	 ah, 5
  001e5	7a 10		 jp	 SHORT $L187239

; 67   : 			*H += 1;

  001e7	8b 55 14	 mov	 edx, DWORD PTR _H$[ebp]
  001ea	d9 02		 fld	 DWORD PTR [edx]
  001ec	d8 05 00 00 00
	00		 fadd	 DWORD PTR __real@3f800000
  001f2	8b 45 14	 mov	 eax, DWORD PTR _H$[ebp]
  001f5	d9 18		 fstp	 DWORD PTR [eax]
$L187239:

; 68   : 	}
; 69   : }

  001f7	5f		 pop	 edi
  001f8	8b e5		 mov	 esp, ebp
  001fa	5d		 pop	 ebp
  001fb	c2 18 00	 ret	 24			; 00000018H
?RGBtoHSL@CBitMapOperate@@QAEXMMMPAM00@Z ENDP		; CBitMapOperate::RGBtoHSL
_TEXT	ENDS
PUBLIC	?changeColor@CBitMapOperate@@QAEXAAKKI@Z	; CBitMapOperate::changeColor
; Function compile flags: /Odt /RTCsu
_TEXT	SEGMENT
_lL$ = -124						; size = 8
_lS$ = -108						; size = 8
_lH$ = -92						; size = 8
_lB$ = -80						; size = 4
_lG$ = -76						; size = 4
_lR$ = -72						; size = 4
_lL2$ = -64						; size = 8
_lS2$ = -48						; size = 8
_lH2$ = -32						; size = 8
_lB2$ = -20						; size = 4
_lG2$ = -16						; size = 4
_lR2$ = -12						; size = 4
_c2$ = -8						; size = 4
_this$ = -4						; size = 4
_aColor$ = 8						; size = 4
_aBaseColor$ = 12					; size = 4
_anLightPos$ = 16					; size = 4
?changeColor@CBitMapOperate@@QAEXAAKKI@Z PROC NEAR	; CBitMapOperate::changeColor
; _this$ = ecx

; 480  : {

  01010	55		 push	 ebp
  01011	8b ec		 mov	 ebp, esp
  01013	81 ec 80 00 00
	00		 sub	 esp, 128		; 00000080H
  01019	57		 push	 edi
  0101a	51		 push	 ecx
  0101b	8d 7d 80	 lea	 edi, DWORD PTR [ebp-128]
  0101e	b9 20 00 00 00	 mov	 ecx, 32			; 00000020H
  01023	b8 cc cc cc cc	 mov	 eax, -858993460		; ccccccccH
  01028	f3 ab		 rep stosd
  0102a	59		 pop	 ecx
  0102b	89 4d fc	 mov	 DWORD PTR _this$[ebp], ecx

; 481  : 	COLORREF c2 = aColor;

  0102e	8b 45 08	 mov	 eax, DWORD PTR _aColor$[ebp]
  01031	8b 08		 mov	 ecx, DWORD PTR [eax]
  01033	89 4d f8	 mov	 DWORD PTR _c2$[ebp], ecx

; 482  : 
; 483  : 	int lR2,lG2,lB2;
; 484  : 	double lH2,lS2,lL2;
; 485  : 
; 486  : 	if(aColor == 0)

  01036	8b 55 08	 mov	 edx, DWORD PTR _aColor$[ebp]
  01039	83 3a 00	 cmp	 DWORD PTR [edx], 0
  0103c	75 05		 jne	 SHORT $L188222

; 487  : 		return;

  0103e	e9 88 01 00 00	 jmp	 $L188214
$L188222:

; 488  : 
; 489  : 	if(aBaseColor == 0)

  01043	83 7d 0c 00	 cmp	 DWORD PTR _aBaseColor$[ebp], 0
  01047	75 05		 jne	 SHORT $L188223

; 490  : 		return ;

  01049	e9 7d 01 00 00	 jmp	 $L188214
$L188223:

; 491  : 	lR2 = GetRValue(aBaseColor);

  0104e	0f b6 45 0c	 movzx	 eax, BYTE PTR _aBaseColor$[ebp]
  01052	89 45 f4	 mov	 DWORD PTR _lR2$[ebp], eax

; 492  : 	lG2 = GetGValue(aBaseColor);

  01055	0f b7 4d 0c	 movzx	 ecx, WORD PTR _aBaseColor$[ebp]
  01059	c1 f9 08	 sar	 ecx, 8
  0105c	0f b6 d1	 movzx	 edx, cl
  0105f	89 55 f0	 mov	 DWORD PTR _lG2$[ebp], edx

; 493  : 	lB2 = GetBValue(aBaseColor);

  01062	8b 45 0c	 mov	 eax, DWORD PTR _aBaseColor$[ebp]
  01065	c1 e8 10	 shr	 eax, 16			; 00000010H
  01068	0f b6 c8	 movzx	 ecx, al
  0106b	89 4d ec	 mov	 DWORD PTR _lB2$[ebp], ecx

; 494  : 	RGBtoHSL(RGB(lR2,lG2,lB2),&lH2,&lS2,&lL2);

  0106e	8d 55 c0	 lea	 edx, DWORD PTR _lL2$[ebp]
  01071	52		 push	 edx
  01072	8d 45 d0	 lea	 eax, DWORD PTR _lS2$[ebp]
  01075	50		 push	 eax
  01076	8d 4d e0	 lea	 ecx, DWORD PTR _lH2$[ebp]
  01079	51		 push	 ecx
  0107a	0f b6 55 f4	 movzx	 edx, BYTE PTR _lR2$[ebp]
  0107e	0f b6 45 f0	 movzx	 eax, BYTE PTR _lG2$[ebp]
  01082	c1 e0 08	 shl	 eax, 8
  01085	0b d0		 or	 edx, eax
  01087	0f b6 4d ec	 movzx	 ecx, BYTE PTR _lB2$[ebp]
  0108b	c1 e1 10	 shl	 ecx, 16			; 00000010H
  0108e	0b d1		 or	 edx, ecx
  01090	52		 push	 edx
  01091	8b 4d fc	 mov	 ecx, DWORD PTR _this$[ebp]
  01094	e8 00 00 00 00	 call	 ?RGBtoHSL@CBitMapOperate@@QAEXKPAN00@Z ; CBitMapOperate::RGBtoHSL

; 495  : 
; 496  : 	int    lR,lG,lB;
; 497  : 	double lH,lS,lL;
; 498  : 	lR = GetRValue(aColor);

  01099	8b 55 08	 mov	 edx, DWORD PTR _aColor$[ebp]
  0109c	0f b6 02	 movzx	 eax, BYTE PTR [edx]
  0109f	89 45 b8	 mov	 DWORD PTR _lR$[ebp], eax

; 499  : 	lG = GetGValue(aColor);

  010a2	8b 4d 08	 mov	 ecx, DWORD PTR _aColor$[ebp]
  010a5	0f b7 11	 movzx	 edx, WORD PTR [ecx]
  010a8	c1 fa 08	 sar	 edx, 8
  010ab	0f b6 c2	 movzx	 eax, dl
  010ae	89 45 b4	 mov	 DWORD PTR _lG$[ebp], eax

; 500  : 	lB = GetBValue(aColor);

  010b1	8b 4d 08	 mov	 ecx, DWORD PTR _aColor$[ebp]
  010b4	8b 11		 mov	 edx, DWORD PTR [ecx]
  010b6	c1 ea 10	 shr	 edx, 16			; 00000010H
  010b9	0f b6 c2	 movzx	 eax, dl
  010bc	89 45 b0	 mov	 DWORD PTR _lB$[ebp], eax

; 501  : 	RGBtoHSL(RGB(lR,lG,lB),&lH,&lS,&lL);

  010bf	8d 4d 84	 lea	 ecx, DWORD PTR _lL$[ebp]
  010c2	51		 push	 ecx
  010c3	8d 55 94	 lea	 edx, DWORD PTR _lS$[ebp]
  010c6	52		 push	 edx
  010c7	8d 45 a4	 lea	 eax, DWORD PTR _lH$[ebp]
  010ca	50		 push	 eax
  010cb	0f b6 4d b8	 movzx	 ecx, BYTE PTR _lR$[ebp]
  010cf	0f b6 55 b4	 movzx	 edx, BYTE PTR _lG$[ebp]
  010d3	c1 e2 08	 shl	 edx, 8
  010d6	0b ca		 or	 ecx, edx
  010d8	0f b6 45 b0	 movzx	 eax, BYTE PTR _lB$[ebp]
  010dc	c1 e0 10	 shl	 eax, 16			; 00000010H
  010df	0b c8		 or	 ecx, eax
  010e1	51		 push	 ecx
  010e2	8b 4d fc	 mov	 ecx, DWORD PTR _this$[ebp]
  010e5	e8 00 00 00 00	 call	 ?RGBtoHSL@CBitMapOperate@@QAEXKPAN00@Z ; CBitMapOperate::RGBtoHSL

; 502  : 
; 503  : 	lH = lH2;

  010ea	dd 45 e0	 fld	 QWORD PTR _lH2$[ebp]
  010ed	dd 5d a4	 fstp	 QWORD PTR _lH$[ebp]

; 504  : 	if(lH > 1.0)

  010f0	dd 45 a4	 fld	 QWORD PTR _lH$[ebp]
  010f3	dc 1d 00 00 00
	00		 fcomp	 QWORD PTR __real@3ff0000000000000
  010f9	df e0		 fnstsw	 ax
  010fb	f6 c4 41	 test	 ah, 65			; 00000041H
  010fe	75 0c		 jne	 SHORT $L188250

; 505  : 		lH -= 1.0;

  01100	dd 45 a4	 fld	 QWORD PTR _lH$[ebp]
  01103	dc 25 00 00 00
	00		 fsub	 QWORD PTR __real@3ff0000000000000
  01109	dd 5d a4	 fstp	 QWORD PTR _lH$[ebp]
$L188250:

; 506  : 	if(lH < 0)

  0110c	dd 45 a4	 fld	 QWORD PTR _lH$[ebp]
  0110f	dc 1d 00 00 00
	00		 fcomp	 QWORD PTR __real@0000000000000000
  01115	df e0		 fnstsw	 ax
  01117	f6 c4 05	 test	 ah, 5
  0111a	7a 0c		 jp	 SHORT $L188251

; 507  : 		lH += 1.0;

  0111c	dd 45 a4	 fld	 QWORD PTR _lH$[ebp]
  0111f	dc 05 00 00 00
	00		 fadd	 QWORD PTR __real@3ff0000000000000
  01125	dd 5d a4	 fstp	 QWORD PTR _lH$[ebp]
$L188251:

; 508  : 
; 509  : 	lL = lL + (lL2 - 0.5)/4;

  01128	dd 45 c0	 fld	 QWORD PTR _lL2$[ebp]
  0112b	dc 25 00 00 00
	00		 fsub	 QWORD PTR __real@3fe0000000000000
  01131	dc 35 00 00 00
	00		 fdiv	 QWORD PTR __real@4010000000000000
  01137	dc 45 84	 fadd	 QWORD PTR _lL$[ebp]
  0113a	dd 5d 84	 fstp	 QWORD PTR _lL$[ebp]

; 510  : 	if(lL > 1.0)

  0113d	dd 45 84	 fld	 QWORD PTR _lL$[ebp]
  01140	dc 1d 00 00 00
	00		 fcomp	 QWORD PTR __real@3ff0000000000000
  01146	df e0		 fnstsw	 ax
  01148	f6 c4 41	 test	 ah, 65			; 00000041H
  0114b	75 09		 jne	 SHORT $L188252

; 511  : 		lL = 1.0;

  0114d	dd 05 00 00 00
	00		 fld	 QWORD PTR __real@3ff0000000000000
  01153	dd 5d 84	 fstp	 QWORD PTR _lL$[ebp]
$L188252:

; 512  : 	if(lL < 0)

  01156	dd 45 84	 fld	 QWORD PTR _lL$[ebp]
  01159	dc 1d 00 00 00
	00		 fcomp	 QWORD PTR __real@0000000000000000
  0115f	df e0		 fnstsw	 ax
  01161	f6 c4 05	 test	 ah, 5
  01164	7a 09		 jp	 SHORT $L188253

; 513  : 		lL = 0;

  01166	dd 05 00 00 00
	00		 fld	 QWORD PTR __real@0000000000000000
  0116c	dd 5d 84	 fstp	 QWORD PTR _lL$[ebp]
$L188253:

; 514  : 	lS = lS + (lS2 - 0.5) * 2;

  0116f	dd 45 d0	 fld	 QWORD PTR _lS2$[ebp]
  01172	dc 25 00 00 00
	00		 fsub	 QWORD PTR __real@3fe0000000000000
  01178	dc c0		 fadd	 ST(0), ST(0)
  0117a	dc 45 94	 fadd	 QWORD PTR _lS$[ebp]
  0117d	dd 5d 94	 fstp	 QWORD PTR _lS$[ebp]

; 515  : 	if(lS > 1.0)

  01180	dd 45 94	 fld	 QWORD PTR _lS$[ebp]
  01183	dc 1d 00 00 00
	00		 fcomp	 QWORD PTR __real@3ff0000000000000
  01189	df e0		 fnstsw	 ax
  0118b	f6 c4 41	 test	 ah, 65			; 00000041H
  0118e	75 09		 jne	 SHORT $L188254

; 516  : 			lS = 1.0;

  01190	dd 05 00 00 00
	00		 fld	 QWORD PTR __real@3ff0000000000000
  01196	dd 5d 94	 fstp	 QWORD PTR _lS$[ebp]
$L188254:

; 517  : 	if(lS < 0)

  01199	dd 45 94	 fld	 QWORD PTR _lS$[ebp]
  0119c	dc 1d 00 00 00
	00		 fcomp	 QWORD PTR __real@0000000000000000
  011a2	df e0		 fnstsw	 ax
  011a4	f6 c4 05	 test	 ah, 5
  011a7	7a 09		 jp	 SHORT $L188255

; 518  : 			lS = 0;

  011a9	dd 05 00 00 00
	00		 fld	 QWORD PTR __real@0000000000000000
  011af	dd 5d 94	 fstp	 QWORD PTR _lS$[ebp]
$L188255:

; 519  : 
; 520  : 	aColor =  HLStoRGB(lH,lL,lS );

  011b2	8d 4d 94	 lea	 ecx, DWORD PTR _lS$[ebp]
  011b5	51		 push	 ecx
  011b6	8d 55 84	 lea	 edx, DWORD PTR _lL$[ebp]
  011b9	52		 push	 edx
  011ba	8d 45 a4	 lea	 eax, DWORD PTR _lH$[ebp]
  011bd	50		 push	 eax
  011be	8b 4d fc	 mov	 ecx, DWORD PTR _this$[ebp]
  011c1	e8 00 00 00 00	 call	 ?HLStoRGB@CBitMapOperate@@QAEKABN00@Z ; CBitMapOperate::HLStoRGB
  011c6	8b 4d 08	 mov	 ecx, DWORD PTR _aColor$[ebp]
  011c9	89 01		 mov	 DWORD PTR [ecx], eax
$L188214:

; 521  : }

  011cb	52		 push	 edx
  011cc	8b cd		 mov	 ecx, ebp
  011ce	50		 push	 eax
  011cf	8d 15 00 00 00
	00		 lea	 edx, DWORD PTR $L189398
  011d5	e8 00 00 00 00	 call	 @_RTC_CheckStackVars@8
  011da	58		 pop	 eax
  011db	5a		 pop	 edx
  011dc	5f		 pop	 edi
  011dd	81 c4 80 00 00
	00		 add	 esp, 128		; 00000080H
  011e3	3b ec		 cmp	 ebp, esp
  011e5	e8 00 00 00 00	 call	 __RTC_CheckEsp
  011ea	8b e5		 mov	 esp, ebp
  011ec	5d		 pop	 ebp
  011ed	c2 0c 00	 ret	 12			; 0000000cH
$L189398:
  011f0	06 00 00 00	 DD	 6
  011f4	00 00 00 00	 DD	 $L189397
$L189397:
  011f8	e0 ff ff ff	 DD	 -32			; ffffffe0H
  011fc	08 00 00 00	 DD	 8
  01200	00 00 00 00	 DD	 $L189391
  01204	d0 ff ff ff	 DD	 -48			; ffffffd0H
  01208	08 00 00 00	 DD	 8
  0120c	00 00 00 00	 DD	 $L189392
  01210	c0 ff ff ff	 DD	 -64			; ffffffc0H
  01214	08 00 00 00	 DD	 8
  01218	00 00 00 00	 DD	 $L189393
  0121c	a4 ff ff ff	 DD	 -92			; ffffffa4H
  01220	08 00 00 00	 DD	 8
  01224	00 00 00 00	 DD	 $L189394
  01228	94 ff ff ff	 DD	 -108			; ffffff94H
  0122c	08 00 00 00	 DD	 8
  01230	00 00 00 00	 DD	 $L189395
  01234	84 ff ff ff	 DD	 -124			; ffffff84H
  01238	08 00 00 00	 DD	 8
  0123c	00 00 00 00	 DD	 $L189396
$L189396:
  01240	6c		 DB	 108			; 0000006cH
  01241	4c		 DB	 76			; 0000004cH
  01242	00		 DB	 0
$L189395:
  01243	6c		 DB	 108			; 0000006cH
  01244	53		 DB	 83			; 00000053H
  01245	00		 DB	 0
$L189394:
  01246	6c		 DB	 108			; 0000006cH
  01247	48		 DB	 72			; 00000048H
  01248	00		 DB	 0
$L189393:
  01249	6c		 DB	 108			; 0000006cH
  0124a	4c		 DB	 76			; 0000004cH
  0124b	32		 DB	 50			; 00000032H
  0124c	00		 DB	 0
$L189392:
  0124d	6c		 DB	 108			; 0000006cH
  0124e	53		 DB	 83			; 00000053H
  0124f	32		 DB	 50			; 00000032H
  01250	00		 DB	 0
$L189391:
  01251	6c		 DB	 108			; 0000006cH
  01252	48		 DB	 72			; 00000048H
  01253	32		 DB	 50			; 00000032H
  01254	00		 DB	 0
?changeColor@CBitMapOperate@@QAEXAAKKI@Z ENDP		; CBitMapOperate::changeColor
_TEXT	ENDS
PUBLIC	?CreateRgnFromBitmap@CBitMapOperate@@QAEPAUHRGN__@@PAUHBITMAP__@@KPAVCWnd@@@Z ; CBitMapOperate::CreateRgnFromBitmap
EXTRN	?GetPixel@CDC@@QBEKHH@Z:NEAR			; CDC::GetPixel
EXTRN	__imp__CombineRgn@16:NEAR
EXTRN	__imp__GetDC@4:NEAR
EXTRN	__imp__CreateRectRgn@16:NEAR
EXTRN	__imp__DeleteObject@4:NEAR
EXTRN	??1CDC@@UAE@XZ:NEAR				; CDC::~CDC
EXTRN	?AfxAssertFailedLine@@YGHPBDH@Z:NEAR		; AfxAssertFailedLine
EXTRN	?SelectObject@CDC@@QAEPAXPAX@Z:NEAR		; CDC::SelectObject
EXTRN	??0CRect@@QAE@HHHH@Z:NEAR			; CRect::CRect
EXTRN	?FromHandle@CDC@@SGPAV1@PAUHDC__@@@Z:NEAR	; CDC::FromHandle
EXTRN	??0CDC@@QAE@XZ:NEAR				; CDC::CDC
EXTRN	?CreateCompatibleDC@CDC@@QAEHPAV1@@Z:NEAR	; CDC::CreateCompatibleDC
EXTRN	?DeleteDC@CDC@@QAEHXZ:NEAR			; CDC::DeleteDC
EXTRN	??_U@YAPAXIPBDH@Z:NEAR				; operator new[]
EXTRN	_memcpy:NEAR
xdata$x	SEGMENT
$T189417 DD	0ffffffffH
	DD	FLAT:$L189409
$T189411 DD	019930520H
	DD	01H
	DD	FLAT:$T189417
	DD	2 DUP(00H)
	DD	2 DUP(00H)
; Function compile flags: /Odt /RTCsu
xdata$x	ENDS
_TEXT	SEGMENT
$T189408 = -156						; size = 4
$T189407 = -152						; size = 4
$T189403 = -148						; size = 4
$T189402 = -144						; size = 4
$T189401 = -140						; size = 16
$T189400 = -124						; size = 4
_hr$188313 = -120					; size = 4
_hRgn$ = -116						; size = 4
_pRgnDataNew$188296 = -112				; size = 4
_pRgnData$ = -108					; size = 4
_ismask$ = -102						; size = 1
_wasfirst$ = -101					; size = 1
_first$ = -100						; size = 4
_j$ = -96						; size = 4
_i$ = -92						; size = 4
_cBlocks$ = -88						; size = 4
_pRects$ = -84						; size = 4
_MAXBUF$ = -80						; size = 4
_RDHDR$ = -76						; size = 4
_dcBmp$ = -68						; size = 16
_bm$ = -44						; size = 24
_this$ = -16						; size = 4
__$EHRec$ = -12						; size = 12
_hBmp$ = 8						; size = 4
_color$ = 12						; size = 4
_pWnd$ = 16						; size = 4
?CreateRgnFromBitmap@CBitMapOperate@@QAEPAUHRGN__@@PAUHBITMAP__@@KPAVCWnd@@@Z PROC NEAR ; CBitMapOperate::CreateRgnFromBitmap
; _this$ = ecx

; 524  : {

  01260	55		 push	 ebp
  01261	8b ec		 mov	 ebp, esp
  01263	6a ff		 push	 -1
  01265	68 00 00 00 00	 push	 __ehhandler$?CreateRgnFromBitmap@CBitMapOperate@@QAEPAUHRGN__@@PAUHBITMAP__@@KPAVCWnd@@@Z
  0126a	64 a1 00 00 00
	00		 mov	 eax, DWORD PTR fs:__except_list
  01270	50		 push	 eax
  01271	64 89 25 00 00
	00 00		 mov	 DWORD PTR fs:__except_list, esp
  01278	81 ec 90 00 00
	00		 sub	 esp, 144		; 00000090H
  0127e	56		 push	 esi
  0127f	57		 push	 edi
  01280	51		 push	 ecx
  01281	8d bd 64 ff ff
	ff		 lea	 edi, DWORD PTR [ebp-156]
  01287	b9 24 00 00 00	 mov	 ecx, 36			; 00000024H
  0128c	b8 cc cc cc cc	 mov	 eax, -858993460		; ccccccccH
  01291	f3 ab		 rep stosd
  01293	59		 pop	 ecx
  01294	89 4d f0	 mov	 DWORD PTR _this$[ebp], ecx

; 525  : 	if (!hBmp) return NULL;

  01297	83 7d 08 00	 cmp	 DWORD PTR _hBmp$[ebp], 0
  0129b	75 07		 jne	 SHORT $L188262
  0129d	33 c0		 xor	 eax, eax
  0129f	e9 ed 03 00 00	 jmp	 $L188261
$L188262:

; 526  : 	if(NULL == pWnd) return NULL;

  012a4	83 7d 10 00	 cmp	 DWORD PTR _pWnd$[ebp], 0
  012a8	75 07		 jne	 SHORT $L188263
  012aa	33 c0		 xor	 eax, eax
  012ac	e9 e0 03 00 00	 jmp	 $L188261
$L188263:

; 527  : 
; 528  : 	BITMAP bm;
; 529  : 	GetObject( hBmp, sizeof(BITMAP), &bm );	// get bitmap attributes

  012b1	8b f4		 mov	 esi, esp
  012b3	8d 45 d4	 lea	 eax, DWORD PTR _bm$[ebp]
  012b6	50		 push	 eax
  012b7	6a 18		 push	 24			; 00000018H
  012b9	8b 4d 08	 mov	 ecx, DWORD PTR _hBmp$[ebp]
  012bc	51		 push	 ecx
  012bd	ff 15 00 00 00
	00		 call	 DWORD PTR __imp__GetObjectA@12
  012c3	3b f4		 cmp	 esi, esp
  012c5	e8 00 00 00 00	 call	 __RTC_CheckEsp

; 530  : 
; 531  : 	CDC dcBmp;

  012ca	8d 4d bc	 lea	 ecx, DWORD PTR _dcBmp$[ebp]
  012cd	e8 00 00 00 00	 call	 ??0CDC@@QAE@XZ		; CDC::CDC
  012d2	c7 45 fc 00 00
	00 00		 mov	 DWORD PTR __$EHRec$[ebp+8], 0

; 532  : 	dcBmp.CreateCompatibleDC(CDC::FromHandle( GetDC(pWnd->m_hWnd) ));	//Creates a memory device context for the bitmap

  012d9	8b f4		 mov	 esi, esp
  012db	8b 55 10	 mov	 edx, DWORD PTR _pWnd$[ebp]
  012de	8b 42 20	 mov	 eax, DWORD PTR [edx+32]
  012e1	50		 push	 eax
  012e2	ff 15 00 00 00
	00		 call	 DWORD PTR __imp__GetDC@4
  012e8	3b f4		 cmp	 esi, esp
  012ea	e8 00 00 00 00	 call	 __RTC_CheckEsp
  012ef	50		 push	 eax
  012f0	e8 00 00 00 00	 call	 ?FromHandle@CDC@@SGPAV1@PAUHDC__@@@Z ; CDC::FromHandle
  012f5	50		 push	 eax
  012f6	8d 4d bc	 lea	 ecx, DWORD PTR _dcBmp$[ebp]
  012f9	e8 00 00 00 00	 call	 ?CreateCompatibleDC@CDC@@QAEHPAV1@@Z ; CDC::CreateCompatibleDC

; 533  : 	dcBmp.SelectObject(hBmp);			//selects the bitmap in the device context

  012fe	8b 4d 08	 mov	 ecx, DWORD PTR _hBmp$[ebp]
  01301	51		 push	 ecx
  01302	8d 4d bc	 lea	 ecx, DWORD PTR _dcBmp$[ebp]
  01305	e8 00 00 00 00	 call	 ?SelectObject@CDC@@QAEPAXPAX@Z ; CDC::SelectObject

; 534  : 
; 535  : 	const DWORD RDHDR = sizeof(RGNDATAHEADER);

  0130a	c7 45 b4 20 00
	00 00		 mov	 DWORD PTR _RDHDR$[ebp], 32 ; 00000020H

; 536  : 	const DWORD MAXBUF = 40;		// size of one block in RECTs

  01311	c7 45 b0 28 00
	00 00		 mov	 DWORD PTR _MAXBUF$[ebp], 40 ; 00000028H

; 537  : 	// (i.e. MAXBUF*sizeof(RECT) in bytes)
; 538  : 	LPRECT	pRects;								
; 539  : 	DWORD	cBlocks = 0;			// number of allocated blocks

  01318	c7 45 a8 00 00
	00 00		 mov	 DWORD PTR _cBlocks$[ebp], 0

; 540  : 
; 541  : 	INT		i, j;					// current position in mask image
; 542  : 	INT		first = 0;				// left position of current scan line

  0131f	c7 45 9c 00 00
	00 00		 mov	 DWORD PTR _first$[ebp], 0

; 543  : 	// where mask was found
; 544  : 	bool	wasfirst = false;		// set when if mask was found in current scan line

  01326	c6 45 9b 00	 mov	 BYTE PTR _wasfirst$[ebp], 0

; 545  : 	bool	ismask;					// set when current color is mask color
; 546  : 
; 547  : 	// allocate memory for region data
; 548  : 	RGNDATAHEADER* pRgnData = (RGNDATAHEADER*)new BYTE[ RDHDR + ++cBlocks * MAXBUF * sizeof(RECT) ];

  0132a	8b 55 a8	 mov	 edx, DWORD PTR _cBlocks$[ebp]
  0132d	83 c2 01	 add	 edx, 1
  01330	89 55 a8	 mov	 DWORD PTR _cBlocks$[ebp], edx
  01333	68 24 02 00 00	 push	 548			; 00000224H
  01338	68 00 00 00 00	 push	 OFFSET FLAT:_THIS_FILE
  0133d	8b 45 a8	 mov	 eax, DWORD PTR _cBlocks$[ebp]
  01340	6b c0 28	 imul	 eax, 40			; 00000028H
  01343	c1 e0 04	 shl	 eax, 4
  01346	83 c0 20	 add	 eax, 32			; 00000020H
  01349	50		 push	 eax
  0134a	e8 00 00 00 00	 call	 ??_U@YAPAXIPBDH@Z	; operator new[]
  0134f	83 c4 0c	 add	 esp, 12			; 0000000cH
  01352	89 45 84	 mov	 DWORD PTR $T189400[ebp], eax
  01355	8b 4d 84	 mov	 ecx, DWORD PTR $T189400[ebp]
  01358	89 4d 94	 mov	 DWORD PTR _pRgnData$[ebp], ecx

; 549  : 	memset( pRgnData, 0, RDHDR + cBlocks * MAXBUF * sizeof(RECT) );

  0135b	8b 55 a8	 mov	 edx, DWORD PTR _cBlocks$[ebp]
  0135e	6b d2 28	 imul	 edx, 40			; 00000028H
  01361	c1 e2 04	 shl	 edx, 4
  01364	83 c2 20	 add	 edx, 32			; 00000020H
  01367	52		 push	 edx
  01368	6a 00		 push	 0
  0136a	8b 45 94	 mov	 eax, DWORD PTR _pRgnData$[ebp]
  0136d	50		 push	 eax
  0136e	e8 00 00 00 00	 call	 _memset
  01373	83 c4 0c	 add	 esp, 12			; 0000000cH

; 550  : 	// fill it by default
; 551  : 	pRgnData->dwSize	= RDHDR;

  01376	8b 4d 94	 mov	 ecx, DWORD PTR _pRgnData$[ebp]
  01379	c7 01 20 00 00
	00		 mov	 DWORD PTR [ecx], 32	; 00000020H

; 552  : 	pRgnData->iType		= RDH_RECTANGLES;

  0137f	8b 55 94	 mov	 edx, DWORD PTR _pRgnData$[ebp]
  01382	c7 42 04 01 00
	00 00		 mov	 DWORD PTR [edx+4], 1

; 553  : 	pRgnData->nCount	= 0;

  01389	8b 45 94	 mov	 eax, DWORD PTR _pRgnData$[ebp]
  0138c	c7 40 08 00 00
	00 00		 mov	 DWORD PTR [eax+8], 0

; 554  : 	for ( i = 0; i < bm.bmHeight; i++ )

  01393	c7 45 a4 00 00
	00 00		 mov	 DWORD PTR _i$[ebp], 0
  0139a	eb 09		 jmp	 SHORT $L188283
$L188284:
  0139c	8b 4d a4	 mov	 ecx, DWORD PTR _i$[ebp]
  0139f	83 c1 01	 add	 ecx, 1
  013a2	89 4d a4	 mov	 DWORD PTR _i$[ebp], ecx
$L188283:
  013a5	8b 55 a4	 mov	 edx, DWORD PTR _i$[ebp]
  013a8	3b 55 dc	 cmp	 edx, DWORD PTR _bm$[ebp+8]
  013ab	0f 8d 8e 01 00
	00		 jge	 $L188285

; 555  : 		for ( j = 0; j < bm.bmWidth; j++ ){

  013b1	c7 45 a0 00 00
	00 00		 mov	 DWORD PTR _j$[ebp], 0
  013b8	eb 09		 jmp	 SHORT $L188286
$L188287:
  013ba	8b 45 a0	 mov	 eax, DWORD PTR _j$[ebp]
  013bd	83 c0 01	 add	 eax, 1
  013c0	89 45 a0	 mov	 DWORD PTR _j$[ebp], eax
$L188286:
  013c3	8b 4d a0	 mov	 ecx, DWORD PTR _j$[ebp]
  013c6	3b 4d d8	 cmp	 ecx, DWORD PTR _bm$[ebp+4]
  013c9	0f 8d 6b 01 00
	00		 jge	 $L188288

; 556  : 			// get color
; 557  : 			ismask=(dcBmp.GetPixel(j,bm.bmHeight-i-1)!=color);

  013cf	8b 55 dc	 mov	 edx, DWORD PTR _bm$[ebp+8]
  013d2	2b 55 a4	 sub	 edx, DWORD PTR _i$[ebp]
  013d5	83 ea 01	 sub	 edx, 1
  013d8	52		 push	 edx
  013d9	8b 45 a0	 mov	 eax, DWORD PTR _j$[ebp]
  013dc	50		 push	 eax
  013dd	8d 4d bc	 lea	 ecx, DWORD PTR _dcBmp$[ebp]
  013e0	e8 00 00 00 00	 call	 ?GetPixel@CDC@@QBEKHH@Z	; CDC::GetPixel
  013e5	33 c9		 xor	 ecx, ecx
  013e7	3b 45 0c	 cmp	 eax, DWORD PTR _color$[ebp]
  013ea	0f 95 c1	 setne	 cl
  013ed	88 4d 9a	 mov	 BYTE PTR _ismask$[ebp], cl

; 558  : 			// place part of scan line as RECT region if transparent color found after mask color or
; 559  : 			// mask color found at the end of mask image
; 560  : 			if (wasfirst && ((ismask && (j==(bm.bmWidth-1)))||(ismask ^ (j<bm.bmWidth)))){

  013f0	0f b6 55 9b	 movzx	 edx, BYTE PTR _wasfirst$[ebp]
  013f4	85 d2		 test	 edx, edx
  013f6	0f 84 1f 01 00
	00		 je	 $L188289
  013fc	0f b6 45 9a	 movzx	 eax, BYTE PTR _ismask$[ebp]
  01400	85 c0		 test	 eax, eax
  01402	74 0b		 je	 SHORT $L188291
  01404	8b 4d d8	 mov	 ecx, DWORD PTR _bm$[ebp+4]
  01407	83 e9 01	 sub	 ecx, 1
  0140a	39 4d a0	 cmp	 DWORD PTR _j$[ebp], ecx
  0140d	74 17		 je	 SHORT $L188290
$L188291:
  0140f	0f b6 55 9a	 movzx	 edx, BYTE PTR _ismask$[ebp]
  01413	8b 45 a0	 mov	 eax, DWORD PTR _j$[ebp]
  01416	33 c9		 xor	 ecx, ecx
  01418	3b 45 d8	 cmp	 eax, DWORD PTR _bm$[ebp+4]
  0141b	0f 9c c1	 setl	 cl
  0141e	33 d1		 xor	 edx, ecx
  01420	0f 84 f5 00 00
	00		 je	 $L188289
$L188290:

; 561  : 				// get offset to RECT array if RGNDATA buffer
; 562  : 				pRects = (LPRECT)((LPBYTE)pRgnData + RDHDR);

  01426	8b 55 94	 mov	 edx, DWORD PTR _pRgnData$[ebp]
  01429	83 c2 20	 add	 edx, 32			; 00000020H
  0142c	89 55 ac	 mov	 DWORD PTR _pRects$[ebp], edx

; 563  : 				// save current RECT
; 564  : 				pRects[ pRgnData->nCount++ ] = CRect( first, bm.bmHeight - i - 1, j+(j==(bm.bmWidth-1)), bm.bmHeight - i );

  0142f	8b 45 dc	 mov	 eax, DWORD PTR _bm$[ebp+8]
  01432	2b 45 a4	 sub	 eax, DWORD PTR _i$[ebp]
  01435	50		 push	 eax
  01436	8b 4d d8	 mov	 ecx, DWORD PTR _bm$[ebp+4]
  01439	83 e9 01	 sub	 ecx, 1
  0143c	33 d2		 xor	 edx, edx
  0143e	39 4d a0	 cmp	 DWORD PTR _j$[ebp], ecx
  01441	0f 94 c2	 sete	 dl
  01444	03 55 a0	 add	 edx, DWORD PTR _j$[ebp]
  01447	52		 push	 edx
  01448	8b 45 dc	 mov	 eax, DWORD PTR _bm$[ebp+8]
  0144b	2b 45 a4	 sub	 eax, DWORD PTR _i$[ebp]
  0144e	83 e8 01	 sub	 eax, 1
  01451	50		 push	 eax
  01452	8b 4d 9c	 mov	 ecx, DWORD PTR _first$[ebp]
  01455	51		 push	 ecx
  01456	8d 8d 74 ff ff
	ff		 lea	 ecx, DWORD PTR $T189401[ebp]
  0145c	e8 00 00 00 00	 call	 ??0CRect@@QAE@HHHH@Z	; CRect::CRect
  01461	8b 55 94	 mov	 edx, DWORD PTR _pRgnData$[ebp]
  01464	8b 4a 08	 mov	 ecx, DWORD PTR [edx+8]
  01467	c1 e1 04	 shl	 ecx, 4
  0146a	03 4d ac	 add	 ecx, DWORD PTR _pRects$[ebp]
  0146d	8b 10		 mov	 edx, DWORD PTR [eax]
  0146f	89 11		 mov	 DWORD PTR [ecx], edx
  01471	8b 50 04	 mov	 edx, DWORD PTR [eax+4]
  01474	89 51 04	 mov	 DWORD PTR [ecx+4], edx
  01477	8b 50 08	 mov	 edx, DWORD PTR [eax+8]
  0147a	89 51 08	 mov	 DWORD PTR [ecx+8], edx
  0147d	8b 40 0c	 mov	 eax, DWORD PTR [eax+12]
  01480	89 41 0c	 mov	 DWORD PTR [ecx+12], eax
  01483	8b 4d 94	 mov	 ecx, DWORD PTR _pRgnData$[ebp]
  01486	8b 51 08	 mov	 edx, DWORD PTR [ecx+8]
  01489	83 c2 01	 add	 edx, 1
  0148c	8b 45 94	 mov	 eax, DWORD PTR _pRgnData$[ebp]
  0148f	89 50 08	 mov	 DWORD PTR [eax+8], edx

; 565  : 				// if buffer full reallocate it
; 566  : 				if ( pRgnData->nCount >= cBlocks * MAXBUF ){

  01492	8b 4d a8	 mov	 ecx, DWORD PTR _cBlocks$[ebp]
  01495	6b c9 28	 imul	 ecx, 40			; 00000028H
  01498	8b 55 94	 mov	 edx, DWORD PTR _pRgnData$[ebp]
  0149b	39 4a 08	 cmp	 DWORD PTR [edx+8], ecx
  0149e	72 75		 jb	 SHORT $L188295

; 567  : 					LPBYTE pRgnDataNew = new BYTE[ RDHDR + ++cBlocks * MAXBUF * sizeof(RECT) ];

  014a0	8b 45 a8	 mov	 eax, DWORD PTR _cBlocks$[ebp]
  014a3	83 c0 01	 add	 eax, 1
  014a6	89 45 a8	 mov	 DWORD PTR _cBlocks$[ebp], eax
  014a9	68 37 02 00 00	 push	 567			; 00000237H
  014ae	68 00 00 00 00	 push	 OFFSET FLAT:_THIS_FILE
  014b3	8b 4d a8	 mov	 ecx, DWORD PTR _cBlocks$[ebp]
  014b6	6b c9 28	 imul	 ecx, 40			; 00000028H
  014b9	c1 e1 04	 shl	 ecx, 4
  014bc	83 c1 20	 add	 ecx, 32			; 00000020H
  014bf	51		 push	 ecx
  014c0	e8 00 00 00 00	 call	 ??_U@YAPAXIPBDH@Z	; operator new[]
  014c5	83 c4 0c	 add	 esp, 12			; 0000000cH
  014c8	89 85 70 ff ff
	ff		 mov	 DWORD PTR $T189402[ebp], eax
  014ce	8b 95 70 ff ff
	ff		 mov	 edx, DWORD PTR $T189402[ebp]
  014d4	89 55 90	 mov	 DWORD PTR _pRgnDataNew$188296[ebp], edx

; 568  : 					memcpy( pRgnDataNew, pRgnData, RDHDR + (cBlocks - 1) * MAXBUF * sizeof(RECT) );

  014d7	8b 45 a8	 mov	 eax, DWORD PTR _cBlocks$[ebp]
  014da	83 e8 01	 sub	 eax, 1
  014dd	6b c0 28	 imul	 eax, 40			; 00000028H
  014e0	c1 e0 04	 shl	 eax, 4
  014e3	83 c0 20	 add	 eax, 32			; 00000020H
  014e6	50		 push	 eax
  014e7	8b 4d 94	 mov	 ecx, DWORD PTR _pRgnData$[ebp]
  014ea	51		 push	 ecx
  014eb	8b 55 90	 mov	 edx, DWORD PTR _pRgnDataNew$188296[ebp]
  014ee	52		 push	 edx
  014ef	e8 00 00 00 00	 call	 _memcpy
  014f4	83 c4 0c	 add	 esp, 12			; 0000000cH

; 569  : 					delete pRgnData;

  014f7	8b 45 94	 mov	 eax, DWORD PTR _pRgnData$[ebp]
  014fa	89 85 6c ff ff
	ff		 mov	 DWORD PTR $T189403[ebp], eax
  01500	8b 8d 6c ff ff
	ff		 mov	 ecx, DWORD PTR $T189403[ebp]
  01506	51		 push	 ecx
  01507	e8 00 00 00 00	 call	 ??3@YAXPAX@Z		; operator delete
  0150c	83 c4 04	 add	 esp, 4

; 570  : 					pRgnData = (RGNDATAHEADER*)pRgnDataNew;

  0150f	8b 55 90	 mov	 edx, DWORD PTR _pRgnDataNew$188296[ebp]
  01512	89 55 94	 mov	 DWORD PTR _pRgnData$[ebp], edx
$L188295:

; 571  : 				}
; 572  : 				wasfirst = false;

  01515	c6 45 9b 00	 mov	 BYTE PTR _wasfirst$[ebp], 0

; 573  : 			} else if ( !wasfirst && ismask ){		// set wasfirst when mask is found

  01519	eb 1a		 jmp	 SHORT $L188303
$L188289:
  0151b	0f b6 45 9b	 movzx	 eax, BYTE PTR _wasfirst$[ebp]
  0151f	85 c0		 test	 eax, eax
  01521	75 12		 jne	 SHORT $L188303
  01523	0f b6 4d 9a	 movzx	 ecx, BYTE PTR _ismask$[ebp]
  01527	85 c9		 test	 ecx, ecx
  01529	74 0a		 je	 SHORT $L188303

; 574  : 				first = j;

  0152b	8b 55 a0	 mov	 edx, DWORD PTR _j$[ebp]
  0152e	89 55 9c	 mov	 DWORD PTR _first$[ebp], edx

; 575  : 				wasfirst = true;

  01531	c6 45 9b 01	 mov	 BYTE PTR _wasfirst$[ebp], 1
$L188303:

; 576  : 			}
; 577  : 		}

  01535	e9 80 fe ff ff	 jmp	 $L188287
$L188288:
  0153a	e9 5d fe ff ff	 jmp	 $L188284
$L188285:

; 578  : 		dcBmp.DeleteDC();	//release the bitmap

  0153f	8d 4d bc	 lea	 ecx, DWORD PTR _dcBmp$[ebp]
  01542	e8 00 00 00 00	 call	 ?DeleteDC@CDC@@QAEHXZ	; CDC::DeleteDC

; 579  : 		// create region
; 580  : 		/*  Under WinNT the ExtCreateRegion returns NULL (by Fable@aramszu.net) */
; 581  : 		//	HRGN hRgn = ExtCreateRegion( NULL, RDHDR + pRgnData->nCount * sizeof(RECT), (LPRGNDATA)pRgnData );
; 582  : 		/* ExtCreateRegion replacement { */
; 583  : 		HRGN hRgn=CreateRectRgn(0, 0, 0, 0);

  01547	8b f4		 mov	 esi, esp
  01549	6a 00		 push	 0
  0154b	6a 00		 push	 0
  0154d	6a 00		 push	 0
  0154f	6a 00		 push	 0
  01551	ff 15 00 00 00
	00		 call	 DWORD PTR __imp__CreateRectRgn@16
  01557	3b f4		 cmp	 esi, esp
  01559	e8 00 00 00 00	 call	 __RTC_CheckEsp
  0155e	89 45 8c	 mov	 DWORD PTR _hRgn$[ebp], eax

; 584  : 		ASSERT( hRgn!=NULL );

  01561	83 7d 8c 00	 cmp	 DWORD PTR _hRgn$[ebp], 0
  01565	75 14		 jne	 SHORT $L189404
  01567	68 48 02 00 00	 push	 584			; 00000248H
  0156c	68 00 00 00 00	 push	 OFFSET FLAT:_THIS_FILE
  01571	e8 00 00 00 00	 call	 ?AfxAssertFailedLine@@YGHPBDH@Z ; AfxAssertFailedLine
  01576	85 c0		 test	 eax, eax
  01578	74 01		 je	 SHORT $L189404
  0157a	cc		 int	 3
$L189404:

; 585  : 		pRects = (LPRECT)((LPBYTE)pRgnData + RDHDR);

  0157b	8b 4d 94	 mov	 ecx, DWORD PTR _pRgnData$[ebp]
  0157e	83 c1 20	 add	 ecx, 32			; 00000020H
  01581	89 4d ac	 mov	 DWORD PTR _pRects$[ebp], ecx

; 586  : 		for(i=0;i<(int)pRgnData->nCount;i++)

  01584	c7 45 a4 00 00
	00 00		 mov	 DWORD PTR _i$[ebp], 0
  0158b	eb 09		 jmp	 SHORT $L188310
$L188311:
  0158d	8b 55 a4	 mov	 edx, DWORD PTR _i$[ebp]
  01590	83 c2 01	 add	 edx, 1
  01593	89 55 a4	 mov	 DWORD PTR _i$[ebp], edx
$L188310:
  01596	8b 45 94	 mov	 eax, DWORD PTR _pRgnData$[ebp]
  01599	8b 4d a4	 mov	 ecx, DWORD PTR _i$[ebp]
  0159c	3b 48 08	 cmp	 ecx, DWORD PTR [eax+8]
  0159f	0f 8d 9c 00 00
	00		 jge	 $L188312

; 587  : 		{
; 588  : 			HRGN hr=CreateRectRgn(pRects[i].left, pRects[i].top, pRects[i].right, pRects[i].bottom);

  015a5	8b 55 a4	 mov	 edx, DWORD PTR _i$[ebp]
  015a8	c1 e2 04	 shl	 edx, 4
  015ab	8b f4		 mov	 esi, esp
  015ad	8b 45 ac	 mov	 eax, DWORD PTR _pRects$[ebp]
  015b0	8b 4c 10 0c	 mov	 ecx, DWORD PTR [eax+edx+12]
  015b4	51		 push	 ecx
  015b5	8b 55 a4	 mov	 edx, DWORD PTR _i$[ebp]
  015b8	c1 e2 04	 shl	 edx, 4
  015bb	8b 45 ac	 mov	 eax, DWORD PTR _pRects$[ebp]
  015be	8b 4c 10 08	 mov	 ecx, DWORD PTR [eax+edx+8]
  015c2	51		 push	 ecx
  015c3	8b 55 a4	 mov	 edx, DWORD PTR _i$[ebp]
  015c6	c1 e2 04	 shl	 edx, 4
  015c9	8b 45 ac	 mov	 eax, DWORD PTR _pRects$[ebp]
  015cc	8b 4c 10 04	 mov	 ecx, DWORD PTR [eax+edx+4]
  015d0	51		 push	 ecx
  015d1	8b 55 a4	 mov	 edx, DWORD PTR _i$[ebp]
  015d4	c1 e2 04	 shl	 edx, 4
  015d7	8b 45 ac	 mov	 eax, DWORD PTR _pRects$[ebp]
  015da	8b 0c 10	 mov	 ecx, DWORD PTR [eax+edx]
  015dd	51		 push	 ecx
  015de	ff 15 00 00 00
	00		 call	 DWORD PTR __imp__CreateRectRgn@16
  015e4	3b f4		 cmp	 esi, esp
  015e6	e8 00 00 00 00	 call	 __RTC_CheckEsp
  015eb	89 45 88	 mov	 DWORD PTR _hr$188313[ebp], eax

; 589  : 			VERIFY(CombineRgn(hRgn, hRgn, hr, RGN_OR)!=ERROR);

  015ee	8b f4		 mov	 esi, esp
  015f0	6a 02		 push	 2
  015f2	8b 55 88	 mov	 edx, DWORD PTR _hr$188313[ebp]
  015f5	52		 push	 edx
  015f6	8b 45 8c	 mov	 eax, DWORD PTR _hRgn$[ebp]
  015f9	50		 push	 eax
  015fa	8b 4d 8c	 mov	 ecx, DWORD PTR _hRgn$[ebp]
  015fd	51		 push	 ecx
  015fe	ff 15 00 00 00
	00		 call	 DWORD PTR __imp__CombineRgn@16
  01604	3b f4		 cmp	 esi, esp
  01606	e8 00 00 00 00	 call	 __RTC_CheckEsp
  0160b	85 c0		 test	 eax, eax
  0160d	75 14		 jne	 SHORT $L189405
  0160f	68 4d 02 00 00	 push	 589			; 0000024dH
  01614	68 00 00 00 00	 push	 OFFSET FLAT:_THIS_FILE
  01619	e8 00 00 00 00	 call	 ?AfxAssertFailedLine@@YGHPBDH@Z ; AfxAssertFailedLine
  0161e	85 c0		 test	 eax, eax
  01620	74 01		 je	 SHORT $L189405
  01622	cc		 int	 3
$L189405:

; 590  : 			if (hr) DeleteObject(hr);

  01623	83 7d 88 00	 cmp	 DWORD PTR _hr$188313[ebp], 0
  01627	74 13		 je	 SHORT $L188315
  01629	8b f4		 mov	 esi, esp
  0162b	8b 45 88	 mov	 eax, DWORD PTR _hr$188313[ebp]
  0162e	50		 push	 eax
  0162f	ff 15 00 00 00
	00		 call	 DWORD PTR __imp__DeleteObject@4
  01635	3b f4		 cmp	 esi, esp
  01637	e8 00 00 00 00	 call	 __RTC_CheckEsp
$L188315:

; 591  : 		}

  0163c	e9 4c ff ff ff	 jmp	 $L188311
$L188312:

; 592  : 		ASSERT( hRgn!=NULL );

  01641	83 7d 8c 00	 cmp	 DWORD PTR _hRgn$[ebp], 0
  01645	75 14		 jne	 SHORT $L189406
  01647	68 50 02 00 00	 push	 592			; 00000250H
  0164c	68 00 00 00 00	 push	 OFFSET FLAT:_THIS_FILE
  01651	e8 00 00 00 00	 call	 ?AfxAssertFailedLine@@YGHPBDH@Z ; AfxAssertFailedLine
  01656	85 c0		 test	 eax, eax
  01658	74 01		 je	 SHORT $L189406
  0165a	cc		 int	 3
$L189406:

; 593  : 		/* } ExtCreateRegion replacement */
; 594  : 
; 595  : 		delete pRgnData;

  0165b	8b 55 94	 mov	 edx, DWORD PTR _pRgnData$[ebp]
  0165e	89 95 68 ff ff
	ff		 mov	 DWORD PTR $T189407[ebp], edx
  01664	8b 85 68 ff ff
	ff		 mov	 eax, DWORD PTR $T189407[ebp]
  0166a	50		 push	 eax
  0166b	e8 00 00 00 00	 call	 ??3@YAXPAX@Z		; operator delete
  01670	83 c4 04	 add	 esp, 4

; 596  : 		return hRgn;

  01673	8b 4d 8c	 mov	 ecx, DWORD PTR _hRgn$[ebp]
  01676	89 8d 64 ff ff
	ff		 mov	 DWORD PTR $T189408[ebp], ecx
  0167c	c7 45 fc ff ff
	ff ff		 mov	 DWORD PTR __$EHRec$[ebp+8], -1
  01683	8d 4d bc	 lea	 ecx, DWORD PTR _dcBmp$[ebp]
  01686	e8 00 00 00 00	 call	 ??1CDC@@UAE@XZ		; CDC::~CDC
  0168b	8b 85 64 ff ff
	ff		 mov	 eax, DWORD PTR $T189408[ebp]
$L188261:

; 597  : }

  01691	52		 push	 edx
  01692	8b cd		 mov	 ecx, ebp
  01694	50		 push	 eax
  01695	8d 15 00 00 00
	00		 lea	 edx, DWORD PTR $L189416
  0169b	e8 00 00 00 00	 call	 @_RTC_CheckStackVars@8
  016a0	58		 pop	 eax
  016a1	5a		 pop	 edx
  016a2	8b 4d f4	 mov	 ecx, DWORD PTR __$EHRec$[ebp]
  016a5	64 89 0d 00 00
	00 00		 mov	 DWORD PTR fs:__except_list, ecx
  016ac	5f		 pop	 edi
  016ad	5e		 pop	 esi
  016ae	81 c4 9c 00 00
	00		 add	 esp, 156		; 0000009cH
  016b4	3b ec		 cmp	 ebp, esp
  016b6	e8 00 00 00 00	 call	 __RTC_CheckEsp
  016bb	8b e5		 mov	 esp, ebp
  016bd	5d		 pop	 ebp
  016be	c2 0c 00	 ret	 12			; 0000000cH
$L189416:
  016c1	02 00 00 00	 DD	 2
  016c5	00 00 00 00	 DD	 $L189415
$L189415:
  016c9	d4 ff ff ff	 DD	 -44			; ffffffd4H
  016cd	18 00 00 00	 DD	 24			; 00000018H
  016d1	00 00 00 00	 DD	 $L189412
  016d5	bc ff ff ff	 DD	 -68			; ffffffbcH
  016d9	10 00 00 00	 DD	 16			; 00000010H
  016dd	00 00 00 00	 DD	 $L189413
$L189413:
  016e1	64		 DB	 100			; 00000064H
  016e2	63		 DB	 99			; 00000063H
  016e3	42		 DB	 66			; 00000042H
  016e4	6d		 DB	 109			; 0000006dH
  016e5	70		 DB	 112			; 00000070H
  016e6	00		 DB	 0
$L189412:
  016e7	62		 DB	 98			; 00000062H
  016e8	6d		 DB	 109			; 0000006dH
  016e9	00		 DB	 0
_TEXT	ENDS
text$x	SEGMENT
$L189409:
  00015	8d 4d bc	 lea	 ecx, DWORD PTR _dcBmp$[ebp]
  00018	e9 00 00 00 00	 jmp	 ??1CDC@@UAE@XZ		; CDC::~CDC
__ehhandler$?CreateRgnFromBitmap@CBitMapOperate@@QAEPAUHRGN__@@PAUHBITMAP__@@KPAVCWnd@@@Z:
  0001d	b8 00 00 00 00	 mov	 eax, OFFSET FLAT:$T189411
  00022	e9 00 00 00 00	 jmp	 ___CxxFrameHandler
text$x	ENDS
?CreateRgnFromBitmap@CBitMapOperate@@QAEPAUHRGN__@@PAUHBITMAP__@@KPAVCWnd@@@Z ENDP ; CBitMapOperate::CreateRgnFromBitmap
EXTRN	__imp__CreateCompatibleBitmap@12:NEAR
EXTRN	__imp__CreateSolidBrush@4:NEAR
EXTRN	__imp__FillRect@12:NEAR
; Function compile flags: /Odt /RTCsu
_TEXT	SEGMENT
tv387 = -160						; size = 4
tv381 = -156						; size = 8
tv358 = -148						; size = 4
tv352 = -144						; size = 8
tv331 = -136						; size = 8
tv329 = -128						; size = 4
tv324 = -124						; size = 8
tv322 = -116						; size = 4
tv319 = -112						; size = 8
tv317 = -104						; size = 4
tv83 = -100						; size = 4
tv81 = -96						; size = 4
tv77 = -92						; size = 4
_nCount$188382 = -88					; size = 4
_nCount$188367 = -84					; size = 4
_hobjOld$188363 = -80					; size = 4
_hbmpMem$188362 = -76					; size = 4
_hdcMem$188361 = -72					; size = 4
_fBStep$188357 = -68					; size = 4
_fGStep$188351 = -64					; size = 4
_fRStep$188347 = -60					; size = 4
_nB$188345 = -56					; size = 4
_nG$188342 = -52					; size = 4
_nR$188340 = -48					; size = 4
_hbrFill$188336 = -44					; size = 4
_rect$188335 = -36					; size = 16
_fStep$188334 = -16					; size = 4
_nHeight$188332 = -12					; size = 4
_nWidth$188331 = -8					; size = 4
_this$ = -4						; size = 4
_DC$ = 8						; size = 4
_aRect$ = 12						; size = 16
_aBeginColor$ = 28					; size = 4
_aEndColor$ = 32					; size = 4
_Orientation$ = 36					; size = 4
_abEclosion$ = 40					; size = 4
_anStep$ = 44						; size = 4
?FillRectangle@CBitMapOperate@@UAEXPAUHDC__@@UtagRECT@@KKW4ENUM_DrawOrientation@1@HI@Z PROC NEAR ; CBitMapOperate::FillRectangle
; _this$ = ecx

; 599  : {

  016f0	55		 push	 ebp
  016f1	8b ec		 mov	 ebp, esp
  016f3	81 ec a0 00 00
	00		 sub	 esp, 160		; 000000a0H
  016f9	56		 push	 esi
  016fa	57		 push	 edi
  016fb	51		 push	 ecx
  016fc	8d bd 60 ff ff
	ff		 lea	 edi, DWORD PTR [ebp-160]
  01702	b9 28 00 00 00	 mov	 ecx, 40			; 00000028H
  01707	b8 cc cc cc cc	 mov	 eax, -858993460		; ccccccccH
  0170c	f3 ab		 rep stosd
  0170e	59		 pop	 ecx
  0170f	89 4d fc	 mov	 DWORD PTR _this$[ebp], ecx

; 600  : 	if(aBeginColor == aEndColor)

  01712	8b 45 1c	 mov	 eax, DWORD PTR _aBeginColor$[ebp]
  01715	3b 45 20	 cmp	 eax, DWORD PTR _aEndColor$[ebp]
  01718	75 41		 jne	 SHORT $L188329

; 601  : 	{
; 602  : 		FillRectangle(DC, aRect, aBeginColor,  abEclosion);

  0171a	8b f4		 mov	 esi, esp
  0171c	8b 4d 28	 mov	 ecx, DWORD PTR _abEclosion$[ebp]
  0171f	51		 push	 ecx
  01720	8b 55 1c	 mov	 edx, DWORD PTR _aBeginColor$[ebp]
  01723	52		 push	 edx
  01724	83 ec 10	 sub	 esp, 16			; 00000010H
  01727	8b c4		 mov	 eax, esp
  01729	8b 4d 0c	 mov	 ecx, DWORD PTR _aRect$[ebp]
  0172c	89 08		 mov	 DWORD PTR [eax], ecx
  0172e	8b 55 10	 mov	 edx, DWORD PTR _aRect$[ebp+4]
  01731	89 50 04	 mov	 DWORD PTR [eax+4], edx
  01734	8b 4d 14	 mov	 ecx, DWORD PTR _aRect$[ebp+8]
  01737	89 48 08	 mov	 DWORD PTR [eax+8], ecx
  0173a	8b 55 18	 mov	 edx, DWORD PTR _aRect$[ebp+12]
  0173d	89 50 0c	 mov	 DWORD PTR [eax+12], edx
  01740	8b 45 08	 mov	 eax, DWORD PTR _DC$[ebp]
  01743	50		 push	 eax
  01744	8b 4d fc	 mov	 ecx, DWORD PTR _this$[ebp]
  01747	8b 11		 mov	 edx, DWORD PTR [ecx]
  01749	8b 4d fc	 mov	 ecx, DWORD PTR _this$[ebp]
  0174c	ff 52 04	 call	 DWORD PTR [edx+4]
  0174f	3b f4		 cmp	 esi, esp
  01751	e8 00 00 00 00	 call	 __RTC_CheckEsp

; 603  : 	}
; 604  : 	else

  01756	e9 ec 03 00 00	 jmp	 $L188328
$L188329:

; 605  : 	{
; 606  : 		int nWidth  = aRect.right  - aRect.left;

  0175b	8b 45 14	 mov	 eax, DWORD PTR _aRect$[ebp+8]
  0175e	2b 45 0c	 sub	 eax, DWORD PTR _aRect$[ebp]
  01761	89 45 f8	 mov	 DWORD PTR _nWidth$188331[ebp], eax

; 607  : 		int nHeight = aRect.bottom - aRect.top;  

  01764	8b 4d 18	 mov	 ecx, DWORD PTR _aRect$[ebp+12]
  01767	2b 4d 10	 sub	 ecx, DWORD PTR _aRect$[ebp+4]
  0176a	89 4d f4	 mov	 DWORD PTR _nHeight$188332[ebp], ecx

; 608  : 		if(!(nWidth<=0|| nHeight<= 0))

  0176d	83 7d f8 00	 cmp	 DWORD PTR _nWidth$188331[ebp], 0
  01771	0f 8e d0 03 00
	00		 jle	 $L188328
  01777	83 7d f4 00	 cmp	 DWORD PTR _nHeight$188332[ebp], 0
  0177b	0f 8e c6 03 00
	00		 jle	 $L188328

; 609  : 		{
; 610  : 			float fStep;
; 611  : 			RECT rect;
; 612  : 			HBRUSH hbrFill;
; 613  : 			anStep = anStep == 1 ?  10:anStep;

  01781	83 7d 2c 01	 cmp	 DWORD PTR _anStep$[ebp], 1
  01785	75 09		 jne	 SHORT $L189419
  01787	c7 45 a4 0a 00
	00 00		 mov	 DWORD PTR tv77[ebp], 10	; 0000000aH
  0178e	eb 06		 jmp	 SHORT $L189420
$L189419:
  01790	8b 55 2c	 mov	 edx, DWORD PTR _anStep$[ebp]
  01793	89 55 a4	 mov	 DWORD PTR tv77[ebp], edx
$L189420:
  01796	8b 45 a4	 mov	 eax, DWORD PTR tv77[ebp]
  01799	89 45 2c	 mov	 DWORD PTR _anStep$[ebp], eax

; 614  : 			if( -1 == anStep)

  0179c	83 7d 2c ff	 cmp	 DWORD PTR _anStep$[ebp], -1
  017a0	75 3e		 jne	 SHORT $L188337

; 615  : 			{
; 616  : 				if(true == Orientation)

  017a2	83 7d 24 01	 cmp	 DWORD PTR _Orientation$[ebp], 1
  017a6	75 1d		 jne	 SHORT $L188338

; 617  : 				{
; 618  : 					anStep = nHeight > 10 ? 10 : nHeight;

  017a8	83 7d f4 0a	 cmp	 DWORD PTR _nHeight$188332[ebp], 10 ; 0000000aH
  017ac	7e 09		 jle	 SHORT $L189421
  017ae	c7 45 a0 0a 00
	00 00		 mov	 DWORD PTR tv81[ebp], 10	; 0000000aH
  017b5	eb 06		 jmp	 SHORT $L189422
$L189421:
  017b7	8b 4d f4	 mov	 ecx, DWORD PTR _nHeight$188332[ebp]
  017ba	89 4d a0	 mov	 DWORD PTR tv81[ebp], ecx
$L189422:
  017bd	8b 55 a0	 mov	 edx, DWORD PTR tv81[ebp]
  017c0	89 55 2c	 mov	 DWORD PTR _anStep$[ebp], edx

; 619  : 
; 620  : 				}
; 621  : 				else

  017c3	eb 1b		 jmp	 SHORT $L188337
$L188338:

; 622  : 				{
; 623  : 					anStep = nWidth >= 10 ? 10: nWidth;

  017c5	83 7d f8 0a	 cmp	 DWORD PTR _nWidth$188331[ebp], 10 ; 0000000aH
  017c9	7c 09		 jl	 SHORT $L189423
  017cb	c7 45 9c 0a 00
	00 00		 mov	 DWORD PTR tv83[ebp], 10	; 0000000aH
  017d2	eb 06		 jmp	 SHORT $L189424
$L189423:
  017d4	8b 45 f8	 mov	 eax, DWORD PTR _nWidth$188331[ebp]
  017d7	89 45 9c	 mov	 DWORD PTR tv83[ebp], eax
$L189424:
  017da	8b 4d 9c	 mov	 ecx, DWORD PTR tv83[ebp]
  017dd	89 4d 2c	 mov	 DWORD PTR _anStep$[ebp], ecx
$L188337:

; 624  : 				}
; 625  : 			}
; 626  : 
; 627  : 			int nR = GetRValue( aBeginColor );

  017e0	0f b6 55 1c	 movzx	 edx, BYTE PTR _aBeginColor$[ebp]
  017e4	89 55 d0	 mov	 DWORD PTR _nR$188340[ebp], edx

; 628  : 			int nG = GetGValue( aBeginColor );

  017e7	0f b7 45 1c	 movzx	 eax, WORD PTR _aBeginColor$[ebp]
  017eb	c1 f8 08	 sar	 eax, 8
  017ee	0f b6 c8	 movzx	 ecx, al
  017f1	89 4d cc	 mov	 DWORD PTR _nG$188342[ebp], ecx

; 629  : 			int nB = GetBValue( aBeginColor );

  017f4	8b 55 1c	 mov	 edx, DWORD PTR _aBeginColor$[ebp]
  017f7	c1 ea 10	 shr	 edx, 16			; 00000010H
  017fa	0f b6 c2	 movzx	 eax, dl
  017fd	89 45 c8	 mov	 DWORD PTR _nB$188345[ebp], eax

; 630  : 
; 631  : 			float fRStep = ( GetRValue( aEndColor ) - GetRValue( aBeginColor ) ) / (float)anStep;

  01800	0f b6 4d 20	 movzx	 ecx, BYTE PTR _aEndColor$[ebp]
  01804	0f b6 55 1c	 movzx	 edx, BYTE PTR _aBeginColor$[ebp]
  01808	2b ca		 sub	 ecx, edx
  0180a	89 4d 98	 mov	 DWORD PTR tv317[ebp], ecx
  0180d	db 45 98	 fild	 DWORD PTR tv317[ebp]
  01810	8b 45 2c	 mov	 eax, DWORD PTR _anStep$[ebp]
  01813	89 45 90	 mov	 DWORD PTR tv319[ebp], eax
  01816	c7 45 94 00 00
	00 00		 mov	 DWORD PTR tv319[ebp+4], 0
  0181d	df 6d 90	 fild	 QWORD PTR tv319[ebp]
  01820	de f9		 fdivp	 ST(1), ST(0)
  01822	d9 5d c4	 fstp	 DWORD PTR _fRStep$188347[ebp]

; 632  : 			float fGStep = ( GetGValue( aEndColor ) - GetGValue( aBeginColor ) ) / (float)anStep;

  01825	0f b7 4d 20	 movzx	 ecx, WORD PTR _aEndColor$[ebp]
  01829	c1 f9 08	 sar	 ecx, 8
  0182c	0f b6 d1	 movzx	 edx, cl
  0182f	0f b7 45 1c	 movzx	 eax, WORD PTR _aBeginColor$[ebp]
  01833	c1 f8 08	 sar	 eax, 8
  01836	0f b6 c8	 movzx	 ecx, al
  01839	2b d1		 sub	 edx, ecx
  0183b	89 55 8c	 mov	 DWORD PTR tv322[ebp], edx
  0183e	db 45 8c	 fild	 DWORD PTR tv322[ebp]
  01841	8b 55 2c	 mov	 edx, DWORD PTR _anStep$[ebp]
  01844	89 55 84	 mov	 DWORD PTR tv324[ebp], edx
  01847	c7 45 88 00 00
	00 00		 mov	 DWORD PTR tv324[ebp+4], 0
  0184e	df 6d 84	 fild	 QWORD PTR tv324[ebp]
  01851	de f9		 fdivp	 ST(1), ST(0)
  01853	d9 5d c0	 fstp	 DWORD PTR _fGStep$188351[ebp]

; 633  : 			float fBStep = ( GetBValue( aEndColor ) - GetBValue( aBeginColor ) ) / (float)anStep;

  01856	8b 45 20	 mov	 eax, DWORD PTR _aEndColor$[ebp]
  01859	c1 e8 10	 shr	 eax, 16			; 00000010H
  0185c	0f b6 c8	 movzx	 ecx, al
  0185f	8b 55 1c	 mov	 edx, DWORD PTR _aBeginColor$[ebp]
  01862	c1 ea 10	 shr	 edx, 16			; 00000010H
  01865	0f b6 c2	 movzx	 eax, dl
  01868	2b c8		 sub	 ecx, eax
  0186a	89 4d 80	 mov	 DWORD PTR tv329[ebp], ecx
  0186d	db 45 80	 fild	 DWORD PTR tv329[ebp]
  01870	8b 4d 2c	 mov	 ecx, DWORD PTR _anStep$[ebp]
  01873	89 8d 78 ff ff
	ff		 mov	 DWORD PTR tv331[ebp], ecx
  01879	c7 85 7c ff ff
	ff 00 00 00 00	 mov	 DWORD PTR tv331[ebp+4], 0
  01883	df ad 78 ff ff
	ff		 fild	 QWORD PTR tv331[ebp]
  01889	de f9		 fdivp	 ST(1), ST(0)
  0188b	d9 5d bc	 fstp	 DWORD PTR _fBStep$188357[ebp]

; 634  : 
; 635  : 			HDC hdcMem   = ::CreateCompatibleDC( DC );

  0188e	8b f4		 mov	 esi, esp
  01890	8b 55 08	 mov	 edx, DWORD PTR _DC$[ebp]
  01893	52		 push	 edx
  01894	ff 15 00 00 00
	00		 call	 DWORD PTR __imp__CreateCompatibleDC@4
  0189a	3b f4		 cmp	 esi, esp
  0189c	e8 00 00 00 00	 call	 __RTC_CheckEsp
  018a1	89 45 b8	 mov	 DWORD PTR _hdcMem$188361[ebp], eax

; 636  : 			HBITMAP hbmpMem  = ::CreateCompatibleBitmap( DC, nWidth, nHeight );

  018a4	8b f4		 mov	 esi, esp
  018a6	8b 45 f4	 mov	 eax, DWORD PTR _nHeight$188332[ebp]
  018a9	50		 push	 eax
  018aa	8b 4d f8	 mov	 ecx, DWORD PTR _nWidth$188331[ebp]
  018ad	51		 push	 ecx
  018ae	8b 55 08	 mov	 edx, DWORD PTR _DC$[ebp]
  018b1	52		 push	 edx
  018b2	ff 15 00 00 00
	00		 call	 DWORD PTR __imp__CreateCompatibleBitmap@12
  018b8	3b f4		 cmp	 esi, esp
  018ba	e8 00 00 00 00	 call	 __RTC_CheckEsp
  018bf	89 45 b4	 mov	 DWORD PTR _hbmpMem$188362[ebp], eax

; 637  : 			HGDIOBJ hobjOld  = ::SelectObject( hdcMem, hbmpMem );

  018c2	8b f4		 mov	 esi, esp
  018c4	8b 45 b4	 mov	 eax, DWORD PTR _hbmpMem$188362[ebp]
  018c7	50		 push	 eax
  018c8	8b 4d b8	 mov	 ecx, DWORD PTR _hdcMem$188361[ebp]
  018cb	51		 push	 ecx
  018cc	ff 15 00 00 00
	00		 call	 DWORD PTR __imp__SelectObject@8
  018d2	3b f4		 cmp	 esi, esp
  018d4	e8 00 00 00 00	 call	 __RTC_CheckEsp
  018d9	89 45 b0	 mov	 DWORD PTR _hobjOld$188363[ebp], eax

; 638  : 
; 639  : 			rect.top = rect.left = 0;

  018dc	c7 45 dc 00 00
	00 00		 mov	 DWORD PTR _rect$188335[ebp], 0
  018e3	8b 55 dc	 mov	 edx, DWORD PTR _rect$188335[ebp]
  018e6	89 55 e0	 mov	 DWORD PTR _rect$188335[ebp+4], edx

; 640  : 
; 641  : 			if ( Orientation )

  018e9	83 7d 24 00	 cmp	 DWORD PTR _Orientation$[ebp], 0
  018ed	0f 84 f6 00 00
	00		 je	 $L188364

; 642  : 			{
; 643  : 				rect.right= nWidth;

  018f3	8b 45 f8	 mov	 eax, DWORD PTR _nWidth$188331[ebp]
  018f6	89 45 e4	 mov	 DWORD PTR _rect$188335[ebp+8], eax

; 644  : 				fStep= (float)nHeight / (float)anStep;

  018f9	db 45 f4	 fild	 DWORD PTR _nHeight$188332[ebp]
  018fc	8b 4d 2c	 mov	 ecx, DWORD PTR _anStep$[ebp]
  018ff	89 8d 70 ff ff
	ff		 mov	 DWORD PTR tv352[ebp], ecx
  01905	c7 85 74 ff ff
	ff 00 00 00 00	 mov	 DWORD PTR tv352[ebp+4], 0
  0190f	df ad 70 ff ff
	ff		 fild	 QWORD PTR tv352[ebp]
  01915	de f9		 fdivp	 ST(1), ST(0)
  01917	d9 5d f0	 fstp	 DWORD PTR _fStep$188334[ebp]

; 645  : 
; 646  : 				for ( int nCount=0; nCount<=(int)anStep; nCount++ )

  0191a	c7 45 ac 00 00
	00 00		 mov	 DWORD PTR _nCount$188367[ebp], 0
  01921	eb 09		 jmp	 SHORT $L188369
$L188370:
  01923	8b 55 ac	 mov	 edx, DWORD PTR _nCount$188367[ebp]
  01926	83 c2 01	 add	 edx, 1
  01929	89 55 ac	 mov	 DWORD PTR _nCount$188367[ebp], edx
$L188369:
  0192c	8b 45 ac	 mov	 eax, DWORD PTR _nCount$188367[ebp]
  0192f	3b 45 2c	 cmp	 eax, DWORD PTR _anStep$[ebp]
  01932	0f 8f ac 00 00
	00		 jg	 $L188371

; 647  : 				{
; 648  : 					rect.bottom = (int)( (nCount+1) * fStep );

  01938	8b 4d ac	 mov	 ecx, DWORD PTR _nCount$188367[ebp]
  0193b	83 c1 01	 add	 ecx, 1
  0193e	89 8d 6c ff ff
	ff		 mov	 DWORD PTR tv358[ebp], ecx
  01944	db 85 6c ff ff
	ff		 fild	 DWORD PTR tv358[ebp]
  0194a	d8 4d f0	 fmul	 DWORD PTR _fStep$188334[ebp]
  0194d	e8 00 00 00 00	 call	 __ftol2
  01952	89 45 e8	 mov	 DWORD PTR _rect$188335[ebp+12], eax

; 649  : 
; 650  : 					hbrFill = ::CreateSolidBrush( RGB( nR+fRStep*nCount, nG+fGStep*nCount, nB+fBStep*nCount ) );

  01955	db 45 d0	 fild	 DWORD PTR _nR$188340[ebp]
  01958	db 45 ac	 fild	 DWORD PTR _nCount$188367[ebp]
  0195b	d8 4d c4	 fmul	 DWORD PTR _fRStep$188347[ebp]
  0195e	de c1		 faddp	 ST(1), ST(0)
  01960	e8 00 00 00 00	 call	 __ftol2
  01965	0f b6 f0	 movzx	 esi, al
  01968	db 45 cc	 fild	 DWORD PTR _nG$188342[ebp]
  0196b	db 45 ac	 fild	 DWORD PTR _nCount$188367[ebp]
  0196e	d8 4d c0	 fmul	 DWORD PTR _fGStep$188351[ebp]
  01971	de c1		 faddp	 ST(1), ST(0)
  01973	e8 00 00 00 00	 call	 __ftol2
  01978	0f b6 d0	 movzx	 edx, al
  0197b	c1 e2 08	 shl	 edx, 8
  0197e	0b f2		 or	 esi, edx
  01980	db 45 c8	 fild	 DWORD PTR _nB$188345[ebp]
  01983	db 45 ac	 fild	 DWORD PTR _nCount$188367[ebp]
  01986	d8 4d bc	 fmul	 DWORD PTR _fBStep$188357[ebp]
  01989	de c1		 faddp	 ST(1), ST(0)
  0198b	e8 00 00 00 00	 call	 __ftol2
  01990	0f b6 c0	 movzx	 eax, al
  01993	c1 e0 10	 shl	 eax, 16			; 00000010H
  01996	0b f0		 or	 esi, eax
  01998	8b fc		 mov	 edi, esp
  0199a	56		 push	 esi
  0199b	ff 15 00 00 00
	00		 call	 DWORD PTR __imp__CreateSolidBrush@4
  019a1	3b fc		 cmp	 edi, esp
  019a3	e8 00 00 00 00	 call	 __RTC_CheckEsp
  019a8	89 45 d4	 mov	 DWORD PTR _hbrFill$188336[ebp], eax

; 651  : 					::FillRect( hdcMem, &rect, hbrFill );

  019ab	8b f4		 mov	 esi, esp
  019ad	8b 4d d4	 mov	 ecx, DWORD PTR _hbrFill$188336[ebp]
  019b0	51		 push	 ecx
  019b1	8d 55 dc	 lea	 edx, DWORD PTR _rect$188335[ebp]
  019b4	52		 push	 edx
  019b5	8b 45 b8	 mov	 eax, DWORD PTR _hdcMem$188361[ebp]
  019b8	50		 push	 eax
  019b9	ff 15 00 00 00
	00		 call	 DWORD PTR __imp__FillRect@12
  019bf	3b f4		 cmp	 esi, esp
  019c1	e8 00 00 00 00	 call	 __RTC_CheckEsp

; 652  : 					::DeleteObject( hbrFill );

  019c6	8b f4		 mov	 esi, esp
  019c8	8b 4d d4	 mov	 ecx, DWORD PTR _hbrFill$188336[ebp]
  019cb	51		 push	 ecx
  019cc	ff 15 00 00 00
	00		 call	 DWORD PTR __imp__DeleteObject@4
  019d2	3b f4		 cmp	 esi, esp
  019d4	e8 00 00 00 00	 call	 __RTC_CheckEsp

; 653  : 
; 654  : 					rect.top = rect.bottom;

  019d9	8b 55 e8	 mov	 edx, DWORD PTR _rect$188335[ebp+12]
  019dc	89 55 e0	 mov	 DWORD PTR _rect$188335[ebp+4], edx

; 655  : 				}

  019df	e9 3f ff ff ff	 jmp	 $L188370
$L188371:

; 656  : 			}
; 657  : 			else

  019e4	e9 f1 00 00 00	 jmp	 $L188379
$L188364:

; 658  : 			{
; 659  : 				rect.bottom = nHeight;

  019e9	8b 45 f4	 mov	 eax, DWORD PTR _nHeight$188332[ebp]
  019ec	89 45 e8	 mov	 DWORD PTR _rect$188335[ebp+12], eax

; 660  : 				fStep= (float)nWidth / (float)anStep;

  019ef	db 45 f8	 fild	 DWORD PTR _nWidth$188331[ebp]
  019f2	8b 4d 2c	 mov	 ecx, DWORD PTR _anStep$[ebp]
  019f5	89 8d 64 ff ff
	ff		 mov	 DWORD PTR tv381[ebp], ecx
  019fb	c7 85 68 ff ff
	ff 00 00 00 00	 mov	 DWORD PTR tv381[ebp+4], 0
  01a05	df ad 64 ff ff
	ff		 fild	 QWORD PTR tv381[ebp]
  01a0b	de f9		 fdivp	 ST(1), ST(0)
  01a0d	d9 5d f0	 fstp	 DWORD PTR _fStep$188334[ebp]

; 661  : 
; 662  : 				for ( int nCount=0; nCount<=(int)anStep; nCount++ )

  01a10	c7 45 a8 00 00
	00 00		 mov	 DWORD PTR _nCount$188382[ebp], 0
  01a17	eb 09		 jmp	 SHORT $L188384
$L188385:
  01a19	8b 55 a8	 mov	 edx, DWORD PTR _nCount$188382[ebp]
  01a1c	83 c2 01	 add	 edx, 1
  01a1f	89 55 a8	 mov	 DWORD PTR _nCount$188382[ebp], edx
$L188384:
  01a22	8b 45 a8	 mov	 eax, DWORD PTR _nCount$188382[ebp]
  01a25	3b 45 2c	 cmp	 eax, DWORD PTR _anStep$[ebp]
  01a28	0f 8f ac 00 00
	00		 jg	 $L188379

; 663  : 				{
; 664  : 					rect.right= (int)( (nCount+1) * fStep );

  01a2e	8b 4d a8	 mov	 ecx, DWORD PTR _nCount$188382[ebp]
  01a31	83 c1 01	 add	 ecx, 1
  01a34	89 8d 60 ff ff
	ff		 mov	 DWORD PTR tv387[ebp], ecx
  01a3a	db 85 60 ff ff
	ff		 fild	 DWORD PTR tv387[ebp]
  01a40	d8 4d f0	 fmul	 DWORD PTR _fStep$188334[ebp]
  01a43	e8 00 00 00 00	 call	 __ftol2
  01a48	89 45 e4	 mov	 DWORD PTR _rect$188335[ebp+8], eax

; 665  : 
; 666  : 					hbrFill = ::CreateSolidBrush( RGB( nR+fRStep*nCount, nG+fGStep*nCount, nB+fBStep*nCount ) );

  01a4b	db 45 d0	 fild	 DWORD PTR _nR$188340[ebp]
  01a4e	db 45 a8	 fild	 DWORD PTR _nCount$188382[ebp]
  01a51	d8 4d c4	 fmul	 DWORD PTR _fRStep$188347[ebp]
  01a54	de c1		 faddp	 ST(1), ST(0)
  01a56	e8 00 00 00 00	 call	 __ftol2
  01a5b	0f b6 f0	 movzx	 esi, al
  01a5e	db 45 cc	 fild	 DWORD PTR _nG$188342[ebp]
  01a61	db 45 a8	 fild	 DWORD PTR _nCount$188382[ebp]
  01a64	d8 4d c0	 fmul	 DWORD PTR _fGStep$188351[ebp]
  01a67	de c1		 faddp	 ST(1), ST(0)
  01a69	e8 00 00 00 00	 call	 __ftol2
  01a6e	0f b6 d0	 movzx	 edx, al
  01a71	c1 e2 08	 shl	 edx, 8
  01a74	0b f2		 or	 esi, edx
  01a76	db 45 c8	 fild	 DWORD PTR _nB$188345[ebp]
  01a79	db 45 a8	 fild	 DWORD PTR _nCount$188382[ebp]
  01a7c	d8 4d bc	 fmul	 DWORD PTR _fBStep$188357[ebp]
  01a7f	de c1		 faddp	 ST(1), ST(0)
  01a81	e8 00 00 00 00	 call	 __ftol2
  01a86	0f b6 c0	 movzx	 eax, al
  01a89	c1 e0 10	 shl	 eax, 16			; 00000010H
  01a8c	0b f0		 or	 esi, eax
  01a8e	8b fc		 mov	 edi, esp
  01a90	56		 push	 esi
  01a91	ff 15 00 00 00
	00		 call	 DWORD PTR __imp__CreateSolidBrush@4
  01a97	3b fc		 cmp	 edi, esp
  01a99	e8 00 00 00 00	 call	 __RTC_CheckEsp
  01a9e	89 45 d4	 mov	 DWORD PTR _hbrFill$188336[ebp], eax

; 667  : 					::FillRect( hdcMem, &rect, hbrFill );

  01aa1	8b f4		 mov	 esi, esp
  01aa3	8b 4d d4	 mov	 ecx, DWORD PTR _hbrFill$188336[ebp]
  01aa6	51		 push	 ecx
  01aa7	8d 55 dc	 lea	 edx, DWORD PTR _rect$188335[ebp]
  01aaa	52		 push	 edx
  01aab	8b 45 b8	 mov	 eax, DWORD PTR _hdcMem$188361[ebp]
  01aae	50		 push	 eax
  01aaf	ff 15 00 00 00
	00		 call	 DWORD PTR __imp__FillRect@12
  01ab5	3b f4		 cmp	 esi, esp
  01ab7	e8 00 00 00 00	 call	 __RTC_CheckEsp

; 668  : 					::DeleteObject( hbrFill );

  01abc	8b f4		 mov	 esi, esp
  01abe	8b 4d d4	 mov	 ecx, DWORD PTR _hbrFill$188336[ebp]
  01ac1	51		 push	 ecx
  01ac2	ff 15 00 00 00
	00		 call	 DWORD PTR __imp__DeleteObject@4
  01ac8	3b f4		 cmp	 esi, esp
  01aca	e8 00 00 00 00	 call	 __RTC_CheckEsp

; 669  : 
; 670  : 					rect.left = rect.right;

  01acf	8b 55 e4	 mov	 edx, DWORD PTR _rect$188335[ebp+8]
  01ad2	89 55 dc	 mov	 DWORD PTR _rect$188335[ebp], edx

; 671  : 				}

  01ad5	e9 3f ff ff ff	 jmp	 $L188385
$L188379:

; 672  : 			}
; 673  : 
; 674  : 			::BitBlt( DC, aRect.left, aRect.top, nWidth, nHeight, hdcMem, 0, 0, SRCCOPY );

  01ada	8b f4		 mov	 esi, esp
  01adc	68 20 00 cc 00	 push	 13369376		; 00cc0020H
  01ae1	6a 00		 push	 0
  01ae3	6a 00		 push	 0
  01ae5	8b 45 b8	 mov	 eax, DWORD PTR _hdcMem$188361[ebp]
  01ae8	50		 push	 eax
  01ae9	8b 4d f4	 mov	 ecx, DWORD PTR _nHeight$188332[ebp]
  01aec	51		 push	 ecx
  01aed	8b 55 f8	 mov	 edx, DWORD PTR _nWidth$188331[ebp]
  01af0	52		 push	 edx
  01af1	8b 45 10	 mov	 eax, DWORD PTR _aRect$[ebp+4]
  01af4	50		 push	 eax
  01af5	8b 4d 0c	 mov	 ecx, DWORD PTR _aRect$[ebp]
  01af8	51		 push	 ecx
  01af9	8b 55 08	 mov	 edx, DWORD PTR _DC$[ebp]
  01afc	52		 push	 edx
  01afd	ff 15 00 00 00
	00		 call	 DWORD PTR __imp__BitBlt@36
  01b03	3b f4		 cmp	 esi, esp
  01b05	e8 00 00 00 00	 call	 __RTC_CheckEsp

; 675  : 
; 676  : 			::SelectObject( hdcMem, hobjOld );

  01b0a	8b f4		 mov	 esi, esp
  01b0c	8b 45 b0	 mov	 eax, DWORD PTR _hobjOld$188363[ebp]
  01b0f	50		 push	 eax
  01b10	8b 4d b8	 mov	 ecx, DWORD PTR _hdcMem$188361[ebp]
  01b13	51		 push	 ecx
  01b14	ff 15 00 00 00
	00		 call	 DWORD PTR __imp__SelectObject@8
  01b1a	3b f4		 cmp	 esi, esp
  01b1c	e8 00 00 00 00	 call	 __RTC_CheckEsp

; 677  : 			::DeleteObject( hbmpMem );

  01b21	8b f4		 mov	 esi, esp
  01b23	8b 55 b4	 mov	 edx, DWORD PTR _hbmpMem$188362[ebp]
  01b26	52		 push	 edx
  01b27	ff 15 00 00 00
	00		 call	 DWORD PTR __imp__DeleteObject@4
  01b2d	3b f4		 cmp	 esi, esp
  01b2f	e8 00 00 00 00	 call	 __RTC_CheckEsp

; 678  : 			::DeleteDC( hdcMem );

  01b34	8b f4		 mov	 esi, esp
  01b36	8b 45 b8	 mov	 eax, DWORD PTR _hdcMem$188361[ebp]
  01b39	50		 push	 eax
  01b3a	ff 15 00 00 00
	00		 call	 DWORD PTR __imp__DeleteDC@4
  01b40	3b f4		 cmp	 esi, esp
  01b42	e8 00 00 00 00	 call	 __RTC_CheckEsp
$L188328:

; 679  : 		}
; 680  : 	}
; 681  : }

  01b47	52		 push	 edx
  01b48	8b cd		 mov	 ecx, ebp
  01b4a	50		 push	 eax
  01b4b	8d 15 00 00 00
	00		 lea	 edx, DWORD PTR $L189427
  01b51	e8 00 00 00 00	 call	 @_RTC_CheckStackVars@8
  01b56	58		 pop	 eax
  01b57	5a		 pop	 edx
  01b58	5f		 pop	 edi
  01b59	5e		 pop	 esi
  01b5a	81 c4 a0 00 00
	00		 add	 esp, 160		; 000000a0H
  01b60	3b ec		 cmp	 ebp, esp
  01b62	e8 00 00 00 00	 call	 __RTC_CheckEsp
  01b67	8b e5		 mov	 esp, ebp
  01b69	5d		 pop	 ebp
  01b6a	c2 28 00	 ret	 40			; 00000028H
$L189427:
  01b6d	01 00 00 00	 DD	 1
  01b71	00 00 00 00	 DD	 $L189426
$L189426:
  01b75	dc ff ff ff	 DD	 -36			; ffffffdcH
  01b79	10 00 00 00	 DD	 16			; 00000010H
  01b7d	00 00 00 00	 DD	 $L189425
$L189425:
  01b81	72		 DB	 114			; 00000072H
  01b82	65		 DB	 101			; 00000065H
  01b83	63		 DB	 99			; 00000063H
  01b84	74		 DB	 116			; 00000074H
  01b85	00		 DB	 0
?FillRectangle@CBitMapOperate@@UAEXPAUHDC__@@UtagRECT@@KKW4ENUM_DrawOrientation@1@HI@Z ENDP ; CBitMapOperate::FillRectangle
_TEXT	ENDS
PUBLIC	__real@406e000000000000
PUBLIC	__real@43700000
;	COMDAT __real@406e000000000000
CONST	SEGMENT
__real@406e000000000000 DQ 0406e000000000000r	; 240
CONST	ENDS
;	COMDAT __real@43700000
CONST	SEGMENT
__real@43700000 DD 043700000r			; 240
; Function compile flags: /Odt /RTCsu
CONST	ENDS
_TEXT	SEGMENT
tv362 = -284						; size = 4
tv356 = -280						; size = 8
tv332 = -272						; size = 4
tv326 = -268						; size = 8
tv303 = -260						; size = 8
tv83 = -252						; size = 4
tv81 = -248						; size = 4
tv77 = -244						; size = 4
$T189440 = -240						; size = 8
$T189439 = -232						; size = 8
$T189438 = -224						; size = 8
$T189437 = -216						; size = 8
$T189436 = -208						; size = 8
$T189435 = -200						; size = 8
_col$188474 = -192					; size = 4
_nCount$188469 = -188					; size = 4
_nCount$188456 = -184					; size = 4
_hobjOld$188452 = -180					; size = 4
_hbmpMem$188451 = -176					; size = 4
_hdcMem$188450 = -172					; size = 4
_fHStep$188448 = -168					; size = 4
_lL2$188437 = -160					; size = 8
_lS2$188436 = -144					; size = 8
_lH2$188435 = -128					; size = 8
_lB2$188434 = -116					; size = 4
_lG2$188433 = -112					; size = 4
_lR2$188432 = -108					; size = 4
_lL1$188421 = -100					; size = 8
_lS1$188420 = -84					; size = 8
_lH1$188419 = -68					; size = 8
_lB1$188418 = -56					; size = 4
_lG1$188417 = -52					; size = 4
_lR1$188416 = -48					; size = 4
_hbrFill$188412 = -44					; size = 4
_rect$188411 = -36					; size = 16
_fStep$188410 = -16					; size = 4
_nHeight$188408 = -12					; size = 4
_nWidth$188407 = -8					; size = 4
_this$ = -4						; size = 4
_DC$ = 8						; size = 4
_aRect$ = 12						; size = 16
_aBeginColor$ = 28					; size = 4
_aEndColor$ = 32					; size = 4
_Orientation$ = 36					; size = 4
_abEclosion$ = 40					; size = 4
_anStep$ = 44						; size = 4
?FillRectangleHue@CBitMapOperate@@UAEXPAUHDC__@@UtagRECT@@KKW4ENUM_DrawOrientation@1@HI@Z PROC NEAR ; CBitMapOperate::FillRectangleHue
; _this$ = ecx

; 683  : {

  01b90	55		 push	 ebp
  01b91	8b ec		 mov	 ebp, esp
  01b93	81 ec 1c 01 00
	00		 sub	 esp, 284		; 0000011cH
  01b99	56		 push	 esi
  01b9a	57		 push	 edi
  01b9b	51		 push	 ecx
  01b9c	8d bd e4 fe ff
	ff		 lea	 edi, DWORD PTR [ebp-284]
  01ba2	b9 47 00 00 00	 mov	 ecx, 71			; 00000047H
  01ba7	b8 cc cc cc cc	 mov	 eax, -858993460		; ccccccccH
  01bac	f3 ab		 rep stosd
  01bae	59		 pop	 ecx
  01baf	89 4d fc	 mov	 DWORD PTR _this$[ebp], ecx

; 684  : 	if(aBeginColor == aEndColor)

  01bb2	8b 45 1c	 mov	 eax, DWORD PTR _aBeginColor$[ebp]
  01bb5	3b 45 20	 cmp	 eax, DWORD PTR _aEndColor$[ebp]
  01bb8	75 41		 jne	 SHORT $L188405

; 685  : 	{
; 686  : 		FillRectangle(DC, aRect, aBeginColor,  abEclosion);

  01bba	8b f4		 mov	 esi, esp
  01bbc	8b 4d 28	 mov	 ecx, DWORD PTR _abEclosion$[ebp]
  01bbf	51		 push	 ecx
  01bc0	8b 55 1c	 mov	 edx, DWORD PTR _aBeginColor$[ebp]
  01bc3	52		 push	 edx
  01bc4	83 ec 10	 sub	 esp, 16			; 00000010H
  01bc7	8b c4		 mov	 eax, esp
  01bc9	8b 4d 0c	 mov	 ecx, DWORD PTR _aRect$[ebp]
  01bcc	89 08		 mov	 DWORD PTR [eax], ecx
  01bce	8b 55 10	 mov	 edx, DWORD PTR _aRect$[ebp+4]
  01bd1	89 50 04	 mov	 DWORD PTR [eax+4], edx
  01bd4	8b 4d 14	 mov	 ecx, DWORD PTR _aRect$[ebp+8]
  01bd7	89 48 08	 mov	 DWORD PTR [eax+8], ecx
  01bda	8b 55 18	 mov	 edx, DWORD PTR _aRect$[ebp+12]
  01bdd	89 50 0c	 mov	 DWORD PTR [eax+12], edx
  01be0	8b 45 08	 mov	 eax, DWORD PTR _DC$[ebp]
  01be3	50		 push	 eax
  01be4	8b 4d fc	 mov	 ecx, DWORD PTR _this$[ebp]
  01be7	8b 11		 mov	 edx, DWORD PTR [ecx]
  01be9	8b 4d fc	 mov	 ecx, DWORD PTR _this$[ebp]
  01bec	ff 52 04	 call	 DWORD PTR [edx+4]
  01bef	3b f4		 cmp	 esi, esp
  01bf1	e8 00 00 00 00	 call	 __RTC_CheckEsp

; 687  : 	}
; 688  : 	else

  01bf6	e9 82 04 00 00	 jmp	 $L188404
$L188405:

; 689  : 	{
; 690  : 		int nWidth  = aRect.right  - aRect.left;

  01bfb	8b 45 14	 mov	 eax, DWORD PTR _aRect$[ebp+8]
  01bfe	2b 45 0c	 sub	 eax, DWORD PTR _aRect$[ebp]
  01c01	89 45 f8	 mov	 DWORD PTR _nWidth$188407[ebp], eax

; 691  : 		int nHeight = aRect.bottom - aRect.top;  

  01c04	8b 4d 18	 mov	 ecx, DWORD PTR _aRect$[ebp+12]
  01c07	2b 4d 10	 sub	 ecx, DWORD PTR _aRect$[ebp+4]
  01c0a	89 4d f4	 mov	 DWORD PTR _nHeight$188408[ebp], ecx

; 692  : 		if(!(nWidth<=0|| nHeight<= 0))

  01c0d	83 7d f8 00	 cmp	 DWORD PTR _nWidth$188407[ebp], 0
  01c11	0f 8e 66 04 00
	00		 jle	 $L188404
  01c17	83 7d f4 00	 cmp	 DWORD PTR _nHeight$188408[ebp], 0
  01c1b	0f 8e 5c 04 00
	00		 jle	 $L188404

; 693  : 		{
; 694  : 			float fStep;
; 695  : 			RECT rect;
; 696  : 			HBRUSH hbrFill;
; 697  : 			anStep = anStep == 1 ?  10:anStep;

  01c21	83 7d 2c 01	 cmp	 DWORD PTR _anStep$[ebp], 1
  01c25	75 0c		 jne	 SHORT $L189429
  01c27	c7 85 0c ff ff
	ff 0a 00 00 00	 mov	 DWORD PTR tv77[ebp], 10	; 0000000aH
  01c31	eb 09		 jmp	 SHORT $L189430
$L189429:
  01c33	8b 55 2c	 mov	 edx, DWORD PTR _anStep$[ebp]
  01c36	89 95 0c ff ff
	ff		 mov	 DWORD PTR tv77[ebp], edx
$L189430:
  01c3c	8b 85 0c ff ff
	ff		 mov	 eax, DWORD PTR tv77[ebp]
  01c42	89 45 2c	 mov	 DWORD PTR _anStep$[ebp], eax

; 698  : 			if( -1 == anStep)

  01c45	83 7d 2c ff	 cmp	 DWORD PTR _anStep$[ebp], -1
  01c49	75 50		 jne	 SHORT $L188413

; 699  : 			{
; 700  : 				if(true == Orientation)

  01c4b	83 7d 24 01	 cmp	 DWORD PTR _Orientation$[ebp], 1
  01c4f	75 26		 jne	 SHORT $L188414

; 701  : 				{
; 702  : 					anStep = nHeight > 10 ? 10 : nHeight;

  01c51	83 7d f4 0a	 cmp	 DWORD PTR _nHeight$188408[ebp], 10 ; 0000000aH
  01c55	7e 0c		 jle	 SHORT $L189431
  01c57	c7 85 08 ff ff
	ff 0a 00 00 00	 mov	 DWORD PTR tv81[ebp], 10	; 0000000aH
  01c61	eb 09		 jmp	 SHORT $L189432
$L189431:
  01c63	8b 4d f4	 mov	 ecx, DWORD PTR _nHeight$188408[ebp]
  01c66	89 8d 08 ff ff
	ff		 mov	 DWORD PTR tv81[ebp], ecx
$L189432:
  01c6c	8b 95 08 ff ff
	ff		 mov	 edx, DWORD PTR tv81[ebp]
  01c72	89 55 2c	 mov	 DWORD PTR _anStep$[ebp], edx

; 703  : 
; 704  : 				}
; 705  : 				else

  01c75	eb 24		 jmp	 SHORT $L188413
$L188414:

; 706  : 				{
; 707  : 					anStep = nWidth >= 10 ? 10: nWidth;

  01c77	83 7d f8 0a	 cmp	 DWORD PTR _nWidth$188407[ebp], 10 ; 0000000aH
  01c7b	7c 0c		 jl	 SHORT $L189433
  01c7d	c7 85 04 ff ff
	ff 0a 00 00 00	 mov	 DWORD PTR tv83[ebp], 10	; 0000000aH
  01c87	eb 09		 jmp	 SHORT $L189434
$L189433:
  01c89	8b 45 f8	 mov	 eax, DWORD PTR _nWidth$188407[ebp]
  01c8c	89 85 04 ff ff
	ff		 mov	 DWORD PTR tv83[ebp], eax
$L189434:
  01c92	8b 8d 04 ff ff
	ff		 mov	 ecx, DWORD PTR tv83[ebp]
  01c98	89 4d 2c	 mov	 DWORD PTR _anStep$[ebp], ecx
$L188413:

; 708  : 				}
; 709  : 			}
; 710  : 
; 711  : 			int    lR1,lG1,lB1;
; 712  : 			double lH1,lS1,lL1;
; 713  : 			lR1 = GetRValue( aBeginColor );

  01c9b	0f b6 55 1c	 movzx	 edx, BYTE PTR _aBeginColor$[ebp]
  01c9f	89 55 d0	 mov	 DWORD PTR _lR1$188416[ebp], edx

; 714  : 			lG1 = GetGValue( aBeginColor );

  01ca2	0f b7 45 1c	 movzx	 eax, WORD PTR _aBeginColor$[ebp]
  01ca6	c1 f8 08	 sar	 eax, 8
  01ca9	0f b6 c8	 movzx	 ecx, al
  01cac	89 4d cc	 mov	 DWORD PTR _lG1$188417[ebp], ecx

; 715  : 			lB1 = GetBValue( aBeginColor );

  01caf	8b 55 1c	 mov	 edx, DWORD PTR _aBeginColor$[ebp]
  01cb2	c1 ea 10	 shr	 edx, 16			; 00000010H
  01cb5	0f b6 c2	 movzx	 eax, dl
  01cb8	89 45 c8	 mov	 DWORD PTR _lB1$188418[ebp], eax

; 716  : 			RGBtoHSL(RGB(lR1,lG1,lB1),&lH1,&lS1,&lL1);

  01cbb	8d 4d 9c	 lea	 ecx, DWORD PTR _lL1$188421[ebp]
  01cbe	51		 push	 ecx
  01cbf	8d 55 ac	 lea	 edx, DWORD PTR _lS1$188420[ebp]
  01cc2	52		 push	 edx
  01cc3	8d 45 bc	 lea	 eax, DWORD PTR _lH1$188419[ebp]
  01cc6	50		 push	 eax
  01cc7	0f b6 4d d0	 movzx	 ecx, BYTE PTR _lR1$188416[ebp]
  01ccb	0f b6 55 cc	 movzx	 edx, BYTE PTR _lG1$188417[ebp]
  01ccf	c1 e2 08	 shl	 edx, 8
  01cd2	0b ca		 or	 ecx, edx
  01cd4	0f b6 45 c8	 movzx	 eax, BYTE PTR _lB1$188418[ebp]
  01cd8	c1 e0 10	 shl	 eax, 16			; 00000010H
  01cdb	0b c8		 or	 ecx, eax
  01cdd	51		 push	 ecx
  01cde	8b 4d fc	 mov	 ecx, DWORD PTR _this$[ebp]
  01ce1	e8 00 00 00 00	 call	 ?RGBtoHSL@CBitMapOperate@@QAEXKPAN00@Z ; CBitMapOperate::RGBtoHSL

; 717  : 
; 718  : 			int    lR2,lG2,lB2;
; 719  : 			double lH2,lS2,lL2;
; 720  : 			lR2 = GetRValue( aEndColor );

  01ce6	0f b6 4d 20	 movzx	 ecx, BYTE PTR _aEndColor$[ebp]
  01cea	89 4d 94	 mov	 DWORD PTR _lR2$188432[ebp], ecx

; 721  : 			lG2 = GetGValue( aEndColor );

  01ced	0f b7 55 20	 movzx	 edx, WORD PTR _aEndColor$[ebp]
  01cf1	c1 fa 08	 sar	 edx, 8
  01cf4	0f b6 c2	 movzx	 eax, dl
  01cf7	89 45 90	 mov	 DWORD PTR _lG2$188433[ebp], eax

; 722  : 			lB2 = GetBValue( aEndColor );

  01cfa	8b 4d 20	 mov	 ecx, DWORD PTR _aEndColor$[ebp]
  01cfd	c1 e9 10	 shr	 ecx, 16			; 00000010H
  01d00	0f b6 d1	 movzx	 edx, cl
  01d03	89 55 8c	 mov	 DWORD PTR _lB2$188434[ebp], edx

; 723  : 			RGBtoHSL(RGB(lR2,lG2,lB2),&lH2,&lS2,&lL2);

  01d06	8d 85 60 ff ff
	ff		 lea	 eax, DWORD PTR _lL2$188437[ebp]
  01d0c	50		 push	 eax
  01d0d	8d 8d 70 ff ff
	ff		 lea	 ecx, DWORD PTR _lS2$188436[ebp]
  01d13	51		 push	 ecx
  01d14	8d 55 80	 lea	 edx, DWORD PTR _lH2$188435[ebp]
  01d17	52		 push	 edx
  01d18	0f b6 45 94	 movzx	 eax, BYTE PTR _lR2$188432[ebp]
  01d1c	0f b6 4d 90	 movzx	 ecx, BYTE PTR _lG2$188433[ebp]
  01d20	c1 e1 08	 shl	 ecx, 8
  01d23	0b c1		 or	 eax, ecx
  01d25	0f b6 55 8c	 movzx	 edx, BYTE PTR _lB2$188434[ebp]
  01d29	c1 e2 10	 shl	 edx, 16			; 00000010H
  01d2c	0b c2		 or	 eax, edx
  01d2e	50		 push	 eax
  01d2f	8b 4d fc	 mov	 ecx, DWORD PTR _this$[ebp]
  01d32	e8 00 00 00 00	 call	 ?RGBtoHSL@CBitMapOperate@@QAEXKPAN00@Z ; CBitMapOperate::RGBtoHSL

; 724  : 
; 725  : 			float fHStep = (1.0 )*240 / (float)anStep;

  01d37	8b 45 2c	 mov	 eax, DWORD PTR _anStep$[ebp]
  01d3a	89 85 fc fe ff
	ff		 mov	 DWORD PTR tv303[ebp], eax
  01d40	c7 85 00 ff ff
	ff 00 00 00 00	 mov	 DWORD PTR tv303[ebp+4], 0
  01d4a	df ad fc fe ff
	ff		 fild	 QWORD PTR tv303[ebp]
  01d50	dc 3d 00 00 00
	00		 fdivr	 QWORD PTR __real@406e000000000000
  01d56	d9 9d 58 ff ff
	ff		 fstp	 DWORD PTR _fHStep$188448[ebp]

; 726  : 			HDC hdcMem   = ::CreateCompatibleDC( DC );

  01d5c	8b f4		 mov	 esi, esp
  01d5e	8b 4d 08	 mov	 ecx, DWORD PTR _DC$[ebp]
  01d61	51		 push	 ecx
  01d62	ff 15 00 00 00
	00		 call	 DWORD PTR __imp__CreateCompatibleDC@4
  01d68	3b f4		 cmp	 esi, esp
  01d6a	e8 00 00 00 00	 call	 __RTC_CheckEsp
  01d6f	89 85 54 ff ff
	ff		 mov	 DWORD PTR _hdcMem$188450[ebp], eax

; 727  : 			HBITMAP hbmpMem  = ::CreateCompatibleBitmap( DC, nWidth, nHeight );

  01d75	8b f4		 mov	 esi, esp
  01d77	8b 55 f4	 mov	 edx, DWORD PTR _nHeight$188408[ebp]
  01d7a	52		 push	 edx
  01d7b	8b 45 f8	 mov	 eax, DWORD PTR _nWidth$188407[ebp]
  01d7e	50		 push	 eax
  01d7f	8b 4d 08	 mov	 ecx, DWORD PTR _DC$[ebp]
  01d82	51		 push	 ecx
  01d83	ff 15 00 00 00
	00		 call	 DWORD PTR __imp__CreateCompatibleBitmap@12
  01d89	3b f4		 cmp	 esi, esp
  01d8b	e8 00 00 00 00	 call	 __RTC_CheckEsp
  01d90	89 85 50 ff ff
	ff		 mov	 DWORD PTR _hbmpMem$188451[ebp], eax

; 728  : 			HGDIOBJ hobjOld  = ::SelectObject( hdcMem, hbmpMem );

  01d96	8b f4		 mov	 esi, esp
  01d98	8b 95 50 ff ff
	ff		 mov	 edx, DWORD PTR _hbmpMem$188451[ebp]
  01d9e	52		 push	 edx
  01d9f	8b 85 54 ff ff
	ff		 mov	 eax, DWORD PTR _hdcMem$188450[ebp]
  01da5	50		 push	 eax
  01da6	ff 15 00 00 00
	00		 call	 DWORD PTR __imp__SelectObject@8
  01dac	3b f4		 cmp	 esi, esp
  01dae	e8 00 00 00 00	 call	 __RTC_CheckEsp
  01db3	89 85 4c ff ff
	ff		 mov	 DWORD PTR _hobjOld$188452[ebp], eax

; 729  : 
; 730  : 			rect.top = rect.left = 0;

  01db9	c7 45 dc 00 00
	00 00		 mov	 DWORD PTR _rect$188411[ebp], 0
  01dc0	8b 4d dc	 mov	 ecx, DWORD PTR _rect$188411[ebp]
  01dc3	89 4d e0	 mov	 DWORD PTR _rect$188411[ebp+4], ecx

; 731  : 
; 732  : 			if ( Orientation )

  01dc6	83 7d 24 00	 cmp	 DWORD PTR _Orientation$[ebp], 0
  01dca	0f 84 15 01 00
	00		 je	 $L188453

; 733  : 			{
; 734  : 				rect.right= nWidth;

  01dd0	8b 55 f8	 mov	 edx, DWORD PTR _nWidth$188407[ebp]
  01dd3	89 55 e4	 mov	 DWORD PTR _rect$188411[ebp+8], edx

; 735  : 				fStep= (float)nHeight / (float)anStep;

  01dd6	db 45 f4	 fild	 DWORD PTR _nHeight$188408[ebp]
  01dd9	8b 45 2c	 mov	 eax, DWORD PTR _anStep$[ebp]
  01ddc	89 85 f4 fe ff
	ff		 mov	 DWORD PTR tv326[ebp], eax
  01de2	c7 85 f8 fe ff
	ff 00 00 00 00	 mov	 DWORD PTR tv326[ebp+4], 0
  01dec	df ad f4 fe ff
	ff		 fild	 QWORD PTR tv326[ebp]
  01df2	de f9		 fdivp	 ST(1), ST(0)
  01df4	d9 5d f0	 fstp	 DWORD PTR _fStep$188410[ebp]

; 736  : 
; 737  : 				for ( int nCount=0; nCount<=(int)anStep; nCount++ )

  01df7	c7 85 48 ff ff
	ff 00 00 00 00	 mov	 DWORD PTR _nCount$188456[ebp], 0
  01e01	eb 0f		 jmp	 SHORT $L188458
$L188459:
  01e03	8b 8d 48 ff ff
	ff		 mov	 ecx, DWORD PTR _nCount$188456[ebp]
  01e09	83 c1 01	 add	 ecx, 1
  01e0c	89 8d 48 ff ff
	ff		 mov	 DWORD PTR _nCount$188456[ebp], ecx
$L188458:
  01e12	8b 95 48 ff ff
	ff		 mov	 edx, DWORD PTR _nCount$188456[ebp]
  01e18	3b 55 2c	 cmp	 edx, DWORD PTR _anStep$[ebp]
  01e1b	0f 8f bf 00 00
	00		 jg	 $L188460

; 738  : 				{
; 739  : 					rect.bottom = (int)( (nCount+1) * fStep );

  01e21	8b 85 48 ff ff
	ff		 mov	 eax, DWORD PTR _nCount$188456[ebp]
  01e27	83 c0 01	 add	 eax, 1
  01e2a	89 85 f0 fe ff
	ff		 mov	 DWORD PTR tv332[ebp], eax
  01e30	db 85 f0 fe ff
	ff		 fild	 DWORD PTR tv332[ebp]
  01e36	d8 4d f0	 fmul	 DWORD PTR _fStep$188410[ebp]
  01e39	e8 00 00 00 00	 call	 __ftol2
  01e3e	89 45 e8	 mov	 DWORD PTR _rect$188411[ebp+12], eax

; 740  : 
; 741  : 					hbrFill = ::CreateSolidBrush( HLStoRGB(lH1+fHStep*nCount/(float)(240) ,0.5,1.0 )  );

  01e41	dd 05 00 00 00
	00		 fld	 QWORD PTR __real@3ff0000000000000
  01e47	dd 9d 38 ff ff
	ff		 fstp	 QWORD PTR $T189435[ebp]
  01e4d	dd 05 00 00 00
	00		 fld	 QWORD PTR __real@3fe0000000000000
  01e53	dd 9d 30 ff ff
	ff		 fstp	 QWORD PTR $T189436[ebp]
  01e59	db 85 48 ff ff
	ff		 fild	 DWORD PTR _nCount$188456[ebp]
  01e5f	d8 8d 58 ff ff
	ff		 fmul	 DWORD PTR _fHStep$188448[ebp]
  01e65	d8 35 00 00 00
	00		 fdiv	 DWORD PTR __real@43700000
  01e6b	dc 45 bc	 fadd	 QWORD PTR _lH1$188419[ebp]
  01e6e	dd 9d 28 ff ff
	ff		 fstp	 QWORD PTR $T189437[ebp]
  01e74	8d 8d 38 ff ff
	ff		 lea	 ecx, DWORD PTR $T189435[ebp]
  01e7a	51		 push	 ecx
  01e7b	8d 95 30 ff ff
	ff		 lea	 edx, DWORD PTR $T189436[ebp]
  01e81	52		 push	 edx
  01e82	8d 85 28 ff ff
	ff		 lea	 eax, DWORD PTR $T189437[ebp]
  01e88	50		 push	 eax
  01e89	8b 4d fc	 mov	 ecx, DWORD PTR _this$[ebp]
  01e8c	e8 00 00 00 00	 call	 ?HLStoRGB@CBitMapOperate@@QAEKABN00@Z ; CBitMapOperate::HLStoRGB
  01e91	8b f4		 mov	 esi, esp
  01e93	50		 push	 eax
  01e94	ff 15 00 00 00
	00		 call	 DWORD PTR __imp__CreateSolidBrush@4
  01e9a	3b f4		 cmp	 esi, esp
  01e9c	e8 00 00 00 00	 call	 __RTC_CheckEsp
  01ea1	89 45 d4	 mov	 DWORD PTR _hbrFill$188412[ebp], eax

; 742  : 					::FillRect( hdcMem, &rect, hbrFill );

  01ea4	8b f4		 mov	 esi, esp
  01ea6	8b 4d d4	 mov	 ecx, DWORD PTR _hbrFill$188412[ebp]
  01ea9	51		 push	 ecx
  01eaa	8d 55 dc	 lea	 edx, DWORD PTR _rect$188411[ebp]
  01ead	52		 push	 edx
  01eae	8b 85 54 ff ff
	ff		 mov	 eax, DWORD PTR _hdcMem$188450[ebp]
  01eb4	50		 push	 eax
  01eb5	ff 15 00 00 00
	00		 call	 DWORD PTR __imp__FillRect@12
  01ebb	3b f4		 cmp	 esi, esp
  01ebd	e8 00 00 00 00	 call	 __RTC_CheckEsp

; 743  : 					::DeleteObject( hbrFill );

  01ec2	8b f4		 mov	 esi, esp
  01ec4	8b 4d d4	 mov	 ecx, DWORD PTR _hbrFill$188412[ebp]
  01ec7	51		 push	 ecx
  01ec8	ff 15 00 00 00
	00		 call	 DWORD PTR __imp__DeleteObject@4
  01ece	3b f4		 cmp	 esi, esp
  01ed0	e8 00 00 00 00	 call	 __RTC_CheckEsp

; 744  : 
; 745  : 					rect.top = rect.bottom;

  01ed5	8b 55 e8	 mov	 edx, DWORD PTR _rect$188411[ebp+12]
  01ed8	89 55 e0	 mov	 DWORD PTR _rect$188411[ebp+4], edx

; 746  : 				}

  01edb	e9 23 ff ff ff	 jmp	 $L188459
$L188460:

; 747  : 			}
; 748  : 			else

  01ee0	e9 1c 01 00 00	 jmp	 $L188466
$L188453:

; 749  : 			{
; 750  : 				rect.bottom = nHeight;

  01ee5	8b 45 f4	 mov	 eax, DWORD PTR _nHeight$188408[ebp]
  01ee8	89 45 e8	 mov	 DWORD PTR _rect$188411[ebp+12], eax

; 751  : 				fStep= (float)nWidth / (float)anStep;

  01eeb	db 45 f8	 fild	 DWORD PTR _nWidth$188407[ebp]
  01eee	8b 4d 2c	 mov	 ecx, DWORD PTR _anStep$[ebp]
  01ef1	89 8d e8 fe ff
	ff		 mov	 DWORD PTR tv356[ebp], ecx
  01ef7	c7 85 ec fe ff
	ff 00 00 00 00	 mov	 DWORD PTR tv356[ebp+4], 0
  01f01	df ad e8 fe ff
	ff		 fild	 QWORD PTR tv356[ebp]
  01f07	de f9		 fdivp	 ST(1), ST(0)
  01f09	d9 5d f0	 fstp	 DWORD PTR _fStep$188410[ebp]

; 752  : 
; 753  : 				for ( int nCount=0; nCount<=anStep; nCount++ )

  01f0c	c7 85 44 ff ff
	ff 00 00 00 00	 mov	 DWORD PTR _nCount$188469[ebp], 0
  01f16	eb 0f		 jmp	 SHORT $L188470
$L188471:
  01f18	8b 95 44 ff ff
	ff		 mov	 edx, DWORD PTR _nCount$188469[ebp]
  01f1e	83 c2 01	 add	 edx, 1
  01f21	89 95 44 ff ff
	ff		 mov	 DWORD PTR _nCount$188469[ebp], edx
$L188470:
  01f27	8b 85 44 ff ff
	ff		 mov	 eax, DWORD PTR _nCount$188469[ebp]
  01f2d	3b 45 2c	 cmp	 eax, DWORD PTR _anStep$[ebp]
  01f30	0f 87 cb 00 00
	00		 ja	 $L188466

; 754  : 				{
; 755  : 					rect.right= (int)( (nCount+1) * fStep );

  01f36	8b 8d 44 ff ff
	ff		 mov	 ecx, DWORD PTR _nCount$188469[ebp]
  01f3c	83 c1 01	 add	 ecx, 1
  01f3f	89 8d e4 fe ff
	ff		 mov	 DWORD PTR tv362[ebp], ecx
  01f45	db 85 e4 fe ff
	ff		 fild	 DWORD PTR tv362[ebp]
  01f4b	d8 4d f0	 fmul	 DWORD PTR _fStep$188410[ebp]
  01f4e	e8 00 00 00 00	 call	 __ftol2
  01f53	89 45 e4	 mov	 DWORD PTR _rect$188411[ebp+8], eax

; 756  : 					COLORREF col = HLStoRGB(lH1+fHStep*nCount/(float)(240) ,0.5,1.0 );

  01f56	dd 05 00 00 00
	00		 fld	 QWORD PTR __real@3ff0000000000000
  01f5c	dd 9d 20 ff ff
	ff		 fstp	 QWORD PTR $T189438[ebp]
  01f62	dd 05 00 00 00
	00		 fld	 QWORD PTR __real@3fe0000000000000
  01f68	dd 9d 18 ff ff
	ff		 fstp	 QWORD PTR $T189439[ebp]
  01f6e	db 85 44 ff ff
	ff		 fild	 DWORD PTR _nCount$188469[ebp]
  01f74	d8 8d 58 ff ff
	ff		 fmul	 DWORD PTR _fHStep$188448[ebp]
  01f7a	d8 35 00 00 00
	00		 fdiv	 DWORD PTR __real@43700000
  01f80	dc 45 bc	 fadd	 QWORD PTR _lH1$188419[ebp]
  01f83	dd 9d 10 ff ff
	ff		 fstp	 QWORD PTR $T189440[ebp]
  01f89	8d 95 20 ff ff
	ff		 lea	 edx, DWORD PTR $T189438[ebp]
  01f8f	52		 push	 edx
  01f90	8d 85 18 ff ff
	ff		 lea	 eax, DWORD PTR $T189439[ebp]
  01f96	50		 push	 eax
  01f97	8d 8d 10 ff ff
	ff		 lea	 ecx, DWORD PTR $T189440[ebp]
  01f9d	51		 push	 ecx
  01f9e	8b 4d fc	 mov	 ecx, DWORD PTR _this$[ebp]
  01fa1	e8 00 00 00 00	 call	 ?HLStoRGB@CBitMapOperate@@QAEKABN00@Z ; CBitMapOperate::HLStoRGB
  01fa6	89 85 40 ff ff
	ff		 mov	 DWORD PTR _col$188474[ebp], eax

; 757  : 					hbrFill = ::CreateSolidBrush( col );

  01fac	8b f4		 mov	 esi, esp
  01fae	8b 95 40 ff ff
	ff		 mov	 edx, DWORD PTR _col$188474[ebp]
  01fb4	52		 push	 edx
  01fb5	ff 15 00 00 00
	00		 call	 DWORD PTR __imp__CreateSolidBrush@4
  01fbb	3b f4		 cmp	 esi, esp
  01fbd	e8 00 00 00 00	 call	 __RTC_CheckEsp
  01fc2	89 45 d4	 mov	 DWORD PTR _hbrFill$188412[ebp], eax

; 758  : 					::FillRect( hdcMem, &rect, hbrFill );

  01fc5	8b f4		 mov	 esi, esp
  01fc7	8b 45 d4	 mov	 eax, DWORD PTR _hbrFill$188412[ebp]
  01fca	50		 push	 eax
  01fcb	8d 4d dc	 lea	 ecx, DWORD PTR _rect$188411[ebp]
  01fce	51		 push	 ecx
  01fcf	8b 95 54 ff ff
	ff		 mov	 edx, DWORD PTR _hdcMem$188450[ebp]
  01fd5	52		 push	 edx
  01fd6	ff 15 00 00 00
	00		 call	 DWORD PTR __imp__FillRect@12
  01fdc	3b f4		 cmp	 esi, esp
  01fde	e8 00 00 00 00	 call	 __RTC_CheckEsp

; 759  : 					::DeleteObject( hbrFill );

  01fe3	8b f4		 mov	 esi, esp
  01fe5	8b 45 d4	 mov	 eax, DWORD PTR _hbrFill$188412[ebp]
  01fe8	50		 push	 eax
  01fe9	ff 15 00 00 00
	00		 call	 DWORD PTR __imp__DeleteObject@4
  01fef	3b f4		 cmp	 esi, esp
  01ff1	e8 00 00 00 00	 call	 __RTC_CheckEsp

; 760  : 
; 761  : 					rect.left = rect.right;

  01ff6	8b 4d e4	 mov	 ecx, DWORD PTR _rect$188411[ebp+8]
  01ff9	89 4d dc	 mov	 DWORD PTR _rect$188411[ebp], ecx

; 762  : 				}

  01ffc	e9 17 ff ff ff	 jmp	 $L188471
$L188466:

; 763  : 			}
; 764  : 
; 765  : 			::BitBlt( DC, aRect.left, aRect.top, nWidth, nHeight, hdcMem, 0, 0, SRCCOPY );

  02001	8b f4		 mov	 esi, esp
  02003	68 20 00 cc 00	 push	 13369376		; 00cc0020H
  02008	6a 00		 push	 0
  0200a	6a 00		 push	 0
  0200c	8b 95 54 ff ff
	ff		 mov	 edx, DWORD PTR _hdcMem$188450[ebp]
  02012	52		 push	 edx
  02013	8b 45 f4	 mov	 eax, DWORD PTR _nHeight$188408[ebp]
  02016	50		 push	 eax
  02017	8b 4d f8	 mov	 ecx, DWORD PTR _nWidth$188407[ebp]
  0201a	51		 push	 ecx
  0201b	8b 55 10	 mov	 edx, DWORD PTR _aRect$[ebp+4]
  0201e	52		 push	 edx
  0201f	8b 45 0c	 mov	 eax, DWORD PTR _aRect$[ebp]
  02022	50		 push	 eax
  02023	8b 4d 08	 mov	 ecx, DWORD PTR _DC$[ebp]
  02026	51		 push	 ecx
  02027	ff 15 00 00 00
	00		 call	 DWORD PTR __imp__BitBlt@36
  0202d	3b f4		 cmp	 esi, esp
  0202f	e8 00 00 00 00	 call	 __RTC_CheckEsp

; 766  : 
; 767  : 			::SelectObject( hdcMem, hobjOld );

  02034	8b f4		 mov	 esi, esp
  02036	8b 95 4c ff ff
	ff		 mov	 edx, DWORD PTR _hobjOld$188452[ebp]
  0203c	52		 push	 edx
  0203d	8b 85 54 ff ff
	ff		 mov	 eax, DWORD PTR _hdcMem$188450[ebp]
  02043	50		 push	 eax
  02044	ff 15 00 00 00
	00		 call	 DWORD PTR __imp__SelectObject@8
  0204a	3b f4		 cmp	 esi, esp
  0204c	e8 00 00 00 00	 call	 __RTC_CheckEsp

; 768  : 			::DeleteObject( hbmpMem );

  02051	8b f4		 mov	 esi, esp
  02053	8b 8d 50 ff ff
	ff		 mov	 ecx, DWORD PTR _hbmpMem$188451[ebp]
  02059	51		 push	 ecx
  0205a	ff 15 00 00 00
	00		 call	 DWORD PTR __imp__DeleteObject@4
  02060	3b f4		 cmp	 esi, esp
  02062	e8 00 00 00 00	 call	 __RTC_CheckEsp

; 769  : 			::DeleteDC( hdcMem );

  02067	8b f4		 mov	 esi, esp
  02069	8b 95 54 ff ff
	ff		 mov	 edx, DWORD PTR _hdcMem$188450[ebp]
  0206f	52		 push	 edx
  02070	ff 15 00 00 00
	00		 call	 DWORD PTR __imp__DeleteDC@4
  02076	3b f4		 cmp	 esi, esp
  02078	e8 00 00 00 00	 call	 __RTC_CheckEsp
$L188404:

; 770  : 		}
; 771  : 	}
; 772  : }

  0207d	52		 push	 edx
  0207e	8b cd		 mov	 ecx, ebp
  02080	50		 push	 eax
  02081	8d 15 00 00 00
	00		 lea	 edx, DWORD PTR $L189453
  02087	e8 00 00 00 00	 call	 @_RTC_CheckStackVars@8
  0208c	58		 pop	 eax
  0208d	5a		 pop	 edx
  0208e	5f		 pop	 edi
  0208f	5e		 pop	 esi
  02090	81 c4 1c 01 00
	00		 add	 esp, 284		; 0000011cH
  02096	3b ec		 cmp	 ebp, esp
  02098	e8 00 00 00 00	 call	 __RTC_CheckEsp
  0209d	8b e5		 mov	 esp, ebp
  0209f	5d		 pop	 ebp
  020a0	c2 28 00	 ret	 40			; 00000028H
$L189453:
  020a3	07 00 00 00	 DD	 7
  020a7	00 00 00 00	 DD	 $L189452
$L189452:
  020ab	dc ff ff ff	 DD	 -36			; ffffffdcH
  020af	10 00 00 00	 DD	 16			; 00000010H
  020b3	00 00 00 00	 DD	 $L189445
  020b7	bc ff ff ff	 DD	 -68			; ffffffbcH
  020bb	08 00 00 00	 DD	 8
  020bf	00 00 00 00	 DD	 $L189446
  020c3	ac ff ff ff	 DD	 -84			; ffffffacH
  020c7	08 00 00 00	 DD	 8
  020cb	00 00 00 00	 DD	 $L189447
  020cf	9c ff ff ff	 DD	 -100			; ffffff9cH
  020d3	08 00 00 00	 DD	 8
  020d7	00 00 00 00	 DD	 $L189448
  020db	80 ff ff ff	 DD	 -128			; ffffff80H
  020df	08 00 00 00	 DD	 8
  020e3	00 00 00 00	 DD	 $L189449
  020e7	70 ff ff ff	 DD	 -144			; ffffff70H
  020eb	08 00 00 00	 DD	 8
  020ef	00 00 00 00	 DD	 $L189450
  020f3	60 ff ff ff	 DD	 -160			; ffffff60H
  020f7	08 00 00 00	 DD	 8
  020fb	00 00 00 00	 DD	 $L189451
$L189451:
  020ff	6c		 DB	 108			; 0000006cH
  02100	4c		 DB	 76			; 0000004cH
  02101	32		 DB	 50			; 00000032H
  02102	00		 DB	 0
$L189450:
  02103	6c		 DB	 108			; 0000006cH
  02104	53		 DB	 83			; 00000053H
  02105	32		 DB	 50			; 00000032H
  02106	00		 DB	 0
$L189449:
  02107	6c		 DB	 108			; 0000006cH
  02108	48		 DB	 72			; 00000048H
  02109	32		 DB	 50			; 00000032H
  0210a	00		 DB	 0
$L189448:
  0210b	6c		 DB	 108			; 0000006cH
  0210c	4c		 DB	 76			; 0000004cH
  0210d	31		 DB	 49			; 00000031H
  0210e	00		 DB	 0
$L189447:
  0210f	6c		 DB	 108			; 0000006cH
  02110	53		 DB	 83			; 00000053H
  02111	31		 DB	 49			; 00000031H
  02112	00		 DB	 0
$L189446:
  02113	6c		 DB	 108			; 0000006cH
  02114	48		 DB	 72			; 00000048H
  02115	31		 DB	 49			; 00000031H
  02116	00		 DB	 0
$L189445:
  02117	72		 DB	 114			; 00000072H
  02118	65		 DB	 101			; 00000065H
  02119	63		 DB	 99			; 00000063H
  0211a	74		 DB	 116			; 00000074H
  0211b	00		 DB	 0
?FillRectangleHue@CBitMapOperate@@UAEXPAUHDC__@@UtagRECT@@KKW4ENUM_DrawOrientation@1@HI@Z ENDP ; CBitMapOperate::FillRectangleHue
_TEXT	ENDS
PUBLIC	__real@436f0000
PUBLIC	?FillRectangleS@CBitMapOperate@@QAEXPAUHDC__@@UtagRECT@@KKIW4ENUM_DrawOrientation@1@HI@Z ; CBitMapOperate::FillRectangleS
;	COMDAT __real@436f0000
CONST	SEGMENT
__real@436f0000 DD 0436f0000r			; 239
; Function compile flags: /Odt /RTCsu
CONST	ENDS
_TEXT	SEGMENT
tv389 = -308						; size = 8
tv383 = -300						; size = 4
tv377 = -296						; size = 8
tv354 = -288						; size = 8
tv348 = -280						; size = 4
tv342 = -276						; size = 8
tv319 = -268						; size = 8
tv85 = -260						; size = 4
tv83 = -256						; size = 4
tv79 = -252						; size = 4
tv65 = -248						; size = 4
$T189468 = -244						; size = 8
$T189467 = -236						; size = 8
$T189466 = -228						; size = 8
$T189465 = -220						; size = 8
$T189464 = -212						; size = 8
$T189463 = -204						; size = 8
_col$188562 = -196					; size = 4
_nCount$188557 = -192					; size = 4
_col$188547 = -188					; size = 4
_nCount$188542 = -184					; size = 4
_hobjOld$188538 = -180					; size = 4
_hbmpMem$188537 = -176					; size = 4
_hdcMem$188536 = -172					; size = 4
_fLStep$188534 = -168					; size = 4
_lL2$188523 = -160					; size = 8
_lS2$188522 = -144					; size = 8
_lH2$188521 = -128					; size = 8
_lB2$188520 = -116					; size = 4
_lG2$188519 = -112					; size = 4
_lR2$188518 = -108					; size = 4
_lL1$188507 = -100					; size = 8
_lS1$188506 = -84					; size = 8
_lH1$188505 = -68					; size = 8
_lB1$188504 = -56					; size = 4
_lG1$188503 = -52					; size = 4
_lR1$188502 = -48					; size = 4
_hbrFill$188498 = -44					; size = 4
_rect$188497 = -36					; size = 16
_fStep$188496 = -16					; size = 4
_nHeight$188494 = -12					; size = 4
_nWidth$188493 = -8					; size = 4
_this$ = -4						; size = 4
_DC$ = 8						; size = 4
_aRect$ = 12						; size = 16
_aBeginColor$ = 28					; size = 4
_aEndColor$ = 32					; size = 4
_aHue$ = 36						; size = 4
_Orientation$ = 40					; size = 4
_abEclosion$ = 44					; size = 4
_anStep$ = 48						; size = 4
?FillRectangleS@CBitMapOperate@@QAEXPAUHDC__@@UtagRECT@@KKIW4ENUM_DrawOrientation@1@HI@Z PROC NEAR ; CBitMapOperate::FillRectangleS
; _this$ = ecx

; 774  : {

  02120	55		 push	 ebp
  02121	8b ec		 mov	 ebp, esp
  02123	81 ec 34 01 00
	00		 sub	 esp, 308		; 00000134H
  02129	56		 push	 esi
  0212a	57		 push	 edi
  0212b	51		 push	 ecx
  0212c	8d bd cc fe ff
	ff		 lea	 edi, DWORD PTR [ebp-308]
  02132	b9 4d 00 00 00	 mov	 ecx, 77			; 0000004dH
  02137	b8 cc cc cc cc	 mov	 eax, -858993460		; ccccccccH
  0213c	f3 ab		 rep stosd
  0213e	59		 pop	 ecx
  0213f	89 4d fc	 mov	 DWORD PTR _this$[ebp], ecx

; 775  : 	aHue = aHue > 239 ? 239 : aHue;

  02142	81 7d 24 ef 00
	00 00		 cmp	 DWORD PTR _aHue$[ebp], 239 ; 000000efH
  02149	76 0c		 jbe	 SHORT $L189455
  0214b	c7 85 08 ff ff
	ff ef 00 00 00	 mov	 DWORD PTR tv65[ebp], 239 ; 000000efH
  02155	eb 09		 jmp	 SHORT $L189456
$L189455:
  02157	8b 45 24	 mov	 eax, DWORD PTR _aHue$[ebp]
  0215a	89 85 08 ff ff
	ff		 mov	 DWORD PTR tv65[ebp], eax
$L189456:
  02160	8b 8d 08 ff ff
	ff		 mov	 ecx, DWORD PTR tv65[ebp]
  02166	89 4d 24	 mov	 DWORD PTR _aHue$[ebp], ecx

; 776  : 	if(aBeginColor == aEndColor)

  02169	8b 55 1c	 mov	 edx, DWORD PTR _aBeginColor$[ebp]
  0216c	3b 55 20	 cmp	 edx, DWORD PTR _aEndColor$[ebp]
  0216f	75 41		 jne	 SHORT $L188491

; 777  : 	{
; 778  : 		FillRectangle(DC, aRect, aBeginColor,  abEclosion);

  02171	8b f4		 mov	 esi, esp
  02173	8b 45 2c	 mov	 eax, DWORD PTR _abEclosion$[ebp]
  02176	50		 push	 eax
  02177	8b 4d 1c	 mov	 ecx, DWORD PTR _aBeginColor$[ebp]
  0217a	51		 push	 ecx
  0217b	83 ec 10	 sub	 esp, 16			; 00000010H
  0217e	8b d4		 mov	 edx, esp
  02180	8b 45 0c	 mov	 eax, DWORD PTR _aRect$[ebp]
  02183	89 02		 mov	 DWORD PTR [edx], eax
  02185	8b 4d 10	 mov	 ecx, DWORD PTR _aRect$[ebp+4]
  02188	89 4a 04	 mov	 DWORD PTR [edx+4], ecx
  0218b	8b 45 14	 mov	 eax, DWORD PTR _aRect$[ebp+8]
  0218e	89 42 08	 mov	 DWORD PTR [edx+8], eax
  02191	8b 4d 18	 mov	 ecx, DWORD PTR _aRect$[ebp+12]
  02194	89 4a 0c	 mov	 DWORD PTR [edx+12], ecx
  02197	8b 55 08	 mov	 edx, DWORD PTR _DC$[ebp]
  0219a	52		 push	 edx
  0219b	8b 45 fc	 mov	 eax, DWORD PTR _this$[ebp]
  0219e	8b 10		 mov	 edx, DWORD PTR [eax]
  021a0	8b 4d fc	 mov	 ecx, DWORD PTR _this$[ebp]
  021a3	ff 52 04	 call	 DWORD PTR [edx+4]
  021a6	3b f4		 cmp	 esi, esp
  021a8	e8 00 00 00 00	 call	 __RTC_CheckEsp

; 779  : 	}
; 780  : 	else

  021ad	e9 cb 04 00 00	 jmp	 $L188490
$L188491:

; 781  : 	{
; 782  : 		int nWidth  = aRect.right  - aRect.left;

  021b2	8b 45 14	 mov	 eax, DWORD PTR _aRect$[ebp+8]
  021b5	2b 45 0c	 sub	 eax, DWORD PTR _aRect$[ebp]
  021b8	89 45 f8	 mov	 DWORD PTR _nWidth$188493[ebp], eax

; 783  : 		int nHeight = aRect.bottom - aRect.top;  

  021bb	8b 4d 18	 mov	 ecx, DWORD PTR _aRect$[ebp+12]
  021be	2b 4d 10	 sub	 ecx, DWORD PTR _aRect$[ebp+4]
  021c1	89 4d f4	 mov	 DWORD PTR _nHeight$188494[ebp], ecx

; 784  : 		if(!(nWidth<=0|| nHeight<= 0))

  021c4	83 7d f8 00	 cmp	 DWORD PTR _nWidth$188493[ebp], 0
  021c8	0f 8e af 04 00
	00		 jle	 $L188490
  021ce	83 7d f4 00	 cmp	 DWORD PTR _nHeight$188494[ebp], 0
  021d2	0f 8e a5 04 00
	00		 jle	 $L188490

; 785  : 		{
; 786  : 			float fStep;
; 787  : 			RECT rect;
; 788  : 			HBRUSH hbrFill;
; 789  : 			anStep = anStep == 1 ?  10:anStep;

  021d8	83 7d 30 01	 cmp	 DWORD PTR _anStep$[ebp], 1
  021dc	75 0c		 jne	 SHORT $L189457
  021de	c7 85 04 ff ff
	ff 0a 00 00 00	 mov	 DWORD PTR tv79[ebp], 10	; 0000000aH
  021e8	eb 09		 jmp	 SHORT $L189458
$L189457:
  021ea	8b 55 30	 mov	 edx, DWORD PTR _anStep$[ebp]
  021ed	89 95 04 ff ff
	ff		 mov	 DWORD PTR tv79[ebp], edx
$L189458:
  021f3	8b 85 04 ff ff
	ff		 mov	 eax, DWORD PTR tv79[ebp]
  021f9	89 45 30	 mov	 DWORD PTR _anStep$[ebp], eax

; 790  : 			if( -1 == anStep)

  021fc	83 7d 30 ff	 cmp	 DWORD PTR _anStep$[ebp], -1
  02200	75 50		 jne	 SHORT $L188499

; 791  : 			{
; 792  : 				if(true == Orientation)

  02202	83 7d 28 01	 cmp	 DWORD PTR _Orientation$[ebp], 1
  02206	75 26		 jne	 SHORT $L188500

; 793  : 				{
; 794  : 					anStep = nHeight > 10 ? 10 : nHeight;

  02208	83 7d f4 0a	 cmp	 DWORD PTR _nHeight$188494[ebp], 10 ; 0000000aH
  0220c	7e 0c		 jle	 SHORT $L189459
  0220e	c7 85 00 ff ff
	ff 0a 00 00 00	 mov	 DWORD PTR tv83[ebp], 10	; 0000000aH
  02218	eb 09		 jmp	 SHORT $L189460
$L189459:
  0221a	8b 4d f4	 mov	 ecx, DWORD PTR _nHeight$188494[ebp]
  0221d	89 8d 00 ff ff
	ff		 mov	 DWORD PTR tv83[ebp], ecx
$L189460:
  02223	8b 95 00 ff ff
	ff		 mov	 edx, DWORD PTR tv83[ebp]
  02229	89 55 30	 mov	 DWORD PTR _anStep$[ebp], edx

; 795  : 
; 796  : 				}
; 797  : 				else

  0222c	eb 24		 jmp	 SHORT $L188499
$L188500:

; 798  : 				{
; 799  : 					anStep = nWidth >= 10 ? 10: nWidth;

  0222e	83 7d f8 0a	 cmp	 DWORD PTR _nWidth$188493[ebp], 10 ; 0000000aH
  02232	7c 0c		 jl	 SHORT $L189461
  02234	c7 85 fc fe ff
	ff 0a 00 00 00	 mov	 DWORD PTR tv85[ebp], 10	; 0000000aH
  0223e	eb 09		 jmp	 SHORT $L189462
$L189461:
  02240	8b 45 f8	 mov	 eax, DWORD PTR _nWidth$188493[ebp]
  02243	89 85 fc fe ff
	ff		 mov	 DWORD PTR tv85[ebp], eax
$L189462:
  02249	8b 8d fc fe ff
	ff		 mov	 ecx, DWORD PTR tv85[ebp]
  0224f	89 4d 30	 mov	 DWORD PTR _anStep$[ebp], ecx
$L188499:

; 800  : 				}
; 801  : 			}
; 802  : 
; 803  : 			int    lR1,lG1,lB1;
; 804  : 			double lH1,lS1,lL1;
; 805  : 			lR1 = GetRValue( aBeginColor );

  02252	0f b6 55 1c	 movzx	 edx, BYTE PTR _aBeginColor$[ebp]
  02256	89 55 d0	 mov	 DWORD PTR _lR1$188502[ebp], edx

; 806  : 			lG1 = GetGValue( aBeginColor );

  02259	0f b7 45 1c	 movzx	 eax, WORD PTR _aBeginColor$[ebp]
  0225d	c1 f8 08	 sar	 eax, 8
  02260	0f b6 c8	 movzx	 ecx, al
  02263	89 4d cc	 mov	 DWORD PTR _lG1$188503[ebp], ecx

; 807  : 			lB1 = GetBValue( aBeginColor );

  02266	8b 55 1c	 mov	 edx, DWORD PTR _aBeginColor$[ebp]
  02269	c1 ea 10	 shr	 edx, 16			; 00000010H
  0226c	0f b6 c2	 movzx	 eax, dl
  0226f	89 45 c8	 mov	 DWORD PTR _lB1$188504[ebp], eax

; 808  : 			RGBtoHSL(RGB(lR1,lG1,lB1),&lH1,&lS1,&lL1);

  02272	8d 4d 9c	 lea	 ecx, DWORD PTR _lL1$188507[ebp]
  02275	51		 push	 ecx
  02276	8d 55 ac	 lea	 edx, DWORD PTR _lS1$188506[ebp]
  02279	52		 push	 edx
  0227a	8d 45 bc	 lea	 eax, DWORD PTR _lH1$188505[ebp]
  0227d	50		 push	 eax
  0227e	0f b6 4d d0	 movzx	 ecx, BYTE PTR _lR1$188502[ebp]
  02282	0f b6 55 cc	 movzx	 edx, BYTE PTR _lG1$188503[ebp]
  02286	c1 e2 08	 shl	 edx, 8
  02289	0b ca		 or	 ecx, edx
  0228b	0f b6 45 c8	 movzx	 eax, BYTE PTR _lB1$188504[ebp]
  0228f	c1 e0 10	 shl	 eax, 16			; 00000010H
  02292	0b c8		 or	 ecx, eax
  02294	51		 push	 ecx
  02295	8b 4d fc	 mov	 ecx, DWORD PTR _this$[ebp]
  02298	e8 00 00 00 00	 call	 ?RGBtoHSL@CBitMapOperate@@QAEXKPAN00@Z ; CBitMapOperate::RGBtoHSL

; 809  : 
; 810  : 			int    lR2,lG2,lB2;
; 811  : 			double lH2,lS2,lL2;
; 812  : 			lR2 = GetRValue( aEndColor );

  0229d	0f b6 4d 20	 movzx	 ecx, BYTE PTR _aEndColor$[ebp]
  022a1	89 4d 94	 mov	 DWORD PTR _lR2$188518[ebp], ecx

; 813  : 			lG2 = GetGValue( aEndColor );

  022a4	0f b7 55 20	 movzx	 edx, WORD PTR _aEndColor$[ebp]
  022a8	c1 fa 08	 sar	 edx, 8
  022ab	0f b6 c2	 movzx	 eax, dl
  022ae	89 45 90	 mov	 DWORD PTR _lG2$188519[ebp], eax

; 814  : 			lB2 = GetBValue( aEndColor );

  022b1	8b 4d 20	 mov	 ecx, DWORD PTR _aEndColor$[ebp]
  022b4	c1 e9 10	 shr	 ecx, 16			; 00000010H
  022b7	0f b6 d1	 movzx	 edx, cl
  022ba	89 55 8c	 mov	 DWORD PTR _lB2$188520[ebp], edx

; 815  : 			RGBtoHSL(RGB(lR2,lG2,lB2),&lH2,&lS2,&lL2);

  022bd	8d 85 60 ff ff
	ff		 lea	 eax, DWORD PTR _lL2$188523[ebp]
  022c3	50		 push	 eax
  022c4	8d 8d 70 ff ff
	ff		 lea	 ecx, DWORD PTR _lS2$188522[ebp]
  022ca	51		 push	 ecx
  022cb	8d 55 80	 lea	 edx, DWORD PTR _lH2$188521[ebp]
  022ce	52		 push	 edx
  022cf	0f b6 45 94	 movzx	 eax, BYTE PTR _lR2$188518[ebp]
  022d3	0f b6 4d 90	 movzx	 ecx, BYTE PTR _lG2$188519[ebp]
  022d7	c1 e1 08	 shl	 ecx, 8
  022da	0b c1		 or	 eax, ecx
  022dc	0f b6 55 8c	 movzx	 edx, BYTE PTR _lB2$188520[ebp]
  022e0	c1 e2 10	 shl	 edx, 16			; 00000010H
  022e3	0b c2		 or	 eax, edx
  022e5	50		 push	 eax
  022e6	8b 4d fc	 mov	 ecx, DWORD PTR _this$[ebp]
  022e9	e8 00 00 00 00	 call	 ?RGBtoHSL@CBitMapOperate@@QAEXKPAN00@Z ; CBitMapOperate::RGBtoHSL

; 816  : 
; 817  : 			float fLStep = ( lS2 - lS1 )*240 / (float)anStep;

  022ee	dd 85 70 ff ff
	ff		 fld	 QWORD PTR _lS2$188522[ebp]
  022f4	dc 65 ac	 fsub	 QWORD PTR _lS1$188506[ebp]
  022f7	dc 0d 00 00 00
	00		 fmul	 QWORD PTR __real@406e000000000000
  022fd	8b 45 30	 mov	 eax, DWORD PTR _anStep$[ebp]
  02300	89 85 f4 fe ff
	ff		 mov	 DWORD PTR tv319[ebp], eax
  02306	c7 85 f8 fe ff
	ff 00 00 00 00	 mov	 DWORD PTR tv319[ebp+4], 0
  02310	df ad f4 fe ff
	ff		 fild	 QWORD PTR tv319[ebp]
  02316	de f9		 fdivp	 ST(1), ST(0)
  02318	d9 9d 58 ff ff
	ff		 fstp	 DWORD PTR _fLStep$188534[ebp]

; 818  : 			HDC hdcMem   = ::CreateCompatibleDC( DC );

  0231e	8b f4		 mov	 esi, esp
  02320	8b 4d 08	 mov	 ecx, DWORD PTR _DC$[ebp]
  02323	51		 push	 ecx
  02324	ff 15 00 00 00
	00		 call	 DWORD PTR __imp__CreateCompatibleDC@4
  0232a	3b f4		 cmp	 esi, esp
  0232c	e8 00 00 00 00	 call	 __RTC_CheckEsp
  02331	89 85 54 ff ff
	ff		 mov	 DWORD PTR _hdcMem$188536[ebp], eax

; 819  : 			HBITMAP hbmpMem  = ::CreateCompatibleBitmap( DC, nWidth, nHeight );

  02337	8b f4		 mov	 esi, esp
  02339	8b 55 f4	 mov	 edx, DWORD PTR _nHeight$188494[ebp]
  0233c	52		 push	 edx
  0233d	8b 45 f8	 mov	 eax, DWORD PTR _nWidth$188493[ebp]
  02340	50		 push	 eax
  02341	8b 4d 08	 mov	 ecx, DWORD PTR _DC$[ebp]
  02344	51		 push	 ecx
  02345	ff 15 00 00 00
	00		 call	 DWORD PTR __imp__CreateCompatibleBitmap@12
  0234b	3b f4		 cmp	 esi, esp
  0234d	e8 00 00 00 00	 call	 __RTC_CheckEsp
  02352	89 85 50 ff ff
	ff		 mov	 DWORD PTR _hbmpMem$188537[ebp], eax

; 820  : 			HGDIOBJ hobjOld  = ::SelectObject( hdcMem, hbmpMem );

  02358	8b f4		 mov	 esi, esp
  0235a	8b 95 50 ff ff
	ff		 mov	 edx, DWORD PTR _hbmpMem$188537[ebp]
  02360	52		 push	 edx
  02361	8b 85 54 ff ff
	ff		 mov	 eax, DWORD PTR _hdcMem$188536[ebp]
  02367	50		 push	 eax
  02368	ff 15 00 00 00
	00		 call	 DWORD PTR __imp__SelectObject@8
  0236e	3b f4		 cmp	 esi, esp
  02370	e8 00 00 00 00	 call	 __RTC_CheckEsp
  02375	89 85 4c ff ff
	ff		 mov	 DWORD PTR _hobjOld$188538[ebp], eax

; 821  : 
; 822  : 			rect.top = rect.left = 0;

  0237b	c7 45 dc 00 00
	00 00		 mov	 DWORD PTR _rect$188497[ebp], 0
  02382	8b 4d dc	 mov	 ecx, DWORD PTR _rect$188497[ebp]
  02385	89 4d e0	 mov	 DWORD PTR _rect$188497[ebp+4], ecx

; 823  : 
; 824  : 			if ( Orientation )

  02388	83 7d 28 00	 cmp	 DWORD PTR _Orientation$[ebp], 0
  0238c	0f 84 3a 01 00
	00		 je	 $L188539

; 825  : 			{
; 826  : 				rect.right= nWidth;

  02392	8b 55 f8	 mov	 edx, DWORD PTR _nWidth$188493[ebp]
  02395	89 55 e4	 mov	 DWORD PTR _rect$188497[ebp+8], edx

; 827  : 				fStep= (float)nHeight / (float)anStep;

  02398	db 45 f4	 fild	 DWORD PTR _nHeight$188494[ebp]
  0239b	8b 45 30	 mov	 eax, DWORD PTR _anStep$[ebp]
  0239e	89 85 ec fe ff
	ff		 mov	 DWORD PTR tv342[ebp], eax
  023a4	c7 85 f0 fe ff
	ff 00 00 00 00	 mov	 DWORD PTR tv342[ebp+4], 0
  023ae	df ad ec fe ff
	ff		 fild	 QWORD PTR tv342[ebp]
  023b4	de f9		 fdivp	 ST(1), ST(0)
  023b6	d9 5d f0	 fstp	 DWORD PTR _fStep$188496[ebp]

; 828  : 
; 829  : 				for ( int nCount=0; nCount<=anStep; nCount++ )

  023b9	c7 85 48 ff ff
	ff 00 00 00 00	 mov	 DWORD PTR _nCount$188542[ebp], 0
  023c3	eb 0f		 jmp	 SHORT $L188543
$L188544:
  023c5	8b 8d 48 ff ff
	ff		 mov	 ecx, DWORD PTR _nCount$188542[ebp]
  023cb	83 c1 01	 add	 ecx, 1
  023ce	89 8d 48 ff ff
	ff		 mov	 DWORD PTR _nCount$188542[ebp], ecx
$L188543:
  023d4	8b 95 48 ff ff
	ff		 mov	 edx, DWORD PTR _nCount$188542[ebp]
  023da	3b 55 30	 cmp	 edx, DWORD PTR _anStep$[ebp]
  023dd	0f 87 e4 00 00
	00		 ja	 $L188545

; 830  : 				{
; 831  : 					rect.bottom = (int)( (nCount+1) * fStep );

  023e3	8b 85 48 ff ff
	ff		 mov	 eax, DWORD PTR _nCount$188542[ebp]
  023e9	83 c0 01	 add	 eax, 1
  023ec	89 85 e8 fe ff
	ff		 mov	 DWORD PTR tv348[ebp], eax
  023f2	db 85 e8 fe ff
	ff		 fild	 DWORD PTR tv348[ebp]
  023f8	d8 4d f0	 fmul	 DWORD PTR _fStep$188496[ebp]
  023fb	e8 00 00 00 00	 call	 __ftol2
  02400	89 45 e8	 mov	 DWORD PTR _rect$188497[ebp+12], eax

; 832  : 
; 833  : 					COLORREF col = HLStoRGB((double)(aHue/(float)(239) ) ,0.5, lS1+fLStep*nCount/(float)(240) );

  02403	db 85 48 ff ff
	ff		 fild	 DWORD PTR _nCount$188542[ebp]
  02409	d8 8d 58 ff ff
	ff		 fmul	 DWORD PTR _fLStep$188534[ebp]
  0240f	d8 35 00 00 00
	00		 fdiv	 DWORD PTR __real@43700000
  02415	dc 45 ac	 fadd	 QWORD PTR _lS1$188506[ebp]
  02418	dd 9d 34 ff ff
	ff		 fstp	 QWORD PTR $T189463[ebp]
  0241e	dd 05 00 00 00
	00		 fld	 QWORD PTR __real@3fe0000000000000
  02424	dd 9d 2c ff ff
	ff		 fstp	 QWORD PTR $T189464[ebp]
  0242a	8b 4d 24	 mov	 ecx, DWORD PTR _aHue$[ebp]
  0242d	89 8d e0 fe ff
	ff		 mov	 DWORD PTR tv354[ebp], ecx
  02433	c7 85 e4 fe ff
	ff 00 00 00 00	 mov	 DWORD PTR tv354[ebp+4], 0
  0243d	df ad e0 fe ff
	ff		 fild	 QWORD PTR tv354[ebp]
  02443	d8 35 00 00 00
	00		 fdiv	 DWORD PTR __real@436f0000
  02449	dd 9d 24 ff ff
	ff		 fstp	 QWORD PTR $T189465[ebp]
  0244f	8d 95 34 ff ff
	ff		 lea	 edx, DWORD PTR $T189463[ebp]
  02455	52		 push	 edx
  02456	8d 85 2c ff ff
	ff		 lea	 eax, DWORD PTR $T189464[ebp]
  0245c	50		 push	 eax
  0245d	8d 8d 24 ff ff
	ff		 lea	 ecx, DWORD PTR $T189465[ebp]
  02463	51		 push	 ecx
  02464	8b 4d fc	 mov	 ecx, DWORD PTR _this$[ebp]
  02467	e8 00 00 00 00	 call	 ?HLStoRGB@CBitMapOperate@@QAEKABN00@Z ; CBitMapOperate::HLStoRGB
  0246c	89 85 44 ff ff
	ff		 mov	 DWORD PTR _col$188547[ebp], eax

; 834  : 					hbrFill = ::CreateSolidBrush( col );

  02472	8b f4		 mov	 esi, esp
  02474	8b 95 44 ff ff
	ff		 mov	 edx, DWORD PTR _col$188547[ebp]
  0247a	52		 push	 edx
  0247b	ff 15 00 00 00
	00		 call	 DWORD PTR __imp__CreateSolidBrush@4
  02481	3b f4		 cmp	 esi, esp
  02483	e8 00 00 00 00	 call	 __RTC_CheckEsp
  02488	89 45 d4	 mov	 DWORD PTR _hbrFill$188498[ebp], eax

; 835  : 					::FillRect( hdcMem, &rect, hbrFill );

  0248b	8b f4		 mov	 esi, esp
  0248d	8b 45 d4	 mov	 eax, DWORD PTR _hbrFill$188498[ebp]
  02490	50		 push	 eax
  02491	8d 4d dc	 lea	 ecx, DWORD PTR _rect$188497[ebp]
  02494	51		 push	 ecx
  02495	8b 95 54 ff ff
	ff		 mov	 edx, DWORD PTR _hdcMem$188536[ebp]
  0249b	52		 push	 edx
  0249c	ff 15 00 00 00
	00		 call	 DWORD PTR __imp__FillRect@12
  024a2	3b f4		 cmp	 esi, esp
  024a4	e8 00 00 00 00	 call	 __RTC_CheckEsp

; 836  : 					::DeleteObject( hbrFill );

  024a9	8b f4		 mov	 esi, esp
  024ab	8b 45 d4	 mov	 eax, DWORD PTR _hbrFill$188498[ebp]
  024ae	50		 push	 eax
  024af	ff 15 00 00 00
	00		 call	 DWORD PTR __imp__DeleteObject@4
  024b5	3b f4		 cmp	 esi, esp
  024b7	e8 00 00 00 00	 call	 __RTC_CheckEsp

; 837  : 
; 838  : 					rect.top = rect.bottom;

  024bc	8b 4d e8	 mov	 ecx, DWORD PTR _rect$188497[ebp+12]
  024bf	89 4d e0	 mov	 DWORD PTR _rect$188497[ebp+4], ecx

; 839  : 				}

  024c2	e9 fe fe ff ff	 jmp	 $L188544
$L188545:

; 840  : 			}
; 841  : 			else

  024c7	e9 35 01 00 00	 jmp	 $L188554
$L188539:

; 842  : 			{
; 843  : 				rect.bottom = nHeight;

  024cc	8b 55 f4	 mov	 edx, DWORD PTR _nHeight$188494[ebp]
  024cf	89 55 e8	 mov	 DWORD PTR _rect$188497[ebp+12], edx

; 844  : 				fStep= (float)nWidth / (float)anStep;

  024d2	db 45 f8	 fild	 DWORD PTR _nWidth$188493[ebp]
  024d5	8b 45 30	 mov	 eax, DWORD PTR _anStep$[ebp]
  024d8	89 85 d8 fe ff
	ff		 mov	 DWORD PTR tv377[ebp], eax
  024de	c7 85 dc fe ff
	ff 00 00 00 00	 mov	 DWORD PTR tv377[ebp+4], 0
  024e8	df ad d8 fe ff
	ff		 fild	 QWORD PTR tv377[ebp]
  024ee	de f9		 fdivp	 ST(1), ST(0)
  024f0	d9 5d f0	 fstp	 DWORD PTR _fStep$188496[ebp]

; 845  : 
; 846  : 				for ( int nCount=0; nCount<=anStep; nCount++ )

  024f3	c7 85 40 ff ff
	ff 00 00 00 00	 mov	 DWORD PTR _nCount$188557[ebp], 0
  024fd	eb 0f		 jmp	 SHORT $L188558
$L188559:
  024ff	8b 8d 40 ff ff
	ff		 mov	 ecx, DWORD PTR _nCount$188557[ebp]
  02505	83 c1 01	 add	 ecx, 1
  02508	89 8d 40 ff ff
	ff		 mov	 DWORD PTR _nCount$188557[ebp], ecx
$L188558:
  0250e	8b 95 40 ff ff
	ff		 mov	 edx, DWORD PTR _nCount$188557[ebp]
  02514	3b 55 30	 cmp	 edx, DWORD PTR _anStep$[ebp]
  02517	0f 87 e4 00 00
	00		 ja	 $L188554

; 847  : 				{				
; 848  : 					rect.right= (int)( (nCount+1) * fStep );

  0251d	8b 85 40 ff ff
	ff		 mov	 eax, DWORD PTR _nCount$188557[ebp]
  02523	83 c0 01	 add	 eax, 1
  02526	89 85 d4 fe ff
	ff		 mov	 DWORD PTR tv383[ebp], eax
  0252c	db 85 d4 fe ff
	ff		 fild	 DWORD PTR tv383[ebp]
  02532	d8 4d f0	 fmul	 DWORD PTR _fStep$188496[ebp]
  02535	e8 00 00 00 00	 call	 __ftol2
  0253a	89 45 e4	 mov	 DWORD PTR _rect$188497[ebp+8], eax

; 849  : 					COLORREF col = HLStoRGB((double)(aHue/(float)(239)) ,0.5,lS1+fLStep*nCount/(float)(240));

  0253d	db 85 40 ff ff
	ff		 fild	 DWORD PTR _nCount$188557[ebp]
  02543	d8 8d 58 ff ff
	ff		 fmul	 DWORD PTR _fLStep$188534[ebp]
  02549	d8 35 00 00 00
	00		 fdiv	 DWORD PTR __real@43700000
  0254f	dc 45 ac	 fadd	 QWORD PTR _lS1$188506[ebp]
  02552	dd 9d 1c ff ff
	ff		 fstp	 QWORD PTR $T189466[ebp]
  02558	dd 05 00 00 00
	00		 fld	 QWORD PTR __real@3fe0000000000000
  0255e	dd 9d 14 ff ff
	ff		 fstp	 QWORD PTR $T189467[ebp]
  02564	8b 4d 24	 mov	 ecx, DWORD PTR _aHue$[ebp]
  02567	89 8d cc fe ff
	ff		 mov	 DWORD PTR tv389[ebp], ecx
  0256d	c7 85 d0 fe ff
	ff 00 00 00 00	 mov	 DWORD PTR tv389[ebp+4], 0
  02577	df ad cc fe ff
	ff		 fild	 QWORD PTR tv389[ebp]
  0257d	d8 35 00 00 00
	00		 fdiv	 DWORD PTR __real@436f0000
  02583	dd 9d 0c ff ff
	ff		 fstp	 QWORD PTR $T189468[ebp]
  02589	8d 95 1c ff ff
	ff		 lea	 edx, DWORD PTR $T189466[ebp]
  0258f	52		 push	 edx
  02590	8d 85 14 ff ff
	ff		 lea	 eax, DWORD PTR $T189467[ebp]
  02596	50		 push	 eax
  02597	8d 8d 0c ff ff
	ff		 lea	 ecx, DWORD PTR $T189468[ebp]
  0259d	51		 push	 ecx
  0259e	8b 4d fc	 mov	 ecx, DWORD PTR _this$[ebp]
  025a1	e8 00 00 00 00	 call	 ?HLStoRGB@CBitMapOperate@@QAEKABN00@Z ; CBitMapOperate::HLStoRGB
  025a6	89 85 3c ff ff
	ff		 mov	 DWORD PTR _col$188562[ebp], eax

; 850  : 					hbrFill = ::CreateSolidBrush( col );

  025ac	8b f4		 mov	 esi, esp
  025ae	8b 95 3c ff ff
	ff		 mov	 edx, DWORD PTR _col$188562[ebp]
  025b4	52		 push	 edx
  025b5	ff 15 00 00 00
	00		 call	 DWORD PTR __imp__CreateSolidBrush@4
  025bb	3b f4		 cmp	 esi, esp
  025bd	e8 00 00 00 00	 call	 __RTC_CheckEsp
  025c2	89 45 d4	 mov	 DWORD PTR _hbrFill$188498[ebp], eax

; 851  : 					::FillRect( hdcMem, &rect, hbrFill );

  025c5	8b f4		 mov	 esi, esp
  025c7	8b 45 d4	 mov	 eax, DWORD PTR _hbrFill$188498[ebp]
  025ca	50		 push	 eax
  025cb	8d 4d dc	 lea	 ecx, DWORD PTR _rect$188497[ebp]
  025ce	51		 push	 ecx
  025cf	8b 95 54 ff ff
	ff		 mov	 edx, DWORD PTR _hdcMem$188536[ebp]
  025d5	52		 push	 edx
  025d6	ff 15 00 00 00
	00		 call	 DWORD PTR __imp__FillRect@12
  025dc	3b f4		 cmp	 esi, esp
  025de	e8 00 00 00 00	 call	 __RTC_CheckEsp

; 852  : 					::DeleteObject( hbrFill );

  025e3	8b f4		 mov	 esi, esp
  025e5	8b 45 d4	 mov	 eax, DWORD PTR _hbrFill$188498[ebp]
  025e8	50		 push	 eax
  025e9	ff 15 00 00 00
	00		 call	 DWORD PTR __imp__DeleteObject@4
  025ef	3b f4		 cmp	 esi, esp
  025f1	e8 00 00 00 00	 call	 __RTC_CheckEsp

; 853  : 
; 854  : 					rect.left = rect.right;

  025f6	8b 4d e4	 mov	 ecx, DWORD PTR _rect$188497[ebp+8]
  025f9	89 4d dc	 mov	 DWORD PTR _rect$188497[ebp], ecx

; 855  : 				}

  025fc	e9 fe fe ff ff	 jmp	 $L188559
$L188554:

; 856  : 			}
; 857  : 
; 858  : 			::BitBlt( DC, aRect.left, aRect.top, nWidth, nHeight, hdcMem, 0, 0, SRCCOPY );

  02601	8b f4		 mov	 esi, esp
  02603	68 20 00 cc 00	 push	 13369376		; 00cc0020H
  02608	6a 00		 push	 0
  0260a	6a 00		 push	 0
  0260c	8b 95 54 ff ff
	ff		 mov	 edx, DWORD PTR _hdcMem$188536[ebp]
  02612	52		 push	 edx
  02613	8b 45 f4	 mov	 eax, DWORD PTR _nHeight$188494[ebp]
  02616	50		 push	 eax
  02617	8b 4d f8	 mov	 ecx, DWORD PTR _nWidth$188493[ebp]
  0261a	51		 push	 ecx
  0261b	8b 55 10	 mov	 edx, DWORD PTR _aRect$[ebp+4]
  0261e	52		 push	 edx
  0261f	8b 45 0c	 mov	 eax, DWORD PTR _aRect$[ebp]
  02622	50		 push	 eax
  02623	8b 4d 08	 mov	 ecx, DWORD PTR _DC$[ebp]
  02626	51		 push	 ecx
  02627	ff 15 00 00 00
	00		 call	 DWORD PTR __imp__BitBlt@36
  0262d	3b f4		 cmp	 esi, esp
  0262f	e8 00 00 00 00	 call	 __RTC_CheckEsp

; 859  : 
; 860  : 			::SelectObject( hdcMem, hobjOld );

  02634	8b f4		 mov	 esi, esp
  02636	8b 95 4c ff ff
	ff		 mov	 edx, DWORD PTR _hobjOld$188538[ebp]
  0263c	52		 push	 edx
  0263d	8b 85 54 ff ff
	ff		 mov	 eax, DWORD PTR _hdcMem$188536[ebp]
  02643	50		 push	 eax
  02644	ff 15 00 00 00
	00		 call	 DWORD PTR __imp__SelectObject@8
  0264a	3b f4		 cmp	 esi, esp
  0264c	e8 00 00 00 00	 call	 __RTC_CheckEsp

; 861  : 			::DeleteObject( hbmpMem );

  02651	8b f4		 mov	 esi, esp
  02653	8b 8d 50 ff ff
	ff		 mov	 ecx, DWORD PTR _hbmpMem$188537[ebp]
  02659	51		 push	 ecx
  0265a	ff 15 00 00 00
	00		 call	 DWORD PTR __imp__DeleteObject@4
  02660	3b f4		 cmp	 esi, esp
  02662	e8 00 00 00 00	 call	 __RTC_CheckEsp

; 862  : 			::DeleteDC( hdcMem );

  02667	8b f4		 mov	 esi, esp
  02669	8b 95 54 ff ff
	ff		 mov	 edx, DWORD PTR _hdcMem$188536[ebp]
  0266f	52		 push	 edx
  02670	ff 15 00 00 00
	00		 call	 DWORD PTR __imp__DeleteDC@4
  02676	3b f4		 cmp	 esi, esp
  02678	e8 00 00 00 00	 call	 __RTC_CheckEsp
$L188490:

; 863  : 		}
; 864  : 	}
; 865  : }

  0267d	52		 push	 edx
  0267e	8b cd		 mov	 ecx, ebp
  02680	50		 push	 eax
  02681	8d 15 00 00 00
	00		 lea	 edx, DWORD PTR $L189479
  02687	e8 00 00 00 00	 call	 @_RTC_CheckStackVars@8
  0268c	58		 pop	 eax
  0268d	5a		 pop	 edx
  0268e	5f		 pop	 edi
  0268f	5e		 pop	 esi
  02690	81 c4 34 01 00
	00		 add	 esp, 308		; 00000134H
  02696	3b ec		 cmp	 ebp, esp
  02698	e8 00 00 00 00	 call	 __RTC_CheckEsp
  0269d	8b e5		 mov	 esp, ebp
  0269f	5d		 pop	 ebp
  026a0	c2 2c 00	 ret	 44			; 0000002cH
$L189479:
  026a3	07 00 00 00	 DD	 7
  026a7	00 00 00 00	 DD	 $L189478
$L189478:
  026ab	dc ff ff ff	 DD	 -36			; ffffffdcH
  026af	10 00 00 00	 DD	 16			; 00000010H
  026b3	00 00 00 00	 DD	 $L189471
  026b7	bc ff ff ff	 DD	 -68			; ffffffbcH
  026bb	08 00 00 00	 DD	 8
  026bf	00 00 00 00	 DD	 $L189472
  026c3	ac ff ff ff	 DD	 -84			; ffffffacH
  026c7	08 00 00 00	 DD	 8
  026cb	00 00 00 00	 DD	 $L189473
  026cf	9c ff ff ff	 DD	 -100			; ffffff9cH
  026d3	08 00 00 00	 DD	 8
  026d7	00 00 00 00	 DD	 $L189474
  026db	80 ff ff ff	 DD	 -128			; ffffff80H
  026df	08 00 00 00	 DD	 8
  026e3	00 00 00 00	 DD	 $L189475
  026e7	70 ff ff ff	 DD	 -144			; ffffff70H
  026eb	08 00 00 00	 DD	 8
  026ef	00 00 00 00	 DD	 $L189476
  026f3	60 ff ff ff	 DD	 -160			; ffffff60H
  026f7	08 00 00 00	 DD	 8
  026fb	00 00 00 00	 DD	 $L189477
$L189477:
  026ff	6c		 DB	 108			; 0000006cH
  02700	4c		 DB	 76			; 0000004cH
  02701	32		 DB	 50			; 00000032H
  02702	00		 DB	 0
$L189476:
  02703	6c		 DB	 108			; 0000006cH
  02704	53		 DB	 83			; 00000053H
  02705	32		 DB	 50			; 00000032H
  02706	00		 DB	 0
$L189475:
  02707	6c		 DB	 108			; 0000006cH
  02708	48		 DB	 72			; 00000048H
  02709	32		 DB	 50			; 00000032H
  0270a	00		 DB	 0
$L189474:
  0270b	6c		 DB	 108			; 0000006cH
  0270c	4c		 DB	 76			; 0000004cH
  0270d	31		 DB	 49			; 00000031H
  0270e	00		 DB	 0
$L189473:
  0270f	6c		 DB	 108			; 0000006cH
  02710	53		 DB	 83			; 00000053H
  02711	31		 DB	 49			; 00000031H
  02712	00		 DB	 0
$L189472:
  02713	6c		 DB	 108			; 0000006cH
  02714	48		 DB	 72			; 00000048H
  02715	31		 DB	 49			; 00000031H
  02716	00		 DB	 0
$L189471:
  02717	72		 DB	 114			; 00000072H
  02718	65		 DB	 101			; 00000065H
  02719	63		 DB	 99			; 00000063H
  0271a	74		 DB	 116			; 00000074H
  0271b	00		 DB	 0
?FillRectangleS@CBitMapOperate@@QAEXPAUHDC__@@UtagRECT@@KKIW4ENUM_DrawOrientation@1@HI@Z ENDP ; CBitMapOperate::FillRectangleS
; Function compile flags: /Odt /RTCsu
tv389 = -308						; size = 8
tv383 = -300						; size = 4
tv377 = -296						; size = 8
tv354 = -288						; size = 8
tv348 = -280						; size = 4
tv342 = -276						; size = 8
tv319 = -268						; size = 8
tv85 = -260						; size = 4
tv83 = -256						; size = 4
tv79 = -252						; size = 4
tv65 = -248						; size = 4
$T189494 = -244						; size = 8
$T189493 = -236						; size = 8
$T189492 = -228						; size = 8
$T189491 = -220						; size = 8
$T189490 = -212						; size = 8
$T189489 = -204						; size = 8
_col$188652 = -196					; size = 4
_nCount$188647 = -192					; size = 4
_col$188637 = -188					; size = 4
_nCount$188632 = -184					; size = 4
_hobjOld$188628 = -180					; size = 4
_hbmpMem$188627 = -176					; size = 4
_hdcMem$188626 = -172					; size = 4
_fLStep$188624 = -168					; size = 4
_lL2$188613 = -160					; size = 8
_lS2$188612 = -144					; size = 8
_lH2$188611 = -128					; size = 8
_lB2$188610 = -116					; size = 4
_lG2$188609 = -112					; size = 4
_lR2$188608 = -108					; size = 4
_lL1$188597 = -100					; size = 8
_lS1$188596 = -84					; size = 8
_lH1$188595 = -68					; size = 8
_lB1$188594 = -56					; size = 4
_lG1$188593 = -52					; size = 4
_lR1$188592 = -48					; size = 4
_hbrFill$188588 = -44					; size = 4
_rect$188587 = -36					; size = 16
_fStep$188586 = -16					; size = 4
_nHeight$188584 = -12					; size = 4
_nWidth$188583 = -8					; size = 4
_this$ = -4						; size = 4
_DC$ = 8						; size = 4
_aRect$ = 12						; size = 16
_aBeginColor$ = 28					; size = 4
_aEndColor$ = 32					; size = 4
_aHue$ = 36						; size = 4
_Orientation$ = 40					; size = 4
_abEclosion$ = 44					; size = 4
_anStep$ = 48						; size = 4
?FillRectangleLight@CBitMapOperate@@UAEXPAUHDC__@@UtagRECT@@KKIW4ENUM_DrawOrientation@1@HI@Z PROC NEAR ; CBitMapOperate::FillRectangleLight
; _this$ = ecx

; 867  : {

  02720	55		 push	 ebp
  02721	8b ec		 mov	 ebp, esp
  02723	81 ec 34 01 00
	00		 sub	 esp, 308		; 00000134H
  02729	56		 push	 esi
  0272a	57		 push	 edi
  0272b	51		 push	 ecx
  0272c	8d bd cc fe ff
	ff		 lea	 edi, DWORD PTR [ebp-308]
  02732	b9 4d 00 00 00	 mov	 ecx, 77			; 0000004dH
  02737	b8 cc cc cc cc	 mov	 eax, -858993460		; ccccccccH
  0273c	f3 ab		 rep stosd
  0273e	59		 pop	 ecx
  0273f	89 4d fc	 mov	 DWORD PTR _this$[ebp], ecx

; 868  : 	aHue = aHue > 239 ? 239 : aHue;

  02742	81 7d 24 ef 00
	00 00		 cmp	 DWORD PTR _aHue$[ebp], 239 ; 000000efH
  02749	76 0c		 jbe	 SHORT $L189481
  0274b	c7 85 08 ff ff
	ff ef 00 00 00	 mov	 DWORD PTR tv65[ebp], 239 ; 000000efH
  02755	eb 09		 jmp	 SHORT $L189482
$L189481:
  02757	8b 45 24	 mov	 eax, DWORD PTR _aHue$[ebp]
  0275a	89 85 08 ff ff
	ff		 mov	 DWORD PTR tv65[ebp], eax
$L189482:
  02760	8b 8d 08 ff ff
	ff		 mov	 ecx, DWORD PTR tv65[ebp]
  02766	89 4d 24	 mov	 DWORD PTR _aHue$[ebp], ecx

; 869  : 	if(aBeginColor == aEndColor)

  02769	8b 55 1c	 mov	 edx, DWORD PTR _aBeginColor$[ebp]
  0276c	3b 55 20	 cmp	 edx, DWORD PTR _aEndColor$[ebp]
  0276f	75 41		 jne	 SHORT $L188581

; 870  : 	{
; 871  : 		FillRectangle(DC, aRect, aBeginColor,  abEclosion);

  02771	8b f4		 mov	 esi, esp
  02773	8b 45 2c	 mov	 eax, DWORD PTR _abEclosion$[ebp]
  02776	50		 push	 eax
  02777	8b 4d 1c	 mov	 ecx, DWORD PTR _aBeginColor$[ebp]
  0277a	51		 push	 ecx
  0277b	83 ec 10	 sub	 esp, 16			; 00000010H
  0277e	8b d4		 mov	 edx, esp
  02780	8b 45 0c	 mov	 eax, DWORD PTR _aRect$[ebp]
  02783	89 02		 mov	 DWORD PTR [edx], eax
  02785	8b 4d 10	 mov	 ecx, DWORD PTR _aRect$[ebp+4]
  02788	89 4a 04	 mov	 DWORD PTR [edx+4], ecx
  0278b	8b 45 14	 mov	 eax, DWORD PTR _aRect$[ebp+8]
  0278e	89 42 08	 mov	 DWORD PTR [edx+8], eax
  02791	8b 4d 18	 mov	 ecx, DWORD PTR _aRect$[ebp+12]
  02794	89 4a 0c	 mov	 DWORD PTR [edx+12], ecx
  02797	8b 55 08	 mov	 edx, DWORD PTR _DC$[ebp]
  0279a	52		 push	 edx
  0279b	8b 45 fc	 mov	 eax, DWORD PTR _this$[ebp]
  0279e	8b 10		 mov	 edx, DWORD PTR [eax]
  027a0	8b 4d fc	 mov	 ecx, DWORD PTR _this$[ebp]
  027a3	ff 52 04	 call	 DWORD PTR [edx+4]
  027a6	3b f4		 cmp	 esi, esp
  027a8	e8 00 00 00 00	 call	 __RTC_CheckEsp

; 872  : 	}
; 873  : 	else

  027ad	e9 cb 04 00 00	 jmp	 $L188580
$L188581:

; 874  : 	{
; 875  : 		int nWidth  = aRect.right  - aRect.left;

  027b2	8b 45 14	 mov	 eax, DWORD PTR _aRect$[ebp+8]
  027b5	2b 45 0c	 sub	 eax, DWORD PTR _aRect$[ebp]
  027b8	89 45 f8	 mov	 DWORD PTR _nWidth$188583[ebp], eax

; 876  : 		int nHeight = aRect.bottom - aRect.top;  

  027bb	8b 4d 18	 mov	 ecx, DWORD PTR _aRect$[ebp+12]
  027be	2b 4d 10	 sub	 ecx, DWORD PTR _aRect$[ebp+4]
  027c1	89 4d f4	 mov	 DWORD PTR _nHeight$188584[ebp], ecx

; 877  : 		if(!(nWidth<=0|| nHeight<= 0))

  027c4	83 7d f8 00	 cmp	 DWORD PTR _nWidth$188583[ebp], 0
  027c8	0f 8e af 04 00
	00		 jle	 $L188580
  027ce	83 7d f4 00	 cmp	 DWORD PTR _nHeight$188584[ebp], 0
  027d2	0f 8e a5 04 00
	00		 jle	 $L188580

; 878  : 		{
; 879  : 			float fStep;
; 880  : 			RECT rect;
; 881  : 			HBRUSH hbrFill;
; 882  : 			anStep = anStep == 1 ?  10:anStep;

  027d8	83 7d 30 01	 cmp	 DWORD PTR _anStep$[ebp], 1
  027dc	75 0c		 jne	 SHORT $L189483
  027de	c7 85 04 ff ff
	ff 0a 00 00 00	 mov	 DWORD PTR tv79[ebp], 10	; 0000000aH
  027e8	eb 09		 jmp	 SHORT $L189484
$L189483:
  027ea	8b 55 30	 mov	 edx, DWORD PTR _anStep$[ebp]
  027ed	89 95 04 ff ff
	ff		 mov	 DWORD PTR tv79[ebp], edx
$L189484:
  027f3	8b 85 04 ff ff
	ff		 mov	 eax, DWORD PTR tv79[ebp]
  027f9	89 45 30	 mov	 DWORD PTR _anStep$[ebp], eax

; 883  : 			if( -1 == anStep)

  027fc	83 7d 30 ff	 cmp	 DWORD PTR _anStep$[ebp], -1
  02800	75 50		 jne	 SHORT $L188589

; 884  : 			{
; 885  : 				if(true == Orientation)

  02802	83 7d 28 01	 cmp	 DWORD PTR _Orientation$[ebp], 1
  02806	75 26		 jne	 SHORT $L188590

; 886  : 				{
; 887  : 					anStep = nHeight > 10 ? 10 : nHeight;

  02808	83 7d f4 0a	 cmp	 DWORD PTR _nHeight$188584[ebp], 10 ; 0000000aH
  0280c	7e 0c		 jle	 SHORT $L189485
  0280e	c7 85 00 ff ff
	ff 0a 00 00 00	 mov	 DWORD PTR tv83[ebp], 10	; 0000000aH
  02818	eb 09		 jmp	 SHORT $L189486
$L189485:
  0281a	8b 4d f4	 mov	 ecx, DWORD PTR _nHeight$188584[ebp]
  0281d	89 8d 00 ff ff
	ff		 mov	 DWORD PTR tv83[ebp], ecx
$L189486:
  02823	8b 95 00 ff ff
	ff		 mov	 edx, DWORD PTR tv83[ebp]
  02829	89 55 30	 mov	 DWORD PTR _anStep$[ebp], edx

; 888  : 
; 889  : 				}
; 890  : 				else

  0282c	eb 24		 jmp	 SHORT $L188589
$L188590:

; 891  : 				{
; 892  : 					anStep = nWidth >= 10 ? 10: nWidth;

  0282e	83 7d f8 0a	 cmp	 DWORD PTR _nWidth$188583[ebp], 10 ; 0000000aH
  02832	7c 0c		 jl	 SHORT $L189487
  02834	c7 85 fc fe ff
	ff 0a 00 00 00	 mov	 DWORD PTR tv85[ebp], 10	; 0000000aH
  0283e	eb 09		 jmp	 SHORT $L189488
$L189487:
  02840	8b 45 f8	 mov	 eax, DWORD PTR _nWidth$188583[ebp]
  02843	89 85 fc fe ff
	ff		 mov	 DWORD PTR tv85[ebp], eax
$L189488:
  02849	8b 8d fc fe ff
	ff		 mov	 ecx, DWORD PTR tv85[ebp]
  0284f	89 4d 30	 mov	 DWORD PTR _anStep$[ebp], ecx
$L188589:

; 893  : 				}
; 894  : 			}
; 895  : 
; 896  : 			int    lR1,lG1,lB1;
; 897  : 			double lH1,lS1,lL1;
; 898  : 			lR1 = GetRValue( aBeginColor );

  02852	0f b6 55 1c	 movzx	 edx, BYTE PTR _aBeginColor$[ebp]
  02856	89 55 d0	 mov	 DWORD PTR _lR1$188592[ebp], edx

; 899  : 			lG1 = GetGValue( aBeginColor );

  02859	0f b7 45 1c	 movzx	 eax, WORD PTR _aBeginColor$[ebp]
  0285d	c1 f8 08	 sar	 eax, 8
  02860	0f b6 c8	 movzx	 ecx, al
  02863	89 4d cc	 mov	 DWORD PTR _lG1$188593[ebp], ecx

; 900  : 			lB1 = GetBValue( aBeginColor );

  02866	8b 55 1c	 mov	 edx, DWORD PTR _aBeginColor$[ebp]
  02869	c1 ea 10	 shr	 edx, 16			; 00000010H
  0286c	0f b6 c2	 movzx	 eax, dl
  0286f	89 45 c8	 mov	 DWORD PTR _lB1$188594[ebp], eax

; 901  : 			RGBtoHSL(RGB(lR1,lG1,lB1),&lH1,&lS1,&lL1);

  02872	8d 4d 9c	 lea	 ecx, DWORD PTR _lL1$188597[ebp]
  02875	51		 push	 ecx
  02876	8d 55 ac	 lea	 edx, DWORD PTR _lS1$188596[ebp]
  02879	52		 push	 edx
  0287a	8d 45 bc	 lea	 eax, DWORD PTR _lH1$188595[ebp]
  0287d	50		 push	 eax
  0287e	0f b6 4d d0	 movzx	 ecx, BYTE PTR _lR1$188592[ebp]
  02882	0f b6 55 cc	 movzx	 edx, BYTE PTR _lG1$188593[ebp]
  02886	c1 e2 08	 shl	 edx, 8
  02889	0b ca		 or	 ecx, edx
  0288b	0f b6 45 c8	 movzx	 eax, BYTE PTR _lB1$188594[ebp]
  0288f	c1 e0 10	 shl	 eax, 16			; 00000010H
  02892	0b c8		 or	 ecx, eax
  02894	51		 push	 ecx
  02895	8b 4d fc	 mov	 ecx, DWORD PTR _this$[ebp]
  02898	e8 00 00 00 00	 call	 ?RGBtoHSL@CBitMapOperate@@QAEXKPAN00@Z ; CBitMapOperate::RGBtoHSL

; 902  : 
; 903  : 			int    lR2,lG2,lB2;
; 904  : 			double lH2,lS2,lL2;
; 905  : 			lR2 = GetRValue( aEndColor );

  0289d	0f b6 4d 20	 movzx	 ecx, BYTE PTR _aEndColor$[ebp]
  028a1	89 4d 94	 mov	 DWORD PTR _lR2$188608[ebp], ecx

; 906  : 			lG2 = GetGValue( aEndColor );

  028a4	0f b7 55 20	 movzx	 edx, WORD PTR _aEndColor$[ebp]
  028a8	c1 fa 08	 sar	 edx, 8
  028ab	0f b6 c2	 movzx	 eax, dl
  028ae	89 45 90	 mov	 DWORD PTR _lG2$188609[ebp], eax

; 907  : 			lB2 = GetBValue( aEndColor );

  028b1	8b 4d 20	 mov	 ecx, DWORD PTR _aEndColor$[ebp]
  028b4	c1 e9 10	 shr	 ecx, 16			; 00000010H
  028b7	0f b6 d1	 movzx	 edx, cl
  028ba	89 55 8c	 mov	 DWORD PTR _lB2$188610[ebp], edx

; 908  : 			RGBtoHSL(RGB(lR2,lG2,lB2),&lH2,&lS2,&lL2);

  028bd	8d 85 60 ff ff
	ff		 lea	 eax, DWORD PTR _lL2$188613[ebp]
  028c3	50		 push	 eax
  028c4	8d 8d 70 ff ff
	ff		 lea	 ecx, DWORD PTR _lS2$188612[ebp]
  028ca	51		 push	 ecx
  028cb	8d 55 80	 lea	 edx, DWORD PTR _lH2$188611[ebp]
  028ce	52		 push	 edx
  028cf	0f b6 45 94	 movzx	 eax, BYTE PTR _lR2$188608[ebp]
  028d3	0f b6 4d 90	 movzx	 ecx, BYTE PTR _lG2$188609[ebp]
  028d7	c1 e1 08	 shl	 ecx, 8
  028da	0b c1		 or	 eax, ecx
  028dc	0f b6 55 8c	 movzx	 edx, BYTE PTR _lB2$188610[ebp]
  028e0	c1 e2 10	 shl	 edx, 16			; 00000010H
  028e3	0b c2		 or	 eax, edx
  028e5	50		 push	 eax
  028e6	8b 4d fc	 mov	 ecx, DWORD PTR _this$[ebp]
  028e9	e8 00 00 00 00	 call	 ?RGBtoHSL@CBitMapOperate@@QAEXKPAN00@Z ; CBitMapOperate::RGBtoHSL

; 909  : 
; 910  : 			float fLStep = ( lL2 - lL1 )*240 / (float)anStep;

  028ee	dd 85 60 ff ff
	ff		 fld	 QWORD PTR _lL2$188613[ebp]
  028f4	dc 65 9c	 fsub	 QWORD PTR _lL1$188597[ebp]
  028f7	dc 0d 00 00 00
	00		 fmul	 QWORD PTR __real@406e000000000000
  028fd	8b 45 30	 mov	 eax, DWORD PTR _anStep$[ebp]
  02900	89 85 f4 fe ff
	ff		 mov	 DWORD PTR tv319[ebp], eax
  02906	c7 85 f8 fe ff
	ff 00 00 00 00	 mov	 DWORD PTR tv319[ebp+4], 0
  02910	df ad f4 fe ff
	ff		 fild	 QWORD PTR tv319[ebp]
  02916	de f9		 fdivp	 ST(1), ST(0)
  02918	d9 9d 58 ff ff
	ff		 fstp	 DWORD PTR _fLStep$188624[ebp]

; 911  : 			HDC hdcMem   = ::CreateCompatibleDC( DC );

  0291e	8b f4		 mov	 esi, esp
  02920	8b 4d 08	 mov	 ecx, DWORD PTR _DC$[ebp]
  02923	51		 push	 ecx
  02924	ff 15 00 00 00
	00		 call	 DWORD PTR __imp__CreateCompatibleDC@4
  0292a	3b f4		 cmp	 esi, esp
  0292c	e8 00 00 00 00	 call	 __RTC_CheckEsp
  02931	89 85 54 ff ff
	ff		 mov	 DWORD PTR _hdcMem$188626[ebp], eax

; 912  : 			HBITMAP hbmpMem  = ::CreateCompatibleBitmap( DC, nWidth, nHeight );

  02937	8b f4		 mov	 esi, esp
  02939	8b 55 f4	 mov	 edx, DWORD PTR _nHeight$188584[ebp]
  0293c	52		 push	 edx
  0293d	8b 45 f8	 mov	 eax, DWORD PTR _nWidth$188583[ebp]
  02940	50		 push	 eax
  02941	8b 4d 08	 mov	 ecx, DWORD PTR _DC$[ebp]
  02944	51		 push	 ecx
  02945	ff 15 00 00 00
	00		 call	 DWORD PTR __imp__CreateCompatibleBitmap@12
  0294b	3b f4		 cmp	 esi, esp
  0294d	e8 00 00 00 00	 call	 __RTC_CheckEsp
  02952	89 85 50 ff ff
	ff		 mov	 DWORD PTR _hbmpMem$188627[ebp], eax

; 913  : 			HGDIOBJ hobjOld  = ::SelectObject( hdcMem, hbmpMem );

  02958	8b f4		 mov	 esi, esp
  0295a	8b 95 50 ff ff
	ff		 mov	 edx, DWORD PTR _hbmpMem$188627[ebp]
  02960	52		 push	 edx
