; Listing generated by Microsoft (R) Optimizing Compiler Version 13.10.3077 

	TITLE	.\src\Core\CDataManager.cpp
	.386P
include listing.inc
if @Version gt 510
.model FLAT
else
_TEXT	SEGMENT PARA USE32 PUBLIC 'CODE'
_TEXT	ENDS
_DATA	SEGMENT DWORD USE32 PUBLIC 'DATA'
_DATA	ENDS
CONST	SEGMENT DWORD USE32 PUBLIC 'CONST'
CONST	ENDS
_BSS	SEGMENT DWORD USE32 PUBLIC 'BSS'
_BSS	ENDS
$$SYMBOLS	SEGMENT BYTE USE32 'DEBSYM'
$$SYMBOLS	ENDS
_TLS	SEGMENT DWORD USE32 PUBLIC 'TLS'
_TLS	ENDS
;	COMDAT ??_C@_0EN@IBFBLEEG@D?3?2Program?5Files?5?$CIx86?$CJ?2Microsoft@
CONST	SEGMENT DWORD USE32 PUBLIC 'CONST'
CONST	ENDS
;	COMDAT ??_C@_0BE@JONHPENG@map?1set?$DMT?$DO?5too?5long?$AA@
CONST	SEGMENT DWORD USE32 PUBLIC 'CONST'
CONST	ENDS
rdata$r	SEGMENT DWORD USE32 PUBLIC 'CONST'
rdata$r	ENDS
xdata$x	SEGMENT DWORD USE32 PUBLIC 'CONST'
xdata$x	ENDS
text$AFX_COL1	SEGMENT PARA USE32 PUBLIC ''
text$AFX_COL1	ENDS
text$yc	SEGMENT PARA USE32 PUBLIC 'CODE'
text$yc	ENDS
CRT$XCA	SEGMENT DWORD USE32 PUBLIC 'DATA'
CRT$XCA	ENDS
CRT$XCU	SEGMENT DWORD USE32 PUBLIC 'DATA'
CRT$XCU	ENDS
CRT$XCL	SEGMENT DWORD USE32 PUBLIC 'DATA'
CRT$XCL	ENDS
CRT$XCC	SEGMENT DWORD USE32 PUBLIC 'DATA'
CRT$XCC	ENDS
CRT$XCZ	SEGMENT DWORD USE32 PUBLIC 'DATA'
CRT$XCZ	ENDS
text$yd	SEGMENT PARA USE32 PUBLIC 'CODE'
text$yd	ENDS
ATL$__m	SEGMENT DWORD USE32 PUBLIC ''
ATL$__m	ENDS
ATL$__z	SEGMENT DWORD USE32 PUBLIC ''
ATL$__z	ENDS
ATL$__a	SEGMENT DWORD USE32 PUBLIC ''
ATL$__a	ENDS
;	COMDAT ??1IData@@MAE@XZ
_TEXT	SEGMENT PARA USE32 PUBLIC 'CODE'
_TEXT	ENDS
;	COMDAT ?DataAppStart@IData@@UAEXXZ
_TEXT	SEGMENT PARA USE32 PUBLIC 'CODE'
_TEXT	ENDS
;	COMDAT ?DataAppExit@IData@@UAEXXZ
_TEXT	SEGMENT PARA USE32 PUBLIC 'CODE'
_TEXT	ENDS
;	COMDAT ??_GIData@@MAEPAXI@Z
_TEXT	SEGMENT PARA USE32 PUBLIC 'CODE'
_TEXT	ENDS
;	COMDAT ?clear@OneLocalGame@@QAEXXZ
_TEXT	SEGMENT PARA USE32 PUBLIC 'CODE'
_TEXT	ENDS
;	COMDAT ??1IAdData@@MAE@XZ
_TEXT	SEGMENT PARA USE32 PUBLIC 'CODE'
_TEXT	ENDS
;	COMDAT ??_GIAdData@@MAEPAXI@Z
_TEXT	SEGMENT PARA USE32 PUBLIC 'CODE'
_TEXT	ENDS
;	COMDAT ??_GCDataManager@@UAEPAXI@Z
_TEXT	SEGMENT PARA USE32 PUBLIC 'CODE'
_TEXT	ENDS
;	COMDAT ??0IDataManager@@QAE@XZ
_TEXT	SEGMENT PARA USE32 PUBLIC 'CODE'
_TEXT	ENDS
;	COMDAT ??1?$map@KPAVIData@@U?$less@K@std@@V?$allocator@U?$pair@$$CBKPAVIData@@@std@@@3@@std@@QAE@XZ
_TEXT	SEGMENT PARA USE32 PUBLIC 'CODE'
_TEXT	ENDS
;	COMDAT ??B?$CComPtrBase@UITypeInfo2@@@ATL@@QBEPAUITypeInfo2@@XZ
_TEXT	SEGMENT PARA USE32 PUBLIC 'CODE'
_TEXT	ENDS
;	COMDAT ?equal@?$istreambuf_iterator@DU?$char_traits@D@std@@@std@@QBE_NABV12@@Z
_TEXT	SEGMENT PARA USE32 PUBLIC 'CODE'
_TEXT	ENDS
;	COMDAT ?equal@?$istreambuf_iterator@_WU?$char_traits@_W@std@@@std@@QBE_NABV12@@Z
_TEXT	SEGMENT PARA USE32 PUBLIC 'CODE'
_TEXT	ENDS
;	COMDAT ??0?$map@KPAVIData@@U?$less@K@std@@V?$allocator@U?$pair@$$CBKPAVIData@@@std@@@3@@std@@QAE@XZ
_TEXT	SEGMENT PARA USE32 PUBLIC 'CODE'
_TEXT	ENDS
;	COMDAT ??A?$map@KPAVIData@@U?$less@K@std@@V?$allocator@U?$pair@$$CBKPAVIData@@@std@@@3@@std@@QAEAAPAVIData@@ABK@Z
_TEXT	SEGMENT PARA USE32 PUBLIC 'CODE'
_TEXT	ENDS
;	COMDAT ??1?$_Tree@V?$_Tmap_traits@KPAVIData@@U?$less@K@std@@V?$allocator@U?$pair@$$CBKPAVIData@@@std@@@3@$0A@@std@@@std@@QAE@XZ
_TEXT	SEGMENT PARA USE32 PUBLIC 'CODE'
_TEXT	ENDS
;	COMDAT ?begin@?$_Tree@V?$_Tmap_traits@KPAVIData@@U?$less@K@std@@V?$allocator@U?$pair@$$CBKPAVIData@@@std@@@3@$0A@@std@@@std@@QAE?AViterator@12@XZ
_TEXT	SEGMENT PARA USE32 PUBLIC 'CODE'
_TEXT	ENDS
;	COMDAT ?end@?$_Tree@V?$_Tmap_traits@KPAVIData@@U?$less@K@std@@V?$allocator@U?$pair@$$CBKPAVIData@@@std@@@3@$0A@@std@@@std@@QAE?AViterator@12@XZ
_TEXT	SEGMENT PARA USE32 PUBLIC 'CODE'
_TEXT	ENDS
;	COMDAT ?erase@?$_Tree@V?$_Tmap_traits@KPAVIData@@U?$less@K@std@@V?$allocator@U?$pair@$$CBKPAVIData@@@std@@@3@$0A@@std@@@std@@QAEIABK@Z
_TEXT	SEGMENT PARA USE32 PUBLIC 'CODE'
_TEXT	ENDS
;	COMDAT ?clear@?$_Tree@V?$_Tmap_traits@KPAVIData@@U?$less@K@std@@V?$allocator@U?$pair@$$CBKPAVIData@@@std@@@3@$0A@@std@@@std@@QAEXXZ
_TEXT	SEGMENT PARA USE32 PUBLIC 'CODE'
_TEXT	ENDS
;	COMDAT ?find@?$_Tree@V?$_Tmap_traits@KPAVIData@@U?$less@K@std@@V?$allocator@U?$pair@$$CBKPAVIData@@@std@@@3@$0A@@std@@@std@@QAE?AViterator@12@ABK@Z
_TEXT	SEGMENT PARA USE32 PUBLIC 'CODE'
_TEXT	ENDS
;	COMDAT ??Citerator@?$_Tree@V?$_Tmap_traits@KPAVIData@@U?$less@K@std@@V?$allocator@U?$pair@$$CBKPAVIData@@@std@@@3@$0A@@std@@@std@@QBEPAU?$pair@$$CBKPAVIData@@@2@XZ
_TEXT	SEGMENT PARA USE32 PUBLIC 'CODE'
_TEXT	ENDS
;	COMDAT ??Eiterator@?$_Tree@V?$_Tmap_traits@KPAVIData@@U?$less@K@std@@V?$allocator@U?$pair@$$CBKPAVIData@@@std@@@3@$0A@@std@@@std@@QAE?AV012@H@Z
_TEXT	SEGMENT PARA USE32 PUBLIC 'CODE'
_TEXT	ENDS
;	COMDAT ??8const_iterator@?$_Tree@V?$_Tmap_traits@KPAVIData@@U?$less@K@std@@V?$allocator@U?$pair@$$CBKPAVIData@@@std@@@3@$0A@@std@@@std@@QBE_NABV012@@Z
_TEXT	SEGMENT PARA USE32 PUBLIC 'CODE'
_TEXT	ENDS
;	COMDAT ??9const_iterator@?$_Tree@V?$_Tmap_traits@KPAVIData@@U?$less@K@std@@V?$allocator@U?$pair@$$CBKPAVIData@@@std@@@3@$0A@@std@@@std@@QBE_NABV012@@Z
_TEXT	SEGMENT PARA USE32 PUBLIC 'CODE'
_TEXT	ENDS
;	COMDAT ?_Key@?$_Tree@V?$_Tmap_traits@KPAVIData@@U?$less@K@std@@V?$allocator@U?$pair@$$CBKPAVIData@@@std@@@3@$0A@@std@@@std@@KAABKPAU_Node@?$_Tree_nod@V?$_Tmap_traits@KPAVIData@@U?$less@K@std@@V?$allocator@U?$pair@$$CBKPAVIData@@@std@@@3@$0A@@std@@@2@@Z
_TEXT	SEGMENT PARA USE32 PUBLIC 'CODE'
_TEXT	ENDS
;	COMDAT ??0?$_Tree@V?$_Tmap_traits@KPAVIData@@U?$less@K@std@@V?$allocator@U?$pair@$$CBKPAVIData@@@std@@@3@$0A@@std@@@std@@QAE@ABU?$less@K@1@ABV?$allocator@U?$pair@$$CBKPAVIData@@@std@@@1@@Z
_TEXT	SEGMENT PARA USE32 PUBLIC 'CODE'
_TEXT	ENDS
;	COMDAT ?insert@?$_Tree@V?$_Tmap_traits@KPAVIData@@U?$less@K@std@@V?$allocator@U?$pair@$$CBKPAVIData@@@std@@@3@$0A@@std@@@std@@QAE?AViterator@12@V312@ABU?$pair@$$CBKPAVIData@@@2@@Z
_TEXT	SEGMENT PARA USE32 PUBLIC 'CODE'
_TEXT	ENDS
;	COMDAT ?erase@?$_Tree@V?$_Tmap_traits@KPAVIData@@U?$less@K@std@@V?$allocator@U?$pair@$$CBKPAVIData@@@std@@@3@$0A@@std@@@std@@QAE?AViterator@12@V312@0@Z
_TEXT	SEGMENT PARA USE32 PUBLIC 'CODE'
_TEXT	ENDS
;	COMDAT ?lower_bound@?$_Tree@V?$_Tmap_traits@KPAVIData@@U?$less@K@std@@V?$allocator@U?$pair@$$CBKPAVIData@@@std@@@3@$0A@@std@@@std@@QAE?AViterator@12@ABK@Z
_TEXT	SEGMENT PARA USE32 PUBLIC 'CODE'
_TEXT	ENDS
;	COMDAT ?equal_range@?$_Tree@V?$_Tmap_traits@KPAVIData@@U?$less@K@std@@V?$allocator@U?$pair@$$CBKPAVIData@@@std@@@3@$0A@@std@@@std@@QAE?AU?$pair@Viterator@?$_Tree@V?$_Tmap_traits@KPAVIData@@U?$less@K@std@@V?$allocator@U?$pair@$$CBKPAVIData@@@std@@@3@$0A@@std@@@std@@V123@@2@ABK@Z
_TEXT	SEGMENT PARA USE32 PUBLIC 'CODE'
_TEXT	ENDS
;	COMDAT ?_Erase@?$_Tree@V?$_Tmap_traits@KPAVIData@@U?$less@K@std@@V?$allocator@U?$pair@$$CBKPAVIData@@@std@@@3@$0A@@std@@@std@@IAEXPAU_Node@?$_Tree_nod@V?$_Tmap_traits@KPAVIData@@U?$less@K@std@@V?$allocator@U?$pair@$$CBKPAVIData@@@std@@@3@$0A@@std@@@2@@Z
_TEXT	SEGMENT PARA USE32 PUBLIC 'CODE'
_TEXT	ENDS
;	COMDAT ?_Lmost@?$_Tree@V?$_Tmap_traits@KPAVIData@@U?$less@K@std@@V?$allocator@U?$pair@$$CBKPAVIData@@@std@@@3@$0A@@std@@@std@@IAEAAPAU_Node@?$_Tree_nod@V?$_Tmap_traits@KPAVIData@@U?$less@K@std@@V?$allocator@U?$pair@$$CBKPAVIData@@@std@@@3@$0A@@std@@@2@XZ
_TEXT	SEGMENT PARA USE32 PUBLIC 'CODE'
_TEXT	ENDS
;	COMDAT ?_Rmost@?$_Tree@V?$_Tmap_traits@KPAVIData@@U?$less@K@std@@V?$allocator@U?$pair@$$CBKPAVIData@@@std@@@3@$0A@@std@@@std@@IAEAAPAU_Node@?$_Tree_nod@V?$_Tmap_traits@KPAVIData@@U?$less@K@std@@V?$allocator@U?$pair@$$CBKPAVIData@@@std@@@3@$0A@@std@@@2@XZ
_TEXT	SEGMENT PARA USE32 PUBLIC 'CODE'
_TEXT	ENDS
;	COMDAT ?_Root@?$_Tree@V?$_Tmap_traits@KPAVIData@@U?$less@K@std@@V?$allocator@U?$pair@$$CBKPAVIData@@@std@@@3@$0A@@std@@@std@@IAEAAPAU_Node@?$_Tree_nod@V?$_Tmap_traits@KPAVIData@@U?$less@K@std@@V?$allocator@U?$pair@$$CBKPAVIData@@@std@@@3@$0A@@std@@@2@XZ
_TEXT	SEGMENT PARA USE32 PUBLIC 'CODE'
_TEXT	ENDS
;	COMDAT ?_Tidy@?$_Tree@V?$_Tmap_traits@KPAVIData@@U?$less@K@std@@V?$allocator@U?$pair@$$CBKPAVIData@@@std@@@3@$0A@@std@@@std@@IAEXXZ
_TEXT	SEGMENT PARA USE32 PUBLIC 'CODE'
_TEXT	ENDS
;	COMDAT ??0?$allocator@U?$pair@$$CBKPAVIData@@@std@@@std@@QAE@XZ
_TEXT	SEGMENT PARA USE32 PUBLIC 'CODE'
_TEXT	ENDS
;	COMDAT ??R?$less@K@std@@QBE_NABK0@Z
_TEXT	SEGMENT PARA USE32 PUBLIC 'CODE'
_TEXT	ENDS
;	COMDAT ??0iterator@?$_Tree@V?$_Tmap_traits@KPAVIData@@U?$less@K@std@@V?$allocator@U?$pair@$$CBKPAVIData@@@std@@@3@$0A@@std@@@std@@QAE@PAU_Node@?$_Tree_nod@V?$_Tmap_traits@KPAVIData@@U?$less@K@std@@V?$allocator@U?$pair@$$CBKPAVIData@@@std@@@3@$0A@@std@@@2@@Z
_TEXT	SEGMENT PARA USE32 PUBLIC 'CODE'
_TEXT	ENDS
;	COMDAT ??Diterator@?$_Tree@V?$_Tmap_traits@KPAVIData@@U?$less@K@std@@V?$allocator@U?$pair@$$CBKPAVIData@@@std@@@3@$0A@@std@@@std@@QBEAAU?$pair@$$CBKPAVIData@@@2@XZ
_TEXT	SEGMENT PARA USE32 PUBLIC 'CODE'
_TEXT	ENDS
;	COMDAT ??Eiterator@?$_Tree@V?$_Tmap_traits@KPAVIData@@U?$less@K@std@@V?$allocator@U?$pair@$$CBKPAVIData@@@std@@@3@$0A@@std@@@std@@QAEAAV012@XZ
_TEXT	SEGMENT PARA USE32 PUBLIC 'CODE'
_TEXT	ENDS
;	COMDAT ?_Mynode@const_iterator@?$_Tree@V?$_Tmap_traits@KPAVIData@@U?$less@K@std@@V?$allocator@U?$pair@$$CBKPAVIData@@@std@@@3@$0A@@std@@@std@@QBEPAU_Node@?$_Tree_nod@V?$_Tmap_traits@KPAVIData@@U?$less@K@std@@V?$allocator@U?$pair@$$CBKPAVIData@@@std@@@3@$0A@@std@@@3@XZ
_TEXT	SEGMENT PARA USE32 PUBLIC 'CODE'
_TEXT	ENDS
;	COMDAT ??0?$pair@$$CBKPAVIData@@@std@@QAE@ABKABQAVIData@@@Z
_TEXT	SEGMENT PARA USE32 PUBLIC 'CODE'
_TEXT	ENDS
;	COMDAT ??0iterator@?$basic_string@DU?$char_traits@D@std@@V?$allocator@D@2@@std@@QAE@PAD@Z
_TEXT	SEGMENT PARA USE32 PUBLIC 'CODE'
_TEXT	ENDS
;	COMDAT ?_Isnil@?$_Tree@V?$_Tmap_traits@KPAVIData@@U?$less@K@std@@V?$allocator@U?$pair@$$CBKPAVIData@@@std@@@3@$0A@@std@@@std@@KAAADPAU_Node@?$_Tree_nod@V?$_Tmap_traits@KPAVIData@@U?$less@K@std@@V?$allocator@U?$pair@$$CBKPAVIData@@@std@@@3@$0A@@std@@@2@@Z
_TEXT	SEGMENT PARA USE32 PUBLIC 'CODE'
_TEXT	ENDS
;	COMDAT ?_Left@?$_Tree@V?$_Tmap_traits@KPAVIData@@U?$less@K@std@@V?$allocator@U?$pair@$$CBKPAVIData@@@std@@@3@$0A@@std@@@std@@KAAAPAU_Node@?$_Tree_nod@V?$_Tmap_traits@KPAVIData@@U?$less@K@std@@V?$allocator@U?$pair@$$CBKPAVIData@@@std@@@3@$0A@@std@@@2@PAU342@@Z
_TEXT	SEGMENT PARA USE32 PUBLIC 'CODE'
_TEXT	ENDS
;	COMDAT ?_Parent@?$_Tree@V?$_Tmap_traits@KPAVIData@@U?$less@K@std@@V?$allocator@U?$pair@$$CBKPAVIData@@@std@@@3@$0A@@std@@@std@@KAAAPAU_Node@?$_Tree_nod@V?$_Tmap_traits@KPAVIData@@U?$less@K@std@@V?$allocator@U?$pair@$$CBKPAVIData@@@std@@@3@$0A@@std@@@2@PAU342@@Z
_TEXT	SEGMENT PARA USE32 PUBLIC 'CODE'
_TEXT	ENDS
;	COMDAT ?_Right@?$_Tree@V?$_Tmap_traits@KPAVIData@@U?$less@K@std@@V?$allocator@U?$pair@$$CBKPAVIData@@@std@@@3@$0A@@std@@@std@@KAAAPAU_Node@?$_Tree_nod@V?$_Tmap_traits@KPAVIData@@U?$less@K@std@@V?$allocator@U?$pair@$$CBKPAVIData@@@std@@@3@$0A@@std@@@2@PAU342@@Z
_TEXT	SEGMENT PARA USE32 PUBLIC 'CODE'
_TEXT	ENDS
;	COMDAT ?_Myval@?$_Tree@V?$_Tmap_traits@KPAVIData@@U?$less@K@std@@V?$allocator@U?$pair@$$CBKPAVIData@@@std@@@3@$0A@@std@@@std@@KAAAU?$pair@$$CBKPAVIData@@@2@PAU_Node@?$_Tree_nod@V?$_Tmap_traits@KPAVIData@@U?$less@K@std@@V?$allocator@U?$pair@$$CBKPAVIData@@@std@@@3@$0A@@std@@@2@@Z
_TEXT	SEGMENT PARA USE32 PUBLIC 'CODE'
_TEXT	ENDS
;	COMDAT ?size@?$_Tree@V?$_Tmap_traits@KPAVIData@@U?$less@K@std@@V?$allocator@U?$pair@$$CBKPAVIData@@@std@@@3@$0A@@std@@@std@@QBEIXZ
_TEXT	SEGMENT PARA USE32 PUBLIC 'CODE'
_TEXT	ENDS
;	COMDAT ?insert@?$_Tree@V?$_Tmap_traits@KPAVIData@@U?$less@K@std@@V?$allocator@U?$pair@$$CBKPAVIData@@@std@@@3@$0A@@std@@@std@@QAE?AU?$pair@Viterator@?$_Tree@V?$_Tmap_traits@KPAVIData@@U?$less@K@std@@V?$allocator@U?$pair@$$CBKPAVIData@@@std@@@3@$0A@@std@@@std@@_N@2@ABU?$pair@$$CBKPAVIData@@@2@@Z
_TEXT	SEGMENT PARA USE32 PUBLIC 'CODE'
_TEXT	ENDS
;	COMDAT ?erase@?$_Tree@V?$_Tmap_traits@KPAVIData@@U?$less@K@std@@V?$allocator@U?$pair@$$CBKPAVIData@@@std@@@3@$0A@@std@@@std@@QAE?AViterator@12@V312@@Z
_TEXT	SEGMENT PARA USE32 PUBLIC 'CODE'
_TEXT	ENDS
;	COMDAT ?upper_bound@?$_Tree@V?$_Tmap_traits@KPAVIData@@U?$less@K@std@@V?$allocator@U?$pair@$$CBKPAVIData@@@std@@@3@$0A@@std@@@std@@QAE?AViterator@12@ABK@Z
_TEXT	SEGMENT PARA USE32 PUBLIC 'CODE'
_TEXT	ENDS
;	COMDAT ?_Init@?$_Tree@V?$_Tmap_traits@KPAVIData@@U?$less@K@std@@V?$allocator@U?$pair@$$CBKPAVIData@@@std@@@3@$0A@@std@@@std@@IAEXXZ
_TEXT	SEGMENT PARA USE32 PUBLIC 'CODE'
_TEXT	ENDS
;	COMDAT ?_Insert@?$_Tree@V?$_Tmap_traits@KPAVIData@@U?$less@K@std@@V?$allocator@U?$pair@$$CBKPAVIData@@@std@@@3@$0A@@std@@@std@@IAE?AViterator@12@_NPAU_Node@?$_Tree_nod@V?$_Tmap_traits@KPAVIData@@U?$less@K@std@@V?$allocator@U?$pair@$$CBKPAVIData@@@std@@@3@$0A@@std@@@2@ABU?$pair@$$CBKPAVIData@@@2@@Z
_TEXT	SEGMENT PARA USE32 PUBLIC 'CODE'
_TEXT	ENDS
;	COMDAT ?_Lbound@?$_Tree@V?$_Tmap_traits@KPAVIData@@U?$less@K@std@@V?$allocator@U?$pair@$$CBKPAVIData@@@std@@@3@$0A@@std@@@std@@IBEPAU_Node@?$_Tree_nod@V?$_Tmap_traits@KPAVIData@@U?$less@K@std@@V?$allocator@U?$pair@$$CBKPAVIData@@@std@@@3@$0A@@std@@@2@ABK@Z
_TEXT	SEGMENT PARA USE32 PUBLIC 'CODE'
_TEXT	ENDS
;	COMDAT ??0?$_Tree_val@V?$_Tmap_traits@KPAVIData@@U?$less@K@std@@V?$allocator@U?$pair@$$CBKPAVIData@@@std@@@3@$0A@@std@@@std@@IAE@ABU?$less@K@1@V?$allocator@U?$pair@$$CBKPAVIData@@@std@@@1@@Z
_TEXT	SEGMENT PARA USE32 PUBLIC 'CODE'
_TEXT	ENDS
;	COMDAT ?_Kfn@?$_Tmap_traits@KPAVIData@@U?$less@K@std@@V?$allocator@U?$pair@$$CBKPAVIData@@@std@@@3@$0A@@std@@SAABKABU?$pair@$$CBKPAVIData@@@2@@Z
_TEXT	SEGMENT PARA USE32 PUBLIC 'CODE'
_TEXT	ENDS
;	COMDAT ??0?$allocator@U?$pair@$$CBKPAVIData@@@std@@@std@@QAE@ABV01@@Z
_TEXT	SEGMENT PARA USE32 PUBLIC 'CODE'
_TEXT	ENDS
;	COMDAT ?deallocate@?$allocator@U_Node@?$_Tree_nod@V?$_Tmap_traits@KPAVIData@@U?$less@K@std@@V?$allocator@U?$pair@$$CBKPAVIData@@@std@@@3@$0A@@std@@@std@@@std@@QAEXPAU_Node@?$_Tree_nod@V?$_Tmap_traits@KPAVIData@@U?$less@K@std@@V?$allocator@U?$pair@$$CBKPAVIData@@@std@@@3@$0A@@std@@@2@I@Z
_TEXT	SEGMENT PARA USE32 PUBLIC 'CODE'
_TEXT	ENDS
;	COMDAT ?destroy@?$allocator@U_Node@?$_Tree_nod@V?$_Tmap_traits@KPAVIData@@U?$less@K@std@@V?$allocator@U?$pair@$$CBKPAVIData@@@std@@@3@$0A@@std@@@std@@@std@@QAEXPAU_Node@?$_Tree_nod@V?$_Tmap_traits@KPAVIData@@U?$less@K@std@@V?$allocator@U?$pair@$$CBKPAVIData@@@std@@@3@$0A@@std@@@2@@Z
_TEXT	SEGMENT PARA USE32 PUBLIC 'CODE'
_TEXT	ENDS
;	COMDAT ?destroy@?$allocator@PAU_Node@?$_Tree_nod@V?$_Tmap_traits@KPAVIData@@U?$less@K@std@@V?$allocator@U?$pair@$$CBKPAVIData@@@std@@@3@$0A@@std@@@std@@@std@@QAEXPAPAU_Node@?$_Tree_nod@V?$_Tmap_traits@KPAVIData@@U?$less@K@std@@V?$allocator@U?$pair@$$CBKPAVIData@@@std@@@3@$0A@@std@@@2@@Z
_TEXT	SEGMENT PARA USE32 PUBLIC 'CODE'
_TEXT	ENDS
;	COMDAT ??0iterator@?$_Tree@V?$_Tmap_traits@KPAVIData@@U?$less@K@std@@V?$allocator@U?$pair@$$CBKPAVIData@@@std@@@3@$0A@@std@@@std@@QAE@XZ
_TEXT	SEGMENT PARA USE32 PUBLIC 'CODE'
_TEXT	ENDS
;	COMDAT ??Fiterator@?$_Tree@V?$_Tmap_traits@KPAVIData@@U?$less@K@std@@V?$allocator@U?$pair@$$CBKPAVIData@@@std@@@3@$0A@@std@@@std@@QAEAAV012@XZ
_TEXT	SEGMENT PARA USE32 PUBLIC 'CODE'
_TEXT	ENDS
;	COMDAT ??0const_iterator@?$_Tree@V?$_Tmap_traits@KPAVIData@@U?$less@K@std@@V?$allocator@U?$pair@$$CBKPAVIData@@@std@@@3@$0A@@std@@@std@@QAE@PAU_Node@?$_Tree_nod@V?$_Tmap_traits@KPAVIData@@U?$less@K@std@@V?$allocator@U?$pair@$$CBKPAVIData@@@std@@@3@$0A@@std@@@2@@Z
_TEXT	SEGMENT PARA USE32 PUBLIC 'CODE'
_TEXT	ENDS
;	COMDAT ??Dconst_iterator@?$_Tree@V?$_Tmap_traits@KPAVIData@@U?$less@K@std@@V?$allocator@U?$pair@$$CBKPAVIData@@@std@@@3@$0A@@std@@@std@@QBEABU?$pair@$$CBKPAVIData@@@2@XZ
_TEXT	SEGMENT PARA USE32 PUBLIC 'CODE'
_TEXT	ENDS
;	COMDAT ??Econst_iterator@?$_Tree@V?$_Tmap_traits@KPAVIData@@U?$less@K@std@@V?$allocator@U?$pair@$$CBKPAVIData@@@std@@@3@$0A@@std@@@std@@QAEAAV012@XZ
_TEXT	SEGMENT PARA USE32 PUBLIC 'CODE'
_TEXT	ENDS
;	COMDAT ??0?$pair@Viterator@?$_Tree@V?$_Tmap_traits@KPAVIData@@U?$less@K@std@@V?$allocator@U?$pair@$$CBKPAVIData@@@std@@@3@$0A@@std@@@std@@V123@@std@@QAE@ABViterator@?$_Tree@V?$_Tmap_traits@KPAVIData@@U?$less@K@std@@V?$allocator@U?$pair@$$CBKPAVIData@@@std@@@3@$0A@@std@@@1@0@Z
_TEXT	SEGMENT PARA USE32 PUBLIC 'CODE'
_TEXT	ENDS
;	COMDAT ??0length_error@std@@QAE@ABV01@@Z
_TEXT	SEGMENT PARA USE32 PUBLIC 'CODE'
_TEXT	ENDS
;	COMDAT ??0const_iterator@?$basic_string@DU?$char_traits@D@std@@V?$allocator@D@2@@std@@QAE@PBD@Z
_TEXT	SEGMENT PARA USE32 PUBLIC 'CODE'
_TEXT	ENDS
;	COMDAT ??Gconst_iterator@?$basic_string@DU?$char_traits@D@std@@V?$allocator@D@2@@std@@QBEHABV012@@Z
_TEXT	SEGMENT PARA USE32 PUBLIC 'CODE'
_TEXT	ENDS
;	COMDAT ?_Color@?$_Tree@V?$_Tmap_traits@KPAVIData@@U?$less@K@std@@V?$allocator@U?$pair@$$CBKPAVIData@@@std@@@3@$0A@@std@@@std@@KAAADPAU_Node@?$_Tree_nod@V?$_Tmap_traits@KPAVIData@@U?$less@K@std@@V?$allocator@U?$pair@$$CBKPAVIData@@@std@@@3@$0A@@std@@@2@@Z
_TEXT	SEGMENT PARA USE32 PUBLIC 'CODE'
_TEXT	ENDS
;	COMDAT ?max_size@?$_Tree@V?$_Tmap_traits@KPAVIData@@U?$less@K@std@@V?$allocator@U?$pair@$$CBKPAVIData@@@std@@@3@$0A@@std@@@std@@QBEIXZ
_TEXT	SEGMENT PARA USE32 PUBLIC 'CODE'
_TEXT	ENDS
;	COMDAT ?_Lrotate@?$_Tree@V?$_Tmap_traits@KPAVIData@@U?$less@K@std@@V?$allocator@U?$pair@$$CBKPAVIData@@@std@@@3@$0A@@std@@@std@@IAEXPAU_Node@?$_Tree_nod@V?$_Tmap_traits@KPAVIData@@U?$less@K@std@@V?$allocator@U?$pair@$$CBKPAVIData@@@std@@@3@$0A@@std@@@2@@Z
_TEXT	SEGMENT PARA USE32 PUBLIC 'CODE'
_TEXT	ENDS
;	COMDAT ?_Max@?$_Tree@V?$_Tmap_traits@KPAVIData@@U?$less@K@std@@V?$allocator@U?$pair@$$CBKPAVIData@@@std@@@3@$0A@@std@@@std@@KAPAU_Node@?$_Tree_nod@V?$_Tmap_traits@KPAVIData@@U?$less@K@std@@V?$allocator@U?$pair@$$CBKPAVIData@@@std@@@3@$0A@@std@@@2@PAU342@@Z
_TEXT	SEGMENT PARA USE32 PUBLIC 'CODE'
_TEXT	ENDS
;	COMDAT ?_Min@?$_Tree@V?$_Tmap_traits@KPAVIData@@U?$less@K@std@@V?$allocator@U?$pair@$$CBKPAVIData@@@std@@@3@$0A@@std@@@std@@KAPAU_Node@?$_Tree_nod@V?$_Tmap_traits@KPAVIData@@U?$less@K@std@@V?$allocator@U?$pair@$$CBKPAVIData@@@std@@@3@$0A@@std@@@2@PAU342@@Z
_TEXT	SEGMENT PARA USE32 PUBLIC 'CODE'
_TEXT	ENDS
;	COMDAT ?_Root@?$_Tree@V?$_Tmap_traits@KPAVIData@@U?$less@K@std@@V?$allocator@U?$pair@$$CBKPAVIData@@@std@@@3@$0A@@std@@@std@@IBEAAPAU_Node@?$_Tree_nod@V?$_Tmap_traits@KPAVIData@@U?$less@K@std@@V?$allocator@U?$pair@$$CBKPAVIData@@@std@@@3@$0A@@std@@@2@XZ
_TEXT	SEGMENT PARA USE32 PUBLIC 'CODE'
_TEXT	ENDS
;	COMDAT ?_Rrotate@?$_Tree@V?$_Tmap_traits@KPAVIData@@U?$less@K@std@@V?$allocator@U?$pair@$$CBKPAVIData@@@std@@@3@$0A@@std@@@std@@IAEXPAU_Node@?$_Tree_nod@V?$_Tmap_traits@KPAVIData@@U?$less@K@std@@V?$allocator@U?$pair@$$CBKPAVIData@@@std@@@3@$0A@@std@@@2@@Z
_TEXT	SEGMENT PARA USE32 PUBLIC 'CODE'
_TEXT	ENDS
;	COMDAT ?_Ubound@?$_Tree@V?$_Tmap_traits@KPAVIData@@U?$less@K@std@@V?$allocator@U?$pair@$$CBKPAVIData@@@std@@@3@$0A@@std@@@std@@IBEPAU_Node@?$_Tree_nod@V?$_Tmap_traits@KPAVIData@@U?$less@K@std@@V?$allocator@U?$pair@$$CBKPAVIData@@@std@@@3@$0A@@std@@@2@ABK@Z
_TEXT	SEGMENT PARA USE32 PUBLIC 'CODE'
_TEXT	ENDS
;	COMDAT ?_Buynode@?$_Tree@V?$_Tmap_traits@KPAVIData@@U?$less@K@std@@V?$allocator@U?$pair@$$CBKPAVIData@@@std@@@3@$0A@@std@@@std@@IAEPAU_Node@?$_Tree_nod@V?$_Tmap_traits@KPAVIData@@U?$less@K@std@@V?$allocator@U?$pair@$$CBKPAVIData@@@std@@@3@$0A@@std@@@2@XZ
_TEXT	SEGMENT PARA USE32 PUBLIC 'CODE'
_TEXT	ENDS
;	COMDAT ?_Buynode@?$_Tree@V?$_Tmap_traits@KPAVIData@@U?$less@K@std@@V?$allocator@U?$pair@$$CBKPAVIData@@@std@@@3@$0A@@std@@@std@@IAEPAU_Node@?$_Tree_nod@V?$_Tmap_traits@KPAVIData@@U?$less@K@std@@V?$allocator@U?$pair@$$CBKPAVIData@@@std@@@3@$0A@@std@@@2@PAU342@00ABU?$pair@$$CBKPAVIData@@@2@D@Z
_TEXT	SEGMENT PARA USE32 PUBLIC 'CODE'
_TEXT	ENDS
;	COMDAT ??0?$_Tree_ptr@V?$_Tmap_traits@KPAVIData@@U?$less@K@std@@V?$allocator@U?$pair@$$CBKPAVIData@@@std@@@3@$0A@@std@@@std@@IAE@ABU?$less@K@1@V?$allocator@U?$pair@$$CBKPAVIData@@@std@@@1@@Z
_TEXT	SEGMENT PARA USE32 PUBLIC 'CODE'
_TEXT	ENDS
;	COMDAT ??0const_iterator@?$_Tree@V?$_Tmap_traits@KPAVIData@@U?$less@K@std@@V?$allocator@U?$pair@$$CBKPAVIData@@@std@@@3@$0A@@std@@@std@@QAE@XZ
_TEXT	SEGMENT PARA USE32 PUBLIC 'CODE'
_TEXT	ENDS
;	COMDAT ??Fconst_iterator@?$_Tree@V?$_Tmap_traits@KPAVIData@@U?$less@K@std@@V?$allocator@U?$pair@$$CBKPAVIData@@@std@@@3@$0A@@std@@@std@@QAEAAV012@XZ
_TEXT	SEGMENT PARA USE32 PUBLIC 'CODE'
_TEXT	ENDS
;	COMDAT ?_Inc@const_iterator@?$_Tree@V?$_Tmap_traits@KPAVIData@@U?$less@K@std@@V?$allocator@U?$pair@$$CBKPAVIData@@@std@@@3@$0A@@std@@@std@@QAEXXZ
_TEXT	SEGMENT PARA USE32 PUBLIC 'CODE'
_TEXT	ENDS
;	COMDAT ??0?$pair@Viterator@?$_Tree@V?$_Tmap_traits@KPAVIData@@U?$less@K@std@@V?$allocator@U?$pair@$$CBKPAVIData@@@std@@@3@$0A@@std@@@std@@_N@std@@QAE@ABViterator@?$_Tree@V?$_Tmap_traits@KPAVIData@@U?$less@K@std@@V?$allocator@U?$pair@$$CBKPAVIData@@@std@@@3@$0A@@std@@@1@AB_N@Z
_TEXT	SEGMENT PARA USE32 PUBLIC 'CODE'
_TEXT	ENDS
;	COMDAT ??0?$_Tree_nod@V?$_Tmap_traits@KPAVIData@@U?$less@K@std@@V?$allocator@U?$pair@$$CBKPAVIData@@@std@@@3@$0A@@std@@@std@@IAE@ABU?$less@K@1@V?$allocator@U?$pair@$$CBKPAVIData@@@std@@@1@@Z
_TEXT	SEGMENT PARA USE32 PUBLIC 'CODE'
_TEXT	ENDS
;	COMDAT ?max_size@?$allocator@U?$pair@$$CBKPAVIData@@@std@@@std@@QBEIXZ
_TEXT	SEGMENT PARA USE32 PUBLIC 'CODE'
_TEXT	ENDS
;	COMDAT ?allocate@?$allocator@U_Node@?$_Tree_nod@V?$_Tmap_traits@KPAVIData@@U?$less@K@std@@V?$allocator@U?$pair@$$CBKPAVIData@@@std@@@3@$0A@@std@@@std@@@std@@QAEPAU_Node@?$_Tree_nod@V?$_Tmap_traits@KPAVIData@@U?$less@K@std@@V?$allocator@U?$pair@$$CBKPAVIData@@@std@@@3@$0A@@std@@@2@I@Z
_TEXT	SEGMENT PARA USE32 PUBLIC 'CODE'
_TEXT	ENDS
;	COMDAT ?construct@?$allocator@PAU_Node@?$_Tree_nod@V?$_Tmap_traits@KPAVIData@@U?$less@K@std@@V?$allocator@U?$pair@$$CBKPAVIData@@@std@@@3@$0A@@std@@@std@@@std@@QAEXPAPAU_Node@?$_Tree_nod@V?$_Tmap_traits@KPAVIData@@U?$less@K@std@@V?$allocator@U?$pair@$$CBKPAVIData@@@std@@@3@$0A@@std@@@2@ABQAU342@@Z
_TEXT	SEGMENT PARA USE32 PUBLIC 'CODE'
_TEXT	ENDS
;	COMDAT ?_Dec@const_iterator@?$_Tree@V?$_Tmap_traits@KPAVIData@@U?$less@K@std@@V?$allocator@U?$pair@$$CBKPAVIData@@@std@@@3@$0A@@std@@@std@@QAEXXZ
_TEXT	SEGMENT PARA USE32 PUBLIC 'CODE'
_TEXT	ENDS
;	COMDAT ??0_Node@?$_Tree_nod@V?$_Tmap_traits@KPAVIData@@U?$less@K@std@@V?$allocator@U?$pair@$$CBKPAVIData@@@std@@@3@$0A@@std@@@std@@QAE@PAU012@00ABU?$pair@$$CBKPAVIData@@@2@D@Z
_TEXT	SEGMENT PARA USE32 PUBLIC 'CODE'
_TEXT	ENDS
;	COMDAT ??0?$_Tmap_traits@KPAVIData@@U?$less@K@std@@V?$allocator@U?$pair@$$CBKPAVIData@@@std@@@3@$0A@@std@@QAE@U?$less@K@1@@Z
_TEXT	SEGMENT PARA USE32 PUBLIC 'CODE'
_TEXT	ENDS
;	COMDAT ?Unlock@?$CComCritSecLock@VCComCriticalSection@ATL@@@ATL@@QAEXXZ
_TEXT	SEGMENT PARA USE32 PUBLIC 'CODE'
_TEXT	ENDS
;	COMDAT ??$_Distance@Viterator@?$_Tree@V?$_Tmap_traits@KPAVIData@@U?$less@K@std@@V?$allocator@U?$pair@$$CBKPAVIData@@@std@@@3@$0A@@std@@@std@@I@std@@YAXViterator@?$_Tree@V?$_Tmap_traits@KPAVIData@@U?$less@K@std@@V?$allocator@U?$pair@$$CBKPAVIData@@@std@@@3@$0A@@std@@@0@0AAI@Z
_TEXT	SEGMENT PARA USE32 PUBLIC 'CODE'
_TEXT	ENDS
;	COMDAT ??$_Maklocstr@D@std@@YAPADPBDPADABU_Cvtvec@@@Z
_TEXT	SEGMENT PARA USE32 PUBLIC 'CODE'
_TEXT	ENDS
;	COMDAT ??$_Destroy@U_Node@?$_Tree_nod@V?$_Tmap_traits@KPAVIData@@U?$less@K@std@@V?$allocator@U?$pair@$$CBKPAVIData@@@std@@@3@$0A@@std@@@std@@@std@@YAXPAU_Node@?$_Tree_nod@V?$_Tmap_traits@KPAVIData@@U?$less@K@std@@V?$allocator@U?$pair@$$CBKPAVIData@@@std@@@3@$0A@@std@@@0@@Z
_TEXT	SEGMENT PARA USE32 PUBLIC 'CODE'
_TEXT	ENDS
;	COMDAT ??$_Destroy@PAU_Node@?$_Tree_nod@V?$_Tmap_traits@KPAVIData@@U?$less@K@std@@V?$allocator@U?$pair@$$CBKPAVIData@@@std@@@3@$0A@@std@@@std@@@std@@YAXPAPAU_Node@?$_Tree_nod@V?$_Tmap_traits@KPAVIData@@U?$less@K@std@@V?$allocator@U?$pair@$$CBKPAVIData@@@std@@@3@$0A@@std@@@0@@Z
_TEXT	SEGMENT PARA USE32 PUBLIC 'CODE'
_TEXT	ENDS
;	COMDAT ??$?0U?$pair@$$CBKPAVIData@@@std@@@?$allocator@PAU_Node@?$_Tree_nod@V?$_Tmap_traits@KPAVIData@@U?$less@K@std@@V?$allocator@U?$pair@$$CBKPAVIData@@@std@@@3@$0A@@std@@@std@@@std@@QAE@ABV?$allocator@U?$pair@$$CBKPAVIData@@@std@@@1@@Z
_TEXT	SEGMENT PARA USE32 PUBLIC 'CODE'
_TEXT	ENDS
;	COMDAT ??$?0U?$pair@$$CBKPAVIData@@@std@@@?$allocator@U_Node@?$_Tree_nod@V?$_Tmap_traits@KPAVIData@@U?$less@K@std@@V?$allocator@U?$pair@$$CBKPAVIData@@@std@@@3@$0A@@std@@@std@@@std@@QAE@ABV?$allocator@U?$pair@$$CBKPAVIData@@@std@@@1@@Z
_TEXT	SEGMENT PARA USE32 PUBLIC 'CODE'
_TEXT	ENDS
;	COMDAT ??$_Allocate@U_Node@?$_Tree_nod@V?$_Tmap_traits@KPAVIData@@U?$less@K@std@@V?$allocator@U?$pair@$$CBKPAVIData@@@std@@@3@$0A@@std@@@std@@@std@@YAPAU_Node@?$_Tree_nod@V?$_Tmap_traits@KPAVIData@@U?$less@K@std@@V?$allocator@U?$pair@$$CBKPAVIData@@@std@@@3@$0A@@std@@@0@IPAU120@@Z
_TEXT	SEGMENT PARA USE32 PUBLIC 'CODE'
_TEXT	ENDS
;	COMDAT ??$_Construct@PAU_Node@?$_Tree_nod@V?$_Tmap_traits@KPAVIData@@U?$less@K@std@@V?$allocator@U?$pair@$$CBKPAVIData@@@std@@@3@$0A@@std@@@std@@PAU123@@std@@YAXPAPAU_Node@?$_Tree_nod@V?$_Tmap_traits@KPAVIData@@U?$less@K@std@@V?$allocator@U?$pair@$$CBKPAVIData@@@std@@@3@$0A@@std@@@0@ABQAU120@@Z
_TEXT	SEGMENT PARA USE32 PUBLIC 'CODE'
_TEXT	ENDS
;	COMDAT ??$_Iter_cat@Viterator@?$_Tree@V?$_Tmap_traits@KPAVIData@@U?$less@K@std@@V?$allocator@U?$pair@$$CBKPAVIData@@@std@@@3@$0A@@std@@@std@@@std@@YA?AUbidirectional_iterator_tag@0@ABViterator@?$_Tree@V?$_Tmap_traits@KPAVIData@@U?$less@K@std@@V?$allocator@U?$pair@$$CBKPAVIData@@@std@@@3@$0A@@std@@@0@@Z
_TEXT	SEGMENT PARA USE32 PUBLIC 'CODE'
_TEXT	ENDS
;	COMDAT ??$_Distance2@Viterator@?$_Tree@V?$_Tmap_traits@KPAVIData@@U?$less@K@std@@V?$allocator@U?$pair@$$CBKPAVIData@@@std@@@3@$0A@@std@@@std@@I@std@@YAXViterator@?$_Tree@V?$_Tmap_traits@KPAVIData@@U?$less@K@std@@V?$allocator@U?$pair@$$CBKPAVIData@@@std@@@3@$0A@@std@@@0@0AAIUbidirectional_iterator_tag@0@@Z
_TEXT	SEGMENT PARA USE32 PUBLIC 'CODE'
_TEXT	ENDS
;	COMDAT ??_R3?$numpunct@_W@std@@8
rdata$r	SEGMENT DWORD USE32 PUBLIC 'CONST'
rdata$r	ENDS
;	COMDAT ??_R3?$numpunct@D@std@@8
rdata$r	SEGMENT DWORD USE32 PUBLIC 'CONST'
rdata$r	ENDS
;	COMDAT ??_R3IData@@8
rdata$r	SEGMENT DWORD USE32 PUBLIC 'CONST'
rdata$r	ENDS
;	COMDAT ??_R3CDataManager@@8
rdata$r	SEGMENT DWORD USE32 PUBLIC 'CONST'
rdata$r	ENDS
;	COMDAT ??_R3IAdData@@8
rdata$r	SEGMENT DWORD USE32 PUBLIC 'CONST'
rdata$r	ENDS
;	COMDAT ??_R2?$numpunct@_W@std@@8
rdata$r	SEGMENT DWORD USE32 PUBLIC 'CONST'
rdata$r	ENDS
;	COMDAT ??_R2?$numpunct@D@std@@8
rdata$r	SEGMENT DWORD USE32 PUBLIC 'CONST'
rdata$r	ENDS
;	COMDAT ??_R2IData@@8
rdata$r	SEGMENT DWORD USE32 PUBLIC 'CONST'
rdata$r	ENDS
;	COMDAT ??_R2CDataManager@@8
rdata$r	SEGMENT DWORD USE32 PUBLIC 'CONST'
rdata$r	ENDS
;	COMDAT ??_R2IAdData@@8
rdata$r	SEGMENT DWORD USE32 PUBLIC 'CONST'
rdata$r	ENDS
;	COMDAT ??_R1A@?0A@A@?$numpunct@_W@std@@8
rdata$r	SEGMENT DWORD USE32 PUBLIC 'CONST'
rdata$r	ENDS
;	COMDAT ??_R1A@?0A@A@facet@locale@std@@8
rdata$r	SEGMENT DWORD USE32 PUBLIC 'CONST'
rdata$r	ENDS
;	COMDAT ??_R0?AVfacet@locale@std@@@8
_DATA	SEGMENT DWORD USE32 PUBLIC 'DATA'
_DATA	ENDS
;	COMDAT ??_R1A@?0A@A@?$numpunct@D@std@@8
rdata$r	SEGMENT DWORD USE32 PUBLIC 'CONST'
rdata$r	ENDS
;	COMDAT ??_R1A@?0A@A@IDataManager@@8
rdata$r	SEGMENT DWORD USE32 PUBLIC 'CONST'
rdata$r	ENDS
;	COMDAT ??_R0?AVIDataManager@@@8
_DATA	SEGMENT DWORD USE32 PUBLIC 'DATA'
_DATA	ENDS
;	COMDAT ??_R1A@?0A@A@CDataManager@@8
rdata$r	SEGMENT DWORD USE32 PUBLIC 'CONST'
rdata$r	ENDS
;	COMDAT ??_R1A@?0A@A@IData@@8
rdata$r	SEGMENT DWORD USE32 PUBLIC 'CONST'
rdata$r	ENDS
;	COMDAT ??_R1A@?0A@A@IAdData@@8
rdata$r	SEGMENT DWORD USE32 PUBLIC 'CONST'
rdata$r	ENDS
;	COMDAT ??_R0?AV?$numpunct@_W@std@@@8
_DATA	SEGMENT DWORD USE32 PUBLIC 'DATA'
_DATA	ENDS
;	COMDAT ??_R0?AV?$numpunct@D@std@@@8
_DATA	SEGMENT DWORD USE32 PUBLIC 'DATA'
_DATA	ENDS
;	COMDAT ??_R0?AVCDataManager@@@8
_DATA	SEGMENT DWORD USE32 PUBLIC 'DATA'
_DATA	ENDS
;	COMDAT ??_R0?AVIData@@@8
_DATA	SEGMENT DWORD USE32 PUBLIC 'DATA'
_DATA	ENDS
;	COMDAT ??_R0?AVIAdData@@@8
_DATA	SEGMENT DWORD USE32 PUBLIC 'DATA'
_DATA	ENDS
;	COMDAT ??0?$allocator@_W@std@@QAE@XZ
_TEXT	SEGMENT PARA USE32 PUBLIC 'CODE'
_TEXT	ENDS
;	COMDAT ??_G?$numpunct@_W@std@@MAEPAXI@Z
_TEXT	SEGMENT PARA USE32 PUBLIC 'CODE'
_TEXT	ENDS
;	COMDAT ??_R4?$numpunct@_W@std@@6B@
rdata$r	SEGMENT DWORD USE32 PUBLIC 'CONST'
rdata$r	ENDS
;	COMDAT ??_G?$numpunct@D@std@@MAEPAXI@Z
_TEXT	SEGMENT PARA USE32 PUBLIC 'CODE'
_TEXT	ENDS
;	COMDAT ??_R4?$numpunct@D@std@@6B@
rdata$r	SEGMENT DWORD USE32 PUBLIC 'CONST'
rdata$r	ENDS
;	COMDAT ??_R4IData@@6B@
rdata$r	SEGMENT DWORD USE32 PUBLIC 'CONST'
rdata$r	ENDS
;	COMDAT ??_R4CDataManager@@6B@
rdata$r	SEGMENT DWORD USE32 PUBLIC 'CONST'
rdata$r	ENDS
;	COMDAT ??_R4IAdData@@6B@
rdata$r	SEGMENT DWORD USE32 PUBLIC 'CONST'
rdata$r	ENDS
;	COMDAT ??_C@_0EN@CBMLGOH@D?3?2Program?5Files?5?$CIx86?$CJ?2Microsoft@
CONST	SEGMENT DWORD USE32 PUBLIC 'CONST'
CONST	ENDS
;	COMDAT ?_Psave@?$_Facetptr@V?$numpunct@_W@std@@@std@@2PBVfacet@locale@2@B
_DATA	SEGMENT DWORD USE32 PUBLIC 'DATA'
_DATA	ENDS
;	COMDAT ?_Psave@?$_Facetptr@V?$numpunct@D@std@@@std@@2PBVfacet@locale@2@B
_DATA	SEGMENT DWORD USE32 PUBLIC 'DATA'
_DATA	ENDS
;	COMDAT ?Unlock@CComCriticalSection@ATL@@QAEJXZ
_TEXT	SEGMENT PARA USE32 PUBLIC 'CODE'
_TEXT	ENDS
;	COMDAT ??_C@_0FG@LDNDNCJM@D?3?2Program?5Files?5?$CIx86?$CJ?2Microsoft@
CONST	SEGMENT DWORD USE32 PUBLIC 'CONST'
CONST	ENDS
;	COMDAT ??_C@_09HIEJFN@m_bLocked?$AA@
CONST	SEGMENT DWORD USE32 PUBLIC 'CONST'
CONST	ENDS
;	COMDAT ?_Psave@?$_Facetptr@V?$ctype@_W@std@@@std@@2PBVfacet@locale@2@B
_DATA	SEGMENT DWORD USE32 PUBLIC 'DATA'
_DATA	ENDS
;	COMDAT ?_Psave@?$_Facetptr@V?$ctype@D@std@@@std@@2PBVfacet@locale@2@B
_DATA	SEGMENT DWORD USE32 PUBLIC 'DATA'
_DATA	ENDS
;	COMDAT ??3@YAXPAX0@Z
_TEXT	SEGMENT PARA USE32 PUBLIC 'CODE'
_TEXT	ENDS
;	COMDAT ??2@YAPAXIPAX@Z
_TEXT	SEGMENT PARA USE32 PUBLIC 'CODE'
_TEXT	ENDS
;	COMDAT ??_7length_error@std@@6B@
CONST	SEGMENT DWORD USE32 PUBLIC 'CONST'
CONST	ENDS
;	COMDAT ??_R4length_error@std@@6B@
rdata$r	SEGMENT DWORD USE32 PUBLIC 'CONST'
rdata$r	ENDS
;	COMDAT ??_R3length_error@std@@8
rdata$r	SEGMENT DWORD USE32 PUBLIC 'CONST'
rdata$r	ENDS
;	COMDAT ??_R2length_error@std@@8
rdata$r	SEGMENT DWORD USE32 PUBLIC 'CONST'
rdata$r	ENDS
;	COMDAT ??_R1A@?0A@A@length_error@std@@8
rdata$r	SEGMENT DWORD USE32 PUBLIC 'CONST'
rdata$r	ENDS
;	COMDAT ??_R1A@?0A@A@logic_error@std@@8
rdata$r	SEGMENT DWORD USE32 PUBLIC 'CONST'
rdata$r	ENDS
;	COMDAT ??_R0?AVlogic_error@std@@@8
_DATA	SEGMENT DWORD USE32 PUBLIC 'DATA'
_DATA	ENDS
;	COMDAT ??_R1A@?0A@A@exception@@8
rdata$r	SEGMENT DWORD USE32 PUBLIC 'CONST'
rdata$r	ENDS
;	COMDAT ??_R0?AVexception@@@8
_DATA	SEGMENT DWORD USE32 PUBLIC 'DATA'
_DATA	ENDS
;	COMDAT ??_Glength_error@std@@UAEPAXI@Z
_TEXT	SEGMENT PARA USE32 PUBLIC 'CODE'
_TEXT	ENDS
;	COMDAT ?what@logic_error@std@@UBEPBDXZ
_TEXT	SEGMENT PARA USE32 PUBLIC 'CODE'
_TEXT	ENDS
;	COMDAT ??1logic_error@std@@UAE@XZ
_TEXT	SEGMENT PARA USE32 PUBLIC 'CODE'
_TEXT	ENDS
;	COMDAT ??_7logic_error@std@@6B@
CONST	SEGMENT DWORD USE32 PUBLIC 'CONST'
CONST	ENDS
;	COMDAT ??_R4logic_error@std@@6B@
rdata$r	SEGMENT DWORD USE32 PUBLIC 'CONST'
rdata$r	ENDS
;	COMDAT ??_R3logic_error@std@@8
rdata$r	SEGMENT DWORD USE32 PUBLIC 'CONST'
rdata$r	ENDS
;	COMDAT ??_R2logic_error@std@@8
rdata$r	SEGMENT DWORD USE32 PUBLIC 'CONST'
rdata$r	ENDS
;	COMDAT ??_Glogic_error@std@@UAEPAXI@Z
_TEXT	SEGMENT PARA USE32 PUBLIC 'CODE'
_TEXT	ENDS
;	COMDAT ??0logic_error@std@@QAE@ABV01@@Z
_TEXT	SEGMENT PARA USE32 PUBLIC 'CODE'
_TEXT	ENDS
;	COMDAT ??0?$allocator@D@std@@QAE@ABV01@@Z
_TEXT	SEGMENT PARA USE32 PUBLIC 'CODE'
_TEXT	ENDS
;	COMDAT ?deallocate@?$allocator@D@std@@QAEXPADI@Z
_TEXT	SEGMENT PARA USE32 PUBLIC 'CODE'
_TEXT	ENDS
;	COMDAT ?max_size@?$allocator@D@std@@QBEIXZ
_TEXT	SEGMENT PARA USE32 PUBLIC 'CODE'
_TEXT	ENDS
;	COMDAT ?allocate@?$allocator@D@std@@QAEPADI@Z
_TEXT	SEGMENT PARA USE32 PUBLIC 'CODE'
_TEXT	ENDS
;	COMDAT ??$_Allocate@D@std@@YAPADIPAD@Z
_TEXT	SEGMENT PARA USE32 PUBLIC 'CODE'
_TEXT	ENDS
;	COMDAT __CTA3?AVlength_error@std@@
xdata$x	SEGMENT DWORD USE32 PUBLIC 'CONST'
xdata$x	ENDS
;	COMDAT ??1length_error@std@@UAE@XZ
_TEXT	SEGMENT PARA USE32 PUBLIC 'CODE'
_TEXT	ENDS
;	COMDAT __CT??_R0?AVexception@@@8??0exception@@QAE@ABV0@@Z12
xdata$x	SEGMENT DWORD USE32 PUBLIC 'CONST'
xdata$x	ENDS
;	COMDAT __CT??_R0?AVlogic_error@std@@@8??0logic_error@std@@QAE@ABV01@@Z40
xdata$x	SEGMENT DWORD USE32 PUBLIC 'CONST'
xdata$x	ENDS
;	COMDAT __CT??_R0?AVlength_error@std@@@8??0length_error@std@@QAE@ABV01@@Z40
xdata$x	SEGMENT DWORD USE32 PUBLIC 'CONST'
xdata$x	ENDS
;	COMDAT ??_R0?AVlength_error@std@@@8
_DATA	SEGMENT DWORD USE32 PUBLIC 'DATA'
_DATA	ENDS
;	COMDAT __TI3?AVlength_error@std@@
xdata$x	SEGMENT DWORD USE32 PUBLIC 'CONST'
xdata$x	ENDS
;	COMDAT ??0length_error@std@@QAE@ABV?$basic_string@DU?$char_traits@D@std@@V?$allocator@D@2@@1@@Z
_TEXT	SEGMENT PARA USE32 PUBLIC 'CODE'
_TEXT	ENDS
;	COMDAT ??0logic_error@std@@QAE@ABV?$basic_string@DU?$char_traits@D@std@@V?$allocator@D@2@@1@@Z
_TEXT	SEGMENT PARA USE32 PUBLIC 'CODE'
_TEXT	ENDS
;	COMDAT ??$swap@D@std@@YAXAAD0@Z
_TEXT	SEGMENT PARA USE32 PUBLIC 'CODE'
_TEXT	ENDS
;	COMDAT __TI3?AVout_of_range@std@@
xdata$x	SEGMENT DWORD USE32 PUBLIC 'CONST'
xdata$x	ENDS
;	COMDAT ??1out_of_range@std@@UAE@XZ
_TEXT	SEGMENT PARA USE32 PUBLIC 'CODE'
_TEXT	ENDS
;	COMDAT ??_7out_of_range@std@@6B@
CONST	SEGMENT DWORD USE32 PUBLIC 'CONST'
CONST	ENDS
;	COMDAT ??_R4out_of_range@std@@6B@
rdata$r	SEGMENT DWORD USE32 PUBLIC 'CONST'
rdata$r	ENDS
;	COMDAT ??_R0?AVout_of_range@std@@@8
_DATA	SEGMENT DWORD USE32 PUBLIC 'DATA'
_DATA	ENDS
;	COMDAT ??_R3out_of_range@std@@8
rdata$r	SEGMENT DWORD USE32 PUBLIC 'CONST'
rdata$r	ENDS
;	COMDAT ??_R2out_of_range@std@@8
rdata$r	SEGMENT DWORD USE32 PUBLIC 'CONST'
rdata$r	ENDS
;	COMDAT ??_R1A@?0A@A@out_of_range@std@@8
rdata$r	SEGMENT DWORD USE32 PUBLIC 'CONST'
rdata$r	ENDS
;	COMDAT ??_Gout_of_range@std@@UAEPAXI@Z
_TEXT	SEGMENT PARA USE32 PUBLIC 'CODE'
_TEXT	ENDS
;	COMDAT __CTA3?AVout_of_range@std@@
xdata$x	SEGMENT DWORD USE32 PUBLIC 'CONST'
xdata$x	ENDS
;	COMDAT __CT??_R0?AVout_of_range@std@@@8??0out_of_range@std@@QAE@ABV01@@Z40
xdata$x	SEGMENT DWORD USE32 PUBLIC 'CONST'
xdata$x	ENDS
;	COMDAT ??0out_of_range@std@@QAE@ABV01@@Z
_TEXT	SEGMENT PARA USE32 PUBLIC 'CODE'
_TEXT	ENDS
;	COMDAT ??_C@_0BM@PAPJHAGI@invalid?5map?1set?$DMT?$DO?5iterator?$AA@
CONST	SEGMENT DWORD USE32 PUBLIC 'CONST'
CONST	ENDS
;	COMDAT ??0out_of_range@std@@QAE@ABV?$basic_string@DU?$char_traits@D@std@@V?$allocator@D@2@@1@@Z
_TEXT	SEGMENT PARA USE32 PUBLIC 'CODE'
_TEXT	ENDS
;	COMDAT ??$_Maklocchr@_W@std@@YA_WDPA_WABU_Cvtvec@@@Z
_TEXT	SEGMENT PARA USE32 PUBLIC 'CODE'
_TEXT	ENDS
;	COMDAT ??$_DebugHeapDelete@X@std@@YAXPAX@Z
_TEXT	SEGMENT PARA USE32 PUBLIC 'CODE'
_TEXT	ENDS
;	COMDAT ??$_Maklocstr@_W@std@@YAPA_WPBDPA_WABU_Cvtvec@@@Z
_TEXT	SEGMENT PARA USE32 PUBLIC 'CODE'
_TEXT	ENDS
;	COMDAT ??$_Maklocchr@D@std@@YADDPADABU_Cvtvec@@@Z
_TEXT	SEGMENT PARA USE32 PUBLIC 'CODE'
_TEXT	ENDS
;	COMDAT ??_C@_04LOAJBDKD@true?$AA@
CONST	SEGMENT DWORD USE32 PUBLIC 'CONST'
CONST	ENDS
;	COMDAT ??_C@_05LAPONLG@false?$AA@
CONST	SEGMENT DWORD USE32 PUBLIC 'CONST'
CONST	ENDS
;	COMDAT _wmemcpy
_TEXT	SEGMENT PARA USE32 PUBLIC 'CODE'
_TEXT	ENDS
;	COMDAT ?max_size@?$allocator@_W@std@@QBEIXZ
_TEXT	SEGMENT PARA USE32 PUBLIC 'CODE'
_TEXT	ENDS
;	COMDAT ?allocate@?$allocator@_W@std@@QAEPA_WI@Z
_TEXT	SEGMENT PARA USE32 PUBLIC 'CODE'
_TEXT	ENDS
;	COMDAT ??$_Allocate@_W@std@@YAPA_WIPA_W@Z
_TEXT	SEGMENT PARA USE32 PUBLIC 'CODE'
_TEXT	ENDS
;	COMDAT ??_C@_01GFHCPBMG@C?$AA@
CONST	SEGMENT DWORD USE32 PUBLIC 'CONST'
CONST	ENDS
;	COMDAT ?_Peek@?$istreambuf_iterator@_WU?$char_traits@_W@std@@@std@@AAE_WXZ
_TEXT	SEGMENT PARA USE32 PUBLIC 'CODE'
_TEXT	ENDS
;	COMDAT ?_Peek@?$istreambuf_iterator@DU?$char_traits@D@std@@@std@@AAEDXZ
_TEXT	SEGMENT PARA USE32 PUBLIC 'CODE'
_TEXT	ENDS
;	COMDAT ??$use_facet@V?$ctype@_W@std@@@std@@YAABV?$ctype@_W@0@ABVlocale@0@@Z
_TEXT	SEGMENT PARA USE32 PUBLIC 'CODE'
_TEXT	ENDS
;	COMDAT ??_S?$ctype@_W@std@@6B@
CONST	SEGMENT DWORD USE32 PUBLIC 'CONST'
CONST	ENDS
;	COMDAT ??_R4?$ctype@_W@std@@6B@
rdata$r	SEGMENT DWORD USE32 PUBLIC 'CONST'
rdata$r	ENDS
;	COMDAT ??_R0?AV?$ctype@_W@std@@@8
_DATA	SEGMENT DWORD USE32 PUBLIC 'DATA'
_DATA	ENDS
;	COMDAT ??_R3?$ctype@_W@std@@8
rdata$r	SEGMENT DWORD USE32 PUBLIC 'CONST'
rdata$r	ENDS
;	COMDAT ??_R2?$ctype@_W@std@@8
rdata$r	SEGMENT DWORD USE32 PUBLIC 'CONST'
rdata$r	ENDS
;	COMDAT ??_R1A@?0A@A@?$ctype@_W@std@@8
rdata$r	SEGMENT DWORD USE32 PUBLIC 'CONST'
rdata$r	ENDS
;	COMDAT ??_R1A@?0A@A@ctype_base@std@@8
rdata$r	SEGMENT DWORD USE32 PUBLIC 'CONST'
rdata$r	ENDS
;	COMDAT ??_R0?AUctype_base@std@@@8
_DATA	SEGMENT DWORD USE32 PUBLIC 'DATA'
_DATA	ENDS
;	COMDAT ??_G?$ctype@_W@std@@MAEPAXI@Z
_TEXT	SEGMENT PARA USE32 PUBLIC 'CODE'
_TEXT	ENDS
;	COMDAT ??_C@_08EPJLHIJG@bad?5cast?$AA@
CONST	SEGMENT DWORD USE32 PUBLIC 'CONST'
CONST	ENDS
;	COMDAT __TI2?AVbad_cast@@
xdata$x	SEGMENT DWORD USE32 PUBLIC 'CONST'
xdata$x	ENDS
;	COMDAT __CTA2?AVbad_cast@@
xdata$x	SEGMENT DWORD USE32 PUBLIC 'CONST'
xdata$x	ENDS
;	COMDAT __CT??_R0?AVbad_cast@@@8??0bad_cast@@QAE@ABV0@@Z12
xdata$x	SEGMENT DWORD USE32 PUBLIC 'CONST'
xdata$x	ENDS
;	COMDAT ??_R0?AVbad_cast@@@8
_DATA	SEGMENT DWORD USE32 PUBLIC 'DATA'
_DATA	ENDS
;	COMDAT ??$_DebugHeapDelete@Vfacet@locale@std@@@std@@YAXPAVfacet@locale@0@@Z
_TEXT	SEGMENT PARA USE32 PUBLIC 'CODE'
_TEXT	ENDS
;	COMDAT ??$use_facet@V?$ctype@D@std@@@std@@YAABV?$ctype@D@0@ABVlocale@0@@Z
_TEXT	SEGMENT PARA USE32 PUBLIC 'CODE'
_TEXT	ENDS
;	COMDAT ??_S?$ctype@D@std@@6B@
CONST	SEGMENT DWORD USE32 PUBLIC 'CONST'
CONST	ENDS
;	COMDAT ??_R4?$ctype@D@std@@6B@
rdata$r	SEGMENT DWORD USE32 PUBLIC 'CONST'
rdata$r	ENDS
;	COMDAT ??_R0?AV?$ctype@D@std@@@8
_DATA	SEGMENT DWORD USE32 PUBLIC 'DATA'
_DATA	ENDS
;	COMDAT ??_R3?$ctype@D@std@@8
rdata$r	SEGMENT DWORD USE32 PUBLIC 'CONST'
rdata$r	ENDS
;	COMDAT ??_R2?$ctype@D@std@@8
rdata$r	SEGMENT DWORD USE32 PUBLIC 'CONST'
rdata$r	ENDS
;	COMDAT ??_R1A@?0A@A@?$ctype@D@std@@8
rdata$r	SEGMENT DWORD USE32 PUBLIC 'CONST'
rdata$r	ENDS
;	COMDAT ??_G?$ctype@D@std@@MAEPAXI@Z
_TEXT	SEGMENT PARA USE32 PUBLIC 'CODE'
_TEXT	ENDS
;	COMDAT ??_S?$numpunct@_W@std@@6B@
CONST	SEGMENT DWORD USE32 PUBLIC 'CONST'
CONST	ENDS
;	COMDAT ??_S?$numpunct@D@std@@6B@
CONST	SEGMENT DWORD USE32 PUBLIC 'CONST'
CONST	ENDS
;	COMDAT _wmemmove
_TEXT	SEGMENT PARA USE32 PUBLIC 'CODE'
_TEXT	ENDS
;	COMDAT ?deallocate@?$allocator@_W@std@@QAEXPA_WI@Z
_TEXT	SEGMENT PARA USE32 PUBLIC 'CODE'
_TEXT	ENDS
;	COMDAT ??0?$allocator@_W@std@@QAE@ABV01@@Z
_TEXT	SEGMENT PARA USE32 PUBLIC 'CODE'
_TEXT	ENDS
;	COMDAT ??0?$allocator@D@std@@QAE@XZ
_TEXT	SEGMENT PARA USE32 PUBLIC 'CODE'
_TEXT	ENDS
;	COMDAT ??_7IDataManager@@6B@
CONST	SEGMENT DWORD USE32 PUBLIC 'CONST'
CONST	ENDS
;	COMDAT ??_R4IDataManager@@6B@
rdata$r	SEGMENT DWORD USE32 PUBLIC 'CONST'
rdata$r	ENDS
;	COMDAT ??_R3IDataManager@@8
rdata$r	SEGMENT DWORD USE32 PUBLIC 'CONST'
rdata$r	ENDS
;	COMDAT ??_R2IDataManager@@8
rdata$r	SEGMENT DWORD USE32 PUBLIC 'CONST'
rdata$r	ENDS
;	COMDAT ??_GIDataManager@@UAEPAXI@Z
_TEXT	SEGMENT PARA USE32 PUBLIC 'CODE'
_TEXT	ENDS
;	COMDAT ??_7CDataManager@@6B@
CONST	SEGMENT DWORD USE32 PUBLIC 'CONST'
CONST	ENDS
;	COMDAT ??1IDataManager@@UAE@XZ
_TEXT	SEGMENT PARA USE32 PUBLIC 'CODE'
_TEXT	ENDS
;	COMDAT ??_7IAdData@@6B@
CONST	SEGMENT DWORD USE32 PUBLIC 'CONST'
CONST	ENDS
;	COMDAT ??_7IData@@6B@
CONST	SEGMENT DWORD USE32 PUBLIC 'CONST'
CONST	ENDS
sxdata	SEGMENT DWORD USE32 'SXDATA'
sxdata	ENDS
FLAT	GROUP _DATA, CONST, _BSS
	ASSUME	CS: FLAT, DS: FLAT, SS: FLAT
endif

INCLUDELIB MSVCRTD
INCLUDELIB OLDNAMES

CONST	SEGMENT
$SG188751 DB	'DataManAppStart======IN', 00H
$SG188752 DB	'DataManager', 00H
$SG188753 DB	'main.txt', 00H
	ORG $+3
$SG188756 DB	'DataManAppStart======OUT', 00H
	ORG $+3
$SG188757 DB	'DataManager', 00H
$SG188758 DB	'main.txt', 00H
	ORG $+3
$SG188764 DB	'DataManAppExit======IN', 00H
	ORG $+1
$SG188765 DB	'DataManager', 00H
$SG188766 DB	'main.txt', 00H
	ORG $+3
$SG188877 DB	'DataManAppExit--OUT', 00H
$SG188878 DB	'DataManager', 00H
$SG188879 DB	'main.txt', 00H
CONST	ENDS
PUBLIC	??_R4CDataManager@@6B@				; CDataManager::`RTTI Complete Object Locator'
PUBLIC	??_R0?AVCDataManager@@@8			; CDataManager `RTTI Type Descriptor'
PUBLIC	??_R3CDataManager@@8				; CDataManager::`RTTI Class Hierarchy Descriptor'
PUBLIC	??_R2CDataManager@@8				; CDataManager::`RTTI Base Class Array'
PUBLIC	??_R1A@?0A@A@CDataManager@@8			; CDataManager::`RTTI Base Class Descriptor at (0,-1,0,0)'
PUBLIC	??1IDataManager@@UAE@XZ				; IDataManager::~IDataManager
PUBLIC	??0IDataManager@@QAE@XZ				; IDataManager::IDataManager
PUBLIC	??0CDataManager@@QAE@XZ				; CDataManager::CDataManager
PUBLIC	?DataManAppStart@CDataManager@@UAEXXZ		; CDataManager::DataManAppStart
PUBLIC	?DataManAppExit@CDataManager@@UAEXXZ		; CDataManager::DataManAppExit
PUBLIC	?GetDataObject@CDataManager@@UAEPAVIData@@ABK@Z	; CDataManager::GetDataObject
PUBLIC	?AddDataObject@CDataManager@@UAEXABKPAVIData@@@Z ; CDataManager::AddDataObject
PUBLIC	?RemoveDataObject@CDataManager@@UAEXABK@Z	; CDataManager::RemoveDataObject
PUBLIC	??_R0?AVIDataManager@@@8			; IDataManager `RTTI Type Descriptor'
PUBLIC	??_R1A@?0A@A@IDataManager@@8			; IDataManager::`RTTI Base Class Descriptor at (0,-1,0,0)'
PUBLIC	?clear@?$_Tree@V?$_Tmap_traits@KPAVIData@@U?$less@K@std@@V?$allocator@U?$pair@$$CBKPAVIData@@@std@@@3@$0A@@std@@@std@@QAEXXZ ; std::_Tree<std::_Tmap_traits<unsigned long,IData *,std::less<unsigned long>,std::allocator<std::pair<unsigned long const ,IData *> >,0> >::clear
PUBLIC	??0?$map@KPAVIData@@U?$less@K@std@@V?$allocator@U?$pair@$$CBKPAVIData@@@std@@@3@@std@@QAE@XZ ; std::map<unsigned long,IData *,std::less<unsigned long>,std::allocator<std::pair<unsigned long const ,IData *> > >::map<unsigned long,IData *,std::less<unsigned long>,std::allocator<std::pair<unsigned long const ,IData *> > >
PUBLIC	??1?$map@KPAVIData@@U?$less@K@std@@V?$allocator@U?$pair@$$CBKPAVIData@@@std@@@3@@std@@QAE@XZ ; std::map<unsigned long,IData *,std::less<unsigned long>,std::allocator<std::pair<unsigned long const ,IData *> > >::~map<unsigned long,IData *,std::less<unsigned long>,std::allocator<std::pair<unsigned long const ,IData *> > >
PUBLIC	??_7CDataManager@@6B@				; CDataManager::`vftable'
PUBLIC	??_GCDataManager@@UAEPAXI@Z			; CDataManager::`scalar deleting destructor'
EXTRN	__imp__InitializeCriticalSection@4:NEAR
EXTRN	__RTC_InitBase:NEAR
EXTRN	__RTC_Shutdown:NEAR
EXTRN	__RTC_CheckEsp:NEAR
EXTRN	__except_list:DWORD
EXTRN	___CxxFrameHandler:NEAR
EXTRN	??_ECDataManager@@UAEPAXI@Z:NEAR		; CDataManager::`vector deleting destructor'
EXTRN	??_7type_info@@6B@:QWORD			; type_info::`vftable'
;	COMDAT rtc$IMZ
; File d:\boxgit\playbox\playbox\dev\prj\playbox\src\core\cdatamanager.cpp
rtc$IMZ	SEGMENT
__RTC_InitBase.rtc$IMZ DD FLAT:__RTC_InitBase
rtc$IMZ	ENDS
;	COMDAT rtc$TMZ
rtc$TMZ	SEGMENT
__RTC_Shutdown.rtc$TMZ DD FLAT:__RTC_Shutdown
rtc$TMZ	ENDS
xdata$x	SEGMENT
$T190176 DD	0ffffffffH
	DD	FLAT:$L190167
	DD	00H
	DD	FLAT:$L190168
$T190172 DD	019930520H
	DD	02H
	DD	FLAT:$T190176
	DD	2 DUP(00H)
	DD	2 DUP(00H)
xdata$x	ENDS
;	COMDAT ??_7CDataManager@@6B@
CONST	SEGMENT
??_7CDataManager@@6B@ DD FLAT:??_R4CDataManager@@6B@	; CDataManager::`vftable'
	DD	FLAT:??_ECDataManager@@UAEPAXI@Z
	DD	FLAT:?DataManAppStart@CDataManager@@UAEXXZ
	DD	FLAT:?DataManAppExit@CDataManager@@UAEXXZ
	DD	FLAT:?GetDataObject@CDataManager@@UAEPAVIData@@ABK@Z
	DD	FLAT:?AddDataObject@CDataManager@@UAEXABKPAVIData@@@Z
	DD	FLAT:?RemoveDataObject@CDataManager@@UAEXABK@Z
CONST	ENDS
;	COMDAT ??_R4CDataManager@@6B@
rdata$r	SEGMENT
??_R4CDataManager@@6B@ DD 00H				; CDataManager::`RTTI Complete Object Locator'
	DD	00H
	DD	00H
	DD	FLAT:??_R0?AVCDataManager@@@8
	DD	FLAT:??_R3CDataManager@@8
rdata$r	ENDS
;	COMDAT ??_R0?AVCDataManager@@@8
_DATA	SEGMENT
??_R0?AVCDataManager@@@8 DD FLAT:??_7type_info@@6B@	; CDataManager `RTTI Type Descriptor'
	DD	00H
	DB	'.?AVCDataManager@@', 00H
_DATA	ENDS
;	COMDAT ??_R3CDataManager@@8
rdata$r	SEGMENT
??_R3CDataManager@@8 DD 00H				; CDataManager::`RTTI Class Hierarchy Descriptor'
	DD	00H
	DD	02H
	DD	FLAT:??_R2CDataManager@@8
rdata$r	ENDS
;	COMDAT ??_R2CDataManager@@8
rdata$r	SEGMENT
??_R2CDataManager@@8 DD FLAT:??_R1A@?0A@A@CDataManager@@8 ; CDataManager::`RTTI Base Class Array'
	DD	FLAT:??_R1A@?0A@A@IDataManager@@8
rdata$r	ENDS
;	COMDAT ??_R1A@?0A@A@CDataManager@@8
rdata$r	SEGMENT
??_R1A@?0A@A@CDataManager@@8 DD FLAT:??_R0?AVCDataManager@@@8 ; CDataManager::`RTTI Base Class Descriptor at (0,-1,0,0)'
	DD	01H
	DD	00H
	DD	0ffffffffH
	DD	00H
	DD	00H
rdata$r	ENDS
;	COMDAT ??_R1A@?0A@A@IDataManager@@8
rdata$r	SEGMENT
??_R1A@?0A@A@IDataManager@@8 DD FLAT:??_R0?AVIDataManager@@@8 ; IDataManager::`RTTI Base Class Descriptor at (0,-1,0,0)'
	DD	00H
	DD	00H
	DD	0ffffffffH
	DD	00H
	DD	00H
rdata$r	ENDS
;	COMDAT ??_R0?AVIDataManager@@@8
_DATA	SEGMENT
??_R0?AVIDataManager@@@8 DD FLAT:??_7type_info@@6B@	; IDataManager `RTTI Type Descriptor'
	DD	00H
	DB	'.?AVIDataManager@@', 00H
; Function compile flags: /Odt /RTCsu
_DATA	ENDS
_TEXT	SEGMENT
_this$ = -16						; size = 4
__$EHRec$ = -12						; size = 12
??0CDataManager@@QAE@XZ PROC NEAR			; CDataManager::CDataManager
; _this$ = ecx

; 7    : {

  00000	55		 push	 ebp
  00001	8b ec		 mov	 ebp, esp
  00003	6a ff		 push	 -1
  00005	68 00 00 00 00	 push	 __ehhandler$??0CDataManager@@QAE@XZ
  0000a	64 a1 00 00 00
	00		 mov	 eax, DWORD PTR fs:__except_list
  00010	50		 push	 eax
  00011	64 89 25 00 00
	00 00		 mov	 DWORD PTR fs:__except_list, esp
  00018	51		 push	 ecx
  00019	56		 push	 esi
  0001a	c7 45 f0 cc cc
	cc cc		 mov	 DWORD PTR [ebp-16], -858993460 ; ccccccccH
  00021	89 4d f0	 mov	 DWORD PTR _this$[ebp], ecx
  00024	8b 4d f0	 mov	 ecx, DWORD PTR _this$[ebp]
  00027	e8 00 00 00 00	 call	 ??0IDataManager@@QAE@XZ
  0002c	c7 45 fc 00 00
	00 00		 mov	 DWORD PTR __$EHRec$[ebp+8], 0
  00033	8b 45 f0	 mov	 eax, DWORD PTR _this$[ebp]
  00036	c7 00 00 00 00
	00		 mov	 DWORD PTR [eax], OFFSET FLAT:??_7CDataManager@@6B@
  0003c	8b 4d f0	 mov	 ecx, DWORD PTR _this$[ebp]
  0003f	83 c1 04	 add	 ecx, 4
  00042	e8 00 00 00 00	 call	 ??0?$map@KPAVIData@@U?$less@K@std@@V?$allocator@U?$pair@$$CBKPAVIData@@@std@@@3@@std@@QAE@XZ ; std::map<unsigned long,IData *,std::less<unsigned long>,std::allocator<std::pair<unsigned long const ,IData *> > >::map<unsigned long,IData *,std::less<unsigned long>,std::allocator<std::pair<unsigned long const ,IData *> > >
  00047	c6 45 fc 01	 mov	 BYTE PTR __$EHRec$[ebp+8], 1

; 8    : 	m_mapDataObject.clear();	

  0004b	8b 4d f0	 mov	 ecx, DWORD PTR _this$[ebp]
  0004e	83 c1 04	 add	 ecx, 4
  00051	e8 00 00 00 00	 call	 ?clear@?$_Tree@V?$_Tmap_traits@KPAVIData@@U?$less@K@std@@V?$allocator@U?$pair@$$CBKPAVIData@@@std@@@3@$0A@@std@@@std@@QAEXXZ ; std::_Tree<std::_Tmap_traits<unsigned long,IData *,std::less<unsigned long>,std::allocator<std::pair<unsigned long const ,IData *> >,0> >::clear

; 9    : 	InitializeCriticalSection(&m_csData);

  00056	8b 4d f0	 mov	 ecx, DWORD PTR _this$[ebp]
  00059	83 c1 10	 add	 ecx, 16			; 00000010H
  0005c	8b f4		 mov	 esi, esp
  0005e	51		 push	 ecx
  0005f	ff 15 00 00 00
	00		 call	 DWORD PTR __imp__InitializeCriticalSection@4
  00065	3b f4		 cmp	 esi, esp
  00067	e8 00 00 00 00	 call	 __RTC_CheckEsp

; 10   : }

  0006c	c7 45 fc ff ff
	ff ff		 mov	 DWORD PTR __$EHRec$[ebp+8], -1
  00073	8b 45 f0	 mov	 eax, DWORD PTR _this$[ebp]
  00076	8b 4d f4	 mov	 ecx, DWORD PTR __$EHRec$[ebp]
  00079	64 89 0d 00 00
	00 00		 mov	 DWORD PTR fs:__except_list, ecx
  00080	5e		 pop	 esi
  00081	83 c4 10	 add	 esp, 16			; 00000010H
  00084	3b ec		 cmp	 ebp, esp
  00086	e8 00 00 00 00	 call	 __RTC_CheckEsp
  0008b	8b e5		 mov	 esp, ebp
  0008d	5d		 pop	 ebp
  0008e	c3		 ret	 0
_TEXT	ENDS
text$x	SEGMENT
$L190167:
  00000	8b 4d f0	 mov	 ecx, DWORD PTR _this$[ebp]
  00003	e9 00 00 00 00	 jmp	 ??1IDataManager@@UAE@XZ	; IDataManager::~IDataManager
$L190168:
  00008	8b 4d f0	 mov	 ecx, DWORD PTR _this$[ebp]
  0000b	83 c1 04	 add	 ecx, 4
  0000e	e9 00 00 00 00	 jmp	 ??1?$map@KPAVIData@@U?$less@K@std@@V?$allocator@U?$pair@$$CBKPAVIData@@@std@@@3@@std@@QAE@XZ
__ehhandler$??0CDataManager@@QAE@XZ:
  00013	b8 00 00 00 00	 mov	 eax, OFFSET FLAT:$T190172
  00018	e9 00 00 00 00	 jmp	 ___CxxFrameHandler
text$x	ENDS
??0CDataManager@@QAE@XZ ENDP				; CDataManager::CDataManager
PUBLIC	??1CDataManager@@UAE@XZ				; CDataManager::~CDataManager
EXTRN	??3@YAXPAX@Z:NEAR				; operator delete
; Function compile flags: /Odt /RTCsu
;	COMDAT ??_GCDataManager@@UAEPAXI@Z
_TEXT	SEGMENT
_this$ = -4						; size = 4
___flags$ = 8						; size = 4
??_GCDataManager@@UAEPAXI@Z PROC NEAR			; CDataManager::`scalar deleting destructor', COMDAT
; _this$ = ecx
  00000	55		 push	 ebp
  00001	8b ec		 mov	 ebp, esp
  00003	51		 push	 ecx
  00004	c7 45 fc cc cc
	cc cc		 mov	 DWORD PTR [ebp-4], -858993460 ; ccccccccH
  0000b	89 4d fc	 mov	 DWORD PTR _this$[ebp], ecx
  0000e	8b 4d fc	 mov	 ecx, DWORD PTR _this$[ebp]
  00011	e8 00 00 00 00	 call	 ??1CDataManager@@UAE@XZ	; CDataManager::~CDataManager
  00016	8b 45 08	 mov	 eax, DWORD PTR ___flags$[ebp]
  00019	83 e0 01	 and	 eax, 1
  0001c	74 0c		 je	 SHORT $L188738
  0001e	8b 4d fc	 mov	 ecx, DWORD PTR _this$[ebp]
  00021	51		 push	 ecx
  00022	e8 00 00 00 00	 call	 ??3@YAXPAX@Z		; operator delete
  00027	83 c4 04	 add	 esp, 4
$L188738:
  0002a	8b 45 fc	 mov	 eax, DWORD PTR _this$[ebp]
  0002d	83 c4 04	 add	 esp, 4
  00030	3b ec		 cmp	 ebp, esp
  00032	e8 00 00 00 00	 call	 __RTC_CheckEsp
  00037	8b e5		 mov	 esp, ebp
  00039	5d		 pop	 ebp
  0003a	c2 04 00	 ret	 4
??_GCDataManager@@UAEPAXI@Z ENDP			; CDataManager::`scalar deleting destructor'
_TEXT	ENDS
PUBLIC	??_7IDataManager@@6B@				; IDataManager::`vftable'
PUBLIC	??_GIDataManager@@UAEPAXI@Z			; IDataManager::`scalar deleting destructor'
PUBLIC	??_R4IDataManager@@6B@				; IDataManager::`RTTI Complete Object Locator'
PUBLIC	??_R3IDataManager@@8				; IDataManager::`RTTI Class Hierarchy Descriptor'
PUBLIC	??_R2IDataManager@@8				; IDataManager::`RTTI Base Class Array'
EXTRN	__purecall:NEAR
EXTRN	??_EIDataManager@@UAEPAXI@Z:NEAR		; IDataManager::`vector deleting destructor'
;	COMDAT ??_7IDataManager@@6B@
CONST	SEGMENT
??_7IDataManager@@6B@ DD FLAT:??_R4IDataManager@@6B@	; IDataManager::`vftable'
	DD	FLAT:??_EIDataManager@@UAEPAXI@Z
	DD	FLAT:__purecall
	DD	FLAT:__purecall
	DD	FLAT:__purecall
	DD	FLAT:__purecall
	DD	FLAT:__purecall
CONST	ENDS
;	COMDAT ??_R4IDataManager@@6B@
rdata$r	SEGMENT
??_R4IDataManager@@6B@ DD 00H				; IDataManager::`RTTI Complete Object Locator'
	DD	00H
	DD	00H
	DD	FLAT:??_R0?AVIDataManager@@@8
	DD	FLAT:??_R3IDataManager@@8
rdata$r	ENDS
;	COMDAT ??_R3IDataManager@@8
rdata$r	SEGMENT
??_R3IDataManager@@8 DD 00H				; IDataManager::`RTTI Class Hierarchy Descriptor'
	DD	00H
	DD	01H
	DD	FLAT:??_R2IDataManager@@8
rdata$r	ENDS
;	COMDAT ??_R2IDataManager@@8
rdata$r	SEGMENT
??_R2IDataManager@@8 DD FLAT:??_R1A@?0A@A@IDataManager@@8 ; IDataManager::`RTTI Base Class Array'
; Function compile flags: /Odt /RTCsu
rdata$r	ENDS
;	COMDAT ??0IDataManager@@QAE@XZ
_TEXT	SEGMENT
_this$ = -4						; size = 4
??0IDataManager@@QAE@XZ PROC NEAR			; IDataManager::IDataManager, COMDAT
; _this$ = ecx
  00000	55		 push	 ebp
  00001	8b ec		 mov	 ebp, esp
  00003	51		 push	 ecx
  00004	c7 45 fc cc cc
	cc cc		 mov	 DWORD PTR [ebp-4], -858993460 ; ccccccccH
  0000b	89 4d fc	 mov	 DWORD PTR _this$[ebp], ecx
  0000e	8b 45 fc	 mov	 eax, DWORD PTR _this$[ebp]
  00011	c7 00 00 00 00
	00		 mov	 DWORD PTR [eax], OFFSET FLAT:??_7IDataManager@@6B@
  00017	8b 45 fc	 mov	 eax, DWORD PTR _this$[ebp]
  0001a	8b e5		 mov	 esp, ebp
  0001c	5d		 pop	 ebp
  0001d	c3		 ret	 0
??0IDataManager@@QAE@XZ ENDP				; IDataManager::IDataManager
_TEXT	ENDS
PUBLIC	??1?$_Tree@V?$_Tmap_traits@KPAVIData@@U?$less@K@std@@V?$allocator@U?$pair@$$CBKPAVIData@@@std@@@3@$0A@@std@@@std@@QAE@XZ ; std::_Tree<std::_Tmap_traits<unsigned long,IData *,std::less<unsigned long>,std::allocator<std::pair<unsigned long const ,IData *> >,0> >::~_Tree<std::_Tmap_traits<unsigned long,IData *,std::less<unsigned long>,std::allocator<std::pair<unsigned long const ,IData *> >,0> >
; Function compile flags: /Odt /RTCsu
;	COMDAT ??1?$map@KPAVIData@@U?$less@K@std@@V?$allocator@U?$pair@$$CBKPAVIData@@@std@@@3@@std@@QAE@XZ
_TEXT	SEGMENT
_this$ = -4						; size = 4
??1?$map@KPAVIData@@U?$less@K@std@@V?$allocator@U?$pair@$$CBKPAVIData@@@std@@@3@@std@@QAE@XZ PROC NEAR ; std::map<unsigned long,IData *,std::less<unsigned long>,std::allocator<std::pair<unsigned long const ,IData *> > >::~map<unsigned long,IData *,std::less<unsigned long>,std::allocator<std::pair<unsigned long const ,IData *> > >, COMDAT
; _this$ = ecx
  00000	55		 push	 ebp
  00001	8b ec		 mov	 ebp, esp
  00003	51		 push	 ecx
  00004	c7 45 fc cc cc
	cc cc		 mov	 DWORD PTR [ebp-4], -858993460 ; ccccccccH
  0000b	89 4d fc	 mov	 DWORD PTR _this$[ebp], ecx
  0000e	8b 4d fc	 mov	 ecx, DWORD PTR _this$[ebp]
  00011	e8 00 00 00 00	 call	 ??1?$_Tree@V?$_Tmap_traits@KPAVIData@@U?$less@K@std@@V?$allocator@U?$pair@$$CBKPAVIData@@@std@@@3@$0A@@std@@@std@@QAE@XZ ; std::_Tree<std::_Tmap_traits<unsigned long,IData *,std::less<unsigned long>,std::allocator<std::pair<unsigned long const ,IData *> >,0> >::~_Tree<std::_Tmap_traits<unsigned long,IData *,std::less<unsigned long>,std::allocator<std::pair<unsigned long const ,IData *> >,0> >
  00016	83 c4 04	 add	 esp, 4
  00019	3b ec		 cmp	 ebp, esp
  0001b	e8 00 00 00 00	 call	 __RTC_CheckEsp
  00020	8b e5		 mov	 esp, ebp
  00022	5d		 pop	 ebp
  00023	c3		 ret	 0
??1?$map@KPAVIData@@U?$less@K@std@@V?$allocator@U?$pair@$$CBKPAVIData@@@std@@@3@@std@@QAE@XZ ENDP ; std::map<unsigned long,IData *,std::less<unsigned long>,std::allocator<std::pair<unsigned long const ,IData *> > >::~map<unsigned long,IData *,std::less<unsigned long>,std::allocator<std::pair<unsigned long const ,IData *> > >
_TEXT	ENDS
EXTRN	__imp__DeleteCriticalSection@4:NEAR
xdata$x	SEGMENT
$T190188 DD	0ffffffffH
	DD	FLAT:$L190183
$T190186 DD	019930520H
	DD	01H
	DD	FLAT:$T190188
	DD	2 DUP(00H)
	DD	2 DUP(00H)
; Function compile flags: /Odt /RTCsu
xdata$x	ENDS
_TEXT	SEGMENT
_this$ = -16						; size = 4
__$EHRec$ = -12						; size = 12
??1CDataManager@@UAE@XZ PROC NEAR			; CDataManager::~CDataManager
; _this$ = ecx

; 13   : {

  00090	55		 push	 ebp
  00091	8b ec		 mov	 ebp, esp
  00093	6a ff		 push	 -1
  00095	68 00 00 00 00	 push	 __ehhandler$??1CDataManager@@UAE@XZ
  0009a	64 a1 00 00 00
	00		 mov	 eax, DWORD PTR fs:__except_list
  000a0	50		 push	 eax
  000a1	64 89 25 00 00
	00 00		 mov	 DWORD PTR fs:__except_list, esp
  000a8	51		 push	 ecx
  000a9	56		 push	 esi
  000aa	c7 45 f0 cc cc
	cc cc		 mov	 DWORD PTR [ebp-16], -858993460 ; ccccccccH
  000b1	89 4d f0	 mov	 DWORD PTR _this$[ebp], ecx
  000b4	8b 45 f0	 mov	 eax, DWORD PTR _this$[ebp]
  000b7	c7 00 00 00 00
	00		 mov	 DWORD PTR [eax], OFFSET FLAT:??_7CDataManager@@6B@
  000bd	c7 45 fc 00 00
	00 00		 mov	 DWORD PTR __$EHRec$[ebp+8], 0

; 14   : 	DeleteCriticalSection(&m_csData);

  000c4	8b 4d f0	 mov	 ecx, DWORD PTR _this$[ebp]
  000c7	83 c1 10	 add	 ecx, 16			; 00000010H
  000ca	8b f4		 mov	 esi, esp
  000cc	51		 push	 ecx
  000cd	ff 15 00 00 00
	00		 call	 DWORD PTR __imp__DeleteCriticalSection@4
  000d3	3b f4		 cmp	 esi, esp
  000d5	e8 00 00 00 00	 call	 __RTC_CheckEsp

; 15   : }

  000da	8b 4d f0	 mov	 ecx, DWORD PTR _this$[ebp]
  000dd	83 c1 04	 add	 ecx, 4
  000e0	e8 00 00 00 00	 call	 ??1?$map@KPAVIData@@U?$less@K@std@@V?$allocator@U?$pair@$$CBKPAVIData@@@std@@@3@@std@@QAE@XZ
  000e5	c7 45 fc ff ff
	ff ff		 mov	 DWORD PTR __$EHRec$[ebp+8], -1
  000ec	8b 4d f0	 mov	 ecx, DWORD PTR _this$[ebp]
  000ef	e8 00 00 00 00	 call	 ??1IDataManager@@UAE@XZ	; IDataManager::~IDataManager
  000f4	8b 4d f4	 mov	 ecx, DWORD PTR __$EHRec$[ebp]
  000f7	64 89 0d 00 00
	00 00		 mov	 DWORD PTR fs:__except_list, ecx
  000fe	5e		 pop	 esi
  000ff	83 c4 10	 add	 esp, 16			; 00000010H
  00102	3b ec		 cmp	 ebp, esp
  00104	e8 00 00 00 00	 call	 __RTC_CheckEsp
  00109	8b e5		 mov	 esp, ebp
  0010b	5d		 pop	 ebp
  0010c	c3		 ret	 0
_TEXT	ENDS
text$x	SEGMENT
$L190183:
  0001d	8b 4d f0	 mov	 ecx, DWORD PTR _this$[ebp]
  00020	e9 00 00 00 00	 jmp	 ??1IDataManager@@UAE@XZ	; IDataManager::~IDataManager
__ehhandler$??1CDataManager@@UAE@XZ:
  00025	b8 00 00 00 00	 mov	 eax, OFFSET FLAT:$T190186
  0002a	e9 00 00 00 00	 jmp	 ___CxxFrameHandler
text$x	ENDS
??1CDataManager@@UAE@XZ ENDP				; CDataManager::~CDataManager
EXTRN	__imp_??0?$basic_string@DU?$char_traits@D@std@@V?$allocator@D@2@@std@@QAE@PBD@Z:NEAR
EXTRN	__imp_??1?$basic_string@DU?$char_traits@D@std@@V?$allocator@D@2@@std@@QAE@XZ:NEAR
EXTRN	__imp_?YL_Log@@YAXABV?$basic_string@DU?$char_traits@D@std@@V?$allocator@D@2@@std@@H0PBDZZ:NEAR
EXTRN	?Init@CHTTPControl@@SAXXZ:NEAR			; CHTTPControl::Init
xdata$x	SEGMENT
$T190201 DD	0ffffffffH
	DD	FLAT:$L190194
	DD	00H
	DD	FLAT:$L190195
	DD	0ffffffffH
	DD	FLAT:$L190196
	DD	02H
	DD	FLAT:$L190197
$T190199 DD	019930520H
	DD	04H
	DD	FLAT:$T190201
	DD	2 DUP(00H)
	DD	2 DUP(00H)
; Function compile flags: /Odt /RTCsu
xdata$x	ENDS
_TEXT	SEGMENT
$T190193 = -128						; size = 28
$T190192 = -100						; size = 28
$T190191 = -72						; size = 28
$T190190 = -44						; size = 28
_this$ = -16						; size = 4
__$EHRec$ = -12						; size = 12
?DataManAppStart@CDataManager@@UAEXXZ PROC NEAR		; CDataManager::DataManAppStart
; _this$ = ecx

; 18   : {	

  00110	55		 push	 ebp
  00111	8b ec		 mov	 ebp, esp
  00113	6a ff		 push	 -1
  00115	68 00 00 00 00	 push	 __ehhandler$?DataManAppStart@CDataManager@@UAEXXZ
  0011a	64 a1 00 00 00
	00		 mov	 eax, DWORD PTR fs:__except_list
  00120	50		 push	 eax
  00121	64 89 25 00 00
	00 00		 mov	 DWORD PTR fs:__except_list, esp
  00128	83 ec 74	 sub	 esp, 116		; 00000074H
  0012b	56		 push	 esi
  0012c	57		 push	 edi
  0012d	51		 push	 ecx
  0012e	8d 7d 80	 lea	 edi, DWORD PTR [ebp-128]
  00131	b9 1d 00 00 00	 mov	 ecx, 29			; 0000001dH
  00136	b8 cc cc cc cc	 mov	 eax, -858993460		; ccccccccH
  0013b	f3 ab		 rep stosd
  0013d	59		 pop	 ecx
  0013e	89 4d f0	 mov	 DWORD PTR _this$[ebp], ecx

; 19   : 	YL_Log( STR_LOG_FILE ,LOG_NOTICE,"DataManager","DataManAppStart======IN" );

  00141	8b f4		 mov	 esi, esp
  00143	68 00 00 00 00	 push	 OFFSET FLAT:$SG188752
  00148	8d 4d d4	 lea	 ecx, DWORD PTR $T190190[ebp]
  0014b	ff 15 00 00 00
	00		 call	 DWORD PTR __imp_??0?$basic_string@DU?$char_traits@D@std@@V?$allocator@D@2@@std@@QAE@PBD@Z
  00151	3b f4		 cmp	 esi, esp
  00153	e8 00 00 00 00	 call	 __RTC_CheckEsp
  00158	c7 45 fc 00 00
	00 00		 mov	 DWORD PTR __$EHRec$[ebp+8], 0
  0015f	8b f4		 mov	 esi, esp
  00161	68 00 00 00 00	 push	 OFFSET FLAT:$SG188753
  00166	8d 4d b8	 lea	 ecx, DWORD PTR $T190191[ebp]
  00169	ff 15 00 00 00
	00		 call	 DWORD PTR __imp_??0?$basic_string@DU?$char_traits@D@std@@V?$allocator@D@2@@std@@QAE@PBD@Z
  0016f	3b f4		 cmp	 esi, esp
  00171	e8 00 00 00 00	 call	 __RTC_CheckEsp
  00176	c6 45 fc 01	 mov	 BYTE PTR __$EHRec$[ebp+8], 1
  0017a	8b f4		 mov	 esi, esp
  0017c	68 00 00 00 00	 push	 OFFSET FLAT:$SG188751
  00181	8d 45 d4	 lea	 eax, DWORD PTR $T190190[ebp]
  00184	50		 push	 eax
  00185	6a 01		 push	 1
  00187	8d 4d b8	 lea	 ecx, DWORD PTR $T190191[ebp]
  0018a	51		 push	 ecx
  0018b	ff 15 00 00 00
	00		 call	 DWORD PTR __imp_?YL_Log@@YAXABV?$basic_string@DU?$char_traits@D@std@@V?$allocator@D@2@@std@@H0PBDZZ
  00191	83 c4 10	 add	 esp, 16			; 00000010H
  00194	3b f4		 cmp	 esi, esp
  00196	e8 00 00 00 00	 call	 __RTC_CheckEsp
  0019b	c6 45 fc 00	 mov	 BYTE PTR __$EHRec$[ebp+8], 0
  0019f	8b f4		 mov	 esi, esp
  001a1	8d 4d b8	 lea	 ecx, DWORD PTR $T190191[ebp]
  001a4	ff 15 00 00 00
	00		 call	 DWORD PTR __imp_??1?$basic_string@DU?$char_traits@D@std@@V?$allocator@D@2@@std@@QAE@XZ
  001aa	3b f4		 cmp	 esi, esp
  001ac	e8 00 00 00 00	 call	 __RTC_CheckEsp
  001b1	c7 45 fc ff ff
	ff ff		 mov	 DWORD PTR __$EHRec$[ebp+8], -1
  001b8	8b f4		 mov	 esi, esp
  001ba	8d 4d d4	 lea	 ecx, DWORD PTR $T190190[ebp]
  001bd	ff 15 00 00 00
	00		 call	 DWORD PTR __imp_??1?$basic_string@DU?$char_traits@D@std@@V?$allocator@D@2@@std@@QAE@XZ
  001c3	3b f4		 cmp	 esi, esp
  001c5	e8 00 00 00 00	 call	 __RTC_CheckEsp

; 20   : 	CHTTPControl::Init();

  001ca	e8 00 00 00 00	 call	 ?Init@CHTTPControl@@SAXXZ ; CHTTPControl::Init

; 21   : 	YL_Log( STR_LOG_FILE ,LOG_NOTICE,"DataManager","DataManAppStart======OUT" );

  001cf	8b f4		 mov	 esi, esp
  001d1	68 00 00 00 00	 push	 OFFSET FLAT:$SG188757
  001d6	8d 4d 9c	 lea	 ecx, DWORD PTR $T190192[ebp]
  001d9	ff 15 00 00 00
	00		 call	 DWORD PTR __imp_??0?$basic_string@DU?$char_traits@D@std@@V?$allocator@D@2@@std@@QAE@PBD@Z
  001df	3b f4		 cmp	 esi, esp
  001e1	e8 00 00 00 00	 call	 __RTC_CheckEsp
  001e6	c7 45 fc 02 00
	00 00		 mov	 DWORD PTR __$EHRec$[ebp+8], 2
  001ed	8b f4		 mov	 esi, esp
  001ef	68 00 00 00 00	 push	 OFFSET FLAT:$SG188758
  001f4	8d 4d 80	 lea	 ecx, DWORD PTR $T190193[ebp]
  001f7	ff 15 00 00 00
	00		 call	 DWORD PTR __imp_??0?$basic_string@DU?$char_traits@D@std@@V?$allocator@D@2@@std@@QAE@PBD@Z
  001fd	3b f4		 cmp	 esi, esp
  001ff	e8 00 00 00 00	 call	 __RTC_CheckEsp
  00204	c6 45 fc 03	 mov	 BYTE PTR __$EHRec$[ebp+8], 3
  00208	8b f4		 mov	 esi, esp
  0020a	68 00 00 00 00	 push	 OFFSET FLAT:$SG188756
  0020f	8d 55 9c	 lea	 edx, DWORD PTR $T190192[ebp]
  00212	52		 push	 edx
  00213	6a 01		 push	 1
  00215	8d 45 80	 lea	 eax, DWORD PTR $T190193[ebp]
  00218	50		 push	 eax
  00219	ff 15 00 00 00
	00		 call	 DWORD PTR __imp_?YL_Log@@YAXABV?$basic_string@DU?$char_traits@D@std@@V?$allocator@D@2@@std@@H0PBDZZ
  0021f	83 c4 10	 add	 esp, 16			; 00000010H
  00222	3b f4		 cmp	 esi, esp
  00224	e8 00 00 00 00	 call	 __RTC_CheckEsp
  00229	c6 45 fc 02	 mov	 BYTE PTR __$EHRec$[ebp+8], 2
  0022d	8b f4		 mov	 esi, esp
  0022f	8d 4d 80	 lea	 ecx, DWORD PTR $T190193[ebp]
  00232	ff 15 00 00 00
	00		 call	 DWORD PTR __imp_??1?$basic_string@DU?$char_traits@D@std@@V?$allocator@D@2@@std@@QAE@XZ
  00238	3b f4		 cmp	 esi, esp
  0023a	e8 00 00 00 00	 call	 __RTC_CheckEsp
  0023f	c7 45 fc ff ff
	ff ff		 mov	 DWORD PTR __$EHRec$[ebp+8], -1
  00246	8b f4		 mov	 esi, esp
  00248	8d 4d 9c	 lea	 ecx, DWORD PTR $T190192[ebp]
  0024b	ff 15 00 00 00
	00		 call	 DWORD PTR __imp_??1?$basic_string@DU?$char_traits@D@std@@V?$allocator@D@2@@std@@QAE@XZ
  00251	3b f4		 cmp	 esi, esp
  00253	e8 00 00 00 00	 call	 __RTC_CheckEsp

; 22   : }

  00258	8b 4d f4	 mov	 ecx, DWORD PTR __$EHRec$[ebp]
  0025b	64 89 0d 00 00
	00 00		 mov	 DWORD PTR fs:__except_list, ecx
  00262	5f		 pop	 edi
  00263	5e		 pop	 esi
  00264	81 c4 80 00 00
	00		 add	 esp, 128		; 00000080H
  0026a	3b ec		 cmp	 ebp, esp
  0026c	e8 00 00 00 00	 call	 __RTC_CheckEsp
  00271	8b e5		 mov	 esp, ebp
  00273	5d		 pop	 ebp
  00274	c3		 ret	 0
_TEXT	ENDS
text$x	SEGMENT
$L190194:
  0002f	8b f4		 mov	 esi, esp
  00031	8d 4d d4	 lea	 ecx, DWORD PTR $T190190[ebp]
  00034	ff 15 00 00 00
	00		 call	 DWORD PTR __imp_??1?$basic_string@DU?$char_traits@D@std@@V?$allocator@D@2@@std@@QAE@XZ
  0003a	3b f4		 cmp	 esi, esp
  0003c	e9 00 00 00 00	 jmp	 __RTC_CheckEsp
$L190195:
  00041	8b f4		 mov	 esi, esp
  00043	8d 4d b8	 lea	 ecx, DWORD PTR $T190191[ebp]
  00046	ff 15 00 00 00
	00		 call	 DWORD PTR __imp_??1?$basic_string@DU?$char_traits@D@std@@V?$allocator@D@2@@std@@QAE@XZ
  0004c	3b f4		 cmp	 esi, esp
  0004e	e9 00 00 00 00	 jmp	 __RTC_CheckEsp
$L190196:
  00053	8b f4		 mov	 esi, esp
  00055	8d 4d 9c	 lea	 ecx, DWORD PTR $T190192[ebp]
  00058	ff 15 00 00 00
	00		 call	 DWORD PTR __imp_??1?$basic_string@DU?$char_traits@D@std@@V?$allocator@D@2@@std@@QAE@XZ
  0005e	3b f4		 cmp	 esi, esp
  00060	e9 00 00 00 00	 jmp	 __RTC_CheckEsp
$L190197:
  00065	8b f4		 mov	 esi, esp
  00067	8d 4d 80	 lea	 ecx, DWORD PTR $T190193[ebp]
  0006a	ff 15 00 00 00
	00		 call	 DWORD PTR __imp_??1?$basic_string@DU?$char_traits@D@std@@V?$allocator@D@2@@std@@QAE@XZ
  00070	3b f4		 cmp	 esi, esp
  00072	e9 00 00 00 00	 jmp	 __RTC_CheckEsp
__ehhandler$?DataManAppStart@CDataManager@@UAEXXZ:
  00077	b8 00 00 00 00	 mov	 eax, OFFSET FLAT:$T190199
  0007c	e9 00 00 00 00	 jmp	 ___CxxFrameHandler
text$x	ENDS
?DataManAppStart@CDataManager@@UAEXXZ ENDP		; CDataManager::DataManAppStart
PUBLIC	??9const_iterator@?$_Tree@V?$_Tmap_traits@KPAVIData@@U?$less@K@std@@V?$allocator@U?$pair@$$CBKPAVIData@@@std@@@3@$0A@@std@@@std@@QBE_NABV012@@Z ; std::_Tree<std::_Tmap_traits<unsigned long,IData *,std::less<unsigned long>,std::allocator<std::pair<unsigned long const ,IData *> >,0> >::const_iterator::operator!=
PUBLIC	??Citerator@?$_Tree@V?$_Tmap_traits@KPAVIData@@U?$less@K@std@@V?$allocator@U?$pair@$$CBKPAVIData@@@std@@@3@$0A@@std@@@std@@QBEPAU?$pair@$$CBKPAVIData@@@2@XZ ; std::_Tree<std::_Tmap_traits<unsigned long,IData *,std::less<unsigned long>,std::allocator<std::pair<unsigned long const ,IData *> >,0> >::iterator::operator->
PUBLIC	??Eiterator@?$_Tree@V?$_Tmap_traits@KPAVIData@@U?$less@K@std@@V?$allocator@U?$pair@$$CBKPAVIData@@@std@@@3@$0A@@std@@@std@@QAE?AV012@H@Z ; std::_Tree<std::_Tmap_traits<unsigned long,IData *,std::less<unsigned long>,std::allocator<std::pair<unsigned long const ,IData *> >,0> >::iterator::operator++
PUBLIC	?begin@?$_Tree@V?$_Tmap_traits@KPAVIData@@U?$less@K@std@@V?$allocator@U?$pair@$$CBKPAVIData@@@std@@@3@$0A@@std@@@std@@QAE?AViterator@12@XZ ; std::_Tree<std::_Tmap_traits<unsigned long,IData *,std::less<unsigned long>,std::allocator<std::pair<unsigned long const ,IData *> >,0> >::begin
PUBLIC	?end@?$_Tree@V?$_Tmap_traits@KPAVIData@@U?$less@K@std@@V?$allocator@U?$pair@$$CBKPAVIData@@@std@@@3@$0A@@std@@@std@@QAE?AViterator@12@XZ ; std::_Tree<std::_Tmap_traits<unsigned long,IData *,std::less<unsigned long>,std::allocator<std::pair<unsigned long const ,IData *> >,0> >::end
EXTRN	@_RTC_CheckStackVars@8:NEAR
EXTRN	?Close@CHTTPControl@@SAXXZ:NEAR			; CHTTPControl::Close
xdata$x	SEGMENT
$T190220 DD	0ffffffffH
	DD	FLAT:$L190209
	DD	00H
	DD	FLAT:$L190210
	DD	0ffffffffH
	DD	FLAT:$L190211
	DD	02H
	DD	FLAT:$L190212
$T190214 DD	019930520H
	DD	04H
	DD	FLAT:$T190220
	DD	2 DUP(00H)
	DD	2 DUP(00H)
; Function compile flags: /Odt /RTCsu
xdata$x	ENDS
_TEXT	SEGMENT
tv132 = -156						; size = 4
$T190208 = -152						; size = 28
$T190207 = -124						; size = 28
$T190206 = -96						; size = 4
$T190205 = -92						; size = 4
$T190204 = -88						; size = 28
$T190203 = -60						; size = 28
_d$188856 = -32						; size = 4
_it1$188849 = -24					; size = 4
_this$ = -16						; size = 4
__$EHRec$ = -12						; size = 12
?DataManAppExit@CDataManager@@UAEXXZ PROC NEAR		; CDataManager::DataManAppExit
; _this$ = ecx

; 25   : {

  00280	55		 push	 ebp
  00281	8b ec		 mov	 ebp, esp
  00283	6a ff		 push	 -1
  00285	68 00 00 00 00	 push	 __ehhandler$?DataManAppExit@CDataManager@@UAEXXZ
  0028a	64 a1 00 00 00
	00		 mov	 eax, DWORD PTR fs:__except_list
  00290	50		 push	 eax
  00291	64 89 25 00 00
	00 00		 mov	 DWORD PTR fs:__except_list, esp
  00298	81 ec 90 00 00
	00		 sub	 esp, 144		; 00000090H
  0029e	56		 push	 esi
  0029f	57		 push	 edi
  002a0	51		 push	 ecx
  002a1	8d bd 64 ff ff
	ff		 lea	 edi, DWORD PTR [ebp-156]
  002a7	b9 24 00 00 00	 mov	 ecx, 36			; 00000024H
  002ac	b8 cc cc cc cc	 mov	 eax, -858993460		; ccccccccH
  002b1	f3 ab		 rep stosd
  002b3	59		 pop	 ecx
  002b4	89 4d f0	 mov	 DWORD PTR _this$[ebp], ecx

; 26   : 	YL_Log( STR_LOG_FILE,LOG_NOTICE,"DataManager","DataManAppExit======IN" );

  002b7	8b f4		 mov	 esi, esp
  002b9	68 00 00 00 00	 push	 OFFSET FLAT:$SG188765
  002be	8d 4d c4	 lea	 ecx, DWORD PTR $T190203[ebp]
  002c1	ff 15 00 00 00
	00		 call	 DWORD PTR __imp_??0?$basic_string@DU?$char_traits@D@std@@V?$allocator@D@2@@std@@QAE@PBD@Z
  002c7	3b f4		 cmp	 esi, esp
  002c9	e8 00 00 00 00	 call	 __RTC_CheckEsp
  002ce	c7 45 fc 00 00
	00 00		 mov	 DWORD PTR __$EHRec$[ebp+8], 0
  002d5	8b f4		 mov	 esi, esp
  002d7	68 00 00 00 00	 push	 OFFSET FLAT:$SG188766
  002dc	8d 4d a8	 lea	 ecx, DWORD PTR $T190204[ebp]
  002df	ff 15 00 00 00
	00		 call	 DWORD PTR __imp_??0?$basic_string@DU?$char_traits@D@std@@V?$allocator@D@2@@std@@QAE@PBD@Z
  002e5	3b f4		 cmp	 esi, esp
  002e7	e8 00 00 00 00	 call	 __RTC_CheckEsp
  002ec	c6 45 fc 01	 mov	 BYTE PTR __$EHRec$[ebp+8], 1
  002f0	8b f4		 mov	 esi, esp
  002f2	68 00 00 00 00	 push	 OFFSET FLAT:$SG188764
  002f7	8d 45 c4	 lea	 eax, DWORD PTR $T190203[ebp]
  002fa	50		 push	 eax
  002fb	6a 01		 push	 1
  002fd	8d 4d a8	 lea	 ecx, DWORD PTR $T190204[ebp]
  00300	51		 push	 ecx
  00301	ff 15 00 00 00
	00		 call	 DWORD PTR __imp_?YL_Log@@YAXABV?$basic_string@DU?$char_traits@D@std@@V?$allocator@D@2@@std@@H0PBDZZ
  00307	83 c4 10	 add	 esp, 16			; 00000010H
  0030a	3b f4		 cmp	 esi, esp
  0030c	e8 00 00 00 00	 call	 __RTC_CheckEsp
  00311	c6 45 fc 00	 mov	 BYTE PTR __$EHRec$[ebp+8], 0
  00315	8b f4		 mov	 esi, esp
  00317	8d 4d a8	 lea	 ecx, DWORD PTR $T190204[ebp]
  0031a	ff 15 00 00 00
	00		 call	 DWORD PTR __imp_??1?$basic_string@DU?$char_traits@D@std@@V?$allocator@D@2@@std@@QAE@XZ
  00320	3b f4		 cmp	 esi, esp
  00322	e8 00 00 00 00	 call	 __RTC_CheckEsp
  00327	c7 45 fc ff ff
	ff ff		 mov	 DWORD PTR __$EHRec$[ebp+8], -1
  0032e	8b f4		 mov	 esi, esp
  00330	8d 4d c4	 lea	 ecx, DWORD PTR $T190203[ebp]
  00333	ff 15 00 00 00
	00		 call	 DWORD PTR __imp_??1?$basic_string@DU?$char_traits@D@std@@V?$allocator@D@2@@std@@QAE@XZ
  00339	3b f4		 cmp	 esi, esp
  0033b	e8 00 00 00 00	 call	 __RTC_CheckEsp

; 27   : 	for( map<DWORD,IData*>::iterator it1 = m_mapDataObject.begin();

  00340	8d 55 e8	 lea	 edx, DWORD PTR _it1$188849[ebp]
  00343	52		 push	 edx
  00344	8b 4d f0	 mov	 ecx, DWORD PTR _this$[ebp]
  00347	83 c1 04	 add	 ecx, 4
  0034a	e8 00 00 00 00	 call	 ?begin@?$_Tree@V?$_Tmap_traits@KPAVIData@@U?$less@K@std@@V?$allocator@U?$pair@$$CBKPAVIData@@@std@@@3@$0A@@std@@@std@@QAE?AViterator@12@XZ ; std::_Tree<std::_Tmap_traits<unsigned long,IData *,std::less<unsigned long>,std::allocator<std::pair<unsigned long const ,IData *> >,0> >::begin

; 28   : 		it1 != m_mapDataObject.end(); it1++ )

  0034f	eb 0e		 jmp	 SHORT $L188853
$L188854:
  00351	6a 00		 push	 0
  00353	8d 45 a4	 lea	 eax, DWORD PTR $T190205[ebp]
  00356	50		 push	 eax
  00357	8d 4d e8	 lea	 ecx, DWORD PTR _it1$188849[ebp]
  0035a	e8 00 00 00 00	 call	 ??Eiterator@?$_Tree@V?$_Tmap_traits@KPAVIData@@U?$less@K@std@@V?$allocator@U?$pair@$$CBKPAVIData@@@std@@@3@$0A@@std@@@std@@QAE?AV012@H@Z ; std::_Tree<std::_Tmap_traits<unsigned long,IData *,std::less<unsigned long>,std::allocator<std::pair<unsigned long const ,IData *> >,0> >::iterator::operator++
$L188853:
  0035f	8d 4d a0	 lea	 ecx, DWORD PTR $T190206[ebp]
  00362	51		 push	 ecx
  00363	8b 4d f0	 mov	 ecx, DWORD PTR _this$[ebp]
  00366	83 c1 04	 add	 ecx, 4
  00369	e8 00 00 00 00	 call	 ?end@?$_Tree@V?$_Tmap_traits@KPAVIData@@U?$less@K@std@@V?$allocator@U?$pair@$$CBKPAVIData@@@std@@@3@$0A@@std@@@std@@QAE?AViterator@12@XZ ; std::_Tree<std::_Tmap_traits<unsigned long,IData *,std::less<unsigned long>,std::allocator<std::pair<unsigned long const ,IData *> >,0> >::end
  0036e	50		 push	 eax
  0036f	8d 4d e8	 lea	 ecx, DWORD PTR _it1$188849[ebp]
  00372	e8 00 00 00 00	 call	 ??9const_iterator@?$_Tree@V?$_Tmap_traits@KPAVIData@@U?$less@K@std@@V?$allocator@U?$pair@$$CBKPAVIData@@@std@@@3@$0A@@std@@@std@@QBE_NABV012@@Z ; std::_Tree<std::_Tmap_traits<unsigned long,IData *,std::less<unsigned long>,std::allocator<std::pair<unsigned long const ,IData *> >,0> >::const_iterator::operator!=
  00377	0f b6 d0	 movzx	 edx, al
  0037a	85 d2		 test	 edx, edx
  0037c	74 3a		 je	 SHORT $L188855

; 29   : 	{
; 30   : 		DWORD d = it1->first;

  0037e	8d 4d e8	 lea	 ecx, DWORD PTR _it1$188849[ebp]
  00381	e8 00 00 00 00	 call	 ??Citerator@?$_Tree@V?$_Tmap_traits@KPAVIData@@U?$less@K@std@@V?$allocator@U?$pair@$$CBKPAVIData@@@std@@@3@$0A@@std@@@std@@QBEPAU?$pair@$$CBKPAVIData@@@2@XZ ; std::_Tree<std::_Tmap_traits<unsigned long,IData *,std::less<unsigned long>,std::allocator<std::pair<unsigned long const ,IData *> >,0> >::iterator::operator->
  00386	8b 00		 mov	 eax, DWORD PTR [eax]
  00388	89 45 e0	 mov	 DWORD PTR _d$188856[ebp], eax

; 31   : 		it1->second->DataAppExit();

  0038b	8d 4d e8	 lea	 ecx, DWORD PTR _it1$188849[ebp]
  0038e	e8 00 00 00 00	 call	 ??Citerator@?$_Tree@V?$_Tmap_traits@KPAVIData@@U?$less@K@std@@V?$allocator@U?$pair@$$CBKPAVIData@@@std@@@3@$0A@@std@@@std@@QBEPAU?$pair@$$CBKPAVIData@@@2@XZ ; std::_Tree<std::_Tmap_traits<unsigned long,IData *,std::less<unsigned long>,std::allocator<std::pair<unsigned long const ,IData *> >,0> >::iterator::operator->
  00393	8b 48 04	 mov	 ecx, DWORD PTR [eax+4]
  00396	89 8d 64 ff ff
	ff		 mov	 DWORD PTR tv132[ebp], ecx
  0039c	8b 95 64 ff ff
	ff		 mov	 edx, DWORD PTR tv132[ebp]
  003a2	8b 02		 mov	 eax, DWORD PTR [edx]
  003a4	8b f4		 mov	 esi, esp
  003a6	8b 8d 64 ff ff
	ff		 mov	 ecx, DWORD PTR tv132[ebp]
  003ac	ff 50 08	 call	 DWORD PTR [eax+8]
  003af	3b f4		 cmp	 esi, esp
  003b1	e8 00 00 00 00	 call	 __RTC_CheckEsp

; 32   : 	}

  003b6	eb 99		 jmp	 SHORT $L188854
$L188855:

; 33   : 	CHTTPControl::Close();

  003b8	e8 00 00 00 00	 call	 ?Close@CHTTPControl@@SAXXZ ; CHTTPControl::Close

; 34   : 	YL_Log( STR_LOG_FILE,LOG_NOTICE,"DataManager","DataManAppExit--OUT" );

  003bd	8b f4		 mov	 esi, esp
  003bf	68 00 00 00 00	 push	 OFFSET FLAT:$SG188878
  003c4	8d 4d 84	 lea	 ecx, DWORD PTR $T190207[ebp]
  003c7	ff 15 00 00 00
	00		 call	 DWORD PTR __imp_??0?$basic_string@DU?$char_traits@D@std@@V?$allocator@D@2@@std@@QAE@PBD@Z
  003cd	3b f4		 cmp	 esi, esp
  003cf	e8 00 00 00 00	 call	 __RTC_CheckEsp
  003d4	c7 45 fc 02 00
	00 00		 mov	 DWORD PTR __$EHRec$[ebp+8], 2
  003db	8b f4		 mov	 esi, esp
  003dd	68 00 00 00 00	 push	 OFFSET FLAT:$SG188879
  003e2	8d 8d 68 ff ff
	ff		 lea	 ecx, DWORD PTR $T190208[ebp]
  003e8	ff 15 00 00 00
	00		 call	 DWORD PTR __imp_??0?$basic_string@DU?$char_traits@D@std@@V?$allocator@D@2@@std@@QAE@PBD@Z
  003ee	3b f4		 cmp	 esi, esp
  003f0	e8 00 00 00 00	 call	 __RTC_CheckEsp
  003f5	c6 45 fc 03	 mov	 BYTE PTR __$EHRec$[ebp+8], 3
  003f9	8b f4		 mov	 esi, esp
  003fb	68 00 00 00 00	 push	 OFFSET FLAT:$SG188877
  00400	8d 4d 84	 lea	 ecx, DWORD PTR $T190207[ebp]
  00403	51		 push	 ecx
  00404	6a 01		 push	 1
  00406	8d 95 68 ff ff
	ff		 lea	 edx, DWORD PTR $T190208[ebp]
  0040c	52		 push	 edx
  0040d	ff 15 00 00 00
	00		 call	 DWORD PTR __imp_?YL_Log@@YAXABV?$basic_string@DU?$char_traits@D@std@@V?$allocator@D@2@@std@@H0PBDZZ
  00413	83 c4 10	 add	 esp, 16			; 00000010H
  00416	3b f4		 cmp	 esi, esp
  00418	e8 00 00 00 00	 call	 __RTC_CheckEsp
  0041d	c6 45 fc 02	 mov	 BYTE PTR __$EHRec$[ebp+8], 2
  00421	8b f4		 mov	 esi, esp
  00423	8d 8d 68 ff ff
	ff		 lea	 ecx, DWORD PTR $T190208[ebp]
  00429	ff 15 00 00 00
	00		 call	 DWORD PTR __imp_??1?$basic_string@DU?$char_traits@D@std@@V?$allocator@D@2@@std@@QAE@XZ
  0042f	3b f4		 cmp	 esi, esp
  00431	e8 00 00 00 00	 call	 __RTC_CheckEsp
  00436	c7 45 fc ff ff
	ff ff		 mov	 DWORD PTR __$EHRec$[ebp+8], -1
  0043d	8b f4		 mov	 esi, esp
  0043f	8d 4d 84	 lea	 ecx, DWORD PTR $T190207[ebp]
  00442	ff 15 00 00 00
	00		 call	 DWORD PTR __imp_??1?$basic_string@DU?$char_traits@D@std@@V?$allocator@D@2@@std@@QAE@XZ
  00448	3b f4		 cmp	 esi, esp
  0044a	e8 00 00 00 00	 call	 __RTC_CheckEsp

; 35   : }

  0044f	52		 push	 edx
  00450	8b cd		 mov	 ecx, ebp
  00452	50		 push	 eax
  00453	8d 15 00 00 00
	00		 lea	 edx, DWORD PTR $L190218
  00459	e8 00 00 00 00	 call	 @_RTC_CheckStackVars@8
  0045e	58		 pop	 eax
  0045f	5a		 pop	 edx
  00460	8b 4d f4	 mov	 ecx, DWORD PTR __$EHRec$[ebp]
  00463	64 89 0d 00 00
	00 00		 mov	 DWORD PTR fs:__except_list, ecx
  0046a	5f		 pop	 edi
  0046b	5e		 pop	 esi
  0046c	81 c4 9c 00 00
	00		 add	 esp, 156		; 0000009cH
  00472	3b ec		 cmp	 ebp, esp
  00474	e8 00 00 00 00	 call	 __RTC_CheckEsp
  00479	8b e5		 mov	 esp, ebp
  0047b	5d		 pop	 ebp
  0047c	c3		 ret	 0
$L190218:
  0047d	01 00 00 00	 DD	 1
  00481	00 00 00 00	 DD	 $L190217
$L190217:
  00485	e8 ff ff ff	 DD	 -24			; ffffffe8H
  00489	04 00 00 00	 DD	 4
  0048d	00 00 00 00	 DD	 $L190215
$L190215:
  00491	69		 DB	 105			; 00000069H
  00492	74		 DB	 116			; 00000074H
  00493	31		 DB	 49			; 00000031H
  00494	00		 DB	 0
_TEXT	ENDS
text$x	SEGMENT
$L190209:
  00081	8b f4		 mov	 esi, esp
  00083	8d 4d c4	 lea	 ecx, DWORD PTR $T190203[ebp]
  00086	ff 15 00 00 00
	00		 call	 DWORD PTR __imp_??1?$basic_string@DU?$char_traits@D@std@@V?$allocator@D@2@@std@@QAE@XZ
  0008c	3b f4		 cmp	 esi, esp
  0008e	e9 00 00 00 00	 jmp	 __RTC_CheckEsp
$L190210:
  00093	8b f4		 mov	 esi, esp
  00095	8d 4d a8	 lea	 ecx, DWORD PTR $T190204[ebp]
  00098	ff 15 00 00 00
	00		 call	 DWORD PTR __imp_??1?$basic_string@DU?$char_traits@D@std@@V?$allocator@D@2@@std@@QAE@XZ
  0009e	3b f4		 cmp	 esi, esp
  000a0	e9 00 00 00 00	 jmp	 __RTC_CheckEsp
$L190211:
  000a5	8b f4		 mov	 esi, esp
  000a7	8d 4d 84	 lea	 ecx, DWORD PTR $T190207[ebp]
  000aa	ff 15 00 00 00
	00		 call	 DWORD PTR __imp_??1?$basic_string@DU?$char_traits@D@std@@V?$allocator@D@2@@std@@QAE@XZ
  000b0	3b f4		 cmp	 esi, esp
  000b2	e9 00 00 00 00	 jmp	 __RTC_CheckEsp
$L190212:
  000b7	8b f4		 mov	 esi, esp
  000b9	8d 8d 68 ff ff
	ff		 lea	 ecx, DWORD PTR $T190208[ebp]
  000bf	ff 15 00 00 00
	00		 call	 DWORD PTR __imp_??1?$basic_string@DU?$char_traits@D@std@@V?$allocator@D@2@@std@@QAE@XZ
  000c5	3b f4		 cmp	 esi, esp
  000c7	e9 00 00 00 00	 jmp	 __RTC_CheckEsp
__ehhandler$?DataManAppExit@CDataManager@@UAEXXZ:
  000cc	b8 00 00 00 00	 mov	 eax, OFFSET FLAT:$T190214
  000d1	e9 00 00 00 00	 jmp	 ___CxxFrameHandler
text$x	ENDS
?DataManAppExit@CDataManager@@UAEXXZ ENDP		; CDataManager::DataManAppExit
PUBLIC	??A?$map@KPAVIData@@U?$less@K@std@@V?$allocator@U?$pair@$$CBKPAVIData@@@std@@@3@@std@@QAEAAPAVIData@@ABK@Z ; std::map<unsigned long,IData *,std::less<unsigned long>,std::allocator<std::pair<unsigned long const ,IData *> > >::operator[]
EXTRN	__imp__EnterCriticalSection@4:NEAR
EXTRN	__imp__LeaveCriticalSection@4:NEAR
; Function compile flags: /Odt /RTCsu
_TEXT	SEGMENT
_this$ = -4						; size = 4
_guidDataObject$ = 8					; size = 4
_pData$ = 12						; size = 4
?AddDataObject@CDataManager@@UAEXABKPAVIData@@@Z PROC NEAR ; CDataManager::AddDataObject
; _this$ = ecx

; 38   : {

  004a0	55		 push	 ebp
  004a1	8b ec		 mov	 ebp, esp
  004a3	51		 push	 ecx
  004a4	56		 push	 esi
  004a5	c7 45 fc cc cc
	cc cc		 mov	 DWORD PTR [ebp-4], -858993460 ; ccccccccH
  004ac	89 4d fc	 mov	 DWORD PTR _this$[ebp], ecx

; 39   : 	if( pData == NULL )

  004af	83 7d 0c 00	 cmp	 DWORD PTR _pData$[ebp], 0
  004b3	75 02		 jne	 SHORT $L188885

; 40   : 	{
; 41   : 		return;

  004b5	eb 40		 jmp	 SHORT $L188884
$L188885:

; 42   : 	}
; 43   : 
; 44   : 	EnterCriticalSection(&m_csData);

  004b7	8b 45 fc	 mov	 eax, DWORD PTR _this$[ebp]
  004ba	83 c0 10	 add	 eax, 16			; 00000010H
  004bd	8b f4		 mov	 esi, esp
  004bf	50		 push	 eax
  004c0	ff 15 00 00 00
	00		 call	 DWORD PTR __imp__EnterCriticalSection@4
  004c6	3b f4		 cmp	 esi, esp
  004c8	e8 00 00 00 00	 call	 __RTC_CheckEsp

; 45   : 	m_mapDataObject[guidDataObject] = pData;

  004cd	8b 4d 08	 mov	 ecx, DWORD PTR _guidDataObject$[ebp]
  004d0	51		 push	 ecx
  004d1	8b 4d fc	 mov	 ecx, DWORD PTR _this$[ebp]
  004d4	83 c1 04	 add	 ecx, 4
  004d7	e8 00 00 00 00	 call	 ??A?$map@KPAVIData@@U?$less@K@std@@V?$allocator@U?$pair@$$CBKPAVIData@@@std@@@3@@std@@QAEAAPAVIData@@ABK@Z ; std::map<unsigned long,IData *,std::less<unsigned long>,std::allocator<std::pair<unsigned long const ,IData *> > >::operator[]
  004dc	8b 55 0c	 mov	 edx, DWORD PTR _pData$[ebp]
  004df	89 10		 mov	 DWORD PTR [eax], edx

; 46   : 	LeaveCriticalSection(&m_csData);

  004e1	8b 45 fc	 mov	 eax, DWORD PTR _this$[ebp]
  004e4	83 c0 10	 add	 eax, 16			; 00000010H
  004e7	8b f4		 mov	 esi, esp
  004e9	50		 push	 eax
  004ea	ff 15 00 00 00
	00		 call	 DWORD PTR __imp__LeaveCriticalSection@4
  004f0	3b f4		 cmp	 esi, esp
  004f2	e8 00 00 00 00	 call	 __RTC_CheckEsp
$L188884:

; 47   : }

  004f7	5e		 pop	 esi
  004f8	83 c4 04	 add	 esp, 4
  004fb	3b ec		 cmp	 ebp, esp
  004fd	e8 00 00 00 00	 call	 __RTC_CheckEsp
  00502	8b e5		 mov	 esp, ebp
  00504	5d		 pop	 ebp
  00505	c2 08 00	 ret	 8
?AddDataObject@CDataManager@@UAEXABKPAVIData@@@Z ENDP	; CDataManager::AddDataObject
_TEXT	ENDS
PUBLIC	?erase@?$_Tree@V?$_Tmap_traits@KPAVIData@@U?$less@K@std@@V?$allocator@U?$pair@$$CBKPAVIData@@@std@@@3@$0A@@std@@@std@@QAEIABK@Z ; std::_Tree<std::_Tmap_traits<unsigned long,IData *,std::less<unsigned long>,std::allocator<std::pair<unsigned long const ,IData *> >,0> >::erase
; Function compile flags: /Odt /RTCsu
_TEXT	SEGMENT
_this$ = -4						; size = 4
_guidDataObject$ = 8					; size = 4
?RemoveDataObject@CDataManager@@UAEXABK@Z PROC NEAR	; CDataManager::RemoveDataObject
; _this$ = ecx

; 50   : {

  00510	55		 push	 ebp
  00511	8b ec		 mov	 ebp, esp
  00513	51		 push	 ecx
  00514	56		 push	 esi
  00515	c7 45 fc cc cc
	cc cc		 mov	 DWORD PTR [ebp-4], -858993460 ; ccccccccH
  0051c	89 4d fc	 mov	 DWORD PTR _this$[ebp], ecx

; 51   : 	EnterCriticalSection(&m_csData);

  0051f	8b 45 fc	 mov	 eax, DWORD PTR _this$[ebp]
  00522	83 c0 10	 add	 eax, 16			; 00000010H
  00525	8b f4		 mov	 esi, esp
  00527	50		 push	 eax
  00528	ff 15 00 00 00
	00		 call	 DWORD PTR __imp__EnterCriticalSection@4
  0052e	3b f4		 cmp	 esi, esp
  00530	e8 00 00 00 00	 call	 __RTC_CheckEsp

; 52   : 	m_mapDataObject.erase(guidDataObject);

  00535	8b 4d 08	 mov	 ecx, DWORD PTR _guidDataObject$[ebp]
  00538	51		 push	 ecx
  00539	8b 4d fc	 mov	 ecx, DWORD PTR _this$[ebp]
  0053c	83 c1 04	 add	 ecx, 4
  0053f	e8 00 00 00 00	 call	 ?erase@?$_Tree@V?$_Tmap_traits@KPAVIData@@U?$less@K@std@@V?$allocator@U?$pair@$$CBKPAVIData@@@std@@@3@$0A@@std@@@std@@QAEIABK@Z ; std::_Tree<std::_Tmap_traits<unsigned long,IData *,std::less<unsigned long>,std::allocator<std::pair<unsigned long const ,IData *> >,0> >::erase

; 53   : 	LeaveCriticalSection(&m_csData);

  00544	8b 55 fc	 mov	 edx, DWORD PTR _this$[ebp]
  00547	83 c2 10	 add	 edx, 16			; 00000010H
  0054a	8b f4		 mov	 esi, esp
  0054c	52		 push	 edx
  0054d	ff 15 00 00 00
	00		 call	 DWORD PTR __imp__LeaveCriticalSection@4
  00553	3b f4		 cmp	 esi, esp
  00555	e8 00 00 00 00	 call	 __RTC_CheckEsp

; 54   : }

  0055a	5e		 pop	 esi
  0055b	83 c4 04	 add	 esp, 4
  0055e	3b ec		 cmp	 ebp, esp
  00560	e8 00 00 00 00	 call	 __RTC_CheckEsp
  00565	8b e5		 mov	 esp, ebp
  00567	5d		 pop	 ebp
  00568	c2 04 00	 ret	 4
?RemoveDataObject@CDataManager@@UAEXABK@Z ENDP		; CDataManager::RemoveDataObject
_TEXT	ENDS
PUBLIC	?_GetMapObject@CDataManager@@AAEPAVIData@@ABK@Z	; CDataManager::_GetMapObject
EXTRN	?GetInstance@CDownAD@@SAPAV1@XZ:NEAR		; CDownAD::GetInstance
EXTRN	?GetInstance@LocalGameData@@SAPAVIData@@XZ:NEAR	; LocalGameData::GetInstance
EXTRN	?GetInstance@CPanelChange@@SAPAVIData@@XZ:NEAR	; CPanelChange::GetInstance
EXTRN	?GetInstance@CTabBarData@@SAPAVIData@@XZ:NEAR	; CTabBarData::GetInstance
; Function compile flags: /Odt /RTCsu
_TEXT	SEGMENT
tv76 = -20						; size = 4
tv73 = -16						; size = 4
tv68 = -12						; size = 4
_pData$ = -8						; size = 4
_this$ = -4						; size = 4
_guidDataObject$ = 8					; size = 4
?GetDataObject@CDataManager@@UAEPAVIData@@ABK@Z PROC NEAR ; CDataManager::GetDataObject
; _this$ = ecx

; 57   : {

  00570	55		 push	 ebp
  00571	8b ec		 mov	 ebp, esp
  00573	83 ec 14	 sub	 esp, 20			; 00000014H
  00576	56		 push	 esi
  00577	b8 cc cc cc cc	 mov	 eax, -858993460		; ccccccccH
  0057c	89 45 ec	 mov	 DWORD PTR [ebp-20], eax
  0057f	89 45 f0	 mov	 DWORD PTR [ebp-16], eax
  00582	89 45 f4	 mov	 DWORD PTR [ebp-12], eax
  00585	89 45 f8	 mov	 DWORD PTR [ebp-8], eax
  00588	89 45 fc	 mov	 DWORD PTR [ebp-4], eax
  0058b	89 4d fc	 mov	 DWORD PTR _this$[ebp], ecx

; 58   : 	IData* pData = _GetMapObject( guidDataObject );

  0058e	8b 45 08	 mov	 eax, DWORD PTR _guidDataObject$[ebp]
  00591	50		 push	 eax
  00592	8b 4d fc	 mov	 ecx, DWORD PTR _this$[ebp]
  00595	e8 00 00 00 00	 call	 ?_GetMapObject@CDataManager@@AAEPAVIData@@ABK@Z ; CDataManager::_GetMapObject
  0059a	89 45 f8	 mov	 DWORD PTR _pData$[ebp], eax

; 59   : 	if( pData )

  0059d	83 7d f8 00	 cmp	 DWORD PTR _pData$[ebp], 0
  005a1	74 08		 je	 SHORT $L188895

; 60   : 	{
; 61   : 		return pData;

  005a3	8b 45 f8	 mov	 eax, DWORD PTR _pData$[ebp]
  005a6	e9 a7 00 00 00	 jmp	 $L188893
$L188895:

; 62   : 	}
; 63   : 	switch( guidDataObject )

  005ab	8b 4d 08	 mov	 ecx, DWORD PTR _guidDataObject$[ebp]
  005ae	8b 11		 mov	 edx, DWORD PTR [ecx]
  005b0	89 55 f4	 mov	 DWORD PTR tv68[ebp], edx
  005b3	8b 45 f4	 mov	 eax, DWORD PTR tv68[ebp]
  005b6	83 e8 05	 sub	 eax, 5
  005b9	89 45 f4	 mov	 DWORD PTR tv68[ebp], eax
  005bc	83 7d f4 06	 cmp	 DWORD PTR tv68[ebp], 6
  005c0	77 50		 ja	 SHORT $L188904
  005c2	8b 4d f4	 mov	 ecx, DWORD PTR tv68[ebp]
  005c5	ff 24 8d 00 00
	00 00		 jmp	 DWORD PTR $L190226[ecx*4]
$L188900:

; 64   : 	{
; 65   : 	case ID_DATA_TABBAR:
; 66   : 		pData = CTabBarData::GetInstance();

  005cc	e8 00 00 00 00	 call	 ?GetInstance@CTabBarData@@SAPAVIData@@XZ ; CTabBarData::GetInstance
  005d1	89 45 f8	 mov	 DWORD PTR _pData$[ebp], eax

; 67   : 		break;

  005d4	eb 43		 jmp	 SHORT $L188897
$L188901:

; 68   : 	case ID_DATA_LOCALGAME:
; 69   : 		pData = LocalGameData::GetInstance();

  005d6	e8 00 00 00 00	 call	 ?GetInstance@LocalGameData@@SAPAVIData@@XZ ; LocalGameData::GetInstance
  005db	89 45 f8	 mov	 DWORD PTR _pData$[ebp], eax

; 70   : 		break;

  005de	eb 39		 jmp	 SHORT $L188897
$L188902:

; 71   : 	case ID_DATA_PANELCHANGE:
; 72   : 		pData = CPanelChange::GetInstance();

  005e0	e8 00 00 00 00	 call	 ?GetInstance@CPanelChange@@SAPAVIData@@XZ ; CPanelChange::GetInstance
  005e5	89 45 f8	 mov	 DWORD PTR _pData$[ebp], eax

; 73   : 		break;

  005e8	eb 2f		 jmp	 SHORT $L188897
$L188903:

; 74   : 	case ID_DATA_AD:
; 75   : 		pData = CDownAD::GetInstance();

  005ea	e8 00 00 00 00	 call	 ?GetInstance@CDownAD@@SAPAV1@XZ ; CDownAD::GetInstance
  005ef	89 45 f0	 mov	 DWORD PTR tv73[ebp], eax
  005f2	83 7d f0 00	 cmp	 DWORD PTR tv73[ebp], 0
  005f6	74 0b		 je	 SHORT $L190224
  005f8	8b 55 f0	 mov	 edx, DWORD PTR tv73[ebp]
  005fb	83 c2 08	 add	 edx, 8
  005fe	89 55 ec	 mov	 DWORD PTR tv76[ebp], edx
  00601	eb 07		 jmp	 SHORT $L190225
$L190224:
  00603	c7 45 ec 00 00
	00 00		 mov	 DWORD PTR tv76[ebp], 0
$L190225:
  0060a	8b 45 ec	 mov	 eax, DWORD PTR tv76[ebp]
  0060d	89 45 f8	 mov	 DWORD PTR _pData$[ebp], eax

; 76   : 		break;

  00610	eb 07		 jmp	 SHORT $L188897
$L188904:

; 77   : 	default:
; 78   : 		pData = NULL;

  00612	c7 45 f8 00 00
	00 00		 mov	 DWORD PTR _pData$[ebp], 0
$L188897:

; 79   : 		break;
; 80   : 	}
; 81   : 	if( pData )

  00619	83 7d f8 00	 cmp	 DWORD PTR _pData$[ebp], 0
  0061d	74 30		 je	 SHORT $L188905

; 82   : 	{
; 83   : 		pData->DataAppStart();

  0061f	8b 4d f8	 mov	 ecx, DWORD PTR _pData$[ebp]
  00622	8b 11		 mov	 edx, DWORD PTR [ecx]
  00624	8b f4		 mov	 esi, esp
  00626	8b 4d f8	 mov	 ecx, DWORD PTR _pData$[ebp]
  00629	ff 52 04	 call	 DWORD PTR [edx+4]
  0062c	3b f4		 cmp	 esi, esp
  0062e	e8 00 00 00 00	 call	 __RTC_CheckEsp

; 84   : 		AddDataObject(guidDataObject, pData);

  00633	8b f4		 mov	 esi, esp
  00635	8b 45 f8	 mov	 eax, DWORD PTR _pData$[ebp]
  00638	50		 push	 eax
  00639	8b 4d 08	 mov	 ecx, DWORD PTR _guidDataObject$[ebp]
  0063c	51		 push	 ecx
  0063d	8b 55 fc	 mov	 edx, DWORD PTR _this$[ebp]
  00640	8b 02		 mov	 eax, DWORD PTR [edx]
  00642	8b 4d fc	 mov	 ecx, DWORD PTR _this$[ebp]
  00645	ff 50 10	 call	 DWORD PTR [eax+16]
  00648	3b f4		 cmp	 esi, esp
  0064a	e8 00 00 00 00	 call	 __RTC_CheckEsp
$L188905:

; 85   : 	}
; 86   : 	return pData;

  0064f	8b 45 f8	 mov	 eax, DWORD PTR _pData$[ebp]
$L188893:

; 87   : }

  00652	5e		 pop	 esi
  00653	83 c4 14	 add	 esp, 20			; 00000014H
  00656	3b ec		 cmp	 ebp, esp
  00658	e8 00 00 00 00	 call	 __RTC_CheckEsp
  0065d	8b e5		 mov	 esp, ebp
  0065f	5d		 pop	 ebp
  00660	c2 04 00	 ret	 4
$L190226:
  00663	00 00 00 00	 DD	 $L188902
  00667	00 00 00 00	 DD	 $L188904
  0066b	00 00 00 00	 DD	 $L188900
  0066f	00 00 00 00	 DD	 $L188904
  00673	00 00 00 00	 DD	 $L188904
  00677	00 00 00 00	 DD	 $L188901
  0067b	00 00 00 00	 DD	 $L188903
?GetDataObject@CDataManager@@UAEPAVIData@@ABK@Z ENDP	; CDataManager::GetDataObject
_TEXT	ENDS
PUBLIC	??8const_iterator@?$_Tree@V?$_Tmap_traits@KPAVIData@@U?$less@K@std@@V?$allocator@U?$pair@$$CBKPAVIData@@@std@@@3@$0A@@std@@@std@@QBE_NABV012@@Z ; std::_Tree<std::_Tmap_traits<unsigned long,IData *,std::less<unsigned long>,std::allocator<std::pair<unsigned long const ,IData *> >,0> >::const_iterator::operator==
PUBLIC	?find@?$_Tree@V?$_Tmap_traits@KPAVIData@@U?$less@K@std@@V?$allocator@U?$pair@$$CBKPAVIData@@@std@@@3@$0A@@std@@@std@@QAE?AViterator@12@ABK@Z ; std::_Tree<std::_Tmap_traits<unsigned long,IData *,std::less<unsigned long>,std::allocator<std::pair<unsigned long const ,IData *> >,0> >::find
; Function compile flags: /Odt /RTCsu
_TEXT	SEGMENT
$T190229 = -12						; size = 4
$T190228 = -8						; size = 4
_this$ = -4						; size = 4
_guidDataObject$ = 8					; size = 4
?_GetMapObject@CDataManager@@AAEPAVIData@@ABK@Z PROC NEAR ; CDataManager::_GetMapObject
; _this$ = ecx

; 90   : {

  00680	55		 push	 ebp
  00681	8b ec		 mov	 ebp, esp
  00683	83 ec 0c	 sub	 esp, 12			; 0000000cH
  00686	c7 45 f4 cc cc
	cc cc		 mov	 DWORD PTR [ebp-12], -858993460 ; ccccccccH
  0068d	c7 45 f8 cc cc
	cc cc		 mov	 DWORD PTR [ebp-8], -858993460 ; ccccccccH
  00694	c7 45 fc cc cc
	cc cc		 mov	 DWORD PTR [ebp-4], -858993460 ; ccccccccH
  0069b	89 4d fc	 mov	 DWORD PTR _this$[ebp], ecx

; 91   : 	if( m_mapDataObject.find(guidDataObject) == m_mapDataObject.end() )

  0069e	8d 45 f4	 lea	 eax, DWORD PTR $T190229[ebp]
  006a1	50		 push	 eax
  006a2	8b 4d fc	 mov	 ecx, DWORD PTR _this$[ebp]
  006a5	83 c1 04	 add	 ecx, 4
  006a8	e8 00 00 00 00	 call	 ?end@?$_Tree@V?$_Tmap_traits@KPAVIData@@U?$less@K@std@@V?$allocator@U?$pair@$$CBKPAVIData@@@std@@@3@$0A@@std@@@std@@QAE?AViterator@12@XZ ; std::_Tree<std::_Tmap_traits<unsigned long,IData *,std::less<unsigned long>,std::allocator<std::pair<unsigned long const ,IData *> >,0> >::end
  006ad	50		 push	 eax
  006ae	8b 4d 08	 mov	 ecx, DWORD PTR _guidDataObject$[ebp]
  006b1	51		 push	 ecx
  006b2	8d 55 f8	 lea	 edx, DWORD PTR $T190228[ebp]
  006b5	52		 push	 edx
  006b6	8b 4d fc	 mov	 ecx, DWORD PTR _this$[ebp]
  006b9	83 c1 04	 add	 ecx, 4
  006bc	e8 00 00 00 00	 call	 ?find@?$_Tree@V?$_Tmap_traits@KPAVIData@@U?$less@K@std@@V?$allocator@U?$pair@$$CBKPAVIData@@@std@@@3@$0A@@std@@@std@@QAE?AViterator@12@ABK@Z ; std::_Tree<std::_Tmap_traits<unsigned long,IData *,std::less<unsigned long>,std::allocator<std::pair<unsigned long const ,IData *> >,0> >::find
  006c1	8b c8		 mov	 ecx, eax
  006c3	e8 00 00 00 00	 call	 ??8const_iterator@?$_Tree@V?$_Tmap_traits@KPAVIData@@U?$less@K@std@@V?$allocator@U?$pair@$$CBKPAVIData@@@std@@@3@$0A@@std@@@std@@QBE_NABV012@@Z ; std::_Tree<std::_Tmap_traits<unsigned long,IData *,std::less<unsigned long>,std::allocator<std::pair<unsigned long const ,IData *> >,0> >::const_iterator::operator==
  006c8	0f b6 c0	 movzx	 eax, al
  006cb	85 c0		 test	 eax, eax
  006cd	74 04		 je	 SHORT $L188912

; 92   : 	{
; 93   : 		return NULL;

  006cf	33 c0		 xor	 eax, eax
  006d1	eb 11		 jmp	 SHORT $L188909
$L188912:

; 94   : 	}
; 95   : 	return m_mapDataObject[guidDataObject];

  006d3	8b 4d 08	 mov	 ecx, DWORD PTR _guidDataObject$[ebp]
  006d6	51		 push	 ecx
  006d7	8b 4d fc	 mov	 ecx, DWORD PTR _this$[ebp]
  006da	83 c1 04	 add	 ecx, 4
  006dd	e8 00 00 00 00	 call	 ??A?$map@KPAVIData@@U?$less@K@std@@V?$allocator@U?$pair@$$CBKPAVIData@@@std@@@3@@std@@QAEAAPAVIData@@ABK@Z ; std::map<unsigned long,IData *,std::less<unsigned long>,std::allocator<std::pair<unsigned long const ,IData *> > >::operator[]
  006e2	8b 00		 mov	 eax, DWORD PTR [eax]
$L188909:

; 96   : }

  006e4	83 c4 0c	 add	 esp, 12			; 0000000cH
  006e7	3b ec		 cmp	 ebp, esp
  006e9	e8 00 00 00 00	 call	 __RTC_CheckEsp
  006ee	8b e5		 mov	 esp, ebp
  006f0	5d		 pop	 ebp
  006f1	c2 04 00	 ret	 4
?_GetMapObject@CDataManager@@AAEPAVIData@@ABK@Z ENDP	; CDataManager::_GetMapObject
_TEXT	ENDS
PUBLIC	?GetExportDataObject@CDataManager@@QAEPAVIData@@ABK@Z ; CDataManager::GetExportDataObject
; Function compile flags: /Odt /RTCsu
_TEXT	SEGMENT
$T190232 = -12						; size = 4
$T190231 = -8						; size = 4
_this$ = -4						; size = 4
_guidDataObject$ = 8					; size = 4
?GetExportDataObject@CDataManager@@QAEPAVIData@@ABK@Z PROC NEAR ; CDataManager::GetExportDataObject
; _this$ = ecx

; 99   : {

  00700	55		 push	 ebp
  00701	8b ec		 mov	 ebp, esp
  00703	83 ec 0c	 sub	 esp, 12			; 0000000cH
  00706	c7 45 f4 cc cc
	cc cc		 mov	 DWORD PTR [ebp-12], -858993460 ; ccccccccH
  0070d	c7 45 f8 cc cc
	cc cc		 mov	 DWORD PTR [ebp-8], -858993460 ; ccccccccH
  00714	c7 45 fc cc cc
	cc cc		 mov	 DWORD PTR [ebp-4], -858993460 ; ccccccccH
  0071b	89 4d fc	 mov	 DWORD PTR _this$[ebp], ecx

; 100  : 	if( m_mapDataObject.find( guidDataObject ) == m_mapDataObject.end() )

  0071e	8d 45 f4	 lea	 eax, DWORD PTR $T190232[ebp]
  00721	50		 push	 eax
  00722	8b 4d fc	 mov	 ecx, DWORD PTR _this$[ebp]
  00725	83 c1 04	 add	 ecx, 4
  00728	e8 00 00 00 00	 call	 ?end@?$_Tree@V?$_Tmap_traits@KPAVIData@@U?$less@K@std@@V?$allocator@U?$pair@$$CBKPAVIData@@@std@@@3@$0A@@std@@@std@@QAE?AViterator@12@XZ ; std::_Tree<std::_Tmap_traits<unsigned long,IData *,std::less<unsigned long>,std::allocator<std::pair<unsigned long const ,IData *> >,0> >::end
  0072d	50		 push	 eax
  0072e	8b 4d 08	 mov	 ecx, DWORD PTR _guidDataObject$[ebp]
  00731	51		 push	 ecx
  00732	8d 55 f8	 lea	 edx, DWORD PTR $T190231[ebp]
  00735	52		 push	 edx
  00736	8b 4d fc	 mov	 ecx, DWORD PTR _this$[ebp]
  00739	83 c1 04	 add	 ecx, 4
  0073c	e8 00 00 00 00	 call	 ?find@?$_Tree@V?$_Tmap_traits@KPAVIData@@U?$less@K@std@@V?$allocator@U?$pair@$$CBKPAVIData@@@std@@@3@$0A@@std@@@std@@QAE?AViterator@12@ABK@Z ; std::_Tree<std::_Tmap_traits<unsigned long,IData *,std::less<unsigned long>,std::allocator<std::pair<unsigned long const ,IData *> >,0> >::find
  00741	8b c8		 mov	 ecx, eax
  00743	e8 00 00 00 00	 call	 ??8const_iterator@?$_Tree@V?$_Tmap_traits@KPAVIData@@U?$less@K@std@@V?$allocator@U?$pair@$$CBKPAVIData@@@std@@@3@$0A@@std@@@std@@QBE_NABV012@@Z ; std::_Tree<std::_Tmap_traits<unsigned long,IData *,std::less<unsigned long>,std::allocator<std::pair<unsigned long const ,IData *> >,0> >::const_iterator::operator==
  00748	0f b6 c0	 movzx	 eax, al
  0074b	85 c0		 test	 eax, eax
  0074d	74 04		 je	 SHORT $L188919

; 101  : 	{
; 102  : 		return NULL;

  0074f	33 c0		 xor	 eax, eax
  00751	eb 11		 jmp	 SHORT $L188916
$L188919:

; 103  : 	}
; 104  : 	return m_mapDataObject[guidDataObject];

  00753	8b 4d 08	 mov	 ecx, DWORD PTR _guidDataObject$[ebp]
  00756	51		 push	 ecx
  00757	8b 4d fc	 mov	 ecx, DWORD PTR _this$[ebp]
  0075a	83 c1 04	 add	 ecx, 4
  0075d	e8 00 00 00 00	 call	 ??A?$map@KPAVIData@@U?$less@K@std@@V?$allocator@U?$pair@$$CBKPAVIData@@@std@@@3@@std@@QAEAAPAVIData@@ABK@Z ; std::map<unsigned long,IData *,std::less<unsigned long>,std::allocator<std::pair<unsigned long const ,IData *> > >::operator[]
  00762	8b 00		 mov	 eax, DWORD PTR [eax]
$L188916:

; 105  : }

  00764	83 c4 0c	 add	 esp, 12			; 0000000cH
  00767	3b ec		 cmp	 ebp, esp
  00769	e8 00 00 00 00	 call	 __RTC_CheckEsp
  0076e	8b e5		 mov	 esp, ebp
  00770	5d		 pop	 ebp
  00771	c2 04 00	 ret	 4
?GetExportDataObject@CDataManager@@QAEPAVIData@@ABK@Z ENDP ; CDataManager::GetExportDataObject
_TEXT	ENDS
PUBLIC	??0?$allocator@U?$pair@$$CBKPAVIData@@@std@@@std@@QAE@XZ ; std::allocator<std::pair<unsigned long const ,IData *> >::allocator<std::pair<unsigned long const ,IData *> >
PUBLIC	??0?$_Tree@V?$_Tmap_traits@KPAVIData@@U?$less@K@std@@V?$allocator@U?$pair@$$CBKPAVIData@@@std@@@3@$0A@@std@@@std@@QAE@ABU?$less@K@1@ABV?$allocator@U?$pair@$$CBKPAVIData@@@std@@@1@@Z ; std::_Tree<std::_Tmap_traits<unsigned long,IData *,std::less<unsigned long>,std::allocator<std::pair<unsigned long const ,IData *> >,0> >::_Tree<std::_Tmap_traits<unsigned long,IData *,std::less<unsigned long>,std::allocator<std::pair<unsigned long const ,IData *> >,0> >
; Function compile flags: /Odt /RTCsu
; File d:\program files (x86)\microsoft visual studio .net 2003\vc7\include\map
;	COMDAT ??0?$map@KPAVIData@@U?$less@K@std@@V?$allocator@U?$pair@$$CBKPAVIData@@@std@@@3@@std@@QAE@XZ
_TEXT	SEGMENT
$T190235 = -6						; size = 1
$T190234 = -5						; size = 1
_this$ = -4						; size = 4
??0?$map@KPAVIData@@U?$less@K@std@@V?$allocator@U?$pair@$$CBKPAVIData@@@std@@@3@@std@@QAE@XZ PROC NEAR ; std::map<unsigned long,IData *,std::less<unsigned long>,std::allocator<std::pair<unsigned long const ,IData *> > >::map<unsigned long,IData *,std::less<unsigned long>,std::allocator<std::pair<unsigned long const ,IData *> > >, COMDAT
; _this$ = ecx

; 102  : 		{	// construct empty map from defaults

  00000	55		 push	 ebp
  00001	8b ec		 mov	 ebp, esp
  00003	83 ec 08	 sub	 esp, 8
  00006	c7 45 f8 cc cc
	cc cc		 mov	 DWORD PTR [ebp-8], -858993460 ; ccccccccH
  0000d	c7 45 fc cc cc
	cc cc		 mov	 DWORD PTR [ebp-4], -858993460 ; ccccccccH
  00014	89 4d fc	 mov	 DWORD PTR _this$[ebp], ecx
  00017	8d 4d fb	 lea	 ecx, DWORD PTR $T190234[ebp]
  0001a	e8 00 00 00 00	 call	 ??0?$allocator@U?$pair@$$CBKPAVIData@@@std@@@std@@QAE@XZ ; std::allocator<std::pair<unsigned long const ,IData *> >::allocator<std::pair<unsigned long const ,IData *> >
  0001f	50		 push	 eax
  00020	8d 45 fa	 lea	 eax, DWORD PTR $T190235[ebp]
  00023	50		 push	 eax
  00024	8b 4d fc	 mov	 ecx, DWORD PTR _this$[ebp]
  00027	e8 00 00 00 00	 call	 ??0?$_Tree@V?$_Tmap_traits@KPAVIData@@U?$less@K@std@@V?$allocator@U?$pair@$$CBKPAVIData@@@std@@@3@$0A@@std@@@std@@QAE@ABU?$less@K@1@ABV?$allocator@U?$pair@$$CBKPAVIData@@@std@@@1@@Z ; std::_Tree<std::_Tmap_traits<unsigned long,IData *,std::less<unsigned long>,std::allocator<std::pair<unsigned long const ,IData *> >,0> >::_Tree<std::_Tmap_traits<unsigned long,IData *,std::less<unsigned long>,std::allocator<std::pair<unsigned long const ,IData *> >,0> >

; 103  : 		}

  0002c	8b 45 fc	 mov	 eax, DWORD PTR _this$[ebp]
  0002f	83 c4 08	 add	 esp, 8
  00032	3b ec		 cmp	 ebp, esp
  00034	e8 00 00 00 00	 call	 __RTC_CheckEsp
  00039	8b e5		 mov	 esp, ebp
  0003b	5d		 pop	 ebp
  0003c	c3		 ret	 0
??0?$map@KPAVIData@@U?$less@K@std@@V?$allocator@U?$pair@$$CBKPAVIData@@@std@@@3@@std@@QAE@XZ ENDP ; std::map<unsigned long,IData *,std::less<unsigned long>,std::allocator<std::pair<unsigned long const ,IData *> > >::map<unsigned long,IData *,std::less<unsigned long>,std::allocator<std::pair<unsigned long const ,IData *> > >
_TEXT	ENDS
PUBLIC	?_Mynode@const_iterator@?$_Tree@V?$_Tmap_traits@KPAVIData@@U?$less@K@std@@V?$allocator@U?$pair@$$CBKPAVIData@@@std@@@3@$0A@@std@@@std@@QBEPAU_Node@?$_Tree_nod@V?$_Tmap_traits@KPAVIData@@U?$less@K@std@@V?$allocator@U?$pair@$$CBKPAVIData@@@std@@@3@$0A@@std@@@3@XZ ; std::_Tree<std::_Tmap_traits<unsigned long,IData *,std::less<unsigned long>,std::allocator<std::pair<unsigned long const ,IData *> >,0> >::const_iterator::_Mynode
PUBLIC	??Diterator@?$_Tree@V?$_Tmap_traits@KPAVIData@@U?$less@K@std@@V?$allocator@U?$pair@$$CBKPAVIData@@@std@@@3@$0A@@std@@@std@@QBEAAU?$pair@$$CBKPAVIData@@@2@XZ ; std::_Tree<std::_Tmap_traits<unsigned long,IData *,std::less<unsigned long>,std::allocator<std::pair<unsigned long const ,IData *> >,0> >::iterator::operator*
PUBLIC	??0?$pair@$$CBKPAVIData@@@std@@QAE@ABKABQAVIData@@@Z ; std::pair<unsigned long const ,IData *>::pair<unsigned long const ,IData *>
PUBLIC	??R?$less@K@std@@QBE_NABK0@Z			; std::less<unsigned long>::operator()
PUBLIC	?_Key@?$_Tree@V?$_Tmap_traits@KPAVIData@@U?$less@K@std@@V?$allocator@U?$pair@$$CBKPAVIData@@@std@@@3@$0A@@std@@@std@@KAABKPAU_Node@?$_Tree_nod@V?$_Tmap_traits@KPAVIData@@U?$less@K@std@@V?$allocator@U?$pair@$$CBKPAVIData@@@std@@@3@$0A@@std@@@2@@Z ; std::_Tree<std::_Tmap_traits<unsigned long,IData *,std::less<unsigned long>,std::allocator<std::pair<unsigned long const ,IData *> >,0> >::_Key
PUBLIC	?insert@?$_Tree@V?$_Tmap_traits@KPAVIData@@U?$less@K@std@@V?$allocator@U?$pair@$$CBKPAVIData@@@std@@@3@$0A@@std@@@std@@QAE?AViterator@12@V312@ABU?$pair@$$CBKPAVIData@@@2@@Z ; std::_Tree<std::_Tmap_traits<unsigned long,IData *,std::less<unsigned long>,std::allocator<std::pair<unsigned long const ,IData *> >,0> >::insert
PUBLIC	?lower_bound@?$_Tree@V?$_Tmap_traits@KPAVIData@@U?$less@K@std@@V?$allocator@U?$pair@$$CBKPAVIData@@@std@@@3@$0A@@std@@@std@@QAE?AViterator@12@ABK@Z ; std::_Tree<std::_Tmap_traits<unsigned long,IData *,std::less<unsigned long>,std::allocator<std::pair<unsigned long const ,IData *> >,0> >::lower_bound
; Function compile flags: /Odt /RTCsu
;	COMDAT ??A?$map@KPAVIData@@U?$less@K@std@@V?$allocator@U?$pair@$$CBKPAVIData@@@std@@@3@@std@@QAEAAPAVIData@@ABK@Z
_TEXT	SEGMENT
$T190241 = -36						; size = 4
$T190240 = -32						; size = 4
$T190239 = -28						; size = 8
$T190238 = -20						; size = 4
__Where$ = -12						; size = 4
_this$ = -4						; size = 4
__Keyval$ = 8						; size = 4
??A?$map@KPAVIData@@U?$less@K@std@@V?$allocator@U?$pair@$$CBKPAVIData@@@std@@@3@@std@@QAEAAPAVIData@@ABK@Z PROC NEAR ; std::map<unsigned long,IData *,std::less<unsigned long>,std::allocator<std::pair<unsigned long const ,IData *> > >::operator[], COMDAT
; _this$ = ecx

; 142  : 		{	// find element matching _Keyval or insert with default mapped

  00000	55		 push	 ebp
  00001	8b ec		 mov	 ebp, esp
  00003	83 ec 24	 sub	 esp, 36			; 00000024H
  00006	b8 cc cc cc cc	 mov	 eax, -858993460		; ccccccccH
  0000b	89 45 dc	 mov	 DWORD PTR [ebp-36], eax
  0000e	89 45 e0	 mov	 DWORD PTR [ebp-32], eax
  00011	89 45 e4	 mov	 DWORD PTR [ebp-28], eax
  00014	89 45 e8	 mov	 DWORD PTR [ebp-24], eax
  00017	89 45 ec	 mov	 DWORD PTR [ebp-20], eax
  0001a	89 45 f0	 mov	 DWORD PTR [ebp-16], eax
  0001d	89 45 f4	 mov	 DWORD PTR [ebp-12], eax
  00020	89 45 f8	 mov	 DWORD PTR [ebp-8], eax
  00023	89 45 fc	 mov	 DWORD PTR [ebp-4], eax
  00026	89 4d fc	 mov	 DWORD PTR _this$[ebp], ecx

; 143  : 		iterator _Where = this->lower_bound(_Keyval);

  00029	8b 45 08	 mov	 eax, DWORD PTR __Keyval$[ebp]
  0002c	50		 push	 eax
  0002d	8d 4d f4	 lea	 ecx, DWORD PTR __Where$[ebp]
  00030	51		 push	 ecx
  00031	8b 4d fc	 mov	 ecx, DWORD PTR _this$[ebp]
  00034	e8 00 00 00 00	 call	 ?lower_bound@?$_Tree@V?$_Tmap_traits@KPAVIData@@U?$less@K@std@@V?$allocator@U?$pair@$$CBKPAVIData@@@std@@@3@$0A@@std@@@std@@QAE?AViterator@12@ABK@Z ; std::_Tree<std::_Tmap_traits<unsigned long,IData *,std::less<unsigned long>,std::allocator<std::pair<unsigned long const ,IData *> >,0> >::lower_bound

; 144  : 		if (_Where == this->end() || this->comp(_Keyval, this->_Key(_Where._Mynode())))

  00039	8d 55 ec	 lea	 edx, DWORD PTR $T190238[ebp]
  0003c	52		 push	 edx
  0003d	8b 4d fc	 mov	 ecx, DWORD PTR _this$[ebp]
  00040	e8 00 00 00 00	 call	 ?end@?$_Tree@V?$_Tmap_traits@KPAVIData@@U?$less@K@std@@V?$allocator@U?$pair@$$CBKPAVIData@@@std@@@3@$0A@@std@@@std@@QAE?AViterator@12@XZ ; std::_Tree<std::_Tmap_traits<unsigned long,IData *,std::less<unsigned long>,std::allocator<std::pair<unsigned long const ,IData *> >,0> >::end
  00045	50		 push	 eax
  00046	8d 4d f4	 lea	 ecx, DWORD PTR __Where$[ebp]
  00049	e8 00 00 00 00	 call	 ??8const_iterator@?$_Tree@V?$_Tmap_traits@KPAVIData@@U?$less@K@std@@V?$allocator@U?$pair@$$CBKPAVIData@@@std@@@3@$0A@@std@@@std@@QBE_NABV012@@Z ; std::_Tree<std::_Tmap_traits<unsigned long,IData *,std::less<unsigned long>,std::allocator<std::pair<unsigned long const ,IData *> >,0> >::const_iterator::operator==
  0004e	0f b6 c0	 movzx	 eax, al
  00051	85 c0		 test	 eax, eax
  00053	75 25		 jne	 SHORT $L188991
  00055	8d 4d f4	 lea	 ecx, DWORD PTR __Where$[ebp]
  00058	e8 00 00 00 00	 call	 ?_Mynode@const_iterator@?$_Tree@V?$_Tmap_traits@KPAVIData@@U?$less@K@std@@V?$allocator@U?$pair@$$CBKPAVIData@@@std@@@3@$0A@@std@@@std@@QBEPAU_Node@?$_Tree_nod@V?$_Tmap_traits@KPAVIData@@U?$less@K@std@@V?$allocator@U?$pair@$$CBKPAVIData@@@std@@@3@$0A@@std@@@3@XZ ; std::_Tree<std::_Tmap_traits<unsigned long,IData *,std::less<unsigned long>,std::allocator<std::pair<unsigned long const ,IData *> >,0> >::const_iterator::_Mynode
  0005d	50		 push	 eax
  0005e	e8 00 00 00 00	 call	 ?_Key@?$_Tree@V?$_Tmap_traits@KPAVIData@@U?$less@K@std@@V?$allocator@U?$pair@$$CBKPAVIData@@@std@@@3@$0A@@std@@@std@@KAABKPAU_Node@?$_Tree_nod@V?$_Tmap_traits@KPAVIData@@U?$less@K@std@@V?$allocator@U?$pair@$$CBKPAVIData@@@std@@@3@$0A@@std@@@2@@Z ; std::_Tree<std::_Tmap_traits<unsigned long,IData *,std::less<unsigned long>,std::allocator<std::pair<unsigned long const ,IData *> >,0> >::_Key
  00063	83 c4 04	 add	 esp, 4
  00066	50		 push	 eax
  00067	8b 4d 08	 mov	 ecx, DWORD PTR __Keyval$[ebp]
  0006a	51		 push	 ecx
  0006b	8b 4d fc	 mov	 ecx, DWORD PTR _this$[ebp]
  0006e	e8 00 00 00 00	 call	 ??R?$less@K@std@@QBE_NABK0@Z ; std::less<unsigned long>::operator()
  00073	0f b6 d0	 movzx	 edx, al
  00076	85 d2		 test	 edx, edx
  00078	74 2d		 je	 SHORT $L188990
$L188991:

; 145  : 			_Where = this->insert(_Where,
; 146  : 				value_type(_Keyval, mapped_type()));

  0007a	c7 45 e0 00 00
	00 00		 mov	 DWORD PTR $T190240[ebp], 0
  00081	8d 45 e0	 lea	 eax, DWORD PTR $T190240[ebp]
  00084	50		 push	 eax
  00085	8b 4d 08	 mov	 ecx, DWORD PTR __Keyval$[ebp]
  00088	51		 push	 ecx
  00089	8d 4d e4	 lea	 ecx, DWORD PTR $T190239[ebp]
  0008c	e8 00 00 00 00	 call	 ??0?$pair@$$CBKPAVIData@@@std@@QAE@ABKABQAVIData@@@Z ; std::pair<unsigned long const ,IData *>::pair<unsigned long const ,IData *>
  00091	50		 push	 eax
  00092	8b 55 f4	 mov	 edx, DWORD PTR __Where$[ebp]
  00095	52		 push	 edx
  00096	8d 45 dc	 lea	 eax, DWORD PTR $T190241[ebp]
  00099	50		 push	 eax
  0009a	8b 4d fc	 mov	 ecx, DWORD PTR _this$[ebp]
  0009d	e8 00 00 00 00	 call	 ?insert@?$_Tree@V?$_Tmap_traits@KPAVIData@@U?$less@K@std@@V?$allocator@U?$pair@$$CBKPAVIData@@@std@@@3@$0A@@std@@@std@@QAE?AViterator@12@V312@ABU?$pair@$$CBKPAVIData@@@2@@Z ; std::_Tree<std::_Tmap_traits<unsigned long,IData *,std::less<unsigned long>,std::allocator<std::pair<unsigned long const ,IData *> >,0> >::insert
  000a2	8b 08		 mov	 ecx, DWORD PTR [eax]
  000a4	89 4d f4	 mov	 DWORD PTR __Where$[ebp], ecx
$L188990:

; 147  : 		return ((*_Where).second);

  000a7	8d 4d f4	 lea	 ecx, DWORD PTR __Where$[ebp]
  000aa	e8 00 00 00 00	 call	 ??Diterator@?$_Tree@V?$_Tmap_traits@KPAVIData@@U?$less@K@std@@V?$allocator@U?$pair@$$CBKPAVIData@@@std@@@3@$0A@@std@@@std@@QBEAAU?$pair@$$CBKPAVIData@@@2@XZ ; std::_Tree<std::_Tmap_traits<unsigned long,IData *,std::less<unsigned long>,std::allocator<std::pair<unsigned long const ,IData *> >,0> >::iterator::operator*
  000af	83 c0 04	 add	 eax, 4

; 148  : 		}

  000b2	52		 push	 edx
  000b3	8b cd		 mov	 ecx, ebp
  000b5	50		 push	 eax
  000b6	8d 15 00 00 00
	00		 lea	 edx, DWORD PTR $L190244
  000bc	e8 00 00 00 00	 call	 @_RTC_CheckStackVars@8
  000c1	58		 pop	 eax
  000c2	5a		 pop	 edx
  000c3	83 c4 24	 add	 esp, 36			; 00000024H
  000c6	3b ec		 cmp	 ebp, esp
  000c8	e8 00 00 00 00	 call	 __RTC_CheckEsp
  000cd	8b e5		 mov	 esp, ebp
  000cf	5d		 pop	 ebp
  000d0	c2 04 00	 ret	 4
$L190244:
  000d3	01 00 00 00	 DD	 1
  000d7	00 00 00 00	 DD	 $L190243
$L190243:
  000db	f4 ff ff ff	 DD	 -12			; fffffff4H
  000df	04 00 00 00	 DD	 4
  000e3	00 00 00 00	 DD	 $L190242
$L190242:
  000e7	5f		 DB	 95			; 0000005fH
  000e8	57		 DB	 87			; 00000057H
  000e9	68		 DB	 104			; 00000068H
  000ea	65		 DB	 101			; 00000065H
  000eb	72		 DB	 114			; 00000072H
  000ec	65		 DB	 101			; 00000065H
  000ed	00		 DB	 0
??A?$map@KPAVIData@@U?$less@K@std@@V?$allocator@U?$pair@$$CBKPAVIData@@@std@@@3@@std@@QAEAAPAVIData@@ABK@Z ENDP ; std::map<unsigned long,IData *,std::less<unsigned long>,std::allocator<std::pair<unsigned long const ,IData *> > >::operator[]
_TEXT	ENDS
PUBLIC	?_Tidy@?$_Tree@V?$_Tmap_traits@KPAVIData@@U?$less@K@std@@V?$allocator@U?$pair@$$CBKPAVIData@@@std@@@3@$0A@@std@@@std@@IAEXXZ ; std::_Tree<std::_Tmap_traits<unsigned long,IData *,std::less<unsigned long>,std::allocator<std::pair<unsigned long const ,IData *> >,0> >::_Tidy
; Function compile flags: /Odt /RTCsu
; File d:\program files (x86)\microsoft visual studio .net 2003\vc7\include\xtree
;	COMDAT ??1?$_Tree@V?$_Tmap_traits@KPAVIData@@U?$less@K@std@@V?$allocator@U?$pair@$$CBKPAVIData@@@std@@@3@$0A@@std@@@std@@QAE@XZ
_TEXT	SEGMENT
_this$ = -4						; size = 4
??1?$_Tree@V?$_Tmap_traits@KPAVIData@@U?$less@K@std@@V?$allocator@U?$pair@$$CBKPAVIData@@@std@@@3@$0A@@std@@@std@@QAE@XZ PROC NEAR ; std::_Tree<std::_Tmap_traits<unsigned long,IData *,std::less<unsigned long>,std::allocator<std::pair<unsigned long const ,IData *> >,0> >::~_Tree<std::_Tmap_traits<unsigned long,IData *,std::less<unsigned long>,std::allocator<std::pair<unsigned long const ,IData *> >,0> >, COMDAT
; _this$ = ecx

; 391  : 		{	// destroy tree

  00000	55		 push	 ebp
  00001	8b ec		 mov	 ebp, esp
  00003	51		 push	 ecx
  00004	c7 45 fc cc cc
	cc cc		 mov	 DWORD PTR [ebp-4], -858993460 ; ccccccccH
  0000b	89 4d fc	 mov	 DWORD PTR _this$[ebp], ecx

; 392  : 		_Tidy();

  0000e	8b 4d fc	 mov	 ecx, DWORD PTR _this$[ebp]
  00011	e8 00 00 00 00	 call	 ?_Tidy@?$_Tree@V?$_Tmap_traits@KPAVIData@@U?$less@K@std@@V?$allocator@U?$pair@$$CBKPAVIData@@@std@@@3@$0A@@std@@@std@@IAEXXZ ; std::_Tree<std::_Tmap_traits<unsigned long,IData *,std::less<unsigned long>,std::allocator<std::pair<unsigned long const ,IData *> >,0> >::_Tidy

; 393  : 		}

  00016	83 c4 04	 add	 esp, 4
  00019	3b ec		 cmp	 ebp, esp
  0001b	e8 00 00 00 00	 call	 __RTC_CheckEsp
  00020	8b e5		 mov	 esp, ebp
  00022	5d		 pop	 ebp
  00023	c3		 ret	 0
??1?$_Tree@V?$_Tmap_traits@KPAVIData@@U?$less@K@std@@V?$allocator@U?$pair@$$CBKPAVIData@@@std@@@3@$0A@@std@@@std@@QAE@XZ ENDP ; std::_Tree<std::_Tmap_traits<unsigned long,IData *,std::less<unsigned long>,std::allocator<std::pair<unsigned long const ,IData *> >,0> >::~_Tree<std::_Tmap_traits<unsigned long,IData *,std::less<unsigned long>,std::allocator<std::pair<unsigned long const ,IData *> >,0> >
_TEXT	ENDS
PUBLIC	??0iterator@?$_Tree@V?$_Tmap_traits@KPAVIData@@U?$less@K@std@@V?$allocator@U?$pair@$$CBKPAVIData@@@std@@@3@$0A@@std@@@std@@QAE@PAU_Node@?$_Tree_nod@V?$_Tmap_traits@KPAVIData@@U?$less@K@std@@V?$allocator@U?$pair@$$CBKPAVIData@@@std@@@3@$0A@@std@@@2@@Z ; std::_Tree<std::_Tmap_traits<unsigned long,IData *,std::less<unsigned long>,std::allocator<std::pair<unsigned long const ,IData *> >,0> >::iterator::iterator
PUBLIC	?_Lmost@?$_Tree@V?$_Tmap_traits@KPAVIData@@U?$less@K@std@@V?$allocator@U?$pair@$$CBKPAVIData@@@std@@@3@$0A@@std@@@std@@IAEAAPAU_Node@?$_Tree_nod@V?$_Tmap_traits@KPAVIData@@U?$less@K@std@@V?$allocator@U?$pair@$$CBKPAVIData@@@std@@@3@$0A@@std@@@2@XZ ; std::_Tree<std::_Tmap_traits<unsigned long,IData *,std::less<unsigned long>,std::allocator<std::pair<unsigned long const ,IData *> >,0> >::_Lmost
; Function compile flags: /Odt /RTCsu
;	COMDAT ?begin@?$_Tree@V?$_Tmap_traits@KPAVIData@@U?$less@K@std@@V?$allocator@U?$pair@$$CBKPAVIData@@@std@@@3@$0A@@std@@@std@@QAE?AViterator@12@XZ
_TEXT	SEGMENT
_this$ = -4						; size = 4
___$ReturnUdt$ = 8					; size = 4
?begin@?$_Tree@V?$_Tmap_traits@KPAVIData@@U?$less@K@std@@V?$allocator@U?$pair@$$CBKPAVIData@@@std@@@3@$0A@@std@@@std@@QAE?AViterator@12@XZ PROC NEAR ; std::_Tree<std::_Tmap_traits<unsigned long,IData *,std::less<unsigned long>,std::allocator<std::pair<unsigned long const ,IData *> >,0> >::begin, COMDAT
; _this$ = ecx

; 407  : 		{	// return iterator for beginning of mutable sequence

  00000	55		 push	 ebp
  00001	8b ec		 mov	 ebp, esp
  00003	51		 push	 ecx
  00004	c7 45 fc cc cc
	cc cc		 mov	 DWORD PTR [ebp-4], -858993460 ; ccccccccH
  0000b	89 4d fc	 mov	 DWORD PTR _this$[ebp], ecx

; 408  : 		return (_TREE_ITERATOR(_Lmost()));

  0000e	8b 4d fc	 mov	 ecx, DWORD PTR _this$[ebp]
  00011	e8 00 00 00 00	 call	 ?_Lmost@?$_Tree@V?$_Tmap_traits@KPAVIData@@U?$less@K@std@@V?$allocator@U?$pair@$$CBKPAVIData@@@std@@@3@$0A@@std@@@std@@IAEAAPAU_Node@?$_Tree_nod@V?$_Tmap_traits@KPAVIData@@U?$less@K@std@@V?$allocator@U?$pair@$$CBKPAVIData@@@std@@@3@$0A@@std@@@2@XZ ; std::_Tree<std::_Tmap_traits<unsigned long,IData *,std::less<unsigned long>,std::allocator<std::pair<unsigned long const ,IData *> >,0> >::_Lmost
  00016	8b 00		 mov	 eax, DWORD PTR [eax]
  00018	50		 push	 eax
  00019	8b 4d 08	 mov	 ecx, DWORD PTR ___$ReturnUdt$[ebp]
  0001c	e8 00 00 00 00	 call	 ??0iterator@?$_Tree@V?$_Tmap_traits@KPAVIData@@U?$less@K@std@@V?$allocator@U?$pair@$$CBKPAVIData@@@std@@@3@$0A@@std@@@std@@QAE@PAU_Node@?$_Tree_nod@V?$_Tmap_traits@KPAVIData@@U?$less@K@std@@V?$allocator@U?$pair@$$CBKPAVIData@@@std@@@3@$0A@@std@@@2@@Z ; std::_Tree<std::_Tmap_traits<unsigned long,IData *,std::less<unsigned long>,std::allocator<std::pair<unsigned long const ,IData *> >,0> >::iterator::iterator
  00021	8b 45 08	 mov	 eax, DWORD PTR ___$ReturnUdt$[ebp]

; 409  : 		}

  00024	83 c4 04	 add	 esp, 4
  00027	3b ec		 cmp	 ebp, esp
  00029	e8 00 00 00 00	 call	 __RTC_CheckEsp
  0002e	8b e5		 mov	 esp, ebp
  00030	5d		 pop	 ebp
  00031	c2 04 00	 ret	 4
?begin@?$_Tree@V?$_Tmap_traits@KPAVIData@@U?$less@K@std@@V?$allocator@U?$pair@$$CBKPAVIData@@@std@@@3@$0A@@std@@@std@@QAE?AViterator@12@XZ ENDP ; std::_Tree<std::_Tmap_traits<unsigned long,IData *,std::less<unsigned long>,std::allocator<std::pair<unsigned long const ,IData *> >,0> >::begin
; Function compile flags: /Odt /RTCsu
_TEXT	ENDS
;	COMDAT ?end@?$_Tree@V?$_Tmap_traits@KPAVIData@@U?$less@K@std@@V?$allocator@U?$pair@$$CBKPAVIData@@@std@@@3@$0A@@std@@@std@@QAE?AViterator@12@XZ
_TEXT	SEGMENT
_this$ = -4						; size = 4
___$ReturnUdt$ = 8					; size = 4
?end@?$_Tree@V?$_Tmap_traits@KPAVIData@@U?$less@K@std@@V?$allocator@U?$pair@$$CBKPAVIData@@@std@@@3@$0A@@std@@@std@@QAE?AViterator@12@XZ PROC NEAR ; std::_Tree<std::_Tmap_traits<unsigned long,IData *,std::less<unsigned long>,std::allocator<std::pair<unsigned long const ,IData *> >,0> >::end, COMDAT
; _this$ = ecx

; 417  : 		{	// return iterator for end of mutable sequence

  00000	55		 push	 ebp
  00001	8b ec		 mov	 ebp, esp
  00003	51		 push	 ecx
  00004	c7 45 fc cc cc
	cc cc		 mov	 DWORD PTR [ebp-4], -858993460 ; ccccccccH
  0000b	89 4d fc	 mov	 DWORD PTR _this$[ebp], ecx

; 418  : 		return (_TREE_ITERATOR(_Myhead));

  0000e	8b 45 fc	 mov	 eax, DWORD PTR _this$[ebp]
  00011	8b 48 04	 mov	 ecx, DWORD PTR [eax+4]
  00014	51		 push	 ecx
  00015	8b 4d 08	 mov	 ecx, DWORD PTR ___$ReturnUdt$[ebp]
  00018	e8 00 00 00 00	 call	 ??0iterator@?$_Tree@V?$_Tmap_traits@KPAVIData@@U?$less@K@std@@V?$allocator@U?$pair@$$CBKPAVIData@@@std@@@3@$0A@@std@@@std@@QAE@PAU_Node@?$_Tree_nod@V?$_Tmap_traits@KPAVIData@@U?$less@K@std@@V?$allocator@U?$pair@$$CBKPAVIData@@@std@@@3@$0A@@std@@@2@@Z ; std::_Tree<std::_Tmap_traits<unsigned long,IData *,std::less<unsigned long>,std::allocator<std::pair<unsigned long const ,IData *> >,0> >::iterator::iterator
  0001d	8b 45 08	 mov	 eax, DWORD PTR ___$ReturnUdt$[ebp]

; 419  : 		}

  00020	83 c4 04	 add	 esp, 4
  00023	3b ec		 cmp	 ebp, esp
  00025	e8 00 00 00 00	 call	 __RTC_CheckEsp
  0002a	8b e5		 mov	 esp, ebp
  0002c	5d		 pop	 ebp
  0002d	c2 04 00	 ret	 4
?end@?$_Tree@V?$_Tmap_traits@KPAVIData@@U?$less@K@std@@V?$allocator@U?$pair@$$CBKPAVIData@@@std@@@3@$0A@@std@@@std@@QAE?AViterator@12@XZ ENDP ; std::_Tree<std::_Tmap_traits<unsigned long,IData *,std::less<unsigned long>,std::allocator<std::pair<unsigned long const ,IData *> >,0> >::end
_TEXT	ENDS
PUBLIC	??$_Distance@Viterator@?$_Tree@V?$_Tmap_traits@KPAVIData@@U?$less@K@std@@V?$allocator@U?$pair@$$CBKPAVIData@@@std@@@3@$0A@@std@@@std@@I@std@@YAXViterator@?$_Tree@V?$_Tmap_traits@KPAVIData@@U?$less@K@std@@V?$allocator@U?$pair@$$CBKPAVIData@@@std@@@3@$0A@@std@@@0@0AAI@Z ; std::_Distance<std::_Tree<std::_Tmap_traits<unsigned long,IData *,std::less<unsigned long>,std::allocator<std::pair<unsigned long const ,IData *> >,0> >::iterator,unsigned int>
PUBLIC	?erase@?$_Tree@V?$_Tmap_traits@KPAVIData@@U?$less@K@std@@V?$allocator@U?$pair@$$CBKPAVIData@@@std@@@3@$0A@@std@@@std@@QAE?AViterator@12@V312@0@Z ; std::_Tree<std::_Tmap_traits<unsigned long,IData *,std::less<unsigned long>,std::allocator<std::pair<unsigned long const ,IData *> >,0> >::erase
PUBLIC	?equal_range@?$_Tree@V?$_Tmap_traits@KPAVIData@@U?$less@K@std@@V?$allocator@U?$pair@$$CBKPAVIData@@@std@@@3@$0A@@std@@@std@@QAE?AU?$pair@Viterator@?$_Tree@V?$_Tmap_traits@KPAVIData@@U?$less@K@std@@V?$allocator@U?$pair@$$CBKPAVIData@@@std@@@3@$0A@@std@@@std@@V123@@2@ABK@Z ; std::_Tree<std::_Tmap_traits<unsigned long,IData *,std::less<unsigned long>,std::allocator<std::pair<unsigned long const ,IData *> >,0> >::equal_range
; Function compile flags: /Odt /RTCsu
;	COMDAT ?erase@?$_Tree@V?$_Tmap_traits@KPAVIData@@U?$less@K@std@@V?$allocator@U?$pair@$$CBKPAVIData@@@std@@@3@$0A@@std@@@std@@QAEIABK@Z
_TEXT	SEGMENT
$T190249 = -36						; size = 4
__Num$ = -28						; size = 4
__Where$ = -16						; size = 8
_this$ = -4						; size = 4
__Keyval$ = 8						; size = 4
?erase@?$_Tree@V?$_Tmap_traits@KPAVIData@@U?$less@K@std@@V?$allocator@U?$pair@$$CBKPAVIData@@@std@@@3@$0A@@std@@@std@@QAEIABK@Z PROC NEAR ; std::_Tree<std::_Tmap_traits<unsigned long,IData *,std::less<unsigned long>,std::allocator<std::pair<unsigned long const ,IData *> >,0> >::erase, COMDAT
; _this$ = ecx

; 765  : 		{	// erase and count all that match _Keyval

  00000	55		 push	 ebp
  00001	8b ec		 mov	 ebp, esp
  00003	83 ec 24	 sub	 esp, 36			; 00000024H
  00006	b8 cc cc cc cc	 mov	 eax, -858993460		; ccccccccH
  0000b	89 45 dc	 mov	 DWORD PTR [ebp-36], eax
  0000e	89 45 e0	 mov	 DWORD PTR [ebp-32], eax
  00011	89 45 e4	 mov	 DWORD PTR [ebp-28], eax
  00014	89 45 e8	 mov	 DWORD PTR [ebp-24], eax
  00017	89 45 ec	 mov	 DWORD PTR [ebp-20], eax
  0001a	89 45 f0	 mov	 DWORD PTR [ebp-16], eax
  0001d	89 45 f4	 mov	 DWORD PTR [ebp-12], eax
  00020	89 45 f8	 mov	 DWORD PTR [ebp-8], eax
  00023	89 45 fc	 mov	 DWORD PTR [ebp-4], eax
  00026	89 4d fc	 mov	 DWORD PTR _this$[ebp], ecx

; 766  : 		_Pairii _Where = equal_range(_Keyval);

  00029	8b 45 08	 mov	 eax, DWORD PTR __Keyval$[ebp]
  0002c	50		 push	 eax
  0002d	8d 4d f0	 lea	 ecx, DWORD PTR __Where$[ebp]
  00030	51		 push	 ecx
  00031	8b 4d fc	 mov	 ecx, DWORD PTR _this$[ebp]
  00034	e8 00 00 00 00	 call	 ?equal_range@?$_Tree@V?$_Tmap_traits@KPAVIData@@U?$less@K@std@@V?$allocator@U?$pair@$$CBKPAVIData@@@std@@@3@$0A@@std@@@std@@QAE?AU?$pair@Viterator@?$_Tree@V?$_Tmap_traits@KPAVIData@@U?$less@K@std@@V?$allocator@U?$pair@$$CBKPAVIData@@@std@@@3@$0A@@std@@@std@@V123@@2@ABK@Z ; std::_Tree<std::_Tmap_traits<unsigned long,IData *,std::less<unsigned long>,std::allocator<std::pair<unsigned long const ,IData *> >,0> >::equal_range

; 767  : 		size_type _Num = 0;

  00039	c7 45 e4 00 00
	00 00		 mov	 DWORD PTR __Num$[ebp], 0

; 768  : 		_Distance(_Where.first, _Where.second, _Num);

  00040	8d 55 e4	 lea	 edx, DWORD PTR __Num$[ebp]
  00043	52		 push	 edx
  00044	8b 45 f4	 mov	 eax, DWORD PTR __Where$[ebp+4]
  00047	50		 push	 eax
  00048	8b 4d f0	 mov	 ecx, DWORD PTR __Where$[ebp]
  0004b	51		 push	 ecx
  0004c	e8 00 00 00 00	 call	 ??$_Distance@Viterator@?$_Tree@V?$_Tmap_traits@KPAVIData@@U?$less@K@std@@V?$allocator@U?$pair@$$CBKPAVIData@@@std@@@3@$0A@@std@@@std@@I@std@@YAXViterator@?$_Tree@V?$_Tmap_traits@KPAVIData@@U?$less@K@std@@V?$allocator@U?$pair@$$CBKPAVIData@@@std@@@3@$0A@@std@@@0@0AAI@Z ; std::_Distance<std::_Tree<std::_Tmap_traits<unsigned long,IData *,std::less<unsigned long>,std::allocator<std::pair<unsigned long const ,IData *> >,0> >::iterator,unsigned int>
  00051	83 c4 0c	 add	 esp, 12			; 0000000cH

; 769  : 		erase(_Where.first, _Where.second);

  00054	8b 55 f4	 mov	 edx, DWORD PTR __Where$[ebp+4]
  00057	52		 push	 edx
  00058	8b 45 f0	 mov	 eax, DWORD PTR __Where$[ebp]
  0005b	50		 push	 eax
  0005c	8d 4d dc	 lea	 ecx, DWORD PTR $T190249[ebp]
  0005f	51		 push	 ecx
  00060	8b 4d fc	 mov	 ecx, DWORD PTR _this$[ebp]
  00063	e8 00 00 00 00	 call	 ?erase@?$_Tree@V?$_Tmap_traits@KPAVIData@@U?$less@K@std@@V?$allocator@U?$pair@$$CBKPAVIData@@@std@@@3@$0A@@std@@@std@@QAE?AViterator@12@V312@0@Z ; std::_Tree<std::_Tmap_traits<unsigned long,IData *,std::less<unsigned long>,std::allocator<std::pair<unsigned long const ,IData *> >,0> >::erase

; 770  : 		return (_Num);

  00068	8b 45 e4	 mov	 eax, DWORD PTR __Num$[ebp]

; 771  : 		}

  0006b	52		 push	 edx
  0006c	8b cd		 mov	 ecx, ebp
  0006e	50		 push	 eax
  0006f	8d 15 00 00 00
	00		 lea	 edx, DWORD PTR $L190253
  00075	e8 00 00 00 00	 call	 @_RTC_CheckStackVars@8
  0007a	58		 pop	 eax
  0007b	5a		 pop	 edx
  0007c	83 c4 24	 add	 esp, 36			; 00000024H
  0007f	3b ec		 cmp	 ebp, esp
  00081	e8 00 00 00 00	 call	 __RTC_CheckEsp
  00086	8b e5		 mov	 esp, ebp
  00088	5d		 pop	 ebp
  00089	c2 04 00	 ret	 4
$L190253:
  0008c	02 00 00 00	 DD	 2
  00090	00 00 00 00	 DD	 $L190252
$L190252:
  00094	f0 ff ff ff	 DD	 -16			; fffffff0H
  00098	08 00 00 00	 DD	 8
  0009c	00 00 00 00	 DD	 $L190250
  000a0	e4 ff ff ff	 DD	 -28			; ffffffe4H
  000a4	04 00 00 00	 DD	 4
  000a8	00 00 00 00	 DD	 $L190251
$L190251:
  000ac	5f		 DB	 95			; 0000005fH
  000ad	4e		 DB	 78			; 0000004eH
  000ae	75		 DB	 117			; 00000075H
  000af	6d		 DB	 109			; 0000006dH
  000b0	00		 DB	 0
$L190250:
  000b1	5f		 DB	 95			; 0000005fH
  000b2	57		 DB	 87			; 00000057H
  000b3	68		 DB	 104			; 00000068H
  000b4	65		 DB	 101			; 00000065H
  000b5	72		 DB	 114			; 00000072H
  000b6	65		 DB	 101			; 00000065H
  000b7	00		 DB	 0
?erase@?$_Tree@V?$_Tmap_traits@KPAVIData@@U?$less@K@std@@V?$allocator@U?$pair@$$CBKPAVIData@@@std@@@3@$0A@@std@@@std@@QAEIABK@Z ENDP ; std::_Tree<std::_Tmap_traits<unsigned long,IData *,std::less<unsigned long>,std::allocator<std::pair<unsigned long const ,IData *> >,0> >::erase
_TEXT	ENDS
PUBLIC	?_Erase@?$_Tree@V?$_Tmap_traits@KPAVIData@@U?$less@K@std@@V?$allocator@U?$pair@$$CBKPAVIData@@@std@@@3@$0A@@std@@@std@@IAEXPAU_Node@?$_Tree_nod@V?$_Tmap_traits@KPAVIData@@U?$less@K@std@@V?$allocator@U?$pair@$$CBKPAVIData@@@std@@@3@$0A@@std@@@2@@Z ; std::_Tree<std::_Tmap_traits<unsigned long,IData *,std::less<unsigned long>,std::allocator<std::pair<unsigned long const ,IData *> >,0> >::_Erase
PUBLIC	?_Rmost@?$_Tree@V?$_Tmap_traits@KPAVIData@@U?$less@K@std@@V?$allocator@U?$pair@$$CBKPAVIData@@@std@@@3@$0A@@std@@@std@@IAEAAPAU_Node@?$_Tree_nod@V?$_Tmap_traits@KPAVIData@@U?$less@K@std@@V?$allocator@U?$pair@$$CBKPAVIData@@@std@@@3@$0A@@std@@@2@XZ ; std::_Tree<std::_Tmap_traits<unsigned long,IData *,std::less<unsigned long>,std::allocator<std::pair<unsigned long const ,IData *> >,0> >::_Rmost
PUBLIC	?_Root@?$_Tree@V?$_Tmap_traits@KPAVIData@@U?$less@K@std@@V?$allocator@U?$pair@$$CBKPAVIData@@@std@@@3@$0A@@std@@@std@@IAEAAPAU_Node@?$_Tree_nod@V?$_Tmap_traits@KPAVIData@@U?$less@K@std@@V?$allocator@U?$pair@$$CBKPAVIData@@@std@@@3@$0A@@std@@@2@XZ ; std::_Tree<std::_Tmap_traits<unsigned long,IData *,std::less<unsigned long>,std::allocator<std::pair<unsigned long const ,IData *> >,0> >::_Root
; Function compile flags: /Odt /RTCsu
;	COMDAT ?clear@?$_Tree@V?$_Tmap_traits@KPAVIData@@U?$less@K@std@@V?$allocator@U?$pair@$$CBKPAVIData@@@std@@@3@$0A@@std@@@std@@QAEXXZ
_TEXT	SEGMENT
_this$ = -4						; size = 4
?clear@?$_Tree@V?$_Tmap_traits@KPAVIData@@U?$less@K@std@@V?$allocator@U?$pair@$$CBKPAVIData@@@std@@@3@$0A@@std@@@std@@QAEXXZ PROC NEAR ; std::_Tree<std::_Tmap_traits<unsigned long,IData *,std::less<unsigned long>,std::allocator<std::pair<unsigned long const ,IData *> >,0> >::clear, COMDAT
; _this$ = ecx

; 780  : 		{	// erase all

  00000	55		 push	 ebp
  00001	8b ec		 mov	 ebp, esp
  00003	51		 push	 ecx
  00004	c7 45 fc cc cc
	cc cc		 mov	 DWORD PTR [ebp-4], -858993460 ; ccccccccH
  0000b	89 4d fc	 mov	 DWORD PTR _this$[ebp], ecx

; 781  : 		_Erase(_Root());

  0000e	8b 4d fc	 mov	 ecx, DWORD PTR _this$[ebp]
  00011	e8 00 00 00 00	 call	 ?_Root@?$_Tree@V?$_Tmap_traits@KPAVIData@@U?$less@K@std@@V?$allocator@U?$pair@$$CBKPAVIData@@@std@@@3@$0A@@std@@@std@@IAEAAPAU_Node@?$_Tree_nod@V?$_Tmap_traits@KPAVIData@@U?$less@K@std@@V?$allocator@U?$pair@$$CBKPAVIData@@@std@@@3@$0A@@std@@@2@XZ ; std::_Tree<std::_Tmap_traits<unsigned long,IData *,std::less<unsigned long>,std::allocator<std::pair<unsigned long const ,IData *> >,0> >::_Root
  00016	8b 00		 mov	 eax, DWORD PTR [eax]
  00018	50		 push	 eax
  00019	8b 4d fc	 mov	 ecx, DWORD PTR _this$[ebp]
  0001c	e8 00 00 00 00	 call	 ?_Erase@?$_Tree@V?$_Tmap_traits@KPAVIData@@U?$less@K@std@@V?$allocator@U?$pair@$$CBKPAVIData@@@std@@@3@$0A@@std@@@std@@IAEXPAU_Node@?$_Tree_nod@V?$_Tmap_traits@KPAVIData@@U?$less@K@std@@V?$allocator@U?$pair@$$CBKPAVIData@@@std@@@3@$0A@@std@@@2@@Z ; std::_Tree<std::_Tmap_traits<unsigned long,IData *,std::less<unsigned long>,std::allocator<std::pair<unsigned long const ,IData *> >,0> >::_Erase

; 782  : 		_Root() = _Myhead, _Mysize = 0;

  00021	8b 4d fc	 mov	 ecx, DWORD PTR _this$[ebp]
  00024	e8 00 00 00 00	 call	 ?_Root@?$_Tree@V?$_Tmap_traits@KPAVIData@@U?$less@K@std@@V?$allocator@U?$pair@$$CBKPAVIData@@@std@@@3@$0A@@std@@@std@@IAEAAPAU_Node@?$_Tree_nod@V?$_Tmap_traits@KPAVIData@@U?$less@K@std@@V?$allocator@U?$pair@$$CBKPAVIData@@@std@@@3@$0A@@std@@@2@XZ ; std::_Tree<std::_Tmap_traits<unsigned long,IData *,std::less<unsigned long>,std::allocator<std::pair<unsigned long const ,IData *> >,0> >::_Root
  00029	8b 4d fc	 mov	 ecx, DWORD PTR _this$[ebp]
  0002c	8b 51 04	 mov	 edx, DWORD PTR [ecx+4]
  0002f	89 10		 mov	 DWORD PTR [eax], edx
  00031	8b 45 fc	 mov	 eax, DWORD PTR _this$[ebp]
  00034	c7 40 08 00 00
	00 00		 mov	 DWORD PTR [eax+8], 0

; 783  : 		_Lmost() = _Myhead, _Rmost() = _Myhead;

  0003b	8b 4d fc	 mov	 ecx, DWORD PTR _this$[ebp]
  0003e	e8 00 00 00 00	 call	 ?_Lmost@?$_Tree@V?$_Tmap_traits@KPAVIData@@U?$less@K@std@@V?$allocator@U?$pair@$$CBKPAVIData@@@std@@@3@$0A@@std@@@std@@IAEAAPAU_Node@?$_Tree_nod@V?$_Tmap_traits@KPAVIData@@U?$less@K@std@@V?$allocator@U?$pair@$$CBKPAVIData@@@std@@@3@$0A@@std@@@2@XZ ; std::_Tree<std::_Tmap_traits<unsigned long,IData *,std::less<unsigned long>,std::allocator<std::pair<unsigned long const ,IData *> >,0> >::_Lmost
  00043	8b 4d fc	 mov	 ecx, DWORD PTR _this$[ebp]
  00046	8b 51 04	 mov	 edx, DWORD PTR [ecx+4]
  00049	89 10		 mov	 DWORD PTR [eax], edx
  0004b	8b 4d fc	 mov	 ecx, DWORD PTR _this$[ebp]
  0004e	e8 00 00 00 00	 call	 ?_Rmost@?$_Tree@V?$_Tmap_traits@KPAVIData@@U?$less@K@std@@V?$allocator@U?$pair@$$CBKPAVIData@@@std@@@3@$0A@@std@@@std@@IAEAAPAU_Node@?$_Tree_nod@V?$_Tmap_traits@KPAVIData@@U?$less@K@std@@V?$allocator@U?$pair@$$CBKPAVIData@@@std@@@3@$0A@@std@@@2@XZ ; std::_Tree<std::_Tmap_traits<unsigned long,IData *,std::less<unsigned long>,std::allocator<std::pair<unsigned long const ,IData *> >,0> >::_Rmost
  00053	8b 4d fc	 mov	 ecx, DWORD PTR _this$[ebp]
  00056	8b 51 04	 mov	 edx, DWORD PTR [ecx+4]
  00059	89 10		 mov	 DWORD PTR [eax], edx

; 784  : 		}

  0005b	83 c4 04	 add	 esp, 4
  0005e	3b ec		 cmp	 ebp, esp
  00060	e8 00 00 00 00	 call	 __RTC_CheckEsp
  00065	8b e5		 mov	 esp, ebp
  00067	5d		 pop	 ebp
  00068	c3		 ret	 0
?clear@?$_Tree@V?$_Tmap_traits@KPAVIData@@U?$less@K@std@@V?$allocator@U?$pair@$$CBKPAVIData@@@std@@@3@$0A@@std@@@std@@QAEXXZ ENDP ; std::_Tree<std::_Tmap_traits<unsigned long,IData *,std::less<unsigned long>,std::allocator<std::pair<unsigned long const ,IData *> >,0> >::clear
; Function compile flags: /Odt /RTCsu
_TEXT	ENDS
;	COMDAT ?find@?$_Tree@V?$_Tmap_traits@KPAVIData@@U?$less@K@std@@V?$allocator@U?$pair@$$CBKPAVIData@@@std@@@3@$0A@@std@@@std@@QAE?AViterator@12@ABK@Z
_TEXT	SEGMENT
tv88 = -32						; size = 4
$T190259 = -28						; size = 4
$T190257 = -24						; size = 4
$T190256 = -20						; size = 4
__Where$ = -12						; size = 4
_this$ = -4						; size = 4
___$ReturnUdt$ = 8					; size = 4
__Keyval$ = 12						; size = 4
?find@?$_Tree@V?$_Tmap_traits@KPAVIData@@U?$less@K@std@@V?$allocator@U?$pair@$$CBKPAVIData@@@std@@@3@$0A@@std@@@std@@QAE?AViterator@12@ABK@Z PROC NEAR ; std::_Tree<std::_Tmap_traits<unsigned long,IData *,std::less<unsigned long>,std::allocator<std::pair<unsigned long const ,IData *> >,0> >::find, COMDAT
; _this$ = ecx

; 787  : 		{	// find an element in mutable sequence that matches _Keyval

  00000	55		 push	 ebp
  00001	8b ec		 mov	 ebp, esp
  00003	83 ec 20	 sub	 esp, 32			; 00000020H
  00006	b8 cc cc cc cc	 mov	 eax, -858993460		; ccccccccH
  0000b	89 45 e0	 mov	 DWORD PTR [ebp-32], eax
  0000e	89 45 e4	 mov	 DWORD PTR [ebp-28], eax
  00011	89 45 e8	 mov	 DWORD PTR [ebp-24], eax
  00014	89 45 ec	 mov	 DWORD PTR [ebp-20], eax
  00017	89 45 f0	 mov	 DWORD PTR [ebp-16], eax
  0001a	89 45 f4	 mov	 DWORD PTR [ebp-12], eax
  0001d	89 45 f8	 mov	 DWORD PTR [ebp-8], eax
  00020	89 45 fc	 mov	 DWORD PTR [ebp-4], eax
  00023	89 4d fc	 mov	 DWORD PTR _this$[ebp], ecx

; 788  : 		iterator _Where = lower_bound(_Keyval);

  00026	8b 45 0c	 mov	 eax, DWORD PTR __Keyval$[ebp]
  00029	50		 push	 eax
  0002a	8d 4d f4	 lea	 ecx, DWORD PTR __Where$[ebp]
  0002d	51		 push	 ecx
  0002e	8b 4d fc	 mov	 ecx, DWORD PTR _this$[ebp]
  00031	e8 00 00 00 00	 call	 ?lower_bound@?$_Tree@V?$_Tmap_traits@KPAVIData@@U?$less@K@std@@V?$allocator@U?$pair@$$CBKPAVIData@@@std@@@3@$0A@@std@@@std@@QAE?AViterator@12@ABK@Z ; std::_Tree<std::_Tmap_traits<unsigned long,IData *,std::less<unsigned long>,std::allocator<std::pair<unsigned long const ,IData *> >,0> >::lower_bound

; 789  : 		return (_Where == end() || this->comp(_Keyval, _Key(_Where._Mynode()))
; 790  : 			? end() : _Where);

  00036	8d 55 e8	 lea	 edx, DWORD PTR $T190257[ebp]
  00039	52		 push	 edx
  0003a	8b 4d fc	 mov	 ecx, DWORD PTR _this$[ebp]
  0003d	e8 00 00 00 00	 call	 ?end@?$_Tree@V?$_Tmap_traits@KPAVIData@@U?$less@K@std@@V?$allocator@U?$pair@$$CBKPAVIData@@@std@@@3@$0A@@std@@@std@@QAE?AViterator@12@XZ ; std::_Tree<std::_Tmap_traits<unsigned long,IData *,std::less<unsigned long>,std::allocator<std::pair<unsigned long const ,IData *> >,0> >::end
  00042	50		 push	 eax
  00043	8d 4d f4	 lea	 ecx, DWORD PTR __Where$[ebp]
  00046	e8 00 00 00 00	 call	 ??8const_iterator@?$_Tree@V?$_Tmap_traits@KPAVIData@@U?$less@K@std@@V?$allocator@U?$pair@$$CBKPAVIData@@@std@@@3@$0A@@std@@@std@@QBE_NABV012@@Z ; std::_Tree<std::_Tmap_traits<unsigned long,IData *,std::less<unsigned long>,std::allocator<std::pair<unsigned long const ,IData *> >,0> >::const_iterator::operator==
  0004b	0f b6 c0	 movzx	 eax, al
  0004e	85 c0		 test	 eax, eax
  00050	75 2d		 jne	 SHORT $L190258
  00052	8d 4d f4	 lea	 ecx, DWORD PTR __Where$[ebp]
  00055	e8 00 00 00 00	 call	 ?_Mynode@const_iterator@?$_Tree@V?$_Tmap_traits@KPAVIData@@U?$less@K@std@@V?$allocator@U?$pair@$$CBKPAVIData@@@std@@@3@$0A@@std@@@std@@QBEPAU_Node@?$_Tree_nod@V?$_Tmap_traits@KPAVIData@@U?$less@K@std@@V?$allocator@U?$pair@$$CBKPAVIData@@@std@@@3@$0A@@std@@@3@XZ ; std::_Tree<std::_Tmap_traits<unsigned long,IData *,std::less<unsigned long>,std::allocator<std::pair<unsigned long const ,IData *> >,0> >::const_iterator::_Mynode
  0005a	50		 push	 eax
  0005b	e8 00 00 00 00	 call	 ?_Key@?$_Tree@V?$_Tmap_traits@KPAVIData@@U?$less@K@std@@V?$allocator@U?$pair@$$CBKPAVIData@@@std@@@3@$0A@@std@@@std@@KAABKPAU_Node@?$_Tree_nod@V?$_Tmap_traits@KPAVIData@@U?$less@K@std@@V?$allocator@U?$pair@$$CBKPAVIData@@@std@@@3@$0A@@std@@@2@@Z ; std::_Tree<std::_Tmap_traits<unsigned long,IData *,std::less<unsigned long>,std::allocator<std::pair<unsigned long const ,IData *> >,0> >::_Key
  00060	83 c4 04	 add	 esp, 4
  00063	50		 push	 eax
  00064	8b 4d 0c	 mov	 ecx, DWORD PTR __Keyval$[ebp]
  00067	51		 push	 ecx
  00068	8b 4d fc	 mov	 ecx, DWORD PTR _this$[ebp]
  0006b	e8 00 00 00 00	 call	 ??R?$less@K@std@@QBE_NABK0@Z ; std::less<unsigned long>::operator()
  00070	0f b6 d0	 movzx	 edx, al
  00073	85 d2		 test	 edx, edx
  00075	75 08		 jne	 SHORT $L190258
  00077	8d 45 f4	 lea	 eax, DWORD PTR __Where$[ebp]
  0007a	89 45 e0	 mov	 DWORD PTR tv88[ebp], eax
  0007d	eb 0f		 jmp	 SHORT $L190260
$L190258:
  0007f	8d 4d e4	 lea	 ecx, DWORD PTR $T190259[ebp]
  00082	51		 push	 ecx
  00083	8b 4d fc	 mov	 ecx, DWORD PTR _this$[ebp]
  00086	e8 00 00 00 00	 call	 ?end@?$_Tree@V?$_Tmap_traits@KPAVIData@@U?$less@K@std@@V?$allocator@U?$pair@$$CBKPAVIData@@@std@@@3@$0A@@std@@@std@@QAE?AViterator@12@XZ ; std::_Tree<std::_Tmap_traits<unsigned long,IData *,std::less<unsigned long>,std::allocator<std::pair<unsigned long const ,IData *> >,0> >::end
  0008b	89 45 e0	 mov	 DWORD PTR tv88[ebp], eax
$L190260:
  0008e	8b 55 e0	 mov	 edx, DWORD PTR tv88[ebp]
  00091	89 55 ec	 mov	 DWORD PTR $T190256[ebp], edx
  00094	8b 45 ec	 mov	 eax, DWORD PTR $T190256[ebp]
  00097	8b 08		 mov	 ecx, DWORD PTR [eax]
  00099	8b 55 08	 mov	 edx, DWORD PTR ___$ReturnUdt$[ebp]
  0009c	89 0a		 mov	 DWORD PTR [edx], ecx
  0009e	8b 45 08	 mov	 eax, DWORD PTR ___$ReturnUdt$[ebp]

; 791  : 		}

  000a1	52		 push	 edx
  000a2	8b cd		 mov	 ecx, ebp
  000a4	50		 push	 eax
  000a5	8d 15 00 00 00
	00		 lea	 edx, DWORD PTR $L190263
  000ab	e8 00 00 00 00	 call	 @_RTC_CheckStackVars@8
  000b0	58		 pop	 eax
  000b1	5a		 pop	 edx
  000b2	83 c4 20	 add	 esp, 32			; 00000020H
  000b5	3b ec		 cmp	 ebp, esp
  000b7	e8 00 00 00 00	 call	 __RTC_CheckEsp
  000bc	8b e5		 mov	 esp, ebp
  000be	5d		 pop	 ebp
  000bf	c2 08 00	 ret	 8
$L190263:
  000c2	01 00 00 00	 DD	 1
  000c6	00 00 00 00	 DD	 $L190262
$L190262:
  000ca	f4 ff ff ff	 DD	 -12			; fffffff4H
  000ce	04 00 00 00	 DD	 4
  000d2	00 00 00 00	 DD	 $L190261
$L190261:
  000d6	5f		 DB	 95			; 0000005fH
  000d7	57		 DB	 87			; 00000057H
  000d8	68		 DB	 104			; 00000068H
  000d9	65		 DB	 101			; 00000065H
  000da	72		 DB	 114			; 00000072H
  000db	65		 DB	 101			; 00000065H
  000dc	00		 DB	 0
?find@?$_Tree@V?$_Tmap_traits@KPAVIData@@U?$less@K@std@@V?$allocator@U?$pair@$$CBKPAVIData@@@std@@@3@$0A@@std@@@std@@QAE?AViterator@12@ABK@Z ENDP ; std::_Tree<std::_Tmap_traits<unsigned long,IData *,std::less<unsigned long>,std::allocator<std::pair<unsigned long const ,IData *> >,0> >::find
; Function compile flags: /Odt /RTCsu
_TEXT	ENDS
;	COMDAT ??Citerator@?$_Tree@V?$_Tmap_traits@KPAVIData@@U?$less@K@std@@V?$allocator@U?$pair@$$CBKPAVIData@@@std@@@3@$0A@@std@@@std@@QBEPAU?$pair@$$CBKPAVIData@@@2@XZ
_TEXT	SEGMENT
_this$ = -4						; size = 4
??Citerator@?$_Tree@V?$_Tmap_traits@KPAVIData@@U?$less@K@std@@V?$allocator@U?$pair@$$CBKPAVIData@@@std@@@3@$0A@@std@@@std@@QBEPAU?$pair@$$CBKPAVIData@@@2@XZ PROC NEAR ; std::_Tree<std::_Tmap_traits<unsigned long,IData *,std::less<unsigned long>,std::allocator<std::pair<unsigned long const ,IData *> >,0> >::iterator::operator->, COMDAT
; _this$ = ecx

; 321  : 			{	// return pointer to class object

  00000	55		 push	 ebp
  00001	8b ec		 mov	 ebp, esp
  00003	51		 push	 ecx
  00004	c7 45 fc cc cc
	cc cc		 mov	 DWORD PTR [ebp-4], -858993460 ; ccccccccH
  0000b	89 4d fc	 mov	 DWORD PTR _this$[ebp], ecx

; 322  : 			return (&**this);

  0000e	8b 4d fc	 mov	 ecx, DWORD PTR _this$[ebp]
  00011	e8 00 00 00 00	 call	 ??Diterator@?$_Tree@V?$_Tmap_traits@KPAVIData@@U?$less@K@std@@V?$allocator@U?$pair@$$CBKPAVIData@@@std@@@3@$0A@@std@@@std@@QBEAAU?$pair@$$CBKPAVIData@@@2@XZ ; std::_Tree<std::_Tmap_traits<unsigned long,IData *,std::less<unsigned long>,std::allocator<std::pair<unsigned long const ,IData *> >,0> >::iterator::operator*

; 323  : 			}

  00016	83 c4 04	 add	 esp, 4
  00019	3b ec		 cmp	 ebp, esp
  0001b	e8 00 00 00 00	 call	 __RTC_CheckEsp
  00020	8b e5		 mov	 esp, ebp
  00022	5d		 pop	 ebp
  00023	c3		 ret	 0
??Citerator@?$_Tree@V?$_Tmap_traits@KPAVIData@@U?$less@K@std@@V?$allocator@U?$pair@$$CBKPAVIData@@@std@@@3@$0A@@std@@@std@@QBEPAU?$pair@$$CBKPAVIData@@@2@XZ ENDP ; std::_Tree<std::_Tmap_traits<unsigned long,IData *,std::less<unsigned long>,std::allocator<std::pair<unsigned long const ,IData *> >,0> >::iterator::operator->
_TEXT	ENDS
PUBLIC	??Eiterator@?$_Tree@V?$_Tmap_traits@KPAVIData@@U?$less@K@std@@V?$allocator@U?$pair@$$CBKPAVIData@@@std@@@3@$0A@@std@@@std@@QAEAAV012@XZ ; std::_Tree<std::_Tmap_traits<unsigned long,IData *,std::less<unsigned long>,std::allocator<std::pair<unsigned long const ,IData *> >,0> >::iterator::operator++
; Function compile flags: /Odt /RTCsu
;	COMDAT ??Eiterator@?$_Tree@V?$_Tmap_traits@KPAVIData@@U?$less@K@std@@V?$allocator@U?$pair@$$CBKPAVIData@@@std@@@3@$0A@@std@@@std@@QAE?AV012@H@Z
_TEXT	SEGMENT
__Tmp$ = -12						; size = 4
_this$ = -4						; size = 4
___$ReturnUdt$ = 8					; size = 4
___formal$ = 12						; size = 4
??Eiterator@?$_Tree@V?$_Tmap_traits@KPAVIData@@U?$less@K@std@@V?$allocator@U?$pair@$$CBKPAVIData@@@std@@@3@$0A@@std@@@std@@QAE?AV012@H@Z PROC NEAR ; std::_Tree<std::_Tmap_traits<unsigned long,IData *,std::less<unsigned long>,std::allocator<std::pair<unsigned long const ,IData *> >,0> >::iterator::operator++, COMDAT
; _this$ = ecx

; 332  : 			{	// postincrement

  00000	55		 push	 ebp
  00001	8b ec		 mov	 ebp, esp
  00003	83 ec 10	 sub	 esp, 16			; 00000010H
  00006	b8 cc cc cc cc	 mov	 eax, -858993460		; ccccccccH
  0000b	89 45 f0	 mov	 DWORD PTR [ebp-16], eax
  0000e	89 45 f4	 mov	 DWORD PTR [ebp-12], eax
  00011	89 45 f8	 mov	 DWORD PTR [ebp-8], eax
  00014	89 45 fc	 mov	 DWORD PTR [ebp-4], eax
  00017	89 4d fc	 mov	 DWORD PTR _this$[ebp], ecx

; 333  : 			iterator _Tmp = *this;

  0001a	8b 45 fc	 mov	 eax, DWORD PTR _this$[ebp]
  0001d	8b 08		 mov	 ecx, DWORD PTR [eax]
  0001f	89 4d f4	 mov	 DWORD PTR __Tmp$[ebp], ecx

; 334  : 			++*this;

  00022	8b 4d fc	 mov	 ecx, DWORD PTR _this$[ebp]
  00025	e8 00 00 00 00	 call	 ??Eiterator@?$_Tree@V?$_Tmap_traits@KPAVIData@@U?$less@K@std@@V?$allocator@U?$pair@$$CBKPAVIData@@@std@@@3@$0A@@std@@@std@@QAEAAV012@XZ ; std::_Tree<std::_Tmap_traits<unsigned long,IData *,std::less<unsigned long>,std::allocator<std::pair<unsigned long const ,IData *> >,0> >::iterator::operator++

; 335  : 			return (_Tmp);

  0002a	8b 55 08	 mov	 edx, DWORD PTR ___$ReturnUdt$[ebp]
  0002d	8b 45 f4	 mov	 eax, DWORD PTR __Tmp$[ebp]
  00030	89 02		 mov	 DWORD PTR [edx], eax
  00032	8b 45 08	 mov	 eax, DWORD PTR ___$ReturnUdt$[ebp]

; 336  : 			}

  00035	52		 push	 edx
  00036	8b cd		 mov	 ecx, ebp
  00038	50		 push	 eax
  00039	8d 15 00 00 00
	00		 lea	 edx, DWORD PTR $L190268
  0003f	e8 00 00 00 00	 call	 @_RTC_CheckStackVars@8
  00044	58		 pop	 eax
  00045	5a		 pop	 edx
  00046	83 c4 10	 add	 esp, 16			; 00000010H
  00049	3b ec		 cmp	 ebp, esp
  0004b	e8 00 00 00 00	 call	 __RTC_CheckEsp
  00050	8b e5		 mov	 esp, ebp
  00052	5d		 pop	 ebp
  00053	c2 08 00	 ret	 8
$L190268:
  00056	01 00 00 00	 DD	 1
  0005a	00 00 00 00	 DD	 $L190267
$L190267:
  0005e	f4 ff ff ff	 DD	 -12			; fffffff4H
  00062	04 00 00 00	 DD	 4
  00066	00 00 00 00	 DD	 $L190266
$L190266:
  0006a	5f		 DB	 95			; 0000005fH
  0006b	54		 DB	 84			; 00000054H
  0006c	6d		 DB	 109			; 0000006dH
  0006d	70		 DB	 112			; 00000070H
  0006e	00		 DB	 0
??Eiterator@?$_Tree@V?$_Tmap_traits@KPAVIData@@U?$less@K@std@@V?$allocator@U?$pair@$$CBKPAVIData@@@std@@@3@$0A@@std@@@std@@QAE?AV012@H@Z ENDP ; std::_Tree<std::_Tmap_traits<unsigned long,IData *,std::less<unsigned long>,std::allocator<std::pair<unsigned long const ,IData *> >,0> >::iterator::operator++
; Function compile flags: /Odt /RTCsu
_TEXT	ENDS
;	COMDAT ??8const_iterator@?$_Tree@V?$_Tmap_traits@KPAVIData@@U?$less@K@std@@V?$allocator@U?$pair@$$CBKPAVIData@@@std@@@3@$0A@@std@@@std@@QBE_NABV012@@Z
_TEXT	SEGMENT
_this$ = -4						; size = 4
__Right$ = 8						; size = 4
??8const_iterator@?$_Tree@V?$_Tmap_traits@KPAVIData@@U?$less@K@std@@V?$allocator@U?$pair@$$CBKPAVIData@@@std@@@3@$0A@@std@@@std@@QBE_NABV012@@Z PROC NEAR ; std::_Tree<std::_Tmap_traits<unsigned long,IData *,std::less<unsigned long>,std::allocator<std::pair<unsigned long const ,IData *> >,0> >::const_iterator::operator==, COMDAT
; _this$ = ecx

; 240  : 			{	// test for iterator equality

  00000	55		 push	 ebp
  00001	8b ec		 mov	 ebp, esp
  00003	51		 push	 ecx
  00004	c7 45 fc cc cc
	cc cc		 mov	 DWORD PTR [ebp-4], -858993460 ; ccccccccH
  0000b	89 4d fc	 mov	 DWORD PTR _this$[ebp], ecx

; 241  : 			return (_Ptr == _Right._Ptr);

  0000e	8b 45 fc	 mov	 eax, DWORD PTR _this$[ebp]
  00011	8b 4d 08	 mov	 ecx, DWORD PTR __Right$[ebp]
  00014	8b 00		 mov	 eax, DWORD PTR [eax]
  00016	2b 01		 sub	 eax, DWORD PTR [ecx]
  00018	f7 d8		 neg	 eax
  0001a	1b c0		 sbb	 eax, eax
  0001c	40		 inc	 eax

; 242  : 			}

  0001d	8b e5		 mov	 esp, ebp
  0001f	5d		 pop	 ebp
  00020	c2 04 00	 ret	 4
??8const_iterator@?$_Tree@V?$_Tmap_traits@KPAVIData@@U?$less@K@std@@V?$allocator@U?$pair@$$CBKPAVIData@@@std@@@3@$0A@@std@@@std@@QBE_NABV012@@Z ENDP ; std::_Tree<std::_Tmap_traits<unsigned long,IData *,std::less<unsigned long>,std::allocator<std::pair<unsigned long const ,IData *> >,0> >::const_iterator::operator==
; Function compile flags: /Odt /RTCsu
_TEXT	ENDS
;	COMDAT ??9const_iterator@?$_Tree@V?$_Tmap_traits@KPAVIData@@U?$less@K@std@@V?$allocator@U?$pair@$$CBKPAVIData@@@std@@@3@$0A@@std@@@std@@QBE_NABV012@@Z
_TEXT	SEGMENT
_this$ = -4						; size = 4
__Right$ = 8						; size = 4
??9const_iterator@?$_Tree@V?$_Tmap_traits@KPAVIData@@U?$less@K@std@@V?$allocator@U?$pair@$$CBKPAVIData@@@std@@@3@$0A@@std@@@std@@QBE_NABV012@@Z PROC NEAR ; std::_Tree<std::_Tmap_traits<unsigned long,IData *,std::less<unsigned long>,std::allocator<std::pair<unsigned long const ,IData *> >,0> >::const_iterator::operator!=, COMDAT
; _this$ = ecx

; 245  : 			{	// test for iterator inequality

  00000	55		 push	 ebp
  00001	8b ec		 mov	 ebp, esp
  00003	51		 push	 ecx
  00004	c7 45 fc cc cc
	cc cc		 mov	 DWORD PTR [ebp-4], -858993460 ; ccccccccH
  0000b	89 4d fc	 mov	 DWORD PTR _this$[ebp], ecx

; 246  : 			return (!(*this == _Right));

  0000e	8b 45 08	 mov	 eax, DWORD PTR __Right$[ebp]
  00011	50		 push	 eax
  00012	8b 4d fc	 mov	 ecx, DWORD PTR _this$[ebp]
  00015	e8 00 00 00 00	 call	 ??8const_iterator@?$_Tree@V?$_Tmap_traits@KPAVIData@@U?$less@K@std@@V?$allocator@U?$pair@$$CBKPAVIData@@@std@@@3@$0A@@std@@@std@@QBE_NABV012@@Z ; std::_Tree<std::_Tmap_traits<unsigned long,IData *,std::less<unsigned long>,std::allocator<std::pair<unsigned long const ,IData *> >,0> >::const_iterator::operator==
  0001a	0f b6 c0	 movzx	 eax, al
  0001d	f7 d8		 neg	 eax
  0001f	1b c0		 sbb	 eax, eax
  00021	40		 inc	 eax

; 247  : 			}

  00022	83 c4 04	 add	 esp, 4
  00025	3b ec		 cmp	 ebp, esp
  00027	e8 00 00 00 00	 call	 __RTC_CheckEsp
  0002c	8b e5		 mov	 esp, ebp
  0002e	5d		 pop	 ebp
  0002f	c2 04 00	 ret	 4
??9const_iterator@?$_Tree@V?$_Tmap_traits@KPAVIData@@U?$less@K@std@@V?$allocator@U?$pair@$$CBKPAVIData@@@std@@@3@$0A@@std@@@std@@QBE_NABV012@@Z ENDP ; std::_Tree<std::_Tmap_traits<unsigned long,IData *,std::less<unsigned long>,std::allocator<std::pair<unsigned long const ,IData *> >,0> >::const_iterator::operator!=
_TEXT	ENDS
PUBLIC	?_Kfn@?$_Tmap_traits@KPAVIData@@U?$less@K@std@@V?$allocator@U?$pair@$$CBKPAVIData@@@std@@@3@$0A@@std@@SAABKABU?$pair@$$CBKPAVIData@@@2@@Z ; std::_Tmap_traits<unsigned long,IData *,std::less<unsigned long>,std::allocator<std::pair<unsigned long const ,IData *> >,0>::_Kfn
PUBLIC	?_Myval@?$_Tree@V?$_Tmap_traits@KPAVIData@@U?$less@K@std@@V?$allocator@U?$pair@$$CBKPAVIData@@@std@@@3@$0A@@std@@@std@@KAAAU?$pair@$$CBKPAVIData@@@2@PAU_Node@?$_Tree_nod@V?$_Tmap_traits@KPAVIData@@U?$less@K@std@@V?$allocator@U?$pair@$$CBKPAVIData@@@std@@@3@$0A@@std@@@2@@Z ; std::_Tree<std::_Tmap_traits<unsigned long,IData *,std::less<unsigned long>,std::allocator<std::pair<unsigned long const ,IData *> >,0> >::_Myval
; Function compile flags: /Odt /RTCsu
;	COMDAT ?_Key@?$_Tree@V?$_Tmap_traits@KPAVIData@@U?$less@K@std@@V?$allocator@U?$pair@$$CBKPAVIData@@@std@@@3@$0A@@std@@@std@@KAABKPAU_Node@?$_Tree_nod@V?$_Tmap_traits@KPAVIData@@U?$less@K@std@@V?$allocator@U?$pair@$$CBKPAVIData@@@std@@@3@$0A@@std@@@2@@Z
_TEXT	SEGMENT
__Pnode$ = 8						; size = 4
?_Key@?$_Tree@V?$_Tmap_traits@KPAVIData@@U?$less@K@std@@V?$allocator@U?$pair@$$CBKPAVIData@@@std@@@3@$0A@@std@@@std@@KAABKPAU_Node@?$_Tree_nod@V?$_Tmap_traits@KPAVIData@@U?$less@K@std@@V?$allocator@U?$pair@$$CBKPAVIData@@@std@@@3@$0A@@std@@@2@@Z PROC NEAR ; std::_Tree<std::_Tmap_traits<unsigned long,IData *,std::less<unsigned long>,std::allocator<std::pair<unsigned long const ,IData *> >,0> >::_Key, COMDAT

; 141  : 		{	// return reference to key in node

  00000	55		 push	 ebp
  00001	8b ec		 mov	 ebp, esp

; 142  : 		return (_Mybase::_Kfn(_Myval(_Pnode)));

  00003	8b 45 08	 mov	 eax, DWORD PTR __Pnode$[ebp]
  00006	50		 push	 eax
  00007	e8 00 00 00 00	 call	 ?_Myval@?$_Tree@V?$_Tmap_traits@KPAVIData@@U?$less@K@std@@V?$allocator@U?$pair@$$CBKPAVIData@@@std@@@3@$0A@@std@@@std@@KAAAU?$pair@$$CBKPAVIData@@@2@PAU_Node@?$_Tree_nod@V?$_Tmap_traits@KPAVIData@@U?$less@K@std@@V?$allocator@U?$pair@$$CBKPAVIData@@@std@@@3@$0A@@std@@@2@@Z ; std::_Tree<std::_Tmap_traits<unsigned long,IData *,std::less<unsigned long>,std::allocator<std::pair<unsigned long const ,IData *> >,0> >::_Myval
  0000c	83 c4 04	 add	 esp, 4
  0000f	50		 push	 eax
  00010	e8 00 00 00 00	 call	 ?_Kfn@?$_Tmap_traits@KPAVIData@@U?$less@K@std@@V?$allocator@U?$pair@$$CBKPAVIData@@@std@@@3@$0A@@std@@SAABKABU?$pair@$$CBKPAVIData@@@2@@Z ; std::_Tmap_traits<unsigned long,IData *,std::less<unsigned long>,std::allocator<std::pair<unsigned long const ,IData *> >,0>::_Kfn
  00015	83 c4 04	 add	 esp, 4

; 143  : 		}

  00018	3b ec		 cmp	 ebp, esp
  0001a	e8 00 00 00 00	 call	 __RTC_CheckEsp
  0001f	5d		 pop	 ebp
  00020	c3		 ret	 0
?_Key@?$_Tree@V?$_Tmap_traits@KPAVIData@@U?$less@K@std@@V?$allocator@U?$pair@$$CBKPAVIData@@@std@@@3@$0A@@std@@@std@@KAABKPAU_Node@?$_Tree_nod@V?$_Tmap_traits@KPAVIData@@U?$less@K@std@@V?$allocator@U?$pair@$$CBKPAVIData@@@std@@@3@$0A@@std@@@2@@Z ENDP ; std::_Tree<std::_Tmap_traits<unsigned long,IData *,std::less<unsigned long>,std::allocator<std::pair<unsigned long const ,IData *> >,0> >::_Key
_TEXT	ENDS
PUBLIC	??0?$allocator@U?$pair@$$CBKPAVIData@@@std@@@std@@QAE@ABV01@@Z ; std::allocator<std::pair<unsigned long const ,IData *> >::allocator<std::pair<unsigned long const ,IData *> >
PUBLIC	??0?$_Tree_val@V?$_Tmap_traits@KPAVIData@@U?$less@K@std@@V?$allocator@U?$pair@$$CBKPAVIData@@@std@@@3@$0A@@std@@@std@@IAE@ABU?$less@K@1@V?$allocator@U?$pair@$$CBKPAVIData@@@std@@@1@@Z ; std::_Tree_val<std::_Tmap_traits<unsigned long,IData *,std::less<unsigned long>,std::allocator<std::pair<unsigned long const ,IData *> >,0> >::_Tree_val<std::_Tmap_traits<unsigned long,IData *,std::less<unsigned long>,std::allocator<std::pair<unsigned long const ,IData *> >,0> >
PUBLIC	?_Init@?$_Tree@V?$_Tmap_traits@KPAVIData@@U?$less@K@std@@V?$allocator@U?$pair@$$CBKPAVIData@@@std@@@3@$0A@@std@@@std@@IAEXXZ ; std::_Tree<std::_Tmap_traits<unsigned long,IData *,std::less<unsigned long>,std::allocator<std::pair<unsigned long const ,IData *> >,0> >::_Init
; Function compile flags: /Odt /RTCsu
;	COMDAT ??0?$_Tree@V?$_Tmap_traits@KPAVIData@@U?$less@K@std@@V?$allocator@U?$pair@$$CBKPAVIData@@@std@@@3@$0A@@std@@@std@@QAE@ABU?$less@K@1@ABV?$allocator@U?$pair@$$CBKPAVIData@@@std@@@1@@Z
_TEXT	SEGMENT
_this$ = -4						; size = 4
__Parg$ = 8						; size = 4
__Al$ = 12						; size = 4
??0?$_Tree@V?$_Tmap_traits@KPAVIData@@U?$less@K@std@@V?$allocator@U?$pair@$$CBKPAVIData@@@std@@@3@$0A@@std@@@std@@QAE@ABU?$less@K@1@ABV?$allocator@U?$pair@$$CBKPAVIData@@@std@@@1@@Z PROC NEAR ; std::_Tree<std::_Tmap_traits<unsigned long,IData *,std::less<unsigned long>,std::allocator<std::pair<unsigned long const ,IData *> >,0> >::_Tree<std::_Tmap_traits<unsigned long,IData *,std::less<unsigned long>,std::allocator<std::pair<unsigned long const ,IData *> >,0> >, COMDAT
; _this$ = ecx

; 361  : 		{	// construct empty tree

  00000	55		 push	 ebp
  00001	8b ec		 mov	 ebp, esp
  00003	83 ec 08	 sub	 esp, 8
  00006	c7 45 f8 cc cc
	cc cc		 mov	 DWORD PTR [ebp-8], -858993460 ; ccccccccH
  0000d	c7 45 fc cc cc
	cc cc		 mov	 DWORD PTR [ebp-4], -858993460 ; ccccccccH
  00014	89 4d fc	 mov	 DWORD PTR _this$[ebp], ecx
  00017	51		 push	 ecx
  00018	8b cc		 mov	 ecx, esp
  0001a	8b 45 0c	 mov	 eax, DWORD PTR __Al$[ebp]
  0001d	50		 push	 eax
  0001e	e8 00 00 00 00	 call	 ??0?$allocator@U?$pair@$$CBKPAVIData@@@std@@@std@@QAE@ABV01@@Z ; std::allocator<std::pair<unsigned long const ,IData *> >::allocator<std::pair<unsigned long const ,IData *> >
  00023	8b 4d 08	 mov	 ecx, DWORD PTR __Parg$[ebp]
  00026	51		 push	 ecx
  00027	8b 4d fc	 mov	 ecx, DWORD PTR _this$[ebp]
  0002a	e8 00 00 00 00	 call	 ??0?$_Tree_val@V?$_Tmap_traits@KPAVIData@@U?$less@K@std@@V?$allocator@U?$pair@$$CBKPAVIData@@@std@@@3@$0A@@std@@@std@@IAE@ABU?$less@K@1@V?$allocator@U?$pair@$$CBKPAVIData@@@std@@@1@@Z ; std::_Tree_val<std::_Tmap_traits<unsigned long,IData *,std::less<unsigned long>,std::allocator<std::pair<unsigned long const ,IData *> >,0> >::_Tree_val<std::_Tmap_traits<unsigned long,IData *,std::less<unsigned long>,std::allocator<std::pair<unsigned long const ,IData *> >,0> >

; 362  : 		_Init();

  0002f	8b 4d fc	 mov	 ecx, DWORD PTR _this$[ebp]
  00032	e8 00 00 00 00	 call	 ?_Init@?$_Tree@V?$_Tmap_traits@KPAVIData@@U?$less@K@std@@V?$allocator@U?$pair@$$CBKPAVIData@@@std@@@3@$0A@@std@@@std@@IAEXXZ ; std::_Tree<std::_Tmap_traits<unsigned long,IData *,std::less<unsigned long>,std::allocator<std::pair<unsigned long const ,IData *> >,0> >::_Init

; 363  : 		}

  00037	8b 45 fc	 mov	 eax, DWORD PTR _this$[ebp]
  0003a	83 c4 08	 add	 esp, 8
  0003d	3b ec		 cmp	 ebp, esp
  0003f	e8 00 00 00 00	 call	 __RTC_CheckEsp
  00044	8b e5		 mov	 esp, ebp
  00046	5d		 pop	 ebp
  00047	c2 08 00	 ret	 8
??0?$_Tree@V?$_Tmap_traits@KPAVIData@@U?$less@K@std@@V?$allocator@U?$pair@$$CBKPAVIData@@@std@@@3@$0A@@std@@@std@@QAE@ABU?$less@K@1@ABV?$allocator@U?$pair@$$CBKPAVIData@@@std@@@1@@Z ENDP ; std::_Tree<std::_Tmap_traits<unsigned long,IData *,std::less<unsigned long>,std::allocator<std::pair<unsigned long const ,IData *> >,0> >::_Tree<std::_Tmap_traits<unsigned long,IData *,std::less<unsigned long>,std::allocator<std::pair<unsigned long const ,IData *> >,0> >
_TEXT	ENDS
PUBLIC	??0iterator@?$_Tree@V?$_Tmap_traits@KPAVIData@@U?$less@K@std@@V?$allocator@U?$pair@$$CBKPAVIData@@@std@@@3@$0A@@std@@@std@@QAE@XZ ; std::_Tree<std::_Tmap_traits<unsigned long,IData *,std::less<unsigned long>,std::allocator<std::pair<unsigned long const ,IData *> >,0> >::iterator::iterator
PUBLIC	??Fiterator@?$_Tree@V?$_Tmap_traits@KPAVIData@@U?$less@K@std@@V?$allocator@U?$pair@$$CBKPAVIData@@@std@@@3@$0A@@std@@@std@@QAEAAV012@XZ ; std::_Tree<std::_Tmap_traits<unsigned long,IData *,std::less<unsigned long>,std::allocator<std::pair<unsigned long const ,IData *> >,0> >::iterator::operator--
PUBLIC	?_Isnil@?$_Tree@V?$_Tmap_traits@KPAVIData@@U?$less@K@std@@V?$allocator@U?$pair@$$CBKPAVIData@@@std@@@3@$0A@@std@@@std@@KAAADPAU_Node@?$_Tree_nod@V?$_Tmap_traits@KPAVIData@@U?$less@K@std@@V?$allocator@U?$pair@$$CBKPAVIData@@@std@@@3@$0A@@std@@@2@@Z ; std::_Tree<std::_Tmap_traits<unsigned long,IData *,std::less<unsigned long>,std::allocator<std::pair<unsigned long const ,IData *> >,0> >::_Isnil
PUBLIC	?_Right@?$_Tree@V?$_Tmap_traits@KPAVIData@@U?$less@K@std@@V?$allocator@U?$pair@$$CBKPAVIData@@@std@@@3@$0A@@std@@@std@@KAAAPAU_Node@?$_Tree_nod@V?$_Tmap_traits@KPAVIData@@U?$less@K@std@@V?$allocator@U?$pair@$$CBKPAVIData@@@std@@@3@$0A@@std@@@2@PAU342@@Z ; std::_Tree<std::_Tmap_traits<unsigned long,IData *,std::less<unsigned long>,std::allocator<std::pair<unsigned long const ,IData *> >,0> >::_Right
PUBLIC	?size@?$_Tree@V?$_Tmap_traits@KPAVIData@@U?$less@K@std@@V?$allocator@U?$pair@$$CBKPAVIData@@@std@@@3@$0A@@std@@@std@@QBEIXZ ; std::_Tree<std::_Tmap_traits<unsigned long,IData *,std::less<unsigned long>,std::allocator<std::pair<unsigned long const ,IData *> >,0> >::size
PUBLIC	?insert@?$_Tree@V?$_Tmap_traits@KPAVIData@@U?$less@K@std@@V?$allocator@U?$pair@$$CBKPAVIData@@@std@@@3@$0A@@std@@@std@@QAE?AU?$pair@Viterator@?$_Tree@V?$_Tmap_traits@KPAVIData@@U?$less@K@std@@V?$allocator@U?$pair@$$CBKPAVIData@@@std@@@3@$0A@@std@@@std@@_N@2@ABU?$pair@$$CBKPAVIData@@@2@@Z ; std::_Tree<std::_Tmap_traits<unsigned long,IData *,std::less<unsigned long>,std::allocator<std::pair<unsigned long const ,IData *> >,0> >::insert
PUBLIC	?_Insert@?$_Tree@V?$_Tmap_traits@KPAVIData@@U?$less@K@std@@V?$allocator@U?$pair@$$CBKPAVIData@@@std@@@3@$0A@@std@@@std@@IAE?AViterator@12@_NPAU_Node@?$_Tree_nod@V?$_Tmap_traits@KPAVIData@@U?$less@K@std@@V?$allocator@U?$pair@$$CBKPAVIData@@@std@@@3@$0A@@std@@@2@ABU?$pair@$$CBKPAVIData@@@2@@Z ; std::_Tree<std::_Tmap_traits<unsigned long,IData *,std::less<unsigned long>,std::allocator<std::pair<unsigned long const ,IData *> >,0> >::_Insert
; Function compile flags: /Odt /RTCsu
;	COMDAT ?insert@?$_Tree@V?$_Tmap_traits@KPAVIData@@U?$less@K@std@@V?$allocator@U?$pair@$$CBKPAVIData@@@std@@@3@$0A@@std@@@std@@QAE?AViterator@12@V312@ABU?$pair@$$CBKPAVIData@@@2@@Z
_TEXT	SEGMENT
$T190281 = -48						; size = 8
$T190280 = -40						; size = 4
$T190279 = -36						; size = 4
$T190278 = -32						; size = 4
$T190277 = -28						; size = 4
$T190276 = -24						; size = 4
$T190275 = -20						; size = 4
__Next$ = -12						; size = 4
_this$ = -4						; size = 4
___$ReturnUdt$ = 8					; size = 4
__Where$ = 12						; size = 4
__Val$ = 16						; size = 4
?insert@?$_Tree@V?$_Tmap_traits@KPAVIData@@U?$less@K@std@@V?$allocator@U?$pair@$$CBKPAVIData@@@std@@@3@$0A@@std@@@std@@QAE?AViterator@12@V312@ABU?$pair@$$CBKPAVIData@@@2@@Z PROC NEAR ; std::_Tree<std::_Tmap_traits<unsigned long,IData *,std::less<unsigned long>,std::allocator<std::pair<unsigned long const ,IData *> >,0> >::insert, COMDAT
; _this$ = ecx

; 509  : 		{	// try to insert node with value _Val using _Where as a hint

  00000	55		 push	 ebp
  00001	8b ec		 mov	 ebp, esp
  00003	83 ec 30	 sub	 esp, 48			; 00000030H
  00006	57		 push	 edi
  00007	51		 push	 ecx
  00008	8d 7d d0	 lea	 edi, DWORD PTR [ebp-48]
  0000b	b9 0c 00 00 00	 mov	 ecx, 12			; 0000000cH
  00010	b8 cc cc cc cc	 mov	 eax, -858993460		; ccccccccH
  00015	f3 ab		 rep stosd
  00017	59		 pop	 ecx
  00018	89 4d fc	 mov	 DWORD PTR _this$[ebp], ecx

; 510  : 		iterator _Next;

  0001b	8d 4d f4	 lea	 ecx, DWORD PTR __Next$[ebp]
  0001e	e8 00 00 00 00	 call	 ??0iterator@?$_Tree@V?$_Tmap_traits@KPAVIData@@U?$less@K@std@@V?$allocator@U?$pair@$$CBKPAVIData@@@std@@@3@$0A@@std@@@std@@QAE@XZ ; std::_Tree<std::_Tmap_traits<unsigned long,IData *,std::less<unsigned long>,std::allocator<std::pair<unsigned long const ,IData *> >,0> >::iterator::iterator

; 511  : 
; 512  : 		if (size() == 0)

  00023	8b 4d fc	 mov	 ecx, DWORD PTR _this$[ebp]
  00026	e8 00 00 00 00	 call	 ?size@?$_Tree@V?$_Tmap_traits@KPAVIData@@U?$less@K@std@@V?$allocator@U?$pair@$$CBKPAVIData@@@std@@@3@$0A@@std@@@std@@QBEIXZ ; std::_Tree<std::_Tmap_traits<unsigned long,IData *,std::less<unsigned long>,std::allocator<std::pair<unsigned long const ,IData *> >,0> >::size
  0002b	85 c0		 test	 eax, eax
  0002d	75 21		 jne	 SHORT $L189101

; 513  : 			return (_Insert(true, _Myhead, _Val));	// insert into empty tree

  0002f	8b 45 10	 mov	 eax, DWORD PTR __Val$[ebp]
  00032	50		 push	 eax
  00033	8b 4d fc	 mov	 ecx, DWORD PTR _this$[ebp]
  00036	8b 51 04	 mov	 edx, DWORD PTR [ecx+4]
  00039	52		 push	 edx
  0003a	6a 01		 push	 1
  0003c	8b 45 08	 mov	 eax, DWORD PTR ___$ReturnUdt$[ebp]
  0003f	50		 push	 eax
  00040	8b 4d fc	 mov	 ecx, DWORD PTR _this$[ebp]
  00043	e8 00 00 00 00	 call	 ?_Insert@?$_Tree@V?$_Tmap_traits@KPAVIData@@U?$less@K@std@@V?$allocator@U?$pair@$$CBKPAVIData@@@std@@@3@$0A@@std@@@std@@IAE?AViterator@12@_NPAU_Node@?$_Tree_nod@V?$_Tmap_traits@KPAVIData@@U?$less@K@std@@V?$allocator@U?$pair@$$CBKPAVIData@@@std@@@3@$0A@@std@@@2@ABU?$pair@$$CBKPAVIData@@@2@@Z ; std::_Tree<std::_Tmap_traits<unsigned long,IData *,std::less<unsigned long>,std::allocator<std::pair<unsigned long const ,IData *> >,0> >::_Insert
  00048	8b 45 08	 mov	 eax, DWORD PTR ___$ReturnUdt$[ebp]
  0004b	e9 81 05 00 00	 jmp	 $L189099
$L189101:

; 514  : 		else if (this->_Multi)

  00050	33 c9		 xor	 ecx, ecx
  00052	0f 84 b5 02 00
	00		 je	 $L189104

; 515  : 			{	// insert even if duplicate
; 516  : 			if (_Where == begin())

  00058	8d 55 ec	 lea	 edx, DWORD PTR $T190275[ebp]
  0005b	52		 push	 edx
  0005c	8b 4d fc	 mov	 ecx, DWORD PTR _this$[ebp]
  0005f	e8 00 00 00 00	 call	 ?begin@?$_Tree@V?$_Tmap_traits@KPAVIData@@U?$less@K@std@@V?$allocator@U?$pair@$$CBKPAVIData@@@std@@@3@$0A@@std@@@std@@QAE?AViterator@12@XZ ; std::_Tree<std::_Tmap_traits<unsigned long,IData *,std::less<unsigned long>,std::allocator<std::pair<unsigned long const ,IData *> >,0> >::begin
  00064	50		 push	 eax
  00065	8d 4d 0c	 lea	 ecx, DWORD PTR __Where$[ebp]
  00068	e8 00 00 00 00	 call	 ??8const_iterator@?$_Tree@V?$_Tmap_traits@KPAVIData@@U?$less@K@std@@V?$allocator@U?$pair@$$CBKPAVIData@@@std@@@3@$0A@@std@@@std@@QBE_NABV012@@Z ; std::_Tree<std::_Tmap_traits<unsigned long,IData *,std::less<unsigned long>,std::allocator<std::pair<unsigned long const ,IData *> >,0> >::const_iterator::operator==
  0006d	0f b6 c0	 movzx	 eax, al
  00070	85 c0		 test	 eax, eax
  00072	74 56		 je	 SHORT $L189106

; 517  : 				{	// insert at beginning if before first element
; 518  : 				if (!this->comp(_Key(_Where._Mynode()), this->_Kfn(_Val)))

  00074	8b 4d 10	 mov	 ecx, DWORD PTR __Val$[ebp]
  00077	51		 push	 ecx
  00078	e8 00 00 00 00	 call	 ?_Kfn@?$_Tmap_traits@KPAVIData@@U?$less@K@std@@V?$allocator@U?$pair@$$CBKPAVIData@@@std@@@3@$0A@@std@@SAABKABU?$pair@$$CBKPAVIData@@@2@@Z ; std::_Tmap_traits<unsigned long,IData *,std::less<unsigned long>,std::allocator<std::pair<unsigned long const ,IData *> >,0>::_Kfn
  0007d	83 c4 04	 add	 esp, 4
  00080	50		 push	 eax
  00081	8d 4d 0c	 lea	 ecx, DWORD PTR __Where$[ebp]
  00084	e8 00 00 00 00	 call	 ?_Mynode@const_iterator@?$_Tree@V?$_Tmap_traits@KPAVIData@@U?$less@K@std@@V?$allocator@U?$pair@$$CBKPAVIData@@@std@@@3@$0A@@std@@@std@@QBEPAU_Node@?$_Tree_nod@V?$_Tmap_traits@KPAVIData@@U?$less@K@std@@V?$allocator@U?$pair@$$CBKPAVIData@@@std@@@3@$0A@@std@@@3@XZ ; std::_Tree<std::_Tmap_traits<unsigned long,IData *,std::less<unsigned long>,std::allocator<std::pair<unsigned long const ,IData *> >,0> >::const_iterator::_Mynode
  00089	50		 push	 eax
  0008a	e8 00 00 00 00	 call	 ?_Key@?$_Tree@V?$_Tmap_traits@KPAVIData@@U?$less@K@std@@V?$allocator@U?$pair@$$CBKPAVIData@@@std@@@3@$0A@@std@@@std@@KAABKPAU_Node@?$_Tree_nod@V?$_Tmap_traits@KPAVIData@@U?$less@K@std@@V?$allocator@U?$pair@$$CBKPAVIData@@@std@@@3@$0A@@std@@@2@@Z ; std::_Tree<std::_Tmap_traits<unsigned long,IData *,std::less<unsigned long>,std::allocator<std::pair<unsigned long const ,IData *> >,0> >::_Key
  0008f	83 c4 04	 add	 esp, 4
  00092	50		 push	 eax
  00093	8b 4d fc	 mov	 ecx, DWORD PTR _this$[ebp]
  00096	e8 00 00 00 00	 call	 ??R?$less@K@std@@QBE_NABK0@Z ; std::less<unsigned long>::operator()
  0009b	0f b6 d0	 movzx	 edx, al
  0009e	85 d2		 test	 edx, edx
  000a0	75 23		 jne	 SHORT $L189107

; 519  : 					return (_Insert(true, _Where._Mynode(), _Val));

  000a2	8b 45 10	 mov	 eax, DWORD PTR __Val$[ebp]
  000a5	50		 push	 eax
  000a6	8d 4d 0c	 lea	 ecx, DWORD PTR __Where$[ebp]
  000a9	e8 00 00 00 00	 call	 ?_Mynode@const_iterator@?$_Tree@V?$_Tmap_traits@KPAVIData@@U?$less@K@std@@V?$allocator@U?$pair@$$CBKPAVIData@@@std@@@3@$0A@@std@@@std@@QBEPAU_Node@?$_Tree_nod@V?$_Tmap_traits@KPAVIData@@U?$less@K@std@@V?$allocator@U?$pair@$$CBKPAVIData@@@std@@@3@$0A@@std@@@3@XZ ; std::_Tree<std::_Tmap_traits<unsigned long,IData *,std::less<unsigned long>,std::allocator<std::pair<unsigned long const ,IData *> >,0> >::const_iterator::_Mynode
  000ae	50		 push	 eax
  000af	6a 01		 push	 1
  000b1	8b 4d 08	 mov	 ecx, DWORD PTR ___$ReturnUdt$[ebp]
  000b4	51		 push	 ecx
  000b5	8b 4d fc	 mov	 ecx, DWORD PTR _this$[ebp]
  000b8	e8 00 00 00 00	 call	 ?_Insert@?$_Tree@V?$_Tmap_traits@KPAVIData@@U?$less@K@std@@V?$allocator@U?$pair@$$CBKPAVIData@@@std@@@3@$0A@@std@@@std@@IAE?AViterator@12@_NPAU_Node@?$_Tree_nod@V?$_Tmap_traits@KPAVIData@@U?$less@K@std@@V?$allocator@U?$pair@$$CBKPAVIData@@@std@@@3@$0A@@std@@@2@ABU?$pair@$$CBKPAVIData@@@2@@Z ; std::_Tree<std::_Tmap_traits<unsigned long,IData *,std::less<unsigned long>,std::allocator<std::pair<unsigned long const ,IData *> >,0> >::_Insert
  000bd	8b 45 08	 mov	 eax, DWORD PTR ___$ReturnUdt$[ebp]
  000c0	e9 0c 05 00 00	 jmp	 $L189099
$L189107:

; 520  : 				}
; 521  : 			else if (_Where == end())

  000c5	e9 3e 02 00 00	 jmp	 $L189109
$L189106:
  000ca	8d 55 e8	 lea	 edx, DWORD PTR $T190276[ebp]
  000cd	52		 push	 edx
  000ce	8b 4d fc	 mov	 ecx, DWORD PTR _this$[ebp]
  000d1	e8 00 00 00 00	 call	 ?end@?$_Tree@V?$_Tmap_traits@KPAVIData@@U?$less@K@std@@V?$allocator@U?$pair@$$CBKPAVIData@@@std@@@3@$0A@@std@@@std@@QAE?AViterator@12@XZ ; std::_Tree<std::_Tmap_traits<unsigned long,IData *,std::less<unsigned long>,std::allocator<std::pair<unsigned long const ,IData *> >,0> >::end
  000d6	50		 push	 eax
  000d7	8d 4d 0c	 lea	 ecx, DWORD PTR __Where$[ebp]
  000da	e8 00 00 00 00	 call	 ??8const_iterator@?$_Tree@V?$_Tmap_traits@KPAVIData@@U?$less@K@std@@V?$allocator@U?$pair@$$CBKPAVIData@@@std@@@3@$0A@@std@@@std@@QBE_NABV012@@Z ; std::_Tree<std::_Tmap_traits<unsigned long,IData *,std::less<unsigned long>,std::allocator<std::pair<unsigned long const ,IData *> >,0> >::const_iterator::operator==
  000df	0f b6 c0	 movzx	 eax, al
  000e2	85 c0		 test	 eax, eax
  000e4	74 5a		 je	 SHORT $L189111

; 522  : 				{	// insert at end if after last element
; 523  : 				if (!this->comp(this->_Kfn(_Val), _Key(_Rmost())))

  000e6	8b 4d fc	 mov	 ecx, DWORD PTR _this$[ebp]
  000e9	e8 00 00 00 00	 call	 ?_Rmost@?$_Tree@V?$_Tmap_traits@KPAVIData@@U?$less@K@std@@V?$allocator@U?$pair@$$CBKPAVIData@@@std@@@3@$0A@@std@@@std@@IAEAAPAU_Node@?$_Tree_nod@V?$_Tmap_traits@KPAVIData@@U?$less@K@std@@V?$allocator@U?$pair@$$CBKPAVIData@@@std@@@3@$0A@@std@@@2@XZ ; std::_Tree<std::_Tmap_traits<unsigned long,IData *,std::less<unsigned long>,std::allocator<std::pair<unsigned long const ,IData *> >,0> >::_Rmost
  000ee	8b 08		 mov	 ecx, DWORD PTR [eax]
  000f0	51		 push	 ecx
  000f1	e8 00 00 00 00	 call	 ?_Key@?$_Tree@V?$_Tmap_traits@KPAVIData@@U?$less@K@std@@V?$allocator@U?$pair@$$CBKPAVIData@@@std@@@3@$0A@@std@@@std@@KAABKPAU_Node@?$_Tree_nod@V?$_Tmap_traits@KPAVIData@@U?$less@K@std@@V?$allocator@U?$pair@$$CBKPAVIData@@@std@@@3@$0A@@std@@@2@@Z ; std::_Tree<std::_Tmap_traits<unsigned long,IData *,std::less<unsigned long>,std::allocator<std::pair<unsigned long const ,IData *> >,0> >::_Key
  000f6	83 c4 04	 add	 esp, 4
  000f9	50		 push	 eax
  000fa	8b 55 10	 mov	 edx, DWORD PTR __Val$[ebp]
  000fd	52		 push	 edx
  000fe	e8 00 00 00 00	 call	 ?_Kfn@?$_Tmap_traits@KPAVIData@@U?$less@K@std@@V?$allocator@U?$pair@$$CBKPAVIData@@@std@@@3@$0A@@std@@SAABKABU?$pair@$$CBKPAVIData@@@2@@Z ; std::_Tmap_traits<unsigned long,IData *,std::less<unsigned long>,std::allocator<std::pair<unsigned long const ,IData *> >,0>::_Kfn
  00103	83 c4 04	 add	 esp, 4
  00106	50		 push	 eax
  00107	8b 4d fc	 mov	 ecx, DWORD PTR _this$[ebp]
  0010a	e8 00 00 00 00	 call	 ??R?$less@K@std@@QBE_NABK0@Z ; std::less<unsigned long>::operator()
  0010f	0f b6 c0	 movzx	 eax, al
  00112	85 c0		 test	 eax, eax
  00114	75 25		 jne	 SHORT $L189112

; 524  : 					return (_Insert(false, _Rmost(), _Val));

  00116	8b 4d 10	 mov	 ecx, DWORD PTR __Val$[ebp]
  00119	51		 push	 ecx
  0011a	8b 4d fc	 mov	 ecx, DWORD PTR _this$[ebp]
  0011d	e8 00 00 00 00	 call	 ?_Rmost@?$_Tree@V?$_Tmap_traits@KPAVIData@@U?$less@K@std@@V?$allocator@U?$pair@$$CBKPAVIData@@@std@@@3@$0A@@std@@@std@@IAEAAPAU_Node@?$_Tree_nod@V?$_Tmap_traits@KPAVIData@@U?$less@K@std@@V?$allocator@U?$pair@$$CBKPAVIData@@@std@@@3@$0A@@std@@@2@XZ ; std::_Tree<std::_Tmap_traits<unsigned long,IData *,std::less<unsigned long>,std::allocator<std::pair<unsigned long const ,IData *> >,0> >::_Rmost
  00122	8b 10		 mov	 edx, DWORD PTR [eax]
  00124	52		 push	 edx
  00125	6a 00		 push	 0
  00127	8b 45 08	 mov	 eax, DWORD PTR ___$ReturnUdt$[ebp]
  0012a	50		 push	 eax
  0012b	8b 4d fc	 mov	 ecx, DWORD PTR _this$[ebp]
  0012e	e8 00 00 00 00	 call	 ?_Insert@?$_Tree@V?$_Tmap_traits@KPAVIData@@U?$less@K@std@@V?$allocator@U?$pair@$$CBKPAVIData@@@std@@@3@$0A@@std@@@std@@IAE?AViterator@12@_NPAU_Node@?$_Tree_nod@V?$_Tmap_traits@KPAVIData@@U?$less@K@std@@V?$allocator@U?$pair@$$CBKPAVIData@@@std@@@3@$0A@@std@@@2@ABU?$pair@$$CBKPAVIData@@@2@@Z ; std::_Tree<std::_Tmap_traits<unsigned long,IData *,std::less<unsigned long>,std::allocator<std::pair<unsigned long const ,IData *> >,0> >::_Insert
  00133	8b 45 08	 mov	 eax, DWORD PTR ___$ReturnUdt$[ebp]
  00136	e9 96 04 00 00	 jmp	 $L189099
$L189112:

; 525  : 				}
; 526  : 			else if (!this->comp(_Key(_Where._Mynode()), this->_Kfn(_Val))

  0013b	e9 c8 01 00 00	 jmp	 $L189109
$L189111:

; 527  : 				&& !this->comp(this->_Kfn(_Val),
; 528  : 					_Key((--(_Next = _Where))._Mynode())))

  00140	8b 4d 10	 mov	 ecx, DWORD PTR __Val$[ebp]
  00143	51		 push	 ecx
  00144	e8 00 00 00 00	 call	 ?_Kfn@?$_Tmap_traits@KPAVIData@@U?$less@K@std@@V?$allocator@U?$pair@$$CBKPAVIData@@@std@@@3@$0A@@std@@SAABKABU?$pair@$$CBKPAVIData@@@2@@Z ; std::_Tmap_traits<unsigned long,IData *,std::less<unsigned long>,std::allocator<std::pair<unsigned long const ,IData *> >,0>::_Kfn
  00149	83 c4 04	 add	 esp, 4
  0014c	50		 push	 eax
  0014d	8d 4d 0c	 lea	 ecx, DWORD PTR __Where$[ebp]
  00150	e8 00 00 00 00	 call	 ?_Mynode@const_iterator@?$_Tree@V?$_Tmap_traits@KPAVIData@@U?$less@K@std@@V?$allocator@U?$pair@$$CBKPAVIData@@@std@@@3@$0A@@std@@@std@@QBEPAU_Node@?$_Tree_nod@V?$_Tmap_traits@KPAVIData@@U?$less@K@std@@V?$allocator@U?$pair@$$CBKPAVIData@@@std@@@3@$0A@@std@@@3@XZ ; std::_Tree<std::_Tmap_traits<unsigned long,IData *,std::less<unsigned long>,std::allocator<std::pair<unsigned long const ,IData *> >,0> >::const_iterator::_Mynode
  00155	50		 push	 eax
  00156	e8 00 00 00 00	 call	 ?_Key@?$_Tree@V?$_Tmap_traits@KPAVIData@@U?$less@K@std@@V?$allocator@U?$pair@$$CBKPAVIData@@@std@@@3@$0A@@std@@@std@@KAABKPAU_Node@?$_Tree_nod@V?$_Tmap_traits@KPAVIData@@U?$less@K@std@@V?$allocator@U?$pair@$$CBKPAVIData@@@std@@@3@$0A@@std@@@2@@Z ; std::_Tree<std::_Tmap_traits<unsigned long,IData *,std::less<unsigned long>,std::allocator<std::pair<unsigned long const ,IData *> >,0> >::_Key
  0015b	83 c4 04	 add	 esp, 4
  0015e	50		 push	 eax
  0015f	8b 4d fc	 mov	 ecx, DWORD PTR _this$[ebp]
  00162	e8 00 00 00 00	 call	 ??R?$less@K@std@@QBE_NABK0@Z ; std::less<unsigned long>::operator()
  00167	0f b6 d0	 movzx	 edx, al
  0016a	85 d2		 test	 edx, edx
  0016c	0f 85 a4 00 00
	00		 jne	 $L189115
  00172	8b 45 0c	 mov	 eax, DWORD PTR __Where$[ebp]
  00175	89 45 f4	 mov	 DWORD PTR __Next$[ebp], eax
  00178	8d 4d f4	 lea	 ecx, DWORD PTR __Next$[ebp]
  0017b	e8 00 00 00 00	 call	 ??Fiterator@?$_Tree@V?$_Tmap_traits@KPAVIData@@U?$less@K@std@@V?$allocator@U?$pair@$$CBKPAVIData@@@std@@@3@$0A@@std@@@std@@QAEAAV012@XZ ; std::_Tree<std::_Tmap_traits<unsigned long,IData *,std::less<unsigned long>,std::allocator<std::pair<unsigned long const ,IData *> >,0> >::iterator::operator--
  00180	8b c8		 mov	 ecx, eax
  00182	e8 00 00 00 00	 call	 ?_Mynode@const_iterator@?$_Tree@V?$_Tmap_traits@KPAVIData@@U?$less@K@std@@V?$allocator@U?$pair@$$CBKPAVIData@@@std@@@3@$0A@@std@@@std@@QBEPAU_Node@?$_Tree_nod@V?$_Tmap_traits@KPAVIData@@U?$less@K@std@@V?$allocator@U?$pair@$$CBKPAVIData@@@std@@@3@$0A@@std@@@3@XZ ; std::_Tree<std::_Tmap_traits<unsigned long,IData *,std::less<unsigned long>,std::allocator<std::pair<unsigned long const ,IData *> >,0> >::const_iterator::_Mynode
  00187	50		 push	 eax
  00188	e8 00 00 00 00	 call	 ?_Key@?$_Tree@V?$_Tmap_traits@KPAVIData@@U?$less@K@std@@V?$allocator@U?$pair@$$CBKPAVIData@@@std@@@3@$0A@@std@@@std@@KAABKPAU_Node@?$_Tree_nod@V?$_Tmap_traits@KPAVIData@@U?$less@K@std@@V?$allocator@U?$pair@$$CBKPAVIData@@@std@@@3@$0A@@std@@@2@@Z ; std::_Tree<std::_Tmap_traits<unsigned long,IData *,std::less<unsigned long>,std::allocator<std::pair<unsigned long const ,IData *> >,0> >::_Key
  0018d	83 c4 04	 add	 esp, 4
  00190	50		 push	 eax
  00191	8b 4d 10	 mov	 ecx, DWORD PTR __Val$[ebp]
  00194	51		 push	 ecx
  00195	e8 00 00 00 00	 call	 ?_Kfn@?$_Tmap_traits@KPAVIData@@U?$less@K@std@@V?$allocator@U?$pair@$$CBKPAVIData@@@std@@@3@$0A@@std@@SAABKABU?$pair@$$CBKPAVIData@@@2@@Z ; std::_Tmap_traits<unsigned long,IData *,std::less<unsigned long>,std::allocator<std::pair<unsigned long const ,IData *> >,0>::_Kfn
  0019a	83 c4 04	 add	 esp, 4
  0019d	50		 push	 eax
  0019e	8b 4d fc	 mov	 ecx, DWORD PTR _this$[ebp]
  001a1	e8 00 00 00 00	 call	 ??R?$less@K@std@@QBE_NABK0@Z ; std::less<unsigned long>::operator()
  001a6	0f b6 d0	 movzx	 edx, al
  001a9	85 d2		 test	 edx, edx
  001ab	75 69		 jne	 SHORT $L189115

; 529  : 				{	// insert before _Where
; 530  : 				if (_Isnil(_Right(_Next._Mynode())))

  001ad	8d 4d f4	 lea	 ecx, DWORD PTR __Next$[ebp]
  001b0	e8 00 00 00 00	 call	 ?_Mynode@const_iterator@?$_Tree@V?$_Tmap_traits@KPAVIData@@U?$less@K@std@@V?$allocator@U?$pair@$$CBKPAVIData@@@std@@@3@$0A@@std@@@std@@QBEPAU_Node@?$_Tree_nod@V?$_Tmap_traits@KPAVIData@@U?$less@K@std@@V?$allocator@U?$pair@$$CBKPAVIData@@@std@@@3@$0A@@std@@@3@XZ ; std::_Tree<std::_Tmap_traits<unsigned long,IData *,std::less<unsigned long>,std::allocator<std::pair<unsigned long const ,IData *> >,0> >::const_iterator::_Mynode
  001b5	50		 push	 eax
  001b6	e8 00 00 00 00	 call	 ?_Right@?$_Tree@V?$_Tmap_traits@KPAVIData@@U?$less@K@std@@V?$allocator@U?$pair@$$CBKPAVIData@@@std@@@3@$0A@@std@@@std@@KAAAPAU_Node@?$_Tree_nod@V?$_Tmap_traits@KPAVIData@@U?$less@K@std@@V?$allocator@U?$pair@$$CBKPAVIData@@@std@@@3@$0A@@std@@@2@PAU342@@Z ; std::_Tree<std::_Tmap_traits<unsigned long,IData *,std::less<unsigned long>,std::allocator<std::pair<unsigned long const ,IData *> >,0> >::_Right
  001bb	83 c4 04	 add	 esp, 4
  001be	8b 00		 mov	 eax, DWORD PTR [eax]
  001c0	50		 push	 eax
  001c1	e8 00 00 00 00	 call	 ?_Isnil@?$_Tree@V?$_Tmap_traits@KPAVIData@@U?$less@K@std@@V?$allocator@U?$pair@$$CBKPAVIData@@@std@@@3@$0A@@std@@@std@@KAAADPAU_Node@?$_Tree_nod@V?$_Tmap_traits@KPAVIData@@U?$less@K@std@@V?$allocator@U?$pair@$$CBKPAVIData@@@std@@@3@$0A@@std@@@2@@Z ; std::_Tree<std::_Tmap_traits<unsigned long,IData *,std::less<unsigned long>,std::allocator<std::pair<unsigned long const ,IData *> >,0> >::_Isnil
  001c6	83 c4 04	 add	 esp, 4
  001c9	0f be 08	 movsx	 ecx, BYTE PTR [eax]
  001cc	85 c9		 test	 ecx, ecx
  001ce	74 23		 je	 SHORT $L189116

; 531  : 					return (_Insert(false, _Next._Mynode(), _Val));

  001d0	8b 55 10	 mov	 edx, DWORD PTR __Val$[ebp]
  001d3	52		 push	 edx
  001d4	8d 4d f4	 lea	 ecx, DWORD PTR __Next$[ebp]
  001d7	e8 00 00 00 00	 call	 ?_Mynode@const_iterator@?$_Tree@V?$_Tmap_traits@KPAVIData@@U?$less@K@std@@V?$allocator@U?$pair@$$CBKPAVIData@@@std@@@3@$0A@@std@@@std@@QBEPAU_Node@?$_Tree_nod@V?$_Tmap_traits@KPAVIData@@U?$less@K@std@@V?$allocator@U?$pair@$$CBKPAVIData@@@std@@@3@$0A@@std@@@3@XZ ; std::_Tree<std::_Tmap_traits<unsigned long,IData *,std::less<unsigned long>,std::allocator<std::pair<unsigned long const ,IData *> >,0> >::const_iterator::_Mynode
  001dc	50		 push	 eax
  001dd	6a 00		 push	 0
  001df	8b 45 08	 mov	 eax, DWORD PTR ___$ReturnUdt$[ebp]
  001e2	50		 push	 eax
  001e3	8b 4d fc	 mov	 ecx, DWORD PTR _this$[ebp]
  001e6	e8 00 00 00 00	 call	 ?_Insert@?$_Tree@V?$_Tmap_traits@KPAVIData@@U?$less@K@std@@V?$allocator@U?$pair@$$CBKPAVIData@@@std@@@3@$0A@@std@@@std@@IAE?AViterator@12@_NPAU_Node@?$_Tree_nod@V?$_Tmap_traits@KPAVIData@@U?$less@K@std@@V?$allocator@U?$pair@$$CBKPAVIData@@@std@@@3@$0A@@std@@@2@ABU?$pair@$$CBKPAVIData@@@2@@Z ; std::_Tree<std::_Tmap_traits<unsigned long,IData *,std::less<unsigned long>,std::allocator<std::pair<unsigned long const ,IData *> >,0> >::_Insert
  001eb	8b 45 08	 mov	 eax, DWORD PTR ___$ReturnUdt$[ebp]
  001ee	e9 de 03 00 00	 jmp	 $L189099
$L189116:

; 532  : 				else
; 533  : 					return (_Insert(true, _Where._Mynode(), _Val));

  001f3	8b 4d 10	 mov	 ecx, DWORD PTR __Val$[ebp]
  001f6	51		 push	 ecx
  001f7	8d 4d 0c	 lea	 ecx, DWORD PTR __Where$[ebp]
  001fa	e8 00 00 00 00	 call	 ?_Mynode@const_iterator@?$_Tree@V?$_Tmap_traits@KPAVIData@@U?$less@K@std@@V?$allocator@U?$pair@$$CBKPAVIData@@@std@@@3@$0A@@std@@@std@@QBEPAU_Node@?$_Tree_nod@V?$_Tmap_traits@KPAVIData@@U?$less@K@std@@V?$allocator@U?$pair@$$CBKPAVIData@@@std@@@3@$0A@@std@@@3@XZ ; std::_Tree<std::_Tmap_traits<unsigned long,IData *,std::less<unsigned long>,std::allocator<std::pair<unsigned long const ,IData *> >,0> >::const_iterator::_Mynode
  001ff	50		 push	 eax
  00200	6a 01		 push	 1
  00202	8b 55 08	 mov	 edx, DWORD PTR ___$ReturnUdt$[ebp]
  00205	52		 push	 edx
  00206	8b 4d fc	 mov	 ecx, DWORD PTR _this$[ebp]
  00209	e8 00 00 00 00	 call	 ?_Insert@?$_Tree@V?$_Tmap_traits@KPAVIData@@U?$less@K@std@@V?$allocator@U?$pair@$$CBKPAVIData@@@std@@@3@$0A@@std@@@std@@IAE?AViterator@12@_NPAU_Node@?$_Tree_nod@V?$_Tmap_traits@KPAVIData@@U?$less@K@std@@V?$allocator@U?$pair@$$CBKPAVIData@@@std@@@3@$0A@@std@@@2@ABU?$pair@$$CBKPAVIData@@@2@@Z ; std::_Tree<std::_Tmap_traits<unsigned long,IData *,std::less<unsigned long>,std::allocator<std::pair<unsigned long const ,IData *> >,0> >::_Insert
  0020e	8b 45 08	 mov	 eax, DWORD PTR ___$ReturnUdt$[ebp]
  00211	e9 bb 03 00 00	 jmp	 $L189099
$L189115:

; 534  : 				}
; 535  : 			else if (!this->comp(this->_Kfn(_Val), _Key(_Where._Mynode()))
; 536  : 				&& (++(_Next = _Where) == end()
; 537  : 					|| !this->comp(_Key(_Next._Mynode()),
; 538  : 						this->_Kfn(_Val))))

  00216	8d 4d 0c	 lea	 ecx, DWORD PTR __Where$[ebp]
  00219	e8 00 00 00 00	 call	 ?_Mynode@const_iterator@?$_Tree@V?$_Tmap_traits@KPAVIData@@U?$less@K@std@@V?$allocator@U?$pair@$$CBKPAVIData@@@std@@@3@$0A@@std@@@std@@QBEPAU_Node@?$_Tree_nod@V?$_Tmap_traits@KPAVIData@@U?$less@K@std@@V?$allocator@U?$pair@$$CBKPAVIData@@@std@@@3@$0A@@std@@@3@XZ ; std::_Tree<std::_Tmap_traits<unsigned long,IData *,std::less<unsigned long>,std::allocator<std::pair<unsigned long const ,IData *> >,0> >::const_iterator::_Mynode
  0021e	50		 push	 eax
  0021f	e8 00 00 00 00	 call	 ?_Key@?$_Tree@V?$_Tmap_traits@KPAVIData@@U?$less@K@std@@V?$allocator@U?$pair@$$CBKPAVIData@@@std@@@3@$0A@@std@@@std@@KAABKPAU_Node@?$_Tree_nod@V?$_Tmap_traits@KPAVIData@@U?$less@K@std@@V?$allocator@U?$pair@$$CBKPAVIData@@@std@@@3@$0A@@std@@@2@@Z ; std::_Tree<std::_Tmap_traits<unsigned long,IData *,std::less<unsigned long>,std::allocator<std::pair<unsigned long const ,IData *> >,0> >::_Key
  00224	83 c4 04	 add	 esp, 4
  00227	50		 push	 eax
  00228	8b 45 10	 mov	 eax, DWORD PTR __Val$[ebp]
  0022b	50		 push	 eax
  0022c	e8 00 00 00 00	 call	 ?_Kfn@?$_Tmap_traits@KPAVIData@@U?$less@K@std@@V?$allocator@U?$pair@$$CBKPAVIData@@@std@@@3@$0A@@std@@SAABKABU?$pair@$$CBKPAVIData@@@2@@Z ; std::_Tmap_traits<unsigned long,IData *,std::less<unsigned long>,std::allocator<std::pair<unsigned long const ,IData *> >,0>::_Kfn
  00231	83 c4 04	 add	 esp, 4
  00234	50		 push	 eax
  00235	8b 4d fc	 mov	 ecx, DWORD PTR _this$[ebp]
  00238	e8 00 00 00 00	 call	 ??R?$less@K@std@@QBE_NABK0@Z ; std::less<unsigned long>::operator()
  0023d	0f b6 c8	 movzx	 ecx, al
  00240	85 c9		 test	 ecx, ecx
  00242	0f 85 c0 00 00
	00		 jne	 $L189109
  00248	8b 55 0c	 mov	 edx, DWORD PTR __Where$[ebp]
  0024b	89 55 f4	 mov	 DWORD PTR __Next$[ebp], edx
  0024e	8d 45 e4	 lea	 eax, DWORD PTR $T190277[ebp]
  00251	50		 push	 eax
  00252	8b 4d fc	 mov	 ecx, DWORD PTR _this$[ebp]
  00255	e8 00 00 00 00	 call	 ?end@?$_Tree@V?$_Tmap_traits@KPAVIData@@U?$less@K@std@@V?$allocator@U?$pair@$$CBKPAVIData@@@std@@@3@$0A@@std@@@std@@QAE?AViterator@12@XZ ; std::_Tree<std::_Tmap_traits<unsigned long,IData *,std::less<unsigned long>,std::allocator<std::pair<unsigned long const ,IData *> >,0> >::end
  0025a	50		 push	 eax
  0025b	8d 4d f4	 lea	 ecx, DWORD PTR __Next$[ebp]
  0025e	e8 00 00 00 00	 call	 ??Eiterator@?$_Tree@V?$_Tmap_traits@KPAVIData@@U?$less@K@std@@V?$allocator@U?$pair@$$CBKPAVIData@@@std@@@3@$0A@@std@@@std@@QAEAAV012@XZ ; std::_Tree<std::_Tmap_traits<unsigned long,IData *,std::less<unsigned long>,std::allocator<std::pair<unsigned long const ,IData *> >,0> >::iterator::operator++
  00263	8b c8		 mov	 ecx, eax
  00265	e8 00 00 00 00	 call	 ??8const_iterator@?$_Tree@V?$_Tmap_traits@KPAVIData@@U?$less@K@std@@V?$allocator@U?$pair@$$CBKPAVIData@@@std@@@3@$0A@@std@@@std@@QBE_NABV012@@Z ; std::_Tree<std::_Tmap_traits<unsigned long,IData *,std::less<unsigned long>,std::allocator<std::pair<unsigned long const ,IData *> >,0> >::const_iterator::operator==
  0026a	0f b6 c8	 movzx	 ecx, al
  0026d	85 c9		 test	 ecx, ecx
  0026f	75 2e		 jne	 SHORT $L189123
  00271	8b 55 10	 mov	 edx, DWORD PTR __Val$[ebp]
  00274	52		 push	 edx
  00275	e8 00 00 00 00	 call	 ?_Kfn@?$_Tmap_traits@KPAVIData@@U?$less@K@std@@V?$allocator@U?$pair@$$CBKPAVIData@@@std@@@3@$0A@@std@@SAABKABU?$pair@$$CBKPAVIData@@@2@@Z ; std::_Tmap_traits<unsigned long,IData *,std::less<unsigned long>,std::allocator<std::pair<unsigned long const ,IData *> >,0>::_Kfn
  0027a	83 c4 04	 add	 esp, 4
  0027d	50		 push	 eax
  0027e	8d 4d f4	 lea	 ecx, DWORD PTR __Next$[ebp]
  00281	e8 00 00 00 00	 call	 ?_Mynode@const_iterator@?$_Tree@V?$_Tmap_traits@KPAVIData@@U?$less@K@std@@V?$allocator@U?$pair@$$CBKPAVIData@@@std@@@3@$0A@@std@@@std@@QBEPAU_Node@?$_Tree_nod@V?$_Tmap_traits@KPAVIData@@U?$less@K@std@@V?$allocator@U?$pair@$$CBKPAVIData@@@std@@@3@$0A@@std@@@3@XZ ; std::_Tree<std::_Tmap_traits<unsigned long,IData *,std::less<unsigned long>,std::allocator<std::pair<unsigned long const ,IData *> >,0> >::const_iterator::_Mynode
  00286	50		 push	 eax
  00287	e8 00 00 00 00	 call	 ?_Key@?$_Tree@V?$_Tmap_traits@KPAVIData@@U?$less@K@std@@V?$allocator@U?$pair@$$CBKPAVIData@@@std@@@3@$0A@@std@@@std@@KAABKPAU_Node@?$_Tree_nod@V?$_Tmap_traits@KPAVIData@@U?$less@K@std@@V?$allocator@U?$pair@$$CBKPAVIData@@@std@@@3@$0A@@std@@@2@@Z ; std::_Tree<std::_Tmap_traits<unsigned long,IData *,std::less<unsigned long>,std::allocator<std::pair<unsigned long const ,IData *> >,0> >::_Key
  0028c	83 c4 04	 add	 esp, 4
  0028f	50		 push	 eax
  00290	8b 4d fc	 mov	 ecx, DWORD PTR _this$[ebp]
  00293	e8 00 00 00 00	 call	 ??R?$less@K@std@@QBE_NABK0@Z ; std::less<unsigned long>::operator()
  00298	0f b6 c0	 movzx	 eax, al
  0029b	85 c0		 test	 eax, eax
  0029d	75 69		 jne	 SHORT $L189109
$L189123:

; 539  : 				{	// insert after _Where
; 540  : 				if (_Isnil(_Right(_Where._Mynode())))

  0029f	8d 4d 0c	 lea	 ecx, DWORD PTR __Where$[ebp]
  002a2	e8 00 00 00 00	 call	 ?_Mynode@const_iterator@?$_Tree@V?$_Tmap_traits@KPAVIData@@U?$less@K@std@@V?$allocator@U?$pair@$$CBKPAVIData@@@std@@@3@$0A@@std@@@std@@QBEPAU_Node@?$_Tree_nod@V?$_Tmap_traits@KPAVIData@@U?$less@K@std@@V?$allocator@U?$pair@$$CBKPAVIData@@@std@@@3@$0A@@std@@@3@XZ ; std::_Tree<std::_Tmap_traits<unsigned long,IData *,std::less<unsigned long>,std::allocator<std::pair<unsigned long const ,IData *> >,0> >::const_iterator::_Mynode
  002a7	50		 push	 eax
  002a8	e8 00 00 00 00	 call	 ?_Right@?$_Tree@V?$_Tmap_traits@KPAVIData@@U?$less@K@std@@V?$allocator@U?$pair@$$CBKPAVIData@@@std@@@3@$0A@@std@@@std@@KAAAPAU_Node@?$_Tree_nod@V?$_Tmap_traits@KPAVIData@@U?$less@K@std@@V?$allocator@U?$pair@$$CBKPAVIData@@@std@@@3@$0A@@std@@@2@PAU342@@Z ; std::_Tree<std::_Tmap_traits<unsigned long,IData *,std::less<unsigned long>,std::allocator<std::pair<unsigned long const ,IData *> >,0> >::_Right
  002ad	83 c4 04	 add	 esp, 4
  002b0	8b 08		 mov	 ecx, DWORD PTR [eax]
  002b2	51		 push	 ecx
  002b3	e8 00 00 00 00	 call	 ?_Isnil@?$_Tree@V?$_Tmap_traits@KPAVIData@@U?$less@K@std@@V?$allocator@U?$pair@$$CBKPAVIData@@@std@@@3@$0A@@std@@@std@@KAAADPAU_Node@?$_Tree_nod@V?$_Tmap_traits@KPAVIData@@U?$less@K@std@@V?$allocator@U?$pair@$$CBKPAVIData@@@std@@@3@$0A@@std@@@2@@Z ; std::_Tree<std::_Tmap_traits<unsigned long,IData *,std::less<unsigned long>,std::allocator<std::pair<unsigned long const ,IData *> >,0> >::_Isnil
  002b8	83 c4 04	 add	 esp, 4
  002bb	0f be 10	 movsx	 edx, BYTE PTR [eax]
  002be	85 d2		 test	 edx, edx
  002c0	74 23		 je	 SHORT $L189124

; 541  : 					return (_Insert(false, _Where._Mynode(), _Val));

  002c2	8b 45 10	 mov	 eax, DWORD PTR __Val$[ebp]
  002c5	50		 push	 eax
  002c6	8d 4d 0c	 lea	 ecx, DWORD PTR __Where$[ebp]
  002c9	e8 00 00 00 00	 call	 ?_Mynode@const_iterator@?$_Tree@V?$_Tmap_traits@KPAVIData@@U?$less@K@std@@V?$allocator@U?$pair@$$CBKPAVIData@@@std@@@3@$0A@@std@@@std@@QBEPAU_Node@?$_Tree_nod@V?$_Tmap_traits@KPAVIData@@U?$less@K@std@@V?$allocator@U?$pair@$$CBKPAVIData@@@std@@@3@$0A@@std@@@3@XZ ; std::_Tree<std::_Tmap_traits<unsigned long,IData *,std::less<unsigned long>,std::allocator<std::pair<unsigned long const ,IData *> >,0> >::const_iterator::_Mynode
  002ce	50		 push	 eax
  002cf	6a 00		 push	 0
  002d1	8b 4d 08	 mov	 ecx, DWORD PTR ___$ReturnUdt$[ebp]
  002d4	51		 push	 ecx
  002d5	8b 4d fc	 mov	 ecx, DWORD PTR _this$[ebp]
  002d8	e8 00 00 00 00	 call	 ?_Insert@?$_Tree@V?$_Tmap_traits@KPAVIData@@U?$less@K@std@@V?$allocator@U?$pair@$$CBKPAVIData@@@std@@@3@$0A@@std@@@std@@IAE?AViterator@12@_NPAU_Node@?$_Tree_nod@V?$_Tmap_traits@KPAVIData@@U?$less@K@std@@V?$allocator@U?$pair@$$CBKPAVIData@@@std@@@3@$0A@@std@@@2@ABU?$pair@$$CBKPAVIData@@@2@@Z ; std::_Tree<std::_Tmap_traits<unsigned long,IData *,std::less<unsigned long>,std::allocator<std::pair<unsigned long const ,IData *> >,0> >::_Insert
  002dd	8b 45 08	 mov	 eax, DWORD PTR ___$ReturnUdt$[ebp]
  002e0	e9 ec 02 00 00	 jmp	 $L189099
$L189124:

; 542  : 				else
; 543  : 					return (_Insert(true, _Next._Mynode(), _Val));

  002e5	8b 55 10	 mov	 edx, DWORD PTR __Val$[ebp]
  002e8	52		 push	 edx
  002e9	8d 4d f4	 lea	 ecx, DWORD PTR __Next$[ebp]
  002ec	e8 00 00 00 00	 call	 ?_Mynode@const_iterator@?$_Tree@V?$_Tmap_traits@KPAVIData@@U?$less@K@std@@V?$allocator@U?$pair@$$CBKPAVIData@@@std@@@3@$0A@@std@@@std@@QBEPAU_Node@?$_Tree_nod@V?$_Tmap_traits@KPAVIData@@U?$less@K@std@@V?$allocator@U?$pair@$$CBKPAVIData@@@std@@@3@$0A@@std@@@3@XZ ; std::_Tree<std::_Tmap_traits<unsigned long,IData *,std::less<unsigned long>,std::allocator<std::pair<unsigned long const ,IData *> >,0> >::const_iterator::_Mynode
  002f1	50		 push	 eax
  002f2	6a 01		 push	 1
  002f4	8b 45 08	 mov	 eax, DWORD PTR ___$ReturnUdt$[ebp]
  002f7	50		 push	 eax
  002f8	8b 4d fc	 mov	 ecx, DWORD PTR _this$[ebp]
  002fb	e8 00 00 00 00	 call	 ?_Insert@?$_Tree@V?$_Tmap_traits@KPAVIData@@U?$less@K@std@@V?$allocator@U?$pair@$$CBKPAVIData@@@std@@@3@$0A@@std@@@std@@IAE?AViterator@12@_NPAU_Node@?$_Tree_nod@V?$_Tmap_traits@KPAVIData@@U?$less@K@std@@V?$allocator@U?$pair@$$CBKPAVIData@@@std@@@3@$0A@@std@@@2@ABU?$pair@$$CBKPAVIData@@@2@@Z ; std::_Tree<std::_Tmap_traits<unsigned long,IData *,std::less<unsigned long>,std::allocator<std::pair<unsigned long const ,IData *> >,0> >::_Insert
  00300	8b 45 08	 mov	 eax, DWORD PTR ___$ReturnUdt$[ebp]
  00303	e9 c9 02 00 00	 jmp	 $L189099
$L189109:

; 544  : 				}
; 545  : 			}
; 546  : 		else

  00308	e9 aa 02 00 00	 jmp	 $L189103
$L189104:

; 547  : 			{	// insert only if unique
; 548  : 			if (_Where == begin())

  0030d	8d 4d e0	 lea	 ecx, DWORD PTR $T190278[ebp]
  00310	51		 push	 ecx
  00311	8b 4d fc	 mov	 ecx, DWORD PTR _this$[ebp]
  00314	e8 00 00 00 00	 call	 ?begin@?$_Tree@V?$_Tmap_traits@KPAVIData@@U?$less@K@std@@V?$allocator@U?$pair@$$CBKPAVIData@@@std@@@3@$0A@@std@@@std@@QAE?AViterator@12@XZ ; std::_Tree<std::_Tmap_traits<unsigned long,IData *,std::less<unsigned long>,std::allocator<std::pair<unsigned long const ,IData *> >,0> >::begin
  00319	50		 push	 eax
  0031a	8d 4d 0c	 lea	 ecx, DWORD PTR __Where$[ebp]
  0031d	e8 00 00 00 00	 call	 ??8const_iterator@?$_Tree@V?$_Tmap_traits@KPAVIData@@U?$less@K@std@@V?$allocator@U?$pair@$$CBKPAVIData@@@std@@@3@$0A@@std@@@std@@QBE_NABV012@@Z ; std::_Tree<std::_Tmap_traits<unsigned long,IData *,std::less<unsigned long>,std::allocator<std::pair<unsigned long const ,IData *> >,0> >::const_iterator::operator==
  00322	0f b6 d0	 movzx	 edx, al
  00325	85 d2		 test	 edx, edx
  00327	74 56		 je	 SHORT $L189130

; 549  : 				{	// insert at beginning if before first element
; 550  : 				if (this->comp(this->_Kfn(_Val), _Key(_Where._Mynode())))

  00329	8d 4d 0c	 lea	 ecx, DWORD PTR __Where$[ebp]
  0032c	e8 00 00 00 00	 call	 ?_Mynode@const_iterator@?$_Tree@V?$_Tmap_traits@KPAVIData@@U?$less@K@std@@V?$allocator@U?$pair@$$CBKPAVIData@@@std@@@3@$0A@@std@@@std@@QBEPAU_Node@?$_Tree_nod@V?$_Tmap_traits@KPAVIData@@U?$less@K@std@@V?$allocator@U?$pair@$$CBKPAVIData@@@std@@@3@$0A@@std@@@3@XZ ; std::_Tree<std::_Tmap_traits<unsigned long,IData *,std::less<unsigned long>,std::allocator<std::pair<unsigned long const ,IData *> >,0> >::const_iterator::_Mynode
  00331	50		 push	 eax
  00332	e8 00 00 00 00	 call	 ?_Key@?$_Tree@V?$_Tmap_traits@KPAVIData@@U?$less@K@std@@V?$allocator@U?$pair@$$CBKPAVIData@@@std@@@3@$0A@@std@@@std@@KAABKPAU_Node@?$_Tree_nod@V?$_Tmap_traits@KPAVIData@@U?$less@K@std@@V?$allocator@U?$pair@$$CBKPAVIData@@@std@@@3@$0A@@std@@@2@@Z ; std::_Tree<std::_Tmap_traits<unsigned long,IData *,std::less<unsigned long>,std::allocator<std::pair<unsigned long const ,IData *> >,0> >::_Key
  00337	83 c4 04	 add	 esp, 4
  0033a	50		 push	 eax
  0033b	8b 45 10	 mov	 eax, DWORD PTR __Val$[ebp]
  0033e	50		 push	 eax
  0033f	e8 00 00 00 00	 call	 ?_Kfn@?$_Tmap_traits@KPAVIData@@U?$less@K@std@@V?$allocator@U?$pair@$$CBKPAVIData@@@std@@@3@$0A@@std@@SAABKABU?$pair@$$CBKPAVIData@@@2@@Z ; std::_Tmap_traits<unsigned long,IData *,std::less<unsigned long>,std::allocator<std::pair<unsigned long const ,IData *> >,0>::_Kfn
  00344	83 c4 04	 add	 esp, 4
  00347	50		 push	 eax
  00348	8b 4d fc	 mov	 ecx, DWORD PTR _this$[ebp]
  0034b	e8 00 00 00 00	 call	 ??R?$less@K@std@@QBE_NABK0@Z ; std::less<unsigned long>::operator()
  00350	0f b6 c8	 movzx	 ecx, al
  00353	85 c9		 test	 ecx, ecx
  00355	74 23		 je	 SHORT $L189131

; 551  : 					return (_Insert(true, _Where._Mynode(), _Val));

  00357	8b 55 10	 mov	 edx, DWORD PTR __Val$[ebp]
  0035a	52		 push	 edx
  0035b	8d 4d 0c	 lea	 ecx, DWORD PTR __Where$[ebp]
  0035e	e8 00 00 00 00	 call	 ?_Mynode@const_iterator@?$_Tree@V?$_Tmap_traits@KPAVIData@@U?$less@K@std@@V?$allocator@U?$pair@$$CBKPAVIData@@@std@@@3@$0A@@std@@@std@@QBEPAU_Node@?$_Tree_nod@V?$_Tmap_traits@KPAVIData@@U?$less@K@std@@V?$allocator@U?$pair@$$CBKPAVIData@@@std@@@3@$0A@@std@@@3@XZ ; std::_Tree<std::_Tmap_traits<unsigned long,IData *,std::less<unsigned long>,std::allocator<std::pair<unsigned long const ,IData *> >,0> >::const_iterator::_Mynode
  00363	50		 push	 eax
  00364	6a 01		 push	 1
  00366	8b 45 08	 mov	 eax, DWORD PTR ___$ReturnUdt$[ebp]
  00369	50		 push	 eax
  0036a	8b 4d fc	 mov	 ecx, DWORD PTR _this$[ebp]
  0036d	e8 00 00 00 00	 call	 ?_Insert@?$_Tree@V?$_Tmap_traits@KPAVIData@@U?$less@K@std@@V?$allocator@U?$pair@$$CBKPAVIData@@@std@@@3@$0A@@std@@@std@@IAE?AViterator@12@_NPAU_Node@?$_Tree_nod@V?$_Tmap_traits@KPAVIData@@U?$less@K@std@@V?$allocator@U?$pair@$$CBKPAVIData@@@std@@@3@$0A@@std@@@2@ABU?$pair@$$CBKPAVIData@@@2@@Z ; std::_Tree<std::_Tmap_traits<unsigned long,IData *,std::less<unsigned long>,std::allocator<std::pair<unsigned long const ,IData *> >,0> >::_Insert
  00372	8b 45 08	 mov	 eax, DWORD PTR ___$ReturnUdt$[ebp]
  00375	e9 57 02 00 00	 jmp	 $L189099
$L189131:

; 552  : 				}
; 553  : 			else if (_Where == end())

  0037a	e9 38 02 00 00	 jmp	 $L189103
$L189130:
  0037f	8d 4d dc	 lea	 ecx, DWORD PTR $T190279[ebp]
  00382	51		 push	 ecx
  00383	8b 4d fc	 mov	 ecx, DWORD PTR _this$[ebp]
  00386	e8 00 00 00 00	 call	 ?end@?$_Tree@V?$_Tmap_traits@KPAVIData@@U?$less@K@std@@V?$allocator@U?$pair@$$CBKPAVIData@@@std@@@3@$0A@@std@@@std@@QAE?AViterator@12@XZ ; std::_Tree<std::_Tmap_traits<unsigned long,IData *,std::less<unsigned long>,std::allocator<std::pair<unsigned long const ,IData *> >,0> >::end
  0038b	50		 push	 eax
  0038c	8d 4d 0c	 lea	 ecx, DWORD PTR __Where$[ebp]
  0038f	e8 00 00 00 00	 call	 ??8const_iterator@?$_Tree@V?$_Tmap_traits@KPAVIData@@U?$less@K@std@@V?$allocator@U?$pair@$$CBKPAVIData@@@std@@@3@$0A@@std@@@std@@QBE_NABV012@@Z ; std::_Tree<std::_Tmap_traits<unsigned long,IData *,std::less<unsigned long>,std::allocator<std::pair<unsigned long const ,IData *> >,0> >::const_iterator::operator==
  00394	0f b6 d0	 movzx	 edx, al
  00397	85 d2		 test	 edx, edx
  00399	74 5a		 je	 SHORT $L189135

; 554  : 				{	// insert at end if after last element
; 555  : 				if (this->comp(_Key(_Rmost()), this->_Kfn(_Val)))

  0039b	8b 45 10	 mov	 eax, DWORD PTR __Val$[ebp]
  0039e	50		 push	 eax
  0039f	e8 00 00 00 00	 call	 ?_Kfn@?$_Tmap_traits@KPAVIData@@U?$less@K@std@@V?$allocator@U?$pair@$$CBKPAVIData@@@std@@@3@$0A@@std@@SAABKABU?$pair@$$CBKPAVIData@@@2@@Z ; std::_Tmap_traits<unsigned long,IData *,std::less<unsigned long>,std::allocator<std::pair<unsigned long const ,IData *> >,0>::_Kfn
  003a4	83 c4 04	 add	 esp, 4
  003a7	50		 push	 eax
  003a8	8b 4d fc	 mov	 ecx, DWORD PTR _this$[ebp]
  003ab	e8 00 00 00 00	 call	 ?_Rmost@?$_Tree@V?$_Tmap_traits@KPAVIData@@U?$less@K@std@@V?$allocator@U?$pair@$$CBKPAVIData@@@std@@@3@$0A@@std@@@std@@IAEAAPAU_Node@?$_Tree_nod@V?$_Tmap_traits@KPAVIData@@U?$less@K@std@@V?$allocator@U?$pair@$$CBKPAVIData@@@std@@@3@$0A@@std@@@2@XZ ; std::_Tree<std::_Tmap_traits<unsigned long,IData *,std::less<unsigned long>,std::allocator<std::pair<unsigned long const ,IData *> >,0> >::_Rmost
  003b0	8b 08		 mov	 ecx, DWORD PTR [eax]
  003b2	51		 push	 ecx
  003b3	e8 00 00 00 00	 call	 ?_Key@?$_Tree@V?$_Tmap_traits@KPAVIData@@U?$less@K@std@@V?$allocator@U?$pair@$$CBKPAVIData@@@std@@@3@$0A@@std@@@std@@KAABKPAU_Node@?$_Tree_nod@V?$_Tmap_traits@KPAVIData@@U?$less@K@std@@V?$allocator@U?$pair@$$CBKPAVIData@@@std@@@3@$0A@@std@@@2@@Z ; std::_Tree<std::_Tmap_traits<unsigned long,IData *,std::less<unsigned long>,std::allocator<std::pair<unsigned long const ,IData *> >,0> >::_Key
  003b8	83 c4 04	 add	 esp, 4
  003bb	50		 push	 eax
  003bc	8b 4d fc	 mov	 ecx, DWORD PTR _this$[ebp]
  003bf	e8 00 00 00 00	 call	 ??R?$less@K@std@@QBE_NABK0@Z ; std::less<unsigned long>::operator()
  003c4	0f b6 d0	 movzx	 edx, al
  003c7	85 d2		 test	 edx, edx
  003c9	74 25		 je	 SHORT $L189136

; 556  : 					return (_Insert(false, _Rmost(), _Val));

  003cb	8b 45 10	 mov	 eax, DWORD PTR __Val$[ebp]
  003ce	50		 push	 eax
  003cf	8b 4d fc	 mov	 ecx, DWORD PTR _this$[ebp]
  003d2	e8 00 00 00 00	 call	 ?_Rmost@?$_Tree@V?$_Tmap_traits@KPAVIData@@U?$less@K@std@@V?$allocator@U?$pair@$$CBKPAVIData@@@std@@@3@$0A@@std@@@std@@IAEAAPAU_Node@?$_Tree_nod@V?$_Tmap_traits@KPAVIData@@U?$less@K@std@@V?$allocator@U?$pair@$$CBKPAVIData@@@std@@@3@$0A@@std@@@2@XZ ; std::_Tree<std::_Tmap_traits<unsigned long,IData *,std::less<unsigned long>,std::allocator<std::pair<unsigned long const ,IData *> >,0> >::_Rmost
  003d7	8b 08		 mov	 ecx, DWORD PTR [eax]
  003d9	51		 push	 ecx
  003da	6a 00		 push	 0
  003dc	8b 55 08	 mov	 edx, DWORD PTR ___$ReturnUdt$[ebp]
  003df	52		 push	 edx
  003e0	8b 4d fc	 mov	 ecx, DWORD PTR _this$[ebp]
  003e3	e8 00 00 00 00	 call	 ?_Insert@?$_Tree@V?$_Tmap_traits@KPAVIData@@U?$less@K@std@@V?$allocator@U?$pair@$$CBKPAVIData@@@std@@@3@$0A@@std@@@std@@IAE?AViterator@12@_NPAU_Node@?$_Tree_nod@V?$_Tmap_traits@KPAVIData@@U?$less@K@std@@V?$allocator@U?$pair@$$CBKPAVIData@@@std@@@3@$0A@@std@@@2@ABU?$pair@$$CBKPAVIData@@@2@@Z ; std::_Tree<std::_Tmap_traits<unsigned long,IData *,std::less<unsigned long>,std::allocator<std::pair<unsigned long const ,IData *> >,0> >::_Insert
  003e8	8b 45 08	 mov	 eax, DWORD PTR ___$ReturnUdt$[ebp]
  003eb	e9 e1 01 00 00	 jmp	 $L189099
$L189136:

; 557  : 				}
; 558  : 			else if (this->comp(this->_Kfn(_Val), _Key(_Where._Mynode()))

  003f0	e9 c2 01 00 00	 jmp	 $L189103
$L189135:

; 559  : 				&& this->comp(_Key((--(_Next = _Where))._Mynode()),
; 560  : 					this->_Kfn(_Val)))

  003f5	8d 4d 0c	 lea	 ecx, DWORD PTR __Where$[ebp]
  003f8	e8 00 00 00 00	 call	 ?_Mynode@const_iterator@?$_Tree@V?$_Tmap_traits@KPAVIData@@U?$less@K@std@@V?$allocator@U?$pair@$$CBKPAVIData@@@std@@@3@$0A@@std@@@std@@QBEPAU_Node@?$_Tree_nod@V?$_Tmap_traits@KPAVIData@@U?$less@K@std@@V?$allocator@U?$pair@$$CBKPAVIData@@@std@@@3@$0A@@std@@@3@XZ ; std::_Tree<std::_Tmap_traits<unsigned long,IData *,std::less<unsigned long>,std::allocator<std::pair<unsigned long const ,IData *> >,0> >::const_iterator::_Mynode
  003fd	50		 push	 eax
  003fe	e8 00 00 00 00	 call	 ?_Key@?$_Tree@V?$_Tmap_traits@KPAVIData@@U?$less@K@std@@V?$allocator@U?$pair@$$CBKPAVIData@@@std@@@3@$0A@@std@@@std@@KAABKPAU_Node@?$_Tree_nod@V?$_Tmap_traits@KPAVIData@@U?$less@K@std@@V?$allocator@U?$pair@$$CBKPAVIData@@@std@@@3@$0A@@std@@@2@@Z ; std::_Tree<std::_Tmap_traits<unsigned long,IData *,std::less<unsigned long>,std::allocator<std::pair<unsigned long const ,IData *> >,0> >::_Key
  00403	83 c4 04	 add	 esp, 4
  00406	50		 push	 eax
  00407	8b 45 10	 mov	 eax, DWORD PTR __Val$[ebp]
  0040a	50		 push	 eax
  0040b	e8 00 00 00 00	 call	 ?_Kfn@?$_Tmap_traits@KPAVIData@@U?$less@K@std@@V?$allocator@U?$pair@$$CBKPAVIData@@@std@@@3@$0A@@std@@SAABKABU?$pair@$$CBKPAVIData@@@2@@Z ; std::_Tmap_traits<unsigned long,IData *,std::less<unsigned long>,std::allocator<std::pair<unsigned long const ,IData *> >,0>::_Kfn
  00410	83 c4 04	 add	 esp, 4
  00413	50		 push	 eax
  00414	8b 4d fc	 mov	 ecx, DWORD PTR _this$[ebp]
  00417	e8 00 00 00 00	 call	 ??R?$less@K@std@@QBE_NABK0@Z ; std::less<unsigned long>::operator()
  0041c	0f b6 c8	 movzx	 ecx, al
  0041f	85 c9		 test	 ecx, ecx
  00421	0f 84 a4 00 00
	00		 je	 $L189139
  00427	8b 55 0c	 mov	 edx, DWORD PTR __Where$[ebp]
  0042a	89 55 f4	 mov	 DWORD PTR __Next$[ebp], edx
  0042d	8b 45 10	 mov	 eax, DWORD PTR __Val$[ebp]
  00430	50		 push	 eax
  00431	e8 00 00 00 00	 call	 ?_Kfn@?$_Tmap_traits@KPAVIData@@U?$less@K@std@@V?$allocator@U?$pair@$$CBKPAVIData@@@std@@@3@$0A@@std@@SAABKABU?$pair@$$CBKPAVIData@@@2@@Z ; std::_Tmap_traits<unsigned long,IData *,std::less<unsigned long>,std::allocator<std::pair<unsigned long const ,IData *> >,0>::_Kfn
  00436	83 c4 04	 add	 esp, 4
  00439	50		 push	 eax
  0043a	8d 4d f4	 lea	 ecx, DWORD PTR __Next$[ebp]
  0043d	e8 00 00 00 00	 call	 ??Fiterator@?$_Tree@V?$_Tmap_traits@KPAVIData@@U?$less@K@std@@V?$allocator@U?$pair@$$CBKPAVIData@@@std@@@3@$0A@@std@@@std@@QAEAAV012@XZ ; std::_Tree<std::_Tmap_traits<unsigned long,IData *,std::less<unsigned long>,std::allocator<std::pair<unsigned long const ,IData *> >,0> >::iterator::operator--
  00442	8b c8		 mov	 ecx, eax
  00444	e8 00 00 00 00	 call	 ?_Mynode@const_iterator@?$_Tree@V?$_Tmap_traits@KPAVIData@@U?$less@K@std@@V?$allocator@U?$pair@$$CBKPAVIData@@@std@@@3@$0A@@std@@@std@@QBEPAU_Node@?$_Tree_nod@V?$_Tmap_traits@KPAVIData@@U?$less@K@std@@V?$allocator@U?$pair@$$CBKPAVIData@@@std@@@3@$0A@@std@@@3@XZ ; std::_Tree<std::_Tmap_traits<unsigned long,IData *,std::less<unsigned long>,std::allocator<std::pair<unsigned long const ,IData *> >,0> >::const_iterator::_Mynode
  00449	50		 push	 eax
  0044a	e8 00 00 00 00	 call	 ?_Key@?$_Tree@V?$_Tmap_traits@KPAVIData@@U?$less@K@std@@V?$allocator@U?$pair@$$CBKPAVIData@@@std@@@3@$0A@@std@@@std@@KAABKPAU_Node@?$_Tree_nod@V?$_Tmap_traits@KPAVIData@@U?$less@K@std@@V?$allocator@U?$pair@$$CBKPAVIData@@@std@@@3@$0A@@std@@@2@@Z ; std::_Tree<std::_Tmap_traits<unsigned long,IData *,std::less<unsigned long>,std::allocator<std::pair<unsigned long const ,IData *> >,0> >::_Key
  0044f	83 c4 04	 add	 esp, 4
  00452	50		 push	 eax
  00453	8b 4d fc	 mov	 ecx, DWORD PTR _this$[ebp]
  00456	e8 00 00 00 00	 call	 ??R?$less@K@std@@QBE_NABK0@Z ; std::less<unsigned long>::operator()
  0045b	0f b6 c8	 movzx	 ecx, al
  0045e	85 c9		 test	 ecx, ecx
  00460	74 69		 je	 SHORT $L189139

; 561  : 				{	// insert before _Where
; 562  : 				if (_Isnil(_Right(_Next._Mynode())))

  00462	8d 4d f4	 lea	 ecx, DWORD PTR __Next$[ebp]
  00465	e8 00 00 00 00	 call	 ?_Mynode@const_iterator@?$_Tree@V?$_Tmap_traits@KPAVIData@@U?$less@K@std@@V?$allocator@U?$pair@$$CBKPAVIData@@@std@@@3@$0A@@std@@@std@@QBEPAU_Node@?$_Tree_nod@V?$_Tmap_traits@KPAVIData@@U?$less@K@std@@V?$allocator@U?$pair@$$CBKPAVIData@@@std@@@3@$0A@@std@@@3@XZ ; std::_Tree<std::_Tmap_traits<unsigned long,IData *,std::less<unsigned long>,std::allocator<std::pair<unsigned long const ,IData *> >,0> >::const_iterator::_Mynode
  0046a	50		 push	 eax
  0046b	e8 00 00 00 00	 call	 ?_Right@?$_Tree@V?$_Tmap_traits@KPAVIData@@U?$less@K@std@@V?$allocator@U?$pair@$$CBKPAVIData@@@std@@@3@$0A@@std@@@std@@KAAAPAU_Node@?$_Tree_nod@V?$_Tmap_traits@KPAVIData@@U?$less@K@std@@V?$allocator@U?$pair@$$CBKPAVIData@@@std@@@3@$0A@@std@@@2@PAU342@@Z ; std::_Tree<std::_Tmap_traits<unsigned long,IData *,std::less<unsigned long>,std::allocator<std::pair<unsigned long const ,IData *> >,0> >::_Right
  00470	83 c4 04	 add	 esp, 4
  00473	8b 10		 mov	 edx, DWORD PTR [eax]
  00475	52		 push	 edx
  00476	e8 00 00 00 00	 call	 ?_Isnil@?$_Tree@V?$_Tmap_traits@KPAVIData@@U?$less@K@std@@V?$allocator@U?$pair@$$CBKPAVIData@@@std@@@3@$0A@@std@@@std@@KAAADPAU_Node@?$_Tree_nod@V?$_Tmap_traits@KPAVIData@@U?$less@K@std@@V?$allocator@U?$pair@$$CBKPAVIData@@@std@@@3@$0A@@std@@@2@@Z ; std::_Tree<std::_Tmap_traits<unsigned long,IData *,std::less<unsigned long>,std::allocator<std::pair<unsigned long const ,IData *> >,0> >::_Isnil
  0047b	83 c4 04	 add	 esp, 4
  0047e	0f be 00	 movsx	 eax, BYTE PTR [eax]
  00481	85 c0		 test	 eax, eax
  00483	74 23		 je	 SHORT $L189140

; 563  : 					return (_Insert(false, _Next._Mynode(), _Val));

  00485	8b 4d 10	 mov	 ecx, DWORD PTR __Val$[ebp]
  00488	51		 push	 ecx
  00489	8d 4d f4	 lea	 ecx, DWORD PTR __Next$[ebp]
  0048c	e8 00 00 00 00	 call	 ?_Mynode@const_iterator@?$_Tree@V?$_Tmap_traits@KPAVIData@@U?$less@K@std@@V?$allocator@U?$pair@$$CBKPAVIData@@@std@@@3@$0A@@std@@@std@@QBEPAU_Node@?$_Tree_nod@V?$_Tmap_traits@KPAVIData@@U?$less@K@std@@V?$allocator@U?$pair@$$CBKPAVIData@@@std@@@3@$0A@@std@@@3@XZ ; std::_Tree<std::_Tmap_traits<unsigned long,IData *,std::less<unsigned long>,std::allocator<std::pair<unsigned long const ,IData *> >,0> >::const_iterator::_Mynode
  00491	50		 push	 eax
  00492	6a 00		 push	 0
  00494	8b 55 08	 mov	 edx, DWORD PTR ___$ReturnUdt$[ebp]
  00497	52		 push	 edx
  00498	8b 4d fc	 mov	 ecx, DWORD PTR _this$[ebp]
  0049b	e8 00 00 00 00	 call	 ?_Insert@?$_Tree@V?$_Tmap_traits@KPAVIData@@U?$less@K@std@@V?$allocator@U?$pair@$$CBKPAVIData@@@std@@@3@$0A@@std@@@std@@IAE?AViterator@12@_NPAU_Node@?$_Tree_nod@V?$_Tmap_traits@KPAVIData@@U?$less@K@std@@V?$allocator@U?$pair@$$CBKPAVIData@@@std@@@3@$0A@@std@@@2@ABU?$pair@$$CBKPAVIData@@@2@@Z ; std::_Tree<std::_Tmap_traits<unsigned long,IData *,std::less<unsigned long>,std::allocator<std::pair<unsigned long const ,IData *> >,0> >::_Insert
  004a0	8b 45 08	 mov	 eax, DWORD PTR ___$ReturnUdt$[ebp]
  004a3	e9 29 01 00 00	 jmp	 $L189099
$L189140:

; 564  : 				else
; 565  : 					return (_Insert(true, _Where._Mynode(), _Val));

  004a8	8b 45 10	 mov	 eax, DWORD PTR __Val$[ebp]
  004ab	50		 push	 eax
  004ac	8d 4d 0c	 lea	 ecx, DWORD PTR __Where$[ebp]
  004af	e8 00 00 00 00	 call	 ?_Mynode@const_iterator@?$_Tree@V?$_Tmap_traits@KPAVIData@@U?$less@K@std@@V?$allocator@U?$pair@$$CBKPAVIData@@@std@@@3@$0A@@std@@@std@@QBEPAU_Node@?$_Tree_nod@V?$_Tmap_traits@KPAVIData@@U?$less@K@std@@V?$allocator@U?$pair@$$CBKPAVIData@@@std@@@3@$0A@@std@@@3@XZ ; std::_Tree<std::_Tmap_traits<unsigned long,IData *,std::less<unsigned long>,std::allocator<std::pair<unsigned long const ,IData *> >,0> >::const_iterator::_Mynode
  004b4	50		 push	 eax
  004b5	6a 01		 push	 1
  004b7	8b 4d 08	 mov	 ecx, DWORD PTR ___$ReturnUdt$[ebp]
  004ba	51		 push	 ecx
  004bb	8b 4d fc	 mov	 ecx, DWORD PTR _this$[ebp]
  004be	e8 00 00 00 00	 call	 ?_Insert@?$_Tree@V?$_Tmap_traits@KPAVIData@@U?$less@K@std@@V?$allocator@U?$pair@$$CBKPAVIData@@@std@@@3@$0A@@std@@@std@@IAE?AViterator@12@_NPAU_Node@?$_Tree_nod@V?$_Tmap_traits@KPAVIData@@U?$less@K@std@@V?$allocator@U?$pair@$$CBKPAVIData@@@std@@@3@$0A@@std@@@2@ABU?$pair@$$CBKPAVIData@@@2@@Z ; std::_Tree<std::_Tmap_traits<unsigned long,IData *,std::less<unsigned long>,std::allocator<std::pair<unsigned long const ,IData *> >,0> >::_Insert
  004c3	8b 45 08	 mov	 eax, DWORD PTR ___$ReturnUdt$[ebp]
  004c6	e9 06 01 00 00	 jmp	 $L189099
$L189139:

; 566  : 				}
; 567  : 			else if (this->comp(_Key(_Where._Mynode()), this->_Kfn(_Val))
; 568  : 				&& (++(_Next = _Where) == end()
; 569  : 					|| this->comp(this->_Kfn(_Val),
; 570  : 						_Key(_Next._Mynode()))))

  004cb	8b 55 10	 mov	 edx, DWORD PTR __Val$[ebp]
  004ce	52		 push	 edx
  004cf	e8 00 00 00 00	 call	 ?_Kfn@?$_Tmap_traits@KPAVIData@@U?$less@K@std@@V?$allocator@U?$pair@$$CBKPAVIData@@@std@@@3@$0A@@std@@SAABKABU?$pair@$$CBKPAVIData@@@2@@Z ; std::_Tmap_traits<unsigned long,IData *,std::less<unsigned long>,std::allocator<std::pair<unsigned long const ,IData *> >,0>::_Kfn
  004d4	83 c4 04	 add	 esp, 4
  004d7	50		 push	 eax
  004d8	8d 4d 0c	 lea	 ecx, DWORD PTR __Where$[ebp]
  004db	e8 00 00 00 00	 call	 ?_Mynode@const_iterator@?$_Tree@V?$_Tmap_traits@KPAVIData@@U?$less@K@std@@V?$allocator@U?$pair@$$CBKPAVIData@@@std@@@3@$0A@@std@@@std@@QBEPAU_Node@?$_Tree_nod@V?$_Tmap_traits@KPAVIData@@U?$less@K@std@@V?$allocator@U?$pair@$$CBKPAVIData@@@std@@@3@$0A@@std@@@3@XZ ; std::_Tree<std::_Tmap_traits<unsigned long,IData *,std::less<unsigned long>,std::allocator<std::pair<unsigned long const ,IData *> >,0> >::const_iterator::_Mynode
  004e0	50		 push	 eax
  004e1	e8 00 00 00 00	 call	 ?_Key@?$_Tree@V?$_Tmap_traits@KPAVIData@@U?$less@K@std@@V?$allocator@U?$pair@$$CBKPAVIData@@@std@@@3@$0A@@std@@@std@@KAABKPAU_Node@?$_Tree_nod@V?$_Tmap_traits@KPAVIData@@U?$less@K@std@@V?$allocator@U?$pair@$$CBKPAVIData@@@std@@@3@$0A@@std@@@2@@Z ; std::_Tree<std::_Tmap_traits<unsigned long,IData *,std::less<unsigned long>,std::allocator<std::pair<unsigned long const ,IData *> >,0> >::_Key
  004e6	83 c4 04	 add	 esp, 4
  004e9	50		 push	 eax
  004ea	8b 4d fc	 mov	 ecx, DWORD PTR _this$[ebp]
  004ed	e8 00 00 00 00	 call	 ??R?$less@K@std@@QBE_NABK0@Z ; std::less<unsigned long>::operator()
  004f2	0f b6 c0	 movzx	 eax, al
  004f5	85 c0		 test	 eax, eax
  004f7	0f 84 ba 00 00
	00		 je	 $L189103
  004fd	8b 4d 0c	 mov	 ecx, DWORD PTR __Where$[ebp]
  00500	89 4d f4	 mov	 DWORD PTR __Next$[ebp], ecx
  00503	8d 55 d8	 lea	 edx, DWORD PTR $T190280[ebp]
  00506	52		 push	 edx
  00507	8b 4d fc	 mov	 ecx, DWORD PTR _this$[ebp]
  0050a	e8 00 00 00 00	 call	 ?end@?$_Tree@V?$_Tmap_traits@KPAVIData@@U?$less@K@std@@V?$allocator@U?$pair@$$CBKPAVIData@@@std@@@3@$0A@@std@@@std@@QAE?AViterator@12@XZ ; std::_Tree<std::_Tmap_traits<unsigned long,IData *,std::less<unsigned long>,std::allocator<std::pair<unsigned long const ,IData *> >,0> >::end
  0050f	50		 push	 eax
  00510	8d 4d f4	 lea	 ecx, DWORD PTR __Next$[ebp]
  00513	e8 00 00 00 00	 call	 ??Eiterator@?$_Tree@V?$_Tmap_traits@KPAVIData@@U?$less@K@std@@V?$allocator@U?$pair@$$CBKPAVIData@@@std@@@3@$0A@@std@@@std@@QAEAAV012@XZ ; std::_Tree<std::_Tmap_traits<unsigned long,IData *,std::less<unsigned long>,std::allocator<std::pair<unsigned long const ,IData *> >,0> >::iterator::operator++
  00518	8b c8		 mov	 ecx, eax
  0051a	e8 00 00 00 00	 call	 ??8const_iterator@?$_Tree@V?$_Tmap_traits@KPAVIData@@U?$less@K@std@@V?$allocator@U?$pair@$$CBKPAVIData@@@std@@@3@$0A@@std@@@std@@QBE_NABV012@@Z ; std::_Tree<std::_Tmap_traits<unsigned long,IData *,std::less<unsigned long>,std::allocator<std::pair<unsigned long const ,IData *> >,0> >::const_iterator::operator==
  0051f	0f b6 c0	 movzx	 eax, al
  00522	85 c0		 test	 eax, eax
  00524	75 2e		 jne	 SHORT $L189147
  00526	8d 4d f4	 lea	 ecx, DWORD PTR __Next$[ebp]
  00529	e8 00 00 00 00	 call	 ?_Mynode@const_iterator@?$_Tree@V?$_Tmap_traits@KPAVIData@@U?$less@K@std@@V?$allocator@U?$pair@$$CBKPAVIData@@@std@@@3@$0A@@std@@@std@@QBEPAU_Node@?$_Tree_nod@V?$_Tmap_traits@KPAVIData@@U?$less@K@std@@V?$allocator@U?$pair@$$CBKPAVIData@@@std@@@3@$0A@@std@@@3@XZ ; std::_Tree<std::_Tmap_traits<unsigned long,IData *,std::less<unsigned long>,std::allocator<std::pair<unsigned long const ,IData *> >,0> >::const_iterator::_Mynode
  0052e	50		 push	 eax
  0052f	e8 00 00 00 00	 call	 ?_Key@?$_Tree@V?$_Tmap_traits@KPAVIData@@U?$less@K@std@@V?$allocator@U?$pair@$$CBKPAVIData@@@std@@@3@$0A@@std@@@std@@KAABKPAU_Node@?$_Tree_nod@V?$_Tmap_traits@KPAVIData@@U?$less@K@std@@V?$allocator@U?$pair@$$CBKPAVIData@@@std@@@3@$0A@@std@@@2@@Z ; std::_Tree<std::_Tmap_traits<unsigned long,IData *,std::less<unsigned long>,std::allocator<std::pair<unsigned long const ,IData *> >,0> >::_Key
  00534	83 c4 04	 add	 esp, 4
  00537	50		 push	 eax
  00538	8b 4d 10	 mov	 ecx, DWORD PTR __Val$[ebp]
  0053b	51		 push	 ecx
  0053c	e8 00 00 00 00	 call	 ?_Kfn@?$_Tmap_traits@KPAVIData@@U?$less@K@std@@V?$allocator@U?$pair@$$CBKPAVIData@@@std@@@3@$0A@@std@@SAABKABU?$pair@$$CBKPAVIData@@@2@@Z ; std::_Tmap_traits<unsigned long,IData *,std::less<unsigned long>,std::allocator<std::pair<unsigned long const ,IData *> >,0>::_Kfn
  00541	83 c4 04	 add	 esp, 4
  00544	50		 push	 eax
  00545	8b 4d fc	 mov	 ecx, DWORD PTR _this$[ebp]
  00548	e8 00 00 00 00	 call	 ??R?$less@K@std@@QBE_NABK0@Z ; std::less<unsigned long>::operator()
  0054d	0f b6 d0	 movzx	 edx, al
  00550	85 d2		 test	 edx, edx
  00552	74 63		 je	 SHORT $L189103
$L189147:

; 571  : 				{	// insert after _Where
; 572  : 				if (_Isnil(_Right(_Where._Mynode())))

  00554	8d 4d 0c	 lea	 ecx, DWORD PTR __Where$[ebp]
  00557	e8 00 00 00 00	 call	 ?_Mynode@const_iterator@?$_Tree@V?$_Tmap_traits@KPAVIData@@U?$less@K@std@@V?$allocator@U?$pair@$$CBKPAVIData@@@std@@@3@$0A@@std@@@std@@QBEPAU_Node@?$_Tree_nod@V?$_Tmap_traits@KPAVIData@@U?$less@K@std@@V?$allocator@U?$pair@$$CBKPAVIData@@@std@@@3@$0A@@std@@@3@XZ ; std::_Tree<std::_Tmap_traits<unsigned long,IData *,std::less<unsigned long>,std::allocator<std::pair<unsigned long const ,IData *> >,0> >::const_iterator::_Mynode
  0055c	50		 push	 eax
  0055d	e8 00 00 00 00	 call	 ?_Right@?$_Tree@V?$_Tmap_traits@KPAVIData@@U?$less@K@std@@V?$allocator@U?$pair@$$CBKPAVIData@@@std@@@3@$0A@@std@@@std@@KAAAPAU_Node@?$_Tree_nod@V?$_Tmap_traits@KPAVIData@@U?$less@K@std@@V?$allocator@U?$pair@$$CBKPAVIData@@@std@@@3@$0A@@std@@@2@PAU342@@Z ; std::_Tree<std::_Tmap_traits<unsigned long,IData *,std::less<unsigned long>,std::allocator<std::pair<unsigned long const ,IData *> >,0> >::_Right
  00562	83 c4 04	 add	 esp, 4
  00565	8b 00		 mov	 eax, DWORD PTR [eax]
  00567	50		 push	 eax
  00568	e8 00 00 00 00	 call	 ?_Isnil@?$_Tree@V?$_Tmap_traits@KPAVIData@@U?$less@K@std@@V?$allocator@U?$pair@$$CBKPAVIData@@@std@@@3@$0A@@std@@@std@@KAAADPAU_Node@?$_Tree_nod@V?$_Tmap_traits@KPAVIData@@U?$less@K@std@@V?$allocator@U?$pair@$$CBKPAVIData@@@std@@@3@$0A@@std@@@2@@Z ; std::_Tree<std::_Tmap_traits<unsigned long,IData *,std::less<unsigned long>,std::allocator<std::pair<unsigned long const ,IData *> >,0> >::_Isnil
  0056d	83 c4 04	 add	 esp, 4
  00570	0f be 08	 movsx	 ecx, BYTE PTR [eax]
  00573	85 c9		 test	 ecx, ecx
  00575	74 20		 je	 SHORT $L189148

; 573  : 					return (_Insert(false, _Where._Mynode(), _Val));

  00577	8b 55 10	 mov	 edx, DWORD PTR __Val$[ebp]
  0057a	52		 push	 edx
  0057b	8d 4d 0c	 lea	 ecx, DWORD PTR __Where$[ebp]
  0057e	e8 00 00 00 00	 call	 ?_Mynode@const_iterator@?$_Tree@V?$_Tmap_traits@KPAVIData@@U?$less@K@std@@V?$allocator@U?$pair@$$CBKPAVIData@@@std@@@3@$0A@@std@@@std@@QBEPAU_Node@?$_Tree_nod@V?$_Tmap_traits@KPAVIData@@U?$less@K@std@@V?$allocator@U?$pair@$$CBKPAVIData@@@std@@@3@$0A@@std@@@3@XZ ; std::_Tree<std::_Tmap_traits<unsigned long,IData *,std::less<unsigned long>,std::allocator<std::pair<unsigned long const ,IData *> >,0> >::const_iterator::_Mynode
  00583	50		 push	 eax
  00584	6a 00		 push	 0
  00586	8b 45 08	 mov	 eax, DWORD PTR ___$ReturnUdt$[ebp]
  00589	50		 push	 eax
  0058a	8b 4d fc	 mov	 ecx, DWORD PTR _this$[ebp]
  0058d	e8 00 00 00 00	 call	 ?_Insert@?$_Tree@V?$_Tmap_traits@KPAVIData@@U?$less@K@std@@V?$allocator@U?$pair@$$CBKPAVIData@@@std@@@3@$0A@@std@@@std@@IAE?AViterator@12@_NPAU_Node@?$_Tree_nod@V?$_Tmap_traits@KPAVIData@@U?$less@K@std@@V?$allocator@U?$pair@$$CBKPAVIData@@@std@@@3@$0A@@std@@@2@ABU?$pair@$$CBKPAVIData@@@2@@Z ; std::_Tree<std::_Tmap_traits<unsigned long,IData *,std::less<unsigned long>,std::allocator<std::pair<unsigned long const ,IData *> >,0> >::_Insert
  00592	8b 45 08	 mov	 eax, DWORD PTR ___$ReturnUdt$[ebp]
  00595	eb 3a		 jmp	 SHORT $L189099
$L189148:

; 574  : 				else
; 575  : 					return (_Insert(true, _Next._Mynode(), _Val));

  00597	8b 4d 10	 mov	 ecx, DWORD PTR __Val$[ebp]
  0059a	51		 push	 ecx
  0059b	8d 4d f4	 lea	 ecx, DWORD PTR __Next$[ebp]
  0059e	e8 00 00 00 00	 call	 ?_Mynode@const_iterator@?$_Tree@V?$_Tmap_traits@KPAVIData@@U?$less@K@std@@V?$allocator@U?$pair@$$CBKPAVIData@@@std@@@3@$0A@@std@@@std@@QBEPAU_Node@?$_Tree_nod@V?$_Tmap_traits@KPAVIData@@U?$less@K@std@@V?$allocator@U?$pair@$$CBKPAVIData@@@std@@@3@$0A@@std@@@3@XZ ; std::_Tree<std::_Tmap_traits<unsigned long,IData *,std::less<unsigned long>,std::allocator<std::pair<unsigned long const ,IData *> >,0> >::const_iterator::_Mynode
  005a3	50		 push	 eax
  005a4	6a 01		 push	 1
  005a6	8b 55 08	 mov	 edx, DWORD PTR ___$ReturnUdt$[ebp]
  005a9	52		 push	 edx
  005aa	8b 4d fc	 mov	 ecx, DWORD PTR _this$[ebp]
  005ad	e8 00 00 00 00	 call	 ?_Insert@?$_Tree@V?$_Tmap_traits@KPAVIData@@U?$less@K@std@@V?$allocator@U?$pair@$$CBKPAVIData@@@std@@@3@$0A@@std@@@std@@IAE?AViterator@12@_NPAU_Node@?$_Tree_nod@V?$_Tmap_traits@KPAVIData@@U?$less@K@std@@V?$allocator@U?$pair@$$CBKPAVIData@@@std@@@3@$0A@@std@@@2@ABU?$pair@$$CBKPAVIData@@@2@@Z ; std::_Tree<std::_Tmap_traits<unsigned long,IData *,std::less<unsigned long>,std::allocator<std::pair<unsigned long const ,IData *> >,0> >::_Insert
  005b2	8b 45 08	 mov	 eax, DWORD PTR ___$ReturnUdt$[ebp]
  005b5	eb 1a		 jmp	 SHORT $L189099
$L189103:

; 576  : 				}
; 577  : 			}
; 578  : 
; 579  : 		return (insert(_Val).first);	// try usual insert if all else fails

  005b7	8b 45 10	 mov	 eax, DWORD PTR __Val$[ebp]
  005ba	50		 push	 eax
  005bb	8d 4d d0	 lea	 ecx, DWORD PTR $T190281[ebp]
  005be	51		 push	 ecx
  005bf	8b 4d fc	 mov	 ecx, DWORD PTR _this$[ebp]
  005c2	e8 00 00 00 00	 call	 ?insert@?$_Tree@V?$_Tmap_traits@KPAVIData@@U?$less@K@std@@V?$allocator@U?$pair@$$CBKPAVIData@@@std@@@3@$0A@@std@@@std@@QAE?AU?$pair@Viterator@?$_Tree@V?$_Tmap_traits@KPAVIData@@U?$less@K@std@@V?$allocator@U?$pair@$$CBKPAVIData@@@std@@@3@$0A@@std@@@std@@_N@2@ABU?$pair@$$CBKPAVIData@@@2@@Z ; std::_Tree<std::_Tmap_traits<unsigned long,IData *,std::less<unsigned long>,std::allocator<std::pair<unsigned long const ,IData *> >,0> >::insert
  005c7	8b 10		 mov	 edx, DWORD PTR [eax]
  005c9	8b 45 08	 mov	 eax, DWORD PTR ___$ReturnUdt$[ebp]
  005cc	89 10		 mov	 DWORD PTR [eax], edx
  005ce	8b 45 08	 mov	 eax, DWORD PTR ___$ReturnUdt$[ebp]
$L189099:

; 580  : 		}

  005d1	52		 push	 edx
  005d2	8b cd		 mov	 ecx, ebp
  005d4	50		 push	 eax
  005d5	8d 15 00 00 00
	00		 lea	 edx, DWORD PTR $L190284
  005db	e8 00 00 00 00	 call	 @_RTC_CheckStackVars@8
  005e0	58		 pop	 eax
  005e1	5a		 pop	 edx
  005e2	5f		 pop	 edi
  005e3	83 c4 30	 add	 esp, 48			; 00000030H
  005e6	3b ec		 cmp	 ebp, esp
  005e8	e8 00 00 00 00	 call	 __RTC_CheckEsp
  005ed	8b e5		 mov	 esp, ebp
  005ef	5d		 pop	 ebp
  005f0	c2 0c 00	 ret	 12			; 0000000cH
$L190284:
  005f3	01 00 00 00	 DD	 1
  005f7	00 00 00 00	 DD	 $L190283
$L190283:
  005fb	f4 ff ff ff	 DD	 -12			; fffffff4H
  005ff	04 00 00 00	 DD	 4
  00603	00 00 00 00	 DD	 $L190282
$L190282:
  00607	5f		 DB	 95			; 0000005fH
  00608	4e		 DB	 78			; 0000004eH
  00609	65		 DB	 101			; 00000065H
  0060a	78		 DB	 120			; 00000078H
  0060b	74		 DB	 116			; 00000074H
  0060c	00		 DB	 0
?insert@?$_Tree@V?$_Tmap_traits@KPAVIData@@U?$less@K@std@@V?$allocator@U?$pair@$$CBKPAVIData@@@std@@@3@$0A@@std@@@std@@QAE?AViterator@12@V312@ABU?$pair@$$CBKPAVIData@@@2@@Z ENDP ; std::_Tree<std::_Tmap_traits<unsigned long,IData *,std::less<unsigned long>,std::allocator<std::pair<unsigned long const ,IData *> >,0> >::insert
_TEXT	ENDS
PUBLIC	?erase@?$_Tree@V?$_Tmap_traits@KPAVIData@@U?$less@K@std@@V?$allocator@U?$pair@$$CBKPAVIData@@@std@@@3@$0A@@std@@@std@@QAE?AViterator@12@V312@@Z ; std::_Tree<std::_Tmap_traits<unsigned long,IData *,std::less<unsigned long>,std::allocator<std::pair<unsigned long const ,IData *> >,0> >::erase
; Function compile flags: /Odt /RTCsu
;	COMDAT ?erase@?$_Tree@V?$_Tmap_traits@KPAVIData@@U?$less@K@std@@V?$allocator@U?$pair@$$CBKPAVIData@@@std@@@3@$0A@@std@@@std@@QAE?AViterator@12@V312@0@Z
_TEXT	SEGMENT
$T190289 = -20						; size = 4
$T190288 = -16						; size = 4
$T190287 = -12						; size = 4
$T190286 = -8						; size = 4
_this$ = -4						; size = 4
___$ReturnUdt$ = 8					; size = 4
__First$ = 12						; size = 4
__Last$ = 16						; size = 4
?erase@?$_Tree@V?$_Tmap_traits@KPAVIData@@U?$less@K@std@@V?$allocator@U?$pair@$$CBKPAVIData@@@std@@@3@$0A@@std@@@std@@QAE?AViterator@12@V312@0@Z PROC NEAR ; std::_Tree<std::_Tmap_traits<unsigned long,IData *,std::less<unsigned long>,std::allocator<std::pair<unsigned long const ,IData *> >,0> >::erase, COMDAT
; _this$ = ecx

; 750  : 		{	// erase [_First, _Last)

  00000	55		 push	 ebp
  00001	8b ec		 mov	 ebp, esp
  00003	83 ec 14	 sub	 esp, 20			; 00000014H
  00006	b8 cc cc cc cc	 mov	 eax, -858993460		; ccccccccH
  0000b	89 45 ec	 mov	 DWORD PTR [ebp-20], eax
  0000e	89 45 f0	 mov	 DWORD PTR [ebp-16], eax
  00011	89 45 f4	 mov	 DWORD PTR [ebp-12], eax
  00014	89 45 f8	 mov	 DWORD PTR [ebp-8], eax
  00017	89 45 fc	 mov	 DWORD PTR [ebp-4], eax
  0001a	89 4d fc	 mov	 DWORD PTR _this$[ebp], ecx

; 751  : 		if (_First == begin() && _Last == end())

  0001d	8d 45 f8	 lea	 eax, DWORD PTR $T190286[ebp]
  00020	50		 push	 eax
  00021	8b 4d fc	 mov	 ecx, DWORD PTR _this$[ebp]
  00024	e8 00 00 00 00	 call	 ?begin@?$_Tree@V?$_Tmap_traits@KPAVIData@@U?$less@K@std@@V?$allocator@U?$pair@$$CBKPAVIData@@@std@@@3@$0A@@std@@@std@@QAE?AViterator@12@XZ ; std::_Tree<std::_Tmap_traits<unsigned long,IData *,std::less<unsigned long>,std::allocator<std::pair<unsigned long const ,IData *> >,0> >::begin
  00029	50		 push	 eax
  0002a	8d 4d 0c	 lea	 ecx, DWORD PTR __First$[ebp]
  0002d	e8 00 00 00 00	 call	 ??8const_iterator@?$_Tree@V?$_Tmap_traits@KPAVIData@@U?$less@K@std@@V?$allocator@U?$pair@$$CBKPAVIData@@@std@@@3@$0A@@std@@@std@@QBE_NABV012@@Z ; std::_Tree<std::_Tmap_traits<unsigned long,IData *,std::less<unsigned long>,std::allocator<std::pair<unsigned long const ,IData *> >,0> >::const_iterator::operator==
  00032	0f b6 c8	 movzx	 ecx, al
  00035	85 c9		 test	 ecx, ecx
  00037	74 35		 je	 SHORT $L189182
  00039	8d 55 f4	 lea	 edx, DWORD PTR $T190287[ebp]
  0003c	52		 push	 edx
  0003d	8b 4d fc	 mov	 ecx, DWORD PTR _this$[ebp]
  00040	e8 00 00 00 00	 call	 ?end@?$_Tree@V?$_Tmap_traits@KPAVIData@@U?$less@K@std@@V?$allocator@U?$pair@$$CBKPAVIData@@@std@@@3@$0A@@std@@@std@@QAE?AViterator@12@XZ ; std::_Tree<std::_Tmap_traits<unsigned long,IData *,std::less<unsigned long>,std::allocator<std::pair<unsigned long const ,IData *> >,0> >::end
  00045	50		 push	 eax
  00046	8d 4d 10	 lea	 ecx, DWORD PTR __Last$[ebp]
  00049	e8 00 00 00 00	 call	 ??8const_iterator@?$_Tree@V?$_Tmap_traits@KPAVIData@@U?$less@K@std@@V?$allocator@U?$pair@$$CBKPAVIData@@@std@@@3@$0A@@std@@@std@@QBE_NABV012@@Z ; std::_Tree<std::_Tmap_traits<unsigned long,IData *,std::less<unsigned long>,std::allocator<std::pair<unsigned long const ,IData *> >,0> >::const_iterator::operator==
  0004e	0f b6 c0	 movzx	 eax, al
  00051	85 c0		 test	 eax, eax
  00053	74 19		 je	 SHORT $L189182

; 752  : 			{	// erase all
; 753  : 			clear();

  00055	8b 4d fc	 mov	 ecx, DWORD PTR _this$[ebp]
  00058	e8 00 00 00 00	 call	 ?clear@?$_Tree@V?$_Tmap_traits@KPAVIData@@U?$less@K@std@@V?$allocator@U?$pair@$$CBKPAVIData@@@std@@@3@$0A@@std@@@std@@QAEXXZ ; std::_Tree<std::_Tmap_traits<unsigned long,IData *,std::less<unsigned long>,std::allocator<std::pair<unsigned long const ,IData *> >,0> >::clear

; 754  : 			return (begin());

  0005d	8b 4d 08	 mov	 ecx, DWORD PTR ___$ReturnUdt$[ebp]
  00060	51		 push	 ecx
  00061	8b 4d fc	 mov	 ecx, DWORD PTR _this$[ebp]
  00064	e8 00 00 00 00	 call	 ?begin@?$_Tree@V?$_Tmap_traits@KPAVIData@@U?$less@K@std@@V?$allocator@U?$pair@$$CBKPAVIData@@@std@@@3@$0A@@std@@@std@@QAE?AViterator@12@XZ ; std::_Tree<std::_Tmap_traits<unsigned long,IData *,std::less<unsigned long>,std::allocator<std::pair<unsigned long const ,IData *> >,0> >::begin
  00069	8b 45 08	 mov	 eax, DWORD PTR ___$ReturnUdt$[ebp]
  0006c	eb 3d		 jmp	 SHORT $L189175
$L189182:

; 755  : 			}
; 756  : 		else
; 757  : 			{	// partial erase, one at a time
; 758  : 			while (_First != _Last)

  0006e	8d 55 10	 lea	 edx, DWORD PTR __Last$[ebp]
  00071	52		 push	 edx
  00072	8d 4d 0c	 lea	 ecx, DWORD PTR __First$[ebp]
  00075	e8 00 00 00 00	 call	 ??9const_iterator@?$_Tree@V?$_Tmap_traits@KPAVIData@@U?$less@K@std@@V?$allocator@U?$pair@$$CBKPAVIData@@@std@@@3@$0A@@std@@@std@@QBE_NABV012@@Z ; std::_Tree<std::_Tmap_traits<unsigned long,IData *,std::less<unsigned long>,std::allocator<std::pair<unsigned long const ,IData *> >,0> >::const_iterator::operator!=
  0007a	0f b6 c0	 movzx	 eax, al
  0007d	85 c0		 test	 eax, eax
  0007f	74 1f		 je	 SHORT $L189183

; 759  : 				erase(_First++);

  00081	6a 00		 push	 0
  00083	8d 4d f0	 lea	 ecx, DWORD PTR $T190288[ebp]
  00086	51		 push	 ecx
  00087	8d 4d 0c	 lea	 ecx, DWORD PTR __First$[ebp]
  0008a	e8 00 00 00 00	 call	 ??Eiterator@?$_Tree@V?$_Tmap_traits@KPAVIData@@U?$less@K@std@@V?$allocator@U?$pair@$$CBKPAVIData@@@std@@@3@$0A@@std@@@std@@QAE?AV012@H@Z ; std::_Tree<std::_Tmap_traits<unsigned long,IData *,std::less<unsigned long>,std::allocator<std::pair<unsigned long const ,IData *> >,0> >::iterator::operator++
  0008f	8b 10		 mov	 edx, DWORD PTR [eax]
  00091	52		 push	 edx
  00092	8d 45 ec	 lea	 eax, DWORD PTR $T190289[ebp]
  00095	50		 push	 eax
  00096	8b 4d fc	 mov	 ecx, DWORD PTR _this$[ebp]
  00099	e8 00 00 00 00	 call	 ?erase@?$_Tree@V?$_Tmap_traits@KPAVIData@@U?$less@K@std@@V?$allocator@U?$pair@$$CBKPAVIData@@@std@@@3@$0A@@std@@@std@@QAE?AViterator@12@V312@@Z ; std::_Tree<std::_Tmap_traits<unsigned long,IData *,std::less<unsigned long>,std::allocator<std::pair<unsigned long const ,IData *> >,0> >::erase
  0009e	eb ce		 jmp	 SHORT $L189182
$L189183:

; 760  : 			return (_First);

  000a0	8b 4d 08	 mov	 ecx, DWORD PTR ___$ReturnUdt$[ebp]
  000a3	8b 55 0c	 mov	 edx, DWORD PTR __First$[ebp]
  000a6	89 11		 mov	 DWORD PTR [ecx], edx
  000a8	8b 45 08	 mov	 eax, DWORD PTR ___$ReturnUdt$[ebp]
$L189175:

; 761  : 			}
; 762  : 		}

  000ab	83 c4 14	 add	 esp, 20			; 00000014H
  000ae	3b ec		 cmp	 ebp, esp
  000b0	e8 00 00 00 00	 call	 __RTC_CheckEsp
  000b5	8b e5		 mov	 esp, ebp
  000b7	5d		 pop	 ebp
  000b8	c2 0c 00	 ret	 12			; 0000000cH
?erase@?$_Tree@V?$_Tmap_traits@KPAVIData@@U?$less@K@std@@V?$allocator@U?$pair@$$CBKPAVIData@@@std@@@3@$0A@@std@@@std@@QAE?AViterator@12@V312@0@Z ENDP ; std::_Tree<std::_Tmap_traits<unsigned long,IData *,std::less<unsigned long>,std::allocator<std::pair<unsigned long const ,IData *> >,0> >::erase
_TEXT	ENDS
PUBLIC	?_Lbound@?$_Tree@V?$_Tmap_traits@KPAVIData@@U?$less@K@std@@V?$allocator@U?$pair@$$CBKPAVIData@@@std@@@3@$0A@@std@@@std@@IBEPAU_Node@?$_Tree_nod@V?$_Tmap_traits@KPAVIData@@U?$less@K@std@@V?$allocator@U?$pair@$$CBKPAVIData@@@std@@@3@$0A@@std@@@2@ABK@Z ; std::_Tree<std::_Tmap_traits<unsigned long,IData *,std::less<unsigned long>,std::allocator<std::pair<unsigned long const ,IData *> >,0> >::_Lbound
; Function compile flags: /Odt /RTCsu
;	COMDAT ?lower_bound@?$_Tree@V?$_Tmap_traits@KPAVIData@@U?$less@K@std@@V?$allocator@U?$pair@$$CBKPAVIData@@@std@@@3@$0A@@std@@@std@@QAE?AViterator@12@ABK@Z
_TEXT	SEGMENT
_this$ = -4						; size = 4
___$ReturnUdt$ = 8					; size = 4
__Keyval$ = 12						; size = 4
?lower_bound@?$_Tree@V?$_Tmap_traits@KPAVIData@@U?$less@K@std@@V?$allocator@U?$pair@$$CBKPAVIData@@@std@@@3@$0A@@std@@@std@@QAE?AViterator@12@ABK@Z PROC NEAR ; std::_Tree<std::_Tmap_traits<unsigned long,IData *,std::less<unsigned long>,std::allocator<std::pair<unsigned long const ,IData *> >,0> >::lower_bound, COMDAT
; _this$ = ecx

; 809  : 		{	// find leftmost node not less than _Keyval in mutable tree

  00000	55		 push	 ebp
  00001	8b ec		 mov	 ebp, esp
  00003	51		 push	 ecx
  00004	c7 45 fc cc cc
	cc cc		 mov	 DWORD PTR [ebp-4], -858993460 ; ccccccccH
  0000b	89 4d fc	 mov	 DWORD PTR _this$[ebp], ecx

; 810  : 		return (_TREE_ITERATOR(_Lbound(_Keyval)));

  0000e	8b 45 0c	 mov	 eax, DWORD PTR __Keyval$[ebp]
  00011	50		 push	 eax
  00012	8b 4d fc	 mov	 ecx, DWORD PTR _this$[ebp]
  00015	e8 00 00 00 00	 call	 ?_Lbound@?$_Tree@V?$_Tmap_traits@KPAVIData@@U?$less@K@std@@V?$allocator@U?$pair@$$CBKPAVIData@@@std@@@3@$0A@@std@@@std@@IBEPAU_Node@?$_Tree_nod@V?$_Tmap_traits@KPAVIData@@U?$less@K@std@@V?$allocator@U?$pair@$$CBKPAVIData@@@std@@@3@$0A@@std@@@2@ABK@Z ; std::_Tree<std::_Tmap_traits<unsigned long,IData *,std::less<unsigned long>,std::allocator<std::pair<unsigned long const ,IData *> >,0> >::_Lbound
  0001a	50		 push	 eax
  0001b	8b 4d 08	 mov	 ecx, DWORD PTR ___$ReturnUdt$[ebp]
  0001e	e8 00 00 00 00	 call	 ??0iterator@?$_Tree@V?$_Tmap_traits@KPAVIData@@U?$less@K@std@@V?$allocator@U?$pair@$$CBKPAVIData@@@std@@@3@$0A@@std@@@std@@QAE@PAU_Node@?$_Tree_nod@V?$_Tmap_traits@KPAVIData@@U?$less@K@std@@V?$allocator@U?$pair@$$CBKPAVIData@@@std@@@3@$0A@@std@@@2@@Z ; std::_Tree<std::_Tmap_traits<unsigned long,IData *,std::less<unsigned long>,std::allocator<std::pair<unsigned long const ,IData *> >,0> >::iterator::iterator
  00023	8b 45 08	 mov	 eax, DWORD PTR ___$ReturnUdt$[ebp]

; 811  : 		}

  00026	83 c4 04	 add	 esp, 4
  00029	3b ec		 cmp	 ebp, esp
  0002b	e8 00 00 00 00	 call	 __RTC_CheckEsp
  00030	8b e5		 mov	 esp, ebp
  00032	5d		 pop	 ebp
  00033	c2 08 00	 ret	 8
?lower_bound@?$_Tree@V?$_Tmap_traits@KPAVIData@@U?$less@K@std@@V?$allocator@U?$pair@$$CBKPAVIData@@@std@@@3@$0A@@std@@@std@@QAE?AViterator@12@ABK@Z ENDP ; std::_Tree<std::_Tmap_traits<unsigned long,IData *,std::less<unsigned long>,std::allocator<std::pair<unsigned long const ,IData *> >,0> >::lower_bound
_TEXT	ENDS
PUBLIC	??0?$pair@Viterator@?$_Tree@V?$_Tmap_traits@KPAVIData@@U?$less@K@std@@V?$allocator@U?$pair@$$CBKPAVIData@@@std@@@3@$0A@@std@@@std@@V123@@std@@QAE@ABViterator@?$_Tree@V?$_Tmap_traits@KPAVIData@@U?$less@K@std@@V?$allocator@U?$pair@$$CBKPAVIData@@@std@@@3@$0A@@std@@@1@0@Z ; std::pair<std::_Tree<std::_Tmap_traits<unsigned long,IData *,std::less<unsigned long>,std::allocator<std::pair<unsigned long const ,IData *> >,0> >::iterator,std::_Tree<std::_Tmap_traits<unsigned long,IData *,std::less<unsigned long>,std::allocator<std::pair<unsigned long const ,IData *> >,0> >::iterator>::pair<std::_Tree<std::_Tmap_traits<unsigned long,IData *,std::less<unsigned long>,std::allocator<std::pair<unsigned long const ,IData *> >,0> >::iterator,std::_Tree<std::_Tmap_traits<unsigned long,IData *,std::less<unsigned long>,std::allocator<std::pair<unsigned long const ,IData *> >,0> >::iterator>
PUBLIC	?upper_bound@?$_Tree@V?$_Tmap_traits@KPAVIData@@U?$less@K@std@@V?$allocator@U?$pair@$$CBKPAVIData@@@std@@@3@$0A@@std@@@std@@QAE?AViterator@12@ABK@Z ; std::_Tree<std::_Tmap_traits<unsigned long,IData *,std::less<unsigned long>,std::allocator<std::pair<unsigned long const ,IData *> >,0> >::upper_bound
; Function compile flags: /Odt /RTCsu
;	COMDAT ?equal_range@?$_Tree@V?$_Tmap_traits@KPAVIData@@U?$less@K@std@@V?$allocator@U?$pair@$$CBKPAVIData@@@std@@@3@$0A@@std@@@std@@QAE?AU?$pair@Viterator@?$_Tree@V?$_Tmap_traits@KPAVIData@@U?$less@K@std@@V?$allocator@U?$pair@$$CBKPAVIData@@@std@@@3@$0A@@std@@@std@@V123@@2@ABK@Z
_TEXT	SEGMENT
$T190293 = -12						; size = 4
$T190292 = -8						; size = 4
_this$ = -4						; size = 4
___$ReturnUdt$ = 8					; size = 4
__Keyval$ = 12						; size = 4
?equal_range@?$_Tree@V?$_Tmap_traits@KPAVIData@@U?$less@K@std@@V?$allocator@U?$pair@$$CBKPAVIData@@@std@@@3@$0A@@std@@@std@@QAE?AU?$pair@Viterator@?$_Tree@V?$_Tmap_traits@KPAVIData@@U?$less@K@std@@V?$allocator@U?$pair@$$CBKPAVIData@@@std@@@3@$0A@@std@@@std@@V123@@2@ABK@Z PROC NEAR ; std::_Tree<std::_Tmap_traits<unsigned long,IData *,std::less<unsigned long>,std::allocator<std::pair<unsigned long const ,IData *> >,0> >::equal_range, COMDAT
; _this$ = ecx

; 829  : 		{	// find range equivalent to _Keyval in mutable tree

  00000	55		 push	 ebp
  00001	8b ec		 mov	 ebp, esp
  00003	83 ec 0c	 sub	 esp, 12			; 0000000cH
  00006	c7 45 f4 cc cc
	cc cc		 mov	 DWORD PTR [ebp-12], -858993460 ; ccccccccH
  0000d	c7 45 f8 cc cc
	cc cc		 mov	 DWORD PTR [ebp-8], -858993460 ; ccccccccH
  00014	c7 45 fc cc cc
	cc cc		 mov	 DWORD PTR [ebp-4], -858993460 ; ccccccccH
  0001b	89 4d fc	 mov	 DWORD PTR _this$[ebp], ecx

; 830  : 		return (_Pairii(lower_bound(_Keyval), upper_bound(_Keyval)));

  0001e	8b 45 0c	 mov	 eax, DWORD PTR __Keyval$[ebp]
  00021	50		 push	 eax
  00022	8d 4d f8	 lea	 ecx, DWORD PTR $T190292[ebp]
  00025	51		 push	 ecx
  00026	8b 4d fc	 mov	 ecx, DWORD PTR _this$[ebp]
  00029	e8 00 00 00 00	 call	 ?upper_bound@?$_Tree@V?$_Tmap_traits@KPAVIData@@U?$less@K@std@@V?$allocator@U?$pair@$$CBKPAVIData@@@std@@@3@$0A@@std@@@std@@QAE?AViterator@12@ABK@Z ; std::_Tree<std::_Tmap_traits<unsigned long,IData *,std::less<unsigned long>,std::allocator<std::pair<unsigned long const ,IData *> >,0> >::upper_bound
  0002e	50		 push	 eax
  0002f	8b 55 0c	 mov	 edx, DWORD PTR __Keyval$[ebp]
  00032	52		 push	 edx
  00033	8d 45 f4	 lea	 eax, DWORD PTR $T190293[ebp]
  00036	50		 push	 eax
  00037	8b 4d fc	 mov	 ecx, DWORD PTR _this$[ebp]
  0003a	e8 00 00 00 00	 call	 ?lower_bound@?$_Tree@V?$_Tmap_traits@KPAVIData@@U?$less@K@std@@V?$allocator@U?$pair@$$CBKPAVIData@@@std@@@3@$0A@@std@@@std@@QAE?AViterator@12@ABK@Z ; std::_Tree<std::_Tmap_traits<unsigned long,IData *,std::less<unsigned long>,std::allocator<std::pair<unsigned long const ,IData *> >,0> >::lower_bound
  0003f	50		 push	 eax
  00040	8b 4d 08	 mov	 ecx, DWORD PTR ___$ReturnUdt$[ebp]
  00043	e8 00 00 00 00	 call	 ??0?$pair@Viterator@?$_Tree@V?$_Tmap_traits@KPAVIData@@U?$less@K@std@@V?$allocator@U?$pair@$$CBKPAVIData@@@std@@@3@$0A@@std@@@std@@V123@@std@@QAE@ABViterator@?$_Tree@V?$_Tmap_traits@KPAVIData@@U?$less@K@std@@V?$allocator@U?$pair@$$CBKPAVIData@@@std@@@3@$0A@@std@@@1@0@Z ; std::pair<std::_Tree<std::_Tmap_traits<unsigned long,IData *,std::less<unsigned long>,std::allocator<std::pair<unsigned long const ,IData *> >,0> >::iterator,std::_Tree<std::_Tmap_traits<unsigned long,IData *,std::less<unsigned long>,std::allocator<std::pair<unsigned long const ,IData *> >,0> >::iterator>::pair<std::_Tree<std::_Tmap_traits<unsigned long,IData *,std::less<unsigned long>,std::allocator<std::pair<unsigned long const ,IData *> >,0> >::iterator,std::_Tree<std::_Tmap_traits<unsigned long,IData *,std::less<unsigned long>,std::allocator<std::pair<unsigned long const ,IData *> >,0> >::iterator>
  00048	8b 45 08	 mov	 eax, DWORD PTR ___$ReturnUdt$[ebp]

; 831  : 		}

  0004b	83 c4 0c	 add	 esp, 12			; 0000000cH
  0004e	3b ec		 cmp	 ebp, esp
  00050	e8 00 00 00 00	 call	 __RTC_CheckEsp
  00055	8b e5		 mov	 esp, ebp
  00057	5d		 pop	 ebp
  00058	c2 08 00	 ret	 8
?equal_range@?$_Tree@V?$_Tmap_traits@KPAVIData@@U?$less@K@std@@V?$allocator@U?$pair@$$CBKPAVIData@@@std@@@3@$0A@@std@@@std@@QAE?AU?$pair@Viterator@?$_Tree@V?$_Tmap_traits@KPAVIData@@U?$less@K@std@@V?$allocator@U?$pair@$$CBKPAVIData@@@std@@@3@$0A@@std@@@std@@V123@@2@ABK@Z ENDP ; std::_Tree<std::_Tmap_traits<unsigned long,IData *,std::less<unsigned long>,std::allocator<std::pair<unsigned long const ,IData *> >,0> >::equal_range
_TEXT	ENDS
PUBLIC	?deallocate@?$allocator@U_Node@?$_Tree_nod@V?$_Tmap_traits@KPAVIData@@U?$less@K@std@@V?$allocator@U?$pair@$$CBKPAVIData@@@std@@@3@$0A@@std@@@std@@@std@@QAEXPAU_Node@?$_Tree_nod@V?$_Tmap_traits@KPAVIData@@U?$less@K@std@@V?$allocator@U?$pair@$$CBKPAVIData@@@std@@@3@$0A@@std@@@2@I@Z ; std::allocator<std::_Tree_nod<std::_Tmap_traits<unsigned long,IData *,std::less<unsigned long>,std::allocator<std::pair<unsigned long const ,IData *> >,0> >::_Node>::deallocate
PUBLIC	?destroy@?$allocator@U_Node@?$_Tree_nod@V?$_Tmap_traits@KPAVIData@@U?$less@K@std@@V?$allocator@U?$pair@$$CBKPAVIData@@@std@@@3@$0A@@std@@@std@@@std@@QAEXPAU_Node@?$_Tree_nod@V?$_Tmap_traits@KPAVIData@@U?$less@K@std@@V?$allocator@U?$pair@$$CBKPAVIData@@@std@@@3@$0A@@std@@@2@@Z ; std::allocator<std::_Tree_nod<std::_Tmap_traits<unsigned long,IData *,std::less<unsigned long>,std::allocator<std::pair<unsigned long const ,IData *> >,0> >::_Node>::destroy
PUBLIC	?_Left@?$_Tree@V?$_Tmap_traits@KPAVIData@@U?$less@K@std@@V?$allocator@U?$pair@$$CBKPAVIData@@@std@@@3@$0A@@std@@@std@@KAAAPAU_Node@?$_Tree_nod@V?$_Tmap_traits@KPAVIData@@U?$less@K@std@@V?$allocator@U?$pair@$$CBKPAVIData@@@std@@@3@$0A@@std@@@2@PAU342@@Z ; std::_Tree<std::_Tmap_traits<unsigned long,IData *,std::less<unsigned long>,std::allocator<std::pair<unsigned long const ,IData *> >,0> >::_Left
; Function compile flags: /Odt /RTCsu
;	COMDAT ?_Erase@?$_Tree@V?$_Tmap_traits@KPAVIData@@U?$less@K@std@@V?$allocator@U?$pair@$$CBKPAVIData@@@std@@@3@$0A@@std@@@std@@IAEXPAU_Node@?$_Tree_nod@V?$_Tmap_traits@KPAVIData@@U?$less@K@std@@V?$allocator@U?$pair@$$CBKPAVIData@@@std@@@3@$0A@@std@@@2@@Z
_TEXT	SEGMENT
__Pnode$189198 = -8					; size = 4
_this$ = -4						; size = 4
__Rootnode$ = 8						; size = 4
?_Erase@?$_Tree@V?$_Tmap_traits@KPAVIData@@U?$less@K@std@@V?$allocator@U?$pair@$$CBKPAVIData@@@std@@@3@$0A@@std@@@std@@IAEXPAU_Node@?$_Tree_nod@V?$_Tmap_traits@KPAVIData@@U?$less@K@std@@V?$allocator@U?$pair@$$CBKPAVIData@@@std@@@3@$0A@@std@@@2@@Z PROC NEAR ; std::_Tree<std::_Tmap_traits<unsigned long,IData *,std::less<unsigned long>,std::allocator<std::pair<unsigned long const ,IData *> >,0> >::_Erase, COMDAT
; _this$ = ecx

; 890  : 		{	// free entire subtree, recursively

  00000	55		 push	 ebp
  00001	8b ec		 mov	 ebp, esp
  00003	83 ec 08	 sub	 esp, 8
  00006	c7 45 f8 cc cc
	cc cc		 mov	 DWORD PTR [ebp-8], -858993460 ; ccccccccH
  0000d	c7 45 fc cc cc
	cc cc		 mov	 DWORD PTR [ebp-4], -858993460 ; ccccccccH
  00014	89 4d fc	 mov	 DWORD PTR _this$[ebp], ecx

; 891  : 		for (_Nodeptr _Pnode = _Rootnode; !_Isnil(_Pnode); _Rootnode = _Pnode)

  00017	8b 45 08	 mov	 eax, DWORD PTR __Rootnode$[ebp]
  0001a	89 45 f8	 mov	 DWORD PTR __Pnode$189198[ebp], eax
  0001d	eb 06		 jmp	 SHORT $L189199
$L189200:
  0001f	8b 4d f8	 mov	 ecx, DWORD PTR __Pnode$189198[ebp]
  00022	89 4d 08	 mov	 DWORD PTR __Rootnode$[ebp], ecx
$L189199:
  00025	8b 55 f8	 mov	 edx, DWORD PTR __Pnode$189198[ebp]
  00028	52		 push	 edx
  00029	e8 00 00 00 00	 call	 ?_Isnil@?$_Tree@V?$_Tmap_traits@KPAVIData@@U?$less@K@std@@V?$allocator@U?$pair@$$CBKPAVIData@@@std@@@3@$0A@@std@@@std@@KAAADPAU_Node@?$_Tree_nod@V?$_Tmap_traits@KPAVIData@@U?$less@K@std@@V?$allocator@U?$pair@$$CBKPAVIData@@@std@@@3@$0A@@std@@@2@@Z ; std::_Tree<std::_Tmap_traits<unsigned long,IData *,std::less<unsigned long>,std::allocator<std::pair<unsigned long const ,IData *> >,0> >::_Isnil
  0002e	83 c4 04	 add	 esp, 4
  00031	0f be 00	 movsx	 eax, BYTE PTR [eax]
  00034	85 c0		 test	 eax, eax
  00036	75 4a		 jne	 SHORT $L189197

; 892  : 			{	// free subtrees, then node
; 893  : 			_Erase(_Right(_Pnode));

  00038	8b 4d f8	 mov	 ecx, DWORD PTR __Pnode$189198[ebp]
  0003b	51		 push	 ecx
  0003c	e8 00 00 00 00	 call	 ?_Right@?$_Tree@V?$_Tmap_traits@KPAVIData@@U?$less@K@std@@V?$allocator@U?$pair@$$CBKPAVIData@@@std@@@3@$0A@@std@@@std@@KAAAPAU_Node@?$_Tree_nod@V?$_Tmap_traits@KPAVIData@@U?$less@K@std@@V?$allocator@U?$pair@$$CBKPAVIData@@@std@@@3@$0A@@std@@@2@PAU342@@Z ; std::_Tree<std::_Tmap_traits<unsigned long,IData *,std::less<unsigned long>,std::allocator<std::pair<unsigned long const ,IData *> >,0> >::_Right
  00041	83 c4 04	 add	 esp, 4
  00044	8b 10		 mov	 edx, DWORD PTR [eax]
  00046	52		 push	 edx
  00047	8b 4d fc	 mov	 ecx, DWORD PTR _this$[ebp]
  0004a	e8 00 00 00 00	 call	 ?_Erase@?$_Tree@V?$_Tmap_traits@KPAVIData@@U?$less@K@std@@V?$allocator@U?$pair@$$CBKPAVIData@@@std@@@3@$0A@@std@@@std@@IAEXPAU_Node@?$_Tree_nod@V?$_Tmap_traits@KPAVIData@@U?$less@K@std@@V?$allocator@U?$pair@$$CBKPAVIData@@@std@@@3@$0A@@std@@@2@@Z ; std::_Tree<std::_Tmap_traits<unsigned long,IData *,std::less<unsigned long>,std::allocator<std::pair<unsigned long const ,IData *> >,0> >::_Erase

; 894  : 			_Pnode = _Left(_Pnode);

  0004f	8b 45 f8	 mov	 eax, DWORD PTR __Pnode$189198[ebp]
  00052	50		 push	 eax
  00053	e8 00 00 00 00	 call	 ?_Left@?$_Tree@V?$_Tmap_traits@KPAVIData@@U?$less@K@std@@V?$allocator@U?$pair@$$CBKPAVIData@@@std@@@3@$0A@@std@@@std@@KAAAPAU_Node@?$_Tree_nod@V?$_Tmap_traits@KPAVIData@@U?$less@K@std@@V?$allocator@U?$pair@$$CBKPAVIData@@@std@@@3@$0A@@std@@@2@PAU342@@Z ; std::_Tree<std::_Tmap_traits<unsigned long,IData *,std::less<unsigned long>,std::allocator<std::pair<unsigned long const ,IData *> >,0> >::_Left
  00058	83 c4 04	 add	 esp, 4
  0005b	8b 08		 mov	 ecx, DWORD PTR [eax]
  0005d	89 4d f8	 mov	 DWORD PTR __Pnode$189198[ebp], ecx

; 895  : 			this->_Alnod.destroy(_Rootnode);	// destroy, free erased node

  00060	8b 55 08	 mov	 edx, DWORD PTR __Rootnode$[ebp]
  00063	52		 push	 edx
  00064	8b 4d fc	 mov	 ecx, DWORD PTR _this$[ebp]
  00067	83 c1 01	 add	 ecx, 1
  0006a	e8 00 00 00 00	 call	 ?destroy@?$allocator@U_Node@?$_Tree_nod@V?$_Tmap_traits@KPAVIData@@U?$less@K@std@@V?$allocator@U?$pair@$$CBKPAVIData@@@std@@@3@$0A@@std@@@std@@@std@@QAEXPAU_Node@?$_Tree_nod@V?$_Tmap_traits@KPAVIData@@U?$less@K@std@@V?$allocator@U?$pair@$$CBKPAVIData@@@std@@@3@$0A@@std@@@2@@Z ; std::allocator<std::_Tree_nod<std::_Tmap_traits<unsigned long,IData *,std::less<unsigned long>,std::allocator<std::pair<unsigned long const ,IData *> >,0> >::_Node>::destroy

; 896  : 			this->_Alnod.deallocate(_Rootnode, 1);

  0006f	6a 01		 push	 1
  00071	8b 45 08	 mov	 eax, DWORD PTR __Rootnode$[ebp]
  00074	50		 push	 eax
  00075	8b 4d fc	 mov	 ecx, DWORD PTR _this$[ebp]
  00078	83 c1 01	 add	 ecx, 1
  0007b	e8 00 00 00 00	 call	 ?deallocate@?$allocator@U_Node@?$_Tree_nod@V?$_Tmap_traits@KPAVIData@@U?$less@K@std@@V?$allocator@U?$pair@$$CBKPAVIData@@@std@@@3@$0A@@std@@@std@@@std@@QAEXPAU_Node@?$_Tree_nod@V?$_Tmap_traits@KPAVIData@@U?$less@K@std@@V?$allocator@U?$pair@$$CBKPAVIData@@@std@@@3@$0A@@std@@@2@I@Z ; std::allocator<std::_Tree_nod<std::_Tmap_traits<unsigned long,IData *,std::less<unsigned long>,std::allocator<std::pair<unsigned long const ,IData *> >,0> >::_Node>::deallocate

; 897  : 			}

  00080	eb 9d		 jmp	 SHORT $L189200
$L189197:

; 898  : 		}

  00082	83 c4 08	 add	 esp, 8
  00085	3b ec		 cmp	 ebp, esp
  00087	e8 00 00 00 00	 call	 __RTC_CheckEsp
  0008c	8b e5		 mov	 esp, ebp
  0008e	5d		 pop	 ebp
  0008f	c2 04 00	 ret	 4
?_Erase@?$_Tree@V?$_Tmap_traits@KPAVIData@@U?$less@K@std@@V?$allocator@U?$pair@$$CBKPAVIData@@@std@@@3@$0A@@std@@@std@@IAEXPAU_Node@?$_Tree_nod@V?$_Tmap_traits@KPAVIData@@U?$less@K@std@@V?$allocator@U?$pair@$$CBKPAVIData@@@std@@@3@$0A@@std@@@2@@Z ENDP ; std::_Tree<std::_Tmap_traits<unsigned long,IData *,std::less<unsigned long>,std::allocator<std::pair<unsigned long const ,IData *> >,0> >::_Erase
; Function compile flags: /Odt /RTCsu
_TEXT	ENDS
;	COMDAT ?_Lmost@?$_Tree@V?$_Tmap_traits@KPAVIData@@U?$less@K@std@@V?$allocator@U?$pair@$$CBKPAVIData@@@std@@@3@$0A@@std@@@std@@IAEAAPAU_Node@?$_Tree_nod@V?$_Tmap_traits@KPAVIData@@U?$less@K@std@@V?$allocator@U?$pair@$$CBKPAVIData@@@std@@@3@$0A@@std@@@2@XZ
_TEXT	SEGMENT
_this$ = -4						; size = 4
?_Lmost@?$_Tree@V?$_Tmap_traits@KPAVIData@@U?$less@K@std@@V?$allocator@U?$pair@$$CBKPAVIData@@@std@@@3@$0A@@std@@@std@@IAEAAPAU_Node@?$_Tree_nod@V?$_Tmap_traits@KPAVIData@@U?$less@K@std@@V?$allocator@U?$pair@$$CBKPAVIData@@@std@@@3@$0A@@std@@@2@XZ PROC NEAR ; std::_Tree<std::_Tmap_traits<unsigned long,IData *,std::less<unsigned long>,std::allocator<std::pair<unsigned long const ,IData *> >,0> >::_Lmost, COMDAT
; _this$ = ecx

; 1004 : 		{	// return leftmost node in mutable tree

  00000	55		 push	 ebp
  00001	8b ec		 mov	 ebp, esp
  00003	51		 push	 ecx
  00004	c7 45 fc cc cc
	cc cc		 mov	 DWORD PTR [ebp-4], -858993460 ; ccccccccH
  0000b	89 4d fc	 mov	 DWORD PTR _this$[ebp], ecx

; 1005 : 		return (_Left(_Myhead));

  0000e	8b 45 fc	 mov	 eax, DWORD PTR _this$[ebp]
  00011	8b 48 04	 mov	 ecx, DWORD PTR [eax+4]
  00014	51		 push	 ecx
  00015	e8 00 00 00 00	 call	 ?_Left@?$_Tree@V?$_Tmap_traits@KPAVIData@@U?$less@K@std@@V?$allocator@U?$pair@$$CBKPAVIData@@@std@@@3@$0A@@std@@@std@@KAAAPAU_Node@?$_Tree_nod@V?$_Tmap_traits@KPAVIData@@U?$less@K@std@@V?$allocator@U?$pair@$$CBKPAVIData@@@std@@@3@$0A@@std@@@2@PAU342@@Z ; std::_Tree<std::_Tmap_traits<unsigned long,IData *,std::less<unsigned long>,std::allocator<std::pair<unsigned long const ,IData *> >,0> >::_Left
  0001a	83 c4 04	 add	 esp, 4

; 1006 : 		}

  0001d	83 c4 04	 add	 esp, 4
  00020	3b ec		 cmp	 ebp, esp
  00022	e8 00 00 00 00	 call	 __RTC_CheckEsp
  00027	8b e5		 mov	 esp, ebp
  00029	5d		 pop	 ebp
  0002a	c3		 ret	 0
?_Lmost@?$_Tree@V?$_Tmap_traits@KPAVIData@@U?$less@K@std@@V?$allocator@U?$pair@$$CBKPAVIData@@@std@@@3@$0A@@std@@@std@@IAEAAPAU_Node@?$_Tree_nod@V?$_Tmap_traits@KPAVIData@@U?$less@K@std@@V?$allocator@U?$pair@$$CBKPAVIData@@@std@@@3@$0A@@std@@@2@XZ ENDP ; std::_Tree<std::_Tmap_traits<unsigned long,IData *,std::less<unsigned long>,std::allocator<std::pair<unsigned long const ,IData *> >,0> >::_Lmost
; Function compile flags: /Odt /RTCsu
_TEXT	ENDS
;	COMDAT ?_Rmost@?$_Tree@V?$_Tmap_traits@KPAVIData@@U?$less@K@std@@V?$allocator@U?$pair@$$CBKPAVIData@@@std@@@3@$0A@@std@@@std@@IAEAAPAU_Node@?$_Tree_nod@V?$_Tmap_traits@KPAVIData@@U?$less@K@std@@V?$allocator@U?$pair@$$CBKPAVIData@@@std@@@3@$0A@@std@@@2@XZ
_TEXT	SEGMENT
_this$ = -4						; size = 4
?_Rmost@?$_Tree@V?$_Tmap_traits@KPAVIData@@U?$less@K@std@@V?$allocator@U?$pair@$$CBKPAVIData@@@std@@@3@$0A@@std@@@std@@IAEAAPAU_Node@?$_Tree_nod@V?$_Tmap_traits@KPAVIData@@U?$less@K@std@@V?$allocator@U?$pair@$$CBKPAVIData@@@std@@@3@$0A@@std@@@2@XZ PROC NEAR ; std::_Tree<std::_Tmap_traits<unsigned long,IData *,std::less<unsigned long>,std::allocator<std::pair<unsigned long const ,IData *> >,0> >::_Rmost, COMDAT
; _this$ = ecx

; 1048 : 		{	// return rightmost node in mutable tree

  00000	55		 push	 ebp
  00001	8b ec		 mov	 ebp, esp
  00003	51		 push	 ecx
  00004	c7 45 fc cc cc
	cc cc		 mov	 DWORD PTR [ebp-4], -858993460 ; ccccccccH
  0000b	89 4d fc	 mov	 DWORD PTR _this$[ebp], ecx

; 1049 : 		return (_Right(_Myhead));

  0000e	8b 45 fc	 mov	 eax, DWORD PTR _this$[ebp]
  00011	8b 48 04	 mov	 ecx, DWORD PTR [eax+4]
  00014	51		 push	 ecx
  00015	e8 00 00 00 00	 call	 ?_Right@?$_Tree@V?$_Tmap_traits@KPAVIData@@U?$less@K@std@@V?$allocator@U?$pair@$$CBKPAVIData@@@std@@@3@$0A@@std@@@std@@KAAAPAU_Node@?$_Tree_nod@V?$_Tmap_traits@KPAVIData@@U?$less@K@std@@V?$allocator@U?$pair@$$CBKPAVIData@@@std@@@3@$0A@@std@@@2@PAU342@@Z ; std::_Tree<std::_Tmap_traits<unsigned long,IData *,std::less<unsigned long>,std::allocator<std::pair<unsigned long const ,IData *> >,0> >::_Right
  0001a	83 c4 04	 add	 esp, 4

; 1050 : 		}

  0001d	83 c4 04	 add	 esp, 4
  00020	3b ec		 cmp	 ebp, esp
  00022	e8 00 00 00 00	 call	 __RTC_CheckEsp
  00027	8b e5		 mov	 esp, ebp
  00029	5d		 pop	 ebp
  0002a	c3		 ret	 0
?_Rmost@?$_Tree@V?$_Tmap_traits@KPAVIData@@U?$less@K@std@@V?$allocator@U?$pair@$$CBKPAVIData@@@std@@@3@$0A@@std@@@std@@IAEAAPAU_Node@?$_Tree_nod@V?$_Tmap_traits@KPAVIData@@U?$less@K@std@@V?$allocator@U?$pair@$$CBKPAVIData@@@std@@@3@$0A@@std@@@2@XZ ENDP ; std::_Tree<std::_Tmap_traits<unsigned long,IData *,std::less<unsigned long>,std::allocator<std::pair<unsigned long const ,IData *> >,0> >::_Rmost
_TEXT	ENDS
PUBLIC	?_Parent@?$_Tree@V?$_Tmap_traits@KPAVIData@@U?$less@K@std@@V?$allocator@U?$pair@$$CBKPAVIData@@@std@@@3@$0A@@std@@@std@@KAAAPAU_Node@?$_Tree_nod@V?$_Tmap_traits@KPAVIData@@U?$less@K@std@@V?$allocator@U?$pair@$$CBKPAVIData@@@std@@@3@$0A@@std@@@2@PAU342@@Z ; std::_Tree<std::_Tmap_traits<unsigned long,IData *,std::less<unsigned long>,std::allocator<std::pair<unsigned long const ,IData *> >,0> >::_Parent
; Function compile flags: /Odt /RTCsu
;	COMDAT ?_Root@?$_Tree@V?$_Tmap_traits@KPAVIData@@U?$less@K@std@@V?$allocator@U?$pair@$$CBKPAVIData@@@std@@@3@$0A@@std@@@std@@IAEAAPAU_Node@?$_Tree_nod@V?$_Tmap_traits@KPAVIData@@U?$less@K@std@@V?$allocator@U?$pair@$$CBKPAVIData@@@std@@@3@$0A@@std@@@2@XZ
_TEXT	SEGMENT
_this$ = -4						; size = 4
?_Root@?$_Tree@V?$_Tmap_traits@KPAVIData@@U?$less@K@std@@V?$allocator@U?$pair@$$CBKPAVIData@@@std@@@3@$0A@@std@@@std@@IAEAAPAU_Node@?$_Tree_nod@V?$_Tmap_traits@KPAVIData@@U?$less@K@std@@V?$allocator@U?$pair@$$CBKPAVIData@@@std@@@3@$0A@@std@@@2@XZ PROC NEAR ; std::_Tree<std::_Tmap_traits<unsigned long,IData *,std::less<unsigned long>,std::allocator<std::pair<unsigned long const ,IData *> >,0> >::_Root, COMDAT
; _this$ = ecx

; 1058 : 		{	// return root of mutable tree

  00000	55		 push	 ebp
  00001	8b ec		 mov	 ebp, esp
  00003	51		 push	 ecx
  00004	c7 45 fc cc cc
	cc cc		 mov	 DWORD PTR [ebp-4], -858993460 ; ccccccccH
  0000b	89 4d fc	 mov	 DWORD PTR _this$[ebp], ecx

; 1059 : 		return (_Parent(_Myhead));

  0000e	8b 45 fc	 mov	 eax, DWORD PTR _this$[ebp]
  00011	8b 48 04	 mov	 ecx, DWORD PTR [eax+4]
  00014	51		 push	 ecx
  00015	e8 00 00 00 00	 call	 ?_Parent@?$_Tree@V?$_Tmap_traits@KPAVIData@@U?$less@K@std@@V?$allocator@U?$pair@$$CBKPAVIData@@@std@@@3@$0A@@std@@@std@@KAAAPAU_Node@?$_Tree_nod@V?$_Tmap_traits@KPAVIData@@U?$less@K@std@@V?$allocator@U?$pair@$$CBKPAVIData@@@std@@@3@$0A@@std@@@2@PAU342@@Z ; std::_Tree<std::_Tmap_traits<unsigned long,IData *,std::less<unsigned long>,std::allocator<std::pair<unsigned long const ,IData *> >,0> >::_Parent
  0001a	83 c4 04	 add	 esp, 4

; 1060 : 		}

  0001d	83 c4 04	 add	 esp, 4
  00020	3b ec		 cmp	 ebp, esp
  00022	e8 00 00 00 00	 call	 __RTC_CheckEsp
  00027	8b e5		 mov	 esp, ebp
  00029	5d		 pop	 ebp
  0002a	c3		 ret	 0
?_Root@?$_Tree@V?$_Tmap_traits@KPAVIData@@U?$less@K@std@@V?$allocator@U?$pair@$$CBKPAVIData@@@std@@@3@$0A@@std@@@std@@IAEAAPAU_Node@?$_Tree_nod@V?$_Tmap_traits@KPAVIData@@U?$less@K@std@@V?$allocator@U?$pair@$$CBKPAVIData@@@std@@@3@$0A@@std@@@2@XZ ENDP ; std::_Tree<std::_Tmap_traits<unsigned long,IData *,std::less<unsigned long>,std::allocator<std::pair<unsigned long const ,IData *> >,0> >::_Root
_TEXT	ENDS
PUBLIC	?destroy@?$allocator@PAU_Node@?$_Tree_nod@V?$_Tmap_traits@KPAVIData@@U?$less@K@std@@V?$allocator@U?$pair@$$CBKPAVIData@@@std@@@3@$0A@@std@@@std@@@std@@QAEXPAPAU_Node@?$_Tree_nod@V?$_Tmap_traits@KPAVIData@@U?$less@K@std@@V?$allocator@U?$pair@$$CBKPAVIData@@@std@@@3@$0A@@std@@@2@@Z ; std::allocator<std::_Tree_nod<std::_Tmap_traits<unsigned long,IData *,std::less<unsigned long>,std::allocator<std::pair<unsigned long const ,IData *> >,0> >::_Node *>::destroy
; Function compile flags: /Odt /RTCsu
;	COMDAT ?_Tidy@?$_Tree@V?$_Tmap_traits@KPAVIData@@U?$less@K@std@@V?$allocator@U?$pair@$$CBKPAVIData@@@std@@@3@$0A@@std@@@std@@IAEXXZ
_TEXT	SEGMENT
$T190301 = -16						; size = 4
$T190300 = -12						; size = 4
$T190299 = -8						; size = 4
_this$ = -4						; size = 4
?_Tidy@?$_Tree@V?$_Tmap_traits@KPAVIData@@U?$less@K@std@@V?$allocator@U?$pair@$$CBKPAVIData@@@std@@@3@$0A@@std@@@std@@IAEXXZ PROC NEAR ; std::_Tree<std::_Tmap_traits<unsigned long,IData *,std::less<unsigned long>,std::allocator<std::pair<unsigned long const ,IData *> >,0> >::_Tidy, COMDAT
; _this$ = ecx

; 1142 : 		{	// free all storage

  00000	55		 push	 ebp
  00001	8b ec		 mov	 ebp, esp
  00003	83 ec 10	 sub	 esp, 16			; 00000010H
  00006	b8 cc cc cc cc	 mov	 eax, -858993460		; ccccccccH
  0000b	89 45 f0	 mov	 DWORD PTR [ebp-16], eax
  0000e	89 45 f4	 mov	 DWORD PTR [ebp-12], eax
  00011	89 45 f8	 mov	 DWORD PTR [ebp-8], eax
  00014	89 45 fc	 mov	 DWORD PTR [ebp-4], eax
  00017	89 4d fc	 mov	 DWORD PTR _this$[ebp], ecx

; 1143 : 		erase(begin(), end());

  0001a	8d 45 f8	 lea	 eax, DWORD PTR $T190299[ebp]
  0001d	50		 push	 eax
  0001e	8b 4d fc	 mov	 ecx, DWORD PTR _this$[ebp]
  00021	e8 00 00 00 00	 call	 ?end@?$_Tree@V?$_Tmap_traits@KPAVIData@@U?$less@K@std@@V?$allocator@U?$pair@$$CBKPAVIData@@@std@@@3@$0A@@std@@@std@@QAE?AViterator@12@XZ ; std::_Tree<std::_Tmap_traits<unsigned long,IData *,std::less<unsigned long>,std::allocator<std::pair<unsigned long const ,IData *> >,0> >::end
  00026	8b 08		 mov	 ecx, DWORD PTR [eax]
  00028	51		 push	 ecx
  00029	8d 55 f4	 lea	 edx, DWORD PTR $T190300[ebp]
  0002c	52		 push	 edx
  0002d	8b 4d fc	 mov	 ecx, DWORD PTR _this$[ebp]
  00030	e8 00 00 00 00	 call	 ?begin@?$_Tree@V?$_Tmap_traits@KPAVIData@@U?$less@K@std@@V?$allocator@U?$pair@$$CBKPAVIData@@@std@@@3@$0A@@std@@@std@@QAE?AViterator@12@XZ ; std::_Tree<std::_Tmap_traits<unsigned long,IData *,std::less<unsigned long>,std::allocator<std::pair<unsigned long const ,IData *> >,0> >::begin
  00035	8b 00		 mov	 eax, DWORD PTR [eax]
  00037	50		 push	 eax
  00038	8d 4d f0	 lea	 ecx, DWORD PTR $T190301[ebp]
  0003b	51		 push	 ecx
  0003c	8b 4d fc	 mov	 ecx, DWORD PTR _this$[ebp]
  0003f	e8 00 00 00 00	 call	 ?erase@?$_Tree@V?$_Tmap_traits@KPAVIData@@U?$less@K@std@@V?$allocator@U?$pair@$$CBKPAVIData@@@std@@@3@$0A@@std@@@std@@QAE?AViterator@12@V312@0@Z ; std::_Tree<std::_Tmap_traits<unsigned long,IData *,std::less<unsigned long>,std::allocator<std::pair<unsigned long const ,IData *> >,0> >::erase

; 1144 : 		this->_Alptr.destroy(&_Left(_Myhead));

  00044	8b 55 fc	 mov	 edx, DWORD PTR _this$[ebp]
  00047	8b 42 04	 mov	 eax, DWORD PTR [edx+4]
  0004a	50		 push	 eax
  0004b	e8 00 00 00 00	 call	 ?_Left@?$_Tree@V?$_Tmap_traits@KPAVIData@@U?$less@K@std@@V?$allocator@U?$pair@$$CBKPAVIData@@@std@@@3@$0A@@std@@@std@@KAAAPAU_Node@?$_Tree_nod@V?$_Tmap_traits@KPAVIData@@U?$less@K@std@@V?$allocator@U?$pair@$$CBKPAVIData@@@std@@@3@$0A@@std@@@2@PAU342@@Z ; std::_Tree<std::_Tmap_traits<unsigned long,IData *,std::less<unsigned long>,std::allocator<std::pair<unsigned long const ,IData *> >,0> >::_Left
  00050	83 c4 04	 add	 esp, 4
  00053	50		 push	 eax
  00054	8b 4d fc	 mov	 ecx, DWORD PTR _this$[ebp]
  00057	83 c1 02	 add	 ecx, 2
  0005a	e8 00 00 00 00	 call	 ?destroy@?$allocator@PAU_Node@?$_Tree_nod@V?$_Tmap_traits@KPAVIData@@U?$less@K@std@@V?$allocator@U?$pair@$$CBKPAVIData@@@std@@@3@$0A@@std@@@std@@@std@@QAEXPAPAU_Node@?$_Tree_nod@V?$_Tmap_traits@KPAVIData@@U?$less@K@std@@V?$allocator@U?$pair@$$CBKPAVIData@@@std@@@3@$0A@@std@@@2@@Z ; std::allocator<std::_Tree_nod<std::_Tmap_traits<unsigned long,IData *,std::less<unsigned long>,std::allocator<std::pair<unsigned long const ,IData *> >,0> >::_Node *>::destroy

; 1145 : 		this->_Alptr.destroy(&_Parent(_Myhead));

  0005f	8b 4d fc	 mov	 ecx, DWORD PTR _this$[ebp]
  00062	8b 51 04	 mov	 edx, DWORD PTR [ecx+4]
  00065	52		 push	 edx
  00066	e8 00 00 00 00	 call	 ?_Parent@?$_Tree@V?$_Tmap_traits@KPAVIData@@U?$less@K@std@@V?$allocator@U?$pair@$$CBKPAVIData@@@std@@@3@$0A@@std@@@std@@KAAAPAU_Node@?$_Tree_nod@V?$_Tmap_traits@KPAVIData@@U?$less@K@std@@V?$allocator@U?$pair@$$CBKPAVIData@@@std@@@3@$0A@@std@@@2@PAU342@@Z ; std::_Tree<std::_Tmap_traits<unsigned long,IData *,std::less<unsigned long>,std::allocator<std::pair<unsigned long const ,IData *> >,0> >::_Parent
  0006b	83 c4 04	 add	 esp, 4
  0006e	50		 push	 eax
  0006f	8b 4d fc	 mov	 ecx, DWORD PTR _this$[ebp]
  00072	83 c1 02	 add	 ecx, 2
  00075	e8 00 00 00 00	 call	 ?destroy@?$allocator@PAU_Node@?$_Tree_nod@V?$_Tmap_traits@KPAVIData@@U?$less@K@std@@V?$allocator@U?$pair@$$CBKPAVIData@@@std@@@3@$0A@@std@@@std@@@std@@QAEXPAPAU_Node@?$_Tree_nod@V?$_Tmap_traits@KPAVIData@@U?$less@K@std@@V?$allocator@U?$pair@$$CBKPAVIData@@@std@@@3@$0A@@std@@@2@@Z ; std::allocator<std::_Tree_nod<std::_Tmap_traits<unsigned long,IData *,std::less<unsigned long>,std::allocator<std::pair<unsigned long const ,IData *> >,0> >::_Node *>::destroy

; 1146 : 		this->_Alptr.destroy(&_Right(_Myhead));

  0007a	8b 45 fc	 mov	 eax, DWORD PTR _this$[ebp]
  0007d	8b 48 04	 mov	 ecx, DWORD PTR [eax+4]
  00080	51		 push	 ecx
  00081	e8 00 00 00 00	 call	 ?_Right@?$_Tree@V?$_Tmap_traits@KPAVIData@@U?$less@K@std@@V?$allocator@U?$pair@$$CBKPAVIData@@@std@@@3@$0A@@std@@@std@@KAAAPAU_Node@?$_Tree_nod@V?$_Tmap_traits@KPAVIData@@U?$less@K@std@@V?$allocator@U?$pair@$$CBKPAVIData@@@std@@@3@$0A@@std@@@2@PAU342@@Z ; std::_Tree<std::_Tmap_traits<unsigned long,IData *,std::less<unsigned long>,std::allocator<std::pair<unsigned long const ,IData *> >,0> >::_Right
  00086	83 c4 04	 add	 esp, 4
  00089	50		 push	 eax
  0008a	8b 4d fc	 mov	 ecx, DWORD PTR _this$[ebp]
  0008d	83 c1 02	 add	 ecx, 2
  00090	e8 00 00 00 00	 call	 ?destroy@?$allocator@PAU_Node@?$_Tree_nod@V?$_Tmap_traits@KPAVIData@@U?$less@K@std@@V?$allocator@U?$pair@$$CBKPAVIData@@@std@@@3@$0A@@std@@@std@@@std@@QAEXPAPAU_Node@?$_Tree_nod@V?$_Tmap_traits@KPAVIData@@U?$less@K@std@@V?$allocator@U?$pair@$$CBKPAVIData@@@std@@@3@$0A@@std@@@2@@Z ; std::allocator<std::_Tree_nod<std::_Tmap_traits<unsigned long,IData *,std::less<unsigned long>,std::allocator<std::pair<unsigned long const ,IData *> >,0> >::_Node *>::destroy

; 1147 : 		this->_Alnod.deallocate(_Myhead, 1);

  00095	6a 01		 push	 1
  00097	8b 55 fc	 mov	 edx, DWORD PTR _this$[ebp]
  0009a	8b 42 04	 mov	 eax, DWORD PTR [edx+4]
  0009d	50		 push	 eax
  0009e	8b 4d fc	 mov	 ecx, DWORD PTR _this$[ebp]
  000a1	83 c1 01	 add	 ecx, 1
  000a4	e8 00 00 00 00	 call	 ?deallocate@?$allocator@U_Node@?$_Tree_nod@V?$_Tmap_traits@KPAVIData@@U?$less@K@std@@V?$allocator@U?$pair@$$CBKPAVIData@@@std@@@3@$0A@@std@@@std@@@std@@QAEXPAU_Node@?$_Tree_nod@V?$_Tmap_traits@KPAVIData@@U?$less@K@std@@V?$allocator@U?$pair@$$CBKPAVIData@@@std@@@3@$0A@@std@@@2@I@Z ; std::allocator<std::_Tree_nod<std::_Tmap_traits<unsigned long,IData *,std::less<unsigned long>,std::allocator<std::pair<unsigned long const ,IData *> >,0> >::_Node>::deallocate

; 1148 : 		_Myhead = 0, _Mysize = 0;

  000a9	8b 4d fc	 mov	 ecx, DWORD PTR _this$[ebp]
  000ac	c7 41 04 00 00
	00 00		 mov	 DWORD PTR [ecx+4], 0
  000b3	8b 55 fc	 mov	 edx, DWORD PTR _this$[ebp]
  000b6	c7 42 08 00 00
	00 00		 mov	 DWORD PTR [edx+8], 0

; 1149 : 		}

  000bd	83 c4 10	 add	 esp, 16			; 00000010H
  000c0	3b ec		 cmp	 ebp, esp
  000c2	e8 00 00 00 00	 call	 __RTC_CheckEsp
  000c7	8b e5		 mov	 esp, ebp
  000c9	5d		 pop	 ebp
  000ca	c3		 ret	 0
?_Tidy@?$_Tree@V?$_Tmap_traits@KPAVIData@@U?$less@K@std@@V?$allocator@U?$pair@$$CBKPAVIData@@@std@@@3@$0A@@std@@@std@@IAEXXZ ENDP ; std::_Tree<std::_Tmap_traits<unsigned long,IData *,std::less<unsigned long>,std::allocator<std::pair<unsigned long const ,IData *> >,0> >::_Tidy
; Function compile flags: /Odt /RTCsu
; File d:\program files (x86)\microsoft visual studio .net 2003\vc7\include\xmemory
_TEXT	ENDS
;	COMDAT ??0?$allocator@U?$pair@$$CBKPAVIData@@@std@@@std@@QAE@XZ
_TEXT	SEGMENT
_this$ = -4						; size = 4
??0?$allocator@U?$pair@$$CBKPAVIData@@@std@@@std@@QAE@XZ PROC NEAR ; std::allocator<std::pair<unsigned long const ,IData *> >::allocator<std::pair<unsigned long const ,IData *> >, COMDAT
; _this$ = ecx

; 111  : 	allocator()

  00000	55		 push	 ebp
  00001	8b ec		 mov	 ebp, esp
  00003	51		 push	 ecx
  00004	c7 45 fc cc cc
	cc cc		 mov	 DWORD PTR [ebp-4], -858993460 ; ccccccccH
  0000b	89 4d fc	 mov	 DWORD PTR _this$[ebp], ecx

; 112  : 		{	// construct default allocator (do nothing)
; 113  : 		}

  0000e	8b 45 fc	 mov	 eax, DWORD PTR _this$[ebp]
  00011	8b e5		 mov	 esp, ebp
  00013	5d		 pop	 ebp
  00014	c3		 ret	 0
??0?$allocator@U?$pair@$$CBKPAVIData@@@std@@@std@@QAE@XZ ENDP ; std::allocator<std::pair<unsigned long const ,IData *> >::allocator<std::pair<unsigned long const ,IData *> >
; Function compile flags: /Odt /RTCsu
; File d:\program files (x86)\microsoft visual studio .net 2003\vc7\include\functional
_TEXT	ENDS
;	COMDAT ??R?$less@K@std@@QBE_NABK0@Z
_TEXT	SEGMENT
_this$ = -4						; size = 4
__Left$ = 8						; size = 4
__Right$ = 12						; size = 4
??R?$less@K@std@@QBE_NABK0@Z PROC NEAR			; std::less<unsigned long>::operator(), COMDAT
; _this$ = ecx

; 138  : 		{	// apply operator< to operands

  00000	55		 push	 ebp
  00001	8b ec		 mov	 ebp, esp
  00003	51		 push	 ecx
  00004	c7 45 fc cc cc
	cc cc		 mov	 DWORD PTR [ebp-4], -858993460 ; ccccccccH
  0000b	89 4d fc	 mov	 DWORD PTR _this$[ebp], ecx

; 139  : 		return (_Left < _Right);

  0000e	8b 45 08	 mov	 eax, DWORD PTR __Left$[ebp]
  00011	8b 4d 0c	 mov	 ecx, DWORD PTR __Right$[ebp]
  00014	8b 10		 mov	 edx, DWORD PTR [eax]
  00016	3b 11		 cmp	 edx, DWORD PTR [ecx]
  00018	1b c0		 sbb	 eax, eax
  0001a	f7 d8		 neg	 eax

; 140  : 		}

  0001c	8b e5		 mov	 esp, ebp
  0001e	5d		 pop	 ebp
  0001f	c2 08 00	 ret	 8
??R?$less@K@std@@QBE_NABK0@Z ENDP			; std::less<unsigned long>::operator()
_TEXT	ENDS
PUBLIC	??0const_iterator@?$_Tree@V?$_Tmap_traits@KPAVIData@@U?$less@K@std@@V?$allocator@U?$pair@$$CBKPAVIData@@@std@@@3@$0A@@std@@@std@@QAE@PAU_Node@?$_Tree_nod@V?$_Tmap_traits@KPAVIData@@U?$less@K@std@@V?$allocator@U?$pair@$$CBKPAVIData@@@std@@@3@$0A@@std@@@2@@Z ; std::_Tree<std::_Tmap_traits<unsigned long,IData *,std::less<unsigned long>,std::allocator<std::pair<unsigned long const ,IData *> >,0> >::const_iterator::const_iterator
; Function compile flags: /Odt /RTCsu
; File d:\program files (x86)\microsoft visual studio .net 2003\vc7\include\xtree
;	COMDAT ??0iterator@?$_Tree@V?$_Tmap_traits@KPAVIData@@U?$less@K@std@@V?$allocator@U?$pair@$$CBKPAVIData@@@std@@@3@$0A@@std@@@std@@QAE@PAU_Node@?$_Tree_nod@V?$_Tmap_traits@KPAVIData@@U?$less@K@std@@V?$allocator@U?$pair@$$CBKPAVIData@@@std@@@3@$0A@@std@@@2@@Z
_TEXT	SEGMENT
_this$ = -4						; size = 4
__Pnode$ = 8						; size = 4
??0iterator@?$_Tree@V?$_Tmap_traits@KPAVIData@@U?$less@K@std@@V?$allocator@U?$pair@$$CBKPAVIData@@@std@@@3@$0A@@std@@@std@@QAE@PAU_Node@?$_Tree_nod@V?$_Tmap_traits@KPAVIData@@U?$less@K@std@@V?$allocator@U?$pair@$$CBKPAVIData@@@std@@@3@$0A@@std@@@2@@Z PROC NEAR ; std::_Tree<std::_Tmap_traits<unsigned long,IData *,std::less<unsigned long>,std::allocator<std::pair<unsigned long const ,IData *> >,0> >::iterator::iterator, COMDAT
; _this$ = ecx

; 312  : 			{	// construct with node pointer _Pnode

  00000	55		 push	 ebp
  00001	8b ec		 mov	 ebp, esp
  00003	51		 push	 ecx
  00004	c7 45 fc cc cc
	cc cc		 mov	 DWORD PTR [ebp-4], -858993460 ; ccccccccH
  0000b	89 4d fc	 mov	 DWORD PTR _this$[ebp], ecx
  0000e	8b 45 08	 mov	 eax, DWORD PTR __Pnode$[ebp]
  00011	50		 push	 eax
  00012	8b 4d fc	 mov	 ecx, DWORD PTR _this$[ebp]
  00015	e8 00 00 00 00	 call	 ??0const_iterator@?$_Tree@V?$_Tmap_traits@KPAVIData@@U?$less@K@std@@V?$allocator@U?$pair@$$CBKPAVIData@@@std@@@3@$0A@@std@@@std@@QAE@PAU_Node@?$_Tree_nod@V?$_Tmap_traits@KPAVIData@@U?$less@K@std@@V?$allocator@U?$pair@$$CBKPAVIData@@@std@@@3@$0A@@std@@@2@@Z ; std::_Tree<std::_Tmap_traits<unsigned long,IData *,std::less<unsigned long>,std::allocator<std::pair<unsigned long const ,IData *> >,0> >::const_iterator::const_iterator

; 313  : 			}

  0001a	8b 45 fc	 mov	 eax, DWORD PTR _this$[ebp]
  0001d	83 c4 04	 add	 esp, 4
  00020	3b ec		 cmp	 ebp, esp
  00022	e8 00 00 00 00	 call	 __RTC_CheckEsp
  00027	8b e5		 mov	 esp, ebp
  00029	5d		 pop	 ebp
  0002a	c2 04 00	 ret	 4
??0iterator@?$_Tree@V?$_Tmap_traits@KPAVIData@@U?$less@K@std@@V?$allocator@U?$pair@$$CBKPAVIData@@@std@@@3@$0A@@std@@@std@@QAE@PAU_Node@?$_Tree_nod@V?$_Tmap_traits@KPAVIData@@U?$less@K@std@@V?$allocator@U?$pair@$$CBKPAVIData@@@std@@@3@$0A@@std@@@2@@Z ENDP ; std::_Tree<std::_Tmap_traits<unsigned long,IData *,std::less<unsigned long>,std::allocator<std::pair<unsigned long const ,IData *> >,0> >::iterator::iterator
_TEXT	ENDS
PUBLIC	??Dconst_iterator@?$_Tree@V?$_Tmap_traits@KPAVIData@@U?$less@K@std@@V?$allocator@U?$pair@$$CBKPAVIData@@@std@@@3@$0A@@std@@@std@@QBEABU?$pair@$$CBKPAVIData@@@2@XZ ; std::_Tree<std::_Tmap_traits<unsigned long,IData *,std::less<unsigned long>,std::allocator<std::pair<unsigned long const ,IData *> >,0> >::const_iterator::operator*
; Function compile flags: /Odt /RTCsu
;	COMDAT ??Diterator@?$_Tree@V?$_Tmap_traits@KPAVIData@@U?$less@K@std@@V?$allocator@U?$pair@$$CBKPAVIData@@@std@@@3@$0A@@std@@@std@@QBEAAU?$pair@$$CBKPAVIData@@@2@XZ
_TEXT	SEGMENT
_this$ = -4						; size = 4
??Diterator@?$_Tree@V?$_Tmap_traits@KPAVIData@@U?$less@K@std@@V?$allocator@U?$pair@$$CBKPAVIData@@@std@@@3@$0A@@std@@@std@@QBEAAU?$pair@$$CBKPAVIData@@@2@XZ PROC NEAR ; std::_Tree<std::_Tmap_traits<unsigned long,IData *,std::less<unsigned long>,std::allocator<std::pair<unsigned long const ,IData *> >,0> >::iterator::operator*, COMDAT
; _this$ = ecx

; 316  : 			{	// return designated value

  00000	55		 push	 ebp
  00001	8b ec		 mov	 ebp, esp
  00003	51		 push	 ecx
  00004	c7 45 fc cc cc
	cc cc		 mov	 DWORD PTR [ebp-4], -858993460 ; ccccccccH
  0000b	89 4d fc	 mov	 DWORD PTR _this$[ebp], ecx

; 317  : 			return ((reference)**(const_iterator *)this);

  0000e	8b 4d fc	 mov	 ecx, DWORD PTR _this$[ebp]
  00011	e8 00 00 00 00	 call	 ??Dconst_iterator@?$_Tree@V?$_Tmap_traits@KPAVIData@@U?$less@K@std@@V?$allocator@U?$pair@$$CBKPAVIData@@@std@@@3@$0A@@std@@@std@@QBEABU?$pair@$$CBKPAVIData@@@2@XZ ; std::_Tree<std::_Tmap_traits<unsigned long,IData *,std::less<unsigned long>,std::allocator<std::pair<unsigned long const ,IData *> >,0> >::const_iterator::operator*

; 318  : 			}

  00016	83 c4 04	 add	 esp, 4
  00019	3b ec		 cmp	 ebp, esp
  0001b	e8 00 00 00 00	 call	 __RTC_CheckEsp
  00020	8b e5		 mov	 esp, ebp
  00022	5d		 pop	 ebp
  00023	c3		 ret	 0
??Diterator@?$_Tree@V?$_Tmap_traits@KPAVIData@@U?$less@K@std@@V?$allocator@U?$pair@$$CBKPAVIData@@@std@@@3@$0A@@std@@@std@@QBEAAU?$pair@$$CBKPAVIData@@@2@XZ ENDP ; std::_Tree<std::_Tmap_traits<unsigned long,IData *,std::less<unsigned long>,std::allocator<std::pair<unsigned long const ,IData *> >,0> >::iterator::operator*
_TEXT	ENDS
PUBLIC	??Econst_iterator@?$_Tree@V?$_Tmap_traits@KPAVIData@@U?$less@K@std@@V?$allocator@U?$pair@$$CBKPAVIData@@@std@@@3@$0A@@std@@@std@@QAEAAV012@XZ ; std::_Tree<std::_Tmap_traits<unsigned long,IData *,std::less<unsigned long>,std::allocator<std::pair<unsigned long const ,IData *> >,0> >::const_iterator::operator++
; Function compile flags: /Odt /RTCsu
;	COMDAT ??Eiterator@?$_Tree@V?$_Tmap_traits@KPAVIData@@U?$less@K@std@@V?$allocator@U?$pair@$$CBKPAVIData@@@std@@@3@$0A@@std@@@std@@QAEAAV012@XZ
_TEXT	SEGMENT
_this$ = -4						; size = 4
??Eiterator@?$_Tree@V?$_Tmap_traits@KPAVIData@@U?$less@K@std@@V?$allocator@U?$pair@$$CBKPAVIData@@@std@@@3@$0A@@std@@@std@@QAEAAV012@XZ PROC NEAR ; std::_Tree<std::_Tmap_traits<unsigned long,IData *,std::less<unsigned long>,std::allocator<std::pair<unsigned long const ,IData *> >,0> >::iterator::operator++, COMDAT
; _this$ = ecx

; 326  : 			{	// preincrement

  00000	55		 push	 ebp
  00001	8b ec		 mov	 ebp, esp
  00003	51		 push	 ecx
  00004	c7 45 fc cc cc
	cc cc		 mov	 DWORD PTR [ebp-4], -858993460 ; ccccccccH
  0000b	89 4d fc	 mov	 DWORD PTR _this$[ebp], ecx

; 327  : 			++(*(const_iterator *)this);

  0000e	8b 4d fc	 mov	 ecx, DWORD PTR _this$[ebp]
  00011	e8 00 00 00 00	 call	 ??Econst_iterator@?$_Tree@V?$_Tmap_traits@KPAVIData@@U?$less@K@std@@V?$allocator@U?$pair@$$CBKPAVIData@@@std@@@3@$0A@@std@@@std@@QAEAAV012@XZ ; std::_Tree<std::_Tmap_traits<unsigned long,IData *,std::less<unsigned long>,std::allocator<std::pair<unsigned long const ,IData *> >,0> >::const_iterator::operator++

; 328  : 			return (*this);

  00016	8b 45 fc	 mov	 eax, DWORD PTR _this$[ebp]

; 329  : 			}

  00019	83 c4 04	 add	 esp, 4
  0001c	3b ec		 cmp	 ebp, esp
  0001e	e8 00 00 00 00	 call	 __RTC_CheckEsp
  00023	8b e5		 mov	 esp, ebp
  00025	5d		 pop	 ebp
  00026	c3		 ret	 0
??Eiterator@?$_Tree@V?$_Tmap_traits@KPAVIData@@U?$less@K@std@@V?$allocator@U?$pair@$$CBKPAVIData@@@std@@@3@$0A@@std@@@std@@QAEAAV012@XZ ENDP ; std::_Tree<std::_Tmap_traits<unsigned long,IData *,std::less<unsigned long>,std::allocator<std::pair<unsigned long const ,IData *> >,0> >::iterator::operator++
; Function compile flags: /Odt /RTCsu
_TEXT	ENDS
;	COMDAT ?_Mynode@const_iterator@?$_Tree@V?$_Tmap_traits@KPAVIData@@U?$less@K@std@@V?$allocator@U?$pair@$$CBKPAVIData@@@std@@@3@$0A@@std@@@std@@QBEPAU_Node@?$_Tree_nod@V?$_Tmap_traits@KPAVIData@@U?$less@K@std@@V?$allocator@U?$pair@$$CBKPAVIData@@@std@@@3@$0A@@std@@@3@XZ
_TEXT	SEGMENT
_this$ = -4						; size = 4
?_Mynode@const_iterator@?$_Tree@V?$_Tmap_traits@KPAVIData@@U?$less@K@std@@V?$allocator@U?$pair@$$CBKPAVIData@@@std@@@3@$0A@@std@@@std@@QBEPAU_Node@?$_Tree_nod@V?$_Tmap_traits@KPAVIData@@U?$less@K@std@@V?$allocator@U?$pair@$$CBKPAVIData@@@std@@@3@$0A@@std@@@3@XZ PROC NEAR ; std::_Tree<std::_Tmap_traits<unsigned long,IData *,std::less<unsigned long>,std::allocator<std::pair<unsigned long const ,IData *> >,0> >::const_iterator::_Mynode, COMDAT
; _this$ = ecx

; 283  : 			{	// return node pointer

  00000	55		 push	 ebp
  00001	8b ec		 mov	 ebp, esp
  00003	51		 push	 ecx
  00004	c7 45 fc cc cc
	cc cc		 mov	 DWORD PTR [ebp-4], -858993460 ; ccccccccH
  0000b	89 4d fc	 mov	 DWORD PTR _this$[ebp], ecx

; 284  : 			return (_Ptr);

  0000e	8b 45 fc	 mov	 eax, DWORD PTR _this$[ebp]
  00011	8b 00		 mov	 eax, DWORD PTR [eax]

; 285  : 			}

  00013	8b e5		 mov	 esp, ebp
  00015	5d		 pop	 ebp
  00016	c3		 ret	 0
?_Mynode@const_iterator@?$_Tree@V?$_Tmap_traits@KPAVIData@@U?$less@K@std@@V?$allocator@U?$pair@$$CBKPAVIData@@@std@@@3@$0A@@std@@@std@@QBEPAU_Node@?$_Tree_nod@V?$_Tmap_traits@KPAVIData@@U?$less@K@std@@V?$allocator@U?$pair@$$CBKPAVIData@@@std@@@3@$0A@@std@@@3@XZ ENDP ; std::_Tree<std::_Tmap_traits<unsigned long,IData *,std::less<unsigned long>,std::allocator<std::pair<unsigned long const ,IData *> >,0> >::const_iterator::_Mynode
; Function compile flags: /Odt /RTCsu
; File d:\program files (x86)\microsoft visual studio .net 2003\vc7\include\utility
_TEXT	ENDS
;	COMDAT ??0?$pair@$$CBKPAVIData@@@std@@QAE@ABKABQAVIData@@@Z
_TEXT	SEGMENT
_this$ = -4						; size = 4
__Val1$ = 8						; size = 4
__Val2$ = 12						; size = 4
??0?$pair@$$CBKPAVIData@@@std@@QAE@ABKABQAVIData@@@Z PROC NEAR ; std::pair<unsigned long const ,IData *>::pair<unsigned long const ,IData *>, COMDAT
; _this$ = ecx

; 34   : 		{	// construct from specified values

  00000	55		 push	 ebp
  00001	8b ec		 mov	 ebp, esp
  00003	51		 push	 ecx
  00004	c7 45 fc cc cc
	cc cc		 mov	 DWORD PTR [ebp-4], -858993460 ; ccccccccH
  0000b	89 4d fc	 mov	 DWORD PTR _this$[ebp], ecx
  0000e	8b 45 fc	 mov	 eax, DWORD PTR _this$[ebp]
  00011	8b 4d 08	 mov	 ecx, DWORD PTR __Val1$[ebp]
  00014	8b 11		 mov	 edx, DWORD PTR [ecx]
  00016	89 10		 mov	 DWORD PTR [eax], edx
  00018	8b 45 fc	 mov	 eax, DWORD PTR _this$[ebp]
  0001b	8b 4d 0c	 mov	 ecx, DWORD PTR __Val2$[ebp]
  0001e	8b 11		 mov	 edx, DWORD PTR [ecx]
  00020	89 50 04	 mov	 DWORD PTR [eax+4], edx

; 35   : 		}

  00023	8b 45 fc	 mov	 eax, DWORD PTR _this$[ebp]
  00026	8b e5		 mov	 esp, ebp
  00028	5d		 pop	 ebp
  00029	c2 08 00	 ret	 8
??0?$pair@$$CBKPAVIData@@@std@@QAE@ABKABQAVIData@@@Z ENDP ; std::pair<unsigned long const ,IData *>::pair<unsigned long const ,IData *>
; Function compile flags: /Odt /RTCsu
; File d:\program files (x86)\microsoft visual studio .net 2003\vc7\include\xtree
_TEXT	ENDS
;	COMDAT ?_Isnil@?$_Tree@V?$_Tmap_traits@KPAVIData@@U?$less@K@std@@V?$allocator@U?$pair@$$CBKPAVIData@@@std@@@3@$0A@@std@@@std@@KAAADPAU_Node@?$_Tree_nod@V?$_Tmap_traits@KPAVIData@@U?$less@K@std@@V?$allocator@U?$pair@$$CBKPAVIData@@@std@@@3@$0A@@std@@@2@@Z
_TEXT	SEGMENT
__Pnode$ = 8						; size = 4
?_Isnil@?$_Tree@V?$_Tmap_traits@KPAVIData@@U?$less@K@std@@V?$allocator@U?$pair@$$CBKPAVIData@@@std@@@3@$0A@@std@@@std@@KAAADPAU_Node@?$_Tree_nod@V?$_Tmap_traits@KPAVIData@@U?$less@K@std@@V?$allocator@U?$pair@$$CBKPAVIData@@@std@@@3@$0A@@std@@@2@@Z PROC NEAR ; std::_Tree<std::_Tmap_traits<unsigned long,IData *,std::less<unsigned long>,std::allocator<std::pair<unsigned long const ,IData *> >,0> >::_Isnil, COMDAT

; 136  : 		{	// return reference to nil flag in node

  00000	55		 push	 ebp
  00001	8b ec		 mov	 ebp, esp

; 137  : 		return ((_Charref)(*_Pnode)._Isnil);

  00003	8b 45 08	 mov	 eax, DWORD PTR __Pnode$[ebp]
  00006	83 c0 15	 add	 eax, 21			; 00000015H

; 138  : 		}

  00009	5d		 pop	 ebp
  0000a	c3		 ret	 0
?_Isnil@?$_Tree@V?$_Tmap_traits@KPAVIData@@U?$less@K@std@@V?$allocator@U?$pair@$$CBKPAVIData@@@std@@@3@$0A@@std@@@std@@KAAADPAU_Node@?$_Tree_nod@V?$_Tmap_traits@KPAVIData@@U?$less@K@std@@V?$allocator@U?$pair@$$CBKPAVIData@@@std@@@3@$0A@@std@@@2@@Z ENDP ; std::_Tree<std::_Tmap_traits<unsigned long,IData *,std::less<unsigned long>,std::allocator<std::pair<unsigned long const ,IData *> >,0> >::_Isnil
; Function compile flags: /Odt /RTCsu
_TEXT	ENDS
;	COMDAT ?_Left@?$_Tree@V?$_Tmap_traits@KPAVIData@@U?$less@K@std@@V?$allocator@U?$pair@$$CBKPAVIData@@@std@@@3@$0A@@std@@@std@@KAAAPAU_Node@?$_Tree_nod@V?$_Tmap_traits@KPAVIData@@U?$less@K@std@@V?$allocator@U?$pair@$$CBKPAVIData@@@std@@@3@$0A@@std@@@2@PAU342@@Z
_TEXT	SEGMENT
__Pnode$ = 8						; size = 4
?_Left@?$_Tree@V?$_Tmap_traits@KPAVIData@@U?$less@K@std@@V?$allocator@U?$pair@$$CBKPAVIData@@@std@@@3@$0A@@std@@@std@@KAAAPAU_Node@?$_Tree_nod@V?$_Tmap_traits@KPAVIData@@U?$less@K@std@@V?$allocator@U?$pair@$$CBKPAVIData@@@std@@@3@$0A@@std@@@2@PAU342@@Z PROC NEAR ; std::_Tree<std::_Tmap_traits<unsigned long,IData *,std::less<unsigned long>,std::allocator<std::pair<unsigned long const ,IData *> >,0> >::_Left, COMDAT

; 146  : 		{	// return reference to left pointer in node

  00000	55		 push	 ebp
  00001	8b ec		 mov	 ebp, esp

; 147  : 		return ((_Nodepref)(*_Pnode)._Left);

  00003	8b 45 08	 mov	 eax, DWORD PTR __Pnode$[ebp]

; 148  : 		}

  00006	5d		 pop	 ebp
  00007	c3		 ret	 0
?_Left@?$_Tree@V?$_Tmap_traits@KPAVIData@@U?$less@K@std@@V?$allocator@U?$pair@$$CBKPAVIData@@@std@@@3@$0A@@std@@@std@@KAAAPAU_Node@?$_Tree_nod@V?$_Tmap_traits@KPAVIData@@U?$less@K@std@@V?$allocator@U?$pair@$$CBKPAVIData@@@std@@@3@$0A@@std@@@2@PAU342@@Z ENDP ; std::_Tree<std::_Tmap_traits<unsigned long,IData *,std::less<unsigned long>,std::allocator<std::pair<unsigned long const ,IData *> >,0> >::_Left
; Function compile flags: /Odt /RTCsu
_TEXT	ENDS
;	COMDAT ?_Parent@?$_Tree@V?$_Tmap_traits@KPAVIData@@U?$less@K@std@@V?$allocator@U?$pair@$$CBKPAVIData@@@std@@@3@$0A@@std@@@std@@KAAAPAU_Node@?$_Tree_nod@V?$_Tmap_traits@KPAVIData@@U?$less@K@std@@V?$allocator@U?$pair@$$CBKPAVIData@@@std@@@3@$0A@@std@@@2@PAU342@@Z
_TEXT	SEGMENT
__Pnode$ = 8						; size = 4
?_Parent@?$_Tree@V?$_Tmap_traits@KPAVIData@@U?$less@K@std@@V?$allocator@U?$pair@$$CBKPAVIData@@@std@@@3@$0A@@std@@@std@@KAAAPAU_Node@?$_Tree_nod@V?$_Tmap_traits@KPAVIData@@U?$less@K@std@@V?$allocator@U?$pair@$$CBKPAVIData@@@std@@@3@$0A@@std@@@2@PAU342@@Z PROC NEAR ; std::_Tree<std::_Tmap_traits<unsigned long,IData *,std::less<unsigned long>,std::allocator<std::pair<unsigned long const ,IData *> >,0> >::_Parent, COMDAT

; 151  : 		{	// return reference to parent pointer in node

  00000	55		 push	 ebp
  00001	8b ec		 mov	 ebp, esp

; 152  : 		return ((_Nodepref)(*_Pnode)._Parent);

  00003	8b 45 08	 mov	 eax, DWORD PTR __Pnode$[ebp]
  00006	83 c0 04	 add	 eax, 4

; 153  : 		}

  00009	5d		 pop	 ebp
  0000a	c3		 ret	 0
?_Parent@?$_Tree@V?$_Tmap_traits@KPAVIData@@U?$less@K@std@@V?$allocator@U?$pair@$$CBKPAVIData@@@std@@@3@$0A@@std@@@std@@KAAAPAU_Node@?$_Tree_nod@V?$_Tmap_traits@KPAVIData@@U?$less@K@std@@V?$allocator@U?$pair@$$CBKPAVIData@@@std@@@3@$0A@@std@@@2@PAU342@@Z ENDP ; std::_Tree<std::_Tmap_traits<unsigned long,IData *,std::less<unsigned long>,std::allocator<std::pair<unsigned long const ,IData *> >,0> >::_Parent
; Function compile flags: /Odt /RTCsu
_TEXT	ENDS
;	COMDAT ?_Right@?$_Tree@V?$_Tmap_traits@KPAVIData@@U?$less@K@std@@V?$allocator@U?$pair@$$CBKPAVIData@@@std@@@3@$0A@@std@@@std@@KAAAPAU_Node@?$_Tree_nod@V?$_Tmap_traits@KPAVIData@@U?$less@K@std@@V?$allocator@U?$pair@$$CBKPAVIData@@@std@@@3@$0A@@std@@@2@PAU342@@Z
_TEXT	SEGMENT
__Pnode$ = 8						; size = 4
?_Right@?$_Tree@V?$_Tmap_traits@KPAVIData@@U?$less@K@std@@V?$allocator@U?$pair@$$CBKPAVIData@@@std@@@3@$0A@@std@@@std@@KAAAPAU_Node@?$_Tree_nod@V?$_Tmap_traits@KPAVIData@@U?$less@K@std@@V?$allocator@U?$pair@$$CBKPAVIData@@@std@@@3@$0A@@std@@@2@PAU342@@Z PROC NEAR ; std::_Tree<std::_Tmap_traits<unsigned long,IData *,std::less<unsigned long>,std::allocator<std::pair<unsigned long const ,IData *> >,0> >::_Right, COMDAT

; 156  : 		{	// return reference to right pointer in node

  00000	55		 push	 ebp
  00001	8b ec		 mov	 ebp, esp

; 157  : 		return ((_Nodepref)(*_Pnode)._Right);

  00003	8b 45 08	 mov	 eax, DWORD PTR __Pnode$[ebp]
  00006	83 c0 08	 add	 eax, 8

; 158  : 		}

  00009	5d		 pop	 ebp
  0000a	c3		 ret	 0
?_Right@?$_Tree@V?$_Tmap_traits@KPAVIData@@U?$less@K@std@@V?$allocator@U?$pair@$$CBKPAVIData@@@std@@@3@$0A@@std@@@std@@KAAAPAU_Node@?$_Tree_nod@V?$_Tmap_traits@KPAVIData@@U?$less@K@std@@V?$allocator@U?$pair@$$CBKPAVIData@@@std@@@3@$0A@@std@@@2@PAU342@@Z ENDP ; std::_Tree<std::_Tmap_traits<unsigned long,IData *,std::less<unsigned long>,std::allocator<std::pair<unsigned long const ,IData *> >,0> >::_Right
; Function compile flags: /Odt /RTCsu
_TEXT	ENDS
;	COMDAT ?_Myval@?$_Tree@V?$_Tmap_traits@KPAVIData@@U?$less@K@std@@V?$allocator@U?$pair@$$CBKPAVIData@@@std@@@3@$0A@@std@@@std@@KAAAU?$pair@$$CBKPAVIData@@@2@PAU_Node@?$_Tree_nod@V?$_Tmap_traits@KPAVIData@@U?$less@K@std@@V?$allocator@U?$pair@$$CBKPAVIData@@@std@@@3@$0A@@std@@@2@@Z
_TEXT	SEGMENT
__Pnode$ = 8						; size = 4
?_Myval@?$_Tree@V?$_Tmap_traits@KPAVIData@@U?$less@K@std@@V?$allocator@U?$pair@$$CBKPAVIData@@@std@@@3@$0A@@std@@@std@@KAAAU?$pair@$$CBKPAVIData@@@2@PAU_Node@?$_Tree_nod@V?$_Tmap_traits@KPAVIData@@U?$less@K@std@@V?$allocator@U?$pair@$$CBKPAVIData@@@std@@@3@$0A@@std@@@2@@Z PROC NEAR ; std::_Tree<std::_Tmap_traits<unsigned long,IData *,std::less<unsigned long>,std::allocator<std::pair<unsigned long const ,IData *> >,0> >::_Myval, COMDAT

; 161  : 		{	// return reference to value in node

  00000	55		 push	 ebp
  00001	8b ec		 mov	 ebp, esp

; 162  : 		return ((_Vref)(*_Pnode)._Myval);

  00003	8b 45 08	 mov	 eax, DWORD PTR __Pnode$[ebp]
  00006	83 c0 0c	 add	 eax, 12			; 0000000cH

; 163  : 		}

  00009	5d		 pop	 ebp
  0000a	c3		 ret	 0
?_Myval@?$_Tree@V?$_Tmap_traits@KPAVIData@@U?$less@K@std@@V?$allocator@U?$pair@$$CBKPAVIData@@@std@@@3@$0A@@std@@@std@@KAAAU?$pair@$$CBKPAVIData@@@2@PAU_Node@?$_Tree_nod@V?$_Tmap_traits@KPAVIData@@U?$less@K@std@@V?$allocator@U?$pair@$$CBKPAVIData@@@std@@@3@$0A@@std@@@2@@Z ENDP ; std::_Tree<std::_Tmap_traits<unsigned long,IData *,std::less<unsigned long>,std::allocator<std::pair<unsigned long const ,IData *> >,0> >::_Myval
; Function compile flags: /Odt /RTCsu
_TEXT	ENDS
;	COMDAT ?size@?$_Tree@V?$_Tmap_traits@KPAVIData@@U?$less@K@std@@V?$allocator@U?$pair@$$CBKPAVIData@@@std@@@3@$0A@@std@@@std@@QBEIXZ
_TEXT	SEGMENT
_this$ = -4						; size = 4
?size@?$_Tree@V?$_Tmap_traits@KPAVIData@@U?$less@K@std@@V?$allocator@U?$pair@$$CBKPAVIData@@@std@@@3@$0A@@std@@@std@@QBEIXZ PROC NEAR ; std::_Tree<std::_Tmap_traits<unsigned long,IData *,std::less<unsigned long>,std::allocator<std::pair<unsigned long const ,IData *> >,0> >::size, COMDAT
; _this$ = ecx

; 447  : 		{	// return length of sequence

  00000	55		 push	 ebp
  00001	8b ec		 mov	 ebp, esp
  00003	51		 push	 ecx
  00004	c7 45 fc cc cc
	cc cc		 mov	 DWORD PTR [ebp-4], -858993460 ; ccccccccH
  0000b	89 4d fc	 mov	 DWORD PTR _this$[ebp], ecx

; 448  : 		return (_Mysize);

  0000e	8b 45 fc	 mov	 eax, DWORD PTR _this$[ebp]
  00011	8b 40 08	 mov	 eax, DWORD PTR [eax+8]

; 449  : 		}

  00014	8b e5		 mov	 esp, ebp
  00016	5d		 pop	 ebp
  00017	c3		 ret	 0
?size@?$_Tree@V?$_Tmap_traits@KPAVIData@@U?$less@K@std@@V?$allocator@U?$pair@$$CBKPAVIData@@@std@@@3@$0A@@std@@@std@@QBEIXZ ENDP ; std::_Tree<std::_Tmap_traits<unsigned long,IData *,std::less<unsigned long>,std::allocator<std::pair<unsigned long const ,IData *> >,0> >::size
_TEXT	ENDS
PUBLIC	??0?$pair@Viterator@?$_Tree@V?$_Tmap_traits@KPAVIData@@U?$less@K@std@@V?$allocator@U?$pair@$$CBKPAVIData@@@std@@@3@$0A@@std@@@std@@_N@std@@QAE@ABViterator@?$_Tree@V?$_Tmap_traits@KPAVIData@@U?$less@K@std@@V?$allocator@U?$pair@$$CBKPAVIData@@@std@@@3@$0A@@std@@@1@AB_N@Z ; std::pair<std::_Tree<std::_Tmap_traits<unsigned long,IData *,std::less<unsigned long>,std::allocator<std::pair<unsigned long const ,IData *> >,0> >::iterator,bool>::pair<std::_Tree<std::_Tmap_traits<unsigned long,IData *,std::less<unsigned long>,std::allocator<std::pair<unsigned long const ,IData *> >,0> >::iterator,bool>
; Function compile flags: /Odt /RTCsu
;	COMDAT ?insert@?$_Tree@V?$_Tmap_traits@KPAVIData@@U?$less@K@std@@V?$allocator@U?$pair@$$CBKPAVIData@@@std@@@3@$0A@@std@@@std@@QAE?AU?$pair@Viterator@?$_Tree@V?$_Tmap_traits@KPAVIData@@U?$less@K@std@@V?$allocator@U?$pair@$$CBKPAVIData@@@std@@@3@$0A@@std@@@std@@_N@2@ABU?$pair@$$CBKPAVIData@@@2@@Z
_TEXT	SEGMENT
tv85 = -64						; size = 4
$T190325 = -57						; size = 1
$T190324 = -56						; size = 4
$T190323 = -49						; size = 1
$T190322 = -48						; size = 4
$T190321 = -41						; size = 1
$T190320 = -40						; size = 4
$T190319 = -36						; size = 4
$T190318 = -29						; size = 1
__Where$189318 = -24					; size = 4
__Addleft$ = -13					; size = 1
__Wherenode$ = -12					; size = 4
__Trynode$ = -8						; size = 4
_this$ = -4						; size = 4
___$ReturnUdt$ = 8					; size = 4
__Val$ = 12						; size = 4
?insert@?$_Tree@V?$_Tmap_traits@KPAVIData@@U?$less@K@std@@V?$allocator@U?$pair@$$CBKPAVIData@@@std@@@3@$0A@@std@@@std@@QAE?AU?$pair@Viterator@?$_Tree@V?$_Tmap_traits@KPAVIData@@U?$less@K@std@@V?$allocator@U?$pair@$$CBKPAVIData@@@std@@@3@$0A@@std@@@std@@_N@2@ABU?$pair@$$CBKPAVIData@@@2@@Z PROC NEAR ; std::_Tree<std::_Tmap_traits<unsigned long,IData *,std::less<unsigned long>,std::allocator<std::pair<unsigned long const ,IData *> >,0> >::insert, COMDAT
; _this$ = ecx

; 477  : 		{	// try to insert node with value _Val

  00000	55		 push	 ebp
  00001	8b ec		 mov	 ebp, esp
  00003	83 ec 40	 sub	 esp, 64			; 00000040H
  00006	57		 push	 edi
  00007	51		 push	 ecx
  00008	8d 7d c0	 lea	 edi, DWORD PTR [ebp-64]
  0000b	b9 10 00 00 00	 mov	 ecx, 16			; 00000010H
  00010	b8 cc cc cc cc	 mov	 eax, -858993460		; ccccccccH
  00015	f3 ab		 rep stosd
  00017	59		 pop	 ecx
  00018	89 4d fc	 mov	 DWORD PTR _this$[ebp], ecx

; 478  : 		_Nodeptr _Trynode = _Root();

  0001b	8b 4d fc	 mov	 ecx, DWORD PTR _this$[ebp]
  0001e	e8 00 00 00 00	 call	 ?_Root@?$_Tree@V?$_Tmap_traits@KPAVIData@@U?$less@K@std@@V?$allocator@U?$pair@$$CBKPAVIData@@@std@@@3@$0A@@std@@@std@@IAEAAPAU_Node@?$_Tree_nod@V?$_Tmap_traits@KPAVIData@@U?$less@K@std@@V?$allocator@U?$pair@$$CBKPAVIData@@@std@@@3@$0A@@std@@@2@XZ ; std::_Tree<std::_Tmap_traits<unsigned long,IData *,std::less<unsigned long>,std::allocator<std::pair<unsigned long const ,IData *> >,0> >::_Root
  00023	8b 00		 mov	 eax, DWORD PTR [eax]
  00025	89 45 f8	 mov	 DWORD PTR __Trynode$[ebp], eax

; 479  : 		_Nodeptr _Wherenode = _Myhead;

  00028	8b 4d fc	 mov	 ecx, DWORD PTR _this$[ebp]
  0002b	8b 51 04	 mov	 edx, DWORD PTR [ecx+4]
  0002e	89 55 f4	 mov	 DWORD PTR __Wherenode$[ebp], edx

; 480  : 		bool _Addleft = true;	// add to left of head if tree empty

  00031	c6 45 f3 01	 mov	 BYTE PTR __Addleft$[ebp], 1
$L189307:

; 481  : 		while (!_Isnil(_Trynode))

  00035	8b 45 f8	 mov	 eax, DWORD PTR __Trynode$[ebp]
  00038	50		 push	 eax
  00039	e8 00 00 00 00	 call	 ?_Isnil@?$_Tree@V?$_Tmap_traits@KPAVIData@@U?$less@K@std@@V?$allocator@U?$pair@$$CBKPAVIData@@@std@@@3@$0A@@std@@@std@@KAAADPAU_Node@?$_Tree_nod@V?$_Tmap_traits@KPAVIData@@U?$less@K@std@@V?$allocator@U?$pair@$$CBKPAVIData@@@std@@@3@$0A@@std@@@2@@Z ; std::_Tree<std::_Tmap_traits<unsigned long,IData *,std::less<unsigned long>,std::allocator<std::pair<unsigned long const ,IData *> >,0> >::_Isnil
  0003e	83 c4 04	 add	 esp, 4
  00041	0f be 08	 movsx	 ecx, BYTE PTR [eax]
  00044	85 c9		 test	 ecx, ecx
  00046	75 5f		 jne	 SHORT $L189308

; 482  : 			{	// look for leaf to insert before (_Addleft) or after
; 483  : 			_Wherenode = _Trynode;

  00048	8b 55 f8	 mov	 edx, DWORD PTR __Trynode$[ebp]
  0004b	89 55 f4	 mov	 DWORD PTR __Wherenode$[ebp], edx

; 484  : 			_Addleft = this->comp(this->_Kfn(_Val), _Key(_Trynode));

  0004e	8b 45 f8	 mov	 eax, DWORD PTR __Trynode$[ebp]
  00051	50		 push	 eax
  00052	e8 00 00 00 00	 call	 ?_Key@?$_Tree@V?$_Tmap_traits@KPAVIData@@U?$less@K@std@@V?$allocator@U?$pair@$$CBKPAVIData@@@std@@@3@$0A@@std@@@std@@KAABKPAU_Node@?$_Tree_nod@V?$_Tmap_traits@KPAVIData@@U?$less@K@std@@V?$allocator@U?$pair@$$CBKPAVIData@@@std@@@3@$0A@@std@@@2@@Z ; std::_Tree<std::_Tmap_traits<unsigned long,IData *,std::less<unsigned long>,std::allocator<std::pair<unsigned long const ,IData *> >,0> >::_Key
  00057	83 c4 04	 add	 esp, 4
  0005a	50		 push	 eax
  0005b	8b 4d 0c	 mov	 ecx, DWORD PTR __Val$[ebp]
  0005e	51		 push	 ecx
  0005f	e8 00 00 00 00	 call	 ?_Kfn@?$_Tmap_traits@KPAVIData@@U?$less@K@std@@V?$allocator@U?$pair@$$CBKPAVIData@@@std@@@3@$0A@@std@@SAABKABU?$pair@$$CBKPAVIData@@@2@@Z ; std::_Tmap_traits<unsigned long,IData *,std::less<unsigned long>,std::allocator<std::pair<unsigned long const ,IData *> >,0>::_Kfn
  00064	83 c4 04	 add	 esp, 4
  00067	50		 push	 eax
  00068	8b 4d fc	 mov	 ecx, DWORD PTR _this$[ebp]
  0006b	e8 00 00 00 00	 call	 ??R?$less@K@std@@QBE_NABK0@Z ; std::less<unsigned long>::operator()
  00070	88 45 f3	 mov	 BYTE PTR __Addleft$[ebp], al

; 485  : 			_Trynode = _Addleft ? _Left(_Trynode) : _Right(_Trynode);

  00073	0f b6 55 f3	 movzx	 edx, BYTE PTR __Addleft$[ebp]
  00077	85 d2		 test	 edx, edx
  00079	74 13		 je	 SHORT $L190316
  0007b	8b 45 f8	 mov	 eax, DWORD PTR __Trynode$[ebp]
  0007e	50		 push	 eax
  0007f	e8 00 00 00 00	 call	 ?_Left@?$_Tree@V?$_Tmap_traits@KPAVIData@@U?$less@K@std@@V?$allocator@U?$pair@$$CBKPAVIData@@@std@@@3@$0A@@std@@@std@@KAAAPAU_Node@?$_Tree_nod@V?$_Tmap_traits@KPAVIData@@U?$less@K@std@@V?$allocator@U?$pair@$$CBKPAVIData@@@std@@@3@$0A@@std@@@2@PAU342@@Z ; std::_Tree<std::_Tmap_traits<unsigned long,IData *,std::less<unsigned long>,std::allocator<std::pair<unsigned long const ,IData *> >,0> >::_Left
  00084	83 c4 04	 add	 esp, 4
  00087	8b 08		 mov	 ecx, DWORD PTR [eax]
  00089	89 4d c0	 mov	 DWORD PTR tv85[ebp], ecx
  0008c	eb 11		 jmp	 SHORT $L190317
$L190316:
  0008e	8b 55 f8	 mov	 edx, DWORD PTR __Trynode$[ebp]
  00091	52		 push	 edx
  00092	e8 00 00 00 00	 call	 ?_Right@?$_Tree@V?$_Tmap_traits@KPAVIData@@U?$less@K@std@@V?$allocator@U?$pair@$$CBKPAVIData@@@std@@@3@$0A@@std@@@std@@KAAAPAU_Node@?$_Tree_nod@V?$_Tmap_traits@KPAVIData@@U?$less@K@std@@V?$allocator@U?$pair@$$CBKPAVIData@@@std@@@3@$0A@@std@@@2@PAU342@@Z ; std::_Tree<std::_Tmap_traits<unsigned long,IData *,std::less<unsigned long>,std::allocator<std::pair<unsigned long const ,IData *> >,0> >::_Right
  00097	83 c4 04	 add	 esp, 4
  0009a	8b 00		 mov	 eax, DWORD PTR [eax]
  0009c	89 45 c0	 mov	 DWORD PTR tv85[ebp], eax
$L190317:
  0009f	8b 4d c0	 mov	 ecx, DWORD PTR tv85[ebp]
  000a2	89 4d f8	 mov	 DWORD PTR __Trynode$[ebp], ecx

; 486  : 			}

  000a5	eb 8e		 jmp	 SHORT $L189307
$L189308:

; 487  : 
; 488  : 		if (this->_Multi)

  000a7	33 d2		 xor	 edx, edx
  000a9	74 31		 je	 SHORT $L189309

; 489  : 			return (_Pairib(_Insert(_Addleft, _Wherenode, _Val), true));

  000ab	c6 45 e3 01	 mov	 BYTE PTR $T190318[ebp], 1
  000af	8d 45 e3	 lea	 eax, DWORD PTR $T190318[ebp]
  000b2	50		 push	 eax
  000b3	8b 4d 0c	 mov	 ecx, DWORD PTR __Val$[ebp]
  000b6	51		 push	 ecx
  000b7	8b 55 f4	 mov	 edx, DWORD PTR __Wherenode$[ebp]
  000ba	52		 push	 edx
  000bb	8a 45 f3	 mov	 al, BYTE PTR __Addleft$[ebp]
  000be	50		 push	 eax
  000bf	8d 4d dc	 lea	 ecx, DWORD PTR $T190319[ebp]
  000c2	51		 push	 ecx
  000c3	8b 4d fc	 mov	 ecx, DWORD PTR _this$[ebp]
  000c6	e8 00 00 00 00	 call	 ?_Insert@?$_Tree@V?$_Tmap_traits@KPAVIData@@U?$less@K@std@@V?$allocator@U?$pair@$$CBKPAVIData@@@std@@@3@$0A@@std@@@std@@IAE?AViterator@12@_NPAU_Node@?$_Tree_nod@V?$_Tmap_traits@KPAVIData@@U?$less@K@std@@V?$allocator@U?$pair@$$CBKPAVIData@@@std@@@3@$0A@@std@@@2@ABU?$pair@$$CBKPAVIData@@@2@@Z ; std::_Tree<std::_Tmap_traits<unsigned long,IData *,std::less<unsigned long>,std::allocator<std::pair<unsigned long const ,IData *> >,0> >::_Insert
  000cb	50		 push	 eax
  000cc	8b 4d 08	 mov	 ecx, DWORD PTR ___$ReturnUdt$[ebp]
  000cf	e8 00 00 00 00	 call	 ??0?$pair@Viterator@?$_Tree@V?$_Tmap_traits@KPAVIData@@U?$less@K@std@@V?$allocator@U?$pair@$$CBKPAVIData@@@std@@@3@$0A@@std@@@std@@_N@std@@QAE@ABViterator@?$_Tree@V?$_Tmap_traits@KPAVIData@@U?$less@K@std@@V?$allocator@U?$pair@$$CBKPAVIData@@@std@@@3@$0A@@std@@@1@AB_N@Z ; std::pair<std::_Tree<std::_Tmap_traits<unsigned long,IData *,std::less<unsigned long>,std::allocator<std::pair<unsigned long const ,IData *> >,0> >::iterator,bool>::pair<std::_Tree<std::_Tmap_traits<unsigned long,IData *,std::less<unsigned long>,std::allocator<std::pair<unsigned long const ,IData *> >,0> >::iterator,bool>
  000d4	8b 45 08	 mov	 eax, DWORD PTR ___$ReturnUdt$[ebp]
  000d7	e9 d9 00 00 00	 jmp	 $L189302
$L189309:

; 490  : 		else
; 491  : 			{	// insert only if unique
; 492  : 			iterator _Where = _TREE_ITERATOR(_Wherenode);

  000dc	8b 55 f4	 mov	 edx, DWORD PTR __Wherenode$[ebp]
  000df	52		 push	 edx
  000e0	8d 4d e8	 lea	 ecx, DWORD PTR __Where$189318[ebp]
  000e3	e8 00 00 00 00	 call	 ??0iterator@?$_Tree@V?$_Tmap_traits@KPAVIData@@U?$less@K@std@@V?$allocator@U?$pair@$$CBKPAVIData@@@std@@@3@$0A@@std@@@std@@QAE@PAU_Node@?$_Tree_nod@V?$_Tmap_traits@KPAVIData@@U?$less@K@std@@V?$allocator@U?$pair@$$CBKPAVIData@@@std@@@3@$0A@@std@@@2@@Z ; std::_Tree<std::_Tmap_traits<unsigned long,IData *,std::less<unsigned long>,std::allocator<std::pair<unsigned long const ,IData *> >,0> >::iterator::iterator

; 493  : 			if (!_Addleft)

  000e8	0f b6 45 f3	 movzx	 eax, BYTE PTR __Addleft$[ebp]
  000ec	85 c0		 test	 eax, eax
  000ee	75 02		 jne	 SHORT $L189320

; 494  : 				;	// need to test if insert after is okay
; 495  : 			else if (_Where == begin())

  000f0	eb 50		 jmp	 SHORT $L189321
$L189320:
  000f2	8d 4d d8	 lea	 ecx, DWORD PTR $T190320[ebp]
  000f5	51		 push	 ecx
  000f6	8b 4d fc	 mov	 ecx, DWORD PTR _this$[ebp]
  000f9	e8 00 00 00 00	 call	 ?begin@?$_Tree@V?$_Tmap_traits@KPAVIData@@U?$less@K@std@@V?$allocator@U?$pair@$$CBKPAVIData@@@std@@@3@$0A@@std@@@std@@QAE?AViterator@12@XZ ; std::_Tree<std::_Tmap_traits<unsigned long,IData *,std::less<unsigned long>,std::allocator<std::pair<unsigned long const ,IData *> >,0> >::begin
  000fe	50		 push	 eax
  000ff	8d 4d e8	 lea	 ecx, DWORD PTR __Where$189318[ebp]
  00102	e8 00 00 00 00	 call	 ??8const_iterator@?$_Tree@V?$_Tmap_traits@KPAVIData@@U?$less@K@std@@V?$allocator@U?$pair@$$CBKPAVIData@@@std@@@3@$0A@@std@@@std@@QBE_NABV012@@Z ; std::_Tree<std::_Tmap_traits<unsigned long,IData *,std::less<unsigned long>,std::allocator<std::pair<unsigned long const ,IData *> >,0> >::const_iterator::operator==
  00107	0f b6 d0	 movzx	 edx, al
  0010a	85 d2		 test	 edx, edx
  0010c	74 2c		 je	 SHORT $L189323

; 496  : 				return (_Pairib(_Insert(true, _Wherenode, _Val), true));

  0010e	c6 45 d7 01	 mov	 BYTE PTR $T190321[ebp], 1
  00112	8d 45 d7	 lea	 eax, DWORD PTR $T190321[ebp]
  00115	50		 push	 eax
  00116	8b 4d 0c	 mov	 ecx, DWORD PTR __Val$[ebp]
  00119	51		 push	 ecx
  0011a	8b 55 f4	 mov	 edx, DWORD PTR __Wherenode$[ebp]
  0011d	52		 push	 edx
  0011e	6a 01		 push	 1
  00120	8d 45 d0	 lea	 eax, DWORD PTR $T190322[ebp]
  00123	50		 push	 eax
  00124	8b 4d fc	 mov	 ecx, DWORD PTR _this$[ebp]
  00127	e8 00 00 00 00	 call	 ?_Insert@?$_Tree@V?$_Tmap_traits@KPAVIData@@U?$less@K@std@@V?$allocator@U?$pair@$$CBKPAVIData@@@std@@@3@$0A@@std@@@std@@IAE?AViterator@12@_NPAU_Node@?$_Tree_nod@V?$_Tmap_traits@KPAVIData@@U?$less@K@std@@V?$allocator@U?$pair@$$CBKPAVIData@@@std@@@3@$0A@@std@@@2@ABU?$pair@$$CBKPAVIData@@@2@@Z ; std::_Tree<std::_Tmap_traits<unsigned long,IData *,std::less<unsigned long>,std::allocator<std::pair<unsigned long const ,IData *> >,0> >::_Insert
  0012c	50		 push	 eax
  0012d	8b 4d 08	 mov	 ecx, DWORD PTR ___$ReturnUdt$[ebp]
  00130	e8 00 00 00 00	 call	 ??0?$pair@Viterator@?$_Tree@V?$_Tmap_traits@KPAVIData@@U?$less@K@std@@V?$allocator@U?$pair@$$CBKPAVIData@@@std@@@3@$0A@@std@@@std@@_N@std@@QAE@ABViterator@?$_Tree@V?$_Tmap_traits@KPAVIData@@U?$less@K@std@@V?$allocator@U?$pair@$$CBKPAVIData@@@std@@@3@$0A@@std@@@1@AB_N@Z ; std::pair<std::_Tree<std::_Tmap_traits<unsigned long,IData *,std::less<unsigned long>,std::allocator<std::pair<unsigned long const ,IData *> >,0> >::iterator,bool>::pair<std::_Tree<std::_Tmap_traits<unsigned long,IData *,std::less<unsigned long>,std::allocator<std::pair<unsigned long const ,IData *> >,0> >::iterator,bool>
  00135	8b 45 08	 mov	 eax, DWORD PTR ___$ReturnUdt$[ebp]
  00138	eb 7b		 jmp	 SHORT $L189302
$L189323:

; 497  : 			else
; 498  : 				--_Where;	// need to test if insert before is okay

  0013a	8d 4d e8	 lea	 ecx, DWORD PTR __Where$189318[ebp]
  0013d	e8 00 00 00 00	 call	 ??Fiterator@?$_Tree@V?$_Tmap_traits@KPAVIData@@U?$less@K@std@@V?$allocator@U?$pair@$$CBKPAVIData@@@std@@@3@$0A@@std@@@std@@QAEAAV012@XZ ; std::_Tree<std::_Tmap_traits<unsigned long,IData *,std::less<unsigned long>,std::allocator<std::pair<unsigned long const ,IData *> >,0> >::iterator::operator--
$L189321:

; 499  : 
; 500  : 			if (this->comp(_Key(_Where._Mynode()), this->_Kfn(_Val)))

  00142	8b 4d 0c	 mov	 ecx, DWORD PTR __Val$[ebp]
  00145	51		 push	 ecx
  00146	e8 00 00 00 00	 call	 ?_Kfn@?$_Tmap_traits@KPAVIData@@U?$less@K@std@@V?$allocator@U?$pair@$$CBKPAVIData@@@std@@@3@$0A@@std@@SAABKABU?$pair@$$CBKPAVIData@@@2@@Z ; std::_Tmap_traits<unsigned long,IData *,std::less<unsigned long>,std::allocator<std::pair<unsigned long const ,IData *> >,0>::_Kfn
  0014b	83 c4 04	 add	 esp, 4
  0014e	50		 push	 eax
  0014f	8d 4d e8	 lea	 ecx, DWORD PTR __Where$189318[ebp]
  00152	e8 00 00 00 00	 call	 ?_Mynode@const_iterator@?$_Tree@V?$_Tmap_traits@KPAVIData@@U?$less@K@std@@V?$allocator@U?$pair@$$CBKPAVIData@@@std@@@3@$0A@@std@@@std@@QBEPAU_Node@?$_Tree_nod@V?$_Tmap_traits@KPAVIData@@U?$less@K@std@@V?$allocator@U?$pair@$$CBKPAVIData@@@std@@@3@$0A@@std@@@3@XZ ; std::_Tree<std::_Tmap_traits<unsigned long,IData *,std::less<unsigned long>,std::allocator<std::pair<unsigned long const ,IData *> >,0> >::const_iterator::_Mynode
  00157	50		 push	 eax
  00158	e8 00 00 00 00	 call	 ?_Key@?$_Tree@V?$_Tmap_traits@KPAVIData@@U?$less@K@std@@V?$allocator@U?$pair@$$CBKPAVIData@@@std@@@3@$0A@@std@@@std@@KAABKPAU_Node@?$_Tree_nod@V?$_Tmap_traits@KPAVIData@@U?$less@K@std@@V?$allocator@U?$pair@$$CBKPAVIData@@@std@@@3@$0A@@std@@@2@@Z ; std::_Tree<std::_Tmap_traits<unsigned long,IData *,std::less<unsigned long>,std::allocator<std::pair<unsigned long const ,IData *> >,0> >::_Key
  0015d	83 c4 04	 add	 esp, 4
  00160	50		 push	 eax
  00161	8b 4d fc	 mov	 ecx, DWORD PTR _this$[ebp]
  00164	e8 00 00 00 00	 call	 ??R?$less@K@std@@QBE_NABK0@Z ; std::less<unsigned long>::operator()
  00169	0f b6 d0	 movzx	 edx, al
  0016c	85 d2		 test	 edx, edx
  0016e	74 2e		 je	 SHORT $L189328

; 501  : 				return (_Pairib(_Insert(_Addleft, _Wherenode, _Val), true));

  00170	c6 45 cf 01	 mov	 BYTE PTR $T190323[ebp], 1
  00174	8d 45 cf	 lea	 eax, DWORD PTR $T190323[ebp]
  00177	50		 push	 eax
  00178	8b 4d 0c	 mov	 ecx, DWORD PTR __Val$[ebp]
  0017b	51		 push	 ecx
  0017c	8b 55 f4	 mov	 edx, DWORD PTR __Wherenode$[ebp]
  0017f	52		 push	 edx
  00180	8a 45 f3	 mov	 al, BYTE PTR __Addleft$[ebp]
  00183	50		 push	 eax
  00184	8d 4d c8	 lea	 ecx, DWORD PTR $T190324[ebp]
  00187	51		 push	 ecx
  00188	8b 4d fc	 mov	 ecx, DWORD PTR _this$[ebp]
  0018b	e8 00 00 00 00	 call	 ?_Insert@?$_Tree@V?$_Tmap_traits@KPAVIData@@U?$less@K@std@@V?$allocator@U?$pair@$$CBKPAVIData@@@std@@@3@$0A@@std@@@std@@IAE?AViterator@12@_NPAU_Node@?$_Tree_nod@V?$_Tmap_traits@KPAVIData@@U?$less@K@std@@V?$allocator@U?$pair@$$CBKPAVIData@@@std@@@3@$0A@@std@@@2@ABU?$pair@$$CBKPAVIData@@@2@@Z ; std::_Tree<std::_Tmap_traits<unsigned long,IData *,std::less<unsigned long>,std::allocator<std::pair<unsigned long const ,IData *> >,0> >::_Insert
  00190	50		 push	 eax
  00191	8b 4d 08	 mov	 ecx, DWORD PTR ___$ReturnUdt$[ebp]
  00194	e8 00 00 00 00	 call	 ??0?$pair@Viterator@?$_Tree@V?$_Tmap_traits@KPAVIData@@U?$less@K@std@@V?$allocator@U?$pair@$$CBKPAVIData@@@std@@@3@$0A@@std@@@std@@_N@std@@QAE@ABViterator@?$_Tree@V?$_Tmap_traits@KPAVIData@@U?$less@K@std@@V?$allocator@U?$pair@$$CBKPAVIData@@@std@@@3@$0A@@std@@@1@AB_N@Z ; std::pair<std::_Tree<std::_Tmap_traits<unsigned long,IData *,std::less<unsigned long>,std::allocator<std::pair<unsigned long const ,IData *> >,0> >::iterator,bool>::pair<std::_Tree<std::_Tmap_traits<unsigned long,IData *,std::less<unsigned long>,std::allocator<std::pair<unsigned long const ,IData *> >,0> >::iterator,bool>
  00199	8b 45 08	 mov	 eax, DWORD PTR ___$ReturnUdt$[ebp]
  0019c	eb 17		 jmp	 SHORT $L189302
$L189328:

; 502  : 			else
; 503  : 				return (_Pairib(_Where, false));

  0019e	c6 45 c7 00	 mov	 BYTE PTR $T190325[ebp], 0
  001a2	8d 55 c7	 lea	 edx, DWORD PTR $T190325[ebp]
  001a5	52		 push	 edx
  001a6	8d 45 e8	 lea	 eax, DWORD PTR __Where$189318[ebp]
  001a9	50		 push	 eax
  001aa	8b 4d 08	 mov	 ecx, DWORD PTR ___$ReturnUdt$[ebp]
  001ad	e8 00 00 00 00	 call	 ??0?$pair@Viterator@?$_Tree@V?$_Tmap_traits@KPAVIData@@U?$less@K@std@@V?$allocator@U?$pair@$$CBKPAVIData@@@std@@@3@$0A@@std@@@std@@_N@std@@QAE@ABViterator@?$_Tree@V?$_Tmap_traits@KPAVIData@@U?$less@K@std@@V?$allocator@U?$pair@$$CBKPAVIData@@@std@@@3@$0A@@std@@@1@AB_N@Z ; std::pair<std::_Tree<std::_Tmap_traits<unsigned long,IData *,std::less<unsigned long>,std::allocator<std::pair<unsigned long const ,IData *> >,0> >::iterator,bool>::pair<std::_Tree<std::_Tmap_traits<unsigned long,IData *,std::less<unsigned long>,std::allocator<std::pair<unsigned long const ,IData *> >,0> >::iterator,bool>
  001b2	8b 45 08	 mov	 eax, DWORD PTR ___$ReturnUdt$[ebp]
$L189302:

; 504  : 			}
; 505  : 		}

  001b5	52		 push	 edx
  001b6	8b cd		 mov	 ecx, ebp
  001b8	50		 push	 eax
  001b9	8d 15 00 00 00
	00		 lea	 edx, DWORD PTR $L190328
  001bf	e8 00 00 00 00	 call	 @_RTC_CheckStackVars@8
  001c4	58		 pop	 eax
  001c5	5a		 pop	 edx
  001c6	5f		 pop	 edi
  001c7	83 c4 40	 add	 esp, 64			; 00000040H
  001ca	3b ec		 cmp	 ebp, esp
  001cc	e8 00 00 00 00	 call	 __RTC_CheckEsp
  001d1	8b e5		 mov	 esp, ebp
  001d3	5d		 pop	 ebp
  001d4	c2 08 00	 ret	 8
$L190328:
  001d7	01 00 00 00	 DD	 1
  001db	00 00 00 00	 DD	 $L190327
$L190327:
  001df	e8 ff ff ff	 DD	 -24			; ffffffe8H
  001e3	04 00 00 00	 DD	 4
  001e7	00 00 00 00	 DD	 $L190326
$L190326:
  001eb	5f		 DB	 95			; 0000005fH
  001ec	57		 DB	 87			; 00000057H
  001ed	68		 DB	 104			; 00000068H
  001ee	65		 DB	 101			; 00000065H
  001ef	72		 DB	 114			; 00000072H
  001f0	65		 DB	 101			; 00000065H
  001f1	00		 DB	 0
?insert@?$_Tree@V?$_Tmap_traits@KPAVIData@@U?$less@K@std@@V?$allocator@U?$pair@$$CBKPAVIData@@@std@@@3@$0A@@std@@@std@@QAE?AU?$pair@Viterator@?$_Tree@V?$_Tmap_traits@KPAVIData@@U?$less@K@std@@V?$allocator@U?$pair@$$CBKPAVIData@@@std@@@3@$0A@@std@@@std@@_N@2@ABU?$pair@$$CBKPAVIData@@@2@@Z ENDP ; std::_Tree<std::_Tmap_traits<unsigned long,IData *,std::less<unsigned long>,std::allocator<std::pair<unsigned long const ,IData *> >,0> >::insert
_TEXT	ENDS
PUBLIC	__TI3?AVout_of_range@std@@
PUBLIC	__CTA3?AVout_of_range@std@@
PUBLIC	??_R0?AVout_of_range@std@@@8			; std::out_of_range `RTTI Type Descriptor'
PUBLIC	__CT??_R0?AVout_of_range@std@@@8??0out_of_range@std@@QAE@ABV01@@Z40
PUBLIC	??_R0?AVlogic_error@std@@@8			; std::logic_error `RTTI Type Descriptor'
PUBLIC	__CT??_R0?AVlogic_error@std@@@8??0logic_error@std@@QAE@ABV01@@Z40
PUBLIC	??_R0?AVexception@@@8				; exception `RTTI Type Descriptor'
PUBLIC	__CT??_R0?AVexception@@@8??0exception@@QAE@ABV0@@Z12
PUBLIC	??_C@_0BM@PAPJHAGI@invalid?5map?1set?$DMT?$DO?5iterator?$AA@ ; `string'
PUBLIC	??$swap@D@std@@YAXAAD0@Z			; std::swap<char>
PUBLIC	??0logic_error@std@@QAE@ABV01@@Z		; std::logic_error::logic_error
PUBLIC	??0out_of_range@std@@QAE@ABV?$basic_string@DU?$char_traits@D@std@@V?$allocator@D@2@@1@@Z ; std::out_of_range::out_of_range
PUBLIC	??1out_of_range@std@@UAE@XZ			; std::out_of_range::~out_of_range
PUBLIC	??0out_of_range@std@@QAE@ABV01@@Z		; std::out_of_range::out_of_range
PUBLIC	?_Color@?$_Tree@V?$_Tmap_traits@KPAVIData@@U?$less@K@std@@V?$allocator@U?$pair@$$CBKPAVIData@@@std@@@3@$0A@@std@@@std@@KAAADPAU_Node@?$_Tree_nod@V?$_Tmap_traits@KPAVIData@@U?$less@K@std@@V?$allocator@U?$pair@$$CBKPAVIData@@@std@@@3@$0A@@std@@@2@@Z ; std::_Tree<std::_Tmap_traits<unsigned long,IData *,std::less<unsigned long>,std::allocator<std::pair<unsigned long const ,IData *> >,0> >::_Color
PUBLIC	?_Lrotate@?$_Tree@V?$_Tmap_traits@KPAVIData@@U?$less@K@std@@V?$allocator@U?$pair@$$CBKPAVIData@@@std@@@3@$0A@@std@@@std@@IAEXPAU_Node@?$_Tree_nod@V?$_Tmap_traits@KPAVIData@@U?$less@K@std@@V?$allocator@U?$pair@$$CBKPAVIData@@@std@@@3@$0A@@std@@@2@@Z ; std::_Tree<std::_Tmap_traits<unsigned long,IData *,std::less<unsigned long>,std::allocator<std::pair<unsigned long const ,IData *> >,0> >::_Lrotate
PUBLIC	?_Max@?$_Tree@V?$_Tmap_traits@KPAVIData@@U?$less@K@std@@V?$allocator@U?$pair@$$CBKPAVIData@@@std@@@3@$0A@@std@@@std@@KAPAU_Node@?$_Tree_nod@V?$_Tmap_traits@KPAVIData@@U?$less@K@std@@V?$allocator@U?$pair@$$CBKPAVIData@@@std@@@3@$0A@@std@@@2@PAU342@@Z ; std::_Tree<std::_Tmap_traits<unsigned long,IData *,std::less<unsigned long>,std::allocator<std::pair<unsigned long const ,IData *> >,0> >::_Max
PUBLIC	?_Min@?$_Tree@V?$_Tmap_traits@KPAVIData@@U?$less@K@std@@V?$allocator@U?$pair@$$CBKPAVIData@@@std@@@3@$0A@@std@@@std@@KAPAU_Node@?$_Tree_nod@V?$_Tmap_traits@KPAVIData@@U?$less@K@std@@V?$allocator@U?$pair@$$CBKPAVIData@@@std@@@3@$0A@@std@@@2@PAU342@@Z ; std::_Tree<std::_Tmap_traits<unsigned long,IData *,std::less<unsigned long>,std::allocator<std::pair<unsigned long const ,IData *> >,0> >::_Min
PUBLIC	?_Rrotate@?$_Tree@V?$_Tmap_traits@KPAVIData@@U?$less@K@std@@V?$allocator@U?$pair@$$CBKPAVIData@@@std@@@3@$0A@@std@@@std@@IAEXPAU_Node@?$_Tree_nod@V?$_Tmap_traits@KPAVIData@@U?$less@K@std@@V?$allocator@U?$pair@$$CBKPAVIData@@@std@@@3@$0A@@std@@@2@@Z ; std::_Tree<std::_Tmap_traits<unsigned long,IData *,std::less<unsigned long>,std::allocator<std::pair<unsigned long const ,IData *> >,0> >::_Rrotate
EXTRN	??0exception@@QAE@ABV0@@Z:NEAR			; exception::exception
EXTRN	__CxxThrowException@8:NEAR
;	COMDAT xdata$x
xdata$x	SEGMENT
$T190341 DD	0ffffffffH
	DD	FLAT:$L190337
$T190339 DD	019930520H
	DD	01H
	DD	FLAT:$T190341
	DD	2 DUP(00H)
	DD	2 DUP(00H)
xdata$x	ENDS
;	COMDAT ??_C@_0BM@PAPJHAGI@invalid?5map?1set?$DMT?$DO?5iterator?$AA@
CONST	SEGMENT
??_C@_0BM@PAPJHAGI@invalid?5map?1set?$DMT?$DO?5iterator?$AA@ DB 'invalid '
	DB	'map/set<T> iterator', 00H			; `string'
CONST	ENDS
;	COMDAT __TI3?AVout_of_range@std@@
xdata$x	SEGMENT
__TI3?AVout_of_range@std@@ DD 00H
	DD	FLAT:??1out_of_range@std@@UAE@XZ
	DD	00H
	DD	FLAT:__CTA3?AVout_of_range@std@@
xdata$x	ENDS
;	COMDAT __CTA3?AVout_of_range@std@@
xdata$x	SEGMENT
__CTA3?AVout_of_range@std@@ DD 03H
	DD	FLAT:__CT??_R0?AVout_of_range@std@@@8??0out_of_range@std@@QAE@ABV01@@Z40
	DD	FLAT:__CT??_R0?AVlogic_error@std@@@8??0logic_error@std@@QAE@ABV01@@Z40
	DD	FLAT:__CT??_R0?AVexception@@@8??0exception@@QAE@ABV0@@Z12
xdata$x	ENDS
;	COMDAT __CT??_R0?AVout_of_range@std@@@8??0out_of_range@std@@QAE@ABV01@@Z40
xdata$x	SEGMENT
__CT??_R0?AVout_of_range@std@@@8??0out_of_range@std@@QAE@ABV01@@Z40 DD 00H
	DD	FLAT:??_R0?AVout_of_range@std@@@8
	DD	00H
	DD	0ffffffffH
	ORG $+4
	DD	028H
	DD	FLAT:??0out_of_range@std@@QAE@ABV01@@Z
xdata$x	ENDS
;	COMDAT ??_R0?AVout_of_range@std@@@8
_DATA	SEGMENT
??_R0?AVout_of_range@std@@@8 DD FLAT:??_7type_info@@6B@	; std::out_of_range `RTTI Type Descriptor'
	DD	00H
	DB	'.?AVout_of_range@std@@', 00H
_DATA	ENDS
;	COMDAT __CT??_R0?AVlogic_error@std@@@8??0logic_error@std@@QAE@ABV01@@Z40
xdata$x	SEGMENT
__CT??_R0?AVlogic_error@std@@@8??0logic_error@std@@QAE@ABV01@@Z40 DD 00H
	DD	FLAT:??_R0?AVlogic_error@std@@@8
	DD	00H
	DD	0ffffffffH
	ORG $+4
	DD	028H
	DD	FLAT:??0logic_error@std@@QAE@ABV01@@Z
xdata$x	ENDS
;	COMDAT ??_R0?AVlogic_error@std@@@8
_DATA	SEGMENT
??_R0?AVlogic_error@std@@@8 DD FLAT:??_7type_info@@6B@	; std::logic_error `RTTI Type Descriptor'
	DD	00H
	DB	'.?AVlogic_error@std@@', 00H
	ORG $-30
	DD	FLAT:??_7type_info@@6B@
	DD	00H
	DB	'.?AVlogic_error@std@@', 00H
_DATA	ENDS
;	COMDAT __CT??_R0?AVexception@@@8??0exception@@QAE@ABV0@@Z12
xdata$x	SEGMENT
__CT??_R0?AVexception@@@8??0exception@@QAE@ABV0@@Z12 DD 00H
	DD	FLAT:??_R0?AVexception@@@8
	DD	00H
	DD	0ffffffffH
	ORG $+4
	DD	0cH
	DD	FLAT:??0exception@@QAE@ABV0@@Z
xdata$x	ENDS
;	COMDAT ??_R0?AVexception@@@8
_DATA	SEGMENT
??_R0?AVexception@@@8 DD FLAT:??_7type_info@@6B@	; exception `RTTI Type Descriptor'
	DD	00H
	DB	'.?AVexception@@', 00H
	ORG $-24
	DD	FLAT:??_7type_info@@6B@
	DD	00H
	DB	'.?AVexception@@', 00H
; Function compile flags: /Odt /RTCsu
_DATA	ENDS
;	COMDAT ?erase@?$_Tree@V?$_Tmap_traits@KPAVIData@@U?$less@K@std@@V?$allocator@U?$pair@$$CBKPAVIData@@@std@@@3@$0A@@std@@@std@@QAE?AViterator@12@V312@@Z
_TEXT	SEGMENT
tv177 = -108						; size = 4
tv165 = -104						; size = 4
$T190331 = -100						; size = 28
$T190330 = -72						; size = 40
__Pnode$ = -32						; size = 4
__Fixnodeparent$ = -28					; size = 4
__Fixnode$ = -24					; size = 4
__Erasednode$ = -20					; size = 4
_this$ = -16						; size = 4
__$EHRec$ = -12						; size = 12
___$ReturnUdt$ = 8					; size = 4
__Where$ = 12						; size = 4
?erase@?$_Tree@V?$_Tmap_traits@KPAVIData@@U?$less@K@std@@V?$allocator@U?$pair@$$CBKPAVIData@@@std@@@3@$0A@@std@@@std@@QAE?AViterator@12@V312@@Z PROC NEAR ; std::_Tree<std::_Tmap_traits<unsigned long,IData *,std::less<unsigned long>,std::allocator<std::pair<unsigned long const ,IData *> >,0> >::erase, COMDAT
; _this$ = ecx

; 590  : 		{	// erase element at _Where

  00000	55		 push	 ebp
  00001	8b ec		 mov	 ebp, esp
  00003	6a ff		 push	 -1
  00005	68 00 00 00 00	 push	 __ehhandler$?erase@?$_Tree@V?$_Tmap_traits@KPAVIData@@U?$less@K@std@@V?$allocator@U?$pair@$$CBKPAVIData@@@std@@@3@$0A@@std@@@std@@QAE?AViterator@12@V312@@Z
  0000a	64 a1 00 00 00
	00		 mov	 eax, DWORD PTR fs:__except_list
  00010	50		 push	 eax
  00011	64 89 25 00 00
	00 00		 mov	 DWORD PTR fs:__except_list, esp
  00018	83 ec 60	 sub	 esp, 96			; 00000060H
  0001b	56		 push	 esi
  0001c	57		 push	 edi
  0001d	51		 push	 ecx
  0001e	8d 7d 94	 lea	 edi, DWORD PTR [ebp-108]
  00021	b9 18 00 00 00	 mov	 ecx, 24			; 00000018H
  00026	b8 cc cc cc cc	 mov	 eax, -858993460		; ccccccccH
  0002b	f3 ab		 rep stosd
  0002d	59		 pop	 ecx
  0002e	89 4d f0	 mov	 DWORD PTR _this$[ebp], ecx

; 591  : 		if (_Isnil(_Where._Mynode()))

  00031	8d 4d 0c	 lea	 ecx, DWORD PTR __Where$[ebp]
  00034	e8 00 00 00 00	 call	 ?_Mynode@const_iterator@?$_Tree@V?$_Tmap_traits@KPAVIData@@U?$less@K@std@@V?$allocator@U?$pair@$$CBKPAVIData@@@std@@@3@$0A@@std@@@std@@QBEPAU_Node@?$_Tree_nod@V?$_Tmap_traits@KPAVIData@@U?$less@K@std@@V?$allocator@U?$pair@$$CBKPAVIData@@@std@@@3@$0A@@std@@@3@XZ ; std::_Tree<std::_Tmap_traits<unsigned long,IData *,std::less<unsigned long>,std::allocator<std::pair<unsigned long const ,IData *> >,0> >::const_iterator::_Mynode
  00039	50		 push	 eax
  0003a	e8 00 00 00 00	 call	 ?_Isnil@?$_Tree@V?$_Tmap_traits@KPAVIData@@U?$less@K@std@@V?$allocator@U?$pair@$$CBKPAVIData@@@std@@@3@$0A@@std@@@std@@KAAADPAU_Node@?$_Tree_nod@V?$_Tmap_traits@KPAVIData@@U?$less@K@std@@V?$allocator@U?$pair@$$CBKPAVIData@@@std@@@3@$0A@@std@@@2@@Z ; std::_Tree<std::_Tmap_traits<unsigned long,IData *,std::less<unsigned long>,std::allocator<std::pair<unsigned long const ,IData *> >,0> >::_Isnil
  0003f	83 c4 04	 add	 esp, 4
  00042	0f be 00	 movsx	 eax, BYTE PTR [eax]
  00045	85 c0		 test	 eax, eax
  00047	74 38		 je	 SHORT $L189338

; 592  : 			_THROW(out_of_range, "invalid map/set<T> iterator");

  00049	8b f4		 mov	 esi, esp
  0004b	68 00 00 00 00	 push	 OFFSET FLAT:??_C@_0BM@PAPJHAGI@invalid?5map?1set?$DMT?$DO?5iterator?$AA@
  00050	8d 4d 9c	 lea	 ecx, DWORD PTR $T190331[ebp]
  00053	ff 15 00 00 00
	00		 call	 DWORD PTR __imp_??0?$basic_string@DU?$char_traits@D@std@@V?$allocator@D@2@@std@@QAE@PBD@Z
  00059	3b f4		 cmp	 esi, esp
  0005b	e8 00 00 00 00	 call	 __RTC_CheckEsp
  00060	c7 45 fc 00 00
	00 00		 mov	 DWORD PTR __$EHRec$[ebp+8], 0
  00067	8d 4d 9c	 lea	 ecx, DWORD PTR $T190331[ebp]
  0006a	51		 push	 ecx
  0006b	8d 4d b8	 lea	 ecx, DWORD PTR $T190330[ebp]
  0006e	e8 00 00 00 00	 call	 ??0out_of_range@std@@QAE@ABV?$basic_string@DU?$char_traits@D@std@@V?$allocator@D@2@@1@@Z ; std::out_of_range::out_of_range
  00073	68 00 00 00 00	 push	 OFFSET FLAT:__TI3?AVout_of_range@std@@
  00078	8d 55 b8	 lea	 edx, DWORD PTR $T190330[ebp]
  0007b	52		 push	 edx
  0007c	e8 00 00 00 00	 call	 __CxxThrowException@8
$L189338:

; 593  : 		_Nodeptr _Erasednode = _Where._Mynode();	// node to erase

  00081	8d 4d 0c	 lea	 ecx, DWORD PTR __Where$[ebp]
  00084	e8 00 00 00 00	 call	 ?_Mynode@const_iterator@?$_Tree@V?$_Tmap_traits@KPAVIData@@U?$less@K@std@@V?$allocator@U?$pair@$$CBKPAVIData@@@std@@@3@$0A@@std@@@std@@QBEPAU_Node@?$_Tree_nod@V?$_Tmap_traits@KPAVIData@@U?$less@K@std@@V?$allocator@U?$pair@$$CBKPAVIData@@@std@@@3@$0A@@std@@@3@XZ ; std::_Tree<std::_Tmap_traits<unsigned long,IData *,std::less<unsigned long>,std::allocator<std::pair<unsigned long const ,IData *> >,0> >::const_iterator::_Mynode
  00089	89 45 ec	 mov	 DWORD PTR __Erasednode$[ebp], eax

; 594  : 		++_Where;	// save successor iterator for return

  0008c	8d 4d 0c	 lea	 ecx, DWORD PTR __Where$[ebp]
  0008f	e8 00 00 00 00	 call	 ??Eiterator@?$_Tree@V?$_Tmap_traits@KPAVIData@@U?$less@K@std@@V?$allocator@U?$pair@$$CBKPAVIData@@@std@@@3@$0A@@std@@@std@@QAEAAV012@XZ ; std::_Tree<std::_Tmap_traits<unsigned long,IData *,std::less<unsigned long>,std::allocator<std::pair<unsigned long const ,IData *> >,0> >::iterator::operator++

; 595  : 
; 596  : 		_Nodeptr _Fixnode;	// the node to recolor as needed
; 597  : 		_Nodeptr _Fixnodeparent;	// parent of _Fixnode (which may be nil)
; 598  : 		_Nodeptr _Pnode = _Erasednode;

  00094	8b 45 ec	 mov	 eax, DWORD PTR __Erasednode$[ebp]
  00097	89 45 e0	 mov	 DWORD PTR __Pnode$[ebp], eax

; 599  : 
; 600  : 		if (_Isnil(_Left(_Pnode)))

  0009a	8b 4d e0	 mov	 ecx, DWORD PTR __Pnode$[ebp]
  0009d	51		 push	 ecx
  0009e	e8 00 00 00 00	 call	 ?_Left@?$_Tree@V?$_Tmap_traits@KPAVIData@@U?$less@K@std@@V?$allocator@U?$pair@$$CBKPAVIData@@@std@@@3@$0A@@std@@@std@@KAAAPAU_Node@?$_Tree_nod@V?$_Tmap_traits@KPAVIData@@U?$less@K@std@@V?$allocator@U?$pair@$$CBKPAVIData@@@std@@@3@$0A@@std@@@2@PAU342@@Z ; std::_Tree<std::_Tmap_traits<unsigned long,IData *,std::less<unsigned long>,std::allocator<std::pair<unsigned long const ,IData *> >,0> >::_Left
  000a3	83 c4 04	 add	 esp, 4
  000a6	8b 10		 mov	 edx, DWORD PTR [eax]
  000a8	52		 push	 edx
  000a9	e8 00 00 00 00	 call	 ?_Isnil@?$_Tree@V?$_Tmap_traits@KPAVIData@@U?$less@K@std@@V?$allocator@U?$pair@$$CBKPAVIData@@@std@@@3@$0A@@std@@@std@@KAAADPAU_Node@?$_Tree_nod@V?$_Tmap_traits@KPAVIData@@U?$less@K@std@@V?$allocator@U?$pair@$$CBKPAVIData@@@std@@@3@$0A@@std@@@2@@Z ; std::_Tree<std::_Tmap_traits<unsigned long,IData *,std::less<unsigned long>,std::allocator<std::pair<unsigned long const ,IData *> >,0> >::_Isnil
  000ae	83 c4 04	 add	 esp, 4
  000b1	0f be 00	 movsx	 eax, BYTE PTR [eax]
  000b4	85 c0		 test	 eax, eax
  000b6	74 13		 je	 SHORT $L189346

; 601  : 			_Fixnode = _Right(_Pnode);	// must stitch up right subtree

  000b8	8b 4d e0	 mov	 ecx, DWORD PTR __Pnode$[ebp]
  000bb	51		 push	 ecx
  000bc	e8 00 00 00 00	 call	 ?_Right@?$_Tree@V?$_Tmap_traits@KPAVIData@@U?$less@K@std@@V?$allocator@U?$pair@$$CBKPAVIData@@@std@@@3@$0A@@std@@@std@@KAAAPAU_Node@?$_Tree_nod@V?$_Tmap_traits@KPAVIData@@U?$less@K@std@@V?$allocator@U?$pair@$$CBKPAVIData@@@std@@@3@$0A@@std@@@2@PAU342@@Z ; std::_Tree<std::_Tmap_traits<unsigned long,IData *,std::less<unsigned long>,std::allocator<std::pair<unsigned long const ,IData *> >,0> >::_Right
  000c1	83 c4 04	 add	 esp, 4
  000c4	8b 10		 mov	 edx, DWORD PTR [eax]
  000c6	89 55 e8	 mov	 DWORD PTR __Fixnode$[ebp], edx

; 602  : 		else if (_Isnil(_Right(_Pnode)))

  000c9	eb 4d		 jmp	 SHORT $L189347
$L189346:
  000cb	8b 45 e0	 mov	 eax, DWORD PTR __Pnode$[ebp]
  000ce	50		 push	 eax
  000cf	e8 00 00 00 00	 call	 ?_Right@?$_Tree@V?$_Tmap_traits@KPAVIData@@U?$less@K@std@@V?$allocator@U?$pair@$$CBKPAVIData@@@std@@@3@$0A@@std@@@std@@KAAAPAU_Node@?$_Tree_nod@V?$_Tmap_traits@KPAVIData@@U?$less@K@std@@V?$allocator@U?$pair@$$CBKPAVIData@@@std@@@3@$0A@@std@@@2@PAU342@@Z ; std::_Tree<std::_Tmap_traits<unsigned long,IData *,std::less<unsigned long>,std::allocator<std::pair<unsigned long const ,IData *> >,0> >::_Right
  000d4	83 c4 04	 add	 esp, 4
  000d7	8b 08		 mov	 ecx, DWORD PTR [eax]
  000d9	51		 push	 ecx
  000da	e8 00 00 00 00	 call	 ?_Isnil@?$_Tree@V?$_Tmap_traits@KPAVIData@@U?$less@K@std@@V?$allocator@U?$pair@$$CBKPAVIData@@@std@@@3@$0A@@std@@@std@@KAAADPAU_Node@?$_Tree_nod@V?$_Tmap_traits@KPAVIData@@U?$less@K@std@@V?$allocator@U?$pair@$$CBKPAVIData@@@std@@@3@$0A@@std@@@2@@Z ; std::_Tree<std::_Tmap_traits<unsigned long,IData *,std::less<unsigned long>,std::allocator<std::pair<unsigned long const ,IData *> >,0> >::_Isnil
  000df	83 c4 04	 add	 esp, 4
  000e2	0f be 10	 movsx	 edx, BYTE PTR [eax]
  000e5	85 d2		 test	 edx, edx
  000e7	74 13		 je	 SHORT $L189348

; 603  : 			_Fixnode = _Left(_Pnode);	// must stitch up left subtree

  000e9	8b 45 e0	 mov	 eax, DWORD PTR __Pnode$[ebp]
  000ec	50		 push	 eax
  000ed	e8 00 00 00 00	 call	 ?_Left@?$_Tree@V?$_Tmap_traits@KPAVIData@@U?$less@K@std@@V?$allocator@U?$pair@$$CBKPAVIData@@@std@@@3@$0A@@std@@@std@@KAAAPAU_Node@?$_Tree_nod@V?$_Tmap_traits@KPAVIData@@U?$less@K@std@@V?$allocator@U?$pair@$$CBKPAVIData@@@std@@@3@$0A@@std@@@2@PAU342@@Z ; std::_Tree<std::_Tmap_traits<unsigned long,IData *,std::less<unsigned long>,std::allocator<std::pair<unsigned long const ,IData *> >,0> >::_Left
  000f2	83 c4 04	 add	 esp, 4
  000f5	8b 08		 mov	 ecx, DWORD PTR [eax]
  000f7	89 4d e8	 mov	 DWORD PTR __Fixnode$[ebp], ecx

; 604  : 		else

  000fa	eb 1c		 jmp	 SHORT $L189347
$L189348:

; 605  : 			{	// two subtrees, must lift successor node to replace erased
; 606  : 			_Pnode = _Where._Mynode();	// _Pnode is successor node

  000fc	8d 4d 0c	 lea	 ecx, DWORD PTR __Where$[ebp]
  000ff	e8 00 00 00 00	 call	 ?_Mynode@const_iterator@?$_Tree@V?$_Tmap_traits@KPAVIData@@U?$less@K@std@@V?$allocator@U?$pair@$$CBKPAVIData@@@std@@@3@$0A@@std@@@std@@QBEPAU_Node@?$_Tree_nod@V?$_Tmap_traits@KPAVIData@@U?$less@K@std@@V?$allocator@U?$pair@$$CBKPAVIData@@@std@@@3@$0A@@std@@@3@XZ ; std::_Tree<std::_Tmap_traits<unsigned long,IData *,std::less<unsigned long>,std::allocator<std::pair<unsigned long const ,IData *> >,0> >::const_iterator::_Mynode
  00104	89 45 e0	 mov	 DWORD PTR __Pnode$[ebp], eax

; 607  : 			_Fixnode = _Right(_Pnode);	// _Fixnode is its only subtree

  00107	8b 55 e0	 mov	 edx, DWORD PTR __Pnode$[ebp]
  0010a	52		 push	 edx
  0010b	e8 00 00 00 00	 call	 ?_Right@?$_Tree@V?$_Tmap_traits@KPAVIData@@U?$less@K@std@@V?$allocator@U?$pair@$$CBKPAVIData@@@std@@@3@$0A@@std@@@std@@KAAAPAU_Node@?$_Tree_nod@V?$_Tmap_traits@KPAVIData@@U?$less@K@std@@V?$allocator@U?$pair@$$CBKPAVIData@@@std@@@3@$0A@@std@@@2@PAU342@@Z ; std::_Tree<std::_Tmap_traits<unsigned long,IData *,std::less<unsigned long>,std::allocator<std::pair<unsigned long const ,IData *> >,0> >::_Right
  00110	83 c4 04	 add	 esp, 4
  00113	8b 00		 mov	 eax, DWORD PTR [eax]
  00115	89 45 e8	 mov	 DWORD PTR __Fixnode$[ebp], eax
$L189347:

; 608  : 			}
; 609  : 
; 610  : 		if (_Pnode == _Erasednode)

  00118	8b 4d e0	 mov	 ecx, DWORD PTR __Pnode$[ebp]
  0011b	3b 4d ec	 cmp	 ecx, DWORD PTR __Erasednode$[ebp]
  0011e	0f 85 1b 01 00
	00		 jne	 $L189350

; 611  : 			{	// at most one subtree, relink it
; 612  : 			_Fixnodeparent = _Parent(_Erasednode);

  00124	8b 55 ec	 mov	 edx, DWORD PTR __Erasednode$[ebp]
  00127	52		 push	 edx
  00128	e8 00 00 00 00	 call	 ?_Parent@?$_Tree@V?$_Tmap_traits@KPAVIData@@U?$less@K@std@@V?$allocator@U?$pair@$$CBKPAVIData@@@std@@@3@$0A@@std@@@std@@KAAAPAU_Node@?$_Tree_nod@V?$_Tmap_traits@KPAVIData@@U?$less@K@std@@V?$allocator@U?$pair@$$CBKPAVIData@@@std@@@3@$0A@@std@@@2@PAU342@@Z ; std::_Tree<std::_Tmap_traits<unsigned long,IData *,std::less<unsigned long>,std::allocator<std::pair<unsigned long const ,IData *> >,0> >::_Parent
  0012d	83 c4 04	 add	 esp, 4
  00130	8b 00		 mov	 eax, DWORD PTR [eax]
  00132	89 45 e4	 mov	 DWORD PTR __Fixnodeparent$[ebp], eax

; 613  : 			if (!_Isnil(_Fixnode))

  00135	8b 4d e8	 mov	 ecx, DWORD PTR __Fixnode$[ebp]
  00138	51		 push	 ecx
  00139	e8 00 00 00 00	 call	 ?_Isnil@?$_Tree@V?$_Tmap_traits@KPAVIData@@U?$less@K@std@@V?$allocator@U?$pair@$$CBKPAVIData@@@std@@@3@$0A@@std@@@std@@KAAADPAU_Node@?$_Tree_nod@V?$_Tmap_traits@KPAVIData@@U?$less@K@std@@V?$allocator@U?$pair@$$CBKPAVIData@@@std@@@3@$0A@@std@@@2@@Z ; std::_Tree<std::_Tmap_traits<unsigned long,IData *,std::less<unsigned long>,std::allocator<std::pair<unsigned long const ,IData *> >,0> >::_Isnil
  0013e	83 c4 04	 add	 esp, 4
  00141	0f be 10	 movsx	 edx, BYTE PTR [eax]
  00144	85 d2		 test	 edx, edx
  00146	75 11		 jne	 SHORT $L189351

; 614  : 				_Parent(_Fixnode) = _Fixnodeparent;	// link up

  00148	8b 45 e8	 mov	 eax, DWORD PTR __Fixnode$[ebp]
  0014b	50		 push	 eax
  0014c	e8 00 00 00 00	 call	 ?_Parent@?$_Tree@V?$_Tmap_traits@KPAVIData@@U?$less@K@std@@V?$allocator@U?$pair@$$CBKPAVIData@@@std@@@3@$0A@@std@@@std@@KAAAPAU_Node@?$_Tree_nod@V?$_Tmap_traits@KPAVIData@@U?$less@K@std@@V?$allocator@U?$pair@$$CBKPAVIData@@@std@@@3@$0A@@std@@@2@PAU342@@Z ; std::_Tree<std::_Tmap_traits<unsigned long,IData *,std::less<unsigned long>,std::allocator<std::pair<unsigned long const ,IData *> >,0> >::_Parent
  00151	83 c4 04	 add	 esp, 4
  00154	8b 4d e4	 mov	 ecx, DWORD PTR __Fixnodeparent$[ebp]
  00157	89 08		 mov	 DWORD PTR [eax], ecx
$L189351:

; 615  : 
; 616  : 			if (_Root() == _Erasednode)

  00159	8b 4d f0	 mov	 ecx, DWORD PTR _this$[ebp]
  0015c	e8 00 00 00 00	 call	 ?_Root@?$_Tree@V?$_Tmap_traits@KPAVIData@@U?$less@K@std@@V?$allocator@U?$pair@$$CBKPAVIData@@@std@@@3@$0A@@std@@@std@@IAEAAPAU_Node@?$_Tree_nod@V?$_Tmap_traits@KPAVIData@@U?$less@K@std@@V?$allocator@U?$pair@$$CBKPAVIData@@@std@@@3@$0A@@std@@@2@XZ ; std::_Tree<std::_Tmap_traits<unsigned long,IData *,std::less<unsigned long>,std::allocator<std::pair<unsigned long const ,IData *> >,0> >::_Root
  00161	8b 10		 mov	 edx, DWORD PTR [eax]
  00163	3b 55 ec	 cmp	 edx, DWORD PTR __Erasednode$[ebp]
  00166	75 0f		 jne	 SHORT $L189352

; 617  : 				_Root() = _Fixnode;	// link down from root

  00168	8b 4d f0	 mov	 ecx, DWORD PTR _this$[ebp]
  0016b	e8 00 00 00 00	 call	 ?_Root@?$_Tree@V?$_Tmap_traits@KPAVIData@@U?$less@K@std@@V?$allocator@U?$pair@$$CBKPAVIData@@@std@@@3@$0A@@std@@@std@@IAEAAPAU_Node@?$_Tree_nod@V?$_Tmap_traits@KPAVIData@@U?$less@K@std@@V?$allocator@U?$pair@$$CBKPAVIData@@@std@@@3@$0A@@std@@@2@XZ ; std::_Tree<std::_Tmap_traits<unsigned long,IData *,std::less<unsigned long>,std::allocator<std::pair<unsigned long const ,IData *> >,0> >::_Root
  00170	8b 4d e8	 mov	 ecx, DWORD PTR __Fixnode$[ebp]
  00173	89 08		 mov	 DWORD PTR [eax], ecx

; 618  : 			else if (_Left(_Fixnodeparent) == _Erasednode)

  00175	eb 37		 jmp	 SHORT $L189353
$L189352:
  00177	8b 55 e4	 mov	 edx, DWORD PTR __Fixnodeparent$[ebp]
  0017a	52		 push	 edx
  0017b	e8 00 00 00 00	 call	 ?_Left@?$_Tree@V?$_Tmap_traits@KPAVIData@@U?$less@K@std@@V?$allocator@U?$pair@$$CBKPAVIData@@@std@@@3@$0A@@std@@@std@@KAAAPAU_Node@?$_Tree_nod@V?$_Tmap_traits@KPAVIData@@U?$less@K@std@@V?$allocator@U?$pair@$$CBKPAVIData@@@std@@@3@$0A@@std@@@2@PAU342@@Z ; std::_Tree<std::_Tmap_traits<unsigned long,IData *,std::less<unsigned long>,std::allocator<std::pair<unsigned long const ,IData *> >,0> >::_Left
  00180	83 c4 04	 add	 esp, 4
  00183	8b 00		 mov	 eax, DWORD PTR [eax]
  00185	3b 45 ec	 cmp	 eax, DWORD PTR __Erasednode$[ebp]
  00188	75 13		 jne	 SHORT $L189354

; 619  : 				_Left(_Fixnodeparent) = _Fixnode;	// link down to left

  0018a	8b 4d e4	 mov	 ecx, DWORD PTR __Fixnodeparent$[ebp]
  0018d	51		 push	 ecx
  0018e	e8 00 00 00 00	 call	 ?_Left@?$_Tree@V?$_Tmap_traits@KPAVIData@@U?$less@K@std@@V?$allocator@U?$pair@$$CBKPAVIData@@@std@@@3@$0A@@std@@@std@@KAAAPAU_Node@?$_Tree_nod@V?$_Tmap_traits@KPAVIData@@U?$less@K@std@@V?$allocator@U?$pair@$$CBKPAVIData@@@std@@@3@$0A@@std@@@2@PAU342@@Z ; std::_Tree<std::_Tmap_traits<unsigned long,IData *,std::less<unsigned long>,std::allocator<std::pair<unsigned long const ,IData *> >,0> >::_Left
  00193	83 c4 04	 add	 esp, 4
  00196	8b 55 e8	 mov	 edx, DWORD PTR __Fixnode$[ebp]
  00199	89 10		 mov	 DWORD PTR [eax], edx

; 620  : 			else

  0019b	eb 11		 jmp	 SHORT $L189353
$L189354:

; 621  : 				_Right(_Fixnodeparent) = _Fixnode;	// link down to right

  0019d	8b 45 e4	 mov	 eax, DWORD PTR __Fixnodeparent$[ebp]
  001a0	50		 push	 eax
  001a1	e8 00 00 00 00	 call	 ?_Right@?$_Tree@V?$_Tmap_traits@KPAVIData@@U?$less@K@std@@V?$allocator@U?$pair@$$CBKPAVIData@@@std@@@3@$0A@@std@@@std@@KAAAPAU_Node@?$_Tree_nod@V?$_Tmap_traits@KPAVIData@@U?$less@K@std@@V?$allocator@U?$pair@$$CBKPAVIData@@@std@@@3@$0A@@std@@@2@PAU342@@Z ; std::_Tree<std::_Tmap_traits<unsigned long,IData *,std::less<unsigned long>,std::allocator<std::pair<unsigned long const ,IData *> >,0> >::_Right
  001a6	83 c4 04	 add	 esp, 4
  001a9	8b 4d e8	 mov	 ecx, DWORD PTR __Fixnode$[ebp]
  001ac	89 08		 mov	 DWORD PTR [eax], ecx
$L189353:

; 622  : 
; 623  : 			if (_Lmost() == _Erasednode)

  001ae	8b 4d f0	 mov	 ecx, DWORD PTR _this$[ebp]
  001b1	e8 00 00 00 00	 call	 ?_Lmost@?$_Tree@V?$_Tmap_traits@KPAVIData@@U?$less@K@std@@V?$allocator@U?$pair@$$CBKPAVIData@@@std@@@3@$0A@@std@@@std@@IAEAAPAU_Node@?$_Tree_nod@V?$_Tmap_traits@KPAVIData@@U?$less@K@std@@V?$allocator@U?$pair@$$CBKPAVIData@@@std@@@3@$0A@@std@@@2@XZ ; std::_Tree<std::_Tmap_traits<unsigned long,IData *,std::less<unsigned long>,std::allocator<std::pair<unsigned long const ,IData *> >,0> >::_Lmost
  001b6	8b 10		 mov	 edx, DWORD PTR [eax]
  001b8	3b 55 ec	 cmp	 edx, DWORD PTR __Erasednode$[ebp]
  001bb	75 37		 jne	 SHORT $L189356

; 624  : 				_Lmost() = _Isnil(_Fixnode)
; 625  : 					? _Fixnodeparent	// smallest is parent of erased node
; 626  : 					: _Min(_Fixnode);	// smallest in relinked subtree

  001bd	8b 45 e8	 mov	 eax, DWORD PTR __Fixnode$[ebp]
  001c0	50		 push	 eax
  001c1	e8 00 00 00 00	 call	 ?_Isnil@?$_Tree@V?$_Tmap_traits@KPAVIData@@U?$less@K@std@@V?$allocator@U?$pair@$$CBKPAVIData@@@std@@@3@$0A@@std@@@std@@KAAADPAU_Node@?$_Tree_nod@V?$_Tmap_traits@KPAVIData@@U?$less@K@std@@V?$allocator@U?$pair@$$CBKPAVIData@@@std@@@3@$0A@@std@@@2@@Z ; std::_Tree<std::_Tmap_traits<unsigned long,IData *,std::less<unsigned long>,std::allocator<std::pair<unsigned long const ,IData *> >,0> >::_Isnil
  001c6	83 c4 04	 add	 esp, 4
  001c9	0f be 08	 movsx	 ecx, BYTE PTR [eax]
  001cc	85 c9		 test	 ecx, ecx
  001ce	74 08		 je	 SHORT $L190333
  001d0	8b 55 e4	 mov	 edx, DWORD PTR __Fixnodeparent$[ebp]
  001d3	89 55 98	 mov	 DWORD PTR tv165[ebp], edx
  001d6	eb 0f		 jmp	 SHORT $L190334
$L190333:
  001d8	8b 45 e8	 mov	 eax, DWORD PTR __Fixnode$[ebp]
  001db	50		 push	 eax
  001dc	e8 00 00 00 00	 call	 ?_Min@?$_Tree@V?$_Tmap_traits@KPAVIData@@U?$less@K@std@@V?$allocator@U?$pair@$$CBKPAVIData@@@std@@@3@$0A@@std@@@std@@KAPAU_Node@?$_Tree_nod@V?$_Tmap_traits@KPAVIData@@U?$less@K@std@@V?$allocator@U?$pair@$$CBKPAVIData@@@std@@@3@$0A@@std@@@2@PAU342@@Z ; std::_Tree<std::_Tmap_traits<unsigned long,IData *,std::less<unsigned long>,std::allocator<std::pair<unsigned long const ,IData *> >,0> >::_Min
  001e1	83 c4 04	 add	 esp, 4
  001e4	89 45 98	 mov	 DWORD PTR tv165[ebp], eax
$L190334:
  001e7	8b 4d f0	 mov	 ecx, DWORD PTR _this$[ebp]
  001ea	e8 00 00 00 00	 call	 ?_Lmost@?$_Tree@V?$_Tmap_traits@KPAVIData@@U?$less@K@std@@V?$allocator@U?$pair@$$CBKPAVIData@@@std@@@3@$0A@@std@@@std@@IAEAAPAU_Node@?$_Tree_nod@V?$_Tmap_traits@KPAVIData@@U?$less@K@std@@V?$allocator@U?$pair@$$CBKPAVIData@@@std@@@3@$0A@@std@@@2@XZ ; std::_Tree<std::_Tmap_traits<unsigned long,IData *,std::less<unsigned long>,std::allocator<std::pair<unsigned long const ,IData *> >,0> >::_Lmost
  001ef	8b 4d 98	 mov	 ecx, DWORD PTR tv165[ebp]
  001f2	89 08		 mov	 DWORD PTR [eax], ecx
$L189356:

; 627  : 
; 628  : 			if (_Rmost() == _Erasednode)

  001f4	8b 4d f0	 mov	 ecx, DWORD PTR _this$[ebp]
  001f7	e8 00 00 00 00	 call	 ?_Rmost@?$_Tree@V?$_Tmap_traits@KPAVIData@@U?$less@K@std@@V?$allocator@U?$pair@$$CBKPAVIData@@@std@@@3@$0A@@std@@@std@@IAEAAPAU_Node@?$_Tree_nod@V?$_Tmap_traits@KPAVIData@@U?$less@K@std@@V?$allocator@U?$pair@$$CBKPAVIData@@@std@@@3@$0A@@std@@@2@XZ ; std::_Tree<std::_Tmap_traits<unsigned long,IData *,std::less<unsigned long>,std::allocator<std::pair<unsigned long const ,IData *> >,0> >::_Rmost
  001fc	8b 10		 mov	 edx, DWORD PTR [eax]
  001fe	3b 55 ec	 cmp	 edx, DWORD PTR __Erasednode$[ebp]
  00201	75 37		 jne	 SHORT $L189357

; 629  : 				_Rmost() = _Isnil(_Fixnode)
; 630  : 					? _Fixnodeparent	// largest is parent of erased node
; 631  : 					: _Max(_Fixnode);	// largest in relinked subtree

  00203	8b 45 e8	 mov	 eax, DWORD PTR __Fixnode$[ebp]
  00206	50		 push	 eax
  00207	e8 00 00 00 00	 call	 ?_Isnil@?$_Tree@V?$_Tmap_traits@KPAVIData@@U?$less@K@std@@V?$allocator@U?$pair@$$CBKPAVIData@@@std@@@3@$0A@@std@@@std@@KAAADPAU_Node@?$_Tree_nod@V?$_Tmap_traits@KPAVIData@@U?$less@K@std@@V?$allocator@U?$pair@$$CBKPAVIData@@@std@@@3@$0A@@std@@@2@@Z ; std::_Tree<std::_Tmap_traits<unsigned long,IData *,std::less<unsigned long>,std::allocator<std::pair<unsigned long const ,IData *> >,0> >::_Isnil
  0020c	83 c4 04	 add	 esp, 4
  0020f	0f be 08	 movsx	 ecx, BYTE PTR [eax]
  00212	85 c9		 test	 ecx, ecx
  00214	74 08		 je	 SHORT $L190335
  00216	8b 55 e4	 mov	 edx, DWORD PTR __Fixnodeparent$[ebp]
  00219	89 55 94	 mov	 DWORD PTR tv177[ebp], edx
  0021c	eb 0f		 jmp	 SHORT $L190336
$L190335:
  0021e	8b 45 e8	 mov	 eax, DWORD PTR __Fixnode$[ebp]
  00221	50		 push	 eax
  00222	e8 00 00 00 00	 call	 ?_Max@?$_Tree@V?$_Tmap_traits@KPAVIData@@U?$less@K@std@@V?$allocator@U?$pair@$$CBKPAVIData@@@std@@@3@$0A@@std@@@std@@KAPAU_Node@?$_Tree_nod@V?$_Tmap_traits@KPAVIData@@U?$less@K@std@@V?$allocator@U?$pair@$$CBKPAVIData@@@std@@@3@$0A@@std@@@2@PAU342@@Z ; std::_Tree<std::_Tmap_traits<unsigned long,IData *,std::less<unsigned long>,std::allocator<std::pair<unsigned long const ,IData *> >,0> >::_Max
  00227	83 c4 04	 add	 esp, 4
  0022a	89 45 94	 mov	 DWORD PTR tv177[ebp], eax
$L190336:
  0022d	8b 4d f0	 mov	 ecx, DWORD PTR _this$[ebp]
  00230	e8 00 00 00 00	 call	 ?_Rmost@?$_Tree@V?$_Tmap_traits@KPAVIData@@U?$less@K@std@@V?$allocator@U?$pair@$$CBKPAVIData@@@std@@@3@$0A@@std@@@std@@IAEAAPAU_Node@?$_Tree_nod@V?$_Tmap_traits@KPAVIData@@U?$less@K@std@@V?$allocator@U?$pair@$$CBKPAVIData@@@std@@@3@$0A@@std@@@2@XZ ; std::_Tree<std::_Tmap_traits<unsigned long,IData *,std::less<unsigned long>,std::allocator<std::pair<unsigned long const ,IData *> >,0> >::_Rmost
  00235	8b 4d 94	 mov	 ecx, DWORD PTR tv177[ebp]
  00238	89 08		 mov	 DWORD PTR [eax], ecx
$L189357:

; 632  : 			}
; 633  : 		else

  0023a	e9 8e 01 00 00	 jmp	 $L189358
$L189350:

; 634  : 			{	// erased has two subtrees, _Pnode is successor to erased
; 635  : 			_Parent(_Left(_Erasednode)) = _Pnode;	// link left up

  0023f	8b 55 ec	 mov	 edx, DWORD PTR __Erasednode$[ebp]
  00242	52		 push	 edx
  00243	e8 00 00 00 00	 call	 ?_Left@?$_Tree@V?$_Tmap_traits@KPAVIData@@U?$less@K@std@@V?$allocator@U?$pair@$$CBKPAVIData@@@std@@@3@$0A@@std@@@std@@KAAAPAU_Node@?$_Tree_nod@V?$_Tmap_traits@KPAVIData@@U?$less@K@std@@V?$allocator@U?$pair@$$CBKPAVIData@@@std@@@3@$0A@@std@@@2@PAU342@@Z ; std::_Tree<std::_Tmap_traits<unsigned long,IData *,std::less<unsigned long>,std::allocator<std::pair<unsigned long const ,IData *> >,0> >::_Left
  00248	83 c4 04	 add	 esp, 4
  0024b	8b 00		 mov	 eax, DWORD PTR [eax]
  0024d	50		 push	 eax
  0024e	e8 00 00 00 00	 call	 ?_Parent@?$_Tree@V?$_Tmap_traits@KPAVIData@@U?$less@K@std@@V?$allocator@U?$pair@$$CBKPAVIData@@@std@@@3@$0A@@std@@@std@@KAAAPAU_Node@?$_Tree_nod@V?$_Tmap_traits@KPAVIData@@U?$less@K@std@@V?$allocator@U?$pair@$$CBKPAVIData@@@std@@@3@$0A@@std@@@2@PAU342@@Z ; std::_Tree<std::_Tmap_traits<unsigned long,IData *,std::less<unsigned long>,std::allocator<std::pair<unsigned long const ,IData *> >,0> >::_Parent
  00253	83 c4 04	 add	 esp, 4
  00256	8b 4d e0	 mov	 ecx, DWORD PTR __Pnode$[ebp]
  00259	89 08		 mov	 DWORD PTR [eax], ecx

; 636  : 			_Left(_Pnode) = _Left(_Erasednode);	// link successor down

  0025b	8b 55 ec	 mov	 edx, DWORD PTR __Erasednode$[ebp]
  0025e	52		 push	 edx
  0025f	e8 00 00 00 00	 call	 ?_Left@?$_Tree@V?$_Tmap_traits@KPAVIData@@U?$less@K@std@@V?$allocator@U?$pair@$$CBKPAVIData@@@std@@@3@$0A@@std@@@std@@KAAAPAU_Node@?$_Tree_nod@V?$_Tmap_traits@KPAVIData@@U?$less@K@std@@V?$allocator@U?$pair@$$CBKPAVIData@@@std@@@3@$0A@@std@@@2@PAU342@@Z ; std::_Tree<std::_Tmap_traits<unsigned long,IData *,std::less<unsigned long>,std::allocator<std::pair<unsigned long const ,IData *> >,0> >::_Left
  00264	83 c4 04	 add	 esp, 4
  00267	8b f0		 mov	 esi, eax
  00269	8b 45 e0	 mov	 eax, DWORD PTR __Pnode$[ebp]
  0026c	50		 push	 eax
  0026d	e8 00 00 00 00	 call	 ?_Left@?$_Tree@V?$_Tmap_traits@KPAVIData@@U?$less@K@std@@V?$allocator@U?$pair@$$CBKPAVIData@@@std@@@3@$0A@@std@@@std@@KAAAPAU_Node@?$_Tree_nod@V?$_Tmap_traits@KPAVIData@@U?$less@K@std@@V?$allocator@U?$pair@$$CBKPAVIData@@@std@@@3@$0A@@std@@@2@PAU342@@Z ; std::_Tree<std::_Tmap_traits<unsigned long,IData *,std::less<unsigned long>,std::allocator<std::pair<unsigned long const ,IData *> >,0> >::_Left
  00272	83 c4 04	 add	 esp, 4
  00275	8b 0e		 mov	 ecx, DWORD PTR [esi]
  00277	89 08		 mov	 DWORD PTR [eax], ecx

; 637  : 
; 638  : 			if (_Pnode == _Right(_Erasednode))

  00279	8b 55 ec	 mov	 edx, DWORD PTR __Erasednode$[ebp]
  0027c	52		 push	 edx
  0027d	e8 00 00 00 00	 call	 ?_Right@?$_Tree@V?$_Tmap_traits@KPAVIData@@U?$less@K@std@@V?$allocator@U?$pair@$$CBKPAVIData@@@std@@@3@$0A@@std@@@std@@KAAAPAU_Node@?$_Tree_nod@V?$_Tmap_traits@KPAVIData@@U?$less@K@std@@V?$allocator@U?$pair@$$CBKPAVIData@@@std@@@3@$0A@@std@@@2@PAU342@@Z ; std::_Tree<std::_Tmap_traits<unsigned long,IData *,std::less<unsigned long>,std::allocator<std::pair<unsigned long const ,IData *> >,0> >::_Right
  00282	83 c4 04	 add	 esp, 4
  00285	8b 4d e0	 mov	 ecx, DWORD PTR __Pnode$[ebp]
  00288	3b 08		 cmp	 ecx, DWORD PTR [eax]
  0028a	75 0b		 jne	 SHORT $L189359

; 639  : 				_Fixnodeparent = _Pnode;	// successor is next to erased

  0028c	8b 55 e0	 mov	 edx, DWORD PTR __Pnode$[ebp]
  0028f	89 55 e4	 mov	 DWORD PTR __Fixnodeparent$[ebp], edx

; 640  : 			else

  00292	e9 80 00 00 00	 jmp	 $L189360
$L189359:

; 641  : 				{	// successor further down, link in place of erased
; 642  : 				_Fixnodeparent = _Parent(_Pnode);	// parent is successor's

  00297	8b 45 e0	 mov	 eax, DWORD PTR __Pnode$[ebp]
  0029a	50		 push	 eax
  0029b	e8 00 00 00 00	 call	 ?_Parent@?$_Tree@V?$_Tmap_traits@KPAVIData@@U?$less@K@std@@V?$allocator@U?$pair@$$CBKPAVIData@@@std@@@3@$0A@@std@@@std@@KAAAPAU_Node@?$_Tree_nod@V?$_Tmap_traits@KPAVIData@@U?$less@K@std@@V?$allocator@U?$pair@$$CBKPAVIData@@@std@@@3@$0A@@std@@@2@PAU342@@Z ; std::_Tree<std::_Tmap_traits<unsigned long,IData *,std::less<unsigned long>,std::allocator<std::pair<unsigned long const ,IData *> >,0> >::_Parent
  002a0	83 c4 04	 add	 esp, 4
  002a3	8b 08		 mov	 ecx, DWORD PTR [eax]
  002a5	89 4d e4	 mov	 DWORD PTR __Fixnodeparent$[ebp], ecx

; 643  : 				if (!_Isnil(_Fixnode))

  002a8	8b 55 e8	 mov	 edx, DWORD PTR __Fixnode$[ebp]
  002ab	52		 push	 edx
  002ac	e8 00 00 00 00	 call	 ?_Isnil@?$_Tree@V?$_Tmap_traits@KPAVIData@@U?$less@K@std@@V?$allocator@U?$pair@$$CBKPAVIData@@@std@@@3@$0A@@std@@@std@@KAAADPAU_Node@?$_Tree_nod@V?$_Tmap_traits@KPAVIData@@U?$less@K@std@@V?$allocator@U?$pair@$$CBKPAVIData@@@std@@@3@$0A@@std@@@2@@Z ; std::_Tree<std::_Tmap_traits<unsigned long,IData *,std::less<unsigned long>,std::allocator<std::pair<unsigned long const ,IData *> >,0> >::_Isnil
  002b1	83 c4 04	 add	 esp, 4
  002b4	0f be 00	 movsx	 eax, BYTE PTR [eax]
  002b7	85 c0		 test	 eax, eax
  002b9	75 11		 jne	 SHORT $L189361

; 644  : 					_Parent(_Fixnode) = _Fixnodeparent;	// link fix up

  002bb	8b 4d e8	 mov	 ecx, DWORD PTR __Fixnode$[ebp]
  002be	51		 push	 ecx
  002bf	e8 00 00 00 00	 call	 ?_Parent@?$_Tree@V?$_Tmap_traits@KPAVIData@@U?$less@K@std@@V?$allocator@U?$pair@$$CBKPAVIData@@@std@@@3@$0A@@std@@@std@@KAAAPAU_Node@?$_Tree_nod@V?$_Tmap_traits@KPAVIData@@U?$less@K@std@@V?$allocator@U?$pair@$$CBKPAVIData@@@std@@@3@$0A@@std@@@2@PAU342@@Z ; std::_Tree<std::_Tmap_traits<unsigned long,IData *,std::less<unsigned long>,std::allocator<std::pair<unsigned long const ,IData *> >,0> >::_Parent
  002c4	83 c4 04	 add	 esp, 4
  002c7	8b 55 e4	 mov	 edx, DWORD PTR __Fixnodeparent$[ebp]
  002ca	89 10		 mov	 DWORD PTR [eax], edx
$L189361:

; 645  : 				_Left(_Fixnodeparent) = _Fixnode;	// link fix down

  002cc	8b 45 e4	 mov	 eax, DWORD PTR __Fixnodeparent$[ebp]
  002cf	50		 push	 eax
  002d0	e8 00 00 00 00	 call	 ?_Left@?$_Tree@V?$_Tmap_traits@KPAVIData@@U?$less@K@std@@V?$allocator@U?$pair@$$CBKPAVIData@@@std@@@3@$0A@@std@@@std@@KAAAPAU_Node@?$_Tree_nod@V?$_Tmap_traits@KPAVIData@@U?$less@K@std@@V?$allocator@U?$pair@$$CBKPAVIData@@@std@@@3@$0A@@std@@@2@PAU342@@Z ; std::_Tree<std::_Tmap_traits<unsigned long,IData *,std::less<unsigned long>,std::allocator<std::pair<unsigned long const ,IData *> >,0> >::_Left
  002d5	83 c4 04	 add	 esp, 4
  002d8	8b 4d e8	 mov	 ecx, DWORD PTR __Fixnode$[ebp]
  002db	89 08		 mov	 DWORD PTR [eax], ecx

; 646  : 				_Right(_Pnode) = _Right(_Erasednode);	// link successor down

  002dd	8b 55 ec	 mov	 edx, DWORD PTR __Erasednode$[ebp]
  002e0	52		 push	 edx
  002e1	e8 00 00 00 00	 call	 ?_Right@?$_Tree@V?$_Tmap_traits@KPAVIData@@U?$less@K@std@@V?$allocator@U?$pair@$$CBKPAVIData@@@std@@@3@$0A@@std@@@std@@KAAAPAU_Node@?$_Tree_nod@V?$_Tmap_traits@KPAVIData@@U?$less@K@std@@V?$allocator@U?$pair@$$CBKPAVIData@@@std@@@3@$0A@@std@@@2@PAU342@@Z ; std::_Tree<std::_Tmap_traits<unsigned long,IData *,std::less<unsigned long>,std::allocator<std::pair<unsigned long const ,IData *> >,0> >::_Right
  002e6	83 c4 04	 add	 esp, 4
  002e9	8b f0		 mov	 esi, eax
  002eb	8b 45 e0	 mov	 eax, DWORD PTR __Pnode$[ebp]
  002ee	50		 push	 eax
  002ef	e8 00 00 00 00	 call	 ?_Right@?$_Tree@V?$_Tmap_traits@KPAVIData@@U?$less@K@std@@V?$allocator@U?$pair@$$CBKPAVIData@@@std@@@3@$0A@@std@@@std@@KAAAPAU_Node@?$_Tree_nod@V?$_Tmap_traits@KPAVIData@@U?$less@K@std@@V?$allocator@U?$pair@$$CBKPAVIData@@@std@@@3@$0A@@std@@@2@PAU342@@Z ; std::_Tree<std::_Tmap_traits<unsigned long,IData *,std::less<unsigned long>,std::allocator<std::pair<unsigned long const ,IData *> >,0> >::_Right
  002f4	83 c4 04	 add	 esp, 4
  002f7	8b 0e		 mov	 ecx, DWORD PTR [esi]
  002f9	89 08		 mov	 DWORD PTR [eax], ecx

; 647  : 				_Parent(_Right(_Erasednode)) = _Pnode;	// link right up

  002fb	8b 55 ec	 mov	 edx, DWORD PTR __Erasednode$[ebp]
  002fe	52		 push	 edx
  002ff	e8 00 00 00 00	 call	 ?_Right@?$_Tree@V?$_Tmap_traits@KPAVIData@@U?$less@K@std@@V?$allocator@U?$pair@$$CBKPAVIData@@@std@@@3@$0A@@std@@@std@@KAAAPAU_Node@?$_Tree_nod@V?$_Tmap_traits@KPAVIData@@U?$less@K@std@@V?$allocator@U?$pair@$$CBKPAVIData@@@std@@@3@$0A@@std@@@2@PAU342@@Z ; std::_Tree<std::_Tmap_traits<unsigned long,IData *,std::less<unsigned long>,std::allocator<std::pair<unsigned long const ,IData *> >,0> >::_Right
  00304	83 c4 04	 add	 esp, 4
  00307	8b 00		 mov	 eax, DWORD PTR [eax]
  00309	50		 push	 eax
  0030a	e8 00 00 00 00	 call	 ?_Parent@?$_Tree@V?$_Tmap_traits@KPAVIData@@U?$less@K@std@@V?$allocator@U?$pair@$$CBKPAVIData@@@std@@@3@$0A@@std@@@std@@KAAAPAU_Node@?$_Tree_nod@V?$_Tmap_traits@KPAVIData@@U?$less@K@std@@V?$allocator@U?$pair@$$CBKPAVIData@@@std@@@3@$0A@@std@@@2@PAU342@@Z ; std::_Tree<std::_Tmap_traits<unsigned long,IData *,std::less<unsigned long>,std::allocator<std::pair<unsigned long const ,IData *> >,0> >::_Parent
  0030f	83 c4 04	 add	 esp, 4
  00312	8b 4d e0	 mov	 ecx, DWORD PTR __Pnode$[ebp]
  00315	89 08		 mov	 DWORD PTR [eax], ecx
$L189360:

; 648  : 				}
; 649  : 
; 650  : 			if (_Root() == _Erasednode)

  00317	8b 4d f0	 mov	 ecx, DWORD PTR _this$[ebp]
  0031a	e8 00 00 00 00	 call	 ?_Root@?$_Tree@V?$_Tmap_traits@KPAVIData@@U?$less@K@std@@V?$allocator@U?$pair@$$CBKPAVIData@@@std@@@3@$0A@@std@@@std@@IAEAAPAU_Node@?$_Tree_nod@V?$_Tmap_traits@KPAVIData@@U?$less@K@std@@V?$allocator@U?$pair@$$CBKPAVIData@@@std@@@3@$0A@@std@@@2@XZ ; std::_Tree<std::_Tmap_traits<unsigned long,IData *,std::less<unsigned long>,std::allocator<std::pair<unsigned long const ,IData *> >,0> >::_Root
  0031f	8b 10		 mov	 edx, DWORD PTR [eax]
  00321	3b 55 ec	 cmp	 edx, DWORD PTR __Erasednode$[ebp]
  00324	75 0f		 jne	 SHORT $L189362

; 651  : 				_Root() = _Pnode;	// link down from root

  00326	8b 4d f0	 mov	 ecx, DWORD PTR _this$[ebp]
  00329	e8 00 00 00 00	 call	 ?_Root@?$_Tree@V?$_Tmap_traits@KPAVIData@@U?$less@K@std@@V?$allocator@U?$pair@$$CBKPAVIData@@@std@@@3@$0A@@std@@@std@@IAEAAPAU_Node@?$_Tree_nod@V?$_Tmap_traits@KPAVIData@@U?$less@K@std@@V?$allocator@U?$pair@$$CBKPAVIData@@@std@@@3@$0A@@std@@@2@XZ ; std::_Tree<std::_Tmap_traits<unsigned long,IData *,std::less<unsigned long>,std::allocator<std::pair<unsigned long const ,IData *> >,0> >::_Root
  0032e	8b 4d e0	 mov	 ecx, DWORD PTR __Pnode$[ebp]
  00331	89 08		 mov	 DWORD PTR [eax], ecx

; 652  : 			else if (_Left(_Parent(_Erasednode)) == _Erasednode)

  00333	eb 58		 jmp	 SHORT $L189363
$L189362:
  00335	8b 55 ec	 mov	 edx, DWORD PTR __Erasednode$[ebp]
  00338	52		 push	 edx
  00339	e8 00 00 00 00	 call	 ?_Parent@?$_Tree@V?$_Tmap_traits@KPAVIData@@U?$less@K@std@@V?$allocator@U?$pair@$$CBKPAVIData@@@std@@@3@$0A@@std@@@std@@KAAAPAU_Node@?$_Tree_nod@V?$_Tmap_traits@KPAVIData@@U?$less@K@std@@V?$allocator@U?$pair@$$CBKPAVIData@@@std@@@3@$0A@@std@@@2@PAU342@@Z ; std::_Tree<std::_Tmap_traits<unsigned long,IData *,std::less<unsigned long>,std::allocator<std::pair<unsigned long const ,IData *> >,0> >::_Parent
  0033e	83 c4 04	 add	 esp, 4
  00341	8b 00		 mov	 eax, DWORD PTR [eax]
  00343	50		 push	 eax
  00344	e8 00 00 00 00	 call	 ?_Left@?$_Tree@V?$_Tmap_traits@KPAVIData@@U?$less@K@std@@V?$allocator@U?$pair@$$CBKPAVIData@@@std@@@3@$0A@@std@@@std@@KAAAPAU_Node@?$_Tree_nod@V?$_Tmap_traits@KPAVIData@@U?$less@K@std@@V?$allocator@U?$pair@$$CBKPAVIData@@@std@@@3@$0A@@std@@@2@PAU342@@Z ; std::_Tree<std::_Tmap_traits<unsigned long,IData *,std::less<unsigned long>,std::allocator<std::pair<unsigned long const ,IData *> >,0> >::_Left
  00349	83 c4 04	 add	 esp, 4
  0034c	8b 08		 mov	 ecx, DWORD PTR [eax]
  0034e	3b 4d ec	 cmp	 ecx, DWORD PTR __Erasednode$[ebp]
  00351	75 1e		 jne	 SHORT $L189364

; 653  : 				_Left(_Parent(_Erasednode)) = _Pnode;	// link down to left

  00353	8b 55 ec	 mov	 edx, DWORD PTR __Erasednode$[ebp]
  00356	52		 push	 edx
  00357	e8 00 00 00 00	 call	 ?_Parent@?$_Tree@V?$_Tmap_traits@KPAVIData@@U?$less@K@std@@V?$allocator@U?$pair@$$CBKPAVIData@@@std@@@3@$0A@@std@@@std@@KAAAPAU_Node@?$_Tree_nod@V?$_Tmap_traits@KPAVIData@@U?$less@K@std@@V?$allocator@U?$pair@$$CBKPAVIData@@@std@@@3@$0A@@std@@@2@PAU342@@Z ; std::_Tree<std::_Tmap_traits<unsigned long,IData *,std::less<unsigned long>,std::allocator<std::pair<unsigned long const ,IData *> >,0> >::_Parent
  0035c	83 c4 04	 add	 esp, 4
  0035f	8b 00		 mov	 eax, DWORD PTR [eax]
  00361	50		 push	 eax
  00362	e8 00 00 00 00	 call	 ?_Left@?$_Tree@V?$_Tmap_traits@KPAVIData@@U?$less@K@std@@V?$allocator@U?$pair@$$CBKPAVIData@@@std@@@3@$0A@@std@@@std@@KAAAPAU_Node@?$_Tree_nod@V?$_Tmap_traits@KPAVIData@@U?$less@K@std@@V?$allocator@U?$pair@$$CBKPAVIData@@@std@@@3@$0A@@std@@@2@PAU342@@Z ; std::_Tree<std::_Tmap_traits<unsigned long,IData *,std::less<unsigned long>,std::allocator<std::pair<unsigned long const ,IData *> >,0> >::_Left
  00367	83 c4 04	 add	 esp, 4
  0036a	8b 4d e0	 mov	 ecx, DWORD PTR __Pnode$[ebp]
  0036d	89 08		 mov	 DWORD PTR [eax], ecx

; 654  : 			else

  0036f	eb 1c		 jmp	 SHORT $L189363
$L189364:

; 655  : 				_Right(_Parent(_Erasednode)) = _Pnode;	// link down to right

  00371	8b 55 ec	 mov	 edx, DWORD PTR __Erasednode$[ebp]
  00374	52		 push	 edx
  00375	e8 00 00 00 00	 call	 ?_Parent@?$_Tree@V?$_Tmap_traits@KPAVIData@@U?$less@K@std@@V?$allocator@U?$pair@$$CBKPAVIData@@@std@@@3@$0A@@std@@@std@@KAAAPAU_Node@?$_Tree_nod@V?$_Tmap_traits@KPAVIData@@U?$less@K@std@@V?$allocator@U?$pair@$$CBKPAVIData@@@std@@@3@$0A@@std@@@2@PAU342@@Z ; std::_Tree<std::_Tmap_traits<unsigned long,IData *,std::less<unsigned long>,std::allocator<std::pair<unsigned long const ,IData *> >,0> >::_Parent
  0037a	83 c4 04	 add	 esp, 4
  0037d	8b 00		 mov	 eax, DWORD PTR [eax]
  0037f	50		 push	 eax
  00380	e8 00 00 00 00	 call	 ?_Right@?$_Tree@V?$_Tmap_traits@KPAVIData@@U?$less@K@std@@V?$allocator@U?$pair@$$CBKPAVIData@@@std@@@3@$0A@@std@@@std@@KAAAPAU_Node@?$_Tree_nod@V?$_Tmap_traits@KPAVIData@@U?$less@K@std@@V?$allocator@U?$pair@$$CBKPAVIData@@@std@@@3@$0A@@std@@@2@PAU342@@Z ; std::_Tree<std::_Tmap_traits<unsigned long,IData *,std::less<unsigned long>,std::allocator<std::pair<unsigned long const ,IData *> >,0> >::_Right
  00385	83 c4 04	 add	 esp, 4
  00388	8b 4d e0	 mov	 ecx, DWORD PTR __Pnode$[ebp]
  0038b	89 08		 mov	 DWORD PTR [eax], ecx
$L189363:

; 656  : 
; 657  : 			_Parent(_Pnode) = _Parent(_Erasednode);	// link successor up

  0038d	8b 55 ec	 mov	 edx, DWORD PTR __Erasednode$[ebp]
  00390	52		 push	 edx
  00391	e8 00 00 00 00	 call	 ?_Parent@?$_Tree@V?$_Tmap_traits@KPAVIData@@U?$less@K@std@@V?$allocator@U?$pair@$$CBKPAVIData@@@std@@@3@$0A@@std@@@std@@KAAAPAU_Node@?$_Tree_nod@V?$_Tmap_traits@KPAVIData@@U?$less@K@std@@V?$allocator@U?$pair@$$CBKPAVIData@@@std@@@3@$0A@@std@@@2@PAU342@@Z ; std::_Tree<std::_Tmap_traits<unsigned long,IData *,std::less<unsigned long>,std::allocator<std::pair<unsigned long const ,IData *> >,0> >::_Parent
  00396	83 c4 04	 add	 esp, 4
  00399	8b f0		 mov	 esi, eax
  0039b	8b 45 e0	 mov	 eax, DWORD PTR __Pnode$[ebp]
  0039e	50		 push	 eax
  0039f	e8 00 00 00 00	 call	 ?_Parent@?$_Tree@V?$_Tmap_traits@KPAVIData@@U?$less@K@std@@V?$allocator@U?$pair@$$CBKPAVIData@@@std@@@3@$0A@@std@@@std@@KAAAPAU_Node@?$_Tree_nod@V?$_Tmap_traits@KPAVIData@@U?$less@K@std@@V?$allocator@U?$pair@$$CBKPAVIData@@@std@@@3@$0A@@std@@@2@PAU342@@Z ; std::_Tree<std::_Tmap_traits<unsigned long,IData *,std::less<unsigned long>,std::allocator<std::pair<unsigned long const ,IData *> >,0> >::_Parent
  003a4	83 c4 04	 add	 esp, 4
  003a7	8b 0e		 mov	 ecx, DWORD PTR [esi]
  003a9	89 08		 mov	 DWORD PTR [eax], ecx

; 658  : 			std::swap(_Color(_Pnode), _Color(_Erasednode));	// recolor it

  003ab	8b 55 ec	 mov	 edx, DWORD PTR __Erasednode$[ebp]
  003ae	52		 push	 edx
  003af	e8 00 00 00 00	 call	 ?_Color@?$_Tree@V?$_Tmap_traits@KPAVIData@@U?$less@K@std@@V?$allocator@U?$pair@$$CBKPAVIData@@@std@@@3@$0A@@std@@@std@@KAAADPAU_Node@?$_Tree_nod@V?$_Tmap_traits@KPAVIData@@U?$less@K@std@@V?$allocator@U?$pair@$$CBKPAVIData@@@std@@@3@$0A@@std@@@2@@Z ; std::_Tree<std::_Tmap_traits<unsigned long,IData *,std::less<unsigned long>,std::allocator<std::pair<unsigned long const ,IData *> >,0> >::_Color
  003b4	83 c4 04	 add	 esp, 4
  003b7	50		 push	 eax
  003b8	8b 45 e0	 mov	 eax, DWORD PTR __Pnode$[ebp]
  003bb	50		 push	 eax
  003bc	e8 00 00 00 00	 call	 ?_Color@?$_Tree@V?$_Tmap_traits@KPAVIData@@U?$less@K@std@@V?$allocator@U?$pair@$$CBKPAVIData@@@std@@@3@$0A@@std@@@std@@KAAADPAU_Node@?$_Tree_nod@V?$_Tmap_traits@KPAVIData@@U?$less@K@std@@V?$allocator@U?$pair@$$CBKPAVIData@@@std@@@3@$0A@@std@@@2@@Z ; std::_Tree<std::_Tmap_traits<unsigned long,IData *,std::less<unsigned long>,std::allocator<std::pair<unsigned long const ,IData *> >,0> >::_Color
  003c1	83 c4 04	 add	 esp, 4
  003c4	50		 push	 eax
  003c5	e8 00 00 00 00	 call	 ??$swap@D@std@@YAXAAD0@Z ; std::swap<char>
  003ca	83 c4 08	 add	 esp, 8
$L189358:

; 659  : 			}
; 660  : 
; 661  : 		if (_Color(_Erasednode) == _Black)

  003cd	8b 4d ec	 mov	 ecx, DWORD PTR __Erasednode$[ebp]
  003d0	51		 push	 ecx
  003d1	e8 00 00 00 00	 call	 ?_Color@?$_Tree@V?$_Tmap_traits@KPAVIData@@U?$less@K@std@@V?$allocator@U?$pair@$$CBKPAVIData@@@std@@@3@$0A@@std@@@std@@KAAADPAU_Node@?$_Tree_nod@V?$_Tmap_traits@KPAVIData@@U?$less@K@std@@V?$allocator@U?$pair@$$CBKPAVIData@@@std@@@3@$0A@@std@@@2@@Z ; std::_Tree<std::_Tmap_traits<unsigned long,IData *,std::less<unsigned long>,std::allocator<std::pair<unsigned long const ,IData *> >,0> >::_Color
  003d6	83 c4 04	 add	 esp, 4
  003d9	0f be 10	 movsx	 edx, BYTE PTR [eax]
  003dc	83 fa 01	 cmp	 edx, 1
  003df	0f 85 8f 03 00
	00		 jne	 $L189366

; 662  : 			{	// erasing black link, must recolor/rebalance tree
; 663  : 			for (; _Fixnode != _Root() && _Color(_Fixnode) == _Black;
; 664  : 				_Fixnodeparent = _Parent(_Fixnode))

  003e5	eb 11		 jmp	 SHORT $L189367
$L189368:
  003e7	8b 45 e8	 mov	 eax, DWORD PTR __Fixnode$[ebp]
  003ea	50		 push	 eax
  003eb	e8 00 00 00 00	 call	 ?_Parent@?$_Tree@V?$_Tmap_traits@KPAVIData@@U?$less@K@std@@V?$allocator@U?$pair@$$CBKPAVIData@@@std@@@3@$0A@@std@@@std@@KAAAPAU_Node@?$_Tree_nod@V?$_Tmap_traits@KPAVIData@@U?$less@K@std@@V?$allocator@U?$pair@$$CBKPAVIData@@@std@@@3@$0A@@std@@@2@PAU342@@Z ; std::_Tree<std::_Tmap_traits<unsigned long,IData *,std::less<unsigned long>,std::allocator<std::pair<unsigned long const ,IData *> >,0> >::_Parent
  003f0	83 c4 04	 add	 esp, 4
  003f3	8b 08		 mov	 ecx, DWORD PTR [eax]
  003f5	89 4d e4	 mov	 DWORD PTR __Fixnodeparent$[ebp], ecx
$L189367:
  003f8	8b 4d f0	 mov	 ecx, DWORD PTR _this$[ebp]
  003fb	e8 00 00 00 00	 call	 ?_Root@?$_Tree@V?$_Tmap_traits@KPAVIData@@U?$less@K@std@@V?$allocator@U?$pair@$$CBKPAVIData@@@std@@@3@$0A@@std@@@std@@IAEAAPAU_Node@?$_Tree_nod@V?$_Tmap_traits@KPAVIData@@U?$less@K@std@@V?$allocator@U?$pair@$$CBKPAVIData@@@std@@@3@$0A@@std@@@2@XZ ; std::_Tree<std::_Tmap_traits<unsigned long,IData *,std::less<unsigned long>,std::allocator<std::pair<unsigned long const ,IData *> >,0> >::_Root
  00400	8b 55 e8	 mov	 edx, DWORD PTR __Fixnode$[ebp]
  00403	3b 10		 cmp	 edx, DWORD PTR [eax]
  00405	0f 84 5a 03 00
	00		 je	 $L189369
  0040b	8b 45 e8	 mov	 eax, DWORD PTR __Fixnode$[ebp]
  0040e	50		 push	 eax
  0040f	e8 00 00 00 00	 call	 ?_Color@?$_Tree@V?$_Tmap_traits@KPAVIData@@U?$less@K@std@@V?$allocator@U?$pair@$$CBKPAVIData@@@std@@@3@$0A@@std@@@std@@KAAADPAU_Node@?$_Tree_nod@V?$_Tmap_traits@KPAVIData@@U?$less@K@std@@V?$allocator@U?$pair@$$CBKPAVIData@@@std@@@3@$0A@@std@@@2@@Z ; std::_Tree<std::_Tmap_traits<unsigned long,IData *,std::less<unsigned long>,std::allocator<std::pair<unsigned long const ,IData *> >,0> >::_Color
  00414	83 c4 04	 add	 esp, 4
  00417	0f be 08	 movsx	 ecx, BYTE PTR [eax]
  0041a	83 f9 01	 cmp	 ecx, 1
  0041d	0f 85 42 03 00
	00		 jne	 $L189369

; 665  : 				if (_Fixnode == _Left(_Fixnodeparent))

  00423	8b 55 e4	 mov	 edx, DWORD PTR __Fixnodeparent$[ebp]
  00426	52		 push	 edx
  00427	e8 00 00 00 00	 call	 ?_Left@?$_Tree@V?$_Tmap_traits@KPAVIData@@U?$less@K@std@@V?$allocator@U?$pair@$$CBKPAVIData@@@std@@@3@$0A@@std@@@std@@KAAAPAU_Node@?$_Tree_nod@V?$_Tmap_traits@KPAVIData@@U?$less@K@std@@V?$allocator@U?$pair@$$CBKPAVIData@@@std@@@3@$0A@@std@@@2@PAU342@@Z ; std::_Tree<std::_Tmap_traits<unsigned long,IData *,std::less<unsigned long>,std::allocator<std::pair<unsigned long const ,IData *> >,0> >::_Left
  0042c	83 c4 04	 add	 esp, 4
  0042f	8b 4d e8	 mov	 ecx, DWORD PTR __Fixnode$[ebp]
  00432	3b 08		 cmp	 ecx, DWORD PTR [eax]
  00434	0f 85 97 01 00
	00		 jne	 $L189370

; 666  : 					{	// fixup left subtree
; 667  : 					_Pnode = _Right(_Fixnodeparent);

  0043a	8b 55 e4	 mov	 edx, DWORD PTR __Fixnodeparent$[ebp]
  0043d	52		 push	 edx
  0043e	e8 00 00 00 00	 call	 ?_Right@?$_Tree@V?$_Tmap_traits@KPAVIData@@U?$less@K@std@@V?$allocator@U?$pair@$$CBKPAVIData@@@std@@@3@$0A@@std@@@std@@KAAAPAU_Node@?$_Tree_nod@V?$_Tmap_traits@KPAVIData@@U?$less@K@std@@V?$allocator@U?$pair@$$CBKPAVIData@@@std@@@3@$0A@@std@@@2@PAU342@@Z ; std::_Tree<std::_Tmap_traits<unsigned long,IData *,std::less<unsigned long>,std::allocator<std::pair<unsigned long const ,IData *> >,0> >::_Right
  00443	83 c4 04	 add	 esp, 4
  00446	8b 00		 mov	 eax, DWORD PTR [eax]
  00448	89 45 e0	 mov	 DWORD PTR __Pnode$[ebp], eax

; 668  : 					if (_Color(_Pnode) == _Red)

  0044b	8b 4d e0	 mov	 ecx, DWORD PTR __Pnode$[ebp]
  0044e	51		 push	 ecx
  0044f	e8 00 00 00 00	 call	 ?_Color@?$_Tree@V?$_Tmap_traits@KPAVIData@@U?$less@K@std@@V?$allocator@U?$pair@$$CBKPAVIData@@@std@@@3@$0A@@std@@@std@@KAAADPAU_Node@?$_Tree_nod@V?$_Tmap_traits@KPAVIData@@U?$less@K@std@@V?$allocator@U?$pair@$$CBKPAVIData@@@std@@@3@$0A@@std@@@2@@Z ; std::_Tree<std::_Tmap_traits<unsigned long,IData *,std::less<unsigned long>,std::allocator<std::pair<unsigned long const ,IData *> >,0> >::_Color
  00454	83 c4 04	 add	 esp, 4
  00457	0f be 10	 movsx	 edx, BYTE PTR [eax]
  0045a	85 d2		 test	 edx, edx
  0045c	75 3b		 jne	 SHORT $L189371

; 669  : 						{	// rotate red up from right subtree
; 670  : 						_Color(_Pnode) = _Black;

  0045e	8b 45 e0	 mov	 eax, DWORD PTR __Pnode$[ebp]
  00461	50		 push	 eax
  00462	e8 00 00 00 00	 call	 ?_Color@?$_Tree@V?$_Tmap_traits@KPAVIData@@U?$less@K@std@@V?$allocator@U?$pair@$$CBKPAVIData@@@std@@@3@$0A@@std@@@std@@KAAADPAU_Node@?$_Tree_nod@V?$_Tmap_traits@KPAVIData@@U?$less@K@std@@V?$allocator@U?$pair@$$CBKPAVIData@@@std@@@3@$0A@@std@@@2@@Z ; std::_Tree<std::_Tmap_traits<unsigned long,IData *,std::less<unsigned long>,std::allocator<std::pair<unsigned long const ,IData *> >,0> >::_Color
  00467	83 c4 04	 add	 esp, 4
  0046a	c6 00 01	 mov	 BYTE PTR [eax], 1

; 671  : 						_Color(_Fixnodeparent) = _Red;

  0046d	8b 4d e4	 mov	 ecx, DWORD PTR __Fixnodeparent$[ebp]
  00470	51		 push	 ecx
  00471	e8 00 00 00 00	 call	 ?_Color@?$_Tree@V?$_Tmap_traits@KPAVIData@@U?$less@K@std@@V?$allocator@U?$pair@$$CBKPAVIData@@@std@@@3@$0A@@std@@@std@@KAAADPAU_Node@?$_Tree_nod@V?$_Tmap_traits@KPAVIData@@U?$less@K@std@@V?$allocator@U?$pair@$$CBKPAVIData@@@std@@@3@$0A@@std@@@2@@Z ; std::_Tree<std::_Tmap_traits<unsigned long,IData *,std::less<unsigned long>,std::allocator<std::pair<unsigned long const ,IData *> >,0> >::_Color
  00476	83 c4 04	 add	 esp, 4
  00479	c6 00 00	 mov	 BYTE PTR [eax], 0

; 672  : 						_Lrotate(_Fixnodeparent);

  0047c	8b 55 e4	 mov	 edx, DWORD PTR __Fixnodeparent$[ebp]
  0047f	52		 push	 edx
  00480	8b 4d f0	 mov	 ecx, DWORD PTR _this$[ebp]
  00483	e8 00 00 00 00	 call	 ?_Lrotate@?$_Tree@V?$_Tmap_traits@KPAVIData@@U?$less@K@std@@V?$allocator@U?$pair@$$CBKPAVIData@@@std@@@3@$0A@@std@@@std@@IAEXPAU_Node@?$_Tree_nod@V?$_Tmap_traits@KPAVIData@@U?$less@K@std@@V?$allocator@U?$pair@$$CBKPAVIData@@@std@@@3@$0A@@std@@@2@@Z ; std::_Tree<std::_Tmap_traits<unsigned long,IData *,std::less<unsigned long>,std::allocator<std::pair<unsigned long const ,IData *> >,0> >::_Lrotate

; 673  : 						_Pnode = _Right(_Fixnodeparent);

  00488	8b 45 e4	 mov	 eax, DWORD PTR __Fixnodeparent$[ebp]
  0048b	50		 push	 eax
  0048c	e8 00 00 00 00	 call	 ?_Right@?$_Tree@V?$_Tmap_traits@KPAVIData@@U?$less@K@std@@V?$allocator@U?$pair@$$CBKPAVIData@@@std@@@3@$0A@@std@@@std@@KAAAPAU_Node@?$_Tree_nod@V?$_Tmap_traits@KPAVIData@@U?$less@K@std@@V?$allocator@U?$pair@$$CBKPAVIData@@@std@@@3@$0A@@std@@@2@PAU342@@Z ; std::_Tree<std::_Tmap_traits<unsigned long,IData *,std::less<unsigned long>,std::allocator<std::pair<unsigned long const ,IData *> >,0> >::_Right
  00491	83 c4 04	 add	 esp, 4
  00494	8b 08		 mov	 ecx, DWORD PTR [eax]
  00496	89 4d e0	 mov	 DWORD PTR __Pnode$[ebp], ecx
$L189371:

; 674  : 						}
; 675  : 
; 676  : 					if (_Isnil(_Pnode))

  00499	8b 55 e0	 mov	 edx, DWORD PTR __Pnode$[ebp]
  0049c	52		 push	 edx
  0049d	e8 00 00 00 00	 call	 ?_Isnil@?$_Tree@V?$_Tmap_traits@KPAVIData@@U?$less@K@std@@V?$allocator@U?$pair@$$CBKPAVIData@@@std@@@3@$0A@@std@@@std@@KAAADPAU_Node@?$_Tree_nod@V?$_Tmap_traits@KPAVIData@@U?$less@K@std@@V?$allocator@U?$pair@$$CBKPAVIData@@@std@@@3@$0A@@std@@@2@@Z ; std::_Tree<std::_Tmap_traits<unsigned long,IData *,std::less<unsigned long>,std::allocator<std::pair<unsigned long const ,IData *> >,0> >::_Isnil
  004a2	83 c4 04	 add	 esp, 4
  004a5	0f be 00	 movsx	 eax, BYTE PTR [eax]
  004a8	85 c0		 test	 eax, eax
  004aa	74 0b		 je	 SHORT $L189372

; 677  : 						_Fixnode = _Fixnodeparent;	// shouldn't happen

  004ac	8b 4d e4	 mov	 ecx, DWORD PTR __Fixnodeparent$[ebp]
  004af	89 4d e8	 mov	 DWORD PTR __Fixnode$[ebp], ecx

; 678  : 					else if (_Color(_Left(_Pnode)) == _Black

  004b2	e9 15 01 00 00	 jmp	 $L189373
$L189372:

; 679  : 						&& _Color(_Right(_Pnode)) == _Black)

  004b7	8b 55 e0	 mov	 edx, DWORD PTR __Pnode$[ebp]
  004ba	52		 push	 edx
  004bb	e8 00 00 00 00	 call	 ?_Left@?$_Tree@V?$_Tmap_traits@KPAVIData@@U?$less@K@std@@V?$allocator@U?$pair@$$CBKPAVIData@@@std@@@3@$0A@@std@@@std@@KAAAPAU_Node@?$_Tree_nod@V?$_Tmap_traits@KPAVIData@@U?$less@K@std@@V?$allocator@U?$pair@$$CBKPAVIData@@@std@@@3@$0A@@std@@@2@PAU342@@Z ; std::_Tree<std::_Tmap_traits<unsigned long,IData *,std::less<unsigned long>,std::allocator<std::pair<unsigned long const ,IData *> >,0> >::_Left
  004c0	83 c4 04	 add	 esp, 4
  004c3	8b 00		 mov	 eax, DWORD PTR [eax]
  004c5	50		 push	 eax
  004c6	e8 00 00 00 00	 call	 ?_Color@?$_Tree@V?$_Tmap_traits@KPAVIData@@U?$less@K@std@@V?$allocator@U?$pair@$$CBKPAVIData@@@std@@@3@$0A@@std@@@std@@KAAADPAU_Node@?$_Tree_nod@V?$_Tmap_traits@KPAVIData@@U?$less@K@std@@V?$allocator@U?$pair@$$CBKPAVIData@@@std@@@3@$0A@@std@@@2@@Z ; std::_Tree<std::_Tmap_traits<unsigned long,IData *,std::less<unsigned long>,std::allocator<std::pair<unsigned long const ,IData *> >,0> >::_Color
  004cb	83 c4 04	 add	 esp, 4
  004ce	0f be 08	 movsx	 ecx, BYTE PTR [eax]
  004d1	83 f9 01	 cmp	 ecx, 1
  004d4	75 39		 jne	 SHORT $L189374
  004d6	8b 55 e0	 mov	 edx, DWORD PTR __Pnode$[ebp]
  004d9	52		 push	 edx
  004da	e8 00 00 00 00	 call	 ?_Right@?$_Tree@V?$_Tmap_traits@KPAVIData@@U?$less@K@std@@V?$allocator@U?$pair@$$CBKPAVIData@@@std@@@3@$0A@@std@@@std@@KAAAPAU_Node@?$_Tree_nod@V?$_Tmap_traits@KPAVIData@@U?$less@K@std@@V?$allocator@U?$pair@$$CBKPAVIData@@@std@@@3@$0A@@std@@@2@PAU342@@Z ; std::_Tree<std::_Tmap_traits<unsigned long,IData *,std::less<unsigned long>,std::allocator<std::pair<unsigned long const ,IData *> >,0> >::_Right
  004df	83 c4 04	 add	 esp, 4
  004e2	8b 00		 mov	 eax, DWORD PTR [eax]
  004e4	50		 push	 eax
  004e5	e8 00 00 00 00	 call	 ?_Color@?$_Tree@V?$_Tmap_traits@KPAVIData@@U?$less@K@std@@V?$allocator@U?$pair@$$CBKPAVIData@@@std@@@3@$0A@@std@@@std@@KAAADPAU_Node@?$_Tree_nod@V?$_Tmap_traits@KPAVIData@@U?$less@K@std@@V?$allocator@U?$pair@$$CBKPAVIData@@@std@@@3@$0A@@std@@@2@@Z ; std::_Tree<std::_Tmap_traits<unsigned long,IData *,std::less<unsigned long>,std::allocator<std::pair<unsigned long const ,IData *> >,0> >::_Color
  004ea	83 c4 04	 add	 esp, 4
  004ed	0f be 08	 movsx	 ecx, BYTE PTR [eax]
  004f0	83 f9 01	 cmp	 ecx, 1
  004f3	75 1a		 jne	 SHORT $L189374

; 680  : 						{	// redden right subtree with black children
; 681  : 						_Color(_Pnode) = _Red;

  004f5	8b 55 e0	 mov	 edx, DWORD PTR __Pnode$[ebp]
  004f8	52		 push	 edx
  004f9	e8 00 00 00 00	 call	 ?_Color@?$_Tree@V?$_Tmap_traits@KPAVIData@@U?$less@K@std@@V?$allocator@U?$pair@$$CBKPAVIData@@@std@@@3@$0A@@std@@@std@@KAAADPAU_Node@?$_Tree_nod@V?$_Tmap_traits@KPAVIData@@U?$less@K@std@@V?$allocator@U?$pair@$$CBKPAVIData@@@std@@@3@$0A@@std@@@2@@Z ; std::_Tree<std::_Tmap_traits<unsigned long,IData *,std::less<unsigned long>,std::allocator<std::pair<unsigned long const ,IData *> >,0> >::_Color
  004fe	83 c4 04	 add	 esp, 4
  00501	c6 00 00	 mov	 BYTE PTR [eax], 0

; 682  : 						_Fixnode = _Fixnodeparent;

  00504	8b 45 e4	 mov	 eax, DWORD PTR __Fixnodeparent$[ebp]
  00507	89 45 e8	 mov	 DWORD PTR __Fixnode$[ebp], eax

; 683  : 						}
; 684  : 					else

  0050a	e9 bd 00 00 00	 jmp	 $L189373
$L189374:

; 685  : 						{	// must rearrange right subtree
; 686  : 						if (_Color(_Right(_Pnode)) == _Black)

  0050f	8b 4d e0	 mov	 ecx, DWORD PTR __Pnode$[ebp]
  00512	51		 push	 ecx
  00513	e8 00 00 00 00	 call	 ?_Right@?$_Tree@V?$_Tmap_traits@KPAVIData@@U?$less@K@std@@V?$allocator@U?$pair@$$CBKPAVIData@@@std@@@3@$0A@@std@@@std@@KAAAPAU_Node@?$_Tree_nod@V?$_Tmap_traits@KPAVIData@@U?$less@K@std@@V?$allocator@U?$pair@$$CBKPAVIData@@@std@@@3@$0A@@std@@@2@PAU342@@Z ; std::_Tree<std::_Tmap_traits<unsigned long,IData *,std::less<unsigned long>,std::allocator<std::pair<unsigned long const ,IData *> >,0> >::_Right
  00518	83 c4 04	 add	 esp, 4
  0051b	8b 10		 mov	 edx, DWORD PTR [eax]
  0051d	52		 push	 edx
  0051e	e8 00 00 00 00	 call	 ?_Color@?$_Tree@V?$_Tmap_traits@KPAVIData@@U?$less@K@std@@V?$allocator@U?$pair@$$CBKPAVIData@@@std@@@3@$0A@@std@@@std@@KAAADPAU_Node@?$_Tree_nod@V?$_Tmap_traits@KPAVIData@@U?$less@K@std@@V?$allocator@U?$pair@$$CBKPAVIData@@@std@@@3@$0A@@std@@@2@@Z ; std::_Tree<std::_Tmap_traits<unsigned long,IData *,std::less<unsigned long>,std::allocator<std::pair<unsigned long const ,IData *> >,0> >::_Color
  00523	83 c4 04	 add	 esp, 4
  00526	0f be 00	 movsx	 eax, BYTE PTR [eax]
  00529	83 f8 01	 cmp	 eax, 1
  0052c	75 46		 jne	 SHORT $L189376

; 687  : 							{	// rotate red up from left sub-subtree
; 688  : 							_Color(_Left(_Pnode)) = _Black;

  0052e	8b 4d e0	 mov	 ecx, DWORD PTR __Pnode$[ebp]
  00531	51		 push	 ecx
  00532	e8 00 00 00 00	 call	 ?_Left@?$_Tree@V?$_Tmap_traits@KPAVIData@@U?$less@K@std@@V?$allocator@U?$pair@$$CBKPAVIData@@@std@@@3@$0A@@std@@@std@@KAAAPAU_Node@?$_Tree_nod@V?$_Tmap_traits@KPAVIData@@U?$less@K@std@@V?$allocator@U?$pair@$$CBKPAVIData@@@std@@@3@$0A@@std@@@2@PAU342@@Z ; std::_Tree<std::_Tmap_traits<unsigned long,IData *,std::less<unsigned long>,std::allocator<std::pair<unsigned long const ,IData *> >,0> >::_Left
  00537	83 c4 04	 add	 esp, 4
  0053a	8b 10		 mov	 edx, DWORD PTR [eax]
  0053c	52		 push	 edx
  0053d	e8 00 00 00 00	 call	 ?_Color@?$_Tree@V?$_Tmap_traits@KPAVIData@@U?$less@K@std@@V?$allocator@U?$pair@$$CBKPAVIData@@@std@@@3@$0A@@std@@@std@@KAAADPAU_Node@?$_Tree_nod@V?$_Tmap_traits@KPAVIData@@U?$less@K@std@@V?$allocator@U?$pair@$$CBKPAVIData@@@std@@@3@$0A@@std@@@2@@Z ; std::_Tree<std::_Tmap_traits<unsigned long,IData *,std::less<unsigned long>,std::allocator<std::pair<unsigned long const ,IData *> >,0> >::_Color
  00542	83 c4 04	 add	 esp, 4
  00545	c6 00 01	 mov	 BYTE PTR [eax], 1

; 689  : 							_Color(_Pnode) = _Red;

  00548	8b 45 e0	 mov	 eax, DWORD PTR __Pnode$[ebp]
  0054b	50		 push	 eax
  0054c	e8 00 00 00 00	 call	 ?_Color@?$_Tree@V?$_Tmap_traits@KPAVIData@@U?$less@K@std@@V?$allocator@U?$pair@$$CBKPAVIData@@@std@@@3@$0A@@std@@@std@@KAAADPAU_Node@?$_Tree_nod@V?$_Tmap_traits@KPAVIData@@U?$less@K@std@@V?$allocator@U?$pair@$$CBKPAVIData@@@std@@@3@$0A@@std@@@2@@Z ; std::_Tree<std::_Tmap_traits<unsigned long,IData *,std::less<unsigned long>,std::allocator<std::pair<unsigned long const ,IData *> >,0> >::_Color
  00551	83 c4 04	 add	 esp, 4
  00554	c6 00 00	 mov	 BYTE PTR [eax], 0

; 690  : 							_Rrotate(_Pnode);

  00557	8b 4d e0	 mov	 ecx, DWORD PTR __Pnode$[ebp]
  0055a	51		 push	 ecx
  0055b	8b 4d f0	 mov	 ecx, DWORD PTR _this$[ebp]
  0055e	e8 00 00 00 00	 call	 ?_Rrotate@?$_Tree@V?$_Tmap_traits@KPAVIData@@U?$less@K@std@@V?$allocator@U?$pair@$$CBKPAVIData@@@std@@@3@$0A@@std@@@std@@IAEXPAU_Node@?$_Tree_nod@V?$_Tmap_traits@KPAVIData@@U?$less@K@std@@V?$allocator@U?$pair@$$CBKPAVIData@@@std@@@3@$0A@@std@@@2@@Z ; std::_Tree<std::_Tmap_traits<unsigned long,IData *,std::less<unsigned long>,std::allocator<std::pair<unsigned long const ,IData *> >,0> >::_Rrotate

; 691  : 							_Pnode = _Right(_Fixnodeparent);

  00563	8b 55 e4	 mov	 edx, DWORD PTR __Fixnodeparent$[ebp]
  00566	52		 push	 edx
  00567	e8 00 00 00 00	 call	 ?_Right@?$_Tree@V?$_Tmap_traits@KPAVIData@@U?$less@K@std@@V?$allocator@U?$pair@$$CBKPAVIData@@@std@@@3@$0A@@std@@@std@@KAAAPAU_Node@?$_Tree_nod@V?$_Tmap_traits@KPAVIData@@U?$less@K@std@@V?$allocator@U?$pair@$$CBKPAVIData@@@std@@@3@$0A@@std@@@2@PAU342@@Z ; std::_Tree<std::_Tmap_traits<unsigned long,IData *,std::less<unsigned long>,std::allocator<std::pair<unsigned long const ,IData *> >,0> >::_Right
  0056c	83 c4 04	 add	 esp, 4
  0056f	8b 00		 mov	 eax, DWORD PTR [eax]
  00571	89 45 e0	 mov	 DWORD PTR __Pnode$[ebp], eax
$L189376:

; 692  : 							}
; 693  : 
; 694  : 						_Color(_Pnode) = _Color(_Fixnodeparent);

  00574	8b 4d e4	 mov	 ecx, DWORD PTR __Fixnodeparent$[ebp]
  00577	51		 push	 ecx
  00578	e8 00 00 00 00	 call	 ?_Color@?$_Tree@V?$_Tmap_traits@KPAVIData@@U?$less@K@std@@V?$allocator@U?$pair@$$CBKPAVIData@@@std@@@3@$0A@@std@@@std@@KAAADPAU_Node@?$_Tree_nod@V?$_Tmap_traits@KPAVIData@@U?$less@K@std@@V?$allocator@U?$pair@$$CBKPAVIData@@@std@@@3@$0A@@std@@@2@@Z ; std::_Tree<std::_Tmap_traits<unsigned long,IData *,std::less<unsigned long>,std::allocator<std::pair<unsigned long const ,IData *> >,0> >::_Color
  0057d	83 c4 04	 add	 esp, 4
  00580	8b f0		 mov	 esi, eax
  00582	8b 55 e0	 mov	 edx, DWORD PTR __Pnode$[ebp]
  00585	52		 push	 edx
  00586	e8 00 00 00 00	 call	 ?_Color@?$_Tree@V?$_Tmap_traits@KPAVIData@@U?$less@K@std@@V?$allocator@U?$pair@$$CBKPAVIData@@@std@@@3@$0A@@std@@@std@@KAAADPAU_Node@?$_Tree_nod@V?$_Tmap_traits@KPAVIData@@U?$less@K@std@@V?$allocator@U?$pair@$$CBKPAVIData@@@std@@@3@$0A@@std@@@2@@Z ; std::_Tree<std::_Tmap_traits<unsigned long,IData *,std::less<unsigned long>,std::allocator<std::pair<unsigned long const ,IData *> >,0> >::_Color
  0058b	83 c4 04	 add	 esp, 4
  0058e	8a 0e		 mov	 cl, BYTE PTR [esi]
  00590	88 08		 mov	 BYTE PTR [eax], cl

; 695  : 						_Color(_Fixnodeparent) = _Black;

  00592	8b 55 e4	 mov	 edx, DWORD PTR __Fixnodeparent$[ebp]
  00595	52		 push	 edx
  00596	e8 00 00 00 00	 call	 ?_Color@?$_Tree@V?$_Tmap_traits@KPAVIData@@U?$less@K@std@@V?$allocator@U?$pair@$$CBKPAVIData@@@std@@@3@$0A@@std@@@std@@KAAADPAU_Node@?$_Tree_nod@V?$_Tmap_traits@KPAVIData@@U?$less@K@std@@V?$allocator@U?$pair@$$CBKPAVIData@@@std@@@3@$0A@@std@@@2@@Z ; std::_Tree<std::_Tmap_traits<unsigned long,IData *,std::less<unsigned long>,std::allocator<std::pair<unsigned long const ,IData *> >,0> >::_Color
  0059b	83 c4 04	 add	 esp, 4
  0059e	c6 00 01	 mov	 BYTE PTR [eax], 1

; 696  : 						_Color(_Right(_Pnode)) = _Black;

  005a1	8b 45 e0	 mov	 eax, DWORD PTR __Pnode$[ebp]
  005a4	50		 push	 eax
  005a5	e8 00 00 00 00	 call	 ?_Right@?$_Tree@V?$_Tmap_traits@KPAVIData@@U?$less@K@std@@V?$allocator@U?$pair@$$CBKPAVIData@@@std@@@3@$0A@@std@@@std@@KAAAPAU_Node@?$_Tree_nod@V?$_Tmap_traits@KPAVIData@@U?$less@K@std@@V?$allocator@U?$pair@$$CBKPAVIData@@@std@@@3@$0A@@std@@@2@PAU342@@Z ; std::_Tree<std::_Tmap_traits<unsigned long,IData *,std::less<unsigned long>,std::allocator<std::pair<unsigned long const ,IData *> >,0> >::_Right
  005aa	83 c4 04	 add	 esp, 4
  005ad	8b 08		 mov	 ecx, DWORD PTR [eax]
  005af	51		 push	 ecx
  005b0	e8 00 00 00 00	 call	 ?_Color@?$_Tree@V?$_Tmap_traits@KPAVIData@@U?$less@K@std@@V?$allocator@U?$pair@$$CBKPAVIData@@@std@@@3@$0A@@std@@@std@@KAAADPAU_Node@?$_Tree_nod@V?$_Tmap_traits@KPAVIData@@U?$less@K@std@@V?$allocator@U?$pair@$$CBKPAVIData@@@std@@@3@$0A@@std@@@2@@Z ; std::_Tree<std::_Tmap_traits<unsigned long,IData *,std::less<unsigned long>,std::allocator<std::pair<unsigned long const ,IData *> >,0> >::_Color
  005b5	83 c4 04	 add	 esp, 4
  005b8	c6 00 01	 mov	 BYTE PTR [eax], 1

; 697  : 						_Lrotate(_Fixnodeparent);

  005bb	8b 55 e4	 mov	 edx, DWORD PTR __Fixnodeparent$[ebp]
  005be	52		 push	 edx
  005bf	8b 4d f0	 mov	 ecx, DWORD PTR _this$[ebp]
  005c2	e8 00 00 00 00	 call	 ?_Lrotate@?$_Tree@V?$_Tmap_traits@KPAVIData@@U?$less@K@std@@V?$allocator@U?$pair@$$CBKPAVIData@@@std@@@3@$0A@@std@@@std@@IAEXPAU_Node@?$_Tree_nod@V?$_Tmap_traits@KPAVIData@@U?$less@K@std@@V?$allocator@U?$pair@$$CBKPAVIData@@@std@@@3@$0A@@std@@@2@@Z ; std::_Tree<std::_Tmap_traits<unsigned long,IData *,std::less<unsigned long>,std::allocator<std::pair<unsigned long const ,IData *> >,0> >::_Lrotate

; 698  : 						break;	// tree now recolored/rebalanced

  005c7	e9 99 01 00 00	 jmp	 $L189369
$L189373:

; 699  : 						}
; 700  : 					}
; 701  : 				else

  005cc	e9 8f 01 00 00	 jmp	 $L189377
$L189370:

; 702  : 					{	// fixup right subtree
; 703  : 					_Pnode = _Left(_Fixnodeparent);

  005d1	8b 45 e4	 mov	 eax, DWORD PTR __Fixnodeparent$[ebp]
  005d4	50		 push	 eax
  005d5	e8 00 00 00 00	 call	 ?_Left@?$_Tree@V?$_Tmap_traits@KPAVIData@@U?$less@K@std@@V?$allocator@U?$pair@$$CBKPAVIData@@@std@@@3@$0A@@std@@@std@@KAAAPAU_Node@?$_Tree_nod@V?$_Tmap_traits@KPAVIData@@U?$less@K@std@@V?$allocator@U?$pair@$$CBKPAVIData@@@std@@@3@$0A@@std@@@2@PAU342@@Z ; std::_Tree<std::_Tmap_traits<unsigned long,IData *,std::less<unsigned long>,std::allocator<std::pair<unsigned long const ,IData *> >,0> >::_Left
  005da	83 c4 04	 add	 esp, 4
  005dd	8b 08		 mov	 ecx, DWORD PTR [eax]
  005df	89 4d e0	 mov	 DWORD PTR __Pnode$[ebp], ecx

; 704  : 					if (_Color(_Pnode) == _Red)

  005e2	8b 55 e0	 mov	 edx, DWORD PTR __Pnode$[ebp]
  005e5	52		 push	 edx
  005e6	e8 00 00 00 00	 call	 ?_Color@?$_Tree@V?$_Tmap_traits@KPAVIData@@U?$less@K@std@@V?$allocator@U?$pair@$$CBKPAVIData@@@std@@@3@$0A@@std@@@std@@KAAADPAU_Node@?$_Tree_nod@V?$_Tmap_traits@KPAVIData@@U?$less@K@std@@V?$allocator@U?$pair@$$CBKPAVIData@@@std@@@3@$0A@@std@@@2@@Z ; std::_Tree<std::_Tmap_traits<unsigned long,IData *,std::less<unsigned long>,std::allocator<std::pair<unsigned long const ,IData *> >,0> >::_Color
  005eb	83 c4 04	 add	 esp, 4
  005ee	0f be 00	 movsx	 eax, BYTE PTR [eax]
  005f1	85 c0		 test	 eax, eax
  005f3	75 3b		 jne	 SHORT $L189378

; 705  : 						{	// rotate red up from left subtree
; 706  : 						_Color(_Pnode) = _Black;

  005f5	8b 4d e0	 mov	 ecx, DWORD PTR __Pnode$[ebp]
  005f8	51		 push	 ecx
  005f9	e8 00 00 00 00	 call	 ?_Color@?$_Tree@V?$_Tmap_traits@KPAVIData@@U?$less@K@std@@V?$allocator@U?$pair@$$CBKPAVIData@@@std@@@3@$0A@@std@@@std@@KAAADPAU_Node@?$_Tree_nod@V?$_Tmap_traits@KPAVIData@@U?$less@K@std@@V?$allocator@U?$pair@$$CBKPAVIData@@@std@@@3@$0A@@std@@@2@@Z ; std::_Tree<std::_Tmap_traits<unsigned long,IData *,std::less<unsigned long>,std::allocator<std::pair<unsigned long const ,IData *> >,0> >::_Color
  005fe	83 c4 04	 add	 esp, 4
  00601	c6 00 01	 mov	 BYTE PTR [eax], 1

; 707  : 						_Color(_Fixnodeparent) = _Red;

  00604	8b 55 e4	 mov	 edx, DWORD PTR __Fixnodeparent$[ebp]
  00607	52		 push	 edx
  00608	e8 00 00 00 00	 call	 ?_Color@?$_Tree@V?$_Tmap_traits@KPAVIData@@U?$less@K@std@@V?$allocator@U?$pair@$$CBKPAVIData@@@std@@@3@$0A@@std@@@std@@KAAADPAU_Node@?$_Tree_nod@V?$_Tmap_traits@KPAVIData@@U?$less@K@std@@V?$allocator@U?$pair@$$CBKPAVIData@@@std@@@3@$0A@@std@@@2@@Z ; std::_Tree<std::_Tmap_traits<unsigned long,IData *,std::less<unsigned long>,std::allocator<std::pair<unsigned long const ,IData *> >,0> >::_Color
  0060d	83 c4 04	 add	 esp, 4
  00610	c6 00 00	 mov	 BYTE PTR [eax], 0

; 708  : 						_Rrotate(_Fixnodeparent);

  00613	8b 45 e4	 mov	 eax, DWORD PTR __Fixnodeparent$[ebp]
  00616	50		 push	 eax
  00617	8b 4d f0	 mov	 ecx, DWORD PTR _this$[ebp]
  0061a	e8 00 00 00 00	 call	 ?_Rrotate@?$_Tree@V?$_Tmap_traits@KPAVIData@@U?$less@K@std@@V?$allocator@U?$pair@$$CBKPAVIData@@@std@@@3@$0A@@std@@@std@@IAEXPAU_Node@?$_Tree_nod@V?$_Tmap_traits@KPAVIData@@U?$less@K@std@@V?$allocator@U?$pair@$$CBKPAVIData@@@std@@@3@$0A@@std@@@2@@Z ; std::_Tree<std::_Tmap_traits<unsigned long,IData *,std::less<unsigned long>,std::allocator<std::pair<unsigned long const ,IData *> >,0> >::_Rrotate

; 709  : 						_Pnode = _Left(_Fixnodeparent);

  0061f	8b 4d e4	 mov	 ecx, DWORD PTR __Fixnodeparent$[ebp]
  00622	51		 push	 ecx
  00623	e8 00 00 00 00	 call	 ?_Left@?$_Tree@V?$_Tmap_traits@KPAVIData@@U?$less@K@std@@V?$allocator@U?$pair@$$CBKPAVIData@@@std@@@3@$0A@@std@@@std@@KAAAPAU_Node@?$_Tree_nod@V?$_Tmap_traits@KPAVIData@@U?$less@K@std@@V?$allocator@U?$pair@$$CBKPAVIData@@@std@@@3@$0A@@std@@@2@PAU342@@Z ; std::_Tree<std::_Tmap_traits<unsigned long,IData *,std::less<unsigned long>,std::allocator<std::pair<unsigned long const ,IData *> >,0> >::_Left
  00628	83 c4 04	 add	 esp, 4
  0062b	8b 10		 mov	 edx, DWORD PTR [eax]
  0062d	89 55 e0	 mov	 DWORD PTR __Pnode$[ebp], edx
$L189378:

; 710  : 						}
; 711  : 					if (_Isnil(_Pnode))

  00630	8b 45 e0	 mov	 eax, DWORD PTR __Pnode$[ebp]
  00633	50		 push	 eax
  00634	e8 00 00 00 00	 call	 ?_Isnil@?$_Tree@V?$_Tmap_traits@KPAVIData@@U?$less@K@std@@V?$allocator@U?$pair@$$CBKPAVIData@@@std@@@3@$0A@@std@@@std@@KAAADPAU_Node@?$_Tree_nod@V?$_Tmap_traits@KPAVIData@@U?$less@K@std@@V?$allocator@U?$pair@$$CBKPAVIData@@@std@@@3@$0A@@std@@@2@@Z ; std::_Tree<std::_Tmap_traits<unsigned long,IData *,std::less<unsigned long>,std::allocator<std::pair<unsigned long const ,IData *> >,0> >::_Isnil
  00639	83 c4 04	 add	 esp, 4
  0063c	0f be 08	 movsx	 ecx, BYTE PTR [eax]
  0063f	85 c9		 test	 ecx, ecx
  00641	74 0b		 je	 SHORT $L189379

; 712  : 						_Fixnode = _Fixnodeparent;	// shouldn't happen

  00643	8b 55 e4	 mov	 edx, DWORD PTR __Fixnodeparent$[ebp]
  00646	89 55 e8	 mov	 DWORD PTR __Fixnode$[ebp], edx

; 713  : 					else if (_Color(_Right(_Pnode)) == _Black

  00649	e9 12 01 00 00	 jmp	 $L189377
$L189379:

; 714  : 						&& _Color(_Left(_Pnode)) == _Black)

  0064e	8b 45 e0	 mov	 eax, DWORD PTR __Pnode$[ebp]
  00651	50		 push	 eax
  00652	e8 00 00 00 00	 call	 ?_Right@?$_Tree@V?$_Tmap_traits@KPAVIData@@U?$less@K@std@@V?$allocator@U?$pair@$$CBKPAVIData@@@std@@@3@$0A@@std@@@std@@KAAAPAU_Node@?$_Tree_nod@V?$_Tmap_traits@KPAVIData@@U?$less@K@std@@V?$allocator@U?$pair@$$CBKPAVIData@@@std@@@3@$0A@@std@@@2@PAU342@@Z ; std::_Tree<std::_Tmap_traits<unsigned long,IData *,std::less<unsigned long>,std::allocator<std::pair<unsigned long const ,IData *> >,0> >::_Right
  00657	83 c4 04	 add	 esp, 4
  0065a	8b 08		 mov	 ecx, DWORD PTR [eax]
  0065c	51		 push	 ecx
  0065d	e8 00 00 00 00	 call	 ?_Color@?$_Tree@V?$_Tmap_traits@KPAVIData@@U?$less@K@std@@V?$allocator@U?$pair@$$CBKPAVIData@@@std@@@3@$0A@@std@@@std@@KAAADPAU_Node@?$_Tree_nod@V?$_Tmap_traits@KPAVIData@@U?$less@K@std@@V?$allocator@U?$pair@$$CBKPAVIData@@@std@@@3@$0A@@std@@@2@@Z ; std::_Tree<std::_Tmap_traits<unsigned long,IData *,std::less<unsigned long>,std::allocator<std::pair<unsigned long const ,IData *> >,0> >::_Color
  00662	83 c4 04	 add	 esp, 4
  00665	0f be 10	 movsx	 edx, BYTE PTR [eax]
  00668	83 fa 01	 cmp	 edx, 1
  0066b	75 39		 jne	 SHORT $L189381
  0066d	8b 45 e0	 mov	 eax, DWORD PTR __Pnode$[ebp]
  00670	50		 push	 eax
  00671	e8 00 00 00 00	 call	 ?_Left@?$_Tree@V?$_Tmap_traits@KPAVIData@@U?$less@K@std@@V?$allocator@U?$pair@$$CBKPAVIData@@@std@@@3@$0A@@std@@@std@@KAAAPAU_Node@?$_Tree_nod@V?$_Tmap_traits@KPAVIData@@U?$less@K@std@@V?$allocator@U?$pair@$$CBKPAVIData@@@std@@@3@$0A@@std@@@2@PAU342@@Z ; std::_Tree<std::_Tmap_traits<unsigned long,IData *,std::less<unsigned long>,std::allocator<std::pair<unsigned long const ,IData *> >,0> >::_Left
  00676	83 c4 04	 add	 esp, 4
  00679	8b 08		 mov	 ecx, DWORD PTR [eax]
  0067b	51		 push	 ecx
  0067c	e8 00 00 00 00	 call	 ?_Color@?$_Tree@V?$_Tmap_traits@KPAVIData@@U?$less@K@std@@V?$allocator@U?$pair@$$CBKPAVIData@@@std@@@3@$0A@@std@@@std@@KAAADPAU_Node@?$_Tree_nod@V?$_Tmap_traits@KPAVIData@@U?$less@K@std@@V?$allocator@U?$pair@$$CBKPAVIData@@@std@@@3@$0A@@std@@@2@@Z ; std::_Tree<std::_Tmap_traits<unsigned long,IData *,std::less<unsigned long>,std::allocator<std::pair<unsigned long const ,IData *> >,0> >::_Color
  00681	83 c4 04	 add	 esp, 4
  00684	0f be 10	 movsx	 edx, BYTE PTR [eax]
  00687	83 fa 01	 cmp	 edx, 1
  0068a	75 1a		 jne	 SHORT $L189381

; 715  : 						{	// redden left subtree with black children
; 716  : 						_Color(_Pnode) = _Red;

  0068c	8b 45 e0	 mov	 eax, DWORD PTR __Pnode$[ebp]
  0068f	50		 push	 eax
  00690	e8 00 00 00 00	 call	 ?_Color@?$_Tree@V?$_Tmap_traits@KPAVIData@@U?$less@K@std@@V?$allocator@U?$pair@$$CBKPAVIData@@@std@@@3@$0A@@std@@@std@@KAAADPAU_Node@?$_Tree_nod@V?$_Tmap_traits@KPAVIData@@U?$less@K@std@@V?$allocator@U?$pair@$$CBKPAVIData@@@std@@@3@$0A@@std@@@2@@Z ; std::_Tree<std::_Tmap_traits<unsigned long,IData *,std::less<unsigned long>,std::allocator<std::pair<unsigned long const ,IData *> >,0> >::_Color
  00695	83 c4 04	 add	 esp, 4
  00698	c6 00 00	 mov	 BYTE PTR [eax], 0

; 717  : 						_Fixnode = _Fixnodeparent;

  0069b	8b 4d e4	 mov	 ecx, DWORD PTR __Fixnodeparent$[ebp]
  0069e	89 4d e8	 mov	 DWORD PTR __Fixnode$[ebp], ecx

; 718  : 						}
; 719  : 					else

  006a1	e9 ba 00 00 00	 jmp	 $L189377
$L189381:

; 720  : 						{	// must rearrange left subtree
; 721  : 						if (_Color(_Left(_Pnode)) == _Black)

  006a6	8b 55 e0	 mov	 edx, DWORD PTR __Pnode$[ebp]
  006a9	52		 push	 edx
  006aa	e8 00 00 00 00	 call	 ?_Left@?$_Tree@V?$_Tmap_traits@KPAVIData@@U?$less@K@std@@V?$allocator@U?$pair@$$CBKPAVIData@@@std@@@3@$0A@@std@@@std@@KAAAPAU_Node@?$_Tree_nod@V?$_Tmap_traits@KPAVIData@@U?$less@K@std@@V?$allocator@U?$pair@$$CBKPAVIData@@@std@@@3@$0A@@std@@@2@PAU342@@Z ; std::_Tree<std::_Tmap_traits<unsigned long,IData *,std::less<unsigned long>,std::allocator<std::pair<unsigned long const ,IData *> >,0> >::_Left
  006af	83 c4 04	 add	 esp, 4
  006b2	8b 00		 mov	 eax, DWORD PTR [eax]
  006b4	50		 push	 eax
  006b5	e8 00 00 00 00	 call	 ?_Color@?$_Tree@V?$_Tmap_traits@KPAVIData@@U?$less@K@std@@V?$allocator@U?$pair@$$CBKPAVIData@@@std@@@3@$0A@@std@@@std@@KAAADPAU_Node@?$_Tree_nod@V?$_Tmap_traits@KPAVIData@@U?$less@K@std@@V?$allocator@U?$pair@$$CBKPAVIData@@@std@@@3@$0A@@std@@@2@@Z ; std::_Tree<std::_Tmap_traits<unsigned long,IData *,std::less<unsigned long>,std::allocator<std::pair<unsigned long const ,IData *> >,0> >::_Color
  006ba	83 c4 04	 add	 esp, 4
  006bd	0f be 08	 movsx	 ecx, BYTE PTR [eax]
  006c0	83 f9 01	 cmp	 ecx, 1
  006c3	75 46		 jne	 SHORT $L189383

; 722  : 							{	// rotate red up from right sub-subtree
; 723  : 							_Color(_Right(_Pnode)) = _Black;

  006c5	8b 55 e0	 mov	 edx, DWORD PTR __Pnode$[ebp]
  006c8	52		 push	 edx
  006c9	e8 00 00 00 00	 call	 ?_Right@?$_Tree@V?$_Tmap_traits@KPAVIData@@U?$less@K@std@@V?$allocator@U?$pair@$$CBKPAVIData@@@std@@@3@$0A@@std@@@std@@KAAAPAU_Node@?$_Tree_nod@V?$_Tmap_traits@KPAVIData@@U?$less@K@std@@V?$allocator@U?$pair@$$CBKPAVIData@@@std@@@3@$0A@@std@@@2@PAU342@@Z ; std::_Tree<std::_Tmap_traits<unsigned long,IData *,std::less<unsigned long>,std::allocator<std::pair<unsigned long const ,IData *> >,0> >::_Right
  006ce	83 c4 04	 add	 esp, 4
  006d1	8b 00		 mov	 eax, DWORD PTR [eax]
  006d3	50		 push	 eax
  006d4	e8 00 00 00 00	 call	 ?_Color@?$_Tree@V?$_Tmap_traits@KPAVIData@@U?$less@K@std@@V?$allocator@U?$pair@$$CBKPAVIData@@@std@@@3@$0A@@std@@@std@@KAAADPAU_Node@?$_Tree_nod@V?$_Tmap_traits@KPAVIData@@U?$less@K@std@@V?$allocator@U?$pair@$$CBKPAVIData@@@std@@@3@$0A@@std@@@2@@Z ; std::_Tree<std::_Tmap_traits<unsigned long,IData *,std::less<unsigned long>,std::allocator<std::pair<unsigned long const ,IData *> >,0> >::_Color
  006d9	83 c4 04	 add	 esp, 4
  006dc	c6 00 01	 mov	 BYTE PTR [eax], 1

; 724  : 							_Color(_Pnode) = _Red;

  006df	8b 4d e0	 mov	 ecx, DWORD PTR __Pnode$[ebp]
  006e2	51		 push	 ecx
  006e3	e8 00 00 00 00	 call	 ?_Color@?$_Tree@V?$_Tmap_traits@KPAVIData@@U?$less@K@std@@V?$allocator@U?$pair@$$CBKPAVIData@@@std@@@3@$0A@@std@@@std@@KAAADPAU_Node@?$_Tree_nod@V?$_Tmap_traits@KPAVIData@@U?$less@K@std@@V?$allocator@U?$pair@$$CBKPAVIData@@@std@@@3@$0A@@std@@@2@@Z ; std::_Tree<std::_Tmap_traits<unsigned long,IData *,std::less<unsigned long>,std::allocator<std::pair<unsigned long const ,IData *> >,0> >::_Color
  006e8	83 c4 04	 add	 esp, 4
  006eb	c6 00 00	 mov	 BYTE PTR [eax], 0

; 725  : 							_Lrotate(_Pnode);

  006ee	8b 55 e0	 mov	 edx, DWORD PTR __Pnode$[ebp]
  006f1	52		 push	 edx
  006f2	8b 4d f0	 mov	 ecx, DWORD PTR _this$[ebp]
  006f5	e8 00 00 00 00	 call	 ?_Lrotate@?$_Tree@V?$_Tmap_traits@KPAVIData@@U?$less@K@std@@V?$allocator@U?$pair@$$CBKPAVIData@@@std@@@3@$0A@@std@@@std@@IAEXPAU_Node@?$_Tree_nod@V?$_Tmap_traits@KPAVIData@@U?$less@K@std@@V?$allocator@U?$pair@$$CBKPAVIData@@@std@@@3@$0A@@std@@@2@@Z ; std::_Tree<std::_Tmap_traits<unsigned long,IData *,std::less<unsigned long>,std::allocator<std::pair<unsigned long const ,IData *> >,0> >::_Lrotate

; 726  : 							_Pnode = _Left(_Fixnodeparent);

  006fa	8b 45 e4	 mov	 eax, DWORD PTR __Fixnodeparent$[ebp]
  006fd	50		 push	 eax
  006fe	e8 00 00 00 00	 call	 ?_Left@?$_Tree@V?$_Tmap_traits@KPAVIData@@U?$less@K@std@@V?$allocator@U?$pair@$$CBKPAVIData@@@std@@@3@$0A@@std@@@std@@KAAAPAU_Node@?$_Tree_nod@V?$_Tmap_traits@KPAVIData@@U?$less@K@std@@V?$allocator@U?$pair@$$CBKPAVIData@@@std@@@3@$0A@@std@@@2@PAU342@@Z ; std::_Tree<std::_Tmap_traits<unsigned long,IData *,std::less<unsigned long>,std::allocator<std::pair<unsigned long const ,IData *> >,0> >::_Left
  00703	83 c4 04	 add	 esp, 4
  00706	8b 08		 mov	 ecx, DWORD PTR [eax]
  00708	89 4d e0	 mov	 DWORD PTR __Pnode$[ebp], ecx
$L189383:

; 727  : 							}
; 728  : 
; 729  : 						_Color(_Pnode) = _Color(_Fixnodeparent);

  0070b	8b 55 e4	 mov	 edx, DWORD PTR __Fixnodeparent$[ebp]
  0070e	52		 push	 edx
  0070f	e8 00 00 00 00	 call	 ?_Color@?$_Tree@V?$_Tmap_traits@KPAVIData@@U?$less@K@std@@V?$allocator@U?$pair@$$CBKPAVIData@@@std@@@3@$0A@@std@@@std@@KAAADPAU_Node@?$_Tree_nod@V?$_Tmap_traits@KPAVIData@@U?$less@K@std@@V?$allocator@U?$pair@$$CBKPAVIData@@@std@@@3@$0A@@std@@@2@@Z ; std::_Tree<std::_Tmap_traits<unsigned long,IData *,std::less<unsigned long>,std::allocator<std::pair<unsigned long const ,IData *> >,0> >::_Color
  00714	83 c4 04	 add	 esp, 4
  00717	8b f0		 mov	 esi, eax
  00719	8b 45 e0	 mov	 eax, DWORD PTR __Pnode$[ebp]
  0071c	50		 push	 eax
  0071d	e8 00 00 00 00	 call	 ?_Color@?$_Tree@V?$_Tmap_traits@KPAVIData@@U?$less@K@std@@V?$allocator@U?$pair@$$CBKPAVIData@@@std@@@3@$0A@@std@@@std@@KAAADPAU_Node@?$_Tree_nod@V?$_Tmap_traits@KPAVIData@@U?$less@K@std@@V?$allocator@U?$pair@$$CBKPAVIData@@@std@@@3@$0A@@std@@@2@@Z ; std::_Tree<std::_Tmap_traits<unsigned long,IData *,std::less<unsigned long>,std::allocator<std::pair<unsigned long const ,IData *> >,0> >::_Color
  00722	83 c4 04	 add	 esp, 4
  00725	8a 0e		 mov	 cl, BYTE PTR [esi]
  00727	88 08		 mov	 BYTE PTR [eax], cl

; 730  : 						_Color(_Fixnodeparent) = _Black;

  00729	8b 55 e4	 mov	 edx, DWORD PTR __Fixnodeparent$[ebp]
  0072c	52		 push	 edx
  0072d	e8 00 00 00 00	 call	 ?_Color@?$_Tree@V?$_Tmap_traits@KPAVIData@@U?$less@K@std@@V?$allocator@U?$pair@$$CBKPAVIData@@@std@@@3@$0A@@std@@@std@@KAAADPAU_Node@?$_Tree_nod@V?$_Tmap_traits@KPAVIData@@U?$less@K@std@@V?$allocator@U?$pair@$$CBKPAVIData@@@std@@@3@$0A@@std@@@2@@Z ; std::_Tree<std::_Tmap_traits<unsigned long,IData *,std::less<unsigned long>,std::allocator<std::pair<unsigned long const ,IData *> >,0> >::_Color
  00732	83 c4 04	 add	 esp, 4
  00735	c6 00 01	 mov	 BYTE PTR [eax], 1

; 731  : 						_Color(_Left(_Pnode)) = _Black;

  00738	8b 45 e0	 mov	 eax, DWORD PTR __Pnode$[ebp]
  0073b	50		 push	 eax
  0073c	e8 00 00 00 00	 call	 ?_Left@?$_Tree@V?$_Tmap_traits@KPAVIData@@U?$less@K@std@@V?$allocator@U?$pair@$$CBKPAVIData@@@std@@@3@$0A@@std@@@std@@KAAAPAU_Node@?$_Tree_nod@V?$_Tmap_traits@KPAVIData@@U?$less@K@std@@V?$allocator@U?$pair@$$CBKPAVIData@@@std@@@3@$0A@@std@@@2@PAU342@@Z ; std::_Tree<std::_Tmap_traits<unsigned long,IData *,std::less<unsigned long>,std::allocator<std::pair<unsigned long const ,IData *> >,0> >::_Left
  00741	83 c4 04	 add	 esp, 4
  00744	8b 08		 mov	 ecx, DWORD PTR [eax]
  00746	51		 push	 ecx
  00747	e8 00 00 00 00	 call	 ?_Color@?$_Tree@V?$_Tmap_traits@KPAVIData@@U?$less@K@std@@V?$allocator@U?$pair@$$CBKPAVIData@@@std@@@3@$0A@@std@@@std@@KAAADPAU_Node@?$_Tree_nod@V?$_Tmap_traits@KPAVIData@@U?$less@K@std@@V?$allocator@U?$pair@$$CBKPAVIData@@@std@@@3@$0A@@std@@@2@@Z ; std::_Tree<std::_Tmap_traits<unsigned long,IData *,std::less<unsigned long>,std::allocator<std::pair<unsigned long const ,IData *> >,0> >::_Color
  0074c	83 c4 04	 add	 esp, 4
  0074f	c6 00 01	 mov	 BYTE PTR [eax], 1

; 732  : 						_Rrotate(_Fixnodeparent);

  00752	8b 55 e4	 mov	 edx, DWORD PTR __Fixnodeparent$[ebp]
  00755	52		 push	 edx
  00756	8b 4d f0	 mov	 ecx, DWORD PTR _this$[ebp]
  00759	e8 00 00 00 00	 call	 ?_Rrotate@?$_Tree@V?$_Tmap_traits@KPAVIData@@U?$less@K@std@@V?$allocator@U?$pair@$$CBKPAVIData@@@std@@@3@$0A@@std@@@std@@IAEXPAU_Node@?$_Tree_nod@V?$_Tmap_traits@KPAVIData@@U?$less@K@std@@V?$allocator@U?$pair@$$CBKPAVIData@@@std@@@3@$0A@@std@@@2@@Z ; std::_Tree<std::_Tmap_traits<unsigned long,IData *,std::less<unsigned long>,std::allocator<std::pair<unsigned long const ,IData *> >,0> >::_Rrotate

; 733  : 						break;	// tree now recolored/rebalanced

  0075e	eb 05		 jmp	 SHORT $L189369
$L189377:

; 734  : 						}
; 735  : 					}

  00760	e9 82 fc ff ff	 jmp	 $L189368
$L189369:

; 736  : 
; 737  : 			_Color(_Fixnode) = _Black;	// ensure stopping node is black

  00765	8b 45 e8	 mov	 eax, DWORD PTR __Fixnode$[ebp]
  00768	50		 push	 eax
  00769	e8 00 00 00 00	 call	 ?_Color@?$_Tree@V?$_Tmap_traits@KPAVIData@@U?$less@K@std@@V?$allocator@U?$pair@$$CBKPAVIData@@@std@@@3@$0A@@std@@@std@@KAAADPAU_Node@?$_Tree_nod@V?$_Tmap_traits@KPAVIData@@U?$less@K@std@@V?$allocator@U?$pair@$$CBKPAVIData@@@std@@@3@$0A@@std@@@2@@Z ; std::_Tree<std::_Tmap_traits<unsigned long,IData *,std::less<unsigned long>,std::allocator<std::pair<unsigned long const ,IData *> >,0> >::_Color
  0076e	83 c4 04	 add	 esp, 4
  00771	c6 00 01	 mov	 BYTE PTR [eax], 1
$L189366:

; 738  : 			}
; 739  : 
; 740  : 		this->_Alnod.destroy(_Erasednode);	// destroy, free erased node

  00774	8b 4d ec	 mov	 ecx, DWORD PTR __Erasednode$[ebp]
  00777	51		 push	 ecx
  00778	8b 4d f0	 mov	 ecx, DWORD PTR _this$[ebp]
  0077b	83 c1 01	 add	 ecx, 1
  0077e	e8 00 00 00 00	 call	 ?destroy@?$allocator@U_Node@?$_Tree_nod@V?$_Tmap_traits@KPAVIData@@U?$less@K@std@@V?$allocator@U?$pair@$$CBKPAVIData@@@std@@@3@$0A@@std@@@std@@@std@@QAEXPAU_Node@?$_Tree_nod@V?$_Tmap_traits@KPAVIData@@U?$less@K@std@@V?$allocator@U?$pair@$$CBKPAVIData@@@std@@@3@$0A@@std@@@2@@Z ; std::allocator<std::_Tree_nod<std::_Tmap_traits<unsigned long,IData *,std::less<unsigned long>,std::allocator<std::pair<unsigned long const ,IData *> >,0> >::_Node>::destroy

; 741  : 		this->_Alnod.deallocate(_Erasednode, 1);

  00783	6a 01		 push	 1
  00785	8b 55 ec	 mov	 edx, DWORD PTR __Erasednode$[ebp]
  00788	52		 push	 edx
  00789	8b 4d f0	 mov	 ecx, DWORD PTR _this$[ebp]
  0078c	83 c1 01	 add	 ecx, 1
  0078f	e8 00 00 00 00	 call	 ?deallocate@?$allocator@U_Node@?$_Tree_nod@V?$_Tmap_traits@KPAVIData@@U?$less@K@std@@V?$allocator@U?$pair@$$CBKPAVIData@@@std@@@3@$0A@@std@@@std@@@std@@QAEXPAU_Node@?$_Tree_nod@V?$_Tmap_traits@KPAVIData@@U?$less@K@std@@V?$allocator@U?$pair@$$CBKPAVIData@@@std@@@3@$0A@@std@@@2@I@Z ; std::allocator<std::_Tree_nod<std::_Tmap_traits<unsigned long,IData *,std::less<unsigned long>,std::allocator<std::pair<unsigned long const ,IData *> >,0> >::_Node>::deallocate

; 742  : 
; 743  : 		if (0 < _Mysize)

  00794	8b 45 f0	 mov	 eax, DWORD PTR _this$[ebp]
  00797	83 78 08 00	 cmp	 DWORD PTR [eax+8], 0
  0079b	76 0f		 jbe	 SHORT $L189384

; 744  : 			--_Mysize;

  0079d	8b 4d f0	 mov	 ecx, DWORD PTR _this$[ebp]
  007a0	8b 51 08	 mov	 edx, DWORD PTR [ecx+8]
  007a3	83 ea 01	 sub	 edx, 1
  007a6	8b 45 f0	 mov	 eax, DWORD PTR _this$[ebp]
  007a9	89 50 08	 mov	 DWORD PTR [eax+8], edx
$L189384:

; 745  : 
; 746  : 		return (_Where);	// return successor iterator

  007ac	8b 4d 08	 mov	 ecx, DWORD PTR ___$ReturnUdt$[ebp]
  007af	8b 55 0c	 mov	 edx, DWORD PTR __Where$[ebp]
  007b2	89 11		 mov	 DWORD PTR [ecx], edx
  007b4	8b 45 08	 mov	 eax, DWORD PTR ___$ReturnUdt$[ebp]
$L190329:

; 747  : 		}

  007b7	8b 4d f4	 mov	 ecx, DWORD PTR __$EHRec$[ebp]
  007ba	64 89 0d 00 00
	00 00		 mov	 DWORD PTR fs:__except_list, ecx
  007c1	5f		 pop	 edi
  007c2	5e		 pop	 esi
  007c3	83 c4 6c	 add	 esp, 108		; 0000006cH
  007c6	3b ec		 cmp	 ebp, esp
  007c8	e8 00 00 00 00	 call	 __RTC_CheckEsp
  007cd	8b e5		 mov	 esp, ebp
  007cf	5d		 pop	 ebp
  007d0	c2 08 00	 ret	 8
_TEXT	ENDS
;	COMDAT text$x
text$x	SEGMENT
$L190337:
  00000	8b f4		 mov	 esi, esp
  00002	8d 4d 9c	 lea	 ecx, DWORD PTR $T190331[ebp]
  00005	ff 15 00 00 00
	00		 call	 DWORD PTR __imp_??1?$basic_string@DU?$char_traits@D@std@@V?$allocator@D@2@@std@@QAE@XZ
  0000b	3b f4		 cmp	 esi, esp
  0000d	e9 00 00 00 00	 jmp	 __RTC_CheckEsp
__ehhandler$?erase@?$_Tree@V?$_Tmap_traits@KPAVIData@@U?$less@K@std@@V?$allocator@U?$pair@$$CBKPAVIData@@@std@@@3@$0A@@std@@@std@@QAE?AViterator@12@V312@@Z:
  00012	b8 00 00 00 00	 mov	 eax, OFFSET FLAT:$T190339
  00017	e9 00 00 00 00	 jmp	 ___CxxFrameHandler
text$x	ENDS
?erase@?$_Tree@V?$_Tmap_traits@KPAVIData@@U?$less@K@std@@V?$allocator@U?$pair@$$CBKPAVIData@@@std@@@3@$0A@@std@@@std@@QAE?AViterator@12@V312@@Z ENDP ; std::_Tree<std::_Tmap_traits<unsigned long,IData *,std::less<unsigned long>,std::allocator<std::pair<unsigned long const ,IData *> >,0> >::erase
PUBLIC	?_Ubound@?$_Tree@V?$_Tmap_traits@KPAVIData@@U?$less@K@std@@V?$allocator@U?$pair@$$CBKPAVIData@@@std@@@3@$0A@@std@@@std@@IBEPAU_Node@?$_Tree_nod@V?$_Tmap_traits@KPAVIData@@U?$less@K@std@@V?$allocator@U?$pair@$$CBKPAVIData@@@std@@@3@$0A@@std@@@2@ABK@Z ; std::_Tree<std::_Tmap_traits<unsigned long,IData *,std::less<unsigned long>,std::allocator<std::pair<unsigned long const ,IData *> >,0> >::_Ubound
; Function compile flags: /Odt /RTCsu
;	COMDAT ?upper_bound@?$_Tree@V?$_Tmap_traits@KPAVIData@@U?$less@K@std@@V?$allocator@U?$pair@$$CBKPAVIData@@@std@@@3@$0A@@std@@@std@@QAE?AViterator@12@ABK@Z
_TEXT	SEGMENT
_this$ = -4						; size = 4
___$ReturnUdt$ = 8					; size = 4
__Keyval$ = 12						; size = 4
?upper_bound@?$_Tree@V?$_Tmap_traits@KPAVIData@@U?$less@K@std@@V?$allocator@U?$pair@$$CBKPAVIData@@@std@@@3@$0A@@std@@@std@@QAE?AViterator@12@ABK@Z PROC NEAR ; std::_Tree<std::_Tmap_traits<unsigned long,IData *,std::less<unsigned long>,std::allocator<std::pair<unsigned long const ,IData *> >,0> >::upper_bound, COMDAT
; _this$ = ecx

; 819  : 		{	// find leftmost node greater than _Keyval in mutable tree

  00000	55		 push	 ebp
  00001	8b ec		 mov	 ebp, esp
  00003	51		 push	 ecx
  00004	c7 45 fc cc cc
	cc cc		 mov	 DWORD PTR [ebp-4], -858993460 ; ccccccccH
  0000b	89 4d fc	 mov	 DWORD PTR _this$[ebp], ecx

; 820  : 		return (_TREE_ITERATOR(_Ubound(_Keyval)));

  0000e	8b 45 0c	 mov	 eax, DWORD PTR __Keyval$[ebp]
  00011	50		 push	 eax
  00012	8b 4d fc	 mov	 ecx, DWORD PTR _this$[ebp]
  00015	e8 00 00 00 00	 call	 ?_Ubound@?$_Tree@V?$_Tmap_traits@KPAVIData@@U?$less@K@std@@V?$allocator@U?$pair@$$CBKPAVIData@@@std@@@3@$0A@@std@@@std@@IBEPAU_Node@?$_Tree_nod@V?$_Tmap_traits@KPAVIData@@U?$less@K@std@@V?$allocator@U?$pair@$$CBKPAVIData@@@std@@@3@$0A@@std@@@2@ABK@Z ; std::_Tree<std::_Tmap_traits<unsigned long,IData *,std::less<unsigned long>,std::allocator<std::pair<unsigned long const ,IData *> >,0> >::_Ubound
  0001a	50		 push	 eax
  0001b	8b 4d 08	 mov	 ecx, DWORD PTR ___$ReturnUdt$[ebp]
  0001e	e8 00 00 00 00	 call	 ??0iterator@?$_Tree@V?$_Tmap_traits@KPAVIData@@U?$less@K@std@@V?$allocator@U?$pair@$$CBKPAVIData@@@std@@@3@$0A@@std@@@std@@QAE@PAU_Node@?$_Tree_nod@V?$_Tmap_traits@KPAVIData@@U?$less@K@std@@V?$allocator@U?$pair@$$CBKPAVIData@@@std@@@3@$0A@@std@@@2@@Z ; std::_Tree<std::_Tmap_traits<unsigned long,IData *,std::less<unsigned long>,std::allocator<std::pair<unsigned long const ,IData *> >,0> >::iterator::iterator
  00023	8b 45 08	 mov	 eax, DWORD PTR ___$ReturnUdt$[ebp]

; 821  : 		}

  00026	83 c4 04	 add	 esp, 4
  00029	3b ec		 cmp	 ebp, esp
  0002b	e8 00 00 00 00	 call	 __RTC_CheckEsp
  00030	8b e5		 mov	 esp, ebp
  00032	5d		 pop	 ebp
  00033	c2 08 00	 ret	 8
?upper_bound@?$_Tree@V?$_Tmap_traits@KPAVIData@@U?$less@K@std@@V?$allocator@U?$pair@$$CBKPAVIData@@@std@@@3@$0A@@std@@@std@@QAE?AViterator@12@ABK@Z ENDP ; std::_Tree<std::_Tmap_traits<unsigned long,IData *,std::less<unsigned long>,std::allocator<std::pair<unsigned long const ,IData *> >,0> >::upper_bound
_TEXT	ENDS
PUBLIC	?_Buynode@?$_Tree@V?$_Tmap_traits@KPAVIData@@U?$less@K@std@@V?$allocator@U?$pair@$$CBKPAVIData@@@std@@@3@$0A@@std@@@std@@IAEPAU_Node@?$_Tree_nod@V?$_Tmap_traits@KPAVIData@@U?$less@K@std@@V?$allocator@U?$pair@$$CBKPAVIData@@@std@@@3@$0A@@std@@@2@XZ ; std::_Tree<std::_Tmap_traits<unsigned long,IData *,std::less<unsigned long>,std::allocator<std::pair<unsigned long const ,IData *> >,0> >::_Buynode
; Function compile flags: /Odt /RTCsu
;	COMDAT ?_Init@?$_Tree@V?$_Tmap_traits@KPAVIData@@U?$less@K@std@@V?$allocator@U?$pair@$$CBKPAVIData@@@std@@@3@$0A@@std@@@std@@IAEXXZ
_TEXT	SEGMENT
_this$ = -4						; size = 4
?_Init@?$_Tree@V?$_Tmap_traits@KPAVIData@@U?$less@K@std@@V?$allocator@U?$pair@$$CBKPAVIData@@@std@@@3@$0A@@std@@@std@@IAEXXZ PROC NEAR ; std::_Tree<std::_Tmap_traits<unsigned long,IData *,std::less<unsigned long>,std::allocator<std::pair<unsigned long const ,IData *> >,0> >::_Init, COMDAT
; _this$ = ecx

; 901  : 		{	// create head/nil node and make tree empty

  00000	55		 push	 ebp
  00001	8b ec		 mov	 ebp, esp
  00003	51		 push	 ecx
  00004	c7 45 fc cc cc
	cc cc		 mov	 DWORD PTR [ebp-4], -858993460 ; ccccccccH
  0000b	89 4d fc	 mov	 DWORD PTR _this$[ebp], ecx

; 902  : 		_Myhead = _Buynode();

  0000e	8b 4d fc	 mov	 ecx, DWORD PTR _this$[ebp]
  00011	e8 00 00 00 00	 call	 ?_Buynode@?$_Tree@V?$_Tmap_traits@KPAVIData@@U?$less@K@std@@V?$allocator@U?$pair@$$CBKPAVIData@@@std@@@3@$0A@@std@@@std@@IAEPAU_Node@?$_Tree_nod@V?$_Tmap_traits@KPAVIData@@U?$less@K@std@@V?$allocator@U?$pair@$$CBKPAVIData@@@std@@@3@$0A@@std@@@2@XZ ; std::_Tree<std::_Tmap_traits<unsigned long,IData *,std::less<unsigned long>,std::allocator<std::pair<unsigned long const ,IData *> >,0> >::_Buynode
  00016	8b 4d fc	 mov	 ecx, DWORD PTR _this$[ebp]
  00019	89 41 04	 mov	 DWORD PTR [ecx+4], eax

; 903  : 		_Isnil(_Myhead) = true;

  0001c	8b 55 fc	 mov	 edx, DWORD PTR _this$[ebp]
  0001f	8b 42 04	 mov	 eax, DWORD PTR [edx+4]
  00022	50		 push	 eax
  00023	e8 00 00 00 00	 call	 ?_Isnil@?$_Tree@V?$_Tmap_traits@KPAVIData@@U?$less@K@std@@V?$allocator@U?$pair@$$CBKPAVIData@@@std@@@3@$0A@@std@@@std@@KAAADPAU_Node@?$_Tree_nod@V?$_Tmap_traits@KPAVIData@@U?$less@K@std@@V?$allocator@U?$pair@$$CBKPAVIData@@@std@@@3@$0A@@std@@@2@@Z ; std::_Tree<std::_Tmap_traits<unsigned long,IData *,std::less<unsigned long>,std::allocator<std::pair<unsigned long const ,IData *> >,0> >::_Isnil
  00028	83 c4 04	 add	 esp, 4
  0002b	c6 00 01	 mov	 BYTE PTR [eax], 1

; 904  : 		_Root() = _Myhead;

  0002e	8b 4d fc	 mov	 ecx, DWORD PTR _this$[ebp]
  00031	e8 00 00 00 00	 call	 ?_Root@?$_Tree@V?$_Tmap_traits@KPAVIData@@U?$less@K@std@@V?$allocator@U?$pair@$$CBKPAVIData@@@std@@@3@$0A@@std@@@std@@IAEAAPAU_Node@?$_Tree_nod@V?$_Tmap_traits@KPAVIData@@U?$less@K@std@@V?$allocator@U?$pair@$$CBKPAVIData@@@std@@@3@$0A@@std@@@2@XZ ; std::_Tree<std::_Tmap_traits<unsigned long,IData *,std::less<unsigned long>,std::allocator<std::pair<unsigned long const ,IData *> >,0> >::_Root
  00036	8b 4d fc	 mov	 ecx, DWORD PTR _this$[ebp]
  00039	8b 51 04	 mov	 edx, DWORD PTR [ecx+4]
  0003c	89 10		 mov	 DWORD PTR [eax], edx

; 905  : 		_Lmost() = _Myhead, _Rmost() = _Myhead;

  0003e	8b 4d fc	 mov	 ecx, DWORD PTR _this$[ebp]
  00041	e8 00 00 00 00	 call	 ?_Lmost@?$_Tree@V?$_Tmap_traits@KPAVIData@@U?$less@K@std@@V?$allocator@U?$pair@$$CBKPAVIData@@@std@@@3@$0A@@std@@@std@@IAEAAPAU_Node@?$_Tree_nod@V?$_Tmap_traits@KPAVIData@@U?$less@K@std@@V?$allocator@U?$pair@$$CBKPAVIData@@@std@@@3@$0A@@std@@@2@XZ ; std::_Tree<std::_Tmap_traits<unsigned long,IData *,std::less<unsigned long>,std::allocator<std::pair<unsigned long const ,IData *> >,0> >::_Lmost
  00046	8b 4d fc	 mov	 ecx, DWORD PTR _this$[ebp]
  00049	8b 51 04	 mov	 edx, DWORD PTR [ecx+4]
  0004c	89 10		 mov	 DWORD PTR [eax], edx
  0004e	8b 4d fc	 mov	 ecx, DWORD PTR _this$[ebp]
  00051	e8 00 00 00 00	 call	 ?_Rmost@?$_Tree@V?$_Tmap_traits@KPAVIData@@U?$less@K@std@@V?$allocator@U?$pair@$$CBKPAVIData@@@std@@@3@$0A@@std@@@std@@IAEAAPAU_Node@?$_Tree_nod@V?$_Tmap_traits@KPAVIData@@U?$less@K@std@@V?$allocator@U?$pair@$$CBKPAVIData@@@std@@@3@$0A@@std@@@2@XZ ; std::_Tree<std::_Tmap_traits<unsigned long,IData *,std::less<unsigned long>,std::allocator<std::pair<unsigned long const ,IData *> >,0> >::_Rmost
  00056	8b 4d fc	 mov	 ecx, DWORD PTR _this$[ebp]
  00059	8b 51 04	 mov	 edx, DWORD PTR [ecx+4]
  0005c	89 10		 mov	 DWORD PTR [eax], edx

; 906  : 		_Mysize = 0;

  0005e	8b 45 fc	 mov	 eax, DWORD PTR _this$[ebp]
  00061	c7 40 08 00 00
	00 00		 mov	 DWORD PTR [eax+8], 0

; 907  : 		}

  00068	83 c4 04	 add	 esp, 4
  0006b	3b ec		 cmp	 ebp, esp
  0006d	e8 00 00 00 00	 call	 __RTC_CheckEsp
  00072	8b e5		 mov	 esp, ebp
  00074	5d		 pop	 ebp
  00075	c3		 ret	 0
?_Init@?$_Tree@V?$_Tmap_traits@KPAVIData@@U?$less@K@std@@V?$allocator@U?$pair@$$CBKPAVIData@@@std@@@3@$0A@@std@@@std@@IAEXXZ ENDP ; std::_Tree<std::_Tmap_traits<unsigned long,IData *,std::less<unsigned long>,std::allocator<std::pair<unsigned long const ,IData *> >,0> >::_Init
_TEXT	ENDS
PUBLIC	??_R0?AVlength_error@std@@@8			; std::length_error `RTTI Type Descriptor'
PUBLIC	??0length_error@std@@QAE@ABV?$basic_string@DU?$char_traits@D@std@@V?$allocator@D@2@@1@@Z ; std::length_error::length_error
PUBLIC	??1length_error@std@@UAE@XZ			; std::length_error::~length_error
PUBLIC	??0length_error@std@@QAE@ABV01@@Z		; std::length_error::length_error
PUBLIC	?max_size@?$_Tree@V?$_Tmap_traits@KPAVIData@@U?$less@K@std@@V?$allocator@U?$pair@$$CBKPAVIData@@@std@@@3@$0A@@std@@@std@@QBEIXZ ; std::_Tree<std::_Tmap_traits<unsigned long,IData *,std::less<unsigned long>,std::allocator<std::pair<unsigned long const ,IData *> >,0> >::max_size
PUBLIC	?_Buynode@?$_Tree@V?$_Tmap_traits@KPAVIData@@U?$less@K@std@@V?$allocator@U?$pair@$$CBKPAVIData@@@std@@@3@$0A@@std@@@std@@IAEPAU_Node@?$_Tree_nod@V?$_Tmap_traits@KPAVIData@@U?$less@K@std@@V?$allocator@U?$pair@$$CBKPAVIData@@@std@@@3@$0A@@std@@@2@PAU342@00ABU?$pair@$$CBKPAVIData@@@2@D@Z ; std::_Tree<std::_Tmap_traits<unsigned long,IData *,std::less<unsigned long>,std::allocator<std::pair<unsigned long const ,IData *> >,0> >::_Buynode
PUBLIC	__TI3?AVlength_error@std@@
PUBLIC	__CTA3?AVlength_error@std@@
PUBLIC	__CT??_R0?AVlength_error@std@@@8??0length_error@std@@QAE@ABV01@@Z40
PUBLIC	??_C@_0BE@JONHPENG@map?1set?$DMT?$DO?5too?5long?$AA@ ; `string'
;	COMDAT xdata$x
xdata$x	SEGMENT
$T190353 DD	0ffffffffH
	DD	FLAT:$L190349
$T190351 DD	019930520H
	DD	01H
	DD	FLAT:$T190353
	DD	2 DUP(00H)
	DD	2 DUP(00H)
xdata$x	ENDS
;	COMDAT ??_C@_0BE@JONHPENG@map?1set?$DMT?$DO?5too?5long?$AA@
CONST	SEGMENT
??_C@_0BE@JONHPENG@map?1set?$DMT?$DO?5too?5long?$AA@ DB 'map/set<T> too l'
	DB	'ong', 00H					; `string'
CONST	ENDS
;	COMDAT __TI3?AVlength_error@std@@
xdata$x	SEGMENT
__TI3?AVlength_error@std@@ DD 00H
	DD	FLAT:??1length_error@std@@UAE@XZ
	DD	00H
	DD	FLAT:__CTA3?AVlength_error@std@@
xdata$x	ENDS
;	COMDAT __CTA3?AVlength_error@std@@
xdata$x	SEGMENT
__CTA3?AVlength_error@std@@ DD 03H
	DD	FLAT:__CT??_R0?AVlength_error@std@@@8??0length_error@std@@QAE@ABV01@@Z40
	DD	FLAT:__CT??_R0?AVlogic_error@std@@@8??0logic_error@std@@QAE@ABV01@@Z40
	DD	FLAT:__CT??_R0?AVexception@@@8??0exception@@QAE@ABV0@@Z12
xdata$x	ENDS
;	COMDAT __CT??_R0?AVlength_error@std@@@8??0length_error@std@@QAE@ABV01@@Z40
xdata$x	SEGMENT
__CT??_R0?AVlength_error@std@@@8??0length_error@std@@QAE@ABV01@@Z40 DD 00H
	DD	FLAT:??_R0?AVlength_error@std@@@8
	DD	00H
	DD	0ffffffffH
	ORG $+4
	DD	028H
	DD	FLAT:??0length_error@std@@QAE@ABV01@@Z
xdata$x	ENDS
;	COMDAT ??_R0?AVlength_error@std@@@8
_DATA	SEGMENT
??_R0?AVlength_error@std@@@8 DD FLAT:??_7type_info@@6B@	; std::length_error `RTTI Type Descriptor'
	DD	00H
	DB	'.?AVlength_error@std@@', 00H
	ORG $-31
	DD	FLAT:??_7type_info@@6B@
	DD	00H
	DB	'.?AVlength_error@std@@', 00H
; Function compile flags: /Odt /RTCsu
_DATA	ENDS
;	COMDAT ?_Insert@?$_Tree@V?$_Tmap_traits@KPAVIData@@U?$less@K@std@@V?$allocator@U?$pair@$$CBKPAVIData@@@std@@@3@$0A@@std@@@std@@IAE?AViterator@12@_NPAU_Node@?$_Tree_nod@V?$_Tmap_traits@KPAVIData@@U?$less@K@std@@V?$allocator@U?$pair@$$CBKPAVIData@@@std@@@3@$0A@@std@@@2@ABU?$pair@$$CBKPAVIData@@@2@@Z
_TEXT	SEGMENT
$T190348 = -92						; size = 28
$T190347 = -64						; size = 40
__Pnode$189409 = -24					; size = 4
__Newnode$ = -20					; size = 4
_this$ = -16						; size = 4
__$EHRec$ = -12						; size = 12
___$ReturnUdt$ = 8					; size = 4
__Addleft$ = 12						; size = 1
__Wherenode$ = 16					; size = 4
__Val$ = 20						; size = 4
?_Insert@?$_Tree@V?$_Tmap_traits@KPAVIData@@U?$less@K@std@@V?$allocator@U?$pair@$$CBKPAVIData@@@std@@@3@$0A@@std@@@std@@IAE?AViterator@12@_NPAU_Node@?$_Tree_nod@V?$_Tmap_traits@KPAVIData@@U?$less@K@std@@V?$allocator@U?$pair@$$CBKPAVIData@@@std@@@3@$0A@@std@@@2@ABU?$pair@$$CBKPAVIData@@@2@@Z PROC NEAR ; std::_Tree<std::_Tmap_traits<unsigned long,IData *,std::less<unsigned long>,std::allocator<std::pair<unsigned long const ,IData *> >,0> >::_Insert, COMDAT
; _this$ = ecx

; 911  : 		{	// add node with value next to _Wherenode, to left if _Addnode

  00000	55		 push	 ebp
  00001	8b ec		 mov	 ebp, esp
  00003	6a ff		 push	 -1
  00005	68 00 00 00 00	 push	 __ehhandler$?_Insert@?$_Tree@V?$_Tmap_traits@KPAVIData@@U?$less@K@std@@V?$allocator@U?$pair@$$CBKPAVIData@@@std@@@3@$0A@@std@@@std@@IAE?AViterator@12@_NPAU_Node@?$_Tree_nod@V?$_Tmap_traits@KPAVIData@@U?$less@K@std@@V?$allocator@U?$pair@$$CBKPAVIData@@@std@@@3@$0A@@std@@@2@ABU?$pair@$$CBKPAVIData@@@2@@Z
  0000a	64 a1 00 00 00
	00		 mov	 eax, DWORD PTR fs:__except_list
  00010	50		 push	 eax
  00011	64 89 25 00 00
	00 00		 mov	 DWORD PTR fs:__except_list, esp
  00018	83 ec 50	 sub	 esp, 80			; 00000050H
  0001b	56		 push	 esi
  0001c	57		 push	 edi
  0001d	51		 push	 ecx
  0001e	8d 7d a4	 lea	 edi, DWORD PTR [ebp-92]
  00021	b9 14 00 00 00	 mov	 ecx, 20			; 00000014H
  00026	b8 cc cc cc cc	 mov	 eax, -858993460		; ccccccccH
  0002b	f3 ab		 rep stosd
  0002d	59		 pop	 ecx
  0002e	89 4d f0	 mov	 DWORD PTR _this$[ebp], ecx

; 912  : 		if (max_size() - 1 <= _Mysize)

  00031	8b 4d f0	 mov	 ecx, DWORD PTR _this$[ebp]
  00034	e8 00 00 00 00	 call	 ?max_size@?$_Tree@V?$_Tmap_traits@KPAVIData@@U?$less@K@std@@V?$allocator@U?$pair@$$CBKPAVIData@@@std@@@3@$0A@@std@@@std@@QBEIXZ ; std::_Tree<std::_Tmap_traits<unsigned long,IData *,std::less<unsigned long>,std::allocator<std::pair<unsigned long const ,IData *> >,0> >::max_size
  00039	83 e8 01	 sub	 eax, 1
  0003c	8b 4d f0	 mov	 ecx, DWORD PTR _this$[ebp]
  0003f	3b 41 08	 cmp	 eax, DWORD PTR [ecx+8]
  00042	77 38		 ja	 SHORT $L189394

; 913  : 			_THROW(length_error, "map/set<T> too long");

  00044	8b f4		 mov	 esi, esp
  00046	68 00 00 00 00	 push	 OFFSET FLAT:??_C@_0BE@JONHPENG@map?1set?$DMT?$DO?5too?5long?$AA@
  0004b	8d 4d a4	 lea	 ecx, DWORD PTR $T190348[ebp]
  0004e	ff 15 00 00 00
	00		 call	 DWORD PTR __imp_??0?$basic_string@DU?$char_traits@D@std@@V?$allocator@D@2@@std@@QAE@PBD@Z
  00054	3b f4		 cmp	 esi, esp
  00056	e8 00 00 00 00	 call	 __RTC_CheckEsp
  0005b	c7 45 fc 00 00
	00 00		 mov	 DWORD PTR __$EHRec$[ebp+8], 0
  00062	8d 55 a4	 lea	 edx, DWORD PTR $T190348[ebp]
  00065	52		 push	 edx
  00066	8d 4d c0	 lea	 ecx, DWORD PTR $T190347[ebp]
  00069	e8 00 00 00 00	 call	 ??0length_error@std@@QAE@ABV?$basic_string@DU?$char_traits@D@std@@V?$allocator@D@2@@1@@Z ; std::length_error::length_error
  0006e	68 00 00 00 00	 push	 OFFSET FLAT:__TI3?AVlength_error@std@@
  00073	8d 45 c0	 lea	 eax, DWORD PTR $T190347[ebp]
  00076	50		 push	 eax
  00077	e8 00 00 00 00	 call	 __CxxThrowException@8
$L189394:

; 914  : 		_Nodeptr _Newnode = _Buynode(_Myhead, _Wherenode, _Myhead,
; 915  : 			_Val, _Red);

  0007c	6a 00		 push	 0
  0007e	8b 4d 14	 mov	 ecx, DWORD PTR __Val$[ebp]
  00081	51		 push	 ecx
  00082	8b 55 f0	 mov	 edx, DWORD PTR _this$[ebp]
  00085	8b 42 04	 mov	 eax, DWORD PTR [edx+4]
  00088	50		 push	 eax
  00089	8b 4d 10	 mov	 ecx, DWORD PTR __Wherenode$[ebp]
  0008c	51		 push	 ecx
  0008d	8b 55 f0	 mov	 edx, DWORD PTR _this$[ebp]
  00090	8b 42 04	 mov	 eax, DWORD PTR [edx+4]
  00093	50		 push	 eax
  00094	8b 4d f0	 mov	 ecx, DWORD PTR _this$[ebp]
  00097	e8 00 00 00 00	 call	 ?_Buynode@?$_Tree@V?$_Tmap_traits@KPAVIData@@U?$less@K@std@@V?$allocator@U?$pair@$$CBKPAVIData@@@std@@@3@$0A@@std@@@std@@IAEPAU_Node@?$_Tree_nod@V?$_Tmap_traits@KPAVIData@@U?$less@K@std@@V?$allocator@U?$pair@$$CBKPAVIData@@@std@@@3@$0A@@std@@@2@PAU342@00ABU?$pair@$$CBKPAVIData@@@2@D@Z ; std::_Tree<std::_Tmap_traits<unsigned long,IData *,std::less<unsigned long>,std::allocator<std::pair<unsigned long const ,IData *> >,0> >::_Buynode
  0009c	89 45 ec	 mov	 DWORD PTR __Newnode$[ebp], eax

; 916  : 
; 917  : 		++_Mysize;

  0009f	8b 4d f0	 mov	 ecx, DWORD PTR _this$[ebp]
  000a2	8b 51 08	 mov	 edx, DWORD PTR [ecx+8]
  000a5	83 c2 01	 add	 edx, 1
  000a8	8b 45 f0	 mov	 eax, DWORD PTR _this$[ebp]
  000ab	89 50 08	 mov	 DWORD PTR [eax+8], edx

; 918  : 		if (_Wherenode == _Myhead)

  000ae	8b 4d f0	 mov	 ecx, DWORD PTR _this$[ebp]
  000b1	8b 55 10	 mov	 edx, DWORD PTR __Wherenode$[ebp]
  000b4	3b 51 04	 cmp	 edx, DWORD PTR [ecx+4]
  000b7	75 29		 jne	 SHORT $L189403

; 919  : 			{	// first node in tree, just set head values
; 920  : 			_Root() = _Newnode;

  000b9	8b 4d f0	 mov	 ecx, DWORD PTR _this$[ebp]
  000bc	e8 00 00 00 00	 call	 ?_Root@?$_Tree@V?$_Tmap_traits@KPAVIData@@U?$less@K@std@@V?$allocator@U?$pair@$$CBKPAVIData@@@std@@@3@$0A@@std@@@std@@IAEAAPAU_Node@?$_Tree_nod@V?$_Tmap_traits@KPAVIData@@U?$less@K@std@@V?$allocator@U?$pair@$$CBKPAVIData@@@std@@@3@$0A@@std@@@2@XZ ; std::_Tree<std::_Tmap_traits<unsigned long,IData *,std::less<unsigned long>,std::allocator<std::pair<unsigned long const ,IData *> >,0> >::_Root
  000c1	8b 4d ec	 mov	 ecx, DWORD PTR __Newnode$[ebp]
  000c4	89 08		 mov	 DWORD PTR [eax], ecx

; 921  : 			_Lmost() = _Newnode, _Rmost() = _Newnode;

  000c6	8b 4d f0	 mov	 ecx, DWORD PTR _this$[ebp]
  000c9	e8 00 00 00 00	 call	 ?_Lmost@?$_Tree@V?$_Tmap_traits@KPAVIData@@U?$less@K@std@@V?$allocator@U?$pair@$$CBKPAVIData@@@std@@@3@$0A@@std@@@std@@IAEAAPAU_Node@?$_Tree_nod@V?$_Tmap_traits@KPAVIData@@U?$less@K@std@@V?$allocator@U?$pair@$$CBKPAVIData@@@std@@@3@$0A@@std@@@2@XZ ; std::_Tree<std::_Tmap_traits<unsigned long,IData *,std::less<unsigned long>,std::allocator<std::pair<unsigned long const ,IData *> >,0> >::_Lmost
  000ce	8b 55 ec	 mov	 edx, DWORD PTR __Newnode$[ebp]
  000d1	89 10		 mov	 DWORD PTR [eax], edx
  000d3	8b 4d f0	 mov	 ecx, DWORD PTR _this$[ebp]
  000d6	e8 00 00 00 00	 call	 ?_Rmost@?$_Tree@V?$_Tmap_traits@KPAVIData@@U?$less@K@std@@V?$allocator@U?$pair@$$CBKPAVIData@@@std@@@3@$0A@@std@@@std@@IAEAAPAU_Node@?$_Tree_nod@V?$_Tmap_traits@KPAVIData@@U?$less@K@std@@V?$allocator@U?$pair@$$CBKPAVIData@@@std@@@3@$0A@@std@@@2@XZ ; std::_Tree<std::_Tmap_traits<unsigned long,IData *,std::less<unsigned long>,std::allocator<std::pair<unsigned long const ,IData *> >,0> >::_Rmost
  000db	8b 4d ec	 mov	 ecx, DWORD PTR __Newnode$[ebp]
  000de	89 08		 mov	 DWORD PTR [eax], ecx

; 922  : 			}
; 923  : 		else if (_Addleft)

  000e0	eb 64		 jmp	 SHORT $L189404
$L189403:
  000e2	0f b6 55 0c	 movzx	 edx, BYTE PTR __Addleft$[ebp]
  000e6	85 d2		 test	 edx, edx
  000e8	74 2f		 je	 SHORT $L189405

; 924  : 			{	// add to left of _Wherenode
; 925  : 			_Left(_Wherenode) = _Newnode;

  000ea	8b 45 10	 mov	 eax, DWORD PTR __Wherenode$[ebp]
  000ed	50		 push	 eax
  000ee	e8 00 00 00 00	 call	 ?_Left@?$_Tree@V?$_Tmap_traits@KPAVIData@@U?$less@K@std@@V?$allocator@U?$pair@$$CBKPAVIData@@@std@@@3@$0A@@std@@@std@@KAAAPAU_Node@?$_Tree_nod@V?$_Tmap_traits@KPAVIData@@U?$less@K@std@@V?$allocator@U?$pair@$$CBKPAVIData@@@std@@@3@$0A@@std@@@2@PAU342@@Z ; std::_Tree<std::_Tmap_traits<unsigned long,IData *,std::less<unsigned long>,std::allocator<std::pair<unsigned long const ,IData *> >,0> >::_Left
  000f3	83 c4 04	 add	 esp, 4
  000f6	8b 4d ec	 mov	 ecx, DWORD PTR __Newnode$[ebp]
  000f9	89 08		 mov	 DWORD PTR [eax], ecx

; 926  : 			if (_Wherenode == _Lmost())

  000fb	8b 4d f0	 mov	 ecx, DWORD PTR _this$[ebp]
  000fe	e8 00 00 00 00	 call	 ?_Lmost@?$_Tree@V?$_Tmap_traits@KPAVIData@@U?$less@K@std@@V?$allocator@U?$pair@$$CBKPAVIData@@@std@@@3@$0A@@std@@@std@@IAEAAPAU_Node@?$_Tree_nod@V?$_Tmap_traits@KPAVIData@@U?$less@K@std@@V?$allocator@U?$pair@$$CBKPAVIData@@@std@@@3@$0A@@std@@@2@XZ ; std::_Tree<std::_Tmap_traits<unsigned long,IData *,std::less<unsigned long>,std::allocator<std::pair<unsigned long const ,IData *> >,0> >::_Lmost
  00103	8b 55 10	 mov	 edx, DWORD PTR __Wherenode$[ebp]
  00106	3b 10		 cmp	 edx, DWORD PTR [eax]
  00108	75 0d		 jne	 SHORT $L189406

; 927  : 				_Lmost() = _Newnode;

  0010a	8b 4d f0	 mov	 ecx, DWORD PTR _this$[ebp]
  0010d	e8 00 00 00 00	 call	 ?_Lmost@?$_Tree@V?$_Tmap_traits@KPAVIData@@U?$less@K@std@@V?$allocator@U?$pair@$$CBKPAVIData@@@std@@@3@$0A@@std@@@std@@IAEAAPAU_Node@?$_Tree_nod@V?$_Tmap_traits@KPAVIData@@U?$less@K@std@@V?$allocator@U?$pair@$$CBKPAVIData@@@std@@@3@$0A@@std@@@2@XZ ; std::_Tree<std::_Tmap_traits<unsigned long,IData *,std::less<unsigned long>,std::allocator<std::pair<unsigned long const ,IData *> >,0> >::_Lmost
  00112	8b 4d ec	 mov	 ecx, DWORD PTR __Newnode$[ebp]
  00115	89 08		 mov	 DWORD PTR [eax], ecx
$L189406:

; 928  : 			}
; 929  : 		else

  00117	eb 2d		 jmp	 SHORT $L189404
$L189405:

; 930  : 			{	// add to right of _Wherenode
; 931  : 			_Right(_Wherenode) = _Newnode;

  00119	8b 55 10	 mov	 edx, DWORD PTR __Wherenode$[ebp]
  0011c	52		 push	 edx
  0011d	e8 00 00 00 00	 call	 ?_Right@?$_Tree@V?$_Tmap_traits@KPAVIData@@U?$less@K@std@@V?$allocator@U?$pair@$$CBKPAVIData@@@std@@@3@$0A@@std@@@std@@KAAAPAU_Node@?$_Tree_nod@V?$_Tmap_traits@KPAVIData@@U?$less@K@std@@V?$allocator@U?$pair@$$CBKPAVIData@@@std@@@3@$0A@@std@@@2@PAU342@@Z ; std::_Tree<std::_Tmap_traits<unsigned long,IData *,std::less<unsigned long>,std::allocator<std::pair<unsigned long const ,IData *> >,0> >::_Right
  00122	83 c4 04	 add	 esp, 4
  00125	8b 4d ec	 mov	 ecx, DWORD PTR __Newnode$[ebp]
  00128	89 08		 mov	 DWORD PTR [eax], ecx

; 932  : 			if (_Wherenode == _Rmost())

  0012a	8b 4d f0	 mov	 ecx, DWORD PTR _this$[ebp]
  0012d	e8 00 00 00 00	 call	 ?_Rmost@?$_Tree@V?$_Tmap_traits@KPAVIData@@U?$less@K@std@@V?$allocator@U?$pair@$$CBKPAVIData@@@std@@@3@$0A@@std@@@std@@IAEAAPAU_Node@?$_Tree_nod@V?$_Tmap_traits@KPAVIData@@U?$less@K@std@@V?$allocator@U?$pair@$$CBKPAVIData@@@std@@@3@$0A@@std@@@2@XZ ; std::_Tree<std::_Tmap_traits<unsigned long,IData *,std::less<unsigned long>,std::allocator<std::pair<unsigned long const ,IData *> >,0> >::_Rmost
  00132	8b 55 10	 mov	 edx, DWORD PTR __Wherenode$[ebp]
  00135	3b 10		 cmp	 edx, DWORD PTR [eax]
  00137	75 0d		 jne	 SHORT $L189404

; 933  : 				_Rmost() = _Newnode;

  00139	8b 4d f0	 mov	 ecx, DWORD PTR _this$[ebp]
  0013c	e8 00 00 00 00	 call	 ?_Rmost@?$_Tree@V?$_Tmap_traits@KPAVIData@@U?$less@K@std@@V?$allocator@U?$pair@$$CBKPAVIData@@@std@@@3@$0A@@std@@@std@@IAEAAPAU_Node@?$_Tree_nod@V?$_Tmap_traits@KPAVIData@@U?$less@K@std@@V?$allocator@U?$pair@$$CBKPAVIData@@@std@@@3@$0A@@std@@@2@XZ ; std::_Tree<std::_Tmap_traits<unsigned long,IData *,std::less<unsigned long>,std::allocator<std::pair<unsigned long const ,IData *> >,0> >::_Rmost
  00141	8b 4d ec	 mov	 ecx, DWORD PTR __Newnode$[ebp]
  00144	89 08		 mov	 DWORD PTR [eax], ecx
$L189404:

; 934  : 			}
; 935  : 
; 936  : 		for (_Nodeptr _Pnode = _Newnode; _Color(_Parent(_Pnode)) == _Red; )

  00146	8b 55 ec	 mov	 edx, DWORD PTR __Newnode$[ebp]
  00149	89 55 e8	 mov	 DWORD PTR __Pnode$189409[ebp], edx
$L189411:
  0014c	8b 45 e8	 mov	 eax, DWORD PTR __Pnode$189409[ebp]
  0014f	50		 push	 eax
  00150	e8 00 00 00 00	 call	 ?_Parent@?$_Tree@V?$_Tmap_traits@KPAVIData@@U?$less@K@std@@V?$allocator@U?$pair@$$CBKPAVIData@@@std@@@3@$0A@@std@@@std@@KAAAPAU_Node@?$_Tree_nod@V?$_Tmap_traits@KPAVIData@@U?$less@K@std@@V?$allocator@U?$pair@$$CBKPAVIData@@@std@@@3@$0A@@std@@@2@PAU342@@Z ; std::_Tree<std::_Tmap_traits<unsigned long,IData *,std::less<unsigned long>,std::allocator<std::pair<unsigned long const ,IData *> >,0> >::_Parent
  00155	83 c4 04	 add	 esp, 4
  00158	8b 08		 mov	 ecx, DWORD PTR [eax]
  0015a	51		 push	 ecx
  0015b	e8 00 00 00 00	 call	 ?_Color@?$_Tree@V?$_Tmap_traits@KPAVIData@@U?$less@K@std@@V?$allocator@U?$pair@$$CBKPAVIData@@@std@@@3@$0A@@std@@@std@@KAAADPAU_Node@?$_Tree_nod@V?$_Tmap_traits@KPAVIData@@U?$less@K@std@@V?$allocator@U?$pair@$$CBKPAVIData@@@std@@@3@$0A@@std@@@2@@Z ; std::_Tree<std::_Tmap_traits<unsigned long,IData *,std::less<unsigned long>,std::allocator<std::pair<unsigned long const ,IData *> >,0> >::_Color
  00160	83 c4 04	 add	 esp, 4
  00163	0f be 10	 movsx	 edx, BYTE PTR [eax]
  00166	85 d2		 test	 edx, edx
  00168	0f 85 ce 02 00
	00		 jne	 $L189412

; 937  : 			if (_Parent(_Pnode) == _Left(_Parent(_Parent(_Pnode))))

  0016e	8b 45 e8	 mov	 eax, DWORD PTR __Pnode$189409[ebp]
  00171	50		 push	 eax
  00172	e8 00 00 00 00	 call	 ?_Parent@?$_Tree@V?$_Tmap_traits@KPAVIData@@U?$less@K@std@@V?$allocator@U?$pair@$$CBKPAVIData@@@std@@@3@$0A@@std@@@std@@KAAAPAU_Node@?$_Tree_nod@V?$_Tmap_traits@KPAVIData@@U?$less@K@std@@V?$allocator@U?$pair@$$CBKPAVIData@@@std@@@3@$0A@@std@@@2@PAU342@@Z ; std::_Tree<std::_Tmap_traits<unsigned long,IData *,std::less<unsigned long>,std::allocator<std::pair<unsigned long const ,IData *> >,0> >::_Parent
  00177	83 c4 04	 add	 esp, 4
  0017a	8b f0		 mov	 esi, eax
  0017c	8b 4d e8	 mov	 ecx, DWORD PTR __Pnode$189409[ebp]
  0017f	51		 push	 ecx
  00180	e8 00 00 00 00	 call	 ?_Parent@?$_Tree@V?$_Tmap_traits@KPAVIData@@U?$less@K@std@@V?$allocator@U?$pair@$$CBKPAVIData@@@std@@@3@$0A@@std@@@std@@KAAAPAU_Node@?$_Tree_nod@V?$_Tmap_traits@KPAVIData@@U?$less@K@std@@V?$allocator@U?$pair@$$CBKPAVIData@@@std@@@3@$0A@@std@@@2@PAU342@@Z ; std::_Tree<std::_Tmap_traits<unsigned long,IData *,std::less<unsigned long>,std::allocator<std::pair<unsigned long const ,IData *> >,0> >::_Parent
  00185	83 c4 04	 add	 esp, 4
  00188	8b 10		 mov	 edx, DWORD PTR [eax]
  0018a	52		 push	 edx
  0018b	e8 00 00 00 00	 call	 ?_Parent@?$_Tree@V?$_Tmap_traits@KPAVIData@@U?$less@K@std@@V?$allocator@U?$pair@$$CBKPAVIData@@@std@@@3@$0A@@std@@@std@@KAAAPAU_Node@?$_Tree_nod@V?$_Tmap_traits@KPAVIData@@U?$less@K@std@@V?$allocator@U?$pair@$$CBKPAVIData@@@std@@@3@$0A@@std@@@2@PAU342@@Z ; std::_Tree<std::_Tmap_traits<unsigned long,IData *,std::less<unsigned long>,std::allocator<std::pair<unsigned long const ,IData *> >,0> >::_Parent
  00190	83 c4 04	 add	 esp, 4
  00193	8b 00		 mov	 eax, DWORD PTR [eax]
  00195	50		 push	 eax
  00196	e8 00 00 00 00	 call	 ?_Left@?$_Tree@V?$_Tmap_traits@KPAVIData@@U?$less@K@std@@V?$allocator@U?$pair@$$CBKPAVIData@@@std@@@3@$0A@@std@@@std@@KAAAPAU_Node@?$_Tree_nod@V?$_Tmap_traits@KPAVIData@@U?$less@K@std@@V?$allocator@U?$pair@$$CBKPAVIData@@@std@@@3@$0A@@std@@@2@PAU342@@Z ; std::_Tree<std::_Tmap_traits<unsigned long,IData *,std::less<unsigned long>,std::allocator<std::pair<unsigned long const ,IData *> >,0> >::_Left
  0019b	83 c4 04	 add	 esp, 4
  0019e	8b 0e		 mov	 ecx, DWORD PTR [esi]
  001a0	3b 08		 cmp	 ecx, DWORD PTR [eax]
  001a2	0f 85 4a 01 00
	00		 jne	 $L189413

; 938  : 				{	// fixup red-red in left subtree
; 939  : 				_Wherenode = _Right(_Parent(_Parent(_Pnode)));

  001a8	8b 55 e8	 mov	 edx, DWORD PTR __Pnode$189409[ebp]
  001ab	52		 push	 edx
  001ac	e8 00 00 00 00	 call	 ?_Parent@?$_Tree@V?$_Tmap_traits@KPAVIData@@U?$less@K@std@@V?$allocator@U?$pair@$$CBKPAVIData@@@std@@@3@$0A@@std@@@std@@KAAAPAU_Node@?$_Tree_nod@V?$_Tmap_traits@KPAVIData@@U?$less@K@std@@V?$allocator@U?$pair@$$CBKPAVIData@@@std@@@3@$0A@@std@@@2@PAU342@@Z ; std::_Tree<std::_Tmap_traits<unsigned long,IData *,std::less<unsigned long>,std::allocator<std::pair<unsigned long const ,IData *> >,0> >::_Parent
  001b1	83 c4 04	 add	 esp, 4
  001b4	8b 00		 mov	 eax, DWORD PTR [eax]
  001b6	50		 push	 eax
  001b7	e8 00 00 00 00	 call	 ?_Parent@?$_Tree@V?$_Tmap_traits@KPAVIData@@U?$less@K@std@@V?$allocator@U?$pair@$$CBKPAVIData@@@std@@@3@$0A@@std@@@std@@KAAAPAU_Node@?$_Tree_nod@V?$_Tmap_traits@KPAVIData@@U?$less@K@std@@V?$allocator@U?$pair@$$CBKPAVIData@@@std@@@3@$0A@@std@@@2@PAU342@@Z ; std::_Tree<std::_Tmap_traits<unsigned long,IData *,std::less<unsigned long>,std::allocator<std::pair<unsigned long const ,IData *> >,0> >::_Parent
  001bc	83 c4 04	 add	 esp, 4
  001bf	8b 08		 mov	 ecx, DWORD PTR [eax]
  001c1	51		 push	 ecx
  001c2	e8 00 00 00 00	 call	 ?_Right@?$_Tree@V?$_Tmap_traits@KPAVIData@@U?$less@K@std@@V?$allocator@U?$pair@$$CBKPAVIData@@@std@@@3@$0A@@std@@@std@@KAAAPAU_Node@?$_Tree_nod@V?$_Tmap_traits@KPAVIData@@U?$less@K@std@@V?$allocator@U?$pair@$$CBKPAVIData@@@std@@@3@$0A@@std@@@2@PAU342@@Z ; std::_Tree<std::_Tmap_traits<unsigned long,IData *,std::less<unsigned long>,std::allocator<std::pair<unsigned long const ,IData *> >,0> >::_Right
  001c7	83 c4 04	 add	 esp, 4
  001ca	8b 10		 mov	 edx, DWORD PTR [eax]
  001cc	89 55 10	 mov	 DWORD PTR __Wherenode$[ebp], edx

; 940  : 				if (_Color(_Wherenode) == _Red)

  001cf	8b 45 10	 mov	 eax, DWORD PTR __Wherenode$[ebp]
  001d2	50		 push	 eax
  001d3	e8 00 00 00 00	 call	 ?_Color@?$_Tree@V?$_Tmap_traits@KPAVIData@@U?$less@K@std@@V?$allocator@U?$pair@$$CBKPAVIData@@@std@@@3@$0A@@std@@@std@@KAAADPAU_Node@?$_Tree_nod@V?$_Tmap_traits@KPAVIData@@U?$less@K@std@@V?$allocator@U?$pair@$$CBKPAVIData@@@std@@@3@$0A@@std@@@2@@Z ; std::_Tree<std::_Tmap_traits<unsigned long,IData *,std::less<unsigned long>,std::allocator<std::pair<unsigned long const ,IData *> >,0> >::_Color
  001d8	83 c4 04	 add	 esp, 4
  001db	0f be 08	 movsx	 ecx, BYTE PTR [eax]
  001de	85 c9		 test	 ecx, ecx
  001e0	75 6f		 jne	 SHORT $L189414

; 941  : 					{	// parent has two red children, blacken both
; 942  : 					_Color(_Parent(_Pnode)) = _Black;

  001e2	8b 55 e8	 mov	 edx, DWORD PTR __Pnode$189409[ebp]
  001e5	52		 push	 edx
  001e6	e8 00 00 00 00	 call	 ?_Parent@?$_Tree@V?$_Tmap_traits@KPAVIData@@U?$less@K@std@@V?$allocator@U?$pair@$$CBKPAVIData@@@std@@@3@$0A@@std@@@std@@KAAAPAU_Node@?$_Tree_nod@V?$_Tmap_traits@KPAVIData@@U?$less@K@std@@V?$allocator@U?$pair@$$CBKPAVIData@@@std@@@3@$0A@@std@@@2@PAU342@@Z ; std::_Tree<std::_Tmap_traits<unsigned long,IData *,std::less<unsigned long>,std::allocator<std::pair<unsigned long const ,IData *> >,0> >::_Parent
  001eb	83 c4 04	 add	 esp, 4
  001ee	8b 00		 mov	 eax, DWORD PTR [eax]
  001f0	50		 push	 eax
  001f1	e8 00 00 00 00	 call	 ?_Color@?$_Tree@V?$_Tmap_traits@KPAVIData@@U?$less@K@std@@V?$allocator@U?$pair@$$CBKPAVIData@@@std@@@3@$0A@@std@@@std@@KAAADPAU_Node@?$_Tree_nod@V?$_Tmap_traits@KPAVIData@@U?$less@K@std@@V?$allocator@U?$pair@$$CBKPAVIData@@@std@@@3@$0A@@std@@@2@@Z ; std::_Tree<std::_Tmap_traits<unsigned long,IData *,std::less<unsigned long>,std::allocator<std::pair<unsigned long const ,IData *> >,0> >::_Color
  001f6	83 c4 04	 add	 esp, 4
  001f9	c6 00 01	 mov	 BYTE PTR [eax], 1

; 943  : 					_Color(_Wherenode) = _Black;

  001fc	8b 4d 10	 mov	 ecx, DWORD PTR __Wherenode$[ebp]
  001ff	51		 push	 ecx
  00200	e8 00 00 00 00	 call	 ?_Color@?$_Tree@V?$_Tmap_traits@KPAVIData@@U?$less@K@std@@V?$allocator@U?$pair@$$CBKPAVIData@@@std@@@3@$0A@@std@@@std@@KAAADPAU_Node@?$_Tree_nod@V?$_Tmap_traits@KPAVIData@@U?$less@K@std@@V?$allocator@U?$pair@$$CBKPAVIData@@@std@@@3@$0A@@std@@@2@@Z ; std::_Tree<std::_Tmap_traits<unsigned long,IData *,std::less<unsigned long>,std::allocator<std::pair<unsigned long const ,IData *> >,0> >::_Color
  00205	83 c4 04	 add	 esp, 4
  00208	c6 00 01	 mov	 BYTE PTR [eax], 1

; 944  : 					_Color(_Parent(_Parent(_Pnode))) = _Red;

  0020b	8b 55 e8	 mov	 edx, DWORD PTR __Pnode$189409[ebp]
  0020e	52		 push	 edx
  0020f	e8 00 00 00 00	 call	 ?_Parent@?$_Tree@V?$_Tmap_traits@KPAVIData@@U?$less@K@std@@V?$allocator@U?$pair@$$CBKPAVIData@@@std@@@3@$0A@@std@@@std@@KAAAPAU_Node@?$_Tree_nod@V?$_Tmap_traits@KPAVIData@@U?$less@K@std@@V?$allocator@U?$pair@$$CBKPAVIData@@@std@@@3@$0A@@std@@@2@PAU342@@Z ; std::_Tree<std::_Tmap_traits<unsigned long,IData *,std::less<unsigned long>,std::allocator<std::pair<unsigned long const ,IData *> >,0> >::_Parent
  00214	83 c4 04	 add	 esp, 4
  00217	8b 00		 mov	 eax, DWORD PTR [eax]
  00219	50		 push	 eax
  0021a	e8 00 00 00 00	 call	 ?_Parent@?$_Tree@V?$_Tmap_traits@KPAVIData@@U?$less@K@std@@V?$allocator@U?$pair@$$CBKPAVIData@@@std@@@3@$0A@@std@@@std@@KAAAPAU_Node@?$_Tree_nod@V?$_Tmap_traits@KPAVIData@@U?$less@K@std@@V?$allocator@U?$pair@$$CBKPAVIData@@@std@@@3@$0A@@std@@@2@PAU342@@Z ; std::_Tree<std::_Tmap_traits<unsigned long,IData *,std::less<unsigned long>,std::allocator<std::pair<unsigned long const ,IData *> >,0> >::_Parent
  0021f	83 c4 04	 add	 esp, 4
  00222	8b 08		 mov	 ecx, DWORD PTR [eax]
  00224	51		 push	 ecx
  00225	e8 00 00 00 00	 call	 ?_Color@?$_Tree@V?$_Tmap_traits@KPAVIData@@U?$less@K@std@@V?$allocator@U?$pair@$$CBKPAVIData@@@std@@@3@$0A@@std@@@std@@KAAADPAU_Node@?$_Tree_nod@V?$_Tmap_traits@KPAVIData@@U?$less@K@std@@V?$allocator@U?$pair@$$CBKPAVIData@@@std@@@3@$0A@@std@@@2@@Z ; std::_Tree<std::_Tmap_traits<unsigned long,IData *,std::less<unsigned long>,std::allocator<std::pair<unsigned long const ,IData *> >,0> >::_Color
  0022a	83 c4 04	 add	 esp, 4
  0022d	c6 00 00	 mov	 BYTE PTR [eax], 0

; 945  : 					_Pnode = _Parent(_Parent(_Pnode));

  00230	8b 55 e8	 mov	 edx, DWORD PTR __Pnode$189409[ebp]
  00233	52		 push	 edx
  00234	e8 00 00 00 00	 call	 ?_Parent@?$_Tree@V?$_Tmap_traits@KPAVIData@@U?$less@K@std@@V?$allocator@U?$pair@$$CBKPAVIData@@@std@@@3@$0A@@std@@@std@@KAAAPAU_Node@?$_Tree_nod@V?$_Tmap_traits@KPAVIData@@U?$less@K@std@@V?$allocator@U?$pair@$$CBKPAVIData@@@std@@@3@$0A@@std@@@2@PAU342@@Z ; std::_Tree<std::_Tmap_traits<unsigned long,IData *,std::less<unsigned long>,std::allocator<std::pair<unsigned long const ,IData *> >,0> >::_Parent
  00239	83 c4 04	 add	 esp, 4
  0023c	8b 00		 mov	 eax, DWORD PTR [eax]
  0023e	50		 push	 eax
  0023f	e8 00 00 00 00	 call	 ?_Parent@?$_Tree@V?$_Tmap_traits@KPAVIData@@U?$less@K@std@@V?$allocator@U?$pair@$$CBKPAVIData@@@std@@@3@$0A@@std@@@std@@KAAAPAU_Node@?$_Tree_nod@V?$_Tmap_traits@KPAVIData@@U?$less@K@std@@V?$allocator@U?$pair@$$CBKPAVIData@@@std@@@3@$0A@@std@@@2@PAU342@@Z ; std::_Tree<std::_Tmap_traits<unsigned long,IData *,std::less<unsigned long>,std::allocator<std::pair<unsigned long const ,IData *> >,0> >::_Parent
  00244	83 c4 04	 add	 esp, 4
  00247	8b 08		 mov	 ecx, DWORD PTR [eax]
  00249	89 4d e8	 mov	 DWORD PTR __Pnode$189409[ebp], ecx

; 946  : 					}
; 947  : 				else

  0024c	e9 9c 00 00 00	 jmp	 $L189415
$L189414:

; 948  : 					{	// parent has red and black children
; 949  : 					if (_Pnode == _Right(_Parent(_Pnode)))

  00251	8b 55 e8	 mov	 edx, DWORD PTR __Pnode$189409[ebp]
  00254	52		 push	 edx
  00255	e8 00 00 00 00	 call	 ?_Parent@?$_Tree@V?$_Tmap_traits@KPAVIData@@U?$less@K@std@@V?$allocator@U?$pair@$$CBKPAVIData@@@std@@@3@$0A@@std@@@std@@KAAAPAU_Node@?$_Tree_nod@V?$_Tmap_traits@KPAVIData@@U?$less@K@std@@V?$allocator@U?$pair@$$CBKPAVIData@@@std@@@3@$0A@@std@@@2@PAU342@@Z ; std::_Tree<std::_Tmap_traits<unsigned long,IData *,std::less<unsigned long>,std::allocator<std::pair<unsigned long const ,IData *> >,0> >::_Parent
  0025a	83 c4 04	 add	 esp, 4
  0025d	8b 00		 mov	 eax, DWORD PTR [eax]
  0025f	50		 push	 eax
  00260	e8 00 00 00 00	 call	 ?_Right@?$_Tree@V?$_Tmap_traits@KPAVIData@@U?$less@K@std@@V?$allocator@U?$pair@$$CBKPAVIData@@@std@@@3@$0A@@std@@@std@@KAAAPAU_Node@?$_Tree_nod@V?$_Tmap_traits@KPAVIData@@U?$less@K@std@@V?$allocator@U?$pair@$$CBKPAVIData@@@std@@@3@$0A@@std@@@2@PAU342@@Z ; std::_Tree<std::_Tmap_traits<unsigned long,IData *,std::less<unsigned long>,std::allocator<std::pair<unsigned long const ,IData *> >,0> >::_Right
  00265	83 c4 04	 add	 esp, 4
  00268	8b 4d e8	 mov	 ecx, DWORD PTR __Pnode$189409[ebp]
  0026b	3b 08		 cmp	 ecx, DWORD PTR [eax]
  0026d	75 1d		 jne	 SHORT $L189416

; 950  : 						{	// rotate right child to left
; 951  : 						_Pnode = _Parent(_Pnode);

  0026f	8b 55 e8	 mov	 edx, DWORD PTR __Pnode$189409[ebp]
  00272	52		 push	 edx
  00273	e8 00 00 00 00	 call	 ?_Parent@?$_Tree@V?$_Tmap_traits@KPAVIData@@U?$less@K@std@@V?$allocator@U?$pair@$$CBKPAVIData@@@std@@@3@$0A@@std@@@std@@KAAAPAU_Node@?$_Tree_nod@V?$_Tmap_traits@KPAVIData@@U?$less@K@std@@V?$allocator@U?$pair@$$CBKPAVIData@@@std@@@3@$0A@@std@@@2@PAU342@@Z ; std::_Tree<std::_Tmap_traits<unsigned long,IData *,std::less<unsigned long>,std::allocator<std::pair<unsigned long const ,IData *> >,0> >::_Parent
  00278	83 c4 04	 add	 esp, 4
  0027b	8b 00		 mov	 eax, DWORD PTR [eax]
  0027d	89 45 e8	 mov	 DWORD PTR __Pnode$189409[ebp], eax

; 952  : 						_Lrotate(_Pnode);

  00280	8b 4d e8	 mov	 ecx, DWORD PTR __Pnode$189409[ebp]
  00283	51		 push	 ecx
  00284	8b 4d f0	 mov	 ecx, DWORD PTR _this$[ebp]
  00287	e8 00 00 00 00	 call	 ?_Lrotate@?$_Tree@V?$_Tmap_traits@KPAVIData@@U?$less@K@std@@V?$allocator@U?$pair@$$CBKPAVIData@@@std@@@3@$0A@@std@@@std@@IAEXPAU_Node@?$_Tree_nod@V?$_Tmap_traits@KPAVIData@@U?$less@K@std@@V?$allocator@U?$pair@$$CBKPAVIData@@@std@@@3@$0A@@std@@@2@@Z ; std::_Tree<std::_Tmap_traits<unsigned long,IData *,std::less<unsigned long>,std::allocator<std::pair<unsigned long const ,IData *> >,0> >::_Lrotate
$L189416:

; 953  : 						}
; 954  : 					_Color(_Parent(_Pnode)) = _Black;	// propagate red up

  0028c	8b 55 e8	 mov	 edx, DWORD PTR __Pnode$189409[ebp]
  0028f	52		 push	 edx
  00290	e8 00 00 00 00	 call	 ?_Parent@?$_Tree@V?$_Tmap_traits@KPAVIData@@U?$less@K@std@@V?$allocator@U?$pair@$$CBKPAVIData@@@std@@@3@$0A@@std@@@std@@KAAAPAU_Node@?$_Tree_nod@V?$_Tmap_traits@KPAVIData@@U?$less@K@std@@V?$allocator@U?$pair@$$CBKPAVIData@@@std@@@3@$0A@@std@@@2@PAU342@@Z ; std::_Tree<std::_Tmap_traits<unsigned long,IData *,std::less<unsigned long>,std::allocator<std::pair<unsigned long const ,IData *> >,0> >::_Parent
  00295	83 c4 04	 add	 esp, 4
  00298	8b 00		 mov	 eax, DWORD PTR [eax]
  0029a	50		 push	 eax
  0029b	e8 00 00 00 00	 call	 ?_Color@?$_Tree@V?$_Tmap_traits@KPAVIData@@U?$less@K@std@@V?$allocator@U?$pair@$$CBKPAVIData@@@std@@@3@$0A@@std@@@std@@KAAADPAU_Node@?$_Tree_nod@V?$_Tmap_traits@KPAVIData@@U?$less@K@std@@V?$allocator@U?$pair@$$CBKPAVIData@@@std@@@3@$0A@@std@@@2@@Z ; std::_Tree<std::_Tmap_traits<unsigned long,IData *,std::less<unsigned long>,std::allocator<std::pair<unsigned long const ,IData *> >,0> >::_Color
  002a0	83 c4 04	 add	 esp, 4
  002a3	c6 00 01	 mov	 BYTE PTR [eax], 1

; 955  : 					_Color(_Parent(_Parent(_Pnode))) = _Red;

  002a6	8b 4d e8	 mov	 ecx, DWORD PTR __Pnode$189409[ebp]
  002a9	51		 push	 ecx
  002aa	e8 00 00 00 00	 call	 ?_Parent@?$_Tree@V?$_Tmap_traits@KPAVIData@@U?$less@K@std@@V?$allocator@U?$pair@$$CBKPAVIData@@@std@@@3@$0A@@std@@@std@@KAAAPAU_Node@?$_Tree_nod@V?$_Tmap_traits@KPAVIData@@U?$less@K@std@@V?$allocator@U?$pair@$$CBKPAVIData@@@std@@@3@$0A@@std@@@2@PAU342@@Z ; std::_Tree<std::_Tmap_traits<unsigned long,IData *,std::less<unsigned long>,std::allocator<std::pair<unsigned long const ,IData *> >,0> >::_Parent
  002af	83 c4 04	 add	 esp, 4
  002b2	8b 10		 mov	 edx, DWORD PTR [eax]
  002b4	52		 push	 edx
  002b5	e8 00 00 00 00	 call	 ?_Parent@?$_Tree@V?$_Tmap_traits@KPAVIData@@U?$less@K@std@@V?$allocator@U?$pair@$$CBKPAVIData@@@std@@@3@$0A@@std@@@std@@KAAAPAU_Node@?$_Tree_nod@V?$_Tmap_traits@KPAVIData@@U?$less@K@std@@V?$allocator@U?$pair@$$CBKPAVIData@@@std@@@3@$0A@@std@@@2@PAU342@@Z ; std::_Tree<std::_Tmap_traits<unsigned long,IData *,std::less<unsigned long>,std::allocator<std::pair<unsigned long const ,IData *> >,0> >::_Parent
  002ba	83 c4 04	 add	 esp, 4
  002bd	8b 00		 mov	 eax, DWORD PTR [eax]
  002bf	50		 push	 eax
  002c0	e8 00 00 00 00	 call	 ?_Color@?$_Tree@V?$_Tmap_traits@KPAVIData@@U?$less@K@std@@V?$allocator@U?$pair@$$CBKPAVIData@@@std@@@3@$0A@@std@@@std@@KAAADPAU_Node@?$_Tree_nod@V?$_Tmap_traits@KPAVIData@@U?$less@K@std@@V?$allocator@U?$pair@$$CBKPAVIData@@@std@@@3@$0A@@std@@@2@@Z ; std::_Tree<std::_Tmap_traits<unsigned long,IData *,std::less<unsigned long>,std::allocator<std::pair<unsigned long const ,IData *> >,0> >::_Color
  002c5	83 c4 04	 add	 esp, 4
  002c8	c6 00 00	 mov	 BYTE PTR [eax], 0

; 956  : 					_Rrotate(_Parent(_Parent(_Pnode)));

  002cb	8b 4d e8	 mov	 ecx, DWORD PTR __Pnode$189409[ebp]
  002ce	51		 push	 ecx
  002cf	e8 00 00 00 00	 call	 ?_Parent@?$_Tree@V?$_Tmap_traits@KPAVIData@@U?$less@K@std@@V?$allocator@U?$pair@$$CBKPAVIData@@@std@@@3@$0A@@std@@@std@@KAAAPAU_Node@?$_Tree_nod@V?$_Tmap_traits@KPAVIData@@U?$less@K@std@@V?$allocator@U?$pair@$$CBKPAVIData@@@std@@@3@$0A@@std@@@2@PAU342@@Z ; std::_Tree<std::_Tmap_traits<unsigned long,IData *,std::less<unsigned long>,std::allocator<std::pair<unsigned long const ,IData *> >,0> >::_Parent
  002d4	83 c4 04	 add	 esp, 4
  002d7	8b 10		 mov	 edx, DWORD PTR [eax]
  002d9	52		 push	 edx
  002da	e8 00 00 00 00	 call	 ?_Parent@?$_Tree@V?$_Tmap_traits@KPAVIData@@U?$less@K@std@@V?$allocator@U?$pair@$$CBKPAVIData@@@std@@@3@$0A@@std@@@std@@KAAAPAU_Node@?$_Tree_nod@V?$_Tmap_traits@KPAVIData@@U?$less@K@std@@V?$allocator@U?$pair@$$CBKPAVIData@@@std@@@3@$0A@@std@@@2@PAU342@@Z ; std::_Tree<std::_Tmap_traits<unsigned long,IData *,std::less<unsigned long>,std::allocator<std::pair<unsigned long const ,IData *> >,0> >::_Parent
  002df	83 c4 04	 add	 esp, 4
  002e2	8b 00		 mov	 eax, DWORD PTR [eax]
  002e4	50		 push	 eax
  002e5	8b 4d f0	 mov	 ecx, DWORD PTR _this$[ebp]
  002e8	e8 00 00 00 00	 call	 ?_Rrotate@?$_Tree@V?$_Tmap_traits@KPAVIData@@U?$less@K@std@@V?$allocator@U?$pair@$$CBKPAVIData@@@std@@@3@$0A@@std@@@std@@IAEXPAU_Node@?$_Tree_nod@V?$_Tmap_traits@KPAVIData@@U?$less@K@std@@V?$allocator@U?$pair@$$CBKPAVIData@@@std@@@3@$0A@@std@@@2@@Z ; std::_Tree<std::_Tmap_traits<unsigned long,IData *,std::less<unsigned long>,std::allocator<std::pair<unsigned long const ,IData *> >,0> >::_Rrotate
$L189415:

; 957  : 					}
; 958  : 				}
; 959  : 			else

  002ed	e9 45 01 00 00	 jmp	 $L189417
$L189413:

; 960  : 				{	// fixup red-red in right subtree
; 961  : 				_Wherenode = _Left(_Parent(_Parent(_Pnode)));

  002f2	8b 4d e8	 mov	 ecx, DWORD PTR __Pnode$189409[ebp]
  002f5	51		 push	 ecx
  002f6	e8 00 00 00 00	 call	 ?_Parent@?$_Tree@V?$_Tmap_traits@KPAVIData@@U?$less@K@std@@V?$allocator@U?$pair@$$CBKPAVIData@@@std@@@3@$0A@@std@@@std@@KAAAPAU_Node@?$_Tree_nod@V?$_Tmap_traits@KPAVIData@@U?$less@K@std@@V?$allocator@U?$pair@$$CBKPAVIData@@@std@@@3@$0A@@std@@@2@PAU342@@Z ; std::_Tree<std::_Tmap_traits<unsigned long,IData *,std::less<unsigned long>,std::allocator<std::pair<unsigned long const ,IData *> >,0> >::_Parent
  002fb	83 c4 04	 add	 esp, 4
  002fe	8b 10		 mov	 edx, DWORD PTR [eax]
  00300	52		 push	 edx
  00301	e8 00 00 00 00	 call	 ?_Parent@?$_Tree@V?$_Tmap_traits@KPAVIData@@U?$less@K@std@@V?$allocator@U?$pair@$$CBKPAVIData@@@std@@@3@$0A@@std@@@std@@KAAAPAU_Node@?$_Tree_nod@V?$_Tmap_traits@KPAVIData@@U?$less@K@std@@V?$allocator@U?$pair@$$CBKPAVIData@@@std@@@3@$0A@@std@@@2@PAU342@@Z ; std::_Tree<std::_Tmap_traits<unsigned long,IData *,std::less<unsigned long>,std::allocator<std::pair<unsigned long const ,IData *> >,0> >::_Parent
  00306	83 c4 04	 add	 esp, 4
  00309	8b 00		 mov	 eax, DWORD PTR [eax]
  0030b	50		 push	 eax
  0030c	e8 00 00 00 00	 call	 ?_Left@?$_Tree@V?$_Tmap_traits@KPAVIData@@U?$less@K@std@@V?$allocator@U?$pair@$$CBKPAVIData@@@std@@@3@$0A@@std@@@std@@KAAAPAU_Node@?$_Tree_nod@V?$_Tmap_traits@KPAVIData@@U?$less@K@std@@V?$allocator@U?$pair@$$CBKPAVIData@@@std@@@3@$0A@@std@@@2@PAU342@@Z ; std::_Tree<std::_Tmap_traits<unsigned long,IData *,std::less<unsigned long>,std::allocator<std::pair<unsigned long const ,IData *> >,0> >::_Left
  00311	83 c4 04	 add	 esp, 4
  00314	8b 08		 mov	 ecx, DWORD PTR [eax]
  00316	89 4d 10	 mov	 DWORD PTR __Wherenode$[ebp], ecx

; 962  : 				if (_Color(_Wherenode) == _Red)

  00319	8b 55 10	 mov	 edx, DWORD PTR __Wherenode$[ebp]
  0031c	52		 push	 edx
  0031d	e8 00 00 00 00	 call	 ?_Color@?$_Tree@V?$_Tmap_traits@KPAVIData@@U?$less@K@std@@V?$allocator@U?$pair@$$CBKPAVIData@@@std@@@3@$0A@@std@@@std@@KAAADPAU_Node@?$_Tree_nod@V?$_Tmap_traits@KPAVIData@@U?$less@K@std@@V?$allocator@U?$pair@$$CBKPAVIData@@@std@@@3@$0A@@std@@@2@@Z ; std::_Tree<std::_Tmap_traits<unsigned long,IData *,std::less<unsigned long>,std::allocator<std::pair<unsigned long const ,IData *> >,0> >::_Color
  00322	83 c4 04	 add	 esp, 4
  00325	0f be 00	 movsx	 eax, BYTE PTR [eax]
  00328	85 c0		 test	 eax, eax
  0032a	75 6f		 jne	 SHORT $L189418

; 963  : 					{	// parent has two red children, blacken both
; 964  : 					_Color(_Parent(_Pnode)) = _Black;

  0032c	8b 4d e8	 mov	 ecx, DWORD PTR __Pnode$189409[ebp]
  0032f	51		 push	 ecx
  00330	e8 00 00 00 00	 call	 ?_Parent@?$_Tree@V?$_Tmap_traits@KPAVIData@@U?$less@K@std@@V?$allocator@U?$pair@$$CBKPAVIData@@@std@@@3@$0A@@std@@@std@@KAAAPAU_Node@?$_Tree_nod@V?$_Tmap_traits@KPAVIData@@U?$less@K@std@@V?$allocator@U?$pair@$$CBKPAVIData@@@std@@@3@$0A@@std@@@2@PAU342@@Z ; std::_Tree<std::_Tmap_traits<unsigned long,IData *,std::less<unsigned long>,std::allocator<std::pair<unsigned long const ,IData *> >,0> >::_Parent
  00335	83 c4 04	 add	 esp, 4
  00338	8b 10		 mov	 edx, DWORD PTR [eax]
  0033a	52		 push	 edx
  0033b	e8 00 00 00 00	 call	 ?_Color@?$_Tree@V?$_Tmap_traits@KPAVIData@@U?$less@K@std@@V?$allocator@U?$pair@$$CBKPAVIData@@@std@@@3@$0A@@std@@@std@@KAAADPAU_Node@?$_Tree_nod@V?$_Tmap_traits@KPAVIData@@U?$less@K@std@@V?$allocator@U?$pair@$$CBKPAVIData@@@std@@@3@$0A@@std@@@2@@Z ; std::_Tree<std::_Tmap_traits<unsigned long,IData *,std::less<unsigned long>,std::allocator<std::pair<unsigned long const ,IData *> >,0> >::_Color
  00340	83 c4 04	 add	 esp, 4
  00343	c6 00 01	 mov	 BYTE PTR [eax], 1

; 965  : 					_Color(_Wherenode) = _Black;

  00346	8b 45 10	 mov	 eax, DWORD PTR __Wherenode$[ebp]
  00349	50		 push	 eax
  0034a	e8 00 00 00 00	 call	 ?_Color@?$_Tree@V?$_Tmap_traits@KPAVIData@@U?$less@K@std@@V?$allocator@U?$pair@$$CBKPAVIData@@@std@@@3@$0A@@std@@@std@@KAAADPAU_Node@?$_Tree_nod@V?$_Tmap_traits@KPAVIData@@U?$less@K@std@@V?$allocator@U?$pair@$$CBKPAVIData@@@std@@@3@$0A@@std@@@2@@Z ; std::_Tree<std::_Tmap_traits<unsigned long,IData *,std::less<unsigned long>,std::allocator<std::pair<unsigned long const ,IData *> >,0> >::_Color
  0034f	83 c4 04	 add	 esp, 4
  00352	c6 00 01	 mov	 BYTE PTR [eax], 1

; 966  : 					_Color(_Parent(_Parent(_Pnode))) = _Red;

  00355	8b 4d e8	 mov	 ecx, DWORD PTR __Pnode$189409[ebp]
  00358	51		 push	 ecx
  00359	e8 00 00 00 00	 call	 ?_Parent@?$_Tree@V?$_Tmap_traits@KPAVIData@@U?$less@K@std@@V?$allocator@U?$pair@$$CBKPAVIData@@@std@@@3@$0A@@std@@@std@@KAAAPAU_Node@?$_Tree_nod@V?$_Tmap_traits@KPAVIData@@U?$less@K@std@@V?$allocator@U?$pair@$$CBKPAVIData@@@std@@@3@$0A@@std@@@2@PAU342@@Z ; std::_Tree<std::_Tmap_traits<unsigned long,IData *,std::less<unsigned long>,std::allocator<std::pair<unsigned long const ,IData *> >,0> >::_Parent
  0035e	83 c4 04	 add	 esp, 4
  00361	8b 10		 mov	 edx, DWORD PTR [eax]
  00363	52		 push	 edx
  00364	e8 00 00 00 00	 call	 ?_Parent@?$_Tree@V?$_Tmap_traits@KPAVIData@@U?$less@K@std@@V?$allocator@U?$pair@$$CBKPAVIData@@@std@@@3@$0A@@std@@@std@@KAAAPAU_Node@?$_Tree_nod@V?$_Tmap_traits@KPAVIData@@U?$less@K@std@@V?$allocator@U?$pair@$$CBKPAVIData@@@std@@@3@$0A@@std@@@2@PAU342@@Z ; std::_Tree<std::_Tmap_traits<unsigned long,IData *,std::less<unsigned long>,std::allocator<std::pair<unsigned long const ,IData *> >,0> >::_Parent
  00369	83 c4 04	 add	 esp, 4
  0036c	8b 00		 mov	 eax, DWORD PTR [eax]
  0036e	50		 push	 eax
  0036f	e8 00 00 00 00	 call	 ?_Color@?$_Tree@V?$_Tmap_traits@KPAVIData@@U?$less@K@std@@V?$allocator@U?$pair@$$CBKPAVIData@@@std@@@3@$0A@@std@@@std@@KAAADPAU_Node@?$_Tree_nod@V?$_Tmap_traits@KPAVIData@@U?$less@K@std@@V?$allocator@U?$pair@$$CBKPAVIData@@@std@@@3@$0A@@std@@@2@@Z ; std::_Tree<std::_Tmap_traits<unsigned long,IData *,std::less<unsigned long>,std::allocator<std::pair<unsigned long const ,IData *> >,0> >::_Color
  00374	83 c4 04	 add	 esp, 4
  00377	c6 00 00	 mov	 BYTE PTR [eax], 0

; 967  : 					_Pnode = _Parent(_Parent(_Pnode));

  0037a	8b 4d e8	 mov	 ecx, DWORD PTR __Pnode$189409[ebp]
  0037d	51		 push	 ecx
  0037e	e8 00 00 00 00	 call	 ?_Parent@?$_Tree@V?$_Tmap_traits@KPAVIData@@U?$less@K@std@@V?$allocator@U?$pair@$$CBKPAVIData@@@std@@@3@$0A@@std@@@std@@KAAAPAU_Node@?$_Tree_nod@V?$_Tmap_traits@KPAVIData@@U?$less@K@std@@V?$allocator@U?$pair@$$CBKPAVIData@@@std@@@3@$0A@@std@@@2@PAU342@@Z ; std::_Tree<std::_Tmap_traits<unsigned long,IData *,std::less<unsigned long>,std::allocator<std::pair<unsigned long const ,IData *> >,0> >::_Parent
  00383	83 c4 04	 add	 esp, 4
  00386	8b 10		 mov	 edx, DWORD PTR [eax]
  00388	52		 push	 edx
  00389	e8 00 00 00 00	 call	 ?_Parent@?$_Tree@V?$_Tmap_traits@KPAVIData@@U?$less@K@std@@V?$allocator@U?$pair@$$CBKPAVIData@@@std@@@3@$0A@@std@@@std@@KAAAPAU_Node@?$_Tree_nod@V?$_Tmap_traits@KPAVIData@@U?$less@K@std@@V?$allocator@U?$pair@$$CBKPAVIData@@@std@@@3@$0A@@std@@@2@PAU342@@Z ; std::_Tree<std::_Tmap_traits<unsigned long,IData *,std::less<unsigned long>,std::allocator<std::pair<unsigned long const ,IData *> >,0> >::_Parent
  0038e	83 c4 04	 add	 esp, 4
  00391	8b 00		 mov	 eax, DWORD PTR [eax]
  00393	89 45 e8	 mov	 DWORD PTR __Pnode$189409[ebp], eax

; 968  : 					}
; 969  : 				else

  00396	e9 9c 00 00 00	 jmp	 $L189417
$L189418:

; 970  : 					{	// parent has red and black children
; 971  : 					if (_Pnode == _Left(_Parent(_Pnode)))

  0039b	8b 4d e8	 mov	 ecx, DWORD PTR __Pnode$189409[ebp]
  0039e	51		 push	 ecx
  0039f	e8 00 00 00 00	 call	 ?_Parent@?$_Tree@V?$_Tmap_traits@KPAVIData@@U?$less@K@std@@V?$allocator@U?$pair@$$CBKPAVIData@@@std@@@3@$0A@@std@@@std@@KAAAPAU_Node@?$_Tree_nod@V?$_Tmap_traits@KPAVIData@@U?$less@K@std@@V?$allocator@U?$pair@$$CBKPAVIData@@@std@@@3@$0A@@std@@@2@PAU342@@Z ; std::_Tree<std::_Tmap_traits<unsigned long,IData *,std::less<unsigned long>,std::allocator<std::pair<unsigned long const ,IData *> >,0> >::_Parent
  003a4	83 c4 04	 add	 esp, 4
  003a7	8b 10		 mov	 edx, DWORD PTR [eax]
  003a9	52		 push	 edx
  003aa	e8 00 00 00 00	 call	 ?_Left@?$_Tree@V?$_Tmap_traits@KPAVIData@@U?$less@K@std@@V?$allocator@U?$pair@$$CBKPAVIData@@@std@@@3@$0A@@std@@@std@@KAAAPAU_Node@?$_Tree_nod@V?$_Tmap_traits@KPAVIData@@U?$less@K@std@@V?$allocator@U?$pair@$$CBKPAVIData@@@std@@@3@$0A@@std@@@2@PAU342@@Z ; std::_Tree<std::_Tmap_traits<unsigned long,IData *,std::less<unsigned long>,std::allocator<std::pair<unsigned long const ,IData *> >,0> >::_Left
  003af	83 c4 04	 add	 esp, 4
  003b2	8b 4d e8	 mov	 ecx, DWORD PTR __Pnode$189409[ebp]
  003b5	3b 08		 cmp	 ecx, DWORD PTR [eax]
  003b7	75 1d		 jne	 SHORT $L189420

; 972  : 						{	// rotate left child to right
; 973  : 						_Pnode = _Parent(_Pnode);

  003b9	8b 55 e8	 mov	 edx, DWORD PTR __Pnode$189409[ebp]
  003bc	52		 push	 edx
  003bd	e8 00 00 00 00	 call	 ?_Parent@?$_Tree@V?$_Tmap_traits@KPAVIData@@U?$less@K@std@@V?$allocator@U?$pair@$$CBKPAVIData@@@std@@@3@$0A@@std@@@std@@KAAAPAU_Node@?$_Tree_nod@V?$_Tmap_traits@KPAVIData@@U?$less@K@std@@V?$allocator@U?$pair@$$CBKPAVIData@@@std@@@3@$0A@@std@@@2@PAU342@@Z ; std::_Tree<std::_Tmap_traits<unsigned long,IData *,std::less<unsigned long>,std::allocator<std::pair<unsigned long const ,IData *> >,0> >::_Parent
  003c2	83 c4 04	 add	 esp, 4
  003c5	8b 00		 mov	 eax, DWORD PTR [eax]
  003c7	89 45 e8	 mov	 DWORD PTR __Pnode$189409[ebp], eax

; 974  : 						_Rrotate(_Pnode);

  003ca	8b 4d e8	 mov	 ecx, DWORD PTR __Pnode$189409[ebp]
  003cd	51		 push	 ecx
  003ce	8b 4d f0	 mov	 ecx, DWORD PTR _this$[ebp]
  003d1	e8 00 00 00 00	 call	 ?_Rrotate@?$_Tree@V?$_Tmap_traits@KPAVIData@@U?$less@K@std@@V?$allocator@U?$pair@$$CBKPAVIData@@@std@@@3@$0A@@std@@@std@@IAEXPAU_Node@?$_Tree_nod@V?$_Tmap_traits@KPAVIData@@U?$less@K@std@@V?$allocator@U?$pair@$$CBKPAVIData@@@std@@@3@$0A@@std@@@2@@Z ; std::_Tree<std::_Tmap_traits<unsigned long,IData *,std::less<unsigned long>,std::allocator<std::pair<unsigned long const ,IData *> >,0> >::_Rrotate
$L189420:

; 975  : 						}
; 976  : 					_Color(_Parent(_Pnode)) = _Black;	// propagate red up

  003d6	8b 55 e8	 mov	 edx, DWORD PTR __Pnode$189409[ebp]
  003d9	52		 push	 edx
  003da	e8 00 00 00 00	 call	 ?_Parent@?$_Tree@V?$_Tmap_traits@KPAVIData@@U?$less@K@std@@V?$allocator@U?$pair@$$CBKPAVIData@@@std@@@3@$0A@@std@@@std@@KAAAPAU_Node@?$_Tree_nod@V?$_Tmap_traits@KPAVIData@@U?$less@K@std@@V?$allocator@U?$pair@$$CBKPAVIData@@@std@@@3@$0A@@std@@@2@PAU342@@Z ; std::_Tree<std::_Tmap_traits<unsigned long,IData *,std::less<unsigned long>,std::allocator<std::pair<unsigned long const ,IData *> >,0> >::_Parent
  003df	83 c4 04	 add	 esp, 4
  003e2	8b 00		 mov	 eax, DWORD PTR [eax]
  003e4	50		 push	 eax
  003e5	e8 00 00 00 00	 call	 ?_Color@?$_Tree@V?$_Tmap_traits@KPAVIData@@U?$less@K@std@@V?$allocator@U?$pair@$$CBKPAVIData@@@std@@@3@$0A@@std@@@std@@KAAADPAU_Node@?$_Tree_nod@V?$_Tmap_traits@KPAVIData@@U?$less@K@std@@V?$allocator@U?$pair@$$CBKPAVIData@@@std@@@3@$0A@@std@@@2@@Z ; std::_Tree<std::_Tmap_traits<unsigned long,IData *,std::less<unsigned long>,std::allocator<std::pair<unsigned long const ,IData *> >,0> >::_Color
  003ea	83 c4 04	 add	 esp, 4
  003ed	c6 00 01	 mov	 BYTE PTR [eax], 1

; 977  : 					_Color(_Parent(_Parent(_Pnode))) = _Red;

  003f0	8b 4d e8	 mov	 ecx, DWORD PTR __Pnode$189409[ebp]
  003f3	51		 push	 ecx
  003f4	e8 00 00 00 00	 call	 ?_Parent@?$_Tree@V?$_Tmap_traits@KPAVIData@@U?$less@K@std@@V?$allocator@U?$pair@$$CBKPAVIData@@@std@@@3@$0A@@std@@@std@@KAAAPAU_Node@?$_Tree_nod@V?$_Tmap_traits@KPAVIData@@U?$less@K@std@@V?$allocator@U?$pair@$$CBKPAVIData@@@std@@@3@$0A@@std@@@2@PAU342@@Z ; std::_Tree<std::_Tmap_traits<unsigned long,IData *,std::less<unsigned long>,std::allocator<std::pair<unsigned long const ,IData *> >,0> >::_Parent
  003f9	83 c4 04	 add	 esp, 4
  003fc	8b 10		 mov	 edx, DWORD PTR [eax]
  003fe	52		 push	 edx
  003ff	e8 00 00 00 00	 call	 ?_Parent@?$_Tree@V?$_Tmap_traits@KPAVIData@@U?$less@K@std@@V?$allocator@U?$pair@$$CBKPAVIData@@@std@@@3@$0A@@std@@@std@@KAAAPAU_Node@?$_Tree_nod@V?$_Tmap_traits@KPAVIData@@U?$less@K@std@@V?$allocator@U?$pair@$$CBKPAVIData@@@std@@@3@$0A@@std@@@2@PAU342@@Z ; std::_Tree<std::_Tmap_traits<unsigned long,IData *,std::less<unsigned long>,std::allocator<std::pair<unsigned long const ,IData *> >,0> >::_Parent
  00404	83 c4 04	 add	 esp, 4
  00407	8b 00		 mov	 eax, DWORD PTR [eax]
  00409	50		 push	 eax
  0040a	e8 00 00 00 00	 call	 ?_Color@?$_Tree@V?$_Tmap_traits@KPAVIData@@U?$less@K@std@@V?$allocator@U?$pair@$$CBKPAVIData@@@std@@@3@$0A@@std@@@std@@KAAADPAU_Node@?$_Tree_nod@V?$_Tmap_traits@KPAVIData@@U?$less@K@std@@V?$allocator@U?$pair@$$CBKPAVIData@@@std@@@3@$0A@@std@@@2@@Z ; std::_Tree<std::_Tmap_traits<unsigned long,IData *,std::less<unsigned long>,std::allocator<std::pair<unsigned long const ,IData *> >,0> >::_Color
  0040f	83 c4 04	 add	 esp, 4
  00412	c6 00 00	 mov	 BYTE PTR [eax], 0

; 978  : 					_Lrotate(_Parent(_Parent(_Pnode)));

  00415	8b 4d e8	 mov	 ecx, DWORD PTR __Pnode$189409[ebp]
  00418	51		 push	 ecx
  00419	e8 00 00 00 00	 call	 ?_Parent@?$_Tree@V?$_Tmap_traits@KPAVIData@@U?$less@K@std@@V?$allocator@U?$pair@$$CBKPAVIData@@@std@@@3@$0A@@std@@@std@@KAAAPAU_Node@?$_Tree_nod@V?$_Tmap_traits@KPAVIData@@U?$less@K@std@@V?$allocator@U?$pair@$$CBKPAVIData@@@std@@@3@$0A@@std@@@2@PAU342@@Z ; std::_Tree<std::_Tmap_traits<unsigned long,IData *,std::less<unsigned long>,std::allocator<std::pair<unsigned long const ,IData *> >,0> >::_Parent
  0041e	83 c4 04	 add	 esp, 4
  00421	8b 10		 mov	 edx, DWORD PTR [eax]
  00423	52		 push	 edx
  00424	e8 00 00 00 00	 call	 ?_Parent@?$_Tree@V?$_Tmap_traits@KPAVIData@@U?$less@K@std@@V?$allocator@U?$pair@$$CBKPAVIData@@@std@@@3@$0A@@std@@@std@@KAAAPAU_Node@?$_Tree_nod@V?$_Tmap_traits@KPAVIData@@U?$less@K@std@@V?$allocator@U?$pair@$$CBKPAVIData@@@std@@@3@$0A@@std@@@2@PAU342@@Z ; std::_Tree<std::_Tmap_traits<unsigned long,IData *,std::less<unsigned long>,std::allocator<std::pair<unsigned long const ,IData *> >,0> >::_Parent
  00429	83 c4 04	 add	 esp, 4
  0042c	8b 00		 mov	 eax, DWORD PTR [eax]
  0042e	50		 push	 eax
  0042f	8b 4d f0	 mov	 ecx, DWORD PTR _this$[ebp]
  00432	e8 00 00 00 00	 call	 ?_Lrotate@?$_Tree@V?$_Tmap_traits@KPAVIData@@U?$less@K@std@@V?$allocator@U?$pair@$$CBKPAVIData@@@std@@@3@$0A@@std@@@std@@IAEXPAU_Node@?$_Tree_nod@V?$_Tmap_traits@KPAVIData@@U?$less@K@std@@V?$allocator@U?$pair@$$CBKPAVIData@@@std@@@3@$0A@@std@@@2@@Z ; std::_Tree<std::_Tmap_traits<unsigned long,IData *,std::less<unsigned long>,std::allocator<std::pair<unsigned long const ,IData *> >,0> >::_Lrotate
$L189417:

; 979  : 					}
; 980  : 				}

  00437	e9 10 fd ff ff	 jmp	 $L189411
$L189412:

; 981  : 
; 982  : 		_Color(_Root()) = _Black;	// root is always black

  0043c	8b 4d f0	 mov	 ecx, DWORD PTR _this$[ebp]
  0043f	e8 00 00 00 00	 call	 ?_Root@?$_Tree@V?$_Tmap_traits@KPAVIData@@U?$less@K@std@@V?$allocator@U?$pair@$$CBKPAVIData@@@std@@@3@$0A@@std@@@std@@IAEAAPAU_Node@?$_Tree_nod@V?$_Tmap_traits@KPAVIData@@U?$less@K@std@@V?$allocator@U?$pair@$$CBKPAVIData@@@std@@@3@$0A@@std@@@2@XZ ; std::_Tree<std::_Tmap_traits<unsigned long,IData *,std::less<unsigned long>,std::allocator<std::pair<unsigned long const ,IData *> >,0> >::_Root
  00444	8b 08		 mov	 ecx, DWORD PTR [eax]
  00446	51		 push	 ecx
  00447	e8 00 00 00 00	 call	 ?_Color@?$_Tree@V?$_Tmap_traits@KPAVIData@@U?$less@K@std@@V?$allocator@U?$pair@$$CBKPAVIData@@@std@@@3@$0A@@std@@@std@@KAAADPAU_Node@?$_Tree_nod@V?$_Tmap_traits@KPAVIData@@U?$less@K@std@@V?$allocator@U?$pair@$$CBKPAVIData@@@std@@@3@$0A@@std@@@2@@Z ; std::_Tree<std::_Tmap_traits<unsigned long,IData *,std::less<unsigned long>,std::allocator<std::pair<unsigned long const ,IData *> >,0> >::_Color
  0044c	83 c4 04	 add	 esp, 4
  0044f	c6 00 01	 mov	 BYTE PTR [eax], 1

; 983  : 		return (_TREE_ITERATOR(_Newnode));

  00452	8b 55 ec	 mov	 edx, DWORD PTR __Newnode$[ebp]
  00455	52		 push	 edx
  00456	8b 4d 08	 mov	 ecx, DWORD PTR ___$ReturnUdt$[ebp]
  00459	e8 00 00 00 00	 call	 ??0iterator@?$_Tree@V?$_Tmap_traits@KPAVIData@@U?$less@K@std@@V?$allocator@U?$pair@$$CBKPAVIData@@@std@@@3@$0A@@std@@@std@@QAE@PAU_Node@?$_Tree_nod@V?$_Tmap_traits@KPAVIData@@U?$less@K@std@@V?$allocator@U?$pair@$$CBKPAVIData@@@std@@@3@$0A@@std@@@2@@Z ; std::_Tree<std::_Tmap_traits<unsigned long,IData *,std::less<unsigned long>,std::allocator<std::pair<unsigned long const ,IData *> >,0> >::iterator::iterator
  0045e	8b 45 08	 mov	 eax, DWORD PTR ___$ReturnUdt$[ebp]
$L190346:

; 984  : 		}

  00461	8b 4d f4	 mov	 ecx, DWORD PTR __$EHRec$[ebp]
  00464	64 89 0d 00 00
	00 00		 mov	 DWORD PTR fs:__except_list, ecx
  0046b	5f		 pop	 edi
  0046c	5e		 pop	 esi
  0046d	83 c4 5c	 add	 esp, 92			; 0000005cH
  00470	3b ec		 cmp	 ebp, esp
  00472	e8 00 00 00 00	 call	 __RTC_CheckEsp
  00477	8b e5		 mov	 esp, ebp
  00479	5d		 pop	 ebp
  0047a	c2 10 00	 ret	 16			; 00000010H
_TEXT	ENDS
;	COMDAT text$x
text$x	SEGMENT
$L190349:
  00000	8b f4		 mov	 esi, esp
  00002	8d 4d a4	 lea	 ecx, DWORD PTR $T190348[ebp]
  00005	ff 15 00 00 00
	00		 call	 DWORD PTR __imp_??1?$basic_string@DU?$char_traits@D@std@@V?$allocator@D@2@@std@@QAE@XZ
  0000b	3b f4		 cmp	 esi, esp
  0000d	e9 00 00 00 00	 jmp	 __RTC_CheckEsp
__ehhandler$?_Insert@?$_Tree@V?$_Tmap_traits@KPAVIData@@U?$less@K@std@@V?$allocator@U?$pair@$$CBKPAVIData@@@std@@@3@$0A@@std@@@std@@IAE?AViterator@12@_NPAU_Node@?$_Tree_nod@V?$_Tmap_traits@KPAVIData@@U?$less@K@std@@V?$allocator@U?$pair@$$CBKPAVIData@@@std@@@3@$0A@@std@@@2@ABU?$pair@$$CBKPAVIData@@@2@@Z:
  00012	b8 00 00 00 00	 mov	 eax, OFFSET FLAT:$T190351
  00017	e9 00 00 00 00	 jmp	 ___CxxFrameHandler
text$x	ENDS
?_Insert@?$_Tree@V?$_Tmap_traits@KPAVIData@@U?$less@K@std@@V?$allocator@U?$pair@$$CBKPAVIData@@@std@@@3@$0A@@std@@@std@@IAE?AViterator@12@_NPAU_Node@?$_Tree_nod@V?$_Tmap_traits@KPAVIData@@U?$less@K@std@@V?$allocator@U?$pair@$$CBKPAVIData@@@std@@@3@$0A@@std@@@2@ABU?$pair@$$CBKPAVIData@@@2@@Z ENDP ; std::_Tree<std::_Tmap_traits<unsigned long,IData *,std::less<unsigned long>,std::allocator<std::pair<unsigned long const ,IData *> >,0> >::_Insert
PUBLIC	?_Root@?$_Tree@V?$_Tmap_traits@KPAVIData@@U?$less@K@std@@V?$allocator@U?$pair@$$CBKPAVIData@@@std@@@3@$0A@@std@@@std@@IBEAAPAU_Node@?$_Tree_nod@V?$_Tmap_traits@KPAVIData@@U?$less@K@std@@V?$allocator@U?$pair@$$CBKPAVIData@@@std@@@3@$0A@@std@@@2@XZ ; std::_Tree<std::_Tmap_traits<unsigned long,IData *,std::less<unsigned long>,std::allocator<std::pair<unsigned long const ,IData *> >,0> >::_Root
; Function compile flags: /Odt /RTCsu
;	COMDAT ?_Lbound@?$_Tree@V?$_Tmap_traits@KPAVIData@@U?$less@K@std@@V?$allocator@U?$pair@$$CBKPAVIData@@@std@@@3@$0A@@std@@@std@@IBEPAU_Node@?$_Tree_nod@V?$_Tmap_traits@KPAVIData@@U?$less@K@std@@V?$allocator@U?$pair@$$CBKPAVIData@@@std@@@3@$0A@@std@@@2@ABK@Z
_TEXT	SEGMENT
__Wherenode$ = -12					; size = 4
__Pnode$ = -8						; size = 4
_this$ = -4						; size = 4
__Keyval$ = 8						; size = 4
?_Lbound@?$_Tree@V?$_Tmap_traits@KPAVIData@@U?$less@K@std@@V?$allocator@U?$pair@$$CBKPAVIData@@@std@@@3@$0A@@std@@@std@@IBEPAU_Node@?$_Tree_nod@V?$_Tmap_traits@KPAVIData@@U?$less@K@std@@V?$allocator@U?$pair@$$CBKPAVIData@@@std@@@3@$0A@@std@@@2@ABK@Z PROC NEAR ; std::_Tree<std::_Tmap_traits<unsigned long,IData *,std::less<unsigned long>,std::allocator<std::pair<unsigned long const ,IData *> >,0> >::_Lbound, COMDAT
; _this$ = ecx

; 987  : 		{	// find leftmost node not less than _Keyval

  00000	55		 push	 ebp
  00001	8b ec		 mov	 ebp, esp
  00003	83 ec 0c	 sub	 esp, 12			; 0000000cH
  00006	c7 45 f4 cc cc
	cc cc		 mov	 DWORD PTR [ebp-12], -858993460 ; ccccccccH
  0000d	c7 45 f8 cc cc
	cc cc		 mov	 DWORD PTR [ebp-8], -858993460 ; ccccccccH
  00014	c7 45 fc cc cc
	cc cc		 mov	 DWORD PTR [ebp-4], -858993460 ; ccccccccH
  0001b	89 4d fc	 mov	 DWORD PTR _this$[ebp], ecx

; 988  : 		_Nodeptr _Pnode = _Root();

  0001e	8b 4d fc	 mov	 ecx, DWORD PTR _this$[ebp]
  00021	e8 00 00 00 00	 call	 ?_Root@?$_Tree@V?$_Tmap_traits@KPAVIData@@U?$less@K@std@@V?$allocator@U?$pair@$$CBKPAVIData@@@std@@@3@$0A@@std@@@std@@IBEAAPAU_Node@?$_Tree_nod@V?$_Tmap_traits@KPAVIData@@U?$less@K@std@@V?$allocator@U?$pair@$$CBKPAVIData@@@std@@@3@$0A@@std@@@2@XZ ; std::_Tree<std::_Tmap_traits<unsigned long,IData *,std::less<unsigned long>,std::allocator<std::pair<unsigned long const ,IData *> >,0> >::_Root
  00026	8b 00		 mov	 eax, DWORD PTR [eax]
  00028	89 45 f8	 mov	 DWORD PTR __Pnode$[ebp], eax

; 989  : 		_Nodeptr _Wherenode = _Myhead;	// end() if search fails

  0002b	8b 4d fc	 mov	 ecx, DWORD PTR _this$[ebp]
  0002e	8b 51 04	 mov	 edx, DWORD PTR [ecx+4]
  00031	89 55 f4	 mov	 DWORD PTR __Wherenode$[ebp], edx
$L189427:

; 990  : 
; 991  : 		while (!_Isnil(_Pnode))

  00034	8b 45 f8	 mov	 eax, DWORD PTR __Pnode$[ebp]
  00037	50		 push	 eax
  00038	e8 00 00 00 00	 call	 ?_Isnil@?$_Tree@V?$_Tmap_traits@KPAVIData@@U?$less@K@std@@V?$allocator@U?$pair@$$CBKPAVIData@@@std@@@3@$0A@@std@@@std@@KAAADPAU_Node@?$_Tree_nod@V?$_Tmap_traits@KPAVIData@@U?$less@K@std@@V?$allocator@U?$pair@$$CBKPAVIData@@@std@@@3@$0A@@std@@@2@@Z ; std::_Tree<std::_Tmap_traits<unsigned long,IData *,std::less<unsigned long>,std::allocator<std::pair<unsigned long const ,IData *> >,0> >::_Isnil
  0003d	83 c4 04	 add	 esp, 4
  00040	0f be 08	 movsx	 ecx, BYTE PTR [eax]
  00043	85 c9		 test	 ecx, ecx
  00045	75 4c		 jne	 SHORT $L189428

; 992  : 			if (this->comp(_Key(_Pnode), _Keyval))

  00047	8b 55 08	 mov	 edx, DWORD PTR __Keyval$[ebp]
  0004a	52		 push	 edx
  0004b	8b 45 f8	 mov	 eax, DWORD PTR __Pnode$[ebp]
  0004e	50		 push	 eax
  0004f	e8 00 00 00 00	 call	 ?_Key@?$_Tree@V?$_Tmap_traits@KPAVIData@@U?$less@K@std@@V?$allocator@U?$pair@$$CBKPAVIData@@@std@@@3@$0A@@std@@@std@@KAABKPAU_Node@?$_Tree_nod@V?$_Tmap_traits@KPAVIData@@U?$less@K@std@@V?$allocator@U?$pair@$$CBKPAVIData@@@std@@@3@$0A@@std@@@2@@Z ; std::_Tree<std::_Tmap_traits<unsigned long,IData *,std::less<unsigned long>,std::allocator<std::pair<unsigned long const ,IData *> >,0> >::_Key
  00054	83 c4 04	 add	 esp, 4
  00057	50		 push	 eax
  00058	8b 4d fc	 mov	 ecx, DWORD PTR _this$[ebp]
  0005b	e8 00 00 00 00	 call	 ??R?$less@K@std@@QBE_NABK0@Z ; std::less<unsigned long>::operator()
  00060	0f b6 c8	 movzx	 ecx, al
  00063	85 c9		 test	 ecx, ecx
  00065	74 13		 je	 SHORT $L189429

; 993  : 				_Pnode = _Right(_Pnode);	// descend right subtree

  00067	8b 55 f8	 mov	 edx, DWORD PTR __Pnode$[ebp]
  0006a	52		 push	 edx
  0006b	e8 00 00 00 00	 call	 ?_Right@?$_Tree@V?$_Tmap_traits@KPAVIData@@U?$less@K@std@@V?$allocator@U?$pair@$$CBKPAVIData@@@std@@@3@$0A@@std@@@std@@KAAAPAU_Node@?$_Tree_nod@V?$_Tmap_traits@KPAVIData@@U?$less@K@std@@V?$allocator@U?$pair@$$CBKPAVIData@@@std@@@3@$0A@@std@@@2@PAU342@@Z ; std::_Tree<std::_Tmap_traits<unsigned long,IData *,std::less<unsigned long>,std::allocator<std::pair<unsigned long const ,IData *> >,0> >::_Right
  00070	83 c4 04	 add	 esp, 4
  00073	8b 00		 mov	 eax, DWORD PTR [eax]
  00075	89 45 f8	 mov	 DWORD PTR __Pnode$[ebp], eax

; 994  : 			else

  00078	eb 17		 jmp	 SHORT $L189430
$L189429:

; 995  : 				{	// _Pnode not less than _Keyval, remember it
; 996  : 				_Wherenode = _Pnode;

  0007a	8b 4d f8	 mov	 ecx, DWORD PTR __Pnode$[ebp]
  0007d	89 4d f4	 mov	 DWORD PTR __Wherenode$[ebp], ecx

; 997  : 				_Pnode = _Left(_Pnode);	// descend left subtree

  00080	8b 55 f8	 mov	 edx, DWORD PTR __Pnode$[ebp]
  00083	52		 push	 edx
  00084	e8 00 00 00 00	 call	 ?_Left@?$_Tree@V?$_Tmap_traits@KPAVIData@@U?$less@K@std@@V?$allocator@U?$pair@$$CBKPAVIData@@@std@@@3@$0A@@std@@@std@@KAAAPAU_Node@?$_Tree_nod@V?$_Tmap_traits@KPAVIData@@U?$less@K@std@@V?$allocator@U?$pair@$$CBKPAVIData@@@std@@@3@$0A@@std@@@2@PAU342@@Z ; std::_Tree<std::_Tmap_traits<unsigned long,IData *,std::less<unsigned long>,std::allocator<std::pair<unsigned long const ,IData *> >,0> >::_Left
  00089	83 c4 04	 add	 esp, 4
  0008c	8b 00		 mov	 eax, DWORD PTR [eax]
  0008e	89 45 f8	 mov	 DWORD PTR __Pnode$[ebp], eax
$L189430:

; 998  : 				}

  00091	eb a1		 jmp	 SHORT $L189427
$L189428:

; 999  : 
; 1000 : 		return (_Wherenode);	// return best remembered candidate

  00093	8b 45 f4	 mov	 eax, DWORD PTR __Wherenode$[ebp]

; 1001 : 		}

  00096	83 c4 0c	 add	 esp, 12			; 0000000cH
  00099	3b ec		 cmp	 ebp, esp
  0009b	e8 00 00 00 00	 call	 __RTC_CheckEsp
  000a0	8b e5		 mov	 esp, ebp
  000a2	5d		 pop	 ebp
  000a3	c2 04 00	 ret	 4
?_Lbound@?$_Tree@V?$_Tmap_traits@KPAVIData@@U?$less@K@std@@V?$allocator@U?$pair@$$CBKPAVIData@@@std@@@3@$0A@@std@@@std@@IBEPAU_Node@?$_Tree_nod@V?$_Tmap_traits@KPAVIData@@U?$less@K@std@@V?$allocator@U?$pair@$$CBKPAVIData@@@std@@@3@$0A@@std@@@2@ABK@Z ENDP ; std::_Tree<std::_Tmap_traits<unsigned long,IData *,std::less<unsigned long>,std::allocator<std::pair<unsigned long const ,IData *> >,0> >::_Lbound
_TEXT	ENDS
PUBLIC	??0?$_Tree_ptr@V?$_Tmap_traits@KPAVIData@@U?$less@K@std@@V?$allocator@U?$pair@$$CBKPAVIData@@@std@@@3@$0A@@std@@@std@@IAE@ABU?$less@K@1@V?$allocator@U?$pair@$$CBKPAVIData@@@std@@@1@@Z ; std::_Tree_ptr<std::_Tmap_traits<unsigned long,IData *,std::less<unsigned long>,std::allocator<std::pair<unsigned long const ,IData *> >,0> >::_Tree_ptr<std::_Tmap_traits<unsigned long,IData *,std::less<unsigned long>,std::allocator<std::pair<unsigned long const ,IData *> >,0> >
; Function compile flags: /Odt /RTCsu
;	COMDAT ??0?$_Tree_val@V?$_Tmap_traits@KPAVIData@@U?$less@K@std@@V?$allocator@U?$pair@$$CBKPAVIData@@@std@@@3@$0A@@std@@@std@@IAE@ABU?$less@K@1@V?$allocator@U?$pair@$$CBKPAVIData@@@std@@@1@@Z
_TEXT	SEGMENT
_this$ = -4						; size = 4
__Parg$ = 8						; size = 4
__Al$ = 12						; size = 1
??0?$_Tree_val@V?$_Tmap_traits@KPAVIData@@U?$less@K@std@@V?$allocator@U?$pair@$$CBKPAVIData@@@std@@@3@$0A@@std@@@std@@IAE@ABU?$less@K@1@V?$allocator@U?$pair@$$CBKPAVIData@@@std@@@1@@Z PROC NEAR ; std::_Tree_val<std::_Tmap_traits<unsigned long,IData *,std::less<unsigned long>,std::allocator<std::pair<unsigned long const ,IData *> >,0> >::_Tree_val<std::_Tmap_traits<unsigned long,IData *,std::less<unsigned long>,std::allocator<std::pair<unsigned long const ,IData *> >,0> >, COMDAT
; _this$ = ecx

; 95   : 		{	// construct base, and allocator from _Al

  00000	55		 push	 ebp
  00001	8b ec		 mov	 ebp, esp
  00003	83 ec 08	 sub	 esp, 8
  00006	c7 45 f8 cc cc
	cc cc		 mov	 DWORD PTR [ebp-8], -858993460 ; ccccccccH
  0000d	c7 45 fc cc cc
	cc cc		 mov	 DWORD PTR [ebp-4], -858993460 ; ccccccccH
  00014	89 4d fc	 mov	 DWORD PTR _this$[ebp], ecx
  00017	51		 push	 ecx
  00018	8b cc		 mov	 ecx, esp
  0001a	8d 45 0c	 lea	 eax, DWORD PTR __Al$[ebp]
  0001d	50		 push	 eax
  0001e	e8 00 00 00 00	 call	 ??0?$allocator@U?$pair@$$CBKPAVIData@@@std@@@std@@QAE@ABV01@@Z ; std::allocator<std::pair<unsigned long const ,IData *> >::allocator<std::pair<unsigned long const ,IData *> >
  00023	8b 4d 08	 mov	 ecx, DWORD PTR __Parg$[ebp]
  00026	51		 push	 ecx
  00027	8b 4d fc	 mov	 ecx, DWORD PTR _this$[ebp]
  0002a	e8 00 00 00 00	 call	 ??0?$_Tree_ptr@V?$_Tmap_traits@KPAVIData@@U?$less@K@std@@V?$allocator@U?$pair@$$CBKPAVIData@@@std@@@3@$0A@@std@@@std@@IAE@ABU?$less@K@1@V?$allocator@U?$pair@$$CBKPAVIData@@@std@@@1@@Z ; std::_Tree_ptr<std::_Tmap_traits<unsigned long,IData *,std::less<unsigned long>,std::allocator<std::pair<unsigned long const ,IData *> >,0> >::_Tree_ptr<std::_Tmap_traits<unsigned long,IData *,std::less<unsigned long>,std::allocator<std::pair<unsigned long const ,IData *> >,0> >
  0002f	8d 55 0c	 lea	 edx, DWORD PTR __Al$[ebp]
  00032	52		 push	 edx
  00033	8b 4d fc	 mov	 ecx, DWORD PTR _this$[ebp]
  00036	83 c1 03	 add	 ecx, 3
  00039	e8 00 00 00 00	 call	 ??0?$allocator@U?$pair@$$CBKPAVIData@@@std@@@std@@QAE@ABV01@@Z ; std::allocator<std::pair<unsigned long const ,IData *> >::allocator<std::pair<unsigned long const ,IData *> >

; 96   : 		}

  0003e	8b 45 fc	 mov	 eax, DWORD PTR _this$[ebp]
  00041	83 c4 08	 add	 esp, 8
  00044	3b ec		 cmp	 ebp, esp
  00046	e8 00 00 00 00	 call	 __RTC_CheckEsp
  0004b	8b e5		 mov	 esp, ebp
  0004d	5d		 pop	 ebp
  0004e	c2 08 00	 ret	 8
??0?$_Tree_val@V?$_Tmap_traits@KPAVIData@@U?$less@K@std@@V?$allocator@U?$pair@$$CBKPAVIData@@@std@@@3@$0A@@std@@@std@@IAE@ABU?$less@K@1@V?$allocator@U?$pair@$$CBKPAVIData@@@std@@@1@@Z ENDP ; std::_Tree_val<std::_Tmap_traits<unsigned long,IData *,std::less<unsigned long>,std::allocator<std::pair<unsigned long const ,IData *> >,0> >::_Tree_val<std::_Tmap_traits<unsigned long,IData *,std::less<unsigned long>,std::allocator<std::pair<unsigned long const ,IData *> >,0> >
; Function compile flags: /Odt /RTCsu
; File d:\program files (x86)\microsoft visual studio .net 2003\vc7\include\map
_TEXT	ENDS
;	COMDAT ?_Kfn@?$_Tmap_traits@KPAVIData@@U?$less@K@std@@V?$allocator@U?$pair@$$CBKPAVIData@@@std@@@3@$0A@@std@@SAABKABU?$pair@$$CBKPAVIData@@@2@@Z
_TEXT	SEGMENT
__Val$ = 8						; size = 4
?_Kfn@?$_Tmap_traits@KPAVIData@@U?$less@K@std@@V?$allocator@U?$pair@$$CBKPAVIData@@@std@@@3@$0A@@std@@SAABKABU?$pair@$$CBKPAVIData@@@2@@Z PROC NEAR ; std::_Tmap_traits<unsigned long,IData *,std::less<unsigned long>,std::allocator<std::pair<unsigned long const ,IData *> >,0>::_Kfn, COMDAT

; 63   : 		{	// extract key from element value

  00000	55		 push	 ebp
  00001	8b ec		 mov	 ebp, esp

; 64   : 		return (_Val.first);

  00003	8b 45 08	 mov	 eax, DWORD PTR __Val$[ebp]

; 65   : 		}

  00006	5d		 pop	 ebp
  00007	c3		 ret	 0
?_Kfn@?$_Tmap_traits@KPAVIData@@U?$less@K@std@@V?$allocator@U?$pair@$$CBKPAVIData@@@std@@@3@$0A@@std@@SAABKABU?$pair@$$CBKPAVIData@@@2@@Z ENDP ; std::_Tmap_traits<unsigned long,IData *,std::less<unsigned long>,std::allocator<std::pair<unsigned long const ,IData *> >,0>::_Kfn
; Function compile flags: /Odt /RTCsu
; File d:\program files (x86)\microsoft visual studio .net 2003\vc7\include\xmemory
_TEXT	ENDS
;	COMDAT ??0?$allocator@U?$pair@$$CBKPAVIData@@@std@@@std@@QAE@ABV01@@Z
_TEXT	SEGMENT
_this$ = -4						; size = 4
___formal$ = 8						; size = 4
??0?$allocator@U?$pair@$$CBKPAVIData@@@std@@@std@@QAE@ABV01@@Z PROC NEAR ; std::allocator<std::pair<unsigned long const ,IData *> >::allocator<std::pair<unsigned long const ,IData *> >, COMDAT
; _this$ = ecx

; 115  : 	allocator(const allocator<_Ty>&)

  00000	55		 push	 ebp
  00001	8b ec		 mov	 ebp, esp
  00003	51		 push	 ecx
  00004	c7 45 fc cc cc
	cc cc		 mov	 DWORD PTR [ebp-4], -858993460 ; ccccccccH
  0000b	89 4d fc	 mov	 DWORD PTR _this$[ebp], ecx

; 116  : 		{	// construct by copying (do nothing)
; 117  : 		}

  0000e	8b 45 fc	 mov	 eax, DWORD PTR _this$[ebp]
  00011	8b e5		 mov	 esp, ebp
  00013	5d		 pop	 ebp
  00014	c2 04 00	 ret	 4
??0?$allocator@U?$pair@$$CBKPAVIData@@@std@@@std@@QAE@ABV01@@Z ENDP ; std::allocator<std::pair<unsigned long const ,IData *> >::allocator<std::pair<unsigned long const ,IData *> >
; Function compile flags: /Odt /RTCsu
_TEXT	ENDS
;	COMDAT ?deallocate@?$allocator@U_Node@?$_Tree_nod@V?$_Tmap_traits@KPAVIData@@U?$less@K@std@@V?$allocator@U?$pair@$$CBKPAVIData@@@std@@@3@$0A@@std@@@std@@@std@@QAEXPAU_Node@?$_Tree_nod@V?$_Tmap_traits@KPAVIData@@U?$less@K@std@@V?$allocator@U?$pair@$$CBKPAVIData@@@std@@@3@$0A@@std@@@2@I@Z
_TEXT	SEGMENT
_this$ = -4						; size = 4
__Ptr$ = 8						; size = 4
___formal$ = 12						; size = 4
?deallocate@?$allocator@U_Node@?$_Tree_nod@V?$_Tmap_traits@KPAVIData@@U?$less@K@std@@V?$allocator@U?$pair@$$CBKPAVIData@@@std@@@3@$0A@@std@@@std@@@std@@QAEXPAU_Node@?$_Tree_nod@V?$_Tmap_traits@KPAVIData@@U?$less@K@std@@V?$allocator@U?$pair@$$CBKPAVIData@@@std@@@3@$0A@@std@@@2@I@Z PROC NEAR ; std::allocator<std::_Tree_nod<std::_Tmap_traits<unsigned long,IData *,std::less<unsigned long>,std::allocator<std::pair<unsigned long const ,IData *> >,0> >::_Node>::deallocate, COMDAT
; _this$ = ecx

; 131  : 		{	// deallocate object at _Ptr, ignore size

  00000	55		 push	 ebp
  00001	8b ec		 mov	 ebp, esp
  00003	51		 push	 ecx
  00004	c7 45 fc cc cc
	cc cc		 mov	 DWORD PTR [ebp-4], -858993460 ; ccccccccH
  0000b	89 4d fc	 mov	 DWORD PTR _this$[ebp], ecx

; 132  : 		operator delete(_Ptr);

  0000e	8b 45 08	 mov	 eax, DWORD PTR __Ptr$[ebp]
  00011	50		 push	 eax
  00012	e8 00 00 00 00	 call	 ??3@YAXPAX@Z		; operator delete
  00017	83 c4 04	 add	 esp, 4

; 133  : 		}

  0001a	83 c4 04	 add	 esp, 4
  0001d	3b ec		 cmp	 ebp, esp
  0001f	e8 00 00 00 00	 call	 __RTC_CheckEsp
  00024	8b e5		 mov	 esp, ebp
  00026	5d		 pop	 ebp
  00027	c2 08 00	 ret	 8
?deallocate@?$allocator@U_Node@?$_Tree_nod@V?$_Tmap_traits@KPAVIData@@U?$less@K@std@@V?$allocator@U?$pair@$$CBKPAVIData@@@std@@@3@$0A@@std@@@std@@@std@@QAEXPAU_Node@?$_Tree_nod@V?$_Tmap_traits@KPAVIData@@U?$less@K@std@@V?$allocator@U?$pair@$$CBKPAVIData@@@std@@@3@$0A@@std@@@2@I@Z ENDP ; std::allocator<std::_Tree_nod<std::_Tmap_traits<unsigned long,IData *,std::less<unsigned long>,std::allocator<std::pair<unsigned long const ,IData *> >,0> >::_Node>::deallocate
_TEXT	ENDS
PUBLIC	??$_Destroy@U_Node@?$_Tree_nod@V?$_Tmap_traits@KPAVIData@@U?$less@K@std@@V?$allocator@U?$pair@$$CBKPAVIData@@@std@@@3@$0A@@std@@@std@@@std@@YAXPAU_Node@?$_Tree_nod@V?$_Tmap_traits@KPAVIData@@U?$less@K@std@@V?$allocator@U?$pair@$$CBKPAVIData@@@std@@@3@$0A@@std@@@0@@Z ; std::_Destroy<std::_Tree_nod<std::_Tmap_traits<unsigned long,IData *,std::less<unsigned long>,std::allocator<std::pair<unsigned long const ,IData *> >,0> >::_Node>
; Function compile flags: /Odt /RTCsu
;	COMDAT ?destroy@?$allocator@U_Node@?$_Tree_nod@V?$_Tmap_traits@KPAVIData@@U?$less@K@std@@V?$allocator@U?$pair@$$CBKPAVIData@@@std@@@3@$0A@@std@@@std@@@std@@QAEXPAU_Node@?$_Tree_nod@V?$_Tmap_traits@KPAVIData@@U?$less@K@std@@V?$allocator@U?$pair@$$CBKPAVIData@@@std@@@3@$0A@@std@@@2@@Z
_TEXT	SEGMENT
_this$ = -4						; size = 4
__Ptr$ = 8						; size = 4
?destroy@?$allocator@U_Node@?$_Tree_nod@V?$_Tmap_traits@KPAVIData@@U?$less@K@std@@V?$allocator@U?$pair@$$CBKPAVIData@@@std@@@3@$0A@@std@@@std@@@std@@QAEXPAU_Node@?$_Tree_nod@V?$_Tmap_traits@KPAVIData@@U?$less@K@std@@V?$allocator@U?$pair@$$CBKPAVIData@@@std@@@3@$0A@@std@@@2@@Z PROC NEAR ; std::allocator<std::_Tree_nod<std::_Tmap_traits<unsigned long,IData *,std::less<unsigned long>,std::allocator<std::pair<unsigned long const ,IData *> >,0> >::_Node>::destroy, COMDAT
; _this$ = ecx

; 151  : 		{	// destroy object at _Ptr

  00000	55		 push	 ebp
  00001	8b ec		 mov	 ebp, esp
  00003	51		 push	 ecx
  00004	c7 45 fc cc cc
	cc cc		 mov	 DWORD PTR [ebp-4], -858993460 ; ccccccccH
  0000b	89 4d fc	 mov	 DWORD PTR _this$[ebp], ecx

; 152  : 		_Destroy(_Ptr);

  0000e	8b 45 08	 mov	 eax, DWORD PTR __Ptr$[ebp]
  00011	50		 push	 eax
  00012	e8 00 00 00 00	 call	 ??$_Destroy@U_Node@?$_Tree_nod@V?$_Tmap_traits@KPAVIData@@U?$less@K@std@@V?$allocator@U?$pair@$$CBKPAVIData@@@std@@@3@$0A@@std@@@std@@@std@@YAXPAU_Node@?$_Tree_nod@V?$_Tmap_traits@KPAVIData@@U?$less@K@std@@V?$allocator@U?$pair@$$CBKPAVIData@@@std@@@3@$0A@@std@@@0@@Z ; std::_Destroy<std::_Tree_nod<std::_Tmap_traits<unsigned long,IData *,std::less<unsigned long>,std::allocator<std::pair<unsigned long const ,IData *> >,0> >::_Node>
  00017	83 c4 04	 add	 esp, 4

; 153  : 		}

  0001a	83 c4 04	 add	 esp, 4
  0001d	3b ec		 cmp	 ebp, esp
  0001f	e8 00 00 00 00	 call	 __RTC_CheckEsp
  00024	8b e5		 mov	 esp, ebp
  00026	5d		 pop	 ebp
  00027	c2 04 00	 ret	 4
?destroy@?$allocator@U_Node@?$_Tree_nod@V?$_Tmap_traits@KPAVIData@@U?$less@K@std@@V?$allocator@U?$pair@$$CBKPAVIData@@@std@@@3@$0A@@std@@@std@@@std@@QAEXPAU_Node@?$_Tree_nod@V?$_Tmap_traits@KPAVIData@@U?$less@K@std@@V?$allocator@U?$pair@$$CBKPAVIData@@@std@@@3@$0A@@std@@@2@@Z ENDP ; std::allocator<std::_Tree_nod<std::_Tmap_traits<unsigned long,IData *,std::less<unsigned long>,std::allocator<std::pair<unsigned long const ,IData *> >,0> >::_Node>::destroy
_TEXT	ENDS
PUBLIC	??$_Destroy@PAU_Node@?$_Tree_nod@V?$_Tmap_traits@KPAVIData@@U?$less@K@std@@V?$allocator@U?$pair@$$CBKPAVIData@@@std@@@3@$0A@@std@@@std@@@std@@YAXPAPAU_Node@?$_Tree_nod@V?$_Tmap_traits@KPAVIData@@U?$less@K@std@@V?$allocator@U?$pair@$$CBKPAVIData@@@std@@@3@$0A@@std@@@0@@Z ; std::_Destroy<std::_Tree_nod<std::_Tmap_traits<unsigned long,IData *,std::less<unsigned long>,std::allocator<std::pair<unsigned long const ,IData *> >,0> >::_Node *>
; Function compile flags: /Odt /RTCsu
;	COMDAT ?destroy@?$allocator@PAU_Node@?$_Tree_nod@V?$_Tmap_traits@KPAVIData@@U?$less@K@std@@V?$allocator@U?$pair@$$CBKPAVIData@@@std@@@3@$0A@@std@@@std@@@std@@QAEXPAPAU_Node@?$_Tree_nod@V?$_Tmap_traits@KPAVIData@@U?$less@K@std@@V?$allocator@U?$pair@$$CBKPAVIData@@@std@@@3@$0A@@std@@@2@@Z
_TEXT	SEGMENT
_this$ = -4						; size = 4
__Ptr$ = 8						; size = 4
?destroy@?$allocator@PAU_Node@?$_Tree_nod@V?$_Tmap_traits@KPAVIData@@U?$less@K@std@@V?$allocator@U?$pair@$$CBKPAVIData@@@std@@@3@$0A@@std@@@std@@@std@@QAEXPAPAU_Node@?$_Tree_nod@V?$_Tmap_traits@KPAVIData@@U?$less@K@std@@V?$allocator@U?$pair@$$CBKPAVIData@@@std@@@3@$0A@@std@@@2@@Z PROC NEAR ; std::allocator<std::_Tree_nod<std::_Tmap_traits<unsigned long,IData *,std::less<unsigned long>,std::allocator<std::pair<unsigned long const ,IData *> >,0> >::_Node *>::destroy, COMDAT
; _this$ = ecx

; 151  : 		{	// destroy object at _Ptr

  00000	55		 push	 ebp
  00001	8b ec		 mov	 ebp, esp
  00003	51		 push	 ecx
  00004	c7 45 fc cc cc
	cc cc		 mov	 DWORD PTR [ebp-4], -858993460 ; ccccccccH
  0000b	89 4d fc	 mov	 DWORD PTR _this$[ebp], ecx

; 152  : 		_Destroy(_Ptr);

  0000e	8b 45 08	 mov	 eax, DWORD PTR __Ptr$[ebp]
  00011	50		 push	 eax
  00012	e8 00 00 00 00	 call	 ??$_Destroy@PAU_Node@?$_Tree_nod@V?$_Tmap_traits@KPAVIData@@U?$less@K@std@@V?$allocator@U?$pair@$$CBKPAVIData@@@std@@@3@$0A@@std@@@std@@@std@@YAXPAPAU_Node@?$_Tree_nod@V?$_Tmap_traits@KPAVIData@@U?$less@K@std@@V?$allocator@U?$pair@$$CBKPAVIData@@@std@@@3@$0A@@std@@@0@@Z ; std::_Destroy<std::_Tree_nod<std::_Tmap_traits<unsigned long,IData *,std::less<unsigned long>,std::allocator<std::pair<unsigned long const ,IData *> >,0> >::_Node *>
  00017	83 c4 04	 add	 esp, 4

; 153  : 		}

  0001a	83 c4 04	 add	 esp, 4
  0001d	3b ec		 cmp	 ebp, esp
  0001f	e8 00 00 00 00	 call	 __RTC_CheckEsp
  00024	8b e5		 mov	 esp, ebp
  00026	5d		 pop	 ebp
  00027	c2 04 00	 ret	 4
?destroy@?$allocator@PAU_Node@?$_Tree_nod@V?$_Tmap_traits@KPAVIData@@U?$less@K@std@@V?$allocator@U?$pair@$$CBKPAVIData@@@std@@@3@$0A@@std@@@std@@@std@@QAEXPAPAU_Node@?$_Tree_nod@V?$_Tmap_traits@KPAVIData@@U?$less@K@std@@V?$allocator@U?$pair@$$CBKPAVIData@@@std@@@3@$0A@@std@@@2@@Z ENDP ; std::allocator<std::_Tree_nod<std::_Tmap_traits<unsigned long,IData *,std::less<unsigned long>,std::allocator<std::pair<unsigned long const ,IData *> >,0> >::_Node *>::destroy
_TEXT	ENDS
PUBLIC	??0const_iterator@?$_Tree@V?$_Tmap_traits@KPAVIData@@U?$less@K@std@@V?$allocator@U?$pair@$$CBKPAVIData@@@std@@@3@$0A@@std@@@std@@QAE@XZ ; std::_Tree<std::_Tmap_traits<unsigned long,IData *,std::less<unsigned long>,std::allocator<std::pair<unsigned long const ,IData *> >,0> >::const_iterator::const_iterator
; Function compile flags: /Odt /RTCsu
; File d:\program files (x86)\microsoft visual studio .net 2003\vc7\include\xtree
;	COMDAT ??0iterator@?$_Tree@V?$_Tmap_traits@KPAVIData@@U?$less@K@std@@V?$allocator@U?$pair@$$CBKPAVIData@@@std@@@3@$0A@@std@@@std@@QAE@XZ
_TEXT	SEGMENT
_this$ = -4						; size = 4
??0iterator@?$_Tree@V?$_Tmap_traits@KPAVIData@@U?$less@K@std@@V?$allocator@U?$pair@$$CBKPAVIData@@@std@@@3@$0A@@std@@@std@@QAE@XZ PROC NEAR ; std::_Tree<std::_Tmap_traits<unsigned long,IData *,std::less<unsigned long>,std::allocator<std::pair<unsigned long const ,IData *> >,0> >::iterator::iterator, COMDAT
; _this$ = ecx

; 304  : 		iterator()

  00000	55		 push	 ebp
  00001	8b ec		 mov	 ebp, esp
  00003	51		 push	 ecx
  00004	c7 45 fc cc cc
	cc cc		 mov	 DWORD PTR [ebp-4], -858993460 ; ccccccccH
  0000b	89 4d fc	 mov	 DWORD PTR _this$[ebp], ecx
  0000e	8b 4d fc	 mov	 ecx, DWORD PTR _this$[ebp]
  00011	e8 00 00 00 00	 call	 ??0const_iterator@?$_Tree@V?$_Tmap_traits@KPAVIData@@U?$less@K@std@@V?$allocator@U?$pair@$$CBKPAVIData@@@std@@@3@$0A@@std@@@std@@QAE@XZ ; std::_Tree<std::_Tmap_traits<unsigned long,IData *,std::less<unsigned long>,std::allocator<std::pair<unsigned long const ,IData *> >,0> >::const_iterator::const_iterator

; 305  : 			{	// construct with null node pointer
; 306  : 			}

  00016	8b 45 fc	 mov	 eax, DWORD PTR _this$[ebp]
  00019	83 c4 04	 add	 esp, 4
  0001c	3b ec		 cmp	 ebp, esp
  0001e	e8 00 00 00 00	 call	 __RTC_CheckEsp
  00023	8b e5		 mov	 esp, ebp
  00025	5d		 pop	 ebp
  00026	c3		 ret	 0
??0iterator@?$_Tree@V?$_Tmap_traits@KPAVIData@@U?$less@K@std@@V?$allocator@U?$pair@$$CBKPAVIData@@@std@@@3@$0A@@std@@@std@@QAE@XZ ENDP ; std::_Tree<std::_Tmap_traits<unsigned long,IData *,std::less<unsigned long>,std::allocator<std::pair<unsigned long const ,IData *> >,0> >::iterator::iterator
_TEXT	ENDS
PUBLIC	??Fconst_iterator@?$_Tree@V?$_Tmap_traits@KPAVIData@@U?$less@K@std@@V?$allocator@U?$pair@$$CBKPAVIData@@@std@@@3@$0A@@std@@@std@@QAEAAV012@XZ ; std::_Tree<std::_Tmap_traits<unsigned long,IData *,std::less<unsigned long>,std::allocator<std::pair<unsigned long const ,IData *> >,0> >::const_iterator::operator--
; Function compile flags: /Odt /RTCsu
;	COMDAT ??Fiterator@?$_Tree@V?$_Tmap_traits@KPAVIData@@U?$less@K@std@@V?$allocator@U?$pair@$$CBKPAVIData@@@std@@@3@$0A@@std@@@std@@QAEAAV012@XZ
_TEXT	SEGMENT
_this$ = -4						; size = 4
??Fiterator@?$_Tree@V?$_Tmap_traits@KPAVIData@@U?$less@K@std@@V?$allocator@U?$pair@$$CBKPAVIData@@@std@@@3@$0A@@std@@@std@@QAEAAV012@XZ PROC NEAR ; std::_Tree<std::_Tmap_traits<unsigned long,IData *,std::less<unsigned long>,std::allocator<std::pair<unsigned long const ,IData *> >,0> >::iterator::operator--, COMDAT
; _this$ = ecx

; 339  : 			{	// predecrement

  00000	55		 push	 ebp
  00001	8b ec		 mov	 ebp, esp
  00003	51		 push	 ecx
  00004	c7 45 fc cc cc
	cc cc		 mov	 DWORD PTR [ebp-4], -858993460 ; ccccccccH
  0000b	89 4d fc	 mov	 DWORD PTR _this$[ebp], ecx

; 340  : 			--(*(const_iterator *)this);

  0000e	8b 4d fc	 mov	 ecx, DWORD PTR _this$[ebp]
  00011	e8 00 00 00 00	 call	 ??Fconst_iterator@?$_Tree@V?$_Tmap_traits@KPAVIData@@U?$less@K@std@@V?$allocator@U?$pair@$$CBKPAVIData@@@std@@@3@$0A@@std@@@std@@QAEAAV012@XZ ; std::_Tree<std::_Tmap_traits<unsigned long,IData *,std::less<unsigned long>,std::allocator<std::pair<unsigned long const ,IData *> >,0> >::const_iterator::operator--

; 341  : 			return (*this);

  00016	8b 45 fc	 mov	 eax, DWORD PTR _this$[ebp]

; 342  : 			}

  00019	83 c4 04	 add	 esp, 4
  0001c	3b ec		 cmp	 ebp, esp
  0001e	e8 00 00 00 00	 call	 __RTC_CheckEsp
  00023	8b e5		 mov	 esp, ebp
  00025	5d		 pop	 ebp
  00026	c3		 ret	 0
??Fiterator@?$_Tree@V?$_Tmap_traits@KPAVIData@@U?$less@K@std@@V?$allocator@U?$pair@$$CBKPAVIData@@@std@@@3@$0A@@std@@@std@@QAEAAV012@XZ ENDP ; std::_Tree<std::_Tmap_traits<unsigned long,IData *,std::less<unsigned long>,std::allocator<std::pair<unsigned long const ,IData *> >,0> >::iterator::operator--
; Function compile flags: /Odt /RTCsu
_TEXT	ENDS
;	COMDAT ??0const_iterator@?$_Tree@V?$_Tmap_traits@KPAVIData@@U?$less@K@std@@V?$allocator@U?$pair@$$CBKPAVIData@@@std@@@3@$0A@@std@@@std@@QAE@PAU_Node@?$_Tree_nod@V?$_Tmap_traits@KPAVIData@@U?$less@K@std@@V?$allocator@U?$pair@$$CBKPAVIData@@@std@@@3@$0A@@std@@@2@@Z
_TEXT	SEGMENT
_this$ = -4						; size = 4
__Pnode$ = 8						; size = 4
??0const_iterator@?$_Tree@V?$_Tmap_traits@KPAVIData@@U?$less@K@std@@V?$allocator@U?$pair@$$CBKPAVIData@@@std@@@3@$0A@@std@@@std@@QAE@PAU_Node@?$_Tree_nod@V?$_Tmap_traits@KPAVIData@@U?$less@K@std@@V?$allocator@U?$pair@$$CBKPAVIData@@@std@@@3@$0A@@std@@@2@@Z PROC NEAR ; std::_Tree<std::_Tmap_traits<unsigned long,IData *,std::less<unsigned long>,std::allocator<std::pair<unsigned long const ,IData *> >,0> >::const_iterator::const_iterator, COMDAT
; _this$ = ecx

; 200  : 			{	// construct with node pointer _Pnode

  00000	55		 push	 ebp
  00001	8b ec		 mov	 ebp, esp
  00003	51		 push	 ecx
  00004	c7 45 fc cc cc
	cc cc		 mov	 DWORD PTR [ebp-4], -858993460 ; ccccccccH
  0000b	89 4d fc	 mov	 DWORD PTR _this$[ebp], ecx
  0000e	8b 45 fc	 mov	 eax, DWORD PTR _this$[ebp]
  00011	8b 4d 08	 mov	 ecx, DWORD PTR __Pnode$[ebp]
  00014	89 08		 mov	 DWORD PTR [eax], ecx

; 201  : 			}

  00016	8b 45 fc	 mov	 eax, DWORD PTR _this$[ebp]
  00019	8b e5		 mov	 esp, ebp
  0001b	5d		 pop	 ebp
  0001c	c2 04 00	 ret	 4
??0const_iterator@?$_Tree@V?$_Tmap_traits@KPAVIData@@U?$less@K@std@@V?$allocator@U?$pair@$$CBKPAVIData@@@std@@@3@$0A@@std@@@std@@QAE@PAU_Node@?$_Tree_nod@V?$_Tmap_traits@KPAVIData@@U?$less@K@std@@V?$allocator@U?$pair@$$CBKPAVIData@@@std@@@3@$0A@@std@@@2@@Z ENDP ; std::_Tree<std::_Tmap_traits<unsigned long,IData *,std::less<unsigned long>,std::allocator<std::pair<unsigned long const ,IData *> >,0> >::const_iterator::const_iterator
; Function compile flags: /Odt /RTCsu
_TEXT	ENDS
;	COMDAT ??Dconst_iterator@?$_Tree@V?$_Tmap_traits@KPAVIData@@U?$less@K@std@@V?$allocator@U?$pair@$$CBKPAVIData@@@std@@@3@$0A@@std@@@std@@QBEABU?$pair@$$CBKPAVIData@@@2@XZ
_TEXT	SEGMENT
_this$ = -4						; size = 4
??Dconst_iterator@?$_Tree@V?$_Tmap_traits@KPAVIData@@U?$less@K@std@@V?$allocator@U?$pair@$$CBKPAVIData@@@std@@@3@$0A@@std@@@std@@QBEABU?$pair@$$CBKPAVIData@@@2@XZ PROC NEAR ; std::_Tree<std::_Tmap_traits<unsigned long,IData *,std::less<unsigned long>,std::allocator<std::pair<unsigned long const ,IData *> >,0> >::const_iterator::operator*, COMDAT
; _this$ = ecx

; 204  : 			{	// return designated value

  00000	55		 push	 ebp
  00001	8b ec		 mov	 ebp, esp
  00003	51		 push	 ecx
  00004	c7 45 fc cc cc
	cc cc		 mov	 DWORD PTR [ebp-4], -858993460 ; ccccccccH
  0000b	89 4d fc	 mov	 DWORD PTR _this$[ebp], ecx

; 205  : 			return (_Myval(_Ptr));

  0000e	8b 45 fc	 mov	 eax, DWORD PTR _this$[ebp]
  00011	8b 08		 mov	 ecx, DWORD PTR [eax]
  00013	51		 push	 ecx
  00014	e8 00 00 00 00	 call	 ?_Myval@?$_Tree@V?$_Tmap_traits@KPAVIData@@U?$less@K@std@@V?$allocator@U?$pair@$$CBKPAVIData@@@std@@@3@$0A@@std@@@std@@KAAAU?$pair@$$CBKPAVIData@@@2@PAU_Node@?$_Tree_nod@V?$_Tmap_traits@KPAVIData@@U?$less@K@std@@V?$allocator@U?$pair@$$CBKPAVIData@@@std@@@3@$0A@@std@@@2@@Z ; std::_Tree<std::_Tmap_traits<unsigned long,IData *,std::less<unsigned long>,std::allocator<std::pair<unsigned long const ,IData *> >,0> >::_Myval
  00019	83 c4 04	 add	 esp, 4

; 206  : 			}

  0001c	83 c4 04	 add	 esp, 4
  0001f	3b ec		 cmp	 ebp, esp
  00021	e8 00 00 00 00	 call	 __RTC_CheckEsp
  00026	8b e5		 mov	 esp, ebp
  00028	5d		 pop	 ebp
  00029	c3		 ret	 0
??Dconst_iterator@?$_Tree@V?$_Tmap_traits@KPAVIData@@U?$less@K@std@@V?$allocator@U?$pair@$$CBKPAVIData@@@std@@@3@$0A@@std@@@std@@QBEABU?$pair@$$CBKPAVIData@@@2@XZ ENDP ; std::_Tree<std::_Tmap_traits<unsigned long,IData *,std::less<unsigned long>,std::allocator<std::pair<unsigned long const ,IData *> >,0> >::const_iterator::operator*
_TEXT	ENDS
PUBLIC	?_Inc@const_iterator@?$_Tree@V?$_Tmap_traits@KPAVIData@@U?$less@K@std@@V?$allocator@U?$pair@$$CBKPAVIData@@@std@@@3@$0A@@std@@@std@@QAEXXZ ; std::_Tree<std::_Tmap_traits<unsigned long,IData *,std::less<unsigned long>,std::allocator<std::pair<unsigned long const ,IData *> >,0> >::const_iterator::_Inc
; Function compile flags: /Odt /RTCsu
;	COMDAT ??Econst_iterator@?$_Tree@V?$_Tmap_traits@KPAVIData@@U?$less@K@std@@V?$allocator@U?$pair@$$CBKPAVIData@@@std@@@3@$0A@@std@@@std@@QAEAAV012@XZ
_TEXT	SEGMENT
_this$ = -4						; size = 4
??Econst_iterator@?$_Tree@V?$_Tmap_traits@KPAVIData@@U?$less@K@std@@V?$allocator@U?$pair@$$CBKPAVIData@@@std@@@3@$0A@@std@@@std@@QAEAAV012@XZ PROC NEAR ; std::_Tree<std::_Tmap_traits<unsigned long,IData *,std::less<unsigned long>,std::allocator<std::pair<unsigned long const ,IData *> >,0> >::const_iterator::operator++, COMDAT
; _this$ = ecx

; 214  : 			{	// preincrement

  00000	55		 push	 ebp
  00001	8b ec		 mov	 ebp, esp
  00003	51		 push	 ecx
  00004	c7 45 fc cc cc
	cc cc		 mov	 DWORD PTR [ebp-4], -858993460 ; ccccccccH
  0000b	89 4d fc	 mov	 DWORD PTR _this$[ebp], ecx

; 215  : 			_Inc();

  0000e	8b 4d fc	 mov	 ecx, DWORD PTR _this$[ebp]
  00011	e8 00 00 00 00	 call	 ?_Inc@const_iterator@?$_Tree@V?$_Tmap_traits@KPAVIData@@U?$less@K@std@@V?$allocator@U?$pair@$$CBKPAVIData@@@std@@@3@$0A@@std@@@std@@QAEXXZ ; std::_Tree<std::_Tmap_traits<unsigned long,IData *,std::less<unsigned long>,std::allocator<std::pair<unsigned long const ,IData *> >,0> >::const_iterator::_Inc

; 216  : 			return (*this);

  00016	8b 45 fc	 mov	 eax, DWORD PTR _this$[ebp]

; 217  : 			}

  00019	83 c4 04	 add	 esp, 4
  0001c	3b ec		 cmp	 ebp, esp
  0001e	e8 00 00 00 00	 call	 __RTC_CheckEsp
  00023	8b e5		 mov	 esp, ebp
  00025	5d		 pop	 ebp
  00026	c3		 ret	 0
??Econst_iterator@?$_Tree@V?$_Tmap_traits@KPAVIData@@U?$less@K@std@@V?$allocator@U?$pair@$$CBKPAVIData@@@std@@@3@$0A@@std@@@std@@QAEAAV012@XZ ENDP ; std::_Tree<std::_Tmap_traits<unsigned long,IData *,std::less<unsigned long>,std::allocator<std::pair<unsigned long const ,IData *> >,0> >::const_iterator::operator++
; Function compile flags: /Odt /RTCsu
; File d:\program files (x86)\microsoft visual studio .net 2003\vc7\include\utility
_TEXT	ENDS
;	COMDAT ??0?$pair@Viterator@?$_Tree@V?$_Tmap_traits@KPAVIData@@U?$less@K@std@@V?$allocator@U?$pair@$$CBKPAVIData@@@std@@@3@$0A@@std@@@std@@V123@@std@@QAE@ABViterator@?$_Tree@V?$_Tmap_traits@KPAVIData@@U?$less@K@std@@V?$allocator@U?$pair@$$CBKPAVIData@@@std@@@3@$0A@@std@@@1@0@Z
_TEXT	SEGMENT
_this$ = -4						; size = 4
__Val1$ = 8						; size = 4
__Val2$ = 12						; size = 4
??0?$pair@Viterator@?$_Tree@V?$_Tmap_traits@KPAVIData@@U?$less@K@std@@V?$allocator@U?$pair@$$CBKPAVIData@@@std@@@3@$0A@@std@@@std@@V123@@std@@QAE@ABViterator@?$_Tree@V?$_Tmap_traits@KPAVIData@@U?$less@K@std@@V?$allocator@U?$pair@$$CBKPAVIData@@@std@@@3@$0A@@std@@@1@0@Z PROC NEAR ; std::pair<std::_Tree<std::_Tmap_traits<unsigned long,IData *,std::less<unsigned long>,std::allocator<std::pair<unsigned long const ,IData *> >,0> >::iterator,std::_Tree<std::_Tmap_traits<unsigned long,IData *,std::less<unsigned long>,std::allocator<std::pair<unsigned long const ,IData *> >,0> >::iterator>::pair<std::_Tree<std::_Tmap_traits<unsigned long,IData *,std::less<unsigned long>,std::allocator<std::pair<unsigned long const ,IData *> >,0> >::iterator,std::_Tree<std::_Tmap_traits<unsigned long,IData *,std::less<unsigned long>,std::allocator<std::pair<unsigned long const ,IData *> >,0> >::iterator>, COMDAT
; _this$ = ecx

; 34   : 		{	// construct from specified values

  00000	55		 push	 ebp
  00001	8b ec		 mov	 ebp, esp
  00003	51		 push	 ecx
  00004	c7 45 fc cc cc
	cc cc		 mov	 DWORD PTR [ebp-4], -858993460 ; ccccccccH
  0000b	89 4d fc	 mov	 DWORD PTR _this$[ebp], ecx
  0000e	8b 45 08	 mov	 eax, DWORD PTR __Val1$[ebp]
  00011	8b 08		 mov	 ecx, DWORD PTR [eax]
  00013	8b 55 fc	 mov	 edx, DWORD PTR _this$[ebp]
  00016	89 0a		 mov	 DWORD PTR [edx], ecx
  00018	8b 45 0c	 mov	 eax, DWORD PTR __Val2$[ebp]
  0001b	8b 08		 mov	 ecx, DWORD PTR [eax]
  0001d	8b 55 fc	 mov	 edx, DWORD PTR _this$[ebp]
  00020	89 4a 04	 mov	 DWORD PTR [edx+4], ecx

; 35   : 		}

  00023	8b 45 fc	 mov	 eax, DWORD PTR _this$[ebp]
  00026	8b e5		 mov	 esp, ebp
  00028	5d		 pop	 ebp
  00029	c2 08 00	 ret	 8
??0?$pair@Viterator@?$_Tree@V?$_Tmap_traits@KPAVIData@@U?$less@K@std@@V?$allocator@U?$pair@$$CBKPAVIData@@@std@@@3@$0A@@std@@@std@@V123@@std@@QAE@ABViterator@?$_Tree@V?$_Tmap_traits@KPAVIData@@U?$less@K@std@@V?$allocator@U?$pair@$$CBKPAVIData@@@std@@@3@$0A@@std@@@1@0@Z ENDP ; std::pair<std::_Tree<std::_Tmap_traits<unsigned long,IData *,std::less<unsigned long>,std::allocator<std::pair<unsigned long const ,IData *> >,0> >::iterator,std::_Tree<std::_Tmap_traits<unsigned long,IData *,std::less<unsigned long>,std::allocator<std::pair<unsigned long const ,IData *> >,0> >::iterator>::pair<std::_Tree<std::_Tmap_traits<unsigned long,IData *,std::less<unsigned long>,std::allocator<std::pair<unsigned long const ,IData *> >,0> >::iterator,std::_Tree<std::_Tmap_traits<unsigned long,IData *,std::less<unsigned long>,std::allocator<std::pair<unsigned long const ,IData *> >,0> >::iterator>
_TEXT	ENDS
PUBLIC	??_R1A@?0A@A@exception@@8			; exception::`RTTI Base Class Descriptor at (0,-1,0,0)'
PUBLIC	??_R1A@?0A@A@logic_error@std@@8			; std::logic_error::`RTTI Base Class Descriptor at (0,-1,0,0)'
PUBLIC	??_R4length_error@std@@6B@			; std::length_error::`RTTI Complete Object Locator'
PUBLIC	??_R3length_error@std@@8			; std::length_error::`RTTI Class Hierarchy Descriptor'
PUBLIC	??_R2length_error@std@@8			; std::length_error::`RTTI Base Class Array'
PUBLIC	??_R1A@?0A@A@length_error@std@@8		; std::length_error::`RTTI Base Class Descriptor at (0,-1,0,0)'
PUBLIC	?what@logic_error@std@@UBEPBDXZ			; std::logic_error::what
PUBLIC	??_7length_error@std@@6B@			; std::length_error::`vftable'
PUBLIC	??_Glength_error@std@@UAEPAXI@Z			; std::length_error::`scalar deleting destructor'
EXTRN	??_Elength_error@std@@UAEPAXI@Z:NEAR		; std::length_error::`vector deleting destructor'
;	COMDAT ??_7length_error@std@@6B@
CONST	SEGMENT
??_7length_error@std@@6B@ DD FLAT:??_R4length_error@std@@6B@ ; std::length_error::`vftable'
	DD	FLAT:??_Elength_error@std@@UAEPAXI@Z
	DD	FLAT:?what@logic_error@std@@UBEPBDXZ
CONST	ENDS
;	COMDAT ??_R4length_error@std@@6B@
rdata$r	SEGMENT
??_R4length_error@std@@6B@ DD 00H			; std::length_error::`RTTI Complete Object Locator'
	DD	00H
	DD	00H
	DD	FLAT:??_R0?AVlength_error@std@@@8
	DD	FLAT:??_R3length_error@std@@8
rdata$r	ENDS
;	COMDAT ??_R3length_error@std@@8
rdata$r	SEGMENT
??_R3length_error@std@@8 DD 00H				; std::length_error::`RTTI Class Hierarchy Descriptor'
	DD	00H
	DD	03H
	DD	FLAT:??_R2length_error@std@@8
rdata$r	ENDS
;	COMDAT ??_R2length_error@std@@8
rdata$r	SEGMENT
??_R2length_error@std@@8 DD FLAT:??_R1A@?0A@A@length_error@std@@8 ; std::length_error::`RTTI Base Class Array'
	DD	FLAT:??_R1A@?0A@A@logic_error@std@@8
	DD	FLAT:??_R1A@?0A@A@exception@@8
rdata$r	ENDS
;	COMDAT ??_R1A@?0A@A@length_error@std@@8
rdata$r	SEGMENT
??_R1A@?0A@A@length_error@std@@8 DD FLAT:??_R0?AVlength_error@std@@@8 ; std::length_error::`RTTI Base Class Descriptor at (0,-1,0,0)'
	DD	02H
	DD	00H
	DD	0ffffffffH
	DD	00H
	DD	00H
rdata$r	ENDS
;	COMDAT ??_R1A@?0A@A@logic_error@std@@8
rdata$r	SEGMENT
??_R1A@?0A@A@logic_error@std@@8 DD FLAT:??_R0?AVlogic_error@std@@@8 ; std::logic_error::`RTTI Base Class Descriptor at (0,-1,0,0)'
	DD	01H
	DD	00H
	DD	0ffffffffH
	DD	00H
	DD	00H
rdata$r	ENDS
;	COMDAT ??_R1A@?0A@A@exception@@8
rdata$r	SEGMENT
??_R1A@?0A@A@exception@@8 DD FLAT:??_R0?AVexception@@@8	; exception::`RTTI Base Class Descriptor at (0,-1,0,0)'
	DD	00H
	DD	00H
	DD	0ffffffffH
	DD	00H
	DD	00H
; Function compile flags: /Odt /RTCsu
rdata$r	ENDS
;	COMDAT ??0length_error@std@@QAE@ABV01@@Z
_TEXT	SEGMENT
_this$ = -4						; size = 4
___that$ = 8						; size = 4
??0length_error@std@@QAE@ABV01@@Z PROC NEAR		; std::length_error::length_error, COMDAT
; _this$ = ecx
  00000	55		 push	 ebp
  00001	8b ec		 mov	 ebp, esp
  00003	51		 push	 ecx
  00004	c7 45 fc cc cc
	cc cc		 mov	 DWORD PTR [ebp-4], -858993460 ; ccccccccH
  0000b	89 4d fc	 mov	 DWORD PTR _this$[ebp], ecx
  0000e	8b 45 08	 mov	 eax, DWORD PTR ___that$[ebp]
  00011	50		 push	 eax
  00012	8b 4d fc	 mov	 ecx, DWORD PTR _this$[ebp]
  00015	e8 00 00 00 00	 call	 ??0logic_error@std@@QAE@ABV01@@Z
  0001a	8b 4d fc	 mov	 ecx, DWORD PTR _this$[ebp]
  0001d	c7 01 00 00 00
	00		 mov	 DWORD PTR [ecx], OFFSET FLAT:??_7length_error@std@@6B@
  00023	8b 45 fc	 mov	 eax, DWORD PTR _this$[ebp]
  00026	83 c4 04	 add	 esp, 4
  00029	3b ec		 cmp	 ebp, esp
  0002b	e8 00 00 00 00	 call	 __RTC_CheckEsp
  00030	8b e5		 mov	 esp, ebp
  00032	5d		 pop	 ebp
  00033	c2 04 00	 ret	 4
??0length_error@std@@QAE@ABV01@@Z ENDP			; std::length_error::length_error
; Function compile flags: /Odt /RTCsu
; File d:\program files (x86)\microsoft visual studio .net 2003\vc7\include\xtree
_TEXT	ENDS
;	COMDAT ?_Color@?$_Tree@V?$_Tmap_traits@KPAVIData@@U?$less@K@std@@V?$allocator@U?$pair@$$CBKPAVIData@@@std@@@3@$0A@@std@@@std@@KAAADPAU_Node@?$_Tree_nod@V?$_Tmap_traits@KPAVIData@@U?$less@K@std@@V?$allocator@U?$pair@$$CBKPAVIData@@@std@@@3@$0A@@std@@@2@@Z
_TEXT	SEGMENT
__Pnode$ = 8						; size = 4
?_Color@?$_Tree@V?$_Tmap_traits@KPAVIData@@U?$less@K@std@@V?$allocator@U?$pair@$$CBKPAVIData@@@std@@@3@$0A@@std@@@std@@KAAADPAU_Node@?$_Tree_nod@V?$_Tmap_traits@KPAVIData@@U?$less@K@std@@V?$allocator@U?$pair@$$CBKPAVIData@@@std@@@3@$0A@@std@@@2@@Z PROC NEAR ; std::_Tree<std::_Tmap_traits<unsigned long,IData *,std::less<unsigned long>,std::allocator<std::pair<unsigned long const ,IData *> >,0> >::_Color, COMDAT

; 131  : 		{	// return reference to color in node

  00000	55		 push	 ebp
  00001	8b ec		 mov	 ebp, esp

; 132  : 		return ((_Charref)(*_Pnode)._Color);

  00003	8b 45 08	 mov	 eax, DWORD PTR __Pnode$[ebp]
  00006	83 c0 14	 add	 eax, 20			; 00000014H

; 133  : 		}

  00009	5d		 pop	 ebp
  0000a	c3		 ret	 0
?_Color@?$_Tree@V?$_Tmap_traits@KPAVIData@@U?$less@K@std@@V?$allocator@U?$pair@$$CBKPAVIData@@@std@@@3@$0A@@std@@@std@@KAAADPAU_Node@?$_Tree_nod@V?$_Tmap_traits@KPAVIData@@U?$less@K@std@@V?$allocator@U?$pair@$$CBKPAVIData@@@std@@@3@$0A@@std@@@2@@Z ENDP ; std::_Tree<std::_Tmap_traits<unsigned long,IData *,std::less<unsigned long>,std::allocator<std::pair<unsigned long const ,IData *> >,0> >::_Color
_TEXT	ENDS
PUBLIC	?max_size@?$allocator@U?$pair@$$CBKPAVIData@@@std@@@std@@QBEIXZ ; std::allocator<std::pair<unsigned long const ,IData *> >::max_size
; Function compile flags: /Odt /RTCsu
;	COMDAT ?max_size@?$_Tree@V?$_Tmap_traits@KPAVIData@@U?$less@K@std@@V?$allocator@U?$pair@$$CBKPAVIData@@@std@@@3@$0A@@std@@@std@@QBEIXZ
_TEXT	SEGMENT
_this$ = -4						; size = 4
?max_size@?$_Tree@V?$_Tmap_traits@KPAVIData@@U?$less@K@std@@V?$allocator@U?$pair@$$CBKPAVIData@@@std@@@3@$0A@@std@@@std@@QBEIXZ PROC NEAR ; std::_Tree<std::_Tmap_traits<unsigned long,IData *,std::less<unsigned long>,std::allocator<std::pair<unsigned long const ,IData *> >,0> >::max_size, COMDAT
; _this$ = ecx

; 452  : 		{	// return maximum possible length of sequence

  00000	55		 push	 ebp
  00001	8b ec		 mov	 ebp, esp
  00003	51		 push	 ecx
  00004	c7 45 fc cc cc
	cc cc		 mov	 DWORD PTR [ebp-4], -858993460 ; ccccccccH
  0000b	89 4d fc	 mov	 DWORD PTR _this$[ebp], ecx

; 453  : 		return (this->_Alval.max_size());

  0000e	8b 4d fc	 mov	 ecx, DWORD PTR _this$[ebp]
  00011	83 c1 03	 add	 ecx, 3
  00014	e8 00 00 00 00	 call	 ?max_size@?$allocator@U?$pair@$$CBKPAVIData@@@std@@@std@@QBEIXZ ; std::allocator<std::pair<unsigned long const ,IData *> >::max_size

; 454  : 		}

  00019	83 c4 04	 add	 esp, 4
  0001c	3b ec		 cmp	 ebp, esp
  0001e	e8 00 00 00 00	 call	 __RTC_CheckEsp
  00023	8b e5		 mov	 esp, ebp
  00025	5d		 pop	 ebp
  00026	c3		 ret	 0
?max_size@?$_Tree@V?$_Tmap_traits@KPAVIData@@U?$less@K@std@@V?$allocator@U?$pair@$$CBKPAVIData@@@std@@@3@$0A@@std@@@std@@QBEIXZ ENDP ; std::_Tree<std::_Tmap_traits<unsigned long,IData *,std::less<unsigned long>,std::allocator<std::pair<unsigned long const ,IData *> >,0> >::max_size
; Function compile flags: /Odt /RTCsu
_TEXT	ENDS
;	COMDAT ?_Lrotate@?$_Tree@V?$_Tmap_traits@KPAVIData@@U?$less@K@std@@V?$allocator@U?$pair@$$CBKPAVIData@@@std@@@3@$0A@@std@@@std@@IAEXPAU_Node@?$_Tree_nod@V?$_Tmap_traits@KPAVIData@@U?$less@K@std@@V?$allocator@U?$pair@$$CBKPAVIData@@@std@@@3@$0A@@std@@@2@@Z
_TEXT	SEGMENT
__Pnode$ = -8						; size = 4
_this$ = -4						; size = 4
__Wherenode$ = 8					; size = 4
?_Lrotate@?$_Tree@V?$_Tmap_traits@KPAVIData@@U?$less@K@std@@V?$allocator@U?$pair@$$CBKPAVIData@@@std@@@3@$0A@@std@@@std@@IAEXPAU_Node@?$_Tree_nod@V?$_Tmap_traits@KPAVIData@@U?$less@K@std@@V?$allocator@U?$pair@$$CBKPAVIData@@@std@@@3@$0A@@std@@@2@@Z PROC NEAR ; std::_Tree<std::_Tmap_traits<unsigned long,IData *,std::less<unsigned long>,std::allocator<std::pair<unsigned long const ,IData *> >,0> >::_Lrotate, COMDAT
; _this$ = ecx

; 1014 : 		{	// promote right node to root of subtree

  00000	55		 push	 ebp
  00001	8b ec		 mov	 ebp, esp
  00003	83 ec 08	 sub	 esp, 8
  00006	56		 push	 esi
  00007	c7 45 f8 cc cc
	cc cc		 mov	 DWORD PTR [ebp-8], -858993460 ; ccccccccH
  0000e	c7 45 fc cc cc
	cc cc		 mov	 DWORD PTR [ebp-4], -858993460 ; ccccccccH
  00015	89 4d fc	 mov	 DWORD PTR _this$[ebp], ecx

; 1015 : 		_Nodeptr _Pnode = _Right(_Wherenode);

  00018	8b 45 08	 mov	 eax, DWORD PTR __Wherenode$[ebp]
  0001b	50		 push	 eax
  0001c	e8 00 00 00 00	 call	 ?_Right@?$_Tree@V?$_Tmap_traits@KPAVIData@@U?$less@K@std@@V?$allocator@U?$pair@$$CBKPAVIData@@@std@@@3@$0A@@std@@@std@@KAAAPAU_Node@?$_Tree_nod@V?$_Tmap_traits@KPAVIData@@U?$less@K@std@@V?$allocator@U?$pair@$$CBKPAVIData@@@std@@@3@$0A@@std@@@2@PAU342@@Z ; std::_Tree<std::_Tmap_traits<unsigned long,IData *,std::less<unsigned long>,std::allocator<std::pair<unsigned long const ,IData *> >,0> >::_Right
  00021	83 c4 04	 add	 esp, 4
  00024	8b 08		 mov	 ecx, DWORD PTR [eax]
  00026	89 4d f8	 mov	 DWORD PTR __Pnode$[ebp], ecx

; 1016 : 		_Right(_Wherenode) = _Left(_Pnode);

  00029	8b 55 f8	 mov	 edx, DWORD PTR __Pnode$[ebp]
  0002c	52		 push	 edx
  0002d	e8 00 00 00 00	 call	 ?_Left@?$_Tree@V?$_Tmap_traits@KPAVIData@@U?$less@K@std@@V?$allocator@U?$pair@$$CBKPAVIData@@@std@@@3@$0A@@std@@@std@@KAAAPAU_Node@?$_Tree_nod@V?$_Tmap_traits@KPAVIData@@U?$less@K@std@@V?$allocator@U?$pair@$$CBKPAVIData@@@std@@@3@$0A@@std@@@2@PAU342@@Z ; std::_Tree<std::_Tmap_traits<unsigned long,IData *,std::less<unsigned long>,std::allocator<std::pair<unsigned long const ,IData *> >,0> >::_Left
  00032	83 c4 04	 add	 esp, 4
  00035	8b f0		 mov	 esi, eax
  00037	8b 45 08	 mov	 eax, DWORD PTR __Wherenode$[ebp]
  0003a	50		 push	 eax
  0003b	e8 00 00 00 00	 call	 ?_Right@?$_Tree@V?$_Tmap_traits@KPAVIData@@U?$less@K@std@@V?$allocator@U?$pair@$$CBKPAVIData@@@std@@@3@$0A@@std@@@std@@KAAAPAU_Node@?$_Tree_nod@V?$_Tmap_traits@KPAVIData@@U?$less@K@std@@V?$allocator@U?$pair@$$CBKPAVIData@@@std@@@3@$0A@@std@@@2@PAU342@@Z ; std::_Tree<std::_Tmap_traits<unsigned long,IData *,std::less<unsigned long>,std::allocator<std::pair<unsigned long const ,IData *> >,0> >::_Right
  00040	83 c4 04	 add	 esp, 4
  00043	8b 0e		 mov	 ecx, DWORD PTR [esi]
  00045	89 08		 mov	 DWORD PTR [eax], ecx

; 1017 : 
; 1018 : 		if (!_Isnil(_Left(_Pnode)))

  00047	8b 55 f8	 mov	 edx, DWORD PTR __Pnode$[ebp]
  0004a	52		 push	 edx
  0004b	e8 00 00 00 00	 call	 ?_Left@?$_Tree@V?$_Tmap_traits@KPAVIData@@U?$less@K@std@@V?$allocator@U?$pair@$$CBKPAVIData@@@std@@@3@$0A@@std@@@std@@KAAAPAU_Node@?$_Tree_nod@V?$_Tmap_traits@KPAVIData@@U?$less@K@std@@V?$allocator@U?$pair@$$CBKPAVIData@@@std@@@3@$0A@@std@@@2@PAU342@@Z ; std::_Tree<std::_Tmap_traits<unsigned long,IData *,std::less<unsigned long>,std::allocator<std::pair<unsigned long const ,IData *> >,0> >::_Left
  00050	83 c4 04	 add	 esp, 4
  00053	8b 00		 mov	 eax, DWORD PTR [eax]
  00055	50		 push	 eax
  00056	e8 00 00 00 00	 call	 ?_Isnil@?$_Tree@V?$_Tmap_traits@KPAVIData@@U?$less@K@std@@V?$allocator@U?$pair@$$CBKPAVIData@@@std@@@3@$0A@@std@@@std@@KAAADPAU_Node@?$_Tree_nod@V?$_Tmap_traits@KPAVIData@@U?$less@K@std@@V?$allocator@U?$pair@$$CBKPAVIData@@@std@@@3@$0A@@std@@@2@@Z ; std::_Tree<std::_Tmap_traits<unsigned long,IData *,std::less<unsigned long>,std::allocator<std::pair<unsigned long const ,IData *> >,0> >::_Isnil
  0005b	83 c4 04	 add	 esp, 4
  0005e	0f be 08	 movsx	 ecx, BYTE PTR [eax]
  00061	85 c9		 test	 ecx, ecx
  00063	75 1c		 jne	 SHORT $L189478

; 1019 : 			_Parent(_Left(_Pnode)) = _Wherenode;

  00065	8b 55 f8	 mov	 edx, DWORD PTR __Pnode$[ebp]
  00068	52		 push	 edx
  00069	e8 00 00 00 00	 call	 ?_Left@?$_Tree@V?$_Tmap_traits@KPAVIData@@U?$less@K@std@@V?$allocator@U?$pair@$$CBKPAVIData@@@std@@@3@$0A@@std@@@std@@KAAAPAU_Node@?$_Tree_nod@V?$_Tmap_traits@KPAVIData@@U?$less@K@std@@V?$allocator@U?$pair@$$CBKPAVIData@@@std@@@3@$0A@@std@@@2@PAU342@@Z ; std::_Tree<std::_Tmap_traits<unsigned long,IData *,std::less<unsigned long>,std::allocator<std::pair<unsigned long const ,IData *> >,0> >::_Left
  0006e	83 c4 04	 add	 esp, 4
  00071	8b 00		 mov	 eax, DWORD PTR [eax]
  00073	50		 push	 eax
  00074	e8 00 00 00 00	 call	 ?_Parent@?$_Tree@V?$_Tmap_traits@KPAVIData@@U?$less@K@std@@V?$allocator@U?$pair@$$CBKPAVIData@@@std@@@3@$0A@@std@@@std@@KAAAPAU_Node@?$_Tree_nod@V?$_Tmap_traits@KPAVIData@@U?$less@K@std@@V?$allocator@U?$pair@$$CBKPAVIData@@@std@@@3@$0A@@std@@@2@PAU342@@Z ; std::_Tree<std::_Tmap_traits<unsigned long,IData *,std::less<unsigned long>,std::allocator<std::pair<unsigned long const ,IData *> >,0> >::_Parent
  00079	83 c4 04	 add	 esp, 4
  0007c	8b 4d 08	 mov	 ecx, DWORD PTR __Wherenode$[ebp]
  0007f	89 08		 mov	 DWORD PTR [eax], ecx
$L189478:

; 1020 : 		_Parent(_Pnode) = _Parent(_Wherenode);

  00081	8b 55 08	 mov	 edx, DWORD PTR __Wherenode$[ebp]
  00084	52		 push	 edx
  00085	e8 00 00 00 00	 call	 ?_Parent@?$_Tree@V?$_Tmap_traits@KPAVIData@@U?$less@K@std@@V?$allocator@U?$pair@$$CBKPAVIData@@@std@@@3@$0A@@std@@@std@@KAAAPAU_Node@?$_Tree_nod@V?$_Tmap_traits@KPAVIData@@U?$less@K@std@@V?$allocator@U?$pair@$$CBKPAVIData@@@std@@@3@$0A@@std@@@2@PAU342@@Z ; std::_Tree<std::_Tmap_traits<unsigned long,IData *,std::less<unsigned long>,std::allocator<std::pair<unsigned long const ,IData *> >,0> >::_Parent
  0008a	83 c4 04	 add	 esp, 4
  0008d	8b f0		 mov	 esi, eax
  0008f	8b 45 f8	 mov	 eax, DWORD PTR __Pnode$[ebp]
  00092	50		 push	 eax
  00093	e8 00 00 00 00	 call	 ?_Parent@?$_Tree@V?$_Tmap_traits@KPAVIData@@U?$less@K@std@@V?$allocator@U?$pair@$$CBKPAVIData@@@std@@@3@$0A@@std@@@std@@KAAAPAU_Node@?$_Tree_nod@V?$_Tmap_traits@KPAVIData@@U?$less@K@std@@V?$allocator@U?$pair@$$CBKPAVIData@@@std@@@3@$0A@@std@@@2@PAU342@@Z ; std::_Tree<std::_Tmap_traits<unsigned long,IData *,std::less<unsigned long>,std::allocator<std::pair<unsigned long const ,IData *> >,0> >::_Parent
  00098	83 c4 04	 add	 esp, 4
  0009b	8b 0e		 mov	 ecx, DWORD PTR [esi]
  0009d	89 08		 mov	 DWORD PTR [eax], ecx

; 1021 : 
; 1022 : 		if (_Wherenode == _Root())

  0009f	8b 4d fc	 mov	 ecx, DWORD PTR _this$[ebp]
  000a2	e8 00 00 00 00	 call	 ?_Root@?$_Tree@V?$_Tmap_traits@KPAVIData@@U?$less@K@std@@V?$allocator@U?$pair@$$CBKPAVIData@@@std@@@3@$0A@@std@@@std@@IAEAAPAU_Node@?$_Tree_nod@V?$_Tmap_traits@KPAVIData@@U?$less@K@std@@V?$allocator@U?$pair@$$CBKPAVIData@@@std@@@3@$0A@@std@@@2@XZ ; std::_Tree<std::_Tmap_traits<unsigned long,IData *,std::less<unsigned long>,std::allocator<std::pair<unsigned long const ,IData *> >,0> >::_Root
  000a7	8b 55 08	 mov	 edx, DWORD PTR __Wherenode$[ebp]
  000aa	3b 10		 cmp	 edx, DWORD PTR [eax]
  000ac	75 0f		 jne	 SHORT $L189479

; 1023 : 			_Root() = _Pnode;

  000ae	8b 4d fc	 mov	 ecx, DWORD PTR _this$[ebp]
  000b1	e8 00 00 00 00	 call	 ?_Root@?$_Tree@V?$_Tmap_traits@KPAVIData@@U?$less@K@std@@V?$allocator@U?$pair@$$CBKPAVIData@@@std@@@3@$0A@@std@@@std@@IAEAAPAU_Node@?$_Tree_nod@V?$_Tmap_traits@KPAVIData@@U?$less@K@std@@V?$allocator@U?$pair@$$CBKPAVIData@@@std@@@3@$0A@@std@@@2@XZ ; std::_Tree<std::_Tmap_traits<unsigned long,IData *,std::less<unsigned long>,std::allocator<std::pair<unsigned long const ,IData *> >,0> >::_Root
  000b6	8b 4d f8	 mov	 ecx, DWORD PTR __Pnode$[ebp]
  000b9	89 08		 mov	 DWORD PTR [eax], ecx

; 1024 : 		else if (_Wherenode == _Left(_Parent(_Wherenode)))

  000bb	eb 58		 jmp	 SHORT $L189480
$L189479:
  000bd	8b 55 08	 mov	 edx, DWORD PTR __Wherenode$[ebp]
  000c0	52		 push	 edx
  000c1	e8 00 00 00 00	 call	 ?_Parent@?$_Tree@V?$_Tmap_traits@KPAVIData@@U?$less@K@std@@V?$allocator@U?$pair@$$CBKPAVIData@@@std@@@3@$0A@@std@@@std@@KAAAPAU_Node@?$_Tree_nod@V?$_Tmap_traits@KPAVIData@@U?$less@K@std@@V?$allocator@U?$pair@$$CBKPAVIData@@@std@@@3@$0A@@std@@@2@PAU342@@Z ; std::_Tree<std::_Tmap_traits<unsigned long,IData *,std::less<unsigned long>,std::allocator<std::pair<unsigned long const ,IData *> >,0> >::_Parent
  000c6	83 c4 04	 add	 esp, 4
  000c9	8b 00		 mov	 eax, DWORD PTR [eax]
  000cb	50		 push	 eax
  000cc	e8 00 00 00 00	 call	 ?_Left@?$_Tree@V?$_Tmap_traits@KPAVIData@@U?$less@K@std@@V?$allocator@U?$pair@$$CBKPAVIData@@@std@@@3@$0A@@std@@@std@@KAAAPAU_Node@?$_Tree_nod@V?$_Tmap_traits@KPAVIData@@U?$less@K@std@@V?$allocator@U?$pair@$$CBKPAVIData@@@std@@@3@$0A@@std@@@2@PAU342@@Z ; std::_Tree<std::_Tmap_traits<unsigned long,IData *,std::less<unsigned long>,std::allocator<std::pair<unsigned long const ,IData *> >,0> >::_Left
  000d1	83 c4 04	 add	 esp, 4
  000d4	8b 4d 08	 mov	 ecx, DWORD PTR __Wherenode$[ebp]
  000d7	3b 08		 cmp	 ecx, DWORD PTR [eax]
  000d9	75 1e		 jne	 SHORT $L189481

; 1025 : 			_Left(_Parent(_Wherenode)) = _Pnode;

  000db	8b 55 08	 mov	 edx, DWORD PTR __Wherenode$[ebp]
  000de	52		 push	 edx
  000df	e8 00 00 00 00	 call	 ?_Parent@?$_Tree@V?$_Tmap_traits@KPAVIData@@U?$less@K@std@@V?$allocator@U?$pair@$$CBKPAVIData@@@std@@@3@$0A@@std@@@std@@KAAAPAU_Node@?$_Tree_nod@V?$_Tmap_traits@KPAVIData@@U?$less@K@std@@V?$allocator@U?$pair@$$CBKPAVIData@@@std@@@3@$0A@@std@@@2@PAU342@@Z ; std::_Tree<std::_Tmap_traits<unsigned long,IData *,std::less<unsigned long>,std::allocator<std::pair<unsigned long const ,IData *> >,0> >::_Parent
  000e4	83 c4 04	 add	 esp, 4
  000e7	8b 00		 mov	 eax, DWORD PTR [eax]
  000e9	50		 push	 eax
  000ea	e8 00 00 00 00	 call	 ?_Left@?$_Tree@V?$_Tmap_traits@KPAVIData@@U?$less@K@std@@V?$allocator@U?$pair@$$CBKPAVIData@@@std@@@3@$0A@@std@@@std@@KAAAPAU_Node@?$_Tree_nod@V?$_Tmap_traits@KPAVIData@@U?$less@K@std@@V?$allocator@U?$pair@$$CBKPAVIData@@@std@@@3@$0A@@std@@@2@PAU342@@Z ; std::_Tree<std::_Tmap_traits<unsigned long,IData *,std::less<unsigned long>,std::allocator<std::pair<unsigned long const ,IData *> >,0> >::_Left
  000ef	83 c4 04	 add	 esp, 4
  000f2	8b 4d f8	 mov	 ecx, DWORD PTR __Pnode$[ebp]
  000f5	89 08		 mov	 DWORD PTR [eax], ecx

; 1026 : 		else

  000f7	eb 1c		 jmp	 SHORT $L189480
$L189481:

; 1027 : 			_Right(_Parent(_Wherenode)) = _Pnode;

  000f9	8b 55 08	 mov	 edx, DWORD PTR __Wherenode$[ebp]
  000fc	52		 push	 edx
  000fd	e8 00 00 00 00	 call	 ?_Parent@?$_Tree@V?$_Tmap_traits@KPAVIData@@U?$less@K@std@@V?$allocator@U?$pair@$$CBKPAVIData@@@std@@@3@$0A@@std@@@std@@KAAAPAU_Node@?$_Tree_nod@V?$_Tmap_traits@KPAVIData@@U?$less@K@std@@V?$allocator@U?$pair@$$CBKPAVIData@@@std@@@3@$0A@@std@@@2@PAU342@@Z ; std::_Tree<std::_Tmap_traits<unsigned long,IData *,std::less<unsigned long>,std::allocator<std::pair<unsigned long const ,IData *> >,0> >::_Parent
  00102	83 c4 04	 add	 esp, 4
  00105	8b 00		 mov	 eax, DWORD PTR [eax]
  00107	50		 push	 eax
  00108	e8 00 00 00 00	 call	 ?_Right@?$_Tree@V?$_Tmap_traits@KPAVIData@@U?$less@K@std@@V?$allocator@U?$pair@$$CBKPAVIData@@@std@@@3@$0A@@std@@@std@@KAAAPAU_Node@?$_Tree_nod@V?$_Tmap_traits@KPAVIData@@U?$less@K@std@@V?$allocator@U?$pair@$$CBKPAVIData@@@std@@@3@$0A@@std@@@2@PAU342@@Z ; std::_Tree<std::_Tmap_traits<unsigned long,IData *,std::less<unsigned long>,std::allocator<std::pair<unsigned long const ,IData *> >,0> >::_Right
  0010d	83 c4 04	 add	 esp, 4
  00110	8b 4d f8	 mov	 ecx, DWORD PTR __Pnode$[ebp]
  00113	89 08		 mov	 DWORD PTR [eax], ecx
$L189480:

; 1028 : 
; 1029 : 		_Left(_Pnode) = _Wherenode;

  00115	8b 55 f8	 mov	 edx, DWORD PTR __Pnode$[ebp]
  00118	52		 push	 edx
  00119	e8 00 00 00 00	 call	 ?_Left@?$_Tree@V?$_Tmap_traits@KPAVIData@@U?$less@K@std@@V?$allocator@U?$pair@$$CBKPAVIData@@@std@@@3@$0A@@std@@@std@@KAAAPAU_Node@?$_Tree_nod@V?$_Tmap_traits@KPAVIData@@U?$less@K@std@@V?$allocator@U?$pair@$$CBKPAVIData@@@std@@@3@$0A@@std@@@2@PAU342@@Z ; std::_Tree<std::_Tmap_traits<unsigned long,IData *,std::less<unsigned long>,std::allocator<std::pair<unsigned long const ,IData *> >,0> >::_Left
  0011e	83 c4 04	 add	 esp, 4
  00121	8b 4d 08	 mov	 ecx, DWORD PTR __Wherenode$[ebp]
  00124	89 08		 mov	 DWORD PTR [eax], ecx

; 1030 : 		_Parent(_Wherenode) = _Pnode;

  00126	8b 55 08	 mov	 edx, DWORD PTR __Wherenode$[ebp]
  00129	52		 push	 edx
  0012a	e8 00 00 00 00	 call	 ?_Parent@?$_Tree@V?$_Tmap_traits@KPAVIData@@U?$less@K@std@@V?$allocator@U?$pair@$$CBKPAVIData@@@std@@@3@$0A@@std@@@std@@KAAAPAU_Node@?$_Tree_nod@V?$_Tmap_traits@KPAVIData@@U?$less@K@std@@V?$allocator@U?$pair@$$CBKPAVIData@@@std@@@3@$0A@@std@@@2@PAU342@@Z ; std::_Tree<std::_Tmap_traits<unsigned long,IData *,std::less<unsigned long>,std::allocator<std::pair<unsigned long const ,IData *> >,0> >::_Parent
  0012f	83 c4 04	 add	 esp, 4
  00132	8b 4d f8	 mov	 ecx, DWORD PTR __Pnode$[ebp]
  00135	89 08		 mov	 DWORD PTR [eax], ecx

; 1031 : 		}

  00137	5e		 pop	 esi
  00138	83 c4 08	 add	 esp, 8
  0013b	3b ec		 cmp	 ebp, esp
  0013d	e8 00 00 00 00	 call	 __RTC_CheckEsp
  00142	8b e5		 mov	 esp, ebp
  00144	5d		 pop	 ebp
  00145	c2 04 00	 ret	 4
?_Lrotate@?$_Tree@V?$_Tmap_traits@KPAVIData@@U?$less@K@std@@V?$allocator@U?$pair@$$CBKPAVIData@@@std@@@3@$0A@@std@@@std@@IAEXPAU_Node@?$_Tree_nod@V?$_Tmap_traits@KPAVIData@@U?$less@K@std@@V?$allocator@U?$pair@$$CBKPAVIData@@@std@@@3@$0A@@std@@@2@@Z ENDP ; std::_Tree<std::_Tmap_traits<unsigned long,IData *,std::less<unsigned long>,std::allocator<std::pair<unsigned long const ,IData *> >,0> >::_Lrotate
; Function compile flags: /Odt /RTCsu
_TEXT	ENDS
;	COMDAT ?_Max@?$_Tree@V?$_Tmap_traits@KPAVIData@@U?$less@K@std@@V?$allocator@U?$pair@$$CBKPAVIData@@@std@@@3@$0A@@std@@@std@@KAPAU_Node@?$_Tree_nod@V?$_Tmap_traits@KPAVIData@@U?$less@K@std@@V?$allocator@U?$pair@$$CBKPAVIData@@@std@@@3@$0A@@std@@@2@PAU342@@Z
_TEXT	SEGMENT
__Pnode$ = 8						; size = 4
?_Max@?$_Tree@V?$_Tmap_traits@KPAVIData@@U?$less@K@std@@V?$allocator@U?$pair@$$CBKPAVIData@@@std@@@3@$0A@@std@@@std@@KAPAU_Node@?$_Tree_nod@V?$_Tmap_traits@KPAVIData@@U?$less@K@std@@V?$allocator@U?$pair@$$CBKPAVIData@@@std@@@3@$0A@@std@@@2@PAU342@@Z PROC NEAR ; std::_Tree<std::_Tmap_traits<unsigned long,IData *,std::less<unsigned long>,std::allocator<std::pair<unsigned long const ,IData *> >,0> >::_Max, COMDAT

; 1034 : 		{	// return rightmost node in subtree at _Pnode

  00000	55		 push	 ebp
  00001	8b ec		 mov	 ebp, esp
$L189485:

; 1035 : 		while (!_Isnil(_Right(_Pnode)))

  00003	8b 45 08	 mov	 eax, DWORD PTR __Pnode$[ebp]
  00006	50		 push	 eax
  00007	e8 00 00 00 00	 call	 ?_Right@?$_Tree@V?$_Tmap_traits@KPAVIData@@U?$less@K@std@@V?$allocator@U?$pair@$$CBKPAVIData@@@std@@@3@$0A@@std@@@std@@KAAAPAU_Node@?$_Tree_nod@V?$_Tmap_traits@KPAVIData@@U?$less@K@std@@V?$allocator@U?$pair@$$CBKPAVIData@@@std@@@3@$0A@@std@@@2@PAU342@@Z ; std::_Tree<std::_Tmap_traits<unsigned long,IData *,std::less<unsigned long>,std::allocator<std::pair<unsigned long const ,IData *> >,0> >::_Right
  0000c	83 c4 04	 add	 esp, 4
  0000f	8b 08		 mov	 ecx, DWORD PTR [eax]
  00011	51		 push	 ecx
  00012	e8 00 00 00 00	 call	 ?_Isnil@?$_Tree@V?$_Tmap_traits@KPAVIData@@U?$less@K@std@@V?$allocator@U?$pair@$$CBKPAVIData@@@std@@@3@$0A@@std@@@std@@KAAADPAU_Node@?$_Tree_nod@V?$_Tmap_traits@KPAVIData@@U?$less@K@std@@V?$allocator@U?$pair@$$CBKPAVIData@@@std@@@3@$0A@@std@@@2@@Z ; std::_Tree<std::_Tmap_traits<unsigned long,IData *,std::less<unsigned long>,std::allocator<std::pair<unsigned long const ,IData *> >,0> >::_Isnil
  00017	83 c4 04	 add	 esp, 4
  0001a	0f be 10	 movsx	 edx, BYTE PTR [eax]
  0001d	85 d2		 test	 edx, edx
  0001f	75 13		 jne	 SHORT $L189486

; 1036 : 			_Pnode = _Right(_Pnode);

  00021	8b 45 08	 mov	 eax, DWORD PTR __Pnode$[ebp]
  00024	50		 push	 eax
  00025	e8 00 00 00 00	 call	 ?_Right@?$_Tree@V?$_Tmap_traits@KPAVIData@@U?$less@K@std@@V?$allocator@U?$pair@$$CBKPAVIData@@@std@@@3@$0A@@std@@@std@@KAAAPAU_Node@?$_Tree_nod@V?$_Tmap_traits@KPAVIData@@U?$less@K@std@@V?$allocator@U?$pair@$$CBKPAVIData@@@std@@@3@$0A@@std@@@2@PAU342@@Z ; std::_Tree<std::_Tmap_traits<unsigned long,IData *,std::less<unsigned long>,std::allocator<std::pair<unsigned long const ,IData *> >,0> >::_Right
  0002a	83 c4 04	 add	 esp, 4
  0002d	8b 08		 mov	 ecx, DWORD PTR [eax]
  0002f	89 4d 08	 mov	 DWORD PTR __Pnode$[ebp], ecx
  00032	eb cf		 jmp	 SHORT $L189485
$L189486:

; 1037 : 		return (_Pnode);

  00034	8b 45 08	 mov	 eax, DWORD PTR __Pnode$[ebp]

; 1038 : 		}

  00037	3b ec		 cmp	 ebp, esp
  00039	e8 00 00 00 00	 call	 __RTC_CheckEsp
  0003e	5d		 pop	 ebp
  0003f	c3		 ret	 0
?_Max@?$_Tree@V?$_Tmap_traits@KPAVIData@@U?$less@K@std@@V?$allocator@U?$pair@$$CBKPAVIData@@@std@@@3@$0A@@std@@@std@@KAPAU_Node@?$_Tree_nod@V?$_Tmap_traits@KPAVIData@@U?$less@K@std@@V?$allocator@U?$pair@$$CBKPAVIData@@@std@@@3@$0A@@std@@@2@PAU342@@Z ENDP ; std::_Tree<std::_Tmap_traits<unsigned long,IData *,std::less<unsigned long>,std::allocator<std::pair<unsigned long const ,IData *> >,0> >::_Max
; Function compile flags: /Odt /RTCsu
_TEXT	ENDS
;	COMDAT ?_Min@?$_Tree@V?$_Tmap_traits@KPAVIData@@U?$less@K@std@@V?$allocator@U?$pair@$$CBKPAVIData@@@std@@@3@$0A@@std@@@std@@KAPAU_Node@?$_Tree_nod@V?$_Tmap_traits@KPAVIData@@U?$less@K@std@@V?$allocator@U?$pair@$$CBKPAVIData@@@std@@@3@$0A@@std@@@2@PAU342@@Z
_TEXT	SEGMENT
__Pnode$ = 8						; size = 4
?_Min@?$_Tree@V?$_Tmap_traits@KPAVIData@@U?$less@K@std@@V?$allocator@U?$pair@$$CBKPAVIData@@@std@@@3@$0A@@std@@@std@@KAPAU_Node@?$_Tree_nod@V?$_Tmap_traits@KPAVIData@@U?$less@K@std@@V?$allocator@U?$pair@$$CBKPAVIData@@@std@@@3@$0A@@std@@@2@PAU342@@Z PROC NEAR ; std::_Tree<std::_Tmap_traits<unsigned long,IData *,std::less<unsigned long>,std::allocator<std::pair<unsigned long const ,IData *> >,0> >::_Min, COMDAT

; 1041 : 		{	// return leftmost node in subtree at _Pnode

  00000	55		 push	 ebp
  00001	8b ec		 mov	 ebp, esp
$L189489:

; 1042 : 		while (!_Isnil(_Left(_Pnode)))

  00003	8b 45 08	 mov	 eax, DWORD PTR __Pnode$[ebp]
  00006	50		 push	 eax
  00007	e8 00 00 00 00	 call	 ?_Left@?$_Tree@V?$_Tmap_traits@KPAVIData@@U?$less@K@std@@V?$allocator@U?$pair@$$CBKPAVIData@@@std@@@3@$0A@@std@@@std@@KAAAPAU_Node@?$_Tree_nod@V?$_Tmap_traits@KPAVIData@@U?$less@K@std@@V?$allocator@U?$pair@$$CBKPAVIData@@@std@@@3@$0A@@std@@@2@PAU342@@Z ; std::_Tree<std::_Tmap_traits<unsigned long,IData *,std::less<unsigned long>,std::allocator<std::pair<unsigned long const ,IData *> >,0> >::_Left
  0000c	83 c4 04	 add	 esp, 4
  0000f	8b 08		 mov	 ecx, DWORD PTR [eax]
  00011	51		 push	 ecx
  00012	e8 00 00 00 00	 call	 ?_Isnil@?$_Tree@V?$_Tmap_traits@KPAVIData@@U?$less@K@std@@V?$allocator@U?$pair@$$CBKPAVIData@@@std@@@3@$0A@@std@@@std@@KAAADPAU_Node@?$_Tree_nod@V?$_Tmap_traits@KPAVIData@@U?$less@K@std@@V?$allocator@U?$pair@$$CBKPAVIData@@@std@@@3@$0A@@std@@@2@@Z ; std::_Tree<std::_Tmap_traits<unsigned long,IData *,std::less<unsigned long>,std::allocator<std::pair<unsigned long const ,IData *> >,0> >::_Isnil
  00017	83 c4 04	 add	 esp, 4
  0001a	0f be 10	 movsx	 edx, BYTE PTR [eax]
  0001d	85 d2		 test	 edx, edx
  0001f	75 13		 jne	 SHORT $L189490

; 1043 : 			_Pnode = _Left(_Pnode);

  00021	8b 45 08	 mov	 eax, DWORD PTR __Pnode$[ebp]
  00024	50		 push	 eax
  00025	e8 00 00 00 00	 call	 ?_Left@?$_Tree@V?$_Tmap_traits@KPAVIData@@U?$less@K@std@@V?$allocator@U?$pair@$$CBKPAVIData@@@std@@@3@$0A@@std@@@std@@KAAAPAU_Node@?$_Tree_nod@V?$_Tmap_traits@KPAVIData@@U?$less@K@std@@V?$allocator@U?$pair@$$CBKPAVIData@@@std@@@3@$0A@@std@@@2@PAU342@@Z ; std::_Tree<std::_Tmap_traits<unsigned long,IData *,std::less<unsigned long>,std::allocator<std::pair<unsigned long const ,IData *> >,0> >::_Left
  0002a	83 c4 04	 add	 esp, 4
  0002d	8b 08		 mov	 ecx, DWORD PTR [eax]
  0002f	89 4d 08	 mov	 DWORD PTR __Pnode$[ebp], ecx
  00032	eb cf		 jmp	 SHORT $L189489
$L189490:

; 1044 : 		return (_Pnode);

  00034	8b 45 08	 mov	 eax, DWORD PTR __Pnode$[ebp]

; 1045 : 		}

  00037	3b ec		 cmp	 ebp, esp
  00039	e8 00 00 00 00	 call	 __RTC_CheckEsp
  0003e	5d		 pop	 ebp
  0003f	c3		 ret	 0
?_Min@?$_Tree@V?$_Tmap_traits@KPAVIData@@U?$less@K@std@@V?$allocator@U?$pair@$$CBKPAVIData@@@std@@@3@$0A@@std@@@std@@KAPAU_Node@?$_Tree_nod@V?$_Tmap_traits@KPAVIData@@U?$less@K@std@@V?$allocator@U?$pair@$$CBKPAVIData@@@std@@@3@$0A@@std@@@2@PAU342@@Z ENDP ; std::_Tree<std::_Tmap_traits<unsigned long,IData *,std::less<unsigned long>,std::allocator<std::pair<unsigned long const ,IData *> >,0> >::_Min
; Function compile flags: /Odt /RTCsu
_TEXT	ENDS
;	COMDAT ?_Root@?$_Tree@V?$_Tmap_traits@KPAVIData@@U?$less@K@std@@V?$allocator@U?$pair@$$CBKPAVIData@@@std@@@3@$0A@@std@@@std@@IBEAAPAU_Node@?$_Tree_nod@V?$_Tmap_traits@KPAVIData@@U?$less@K@std@@V?$allocator@U?$pair@$$CBKPAVIData@@@std@@@3@$0A@@std@@@2@XZ
_TEXT	SEGMENT
_this$ = -4						; size = 4
?_Root@?$_Tree@V?$_Tmap_traits@KPAVIData@@U?$less@K@std@@V?$allocator@U?$pair@$$CBKPAVIData@@@std@@@3@$0A@@std@@@std@@IBEAAPAU_Node@?$_Tree_nod@V?$_Tmap_traits@KPAVIData@@U?$less@K@std@@V?$allocator@U?$pair@$$CBKPAVIData@@@std@@@3@$0A@@std@@@2@XZ PROC NEAR ; std::_Tree<std::_Tmap_traits<unsigned long,IData *,std::less<unsigned long>,std::allocator<std::pair<unsigned long const ,IData *> >,0> >::_Root, COMDAT
; _this$ = ecx

; 1063 : 		{	// return root of nonmutable tree

  00000	55		 push	 ebp
  00001	8b ec		 mov	 ebp, esp
  00003	51		 push	 ecx
  00004	c7 45 fc cc cc
	cc cc		 mov	 DWORD PTR [ebp-4], -858993460 ; ccccccccH
  0000b	89 4d fc	 mov	 DWORD PTR _this$[ebp], ecx

; 1064 : 		return (_Parent(_Myhead));

  0000e	8b 45 fc	 mov	 eax, DWORD PTR _this$[ebp]
  00011	8b 48 04	 mov	 ecx, DWORD PTR [eax+4]
  00014	51		 push	 ecx
  00015	e8 00 00 00 00	 call	 ?_Parent@?$_Tree@V?$_Tmap_traits@KPAVIData@@U?$less@K@std@@V?$allocator@U?$pair@$$CBKPAVIData@@@std@@@3@$0A@@std@@@std@@KAAAPAU_Node@?$_Tree_nod@V?$_Tmap_traits@KPAVIData@@U?$less@K@std@@V?$allocator@U?$pair@$$CBKPAVIData@@@std@@@3@$0A@@std@@@2@PAU342@@Z ; std::_Tree<std::_Tmap_traits<unsigned long,IData *,std::less<unsigned long>,std::allocator<std::pair<unsigned long const ,IData *> >,0> >::_Parent
  0001a	83 c4 04	 add	 esp, 4

; 1065 : 		}

  0001d	83 c4 04	 add	 esp, 4
  00020	3b ec		 cmp	 ebp, esp
  00022	e8 00 00 00 00	 call	 __RTC_CheckEsp
  00027	8b e5		 mov	 esp, ebp
  00029	5d		 pop	 ebp
  0002a	c3		 ret	 0
?_Root@?$_Tree@V?$_Tmap_traits@KPAVIData@@U?$less@K@std@@V?$allocator@U?$pair@$$CBKPAVIData@@@std@@@3@$0A@@std@@@std@@IBEAAPAU_Node@?$_Tree_nod@V?$_Tmap_traits@KPAVIData@@U?$less@K@std@@V?$allocator@U?$pair@$$CBKPAVIData@@@std@@@3@$0A@@std@@@2@XZ ENDP ; std::_Tree<std::_Tmap_traits<unsigned long,IData *,std::less<unsigned long>,std::allocator<std::pair<unsigned long const ,IData *> >,0> >::_Root
; Function compile flags: /Odt /RTCsu
_TEXT	ENDS
;	COMDAT ?_Rrotate@?$_Tree@V?$_Tmap_traits@KPAVIData@@U?$less@K@std@@V?$allocator@U?$pair@$$CBKPAVIData@@@std@@@3@$0A@@std@@@std@@IAEXPAU_Node@?$_Tree_nod@V?$_Tmap_traits@KPAVIData@@U?$less@K@std@@V?$allocator@U?$pair@$$CBKPAVIData@@@std@@@3@$0A@@std@@@2@@Z
_TEXT	SEGMENT
__Pnode$ = -8						; size = 4
_this$ = -4						; size = 4
__Wherenode$ = 8					; size = 4
?_Rrotate@?$_Tree@V?$_Tmap_traits@KPAVIData@@U?$less@K@std@@V?$allocator@U?$pair@$$CBKPAVIData@@@std@@@3@$0A@@std@@@std@@IAEXPAU_Node@?$_Tree_nod@V?$_Tmap_traits@KPAVIData@@U?$less@K@std@@V?$allocator@U?$pair@$$CBKPAVIData@@@std@@@3@$0A@@std@@@2@@Z PROC NEAR ; std::_Tree<std::_Tmap_traits<unsigned long,IData *,std::less<unsigned long>,std::allocator<std::pair<unsigned long const ,IData *> >,0> >::_Rrotate, COMDAT
; _this$ = ecx

; 1068 : 		{	// promote left node to root of subtree

  00000	55		 push	 ebp
  00001	8b ec		 mov	 ebp, esp
  00003	83 ec 08	 sub	 esp, 8
  00006	56		 push	 esi
  00007	c7 45 f8 cc cc
	cc cc		 mov	 DWORD PTR [ebp-8], -858993460 ; ccccccccH
  0000e	c7 45 fc cc cc
	cc cc		 mov	 DWORD PTR [ebp-4], -858993460 ; ccccccccH
  00015	89 4d fc	 mov	 DWORD PTR _this$[ebp], ecx

; 1069 : 		_Nodeptr _Pnode = _Left(_Wherenode);

  00018	8b 45 08	 mov	 eax, DWORD PTR __Wherenode$[ebp]
  0001b	50		 push	 eax
  0001c	e8 00 00 00 00	 call	 ?_Left@?$_Tree@V?$_Tmap_traits@KPAVIData@@U?$less@K@std@@V?$allocator@U?$pair@$$CBKPAVIData@@@std@@@3@$0A@@std@@@std@@KAAAPAU_Node@?$_Tree_nod@V?$_Tmap_traits@KPAVIData@@U?$less@K@std@@V?$allocator@U?$pair@$$CBKPAVIData@@@std@@@3@$0A@@std@@@2@PAU342@@Z ; std::_Tree<std::_Tmap_traits<unsigned long,IData *,std::less<unsigned long>,std::allocator<std::pair<unsigned long const ,IData *> >,0> >::_Left
  00021	83 c4 04	 add	 esp, 4
  00024	8b 08		 mov	 ecx, DWORD PTR [eax]
  00026	89 4d f8	 mov	 DWORD PTR __Pnode$[ebp], ecx

; 1070 : 		_Left(_Wherenode) = _Right(_Pnode);

  00029	8b 55 f8	 mov	 edx, DWORD PTR __Pnode$[ebp]
  0002c	52		 push	 edx
  0002d	e8 00 00 00 00	 call	 ?_Right@?$_Tree@V?$_Tmap_traits@KPAVIData@@U?$less@K@std@@V?$allocator@U?$pair@$$CBKPAVIData@@@std@@@3@$0A@@std@@@std@@KAAAPAU_Node@?$_Tree_nod@V?$_Tmap_traits@KPAVIData@@U?$less@K@std@@V?$allocator@U?$pair@$$CBKPAVIData@@@std@@@3@$0A@@std@@@2@PAU342@@Z ; std::_Tree<std::_Tmap_traits<unsigned long,IData *,std::less<unsigned long>,std::allocator<std::pair<unsigned long const ,IData *> >,0> >::_Right
  00032	83 c4 04	 add	 esp, 4
  00035	8b f0		 mov	 esi, eax
  00037	8b 45 08	 mov	 eax, DWORD PTR __Wherenode$[ebp]
  0003a	50		 push	 eax
  0003b	e8 00 00 00 00	 call	 ?_Left@?$_Tree@V?$_Tmap_traits@KPAVIData@@U?$less@K@std@@V?$allocator@U?$pair@$$CBKPAVIData@@@std@@@3@$0A@@std@@@std@@KAAAPAU_Node@?$_Tree_nod@V?$_Tmap_traits@KPAVIData@@U?$less@K@std@@V?$allocator@U?$pair@$$CBKPAVIData@@@std@@@3@$0A@@std@@@2@PAU342@@Z ; std::_Tree<std::_Tmap_traits<unsigned long,IData *,std::less<unsigned long>,std::allocator<std::pair<unsigned long const ,IData *> >,0> >::_Left
  00040	83 c4 04	 add	 esp, 4
  00043	8b 0e		 mov	 ecx, DWORD PTR [esi]
  00045	89 08		 mov	 DWORD PTR [eax], ecx

; 1071 : 
; 1072 : 		if (!_Isnil(_Right(_Pnode)))

  00047	8b 55 f8	 mov	 edx, DWORD PTR __Pnode$[ebp]
  0004a	52		 push	 edx
  0004b	e8 00 00 00 00	 call	 ?_Right@?$_Tree@V?$_Tmap_traits@KPAVIData@@U?$less@K@std@@V?$allocator@U?$pair@$$CBKPAVIData@@@std@@@3@$0A@@std@@@std@@KAAAPAU_Node@?$_Tree_nod@V?$_Tmap_traits@KPAVIData@@U?$less@K@std@@V?$allocator@U?$pair@$$CBKPAVIData@@@std@@@3@$0A@@std@@@2@PAU342@@Z ; std::_Tree<std::_Tmap_traits<unsigned long,IData *,std::less<unsigned long>,std::allocator<std::pair<unsigned long const ,IData *> >,0> >::_Right
  00050	83 c4 04	 add	 esp, 4
  00053	8b 00		 mov	 eax, DWORD PTR [eax]
  00055	50		 push	 eax
  00056	e8 00 00 00 00	 call	 ?_Isnil@?$_Tree@V?$_Tmap_traits@KPAVIData@@U?$less@K@std@@V?$allocator@U?$pair@$$CBKPAVIData@@@std@@@3@$0A@@std@@@std@@KAAADPAU_Node@?$_Tree_nod@V?$_Tmap_traits@KPAVIData@@U?$less@K@std@@V?$allocator@U?$pair@$$CBKPAVIData@@@std@@@3@$0A@@std@@@2@@Z ; std::_Tree<std::_Tmap_traits<unsigned long,IData *,std::less<unsigned long>,std::allocator<std::pair<unsigned long const ,IData *> >,0> >::_Isnil
  0005b	83 c4 04	 add	 esp, 4
  0005e	0f be 08	 movsx	 ecx, BYTE PTR [eax]
  00061	85 c9		 test	 ecx, ecx
  00063	75 1c		 jne	 SHORT $L189496

; 1073 : 			_Parent(_Right(_Pnode)) = _Wherenode;

  00065	8b 55 f8	 mov	 edx, DWORD PTR __Pnode$[ebp]
  00068	52		 push	 edx
  00069	e8 00 00 00 00	 call	 ?_Right@?$_Tree@V?$_Tmap_traits@KPAVIData@@U?$less@K@std@@V?$allocator@U?$pair@$$CBKPAVIData@@@std@@@3@$0A@@std@@@std@@KAAAPAU_Node@?$_Tree_nod@V?$_Tmap_traits@KPAVIData@@U?$less@K@std@@V?$allocator@U?$pair@$$CBKPAVIData@@@std@@@3@$0A@@std@@@2@PAU342@@Z ; std::_Tree<std::_Tmap_traits<unsigned long,IData *,std::less<unsigned long>,std::allocator<std::pair<unsigned long const ,IData *> >,0> >::_Right
  0006e	83 c4 04	 add	 esp, 4
  00071	8b 00		 mov	 eax, DWORD PTR [eax]
  00073	50		 push	 eax
  00074	e8 00 00 00 00	 call	 ?_Parent@?$_Tree@V?$_Tmap_traits@KPAVIData@@U?$less@K@std@@V?$allocator@U?$pair@$$CBKPAVIData@@@std@@@3@$0A@@std@@@std@@KAAAPAU_Node@?$_Tree_nod@V?$_Tmap_traits@KPAVIData@@U?$less@K@std@@V?$allocator@U?$pair@$$CBKPAVIData@@@std@@@3@$0A@@std@@@2@PAU342@@Z ; std::_Tree<std::_Tmap_traits<unsigned long,IData *,std::less<unsigned long>,std::allocator<std::pair<unsigned long const ,IData *> >,0> >::_Parent
  00079	83 c4 04	 add	 esp, 4
  0007c	8b 4d 08	 mov	 ecx, DWORD PTR __Wherenode$[ebp]
  0007f	89 08		 mov	 DWORD PTR [eax], ecx
$L189496:

; 1074 : 		_Parent(_Pnode) = _Parent(_Wherenode);

  00081	8b 55 08	 mov	 edx, DWORD PTR __Wherenode$[ebp]
  00084	52		 push	 edx
  00085	e8 00 00 00 00	 call	 ?_Parent@?$_Tree@V?$_Tmap_traits@KPAVIData@@U?$less@K@std@@V?$allocator@U?$pair@$$CBKPAVIData@@@std@@@3@$0A@@std@@@std@@KAAAPAU_Node@?$_Tree_nod@V?$_Tmap_traits@KPAVIData@@U?$less@K@std@@V?$allocator@U?$pair@$$CBKPAVIData@@@std@@@3@$0A@@std@@@2@PAU342@@Z ; std::_Tree<std::_Tmap_traits<unsigned long,IData *,std::less<unsigned long>,std::allocator<std::pair<unsigned long const ,IData *> >,0> >::_Parent
  0008a	83 c4 04	 add	 esp, 4
  0008d	8b f0		 mov	 esi, eax
  0008f	8b 45 f8	 mov	 eax, DWORD PTR __Pnode$[ebp]
  00092	50		 push	 eax
  00093	e8 00 00 00 00	 call	 ?_Parent@?$_Tree@V?$_Tmap_traits@KPAVIData@@U?$less@K@std@@V?$allocator@U?$pair@$$CBKPAVIData@@@std@@@3@$0A@@std@@@std@@KAAAPAU_Node@?$_Tree_nod@V?$_Tmap_traits@KPAVIData@@U?$less@K@std@@V?$allocator@U?$pair@$$CBKPAVIData@@@std@@@3@$0A@@std@@@2@PAU342@@Z ; std::_Tree<std::_Tmap_traits<unsigned long,IData *,std::less<unsigned long>,std::allocator<std::pair<unsigned long const ,IData *> >,0> >::_Parent
  00098	83 c4 04	 add	 esp, 4
  0009b	8b 0e		 mov	 ecx, DWORD PTR [esi]
  0009d	89 08		 mov	 DWORD PTR [eax], ecx

; 1075 : 
; 1076 : 		if (_Wherenode == _Root())

  0009f	8b 4d fc	 mov	 ecx, DWORD PTR _this$[ebp]
  000a2	e8 00 00 00 00	 call	 ?_Root@?$_Tree@V?$_Tmap_traits@KPAVIData@@U?$less@K@std@@V?$allocator@U?$pair@$$CBKPAVIData@@@std@@@3@$0A@@std@@@std@@IAEAAPAU_Node@?$_Tree_nod@V?$_Tmap_traits@KPAVIData@@U?$less@K@std@@V?$allocator@U?$pair@$$CBKPAVIData@@@std@@@3@$0A@@std@@@2@XZ ; std::_Tree<std::_Tmap_traits<unsigned long,IData *,std::less<unsigned long>,std::allocator<std::pair<unsigned long const ,IData *> >,0> >::_Root
  000a7	8b 55 08	 mov	 edx, DWORD PTR __Wherenode$[ebp]
  000aa	3b 10		 cmp	 edx, DWORD PTR [eax]
  000ac	75 0f		 jne	 SHORT $L189497

; 1077 : 			_Root() = _Pnode;

  000ae	8b 4d fc	 mov	 ecx, DWORD PTR _this$[ebp]
  000b1	e8 00 00 00 00	 call	 ?_Root@?$_Tree@V?$_Tmap_traits@KPAVIData@@U?$less@K@std@@V?$allocator@U?$pair@$$CBKPAVIData@@@std@@@3@$0A@@std@@@std@@IAEAAPAU_Node@?$_Tree_nod@V?$_Tmap_traits@KPAVIData@@U?$less@K@std@@V?$allocator@U?$pair@$$CBKPAVIData@@@std@@@3@$0A@@std@@@2@XZ ; std::_Tree<std::_Tmap_traits<unsigned long,IData *,std::less<unsigned long>,std::allocator<std::pair<unsigned long const ,IData *> >,0> >::_Root
  000b6	8b 4d f8	 mov	 ecx, DWORD PTR __Pnode$[ebp]
  000b9	89 08		 mov	 DWORD PTR [eax], ecx

; 1078 : 		else if (_Wherenode == _Right(_Parent(_Wherenode)))

  000bb	eb 58		 jmp	 SHORT $L189498
$L189497:
  000bd	8b 55 08	 mov	 edx, DWORD PTR __Wherenode$[ebp]
  000c0	52		 push	 edx
  000c1	e8 00 00 00 00	 call	 ?_Parent@?$_Tree@V?$_Tmap_traits@KPAVIData@@U?$less@K@std@@V?$allocator@U?$pair@$$CBKPAVIData@@@std@@@3@$0A@@std@@@std@@KAAAPAU_Node@?$_Tree_nod@V?$_Tmap_traits@KPAVIData@@U?$less@K@std@@V?$allocator@U?$pair@$$CBKPAVIData@@@std@@@3@$0A@@std@@@2@PAU342@@Z ; std::_Tree<std::_Tmap_traits<unsigned long,IData *,std::less<unsigned long>,std::allocator<std::pair<unsigned long const ,IData *> >,0> >::_Parent
  000c6	83 c4 04	 add	 esp, 4
  000c9	8b 00		 mov	 eax, DWORD PTR [eax]
  000cb	50		 push	 eax
  000cc	e8 00 00 00 00	 call	 ?_Right@?$_Tree@V?$_Tmap_traits@KPAVIData@@U?$less@K@std@@V?$allocator@U?$pair@$$CBKPAVIData@@@std@@@3@$0A@@std@@@std@@KAAAPAU_Node@?$_Tree_nod@V?$_Tmap_traits@KPAVIData@@U?$less@K@std@@V?$allocator@U?$pair@$$CBKPAVIData@@@std@@@3@$0A@@std@@@2@PAU342@@Z ; std::_Tree<std::_Tmap_traits<unsigned long,IData *,std::less<unsigned long>,std::allocator<std::pair<unsigned long const ,IData *> >,0> >::_Right
  000d1	83 c4 04	 add	 esp, 4
  000d4	8b 4d 08	 mov	 ecx, DWORD PTR __Wherenode$[ebp]
  000d7	3b 08		 cmp	 ecx, DWORD PTR [eax]
  000d9	75 1e		 jne	 SHORT $L189499

; 1079 : 			_Right(_Parent(_Wherenode)) = _Pnode;

  000db	8b 55 08	 mov	 edx, DWORD PTR __Wherenode$[ebp]
  000de	52		 push	 edx
  000df	e8 00 00 00 00	 call	 ?_Parent@?$_Tree@V?$_Tmap_traits@KPAVIData@@U?$less@K@std@@V?$allocator@U?$pair@$$CBKPAVIData@@@std@@@3@$0A@@std@@@std@@KAAAPAU_Node@?$_Tree_nod@V?$_Tmap_traits@KPAVIData@@U?$less@K@std@@V?$allocator@U?$pair@$$CBKPAVIData@@@std@@@3@$0A@@std@@@2@PAU342@@Z ; std::_Tree<std::_Tmap_traits<unsigned long,IData *,std::less<unsigned long>,std::allocator<std::pair<unsigned long const ,IData *> >,0> >::_Parent
  000e4	83 c4 04	 add	 esp, 4
  000e7	8b 00		 mov	 eax, DWORD PTR [eax]
  000e9	50		 push	 eax
  000ea	e8 00 00 00 00	 call	 ?_Right@?$_Tree@V?$_Tmap_traits@KPAVIData@@U?$less@K@std@@V?$allocator@U?$pair@$$CBKPAVIData@@@std@@@3@$0A@@std@@@std@@KAAAPAU_Node@?$_Tree_nod@V?$_Tmap_traits@KPAVIData@@U?$less@K@std@@V?$allocator@U?$pair@$$CBKPAVIData@@@std@@@3@$0A@@std@@@2@PAU342@@Z ; std::_Tree<std::_Tmap_traits<unsigned long,IData *,std::less<unsigned long>,std::allocator<std::pair<unsigned long const ,IData *> >,0> >::_Right
  000ef	83 c4 04	 add	 esp, 4
  000f2	8b 4d f8	 mov	 ecx, DWORD PTR __Pnode$[ebp]
  000f5	89 08		 mov	 DWORD PTR [eax], ecx

; 1080 : 		else

  000f7	eb 1c		 jmp	 SHORT $L189498
$L189499:

; 1081 : 			_Left(_Parent(_Wherenode)) = _Pnode;

  000f9	8b 55 08	 mov	 edx, DWORD PTR __Wherenode$[ebp]
  000fc	52		 push	 edx
  000fd	e8 00 00 00 00	 call	 ?_Parent@?$_Tree@V?$_Tmap_traits@KPAVIData@@U?$less@K@std@@V?$allocator@U?$pair@$$CBKPAVIData@@@std@@@3@$0A@@std@@@std@@KAAAPAU_Node@?$_Tree_nod@V?$_Tmap_traits@KPAVIData@@U?$less@K@std@@V?$allocator@U?$pair@$$CBKPAVIData@@@std@@@3@$0A@@std@@@2@PAU342@@Z ; std::_Tree<std::_Tmap_traits<unsigned long,IData *,std::less<unsigned long>,std::allocator<std::pair<unsigned long const ,IData *> >,0> >::_Parent
  00102	83 c4 04	 add	 esp, 4
  00105	8b 00		 mov	 eax, DWORD PTR [eax]
  00107	50		 push	 eax
  00108	e8 00 00 00 00	 call	 ?_Left@?$_Tree@V?$_Tmap_traits@KPAVIData@@U?$less@K@std@@V?$allocator@U?$pair@$$CBKPAVIData@@@std@@@3@$0A@@std@@@std@@KAAAPAU_Node@?$_Tree_nod@V?$_Tmap_traits@KPAVIData@@U?$less@K@std@@V?$allocator@U?$pair@$$CBKPAVIData@@@std@@@3@$0A@@std@@@2@PAU342@@Z ; std::_Tree<std::_Tmap_traits<unsigned long,IData *,std::less<unsigned long>,std::allocator<std::pair<unsigned long const ,IData *> >,0> >::_Left
  0010d	83 c4 04	 add	 esp, 4
  00110	8b 4d f8	 mov	 ecx, DWORD PTR __Pnode$[ebp]
  00113	89 08		 mov	 DWORD PTR [eax], ecx
$L189498:

; 1082 : 
; 1083 : 		_Right(_Pnode) = _Wherenode;

  00115	8b 55 f8	 mov	 edx, DWORD PTR __Pnode$[ebp]
  00118	52		 push	 edx
  00119	e8 00 00 00 00	 call	 ?_Right@?$_Tree@V?$_Tmap_traits@KPAVIData@@U?$less@K@std@@V?$allocator@U?$pair@$$CBKPAVIData@@@std@@@3@$0A@@std@@@std@@KAAAPAU_Node@?$_Tree_nod@V?$_Tmap_traits@KPAVIData@@U?$less@K@std@@V?$allocator@U?$pair@$$CBKPAVIData@@@std@@@3@$0A@@std@@@2@PAU342@@Z ; std::_Tree<std::_Tmap_traits<unsigned long,IData *,std::less<unsigned long>,std::allocator<std::pair<unsigned long const ,IData *> >,0> >::_Right
  0011e	83 c4 04	 add	 esp, 4
  00121	8b 4d 08	 mov	 ecx, DWORD PTR __Wherenode$[ebp]
  00124	89 08		 mov	 DWORD PTR [eax], ecx

; 1084 : 		_Parent(_Wherenode) = _Pnode;

  00126	8b 55 08	 mov	 edx, DWORD PTR __Wherenode$[ebp]
  00129	52		 push	 edx
  0012a	e8 00 00 00 00	 call	 ?_Parent@?$_Tree@V?$_Tmap_traits@KPAVIData@@U?$less@K@std@@V?$allocator@U?$pair@$$CBKPAVIData@@@std@@@3@$0A@@std@@@std@@KAAAPAU_Node@?$_Tree_nod@V?$_Tmap_traits@KPAVIData@@U?$less@K@std@@V?$allocator@U?$pair@$$CBKPAVIData@@@std@@@3@$0A@@std@@@2@PAU342@@Z ; std::_Tree<std::_Tmap_traits<unsigned long,IData *,std::less<unsigned long>,std::allocator<std::pair<unsigned long const ,IData *> >,0> >::_Parent
  0012f	83 c4 04	 add	 esp, 4
  00132	8b 4d f8	 mov	 ecx, DWORD PTR __Pnode$[ebp]
  00135	89 08		 mov	 DWORD PTR [eax], ecx

; 1085 : 		}

  00137	5e		 pop	 esi
  00138	83 c4 08	 add	 esp, 8
  0013b	3b ec		 cmp	 ebp, esp
  0013d	e8 00 00 00 00	 call	 __RTC_CheckEsp
  00142	8b e5		 mov	 esp, ebp
  00144	5d		 pop	 ebp
  00145	c2 04 00	 ret	 4
?_Rrotate@?$_Tree@V?$_Tmap_traits@KPAVIData@@U?$less@K@std@@V?$allocator@U?$pair@$$CBKPAVIData@@@std@@@3@$0A@@std@@@std@@IAEXPAU_Node@?$_Tree_nod@V?$_Tmap_traits@KPAVIData@@U?$less@K@std@@V?$allocator@U?$pair@$$CBKPAVIData@@@std@@@3@$0A@@std@@@2@@Z ENDP ; std::_Tree<std::_Tmap_traits<unsigned long,IData *,std::less<unsigned long>,std::allocator<std::pair<unsigned long const ,IData *> >,0> >::_Rrotate
; Function compile flags: /Odt /RTCsu
_TEXT	ENDS
;	COMDAT ?_Ubound@?$_Tree@V?$_Tmap_traits@KPAVIData@@U?$less@K@std@@V?$allocator@U?$pair@$$CBKPAVIData@@@std@@@3@$0A@@std@@@std@@IBEPAU_Node@?$_Tree_nod@V?$_Tmap_traits@KPAVIData@@U?$less@K@std@@V?$allocator@U?$pair@$$CBKPAVIData@@@std@@@3@$0A@@std@@@2@ABK@Z
_TEXT	SEGMENT
__Wherenode$ = -12					; size = 4
__Pnode$ = -8						; size = 4
_this$ = -4						; size = 4
__Keyval$ = 8						; size = 4
?_Ubound@?$_Tree@V?$_Tmap_traits@KPAVIData@@U?$less@K@std@@V?$allocator@U?$pair@$$CBKPAVIData@@@std@@@3@$0A@@std@@@std@@IBEPAU_Node@?$_Tree_nod@V?$_Tmap_traits@KPAVIData@@U?$less@K@std@@V?$allocator@U?$pair@$$CBKPAVIData@@@std@@@3@$0A@@std@@@2@ABK@Z PROC NEAR ; std::_Tree<std::_Tmap_traits<unsigned long,IData *,std::less<unsigned long>,std::allocator<std::pair<unsigned long const ,IData *> >,0> >::_Ubound, COMDAT
; _this$ = ecx

; 1088 : 		{	// find leftmost node greater than _Keyval

  00000	55		 push	 ebp
  00001	8b ec		 mov	 ebp, esp
  00003	83 ec 0c	 sub	 esp, 12			; 0000000cH
  00006	c7 45 f4 cc cc
	cc cc		 mov	 DWORD PTR [ebp-12], -858993460 ; ccccccccH
  0000d	c7 45 f8 cc cc
	cc cc		 mov	 DWORD PTR [ebp-8], -858993460 ; ccccccccH
  00014	c7 45 fc cc cc
	cc cc		 mov	 DWORD PTR [ebp-4], -858993460 ; ccccccccH
  0001b	89 4d fc	 mov	 DWORD PTR _this$[ebp], ecx

; 1089 : 		_Nodeptr _Pnode = _Root();

  0001e	8b 4d fc	 mov	 ecx, DWORD PTR _this$[ebp]
  00021	e8 00 00 00 00	 call	 ?_Root@?$_Tree@V?$_Tmap_traits@KPAVIData@@U?$less@K@std@@V?$allocator@U?$pair@$$CBKPAVIData@@@std@@@3@$0A@@std@@@std@@IBEAAPAU_Node@?$_Tree_nod@V?$_Tmap_traits@KPAVIData@@U?$less@K@std@@V?$allocator@U?$pair@$$CBKPAVIData@@@std@@@3@$0A@@std@@@2@XZ ; std::_Tree<std::_Tmap_traits<unsigned long,IData *,std::less<unsigned long>,std::allocator<std::pair<unsigned long const ,IData *> >,0> >::_Root
  00026	8b 00		 mov	 eax, DWORD PTR [eax]
  00028	89 45 f8	 mov	 DWORD PTR __Pnode$[ebp], eax

; 1090 : 		_Nodeptr _Wherenode = _Myhead;	// end() if search fails

  0002b	8b 4d fc	 mov	 ecx, DWORD PTR _this$[ebp]
  0002e	8b 51 04	 mov	 edx, DWORD PTR [ecx+4]
  00031	89 55 f4	 mov	 DWORD PTR __Wherenode$[ebp], edx
$L189506:

; 1091 : 
; 1092 : 		while (!_Isnil(_Pnode))

  00034	8b 45 f8	 mov	 eax, DWORD PTR __Pnode$[ebp]
  00037	50		 push	 eax
  00038	e8 00 00 00 00	 call	 ?_Isnil@?$_Tree@V?$_Tmap_traits@KPAVIData@@U?$less@K@std@@V?$allocator@U?$pair@$$CBKPAVIData@@@std@@@3@$0A@@std@@@std@@KAAADPAU_Node@?$_Tree_nod@V?$_Tmap_traits@KPAVIData@@U?$less@K@std@@V?$allocator@U?$pair@$$CBKPAVIData@@@std@@@3@$0A@@std@@@2@@Z ; std::_Tree<std::_Tmap_traits<unsigned long,IData *,std::less<unsigned long>,std::allocator<std::pair<unsigned long const ,IData *> >,0> >::_Isnil
  0003d	83 c4 04	 add	 esp, 4
  00040	0f be 08	 movsx	 ecx, BYTE PTR [eax]
  00043	85 c9		 test	 ecx, ecx
  00045	75 4c		 jne	 SHORT $L189507

; 1093 : 			if (this->comp(_Keyval, _Key(_Pnode)))

  00047	8b 55 f8	 mov	 edx, DWORD PTR __Pnode$[ebp]
  0004a	52		 push	 edx
  0004b	e8 00 00 00 00	 call	 ?_Key@?$_Tree@V?$_Tmap_traits@KPAVIData@@U?$less@K@std@@V?$allocator@U?$pair@$$CBKPAVIData@@@std@@@3@$0A@@std@@@std@@KAABKPAU_Node@?$_Tree_nod@V?$_Tmap_traits@KPAVIData@@U?$less@K@std@@V?$allocator@U?$pair@$$CBKPAVIData@@@std@@@3@$0A@@std@@@2@@Z ; std::_Tree<std::_Tmap_traits<unsigned long,IData *,std::less<unsigned long>,std::allocator<std::pair<unsigned long const ,IData *> >,0> >::_Key
  00050	83 c4 04	 add	 esp, 4
  00053	50		 push	 eax
  00054	8b 45 08	 mov	 eax, DWORD PTR __Keyval$[ebp]
  00057	50		 push	 eax
  00058	8b 4d fc	 mov	 ecx, DWORD PTR _this$[ebp]
  0005b	e8 00 00 00 00	 call	 ??R?$less@K@std@@QBE_NABK0@Z ; std::less<unsigned long>::operator()
  00060	0f b6 c8	 movzx	 ecx, al
  00063	85 c9		 test	 ecx, ecx
  00065	74 19		 je	 SHORT $L189508

; 1094 : 				{	// _Pnode greater than _Keyval, remember it
; 1095 : 				_Wherenode = _Pnode;

  00067	8b 55 f8	 mov	 edx, DWORD PTR __Pnode$[ebp]
  0006a	89 55 f4	 mov	 DWORD PTR __Wherenode$[ebp], edx

; 1096 : 				_Pnode = _Left(_Pnode);	// descend left subtree

  0006d	8b 45 f8	 mov	 eax, DWORD PTR __Pnode$[ebp]
  00070	50		 push	 eax
  00071	e8 00 00 00 00	 call	 ?_Left@?$_Tree@V?$_Tmap_traits@KPAVIData@@U?$less@K@std@@V?$allocator@U?$pair@$$CBKPAVIData@@@std@@@3@$0A@@std@@@std@@KAAAPAU_Node@?$_Tree_nod@V?$_Tmap_traits@KPAVIData@@U?$less@K@std@@V?$allocator@U?$pair@$$CBKPAVIData@@@std@@@3@$0A@@std@@@2@PAU342@@Z ; std::_Tree<std::_Tmap_traits<unsigned long,IData *,std::less<unsigned long>,std::allocator<std::pair<unsigned long const ,IData *> >,0> >::_Left
  00076	83 c4 04	 add	 esp, 4
  00079	8b 08		 mov	 ecx, DWORD PTR [eax]
  0007b	89 4d f8	 mov	 DWORD PTR __Pnode$[ebp], ecx

; 1097 : 				}
; 1098 : 			else

  0007e	eb 11		 jmp	 SHORT $L189509
$L189508:

; 1099 : 				_Pnode = _Right(_Pnode);	// descend right subtree

  00080	8b 55 f8	 mov	 edx, DWORD PTR __Pnode$[ebp]
  00083	52		 push	 edx
  00084	e8 00 00 00 00	 call	 ?_Right@?$_Tree@V?$_Tmap_traits@KPAVIData@@U?$less@K@std@@V?$allocator@U?$pair@$$CBKPAVIData@@@std@@@3@$0A@@std@@@std@@KAAAPAU_Node@?$_Tree_nod@V?$_Tmap_traits@KPAVIData@@U?$less@K@std@@V?$allocator@U?$pair@$$CBKPAVIData@@@std@@@3@$0A@@std@@@2@PAU342@@Z ; std::_Tree<std::_Tmap_traits<unsigned long,IData *,std::less<unsigned long>,std::allocator<std::pair<unsigned long const ,IData *> >,0> >::_Right
  00089	83 c4 04	 add	 esp, 4
  0008c	8b 00		 mov	 eax, DWORD PTR [eax]
  0008e	89 45 f8	 mov	 DWORD PTR __Pnode$[ebp], eax
$L189509:
  00091	eb a1		 jmp	 SHORT $L189506
$L189507:

; 1100 : 
; 1101 : 		return (_Wherenode);	// return best remembered candidate

  00093	8b 45 f4	 mov	 eax, DWORD PTR __Wherenode$[ebp]

; 1102 : 		}

  00096	83 c4 0c	 add	 esp, 12			; 0000000cH
  00099	3b ec		 cmp	 ebp, esp
  0009b	e8 00 00 00 00	 call	 __RTC_CheckEsp
  000a0	8b e5		 mov	 esp, ebp
  000a2	5d		 pop	 ebp
  000a3	c2 04 00	 ret	 4
?_Ubound@?$_Tree@V?$_Tmap_traits@KPAVIData@@U?$less@K@std@@V?$allocator@U?$pair@$$CBKPAVIData@@@std@@@3@$0A@@std@@@std@@IBEPAU_Node@?$_Tree_nod@V?$_Tmap_traits@KPAVIData@@U?$less@K@std@@V?$allocator@U?$pair@$$CBKPAVIData@@@std@@@3@$0A@@std@@@2@ABK@Z ENDP ; std::_Tree<std::_Tmap_traits<unsigned long,IData *,std::less<unsigned long>,std::allocator<std::pair<unsigned long const ,IData *> >,0> >::_Ubound
_TEXT	ENDS
PUBLIC	?allocate@?$allocator@U_Node@?$_Tree_nod@V?$_Tmap_traits@KPAVIData@@U?$less@K@std@@V?$allocator@U?$pair@$$CBKPAVIData@@@std@@@3@$0A@@std@@@std@@@std@@QAEPAU_Node@?$_Tree_nod@V?$_Tmap_traits@KPAVIData@@U?$less@K@std@@V?$allocator@U?$pair@$$CBKPAVIData@@@std@@@3@$0A@@std@@@2@I@Z ; std::allocator<std::_Tree_nod<std::_Tmap_traits<unsigned long,IData *,std::less<unsigned long>,std::allocator<std::pair<unsigned long const ,IData *> >,0> >::_Node>::allocate
PUBLIC	?construct@?$allocator@PAU_Node@?$_Tree_nod@V?$_Tmap_traits@KPAVIData@@U?$less@K@std@@V?$allocator@U?$pair@$$CBKPAVIData@@@std@@@3@$0A@@std@@@std@@@std@@QAEXPAPAU_Node@?$_Tree_nod@V?$_Tmap_traits@KPAVIData@@U?$less@K@std@@V?$allocator@U?$pair@$$CBKPAVIData@@@std@@@3@$0A@@std@@@2@ABQAU342@@Z ; std::allocator<std::_Tree_nod<std::_Tmap_traits<unsigned long,IData *,std::less<unsigned long>,std::allocator<std::pair<unsigned long const ,IData *> >,0> >::_Node *>::construct
;	COMDAT xdata$x
xdata$x	SEGMENT
$T190389 DD	0ffffffffH
	DD	00H
	DD	0ffffffffH
	DD	00H
$T190391 DD	00H
	DD	00H
	DD	00H
	DD	FLAT:$L190385
$T190390 DD	00H
	DD	00H
	DD	01H
	DD	01H
	DD	FLAT:$T190391
$T190387 DD	019930520H
	DD	02H
	DD	FLAT:$T190389
	DD	01H
	DD	FLAT:$T190390
	DD	2 DUP(00H)
; Function compile flags: /Odt /RTCsu
xdata$x	ENDS
;	COMDAT ?_Buynode@?$_Tree@V?$_Tmap_traits@KPAVIData@@U?$less@K@std@@V?$allocator@U?$pair@$$CBKPAVIData@@@std@@@3@$0A@@std@@@std@@IAEPAU_Node@?$_Tree_nod@V?$_Tmap_traits@KPAVIData@@U?$less@K@std@@V?$allocator@U?$pair@$$CBKPAVIData@@@std@@@3@$0A@@std@@@2@XZ
_TEXT	SEGMENT
tv145 = -52						; size = 4
tv144 = -48						; size = 4
tv143 = -44						; size = 4
$T190383 = -40						; size = 4
$T190382 = -36						; size = 4
$T190381 = -32						; size = 4
__Linkcnt$ = -28					; size = 4
__Wherenode$ = -24					; size = 4
_this$ = -20						; size = 4
__$EHRec$ = -16						; size = 16
?_Buynode@?$_Tree@V?$_Tmap_traits@KPAVIData@@U?$less@K@std@@V?$allocator@U?$pair@$$CBKPAVIData@@@std@@@3@$0A@@std@@@std@@IAEPAU_Node@?$_Tree_nod@V?$_Tmap_traits@KPAVIData@@U?$less@K@std@@V?$allocator@U?$pair@$$CBKPAVIData@@@std@@@3@$0A@@std@@@2@XZ PROC NEAR ; std::_Tree<std::_Tmap_traits<unsigned long,IData *,std::less<unsigned long>,std::allocator<std::pair<unsigned long const ,IData *> >,0> >::_Buynode, COMDAT
; _this$ = ecx

; 1105 : 		{	// allocate a head/nil node

  00000	55		 push	 ebp
  00001	8b ec		 mov	 ebp, esp
  00003	6a ff		 push	 -1
  00005	68 00 00 00 00	 push	 __ehhandler$?_Buynode@?$_Tree@V?$_Tmap_traits@KPAVIData@@U?$less@K@std@@V?$allocator@U?$pair@$$CBKPAVIData@@@std@@@3@$0A@@std@@@std@@IAEPAU_Node@?$_Tree_nod@V?$_Tmap_traits@KPAVIData@@U?$less@K@std@@V?$allocator@U?$pair@$$CBKPAVIData@@@std@@@3@$0A@@std@@@2@XZ
  0000a	64 a1 00 00 00
	00		 mov	 eax, DWORD PTR fs:__except_list
  00010	50		 push	 eax
  00011	64 89 25 00 00
	00 00		 mov	 DWORD PTR fs:__except_list, esp
  00018	51		 push	 ecx
  00019	83 ec 24	 sub	 esp, 36			; 00000024H
  0001c	53		 push	 ebx
  0001d	56		 push	 esi
  0001e	57		 push	 edi
  0001f	b8 cc cc cc cc	 mov	 eax, -858993460		; ccccccccH
  00024	89 45 cc	 mov	 DWORD PTR [ebp-52], eax
  00027	89 45 d0	 mov	 DWORD PTR [ebp-48], eax
  0002a	89 45 d4	 mov	 DWORD PTR [ebp-44], eax
  0002d	89 45 d8	 mov	 DWORD PTR [ebp-40], eax
  00030	89 45 dc	 mov	 DWORD PTR [ebp-36], eax
  00033	89 45 e0	 mov	 DWORD PTR [ebp-32], eax
  00036	89 45 e4	 mov	 DWORD PTR [ebp-28], eax
  00039	89 45 e8	 mov	 DWORD PTR [ebp-24], eax
  0003c	89 45 ec	 mov	 DWORD PTR [ebp-20], eax
  0003f	89 65 f0	 mov	 DWORD PTR __$EHRec$[ebp], esp
  00042	89 4d ec	 mov	 DWORD PTR _this$[ebp], ecx

; 1106 : 		_Nodeptr _Wherenode = this->_Alnod.allocate(1);

  00045	6a 01		 push	 1
  00047	8b 4d ec	 mov	 ecx, DWORD PTR _this$[ebp]
  0004a	83 c1 01	 add	 ecx, 1
  0004d	e8 00 00 00 00	 call	 ?allocate@?$allocator@U_Node@?$_Tree_nod@V?$_Tmap_traits@KPAVIData@@U?$less@K@std@@V?$allocator@U?$pair@$$CBKPAVIData@@@std@@@3@$0A@@std@@@std@@@std@@QAEPAU_Node@?$_Tree_nod@V?$_Tmap_traits@KPAVIData@@U?$less@K@std@@V?$allocator@U?$pair@$$CBKPAVIData@@@std@@@3@$0A@@std@@@2@I@Z ; std::allocator<std::_Tree_nod<std::_Tmap_traits<unsigned long,IData *,std::less<unsigned long>,std::allocator<std::pair<unsigned long const ,IData *> >,0> >::_Node>::allocate
  00052	89 45 e8	 mov	 DWORD PTR __Wherenode$[ebp], eax

; 1107 : 		int _Linkcnt = 0;

  00055	c7 45 e4 00 00
	00 00		 mov	 DWORD PTR __Linkcnt$[ebp], 0

; 1108 : 
; 1109 : 		_TRY_BEGIN

  0005c	c7 45 fc 00 00
	00 00		 mov	 DWORD PTR __$EHRec$[ebp+12], 0

; 1110 : 		this->_Alptr.construct(&_Left(_Wherenode), 0);

  00063	c7 45 e0 00 00
	00 00		 mov	 DWORD PTR $T190381[ebp], 0
  0006a	8b 45 e8	 mov	 eax, DWORD PTR __Wherenode$[ebp]
  0006d	50		 push	 eax
  0006e	e8 00 00 00 00	 call	 ?_Left@?$_Tree@V?$_Tmap_traits@KPAVIData@@U?$less@K@std@@V?$allocator@U?$pair@$$CBKPAVIData@@@std@@@3@$0A@@std@@@std@@KAAAPAU_Node@?$_Tree_nod@V?$_Tmap_traits@KPAVIData@@U?$less@K@std@@V?$allocator@U?$pair@$$CBKPAVIData@@@std@@@3@$0A@@std@@@2@PAU342@@Z ; std::_Tree<std::_Tmap_traits<unsigned long,IData *,std::less<unsigned long>,std::allocator<std::pair<unsigned long const ,IData *> >,0> >::_Left
  00073	83 c4 04	 add	 esp, 4
  00076	89 45 d4	 mov	 DWORD PTR tv143[ebp], eax
  00079	8d 4d e0	 lea	 ecx, DWORD PTR $T190381[ebp]
  0007c	51		 push	 ecx
  0007d	8b 55 d4	 mov	 edx, DWORD PTR tv143[ebp]
  00080	52		 push	 edx
  00081	8b 4d ec	 mov	 ecx, DWORD PTR _this$[ebp]
  00084	83 c1 02	 add	 ecx, 2
  00087	e8 00 00 00 00	 call	 ?construct@?$allocator@PAU_Node@?$_Tree_nod@V?$_Tmap_traits@KPAVIData@@U?$less@K@std@@V?$allocator@U?$pair@$$CBKPAVIData@@@std@@@3@$0A@@std@@@std@@@std@@QAEXPAPAU_Node@?$_Tree_nod@V?$_Tmap_traits@KPAVIData@@U?$less@K@std@@V?$allocator@U?$pair@$$CBKPAVIData@@@std@@@3@$0A@@std@@@2@ABQAU342@@Z ; std::allocator<std::_Tree_nod<std::_Tmap_traits<unsigned long,IData *,std::less<unsigned long>,std::allocator<std::pair<unsigned long const ,IData *> >,0> >::_Node *>::construct

; 1111 : 		++_Linkcnt;

  0008c	8b 45 e4	 mov	 eax, DWORD PTR __Linkcnt$[ebp]
  0008f	83 c0 01	 add	 eax, 1
  00092	89 45 e4	 mov	 DWORD PTR __Linkcnt$[ebp], eax

; 1112 : 		this->_Alptr.construct(&_Parent(_Wherenode), 0);

  00095	c7 45 dc 00 00
	00 00		 mov	 DWORD PTR $T190382[ebp], 0
  0009c	8b 4d e8	 mov	 ecx, DWORD PTR __Wherenode$[ebp]
  0009f	51		 push	 ecx
  000a0	e8 00 00 00 00	 call	 ?_Parent@?$_Tree@V?$_Tmap_traits@KPAVIData@@U?$less@K@std@@V?$allocator@U?$pair@$$CBKPAVIData@@@std@@@3@$0A@@std@@@std@@KAAAPAU_Node@?$_Tree_nod@V?$_Tmap_traits@KPAVIData@@U?$less@K@std@@V?$allocator@U?$pair@$$CBKPAVIData@@@std@@@3@$0A@@std@@@2@PAU342@@Z ; std::_Tree<std::_Tmap_traits<unsigned long,IData *,std::less<unsigned long>,std::allocator<std::pair<unsigned long const ,IData *> >,0> >::_Parent
  000a5	83 c4 04	 add	 esp, 4
  000a8	89 45 d0	 mov	 DWORD PTR tv144[ebp], eax
  000ab	8d 55 dc	 lea	 edx, DWORD PTR $T190382[ebp]
  000ae	52		 push	 edx
  000af	8b 45 d0	 mov	 eax, DWORD PTR tv144[ebp]
  000b2	50		 push	 eax
  000b3	8b 4d ec	 mov	 ecx, DWORD PTR _this$[ebp]
  000b6	83 c1 02	 add	 ecx, 2
  000b9	e8 00 00 00 00	 call	 ?construct@?$allocator@PAU_Node@?$_Tree_nod@V?$_Tmap_traits@KPAVIData@@U?$less@K@std@@V?$allocator@U?$pair@$$CBKPAVIData@@@std@@@3@$0A@@std@@@std@@@std@@QAEXPAPAU_Node@?$_Tree_nod@V?$_Tmap_traits@KPAVIData@@U?$less@K@std@@V?$allocator@U?$pair@$$CBKPAVIData@@@std@@@3@$0A@@std@@@2@ABQAU342@@Z ; std::allocator<std::_Tree_nod<std::_Tmap_traits<unsigned long,IData *,std::less<unsigned long>,std::allocator<std::pair<unsigned long const ,IData *> >,0> >::_Node *>::construct

; 1113 : 		++_Linkcnt;

  000be	8b 4d e4	 mov	 ecx, DWORD PTR __Linkcnt$[ebp]
  000c1	83 c1 01	 add	 ecx, 1
  000c4	89 4d e4	 mov	 DWORD PTR __Linkcnt$[ebp], ecx

; 1114 : 		this->_Alptr.construct(&_Right(_Wherenode), 0);

  000c7	c7 45 d8 00 00
	00 00		 mov	 DWORD PTR $T190383[ebp], 0
  000ce	8b 55 e8	 mov	 edx, DWORD PTR __Wherenode$[ebp]
  000d1	52		 push	 edx
  000d2	e8 00 00 00 00	 call	 ?_Right@?$_Tree@V?$_Tmap_traits@KPAVIData@@U?$less@K@std@@V?$allocator@U?$pair@$$CBKPAVIData@@@std@@@3@$0A@@std@@@std@@KAAAPAU_Node@?$_Tree_nod@V?$_Tmap_traits@KPAVIData@@U?$less@K@std@@V?$allocator@U?$pair@$$CBKPAVIData@@@std@@@3@$0A@@std@@@2@PAU342@@Z ; std::_Tree<std::_Tmap_traits<unsigned long,IData *,std::less<unsigned long>,std::allocator<std::pair<unsigned long const ,IData *> >,0> >::_Right
  000d7	83 c4 04	 add	 esp, 4
  000da	89 45 cc	 mov	 DWORD PTR tv145[ebp], eax
  000dd	8d 45 d8	 lea	 eax, DWORD PTR $T190383[ebp]
  000e0	50		 push	 eax
  000e1	8b 4d cc	 mov	 ecx, DWORD PTR tv145[ebp]
  000e4	51		 push	 ecx
  000e5	8b 4d ec	 mov	 ecx, DWORD PTR _this$[ebp]
  000e8	83 c1 02	 add	 ecx, 2
  000eb	e8 00 00 00 00	 call	 ?construct@?$allocator@PAU_Node@?$_Tree_nod@V?$_Tmap_traits@KPAVIData@@U?$less@K@std@@V?$allocator@U?$pair@$$CBKPAVIData@@@std@@@3@$0A@@std@@@std@@@std@@QAEXPAPAU_Node@?$_Tree_nod@V?$_Tmap_traits@KPAVIData@@U?$less@K@std@@V?$allocator@U?$pair@$$CBKPAVIData@@@std@@@3@$0A@@std@@@2@ABQAU342@@Z ; std::allocator<std::_Tree_nod<std::_Tmap_traits<unsigned long,IData *,std::less<unsigned long>,std::allocator<std::pair<unsigned long const ,IData *> >,0> >::_Node *>::construct
  000f0	eb 56		 jmp	 SHORT $L190384
$L190385:

; 1115 : 		_CATCH_ALL
; 1116 : 		if (1 < _Linkcnt)

  000f2	83 7d e4 01	 cmp	 DWORD PTR __Linkcnt$[ebp], 1
  000f6	7e 18		 jle	 SHORT $L189518

; 1117 : 			this->_Alptr.destroy(&_Parent(_Wherenode));

  000f8	8b 55 e8	 mov	 edx, DWORD PTR __Wherenode$[ebp]
  000fb	52		 push	 edx
  000fc	e8 00 00 00 00	 call	 ?_Parent@?$_Tree@V?$_Tmap_traits@KPAVIData@@U?$less@K@std@@V?$allocator@U?$pair@$$CBKPAVIData@@@std@@@3@$0A@@std@@@std@@KAAAPAU_Node@?$_Tree_nod@V?$_Tmap_traits@KPAVIData@@U?$less@K@std@@V?$allocator@U?$pair@$$CBKPAVIData@@@std@@@3@$0A@@std@@@2@PAU342@@Z ; std::_Tree<std::_Tmap_traits<unsigned long,IData *,std::less<unsigned long>,std::allocator<std::pair<unsigned long const ,IData *> >,0> >::_Parent
  00101	83 c4 04	 add	 esp, 4
  00104	50		 push	 eax
  00105	8b 4d ec	 mov	 ecx, DWORD PTR _this$[ebp]
  00108	83 c1 02	 add	 ecx, 2
  0010b	e8 00 00 00 00	 call	 ?destroy@?$allocator@PAU_Node@?$_Tree_nod@V?$_Tmap_traits@KPAVIData@@U?$less@K@std@@V?$allocator@U?$pair@$$CBKPAVIData@@@std@@@3@$0A@@std@@@std@@@std@@QAEXPAPAU_Node@?$_Tree_nod@V?$_Tmap_traits@KPAVIData@@U?$less@K@std@@V?$allocator@U?$pair@$$CBKPAVIData@@@std@@@3@$0A@@std@@@2@@Z ; std::allocator<std::_Tree_nod<std::_Tmap_traits<unsigned long,IData *,std::less<unsigned long>,std::allocator<std::pair<unsigned long const ,IData *> >,0> >::_Node *>::destroy
$L189518:

; 1118 : 		if (0 < _Linkcnt)

  00110	83 7d e4 00	 cmp	 DWORD PTR __Linkcnt$[ebp], 0
  00114	7e 18		 jle	 SHORT $L189519

; 1119 : 			this->_Alptr.destroy(&_Left(_Wherenode));

  00116	8b 45 e8	 mov	 eax, DWORD PTR __Wherenode$[ebp]
  00119	50		 push	 eax
  0011a	e8 00 00 00 00	 call	 ?_Left@?$_Tree@V?$_Tmap_traits@KPAVIData@@U?$less@K@std@@V?$allocator@U?$pair@$$CBKPAVIData@@@std@@@3@$0A@@std@@@std@@KAAAPAU_Node@?$_Tree_nod@V?$_Tmap_traits@KPAVIData@@U?$less@K@std@@V?$allocator@U?$pair@$$CBKPAVIData@@@std@@@3@$0A@@std@@@2@PAU342@@Z ; std::_Tree<std::_Tmap_traits<unsigned long,IData *,std::less<unsigned long>,std::allocator<std::pair<unsigned long const ,IData *> >,0> >::_Left
  0011f	83 c4 04	 add	 esp, 4
  00122	50		 push	 eax
  00123	8b 4d ec	 mov	 ecx, DWORD PTR _this$[ebp]
  00126	83 c1 02	 add	 ecx, 2
  00129	e8 00 00 00 00	 call	 ?destroy@?$allocator@PAU_Node@?$_Tree_nod@V?$_Tmap_traits@KPAVIData@@U?$less@K@std@@V?$allocator@U?$pair@$$CBKPAVIData@@@std@@@3@$0A@@std@@@std@@@std@@QAEXPAPAU_Node@?$_Tree_nod@V?$_Tmap_traits@KPAVIData@@U?$less@K@std@@V?$allocator@U?$pair@$$CBKPAVIData@@@std@@@3@$0A@@std@@@2@@Z ; std::allocator<std::_Tree_nod<std::_Tmap_traits<unsigned long,IData *,std::less<unsigned long>,std::allocator<std::pair<unsigned long const ,IData *> >,0> >::_Node *>::destroy
$L189519:

; 1120 : 		this->_Alnod.deallocate(_Wherenode, 1);

  0012e	6a 01		 push	 1
  00130	8b 4d e8	 mov	 ecx, DWORD PTR __Wherenode$[ebp]
  00133	51		 push	 ecx
  00134	8b 4d ec	 mov	 ecx, DWORD PTR _this$[ebp]
  00137	83 c1 01	 add	 ecx, 1
  0013a	e8 00 00 00 00	 call	 ?deallocate@?$allocator@U_Node@?$_Tree_nod@V?$_Tmap_traits@KPAVIData@@U?$less@K@std@@V?$allocator@U?$pair@$$CBKPAVIData@@@std@@@3@$0A@@std@@@std@@@std@@QAEXPAU_Node@?$_Tree_nod@V?$_Tmap_traits@KPAVIData@@U?$less@K@std@@V?$allocator@U?$pair@$$CBKPAVIData@@@std@@@3@$0A@@std@@@2@I@Z ; std::allocator<std::_Tree_nod<std::_Tmap_traits<unsigned long,IData *,std::less<unsigned long>,std::allocator<std::pair<unsigned long const ,IData *> >,0> >::_Node>::deallocate

; 1121 : 		_RERAISE;

  0013f	6a 00		 push	 0
  00141	6a 00		 push	 0
  00143	e8 00 00 00 00	 call	 __CxxThrowException@8
$L190384:

; 1122 : 		_CATCH_END

  00148	c7 45 fc ff ff
	ff ff		 mov	 DWORD PTR __$EHRec$[ebp+12], -1

; 1123 : 		_Color(_Wherenode) = _Black;

  0014f	8b 55 e8	 mov	 edx, DWORD PTR __Wherenode$[ebp]
  00152	52		 push	 edx
  00153	e8 00 00 00 00	 call	 ?_Color@?$_Tree@V?$_Tmap_traits@KPAVIData@@U?$less@K@std@@V?$allocator@U?$pair@$$CBKPAVIData@@@std@@@3@$0A@@std@@@std@@KAAADPAU_Node@?$_Tree_nod@V?$_Tmap_traits@KPAVIData@@U?$less@K@std@@V?$allocator@U?$pair@$$CBKPAVIData@@@std@@@3@$0A@@std@@@2@@Z ; std::_Tree<std::_Tmap_traits<unsigned long,IData *,std::less<unsigned long>,std::allocator<std::pair<unsigned long const ,IData *> >,0> >::_Color
  00158	83 c4 04	 add	 esp, 4
  0015b	c6 00 01	 mov	 BYTE PTR [eax], 1

; 1124 : 		_Isnil(_Wherenode) = false;

  0015e	8b 45 e8	 mov	 eax, DWORD PTR __Wherenode$[ebp]
  00161	50		 push	 eax
  00162	e8 00 00 00 00	 call	 ?_Isnil@?$_Tree@V?$_Tmap_traits@KPAVIData@@U?$less@K@std@@V?$allocator@U?$pair@$$CBKPAVIData@@@std@@@3@$0A@@std@@@std@@KAAADPAU_Node@?$_Tree_nod@V?$_Tmap_traits@KPAVIData@@U?$less@K@std@@V?$allocator@U?$pair@$$CBKPAVIData@@@std@@@3@$0A@@std@@@2@@Z ; std::_Tree<std::_Tmap_traits<unsigned long,IData *,std::less<unsigned long>,std::allocator<std::pair<unsigned long const ,IData *> >,0> >::_Isnil
  00167	83 c4 04	 add	 esp, 4
  0016a	c6 00 00	 mov	 BYTE PTR [eax], 0

; 1125 : 		return (_Wherenode);

  0016d	8b 45 e8	 mov	 eax, DWORD PTR __Wherenode$[ebp]
$L190380:

; 1126 : 		}

  00170	8b 4d f4	 mov	 ecx, DWORD PTR __$EHRec$[ebp+4]
  00173	64 89 0d 00 00
	00 00		 mov	 DWORD PTR fs:__except_list, ecx
  0017a	5f		 pop	 edi
  0017b	5e		 pop	 esi
  0017c	5b		 pop	 ebx
  0017d	83 c4 34	 add	 esp, 52			; 00000034H
  00180	3b ec		 cmp	 ebp, esp
  00182	e8 00 00 00 00	 call	 __RTC_CheckEsp
  00187	8b e5		 mov	 esp, ebp
  00189	5d		 pop	 ebp
  0018a	c3		 ret	 0
_TEXT	ENDS
;	COMDAT text$x
text$x	SEGMENT
__ehhandler$?_Buynode@?$_Tree@V?$_Tmap_traits@KPAVIData@@U?$less@K@std@@V?$allocator@U?$pair@$$CBKPAVIData@@@std@@@3@$0A@@std@@@std@@IAEPAU_Node@?$_Tree_nod@V?$_Tmap_traits@KPAVIData@@U?$less@K@std@@V?$allocator@U?$pair@$$CBKPAVIData@@@std@@@3@$0A@@std@@@2@XZ:
  00000	b8 00 00 00 00	 mov	 eax, OFFSET FLAT:$T190387
  00005	e9 00 00 00 00	 jmp	 ___CxxFrameHandler
text$x	ENDS
?_Buynode@?$_Tree@V?$_Tmap_traits@KPAVIData@@U?$less@K@std@@V?$allocator@U?$pair@$$CBKPAVIData@@@std@@@3@$0A@@std@@@std@@IAEPAU_Node@?$_Tree_nod@V?$_Tmap_traits@KPAVIData@@U?$less@K@std@@V?$allocator@U?$pair@$$CBKPAVIData@@@std@@@3@$0A@@std@@@2@XZ ENDP ; std::_Tree<std::_Tmap_traits<unsigned long,IData *,std::less<unsigned long>,std::allocator<std::pair<unsigned long const ,IData *> >,0> >::_Buynode
PUBLIC	??2@YAPAXIPAX@Z					; operator new
PUBLIC	??3@YAXPAX0@Z					; operator delete
PUBLIC	??0_Node@?$_Tree_nod@V?$_Tmap_traits@KPAVIData@@U?$less@K@std@@V?$allocator@U?$pair@$$CBKPAVIData@@@std@@@3@$0A@@std@@@std@@QAE@PAU012@00ABU?$pair@$$CBKPAVIData@@@2@D@Z ; std::_Tree_nod<std::_Tmap_traits<unsigned long,IData *,std::less<unsigned long>,std::allocator<std::pair<unsigned long const ,IData *> >,0> >::_Node::_Node
;	COMDAT xdata$x
xdata$x	SEGMENT
$T190405 DD	0ffffffffH
	DD	00H
	DD	00H
	DD	FLAT:$L190401
	DD	0ffffffffH
	DD	00H
$T190407 DD	00H
	DD	00H
	DD	00H
	DD	FLAT:$L190400
$T190406 DD	00H
	DD	01H
	DD	02H
	DD	01H
	DD	FLAT:$T190407
$T190403 DD	019930520H
	DD	03H
	DD	FLAT:$T190405
	DD	01H
	DD	FLAT:$T190406
	DD	2 DUP(00H)
; Function compile flags: /Odt /RTCsu
xdata$x	ENDS
;	COMDAT ?_Buynode@?$_Tree@V?$_Tmap_traits@KPAVIData@@U?$less@K@std@@V?$allocator@U?$pair@$$CBKPAVIData@@@std@@@3@$0A@@std@@@std@@IAEPAU_Node@?$_Tree_nod@V?$_Tmap_traits@KPAVIData@@U?$less@K@std@@V?$allocator@U?$pair@$$CBKPAVIData@@@std@@@3@$0A@@std@@@2@PAU342@00ABU?$pair@$$CBKPAVIData@@@2@D@Z
_TEXT	SEGMENT
tv82 = -44						; size = 4
tv94 = -40						; size = 4
tv91 = -36						; size = 4
$T190396 = -32						; size = 4
$T190395 = -28						; size = 4
__Wherenode$ = -24					; size = 4
_this$ = -20						; size = 4
__$EHRec$ = -16						; size = 16
__Larg$ = 8						; size = 4
__Parg$ = 12						; size = 4
__Rarg$ = 16						; size = 4
__Val$ = 20						; size = 4
__Carg$ = 24						; size = 1
?_Buynode@?$_Tree@V?$_Tmap_traits@KPAVIData@@U?$less@K@std@@V?$allocator@U?$pair@$$CBKPAVIData@@@std@@@3@$0A@@std@@@std@@IAEPAU_Node@?$_Tree_nod@V?$_Tmap_traits@KPAVIData@@U?$less@K@std@@V?$allocator@U?$pair@$$CBKPAVIData@@@std@@@3@$0A@@std@@@2@PAU342@00ABU?$pair@$$CBKPAVIData@@@2@D@Z PROC NEAR ; std::_Tree<std::_Tmap_traits<unsigned long,IData *,std::less<unsigned long>,std::allocator<std::pair<unsigned long const ,IData *> >,0> >::_Buynode, COMDAT
; _this$ = ecx

; 1130 : 		{	// allocate a node with pointers, value, and color

  00000	55		 push	 ebp
  00001	8b ec		 mov	 ebp, esp
  00003	6a ff		 push	 -1
  00005	68 00 00 00 00	 push	 __ehhandler$?_Buynode@?$_Tree@V?$_Tmap_traits@KPAVIData@@U?$less@K@std@@V?$allocator@U?$pair@$$CBKPAVIData@@@std@@@3@$0A@@std@@@std@@IAEPAU_Node@?$_Tree_nod@V?$_Tmap_traits@KPAVIData@@U?$less@K@std@@V?$allocator@U?$pair@$$CBKPAVIData@@@std@@@3@$0A@@std@@@2@PAU342@00ABU?$pair@$$CBKPAVIData@@@2@D@Z
  0000a	64 a1 00 00 00
	00		 mov	 eax, DWORD PTR fs:__except_list
  00010	50		 push	 eax
  00011	64 89 25 00 00
	00 00		 mov	 DWORD PTR fs:__except_list, esp
  00018	51		 push	 ecx
  00019	83 ec 1c	 sub	 esp, 28			; 0000001cH
  0001c	53		 push	 ebx
  0001d	56		 push	 esi
  0001e	57		 push	 edi
  0001f	b8 cc cc cc cc	 mov	 eax, -858993460		; ccccccccH
  00024	89 45 d4	 mov	 DWORD PTR [ebp-44], eax
  00027	89 45 d8	 mov	 DWORD PTR [ebp-40], eax
  0002a	89 45 dc	 mov	 DWORD PTR [ebp-36], eax
  0002d	89 45 e0	 mov	 DWORD PTR [ebp-32], eax
  00030	89 45 e4	 mov	 DWORD PTR [ebp-28], eax
  00033	89 45 e8	 mov	 DWORD PTR [ebp-24], eax
  00036	89 45 ec	 mov	 DWORD PTR [ebp-20], eax
  00039	89 65 f0	 mov	 DWORD PTR __$EHRec$[ebp], esp
  0003c	89 4d ec	 mov	 DWORD PTR _this$[ebp], ecx

; 1131 : 		_Nodeptr _Wherenode = this->_Alnod.allocate(1);

  0003f	6a 01		 push	 1
  00041	8b 4d ec	 mov	 ecx, DWORD PTR _this$[ebp]
  00044	83 c1 01	 add	 ecx, 1
  00047	e8 00 00 00 00	 call	 ?allocate@?$allocator@U_Node@?$_Tree_nod@V?$_Tmap_traits@KPAVIData@@U?$less@K@std@@V?$allocator@U?$pair@$$CBKPAVIData@@@std@@@3@$0A@@std@@@std@@@std@@QAEPAU_Node@?$_Tree_nod@V?$_Tmap_traits@KPAVIData@@U?$less@K@std@@V?$allocator@U?$pair@$$CBKPAVIData@@@std@@@3@$0A@@std@@@2@I@Z ; std::allocator<std::_Tree_nod<std::_Tmap_traits<unsigned long,IData *,std::less<unsigned long>,std::allocator<std::pair<unsigned long const ,IData *> >,0> >::_Node>::allocate
  0004c	89 45 e8	 mov	 DWORD PTR __Wherenode$[ebp], eax

; 1132 : 		_TRY_BEGIN

  0004f	c7 45 fc 00 00
	00 00		 mov	 DWORD PTR __$EHRec$[ebp+12], 0

; 1133 : 		new (_Wherenode) _Node(_Larg, _Parg, _Rarg, _Val, _Carg);

  00056	8b 45 e8	 mov	 eax, DWORD PTR __Wherenode$[ebp]
  00059	50		 push	 eax
  0005a	6a 18		 push	 24			; 00000018H
  0005c	e8 00 00 00 00	 call	 ??2@YAPAXIPAX@Z		; operator new
  00061	83 c4 08	 add	 esp, 8
  00064	89 45 dc	 mov	 DWORD PTR tv91[ebp], eax
  00067	8b 4d dc	 mov	 ecx, DWORD PTR tv91[ebp]
  0006a	89 4d e0	 mov	 DWORD PTR $T190396[ebp], ecx
  0006d	c6 45 fc 01	 mov	 BYTE PTR __$EHRec$[ebp+12], 1
  00071	83 7d e0 00	 cmp	 DWORD PTR $T190396[ebp], 0
  00075	74 27		 je	 SHORT $L190397
  00077	8a 55 18	 mov	 dl, BYTE PTR __Carg$[ebp]
  0007a	52		 push	 edx
  0007b	8b 45 14	 mov	 eax, DWORD PTR __Val$[ebp]
  0007e	50		 push	 eax
  0007f	8b 4d 10	 mov	 ecx, DWORD PTR __Rarg$[ebp]
  00082	51		 push	 ecx
  00083	8b 55 0c	 mov	 edx, DWORD PTR __Parg$[ebp]
  00086	52		 push	 edx
  00087	8b 45 08	 mov	 eax, DWORD PTR __Larg$[ebp]
  0008a	50		 push	 eax
  0008b	8b 4d e0	 mov	 ecx, DWORD PTR $T190396[ebp]
  0008e	e8 00 00 00 00	 call	 ??0_Node@?$_Tree_nod@V?$_Tmap_traits@KPAVIData@@U?$less@K@std@@V?$allocator@U?$pair@$$CBKPAVIData@@@std@@@3@$0A@@std@@@std@@QAE@PAU012@00ABU?$pair@$$CBKPAVIData@@@2@D@Z ; std::_Tree_nod<std::_Tmap_traits<unsigned long,IData *,std::less<unsigned long>,std::allocator<std::pair<unsigned long const ,IData *> >,0> >::_Node::_Node
  00093	89 45 d8	 mov	 DWORD PTR tv94[ebp], eax
  00096	8b 4d d8	 mov	 ecx, DWORD PTR tv94[ebp]
  00099	89 4d d4	 mov	 DWORD PTR tv82[ebp], ecx
  0009c	eb 07		 jmp	 SHORT $L190398
$L190397:
  0009e	c7 45 d4 00 00
	00 00		 mov	 DWORD PTR tv82[ebp], 0
$L190398:
  000a5	8b 55 d4	 mov	 edx, DWORD PTR tv82[ebp]
  000a8	89 55 e4	 mov	 DWORD PTR $T190395[ebp], edx
  000ab	c6 45 fc 00	 mov	 BYTE PTR __$EHRec$[ebp+12], 0
  000af	eb 1a		 jmp	 SHORT $L190399
$L190400:

; 1134 : 		_CATCH_ALL
; 1135 : 		this->_Alnod.deallocate(_Wherenode, 1);

  000b1	6a 01		 push	 1
  000b3	8b 45 e8	 mov	 eax, DWORD PTR __Wherenode$[ebp]
  000b6	50		 push	 eax
  000b7	8b 4d ec	 mov	 ecx, DWORD PTR _this$[ebp]
  000ba	83 c1 01	 add	 ecx, 1
  000bd	e8 00 00 00 00	 call	 ?deallocate@?$allocator@U_Node@?$_Tree_nod@V?$_Tmap_traits@KPAVIData@@U?$less@K@std@@V?$allocator@U?$pair@$$CBKPAVIData@@@std@@@3@$0A@@std@@@std@@@std@@QAEXPAU_Node@?$_Tree_nod@V?$_Tmap_traits@KPAVIData@@U?$less@K@std@@V?$allocator@U?$pair@$$CBKPAVIData@@@std@@@3@$0A@@std@@@2@I@Z ; std::allocator<std::_Tree_nod<std::_Tmap_traits<unsigned long,IData *,std::less<unsigned long>,std::allocator<std::pair<unsigned long const ,IData *> >,0> >::_Node>::deallocate

; 1136 : 		_RERAISE;

  000c2	6a 00		 push	 0
  000c4	6a 00		 push	 0
  000c6	e8 00 00 00 00	 call	 __CxxThrowException@8
$L190399:

; 1137 : 		_CATCH_END

  000cb	c7 45 fc ff ff
	ff ff		 mov	 DWORD PTR __$EHRec$[ebp+12], -1

; 1138 : 		return (_Wherenode);

  000d2	8b 45 e8	 mov	 eax, DWORD PTR __Wherenode$[ebp]
$L190394:

; 1139 : 		}

  000d5	8b 4d f4	 mov	 ecx, DWORD PTR __$EHRec$[ebp+4]
  000d8	64 89 0d 00 00
	00 00		 mov	 DWORD PTR fs:__except_list, ecx
  000df	5f		 pop	 edi
  000e0	5e		 pop	 esi
  000e1	5b		 pop	 ebx
  000e2	83 c4 2c	 add	 esp, 44			; 0000002cH
  000e5	3b ec		 cmp	 ebp, esp
  000e7	e8 00 00 00 00	 call	 __RTC_CheckEsp
  000ec	8b e5		 mov	 esp, ebp
  000ee	5d		 pop	 ebp
  000ef	c2 14 00	 ret	 20			; 00000014H
_TEXT	ENDS
;	COMDAT text$x
text$x	SEGMENT
$L190401:
  00000	8b 45 e8	 mov	 eax, DWORD PTR __Wherenode$[ebp]
  00003	50		 push	 eax
  00004	8b 4d e0	 mov	 ecx, DWORD PTR $T190396[ebp]
  00007	51		 push	 ecx
  00008	e8 00 00 00 00	 call	 ??3@YAXPAX0@Z		; operator delete
  0000d	83 c4 08	 add	 esp, 8
  00010	c3		 ret	 0
__ehhandler$?_Buynode@?$_Tree@V?$_Tmap_traits@KPAVIData@@U?$less@K@std@@V?$allocator@U?$pair@$$CBKPAVIData@@@std@@@3@$0A@@std@@@std@@IAEPAU_Node@?$_Tree_nod@V?$_Tmap_traits@KPAVIData@@U?$less@K@std@@V?$allocator@U?$pair@$$CBKPAVIData@@@std@@@3@$0A@@std@@@2@PAU342@00ABU?$pair@$$CBKPAVIData@@@2@D@Z:
  00011	b8 00 00 00 00	 mov	 eax, OFFSET FLAT:$T190403
  00016	e9 00 00 00 00	 jmp	 ___CxxFrameHandler
text$x	ENDS
?_Buynode@?$_Tree@V?$_Tmap_traits@KPAVIData@@U?$less@K@std@@V?$allocator@U?$pair@$$CBKPAVIData@@@std@@@3@$0A@@std@@@std@@IAEPAU_Node@?$_Tree_nod@V?$_Tmap_traits@KPAVIData@@U?$less@K@std@@V?$allocator@U?$pair@$$CBKPAVIData@@@std@@@3@$0A@@std@@@2@PAU342@00ABU?$pair@$$CBKPAVIData@@@2@D@Z ENDP ; std::_Tree<std::_Tmap_traits<unsigned long,IData *,std::less<unsigned long>,std::allocator<std::pair<unsigned long const ,IData *> >,0> >::_Buynode
; Function compile flags: /Odt /RTCsu
; File d:\program files (x86)\microsoft visual studio .net 2003\vc7\include\new.h
;	COMDAT ??2@YAPAXIPAX@Z
_TEXT	SEGMENT
___formal$ = 8						; size = 4
__P$ = 12						; size = 4
??2@YAPAXIPAX@Z PROC NEAR				; operator new, COMDAT

; 109  :         {return (_P); }

  00000	55		 push	 ebp
  00001	8b ec		 mov	 ebp, esp
  00003	8b 45 0c	 mov	 eax, DWORD PTR __P$[ebp]
  00006	5d		 pop	 ebp
  00007	c3		 ret	 0
??2@YAPAXIPAX@Z ENDP					; operator new
; Function compile flags: /Odt /RTCsu
_TEXT	ENDS
;	COMDAT ??3@YAXPAX0@Z
_TEXT	SEGMENT
___formal$ = 8						; size = 4
___formal$ = 12						; size = 4
??3@YAXPAX0@Z PROC NEAR					; operator delete, COMDAT

; 112  :         {return; }

  00000	55		 push	 ebp
  00001	8b ec		 mov	 ebp, esp
  00003	5d		 pop	 ebp
  00004	c3		 ret	 0
??3@YAXPAX0@Z ENDP					; operator delete
_TEXT	ENDS
PUBLIC	??$?0U?$pair@$$CBKPAVIData@@@std@@@?$allocator@PAU_Node@?$_Tree_nod@V?$_Tmap_traits@KPAVIData@@U?$less@K@std@@V?$allocator@U?$pair@$$CBKPAVIData@@@std@@@3@$0A@@std@@@std@@@std@@QAE@ABV?$allocator@U?$pair@$$CBKPAVIData@@@std@@@1@@Z ; std::allocator<std::_Tree_nod<std::_Tmap_traits<unsigned long,IData *,std::less<unsigned long>,std::allocator<std::pair<unsigned long const ,IData *> >,0> >::_Node *>::allocator<std::_Tree_nod<std::_Tmap_traits<unsigned long,IData *,std::less<unsigned long>,std::allocator<std::pair<unsigned long const ,IData *> >,0> >::_Node *><std::pair<unsigned long const ,IData *> >
PUBLIC	??0?$_Tree_nod@V?$_Tmap_traits@KPAVIData@@U?$less@K@std@@V?$allocator@U?$pair@$$CBKPAVIData@@@std@@@3@$0A@@std@@@std@@IAE@ABU?$less@K@1@V?$allocator@U?$pair@$$CBKPAVIData@@@std@@@1@@Z ; std::_Tree_nod<std::_Tmap_traits<unsigned long,IData *,std::less<unsigned long>,std::allocator<std::pair<unsigned long const ,IData *> >,0> >::_Tree_nod<std::_Tmap_traits<unsigned long,IData *,std::less<unsigned long>,std::allocator<std::pair<unsigned long const ,IData *> >,0> >
; Function compile flags: /Odt /RTCsu
; File d:\program files (x86)\microsoft visual studio .net 2003\vc7\include\xtree
;	COMDAT ??0?$_Tree_ptr@V?$_Tmap_traits@KPAVIData@@U?$less@K@std@@V?$allocator@U?$pair@$$CBKPAVIData@@@std@@@3@$0A@@std@@@std@@IAE@ABU?$less@K@1@V?$allocator@U?$pair@$$CBKPAVIData@@@std@@@1@@Z
_TEXT	SEGMENT
_this$ = -4						; size = 4
__Parg$ = 8						; size = 4
__Al$ = 12						; size = 1
??0?$_Tree_ptr@V?$_Tmap_traits@KPAVIData@@U?$less@K@std@@V?$allocator@U?$pair@$$CBKPAVIData@@@std@@@3@$0A@@std@@@std@@IAE@ABU?$less@K@1@V?$allocator@U?$pair@$$CBKPAVIData@@@std@@@1@@Z PROC NEAR ; std::_Tree_ptr<std::_Tmap_traits<unsigned long,IData *,std::less<unsigned long>,std::allocator<std::pair<unsigned long const ,IData *> >,0> >::_Tree_ptr<std::_Tmap_traits<unsigned long,IData *,std::less<unsigned long>,std::allocator<std::pair<unsigned long const ,IData *> >,0> >, COMDAT
; _this$ = ecx

; 76   : 		{	// construct base, and allocator from _Al

  00000	55		 push	 ebp
  00001	8b ec		 mov	 ebp, esp
  00003	83 ec 08	 sub	 esp, 8
  00006	c7 45 f8 cc cc
	cc cc		 mov	 DWORD PTR [ebp-8], -858993460 ; ccccccccH
  0000d	c7 45 fc cc cc
	cc cc		 mov	 DWORD PTR [ebp-4], -858993460 ; ccccccccH
  00014	89 4d fc	 mov	 DWORD PTR _this$[ebp], ecx
  00017	51		 push	 ecx
  00018	8b cc		 mov	 ecx, esp
  0001a	8d 45 0c	 lea	 eax, DWORD PTR __Al$[ebp]
  0001d	50		 push	 eax
  0001e	e8 00 00 00 00	 call	 ??0?$allocator@U?$pair@$$CBKPAVIData@@@std@@@std@@QAE@ABV01@@Z ; std::allocator<std::pair<unsigned long const ,IData *> >::allocator<std::pair<unsigned long const ,IData *> >
  00023	8b 4d 08	 mov	 ecx, DWORD PTR __Parg$[ebp]
  00026	51		 push	 ecx
  00027	8b 4d fc	 mov	 ecx, DWORD PTR _this$[ebp]
  0002a	e8 00 00 00 00	 call	 ??0?$_Tree_nod@V?$_Tmap_traits@KPAVIData@@U?$less@K@std@@V?$allocator@U?$pair@$$CBKPAVIData@@@std@@@3@$0A@@std@@@std@@IAE@ABU?$less@K@1@V?$allocator@U?$pair@$$CBKPAVIData@@@std@@@1@@Z ; std::_Tree_nod<std::_Tmap_traits<unsigned long,IData *,std::less<unsigned long>,std::allocator<std::pair<unsigned long const ,IData *> >,0> >::_Tree_nod<std::_Tmap_traits<unsigned long,IData *,std::less<unsigned long>,std::allocator<std::pair<unsigned long const ,IData *> >,0> >
  0002f	8d 55 0c	 lea	 edx, DWORD PTR __Al$[ebp]
  00032	52		 push	 edx
  00033	8b 4d fc	 mov	 ecx, DWORD PTR _this$[ebp]
  00036	83 c1 02	 add	 ecx, 2
  00039	e8 00 00 00 00	 call	 ??$?0U?$pair@$$CBKPAVIData@@@std@@@?$allocator@PAU_Node@?$_Tree_nod@V?$_Tmap_traits@KPAVIData@@U?$less@K@std@@V?$allocator@U?$pair@$$CBKPAVIData@@@std@@@3@$0A@@std@@@std@@@std@@QAE@ABV?$allocator@U?$pair@$$CBKPAVIData@@@std@@@1@@Z ; std::allocator<std::_Tree_nod<std::_Tmap_traits<unsigned long,IData *,std::less<unsigned long>,std::allocator<std::pair<unsigned long const ,IData *> >,0> >::_Node *>::allocator<std::_Tree_nod<std::_Tmap_traits<unsigned long,IData *,std::less<unsigned long>,std::allocator<std::pair<unsigned long const ,IData *> >,0> >::_Node *><std::pair<unsigned long const ,IData *> >

; 77   : 		}

  0003e	8b 45 fc	 mov	 eax, DWORD PTR _this$[ebp]
  00041	83 c4 08	 add	 esp, 8
  00044	3b ec		 cmp	 ebp, esp
  00046	e8 00 00 00 00	 call	 __RTC_CheckEsp
  0004b	8b e5		 mov	 esp, ebp
  0004d	5d		 pop	 ebp
  0004e	c2 08 00	 ret	 8
??0?$_Tree_ptr@V?$_Tmap_traits@KPAVIData@@U?$less@K@std@@V?$allocator@U?$pair@$$CBKPAVIData@@@std@@@3@$0A@@std@@@std@@IAE@ABU?$less@K@1@V?$allocator@U?$pair@$$CBKPAVIData@@@std@@@1@@Z ENDP ; std::_Tree_ptr<std::_Tmap_traits<unsigned long,IData *,std::less<unsigned long>,std::allocator<std::pair<unsigned long const ,IData *> >,0> >::_Tree_ptr<std::_Tmap_traits<unsigned long,IData *,std::less<unsigned long>,std::allocator<std::pair<unsigned long const ,IData *> >,0> >
; Function compile flags: /Odt /RTCsu
_TEXT	ENDS
;	COMDAT ??0const_iterator@?$_Tree@V?$_Tmap_traits@KPAVIData@@U?$less@K@std@@V?$allocator@U?$pair@$$CBKPAVIData@@@std@@@3@$0A@@std@@@std@@QAE@XZ
_TEXT	SEGMENT
_this$ = -4						; size = 4
??0const_iterator@?$_Tree@V?$_Tmap_traits@KPAVIData@@U?$less@K@std@@V?$allocator@U?$pair@$$CBKPAVIData@@@std@@@3@$0A@@std@@@std@@QAE@XZ PROC NEAR ; std::_Tree<std::_Tmap_traits<unsigned long,IData *,std::less<unsigned long>,std::allocator<std::pair<unsigned long const ,IData *> >,0> >::const_iterator::const_iterator, COMDAT
; _this$ = ecx

; 193  : 			{	// construct with null node pointer

  00000	55		 push	 ebp
  00001	8b ec		 mov	 ebp, esp
  00003	51		 push	 ecx
  00004	c7 45 fc cc cc
	cc cc		 mov	 DWORD PTR [ebp-4], -858993460 ; ccccccccH
  0000b	89 4d fc	 mov	 DWORD PTR _this$[ebp], ecx
  0000e	8b 45 fc	 mov	 eax, DWORD PTR _this$[ebp]
  00011	c7 00 00 00 00
	00		 mov	 DWORD PTR [eax], 0

; 194  : 			}

  00017	8b 45 fc	 mov	 eax, DWORD PTR _this$[ebp]
  0001a	8b e5		 mov	 esp, ebp
  0001c	5d		 pop	 ebp
  0001d	c3		 ret	 0
??0const_iterator@?$_Tree@V?$_Tmap_traits@KPAVIData@@U?$less@K@std@@V?$allocator@U?$pair@$$CBKPAVIData@@@std@@@3@$0A@@std@@@std@@QAE@XZ ENDP ; std::_Tree<std::_Tmap_traits<unsigned long,IData *,std::less<unsigned long>,std::allocator<std::pair<unsigned long const ,IData *> >,0> >::const_iterator::const_iterator
_TEXT	ENDS
PUBLIC	?_Dec@const_iterator@?$_Tree@V?$_Tmap_traits@KPAVIData@@U?$less@K@std@@V?$allocator@U?$pair@$$CBKPAVIData@@@std@@@3@$0A@@std@@@std@@QAEXXZ ; std::_Tree<std::_Tmap_traits<unsigned long,IData *,std::less<unsigned long>,std::allocator<std::pair<unsigned long const ,IData *> >,0> >::const_iterator::_Dec
; Function compile flags: /Odt /RTCsu
;	COMDAT ??Fconst_iterator@?$_Tree@V?$_Tmap_traits@KPAVIData@@U?$less@K@std@@V?$allocator@U?$pair@$$CBKPAVIData@@@std@@@3@$0A@@std@@@std@@QAEAAV012@XZ
_TEXT	SEGMENT
_this$ = -4						; size = 4
??Fconst_iterator@?$_Tree@V?$_Tmap_traits@KPAVIData@@U?$less@K@std@@V?$allocator@U?$pair@$$CBKPAVIData@@@std@@@3@$0A@@std@@@std@@QAEAAV012@XZ PROC NEAR ; std::_Tree<std::_Tmap_traits<unsigned long,IData *,std::less<unsigned long>,std::allocator<std::pair<unsigned long const ,IData *> >,0> >::const_iterator::operator--, COMDAT
; _this$ = ecx

; 227  : 			{	// predecrement

  00000	55		 push	 ebp
  00001	8b ec		 mov	 ebp, esp
  00003	51		 push	 ecx
  00004	c7 45 fc cc cc
	cc cc		 mov	 DWORD PTR [ebp-4], -858993460 ; ccccccccH
  0000b	89 4d fc	 mov	 DWORD PTR _this$[ebp], ecx

; 228  : 			_Dec();

  0000e	8b 4d fc	 mov	 ecx, DWORD PTR _this$[ebp]
  00011	e8 00 00 00 00	 call	 ?_Dec@const_iterator@?$_Tree@V?$_Tmap_traits@KPAVIData@@U?$less@K@std@@V?$allocator@U?$pair@$$CBKPAVIData@@@std@@@3@$0A@@std@@@std@@QAEXXZ ; std::_Tree<std::_Tmap_traits<unsigned long,IData *,std::less<unsigned long>,std::allocator<std::pair<unsigned long const ,IData *> >,0> >::const_iterator::_Dec

; 229  : 			return (*this);

  00016	8b 45 fc	 mov	 eax, DWORD PTR _this$[ebp]

; 230  : 			}

  00019	83 c4 04	 add	 esp, 4
  0001c	3b ec		 cmp	 ebp, esp
  0001e	e8 00 00 00 00	 call	 __RTC_CheckEsp
  00023	8b e5		 mov	 esp, ebp
  00025	5d		 pop	 ebp
  00026	c3		 ret	 0
??Fconst_iterator@?$_Tree@V?$_Tmap_traits@KPAVIData@@U?$less@K@std@@V?$allocator@U?$pair@$$CBKPAVIData@@@std@@@3@$0A@@std@@@std@@QAEAAV012@XZ ENDP ; std::_Tree<std::_Tmap_traits<unsigned long,IData *,std::less<unsigned long>,std::allocator<std::pair<unsigned long const ,IData *> >,0> >::const_iterator::operator--
; Function compile flags: /Odt /RTCsu
_TEXT	ENDS
;	COMDAT ?_Inc@const_iterator@?$_Tree@V?$_Tmap_traits@KPAVIData@@U?$less@K@std@@V?$allocator@U?$pair@$$CBKPAVIData@@@std@@@3@$0A@@std@@@std@@QAEXXZ
_TEXT	SEGMENT
__Pnode$189545 = -8					; size = 4
_this$ = -4						; size = 4
?_Inc@const_iterator@?$_Tree@V?$_Tmap_traits@KPAVIData@@U?$less@K@std@@V?$allocator@U?$pair@$$CBKPAVIData@@@std@@@3@$0A@@std@@@std@@QAEXXZ PROC NEAR ; std::_Tree<std::_Tmap_traits<unsigned long,IData *,std::less<unsigned long>,std::allocator<std::pair<unsigned long const ,IData *> >,0> >::const_iterator::_Inc, COMDAT
; _this$ = ecx

; 267  : 			{	// move to node with next larger value

  00000	55		 push	 ebp
  00001	8b ec		 mov	 ebp, esp
  00003	83 ec 08	 sub	 esp, 8
  00006	c7 45 f8 cc cc
	cc cc		 mov	 DWORD PTR [ebp-8], -858993460 ; ccccccccH
  0000d	c7 45 fc cc cc
	cc cc		 mov	 DWORD PTR [ebp-4], -858993460 ; ccccccccH
  00014	89 4d fc	 mov	 DWORD PTR _this$[ebp], ecx

; 268  : 			if (_Isnil(_Ptr))

  00017	8b 45 fc	 mov	 eax, DWORD PTR _this$[ebp]
  0001a	8b 08		 mov	 ecx, DWORD PTR [eax]
  0001c	51		 push	 ecx
  0001d	e8 00 00 00 00	 call	 ?_Isnil@?$_Tree@V?$_Tmap_traits@KPAVIData@@U?$less@K@std@@V?$allocator@U?$pair@$$CBKPAVIData@@@std@@@3@$0A@@std@@@std@@KAAADPAU_Node@?$_Tree_nod@V?$_Tmap_traits@KPAVIData@@U?$less@K@std@@V?$allocator@U?$pair@$$CBKPAVIData@@@std@@@3@$0A@@std@@@2@@Z ; std::_Tree<std::_Tmap_traits<unsigned long,IData *,std::less<unsigned long>,std::allocator<std::pair<unsigned long const ,IData *> >,0> >::_Isnil
  00022	83 c4 04	 add	 esp, 4
  00025	0f be 10	 movsx	 edx, BYTE PTR [eax]
  00028	85 d2		 test	 edx, edx
  0002a	74 05		 je	 SHORT $L189541

; 269  : 				;	// end() shouldn't be incremented, don't move
; 270  : 			else if (!_Isnil(_Right(_Ptr)))

  0002c	e9 8d 00 00 00	 jmp	 $L189540
$L189541:
  00031	8b 45 fc	 mov	 eax, DWORD PTR _this$[ebp]
  00034	8b 08		 mov	 ecx, DWORD PTR [eax]
  00036	51		 push	 ecx
  00037	e8 00 00 00 00	 call	 ?_Right@?$_Tree@V?$_Tmap_traits@KPAVIData@@U?$less@K@std@@V?$allocator@U?$pair@$$CBKPAVIData@@@std@@@3@$0A@@std@@@std@@KAAAPAU_Node@?$_Tree_nod@V?$_Tmap_traits@KPAVIData@@U?$less@K@std@@V?$allocator@U?$pair@$$CBKPAVIData@@@std@@@3@$0A@@std@@@2@PAU342@@Z ; std::_Tree<std::_Tmap_traits<unsigned long,IData *,std::less<unsigned long>,std::allocator<std::pair<unsigned long const ,IData *> >,0> >::_Right
  0003c	83 c4 04	 add	 esp, 4
  0003f	8b 10		 mov	 edx, DWORD PTR [eax]
  00041	52		 push	 edx
  00042	e8 00 00 00 00	 call	 ?_Isnil@?$_Tree@V?$_Tmap_traits@KPAVIData@@U?$less@K@std@@V?$allocator@U?$pair@$$CBKPAVIData@@@std@@@3@$0A@@std@@@std@@KAAADPAU_Node@?$_Tree_nod@V?$_Tmap_traits@KPAVIData@@U?$less@K@std@@V?$allocator@U?$pair@$$CBKPAVIData@@@std@@@3@$0A@@std@@@2@@Z ; std::_Tree<std::_Tmap_traits<unsigned long,IData *,std::less<unsigned long>,std::allocator<std::pair<unsigned long const ,IData *> >,0> >::_Isnil
  00047	83 c4 04	 add	 esp, 4
  0004a	0f be 00	 movsx	 eax, BYTE PTR [eax]
  0004d	85 c0		 test	 eax, eax
  0004f	75 20		 jne	 SHORT $L189547

; 271  : 				_Ptr = _Min(_Right(_Ptr));	// ==> smallest of right subtree

  00051	8b 4d fc	 mov	 ecx, DWORD PTR _this$[ebp]
  00054	8b 11		 mov	 edx, DWORD PTR [ecx]
  00056	52		 push	 edx
  00057	e8 00 00 00 00	 call	 ?_Right@?$_Tree@V?$_Tmap_traits@KPAVIData@@U?$less@K@std@@V?$allocator@U?$pair@$$CBKPAVIData@@@std@@@3@$0A@@std@@@std@@KAAAPAU_Node@?$_Tree_nod@V?$_Tmap_traits@KPAVIData@@U?$less@K@std@@V?$allocator@U?$pair@$$CBKPAVIData@@@std@@@3@$0A@@std@@@2@PAU342@@Z ; std::_Tree<std::_Tmap_traits<unsigned long,IData *,std::less<unsigned long>,std::allocator<std::pair<unsigned long const ,IData *> >,0> >::_Right
  0005c	83 c4 04	 add	 esp, 4
  0005f	8b 00		 mov	 eax, DWORD PTR [eax]
  00061	50		 push	 eax
  00062	e8 00 00 00 00	 call	 ?_Min@?$_Tree@V?$_Tmap_traits@KPAVIData@@U?$less@K@std@@V?$allocator@U?$pair@$$CBKPAVIData@@@std@@@3@$0A@@std@@@std@@KAPAU_Node@?$_Tree_nod@V?$_Tmap_traits@KPAVIData@@U?$less@K@std@@V?$allocator@U?$pair@$$CBKPAVIData@@@std@@@3@$0A@@std@@@2@PAU342@@Z ; std::_Tree<std::_Tmap_traits<unsigned long,IData *,std::less<unsigned long>,std::allocator<std::pair<unsigned long const ,IData *> >,0> >::_Min
  00067	83 c4 04	 add	 esp, 4
  0006a	8b 4d fc	 mov	 ecx, DWORD PTR _this$[ebp]
  0006d	89 01		 mov	 DWORD PTR [ecx], eax

; 272  : 			else

  0006f	eb 4d		 jmp	 SHORT $L189540
$L189547:

; 273  : 				{	// climb looking for right subtree
; 274  : 				_Nodeptr _Pnode;
; 275  : 				while (!_Isnil(_Pnode = _Parent(_Ptr))
; 276  : 					&& _Ptr == _Right(_Pnode))

  00071	8b 55 fc	 mov	 edx, DWORD PTR _this$[ebp]
  00074	8b 02		 mov	 eax, DWORD PTR [edx]
  00076	50		 push	 eax
  00077	e8 00 00 00 00	 call	 ?_Parent@?$_Tree@V?$_Tmap_traits@KPAVIData@@U?$less@K@std@@V?$allocator@U?$pair@$$CBKPAVIData@@@std@@@3@$0A@@std@@@std@@KAAAPAU_Node@?$_Tree_nod@V?$_Tmap_traits@KPAVIData@@U?$less@K@std@@V?$allocator@U?$pair@$$CBKPAVIData@@@std@@@3@$0A@@std@@@2@PAU342@@Z ; std::_Tree<std::_Tmap_traits<unsigned long,IData *,std::less<unsigned long>,std::allocator<std::pair<unsigned long const ,IData *> >,0> >::_Parent
  0007c	83 c4 04	 add	 esp, 4
  0007f	8b 08		 mov	 ecx, DWORD PTR [eax]
  00081	89 4d f8	 mov	 DWORD PTR __Pnode$189545[ebp], ecx
  00084	8b 55 f8	 mov	 edx, DWORD PTR __Pnode$189545[ebp]
  00087	52		 push	 edx
  00088	e8 00 00 00 00	 call	 ?_Isnil@?$_Tree@V?$_Tmap_traits@KPAVIData@@U?$less@K@std@@V?$allocator@U?$pair@$$CBKPAVIData@@@std@@@3@$0A@@std@@@std@@KAAADPAU_Node@?$_Tree_nod@V?$_Tmap_traits@KPAVIData@@U?$less@K@std@@V?$allocator@U?$pair@$$CBKPAVIData@@@std@@@3@$0A@@std@@@2@@Z ; std::_Tree<std::_Tmap_traits<unsigned long,IData *,std::less<unsigned long>,std::allocator<std::pair<unsigned long const ,IData *> >,0> >::_Isnil
  0008d	83 c4 04	 add	 esp, 4
  00090	0f be 00	 movsx	 eax, BYTE PTR [eax]
  00093	85 c0		 test	 eax, eax
  00095	75 1f		 jne	 SHORT $L189548
  00097	8b 4d f8	 mov	 ecx, DWORD PTR __Pnode$189545[ebp]
  0009a	51		 push	 ecx
  0009b	e8 00 00 00 00	 call	 ?_Right@?$_Tree@V?$_Tmap_traits@KPAVIData@@U?$less@K@std@@V?$allocator@U?$pair@$$CBKPAVIData@@@std@@@3@$0A@@std@@@std@@KAAAPAU_Node@?$_Tree_nod@V?$_Tmap_traits@KPAVIData@@U?$less@K@std@@V?$allocator@U?$pair@$$CBKPAVIData@@@std@@@3@$0A@@std@@@2@PAU342@@Z ; std::_Tree<std::_Tmap_traits<unsigned long,IData *,std::less<unsigned long>,std::allocator<std::pair<unsigned long const ,IData *> >,0> >::_Right
  000a0	83 c4 04	 add	 esp, 4
  000a3	8b 55 fc	 mov	 edx, DWORD PTR _this$[ebp]
  000a6	8b 0a		 mov	 ecx, DWORD PTR [edx]
  000a8	3b 08		 cmp	 ecx, DWORD PTR [eax]
  000aa	75 0a		 jne	 SHORT $L189548

; 277  : 					_Ptr = _Pnode;	// ==> parent while right subtree

  000ac	8b 55 fc	 mov	 edx, DWORD PTR _this$[ebp]
  000af	8b 45 f8	 mov	 eax, DWORD PTR __Pnode$189545[ebp]
  000b2	89 02		 mov	 DWORD PTR [edx], eax
  000b4	eb bb		 jmp	 SHORT $L189547
$L189548:

; 278  : 				_Ptr = _Pnode;	// ==> parent (head if end())

  000b6	8b 4d fc	 mov	 ecx, DWORD PTR _this$[ebp]
  000b9	8b 55 f8	 mov	 edx, DWORD PTR __Pnode$189545[ebp]
  000bc	89 11		 mov	 DWORD PTR [ecx], edx
$L189540:

; 279  : 				}
; 280  : 			}

  000be	83 c4 08	 add	 esp, 8
  000c1	3b ec		 cmp	 ebp, esp
  000c3	e8 00 00 00 00	 call	 __RTC_CheckEsp
  000c8	8b e5		 mov	 esp, ebp
  000ca	5d		 pop	 ebp
  000cb	c3		 ret	 0
?_Inc@const_iterator@?$_Tree@V?$_Tmap_traits@KPAVIData@@U?$less@K@std@@V?$allocator@U?$pair@$$CBKPAVIData@@@std@@@3@$0A@@std@@@std@@QAEXXZ ENDP ; std::_Tree<std::_Tmap_traits<unsigned long,IData *,std::less<unsigned long>,std::allocator<std::pair<unsigned long const ,IData *> >,0> >::const_iterator::_Inc
; Function compile flags: /Odt /RTCsu
; File d:\program files (x86)\microsoft visual studio .net 2003\vc7\include\utility
_TEXT	ENDS
;	COMDAT ??0?$pair@Viterator@?$_Tree@V?$_Tmap_traits@KPAVIData@@U?$less@K@std@@V?$allocator@U?$pair@$$CBKPAVIData@@@std@@@3@$0A@@std@@@std@@_N@std@@QAE@ABViterator@?$_Tree@V?$_Tmap_traits@KPAVIData@@U?$less@K@std@@V?$allocator@U?$pair@$$CBKPAVIData@@@std@@@3@$0A@@std@@@1@AB_N@Z
_TEXT	SEGMENT
_this$ = -4						; size = 4
__Val1$ = 8						; size = 4
__Val2$ = 12						; size = 4
??0?$pair@Viterator@?$_Tree@V?$_Tmap_traits@KPAVIData@@U?$less@K@std@@V?$allocator@U?$pair@$$CBKPAVIData@@@std@@@3@$0A@@std@@@std@@_N@std@@QAE@ABViterator@?$_Tree@V?$_Tmap_traits@KPAVIData@@U?$less@K@std@@V?$allocator@U?$pair@$$CBKPAVIData@@@std@@@3@$0A@@std@@@1@AB_N@Z PROC NEAR ; std::pair<std::_Tree<std::_Tmap_traits<unsigned long,IData *,std::less<unsigned long>,std::allocator<std::pair<unsigned long const ,IData *> >,0> >::iterator,bool>::pair<std::_Tree<std::_Tmap_traits<unsigned long,IData *,std::less<unsigned long>,std::allocator<std::pair<unsigned long const ,IData *> >,0> >::iterator,bool>, COMDAT
; _this$ = ecx

; 34   : 		{	// construct from specified values

  00000	55		 push	 ebp
  00001	8b ec		 mov	 ebp, esp
  00003	51		 push	 ecx
  00004	c7 45 fc cc cc
	cc cc		 mov	 DWORD PTR [ebp-4], -858993460 ; ccccccccH
  0000b	89 4d fc	 mov	 DWORD PTR _this$[ebp], ecx
  0000e	8b 45 08	 mov	 eax, DWORD PTR __Val1$[ebp]
  00011	8b 08		 mov	 ecx, DWORD PTR [eax]
  00013	8b 55 fc	 mov	 edx, DWORD PTR _this$[ebp]
  00016	89 0a		 mov	 DWORD PTR [edx], ecx
  00018	8b 45 fc	 mov	 eax, DWORD PTR _this$[ebp]
  0001b	8b 4d 0c	 mov	 ecx, DWORD PTR __Val2$[ebp]
  0001e	8a 11		 mov	 dl, BYTE PTR [ecx]
  00020	88 50 04	 mov	 BYTE PTR [eax+4], dl

; 35   : 		}

  00023	8b 45 fc	 mov	 eax, DWORD PTR _this$[ebp]
  00026	8b e5		 mov	 esp, ebp
  00028	5d		 pop	 ebp
  00029	c2 08 00	 ret	 8
??0?$pair@Viterator@?$_Tree@V?$_Tmap_traits@KPAVIData@@U?$less@K@std@@V?$allocator@U?$pair@$$CBKPAVIData@@@std@@@3@$0A@@std@@@std@@_N@std@@QAE@ABViterator@?$_Tree@V?$_Tmap_traits@KPAVIData@@U?$less@K@std@@V?$allocator@U?$pair@$$CBKPAVIData@@@std@@@3@$0A@@std@@@1@AB_N@Z ENDP ; std::pair<std::_Tree<std::_Tmap_traits<unsigned long,IData *,std::less<unsigned long>,std::allocator<std::pair<unsigned long const ,IData *> >,0> >::iterator,bool>::pair<std::_Tree<std::_Tmap_traits<unsigned long,IData *,std::less<unsigned long>,std::allocator<std::pair<unsigned long const ,IData *> >,0> >::iterator,bool>
_TEXT	ENDS
PUBLIC	??$?0U?$pair@$$CBKPAVIData@@@std@@@?$allocator@U_Node@?$_Tree_nod@V?$_Tmap_traits@KPAVIData@@U?$less@K@std@@V?$allocator@U?$pair@$$CBKPAVIData@@@std@@@3@$0A@@std@@@std@@@std@@QAE@ABV?$allocator@U?$pair@$$CBKPAVIData@@@std@@@1@@Z ; std::allocator<std::_Tree_nod<std::_Tmap_traits<unsigned long,IData *,std::less<unsigned long>,std::allocator<std::pair<unsigned long const ,IData *> >,0> >::_Node>::allocator<std::_Tree_nod<std::_Tmap_traits<unsigned long,IData *,std::less<unsigned long>,std::allocator<std::pair<unsigned long const ,IData *> >,0> >::_Node><std::pair<unsigned long const ,IData *> >
PUBLIC	??0?$_Tmap_traits@KPAVIData@@U?$less@K@std@@V?$allocator@U?$pair@$$CBKPAVIData@@@std@@@3@$0A@@std@@QAE@U?$less@K@1@@Z ; std::_Tmap_traits<unsigned long,IData *,std::less<unsigned long>,std::allocator<std::pair<unsigned long const ,IData *> >,0>::_Tmap_traits<unsigned long,IData *,std::less<unsigned long>,std::allocator<std::pair<unsigned long const ,IData *> >,0>
; Function compile flags: /Odt /RTCsu
; File d:\program files (x86)\microsoft visual studio .net 2003\vc7\include\xtree
;	COMDAT ??0?$_Tree_nod@V?$_Tmap_traits@KPAVIData@@U?$less@K@std@@V?$allocator@U?$pair@$$CBKPAVIData@@@std@@@3@$0A@@std@@@std@@IAE@ABU?$less@K@1@V?$allocator@U?$pair@$$CBKPAVIData@@@std@@@1@@Z
_TEXT	SEGMENT
_this$ = -4						; size = 4
__Parg$ = 8						; size = 4
__Al$ = 12						; size = 1
??0?$_Tree_nod@V?$_Tmap_traits@KPAVIData@@U?$less@K@std@@V?$allocator@U?$pair@$$CBKPAVIData@@@std@@@3@$0A@@std@@@std@@IAE@ABU?$less@K@1@V?$allocator@U?$pair@$$CBKPAVIData@@@std@@@1@@Z PROC NEAR ; std::_Tree_nod<std::_Tmap_traits<unsigned long,IData *,std::less<unsigned long>,std::allocator<std::pair<unsigned long const ,IData *> >,0> >::_Tree_nod<std::_Tmap_traits<unsigned long,IData *,std::less<unsigned long>,std::allocator<std::pair<unsigned long const ,IData *> >,0> >, COMDAT
; _this$ = ecx

; 54   : 		{	// construct traits from _Parg and allocator from _Al

  00000	55		 push	 ebp
  00001	8b ec		 mov	 ebp, esp
  00003	51		 push	 ecx
  00004	c7 45 fc cc cc
	cc cc		 mov	 DWORD PTR [ebp-4], -858993460 ; ccccccccH
  0000b	89 4d fc	 mov	 DWORD PTR _this$[ebp], ecx
  0000e	8b 45 08	 mov	 eax, DWORD PTR __Parg$[ebp]
  00011	8a 08		 mov	 cl, BYTE PTR [eax]
  00013	51		 push	 ecx
  00014	8b 4d fc	 mov	 ecx, DWORD PTR _this$[ebp]
  00017	e8 00 00 00 00	 call	 ??0?$_Tmap_traits@KPAVIData@@U?$less@K@std@@V?$allocator@U?$pair@$$CBKPAVIData@@@std@@@3@$0A@@std@@QAE@U?$less@K@1@@Z ; std::_Tmap_traits<unsigned long,IData *,std::less<unsigned long>,std::allocator<std::pair<unsigned long const ,IData *> >,0>::_Tmap_traits<unsigned long,IData *,std::less<unsigned long>,std::allocator<std::pair<unsigned long const ,IData *> >,0>
  0001c	8d 55 0c	 lea	 edx, DWORD PTR __Al$[ebp]
  0001f	52		 push	 edx
  00020	8b 4d fc	 mov	 ecx, DWORD PTR _this$[ebp]
  00023	83 c1 01	 add	 ecx, 1
  00026	e8 00 00 00 00	 call	 ??$?0U?$pair@$$CBKPAVIData@@@std@@@?$allocator@U_Node@?$_Tree_nod@V?$_Tmap_traits@KPAVIData@@U?$less@K@std@@V?$allocator@U?$pair@$$CBKPAVIData@@@std@@@3@$0A@@std@@@std@@@std@@QAE@ABV?$allocator@U?$pair@$$CBKPAVIData@@@std@@@1@@Z ; std::allocator<std::_Tree_nod<std::_Tmap_traits<unsigned long,IData *,std::less<unsigned long>,std::allocator<std::pair<unsigned long const ,IData *> >,0> >::_Node>::allocator<std::_Tree_nod<std::_Tmap_traits<unsigned long,IData *,std::less<unsigned long>,std::allocator<std::pair<unsigned long const ,IData *> >,0> >::_Node><std::pair<unsigned long const ,IData *> >

; 55   : 		}

  0002b	8b 45 fc	 mov	 eax, DWORD PTR _this$[ebp]
  0002e	83 c4 04	 add	 esp, 4
  00031	3b ec		 cmp	 ebp, esp
  00033	e8 00 00 00 00	 call	 __RTC_CheckEsp
  00038	8b e5		 mov	 esp, ebp
  0003a	5d		 pop	 ebp
  0003b	c2 08 00	 ret	 8
??0?$_Tree_nod@V?$_Tmap_traits@KPAVIData@@U?$less@K@std@@V?$allocator@U?$pair@$$CBKPAVIData@@@std@@@3@$0A@@std@@@std@@IAE@ABU?$less@K@1@V?$allocator@U?$pair@$$CBKPAVIData@@@std@@@1@@Z ENDP ; std::_Tree_nod<std::_Tmap_traits<unsigned long,IData *,std::less<unsigned long>,std::allocator<std::pair<unsigned long const ,IData *> >,0> >::_Tree_nod<std::_Tmap_traits<unsigned long,IData *,std::less<unsigned long>,std::allocator<std::pair<unsigned long const ,IData *> >,0> >
; Function compile flags: /Odt /RTCsu
; File d:\program files (x86)\microsoft visual studio .net 2003\vc7\include\xmemory
_TEXT	ENDS
;	COMDAT ?max_size@?$allocator@U?$pair@$$CBKPAVIData@@@std@@@std@@QBEIXZ
_TEXT	SEGMENT
tv65 = -12						; size = 4
__Count$ = -8						; size = 4
_this$ = -4						; size = 4
?max_size@?$allocator@U?$pair@$$CBKPAVIData@@@std@@@std@@QBEIXZ PROC NEAR ; std::allocator<std::pair<unsigned long const ,IData *> >::max_size, COMDAT
; _this$ = ecx

; 156  : 		{	// estimate maximum array size

  00000	55		 push	 ebp
  00001	8b ec		 mov	 ebp, esp
  00003	83 ec 0c	 sub	 esp, 12			; 0000000cH
  00006	c7 45 f4 cc cc
	cc cc		 mov	 DWORD PTR [ebp-12], -858993460 ; ccccccccH
  0000d	c7 45 f8 cc cc
	cc cc		 mov	 DWORD PTR [ebp-8], -858993460 ; ccccccccH
  00014	c7 45 fc cc cc
	cc cc		 mov	 DWORD PTR [ebp-4], -858993460 ; ccccccccH
  0001b	89 4d fc	 mov	 DWORD PTR _this$[ebp], ecx

; 157  : 		_SIZT _Count = (_SIZT)(-1) / sizeof (_Ty);

  0001e	c7 45 f8 ff ff
	ff 1f		 mov	 DWORD PTR __Count$[ebp], 536870911 ; 1fffffffH

; 158  : 		return (0 < _Count ? _Count : 1);

  00025	83 7d f8 00	 cmp	 DWORD PTR __Count$[ebp], 0
  00029	76 08		 jbe	 SHORT $L190420
  0002b	8b 45 f8	 mov	 eax, DWORD PTR __Count$[ebp]
  0002e	89 45 f4	 mov	 DWORD PTR tv65[ebp], eax
  00031	eb 07		 jmp	 SHORT $L190421
$L190420:
  00033	c7 45 f4 01 00
	00 00		 mov	 DWORD PTR tv65[ebp], 1
$L190421:
  0003a	8b 45 f4	 mov	 eax, DWORD PTR tv65[ebp]

; 159  : 		}

  0003d	8b e5		 mov	 esp, ebp
  0003f	5d		 pop	 ebp
  00040	c3		 ret	 0
?max_size@?$allocator@U?$pair@$$CBKPAVIData@@@std@@@std@@QBEIXZ ENDP ; std::allocator<std::pair<unsigned long const ,IData *> >::max_size
_TEXT	ENDS
PUBLIC	??$_Allocate@U_Node@?$_Tree_nod@V?$_Tmap_traits@KPAVIData@@U?$less@K@std@@V?$allocator@U?$pair@$$CBKPAVIData@@@std@@@3@$0A@@std@@@std@@@std@@YAPAU_Node@?$_Tree_nod@V?$_Tmap_traits@KPAVIData@@U?$less@K@std@@V?$allocator@U?$pair@$$CBKPAVIData@@@std@@@3@$0A@@std@@@0@IPAU120@@Z ; std::_Allocate<std::_Tree_nod<std::_Tmap_traits<unsigned long,IData *,std::less<unsigned long>,std::allocator<std::pair<unsigned long const ,IData *> >,0> >::_Node>
; Function compile flags: /Odt /RTCsu
;	COMDAT ?allocate@?$allocator@U_Node@?$_Tree_nod@V?$_Tmap_traits@KPAVIData@@U?$less@K@std@@V?$allocator@U?$pair@$$CBKPAVIData@@@std@@@3@$0A@@std@@@std@@@std@@QAEPAU_Node@?$_Tree_nod@V?$_Tmap_traits@KPAVIData@@U?$less@K@std@@V?$allocator@U?$pair@$$CBKPAVIData@@@std@@@3@$0A@@std@@@2@I@Z
_TEXT	SEGMENT
_this$ = -4						; size = 4
__Count$ = 8						; size = 4
?allocate@?$allocator@U_Node@?$_Tree_nod@V?$_Tmap_traits@KPAVIData@@U?$less@K@std@@V?$allocator@U?$pair@$$CBKPAVIData@@@std@@@3@$0A@@std@@@std@@@std@@QAEPAU_Node@?$_Tree_nod@V?$_Tmap_traits@KPAVIData@@U?$less@K@std@@V?$allocator@U?$pair@$$CBKPAVIData@@@std@@@3@$0A@@std@@@2@I@Z PROC NEAR ; std::allocator<std::_Tree_nod<std::_Tmap_traits<unsigned long,IData *,std::less<unsigned long>,std::allocator<std::pair<unsigned long const ,IData *> >,0> >::_Node>::allocate, COMDAT
; _this$ = ecx

; 136  : 		{	// allocate array of _Count elements

  00000	55		 push	 ebp
  00001	8b ec		 mov	 ebp, esp
  00003	51		 push	 ecx
  00004	c7 45 fc cc cc
	cc cc		 mov	 DWORD PTR [ebp-4], -858993460 ; ccccccccH
  0000b	89 4d fc	 mov	 DWORD PTR _this$[ebp], ecx

; 137  : 		return (_Allocate(_Count, (pointer)0));

  0000e	6a 00		 push	 0
  00010	8b 45 08	 mov	 eax, DWORD PTR __Count$[ebp]
  00013	50		 push	 eax
  00014	e8 00 00 00 00	 call	 ??$_Allocate@U_Node@?$_Tree_nod@V?$_Tmap_traits@KPAVIData@@U?$less@K@std@@V?$allocator@U?$pair@$$CBKPAVIData@@@std@@@3@$0A@@std@@@std@@@std@@YAPAU_Node@?$_Tree_nod@V?$_Tmap_traits@KPAVIData@@U?$less@K@std@@V?$allocator@U?$pair@$$CBKPAVIData@@@std@@@3@$0A@@std@@@0@IPAU120@@Z ; std::_Allocate<std::_Tree_nod<std::_Tmap_traits<unsigned long,IData *,std::less<unsigned long>,std::allocator<std::pair<unsigned long const ,IData *> >,0> >::_Node>
  00019	83 c4 08	 add	 esp, 8

; 138  : 		}

  0001c	83 c4 04	 add	 esp, 4
  0001f	3b ec		 cmp	 ebp, esp
  00021	e8 00 00 00 00	 call	 __RTC_CheckEsp
  00026	8b e5		 mov	 esp, ebp
  00028	5d		 pop	 ebp
  00029	c2 04 00	 ret	 4
?allocate@?$allocator@U_Node@?$_Tree_nod@V?$_Tmap_traits@KPAVIData@@U?$less@K@std@@V?$allocator@U?$pair@$$CBKPAVIData@@@std@@@3@$0A@@std@@@std@@@std@@QAEPAU_Node@?$_Tree_nod@V?$_Tmap_traits@KPAVIData@@U?$less@K@std@@V?$allocator@U?$pair@$$CBKPAVIData@@@std@@@3@$0A@@std@@@2@I@Z ENDP ; std::allocator<std::_Tree_nod<std::_Tmap_traits<unsigned long,IData *,std::less<unsigned long>,std::allocator<std::pair<unsigned long const ,IData *> >,0> >::_Node>::allocate
_TEXT	ENDS
PUBLIC	??$_Construct@PAU_Node@?$_Tree_nod@V?$_Tmap_traits@KPAVIData@@U?$less@K@std@@V?$allocator@U?$pair@$$CBKPAVIData@@@std@@@3@$0A@@std@@@std@@PAU123@@std@@YAXPAPAU_Node@?$_Tree_nod@V?$_Tmap_traits@KPAVIData@@U?$less@K@std@@V?$allocator@U?$pair@$$CBKPAVIData@@@std@@@3@$0A@@std@@@0@ABQAU120@@Z ; std::_Construct<std::_Tree_nod<std::_Tmap_traits<unsigned long,IData *,std::less<unsigned long>,std::allocator<std::pair<unsigned long const ,IData *> >,0> >::_Node *,std::_Tree_nod<std::_Tmap_traits<unsigned long,IData *,std::less<unsigned long>,std::allocator<std::pair<unsigned long const ,IData *> >,0> >::_Node *>
; Function compile flags: /Odt /RTCsu
;	COMDAT ?construct@?$allocator@PAU_Node@?$_Tree_nod@V?$_Tmap_traits@KPAVIData@@U?$less@K@std@@V?$allocator@U?$pair@$$CBKPAVIData@@@std@@@3@$0A@@std@@@std@@@std@@QAEXPAPAU_Node@?$_Tree_nod@V?$_Tmap_traits@KPAVIData@@U?$less@K@std@@V?$allocator@U?$pair@$$CBKPAVIData@@@std@@@3@$0A@@std@@@2@ABQAU342@@Z
_TEXT	SEGMENT
_this$ = -4						; size = 4
__Ptr$ = 8						; size = 4
__Val$ = 12						; size = 4
?construct@?$allocator@PAU_Node@?$_Tree_nod@V?$_Tmap_traits@KPAVIData@@U?$less@K@std@@V?$allocator@U?$pair@$$CBKPAVIData@@@std@@@3@$0A@@std@@@std@@@std@@QAEXPAPAU_Node@?$_Tree_nod@V?$_Tmap_traits@KPAVIData@@U?$less@K@std@@V?$allocator@U?$pair@$$CBKPAVIData@@@std@@@3@$0A@@std@@@2@ABQAU342@@Z PROC NEAR ; std::allocator<std::_Tree_nod<std::_Tmap_traits<unsigned long,IData *,std::less<unsigned long>,std::allocator<std::pair<unsigned long const ,IData *> >,0> >::_Node *>::construct, COMDAT
; _this$ = ecx

; 146  : 		{	// construct object at _Ptr with value _Val

  00000	55		 push	 ebp
  00001	8b ec		 mov	 ebp, esp
  00003	51		 push	 ecx
  00004	c7 45 fc cc cc
	cc cc		 mov	 DWORD PTR [ebp-4], -858993460 ; ccccccccH
  0000b	89 4d fc	 mov	 DWORD PTR _this$[ebp], ecx

; 147  : 		_Construct(_Ptr, _Val);

  0000e	8b 45 0c	 mov	 eax, DWORD PTR __Val$[ebp]
  00011	50		 push	 eax
  00012	8b 4d 08	 mov	 ecx, DWORD PTR __Ptr$[ebp]
  00015	51		 push	 ecx
  00016	e8 00 00 00 00	 call	 ??$_Construct@PAU_Node@?$_Tree_nod@V?$_Tmap_traits@KPAVIData@@U?$less@K@std@@V?$allocator@U?$pair@$$CBKPAVIData@@@std@@@3@$0A@@std@@@std@@PAU123@@std@@YAXPAPAU_Node@?$_Tree_nod@V?$_Tmap_traits@KPAVIData@@U?$less@K@std@@V?$allocator@U?$pair@$$CBKPAVIData@@@std@@@3@$0A@@std@@@0@ABQAU120@@Z ; std::_Construct<std::_Tree_nod<std::_Tmap_traits<unsigned long,IData *,std::less<unsigned long>,std::allocator<std::pair<unsigned long const ,IData *> >,0> >::_Node *,std::_Tree_nod<std::_Tmap_traits<unsigned long,IData *,std::less<unsigned long>,std::allocator<std::pair<unsigned long const ,IData *> >,0> >::_Node *>
  0001b	83 c4 08	 add	 esp, 8

; 148  : 		}

  0001e	83 c4 04	 add	 esp, 4
  00021	3b ec		 cmp	 ebp, esp
  00023	e8 00 00 00 00	 call	 __RTC_CheckEsp
  00028	8b e5		 mov	 esp, ebp
  0002a	5d		 pop	 ebp
  0002b	c2 08 00	 ret	 8
?construct@?$allocator@PAU_Node@?$_Tree_nod@V?$_Tmap_traits@KPAVIData@@U?$less@K@std@@V?$allocator@U?$pair@$$CBKPAVIData@@@std@@@3@$0A@@std@@@std@@@std@@QAEXPAPAU_Node@?$_Tree_nod@V?$_Tmap_traits@KPAVIData@@U?$less@K@std@@V?$allocator@U?$pair@$$CBKPAVIData@@@std@@@3@$0A@@std@@@2@ABQAU342@@Z ENDP ; std::allocator<std::_Tree_nod<std::_Tmap_traits<unsigned long,IData *,std::less<unsigned long>,std::allocator<std::pair<unsigned long const ,IData *> >,0> >::_Node *>::construct
; Function compile flags: /Odt /RTCsu
; File d:\program files (x86)\microsoft visual studio .net 2003\vc7\include\xtree
_TEXT	ENDS
;	COMDAT ?_Dec@const_iterator@?$_Tree@V?$_Tmap_traits@KPAVIData@@U?$less@K@std@@V?$allocator@U?$pair@$$CBKPAVIData@@@std@@@3@$0A@@std@@@std@@QAEXXZ
_TEXT	SEGMENT
__Pnode$189583 = -8					; size = 4
_this$ = -4						; size = 4
?_Dec@const_iterator@?$_Tree@V?$_Tmap_traits@KPAVIData@@U?$less@K@std@@V?$allocator@U?$pair@$$CBKPAVIData@@@std@@@3@$0A@@std@@@std@@QAEXXZ PROC NEAR ; std::_Tree<std::_Tmap_traits<unsigned long,IData *,std::less<unsigned long>,std::allocator<std::pair<unsigned long const ,IData *> >,0> >::const_iterator::_Dec, COMDAT
; _this$ = ecx

; 250  : 			{	// move to node with next smaller value

  00000	55		 push	 ebp
  00001	8b ec		 mov	 ebp, esp
  00003	83 ec 08	 sub	 esp, 8
  00006	c7 45 f8 cc cc
	cc cc		 mov	 DWORD PTR [ebp-8], -858993460 ; ccccccccH
  0000d	c7 45 fc cc cc
	cc cc		 mov	 DWORD PTR [ebp-4], -858993460 ; ccccccccH
  00014	89 4d fc	 mov	 DWORD PTR _this$[ebp], ecx

; 251  : 			if (_Isnil(_Ptr))

  00017	8b 45 fc	 mov	 eax, DWORD PTR _this$[ebp]
  0001a	8b 08		 mov	 ecx, DWORD PTR [eax]
  0001c	51		 push	 ecx
  0001d	e8 00 00 00 00	 call	 ?_Isnil@?$_Tree@V?$_Tmap_traits@KPAVIData@@U?$less@K@std@@V?$allocator@U?$pair@$$CBKPAVIData@@@std@@@3@$0A@@std@@@std@@KAAADPAU_Node@?$_Tree_nod@V?$_Tmap_traits@KPAVIData@@U?$less@K@std@@V?$allocator@U?$pair@$$CBKPAVIData@@@std@@@3@$0A@@std@@@2@@Z ; std::_Tree<std::_Tmap_traits<unsigned long,IData *,std::less<unsigned long>,std::allocator<std::pair<unsigned long const ,IData *> >,0> >::_Isnil
  00022	83 c4 04	 add	 esp, 4
  00025	0f be 10	 movsx	 edx, BYTE PTR [eax]
  00028	85 d2		 test	 edx, edx
  0002a	74 1a		 je	 SHORT $L189579

; 252  : 				_Ptr = _Right(_Ptr);	// end() ==> rightmost

  0002c	8b 45 fc	 mov	 eax, DWORD PTR _this$[ebp]
  0002f	8b 08		 mov	 ecx, DWORD PTR [eax]
  00031	51		 push	 ecx
  00032	e8 00 00 00 00	 call	 ?_Right@?$_Tree@V?$_Tmap_traits@KPAVIData@@U?$less@K@std@@V?$allocator@U?$pair@$$CBKPAVIData@@@std@@@3@$0A@@std@@@std@@KAAAPAU_Node@?$_Tree_nod@V?$_Tmap_traits@KPAVIData@@U?$less@K@std@@V?$allocator@U?$pair@$$CBKPAVIData@@@std@@@3@$0A@@std@@@2@PAU342@@Z ; std::_Tree<std::_Tmap_traits<unsigned long,IData *,std::less<unsigned long>,std::allocator<std::pair<unsigned long const ,IData *> >,0> >::_Right
  00037	83 c4 04	 add	 esp, 4
  0003a	8b 55 fc	 mov	 edx, DWORD PTR _this$[ebp]
  0003d	8b 00		 mov	 eax, DWORD PTR [eax]
  0003f	89 02		 mov	 DWORD PTR [edx], eax

; 253  : 			else if (!_Isnil(_Left(_Ptr)))

  00041	e9 a0 00 00 00	 jmp	 $L189578
$L189579:
  00046	8b 4d fc	 mov	 ecx, DWORD PTR _this$[ebp]
  00049	8b 11		 mov	 edx, DWORD PTR [ecx]
  0004b	52		 push	 edx
  0004c	e8 00 00 00 00	 call	 ?_Left@?$_Tree@V?$_Tmap_traits@KPAVIData@@U?$less@K@std@@V?$allocator@U?$pair@$$CBKPAVIData@@@std@@@3@$0A@@std@@@std@@KAAAPAU_Node@?$_Tree_nod@V?$_Tmap_traits@KPAVIData@@U?$less@K@std@@V?$allocator@U?$pair@$$CBKPAVIData@@@std@@@3@$0A@@std@@@2@PAU342@@Z ; std::_Tree<std::_Tmap_traits<unsigned long,IData *,std::less<unsigned long>,std::allocator<std::pair<unsigned long const ,IData *> >,0> >::_Left
  00051	83 c4 04	 add	 esp, 4
  00054	8b 00		 mov	 eax, DWORD PTR [eax]
  00056	50		 push	 eax
  00057	e8 00 00 00 00	 call	 ?_Isnil@?$_Tree@V?$_Tmap_traits@KPAVIData@@U?$less@K@std@@V?$allocator@U?$pair@$$CBKPAVIData@@@std@@@3@$0A@@std@@@std@@KAAADPAU_Node@?$_Tree_nod@V?$_Tmap_traits@KPAVIData@@U?$less@K@std@@V?$allocator@U?$pair@$$CBKPAVIData@@@std@@@3@$0A@@std@@@2@@Z ; std::_Tree<std::_Tmap_traits<unsigned long,IData *,std::less<unsigned long>,std::allocator<std::pair<unsigned long const ,IData *> >,0> >::_Isnil
  0005c	83 c4 04	 add	 esp, 4
  0005f	0f be 08	 movsx	 ecx, BYTE PTR [eax]
  00062	85 c9		 test	 ecx, ecx
  00064	75 20		 jne	 SHORT $L189585

; 254  : 				_Ptr = _Max(_Left(_Ptr));	// ==> largest of left subtree

  00066	8b 55 fc	 mov	 edx, DWORD PTR _this$[ebp]
  00069	8b 02		 mov	 eax, DWORD PTR [edx]
  0006b	50		 push	 eax
  0006c	e8 00 00 00 00	 call	 ?_Left@?$_Tree@V?$_Tmap_traits@KPAVIData@@U?$less@K@std@@V?$allocator@U?$pair@$$CBKPAVIData@@@std@@@3@$0A@@std@@@std@@KAAAPAU_Node@?$_Tree_nod@V?$_Tmap_traits@KPAVIData@@U?$less@K@std@@V?$allocator@U?$pair@$$CBKPAVIData@@@std@@@3@$0A@@std@@@2@PAU342@@Z ; std::_Tree<std::_Tmap_traits<unsigned long,IData *,std::less<unsigned long>,std::allocator<std::pair<unsigned long const ,IData *> >,0> >::_Left
  00071	83 c4 04	 add	 esp, 4
  00074	8b 08		 mov	 ecx, DWORD PTR [eax]
  00076	51		 push	 ecx
  00077	e8 00 00 00 00	 call	 ?_Max@?$_Tree@V?$_Tmap_traits@KPAVIData@@U?$less@K@std@@V?$allocator@U?$pair@$$CBKPAVIData@@@std@@@3@$0A@@std@@@std@@KAPAU_Node@?$_Tree_nod@V?$_Tmap_traits@KPAVIData@@U?$less@K@std@@V?$allocator@U?$pair@$$CBKPAVIData@@@std@@@3@$0A@@std@@@2@PAU342@@Z ; std::_Tree<std::_Tmap_traits<unsigned long,IData *,std::less<unsigned long>,std::allocator<std::pair<unsigned long const ,IData *> >,0> >::_Max
  0007c	83 c4 04	 add	 esp, 4
  0007f	8b 55 fc	 mov	 edx, DWORD PTR _this$[ebp]
  00082	89 02		 mov	 DWORD PTR [edx], eax

; 255  : 			else

  00084	eb 60		 jmp	 SHORT $L189578
$L189585:

; 256  : 				{	// climb looking for left subtree
; 257  : 				_Nodeptr _Pnode;
; 258  : 				while (!_Isnil(_Pnode = _Parent(_Ptr))
; 259  : 					&& _Ptr == _Left(_Pnode))

  00086	8b 45 fc	 mov	 eax, DWORD PTR _this$[ebp]
  00089	8b 08		 mov	 ecx, DWORD PTR [eax]
  0008b	51		 push	 ecx
  0008c	e8 00 00 00 00	 call	 ?_Parent@?$_Tree@V?$_Tmap_traits@KPAVIData@@U?$less@K@std@@V?$allocator@U?$pair@$$CBKPAVIData@@@std@@@3@$0A@@std@@@std@@KAAAPAU_Node@?$_Tree_nod@V?$_Tmap_traits@KPAVIData@@U?$less@K@std@@V?$allocator@U?$pair@$$CBKPAVIData@@@std@@@3@$0A@@std@@@2@PAU342@@Z ; std::_Tree<std::_Tmap_traits<unsigned long,IData *,std::less<unsigned long>,std::allocator<std::pair<unsigned long const ,IData *> >,0> >::_Parent
  00091	83 c4 04	 add	 esp, 4
  00094	8b 10		 mov	 edx, DWORD PTR [eax]
  00096	89 55 f8	 mov	 DWORD PTR __Pnode$189583[ebp], edx
  00099	8b 45 f8	 mov	 eax, DWORD PTR __Pnode$189583[ebp]
  0009c	50		 push	 eax
  0009d	e8 00 00 00 00	 call	 ?_Isnil@?$_Tree@V?$_Tmap_traits@KPAVIData@@U?$less@K@std@@V?$allocator@U?$pair@$$CBKPAVIData@@@std@@@3@$0A@@std@@@std@@KAAADPAU_Node@?$_Tree_nod@V?$_Tmap_traits@KPAVIData@@U?$less@K@std@@V?$allocator@U?$pair@$$CBKPAVIData@@@std@@@3@$0A@@std@@@2@@Z ; std::_Tree<std::_Tmap_traits<unsigned long,IData *,std::less<unsigned long>,std::allocator<std::pair<unsigned long const ,IData *> >,0> >::_Isnil
  000a2	83 c4 04	 add	 esp, 4
  000a5	0f be 08	 movsx	 ecx, BYTE PTR [eax]
  000a8	85 c9		 test	 ecx, ecx
  000aa	75 1f		 jne	 SHORT $L189586
  000ac	8b 55 f8	 mov	 edx, DWORD PTR __Pnode$189583[ebp]
  000af	52		 push	 edx
  000b0	e8 00 00 00 00	 call	 ?_Left@?$_Tree@V?$_Tmap_traits@KPAVIData@@U?$less@K@std@@V?$allocator@U?$pair@$$CBKPAVIData@@@std@@@3@$0A@@std@@@std@@KAAAPAU_Node@?$_Tree_nod@V?$_Tmap_traits@KPAVIData@@U?$less@K@std@@V?$allocator@U?$pair@$$CBKPAVIData@@@std@@@3@$0A@@std@@@2@PAU342@@Z ; std::_Tree<std::_Tmap_traits<unsigned long,IData *,std::less<unsigned long>,std::allocator<std::pair<unsigned long const ,IData *> >,0> >::_Left
  000b5	83 c4 04	 add	 esp, 4
  000b8	8b 4d fc	 mov	 ecx, DWORD PTR _this$[ebp]
  000bb	8b 11		 mov	 edx, DWORD PTR [ecx]
  000bd	3b 10		 cmp	 edx, DWORD PTR [eax]
  000bf	75 0a		 jne	 SHORT $L189586

; 260  : 					_Ptr = _Pnode;	// ==> parent while left subtree

  000c1	8b 45 fc	 mov	 eax, DWORD PTR _this$[ebp]
  000c4	8b 4d f8	 mov	 ecx, DWORD PTR __Pnode$189583[ebp]
  000c7	89 08		 mov	 DWORD PTR [eax], ecx
  000c9	eb bb		 jmp	 SHORT $L189585
$L189586:

; 261  : 				if (!_Isnil(_Pnode))

  000cb	8b 55 f8	 mov	 edx, DWORD PTR __Pnode$189583[ebp]
  000ce	52		 push	 edx
  000cf	e8 00 00 00 00	 call	 ?_Isnil@?$_Tree@V?$_Tmap_traits@KPAVIData@@U?$less@K@std@@V?$allocator@U?$pair@$$CBKPAVIData@@@std@@@3@$0A@@std@@@std@@KAAADPAU_Node@?$_Tree_nod@V?$_Tmap_traits@KPAVIData@@U?$less@K@std@@V?$allocator@U?$pair@$$CBKPAVIData@@@std@@@3@$0A@@std@@@2@@Z ; std::_Tree<std::_Tmap_traits<unsigned long,IData *,std::less<unsigned long>,std::allocator<std::pair<unsigned long const ,IData *> >,0> >::_Isnil
  000d4	83 c4 04	 add	 esp, 4
  000d7	0f be 00	 movsx	 eax, BYTE PTR [eax]
  000da	85 c0		 test	 eax, eax
  000dc	75 08		 jne	 SHORT $L189578

; 262  : 					_Ptr = _Pnode;	// ==> parent if not head

  000de	8b 4d fc	 mov	 ecx, DWORD PTR _this$[ebp]
  000e1	8b 55 f8	 mov	 edx, DWORD PTR __Pnode$189583[ebp]
  000e4	89 11		 mov	 DWORD PTR [ecx], edx
$L189578:

; 263  : 				}
; 264  : 			}

  000e6	83 c4 08	 add	 esp, 8
  000e9	3b ec		 cmp	 ebp, esp
  000eb	e8 00 00 00 00	 call	 __RTC_CheckEsp
  000f0	8b e5		 mov	 esp, ebp
  000f2	5d		 pop	 ebp
  000f3	c3		 ret	 0
?_Dec@const_iterator@?$_Tree@V?$_Tmap_traits@KPAVIData@@U?$less@K@std@@V?$allocator@U?$pair@$$CBKPAVIData@@@std@@@3@$0A@@std@@@std@@QAEXXZ ENDP ; std::_Tree<std::_Tmap_traits<unsigned long,IData *,std::less<unsigned long>,std::allocator<std::pair<unsigned long const ,IData *> >,0> >::const_iterator::_Dec
; Function compile flags: /Odt /RTCsu
_TEXT	ENDS
;	COMDAT ??0_Node@?$_Tree_nod@V?$_Tmap_traits@KPAVIData@@U?$less@K@std@@V?$allocator@U?$pair@$$CBKPAVIData@@@std@@@3@$0A@@std@@@std@@QAE@PAU012@00ABU?$pair@$$CBKPAVIData@@@2@D@Z
_TEXT	SEGMENT
_this$ = -4						; size = 4
__Larg$ = 8						; size = 4
__Parg$ = 12						; size = 4
__Rarg$ = 16						; size = 4
__Val$ = 20						; size = 4
__Carg$ = 24						; size = 1
??0_Node@?$_Tree_nod@V?$_Tmap_traits@KPAVIData@@U?$less@K@std@@V?$allocator@U?$pair@$$CBKPAVIData@@@std@@@3@$0A@@std@@@std@@QAE@PAU012@00ABU?$pair@$$CBKPAVIData@@@2@D@Z PROC NEAR ; std::_Tree_nod<std::_Tmap_traits<unsigned long,IData *,std::less<unsigned long>,std::allocator<std::pair<unsigned long const ,IData *> >,0> >::_Node::_Node, COMDAT
; _this$ = ecx

; 40   : 			{	// construct a node with value

  00000	55		 push	 ebp
  00001	8b ec		 mov	 ebp, esp
  00003	51		 push	 ecx
  00004	c7 45 fc cc cc
	cc cc		 mov	 DWORD PTR [ebp-4], -858993460 ; ccccccccH
  0000b	89 4d fc	 mov	 DWORD PTR _this$[ebp], ecx
  0000e	8b 45 fc	 mov	 eax, DWORD PTR _this$[ebp]
  00011	8b 4d 08	 mov	 ecx, DWORD PTR __Larg$[ebp]
  00014	89 08		 mov	 DWORD PTR [eax], ecx
  00016	8b 55 fc	 mov	 edx, DWORD PTR _this$[ebp]
  00019	8b 45 0c	 mov	 eax, DWORD PTR __Parg$[ebp]
  0001c	89 42 04	 mov	 DWORD PTR [edx+4], eax
  0001f	8b 4d fc	 mov	 ecx, DWORD PTR _this$[ebp]
  00022	8b 55 10	 mov	 edx, DWORD PTR __Rarg$[ebp]
  00025	89 51 08	 mov	 DWORD PTR [ecx+8], edx
  00028	8b 45 14	 mov	 eax, DWORD PTR __Val$[ebp]
  0002b	8b 08		 mov	 ecx, DWORD PTR [eax]
  0002d	8b 50 04	 mov	 edx, DWORD PTR [eax+4]
  00030	8b 45 fc	 mov	 eax, DWORD PTR _this$[ebp]
  00033	89 48 0c	 mov	 DWORD PTR [eax+12], ecx
  00036	89 50 10	 mov	 DWORD PTR [eax+16], edx
  00039	8b 4d fc	 mov	 ecx, DWORD PTR _this$[ebp]
  0003c	8a 55 18	 mov	 dl, BYTE PTR __Carg$[ebp]
  0003f	88 51 14	 mov	 BYTE PTR [ecx+20], dl
  00042	8b 45 fc	 mov	 eax, DWORD PTR _this$[ebp]
  00045	c6 40 15 00	 mov	 BYTE PTR [eax+21], 0

; 41   : 			}

  00049	8b 45 fc	 mov	 eax, DWORD PTR _this$[ebp]
  0004c	8b e5		 mov	 esp, ebp
  0004e	5d		 pop	 ebp
  0004f	c2 14 00	 ret	 20			; 00000014H
??0_Node@?$_Tree_nod@V?$_Tmap_traits@KPAVIData@@U?$less@K@std@@V?$allocator@U?$pair@$$CBKPAVIData@@@std@@@3@$0A@@std@@@std@@QAE@PAU012@00ABU?$pair@$$CBKPAVIData@@@2@D@Z ENDP ; std::_Tree_nod<std::_Tmap_traits<unsigned long,IData *,std::less<unsigned long>,std::allocator<std::pair<unsigned long const ,IData *> >,0> >::_Node::_Node
; Function compile flags: /Odt /RTCsu
; File d:\program files (x86)\microsoft visual studio .net 2003\vc7\include\map
_TEXT	ENDS
;	COMDAT ??0?$_Tmap_traits@KPAVIData@@U?$less@K@std@@V?$allocator@U?$pair@$$CBKPAVIData@@@std@@@3@$0A@@std@@QAE@U?$less@K@1@@Z
_TEXT	SEGMENT
_this$ = -4						; size = 4
__Parg$ = 8						; size = 1
??0?$_Tmap_traits@KPAVIData@@U?$less@K@std@@V?$allocator@U?$pair@$$CBKPAVIData@@@std@@@3@$0A@@std@@QAE@U?$less@K@1@@Z PROC NEAR ; std::_Tmap_traits<unsigned long,IData *,std::less<unsigned long>,std::allocator<std::pair<unsigned long const ,IData *> >,0>::_Tmap_traits<unsigned long,IData *,std::less<unsigned long>,std::allocator<std::pair<unsigned long const ,IData *> >,0>, COMDAT
; _this$ = ecx

; 38   : 		{	// construct with specified comparator

  00000	55		 push	 ebp
  00001	8b ec		 mov	 ebp, esp
  00003	51		 push	 ecx
  00004	c7 45 fc cc cc
	cc cc		 mov	 DWORD PTR [ebp-4], -858993460 ; ccccccccH
  0000b	89 4d fc	 mov	 DWORD PTR _this$[ebp], ecx

; 39   : 		}

  0000e	8b 45 fc	 mov	 eax, DWORD PTR _this$[ebp]
  00011	8b e5		 mov	 esp, ebp
  00013	5d		 pop	 ebp
  00014	c2 04 00	 ret	 4
??0?$_Tmap_traits@KPAVIData@@U?$less@K@std@@V?$allocator@U?$pair@$$CBKPAVIData@@@std@@@3@$0A@@std@@QAE@U?$less@K@1@@Z ENDP ; std::_Tmap_traits<unsigned long,IData *,std::less<unsigned long>,std::allocator<std::pair<unsigned long const ,IData *> >,0>::_Tmap_traits<unsigned long,IData *,std::less<unsigned long>,std::allocator<std::pair<unsigned long const ,IData *> >,0>
_TEXT	ENDS
PUBLIC	??$_Iter_cat@Viterator@?$_Tree@V?$_Tmap_traits@KPAVIData@@U?$less@K@std@@V?$allocator@U?$pair@$$CBKPAVIData@@@std@@@3@$0A@@std@@@std@@@std@@YA?AUbidirectional_iterator_tag@0@ABViterator@?$_Tree@V?$_Tmap_traits@KPAVIData@@U?$less@K@std@@V?$allocator@U?$pair@$$CBKPAVIData@@@std@@@3@$0A@@std@@@0@@Z ; std::_Iter_cat<std::_Tree<std::_Tmap_traits<unsigned long,IData *,std::less<unsigned long>,std::allocator<std::pair<unsigned long const ,IData *> >,0> >::iterator>
PUBLIC	??$_Distance2@Viterator@?$_Tree@V?$_Tmap_traits@KPAVIData@@U?$less@K@std@@V?$allocator@U?$pair@$$CBKPAVIData@@@std@@@3@$0A@@std@@@std@@I@std@@YAXViterator@?$_Tree@V?$_Tmap_traits@KPAVIData@@U?$less@K@std@@V?$allocator@U?$pair@$$CBKPAVIData@@@std@@@3@$0A@@std@@@0@0AAIUbidirectional_iterator_tag@0@@Z ; std::_Distance2<std::_Tree<std::_Tmap_traits<unsigned long,IData *,std::less<unsigned long>,std::allocator<std::pair<unsigned long const ,IData *> >,0> >::iterator,unsigned int>
; Function compile flags: /Odt /RTCsu
; File d:\program files (x86)\microsoft visual studio .net 2003\vc7\include\xutility
;	COMDAT ??$_Distance@Viterator@?$_Tree@V?$_Tmap_traits@KPAVIData@@U?$less@K@std@@V?$allocator@U?$pair@$$CBKPAVIData@@@std@@@3@$0A@@std@@@std@@I@std@@YAXViterator@?$_Tree@V?$_Tmap_traits@KPAVIData@@U?$less@K@std@@V?$allocator@U?$pair@$$CBKPAVIData@@@std@@@3@$0A@@std@@@0@0AAI@Z
_TEXT	SEGMENT
$T190428 = -1						; size = 1
__First$ = 8						; size = 4
__Last$ = 12						; size = 4
__Off$ = 16						; size = 4
??$_Distance@Viterator@?$_Tree@V?$_Tmap_traits@KPAVIData@@U?$less@K@std@@V?$allocator@U?$pair@$$CBKPAVIData@@@std@@@3@$0A@@std@@@std@@I@std@@YAXViterator@?$_Tree@V?$_Tmap_traits@KPAVIData@@U?$less@K@std@@V?$allocator@U?$pair@$$CBKPAVIData@@@std@@@3@$0A@@std@@@0@0AAI@Z PROC NEAR ; std::_Distance<std::_Tree<std::_Tmap_traits<unsigned long,IData *,std::less<unsigned long>,std::allocator<std::pair<unsigned long const ,IData *> >,0> >::iterator,unsigned int>, COMDAT

; 497  : 	{	// add to _Off distance between iterators

  00000	55		 push	 ebp
  00001	8b ec		 mov	 ebp, esp
  00003	51		 push	 ecx
  00004	c7 45 fc cc cc
	cc cc		 mov	 DWORD PTR [ebp-4], -858993460 ; ccccccccH

; 498  : 	_Distance2(_First, _Last, _Off, _Iter_cat(_First));

  0000b	8d 45 08	 lea	 eax, DWORD PTR __First$[ebp]
  0000e	50		 push	 eax
  0000f	8d 4d ff	 lea	 ecx, DWORD PTR $T190428[ebp]
  00012	51		 push	 ecx
  00013	e8 00 00 00 00	 call	 ??$_Iter_cat@Viterator@?$_Tree@V?$_Tmap_traits@KPAVIData@@U?$less@K@std@@V?$allocator@U?$pair@$$CBKPAVIData@@@std@@@3@$0A@@std@@@std@@@std@@YA?AUbidirectional_iterator_tag@0@ABViterator@?$_Tree@V?$_Tmap_traits@KPAVIData@@U?$less@K@std@@V?$allocator@U?$pair@$$CBKPAVIData@@@std@@@3@$0A@@std@@@0@@Z ; std::_Iter_cat<std::_Tree<std::_Tmap_traits<unsigned long,IData *,std::less<unsigned long>,std::allocator<std::pair<unsigned long const ,IData *> >,0> >::iterator>
  00018	83 c4 08	 add	 esp, 8
  0001b	8a 10		 mov	 dl, BYTE PTR [eax]
  0001d	52		 push	 edx
  0001e	8b 45 10	 mov	 eax, DWORD PTR __Off$[ebp]
  00021	50		 push	 eax
  00022	8b 4d 0c	 mov	 ecx, DWORD PTR __Last$[ebp]
  00025	51		 push	 ecx
  00026	8b 55 08	 mov	 edx, DWORD PTR __First$[ebp]
  00029	52		 push	 edx
  0002a	e8 00 00 00 00	 call	 ??$_Distance2@Viterator@?$_Tree@V?$_Tmap_traits@KPAVIData@@U?$less@K@std@@V?$allocator@U?$pair@$$CBKPAVIData@@@std@@@3@$0A@@std@@@std@@I@std@@YAXViterator@?$_Tree@V?$_Tmap_traits@KPAVIData@@U?$less@K@std@@V?$allocator@U?$pair@$$CBKPAVIData@@@std@@@3@$0A@@std@@@0@0AAIUbidirectional_iterator_tag@0@@Z ; std::_Distance2<std::_Tree<std::_Tmap_traits<unsigned long,IData *,std::less<unsigned long>,std::allocator<std::pair<unsigned long const ,IData *> >,0> >::iterator,unsigned int>
  0002f	83 c4 10	 add	 esp, 16			; 00000010H

; 499  : 	}

  00032	83 c4 04	 add	 esp, 4
  00035	3b ec		 cmp	 ebp, esp
  00037	e8 00 00 00 00	 call	 __RTC_CheckEsp
  0003c	8b e5		 mov	 esp, ebp
  0003e	5d		 pop	 ebp
  0003f	c3		 ret	 0
??$_Distance@Viterator@?$_Tree@V?$_Tmap_traits@KPAVIData@@U?$less@K@std@@V?$allocator@U?$pair@$$CBKPAVIData@@@std@@@3@$0A@@std@@@std@@I@std@@YAXViterator@?$_Tree@V?$_Tmap_traits@KPAVIData@@U?$less@K@std@@V?$allocator@U?$pair@$$CBKPAVIData@@@std@@@3@$0A@@std@@@0@0AAI@Z ENDP ; std::_Distance<std::_Tree<std::_Tmap_traits<unsigned long,IData *,std::less<unsigned long>,std::allocator<std::pair<unsigned long const ,IData *> >,0> >::iterator,unsigned int>
; Function compile flags: /Odt /RTCsu
; File d:\program files (x86)\microsoft visual studio .net 2003\vc7\include\xmemory
_TEXT	ENDS
;	COMDAT ??$_Destroy@U_Node@?$_Tree_nod@V?$_Tmap_traits@KPAVIData@@U?$less@K@std@@V?$allocator@U?$pair@$$CBKPAVIData@@@std@@@3@$0A@@std@@@std@@@std@@YAXPAU_Node@?$_Tree_nod@V?$_Tmap_traits@KPAVIData@@U?$less@K@std@@V?$allocator@U?$pair@$$CBKPAVIData@@@std@@@3@$0A@@std@@@0@@Z
_TEXT	SEGMENT
__Ptr$ = 8						; size = 4
??$_Destroy@U_Node@?$_Tree_nod@V?$_Tmap_traits@KPAVIData@@U?$less@K@std@@V?$allocator@U?$pair@$$CBKPAVIData@@@std@@@3@$0A@@std@@@std@@@std@@YAXPAU_Node@?$_Tree_nod@V?$_Tmap_traits@KPAVIData@@U?$less@K@std@@V?$allocator@U?$pair@$$CBKPAVIData@@@std@@@3@$0A@@std@@@0@@Z PROC NEAR ; std::_Destroy<std::_Tree_nod<std::_Tmap_traits<unsigned long,IData *,std::less<unsigned long>,std::allocator<std::pair<unsigned long const ,IData *> >,0> >::_Node>, COMDAT

; 48   : 	{	// destroy object at _Ptr

  00000	55		 push	 ebp
  00001	8b ec		 mov	 ebp, esp

; 49   : 	_DESTRUCTOR(_Ty, _Ptr);
; 50   : 	}

  00003	5d		 pop	 ebp
  00004	c3		 ret	 0
??$_Destroy@U_Node@?$_Tree_nod@V?$_Tmap_traits@KPAVIData@@U?$less@K@std@@V?$allocator@U?$pair@$$CBKPAVIData@@@std@@@3@$0A@@std@@@std@@@std@@YAXPAU_Node@?$_Tree_nod@V?$_Tmap_traits@KPAVIData@@U?$less@K@std@@V?$allocator@U?$pair@$$CBKPAVIData@@@std@@@3@$0A@@std@@@0@@Z ENDP ; std::_Destroy<std::_Tree_nod<std::_Tmap_traits<unsigned long,IData *,std::less<unsigned long>,std::allocator<std::pair<unsigned long const ,IData *> >,0> >::_Node>
; Function compile flags: /Odt /RTCsu
_TEXT	ENDS
;	COMDAT ??$_Destroy@PAU_Node@?$_Tree_nod@V?$_Tmap_traits@KPAVIData@@U?$less@K@std@@V?$allocator@U?$pair@$$CBKPAVIData@@@std@@@3@$0A@@std@@@std@@@std@@YAXPAPAU_Node@?$_Tree_nod@V?$_Tmap_traits@KPAVIData@@U?$less@K@std@@V?$allocator@U?$pair@$$CBKPAVIData@@@std@@@3@$0A@@std@@@0@@Z
_TEXT	SEGMENT
__Ptr$ = 8						; size = 4
??$_Destroy@PAU_Node@?$_Tree_nod@V?$_Tmap_traits@KPAVIData@@U?$less@K@std@@V?$allocator@U?$pair@$$CBKPAVIData@@@std@@@3@$0A@@std@@@std@@@std@@YAXPAPAU_Node@?$_Tree_nod@V?$_Tmap_traits@KPAVIData@@U?$less@K@std@@V?$allocator@U?$pair@$$CBKPAVIData@@@std@@@3@$0A@@std@@@0@@Z PROC NEAR ; std::_Destroy<std::_Tree_nod<std::_Tmap_traits<unsigned long,IData *,std::less<unsigned long>,std::allocator<std::pair<unsigned long const ,IData *> >,0> >::_Node *>, COMDAT

; 48   : 	{	// destroy object at _Ptr

  00000	55		 push	 ebp
  00001	8b ec		 mov	 ebp, esp

; 49   : 	_DESTRUCTOR(_Ty, _Ptr);
; 50   : 	}

  00003	5d		 pop	 ebp
  00004	c3		 ret	 0
??$_Destroy@PAU_Node@?$_Tree_nod@V?$_Tmap_traits@KPAVIData@@U?$less@K@std@@V?$allocator@U?$pair@$$CBKPAVIData@@@std@@@3@$0A@@std@@@std@@@std@@YAXPAPAU_Node@?$_Tree_nod@V?$_Tmap_traits@KPAVIData@@U?$less@K@std@@V?$allocator@U?$pair@$$CBKPAVIData@@@std@@@3@$0A@@std@@@0@@Z ENDP ; std::_Destroy<std::_Tree_nod<std::_Tmap_traits<unsigned long,IData *,std::less<unsigned long>,std::allocator<std::pair<unsigned long const ,IData *> >,0> >::_Node *>
; Function compile flags: /Odt /RTCsu
_TEXT	ENDS
;	COMDAT ??$?0U?$pair@$$CBKPAVIData@@@std@@@?$allocator@PAU_Node@?$_Tree_nod@V?$_Tmap_traits@KPAVIData@@U?$less@K@std@@V?$allocator@U?$pair@$$CBKPAVIData@@@std@@@3@$0A@@std@@@std@@@std@@QAE@ABV?$allocator@U?$pair@$$CBKPAVIData@@@std@@@1@@Z
_TEXT	SEGMENT
_this$ = -4						; size = 4
___formal$ = 8						; size = 4
??$?0U?$pair@$$CBKPAVIData@@@std@@@?$allocator@PAU_Node@?$_Tree_nod@V?$_Tmap_traits@KPAVIData@@U?$less@K@std@@V?$allocator@U?$pair@$$CBKPAVIData@@@std@@@3@$0A@@std@@@std@@@std@@QAE@ABV?$allocator@U?$pair@$$CBKPAVIData@@@std@@@1@@Z PROC NEAR ; std::allocator<std::_Tree_nod<std::_Tmap_traits<unsigned long,IData *,std::less<unsigned long>,std::allocator<std::pair<unsigned long const ,IData *> >,0> >::_Node *>::allocator<std::_Tree_nod<std::_Tmap_traits<unsigned long,IData *,std::less<unsigned long>,std::allocator<std::pair<unsigned long const ,IData *> >,0> >::_Node *><std::pair<unsigned long const ,IData *> >, COMDAT
; _this$ = ecx

; 120  : 		allocator(const allocator<_Other>&)

  00000	55		 push	 ebp
  00001	8b ec		 mov	 ebp, esp
  00003	51		 push	 ecx
  00004	c7 45 fc cc cc
	cc cc		 mov	 DWORD PTR [ebp-4], -858993460 ; ccccccccH
  0000b	89 4d fc	 mov	 DWORD PTR _this$[ebp], ecx

; 121  : 		{	// construct from a related allocator (do nothing)
; 122  : 		}

  0000e	8b 45 fc	 mov	 eax, DWORD PTR _this$[ebp]
  00011	8b e5		 mov	 esp, ebp
  00013	5d		 pop	 ebp
  00014	c2 04 00	 ret	 4
??$?0U?$pair@$$CBKPAVIData@@@std@@@?$allocator@PAU_Node@?$_Tree_nod@V?$_Tmap_traits@KPAVIData@@U?$less@K@std@@V?$allocator@U?$pair@$$CBKPAVIData@@@std@@@3@$0A@@std@@@std@@@std@@QAE@ABV?$allocator@U?$pair@$$CBKPAVIData@@@std@@@1@@Z ENDP ; std::allocator<std::_Tree_nod<std::_Tmap_traits<unsigned long,IData *,std::less<unsigned long>,std::allocator<std::pair<unsigned long const ,IData *> >,0> >::_Node *>::allocator<std::_Tree_nod<std::_Tmap_traits<unsigned long,IData *,std::less<unsigned long>,std::allocator<std::pair<unsigned long const ,IData *> >,0> >::_Node *><std::pair<unsigned long const ,IData *> >
; Function compile flags: /Odt /RTCsu
_TEXT	ENDS
;	COMDAT ??$?0U?$pair@$$CBKPAVIData@@@std@@@?$allocator@U_Node@?$_Tree_nod@V?$_Tmap_traits@KPAVIData@@U?$less@K@std@@V?$allocator@U?$pair@$$CBKPAVIData@@@std@@@3@$0A@@std@@@std@@@std@@QAE@ABV?$allocator@U?$pair@$$CBKPAVIData@@@std@@@1@@Z
_TEXT	SEGMENT
_this$ = -4						; size = 4
___formal$ = 8						; size = 4
??$?0U?$pair@$$CBKPAVIData@@@std@@@?$allocator@U_Node@?$_Tree_nod@V?$_Tmap_traits@KPAVIData@@U?$less@K@std@@V?$allocator@U?$pair@$$CBKPAVIData@@@std@@@3@$0A@@std@@@std@@@std@@QAE@ABV?$allocator@U?$pair@$$CBKPAVIData@@@std@@@1@@Z PROC NEAR ; std::allocator<std::_Tree_nod<std::_Tmap_traits<unsigned long,IData *,std::less<unsigned long>,std::allocator<std::pair<unsigned long const ,IData *> >,0> >::_Node>::allocator<std::_Tree_nod<std::_Tmap_traits<unsigned long,IData *,std::less<unsigned long>,std::allocator<std::pair<unsigned long const ,IData *> >,0> >::_Node><std::pair<unsigned long const ,IData *> >, COMDAT
; _this$ = ecx

; 120  : 		allocator(const allocator<_Other>&)

  00000	55		 push	 ebp
  00001	8b ec		 mov	 ebp, esp
  00003	51		 push	 ecx
  00004	c7 45 fc cc cc
	cc cc		 mov	 DWORD PTR [ebp-4], -858993460 ; ccccccccH
  0000b	89 4d fc	 mov	 DWORD PTR _this$[ebp], ecx

; 121  : 		{	// construct from a related allocator (do nothing)
; 122  : 		}

  0000e	8b 45 fc	 mov	 eax, DWORD PTR _this$[ebp]
  00011	8b e5		 mov	 esp, ebp
  00013	5d		 pop	 ebp
  00014	c2 04 00	 ret	 4
??$?0U?$pair@$$CBKPAVIData@@@std@@@?$allocator@U_Node@?$_Tree_nod@V?$_Tmap_traits@KPAVIData@@U?$less@K@std@@V?$allocator@U?$pair@$$CBKPAVIData@@@std@@@3@$0A@@std@@@std@@@std@@QAE@ABV?$allocator@U?$pair@$$CBKPAVIData@@@std@@@1@@Z ENDP ; std::allocator<std::_Tree_nod<std::_Tmap_traits<unsigned long,IData *,std::less<unsigned long>,std::allocator<std::pair<unsigned long const ,IData *> >,0> >::_Node>::allocator<std::_Tree_nod<std::_Tmap_traits<unsigned long,IData *,std::less<unsigned long>,std::allocator<std::pair<unsigned long const ,IData *> >,0> >::_Node><std::pair<unsigned long const ,IData *> >
_TEXT	ENDS
EXTRN	??2@YAPAXI@Z:NEAR				; operator new
; Function compile flags: /Odt /RTCsu
;	COMDAT ??$_Allocate@U_Node@?$_Tree_nod@V?$_Tmap_traits@KPAVIData@@U?$less@K@std@@V?$allocator@U?$pair@$$CBKPAVIData@@@std@@@3@$0A@@std@@@std@@@std@@YAPAU_Node@?$_Tree_nod@V?$_Tmap_traits@KPAVIData@@U?$less@K@std@@V?$allocator@U?$pair@$$CBKPAVIData@@@std@@@3@$0A@@std@@@0@IPAU120@@Z
_TEXT	SEGMENT
__Count$ = 8						; size = 4
___formal$ = 12						; size = 4
??$_Allocate@U_Node@?$_Tree_nod@V?$_Tmap_traits@KPAVIData@@U?$less@K@std@@V?$allocator@U?$pair@$$CBKPAVIData@@@std@@@3@$0A@@std@@@std@@@std@@YAPAU_Node@?$_Tree_nod@V?$_Tmap_traits@KPAVIData@@U?$less@K@std@@V?$allocator@U?$pair@$$CBKPAVIData@@@std@@@3@$0A@@std@@@0@IPAU120@@Z PROC NEAR ; std::_Allocate<std::_Tree_nod<std::_Tmap_traits<unsigned long,IData *,std::less<unsigned long>,std::allocator<std::pair<unsigned long const ,IData *> >,0> >::_Node>, COMDAT

; 33   : 	{	// allocate storage for _Count elements of type _Ty

  00000	55		 push	 ebp
  00001	8b ec		 mov	 ebp, esp

; 34   : 	return ((_Ty _FARQ *)operator new(_Count * sizeof (_Ty)));

  00003	8b 45 08	 mov	 eax, DWORD PTR __Count$[ebp]
  00006	6b c0 18	 imul	 eax, 24			; 00000018H
  00009	50		 push	 eax
  0000a	e8 00 00 00 00	 call	 ??2@YAPAXI@Z		; operator new
  0000f	83 c4 04	 add	 esp, 4

; 35   : 	}

  00012	3b ec		 cmp	 ebp, esp
  00014	e8 00 00 00 00	 call	 __RTC_CheckEsp
  00019	5d		 pop	 ebp
  0001a	c3		 ret	 0
??$_Allocate@U_Node@?$_Tree_nod@V?$_Tmap_traits@KPAVIData@@U?$less@K@std@@V?$allocator@U?$pair@$$CBKPAVIData@@@std@@@3@$0A@@std@@@std@@@std@@YAPAU_Node@?$_Tree_nod@V?$_Tmap_traits@KPAVIData@@U?$less@K@std@@V?$allocator@U?$pair@$$CBKPAVIData@@@std@@@3@$0A@@std@@@0@IPAU120@@Z ENDP ; std::_Allocate<std::_Tree_nod<std::_Tmap_traits<unsigned long,IData *,std::less<unsigned long>,std::allocator<std::pair<unsigned long const ,IData *> >,0> >::_Node>
; Function compile flags: /Odt /RTCsu
_TEXT	ENDS
;	COMDAT ??$_Construct@PAU_Node@?$_Tree_nod@V?$_Tmap_traits@KPAVIData@@U?$less@K@std@@V?$allocator@U?$pair@$$CBKPAVIData@@@std@@@3@$0A@@std@@@std@@PAU123@@std@@YAXPAPAU_Node@?$_Tree_nod@V?$_Tmap_traits@KPAVIData@@U?$less@K@std@@V?$allocator@U?$pair@$$CBKPAVIData@@@std@@@3@$0A@@std@@@0@ABQAU120@@Z
_TEXT	SEGMENT
tv68 = -8						; size = 4
$T190435 = -4						; size = 4
__Ptr$ = 8						; size = 4
__Val$ = 12						; size = 4
??$_Construct@PAU_Node@?$_Tree_nod@V?$_Tmap_traits@KPAVIData@@U?$less@K@std@@V?$allocator@U?$pair@$$CBKPAVIData@@@std@@@3@$0A@@std@@@std@@PAU123@@std@@YAXPAPAU_Node@?$_Tree_nod@V?$_Tmap_traits@KPAVIData@@U?$less@K@std@@V?$allocator@U?$pair@$$CBKPAVIData@@@std@@@3@$0A@@std@@@0@ABQAU120@@Z PROC NEAR ; std::_Construct<std::_Tree_nod<std::_Tmap_traits<unsigned long,IData *,std::less<unsigned long>,std::allocator<std::pair<unsigned long const ,IData *> >,0> >::_Node *,std::_Tree_nod<std::_Tmap_traits<unsigned long,IData *,std::less<unsigned long>,std::allocator<std::pair<unsigned long const ,IData *> >,0> >::_Node *>, COMDAT

; 41   : 	{	// construct object at _Ptr with value _Val

  00000	55		 push	 ebp
  00001	8b ec		 mov	 ebp, esp
  00003	83 ec 08	 sub	 esp, 8
  00006	c7 45 f8 cc cc
	cc cc		 mov	 DWORD PTR [ebp-8], -858993460 ; ccccccccH
  0000d	c7 45 fc cc cc
	cc cc		 mov	 DWORD PTR [ebp-4], -858993460 ; ccccccccH

; 42   : 	new ((void _FARQ *)_Ptr) _T1(_Val);

  00014	8b 45 08	 mov	 eax, DWORD PTR __Ptr$[ebp]
  00017	50		 push	 eax
  00018	6a 04		 push	 4
  0001a	e8 00 00 00 00	 call	 ??2@YAPAXIPAX@Z		; operator new
  0001f	83 c4 08	 add	 esp, 8
  00022	89 45 fc	 mov	 DWORD PTR $T190435[ebp], eax
  00025	83 7d fc 00	 cmp	 DWORD PTR $T190435[ebp], 0
  00029	74 12		 je	 SHORT $L190436
  0002b	8b 4d fc	 mov	 ecx, DWORD PTR $T190435[ebp]
  0002e	8b 55 0c	 mov	 edx, DWORD PTR __Val$[ebp]
  00031	8b 02		 mov	 eax, DWORD PTR [edx]
  00033	89 01		 mov	 DWORD PTR [ecx], eax
  00035	8b 4d fc	 mov	 ecx, DWORD PTR $T190435[ebp]
  00038	89 4d f8	 mov	 DWORD PTR tv68[ebp], ecx
  0003b	eb 07		 jmp	 SHORT $L189677
$L190436:
  0003d	c7 45 f8 00 00
	00 00		 mov	 DWORD PTR tv68[ebp], 0
$L189677:

; 43   : 	}

  00044	83 c4 08	 add	 esp, 8
  00047	3b ec		 cmp	 ebp, esp
  00049	e8 00 00 00 00	 call	 __RTC_CheckEsp
  0004e	8b e5		 mov	 esp, ebp
  00050	5d		 pop	 ebp
  00051	c3		 ret	 0
??$_Construct@PAU_Node@?$_Tree_nod@V?$_Tmap_traits@KPAVIData@@U?$less@K@std@@V?$allocator@U?$pair@$$CBKPAVIData@@@std@@@3@$0A@@std@@@std@@PAU123@@std@@YAXPAPAU_Node@?$_Tree_nod@V?$_Tmap_traits@KPAVIData@@U?$less@K@std@@V?$allocator@U?$pair@$$CBKPAVIData@@@std@@@3@$0A@@std@@@0@ABQAU120@@Z ENDP ; std::_Construct<std::_Tree_nod<std::_Tmap_traits<unsigned long,IData *,std::less<unsigned long>,std::allocator<std::pair<unsigned long const ,IData *> >,0> >::_Node *,std::_Tree_nod<std::_Tmap_traits<unsigned long,IData *,std::less<unsigned long>,std::allocator<std::pair<unsigned long const ,IData *> >,0> >::_Node *>
; Function compile flags: /Odt /RTCsu
; File d:\program files (x86)\microsoft visual studio .net 2003\vc7\include\xutility
_TEXT	ENDS
;	COMDAT ??$_Iter_cat@Viterator@?$_Tree@V?$_Tmap_traits@KPAVIData@@U?$less@K@std@@V?$allocator@U?$pair@$$CBKPAVIData@@@std@@@3@$0A@@std@@@std@@@std@@YA?AUbidirectional_iterator_tag@0@ABViterator@?$_Tree@V?$_Tmap_traits@KPAVIData@@U?$less@K@std@@V?$allocator@U?$pair@$$CBKPAVIData@@@std@@@3@$0A@@std@@@0@@Z
_TEXT	SEGMENT
___$ReturnUdt$ = 8					; size = 4
___formal$ = 12						; size = 4
??$_Iter_cat@Viterator@?$_Tree@V?$_Tmap_traits@KPAVIData@@U?$less@K@std@@V?$allocator@U?$pair@$$CBKPAVIData@@@std@@@3@$0A@@std@@@std@@@std@@YA?AUbidirectional_iterator_tag@0@ABViterator@?$_Tree@V?$_Tmap_traits@KPAVIData@@U?$less@K@std@@V?$allocator@U?$pair@$$CBKPAVIData@@@std@@@3@$0A@@std@@@0@@Z PROC NEAR ; std::_Iter_cat<std::_Tree<std::_Tmap_traits<unsigned long,IData *,std::less<unsigned long>,std::allocator<std::pair<unsigned long const ,IData *> >,0> >::iterator>, COMDAT

; 201  : 	{	// return category from iterator argument

  00000	55		 push	 ebp
  00001	8b ec		 mov	 ebp, esp
  00003	83 ec 0c	 sub	 esp, 12			; 0000000cH
  00006	c7 45 f4 cc cc
	cc cc		 mov	 DWORD PTR [ebp-12], -858993460 ; ccccccccH
  0000d	c7 45 f8 cc cc
	cc cc		 mov	 DWORD PTR [ebp-8], -858993460 ; ccccccccH
  00014	c7 45 fc cc cc
	cc cc		 mov	 DWORD PTR [ebp-4], -858993460 ; ccccccccH

; 202  : 	typename iterator_traits<_Iter>::iterator_category _Cat;
; 203  : 	return (_Cat);

  0001b	8b 45 08	 mov	 eax, DWORD PTR ___$ReturnUdt$[ebp]

; 204  : 	}

  0001e	52		 push	 edx
  0001f	8b cd		 mov	 ecx, ebp
  00021	50		 push	 eax
  00022	8d 15 00 00 00
	00		 lea	 edx, DWORD PTR $L190441
  00028	e8 00 00 00 00	 call	 @_RTC_CheckStackVars@8
  0002d	58		 pop	 eax
  0002e	5a		 pop	 edx
  0002f	8b e5		 mov	 esp, ebp
  00031	5d		 pop	 ebp
  00032	c3		 ret	 0
$L190441:
  00033	01 00 00 00	 DD	 1
  00037	00 00 00 00	 DD	 $L190440
$L190440:
  0003b	fb ff ff ff	 DD	 -5			; fffffffbH
  0003f	01 00 00 00	 DD	 1
  00043	00 00 00 00	 DD	 $L190439
$L190439:
  00047	5f		 DB	 95			; 0000005fH
  00048	43		 DB	 67			; 00000043H
  00049	61		 DB	 97			; 00000061H
  0004a	74		 DB	 116			; 00000074H
  0004b	00		 DB	 0
??$_Iter_cat@Viterator@?$_Tree@V?$_Tmap_traits@KPAVIData@@U?$less@K@std@@V?$allocator@U?$pair@$$CBKPAVIData@@@std@@@3@$0A@@std@@@std@@@std@@YA?AUbidirectional_iterator_tag@0@ABViterator@?$_Tree@V?$_Tmap_traits@KPAVIData@@U?$less@K@std@@V?$allocator@U?$pair@$$CBKPAVIData@@@std@@@3@$0A@@std@@@0@@Z ENDP ; std::_Iter_cat<std::_Tree<std::_Tmap_traits<unsigned long,IData *,std::less<unsigned long>,std::allocator<std::pair<unsigned long const ,IData *> >,0> >::iterator>
; Function compile flags: /Odt /RTCsu
_TEXT	ENDS
;	COMDAT ??$_Distance2@Viterator@?$_Tree@V?$_Tmap_traits@KPAVIData@@U?$less@K@std@@V?$allocator@U?$pair@$$CBKPAVIData@@@std@@@3@$0A@@std@@@std@@I@std@@YAXViterator@?$_Tree@V?$_Tmap_traits@KPAVIData@@U?$less@K@std@@V?$allocator@U?$pair@$$CBKPAVIData@@@std@@@3@$0A@@std@@@0@0AAIUbidirectional_iterator_tag@0@@Z
_TEXT	SEGMENT
__First$ = 8						; size = 4
__Last$ = 12						; size = 4
__Off$ = 16						; size = 4
___formal$ = 20						; size = 1
??$_Distance2@Viterator@?$_Tree@V?$_Tmap_traits@KPAVIData@@U?$less@K@std@@V?$allocator@U?$pair@$$CBKPAVIData@@@std@@@3@$0A@@std@@@std@@I@std@@YAXViterator@?$_Tree@V?$_Tmap_traits@KPAVIData@@U?$less@K@std@@V?$allocator@U?$pair@$$CBKPAVIData@@@std@@@3@$0A@@std@@@0@0AAIUbidirectional_iterator_tag@0@@Z PROC NEAR ; std::_Distance2<std::_Tree<std::_Tmap_traits<unsigned long,IData *,std::less<unsigned long>,std::allocator<std::pair<unsigned long const ,IData *> >,0> >::iterator,unsigned int>, COMDAT

; 469  : 	{	// add to _Off distance between bidirectional iterators (redundant)

  00000	55		 push	 ebp
  00001	8b ec		 mov	 ebp, esp

; 470  : 	for (; _First != _Last; ++_First)

  00003	eb 08		 jmp	 SHORT $L189685
$L189686:
  00005	8d 4d 08	 lea	 ecx, DWORD PTR __First$[ebp]
  00008	e8 00 00 00 00	 call	 ??Eiterator@?$_Tree@V?$_Tmap_traits@KPAVIData@@U?$less@K@std@@V?$allocator@U?$pair@$$CBKPAVIData@@@std@@@3@$0A@@std@@@std@@QAEAAV012@XZ ; std::_Tree<std::_Tmap_traits<unsigned long,IData *,std::less<unsigned long>,std::allocator<std::pair<unsigned long const ,IData *> >,0> >::iterator::operator++
$L189685:
  0000d	8d 45 0c	 lea	 eax, DWORD PTR __Last$[ebp]
  00010	50		 push	 eax
  00011	8d 4d 08	 lea	 ecx, DWORD PTR __First$[ebp]
  00014	e8 00 00 00 00	 call	 ??9const_iterator@?$_Tree@V?$_Tmap_traits@KPAVIData@@U?$less@K@std@@V?$allocator@U?$pair@$$CBKPAVIData@@@std@@@3@$0A@@std@@@std@@QBE_NABV012@@Z ; std::_Tree<std::_Tmap_traits<unsigned long,IData *,std::less<unsigned long>,std::allocator<std::pair<unsigned long const ,IData *> >,0> >::const_iterator::operator!=
  00019	0f b6 c8	 movzx	 ecx, al
  0001c	85 c9		 test	 ecx, ecx
  0001e	74 0f		 je	 SHORT $L189684

; 471  : 		++_Off;

  00020	8b 55 10	 mov	 edx, DWORD PTR __Off$[ebp]
  00023	8b 02		 mov	 eax, DWORD PTR [edx]
  00025	83 c0 01	 add	 eax, 1
  00028	8b 4d 10	 mov	 ecx, DWORD PTR __Off$[ebp]
  0002b	89 01		 mov	 DWORD PTR [ecx], eax
  0002d	eb d6		 jmp	 SHORT $L189686
$L189684:

; 472  : 	}

  0002f	3b ec		 cmp	 ebp, esp
  00031	e8 00 00 00 00	 call	 __RTC_CheckEsp
  00036	5d		 pop	 ebp
  00037	c3		 ret	 0
??$_Distance2@Viterator@?$_Tree@V?$_Tmap_traits@KPAVIData@@U?$less@K@std@@V?$allocator@U?$pair@$$CBKPAVIData@@@std@@@3@$0A@@std@@@std@@I@std@@YAXViterator@?$_Tree@V?$_Tmap_traits@KPAVIData@@U?$less@K@std@@V?$allocator@U?$pair@$$CBKPAVIData@@@std@@@3@$0A@@std@@@0@0AAIUbidirectional_iterator_tag@0@@Z ENDP ; std::_Distance2<std::_Tree<std::_Tmap_traits<unsigned long,IData *,std::less<unsigned long>,std::allocator<std::pair<unsigned long const ,IData *> >,0> >::iterator,unsigned int>
_TEXT	ENDS
EXTRN	__imp_?c_str@?$basic_string@DU?$char_traits@D@std@@V?$allocator@D@2@@std@@QBEPBDXZ:NEAR
; Function compile flags: /Odt /RTCsu
; File d:\program files (x86)\microsoft visual studio .net 2003\vc7\include\stdexcept
;	COMDAT ?what@logic_error@std@@UBEPBDXZ
_TEXT	SEGMENT
_this$ = -4						; size = 4
?what@logic_error@std@@UBEPBDXZ PROC NEAR		; std::logic_error::what, COMDAT
; _this$ = ecx

; 26   : 		{	// return pointer to message string

  00000	55		 push	 ebp
  00001	8b ec		 mov	 ebp, esp
  00003	51		 push	 ecx
  00004	56		 push	 esi
  00005	c7 45 fc cc cc
	cc cc		 mov	 DWORD PTR [ebp-4], -858993460 ; ccccccccH
  0000c	89 4d fc	 mov	 DWORD PTR _this$[ebp], ecx

; 27   : 		return (_Str.c_str());

  0000f	8b 4d fc	 mov	 ecx, DWORD PTR _this$[ebp]
  00012	83 c1 0c	 add	 ecx, 12			; 0000000cH
  00015	8b f4		 mov	 esi, esp
  00017	ff 15 00 00 00
	00		 call	 DWORD PTR __imp_?c_str@?$basic_string@DU?$char_traits@D@std@@V?$allocator@D@2@@std@@QBEPBDXZ
  0001d	3b f4		 cmp	 esi, esp
  0001f	e8 00 00 00 00	 call	 __RTC_CheckEsp

; 28   : 		}

  00024	5e		 pop	 esi
  00025	83 c4 04	 add	 esp, 4
  00028	3b ec		 cmp	 ebp, esp
  0002a	e8 00 00 00 00	 call	 __RTC_CheckEsp
  0002f	8b e5		 mov	 esp, ebp
  00031	5d		 pop	 ebp
  00032	c3		 ret	 0
?what@logic_error@std@@UBEPBDXZ ENDP			; std::logic_error::what
_TEXT	ENDS
PUBLIC	??0logic_error@std@@QAE@ABV?$basic_string@DU?$char_traits@D@std@@V?$allocator@D@2@@1@@Z ; std::logic_error::logic_error
; Function compile flags: /Odt /RTCsu
;	COMDAT ??0length_error@std@@QAE@ABV?$basic_string@DU?$char_traits@D@std@@V?$allocator@D@2@@1@@Z
_TEXT	SEGMENT
_this$ = -4						; size = 4
__Message$ = 8						; size = 4
??0length_error@std@@QAE@ABV?$basic_string@DU?$char_traits@D@std@@V?$allocator@D@2@@1@@Z PROC NEAR ; std::length_error::length_error, COMDAT
; _this$ = ecx

; 95   : 		{	// construct from message string

  00000	55		 push	 ebp
  00001	8b ec		 mov	 ebp, esp
  00003	51		 push	 ecx
  00004	c7 45 fc cc cc
	cc cc		 mov	 DWORD PTR [ebp-4], -858993460 ; ccccccccH
  0000b	89 4d fc	 mov	 DWORD PTR _this$[ebp], ecx
  0000e	8b 45 08	 mov	 eax, DWORD PTR __Message$[ebp]
  00011	50		 push	 eax
  00012	8b 4d fc	 mov	 ecx, DWORD PTR _this$[ebp]
  00015	e8 00 00 00 00	 call	 ??0logic_error@std@@QAE@ABV?$basic_string@DU?$char_traits@D@std@@V?$allocator@D@2@@1@@Z ; std::logic_error::logic_error
  0001a	8b 4d fc	 mov	 ecx, DWORD PTR _this$[ebp]
  0001d	c7 01 00 00 00
	00		 mov	 DWORD PTR [ecx], OFFSET FLAT:??_7length_error@std@@6B@

; 96   : 		}

  00023	8b 45 fc	 mov	 eax, DWORD PTR _this$[ebp]
  00026	83 c4 04	 add	 esp, 4
  00029	3b ec		 cmp	 ebp, esp
  0002b	e8 00 00 00 00	 call	 __RTC_CheckEsp
  00030	8b e5		 mov	 esp, ebp
  00032	5d		 pop	 ebp
  00033	c2 04 00	 ret	 4
??0length_error@std@@QAE@ABV?$basic_string@DU?$char_traits@D@std@@V?$allocator@D@2@@1@@Z ENDP ; std::length_error::length_error
_TEXT	ENDS
PUBLIC	??_7logic_error@std@@6B@			; std::logic_error::`vftable'
PUBLIC	??_Glogic_error@std@@UAEPAXI@Z			; std::logic_error::`scalar deleting destructor'
PUBLIC	??_R4logic_error@std@@6B@			; std::logic_error::`RTTI Complete Object Locator'
PUBLIC	??_R3logic_error@std@@8				; std::logic_error::`RTTI Class Hierarchy Descriptor'
PUBLIC	??_R2logic_error@std@@8				; std::logic_error::`RTTI Base Class Array'
EXTRN	__imp_??0exception@@QAE@XZ:NEAR
EXTRN	__imp_??1exception@@UAE@XZ:NEAR
EXTRN	__imp_??0?$basic_string@DU?$char_traits@D@std@@V?$allocator@D@2@@std@@QAE@ABV01@@Z:NEAR
EXTRN	??_Elogic_error@std@@UAEPAXI@Z:NEAR		; std::logic_error::`vector deleting destructor'
;	COMDAT xdata$x
xdata$x	SEGMENT
$T190452 DD	0ffffffffH
	DD	FLAT:$L190447
$T190450 DD	019930520H
	DD	01H
	DD	FLAT:$T190452
	DD	2 DUP(00H)
	DD	2 DUP(00H)
xdata$x	ENDS
;	COMDAT ??_7logic_error@std@@6B@
CONST	SEGMENT
??_7logic_error@std@@6B@ DD FLAT:??_R4logic_error@std@@6B@ ; std::logic_error::`vftable'
	DD	FLAT:??_Elogic_error@std@@UAEPAXI@Z
	DD	FLAT:?what@logic_error@std@@UBEPBDXZ
CONST	ENDS
;	COMDAT ??_R4logic_error@std@@6B@
rdata$r	SEGMENT
??_R4logic_error@std@@6B@ DD 00H			; std::logic_error::`RTTI Complete Object Locator'
	DD	00H
	DD	00H
	DD	FLAT:??_R0?AVlogic_error@std@@@8
	DD	FLAT:??_R3logic_error@std@@8
rdata$r	ENDS
;	COMDAT ??_R3logic_error@std@@8
rdata$r	SEGMENT
??_R3logic_error@std@@8 DD 00H				; std::logic_error::`RTTI Class Hierarchy Descriptor'
	DD	00H
	DD	02H
	DD	FLAT:??_R2logic_error@std@@8
rdata$r	ENDS
;	COMDAT ??_R2logic_error@std@@8
rdata$r	SEGMENT
??_R2logic_error@std@@8 DD FLAT:??_R1A@?0A@A@logic_error@std@@8 ; std::logic_error::`RTTI Base Class Array'
	DD	FLAT:??_R1A@?0A@A@exception@@8
; Function compile flags: /Odt /RTCsu
rdata$r	ENDS
;	COMDAT ??0logic_error@std@@QAE@ABV?$basic_string@DU?$char_traits@D@std@@V?$allocator@D@2@@1@@Z
_TEXT	SEGMENT
_this$ = -16						; size = 4
__$EHRec$ = -12						; size = 12
__Message$ = 8						; size = 4
??0logic_error@std@@QAE@ABV?$basic_string@DU?$char_traits@D@std@@V?$allocator@D@2@@1@@Z PROC NEAR ; std::logic_error::logic_error, COMDAT
; _this$ = ecx

; 19   : 		{	// construct from message string

  00000	55		 push	 ebp
  00001	8b ec		 mov	 ebp, esp
  00003	6a ff		 push	 -1
  00005	68 00 00 00 00	 push	 __ehhandler$??0logic_error@std@@QAE@ABV?$basic_string@DU?$char_traits@D@std@@V?$allocator@D@2@@1@@Z
  0000a	64 a1 00 00 00
	00		 mov	 eax, DWORD PTR fs:__except_list
  00010	50		 push	 eax
  00011	64 89 25 00 00
	00 00		 mov	 DWORD PTR fs:__except_list, esp
  00018	51		 push	 ecx
  00019	56		 push	 esi
  0001a	c7 45 f0 cc cc
	cc cc		 mov	 DWORD PTR [ebp-16], -858993460 ; ccccccccH
  00021	89 4d f0	 mov	 DWORD PTR _this$[ebp], ecx
  00024	8b f4		 mov	 esi, esp
  00026	8b 4d f0	 mov	 ecx, DWORD PTR _this$[ebp]
  00029	ff 15 00 00 00
	00		 call	 DWORD PTR __imp_??0exception@@QAE@XZ
  0002f	3b f4		 cmp	 esi, esp
  00031	e8 00 00 00 00	 call	 __RTC_CheckEsp
  00036	c7 45 fc 00 00
	00 00		 mov	 DWORD PTR __$EHRec$[ebp+8], 0
  0003d	8b 45 f0	 mov	 eax, DWORD PTR _this$[ebp]
  00040	c7 00 00 00 00
	00		 mov	 DWORD PTR [eax], OFFSET FLAT:??_7logic_error@std@@6B@
  00046	8b f4		 mov	 esi, esp
  00048	8b 4d 08	 mov	 ecx, DWORD PTR __Message$[ebp]
  0004b	51		 push	 ecx
  0004c	8b 4d f0	 mov	 ecx, DWORD PTR _this$[ebp]
  0004f	83 c1 0c	 add	 ecx, 12			; 0000000cH
  00052	ff 15 00 00 00
	00		 call	 DWORD PTR __imp_??0?$basic_string@DU?$char_traits@D@std@@V?$allocator@D@2@@std@@QAE@ABV01@@Z
  00058	3b f4		 cmp	 esi, esp
  0005a	e8 00 00 00 00	 call	 __RTC_CheckEsp

; 20   : 		}

  0005f	c7 45 fc ff ff
	ff ff		 mov	 DWORD PTR __$EHRec$[ebp+8], -1
  00066	8b 45 f0	 mov	 eax, DWORD PTR _this$[ebp]
  00069	8b 4d f4	 mov	 ecx, DWORD PTR __$EHRec$[ebp]
  0006c	64 89 0d 00 00
	00 00		 mov	 DWORD PTR fs:__except_list, ecx
  00073	5e		 pop	 esi
  00074	83 c4 10	 add	 esp, 16			; 00000010H
  00077	3b ec		 cmp	 ebp, esp
  00079	e8 00 00 00 00	 call	 __RTC_CheckEsp
  0007e	8b e5		 mov	 esp, ebp
  00080	5d		 pop	 ebp
  00081	c2 04 00	 ret	 4
_TEXT	ENDS
;	COMDAT text$x
text$x	SEGMENT
$L190447:
  00000	8b f4		 mov	 esi, esp
  00002	8b 4d f0	 mov	 ecx, DWORD PTR _this$[ebp]
  00005	ff 15 00 00 00
	00		 call	 DWORD PTR __imp_??1exception@@UAE@XZ
  0000b	3b f4		 cmp	 esi, esp
  0000d	e9 00 00 00 00	 jmp	 __RTC_CheckEsp
__ehhandler$??0logic_error@std@@QAE@ABV?$basic_string@DU?$char_traits@D@std@@V?$allocator@D@2@@1@@Z:
  00012	b8 00 00 00 00	 mov	 eax, OFFSET FLAT:$T190450
  00017	e9 00 00 00 00	 jmp	 ___CxxFrameHandler
text$x	ENDS
??0logic_error@std@@QAE@ABV?$basic_string@DU?$char_traits@D@std@@V?$allocator@D@2@@1@@Z ENDP ; std::logic_error::logic_error
PUBLIC	??1logic_error@std@@UAE@XZ			; std::logic_error::~logic_error
; Function compile flags: /Odt /RTCsu
;	COMDAT ??_Glogic_error@std@@UAEPAXI@Z
_TEXT	SEGMENT
_this$ = -4						; size = 4
___flags$ = 8						; size = 4
??_Glogic_error@std@@UAEPAXI@Z PROC NEAR		; std::logic_error::`scalar deleting destructor', COMDAT
; _this$ = ecx
  00000	55		 push	 ebp
  00001	8b ec		 mov	 ebp, esp
  00003	51		 push	 ecx
  00004	c7 45 fc cc cc
	cc cc		 mov	 DWORD PTR [ebp-4], -858993460 ; ccccccccH
  0000b	89 4d fc	 mov	 DWORD PTR _this$[ebp], ecx
  0000e	8b 4d fc	 mov	 ecx, DWORD PTR _this$[ebp]
  00011	e8 00 00 00 00	 call	 ??1logic_error@std@@UAE@XZ ; std::logic_error::~logic_error
  00016	8b 45 08	 mov	 eax, DWORD PTR ___flags$[ebp]
  00019	83 e0 01	 and	 eax, 1
  0001c	74 0c		 je	 SHORT $L91647
  0001e	8b 4d fc	 mov	 ecx, DWORD PTR _this$[ebp]
  00021	51		 push	 ecx
  00022	e8 00 00 00 00	 call	 ??3@YAXPAX@Z		; operator delete
  00027	83 c4 04	 add	 esp, 4
$L91647:
  0002a	8b 45 fc	 mov	 eax, DWORD PTR _this$[ebp]
  0002d	83 c4 04	 add	 esp, 4
  00030	3b ec		 cmp	 ebp, esp
  00032	e8 00 00 00 00	 call	 __RTC_CheckEsp
  00037	8b e5		 mov	 esp, ebp
  00039	5d		 pop	 ebp
  0003a	c2 04 00	 ret	 4
??_Glogic_error@std@@UAEPAXI@Z ENDP			; std::logic_error::`scalar deleting destructor'
_TEXT	ENDS
;	COMDAT xdata$x
xdata$x	SEGMENT
$T190462 DD	0ffffffffH
	DD	FLAT:$L190457
$T190460 DD	019930520H
	DD	01H
	DD	FLAT:$T190462
	DD	2 DUP(00H)
	DD	2 DUP(00H)
; Function compile flags: /Odt /RTCsu
xdata$x	ENDS
;	COMDAT ??1logic_error@std@@UAE@XZ
_TEXT	SEGMENT
_this$ = -16						; size = 4
__$EHRec$ = -12						; size = 12
??1logic_error@std@@UAE@XZ PROC NEAR			; std::logic_error::~logic_error, COMDAT
; _this$ = ecx

; 23   : 		{}	// destroy the object

  00000	55		 push	 ebp
  00001	8b ec		 mov	 ebp, esp
  00003	6a ff		 push	 -1
  00005	68 00 00 00 00	 push	 __ehhandler$??1logic_error@std@@UAE@XZ
  0000a	64 a1 00 00 00
	00		 mov	 eax, DWORD PTR fs:__except_list
  00010	50		 push	 eax
  00011	64 89 25 00 00
	00 00		 mov	 DWORD PTR fs:__except_list, esp
  00018	51		 push	 ecx
  00019	56		 push	 esi
  0001a	c7 45 f0 cc cc
	cc cc		 mov	 DWORD PTR [ebp-16], -858993460 ; ccccccccH
  00021	89 4d f0	 mov	 DWORD PTR _this$[ebp], ecx
  00024	8b 45 f0	 mov	 eax, DWORD PTR _this$[ebp]
  00027	c7 00 00 00 00
	00		 mov	 DWORD PTR [eax], OFFSET FLAT:??_7logic_error@std@@6B@
  0002d	c7 45 fc 00 00
	00 00		 mov	 DWORD PTR __$EHRec$[ebp+8], 0
  00034	8b 4d f0	 mov	 ecx, DWORD PTR _this$[ebp]
  00037	83 c1 0c	 add	 ecx, 12			; 0000000cH
  0003a	8b f4		 mov	 esi, esp
  0003c	ff 15 00 00 00
	00		 call	 DWORD PTR __imp_??1?$basic_string@DU?$char_traits@D@std@@V?$allocator@D@2@@std@@QAE@XZ
  00042	3b f4		 cmp	 esi, esp
  00044	e8 00 00 00 00	 call	 __RTC_CheckEsp
  00049	c7 45 fc ff ff
	ff ff		 mov	 DWORD PTR __$EHRec$[ebp+8], -1
  00050	8b f4		 mov	 esi, esp
  00052	8b 4d f0	 mov	 ecx, DWORD PTR _this$[ebp]
  00055	ff 15 00 00 00
	00		 call	 DWORD PTR __imp_??1exception@@UAE@XZ
  0005b	3b f4		 cmp	 esi, esp
  0005d	e8 00 00 00 00	 call	 __RTC_CheckEsp
  00062	8b 4d f4	 mov	 ecx, DWORD PTR __$EHRec$[ebp]
  00065	64 89 0d 00 00
	00 00		 mov	 DWORD PTR fs:__except_list, ecx
  0006c	5e		 pop	 esi
  0006d	83 c4 10	 add	 esp, 16			; 00000010H
  00070	3b ec		 cmp	 ebp, esp
  00072	e8 00 00 00 00	 call	 __RTC_CheckEsp
  00077	8b e5		 mov	 esp, ebp
  00079	5d		 pop	 ebp
  0007a	c3		 ret	 0
_TEXT	ENDS
;	COMDAT text$x
text$x	SEGMENT
$L190457:
  00000	8b f4		 mov	 esi, esp
  00002	8b 4d f0	 mov	 ecx, DWORD PTR _this$[ebp]
  00005	ff 15 00 00 00
	00		 call	 DWORD PTR __imp_??1exception@@UAE@XZ
  0000b	3b f4		 cmp	 esi, esp
  0000d	e9 00 00 00 00	 jmp	 __RTC_CheckEsp
__ehhandler$??1logic_error@std@@UAE@XZ:
  00012	b8 00 00 00 00	 mov	 eax, OFFSET FLAT:$T190460
  00017	e9 00 00 00 00	 jmp	 ___CxxFrameHandler
text$x	ENDS
??1logic_error@std@@UAE@XZ ENDP				; std::logic_error::~logic_error
; Function compile flags: /Odt /RTCsu
;	COMDAT ??1length_error@std@@UAE@XZ
_TEXT	SEGMENT
_this$ = -4						; size = 4
??1length_error@std@@UAE@XZ PROC NEAR			; std::length_error::~length_error, COMDAT
; _this$ = ecx

; 99   : 		{}	// destroy the object

  00000	55		 push	 ebp
  00001	8b ec		 mov	 ebp, esp
  00003	51		 push	 ecx
  00004	c7 45 fc cc cc
	cc cc		 mov	 DWORD PTR [ebp-4], -858993460 ; ccccccccH
  0000b	89 4d fc	 mov	 DWORD PTR _this$[ebp], ecx
  0000e	8b 45 fc	 mov	 eax, DWORD PTR _this$[ebp]
  00011	c7 00 00 00 00
	00		 mov	 DWORD PTR [eax], OFFSET FLAT:??_7length_error@std@@6B@
  00017	8b 4d fc	 mov	 ecx, DWORD PTR _this$[ebp]
  0001a	e8 00 00 00 00	 call	 ??1logic_error@std@@UAE@XZ ; std::logic_error::~logic_error
  0001f	83 c4 04	 add	 esp, 4
  00022	3b ec		 cmp	 ebp, esp
  00024	e8 00 00 00 00	 call	 __RTC_CheckEsp
  00029	8b e5		 mov	 esp, ebp
  0002b	5d		 pop	 ebp
  0002c	c3		 ret	 0
??1length_error@std@@UAE@XZ ENDP			; std::length_error::~length_error
; Function compile flags: /Odt /RTCsu
_TEXT	ENDS
;	COMDAT ??_Glength_error@std@@UAEPAXI@Z
_TEXT	SEGMENT
_this$ = -4						; size = 4
___flags$ = 8						; size = 4
??_Glength_error@std@@UAEPAXI@Z PROC NEAR		; std::length_error::`scalar deleting destructor', COMDAT
; _this$ = ecx
  00000	55		 push	 ebp
  00001	8b ec		 mov	 ebp, esp
  00003	51		 push	 ecx
  00004	c7 45 fc cc cc
	cc cc		 mov	 DWORD PTR [ebp-4], -858993460 ; ccccccccH
  0000b	89 4d fc	 mov	 DWORD PTR _this$[ebp], ecx
  0000e	8b 4d fc	 mov	 ecx, DWORD PTR _this$[ebp]
  00011	e8 00 00 00 00	 call	 ??1length_error@std@@UAE@XZ ; std::length_error::~length_error
  00016	8b 45 08	 mov	 eax, DWORD PTR ___flags$[ebp]
  00019	83 e0 01	 and	 eax, 1
  0001c	74 0c		 je	 SHORT $L91713
  0001e	8b 4d fc	 mov	 ecx, DWORD PTR _this$[ebp]
  00021	51		 push	 ecx
  00022	e8 00 00 00 00	 call	 ??3@YAXPAX@Z		; operator delete
  00027	83 c4 04	 add	 esp, 4
$L91713:
  0002a	8b 45 fc	 mov	 eax, DWORD PTR _this$[ebp]
  0002d	83 c4 04	 add	 esp, 4
  00030	3b ec		 cmp	 ebp, esp
  00032	e8 00 00 00 00	 call	 __RTC_CheckEsp
  00037	8b e5		 mov	 esp, ebp
  00039	5d		 pop	 ebp
  0003a	c2 04 00	 ret	 4
??_Glength_error@std@@UAEPAXI@Z ENDP			; std::length_error::`scalar deleting destructor'
_TEXT	ENDS
PUBLIC	??_R4out_of_range@std@@6B@			; std::out_of_range::`RTTI Complete Object Locator'
PUBLIC	??_R3out_of_range@std@@8			; std::out_of_range::`RTTI Class Hierarchy Descriptor'
PUBLIC	??_R2out_of_range@std@@8			; std::out_of_range::`RTTI Base Class Array'
PUBLIC	??_R1A@?0A@A@out_of_range@std@@8		; std::out_of_range::`RTTI Base Class Descriptor at (0,-1,0,0)'
PUBLIC	??_7out_of_range@std@@6B@			; std::out_of_range::`vftable'
PUBLIC	??_Gout_of_range@std@@UAEPAXI@Z			; std::out_of_range::`scalar deleting destructor'
EXTRN	??_Eout_of_range@std@@UAEPAXI@Z:NEAR		; std::out_of_range::`vector deleting destructor'
;	COMDAT ??_7out_of_range@std@@6B@
CONST	SEGMENT
??_7out_of_range@std@@6B@ DD FLAT:??_R4out_of_range@std@@6B@ ; std::out_of_range::`vftable'
	DD	FLAT:??_Eout_of_range@std@@UAEPAXI@Z
	DD	FLAT:?what@logic_error@std@@UBEPBDXZ
CONST	ENDS
;	COMDAT ??_R4out_of_range@std@@6B@
rdata$r	SEGMENT
??_R4out_of_range@std@@6B@ DD 00H			; std::out_of_range::`RTTI Complete Object Locator'
	DD	00H
	DD	00H
	DD	FLAT:??_R0?AVout_of_range@std@@@8
	DD	FLAT:??_R3out_of_range@std@@8
rdata$r	ENDS
;	COMDAT ??_R3out_of_range@std@@8
rdata$r	SEGMENT
??_R3out_of_range@std@@8 DD 00H				; std::out_of_range::`RTTI Class Hierarchy Descriptor'
	DD	00H
	DD	03H
	DD	FLAT:??_R2out_of_range@std@@8
rdata$r	ENDS
;	COMDAT ??_R2out_of_range@std@@8
rdata$r	SEGMENT
??_R2out_of_range@std@@8 DD FLAT:??_R1A@?0A@A@out_of_range@std@@8 ; std::out_of_range::`RTTI Base Class Array'
	DD	FLAT:??_R1A@?0A@A@logic_error@std@@8
	DD	FLAT:??_R1A@?0A@A@exception@@8
rdata$r	ENDS
;	COMDAT ??_R1A@?0A@A@out_of_range@std@@8
rdata$r	SEGMENT
??_R1A@?0A@A@out_of_range@std@@8 DD FLAT:??_R0?AVout_of_range@std@@@8 ; std::out_of_range::`RTTI Base Class Descriptor at (0,-1,0,0)'
	DD	02H
	DD	00H
	DD	0ffffffffH
	DD	00H
	DD	00H
; Function compile flags: /Odt /RTCsu
rdata$r	ENDS
;	COMDAT ??0out_of_range@std@@QAE@ABV?$basic_string@DU?$char_traits@D@std@@V?$allocator@D@2@@1@@Z
_TEXT	SEGMENT
_this$ = -4						; size = 4
__Message$ = 8						; size = 4
??0out_of_range@std@@QAE@ABV?$basic_string@DU?$char_traits@D@std@@V?$allocator@D@2@@1@@Z PROC NEAR ; std::out_of_range::out_of_range, COMDAT
; _this$ = ecx

; 118  : 		{	// construct from message string

  00000	55		 push	 ebp
  00001	8b ec		 mov	 ebp, esp
  00003	51		 push	 ecx
  00004	c7 45 fc cc cc
	cc cc		 mov	 DWORD PTR [ebp-4], -858993460 ; ccccccccH
  0000b	89 4d fc	 mov	 DWORD PTR _this$[ebp], ecx
  0000e	8b 45 08	 mov	 eax, DWORD PTR __Message$[ebp]
  00011	50		 push	 eax
  00012	8b 4d fc	 mov	 ecx, DWORD PTR _this$[ebp]
  00015	e8 00 00 00 00	 call	 ??0logic_error@std@@QAE@ABV?$basic_string@DU?$char_traits@D@std@@V?$allocator@D@2@@1@@Z ; std::logic_error::logic_error
  0001a	8b 4d fc	 mov	 ecx, DWORD PTR _this$[ebp]
  0001d	c7 01 00 00 00
	00		 mov	 DWORD PTR [ecx], OFFSET FLAT:??_7out_of_range@std@@6B@

; 119  : 		}

  00023	8b 45 fc	 mov	 eax, DWORD PTR _this$[ebp]
  00026	83 c4 04	 add	 esp, 4
  00029	3b ec		 cmp	 ebp, esp
  0002b	e8 00 00 00 00	 call	 __RTC_CheckEsp
  00030	8b e5		 mov	 esp, ebp
  00032	5d		 pop	 ebp
  00033	c2 04 00	 ret	 4
??0out_of_range@std@@QAE@ABV?$basic_string@DU?$char_traits@D@std@@V?$allocator@D@2@@1@@Z ENDP ; std::out_of_range::out_of_range
; Function compile flags: /Odt /RTCsu
_TEXT	ENDS
;	COMDAT ??1out_of_range@std@@UAE@XZ
_TEXT	SEGMENT
_this$ = -4						; size = 4
??1out_of_range@std@@UAE@XZ PROC NEAR			; std::out_of_range::~out_of_range, COMDAT
; _this$ = ecx

; 122  : 		{}	// destroy the object

  00000	55		 push	 ebp
  00001	8b ec		 mov	 ebp, esp
  00003	51		 push	 ecx
  00004	c7 45 fc cc cc
	cc cc		 mov	 DWORD PTR [ebp-4], -858993460 ; ccccccccH
  0000b	89 4d fc	 mov	 DWORD PTR _this$[ebp], ecx
  0000e	8b 45 fc	 mov	 eax, DWORD PTR _this$[ebp]
  00011	c7 00 00 00 00
	00		 mov	 DWORD PTR [eax], OFFSET FLAT:??_7out_of_range@std@@6B@
  00017	8b 4d fc	 mov	 ecx, DWORD PTR _this$[ebp]
  0001a	e8 00 00 00 00	 call	 ??1logic_error@std@@UAE@XZ ; std::logic_error::~logic_error
  0001f	83 c4 04	 add	 esp, 4
  00022	3b ec		 cmp	 ebp, esp
  00024	e8 00 00 00 00	 call	 __RTC_CheckEsp
  00029	8b e5		 mov	 esp, ebp
  0002b	5d		 pop	 ebp
  0002c	c3		 ret	 0
??1out_of_range@std@@UAE@XZ ENDP			; std::out_of_range::~out_of_range
; Function compile flags: /Odt /RTCsu
_TEXT	ENDS
;	COMDAT ??_Gout_of_range@std@@UAEPAXI@Z
_TEXT	SEGMENT
_this$ = -4						; size = 4
___flags$ = 8						; size = 4
??_Gout_of_range@std@@UAEPAXI@Z PROC NEAR		; std::out_of_range::`scalar deleting destructor', COMDAT
; _this$ = ecx
  00000	55		 push	 ebp
  00001	8b ec		 mov	 ebp, esp
  00003	51		 push	 ecx
  00004	c7 45 fc cc cc
	cc cc		 mov	 DWORD PTR [ebp-4], -858993460 ; ccccccccH
  0000b	89 4d fc	 mov	 DWORD PTR _this$[ebp], ecx
  0000e	8b 4d fc	 mov	 ecx, DWORD PTR _this$[ebp]
  00011	e8 00 00 00 00	 call	 ??1out_of_range@std@@UAE@XZ ; std::out_of_range::~out_of_range
  00016	8b 45 08	 mov	 eax, DWORD PTR ___flags$[ebp]
  00019	83 e0 01	 and	 eax, 1
  0001c	74 0c		 je	 SHORT $L91735
  0001e	8b 4d fc	 mov	 ecx, DWORD PTR _this$[ebp]
  00021	51		 push	 ecx
  00022	e8 00 00 00 00	 call	 ??3@YAXPAX@Z		; operator delete
  00027	83 c4 04	 add	 esp, 4
$L91735:
  0002a	8b 45 fc	 mov	 eax, DWORD PTR _this$[ebp]
  0002d	83 c4 04	 add	 esp, 4
  00030	3b ec		 cmp	 ebp, esp
  00032	e8 00 00 00 00	 call	 __RTC_CheckEsp
  00037	8b e5		 mov	 esp, ebp
  00039	5d		 pop	 ebp
  0003a	c2 04 00	 ret	 4
??_Gout_of_range@std@@UAEPAXI@Z ENDP			; std::out_of_range::`scalar deleting destructor'
; Function compile flags: /Odt /RTCsu
; File d:\boxgit\playbox\playbox\dev\prj\playbox\src\core\idatamanager.h
_TEXT	ENDS
;	COMDAT ??1IDataManager@@UAE@XZ
_TEXT	SEGMENT
_this$ = -4						; size = 4
??1IDataManager@@UAE@XZ PROC NEAR			; IDataManager::~IDataManager, COMDAT
; _this$ = ecx

; 13   : 	virtual ~IDataManager(){};

  00000	55		 push	 ebp
  00001	8b ec		 mov	 ebp, esp
  00003	51		 push	 ecx
  00004	c7 45 fc cc cc
	cc cc		 mov	 DWORD PTR [ebp-4], -858993460 ; ccccccccH
  0000b	89 4d fc	 mov	 DWORD PTR _this$[ebp], ecx
  0000e	8b 45 fc	 mov	 eax, DWORD PTR _this$[ebp]
  00011	c7 00 00 00 00
	00		 mov	 DWORD PTR [eax], OFFSET FLAT:??_7IDataManager@@6B@
  00017	8b e5		 mov	 esp, ebp
  00019	5d		 pop	 ebp
  0001a	c3		 ret	 0
??1IDataManager@@UAE@XZ ENDP				; IDataManager::~IDataManager
; Function compile flags: /Odt /RTCsu
_TEXT	ENDS
;	COMDAT ??_GIDataManager@@UAEPAXI@Z
_TEXT	SEGMENT
_this$ = -4						; size = 4
___flags$ = 8						; size = 4
??_GIDataManager@@UAEPAXI@Z PROC NEAR			; IDataManager::`scalar deleting destructor', COMDAT
; _this$ = ecx
  00000	55		 push	 ebp
  00001	8b ec		 mov	 ebp, esp
  00003	51		 push	 ecx
  00004	c7 45 fc cc cc
	cc cc		 mov	 DWORD PTR [ebp-4], -858993460 ; ccccccccH
  0000b	89 4d fc	 mov	 DWORD PTR _this$[ebp], ecx
  0000e	8b 4d fc	 mov	 ecx, DWORD PTR _this$[ebp]
  00011	e8 00 00 00 00	 call	 ??1IDataManager@@UAE@XZ	; IDataManager::~IDataManager
  00016	8b 45 08	 mov	 eax, DWORD PTR ___flags$[ebp]
  00019	83 e0 01	 and	 eax, 1
  0001c	74 0c		 je	 SHORT $L97599
  0001e	8b 4d fc	 mov	 ecx, DWORD PTR _this$[ebp]
  00021	51		 push	 ecx
  00022	e8 00 00 00 00	 call	 ??3@YAXPAX@Z		; operator delete
  00027	83 c4 04	 add	 esp, 4
$L97599:
  0002a	8b 45 fc	 mov	 eax, DWORD PTR _this$[ebp]
  0002d	83 c4 04	 add	 esp, 4
  00030	3b ec		 cmp	 ebp, esp
  00032	e8 00 00 00 00	 call	 __RTC_CheckEsp
  00037	8b e5		 mov	 esp, ebp
  00039	5d		 pop	 ebp
  0003a	c2 04 00	 ret	 4
??_GIDataManager@@UAEPAXI@Z ENDP			; IDataManager::`scalar deleting destructor'
; Function compile flags: /Odt /RTCsu
_TEXT	ENDS
;	COMDAT ??0out_of_range@std@@QAE@ABV01@@Z
_TEXT	SEGMENT
_this$ = -4						; size = 4
___that$ = 8						; size = 4
??0out_of_range@std@@QAE@ABV01@@Z PROC NEAR		; std::out_of_range::out_of_range, COMDAT
; _this$ = ecx
  00000	55		 push	 ebp
  00001	8b ec		 mov	 ebp, esp
  00003	51		 push	 ecx
  00004	c7 45 fc cc cc
	cc cc		 mov	 DWORD PTR [ebp-4], -858993460 ; ccccccccH
  0000b	89 4d fc	 mov	 DWORD PTR _this$[ebp], ecx
  0000e	8b 45 08	 mov	 eax, DWORD PTR ___that$[ebp]
  00011	50		 push	 eax
  00012	8b 4d fc	 mov	 ecx, DWORD PTR _this$[ebp]
  00015	e8 00 00 00 00	 call	 ??0logic_error@std@@QAE@ABV01@@Z
  0001a	8b 4d fc	 mov	 ecx, DWORD PTR _this$[ebp]
  0001d	c7 01 00 00 00
	00		 mov	 DWORD PTR [ecx], OFFSET FLAT:??_7out_of_range@std@@6B@
  00023	8b 45 fc	 mov	 eax, DWORD PTR _this$[ebp]
  00026	83 c4 04	 add	 esp, 4
  00029	3b ec		 cmp	 ebp, esp
  0002b	e8 00 00 00 00	 call	 __RTC_CheckEsp
  00030	8b e5		 mov	 esp, ebp
  00032	5d		 pop	 ebp
  00033	c2 04 00	 ret	 4
??0out_of_range@std@@QAE@ABV01@@Z ENDP			; std::out_of_range::out_of_range
_TEXT	ENDS
EXTRN	__imp_??0exception@@QAE@ABV0@@Z:NEAR
;	COMDAT xdata$x
xdata$x	SEGMENT
$T190483 DD	0ffffffffH
	DD	FLAT:$L190478
$T190481 DD	019930520H
	DD	01H
	DD	FLAT:$T190483
	DD	2 DUP(00H)
	DD	2 DUP(00H)
; Function compile flags: /Odt /RTCsu
xdata$x	ENDS
;	COMDAT ??0logic_error@std@@QAE@ABV01@@Z
_TEXT	SEGMENT
_this$ = -16						; size = 4
__$EHRec$ = -12						; size = 12
___that$ = 8						; size = 4
??0logic_error@std@@QAE@ABV01@@Z PROC NEAR		; std::logic_error::logic_error, COMDAT
; _this$ = ecx
  00000	55		 push	 ebp
  00001	8b ec		 mov	 ebp, esp
  00003	6a ff		 push	 -1
  00005	68 00 00 00 00	 push	 __ehhandler$??0logic_error@std@@QAE@ABV01@@Z
  0000a	64 a1 00 00 00
	00		 mov	 eax, DWORD PTR fs:__except_list
  00010	50		 push	 eax
  00011	64 89 25 00 00
	00 00		 mov	 DWORD PTR fs:__except_list, esp
  00018	51		 push	 ecx
  00019	56		 push	 esi
  0001a	c7 45 f0 cc cc
	cc cc		 mov	 DWORD PTR [ebp-16], -858993460 ; ccccccccH
  00021	89 4d f0	 mov	 DWORD PTR _this$[ebp], ecx
  00024	8b f4		 mov	 esi, esp
  00026	8b 45 08	 mov	 eax, DWORD PTR ___that$[ebp]
  00029	50		 push	 eax
  0002a	8b 4d f0	 mov	 ecx, DWORD PTR _this$[ebp]
  0002d	ff 15 00 00 00
	00		 call	 DWORD PTR __imp_??0exception@@QAE@ABV0@@Z
  00033	3b f4		 cmp	 esi, esp
  00035	e8 00 00 00 00	 call	 __RTC_CheckEsp
  0003a	c7 45 fc 00 00
	00 00		 mov	 DWORD PTR __$EHRec$[ebp+8], 0
  00041	8b 4d f0	 mov	 ecx, DWORD PTR _this$[ebp]
  00044	c7 01 00 00 00
	00		 mov	 DWORD PTR [ecx], OFFSET FLAT:??_7logic_error@std@@6B@
  0004a	8b 55 08	 mov	 edx, DWORD PTR ___that$[ebp]
  0004d	83 c2 0c	 add	 edx, 12			; 0000000cH
  00050	8b f4		 mov	 esi, esp
  00052	52		 push	 edx
  00053	8b 4d f0	 mov	 ecx, DWORD PTR _this$[ebp]
  00056	83 c1 0c	 add	 ecx, 12			; 0000000cH
  00059	ff 15 00 00 00
	00		 call	 DWORD PTR __imp_??0?$basic_string@DU?$char_traits@D@std@@V?$allocator@D@2@@std@@QAE@ABV01@@Z
  0005f	3b f4		 cmp	 esi, esp
  00061	e8 00 00 00 00	 call	 __RTC_CheckEsp
  00066	c7 45 fc ff ff
	ff ff		 mov	 DWORD PTR __$EHRec$[ebp+8], -1
  0006d	8b 45 f0	 mov	 eax, DWORD PTR _this$[ebp]
  00070	8b 4d f4	 mov	 ecx, DWORD PTR __$EHRec$[ebp]
  00073	64 89 0d 00 00
	00 00		 mov	 DWORD PTR fs:__except_list, ecx
  0007a	5e		 pop	 esi
  0007b	83 c4 10	 add	 esp, 16			; 00000010H
  0007e	3b ec		 cmp	 ebp, esp
  00080	e8 00 00 00 00	 call	 __RTC_CheckEsp
  00085	8b e5		 mov	 esp, ebp
  00087	5d		 pop	 ebp
  00088	c2 04 00	 ret	 4
_TEXT	ENDS
;	COMDAT text$x
text$x	SEGMENT
$L190478:
  00000	8b f4		 mov	 esi, esp
  00002	8b 4d f0	 mov	 ecx, DWORD PTR _this$[ebp]
  00005	ff 15 00 00 00
	00		 call	 DWORD PTR __imp_??1exception@@UAE@XZ
  0000b	3b f4		 cmp	 esi, esp
  0000d	e9 00 00 00 00	 jmp	 __RTC_CheckEsp
__ehhandler$??0logic_error@std@@QAE@ABV01@@Z:
  00012	b8 00 00 00 00	 mov	 eax, OFFSET FLAT:$T190481
  00017	e9 00 00 00 00	 jmp	 ___CxxFrameHandler
text$x	ENDS
??0logic_error@std@@QAE@ABV01@@Z ENDP			; std::logic_error::logic_error
; Function compile flags: /Odt /RTCsu
; File d:\program files (x86)\microsoft visual studio .net 2003\vc7\include\utility
;	COMDAT ??$swap@D@std@@YAXAAD0@Z
_TEXT	SEGMENT
__Tmp$ = -1						; size = 1
__Left$ = 8						; size = 4
__Right$ = 12						; size = 4
??$swap@D@std@@YAXAAD0@Z PROC NEAR			; std::swap<char>, COMDAT

; 14   : 	{	// exchange values stored at _Left and _Right

  00000	55		 push	 ebp
  00001	8b ec		 mov	 ebp, esp
  00003	51		 push	 ecx
  00004	c7 45 fc cc cc
	cc cc		 mov	 DWORD PTR [ebp-4], -858993460 ; ccccccccH

; 15   : 	_Ty _Tmp = _Left;

  0000b	8b 45 08	 mov	 eax, DWORD PTR __Left$[ebp]
  0000e	8a 08		 mov	 cl, BYTE PTR [eax]
  00010	88 4d ff	 mov	 BYTE PTR __Tmp$[ebp], cl

; 16   : 	_Left = _Right, _Right = _Tmp;

  00013	8b 55 08	 mov	 edx, DWORD PTR __Left$[ebp]
  00016	8b 45 0c	 mov	 eax, DWORD PTR __Right$[ebp]
  00019	8a 08		 mov	 cl, BYTE PTR [eax]
  0001b	88 0a		 mov	 BYTE PTR [edx], cl
  0001d	8b 55 0c	 mov	 edx, DWORD PTR __Right$[ebp]
  00020	8a 45 ff	 mov	 al, BYTE PTR __Tmp$[ebp]
  00023	88 02		 mov	 BYTE PTR [edx], al

; 17   : 	}

  00025	8b e5		 mov	 esp, ebp
  00027	5d		 pop	 ebp
  00028	c3		 ret	 0
??$swap@D@std@@YAXAAD0@Z ENDP				; std::swap<char>
_TEXT	ENDS
END
