; Listing generated by Microsoft (R) Optimizing Compiler Version 13.10.3077 

	TITLE	.\src\Core\CDataManager.cpp
	.386P
include listing.inc
if @Version gt 510
.model FLAT
else
_TEXT	SEGMENT PARA USE32 PUBLIC 'CODE'
_TEXT	ENDS
_DATA	SEGMENT DWORD USE32 PUBLIC 'DATA'
_DATA	ENDS
CONST	SEGMENT DWORD USE32 PUBLIC 'CONST'
CONST	ENDS
_BSS	SEGMENT DWORD USE32 PUBLIC 'BSS'
_BSS	ENDS
$$SYMBOLS	SEGMENT BYTE USE32 'DEBSYM'
$$SYMBOLS	ENDS
_TLS	SEGMENT DWORD USE32 PUBLIC 'TLS'
_TLS	ENDS
;	COMDAT ??_C@_0EN@IBFBLEEG@D?3?2Program?5Files?5?$CIx86?$CJ?2Microsoft@
CONST	SEGMENT DWORD USE32 PUBLIC 'CONST'
CONST	ENDS
;	COMDAT ??_C@_0BE@JONHPENG@map?1set?$DMT?$DO?5too?5long?$AA@
CONST	SEGMENT DWORD USE32 PUBLIC 'CONST'
CONST	ENDS
rdata$r	SEGMENT DWORD USE32 PUBLIC 'CONST'
rdata$r	ENDS
xdata$x	SEGMENT DWORD USE32 PUBLIC 'CONST'
xdata$x	ENDS
text$AFX_COL1	SEGMENT PARA USE32 PUBLIC ''
text$AFX_COL1	ENDS
text$yc	SEGMENT PARA USE32 PUBLIC 'CODE'
text$yc	ENDS
CRT$XCA	SEGMENT DWORD USE32 PUBLIC 'DATA'
CRT$XCA	ENDS
CRT$XCU	SEGMENT DWORD USE32 PUBLIC 'DATA'
CRT$XCU	ENDS
CRT$XCL	SEGMENT DWORD USE32 PUBLIC 'DATA'
CRT$XCL	ENDS
CRT$XCC	SEGMENT DWORD USE32 PUBLIC 'DATA'
CRT$XCC	ENDS
CRT$XCZ	SEGMENT DWORD USE32 PUBLIC 'DATA'
CRT$XCZ	ENDS
text$yd	SEGMENT PARA USE32 PUBLIC 'CODE'
text$yd	ENDS
ATL$__m	SEGMENT DWORD USE32 PUBLIC ''
ATL$__m	ENDS
ATL$__z	SEGMENT DWORD USE32 PUBLIC ''
ATL$__z	ENDS
ATL$__a	SEGMENT DWORD USE32 PUBLIC ''
ATL$__a	ENDS
;	COMDAT ??1IData@@MAE@XZ
_TEXT	SEGMENT PARA USE32 PUBLIC 'CODE'
_TEXT	ENDS
;	COMDAT ?DataAppStart@IData@@UAEXXZ
_TEXT	SEGMENT PARA USE32 PUBLIC 'CODE'
_TEXT	ENDS
;	COMDAT ?DataAppExit@IData@@UAEXXZ
_TEXT	SEGMENT PARA USE32 PUBLIC 'CODE'
_TEXT	ENDS
;	COMDAT ??_GIData@@MAEPAXI@Z
_TEXT	SEGMENT PARA USE32 PUBLIC 'CODE'
_TEXT	ENDS
;	COMDAT ?clear@OneLocalGame@@QAEXXZ
_TEXT	SEGMENT PARA USE32 PUBLIC 'CODE'
_TEXT	ENDS
;	COMDAT ??1IAdData@@MAE@XZ
_TEXT	SEGMENT PARA USE32 PUBLIC 'CODE'
_TEXT	ENDS
;	COMDAT ??_GIAdData@@MAEPAXI@Z
_TEXT	SEGMENT PARA USE32 PUBLIC 'CODE'
_TEXT	ENDS
;	COMDAT ??_GCDataManager@@UAEPAXI@Z
_TEXT	SEGMENT PARA USE32 PUBLIC 'CODE'
_TEXT	ENDS
;	COMDAT ??0IDataManager@@QAE@XZ
_TEXT	SEGMENT PARA USE32 PUBLIC 'CODE'
_TEXT	ENDS
;	COMDAT ??1?$map@KPAVIData@@U?$less@K@std@@V?$allocator@U?$pair@$$CBKPAVIData@@@std@@@3@@std@@QAE@XZ
_TEXT	SEGMENT PARA USE32 PUBLIC 'CODE'
_TEXT	ENDS
;	COMDAT ??B?$CComPtrBase@UITypeInfo2@@@ATL@@QBEPAUITypeInfo2@@XZ
_TEXT	SEGMENT PARA USE32 PUBLIC 'CODE'
_TEXT	ENDS
;	COMDAT ?equal@?$istreambuf_iterator@DU?$char_traits@D@std@@@std@@QBE_NABV12@@Z
_TEXT	SEGMENT PARA USE32 PUBLIC 'CODE'
_TEXT	ENDS
;	COMDAT ?equal@?$istreambuf_iterator@_WU?$char_traits@_W@std@@@std@@QBE_NABV12@@Z
_TEXT	SEGMENT PARA USE32 PUBLIC 'CODE'
_TEXT	ENDS
;	COMDAT ??0?$map@KPAVIData@@U?$less@K@std@@V?$allocator@U?$pair@$$CBKPAVIData@@@std@@@3@@std@@QAE@XZ
_TEXT	SEGMENT PARA USE32 PUBLIC 'CODE'
_TEXT	ENDS
;	COMDAT ??A?$map@KPAVIData@@U?$less@K@std@@V?$allocator@U?$pair@$$CBKPAVIData@@@std@@@3@@std@@QAEAAPAVIData@@ABK@Z
_TEXT	SEGMENT PARA USE32 PUBLIC 'CODE'
_TEXT	ENDS
;	COMDAT ??1?$_Tree@V?$_Tmap_traits@KPAVIData@@U?$less@K@std@@V?$allocator@U?$pair@$$CBKPAVIData@@@std@@@3@$0A@@std@@@std@@QAE@XZ
_TEXT	SEGMENT PARA USE32 PUBLIC 'CODE'
_TEXT	ENDS
;	COMDAT ?begin@?$_Tree@V?$_Tmap_traits@KPAVIData@@U?$less@K@std@@V?$allocator@U?$pair@$$CBKPAVIData@@@std@@@3@$0A@@std@@@std@@QAE?AViterator@12@XZ
_TEXT	SEGMENT PARA USE32 PUBLIC 'CODE'
_TEXT	ENDS
;	COMDAT ?end@?$_Tree@V?$_Tmap_traits@KPAVIData@@U?$less@K@std@@V?$allocator@U?$pair@$$CBKPAVIData@@@std@@@3@$0A@@std@@@std@@QAE?AViterator@12@XZ
_TEXT	SEGMENT PARA USE32 PUBLIC 'CODE'
_TEXT	ENDS
;	COMDAT ?erase@?$_Tree@V?$_Tmap_traits@KPAVIData@@U?$less@K@std@@V?$allocator@U?$pair@$$CBKPAVIData@@@std@@@3@$0A@@std@@@std@@QAEIABK@Z
_TEXT	SEGMENT PARA USE32 PUBLIC 'CODE'
_TEXT	ENDS
;	COMDAT ?clear@?$_Tree@V?$_Tmap_traits@KPAVIData@@U?$less@K@std@@V?$allocator@U?$pair@$$CBKPAVIData@@@std@@@3@$0A@@std@@@std@@QAEXXZ
_TEXT	SEGMENT PARA USE32 PUBLIC 'CODE'
_TEXT	ENDS
;	COMDAT ?find@?$_Tree@V?$_Tmap_traits@KPAVIData@@U?$less@K@std@@V?$allocator@U?$pair@$$CBKPAVIData@@@std@@@3@$0A@@std@@@std@@QAE?AViterator@12@ABK@Z
_TEXT	SEGMENT PARA USE32 PUBLIC 'CODE'
_TEXT	ENDS
;	COMDAT ??Citerator@?$_Tree@V?$_Tmap_traits@KPAVIData@@U?$less@K@std@@V?$allocator@U?$pair@$$CBKPAVIData@@@std@@@3@$0A@@std@@@std@@QBEPAU?$pair@$$CBKPAVIData@@@2@XZ
_TEXT	SEGMENT PARA USE32 PUBLIC 'CODE'
_TEXT	ENDS
;	COMDAT ??Eiterator@?$_Tree@V?$_Tmap_traits@KPAVIData@@U?$less@K@std@@V?$allocator@U?$pair@$$CBKPAVIData@@@std@@@3@$0A@@std@@@std@@QAE?AV012@H@Z
_TEXT	SEGMENT PARA USE32 PUBLIC 'CODE'
_TEXT	ENDS
;	COMDAT ??8const_iterator@?$_Tree@V?$_Tmap_traits@KPAVIData@@U?$less@K@std@@V?$allocator@U?$pair@$$CBKPAVIData@@@std@@@3@$0A@@std@@@std@@QBE_NABV012@@Z
_TEXT	SEGMENT PARA USE32 PUBLIC 'CODE'
_TEXT	ENDS
;	COMDAT ??9const_iterator@?$_Tree@V?$_Tmap_traits@KPAVIData@@U?$less@K@std@@V?$allocator@U?$pair@$$CBKPAVIData@@@std@@@3@$0A@@std@@@std@@QBE_NABV012@@Z
_TEXT	SEGMENT PARA USE32 PUBLIC 'CODE'
_TEXT	ENDS
;	COMDAT ?_Key@?$_Tree@V?$_Tmap_traits@KPAVIData@@U?$less@K@std@@V?$allocator@U?$pair@$$CBKPAVIData@@@std@@@3@$0A@@std@@@std@@KAABKPAU_Node@?$_Tree_nod@V?$_Tmap_traits@KPAVIData@@U?$less@K@std@@V?$allocator@U?$pair@$$CBKPAVIData@@@std@@@3@$0A@@std@@@2@@Z
_TEXT	SEGMENT PARA USE32 PUBLIC 'CODE'
_TEXT	ENDS
;	COMDAT ??0?$_Tree@V?$_Tmap_traits@KPAVIData@@U?$less@K@std@@V?$allocator@U?$pair@$$CBKPAVIData@@@std@@@3@$0A@@std@@@std@@QAE@ABU?$less@K@1@ABV?$allocator@U?$pair@$$CBKPAVIData@@@std@@@1@@Z
_TEXT	SEGMENT PARA USE32 PUBLIC 'CODE'
_TEXT	ENDS
;	COMDAT ?insert@?$_Tree@V?$_Tmap_traits@KPAVIData@@U?$less@K@std@@V?$allocator@U?$pair@$$CBKPAVIData@@@std@@@3@$0A@@std@@@std@@QAE?AViterator@12@V312@ABU?$pair@$$CBKPAVIData@@@2@@Z
_TEXT	SEGMENT PARA USE32 PUBLIC 'CODE'
_TEXT	ENDS
;	COMDAT ?erase@?$_Tree@V?$_Tmap_traits@KPAVIData@@U?$less@K@std@@V?$allocator@U?$pair@$$CBKPAVIData@@@std@@@3@$0A@@std@@@std@@QAE?AViterator@12@V312@0@Z
_TEXT	SEGMENT PARA USE32 PUBLIC 'CODE'
_TEXT	ENDS
;	COMDAT ?lower_bound@?$_Tree@V?$_Tmap_traits@KPAVIData@@U?$less@K@std@@V?$allocator@U?$pair@$$CBKPAVIData@@@std@@@3@$0A@@std@@@std@@QAE?AViterator@12@ABK@Z
_TEXT	SEGMENT PARA USE32 PUBLIC 'CODE'
_TEXT	ENDS
;	COMDAT ?equal_range@?$_Tree@V?$_Tmap_traits@KPAVIData@@U?$less@K@std@@V?$allocator@U?$pair@$$CBKPAVIData@@@std@@@3@$0A@@std@@@std@@QAE?AU?$pair@Viterator@?$_Tree@V?$_Tmap_traits@KPAVIData@@U?$less@K@std@@V?$allocator@U?$pair@$$CBKPAVIData@@@std@@@3@$0A@@std@@@std@@V123@@2@ABK@Z
_TEXT	SEGMENT PARA USE32 PUBLIC 'CODE'
_TEXT	ENDS
;	COMDAT ?_Erase@?$_Tree@V?$_Tmap_traits@KPAVIData@@U?$less@K@std@@V?$allocator@U?$pair@$$CBKPAVIData@@@std@@@3@$0A@@std@@@std@@IAEXPAU_Node@?$_Tree_nod@V?$_Tmap_traits@KPAVIData@@U?$less@K@std@@V?$allocator@U?$pair@$$CBKPAVIData@@@std@@@3@$0A@@std@@@2@@Z
_TEXT	SEGMENT PARA USE32 PUBLIC 'CODE'
_TEXT	ENDS
;	COMDAT ?_Lmost@?$_Tree@V?$_Tmap_traits@KPAVIData@@U?$less@K@std@@V?$allocator@U?$pair@$$CBKPAVIData@@@std@@@3@$0A@@std@@@std@@IAEAAPAU_Node@?$_Tree_nod@V?$_Tmap_traits@KPAVIData@@U?$less@K@std@@V?$allocator@U?$pair@$$CBKPAVIData@@@std@@@3@$0A@@std@@@2@XZ
_TEXT	SEGMENT PARA USE32 PUBLIC 'CODE'
_TEXT	ENDS
;	COMDAT ?_Rmost@?$_Tree@V?$_Tmap_traits@KPAVIData@@U?$less@K@std@@V?$allocator@U?$pair@$$CBKPAVIData@@@std@@@3@$0A@@std@@@std@@IAEAAPAU_Node@?$_Tree_nod@V?$_Tmap_traits@KPAVIData@@U?$less@K@std@@V?$allocator@U?$pair@$$CBKPAVIData@@@std@@@3@$0A@@std@@@2@XZ
_TEXT	SEGMENT PARA USE32 PUBLIC 'CODE'
_TEXT	ENDS
;	COMDAT ?_Root@?$_Tree@V?$_Tmap_traits@KPAVIData@@U?$less@K@std@@V?$allocator@U?$pair@$$CBKPAVIData@@@std@@@3@$0A@@std@@@std@@IAEAAPAU_Node@?$_Tree_nod@V?$_Tmap_traits@KPAVIData@@U?$less@K@std@@V?$allocator@U?$pair@$$CBKPAVIData@@@std@@@3@$0A@@std@@@2@XZ
_TEXT	SEGMENT PARA USE32 PUBLIC 'CODE'
_TEXT	ENDS
;	COMDAT ?_Tidy@?$_Tree@V?$_Tmap_traits@KPAVIData@@U?$less@K@std@@V?$allocator@U?$pair@$$CBKPAVIData@@@std@@@3@$0A@@std@@@std@@IAEXXZ
_TEXT	SEGMENT PARA USE32 PUBLIC 'CODE'
_TEXT	ENDS
;	COMDAT ??0?$allocator@U?$pair@$$CBKPAVIData@@@std@@@std@@QAE@XZ
_TEXT	SEGMENT PARA USE32 PUBLIC 'CODE'
_TEXT	ENDS
;	COMDAT ??R?$less@K@std@@QBE_NABK0@Z
_TEXT	SEGMENT PARA USE32 PUBLIC 'CODE'
_TEXT	ENDS
;	COMDAT ??0iterator@?$_Tree@V?$_Tmap_traits@KPAVIData@@U?$less@K@std@@V?$allocator@U?$pair@$$CBKPAVIData@@@std@@@3@$0A@@std@@@std@@QAE@PAU_Node@?$_Tree_nod@V?$_Tmap_traits@KPAVIData@@U?$less@K@std@@V?$allocator@U?$pair@$$CBKPAVIData@@@std@@@3@$0A@@std@@@2@@Z
_TEXT	SEGMENT PARA USE32 PUBLIC 'CODE'
_TEXT	ENDS
;	COMDAT ??Diterator@?$_Tree@V?$_Tmap_traits@KPAVIData@@U?$less@K@std@@V?$allocator@U?$pair@$$CBKPAVIData@@@std@@@3@$0A@@std@@@std@@QBEAAU?$pair@$$CBKPAVIData@@@2@XZ
_TEXT	SEGMENT PARA USE32 PUBLIC 'CODE'
_TEXT	ENDS
;	COMDAT ??Eiterator@?$_Tree@V?$_Tmap_traits@KPAVIData@@U?$less@K@std@@V?$allocator@U?$pair@$$CBKPAVIData@@@std@@@3@$0A@@std@@@std@@QAEAAV012@XZ
_TEXT	SEGMENT PARA USE32 PUBLIC 'CODE'
_TEXT	ENDS
;	COMDAT ?_Mynode@const_iterator@?$_Tree@V?$_Tmap_traits@KPAVIData@@U?$less@K@std@@V?$allocator@U?$pair@$$CBKPAVIData@@@std@@@3@$0A@@std@@@std@@QBEPAU_Node@?$_Tree_nod@V?$_Tmap_traits@KPAVIData@@U?$less@K@std@@V?$allocator@U?$pair@$$CBKPAVIData@@@std@@@3@$0A@@std@@@3@XZ
_TEXT	SEGMENT PARA USE32 PUBLIC 'CODE'
_TEXT	ENDS
;	COMDAT ??0?$pair@$$CBKPAVIData@@@std@@QAE@ABKABQAVIData@@@Z
_TEXT	SEGMENT PARA USE32 PUBLIC 'CODE'
_TEXT	ENDS
;	COMDAT ??0iterator@?$basic_string@DU?$char_traits@D@std@@V?$allocator@D@2@@std@@QAE@PAD@Z
_TEXT	SEGMENT PARA USE32 PUBLIC 'CODE'
_TEXT	ENDS
;	COMDAT ?_Isnil@?$_Tree@V?$_Tmap_traits@KPAVIData@@U?$less@K@std@@V?$allocator@U?$pair@$$CBKPAVIData@@@std@@@3@$0A@@std@@@std@@KAAADPAU_Node@?$_Tree_nod@V?$_Tmap_traits@KPAVIData@@U?$less@K@std@@V?$allocator@U?$pair@$$CBKPAVIData@@@std@@@3@$0A@@std@@@2@@Z
_TEXT	SEGMENT PARA USE32 PUBLIC 'CODE'
_TEXT	ENDS
;	COMDAT ?_Left@?$_Tree@V?$_Tmap_traits@KPAVIData@@U?$less@K@std@@V?$allocator@U?$pair@$$CBKPAVIData@@@std@@@3@$0A@@std@@@std@@KAAAPAU_Node@?$_Tree_nod@V?$_Tmap_traits@KPAVIData@@U?$less@K@std@@V?$allocator@U?$pair@$$CBKPAVIData@@@std@@@3@$0A@@std@@@2@PAU342@@Z
_TEXT	SEGMENT PARA USE32 PUBLIC 'CODE'
_TEXT	ENDS
;	COMDAT ?_Parent@?$_Tree@V?$_Tmap_traits@KPAVIData@@U?$less@K@std@@V?$allocator@U?$pair@$$CBKPAVIData@@@std@@@3@$0A@@std@@@std@@KAAAPAU_Node@?$_Tree_nod@V?$_Tmap_traits@KPAVIData@@U?$less@K@std@@V?$allocator@U?$pair@$$CBKPAVIData@@@std@@@3@$0A@@std@@@2@PAU342@@Z
_TEXT	SEGMENT PARA USE32 PUBLIC 'CODE'
_TEXT	ENDS
;	COMDAT ?_Right@?$_Tree@V?$_Tmap_traits@KPAVIData@@U?$less@K@std@@V?$allocator@U?$pair@$$CBKPAVIData@@@std@@@3@$0A@@std@@@std@@KAAAPAU_Node@?$_Tree_nod@V?$_Tmap_traits@KPAVIData@@U?$less@K@std@@V?$allocator@U?$pair@$$CBKPAVIData@@@std@@@3@$0A@@std@@@2@PAU342@@Z
_TEXT	SEGMENT PARA USE32 PUBLIC 'CODE'
_TEXT	ENDS
;	COMDAT ?_Myval@?$_Tree@V?$_Tmap_traits@KPAVIData@@U?$less@K@std@@V?$allocator@U?$pair@$$CBKPAVIData@@@std@@@3@$0A@@std@@@std@@KAAAU?$pair@$$CBKPAVIData@@@2@PAU_Node@?$_Tree_nod@V?$_Tmap_traits@KPAVIData@@U?$less@K@std@@V?$allocator@U?$pair@$$CBKPAVIData@@@std@@@3@$0A@@std@@@2@@Z
_TEXT	SEGMENT PARA USE32 PUBLIC 'CODE'
_TEXT	ENDS
;	COMDAT ?size@?$_Tree@V?$_Tmap_traits@KPAVIData@@U?$less@K@std@@V?$allocator@U?$pair@$$CBKPAVIData@@@std@@@3@$0A@@std@@@std@@QBEIXZ
_TEXT	SEGMENT PARA USE32 PUBLIC 'CODE'
_TEXT	ENDS
;	COMDAT ?insert@?$_Tree@V?$_Tmap_traits@KPAVIData@@U?$less@K@std@@V?$allocator@U?$pair@$$CBKPAVIData@@@std@@@3@$0A@@std@@@std@@QAE?AU?$pair@Viterator@?$_Tree@V?$_Tmap_traits@KPAVIData@@U?$less@K@std@@V?$allocator@U?$pair@$$CBKPAVIData@@@std@@@3@$0A@@std@@@std@@_N@2@ABU?$pair@$$CBKPAVIData@@@2@@Z
_TEXT	SEGMENT PARA USE32 PUBLIC 'CODE'
_TEXT	ENDS
;	COMDAT ?erase@?$_Tree@V?$_Tmap_traits@KPAVIData@@U?$less@K@std@@V?$allocator@U?$pair@$$CBKPAVIData@@@std@@@3@$0A@@std@@@std@@QAE?AViterator@12@V312@@Z
_TEXT	SEGMENT PARA USE32 PUBLIC 'CODE'
_TEXT	ENDS
;	COMDAT ?upper_bound@?$_Tree@V?$_Tmap_traits@KPAVIData@@U?$less@K@std@@V?$allocator@U?$pair@$$CBKPAVIData@@@std@@@3@$0A@@std@@@std@@QAE?AViterator@12@ABK@Z
_TEXT	SEGMENT PARA USE32 PUBLIC 'CODE'
_TEXT	ENDS
;	COMDAT ?_Init@?$_Tree@V?$_Tmap_traits@KPAVIData@@U?$less@K@std@@V?$allocator@U?$pair@$$CBKPAVIData@@@std@@@3@$0A@@std@@@std@@IAEXXZ
_TEXT	SEGMENT PARA USE32 PUBLIC 'CODE'
_TEXT	ENDS
;	COMDAT ?_Insert@?$_Tree@V?$_Tmap_traits@KPAVIData@@U?$less@K@std@@V?$allocator@U?$pair@$$CBKPAVIData@@@std@@@3@$0A@@std@@@std@@IAE?AViterator@12@_NPAU_Node@?$_Tree_nod@V?$_Tmap_traits@KPAVIData@@U?$less@K@std@@V?$allocator@U?$pair@$$CBKPAVIData@@@std@@@3@$0A@@std@@@2@ABU?$pair@$$CBKPAVIData@@@2@@Z
_TEXT	SEGMENT PARA USE32 PUBLIC 'CODE'
_TEXT	ENDS
;	COMDAT ?_Lbound@?$_Tree@V?$_Tmap_traits@KPAVIData@@U?$less@K@std@@V?$allocator@U?$pair@$$CBKPAVIData@@@std@@@3@$0A@@std@@@std@@IBEPAU_Node@?$_Tree_nod@V?$_Tmap_traits@KPAVIData@@U?$less@K@std@@V?$allocator@U?$pair@$$CBKPAVIData@@@std@@@3@$0A@@std@@@2@ABK@Z
_TEXT	SEGMENT PARA USE32 PUBLIC 'CODE'
_TEXT	ENDS
;	COMDAT ??0?$_Tree_val@V?$_Tmap_traits@KPAVIData@@U?$less@K@std@@V?$allocator@U?$pair@$$CBKPAVIData@@@std@@@3@$0A@@std@@@std@@IAE@ABU?$less@K@1@V?$allocator@U?$pair@$$CBKPAVIData@@@std@@@1@@Z
_TEXT	SEGMENT PARA USE32 PUBLIC 'CODE'
_TEXT	ENDS
;	COMDAT ?_Kfn@?$_Tmap_traits@KPAVIData@@U?$less@K@std@@V?$allocator@U?$pair@$$CBKPAVIData@@@std@@@3@$0A@@std@@SAABKABU?$pair@$$CBKPAVIData@@@2@@Z
_TEXT	SEGMENT PARA USE32 PUBLIC 'CODE'
_TEXT	ENDS
;	COMDAT ??0?$allocator@U?$pair@$$CBKPAVIData@@@std@@@std@@QAE@ABV01@@Z
_TEXT	SEGMENT PARA USE32 PUBLIC 'CODE'
_TEXT	ENDS
;	COMDAT ?deallocate@?$allocator@U_Node@?$_Tree_nod@V?$_Tmap_traits@KPAVIData@@U?$less@K@std@@V?$allocator@U?$pair@$$CBKPAVIData@@@std@@@3@$0A@@std@@@std@@@std@@QAEXPAU_Node@?$_Tree_nod@V?$_Tmap_traits@KPAVIData@@U?$less@K@std@@V?$allocator@U?$pair@$$CBKPAVIData@@@std@@@3@$0A@@std@@@2@I@Z
_TEXT	SEGMENT PARA USE32 PUBLIC 'CODE'
_TEXT	ENDS
;	COMDAT ?destroy@?$allocator@U_Node@?$_Tree_nod@V?$_Tmap_traits@KPAVIData@@U?$less@K@std@@V?$allocator@U?$pair@$$CBKPAVIData@@@std@@@3@$0A@@std@@@std@@@std@@QAEXPAU_Node@?$_Tree_nod@V?$_Tmap_traits@KPAVIData@@U?$less@K@std@@V?$allocator@U?$pair@$$CBKPAVIData@@@std@@@3@$0A@@std@@@2@@Z
_TEXT	SEGMENT PARA USE32 PUBLIC 'CODE'
_TEXT	ENDS
;	COMDAT ?destroy@?$allocator@PAU_Node@?$_Tree_nod@V?$_Tmap_traits@KPAVIData@@U?$less@K@std@@V?$allocator@U?$pair@$$CBKPAVIData@@@std@@@3@$0A@@std@@@std@@@std@@QAEXPAPAU_Node@?$_Tree_nod@V?$_Tmap_traits@KPAVIData@@U?$less@K@std@@V?$allocator@U?$pair@$$CBKPAVIData@@@std@@@3@$0A@@std@@@2@@Z
_TEXT	SEGMENT PARA USE32 PUBLIC 'CODE'
_TEXT	ENDS
;	COMDAT ??0iterator@?$_Tree@V?$_Tmap_traits@KPAVIData@@U?$less@K@std@@V?$allocator@U?$pair@$$CBKPAVIData@@@std@@@3@$0A@@std@@@std@@QAE@XZ
_TEXT	SEGMENT PARA USE32 PUBLIC 'CODE'
_TEXT	ENDS
;	COMDAT ??Fiterator@?$_Tree@V?$_Tmap_traits@KPAVIData@@U?$less@K@std@@V?$allocator@U?$pair@$$CBKPAVIData@@@std@@@3@$0A@@std@@@std@@QAEAAV012@XZ
_TEXT	SEGMENT PARA USE32 PUBLIC 'CODE'
_TEXT	ENDS
;	COMDAT ??0const_iterator@?$_Tree@V?$_Tmap_traits@KPAVIData@@U?$less@K@std@@V?$allocator@U?$pair@$$CBKPAVIData@@@std@@@3@$0A@@std@@@std@@QAE@PAU_Node@?$_Tree_nod@V?$_Tmap_traits@KPAVIData@@U?$less@K@std@@V?$allocator@U?$pair@$$CBKPAVIData@@@std@@@3@$0A@@std@@@2@@Z
_TEXT	SEGMENT PARA USE32 PUBLIC 'CODE'
_TEXT	ENDS
;	COMDAT ??Dconst_iterator@?$_Tree@V?$_Tmap_traits@KPAVIData@@U?$less@K@std@@V?$allocator@U?$pair@$$CBKPAVIData@@@std@@@3@$0A@@std@@@std@@QBEABU?$pair@$$CBKPAVIData@@@2@XZ
_TEXT	SEGMENT PARA USE32 PUBLIC 'CODE'
_TEXT	ENDS
;	COMDAT ??Econst_iterator@?$_Tree@V?$_Tmap_traits@KPAVIData@@U?$less@K@std@@V?$allocator@U?$pair@$$CBKPAVIData@@@std@@@3@$0A@@std@@@std@@QAEAAV012@XZ
_TEXT	SEGMENT PARA USE32 PUBLIC 'CODE'
_TEXT	ENDS
;	COMDAT ??0?$pair@Viterator@?$_Tree@V?$_Tmap_traits@KPAVIData@@U?$less@K@std@@V?$allocator@U?$pair@$$CBKPAVIData@@@std@@@3@$0A@@std@@@std@@V123@@std@@QAE@ABViterator@?$_Tree@V?$_Tmap_traits@KPAVIData@@U?$less@K@std@@V?$allocator@U?$pair@$$CBKPAVIData@@@std@@@3@$0A@@std@@@1@0@Z
_TEXT	SEGMENT PARA USE32 PUBLIC 'CODE'
_TEXT	ENDS
;	COMDAT ??0length_error@std@@QAE@ABV01@@Z
_TEXT	SEGMENT PARA USE32 PUBLIC 'CODE'
_TEXT	ENDS
;	COMDAT ??0const_iterator@?$basic_string@DU?$char_traits@D@std@@V?$allocator@D@2@@std@@QAE@PBD@Z
_TEXT	SEGMENT PARA USE32 PUBLIC 'CODE'
_TEXT	ENDS
;	COMDAT ??Gconst_iterator@?$basic_string@DU?$char_traits@D@std@@V?$allocator@D@2@@std@@QBEHABV012@@Z
_TEXT	SEGMENT PARA USE32 PUBLIC 'CODE'
_TEXT	ENDS
;	COMDAT ?_Color@?$_Tree@V?$_Tmap_traits@KPAVIData@@U?$less@K@std@@V?$allocator@U?$pair@$$CBKPAVIData@@@std@@@3@$0A@@std@@@std@@KAAADPAU_Node@?$_Tree_nod@V?$_Tmap_traits@KPAVIData@@U?$less@K@std@@V?$allocator@U?$pair@$$CBKPAVIData@@@std@@@3@$0A@@std@@@2@@Z
_TEXT	SEGMENT PARA USE32 PUBLIC 'CODE'
_TEXT	ENDS
;	COMDAT ?max_size@?$_Tree@V?$_Tmap_traits@KPAVIData@@U?$less@K@std@@V?$allocator@U?$pair@$$CBKPAVIData@@@std@@@3@$0A@@std@@@std@@QBEIXZ
_TEXT	SEGMENT PARA USE32 PUBLIC 'CODE'
_TEXT	ENDS
;	COMDAT ?_Lrotate@?$_Tree@V?$_Tmap_traits@KPAVIData@@U?$less@K@std@@V?$allocator@U?$pair@$$CBKPAVIData@@@std@@@3@$0A@@std@@@std@@IAEXPAU_Node@?$_Tree_nod@V?$_Tmap_traits@KPAVIData@@U?$less@K@std@@V?$allocator@U?$pair@$$CBKPAVIData@@@std@@@3@$0A@@std@@@2@@Z
_TEXT	SEGMENT PARA USE32 PUBLIC 'CODE'
_TEXT	ENDS
;	COMDAT ?_Max@?$_Tree@V?$_Tmap_traits@KPAVIData@@U?$less@K@std@@V?$allocator@U?$pair@$$CBKPAVIData@@@std@@@3@$0A@@std@@@std@@KAPAU_Node@?$_Tree_nod@V?$_Tmap_traits@KPAVIData@@U?$less@K@std@@V?$allocator@U?$pair@$$CBKPAVIData@@@std@@@3@$0A@@std@@@2@PAU342@@Z
_TEXT	SEGMENT PARA USE32 PUBLIC 'CODE'
_TEXT	ENDS
;	COMDAT ?_Min@?$_Tree@V?$_Tmap_traits@KPAVIData@@U?$less@K@std@@V?$allocator@U?$pair@$$CBKPAVIData@@@std@@@3@$0A@@std@@@std@@KAPAU_Node@?$_Tree_nod@V?$_Tmap_traits@KPAVIData@@U?$less@K@std@@V?$allocator@U?$pair@$$CBKPAVIData@@@std@@@3@$0A@@std@@@2@PAU342@@Z
_TEXT	SEGMENT PARA USE32 PUBLIC 'CODE'
_TEXT	ENDS
;	COMDAT ?_Root@?$_Tree@V?$_Tmap_traits@KPAVIData@@U?$less@K@std@@V?$allocator@U?$pair@$$CBKPAVIData@@@std@@@3@$0A@@std@@@std@@IBEAAPAU_Node@?$_Tree_nod@V?$_Tmap_traits@KPAVIData@@U?$less@K@std@@V?$allocator@U?$pair@$$CBKPAVIData@@@std@@@3@$0A@@std@@@2@XZ
_TEXT	SEGMENT PARA USE32 PUBLIC 'CODE'
_TEXT	ENDS
;	COMDAT ?_Rrotate@?$_Tree@V?$_Tmap_traits@KPAVIData@@U?$less@K@std@@V?$allocator@U?$pair@$$CBKPAVIData@@@std@@@3@$0A@@std@@@std@@IAEXPAU_Node@?$_Tree_nod@V?$_Tmap_traits@KPAVIData@@U?$less@K@std@@V?$allocator@U?$pair@$$CBKPAVIData@@@std@@@3@$0A@@std@@@2@@Z
_TEXT	SEGMENT PARA USE32 PUBLIC 'CODE'
_TEXT	ENDS
;	COMDAT ?_Ubound@?$_Tree@V?$_Tmap_traits@KPAVIData@@U?$less@K@std@@V?$allocator@U?$pair@$$CBKPAVIData@@@std@@@3@$0A@@std@@@std@@IBEPAU_Node@?$_Tree_nod@V?$_Tmap_traits@KPAVIData@@U?$less@K@std@@V?$allocator@U?$pair@$$CBKPAVIData@@@std@@@3@$0A@@std@@@2@ABK@Z
_TEXT	SEGMENT PARA USE32 PUBLIC 'CODE'
_TEXT	ENDS
;	COMDAT ?_Buynode@?$_Tree@V?$_Tmap_traits@KPAVIData@@U?$less@K@std@@V?$allocator@U?$pair@$$CBKPAVIData@@@std@@@3@$0A@@std@@@std@@IAEPAU_Node@?$_Tree_nod@V?$_Tmap_traits@KPAVIData@@U?$less@K@std@@V?$allocator@U?$pair@$$CBKPAVIData@@@std@@@3@$0A@@std@@@2@XZ
_TEXT	SEGMENT PARA USE32 PUBLIC 'CODE'
_TEXT	ENDS
;	COMDAT ?_Buynode@?$_Tree@V?$_Tmap_traits@KPAVIData@@U?$less@K@std@@V?$allocator@U?$pair@$$CBKPAVIData@@@std@@@3@$0A@@std@@@std@@IAEPAU_Node@?$_Tree_nod@V?$_Tmap_traits@KPAVIData@@U?$less@K@std@@V?$allocator@U?$pair@$$CBKPAVIData@@@std@@@3@$0A@@std@@@2@PAU342@00ABU?$pair@$$CBKPAVIData@@@2@D@Z
_TEXT	SEGMENT PARA USE32 PUBLIC 'CODE'
_TEXT	ENDS
;	COMDAT ??0?$_Tree_ptr@V?$_Tmap_traits@KPAVIData@@U?$less@K@std@@V?$allocator@U?$pair@$$CBKPAVIData@@@std@@@3@$0A@@std@@@std@@IAE@ABU?$less@K@1@V?$allocator@U?$pair@$$CBKPAVIData@@@std@@@1@@Z
_TEXT	SEGMENT PARA USE32 PUBLIC 'CODE'
_TEXT	ENDS
;	COMDAT ??0const_iterator@?$_Tree@V?$_Tmap_traits@KPAVIData@@U?$less@K@std@@V?$allocator@U?$pair@$$CBKPAVIData@@@std@@@3@$0A@@std@@@std@@QAE@XZ
_TEXT	SEGMENT PARA USE32 PUBLIC 'CODE'
_TEXT	ENDS
;	COMDAT ??Fconst_iterator@?$_Tree@V?$_Tmap_traits@KPAVIData@@U?$less@K@std@@V?$allocator@U?$pair@$$CBKPAVIData@@@std@@@3@$0A@@std@@@std@@QAEAAV012@XZ
_TEXT	SEGMENT PARA USE32 PUBLIC 'CODE'
_TEXT	ENDS
;	COMDAT ?_Inc@const_iterator@?$_Tree@V?$_Tmap_traits@KPAVIData@@U?$less@K@std@@V?$allocator@U?$pair@$$CBKPAVIData@@@std@@@3@$0A@@std@@@std@@QAEXXZ
_TEXT	SEGMENT PARA USE32 PUBLIC 'CODE'
_TEXT	ENDS
;	COMDAT ??0?$pair@Viterator@?$_Tree@V?$_Tmap_traits@KPAVIData@@U?$less@K@std@@V?$allocator@U?$pair@$$CBKPAVIData@@@std@@@3@$0A@@std@@@std@@_N@std@@QAE@ABViterator@?$_Tree@V?$_Tmap_traits@KPAVIData@@U?$less@K@std@@V?$allocator@U?$pair@$$CBKPAVIData@@@std@@@3@$0A@@std@@@1@AB_N@Z
_TEXT	SEGMENT PARA USE32 PUBLIC 'CODE'
_TEXT	ENDS
;	COMDAT ??0?$_Tree_nod@V?$_Tmap_traits@KPAVIData@@U?$less@K@std@@V?$allocator@U?$pair@$$CBKPAVIData@@@std@@@3@$0A@@std@@@std@@IAE@ABU?$less@K@1@V?$allocator@U?$pair@$$CBKPAVIData@@@std@@@1@@Z
_TEXT	SEGMENT PARA USE32 PUBLIC 'CODE'
_TEXT	ENDS
;	COMDAT ?max_size@?$allocator@U?$pair@$$CBKPAVIData@@@std@@@std@@QBEIXZ
_TEXT	SEGMENT PARA USE32 PUBLIC 'CODE'
_TEXT	ENDS
;	COMDAT ?allocate@?$allocator@U_Node@?$_Tree_nod@V?$_Tmap_traits@KPAVIData@@U?$less@K@std@@V?$allocator@U?$pair@$$CBKPAVIData@@@std@@@3@$0A@@std@@@std@@@std@@QAEPAU_Node@?$_Tree_nod@V?$_Tmap_traits@KPAVIData@@U?$less@K@std@@V?$allocator@U?$pair@$$CBKPAVIData@@@std@@@3@$0A@@std@@@2@I@Z
_TEXT	SEGMENT PARA USE32 PUBLIC 'CODE'
_TEXT	ENDS
;	COMDAT ?construct@?$allocator@PAU_Node@?$_Tree_nod@V?$_Tmap_traits@KPAVIData@@U?$less@K@std@@V?$allocator@U?$pair@$$CBKPAVIData@@@std@@@3@$0A@@std@@@std@@@std@@QAEXPAPAU_Node@?$_Tree_nod@V?$_Tmap_traits@KPAVIData@@U?$less@K@std@@V?$allocator@U?$pair@$$CBKPAVIData@@@std@@@3@$0A@@std@@@2@ABQAU342@@Z
_TEXT	SEGMENT PARA USE32 PUBLIC 'CODE'
_TEXT	ENDS
;	COMDAT ?_Dec@const_iterator@?$_Tree@V?$_Tmap_traits@KPAVIData@@U?$less@K@std@@V?$allocator@U?$pair@$$CBKPAVIData@@@std@@@3@$0A@@std@@@std@@QAEXXZ
_TEXT	SEGMENT PARA USE32 PUBLIC 'CODE'
_TEXT	ENDS
;	COMDAT ??0_Node@?$_Tree_nod@V?$_Tmap_traits@KPAVIData@@U?$less@K@std@@V?$allocator@U?$pair@$$CBKPAVIData@@@std@@@3@$0A@@std@@@std@@QAE@PAU012@00ABU?$pair@$$CBKPAVIData@@@2@D@Z
_TEXT	SEGMENT PARA USE32 PUBLIC 'CODE'
_TEXT	ENDS
;	COMDAT ??0?$_Tmap_traits@KPAVIData@@U?$less@K@std@@V?$allocator@U?$pair@$$CBKPAVIData@@@std@@@3@$0A@@std@@QAE@U?$less@K@1@@Z
_TEXT	SEGMENT PARA USE32 PUBLIC 'CODE'
_TEXT	ENDS
;	COMDAT ?Unlock@?$CComCritSecLock@VCComCriticalSection@ATL@@@ATL@@QAEXXZ
_TEXT	SEGMENT PARA USE32 PUBLIC 'CODE'
_TEXT	ENDS
;	COMDAT ??$_Distance@Viterator@?$_Tree@V?$_Tmap_traits@KPAVIData@@U?$less@K@std@@V?$allocator@U?$pair@$$CBKPAVIData@@@std@@@3@$0A@@std@@@std@@I@std@@YAXViterator@?$_Tree@V?$_Tmap_traits@KPAVIData@@U?$less@K@std@@V?$allocator@U?$pair@$$CBKPAVIData@@@std@@@3@$0A@@std@@@0@0AAI@Z
_TEXT	SEGMENT PARA USE32 PUBLIC 'CODE'
_TEXT	ENDS
;	COMDAT ??$_Maklocstr@D@std@@YAPADPBDPADABU_Cvtvec@@@Z
_TEXT	SEGMENT PARA USE32 PUBLIC 'CODE'
_TEXT	ENDS
;	COMDAT ??$_Destroy@U_Node@?$_Tree_nod@V?$_Tmap_traits@KPAVIData@@U?$less@K@std@@V?$allocator@U?$pair@$$CBKPAVIData@@@std@@@3@$0A@@std@@@std@@@std@@YAXPAU_Node@?$_Tree_nod@V?$_Tmap_traits@KPAVIData@@U?$less@K@std@@V?$allocator@U?$pair@$$CBKPAVIData@@@std@@@3@$0A@@std@@@0@@Z
_TEXT	SEGMENT PARA USE32 PUBLIC 'CODE'
_TEXT	ENDS
;	COMDAT ??$_Destroy@PAU_Node@?$_Tree_nod@V?$_Tmap_traits@KPAVIData@@U?$less@K@std@@V?$allocator@U?$pair@$$CBKPAVIData@@@std@@@3@$0A@@std@@@std@@@std@@YAXPAPAU_Node@?$_Tree_nod@V?$_Tmap_traits@KPAVIData@@U?$less@K@std@@V?$allocator@U?$pair@$$CBKPAVIData@@@std@@@3@$0A@@std@@@0@@Z
_TEXT	SEGMENT PARA USE32 PUBLIC 'CODE'
_TEXT	ENDS
;	COMDAT ??$?0U?$pair@$$CBKPAVIData@@@std@@@?$allocator@PAU_Node@?$_Tree_nod@V?$_Tmap_traits@KPAVIData@@U?$less@K@std@@V?$allocator@U?$pair@$$CBKPAVIData@@@std@@@3@$0A@@std@@@std@@@std@@QAE@ABV?$allocator@U?$pair@$$CBKPAVIData@@@std@@@1@@Z
_TEXT	SEGMENT PARA USE32 PUBLIC 'CODE'
_TEXT	ENDS
;	COMDAT ??$?0U?$pair@$$CBKPAVIData@@@std@@@?$allocator@U_Node@?$_Tree_nod@V?$_Tmap_traits@KPAVIData@@U?$less@K@std@@V?$allocator@U?$pair@$$CBKPAVIData@@@std@@@3@$0A@@std@@@std@@@std@@QAE@ABV?$allocator@U?$pair@$$CBKPAVIData@@@std@@@1@@Z
_TEXT	SEGMENT PARA USE32 PUBLIC 'CODE'
_TEXT	ENDS
;	COMDAT ??$_Allocate@U_Node@?$_Tree_nod@V?$_Tmap_traits@KPAVIData@@U?$less@K@std@@V?$allocator@U?$pair@$$CBKPAVIData@@@std@@@3@$0A@@std@@@std@@@std@@YAPAU_Node@?$_Tree_nod@V?$_Tmap_traits@KPAVIData@@U?$less@K@std@@V?$allocator@U?$pair@$$CBKPAVIData@@@std@@@3@$0A@@std@@@0@IPAU120@@Z
_TEXT	SEGMENT PARA USE32 PUBLIC 'CODE'
_TEXT	ENDS
;	COMDAT ??$_Construct@PAU_Node@?$_Tree_nod@V?$_Tmap_traits@KPAVIData@@U?$less@K@std@@V?$allocator@U?$pair@$$CBKPAVIData@@@std@@@3@$0A@@std@@@std@@PAU123@@std@@YAXPAPAU_Node@?$_Tree_nod@V?$_Tmap_traits@KPAVIData@@U?$less@K@std@@V?$allocator@U?$pair@$$CBKPAVIData@@@std@@@3@$0A@@std@@@0@ABQAU120@@Z
_TEXT	SEGMENT PARA USE32 PUBLIC 'CODE'
_TEXT	ENDS
;	COMDAT ??$_Iter_cat@Viterator@?$_Tree@V?$_Tmap_traits@KPAVIData@@U?$less@K@std@@V?$allocator@U?$pair@$$CBKPAVIData@@@std@@@3@$0A@@std@@@std@@@std@@YA?AUbidirectional_iterator_tag@0@ABViterator@?$_Tree@V?$_Tmap_traits@KPAVIData@@U?$less@K@std@@V?$allocator@U?$pair@$$CBKPAVIData@@@std@@@3@$0A@@std@@@0@@Z
_TEXT	SEGMENT PARA USE32 PUBLIC 'CODE'
_TEXT	ENDS
;	COMDAT ??$_Distance2@Viterator@?$_Tree@V?$_Tmap_traits@KPAVIData@@U?$less@K@std@@V?$allocator@U?$pair@$$CBKPAVIData@@@std@@@3@$0A@@std@@@std@@I@std@@YAXViterator@?$_Tree@V?$_Tmap_traits@KPAVIData@@U?$less@K@std@@V?$allocator@U?$pair@$$CBKPAVIData@@@std@@@3@$0A@@std@@@0@0AAIUbidirectional_iterator_tag@0@@Z
_TEXT	SEGMENT PARA USE32 PUBLIC 'CODE'
_TEXT	ENDS
;	COMDAT ??_R3?$numpunct@_W@std@@8
rdata$r	SEGMENT DWORD USE32 PUBLIC 'CONST'
rdata$r	ENDS
;	COMDAT ??_R3?$numpunct@D@std@@8
rdata$r	SEGMENT DWORD USE32 PUBLIC 'CONST'
rdata$r	ENDS
;	COMDAT ??_R3IData@@8
rdata$r	SEGMENT DWORD USE32 PUBLIC 'CONST'
rdata$r	ENDS
;	COMDAT ??_R3CDataManager@@8
rdata$r	SEGMENT DWORD USE32 PUBLIC 'CONST'
rdata$r	ENDS
;	COMDAT ??_R3IAdData@@8
rdata$r	SEGMENT DWORD USE32 PUBLIC 'CONST'
rdata$r	ENDS
;	COMDAT ??_R2?$numpunct@_W@std@@8
rdata$r	SEGMENT DWORD USE32 PUBLIC 'CONST'
rdata$r	ENDS
;	COMDAT ??_R2?$numpunct@D@std@@8
rdata$r	SEGMENT DWORD USE32 PUBLIC 'CONST'
rdata$r	ENDS
;	COMDAT ??_R2IData@@8
rdata$r	SEGMENT DWORD USE32 PUBLIC 'CONST'
rdata$r	ENDS
;	COMDAT ??_R2CDataManager@@8
rdata$r	SEGMENT DWORD USE32 PUBLIC 'CONST'
rdata$r	ENDS
;	COMDAT ??_R2IAdData@@8
rdata$r	SEGMENT DWORD USE32 PUBLIC 'CONST'
rdata$r	ENDS
;	COMDAT ??_R1A@?0A@A@?$numpunct@_W@std@@8
rdata$r	SEGMENT DWORD USE32 PUBLIC 'CONST'
rdata$r	ENDS
;	COMDAT ??_R1A@?0A@A@facet@locale@std@@8
rdata$r	SEGMENT DWORD USE32 PUBLIC 'CONST'
rdata$r	ENDS
;	COMDAT ??_R0?AVfacet@locale@std@@@8
_DATA	SEGMENT DWORD USE32 PUBLIC 'DATA'
_DATA	ENDS
;	COMDAT ??_R1A@?0A@A@?$numpunct@D@std@@8
rdata$r	SEGMENT DWORD USE32 PUBLIC 'CONST'
rdata$r	ENDS
;	COMDAT ??_R1A@?0A@A@IDataManager@@8
rdata$r	SEGMENT DWORD USE32 PUBLIC 'CONST'
rdata$r	ENDS
;	COMDAT ??_R0?AVIDataManager@@@8
_DATA	SEGMENT DWORD USE32 PUBLIC 'DATA'
_DATA	ENDS
;	COMDAT ??_R1A@?0A@A@CDataManager@@8
rdata$r	SEGMENT DWORD USE32 PUBLIC 'CONST'
rdata$r	ENDS
;	COMDAT ??_R1A@?0A@A@IData@@8
rdata$r	SEGMENT DWORD USE32 PUBLIC 'CONST'
rdata$r	ENDS
;	COMDAT ??_R1A@?0A@A@IAdData@@8
rdata$r	SEGMENT DWORD USE32 PUBLIC 'CONST'
rdata$r	ENDS
;	COMDAT ??_R0?AV?$numpunct@_W@std@@@8
_DATA	SEGMENT DWORD USE32 PUBLIC 'DATA'
_DATA	ENDS
;	COMDAT ??_R0?AV?$numpunct@D@std@@@8
_DATA	SEGMENT DWORD USE32 PUBLIC 'DATA'
_DATA	ENDS
;	COMDAT ??_R0?AVCDataManager@@@8
_DATA	SEGMENT DWORD USE32 PUBLIC 'DATA'
_DATA	ENDS
;	COMDAT ??_R0?AVIData@@@8
_DATA	SEGMENT DWORD USE32 PUBLIC 'DATA'
_DATA	ENDS
;	COMDAT ??_R0?AVIAdData@@@8
_DATA	SEGMENT DWORD USE32 PUBLIC 'DATA'
_DATA	ENDS
;	COMDAT ??0?$allocator@_W@std@@QAE@XZ
_TEXT	SEGMENT PARA USE32 PUBLIC 'CODE'
_TEXT	ENDS
;	COMDAT ??_G?$numpunct@_W@std@@MAEPAXI@Z
_TEXT	SEGMENT PARA USE32 PUBLIC 'CODE'
_TEXT	ENDS
;	COMDAT ??_R4?$numpunct@_W@std@@6B@
rdata$r	SEGMENT DWORD USE32 PUBLIC 'CONST'
rdata$r	ENDS
;	COMDAT ??_G?$numpunct@D@std@@MAEPAXI@Z
_TEXT	SEGMENT PARA USE32 PUBLIC 'CODE'
_TEXT	ENDS
;	COMDAT ??_R4?$numpunct@D@std@@6B@
rdata$r	SEGMENT DWORD USE32 PUBLIC 'CONST'
rdata$r	ENDS
;	COMDAT ??_R4IData@@6B@
rdata$r	SEGMENT DWORD USE32 PUBLIC 'CONST'
rdata$r	ENDS
;	COMDAT ??_R4CDataManager@@6B@
rdata$r	SEGMENT DWORD USE32 PUBLIC 'CONST'
rdata$r	ENDS
;	COMDAT ??_R4IAdData@@6B@
rdata$r	SEGMENT DWORD USE32 PUBLIC 'CONST'
rdata$r	ENDS
;	COMDAT ??_C@_0EN@CBMLGOH@D?3?2Program?5Files?5?$CIx86?$CJ?2Microsoft@
CONST	SEGMENT DWORD USE32 PUBLIC 'CONST'
CONST	ENDS
;	COMDAT ?_Psave@?$_Facetptr@V?$numpunct@_W@std@@@std@@2PBVfacet@locale@2@B
_DATA	SEGMENT DWORD USE32 PUBLIC 'DATA'
_DATA	ENDS
;	COMDAT ?_Psave@?$_Facetptr@V?$numpunct@D@std@@@std@@2PBVfacet@locale@2@B
_DATA	SEGMENT DWORD USE32 PUBLIC 'DATA'
_DATA	ENDS
;	COMDAT ?Unlock@CComCriticalSection@ATL@@QAEJXZ
_TEXT	SEGMENT PARA USE32 PUBLIC 'CODE'
_TEXT	ENDS
;	COMDAT ??_C@_0FG@LDNDNCJM@D?3?2Program?5Files?5?$CIx86?$CJ?2Microsoft@
CONST	SEGMENT DWORD USE32 PUBLIC 'CONST'
CONST	ENDS
;	COMDAT ??_C@_09HIEJFN@m_bLocked?$AA@
CONST	SEGMENT DWORD USE32 PUBLIC 'CONST'
CONST	ENDS
;	COMDAT ?_Psave@?$_Facetptr@V?$ctype@_W@std@@@std@@2PBVfacet@locale@2@B
_DATA	SEGMENT DWORD USE32 PUBLIC 'DATA'
_DATA	ENDS
;	COMDAT ?_Psave@?$_Facetptr@V?$ctype@D@std@@@std@@2PBVfacet@locale@2@B
_DATA	SEGMENT DWORD USE32 PUBLIC 'DATA'
_DATA	ENDS
;	COMDAT ??3@YAXPAX0@Z
_TEXT	SEGMENT PARA USE32 PUBLIC 'CODE'
_TEXT	ENDS
;	COMDAT ??2@YAPAXIPAX@Z
_TEXT	SEGMENT PARA USE32 PUBLIC 'CODE'
_TEXT	ENDS
;	COMDAT ??_7length_error@std@@6B@
CONST	SEGMENT DWORD USE32 PUBLIC 'CONST'
CONST	ENDS
;	COMDAT ??_R4length_error@std@@6B@
rdata$r	SEGMENT DWORD USE32 PUBLIC 'CONST'
rdata$r	ENDS
;	COMDAT ??_R3length_error@std@@8
rdata$r	SEGMENT DWORD USE32 PUBLIC 'CONST'
rdata$r	ENDS
;	COMDAT ??_R2length_error@std@@8
rdata$r	SEGMENT DWORD USE32 PUBLIC 'CONST'
rdata$r	ENDS
;	COMDAT ??_R1A@?0A@A@length_error@std@@8
rdata$r	SEGMENT DWORD USE32 PUBLIC 'CONST'
rdata$r	ENDS
;	COMDAT ??_R1A@?0A@A@logic_error@std@@8
rdata$r	SEGMENT DWORD USE32 PUBLIC 'CONST'
rdata$r	ENDS
;	COMDAT ??_R0?AVlogic_error@std@@@8
_DATA	SEGMENT DWORD USE32 PUBLIC 'DATA'
_DATA	ENDS
;	COMDAT ??_R1A@?0A@A@exception@@8
rdata$r	SEGMENT DWORD USE32 PUBLIC 'CONST'
rdata$r	ENDS
;	COMDAT ??_R0?AVexception@@@8
_DATA	SEGMENT DWORD USE32 PUBLIC 'DATA'
_DATA	ENDS
;	COMDAT ??_Glength_error@std@@UAEPAXI@Z
_TEXT	SEGMENT PARA USE32 PUBLIC 'CODE'
_TEXT	ENDS
;	COMDAT ?what@logic_error@std@@UBEPBDXZ
_TEXT	SEGMENT PARA USE32 PUBLIC 'CODE'
_TEXT	ENDS
;	COMDAT ??1logic_error@std@@UAE@XZ
_TEXT	SEGMENT PARA USE32 PUBLIC 'CODE'
_TEXT	ENDS
;	COMDAT ??_7logic_error@std@@6B@
CONST	SEGMENT DWORD USE32 PUBLIC 'CONST'
CONST	ENDS
;	COMDAT ??_R4logic_error@std@@6B@
rdata$r	SEGMENT DWORD USE32 PUBLIC 'CONST'
rdata$r	ENDS
;	COMDAT ??_R3logic_error@std@@8
rdata$r	SEGMENT DWORD USE32 PUBLIC 'CONST'
rdata$r	ENDS
;	COMDAT ??_R2logic_error@std@@8
rdata$r	SEGMENT DWORD USE32 PUBLIC 'CONST'
rdata$r	ENDS
;	COMDAT ??_Glogic_error@std@@UAEPAXI@Z
_TEXT	SEGMENT PARA USE32 PUBLIC 'CODE'
_TEXT	ENDS
;	COMDAT ??0logic_error@std@@QAE@ABV01@@Z
_TEXT	SEGMENT PARA USE32 PUBLIC 'CODE'
_TEXT	ENDS
;	COMDAT ??0?$allocator@D@std@@QAE@ABV01@@Z
_TEXT	SEGMENT PARA USE32 PUBLIC 'CODE'
_TEXT	ENDS
;	COMDAT ?deallocate@?$allocator@D@std@@QAEXPADI@Z
_TEXT	SEGMENT PARA USE32 PUBLIC 'CODE'
_TEXT	ENDS
;	COMDAT ?max_size@?$allocator@D@std@@QBEIXZ
_TEXT	SEGMENT PARA USE32 PUBLIC 'CODE'
_TEXT	ENDS
;	COMDAT ?allocate@?$allocator@D@std@@QAEPADI@Z
_TEXT	SEGMENT PARA USE32 PUBLIC 'CODE'
_TEXT	ENDS
;	COMDAT ??$_Allocate@D@std@@YAPADIPAD@Z
_TEXT	SEGMENT PARA USE32 PUBLIC 'CODE'
_TEXT	ENDS
;	COMDAT __CTA3?AVlength_error@std@@
xdata$x	SEGMENT DWORD USE32 PUBLIC 'CONST'
xdata$x	ENDS
;	COMDAT ??1length_error@std@@UAE@XZ
_TEXT	SEGMENT PARA USE32 PUBLIC 'CODE'
_TEXT	ENDS
;	COMDAT __CT??_R0?AVexception@@@8??0exception@@QAE@ABV0@@Z12
xdata$x	SEGMENT DWORD USE32 PUBLIC 'CONST'
xdata$x	ENDS
;	COMDAT __CT??_R0?AVlogic_error@std@@@8??0logic_error@std@@QAE@ABV01@@Z40
xdata$x	SEGMENT DWORD USE32 PUBLIC 'CONST'
xdata$x	ENDS
;	COMDAT __CT??_R0?AVlength_error@std@@@8??0length_error@std@@QAE@ABV01@@Z40
xdata$x	SEGMENT DWORD USE32 PUBLIC 'CONST'
xdata$x	ENDS
;	COMDAT ??_R0?AVlength_error@std@@@8
_DATA	SEGMENT DWORD USE32 PUBLIC 'DATA'
_DATA	ENDS
;	COMDAT __TI3?AVlength_error@std@@
xdata$x	SEGMENT DWORD USE32 PUBLIC 'CONST'
xdata$x	ENDS
;	COMDAT ??0length_error@std@@QAE@ABV?$basic_string@DU?$char_traits@D@std@@V?$allocator@D@2@@1@@Z
_TEXT	SEGMENT PARA USE32 PUBLIC 'CODE'
_TEXT	ENDS
;	COMDAT ??0logic_error@std@@QAE@ABV?$basic_string@DU?$char_traits@D@std@@V?$allocator@D@2@@1@@Z
_TEXT	SEGMENT PARA USE32 PUBLIC 'CODE'
_TEXT	ENDS
;	COMDAT ??$swap@D@std@@YAXAAD0@Z
_TEXT	SEGMENT PARA USE32 PUBLIC 'CODE'
_TEXT	ENDS
;	COMDAT __TI3?AVout_of_range@std@@
xdata$x	SEGMENT DWORD USE32 PUBLIC 'CONST'
xdata$x	ENDS
;	COMDAT ??1out_of_range@std@@UAE@XZ
_TEXT	SEGMENT PARA USE32 PUBLIC 'CODE'
_TEXT	ENDS
;	COMDAT ??_7out_of_range@std@@6B@
CONST	SEGMENT DWORD USE32 PUBLIC 'CONST'
CONST	ENDS
;	COMDAT ??_R4out_of_range@std@@6B@
rdata$r	SEGMENT DWORD USE32 PUBLIC 'CONST'
rdata$r	ENDS
;	COMDAT ??_R0?AVout_of_range@std@@@8
_DATA	SEGMENT DWORD USE32 PUBLIC 'DATA'
_DATA	ENDS
;	COMDAT ??_R3out_of_range@std@@8
rdata$r	SEGMENT DWORD USE32 PUBLIC 'CONST'
rdata$r	ENDS
;	COMDAT ??_R2out_of_range@std@@8
rdata$r	SEGMENT DWORD USE32 PUBLIC 'CONST'
rdata$r	ENDS
;	COMDAT ??_R1A@?0A@A@out_of_range@std@@8
rdata$r	SEGMENT DWORD USE32 PUBLIC 'CONST'
rdata$r	ENDS
;	COMDAT ??_Gout_of_range@std@@UAEPAXI@Z
_TEXT	SEGMENT PARA USE32 PUBLIC 'CODE'
_TEXT	ENDS
;	COMDAT __CTA3?AVout_of_range@std@@
xdata$x	SEGMENT DWORD USE32 PUBLIC 'CONST'
xdata$x	ENDS
;	COMDAT __CT??_R0?AVout_of_range@std@@@8??0out_of_range@std@@QAE@ABV01@@Z40
xdata$x	SEGMENT DWORD USE32 PUBLIC 'CONST'
xdata$x	ENDS
;	COMDAT ??0out_of_range@std@@QAE@ABV01@@Z
_TEXT	SEGMENT PARA USE32 PUBLIC 'CODE'
_TEXT	ENDS
;	COMDAT ??_C@_0BM@PAPJHAGI@invalid?5map?1set?$DMT?$DO?5iterator?$AA@
CONST	SEGMENT DWORD USE32 PUBLIC 'CONST'
CONST	ENDS
;	COMDAT ??0out_of_range@std@@QAE@ABV?$basic_string@DU?$char_traits@D@std@@V?$allocator@D@2@@1@@Z
_TEXT	SEGMENT PARA USE32 PUBLIC 'CODE'
_TEXT	ENDS
;	COMDAT ??$_Maklocchr@_W@std@@YA_WDPA_WABU_Cvtvec@@@Z
_TEXT	SEGMENT PARA USE32 PUBLIC 'CODE'
_TEXT	ENDS
;	COMDAT ??$_DebugHeapDelete@X@std@@YAXPAX@Z
_TEXT	SEGMENT PARA USE32 PUBLIC 'CODE'
_TEXT	ENDS
;	COMDAT ??$_Maklocstr@_W@std@@YAPA_WPBDPA_WABU_Cvtvec@@@Z
_TEXT	SEGMENT PARA USE32 PUBLIC 'CODE'
_TEXT	ENDS
;	COMDAT ??$_Maklocchr@D@std@@YADDPADABU_Cvtvec@@@Z
_TEXT	SEGMENT PARA USE32 PUBLIC 'CODE'
_TEXT	ENDS
;	COMDAT ??_C@_04LOAJBDKD@true?$AA@
CONST	SEGMENT DWORD USE32 PUBLIC 'CONST'
CONST	ENDS
;	COMDAT ??_C@_05LAPONLG@false?$AA@
CONST	SEGMENT DWORD USE32 PUBLIC 'CONST'
CONST	ENDS
;	COMDAT _wmemcpy
_TEXT	SEGMENT PARA USE32 PUBLIC 'CODE'
_TEXT	ENDS
;	COMDAT ?max_size@?$allocator@_W@std@@QBEIXZ
_TEXT	SEGMENT PARA USE32 PUBLIC 'CODE'
_TEXT	ENDS
;	COMDAT ?allocate@?$allocator@_W@std@@QAEPA_WI@Z
_TEXT	SEGMENT PARA USE32 PUBLIC 'CODE'
_TEXT	ENDS
;	COMDAT ??$_Allocate@_W@std@@YAPA_WIPA_W@Z
_TEXT	SEGMENT PARA USE32 PUBLIC 'CODE'
_TEXT	ENDS
;	COMDAT ??_C@_01GFHCPBMG@C?$AA@
CONST	SEGMENT DWORD USE32 PUBLIC 'CONST'
CONST	ENDS
;	COMDAT ?_Peek@?$istreambuf_iterator@_WU?$char_traits@_W@std@@@std@@AAE_WXZ
_TEXT	SEGMENT PARA USE32 PUBLIC 'CODE'
_TEXT	ENDS
;	COMDAT ?_Peek@?$istreambuf_iterator@DU?$char_traits@D@std@@@std@@AAEDXZ
_TEXT	SEGMENT PARA USE32 PUBLIC 'CODE'
_TEXT	ENDS
;	COMDAT ??$use_facet@V?$ctype@_W@std@@@std@@YAABV?$ctype@_W@0@ABVlocale@0@@Z
_TEXT	SEGMENT PARA USE32 PUBLIC 'CODE'
_TEXT	ENDS
;	COMDAT ??_S?$ctype@_W@std@@6B@
CONST	SEGMENT DWORD USE32 PUBLIC 'CONST'
CONST	ENDS
;	COMDAT ??_R4?$ctype@_W@std@@6B@
rdata$r	SEGMENT DWORD USE32 PUBLIC 'CONST'
rdata$r	ENDS
;	COMDAT ??_R0?AV?$ctype@_W@std@@@8
_DATA	SEGMENT DWORD USE32 PUBLIC 'DATA'
_DATA	ENDS
;	COMDAT ??_R3?$ctype@_W@std@@8
rdata$r	SEGMENT DWORD USE32 PUBLIC 'CONST'
rdata$r	ENDS
;	COMDAT ??_R2?$ctype@_W@std@@8
rdata$r	SEGMENT DWORD USE32 PUBLIC 'CONST'
rdata$r	ENDS
;	COMDAT ??_R1A@?0A@A@?$ctype@_W@std@@8
rdata$r	SEGMENT DWORD USE32 PUBLIC 'CONST'
rdata$r	ENDS
;	COMDAT ??_R1A@?0A@A@ctype_base@std@@8
rdata$r	SEGMENT DWORD USE32 PUBLIC 'CONST'
rdata$r	ENDS
;	COMDAT ??_R0?AUctype_base@std@@@8
_DATA	SEGMENT DWORD USE32 PUBLIC 'DATA'
_DATA	ENDS
;	COMDAT ??_G?$ctype@_W@std@@MAEPAXI@Z
_TEXT	SEGMENT PARA USE32 PUBLIC 'CODE'
_TEXT	ENDS
;	COMDAT ??_C@_08EPJLHIJG@bad?5cast?$AA@
CONST	SEGMENT DWORD USE32 PUBLIC 'CONST'
CONST	ENDS
;	COMDAT __TI2?AVbad_cast@@
xdata$x	SEGMENT DWORD USE32 PUBLIC 'CONST'
xdata$x	ENDS
;	COMDAT __CTA2?AVbad_cast@@
xdata$x	SEGMENT DWORD USE32 PUBLIC 'CONST'
xdata$x	ENDS
;	COMDAT __CT??_R0?AVbad_cast@@@8??0bad_cast@@QAE@ABV0@@Z12
xdata$x	SEGMENT DWORD USE32 PUBLIC 'CONST'
xdata$x	ENDS
;	COMDAT ??_R0?AVbad_cast@@@8
_DATA	SEGMENT DWORD USE32 PUBLIC 'DATA'
_DATA	ENDS
;	COMDAT ??$_DebugHeapDelete@Vfacet@locale@std@@@std@@YAXPAVfacet@locale@0@@Z
_TEXT	SEGMENT PARA USE32 PUBLIC 'CODE'
_TEXT	ENDS
;	COMDAT ??$use_facet@V?$ctype@D@std@@@std@@YAABV?$ctype@D@0@ABVlocale@0@@Z
_TEXT	SEGMENT PARA USE32 PUBLIC 'CODE'
_TEXT	ENDS
;	COMDAT ??_S?$ctype@D@std@@6B@
CONST	SEGMENT DWORD USE32 PUBLIC 'CONST'
CONST	ENDS
;	COMDAT ??_R4?$ctype@D@std@@6B@
rdata$r	SEGMENT DWORD USE32 PUBLIC 'CONST'
rdata$r	ENDS
;	COMDAT ??_R0?AV?$ctype@D@std@@@8
_DATA	SEGMENT DWORD USE32 PUBLIC 'DATA'
_DATA	ENDS
;	COMDAT ??_R3?$ctype@D@std@@8
rdata$r	SEGMENT DWORD USE32 PUBLIC 'CONST'
rdata$r	ENDS
;	COMDAT ??_R2?$ctype@D@std@@8
rdata$r	SEGMENT DWORD USE32 PUBLIC 'CONST'
rdata$r	ENDS
;	COMDAT ??_R1A@?0A@A@?$ctype@D@std@@8
rdata$r	SEGMENT DWORD USE32 PUBLIC 'CONST'
rdata$r	ENDS
;	COMDAT ??_G?$ctype@D@std@@MAEPAXI@Z
_TEXT	SEGMENT PARA USE32 PUBLIC 'CODE'
_TEXT	ENDS
;	COMDAT ??_S?$numpunct@_W@std@@6B@
CONST	SEGMENT DWORD USE32 PUBLIC 'CONST'
CONST	ENDS
;	COMDAT ??_S?$numpunct@D@std@@6B@
CONST	SEGMENT DWORD USE32 PUBLIC 'CONST'
CONST	ENDS
;	COMDAT _wmemmove
_TEXT	SEGMENT PARA USE32 PUBLIC 'CODE'
_TEXT	ENDS
;	COMDAT ?deallocate@?$allocator@_W@std@@QAEXPA_WI@Z
_TEXT	SEGMENT PARA USE32 PUBLIC 'CODE'
_TEXT	ENDS
;	COMDAT ??0?$allocator@_W@std@@QAE@ABV01@@Z
_TEXT	SEGMENT PARA USE32 PUBLIC 'CODE'
_TEXT	ENDS
;	COMDAT ??0?$allocator@D@std@@QAE@XZ
_TEXT	SEGMENT PARA USE32 PUBLIC 'CODE'
_TEXT	ENDS
;	COMDAT ??_7IDataManager@@6B@
CONST	SEGMENT DWORD USE32 PUBLIC 'CONST'
CONST	ENDS
;	COMDAT ??_R4IDataManager@@6B@
rdata$r	SEGMENT DWORD USE32 PUBLIC 'CONST'
rdata$r	ENDS
;	COMDAT ??_R3IDataManager@@8
rdata$r	SEGMENT DWORD USE32 PUBLIC 'CONST'
rdata$r	ENDS
;	COMDAT ??_R2IDataManager@@8
rdata$r	SEGMENT DWORD USE32 PUBLIC 'CONST'
rdata$r	ENDS
;	COMDAT ??_GIDataManager@@UAEPAXI@Z
_TEXT	SEGMENT PARA USE32 PUBLIC 'CODE'
_TEXT	ENDS
;	COMDAT ??_7CDataManager@@6B@
CONST	SEGMENT DWORD USE32 PUBLIC 'CONST'
CONST	ENDS
;	COMDAT ??1IDataManager@@UAE@XZ
_TEXT	SEGMENT PARA USE32 PUBLIC 'CODE'
_TEXT	ENDS
;	COMDAT ??_7IAdData@@6B@
CONST	SEGMENT DWORD USE32 PUBLIC 'CONST'
CONST	ENDS
;	COMDAT ??_7IData@@6B@
CONST	SEGMENT DWORD USE32 PUBLIC 'CONST'
CONST	ENDS
sxdata	SEGMENT DWORD USE32 'SXDATA'
sxdata	ENDS
FLAT	GROUP _DATA, CONST, _BSS
	ASSUME	CS: FLAT, DS: FLAT, SS: FLAT
endif

INCLUDELIB MSVCRTD
INCLUDELIB OLDNAMES

CONST	SEGMENT
$SG188751 DB	'DataManAppStart======IN', 00H
$SG188752 DB	'DataManager', 00H
$SG188753 DB	'main.txt', 00H
	ORG $+3
$SG188756 DB	'DataManAppStart======OUT', 00H
	ORG $+3
$SG188757 DB	'DataManager', 00H
$SG188758 DB	'main.txt', 00H
	ORG $+3
$SG188764 DB	'DataManAppExit======IN', 00H
	ORG $+1
$SG188765 DB	'DataManager', 00H
$SG188766 DB	'main.txt', 00H
	ORG $+3
$SG188877 DB	'DataManAppExit--OUT', 00H
$SG188878 DB	'DataManager', 00H
$SG188879 DB	'main.txt', 00H
CONST	ENDS
PUBLIC	??_R4CDataManager@@6B@				; CDataManager::`RTTI Complete Object Locator'
PUBLIC	??_R0?AVCDataManager@@@8			; CDataManager `RTTI Type Descriptor'
PUBLIC	??_R3CDataManager@@8				; CDataManager::`RTTI Class Hierarchy Descriptor'
PUBLIC	??_R2CDataManager@@8				; CDataManager::`RTTI Base Class Array'
PUBLIC	??_R1A@?0A@A@CDataManager@@8			; CDataManager::`RTTI Base Class Descriptor at (0,-1,0,0)'
PUBLIC	??1IDataManager@@UAE@XZ				; IDataManager::~IDataManager
PUBLIC	??0IDataManager@@QAE@XZ				; IDataManager::IDataManager
PUBLIC	??0CDataManager@@QAE@XZ				; CDataManager::CDataManager
PUBLIC	?DataManAppStart@CDataManager@@UAEXXZ		; CDataManager::DataManAppStart
PUBLIC	?DataManAppExit@CDataManager@@UAEXXZ		; CDataManager::DataManAppExit
PUBLIC	?GetDataObject@CDataManager@@UAEPAVIData@@ABK@Z	; CDataManager::GetDataObject
PUBLIC	?AddDataObject@CDataManager@@UAEXABKPAVIData@@@Z ; CDataManager::AddDataObject
PUBLIC	?RemoveDataObject@CDataManager@@UAEXABK@Z	; CDataManager::RemoveDataObject
PUBLIC	??_R0?AVIDataManager@@@8			; IDataManager `RTTI Type Descriptor'
PUBLIC	??_R1A@?0A@A@IDataManager@@8			; IDataManager::`RTTI Base Class Descriptor at (0,-1,0,0)'
PUBLIC	?clear@?$_Tree@V?$_Tmap_traits@KPAVIData@@U?$less@K@std@@V?$allocator@U?$pair@$$CBKPAVIData@@@std@@@3@$0A@@std@@@std@@QAEXXZ ; std::_Tree<std::_Tmap_traits<unsigned long,IData *,std::less<unsigned long>,std::allocator<std::pair<unsigned long const ,IData *> >,0> >::clear
PUBLIC	??0?$map@KPAVIData@@U?$less@K@std@@V?$allocator@U?$pair@$$CBKPAVIData@@@std@@@3@@std@@QAE@XZ ; std::map<unsigned long,IData *,std::less<unsigned long>,std::allocator<std::pair<unsigned long const ,IData *> > >::map<unsigned long,IData *,std::less<unsigned long>,std::allocator<std::pair<unsigned long const ,IData *> > >
PUBLIC	??1?$map@KPAVIData@@U?$less@K@std@@V?$allocator@U?$pair@$$CBKPAVIData@@@std@@@3@@std@@QAE@XZ ; std::map<unsigned long,IData *,std::less<unsigned long>,std::allocator<std::pair<unsigned long const ,IData *> > >::~map<unsigned long,IData *,std::less<unsigned long>,std::allocator<std::pair<unsigned long const ,IData *> > >
PUBLIC	??_7CDataManager@@6B@				; CDataManager::`vftable'
PUBLIC	??_GCDataManager@@UAEPAXI@Z			; CDataManager::`scalar deleting destructor'
EXTRN	__imp__InitializeCriticalSection@4:NEAR
EXTRN	__RTC_InitBase:NEAR
EXTRN	__RTC_Shutdown:NEAR
EXTRN	__RTC_CheckEsp:NEAR
EXTRN	__except_list:DWORD
EXTRN	___CxxFrameHandler:NEAR
EXTRN	??_ECDataManager@@UAEPAXI@Z:NEAR		; CDataManager::`vector deleting destructor'
EXTRN	??_7type_info@@6B@:QWORD			; type_info::`vftable'
;	COMDAT rtc$IMZ
; File d:\boxgit\playbox\playbox\dev\prj\playbox\src\core\cdatamanager.cpp
rtc$IMZ	SEGMENT
__RTC_InitBase.rtc$IMZ DD FLAT:__RTC_InitBase
rtc$IMZ	ENDS
;	COMDAT rtc$TMZ
rtc$TMZ	SEGMENT
__RTC_Shutdown.rtc$TMZ DD FLAT:__RTC_Shutdown
rtc$TMZ	ENDS
xdata$x	SEGMENT
$T190176 DD	0ffffffffH
	DD	FLAT:$L190167
	DD	00H
	DD	FLAT:$L190168
$T190172 DD	019930520H
	DD	02H
	DD	FLAT:$T190176
	DD	2 DUP(00H)
	DD	2 DUP(00H)
xdata$x	ENDS
;	COMDAT ??_7CDataManager@@6B@
CONST	SEGMENT
??_7CDataManager@@6B@ DD FLAT:??_R4CDataManager@@6B@	; CDataManager::`vftable'
	DD	FLAT:??_ECDataManager@@UAEPAXI@Z
	DD	FLAT:?DataManAppStart@CDataManager@@UAEXXZ
	DD	FLAT:?DataManAppExit@CDataManager@@UAEXXZ
	DD	FLAT:?GetDataObject@CDataManager@@UAEPAVIData@@ABK@Z
	DD	FLAT:?AddDataObject@CDataManager@@UAEXABKPAVIData@@@Z
	DD	FLAT:?RemoveDataObject@CDataManager@@UAEXABK@Z
CONST	ENDS
;	COMDAT ??_R4CDataManager@@6B@
rdata$r	SEGMENT
??_R4CDataManager@@6B@ DD 00H				; CDataManager::`RTTI Complete Object Locator'
	DD	00H
	DD	00H
	DD	FLAT:??_R0?AVCDataManager@@@8
	DD	FLAT:??_R3CDataManager@@8
rdata$r	ENDS
;	COMDAT ??_R0?AVCDataManager@@@8
_DATA	SEGMENT
??_R0?AVCDataManager@@@8 DD FLAT:??_7type_info@@6B@	; CDataManager `RTTI Type Descriptor'
	DD	00H
	DB	'.?AVCDataManager@@', 00H
_DATA	ENDS
;	COMDAT ??_R3CDataManager@@8
rdata$r	SEGMENT
??_R3CDataManager@@8 DD 00H				; CDataManager::`RTTI Class Hierarchy Descriptor'
	DD	00H
	DD	02H
	DD	FLAT:??_R2CDataManager@@8
rdata$r	ENDS
;	COMDAT ??_R2CDataManager@@8
rdata$r	SEGMENT
??_R2CDataManager@@8 DD FLAT:??_R1A@?0A@A@CDataManager@@8 ; CDataManager::`RTTI Base Class Array'
	DD	FLAT:??_R1A@?0A@A@IDataManager@@8
rdata$r	ENDS
;	COMDAT ??_R1A@?0A@A@CDataManager@@8
rdata$r	SEGMENT
??_R1A@?0A@A@CDataManager@@8 DD FLAT:??_R0?AVCDataManager@@@8 ; CDataManager::`RTTI Base Class Descriptor at (0,-1,0,0)'
	DD	01H
	DD	00H
	DD	0ffffffffH
	DD	00H
	DD	00H
rdata$r	ENDS
;	COMDAT ??_R1A@?0A@A@IDataManager@@8
rdata$r	SEGMENT
??_R1A@?0A@A@IDataManager@@8 DD FLAT:??_R0?AVIDataManager@@@8 ; IDataManager::`RTTI Base Class Descriptor at (0,-1,0,0)'
	DD	00H
	DD	00H
	DD	0ffffffffH
	DD	00H
	DD	00H
rdata$r	ENDS
;	COMDAT ??_R0?AVIDataManager@@@8
_DATA	SEGMENT
??_R0?AVIDataManager@@@8 DD FLAT:??_7type_info@@6B@	; IDataManager `RTTI Type Descriptor'
	DD	00H
	DB	'.?AVIDataManager@@', 00H
; Function compile flags: /Odt /RTCsu
_DATA	ENDS
_TEXT	SEGMENT
_this$ = -16						; size = 4
__$EHRec$ = -12						; size = 12
??0CDataManager@@QAE@XZ PROC NEAR			; CDataManager::CDataManager
; _this$ = ecx

; 7    : {

  00000	55		 push	 ebp
  00001	8b ec		 mov	 ebp, esp
  00003	6a ff		 push	 -1
  00005	68 00 00 00 00	 push	 __ehhandler$??0CDataManager@@QAE@XZ
  0000a	64 a1 00 00 00
	00		 mov	 eax, DWORD PTR fs:__except_list
  00010	50		 push	 eax
  00011	64 89 25 00 00
	00 00		 mov	 DWORD PTR fs:__except_list, esp
  00018	51		 push	 ecx
  00019	56		 push	 esi
  0001a	c7 45 f0 cc cc
	cc cc		 mov	 DWORD PTR [ebp-16], -858993460 ; ccccccccH
  00021	89 4d f0	 mov	 DWORD PTR _this$[ebp], ecx
  00024	8b 4d f0	 mov	 ecx, DWORD PTR _this$[ebp]
  00027	e8 00 00 00 00	 call	 ??0IDataManager@@QAE@XZ
  0002c	c7 45 fc 00 00
	00 00		 mov	 DWORD PTR __$EHRec$[ebp+8], 0
  00033	8b 45 f0	 mov	 eax, DWORD PTR _this$[ebp]
  00036	c7 00 00 00 00
	00		 mov	 DWORD PTR [eax], OFFSET FLAT:??_7CDataManager@@6B@
  0003c	8b 4d f0	 mov	 ecx, DWORD PTR _this$[ebp]
  0003f	83 c1 04	 add	 ecx, 4
  00042	e8 00 00 00 00	 call	 ??0?$map@KPAVIData@@U?$less@K@std@@V?$allocator@U?$pair@$$CBKPAVIData@@@std@@@3@@std@@QAE@XZ ; std::map<unsigned long,IData *,std::less<unsigned long>,std::allocator<std::pair<unsigned long const ,IData *> > >::map<unsigned long,IData *,std::less<unsigned long>,std::allocator<std::pair<unsigned long const ,IData *> > >
  00047	c6 45 fc 01	 mov	 BYTE PTR __$EHRec$[ebp+8], 1

; 8    : 	m_mapDataObject.clear();	

  0004b	8b 4d f0	 mov	 ecx, DWORD PTR _this$[ebp]
  0004e	83 c1 04	 add	 ecx, 4
  00051	e8 00 00 00 00	 call	 ?clear@?$_Tree@V?$_Tmap_traits@KPAVIData@@U?$less@K@std@@V?$allocator@U?$pair@$$CBKPAVIData@@@std@@@3@$0A@@std@@@std@@QAEXXZ ; std::_Tree<std::_Tmap_traits<unsigned long,IData *,std::less<unsigned long>,std::allocator<std::pair<unsigned long const ,IData *> >,0> >::clear

; 9    : 	InitializeCriticalSection(&m_csData);

  00056	8b 4d f0	 mov	 ecx, DWORD PTR _this$[ebp]
  00059	83 c1 10	 add	 ecx, 16			; 00000010H
  0005c	8b f4		 mov	 esi, esp
  0005e	51		 push	 ecx
  0005f	ff 15 00 00 00
	00		 call	 DWORD PTR __imp__InitializeCriticalSection@4
  00065	3b f4		 cmp	 esi, esp
  00067	e8 00 00 00 00	 call	 __RTC_CheckEsp

; 10   : }

  0006c	c7 45 fc ff ff
	ff ff		 mov	 DWORD PTR __$EHRec$[ebp+8], -1
  00073	8b 45 f0	 mov	 eax, DWORD PTR _this$[ebp]
  00076	8b 4d f4	 mov	 ecx, DWORD PTR __$EHRec$[ebp]
  00079	64 89 0d 00 00
	00 00		 mov	 DWORD PTR fs:__except_list, ecx
  00080	5e		 pop	 esi
  00081	83 c4 10	 add	 esp, 16			; 00000010H
  00084	3b ec		 cmp	 ebp, esp
  00086	e8 00 00 00 00	 call	 __RTC_CheckEsp
  0008b	8b e5		 mov	 esp, ebp
  0008d	5d		 pop	 ebp
  0008e	c3		 ret	 0
_TEXT	ENDS
text$x	SEGMENT
$L190167:
  00000	8b 4d f0	 mov	 ecx, DWORD PTR _this$[ebp]
  00003	e9 00 00 00 00	 jmp	 ??1IDataManager@@UAE@XZ	; IDataManager::~IDataManager
$L190168:
  00008	8b 4d f0	 mov	 ecx, DWORD PTR _this$[ebp]
  0000b	83 c1 04	 add	 ecx, 4
  0000e	e9 00 00 00 00	 jmp	 ??1?$map@KPAVIData@@U?$less@K@std@@V?$allocator@U?$pair@$$CBKPAVIData@@@std@@@3@@std@@QAE@XZ
__ehhandler$??0CDataManager@@QAE@XZ:
  00013	b8 00 00 00 00	 mov	 eax, OFFSET FLAT:$T190172
  00018	e9 00 00 00 00	 jmp	 ___CxxFrameHandler
text$x	ENDS
??0CDataManager@@QAE@XZ ENDP				; CDataManager::CDataManager
PUBLIC	??1CDataManager@@UAE@XZ				; CDataManager::~CDataManager
EXTRN	??3@YAXPAX@Z:NEAR				; operator delete
; Function compile flags: /Odt /RTCsu
;	COMDAT ??_GCDataManager@@UAEPAXI@Z
_TEXT	SEGMENT
_this$ = -4						; size = 4
___flags$ = 8						; size = 4
??_GCDataManager@@UAEPAXI@Z PROC NEAR			; CDataManager::`scalar deleting destructor', COMDAT
; _this$ = ecx
  00000	55		 push	 ebp
  00001	8b ec		 mov	 ebp, esp
  00003	51		 push	 ecx
  00004	c7 45 fc cc cc
	cc cc		 mov	 DWORD PTR [ebp-4], -858993460 ; ccccccccH
  0000b	89 4d fc	 mov	 DWORD PTR _this$[ebp], ecx
  0000e	8b 4d fc	 mov	 ecx, DWORD PTR _this$[ebp]
  00011	e8 00 00 00 00	 call	 ??1CDataManager@@UAE@XZ	; CDataManager::~CDataManager
  00016	8b 45 08	 mov	 eax, DWORD PTR ___flags$[ebp]
  00019	83 e0 01	 and	 eax, 1
  0001c	74 0c		 je	 SHORT $L188738
  0001e	8b 4d fc	 mov	 ecx, DWORD PTR _this$[ebp]
  00021	51		 push	 ecx
  00022	e8 00 00 00 00	 call	 ??3@YAXPAX@Z		; operator delete
  00027	83 c4 04	 add	 esp, 4
$L188738:
  0002a	8b 45 fc	 mov	 eax, DWORD PTR _this$[ebp]
  0002d	83 c4 04	 add	 esp, 4
  00030	3b ec		 cmp	 ebp, esp
  00032	e8 00 00 00 00	 call	 __RTC_CheckEsp
  00037	8b e5		 mov	 esp, ebp
  00039	5d		 pop	 ebp
  0003a	c2 04 00	 ret	 4
??_GCDataManager@@UAEPAXI@Z ENDP			; CDataManager::`scalar deleting destructor'
_TEXT	ENDS
PUBLIC	??_7IDataManager@@6B@				; IDataManager::`vftable'
PUBLIC	??_GIDataManager@@UAEPAXI@Z			; IDataManager::`scalar deleting destructor'
PUBLIC	??_R4IDataManager@@6B@				; IDataManager::`RTTI Complete Object Locator'
PUBLIC	??_R3IDataManager@@8				; IDataManager::`RTTI Class Hierarchy Descriptor'
PUBLIC	??_R2IDataManager@@8				; IDataManager::`RTTI Base Class Array'
EXTRN	__purecall:NEAR
EXTRN	??_EIDataManager@@UAEPAXI@Z:NEAR		; IDataManager::`vector deleting destructor'
;	COMDAT ??_7IDataManager@@6B@
CONST	SEGMENT
??_7IDataManager@@6B@ DD FLAT:??_R4IDataManager@@6B@	; IDataManager::`vftable'
	DD	FLAT:??_EIDataManager@@UAEPAXI@Z
	DD	FLAT:__purecall
	DD	FLAT:__purecall
	DD	FLAT:__purecall
	DD	FLAT:__purecall
	DD	FLAT:__purecall
CONST	ENDS
;	COMDAT ??_R4IDataManager@@6B@
rdata$r	SEGMENT
??_R4IDataManager@@6B@ DD 00H				; IDataManager::`RTTI Complete Object Locator'
	DD	00H
	DD	00H
	DD	FLAT:??_R0?AVIDataManager@@@8
	DD	FLAT:??_R3IDataManager@@8
rdata$r	ENDS
;	COMDAT ??_R3IDataManager@@8
rdata$r	SEGMENT
??_R3IDataManager@@8 DD 00H				; IDataManager::`RTTI Class Hierarchy Descriptor'
	DD	00H
	DD	01H
	DD	FLAT:??_R2IDataManager@@8
rdata$r	ENDS
;	COMDAT ??_R2IDataManager@@8
rdata$r	SEGMENT
??_R2IDataManager@@8 DD FLAT:??_R1A@?0A@A@IDataManager@@8 ; IDataManager::`RTTI Base Class Array'
; Function compile flags: /Odt /RTCsu
rdata$r	ENDS
;	COMDAT ??0IDataManager@@QAE@XZ
_TEXT	SEGMENT
_this$ = -4						; size = 4
??0IDataManager@@QAE@XZ PROC NEAR			; IDataManager::IDataManager, COMDAT
; _this$ = ecx
  00000	55		 push	 ebp
  00001	8b ec		 mov	 ebp, esp
  00003	51		 push	 ecx
  00004	c7 45 fc cc cc
	cc cc		 mov	 DWORD PTR [ebp-4], -858993460 ; ccccccccH
  0000b	89 4d fc	 mov	 DWORD PTR _this$[ebp], ecx
  0000e	8b 45 fc	 mov	 eax, DWORD PTR _this$[ebp]
  00011	c7 00 00 00 00
	00		 mov	 DWORD PTR [eax], OFFSET FLAT:??_7IDataManager@@6B@
  00017	8b 45 fc	 mov	 eax, DWORD PTR _this$[ebp]
  0001a	8b e5		 mov	 esp, ebp
  0001c	5d		 pop	 ebp
  0001d	c3		 ret	 0
??0IDataManager@@QAE@XZ ENDP				; IDataManager::IDataManager
_TEXT	ENDS
PUBLIC	??1?$_Tree@V?$_Tmap_traits@KPAVIData@@U?$less@K@std@@V?$allocator@U?$pair@$$CBKPAVIData@@@std@@@3@$0A@@std@@@std@@QAE@XZ ; std::_Tree<std::_Tmap_traits<unsigned long,IData *,std::less<unsigned long>,std::allocator<std::pair<unsigned long const ,IData *> >,0> >::~_Tree<std::_Tmap_traits<unsigned long,IData *,std::less<unsigned long>,std::allocator<std::pair<unsigned long const ,IData *> >,0> >
; Function compile flags: /Odt /RTCsu
;	COMDAT ??1?$map@KPAVIData@@U?$less@K@std@@V?$allocator@U?$pair@$$CBKPAVIData@@@std@@@3@@std@@QAE@XZ
_TEXT	SEGMENT
_this$ = -4						; size = 4
??1?$map@KPAVIData@@U?$less@K@std@@V?$allocator@U?$pair@$$CBKPAVIData@@@std@@@3@@std@@QAE@XZ PROC NEAR ; std::map<unsigned long,IData *,std::less<unsigned long>,std::allocator<std::pair<unsigned long const ,IData *> > >::~map<unsigned long,IData *,std::less<unsigned long>,std::allocator<std::pair<unsigned long const ,IData *> > >, COMDAT
; _this$ = ecx
  00000	55		 push	 ebp
  00001	8b ec		 mov	 ebp, esp
  00003	51		 push	 ecx
  00004	c7 45 fc cc cc
	cc cc		 mov	 DWORD PTR [ebp-4], -858993460 ; ccccccccH
  0000b	89 4d fc	 mov	 DWORD PTR _this$[ebp], ecx
  0000e	8b 4d fc	 mov	 ecx, DWORD PTR _this$[ebp]
  00011	e8 00 00 00 00	 call	 ??1?$_Tree@V?$_Tmap_traits@KPAVIData@@U?$less@K@std@@V?$allocator@U?$pair@$$CBKPAVIData@@@std@@@3@$0A@@std@@@std@@QAE@XZ ; std::_Tree<std::_Tmap_traits<unsigned long,IData *,std::less<unsigned long>,std::allocator<std::pair<unsigned long const ,IData *> >,0> >::~_Tree<std::_Tmap_traits<unsigned long,IData *,std::less<unsigned long>,std::allocator<std::pair<unsigned long const ,IData *> >,0> >
  00016	83 c4 04	 add	 esp, 4
  00019	3b ec		 cmp	 ebp, esp
  0001b	e8 00 00 00 00	 call	 __RTC_CheckEsp
  00020	8b e5		 mov	 esp, ebp
  00022	5d		 pop	 ebp
  00023	c3		 ret	 0
??1?$map@KPAVIData@@U?$less@K@std@@V?$allocator@U?$pair@$$CBKPAVIData@@@std@@@3@@std@@QAE@XZ ENDP ; std::map<unsigned long,IData *,std::less<unsigned long>,std::allocator<std::pair<unsigned long const ,IData *> > >::~map<unsigned long,IData *,std::less<unsigned long>,std::allocator<std::pair<unsigned long const ,IData *> > >
_TEXT	ENDS
EXTRN	__imp__DeleteCriticalSection@4:NEAR
xdata$x	SEGMENT
$T190188 DD	0ffffffffH
	DD	FLAT:$L190183
$T190186 DD	019930520H
	DD	01H
	DD	FLAT:$T190188
	DD	2 DUP(00H)
	DD	2 DUP(00H)
; Function compile flags: /Odt /RTCsu
xdata$x	ENDS
_TEXT	SEGMENT
_this$ = -16						; size = 4
__$EHRec$ = -12						; size = 12
??1CDataManager@@UAE@XZ PROC NEAR			; CDataManager::~CDataManager
; _this$ = ecx

; 13   : {

  00090	55		 push	 ebp
  00091	8b ec		 mov	 ebp, esp
  00093	6a ff		 push	 -1
  00095	68 00 00 00 00	 push	 __ehhandler$??1CDataManager@@UAE@XZ
  0009a	64 a1 00 00 00
	00		 mov	 eax, DWORD PTR fs:__except_list
  000a0	50		 push	 eax
  000a1	64 89 25 00 00
	00 00		 mov	 DWORD PTR fs:__except_list, esp
  000a8	51		 push	 ecx
  000a9	56		 push	 esi
  000aa	c7 45 f0 cc cc
	cc cc		 mov	 DWORD PTR [ebp-16], -858993460 ; ccccccccH
  000b1	89 4d f0	 mov	 DWORD PTR _this$[ebp], ecx
  000b4	8b 45 f0	 mov	 eax, DWORD PTR _this$[ebp]
  000b7	c7 00 00 00 00
	00		 mov	 DWORD PTR [eax], OFFSET FLAT:??_7CDataManager@@6B@
  000bd	c7 45 fc 00 00
	00 00		 mov	 DWORD PTR __$EHRec$[ebp+8], 0

; 14   : 	DeleteCriticalSection(&m_csData);

  000c4	8b 4d f0	 mov	 ecx, DWORD PTR _this$[ebp]
  000c7	83 c1 10	 add	 ecx, 16			; 00000010H
  000ca	8b f4		 mov	 esi, esp
  000cc	51		 push	 ecx
  000cd	ff 15 00 00 00
	00		 call	 DWORD PTR __imp__DeleteCriticalSection@4
  000d3	3b f4		 cmp	 esi, esp
  000d5	e8 00 00 00 00	 call	 __RTC_CheckEsp

; 15   : }

  000da	8b 4d f0	 mov	 ecx, DWORD PTR _this$[ebp]
  000dd	83 c1 04	 add	 ecx, 4
  000e0	e8 00 00 00 00	 call	 ??1?$map@KPAVIData@@U?$less@K@std@@V?$allocator@U?$pair@$$CBKPAVIData@@@std@@@3@@std@@QAE@XZ
  000e5	c7 45 fc ff ff
	ff ff		 mov	 DWORD PTR __$EHRec$[ebp+8], -1
  000ec	8b 4d f0	 mov	 ecx, DWORD PTR _this$[ebp]
  000ef	e8 00 00 00 00	 call	 ??1IDataManager@@UAE@XZ	; IDataManager::~IDataManager
  000f4	8b 4d f4	 mov	 ecx, DWORD PTR __$EHRec$[ebp]
  000f7	64 89 0d 00 00
	00 00		 mov	 DWORD PTR fs:__except_list, ecx
  000fe	5e		 pop	 esi
  000ff	83 c4 10	 add	 esp, 16			; 00000010H
  00102	3b ec		 cmp	 ebp, esp
  00104	e8 00 00 00 00	 call	 __RTC_CheckEsp
  00109	8b e5		 mov	 esp, ebp
  0010b	5d		 pop	 ebp
  0010c	c3		 ret	 0
_TEXT	ENDS
text$x	SEGMENT
$L190183:
  0001d	8b 4d f0	 mov	 ecx, DWORD PTR _this$[ebp]
  00020	e9 00 00 00 00	 jmp	 ??1IDataManager@@UAE@XZ	; IDataManager::~IDataManager
__ehhandler$??1CDataManager@@UAE@XZ:
  00025	b8 00 00 00 00	 mov	 eax, OFFSET FLAT:$T190186
  0002a	e9 00 00 00 00	 jmp	 ___CxxFrameHandler
text$x	ENDS
??1CDataManager@@UAE@XZ ENDP				; CDataManager::~CDataManager
EXTRN	__imp_??0?$basic_string@DU?$char_traits@D@std@@V?$allocator@D@2@@std@@QAE@PBD@Z:NEAR
EXTRN	__imp_??1?$basic_string@DU?$char_traits@D@std@@V?$allocator@D@2@@std@@QAE@XZ:NEAR
EXTRN	__imp_?YL_Log@@YAXABV?$basic_string@DU?$char_traits@D@std@@V?$allocator@D@2@@std@@H0PBDZZ:NEAR
EXTRN	?Init@CHTTPControl@@SAXXZ:NEAR			; CHTTPControl::Init
xdata$x	SEGMENT
$T190201 DD	0ffffffffH
	DD	FLAT:$L190194
	DD	00H
	DD	FLAT:$L190195
	DD	0ffffffffH
	DD	FLAT:$L190196
	DD	02H
	DD	FLAT:$L190197
$T190199 DD	019930520H
	DD	04H
	DD	FLAT:$T190201
	DD	2 DUP(00H)
	DD	2 DUP(00H)
; Function compile flags: /Odt /RTCsu
xdata$x	ENDS
_TEXT	SEGMENT
$T190193 = -128						; size = 28
$T190192 = -100						; size = 28
$T190191 = -72						; size = 28
$T190190 = -44						; size = 28
_this$ = -16						; size = 4
__$EHRec$ = -12						; size = 12
?DataManAppStart@CDataManager@@UAEXXZ PROC NEAR		; CDataManager::DataManAppStart
; _this$ = ecx

; 18   : {	

  00110	55		 push	 ebp
  00111	8b ec		 mov	 ebp, esp
  00113	6a ff		 push	 -1
  00115	68 00 00 00 00	 push	 __ehhandler$?DataManAppStart@CDataManager@@UAEXXZ
  0011a	64 a1 00 00 00
	00		 mov	 eax, DWORD PTR fs:__except_list
  00120	50		 push	 eax
  00121	64 89 25 00 00
	00 00		 mov	 DWORD PTR fs:__except_list, esp
  00128	83 ec 74	 sub	 esp, 116		; 00000074H
  0012b	56		 push	 esi
  0012c	57		 push	 edi
  0012d	51		 push	 ecx
  0012e	8d 7d 80	 lea	 edi, DWORD PTR [ebp-128]
  00131	b9 1d 00 00 00	 mov	 ecx, 29			; 0000001dH
  00136	b8 cc cc cc cc	 mov	 eax, -858993460		; ccccccccH
  0013b	f3 ab		 rep stosd
  0013d	59		 pop	 ecx
  0013e	89 4d f0	 mov	 DWORD PTR _this$[ebp], ecx

; 19   : 	YL_Log( STR_LOG_FILE ,LOG_NOTICE,"DataManager","DataManAppStart======IN" );

  00141	8b f4		 mov	 esi, esp
  00143	68 00 00 00 00	 push	 OFFSET FLAT:$SG188752
  00148	8d 4d d4	 lea	 ecx, DWORD PTR $T190190[ebp]
  0014b	ff 15 00 00 00
	00		 call	 DWORD PTR __imp_??0?$basic_string@DU?$char_traits@D@std@@V?$allocator@D@2@@std@@QAE@PBD@Z
  00151	3b f4		 cmp	 esi, esp
  00153	e8 00 00 00 00	 call	 __RTC_CheckEsp
  00158	c7 45 fc 00 00
	00 00		 mov	 DWORD PTR __$EHRec$[ebp+8], 0
  0015f	8b f4		 mov	 esi, esp
  00161	68 00 00 00 00	 push	 OFFSET FLAT:$SG188753
  00166	8d 4d b8	 lea	 ecx, DWORD PTR $T190191[ebp]
  00169	ff 15 00 00 00
	00		 call	 DWORD PTR __imp_??0?$basic_string@DU?$char_traits@D@std@@V?$allocator@D@2@@std@@QAE@PBD@Z
  0016f	3b f4		 cmp	 esi, esp
  00171	e8 00 00 00 00	 call	 __RTC_CheckEsp
  00176	c6 45 fc 01	 mov	 BYTE PTR __$EHRec$[ebp+8], 1
  0017a	8b f4		 mov	 esi, esp
  0017c	68 00 00 00 00	 push	 OFFSET FLAT:$SG188751
  00181	8d 45 d4	 lea	 eax, DWORD PTR $T190190[ebp]
  00184	50		 push	 eax
  00185	6a 01		 push	 1
  00187	8d 4d b8	 lea	 ecx, DWORD PTR $T190191[ebp]
  0018a	51		 push	 ecx
  0018b	ff 15 00 00 00
	00		 call	 DWORD PTR __imp_?YL_Log@@YAXABV?$basic_string@DU?$char_traits@D@std@@V?$allocator@D@2@@std@@H0PBDZZ
  00191	83 c4 10	 add	 esp, 16			; 00000010H
  00194	3b f4		 cmp	 esi, esp
  00196	e8 00 00 00 00	 call	 __RTC_CheckEsp
  0019b	c6 45 fc 00	 mov	 BYTE PTR __$EHRec$[ebp+8], 0
  0019f	8b f4		 mov	 esi, esp
  001a1	8d 4d b8	 lea	 ecx, DWORD PTR $T190191[ebp]
  001a4	ff 15 00 00 00
	00		 call	 DWORD PTR __imp_??1?$basic_string@DU?$char_traits@D@std@@V?$allocator@D@2@@std@@QAE@XZ
  001aa	3b f4		 cmp	 esi, esp
  001ac	e8 00 00 00 00	 call	 __RTC_CheckEsp
  001b1	c7 45 fc ff ff
	ff ff		 mov	 DWORD PTR __$EHRec$[ebp+8], -1
  001b8	8b f4		 mov	 esi, esp
  001ba	8d 4d d4	 lea	 ecx, DWORD PTR $T190190[ebp]
  001bd	ff 15 00 00 00
	00		 call	 DWORD PTR __imp_??1?$basic_string@DU?$char_traits@D@std@@V?$allocator@D@2@@std@@QAE@XZ
  001c3	3b f4		 cmp	 esi, esp
  001c5	e8 00 00 00 00	 call	 __RTC_CheckEsp

; 20   : 	CHTTPControl::Init();

  001ca	e8 00 00 00 00	 call	 ?Init@CHTTPControl@@SAXXZ ; CHTTPControl::Init

; 21   : 	YL_Log( STR_LOG_FILE ,LOG_NOTICE,"DataManager","DataManAppStart======OUT" );

  001cf	8b f4		 mov	 esi, esp
  001d1	68 00 00 00 00	 push	 OFFSET FLAT:$SG188757
  001d6	8d 4d 9c	 lea	 ecx, DWORD PTR $T190192[ebp]
  001d9	ff 15 00 00 00
	00		 call	 DWORD PTR __imp_??0?$basic_string@DU?$char_traits@D@std@@V?$allocator@D@2@@std@@QAE@PBD@Z
  001df	3b f4		 cmp	 esi, esp
  001e1	e8 00 00 00 00	 call	 __RTC_CheckEsp
  001e6	c7 45 fc 02 00
	00 00		 mov	 DWORD PTR __$EHRec$[ebp+8], 2
  001ed	8b f4		 mov	 esi, esp
  001ef	68 00 00 00 00	 push	 OFFSET FLAT:$SG188758
  001f4	8d 4d 80	 lea	 ecx, DWORD PTR $T190193[ebp]
  001f7	ff 15 00 00 00
	00		 call	 DWORD PTR __imp_??0?$basic_string@DU?$char_traits@D@std@@V?$allocator@D@2@@std@@QAE@PBD@Z
  001fd	3b f4		 cmp	 esi, esp
  001ff	e8 00 00 00 00	 call	 __RTC_CheckEsp
  00204	c6 45 fc 03	 mov	 BYTE PTR __$EHRec$[ebp+8], 3
  00208	8b f4		 mov	 esi, esp
  0020a	68 00 00 00 00	 push	 OFFSET FLAT:$SG188756
  0020f	8d 55 9c	 lea	 edx, DWORD PTR $T190192[ebp]
  00212	52		 push	 edx
  00213	6a 01		 push	 1
  00215	8d 45 80	 lea	 eax, DWORD PTR $T190193[ebp]
  00218	50		 push	 eax
  00219	ff 15 00 00 00
	00		 call	 DWORD PTR __imp_?YL_Log@@YAXABV?$basic_string@DU?$char_traits@D@std@@V?$allocator@D@2@@std@@H0PBDZZ
  0021f	83 c4 10	 add	 esp, 16			; 00000010H
  00222	3b f4		 cmp	 esi, esp
  00224	e8 00 00 00 00	 call	 __RTC_CheckEsp
  00229	c6 45 fc 02	 mov	 BYTE PTR __$EHRec$[ebp+8], 2
  0022d	8b f4		 mov	 esi, esp
  0022f	8d 4d 80	 lea	 ecx, DWORD PTR $T190193[ebp]
  00232	ff 15 00 00 00
	00		 call	 DWORD PTR __imp_??1?$basic_string@DU?$char_traits@D@std@@V?$allocator@D@2@@std@@QAE@XZ
  00238	3b f4		 cmp	 esi, esp
  0023a	e8 00 00 00 00	 call	 __RTC_CheckEsp
  0023f	c7 45 fc ff ff
	ff ff		 mov	 DWORD PTR __$EHRec$[ebp+8], -1
  00246	8b f4		 mov	 esi, esp
  00248	8d 4d 9c	 lea	 ecx, DWORD PTR $T190192[ebp]
  0024b	ff 15 00 00 00
	00		 call	 DWORD PTR __imp_??1?$basic_string@DU?$char_traits@D@std@@V?$allocator@D@2@@std@@QAE@XZ
  00251	3b f4		 cmp	 esi, esp
  00253	e8 00 00 00 00	 call	 __RTC_CheckEsp

; 22   : }

  00258	8b 4d f4	 mov	 ecx, DWORD PTR __$EHRec$[ebp]
  0025b	64 89 0d 00 00
	00 00		 mov	 DWORD PTR fs:__except_list, ecx
  00262	5f		 pop	 edi
  00263	5e		 pop	 esi
  00264	81 c4 80 00 00
	00		 add	 esp, 128		; 00000080H
  0026a	3b ec		 cmp	 ebp, esp
  0026c	e8 00 00 00 00	 call	 __RTC_CheckEsp
  00271	8b e5		 mov	 esp, ebp
  00273	5d		 pop	 ebp
  00274	c3		 ret	 0
_TEXT	ENDS
text$x	SEGMENT
$L190194:
  0002f	8b f4		 mov	 esi, esp
  00031	8d 4d d4	 lea	 ecx, DWORD PTR $T190190[ebp]
  00034	ff 15 00 00 00
	00		 call	 DWORD PTR __imp_??1?$basic_string@DU?$char_traits@D@std@@V?$allocator@D@2@@std@@QAE@XZ
  0003a	3b f4		 cmp	 esi, esp
  0003c	e9 00 00 00 00	 jmp	 __RTC_CheckEsp
$L190195:
  00041	8b f4		 mov	 esi, esp
  00043	8d 4d b8	 lea	 ecx, DWORD PTR $T190191[ebp]
  00046	ff 15 00 00 00
	00		 call	 DWORD PTR __imp_??1?$basic_string@DU?$char_traits@D@std@@V?$allocator@D@2@@std@@QAE@XZ
  0004c	3b f4		 cmp	 esi, esp
  0004e	e9 00 00 00 00	 jmp	 __RTC_CheckEsp
$L190196:
  00053	8b f4		 mov	 esi, esp
  00055	8d 4d 9c	 lea	 ecx, DWORD PTR $T190192[ebp]
  00058	ff 15 00 00 00
	00		 call	 DWORD PTR __imp_??1?$basic_string@DU?$char_traits@D@std@@V?$allocator@D@2@@std@@QAE@XZ
  0005e	3b f4		 cmp	 esi, esp
  00060	e9 00 00 00 00	 jmp	 __RTC_CheckEsp
$L190197:
  00065	8b f4		 mov	 esi, esp
  00067	8d 4d 80	 lea	 ecx, DWORD PTR $T190193[ebp]
  0006a	ff 15 00 00 00
	00		 call	 DWORD PTR __imp_??1?$basic_string@DU?$char_traits@D@std@@V?$allocator@D@2@@std@@QAE@XZ
  00070	3b f4		 cmp	 esi, esp
  00072	e9 00 00 00 00	 jmp	 __RTC_CheckEsp
__ehhandler$?DataManAppStart@CDataManager@@UAEXXZ:
  00077	b8 00 00 00 00	 mov	 eax, OFFSET FLAT:$T190199
  0007c	e9 00 00 00 00	 jmp	 ___CxxFrameHandler
text$x	ENDS
?DataManAppStart@CDataManager@@UAEXXZ ENDP		; CDataManager::DataManAppStart
PUBLIC	??9const_iterator@?$_Tree@V?$_Tmap_traits@KPAVIData@@U?$less@K@std@@V?$allocator@U?$pair@$$CBKPAVIData@@@std@@@3@$0A@@std@@@std@@QBE_NABV012@@Z ; std::_Tree<std::_Tmap_traits<unsigned long,IData *,std::less<unsigned long>,std::allocator<std::pair<unsigned long const ,IData *> >,0> >::const_iterator::operator!=
PUBLIC	??Citerator@?$_Tree@V?$_Tmap_traits@KPAVIData@@U?$less@K@std@@V?$allocator@U?$pair@$$CBKPAVIData@@@std@@@3@$0A@@std@@@std@@QBEPAU?$pair@$$CBKPAVIData@@@2@XZ ; std::_Tree<std::_Tmap_traits<unsigned long,IData *,std::less<unsigned long>,std::allocator<std::pair<unsigned long const ,IData *> >,0> >::iterator::operator->
PUBLIC	??Eiterator@?$_Tree@V?$_Tmap_traits@KPAVIData@@U?$less@K@std@@V?$allocator@U?$pair@$$CBKPAVIData@@@std@@@3@$0A@@std@@@std@@QAE?AV012@H@Z ; std::_Tree<std::_Tmap_traits<unsigned long,IData *,std::less<unsigned long>,std::allocator<std::pair<unsigned long const ,IData *> >,0> >::iterator::operator++
PUBLIC	?begin@?$_Tree@V?$_Tmap_traits@KPAVIData@@U?$less@K@std@@V?$allocator@U?$pair@$$CBKPAVIData@@@std@@@3@$0A@@std@@@std@@QAE?AViterator@12@XZ ; std::_Tree<std::_Tmap_traits<unsigned long,IData *,std::less<unsigned long>,std::allocator<std::pair<unsigned long const ,IData *> >,0> >::begin
PUBLIC	?end@?$_Tree@V?$_Tmap_traits@KPAVIData@@U?$less@K@std@@V?$allocator@U?$pair@$$CBKPAVIData@@@std@@@3@$0A@@std@@@std@@QAE?AViterator@12@XZ ; std::_Tree<std::_Tmap_traits<unsigned long,IData *,std::less<unsigned long>,std::allocator<std::pair<unsigned long const ,IData *> >,0> >::end
EXTRN	@_RTC_CheckStackVars@8:NEAR
EXTRN	?Close@CHTTPControl@@SAXXZ:NEAR			; CHTTPControl::Close
xdata$x	SEGMENT
$T190220 DD	0ffffffffH
	DD	FLAT:$L190209
	DD	00H
	DD	FLAT:$L190210
	DD	0ffffffffH
	DD	FLAT:$L190211
	DD	02H
	DD	FLAT:$L190212
$T190214 DD	019930520H
	DD	04H
	DD	FLAT:$T190220
	DD	2 DUP(00H)
	DD	2 DUP(00H)
; Function compile flags: /Odt /RTCsu
xdata$x	ENDS
_TEXT	SEGMENT
tv132 = -156						; size = 4
$T190208 = -152						; size = 28
$T190207 = -124						; size = 28
$T190206 = -96						; size = 4
$T190205 = -92						; size = 4
$T190204 = -88						; size = 28
$T190203 = -60						; size = 28
_d$188856 = -32						; size = 4
_it1$188849 = -24					; size = 4
_this$ = -16						; size = 4
__$EHRec$ = -12						; size = 12
?DataManAppExit@CDataManager@@UAEXXZ PROC NEAR		; CDataManager::DataManAppExit
; _this$ = ecx

; 25   : {

  00280	55		 push	 ebp
  00281	8b ec		 mov	 ebp, esp
  00283	6a ff		 push	 -1
  00285	68 00 00 00 00	 push	 __ehhandler$?DataManAppExit@CDataManager@@UAEXXZ
  0028a	64 a1 00 00 00
	00		 mov	 eax, DWORD PTR fs:__except_list
  00290	50		 push	 eax
  00291	64 89 25 00 00
	00 00		 mov	 DWORD PTR fs:__except_list, esp
  00298	81 ec 90 00 00
	00		 sub	 esp, 144		; 00000090H
  0029e	56		 push	 esi
  0029f	57		 push	 edi
  002a0	51		 push	 ecx
  002a1	8d bd 64 ff ff
	ff		 lea	 edi, DWORD PTR [ebp-156]
  002a7	b9 24 00 00 00	 mov	 ecx, 36			; 00000024H
  002ac	b8 cc cc cc cc	 mov	 eax, -858993460		; ccccccccH
  002b1	f3 ab		 rep stosd
  002b3	59		 pop	 ecx
  002b4	89 4d f0	 mov	 DWORD PTR _this$[ebp], ecx

; 26   : 	YL_Log( STR_LOG_FILE,LOG_NOTICE,"DataManager","DataManAppExit======IN" );

  002b7	8b f4		 mov	 esi, esp
  002b9	68 00 00 00 00	 push	 OFFSET FLAT:$SG188765
  002be	8d 4d c4	 lea	 ecx, DWORD PTR $T190203[ebp]
  002c1	ff 15 00 00 00
	00		 call	 DWORD PTR __imp_??0?$basic_string@DU?$char_traits@D@std@@V?$allocator@D@2@@std@@QAE@PBD@Z
  002c7	3b f4		 cmp	 esi, esp
  002c9	e8 00 00 00 00	 call	 __RTC_CheckEsp
  002ce	c7 45 fc 00 00
	00 00		 mov	 DWORD PTR __$EHRec$[ebp+8], 0
  002d5	8b f4		 mov	 esi, esp
  002d7	68 00 00 00 00	 push	 OFFSET FLAT:$SG188766
  002dc	8d 4d a8	 lea	 ecx, DWORD PTR $T190204[ebp]
  002df	ff 15 00 00 00
	00		 call	 DWORD PTR __imp_??0?$basic_string@DU?$char_traits@D@std@@V?$allocator@D@2@@std@@QAE@PBD@Z
  002e5	3b f4		 cmp	 esi, esp
  002e7	e8 00 00 00 00	 call	 __RTC_CheckEsp
  002ec	c6 45 fc 01	 mov	 BYTE PTR __$EHRec$[ebp+8], 1
  002f0	8b f4		 mov	 esi, esp
  002f2	68 00 00 00 00	 push	 OFFSET FLAT:$SG188764
  002f7	8d 45 c4	 lea	 eax, DWORD PTR $T190203[ebp]
  002fa	50		 push	 eax
  002fb	6a 01		 push	 1
  002fd	8d 4d a8	 lea	 ecx, DWORD PTR $T190204[ebp]
  00300	51		 push	 ecx
  00301	ff 15 00 00 00
	00		 call	 DWORD PTR __imp_?YL_Log@@YAXABV?$basic_string@DU?$char_traits@D@std@@V?$allocator@D@2@@std@@H0PBDZZ
  00307	83 c4 10	 add	 esp, 16			; 00000010H
  0030a	3b f4		 cmp	 esi, esp
  0030c	e8 00 00 00 00	 call	 __RTC_CheckEsp
  00311	c6 45 fc 00	 mov	 BYTE PTR __$EHRec$[ebp+8], 0
  00315	8b f4		 mov	 esi, esp
  00317	8d 4d a8	 lea	 ecx, DWORD PTR $T190204[ebp]
  0031a	ff 15 00 00 00
	00		 call	 DWORD PTR __imp_??1?$basic_string@DU?$char_traits@D@std@@V?$allocator@D@2@@std@@QAE@XZ
  00320	3b f4		 cmp	 esi, esp
  00322	e8 00 00 00 00	 call	 __RTC_CheckEsp
  00327	c7 45 fc ff ff
	ff ff		 mov	 DWORD PTR __$EHRec$[ebp+8], -1
  0032e	8b f4		 mov	 esi, esp
  00330	8d 4d c4	 lea	 ecx, DWORD PTR $T190203[ebp]
  00333	ff 15 00 00 00
	00		 call	 DWORD PTR __imp_??1?$basic_string@DU?$char_traits@D@std@@V?$allocator@D@2@@std@@QAE@XZ
  00339	3b f4		 cmp	 esi, esp
  0033b	e8 00 00 00 00	 call	 __RTC_CheckEsp

; 27   : 	for( map<DWORD,IData*>::iterator it1 = m_mapDataObject.begin();

  00340	8d 55 e8	 lea	 edx, DWORD PTR _it1$188849[ebp]
  00343	52		 push	 edx
  00344	8b 4d f0	 mov	 ecx, DWORD PTR _this$[ebp]
  00347	83 c1 04	 add	 ecx, 4
  0034a	e8 00 00 00 00	 call	 ?begin@?$_Tree@V?$_Tmap_traits@KPAVIData@@U?$less@K@std@@V?$allocator@U?$pair@$$CBKPAVIData@@@std@@@3@$0A@@std@@@std@@QAE?AViterator@12@XZ ; std::_Tree<std::_Tmap_traits<unsigned long,IData *,std::less<unsigned long>,std::allocator<std::pair<unsigned long const ,IData *> >,0> >::begin

; 28   : 		it1 != m_mapDataObject.end(); it1++ )

  0034f	eb 0e		 jmp	 SHORT $L188853
$L188854:
  00351	6a 00		 push	 0
  00353	8d 45 a4	 lea	 eax, DWORD PTR $T190205[ebp]
  00356	50		 push	 eax
  00357	8d 4d e8	 lea	 ecx, DWORD PTR _it1$188849[ebp]
  0035a	e8 00 00 00 00	 call	 ??Eiterator@?$_Tree@V?$_Tmap_traits@KPAVIData@@U?$less@K@std@@V?$allocator@U?$pair@$$CBKPAVIData@@@std@@@3@$0A@@std@@@std@@QAE?AV012@H@Z ; std::_Tree<std::_Tmap_traits<unsigned long,IData *,std::less<unsigned long>,std::allocator<std::pair<unsigned long const ,IData *> >,0> >::iterator::operator++
$L188853:
  0035f	8d 4d a0	 lea	 ecx, DWORD PTR $T190206[ebp]
  00362	51		 push	 ecx
  00363	8b 4d f0	 mov	 ecx, DWORD PTR _this$[ebp]
  00366	83 c1 04	 add	 ecx, 4
  00369	e8 00 00 00 00	 call	 ?end@?$_Tree@V?$_Tmap_traits@KPAVIData@@U?$less@K@std@@V?$allocator@U?$pair@$$CBKPAVIData@@@std@@@3@$0A@@std@@@std@@QAE?AViterator@12@XZ ; std::_Tree<std::_Tmap_traits<unsigned long,IData *,std::less<unsigned long>,std::allocator<std::pair<unsigned long const ,IData *> >,0> >::end
  0036e	50		 push	 eax
  0036f	8d 4d e8	 lea	 ecx, DWORD PTR _it1$188849[ebp]
  00372	e8 00 00 00 00	 call	 ??9const_iterator@?$_Tree@V?$_Tmap_traits@KPAVIData@@U?$less@K@std@@V?$allocator@U?$pair@$$CBKPAVIData@@@std@@@3@$0A@@std@@@std@@QBE_NABV012@@Z ; std::_Tree<std::_Tmap_traits<unsigned long,IData *,std::less<unsigned long>,std::allocator<std::pair<unsigned long const ,IData *> >,0> >::const_iterator::operator!=
  00377	0f b6 d0	 movzx	 edx, al
  0037a	85 d2		 test	 edx, edx
  0037c	74 3a		 je	 SHORT $L188855

; 29   : 	{
; 30   : 		DWORD d = it1->first;

  0037e	8d 4d e8	 lea	 ecx, DWORD PTR _it1$188849[ebp]
  00381	e8 00 00 00 00	 call	 ??Citerator@?$_Tree@V?$_Tmap_traits@KPAVIData@@U?$less@K@std@@V?$allocator@U?$pair@$$CBKPAVIData@@@std@@@3@$0A@@std@@@std@@QBEPAU?$pair@$$CBKPAVIData@@@2@XZ ; std::_Tree<std::_Tmap_traits<unsigned long,IData *,std::less<unsigned long>,std::allocator<std::pair<unsigned long const ,IData *> >,0> >::iterator::operator->
  00386	8b 00		 mov	 eax, DWORD PTR [eax]
  00388	89 45 e0	 mov	 DWORD PTR _d$188856[ebp], eax

; 31   : 		it1->second->DataAppExit();

  0038b	8d 4d e8	 lea	 ecx, DWORD PTR _it1$188849[ebp]
  0038e	e8 00 00 00 00	 call	 ??Citerator@?$_Tree@V?$_Tmap_traits@KPAVIData@@U?$less@K@std@@V?$allocator@U?$pair@$$CBKPAVIData@@@std@@@3@$0A@@std@@@std@@QBEPAU?$pair@$$CBKPAVIData@@@2@XZ ; std::_Tree<std::_Tmap_traits<unsigned long,IData *,std::less<unsigned long>,std::allocator<std::pair<unsigned long const ,IData *> >,0> >::iterator::operator->
  00393	8b 48 04	 mov	 ecx, DWORD PTR [eax+4]
  00396	89 8d 64 ff ff
	ff		 mov	 DWORD PTR tv132[ebp], ecx
  0039c	8b 95 64 ff ff
	ff		 mov	 edx, DWORD PTR tv132[ebp]
  003a2	8b 02		 mov	 eax, DWORD PTR [edx]
  003a4	8b f4		 mov	 esi, esp
  003a6	8b 8d 64 ff ff
	ff		 mov	 ecx, DWORD PTR tv132[ebp]
  003ac	ff 50 08	 call	 DWORD PTR [eax+8]
  003af	3b f4		 cmp	 esi, esp
  003b1	e8 00 00 00 00	 call	 __RTC_CheckEsp

; 32   : 	}

  003b6	eb 99		 jmp	 SHORT $L188854
$L188855:

; 33   : 	CHTTPControl::Close();

  003b8	e8 00 00 00 00	 call	 ?Close@CHTTPControl@@SAXXZ ; CHTTPControl::Close

; 34   : 	YL_Log( STR_LOG_FILE,LOG_NOTICE,"DataManager","DataManAppExit--OUT" );

  003bd	8b f4		 mov	 esi, esp
  003bf	68 00 00 00 00	 push	 OFFSET FLAT:$SG188878
  003c4	8d 4d 84	 lea	 ecx, DWORD PTR $T190207[ebp]
  003c7	ff 15 00 00 00
	00		 call	 DWORD PTR __imp_??0?$basic_string@DU?$char_traits@D@std@@V?$allocator@D@2@@std@@QAE@PBD@Z
  003cd	3b f4		 cmp	 esi, esp
  003cf	e8 00 00 00 00	 call	 __RTC_CheckEsp
  003d4	c7 45 fc 02 00
	00 00		 mov	 DWORD PTR __$EHRec$[ebp+8], 2
  003db	8b f4		 mov	 esi, esp
  003dd	68 00 00 00 00	 push	 OFFSET FLAT:$SG188879
  003e2	8d 8d 68 ff ff
	ff		 lea	 ecx, DWORD PTR $T190208[ebp]
  003e8	ff 15 00 00 00
	00		 call	 DWORD PTR __imp_??0?$basic_string@DU?$char_traits@D@std@@V?$allocator@D@2@@std@@QAE@PBD@Z
  003ee	3b f4		 cmp	 esi, esp
  003f0	e8 00 00 00 00	 call	 __RTC_CheckEsp
  003f5	c6 45 fc 03	 mov	 BYTE PTR __$EHRec$[ebp+8], 3
  003f9	8b f4		 mov	 esi, esp
  003fb	68 00 00 00 00	 push	 OFFSET FLAT:$SG188877
  00400	8d 4d 84	 lea	 ecx, DWORD PTR $T190207[ebp]
  00403	51		 push	 ecx
  00404	6a 01		 push	 1
  00406	8d 95 68 ff ff
	ff		 lea	 edx, DWORD PTR $T190208[ebp]
  0040c	52		 push	 edx
  0040d	ff 15 00 00 00
	00		 call	 DWORD PTR __imp_?YL_Log@@YAXABV?$basic_string@DU?$char_traits@D@std@@V?$allocator@D@2@@std@@H0PBDZZ
  00413	83 c4 10	 add	 esp, 16			; 00000010H
  00416	3b f4		 cmp	 esi, esp
  00418	e8 00 00 00 00	 call	 __RTC_CheckEsp
  0041d	c6 45 fc 02	 mov	 BYTE PTR __$EHRec$[ebp+8], 2
  00421	8b f4		 mov	 esi, esp
  00423	8d 8d 68 ff ff
	ff		 lea	 ecx, DWORD PTR $T190208[ebp]
  00429	ff 15 00 00 00
	00		 call	 DWORD PTR __imp_??1?$basic_string@DU?$char_traits@D@std@@V?$allocator@D@2@@std@@QAE@XZ
  0042f	3b f4		 cmp	 esi, esp
  00431	e8 00 00 00 00	 call	 __RTC_CheckEsp
  00436	c7 45 fc ff ff
	ff ff		 mov	 DWORD PTR __$EHRec$[ebp+8], -1
  0043d	8b f4		 mov	 esi, esp
  0043f	8d 4d 84	 lea	 ecx, DWORD PTR $T190207[ebp]
  00442	ff 15 00 00 00
	00		 call	 DWORD PTR __imp_??1?$basic_string@DU?$char_traits@D@std@@V?$allocator@D@2@@std@@QAE@XZ
  00448	3b f4		 cmp	 esi, esp
  0044a	e8 00 00 00 00	 call	 __RTC_CheckEsp

; 35   : }

  0044f	52		 push	 edx
  00450	8b cd		 mov	 ecx, ebp
  00452	50		 push	 eax
  00453	8d 15 00 00 00
	00		 lea	 edx, DWORD PTR $L190218
  00459	e8 00 00 00 00	 call	 @_RTC_CheckStackVars@8
  0045e	58		 pop	 eax
  0045f	5a		 pop	 edx
  00460	8b 4d f4	 mov	 ecx, DWORD PTR __$EHRec$[ebp]
  00463	64 89 0d 00 00
	00 00		 mov	 DWORD PTR fs:__except_list, ecx
  0046a	5f		 pop	 edi
  0046b	5e		 pop	 esi
  0046c	81 c4 9c 00 00
	00		 add	 esp, 156		; 0000009cH
  00472	3b ec		 cmp	 ebp, esp
  00474	e8 00 00 00 00	 call	 __RTC_CheckEsp
  00479	8b e5		 mov	 esp, ebp
  0047b	5d		 pop	 ebp
  0047c	c3		 ret	 0
$L190218:
  0047d	01 00 00 00	 DD	 1
  00481	00 00 00 00	 DD	 $L190217
$L190217:
  00485	e8 ff ff ff	 DD	 -24			; ffffffe8H
  00489	04 00 00 00	 DD	 4
  0048d	00 00 00 00	 DD	 $L190215
$L190215:
  00491	69		 DB	 105			; 00000069H
  00492	74		 DB	 116			; 00000074H
  00493	31		 DB	 49			; 00000031H
  00494	00		 DB	 0
_TEXT	ENDS
text$x	SEGMENT
$L190209:
  00081	8b f4		 mov	 esi, esp
  00083	8d 4d c4	 lea	 ecx, DWORD PTR $T190203[ebp]
  00086	ff 15 00 00 00
	00		 call	 DWORD PTR __imp_??1?$basic_string@DU?$char_traits@D@std@@V?$allocator@D@2@@std@@QAE@XZ
  0008c	3b f4		 cmp	 esi, esp
  0008e	e9 00 00 00 00	 jmp	 __RTC_CheckEsp
$L190210:
  00093	8b f4		 mov	 esi, esp
  00095	8d 4d a8	 lea	 ecx, DWORD PTR $T190204[ebp]
  00098	ff 15 00 00 00
	00		 call	 DWORD PTR __imp_??1?$basic_string@DU?$char_traits@D@std@@V?$allocator@D@2@@std@@QAE@XZ
  0009e	3b f4		 cmp	 esi, esp
  000a0	e9 00 00 00 00	 jmp	 __RTC_CheckEsp
$L190211:
  000a5	8b f4		 mov	 esi, esp
  000a7	8d 4d 84	 lea	 ecx, DWORD PTR $T190207[ebp]
  000aa	ff 15 00 00 00
	00		 call	 DWORD PTR __imp_??1?$basic_string@DU?$char_traits@D@std@@V?$allocator@D@2@@std@@QAE@XZ
  000b0	3b f4		 cmp	 esi, esp
  000b2	e9 00 00 00 00	 jmp	 __RTC_CheckEsp
$L190212:
  000b7	8b f4		 mov	 esi, esp
  000b9	8d 8d 68 ff ff
	ff		 lea	 ecx, DWORD PTR $T190208[ebp]
  000bf	ff 15 00 00 00
	00		 call	 DWORD PTR __imp_??1?$basic_string@DU?$char_traits@D@std@@V?$allocator@D@2@@std@@QAE@XZ
  000c5	3b f4		 cmp	 esi, esp
  000c7	e9 00 00 00 00	 jmp	 __RTC_CheckEsp
__ehhandler$?DataManAppExit@CDataManager@@UAEXXZ:
  000cc	b8 00 00 00 00	 mov	 eax, OFFSET FLAT:$T190214
  000d1	e9 00 00 00 00	 jmp	 ___CxxFrameHandler
text$x	ENDS
?DataManAppExit@CDataManager@@UAEXXZ ENDP		; CDataManager::DataManAppExit
PUBLIC	??A?$map@KPAVIData@@U?$less@K@std@@V?$allocator@U?$pair@$$CBKPAVIData@@@std@@@3@@std@@QAEAAPAVIData@@ABK@Z ; std::map<unsigned long,IData *,std::less<unsigned long>,std::allocator<std::pair<unsigned long const ,IData *> > >::operator[]
EXTRN	__imp__EnterCriticalSection@4:NEAR
EXTRN	__imp__LeaveCriticalSection@4:NEAR
; Function compile flags: /Odt /RTCsu
_TEXT	SEGMENT
_this$ = -4						; size = 4
_guidDataObject$ = 8					; size = 4
_pData$ = 12						; size = 4
?AddDataObject@CDataManager@@UAEXABKPAVIData@@@Z PROC NEAR ; CDataManager::AddDataObject
; _this$ = ecx

; 38   : {

  004a0	55		 push	 ebp
  004a1	8b ec		 mov	 ebp, esp
  004a3	51		 push	 ecx
  004a4	56		 push	 esi
  004a5	c7 45 fc cc cc
	cc cc		 mov	 DWORD PTR [ebp-4], -858993460 ; ccccccccH
  004ac	89 4d fc	 mov	 DWORD PTR _this$[ebp], ecx

; 39   : 	if( pData == NULL )

  004af	83 7d 0c 00	 cmp	 DWORD PTR _pData$[ebp], 0
  004b3	75 02		 jne	 SHORT $L188885

; 40   : 	{
; 41   : 		return;

  004b5	eb 40		 jmp	 SHORT $L188884
$L188885:

; 42   : 	}
; 43   : 
; 44   : 	EnterCriticalSection(&m_csData);

  004b7	8b 45 fc	 mov	 eax, DWORD PTR _this$[ebp]
  004ba	83 c0 10	 add	 eax, 16			; 00000010H
  004bd	8b f4		 mov	 esi, esp
  004bf	50		 push	 eax
  004c0	ff 15 00 00 00
	00		 call	 DWORD PTR __imp__EnterCriticalSection@4
  004c6	3b f4		 cmp	 esi, esp
  004c8	e8 00 00 00 00	 call	 __RTC_CheckEsp

; 45   : 	m_mapDataObject[guidDataObject] = pData;

  004cd	8b 4d 08	 mov	 ecx, DWORD PTR _guidDataObject$[ebp]
  004d0	51		 push	 ecx
  004d1	8b 4d fc	 mov	 ecx, DWORD PTR _this$[ebp]
  004d4	83 c1 04	 add	 ecx, 4
  004d7	e8 00 00 00 00	 call	 ??A?$map@KPAVIData@@U?$less@K@std@@V?$allocator@U?$pair@$$CBKPAVIData@@@std@@@3@@std@@QAEAAPAVIData@@ABK@Z ; std::map<unsigned long,IData *,std::less<unsigned long>,std::allocator<std::pair<unsigned long const ,IData *> > >::operator[]
  004dc	8b 55 0c	 mov	 edx, DWORD PTR _pData$[ebp]
  004df	89 10		 mov	 DWORD PTR [eax], edx

; 46   : 	LeaveCriticalSection(&m_csData);

  004e1	8b 45 fc	 mov	 eax, DWORD PTR _this$[ebp]
  004e4	83 c0 10	 add	 eax, 16			; 00000010H
  004e7	8b f4		 mov	 esi, esp
  004e9	50		 push	 eax
  004ea	ff 15 00 00 00
	00		 call	 DWORD PTR __imp__LeaveCriticalSection@4
  004f0	3b f4		 cmp	 esi, esp
  004f2	e8 00 00 00 00	 call	 __RTC_CheckEsp
$L188884:

; 47   : }

  004f7	5e		 pop	 esi
  004f8	83 c4 04	 add	 esp, 4
  004fb	3b ec		 cmp	 ebp, esp
  004fd	e8 00 00 00 00	 call	 __RTC_CheckEsp
  00502	8b e5		 mov	 esp, ebp
  00504	5d		 pop	 ebp
  00505	c2 08 00	 ret	 8
?AddDataObject@CDataManager@@UAEXABKPAVIData@@@Z ENDP	; CDataManager::AddDataObject
_TEXT	ENDS
PUBLIC	?erase@?$_Tree@V?$_Tmap_traits@KPAVIData@@U?$less@K@std@@V?$allocator@U?$pair@$$CBKPAVIData@@@std@@@3@$0A@@std@@@std@@QAEIABK@Z ; std::_Tree<std::_Tmap_traits<unsigned long,IData *,std::less<unsigned long>,std::allocator<std::pair<unsigned long const ,IData *> >,0> >::erase
; Function compile flags: /Odt /RTCsu
_TEXT	SEGMENT
_this$ = -4						; size = 4
_guidDataObject$ = 8					; size = 4
?RemoveDataObject@CDataManager@@UAEXABK@Z PROC NEAR	; CDataManager::RemoveDataObject
; _this$ = ecx

; 50   : {

  00510	55		 push	 ebp
  00511	8b ec		 mov	 ebp, esp
  00513	51		 push	 ecx
  00514	56		 push	 esi
  00515	c7 45 fc cc cc
	cc cc		 mov	 DWORD PTR [ebp-4], -858993460 ; ccccccccH
  0051c	89 4d fc	 mov	 DWORD PTR _this$[ebp], ecx

; 51   : 	EnterCriticalSection(&m_csData);

  0051f	8b 45 fc	 mov	 eax, DWORD PTR _this$[ebp]
  00522	83 c0 10	 add	 eax, 16			; 00000010H
  00525	8b f4		 mov	 esi, esp
  00527	50		 push	 eax
  00528	ff 15 00 00 00
	00		 call	 DWORD PTR __imp__EnterCriticalSection@4
  0052e	3b f4		 cmp	 esi, esp
  00530	e8 00 00 00 00	 call	 __RTC_CheckEsp

; 52   : 	m_mapDataObject.erase(guidDataObject);

  00535	8b 4d 08	 mov	 ecx, DWORD PTR _guidDataObject$[ebp]
  00538	51		 push	 ecx
  00539	8b 4d fc	 mov	 ecx, DWORD PTR _this$[ebp]
  0053c	83 c1 04	 add	 ecx, 4
  0053f	e8 00 00 00 00	 call	 ?erase@?$_Tree@V?$_Tmap_traits@KPAVIData@@U?$less@K@std@@V?$allocator@U?$pair@$$CBKPAVIData@@@std@@@3@$0A@@std@@@std@@QAEIABK@Z ; std::_Tree<std::_Tmap_traits<unsigned long,IData *,std::less<unsigned long>,std::allocator<std::pair<unsigned long const ,IData *> >,0> >::erase

; 53   : 	LeaveCriticalSection(&m_csData);

  00544	8b 55 fc	 mov	 edx, DWORD PTR _this$[ebp]
  00547	83 c2 10	 add	 edx, 16			; 00000010H
  0054a	8b f4		 mov	 esi, esp
  0054c	52		 push	 edx
  0054d	ff 15 00 00 00
	00		 call	 DWORD PTR __imp__LeaveCriticalSection@4
  00553	3b f4		 cmp	 esi, esp
  00555	e8 00 00 00 00	 call	 __RTC_CheckEsp

; 54   : }

  0055a	5e		 pop	 esi
  0055b	83 c4 04	 add	 esp, 4
  0055e	3b ec		 cmp	 ebp, esp
  00560	e8 00 00 00 00	 call	 __RTC_CheckEsp
  00565	8b e5		 mov	 esp, ebp
  00567	5d		 pop	 ebp
  00568	c2 04 00	 ret	 4
?RemoveDataObject@CDataManager@@UAEXABK@Z ENDP		; CDataManager::RemoveDataObject
_TEXT	ENDS
PUBLIC	?_GetMapObject@CDataManager@@AAEPAVIData@@ABK@Z	; CDataManager::_GetMapObject
EXTRN	?GetInstance@CDownAD@@SAPAV1@XZ:NEAR		; CDownAD::GetInstance
EXTRN	?GetInstance@LocalGameData@@SAPAVIData@@XZ:NEAR	; LocalGameData::GetInstance
EXTRN	?GetInstance@CPanelChange@@SAPAVIData@@XZ:NEAR	; CPanelChange::GetInstance
EXTRN	?GetInstance@CTabBarData@@SAPAVIData@@XZ:NEAR	; CTabBarData::GetInstance
; Function compile flags: /Odt /RTCsu
_TEXT	SEGMENT
tv76 = -20						; size = 4
tv73 = -16						; size = 4
tv68 = -12						; size = 4
_pData$ = -8						; size = 4
_this$ = -4						; size = 4
_guidDataObject$ = 8					; size = 4
?GetDataObject@CDataManager@@UAEPAVIData@@ABK@Z PROC NEAR ; CDataManager::GetDataObject
; _this$ = ecx

; 57   : {

  00570	55		 push	 ebp
  00571	8b ec		 mov	 ebp, esp
  00573	83 ec 14	 sub	 esp, 20			; 00000014H
  00576	56		 push	 esi
  00577	b8 cc cc cc cc	 mov	 eax, -858993460		; ccccccccH
  0057c	89 45 ec	 mov	 DWORD PTR [ebp-20], eax
  0057f	89 45 f0	 mov	 DWORD PTR [ebp-16], eax
  00582	89 45 f4	 mov	 DWORD PTR [ebp-12], eax
  00585	89 45 f8	 mov	 DWORD PTR [ebp-8], eax
  00588	89 45 fc	 mov	 DWORD PTR [ebp-4], eax
  0058b	89 4d fc	 mov	 DWORD PTR _this$[ebp], ecx

; 58   : 	IData* pData = _GetMapObject( guidDataObject );

  0058e	8b 45 08	 mov	 eax, DWORD PTR _guidDataObject$[ebp]
  00591	50		 push	 eax
  00592	8b 4d fc	 mov	 ecx, DWORD PTR _this$[ebp]
  00595	e8 00 00 00 00	 call	 ?_GetMapObject@CDataManager@@AAEPAVIData@@ABK@Z ; CDataManager::_GetMapObject
  0059a	89 45 f8	 mov	 DWORD PTR _pData$[ebp], eax

; 59   : 	if( pData )

  0059d	83 7d f8 00	 cmp	 DWORD PTR _pData$[ebp], 0
  005a1	74 08		 je	 SHORT $L188895

; 60   : 	{
; 61   : 		return pData;

  005a3	8b 45 f8	 mov	 eax, DWORD PTR _pData$[ebp]
  005a6	e9 a7 00 00 00	 jmp	 $L188893
$L188895:

; 62   : 	}
; 63   : 	switch( guidDataObject )

  005ab	8b 4d 08	 mov	 ecx, DWORD PTR _guidDataObject$[ebp]
  005ae	8b 11		 mov	 edx, DWORD PTR [ecx]
  005b0	89 55 f4	 mov	 DWORD PTR tv68[ebp], edx
  005b3	8b 45 f4	 mov	 eax, DWORD PTR tv68[ebp]
  005b6	83 e8 05	 sub	 eax, 5
  005b9	89 45 f4	 mov	 DWORD PTR tv68[ebp], eax
  005bc	83 7d f4 06	 cmp	 DWORD PTR tv68[ebp], 6
  005c0	77 50		 ja	 SHORT $L188904
  005c2	8b 4d f4	 mov	 ecx, DWORD PTR tv68[ebp]
  005c5	ff 24 8d 00 00
	00 00		 jmp	 DWORD PTR $L190226[ecx*4]
$L188900:

; 64   : 	{
; 65   : 	case ID_DATA_TABBAR:
; 66   : 		pData = CTabBarData::GetInstance();

  005cc	e8 00 00 00 00	 call	 ?GetInstance@CTabBarData@@SAPAVIData@@XZ ; CTabBarData::GetInstance
  005d1	89 45 f8	 mov	 DWORD PTR _pData$[ebp], eax

; 67   : 		break;

  005d4	eb 43		 jmp	 SHORT $L188897
$L188901:

; 68   : 	case ID_DATA_LOCALGAME:
; 69   : 		pData = LocalGameData::GetInstance();

  005d6	e8 00 00 00 00	 call	 ?GetInstance@LocalGameData@@SAPAVIData@@XZ ; LocalGameData::GetInstance
  005db	89 45 f8	 mov	 DWORD PTR _pData$[ebp], eax

; 70   : 		break;

  005de	eb 39		 jmp	 SHORT $L188897
$L188902:

; 71   : 	case ID_DATA_PANELCHANGE:
; 72   : 		pData = CPanelChange::GetInstance();

  005e0	e8 00 00 00 00	 call	 ?GetInstance@CPanelChange@@SAPAVIData@@XZ ; CPanelChange::GetInstance
  005e5	89 45 f8	 mov	 DWORD PTR _pData$[ebp], eax

; 73   : 		break;

  005e8	eb 2f		 jmp	 SHORT $L188897
$L188903:

; 74   : 	case ID_DATA_AD:
; 75   : 		pData = CDownAD::GetInstance();

  005ea	e8 00 00 00 00	 call	 ?GetInstance@CDownAD@@SAPAV1@XZ ; CDownAD::GetInstance
  005ef	89 45 f0	 mov	 DWORD PTR tv73[ebp], eax
  005f2	83 7d f0 00	 cmp	 DWORD PTR tv73[ebp], 0
  005f6	74 0b		 je	 SHORT $L190224
  005f8	8b 55 f0	 mov	 edx, DWORD PTR tv73[ebp]
  005fb	83 c2 08	 add	 edx, 8
  005fe	89 55 ec	 mov	 DWORD PTR tv76[ebp], edx
  00601	eb 07		 jmp	 SHORT $L190225
$L190224:
  00603	c7 45 ec 00 00
	00 00		 mov	 DWORD PTR tv76[ebp], 0
$L190225:
  0060a	8b 45 ec	 mov	 eax, DWORD PTR tv76[ebp]
  0060d	89 45 f8	 mov	 DWORD PTR _pData$[ebp], eax

; 76   : 		break;

  00610	eb 07		 jmp	 SHORT $L188897
$L188904:

; 77   : 	default:
; 78   : 		pData = NULL;

  00612	c7 45 f8 00 00
	00 00		 mov	 DWORD PTR _pData$[ebp], 0
$L188897:

; 79   : 		break;
; 80   : 	}
; 81   : 	if( pData )

  00619	83 7d f8 00	 cmp	 DWORD PTR _pData$[ebp], 0
  0061d	74 30		 je	 SHORT $L188905

; 82   : 	{
; 83   : 		pData->DataAppStart();

  0061f	8b 4d f8	 mov	 ecx, DWORD PTR _pData$[ebp]
  00622	8b 11		 mov	 edx, DWORD PTR [ecx]
  00624	8b f4		 mov	 esi, esp
  00626	8b 4d f8	 mov	 ecx, DWORD PTR _pData$[ebp]
  00629	ff 52 04	 call	 DWORD PTR [edx+4]
  0062c	3b f4		 cmp	 esi, esp
  0062e	e8 00 00 00 00	 call	 __RTC_CheckEsp

; 84   : 		AddDataObject(guidDataObject, pData);

  00633	8b f4		 mov	 esi, esp
  00635	8b 45 f8	 mov	 eax, DWORD PTR _pData$[ebp]
  00638	50		 push	 eax
  00639	8b 4d 08	 mov	 ecx, DWORD PTR _guidDataObject$[ebp]
  0063c	51		 push	 ecx
  0063d	8b 55 fc	 mov	 edx, DWORD PTR _this$[ebp]
  00640	8b 02		 mov	 eax, DWORD PTR [edx]
  00642	8b 4d fc	 mov	 ecx, DWORD PTR _this$[ebp]
  00645	ff 50 10	 call	 DWORD PTR [eax+16]
  00648	3b f4		 cmp	 esi, esp
  0064a	e8 00 00 00 00	 call	 __RTC_CheckEsp
$L188905:

; 85   : 	}
; 86   : 	return pData;

  0064f	8b 45 f8	 mov	 eax, DWORD PTR _pData$[ebp]
$L188893:

; 87   : }

  00652	5e		 pop	 esi
  00653	83 c4 14	 add	 esp, 20			; 00000014H
  00656	3b ec		 cmp	 ebp, esp
  00658	e8 00 00 00 00	 call	 __RTC_CheckEsp
  0065d	8b e5		 mov	 esp, ebp
  0065f	5d		 pop	 ebp
  00660	c2 04 00	 ret	 4
$L190226:
  00663	00 00 00 00	 DD	 $L188902
  00667	00 00 00 00	 DD	 $L188904
  0066b	00 00 00 00	 DD	 $L188900
  0066f	00 00 00 00	 DD	 $L188904
  00673	00 00 00 00	 DD	 $L188904
  00677	00 00 00 00	 DD	 $L188901
  0067b	00 00 00 00	 DD	 $L188903
?GetDataObject@CDataManager@@UAEPAVIData@@ABK@Z ENDP	; CDataManager::GetDataObject
_TEXT	ENDS
PUBLIC	??8const_iterator@?$_Tree@V?$_Tmap_traits@KPAVIData@@U?$less@K@std@@V?$allocator@U?$pair@$$CBKPAVIData@@@std@@@3@$0A@@std@@@std@@QBE_NABV012@@Z ; std::_Tree<std::_Tmap_traits<unsigned long,IData *,std::less<unsigned long>,std::allocator<std::pair<unsigned long const ,IData *> >,0> >::const_iterator::operator==
PUBLIC	?find@?$_Tree@V?$_Tmap_traits@KPAVIData@@U?$less@K@std@@V?$allocator@U?$pair@$$CBKPAVIData@@@std@@@3@$0A@@std@@@std@@QAE?AViterator@12@ABK@Z ; std::_Tree<std::_Tmap_traits<unsigned long,IData *,std::less<unsigned long>,std::allocator<std::pair<unsigned long const ,IData *> >,0> >::find
; Function compile flags: /Odt /RTCsu
_TEXT	SEGMENT
$T190229 = -12						; size = 4
$T190228 = -8						; size = 4
_this$ = -4						; size = 4
_guidDataObject$ = 8					; size = 4
?_GetMapObject@CDataManager@@AAEPAVIData@@ABK@Z PROC NEAR ; CDataManager::_GetMapObject
; _this$ = ecx

; 90   : {

  00680	55		 push	 ebp
  00681	8b ec		 mov	 ebp, esp
  00683	83 ec 0c	 sub	 esp, 12			; 0000000cH
  00686	c7 45 f4 cc cc
	cc cc		 mov	 DWORD PTR [ebp-12], -858993460 ; ccccccccH
  0068d	c7 45 f8 cc cc
	cc cc		 mov	 DWORD PTR [ebp-8], -858993460 ; ccccccccH
  00694	c7 45 fc cc cc
	cc cc		 mov	 DWORD PTR [ebp-4], -858993460 ; ccccccccH
  0069b	89 4d fc	 mov	 DWORD PTR _this$[ebp], ecx

; 91   : 	if( m_mapDataObject.find(guidDataObject) == m_mapDataObject.end() )

  0069e	8d 45 f4	 lea	 eax, DWORD PTR $T190229[ebp]
  006a1	50		 push	 eax
  006a2	8b 4d fc	 mov	 ecx, DWORD PTR _this$[ebp]
  006a5	83 c1 04	 add	 ecx, 4
  006a8	e8 00 00 00 00	 call	 ?end@?$_Tree@V?$_Tmap_traits@KPAVIData@@U?$less@K@std@@V?$allocator@U?$pair@$$CBKPAVIData@@@std@@@3@$0A@@std@@@std@@QAE?AViterator@12@XZ ; std::_Tree<std::_Tmap_traits<unsigned long,IData *,std::less<unsigned long>,std::allocator<std::pair<unsigned long const ,IData *> >,0> >::end
  006ad	50		 push	 eax
  006ae	8b 4d 08	 mov	 ecx, DWORD PTR _guidDataObject$[ebp]
  006b1	51		 push	 ecx
  006b2	8d 55 f8	 lea	 edx, DWORD PTR $T190228[ebp]
  006b5	52		 push	 edx
  006b6	8b 4d fc	 mov	 ecx, DWORD PTR _this$[ebp]
  006b9	83 c1 04	 add	 ecx, 4
  006bc	e8 00 00 00 00	 call	 ?find@?$_Tree@V?$_Tmap_traits@KPAVIData@@U?$less@K@std@@V?$allocator@U?$pair@$$CBKPAVIData@@@std@@@3@$0A@@std@@@std@@QAE?AViterator@12@ABK@Z ; std::_Tree<std::_Tmap_traits<unsigned long,IData *,std::less<unsigned long>,std::allocator<std::pair<unsigned long const ,IData *> >,0> >::find
  006c1	8b c8		 mov	 ecx, eax
  006c3	e8 00 00 00 00	 call	 ??8const_iterator@?$_Tree@V?$_Tmap_traits@KPAVIData@@U?$less@K@std@@V?$allocator@U?$pair@$$CBKPAVIData@@@std@@@3@$0A@@std@@@std@@QBE_NABV012@@Z ; std::_Tree<std::_Tmap_traits<unsigned long,IData *,std::less<unsigned long>,std::allocator<std::pair<unsigned long const ,IData *> >,0> >::const_iterator::operator==
  006c8	0f b6 c0	 movzx	 eax, al
  006cb	85 c0		 test	 eax, eax
  006cd	74 04		 je	 SHORT $L188912

; 92   : 	{
; 93   : 		return NULL;

  006cf	33 c0		 xor	 eax, eax
  006d1	eb 11		 jmp	 SHORT $L188909
$L188912:

; 94   : 	}
; 95   : 	return m_mapDataObject[guidDataObject];

  006d3	8b 4d 08	 mov	 ecx, DWORD PTR _guidDataObject$[ebp]
  006d6	51		 push	 ecx
  006d7	8b 4d fc	 mov	 ecx, DWORD PTR _this$[ebp]
  006da	83 c1 04	 add	 ecx, 4
  006dd	e8 00 00 00 00	 call	 ??A?$map@KPAVIData@@U?$less@K@std@@V?$allocator@U?$pair@$$CBKPAVIData@@@std@@@3@@std@@QAEAAPAVIData@@ABK@Z ; std::map<unsigned long,IData *,std::less<unsigned long>,std::allocator<std::pair<unsigned long const ,IData *> > >::operator[]
  006e2	8b 00		 mov	 eax, DWORD PTR [eax]
$L188909:

; 96   : }

  006e4	83 c4 0c	 add	 esp, 12			; 0000000cH
  006e7	3b ec		 cmp	 ebp, esp
  006e9	e8 00 00 00 00	 call	 __RTC_CheckEsp
  006ee	8b e5		 mov	 esp, ebp
  006f0	5d		 pop	 ebp
  006f1	c2 04 00	 ret	 4
?_GetMapObject@CDataManager@@AAEPAVIData@@ABK@Z ENDP	; CDataManager::_GetMapObject
_TEXT	ENDS
PUBLIC	?GetExportDataObject@CDataManager@@QAEPAVIData@@ABK@Z ; CDataManager::GetExportDataObject
; Function compile flags: /Odt /RTCsu
_TEXT	SEGMENT
$T190232 = -12						; size = 4
$T190231 = -8						; size = 4
_this$ = -4						; size = 4
_guidDataObject$ = 8					; size = 4
?GetExportDataObject@CDataManager@@QAEPAVIData@@ABK@Z PROC NEAR ; CDataManager::GetExportDataObject
; _this$ = ecx

; 99   : {

  00700	55		 push	 ebp
  00701	8b ec		 mov	 ebp, esp
  00703	83 ec 0c	 sub	 esp, 12			; 0000000cH
  00706	c7 45 f4 cc cc
	cc cc		 mov	 DWORD PTR [ebp-12], -858993460 ; ccccccccH
  0070d	c7 45 f8 cc cc
	cc cc		 mov	 DWORD PTR [ebp-8], -858993460 ; ccccccccH
  00714	c7 45 fc cc cc
	cc cc		 mov	 DWORD PTR [ebp-4], -858993460 ; ccccccccH
  0071b	89 4d fc	 mov	 DWORD PTR _this$[ebp], ecx

; 100  : 	if( m_mapDataObject.find( guidDataObject ) == m_mapDataObject.end() )

  0071e	8d 45 f4	 lea	 eax, DWORD PTR $T190232[ebp]
  00721	50		 push	 eax
  00722	8b 4d fc	 mov	 ecx, DWORD PTR _this$[ebp]
  00725	83 c1 04	 add	 ecx, 4
  00728	e8 00 00 00 00	 call	 ?end@?$_Tree@V?$_Tmap_traits@KPAVIData@@U?$less@K@std@@V?$allocator@U?$pair@$$CBKPAVIData@@@std@@@3@$0A@@std@@@std@@QAE?AViterator@12@XZ ; std::_Tree<std::_Tmap_traits<unsigned long,IData *,std::less<unsigned long>,std::allocator<std::pair<unsigned long const ,IData *> >,0> >::end
  0072d	50		 push	 eax
  0072e	8b 4d 08	 mov	 ecx, DWORD PTR _guidDataObject$[ebp]
  00731	51		 push	 ecx
  00732	8d 55 f8	 lea	 edx, DWORD PTR $T190231[ebp]
  00735	52		 push	 edx
  00736	8b 4d fc	 mov	 ecx, DWORD PTR _this$[ebp]
  00739	83 c1 04	 add	 ecx, 4
  0073c	e8 00 00 00 00	 call	 ?find@?$_Tree@V?$_Tmap_traits@KPAVIData@@U?$less@K@std@@V?$allocator@U?$pair@$$CBKPAVIData@@@std@@@3@$0A@@std@@@std@@QAE?AViterator@12@ABK@Z ; std::_Tree<std::_Tmap_traits<unsigned long,IData *,std::less<unsigned long>,std::allocator<std::pair<unsigned long const ,IData *> >,0> >::find
  00741	8b c8		 mov	 ecx, eax
  00743	e8 00 00 00 00	 call	 ??8const_iterator@?$_Tree@V?$_Tmap_traits@KPAVIData@@U?$less@K@std@@V?$allocator@U?$pair@$$CBKPAVIData@@@std@@@3@$0A@@std@@@std@@QBE_NABV012@@Z ; std::_Tree<std::_Tmap_traits<unsigned long,IData *,std::less<unsigned long>,std::allocator<std::pair<unsigned long const ,IData *> >,0> >::const_iterator::operator==
  00748	0f b6 c0	 movzx	 eax, al
  0074b	85 c0		 test	 eax, eax
  0074d	74 04		 je	 SHORT $L188919

; 101  : 	{
; 102  : 		return NULL;

  0074f	33 c0		 xor	 eax, eax
  00751	eb 11		 jmp	 SHORT $L188916
$L188919:

; 103  : 	}
; 104  : 	return m_mapDataObject[guidDataObject];

  00753	8b 4d 08	 mov	 ecx, DWORD PTR _guidDataObject$[ebp]
  00756	51		 push	 ecx
  00757	8b 4d fc	 mov	 ecx, DWORD PTR _this$[ebp]
  0075a	83 c1 04	 add	 ecx, 4
  0075d	e8 00 00 00 00	 call	 ??A?$map@KPAVIData@@U?$less@K@std@@V?$allocator@U?$pair@$$CBKPAVIData@@@std@@@3@@std@@QAEAAPAVIData@@ABK@Z ; std::map<unsigned long,IData *,std::less<unsigned long>,std::allocator<std::pair<unsigned long const ,IData *> > >::operator[]
  00762	8b 00		 mov	 eax, DWORD PTR [eax]
$L188916:

; 105  : }

  00764	83 c4 0c	 add	 esp, 12			; 0000000cH
  00767	3b ec		 cmp	 ebp, esp
  00769	e8 00 00 00 00	 call	 __RTC_CheckEsp
  0076e	8b e5		 mov	 esp, ebp
  00770	5d		 pop	 ebp
  00771	c2 04 00	 ret	 4
?GetExportDataObject@CDataManager@@QAEPAVIData@@ABK@Z ENDP ; CDataManager::GetExportDataObject
_TEXT	ENDS
PUBLIC	??0?$allocator@U?$pair@$$CBKPAVIData@@@std@@@std@@QAE@XZ ; std::allocator<std::pair<unsigned long const ,IData *> >::allocator<std::pair<unsigned long const ,IData *> >
PUBLIC	??0?$_Tree@V?$_Tmap_traits@KPAVIData@@U?$less@K@std@@V?$allocator@U?$pair@$$CBKPAVIData@@@std@@@3@$0A@@std@@@std@@QAE@ABU?$less@K@1@ABV?$allocator@U?$pair@$$CBKPAVIData@@@std@@@1@@Z ; std::_Tree<std::_Tmap_traits<unsigned long,IData *,std::less<unsigned long>,std::allocator<std::pair<unsigned long const ,IData *> >,0> >::_Tree<std::_Tmap_traits<unsigned long,IData *,std::less<unsigned long>,std::allocator<std::pair<unsigned long const ,IData *> >,0> >
; Function compile flags: /Odt /RTCsu
; File d:\program files (x86)\microsoft visual studio .net 2003\vc7\include\map
;	COMDAT ??0?$map@KPAVIData@@U?$less@K@std@@V?$allocator@U?$pair@$$CBKPAVIData@@@std@@@3@@std@@QAE@XZ
_TEXT	SEGMENT
$T190235 = -6						; size = 1
$T190234 = -5						; size = 1
_this$ = -4						; size = 4
??0?$map@KPAVIData@@U?$less@K@std@@V?$allocator@U?$pair@$$CBKPAVIData@@@std@@@3@@std@@QAE@XZ PROC NEAR ; std::map<unsigned long,IData *,std::less<unsigned long>,std::allocator<std::pair<unsigned long const ,IData *> > >::map<unsigned long,IData *,std::less<unsigned long>,std::allocator<std::pair<unsigned long const ,IData *> > >, COMDAT
; _this$ = ecx

; 102  : 		{	// construct empty map from defaults

  00000	55		 push	 ebp
  00001	8b ec		 mov	 ebp, esp
  00003	83 ec 08	 sub	 esp, 8
  00006	c7 45 f8 cc cc
	cc cc		 mov	 DWORD PTR [ebp-8], -858993460 ; ccccccccH
  0000d	c7 45 fc cc cc
	cc cc		 mov	 DWORD PTR [ebp-4], -858993460 ; ccccccccH
  00014	89 4d fc	 mov	 DWORD PTR _this$[ebp], ecx
  00017	8d 4d fb	 lea	 ecx, DWORD PTR $T190234[ebp]
  0001a	e8 00 00 00 00	 call	 ??0?$allocator@U?$pair@$$CBKPAVIData@@@std@@@std@@QAE@XZ ; std::allocator<std::pair<unsigned long const ,IData *> >::allocator<std::pair<unsigned long const ,IData *> >
  0001f	50		 push	 eax
  00020	8d 45 fa	 lea	 eax, DWORD PTR $T190235[ebp]
  00023	50		 push	 eax
  00024	8b 4d fc	 mov	 ecx, DWORD PTR _this$[ebp]
  00027	e8 00 00 00 00	 call	 ??0?$_Tree@V?$_Tmap_traits@KPAVIData@@U?$less@K@std@@V?$allocator@U?$pair@$$CBKPAVIData@@@std@@@3@$0A@@std@@@std@@QAE@ABU?$less@K@1@ABV?$allocator@U?$pair@$$CBKPAVIData@@@std@@@1@@Z ; std::_Tree<std::_Tmap_traits<unsigned long,IData *,std::less<unsigned long>,std::allocator<std::pair<unsigned long const ,IData *> >,0> >::_Tree<std::_Tmap_traits<unsigned long,IData *,std::less<unsigned long>,std::allocator<std::pair<unsigned long const ,IData *> >,0> >

; 103  : 		}

  0002c	8b 45 fc	 mov	 eax, DWORD PTR _this$[ebp]
  0002f	83 c4 08	 add	 esp, 8
  00032	3b ec		 cmp	 ebp, esp
  00034	e8 00 00 00 00	 call	 __RTC_CheckEsp
  00039	8b e5		 mov	 esp, ebp
  0003b	5d		 pop	 ebp
  0003c	c3		 ret	 0
??0?$map@KPAVIData@@U?$less@K@std@@V?$allocator@U?$pair@$$CBKPAVIData@@@std@@@3@@std@@QAE@XZ ENDP ; std::map<unsigned long,IData *,std::less<unsigned long>,std::allocator<std::pair<unsigned long const ,IData *> > >::map<unsigned long,IData *,std::less<unsigned long>,std::allocator<std::pair<unsigned long const ,IData *> > >
_TEXT	ENDS
PUBLIC	?_Mynode@const_iterator@?$_Tree@V?$_Tmap_traits@KPAVIData@@U?$less@K@std@@V?$allocator@U?$pair@$$CBKPAVIData@@@std@@@3@$0A@@std@@@std@@QBEPAU_Node@?$_Tree_nod@V?$_Tmap_traits@KPAVIData@@U?$less@K@std@@V?$allocator@U?$pair@$$CBKPAVIData@@@std@@@3@$0A@@std@@@3@XZ ; std::_Tree<std::_Tmap_traits<unsigned long,IData *,std::less<unsigned long>,std::allocator<std::pair<unsigned long const ,IData *> >,0> >::const_iterator::_Mynode
PUBLIC	??Diterator@?$_Tree@V?$_Tmap_traits@KPAVIData@@U?$less@K@std@@V?$allocator@U?$pair@$$CBKPAVIData@@@std@@@3@$0A@@std@@@std@@QBEAAU?$pair@$$CBKPAVIData@@@2@XZ ; std::_Tree<std::_Tmap_traits<unsigned long,IData *,std::less<unsigned long>,std::allocator<std::pair<unsigned long const ,IData *> >,0> >::iterator::operator*
PUBLIC	??0?$pair@$$CBKPAVIData@@@std@@QAE@ABKABQAVIData@@@Z ; std::pair<unsigned long const ,IData *>::pair<unsigned long const ,IData *>
PUBLIC	??R?$less@K@std@@QBE_NABK0@Z			; std::less<unsigned long>::operator()
PUBLIC	?_Key@?$_Tree@V?$_Tmap_traits@KPAVIData@@U?$less@K@std@@V?$allocator@U?$pair@$$CBKPAVIData@@@std@@@3@$0A@@std@@@std@@KAABKPAU_Node@?$_Tree_nod@V?$_Tmap_traits@KPAVIData@@U?$less@K@std@@V?$allocator@U?$pair@$$CBKPAVIData@@@std@@@3@$0A@@std@@@2@@Z ; std::_Tree<std::_Tmap_traits<unsigned long,IData *,std::less<unsigned long>,std::allocator<std::pair<unsigned long const ,IData *> >,0> >::_Key
PUBLIC	?insert@?$_Tree@V?$_Tmap_traits@KPAVIData@@U?$less@K@std@@V?$allocator@U?$pair@$$CBKPAVIData@@@std@@@3@$0A@@std@@@std@@QAE?AViterator@12@V312@ABU?$pair@$$CBKPAVIData@@@2@@Z ; std::_Tree<std::_Tmap_traits<unsigned long,IData *,std::less<unsigned long>,std::allocator<std::pair<unsigned long const ,IData *> >,0> >::insert
PUBLIC	?lower_bound@?$_Tree@V?$_Tmap_traits@KPAVIData@@U?$less@K@std@@V?$allocator@U?$pair@$$CBKPAVIData@@@std@@@3@$0A@@std@@@std@@QAE?AViterator@12@ABK@Z ; std::_Tree<std::_Tmap_traits<unsigned long,IData *,std::less<unsigned long>,std::allocator<std::pair<unsigned long const ,IData *> >,0> >::lower_bound
; Function compile flags: /Odt /RTCsu
;	COMDAT ??A?$map@KPAVIData@@U?$less@K@std@@V?$allocator@U?$pair@$$CBKPAVIData@@@std@@@3@@std@@QAEAAPAVIData@@ABK@Z
_TEXT	SEGMENT
$T190241 = -36						; size = 4
$T190240 = -32						; size = 4
$T190239 = -28						; size = 8
$T190238 = -20						; size = 4
__Where$ = -12						; size = 4
_this$ = -4						; size = 4
__Keyval$ = 8						; size = 4
??A?$map@KPAVIData@@U?$less@K@std@@V?$allocator@U?$pair@$$CBKPAVIData@@@std@@@3@@std@@QAEAAPAVIData@@ABK@Z PROC NEAR ; std::map<unsigned long,IData *,std::less<unsigned long>,std::allocator<std::pair<unsigned long const ,IData *> > >::operator[], COMDAT
; _this$ = ecx

; 142  : 		{	// find element matching _Keyval or insert with default mapped

  00000	55		 push	 ebp
  00001	8b ec		 mov	 ebp, esp
  00003	83 ec 24	 sub	 esp, 36			; 00000024H
  00006	b8 cc cc cc cc	 mov	 eax, -858993460		; ccccccccH
  0000b	89 45 dc	 mov	 DWORD PTR [ebp-36], eax
  0000e	89 45 e0	 mov	 DWORD PTR [ebp-32], eax
  00011	89 45 e4	 mov	 DWORD PTR [ebp-28], eax
  00014	89 45 e8	 mov	 DWORD PTR [ebp-24], eax
  00017	89 45 ec	 mov	 DWORD PTR [ebp-20], eax
  0001a	89 45 f0	 mov	 DWORD PTR [ebp-16], eax
  0001d	89 45 f4	 mov	 DWORD PTR [ebp-12], eax
  00020	89 45 f8	 mov	 DWORD PTR [ebp-8], eax
  00023	89 45 fc	 mov	 DWORD PTR [ebp-4], eax
  00026	89 4d fc	 mov	 DWORD PTR _this$[ebp], ecx

; 143  : 		iterator _Where = this->lower_bound(_Keyval);

  00029	8b 45 08	 mov	 eax, DWORD PTR __Keyval$[ebp]
  0002c	50		 push	 eax
  0002d	8d 4d f4	 lea	 ecx, DWORD PTR __Where$[ebp]
  00030	51		 push	 ecx
  00031	8b 4d fc	 mov	 ecx, DWORD PTR _this$[ebp]
  00034	e8 00 00 00 00	 call	 ?lower_bound@?$_Tree@V?$_Tmap_traits@KPAVIData@@U?$less@K@std@@V?$allocator@U?$pair@$$CBKPAVIData@@@std@@@3@$0A@@std@@@std@@QAE?AViterator@12@ABK@Z ; std::_Tree<std::_Tmap_traits<unsigned long,IData *,std::less<unsigned long>,std::allocator<std::pair<unsigned long const ,IData *> >,0> >::lower_bound

; 144  : 		if (_Where == this->end() || this->comp(_Keyval, this->_Key(_Where._Mynode())))

  00039	8d 55 ec	 lea	 edx, DWORD PTR $T190238[ebp]
  0003c	52		 push	 edx
  0003d	8b 4d fc	 mov	 ecx, DWORD PTR _this$[ebp]
  00040	e8 00 00 00 00	 call	 ?end@?$_Tree@V?$_Tmap_traits@KPAVIData@@U?$less@K@std@@V?$allocator@U?$pair@$$CBKPAVIData@@@std@@@3@$0A@@std@@@std@@QAE?AViterator@12@XZ ; std::_Tree<std::_Tmap_traits<unsigned long,IData *,std::less<unsigned long>,std::allocator<std::pair<unsigned long const ,IData *> >,0> >::end
  00045	50		 push	 eax
  00046	8d 4d f4	 lea	 ecx, DWORD PTR __Where$[ebp]
  00049	e8 00 00 00 00	 call	 ??8const_iterator@?$_Tree@V?$_Tmap_traits@KPAVIData@@U?$less@K@std@@V?$allocator@U?$pair@$$CBKPAVIData@@@std@@@3@$0A@@std@@@std@@QBE_NABV012@@Z ; std::_Tree<std::_Tmap_traits<unsigned long,IData *,std::less<unsigned long>,std::allocator<std::pair<unsigned long const ,IData *> >,0> >::const_iterator::operator==
  0004e	0f b6 c0	 movzx	 eax, al
  00051	85 c0		 test	 eax, eax
  00053	75 25		 jne	 SHORT $L188991
  00055	8d 4d f4	 lea	 ecx, DWORD PTR __Where$[ebp]
  00058	e8 00 00 00 00	 call	 ?_Mynode@const_iterator@?$_Tree@V?$_Tmap_traits@KPAVIData@@U?$less@K@std@@V?$allocator@U?$pair@$$CBKPAVIData@@@std@@@3@$0A@@std@@@std@@QBEPAU_Node@?$_Tree_nod@V?$_Tmap_traits@KPAVIData@@U?$less@K@std@@V?$allocator@U?$pair@$$CBKPAVIData@@@std@@@3@$0A@@std@@@3@XZ ; std::_Tree<std::_Tmap_traits<unsigned long,IData *,std::less<unsigned long>,std::allocator<std::pair<unsigned long const ,IData *> >,0> >::const_iterator::_Mynode
  0005d	50		 push	 eax
  0005e	e8 00 00 00 00	 call	 ?_Key@?$_Tree@V?$_Tmap_traits@KPAVIData@@U?$less@K@std@@V?$allocator@U?$pair@$$CBKPAVIData@@@std@@@3@$0A@@std@@@std@@KAABKPAU_Node@?$_Tree_nod@V?$_Tmap_traits@KPAVIData@@U?$less@K@std@@V?$allocator@U?$pair@$$CBKPAVIData@@@std@@@3@$0A@@std@@@2@@Z ; std::_Tree<std::_Tmap_traits<unsigned long,IData *,std::less<unsigned long>,std::allocator<std::pair<unsigned long const ,IData *> >,0> >::_Key
  00063	83 c4 04	 add	 esp, 4
  00066	50		 push	 eax
  00067	8b 4d 08	 mov	 ecx, DWORD PTR __Keyval$[ebp]
  0006a	51		 push	 ecx
  0006b	8b 4d fc	 mov	 ecx, DWORD PTR _this$[ebp]
  0006e	e8 00 00 00 00	 call	 ??R?$less@K@std@@QBE_NABK0@Z ; std::less<unsigned long>::operator()
  00073	0f b6 d0	 movzx	 edx, al
  00076	85 d2		 test	 edx, edx
  00078	74 2d		 je	 SHORT $L188990
$L188991:

; 145  : 			_Where = this->insert(_Where,
; 146  : 				value_type(_Keyval, mapped_type()));

  0007a	c7 45 e0 00 00
	00 00		 mov	 DWORD PTR $T190240[ebp], 0
  00081	8d 45 e0	 lea	 eax, DWORD PTR $T190240[ebp]
  00084	50		 push	 eax
  00085	8b 4d 08	 mov	 ecx, DWORD PTR __Keyval$[ebp]
  00088	51		 push	 ecx
  00089	8d 4d e4	 lea	 ecx, DWORD PTR $T190239[ebp]
  0008c	e8 00 00 00 00	 call	 ??0?$pair@$$CBKPAVIData@@@std@@QAE@ABKABQAVIData@@@Z ; std::pair<unsigned long const ,IData *>::pair<unsigned long const ,IData *>
  00091	50		 push	 eax
  00092	8b 55 f4	 mov	 edx, DWORD PTR __Where$[ebp]
  00095	52		 push	 edx
  00096	8d 45 dc	 lea	 eax, DWORD PTR $T190241[ebp]
  00099	50		 push	 eax
  0009a	8b 4d fc	 mov	 ecx, DWORD PTR _this$[ebp]
  0009d	e8 00 00 00 00	 call	 ?insert@?$_Tree@V?$_Tmap_traits@KPAVIData@@U?$less@K@std@@V?$allocator@U?$pair@$$CBKPAVIData@@@std@@@3@$0A@@std@@@std@@QAE?AViterator@12@V312@ABU?$pair@$$CBKPAVIData@@@2@@Z ; std::_Tree<std::_Tmap_traits<unsigned long,IData *,std::less<unsigned long>,std::allocator<std::pair<unsigned long const ,IData *> >,0> >::insert
  000a2	8b 08		 mov	 ecx, DWORD PTR [eax]
  000a4	89 4d f4	 mov	 DWORD PTR __Where$[ebp], ecx
$L188990:

; 147  : 		return ((*_Where).second);

  000a7	8d 4d f4	 lea	 ecx, DWORD PTR __Where$[ebp]
  000aa	e8 00 00 00 00	 call	 ??Diterator@?$_Tree@V?$_Tmap_traits@KPAVIData@@U?$less@K@std@@V?$allocator@U?$pair@$$CBKPAVIData@@@std@@@3@$0A@@std@@@std@@QBEAAU?$pair@$$CBKPAVIData@@@2@XZ ; std::_Tree<std::_Tmap_traits<unsigned long,IData *,std::less<unsigned long>,std::allocator<std::pair<unsigned long const ,IData *> >,0> >::iterator::operator*
  000af	83 c0 04	 add	 eax, 4

; 148  : 		}

  000b2	52		 push	 edx
  000b3	8b cd		 mov	 ecx, ebp
  000b5	50		 push	 eax
  000b6	8d 15 00 00 00
	00		 lea	 edx, DWORD PTR $L190244
  000bc	e8 00 00 00 00	 call	 @_RTC_CheckStackVars@8
  000c1	58		 pop	 eax
  000c2	5a		 pop	 edx
  000c3	83 c4 24	 add	 esp, 36			; 00000024H
  000c6	3b ec		 cmp	 ebp, esp
  000c8	e8 00 00 00 00	 call	 __RTC_CheckEsp
  000cd	8b e5		 mov	 esp, ebp
  000cf	5d		 pop	 ebp
  000d0	c2 04 00	 ret	 4
$L190244:
  000d3	01 00 00 00	 DD	 1
  000d7	00 00 00 00	 DD	 $L190243
$L190243:
  000db	f4 ff ff ff	 DD	 -12			; fffffff4H
  000df	04 00 00 00	 DD	 4
  000e3	00 00 00 00	 DD	 $L190242
$L190242:
  000e7	5f		 DB	 95			; 0000005fH
  000e8	57		 DB	 87			; 00000057H
  000e9	68		 DB	 104			; 00000068H
  000ea	65		 DB	 101			; 00000065H
  000eb	72		 DB	 114			; 00000072H
  000ec	65		 DB	 101			; 00000065H
  000ed	00		 DB	 0
??A?$map@KPAVIData@@U?$less@K@std@@V?$allocator@U?$pair@$$CBKPAVIData@@@std@@@3@@std@@QAEAAPAVIData@@ABK@Z ENDP ; std::map<unsigned long,IData *,std::less<unsigned long>,std::allocator<std::pair<unsigned long const ,IData *> > >::operator[]
_TEXT	ENDS
PUBLIC	?_Tidy@?$_Tree@V?$_Tmap_traits@KPAVIData@@U?$less@K@std@@V?$allocator@U?$pair@$$CBKPAVIData@@@std@@@3@$0A@@std@@@std@@IAEXXZ ; std::_Tree<std::_Tmap_traits<unsigned long,IData *,std::less<unsigned long>,std::allocator<std::pair<unsigned long const ,IData *> >,0> >::_Tidy
; Function compile flags: /Odt /RTCsu
; File d:\program files (x86)\microsoft visual studio .net 2003\vc7\include\xtree
;	COMDAT ??1?$_Tree@V?$_Tmap_traits@KPAVIData@@U?$less@K@std@@V?$allocator@U?$pair@$$CBKPAVIData@@@std@@@3@$0A@@std@@@std@@QAE@XZ
_TEXT	SEGMENT
_this$ = -4						; size = 4
??1?$_Tree@V?$_Tmap_traits@KPAVIData@@U?$less@K@std@@V?$allocator@U?$pair@$$CBKPAVIData@@@std@@@3@$0A@@std@@@std@@QAE@XZ PROC NEAR ; std::_Tree<std::_Tmap_traits<unsigned long,IData *,std::less<unsigned long>,std::allocator<std::pair<unsigned long const ,IData *> >,0> >::~_Tree<std::_Tmap_traits<unsigned long,IData *,std::less<unsigned long>,std::allocator<std::pair<unsigned long const ,IData *> >,0> >, COMDAT
; _this$ = ecx

; 391  : 		{	// destroy tree

  00000	55		 push	 ebp
  00001	8b ec		 mov	 ebp, esp
  00003	51		 push	 ecx
  00004	c7 45 fc cc cc
	cc cc		 mov	 DWORD PTR [ebp-4], -858993460 ; ccccccccH
  0000b	89 4d fc	 mov	 DWORD PTR _this$[ebp], ecx

; 392  : 		_Tidy();

  0000e	8b 4d fc	 mov	 ecx, DWORD PTR _this$[ebp]
  00011	e8 00 00 00 00	 call	 ?_Tidy@?$_Tree@V?$_Tmap_traits@KPAVIData@@U?$less@K@std@@V?$allocator@U?$pair@$$CBKPAVIData@@@std@@@3@$0A@@std@@@std@@IAEXXZ ; std::_Tree<std::_Tmap_traits<unsigned long,IData *,std::less<unsigned long>,std::allocator<std::pair<unsigned long const ,IData *> >,0> >::_Tidy

; 393  : 		}

  00016	83 c4 04	 add	 esp, 4
  00019	3b ec		 cmp	 ebp, esp
  0001b	e8 00 00 00 00	 call	 __RTC_CheckEsp
  00020	8b e5		 mov	 esp, ebp
  00022	5d		 pop	 ebp
  00023	c3		 ret	 0
??1?$_Tree@V?$_Tmap_traits@KPAVIData@@U?$less@K@std@@V?$allocator@U?$pair@$$CBKPAVIData@@@std@@@3@$0A@@std@@@std@@QAE@XZ ENDP ; std::_Tree<std::_Tmap_traits<unsigned long,IData *,std::less<unsigned long>,std::allocator<std::pair<unsigned long const ,IData *> >,0> >::~_Tree<std::_Tmap_traits<unsigned long,IData *,std::less<unsigned long>,std::allocator<std::pair<unsigned long const ,IData *> >,0> >
_TEXT	ENDS
PUBLIC	??0iterator@?$_Tree@V?$_Tmap_traits@KPAVIData@@U?$less@K@std@@V?$allocator@U?$pair@$$CBKPAVIData@@@std@@@3@$0A@@std@@@std@@QAE@PAU_Node@?$_Tree_nod@V?$_Tmap_traits@KPAVIData@@U?$less@K@std@@V?$allocator@U?$pair@$$CBKPAVIData@@@std@@@3@$0A@@std@@@2@@Z ; std::_Tree<std::_Tmap_traits<unsigned long,IData *,std::less<unsigned long>,std::allocator<std::pair<unsigned long const ,IData *> >,0> >::iterator::iterator
PUBLIC	?_Lmost@?$_Tree@V?$_Tmap_traits@KPAVIData@@U?$less@K@std@@V?$allocator@U?$pair@$$CBKPAVIData@@@std@@@3@$0A@@std@@@std@@IAEAAPAU_Node@?$_Tree_nod@V?$_Tmap_traits@KPAVIData@@U?$less@K@std@@V?$allocator@U?$pair@$$CBKPAVIData@@@std@@@3@$0A@@std@@@2@XZ ; std::_Tree<std::_Tmap_traits<unsigned long,IData *,std::less<unsigned long>,std::allocator<std::pair<unsigned long const ,IData *> >,0> >::_Lmost
; Function compile flags: /Odt /RTCsu
;	COMDAT ?begin@?$_Tree@V?$_Tmap_traits@KPAVIData@@U?$less@K@std@@V?$allocator@U?$pair@$$CBKPAVIData@@@std@@@3@$0A@@std@@@std@@QAE?AViterator@12@XZ
_TEXT	SEGMENT
_this$ = -4						; size = 4
___$ReturnUdt$ = 8					; size = 4
?begin@?$_Tree@V?$_Tmap_traits@KPAVIData@@U?$less@K@std@@V?$allocator@U?$pair@$$CBKPAVIData@@@std@@@3@$0A@@std@@@std@@QAE?AViterator@12@XZ PROC NEAR ; std::_Tree<std::_Tmap_traits<unsigned long,IData *,std::less<unsigned long>,std::allocator<std::pair<unsigned long const ,IData *> >,0> >::begin, COMDAT
; _this$ = ecx

; 407  : 		{	// return iterator for beginning of mutable sequence

  00000	55		 push	 ebp
  00001	8b ec		 mov	 ebp, esp
  00003	51		 push	 ecx
  00004	c7 45 fc cc cc
	cc cc		 mov	 DWORD PTR [ebp-4], -858993460 ; ccccccccH
  0000b	89 4d fc	 mov	 DWORD PTR _this$[ebp], ecx

; 408  : 		return (_TREE_ITERATOR(_Lmost()));

  0000e	8b 4d fc	 mov	 ecx, DWORD PTR _this$[ebp]
  00011	e8 00 00 00 00	 call	 ?_Lmost@?$_Tree@V?$_Tmap_traits@KPAVIData@@U?$less@K@std@@V?$allocator@U?$pair@$$CBKPAVIData@@@std@@@3@$0A@@std@@@std@@IAEAAPAU_Node@?$_Tree_nod@V?$_Tmap_traits@KPAVIData@@U?$less@K@std@@V?$allocator@U?$pair@$$CBKPAVIData@@@std@@@3@$0A@@std@@@2@XZ ; std::_Tree<std::_Tmap_traits<unsigned long,IData *,std::less<unsigned long>,std::allocator<std::pair<unsigned long const ,IData *> >,0> >::_Lmost
  00016	8b 00		 mov	 eax, DWORD PTR [eax]
  00018	50		 push	 eax
  00019	8b 4d 08	 mov	 ecx, DWORD PTR ___$ReturnUdt$[ebp]
  0001c	e8 00 00 00 00	 call	 ??0iterator@?$_Tree@V?$_Tmap_traits@KPAVIData@@U?$less@K@std@@V?$allocator@U?$pair@$$CBKPAVIData@@@std@@@3@$0A@@std@@@std@@QAE@PAU_Node@?$_Tree_nod@V?$_Tmap_traits@KPAVIData@@U?$less@K@std@@V?$allocator@U?$pair@$$CBKPAVIData@@@std@@@3@$0A@@std@@@2@@Z ; std::_Tree<std::_Tmap_traits<unsigned long,IData *,std::less<unsigned long>,std::allocator<std::pair<unsigned long const ,IData *> >,0> >::iterator::iterator
  00021	8b 45 08	 mov	 eax, DWORD PTR ___$ReturnUdt$[ebp]

; 409  : 		}

  00024	83 c4 04	 add	 esp, 4
  00027	3b ec		 cmp	 ebp, esp
  00029	e8 00 00 00 00	 call	 __RTC_CheckEsp
  0002e	8b e5		 mov	 esp, ebp
  00030	5d		 pop	 ebp
  00031	c2 04 00	 ret	 4
?begin@?$_Tree@V?$_Tmap_traits@KPAVIData@@U?$less@K@std@@V?$allocator@U?$pair@$$CBKPAVIData@@@std@@@3@$0A@@std@@@std@@QAE?AViterator@12@XZ ENDP ; std::_Tree<std::_Tmap_traits<unsigned long,IData *,std::less<unsigned long>,std::allocator<std::pair<unsigned long const ,IData *> >,0> >::begin
; Function compile flags: /Odt /RTCsu
_TEXT	ENDS
;	COMDAT ?end@?$_Tree@V?$_Tmap_traits@KPAVIData@@U?$less@K@std@@V?$allocator@U?$pair@$$CBKPAVIData@@@std@@@3@$0A@@std@@@std@@QAE?AViterator@12@XZ
_TEXT	SEGMENT
_this$ = -4						; size = 4
___$ReturnUdt$ = 8					; size = 4
?end@?$_Tree@V?$_Tmap_traits@KPAVIData@@U?$less@K@std@@V?$allocator@U?$pair@$$CBKPAVIData@@@std@@@3@$0A@@std@@@std@@QAE?AViterator@12@XZ PROC NEAR ; std::_Tree<std::_Tmap_traits<unsigned long,IData *,std::less<unsigned long>,std::allocator<std::pair<unsigned long const ,IData *> >,0> >::end, COMDAT
; _this$ = ecx

; 417  : 		{	// return iterator for end of mutable sequence

  00000	55		 push	 ebp
  00001	8b ec		 mov	 ebp, esp
  00003	51		 push	 ecx
  00004	c7 45 fc cc cc
	cc cc		 mov	 DWORD PTR [ebp-4], -858993460 ; ccccccccH
  0000b	89 4d fc	 mov	 DWORD PTR _this$[ebp], ecx

; 418  : 		return (_TREE_ITERATOR(_Myhead));

  0000e	8b 45 fc	 mov	 eax, DWORD PTR _this$[ebp]
  00011	8b 48 04	 mov	 ecx, DWORD PTR [eax+4]
  00014	51		 push	 ecx
  00015	8b 4d 08	 mov	 ecx, DWORD PTR ___$ReturnUdt$[ebp]
  00018	e8 00 00 00 00	 call	 ??0iterator@?$_Tree@V?$_Tmap_traits@KPAVIData@@U?$less@K@std@@V?$allocator@U?$pair@$$CBKPAVIData@@@std@@@3@$0A@@std@@@std@@QAE@PAU_Node@?$_Tree_nod@V?$_Tmap_traits@KPAVIData@@U?$less@K@std@@V?$allocator@U?$pair@$$CBKPAVIData@@@std@@@3@$0A@@std@@@2@@Z ; std::_Tree<std::_Tmap_traits<unsigned long,IData *,std::less<unsigned long>,std::allocator<std::pair<unsigned long const ,IData *> >,0> >::iterator::iterator
  0001d	8b 45 08	 mov	 eax, DWORD PTR ___$ReturnUdt$[ebp]

; 419  : 		}

  00020	83 c4 04	 add	 esp, 4
  00023	3b ec		 cmp	 ebp, esp
  00025	e8 00 00 00 00	 call	 __RTC_CheckEsp
  0002a	8b e5		 mov	 esp, ebp
  0002c	5d		 pop	 ebp
  0002d	c2 04 00	 ret	 4
?end@?$_Tree@V?$_Tmap_traits@KPAVIData@@U?$less@K@std@@V?$allocator@U?$pair@$$CBKPAVIData@@@std@@@3@$0A@@std@@@std@@QAE?AViterator@12@XZ ENDP ; std::_Tree<std::_Tmap_traits<unsigned long,IData *,std::less<unsigned long>,std::allocator<std::pair<unsigned long const ,IData *> >,0> >::end
_TEXT	ENDS
PUBLIC	??$_Distance@Viterator@?$_Tree@V?$_Tmap_traits@KPAVIData@@U?$less@K@std@@V?$allocator@U?$pair@$$CBKPAVIData@@@std@@@3@$0A@@std@@@std@@I@std@@YAXViterator@?$_Tree@V?$_Tmap_traits@KPAVIData@@U?$less@K@std@@V?$allocator@U?$pair@$$CBKPAVIData@@@std@@@3@$0A@@std@@@0@0AAI@Z ; std::_Distance<std::_Tree<std::_Tmap_traits<unsigned long,IData *,std::less<unsigned long>,std::allocator<std::pair<unsigned long const ,IData *> >,0> >::iterator,unsigned int>
PUBLIC	?erase@?$_Tree@V?$_Tmap_traits@KPAVIData@@U?$less@K@std@@V?$allocator@U?$pair@$$CBKPAVIData@@@std@@@3@$0A@@std@@@std@@QAE?AViterator@12@V312@0@Z ; std::_Tree<std::_Tmap_traits<unsigned long,IData *,std::less<unsigned long>,std::allocator<std::pair<unsigned long const ,IData *> >,0> >::erase
PUBLIC	?equal_range@?$_Tree@V?$_Tmap_traits@KPAVIData@@U?$less@K@std@@V?$allocator@U?$pair@$$CBKPAVIData@@@std@@@3@$0A@@std@@@std@@QAE?AU?$pair@Viterator@?$_Tree@V?$_Tmap_traits@KPAVIData@@U?$less@K@std@@V?$allocator@U?$pair@$$CBKPAVIData@@@std@@@3@$0A@@std@@@std@@V123@@2@ABK@Z ; std::_Tree<std::_Tmap_traits<unsigned long,IData *,std::less<unsigned long>,std::allocator<std::pair<unsigned long const ,IData *> >,0> >::equal_range
; Function compile flags: /Odt /RTCsu
;	COMDAT ?erase@?$_Tree@V?$_Tmap_traits@KPAVIData@@U?$less@K@std@@V?$allocator@U?$pair@$$CBKPAVIData@@@std@@@3@$0A@@std@@@std@@QAEIABK@Z
_TEXT	SEGMENT
$T190249 = -36						; size = 4
__Num$ = -28						; size = 4
__Where$ = -16						; size = 8
_this$ = -4						; size = 4
__Keyval$ = 8						; size = 4
?erase@?$_Tree@V?$_Tmap_traits@KPAVIData@@U?$less@K@std@@V?$allocator@U?$pair@$$CBKPAVIData@@@std@@@3@$0A@@std@@@std@@QAEIABK@Z PROC NEAR ; std::_Tree<std::_Tmap_traits<unsigned long,IData *,std::less<unsigned long>,std::allocator<std::pair<unsigned long const ,IData *> >,0> >::erase, COMDAT
; _this$ = ecx

; 765  : 		{	// erase and count all that match _Keyval

  00000	55		 push	 ebp
  00001	8b ec		 mov	 ebp, esp
  00003	83 ec 24	 sub	 esp, 36			; 00000024H
  00006	b8 cc cc cc cc	 mov	 eax, -858993460		; ccccccccH
  0000b	89 45 dc	 mov	 DWORD PTR [ebp-36], eax
  0000e	89 45 e0	 mov	 DWORD PTR [ebp-32], eax
  00011	89 45 e4	 mov	 DWORD PTR [ebp-28], eax
  00014	89 45 e8	 mov	 DWORD PTR [ebp-24], eax
  00017	89 45 ec	 mov	 DWORD PTR [ebp-20], eax
  0001a	89 45 f0	 mov	 DWORD PTR [ebp-16], eax
  0001d	89 45 f4	 mov	 DWORD PTR [ebp-12], eax
  00020	89 45 f8	 mov	 DWORD PTR [ebp-8], eax
  00023	89 45 fc	 mov	 DWORD PTR [ebp-4], eax
  00026	89 4d fc	 mov	 DWORD PTR _this$[ebp], ecx

; 766  : 		_Pairii _Where = equal_range(_Keyval);

  00029	8b 45 08	 mov	 eax, DWORD PTR __Keyval$[ebp]
  0002c	50		 push	 eax
  0002d	8d 4d f0	 lea	 ecx, DWORD PTR __Where$[ebp]
  00030	51		 push	 ecx
  00031	8b 4d fc	 mov	 ecx, DWORD PTR _this$[ebp]
  00034	e8 00 00 00 00	 call	 ?equal_range@?$_Tree@V?$_Tmap_traits@KPAVIData@@U?$less@K@std@@V?$allocator@U?$pair@$$CBKPAVIData@@@std@@@3@$0A@@std@@@std@@QAE?AU?$pair@Viterator@?$_Tree@V?$_Tmap_traits@KPAVIData@@U?$less@K@std@@V?$allocator@U?$pair@$$CBKPAVIData@@@std@@@3@$0A@@std@@@std@@V123@@2@ABK@Z ; std::_Tree<std::_Tmap_traits<unsigned long,IData *,std::less<unsigned long>,std::allocator<std::pair<unsigned long const ,IData *> >,0> >::equal_range

; 767  : 		size_type _Num = 0;

  00039	c7 45 e4 00 00
	00 00		 mov	 DWORD PTR __Num$[ebp], 0

; 768  : 		_Distance(_Where.first, _Where.second, _Num);

  00040	8d 55 e4	 lea	 edx, DWORD PTR __Num$[ebp]
  00043	52		 push	 edx
  00044	8b 45 f4	 mov	 eax, DWORD PTR __Where$[ebp+4]
  00047	50		 push	 eax
  00048	8b 4d f0	 mov	 ecx, DWORD PTR __Where$[ebp]
  0004b	51		 push	 ecx
  0004c	e8 00 00 00 00	 call	 ??$_Distance@Viterator@?$_Tree@V?$_Tmap_traits@KPAVIData@@U?$less@K@std@@V?$allocator@U?$pair@$$CBKPAVIData@@@std@@@3@$0A@@std@@@std@@I@std@@YAXViterator@?$_Tree@V?$_Tmap_traits@KPAVIData@@U?$less@K@std@@V?$allocator@U?$pair@$$CBKPAVIData@@@std@@@3@$0A@@std@@@0@0AAI@Z ; std::_Distance<std::_Tree<std::_Tmap_traits<unsigned long,IData *,std::less<unsigned long>,std::allocator<std::pair<unsigned long const ,IData *> >,0> >::iterator,unsigned int>
  00051	83 c4 0c	 add	 esp, 12			; 0000000cH

; 769  : 		erase(_Where.first, _Where.second);

  00054	8b 55 f4	 mov	 edx, DWORD PTR __Where$[ebp+4]
  00057	52		 push	 edx
  00058	8b 45 f0	 mov	 eax, DWORD PTR __Where$[ebp]
  0005b	50		 push	 eax
  0005c	8d 4d dc	 lea	 ecx, DWORD PTR $T190249[ebp]
  0005f	51		 push	 ecx
  00060	8b 4d fc	 mov	 ecx, DWORD PTR _this$[ebp]
  00063	e8 00 00 00 00	 call	 ?erase@?$_Tree@V?$_Tmap_traits@KPAVIData@@U?$less@K@std@@V?$allocator@U?$pair@$$CBKPAVIData@@@std@@@3@$0A@@std@@@std@@QAE?AViterator@12@V312@0@Z ; std::_Tree<std::_Tmap_traits<unsigned long,IData *,std::less<unsigned long>,std::allocator<std::pair<unsigned long const ,IData *> >,0> >::erase

; 770  : 		return (_Num);

  00068	8b 45 e4	 mov	 eax, DWORD PTR __Num$[ebp]

; 771  : 		}

  0006b	52		 push	 edx
  0006c	8b cd		 mov	 ecx, ebp
  0006e	50		 push	 eax
  0006f	8d 15 00 00 00
	00		 lea	 edx, DWORD PTR $L190253
  00075	e8 00 00 00 00	 call	 @_RTC_CheckStackVars@8
  0007a	58		 pop	 eax
  0007b	5a		 pop	 edx
  0007c	83 c4 24	 add	 esp, 36			; 00000024H
  0007f	3b ec		 cmp	 ebp, esp
  00081	e8 00 00 00 00	 call	 __RTC_CheckEsp
  00086	8b e5		 mov	 esp, ebp
  00088	5d		 pop	 ebp
  00089	c2 04 00	 ret	 4
$L190253:
  0008c	02 00 00 00	 DD	 2
  00090	00 00 00 00	 DD	 $L190252
$L190252:
  00094	f0 ff ff ff	 DD	 -16			; fffffff0H
  00098	08 00 00 00	 DD	 8
  0009c	00 00 00 00	 DD	 $L190250
  000a0	e4 ff ff ff	 DD	 -28			; ffffffe4H
  000a4	04 00 00 00	 DD	 4
  000a8	00 00 00 00	 DD	 $L190251
$L190251:
  000ac	5f		 DB	 95			; 0000005fH
  000ad	4e		 DB	 78			; 0000004eH
  000ae	75		 DB	 117			; 00000075H
  000af	6d		 DB	 109			; 0000006dH
  000b0	00		 DB	 0
$L190250:
  000b1	5f		 DB	 95			; 0000005fH
  000b2	57		 DB	 87			; 00000057H
  000b3	68		 DB	 104			; 00000068H
  000b4	65		 DB	 101			; 00000065H
  000b5	72		 DB	 114			; 00000072H
  000b6	65		 DB	 101			; 00000065H
  000b7	00		 DB	 0
?erase@?$_Tree@V?$_Tmap_traits@KPAVIData@@U?$less@K@std@@V?$allocator@U?$pair@$$CBKPAVIData@@@std@@@3@$0A@@std@@@std@@QAEIABK@Z ENDP ; std::_Tree<std::_Tmap_traits<unsigned long,IData *,std::less<unsigned long>,std::allocator<std::pair<unsigned long const ,IData *> >,0> >::erase
_TEXT	ENDS
PUBLIC	?_Erase@?$_Tree@V?$_Tmap_traits@KPAVIData@@U?$less@K@std@@V?$allocator@U?$pair@$$CBKPAVIData@@@std@@@3@$0A@@std@@@std@@IAEXPAU_Node@?$_Tree_nod@V?$_Tmap_traits@KPAVIData@@U?$less@K@std@@V?$allocator@U?$pair@$$CBKPAVIData@@@std@@@3@$0A@@std@@@2@@Z ; std::_Tree<std::_Tmap_traits<unsigned long,IData *,std::less<unsigned long>,std::allocator<std::pair<unsigned long const ,IData *> >,0> >::_Erase
PUBLIC	?_Rmost@?$_Tree@V?$_Tmap_traits@KPAVIData@@U?$less@K@std@@V?$allocator@U?$pair@$$CBKPAVIData@@@std@@@3@$0A@@std@@@std@@IAEAAPAU_Node@?$_Tree_nod@V?$_Tmap_traits@KPAVIData@@U?$less@K@std@@V?$allocator@U?$pair@$$CBKPAVIData@@@std@@@3@$0A@@std@@@2@XZ ; std::_Tree<std::_Tmap_traits<unsigned long,IData *,std::less<unsigned long>,std::allocator<std::pair<unsigned long const ,IData *> >,0> >::_Rmost
PUBLIC	?_Root@?$_Tree@V?$_Tmap_traits@KPAVIData@@U?$less@K@std@@V?$allocator@U?$pair@$$CBKPAVIData@@@std@@@3@$0A@@std@@@std@@IAEAAPAU_Node@?$_Tree_nod@V?$_Tmap_traits@KPAVIData@@U?$less@K@std@@V?$allocator@U?$pair@$$CBKPAVIData@@@std@@@3@$0A@@std@@@2@XZ ; std::_Tree<std::_Tmap_traits<unsigned long,IData *,std::less<unsigned long>,std::allocator<std::pair<unsigned long const ,IData *> >,0> >::_Root
; Function compile flags: /Odt /RTCsu
;	COMDAT ?clear@?$_Tree@V?$_Tmap_traits@KPAVIData@@U?$less@K@std@@V?$allocator@U?$pair@$$CBKPAVIData@@@std@@@3@$0A@@std@@@std@@QAEXXZ
_TEXT	SEGMENT
_this$ = -4						; size = 4
?clear@?$_Tree@V?$_Tmap_traits@KPAVIData@@U?$less@K@std@@V?$allocator@U?$pair@$$CBKPAVIData@@@std@@@3@$0A@@std@@@std@@QAEXXZ PROC NEAR ; std::_Tree<std::_Tmap_traits<unsigned long,IData *,std::less<unsigned long>,std::allocator<std::pair<unsigned long const ,IData *> >,0> >::clear, COMDAT
; _this$ = ecx

; 780  : 		{	// erase all

  00000	55		 push	 ebp
  00001	8b ec		 mov	 ebp, esp
  00003	51		 push	 ecx
  00004	c7 45 fc cc cc
	cc cc		 mov	 DWORD PTR [ebp-4], -858993460 ; ccccccccH
  0000b	89 4d fc	 mov	 DWORD PTR _this$[ebp], ecx

; 781  : 		_Erase(_Root());

  0000e	8b 4d fc	 mov	 ecx, DWORD PTR _this$[ebp]
  00011	e8 00 00 00 00	 call	 ?_Root@?$_Tree@V?$_Tmap_traits@KPAVIData@@U?$less@K@std@@V?$allocator@U?$pair@$$CBKPAVIData@@@std@@@3@$0A@@std@@@std@@IAEAAPAU_Node@?$_Tree_nod@V?$_Tmap_traits@KPAVIData@@U?$less@K@std@@V?$allocator@U?$pair@$$CBKPAVIData@@@std@@@3@$0A@@std@@@2@XZ ; std::_Tree<std::_Tmap_traits<unsigned long,IData *,std::less<unsigned long>,std::allocator<std::pair<unsigned long const ,IData *> >,0> >::_Root
  00016	8b 00		 mov	 eax, DWORD PTR [eax]
  00018	50		 push	 eax
  00019	8b 4d fc	 mov	 ecx, DWORD PTR _this$[ebp]
  0001c	e8 00 00 00 00	 call	 ?_Erase@?$_Tree@V?$_Tmap_traits@KPAVIData@@U?$less@K@std@@V?$allocator@U?$pair@$$CBKPAVIData@@@std@@@3@$0A@@std@@@std@@IAEXPAU_Node@?$_Tree_nod@V?$_Tmap_traits@KPAVIData@@U?$less@K@std@@V?$allocator@U?$pair@$$CBKPAVIData@@@std@@@3@$0A@@std@@@2@@Z ; std::_Tree<std::_Tmap_traits<unsigned long,IData *,std::less<unsigned long>,std::allocator<std::pair<unsigned long const ,IData *> >,0> >::_Erase

; 782  : 		_Root() = _Myhead, _Mysize = 0;

  00021	8b 4d fc	 mov	 ecx, DWORD PTR _this$[ebp]
  00024	e8 00 00 00 00	 call	 ?_Root@?$_Tree@V?$_Tmap_traits@KPAVIData@@U?$less@K@std@@V?$allocator@U?$pair@$$CBKPAVIData@@@std@@@3@$0A@@std@@@std@@IAEAAPAU_Node@?$_Tree_nod@V?$_Tmap_traits@KPAVIData@@U?$less@K@std@@V?$allocator@U?$pair@$$CBKPAVIData@@@std@@@3@$0A@@std@@@2@XZ ; std::_Tree<std::_Tmap_traits<unsigned long,IData *,std::less<unsigned long>,std::allocator<std::pair<unsigned long const ,IData *> >,0> >::_Root
  00029	8b 4d fc	 mov	 ecx, DWORD PTR _this$[ebp]
  0002c	8b 51 04	 mov	 edx, DWORD PTR [ecx+4]
  0002f	89 10		 mov	 DWORD PTR [eax], edx
  00031	8b 45 fc	 mov	 eax, DWORD PTR _this$[ebp]
  00034	c7 40 08 00 00
	00 00		 mov	 DWORD PTR [eax+8], 0

; 783  : 		_Lmost() = _Myhead, _Rmost() = _Myhead;

  0003b	8b 4d fc	 mov	 ecx, DWORD PTR _this$[ebp]
  0003e	e8 00 00 00 00	 call	 ?_Lmost@?$_Tree@V?$_Tmap_traits@KPAVIData@@U?$less@K@std@@V?$allocator@U?$pair@$$CBKPAVIData@@@std@@@3@$0A@@std@@@std@@IAEAAPAU_Node@?$_Tree_nod@V?$_Tmap_traits@KPAVIData@@U?$less@K@std@@V?$allocator@U?$pair@$$CBKPAVIData@@@std@@@3@$0A@@std@@@2@XZ ; std::_Tree<std::_Tmap_traits<unsigned long,IData *,std::less<unsigned long>,std::allocator<std::pair<unsigned long const ,IData *> >,0> >::_Lmost
  00043	8b 4d fc	 mov	 ecx, DWORD PTR _this$[ebp]
  00046	8b 51 04	 mov	 edx, DWORD PTR [ecx+4]
  00049	89 10		 mov	 DWORD PTR [eax], edx
  0004b	8b 4d fc	 mov	 ecx, DWORD PTR _this$[ebp]
  0004e	e8 00 00 00 00	 call	 ?_Rmost@?$_Tree@V?$_Tmap_traits@KPAVIData@@U?$less@K@std@@V?$allocator@U?$pair@$$CBKPAVIData@@@std@@@3@$0A@@std@@@std@@IAEAAPAU_Node@?$_Tree_nod@V?$_Tmap_traits@KPAVIData@@U?$less@K@std@@V?$allocator@U?$pair@$$CBKPAVIData@@@std@@@3@$0A@@std@@@2@XZ ; std::_Tree<std::_Tmap_traits<unsigned long,IData *,std::less<unsigned long>,std::allocator<std::pair<unsigned long const ,IData *> >,0> >::_Rmost
  00053	8b 4d fc	 mov	 ecx, DWORD PTR _this$[ebp]
  00056	8b 51 04	 mov	 edx, DWORD PTR [ecx+4]
  00059	89 10		 mov	 DWORD PTR [eax], edx

; 784  : 		}

  0005b	83 c4 04	 add	 esp, 4
  0005e	3b ec		 cmp	 ebp, esp
  00060	e8 00 00 00 00	 call	 __RTC_CheckEsp
  00065	8b e5		 mov	 esp, ebp
  00067	5d		 pop	 ebp
  00068	c3		 ret	 0
?clear@?$_Tree@V?$_Tmap_traits@KPAVIData@@U?$less@K@std@@V?$allocator@U?$pair@$$CBKPAVIData@@@std@@@3@$0A@@std@@@std@@QAEXXZ ENDP ; std::_Tree<std::_Tmap_traits<unsigned long,IData *,std::less<unsigned long>,std::allocator<std::pair<unsigned long const ,IData *> >,0> >::clear
; Function compile flags: /Odt /RTCsu
_TEXT	ENDS
;	COMDAT ?find@?$_Tree@V?$_Tmap_traits@KPAVIData@@U?$less@K@std@@V?$allocator@U?$pair@$$CBKPAVIData@@@std@@@3@$0A@@std@@@std@@QAE?AViterator@12@ABK@Z
_TEXT	SEGMENT
tv88 = -32						; size = 4
$T190259 = -28						; size = 4
$T190257 = -24						; size = 4
$T190256 = -20						; size = 4
__Where$ = -12						; size = 4
_this$ = -4						; size = 4
___$ReturnUdt$ = 8					; size = 4
__Keyval$ = 12						; size = 4
?find@?$_Tree@V?$_Tmap_traits@KPAVIData@@U?$less@K@std@@V?$allocator@U?$pair@$$CBKPAVIData@@@std@@@3@$0A@@std@@@std@@QAE?AViterator@12@ABK@Z PROC NEAR ; std::_Tree<std::_Tmap_traits<unsigned long,IData *,std::less<unsigned long>,std::allocator<std::pair<unsigned long const ,IData *> >,0> >::find, COMDAT
; _this$ = ecx

; 787  : 		{	// find an element in mutable sequence that matches _Keyval

  00000	55		 push	 ebp
  00001	8b ec		 mov	 ebp, esp
  00003	83 ec 20	 sub	 esp, 32			; 00000020H
  00006	b8 cc cc cc cc	 mov	 eax, -858993460		; ccccccccH
  0000b	89 45 e0	 mov	 DWORD PTR [ebp-32], eax
  0000e	89 45 e4	 mov	 DWORD PTR [ebp-28], eax
  00011	89 45 e8	 mov	 DWORD PTR [ebp-24], eax
  00014	89 45 ec	 mov	 DWORD PTR [ebp-20], eax
  00017	89 45 f0	 mov	 DWORD PTR [ebp-16], eax
  0001a	89 45 f4	 mov	 DWORD PTR [ebp-12], eax
  0001d	89 45 f8	 mov	 DWORD PTR [ebp-8], eax
  00020	89 45 fc	 mov	 DWORD PTR [ebp-4], eax
  00023	89 4d fc	 mov	 DWORD PTR _this$[ebp], ecx

; 788  : 		iterator _Where = lower_bound(_Keyval);

  00026	8b 45 0c	 mov	 eax, DWORD PTR __Keyval$[ebp]
  00029	50		 push	 eax
  0002a	8d 4d f4	 lea	 ecx, DWORD PTR __Where$[ebp]
  0002d	51		 push	 ecx
  0002e	8b 4d fc	 mov	 ecx, DWORD PTR _this$[ebp]
  00031	e8 00 00 00 00	 call	 ?lower_bound@?$_Tree@V?$_Tmap_traits@KPAVIData@@U?$less@K@std@@V?$allocator@U?$pair@$$CBKPAVIData@@@std@@@3@$0A@@std@@@std@@QAE?AViterator@12@ABK@Z ; std::_Tree<std::_Tmap_traits<unsigned long,IData *,std::less<unsigned long>,std::allocator<std::pair<unsigned long const ,IData *> >,0> >::lower_bound

; 789  : 		return (_Where == end() || this->comp(_Keyval, _Key(_Where._Mynode()))
; 790  : 			? end() : _Where);

  00036	8d 55 e8	 lea	 edx, DWORD PTR $T190257[ebp]
  00039	52		 push	 edx
  0003a	8b 4d fc	 mov	 ecx, DWORD PTR _this$[ebp]
  0003d	e8 00 00 00 00	 call	 ?end@?$_Tree@V?$_Tmap_traits@KPAVIData@@U?$less@K@std@@V?$allocator@U?$pair@$$CBKPAVIData@@@std@@@3@$0A@@std@@@std@@QAE?AViterator@12@XZ ; std::_Tree<std::_Tmap_traits<unsigned long,IData *,std::less<unsigned long>,std::allocator<std::pair<unsigned long const ,IData *> >,0> >::end
  00042	50		 push	 eax
  00043	8d 4d f4	 lea	 ecx, DWORD PTR __Where$[ebp]
  00046	e8 00 00 00 00	 call	 ??8const_iterator@?$_Tree@V?$_Tmap_traits@KPAVIData@@U?$less@K@std@@V?$allocator@U?$pair@$$CBKPAVIData@@@std@@@3@$0A@@std@@@std@@QBE_NABV012@@Z ; std::_Tree<std::_Tmap_traits<unsigned long,IData *,std::less<unsigned long>,std::allocator<std::pair<unsigned long const ,IData *> >,0> >::const_iterator::operator==
  0004b	0f b6 c0	 movzx	 eax, al
  0004e	85 c0		 test	 eax, eax
  00050	75 2d		 jne	 SHORT $L190258
  00052	8d 4d f4	 lea	 ecx, DWORD PTR __Where$[ebp]
  00055	e8 00 00 00 00	 call	 ?_Mynode@const_iterator@?$_Tree@V?$_Tmap_traits@KPAVIData@@U?$less@K@std@@V?$allocator@U?$pair@$$CBKPAVIData@@@std@@@3@$0A@@std@@@std@@QBEPAU_Node@?$_Tree_nod@V?$_Tmap_traits@KPAVIData@@U?$less@K@std@@V?$allocator@U?$pair@$$CBKPAVIData@@@std@@@3@$0A@@std@@@3@XZ ; std::_Tree<std::_Tmap_traits<unsigned long,IData *,std::less<unsigned long>,std::allocator<std::pair<unsigned long const ,IData *> >,0> >::const_iterator::_Mynode
  0005a	50		 push	 eax
  0005b	e8 00 00 00 00	 call	 ?_Key@?$_Tree@V?$_Tmap_traits@KPAVIData@@U?$less@K@std@@V?$allocator@U?$pair@$$CBKPAVIData@@@std@@@3@$0A@@std@@@std@@KAABKPAU_Node@?$_Tree_nod@V?$_Tmap_traits@KPAVIData@@U?$less@K@std@@V?$allocator@U?$pair@$$CBKPAVIData@@@std@@@3@$0A@@std@@@2@@Z ; std::_Tree<std::_Tmap_traits<unsigned long,IData *,std::less<unsigned long>,std::allocator<std::pair<unsigned long const ,IData *> >,0> >::_Key
  00060	83 c4 04	 add	 esp, 4
  00063	50		 push	 eax
  00064	8b 4d 0c	 mov	 ecx, DWORD PTR __Keyval$[ebp]
  00067	51		 push	 ecx
  00068	8b 4d fc	 mov	 ecx, DWORD PTR _this$[ebp]
  0006b	e8 00 00 00 00	 call	 ??R?$less@K@std@@QBE_NABK0@Z ; std::less<unsigned long>::operator()
  00070	0f b6 d0	 movzx	 edx, al
  00073	85 d2		 test	 edx, edx
  00075	75 08		 jne	 SHORT $L190258
  00077	8d 45 f4	 lea	 eax, DWORD PTR __Where$[ebp]
  0007a	89 45 e0	 mov	 DWORD PTR tv88[ebp], eax
  0007d	eb 0f		 jmp	 SHORT $L190260
$L190258:
  0007f	8d 4d e4	 lea	 ecx, DWORD PTR $T190259[ebp]
  00082	51		 push	 ecx
  00083	8b 4d fc	 mov	 ecx, DWORD PTR _this$[ebp]
  00086	e8 00 00 00 00	 call	 ?end@?$_Tree@V?$_Tmap_traits@KPAVIData@@U?$less@K@std@@V?$allocator@U?$pair@$$CBKPAVIData@@@std@@@3@$0A@@std@@@std@@QAE?AViterator@12@XZ ; std::_Tree<std::_Tmap_traits<unsigned long,IData *,std::less<unsigned long>,std::allocator<std::pair<unsigned long const ,IData *> >,0> >::end
  0008b	89 45 e0	 mov	 DWORD PTR tv88[ebp], eax
$L190260:
  0008e	8b 55 e0	 mov	 edx, DWORD PTR tv88[ebp]
  00091	89 55 ec	 mov	 DWORD PTR $T190256[ebp], edx
  00094	8b 45 ec	 mov	 eax, DWORD PTR $T190256[ebp]
  00097	8b 08		 mov	 ecx, DWORD PTR [eax]
  00099	8b 55 08	 mov	 edx, DWORD PTR ___$ReturnUdt$[ebp]
  0009c	89 0a		 mov	 DWORD PTR [edx], ecx
  0009e	8b 45 08	 mov	 eax, DWORD PTR ___$ReturnUdt$[ebp]

; 791  : 		}

  000a1	52		 push	 edx
  000a2	8b cd		 mov	 ecx, ebp
  000a4	50		 push	 eax
  000a5	8d 15 00 00 00
	00		 lea	 edx, DWORD PTR $L190263
  000ab	e8 00 00 00 00	 call	 @_RTC_CheckStackVars@8
  000b0	58		 pop	 eax
  000b1	5a		 pop	 edx
  000b2	83 c4 20	 add	 esp, 32			; 00000020H
  000b5	3b ec		 cmp	 ebp, esp
  000b7	e8 00 00 00 00	 call	 __RTC_CheckEsp
  000bc	8b e5		 mov	 esp, ebp
  000be	5d		 pop	 ebp
  000bf	c2 08 00	 ret	 8
$L190263:
  000c2	01 00 00 00	 DD	 1
  000c6	00 00 00 00	 DD	 $L190262
$L190262:
  000ca	f4 ff ff ff	 DD	 -12			; fffffff4H
  000ce	04 00 00 00	 DD	 4
  000d2	00 00 00 00	 DD	 $L190261
$L190261:
  000d6	5f		 DB	 95			; 0000005fH
  000d7	57		 DB	 87			; 00000057H
  000d8	68		 DB	 104			; 00000068H
  000d9	65		 DB	 101			; 00000065H
  000da	72		 DB	 114			; 00000072H
  000db	65		 DB	 101			; 00000065H
  000dc	00		 DB	 0
?find@?$_Tree@V?$_Tmap_traits@KPAVIData@@U?$less@K@std@@V?$allocator@U?$pair@$$CBKPAVIData@@@std@@@3@$0A@@std@@@std@@QAE?AViterator@12@ABK@Z ENDP ; std::_Tree<std::_Tmap_traits<unsigned long,IData *,std::less<unsigned long>,std::allocator<std::pair<unsigned long const ,IData *> >,0> >::find
; Function compile flags: /Odt /RTCsu
_TEXT	ENDS
;	COMDAT ??Citerator@?$_Tree@V?$_Tmap_traits@KPAVIData@@U?$less@K@std@@V?$allocator@U?$pair@$$CBKPAVIData@@@std@@@3@$0A@@std@@@std@@QBEPAU?$pair@$$CBKPAVIData@@@2@XZ
_TEXT	SEGMENT
_this$ = -4						; size = 4
??Citerator@?$_Tree@V?$_Tmap_traits@KPAVIData@@U?$less@K@std@@V?$allocator@U?$pair@$$CBKPAVIData@@@std@@@3@$0A@@std@@@std@@QBEPAU?$pair@$$CBKPAVIData@@@2@XZ PROC NEAR ; std::_Tree<std::_Tmap_traits<unsigned long,IData *,std::less<unsigned long>,std::allocator<std::pair<unsigned long const ,IData *> >,0> >::iterator::operator->, COMDAT
; _this$ = ecx

; 321  : 			{	// return pointer to class object

  00000	55		 push	 ebp
  00001	8b ec		 mov	 ebp, esp
  00003	51		 push	 ecx
  00004	c7 45 fc cc cc
	cc cc		 mov	 DWORD PTR [ebp-4], -858993460 ; ccccccccH
  0000b	89 4d fc	 mov	 DWORD PTR _this$[ebp], ecx

; 322  : 			return (&**this);

  0000e	8b 4d fc	 mov	 ecx, DWORD PTR _this$[ebp]
  00011	e8 00 00 00 00	 call	 ??Diterator@?$_Tree@V?$_Tmap_traits@KPAVIData@@U?$less@K@std@@V?$allocator@U?$pair@$$CBKPAVIData@@@std@@@3@$0A@@std@@@std@@QBEAAU?$pair@$$CBKPAVIData@@@2@XZ ; std::_Tree<std::_Tmap_traits<unsigned long,IData *,std::less<unsigned long>,std::allocator<std::pair<unsigned long const ,IData *> >,0> >::iterator::operator*

; 323  : 			}

  00016	83 c4 04	 add	 esp, 4
  00019	3b ec		 cmp	 ebp, esp
  0001b	e8 00 00 00 00	 call	 __RTC_CheckEsp
  00020	8b e5		 mov	 esp, ebp
  00022	5d		 pop	 ebp
  00023	c3		 ret	 0
??Citerator@?$_Tree@V?$_Tmap_traits@KPAVIData@@U?$less@K@std@@V?$allocator@U?$pair@$$CBKPAVIData@@@std@@@3@$0A@@std@@@std@@QBEPAU?$pair@$$CBKPAVIData@@@2@XZ ENDP ; std::_Tree<std::_Tmap_traits<unsigned long,IData *,std::less<unsigned long>,std::allocator<std::pair<unsigned long const ,IData *> >,0> >::iterator::operator->
_TEXT	ENDS
PUBLIC	??Eiterator@?$_Tree@V?$_Tmap_traits@KPAVIData@@U?$less@K@std@@V?$allocator@U?$pair@$$CBKPAVIData@@@std@@@3@$0A@@std@@@std@@QAEAAV012@XZ ; std::_Tree<std::_Tmap_traits<unsigned long,IData *,std::less<unsigned long>,std::allocator<std::pair<unsigned long const ,IData *> >,0> >::iterator::operator++
; Function compile flags: /Odt /RTCsu
;	COMDAT ??Eiterator@?$_Tree@V?$_Tmap_traits@KPAVIData@@U?$less@K@std@@V?$allocator@U?$pair@$$CBKPAVIData@@@std@@@3@$0A@@std@@@std@@QAE?AV012@H@Z
_TEXT	SEGMENT
__Tmp$ = -12						; size = 4
_this$ = -4						; size = 4
___$ReturnUdt$ = 8					; size = 4
___formal$ = 12						; size = 4
??Eiterator@?$_Tree@V?$_Tmap_traits@KPAVIData@@U?$less@K@std@@V?$allocator@U?$pair@$$CBKPAVIData@@@std@@@3@$0A@@std@@@std@@QAE?AV012@H@Z PROC NEAR ; std::_Tree<std::_Tmap_traits<unsigned long,IData *,std::less<unsigned long>,std::allocator<std::pair<unsigned long const ,IData *> >,0> >::iterator::operator++, COMDAT
; _this$ = ecx

; 332  : 			{	// postincrement

  00000	55		 push	 ebp
  00001	8b ec		 mov	 ebp, esp
  00003	83 ec 10	 sub	 esp, 16			; 00000010H
  00006	b8 cc cc cc cc	 mov	 eax, -858993460		; ccccccccH
  0000b	89 45 f0	 mov	 DWORD PTR [ebp-16], eax
  0000e	89 45 f4	 mov	 DWORD PTR [ebp-12], eax
  00011	89 45 f8	 mov	 DWORD PTR [ebp-8], eax
  00014	89 45 fc	 mov	 DWORD PTR [ebp-4], eax
  00017	89 4d fc	 mov	 DWORD PTR _this$[ebp], ecx

; 333  : 			iterator _Tmp = *this;

  0001a	8b 45 fc	 mov	 eax, DWORD PTR _this$[ebp]
  0001d	8b 08		 mov	 ecx, DWORD PTR [eax]
  0001f	89 4d f4	 mov	 DWORD PTR __Tmp$[ebp], ecx

; 334  : 			++*this;

  00022	8b 4d fc	 mov	 ecx, DWORD PTR _this$[ebp]
  00025	e8 00 00 00 00	 call	 ??Eiterator@?$_Tree@V?$_Tmap_traits@KPAVIData@@U?$less@K@std@@V?$allocator@U?$pair@$$CBKPAVIData@@@std@@@3@$0A@@std@@@std@@QAEAAV012@XZ ; std::_Tree<std::_Tmap_traits<unsigned long,IData *,std::less<unsigned long>,std::allocator<std::pair<unsigned long const ,IData *> >,0> >::iterator::operator++

; 335  : 			return (_Tmp);

  0002a	8b 55 08	 mov	 edx, DWORD PTR ___$ReturnUdt$[ebp]
  0002d	8b 45 f4	 mov	 eax, DWORD PTR __Tmp$[ebp]
  00030	89 02		 mov	 DWORD PTR [edx], eax
  00032	8b 45 08	 mov	 eax, DWORD PTR ___$ReturnUdt$[ebp]

; 336  : 			}

  00035	52		 push	 edx
  00036	8b cd		 mov	 ecx, ebp
  00038	50		 push	 eax
  00039	8d 15 00 00 00
	00		 lea	 edx, DWORD PTR $L190268
  0003f	e8 00 00 00 00	 call	 @_RTC_CheckStackVars@8
  00044	58		 pop	 eax
  00045	5a		 pop	 edx
  00046	83 c4 10	 add	 esp, 16			; 00000010H
  00049	3b ec		 cmp	 ebp, esp
  0004b	e8 00 00 00 00	 call	 __RTC_CheckEsp
  00050	8b e5		 mov	 esp, ebp
  00052	5d		 pop	 ebp
  00053	c2 08 00	 ret	 8
$L190268:
  00056	01 00 00 00	 DD	 1
  0005a	00 00 00 00	 DD	 $L190267
$L190267:
  0005e	f4 ff ff ff	 DD	 -12			; fffffff4H
  00062	04 00 00 00	 DD	 4
  00066	00 00 00 00	 DD	 $L190266
$L190266:
  0006a	5f		 DB	 95			; 0000005fH
  0006b	54		 DB	 84			; 00000054H
  0006c	6d		 DB	 109			; 0000006dH
  0006d	70		 DB	 112			; 00000070H
  0006e	00		 DB	 0
??Eiterator@?$_Tree@V?$_Tmap_traits@KPAVIData@@U?$less@K@std@@V?$allocator@U?$pair@$$CBKPAVIData@@@std@@@3@$0A@@std@@@std@@QAE?AV012@H@Z ENDP ; std::_Tree<std::_Tmap_traits<unsigned long,IData *,std::less<unsigned long>,std::allocator<std::pair<unsigned long const ,IData *> >,0> >::iterator::operator++
; Function compile flags: /Odt /RTCsu
_TEXT	ENDS
;	COMDAT ??8const_iterator@?$_Tree@V?$_Tmap_traits@KPAVIData@@U?$less@K@std@@V?$allocator@U?$pair@$$CBKPAVIData@@@std@@@3@$0A@@std@@@std@@QBE_NABV012@@Z
_TEXT	SEGMENT
_this$ = -4						; size = 4
__Right$ = 8						; size = 4
??8const_iterator@?$_Tree@V?$_Tmap_traits@KPAVIData@@U?$less@K@std@@V?$allocator@U?$pair@$$CBKPAVIData@@@std@@@3@$0A@@std@@@std@@QBE_NABV012@@Z PROC NEAR ; std::_Tree<std::_Tmap_traits<unsigned long,IData *,std::less<unsigned long>,std::allocator<std::pair<unsigned long const ,IData *> >,0> >::const_iterator::operator==, COMDAT
; _this$ = ecx

; 240  : 			{	// test for iterator equality

  00000	55		 push	 ebp
  00001	8b ec		 mov	 ebp, esp
  00003	51		 push	 ecx
  00004	c7 45 fc cc cc
	cc cc		 mov	 DWORD PTR [ebp-4], -858993460 ; ccccccccH
  0000b	89 4d fc	 mov	 DWORD PTR _this$[ebp], ecx

; 241  : 			return (_Ptr == _Right._Ptr);

  0000e	8b 45 fc	 mov	 eax, DWORD PTR _this$[ebp]
  00011	8b 4d 08	 mov	 ecx, DWORD PTR __Right$[ebp]
  00014	8b 00		 mov	 eax, DWORD PTR [eax]
  00016	2b 01		 sub	 eax, DWORD PTR [ecx]
  00018	f7 d8		 neg	 eax
  0001a	1b c0		 sbb	 eax, eax
  0001c	40		 inc	 eax

; 242  : 			}

  0001d	8b e5		 mov	 esp, ebp
  0001f	5d		 pop	 ebp
  00020	c2 04 00	 ret	 4
??8const_iterator@?$_Tree@V?$_Tmap_traits@KPAVIData@@U?$less@K@std@@V?$allocator@U?$pair@$$CBKPAVIData@@@std@@@3@$0A@@std@@@std@@QBE_NABV012@@Z ENDP ; std::_Tree<std::_Tmap_traits<unsigned long,IData *,std::less<unsigned long>,std::allocator<std::pair<unsigned long const ,IData *> >,0> >::const_iterator::operator==
; Function compile flags: /Odt /RTCsu
_TEXT	ENDS
;	COMDAT ??9const_iterator@?$_Tree@V?$_Tmap_traits@KPAVIData@@U?$less@K@std@@V?$allocator@U?$pair@$$CBKPAVIData@@@std@@@3@$0A@@std@@@std@@QBE_NABV012@@Z
_TEXT	SEGMENT
_this$ = -4						; size = 4
__Right$ = 8						; size = 4
??9const_iterator@?$_Tree@V?$_Tmap_traits@KPAVIData@@U?$less@K@std@@V?$allocator@U?$pair@$$CBKPAVIData@@@std@@@3@$0A@@std@@@std@@QBE_NABV012@@Z PROC NEAR ; std::_Tree<std::_Tmap_traits<unsigned long,IData *,std::less<unsigned long>,std::allocator<std::pair<unsigned long const ,IData *> >,0> >::const_iterator::operator!=, COMDAT
; _this$ = ecx

; 245  : 			{	// test for iterator inequality

  00000	55		 push	 ebp
  00001	8b ec		 mov	 ebp, esp
  00003	51		 push	 ecx
  00004	c7 45 fc cc cc
	cc cc		 mov	 DWORD PTR [ebp-4], -858993460 ; ccccccccH
  0000b	89 4d fc	 mov	 DWORD PTR _this$[ebp], ecx

; 246  : 			return (!(*this == _Right));

  0000e	8b 45 08	 mov	 eax, DWORD PTR __Right$[ebp]
  00011	50		 push	 eax
  00012	8b 4d fc	 mov	 ecx, DWORD PTR _this$[ebp]
  00015	e8 00 00 00 00	 call	 ??8const_iterator@?$_Tree@V?$_Tmap_traits@KPAVIData@@U?$less@K@std@@V?$allocator@U?$pair@$$CBKPAVIData@@@std@@@3@$0A@@std@@@std@@QBE_NABV012@@Z ; std::_Tree<std::_Tmap_traits<unsigned long,IData *,std::less<unsigned long>,std::allocator<std::pair<unsigned long const ,IData *> >,0> >::const_iterator::operator==
  0001a	0f b6 c0	 movzx	 eax, al
  0001d	f7 d8		 neg	 eax
  0001f	1b c0		 sbb	 eax, eax
  00021	40		 inc	 eax

; 247  : 			}

  00022	83 c4 04	 add	 esp, 4
  00025	3b ec		 cmp	 ebp, esp
  00027	e8 00 00 00 00	 call	 __RTC_CheckEsp
  0002c	8b e5		 mov	 esp, ebp
  0002e	5d		 pop	 ebp
  0002f	c2 04 00	 ret	 4
??9const_iterator@?$_Tree@V?$_Tmap_traits@KPAVIData@@U?$less@K@std@@V?$allocator@U?$pair@$$CBKPAVIData@@@std@@@3@$0A@@std@@@std@@QBE_NABV012@@Z ENDP ; std::_Tree<std::_Tmap_traits<unsigned long,IData *,std::less<unsigned long>,std::allocator<std::pair<unsigned long const ,IData *> >,0> >::const_iterator::operator!=
_TEXT	ENDS
PUBLIC	?_Kfn@?$_Tmap_traits@KPAVIData@@U?$less@K@std@@V?$allocator@U?$pair@$$CBKPAVIData@@@std@@@3@$0A@@std@@SAABKABU?$pair@$$CBKPAVIData@@@2@@Z ; std::_Tmap_traits<unsigned long,IData *,std::less<unsigned long>,std::allocator<std::pair<unsigned long const ,IData *> >,0>::_Kfn
PUBLIC	?_Myval@?$_Tree@V?$_Tmap_traits@KPAVIData@@U?$less@K@std@@V?$allocator@U?$pair@$$CBKPAVIData@@@std@@@3@$0A@@std@@@std@@KAAAU?$pair@$$CBKPAVIData@@@2@PAU_Node@?$_Tree_nod@V?$_Tmap_traits@KPAVIData@@U?$less@K@std@@V?$allocator@U?$pair@$$CBKPAVIData@@@std@@@3@$0A@@std@@@2@@Z ; std::_Tree<std::_Tmap_traits<unsigned long,IData *,std::less<unsigned long>,std::allocator<std::pair<unsigned long const ,IData *> >,0> >::_Myval
; Function compile flags: /Odt /RTCsu
;	COMDAT ?_Key@?$_Tree@V?$_Tmap_traits@KPAVIData@@U?$less@K@std@@V?$allocator@U?$pair@$$CBKPAVIData@@@std@@@3@$0A@@std@@@std@@KAABKPAU_Node@?$_Tree_nod@V?$_Tmap_traits@KPAVIData@@U?$less@K@std@@V?$allocator@U?$pair@$$CBKPAVIData@@@std@@@3@$0A@@std@@@2@@Z
_TEXT	SEGMENT
__Pnode$ = 8						; size = 4
?_Key@?$_Tree@V?$_Tmap_traits@KPAVIData@@U?$less@K@std@@V?$allocator@U?$pair@$$CBKPAVIData@@@std@@@3@$0A@@std@@@std@@KAABKPAU_Node@?$_Tree_nod@V?$_Tmap_traits@KPAVIData@@U?$less@K@std@@V?$allocator@U?$pair@$$CBKPAVIData@@@std@@@3@$0A@@std@@@2@@Z PROC NEAR ; std::_Tree<std::_Tmap_traits<unsigned long,IData *,std::less<unsigned long>,std::allocator<std::pair<unsigned long const ,IData *> >,0> >::_Key, COMDAT

; 141  : 		{	// return reference to key in node

  00000	55		 push	 ebp
  00001	8b ec		 mov	 ebp, esp

; 142  : 		return (_Mybase::_Kfn(_Myval(_Pnode)));

  00003	8b 45 08	 mov	 eax, DWORD PTR __Pnode$[ebp]
  00006	50		 push	 eax
  00007	e8 00 00 00 00	 call	 ?_Myval@?$_Tree@V?$_Tmap_traits@KPAVIData@@U?$less@K@std@@V?$allocator@U?$pair@$$CBKPAVIData@@@std@@@3@$0A@@std@@@std@@KAAAU?$pair@$$CBKPAVIData@@@2@PAU_Node@?$_Tree_nod@V?$_Tmap_traits@KPAVIData@@U?$less@K@std@@V?$allocator@U?$pair@$$CBKPAVIData@@@std@@@3@$0A@@std@@@2@@Z ; std::_Tree<std::_Tmap_traits<unsigned long,IData *,std::less<unsigned long>,std::allocator<std::pair<unsigned long const ,IData *> >,0> >::_Myval
  0000c	83 c4 04	 add	 esp, 4
  0000f	50		 push	 eax
  00010	e8 00 00 00 00	 call	 ?_Kfn@?$_Tmap_traits@KPAVIData@@U?$less@K@std@@V?$allocator@U?$pair@$$CBKPAVIData@@@std@@@3@$0A@@std@@SAABKABU?$pair@$$CBKPAVIData@@@2@@Z ; std::_Tmap_traits<unsigned long,IData *,std::less<unsigned long>,std::allocator<std::pair<unsigned long const ,IData *> >,0>::_Kfn
  00015	83 c4 04	 add	 esp, 4

; 143  : 		}

  00018	3b ec		 cmp	 ebp, esp
  0001a	e8 00 00 00 00	 call	 __RTC_CheckEsp
  0001f	5d		 pop	 ebp
  00020	c3		 ret	 0
?_Key@?$_Tree@V?$_Tmap_traits@KPAVIData@@U?$less@K@std@@V?$allocator@U?$pair@$$CBKPAVIData@@@std@@@3@$0A@@std@@@std@@KAABKPAU_Node@?$_Tree_nod@V?$_Tmap_traits@KPAVIData@@U?$less@K@std@@V?$allocator@U?$pair@$$CBKPAVIData@@@std@@@3@$0A@@std@@@2@@Z ENDP ; std::_Tree<std::_Tmap_traits<unsigned long,IData *,std::less<unsigned long>,std::allocator<std::pair<unsigned long const ,IData *> >,0> >::_Key
_TEXT	ENDS
PUBLIC	??0?$allocator@U?$pair@$$CBKPAVIData@@@std@@@std@@QAE@ABV01@@Z ; std::allocator<std::pair<unsigned long const ,IData *> >::allocator<std::pair<unsigned long const ,IData *> >
PUBLIC	??0?$_Tree_val@V?$_Tmap_traits@KPAVIData@@U?$less@K@std@@V?$allocator@U?$pair@$$CBKPAVIData@@@std@@@3@$0A@@std@@@std@@IAE@ABU?$less@K@1@V?$allocator@U?$pair@$$CBKPAVIData@@@std@@@1@@Z ; std::_Tree_val<std::_Tmap_traits<unsigned long,IData *,std::less<unsigned long>,std::allocator<std::pair<unsigned long const ,IData *> >,0> >::_Tree_val<std::_Tmap_traits<unsigned long,IData *,std::less<unsigned long>,std::allocator<std::pair<unsigned long const ,IData *> >,0> >
PUBLIC	?_Init@?$_Tree@V?$_Tmap_traits@KPAVIData@@U?$less@K@std@@V?$allocator@U?$pair@$$CBKPAVIData@@@std@@@3@$0A@@std@@@std@@IAEXXZ ; std::_Tree<std::_Tmap_traits<unsigned long,IData *,std::less<unsigned long>,std::allocator<std::pair<unsigned long const ,IData *> >,0> >::_Init
; Function compile flags: /Odt /RTCsu
;	COMDAT ??0?$_Tree@V?$_Tmap_traits@KPAVIData@@U?$less@K@std@@V?$allocator@U?$pair@$$CBKPAVIData@@@std@@@3@$0A@@std@@@std@@QAE@ABU?$less@K@1@ABV?$allocator@U?$pair@$$CBKPAVIData@@@std@@@1@@Z
_TEXT	SEGMENT
_this$ = -4						; size = 4
__Parg$ = 8						; size = 4
__Al$ = 12						; size = 4
??0?$_Tree@V?$_Tmap_traits@KPAVIData@@U?$less@K@std@@V?$allocator@U?$pair@$$CBKPAVIData@@@std@@@3@$0A@@std@@@std@@QAE@ABU?$less@K@1@ABV?$allocator@U?$pair@$$CBKPAVIData@@@std@@@1@@Z PROC NEAR ; std::_Tree<std::_Tmap_traits<unsigned long,IData *,std::less<unsigned long>,std::allocator<std::pair<unsigned long const ,IData *> >,0> >::_Tree<std::_Tmap_traits<unsigned long,IData *,std::less<unsigned long>,std::allocator<std::pair<unsigned long const ,IData *> >,0> >, COMDAT
; _this$ = ecx

; 361  : 		{	// construct empty tree

  00000	55		 push	 ebp
  00001	8b ec		 mov	 ebp, esp
  00003	83 ec 08	 sub	 esp, 8
  00006	c7 45 f8 cc cc
	cc cc		 mov	 DWORD PTR [ebp-8], -858993460 ; ccccccccH
  0000d	c7 45 fc cc cc
	cc cc		 mov	 DWORD PTR [ebp-4], -858993460 ; ccccccccH
  00014	89 4d fc	 mov	 DWORD PTR _this$[ebp], ecx
  00017	51		 push	 ecx
  00018	8b cc		 mov	 ecx, esp
  0001a	8b 45 0c	 mov	 eax, DWORD PTR __Al$[ebp]
  0001d	50		 push	 eax
  0001e	e8 00 00 00 00	 call	 ??0?$allocator@U?$pair@$$CBKPAVIData@@@std@@@std@@QAE@ABV01@@Z ; std::allocator<std::pair<unsigned long const ,IData *> >::allocator<std::pair<unsigned long const ,IData *> >
  00023	8b 4d 08	 mov	 ecx, DWORD PTR __Parg$[ebp]
  00026	51		 push	 ecx
  00027	8b 4d fc	 mov	 ecx, DWORD PTR _this$[ebp]
  0002a	e8 00 00 00 00	 call	 ??0?$_Tree_val@V?$_Tmap_traits@KPAVIData@@U?$less@K@std@@V?$allocator@U?$pair@$$CBKPAVIData@@@std@@@3@$0A@@std@@@std@@IAE@ABU?$less@K@1@V?$allocator@U?$pair@$$CBKPAVIData@@@std@@@1@@Z ; std::_Tree_val<std::_Tmap_traits<unsigned long,IData *,std::less<unsigned long>,std::allocator<std::pair<unsigned long const ,IData *> >,0> >::_Tree_val<std::_Tmap_traits<unsigned long,IData *,std::less<unsigned long>,std::allocator<std::pair<unsigned long const ,IData *> >,0> >

; 362  : 		_Init();

  0002f	8b 4d fc	 mov	 ecx, DWORD PTR _this$[ebp]
  00032	e8 00 00 00 00	 call	 ?_Init@?$_Tree@V?$_Tmap_traits@KPAVIData@@U?$less@K@std@@V?$allocator@U?$pair@$$CBKPAVIData@@@std@@@3@$0A@@std@@@std@@IAEXXZ ; std::_Tree<std::_Tmap_traits<unsigned long,IData *,std::less<unsigned long>,std::allocator<std::pair<unsigned long const ,IData *> >,0> >::_Init

; 363  : 		}

  00037	8b 45 fc	 mov	 eax, DWORD PTR _this$[ebp]
  0003a	83 c4 08	 add	 esp, 8
  0003d	3b ec		 cmp	 ebp, esp
  0003f	e8 00 00 00 00	 call	 __RTC_CheckEsp
  00044	8b e5		 mov	 esp, ebp
  00046	5d		 pop	 ebp
  00047	c2 08 00	 ret	 8
??0?$_Tree@V?$_Tmap_traits@KPAVIData@@U?$less@K@std@@V?$allocator@U?$pair@$$CBKPAVIData@@@std@@@3@$0A@@std@@@std@@QAE@ABU?$less@K@1@ABV?$allocator@U?$pair@$$CBKPAVIData@@@std@@@1@@Z ENDP ; std::_Tree<std::_Tmap_traits<unsigned long,IData *,std::less<unsigned long>,std::allocator<std::pair<unsigned long const ,IData *> >,0> >::_Tree<std::_Tmap_traits<unsigned long,IData *,std::less<unsigned long>,std::allocator<std::pair<unsigned long const ,IData *> >,0> >
_TEXT	ENDS
PUBLIC	??0iterator@?$_Tree@V?$_Tmap_traits@KPAVIData@@U?$less@K@std@@V?$allocator@U?$pair@$$CBKPAVIData@@@std@@@3@$0A@@std@@@std@@QAE@XZ ; std::_Tree<std::_Tmap_traits<unsigned long,IData *,std::less<unsigned long>,std::allocator<std::pair<unsigned long const ,IData *> >,0> >::iterator::iterator
PUBLIC	??Fiterator@?$_Tree@V?$_Tmap_traits@KPAVIData@@U?$less@K@std@@V?$allocator@U?$pair@$$CBKPAVIData@@@std@@@3@$0A@@std@@@std@@QAEAAV012@XZ ; std::_Tree<std::_Tmap_traits<unsigned long,IData *,std::less<unsigned long>,std::allocator<std::pair<unsigned long const ,IData *> >,0> >::iterator::operator--
PUBLIC	?_Isnil@?$_Tree@V?$_Tmap_traits@KPAVIData@@U?$less@K@std@@V?$allocator@U?$pair@$$CBKPAVIData@@@std@@@3@$0A@@std@@@std@@KAAADPAU_Node@?$_Tree_nod@V?$_Tmap_traits@KPAVIData@@U?$less@K@std@@V?$allocator@U?$pair@$$CBKPAVIData@@@std@@@3@$0A@@std@@@2@@Z ; std::_Tree<std::_Tmap_traits<unsigned long,IData *,std::less<unsigned long>,std::allocator<std::pair<unsigned long const ,IData *> >,0> >::_Isnil
PUBLIC	?_Right@?$_Tree@V?$_Tmap_traits@KPAVIData@@U?$less@K@std@@V?$allocator@U?$pair@$$CBKPAVIData@@@std@@@3@$0A@@std@@@std@@KAAAPAU_Node@?$_Tree_nod@V?$_Tmap_traits@KPAVIData@@U?$less@K@std@@V?$allocator@U?$pair@$$CBKPAVIData@@@std@@@3@$0A@@std@@@2@PAU342@@Z ; std::_Tree<std::_Tmap_traits<unsigned long,IData *,std::less<unsigned long>,std::allocator<std::pair<unsigned long const ,IData *> >,0> >::_Right
PUBLIC	?size@?$_Tree@V?$_Tmap_traits@KPAVIData@@U?$less@K@std@@V?$allocator@U?$pair@$$CBKPAVIData@@@std@@@3@$0A@@std@@@std@@QBEIXZ ; std::_Tree<std::_Tmap_traits<unsigned long,IData *,std::less<unsigned long>,std::allocator<std::pair<unsigned long const ,IData *> >,0> >::size
PUBLIC	?insert@?$_Tree@V?$_Tmap_traits@KPAVIData@@U?$less@K@std@@V?$allocator@U?$pair@$$CBKPAVIData@@@std@@@3@$0A@@std@@@std@@QAE?AU?$pair@Viterator@?$_Tree@V?$_Tmap_traits@KPAVIData@@U?$less@K@std@@V?$allocator@U?$pair@$$CBKPAVIData@@@std@@@3@$0A@@std@@@std@@_N@2@ABU?$pair@$$CBKPAVIData@@@2@@Z ; std::_Tree<std::_Tmap_traits<unsigned long,IData *,std::less<unsigned long>,std::allocator<std::pair<unsigned long const ,IData *> >,0> >::insert
PUBLIC	?_Insert@?$_Tree@V?$_Tmap_traits@KPAVIData@@U?$less@K@std@@V?$allocator@U?$pair@$$CBKPAVIData@@@std@@@3@$0A@@std@@@std@@IAE?AViterator@12@_NPAU_Node@?$_Tree_nod@V?$_Tmap_traits@KPAVIData@@U?$less@K@std@@V?$allocator@U?$pair@$$CBKPAVIData@@@std@@@3@$0A@@std@@@2@ABU?$pair@$$CBKPAVIData@@@2@@Z ; std::_Tree<std::_Tmap_traits<unsigned long,IData *,std::less<unsigned long>,std::allocator<std::pair<unsigned long const ,IData *> >,0> >::_Insert
; Function compile flags: /Odt /RTCsu
;	COMDAT ?insert@?$_Tree@V?$_Tmap_traits@KPAVIData@@U?$less@K@std@@V?$allocator@U?$pair@$$CBKPAVIData@@@std@@@3@$0A@@std@@@std@@QAE?AViterator@12@V312@ABU?$pair@$$CBKPAVIData@@@2@@Z
_TEXT	SEGMENT
$T190281 = -48						; size = 8
$T190280 = -40						; size = 4
$T190279 = -36						; size = 4
$T190278 = -32						; size = 4
$T190277 = -28						; size = 4
$T190276 = -24						; size = 4
$T190275 = -20						; size = 4
__Next$ = -12						; size = 4
_this$ = -4						; size = 4
___$ReturnUdt$ = 8					; size = 4
__Where$ = 12						; size = 4
__Val$ = 16						; size = 4
?insert@?$_Tree@V?$_Tmap_traits@KPAVIData@@U?$less@K@std@@V?$allocator@U?$pair@$$CBKPAVIData@@@std@@@3@$0A@@std@@@std@@QAE?AViterator@12@V312@ABU?$pair@$$CBKPAVIData@@@2@@Z PROC NEAR ; std::_Tree<std::_Tmap_traits<unsigned long,IData *,std::less<unsigned long>,std::allocator<std::pair<unsigned long const ,IData *> >,0> >::insert, COMDAT
; _this$ = ecx

; 509  : 		{	// try to insert node with value _Val using _Where as a hint

  00000	55		 push	 ebp
  00001	8b ec		 mov	 ebp, esp
  00003	83 ec 30	 sub	 esp, 48			; 00000030H
  00006	57		 push	 edi
  00007	51		 push	 ecx
  00008	8d 7d d0	 lea	 edi, DWORD PTR [ebp-48]
  0000b	b9 0c 00 00 00	 mov	 ecx, 12			; 0000000cH
  00010	b8 cc cc cc cc	 mov	 eax, -858993460		; ccccccccH
  00015	f3 ab		 rep stosd
  00017	59		 pop	 ecx
  00018	89 4d fc	 mov	 DWORD PTR _this$[ebp], ecx

; 510  : 		iterator _Next;

  0001b	8d 4d f4	 lea	 ecx, DWORD PTR __Next$[ebp]
  0001e	e8 00 00 00 00	 call	 ??0iterator@?$_Tree@V?$_Tmap_traits@KPAVIData@@U?$less@K@std@@V?$allocator@U?$pair@$$CBKPAVIData@@@std@@@3@$0A@@std@@@std@@QAE@XZ ; std::_Tree<std::_Tmap_traits<unsigned long,IData *,std::less<unsigned long>,std::allocator<std::pair<unsigned long const ,IData *> >,0> >::iterator::iterator

; 511  : 
; 512  : 		if (size() == 0)

  00023	8b 4d fc	 mov	 ecx, DWORD PTR _this$[ebp]
  00026	e8 00 00 00 00	 call	 ?size@?$_Tree@V?$_Tmap_traits@KPAVIData@@U?$less@K@std@@V?$allocator@U?$pair@$$CBKPAVIData@@@std@@@3@$0A@@std@@@std@@QBEIXZ ; std::_Tree<std::_Tmap_traits<unsigned long,IData *,std::less<unsigned long>,std::allocator<std::pair<unsigned long const ,IData *> >,0> >::size
  0002b	85 c0		 test	 eax, eax
  0002d	75 21		 jne	 SHORT $L189101

; 513  : 			return (_Insert(true, _Myhead, _Val));	// insert into empty tree

  0002f	8b 45 10	 mov	 eax, DWORD PTR __Val$[ebp]
  00032	50		 push	 eax
  00033	8b 4d fc	 mov	 ecx, DWORD PTR _this$[ebp]
  00036	8b 51 04	 mov	 edx, DWORD PTR [ecx+4]
  00039	52		 push	 edx
  0003a	6a 01		 push	 1
  0003c	8b 45 08	 mov	 eax, DWORD PTR ___$ReturnUdt$[ebp]
  0003f	50		 push	 eax
  00040	8b 4d fc	 mov	 ecx, DWORD PTR _this$[ebp]
  00043	e8 00 00 00 00	 call	 ?_Insert@?$_Tree@V?$_Tmap_traits@KPAVIData@@U?$less@K@std@@V?$allocator@U?$pair@$$CBKPAVIData@@@std@@@3@$0A@@std@@@std@@IAE?AViterator@12@_NPAU_Node@?$_Tree_nod@V?$_Tmap_traits@KPAVIData@@U?$less@K@std@@V?$allocator@U?$pair@$$CBKPAVIData@@@std@@@3@$0A@@std@@@2@ABU?$pair@$$CBKPAVIData@@@2@@Z ; std::_Tree<std::_Tmap_traits<unsigned long,IData *,std::less<unsigned long>,std::allocator<std::pair<unsigned long const ,IData *> >,0> >::_Insert
  00048	8b 45 08	 mov	 eax, DWORD PTR ___$ReturnUdt$[ebp]
  0004b	e9 81 05 00 00	 jmp	 $L189099
$L189101:

; 514  : 		else if (this->_Multi)

  00050	33 c9		 xor	 ecx, ecx
  00052	0f 84 b5 02 00
	00		 je	 $L189104

; 515  : 			{	// insert even if duplicate
; 516  : 			if (_Where == begin())

  00058	8d 55 ec	 lea	 edx, DWORD PTR $T190275[ebp]
  0005b	52		 push	 edx
  0005c	8b 4d fc	 mov	 ecx, DWORD PTR _this$[ebp]
  0005f	e8 00 00 00 00	 call	 ?begin@?$_Tree@V?$_Tmap_traits@KPAVIData@@U?$less@K@std@@V?$allocator@U?$pair@$$CBKPAVIData@@@std@@@3@$0A@@std@@@std@@QAE?AViterator@12@XZ ; std::_Tree<std::_Tmap_traits<unsigned long,IData *,std::less<unsigned long>,std::allocator<std::pair<unsigned long const ,IData *> >,0> >::begin
  00064	50		 push	 eax
  00065	8d 4d 0c	 lea	 ecx, DWORD PTR __Where$[ebp]
  00068	e8 00 00 00 00	 call	 ??8const_iterator@?$_Tree@V?$_Tmap_traits@KPAVIData@@U?$less@K@std@@V?$allocator@U?$pair@$$CBKPAVIData@@@std@@@3@$0A@@std@@@std@@QBE_NABV012@@Z ; std::_Tree<std::_Tmap_traits<unsigned long,IData *,std::less<unsigned long>,std::allocator<std::pair<unsigned long const ,IData *> >,0> >::const_iterator::operator==
  0006d	0f b6 c0	 movzx	 eax, al
  00070	85 c0		 test	 eax, eax
  00072	74 56		 je	 SHORT $L189106

; 517  : 				{	// insert at beginning if before first element
; 518  : 				if (!this->comp(_Key(_Where._Mynode()), this->_Kfn(_Val)))

  00074	8b 4d 10	 mov	 ecx, DWORD PTR __Val$[ebp]
  00077	51		 push	 ecx
  00078	e8 00 00 00 00	 call	 ?_Kfn@?$_Tmap_traits@KPAVIData@@U?$less@K@std@@V?$allocator@U?$pair@$$CBKPAVIData@@@std@@@3@$0A@@std@@SAABKABU?$pair@$$CBKPAVIData@@@2@@Z ; std::_Tmap_traits<unsigned long,IData *,std::less<unsigned long>,std::allocator<std::pair<unsigned long const ,IData *> >,0>::_Kfn
  0007d	83 c4 04	 add	 esp, 4
  00080	50		 push	 eax
  00081	8d 4d 0c	 lea	 ecx, DWORD PTR __Where$[ebp]
  00084	e8 00 00 00 00	 call	 ?_Mynode@const_iterator@?$_Tree@V?$_Tmap_traits@KPAVIData@@U?$less@K@std@@V?$allocator@U?$pair@$$CBKPAVIData@@@std@@@3@$0A@@std@@@std@@QBEPAU_Node@?$_Tree_nod@V?$_Tmap_traits@KPAVIData@@U?$less@K@std@@V?$allocator@U?$pair@$$CBKPAVIData@@@std@@@3@$0A@@std@@@3@XZ ; std::_Tree<std::_Tmap_traits<unsigned long,IData *,std::less<unsigned long>,std::allocator<std::pair<unsigned long const ,IData *> >,0> >::const_iterator::_Mynode
  00089	50		 push	 eax
  0008a	e8 00 00 00 00	 call	 ?_Key@?$_Tree@V?$_Tmap_traits@KPAVIData@@U?$less@K@std@@V?$allocator@U?$pair@$$CBKPAVIData@@@std@@@3@$0A@@std@@@std@@KAABKPAU_Node@?$_Tree_nod@V?$_Tmap_traits@KPAVIData@@U?$less@K@std@@V?$allocator@U?$pair@$$CBKPAVIData@@@std@@@3@$0A@@std@@@2@@Z ; std::_Tree<std::_Tmap_traits<unsigned long,IData *,std::less<unsigned long>,std::allocator<std::pair<unsigned long const ,IData *> >,0> >::_Key
  0008f	83 c4 04	 add	 esp, 4
  00092	50		 push	 eax
  00093	8b 4d fc	 mov	 ecx, DWORD PTR _this$[ebp]
  00096	e8 00 00 00 00	 call	 ??R?$less@K@std@@QBE_NABK0@Z ; std::less<unsigned long>::operator()
  0009b	0f b6 d0	 movzx	 edx, al
  0009e	85 d2		 test	 edx, edx
  000a0	75 23		 jne	 SHORT $L189107

; 519  : 					return (_Insert(true, _Where._Mynode(), _Val));

  000a2	8b 45 10	 mov	 eax, DWORD PTR __Val$[ebp]
  000a5	50		 push	 eax
  000a6	8d 4d 0c	 lea	 ecx, DWORD PTR __Where$[ebp]
  000a9	e8 00 00 00 00	 call	 ?_Mynode@const_iterator@?$_Tree@V?$_Tmap_traits@KPAVIData@@U?$less@K@std@@V?$allocator@U?$pair@$$CBKPAVIData@@@std@@@3@$0A@@std@@@std@@QBEPAU_Node@?$_Tree_nod@V?$_Tmap_traits@KPAVIData@@U?$less@K@std@@V?$allocator@U?$pair@$$CBKPAVIData@@@std@@@3@$0A@@std@@@3@XZ ; std::_Tree<std::_Tmap_traits<unsigned long,IData *,std::less<unsigned long>,std::allocator<std::pair<unsigned long const ,IData *> >,0> >::const_iterator::_Mynode
  000ae	50		 push	 eax
  000af	6a 01		 push	 1
  000b1	8b 4d 08	 mov	 ecx, DWORD PTR ___$ReturnUdt$[ebp]
  000b4	51		 push	 ecx
  000b5	8b 4d fc	 mov	 ecx, DWORD PTR _this$[ebp]
  000b8	e8 00 00 00 00	 call	 ?_Insert@?$_Tree@V?$_Tmap_traits@KPAVIData@@U?$less@K@std@@V?$allocator@U?$pair@$$CBKPAVIData@@@std@@@3@$0A@@std@@@std@@IAE?AViterator@12@_NPAU_Node@?$_Tree_nod@V?$_Tmap_traits@KPAVIData@@U?$less@K@std@@V?$allocator@U?$pair@$$CBKPAVIData@@@std@@@3@$0A@@std@@@2@ABU?$pair@$$CBKPAVIData@@@2@@Z ; std::_Tree<std::_Tmap_traits<unsigned long,IData *,std::less<unsigned long>,std::allocator<std::pair<unsigned long const ,IData *> >,0> >::_Insert
  000bd	8b 45 08	 mov	 eax, DWORD PTR ___$ReturnUdt$[ebp]
  000c0	e9 0c 05 00 00	 jmp	 $L189099
$L189107:

; 520  : 				}
; 521  : 			else if (_Where == end())

  000c5	e9 3e 02 00 00	 jmp	 $L189109
$L189106:
  000ca	8d 55 e8	 lea	 edx, DWORD PTR $T190276[ebp]
  000cd	52		 push	 edx
  000ce	8b 4d fc	 mov	 ecx, DWORD PTR _this$[ebp]
  000d1	e8 00 00 00 00	 call	 ?end@?$_Tree@V?$_Tmap_traits@KPAVIData@@U?$less@K@std@@V?$allocator@U?$pair@$$CBKPAVIData@@@std@@@3@$0A@@std@@@std@@QAE?AViterator@12@XZ ; std::_Tree<std::_Tmap_traits<unsigned long,IData *,std::less<unsigned long>,std::allocator<std::pair<unsigned long const ,IData *> >,0> >::end
  000d6	50		 push	 eax
  000d7	8d 4d 0c	 lea	 ecx, DWORD PTR __Where$[ebp]
  000da	e8 00 00 00 00	 call	 ??8const_iterator@?$_Tree@V?$_Tmap_traits@KPAVIData@@U?$less@K@std@@V?$allocator@U?$pair@$$CBKPAVIData@@@std@@@3@$0A@@std@@@std@@QBE_NABV012@@Z ; std::_Tree<std::_Tmap_traits<unsigned long,IData *,std::less<unsigned long>,std::allocator<std::pair<unsigned long const ,IData *> >,0> >::const_iterator::operator==
  000df	0f b6 c0	 movzx	 eax, al
  000e2	85 c0		 test	 eax, eax
  000e4	74 5a		 je	 SHORT $L189111

; 522  : 				{	// insert at end if after last element
; 523  : 				if (!this->comp(this->_Kfn(_Val), _Key(_Rmost())))

  000e6	8b 4d fc	 mov	 ecx, DWORD PTR _this$[ebp]
  000e9	e8 00 00 00 00	 call	 ?_Rmost@?$_Tree@V?$_Tmap_traits@KPAVIData@@U?$less@K@std@@V?$allocator@U?$pair@$$CBKPAVIData@@@std@@@3@$0A@@std@@@std@@IAEAAPAU_Node@?$_Tree_nod@V?$_Tmap_traits@KPAVIData@@U?$less@K@std@@V?$allocator@U?$pair@$$CBKPAVIData@@@std@@@3@$0A@@std@@@2@XZ ; std::_Tree<std::_Tmap_traits<unsigned long,IData *,std::less<unsigned long>,std::allocator<std::pair<unsigned long const ,IData *> >,0> >::_Rmost
  000ee	8b 08		 mov	 ecx, DWORD PTR [eax]
  000f0	51		 push	 ecx
  000f1	e8 00 00 00 00	 call	 ?_Key@?$_Tree@V?$_Tmap_traits@KPAVIData@@U?$less@K@std@@V?$allocator@U?$pair@$$CBKPAVIData@@@std@@@3@$0A@@std@@@std@@KAABKPAU_Node@?$_Tree_nod@V?$_Tmap_traits@KPAVIData@@U?$less@K@std@@V?$allocator@U?$pair@$$CBKPAVIData@@@std@@@3@$0A@@std@@@2@@Z ; std::_Tree<std::_Tmap_traits<unsigned long,IData *,std::less<unsigned long>,std::allocator<std::pair<unsigned long const ,IData *> >,0> >::_Key
  000f6	83 c4 04	 add	 esp, 4
  000f9	50		 push	 eax
  000fa	8b 55 10	 mov	 edx, DWORD PTR __Val$[ebp]
  000fd	52		 push	 edx
  000fe	e8 00 00 00 00	 call	 ?_Kfn@?$_Tmap_traits@KPAVIData@@U?$less@K@std@@V?$allocator@U?$pair@$$CBKPAVIData@@@std@@@3@$0A@@std@@SAABKABU?$pair@$$CBKPAVIData@@@2@@Z ; std::_Tmap_traits<unsigned long,IData *,std::less<unsigned long>,std::allocator<std::pair<unsigned long const ,IData *> >,0>::_Kfn
  00103	83 c4 04	 add	 esp, 4
  00106	50		 push	 eax
  00107	8b 4d fc	 mov	 ecx, DWORD PTR _this$[ebp]
  0010a	e8 00 00 00 00	 call	 ??R?$less@K@std@@QBE_NABK0@Z ; std::less<unsigned long>::operator()
  0010f	0f b6 c0	 movzx	 eax, al
  00112	85 c0		 test	 eax, eax
  00114	75 25		 jne	 SHORT $L189112

; 524  : 					return (_Insert(false, _Rmost(), _Val));

  00116	8b 4d 10	 mov	 ecx, DWORD PTR __Val$[ebp]
  00119	51		 push	 ecx
  0011a	8b 4d fc	 mov	 ecx, DWORD PTR _this$[ebp]
  0011d	e8 00 00 00 00	 call	 ?_Rmost@?$_Tree@V?$_Tmap_traits@KPAVIData@@U?$less@K@std@@V?$allocator@U?$pair@$$CBKPAVIData@@@std@@@3@$0A@@std@@@std@@IAEAAPAU_Node@?$_Tree_nod@V?$_Tmap_traits@KPAVIData@@U?$less@K@std@@V?$allocator@U?$pair@$$CBKPAVIData@@@std@@@3@$0A@@std@@@2@XZ ; std::_Tree<std::_Tmap_traits<unsigned long,IData *,std::less<unsigned long>,std::allocator<std::pair<unsigned long const ,IData *> >,0> >::_Rmost
  00122	8b 10		 mov	 edx, DWORD PTR [eax]
  00124	52		 push	 edx
  00125	6a 00		 push	 0
  00127	8b 45 08	 mov	 eax, DWORD PTR ___$ReturnUdt$[ebp]
  0012a	50		 push	 eax
  0012b	8b 4d fc	 mov	 ecx, DWORD PTR _this$[ebp]
  0012e	e8 00 00 00 00	 call	 ?_Insert@?$_Tree@V?$_Tmap_traits@KPAVIData@@U?$less@K@std@@V?$allocator@U?$pair@$$CBKPAVIData@@@std@@@3@$0A@@std@@@std@@IAE?AViterator@12@_NPAU_Node@?$_Tree_nod@V?$_Tmap_traits@KPAVIData@@U?$less@K@std@@V?$allocator@U?$pair@$$CBKPAVIData@@@std@@@3@$0A@@std@@@2@ABU?$pair@$$CBKPAVIData@@@2@@Z ; std::_Tree<std::_Tmap_traits<unsigned long,IData *,std::less<unsigned long>,std::allocator<std::pair<unsigned long const ,IData *> >,0> >::_Insert
  00133	8b 45 08	 mov	 eax, DWORD PTR ___$ReturnUdt$[ebp]
  00136	e9 96 04 00 00	 jmp	 $L189099
$L189112:

; 525  : 				}
; 526  : 			else if (!this->comp(_Key(_Where._Mynode()), this->_Kfn(_Val))

  0013b	e9 c8 01 00 00	 jmp	 $L189109
$L189111:

; 527  : 				&& !this->comp(this->_Kfn(_Val),
; 528  : 					_Key((--(_Next = _Where))._Mynode())))

  00140	8b 4d 10	 mov	 ecx, DWORD PTR __Val$[ebp]
  00143	51		 push	 ecx
  00144	e8 00 00 00 00	 call	 ?_Kfn@?$_Tmap_traits@KPAVIData@@U?$less@K@std@@V?$allocator@U?$pair@$$CBKPAVIData@@@std@@@3@$0A@@std@@SAABKABU?$pair@$$CBKPAVIData@@@2@@Z ; std::_Tmap_traits<unsigned long,IData *,std::less<unsigned long>,std::allocator<std::pair<unsigned long const ,IData *> >,0>::_Kfn
  00149	83 c4 04	 add	 esp, 4
  0014c	50		 push	 eax
  0014d	8d 4d 0c	 lea	 ecx, DWORD PTR __Where$[ebp]
  00150	e8 00 00 00 00	 call	 ?_Mynode@const_iterator@?$_Tree@V?$_Tmap_traits@KPAVIData@@U?$less@K@std@@V?$allocator@U?$pair@$$CBKPAVIData@@@std@@@3@$0A@@std@@@std@@QBEPAU_Node@?$_Tree_nod@V?$_Tmap_traits@KPAVIData@@U?$less@K@std@@V?$allocator@U?$pair@$$CBKPAVIData@@@std@@@3@$0A@@std@@@3@XZ ; std::_Tree<std::_Tmap_traits<unsigned long,IData *,std::less<unsigned long>,std::allocator<std::pair<unsigned long const ,IData *> >,0> >::const_iterator::_Mynode
  00155	50		 push	 eax
  00156	e8 00 00 00 00	 call	 ?_Key@?$_Tree@V?$_Tmap_traits@KPAVIData@@U?$less@K@std@@V?$allocator@U?$pair@$$CBKPAVIData@@@std@@@3@$0A@@std@@@std@@KAABKPAU_Node@?$_Tree_nod@V?$_Tmap_traits@KPAVIData@@U?$less@K@std@@V?$allocator@U?$pair@$$CBKPAVIData@@@std@@@3@$0A@@std@@@2@@Z ; std::_Tree<std::_Tmap_traits<unsigned long,IData *,std::less<unsigned long>,std::allocator<std::pair<unsigned long const ,IData *> >,0> >::_Key
  0015b	83 c4 04	 add	 esp, 4
  0015e	50		 push	 eax
  0015f	8b 4d fc	 mov	 ecx, DWORD PTR _this$[ebp]
  00162	e8 00 00 00 00	 call	 ??R?$less@K@std@@QBE_NABK0@Z ; std::less<unsigned long>::operator()
  00167	0f b6 d0	 movzx	 edx, al
  0016a	85 d2		 test	 edx, edx
  0016c	0f 85 a4 00 00
	00		 jne	 $L189115
  00172	8b 45 0c	 mov	 eax, DWORD PTR __Where$[ebp]
  00175	89 45 f4	 mov	 DWORD PTR __Next$[ebp], eax
  00178	8d 4d f4	 lea	 ecx, DWORD PTR __Next$[ebp]
  0017b	e8 00 00 00 00	 call	 ??Fiterator@?$_Tree@V?$_Tmap_traits@KPAVIData@@U?$less@K@std@@V?$allocator@U?$pair@$$CBKPAVIData@@@std@@@3@$0A@@std@@@std@@QAEAAV012@XZ ; std::_Tree<std::_Tmap_traits<unsigned long,IData *,std::less<unsigned long>,std::allocator<std::pair<unsigned long const ,IData *> >,0> >::iterator::operator--
  00180	8b c8		 mov	 ecx, eax
  00182	e8 00 00 00 00	 call	 ?_Mynode@const_iterator@?$_Tree@V?$_Tmap_traits@KPAVIData@@U?$less@K@std@@V?$allocator@U?$pair@$$CBKPAVIData@@@std@@@3@$0A@@std@@@std@@QBEPAU_Node@?$_Tree_nod@V?$_Tmap_traits@KPAVIData@@U?$less@K@std@@V?$allocator@U?$pair@$$CBKPAVIData@@@std@@@3@$0A@@std@@@3@XZ ; std::_Tree<std::_Tmap_traits<unsigned long,IData *,std::less<unsigned long>,std::allocator<std::pair<unsigned long const ,IData *> >,0> >::const_iterator::_Mynode
  00187	50		 push	 eax
  00188	e8 00 00 00 00	 call	 ?_Key@?$_Tree@V?$_Tmap_traits@KPAVIData@@U?$less@K@std@@V?$allocator@U?$pair@$$CBKPAVIData@@@std@@@3@$0A@@std@@@std@@KAABKPAU_Node@?$_Tree_nod@V?$_Tmap_traits@KPAVIData@@U?$less@K@std@@V?$allocator@U?$pair@$$CBKPAVIData@@@std@@@3@$0A@@std@@@2@@Z ; std::_Tree<std::_Tmap_traits<unsigned long,IData *,std::less<unsigned long>,std::allocator<std::pair<unsigned long const ,IData *> >,0> >::_Key
  0018d	83 c4 04	 add	 esp, 4
  00190	50		 push	 eax
  00191	8b 4d 10	 mov	 ecx, DWORD PTR __Val$[ebp]
  00194	51		 push	 ecx
  00195	e8 00 00 00 00	 call	 ?_Kfn@?$_Tmap_traits@KPAVIData@@U?$less@K@std@@V?$allocator@U?$pair@$$CBKPAVIData@@@std@@@3@$0A@@std@@SAABKABU?$pair@$$CBKPAVIData@@@2@@Z ; std::_Tmap_traits<unsigned long,IData *,std::less<unsigned long>,std::allocator<std::pair<unsigned long const ,IData *> >,0>::_Kfn
  0019a	83 c4 04	 add	 esp, 4
  0019d	50		 push	 eax
  0019e	8b 4d fc	 mov	 ecx, DWORD PTR _this$[ebp]
  001a1	e8 00 00 00 00	 call	 ??R?$less@K@std@@QBE_NABK0@Z ; std::less<unsigned long>::operator()
  001a6	0f b6 d0	 movzx	 edx, al
  001a9	85 d2		 test	 edx, edx
  001ab	75 69		 jne	 SHORT $L189115

; 529  : 				{	// insert before _Where
; 530  : 				if (_Isnil(_Right(_Next._Mynode())))

  001ad	8d 4d f4	 lea	 ecx, DWORD PTR __Next$[ebp]
  001b0	e8 00 00 00 00	 call	 ?_Mynode@const_iterator@?$_Tree@V?$_Tmap_traits@KPAVIData@@U?$less@K@std@@V?$allocator@U?$pair@$$CBKPAVIData@@@std@@@3@$0A@@std@@@std@@QBEPAU_Node@?$_Tree_nod@V?$_Tmap_traits@KPAVIData@@U?$less@K@std@@V?$allocator@U?$pair@$$CBKPAVIData@@@std@@@3@$0A@@std@@@3@XZ ; std::_Tree<std::_Tmap_traits<unsigned long,IData *,std::less<unsigned long>,std::allocator<std::pair<unsigned long const ,IData *> >,0> >::const_iterator::_Mynode
  001b5	50		 push	 eax
  001b6	e8 00 00 00 00	 call	 ?_Right@?$_Tree@V?$_Tmap_traits@KPAVIData@@U?$less@K@std@@V?$allocator@U?$pair@$$CBKPAVIData@@@std@@@3@$0A@@std@@@std@@KAAAPAU_Node@?$_Tree_nod@V?$_Tmap_traits@KPAVIData@@U?$less@K@std@@V?$allocator@U?$pair@$$CBKPAVIData@@@std@@@3@$0A@@std@@@2@PAU342@@Z ; std::_Tree<std::_Tmap_traits<unsigned long,IData *,std::less<unsigned long>,std::allocator<std::pair<unsigned long const ,IData *> >,0> >::_Right
  001bb	83 c4 04	 add	 esp, 4
  001be	8b 00		 mov	 eax, DWORD PTR [eax]
  001c0	50		 push	 eax
  001c1	e8 00 00 00 00	 call	 ?_Isnil@?$_Tree@V?$_Tmap_traits@KPAVIData@@U?$less@K@std@@V?$allocator@U?$pair@$$CBKPAVIData@@@std@@@3@$0A@@std@@@std@@KAAADPAU_Node@?$_Tree_nod@V?$_Tmap_traits@KPAVIData@@U?$less@K@std@@V?$allocator@U?$pair@$$CBKPAVIData@@@std@@@3@$0A@@std@@@2@@Z ; std::_Tree<std::_Tmap_traits<unsigned long,IData *,std::less<unsigned long>,std::allocator<std::pair<unsigned long const ,IData *> >,0> >::_Isnil
  001c6	83 c4 04	 add	 esp, 4
  001c9	0f be 08	 movsx	 ecx, BYTE PTR [eax]
  001cc	85 c9		 test	 ecx, ecx
  001ce	74 23		 je	 SHORT $L189116

; 531  : 					return (_Insert(false, _Next._Mynode(), _Val));

  001d0	8b 55 10	 mov	 edx, DWORD PTR __Val$[ebp]
  001d3	52		 push	 edx
  001d4	8d 4d f4	 lea	 ecx, DWORD PTR __Next$[ebp]
  001d7	e8 00 00 00 00	 call	 ?_Mynode@const_iterator@?$_Tree@V?$_Tmap_traits@KPAVIData@@U?$less@K@std@@V?$allocator@U?$pair@$$CBKPAVIData@@@std@@@3@$0A@@std@@@std@@QBEPAU_Node@?$_Tree_nod@V?$_Tmap_traits@KPAVIData@@U?$less@K@std@@V?$allocator@U?$pair@$$CBKPAVIData@@@std@@@3@$0A@@std@@@3@XZ ; std::_Tree<std::_Tmap_traits<unsigned long,IData *,std::less<unsigned long>,std::allocator<std::pair<unsigned long const ,IData *> >,0> >::const_iterator::_Mynode
  001dc	50		 push	 eax
  001dd	6a 00		 push	 0
  001df	8b 45 08	 mov	 eax, DWORD PTR ___$ReturnUdt$[ebp]
  001e2	50		 push	 eax
  001e3	8b 4d fc	 mov	 ecx, DWORD PTR _this$[ebp]
  001e6	e8 00 00 00 00	 call	 ?_Insert@?$_Tree@V?$_Tmap_traits@KPAVIData@@U?$less@K@std@@V?$allocator@U?$pair@$$CBKPAVIData@@@std@@@3@$0A@@std@@@std@@IAE?AViterator@12@_NPAU_Node@?$_Tree_nod@V?$_Tmap_traits@KPAVIData@@U?$less@K@std@@V?$allocator@U?$pair@$$CBKPAVIData@@@std@@@3@$0A@@std@@@2@ABU?$pair@$$CBKPAVIData@@@2@@Z ; std::_Tree<std::_Tmap_traits<unsigned long,IData *,std::less<unsigned long>,std::allocator<std::pair<unsigned long const ,IData *> >,0> >::_Insert
  001eb	8b 45 08	 mov	 eax, DWORD PTR ___$ReturnUdt$[ebp]
  001ee	e9 de 03 00 00	 jmp	 $L189099
$L189116:

; 532  : 				else
; 533  : 					return (_Insert(true, _Where._Mynode(), _Val));

  001f3	8b 4d 10	 mov	 ecx, DWORD PTR __Val$[ebp]
  001f6	51		 push	 ecx
  001f7	8d 4d 0c	 lea	 ecx, DWORD PTR __Where$[ebp]
  001fa	e8 00 00 00 00	 call	 ?_Mynode@const_iterator@?$_Tree@V?$_Tmap_traits@KPAVIData@@U?$less@K@std@@V?$allocator@U?$pair@$$CBKPAVIData@@@std@@@3@$0A@@std@@@std@@QBEPAU_Node@?$_Tree_nod@V?$_Tmap_traits@KPAVIData@@U?$less@K@std@@V?$allocator@U?$pair@$$CBKPAVIData@@@std@@@3@$0A@@std@@@3@XZ ; std::_Tree<std::_Tmap_traits<unsigned long,IData *,std::less<unsigned long>,std::allocator<std::pair<unsigned long const ,IData *> >,0> >::const_iterator::_Mynode
  001ff	50		 push	 eax
  00200	6a 01		 push	 1
  00202	8b 55 08	 mov	 edx, DWORD PTR ___$ReturnUdt$[ebp]
  00205	52		 push	 edx
  00206	8b 4d fc	 mov	 ecx, DWORD PTR _this$[ebp]
  00209	e8 00 00 00 00	 call	 ?_Insert@?$_Tree@V?$_Tmap_traits@KPAVIData@@U?$less@K@std@@V?$allocator@U?$pair@$$CBKPAVIData@@@std@@@3@$0A@@std@@@std@@IAE?AViterator@12@_NPAU_Node@?$_Tree_nod@V?$_Tmap_traits@KPAVIData@@U?$less@K@std@@V?$allocator@U?$pair@$$CBKPAVIData@@@std@@@3@$0A@@std@@@2@ABU?$pair@$$CBKPAVIData@@@2@@Z ; std::_Tree<std::_Tmap_traits<unsigned long,IData *,std::less<unsigned long>,std::allocator<std::pair<unsigned long const ,IData *> >,0> >::_Insert
  0020e	8b 45 08	 mov	 eax, DWORD PTR ___$ReturnUdt$[ebp]
  00211	e9 bb 03 00 00	 jmp	 $L189099
$L189115:

; 534  : 				}
; 535  : 			else if (!this->comp(this->_Kfn(_Val), _Key(_Where._Mynode()))
; 536  : 				&& (++(_Next = _Where) == end()
; 537  : 					|| !this->comp(_Key(_Next._Mynode()),
; 538  : 						this->_Kfn(_Val))))

  00216	8d 4d 0c	 lea	 ecx, DWORD PTR __Where$[ebp]
  00219	e8 00 00 00 00	 call	 ?_Mynode@const_iterator@?$_Tree@V?$_Tmap_traits@KPAVIData@@U?$less@K@std@@V?$allocator@U?$pair@$$CBKPAVIData@@@std@@@3@$0A@@std@@@std@@QBEPAU_Node@?$_Tree_nod@V?$_Tmap_traits@KPAVIData@@U?$less@K@std@@V?$allocator@U?$pair@$$CBKPAVIData@@@std@@@3@$0A@@std@@@3@XZ ; std::_Tree<std::_Tmap_traits<unsigned long,IData *,std::less<unsigned long>,std::allocator<std::pair<unsigned long const ,IData *> >,0> >::const_iterator::_Mynode
  0021e	50		 push	 eax
  0021f	e8 00 00 00 00	 call	 ?_Key@?$_Tree@V?$_Tmap_traits@KPAVIData@@U?$less@K@std@@V?$allocator@U?$pair@$$CBKPAVIData@@@std@@@3@$0A@@std@@@std@@KAABKPAU_Node@?$_Tree_nod@V?$_Tmap_traits@KPAVIData@@U?$less@K@std@@V?$allocator@U?$pair@$$CBKPAVIData@@@std@@@3@$0A@@std@@@2@@Z ; std::_Tree<std::_Tmap_traits<unsigned long,IData *,std::less<unsigned long>,std::allocator<std::pair<unsigned long const ,IData *> >,0> >::_Key
  00224	83 c4 04	 add	 esp, 4
  00227	50		 push	 eax
  00228	8b 45 10	 mov	 eax, DWORD PTR __Val$[ebp]
  0022b	50		 push	 eax
  0022c	e8 00 00 00 00	 call	 ?_Kfn@?$_Tmap_traits@KPAVIData@@U?$less@K@std@@V?$allocator@U?$pair@$$CBKPAVIData@@@std@@@3@$0A@@std@@SAABKABU?$pair@$$CBKPAVIData@@@2@@Z ; std::_Tmap_traits<unsigned long,IData *,std::less<unsigned long>,std::allocator<std::pair<unsigned long const ,IData *> >,0>::_Kfn
  00231	83 c4 04	 add	 esp, 4
  00234	50		 push	 eax
  00235	8b 4d fc	 mov	 ecx, DWORD PTR _this$[ebp]
  00238	e8 00 00 00 00	 call	 ??R?$less@K@std@@QBE_NABK0@Z ; std::less<unsigned long>::operator()
  0023d	0f b6 c8	 movzx	 ecx, al
  00240	85 c9		 test	 ecx, ecx
  00242	0f 85 c0 00 00
	00		 jne	 $L189109
  00248	8b 55 0c	 mov	 edx, DWORD PTR __Where$[ebp]
  0024b	89 55 f4	 mov	 DWORD PTR __Next$[ebp], edx
  0024e	8d 45 e4	 lea	 eax, DWORD PTR $T190277[ebp]
  00251	50		 push	 eax
  00252	8b 4d fc	 mov	 ecx, DWORD PTR _this$[ebp]
  00255	e8 00 00 00 00	 call	 ?end@?$_Tree@V?$_Tmap_traits@KPAVIData@@U?$less@K@std@@V?$allocator@U?$pair@$$CBKPAVIData@@@std@@@3@$0A@@std@@@std@@QAE?AViterator@12@XZ ; std::_Tree<std::_Tmap_traits<unsigned long,IData *,std::less<unsigned long>,std::allocator<std::pair<unsigned long const ,IData *> >,0> >::end
  0025a	50		 push	 eax
  0025b	8d 4d f4	 lea	 ecx, DWORD PTR __Next$[ebp]
  0025e	e8 00 00 00 00	 call	 ??Eiterator@?$_Tree@V?$_Tmap_traits@KPAVIData@@U?$less@K@std@@V?$allocator@U?$pair@$$CBKPAVIData@@@std@@@3@$0A@@std@@@std@@QAEAAV012@XZ ; std::_Tree<std::_Tmap_traits<unsigned long,IData *,std::less<unsigned long>,std::allocator<std::pair<unsigned long const ,IData *> >,0> >::iterator::operator++
  00263	8b c8		 mov	 ecx, eax
  00265	e8 00 00 00 00	 call	 ??8const_iterator@?$_Tree@V?$_Tmap_traits@KPAVIData@@U?$less@K@std@@V?$allocator@U?$pair@$$CBKPAVIData@@@std@@@3@$0A@@std@@@std@@QBE_NABV012@@Z ; std::_Tree<std::_Tmap_traits<unsigned long,IData *,std::less<unsigned long>,std::allocator<std::pair<unsigned long const ,IData *> >,0> >::const_iterator::operator==
  0026a	0f b6 c8	 movzx	 ecx, al
  0026d	85 c9		 test	 ecx, ecx
  0026f	75 2e		 jne	 SHORT $L189123
  00271	8b 55 10	 mov	 edx, DWORD PTR __Val$[ebp]
  00274	52		 push	 edx
  00275	e8 00 00 00 00	 call	 ?_Kfn@?$_Tmap_traits@KPAVIData@@U?$less@K@std@@V?$allocator@U?$pair@$$CBKPAVIData@@@std@@@3@$0A@@std@@SAABKABU?$pair@$$CBKPAVIData@@@2@@Z ; std::_Tmap_traits<unsigned long,IData *,std::less<unsigned long>,std::allocator<std::pair<unsigned long const ,IData *> >,0>::_Kfn
  0027a	83 c4 04	 add	 esp, 4
  0027d	50		 push	 eax
  0027e	8d 4d f4	 lea	 ecx, DWORD PTR __Next$[ebp]
  00281	e8 00 00 00 00	 call	 ?_Mynode@const_iterator@?$_Tree@V?$_Tmap_traits@KPAVIData@@U?$less@K@std@@V?$allocator@U?$pair@$$CBKPAVIData@@@std@@@3@$0A@@std@@@std@@QBEPAU_Node@?$_Tree_nod@V?$_Tmap_traits@KPAVIData@@U?$less@K@std@@V?$allocator@U?$pair@$$CBKPAVIData@@@std@@@3@$0A@@std@@@3@XZ ; std::_Tree<std::_Tmap_traits<unsigned long,IData *,std::less<unsigned long>,std::allocator<std::pair<unsigned long const ,IData *> >,0> >::const_iterator::_Mynode
  00286	50		 push	 eax
  00287	e8 00 00 00 00	 call	 ?_Key@?$_Tree@V?$_Tmap_traits@KPAVIData@@U?$less@K@std@@V?$allocator@U?$pair@$$CBKPAVIData@@@std@@@3@$0A@@std@@@std@@KAABKPAU_Node@?$_Tree_nod@V?$_Tmap_traits@KPAVIData@@U?$less@K@std@@V?$allocator@U?$pair@$$CBKPAVIData@@@std@@@3@$0A@@std@@@2@@Z ; std::_Tree<std::_Tmap_traits<unsigned long,IData *,std::less<unsigned long>,std::allocator<std::pair<unsigned long const ,IData *> >,0> >::_Key
  0028c	83 c4 04	 add	 esp, 4
  0028f	50		 push	 eax
  00290	8b 4d fc	 mov	 ecx, DWORD PTR _this$[ebp]
  00293	e8 00 00 00 00	 call	 ??R?$less@K@std@@QBE_NABK0@Z ; std::less<unsigned long>::operator()
  00298	0f b6 c0	 movzx	 eax, al
  0029b	85 c0		 test	 eax, eax
  0029d	75 69		 jne	 SHORT $L189109
$L189123:

; 539  : 				{	// insert after _Where
; 540  : 				if (_Isnil(_Right(_Where._Mynode())))

  0029f	8d 4d 0c	 lea	 ecx, DWORD PTR __Where$[ebp]
  002a2	e8 00 00 00 00	 call	 ?_Mynode@const_iterator@?$_Tree@V?$_Tmap_traits@KPAVIData@@U?$less@K@std@@V?$allocator@U?$pair@$$CBKPAVIData@@@std@@@3@$0A@@std@@@std@@QBEPAU_Node@?$_Tree_nod@V?$_Tmap_traits@KPAVIData@@U?$less@K@std@@V?$allocator@U?$pair@$$CBKPAVIData@@@std@@@3@$0A@@std@@@3@XZ ; std::_Tree<std::_Tmap_traits<unsigned long,IData *,std::less<unsigned long>,std::allocator<std::pair<unsigned long const ,IData *> >,0> >::const_iterator::_Mynode
  002a7	50		 push	 eax
  002a8	e8 00 00 00 00	 call	 ?_Right@?$_Tree@V?$_Tmap_traits@KPAVIData@@U?$less@K@std@@V?$allocator@U?$pair@$$CBKPAVIData@@@std@@@3@$0A@@std@@@std@@KAAAPAU_Node@?$_Tree_nod@V?$_Tmap_traits@KPAVIData@@U?$less@K@std@@V?$allocator@U?$pair@$$CBKPAVIData@@@std@@@3@$0A@@std@@@2@PAU342@@Z ; std::_Tree<std::_Tmap_traits<unsigned long,IData *,std::less<unsigned long>,std::allocator<std::pair<unsigned long const ,IData *> >,0> >::_Right
  002ad	83 c4 04	 add	 esp, 4
  002b0	8b 08		 mov	 ecx, DWORD PTR [eax]
  002b2	51		 push	 ecx
  002b3	e8 00 00 00 00	 call	 ?_Isnil@?$_Tree@V?$_Tmap_traits@KPAVIData@@U?$less@K@std@@V?$allocator@U?$pair@$$CBKPAVIData@@@std@@@3@$0A@@std@@@std@@KAAADPAU_Node@?$_Tree_nod@V?$_Tmap_traits@KPAVIData@@U?$less@K@std@@V?$allocator@U?$pair@$$CBKPAVIData@@@std@@@3@$0A@@std@@@2@@Z ; std::_Tree<std::_Tmap_traits<unsigned long,IData *,std::less<unsigned long>,std::allocator<std::pair<unsigned long const ,IData *> >,0> >::_Isnil
  002b8	83 c4 04	 add	 esp, 4
  002bb	0f be 10	 movsx	 edx, BYTE PTR [eax]
  002be	85 d2		 test	 edx, edx
  002c0	74 23		 je	 SHORT $L189124

; 541  : 					return (_Insert(false, _Where._Mynode(), _Val));

  002c2	8b 45 10	 mov	 eax, DWORD PTR __Val$[ebp]
  002c5	50		 push	 eax
  002c6	8d 4d 0c	 lea	 ecx, DWORD PTR __Where$[ebp]
  002c9	e8 00 00 00 00	 call	 ?_Mynode@const_iterator@?$_Tree@V?$_Tmap_traits@KPAVIData@@U?$less@K@std@@V?$allocator@U?$pair@$$CBKPAVIData@@@std@@@3@$0A@@std@@@std@@QBEPAU_Node@?$_Tree_nod@V?$_Tmap_traits@KPAVIData@@U?$less@K@std@@V?$allocator@U?$pair@$$CBKPAVIData@@@std@@@3@$0A@@std@@@3@XZ ; std::_Tree<std::_Tmap_traits<unsigned long,IData *,std::less<unsigned long>,std::allocator<std::pair<unsigned long const ,IData *> >,0> >::const_iterator::_Mynode
  002ce	50		 push	 eax
  002cf	6a 00		 push	 0
  002d1	8b 4d 08	 mov	 ecx, DWORD PTR ___$ReturnUdt$[ebp]
  002d4	51		 push	 ecx
  002d5	8b 4d fc	 mov	 ecx, DWORD PTR _this$[ebp]
  002d8	e8 00 00 00 00	 call	 ?_Insert@?$_Tree@V?$_Tmap_traits@KPAVIData@@U?$less@K@std@@V?$allocator@U?$pair@$$CBKPAVIData@@@std@@@3@$0A@@std@@@std@@IAE?AViterator@12@_NPAU_Node@?$_Tree_nod@V?$_Tmap_traits@KPAVIData@@U?$less@K@std@@V?$allocator@U?$pair@$$CBKPAVIData@@@std@@@3@$0A@@std@@@2@ABU?$pair@$$CBKPAVIData@@@2@@Z ; std::_Tree<std::_Tmap_traits<unsigned long,IData *,std::less<unsigned long>,std::allocator<std::pair<unsigned long const ,IData *> >,0> >::_Insert
  002dd	8b 45 08	 mov	 eax, DWORD PTR ___$ReturnUdt$[ebp]
  002e0	e9 ec 02 00 00	 jmp	 $L189099
$L189124:

; 542  : 				else
; 543  : 					return (_Insert(true, _Next._Mynode(), _Val));

  002e5	8b 55 10	 mov	 edx, DWORD PTR __Val$[ebp]
  002e8	52		 push	 edx
  002e9	8d 4d f4	 lea	 ecx, DWORD PTR __Next$[ebp]
  002ec	e8 00 00 00 00	 call	 ?_Mynode@const_iterator@?$_Tree@V?$_Tmap_traits@KPAVIData@@U?$less@K@std@@V?$allocator@U?$pair@$$CBKPAVIData@@@std@@@3@$0A@@std@@@std@@QBEPAU_Node@?$_Tree_nod@V?$_Tmap_traits@KPAVIData@@U?$less@K@std@@V?$allocator@U?$pair@$$CBKPAVIData@@@std@@@3@$0A@@std@@@3@XZ ; std::_Tree<std::_Tmap_traits<unsigned long,IData *,std::less<unsigned long>,std::allocator<std::pair<unsigned long const ,IData *> >,0> >::const_iterator::_Mynode
  002f1	50		 push	 eax
  002f2	6a 01		 push	 1
  002f4	8b 45 08	 mov	 eax, DWORD PTR ___$ReturnUdt$[ebp]
  002f7	50		 push	 eax
  002f8	8b 4d fc	 mov	 ecx, DWORD PTR _this$[ebp]
  002fb	e8 00 00 00 00	 call	 ?_Insert@?$_Tree@V?$_Tmap_traits@KPAVIData@@U?$less@K@std@@V?$allocator@U?$pair@$$CBKPAVIData@@@std@@@3@$0A@@std@@@std@@IAE?AViterator@12@_NPAU_Node@?$_Tree_nod@V?$_Tmap_traits@KPAVIData@@U?$less@K@std@@V?$allocator@U?$pair@$$CBKPAVIData@@@std@@@3@$0A@@std@@@2@ABU?$pair@$$CBKPAVIData@@@2@@Z ; std::_Tree<std::_Tmap_traits<unsigned long,IData *,std::less<unsigned long>,std::allocator<std::pair<unsigned long const ,IData *> >,0> >::_Insert
  00300	8b 45 08	 mov	 eax, DWORD PTR ___$ReturnUdt$[ebp]
  00303	e9 c9 02 00 00	 jmp	 $L189099
$L189109:

; 544  : 				}
; 545  : 			}
; 546  : 		else

  00308	e9 aa 02 00 00	 jmp	 $L189103
$L189104:

; 547  : 			{	// insert only if unique
; 548  : 			if (_Where == begin())

  0030d	8d 4d e0	 lea	 ecx, DWORD PTR $T190278[ebp]
  00310	51		 push	 ecx
  00311	8b 4d fc	 mov	 ecx, DWORD PTR _this$[ebp]
  00314	e8 00 00 00 00	 call	 ?begin@?$_Tree@V?$_Tmap_traits@KPAVIData@@U?$less@K@std@@V?$allocator@U?$pair@$$CBKPAVIData@@@std@@@3@$0A@@std@@@std@@QAE?AViterator@12@XZ ; std::_Tree<std::_Tmap_traits<unsigned long,IData *,std::less<unsigned long>,std::allocator<std::pair<unsigned long const ,IData *> >,0> >::begin
  00319	50		 push	 eax
  0031a	8d 4d 0c	 lea	 ecx, DWORD PTR __Where$[ebp]
  0031d	e8 00 00 00 00	 call	 ??8const_iterator@?$_Tree@V?$_Tmap_traits@KPAVIData@@U?$less@K@std@@V?$allocator@U?$pair@$$CBKPAVIData@@@std@@@3@$0A@@std@@@std@@QBE_NABV012@@Z ; std::_Tree<std::_Tmap_traits<unsigned long,IData *,std::less<unsigned long>,std::allocator<std::pair<unsigned long const ,IData *> >,0> >::const_iterator::operator==
  00322	0f b6 d0	 movzx	 edx, al
  00325	85 d2		 test	 edx, edx
  00327	74 56		 je	 SHORT $L189130

; 549  : 				{	// insert at beginning if before first element
; 550  : 				if (this->comp(this->_Kfn(_Val), _Key(_Where._Mynode())))

  00329	8d 4d 0c	 lea	 ecx, DWORD PTR __Where$[ebp]
  0032c	e8 00 00 00 00	 call	 ?_Mynode@const_iterator@?$_Tree@V?$_Tmap_traits@KPAVIData@@U?$less@K@std@@V?$allocator@U?$pair@$$CBKPAVIData@@@std@@@3@$0A@@std@@@std@@QBEPAU_Node@?$_Tree_nod@V?$_Tmap_traits@KPAVIData@@U?$less@K@std@@V?$allocator@U?$pair@$$CBKPAVIData@@@std@@@3@$0A@@std@@@3@XZ ; std::_Tree<std::_Tmap_traits<unsigned long,IData *,std::less<unsigned long>,std::allocator<std::pair<unsigned long const ,IData *> >,0> >::const_iterator::_Mynode
  00331	50		 push	 eax
  00332	e8 00 00 00 00	 call	 ?_Key@?$_Tree@V?$_Tmap_traits@KPAVIData@@U?$less@K@std@@V?$allocator@U?$pair@$$CBKPAVIData@@@std@@@3@$0A@@std@@@std@@KAABKPAU_Node@?$_Tree_nod@V?$_Tmap_traits@KPAVIData@@U?$less@K@std@@V?$allocator@U?$pair@$$CBKPAVIData@@@std@@@3@$0A@@std@@@2@@Z ; std::_Tree<std::_Tmap_traits<unsigned long,IData *,std::less<unsigned long>,std::allocator<std::pair<unsigned long const ,IData *> >,0> >::_Key
  00337	83 c4 04	 add	 esp, 4
  0033a	50		 push	 eax
  0033b	8b 45 10	 mov	 eax, DWORD PTR __Val$[ebp]
  0033e	50		 push	 eax
  0033f	e8 00 00 00 00	 call	 ?_Kfn@?$_Tmap_traits@KPAVIData@@U?$less@K@std@@V?$allocator@U?$pair@$$CBKPAVIData@@@std@@@3@$0A@@std@@SAABKABU?$pair@$$CBKPAVIData@@@2@@Z ; std::_Tmap_traits<unsigned long,IData *,std::less<unsigned long>,std::allocator<std::pair<unsigned long const ,IData *> >,0>::_Kfn
  00344	83 c4 04	 add	 esp, 4
  00347	50		 push	 eax
  00348	8b 4d fc	 mov	 ecx, DWORD PTR _this$[ebp]
  0034b	e8 00 00 00 00	 call	 ??R?$less@K@std@@QBE_NABK0@Z ; std::less<unsigned long>::operator()
  00350	0f b6 c8	 movzx	 ecx, al
  00353	85 c9		 test	 ecx, ecx
  00355	74 23		 je	 SHORT $L189131

; 551  : 					return (_Insert(true, _Where._Mynode(), _Val));

  00357	8b 55 10	 mov	 edx, DWORD PTR __Val$[ebp]
  0035a	52		 push	 edx
  0035b	8d 4d 0c	 lea	 ecx, DWORD PTR __Where$[ebp]
  0035e	e8 00 00 00 00	 call	 ?_Mynode@const_iterator@?$_Tree@V?$_Tmap_traits@KPAVIData@@U?$less@K@std@@V?$allocator@U?$pair@$$CBKPAVIData@@@std@@@3@$0A@@std@@@std@@QBEPAU_Node@?$_Tree_nod@V?$_Tmap_traits@KPAVIData@@U?$less@K@std@@V?$allocator@U?$pair@$$CBKPAVIData@@@std@@@3@$0A@@std@@@3@XZ ; std::_Tree<std::_Tmap_traits<unsigned long,IData *,std::less<unsigned long>,std::allocator<std::pair<unsigned long const ,IData *> >,0> >::const_iterator::_Mynode
  00363	50		 push	 eax
  00364	6a 01		 push	 1
  00366	8b 45 08	 mov	 eax, DWORD PTR ___$ReturnUdt$[ebp]
  00369	50		 push	 eax
  0036a	8b 4d fc	 mov	 ecx, DWORD PTR _this$[ebp]
  0036d	e8 00 00 00 00	 call	 ?_Insert@?$_Tree@V?$_Tmap_traits@KPAVIData@@U?$less@K@std@@V?$allocator@U?$pair@$$CBKPAVIData@@@std@@@3@$0A@@std@@@std@@IAE?AViterator@12@_NPAU_Node@?$_Tree_nod@V?$_Tmap_traits@KPAVIData@@U?$less@K@std@@V?$allocator@U?$pair@$$CBKPAVIData@@@std@@@3@$0A@@std@@@2@ABU?$pair@$$CBKPAVIData@@@2@@Z ; std::_Tree<std::_Tmap_traits<unsigned long,IData *,std::less<unsigned long>,std::allocator<std::pair<unsigned long const ,IData *> >,0> >::_Insert
  00372	8b 45 08	 mov	 eax, DWORD PTR ___$ReturnUdt$[ebp]
  00375	e9 57 02 00 00	 jmp	 $L189099
$L189131:

; 552  : 				}
; 553  : 			else if (_Where == end())

  0037a	e9 38 02 00 00	 jmp	 $L189103
$L189130:
  0037f	8d 4d dc	 lea	 ecx, DWORD PTR $T190279[ebp]
  00382	51		 push	 ecx
  00383	8b 4d fc	 mov	 ecx, DWORD PTR _this$[ebp]
  00386	e8 00 00 00 00	 call	 ?end@?$_Tree@V?$_Tmap_traits@KPAVIData@@U?$less@K@std@@V?$allocator@U?$pair@$$CBKPAVIData@@@std@@@3@$0A@@std@@@std@@QAE?AViterator@12@XZ ; std::_Tree<std::_Tmap_traits<unsigned long,IData *,std::less<unsigned long>,std::allocator<std::pair<unsigned long const ,IData *> >,0> >::end
  0038b	50		 push	 eax
  0038c	8d 4d 0c	 lea	 ecx, DWORD PTR __Where$[ebp]
  0038f	e8 00 00 00 00	 call	 ??8const_iterator@?$_Tree@V?$_Tmap_traits@KPAVIData@@U?$less@K@std@@V?$allocator@U?$pair@$$CBKPAVIData@@@std@@@3@$0A@@std@@@std@@QBE_NABV012@@Z ; std::_Tree<std::_Tmap_traits<unsigned long,IData *,std::less<unsigned long>,std::allocator<std::pair<unsigned long const ,IData *> >,0> >::const_iterator::operator==
  00394	0f b6 d0	 movzx	 edx, al
  00397	85 d2		 test	 edx, edx
  00399	74 5a		 je	 SHORT $L189135

; 554  : 				{	// insert at end if after last element
; 555  : 				if (this->comp(_Key(_Rmost()), this->_Kfn(_Val)))

  0039b	8b 45 10	 mov	 eax, DWORD PTR __Val$[ebp]
  0039e	50		 push	 eax
  0039f	e8 00 00 00 00	 call	 ?_Kfn@?$_Tmap_traits@KPAVIData@@U?$less@K@std@@V?$allocator@U?$pair@$$CBKPAVIData@@@std@@@3@$0A@@std@@SAABKABU?$pair@$$CBKPAVIData@@@2@@Z ; std::_Tmap_traits<unsigned long,IData *,std::less<unsigned long>,std::allocator<std::pair<unsigned long const ,IData *> >,0>::_Kfn
  003a4	83 c4 04	 add	 esp, 4
  003a7	50		 push	 eax
  003a8	8b 4d fc	 mov	 ecx, DWORD PTR _this$[ebp]
  003ab	e8 00 00 00 00	 call	 ?_Rmost@?$_Tree@V?$_Tmap_traits@KPAVIData@@U?$less@K@std@@V?$allocator@U?$pair@$$CBKPAVIData@@@std@@@3@$0A@@std@@@std@@IAEAAPAU_Node@?$_Tree_nod@V?$_Tmap_traits@KPAVIData@@U?$less@K@std@@V?$allocator@U?$pair@$$CBKPAVIData@@@std@@@3@$0A@@std@@@2@XZ ; std::_Tree<std::_Tmap_traits<unsigned long,IData *,std::less<unsigned long>,std::allocator<std::pair<unsigned long const ,IData *> >,0> >::_Rmost
  003b0	8b 08		 mov	 ecx, DWORD PTR [eax]
  003b2	51		 push	 ecx
  003b3	e8 00 00 00 00	 call	 ?_Key@?$_Tree@V?$_Tmap_traits@KPAVIData@@U?$less@K@std@@V?$allocator@U?$pair@$$CBKPAVIData@@@std@@@3@$0A@@std@@@std@@KAABKPAU_Node@?$_Tree_nod@V?$_Tmap_traits@KPAVIData@@U?$less@K@std@@V?$allocator@U?$pair@$$CBKPAVIData@@@std@@@3@$0A@@std@@@2@@Z ; std::_Tree<std::_Tmap_traits<unsigned long,IData *,std::less<unsigned long>,std::allocator<std::pair<unsigned long const ,IData *> >,0> >::_Key
  003b8	83 c4 04	 add	 esp, 4
  003bb	50		 push	 eax
  003bc	8b 4d fc	 mov	 ecx, DWORD PTR _this$[ebp]
  003bf	e8 00 00 00 00	 call	 ??R?$less@K@std@@QBE_NABK0@Z ; std::less<unsigned long>::operator()
  003c4	0f b6 d0	 movzx	 edx, al
  003c7	85 d2		 test	 edx, edx
  003c9	74 25		 je	 SHORT $L189136

; 556  : 					return (_Insert(false, _Rmost(), _Val));

  003cb	8b 45 10	 mov	 eax, DWORD PTR __Val$[ebp]
  003ce	50		 push	 eax
  003cf	8b 4d fc	 mov	 ecx, DWORD PTR _this$[ebp]
  003d2	e8 00 00 00 00	 call	 ?_Rmost@?$_Tree@V?$_Tmap_traits@KPAVIData@@U?$less@K@std@@V?$allocator@U?$pair@$$CBKPAVIData@@@std@@@3@$0A@@std@@@std@@IAEAAPAU_Node@?$_Tree_nod@V?$_Tmap_traits@KPAVIData@@U?$less@K@std@@V?$allocator@U?$pair@$$CBKPAVIData@@@std@@@3@$0A@@std@@@2@XZ ; std::_Tree<std::_Tmap_traits<unsigned long,IData *,std::less<unsigned long>,std::allocator<std::pair<unsigned long const ,IData *> >,0> >::_Rmost
  003d7	8b 08		 mov	 ecx, DWORD PTR [eax]
  003d9	51		 push	 ecx
  003da	6a 00		 push	 0
  003dc	8b 55 08	 mov	 edx, DWORD PTR ___$ReturnUdt$[ebp]
  003df	52		 push	 edx
  003e0	8b 4d fc	 mov	 ecx, DWORD PTR _this$[ebp]
  003e3	e8 00 00 00 00	 call	 ?_Insert@?$_Tree@V?$_Tmap_traits@KPAVIData@@U?$less@K@std@@V?$allocator@U?$pair@$$CBKPAVIData@@@std@@@3@$0A@@std@@@std@@IAE?AViterator@12@_NPAU_Node@?$_Tree_nod@V?$_Tmap_traits@KPAVIData@@U?$less@K@std@@V?$allocator@U?$pair@$$CBKPAVIData@@@std@@@3@$0A@@std@@@2@ABU?$pair@$$CBKPAVIData@@@2@@Z ; std::_Tree<std::_Tmap_traits<unsigned long,IData *,std::less<unsigned long>,std::allocator<std::pair<unsigned long const ,IData *> >,0> >::_Insert
  003e8	8b 45 08	 mov	 eax, DWORD PTR ___$ReturnUdt$[ebp]
  003eb	e9 e1 01 00 00	 jmp	 $L189099
$L189136:

; 557  : 				}
; 558  : 			else if (this->comp(this->_Kfn(_Val), _Key(_Where._Mynode()))

  003f0	e9 c2 01 00 00	 jmp	 $L189103
$L189135:

; 559  : 				&& this->comp(_Key((--(_Next = _Where))._Mynode()),
; 560  : 					this->_Kfn(_Val)))

  003f5	8d 4d 0c	 lea	 ecx, DWORD PTR __Where$[ebp]
  003f8	e8 00 00 00 00	 call	 ?_Mynode@const_iterator@?$_Tree@V?$_Tmap_traits@KPAVIData@@U?$less@K@std@@V?$allocator@U?$pair@$$CBKPAVIData@@@std@@@3@$0A@@std@@@std@@QBEPAU_Node@?$_Tree_nod@V?$_Tmap_traits@KPAVIData@@U?$less@K@std@@V?$allocator@U?$pair@$$CBKPAVIData@@@std@@@3@$0A@@std@@@3@XZ ; std::_Tree<std::_Tmap_traits<unsigned long,IData *,std::less<unsigned long>,std::allocator<std::pair<unsigned long const ,IData *> >,0> >::const_iterator::_Mynode
  003fd	50		 push	 eax
  003fe	e8 00 00 00 00	 call	 ?_Key@?$_Tree@V?$_Tmap_traits@KPAVIData@@U?$less@K@std@@V?$allocator@U?$pair@$$CBKPAVIData@@@std@@@3@$0A@@std@@@std@@KAABKPAU_Node@?$_Tree_nod@V?$_Tmap_traits@KPAVIData@@U?$less@K@std@@V?$allocator@U?$pair@$$CBKPAVIData@@@std@@@3@$0A@@std@@@2@@Z ; std::_Tree<std::_Tmap_traits<unsigned long,IData *,std::less<unsigned long>,std::allocator<std::pair<unsigned long const ,IData *> >,0> >::_Key
  00403	83 c4 04	 add	 esp, 4
  00406	50		 push	 eax
  00407	8b 45 10	 mov	 eax, DWORD PTR __Val$[ebp]
  0040a	50		 push	 eax
  0040b	e8 00 00 00 00	 call	 ?_Kfn@?$_Tmap_traits@KPAVIData@@U?$less@K@std@@V?$allocator@U?$pair@$$CBKPAVIData@@@std@@@3@$0A@@std@@SAABKABU?$pair@$$CBKPAVIData@@@2@@Z ; std::_Tmap_traits<unsigned long,IData *,std::less<unsigned long>,std::allocator<std::pair<unsigned long const ,IData *> >,0>::_Kfn
  00410	83 c4 04	 add	 esp, 4
  00413	50		 push	 eax
  00414	8b 4d fc	 mov	 ecx, DWORD PTR _this$[ebp]
  00417	e8 00 00 00 00	 call	 ??R?$less@K@std@@QBE_NABK0@Z ; std::less<unsigned long>::operator()
  0041c	0f b6 c8	 movzx	 ecx, al
  0041f	85 c9		 test	 ecx, ecx
  00421	0f 84 a4 00 00
	00		 je	 $L189139
  00427	8b 55 0c	 mov	 edx, DWORD PTR __Where$[ebp]
  0042a	89 55 f4	 mov	 DWORD PTR __Next$[ebp], edx
  0042d	8b 45 10	 mov	 eax, DWORD PTR __Val$[ebp]
  00430	50		 push	 eax
  00431	e8 00 00 00 00	 call	 ?_Kfn@?$_Tmap_traits@KPAVIData@@U?$less@K@std@@V?$allocator@U?$pair@$$CBKPAVIData@@@std@@@3@$0A@@std@@SAABKABU?$pair@$$CBKPAVIData@@@2@@Z ; std::_Tmap_traits<unsigned long,IData *,std::less<unsigned long>,std::allocator<std::pair<unsigned long const ,IData *> >,0>::_Kfn
  00436	83 c4 04	 add	 esp, 4
  00439	50		 push	 eax
  0043a	8d 4d f4	 lea	 ecx, DWORD PTR __Next$[ebp]
  0043d	e8 00 00 00 00	 call	 ??Fiterator@?$_Tree@V?$_Tmap_traits@KPAVIData@@U?$less@K@std@@V?$allocator@U?$pair@$$CBKPAVIData@@@std@@@3@$0A@@std@@@std@@QAEAAV012@XZ ; std::_Tree<std::_Tmap_traits<unsigned long,IData *,std::less<unsigned long>,std::allocator<std::pair<unsigned long const ,IData *> >,0> >::iterator::operator--
  00442	8b c8		 mov	 ecx, eax
  00444	e8 00 00 00 00	 call	 ?_Mynode@const_iterator@?$_Tree@V?$_Tmap_traits@KPAVIData@@U?$less@K@std@@V?$allocator@U?$pair@$$CBKPAVIData@@@std@@@3@$0A@@std@@@std@@QBEPAU_Node@?$_Tree_nod@V?$_Tmap_traits@KPAVIData@@U?$less@K@std@@V?$allocator@U?$pair@$$CBKPAVIData@@@std@@@3@$0A@@std@@@3@XZ ; std::_Tree<std::_Tmap_traits<unsigned long,IData *,std::less<unsigned long>,std::allocator<std::pair<unsigned long const ,IData *> >,0> >::const_iterator::_Mynode
  00449	50		 push	 eax
  0044a	e8 00 00 00 00	 call	 ?_Key@?$_Tree@V?$_Tmap_traits@KPAVIData@@U?$less@K@std@@V?$allocator@U?$pair@$$CBKPAVIData@@@std@@@3@$0A@@std@@@std@@KAABKPAU_Node@?$_Tree_nod@V?$_Tmap_traits@KPAVIData@@U?$less@K@std@@V?$allocator@U?$pair@$$CBKPAVIData@@@std@@@3@$0A@@std@@@2@@Z ; std::_Tree<std::_Tmap_traits<unsigned long,IData *,std::less<unsigned long>,std::allocator<std::pair<unsigned long const ,IData *> >,0> >::_Key
  0044f	83 c4 04	 add	 esp, 4
  00452	50		 push	 eax
  00453	8b 4d fc	 mov	 ecx, DWORD PTR _this$[ebp]
  00456	e8 00 00 00 00	 call	 ??R?$less@K@std@@QBE_NABK0@Z ; std::less<unsigned long>::operator()
  0045b	0f b6 c8	 movzx	 ecx, al
  0045e	85 c9		 test	 ecx, ecx
  00460	74 69		 je	 SHORT $L189139

; 561  : 				{	// insert before _Where
; 562  : 				if (_Isnil(_Right(_Next._Mynode())))

  00462	8d 4d f4	 lea	 ecx, DWORD PTR __Next$[ebp]
  00465	e8 00 00 00 00	 call	 ?_Mynode@const_iterator@?$_Tree@V?$_Tmap_traits@KPAVIData@@U?$less@K@std@@V?$allocator@U?$pair@$$CBKPAVIData@@@std@@@3@$0A@@std@@@std@@QBEPAU_Node@?$_Tree_nod@V?$_Tmap_traits@KPAVIData@@U?$less@K@std@@V?$allocator@U?$pair@$$CBKPAVIData@@@std@@@3@$0A@@std@@@3@XZ ; std::_Tree<std::_Tmap_traits<unsigned long,IData *,std::less<unsigned long>,std::allocator<std::pair<unsigned long const ,IData *> >,0> >::const_iterator::_Mynode
  0046a	50		 push	 eax
  0046b	e8 00 00 00 00	 call	 ?_Right@?$_Tree@V?$_Tmap_traits@KPAVIData@@U?$less@K@std@@V?$allocator@U?$pair@$$CBKPAVIData@@@std@@@3@$0A@@std@@@std@@KAAAPAU_Node@?$_Tree_nod@V?$_Tmap_traits@KPAVIData@@U?$less@K@std@@V?$allocator@U?$pair@$$CBKPAVIData@@@std@@@3@$0A@@std@@@2@PAU342@@Z ; std::_Tree<std::_Tmap_traits<unsigned long,IData *,std::less<unsigned long>,std::allocator<std::pair<unsigned long const ,IData *> >,0> >::_Right
  00470	83 c4 04	 add	 esp, 4
  00473	8b 10		 mov	 edx, DWORD PTR [eax]
  00475	52		 push	 edx
  00476	e8 00 00 00 00	 call	 ?_Isnil@?$_Tree@V?$_Tmap_traits@KPAVIData@@U?$less@K@std@@V?$allocator@U?$pair@$$CBKPAVIData@@@std@@@3@$0A@@std@@@std@@KAAADPAU_Node@?$_Tree_nod@V?$_Tmap_traits@KPAVIData@@U?$less@K@std@@V?$allocator@U?$pair@$$CBKPAVIData@@@std@@@3@$0A@@std@@@2@@Z ; std::_Tree<std::_Tmap_traits<unsigned long,IData *,std::less<unsigned long>,std::allocator<std::pair<unsigned long const ,IData *> >,0> >::_Isnil
  0047b	83 c4 04	 add	 esp, 4
  0047e	0f be 00	 movsx	 eax, BYTE PTR [eax]
  00481	85 c0		 test	 eax, eax
  00483	74 23		 je	 SHORT $L189140

; 563  : 					return (_Insert(false, _Next._Mynode(), _Val));

  00485	8b 4d 10	 mov	 ecx, DWORD PTR __Val$[ebp]
  00488	51		 push	 ecx
  00489	8d 4d f4	 lea	 ecx, DWORD PTR __Next$[ebp]
  0048c	e8 00 00 00 00	 call	 ?_Mynode@const_iterator@?$_Tree@V?$_Tmap_traits@KPAVIData@@U?$less@K@std@@V?$allocator@U?$pair@$$CBKPAVIData@@@std@@@3@$0A@@std@@@std@@QBEPAU_Node@?$_Tree_nod@V?$_Tmap_traits@KPAVIData@@U?$less@K@std@@V?$allocator@U?$pair@$$CBKPAVIData@@@std@@@3@$0A@@std@@@3@XZ ; std::_Tree<std::_Tmap_traits<unsigned long,IData *,std::less<unsigned long>,std::allocator<std::pair<unsigned long const ,IData *> >,0> >::const_iterator::_Mynode
  00491	50		 push	 eax
  00492	6a 00		 push	 0
  00494	8b 55 08	 mov	 edx, DWORD PTR ___$ReturnUdt$[ebp]
  00497	52		 push	 edx
  00498	8b 4d fc	 mov	 ecx, DWORD PTR _this$[ebp]
  0049b	e8 00 00 00 00	 call	 ?_Insert@?$_Tree@V?$_Tmap_traits@KPAVIData@@U?$less@K@std@@V?$allocator@U?$pair@$$CBKPAVIData@@@std@@@3@$0A@@std@@@std@@IAE?AViterator@12@_NPAU_Node@?$_Tree_nod@V?$_Tmap_traits@KPAVIData@@U?$less@K@std@@V?$allocator@U?$pair@$$CBKPAVIData@@@std@@@3@$0A@@std@@@2@ABU?$pair@$$CBKPAVIData@@@2@@Z ; std::_Tree<std::_Tmap_traits<unsigned long,IData *,std::less<unsigned long>,std::allocator<std::pair<unsigned long const ,IData *> >,0> >::_Insert
  004a0	8b 45 08	 mov	 eax, DWORD PTR ___$ReturnUdt$[ebp]
  004a3	e9 29 01 00 00	 jmp	 $L189099
$L189140:

; 564  : 				else
; 565  : 					return (_Insert(true, _Where._Mynode(), _Val));

  004a8	8b 45 10	 mov	 eax, DWORD PTR __Val$[ebp]
  004ab	50		 push	 eax
  004ac	8d 4d 0c	 lea	 ecx, DWORD PTR __Where$[ebp]
  004af	e8 00 00 00 00	 call	 ?_Mynode@const_iterator@?$_Tree@V?$_Tmap_traits@KPAVIData@@U?$less@K@std@@V?$allocator@U?$pair@$$CBKPAVIData@@@std@@@3@$0A@@std@@@std@@QBEPAU_Node@?$_Tree_nod@V?$_Tmap_traits@KPAVIData@@U?$less@K@std@@V?$allocator@U?$pair@$$CBKPAVIData@@@std@@@3@$0A@@std@@@3@XZ ; std::_Tree<std::_Tmap_traits<unsigned long,IData *,std::less<unsigned long>,std::allocator<std::pair<unsigned long const ,IData *> >,0> >::const_iterator::_Mynode
  004b4	50		 push	 eax
  004b5	6a 01		 push	 1
  004b7	8b 4d 08	 mov	 ecx, DWORD PTR ___$ReturnUdt$[ebp]
  004ba	51		 push	 ecx
  004bb	8b 4d fc	 mov	 ecx, DWORD PTR _this$[ebp]
  004be	e8 00 00 00 00	 call	 ?_Insert@?$_Tree@V?$_Tmap_traits@KPAVIData@@U?$less@K@std@@V?$allocator@U?$pair@$$CBKPAVIData@@@std@@@3@$0A@@std@@@std@@IAE?AViterator@12@_NPAU_Node@?$_Tree_nod@V?$_Tmap_traits@KPAVIData@@U?$less@K@std@@V?$allocator@U?$pair@$$CBKPAVIData@@@std@@@3@$0A@@std@@@2@ABU?$pair@$$CBKPAVIData@@@2@@Z ; std::_Tree<std::_Tmap_traits<unsigned long,IData *,std::less<unsigned long>,std::allocator<std::pair<unsigned long const ,IData *> >,0> >::_Insert
  004c3	8b 45 08	 mov	 eax, DWORD PTR ___$ReturnUdt$[ebp]
  004c6	e9 06 01 00 00	 jmp	 $L189099
$L189139:

; 566  : 				}
; 567  : 			else if (this->comp(_Key(_Where._Mynode()), this->_Kfn(_Val))
; 568  : 				&& (++(_Next = _Where) == end()
; 569  : 					|| this->comp(this->_Kfn(_Val),
; 570  : 						_Key(_Next._Mynode()))))

  004cb	8b 55 10	 mov	 edx, DWORD PTR __Val$[ebp]
  004ce	52		 push	 edx
  004cf	e8 00 00 00 00	 call	 ?_Kfn@?$_Tmap_traits@KPAVIData@@U?$less@K@std@@V?$allocator@U?$pair@$$CBKPAVIData@@@std@@@3@$0A@@std@@SAABKABU?$pair@$$CBKPAVIData@@@2@@Z ; std::_Tmap_traits<unsigned long,IData *,std::less<unsigned long>,std::allocator<std::pair<unsigned long const ,IData *> >,0>::_Kfn
  004d4	83 c4 04	 add	 esp, 4
  004d7	50		 push	 eax
  004d8	8d 4d 0c	 lea	 ecx, DWORD PTR __Where$[ebp]
  004db	e8 00 00 00 00	 call	 ?_Mynode@const_iterator@?$_Tree@V?$_Tmap_traits@KPAVIData@@U?$less@K@std@@V?$allocator@U?$pair@$$CBKPAVIData@@@std@@@3@$0A@@std@@@std@@QBEPAU_Node@?$_Tree_nod@V?$_Tmap_traits@KPAVIData@@U?$less@K@std@@V?$allocator@U?$pair@$$CBKPAVIData@@@std@@@3@$0A@@std@@@3@XZ ; std::_Tree<std::_Tmap_traits<unsigned long,IData *,std::less<unsigned long>,std::allocator<std::pair<unsigned long const ,IData *> >,0> >::const_iterator::_Mynode
  004e0	50		 push	 eax
  004e1	e8 00 00 00 00	 call	 ?_Key@?$_Tree@V?$_Tmap_traits@KPAVIData@@U?$less@K@std@@V?$allocator@U?$pair@$$CBKPAVIData@@@std@@@3@$0A@@std@@@std@@KAABKPAU_Node@?$_Tree_nod@V?$_Tmap_traits@KPAVIData@@U?$less@K@std@@V?$allocator@U?$pair@$$CBKPAVIData@@@std@@@3@$0A@@std@@@2@@Z ; std::_Tree<std::_Tmap_traits<unsigned long,IData *,std::less<unsigned long>,std::allocator<std::pair<unsigned long const ,IData *> >,0> >::_Key
  004e6	83 c4 04	 add	 esp, 4
  004e9	50		 push	 eax
  004ea	8b 4d fc	 mov	 ecx, DWORD PTR _this$[ebp]
  004ed	e8 00 00 00 00	 call	 ??R?$less@K@std@@QBE_NABK0@Z ; std::less<unsigned long>::operator()
  004f2	0f b6 c0	 movzx	 eax, al
  004f5	85 c0		 test	 eax, eax
  004f7	0f 84 ba 00 00
	00		 je	 $L189103
  004fd	8b 4d 0c	 mov	 ecx, DWORD PTR __Where$[ebp]
  00500	89 4d f4	 mov	 DWORD PTR __Next$[ebp], ecx
  00503	8d 55 d8	 lea	 edx, DWORD PTR $T190280[ebp]
  00506	52		 push	 edx
  00507	8b 4d fc	 mov	 ecx, DWORD PTR _this$[ebp]
  0050a	e8 00 00 00 00	 call	 ?end@?$_Tree@V?$_Tmap_traits@KPAVIData@@U?$less@K@std@@V?$allocator@U?$pair@$$CBKPAVIData@@@std@@@3@$0A@@std@@@std@@QAE?AViterator@12@XZ ; std::_Tree<std::_Tmap_traits<unsigned long,IData *,std::less<unsigned long>,std::allocator<std::pair<unsigned long const ,IData *> >,0> >::end
  0050f	50		 push	 eax
  00510	8d 4d f4	 lea	 ecx, DWORD PTR __Next$[ebp]
  00513	e8 00 00 00 00	 call	 ??Eiterator@?$_Tree@V?$_Tmap_traits@KPAVIData@@U?$less@K@std@@V?$allocator@U?$pair@$$CBKPAVIData@@@std@@@3@$0A@@std@@@std@@QAEAAV012@XZ ; std::_Tree<std::_Tmap_traits<unsigned long,IData *,std::less<unsigned long>,std::allocator<std::pair<unsigned long const ,IData *> >,0> >::iterator::operator++
  00518	8b c8		 mov	 ecx, eax
  0051a	e8 00 00 00 00	 call	 ??8const_iterator@?$_Tree@V?$_Tmap_traits@KPAVIData@@U?$less@K@std@@V?$allocator@U?$pair@$$CBKPAVIData@@@std@@@3@$0A@@std@@@std@@QBE_NABV012@@Z ; std::_Tree<std::_Tmap_traits<unsigned long,IData *,std::less<unsigned long>,std::allocator<std::pair<unsigned long const ,IData *> >,0> >::const_iterator::operator==
  0051f	0f b6 c0	 movzx	 eax, al
  00522	85 c0		 test	 eax, eax
  00524	75 2e		 jne	 SHORT $L189147
  00526	8d 4d f4	 lea	 ecx, DWORD PTR __Next$[ebp]
  00529	e8 00 00 00 00	 call	 ?_Mynode@const_iterator@?$_Tree@V?$_Tmap_traits@KPAVIData@@U?$less@K@std@@V?$allocator@U?$pair@$$CBKPAVIData@@@std@@@3@$0A@@std@@@std@@QBEPAU_Node@?$_Tree_nod@V?$_Tmap_traits@KPAVIData@@U?$less@K@std@@V?$allocator@U?$pair@$$CBKPAVIData@@@std@@@3@$0A@@std@@@3@XZ ; std::_Tree<std::_Tmap_traits<unsigned long,IData *,std::less<unsigned long>,std::allocator<std::pair<unsigned long const ,IData *> >,0> >::const_iterator::_Mynode
  0052e	50		 push	 eax
  0052f	e8 00 00 00 00	 call	 ?_Key@?$_Tree@V?$_Tmap_traits@KPAVIData@@U?$less@K@std@@V?$allocator@U?$pair@$$CBKPAVIData@@@std@@@3@$0A@@std@@@std@@KAABKPAU_Node@?$_Tree_nod@V?$_Tmap_traits@KPAVIData@@U?$less@K@std@@V?$allocator@U?$pair@$$CBKPAVIData@@@std@@@3@$0A@@std@@@2@@Z ; std::_Tree<std::_Tmap_traits<unsigned long,IData *,std::less<unsigned long>,std::allocator<std::pair<unsigned long const ,IData *> >,0> >::_Key
  00534	83 c4 04	 add	 esp, 4
  00537	50		 push	 eax
  00538	8b 4d 10	 mov	 ecx, DWORD PTR __Val$[ebp]
  0053b	51		 push	 ecx
  0053c	e8 00 00 00 00	 call	 ?_Kfn@?$_Tmap_traits@KPAVIData@@U?$less@K@std@@V?$allocator@U?$pair@$$CBKPAVIData@@@std@@@3@$0A@@std@@SAABKABU?$pair@$$CBKPAVIData@@@2@@Z ; std::_Tmap_traits<unsigned long,IData *,std::less<unsigned long>,std::allocator<std::pair<unsigned long const ,IData *> >,0>::_Kfn
  00541	83 c4 04	 add	 esp, 4
  00544	50		 push	 eax
  00545	8b 4d fc	 mov	 ecx, DWORD PTR _this$[ebp]
  00548	e8 00 00 00 00	 call	 ??R?$less@K@std@@QBE_NABK0@Z ; std::less<unsigned long>::operator()
  0054d	0f b6 d0	 movzx	 edx, al
  00550	85 d2		 test	 edx, edx
  00552	74 63		 je	 SHORT $L189103
$L189147:

; 571  : 				{	// insert after _Where
; 572  : 				if (_Isnil(_Right(_Where._Mynode())))

  00554	8d 4d 0c	 lea	 ecx, DWORD PTR __Where$[ebp]
  00557	e8 00 00 00 00	 call	 ?_Mynode@const_iterator@?$_Tree@V?$_Tmap_traits@KPAVIData@@U?$less@K@std@@V?$allocator@U?$pair@$$CBKPAVIData@@@std@@@3@$0A@@std@@@std@@QBEPAU_Node@?$_Tree_nod@V?$_Tmap_traits@KPAVIData@@U?$less@K@std@@V?$allocator@U?$pair@$$CBKPAVIData@@@std@@@3@$0A@@std@@@3@XZ ; std::_Tree<std::_Tmap_traits<unsigned long,IData *,std::less<unsigned long>,std::allocator<std::pair<unsigned long const ,IData *> >,0> >::const_iterator::_Mynode
  0055c	50		 push	 eax
  0055d	e8 00 00 00 00	 call	 ?_Right@?$_Tree@V?$_Tmap_traits@KPAVIData@@U?$less@K@std@@V?$allocator@U?$pair@$$CBKPAVIData@@@std@@@3@$0A@@std@@@std@@KAAAPAU_Node@?$_Tree_nod@V?$_Tmap_traits@KPAVIData@@U?$less@K@std@@V?$allocator@U?$pair@$$CBKPAVIData@@@std@@@3@$0A@@std@@@2@PAU342@@Z ; std::_Tree<std::_Tmap_traits<unsigned long,IData *,std::less<unsigned long>,std::allocator<std::pair<unsigned long const ,IData *> >,0> >::_Right
  00562	83 c4 04	 add	 esp, 4
  00565	8b 00		 mov	 eax, DWORD PTR [eax]
  00567	50		 push	 eax
  00568	e8 00 00 00 00	 call	 ?_Isnil@?$_Tree@V?$_Tmap_traits@KPAVIData@@U?$less@K@std@@V?$allocator@U?$pair@$$CBKPAVIData@@@std@@@3@$0A@@std@@@std@@KAAADPAU_Node@?$_Tree_nod@V?$_Tmap_traits@KPAVIData@@U?$less@K@std@@V?$allocator@U?$pair@$$CBKPAVIData@@@std@@@3@$0A@@std@@@2@@Z ; std::_Tree<std::_Tmap_traits<unsigned long,IData *,std::less<unsigned long>,std::allocator<std::pair<unsigned long const ,IData *> >,0> >::_Isnil
  0056d	83 c4 04	 add	 esp, 4
  00570	0f be 08	 movsx	 ecx, BYTE PTR [eax]
  00573	85 c9		 test	 ecx, ecx
  00575	74 20		 je	 SHORT $L189148

; 573  : 					return (_Insert(false, _Where._Mynode(), _Val));

  00577	8b 55 10	 mov	 edx, DWORD PTR __Val$[ebp]
  0057a	52		 push	 edx
  0057b	8d 4d 0c	 lea	 ecx, DWORD PTR __Where$[ebp]
  0057e	e8 00 00 00 00	 call	 ?_Mynode@const_iterator@?$_Tree@V?$_Tmap_traits@KPAVIData@@U?$less@K@std@@V?$allocator@U?$pair@$$CBKPAVIData@@@std@@@3@$0A@@std@@@std@@QBEPAU_Node@?$_Tree_nod@V?$_Tmap_traits@KPAVIData@@U?$less@K@std@@V?$allocator@U?$pair@$$CBKPAVIData@@@std@@@3@$0A@@std@@@3@XZ ; std::_Tree<std::_Tmap_traits<unsigned long,IData *,std::less<unsigned long>,std::allocator<std::pair<unsigned long const ,IData *> >,0> >::const_iterator::_Mynode
  00583	50		 push	 eax
  00584	6a 00		 push	 0
  00586	8b 45 08	 mov	 eax, DWORD PTR ___$ReturnUdt$[ebp]
  00589	50		 push	 eax
  0058a	8b 4d fc	 mov	 ecx, DWORD PTR _this$[ebp]
  0058d	e8 00 00 00 00	 call	 ?_Insert@?$_Tree@V?$_Tmap_traits@KPAVIData@@U?$less@K@std@@V?$allocator@U?$pair@$$CBKPAVIData@@@std@@@3@$0A@@std@@@std@@IAE?AViterator@12@_NPAU_Node@?$_Tree_nod@V?$_Tmap_traits@KPAVIData@@U?$less@K@std@@V?$allocator@U?$pair@$$CBKPAVIData@@@std@@@3@$0A@@std@@@2@ABU?$pair@$$CBKPAVIData@@@2@@Z ; std::_Tree<std::_Tmap_traits<unsigned long,IData *,std::less<unsigned long>,std::allocator<std::pair<unsigned long const ,IData *> >,0> >::_Insert
  00592	8b 45 08	 mov	 eax, DWORD PTR ___$ReturnUdt$[ebp]
  00595	eb 3a		 jmp	 SHORT $L189099
$L189148:

; 574  : 				else
; 575  : 					return (_Insert(true, _Next._Mynode(), _Val));

  00597	8b 4d 10	 mov	 ecx, DWORD PTR __Val$[ebp]
  0059a	51		 push	 ecx
  0059b	8d 4d f4	 lea	 ecx, DWORD PTR __Next$[ebp]
  0059e	e8 00 00 00 00	 call	 ?_Mynode@const_iterator@?$_Tree@V?$_Tmap_traits@KPAVIData@@U?$less@K@std@@V?$allocator@U?$pair@$$CBKPAVIData@@@std@@@3@$0A@@std@@@std@@QBEPAU_Node@?$_Tree_nod@V?$_Tmap_traits@KPAVIData@@U?$less@K@std@@V?$allocator@U?$pair@$$CBKPAVIData@@@std@@@3@$0A@@std@@@3@XZ ; std::_Tree<std::_Tmap_traits<unsigned long,IData *,std::less<unsigned long>,std::allocator<std::pair<unsigned long const ,IData *> >,0> >::const_iterator::_Mynode
  005a3	50		 push	 eax
  005a4	6a 01		 push	 1
  005a6	8b 55 08	 mov	 edx, DWORD PTR ___$ReturnUdt$[ebp]
  005a9	52		 push	 edx
  005aa	8b 4d fc	 mov	 ecx, DWORD PTR _this$[ebp]
  005ad	e8 00 00 00 00	 call	 ?_Insert@?$_Tree@V?$_Tmap_traits@KPAVIData@@U?$less@K@std@@V?$allocator@U?$pair@$$CBKPAVIData@@@std@@@3@$0A@@std@@@std@@IAE?AViterator@12@_NPAU_Node@?$_Tree_nod@V?$_Tmap_traits@KPAVIData@@U?$less@K@std@@V?$allocator@U?$pair@$$CBKPAVIData@@@std@@@3@$0A@@std@@@2@ABU?$pair@$$CBKPAVIData@@@2@@Z ; std::_Tree<std::_Tmap_traits<unsigned long,IData *,std::less<unsigned long>,std::allocator<std::pair<unsigned long const ,IData *> >,0> >::_Insert
  005b2	8b 45 08	 mov	 eax, DWORD PTR ___$ReturnUdt$[ebp]
  005b5	eb 1a		 jmp	 SHORT $L189099
$L189103:

; 576  : 				}
; 577  : 			}
; 578  : 
; 579  : 		return (insert(_Val).first);	// try usual insert if all else fails

  005b7	8b 45 10	 mov	 eax, DWORD PTR __Val$[ebp]
  005ba	50		 push	 eax
  005bb	8d 4d d0	 lea	 ecx, DWORD PTR $T190281[ebp]
  005be	51		 push	 ecx
  005bf	8b 4d fc	 mov	 ecx, DWORD PTR _this$[ebp]
  005c2	e8 00 00 00 00	 call	 ?insert@?$_Tree@V?$_Tmap_traits@KPAVIData@@U?$less@K@std@@V?$allocator@U?$pair@$$CBKPAVIData@@@std@@@3@$0A@@std@@@std@@QAE?AU?$pair@Viterator@?$_Tree@V?$_Tmap_traits@KPAVIData@@U?$less@K@std@@V?$allocator@U?$pair@$$CBKPAVIData@@@std@@@3@$0A@@std@@@std@@_N@2@ABU?$pair@$$CBKPAVIData@@@2@@Z ; std::_Tree<std::_Tmap_traits<unsigned long,IData *,std::less<unsigned long>,std::allocator<std::pair<unsigned long const ,IData *> >,0> >::insert
  005c7	8b 10		 mov	 edx, DWORD PTR [eax]
  005c9	8b 45 08	 mov	 eax, DWORD PTR ___$ReturnUdt$[ebp]
  005cc	89 10		 mov	 DWORD PTR [eax], edx
  005ce	8b 45 08	 mov	 eax, DWORD PTR ___$ReturnUdt$[ebp]
$L189099:

; 580  : 		}

  005d1	52		 push	 edx
  005d2	8b cd		 mov	 ecx, ebp
  005d4	50		 push	 eax
  005d5	8d 15 00 00 00
	00		 lea	 edx, DWORD PTR $L190284
  005db	e8 00 00 00 00	 call	 @_RTC_CheckStackVars@8
  005e0	58		 pop	 eax
  005e1	5a		 pop	 edx
  005e2	5f		 pop	 edi
  005e3	83 c4 30	 add	 esp, 48			; 00000030H
  005e6	3b ec		 cmp	 ebp, esp
  005e8	e8 00 00 00 00	 call	 __RTC_CheckEsp
  005ed	8b e5		 mov	 esp, ebp
  005ef	5d		 pop	 ebp
  005f0	c2 0c 00	 ret	 12			; 0000000cH
$L190284:
  005f3	01 00 00 00	 DD	 1
  005f7	00 00 00 00	 DD	 $L190283
$L190283:
  005fb	f4 ff ff ff	 DD	 -12			; fffffff4H
  005ff	04 00 00 00	 DD	 4
  00603	00 00 00 00	 DD	 $L190282
$L190282:
  00607	5f		 DB	 95			; 0000005fH
  00608	4e		 DB	 78			; 0000004eH
  00609	65		 DB	 101			; 00000065H
  0060a	78		 DB	 120			; 00000078H
  0060b	74		 DB	 116			; 00000074H
  0060c	00		 DB	 0
?insert@?$_Tree@V?$_Tmap_traits@KPAVIData@@U?$less@K@std@@V?$allocator@U?$pair@$$CBKPAVIData@@@std@@@3@$0A@@std@@@std@@QAE?AViterator@12@V312@ABU?$pair@$$CBKPAVIData@@@2@@Z ENDP ; std::_Tree<std::_Tmap_traits<unsigned long,IData *,std::less<unsigned long>,std::allocator<std::pair<unsigned long const ,IData *> >,0> >::insert
_TEXT	ENDS
PUBLIC	?erase@?$_Tree@V?$_Tmap_traits@KPAVIData@@U?$less@K@std@@V?$allocator@U?$pair@$$CBKPAVIData@@@std@@@3@$0A@@std@@@std@@QAE?AViterator@12@V312@@Z ; std::_Tree<std::_Tmap_traits<unsigned long,IData *,std::less<unsigned long>,std::allocator<std::pair<unsigned long const ,IData *> >,0> >::erase
; Function compile flags: /Odt /RTCsu
;	COMDAT ?erase@?$_Tree@V?$_Tmap_traits@KPAVIData@@U?$less@K@std@@V?$allocator@U?$pair@$$CBKPAVIData@@@std@@@3@$0A@@std@@@std@@QAE?AViterator@12@V312@0@Z
_TEXT	SEGMENT
$T190289 = -20						; size = 4
$T190288 = -16						; size = 4
$T190287 = -12						; size = 4
$T190286 = -8						; size = 4
_this$ = -4						; size = 4
___$ReturnUdt$ = 8					; size = 4
__First$ = 12						; size = 4
__Last$ = 16						; size = 4
?erase@?$_Tree@V?$_Tmap_traits@KPAVIData@@U?$less@K@std@@V?$allocator@U?$pair@$$CBKPAVIData@@@std@@@3@$0A@@std@@@std@@QAE?AViterator@12@V312@0@Z PROC NEAR ; std::_Tree<std::_Tmap_traits<unsigned long,IData *,std::less<unsigned long>,std::allocator<std::pair<unsigned long const ,IData *> >,0> >::erase, COMDAT
; _this$ = ecx

; 750  : 		{	// erase [_First, _Last)

  00000	55		 push	 ebp
  00001	8b ec		 mov	 ebp, esp
  00003	83 ec 14	 sub	 esp, 20			; 00000014H
  00006	b8 cc cc cc cc	 mov	 eax, -858993460		; ccccccccH
  0000b	89 45 ec	 mov	 DWORD PTR [ebp-20], eax
  0000e	89 45 f0	 mov	 DWORD PTR [ebp-16], eax
  00011	89 45 f4	 mov	 DWORD PTR [ebp-12], eax
  00014	89 45 f8	 mov	 DWORD PTR [ebp-8], eax
  00017	89 45 fc	 mov	 DWORD PTR [ebp-4], eax
  0001a	89 4d fc	 mov	 DWORD PTR _this$[ebp], ecx

; 751  : 		if (_First == begin() && _Last == end())

  0001d	8d 45 f8	 lea	 eax, DWORD PTR $T190286[ebp]
  00020	50		 push	 eax
  00021	8b 4d fc	 mov	 ecx, DWORD PTR _this$[ebp]
  00024	e8 00 00 00 00	 call	 ?begin@?$_Tree@V?$_Tmap_traits@KPAVIData@@U?$less@K@std@@V?$allocator@U?$pair@$$CBKPAVIData@@@std@@@3@$0A@@std@@@std@@QAE?AViterator@12@XZ ; std::_Tree<std::_Tmap_traits<unsigned long,IData *,std::less<unsigned long>,std::allocator<std::pair<unsigned long const ,IData *> >,0> >::begin
  00029	50		 push	 eax
  0002a	8d 4d 0c	 lea	 ecx, DWORD PTR __First$[ebp]
  0002d	e8 00 00 00 00	 call	 ??8const_iterator@?$_Tree@V?$_Tmap_traits@KPAVIData@@U?$less@K@std@@V?$allocator@U?$pair@$$CBKPAVIData@@@std@@@3@$0A@@std@@@std@@QBE_NABV012@@Z ; std::_Tree<std::_Tmap_traits<unsigned long,IData *,std::less<unsigned long>,std::allocator<std::pair<unsigned long const ,IData *> >,0> >::const_iterator::operator==
  00032	0f b6 c8	 movzx	 ecx, al
  00035	85 c9		 test	 ecx, ecx
  00037	74 35		 je	 SHORT $L189182
  00039	8d 55 f4	 lea	 edx, DWORD PTR $T190287[ebp]
  0003c	52		 push	 edx
  0003d	8b 4d fc	 mov	 ecx, DWORD PTR _this$[ebp]
  00040	e8 00 00 00 00	 call	 ?end@?$_Tree@V?$_Tmap_traits@KPAVIData@@U?$less@K@std@@V?$allocator@U?$pair@$$CBKPAVIData@@@std@@@3@$0A@@std@@@std@@QAE?AViterator@12@XZ ; std::_Tree<std::_Tmap_traits<unsigned long,IData *,std::less<unsigned long>,std::allocator<std::pair<unsigned long const ,IData *> >,0> >::end
  00045	50		 push	 eax
  00046	8d 4d 10	 lea	 ecx, DWORD PTR __Last$[ebp]
  00049	e8 00 00 00 00	 call	 ??8const_iterator@?$_Tree@V?$_Tmap_traits@KPAVIData@@U?$less@K@std@@V?$allocator@U?$pair@$$CBKPAVIData@@@std@@@3@$0A@@std@@@std@@QBE_NABV012@@Z ; std::_Tree<std::_Tmap_traits<unsigned long,IData *,std::less<unsigned long>,std::allocator<std::pair<unsigned long const ,IData *> >,0> >::const_iterator::operator==
  0004e	0f b6 c0	 movzx	 eax, al
  00051	85 c0		 test	 eax, eax
  00053	74 19		 je	 SHORT $L189182

; 752  : 			{	// erase all
; 753  : 			clear();

  00055	8b 4d fc	 mov	 ecx, DWORD PTR _this$[ebp]
  00058	e8 00 00 00 00	 call	 ?clear@?$_Tree@V?$_Tmap_traits@KPAVIData@@U?$less@K@std@@V?$allocator@U?$pair@$$CBKPAVIData@@@std@@@3@$0A@@std@@@std@@QAEXXZ ; std::_Tree<std::_Tmap_traits<unsigned long,IData *,std::less<unsigned long>,std::allocator<std::pair<unsigned long const ,IData *> >,0> >::clear

; 754  : 			return (begin());

  0005d	8b 4d 08	 mov	 ecx, DWORD PTR ___$ReturnUdt$[ebp]
  00060	51		 push	 ecx
  00061	8b 4d fc	 mov	 ecx, DWORD PTR _this$[ebp]
  00064	e8 00 00 00 00	 call	 ?begin@?$_Tree@V?$_Tmap_traits@KPAVIData@@U?$less@K@std@@V?$allocator@U?$pair@$$CBKPAVIData@@@std@@@3@$0A@@std@@@std@@QAE?AViterator@12@XZ ; std::_Tree<std::_Tmap_traits<unsigned long,IData *,std::less<unsigned long>,std::allocator<std::pair<unsigned long const ,IData *> >,0> >::begin
  00069	8b 45 08	 mov	 eax, DWORD PTR ___$ReturnUdt$[ebp]
  0006c	eb 3d		 jmp	 SHORT $L189175
$L189182:

; 755  : 			}
; 756  : 		else
; 757  : 			{	// partial erase, one at a time
; 758  : 			while (_First != _Last)

  0006e	8d 55 10	 lea	 edx, DWORD PTR __Last$[ebp]
  00071	52		 push	 edx
  00072	8d 4d 0c	 lea	 ecx, DWORD PTR __First$[ebp]
  00075	e8 00 00 00 00	 call	 ??9const_iterator@?$_Tree@V?$_Tmap_traits@KPAVIData@@U?$less@K@std@@V?$allocator@U?$pair@$$CBKPAVIData@@@std@@@3@$0A@@std@@@std@@QBE_NABV012@@Z ; std::_Tree<std::_Tmap_traits<unsigned long,IData *,std::less<unsigned long>,std::allocator<std::pair<unsigned long const ,IData *> >,0> >::const_iterator::operator!=
  0007a	0f b6 c0	 movzx	 eax, al
  0007d	85 c0		 test	 eax, eax
  0007f	74 1f		 je	 SHORT $L189183

; 759  : 				erase(_First++);

  00081	6a 00		 push	 0
  00083	8d 4d f0	 lea	 ecx, DWORD PTR $T190288[ebp]
  00086	51		 push	 ecx
  00087	8d 4d 0c	 lea	 ecx, DWORD PTR __First$[ebp]
  0008a	e8 00 00 00 00	 call	 ??Eiterator@?$_Tree@V?$_Tmap_traits@KPAVIData@@U?$less@K@std@@V?$allocator@U?$pair@$$CBKPAVIData@@@std@@@3@$0A@@std@@@std@@QAE?AV012@H@Z ; std::_Tree<std::_Tmap_traits<unsigned long,IData *,std::less<unsigned long>,std::allocator<std::pair<unsigned long const ,IData *> >,0> >::iterator::operator++
  0008f	8b 10		 mov	 edx, DWORD PTR [eax]
  00091	52		 push	 edx
  00092	8d 45 ec	 lea	 eax, DWORD PTR $T190289[ebp]
  00095	50		 push	 eax
  00096	8b 4d fc	 mov	 ecx, DWORD PTR _this$[ebp]
  00099	e8 00 00 00 00	 call	 ?erase@?$_Tree@V?$_Tmap_traits@KPAVIData@@U?$less@K@std@@V?$allocator@U?$pair@$$CBKPAVIData@@@std@@@3@$0A@@std@@@std@@QAE?AViterator@12@V312@@Z ; std::_Tree<std::_Tmap_traits<unsigned long,IData *,std::less<unsigned long>,std::allocator<std::pair<unsigned long const ,IData *> >,0> >::erase
  0009e	eb ce		 jmp	 SHORT $L189182
$L189183:

; 760  : 			return (_First);

  000a0	8b 4d 08	 mov	 ecx, DWORD PTR ___$ReturnUdt$[ebp]
  000a3	8b 55 0c	 mov	 edx, DWORD PTR __First$[ebp]
  000a6	89 11		 mov	 DWORD PTR [ecx], edx
  000a8	8b 45 08	 mov	 eax, DWORD PTR ___$ReturnUdt$[ebp]
$L189175:

; 761  : 			}
; 762  : 		}

  000ab	83 c4 14	 add	 esp, 20			; 00000014H
  000ae	3b ec		 cmp	 ebp, esp
  000b0	e8 00 00 00 00	 call	 __RTC_CheckEsp
  000b5	8b e5		 mov	 esp, ebp
  000b7	5d		 pop	 ebp
  000b8	c2 0c 00	 ret	 12			; 0000000cH
?erase@?$_Tree@V?$_Tmap_traits@KPAVIData@@U?$less@K@std@@V?$allocator@U?$pair@$$CBKPAVIData@@@std@@@3@$0A@@std@@@std@@QAE?AViterator@12@V312@0@Z ENDP ; std::_Tree<std::_Tmap_traits<unsigned long,IData *,std::less<unsigned long>,std::allocator<std::pair<unsigned long const ,IData *> >,0> >::erase
_TEXT	ENDS
PUBLIC	?_Lbound@?$_Tree@V?$_Tmap_traits@KPAVIData@@U?$less@K@std@@V?$allocator@U?$pair@$$CBKPAVIData@@@std@@@3@$0A@@std@@@std@@IBEPAU_Node@?$_Tree_nod@V?$_Tmap_traits@KPAVIData@@U?$less@K@std@@V?$allocator@U?$pair@$$CBKPAVIData@@@std@@@3@$0A@@std@@@2@ABK@Z ; std::_Tree<std::_Tmap_traits<unsigned long,IData *,std::less<unsigned long>,std::allocator<std::pair<unsigned long const ,IData *> >,0> >::_Lbound
; Function compile flags: /Odt /RTCsu
;	COMDAT ?lower_bound@?$_Tree@V?$_Tmap_traits@KPAVIData@@U?$less@K@std@@V?$allocator@U?$pair@$$CBKPAVIData@@@std@@@3@$0A@@std@@@std@@QAE?AViterator@12@ABK@Z
_TEXT	SEGMENT
_this$ = -4						; size = 4
___$ReturnUdt$ = 8					; size = 4
__Keyval$ = 12						; size = 4
?lower_bound@?$_Tree@V?$_Tmap_traits@KPAVIData@@U?$less@K@std@@V?$allocator@U?$pair@$$CBKPAVIData@@@std@@@3@$0A@@std@@@std@@QAE?AViterator@12@ABK@Z PROC NEAR ; std::_Tree<std::_Tmap_traits<unsigned long,IData *,std::less<unsigned long>,std::allocator<std::pair<unsigned long const ,IData *> >,0> >::lower_bound, COMDAT
; _this$ = ecx

; 809  : 		{	// find leftmost node not less than _Keyval in mutable tree

  00000	55		 push	 ebp
  00001	8b ec		 mov	 ebp, esp
  00003	51		 push	 ecx
  00004	c7 45 fc cc cc
	cc cc		 mov	 DWORD PTR [ebp-4], -858993460 ; ccccccccH
  0000b	89 4d fc	 mov	 DWORD PTR _this$[ebp], ecx

; 810  : 		return (_TREE_ITERATOR(_Lbound(_Keyval)));

  0000e	8b 45 0c	 mov	 eax, DWORD PTR __Keyval$[ebp]
  00011	50		 push	 eax
  00012	8b 4d fc	 mov	 ecx, DWORD PTR _this$[ebp]
  00015	e8 00 00 00 00	 call	 ?_Lbound@?$_Tree@V?$_Tmap_traits@KPAVIData@@U?$less@K@std@@V?$allocator@U?$pair@$$CBKPAVIData@@@std@@@3@$0A@@std@@@std@@IBEPAU_Node@?$_Tree_nod@V?$_Tmap_traits@KPAVIData@@U?$less@K@std@@V?$allocator@U?$pair@$$CBKPAVIData@@@std@@@3@$0A@@std@@@2@ABK@Z ; std::_Tree<std::_Tmap_traits<unsigned long,IData *,std::less<unsigned long>,std::allocator<std::pair<unsigned long const ,IData *> >,0> >::_Lbound
  0001a	50		 push	 eax
  0001b	8b 4d 08	 mov	 ecx, DWORD PTR ___$ReturnUdt$[ebp]
  0001e	e8 00 00 00 00	 call	 ??0iterator@?$_Tree@V?$_Tmap_traits@KPAVIData@@U?$less@K@std@@V?$allocator@U?$pair@$$CBKPAVIData@@@std@@@3@$0A@@std@@@std@@QAE@PAU_Node@?$_Tree_nod@V?$_Tmap_traits@KPAVIData@@U?$less@K@std@@V?$allocator@U?$pair@$$CBKPAVIData@@@std@@@3@$0A@@std@@@2@@Z ; std::_Tree<std::_Tmap_traits<unsigned long,IData *,std::less<unsigned long>,std::allocator<std::pair<unsigned long const ,IData *> >,0> >::iterator::iterator
  00023	8b 45 08	 mov	 eax, DWORD PTR ___$ReturnUdt$[ebp]

; 811  : 		}

  00026	83 c4 04	 add	 esp, 4
  00029	3b ec		 cmp	 ebp, esp
  0002b	e8 00 00 00 00	 call	 __RTC_CheckEsp
  00030	8b e5		 mov	 esp, ebp
  00032	5d		 pop	 ebp
  00033	c2 08 00	 ret	 8
?lower_bound@?$_Tree@V?$_Tmap_traits@KPAVIData@@U?$less@K@std@@V?$allocator@U?$pair@$$CBKPAVIData@@@std@@@3@$0A@@std@@@std@@QAE?AViterator@12@ABK@Z ENDP ; std::_Tree<std::_Tmap_traits<unsigned long,IData *,std::less<unsigned long>,std::allocator<std::pair<unsigned long const ,IData *> >,0> >::lower_bound
_TEXT	ENDS
PUBLIC	??0?$pair@Viterator@?$_Tree@V?$_Tmap_traits@KPAVIData@@U?$less@K@std@@V?$allocator@U?$pair@$$CBKPAVIData@@@std@@@3@$0A@@std@@@std@@V123@@std@@QAE@ABViterator@?$_Tree@V?$_Tmap_traits@KPAVIData@@U?$less@K@std@@V?$allocator@U?$pair@$$CBKPAVIData@@@std@@@3@$0A@@std@@@1@0@Z ; std::pair<std::_Tree<std::_Tmap_traits<unsigned long,IData *,std::less<unsigned long>,std::allocator<std::pair<unsigned long const ,IData *> >,0> >::iterator,std::_Tree<std::_Tmap_traits<unsigned long,IData *,std::less<unsigned long>,std::allocator<std::pair<unsigned long const ,IData *> >,0> >::iterator>::pair<std::_Tree<std::_Tmap_traits<unsigned long,IData *,std::less<unsigned long>,std::allocator<std::pair<unsigned long const ,IData *> >,0> >::iterator,std::_Tree<std::_Tmap_traits<unsigned long,IData *,std::less<unsigned long>,std::allocator<std::pair<unsigned long const ,IData *> >,0> >::iterator>
PUBLIC	?upper_bound@?$_Tree@V?$_Tmap_traits@KPAVIData@@U?$less@K@std@@V?$allocator@U?$pair@$$CBKPAVIData@@@std@@@3@$0A@@std@@@std@@QAE?AViterator@12@ABK@Z ; std::_Tree<std::_Tmap_traits<unsigned long,IData *,std::less<unsigned long>,std::allocator<std::pair<unsigned long const ,IData *> >,0> >::upper_bound
; Function compile flags: /Odt /RTCsu
;	COMDAT ?equal_range@?$_Tree@V?$_Tmap_traits@KPAVIData@@U?$less@K@std@@V?$allocator@U?$pair@$$CBKPAVIData@@@std@@@3@$0A@@std@@@std@@QAE?AU?$pair@Viterator@?$_Tree@V?$_Tmap_traits@KPAVIData@@U?$less@K@std@@V?$allocator@U?$pair@$$CBKPAVIData@@@std@@@3@$0A@@std@@@std@@V123@@2@ABK@Z
_TEXT	SEGMENT
$T190293 = -12						; size = 4
$T190292 = -8						; size = 4
_this$ = -4						; size = 4
___$ReturnUdt$ = 8					; size = 4
__Keyval$ = 12						; size = 4
?equal_range@?$_Tree@V?$_Tmap_traits@KPAVIData@@U?$less@K@std@@V?$allocator@U?$pair@$$CBKPAVIData@@@std@@@3@$0A@@std@@@std@@QAE?AU?$pair@Viterator@?$_Tree@V?$_Tmap_traits@KPAVIData@@U?$less@K@std@@V?$allocator@U?$pair@$$CBKPAVIData@@@std@@@3@$0A@@std@@@std@@V123@@2@ABK@Z PROC NEAR ; std::_Tree<std::_Tmap_traits<unsigned long,IData *,std::less<unsigned long>,std::allocator<std::pair<unsigned long const ,IData *> >,0> >::equal_range, COMDAT
; _this$ = ecx

; 829  : 		{	// find range equivalent to _Keyval in mutable tree

  00000	55		 push	 ebp
  00001	8b ec		 mov	 ebp, esp
  00003	83 ec 0c	 sub	 esp, 12			; 0000000cH
  00006	c7 45 f4 cc cc
	cc cc		 mov	 DWORD PTR [ebp-12], -858993460 ; ccccccccH
  0000d	c7 45 f8 cc cc
	cc cc		 mov	 DWORD PTR [ebp-8], -858993460 ; ccccccccH
  00014	c7 45 fc cc cc
	cc cc		 mov	 DWORD PTR [ebp-4], -858993460 ; ccccccccH
  0001b	89 4d fc	 mov	 DWORD PTR _this$[ebp], ecx

; 830  : 		return (_Pairii(lower_bound(_Keyval), upper_bound(_Keyval)));

  0001e	8b 45 0c	 mov	 eax, DWORD PTR __Keyval$[ebp]
  00021	50		 push	 eax
  00022	8d 4d f8	 lea	 ecx, DWORD PTR $T190292[ebp]
  00025	51		 push	 ecx
  00026	8b 4d fc	 mov	 ecx, DWORD PTR _this$[ebp]
  00029	e8 00 00 00 00	 call	 ?upper_bound@?$_Tree@V?$_Tmap_traits@KPAVIData@@U?$less@K@std@@V?$allocator@U?$pair@$$CBKPAVIData@@@std@@@3@$0A@@std@@@std@@QAE?AViterator@12@ABK@Z ; std::_Tree<std::_Tmap_traits<unsigned long,IData *,std::less<unsigned long>,std::allocator<std::pair<unsigned long const ,IData *> >,0> >::upper_bound
  0002e	50		 push	 eax
  0002f	8b 55 0c	 mov	 edx, DWORD PTR __Keyval$[ebp]
  00032	52		 push	 edx
  00033	8d 45 f4	 lea	 eax, DWORD PTR $T190293[ebp]
  00036	50		 push	 eax
  00037	8b 4d fc	 mov	 ecx, DWORD PTR _this$[ebp]
  0003a	e8 00 00 00 00	 call	 ?lower_bound@?$_Tree@V?$_Tmap_traits@KPAVIData@@U?$less@K@std@@V?$allocator@U?$pair@$$CBKPAVIData@@@std@@@3@$0A@@std@@@std@@QAE?AViterator@12@ABK@Z ; std::_Tree<std::_Tmap_traits<unsigned long,IData *,std::less<unsigned long>,std::allocator<std::pair<unsigned long const ,IData *> >,0> >::lower_bound
  0003f	50		 push	 eax
  00040	8b 4d 08	 mov	 ecx, DWORD PTR ___$ReturnUdt$[ebp]
  00043	e8 00 00 00 00	 call	 ??0?$pair@Viterator@?$_Tree@V?$_Tmap_traits@KPAVIData@@U?$less@K@std@@V?$allocator@U?$pair@$$CBKPAVIData@@@std@@@3@$0A@@std@@@std@@V123@@std@@QAE@ABViterator@?$_Tree@V?$_Tmap_traits@KPAVIData@@U?$less@K@std@@V?$allocator@U?$pair@$$CBKPAVIData@@@std@@@3@$0A@@std@@@1@0@Z ; std::pair<std::_Tree<std::_Tmap_traits<unsigned long,IData *,std::less<unsigned long>,std::allocator<std::pair<unsigned long const ,IData *> >,0> >::iterator,std::_Tree<std::_Tmap_traits<unsigned long,IData *,std::less<unsigned long>,std::allocator<std::pair<unsigned long const ,IData *> >,0> >::iterator>::pair<std::_Tree<std::_Tmap_traits<unsigned long,IData *,std::less<unsigned long>,std::allocator<std::pair<unsigned long const ,IData *> >,0> >::iterator,std::_Tree<std::_Tmap_traits<unsigned long,IData *,std::less<unsigned long>,std::allocator<std::pair<unsigned long const ,IData *> >,0> >::iterator>
  00048	8b 45 08	 mov	 eax, DWORD PTR ___$ReturnUdt$[ebp]

; 831  : 		}

  0004b	83 c4 0c	 add	 esp, 12			; 0000000cH
  0004e	3b ec		 cmp	 ebp, esp
  00050	e8 00 00 00 00	 call	 __RTC_CheckEsp
  00055	8b e5		 mov	 esp, ebp
  00057	5d		 pop	 ebp
  00058	c2 08 00	 ret	 8
?equal_range@?$_Tree@V?$_Tmap_traits@KPAVIData@@U?$less@K@std@@V?$allocator@U?$pair@$$CBKPAVIData@@@std@@@3@$0A@@std@@@std@@QAE?AU?$pair@Viterator@?$_Tree@V?$_Tmap_traits@KPAVIData@@U?$less@K@std@@V?$allocator@U?$pair@$$CBKPAVIData@@@std@@@3@$0A@@std@@@std@@V123@@2@ABK@Z ENDP ; std::_Tree<std::_Tmap_traits<unsigned long,IData *,std::less<unsigned long>,std::allocator<std::pair<unsigned long const ,IData *> >,0> >::equal_range
_TEXT	ENDS
PUBLIC	?deallocate@?$allocator@U_Node@?$_Tree_nod@V?$_Tmap_traits@KPAVIData@@U?$less@K@std@@V?$allocator@U?$pair@$$CBKPAVIData@@@std@@@3@$0A@@std@@@std@@@std@@QAEXPAU_Node@?$_Tree_nod@V?$_Tmap_traits@KPAVIData@@U?$less@K@std@@V?$allocator@U?$pair@$$CBKPAVIData@@@std@@@3@$0A@@std@@@2@I@Z ; std::allocator<std::_Tree_nod<std::_Tmap_traits<unsigned long,IData *,std::less<unsigned long>,std::allocator<std::pair<unsigned long const ,IData *> >,0> >::_Node>::deallocate
PUBLIC	?destroy@?$allocator@U_Node@?$_Tree_nod@V?$_Tmap_traits@KPAVIData@@U?$less@K@std@@V?$allocator@U?$pair@$$CBKPAVIData@@@std@@@3@$0A@@std@@@std@@@std@@QAEXPAU_Node@?$_Tree_nod@V?$_Tmap_traits@KPAVIData@@U?$less@K@std@@V?$allocator@U?$pair@$$CBKPAVIData@@@std@@@3@$0A@@std@@@2@@Z ; std::allocator<std::_Tree_nod<std::_Tmap_traits<unsigned long,IData *,std::less<unsigned long>,std::allocator<std::pair<unsigned long const ,IData *> >,0> >::_Node>::destroy
PUBLIC	?_Left@?$_Tree@V?$_Tmap_traits@KPAVIData@@U?$less@K@std@@V?$allocator@U?$pair@$$CBKPAVIData@@@std@@@3@$0A@@std@@@std@@KAAAPAU_Node@?$_Tree_nod@V?$_Tmap_traits@KPAVIData@@U?$less@K@std@@V?$allocator@U?$pair@$$CBKPAVIData@@@std@@@3@$0A@@std@@@2@PAU342@@Z ; std::_Tree<std::_Tmap_traits<unsigned long,IData *,std::less<unsigned long>,std::allocator<std::pair<unsigned long const ,IData *> >,0> >::_Left
; Function compile flags: /Odt /RTCsu
;	COMDAT ?_Erase@?$_Tree@V?$_Tmap_traits@KPAVIData@@U?$less@K@std@@V?$allocator@U?$pair@$$CBKPAVIData@@@std@@@3@$0A@@std@@@std@@IAEXPAU_Node@?$_Tree_nod@V?$_Tmap_traits@KPAVIData@@U?$less@K@std@@V?$allocator@U?$pair@$$CBKPAVIData@@@std@@@3@$0A@@std@@@2@@Z
_TEXT	SEGMENT
__Pnode$189198 = -8					; size = 4
_this$ = -4						; size = 4
__Rootnode$ = 8						; size = 4
?_Erase@?$_Tree@V?$_Tmap_traits@KPAVIData@@U?$less@K@std@@V?$allocator@U?$pair@$$CBKPAVIData@@@std@@@3@$0A@@std@@@std@@IAEXPAU_Node@?$_Tree_nod@V?$_Tmap_traits@KPAVIData@@U?$less@K@std@@V?$allocator@U?$pair@$$CBKPAVIData@@@std@@@3@$0A@@std@@@2@@Z PROC NEAR ; std::_Tree<std::_Tmap_traits<unsigned long,IData *,std::less<unsigned long>,std::allocator<std::pair<unsigned long const ,IData *> >,0> >::_Erase, COMDAT
; _this$ = ecx

; 890  : 		{	// free entire subtree, recursively

  00000	55		 push	 ebp
  00001	8b ec		 mov	 ebp, esp
  00003	83 ec 08	 sub	 esp, 8
  00006	c7 45 f8 cc cc
	cc cc		 mov	 DWORD PTR [ebp-8], -858993460 ; ccccccccH
  0000d	c7 45 fc cc cc
	cc cc		 mov	 DWORD PTR [ebp-4], -858993460 ; ccccccccH
  00014	89 4d fc	 mov	 DWORD PTR _this$[ebp], ecx

; 891  : 		for (_Nodeptr _Pnode = _Rootnode; !_Isnil(_Pnode); _Rootnode = _Pnode)

  00017	8b 45 08	 mov	 eax, DWORD PTR __Rootnode$[ebp]
  0001a	89 45 f8	 mov	 DWORD PTR __Pnode$189198[ebp], eax
  0001d	eb 06		 jmp	 SHORT $L189199
$L189200:
  0001f	8b 4d f8	 mov	 ecx, DWORD PTR __Pnode$189198[ebp]
  00022	89 4d 08	 mov	 DWORD PTR __Rootnode$[ebp], ecx
$L189199:
  00025	8b 55 f8	 mov	 edx, DWORD PTR __Pnode$189198[ebp]
  00028	52		 push	 edx
  00029	e8 00 00 00 00	 call	 ?_Isnil@?$_Tree@V?$_Tmap_traits@KPAVIData@@U?$less@K@std@@V?$allocator@U?$pair@$$CBKPAVIData@@@std@@@3@$0A@@std@@@std@@KAAADPAU_Node@?$_Tree_nod@V?$_Tmap_traits@KPAVIData@@U?$less@K@std@@V?$allocator@U?$pair@$$CBKPAVIData@@@std@@@3@$0A@@std@@@2@@Z ; std::_Tree<std::_Tmap_traits<unsigned long,IData *,std::less<unsigned long>,std::allocator<std::pair<unsigned long const ,IData *> >,0> >::_Isnil
  0002e	83 c4 04	 add	 esp, 4
  00031	0f be 00	 movsx	 eax, BYTE PTR [eax]
  00034	85 c0		 test	 eax, eax
  00036	75 4a		 jne	 SHORT $L189197

; 892  : 			{	// free subtrees, then node
; 893  : 			_Erase(_Right(_Pnode));

  00038	8b 4d f8	 mov	 ecx, DWORD PTR __Pnode$189198[ebp]
  0003b	51		 push	 ecx
  0003c	e8 00 00 00 00	 call	 ?_Right@?$_Tree@V?$_Tmap_traits@KPAVIData@@U?$less@K@std@@V?$allocator@U?$pair@$$CBKPAVIData@@@std@@@3@$0A@@std@@@std@@KAAAPAU_Node@?$_Tree_nod@V?$_Tmap_traits@KPAVIData@@U?$less@K@std@@V?$allocator@U?$pair@$$CBKPAVIData@@@std@@@3@$0A@@std@@@2@PAU342@@Z ; std::_Tree<std::_Tmap_traits<unsigned long,IData *,std::less<unsigned long>,std::allocator<std::pair<unsigned long const ,IData *> >,0> >::_Right
  00041	83 c4 04	 add	 esp, 4
  00044	8b 10		 mov	 edx, DWORD PTR [eax]
  00046	52		 push	 edx
  00047	8b 4d fc	 mov	 ecx, DWORD PTR _this$[ebp]
  0004a	e8 00 00 00 00	 call	 ?_Erase@?$_Tree@V?$_Tmap_traits@KPAVIData@@U?$less@K@std@@V?$allocator@U?$pair@$$CBKPAVIData@@@std@@@3@$0A@@std@@@std@@IAEXPAU_Node@?$_Tree_nod@V?$_Tmap_traits@KPAVIData@@U?$less@K@std@@V?$allocator@U?$pair@$$CBKPAVIData@@@std@@@3@$0A@@std@@@2@@Z ; std::_Tree<std::_Tmap_traits<unsigned long,IData *,std::less<unsigned long>,std::allocator<std::pair<unsigned long const ,IData *> >,0> >::_Erase

; 894  : 			_Pnode = _Left(_Pnode);

  0004f	8b 45 f8	 mov	 eax, DWORD PTR __Pnode$189198[ebp]
  00052	50		 push	 eax
  00053	e8 00 00 00 00	 call	 ?_Left@?$_Tree@V?$_Tmap_traits@KPAVIData@@U?$less@K@std@@V?$allocator@U?$pair@$$CBKPAVIData@@@std@@@3@$0A@@std@@@std@@KAAAPAU_Node@?$_Tree_nod@V?$_Tmap_traits@KPAVIData@@U?$less@K@std@@V?$allocator@U?$pair@$$CBKPAVIData@@@std@@@3@$0A@@std@@@2@PAU342@@Z ; std::_Tree<std::_Tmap_traits<unsigned long,IData *,std::less<unsigned long>,std::allocator<std::pair<unsigned long const ,IData *> >,0> >::_Left
  00058	83 c4 04	 add	 esp, 4
  0005b	8b 08		 mov	 ecx, DWORD PTR [eax]
  0005d	89 4d f8	 mov	 DWORD PTR __Pnode$189198[ebp], ecx

; 895  : 			this->_Alnod.destroy(_Rootnode);	// destroy, free erased node

  00060	8b 55 08	 mov	 edx, DWORD PTR __Rootnode$[ebp]
  00063	52		 push	 edx
  00064	8b 4d fc	 mov	 ecx, DWORD PTR _this$[ebp]
  00067	83 c1 01	 add	 ecx, 1
  0006a	e8 00 00 00 00	 call	 ?destroy@?$allocator@U_Node@?$_Tree_nod@V?$_Tmap_traits@KPAVIData@@U?$less@K@std@@V?$allocator@U?$pair@$$CBKPAVIData@@@std@@@3@$0A@@std@@@std@@@std@@QAEXPAU_Node@?$_Tree_nod@V?$_Tmap_traits@KPAVIData@@U?$less@K@std@@V?$allocator@U?$pair@$$CBKPAVIData@@@std@@@3@$0A@@std@@@2@@Z ; std::allocator<std::_Tree_nod<std::_Tmap_traits<unsigned long,IData *,std::less<unsigned long>,std::allocator<std::pair<unsigned long const ,IData *> >,0> >::_Node>::destroy

; 896  : 			this->_Alnod.deallocate(_Rootnode, 1);

  0006f	6a 01		 push	 1
  00071	8b 45 08	 mov	 eax, DWORD PTR __Rootnode$[ebp]
  00074	50		 push	 eax
  00075	8b 4d fc	 mov	 ecx, DWORD PTR _this$[ebp]
  00078	83 c1 01	 add	 ecx, 1
  0007b	e8 00 00 00 00	 call	 ?deallocate@?$allocator@U_Node@?$_Tree_nod@V?$_Tmap_traits@KPAVIData@@U?$less@K@std@@V?$allocator@U?$pair@$$CBKPAVIData@@@std@@@3@$0A@@std@@@std@@@std@@QAEXPAU_Node@?$_Tree_nod@V?$_Tmap_traits@KPAVIData@@U?$less@K@std@@V?$allocator@U?$pair@$$CBKPAVIData@@@std@@@3@$0A@@std@@@2@I@Z ; std::allocator<std::_Tree_nod<std::_Tmap_traits<unsigned long,IData *,std::less<unsigned long>,std::allocator<std::pair<unsigned long const ,IData *> >,0> >::_Node>::deallocate

; 897  : 			}

  00080	eb 9d		 jmp	 SHORT $L189200
$L189197:

; 898  : 		}

  00082	83 c4 08	 add	 esp, 8
  00085	3b ec		 cmp	 ebp, esp
  00087	e8 00 00 00 00	 call	 __RTC_CheckEsp
  0008c	8b e5		 mov	 esp, ebp
  0008e	5d		 pop	 ebp
  0008f	c2 04 00	 ret	 4
?_Erase@?$_Tree@V?$_Tmap_traits@KPAVIData@@U?$less@K@std@@V?$allocator@U?$pair@$$CBKPAVIData@@@std@@@3@$0A@@std@@@std@@IAEXPAU_Node@?$_Tree_nod@V?$_Tmap_traits@KPAVIData@@U?$less@K@std@@V?$allocator@U?$pair@$$CBKPAVIData@@@std@@@3@$0A@@std@@@2@@Z ENDP ; std::_Tree<std::_Tmap_traits<unsigned long,IData *,std::less<unsigned long>,std::allocator<std::pair<unsigned long const ,IData *> >,0> >::_Erase
; Function compile flags: /Odt /RTCsu
_TEXT	ENDS
;	COMDAT ?_Lmost@?$_Tree@V?$_Tmap_traits@KPAVIData@@U?$less@K@std@@V?$allocator@U?$pair@$$CBKPAVIData@@@std@@@3@$0A@@std@@@std@@IAEAAPAU_Node@?$_Tree_nod@V?$_Tmap_traits@KPAVIData@@U?$less@K@std@@V?$allocator@U?$pair@$$CBKPAVIData@@@std@@@3@$0A@@std@@@2@XZ
_TEXT	SEGMENT
_this$ = -4						; size = 4
?_Lmost@?$_Tree@V?$_Tmap_traits@KPAVIData@@U?$less@K@std@@V?$allocator@U?$pair@$$CBKPAVIData@@@std@@@3@$0A@@std@@@std@@IAEAAPAU_Node@?$_Tree_nod@V?$_Tmap_traits@KPAVIData@@U?$less@K@std@@V?$allocator@U?$pair@$$CBKPAVIData@@@std@@@3@$0A@@std@@@2@XZ PROC NEAR ; std::_Tree<std::_Tmap_traits<unsigned long,IData *,std::less<unsigned long>,std::allocator<std::pair<unsigned long const ,IData *> >,0> >::_Lmost, COMDAT
; _this$ = ecx

; 1004 : 		{	// return leftmost node in mutable tree

  00000	55		 push	 ebp
  00001	8b ec		 mov	 ebp, esp
  00003	51		 push	 ecx
  00004	c7 45 fc cc cc
	cc cc		 mov	 DWORD PTR [ebp-4], -858993460 ; ccccccccH
  0000b	89 4d fc	 mov	 DWORD PTR _this$[ebp], ecx

; 1005 : 		return (_Left(_Myhead));

  0000e	8b 45 fc	 mov	 eax, DWORD PTR _this$[ebp]
  00011	8b 48 04	 mov	 ecx, DWORD PTR [eax+4]
  00014	51		 push	 ecx
  00015	e8 00 00 00 00	 call	 ?_Left@?$_Tree@V?$_Tmap_traits@KPAVIData@@U?$less@K@std@@V?$allocator@U?$pair@$$CBKPAVIData@@@std@@@3@$0A@@std@@@std@@KAAAPAU_Node@?$_Tree_nod@V?$_Tmap_traits@KPAVIData@@U?$less@K@std@@V?$allocator@U?$pair@$$CBKPAVIData@@@std@@@3@$0A@@std@@@2@PAU342@@Z ; std::_Tree<std::_Tmap_traits<unsigned long,IData *,std::less<unsigned long>,std::allocator<std::pair<unsigned long const ,IData *> >,0> >::_Left
  0001a	83 c4 04	 add	 esp, 4

; 1006 : 		}

  0001d	83 c4 04	 add	 esp, 4
  00020	3b ec		 cmp	 ebp, esp
  00022	e8 00 00 00 00	 call	 __RTC_CheckEsp
  00027	8b e5		 mov	 esp, ebp
  00029	5d		 pop	 ebp
  0002a	c3		 ret	 0
?_Lmost@?$_Tree@V?$_Tmap_traits@KPAVIData@@U?$less@K@std@@V?$allocator@U?$pair@$$CBKPAVIData@@@std@@@3@$0A@@std@@@std@@IAEAAPAU_Node@?$_Tree_nod@V?$_Tmap_traits@KPAVIData@@U?$less@K@std@@V?$allocator@U?$pair@$$CBKPAVIData@@@std@@@3@$0A@@std@@@2@XZ ENDP ; std::_Tree<std::_Tmap_traits<unsigned long,IData *,std::less<unsigned long>,std::allocator<std::pair<unsigned long const ,IData *> >,0> >::_Lmost
; Function compile flags: /Odt /RTCsu
_TEXT	ENDS
;	COMDAT ?_Rmost@?$_Tree@V?$_Tmap_traits@KPAVIData@@U?$less@K@std@@V?$allocator@U?$pair@$$CBKPAVIData@@@std@@@3@$0A@@std@@@std@@IAEAAPAU_Node@?$_Tree_nod@V?$_Tmap_traits@KPAVIData@@U?$less@K@std@@V?$allocator@U?$pair@$$CBKPAVIData@@@std@@@3@$0A@@std@@@2@XZ
_TEXT	SEGMENT
_this$ = -4						; size = 4
?_Rmost@?$_Tree@V?$_Tmap_traits@KPAVIData@@U?$less@K@std@@V?$allocator@U?$pair@$$CBKPAVIData@@@std@@@3@$0A@@std@@@std@@IAEAAPAU_Node@?$_Tree_nod@V?$_Tmap_traits@KPAVIData@@U?$less@K@std@@V?$allocator@U?$pair@$$CBKPAVIData@@@std@@@3@$0A@@std@@@2@XZ PROC NEAR ; std::_Tree<std::_Tmap_traits<unsigned long,IData *,std::less<unsigned long>,std::allocator<std::pair<unsigned long const ,IData *> >,0> >::_Rmost, COMDAT
; _this$ = ecx

; 1048 : 		{	// return rightmost node in mutable tree

  00000	55		 push	 ebp
  00001	8b ec		 mov	 ebp, esp
  00003	51		 push	 ecx
  00004	c7 45 fc cc cc
	cc cc		 mov	 DWORD PTR [ebp-4], -858993460 ; ccccccccH
  0000b	89 4d fc	 mov	 DWORD PTR _this$[ebp], ecx

; 1049 : 		return (_Right(_Myhead));

  0000e	8b 45 fc	 mov	 eax, DWORD PTR _this$[ebp]
  00011	8b 48 04	 mov	 ecx, DWORD PTR [eax+4]
  00014	51		 push	 ecx
  00015	e8 00 00 00 00	 call	 ?_Right@?$_Tree@V?$_Tmap_traits@KPAVIData@@U?$less@K@std@@V?$allocator@U?$pair@$$CBKPAVIData@@@std@@@3@$0A@@std@@@std@@KAAAPAU_Node@?$_Tree_nod@V?$_Tmap_traits@KPAVIData@@U?$less@K@std@@V?$allocator@U?$pair@$$CBKPAVIData@@@std@@@3@$0A@@std@@@2@PAU342@@Z ; std::_Tree<std::_Tmap_traits<unsigned long,IData *,std::less<unsigned long>,std::allocator<std::pair<unsigned long const ,IData *> >,0> >::_Right
  0001a	83 c4 04	 add	 esp, 4

; 1050 : 		}

  0001d	83 c4 04	 add	 esp, 4
  00020	3b ec		 cmp	 ebp, esp
  00022	e8 00 00 00 00	 call	 __RTC_CheckEsp
  00027	8b e5		 mov	 esp, ebp
  00029	5d		 pop	 ebp
  0002a	c3		 ret	 0
?_Rmost@?$_Tree@V?$_Tmap_traits@KPAVIData@@U?$less@K@std@@V?$allocator@U?$pair@$$CBKPAVIData@@@std@@@3@$0A@@std@@@std@@IAEAAPAU_Node@?$_Tree_nod@V?$_Tmap_traits@KPAVIData@@U?$less@K@std@@V?$allocator@U?$pair@$$CBKPAVIData@@@std@@@3@$0A@@std@@@2@XZ ENDP ; std::_Tree<std::_Tmap_traits<unsigned long,IData *,std::less<unsigned long>,std::allocator<std::pair<unsigned long const ,IData *> >,0> >::_Rmost
_TEXT	ENDS
PUBLIC	?_Parent@?$_Tree@V?$_Tmap_traits@KPAVIData@@U?$less@K@std@@V?$allocator@U?$pair@$$CBKPAVIData@@@std@@@3@$0A@@std@@@std@@KAAAPAU_Node@?$_Tree_nod@V?$_Tmap_traits@KPAVIData@@U?$less@K@std@@V?$allocator@U?$pair@$$CBKPAVIData@@@std@@@3@$0A@@std@@@2@PAU342@@Z ; std::_Tree<std::_Tmap_traits<unsigned long,IData *,std::less<unsigned long>,std::allocator<std::pair<unsigned long const ,IData *> >,0> >::_Parent
; Function compile flags: /Odt /RTCsu
;	COMDAT ?_Root@?$_Tree@V?$_Tmap_traits@KPAVIData@@U?$less@K@std@@V?$allocator@U?$pair@$$CBKPAVIData@@@std@@@3@$0A@@std@@@std@@IAEAAPAU_Node@?$_Tree_nod@V?$_Tmap_traits@KPAVIData@@U?$less@K@std@@V?$allocator@U?$pair@$$CBKPAVIData@@@std@@@3@$0A@@std@@@2@XZ
_TEXT	SEGMENT
_this$ = -4						; size = 4
?_Root@?$_Tree@V?$_Tmap_traits@KPAVIData@@U?$less@K@std@@V?$allocator@U?$pair@$$CBKPAVIData@@@std@@@3@$0A@@std@@@std@@IAEAAPAU_Node@?$_Tree_nod@V?$_Tmap_traits@KPAVIData@@U?$less@K@std@@V?$allocator@U?$pair@$$CBKPAVIData@@@std@@@3@$0A@@std@@@2@XZ PROC NEAR ; std::_Tree<std::_Tmap_traits<unsigned long,IData *,std::less<unsigned long>,std::allocator<std::pair<unsigned long const ,IData *> >,0> >::_Root, COMDAT
; _this$ = ecx

; 1058 : 		{	// return root of mutable tree

  00000	55		 push	 ebp
  00001	8b ec		 mov	 ebp, esp
  00003	51		 push	 ecx
  00004	c7 45 fc cc cc
	cc cc		 mov	 DWORD PTR [ebp-4], -858993460 ; ccccccccH
  0000b	89 4d fc	 mov	 DWORD PTR _this$[ebp], ecx

; 1059 : 		return (_Parent(_Myhead));

  0000e	8b 45 fc	 mov	 eax, DWORD PTR _this$[ebp]
  00011	8b 48 04	 mov	 ecx, DWORD PTR [eax+4]
  00014	51		 push	 ecx
  00015	e8 00 00 00 00	 call	 ?_Parent@?$_Tree@V?$_Tmap_traits@KPAVIData@@U?$less@K@std@@V?$allocator@U?$pair@$$CBKPAVIData@@@std@@@3@$0A@@std@@@std@@KAAAPAU_Node@?$_Tree_nod@V?$_Tmap_traits@KPAVIData@@U?$less@K@std@@V?$allocator@U?$pair@$$CBKPAVIData@@@std@@@3@$0A@@std@@@2@PAU342@@Z ; std::_Tree<std::_Tmap_traits<unsigned long,IData *,std::less<unsigned long>,std::allocator<std::pair<unsigned long const ,IData *> >,0> >::_Parent
  0001a	83 c4 04	 add	 esp, 4

; 1060 : 		}

  0001d	83 c4 04	 add	 esp, 4
  00020	3b ec		 cmp	 ebp, esp
  00022	e8 00 00 00 00	 call	 __RTC_CheckEsp
  00027	8b e5		 mov	 esp, ebp
  00029	5d		 pop	 ebp
  0002a	c3		 ret	 0
?_Root@?$_Tree@V?$_Tmap_traits@KPAVIData@@U?$less@K@std@@V?$allocator@U?$pair@$$CBKPAVIData@@@std@@@3@$0A@@std@@@std@@IAEAAPAU_Node@?$_Tree_nod@V?$_Tmap_traits@KPAVIData@@U?$less@K@std@@V?$allocator@U?$pair@$$CBKPAVIData@@@std@@@3@$0A@@std@@@2@XZ ENDP ; std::_Tree<std::_Tmap_traits<unsigned long,IData *,std::less<unsigned long>,std::allocator<std::pair<unsigned long const ,IData *> >,0> >::_Root
_TEXT	ENDS
PUBLIC	?destroy@?$allocator@PAU_Node@?$_Tree_nod@V?$_Tmap_traits@KPAVIData@@U?$less@K@std@@V?$allocator@U?$pair@$$CBKPAVIData@@@std@@@3@$0A@@std@@@std@@@std@@QAEXPAPAU_Node@?$_Tree_nod@V?$_Tmap_traits@KPAVIData@@U?$less@K@std@@V?$allocator@U?$pair@$$CBKPAVIData@@@std@@@3@$0A@@std@@@2@@Z ; std::allocator<std::_Tree_nod<std::_Tmap_traits<unsigned long,IData *,std::less<unsigned long>,std::allocator<std::pair<unsigned long const ,IData *> >,0> >::_Node *>::destroy
; Function compile flags: /Odt /RTCsu
;	COMDAT ?_Tidy@?$_Tree@V?$_Tmap_traits@KPAVIData@@U?$less@K@std@@V?$allocator@U?$pair@$$CBKPAVIData@@@std@@@3@$0A@@std@@@std@@IAEXXZ
_TEXT	SEGMENT
$T190301 = -16						; size = 4
$T190300 = -12						; size = 4
$T190299 = -8						; size = 4
_this$ = -4						; size = 4
?_Tidy@?$_Tree@V?$_Tmap_traits@KPAVIData@@U?$less@K@std@@V?$allocator@U?$pair@$$CBKPAVIData@@@std@@@3@$0A@@std@@@std@@IAEXXZ PROC NEAR ; std::_Tree<std::_Tmap_traits<unsigned long,IData *,std::less<unsigned long>,std::allocator<std::pair<unsigned long const ,IData *> >,0> >::_Tidy, COMDAT
; _this$ = ecx

; 1142 : 		{	// free all storage

  00000	55		 push	 ebp
  00001	8b ec		 mov	 ebp, esp
  00003	83 ec 10	 sub	 esp, 16			; 00000010H
  00006	b8 cc cc cc cc	 mov	 eax, -858993460		; ccccccccH
  0000b	89 45 f0	 mov	 DWORD PTR [ebp-16], eax
  0000e	89 45 f4	 mov	 DWORD PTR [ebp-12], eax
  00011	89 45 f8	 mov	 DWORD PTR [ebp-8], eax
  00014	89 45 fc	 mov	 DWORD PTR [ebp-4], eax
  00017	89 4d fc	 mov	 DWORD PTR _this$[ebp], ecx

; 1143 : 		erase(begin(), end());

  0001a	8d 45 f8	 lea	 eax, DWORD PTR $T190299[ebp]
  0001d	50		 push	 eax
  0001e	8b 4d fc	 mov	 ecx, DWORD PTR _this$[ebp]
  00021	e8 00 00 00 00	 call	 ?end@?$_Tree@V?$_Tmap_traits@KPAVIData@@U?$less@K@std@@V?$allocator@U?$pair@$$CBKPAVIData@@@std@@@3@$0A@@std@@@std@@QAE?AViterator@12@XZ ; std::_Tree<std::_Tmap_traits<unsigned long,IData *,std::less<unsigned long>,std::allocator<std::pair<unsigned long const ,IData *> >,0> >::end
  00026	8b 08		 mov	 ecx, DWORD PTR [eax]
  00028	51		 push	 ecx
  00029	8d 55 f4	 lea	 edx, DWORD PTR $T190300[ebp]
  0002c	52		 push	 edx
  0002d	8b 4d fc	 mov	 ecx, DWORD PTR _this$[ebp]
  00030	e8 00 00 00 00	 call	 ?begin@?$_Tree@V?$_Tmap_traits@KPAVIData@@U?$less@K@std@@V?$allocator@U?$pair@$$CBKPAVIData@@@std@@@3@$0A@@std@@@std@@QAE?AViterator@12@XZ ; std::_Tree<std::_Tmap_traits<unsigned long,IData *,std::less<unsigned long>,std::allocator<std::pair<unsigned long const ,IData *> >,0> >::begin
  00035	8b 00		 mov	 eax, DWORD PTR [eax]
  00037	50		 push	 eax
  00038	8d 4d f0	 lea	 ecx, DWORD PTR $T190301[ebp]
  0003b	51		 push	 ecx
  0003c	8b 4d fc	 mov	 ecx, DWORD PTR _this$[ebp]
  0003f	e8 00 00 00 00	 call	 ?erase@?$_Tree@V?$_Tmap_traits@KPAVIData@@U?$less@K@std@@V?$allocator@U?$pair@$$CBKPAVIData@@@std@@@3@$0A@@std@@@std@@QAE?AViterator@12@V312@0@Z ; std::_Tree<std::_Tmap_traits<unsigned long,IData *,std::less<unsigned long>,std::allocator<std::pair<unsigned long const ,IData *> >,0> >::erase

; 1144 : 		this->_Alptr.destroy(&_Left(_Myhead));

  00044	8b 55 fc	 mov	 edx, DWORD PTR _this$[ebp]
  00047	8b 42 04	 mov	 eax, DWORD PTR [edx+4]
  0004a	50		 push	 eax
  0004b	e8 00 00 00 00	 call	 ?_Left@?$_Tree@V?$_Tmap_traits@KPAVIData@@U?$less@K@std@@V?$allocator@U?$pair@$$CBKPAVIData@@@std@@@3@$0A@@std@@@std@@KAAAPAU_Node@?$_Tree_nod@V?$_Tmap_traits@KPAVIData@@U?$less@K@std@@V?$allocator@U?$pair@$$CBKPAVIData@@@std@@@3@$0A@@std@@@2@PAU342@@Z ; std::_Tree<std::_Tmap_traits<unsigned long,IData *,std::less<unsigned long>,std::allocator<std::pair<unsigned long const ,IData *> >,0> >::_Left
  00050	83 c4 04	 add	 esp, 4
  00053	50		 push	 eax
  00054	8b 4d fc	 mov	 ecx, DWORD PTR _this$[ebp]
  00057	83 c1 02	 add	 ecx, 2
  0005a	e8 00 00 00 00	 call	 ?destroy@?$allocator@PAU_Node@?$_Tree_nod@V?$_Tmap_traits@KPAVIData@@U?$less@K@std@@V?$allocator@U?$pair@$$CBKPAVIData@@@std@@@3@$0A@@std@@@std@@@std@@QAEXPAPAU_Node@?$_Tree_nod@V?$_Tmap_traits@KPAVIData@@U?$less@K@std@@V?$allocator@U?$pair@$$CBKPAVIData@@@std@@@3@$0A@@std@@@2@@Z ; std::allocator<std::_Tree_nod<std::_Tmap_traits<unsigned long,IData *,std::less<unsigned long>,std::allocator<std::pair<unsigned long const ,IData *> >,0> >::_Node *>::destroy

; 1145 : 		this->_Alptr.destroy(&_Parent(_Myhead));

  0005f	8b 4d fc	 mov	 ecx, DWORD PTR _this$[ebp]
  00062	8b 51 04	 mov	 edx, DWORD PTR [ecx+4]
  00065	52		 push	 edx
  00066	e8 00 00 00 00	 call	 ?_Parent@?$_Tree@V?$_Tmap_traits@KPAVIData@@U?$less@K@std@@V?$allocator@U?$pair@$$CBKPAVIData@@@std@@@3@$0A@@std@@@std@@KAAAPAU_Node@?$_Tree_nod@V?$_Tmap_traits@KPAVIData@@U?$less@K@std@@V?$allocator@U?$pair@$$CBKPAVIData@@@std@@@3@$0A@@std@@@2@PAU342@@Z ; std::_Tree<std::_Tmap_traits<unsigned long,IData *,std::less<unsigned long>,std::allocator<std::pair<unsigned long const ,IData *> >,0> >::_Parent
  0006b	83 c4 04	 add	 esp, 4
  0006e	50		 push	 eax
  0006f	8b 4d fc	 mov	 ecx, DWORD PTR _this$[ebp]
  00072	83 c1 02	 add	 ecx, 2
  00075	e8 00 00 00 00	 call	 ?destroy@?$allocator@PAU_Node@?$_Tree_nod@V?$_Tmap_traits@KPAVIData@@U?$less@K@std@@V?$allocator@U?$pair@$$CBKPAVIData@@@std@@@3@$0A@@std@@@std@@@std@@QAEXPAPAU_Node@?$_Tree_nod@V?$_Tmap_traits@KPAVIData@@U?$less@K@std@@V?$allocator@U?$pair@$$CBKPAVIData@@@std@@@3@$0A@@std@@@2@@Z ; std::allocator<std::_Tree_nod<std::_Tmap_traits<unsigned long,IData *,std::less<unsigned long>,std::allocator<std::pair<unsigned long const ,IData *> >,0> >::_Node *>::destroy

; 1146 : 		this->_Alptr.destroy(&_Right(_Myhead));

  0007a	8b 45 fc	 mov	 eax, DWORD PTR _this$[ebp]
  0007d	8b 48 04	 mov	 ecx, DWORD PTR [eax+4]
  00080	51		 push	 ecx
  00081	e8 00 00 00 00	 call	 ?_Right@?$_Tree@V?$_Tmap_traits@KPAVIData@@U?$less@K@std@@V?$allocator@U?$pair@$$CBKPAVIData@@@std@@@3@$0A@@std@@@std@@KAAAPAU_Node@?$_Tree_nod@V?$_Tmap_traits@KPAVIData@@U?$less@K@std@@V?$allocator@U?$pair@$$CBKPAVIData@@@std@@@3@$0A@@std@@@2@PAU342@@Z ; std::_Tree<std::_Tmap_traits<unsigned long,IData *,std::less<unsigned long>,std::allocator<std::pair<unsigned long const ,IData *> >,0> >::_Right
  00086	83 c4 04	 add	 esp, 4
  00089	50		 push	 eax
  0008a	8b 4d fc	 mov	 ecx, DWORD PTR _this$[ebp]
  0008d	83 c1 02	 add	 ecx, 2
  00090	e8 00 00 00 00	 call	 ?destroy@?$allocator@PAU_Node@?$_Tree_nod@V?$_Tmap_traits@KPAVIData@@U?$less@K@std@@V?$allocator@U?$pair@$$CBKPAVIData@@@std@@@3@$0A@@std@@@std@@@std@@QAEXPAPAU_Node@?$_Tree_nod@V?$_Tmap_traits@KPAVIData@@U?$less@K@std@@V?$allocator@U?$pair@$$CBKPAVIData@@@std@@@3@$0A@@std@@@2@@Z ; std::allocator<std::_Tree_nod<std::_Tmap_traits<unsigned long,IData *,std::less<unsigned long>,std::allocator<std::pair<unsigned long const ,IData *> >,0> >::_Node *>::destroy

; 1147 : 		this->_Alnod.deallocate(_Myhead, 1);

  00095	6a 01		 push	 1
  00097	8b 55 fc	 mov	 edx, DWORD PTR _this$[ebp]
  0009a	8b 42 04	 mov	 eax, DWORD PTR [edx+4]
  0009d	50		 push	 eax
  0009e	8b 4d fc	 mov	 ecx, DWORD PTR _this$[ebp]
  000a1	83 c1 01	 add	 ecx, 1
  000a4	e8 00 00 00 00	 call	 ?deallocate@?$allocator@U_Node@?$_Tree_nod@V?$_Tmap_traits@KPAVIData@@U?$less@K@std@@V?$allocator@U?$pair@$$CBKPAVIData@@@std@@@3@$0A@@std@@@std@@@std@@QAEXPAU_Node@?$_Tree_nod@V?$_Tmap_traits@KPAVIData@@U?$less@K@std@@V?$allocator@U?$pair@$$CBKPAVIData@@@std@@@3@$0A@@std@@@2@I@Z ; std::allocator<std::_Tree_nod<std::_Tmap_traits<unsigned long,IData *,std::less<unsigned long>,std::allocator<std::pair<unsigned long const ,IData *> >,0> >::_Node>::deallocate

; 1148 : 		_Myhead = 0, _Mysize = 0;

  000a9	8b 4d fc	 mov	 ecx, DWORD PTR _this$[ebp]
  000ac	c7 41 04 00 00
	00 00		 mov	 DWORD PTR [ecx+4], 0
  000b3	8b 55 fc	 mov	 edx, DWORD PTR _this$[ebp]
  000b6	c7 42 08 00 00
	00 00		 mov	 DWORD PTR [edx+8], 0

; 1149 : 		}

  000bd	83 c4 10	 add	 esp, 16			; 00000010H
  000c0	3b ec		 cmp	 ebp, esp
  000c2	e8 00 00 00 00	 call	 __RTC_CheckEsp
  000c7	8b e5		 mov	 esp, ebp
  000c9	5d		 pop	 ebp
  000ca	c3		 ret	 0
?_Tidy@?$_Tree@V?$_Tmap_traits@KPAVIData@@U?$less@K@std@@V?$allocator@U?$pair@$$CBKPAVIData@@@std@@@3@$0A@@std@@@std@@IAEXXZ ENDP ; std::_Tree<std::_Tmap_traits<unsigned long,IData *,std::less<unsigned long>,std::allocator<std::pair<unsigned long const ,IData *> >,0> >::_Tidy
; Function compile flags: /Odt /RTCsu
; File d:\program files (x86)\microsoft visual studio .net 2003\vc7\include\xmemory
_TEXT	ENDS
;	COMDAT ??0?$allocator@U?$pair@$$CBKPAVIData@@@std@@@std@@QAE@XZ
_TEXT	SEGMENT
_this$ = -4						; size = 4
??0?$allocator@U?$pair@$$CBKPAVIData@@@std@@@std@@QAE@XZ PROC NEAR ; std::allocator<std::pair<unsigned long const ,IData *> >::allocator<std::pair<unsigned long const ,IData *> >, COMDAT
; _this$ = ecx

; 111  : 	allocator()

  00000	55		 push	 ebp
  00001	8b ec		 mov	 ebp, esp
  00003	51		 push	 ecx
  00004	c7 45 fc cc cc
	cc cc		 mov	 DWORD PTR [ebp-4], -858993460 ; ccccccccH
  0000b	89 4d fc	 mov	 DWORD PTR _this$[ebp], ecx

; 112  : 		{	// construct default allocator (do nothing)
; 113  : 		}

  0000e	8b 45 fc	 mov	 eax, DWORD PTR _this$[ebp]
  00011	8b e5		 mov	 esp, ebp
  00013	5d		 pop	 ebp
  00014	c3		 ret	 0
??0?$allocator@U?$pair@$$CBKPAVIData@@@std@@@std@@QAE@XZ ENDP ; std::allocator<std::pair<unsigned long const ,IData *> >::allocator<std::pair<unsigned long const ,IData *> >
; Function compile flags: /Odt /RTCsu
; File d:\program files (x86)\microsoft visual studio .net 2003\vc7\include\functional
_TEXT	ENDS
;	COMDAT ??R?$less@K@std@@QBE_NABK0@Z
_TEXT	SEGMENT
_this$ = -4						; size = 4
__Left$ = 8						; size = 4
__Right$ = 12						; size = 4
??R?$less@K@std@@QBE_NABK0@Z PROC NEAR			; std::less<unsigned long>::operator(), COMDAT
; _this$ = ecx

; 138  : 		{	// apply operator< to operands

  00000	55		 push	 ebp
  00001	8b ec		 mov	 ebp, esp
  00003	51		 push	 ecx
  00004	c7 45 fc cc cc
	cc cc		 mov	 DWORD PTR [ebp-4], -858993460 ; ccccccccH
  0000b	89 4d fc	 mov	 DWORD PTR _this$[ebp], ecx

