; Listing generated by Microsoft (R) Optimizing Compiler Version 13.10.3077 

	TITLE	.\src\LayoutMgr\ChangeColor\ColorSlide.cpp
	.386P
include listing.inc
if @Version gt 510
.model FLAT
else
_TEXT	SEGMENT PARA USE32 PUBLIC 'CODE'
_TEXT	ENDS
_DATA	SEGMENT DWORD USE32 PUBLIC 'DATA'
_DATA	ENDS
CONST	SEGMENT DWORD USE32 PUBLIC 'CONST'
CONST	ENDS
_BSS	SEGMENT DWORD USE32 PUBLIC 'BSS'
_BSS	ENDS
$$SYMBOLS	SEGMENT BYTE USE32 'DEBSYM'
$$SYMBOLS	ENDS
_TLS	SEGMENT DWORD USE32 PUBLIC 'TLS'
_TLS	ENDS
;	COMDAT ??_C@_0FC@OGIBLEP@d?3?2boxgit?2playbox?2playbox?2dev?2pr@
CONST	SEGMENT DWORD USE32 PUBLIC 'CONST'
CONST	ENDS
;	COMDAT ??_C@_0EN@IBFBLEEG@D?3?2Program?5Files?5?$CIx86?$CJ?2Microsoft@
CONST	SEGMENT DWORD USE32 PUBLIC 'CONST'
CONST	ENDS
rdata$r	SEGMENT DWORD USE32 PUBLIC 'CONST'
rdata$r	ENDS
xdata$x	SEGMENT DWORD USE32 PUBLIC 'CONST'
xdata$x	ENDS
text$AFX_COL1	SEGMENT PARA USE32 PUBLIC ''
text$AFX_COL1	ENDS
text$yc	SEGMENT PARA USE32 PUBLIC 'CODE'
text$yc	ENDS
CRT$XCA	SEGMENT DWORD USE32 PUBLIC 'DATA'
CRT$XCA	ENDS
CRT$XCU	SEGMENT DWORD USE32 PUBLIC 'DATA'
CRT$XCU	ENDS
CRT$XCL	SEGMENT DWORD USE32 PUBLIC 'DATA'
CRT$XCL	ENDS
CRT$XCC	SEGMENT DWORD USE32 PUBLIC 'DATA'
CRT$XCC	ENDS
CRT$XCZ	SEGMENT DWORD USE32 PUBLIC 'DATA'
CRT$XCZ	ENDS
text$yd	SEGMENT PARA USE32 PUBLIC 'CODE'
text$yd	ENDS
ATL$__m	SEGMENT DWORD USE32 PUBLIC ''
ATL$__m	ENDS
ATL$__z	SEGMENT DWORD USE32 PUBLIC ''
ATL$__z	ENDS
ATL$__a	SEGMENT DWORD USE32 PUBLIC ''
ATL$__a	ENDS
;	COMDAT ??1DIBINFO@@UAE@XZ
_TEXT	SEGMENT PARA USE32 PUBLIC 'CODE'
_TEXT	ENDS
;	COMDAT ??_GDIBINFO@@UAEPAXI@Z
_TEXT	SEGMENT PARA USE32 PUBLIC 'CODE'
_TEXT	ENDS
;	COMDAT ??0BaseColor@@QAE@XZ
_TEXT	SEGMENT PARA USE32 PUBLIC 'CODE'
_TEXT	ENDS
;	COMDAT ??1BaseColor@@QAE@XZ
_TEXT	SEGMENT PARA USE32 PUBLIC 'CODE'
_TEXT	ENDS
;	COMDAT ??_GBaseColor@@QAEPAXI@Z
_TEXT	SEGMENT PARA USE32 PUBLIC 'CODE'
_TEXT	ENDS
;	COMDAT ??_GCColorSlide@@UAEPAXI@Z
_TEXT	SEGMENT PARA USE32 PUBLIC 'CODE'
_TEXT	ENDS
;	COMDAT ??B?$CComPtrBase@UITypeInfo2@@@ATL@@QBEPAUITypeInfo2@@XZ
_TEXT	SEGMENT PARA USE32 PUBLIC 'CODE'
_TEXT	ENDS
;	COMDAT ?equal@?$istreambuf_iterator@DU?$char_traits@D@std@@@std@@QBE_NABV12@@Z
_TEXT	SEGMENT PARA USE32 PUBLIC 'CODE'
_TEXT	ENDS
;	COMDAT ?equal@?$istreambuf_iterator@_WU?$char_traits@_W@std@@@std@@QBE_NABV12@@Z
_TEXT	SEGMENT PARA USE32 PUBLIC 'CODE'
_TEXT	ENDS
;	COMDAT ?Unlock@?$CComCritSecLock@VCComCriticalSection@ATL@@@ATL@@QAEXXZ
_TEXT	SEGMENT PARA USE32 PUBLIC 'CODE'
_TEXT	ENDS
;	COMDAT ??$_Maklocstr@D@std@@YAPADPBDPADABU_Cvtvec@@@Z
_TEXT	SEGMENT PARA USE32 PUBLIC 'CODE'
_TEXT	ENDS
;	COMDAT ??_R3CColorSlide@@8
rdata$r	SEGMENT DWORD USE32 PUBLIC 'CONST'
rdata$r	ENDS
;	COMDAT ??_R3?$numpunct@_W@std@@8
rdata$r	SEGMENT DWORD USE32 PUBLIC 'CONST'
rdata$r	ENDS
;	COMDAT ??_R3?$numpunct@D@std@@8
rdata$r	SEGMENT DWORD USE32 PUBLIC 'CONST'
rdata$r	ENDS
;	COMDAT ??_R3DIBINFO@@8
rdata$r	SEGMENT DWORD USE32 PUBLIC 'CONST'
rdata$r	ENDS
;	COMDAT ??_R2CColorSlide@@8
rdata$r	SEGMENT DWORD USE32 PUBLIC 'CONST'
rdata$r	ENDS
;	COMDAT ??_R2?$numpunct@_W@std@@8
rdata$r	SEGMENT DWORD USE32 PUBLIC 'CONST'
rdata$r	ENDS
;	COMDAT ??_R2?$numpunct@D@std@@8
rdata$r	SEGMENT DWORD USE32 PUBLIC 'CONST'
rdata$r	ENDS
;	COMDAT ??_R2DIBINFO@@8
rdata$r	SEGMENT DWORD USE32 PUBLIC 'CONST'
rdata$r	ENDS
;	COMDAT ??_R1A@?0A@A@CObject@@8
rdata$r	SEGMENT DWORD USE32 PUBLIC 'CONST'
rdata$r	ENDS
;	COMDAT ??_R0?AVCObject@@@8
_DATA	SEGMENT DWORD USE32 PUBLIC 'DATA'
_DATA	ENDS
;	COMDAT ??_R1A@?0A@A@CCmdTarget@@8
rdata$r	SEGMENT DWORD USE32 PUBLIC 'CONST'
rdata$r	ENDS
;	COMDAT ??_R0?AVCCmdTarget@@@8
_DATA	SEGMENT DWORD USE32 PUBLIC 'DATA'
_DATA	ENDS
;	COMDAT ??_R1A@?0A@A@CWnd@@8
rdata$r	SEGMENT DWORD USE32 PUBLIC 'CONST'
rdata$r	ENDS
;	COMDAT ??_R0?AVCWnd@@@8
_DATA	SEGMENT DWORD USE32 PUBLIC 'DATA'
_DATA	ENDS
;	COMDAT ??_R1A@?0A@A@CSliderCtrl@@8
rdata$r	SEGMENT DWORD USE32 PUBLIC 'CONST'
rdata$r	ENDS
;	COMDAT ??_R1A@?0A@A@CColorSlide@@8
rdata$r	SEGMENT DWORD USE32 PUBLIC 'CONST'
rdata$r	ENDS
;	COMDAT ??_R1A@?0A@A@?$numpunct@_W@std@@8
rdata$r	SEGMENT DWORD USE32 PUBLIC 'CONST'
rdata$r	ENDS
;	COMDAT ??_R1A@?0A@A@facet@locale@std@@8
rdata$r	SEGMENT DWORD USE32 PUBLIC 'CONST'
rdata$r	ENDS
;	COMDAT ??_R0?AVfacet@locale@std@@@8
_DATA	SEGMENT DWORD USE32 PUBLIC 'DATA'
_DATA	ENDS
;	COMDAT ??_R1A@?0A@A@?$numpunct@D@std@@8
rdata$r	SEGMENT DWORD USE32 PUBLIC 'CONST'
rdata$r	ENDS
;	COMDAT ??_R1A@?0A@A@DIBINFO@@8
rdata$r	SEGMENT DWORD USE32 PUBLIC 'CONST'
rdata$r	ENDS
;	COMDAT ??_R0?AVCSliderCtrl@@@8
_DATA	SEGMENT DWORD USE32 PUBLIC 'DATA'
_DATA	ENDS
;	COMDAT ??_R0?AVCColorSlide@@@8
_DATA	SEGMENT DWORD USE32 PUBLIC 'DATA'
_DATA	ENDS
;	COMDAT ??_R0?AV?$numpunct@_W@std@@@8
_DATA	SEGMENT DWORD USE32 PUBLIC 'DATA'
_DATA	ENDS
;	COMDAT ??_R0?AV?$numpunct@D@std@@@8
_DATA	SEGMENT DWORD USE32 PUBLIC 'DATA'
_DATA	ENDS
;	COMDAT ??_R0?AVDIBINFO@@@8
_DATA	SEGMENT DWORD USE32 PUBLIC 'DATA'
_DATA	ENDS
;	COMDAT ??_R4CColorSlide@@6B@
rdata$r	SEGMENT DWORD USE32 PUBLIC 'CONST'
rdata$r	ENDS
;	COMDAT ??0?$allocator@_W@std@@QAE@XZ
_TEXT	SEGMENT PARA USE32 PUBLIC 'CODE'
_TEXT	ENDS
;	COMDAT ??0?$allocator@D@std@@QAE@ABV01@@Z
_TEXT	SEGMENT PARA USE32 PUBLIC 'CODE'
_TEXT	ENDS
;	COMDAT ??0?$allocator@D@std@@QAE@XZ
_TEXT	SEGMENT PARA USE32 PUBLIC 'CODE'
_TEXT	ENDS
;	COMDAT ?deallocate@?$allocator@D@std@@QAEXPADI@Z
_TEXT	SEGMENT PARA USE32 PUBLIC 'CODE'
_TEXT	ENDS
;	COMDAT ?max_size@?$allocator@D@std@@QBEIXZ
_TEXT	SEGMENT PARA USE32 PUBLIC 'CODE'
_TEXT	ENDS
;	COMDAT ?allocate@?$allocator@D@std@@QAEPADI@Z
_TEXT	SEGMENT PARA USE32 PUBLIC 'CODE'
_TEXT	ENDS
;	COMDAT ??$_Allocate@D@std@@YAPADIPAD@Z
_TEXT	SEGMENT PARA USE32 PUBLIC 'CODE'
_TEXT	ENDS
;	COMDAT ??_G?$numpunct@_W@std@@MAEPAXI@Z
_TEXT	SEGMENT PARA USE32 PUBLIC 'CODE'
_TEXT	ENDS
;	COMDAT ??_R4?$numpunct@_W@std@@6B@
rdata$r	SEGMENT DWORD USE32 PUBLIC 'CONST'
rdata$r	ENDS
;	COMDAT ??_G?$numpunct@D@std@@MAEPAXI@Z
_TEXT	SEGMENT PARA USE32 PUBLIC 'CODE'
_TEXT	ENDS
;	COMDAT ??_R4?$numpunct@D@std@@6B@
rdata$r	SEGMENT DWORD USE32 PUBLIC 'CONST'
rdata$r	ENDS
;	COMDAT ??_R4DIBINFO@@6B@
rdata$r	SEGMENT DWORD USE32 PUBLIC 'CONST'
rdata$r	ENDS
;	COMDAT ??_C@_0EN@CBMLGOH@D?3?2Program?5Files?5?$CIx86?$CJ?2Microsoft@
CONST	SEGMENT DWORD USE32 PUBLIC 'CONST'
CONST	ENDS
;	COMDAT ?_Psave@?$_Facetptr@V?$numpunct@_W@std@@@std@@2PBVfacet@locale@2@B
_DATA	SEGMENT DWORD USE32 PUBLIC 'DATA'
_DATA	ENDS
;	COMDAT ?_Psave@?$_Facetptr@V?$numpunct@D@std@@@std@@2PBVfacet@locale@2@B
_DATA	SEGMENT DWORD USE32 PUBLIC 'DATA'
_DATA	ENDS
;	COMDAT ?Unlock@CComCriticalSection@ATL@@QAEJXZ
_TEXT	SEGMENT PARA USE32 PUBLIC 'CODE'
_TEXT	ENDS
;	COMDAT ??_C@_0FG@LDNDNCJM@D?3?2Program?5Files?5?$CIx86?$CJ?2Microsoft@
CONST	SEGMENT DWORD USE32 PUBLIC 'CONST'
CONST	ENDS
;	COMDAT ??_C@_09HIEJFN@m_bLocked?$AA@
CONST	SEGMENT DWORD USE32 PUBLIC 'CONST'
CONST	ENDS
;	COMDAT ?_Psave@?$_Facetptr@V?$ctype@_W@std@@@std@@2PBVfacet@locale@2@B
_DATA	SEGMENT DWORD USE32 PUBLIC 'DATA'
_DATA	ENDS
;	COMDAT ?_Psave@?$_Facetptr@V?$ctype@D@std@@@std@@2PBVfacet@locale@2@B
_DATA	SEGMENT DWORD USE32 PUBLIC 'DATA'
_DATA	ENDS
;	COMDAT ??$_Maklocchr@_W@std@@YA_WDPA_WABU_Cvtvec@@@Z
_TEXT	SEGMENT PARA USE32 PUBLIC 'CODE'
_TEXT	ENDS
;	COMDAT ??$_DebugHeapDelete@X@std@@YAXPAX@Z
_TEXT	SEGMENT PARA USE32 PUBLIC 'CODE'
_TEXT	ENDS
;	COMDAT ??$_Maklocstr@_W@std@@YAPA_WPBDPA_WABU_Cvtvec@@@Z
_TEXT	SEGMENT PARA USE32 PUBLIC 'CODE'
_TEXT	ENDS
;	COMDAT ??$_Maklocchr@D@std@@YADDPADABU_Cvtvec@@@Z
_TEXT	SEGMENT PARA USE32 PUBLIC 'CODE'
_TEXT	ENDS
;	COMDAT ??_C@_04LOAJBDKD@true?$AA@
CONST	SEGMENT DWORD USE32 PUBLIC 'CONST'
CONST	ENDS
;	COMDAT ??_C@_05LAPONLG@false?$AA@
CONST	SEGMENT DWORD USE32 PUBLIC 'CONST'
CONST	ENDS
;	COMDAT _wmemcpy
_TEXT	SEGMENT PARA USE32 PUBLIC 'CODE'
_TEXT	ENDS
;	COMDAT ?max_size@?$allocator@_W@std@@QBEIXZ
_TEXT	SEGMENT PARA USE32 PUBLIC 'CODE'
_TEXT	ENDS
;	COMDAT ?allocate@?$allocator@_W@std@@QAEPA_WI@Z
_TEXT	SEGMENT PARA USE32 PUBLIC 'CODE'
_TEXT	ENDS
;	COMDAT ??$_Allocate@_W@std@@YAPA_WIPA_W@Z
_TEXT	SEGMENT PARA USE32 PUBLIC 'CODE'
_TEXT	ENDS
;	COMDAT ??_C@_01GFHCPBMG@C?$AA@
CONST	SEGMENT DWORD USE32 PUBLIC 'CONST'
CONST	ENDS
;	COMDAT ?_Peek@?$istreambuf_iterator@_WU?$char_traits@_W@std@@@std@@AAE_WXZ
_TEXT	SEGMENT PARA USE32 PUBLIC 'CODE'
_TEXT	ENDS
;	COMDAT ?_Peek@?$istreambuf_iterator@DU?$char_traits@D@std@@@std@@AAEDXZ
_TEXT	SEGMENT PARA USE32 PUBLIC 'CODE'
_TEXT	ENDS
;	COMDAT ??$use_facet@V?$ctype@_W@std@@@std@@YAABV?$ctype@_W@0@ABVlocale@0@@Z
_TEXT	SEGMENT PARA USE32 PUBLIC 'CODE'
_TEXT	ENDS
;	COMDAT ??_S?$ctype@_W@std@@6B@
CONST	SEGMENT DWORD USE32 PUBLIC 'CONST'
CONST	ENDS
;	COMDAT ??_R4?$ctype@_W@std@@6B@
rdata$r	SEGMENT DWORD USE32 PUBLIC 'CONST'
rdata$r	ENDS
;	COMDAT ??_R0?AV?$ctype@_W@std@@@8
_DATA	SEGMENT DWORD USE32 PUBLIC 'DATA'
_DATA	ENDS
;	COMDAT ??_R3?$ctype@_W@std@@8
rdata$r	SEGMENT DWORD USE32 PUBLIC 'CONST'
rdata$r	ENDS
;	COMDAT ??_R2?$ctype@_W@std@@8
rdata$r	SEGMENT DWORD USE32 PUBLIC 'CONST'
rdata$r	ENDS
;	COMDAT ??_R1A@?0A@A@?$ctype@_W@std@@8
rdata$r	SEGMENT DWORD USE32 PUBLIC 'CONST'
rdata$r	ENDS
;	COMDAT ??_R1A@?0A@A@ctype_base@std@@8
rdata$r	SEGMENT DWORD USE32 PUBLIC 'CONST'
rdata$r	ENDS
;	COMDAT ??_R0?AUctype_base@std@@@8
_DATA	SEGMENT DWORD USE32 PUBLIC 'DATA'
_DATA	ENDS
;	COMDAT ??_G?$ctype@_W@std@@MAEPAXI@Z
_TEXT	SEGMENT PARA USE32 PUBLIC 'CODE'
_TEXT	ENDS
;	COMDAT ??_C@_08EPJLHIJG@bad?5cast?$AA@
CONST	SEGMENT DWORD USE32 PUBLIC 'CONST'
CONST	ENDS
;	COMDAT __TI2?AVbad_cast@@
xdata$x	SEGMENT DWORD USE32 PUBLIC 'CONST'
xdata$x	ENDS
;	COMDAT __CTA2?AVbad_cast@@
xdata$x	SEGMENT DWORD USE32 PUBLIC 'CONST'
xdata$x	ENDS
;	COMDAT __CT??_R0?AVbad_cast@@@8??0bad_cast@@QAE@ABV0@@Z12
xdata$x	SEGMENT DWORD USE32 PUBLIC 'CONST'
xdata$x	ENDS
;	COMDAT ??_R0?AVbad_cast@@@8
_DATA	SEGMENT DWORD USE32 PUBLIC 'DATA'
_DATA	ENDS
;	COMDAT __CT??_R0?AVexception@@@8??0exception@@QAE@ABV0@@Z12
xdata$x	SEGMENT DWORD USE32 PUBLIC 'CONST'
xdata$x	ENDS
;	COMDAT ??_R0?AVexception@@@8
_DATA	SEGMENT DWORD USE32 PUBLIC 'DATA'
_DATA	ENDS
;	COMDAT ??$_DebugHeapDelete@Vfacet@locale@std@@@std@@YAXPAVfacet@locale@0@@Z
_TEXT	SEGMENT PARA USE32 PUBLIC 'CODE'
_TEXT	ENDS
;	COMDAT ??$use_facet@V?$ctype@D@std@@@std@@YAABV?$ctype@D@0@ABVlocale@0@@Z
_TEXT	SEGMENT PARA USE32 PUBLIC 'CODE'
_TEXT	ENDS
;	COMDAT ??_S?$ctype@D@std@@6B@
CONST	SEGMENT DWORD USE32 PUBLIC 'CONST'
CONST	ENDS
;	COMDAT ??_R4?$ctype@D@std@@6B@
rdata$r	SEGMENT DWORD USE32 PUBLIC 'CONST'
rdata$r	ENDS
;	COMDAT ??_R0?AV?$ctype@D@std@@@8
_DATA	SEGMENT DWORD USE32 PUBLIC 'DATA'
_DATA	ENDS
;	COMDAT ??_R3?$ctype@D@std@@8
rdata$r	SEGMENT DWORD USE32 PUBLIC 'CONST'
rdata$r	ENDS
;	COMDAT ??_R2?$ctype@D@std@@8
rdata$r	SEGMENT DWORD USE32 PUBLIC 'CONST'
rdata$r	ENDS
;	COMDAT ??_R1A@?0A@A@?$ctype@D@std@@8
rdata$r	SEGMENT DWORD USE32 PUBLIC 'CONST'
rdata$r	ENDS
;	COMDAT ??_G?$ctype@D@std@@MAEPAXI@Z
_TEXT	SEGMENT PARA USE32 PUBLIC 'CODE'
_TEXT	ENDS
;	COMDAT ??_S?$numpunct@_W@std@@6B@
CONST	SEGMENT DWORD USE32 PUBLIC 'CONST'
CONST	ENDS
;	COMDAT ??_S?$numpunct@D@std@@6B@
CONST	SEGMENT DWORD USE32 PUBLIC 'CONST'
CONST	ENDS
;	COMDAT _wmemmove
_TEXT	SEGMENT PARA USE32 PUBLIC 'CODE'
_TEXT	ENDS
;	COMDAT ?deallocate@?$allocator@_W@std@@QAEXPA_WI@Z
_TEXT	SEGMENT PARA USE32 PUBLIC 'CODE'
_TEXT	ENDS
;	COMDAT ??0?$allocator@_W@std@@QAE@ABV01@@Z
_TEXT	SEGMENT PARA USE32 PUBLIC 'CODE'
_TEXT	ENDS
;	COMDAT ??1CMemDC@@UAE@XZ
_TEXT	SEGMENT PARA USE32 PUBLIC 'CODE'
_TEXT	ENDS
;	COMDAT ??_7CMemDC@@6B@
CONST	SEGMENT DWORD USE32 PUBLIC 'CONST'
CONST	ENDS
;	COMDAT ??_R4CMemDC@@6B@
rdata$r	SEGMENT DWORD USE32 PUBLIC 'CONST'
rdata$r	ENDS
;	COMDAT ??_R0?AVCMemDC@@@8
_DATA	SEGMENT DWORD USE32 PUBLIC 'DATA'
_DATA	ENDS
;	COMDAT ??_R3CMemDC@@8
rdata$r	SEGMENT DWORD USE32 PUBLIC 'CONST'
rdata$r	ENDS
;	COMDAT ??_R2CMemDC@@8
rdata$r	SEGMENT DWORD USE32 PUBLIC 'CONST'
rdata$r	ENDS
;	COMDAT ??_R1A@?0A@A@CMemDC@@8
rdata$r	SEGMENT DWORD USE32 PUBLIC 'CONST'
rdata$r	ENDS
;	COMDAT ??_R1A@?0A@A@CDC@@8
rdata$r	SEGMENT DWORD USE32 PUBLIC 'CONST'
rdata$r	ENDS
;	COMDAT ??_R0?AVCDC@@@8
_DATA	SEGMENT DWORD USE32 PUBLIC 'DATA'
_DATA	ENDS
;	COMDAT ??_GCMemDC@@UAEPAXI@Z
_TEXT	SEGMENT PARA USE32 PUBLIC 'CODE'
_TEXT	ENDS
;	COMDAT ??0CMemDC@@QAE@PAVCDC@@ABVCRect@@@Z
_TEXT	SEGMENT PARA USE32 PUBLIC 'CODE'
_TEXT	ENDS
;	COMDAT ?_messageEntries@CColorSlide@@0QBUAFX_MSGMAP_ENTRY@@B
CONST	SEGMENT DWORD USE32 PUBLIC 'CONST'
CONST	ENDS
;	COMDAT ?messageMap@CColorSlide@@1UAFX_MSGMAP@@B
CONST	SEGMENT DWORD USE32 PUBLIC 'CONST'
CONST	ENDS
;	COMDAT ??_7CColorSlide@@6B@
CONST	SEGMENT DWORD USE32 PUBLIC 'CONST'
CONST	ENDS
;	COMDAT ?Release@CStringData@ATL@@QAEXXZ
_TEXT	SEGMENT PARA USE32 PUBLIC 'CODE'
_TEXT	ENDS
;	COMDAT ??_C@_0L@OIIMFBNE@nRefs?5?$CB?$DN?50?$AA@
CONST	SEGMENT DWORD USE32 PUBLIC 'CONST'
CONST	ENDS
;	COMDAT ??_C@_0FJ@DMHPDOJC@D?3?2Program?5Files?5?$CIx86?$CJ?2Microsoft@
CONST	SEGMENT DWORD USE32 PUBLIC 'CONST'
CONST	ENDS
;	COMDAT ??_7DIBINFO@@6B@
CONST	SEGMENT DWORD USE32 PUBLIC 'CONST'
CONST	ENDS
sxdata	SEGMENT DWORD USE32 'SXDATA'
sxdata	ENDS
FLAT	GROUP _DATA, CONST, _BSS
	ASSUME	CS: FLAT, DS: FLAT, SS: FLAT
endif

INCLUDELIB MSVCRTD
INCLUDELIB OLDNAMES

PUBLIC	?OnEraseBkgnd@CColorSlide@@IAEHPAVCDC@@@Z	; CColorSlide::OnEraseBkgnd
PUBLIC	?OnLButtonDown@CColorSlide@@IAEXIVCPoint@@@Z	; CColorSlide::OnLButtonDown
PUBLIC	?OnLButtonUp@CColorSlide@@IAEXIVCPoint@@@Z	; CColorSlide::OnLButtonUp
PUBLIC	?OnMouseMove@CColorSlide@@IAEXIVCPoint@@@Z	; CColorSlide::OnMouseMove
PUBLIC	?_messageEntries@CColorSlide@@0QBUAFX_MSGMAP_ENTRY@@B ; CColorSlide::_messageEntries
PUBLIC	?messageMap@CColorSlide@@1UAFX_MSGMAP@@B	; CColorSlide::messageMap
EXTRN	?GetThisMessageMap@CWnd@@KGPBUAFX_MSGMAP@@XZ:NEAR ; CWnd::GetThisMessageMap
_DATA	SEGMENT
_THIS_FILE DB	'.\src\LayoutMgr\ChangeColor\ColorSlide.cpp', 00H
_DATA	ENDS
;	COMDAT ?_messageEntries@CColorSlide@@0QBUAFX_MSGMAP_ENTRY@@B
CONST	SEGMENT
?_messageEntries@CColorSlide@@0QBUAFX_MSGMAP_ENTRY@@B DD 014H ; CColorSlide::_messageEntries
	DD	00H
	DD	00H
	DD	00H
	DD	01H
	DD	FLAT:?OnEraseBkgnd@CColorSlide@@IAEHPAVCDC@@@Z
	DD	0202H
	DD	00H
	DD	00H
	DD	00H
	DD	032H
	DD	FLAT:?OnLButtonUp@CColorSlide@@IAEXIVCPoint@@@Z
	DD	0201H
	DD	00H
	DD	00H
	DD	00H
	DD	032H
	DD	FLAT:?OnLButtonDown@CColorSlide@@IAEXIVCPoint@@@Z
	DD	0200H
	DD	00H
	DD	00H
	DD	00H
	DD	032H
	DD	FLAT:?OnMouseMove@CColorSlide@@IAEXIVCPoint@@@Z
	DD	00H
	DD	00H
	DD	00H
	DD	00H
	DD	00H
	DD	00H
CONST	ENDS
;	COMDAT ?messageMap@CColorSlide@@1UAFX_MSGMAP@@B
CONST	SEGMENT
?messageMap@CColorSlide@@1UAFX_MSGMAP@@B DD FLAT:?GetThisMessageMap@CWnd@@KGPBUAFX_MSGMAP@@XZ ; CColorSlide::messageMap
	DD	FLAT:?_messageEntries@CColorSlide@@0QBUAFX_MSGMAP_ENTRY@@B
CONST	ENDS
PUBLIC	??_R1A@?0A@A@CWnd@@8				; CWnd::`RTTI Base Class Descriptor at (0,-1,0,0)'
PUBLIC	??_R0?AVCWnd@@@8				; CWnd `RTTI Type Descriptor'
PUBLIC	??_R1A@?0A@A@CCmdTarget@@8			; CCmdTarget::`RTTI Base Class Descriptor at (0,-1,0,0)'
PUBLIC	??_R0?AVCCmdTarget@@@8				; CCmdTarget `RTTI Type Descriptor'
PUBLIC	??_R1A@?0A@A@CObject@@8				; CObject::`RTTI Base Class Descriptor at (0,-1,0,0)'
PUBLIC	??_R0?AVCObject@@@8				; CObject `RTTI Type Descriptor'
PUBLIC	??_R4CColorSlide@@6B@				; CColorSlide::`RTTI Complete Object Locator'
PUBLIC	??_R0?AVCColorSlide@@@8				; CColorSlide `RTTI Type Descriptor'
PUBLIC	??_R3CColorSlide@@8				; CColorSlide::`RTTI Class Hierarchy Descriptor'
PUBLIC	??_R2CColorSlide@@8				; CColorSlide::`RTTI Base Class Array'
PUBLIC	??_R1A@?0A@A@CColorSlide@@8			; CColorSlide::`RTTI Base Class Descriptor at (0,-1,0,0)'
PUBLIC	??_R1A@?0A@A@CSliderCtrl@@8			; CSliderCtrl::`RTTI Base Class Descriptor at (0,-1,0,0)'
PUBLIC	??_R0?AVCSliderCtrl@@@8				; CSliderCtrl `RTTI Type Descriptor'
PUBLIC	??0CColorSlide@@QAE@XZ				; CColorSlide::CColorSlide
PUBLIC	?PreSubclassWindow@CColorSlide@@MAEXXZ		; CColorSlide::PreSubclassWindow
PUBLIC	?GetMessageMap@CColorSlide@@MBEPBUAFX_MSGMAP@@XZ ; CColorSlide::GetMessageMap
PUBLIC	?PreTranslateMessage@CColorSlide@@UAEHPAUtagMSG@@@Z ; CColorSlide::PreTranslateMessage
PUBLIC	??_7CColorSlide@@6B@				; CColorSlide::`vftable'
PUBLIC	??_GCColorSlide@@UAEPAXI@Z			; CColorSlide::`scalar deleting destructor'
EXTRN	?GetInterfaceMap@CWnd@@MBEPBUAFX_INTERFACEMAP@@XZ:NEAR ; CWnd::GetInterfaceMap
EXTRN	?EnsureStdObj@CWnd@@UAEJXZ:NEAR			; CWnd::EnsureStdObj
EXTRN	?get_accParent@CWnd@@UAEJPAPAUIDispatch@@@Z:NEAR ; CWnd::get_accParent
EXTRN	?OnCmdMsg@CCmdTarget@@UAEHIHPAXPAUAFX_CMDHANDLERINFO@@@Z:NEAR ; CCmdTarget::OnCmdMsg
EXTRN	?get_accChildCount@CWnd@@UAEJPAJ@Z:NEAR		; CWnd::get_accChildCount
EXTRN	?IsInvokeAllowed@CCmdTarget@@UAEHJ@Z:NEAR	; CCmdTarget::IsInvokeAllowed
EXTRN	?get_accChild@CWnd@@UAEJUtagVARIANT@@PAPAUIDispatch@@@Z:NEAR ; CWnd::get_accChild
EXTRN	?get_accName@CWnd@@UAEJUtagVARIANT@@PAPA_W@Z:NEAR ; CWnd::get_accName
EXTRN	?get_accValue@CWnd@@UAEJUtagVARIANT@@PAPA_W@Z:NEAR ; CWnd::get_accValue
EXTRN	?GetDispatchIID@CCmdTarget@@UAEHPAU_GUID@@@Z:NEAR ; CCmdTarget::GetDispatchIID
EXTRN	?GetTypeInfoCount@CCmdTarget@@UAEIXZ:NEAR	; CCmdTarget::GetTypeInfoCount
EXTRN	?GetTypeLibCache@CCmdTarget@@UAEPAVCTypeLibCache@@XZ:NEAR ; CCmdTarget::GetTypeLibCache
EXTRN	?get_accDescription@CWnd@@UAEJUtagVARIANT@@PAPA_W@Z:NEAR ; CWnd::get_accDescription
EXTRN	?GetTypeLib@CCmdTarget@@UAEJKPAPAUITypeLib@@@Z:NEAR ; CCmdTarget::GetTypeLib
EXTRN	?get_accRole@CWnd@@UAEJUtagVARIANT@@PAU2@@Z:NEAR ; CWnd::get_accRole
EXTRN	?get_accState@CWnd@@UAEJUtagVARIANT@@PAU2@@Z:NEAR ; CWnd::get_accState
EXTRN	?get_accHelp@CWnd@@UAEJUtagVARIANT@@PAPA_W@Z:NEAR ; CWnd::get_accHelp
EXTRN	?get_accHelpTopic@CWnd@@UAEJPAPA_WUtagVARIANT@@PAJ@Z:NEAR ; CWnd::get_accHelpTopic
EXTRN	?get_accKeyboardShortcut@CWnd@@UAEJUtagVARIANT@@PAPA_W@Z:NEAR ; CWnd::get_accKeyboardShortcut
EXTRN	?get_accFocus@CWnd@@UAEJPAUtagVARIANT@@@Z:NEAR	; CWnd::get_accFocus
EXTRN	?get_accSelection@CWnd@@UAEJPAUtagVARIANT@@@Z:NEAR ; CWnd::get_accSelection
EXTRN	?get_accDefaultAction@CWnd@@UAEJUtagVARIANT@@PAPA_W@Z:NEAR ; CWnd::get_accDefaultAction
EXTRN	?GetCommandMap@CCmdTarget@@MBEPBUAFX_OLECMDMAP@@XZ:NEAR ; CCmdTarget::GetCommandMap
EXTRN	?accSelect@CWnd@@UAEJJUtagVARIANT@@@Z:NEAR	; CWnd::accSelect
EXTRN	?accLocation@CWnd@@UAEJPAJ000UtagVARIANT@@@Z:NEAR ; CWnd::accLocation
EXTRN	?GetDispatchMap@CCmdTarget@@MBEPBUAFX_DISPMAP@@XZ:NEAR ; CCmdTarget::GetDispatchMap
EXTRN	?accNavigate@CWnd@@UAEJJUtagVARIANT@@PAU2@@Z:NEAR ; CWnd::accNavigate
EXTRN	?accHitTest@CWnd@@UAEJJJPAUtagVARIANT@@@Z:NEAR	; CWnd::accHitTest
EXTRN	?GetConnectionMap@CCmdTarget@@MBEPBUAFX_CONNECTIONMAP@@XZ:NEAR ; CCmdTarget::GetConnectionMap
EXTRN	?accDoDefaultAction@CWnd@@UAEJUtagVARIANT@@@Z:NEAR ; CWnd::accDoDefaultAction
EXTRN	?put_accName@CWnd@@UAEJUtagVARIANT@@PA_W@Z:NEAR	; CWnd::put_accName
EXTRN	?put_accValue@CWnd@@UAEJUtagVARIANT@@PA_W@Z:NEAR ; CWnd::put_accValue
EXTRN	?SetProxy@CWnd@@UAEJPAUIAccessibleProxy@@@Z:NEAR ; CWnd::SetProxy
EXTRN	?CreateAccessibleProxy@CWnd@@UAEJIJPAJ@Z:NEAR	; CWnd::CreateAccessibleProxy
EXTRN	?GetEventSinkMap@CCmdTarget@@MBEPBUAFX_EVENTSINKMAP@@XZ:NEAR ; CCmdTarget::GetEventSinkMap
EXTRN	?OnCreateAggregates@CCmdTarget@@UAEHXZ:NEAR	; CCmdTarget::OnCreateAggregates
EXTRN	?OnCommand@CWnd@@MAEHIJ@Z:NEAR			; CWnd::OnCommand
EXTRN	?GetInterfaceHook@CCmdTarget@@UAEPAUIUnknown@@PBX@Z:NEAR ; CCmdTarget::GetInterfaceHook
EXTRN	?OnNotify@CWnd@@MAEHIJPAJ@Z:NEAR		; CWnd::OnNotify
EXTRN	?GetExtraConnectionPoints@CCmdTarget@@MAEHPAVCPtrArray@@@Z:NEAR ; CCmdTarget::GetExtraConnectionPoints
EXTRN	?GetConnectionHook@CCmdTarget@@MAEPAUIConnectionPoint@@ABU_GUID@@@Z:NEAR ; CCmdTarget::GetConnectionHook
EXTRN	?GetRuntimeClass@CSliderCtrl@@UBEPAUCRuntimeClass@@XZ:NEAR ; CSliderCtrl::GetRuntimeClass
EXTRN	??0CSliderCtrl@@QAE@XZ:NEAR			; CSliderCtrl::CSliderCtrl
EXTRN	?Create@CSliderCtrl@@UAEHKABUtagRECT@@PAVCWnd@@I@Z:NEAR ; CSliderCtrl::Create
EXTRN	?CreateEx@CSliderCtrl@@UAEHKKABUtagRECT@@PAVCWnd@@I@Z:NEAR ; CSliderCtrl::CreateEx
EXTRN	?Create@CWnd@@UAEHPBD0KABUtagRECT@@PAV1@IPAUCCreateContext@@@Z:NEAR ; CWnd::Create
EXTRN	?CreateEx@CWnd@@UAEHKPBD0KHHHHPAUHWND__@@PAUHMENU__@@PAX@Z:NEAR ; CWnd::CreateEx
EXTRN	?CreateEx@CWnd@@UAEHKPBD0KABUtagRECT@@PAV1@IPAX@Z:NEAR ; CWnd::CreateEx
EXTRN	?Serialize@CObject@@UAEXAAVCArchive@@@Z:NEAR	; CObject::Serialize
EXTRN	?DestroyWindow@CWnd@@UAEHXZ:NEAR		; CWnd::DestroyWindow
EXTRN	?PreCreateWindow@CWnd@@UAEHAAUtagCREATESTRUCTA@@@Z:NEAR ; CWnd::PreCreateWindow
EXTRN	?CalcWindowRect@CWnd@@UAEXPAUtagRECT@@I@Z:NEAR	; CWnd::CalcWindowRect
EXTRN	?GetSuperWndProcAddr@CWnd@@MAEPAP6GJPAUHWND__@@IIJ@ZXZ:NEAR ; CWnd::GetSuperWndProcAddr
EXTRN	?DoDataExchange@CWnd@@MAEXPAVCDataExchange@@@Z:NEAR ; CWnd::DoDataExchange
EXTRN	?BeginModalState@CWnd@@UAEXXZ:NEAR		; CWnd::BeginModalState
EXTRN	?EndModalState@CWnd@@UAEXXZ:NEAR		; CWnd::EndModalState
EXTRN	?OnAmbientProperty@CWnd@@UAEHPAVCOleControlSite@@JPAUtagVARIANT@@@Z:NEAR ; CWnd::OnAmbientProperty
EXTRN	?WindowProc@CWnd@@MAEJIIJ@Z:NEAR		; CWnd::WindowProc
EXTRN	?OnWndMsg@CWnd@@MAEHIIJPAJ@Z:NEAR		; CWnd::OnWndMsg
EXTRN	?DefWindowProcA@CWnd@@MAEJIIJ@Z:NEAR		; CWnd::DefWindowProcA
EXTRN	?PostNcDestroy@CWnd@@MAEXXZ:NEAR		; CWnd::PostNcDestroy
EXTRN	?OnChildNotify@CWnd@@MAEHIIJPAJ@Z:NEAR		; CWnd::OnChildNotify
EXTRN	?CheckAutoCenter@CWnd@@UAEHXZ:NEAR		; CWnd::CheckAutoCenter
EXTRN	?AssertValid@CWnd@@UBEXXZ:NEAR			; CWnd::AssertValid
EXTRN	?Dump@CWnd@@UBEXAAVCDumpContext@@@Z:NEAR	; CWnd::Dump
EXTRN	?IsFrameWnd@CWnd@@UBEHXZ:NEAR			; CWnd::IsFrameWnd
EXTRN	?OnFinalRelease@CWnd@@UAEXXZ:NEAR		; CWnd::OnFinalRelease
EXTRN	?CreateControlContainer@CWnd@@MAEHPAPAVCOleControlContainer@@@Z:NEAR ; CWnd::CreateControlContainer
EXTRN	?CreateControlSite@CWnd@@MAEHPAVCOleControlContainer@@PAPAVCOleControlSite@@IABU_GUID@@@Z:NEAR ; CWnd::CreateControlSite
EXTRN	?SetOccDialogInfo@CWnd@@MAEHPAU_AFX_OCC_DIALOG_INFO@@@Z:NEAR ; CWnd::SetOccDialogInfo
EXTRN	??_ECColorSlide@@UAEPAXI@Z:NEAR			; CColorSlide::`vector deleting destructor'
EXTRN	?OnToolHitTest@CWnd@@UBEHVCPoint@@PAUtagTOOLINFOA@@@Z:NEAR ; CWnd::OnToolHitTest
EXTRN	__RTC_InitBase:NEAR
EXTRN	__RTC_Shutdown:NEAR
EXTRN	__RTC_CheckEsp:NEAR
EXTRN	?GetScrollBarCtrl@CWnd@@UBEPAVCScrollBar@@H@Z:NEAR ; CWnd::GetScrollBarCtrl
EXTRN	?WinHelpA@CWnd@@UAEXKI@Z:NEAR			; CWnd::WinHelpA
EXTRN	?HtmlHelpA@CWnd@@UAEXKI@Z:NEAR			; CWnd::HtmlHelpA
EXTRN	??_7type_info@@6B@:QWORD			; type_info::`vftable'
EXTRN	?WinHelpInternal@CWnd@@UAEXKI@Z:NEAR		; CWnd::WinHelpInternal
EXTRN	?ContinueModal@CWnd@@UAEHXZ:NEAR		; CWnd::ContinueModal
EXTRN	?EndModalLoop@CWnd@@UAEXH@Z:NEAR		; CWnd::EndModalLoop
;	COMDAT rtc$IMZ
; File d:\boxgit\playbox\playbox\dev\prj\playbox\src\layoutmgr\changecolor\colorslide.cpp
rtc$IMZ	SEGMENT
__RTC_InitBase.rtc$IMZ DD FLAT:__RTC_InitBase
rtc$IMZ	ENDS
;	COMDAT rtc$TMZ
rtc$TMZ	SEGMENT
__RTC_Shutdown.rtc$TMZ DD FLAT:__RTC_Shutdown
rtc$TMZ	ENDS
;	COMDAT ??_7CColorSlide@@6B@
CONST	SEGMENT
??_7CColorSlide@@6B@ DD FLAT:??_R4CColorSlide@@6B@	; CColorSlide::`vftable'
	DD	FLAT:?GetRuntimeClass@CSliderCtrl@@UBEPAUCRuntimeClass@@XZ
	DD	FLAT:??_ECColorSlide@@UAEPAXI@Z
	DD	FLAT:?Serialize@CObject@@UAEXAAVCArchive@@@Z
	DD	FLAT:?AssertValid@CWnd@@UBEXXZ
	DD	FLAT:?Dump@CWnd@@UBEXAAVCDumpContext@@@Z
	DD	FLAT:?OnCmdMsg@CCmdTarget@@UAEHIHPAXPAUAFX_CMDHANDLERINFO@@@Z
	DD	FLAT:?OnFinalRelease@CWnd@@UAEXXZ
	DD	FLAT:?IsInvokeAllowed@CCmdTarget@@UAEHJ@Z
	DD	FLAT:?GetDispatchIID@CCmdTarget@@UAEHPAU_GUID@@@Z
	DD	FLAT:?GetTypeInfoCount@CCmdTarget@@UAEIXZ
	DD	FLAT:?GetTypeLibCache@CCmdTarget@@UAEPAVCTypeLibCache@@XZ
	DD	FLAT:?GetTypeLib@CCmdTarget@@UAEJKPAPAUITypeLib@@@Z
	DD	FLAT:?GetMessageMap@CColorSlide@@MBEPBUAFX_MSGMAP@@XZ
	DD	FLAT:?GetCommandMap@CCmdTarget@@MBEPBUAFX_OLECMDMAP@@XZ
	DD	FLAT:?GetDispatchMap@CCmdTarget@@MBEPBUAFX_DISPMAP@@XZ
	DD	FLAT:?GetConnectionMap@CCmdTarget@@MBEPBUAFX_CONNECTIONMAP@@XZ
	DD	FLAT:?GetInterfaceMap@CWnd@@MBEPBUAFX_INTERFACEMAP@@XZ
	DD	FLAT:?GetEventSinkMap@CCmdTarget@@MBEPBUAFX_EVENTSINKMAP@@XZ
	DD	FLAT:?OnCreateAggregates@CCmdTarget@@UAEHXZ
	DD	FLAT:?GetInterfaceHook@CCmdTarget@@UAEPAUIUnknown@@PBX@Z
	DD	FLAT:?GetExtraConnectionPoints@CCmdTarget@@MAEHPAVCPtrArray@@@Z
	DD	FLAT:?GetConnectionHook@CCmdTarget@@MAEPAUIConnectionPoint@@ABU_GUID@@@Z
	DD	FLAT:?PreSubclassWindow@CColorSlide@@MAEXXZ
	DD	FLAT:?Create@CWnd@@UAEHPBD0KABUtagRECT@@PAV1@IPAUCCreateContext@@@Z
	DD	FLAT:?CreateEx@CWnd@@UAEHKPBD0KABUtagRECT@@PAV1@IPAX@Z
	DD	FLAT:?CreateEx@CWnd@@UAEHKPBD0KHHHHPAUHWND__@@PAUHMENU__@@PAX@Z
	DD	FLAT:?DestroyWindow@CWnd@@UAEHXZ
	DD	FLAT:?PreCreateWindow@CWnd@@UAEHAAUtagCREATESTRUCTA@@@Z
	DD	FLAT:?CalcWindowRect@CWnd@@UAEXPAUtagRECT@@I@Z
	DD	FLAT:?OnToolHitTest@CWnd@@UBEHVCPoint@@PAUtagTOOLINFOA@@@Z
	DD	FLAT:?GetScrollBarCtrl@CWnd@@UBEPAVCScrollBar@@H@Z
	DD	FLAT:?WinHelpA@CWnd@@UAEXKI@Z
	DD	FLAT:?HtmlHelpA@CWnd@@UAEXKI@Z
	DD	FLAT:?WinHelpInternal@CWnd@@UAEXKI@Z
	DD	FLAT:?ContinueModal@CWnd@@UAEHXZ
	DD	FLAT:?EndModalLoop@CWnd@@UAEXH@Z
	DD	FLAT:?EnsureStdObj@CWnd@@UAEJXZ
	DD	FLAT:?get_accParent@CWnd@@UAEJPAPAUIDispatch@@@Z
	DD	FLAT:?get_accChildCount@CWnd@@UAEJPAJ@Z
	DD	FLAT:?get_accChild@CWnd@@UAEJUtagVARIANT@@PAPAUIDispatch@@@Z
	DD	FLAT:?get_accName@CWnd@@UAEJUtagVARIANT@@PAPA_W@Z
	DD	FLAT:?get_accValue@CWnd@@UAEJUtagVARIANT@@PAPA_W@Z
	DD	FLAT:?get_accDescription@CWnd@@UAEJUtagVARIANT@@PAPA_W@Z
	DD	FLAT:?get_accRole@CWnd@@UAEJUtagVARIANT@@PAU2@@Z
	DD	FLAT:?get_accState@CWnd@@UAEJUtagVARIANT@@PAU2@@Z
	DD	FLAT:?get_accHelp@CWnd@@UAEJUtagVARIANT@@PAPA_W@Z
	DD	FLAT:?get_accHelpTopic@CWnd@@UAEJPAPA_WUtagVARIANT@@PAJ@Z
	DD	FLAT:?get_accKeyboardShortcut@CWnd@@UAEJUtagVARIANT@@PAPA_W@Z
	DD	FLAT:?get_accFocus@CWnd@@UAEJPAUtagVARIANT@@@Z
	DD	FLAT:?get_accSelection@CWnd@@UAEJPAUtagVARIANT@@@Z
	DD	FLAT:?get_accDefaultAction@CWnd@@UAEJUtagVARIANT@@PAPA_W@Z
	DD	FLAT:?accSelect@CWnd@@UAEJJUtagVARIANT@@@Z
	DD	FLAT:?accLocation@CWnd@@UAEJPAJ000UtagVARIANT@@@Z
	DD	FLAT:?accNavigate@CWnd@@UAEJJUtagVARIANT@@PAU2@@Z
	DD	FLAT:?accHitTest@CWnd@@UAEJJJPAUtagVARIANT@@@Z
	DD	FLAT:?accDoDefaultAction@CWnd@@UAEJUtagVARIANT@@@Z
	DD	FLAT:?put_accName@CWnd@@UAEJUtagVARIANT@@PA_W@Z
	DD	FLAT:?put_accValue@CWnd@@UAEJUtagVARIANT@@PA_W@Z
	DD	FLAT:?SetProxy@CWnd@@UAEJPAUIAccessibleProxy@@@Z
	DD	FLAT:?CreateAccessibleProxy@CWnd@@UAEJIJPAJ@Z
	DD	FLAT:?OnCommand@CWnd@@MAEHIJ@Z
	DD	FLAT:?OnNotify@CWnd@@MAEHIJPAJ@Z
	DD	FLAT:?GetSuperWndProcAddr@CWnd@@MAEPAP6GJPAUHWND__@@IIJ@ZXZ
	DD	FLAT:?DoDataExchange@CWnd@@MAEXPAVCDataExchange@@@Z
	DD	FLAT:?BeginModalState@CWnd@@UAEXXZ
	DD	FLAT:?EndModalState@CWnd@@UAEXXZ
	DD	FLAT:?PreTranslateMessage@CColorSlide@@UAEHPAUtagMSG@@@Z
	DD	FLAT:?OnAmbientProperty@CWnd@@UAEHPAVCOleControlSite@@JPAUtagVARIANT@@@Z
	DD	FLAT:?WindowProc@CWnd@@MAEJIIJ@Z
	DD	FLAT:?OnWndMsg@CWnd@@MAEHIIJPAJ@Z
	DD	FLAT:?DefWindowProcA@CWnd@@MAEJIIJ@Z
	DD	FLAT:?PostNcDestroy@CWnd@@MAEXXZ
	DD	FLAT:?OnChildNotify@CWnd@@MAEHIIJPAJ@Z
	DD	FLAT:?CheckAutoCenter@CWnd@@UAEHXZ
	DD	FLAT:?IsFrameWnd@CWnd@@UBEHXZ
	DD	FLAT:?CreateControlContainer@CWnd@@MAEHPAPAVCOleControlContainer@@@Z
	DD	FLAT:?CreateControlSite@CWnd@@MAEHPAVCOleControlContainer@@PAPAVCOleControlSite@@IABU_GUID@@@Z
	DD	FLAT:?SetOccDialogInfo@CWnd@@MAEHPAU_AFX_OCC_DIALOG_INFO@@@Z
	DD	FLAT:?Create@CSliderCtrl@@UAEHKABUtagRECT@@PAVCWnd@@I@Z
	DD	FLAT:?CreateEx@CSliderCtrl@@UAEHKKABUtagRECT@@PAVCWnd@@I@Z
CONST	ENDS
;	COMDAT ??_R4CColorSlide@@6B@
rdata$r	SEGMENT
??_R4CColorSlide@@6B@ DD 00H				; CColorSlide::`RTTI Complete Object Locator'
	DD	00H
	DD	00H
	DD	FLAT:??_R0?AVCColorSlide@@@8
	DD	FLAT:??_R3CColorSlide@@8
rdata$r	ENDS
;	COMDAT ??_R0?AVCColorSlide@@@8
_DATA	SEGMENT
??_R0?AVCColorSlide@@@8 DD FLAT:??_7type_info@@6B@	; CColorSlide `RTTI Type Descriptor'
	DD	00H
	DB	'.?AVCColorSlide@@', 00H
_DATA	ENDS
;	COMDAT ??_R3CColorSlide@@8
rdata$r	SEGMENT
??_R3CColorSlide@@8 DD 00H				; CColorSlide::`RTTI Class Hierarchy Descriptor'
	DD	00H
	DD	05H
	DD	FLAT:??_R2CColorSlide@@8
rdata$r	ENDS
;	COMDAT ??_R2CColorSlide@@8
rdata$r	SEGMENT
??_R2CColorSlide@@8 DD FLAT:??_R1A@?0A@A@CColorSlide@@8	; CColorSlide::`RTTI Base Class Array'
	DD	FLAT:??_R1A@?0A@A@CSliderCtrl@@8
	DD	FLAT:??_R1A@?0A@A@CWnd@@8
	DD	FLAT:??_R1A@?0A@A@CCmdTarget@@8
	DD	FLAT:??_R1A@?0A@A@CObject@@8
rdata$r	ENDS
;	COMDAT ??_R1A@?0A@A@CColorSlide@@8
rdata$r	SEGMENT
??_R1A@?0A@A@CColorSlide@@8 DD FLAT:??_R0?AVCColorSlide@@@8 ; CColorSlide::`RTTI Base Class Descriptor at (0,-1,0,0)'
	DD	04H
	DD	00H
	DD	0ffffffffH
	DD	00H
	DD	00H
rdata$r	ENDS
;	COMDAT ??_R1A@?0A@A@CSliderCtrl@@8
rdata$r	SEGMENT
??_R1A@?0A@A@CSliderCtrl@@8 DD FLAT:??_R0?AVCSliderCtrl@@@8 ; CSliderCtrl::`RTTI Base Class Descriptor at (0,-1,0,0)'
	DD	03H
	DD	00H
	DD	0ffffffffH
	DD	00H
	DD	00H
rdata$r	ENDS
;	COMDAT ??_R0?AVCSliderCtrl@@@8
_DATA	SEGMENT
??_R0?AVCSliderCtrl@@@8 DD FLAT:??_7type_info@@6B@	; CSliderCtrl `RTTI Type Descriptor'
	DD	00H
	DB	'.?AVCSliderCtrl@@', 00H
_DATA	ENDS
;	COMDAT ??_R1A@?0A@A@CWnd@@8
rdata$r	SEGMENT
??_R1A@?0A@A@CWnd@@8 DD FLAT:??_R0?AVCWnd@@@8		; CWnd::`RTTI Base Class Descriptor at (0,-1,0,0)'
	DD	02H
	DD	00H
	DD	0ffffffffH
	DD	00H
	DD	00H
rdata$r	ENDS
;	COMDAT ??_R0?AVCWnd@@@8
_DATA	SEGMENT
??_R0?AVCWnd@@@8 DD FLAT:??_7type_info@@6B@		; CWnd `RTTI Type Descriptor'
	DD	00H
	DB	'.?AVCWnd@@', 00H
_DATA	ENDS
;	COMDAT ??_R1A@?0A@A@CCmdTarget@@8
rdata$r	SEGMENT
??_R1A@?0A@A@CCmdTarget@@8 DD FLAT:??_R0?AVCCmdTarget@@@8 ; CCmdTarget::`RTTI Base Class Descriptor at (0,-1,0,0)'
	DD	01H
	DD	00H
	DD	0ffffffffH
	DD	00H
	DD	00H
rdata$r	ENDS
;	COMDAT ??_R0?AVCCmdTarget@@@8
_DATA	SEGMENT
??_R0?AVCCmdTarget@@@8 DD FLAT:??_7type_info@@6B@	; CCmdTarget `RTTI Type Descriptor'
	DD	00H
	DB	'.?AVCCmdTarget@@', 00H
_DATA	ENDS
;	COMDAT ??_R1A@?0A@A@CObject@@8
rdata$r	SEGMENT
??_R1A@?0A@A@CObject@@8 DD FLAT:??_R0?AVCObject@@@8	; CObject::`RTTI Base Class Descriptor at (0,-1,0,0)'
	DD	00H
	DD	00H
	DD	0ffffffffH
	DD	00H
	DD	00H
rdata$r	ENDS
;	COMDAT ??_R0?AVCObject@@@8
_DATA	SEGMENT
??_R0?AVCObject@@@8 DD FLAT:??_7type_info@@6B@		; CObject `RTTI Type Descriptor'
	DD	00H
	DB	'.?AVCObject@@', 00H
; Function compile flags: /Odt /RTCsu
_DATA	ENDS
_TEXT	SEGMENT
_this$ = -4						; size = 4
??0CColorSlide@@QAE@XZ PROC NEAR			; CColorSlide::CColorSlide
; _this$ = ecx

; 17   : {

  00000	55		 push	 ebp
  00001	8b ec		 mov	 ebp, esp
  00003	51		 push	 ecx
  00004	c7 45 fc cc cc
	cc cc		 mov	 DWORD PTR [ebp-4], -858993460 ; ccccccccH
  0000b	89 4d fc	 mov	 DWORD PTR _this$[ebp], ecx
  0000e	8b 4d fc	 mov	 ecx, DWORD PTR _this$[ebp]
  00011	e8 00 00 00 00	 call	 ??0CSliderCtrl@@QAE@XZ	; CSliderCtrl::CSliderCtrl
  00016	8b 45 fc	 mov	 eax, DWORD PTR _this$[ebp]
  00019	c7 00 00 00 00
	00		 mov	 DWORD PTR [eax], OFFSET FLAT:??_7CColorSlide@@6B@

; 18   : 	FPosition = 0;

  0001f	8b 4d fc	 mov	 ecx, DWORD PTR _this$[ebp]
  00022	c7 41 54 00 00
	00 00		 mov	 DWORD PTR [ecx+84], 0

; 19   : 	FMaxValue = 100;

  00029	8b 55 fc	 mov	 edx, DWORD PTR _this$[ebp]
  0002c	c7 42 58 64 00
	00 00		 mov	 DWORD PTR [edx+88], 100	; 00000064H

; 20   : 	FMinValue = 0;

  00033	8b 45 fc	 mov	 eax, DWORD PTR _this$[ebp]
  00036	c7 40 5c 00 00
	00 00		 mov	 DWORD PTR [eax+92], 0

; 21   : 
; 22   : 	m_iStatePosX=0;

  0003d	8b 4d fc	 mov	 ecx, DWORD PTR _this$[ebp]
  00040	c7 81 84 00 00
	00 00 00 00 00	 mov	 DWORD PTR [ecx+132], 0

; 23   : 	m_nWidth = 0;

  0004a	8b 55 fc	 mov	 edx, DWORD PTR _this$[ebp]
  0004d	c7 42 60 00 00
	00 00		 mov	 DWORD PTR [edx+96], 0

; 24   : 	m_nHeight = 0;

  00054	8b 45 fc	 mov	 eax, DWORD PTR _this$[ebp]
  00057	c7 40 64 00 00
	00 00		 mov	 DWORD PTR [eax+100], 0

; 25   : 	m_bButtonDown = FALSE;

  0005e	8b 4d fc	 mov	 ecx, DWORD PTR _this$[ebp]
  00061	c7 41 78 00 00
	00 00		 mov	 DWORD PTR [ecx+120], 0

; 26   : 	mWndProc = NULL;

  00068	8b 55 fc	 mov	 edx, DWORD PTR _this$[ebp]
  0006b	c7 42 7c 00 00
	00 00		 mov	 DWORD PTR [edx+124], 0

; 27   : 
; 28   : 	m_SlideType = HUE_SLIDE;

  00072	8b 45 fc	 mov	 eax, DWORD PTR _this$[ebp]
  00075	c7 80 80 00 00
	00 02 00 00 00	 mov	 DWORD PTR [eax+128], 2

; 29   : 
; 30   : 	m_colBegain = 0;

  0007f	8b 4d fc	 mov	 ecx, DWORD PTR _this$[ebp]
  00082	c7 41 6c 00 00
	00 00		 mov	 DWORD PTR [ecx+108], 0

; 31   : 	m_colEnd    = 0;

  00089	8b 55 fc	 mov	 edx, DWORD PTR _this$[ebp]
  0008c	c7 42 70 00 00
	00 00		 mov	 DWORD PTR [edx+112], 0

; 32   : 	m_nHue      = 0;

  00093	8b 45 fc	 mov	 eax, DWORD PTR _this$[ebp]
  00096	c7 40 74 00 00
	00 00		 mov	 DWORD PTR [eax+116], 0

; 33   : }

  0009d	8b 45 fc	 mov	 eax, DWORD PTR _this$[ebp]
  000a0	83 c4 04	 add	 esp, 4
  000a3	3b ec		 cmp	 ebp, esp
  000a5	e8 00 00 00 00	 call	 __RTC_CheckEsp
  000aa	8b e5		 mov	 esp, ebp
  000ac	5d		 pop	 ebp
  000ad	c3		 ret	 0
??0CColorSlide@@QAE@XZ ENDP				; CColorSlide::CColorSlide
_TEXT	ENDS
PUBLIC	??1CColorSlide@@UAE@XZ				; CColorSlide::~CColorSlide
EXTRN	??3CObject@@SGXPAX@Z:NEAR			; CObject::operator delete
; Function compile flags: /Odt /RTCsu
;	COMDAT ??_GCColorSlide@@UAEPAXI@Z
_TEXT	SEGMENT
_this$ = -4						; size = 4
___flags$ = 8						; size = 4
??_GCColorSlide@@UAEPAXI@Z PROC NEAR			; CColorSlide::`scalar deleting destructor', COMDAT
; _this$ = ecx
  00000	55		 push	 ebp
  00001	8b ec		 mov	 ebp, esp
  00003	51		 push	 ecx
  00004	c7 45 fc cc cc
	cc cc		 mov	 DWORD PTR [ebp-4], -858993460 ; ccccccccH
  0000b	89 4d fc	 mov	 DWORD PTR _this$[ebp], ecx
  0000e	8b 4d fc	 mov	 ecx, DWORD PTR _this$[ebp]
  00011	e8 00 00 00 00	 call	 ??1CColorSlide@@UAE@XZ	; CColorSlide::~CColorSlide
  00016	8b 45 08	 mov	 eax, DWORD PTR ___flags$[ebp]
  00019	83 e0 01	 and	 eax, 1
  0001c	74 09		 je	 SHORT $L187496
  0001e	8b 4d fc	 mov	 ecx, DWORD PTR _this$[ebp]
  00021	51		 push	 ecx
  00022	e8 00 00 00 00	 call	 ??3CObject@@SGXPAX@Z	; CObject::operator delete
$L187496:
  00027	8b 45 fc	 mov	 eax, DWORD PTR _this$[ebp]
  0002a	83 c4 04	 add	 esp, 4
  0002d	3b ec		 cmp	 ebp, esp
  0002f	e8 00 00 00 00	 call	 __RTC_CheckEsp
  00034	8b e5		 mov	 esp, ebp
  00036	5d		 pop	 ebp
  00037	c2 04 00	 ret	 4
??_GCColorSlide@@UAEPAXI@Z ENDP				; CColorSlide::`scalar deleting destructor'
_TEXT	ENDS
EXTRN	??1CSliderCtrl@@UAE@XZ:NEAR			; CSliderCtrl::~CSliderCtrl
; Function compile flags: /Odt /RTCsu
_TEXT	SEGMENT
_this$ = -4						; size = 4
??1CColorSlide@@UAE@XZ PROC NEAR			; CColorSlide::~CColorSlide
; _this$ = ecx

; 36   : {

  000b0	55		 push	 ebp
  000b1	8b ec		 mov	 ebp, esp
  000b3	51		 push	 ecx
  000b4	c7 45 fc cc cc
	cc cc		 mov	 DWORD PTR [ebp-4], -858993460 ; ccccccccH
  000bb	89 4d fc	 mov	 DWORD PTR _this$[ebp], ecx
  000be	8b 45 fc	 mov	 eax, DWORD PTR _this$[ebp]
  000c1	c7 00 00 00 00
	00		 mov	 DWORD PTR [eax], OFFSET FLAT:??_7CColorSlide@@6B@

; 37   : }

  000c7	8b 4d fc	 mov	 ecx, DWORD PTR _this$[ebp]
  000ca	e8 00 00 00 00	 call	 ??1CSliderCtrl@@UAE@XZ	; CSliderCtrl::~CSliderCtrl
  000cf	83 c4 04	 add	 esp, 4
  000d2	3b ec		 cmp	 ebp, esp
  000d4	e8 00 00 00 00	 call	 __RTC_CheckEsp
  000d9	8b e5		 mov	 esp, ebp
  000db	5d		 pop	 ebp
  000dc	c3		 ret	 0
??1CColorSlide@@UAE@XZ ENDP				; CColorSlide::~CColorSlide
_TEXT	ENDS
PUBLIC	?GetThisMessageMap@CColorSlide@@KGPBUAFX_MSGMAP@@XZ ; CColorSlide::GetThisMessageMap
; Function compile flags: /Odt /RTCsu
_TEXT	SEGMENT
?GetThisMessageMap@CColorSlide@@KGPBUAFX_MSGMAP@@XZ PROC NEAR ; CColorSlide::GetThisMessageMap

; 39   : BEGIN_MESSAGE_MAP(CColorSlide, CWnd)

  000e0	55		 push	 ebp
  000e1	8b ec		 mov	 ebp, esp
  000e3	b8 00 00 00 00	 mov	 eax, OFFSET FLAT:?messageMap@CColorSlide@@1UAFX_MSGMAP@@B ; CColorSlide::messageMap
  000e8	5d		 pop	 ebp
  000e9	c3		 ret	 0
?GetThisMessageMap@CColorSlide@@KGPBUAFX_MSGMAP@@XZ ENDP ; CColorSlide::GetThisMessageMap
; Function compile flags: /Odt /RTCsu
_this$ = -4						; size = 4
?GetMessageMap@CColorSlide@@MBEPBUAFX_MSGMAP@@XZ PROC NEAR ; CColorSlide::GetMessageMap
; _this$ = ecx

; 39   : BEGIN_MESSAGE_MAP(CColorSlide, CWnd)

  000f0	55		 push	 ebp
  000f1	8b ec		 mov	 ebp, esp
  000f3	51		 push	 ecx
  000f4	c7 45 fc cc cc
	cc cc		 mov	 DWORD PTR [ebp-4], -858993460 ; ccccccccH
  000fb	89 4d fc	 mov	 DWORD PTR _this$[ebp], ecx
  000fe	b8 00 00 00 00	 mov	 eax, OFFSET FLAT:?messageMap@CColorSlide@@1UAFX_MSGMAP@@B ; CColorSlide::messageMap
  00103	8b e5		 mov	 esp, ebp
  00105	5d		 pop	 ebp
  00106	c3		 ret	 0
?GetMessageMap@CColorSlide@@MBEPBUAFX_MSGMAP@@XZ ENDP	; CColorSlide::GetMessageMap
; Function compile flags: /Odt /RTCsu
_this$ = -4						; size = 4
_pDC$ = 8						; size = 4
?OnEraseBkgnd@CColorSlide@@IAEHPAVCDC@@@Z PROC NEAR	; CColorSlide::OnEraseBkgnd
; _this$ = ecx

; 50   : {

  00110	55		 push	 ebp
  00111	8b ec		 mov	 ebp, esp
  00113	51		 push	 ecx
  00114	c7 45 fc cc cc
	cc cc		 mov	 DWORD PTR [ebp-4], -858993460 ; ccccccccH
  0011b	89 4d fc	 mov	 DWORD PTR _this$[ebp], ecx

; 51   : 	return TRUE;

  0011e	b8 01 00 00 00	 mov	 eax, 1

; 52   : }

  00123	8b e5		 mov	 esp, ebp
  00125	5d		 pop	 ebp
  00126	c2 04 00	 ret	 4
?OnEraseBkgnd@CColorSlide@@IAEHPAVCDC@@@Z ENDP		; CColorSlide::OnEraseBkgnd
_TEXT	ENDS
PUBLIC	?SelfProc@CColorSlide@@KGJPAUHWND__@@IIJ@Z	; CColorSlide::SelfProc
EXTRN	?GetSafeHwnd@CWnd@@QBEPAUHWND__@@XZ:NEAR	; CWnd::GetSafeHwnd
EXTRN	?PreSubclassWindow@CWnd@@UAEXXZ:NEAR		; CWnd::PreSubclassWindow
EXTRN	__imp__SetWindowLongA@12:NEAR
; Function compile flags: /Odt /RTCsu
_TEXT	SEGMENT
_this$ = -4						; size = 4
?PreSubclassWindow@CColorSlide@@MAEXXZ PROC NEAR	; CColorSlide::PreSubclassWindow
; _this$ = ecx

; 58   : {

  00130	55		 push	 ebp
  00131	8b ec		 mov	 ebp, esp
  00133	51		 push	 ecx
  00134	56		 push	 esi
  00135	c7 45 fc cc cc
	cc cc		 mov	 DWORD PTR [ebp-4], -858993460 ; ccccccccH
  0013c	89 4d fc	 mov	 DWORD PTR _this$[ebp], ecx

; 59   : 	/*m_ctlTips.Create(this);
; 60   : 	m_ctlTips.DelTool(this);
; 61   : 	m_ctlTips.AddTool(this);
; 62   : 	m_ctlTips.SetDelayTime(250);*/
; 63   : 
; 64   : 	mWndProc = (WNDPROC)SetWindowLong(this->GetSafeHwnd(), GWL_WNDPROC, (LONG)SelfProc);

  0013f	8b f4		 mov	 esi, esp
  00141	68 00 00 00 00	 push	 OFFSET FLAT:?SelfProc@CColorSlide@@KGJPAUHWND__@@IIJ@Z ; CColorSlide::SelfProc
  00146	6a fc		 push	 -4			; fffffffcH
  00148	8b 4d fc	 mov	 ecx, DWORD PTR _this$[ebp]
  0014b	e8 00 00 00 00	 call	 ?GetSafeHwnd@CWnd@@QBEPAUHWND__@@XZ ; CWnd::GetSafeHwnd
  00150	50		 push	 eax
  00151	ff 15 00 00 00
	00		 call	 DWORD PTR __imp__SetWindowLongA@12
  00157	3b f4		 cmp	 esi, esp
  00159	e8 00 00 00 00	 call	 __RTC_CheckEsp
  0015e	8b 4d fc	 mov	 ecx, DWORD PTR _this$[ebp]
  00161	89 41 7c	 mov	 DWORD PTR [ecx+124], eax

; 65   : 	CWnd::PreSubclassWindow();

  00164	8b 4d fc	 mov	 ecx, DWORD PTR _this$[ebp]
  00167	e8 00 00 00 00	 call	 ?PreSubclassWindow@CWnd@@UAEXXZ ; CWnd::PreSubclassWindow

; 66   : }

  0016c	5e		 pop	 esi
  0016d	83 c4 04	 add	 esp, 4
  00170	3b ec		 cmp	 ebp, esp
  00172	e8 00 00 00 00	 call	 __RTC_CheckEsp
  00177	8b e5		 mov	 esp, ebp
  00179	5d		 pop	 ebp
  0017a	c3		 ret	 0
?PreSubclassWindow@CColorSlide@@MAEXXZ ENDP		; CColorSlide::PreSubclassWindow
_TEXT	ENDS
PUBLIC	?SaveSize@CColorSlide@@AAEXXZ			; CColorSlide::SaveSize
PUBLIC	?DynamicStat@CColorSlide@@IAEXW4ENUM_SLIDERSTATE@@@Z ; CColorSlide::DynamicStat
EXTRN	__imp__DefWindowProcA@16:NEAR
EXTRN	__imp__CallWindowProcA@20:NEAR
EXTRN	__imp__IsWindow@4:NEAR
EXTRN	?SetPos@CSliderCtrl@@QAEXH@Z:NEAR		; CSliderCtrl::SetPos
EXTRN	?FromHandle@CWnd@@SGPAV1@PAUHWND__@@@Z:NEAR	; CWnd::FromHandle
; Function compile flags: /Odt /RTCsu
_TEXT	SEGMENT
tv72 = -12						; size = 4
_lpThis$ = -8						; size = 4
_lReturn$ = -4						; size = 4
_hWnd$ = 8						; size = 4
_uMsg$ = 12						; size = 4
_wParam$ = 16						; size = 4
_lParam$ = 20						; size = 4
?SelfProc@CColorSlide@@KGJPAUHWND__@@IIJ@Z PROC NEAR	; CColorSlide::SelfProc

; 69   : {

  00180	55		 push	 ebp
  00181	8b ec		 mov	 ebp, esp
  00183	83 ec 0c	 sub	 esp, 12			; 0000000cH
  00186	56		 push	 esi
  00187	c7 45 f4 cc cc
	cc cc		 mov	 DWORD PTR [ebp-12], -858993460 ; ccccccccH
  0018e	c7 45 f8 cc cc
	cc cc		 mov	 DWORD PTR [ebp-8], -858993460 ; ccccccccH
  00195	c7 45 fc cc cc
	cc cc		 mov	 DWORD PTR [ebp-4], -858993460 ; ccccccccH

; 70   : 	LONG lReturn = 0;

  0019c	c7 45 fc 00 00
	00 00		 mov	 DWORD PTR _lReturn$[ebp], 0

; 71   : 	CColorSlide* lpThis = NULL;

  001a3	c7 45 f8 00 00
	00 00		 mov	 DWORD PTR _lpThis$[ebp], 0

; 72   : 	lpThis = (CColorSlide*)CWnd::FromHandle(hWnd);

  001aa	8b 45 08	 mov	 eax, DWORD PTR _hWnd$[ebp]
  001ad	50		 push	 eax
  001ae	e8 00 00 00 00	 call	 ?FromHandle@CWnd@@SGPAV1@PAUHWND__@@@Z ; CWnd::FromHandle
  001b3	89 45 f8	 mov	 DWORD PTR _lpThis$[ebp], eax

; 73   : 	if (lpThis == NULL || !::IsWindow(lpThis->GetSafeHwnd()))

  001b6	83 7d f8 00	 cmp	 DWORD PTR _lpThis$[ebp], 0
  001ba	74 1c		 je	 SHORT $L187544
  001bc	8b 4d f8	 mov	 ecx, DWORD PTR _lpThis$[ebp]
  001bf	e8 00 00 00 00	 call	 ?GetSafeHwnd@CWnd@@QBEPAUHWND__@@XZ ; CWnd::GetSafeHwnd
  001c4	8b f4		 mov	 esi, esp
  001c6	50		 push	 eax
  001c7	ff 15 00 00 00
	00		 call	 DWORD PTR __imp__IsWindow@4
  001cd	3b f4		 cmp	 esi, esp
  001cf	e8 00 00 00 00	 call	 __RTC_CheckEsp
  001d4	85 c0		 test	 eax, eax
  001d6	75 08		 jne	 SHORT $L187543
$L187544:

; 74   : 		return lReturn;

  001d8	8b 45 fc	 mov	 eax, DWORD PTR _lReturn$[ebp]
  001db	e9 b5 00 00 00	 jmp	 $L187539
$L187543:

; 75   : 
; 76   : 	switch (uMsg)

  001e0	8b 4d 0c	 mov	 ecx, DWORD PTR _uMsg$[ebp]
  001e3	89 4d f4	 mov	 DWORD PTR tv72[ebp], ecx
  001e6	8b 55 f4	 mov	 edx, DWORD PTR tv72[ebp]
  001e9	83 ea 05	 sub	 edx, 5
  001ec	89 55 f4	 mov	 DWORD PTR tv72[ebp], edx
  001ef	81 7d f4 80 00
	00 00		 cmp	 DWORD PTR tv72[ebp], 128 ; 00000080H
  001f6	77 71		 ja	 SHORT $L187546
  001f8	8b 45 f4	 mov	 eax, DWORD PTR tv72[ebp]
  001fb	0f b6 88 00 00
	00 00		 movzx	 ecx, BYTE PTR $L188217[eax]
  00202	ff 24 8d 00 00
	00 00		 jmp	 DWORD PTR $L188218[ecx*4]
$L187549:

; 77   : 	{
; 78   : 	case WM_PAINT:
; 79   : 	case WM_NCPAINT:
; 80   : 		{
; 81   : 			lReturn = (LONG)::DefWindowProc(hWnd, uMsg, wParam, lParam);

  00209	8b f4		 mov	 esi, esp
  0020b	8b 55 14	 mov	 edx, DWORD PTR _lParam$[ebp]
  0020e	52		 push	 edx
  0020f	8b 45 10	 mov	 eax, DWORD PTR _wParam$[ebp]
  00212	50		 push	 eax
  00213	8b 4d 0c	 mov	 ecx, DWORD PTR _uMsg$[ebp]
  00216	51		 push	 ecx
  00217	8b 55 08	 mov	 edx, DWORD PTR _hWnd$[ebp]
  0021a	52		 push	 edx
  0021b	ff 15 00 00 00
	00		 call	 DWORD PTR __imp__DefWindowProcA@16
  00221	3b f4		 cmp	 esi, esp
  00223	e8 00 00 00 00	 call	 __RTC_CheckEsp
  00228	89 45 fc	 mov	 DWORD PTR _lReturn$[ebp], eax

; 82   : 			lpThis->DynamicStat(set_Normal);

  0022b	6a 00		 push	 0
  0022d	8b 4d f8	 mov	 ecx, DWORD PTR _lpThis$[ebp]
  00230	e8 00 00 00 00	 call	 ?DynamicStat@CColorSlide@@IAEXW4ENUM_SLIDERSTATE@@@Z ; CColorSlide::DynamicStat

; 83   : 			return lReturn;

  00235	8b 45 fc	 mov	 eax, DWORD PTR _lReturn$[ebp]
  00238	eb 5b		 jmp	 SHORT $L187539
$L187551:

; 84   : 		}
; 85   : 		break;
; 86   : 	case WM_ENABLE:
; 87   : 		lpThis->DynamicStat(set_Normal);

  0023a	6a 00		 push	 0
  0023c	8b 4d f8	 mov	 ecx, DWORD PTR _lpThis$[ebp]
  0023f	e8 00 00 00 00	 call	 ?DynamicStat@CColorSlide@@IAEXW4ENUM_SLIDERSTATE@@@Z ; CColorSlide::DynamicStat

; 88   : 		break;

  00244	eb 23		 jmp	 SHORT $L187546
$L187552:

; 89   : 	case WM_ACTIVATE:
; 90   : 		lpThis->DynamicStat(set_Normal);

  00246	6a 00		 push	 0
  00248	8b 4d f8	 mov	 ecx, DWORD PTR _lpThis$[ebp]
  0024b	e8 00 00 00 00	 call	 ?DynamicStat@CColorSlide@@IAEXW4ENUM_SLIDERSTATE@@@Z ; CColorSlide::DynamicStat

; 91   : 		break;

  00250	eb 17		 jmp	 SHORT $L187546
$L187553:

; 92   : 	case WM_SIZE:
; 93   : 		lpThis->SaveSize();

  00252	8b 4d f8	 mov	 ecx, DWORD PTR _lpThis$[ebp]
  00255	e8 00 00 00 00	 call	 ?SaveSize@CColorSlide@@AAEXXZ ; CColorSlide::SaveSize

; 94   : 		lpThis->SetPos(lpThis->FPosition);

  0025a	8b 45 f8	 mov	 eax, DWORD PTR _lpThis$[ebp]
  0025d	8b 48 54	 mov	 ecx, DWORD PTR [eax+84]
  00260	51		 push	 ecx
  00261	8b 4d f8	 mov	 ecx, DWORD PTR _lpThis$[ebp]
  00264	e8 00 00 00 00	 call	 ?SetPos@CSliderCtrl@@QAEXH@Z ; CSliderCtrl::SetPos
$L187546:

; 95   : 
; 96   : 		break;
; 97   : 	}
; 98   : 	// 调用原来的回调函数
; 99   : 	lReturn = (LONG)CallWindowProc(lpThis->mWndProc, hWnd, uMsg, wParam, lParam);

  00269	8b f4		 mov	 esi, esp
  0026b	8b 55 14	 mov	 edx, DWORD PTR _lParam$[ebp]
  0026e	52		 push	 edx
  0026f	8b 45 10	 mov	 eax, DWORD PTR _wParam$[ebp]
  00272	50		 push	 eax
  00273	8b 4d 0c	 mov	 ecx, DWORD PTR _uMsg$[ebp]
  00276	51		 push	 ecx
  00277	8b 55 08	 mov	 edx, DWORD PTR _hWnd$[ebp]
  0027a	52		 push	 edx
  0027b	8b 45 f8	 mov	 eax, DWORD PTR _lpThis$[ebp]
  0027e	8b 48 7c	 mov	 ecx, DWORD PTR [eax+124]
  00281	51		 push	 ecx
  00282	ff 15 00 00 00
	00		 call	 DWORD PTR __imp__CallWindowProcA@20
  00288	3b f4		 cmp	 esi, esp
  0028a	e8 00 00 00 00	 call	 __RTC_CheckEsp
  0028f	89 45 fc	 mov	 DWORD PTR _lReturn$[ebp], eax

; 100  : 	return lReturn;

  00292	8b 45 fc	 mov	 eax, DWORD PTR _lReturn$[ebp]
$L187539:

; 101  : }

  00295	5e		 pop	 esi
  00296	83 c4 0c	 add	 esp, 12			; 0000000cH
  00299	3b ec		 cmp	 ebp, esp
  0029b	e8 00 00 00 00	 call	 __RTC_CheckEsp
  002a0	8b e5		 mov	 esp, ebp
  002a2	5d		 pop	 ebp
  002a3	c2 10 00	 ret	 16			; 00000010H
$L188218:
  002a6	00 00 00 00	 DD	 $L187553
  002aa	00 00 00 00	 DD	 $L187552
  002ae	00 00 00 00	 DD	 $L187551
  002b2	00 00 00 00	 DD	 $L187549
  002b6	00 00 00 00	 DD	 $L187546
$L188217:
  002ba	00		 DB	 0
  002bb	01		 DB	 1
  002bc	04		 DB	 4
  002bd	04		 DB	 4
  002be	04		 DB	 4
  002bf	02		 DB	 2
  002c0	04		 DB	 4
  002c1	04		 DB	 4
  002c2	04		 DB	 4
  002c3	04		 DB	 4
  002c4	03		 DB	 3
  002c5	04		 DB	 4
  002c6	04		 DB	 4
  002c7	04		 DB	 4
  002c8	04		 DB	 4
  002c9	04		 DB	 4
  002ca	04		 DB	 4
  002cb	04		 DB	 4
  002cc	04		 DB	 4
  002cd	04		 DB	 4
  002ce	04		 DB	 4
  002cf	04		 DB	 4
  002d0	04		 DB	 4
  002d1	04		 DB	 4
  002d2	04		 DB	 4
  002d3	04		 DB	 4
  002d4	04		 DB	 4
  002d5	04		 DB	 4
  002d6	04		 DB	 4
  002d7	04		 DB	 4
  002d8	04		 DB	 4
  002d9	04		 DB	 4
  002da	04		 DB	 4
  002db	04		 DB	 4
  002dc	04		 DB	 4
  002dd	04		 DB	 4
  002de	04		 DB	 4
  002df	04		 DB	 4
  002e0	04		 DB	 4
  002e1	04		 DB	 4
  002e2	04		 DB	 4
  002e3	04		 DB	 4
  002e4	04		 DB	 4
  002e5	04		 DB	 4
  002e6	04		 DB	 4
  002e7	04		 DB	 4
  002e8	04		 DB	 4
  002e9	04		 DB	 4
  002ea	04		 DB	 4
  002eb	04		 DB	 4
  002ec	04		 DB	 4
  002ed	04		 DB	 4
  002ee	04		 DB	 4
  002ef	04		 DB	 4
  002f0	04		 DB	 4
  002f1	04		 DB	 4
  002f2	04		 DB	 4
  002f3	04		 DB	 4
  002f4	04		 DB	 4
  002f5	04		 DB	 4
  002f6	04		 DB	 4
  002f7	04		 DB	 4
  002f8	04		 DB	 4
  002f9	04		 DB	 4
  002fa	04		 DB	 4
  002fb	04		 DB	 4
  002fc	04		 DB	 4
  002fd	04		 DB	 4
  002fe	04		 DB	 4
  002ff	04		 DB	 4
  00300	04		 DB	 4
  00301	04		 DB	 4
  00302	04		 DB	 4
  00303	04		 DB	 4
  00304	04		 DB	 4
  00305	04		 DB	 4
  00306	04		 DB	 4
  00307	04		 DB	 4
  00308	04		 DB	 4
  00309	04		 DB	 4
  0030a	04		 DB	 4
  0030b	04		 DB	 4
  0030c	04		 DB	 4
  0030d	04		 DB	 4
  0030e	04		 DB	 4
  0030f	04		 DB	 4
  00310	04		 DB	 4
  00311	04		 DB	 4
  00312	04		 DB	 4
  00313	04		 DB	 4
  00314	04		 DB	 4
  00315	04		 DB	 4
  00316	04		 DB	 4
  00317	04		 DB	 4
  00318	04		 DB	 4
  00319	04		 DB	 4
  0031a	04		 DB	 4
  0031b	04		 DB	 4
  0031c	04		 DB	 4
  0031d	04		 DB	 4
  0031e	04		 DB	 4
  0031f	04		 DB	 4
  00320	04		 DB	 4
  00321	04		 DB	 4
  00322	04		 DB	 4
  00323	04		 DB	 4
  00324	04		 DB	 4
  00325	04		 DB	 4
  00326	04		 DB	 4
  00327	04		 DB	 4
  00328	04		 DB	 4
  00329	04		 DB	 4
  0032a	04		 DB	 4
  0032b	04		 DB	 4
  0032c	04		 DB	 4
  0032d	04		 DB	 4
  0032e	04		 DB	 4
  0032f	04		 DB	 4
  00330	04		 DB	 4
  00331	04		 DB	 4
  00332	04		 DB	 4
  00333	04		 DB	 4
  00334	04		 DB	 4
  00335	04		 DB	 4
  00336	04		 DB	 4
  00337	04		 DB	 4
  00338	04		 DB	 4
  00339	04		 DB	 4
  0033a	03		 DB	 3
?SelfProc@CColorSlide@@KGJPAUHWND__@@IIJ@Z ENDP		; CColorSlide::SelfProc
_TEXT	ENDS
PUBLIC	__real@3fe0000000000000
EXTRN	?OnLButtonDown@CWnd@@IAEXIVCPoint@@@Z:NEAR	; CWnd::OnLButtonDown
EXTRN	?SetCapture@CWnd@@QAEPAV1@XZ:NEAR		; CWnd::SetCapture
EXTRN	__ftol2:NEAR
EXTRN	__fltused:NEAR
EXTRN	?WindowFromPoint@CWnd@@SGPAV1@UtagPOINT@@@Z:NEAR ; CWnd::WindowFromPoint
;	COMDAT __real@3fe0000000000000
CONST	SEGMENT
__real@3fe0000000000000 DQ 03fe0000000000000r	; 0.5
; Function compile flags: /Odt /RTCsu
CONST	ENDS
_TEXT	SEGMENT
$T188220 = -16						; size = 8
_wndUnderMouse$ = -8					; size = 4
_this$ = -4						; size = 4
_nFlags$ = 8						; size = 4
_point$ = 12						; size = 8
?OnLButtonDown@CColorSlide@@IAEXIVCPoint@@@Z PROC NEAR	; CColorSlide::OnLButtonDown
; _this$ = ecx

; 104  : {

  00340	55		 push	 ebp
  00341	8b ec		 mov	 ebp, esp
  00343	83 ec 10	 sub	 esp, 16			; 00000010H
  00346	b8 cc cc cc cc	 mov	 eax, -858993460		; ccccccccH
  0034b	89 45 f0	 mov	 DWORD PTR [ebp-16], eax
  0034e	89 45 f4	 mov	 DWORD PTR [ebp-12], eax
  00351	89 45 f8	 mov	 DWORD PTR [ebp-8], eax
  00354	89 45 fc	 mov	 DWORD PTR [ebp-4], eax
  00357	89 4d fc	 mov	 DWORD PTR _this$[ebp], ecx

; 105  : 	if( m_SlideType == PERCENT_SLIDE )

  0035a	8b 45 fc	 mov	 eax, DWORD PTR _this$[ebp]
  0035d	83 b8 80 00 00
	00 00		 cmp	 DWORD PTR [eax+128], 0
  00364	75 19		 jne	 SHORT $L187560

; 106  : 	return CSliderCtrl::OnLButtonDown(nFlags, point);

  00366	8b 4d 10	 mov	 ecx, DWORD PTR _point$[ebp+4]
  00369	51		 push	 ecx
  0036a	8b 55 0c	 mov	 edx, DWORD PTR _point$[ebp]
  0036d	52		 push	 edx
  0036e	8b 45 08	 mov	 eax, DWORD PTR _nFlags$[ebp]
  00371	50		 push	 eax
  00372	8b 4d fc	 mov	 ecx, DWORD PTR _this$[ebp]
  00375	e8 00 00 00 00	 call	 ?OnLButtonDown@CWnd@@IAEXIVCPoint@@@Z ; CWnd::OnLButtonDown
  0037a	e9 11 01 00 00	 jmp	 $L187559
$L187560:

; 107  : 	m_bButtonDown = TRUE;

  0037f	8b 4d fc	 mov	 ecx, DWORD PTR _this$[ebp]
  00382	c7 41 78 01 00
	00 00		 mov	 DWORD PTR [ecx+120], 1

; 108  : 	SetCapture();

  00389	8b 4d fc	 mov	 ecx, DWORD PTR _this$[ebp]
  0038c	e8 00 00 00 00	 call	 ?SetCapture@CWnd@@QAEPAV1@XZ ; CWnd::SetCapture

; 109  : 	CWnd *wndUnderMouse = WindowFromPoint(point);

  00391	8b 55 0c	 mov	 edx, DWORD PTR _point$[ebp]
  00394	89 55 f0	 mov	 DWORD PTR $T188220[ebp], edx
  00397	8b 45 10	 mov	 eax, DWORD PTR _point$[ebp+4]
  0039a	89 45 f4	 mov	 DWORD PTR $T188220[ebp+4], eax
  0039d	8b 4d f4	 mov	 ecx, DWORD PTR $T188220[ebp+4]
  003a0	51		 push	 ecx
  003a1	8b 55 f0	 mov	 edx, DWORD PTR $T188220[ebp]
  003a4	52		 push	 edx
  003a5	e8 00 00 00 00	 call	 ?WindowFromPoint@CWnd@@SGPAV1@UtagPOINT@@@Z ; CWnd::WindowFromPoint
  003aa	89 45 f8	 mov	 DWORD PTR _wndUnderMouse$[ebp], eax

; 110  : 
; 111  : 	if(( point.x-TRACKBAR_INTERVAL >m_iStatePosX ) &&( point.x-TRACKBAR_INTERVAL< m_iStatePosX ))

  003ad	8b 45 0c	 mov	 eax, DWORD PTR _point$[ebp]
  003b0	83 e8 04	 sub	 eax, 4
  003b3	8b 4d fc	 mov	 ecx, DWORD PTR _this$[ebp]
  003b6	3b 81 84 00 00
	00		 cmp	 eax, DWORD PTR [ecx+132]
  003bc	7e 2a		 jle	 SHORT $L187563
  003be	8b 55 0c	 mov	 edx, DWORD PTR _point$[ebp]
  003c1	83 ea 04	 sub	 edx, 4
  003c4	8b 45 fc	 mov	 eax, DWORD PTR _this$[ebp]
  003c7	3b 90 84 00 00
	00		 cmp	 edx, DWORD PTR [eax+132]
  003cd	7d 19		 jge	 SHORT $L187563

; 112  : 	{
; 113  : 		return CSliderCtrl::OnLButtonDown(nFlags, point);

  003cf	8b 4d 10	 mov	 ecx, DWORD PTR _point$[ebp+4]
  003d2	51		 push	 ecx
  003d3	8b 55 0c	 mov	 edx, DWORD PTR _point$[ebp]
  003d6	52		 push	 edx
  003d7	8b 45 08	 mov	 eax, DWORD PTR _nFlags$[ebp]
  003da	50		 push	 eax
  003db	8b 4d fc	 mov	 ecx, DWORD PTR _this$[ebp]
  003de	e8 00 00 00 00	 call	 ?OnLButtonDown@CWnd@@IAEXIVCPoint@@@Z ; CWnd::OnLButtonDown
  003e3	e9 a8 00 00 00	 jmp	 $L187559
$L187563:

; 114  : 	}
; 115  : 
; 116  : 	m_iStatePosX = point.x;

  003e8	8b 4d fc	 mov	 ecx, DWORD PTR _this$[ebp]
  003eb	8b 55 0c	 mov	 edx, DWORD PTR _point$[ebp]
  003ee	89 91 84 00 00
	00		 mov	 DWORD PTR [ecx+132], edx

; 117  : 
; 118  : 	if (m_iStatePosX < TRACKBAR_INTERVAL) m_iStatePosX = 0;

  003f4	8b 45 fc	 mov	 eax, DWORD PTR _this$[ebp]
  003f7	83 b8 84 00 00
	00 04		 cmp	 DWORD PTR [eax+132], 4
  003fe	7d 0f		 jge	 SHORT $L187564
  00400	8b 4d fc	 mov	 ecx, DWORD PTR _this$[ebp]
  00403	c7 81 84 00 00
	00 00 00 00 00	 mov	 DWORD PTR [ecx+132], 0

; 119  : 	else if (m_iStatePosX > m_nWidth-2*TRACKBAR_INTERVAL ) m_iStatePosX = m_nWidth-2*TRACKBAR_INTERVAL ;

  0040d	eb 3d		 jmp	 SHORT $L187565
$L187564:
  0040f	8b 55 fc	 mov	 edx, DWORD PTR _this$[ebp]
  00412	8b 42 60	 mov	 eax, DWORD PTR [edx+96]
  00415	83 e8 08	 sub	 eax, 8
  00418	8b 4d fc	 mov	 ecx, DWORD PTR _this$[ebp]
  0041b	39 81 84 00 00
	00		 cmp	 DWORD PTR [ecx+132], eax
  00421	7e 14		 jle	 SHORT $L187566
  00423	8b 55 fc	 mov	 edx, DWORD PTR _this$[ebp]
  00426	8b 42 60	 mov	 eax, DWORD PTR [edx+96]
  00429	83 e8 08	 sub	 eax, 8
  0042c	8b 4d fc	 mov	 ecx, DWORD PTR _this$[ebp]
  0042f	89 81 84 00 00
	00		 mov	 DWORD PTR [ecx+132], eax

; 120  : 	else

  00435	eb 15		 jmp	 SHORT $L187565
$L187566:

; 121  : 	{
; 122  : 		m_iStatePosX -= TRACKBAR_INTERVAL;

  00437	8b 55 fc	 mov	 edx, DWORD PTR _this$[ebp]
  0043a	8b 82 84 00 00
	00		 mov	 eax, DWORD PTR [edx+132]
  00440	83 e8 04	 sub	 eax, 4
  00443	8b 4d fc	 mov	 ecx, DWORD PTR _this$[ebp]
  00446	89 81 84 00 00
	00		 mov	 DWORD PTR [ecx+132], eax
$L187565:

; 123  : 	}
; 124  : 
; 125  : 	FPosition =  (int)( FMaxValue * (float)(m_iStatePosX)/(float)(m_nWidthPlay) + 0.5 );

  0044c	8b 55 fc	 mov	 edx, DWORD PTR _this$[ebp]
  0044f	db 42 58	 fild	 DWORD PTR [edx+88]
  00452	8b 45 fc	 mov	 eax, DWORD PTR _this$[ebp]
  00455	da 88 84 00 00
	00		 fimul	 DWORD PTR [eax+132]
  0045b	8b 4d fc	 mov	 ecx, DWORD PTR _this$[ebp]
  0045e	da 71 68	 fidiv	 DWORD PTR [ecx+104]
  00461	dc 05 00 00 00
	00		 fadd	 QWORD PTR __real@3fe0000000000000
  00467	e8 00 00 00 00	 call	 __ftol2
  0046c	8b 55 fc	 mov	 edx, DWORD PTR _this$[ebp]
  0046f	89 42 54	 mov	 DWORD PTR [edx+84], eax

; 126  : 	DynamicStat(set_Down);

  00472	6a 02		 push	 2
  00474	8b 4d fc	 mov	 ecx, DWORD PTR _this$[ebp]
  00477	e8 00 00 00 00	 call	 ?DynamicStat@CColorSlide@@IAEXW4ENUM_SLIDERSTATE@@@Z ; CColorSlide::DynamicStat

; 127  : 	/*::SendMessage(GetParent()->GetSafeHwnd(),WM_HSCROLL,0,(LPARAM)this->m_hWnd);
; 128  : 
; 129  : 	if( NULL != mp_slideEventListerner)
; 130  : 	{
; 131  : 	this->mp_slideEventListerner->OnCliekSlide(this);
; 132  : 	}*/
; 133  : 	return CSliderCtrl::OnLButtonDown(nFlags, point);

  0047c	8b 45 10	 mov	 eax, DWORD PTR _point$[ebp+4]
  0047f	50		 push	 eax
  00480	8b 4d 0c	 mov	 ecx, DWORD PTR _point$[ebp]
  00483	51		 push	 ecx
  00484	8b 55 08	 mov	 edx, DWORD PTR _nFlags$[ebp]
  00487	52		 push	 edx
  00488	8b 4d fc	 mov	 ecx, DWORD PTR _this$[ebp]
  0048b	e8 00 00 00 00	 call	 ?OnLButtonDown@CWnd@@IAEXIVCPoint@@@Z ; CWnd::OnLButtonDown
$L187559:

; 134  : }

  00490	83 c4 10	 add	 esp, 16			; 00000010H
  00493	3b ec		 cmp	 ebp, esp
  00495	e8 00 00 00 00	 call	 __RTC_CheckEsp
  0049a	8b e5		 mov	 esp, ebp
  0049c	5d		 pop	 ebp
  0049d	c2 0c 00	 ret	 12			; 0000000cH
?OnLButtonDown@CColorSlide@@IAEXIVCPoint@@@Z ENDP	; CColorSlide::OnLButtonDown
_TEXT	ENDS
EXTRN	?OnLButtonUp@CWnd@@IAEXIVCPoint@@@Z:NEAR	; CWnd::OnLButtonUp
EXTRN	__imp__ReleaseCapture@0:NEAR
; Function compile flags: /Odt /RTCsu
_TEXT	SEGMENT
_this$ = -4						; size = 4
_nFlags$ = 8						; size = 4
_point$ = 12						; size = 8
?OnLButtonUp@CColorSlide@@IAEXIVCPoint@@@Z PROC NEAR	; CColorSlide::OnLButtonUp
; _this$ = ecx

; 137  : {

  004a0	55		 push	 ebp
  004a1	8b ec		 mov	 ebp, esp
  004a3	51		 push	 ecx
  004a4	56		 push	 esi
  004a5	c7 45 fc cc cc
	cc cc		 mov	 DWORD PTR [ebp-4], -858993460 ; ccccccccH
  004ac	89 4d fc	 mov	 DWORD PTR _this$[ebp], ecx

; 138  : 	if( m_SlideType == PERCENT_SLIDE )

  004af	8b 45 fc	 mov	 eax, DWORD PTR _this$[ebp]
  004b2	83 b8 80 00 00
	00 00		 cmp	 DWORD PTR [eax+128], 0
  004b9	75 19		 jne	 SHORT $L187576

; 139  : 		return CSliderCtrl::OnLButtonUp(nFlags, point);

  004bb	8b 4d 10	 mov	 ecx, DWORD PTR _point$[ebp+4]
  004be	51		 push	 ecx
  004bf	8b 55 0c	 mov	 edx, DWORD PTR _point$[ebp]
  004c2	52		 push	 edx
  004c3	8b 45 08	 mov	 eax, DWORD PTR _nFlags$[ebp]
  004c6	50		 push	 eax
  004c7	8b 4d fc	 mov	 ecx, DWORD PTR _this$[ebp]
  004ca	e8 00 00 00 00	 call	 ?OnLButtonUp@CWnd@@IAEXIVCPoint@@@Z ; CWnd::OnLButtonUp
  004cf	e9 2c 01 00 00	 jmp	 $L187575
$L187576:

; 140  : 	if(( point.x-TRACKBAR_INTERVAL >m_iStatePosX ) &&( point.x-TRACKBAR_INTERVAL< m_iStatePosX ))

  004d4	8b 4d 0c	 mov	 ecx, DWORD PTR _point$[ebp]
  004d7	83 e9 04	 sub	 ecx, 4
  004da	8b 55 fc	 mov	 edx, DWORD PTR _this$[ebp]
  004dd	3b 8a 84 00 00
	00		 cmp	 ecx, DWORD PTR [edx+132]
  004e3	7e 2a		 jle	 SHORT $L187577
  004e5	8b 45 0c	 mov	 eax, DWORD PTR _point$[ebp]
  004e8	83 e8 04	 sub	 eax, 4
  004eb	8b 4d fc	 mov	 ecx, DWORD PTR _this$[ebp]
  004ee	3b 81 84 00 00
	00		 cmp	 eax, DWORD PTR [ecx+132]
  004f4	7d 19		 jge	 SHORT $L187577

; 141  : 	{
; 142  : 		return CSliderCtrl::OnLButtonUp(nFlags, point);

  004f6	8b 55 10	 mov	 edx, DWORD PTR _point$[ebp+4]
  004f9	52		 push	 edx
  004fa	8b 45 0c	 mov	 eax, DWORD PTR _point$[ebp]
  004fd	50		 push	 eax
  004fe	8b 4d 08	 mov	 ecx, DWORD PTR _nFlags$[ebp]
  00501	51		 push	 ecx
  00502	8b 4d fc	 mov	 ecx, DWORD PTR _this$[ebp]
  00505	e8 00 00 00 00	 call	 ?OnLButtonUp@CWnd@@IAEXIVCPoint@@@Z ; CWnd::OnLButtonUp
  0050a	e9 f1 00 00 00	 jmp	 $L187575
$L187577:

; 143  : 	}
; 144  : 	m_iStatePosX = point.x;

  0050f	8b 55 fc	 mov	 edx, DWORD PTR _this$[ebp]
  00512	8b 45 0c	 mov	 eax, DWORD PTR _point$[ebp]
  00515	89 82 84 00 00
	00		 mov	 DWORD PTR [edx+132], eax

; 145  : 
; 146  : 	if (m_iStatePosX < TRACKBAR_INTERVAL) m_iStatePosX = 0;

  0051b	8b 4d fc	 mov	 ecx, DWORD PTR _this$[ebp]
  0051e	83 b9 84 00 00
	00 04		 cmp	 DWORD PTR [ecx+132], 4
  00525	7d 0f		 jge	 SHORT $L187578
  00527	8b 55 fc	 mov	 edx, DWORD PTR _this$[ebp]
  0052a	c7 82 84 00 00
	00 00 00 00 00	 mov	 DWORD PTR [edx+132], 0

; 147  : 	else if (m_iStatePosX > m_nWidth-2*TRACKBAR_INTERVAL ) m_iStatePosX = m_nWidth-2*TRACKBAR_INTERVAL ;

  00534	eb 3d		 jmp	 SHORT $L187579
$L187578:
  00536	8b 45 fc	 mov	 eax, DWORD PTR _this$[ebp]
  00539	8b 48 60	 mov	 ecx, DWORD PTR [eax+96]
  0053c	83 e9 08	 sub	 ecx, 8
  0053f	8b 55 fc	 mov	 edx, DWORD PTR _this$[ebp]
  00542	39 8a 84 00 00
	00		 cmp	 DWORD PTR [edx+132], ecx
  00548	7e 14		 jle	 SHORT $L187580
  0054a	8b 45 fc	 mov	 eax, DWORD PTR _this$[ebp]
  0054d	8b 48 60	 mov	 ecx, DWORD PTR [eax+96]
  00550	83 e9 08	 sub	 ecx, 8
  00553	8b 55 fc	 mov	 edx, DWORD PTR _this$[ebp]
  00556	89 8a 84 00 00
	00		 mov	 DWORD PTR [edx+132], ecx

; 148  : 	else

  0055c	eb 15		 jmp	 SHORT $L187579
$L187580:

; 149  : 	{
; 150  : 		m_iStatePosX -= TRACKBAR_INTERVAL;

  0055e	8b 45 fc	 mov	 eax, DWORD PTR _this$[ebp]
  00561	8b 88 84 00 00
	00		 mov	 ecx, DWORD PTR [eax+132]
  00567	83 e9 04	 sub	 ecx, 4
  0056a	8b 55 fc	 mov	 edx, DWORD PTR _this$[ebp]
  0056d	89 8a 84 00 00
	00		 mov	 DWORD PTR [edx+132], ecx
$L187579:

; 151  : 	}
; 152  : 
; 153  : 	ReleaseCapture();

  00573	8b f4		 mov	 esi, esp
  00575	ff 15 00 00 00
	00		 call	 DWORD PTR __imp__ReleaseCapture@0
  0057b	3b f4		 cmp	 esi, esp
  0057d	e8 00 00 00 00	 call	 __RTC_CheckEsp

; 154  : 	m_bButtonDown = FALSE;

  00582	8b 45 fc	 mov	 eax, DWORD PTR _this$[ebp]
  00585	c7 40 78 00 00
	00 00		 mov	 DWORD PTR [eax+120], 0

; 155  : 	FPosition =  (int)( FMaxValue * (float)(m_iStatePosX)/(float)(m_nWidthPlay) + 0.5 );

  0058c	8b 4d fc	 mov	 ecx, DWORD PTR _this$[ebp]
  0058f	db 41 58	 fild	 DWORD PTR [ecx+88]
  00592	8b 55 fc	 mov	 edx, DWORD PTR _this$[ebp]
  00595	da 8a 84 00 00
	00		 fimul	 DWORD PTR [edx+132]
  0059b	8b 45 fc	 mov	 eax, DWORD PTR _this$[ebp]
  0059e	da 70 68	 fidiv	 DWORD PTR [eax+104]
  005a1	dc 05 00 00 00
	00		 fadd	 QWORD PTR __real@3fe0000000000000
  005a7	e8 00 00 00 00	 call	 __ftol2
  005ac	8b 4d fc	 mov	 ecx, DWORD PTR _this$[ebp]
  005af	89 41 54	 mov	 DWORD PTR [ecx+84], eax

; 156  : 
; 157  : 
; 158  : 	DynamicStat(set_Normal);

  005b2	6a 00		 push	 0
  005b4	8b 4d fc	 mov	 ecx, DWORD PTR _this$[ebp]
  005b7	e8 00 00 00 00	 call	 ?DynamicStat@CColorSlide@@IAEXW4ENUM_SLIDERSTATE@@@Z ; CColorSlide::DynamicStat

; 159  : 	//::SendMessage(GetParent()->GetSafeHwnd(),WM_HSCROLL,0,(LPARAM)this->m_hWnd);
; 160  : 	if( NULL != mp_slideEventListerner)

  005bc	8b 55 fc	 mov	 edx, DWORD PTR _this$[ebp]
  005bf	83 ba 88 00 00
	00 00		 cmp	 DWORD PTR [edx+136], 0
  005c6	74 24		 je	 SHORT $L187585

; 161  : 	{
; 162  : 		this->mp_slideEventListerner->OnCliekSlide(this);

  005c8	8b f4		 mov	 esi, esp
  005ca	8b 45 fc	 mov	 eax, DWORD PTR _this$[ebp]
  005cd	50		 push	 eax
  005ce	8b 4d fc	 mov	 ecx, DWORD PTR _this$[ebp]
  005d1	8b 91 88 00 00
	00		 mov	 edx, DWORD PTR [ecx+136]
  005d7	8b 45 fc	 mov	 eax, DWORD PTR _this$[ebp]
  005da	8b 88 88 00 00
	00		 mov	 ecx, DWORD PTR [eax+136]
  005e0	8b 12		 mov	 edx, DWORD PTR [edx]
  005e2	ff 52 04	 call	 DWORD PTR [edx+4]
  005e5	3b f4		 cmp	 esi, esp
  005e7	e8 00 00 00 00	 call	 __RTC_CheckEsp
$L187585:

; 163  : 	}
; 164  : 
; 165  : 	return CSliderCtrl::OnLButtonUp(nFlags, point);

  005ec	8b 45 10	 mov	 eax, DWORD PTR _point$[ebp+4]
  005ef	50		 push	 eax
  005f0	8b 4d 0c	 mov	 ecx, DWORD PTR _point$[ebp]
  005f3	51		 push	 ecx
  005f4	8b 55 08	 mov	 edx, DWORD PTR _nFlags$[ebp]
  005f7	52		 push	 edx
  005f8	8b 4d fc	 mov	 ecx, DWORD PTR _this$[ebp]
  005fb	e8 00 00 00 00	 call	 ?OnLButtonUp@CWnd@@IAEXIVCPoint@@@Z ; CWnd::OnLButtonUp
$L187575:

; 166  : }

  00600	5e		 pop	 esi
  00601	83 c4 04	 add	 esp, 4
  00604	3b ec		 cmp	 ebp, esp
  00606	e8 00 00 00 00	 call	 __RTC_CheckEsp
  0060b	8b e5		 mov	 esp, ebp
  0060d	5d		 pop	 ebp
  0060e	c2 0c 00	 ret	 12			; 0000000cH
?OnLButtonUp@CColorSlide@@IAEXIVCPoint@@@Z ENDP		; CColorSlide::OnLButtonUp
_TEXT	ENDS
EXTRN	__imp__SendMessageA@16:NEAR
EXTRN	?OnMouseMove@CWnd@@IAEXIVCPoint@@@Z:NEAR	; CWnd::OnMouseMove
EXTRN	?GetParent@CWnd@@QBEPAV1@XZ:NEAR		; CWnd::GetParent
; Function compile flags: /Odt /RTCsu
_TEXT	SEGMENT
_this$ = -4						; size = 4
_nFlags$ = 8						; size = 4
_point$ = 12						; size = 8
?OnMouseMove@CColorSlide@@IAEXIVCPoint@@@Z PROC NEAR	; CColorSlide::OnMouseMove
; _this$ = ecx

; 169  : {

  00620	55		 push	 ebp
  00621	8b ec		 mov	 ebp, esp
  00623	51		 push	 ecx
  00624	56		 push	 esi
  00625	c7 45 fc cc cc
	cc cc		 mov	 DWORD PTR [ebp-4], -858993460 ; ccccccccH
  0062c	89 4d fc	 mov	 DWORD PTR _this$[ebp], ecx

; 170  : 	if( m_SlideType == PERCENT_SLIDE )

  0062f	8b 45 fc	 mov	 eax, DWORD PTR _this$[ebp]
  00632	83 b8 80 00 00
	00 00		 cmp	 DWORD PTR [eax+128], 0
  00639	75 19		 jne	 SHORT $L187591

; 171  : 		return CSliderCtrl::OnMouseMove(nFlags, point);

  0063b	8b 4d 10	 mov	 ecx, DWORD PTR _point$[ebp+4]
  0063e	51		 push	 ecx
  0063f	8b 55 0c	 mov	 edx, DWORD PTR _point$[ebp]
  00642	52		 push	 edx
  00643	8b 45 08	 mov	 eax, DWORD PTR _nFlags$[ebp]
  00646	50		 push	 eax
  00647	8b 4d fc	 mov	 ecx, DWORD PTR _this$[ebp]
  0064a	e8 00 00 00 00	 call	 ?OnMouseMove@CWnd@@IAEXIVCPoint@@@Z ; CWnd::OnMouseMove
  0064f	e9 ec 00 00 00	 jmp	 $L187590
$L187591:

; 172  : 	if (m_bButtonDown)

  00654	8b 4d fc	 mov	 ecx, DWORD PTR _this$[ebp]
  00657	83 79 78 00	 cmp	 DWORD PTR [ecx+120], 0
  0065b	0f 84 cb 00 00
	00		 je	 $L187592

; 173  : 	{
; 174  : 		if (nFlags == MK_LBUTTON)

  00661	83 7d 08 01	 cmp	 DWORD PTR _nFlags$[ebp], 1
  00665	0f 85 c1 00 00
	00		 jne	 $L187592

; 175  : 		{
; 176  : 			m_iStatePosX = point.x;

  0066b	8b 55 fc	 mov	 edx, DWORD PTR _this$[ebp]
  0066e	8b 45 0c	 mov	 eax, DWORD PTR _point$[ebp]
  00671	89 82 84 00 00
	00		 mov	 DWORD PTR [edx+132], eax

; 177  : 
; 178  : 			if (m_iStatePosX < TRACKBAR_INTERVAL) m_iStatePosX = 0;

  00677	8b 4d fc	 mov	 ecx, DWORD PTR _this$[ebp]
  0067a	83 b9 84 00 00
	00 04		 cmp	 DWORD PTR [ecx+132], 4
  00681	7d 0f		 jge	 SHORT $L187594
  00683	8b 55 fc	 mov	 edx, DWORD PTR _this$[ebp]
  00686	c7 82 84 00 00
	00 00 00 00 00	 mov	 DWORD PTR [edx+132], 0

; 179  : 			else if (m_iStatePosX > m_nWidth-2*TRACKBAR_INTERVAL ) m_iStatePosX = m_nWidth-2*TRACKBAR_INTERVAL ;

  00690	eb 3d		 jmp	 SHORT $L187595
$L187594:
  00692	8b 45 fc	 mov	 eax, DWORD PTR _this$[ebp]
  00695	8b 48 60	 mov	 ecx, DWORD PTR [eax+96]
  00698	83 e9 08	 sub	 ecx, 8
  0069b	8b 55 fc	 mov	 edx, DWORD PTR _this$[ebp]
  0069e	39 8a 84 00 00
	00		 cmp	 DWORD PTR [edx+132], ecx
  006a4	7e 14		 jle	 SHORT $L187596
  006a6	8b 45 fc	 mov	 eax, DWORD PTR _this$[ebp]
  006a9	8b 48 60	 mov	 ecx, DWORD PTR [eax+96]
  006ac	83 e9 08	 sub	 ecx, 8
  006af	8b 55 fc	 mov	 edx, DWORD PTR _this$[ebp]
  006b2	89 8a 84 00 00
	00		 mov	 DWORD PTR [edx+132], ecx

; 180  : 			else

  006b8	eb 15		 jmp	 SHORT $L187595
$L187596:

; 181  : 			{
; 182  : 				m_iStatePosX -= TRACKBAR_INTERVAL;

  006ba	8b 45 fc	 mov	 eax, DWORD PTR _this$[ebp]
  006bd	8b 88 84 00 00
	00		 mov	 ecx, DWORD PTR [eax+132]
  006c3	83 e9 04	 sub	 ecx, 4
  006c6	8b 55 fc	 mov	 edx, DWORD PTR _this$[ebp]
  006c9	89 8a 84 00 00
	00		 mov	 DWORD PTR [edx+132], ecx
$L187595:

; 183  : 			}
; 184  : 
; 185  : 			FPosition =  (int)( FMaxValue * (float)(m_iStatePosX)/(float)(m_nWidthPlay) + 0.5 );

  006cf	8b 45 fc	 mov	 eax, DWORD PTR _this$[ebp]
  006d2	db 40 58	 fild	 DWORD PTR [eax+88]
  006d5	8b 4d fc	 mov	 ecx, DWORD PTR _this$[ebp]
  006d8	da 89 84 00 00
	00		 fimul	 DWORD PTR [ecx+132]
  006de	8b 55 fc	 mov	 edx, DWORD PTR _this$[ebp]
  006e1	da 72 68	 fidiv	 DWORD PTR [edx+104]
  006e4	dc 05 00 00 00
	00		 fadd	 QWORD PTR __real@3fe0000000000000
  006ea	e8 00 00 00 00	 call	 __ftol2
  006ef	8b 4d fc	 mov	 ecx, DWORD PTR _this$[ebp]
  006f2	89 41 54	 mov	 DWORD PTR [ecx+84], eax

; 186  : 			DynamicStat(set_Down);

  006f5	6a 02		 push	 2
  006f7	8b 4d fc	 mov	 ecx, DWORD PTR _this$[ebp]
  006fa	e8 00 00 00 00	 call	 ?DynamicStat@CColorSlide@@IAEXW4ENUM_SLIDERSTATE@@@Z ; CColorSlide::DynamicStat

; 187  : 			::SendMessage(GetParent()->GetSafeHwnd(),WM_HSCROLL,0,(LPARAM)this->m_hWnd);

  006ff	8b f4		 mov	 esi, esp
  00701	8b 55 fc	 mov	 edx, DWORD PTR _this$[ebp]
  00704	8b 42 20	 mov	 eax, DWORD PTR [edx+32]
  00707	50		 push	 eax
  00708	6a 00		 push	 0
  0070a	68 14 01 00 00	 push	 276			; 00000114H
  0070f	8b 4d fc	 mov	 ecx, DWORD PTR _this$[ebp]
  00712	e8 00 00 00 00	 call	 ?GetParent@CWnd@@QBEPAV1@XZ ; CWnd::GetParent
  00717	8b c8		 mov	 ecx, eax
  00719	e8 00 00 00 00	 call	 ?GetSafeHwnd@CWnd@@QBEPAUHWND__@@XZ ; CWnd::GetSafeHwnd
  0071e	50		 push	 eax
  0071f	ff 15 00 00 00
	00		 call	 DWORD PTR __imp__SendMessageA@16
  00725	3b f4		 cmp	 esi, esp
  00727	e8 00 00 00 00	 call	 __RTC_CheckEsp
$L187592:

; 188  : 		}
; 189  : 	}
; 190  : 	return CSliderCtrl::OnMouseMove(nFlags, point);

  0072c	8b 4d 10	 mov	 ecx, DWORD PTR _point$[ebp+4]
  0072f	51		 push	 ecx
  00730	8b 55 0c	 mov	 edx, DWORD PTR _point$[ebp]
  00733	52		 push	 edx
  00734	8b 45 08	 mov	 eax, DWORD PTR _nFlags$[ebp]
  00737	50		 push	 eax
  00738	8b 4d fc	 mov	 ecx, DWORD PTR _this$[ebp]
  0073b	e8 00 00 00 00	 call	 ?OnMouseMove@CWnd@@IAEXIVCPoint@@@Z ; CWnd::OnMouseMove
$L187590:

; 191  : }

  00740	5e		 pop	 esi
  00741	83 c4 04	 add	 esp, 4
  00744	3b ec		 cmp	 ebp, esp
  00746	e8 00 00 00 00	 call	 __RTC_CheckEsp
  0074b	8b e5		 mov	 esp, ebp
  0074d	5d		 pop	 ebp
  0074e	c2 0c 00	 ret	 12			; 0000000cH
?OnMouseMove@CColorSlide@@IAEXIVCPoint@@@Z ENDP		; CColorSlide::OnMouseMove
_TEXT	ENDS
PUBLIC	??0CMemDC@@QAE@PAVCDC@@ABVCRect@@@Z		; CMemDC::CMemDC
PUBLIC	??1CMemDC@@UAE@XZ				; CMemDC::~CMemDC
PUBLIC	?DrawSlider@CColorSlide@@IAEXW4ENUM_SLIDERSTATE@@VCRect@@PAUHDC__@@@Z ; CColorSlide::DrawSlider
PUBLIC	?PaintBK@CColorSlide@@IAEXVCRect@@PAUHDC__@@@Z	; CColorSlide::PaintBK
EXTRN	__imp__BitBlt@36:NEAR
EXTRN	??0CRect@@QAE@XZ:NEAR				; CRect::CRect
EXTRN	??0CRect@@QAE@HHHH@Z:NEAR			; CRect::CRect
EXTRN	?Width@CRect@@QBEHXZ:NEAR			; CRect::Width
EXTRN	?Height@CRect@@QBEHXZ:NEAR			; CRect::Height
EXTRN	??BCRect@@QAEPAUtagRECT@@XZ:NEAR		; CRect::operator tagRECT *
EXTRN	?GetSafeHdc@CDC@@QBEPAUHDC__@@XZ:NEAR		; CDC::GetSafeHdc
EXTRN	?GetClientRect@CWnd@@QBEXPAUtagRECT@@@Z:NEAR	; CWnd::GetClientRect
EXTRN	?GetWindowDC@CWnd@@QAEPAVCDC@@XZ:NEAR		; CWnd::GetWindowDC
EXTRN	?ReleaseDC@CWnd@@QAEHPAVCDC@@@Z:NEAR		; CWnd::ReleaseDC
EXTRN	__except_list:DWORD
EXTRN	@_RTC_CheckStackVars@8:NEAR
EXTRN	___CxxFrameHandler:NEAR
xdata$x	SEGMENT
$T188241 DD	0ffffffffH
	DD	FLAT:$L188229
$T188233 DD	019930520H
	DD	01H
	DD	FLAT:$T188241
	DD	2 DUP(00H)
	DD	2 DUP(00H)
; Function compile flags: /Odt /RTCsu
xdata$x	ENDS
_TEXT	SEGMENT
$T188228 = -112						; size = 16
_TempDC$ = -92						; size = 44
_lrcClientRect$ = -40					; size = 16
_pDC$ = -20						; size = 4
_this$ = -16						; size = 4
__$EHRec$ = -12						; size = 12
_aState$ = 8						; size = 4
?DynamicStat@CColorSlide@@IAEXW4ENUM_SLIDERSTATE@@@Z PROC NEAR ; CColorSlide::DynamicStat
; _this$ = ecx

; 194  : {

  00760	55		 push	 ebp
  00761	8b ec		 mov	 ebp, esp
  00763	6a ff		 push	 -1
  00765	68 00 00 00 00	 push	 __ehhandler$?DynamicStat@CColorSlide@@IAEXW4ENUM_SLIDERSTATE@@@Z
  0076a	64 a1 00 00 00
	00		 mov	 eax, DWORD PTR fs:__except_list
  00770	50		 push	 eax
  00771	64 89 25 00 00
	00 00		 mov	 DWORD PTR fs:__except_list, esp
  00778	83 ec 64	 sub	 esp, 100		; 00000064H
  0077b	56		 push	 esi
  0077c	57		 push	 edi
  0077d	51		 push	 ecx
  0077e	8d 7d 90	 lea	 edi, DWORD PTR [ebp-112]
  00781	b9 19 00 00 00	 mov	 ecx, 25			; 00000019H
  00786	b8 cc cc cc cc	 mov	 eax, -858993460		; ccccccccH
  0078b	f3 ab		 rep stosd
  0078d	59		 pop	 ecx
  0078e	89 4d f0	 mov	 DWORD PTR _this$[ebp], ecx

; 195  : 	if (m_nWidth <= 0)

  00791	8b 45 f0	 mov	 eax, DWORD PTR _this$[ebp]
  00794	83 78 60 00	 cmp	 DWORD PTR [eax+96], 0
  00798	7f 05		 jg	 SHORT $L187606

; 196  : 	{
; 197  : 		return;

  0079a	e9 4e 01 00 00	 jmp	 $L187605
$L187606:

; 198  : 	}
; 199  : 	CDC* pDC =GetWindowDC();	

  0079f	8b 4d f0	 mov	 ecx, DWORD PTR _this$[ebp]
  007a2	e8 00 00 00 00	 call	 ?GetWindowDC@CWnd@@QAEPAVCDC@@XZ ; CWnd::GetWindowDC
  007a7	89 45 ec	 mov	 DWORD PTR _pDC$[ebp], eax

; 200  : 	if (pDC == NULL)

  007aa	83 7d ec 00	 cmp	 DWORD PTR _pDC$[ebp], 0
  007ae	75 05		 jne	 SHORT $L187608

; 201  : 	{
; 202  : 		return;

  007b0	e9 38 01 00 00	 jmp	 $L187605
$L187608:

; 203  : 	}
; 204  : 	pDC->SetBkColor(TRANSPARENT);

  007b5	8b f4		 mov	 esi, esp
  007b7	6a 01		 push	 1
  007b9	8b 4d ec	 mov	 ecx, DWORD PTR _pDC$[ebp]
  007bc	8b 11		 mov	 edx, DWORD PTR [ecx]
  007be	8b 4d ec	 mov	 ecx, DWORD PTR _pDC$[ebp]
  007c1	ff 52 34	 call	 DWORD PTR [edx+52]
  007c4	3b f4		 cmp	 esi, esp
  007c6	e8 00 00 00 00	 call	 __RTC_CheckEsp

; 205  : 	CRect lrcClientRect;

  007cb	8d 4d d8	 lea	 ecx, DWORD PTR _lrcClientRect$[ebp]
  007ce	e8 00 00 00 00	 call	 ??0CRect@@QAE@XZ	; CRect::CRect

; 206  : 	GetClientRect(lrcClientRect);

  007d3	8d 4d d8	 lea	 ecx, DWORD PTR _lrcClientRect$[ebp]
  007d6	e8 00 00 00 00	 call	 ??BCRect@@QAEPAUtagRECT@@XZ ; CRect::operator tagRECT *
  007db	50		 push	 eax
  007dc	8b 4d f0	 mov	 ecx, DWORD PTR _this$[ebp]
  007df	e8 00 00 00 00	 call	 ?GetClientRect@CWnd@@QBEXPAUtagRECT@@@Z ; CWnd::GetClientRect

; 207  : 	m_nWidth = lrcClientRect.Width();

  007e4	8d 4d d8	 lea	 ecx, DWORD PTR _lrcClientRect$[ebp]
  007e7	e8 00 00 00 00	 call	 ?Width@CRect@@QBEHXZ	; CRect::Width
  007ec	8b 4d f0	 mov	 ecx, DWORD PTR _this$[ebp]
  007ef	89 41 60	 mov	 DWORD PTR [ecx+96], eax

; 208  : 	lrcClientRect.bottom;
; 209  : 	m_nHeight = lrcClientRect.Height();

  007f2	8d 4d d8	 lea	 ecx, DWORD PTR _lrcClientRect$[ebp]
  007f5	e8 00 00 00 00	 call	 ?Height@CRect@@QBEHXZ	; CRect::Height
  007fa	8b 55 f0	 mov	 edx, DWORD PTR _this$[ebp]
  007fd	89 42 64	 mov	 DWORD PTR [edx+100], eax

; 210  : 
; 211  : 	CMemDC TempDC(pDC, CRect(lrcClientRect.left, lrcClientRect.top,lrcClientRect.right, lrcClientRect.bottom));

  00800	8b 45 e4	 mov	 eax, DWORD PTR _lrcClientRect$[ebp+12]
  00803	50		 push	 eax
  00804	8b 4d e0	 mov	 ecx, DWORD PTR _lrcClientRect$[ebp+8]
  00807	51		 push	 ecx
  00808	8b 55 dc	 mov	 edx, DWORD PTR _lrcClientRect$[ebp+4]
  0080b	52		 push	 edx
  0080c	8b 45 d8	 mov	 eax, DWORD PTR _lrcClientRect$[ebp]
  0080f	50		 push	 eax
  00810	8d 4d 90	 lea	 ecx, DWORD PTR $T188228[ebp]
  00813	e8 00 00 00 00	 call	 ??0CRect@@QAE@HHHH@Z	; CRect::CRect
  00818	50		 push	 eax
  00819	8b 4d ec	 mov	 ecx, DWORD PTR _pDC$[ebp]
  0081c	51		 push	 ecx
  0081d	8d 4d a4	 lea	 ecx, DWORD PTR _TempDC$[ebp]
  00820	e8 00 00 00 00	 call	 ??0CMemDC@@QAE@PAVCDC@@ABVCRect@@@Z ; CMemDC::CMemDC
  00825	c7 45 fc 00 00
	00 00		 mov	 DWORD PTR __$EHRec$[ebp+8], 0

; 212  : 	PaintBK(lrcClientRect,TempDC.GetSafeHdc());

  0082c	8d 4d a4	 lea	 ecx, DWORD PTR _TempDC$[ebp]
  0082f	e8 00 00 00 00	 call	 ?GetSafeHdc@CDC@@QBEPAUHDC__@@XZ ; CDC::GetSafeHdc
  00834	50		 push	 eax
  00835	83 ec 10	 sub	 esp, 16			; 00000010H
  00838	8b d4		 mov	 edx, esp
  0083a	8b 45 d8	 mov	 eax, DWORD PTR _lrcClientRect$[ebp]
  0083d	89 02		 mov	 DWORD PTR [edx], eax
  0083f	8b 4d dc	 mov	 ecx, DWORD PTR _lrcClientRect$[ebp+4]
  00842	89 4a 04	 mov	 DWORD PTR [edx+4], ecx
  00845	8b 45 e0	 mov	 eax, DWORD PTR _lrcClientRect$[ebp+8]
  00848	89 42 08	 mov	 DWORD PTR [edx+8], eax
  0084b	8b 4d e4	 mov	 ecx, DWORD PTR _lrcClientRect$[ebp+12]
  0084e	89 4a 0c	 mov	 DWORD PTR [edx+12], ecx
  00851	8b 4d f0	 mov	 ecx, DWORD PTR _this$[ebp]
  00854	e8 00 00 00 00	 call	 ?PaintBK@CColorSlide@@IAEXVCRect@@PAUHDC__@@@Z ; CColorSlide::PaintBK

; 213  : 	if( m_SlideType != PERCENT_SLIDE ) 

  00859	8b 55 f0	 mov	 edx, DWORD PTR _this$[ebp]
  0085c	83 ba 80 00 00
	00 00		 cmp	 DWORD PTR [edx+128], 0
  00863	74 31		 je	 SHORT $L187612

; 214  : 	DrawSlider(aState,lrcClientRect,TempDC.GetSafeHdc());

  00865	8d 4d a4	 lea	 ecx, DWORD PTR _TempDC$[ebp]
  00868	e8 00 00 00 00	 call	 ?GetSafeHdc@CDC@@QBEPAUHDC__@@XZ ; CDC::GetSafeHdc
  0086d	50		 push	 eax
  0086e	83 ec 10	 sub	 esp, 16			; 00000010H
  00871	8b c4		 mov	 eax, esp
  00873	8b 4d d8	 mov	 ecx, DWORD PTR _lrcClientRect$[ebp]
  00876	89 08		 mov	 DWORD PTR [eax], ecx
  00878	8b 55 dc	 mov	 edx, DWORD PTR _lrcClientRect$[ebp+4]
  0087b	89 50 04	 mov	 DWORD PTR [eax+4], edx
  0087e	8b 4d e0	 mov	 ecx, DWORD PTR _lrcClientRect$[ebp+8]
  00881	89 48 08	 mov	 DWORD PTR [eax+8], ecx
  00884	8b 55 e4	 mov	 edx, DWORD PTR _lrcClientRect$[ebp+12]
  00887	89 50 0c	 mov	 DWORD PTR [eax+12], edx
  0088a	8b 45 08	 mov	 eax, DWORD PTR _aState$[ebp]
  0088d	50		 push	 eax
  0088e	8b 4d f0	 mov	 ecx, DWORD PTR _this$[ebp]
  00891	e8 00 00 00 00	 call	 ?DrawSlider@CColorSlide@@IAEXW4ENUM_SLIDERSTATE@@VCRect@@PAUHDC__@@@Z ; CColorSlide::DrawSlider
$L187612:

; 215  : 	BitBlt(pDC->GetSafeHdc(),0,0,m_nWidth,m_nHeight,TempDC.GetSafeHdc(),0,0,SRCCOPY);

  00896	8b f4		 mov	 esi, esp
  00898	68 20 00 cc 00	 push	 13369376		; 00cc0020H
  0089d	6a 00		 push	 0
  0089f	6a 00		 push	 0
  008a1	8d 4d a4	 lea	 ecx, DWORD PTR _TempDC$[ebp]
  008a4	e8 00 00 00 00	 call	 ?GetSafeHdc@CDC@@QBEPAUHDC__@@XZ ; CDC::GetSafeHdc
  008a9	50		 push	 eax
  008aa	8b 4d f0	 mov	 ecx, DWORD PTR _this$[ebp]
  008ad	8b 51 64	 mov	 edx, DWORD PTR [ecx+100]
  008b0	52		 push	 edx
  008b1	8b 45 f0	 mov	 eax, DWORD PTR _this$[ebp]
  008b4	8b 48 60	 mov	 ecx, DWORD PTR [eax+96]
  008b7	51		 push	 ecx
  008b8	6a 00		 push	 0
  008ba	6a 00		 push	 0
  008bc	8b 4d ec	 mov	 ecx, DWORD PTR _pDC$[ebp]
  008bf	e8 00 00 00 00	 call	 ?GetSafeHdc@CDC@@QBEPAUHDC__@@XZ ; CDC::GetSafeHdc
  008c4	50		 push	 eax
  008c5	ff 15 00 00 00
	00		 call	 DWORD PTR __imp__BitBlt@36
  008cb	3b f4		 cmp	 esi, esp
  008cd	e8 00 00 00 00	 call	 __RTC_CheckEsp

; 216  : 	ReleaseDC(pDC);

  008d2	8b 55 ec	 mov	 edx, DWORD PTR _pDC$[ebp]
  008d5	52		 push	 edx
  008d6	8b 4d f0	 mov	 ecx, DWORD PTR _this$[ebp]
  008d9	e8 00 00 00 00	 call	 ?ReleaseDC@CWnd@@QAEHPAVCDC@@@Z ; CWnd::ReleaseDC

; 217  : }

  008de	c7 45 fc ff ff
	ff ff		 mov	 DWORD PTR __$EHRec$[ebp+8], -1
  008e5	8d 4d a4	 lea	 ecx, DWORD PTR _TempDC$[ebp]
  008e8	e8 00 00 00 00	 call	 ??1CMemDC@@UAE@XZ	; CMemDC::~CMemDC
$L187605:
  008ed	52		 push	 edx
  008ee	8b cd		 mov	 ecx, ebp
  008f0	50		 push	 eax
  008f1	8d 15 00 00 00
	00		 lea	 edx, DWORD PTR $L188239
  008f7	e8 00 00 00 00	 call	 @_RTC_CheckStackVars@8
  008fc	58		 pop	 eax
  008fd	5a		 pop	 edx
  008fe	8b 4d f4	 mov	 ecx, DWORD PTR __$EHRec$[ebp]
  00901	64 89 0d 00 00
	00 00		 mov	 DWORD PTR fs:__except_list, ecx
  00908	5f		 pop	 edi
  00909	5e		 pop	 esi
  0090a	83 c4 70	 add	 esp, 112		; 00000070H
  0090d	3b ec		 cmp	 ebp, esp
  0090f	e8 00 00 00 00	 call	 __RTC_CheckEsp
  00914	8b e5		 mov	 esp, ebp
  00916	5d		 pop	 ebp
  00917	c2 04 00	 ret	 4
$L188239:
  0091a	02 00 00 00	 DD	 2
  0091e	00 00 00 00	 DD	 $L188238
$L188238:
  00922	d8 ff ff ff	 DD	 -40			; ffffffd8H
  00926	10 00 00 00	 DD	 16			; 00000010H
  0092a	00 00 00 00	 DD	 $L188234
  0092e	a4 ff ff ff	 DD	 -92			; ffffffa4H
  00932	2c 00 00 00	 DD	 44			; 0000002cH
  00936	00 00 00 00	 DD	 $L188235
$L188235:
  0093a	54		 DB	 84			; 00000054H
  0093b	65		 DB	 101			; 00000065H
  0093c	6d		 DB	 109			; 0000006dH
  0093d	70		 DB	 112			; 00000070H
  0093e	44		 DB	 68			; 00000044H
  0093f	43		 DB	 67			; 00000043H
  00940	00		 DB	 0
$L188234:
  00941	6c		 DB	 108			; 0000006cH
  00942	72		 DB	 114			; 00000072H
  00943	63		 DB	 99			; 00000063H
  00944	43		 DB	 67			; 00000043H
  00945	6c		 DB	 108			; 0000006cH
  00946	69		 DB	 105			; 00000069H
  00947	65		 DB	 101			; 00000065H
  00948	6e		 DB	 110			; 0000006eH
  00949	74		 DB	 116			; 00000074H
  0094a	52		 DB	 82			; 00000052H
  0094b	65		 DB	 101			; 00000065H
  0094c	63		 DB	 99			; 00000063H
  0094d	74		 DB	 116			; 00000074H
  0094e	00		 DB	 0
_TEXT	ENDS
text$x	SEGMENT
$L188229:
  00000	8d 4d a4	 lea	 ecx, DWORD PTR _TempDC$[ebp]
  00003	e9 00 00 00 00	 jmp	 ??1CMemDC@@UAE@XZ	; CMemDC::~CMemDC
__ehhandler$?DynamicStat@CColorSlide@@IAEXW4ENUM_SLIDERSTATE@@@Z:
  00008	b8 00 00 00 00	 mov	 eax, OFFSET FLAT:$T188233
  0000d	e9 00 00 00 00	 jmp	 ___CxxFrameHandler
text$x	ENDS
?DynamicStat@CColorSlide@@IAEXW4ENUM_SLIDERSTATE@@@Z ENDP ; CColorSlide::DynamicStat
EXTRN	?gBitMapOperate@@3VCBitMapOperate@@A:BYTE	; gBitMapOperate
EXTRN	?DrawArrow@CBitMapOperate@@UAEXPAUHDC__@@KHHHHHHH@Z:NEAR ; CBitMapOperate::DrawArrow
; Function compile flags: /Odt /RTCsu
_TEXT	SEGMENT
_lrRect$ = -24						; size = 16
_this$ = -4						; size = 4
_aState$ = 8						; size = 4
_aRect$ = 12						; size = 16
_hMemDC$ = 28						; size = 4
?DrawSlider@CColorSlide@@IAEXW4ENUM_SLIDERSTATE@@VCRect@@PAUHDC__@@@Z PROC NEAR ; CColorSlide::DrawSlider
; _this$ = ecx

; 220  : {

  00950	55		 push	 ebp
  00951	8b ec		 mov	 ebp, esp
  00953	83 ec 1c	 sub	 esp, 28			; 0000001cH
  00956	b8 cc cc cc cc	 mov	 eax, -858993460		; ccccccccH
  0095b	89 45 e4	 mov	 DWORD PTR [ebp-28], eax
  0095e	89 45 e8	 mov	 DWORD PTR [ebp-24], eax
  00961	89 45 ec	 mov	 DWORD PTR [ebp-20], eax
  00964	89 45 f0	 mov	 DWORD PTR [ebp-16], eax
  00967	89 45 f4	 mov	 DWORD PTR [ebp-12], eax
  0096a	89 45 f8	 mov	 DWORD PTR [ebp-8], eax
  0096d	89 45 fc	 mov	 DWORD PTR [ebp-4], eax
  00970	89 4d fc	 mov	 DWORD PTR _this$[ebp], ecx

; 221  : 
; 222  : 	CRect lrRect = aRect;

  00973	8b 45 0c	 mov	 eax, DWORD PTR _aRect$[ebp]
  00976	89 45 e8	 mov	 DWORD PTR _lrRect$[ebp], eax
  00979	8b 4d 10	 mov	 ecx, DWORD PTR _aRect$[ebp+4]
  0097c	89 4d ec	 mov	 DWORD PTR _lrRect$[ebp+4], ecx
  0097f	8b 55 14	 mov	 edx, DWORD PTR _aRect$[ebp+8]
  00982	89 55 f0	 mov	 DWORD PTR _lrRect$[ebp+8], edx
  00985	8b 45 18	 mov	 eax, DWORD PTR _aRect$[ebp+12]
  00988	89 45 f4	 mov	 DWORD PTR _lrRect$[ebp+12], eax

; 223  : 	lrRect.top = aRect.top + 9;

  0098b	8b 4d 10	 mov	 ecx, DWORD PTR _aRect$[ebp+4]
  0098e	83 c1 09	 add	 ecx, 9
  00991	89 4d ec	 mov	 DWORD PTR _lrRect$[ebp+4], ecx

; 224  : 	lrRect.bottom = lrRect.top + 7;

  00994	8b 55 ec	 mov	 edx, DWORD PTR _lrRect$[ebp+4]
  00997	83 c2 07	 add	 edx, 7
  0099a	89 55 f4	 mov	 DWORD PTR _lrRect$[ebp+12], edx

; 225  : 	lrRect.left = m_iStatePosX+TRACKBAR_INTERVAL-1;

  0099d	8b 45 fc	 mov	 eax, DWORD PTR _this$[ebp]
  009a0	8b 88 84 00 00
	00		 mov	 ecx, DWORD PTR [eax+132]
  009a6	83 c1 03	 add	 ecx, 3
  009a9	89 4d e8	 mov	 DWORD PTR _lrRect$[ebp], ecx

; 226  : 	if( m_iStatePosX == 0)

  009ac	8b 55 fc	 mov	 edx, DWORD PTR _this$[ebp]
  009af	83 ba 84 00 00
	00 00		 cmp	 DWORD PTR [edx+132], 0
  009b6	75 0f		 jne	 SHORT $L187621

; 227  : 	{
; 228  : 		lrRect.left = m_iStatePosX+TRACKBAR_INTERVAL;

  009b8	8b 45 fc	 mov	 eax, DWORD PTR _this$[ebp]
  009bb	8b 88 84 00 00
	00		 mov	 ecx, DWORD PTR [eax+132]
  009c1	83 c1 04	 add	 ecx, 4
  009c4	89 4d e8	 mov	 DWORD PTR _lrRect$[ebp], ecx
$L187621:

; 229  : 	}
; 230  : 	if( lrRect.left< 0)

  009c7	83 7d e8 00	 cmp	 DWORD PTR _lrRect$[ebp], 0
  009cb	7d 07		 jge	 SHORT $L187622

; 231  : 	{
; 232  : 		lrRect.left = 0;

  009cd	c7 45 e8 00 00
	00 00		 mov	 DWORD PTR _lrRect$[ebp], 0
$L187622:

; 233  : 	}
; 234  : 	lrRect.right = lrRect.left + 4;

  009d4	8b 55 e8	 mov	 edx, DWORD PTR _lrRect$[ebp]
  009d7	83 c2 04	 add	 edx, 4
  009da	89 55 f0	 mov	 DWORD PTR _lrRect$[ebp+8], edx

; 235  : 	
; 236  : 	gBitMapOperate.DrawArrow(hMemDC, RGB(100,100,100),lrRect.left,lrRect.top,lrRect.left-4,lrRect.bottom,lrRect.right,lrRect.bottom,true);

  009dd	6a 01		 push	 1
  009df	8b 45 f4	 mov	 eax, DWORD PTR _lrRect$[ebp+12]
  009e2	50		 push	 eax
  009e3	8b 4d f0	 mov	 ecx, DWORD PTR _lrRect$[ebp+8]
  009e6	51		 push	 ecx
  009e7	8b 55 f4	 mov	 edx, DWORD PTR _lrRect$[ebp+12]
  009ea	52		 push	 edx
  009eb	8b 45 e8	 mov	 eax, DWORD PTR _lrRect$[ebp]
  009ee	83 e8 04	 sub	 eax, 4
  009f1	50		 push	 eax
  009f2	8b 4d ec	 mov	 ecx, DWORD PTR _lrRect$[ebp+4]
  009f5	51		 push	 ecx
  009f6	8b 55 e8	 mov	 edx, DWORD PTR _lrRect$[ebp]
  009f9	52		 push	 edx
  009fa	68 64 64 64 00	 push	 6579300			; 00646464H
  009ff	8b 45 1c	 mov	 eax, DWORD PTR _hMemDC$[ebp]
  00a02	50		 push	 eax
  00a03	b9 00 00 00 00	 mov	 ecx, OFFSET FLAT:?gBitMapOperate@@3VCBitMapOperate@@A
  00a08	e8 00 00 00 00	 call	 ?DrawArrow@CBitMapOperate@@UAEXPAUHDC__@@KHHHHHHH@Z ; CBitMapOperate::DrawArrow

; 237  : }

  00a0d	52		 push	 edx
  00a0e	8b cd		 mov	 ecx, ebp
  00a10	50		 push	 eax
  00a11	8d 15 00 00 00
	00		 lea	 edx, DWORD PTR $L188246
  00a17	e8 00 00 00 00	 call	 @_RTC_CheckStackVars@8
  00a1c	58		 pop	 eax
  00a1d	5a		 pop	 edx
  00a1e	83 c4 1c	 add	 esp, 28			; 0000001cH
  00a21	3b ec		 cmp	 ebp, esp
  00a23	e8 00 00 00 00	 call	 __RTC_CheckEsp
  00a28	8b e5		 mov	 esp, ebp
  00a2a	5d		 pop	 ebp
  00a2b	c2 18 00	 ret	 24			; 00000018H
$L188246:
  00a2e	01 00 00 00	 DD	 1
  00a32	00 00 00 00	 DD	 $L188245
$L188245:
  00a36	e8 ff ff ff	 DD	 -24			; ffffffe8H
  00a3a	10 00 00 00	 DD	 16			; 00000010H
  00a3e	00 00 00 00	 DD	 $L188244
$L188244:
  00a42	6c		 DB	 108			; 0000006cH
  00a43	72		 DB	 114			; 00000072H
  00a44	52		 DB	 82			; 00000052H
  00a45	65		 DB	 101			; 00000065H
  00a46	63		 DB	 99			; 00000063H
  00a47	74		 DB	 116			; 00000074H
  00a48	00		 DB	 0
?DrawSlider@CColorSlide@@IAEXW4ENUM_SLIDERSTATE@@VCRect@@PAUHDC__@@@Z ENDP ; CColorSlide::DrawSlider
_TEXT	ENDS
EXTRN	?getColor@CWndColorMgr@@QAEPAUCtrColBase@@I@Z:NEAR ; CWndColorMgr::getColor
EXTRN	?gWndColor@@3VCWndColorMgr@@A:DWORD		; gWndColor
EXTRN	__imp__SetBkMode@8:NEAR
EXTRN	??0CBrush@@QAE@K@Z:NEAR				; CBrush::CBrush
EXTRN	??1CBrush@@UAE@XZ:NEAR				; CBrush::~CBrush
EXTRN	??0CRect@@QAE@ABUtagRECT@@@Z:NEAR		; CRect::CRect
EXTRN	__imp__GetBkColor@4:NEAR
EXTRN	?FromHandle@CDC@@SGPAV1@PAUHDC__@@@Z:NEAR	; CDC::FromHandle
EXTRN	__imp__InflateRect@12:NEAR
EXTRN	?FillRectangleHue@CBitMapOperate@@UAEXPAUHDC__@@UtagRECT@@KKW4ENUM_DrawOrientation@1@HI@Z:NEAR ; CBitMapOperate::FillRectangleHue
EXTRN	?FillRectangleLight@CBitMapOperate@@UAEXPAUHDC__@@UtagRECT@@KKIW4ENUM_DrawOrientation@1@HI@Z:NEAR ; CBitMapOperate::FillRectangleLight
EXTRN	?FillRectangleS@CBitMapOperate@@QAEXPAUHDC__@@UtagRECT@@KKIW4ENUM_DrawOrientation@1@HI@Z:NEAR ; CBitMapOperate::FillRectangleS
EXTRN	?FillRectangle@CBitMapOperate@@UAEXPAUHDC__@@UtagRECT@@KH@Z:NEAR ; CBitMapOperate::FillRectangle
EXTRN	?FillRect@CDC@@QAEXPBUtagRECT@@PAVCBrush@@@Z:NEAR ; CDC::FillRect
EXTRN	?FrameRect@CDC@@QAEXPBUtagRECT@@PAVCBrush@@@Z:NEAR ; CDC::FrameRect
xdata$x	SEGMENT
$T188268 DD	0ffffffffH
	DD	FLAT:$L188256
	DD	0ffffffffH
	DD	FLAT:$L188257
	DD	0ffffffffH
	DD	FLAT:$L188258
$T188260 DD	019930520H
	DD	03H
	DD	FLAT:$T188268
	DD	2 DUP(00H)
	DD	2 DUP(00H)
; Function compile flags: /Odt /RTCsu
xdata$x	ENDS
_TEXT	SEGMENT
tv211 = -168						; size = 4
tv214 = -164						; size = 4
tv178 = -160						; size = 4
tv209 = -156						; size = 4
tv213 = -152						; size = 4
tv159 = -148						; size = 4
tv129 = -144						; size = 4
tv207 = -140						; size = 4
tv212 = -136						; size = 4
$T188255 = -132						; size = 8
$T188252 = -124						; size = 8
$T188249 = -116						; size = 8
$T188248 = -108						; size = 16
_lrect2$187648 = -88					; size = 16
_lrect1$187646 = -64					; size = 16
_lrcTrack$ = -40					; size = 16
_lcolorBack$ = -20					; size = 4
_this$ = -16						; size = 4
__$EHRec$ = -12						; size = 12
_aRect$ = 8						; size = 16
_hMemDC$ = 24						; size = 4
?PaintBK@CColorSlide@@IAEXVCRect@@PAUHDC__@@@Z PROC NEAR ; CColorSlide::PaintBK
; _this$ = ecx

; 240  : {

  00a50	55		 push	 ebp
  00a51	8b ec		 mov	 ebp, esp
  00a53	6a ff		 push	 -1
  00a55	68 00 00 00 00	 push	 __ehhandler$?PaintBK@CColorSlide@@IAEXVCRect@@PAUHDC__@@@Z
  00a5a	64 a1 00 00 00
	00		 mov	 eax, DWORD PTR fs:__except_list
  00a60	50		 push	 eax
  00a61	64 89 25 00 00
	00 00		 mov	 DWORD PTR fs:__except_list, esp
  00a68	81 ec 9c 00 00
	00		 sub	 esp, 156		; 0000009cH
  00a6e	56		 push	 esi
  00a6f	57		 push	 edi
  00a70	51		 push	 ecx
  00a71	8d bd 58 ff ff
	ff		 lea	 edi, DWORD PTR [ebp-168]
  00a77	b9 27 00 00 00	 mov	 ecx, 39			; 00000027H
  00a7c	b8 cc cc cc cc	 mov	 eax, -858993460		; ccccccccH
  00a81	f3 ab		 rep stosd
  00a83	59		 pop	 ecx
  00a84	89 4d f0	 mov	 DWORD PTR _this$[ebp], ecx

; 241  : 	::SetBkMode(hMemDC,TRANSPARENT);

  00a87	8b f4		 mov	 esi, esp
  00a89	6a 01		 push	 1
  00a8b	8b 45 18	 mov	 eax, DWORD PTR _hMemDC$[ebp]
  00a8e	50		 push	 eax
  00a8f	ff 15 00 00 00
	00		 call	 DWORD PTR __imp__SetBkMode@8
  00a95	3b f4		 cmp	 esi, esp
  00a97	e8 00 00 00 00	 call	 __RTC_CheckEsp

; 242  : 
; 243  : 
; 244  : 
; 245  : 	COLORREF lcolorBack = ::GetBkColor(hMemDC);

  00a9c	8b f4		 mov	 esi, esp
  00a9e	8b 4d 18	 mov	 ecx, DWORD PTR _hMemDC$[ebp]
  00aa1	51		 push	 ecx
  00aa2	ff 15 00 00 00
	00		 call	 DWORD PTR __imp__GetBkColor@4
  00aa8	3b f4		 cmp	 esi, esp
  00aaa	e8 00 00 00 00	 call	 __RTC_CheckEsp
  00aaf	89 45 ec	 mov	 DWORD PTR _lcolorBack$[ebp], eax

; 246  : 	gBitMapOperate.FillRectangle(hMemDC, aRect, lcolorBack, true ) ;

  00ab2	8b 55 08	 mov	 edx, DWORD PTR _aRect$[ebp]
  00ab5	89 55 94	 mov	 DWORD PTR $T188248[ebp], edx
  00ab8	8b 45 0c	 mov	 eax, DWORD PTR _aRect$[ebp+4]
  00abb	89 45 98	 mov	 DWORD PTR $T188248[ebp+4], eax
  00abe	8b 4d 10	 mov	 ecx, DWORD PTR _aRect$[ebp+8]
  00ac1	89 4d 9c	 mov	 DWORD PTR $T188248[ebp+8], ecx
  00ac4	8b 55 14	 mov	 edx, DWORD PTR _aRect$[ebp+12]
  00ac7	89 55 a0	 mov	 DWORD PTR $T188248[ebp+12], edx
  00aca	6a 01		 push	 1
  00acc	8b 45 ec	 mov	 eax, DWORD PTR _lcolorBack$[ebp]
  00acf	50		 push	 eax
  00ad0	83 ec 10	 sub	 esp, 16			; 00000010H
  00ad3	8b cc		 mov	 ecx, esp
  00ad5	8b 55 94	 mov	 edx, DWORD PTR $T188248[ebp]
  00ad8	89 11		 mov	 DWORD PTR [ecx], edx
  00ada	8b 45 98	 mov	 eax, DWORD PTR $T188248[ebp+4]
  00add	89 41 04	 mov	 DWORD PTR [ecx+4], eax
  00ae0	8b 55 9c	 mov	 edx, DWORD PTR $T188248[ebp+8]
  00ae3	89 51 08	 mov	 DWORD PTR [ecx+8], edx
  00ae6	8b 45 a0	 mov	 eax, DWORD PTR $T188248[ebp+12]
  00ae9	89 41 0c	 mov	 DWORD PTR [ecx+12], eax
  00aec	8b 4d 18	 mov	 ecx, DWORD PTR _hMemDC$[ebp]
  00aef	51		 push	 ecx
  00af0	b9 00 00 00 00	 mov	 ecx, OFFSET FLAT:?gBitMapOperate@@3VCBitMapOperate@@A
  00af5	e8 00 00 00 00	 call	 ?FillRectangle@CBitMapOperate@@UAEXPAUHDC__@@UtagRECT@@KH@Z ; CBitMapOperate::FillRectangle

; 247  : 
; 248  : 	RECT lrcTrack     = aRect;

  00afa	8b 55 08	 mov	 edx, DWORD PTR _aRect$[ebp]
  00afd	89 55 d8	 mov	 DWORD PTR _lrcTrack$[ebp], edx
  00b00	8b 45 0c	 mov	 eax, DWORD PTR _aRect$[ebp+4]
  00b03	89 45 dc	 mov	 DWORD PTR _lrcTrack$[ebp+4], eax
  00b06	8b 4d 10	 mov	 ecx, DWORD PTR _aRect$[ebp+8]
  00b09	89 4d e0	 mov	 DWORD PTR _lrcTrack$[ebp+8], ecx
  00b0c	8b 55 14	 mov	 edx, DWORD PTR _aRect$[ebp+12]
  00b0f	89 55 e4	 mov	 DWORD PTR _lrcTrack$[ebp+12], edx

; 249  : 	lrcTrack.top     += 2;

  00b12	8b 45 dc	 mov	 eax, DWORD PTR _lrcTrack$[ebp+4]
  00b15	83 c0 02	 add	 eax, 2
  00b18	89 45 dc	 mov	 DWORD PTR _lrcTrack$[ebp+4], eax

; 250  : 	lrcTrack.bottom   = lrcTrack.top+7;

  00b1b	8b 4d dc	 mov	 ecx, DWORD PTR _lrcTrack$[ebp+4]
  00b1e	83 c1 07	 add	 ecx, 7
  00b21	89 4d e4	 mov	 DWORD PTR _lrcTrack$[ebp+12], ecx

; 251  : 	lrcTrack.left    += TRACKBAR_INTERVAL;

  00b24	8b 55 d8	 mov	 edx, DWORD PTR _lrcTrack$[ebp]
  00b27	83 c2 04	 add	 edx, 4
  00b2a	89 55 d8	 mov	 DWORD PTR _lrcTrack$[ebp], edx

; 252  : 	lrcTrack.right   -= TRACKBAR_INTERVAL;

  00b2d	8b 45 e0	 mov	 eax, DWORD PTR _lrcTrack$[ebp+8]
  00b30	83 e8 04	 sub	 eax, 4
  00b33	89 45 e0	 mov	 DWORD PTR _lrcTrack$[ebp+8], eax

; 253  : 
; 254  : 	if( (m_iStatePosX)>=0 )

  00b36	8b 4d f0	 mov	 ecx, DWORD PTR _this$[ebp]
  00b39	83 b9 84 00 00
	00 00		 cmp	 DWORD PTR [ecx+132], 0
  00b40	0f 8c ad 02 00
	00		 jl	 $L187633

; 255  : 	{
; 256  : 		CDC::FromHandle(hMemDC)->FrameRect( &lrcTrack,&CBrush( gWndColor.getColor(SLIDER_CTROL)->structColBase->colFrame1) );

  00b46	6a 06		 push	 6
  00b48	b9 00 00 00 00	 mov	 ecx, OFFSET FLAT:?gWndColor@@3VCWndColorMgr@@A ; gWndColor
  00b4d	e8 00 00 00 00	 call	 ?getColor@CWndColorMgr@@QAEPAUCtrColBase@@I@Z ; CWndColorMgr::getColor
  00b52	8b 10		 mov	 edx, DWORD PTR [eax]
  00b54	8b 02		 mov	 eax, DWORD PTR [edx]
  00b56	50		 push	 eax
  00b57	8d 4d 8c	 lea	 ecx, DWORD PTR $T188249[ebp]
  00b5a	e8 00 00 00 00	 call	 ??0CBrush@@QAE@K@Z	; CBrush::CBrush
  00b5f	89 85 78 ff ff
	ff		 mov	 DWORD PTR tv212[ebp], eax
  00b65	8b 8d 78 ff ff
	ff		 mov	 ecx, DWORD PTR tv212[ebp]
  00b6b	89 8d 74 ff ff
	ff		 mov	 DWORD PTR tv207[ebp], ecx
  00b71	c7 45 fc 00 00
	00 00		 mov	 DWORD PTR __$EHRec$[ebp+8], 0
  00b78	8b 95 74 ff ff
	ff		 mov	 edx, DWORD PTR tv207[ebp]
  00b7e	52		 push	 edx
  00b7f	8d 45 d8	 lea	 eax, DWORD PTR _lrcTrack$[ebp]
  00b82	50		 push	 eax
  00b83	8b 4d 18	 mov	 ecx, DWORD PTR _hMemDC$[ebp]
  00b86	51		 push	 ecx
  00b87	e8 00 00 00 00	 call	 ?FromHandle@CDC@@SGPAV1@PAUHDC__@@@Z ; CDC::FromHandle
  00b8c	8b c8		 mov	 ecx, eax
  00b8e	e8 00 00 00 00	 call	 ?FrameRect@CDC@@QAEXPBUtagRECT@@PAVCBrush@@@Z ; CDC::FrameRect
  00b93	c7 45 fc ff ff
	ff ff		 mov	 DWORD PTR __$EHRec$[ebp+8], -1
  00b9a	8d 4d 8c	 lea	 ecx, DWORD PTR $T188249[ebp]
  00b9d	e8 00 00 00 00	 call	 ??1CBrush@@UAE@XZ	; CBrush::~CBrush

; 257  : 		::InflateRect(&lrcTrack,-1,-1);

  00ba2	8b f4		 mov	 esi, esp
  00ba4	6a ff		 push	 -1
  00ba6	6a ff		 push	 -1
  00ba8	8d 55 d8	 lea	 edx, DWORD PTR _lrcTrack$[ebp]
  00bab	52		 push	 edx
  00bac	ff 15 00 00 00
	00		 call	 DWORD PTR __imp__InflateRect@12
  00bb2	3b f4		 cmp	 esi, esp
  00bb4	e8 00 00 00 00	 call	 __RTC_CheckEsp

; 258  : 		switch(m_SlideType)

  00bb9	8b 45 f0	 mov	 eax, DWORD PTR _this$[ebp]
  00bbc	8b 88 80 00 00
	00		 mov	 ecx, DWORD PTR [eax+128]
  00bc2	89 8d 70 ff ff
	ff		 mov	 DWORD PTR tv129[ebp], ecx
  00bc8	83 bd 70 ff ff
	ff 03		 cmp	 DWORD PTR tv129[ebp], 3
  00bcf	0f 87 1e 02 00
	00		 ja	 $L187633
  00bd5	8b 95 70 ff ff
	ff		 mov	 edx, DWORD PTR tv129[ebp]
  00bdb	ff 24 95 00 00
	00 00		 jmp	 DWORD PTR $L188267[edx*4]
$L187643:

; 259  : 		{
; 260  : 		case LIGHT_SLIDE:
; 261  : 			gBitMapOperate.FillRectangleLight( hMemDC,lrcTrack,m_colBegain,m_colEnd,m_nHue, gBitMapOperate.edoHorizontal, true, (lrcTrack.right - lrcTrack.left) );

  00be2	8b 45 e0	 mov	 eax, DWORD PTR _lrcTrack$[ebp+8]
  00be5	2b 45 d8	 sub	 eax, DWORD PTR _lrcTrack$[ebp]
  00be8	50		 push	 eax
  00be9	6a 01		 push	 1
  00beb	6a 00		 push	 0
  00bed	8b 4d f0	 mov	 ecx, DWORD PTR _this$[ebp]
  00bf0	8b 51 74	 mov	 edx, DWORD PTR [ecx+116]
  00bf3	52		 push	 edx
  00bf4	8b 45 f0	 mov	 eax, DWORD PTR _this$[ebp]
  00bf7	8b 48 70	 mov	 ecx, DWORD PTR [eax+112]
  00bfa	51		 push	 ecx
  00bfb	8b 55 f0	 mov	 edx, DWORD PTR _this$[ebp]
  00bfe	8b 42 6c	 mov	 eax, DWORD PTR [edx+108]
  00c01	50		 push	 eax
  00c02	83 ec 10	 sub	 esp, 16			; 00000010H
  00c05	8b cc		 mov	 ecx, esp
  00c07	8b 55 d8	 mov	 edx, DWORD PTR _lrcTrack$[ebp]
  00c0a	89 11		 mov	 DWORD PTR [ecx], edx
  00c0c	8b 45 dc	 mov	 eax, DWORD PTR _lrcTrack$[ebp+4]
  00c0f	89 41 04	 mov	 DWORD PTR [ecx+4], eax
  00c12	8b 55 e0	 mov	 edx, DWORD PTR _lrcTrack$[ebp+8]
  00c15	89 51 08	 mov	 DWORD PTR [ecx+8], edx
  00c18	8b 45 e4	 mov	 eax, DWORD PTR _lrcTrack$[ebp+12]
  00c1b	89 41 0c	 mov	 DWORD PTR [ecx+12], eax
  00c1e	8b 4d 18	 mov	 ecx, DWORD PTR _hMemDC$[ebp]
  00c21	51		 push	 ecx
  00c22	b9 00 00 00 00	 mov	 ecx, OFFSET FLAT:?gBitMapOperate@@3VCBitMapOperate@@A
  00c27	e8 00 00 00 00	 call	 ?FillRectangleLight@CBitMapOperate@@UAEXPAUHDC__@@UtagRECT@@KKIW4ENUM_DrawOrientation@1@HI@Z ; CBitMapOperate::FillRectangleLight

; 262  : 			break;

  00c2c	e9 c2 01 00 00	 jmp	 $L187633
$L187644:

; 263  : 		case HUE_SLIDE:
; 264  : 			gBitMapOperate.FillRectangleHue( hMemDC,lrcTrack,m_colBegain,m_colEnd, gBitMapOperate.edoHorizontal, true, (lrcTrack.right - lrcTrack.left) );

  00c31	8b 55 e0	 mov	 edx, DWORD PTR _lrcTrack$[ebp+8]
  00c34	2b 55 d8	 sub	 edx, DWORD PTR _lrcTrack$[ebp]
  00c37	52		 push	 edx
  00c38	6a 01		 push	 1
  00c3a	6a 00		 push	 0
  00c3c	8b 45 f0	 mov	 eax, DWORD PTR _this$[ebp]
  00c3f	8b 48 70	 mov	 ecx, DWORD PTR [eax+112]
  00c42	51		 push	 ecx
  00c43	8b 55 f0	 mov	 edx, DWORD PTR _this$[ebp]
  00c46	8b 42 6c	 mov	 eax, DWORD PTR [edx+108]
  00c49	50		 push	 eax
  00c4a	83 ec 10	 sub	 esp, 16			; 00000010H
  00c4d	8b cc		 mov	 ecx, esp
  00c4f	8b 55 d8	 mov	 edx, DWORD PTR _lrcTrack$[ebp]
  00c52	89 11		 mov	 DWORD PTR [ecx], edx
  00c54	8b 45 dc	 mov	 eax, DWORD PTR _lrcTrack$[ebp+4]
  00c57	89 41 04	 mov	 DWORD PTR [ecx+4], eax
  00c5a	8b 55 e0	 mov	 edx, DWORD PTR _lrcTrack$[ebp+8]
  00c5d	89 51 08	 mov	 DWORD PTR [ecx+8], edx
  00c60	8b 45 e4	 mov	 eax, DWORD PTR _lrcTrack$[ebp+12]
  00c63	89 41 0c	 mov	 DWORD PTR [ecx+12], eax
  00c66	8b 4d 18	 mov	 ecx, DWORD PTR _hMemDC$[ebp]
  00c69	51		 push	 ecx
  00c6a	b9 00 00 00 00	 mov	 ecx, OFFSET FLAT:?gBitMapOperate@@3VCBitMapOperate@@A
  00c6f	e8 00 00 00 00	 call	 ?FillRectangleHue@CBitMapOperate@@UAEXPAUHDC__@@UtagRECT@@KKW4ENUM_DrawOrientation@1@HI@Z ; CBitMapOperate::FillRectangleHue

; 265  : 			break;

  00c74	e9 7a 01 00 00	 jmp	 $L187633
$L187645:

; 266  : 		case PERCENT_SLIDE:
; 267  : 			{
; 268  : 				CRect lrect1 = lrcTrack;

  00c79	8d 55 d8	 lea	 edx, DWORD PTR _lrcTrack$[ebp]
  00c7c	52		 push	 edx
  00c7d	8d 4d c0	 lea	 ecx, DWORD PTR _lrect1$187646[ebp]
  00c80	e8 00 00 00 00	 call	 ??0CRect@@QAE@ABUtagRECT@@@Z ; CRect::CRect

; 269  : 				lrect1.right = lrect1.left>m_iStatePosX? lrect1.left:m_iStatePosX;

  00c85	8b 45 f0	 mov	 eax, DWORD PTR _this$[ebp]
  00c88	8b 4d c0	 mov	 ecx, DWORD PTR _lrect1$187646[ebp]
  00c8b	3b 88 84 00 00
	00		 cmp	 ecx, DWORD PTR [eax+132]
  00c91	7e 0b		 jle	 SHORT $L188250
  00c93	8b 55 c0	 mov	 edx, DWORD PTR _lrect1$187646[ebp]
  00c96	89 95 6c ff ff
	ff		 mov	 DWORD PTR tv159[ebp], edx
  00c9c	eb 0f		 jmp	 SHORT $L188251
$L188250:
  00c9e	8b 45 f0	 mov	 eax, DWORD PTR _this$[ebp]
  00ca1	8b 88 84 00 00
	00		 mov	 ecx, DWORD PTR [eax+132]
  00ca7	89 8d 6c ff ff
	ff		 mov	 DWORD PTR tv159[ebp], ecx
$L188251:
  00cad	8b 95 6c ff ff
	ff		 mov	 edx, DWORD PTR tv159[ebp]
  00cb3	89 55 c8	 mov	 DWORD PTR _lrect1$187646[ebp+8], edx

; 270  : 				CDC::FromHandle(hMemDC)->FillRect( lrect1, &CBrush(m_colBegain ) );

  00cb6	8b 45 f0	 mov	 eax, DWORD PTR _this$[ebp]
  00cb9	8b 48 6c	 mov	 ecx, DWORD PTR [eax+108]
  00cbc	51		 push	 ecx
  00cbd	8d 4d 84	 lea	 ecx, DWORD PTR $T188252[ebp]
  00cc0	e8 00 00 00 00	 call	 ??0CBrush@@QAE@K@Z	; CBrush::CBrush
  00cc5	89 85 68 ff ff
	ff		 mov	 DWORD PTR tv213[ebp], eax
  00ccb	8b 95 68 ff ff
	ff		 mov	 edx, DWORD PTR tv213[ebp]
  00cd1	89 95 64 ff ff
	ff		 mov	 DWORD PTR tv209[ebp], edx
  00cd7	c7 45 fc 01 00
	00 00		 mov	 DWORD PTR __$EHRec$[ebp+8], 1
  00cde	8b 85 64 ff ff
	ff		 mov	 eax, DWORD PTR tv209[ebp]
  00ce4	50		 push	 eax
  00ce5	8d 4d c0	 lea	 ecx, DWORD PTR _lrect1$187646[ebp]
  00ce8	e8 00 00 00 00	 call	 ??BCRect@@QAEPAUtagRECT@@XZ ; CRect::operator tagRECT *
  00ced	50		 push	 eax
  00cee	8b 4d 18	 mov	 ecx, DWORD PTR _hMemDC$[ebp]
  00cf1	51		 push	 ecx
  00cf2	e8 00 00 00 00	 call	 ?FromHandle@CDC@@SGPAV1@PAUHDC__@@@Z ; CDC::FromHandle
  00cf7	8b c8		 mov	 ecx, eax
  00cf9	e8 00 00 00 00	 call	 ?FillRect@CDC@@QAEXPBUtagRECT@@PAVCBrush@@@Z ; CDC::FillRect
  00cfe	c7 45 fc ff ff
	ff ff		 mov	 DWORD PTR __$EHRec$[ebp+8], -1
  00d05	8d 4d 84	 lea	 ecx, DWORD PTR $T188252[ebp]
  00d08	e8 00 00 00 00	 call	 ??1CBrush@@UAE@XZ	; CBrush::~CBrush

; 271  : 				
; 272  : 				CRect lrect2 = lrcTrack;

  00d0d	8d 55 d8	 lea	 edx, DWORD PTR _lrcTrack$[ebp]
  00d10	52		 push	 edx
  00d11	8d 4d a8	 lea	 ecx, DWORD PTR _lrect2$187648[ebp]
  00d14	e8 00 00 00 00	 call	 ??0CRect@@QAE@ABUtagRECT@@@Z ; CRect::CRect

; 273  : 				lrect2.left = lrect2.left>m_iStatePosX? lrect2.left:m_iStatePosX ;

  00d19	8b 45 f0	 mov	 eax, DWORD PTR _this$[ebp]
  00d1c	8b 4d a8	 mov	 ecx, DWORD PTR _lrect2$187648[ebp]
  00d1f	3b 88 84 00 00
	00		 cmp	 ecx, DWORD PTR [eax+132]
  00d25	7e 0b		 jle	 SHORT $L188253
  00d27	8b 55 a8	 mov	 edx, DWORD PTR _lrect2$187648[ebp]
  00d2a	89 95 60 ff ff
	ff		 mov	 DWORD PTR tv178[ebp], edx
  00d30	eb 0f		 jmp	 SHORT $L188254
$L188253:
  00d32	8b 45 f0	 mov	 eax, DWORD PTR _this$[ebp]
  00d35	8b 88 84 00 00
	00		 mov	 ecx, DWORD PTR [eax+132]
  00d3b	89 8d 60 ff ff
	ff		 mov	 DWORD PTR tv178[ebp], ecx
$L188254:
  00d41	8b 95 60 ff ff
	ff		 mov	 edx, DWORD PTR tv178[ebp]
  00d47	89 55 a8	 mov	 DWORD PTR _lrect2$187648[ebp], edx

; 274  : 				CDC::FromHandle(hMemDC)->FillRect( lrect2, &CBrush( m_colEnd ) );

  00d4a	8b 45 f0	 mov	 eax, DWORD PTR _this$[ebp]
  00d4d	8b 48 70	 mov	 ecx, DWORD PTR [eax+112]
  00d50	51		 push	 ecx
  00d51	8d 8d 7c ff ff
	ff		 lea	 ecx, DWORD PTR $T188255[ebp]
  00d57	e8 00 00 00 00	 call	 ??0CBrush@@QAE@K@Z	; CBrush::CBrush
  00d5c	89 85 5c ff ff
	ff		 mov	 DWORD PTR tv214[ebp], eax
  00d62	8b 95 5c ff ff
	ff		 mov	 edx, DWORD PTR tv214[ebp]
  00d68	89 95 58 ff ff
	ff		 mov	 DWORD PTR tv211[ebp], edx
  00d6e	c7 45 fc 02 00
	00 00		 mov	 DWORD PTR __$EHRec$[ebp+8], 2
  00d75	8b 85 58 ff ff
	ff		 mov	 eax, DWORD PTR tv211[ebp]
  00d7b	50		 push	 eax
  00d7c	8d 4d a8	 lea	 ecx, DWORD PTR _lrect2$187648[ebp]
  00d7f	e8 00 00 00 00	 call	 ??BCRect@@QAEPAUtagRECT@@XZ ; CRect::operator tagRECT *
  00d84	50		 push	 eax
  00d85	8b 4d 18	 mov	 ecx, DWORD PTR _hMemDC$[ebp]
  00d88	51		 push	 ecx
  00d89	e8 00 00 00 00	 call	 ?FromHandle@CDC@@SGPAV1@PAUHDC__@@@Z ; CDC::FromHandle
  00d8e	8b c8		 mov	 ecx, eax
  00d90	e8 00 00 00 00	 call	 ?FillRect@CDC@@QAEXPBUtagRECT@@PAVCBrush@@@Z ; CDC::FillRect
  00d95	c7 45 fc ff ff
	ff ff		 mov	 DWORD PTR __$EHRec$[ebp+8], -1
  00d9c	8d 8d 7c ff ff
	ff		 lea	 ecx, DWORD PTR $T188255[ebp]
  00da2	e8 00 00 00 00	 call	 ??1CBrush@@UAE@XZ	; CBrush::~CBrush

; 275  : 			}
; 276  : 			break;

  00da7	eb 4a		 jmp	 SHORT $L187633
$L187650:

; 277  : 		case S_SLIDE:
; 278  : 			gBitMapOperate.FillRectangleS( hMemDC,lrcTrack,m_colBegain,m_colEnd,m_nHue, gBitMapOperate.edoHorizontal, true, (lrcTrack.right - lrcTrack.left) );

  00da9	8b 55 e0	 mov	 edx, DWORD PTR _lrcTrack$[ebp+8]
  00dac	2b 55 d8	 sub	 edx, DWORD PTR _lrcTrack$[ebp]
  00daf	52		 push	 edx
  00db0	6a 01		 push	 1
  00db2	6a 00		 push	 0
  00db4	8b 45 f0	 mov	 eax, DWORD PTR _this$[ebp]
  00db7	8b 48 74	 mov	 ecx, DWORD PTR [eax+116]
  00dba	51		 push	 ecx
  00dbb	8b 55 f0	 mov	 edx, DWORD PTR _this$[ebp]
  00dbe	8b 42 70	 mov	 eax, DWORD PTR [edx+112]
  00dc1	50		 push	 eax
  00dc2	8b 4d f0	 mov	 ecx, DWORD PTR _this$[ebp]
  00dc5	8b 51 6c	 mov	 edx, DWORD PTR [ecx+108]
  00dc8	52		 push	 edx
  00dc9	83 ec 10	 sub	 esp, 16			; 00000010H
  00dcc	8b c4		 mov	 eax, esp
  00dce	8b 4d d8	 mov	 ecx, DWORD PTR _lrcTrack$[ebp]
  00dd1	89 08		 mov	 DWORD PTR [eax], ecx
  00dd3	8b 55 dc	 mov	 edx, DWORD PTR _lrcTrack$[ebp+4]
  00dd6	89 50 04	 mov	 DWORD PTR [eax+4], edx
  00dd9	8b 4d e0	 mov	 ecx, DWORD PTR _lrcTrack$[ebp+8]
  00ddc	89 48 08	 mov	 DWORD PTR [eax+8], ecx
  00ddf	8b 55 e4	 mov	 edx, DWORD PTR _lrcTrack$[ebp+12]
  00de2	89 50 0c	 mov	 DWORD PTR [eax+12], edx
  00de5	8b 45 18	 mov	 eax, DWORD PTR _hMemDC$[ebp]
  00de8	50		 push	 eax
  00de9	b9 00 00 00 00	 mov	 ecx, OFFSET FLAT:?gBitMapOperate@@3VCBitMapOperate@@A
  00dee	e8 00 00 00 00	 call	 ?FillRectangleS@CBitMapOperate@@QAEXPAUHDC__@@UtagRECT@@KKIW4ENUM_DrawOrientation@1@HI@Z ; CBitMapOperate::FillRectangleS
$L187633:

; 279  :         break;
; 280  : 		default:
; 281  : 			break;
; 282  : 		}
; 283  : 	}
; 284  : }

  00df3	52		 push	 edx
  00df4	8b cd		 mov	 ecx, ebp
  00df6	50		 push	 eax
  00df7	8d 15 00 00 00
	00		 lea	 edx, DWORD PTR $L188266
  00dfd	e8 00 00 00 00	 call	 @_RTC_CheckStackVars@8
  00e02	58		 pop	 eax
  00e03	5a		 pop	 edx
  00e04	8b 4d f4	 mov	 ecx, DWORD PTR __$EHRec$[ebp]
  00e07	64 89 0d 00 00
	00 00		 mov	 DWORD PTR fs:__except_list, ecx
  00e0e	5f		 pop	 edi
  00e0f	5e		 pop	 esi
  00e10	81 c4 a8 00 00
	00		 add	 esp, 168		; 000000a8H
  00e16	3b ec		 cmp	 ebp, esp
  00e18	e8 00 00 00 00	 call	 __RTC_CheckEsp
  00e1d	8b e5		 mov	 esp, ebp
  00e1f	5d		 pop	 ebp
  00e20	c2 14 00	 ret	 20			; 00000014H
$L188266:
  00e23	03 00 00 00	 DD	 3
  00e27	00 00 00 00	 DD	 $L188265
$L188265:
  00e2b	d8 ff ff ff	 DD	 -40			; ffffffd8H
  00e2f	10 00 00 00	 DD	 16			; 00000010H
  00e33	00 00 00 00	 DD	 $L188261
  00e37	c0 ff ff ff	 DD	 -64			; ffffffc0H
  00e3b	10 00 00 00	 DD	 16			; 00000010H
  00e3f	00 00 00 00	 DD	 $L188262
  00e43	a8 ff ff ff	 DD	 -88			; ffffffa8H
  00e47	10 00 00 00	 DD	 16			; 00000010H
  00e4b	00 00 00 00	 DD	 $L188263
$L188263:
  00e4f	6c		 DB	 108			; 0000006cH
  00e50	72		 DB	 114			; 00000072H
  00e51	65		 DB	 101			; 00000065H
  00e52	63		 DB	 99			; 00000063H
  00e53	74		 DB	 116			; 00000074H
  00e54	32		 DB	 50			; 00000032H
  00e55	00		 DB	 0
$L188262:
  00e56	6c		 DB	 108			; 0000006cH
  00e57	72		 DB	 114			; 00000072H
  00e58	65		 DB	 101			; 00000065H
  00e59	63		 DB	 99			; 00000063H
  00e5a	74		 DB	 116			; 00000074H
  00e5b	31		 DB	 49			; 00000031H
  00e5c	00		 DB	 0
$L188261:
  00e5d	6c		 DB	 108			; 0000006cH
  00e5e	72		 DB	 114			; 00000072H
  00e5f	63		 DB	 99			; 00000063H
  00e60	54		 DB	 84			; 00000054H
  00e61	72		 DB	 114			; 00000072H
  00e62	61		 DB	 97			; 00000061H
  00e63	63		 DB	 99			; 00000063H
  00e64	6b		 DB	 107			; 0000006bH
  00e65	00		 DB	 0
$L188267:
  00e66	00 00 00 00	 DD	 $L187645
  00e6a	00 00 00 00	 DD	 $L187643
  00e6e	00 00 00 00	 DD	 $L187644
  00e72	00 00 00 00	 DD	 $L187650
_TEXT	ENDS
text$x	SEGMENT
$L188256:
  00012	8d 4d 8c	 lea	 ecx, DWORD PTR $T188249[ebp]
  00015	e9 00 00 00 00	 jmp	 ??1CBrush@@UAE@XZ	; CBrush::~CBrush
$L188257:
  0001a	8d 4d 84	 lea	 ecx, DWORD PTR $T188252[ebp]
  0001d	e9 00 00 00 00	 jmp	 ??1CBrush@@UAE@XZ	; CBrush::~CBrush
$L188258:
  00022	8d 8d 7c ff ff
	ff		 lea	 ecx, DWORD PTR $T188255[ebp]
  00028	e9 00 00 00 00	 jmp	 ??1CBrush@@UAE@XZ	; CBrush::~CBrush
__ehhandler$?PaintBK@CColorSlide@@IAEXVCRect@@PAUHDC__@@@Z:
  0002d	b8 00 00 00 00	 mov	 eax, OFFSET FLAT:$T188260
  00032	e9 00 00 00 00	 jmp	 ___CxxFrameHandler
text$x	ENDS
?PaintBK@CColorSlide@@IAEXVCRect@@PAUHDC__@@@Z ENDP	; CColorSlide::PaintBK
PUBLIC	?SetButtonPos@CColorSlide@@QAEXH@Z		; CColorSlide::SetButtonPos
EXTRN	?AfxGetMainWnd@@YGPAVCWnd@@XZ:NEAR		; AfxGetMainWnd
EXTRN	?Invalidate@CWnd@@QAEXH@Z:NEAR			; CWnd::Invalidate
; Function compile flags: /Odt /RTCsu
_TEXT	SEGMENT
tv165 = -8						; size = 4
_this$ = -4						; size = 4
_aiValue$ = 8						; size = 4
?SetButtonPos@CColorSlide@@QAEXH@Z PROC NEAR		; CColorSlide::SetButtonPos
; _this$ = ecx

; 287  : {

  00e80	55		 push	 ebp
  00e81	8b ec		 mov	 ebp, esp
  00e83	83 ec 08	 sub	 esp, 8
  00e86	56		 push	 esi
  00e87	c7 45 f8 cc cc
	cc cc		 mov	 DWORD PTR [ebp-8], -858993460 ; ccccccccH
  00e8e	c7 45 fc cc cc
	cc cc		 mov	 DWORD PTR [ebp-4], -858993460 ; ccccccccH
  00e95	89 4d fc	 mov	 DWORD PTR _this$[ebp], ecx

; 288  : 	if(aiValue > FMaxValue)

  00e98	8b 45 fc	 mov	 eax, DWORD PTR _this$[ebp]
  00e9b	8b 4d 08	 mov	 ecx, DWORD PTR _aiValue$[ebp]
  00e9e	3b 48 58	 cmp	 ecx, DWORD PTR [eax+88]
  00ea1	7e 0e		 jle	 SHORT $L187656

; 289  : 	{
; 290  : 		FPosition = FMaxValue;

  00ea3	8b 55 fc	 mov	 edx, DWORD PTR _this$[ebp]
  00ea6	8b 45 fc	 mov	 eax, DWORD PTR _this$[ebp]
  00ea9	8b 48 58	 mov	 ecx, DWORD PTR [eax+88]
  00eac	89 4a 54	 mov	 DWORD PTR [edx+84], ecx

; 291  : 	}
; 292  : 	else

  00eaf	eb 22		 jmp	 SHORT $L187657
$L187656:

; 293  : 	{
; 294  : 		if(aiValue < FMinValue)

  00eb1	8b 55 fc	 mov	 edx, DWORD PTR _this$[ebp]
  00eb4	8b 45 08	 mov	 eax, DWORD PTR _aiValue$[ebp]
  00eb7	3b 42 5c	 cmp	 eax, DWORD PTR [edx+92]
  00eba	7d 0e		 jge	 SHORT $L187658

; 295  : 		{
; 296  : 			FPosition = FMinValue;

  00ebc	8b 4d fc	 mov	 ecx, DWORD PTR _this$[ebp]
  00ebf	8b 55 fc	 mov	 edx, DWORD PTR _this$[ebp]
  00ec2	8b 42 5c	 mov	 eax, DWORD PTR [edx+92]
  00ec5	89 41 54	 mov	 DWORD PTR [ecx+84], eax

; 297  : 		}
; 298  : 		else

  00ec8	eb 09		 jmp	 SHORT $L187657
$L187658:

; 299  : 		{
; 300  : 		FPosition = aiValue;

  00eca	8b 4d fc	 mov	 ecx, DWORD PTR _this$[ebp]
  00ecd	8b 55 08	 mov	 edx, DWORD PTR _aiValue$[ebp]
  00ed0	89 51 54	 mov	 DWORD PTR [ecx+84], edx
$L187657:

; 301  : 		}
; 302  : 	}
; 303  : 	m_nWidthPlay = m_nWidth-2*TRACKBAR_INTERVAL;

  00ed3	8b 45 fc	 mov	 eax, DWORD PTR _this$[ebp]
  00ed6	8b 48 60	 mov	 ecx, DWORD PTR [eax+96]
  00ed9	83 e9 08	 sub	 ecx, 8
  00edc	8b 55 fc	 mov	 edx, DWORD PTR _this$[ebp]
  00edf	89 4a 68	 mov	 DWORD PTR [edx+104], ecx

; 304  : 	if(FMaxValue <=FMinValue)

  00ee2	8b 45 fc	 mov	 eax, DWORD PTR _this$[ebp]
  00ee5	8b 4d fc	 mov	 ecx, DWORD PTR _this$[ebp]
  00ee8	8b 50 58	 mov	 edx, DWORD PTR [eax+88]
  00eeb	3b 51 5c	 cmp	 edx, DWORD PTR [ecx+92]
  00eee	7f 0f		 jg	 SHORT $L187660

; 305  : 	{
; 306  : 		m_iStatePosX = 0;

  00ef0	8b 45 fc	 mov	 eax, DWORD PTR _this$[ebp]
  00ef3	c7 80 84 00 00
	00 00 00 00 00	 mov	 DWORD PTR [eax+132], 0

; 307  : 	}
; 308  : 	else

  00efd	eb 38		 jmp	 SHORT $L187661
$L187660:

; 309  : 	{
; 310  : 		m_iStatePosX = (int)( ((float)FPosition-(float)FMinValue)/(float)(FMaxValue - FMinValue) * m_nWidthPlay+0.5);// +0.5 浮点计算进位补偿

  00eff	8b 4d fc	 mov	 ecx, DWORD PTR _this$[ebp]
  00f02	db 41 54	 fild	 DWORD PTR [ecx+84]
  00f05	8b 55 fc	 mov	 edx, DWORD PTR _this$[ebp]
  00f08	da 62 5c	 fisub	 DWORD PTR [edx+92]
  00f0b	8b 45 fc	 mov	 eax, DWORD PTR _this$[ebp]
  00f0e	8b 4d fc	 mov	 ecx, DWORD PTR _this$[ebp]
  00f11	8b 50 58	 mov	 edx, DWORD PTR [eax+88]
  00f14	2b 51 5c	 sub	 edx, DWORD PTR [ecx+92]
  00f17	89 55 f8	 mov	 DWORD PTR tv165[ebp], edx
  00f1a	da 75 f8	 fidiv	 DWORD PTR tv165[ebp]
  00f1d	8b 45 fc	 mov	 eax, DWORD PTR _this$[ebp]
  00f20	da 48 68	 fimul	 DWORD PTR [eax+104]
  00f23	dc 05 00 00 00
	00		 fadd	 QWORD PTR __real@3fe0000000000000
  00f29	e8 00 00 00 00	 call	 __ftol2
  00f2e	8b 4d fc	 mov	 ecx, DWORD PTR _this$[ebp]
  00f31	89 81 84 00 00
	00		 mov	 DWORD PTR [ecx+132], eax
$L187661:

; 311  : 	}
; 312  : 	::SendMessage(AfxGetMainWnd()->GetSafeHwnd(),WM_HSCROLL,0,(LPARAM)this->m_hWnd);

  00f37	8b f4		 mov	 esi, esp
  00f39	8b 55 fc	 mov	 edx, DWORD PTR _this$[ebp]
  00f3c	8b 42 20	 mov	 eax, DWORD PTR [edx+32]
  00f3f	50		 push	 eax
  00f40	6a 00		 push	 0
  00f42	68 14 01 00 00	 push	 276			; 00000114H
  00f47	e8 00 00 00 00	 call	 ?AfxGetMainWnd@@YGPAVCWnd@@XZ ; AfxGetMainWnd
  00f4c	8b c8		 mov	 ecx, eax
  00f4e	e8 00 00 00 00	 call	 ?GetSafeHwnd@CWnd@@QBEPAUHWND__@@XZ ; CWnd::GetSafeHwnd
  00f53	50		 push	 eax
  00f54	ff 15 00 00 00
	00		 call	 DWORD PTR __imp__SendMessageA@16
  00f5a	3b f4		 cmp	 esi, esp
  00f5c	e8 00 00 00 00	 call	 __RTC_CheckEsp

; 313  : 	Invalidate();

  00f61	6a 01		 push	 1
  00f63	8b 4d fc	 mov	 ecx, DWORD PTR _this$[ebp]
  00f66	e8 00 00 00 00	 call	 ?Invalidate@CWnd@@QAEXH@Z ; CWnd::Invalidate

; 314  : }

  00f6b	5e		 pop	 esi
  00f6c	83 c4 08	 add	 esp, 8
  00f6f	3b ec		 cmp	 ebp, esp
  00f71	e8 00 00 00 00	 call	 __RTC_CheckEsp
  00f76	8b e5		 mov	 esp, ebp
  00f78	5d		 pop	 ebp
  00f79	c2 04 00	 ret	 4
?SetButtonPos@CColorSlide@@QAEXH@Z ENDP			; CColorSlide::SetButtonPos
_TEXT	ENDS
PUBLIC	?GetButtonPos@CColorSlide@@QAEIXZ		; CColorSlide::GetButtonPos
; Function compile flags: /Odt /RTCsu
_TEXT	SEGMENT
_this$ = -4						; size = 4
?GetButtonPos@CColorSlide@@QAEIXZ PROC NEAR		; CColorSlide::GetButtonPos
; _this$ = ecx

; 317  : {

  00f80	55		 push	 ebp
  00f81	8b ec		 mov	 ebp, esp
  00f83	51		 push	 ecx
  00f84	c7 45 fc cc cc
	cc cc		 mov	 DWORD PTR [ebp-4], -858993460 ; ccccccccH
  00f8b	89 4d fc	 mov	 DWORD PTR _this$[ebp], ecx

; 318  : 	return FPosition;

  00f8e	8b 45 fc	 mov	 eax, DWORD PTR _this$[ebp]
  00f91	8b 40 54	 mov	 eax, DWORD PTR [eax+84]

; 319  : }

  00f94	8b e5		 mov	 esp, ebp
  00f96	5d		 pop	 ebp
  00f97	c3		 ret	 0
?GetButtonPos@CColorSlide@@QAEIXZ ENDP			; CColorSlide::GetButtonPos
_TEXT	ENDS
PUBLIC	?SetRangeMax@CColorSlide@@QAEXH@Z		; CColorSlide::SetRangeMax
; Function compile flags: /Odt /RTCsu
_TEXT	SEGMENT
_this$ = -4						; size = 4
_aiMax$ = 8						; size = 4
?SetRangeMax@CColorSlide@@QAEXH@Z PROC NEAR		; CColorSlide::SetRangeMax
; _this$ = ecx

; 322  : {

  00fa0	55		 push	 ebp
  00fa1	8b ec		 mov	 ebp, esp
  00fa3	51		 push	 ecx
  00fa4	c7 45 fc cc cc
	cc cc		 mov	 DWORD PTR [ebp-4], -858993460 ; ccccccccH
  00fab	89 4d fc	 mov	 DWORD PTR _this$[ebp], ecx

; 323  : 	FMaxValue = aiMax;

  00fae	8b 45 fc	 mov	 eax, DWORD PTR _this$[ebp]
  00fb1	8b 4d 08	 mov	 ecx, DWORD PTR _aiMax$[ebp]
  00fb4	89 48 58	 mov	 DWORD PTR [eax+88], ecx

; 324  : 	Invalidate();

  00fb7	6a 01		 push	 1
  00fb9	8b 4d fc	 mov	 ecx, DWORD PTR _this$[ebp]
  00fbc	e8 00 00 00 00	 call	 ?Invalidate@CWnd@@QAEXH@Z ; CWnd::Invalidate

; 325  : }

  00fc1	83 c4 04	 add	 esp, 4
  00fc4	3b ec		 cmp	 ebp, esp
  00fc6	e8 00 00 00 00	 call	 __RTC_CheckEsp
  00fcb	8b e5		 mov	 esp, ebp
  00fcd	5d		 pop	 ebp
  00fce	c2 04 00	 ret	 4
?SetRangeMax@CColorSlide@@QAEXH@Z ENDP			; CColorSlide::SetRangeMax
_TEXT	ENDS
PUBLIC	?GetRangeMax@CColorSlide@@QBEHXZ		; CColorSlide::GetRangeMax
; Function compile flags: /Odt /RTCsu
_TEXT	SEGMENT
_this$ = -4						; size = 4
?GetRangeMax@CColorSlide@@QBEHXZ PROC NEAR		; CColorSlide::GetRangeMax
; _this$ = ecx

; 328  : {

  00fe0	55		 push	 ebp
  00fe1	8b ec		 mov	 ebp, esp
  00fe3	51		 push	 ecx
  00fe4	c7 45 fc cc cc
	cc cc		 mov	 DWORD PTR [ebp-4], -858993460 ; ccccccccH
  00feb	89 4d fc	 mov	 DWORD PTR _this$[ebp], ecx

; 329  : 	return FMaxValue;

  00fee	8b 45 fc	 mov	 eax, DWORD PTR _this$[ebp]
  00ff1	8b 40 58	 mov	 eax, DWORD PTR [eax+88]

; 330  : }

  00ff4	8b e5		 mov	 esp, ebp
  00ff6	5d		 pop	 ebp
  00ff7	c3		 ret	 0
?GetRangeMax@CColorSlide@@QBEHXZ ENDP			; CColorSlide::GetRangeMax
_TEXT	ENDS
PUBLIC	?SetRangeMin@CColorSlide@@QAEXH@Z		; CColorSlide::SetRangeMin
; Function compile flags: /Odt /RTCsu
_TEXT	SEGMENT
_this$ = -4						; size = 4
_aiMin$ = 8						; size = 4
?SetRangeMin@CColorSlide@@QAEXH@Z PROC NEAR		; CColorSlide::SetRangeMin
; _this$ = ecx

; 333  : {

  01000	55		 push	 ebp
  01001	8b ec		 mov	 ebp, esp
  01003	51		 push	 ecx
  01004	c7 45 fc cc cc
	cc cc		 mov	 DWORD PTR [ebp-4], -858993460 ; ccccccccH
  0100b	89 4d fc	 mov	 DWORD PTR _this$[ebp], ecx

; 334  : 	FMinValue = aiMin;

  0100e	8b 45 fc	 mov	 eax, DWORD PTR _this$[ebp]
  01011	8b 4d 08	 mov	 ecx, DWORD PTR _aiMin$[ebp]
  01014	89 48 5c	 mov	 DWORD PTR [eax+92], ecx

; 335  : 	Invalidate();

  01017	6a 01		 push	 1
  01019	8b 4d fc	 mov	 ecx, DWORD PTR _this$[ebp]
  0101c	e8 00 00 00 00	 call	 ?Invalidate@CWnd@@QAEXH@Z ; CWnd::Invalidate

; 336  : }

  01021	83 c4 04	 add	 esp, 4
  01024	3b ec		 cmp	 ebp, esp
  01026	e8 00 00 00 00	 call	 __RTC_CheckEsp
  0102b	8b e5		 mov	 esp, ebp
  0102d	5d		 pop	 ebp
  0102e	c2 04 00	 ret	 4
?SetRangeMin@CColorSlide@@QAEXH@Z ENDP			; CColorSlide::SetRangeMin
_TEXT	ENDS
PUBLIC	?GetRangeMin@CColorSlide@@QBEHXZ		; CColorSlide::GetRangeMin
; Function compile flags: /Odt /RTCsu
_TEXT	SEGMENT
_this$ = -4						; size = 4
?GetRangeMin@CColorSlide@@QBEHXZ PROC NEAR		; CColorSlide::GetRangeMin
; _this$ = ecx

; 339  : {

  01040	55		 push	 ebp
  01041	8b ec		 mov	 ebp, esp
  01043	51		 push	 ecx
  01044	c7 45 fc cc cc
	cc cc		 mov	 DWORD PTR [ebp-4], -858993460 ; ccccccccH
  0104b	89 4d fc	 mov	 DWORD PTR _this$[ebp], ecx

; 340  : 	return FMinValue;

  0104e	8b 45 fc	 mov	 eax, DWORD PTR _this$[ebp]
  01051	8b 40 5c	 mov	 eax, DWORD PTR [eax+92]

; 341  : }

  01054	8b e5		 mov	 esp, ebp
  01056	5d		 pop	 ebp
  01057	c3		 ret	 0
?GetRangeMin@CColorSlide@@QBEHXZ ENDP			; CColorSlide::GetRangeMin
_TEXT	ENDS
PUBLIC	?SetRange@CColorSlide@@QAEXHH@Z			; CColorSlide::SetRange
; Function compile flags: /Odt /RTCsu
_TEXT	SEGMENT
_this$ = -4						; size = 4
_nMin$ = 8						; size = 4
_nMax$ = 12						; size = 4
?SetRange@CColorSlide@@QAEXHH@Z PROC NEAR		; CColorSlide::SetRange
; _this$ = ecx

; 344  : {

  01060	55		 push	 ebp
  01061	8b ec		 mov	 ebp, esp
  01063	51		 push	 ecx
  01064	c7 45 fc cc cc
	cc cc		 mov	 DWORD PTR [ebp-4], -858993460 ; ccccccccH
  0106b	89 4d fc	 mov	 DWORD PTR _this$[ebp], ecx

; 345  : 	SetRangeMin(nMin);

  0106e	8b 45 08	 mov	 eax, DWORD PTR _nMin$[ebp]
  01071	50		 push	 eax
  01072	8b 4d fc	 mov	 ecx, DWORD PTR _this$[ebp]
  01075	e8 00 00 00 00	 call	 ?SetRangeMin@CColorSlide@@QAEXH@Z ; CColorSlide::SetRangeMin

; 346  : 	SetRangeMax(nMax);

  0107a	8b 4d 0c	 mov	 ecx, DWORD PTR _nMax$[ebp]
  0107d	51		 push	 ecx
  0107e	8b 4d fc	 mov	 ecx, DWORD PTR _this$[ebp]
  01081	e8 00 00 00 00	 call	 ?SetRangeMax@CColorSlide@@QAEXH@Z ; CColorSlide::SetRangeMax

; 347  : }

  01086	83 c4 04	 add	 esp, 4
  01089	3b ec		 cmp	 ebp, esp
  0108b	e8 00 00 00 00	 call	 __RTC_CheckEsp
  01090	8b e5		 mov	 esp, ebp
  01092	5d		 pop	 ebp
  01093	c2 08 00	 ret	 8
?SetRange@CColorSlide@@QAEXHH@Z ENDP			; CColorSlide::SetRange
_TEXT	ENDS
PUBLIC	?GetRange@CColorSlide@@QBEXAAH0@Z		; CColorSlide::GetRange
EXTRN	?AfxAssertFailedLine@@YGHPBDH@Z:NEAR		; AfxAssertFailedLine
; Function compile flags: /Odt /RTCsu
_TEXT	SEGMENT
_this$ = -4						; size = 4
_nMin$ = 8						; size = 4
_nMax$ = 12						; size = 4
?GetRange@CColorSlide@@QBEXAAH0@Z PROC NEAR		; CColorSlide::GetRange
; _this$ = ecx

; 350  : {

  010a0	55		 push	 ebp
  010a1	8b ec		 mov	 ebp, esp
  010a3	51		 push	 ecx
  010a4	56		 push	 esi
  010a5	c7 45 fc cc cc
	cc cc		 mov	 DWORD PTR [ebp-4], -858993460 ; ccccccccH
  010ac	89 4d fc	 mov	 DWORD PTR _this$[ebp], ecx

; 351  : 	ASSERT(::IsWindow(m_hWnd));

  010af	8b f4		 mov	 esi, esp
  010b1	8b 45 fc	 mov	 eax, DWORD PTR _this$[ebp]
  010b4	8b 48 20	 mov	 ecx, DWORD PTR [eax+32]
  010b7	51		 push	 ecx
  010b8	ff 15 00 00 00
	00		 call	 DWORD PTR __imp__IsWindow@4
  010be	3b f4		 cmp	 esi, esp
  010c0	e8 00 00 00 00	 call	 __RTC_CheckEsp
  010c5	85 c0		 test	 eax, eax
  010c7	75 14		 jne	 SHORT $L188277
  010c9	68 5f 01 00 00	 push	 351			; 0000015fH
  010ce	68 00 00 00 00	 push	 OFFSET FLAT:_THIS_FILE
  010d3	e8 00 00 00 00	 call	 ?AfxAssertFailedLine@@YGHPBDH@Z ; AfxAssertFailedLine
  010d8	85 c0		 test	 eax, eax
  010da	74 01		 je	 SHORT $L188277
  010dc	cc		 int	 3
$L188277:

; 352  : 	nMin = GetRangeMin();

  010dd	8b 4d fc	 mov	 ecx, DWORD PTR _this$[ebp]
  010e0	e8 00 00 00 00	 call	 ?GetRangeMin@CColorSlide@@QBEHXZ ; CColorSlide::GetRangeMin
  010e5	8b 4d 08	 mov	 ecx, DWORD PTR _nMin$[ebp]
  010e8	89 01		 mov	 DWORD PTR [ecx], eax

; 353  : 	nMax = GetRangeMax();

  010ea	8b 4d fc	 mov	 ecx, DWORD PTR _this$[ebp]
  010ed	e8 00 00 00 00	 call	 ?GetRangeMax@CColorSlide@@QBEHXZ ; CColorSlide::GetRangeMax
  010f2	8b 55 0c	 mov	 edx, DWORD PTR _nMax$[ebp]
  010f5	89 02		 mov	 DWORD PTR [edx], eax

; 354  : }

  010f7	5e		 pop	 esi
  010f8	83 c4 04	 add	 esp, 4
  010fb	3b ec		 cmp	 ebp, esp
  010fd	e8 00 00 00 00	 call	 __RTC_CheckEsp
  01102	8b e5		 mov	 esp, ebp
  01104	5d		 pop	 ebp
  01105	c2 08 00	 ret	 8
?GetRange@CColorSlide@@QBEXAAH0@Z ENDP			; CColorSlide::GetRange
_TEXT	ENDS
PUBLIC	?SetTicFreq@CColorSlide@@QAEXH@Z		; CColorSlide::SetTicFreq
; Function compile flags: /Odt /RTCsu
_TEXT	SEGMENT
_this$ = -4						; size = 4
_nFreq$ = 8						; size = 4
?SetTicFreq@CColorSlide@@QAEXH@Z PROC NEAR		; CColorSlide::SetTicFreq
; _this$ = ecx

; 357  : { 

  01110	55		 push	 ebp
  01111	8b ec		 mov	 ebp, esp
  01113	51		 push	 ecx
  01114	56		 push	 esi
  01115	c7 45 fc cc cc
	cc cc		 mov	 DWORD PTR [ebp-4], -858993460 ; ccccccccH
  0111c	89 4d fc	 mov	 DWORD PTR _this$[ebp], ecx

; 358  : 	ASSERT(::IsWindow(m_hWnd)); 

  0111f	8b f4		 mov	 esi, esp
  01121	8b 45 fc	 mov	 eax, DWORD PTR _this$[ebp]
  01124	8b 48 20	 mov	 ecx, DWORD PTR [eax+32]
  01127	51		 push	 ecx
  01128	ff 15 00 00 00
	00		 call	 DWORD PTR __imp__IsWindow@4
  0112e	3b f4		 cmp	 esi, esp
  01130	e8 00 00 00 00	 call	 __RTC_CheckEsp
  01135	85 c0		 test	 eax, eax
  01137	75 14		 jne	 SHORT $L188279
  01139	68 66 01 00 00	 push	 358			; 00000166H
  0113e	68 00 00 00 00	 push	 OFFSET FLAT:_THIS_FILE
  01143	e8 00 00 00 00	 call	 ?AfxAssertFailedLine@@YGHPBDH@Z ; AfxAssertFailedLine
  01148	85 c0		 test	 eax, eax
  0114a	74 01		 je	 SHORT $L188279
  0114c	cc		 int	 3
$L188279:

; 359  : 	::SendMessage(m_hWnd, TBM_SETTICFREQ, nFreq, 0L); 

  0114d	8b f4		 mov	 esi, esp
  0114f	6a 00		 push	 0
  01151	8b 45 08	 mov	 eax, DWORD PTR _nFreq$[ebp]
  01154	50		 push	 eax
  01155	68 14 04 00 00	 push	 1044			; 00000414H
  0115a	8b 4d fc	 mov	 ecx, DWORD PTR _this$[ebp]
  0115d	8b 51 20	 mov	 edx, DWORD PTR [ecx+32]
  01160	52		 push	 edx
  01161	ff 15 00 00 00
	00		 call	 DWORD PTR __imp__SendMessageA@16
  01167	3b f4		 cmp	 esi, esp
  01169	e8 00 00 00 00	 call	 __RTC_CheckEsp

; 360  : }

  0116e	5e		 pop	 esi
  0116f	83 c4 04	 add	 esp, 4
  01172	3b ec		 cmp	 ebp, esp
  01174	e8 00 00 00 00	 call	 __RTC_CheckEsp
  01179	8b e5		 mov	 esp, ebp
  0117b	5d		 pop	 ebp
  0117c	c2 04 00	 ret	 4
?SetTicFreq@CColorSlide@@QAEXH@Z ENDP			; CColorSlide::SetTicFreq
_TEXT	ENDS
PUBLIC	?SetSliderCtrlType@CColorSlide@@QAEXW4ColorSlideType@@@Z ; CColorSlide::SetSliderCtrlType
; Function compile flags: /Odt /RTCsu
_TEXT	SEGMENT
_mrClientRect$ = -24					; size = 16
_this$ = -4						; size = 4
_aSlideType$ = 8					; size = 4
?SetSliderCtrlType@CColorSlide@@QAEXW4ColorSlideType@@@Z PROC NEAR ; CColorSlide::SetSliderCtrlType
; _this$ = ecx

; 362  : {

  01180	55		 push	 ebp
  01181	8b ec		 mov	 ebp, esp
  01183	83 ec 1c	 sub	 esp, 28			; 0000001cH
  01186	56		 push	 esi
  01187	b8 cc cc cc cc	 mov	 eax, -858993460		; ccccccccH
  0118c	89 45 e4	 mov	 DWORD PTR [ebp-28], eax
  0118f	89 45 e8	 mov	 DWORD PTR [ebp-24], eax
  01192	89 45 ec	 mov	 DWORD PTR [ebp-20], eax
  01195	89 45 f0	 mov	 DWORD PTR [ebp-16], eax
  01198	89 45 f4	 mov	 DWORD PTR [ebp-12], eax
  0119b	89 45 f8	 mov	 DWORD PTR [ebp-8], eax
  0119e	89 45 fc	 mov	 DWORD PTR [ebp-4], eax
  011a1	89 4d fc	 mov	 DWORD PTR _this$[ebp], ecx

; 363  : 	m_SlideType = aSlideType ;

  011a4	8b 45 fc	 mov	 eax, DWORD PTR _this$[ebp]
  011a7	8b 4d 08	 mov	 ecx, DWORD PTR _aSlideType$[ebp]
  011aa	89 88 80 00 00
	00		 mov	 DWORD PTR [eax+128], ecx

; 364  : 
; 365  : 	CRect mrClientRect;

  011b0	8d 4d e8	 lea	 ecx, DWORD PTR _mrClientRect$[ebp]
  011b3	e8 00 00 00 00	 call	 ??0CRect@@QAE@XZ	; CRect::CRect

; 366  : 	GetClientRect(mrClientRect);

  011b8	8d 4d e8	 lea	 ecx, DWORD PTR _mrClientRect$[ebp]
  011bb	e8 00 00 00 00	 call	 ??BCRect@@QAEPAUtagRECT@@XZ ; CRect::operator tagRECT *
  011c0	50		 push	 eax
  011c1	8b 4d fc	 mov	 ecx, DWORD PTR _this$[ebp]
  011c4	e8 00 00 00 00	 call	 ?GetClientRect@CWnd@@QBEXPAUtagRECT@@@Z ; CWnd::GetClientRect

; 367  : 	m_nWidth = mrClientRect.Width();

  011c9	8d 4d e8	 lea	 ecx, DWORD PTR _mrClientRect$[ebp]
  011cc	e8 00 00 00 00	 call	 ?Width@CRect@@QBEHXZ	; CRect::Width
  011d1	8b 55 fc	 mov	 edx, DWORD PTR _this$[ebp]
  011d4	89 42 60	 mov	 DWORD PTR [edx+96], eax

; 368  : 	m_nHeight = mrClientRect.Height();

  011d7	8d 4d e8	 lea	 ecx, DWORD PTR _mrClientRect$[ebp]
  011da	e8 00 00 00 00	 call	 ?Height@CRect@@QBEHXZ	; CRect::Height
  011df	8b 4d fc	 mov	 ecx, DWORD PTR _this$[ebp]
  011e2	89 41 64	 mov	 DWORD PTR [ecx+100], eax

; 369  : 	Invalidate();

  011e5	6a 01		 push	 1
  011e7	8b 4d fc	 mov	 ecx, DWORD PTR _this$[ebp]
  011ea	e8 00 00 00 00	 call	 ?Invalidate@CWnd@@QAEXH@Z ; CWnd::Invalidate

; 370  : 	DynamicStat(set_Normal);

  011ef	6a 00		 push	 0
  011f1	8b 4d fc	 mov	 ecx, DWORD PTR _this$[ebp]
  011f4	e8 00 00 00 00	 call	 ?DynamicStat@CColorSlide@@IAEXW4ENUM_SLIDERSTATE@@@Z ; CColorSlide::DynamicStat

; 371  : 	::SendMessage(AfxGetMainWnd()->GetSafeHwnd(),WM_HSCROLL,0,(LPARAM)this->m_hWnd);

  011f9	8b f4		 mov	 esi, esp
  011fb	8b 55 fc	 mov	 edx, DWORD PTR _this$[ebp]
  011fe	8b 42 20	 mov	 eax, DWORD PTR [edx+32]
  01201	50		 push	 eax
  01202	6a 00		 push	 0
  01204	68 14 01 00 00	 push	 276			; 00000114H
  01209	e8 00 00 00 00	 call	 ?AfxGetMainWnd@@YGPAVCWnd@@XZ ; AfxGetMainWnd
  0120e	8b c8		 mov	 ecx, eax
  01210	e8 00 00 00 00	 call	 ?GetSafeHwnd@CWnd@@QBEPAUHWND__@@XZ ; CWnd::GetSafeHwnd
  01215	50		 push	 eax
  01216	ff 15 00 00 00
	00		 call	 DWORD PTR __imp__SendMessageA@16
  0121c	3b f4		 cmp	 esi, esp
  0121e	e8 00 00 00 00	 call	 __RTC_CheckEsp

; 372  : 	Invalidate();

  01223	6a 01		 push	 1
  01225	8b 4d fc	 mov	 ecx, DWORD PTR _this$[ebp]
  01228	e8 00 00 00 00	 call	 ?Invalidate@CWnd@@QAEXH@Z ; CWnd::Invalidate

; 373  : 
; 374  : }

  0122d	52		 push	 edx
  0122e	8b cd		 mov	 ecx, ebp
  01230	50		 push	 eax
  01231	8d 15 00 00 00
	00		 lea	 edx, DWORD PTR $L188283
  01237	e8 00 00 00 00	 call	 @_RTC_CheckStackVars@8
  0123c	58		 pop	 eax
  0123d	5a		 pop	 edx
  0123e	5e		 pop	 esi
  0123f	83 c4 1c	 add	 esp, 28			; 0000001cH
  01242	3b ec		 cmp	 ebp, esp
  01244	e8 00 00 00 00	 call	 __RTC_CheckEsp
  01249	8b e5		 mov	 esp, ebp
  0124b	5d		 pop	 ebp
  0124c	c2 04 00	 ret	 4
$L188283:
  0124f	01 00 00 00	 DD	 1
  01253	00 00 00 00	 DD	 $L188282
$L188282:
  01257	e8 ff ff ff	 DD	 -24			; ffffffe8H
  0125b	10 00 00 00	 DD	 16			; 00000010H
  0125f	00 00 00 00	 DD	 $L188281
$L188281:
  01263	6d		 DB	 109			; 0000006dH
  01264	72		 DB	 114			; 00000072H
  01265	43		 DB	 67			; 00000043H
  01266	6c		 DB	 108			; 0000006cH
  01267	69		 DB	 105			; 00000069H
  01268	65		 DB	 101			; 00000065H
  01269	6e		 DB	 110			; 0000006eH
  0126a	74		 DB	 116			; 00000074H
  0126b	52		 DB	 82			; 00000052H
  0126c	65		 DB	 101			; 00000065H
  0126d	63		 DB	 99			; 00000063H
  0126e	74		 DB	 116			; 00000074H
  0126f	00		 DB	 0
?SetSliderCtrlType@CColorSlide@@QAEXW4ColorSlideType@@@Z ENDP ; CColorSlide::SetSliderCtrlType
_TEXT	ENDS
EXTRN	?PreTranslateMessage@CWnd@@UAEHPAUtagMSG@@@Z:NEAR ; CWnd::PreTranslateMessage
; Function compile flags: /Odt /RTCsu
_TEXT	SEGMENT
_this$ = -4						; size = 4
_pMsg$ = 8						; size = 4
?PreTranslateMessage@CColorSlide@@UAEHPAUtagMSG@@@Z PROC NEAR ; CColorSlide::PreTranslateMessage
; _this$ = ecx

; 376  : {

  01270	55		 push	 ebp
  01271	8b ec		 mov	 ebp, esp
  01273	51		 push	 ecx
  01274	c7 45 fc cc cc
	cc cc		 mov	 DWORD PTR [ebp-4], -858993460 ; ccccccccH
  0127b	89 4d fc	 mov	 DWORD PTR _this$[ebp], ecx

; 377  : 	// TODO: 在此添加专用代码和/或调用基类
; 378  : 	/*if (  m_ctlTips.m_hWnd != NULL  )
; 379  : 	m_ctlTips.RelayEvent(pMsg);*/
; 380  : 
; 381  : 	return CSliderCtrl::PreTranslateMessage(pMsg);

  0127e	8b 45 08	 mov	 eax, DWORD PTR _pMsg$[ebp]
  01281	50		 push	 eax
  01282	8b 4d fc	 mov	 ecx, DWORD PTR _this$[ebp]
  01285	e8 00 00 00 00	 call	 ?PreTranslateMessage@CWnd@@UAEHPAUtagMSG@@@Z ; CWnd::PreTranslateMessage

; 382  : }

  0128a	83 c4 04	 add	 esp, 4
  0128d	3b ec		 cmp	 ebp, esp
  0128f	e8 00 00 00 00	 call	 __RTC_CheckEsp
  01294	8b e5		 mov	 esp, ebp
  01296	5d		 pop	 ebp
  01297	c2 04 00	 ret	 4
?PreTranslateMessage@CColorSlide@@UAEHPAUtagMSG@@@Z ENDP ; CColorSlide::PreTranslateMessage
_TEXT	ENDS
PUBLIC	?UpdateToolTips@CColorSlide@@QAEXXZ		; CColorSlide::UpdateToolTips
; Function compile flags: /Odt /RTCsu
_TEXT	SEGMENT
_this$ = -4						; size = 4
?UpdateToolTips@CColorSlide@@QAEXXZ PROC NEAR		; CColorSlide::UpdateToolTips
; _this$ = ecx

; 385  : {

  012a0	55		 push	 ebp
  012a1	8b ec		 mov	 ebp, esp
  012a3	51		 push	 ecx
  012a4	c7 45 fc cc cc
	cc cc		 mov	 DWORD PTR [ebp-4], -858993460 ; ccccccccH
  012ab	89 4d fc	 mov	 DWORD PTR _this$[ebp], ecx

; 386  : 	//m_ctlTips.UpdateTipText(m_HintText, this);
; 387  : }

  012ae	8b e5		 mov	 esp, ebp
  012b0	5d		 pop	 ebp
  012b1	c3		 ret	 0
?UpdateToolTips@CColorSlide@@QAEXXZ ENDP		; CColorSlide::UpdateToolTips
_TEXT	ENDS
PUBLIC	?SetHintText@CColorSlide@@QAEXV?$CStringT@DV?$StrTraitMFC_DLL@DV?$ChTraitsCRT@D@ATL@@@@@ATL@@@Z ; CColorSlide::SetHintText
EXTRN	__imp_??1?$CStringT@DV?$StrTraitMFC_DLL@DV?$ChTraitsCRT@D@ATL@@@@@ATL@@QAE@XZ:NEAR
; Function compile flags: /Odt /RTCsu
_TEXT	SEGMENT
_this$ = -4						; size = 4
_strValue$ = 8						; size = 4
?SetHintText@CColorSlide@@QAEXV?$CStringT@DV?$StrTraitMFC_DLL@DV?$ChTraitsCRT@D@ATL@@@@@ATL@@@Z PROC NEAR ; CColorSlide::SetHintText
; _this$ = ecx

; 389  : {

  012c0	55		 push	 ebp
  012c1	8b ec		 mov	 ebp, esp
  012c3	51		 push	 ecx
  012c4	56		 push	 esi
  012c5	c7 45 fc cc cc
	cc cc		 mov	 DWORD PTR [ebp-4], -858993460 ; ccccccccH
  012cc	89 4d fc	 mov	 DWORD PTR _this$[ebp], ecx

; 390  : 	/*m_HintText = strValue;
; 391  : 	m_ctlTips.UpdateTipText(m_HintText, this);*/
; 392  : 
; 393  : }

  012cf	8b f4		 mov	 esi, esp
  012d1	8d 4d 08	 lea	 ecx, DWORD PTR _strValue$[ebp]
  012d4	ff 15 00 00 00
	00		 call	 DWORD PTR __imp_??1?$CStringT@DV?$StrTraitMFC_DLL@DV?$ChTraitsCRT@D@ATL@@@@@ATL@@QAE@XZ
  012da	3b f4		 cmp	 esi, esp
  012dc	e8 00 00 00 00	 call	 __RTC_CheckEsp
  012e1	5e		 pop	 esi
  012e2	83 c4 04	 add	 esp, 4
  012e5	3b ec		 cmp	 ebp, esp
  012e7	e8 00 00 00 00	 call	 __RTC_CheckEsp
  012ec	8b e5		 mov	 esp, ebp
  012ee	5d		 pop	 ebp
  012ef	c2 04 00	 ret	 4
?SetHintText@CColorSlide@@QAEXV?$CStringT@DV?$StrTraitMFC_DLL@DV?$ChTraitsCRT@D@ATL@@@@@ATL@@@Z ENDP ; CColorSlide::SetHintText
; Function compile flags: /Odt /RTCsu
_mrClientRect$ = -24					; size = 16
_this$ = -4						; size = 4
?SaveSize@CColorSlide@@AAEXXZ PROC NEAR			; CColorSlide::SaveSize
; _this$ = ecx

; 395  : {

  01300	55		 push	 ebp
  01301	8b ec		 mov	 ebp, esp
  01303	83 ec 1c	 sub	 esp, 28			; 0000001cH
  01306	b8 cc cc cc cc	 mov	 eax, -858993460		; ccccccccH
  0130b	89 45 e4	 mov	 DWORD PTR [ebp-28], eax
  0130e	89 45 e8	 mov	 DWORD PTR [ebp-24], eax
  01311	89 45 ec	 mov	 DWORD PTR [ebp-20], eax
  01314	89 45 f0	 mov	 DWORD PTR [ebp-16], eax
  01317	89 45 f4	 mov	 DWORD PTR [ebp-12], eax
  0131a	89 45 f8	 mov	 DWORD PTR [ebp-8], eax
  0131d	89 45 fc	 mov	 DWORD PTR [ebp-4], eax
  01320	89 4d fc	 mov	 DWORD PTR _this$[ebp], ecx

; 396  : 	CRect mrClientRect;

  01323	8d 4d e8	 lea	 ecx, DWORD PTR _mrClientRect$[ebp]
  01326	e8 00 00 00 00	 call	 ??0CRect@@QAE@XZ	; CRect::CRect

; 397  : 	GetClientRect(mrClientRect);

  0132b	8d 4d e8	 lea	 ecx, DWORD PTR _mrClientRect$[ebp]
  0132e	e8 00 00 00 00	 call	 ??BCRect@@QAEPAUtagRECT@@XZ ; CRect::operator tagRECT *
  01333	50		 push	 eax
  01334	8b 4d fc	 mov	 ecx, DWORD PTR _this$[ebp]
  01337	e8 00 00 00 00	 call	 ?GetClientRect@CWnd@@QBEXPAUtagRECT@@@Z ; CWnd::GetClientRect

; 398  : 	m_nWidth = mrClientRect.Width();

  0133c	8d 4d e8	 lea	 ecx, DWORD PTR _mrClientRect$[ebp]
  0133f	e8 00 00 00 00	 call	 ?Width@CRect@@QBEHXZ	; CRect::Width
  01344	8b 4d fc	 mov	 ecx, DWORD PTR _this$[ebp]
  01347	89 41 60	 mov	 DWORD PTR [ecx+96], eax

; 399  : 	m_nHeight = mrClientRect.Height();

  0134a	8d 4d e8	 lea	 ecx, DWORD PTR _mrClientRect$[ebp]
  0134d	e8 00 00 00 00	 call	 ?Height@CRect@@QBEHXZ	; CRect::Height
  01352	8b 55 fc	 mov	 edx, DWORD PTR _this$[ebp]
  01355	89 42 64	 mov	 DWORD PTR [edx+100], eax

; 400  : }

  01358	52		 push	 edx
  01359	8b cd		 mov	 ecx, ebp
  0135b	50		 push	 eax
  0135c	8d 15 00 00 00
	00		 lea	 edx, DWORD PTR $L188291
  01362	e8 00 00 00 00	 call	 @_RTC_CheckStackVars@8
  01367	58		 pop	 eax
  01368	5a		 pop	 edx
  01369	83 c4 1c	 add	 esp, 28			; 0000001cH
  0136c	3b ec		 cmp	 ebp, esp
  0136e	e8 00 00 00 00	 call	 __RTC_CheckEsp
  01373	8b e5		 mov	 esp, ebp
  01375	5d		 pop	 ebp
  01376	c3		 ret	 0
$L188291:
  01377	01 00 00 00	 DD	 1
  0137b	00 00 00 00	 DD	 $L188290
$L188290:
  0137f	e8 ff ff ff	 DD	 -24			; ffffffe8H
  01383	10 00 00 00	 DD	 16			; 00000010H
  01387	00 00 00 00	 DD	 $L188289
$L188289:
  0138b	6d		 DB	 109			; 0000006dH
  0138c	72		 DB	 114			; 00000072H
  0138d	43		 DB	 67			; 00000043H
  0138e	6c		 DB	 108			; 0000006cH
  0138f	69		 DB	 105			; 00000069H
  01390	65		 DB	 101			; 00000065H
  01391	6e		 DB	 110			; 0000006eH
  01392	74		 DB	 116			; 00000074H
  01393	52		 DB	 82			; 00000052H
  01394	65		 DB	 101			; 00000065H
  01395	63		 DB	 99			; 00000063H
  01396	74		 DB	 116			; 00000074H
  01397	00		 DB	 0
?SaveSize@CColorSlide@@AAEXXZ ENDP			; CColorSlide::SaveSize
_TEXT	ENDS
PUBLIC	?SetBKColor@CColorSlide@@QAEXKKI@Z		; CColorSlide::SetBKColor
; Function compile flags: /Odt /RTCsu
_TEXT	SEGMENT
_this$ = -4						; size = 4
_acolBegain$ = 8					; size = 4
_acolEnd$ = 12						; size = 4
_aHue$ = 16						; size = 4
?SetBKColor@CColorSlide@@QAEXKKI@Z PROC NEAR		; CColorSlide::SetBKColor
; _this$ = ecx

; 402  : {

  013a0	55		 push	 ebp
  013a1	8b ec		 mov	 ebp, esp
  013a3	51		 push	 ecx
  013a4	c7 45 fc cc cc
	cc cc		 mov	 DWORD PTR [ebp-4], -858993460 ; ccccccccH
  013ab	89 4d fc	 mov	 DWORD PTR _this$[ebp], ecx

; 403  : 	m_colBegain = acolBegain;

  013ae	8b 45 fc	 mov	 eax, DWORD PTR _this$[ebp]
  013b1	8b 4d 08	 mov	 ecx, DWORD PTR _acolBegain$[ebp]
  013b4	89 48 6c	 mov	 DWORD PTR [eax+108], ecx

; 404  : 	m_colEnd    = acolEnd;

  013b7	8b 55 fc	 mov	 edx, DWORD PTR _this$[ebp]
  013ba	8b 45 0c	 mov	 eax, DWORD PTR _acolEnd$[ebp]
  013bd	89 42 70	 mov	 DWORD PTR [edx+112], eax

; 405  : 	m_nHue =  aHue;

  013c0	8b 4d fc	 mov	 ecx, DWORD PTR _this$[ebp]
  013c3	8b 55 10	 mov	 edx, DWORD PTR _aHue$[ebp]
  013c6	89 51 74	 mov	 DWORD PTR [ecx+116], edx

; 406  : }

  013c9	8b e5		 mov	 esp, ebp
  013cb	5d		 pop	 ebp
  013cc	c2 0c 00	 ret	 12			; 0000000cH
?SetBKColor@CColorSlide@@QAEXKKI@Z ENDP			; CColorSlide::SetBKColor
_TEXT	ENDS
PUBLIC	?SetBKColor@CColorSlide@@QAEXK@Z		; CColorSlide::SetBKColor
; Function compile flags: /Odt /RTCsu
_TEXT	SEGMENT
_this$ = -4						; size = 4
_acolBegain$ = 8					; size = 4
?SetBKColor@CColorSlide@@QAEXK@Z PROC NEAR		; CColorSlide::SetBKColor
; _this$ = ecx

; 408  : {

  013d0	55		 push	 ebp
  013d1	8b ec		 mov	 ebp, esp
  013d3	51		 push	 ecx
  013d4	c7 45 fc cc cc
	cc cc		 mov	 DWORD PTR [ebp-4], -858993460 ; ccccccccH
  013db	89 4d fc	 mov	 DWORD PTR _this$[ebp], ecx

; 409  : 	m_colBegain = acolBegain;

  013de	8b 45 fc	 mov	 eax, DWORD PTR _this$[ebp]
  013e1	8b 4d 08	 mov	 ecx, DWORD PTR _acolBegain$[ebp]
  013e4	89 48 6c	 mov	 DWORD PTR [eax+108], ecx

; 410  : }

  013e7	8b e5		 mov	 esp, ebp
  013e9	5d		 pop	 ebp
  013ea	c2 04 00	 ret	 4
?SetBKColor@CColorSlide@@QAEXK@Z ENDP			; CColorSlide::SetBKColor
_TEXT	ENDS
PUBLIC	??_7CMemDC@@6B@					; CMemDC::`vftable'
PUBLIC	??_GCMemDC@@UAEPAXI@Z				; CMemDC::`scalar deleting destructor'
PUBLIC	??_R4CMemDC@@6B@				; CMemDC::`RTTI Complete Object Locator'
PUBLIC	??_R0?AVCMemDC@@@8				; CMemDC `RTTI Type Descriptor'
PUBLIC	??_R3CMemDC@@8					; CMemDC::`RTTI Class Hierarchy Descriptor'
PUBLIC	??_R2CMemDC@@8					; CMemDC::`RTTI Base Class Array'
PUBLIC	??_R1A@?0A@A@CMemDC@@8				; CMemDC::`RTTI Base Class Descriptor at (0,-1,0,0)'
PUBLIC	??_R1A@?0A@A@CDC@@8				; CDC::`RTTI Base Class Descriptor at (0,-1,0,0)'
PUBLIC	??_R0?AVCDC@@@8					; CDC `RTTI Type Descriptor'
EXTRN	?TextOutA@CDC@@UAEHHHPBDH@Z:NEAR		; CDC::TextOutA
EXTRN	?ExtTextOutA@CDC@@UAEHHHIPBUtagRECT@@PBDIPAH@Z:NEAR ; CDC::ExtTextOutA
EXTRN	?TabbedTextOutA@CDC@@UAE?AVCSize@@HHPBDHHPAHH@Z:NEAR ; CDC::TabbedTextOutA
EXTRN	?DrawTextA@CDC@@UAEHPBDHPAUtagRECT@@I@Z:NEAR	; CDC::DrawTextA
EXTRN	?DrawTextExA@CDC@@UAEHPADHPAUtagRECT@@IPAUtagDRAWTEXTPARAMS@@@Z:NEAR ; CDC::DrawTextExA
EXTRN	?GrayStringA@CDC@@UAEHPAVCBrush@@P6GHPAUHDC__@@JH@ZJHHHHH@Z:NEAR ; CDC::GrayStringA
EXTRN	?Escape@CDC@@UAEHHHPBDPAX@Z:NEAR		; CDC::Escape
EXTRN	??1CDC@@UAE@XZ:NEAR				; CDC::~CDC
EXTRN	?AssertValid@CDC@@UBEXXZ:NEAR			; CDC::AssertValid
EXTRN	?Dump@CDC@@UBEXAAVCDumpContext@@@Z:NEAR		; CDC::Dump
EXTRN	??0CBitmap@@QAE@XZ:NEAR				; CBitmap::CBitmap
EXTRN	?CreateCompatibleBitmap@CBitmap@@QAEHPAVCDC@@HH@Z:NEAR ; CBitmap::CreateCompatibleBitmap
EXTRN	??2CObject@@SGPAXI@Z:NEAR			; CObject::operator new
EXTRN	??_ECMemDC@@UAEPAXI@Z:NEAR			; CMemDC::`vector deleting destructor'
EXTRN	?GetRuntimeClass@CDC@@UBEPAUCRuntimeClass@@XZ:NEAR ; CDC::GetRuntimeClass
EXTRN	?SetAttribDC@CDC@@UAEXPAUHDC__@@@Z:NEAR		; CDC::SetAttribDC
EXTRN	?SetOutputDC@CDC@@UAEXPAUHDC__@@@Z:NEAR		; CDC::SetOutputDC
EXTRN	?ReleaseAttribDC@CDC@@UAEXXZ:NEAR		; CDC::ReleaseAttribDC
EXTRN	?ReleaseOutputDC@CDC@@UAEXXZ:NEAR		; CDC::ReleaseOutputDC
EXTRN	??0CDC@@QAE@XZ:NEAR				; CDC::CDC
EXTRN	?CreateCompatibleDC@CDC@@QAEHPAV1@@Z:NEAR	; CDC::CreateCompatibleDC
EXTRN	?SaveDC@CDC@@UAEHXZ:NEAR			; CDC::SaveDC
EXTRN	?RestoreDC@CDC@@UAEHH@Z:NEAR			; CDC::RestoreDC
EXTRN	?SelectStockObject@CDC@@UAEPAVCGdiObject@@H@Z:NEAR ; CDC::SelectStockObject
EXTRN	?SelectObject@CDC@@UAEPAVCFont@@PAV2@@Z:NEAR	; CDC::SelectObject
EXTRN	?SelectObject@CDC@@QAEPAVCBitmap@@PAV2@@Z:NEAR	; CDC::SelectObject
EXTRN	?SetBkColor@CDC@@UAEKK@Z:NEAR			; CDC::SetBkColor
EXTRN	?SetTextColor@CDC@@UAEKK@Z:NEAR			; CDC::SetTextColor
EXTRN	?SetMapMode@CDC@@UAEHH@Z:NEAR			; CDC::SetMapMode
EXTRN	?SetViewportOrg@CDC@@UAE?AVCPoint@@HH@Z:NEAR	; CDC::SetViewportOrg
EXTRN	?OffsetViewportOrg@CDC@@UAE?AVCPoint@@HH@Z:NEAR	; CDC::OffsetViewportOrg
EXTRN	?SetViewportExt@CDC@@UAE?AVCSize@@HH@Z:NEAR	; CDC::SetViewportExt
EXTRN	?ScaleViewportExt@CDC@@UAE?AVCSize@@HHHH@Z:NEAR	; CDC::ScaleViewportExt
EXTRN	?SetWindowExt@CDC@@UAE?AVCSize@@HH@Z:NEAR	; CDC::SetWindowExt
EXTRN	?ScaleWindowExt@CDC@@UAE?AVCSize@@HHHH@Z:NEAR	; CDC::ScaleWindowExt
EXTRN	?GetClipBox@CDC@@UBEHPAUtagRECT@@@Z:NEAR	; CDC::GetClipBox
EXTRN	?PtVisible@CDC@@UBEHHH@Z:NEAR			; CDC::PtVisible
EXTRN	?RectVisible@CDC@@UBEHPBUtagRECT@@@Z:NEAR	; CDC::RectVisible
;	COMDAT xdata$x
; File d:\boxgit\playbox\playbox\dev\prj\playbox\src\gui\commoncontrol\listctrol\gdiex.h
xdata$x	SEGMENT
$T188304 DD	0ffffffffH
	DD	FLAT:$L188299
	DD	00H
	DD	FLAT:$L188300
$T188302 DD	019930520H
	DD	02H
	DD	FLAT:$T188304
	DD	2 DUP(00H)
	DD	2 DUP(00H)
xdata$x	ENDS
;	COMDAT ??_7CMemDC@@6B@
CONST	SEGMENT
??_7CMemDC@@6B@ DD FLAT:??_R4CMemDC@@6B@		; CMemDC::`vftable'
	DD	FLAT:?GetRuntimeClass@CDC@@UBEPAUCRuntimeClass@@XZ
	DD	FLAT:??_ECMemDC@@UAEPAXI@Z
	DD	FLAT:?Serialize@CObject@@UAEXAAVCArchive@@@Z
	DD	FLAT:?AssertValid@CDC@@UBEXXZ
	DD	FLAT:?Dump@CDC@@UBEXAAVCDumpContext@@@Z
	DD	FLAT:?SetAttribDC@CDC@@UAEXPAUHDC__@@@Z
	DD	FLAT:?SetOutputDC@CDC@@UAEXPAUHDC__@@@Z
	DD	FLAT:?ReleaseAttribDC@CDC@@UAEXXZ
	DD	FLAT:?ReleaseOutputDC@CDC@@UAEXXZ
	DD	FLAT:?SaveDC@CDC@@UAEHXZ
	DD	FLAT:?RestoreDC@CDC@@UAEHH@Z
	DD	FLAT:?SelectStockObject@CDC@@UAEPAVCGdiObject@@H@Z
	DD	FLAT:?SelectObject@CDC@@UAEPAVCFont@@PAV2@@Z
	DD	FLAT:?SetBkColor@CDC@@UAEKK@Z
	DD	FLAT:?SetTextColor@CDC@@UAEKK@Z
	DD	FLAT:?SetMapMode@CDC@@UAEHH@Z
	DD	FLAT:?SetViewportOrg@CDC@@UAE?AVCPoint@@HH@Z
	DD	FLAT:?OffsetViewportOrg@CDC@@UAE?AVCPoint@@HH@Z
	DD	FLAT:?SetViewportExt@CDC@@UAE?AVCSize@@HH@Z
	DD	FLAT:?ScaleViewportExt@CDC@@UAE?AVCSize@@HHHH@Z
	DD	FLAT:?SetWindowExt@CDC@@UAE?AVCSize@@HH@Z
	DD	FLAT:?ScaleWindowExt@CDC@@UAE?AVCSize@@HHHH@Z
	DD	FLAT:?GetClipBox@CDC@@UBEHPAUtagRECT@@@Z
	DD	FLAT:?PtVisible@CDC@@UBEHHH@Z
	DD	FLAT:?RectVisible@CDC@@UBEHPBUtagRECT@@@Z
	DD	FLAT:?TextOutA@CDC@@UAEHHHPBDH@Z
	DD	FLAT:?ExtTextOutA@CDC@@UAEHHHIPBUtagRECT@@PBDIPAH@Z
	DD	FLAT:?TabbedTextOutA@CDC@@UAE?AVCSize@@HHPBDHHPAHH@Z
	DD	FLAT:?DrawTextA@CDC@@UAEHPBDHPAUtagRECT@@I@Z
	DD	FLAT:?DrawTextExA@CDC@@UAEHPADHPAUtagRECT@@IPAUtagDRAWTEXTPARAMS@@@Z
	DD	FLAT:?GrayStringA@CDC@@UAEHPAVCBrush@@P6GHPAUHDC__@@JH@ZJHHHHH@Z
	DD	FLAT:?Escape@CDC@@UAEHHHPBDPAX@Z
CONST	ENDS
;	COMDAT ??_R4CMemDC@@6B@
rdata$r	SEGMENT
??_R4CMemDC@@6B@ DD 00H					; CMemDC::`RTTI Complete Object Locator'
	DD	00H
	DD	00H
	DD	FLAT:??_R0?AVCMemDC@@@8
	DD	FLAT:??_R3CMemDC@@8
rdata$r	ENDS
;	COMDAT ??_R0?AVCMemDC@@@8
_DATA	SEGMENT
??_R0?AVCMemDC@@@8 DD FLAT:??_7type_info@@6B@		; CMemDC `RTTI Type Descriptor'
	DD	00H
	DB	'.?AVCMemDC@@', 00H
_DATA	ENDS
;	COMDAT ??_R3CMemDC@@8
rdata$r	SEGMENT
??_R3CMemDC@@8 DD 00H					; CMemDC::`RTTI Class Hierarchy Descriptor'
	DD	00H
	DD	03H
	DD	FLAT:??_R2CMemDC@@8
rdata$r	ENDS
;	COMDAT ??_R2CMemDC@@8
rdata$r	SEGMENT
??_R2CMemDC@@8 DD FLAT:??_R1A@?0A@A@CMemDC@@8		; CMemDC::`RTTI Base Class Array'
	DD	FLAT:??_R1A@?0A@A@CDC@@8
	DD	FLAT:??_R1A@?0A@A@CObject@@8
rdata$r	ENDS
;	COMDAT ??_R1A@?0A@A@CMemDC@@8
rdata$r	SEGMENT
??_R1A@?0A@A@CMemDC@@8 DD FLAT:??_R0?AVCMemDC@@@8	; CMemDC::`RTTI Base Class Descriptor at (0,-1,0,0)'
	DD	02H
	DD	00H
	DD	0ffffffffH
	DD	00H
	DD	00H
rdata$r	ENDS
;	COMDAT ??_R1A@?0A@A@CDC@@8
rdata$r	SEGMENT
??_R1A@?0A@A@CDC@@8 DD FLAT:??_R0?AVCDC@@@8		; CDC::`RTTI Base Class Descriptor at (0,-1,0,0)'
	DD	01H
	DD	00H
	DD	0ffffffffH
	DD	00H
	DD	00H
rdata$r	ENDS
;	COMDAT ??_R0?AVCDC@@@8
_DATA	SEGMENT
??_R0?AVCDC@@@8 DD FLAT:??_7type_info@@6B@		; CDC `RTTI Type Descriptor'
	DD	00H
	DB	'.?AVCDC@@', 00H
; Function compile flags: /Odt /RTCsu
_DATA	ENDS
;	COMDAT ??0CMemDC@@QAE@PAVCDC@@ABVCRect@@@Z
_TEXT	SEGMENT
tv79 = -28						; size = 4
$T188296 = -24						; size = 4
$T188295 = -20						; size = 4
_this$ = -16						; size = 4
__$EHRec$ = -12						; size = 12
_apDC$ = 8						; size = 4
_arcBounds$ = 12					; size = 4
??0CMemDC@@QAE@PAVCDC@@ABVCRect@@@Z PROC NEAR		; CMemDC::CMemDC, COMDAT
; _this$ = ecx

; 69   : 	{

  00000	55		 push	 ebp
  00001	8b ec		 mov	 ebp, esp
  00003	6a ff		 push	 -1
  00005	68 00 00 00 00	 push	 __ehhandler$??0CMemDC@@QAE@PAVCDC@@ABVCRect@@@Z
  0000a	64 a1 00 00 00
	00		 mov	 eax, DWORD PTR fs:__except_list
  00010	50		 push	 eax
  00011	64 89 25 00 00
	00 00		 mov	 DWORD PTR fs:__except_list, esp
  00018	83 ec 10	 sub	 esp, 16			; 00000010H
  0001b	b8 cc cc cc cc	 mov	 eax, -858993460		; ccccccccH
  00020	89 45 e4	 mov	 DWORD PTR [ebp-28], eax
  00023	89 45 e8	 mov	 DWORD PTR [ebp-24], eax
  00026	89 45 ec	 mov	 DWORD PTR [ebp-20], eax
  00029	89 45 f0	 mov	 DWORD PTR [ebp-16], eax
  0002c	89 4d f0	 mov	 DWORD PTR _this$[ebp], ecx
  0002f	8b 4d f0	 mov	 ecx, DWORD PTR _this$[ebp]
  00032	e8 00 00 00 00	 call	 ??0CDC@@QAE@XZ		; CDC::CDC
  00037	c7 45 fc 00 00
	00 00		 mov	 DWORD PTR __$EHRec$[ebp+8], 0
  0003e	8b 45 f0	 mov	 eax, DWORD PTR _this$[ebp]
  00041	c7 00 00 00 00
	00		 mov	 DWORD PTR [eax], OFFSET FLAT:??_7CMemDC@@6B@
  00047	8b 4d f0	 mov	 ecx, DWORD PTR _this$[ebp]
  0004a	83 c1 1c	 add	 ecx, 28			; 0000001cH
  0004d	e8 00 00 00 00	 call	 ??0CRect@@QAE@XZ	; CRect::CRect

; 70   : 		CreateCompatibleDC(apDC);

  00052	8b 4d 08	 mov	 ecx, DWORD PTR _apDC$[ebp]
  00055	51		 push	 ecx
  00056	8b 4d f0	 mov	 ecx, DWORD PTR _this$[ebp]
  00059	e8 00 00 00 00	 call	 ?CreateCompatibleDC@CDC@@QAEHPAV1@@Z ; CDC::CreateCompatibleDC

; 71   : 		mpBitmap = new CBitmap;

  0005e	6a 08		 push	 8
  00060	e8 00 00 00 00	 call	 ??2CObject@@SGPAXI@Z	; CObject::operator new
  00065	89 45 e8	 mov	 DWORD PTR $T188296[ebp], eax
  00068	c6 45 fc 01	 mov	 BYTE PTR __$EHRec$[ebp+8], 1
  0006c	83 7d e8 00	 cmp	 DWORD PTR $T188296[ebp], 0
  00070	74 0d		 je	 SHORT $L188297
  00072	8b 4d e8	 mov	 ecx, DWORD PTR $T188296[ebp]
  00075	e8 00 00 00 00	 call	 ??0CBitmap@@QAE@XZ	; CBitmap::CBitmap
  0007a	89 45 e4	 mov	 DWORD PTR tv79[ebp], eax
  0007d	eb 07		 jmp	 SHORT $L188298
$L188297:
  0007f	c7 45 e4 00 00
	00 00		 mov	 DWORD PTR tv79[ebp], 0
$L188298:
  00086	8b 55 e4	 mov	 edx, DWORD PTR tv79[ebp]
  00089	89 55 ec	 mov	 DWORD PTR $T188295[ebp], edx
  0008c	c6 45 fc 00	 mov	 BYTE PTR __$EHRec$[ebp+8], 0
  00090	8b 45 f0	 mov	 eax, DWORD PTR _this$[ebp]
  00093	8b 4d ec	 mov	 ecx, DWORD PTR $T188295[ebp]
  00096	89 48 10	 mov	 DWORD PTR [eax+16], ecx

; 72   : 		mpBitmap->CreateCompatibleBitmap(apDC, arcBounds.Width() + arcBounds.left, arcBounds.Height() + arcBounds.top);

  00099	8b 4d 0c	 mov	 ecx, DWORD PTR _arcBounds$[ebp]
  0009c	e8 00 00 00 00	 call	 ?Height@CRect@@QBEHXZ	; CRect::Height
  000a1	8b 55 0c	 mov	 edx, DWORD PTR _arcBounds$[ebp]
  000a4	03 42 04	 add	 eax, DWORD PTR [edx+4]
  000a7	50		 push	 eax
  000a8	8b 4d 0c	 mov	 ecx, DWORD PTR _arcBounds$[ebp]
  000ab	e8 00 00 00 00	 call	 ?Width@CRect@@QBEHXZ	; CRect::Width
  000b0	8b 4d 0c	 mov	 ecx, DWORD PTR _arcBounds$[ebp]
  000b3	03 01		 add	 eax, DWORD PTR [ecx]
  000b5	50		 push	 eax
  000b6	8b 55 08	 mov	 edx, DWORD PTR _apDC$[ebp]
  000b9	52		 push	 edx
  000ba	8b 45 f0	 mov	 eax, DWORD PTR _this$[ebp]
  000bd	8b 48 10	 mov	 ecx, DWORD PTR [eax+16]
  000c0	e8 00 00 00 00	 call	 ?CreateCompatibleBitmap@CBitmap@@QAEHPAVCDC@@HH@Z ; CBitmap::CreateCompatibleBitmap

; 73   : 		mpOldBitmap = SelectObject(mpBitmap);

  000c5	8b 4d f0	 mov	 ecx, DWORD PTR _this$[ebp]
  000c8	8b 51 10	 mov	 edx, DWORD PTR [ecx+16]
  000cb	52		 push	 edx
  000cc	8b 4d f0	 mov	 ecx, DWORD PTR _this$[ebp]
  000cf	e8 00 00 00 00	 call	 ?SelectObject@CDC@@QAEPAVCBitmap@@PAV2@@Z ; CDC::SelectObject
  000d4	8b 4d f0	 mov	 ecx, DWORD PTR _this$[ebp]
  000d7	89 41 14	 mov	 DWORD PTR [ecx+20], eax

; 74   : 		mpDC = apDC;

  000da	8b 55 f0	 mov	 edx, DWORD PTR _this$[ebp]
  000dd	8b 45 08	 mov	 eax, DWORD PTR _apDC$[ebp]
  000e0	89 42 18	 mov	 DWORD PTR [edx+24], eax

; 75   : 		mrcBounds = arcBounds;

  000e3	8b 4d 0c	 mov	 ecx, DWORD PTR _arcBounds$[ebp]
  000e6	8b 55 f0	 mov	 edx, DWORD PTR _this$[ebp]
  000e9	83 c2 1c	 add	 edx, 28			; 0000001cH
  000ec	8b 01		 mov	 eax, DWORD PTR [ecx]
  000ee	89 02		 mov	 DWORD PTR [edx], eax
  000f0	8b 41 04	 mov	 eax, DWORD PTR [ecx+4]
  000f3	89 42 04	 mov	 DWORD PTR [edx+4], eax
  000f6	8b 41 08	 mov	 eax, DWORD PTR [ecx+8]
  000f9	89 42 08	 mov	 DWORD PTR [edx+8], eax
  000fc	8b 49 0c	 mov	 ecx, DWORD PTR [ecx+12]
  000ff	89 4a 0c	 mov	 DWORD PTR [edx+12], ecx

; 76   : 	}

  00102	c7 45 fc ff ff
	ff ff		 mov	 DWORD PTR __$EHRec$[ebp+8], -1
  00109	8b 45 f0	 mov	 eax, DWORD PTR _this$[ebp]
  0010c	8b 4d f4	 mov	 ecx, DWORD PTR __$EHRec$[ebp]
  0010f	64 89 0d 00 00
	00 00		 mov	 DWORD PTR fs:__except_list, ecx
  00116	83 c4 1c	 add	 esp, 28			; 0000001cH
  00119	3b ec		 cmp	 ebp, esp
  0011b	e8 00 00 00 00	 call	 __RTC_CheckEsp
  00120	8b e5		 mov	 esp, ebp
  00122	5d		 pop	 ebp
  00123	c2 08 00	 ret	 8
_TEXT	ENDS
;	COMDAT text$x
text$x	SEGMENT
$L188299:
  00000	8b 4d f0	 mov	 ecx, DWORD PTR _this$[ebp]
  00003	e9 00 00 00 00	 jmp	 ??1CDC@@UAE@XZ		; CDC::~CDC
$L188300:
  00008	8b 45 e8	 mov	 eax, DWORD PTR $T188296[ebp]
  0000b	50		 push	 eax
  0000c	e8 00 00 00 00	 call	 ??3CObject@@SGXPAX@Z	; CObject::operator delete
  00011	c3		 ret	 0
__ehhandler$??0CMemDC@@QAE@PAVCDC@@ABVCRect@@@Z:
  00012	b8 00 00 00 00	 mov	 eax, OFFSET FLAT:$T188302
  00017	e9 00 00 00 00	 jmp	 ___CxxFrameHandler
text$x	ENDS
??0CMemDC@@QAE@PAVCDC@@ABVCRect@@@Z ENDP		; CMemDC::CMemDC
EXTRN	?BitBlt@CDC@@QAEHHHHHPAV1@HHK@Z:NEAR		; CDC::BitBlt
;	COMDAT xdata$x
xdata$x	SEGMENT
$T188316 DD	0ffffffffH
	DD	FLAT:$L188312
$T188314 DD	019930520H
	DD	01H
	DD	FLAT:$T188316
	DD	2 DUP(00H)
	DD	2 DUP(00H)
; Function compile flags: /Odt /RTCsu
xdata$x	ENDS
;	COMDAT ??1CMemDC@@UAE@XZ
_TEXT	SEGMENT
tv134 = -28						; size = 4
$T188309 = -24						; size = 4
$T188308 = -20						; size = 4
_this$ = -16						; size = 4
__$EHRec$ = -12						; size = 12
??1CMemDC@@UAE@XZ PROC NEAR				; CMemDC::~CMemDC, COMDAT
; _this$ = ecx

; 78   : 	{

  00000	55		 push	 ebp
  00001	8b ec		 mov	 ebp, esp
  00003	6a ff		 push	 -1
  00005	68 00 00 00 00	 push	 __ehhandler$??1CMemDC@@UAE@XZ
  0000a	64 a1 00 00 00
	00		 mov	 eax, DWORD PTR fs:__except_list
  00010	50		 push	 eax
  00011	64 89 25 00 00
	00 00		 mov	 DWORD PTR fs:__except_list, esp
  00018	83 ec 10	 sub	 esp, 16			; 00000010H
  0001b	56		 push	 esi
  0001c	b8 cc cc cc cc	 mov	 eax, -858993460		; ccccccccH
  00021	89 45 e4	 mov	 DWORD PTR [ebp-28], eax
  00024	89 45 e8	 mov	 DWORD PTR [ebp-24], eax
  00027	89 45 ec	 mov	 DWORD PTR [ebp-20], eax
  0002a	89 45 f0	 mov	 DWORD PTR [ebp-16], eax
  0002d	89 4d f0	 mov	 DWORD PTR _this$[ebp], ecx
  00030	8b 45 f0	 mov	 eax, DWORD PTR _this$[ebp]
  00033	c7 00 00 00 00
	00		 mov	 DWORD PTR [eax], OFFSET FLAT:??_7CMemDC@@6B@
  00039	c7 45 fc 00 00
	00 00		 mov	 DWORD PTR __$EHRec$[ebp+8], 0

; 79   : 		mpDC->BitBlt(mrcBounds.left, mrcBounds.top, mrcBounds.Width(), mrcBounds.Height(), 
; 80   : 					this, mrcBounds.left, mrcBounds.top, SRCCOPY);

  00040	68 20 00 cc 00	 push	 13369376		; 00cc0020H
  00045	8b 4d f0	 mov	 ecx, DWORD PTR _this$[ebp]
  00048	8b 51 20	 mov	 edx, DWORD PTR [ecx+32]
  0004b	52		 push	 edx
  0004c	8b 45 f0	 mov	 eax, DWORD PTR _this$[ebp]
  0004f	8b 48 1c	 mov	 ecx, DWORD PTR [eax+28]
  00052	51		 push	 ecx
  00053	8b 55 f0	 mov	 edx, DWORD PTR _this$[ebp]
  00056	52		 push	 edx
  00057	8b 4d f0	 mov	 ecx, DWORD PTR _this$[ebp]
  0005a	83 c1 1c	 add	 ecx, 28			; 0000001cH
  0005d	e8 00 00 00 00	 call	 ?Height@CRect@@QBEHXZ	; CRect::Height
  00062	50		 push	 eax
  00063	8b 4d f0	 mov	 ecx, DWORD PTR _this$[ebp]
  00066	83 c1 1c	 add	 ecx, 28			; 0000001cH
  00069	e8 00 00 00 00	 call	 ?Width@CRect@@QBEHXZ	; CRect::Width
  0006e	50		 push	 eax
  0006f	8b 45 f0	 mov	 eax, DWORD PTR _this$[ebp]
  00072	8b 48 20	 mov	 ecx, DWORD PTR [eax+32]
  00075	51		 push	 ecx
  00076	8b 55 f0	 mov	 edx, DWORD PTR _this$[ebp]
  00079	8b 42 1c	 mov	 eax, DWORD PTR [edx+28]
  0007c	50		 push	 eax
  0007d	8b 4d f0	 mov	 ecx, DWORD PTR _this$[ebp]
  00080	8b 49 18	 mov	 ecx, DWORD PTR [ecx+24]
  00083	e8 00 00 00 00	 call	 ?BitBlt@CDC@@QAEHHHHHPAV1@HHK@Z ; CDC::BitBlt

; 81   : 		SelectObject(mpOldBitmap);

  00088	8b 55 f0	 mov	 edx, DWORD PTR _this$[ebp]
  0008b	8b 42 14	 mov	 eax, DWORD PTR [edx+20]
  0008e	50		 push	 eax
  0008f	8b 4d f0	 mov	 ecx, DWORD PTR _this$[ebp]
  00092	e8 00 00 00 00	 call	 ?SelectObject@CDC@@QAEPAVCBitmap@@PAV2@@Z ; CDC::SelectObject

; 82   : 		if (mpBitmap != NULL)

  00097	8b 4d f0	 mov	 ecx, DWORD PTR _this$[ebp]
  0009a	83 79 10 00	 cmp	 DWORD PTR [ecx+16], 0
  0009e	74 41		 je	 SHORT $L107046

; 83   : 		{
; 84   : 			delete mpBitmap;

  000a0	8b 55 f0	 mov	 edx, DWORD PTR _this$[ebp]
  000a3	8b 42 10	 mov	 eax, DWORD PTR [edx+16]
  000a6	89 45 e8	 mov	 DWORD PTR $T188309[ebp], eax
  000a9	8b 4d e8	 mov	 ecx, DWORD PTR $T188309[ebp]
  000ac	89 4d ec	 mov	 DWORD PTR $T188308[ebp], ecx
  000af	83 7d ec 00	 cmp	 DWORD PTR $T188308[ebp], 0
  000b3	74 1b		 je	 SHORT $L188310
  000b5	8b f4		 mov	 esi, esp
  000b7	6a 01		 push	 1
  000b9	8b 55 ec	 mov	 edx, DWORD PTR $T188308[ebp]
  000bc	8b 02		 mov	 eax, DWORD PTR [edx]
  000be	8b 4d ec	 mov	 ecx, DWORD PTR $T188308[ebp]
  000c1	ff 50 04	 call	 DWORD PTR [eax+4]
  000c4	3b f4		 cmp	 esi, esp
  000c6	e8 00 00 00 00	 call	 __RTC_CheckEsp
  000cb	89 45 e4	 mov	 DWORD PTR tv134[ebp], eax
  000ce	eb 07		 jmp	 SHORT $L188311
$L188310:
  000d0	c7 45 e4 00 00
	00 00		 mov	 DWORD PTR tv134[ebp], 0
$L188311:

; 85   : 			mpBitmap = NULL;

  000d7	8b 4d f0	 mov	 ecx, DWORD PTR _this$[ebp]
  000da	c7 41 10 00 00
	00 00		 mov	 DWORD PTR [ecx+16], 0
$L107046:

; 86   : 		}
; 87   : 	}

  000e1	c7 45 fc ff ff
	ff ff		 mov	 DWORD PTR __$EHRec$[ebp+8], -1
  000e8	8b 4d f0	 mov	 ecx, DWORD PTR _this$[ebp]
  000eb	e8 00 00 00 00	 call	 ??1CDC@@UAE@XZ		; CDC::~CDC
  000f0	8b 4d f4	 mov	 ecx, DWORD PTR __$EHRec$[ebp]
  000f3	64 89 0d 00 00
	00 00		 mov	 DWORD PTR fs:__except_list, ecx
  000fa	5e		 pop	 esi
  000fb	83 c4 1c	 add	 esp, 28			; 0000001cH
  000fe	3b ec		 cmp	 ebp, esp
  00100	e8 00 00 00 00	 call	 __RTC_CheckEsp
  00105	8b e5		 mov	 esp, ebp
  00107	5d		 pop	 ebp
  00108	c3		 ret	 0
_TEXT	ENDS
;	COMDAT text$x
text$x	SEGMENT
$L188312:
  00000	8b 4d f0	 mov	 ecx, DWORD PTR _this$[ebp]
  00003	e9 00 00 00 00	 jmp	 ??1CDC@@UAE@XZ		; CDC::~CDC
__ehhandler$??1CMemDC@@UAE@XZ:
  00008	b8 00 00 00 00	 mov	 eax, OFFSET FLAT:$T188314
  0000d	e9 00 00 00 00	 jmp	 ___CxxFrameHandler
text$x	ENDS
??1CMemDC@@UAE@XZ ENDP					; CMemDC::~CMemDC
; Function compile flags: /Odt /RTCsu
;	COMDAT ??_GCMemDC@@UAEPAXI@Z
_TEXT	SEGMENT
_this$ = -4						; size = 4
___flags$ = 8						; size = 4
??_GCMemDC@@UAEPAXI@Z PROC NEAR				; CMemDC::`scalar deleting destructor', COMDAT
; _this$ = ecx
  00000	55		 push	 ebp
  00001	8b ec		 mov	 ebp, esp
  00003	51		 push	 ecx
  00004	c7 45 fc cc cc
	cc cc		 mov	 DWORD PTR [ebp-4], -858993460 ; ccccccccH
  0000b	89 4d fc	 mov	 DWORD PTR _this$[ebp], ecx
  0000e	8b 4d fc	 mov	 ecx, DWORD PTR _this$[ebp]
  00011	e8 00 00 00 00	 call	 ??1CMemDC@@UAE@XZ	; CMemDC::~CMemDC
  00016	8b 45 08	 mov	 eax, DWORD PTR ___flags$[ebp]
  00019	83 e0 01	 and	 eax, 1
  0001c	74 09		 je	 SHORT $L107056
  0001e	8b 4d fc	 mov	 ecx, DWORD PTR _this$[ebp]
  00021	51		 push	 ecx
  00022	e8 00 00 00 00	 call	 ??3CObject@@SGXPAX@Z	; CObject::operator delete
$L107056:
  00027	8b 45 fc	 mov	 eax, DWORD PTR _this$[ebp]
  0002a	83 c4 04	 add	 esp, 4
  0002d	3b ec		 cmp	 ebp, esp
  0002f	e8 00 00 00 00	 call	 __RTC_CheckEsp
  00034	8b e5		 mov	 esp, ebp
  00036	5d		 pop	 ebp
  00037	c2 04 00	 ret	 4
??_GCMemDC@@UAEPAXI@Z ENDP				; CMemDC::`scalar deleting destructor'
_TEXT	ENDS
END
