; Listing generated by Microsoft (R) Optimizing Compiler Version 13.10.3077 

	TITLE	.\src\module\WebInteract\Custsite.cpp
	.386P
include listing.inc
if @Version gt 510
.model FLAT
else
_TEXT	SEGMENT PARA USE32 PUBLIC 'CODE'
_TEXT	ENDS
_DATA	SEGMENT DWORD USE32 PUBLIC 'DATA'
_DATA	ENDS
CONST	SEGMENT DWORD USE32 PUBLIC 'CONST'
CONST	ENDS
_BSS	SEGMENT DWORD USE32 PUBLIC 'BSS'
_BSS	ENDS
$$SYMBOLS	SEGMENT BYTE USE32 'DEBSYM'
$$SYMBOLS	ENDS
_TLS	SEGMENT DWORD USE32 PUBLIC 'TLS'
_TLS	ENDS
;	COMDAT ??_C@_0EN@IBFBLEEG@D?3?2Program?5Files?5?$CIx86?$CJ?2Microsoft@
CONST	SEGMENT DWORD USE32 PUBLIC 'CONST'
CONST	ENDS
rdata$r	SEGMENT DWORD USE32 PUBLIC 'CONST'
rdata$r	ENDS
xdata$x	SEGMENT DWORD USE32 PUBLIC 'CONST'
xdata$x	ENDS
text$AFX_COL1	SEGMENT PARA USE32 PUBLIC ''
text$AFX_COL1	ENDS
text$yc	SEGMENT PARA USE32 PUBLIC 'CODE'
text$yc	ENDS
CRT$XCA	SEGMENT DWORD USE32 PUBLIC 'DATA'
CRT$XCA	ENDS
CRT$XCU	SEGMENT DWORD USE32 PUBLIC 'DATA'
CRT$XCU	ENDS
CRT$XCL	SEGMENT DWORD USE32 PUBLIC 'DATA'
CRT$XCL	ENDS
CRT$XCC	SEGMENT DWORD USE32 PUBLIC 'DATA'
CRT$XCC	ENDS
CRT$XCZ	SEGMENT DWORD USE32 PUBLIC 'DATA'
CRT$XCZ	ENDS
text$yd	SEGMENT PARA USE32 PUBLIC 'CODE'
text$yd	ENDS
ATL$__m	SEGMENT DWORD USE32 PUBLIC ''
ATL$__m	ENDS
ATL$__z	SEGMENT DWORD USE32 PUBLIC ''
ATL$__z	ENDS
ATL$__a	SEGMENT DWORD USE32 PUBLIC ''
ATL$__a	ENDS
;	COMDAT ??0CCustomControlSite@@QAE@PAVCOleControlContainer@@@Z
_TEXT	SEGMENT PARA USE32 PUBLIC 'CODE'
_TEXT	ENDS
;	COMDAT ??_GCCustomControlSite@@UAEPAXI@Z
_TEXT	SEGMENT PARA USE32 PUBLIC 'CODE'
_TEXT	ENDS
;	COMDAT ??0XDocHostShowUI@CCustomControlSite@@QAE@XZ
_TEXT	SEGMENT PARA USE32 PUBLIC 'CODE'
_TEXT	ENDS
;	COMDAT ??0XDocHostUIHandler@CCustomControlSite@@QAE@XZ
_TEXT	SEGMENT PARA USE32 PUBLIC 'CODE'
_TEXT	ENDS
;	COMDAT ??1CCustomControlSite@@UAE@XZ
_TEXT	SEGMENT PARA USE32 PUBLIC 'CODE'
_TEXT	ENDS
;	COMDAT ??0IDocHostShowUI@@QAE@XZ
_TEXT	SEGMENT PARA USE32 PUBLIC 'CODE'
_TEXT	ENDS
;	COMDAT ??0IDocHostUIHandler@@QAE@XZ
_TEXT	SEGMENT PARA USE32 PUBLIC 'CODE'
_TEXT	ENDS
;	COMDAT ?CreateSite@CCustomOccManager@@UAEPAVCOleControlSite@@PAVCOleControlContainer@@@Z
_TEXT	SEGMENT PARA USE32 PUBLIC 'CODE'
_TEXT	ENDS
;	COMDAT ??_GCCustomOccManager@@UAEPAXI@Z
_TEXT	SEGMENT PARA USE32 PUBLIC 'CODE'
_TEXT	ENDS
;	COMDAT ??0COccManager@@QAE@XZ
_TEXT	SEGMENT PARA USE32 PUBLIC 'CODE'
_TEXT	ENDS
;	COMDAT ??1COccManager@@UAE@XZ
_TEXT	SEGMENT PARA USE32 PUBLIC 'CODE'
_TEXT	ENDS
;	COMDAT ??1CCustomOccManager@@UAE@XZ
_TEXT	SEGMENT PARA USE32 PUBLIC 'CODE'
_TEXT	ENDS
;	COMDAT ??_GCOccManager@@UAEPAXI@Z
_TEXT	SEGMENT PARA USE32 PUBLIC 'CODE'
_TEXT	ENDS
;	COMDAT ??0CNoTrackObject@@QAE@XZ
_TEXT	SEGMENT PARA USE32 PUBLIC 'CODE'
_TEXT	ENDS
;	COMDAT ??B?$CComPtrBase@UITypeInfo2@@@ATL@@QBEPAUITypeInfo2@@XZ
_TEXT	SEGMENT PARA USE32 PUBLIC 'CODE'
_TEXT	ENDS
;	COMDAT ?equal@?$istreambuf_iterator@DU?$char_traits@D@std@@@std@@QBE_NABV12@@Z
_TEXT	SEGMENT PARA USE32 PUBLIC 'CODE'
_TEXT	ENDS
;	COMDAT ?equal@?$istreambuf_iterator@_WU?$char_traits@_W@std@@@std@@QBE_NABV12@@Z
_TEXT	SEGMENT PARA USE32 PUBLIC 'CODE'
_TEXT	ENDS
;	COMDAT ?Unlock@?$CComCritSecLock@VCComCriticalSection@ATL@@@ATL@@QAEXXZ
_TEXT	SEGMENT PARA USE32 PUBLIC 'CODE'
_TEXT	ENDS
;	COMDAT ??$_Maklocstr@D@std@@YAPADPBDPADABU_Cvtvec@@@Z
_TEXT	SEGMENT PARA USE32 PUBLIC 'CODE'
_TEXT	ENDS
;	COMDAT ??_R3XDocHostShowUI@CCustomControlSite@@8
rdata$r	SEGMENT DWORD USE32 PUBLIC 'CONST'
rdata$r	ENDS
;	COMDAT ??_R3CCustomControlSite@@8
rdata$r	SEGMENT DWORD USE32 PUBLIC 'CONST'
rdata$r	ENDS
;	COMDAT ??_R3IDocHostShowUI@@8
rdata$r	SEGMENT DWORD USE32 PUBLIC 'CONST'
rdata$r	ENDS
;	COMDAT ??_R3COccManager@@8
rdata$r	SEGMENT DWORD USE32 PUBLIC 'CONST'
rdata$r	ENDS
;	COMDAT ??_R3IDocHostUIHandler@@8
rdata$r	SEGMENT DWORD USE32 PUBLIC 'CONST'
rdata$r	ENDS
;	COMDAT ??_R3?$numpunct@_W@std@@8
rdata$r	SEGMENT DWORD USE32 PUBLIC 'CONST'
rdata$r	ENDS
;	COMDAT ??_R3?$numpunct@D@std@@8
rdata$r	SEGMENT DWORD USE32 PUBLIC 'CONST'
rdata$r	ENDS
;	COMDAT ??_R3CCustomOccManager@@8
rdata$r	SEGMENT DWORD USE32 PUBLIC 'CONST'
rdata$r	ENDS
;	COMDAT ??_R3XDocHostUIHandler@CCustomControlSite@@8
rdata$r	SEGMENT DWORD USE32 PUBLIC 'CONST'
rdata$r	ENDS
;	COMDAT ??_R2XDocHostShowUI@CCustomControlSite@@8
rdata$r	SEGMENT DWORD USE32 PUBLIC 'CONST'
rdata$r	ENDS
;	COMDAT ??_R2CCustomControlSite@@8
rdata$r	SEGMENT DWORD USE32 PUBLIC 'CONST'
rdata$r	ENDS
;	COMDAT ??_R2IDocHostShowUI@@8
rdata$r	SEGMENT DWORD USE32 PUBLIC 'CONST'
rdata$r	ENDS
;	COMDAT ??_R2COccManager@@8
rdata$r	SEGMENT DWORD USE32 PUBLIC 'CONST'
rdata$r	ENDS
;	COMDAT ??_R2IDocHostUIHandler@@8
rdata$r	SEGMENT DWORD USE32 PUBLIC 'CONST'
rdata$r	ENDS
;	COMDAT ??_R2?$numpunct@_W@std@@8
rdata$r	SEGMENT DWORD USE32 PUBLIC 'CONST'
rdata$r	ENDS
;	COMDAT ??_R2?$numpunct@D@std@@8
rdata$r	SEGMENT DWORD USE32 PUBLIC 'CONST'
rdata$r	ENDS
;	COMDAT ??_R2CCustomOccManager@@8
rdata$r	SEGMENT DWORD USE32 PUBLIC 'CONST'
rdata$r	ENDS
;	COMDAT ??_R2XDocHostUIHandler@CCustomControlSite@@8
rdata$r	SEGMENT DWORD USE32 PUBLIC 'CONST'
rdata$r	ENDS
;	COMDAT ??_R1A@?0A@A@XDocHostShowUI@CCustomControlSite@@8
rdata$r	SEGMENT DWORD USE32 PUBLIC 'CONST'
rdata$r	ENDS
;	COMDAT ??_R1A@?0A@A@CObject@@8
rdata$r	SEGMENT DWORD USE32 PUBLIC 'CONST'
rdata$r	ENDS
;	COMDAT ??_R0?AVCObject@@@8
_DATA	SEGMENT DWORD USE32 PUBLIC 'DATA'
_DATA	ENDS
;	COMDAT ??_R1A@?0A@A@CCmdTarget@@8
rdata$r	SEGMENT DWORD USE32 PUBLIC 'CONST'
rdata$r	ENDS
;	COMDAT ??_R0?AVCCmdTarget@@@8
_DATA	SEGMENT DWORD USE32 PUBLIC 'DATA'
_DATA	ENDS
;	COMDAT ??_R1A@?0A@A@COleControlSite@@8
rdata$r	SEGMENT DWORD USE32 PUBLIC 'CONST'
rdata$r	ENDS
;	COMDAT ??_R1A@?0A@A@CCustomControlSite@@8
rdata$r	SEGMENT DWORD USE32 PUBLIC 'CONST'
rdata$r	ENDS
;	COMDAT ??_R1A@?0A@A@IDocHostShowUI@@8
rdata$r	SEGMENT DWORD USE32 PUBLIC 'CONST'
rdata$r	ENDS
;	COMDAT ??_R1A@?0A@A@?$numpunct@_W@std@@8
rdata$r	SEGMENT DWORD USE32 PUBLIC 'CONST'
rdata$r	ENDS
;	COMDAT ??_R1A@?0A@A@facet@locale@std@@8
rdata$r	SEGMENT DWORD USE32 PUBLIC 'CONST'
rdata$r	ENDS
;	COMDAT ??_R0?AVfacet@locale@std@@@8
_DATA	SEGMENT DWORD USE32 PUBLIC 'DATA'
_DATA	ENDS
;	COMDAT ??_R1A@?0A@A@?$numpunct@D@std@@8
rdata$r	SEGMENT DWORD USE32 PUBLIC 'CONST'
rdata$r	ENDS
;	COMDAT ??_R1A@?0A@A@CNoTrackObject@@8
rdata$r	SEGMENT DWORD USE32 PUBLIC 'CONST'
rdata$r	ENDS
;	COMDAT ??_R0?AVCNoTrackObject@@@8
_DATA	SEGMENT DWORD USE32 PUBLIC 'DATA'
_DATA	ENDS
;	COMDAT ??_R1A@?0A@A@COccManager@@8
rdata$r	SEGMENT DWORD USE32 PUBLIC 'CONST'
rdata$r	ENDS
;	COMDAT ??_R1A@?0A@A@CCustomOccManager@@8
rdata$r	SEGMENT DWORD USE32 PUBLIC 'CONST'
rdata$r	ENDS
;	COMDAT ??_R1A@?0A@A@IUnknown@@8
rdata$r	SEGMENT DWORD USE32 PUBLIC 'CONST'
rdata$r	ENDS
;	COMDAT ??_R0?AUIUnknown@@@8
_DATA	SEGMENT DWORD USE32 PUBLIC 'DATA'
_DATA	ENDS
;	COMDAT ??_R1A@?0A@A@IDocHostUIHandler@@8
rdata$r	SEGMENT DWORD USE32 PUBLIC 'CONST'
rdata$r	ENDS
;	COMDAT ??_R1A@?0A@A@XDocHostUIHandler@CCustomControlSite@@8
rdata$r	SEGMENT DWORD USE32 PUBLIC 'CONST'
rdata$r	ENDS
;	COMDAT ??_R0?AVXDocHostShowUI@CCustomControlSite@@@8
_DATA	SEGMENT DWORD USE32 PUBLIC 'DATA'
_DATA	ENDS
;	COMDAT ??_R0?AVCOleControlSite@@@8
_DATA	SEGMENT DWORD USE32 PUBLIC 'DATA'
_DATA	ENDS
;	COMDAT ??_R0?AVCCustomControlSite@@@8
_DATA	SEGMENT DWORD USE32 PUBLIC 'DATA'
_DATA	ENDS
;	COMDAT ??_R0?AUIDocHostShowUI@@@8
_DATA	SEGMENT DWORD USE32 PUBLIC 'DATA'
_DATA	ENDS
;	COMDAT ??_R0?AV?$numpunct@_W@std@@@8
_DATA	SEGMENT DWORD USE32 PUBLIC 'DATA'
_DATA	ENDS
;	COMDAT ??_R0?AV?$numpunct@D@std@@@8
_DATA	SEGMENT DWORD USE32 PUBLIC 'DATA'
_DATA	ENDS
;	COMDAT ??_R0?AVCOccManager@@@8
_DATA	SEGMENT DWORD USE32 PUBLIC 'DATA'
_DATA	ENDS
;	COMDAT ??_R0?AVCCustomOccManager@@@8
_DATA	SEGMENT DWORD USE32 PUBLIC 'DATA'
_DATA	ENDS
;	COMDAT ??_R0?AUIDocHostUIHandler@@@8
_DATA	SEGMENT DWORD USE32 PUBLIC 'DATA'
_DATA	ENDS
;	COMDAT ??_R0?AVXDocHostUIHandler@CCustomControlSite@@@8
_DATA	SEGMENT DWORD USE32 PUBLIC 'DATA'
_DATA	ENDS
;	COMDAT ??_R4XDocHostShowUI@CCustomControlSite@@6B@
rdata$r	SEGMENT DWORD USE32 PUBLIC 'CONST'
rdata$r	ENDS
;	COMDAT ??_R4CCustomControlSite@@6B@
rdata$r	SEGMENT DWORD USE32 PUBLIC 'CONST'
rdata$r	ENDS
;	COMDAT ??_R4IDocHostShowUI@@6B@
rdata$r	SEGMENT DWORD USE32 PUBLIC 'CONST'
rdata$r	ENDS
;	COMDAT ??_R4COccManager@@6B@
rdata$r	SEGMENT DWORD USE32 PUBLIC 'CONST'
rdata$r	ENDS
;	COMDAT ??_R4IDocHostUIHandler@@6B@
rdata$r	SEGMENT DWORD USE32 PUBLIC 'CONST'
rdata$r	ENDS
;	COMDAT ??0?$allocator@_W@std@@QAE@XZ
_TEXT	SEGMENT PARA USE32 PUBLIC 'CODE'
_TEXT	ENDS
;	COMDAT ??0?$allocator@D@std@@QAE@ABV01@@Z
_TEXT	SEGMENT PARA USE32 PUBLIC 'CODE'
_TEXT	ENDS
;	COMDAT ??0?$allocator@D@std@@QAE@XZ
_TEXT	SEGMENT PARA USE32 PUBLIC 'CODE'
_TEXT	ENDS
;	COMDAT ?deallocate@?$allocator@D@std@@QAEXPADI@Z
_TEXT	SEGMENT PARA USE32 PUBLIC 'CODE'
_TEXT	ENDS
;	COMDAT ?max_size@?$allocator@D@std@@QBEIXZ
_TEXT	SEGMENT PARA USE32 PUBLIC 'CODE'
_TEXT	ENDS
;	COMDAT ?allocate@?$allocator@D@std@@QAEPADI@Z
_TEXT	SEGMENT PARA USE32 PUBLIC 'CODE'
_TEXT	ENDS
;	COMDAT ??$_Allocate@D@std@@YAPADIPAD@Z
_TEXT	SEGMENT PARA USE32 PUBLIC 'CODE'
_TEXT	ENDS
;	COMDAT ??_G?$numpunct@_W@std@@MAEPAXI@Z
_TEXT	SEGMENT PARA USE32 PUBLIC 'CODE'
_TEXT	ENDS
;	COMDAT ??_R4?$numpunct@_W@std@@6B@
rdata$r	SEGMENT DWORD USE32 PUBLIC 'CONST'
rdata$r	ENDS
;	COMDAT ??_G?$numpunct@D@std@@MAEPAXI@Z
_TEXT	SEGMENT PARA USE32 PUBLIC 'CODE'
_TEXT	ENDS
;	COMDAT ??_R4?$numpunct@D@std@@6B@
rdata$r	SEGMENT DWORD USE32 PUBLIC 'CONST'
rdata$r	ENDS
;	COMDAT ??_R4CCustomOccManager@@6B@
rdata$r	SEGMENT DWORD USE32 PUBLIC 'CONST'
rdata$r	ENDS
;	COMDAT ??_R4XDocHostUIHandler@CCustomControlSite@@6B@
rdata$r	SEGMENT DWORD USE32 PUBLIC 'CONST'
rdata$r	ENDS
;	COMDAT ??_C@_0EN@CBMLGOH@D?3?2Program?5Files?5?$CIx86?$CJ?2Microsoft@
CONST	SEGMENT DWORD USE32 PUBLIC 'CONST'
CONST	ENDS
;	COMDAT ?_Psave@?$_Facetptr@V?$numpunct@_W@std@@@std@@2PBVfacet@locale@2@B
_DATA	SEGMENT DWORD USE32 PUBLIC 'DATA'
_DATA	ENDS
;	COMDAT ?_Psave@?$_Facetptr@V?$numpunct@D@std@@@std@@2PBVfacet@locale@2@B
_DATA	SEGMENT DWORD USE32 PUBLIC 'DATA'
_DATA	ENDS
;	COMDAT ?Unlock@CComCriticalSection@ATL@@QAEJXZ
_TEXT	SEGMENT PARA USE32 PUBLIC 'CODE'
_TEXT	ENDS
;	COMDAT ??_C@_0FG@LDNDNCJM@D?3?2Program?5Files?5?$CIx86?$CJ?2Microsoft@
CONST	SEGMENT DWORD USE32 PUBLIC 'CONST'
CONST	ENDS
;	COMDAT ??_C@_09HIEJFN@m_bLocked?$AA@
CONST	SEGMENT DWORD USE32 PUBLIC 'CONST'
CONST	ENDS
;	COMDAT ?_Psave@?$_Facetptr@V?$ctype@_W@std@@@std@@2PBVfacet@locale@2@B
_DATA	SEGMENT DWORD USE32 PUBLIC 'DATA'
_DATA	ENDS
;	COMDAT ?_Psave@?$_Facetptr@V?$ctype@D@std@@@std@@2PBVfacet@locale@2@B
_DATA	SEGMENT DWORD USE32 PUBLIC 'DATA'
_DATA	ENDS
;	COMDAT ??$_Maklocchr@_W@std@@YA_WDPA_WABU_Cvtvec@@@Z
_TEXT	SEGMENT PARA USE32 PUBLIC 'CODE'
_TEXT	ENDS
;	COMDAT ??$_DebugHeapDelete@X@std@@YAXPAX@Z
_TEXT	SEGMENT PARA USE32 PUBLIC 'CODE'
_TEXT	ENDS
;	COMDAT ??$_Maklocstr@_W@std@@YAPA_WPBDPA_WABU_Cvtvec@@@Z
_TEXT	SEGMENT PARA USE32 PUBLIC 'CODE'
_TEXT	ENDS
;	COMDAT ??$_Maklocchr@D@std@@YADDPADABU_Cvtvec@@@Z
_TEXT	SEGMENT PARA USE32 PUBLIC 'CODE'
_TEXT	ENDS
;	COMDAT ??_C@_04LOAJBDKD@true?$AA@
CONST	SEGMENT DWORD USE32 PUBLIC 'CONST'
CONST	ENDS
;	COMDAT ??_C@_05LAPONLG@false?$AA@
CONST	SEGMENT DWORD USE32 PUBLIC 'CONST'
CONST	ENDS
;	COMDAT _wmemcpy
_TEXT	SEGMENT PARA USE32 PUBLIC 'CODE'
_TEXT	ENDS
;	COMDAT ?max_size@?$allocator@_W@std@@QBEIXZ
_TEXT	SEGMENT PARA USE32 PUBLIC 'CODE'
_TEXT	ENDS
;	COMDAT ?allocate@?$allocator@_W@std@@QAEPA_WI@Z
_TEXT	SEGMENT PARA USE32 PUBLIC 'CODE'
_TEXT	ENDS
;	COMDAT ??$_Allocate@_W@std@@YAPA_WIPA_W@Z
_TEXT	SEGMENT PARA USE32 PUBLIC 'CODE'
_TEXT	ENDS
;	COMDAT ??_C@_01GFHCPBMG@C?$AA@
CONST	SEGMENT DWORD USE32 PUBLIC 'CONST'
CONST	ENDS
;	COMDAT ?_Peek@?$istreambuf_iterator@_WU?$char_traits@_W@std@@@std@@AAE_WXZ
_TEXT	SEGMENT PARA USE32 PUBLIC 'CODE'
_TEXT	ENDS
;	COMDAT ?_Peek@?$istreambuf_iterator@DU?$char_traits@D@std@@@std@@AAEDXZ
_TEXT	SEGMENT PARA USE32 PUBLIC 'CODE'
_TEXT	ENDS
;	COMDAT ??$use_facet@V?$ctype@_W@std@@@std@@YAABV?$ctype@_W@0@ABVlocale@0@@Z
_TEXT	SEGMENT PARA USE32 PUBLIC 'CODE'
_TEXT	ENDS
;	COMDAT ??_S?$ctype@_W@std@@6B@
CONST	SEGMENT DWORD USE32 PUBLIC 'CONST'
CONST	ENDS
;	COMDAT ??_R4?$ctype@_W@std@@6B@
rdata$r	SEGMENT DWORD USE32 PUBLIC 'CONST'
rdata$r	ENDS
;	COMDAT ??_R0?AV?$ctype@_W@std@@@8
_DATA	SEGMENT DWORD USE32 PUBLIC 'DATA'
_DATA	ENDS
;	COMDAT ??_R3?$ctype@_W@std@@8
rdata$r	SEGMENT DWORD USE32 PUBLIC 'CONST'
rdata$r	ENDS
;	COMDAT ??_R2?$ctype@_W@std@@8
rdata$r	SEGMENT DWORD USE32 PUBLIC 'CONST'
rdata$r	ENDS
;	COMDAT ??_R1A@?0A@A@?$ctype@_W@std@@8
rdata$r	SEGMENT DWORD USE32 PUBLIC 'CONST'
rdata$r	ENDS
;	COMDAT ??_R1A@?0A@A@ctype_base@std@@8
rdata$r	SEGMENT DWORD USE32 PUBLIC 'CONST'
rdata$r	ENDS
;	COMDAT ??_R0?AUctype_base@std@@@8
_DATA	SEGMENT DWORD USE32 PUBLIC 'DATA'
_DATA	ENDS
;	COMDAT ??_G?$ctype@_W@std@@MAEPAXI@Z
_TEXT	SEGMENT PARA USE32 PUBLIC 'CODE'
_TEXT	ENDS
;	COMDAT ??_C@_08EPJLHIJG@bad?5cast?$AA@
CONST	SEGMENT DWORD USE32 PUBLIC 'CONST'
CONST	ENDS
;	COMDAT __TI2?AVbad_cast@@
xdata$x	SEGMENT DWORD USE32 PUBLIC 'CONST'
xdata$x	ENDS
;	COMDAT __CTA2?AVbad_cast@@
xdata$x	SEGMENT DWORD USE32 PUBLIC 'CONST'
xdata$x	ENDS
;	COMDAT __CT??_R0?AVbad_cast@@@8??0bad_cast@@QAE@ABV0@@Z12
xdata$x	SEGMENT DWORD USE32 PUBLIC 'CONST'
xdata$x	ENDS
;	COMDAT ??_R0?AVbad_cast@@@8
_DATA	SEGMENT DWORD USE32 PUBLIC 'DATA'
_DATA	ENDS
;	COMDAT __CT??_R0?AVexception@@@8??0exception@@QAE@ABV0@@Z12
xdata$x	SEGMENT DWORD USE32 PUBLIC 'CONST'
xdata$x	ENDS
;	COMDAT ??_R0?AVexception@@@8
_DATA	SEGMENT DWORD USE32 PUBLIC 'DATA'
_DATA	ENDS
;	COMDAT ??$_DebugHeapDelete@Vfacet@locale@std@@@std@@YAXPAVfacet@locale@0@@Z
_TEXT	SEGMENT PARA USE32 PUBLIC 'CODE'
_TEXT	ENDS
;	COMDAT ??$use_facet@V?$ctype@D@std@@@std@@YAABV?$ctype@D@0@ABVlocale@0@@Z
_TEXT	SEGMENT PARA USE32 PUBLIC 'CODE'
_TEXT	ENDS
;	COMDAT ??_S?$ctype@D@std@@6B@
CONST	SEGMENT DWORD USE32 PUBLIC 'CONST'
CONST	ENDS
;	COMDAT ??_R4?$ctype@D@std@@6B@
rdata$r	SEGMENT DWORD USE32 PUBLIC 'CONST'
rdata$r	ENDS
;	COMDAT ??_R0?AV?$ctype@D@std@@@8
_DATA	SEGMENT DWORD USE32 PUBLIC 'DATA'
_DATA	ENDS
;	COMDAT ??_R3?$ctype@D@std@@8
rdata$r	SEGMENT DWORD USE32 PUBLIC 'CONST'
rdata$r	ENDS
;	COMDAT ??_R2?$ctype@D@std@@8
rdata$r	SEGMENT DWORD USE32 PUBLIC 'CONST'
rdata$r	ENDS
;	COMDAT ??_R1A@?0A@A@?$ctype@D@std@@8
rdata$r	SEGMENT DWORD USE32 PUBLIC 'CONST'
rdata$r	ENDS
;	COMDAT ??_G?$ctype@D@std@@MAEPAXI@Z
_TEXT	SEGMENT PARA USE32 PUBLIC 'CODE'
_TEXT	ENDS
;	COMDAT ??_S?$numpunct@_W@std@@6B@
CONST	SEGMENT DWORD USE32 PUBLIC 'CONST'
CONST	ENDS
;	COMDAT ??_S?$numpunct@D@std@@6B@
CONST	SEGMENT DWORD USE32 PUBLIC 'CONST'
CONST	ENDS
;	COMDAT _wmemmove
_TEXT	SEGMENT PARA USE32 PUBLIC 'CODE'
_TEXT	ENDS
;	COMDAT ?deallocate@?$allocator@_W@std@@QAEXPA_WI@Z
_TEXT	SEGMENT PARA USE32 PUBLIC 'CODE'
_TEXT	ENDS
;	COMDAT ??0?$allocator@_W@std@@QAE@ABV01@@Z
_TEXT	SEGMENT PARA USE32 PUBLIC 'CODE'
_TEXT	ENDS
;	COMDAT ?Release@CStringData@ATL@@QAEXXZ
_TEXT	SEGMENT PARA USE32 PUBLIC 'CODE'
_TEXT	ENDS
;	COMDAT ??_C@_0L@OIIMFBNE@nRefs?5?$CB?$DN?50?$AA@
CONST	SEGMENT DWORD USE32 PUBLIC 'CONST'
CONST	ENDS
;	COMDAT ??_C@_0FJ@DMHPDOJC@D?3?2Program?5Files?5?$CIx86?$CJ?2Microsoft@
CONST	SEGMENT DWORD USE32 PUBLIC 'CONST'
CONST	ENDS
;	COMDAT ??_C@_0BA@GOIMFHNK@pStringMgr?5?$CB?$DN?50?$AA@
CONST	SEGMENT DWORD USE32 PUBLIC 'CONST'
CONST	ENDS
;	COMDAT ?data@CStringData@ATL@@QAEPAXXZ
_TEXT	SEGMENT PARA USE32 PUBLIC 'CODE'
_TEXT	ENDS
;	COMDAT ?GetDefaultManager@?$StrTraitMFC_DLL@DV?$ChTraitsCRT@D@ATL@@@@SAPAUIAtlStringMgr@ATL@@XZ
_TEXT	SEGMENT PARA USE32 PUBLIC 'CODE'
_TEXT	ENDS
;	COMDAT ?FindStringResourceInstance@?$StrTraitMFC_DLL@DV?$ChTraitsCRT@D@ATL@@@@SAPAUHINSTANCE__@@I@Z
_TEXT	SEGMENT PARA USE32 PUBLIC 'CODE'
_TEXT	ENDS
;	COMDAT ?AtlGetStringResourceImage@ATL@@YAPBUATLSTRINGRESOURCEIMAGE@1@PAUHINSTANCE__@@I@Z
_TEXT	SEGMENT PARA USE32 PUBLIC 'CODE'
_TEXT	ENDS
;	COMDAT ?_AtlGetStringResourceImage@ATL@@YAPBUATLSTRINGRESOURCEIMAGE@1@PAUHINSTANCE__@@PAUHRSRC__@@I@Z
_TEXT	SEGMENT PARA USE32 PUBLIC 'CODE'
_TEXT	ENDS
;	COMDAT ?GetBaseTypeLength@?$ChTraitsCRT@D@ATL@@SAHPB_WH@Z
_TEXT	SEGMENT PARA USE32 PUBLIC 'CODE'
_TEXT	ENDS
;	COMDAT ?_AtlGetConversionACP@ATL@@YGIXZ
_TEXT	SEGMENT PARA USE32 PUBLIC 'CODE'
_TEXT	ENDS
;	COMDAT ?g_pfnGetThreadACP@ATL@@3P6GIXZA
_DATA	SEGMENT DWORD USE32 PUBLIC 'DATA'
_DATA	ENDS
;	COMDAT ?_AtlGetThreadACPThunk@ATL@@YGIXZ
_TEXT	SEGMENT PARA USE32 PUBLIC 'CODE'
_TEXT	ENDS
;	COMDAT ?_AtlGetThreadACPReal@ATL@@YGIXZ
_TEXT	SEGMENT PARA USE32 PUBLIC 'CODE'
_TEXT	ENDS
;	COMDAT ?_AtlGetThreadACPFake@ATL@@YGIXZ
_TEXT	SEGMENT PARA USE32 PUBLIC 'CODE'
_TEXT	ENDS
;	COMDAT ?InterlockedExchangePointer@@YGPAXPAPAXPAX@Z
_TEXT	SEGMENT PARA USE32 PUBLIC 'CODE'
_TEXT	ENDS
;	COMDAT ?IsShared@CStringData@ATL@@QBE_NXZ
_TEXT	SEGMENT PARA USE32 PUBLIC 'CODE'
_TEXT	ENDS
;	COMDAT ?AtlThrow@ATL@@YGXJ@Z
_TEXT	SEGMENT PARA USE32 PUBLIC 'CODE'
_TEXT	ENDS
;	COMDAT ??_C@_0FI@NHHJANPC@D?3?2Program?5Files?5?$CIx86?$CJ?2Microsoft@
CONST	SEGMENT DWORD USE32 PUBLIC 'CONST'
CONST	ENDS
;	COMDAT ??_C@_0BF@IAAKIJDJ@AtlThrow?3?5hr?5?$DN?50x?$CFx?6?$AA@
CONST	SEGMENT DWORD USE32 PUBLIC 'CONST'
CONST	ENDS
;	COMDAT ??_C@_0CB@GFHAPKDK@pOldData?9?$DOnAllocLength?5?$DM?5nLength@
CONST	SEGMENT DWORD USE32 PUBLIC 'CONST'
CONST	ENDS
;	COMDAT ?ConvertToBaseType@?$ChTraitsCRT@D@ATL@@SAXPADHPB_WH@Z
_TEXT	SEGMENT PARA USE32 PUBLIC 'CODE'
_TEXT	ENDS
;	COMDAT ??_C@_0BA@GNIEOBOF@nNewLength?5?$DO?$DN?50?$AA@
CONST	SEGMENT DWORD USE32 PUBLIC 'CONST'
CONST	ENDS
;	COMDAT ??_C@_0N@ILOMLJGA@nLength?5?$DO?$DN?50?$AA@
CONST	SEGMENT DWORD USE32 PUBLIC 'CONST'
CONST	ENDS
;	COMDAT ??_C@_0CD@EEFFJEGJ@nLength?5?$DM?$DN?5GetData?$CI?$CJ?9?$DOnAllocLeng@
CONST	SEGMENT DWORD USE32 PUBLIC 'CONST'
CONST	ENDS
;	COMDAT ??RCTraceFileAndLineInfo@ATL@@QBAXKIPBDZZ
_TEXT	SEGMENT PARA USE32 PUBLIC 'CODE'
_TEXT	ENDS
;	COMDAT ?TraceV@CTrace@ATL@@QBAXPBDHKI0PAD@Z
_TEXT	SEGMENT PARA USE32 PUBLIC 'CODE'
_TEXT	ENDS
;	COMDAT ??0CTraceFileAndLineInfo@ATL@@QAE@PBDH@Z
_TEXT	SEGMENT PARA USE32 PUBLIC 'CODE'
_TEXT	ENDS
;	COMDAT ??_C@_0FH@KDPNIMBO@D?3?2Program?5Files?5?$CIx86?$CJ?2Microsoft@
CONST	SEGMENT DWORD USE32 PUBLIC 'CONST'
CONST	ENDS
;	COMDAT ??_C@_0CJ@FJEKGMMD@Warning?3?5implicit?5LoadString?$CI?$CFu?$CJ@
CONST	SEGMENT DWORD USE32 PUBLIC 'CONST'
CONST	ENDS
;	COMDAT ??BCTraceCategory@ATL@@QBEKXZ
_TEXT	SEGMENT PARA USE32 PUBLIC 'CODE'
_TEXT	ENDS
;	COMDAT ?GetBaseTypeLength@?$ChTraitsCRT@D@ATL@@SAHPB_W@Z
_TEXT	SEGMENT PARA USE32 PUBLIC 'CODE'
_TEXT	ENDS
;	COMDAT ?IsLocked@CStringData@ATL@@QBE_NXZ
_TEXT	SEGMENT PARA USE32 PUBLIC 'CODE'
_TEXT	ENDS
;	COMDAT ?_interfaceEntries@CCustomControlSite@@0QBUAFX_INTERFACEMAP_ENTRY@@B
CONST	SEGMENT DWORD USE32 PUBLIC 'CONST'
CONST	ENDS
;	COMDAT ?interfaceMap@CCustomControlSite@@1UAFX_INTERFACEMAP@@B
CONST	SEGMENT DWORD USE32 PUBLIC 'CONST'
CONST	ENDS
;	COMDAT ??_7CNoTrackObject@@6B@
CONST	SEGMENT DWORD USE32 PUBLIC 'CONST'
CONST	ENDS
;	COMDAT ??_R4CNoTrackObject@@6B@
rdata$r	SEGMENT DWORD USE32 PUBLIC 'CONST'
rdata$r	ENDS
;	COMDAT ??_R3CNoTrackObject@@8
rdata$r	SEGMENT DWORD USE32 PUBLIC 'CONST'
rdata$r	ENDS
;	COMDAT ??_R2CNoTrackObject@@8
rdata$r	SEGMENT DWORD USE32 PUBLIC 'CONST'
rdata$r	ENDS
;	COMDAT ??_7COccManager@@6B@
CONST	SEGMENT DWORD USE32 PUBLIC 'CONST'
CONST	ENDS
;	COMDAT ??1CNoTrackObject@@UAE@XZ
_TEXT	SEGMENT PARA USE32 PUBLIC 'CODE'
_TEXT	ENDS
;	COMDAT ??_7CCustomOccManager@@6B@
CONST	SEGMENT DWORD USE32 PUBLIC 'CONST'
CONST	ENDS
;	COMDAT ??0IUnknown@@QAE@XZ
_TEXT	SEGMENT PARA USE32 PUBLIC 'CODE'
_TEXT	ENDS
;	COMDAT ??_7XDocHostUIHandler@CCustomControlSite@@6B@
CONST	SEGMENT DWORD USE32 PUBLIC 'CONST'
CONST	ENDS
;	COMDAT ??_7XDocHostShowUI@CCustomControlSite@@6B@
CONST	SEGMENT DWORD USE32 PUBLIC 'CONST'
CONST	ENDS
;	COMDAT ??_7CCustomControlSite@@6B@
CONST	SEGMENT DWORD USE32 PUBLIC 'CONST'
CONST	ENDS
sxdata	SEGMENT DWORD USE32 'SXDATA'
sxdata	ENDS
FLAT	GROUP _DATA, CONST, _BSS
	ASSUME	CS: FLAT, DS: FLAT, SS: FLAT
endif

INCLUDELIB MSVCRTD
INCLUDELIB OLDNAMES

PUBLIC	?g_pfnGetThreadACP@ATL@@3P6GIXZA		; ATL::g_pfnGetThreadACP
PUBLIC	?_AtlGetThreadACPThunk@ATL@@YGIXZ		; ATL::_AtlGetThreadACPThunk
PUBLIC	?_interfaceEntries@CCustomControlSite@@0QBUAFX_INTERFACEMAP_ENTRY@@B ; CCustomControlSite::_interfaceEntries
PUBLIC	?interfaceMap@CCustomControlSite@@1UAFX_INTERFACEMAP@@B ; CCustomControlSite::interfaceMap
EXTRN	?GetThisInterfaceMap@COleControlSite@@KGPBUAFX_INTERFACEMAP@@XZ:NEAR ; COleControlSite::GetThisInterfaceMap
EXTRN	_IID_IDocHostUIHandler:BYTE
EXTRN	_IID_IDocHostShowUI:BYTE
;	COMDAT ?_interfaceEntries@CCustomControlSite@@0QBUAFX_INTERFACEMAP_ENTRY@@B
CONST	SEGMENT
?_interfaceEntries@CCustomControlSite@@0QBUAFX_INTERFACEMAP_ENTRY@@B DD FLAT:_IID_IDocHostShowUI ; CCustomControlSite::_interfaceEntries
	DD	0f0H
	DD	FLAT:_IID_IDocHostUIHandler
	DD	0f4H
	DD	00H
	DD	0ffffffffH
CONST	ENDS
;	COMDAT ?interfaceMap@CCustomControlSite@@1UAFX_INTERFACEMAP@@B
CONST	SEGMENT
?interfaceMap@CCustomControlSite@@1UAFX_INTERFACEMAP@@B DD FLAT:?GetThisInterfaceMap@COleControlSite@@KGPBUAFX_INTERFACEMAP@@XZ ; CCustomControlSite::interfaceMap
	DD	FLAT:?_interfaceEntries@CCustomControlSite@@0QBUAFX_INTERFACEMAP_ENTRY@@B
CONST	ENDS
CONST	SEGMENT
$SG187299 DB	'Custom Browser', 00H
CONST	ENDS
;	COMDAT ?g_pfnGetThreadACP@ATL@@3P6GIXZA
_DATA	SEGMENT
?g_pfnGetThreadACP@ATL@@3P6GIXZA DD FLAT:?_AtlGetThreadACPThunk@ATL@@YGIXZ ; ATL::g_pfnGetThreadACP
_DATA	ENDS
PUBLIC	?GetThisInterfaceMap@CCustomControlSite@@KGPBUAFX_INTERFACEMAP@@XZ ; CCustomControlSite::GetThisInterfaceMap
EXTRN	__RTC_InitBase:NEAR
EXTRN	__RTC_Shutdown:NEAR
;	COMDAT rtc$IMZ
; File d:\boxgit\playbox\playbox\dev\prj\playbox\src\module\webinteract\custsite.cpp
rtc$IMZ	SEGMENT
__RTC_InitBase.rtc$IMZ DD FLAT:__RTC_InitBase
rtc$IMZ	ENDS
;	COMDAT rtc$TMZ
rtc$TMZ	SEGMENT
__RTC_Shutdown.rtc$TMZ DD FLAT:__RTC_Shutdown
; Function compile flags: /Odt /RTCsu
rtc$TMZ	ENDS
_TEXT	SEGMENT
?GetThisInterfaceMap@CCustomControlSite@@KGPBUAFX_INTERFACEMAP@@XZ PROC NEAR ; CCustomControlSite::GetThisInterfaceMap

; 26   : BEGIN_INTERFACE_MAP(CCustomControlSite, COleControlSite)

  00000	55		 push	 ebp
  00001	8b ec		 mov	 ebp, esp
  00003	b8 00 00 00 00	 mov	 eax, OFFSET FLAT:?interfaceMap@CCustomControlSite@@1UAFX_INTERFACEMAP@@B ; CCustomControlSite::interfaceMap
  00008	5d		 pop	 ebp
  00009	c3		 ret	 0
?GetThisInterfaceMap@CCustomControlSite@@KGPBUAFX_INTERFACEMAP@@XZ ENDP ; CCustomControlSite::GetThisInterfaceMap
_TEXT	ENDS
PUBLIC	?GetInterfaceMap@CCustomControlSite@@MBEPBUAFX_INTERFACEMAP@@XZ ; CCustomControlSite::GetInterfaceMap
; Function compile flags: /Odt /RTCsu
_TEXT	SEGMENT
_this$ = -4						; size = 4
?GetInterfaceMap@CCustomControlSite@@MBEPBUAFX_INTERFACEMAP@@XZ PROC NEAR ; CCustomControlSite::GetInterfaceMap
; _this$ = ecx

; 26   : BEGIN_INTERFACE_MAP(CCustomControlSite, COleControlSite)

  00010	55		 push	 ebp
  00011	8b ec		 mov	 ebp, esp
  00013	51		 push	 ecx
  00014	c7 45 fc cc cc
	cc cc		 mov	 DWORD PTR [ebp-4], -858993460 ; ccccccccH
  0001b	89 4d fc	 mov	 DWORD PTR _this$[ebp], ecx
  0001e	b8 00 00 00 00	 mov	 eax, OFFSET FLAT:?interfaceMap@CCustomControlSite@@1UAFX_INTERFACEMAP@@B ; CCustomControlSite::interfaceMap
  00023	8b e5		 mov	 esp, ebp
  00025	5d		 pop	 ebp
  00026	c3		 ret	 0
?GetInterfaceMap@CCustomControlSite@@MBEPBUAFX_INTERFACEMAP@@XZ ENDP ; CCustomControlSite::GetInterfaceMap
_TEXT	ENDS
PUBLIC	?AddRef@XDocHostShowUI@CCustomControlSite@@UAGKXZ ; CCustomControlSite::XDocHostShowUI::AddRef
EXTRN	??0AFX_MAINTAIN_STATE2@@QAE@PAVAFX_MODULE_STATE@@@Z:NEAR ; AFX_MAINTAIN_STATE2::AFX_MAINTAIN_STATE2
EXTRN	??1AFX_MAINTAIN_STATE2@@QAE@XZ:NEAR		; AFX_MAINTAIN_STATE2::~AFX_MAINTAIN_STATE2
EXTRN	?ExternalAddRef@CCmdTarget@@QAEKXZ:NEAR		; CCmdTarget::ExternalAddRef
EXTRN	__except_list:DWORD
EXTRN	@_RTC_CheckStackVars@8:NEAR
EXTRN	__RTC_CheckEsp:NEAR
EXTRN	___CxxFrameHandler:NEAR
xdata$x	SEGMENT
$T188145 DD	0ffffffffH
	DD	FLAT:$L188133
$T188137 DD	019930520H
	DD	01H
	DD	FLAT:$T188145
	DD	2 DUP(00H)
	DD	2 DUP(00H)
; Function compile flags: /Odt /RTCsu
xdata$x	ENDS
_TEXT	SEGMENT
$T188132 = -36						; size = 4
__ctlState$ = -28					; size = 8
_pThis$ = -16						; size = 4
__$EHRec$ = -12						; size = 12
_this$ = 8						; size = 4
?AddRef@XDocHostShowUI@CCustomControlSite@@UAGKXZ PROC NEAR ; CCustomControlSite::XDocHostShowUI::AddRef

; 33   : {

  00030	55		 push	 ebp
  00031	8b ec		 mov	 ebp, esp
  00033	6a ff		 push	 -1
  00035	68 00 00 00 00	 push	 __ehhandler$?AddRef@XDocHostShowUI@CCustomControlSite@@UAGKXZ
  0003a	64 a1 00 00 00
	00		 mov	 eax, DWORD PTR fs:__except_list
  00040	50		 push	 eax
  00041	64 89 25 00 00
	00 00		 mov	 DWORD PTR fs:__except_list, esp
  00048	83 ec 18	 sub	 esp, 24			; 00000018H
  0004b	b8 cc cc cc cc	 mov	 eax, -858993460		; ccccccccH
  00050	89 45 dc	 mov	 DWORD PTR [ebp-36], eax
  00053	89 45 e0	 mov	 DWORD PTR [ebp-32], eax
  00056	89 45 e4	 mov	 DWORD PTR [ebp-28], eax
  00059	89 45 e8	 mov	 DWORD PTR [ebp-24], eax
  0005c	89 45 ec	 mov	 DWORD PTR [ebp-20], eax
  0005f	89 45 f0	 mov	 DWORD PTR [ebp-16], eax

; 34   : 	METHOD_PROLOGUE(CCustomControlSite, DocHostShowUI);

  00062	8b 45 08	 mov	 eax, DWORD PTR _this$[ebp]
  00065	2d f0 00 00 00	 sub	 eax, 240		; 000000f0H
  0006a	89 45 f0	 mov	 DWORD PTR _pThis$[ebp], eax
  0006d	8b 4d f0	 mov	 ecx, DWORD PTR _pThis$[ebp]
  00070	8b 51 1c	 mov	 edx, DWORD PTR [ecx+28]
  00073	52		 push	 edx
  00074	8d 4d e4	 lea	 ecx, DWORD PTR __ctlState$[ebp]
  00077	e8 00 00 00 00	 call	 ??0AFX_MAINTAIN_STATE2@@QAE@PAVAFX_MODULE_STATE@@@Z ; AFX_MAINTAIN_STATE2::AFX_MAINTAIN_STATE2
  0007c	c7 45 fc 00 00
	00 00		 mov	 DWORD PTR __$EHRec$[ebp+8], 0

; 35   : 
; 36   : 	return pThis->ExternalAddRef();

  00083	8b 4d f0	 mov	 ecx, DWORD PTR _pThis$[ebp]
  00086	e8 00 00 00 00	 call	 ?ExternalAddRef@CCmdTarget@@QAEKXZ ; CCmdTarget::ExternalAddRef
  0008b	89 45 dc	 mov	 DWORD PTR $T188132[ebp], eax
  0008e	c7 45 fc ff ff
	ff ff		 mov	 DWORD PTR __$EHRec$[ebp+8], -1
  00095	8d 4d e4	 lea	 ecx, DWORD PTR __ctlState$[ebp]
  00098	e8 00 00 00 00	 call	 ??1AFX_MAINTAIN_STATE2@@QAE@XZ ; AFX_MAINTAIN_STATE2::~AFX_MAINTAIN_STATE2
  0009d	8b 45 dc	 mov	 eax, DWORD PTR $T188132[ebp]

; 37   : }

  000a0	52		 push	 edx
  000a1	8b cd		 mov	 ecx, ebp
  000a3	50		 push	 eax
  000a4	8d 15 00 00 00
	00		 lea	 edx, DWORD PTR $L188142
  000aa	e8 00 00 00 00	 call	 @_RTC_CheckStackVars@8
  000af	58		 pop	 eax
  000b0	5a		 pop	 edx
  000b1	8b 4d f4	 mov	 ecx, DWORD PTR __$EHRec$[ebp]
  000b4	64 89 0d 00 00
	00 00		 mov	 DWORD PTR fs:__except_list, ecx
  000bb	83 c4 24	 add	 esp, 36			; 00000024H
  000be	3b ec		 cmp	 ebp, esp
  000c0	e8 00 00 00 00	 call	 __RTC_CheckEsp
  000c5	8b e5		 mov	 esp, ebp
  000c7	5d		 pop	 ebp
  000c8	c2 04 00	 ret	 4
$L188142:
  000cb	01 00 00 00	 DD	 1
  000cf	00 00 00 00	 DD	 $L188141
$L188141:
  000d3	e4 ff ff ff	 DD	 -28			; ffffffe4H
  000d7	08 00 00 00	 DD	 8
  000db	00 00 00 00	 DD	 $L188138
$L188138:
  000df	5f		 DB	 95			; 0000005fH
  000e0	63		 DB	 99			; 00000063H
  000e1	74		 DB	 116			; 00000074H
  000e2	6c		 DB	 108			; 0000006cH
  000e3	53		 DB	 83			; 00000053H
  000e4	74		 DB	 116			; 00000074H
  000e5	61		 DB	 97			; 00000061H
  000e6	74		 DB	 116			; 00000074H
  000e7	65		 DB	 101			; 00000065H
  000e8	00		 DB	 0
_TEXT	ENDS
text$x	SEGMENT
$L188133:
  00000	8d 4d e4	 lea	 ecx, DWORD PTR __ctlState$[ebp]
  00003	e9 00 00 00 00	 jmp	 ??1AFX_MAINTAIN_STATE2@@QAE@XZ ; AFX_MAINTAIN_STATE2::~AFX_MAINTAIN_STATE2
__ehhandler$?AddRef@XDocHostShowUI@CCustomControlSite@@UAGKXZ:
  00008	b8 00 00 00 00	 mov	 eax, OFFSET FLAT:$T188137
  0000d	e9 00 00 00 00	 jmp	 ___CxxFrameHandler
text$x	ENDS
?AddRef@XDocHostShowUI@CCustomControlSite@@UAGKXZ ENDP	; CCustomControlSite::XDocHostShowUI::AddRef
PUBLIC	?Release@XDocHostShowUI@CCustomControlSite@@UAGKXZ ; CCustomControlSite::XDocHostShowUI::Release
EXTRN	?ExternalRelease@CCmdTarget@@QAEKXZ:NEAR	; CCmdTarget::ExternalRelease
xdata$x	SEGMENT
$T188156 DD	0ffffffffH
	DD	FLAT:$L188149
$T188151 DD	019930520H
	DD	01H
	DD	FLAT:$T188156
	DD	2 DUP(00H)
	DD	2 DUP(00H)
; Function compile flags: /Odt /RTCsu
xdata$x	ENDS
_TEXT	SEGMENT
$T188148 = -36						; size = 4
__ctlState$ = -28					; size = 8
_pThis$ = -16						; size = 4
__$EHRec$ = -12						; size = 12
_this$ = 8						; size = 4
?Release@XDocHostShowUI@CCustomControlSite@@UAGKXZ PROC NEAR ; CCustomControlSite::XDocHostShowUI::Release

; 40   : {

  000f0	55		 push	 ebp
  000f1	8b ec		 mov	 ebp, esp
  000f3	6a ff		 push	 -1
  000f5	68 00 00 00 00	 push	 __ehhandler$?Release@XDocHostShowUI@CCustomControlSite@@UAGKXZ
  000fa	64 a1 00 00 00
	00		 mov	 eax, DWORD PTR fs:__except_list
  00100	50		 push	 eax
  00101	64 89 25 00 00
	00 00		 mov	 DWORD PTR fs:__except_list, esp
  00108	83 ec 18	 sub	 esp, 24			; 00000018H
  0010b	b8 cc cc cc cc	 mov	 eax, -858993460		; ccccccccH
  00110	89 45 dc	 mov	 DWORD PTR [ebp-36], eax
  00113	89 45 e0	 mov	 DWORD PTR [ebp-32], eax
  00116	89 45 e4	 mov	 DWORD PTR [ebp-28], eax
  00119	89 45 e8	 mov	 DWORD PTR [ebp-24], eax
  0011c	89 45 ec	 mov	 DWORD PTR [ebp-20], eax
  0011f	89 45 f0	 mov	 DWORD PTR [ebp-16], eax

; 41   : 	METHOD_PROLOGUE(CCustomControlSite, DocHostShowUI);

  00122	8b 45 08	 mov	 eax, DWORD PTR _this$[ebp]
  00125	2d f0 00 00 00	 sub	 eax, 240		; 000000f0H
  0012a	89 45 f0	 mov	 DWORD PTR _pThis$[ebp], eax
  0012d	8b 4d f0	 mov	 ecx, DWORD PTR _pThis$[ebp]
  00130	8b 51 1c	 mov	 edx, DWORD PTR [ecx+28]
  00133	52		 push	 edx
  00134	8d 4d e4	 lea	 ecx, DWORD PTR __ctlState$[ebp]
  00137	e8 00 00 00 00	 call	 ??0AFX_MAINTAIN_STATE2@@QAE@PAVAFX_MODULE_STATE@@@Z ; AFX_MAINTAIN_STATE2::AFX_MAINTAIN_STATE2
  0013c	c7 45 fc 00 00
	00 00		 mov	 DWORD PTR __$EHRec$[ebp+8], 0

; 42   : 
; 43   : 	return pThis->ExternalRelease();

  00143	8b 4d f0	 mov	 ecx, DWORD PTR _pThis$[ebp]
  00146	e8 00 00 00 00	 call	 ?ExternalRelease@CCmdTarget@@QAEKXZ ; CCmdTarget::ExternalRelease
  0014b	89 45 dc	 mov	 DWORD PTR $T188148[ebp], eax
  0014e	c7 45 fc ff ff
	ff ff		 mov	 DWORD PTR __$EHRec$[ebp+8], -1
  00155	8d 4d e4	 lea	 ecx, DWORD PTR __ctlState$[ebp]
  00158	e8 00 00 00 00	 call	 ??1AFX_MAINTAIN_STATE2@@QAE@XZ ; AFX_MAINTAIN_STATE2::~AFX_MAINTAIN_STATE2
  0015d	8b 45 dc	 mov	 eax, DWORD PTR $T188148[ebp]

; 44   : }

  00160	52		 push	 edx
  00161	8b cd		 mov	 ecx, ebp
  00163	50		 push	 eax
  00164	8d 15 00 00 00
	00		 lea	 edx, DWORD PTR $L188155
  0016a	e8 00 00 00 00	 call	 @_RTC_CheckStackVars@8
  0016f	58		 pop	 eax
  00170	5a		 pop	 edx
  00171	8b 4d f4	 mov	 ecx, DWORD PTR __$EHRec$[ebp]
  00174	64 89 0d 00 00
	00 00		 mov	 DWORD PTR fs:__except_list, ecx
  0017b	83 c4 24	 add	 esp, 36			; 00000024H
  0017e	3b ec		 cmp	 ebp, esp
  00180	e8 00 00 00 00	 call	 __RTC_CheckEsp
  00185	8b e5		 mov	 esp, ebp
  00187	5d		 pop	 ebp
  00188	c2 04 00	 ret	 4
$L188155:
  0018b	01 00 00 00	 DD	 1
  0018f	00 00 00 00	 DD	 $L188154
$L188154:
  00193	e4 ff ff ff	 DD	 -28			; ffffffe4H
  00197	08 00 00 00	 DD	 8
  0019b	00 00 00 00	 DD	 $L188152
$L188152:
  0019f	5f		 DB	 95			; 0000005fH
  001a0	63		 DB	 99			; 00000063H
  001a1	74		 DB	 116			; 00000074H
  001a2	6c		 DB	 108			; 0000006cH
  001a3	53		 DB	 83			; 00000053H
  001a4	74		 DB	 116			; 00000074H
  001a5	61		 DB	 97			; 00000061H
  001a6	74		 DB	 116			; 00000074H
  001a7	65		 DB	 101			; 00000065H
  001a8	00		 DB	 0
_TEXT	ENDS
text$x	SEGMENT
$L188149:
  00012	8d 4d e4	 lea	 ecx, DWORD PTR __ctlState$[ebp]
  00015	e9 00 00 00 00	 jmp	 ??1AFX_MAINTAIN_STATE2@@QAE@XZ ; AFX_MAINTAIN_STATE2::~AFX_MAINTAIN_STATE2
__ehhandler$?Release@XDocHostShowUI@CCustomControlSite@@UAGKXZ:
  0001a	b8 00 00 00 00	 mov	 eax, OFFSET FLAT:$T188151
  0001f	e9 00 00 00 00	 jmp	 ___CxxFrameHandler
text$x	ENDS
?Release@XDocHostShowUI@CCustomControlSite@@UAGKXZ ENDP	; CCustomControlSite::XDocHostShowUI::Release
PUBLIC	?QueryInterface@XDocHostShowUI@CCustomControlSite@@UAGJABU_GUID@@PAPAX@Z ; CCustomControlSite::XDocHostShowUI::QueryInterface
EXTRN	?ExternalQueryInterface@CCmdTarget@@QAEKPBXPAPAX@Z:NEAR ; CCmdTarget::ExternalQueryInterface
xdata$x	SEGMENT
$T188166 DD	0ffffffffH
	DD	FLAT:$L188159
$T188161 DD	019930520H
	DD	01H
	DD	FLAT:$T188166
	DD	2 DUP(00H)
	DD	2 DUP(00H)
; Function compile flags: /Odt /RTCsu
xdata$x	ENDS
_TEXT	SEGMENT
$T188158 = -36						; size = 4
__ctlState$ = -28					; size = 8
_pThis$ = -16						; size = 4
__$EHRec$ = -12						; size = 12
_this$ = 8						; size = 4
_riid$ = 12						; size = 4
_ppvObj$ = 16						; size = 4
?QueryInterface@XDocHostShowUI@CCustomControlSite@@UAGJABU_GUID@@PAPAX@Z PROC NEAR ; CCustomControlSite::XDocHostShowUI::QueryInterface

; 47   : {

  001b0	55		 push	 ebp
  001b1	8b ec		 mov	 ebp, esp
  001b3	6a ff		 push	 -1
  001b5	68 00 00 00 00	 push	 __ehhandler$?QueryInterface@XDocHostShowUI@CCustomControlSite@@UAGJABU_GUID@@PAPAX@Z
  001ba	64 a1 00 00 00
	00		 mov	 eax, DWORD PTR fs:__except_list
  001c0	50		 push	 eax
  001c1	64 89 25 00 00
	00 00		 mov	 DWORD PTR fs:__except_list, esp
  001c8	83 ec 18	 sub	 esp, 24			; 00000018H
  001cb	b8 cc cc cc cc	 mov	 eax, -858993460		; ccccccccH
  001d0	89 45 dc	 mov	 DWORD PTR [ebp-36], eax
  001d3	89 45 e0	 mov	 DWORD PTR [ebp-32], eax
  001d6	89 45 e4	 mov	 DWORD PTR [ebp-28], eax
  001d9	89 45 e8	 mov	 DWORD PTR [ebp-24], eax
  001dc	89 45 ec	 mov	 DWORD PTR [ebp-20], eax
  001df	89 45 f0	 mov	 DWORD PTR [ebp-16], eax

; 48   : 	METHOD_PROLOGUE(CCustomControlSite, DocHostShowUI);

  001e2	8b 45 08	 mov	 eax, DWORD PTR _this$[ebp]
  001e5	2d f0 00 00 00	 sub	 eax, 240		; 000000f0H
  001ea	89 45 f0	 mov	 DWORD PTR _pThis$[ebp], eax
  001ed	8b 4d f0	 mov	 ecx, DWORD PTR _pThis$[ebp]
  001f0	8b 51 1c	 mov	 edx, DWORD PTR [ecx+28]
  001f3	52		 push	 edx
  001f4	8d 4d e4	 lea	 ecx, DWORD PTR __ctlState$[ebp]
  001f7	e8 00 00 00 00	 call	 ??0AFX_MAINTAIN_STATE2@@QAE@PAVAFX_MODULE_STATE@@@Z ; AFX_MAINTAIN_STATE2::AFX_MAINTAIN_STATE2
  001fc	c7 45 fc 00 00
	00 00		 mov	 DWORD PTR __$EHRec$[ebp+8], 0

; 49   : 
; 50   : 	return pThis->ExternalQueryInterface( &riid, ppvObj );

  00203	8b 45 10	 mov	 eax, DWORD PTR _ppvObj$[ebp]
  00206	50		 push	 eax
  00207	8b 4d 0c	 mov	 ecx, DWORD PTR _riid$[ebp]
  0020a	51		 push	 ecx
  0020b	8b 4d f0	 mov	 ecx, DWORD PTR _pThis$[ebp]
  0020e	e8 00 00 00 00	 call	 ?ExternalQueryInterface@CCmdTarget@@QAEKPBXPAPAX@Z ; CCmdTarget::ExternalQueryInterface
  00213	89 45 dc	 mov	 DWORD PTR $T188158[ebp], eax
  00216	c7 45 fc ff ff
	ff ff		 mov	 DWORD PTR __$EHRec$[ebp+8], -1
  0021d	8d 4d e4	 lea	 ecx, DWORD PTR __ctlState$[ebp]
  00220	e8 00 00 00 00	 call	 ??1AFX_MAINTAIN_STATE2@@QAE@XZ ; AFX_MAINTAIN_STATE2::~AFX_MAINTAIN_STATE2
  00225	8b 45 dc	 mov	 eax, DWORD PTR $T188158[ebp]

; 51   : }

  00228	52		 push	 edx
  00229	8b cd		 mov	 ecx, ebp
  0022b	50		 push	 eax
  0022c	8d 15 00 00 00
	00		 lea	 edx, DWORD PTR $L188165
  00232	e8 00 00 00 00	 call	 @_RTC_CheckStackVars@8
  00237	58		 pop	 eax
  00238	5a		 pop	 edx
  00239	8b 4d f4	 mov	 ecx, DWORD PTR __$EHRec$[ebp]
  0023c	64 89 0d 00 00
	00 00		 mov	 DWORD PTR fs:__except_list, ecx
  00243	83 c4 24	 add	 esp, 36			; 00000024H
  00246	3b ec		 cmp	 ebp, esp
  00248	e8 00 00 00 00	 call	 __RTC_CheckEsp
  0024d	8b e5		 mov	 esp, ebp
  0024f	5d		 pop	 ebp
  00250	c2 0c 00	 ret	 12			; 0000000cH
$L188165:
  00253	01 00 00 00	 DD	 1
  00257	00 00 00 00	 DD	 $L188164
$L188164:
  0025b	e4 ff ff ff	 DD	 -28			; ffffffe4H
  0025f	08 00 00 00	 DD	 8
  00263	00 00 00 00	 DD	 $L188162
$L188162:
  00267	5f		 DB	 95			; 0000005fH
  00268	63		 DB	 99			; 00000063H
  00269	74		 DB	 116			; 00000074H
  0026a	6c		 DB	 108			; 0000006cH
  0026b	53		 DB	 83			; 00000053H
  0026c	74		 DB	 116			; 00000074H
  0026d	61		 DB	 97			; 00000061H
  0026e	74		 DB	 116			; 00000074H
  0026f	65		 DB	 101			; 00000065H
  00270	00		 DB	 0
_TEXT	ENDS
text$x	SEGMENT
$L188159:
  00024	8d 4d e4	 lea	 ecx, DWORD PTR __ctlState$[ebp]
  00027	e9 00 00 00 00	 jmp	 ??1AFX_MAINTAIN_STATE2@@QAE@XZ ; AFX_MAINTAIN_STATE2::~AFX_MAINTAIN_STATE2
__ehhandler$?QueryInterface@XDocHostShowUI@CCustomControlSite@@UAGJABU_GUID@@PAPAX@Z:
  0002c	b8 00 00 00 00	 mov	 eax, OFFSET FLAT:$T188161
  00031	e9 00 00 00 00	 jmp	 ___CxxFrameHandler
text$x	ENDS
?QueryInterface@XDocHostShowUI@CCustomControlSite@@UAGJABU_GUID@@PAPAX@Z ENDP ; CCustomControlSite::XDocHostShowUI::QueryInterface
PUBLIC	?ShowHelp@XDocHostShowUI@CCustomControlSite@@UAGJPAUHWND__@@PA_WIKUtagPOINT@@PAUIDispatch@@@Z ; CCustomControlSite::XDocHostShowUI::ShowHelp
; Function compile flags: /Odt /RTCsu
_TEXT	SEGMENT
$T188168 = -24						; size = 4
__ctlState$ = -16					; size = 8
_pThis$ = -4						; size = 4
_this$ = 8						; size = 4
_hwnd$ = 12						; size = 4
_pszHelpFile$ = 16					; size = 4
_nCommand$ = 20						; size = 4
_dwData$ = 24						; size = 4
_ptMouse$ = 28						; size = 8
_pDispatchObjectHit$ = 36				; size = 4
?ShowHelp@XDocHostShowUI@CCustomControlSite@@UAGJPAUHWND__@@PA_WIKUtagPOINT@@PAUIDispatch@@@Z PROC NEAR ; CCustomControlSite::XDocHostShowUI::ShowHelp

; 59   : {

  00280	55		 push	 ebp
  00281	8b ec		 mov	 ebp, esp
  00283	83 ec 18	 sub	 esp, 24			; 00000018H
  00286	b8 cc cc cc cc	 mov	 eax, -858993460		; ccccccccH
  0028b	89 45 e8	 mov	 DWORD PTR [ebp-24], eax
  0028e	89 45 ec	 mov	 DWORD PTR [ebp-20], eax
  00291	89 45 f0	 mov	 DWORD PTR [ebp-16], eax
  00294	89 45 f4	 mov	 DWORD PTR [ebp-12], eax
  00297	89 45 f8	 mov	 DWORD PTR [ebp-8], eax
  0029a	89 45 fc	 mov	 DWORD PTR [ebp-4], eax

; 60   : 	METHOD_PROLOGUE(CCustomControlSite, DocHostShowUI);

  0029d	8b 45 08	 mov	 eax, DWORD PTR _this$[ebp]
  002a0	2d f0 00 00 00	 sub	 eax, 240		; 000000f0H
  002a5	89 45 fc	 mov	 DWORD PTR _pThis$[ebp], eax
  002a8	8b 4d fc	 mov	 ecx, DWORD PTR _pThis$[ebp]
  002ab	8b 51 1c	 mov	 edx, DWORD PTR [ecx+28]
  002ae	52		 push	 edx
  002af	8d 4d f0	 lea	 ecx, DWORD PTR __ctlState$[ebp]
  002b2	e8 00 00 00 00	 call	 ??0AFX_MAINTAIN_STATE2@@QAE@PAVAFX_MODULE_STATE@@@Z ; AFX_MAINTAIN_STATE2::AFX_MAINTAIN_STATE2

; 61   : 
; 62   : 	return S_OK;

  002b7	c7 45 e8 00 00
	00 00		 mov	 DWORD PTR $T188168[ebp], 0
  002be	8d 4d f0	 lea	 ecx, DWORD PTR __ctlState$[ebp]
  002c1	e8 00 00 00 00	 call	 ??1AFX_MAINTAIN_STATE2@@QAE@XZ ; AFX_MAINTAIN_STATE2::~AFX_MAINTAIN_STATE2
  002c6	8b 45 e8	 mov	 eax, DWORD PTR $T188168[ebp]

; 63   : }

  002c9	52		 push	 edx
  002ca	8b cd		 mov	 ecx, ebp
  002cc	50		 push	 eax
  002cd	8d 15 00 00 00
	00		 lea	 edx, DWORD PTR $L188172
  002d3	e8 00 00 00 00	 call	 @_RTC_CheckStackVars@8
  002d8	58		 pop	 eax
  002d9	5a		 pop	 edx
  002da	83 c4 18	 add	 esp, 24			; 00000018H
  002dd	3b ec		 cmp	 ebp, esp
  002df	e8 00 00 00 00	 call	 __RTC_CheckEsp
  002e4	8b e5		 mov	 esp, ebp
  002e6	5d		 pop	 ebp
  002e7	c2 20 00	 ret	 32			; 00000020H
$L188172:
  002ea	01 00 00 00	 DD	 1
  002ee	00 00 00 00	 DD	 $L188171
$L188171:
  002f2	f0 ff ff ff	 DD	 -16			; fffffff0H
  002f6	08 00 00 00	 DD	 8
  002fa	00 00 00 00	 DD	 $L188170
$L188170:
  002fe	5f		 DB	 95			; 0000005fH
  002ff	63		 DB	 99			; 00000063H
  00300	74		 DB	 116			; 00000074H
  00301	6c		 DB	 108			; 0000006cH
  00302	53		 DB	 83			; 00000053H
  00303	74		 DB	 116			; 00000074H
  00304	61		 DB	 97			; 00000061H
  00305	74		 DB	 116			; 00000074H
  00306	65		 DB	 101			; 00000065H
  00307	00		 DB	 0
?ShowHelp@XDocHostShowUI@CCustomControlSite@@UAGJPAUHWND__@@PA_WIKUtagPOINT@@PAUIDispatch@@@Z ENDP ; CCustomControlSite::XDocHostShowUI::ShowHelp
_TEXT	ENDS
PUBLIC	?ShowMessage@XDocHostShowUI@CCustomControlSite@@UAGJPAUHWND__@@PA_W1K1KPAJ@Z ; CCustomControlSite::XDocHostShowUI::ShowMessage
EXTRN	__imp__MessageBoxA@16:NEAR
EXTRN	__imp_??B?$CSimpleStringT@D$00@ATL@@QBEPBDXZ:NEAR
EXTRN	__imp_??0?$CStringT@DV?$StrTraitMFC_DLL@DV?$ChTraitsCRT@D@ATL@@@@@ATL@@QAE@PB_W@Z:NEAR
EXTRN	__imp_??1?$CStringT@DV?$StrTraitMFC_DLL@DV?$ChTraitsCRT@D@ATL@@@@@ATL@@QAE@XZ:NEAR
xdata$x	SEGMENT
$T188184 DD	0ffffffffH
	DD	FLAT:$L188176
$T188179 DD	019930520H
	DD	01H
	DD	FLAT:$T188184
	DD	2 DUP(00H)
	DD	2 DUP(00H)
; Function compile flags: /Odt /RTCsu
xdata$x	ENDS
_TEXT	SEGMENT
tv83 = -44						; size = 4
$T188175 = -40						; size = 4
$T188174 = -36						; size = 4
__ctlState$ = -28					; size = 8
_pThis$ = -16						; size = 4
__$EHRec$ = -12						; size = 12
_this$ = 8						; size = 4
_hwnd$ = 12						; size = 4
_lpstrText$ = 16					; size = 4
_lpstrCaption$ = 20					; size = 4
_dwType$ = 24						; size = 4
_lpstrHelpFile$ = 28					; size = 4
_dwHelpContext$ = 32					; size = 4
_plResult$ = 36						; size = 4
?ShowMessage@XDocHostShowUI@CCustomControlSite@@UAGJPAUHWND__@@PA_W1K1KPAJ@Z PROC NEAR ; CCustomControlSite::XDocHostShowUI::ShowMessage

; 72   : {

  00310	55		 push	 ebp
  00311	8b ec		 mov	 ebp, esp
  00313	6a ff		 push	 -1
  00315	68 00 00 00 00	 push	 __ehhandler$?ShowMessage@XDocHostShowUI@CCustomControlSite@@UAGJPAUHWND__@@PA_W1K1KPAJ@Z
  0031a	64 a1 00 00 00
	00		 mov	 eax, DWORD PTR fs:__except_list
  00320	50		 push	 eax
  00321	64 89 25 00 00
	00 00		 mov	 DWORD PTR fs:__except_list, esp
  00328	83 ec 20	 sub	 esp, 32			; 00000020H
  0032b	56		 push	 esi
  0032c	57		 push	 edi
  0032d	b8 cc cc cc cc	 mov	 eax, -858993460		; ccccccccH
  00332	89 45 d4	 mov	 DWORD PTR [ebp-44], eax
  00335	89 45 d8	 mov	 DWORD PTR [ebp-40], eax
  00338	89 45 dc	 mov	 DWORD PTR [ebp-36], eax
  0033b	89 45 e0	 mov	 DWORD PTR [ebp-32], eax
  0033e	89 45 e4	 mov	 DWORD PTR [ebp-28], eax
  00341	89 45 e8	 mov	 DWORD PTR [ebp-24], eax
  00344	89 45 ec	 mov	 DWORD PTR [ebp-20], eax
  00347	89 45 f0	 mov	 DWORD PTR [ebp-16], eax

; 73   : 	METHOD_PROLOGUE(CCustomControlSite, DocHostShowUI);

  0034a	8b 45 08	 mov	 eax, DWORD PTR _this$[ebp]
  0034d	2d f0 00 00 00	 sub	 eax, 240		; 000000f0H
  00352	89 45 f0	 mov	 DWORD PTR _pThis$[ebp], eax
  00355	8b 4d f0	 mov	 ecx, DWORD PTR _pThis$[ebp]
  00358	8b 51 1c	 mov	 edx, DWORD PTR [ecx+28]
  0035b	52		 push	 edx
  0035c	8d 4d e4	 lea	 ecx, DWORD PTR __ctlState$[ebp]
  0035f	e8 00 00 00 00	 call	 ??0AFX_MAINTAIN_STATE2@@QAE@PAVAFX_MODULE_STATE@@@Z ; AFX_MAINTAIN_STATE2::AFX_MAINTAIN_STATE2
  00364	c7 45 fc 00 00
	00 00		 mov	 DWORD PTR __$EHRec$[ebp+8], 0

; 74   : 	
; 75   : 	MessageBox(hwnd, (CString)lpstrText, "Custom Browser", /*dwType*/MB_ICONERROR);

  0036b	8b f4		 mov	 esi, esp
  0036d	8b 45 10	 mov	 eax, DWORD PTR _lpstrText$[ebp]
  00370	50		 push	 eax
  00371	8d 4d dc	 lea	 ecx, DWORD PTR $T188174[ebp]
  00374	ff 15 00 00 00
	00		 call	 DWORD PTR __imp_??0?$CStringT@DV?$StrTraitMFC_DLL@DV?$ChTraitsCRT@D@ATL@@@@@ATL@@QAE@PB_W@Z
  0037a	3b f4		 cmp	 esi, esp
  0037c	e8 00 00 00 00	 call	 __RTC_CheckEsp
  00381	89 45 d4	 mov	 DWORD PTR tv83[ebp], eax
  00384	8b f4		 mov	 esi, esp
  00386	6a 10		 push	 16			; 00000010H
  00388	68 00 00 00 00	 push	 OFFSET FLAT:$SG187299
  0038d	8b fc		 mov	 edi, esp
  0038f	8b 4d d4	 mov	 ecx, DWORD PTR tv83[ebp]
  00392	ff 15 00 00 00
	00		 call	 DWORD PTR __imp_??B?$CSimpleStringT@D$00@ATL@@QBEPBDXZ
  00398	3b fc		 cmp	 edi, esp
  0039a	e8 00 00 00 00	 call	 __RTC_CheckEsp
  0039f	50		 push	 eax
  003a0	8b 4d 0c	 mov	 ecx, DWORD PTR _hwnd$[ebp]
  003a3	51		 push	 ecx
  003a4	ff 15 00 00 00
	00		 call	 DWORD PTR __imp__MessageBoxA@16
  003aa	3b f4		 cmp	 esi, esp
  003ac	e8 00 00 00 00	 call	 __RTC_CheckEsp
  003b1	8b f4		 mov	 esi, esp
  003b3	8d 4d dc	 lea	 ecx, DWORD PTR $T188174[ebp]
  003b6	ff 15 00 00 00
	00		 call	 DWORD PTR __imp_??1?$CStringT@DV?$StrTraitMFC_DLL@DV?$ChTraitsCRT@D@ATL@@@@@ATL@@QAE@XZ
  003bc	3b f4		 cmp	 esi, esp
  003be	e8 00 00 00 00	 call	 __RTC_CheckEsp

; 76   : 
; 77   : 	return S_OK;

  003c3	c7 45 d8 00 00
	00 00		 mov	 DWORD PTR $T188175[ebp], 0
  003ca	c7 45 fc ff ff
	ff ff		 mov	 DWORD PTR __$EHRec$[ebp+8], -1
  003d1	8d 4d e4	 lea	 ecx, DWORD PTR __ctlState$[ebp]
  003d4	e8 00 00 00 00	 call	 ??1AFX_MAINTAIN_STATE2@@QAE@XZ ; AFX_MAINTAIN_STATE2::~AFX_MAINTAIN_STATE2
  003d9	8b 45 d8	 mov	 eax, DWORD PTR $T188175[ebp]

; 78   : }

  003dc	52		 push	 edx
  003dd	8b cd		 mov	 ecx, ebp
  003df	50		 push	 eax
  003e0	8d 15 00 00 00
	00		 lea	 edx, DWORD PTR $L188183
  003e6	e8 00 00 00 00	 call	 @_RTC_CheckStackVars@8
  003eb	58		 pop	 eax
  003ec	5a		 pop	 edx
  003ed	8b 4d f4	 mov	 ecx, DWORD PTR __$EHRec$[ebp]
  003f0	64 89 0d 00 00
	00 00		 mov	 DWORD PTR fs:__except_list, ecx
  003f7	5f		 pop	 edi
  003f8	5e		 pop	 esi
  003f9	83 c4 2c	 add	 esp, 44			; 0000002cH
  003fc	3b ec		 cmp	 ebp, esp
  003fe	e8 00 00 00 00	 call	 __RTC_CheckEsp
  00403	8b e5		 mov	 esp, ebp
  00405	5d		 pop	 ebp
  00406	c2 20 00	 ret	 32			; 00000020H
$L188183:
  00409	01 00 00 00	 DD	 1
  0040d	00 00 00 00	 DD	 $L188182
$L188182:
  00411	e4 ff ff ff	 DD	 -28			; ffffffe4H
  00415	08 00 00 00	 DD	 8
  00419	00 00 00 00	 DD	 $L188180
$L188180:
  0041d	5f		 DB	 95			; 0000005fH
  0041e	63		 DB	 99			; 00000063H
  0041f	74		 DB	 116			; 00000074H
  00420	6c		 DB	 108			; 0000006cH
  00421	53		 DB	 83			; 00000053H
  00422	74		 DB	 116			; 00000074H
  00423	61		 DB	 97			; 00000061H
  00424	74		 DB	 116			; 00000074H
  00425	65		 DB	 101			; 00000065H
  00426	00		 DB	 0
_TEXT	ENDS
text$x	SEGMENT
$L188176:
  00036	8d 4d e4	 lea	 ecx, DWORD PTR __ctlState$[ebp]
  00039	e9 00 00 00 00	 jmp	 ??1AFX_MAINTAIN_STATE2@@QAE@XZ ; AFX_MAINTAIN_STATE2::~AFX_MAINTAIN_STATE2
__ehhandler$?ShowMessage@XDocHostShowUI@CCustomControlSite@@UAGJPAUHWND__@@PA_W1K1KPAJ@Z:
  0003e	b8 00 00 00 00	 mov	 eax, OFFSET FLAT:$T188179
  00043	e9 00 00 00 00	 jmp	 ___CxxFrameHandler
text$x	ENDS
?ShowMessage@XDocHostShowUI@CCustomControlSite@@UAGJPAUHWND__@@PA_W1K1KPAJ@Z ENDP ; CCustomControlSite::XDocHostShowUI::ShowMessage
PUBLIC	?AddRef@XDocHostUIHandler@CCustomControlSite@@UAGKXZ ; CCustomControlSite::XDocHostUIHandler::AddRef
xdata$x	SEGMENT
$T188194 DD	0ffffffffH
	DD	FLAT:$L188187
$T188189 DD	019930520H
	DD	01H
	DD	FLAT:$T188194
	DD	2 DUP(00H)
	DD	2 DUP(00H)
; Function compile flags: /Odt /RTCsu
xdata$x	ENDS
_TEXT	SEGMENT
$T188186 = -36						; size = 4
__ctlState$ = -28					; size = 8
_pThis$ = -16						; size = 4
__$EHRec$ = -12						; size = 12
_this$ = 8						; size = 4
?AddRef@XDocHostUIHandler@CCustomControlSite@@UAGKXZ PROC NEAR ; CCustomControlSite::XDocHostUIHandler::AddRef

; 82   : {

  00430	55		 push	 ebp
  00431	8b ec		 mov	 ebp, esp
  00433	6a ff		 push	 -1
  00435	68 00 00 00 00	 push	 __ehhandler$?AddRef@XDocHostUIHandler@CCustomControlSite@@UAGKXZ
  0043a	64 a1 00 00 00
	00		 mov	 eax, DWORD PTR fs:__except_list
  00440	50		 push	 eax
  00441	64 89 25 00 00
	00 00		 mov	 DWORD PTR fs:__except_list, esp
  00448	83 ec 18	 sub	 esp, 24			; 00000018H
  0044b	b8 cc cc cc cc	 mov	 eax, -858993460		; ccccccccH
  00450	89 45 dc	 mov	 DWORD PTR [ebp-36], eax
  00453	89 45 e0	 mov	 DWORD PTR [ebp-32], eax
  00456	89 45 e4	 mov	 DWORD PTR [ebp-28], eax
  00459	89 45 e8	 mov	 DWORD PTR [ebp-24], eax
  0045c	89 45 ec	 mov	 DWORD PTR [ebp-20], eax
  0045f	89 45 f0	 mov	 DWORD PTR [ebp-16], eax

; 83   : 	METHOD_PROLOGUE(CCustomControlSite, DocHostUIHandler)

  00462	8b 45 08	 mov	 eax, DWORD PTR _this$[ebp]
  00465	2d f4 00 00 00	 sub	 eax, 244		; 000000f4H
  0046a	89 45 f0	 mov	 DWORD PTR _pThis$[ebp], eax
  0046d	8b 4d f0	 mov	 ecx, DWORD PTR _pThis$[ebp]
  00470	8b 51 1c	 mov	 edx, DWORD PTR [ecx+28]
  00473	52		 push	 edx
  00474	8d 4d e4	 lea	 ecx, DWORD PTR __ctlState$[ebp]
  00477	e8 00 00 00 00	 call	 ??0AFX_MAINTAIN_STATE2@@QAE@PAVAFX_MODULE_STATE@@@Z ; AFX_MAINTAIN_STATE2::AFX_MAINTAIN_STATE2
  0047c	c7 45 fc 00 00
	00 00		 mov	 DWORD PTR __$EHRec$[ebp+8], 0

; 84   : 	return pThis->ExternalAddRef();

  00483	8b 4d f0	 mov	 ecx, DWORD PTR _pThis$[ebp]
  00486	e8 00 00 00 00	 call	 ?ExternalAddRef@CCmdTarget@@QAEKXZ ; CCmdTarget::ExternalAddRef
  0048b	89 45 dc	 mov	 DWORD PTR $T188186[ebp], eax
  0048e	c7 45 fc ff ff
	ff ff		 mov	 DWORD PTR __$EHRec$[ebp+8], -1
  00495	8d 4d e4	 lea	 ecx, DWORD PTR __ctlState$[ebp]
  00498	e8 00 00 00 00	 call	 ??1AFX_MAINTAIN_STATE2@@QAE@XZ ; AFX_MAINTAIN_STATE2::~AFX_MAINTAIN_STATE2
  0049d	8b 45 dc	 mov	 eax, DWORD PTR $T188186[ebp]

; 85   : }

  004a0	52		 push	 edx
  004a1	8b cd		 mov	 ecx, ebp
  004a3	50		 push	 eax
  004a4	8d 15 00 00 00
	00		 lea	 edx, DWORD PTR $L188193
  004aa	e8 00 00 00 00	 call	 @_RTC_CheckStackVars@8
  004af	58		 pop	 eax
  004b0	5a		 pop	 edx
  004b1	8b 4d f4	 mov	 ecx, DWORD PTR __$EHRec$[ebp]
  004b4	64 89 0d 00 00
	00 00		 mov	 DWORD PTR fs:__except_list, ecx
  004bb	83 c4 24	 add	 esp, 36			; 00000024H
  004be	3b ec		 cmp	 ebp, esp
  004c0	e8 00 00 00 00	 call	 __RTC_CheckEsp
  004c5	8b e5		 mov	 esp, ebp
  004c7	5d		 pop	 ebp
  004c8	c2 04 00	 ret	 4
$L188193:
  004cb	01 00 00 00	 DD	 1
  004cf	00 00 00 00	 DD	 $L188192
$L188192:
  004d3	e4 ff ff ff	 DD	 -28			; ffffffe4H
  004d7	08 00 00 00	 DD	 8
  004db	00 00 00 00	 DD	 $L188190
$L188190:
  004df	5f		 DB	 95			; 0000005fH
  004e0	63		 DB	 99			; 00000063H
  004e1	74		 DB	 116			; 00000074H
  004e2	6c		 DB	 108			; 0000006cH
  004e3	53		 DB	 83			; 00000053H
  004e4	74		 DB	 116			; 00000074H
  004e5	61		 DB	 97			; 00000061H
  004e6	74		 DB	 116			; 00000074H
  004e7	65		 DB	 101			; 00000065H
  004e8	00		 DB	 0
_TEXT	ENDS
text$x	SEGMENT
$L188187:
  00048	8d 4d e4	 lea	 ecx, DWORD PTR __ctlState$[ebp]
  0004b	e9 00 00 00 00	 jmp	 ??1AFX_MAINTAIN_STATE2@@QAE@XZ ; AFX_MAINTAIN_STATE2::~AFX_MAINTAIN_STATE2
__ehhandler$?AddRef@XDocHostUIHandler@CCustomControlSite@@UAGKXZ:
  00050	b8 00 00 00 00	 mov	 eax, OFFSET FLAT:$T188189
  00055	e9 00 00 00 00	 jmp	 ___CxxFrameHandler
text$x	ENDS
?AddRef@XDocHostUIHandler@CCustomControlSite@@UAGKXZ ENDP ; CCustomControlSite::XDocHostUIHandler::AddRef
PUBLIC	?Release@XDocHostUIHandler@CCustomControlSite@@UAGKXZ ; CCustomControlSite::XDocHostUIHandler::Release
xdata$x	SEGMENT
$T188204 DD	0ffffffffH
	DD	FLAT:$L188197
$T188199 DD	019930520H
	DD	01H
	DD	FLAT:$T188204
	DD	2 DUP(00H)
	DD	2 DUP(00H)
; Function compile flags: /Odt /RTCsu
xdata$x	ENDS
_TEXT	SEGMENT
$T188196 = -36						; size = 4
__ctlState$ = -28					; size = 8
_pThis$ = -16						; size = 4
__$EHRec$ = -12						; size = 12
_this$ = 8						; size = 4
?Release@XDocHostUIHandler@CCustomControlSite@@UAGKXZ PROC NEAR ; CCustomControlSite::XDocHostUIHandler::Release

; 89   : {                            

  004f0	55		 push	 ebp
  004f1	8b ec		 mov	 ebp, esp
  004f3	6a ff		 push	 -1
  004f5	68 00 00 00 00	 push	 __ehhandler$?Release@XDocHostUIHandler@CCustomControlSite@@UAGKXZ
  004fa	64 a1 00 00 00
	00		 mov	 eax, DWORD PTR fs:__except_list
  00500	50		 push	 eax
  00501	64 89 25 00 00
	00 00		 mov	 DWORD PTR fs:__except_list, esp
  00508	83 ec 18	 sub	 esp, 24			; 00000018H
  0050b	b8 cc cc cc cc	 mov	 eax, -858993460		; ccccccccH
  00510	89 45 dc	 mov	 DWORD PTR [ebp-36], eax
  00513	89 45 e0	 mov	 DWORD PTR [ebp-32], eax
  00516	89 45 e4	 mov	 DWORD PTR [ebp-28], eax
  00519	89 45 e8	 mov	 DWORD PTR [ebp-24], eax
  0051c	89 45 ec	 mov	 DWORD PTR [ebp-20], eax
  0051f	89 45 f0	 mov	 DWORD PTR [ebp-16], eax

; 90   :     METHOD_PROLOGUE(CCustomControlSite, DocHostUIHandler)

  00522	8b 45 08	 mov	 eax, DWORD PTR _this$[ebp]
  00525	2d f4 00 00 00	 sub	 eax, 244		; 000000f4H
  0052a	89 45 f0	 mov	 DWORD PTR _pThis$[ebp], eax
  0052d	8b 4d f0	 mov	 ecx, DWORD PTR _pThis$[ebp]
  00530	8b 51 1c	 mov	 edx, DWORD PTR [ecx+28]
  00533	52		 push	 edx
  00534	8d 4d e4	 lea	 ecx, DWORD PTR __ctlState$[ebp]
  00537	e8 00 00 00 00	 call	 ??0AFX_MAINTAIN_STATE2@@QAE@PAVAFX_MODULE_STATE@@@Z ; AFX_MAINTAIN_STATE2::AFX_MAINTAIN_STATE2
  0053c	c7 45 fc 00 00
	00 00		 mov	 DWORD PTR __$EHRec$[ebp+8], 0

; 91   : 	return pThis->ExternalRelease();

  00543	8b 4d f0	 mov	 ecx, DWORD PTR _pThis$[ebp]
  00546	e8 00 00 00 00	 call	 ?ExternalRelease@CCmdTarget@@QAEKXZ ; CCmdTarget::ExternalRelease
  0054b	89 45 dc	 mov	 DWORD PTR $T188196[ebp], eax
  0054e	c7 45 fc ff ff
	ff ff		 mov	 DWORD PTR __$EHRec$[ebp+8], -1
  00555	8d 4d e4	 lea	 ecx, DWORD PTR __ctlState$[ebp]
  00558	e8 00 00 00 00	 call	 ??1AFX_MAINTAIN_STATE2@@QAE@XZ ; AFX_MAINTAIN_STATE2::~AFX_MAINTAIN_STATE2
  0055d	8b 45 dc	 mov	 eax, DWORD PTR $T188196[ebp]

; 92   : }

  00560	52		 push	 edx
  00561	8b cd		 mov	 ecx, ebp
  00563	50		 push	 eax
  00564	8d 15 00 00 00
	00		 lea	 edx, DWORD PTR $L188203
  0056a	e8 00 00 00 00	 call	 @_RTC_CheckStackVars@8
  0056f	58		 pop	 eax
  00570	5a		 pop	 edx
  00571	8b 4d f4	 mov	 ecx, DWORD PTR __$EHRec$[ebp]
  00574	64 89 0d 00 00
	00 00		 mov	 DWORD PTR fs:__except_list, ecx
  0057b	83 c4 24	 add	 esp, 36			; 00000024H
  0057e	3b ec		 cmp	 ebp, esp
  00580	e8 00 00 00 00	 call	 __RTC_CheckEsp
  00585	8b e5		 mov	 esp, ebp
  00587	5d		 pop	 ebp
  00588	c2 04 00	 ret	 4
$L188203:
  0058b	01 00 00 00	 DD	 1
  0058f	00 00 00 00	 DD	 $L188202
$L188202:
  00593	e4 ff ff ff	 DD	 -28			; ffffffe4H
  00597	08 00 00 00	 DD	 8
  0059b	00 00 00 00	 DD	 $L188200
$L188200:
  0059f	5f		 DB	 95			; 0000005fH
  005a0	63		 DB	 99			; 00000063H
  005a1	74		 DB	 116			; 00000074H
  005a2	6c		 DB	 108			; 0000006cH
  005a3	53		 DB	 83			; 00000053H
  005a4	74		 DB	 116			; 00000074H
  005a5	61		 DB	 97			; 00000061H
  005a6	74		 DB	 116			; 00000074H
  005a7	65		 DB	 101			; 00000065H
  005a8	00		 DB	 0
_TEXT	ENDS
text$x	SEGMENT
$L188197:
  0005a	8d 4d e4	 lea	 ecx, DWORD PTR __ctlState$[ebp]
  0005d	e9 00 00 00 00	 jmp	 ??1AFX_MAINTAIN_STATE2@@QAE@XZ ; AFX_MAINTAIN_STATE2::~AFX_MAINTAIN_STATE2
__ehhandler$?Release@XDocHostUIHandler@CCustomControlSite@@UAGKXZ:
  00062	b8 00 00 00 00	 mov	 eax, OFFSET FLAT:$T188199
  00067	e9 00 00 00 00	 jmp	 ___CxxFrameHandler
text$x	ENDS
?Release@XDocHostUIHandler@CCustomControlSite@@UAGKXZ ENDP ; CCustomControlSite::XDocHostUIHandler::Release
PUBLIC	?QueryInterface@XDocHostUIHandler@CCustomControlSite@@UAGJABU_GUID@@PAPAX@Z ; CCustomControlSite::XDocHostUIHandler::QueryInterface
xdata$x	SEGMENT
$T188214 DD	0ffffffffH
	DD	FLAT:$L188207
$T188209 DD	019930520H
	DD	01H
	DD	FLAT:$T188214
	DD	2 DUP(00H)
	DD	2 DUP(00H)
; Function compile flags: /Odt /RTCsu
xdata$x	ENDS
_TEXT	SEGMENT
$T188206 = -40						; size = 4
_hr$ = -36						; size = 4
__ctlState$ = -28					; size = 8
_pThis$ = -16						; size = 4
__$EHRec$ = -12						; size = 12
_this$ = 8						; size = 4
_riid$ = 12						; size = 4
_ppvObj$ = 16						; size = 4
?QueryInterface@XDocHostUIHandler@CCustomControlSite@@UAGJABU_GUID@@PAPAX@Z PROC NEAR ; CCustomControlSite::XDocHostUIHandler::QueryInterface

; 95   : {

  005b0	55		 push	 ebp
  005b1	8b ec		 mov	 ebp, esp
  005b3	6a ff		 push	 -1
  005b5	68 00 00 00 00	 push	 __ehhandler$?QueryInterface@XDocHostUIHandler@CCustomControlSite@@UAGJABU_GUID@@PAPAX@Z
  005ba	64 a1 00 00 00
	00		 mov	 eax, DWORD PTR fs:__except_list
  005c0	50		 push	 eax
  005c1	64 89 25 00 00
	00 00		 mov	 DWORD PTR fs:__except_list, esp
  005c8	83 ec 1c	 sub	 esp, 28			; 0000001cH
  005cb	b8 cc cc cc cc	 mov	 eax, -858993460		; ccccccccH
  005d0	89 45 d8	 mov	 DWORD PTR [ebp-40], eax
  005d3	89 45 dc	 mov	 DWORD PTR [ebp-36], eax
  005d6	89 45 e0	 mov	 DWORD PTR [ebp-32], eax
  005d9	89 45 e4	 mov	 DWORD PTR [ebp-28], eax
  005dc	89 45 e8	 mov	 DWORD PTR [ebp-24], eax
  005df	89 45 ec	 mov	 DWORD PTR [ebp-20], eax
  005e2	89 45 f0	 mov	 DWORD PTR [ebp-16], eax

; 96   : 	METHOD_PROLOGUE(CCustomControlSite, DocHostUIHandler)

  005e5	8b 45 08	 mov	 eax, DWORD PTR _this$[ebp]
  005e8	2d f4 00 00 00	 sub	 eax, 244		; 000000f4H
  005ed	89 45 f0	 mov	 DWORD PTR _pThis$[ebp], eax
  005f0	8b 4d f0	 mov	 ecx, DWORD PTR _pThis$[ebp]
  005f3	8b 51 1c	 mov	 edx, DWORD PTR [ecx+28]
  005f6	52		 push	 edx
  005f7	8d 4d e4	 lea	 ecx, DWORD PTR __ctlState$[ebp]
  005fa	e8 00 00 00 00	 call	 ??0AFX_MAINTAIN_STATE2@@QAE@PAVAFX_MODULE_STATE@@@Z ; AFX_MAINTAIN_STATE2::AFX_MAINTAIN_STATE2
  005ff	c7 45 fc 00 00
	00 00		 mov	 DWORD PTR __$EHRec$[ebp+8], 0

; 97   :     HRESULT hr = (HRESULT)pThis->ExternalQueryInterface(&riid, ppvObj);

  00606	8b 45 10	 mov	 eax, DWORD PTR _ppvObj$[ebp]
  00609	50		 push	 eax
  0060a	8b 4d 0c	 mov	 ecx, DWORD PTR _riid$[ebp]
  0060d	51		 push	 ecx
  0060e	8b 4d f0	 mov	 ecx, DWORD PTR _pThis$[ebp]
  00611	e8 00 00 00 00	 call	 ?ExternalQueryInterface@CCmdTarget@@QAEKPBXPAPAX@Z ; CCmdTarget::ExternalQueryInterface
  00616	89 45 dc	 mov	 DWORD PTR _hr$[ebp], eax

; 98   : 	return hr;

  00619	8b 55 dc	 mov	 edx, DWORD PTR _hr$[ebp]
  0061c	89 55 d8	 mov	 DWORD PTR $T188206[ebp], edx
  0061f	c7 45 fc ff ff
	ff ff		 mov	 DWORD PTR __$EHRec$[ebp+8], -1
  00626	8d 4d e4	 lea	 ecx, DWORD PTR __ctlState$[ebp]
  00629	e8 00 00 00 00	 call	 ??1AFX_MAINTAIN_STATE2@@QAE@XZ ; AFX_MAINTAIN_STATE2::~AFX_MAINTAIN_STATE2
  0062e	8b 45 d8	 mov	 eax, DWORD PTR $T188206[ebp]

; 99   : }

  00631	52		 push	 edx
  00632	8b cd		 mov	 ecx, ebp
  00634	50		 push	 eax
  00635	8d 15 00 00 00
	00		 lea	 edx, DWORD PTR $L188213
  0063b	e8 00 00 00 00	 call	 @_RTC_CheckStackVars@8
  00640	58		 pop	 eax
  00641	5a		 pop	 edx
  00642	8b 4d f4	 mov	 ecx, DWORD PTR __$EHRec$[ebp]
  00645	64 89 0d 00 00
	00 00		 mov	 DWORD PTR fs:__except_list, ecx
  0064c	83 c4 28	 add	 esp, 40			; 00000028H
  0064f	3b ec		 cmp	 ebp, esp
  00651	e8 00 00 00 00	 call	 __RTC_CheckEsp
  00656	8b e5		 mov	 esp, ebp
  00658	5d		 pop	 ebp
  00659	c2 0c 00	 ret	 12			; 0000000cH
$L188213:
  0065c	01 00 00 00	 DD	 1
  00660	00 00 00 00	 DD	 $L188212
$L188212:
  00664	e4 ff ff ff	 DD	 -28			; ffffffe4H
  00668	08 00 00 00	 DD	 8
  0066c	00 00 00 00	 DD	 $L188210
$L188210:
  00670	5f		 DB	 95			; 0000005fH
  00671	63		 DB	 99			; 00000063H
  00672	74		 DB	 116			; 00000074H
  00673	6c		 DB	 108			; 0000006cH
  00674	53		 DB	 83			; 00000053H
  00675	74		 DB	 116			; 00000074H
  00676	61		 DB	 97			; 00000061H
  00677	74		 DB	 116			; 00000074H
  00678	65		 DB	 101			; 00000065H
  00679	00		 DB	 0
_TEXT	ENDS
text$x	SEGMENT
$L188207:
  0006c	8d 4d e4	 lea	 ecx, DWORD PTR __ctlState$[ebp]
  0006f	e9 00 00 00 00	 jmp	 ??1AFX_MAINTAIN_STATE2@@QAE@XZ ; AFX_MAINTAIN_STATE2::~AFX_MAINTAIN_STATE2
__ehhandler$?QueryInterface@XDocHostUIHandler@CCustomControlSite@@UAGJABU_GUID@@PAPAX@Z:
  00074	b8 00 00 00 00	 mov	 eax, OFFSET FLAT:$T188209
  00079	e9 00 00 00 00	 jmp	 ___CxxFrameHandler
text$x	ENDS
?QueryInterface@XDocHostUIHandler@CCustomControlSite@@UAGJABU_GUID@@PAPAX@Z ENDP ; CCustomControlSite::XDocHostUIHandler::QueryInterface
PUBLIC	?GetHostInfo@XDocHostUIHandler@CCustomControlSite@@UAGJPAU_DOCHOSTUIINFO@@@Z ; CCustomControlSite::XDocHostUIHandler::GetHostInfo
; Function compile flags: /Odt /RTCsu
_TEXT	SEGMENT
$T188216 = -24						; size = 4
__ctlState$ = -16					; size = 8
_pThis$ = -4						; size = 4
_this$ = 8						; size = 4
_pInfo$ = 12						; size = 4
?GetHostInfo@XDocHostUIHandler@CCustomControlSite@@UAGJPAU_DOCHOSTUIINFO@@@Z PROC NEAR ; CCustomControlSite::XDocHostUIHandler::GetHostInfo

; 106  : {

  00680	55		 push	 ebp
  00681	8b ec		 mov	 ebp, esp
  00683	83 ec 18	 sub	 esp, 24			; 00000018H
  00686	b8 cc cc cc cc	 mov	 eax, -858993460		; ccccccccH
  0068b	89 45 e8	 mov	 DWORD PTR [ebp-24], eax
  0068e	89 45 ec	 mov	 DWORD PTR [ebp-20], eax
  00691	89 45 f0	 mov	 DWORD PTR [ebp-16], eax
  00694	89 45 f4	 mov	 DWORD PTR [ebp-12], eax
  00697	89 45 f8	 mov	 DWORD PTR [ebp-8], eax
  0069a	89 45 fc	 mov	 DWORD PTR [ebp-4], eax

; 107  : 
; 108  : 	METHOD_PROLOGUE(CCustomControlSite, DocHostUIHandler)

  0069d	8b 45 08	 mov	 eax, DWORD PTR _this$[ebp]
  006a0	2d f4 00 00 00	 sub	 eax, 244		; 000000f4H
  006a5	89 45 fc	 mov	 DWORD PTR _pThis$[ebp], eax
  006a8	8b 4d fc	 mov	 ecx, DWORD PTR _pThis$[ebp]
  006ab	8b 51 1c	 mov	 edx, DWORD PTR [ecx+28]
  006ae	52		 push	 edx
  006af	8d 4d f0	 lea	 ecx, DWORD PTR __ctlState$[ebp]
  006b2	e8 00 00 00 00	 call	 ??0AFX_MAINTAIN_STATE2@@QAE@PAVAFX_MODULE_STATE@@@Z ; AFX_MAINTAIN_STATE2::AFX_MAINTAIN_STATE2

; 109  : 	//
; 110  : 	//pInfo->dwFlags = DOCHOSTUIFLAG_SCROLL_NO | DOCHOSTUIFLAG_NO3DBORDER;
; 111  :     //pInfo->dwDoubleClick = DOCHOSTUIDBLCLK_DEFAULT;
; 112  :     return S_OK;

  006b7	c7 45 e8 00 00
	00 00		 mov	 DWORD PTR $T188216[ebp], 0
  006be	8d 4d f0	 lea	 ecx, DWORD PTR __ctlState$[ebp]
  006c1	e8 00 00 00 00	 call	 ??1AFX_MAINTAIN_STATE2@@QAE@XZ ; AFX_MAINTAIN_STATE2::~AFX_MAINTAIN_STATE2
  006c6	8b 45 e8	 mov	 eax, DWORD PTR $T188216[ebp]

; 113  : }

  006c9	52		 push	 edx
  006ca	8b cd		 mov	 ecx, ebp
  006cc	50		 push	 eax
  006cd	8d 15 00 00 00
	00		 lea	 edx, DWORD PTR $L188220
  006d3	e8 00 00 00 00	 call	 @_RTC_CheckStackVars@8
  006d8	58		 pop	 eax
  006d9	5a		 pop	 edx
  006da	83 c4 18	 add	 esp, 24			; 00000018H
  006dd	3b ec		 cmp	 ebp, esp
  006df	e8 00 00 00 00	 call	 __RTC_CheckEsp
  006e4	8b e5		 mov	 esp, ebp
  006e6	5d		 pop	 ebp
  006e7	c2 08 00	 ret	 8
$L188220:
  006ea	01 00 00 00	 DD	 1
  006ee	00 00 00 00	 DD	 $L188219
$L188219:
  006f2	f0 ff ff ff	 DD	 -16			; fffffff0H
  006f6	08 00 00 00	 DD	 8
  006fa	00 00 00 00	 DD	 $L188218
$L188218:
  006fe	5f		 DB	 95			; 0000005fH
  006ff	63		 DB	 99			; 00000063H
  00700	74		 DB	 116			; 00000074H
  00701	6c		 DB	 108			; 0000006cH
  00702	53		 DB	 83			; 00000053H
  00703	74		 DB	 116			; 00000074H
  00704	61		 DB	 97			; 00000061H
  00705	74		 DB	 116			; 00000074H
  00706	65		 DB	 101			; 00000065H
  00707	00		 DB	 0
?GetHostInfo@XDocHostUIHandler@CCustomControlSite@@UAGJPAU_DOCHOSTUIINFO@@@Z ENDP ; CCustomControlSite::XDocHostUIHandler::GetHostInfo
_TEXT	ENDS
PUBLIC	?ShowUI@XDocHostUIHandler@CCustomControlSite@@UAGJKPAUIOleInPlaceActiveObject@@PAUIOleCommandTarget@@PAUIOleInPlaceFrame@@PAUIOleInPlaceUIWindow@@@Z ; CCustomControlSite::XDocHostUIHandler::ShowUI
; Function compile flags: /Odt /RTCsu
_TEXT	SEGMENT
$T188222 = -24						; size = 4
__ctlState$ = -16					; size = 8
_pThis$ = -4						; size = 4
_this$ = 8						; size = 4
_dwID$ = 12						; size = 4
___formal$ = 16						; size = 4
_pCommandTarget$ = 20					; size = 4
_pFrame$ = 24						; size = 4
___formal$ = 28						; size = 4
?ShowUI@XDocHostUIHandler@CCustomControlSite@@UAGJKPAUIOleInPlaceActiveObject@@PAUIOleCommandTarget@@PAUIOleInPlaceFrame@@PAUIOleInPlaceUIWindow@@@Z PROC NEAR ; CCustomControlSite::XDocHostUIHandler::ShowUI

; 125  : {

  00710	55		 push	 ebp
  00711	8b ec		 mov	 ebp, esp
  00713	83 ec 18	 sub	 esp, 24			; 00000018H
  00716	b8 cc cc cc cc	 mov	 eax, -858993460		; ccccccccH
  0071b	89 45 e8	 mov	 DWORD PTR [ebp-24], eax
  0071e	89 45 ec	 mov	 DWORD PTR [ebp-20], eax
  00721	89 45 f0	 mov	 DWORD PTR [ebp-16], eax
  00724	89 45 f4	 mov	 DWORD PTR [ebp-12], eax
  00727	89 45 f8	 mov	 DWORD PTR [ebp-8], eax
  0072a	89 45 fc	 mov	 DWORD PTR [ebp-4], eax

; 126  : 	METHOD_PROLOGUE(CCustomControlSite, DocHostUIHandler)

  0072d	8b 45 08	 mov	 eax, DWORD PTR _this$[ebp]
  00730	2d f4 00 00 00	 sub	 eax, 244		; 000000f4H
  00735	89 45 fc	 mov	 DWORD PTR _pThis$[ebp], eax
  00738	8b 4d fc	 mov	 ecx, DWORD PTR _pThis$[ebp]
  0073b	8b 51 1c	 mov	 edx, DWORD PTR [ecx+28]
  0073e	52		 push	 edx
  0073f	8d 4d f0	 lea	 ecx, DWORD PTR __ctlState$[ebp]
  00742	e8 00 00 00 00	 call	 ??0AFX_MAINTAIN_STATE2@@QAE@PAVAFX_MODULE_STATE@@@Z ; AFX_MAINTAIN_STATE2::AFX_MAINTAIN_STATE2

; 127  : 	// We've already got our own UI in place so just return S_OK
; 128  :     return S_OK;

  00747	c7 45 e8 00 00
	00 00		 mov	 DWORD PTR $T188222[ebp], 0
  0074e	8d 4d f0	 lea	 ecx, DWORD PTR __ctlState$[ebp]
  00751	e8 00 00 00 00	 call	 ??1AFX_MAINTAIN_STATE2@@QAE@XZ ; AFX_MAINTAIN_STATE2::~AFX_MAINTAIN_STATE2
  00756	8b 45 e8	 mov	 eax, DWORD PTR $T188222[ebp]

; 129  : }

  00759	52		 push	 edx
  0075a	8b cd		 mov	 ecx, ebp
  0075c	50		 push	 eax
  0075d	8d 15 00 00 00
	00		 lea	 edx, DWORD PTR $L188226
  00763	e8 00 00 00 00	 call	 @_RTC_CheckStackVars@8
  00768	58		 pop	 eax
  00769	5a		 pop	 edx
  0076a	83 c4 18	 add	 esp, 24			; 00000018H
  0076d	3b ec		 cmp	 ebp, esp
  0076f	e8 00 00 00 00	 call	 __RTC_CheckEsp
  00774	8b e5		 mov	 esp, ebp
  00776	5d		 pop	 ebp
  00777	c2 18 00	 ret	 24			; 00000018H
$L188226:
  0077a	01 00 00 00	 DD	 1
  0077e	00 00 00 00	 DD	 $L188225
$L188225:
  00782	f0 ff ff ff	 DD	 -16			; fffffff0H
  00786	08 00 00 00	 DD	 8
  0078a	00 00 00 00	 DD	 $L188224
$L188224:
  0078e	5f		 DB	 95			; 0000005fH
  0078f	63		 DB	 99			; 00000063H
  00790	74		 DB	 116			; 00000074H
  00791	6c		 DB	 108			; 0000006cH
  00792	53		 DB	 83			; 00000053H
  00793	74		 DB	 116			; 00000074H
  00794	61		 DB	 97			; 00000061H
  00795	74		 DB	 116			; 00000074H
  00796	65		 DB	 101			; 00000065H
  00797	00		 DB	 0
?ShowUI@XDocHostUIHandler@CCustomControlSite@@UAGJKPAUIOleInPlaceActiveObject@@PAUIOleCommandTarget@@PAUIOleInPlaceFrame@@PAUIOleInPlaceUIWindow@@@Z ENDP ; CCustomControlSite::XDocHostUIHandler::ShowUI
_TEXT	ENDS
PUBLIC	?HideUI@XDocHostUIHandler@CCustomControlSite@@UAGJXZ ; CCustomControlSite::XDocHostUIHandler::HideUI
; Function compile flags: /Odt /RTCsu
_TEXT	SEGMENT
$T188228 = -24						; size = 4
__ctlState$ = -16					; size = 8
_pThis$ = -4						; size = 4
_this$ = 8						; size = 4
?HideUI@XDocHostUIHandler@CCustomControlSite@@UAGJXZ PROC NEAR ; CCustomControlSite::XDocHostUIHandler::HideUI

; 136  : {

  007a0	55		 push	 ebp
  007a1	8b ec		 mov	 ebp, esp
  007a3	83 ec 18	 sub	 esp, 24			; 00000018H
  007a6	b8 cc cc cc cc	 mov	 eax, -858993460		; ccccccccH
  007ab	89 45 e8	 mov	 DWORD PTR [ebp-24], eax
  007ae	89 45 ec	 mov	 DWORD PTR [ebp-20], eax
  007b1	89 45 f0	 mov	 DWORD PTR [ebp-16], eax
  007b4	89 45 f4	 mov	 DWORD PTR [ebp-12], eax
  007b7	89 45 f8	 mov	 DWORD PTR [ebp-8], eax
  007ba	89 45 fc	 mov	 DWORD PTR [ebp-4], eax

; 137  : 	METHOD_PROLOGUE(CCustomControlSite, DocHostUIHandler)

  007bd	8b 45 08	 mov	 eax, DWORD PTR _this$[ebp]
  007c0	2d f4 00 00 00	 sub	 eax, 244		; 000000f4H
  007c5	89 45 fc	 mov	 DWORD PTR _pThis$[ebp], eax
  007c8	8b 4d fc	 mov	 ecx, DWORD PTR _pThis$[ebp]
  007cb	8b 51 1c	 mov	 edx, DWORD PTR [ecx+28]
  007ce	52		 push	 edx
  007cf	8d 4d f0	 lea	 ecx, DWORD PTR __ctlState$[ebp]
  007d2	e8 00 00 00 00	 call	 ??0AFX_MAINTAIN_STATE2@@QAE@PAVAFX_MODULE_STATE@@@Z ; AFX_MAINTAIN_STATE2::AFX_MAINTAIN_STATE2

; 138  :     return S_OK;

  007d7	c7 45 e8 00 00
	00 00		 mov	 DWORD PTR $T188228[ebp], 0
  007de	8d 4d f0	 lea	 ecx, DWORD PTR __ctlState$[ebp]
  007e1	e8 00 00 00 00	 call	 ??1AFX_MAINTAIN_STATE2@@QAE@XZ ; AFX_MAINTAIN_STATE2::~AFX_MAINTAIN_STATE2
  007e6	8b 45 e8	 mov	 eax, DWORD PTR $T188228[ebp]

; 139  : }

  007e9	52		 push	 edx
  007ea	8b cd		 mov	 ecx, ebp
  007ec	50		 push	 eax
  007ed	8d 15 00 00 00
	00		 lea	 edx, DWORD PTR $L188232
  007f3	e8 00 00 00 00	 call	 @_RTC_CheckStackVars@8
  007f8	58		 pop	 eax
  007f9	5a		 pop	 edx
  007fa	83 c4 18	 add	 esp, 24			; 00000018H
  007fd	3b ec		 cmp	 ebp, esp
  007ff	e8 00 00 00 00	 call	 __RTC_CheckEsp
  00804	8b e5		 mov	 esp, ebp
  00806	5d		 pop	 ebp
  00807	c2 04 00	 ret	 4
$L188232:
  0080a	01 00 00 00	 DD	 1
  0080e	00 00 00 00	 DD	 $L188231
$L188231:
  00812	f0 ff ff ff	 DD	 -16			; fffffff0H
  00816	08 00 00 00	 DD	 8
  0081a	00 00 00 00	 DD	 $L188230
$L188230:
  0081e	5f		 DB	 95			; 0000005fH
  0081f	63		 DB	 99			; 00000063H
  00820	74		 DB	 116			; 00000074H
  00821	6c		 DB	 108			; 0000006cH
  00822	53		 DB	 83			; 00000053H
  00823	74		 DB	 116			; 00000074H
  00824	61		 DB	 97			; 00000061H
  00825	74		 DB	 116			; 00000074H
  00826	65		 DB	 101			; 00000065H
  00827	00		 DB	 0
?HideUI@XDocHostUIHandler@CCustomControlSite@@UAGJXZ ENDP ; CCustomControlSite::XDocHostUIHandler::HideUI
_TEXT	ENDS
PUBLIC	?UpdateUI@XDocHostUIHandler@CCustomControlSite@@UAGJXZ ; CCustomControlSite::XDocHostUIHandler::UpdateUI
; Function compile flags: /Odt /RTCsu
_TEXT	SEGMENT
$T188234 = -24						; size = 4
__ctlState$ = -16					; size = 8
_pThis$ = -4						; size = 4
_this$ = 8						; size = 4
?UpdateUI@XDocHostUIHandler@CCustomControlSite@@UAGJXZ PROC NEAR ; CCustomControlSite::XDocHostUIHandler::UpdateUI

; 146  : {

  00830	55		 push	 ebp
  00831	8b ec		 mov	 ebp, esp
  00833	83 ec 18	 sub	 esp, 24			; 00000018H
  00836	b8 cc cc cc cc	 mov	 eax, -858993460		; ccccccccH
  0083b	89 45 e8	 mov	 DWORD PTR [ebp-24], eax
  0083e	89 45 ec	 mov	 DWORD PTR [ebp-20], eax
  00841	89 45 f0	 mov	 DWORD PTR [ebp-16], eax
  00844	89 45 f4	 mov	 DWORD PTR [ebp-12], eax
  00847	89 45 f8	 mov	 DWORD PTR [ebp-8], eax
  0084a	89 45 fc	 mov	 DWORD PTR [ebp-4], eax

; 147  : 	METHOD_PROLOGUE(CCustomControlSite, DocHostUIHandler)

  0084d	8b 45 08	 mov	 eax, DWORD PTR _this$[ebp]
  00850	2d f4 00 00 00	 sub	 eax, 244		; 000000f4H
  00855	89 45 fc	 mov	 DWORD PTR _pThis$[ebp], eax
  00858	8b 4d fc	 mov	 ecx, DWORD PTR _pThis$[ebp]
  0085b	8b 51 1c	 mov	 edx, DWORD PTR [ecx+28]
  0085e	52		 push	 edx
  0085f	8d 4d f0	 lea	 ecx, DWORD PTR __ctlState$[ebp]
  00862	e8 00 00 00 00	 call	 ??0AFX_MAINTAIN_STATE2@@QAE@PAVAFX_MODULE_STATE@@@Z ; AFX_MAINTAIN_STATE2::AFX_MAINTAIN_STATE2

; 148  : 	// MFC is pretty good about updating it's UI in it's Idle loop so I don't do anything here
; 149  : 	return S_OK;

  00867	c7 45 e8 00 00
	00 00		 mov	 DWORD PTR $T188234[ebp], 0
  0086e	8d 4d f0	 lea	 ecx, DWORD PTR __ctlState$[ebp]
  00871	e8 00 00 00 00	 call	 ??1AFX_MAINTAIN_STATE2@@QAE@XZ ; AFX_MAINTAIN_STATE2::~AFX_MAINTAIN_STATE2
  00876	8b 45 e8	 mov	 eax, DWORD PTR $T188234[ebp]

; 150  : }

  00879	52		 push	 edx
  0087a	8b cd		 mov	 ecx, ebp
  0087c	50		 push	 eax
  0087d	8d 15 00 00 00
	00		 lea	 edx, DWORD PTR $L188238
  00883	e8 00 00 00 00	 call	 @_RTC_CheckStackVars@8
  00888	58		 pop	 eax
  00889	5a		 pop	 edx
  0088a	83 c4 18	 add	 esp, 24			; 00000018H
  0088d	3b ec		 cmp	 ebp, esp
  0088f	e8 00 00 00 00	 call	 __RTC_CheckEsp
  00894	8b e5		 mov	 esp, ebp
  00896	5d		 pop	 ebp
  00897	c2 04 00	 ret	 4
$L188238:
  0089a	01 00 00 00	 DD	 1
  0089e	00 00 00 00	 DD	 $L188237
$L188237:
  008a2	f0 ff ff ff	 DD	 -16			; fffffff0H
  008a6	08 00 00 00	 DD	 8
  008aa	00 00 00 00	 DD	 $L188236
$L188236:
  008ae	5f		 DB	 95			; 0000005fH
  008af	63		 DB	 99			; 00000063H
  008b0	74		 DB	 116			; 00000074H
  008b1	6c		 DB	 108			; 0000006cH
  008b2	53		 DB	 83			; 00000053H
  008b3	74		 DB	 116			; 00000074H
  008b4	61		 DB	 97			; 00000061H
  008b5	74		 DB	 116			; 00000074H
  008b6	65		 DB	 101			; 00000065H
  008b7	00		 DB	 0
?UpdateUI@XDocHostUIHandler@CCustomControlSite@@UAGJXZ ENDP ; CCustomControlSite::XDocHostUIHandler::UpdateUI
_TEXT	ENDS
PUBLIC	?EnableModeless@XDocHostUIHandler@CCustomControlSite@@UAGJH@Z ; CCustomControlSite::XDocHostUIHandler::EnableModeless
; Function compile flags: /Odt /RTCsu
_TEXT	SEGMENT
$T188240 = -24						; size = 4
__ctlState$ = -16					; size = 8
_pThis$ = -4						; size = 4
_this$ = 8						; size = 4
___formal$ = 12						; size = 4
?EnableModeless@XDocHostUIHandler@CCustomControlSite@@UAGJH@Z PROC NEAR ; CCustomControlSite::XDocHostUIHandler::EnableModeless

; 157  : {

  008c0	55		 push	 ebp
  008c1	8b ec		 mov	 ebp, esp
  008c3	83 ec 18	 sub	 esp, 24			; 00000018H
  008c6	b8 cc cc cc cc	 mov	 eax, -858993460		; ccccccccH
  008cb	89 45 e8	 mov	 DWORD PTR [ebp-24], eax
  008ce	89 45 ec	 mov	 DWORD PTR [ebp-20], eax
  008d1	89 45 f0	 mov	 DWORD PTR [ebp-16], eax
  008d4	89 45 f4	 mov	 DWORD PTR [ebp-12], eax
  008d7	89 45 f8	 mov	 DWORD PTR [ebp-8], eax
  008da	89 45 fc	 mov	 DWORD PTR [ebp-4], eax

; 158  : 	METHOD_PROLOGUE(CCustomControlSite, DocHostUIHandler)

  008dd	8b 45 08	 mov	 eax, DWORD PTR _this$[ebp]
  008e0	2d f4 00 00 00	 sub	 eax, 244		; 000000f4H
  008e5	89 45 fc	 mov	 DWORD PTR _pThis$[ebp], eax
  008e8	8b 4d fc	 mov	 ecx, DWORD PTR _pThis$[ebp]
  008eb	8b 51 1c	 mov	 edx, DWORD PTR [ecx+28]
  008ee	52		 push	 edx
  008ef	8d 4d f0	 lea	 ecx, DWORD PTR __ctlState$[ebp]
  008f2	e8 00 00 00 00	 call	 ??0AFX_MAINTAIN_STATE2@@QAE@PAVAFX_MODULE_STATE@@@Z ; AFX_MAINTAIN_STATE2::AFX_MAINTAIN_STATE2

; 159  :     return E_NOTIMPL;

  008f7	c7 45 e8 01 40
	00 80		 mov	 DWORD PTR $T188240[ebp], -2147467263 ; 80004001H
  008fe	8d 4d f0	 lea	 ecx, DWORD PTR __ctlState$[ebp]
  00901	e8 00 00 00 00	 call	 ??1AFX_MAINTAIN_STATE2@@QAE@XZ ; AFX_MAINTAIN_STATE2::~AFX_MAINTAIN_STATE2
  00906	8b 45 e8	 mov	 eax, DWORD PTR $T188240[ebp]

; 160  : }

  00909	52		 push	 edx
  0090a	8b cd		 mov	 ecx, ebp
  0090c	50		 push	 eax
  0090d	8d 15 00 00 00
	00		 lea	 edx, DWORD PTR $L188244
  00913	e8 00 00 00 00	 call	 @_RTC_CheckStackVars@8
  00918	58		 pop	 eax
  00919	5a		 pop	 edx
  0091a	83 c4 18	 add	 esp, 24			; 00000018H
  0091d	3b ec		 cmp	 ebp, esp
  0091f	e8 00 00 00 00	 call	 __RTC_CheckEsp
  00924	8b e5		 mov	 esp, ebp
  00926	5d		 pop	 ebp
  00927	c2 08 00	 ret	 8
$L188244:
  0092a	01 00 00 00	 DD	 1
  0092e	00 00 00 00	 DD	 $L188243
$L188243:
  00932	f0 ff ff ff	 DD	 -16			; fffffff0H
  00936	08 00 00 00	 DD	 8
  0093a	00 00 00 00	 DD	 $L188242
$L188242:
  0093e	5f		 DB	 95			; 0000005fH
  0093f	63		 DB	 99			; 00000063H
  00940	74		 DB	 116			; 00000074H
  00941	6c		 DB	 108			; 0000006cH
  00942	53		 DB	 83			; 00000053H
  00943	74		 DB	 116			; 00000074H
  00944	61		 DB	 97			; 00000061H
  00945	74		 DB	 116			; 00000074H
  00946	65		 DB	 101			; 00000065H
  00947	00		 DB	 0
?EnableModeless@XDocHostUIHandler@CCustomControlSite@@UAGJH@Z ENDP ; CCustomControlSite::XDocHostUIHandler::EnableModeless
_TEXT	ENDS
PUBLIC	?OnDocWindowActivate@XDocHostUIHandler@CCustomControlSite@@UAGJH@Z ; CCustomControlSite::XDocHostUIHandler::OnDocWindowActivate
; Function compile flags: /Odt /RTCsu
_TEXT	SEGMENT
$T188246 = -24						; size = 4
__ctlState$ = -16					; size = 8
_pThis$ = -4						; size = 4
_this$ = 8						; size = 4
___formal$ = 12						; size = 4
?OnDocWindowActivate@XDocHostUIHandler@CCustomControlSite@@UAGJH@Z PROC NEAR ; CCustomControlSite::XDocHostUIHandler::OnDocWindowActivate

; 167  : {

  00950	55		 push	 ebp
  00951	8b ec		 mov	 ebp, esp
  00953	83 ec 18	 sub	 esp, 24			; 00000018H
  00956	b8 cc cc cc cc	 mov	 eax, -858993460		; ccccccccH
  0095b	89 45 e8	 mov	 DWORD PTR [ebp-24], eax
  0095e	89 45 ec	 mov	 DWORD PTR [ebp-20], eax
  00961	89 45 f0	 mov	 DWORD PTR [ebp-16], eax
  00964	89 45 f4	 mov	 DWORD PTR [ebp-12], eax
  00967	89 45 f8	 mov	 DWORD PTR [ebp-8], eax
  0096a	89 45 fc	 mov	 DWORD PTR [ebp-4], eax

; 168  : 	METHOD_PROLOGUE(CCustomControlSite, DocHostUIHandler)

  0096d	8b 45 08	 mov	 eax, DWORD PTR _this$[ebp]
  00970	2d f4 00 00 00	 sub	 eax, 244		; 000000f4H
  00975	89 45 fc	 mov	 DWORD PTR _pThis$[ebp], eax
  00978	8b 4d fc	 mov	 ecx, DWORD PTR _pThis$[ebp]
  0097b	8b 51 1c	 mov	 edx, DWORD PTR [ecx+28]
  0097e	52		 push	 edx
  0097f	8d 4d f0	 lea	 ecx, DWORD PTR __ctlState$[ebp]
  00982	e8 00 00 00 00	 call	 ??0AFX_MAINTAIN_STATE2@@QAE@PAVAFX_MODULE_STATE@@@Z ; AFX_MAINTAIN_STATE2::AFX_MAINTAIN_STATE2

; 169  :     return E_NOTIMPL;

  00987	c7 45 e8 01 40
	00 80		 mov	 DWORD PTR $T188246[ebp], -2147467263 ; 80004001H
  0098e	8d 4d f0	 lea	 ecx, DWORD PTR __ctlState$[ebp]
  00991	e8 00 00 00 00	 call	 ??1AFX_MAINTAIN_STATE2@@QAE@XZ ; AFX_MAINTAIN_STATE2::~AFX_MAINTAIN_STATE2
  00996	8b 45 e8	 mov	 eax, DWORD PTR $T188246[ebp]

; 170  : }

  00999	52		 push	 edx
  0099a	8b cd		 mov	 ecx, ebp
  0099c	50		 push	 eax
  0099d	8d 15 00 00 00
	00		 lea	 edx, DWORD PTR $L188250
  009a3	e8 00 00 00 00	 call	 @_RTC_CheckStackVars@8
  009a8	58		 pop	 eax
  009a9	5a		 pop	 edx
  009aa	83 c4 18	 add	 esp, 24			; 00000018H
  009ad	3b ec		 cmp	 ebp, esp
  009af	e8 00 00 00 00	 call	 __RTC_CheckEsp
  009b4	8b e5		 mov	 esp, ebp
  009b6	5d		 pop	 ebp
  009b7	c2 08 00	 ret	 8
$L188250:
  009ba	01 00 00 00	 DD	 1
  009be	00 00 00 00	 DD	 $L188249
$L188249:
  009c2	f0 ff ff ff	 DD	 -16			; fffffff0H
  009c6	08 00 00 00	 DD	 8
  009ca	00 00 00 00	 DD	 $L188248
$L188248:
  009ce	5f		 DB	 95			; 0000005fH
  009cf	63		 DB	 99			; 00000063H
  009d0	74		 DB	 116			; 00000074H
  009d1	6c		 DB	 108			; 0000006cH
  009d2	53		 DB	 83			; 00000053H
  009d3	74		 DB	 116			; 00000074H
  009d4	61		 DB	 97			; 00000061H
  009d5	74		 DB	 116			; 00000074H
  009d6	65		 DB	 101			; 00000065H
  009d7	00		 DB	 0
?OnDocWindowActivate@XDocHostUIHandler@CCustomControlSite@@UAGJH@Z ENDP ; CCustomControlSite::XDocHostUIHandler::OnDocWindowActivate
_TEXT	ENDS
PUBLIC	?OnFrameWindowActivate@XDocHostUIHandler@CCustomControlSite@@UAGJH@Z ; CCustomControlSite::XDocHostUIHandler::OnFrameWindowActivate
; Function compile flags: /Odt /RTCsu
_TEXT	SEGMENT
$T188252 = -24						; size = 4
__ctlState$ = -16					; size = 8
_pThis$ = -4						; size = 4
_this$ = 8						; size = 4
___formal$ = 12						; size = 4
?OnFrameWindowActivate@XDocHostUIHandler@CCustomControlSite@@UAGJH@Z PROC NEAR ; CCustomControlSite::XDocHostUIHandler::OnFrameWindowActivate

; 177  : {

  009e0	55		 push	 ebp
  009e1	8b ec		 mov	 ebp, esp
  009e3	83 ec 18	 sub	 esp, 24			; 00000018H
  009e6	b8 cc cc cc cc	 mov	 eax, -858993460		; ccccccccH
  009eb	89 45 e8	 mov	 DWORD PTR [ebp-24], eax
  009ee	89 45 ec	 mov	 DWORD PTR [ebp-20], eax
  009f1	89 45 f0	 mov	 DWORD PTR [ebp-16], eax
  009f4	89 45 f4	 mov	 DWORD PTR [ebp-12], eax
  009f7	89 45 f8	 mov	 DWORD PTR [ebp-8], eax
  009fa	89 45 fc	 mov	 DWORD PTR [ebp-4], eax

; 178  : 	METHOD_PROLOGUE(CCustomControlSite, DocHostUIHandler)

  009fd	8b 45 08	 mov	 eax, DWORD PTR _this$[ebp]
  00a00	2d f4 00 00 00	 sub	 eax, 244		; 000000f4H
  00a05	89 45 fc	 mov	 DWORD PTR _pThis$[ebp], eax
  00a08	8b 4d fc	 mov	 ecx, DWORD PTR _pThis$[ebp]
  00a0b	8b 51 1c	 mov	 edx, DWORD PTR [ecx+28]
  00a0e	52		 push	 edx
  00a0f	8d 4d f0	 lea	 ecx, DWORD PTR __ctlState$[ebp]
  00a12	e8 00 00 00 00	 call	 ??0AFX_MAINTAIN_STATE2@@QAE@PAVAFX_MODULE_STATE@@@Z ; AFX_MAINTAIN_STATE2::AFX_MAINTAIN_STATE2

; 179  :     return E_NOTIMPL;

  00a17	c7 45 e8 01 40
	00 80		 mov	 DWORD PTR $T188252[ebp], -2147467263 ; 80004001H
  00a1e	8d 4d f0	 lea	 ecx, DWORD PTR __ctlState$[ebp]
  00a21	e8 00 00 00 00	 call	 ??1AFX_MAINTAIN_STATE2@@QAE@XZ ; AFX_MAINTAIN_STATE2::~AFX_MAINTAIN_STATE2
  00a26	8b 45 e8	 mov	 eax, DWORD PTR $T188252[ebp]

; 180  : }

  00a29	52		 push	 edx
  00a2a	8b cd		 mov	 ecx, ebp
  00a2c	50		 push	 eax
  00a2d	8d 15 00 00 00
	00		 lea	 edx, DWORD PTR $L188256
  00a33	e8 00 00 00 00	 call	 @_RTC_CheckStackVars@8
  00a38	58		 pop	 eax
  00a39	5a		 pop	 edx
  00a3a	83 c4 18	 add	 esp, 24			; 00000018H
  00a3d	3b ec		 cmp	 ebp, esp
  00a3f	e8 00 00 00 00	 call	 __RTC_CheckEsp
  00a44	8b e5		 mov	 esp, ebp
  00a46	5d		 pop	 ebp
  00a47	c2 08 00	 ret	 8
$L188256:
  00a4a	01 00 00 00	 DD	 1
  00a4e	00 00 00 00	 DD	 $L188255
$L188255:
  00a52	f0 ff ff ff	 DD	 -16			; fffffff0H
  00a56	08 00 00 00	 DD	 8
  00a5a	00 00 00 00	 DD	 $L188254
$L188254:
  00a5e	5f		 DB	 95			; 0000005fH
  00a5f	63		 DB	 99			; 00000063H
  00a60	74		 DB	 116			; 00000074H
  00a61	6c		 DB	 108			; 0000006cH
  00a62	53		 DB	 83			; 00000053H
  00a63	74		 DB	 116			; 00000074H
  00a64	61		 DB	 97			; 00000061H
  00a65	74		 DB	 116			; 00000074H
  00a66	65		 DB	 101			; 00000065H
  00a67	00		 DB	 0
?OnFrameWindowActivate@XDocHostUIHandler@CCustomControlSite@@UAGJH@Z ENDP ; CCustomControlSite::XDocHostUIHandler::OnFrameWindowActivate
_TEXT	ENDS
PUBLIC	?ResizeBorder@XDocHostUIHandler@CCustomControlSite@@UAGJPBUtagRECT@@PAUIOleInPlaceUIWindow@@H@Z ; CCustomControlSite::XDocHostUIHandler::ResizeBorder
; Function compile flags: /Odt /RTCsu
_TEXT	SEGMENT
$T188258 = -24						; size = 4
__ctlState$ = -16					; size = 8
_pThis$ = -4						; size = 4
_this$ = 8						; size = 4
___formal$ = 12						; size = 4
___formal$ = 16						; size = 4
___formal$ = 20						; size = 4
?ResizeBorder@XDocHostUIHandler@CCustomControlSite@@UAGJPBUtagRECT@@PAUIOleInPlaceUIWindow@@H@Z PROC NEAR ; CCustomControlSite::XDocHostUIHandler::ResizeBorder

; 190  : {

  00a70	55		 push	 ebp
  00a71	8b ec		 mov	 ebp, esp
  00a73	83 ec 18	 sub	 esp, 24			; 00000018H
  00a76	b8 cc cc cc cc	 mov	 eax, -858993460		; ccccccccH
  00a7b	89 45 e8	 mov	 DWORD PTR [ebp-24], eax
  00a7e	89 45 ec	 mov	 DWORD PTR [ebp-20], eax
  00a81	89 45 f0	 mov	 DWORD PTR [ebp-16], eax
  00a84	89 45 f4	 mov	 DWORD PTR [ebp-12], eax
  00a87	89 45 f8	 mov	 DWORD PTR [ebp-8], eax
  00a8a	89 45 fc	 mov	 DWORD PTR [ebp-4], eax

; 191  : 	METHOD_PROLOGUE(CCustomControlSite, DocHostUIHandler)

  00a8d	8b 45 08	 mov	 eax, DWORD PTR _this$[ebp]
  00a90	2d f4 00 00 00	 sub	 eax, 244		; 000000f4H
  00a95	89 45 fc	 mov	 DWORD PTR _pThis$[ebp], eax
  00a98	8b 4d fc	 mov	 ecx, DWORD PTR _pThis$[ebp]
  00a9b	8b 51 1c	 mov	 edx, DWORD PTR [ecx+28]
  00a9e	52		 push	 edx
  00a9f	8d 4d f0	 lea	 ecx, DWORD PTR __ctlState$[ebp]
  00aa2	e8 00 00 00 00	 call	 ??0AFX_MAINTAIN_STATE2@@QAE@PAVAFX_MODULE_STATE@@@Z ; AFX_MAINTAIN_STATE2::AFX_MAINTAIN_STATE2

; 192  :     return E_NOTIMPL;

  00aa7	c7 45 e8 01 40
	00 80		 mov	 DWORD PTR $T188258[ebp], -2147467263 ; 80004001H
  00aae	8d 4d f0	 lea	 ecx, DWORD PTR __ctlState$[ebp]
  00ab1	e8 00 00 00 00	 call	 ??1AFX_MAINTAIN_STATE2@@QAE@XZ ; AFX_MAINTAIN_STATE2::~AFX_MAINTAIN_STATE2
  00ab6	8b 45 e8	 mov	 eax, DWORD PTR $T188258[ebp]

; 193  : }

  00ab9	52		 push	 edx
  00aba	8b cd		 mov	 ecx, ebp
  00abc	50		 push	 eax
  00abd	8d 15 00 00 00
	00		 lea	 edx, DWORD PTR $L188262
  00ac3	e8 00 00 00 00	 call	 @_RTC_CheckStackVars@8
  00ac8	58		 pop	 eax
  00ac9	5a		 pop	 edx
  00aca	83 c4 18	 add	 esp, 24			; 00000018H
  00acd	3b ec		 cmp	 ebp, esp
  00acf	e8 00 00 00 00	 call	 __RTC_CheckEsp
  00ad4	8b e5		 mov	 esp, ebp
  00ad6	5d		 pop	 ebp
  00ad7	c2 10 00	 ret	 16			; 00000010H
$L188262:
  00ada	01 00 00 00	 DD	 1
  00ade	00 00 00 00	 DD	 $L188261
$L188261:
  00ae2	f0 ff ff ff	 DD	 -16			; fffffff0H
  00ae6	08 00 00 00	 DD	 8
  00aea	00 00 00 00	 DD	 $L188260
$L188260:
  00aee	5f		 DB	 95			; 0000005fH
  00aef	63		 DB	 99			; 00000063H
  00af0	74		 DB	 116			; 00000074H
  00af1	6c		 DB	 108			; 0000006cH
  00af2	53		 DB	 83			; 00000053H
  00af3	74		 DB	 116			; 00000074H
  00af4	61		 DB	 97			; 00000061H
  00af5	74		 DB	 116			; 00000074H
  00af6	65		 DB	 101			; 00000065H
  00af7	00		 DB	 0
?ResizeBorder@XDocHostUIHandler@CCustomControlSite@@UAGJPBUtagRECT@@PAUIOleInPlaceUIWindow@@H@Z ENDP ; CCustomControlSite::XDocHostUIHandler::ResizeBorder
_TEXT	ENDS
PUBLIC	?ShowContextMenu@XDocHostUIHandler@CCustomControlSite@@UAGJKPAUtagPOINT@@PAUIUnknown@@PAUIDispatch@@@Z ; CCustomControlSite::XDocHostUIHandler::ShowContextMenu
; Function compile flags: /Odt /RTCsu
_TEXT	SEGMENT
$T188264 = -24						; size = 4
__ctlState$ = -16					; size = 8
_pThis$ = -4						; size = 4
_this$ = 8						; size = 4
___formal$ = 12						; size = 4
_pptPosition$ = 16					; size = 4
___formal$ = 20						; size = 4
___formal$ = 24						; size = 4
?ShowContextMenu@XDocHostUIHandler@CCustomControlSite@@UAGJKPAUtagPOINT@@PAUIUnknown@@PAUIDispatch@@@Z PROC NEAR ; CCustomControlSite::XDocHostUIHandler::ShowContextMenu

; 204  : {

  00b00	55		 push	 ebp
  00b01	8b ec		 mov	 ebp, esp
  00b03	83 ec 18	 sub	 esp, 24			; 00000018H
  00b06	b8 cc cc cc cc	 mov	 eax, -858993460		; ccccccccH
  00b0b	89 45 e8	 mov	 DWORD PTR [ebp-24], eax
  00b0e	89 45 ec	 mov	 DWORD PTR [ebp-20], eax
  00b11	89 45 f0	 mov	 DWORD PTR [ebp-16], eax
  00b14	89 45 f4	 mov	 DWORD PTR [ebp-12], eax
  00b17	89 45 f8	 mov	 DWORD PTR [ebp-8], eax
  00b1a	89 45 fc	 mov	 DWORD PTR [ebp-4], eax

; 205  : 	METHOD_PROLOGUE(CCustomControlSite, DocHostUIHandler)	

  00b1d	8b 45 08	 mov	 eax, DWORD PTR _this$[ebp]
  00b20	2d f4 00 00 00	 sub	 eax, 244		; 000000f4H
  00b25	89 45 fc	 mov	 DWORD PTR _pThis$[ebp], eax
  00b28	8b 4d fc	 mov	 ecx, DWORD PTR _pThis$[ebp]
  00b2b	8b 51 1c	 mov	 edx, DWORD PTR [ecx+28]
  00b2e	52		 push	 edx
  00b2f	8d 4d f0	 lea	 ecx, DWORD PTR __ctlState$[ebp]
  00b32	e8 00 00 00 00	 call	 ??0AFX_MAINTAIN_STATE2@@QAE@PAVAFX_MODULE_STATE@@@Z ; AFX_MAINTAIN_STATE2::AFX_MAINTAIN_STATE2

; 206  :     return S_OK; // We've shown our own context menu. MSHTML.DLL will no longer try to show its own.

  00b37	c7 45 e8 00 00
	00 00		 mov	 DWORD PTR $T188264[ebp], 0
  00b3e	8d 4d f0	 lea	 ecx, DWORD PTR __ctlState$[ebp]
  00b41	e8 00 00 00 00	 call	 ??1AFX_MAINTAIN_STATE2@@QAE@XZ ; AFX_MAINTAIN_STATE2::~AFX_MAINTAIN_STATE2
  00b46	8b 45 e8	 mov	 eax, DWORD PTR $T188264[ebp]

; 207  : }

  00b49	52		 push	 edx
  00b4a	8b cd		 mov	 ecx, ebp
  00b4c	50		 push	 eax
  00b4d	8d 15 00 00 00
	00		 lea	 edx, DWORD PTR $L188268
  00b53	e8 00 00 00 00	 call	 @_RTC_CheckStackVars@8
  00b58	58		 pop	 eax
  00b59	5a		 pop	 edx
  00b5a	83 c4 18	 add	 esp, 24			; 00000018H
  00b5d	3b ec		 cmp	 ebp, esp
  00b5f	e8 00 00 00 00	 call	 __RTC_CheckEsp
  00b64	8b e5		 mov	 esp, ebp
  00b66	5d		 pop	 ebp
  00b67	c2 14 00	 ret	 20			; 00000014H
$L188268:
  00b6a	01 00 00 00	 DD	 1
  00b6e	00 00 00 00	 DD	 $L188267
$L188267:
  00b72	f0 ff ff ff	 DD	 -16			; fffffff0H
  00b76	08 00 00 00	 DD	 8
  00b7a	00 00 00 00	 DD	 $L188266
$L188266:
  00b7e	5f		 DB	 95			; 0000005fH
  00b7f	63		 DB	 99			; 00000063H
  00b80	74		 DB	 116			; 00000074H
  00b81	6c		 DB	 108			; 0000006cH
  00b82	53		 DB	 83			; 00000053H
  00b83	74		 DB	 116			; 00000074H
  00b84	61		 DB	 97			; 00000061H
  00b85	74		 DB	 116			; 00000074H
  00b86	65		 DB	 101			; 00000065H
  00b87	00		 DB	 0
?ShowContextMenu@XDocHostUIHandler@CCustomControlSite@@UAGJKPAUtagPOINT@@PAUIUnknown@@PAUIDispatch@@@Z ENDP ; CCustomControlSite::XDocHostUIHandler::ShowContextMenu
_TEXT	ENDS
PUBLIC	?TranslateAcceleratorA@XDocHostUIHandler@CCustomControlSite@@UAGJPAUtagMSG@@PBU_GUID@@K@Z ; CCustomControlSite::XDocHostUIHandler::TranslateAcceleratorA
EXTRN	__imp__GetKeyState@4:NEAR
EXTRN	__imp__GetAsyncKeyState@4:NEAR
xdata$x	SEGMENT
$T188283 DD	0ffffffffH
	DD	FLAT:$L188276
$T188278 DD	019930520H
	DD	01H
	DD	FLAT:$T188283
	DD	2 DUP(00H)
	DD	2 DUP(00H)
; Function compile flags: /Odt /RTCsu
xdata$x	ENDS
_TEXT	SEGMENT
$T188275 = -56						; size = 4
$T188274 = -52						; size = 4
$T188273 = -48						; size = 4
$T188272 = -44						; size = 4
$T188271 = -40						; size = 4
$T188270 = -36						; size = 4
__ctlState$ = -28					; size = 8
_pThis$ = -16						; size = 4
__$EHRec$ = -12						; size = 12
_this$ = 8						; size = 4
_lpMsg$ = 12						; size = 4
_pguidCmdGroup$ = 16					; size = 4
_nCmdID$ = 20						; size = 4
?TranslateAcceleratorA@XDocHostUIHandler@CCustomControlSite@@UAGJPAUtagMSG@@PBU_GUID@@K@Z PROC NEAR ; CCustomControlSite::XDocHostUIHandler::TranslateAcceleratorA

; 216  : {

  00b90	55		 push	 ebp
  00b91	8b ec		 mov	 ebp, esp
  00b93	6a ff		 push	 -1
  00b95	68 00 00 00 00	 push	 __ehhandler$?TranslateAcceleratorA@XDocHostUIHandler@CCustomControlSite@@UAGJPAUtagMSG@@PBU_GUID@@K@Z
  00b9a	64 a1 00 00 00
	00		 mov	 eax, DWORD PTR fs:__except_list
  00ba0	50		 push	 eax
  00ba1	64 89 25 00 00
	00 00		 mov	 DWORD PTR fs:__except_list, esp
  00ba8	83 ec 2c	 sub	 esp, 44			; 0000002cH
  00bab	56		 push	 esi
  00bac	57		 push	 edi
  00bad	8d 7d c8	 lea	 edi, DWORD PTR [ebp-56]
  00bb0	b9 0b 00 00 00	 mov	 ecx, 11			; 0000000bH
  00bb5	b8 cc cc cc cc	 mov	 eax, -858993460		; ccccccccH
  00bba	f3 ab		 rep stosd

; 217  : 	METHOD_PROLOGUE(CCustomControlSite, DocHostUIHandler)

  00bbc	8b 45 08	 mov	 eax, DWORD PTR _this$[ebp]
  00bbf	2d f4 00 00 00	 sub	 eax, 244		; 000000f4H
  00bc4	89 45 f0	 mov	 DWORD PTR _pThis$[ebp], eax
  00bc7	8b 4d f0	 mov	 ecx, DWORD PTR _pThis$[ebp]
  00bca	8b 51 1c	 mov	 edx, DWORD PTR [ecx+28]
  00bcd	52		 push	 edx
  00bce	8d 4d e4	 lea	 ecx, DWORD PTR __ctlState$[ebp]
  00bd1	e8 00 00 00 00	 call	 ??0AFX_MAINTAIN_STATE2@@QAE@PAVAFX_MODULE_STATE@@@Z ; AFX_MAINTAIN_STATE2::AFX_MAINTAIN_STATE2
  00bd6	c7 45 fc 00 00
	00 00		 mov	 DWORD PTR __$EHRec$[ebp+8], 0

; 218  : 		
; 219  : 		//disable F5
; 220  : 		if(lpMsg->message == WM_KEYDOWN && GetAsyncKeyState(VK_F5) < 0)

  00bdd	8b 45 0c	 mov	 eax, DWORD PTR _lpMsg$[ebp]
  00be0	81 78 04 00 01
	00 00		 cmp	 DWORD PTR [eax+4], 256	; 00000100H
  00be7	75 36		 jne	 SHORT $L187465
  00be9	8b f4		 mov	 esi, esp
  00beb	6a 74		 push	 116			; 00000074H
  00bed	ff 15 00 00 00
	00		 call	 DWORD PTR __imp__GetAsyncKeyState@4
  00bf3	3b f4		 cmp	 esi, esp
  00bf5	e8 00 00 00 00	 call	 __RTC_CheckEsp
  00bfa	0f bf c8	 movsx	 ecx, ax
  00bfd	85 c9		 test	 ecx, ecx
  00bff	7d 1e		 jge	 SHORT $L187465

; 221  : 			return S_OK;

  00c01	c7 45 dc 00 00
	00 00		 mov	 DWORD PTR $T188270[ebp], 0
  00c08	c7 45 fc ff ff
	ff ff		 mov	 DWORD PTR __$EHRec$[ebp+8], -1
  00c0f	8d 4d e4	 lea	 ecx, DWORD PTR __ctlState$[ebp]
  00c12	e8 00 00 00 00	 call	 ??1AFX_MAINTAIN_STATE2@@QAE@XZ ; AFX_MAINTAIN_STATE2::~AFX_MAINTAIN_STATE2
  00c17	8b 45 dc	 mov	 eax, DWORD PTR $T188270[ebp]
  00c1a	e9 1d 01 00 00	 jmp	 $L187458
$L187465:

; 222  : 
; 223  : 		if(GetKeyState(VK_CONTROL) & 0x8000)

  00c1f	8b f4		 mov	 esi, esp
  00c21	6a 11		 push	 17			; 00000011H
  00c23	ff 15 00 00 00
	00		 call	 DWORD PTR __imp__GetKeyState@4
  00c29	3b f4		 cmp	 esi, esp
  00c2b	e8 00 00 00 00	 call	 __RTC_CheckEsp
  00c30	0f bf d0	 movsx	 edx, ax
  00c33	81 e2 00 80 00
	00		 and	 edx, 32768		; 00008000H
  00c39	0f 84 c0 00 00
	00		 je	 $L187468

; 224  : 		{
; 225  : 			//disable ctrl + O
; 226  : 			if(lpMsg->message == WM_KEYDOWN && GetAsyncKeyState(0x4F) < 0)

  00c3f	8b 45 0c	 mov	 eax, DWORD PTR _lpMsg$[ebp]
  00c42	81 78 04 00 01
	00 00		 cmp	 DWORD PTR [eax+4], 256	; 00000100H
  00c49	75 36		 jne	 SHORT $L187469
  00c4b	8b f4		 mov	 esi, esp
  00c4d	6a 4f		 push	 79			; 0000004fH
  00c4f	ff 15 00 00 00
	00		 call	 DWORD PTR __imp__GetAsyncKeyState@4
  00c55	3b f4		 cmp	 esi, esp
  00c57	e8 00 00 00 00	 call	 __RTC_CheckEsp
  00c5c	0f bf c8	 movsx	 ecx, ax
  00c5f	85 c9		 test	 ecx, ecx
  00c61	7d 1e		 jge	 SHORT $L187469

; 227  : 				return S_OK;

  00c63	c7 45 d8 00 00
	00 00		 mov	 DWORD PTR $T188271[ebp], 0
  00c6a	c7 45 fc ff ff
	ff ff		 mov	 DWORD PTR __$EHRec$[ebp+8], -1
  00c71	8d 4d e4	 lea	 ecx, DWORD PTR __ctlState$[ebp]
  00c74	e8 00 00 00 00	 call	 ??1AFX_MAINTAIN_STATE2@@QAE@XZ ; AFX_MAINTAIN_STATE2::~AFX_MAINTAIN_STATE2
  00c79	8b 45 d8	 mov	 eax, DWORD PTR $T188271[ebp]
  00c7c	e9 bb 00 00 00	 jmp	 $L187458
$L187469:

; 228  : 			//disable ctrl + p
; 229  : 			if(lpMsg->message == WM_KEYDOWN && GetAsyncKeyState(0x50) < 0)

  00c81	8b 55 0c	 mov	 edx, DWORD PTR _lpMsg$[ebp]
  00c84	81 7a 04 00 01
	00 00		 cmp	 DWORD PTR [edx+4], 256	; 00000100H
  00c8b	75 33		 jne	 SHORT $L187472
  00c8d	8b f4		 mov	 esi, esp
  00c8f	6a 50		 push	 80			; 00000050H
  00c91	ff 15 00 00 00
	00		 call	 DWORD PTR __imp__GetAsyncKeyState@4
  00c97	3b f4		 cmp	 esi, esp
  00c99	e8 00 00 00 00	 call	 __RTC_CheckEsp
  00c9e	0f bf c0	 movsx	 eax, ax
  00ca1	85 c0		 test	 eax, eax
  00ca3	7d 1b		 jge	 SHORT $L187472

; 230  : 				return S_OK;

  00ca5	c7 45 d4 00 00
	00 00		 mov	 DWORD PTR $T188272[ebp], 0
  00cac	c7 45 fc ff ff
	ff ff		 mov	 DWORD PTR __$EHRec$[ebp+8], -1
  00cb3	8d 4d e4	 lea	 ecx, DWORD PTR __ctlState$[ebp]
  00cb6	e8 00 00 00 00	 call	 ??1AFX_MAINTAIN_STATE2@@QAE@XZ ; AFX_MAINTAIN_STATE2::~AFX_MAINTAIN_STATE2
  00cbb	8b 45 d4	 mov	 eax, DWORD PTR $T188272[ebp]
  00cbe	eb 7c		 jmp	 SHORT $L187458
$L187472:

; 231  : 			//disable ctrl + N
; 232  : 			if(lpMsg->message == WM_KEYDOWN && GetAsyncKeyState(0x4E) < 0)

  00cc0	8b 4d 0c	 mov	 ecx, DWORD PTR _lpMsg$[ebp]
  00cc3	81 79 04 00 01
	00 00		 cmp	 DWORD PTR [ecx+4], 256	; 00000100H
  00cca	75 33		 jne	 SHORT $L187468
  00ccc	8b f4		 mov	 esi, esp
  00cce	6a 4e		 push	 78			; 0000004eH
  00cd0	ff 15 00 00 00
	00		 call	 DWORD PTR __imp__GetAsyncKeyState@4
  00cd6	3b f4		 cmp	 esi, esp
  00cd8	e8 00 00 00 00	 call	 __RTC_CheckEsp
  00cdd	0f bf d0	 movsx	 edx, ax
  00ce0	85 d2		 test	 edx, edx
  00ce2	7d 1b		 jge	 SHORT $L187468

; 233  : 				return S_OK;

  00ce4	c7 45 d0 00 00
	00 00		 mov	 DWORD PTR $T188273[ebp], 0
  00ceb	c7 45 fc ff ff
	ff ff		 mov	 DWORD PTR __$EHRec$[ebp+8], -1
  00cf2	8d 4d e4	 lea	 ecx, DWORD PTR __ctlState$[ebp]
  00cf5	e8 00 00 00 00	 call	 ??1AFX_MAINTAIN_STATE2@@QAE@XZ ; AFX_MAINTAIN_STATE2::~AFX_MAINTAIN_STATE2
  00cfa	8b 45 d0	 mov	 eax, DWORD PTR $T188273[ebp]
  00cfd	eb 3d		 jmp	 SHORT $L187458
$L187468:

; 234  : 		}
; 235  : 
; 236  : 		//disable back space
; 237  : 		if(lpMsg->wParam == VK_BACK)

  00cff	8b 45 0c	 mov	 eax, DWORD PTR _lpMsg$[ebp]
  00d02	83 78 08 08	 cmp	 DWORD PTR [eax+8], 8
  00d06	75 1b		 jne	 SHORT $L187478

; 238  : 			return S_OK;

  00d08	c7 45 cc 00 00
	00 00		 mov	 DWORD PTR $T188274[ebp], 0
  00d0f	c7 45 fc ff ff
	ff ff		 mov	 DWORD PTR __$EHRec$[ebp+8], -1
  00d16	8d 4d e4	 lea	 ecx, DWORD PTR __ctlState$[ebp]
  00d19	e8 00 00 00 00	 call	 ??1AFX_MAINTAIN_STATE2@@QAE@XZ ; AFX_MAINTAIN_STATE2::~AFX_MAINTAIN_STATE2
  00d1e	8b 45 cc	 mov	 eax, DWORD PTR $T188274[ebp]
  00d21	eb 19		 jmp	 SHORT $L187458
$L187478:

; 239  : 
; 240  :     return S_FALSE;

  00d23	c7 45 c8 01 00
	00 00		 mov	 DWORD PTR $T188275[ebp], 1
  00d2a	c7 45 fc ff ff
	ff ff		 mov	 DWORD PTR __$EHRec$[ebp+8], -1
  00d31	8d 4d e4	 lea	 ecx, DWORD PTR __ctlState$[ebp]
  00d34	e8 00 00 00 00	 call	 ??1AFX_MAINTAIN_STATE2@@QAE@XZ ; AFX_MAINTAIN_STATE2::~AFX_MAINTAIN_STATE2
  00d39	8b 45 c8	 mov	 eax, DWORD PTR $T188275[ebp]
$L187458:

; 241  : }

  00d3c	52		 push	 edx
  00d3d	8b cd		 mov	 ecx, ebp
  00d3f	50		 push	 eax
  00d40	8d 15 00 00 00
	00		 lea	 edx, DWORD PTR $L188282
  00d46	e8 00 00 00 00	 call	 @_RTC_CheckStackVars@8
  00d4b	58		 pop	 eax
  00d4c	5a		 pop	 edx
  00d4d	8b 4d f4	 mov	 ecx, DWORD PTR __$EHRec$[ebp]
  00d50	64 89 0d 00 00
	00 00		 mov	 DWORD PTR fs:__except_list, ecx
  00d57	5f		 pop	 edi
  00d58	5e		 pop	 esi
  00d59	83 c4 38	 add	 esp, 56			; 00000038H
  00d5c	3b ec		 cmp	 ebp, esp
  00d5e	e8 00 00 00 00	 call	 __RTC_CheckEsp
  00d63	8b e5		 mov	 esp, ebp
  00d65	5d		 pop	 ebp
  00d66	c2 10 00	 ret	 16			; 00000010H
$L188282:
  00d69	01 00 00 00	 DD	 1
  00d6d	00 00 00 00	 DD	 $L188281
$L188281:
  00d71	e4 ff ff ff	 DD	 -28			; ffffffe4H
  00d75	08 00 00 00	 DD	 8
  00d79	00 00 00 00	 DD	 $L188279
$L188279:
  00d7d	5f		 DB	 95			; 0000005fH
  00d7e	63		 DB	 99			; 00000063H
  00d7f	74		 DB	 116			; 00000074H
  00d80	6c		 DB	 108			; 0000006cH
  00d81	53		 DB	 83			; 00000053H
  00d82	74		 DB	 116			; 00000074H
  00d83	61		 DB	 97			; 00000061H
  00d84	74		 DB	 116			; 00000074H
  00d85	65		 DB	 101			; 00000065H
  00d86	00		 DB	 0
_TEXT	ENDS
text$x	SEGMENT
$L188276:
  0007e	8d 4d e4	 lea	 ecx, DWORD PTR __ctlState$[ebp]
  00081	e9 00 00 00 00	 jmp	 ??1AFX_MAINTAIN_STATE2@@QAE@XZ ; AFX_MAINTAIN_STATE2::~AFX_MAINTAIN_STATE2
__ehhandler$?TranslateAcceleratorA@XDocHostUIHandler@CCustomControlSite@@UAGJPAUtagMSG@@PBU_GUID@@K@Z:
  00086	b8 00 00 00 00	 mov	 eax, OFFSET FLAT:$T188278
  0008b	e9 00 00 00 00	 jmp	 ___CxxFrameHandler
text$x	ENDS
?TranslateAcceleratorA@XDocHostUIHandler@CCustomControlSite@@UAGJPAUtagMSG@@PBU_GUID@@K@Z ENDP ; CCustomControlSite::XDocHostUIHandler::TranslateAcceleratorA
PUBLIC	?GetOptionKeyPath@XDocHostUIHandler@CCustomControlSite@@UAGJPAPA_WK@Z ; CCustomControlSite::XDocHostUIHandler::GetOptionKeyPath
; Function compile flags: /Odt /RTCsu
_TEXT	SEGMENT
$T188285 = -24						; size = 4
__ctlState$ = -16					; size = 8
_pThis$ = -4						; size = 4
_this$ = 8						; size = 4
_pbstrKey$ = 12						; size = 4
___formal$ = 16						; size = 4
?GetOptionKeyPath@XDocHostUIHandler@CCustomControlSite@@UAGJPAPA_WK@Z PROC NEAR ; CCustomControlSite::XDocHostUIHandler::GetOptionKeyPath

; 249  : {

  00d90	55		 push	 ebp
  00d91	8b ec		 mov	 ebp, esp
  00d93	83 ec 18	 sub	 esp, 24			; 00000018H
  00d96	b8 cc cc cc cc	 mov	 eax, -858993460		; ccccccccH
  00d9b	89 45 e8	 mov	 DWORD PTR [ebp-24], eax
  00d9e	89 45 ec	 mov	 DWORD PTR [ebp-20], eax
  00da1	89 45 f0	 mov	 DWORD PTR [ebp-16], eax
  00da4	89 45 f4	 mov	 DWORD PTR [ebp-12], eax
  00da7	89 45 f8	 mov	 DWORD PTR [ebp-8], eax
  00daa	89 45 fc	 mov	 DWORD PTR [ebp-4], eax

; 250  : 
; 251  : 	METHOD_PROLOGUE(CCustomControlSite, DocHostUIHandler)

  00dad	8b 45 08	 mov	 eax, DWORD PTR _this$[ebp]
  00db0	2d f4 00 00 00	 sub	 eax, 244		; 000000f4H
  00db5	89 45 fc	 mov	 DWORD PTR _pThis$[ebp], eax
  00db8	8b 4d fc	 mov	 ecx, DWORD PTR _pThis$[ebp]
  00dbb	8b 51 1c	 mov	 edx, DWORD PTR [ecx+28]
  00dbe	52		 push	 edx
  00dbf	8d 4d f0	 lea	 ecx, DWORD PTR __ctlState$[ebp]
  00dc2	e8 00 00 00 00	 call	 ??0AFX_MAINTAIN_STATE2@@QAE@PAVAFX_MODULE_STATE@@@Z ; AFX_MAINTAIN_STATE2::AFX_MAINTAIN_STATE2

; 252  : 	return E_NOTIMPL;

  00dc7	c7 45 e8 01 40
	00 80		 mov	 DWORD PTR $T188285[ebp], -2147467263 ; 80004001H
  00dce	8d 4d f0	 lea	 ecx, DWORD PTR __ctlState$[ebp]
  00dd1	e8 00 00 00 00	 call	 ??1AFX_MAINTAIN_STATE2@@QAE@XZ ; AFX_MAINTAIN_STATE2::~AFX_MAINTAIN_STATE2
  00dd6	8b 45 e8	 mov	 eax, DWORD PTR $T188285[ebp]

; 253  : }

  00dd9	52		 push	 edx
  00dda	8b cd		 mov	 ecx, ebp
  00ddc	50		 push	 eax
  00ddd	8d 15 00 00 00
	00		 lea	 edx, DWORD PTR $L188289
  00de3	e8 00 00 00 00	 call	 @_RTC_CheckStackVars@8
  00de8	58		 pop	 eax
  00de9	5a		 pop	 edx
  00dea	83 c4 18	 add	 esp, 24			; 00000018H
  00ded	3b ec		 cmp	 ebp, esp
  00def	e8 00 00 00 00	 call	 __RTC_CheckEsp
  00df4	8b e5		 mov	 esp, ebp
  00df6	5d		 pop	 ebp
  00df7	c2 0c 00	 ret	 12			; 0000000cH
$L188289:
  00dfa	01 00 00 00	 DD	 1
  00dfe	00 00 00 00	 DD	 $L188288
$L188288:
  00e02	f0 ff ff ff	 DD	 -16			; fffffff0H
  00e06	08 00 00 00	 DD	 8
  00e0a	00 00 00 00	 DD	 $L188287
$L188287:
  00e0e	5f		 DB	 95			; 0000005fH
  00e0f	63		 DB	 99			; 00000063H
  00e10	74		 DB	 116			; 00000074H
  00e11	6c		 DB	 108			; 0000006cH
  00e12	53		 DB	 83			; 00000053H
  00e13	74		 DB	 116			; 00000074H
  00e14	61		 DB	 97			; 00000061H
  00e15	74		 DB	 116			; 00000074H
  00e16	65		 DB	 101			; 00000065H
  00e17	00		 DB	 0
?GetOptionKeyPath@XDocHostUIHandler@CCustomControlSite@@UAGJPAPA_WK@Z ENDP ; CCustomControlSite::XDocHostUIHandler::GetOptionKeyPath
_TEXT	ENDS
PUBLIC	?GetDropTarget@XDocHostUIHandler@CCustomControlSite@@UAGJPAUIDropTarget@@PAPAU3@@Z ; CCustomControlSite::XDocHostUIHandler::GetDropTarget
; Function compile flags: /Odt /RTCsu
_TEXT	SEGMENT
$T188291 = -24						; size = 4
__ctlState$ = -16					; size = 8
_pThis$ = -4						; size = 4
_this$ = 8						; size = 4
_pDropTarget$ = 12					; size = 4
_ppDropTarget$ = 16					; size = 4
?GetDropTarget@XDocHostUIHandler@CCustomControlSite@@UAGJPAUIDropTarget@@PAPAU3@@Z PROC NEAR ; CCustomControlSite::XDocHostUIHandler::GetDropTarget

; 258  : {

  00e20	55		 push	 ebp
  00e21	8b ec		 mov	 ebp, esp
  00e23	83 ec 18	 sub	 esp, 24			; 00000018H
  00e26	b8 cc cc cc cc	 mov	 eax, -858993460		; ccccccccH
  00e2b	89 45 e8	 mov	 DWORD PTR [ebp-24], eax
  00e2e	89 45 ec	 mov	 DWORD PTR [ebp-20], eax
  00e31	89 45 f0	 mov	 DWORD PTR [ebp-16], eax
  00e34	89 45 f4	 mov	 DWORD PTR [ebp-12], eax
  00e37	89 45 f8	 mov	 DWORD PTR [ebp-8], eax
  00e3a	89 45 fc	 mov	 DWORD PTR [ebp-4], eax

; 259  : 	METHOD_PROLOGUE(CCustomControlSite, DocHostUIHandler)

  00e3d	8b 45 08	 mov	 eax, DWORD PTR _this$[ebp]
  00e40	2d f4 00 00 00	 sub	 eax, 244		; 000000f4H
  00e45	89 45 fc	 mov	 DWORD PTR _pThis$[ebp], eax
  00e48	8b 4d fc	 mov	 ecx, DWORD PTR _pThis$[ebp]
  00e4b	8b 51 1c	 mov	 edx, DWORD PTR [ecx+28]
  00e4e	52		 push	 edx
  00e4f	8d 4d f0	 lea	 ecx, DWORD PTR __ctlState$[ebp]
  00e52	e8 00 00 00 00	 call	 ??0AFX_MAINTAIN_STATE2@@QAE@PAVAFX_MODULE_STATE@@@Z ; AFX_MAINTAIN_STATE2::AFX_MAINTAIN_STATE2

; 260  :     return E_NOTIMPL;

  00e57	c7 45 e8 01 40
	00 80		 mov	 DWORD PTR $T188291[ebp], -2147467263 ; 80004001H
  00e5e	8d 4d f0	 lea	 ecx, DWORD PTR __ctlState$[ebp]
  00e61	e8 00 00 00 00	 call	 ??1AFX_MAINTAIN_STATE2@@QAE@XZ ; AFX_MAINTAIN_STATE2::~AFX_MAINTAIN_STATE2
  00e66	8b 45 e8	 mov	 eax, DWORD PTR $T188291[ebp]

; 261  : }

  00e69	52		 push	 edx
  00e6a	8b cd		 mov	 ecx, ebp
  00e6c	50		 push	 eax
  00e6d	8d 15 00 00 00
	00		 lea	 edx, DWORD PTR $L188295
  00e73	e8 00 00 00 00	 call	 @_RTC_CheckStackVars@8
  00e78	58		 pop	 eax
  00e79	5a		 pop	 edx
  00e7a	83 c4 18	 add	 esp, 24			; 00000018H
  00e7d	3b ec		 cmp	 ebp, esp
  00e7f	e8 00 00 00 00	 call	 __RTC_CheckEsp
  00e84	8b e5		 mov	 esp, ebp
  00e86	5d		 pop	 ebp
  00e87	c2 0c 00	 ret	 12			; 0000000cH
$L188295:
  00e8a	01 00 00 00	 DD	 1
  00e8e	00 00 00 00	 DD	 $L188294
$L188294:
  00e92	f0 ff ff ff	 DD	 -16			; fffffff0H
  00e96	08 00 00 00	 DD	 8
  00e9a	00 00 00 00	 DD	 $L188293
$L188293:
  00e9e	5f		 DB	 95			; 0000005fH
  00e9f	63		 DB	 99			; 00000063H
  00ea0	74		 DB	 116			; 00000074H
  00ea1	6c		 DB	 108			; 0000006cH
  00ea2	53		 DB	 83			; 00000053H
  00ea3	74		 DB	 116			; 00000074H
  00ea4	61		 DB	 97			; 00000061H
  00ea5	74		 DB	 116			; 00000074H
  00ea6	65		 DB	 101			; 00000065H
  00ea7	00		 DB	 0
?GetDropTarget@XDocHostUIHandler@CCustomControlSite@@UAGJPAUIDropTarget@@PAPAU3@@Z ENDP ; CCustomControlSite::XDocHostUIHandler::GetDropTarget
_TEXT	ENDS
PUBLIC	?GetExternal@XDocHostUIHandler@CCustomControlSite@@UAGJPAPAUIDispatch@@@Z ; CCustomControlSite::XDocHostUIHandler::GetExternal
EXTRN	??2@YAPAXI@Z:NEAR				; operator new
EXTRN	??3@YAXPAX@Z:NEAR				; operator delete
EXTRN	??0CImpIDispatch@@QAE@XZ:NEAR			; CImpIDispatch::CImpIDispatch
xdata$x	SEGMENT
$T188305 DD	0ffffffffH
	DD	FLAT:$L188301
$T188303 DD	019930520H
	DD	01H
	DD	FLAT:$T188305
	DD	2 DUP(00H)
	DD	2 DUP(00H)
; Function compile flags: /Odt /RTCsu
xdata$x	ENDS
_TEXT	SEGMENT
tv71 = -28						; size = 4
$T188298 = -24						; size = 4
$T188297 = -20						; size = 4
_pDisPatch$ = -16					; size = 4
__$EHRec$ = -12						; size = 12
_this$ = 8						; size = 4
_ppDispatch$ = 12					; size = 4
?GetExternal@XDocHostUIHandler@CCustomControlSite@@UAGJPAPAUIDispatch@@@Z PROC NEAR ; CCustomControlSite::XDocHostUIHandler::GetExternal

; 266  : {

  00eb0	55		 push	 ebp
  00eb1	8b ec		 mov	 ebp, esp
  00eb3	6a ff		 push	 -1
  00eb5	68 00 00 00 00	 push	 __ehhandler$?GetExternal@XDocHostUIHandler@CCustomControlSite@@UAGJPAPAUIDispatch@@@Z
  00eba	64 a1 00 00 00
	00		 mov	 eax, DWORD PTR fs:__except_list
  00ec0	50		 push	 eax
  00ec1	64 89 25 00 00
	00 00		 mov	 DWORD PTR fs:__except_list, esp
  00ec8	83 ec 10	 sub	 esp, 16			; 00000010H
  00ecb	56		 push	 esi
  00ecc	b8 cc cc cc cc	 mov	 eax, -858993460		; ccccccccH
  00ed1	89 45 e4	 mov	 DWORD PTR [ebp-28], eax
  00ed4	89 45 e8	 mov	 DWORD PTR [ebp-24], eax
  00ed7	89 45 ec	 mov	 DWORD PTR [ebp-20], eax
  00eda	89 45 f0	 mov	 DWORD PTR [ebp-16], eax

; 267  : 	// return the IDispatch we have for extending the object Model
; 268  : 	CImpIDispatch* pDisPatch = new CImpIDispatch;

  00edd	6a 08		 push	 8
  00edf	e8 00 00 00 00	 call	 ??2@YAPAXI@Z		; operator new
  00ee4	83 c4 04	 add	 esp, 4
  00ee7	89 45 e8	 mov	 DWORD PTR $T188298[ebp], eax
  00eea	c7 45 fc 00 00
	00 00		 mov	 DWORD PTR __$EHRec$[ebp+8], 0
  00ef1	83 7d e8 00	 cmp	 DWORD PTR $T188298[ebp], 0
  00ef5	74 0d		 je	 SHORT $L188299
  00ef7	8b 4d e8	 mov	 ecx, DWORD PTR $T188298[ebp]
  00efa	e8 00 00 00 00	 call	 ??0CImpIDispatch@@QAE@XZ ; CImpIDispatch::CImpIDispatch
  00eff	89 45 e4	 mov	 DWORD PTR tv71[ebp], eax
  00f02	eb 07		 jmp	 SHORT $L188300
$L188299:
  00f04	c7 45 e4 00 00
	00 00		 mov	 DWORD PTR tv71[ebp], 0
$L188300:
  00f0b	8b 45 e4	 mov	 eax, DWORD PTR tv71[ebp]
  00f0e	89 45 ec	 mov	 DWORD PTR $T188297[ebp], eax
  00f11	c7 45 fc ff ff
	ff ff		 mov	 DWORD PTR __$EHRec$[ebp+8], -1
  00f18	8b 4d ec	 mov	 ecx, DWORD PTR $T188297[ebp]
  00f1b	89 4d f0	 mov	 DWORD PTR _pDisPatch$[ebp], ecx

; 269  : 	pDisPatch->AddRef();	

  00f1e	8b 55 f0	 mov	 edx, DWORD PTR _pDisPatch$[ebp]
  00f21	8b 02		 mov	 eax, DWORD PTR [edx]
  00f23	8b f4		 mov	 esi, esp
  00f25	8b 4d f0	 mov	 ecx, DWORD PTR _pDisPatch$[ebp]
  00f28	51		 push	 ecx
  00f29	ff 50 04	 call	 DWORD PTR [eax+4]
  00f2c	3b f4		 cmp	 esi, esp
  00f2e	e8 00 00 00 00	 call	 __RTC_CheckEsp

; 270  : 	*ppDispatch = pDisPatch;

  00f33	8b 55 0c	 mov	 edx, DWORD PTR _ppDispatch$[ebp]
  00f36	8b 45 f0	 mov	 eax, DWORD PTR _pDisPatch$[ebp]
  00f39	89 02		 mov	 DWORD PTR [edx], eax

; 271  :     return S_OK;

  00f3b	33 c0		 xor	 eax, eax

; 272  : }

  00f3d	8b 4d f4	 mov	 ecx, DWORD PTR __$EHRec$[ebp]
  00f40	64 89 0d 00 00
	00 00		 mov	 DWORD PTR fs:__except_list, ecx
  00f47	5e		 pop	 esi
  00f48	83 c4 1c	 add	 esp, 28			; 0000001cH
  00f4b	3b ec		 cmp	 ebp, esp
  00f4d	e8 00 00 00 00	 call	 __RTC_CheckEsp
  00f52	8b e5		 mov	 esp, ebp
  00f54	5d		 pop	 ebp
  00f55	c2 08 00	 ret	 8
_TEXT	ENDS
text$x	SEGMENT
$L188301:
  00090	8b 45 e8	 mov	 eax, DWORD PTR $T188298[ebp]
  00093	50		 push	 eax
  00094	e8 00 00 00 00	 call	 ??3@YAXPAX@Z		; operator delete
  00099	59		 pop	 ecx
  0009a	c3		 ret	 0
__ehhandler$?GetExternal@XDocHostUIHandler@CCustomControlSite@@UAGJPAPAUIDispatch@@@Z:
  0009b	b8 00 00 00 00	 mov	 eax, OFFSET FLAT:$T188303
  000a0	e9 00 00 00 00	 jmp	 ___CxxFrameHandler
text$x	ENDS
?GetExternal@XDocHostUIHandler@CCustomControlSite@@UAGJPAPAUIDispatch@@@Z ENDP ; CCustomControlSite::XDocHostUIHandler::GetExternal
PUBLIC	?TranslateUrl@XDocHostUIHandler@CCustomControlSite@@UAGJKPA_WPAPA_W@Z ; CCustomControlSite::XDocHostUIHandler::TranslateUrl
; Function compile flags: /Odt /RTCsu
_TEXT	SEGMENT
$T188307 = -24						; size = 4
__ctlState$ = -16					; size = 8
_pThis$ = -4						; size = 4
_this$ = 8						; size = 4
_dwTranslate$ = 12					; size = 4
_pchURLIn$ = 16						; size = 4
_ppchURLOut$ = 20					; size = 4
?TranslateUrl@XDocHostUIHandler@CCustomControlSite@@UAGJKPA_WPAPA_W@Z PROC NEAR ; CCustomControlSite::XDocHostUIHandler::TranslateUrl

; 278  : {

  00f60	55		 push	 ebp
  00f61	8b ec		 mov	 ebp, esp
  00f63	83 ec 18	 sub	 esp, 24			; 00000018H
  00f66	b8 cc cc cc cc	 mov	 eax, -858993460		; ccccccccH
  00f6b	89 45 e8	 mov	 DWORD PTR [ebp-24], eax
  00f6e	89 45 ec	 mov	 DWORD PTR [ebp-20], eax
  00f71	89 45 f0	 mov	 DWORD PTR [ebp-16], eax
  00f74	89 45 f4	 mov	 DWORD PTR [ebp-12], eax
  00f77	89 45 f8	 mov	 DWORD PTR [ebp-8], eax
  00f7a	89 45 fc	 mov	 DWORD PTR [ebp-4], eax

; 279  : 	METHOD_PROLOGUE(CCustomControlSite, DocHostUIHandler)

  00f7d	8b 45 08	 mov	 eax, DWORD PTR _this$[ebp]
  00f80	2d f4 00 00 00	 sub	 eax, 244		; 000000f4H
  00f85	89 45 fc	 mov	 DWORD PTR _pThis$[ebp], eax
  00f88	8b 4d fc	 mov	 ecx, DWORD PTR _pThis$[ebp]
  00f8b	8b 51 1c	 mov	 edx, DWORD PTR [ecx+28]
  00f8e	52		 push	 edx
  00f8f	8d 4d f0	 lea	 ecx, DWORD PTR __ctlState$[ebp]
  00f92	e8 00 00 00 00	 call	 ??0AFX_MAINTAIN_STATE2@@QAE@PAVAFX_MODULE_STATE@@@Z ; AFX_MAINTAIN_STATE2::AFX_MAINTAIN_STATE2

; 280  :     return E_NOTIMPL;

  00f97	c7 45 e8 01 40
	00 80		 mov	 DWORD PTR $T188307[ebp], -2147467263 ; 80004001H
  00f9e	8d 4d f0	 lea	 ecx, DWORD PTR __ctlState$[ebp]
  00fa1	e8 00 00 00 00	 call	 ??1AFX_MAINTAIN_STATE2@@QAE@XZ ; AFX_MAINTAIN_STATE2::~AFX_MAINTAIN_STATE2
  00fa6	8b 45 e8	 mov	 eax, DWORD PTR $T188307[ebp]

; 281  : }

  00fa9	52		 push	 edx
  00faa	8b cd		 mov	 ecx, ebp
  00fac	50		 push	 eax
  00fad	8d 15 00 00 00
	00		 lea	 edx, DWORD PTR $L188311
  00fb3	e8 00 00 00 00	 call	 @_RTC_CheckStackVars@8
  00fb8	58		 pop	 eax
  00fb9	5a		 pop	 edx
  00fba	83 c4 18	 add	 esp, 24			; 00000018H
  00fbd	3b ec		 cmp	 ebp, esp
  00fbf	e8 00 00 00 00	 call	 __RTC_CheckEsp
  00fc4	8b e5		 mov	 esp, ebp
  00fc6	5d		 pop	 ebp
  00fc7	c2 10 00	 ret	 16			; 00000010H
$L188311:
  00fca	01 00 00 00	 DD	 1
  00fce	00 00 00 00	 DD	 $L188310
$L188310:
  00fd2	f0 ff ff ff	 DD	 -16			; fffffff0H
  00fd6	08 00 00 00	 DD	 8
  00fda	00 00 00 00	 DD	 $L188309
$L188309:
  00fde	5f		 DB	 95			; 0000005fH
  00fdf	63		 DB	 99			; 00000063H
  00fe0	74		 DB	 116			; 00000074H
  00fe1	6c		 DB	 108			; 0000006cH
  00fe2	53		 DB	 83			; 00000053H
  00fe3	74		 DB	 116			; 00000074H
  00fe4	61		 DB	 97			; 00000061H
  00fe5	74		 DB	 116			; 00000074H
  00fe6	65		 DB	 101			; 00000065H
  00fe7	00		 DB	 0
?TranslateUrl@XDocHostUIHandler@CCustomControlSite@@UAGJKPA_WPAPA_W@Z ENDP ; CCustomControlSite::XDocHostUIHandler::TranslateUrl
_TEXT	ENDS
PUBLIC	?FilterDataObject@XDocHostUIHandler@CCustomControlSite@@UAGJPAUIDataObject@@PAPAU3@@Z ; CCustomControlSite::XDocHostUIHandler::FilterDataObject
; Function compile flags: /Odt /RTCsu
_TEXT	SEGMENT
$T188313 = -24						; size = 4
__ctlState$ = -16					; size = 8
_pThis$ = -4						; size = 4
_this$ = 8						; size = 4
_pDO$ = 12						; size = 4
_ppDORet$ = 16						; size = 4
?FilterDataObject@XDocHostUIHandler@CCustomControlSite@@UAGJPAUIDataObject@@PAPAU3@@Z PROC NEAR ; CCustomControlSite::XDocHostUIHandler::FilterDataObject

; 286  : {

  00ff0	55		 push	 ebp
  00ff1	8b ec		 mov	 ebp, esp
  00ff3	83 ec 18	 sub	 esp, 24			; 00000018H
  00ff6	b8 cc cc cc cc	 mov	 eax, -858993460		; ccccccccH
  00ffb	89 45 e8	 mov	 DWORD PTR [ebp-24], eax
  00ffe	89 45 ec	 mov	 DWORD PTR [ebp-20], eax
  01001	89 45 f0	 mov	 DWORD PTR [ebp-16], eax
  01004	89 45 f4	 mov	 DWORD PTR [ebp-12], eax
  01007	89 45 f8	 mov	 DWORD PTR [ebp-8], eax
  0100a	89 45 fc	 mov	 DWORD PTR [ebp-4], eax

; 287  : 	METHOD_PROLOGUE(CCustomControlSite, DocHostUIHandler)

  0100d	8b 45 08	 mov	 eax, DWORD PTR _this$[ebp]
  01010	2d f4 00 00 00	 sub	 eax, 244		; 000000f4H
  01015	89 45 fc	 mov	 DWORD PTR _pThis$[ebp], eax
  01018	8b 4d fc	 mov	 ecx, DWORD PTR _pThis$[ebp]
  0101b	8b 51 1c	 mov	 edx, DWORD PTR [ecx+28]
  0101e	52		 push	 edx
  0101f	8d 4d f0	 lea	 ecx, DWORD PTR __ctlState$[ebp]
  01022	e8 00 00 00 00	 call	 ??0AFX_MAINTAIN_STATE2@@QAE@PAVAFX_MODULE_STATE@@@Z ; AFX_MAINTAIN_STATE2::AFX_MAINTAIN_STATE2

; 288  :     return E_NOTIMPL;

  01027	c7 45 e8 01 40
	00 80		 mov	 DWORD PTR $T188313[ebp], -2147467263 ; 80004001H
  0102e	8d 4d f0	 lea	 ecx, DWORD PTR __ctlState$[ebp]
  01031	e8 00 00 00 00	 call	 ??1AFX_MAINTAIN_STATE2@@QAE@XZ ; AFX_MAINTAIN_STATE2::~AFX_MAINTAIN_STATE2
  01036	8b 45 e8	 mov	 eax, DWORD PTR $T188313[ebp]

; 289  : }

  01039	52		 push	 edx
  0103a	8b cd		 mov	 ecx, ebp
  0103c	50		 push	 eax
  0103d	8d 15 00 00 00
	00		 lea	 edx, DWORD PTR $L188317
  01043	e8 00 00 00 00	 call	 @_RTC_CheckStackVars@8
  01048	58		 pop	 eax
  01049	5a		 pop	 edx
  0104a	83 c4 18	 add	 esp, 24			; 00000018H
  0104d	3b ec		 cmp	 ebp, esp
  0104f	e8 00 00 00 00	 call	 __RTC_CheckEsp
  01054	8b e5		 mov	 esp, ebp
  01056	5d		 pop	 ebp
  01057	c2 0c 00	 ret	 12			; 0000000cH
$L188317:
  0105a	01 00 00 00	 DD	 1
  0105e	00 00 00 00	 DD	 $L188316
$L188316:
  01062	f0 ff ff ff	 DD	 -16			; fffffff0H
  01066	08 00 00 00	 DD	 8
  0106a	00 00 00 00	 DD	 $L188315
$L188315:
  0106e	5f		 DB	 95			; 0000005fH
  0106f	63		 DB	 99			; 00000063H
  01070	74		 DB	 116			; 00000074H
  01071	6c		 DB	 108			; 0000006cH
  01072	53		 DB	 83			; 00000053H
  01073	74		 DB	 116			; 00000074H
  01074	61		 DB	 97			; 00000061H
  01075	74		 DB	 116			; 00000074H
  01076	65		 DB	 101			; 00000065H
  01077	00		 DB	 0
?FilterDataObject@XDocHostUIHandler@CCustomControlSite@@UAGJPAUIDataObject@@PAPAU3@@Z ENDP ; CCustomControlSite::XDocHostUIHandler::FilterDataObject
_TEXT	ENDS
PUBLIC	?InterlockedExchangePointer@@YGPAXPAPAXPAX@Z	; InterlockedExchangePointer
PUBLIC	?_AtlGetThreadACPFake@ATL@@YGIXZ		; ATL::_AtlGetThreadACPFake
PUBLIC	?_AtlGetThreadACPReal@ATL@@YGIXZ		; ATL::_AtlGetThreadACPReal
EXTRN	__imp__GetVersionExA@4:NEAR
EXTRN	___security_cookie:DWORD
EXTRN	@__security_check_cookie@4:NEAR
; Function compile flags: /Odt /RTCsu
; File d:\program files (x86)\microsoft visual studio .net 2003\vc7\atlmfc\include\atlconv.h
;	COMDAT ?_AtlGetThreadACPThunk@ATL@@YGIXZ
_TEXT	SEGMENT
_pfnGetThreadACP$ = -164				; size = 4
_ver$ = -156						; size = 148
__$ArrayPad$ = -4					; size = 4
__$ReturnAddr$ = 4					; size = 4
?_AtlGetThreadACPThunk@ATL@@YGIXZ PROC NEAR		; ATL::_AtlGetThreadACPThunk, COMDAT

; 134  : {

  00000	55		 push	 ebp
  00001	8b ec		 mov	 ebp, esp
  00003	81 ec a4 00 00
	00		 sub	 esp, 164		; 000000a4H
  00009	56		 push	 esi
  0000a	57		 push	 edi
  0000b	8d bd 5c ff ff
	ff		 lea	 edi, DWORD PTR [ebp-164]
  00011	b9 29 00 00 00	 mov	 ecx, 41			; 00000029H
  00016	b8 cc cc cc cc	 mov	 eax, -858993460		; ccccccccH
  0001b	f3 ab		 rep stosd
  0001d	a1 00 00 00 00	 mov	 eax, DWORD PTR ___security_cookie
  00022	89 45 fc	 mov	 DWORD PTR __$ArrayPad$[ebp], eax

; 135  : 	OSVERSIONINFO ver;
; 136  : 	ATLGETTHREADACP pfnGetThreadACP;
; 137  : 
; 138  : 	ver.dwOSVersionInfoSize = sizeof( ver );

  00025	c7 85 64 ff ff
	ff 94 00 00 00	 mov	 DWORD PTR _ver$[ebp], 148 ; 00000094H

; 139  : 	::GetVersionEx( &ver );

  0002f	8b f4		 mov	 esi, esp
  00031	8d 85 64 ff ff
	ff		 lea	 eax, DWORD PTR _ver$[ebp]
  00037	50		 push	 eax
  00038	ff 15 00 00 00
	00		 call	 DWORD PTR __imp__GetVersionExA@4
  0003e	3b f4		 cmp	 esi, esp
  00040	e8 00 00 00 00	 call	 __RTC_CheckEsp

; 140  : 	if( (ver.dwPlatformId == VER_PLATFORM_WIN32_NT) && (ver.dwMajorVersion >= 5) )

  00045	83 bd 74 ff ff
	ff 02		 cmp	 DWORD PTR _ver$[ebp+16], 2
  0004c	75 15		 jne	 SHORT $L24163
  0004e	83 bd 68 ff ff
	ff 05		 cmp	 DWORD PTR _ver$[ebp+4], 5
  00055	72 0c		 jb	 SHORT $L24163

; 141  : 	{
; 142  : 		// On Win2K, CP_THREAD_ACP is supported
; 143  : 		pfnGetThreadACP = _AtlGetThreadACPReal;

  00057	c7 85 5c ff ff
	ff 00 00 00 00	 mov	 DWORD PTR _pfnGetThreadACP$[ebp], OFFSET FLAT:?_AtlGetThreadACPReal@ATL@@YGIXZ ; ATL::_AtlGetThreadACPReal

; 144  : 	}
; 145  : 	else

  00061	eb 0a		 jmp	 SHORT $L24164
$L24163:

; 146  : 	{
; 147  : 		pfnGetThreadACP = _AtlGetThreadACPFake;

  00063	c7 85 5c ff ff
	ff 00 00 00 00	 mov	 DWORD PTR _pfnGetThreadACP$[ebp], OFFSET FLAT:?_AtlGetThreadACPFake@ATL@@YGIXZ ; ATL::_AtlGetThreadACPFake
$L24164:

; 148  : 	}
; 149  : 	InterlockedExchangePointer( reinterpret_cast< void** >(&g_pfnGetThreadACP), pfnGetThreadACP );

  0006d	8b 8d 5c ff ff
	ff		 mov	 ecx, DWORD PTR _pfnGetThreadACP$[ebp]
  00073	51		 push	 ecx
  00074	68 00 00 00 00	 push	 OFFSET FLAT:?g_pfnGetThreadACP@ATL@@3P6GIXZA ; ATL::g_pfnGetThreadACP
  00079	e8 00 00 00 00	 call	 ?InterlockedExchangePointer@@YGPAXPAPAXPAX@Z ; InterlockedExchangePointer

; 150  : 
; 151  : 	return( g_pfnGetThreadACP() );

  0007e	8b f4		 mov	 esi, esp
  00080	ff 15 00 00 00
	00		 call	 DWORD PTR ?g_pfnGetThreadACP@ATL@@3P6GIXZA ; ATL::g_pfnGetThreadACP
  00086	3b f4		 cmp	 esi, esp
  00088	e8 00 00 00 00	 call	 __RTC_CheckEsp

; 152  : }

  0008d	52		 push	 edx
  0008e	8b cd		 mov	 ecx, ebp
  00090	50		 push	 eax
  00091	8d 15 00 00 00
	00		 lea	 edx, DWORD PTR $L188324
  00097	e8 00 00 00 00	 call	 @_RTC_CheckStackVars@8
  0009c	58		 pop	 eax
  0009d	5a		 pop	 edx
  0009e	8b 4d fc	 mov	 ecx, DWORD PTR __$ArrayPad$[ebp]
  000a1	e8 00 00 00 00	 call	 @__security_check_cookie@4
  000a6	5f		 pop	 edi
  000a7	5e		 pop	 esi
  000a8	81 c4 a4 00 00
	00		 add	 esp, 164		; 000000a4H
  000ae	3b ec		 cmp	 ebp, esp
  000b0	e8 00 00 00 00	 call	 __RTC_CheckEsp
  000b5	8b e5		 mov	 esp, ebp
  000b7	5d		 pop	 ebp
  000b8	c3		 ret	 0
$L188324:
  000b9	01 00 00 00	 DD	 1
  000bd	00 00 00 00	 DD	 $L188323
$L188323:
  000c1	64 ff ff ff	 DD	 -156			; ffffff64H
  000c5	94 00 00 00	 DD	 148			; 00000094H
  000c9	00 00 00 00	 DD	 $L188320
$L188320:
  000cd	76		 DB	 118			; 00000076H
  000ce	65		 DB	 101			; 00000065H
  000cf	72		 DB	 114			; 00000072H
  000d0	00		 DB	 0
?_AtlGetThreadACPThunk@ATL@@YGIXZ ENDP			; ATL::_AtlGetThreadACPThunk
_TEXT	ENDS
EXTRN	__imp__InterlockedExchange@8:NEAR
; Function compile flags: /Odt /RTCsu
;	COMDAT ?InterlockedExchangePointer@@YGPAXPAPAXPAX@Z
_TEXT	SEGMENT
_pp$ = 8						; size = 4
_pNew$ = 12						; size = 4
?InterlockedExchangePointer@@YGPAXPAPAXPAX@Z PROC NEAR	; InterlockedExchangePointer, COMDAT

; 91   : {

  00000	55		 push	 ebp
  00001	8b ec		 mov	 ebp, esp
  00003	56		 push	 esi

; 92   : 	return( reinterpret_cast<void*>(static_cast<LONG_PTR>(::InterlockedExchange(reinterpret_cast<LONG*>(pp), static_cast<LONG>(reinterpret_cast<LONG_PTR>(pNew))))) );

  00004	8b f4		 mov	 esi, esp
  00006	8b 45 0c	 mov	 eax, DWORD PTR _pNew$[ebp]
  00009	50		 push	 eax
  0000a	8b 4d 08	 mov	 ecx, DWORD PTR _pp$[ebp]
  0000d	51		 push	 ecx
  0000e	ff 15 00 00 00
	00		 call	 DWORD PTR __imp__InterlockedExchange@8
  00014	3b f4		 cmp	 esi, esp
  00016	e8 00 00 00 00	 call	 __RTC_CheckEsp

; 93   : }

  0001b	5e		 pop	 esi
  0001c	3b ec		 cmp	 ebp, esp
  0001e	e8 00 00 00 00	 call	 __RTC_CheckEsp
  00023	5d		 pop	 ebp
  00024	c2 08 00	 ret	 8
?InterlockedExchangePointer@@YGPAXPAPAXPAX@Z ENDP	; InterlockedExchangePointer
_TEXT	ENDS
EXTRN	__imp__GetACP@0:NEAR
EXTRN	__imp__GetLocaleInfoA@16:NEAR
EXTRN	__imp__GetThreadLocale@0:NEAR
; Function compile flags: /Odt /RTCsu
;	COMDAT ?_AtlGetThreadACPFake@ATL@@YGIXZ
_TEXT	SEGMENT
_pch$24151 = -32					; size = 4
_szACP$ = -24						; size = 7
_lcidThread$ = -12					; size = 4
_nACP$ = -8						; size = 4
__$ArrayPad$ = -4					; size = 4
__$ReturnAddr$ = 4					; size = 4
?_AtlGetThreadACPFake@ATL@@YGIXZ PROC NEAR		; ATL::_AtlGetThreadACPFake, COMDAT

; 101  : {

  00000	55		 push	 ebp
  00001	8b ec		 mov	 ebp, esp
  00003	83 ec 20	 sub	 esp, 32			; 00000020H
  00006	56		 push	 esi
  00007	b8 cc cc cc cc	 mov	 eax, -858993460		; ccccccccH
  0000c	89 45 e0	 mov	 DWORD PTR [ebp-32], eax
  0000f	89 45 e4	 mov	 DWORD PTR [ebp-28], eax
  00012	89 45 e8	 mov	 DWORD PTR [ebp-24], eax
  00015	89 45 ec	 mov	 DWORD PTR [ebp-20], eax
  00018	89 45 f0	 mov	 DWORD PTR [ebp-16], eax
  0001b	89 45 f4	 mov	 DWORD PTR [ebp-12], eax
  0001e	89 45 f8	 mov	 DWORD PTR [ebp-8], eax
  00021	89 45 fc	 mov	 DWORD PTR [ebp-4], eax
  00024	a1 00 00 00 00	 mov	 eax, DWORD PTR ___security_cookie
  00029	89 45 fc	 mov	 DWORD PTR __$ArrayPad$[ebp], eax

; 102  : 	UINT nACP = 0;

  0002c	c7 45 f8 00 00
	00 00		 mov	 DWORD PTR _nACP$[ebp], 0

; 103  : 
; 104  : 	LCID lcidThread = ::GetThreadLocale();

  00033	8b f4		 mov	 esi, esp
  00035	ff 15 00 00 00
	00		 call	 DWORD PTR __imp__GetThreadLocale@0
  0003b	3b f4		 cmp	 esi, esp
  0003d	e8 00 00 00 00	 call	 __RTC_CheckEsp
  00042	89 45 f4	 mov	 DWORD PTR _lcidThread$[ebp], eax

; 105  : 
; 106  : 	char szACP[7];
; 107  : 	// GetLocaleInfoA will fail for a Unicode-only LCID, but those are only supported on 
; 108  : 	// Windows 2000.  Since Windows 2000 supports CP_THREAD_ACP, this code path is never
; 109  : 	// executed on Windows 2000.
; 110  : 	if (::GetLocaleInfoA(lcidThread, LOCALE_IDEFAULTANSICODEPAGE, szACP, 7) != 0)

  00045	8b f4		 mov	 esi, esp
  00047	6a 07		 push	 7
  00049	8d 45 e8	 lea	 eax, DWORD PTR _szACP$[ebp]
  0004c	50		 push	 eax
  0004d	68 04 10 00 00	 push	 4100			; 00001004H
  00052	8b 4d f4	 mov	 ecx, DWORD PTR _lcidThread$[ebp]
  00055	51		 push	 ecx
  00056	ff 15 00 00 00
	00		 call	 DWORD PTR __imp__GetLocaleInfoA@16
  0005c	3b f4		 cmp	 esi, esp
  0005e	e8 00 00 00 00	 call	 __RTC_CheckEsp
  00063	85 c0		 test	 eax, eax
  00065	74 34		 je	 SHORT $L24150

; 111  : 	{
; 112  : 		char* pch = szACP;

  00067	8d 55 e8	 lea	 edx, DWORD PTR _szACP$[ebp]
  0006a	89 55 e0	 mov	 DWORD PTR _pch$24151[ebp], edx
$L24153:

; 113  : 		while (*pch != '\0')

  0006d	8b 45 e0	 mov	 eax, DWORD PTR _pch$24151[ebp]
  00070	0f be 08	 movsx	 ecx, BYTE PTR [eax]
  00073	85 c9		 test	 ecx, ecx
  00075	74 24		 je	 SHORT $L24150

; 114  : 		{
; 115  : 			nACP *= 10;

  00077	8b 55 f8	 mov	 edx, DWORD PTR _nACP$[ebp]
  0007a	6b d2 0a	 imul	 edx, 10			; 0000000aH
  0007d	89 55 f8	 mov	 DWORD PTR _nACP$[ebp], edx

; 116  : 			nACP += *pch++ - '0';

  00080	8b 45 e0	 mov	 eax, DWORD PTR _pch$24151[ebp]
  00083	0f be 08	 movsx	 ecx, BYTE PTR [eax]
  00086	8b 55 f8	 mov	 edx, DWORD PTR _nACP$[ebp]
  00089	8d 44 0a d0	 lea	 eax, DWORD PTR [edx+ecx-48]
  0008d	89 45 f8	 mov	 DWORD PTR _nACP$[ebp], eax
  00090	8b 4d e0	 mov	 ecx, DWORD PTR _pch$24151[ebp]
  00093	83 c1 01	 add	 ecx, 1
  00096	89 4d e0	 mov	 DWORD PTR _pch$24151[ebp], ecx

; 117  : 		}

  00099	eb d2		 jmp	 SHORT $L24153
$L24150:

; 118  : 	}
; 119  : 	// Use the Default ANSI Code Page if we were unable to get the thread ACP or if one does not exist.
; 120  : 	if (nACP == 0)

  0009b	83 7d f8 00	 cmp	 DWORD PTR _nACP$[ebp], 0
  0009f	75 12		 jne	 SHORT $L24155

; 121  : 		nACP = ::GetACP();

  000a1	8b f4		 mov	 esi, esp
  000a3	ff 15 00 00 00
	00		 call	 DWORD PTR __imp__GetACP@0
  000a9	3b f4		 cmp	 esi, esp
  000ab	e8 00 00 00 00	 call	 __RTC_CheckEsp
  000b0	89 45 f8	 mov	 DWORD PTR _nACP$[ebp], eax
$L24155:

; 122  : 
; 123  : 	return nACP;

  000b3	8b 45 f8	 mov	 eax, DWORD PTR _nACP$[ebp]

; 124  : }

  000b6	52		 push	 edx
  000b7	8b cd		 mov	 ecx, ebp
  000b9	50		 push	 eax
  000ba	8d 15 00 00 00
	00		 lea	 edx, DWORD PTR $L188332
  000c0	e8 00 00 00 00	 call	 @_RTC_CheckStackVars@8
  000c5	58		 pop	 eax
  000c6	5a		 pop	 edx
  000c7	8b 4d fc	 mov	 ecx, DWORD PTR __$ArrayPad$[ebp]
  000ca	e8 00 00 00 00	 call	 @__security_check_cookie@4
  000cf	5e		 pop	 esi
  000d0	83 c4 20	 add	 esp, 32			; 00000020H
  000d3	3b ec		 cmp	 ebp, esp
  000d5	e8 00 00 00 00	 call	 __RTC_CheckEsp
  000da	8b e5		 mov	 esp, ebp
  000dc	5d		 pop	 ebp
  000dd	c3		 ret	 0
$L188332:
  000de	01 00 00 00	 DD	 1
  000e2	00 00 00 00	 DD	 $L188331
$L188331:
  000e6	e8 ff ff ff	 DD	 -24			; ffffffe8H
  000ea	07 00 00 00	 DD	 7
  000ee	00 00 00 00	 DD	 $L188329
$L188329:
  000f2	73		 DB	 115			; 00000073H
  000f3	7a		 DB	 122			; 0000007aH
  000f4	41		 DB	 65			; 00000041H
  000f5	43		 DB	 67			; 00000043H
  000f6	50		 DB	 80			; 00000050H
  000f7	00		 DB	 0
?_AtlGetThreadACPFake@ATL@@YGIXZ ENDP			; ATL::_AtlGetThreadACPFake
; Function compile flags: /Odt /RTCsu
_TEXT	ENDS
;	COMDAT ?_AtlGetThreadACPReal@ATL@@YGIXZ
_TEXT	SEGMENT
?_AtlGetThreadACPReal@ATL@@YGIXZ PROC NEAR		; ATL::_AtlGetThreadACPReal, COMDAT

; 127  : {

  00000	55		 push	 ebp
  00001	8b ec		 mov	 ebp, esp

; 128  : 	return( CP_THREAD_ACP );

  00003	b8 03 00 00 00	 mov	 eax, 3

; 129  : }

  00008	5d		 pop	 ebp
  00009	c3		 ret	 0
?_AtlGetThreadACPReal@ATL@@YGIXZ ENDP			; ATL::_AtlGetThreadACPReal
_TEXT	ENDS
END
