; Listing generated by Microsoft (R) Optimizing Compiler Version 13.10.3077 

	TITLE	.\src\Gui\CommonControl\DialogMsg.cpp
	.386P
include listing.inc
if @Version gt 510
.model FLAT
else
_TEXT	SEGMENT PARA USE32 PUBLIC 'CODE'
_TEXT	ENDS
_DATA	SEGMENT DWORD USE32 PUBLIC 'DATA'
_DATA	ENDS
CONST	SEGMENT DWORD USE32 PUBLIC 'CONST'
CONST	ENDS
_BSS	SEGMENT DWORD USE32 PUBLIC 'BSS'
_BSS	ENDS
$$SYMBOLS	SEGMENT BYTE USE32 'DEBSYM'
$$SYMBOLS	ENDS
_TLS	SEGMENT DWORD USE32 PUBLIC 'TLS'
_TLS	ENDS
;	COMDAT ??_C@_0M@GOJCFFEC@iStart?5?$DO?$DN?50?$AA@
CONST	SEGMENT DWORD USE32 PUBLIC 'CONST'
CONST	ENDS
;	COMDAT ??_C@_0BL@PKIBFLAK@AtlIsValidString?$CI?5pszSub?5?$CJ?$AA@
CONST	SEGMENT DWORD USE32 PUBLIC 'CONST'
CONST	ENDS
;	COMDAT ??_C@_0DC@KJIHKHDE@?$CInCount?5?$DN?$DN?50?$CJ?5?$HM?$HM?5?$CI?$CIiFirst?$CLnCount@
CONST	SEGMENT DWORD USE32 PUBLIC 'CONST'
CONST	ENDS
;	COMDAT ??_C@_0EN@IBFBLEEG@D?3?2Program?5Files?5?$CIx86?$CJ?2Microsoft@
CONST	SEGMENT DWORD USE32 PUBLIC 'CONST'
CONST	ENDS
rdata$r	SEGMENT DWORD USE32 PUBLIC 'CONST'
rdata$r	ENDS
xdata$x	SEGMENT DWORD USE32 PUBLIC 'CONST'
xdata$x	ENDS
text$AFX_COL1	SEGMENT PARA USE32 PUBLIC ''
text$AFX_COL1	ENDS
text$yc	SEGMENT PARA USE32 PUBLIC 'CODE'
text$yc	ENDS
CRT$XCA	SEGMENT DWORD USE32 PUBLIC 'DATA'
CRT$XCA	ENDS
CRT$XCU	SEGMENT DWORD USE32 PUBLIC 'DATA'
CRT$XCU	ENDS
CRT$XCL	SEGMENT DWORD USE32 PUBLIC 'DATA'
CRT$XCL	ENDS
CRT$XCC	SEGMENT DWORD USE32 PUBLIC 'DATA'
CRT$XCC	ENDS
CRT$XCZ	SEGMENT DWORD USE32 PUBLIC 'DATA'
CRT$XCZ	ENDS
text$yd	SEGMENT PARA USE32 PUBLIC 'CODE'
text$yd	ENDS
ATL$__m	SEGMENT DWORD USE32 PUBLIC ''
ATL$__m	ENDS
ATL$__z	SEGMENT DWORD USE32 PUBLIC ''
ATL$__z	ENDS
ATL$__a	SEGMENT DWORD USE32 PUBLIC ''
ATL$__a	ENDS
;	COMDAT ??1IData@@MAE@XZ
_TEXT	SEGMENT PARA USE32 PUBLIC 'CODE'
_TEXT	ENDS
;	COMDAT ?DataAppStart@IData@@UAEXXZ
_TEXT	SEGMENT PARA USE32 PUBLIC 'CODE'
_TEXT	ENDS
;	COMDAT ?DataAppExit@IData@@UAEXXZ
_TEXT	SEGMENT PARA USE32 PUBLIC 'CODE'
_TEXT	ENDS
;	COMDAT ??_GIData@@MAEPAXI@Z
_TEXT	SEGMENT PARA USE32 PUBLIC 'CODE'
_TEXT	ENDS
;	COMDAT ?SetTitle@CDialogMsg@@QAEXABV?$CStringT@DV?$StrTraitMFC_DLL@DV?$ChTraitsCRT@D@ATL@@@@@ATL@@@Z
_TEXT	SEGMENT PARA USE32 PUBLIC 'CODE'
_TEXT	ENDS
;	COMDAT ?SetSize@CDialogMsg@@QAEXHH@Z
_TEXT	SEGMENT PARA USE32 PUBLIC 'CODE'
_TEXT	ENDS
;	COMDAT ?CheckBox_Check@CDialogMsg@@UAEXXZ
_TEXT	SEGMENT PARA USE32 PUBLIC 'CODE'
_TEXT	ENDS
;	COMDAT ?CheckBox_Checked@CDialogMsg@@UAEXXZ
_TEXT	SEGMENT PARA USE32 PUBLIC 'CODE'
_TEXT	ENDS
;	COMDAT ?CheckBox_UnChecked@CDialogMsg@@UAEXXZ
_TEXT	SEGMENT PARA USE32 PUBLIC 'CODE'
_TEXT	ENDS
;	COMDAT ??_GCDialogMsg@@UAEPAXI@Z
_TEXT	SEGMENT PARA USE32 PUBLIC 'CODE'
_TEXT	ENDS
;	COMDAT ??B?$CComPtrBase@UITypeInfo2@@@ATL@@QBEPAUITypeInfo2@@XZ
_TEXT	SEGMENT PARA USE32 PUBLIC 'CODE'
_TEXT	ENDS
;	COMDAT ?equal@?$istreambuf_iterator@DU?$char_traits@D@std@@@std@@QBE_NABV12@@Z
_TEXT	SEGMENT PARA USE32 PUBLIC 'CODE'
_TEXT	ENDS
;	COMDAT ?equal@?$istreambuf_iterator@_WU?$char_traits@_W@std@@@std@@QBE_NABV12@@Z
_TEXT	SEGMENT PARA USE32 PUBLIC 'CODE'
_TEXT	ENDS
;	COMDAT ?StringFindString@?$ChTraitsCRT@D@ATL@@SAPBDPBD0@Z
_TEXT	SEGMENT PARA USE32 PUBLIC 'CODE'
_TEXT	ENDS
;	COMDAT ?Unlock@?$CComCritSecLock@VCComCriticalSection@ATL@@@ATL@@QAEXXZ
_TEXT	SEGMENT PARA USE32 PUBLIC 'CODE'
_TEXT	ENDS
;	COMDAT ??$_Maklocstr@D@std@@YAPADPBDPADABU_Cvtvec@@@Z
_TEXT	SEGMENT PARA USE32 PUBLIC 'CODE'
_TEXT	ENDS
;	COMDAT ??_9@$BBFE@AE
_TEXT	SEGMENT PARA USE32 PUBLIC 'CODE'
_TEXT	ENDS
;	COMDAT ??_9@$BBFI@AE
_TEXT	SEGMENT PARA USE32 PUBLIC 'CODE'
_TEXT	ENDS
;	COMDAT ??_R3?$numpunct@_W@std@@8
rdata$r	SEGMENT DWORD USE32 PUBLIC 'CONST'
rdata$r	ENDS
;	COMDAT ??_R3?$numpunct@D@std@@8
rdata$r	SEGMENT DWORD USE32 PUBLIC 'CONST'
rdata$r	ENDS
;	COMDAT ??_R3IData@@8
rdata$r	SEGMENT DWORD USE32 PUBLIC 'CONST'
rdata$r	ENDS
;	COMDAT ??_R3CDialogMsg@@8
rdata$r	SEGMENT DWORD USE32 PUBLIC 'CONST'
rdata$r	ENDS
;	COMDAT ??_R2?$numpunct@_W@std@@8
rdata$r	SEGMENT DWORD USE32 PUBLIC 'CONST'
rdata$r	ENDS
;	COMDAT ??_R2?$numpunct@D@std@@8
rdata$r	SEGMENT DWORD USE32 PUBLIC 'CONST'
rdata$r	ENDS
;	COMDAT ??_R2IData@@8
rdata$r	SEGMENT DWORD USE32 PUBLIC 'CONST'
rdata$r	ENDS
;	COMDAT ??_R2CDialogMsg@@8
rdata$r	SEGMENT DWORD USE32 PUBLIC 'CONST'
rdata$r	ENDS
;	COMDAT ??_R1A@?0A@A@?$numpunct@_W@std@@8
rdata$r	SEGMENT DWORD USE32 PUBLIC 'CONST'
rdata$r	ENDS
;	COMDAT ??_R1A@?0A@A@facet@locale@std@@8
rdata$r	SEGMENT DWORD USE32 PUBLIC 'CONST'
rdata$r	ENDS
;	COMDAT ??_R0?AVfacet@locale@std@@@8
_DATA	SEGMENT DWORD USE32 PUBLIC 'DATA'
_DATA	ENDS
;	COMDAT ??_R1A@?0A@A@?$numpunct@D@std@@8
rdata$r	SEGMENT DWORD USE32 PUBLIC 'CONST'
rdata$r	ENDS
;	COMDAT ??_R1A@?0A@A@IData@@8
rdata$r	SEGMENT DWORD USE32 PUBLIC 'CONST'
rdata$r	ENDS
;	COMDAT ??_R1A@?0A@A@CObject@@8
rdata$r	SEGMENT DWORD USE32 PUBLIC 'CONST'
rdata$r	ENDS
;	COMDAT ??_R0?AVCObject@@@8
_DATA	SEGMENT DWORD USE32 PUBLIC 'DATA'
_DATA	ENDS
;	COMDAT ??_R1A@?0A@A@CCmdTarget@@8
rdata$r	SEGMENT DWORD USE32 PUBLIC 'CONST'
rdata$r	ENDS
;	COMDAT ??_R0?AVCCmdTarget@@@8
_DATA	SEGMENT DWORD USE32 PUBLIC 'DATA'
_DATA	ENDS
;	COMDAT ??_R1A@?0A@A@CWnd@@8
rdata$r	SEGMENT DWORD USE32 PUBLIC 'CONST'
rdata$r	ENDS
;	COMDAT ??_R0?AVCWnd@@@8
_DATA	SEGMENT DWORD USE32 PUBLIC 'DATA'
_DATA	ENDS
;	COMDAT ??_R1A@?0A@A@CDialog@@8
rdata$r	SEGMENT DWORD USE32 PUBLIC 'CONST'
rdata$r	ENDS
;	COMDAT ??_R0?AVCDialog@@@8
_DATA	SEGMENT DWORD USE32 PUBLIC 'DATA'
_DATA	ENDS
;	COMDAT ??_R1A@?0A@A@CDialogMsg@@8
rdata$r	SEGMENT DWORD USE32 PUBLIC 'CONST'
rdata$r	ENDS
;	COMDAT ??_R0?AV?$numpunct@_W@std@@@8
_DATA	SEGMENT DWORD USE32 PUBLIC 'DATA'
_DATA	ENDS
;	COMDAT ??_R0?AV?$numpunct@D@std@@@8
_DATA	SEGMENT DWORD USE32 PUBLIC 'DATA'
_DATA	ENDS
;	COMDAT ??_R0?AVIData@@@8
_DATA	SEGMENT DWORD USE32 PUBLIC 'DATA'
_DATA	ENDS
;	COMDAT ??_R0?AVCDialogMsg@@@8
_DATA	SEGMENT DWORD USE32 PUBLIC 'DATA'
_DATA	ENDS
;	COMDAT ??0?$allocator@_W@std@@QAE@XZ
_TEXT	SEGMENT PARA USE32 PUBLIC 'CODE'
_TEXT	ENDS
;	COMDAT ??0?$allocator@D@std@@QAE@ABV01@@Z
_TEXT	SEGMENT PARA USE32 PUBLIC 'CODE'
_TEXT	ENDS
;	COMDAT ??0?$allocator@D@std@@QAE@XZ
_TEXT	SEGMENT PARA USE32 PUBLIC 'CODE'
_TEXT	ENDS
;	COMDAT ?deallocate@?$allocator@D@std@@QAEXPADI@Z
_TEXT	SEGMENT PARA USE32 PUBLIC 'CODE'
_TEXT	ENDS
;	COMDAT ?max_size@?$allocator@D@std@@QBEIXZ
_TEXT	SEGMENT PARA USE32 PUBLIC 'CODE'
_TEXT	ENDS
;	COMDAT ?allocate@?$allocator@D@std@@QAEPADI@Z
_TEXT	SEGMENT PARA USE32 PUBLIC 'CODE'
_TEXT	ENDS
;	COMDAT ??$_Allocate@D@std@@YAPADIPAD@Z
_TEXT	SEGMENT PARA USE32 PUBLIC 'CODE'
_TEXT	ENDS
;	COMDAT ??_G?$numpunct@_W@std@@MAEPAXI@Z
_TEXT	SEGMENT PARA USE32 PUBLIC 'CODE'
_TEXT	ENDS
;	COMDAT ??_R4?$numpunct@_W@std@@6B@
rdata$r	SEGMENT DWORD USE32 PUBLIC 'CONST'
rdata$r	ENDS
;	COMDAT ??_G?$numpunct@D@std@@MAEPAXI@Z
_TEXT	SEGMENT PARA USE32 PUBLIC 'CODE'
_TEXT	ENDS
;	COMDAT ??_R4?$numpunct@D@std@@6B@
rdata$r	SEGMENT DWORD USE32 PUBLIC 'CONST'
rdata$r	ENDS
;	COMDAT ??_R4IData@@6B@
rdata$r	SEGMENT DWORD USE32 PUBLIC 'CONST'
rdata$r	ENDS
;	COMDAT ??_R4CDialogMsg@@6B@
rdata$r	SEGMENT DWORD USE32 PUBLIC 'CONST'
rdata$r	ENDS
;	COMDAT ??_C@_0EN@CBMLGOH@D?3?2Program?5Files?5?$CIx86?$CJ?2Microsoft@
CONST	SEGMENT DWORD USE32 PUBLIC 'CONST'
CONST	ENDS
;	COMDAT ?_Psave@?$_Facetptr@V?$numpunct@_W@std@@@std@@2PBVfacet@locale@2@B
_DATA	SEGMENT DWORD USE32 PUBLIC 'DATA'
_DATA	ENDS
;	COMDAT ?_Psave@?$_Facetptr@V?$numpunct@D@std@@@std@@2PBVfacet@locale@2@B
_DATA	SEGMENT DWORD USE32 PUBLIC 'DATA'
_DATA	ENDS
;	COMDAT ?Unlock@CComCriticalSection@ATL@@QAEJXZ
_TEXT	SEGMENT PARA USE32 PUBLIC 'CODE'
_TEXT	ENDS
;	COMDAT ??_C@_0FG@LDNDNCJM@D?3?2Program?5Files?5?$CIx86?$CJ?2Microsoft@
CONST	SEGMENT DWORD USE32 PUBLIC 'CONST'
CONST	ENDS
;	COMDAT ??_C@_09HIEJFN@m_bLocked?$AA@
CONST	SEGMENT DWORD USE32 PUBLIC 'CONST'
CONST	ENDS
;	COMDAT ?_Psave@?$_Facetptr@V?$ctype@_W@std@@@std@@2PBVfacet@locale@2@B
_DATA	SEGMENT DWORD USE32 PUBLIC 'DATA'
_DATA	ENDS
;	COMDAT ?_Psave@?$_Facetptr@V?$ctype@D@std@@@std@@2PBVfacet@locale@2@B
_DATA	SEGMENT DWORD USE32 PUBLIC 'DATA'
_DATA	ENDS
;	COMDAT ??$_Maklocchr@_W@std@@YA_WDPA_WABU_Cvtvec@@@Z
_TEXT	SEGMENT PARA USE32 PUBLIC 'CODE'
_TEXT	ENDS
;	COMDAT ??$_DebugHeapDelete@X@std@@YAXPAX@Z
_TEXT	SEGMENT PARA USE32 PUBLIC 'CODE'
_TEXT	ENDS
;	COMDAT ??$_Maklocstr@_W@std@@YAPA_WPBDPA_WABU_Cvtvec@@@Z
_TEXT	SEGMENT PARA USE32 PUBLIC 'CODE'
_TEXT	ENDS
;	COMDAT ??$_Maklocchr@D@std@@YADDPADABU_Cvtvec@@@Z
_TEXT	SEGMENT PARA USE32 PUBLIC 'CODE'
_TEXT	ENDS
;	COMDAT ??_C@_04LOAJBDKD@true?$AA@
CONST	SEGMENT DWORD USE32 PUBLIC 'CONST'
CONST	ENDS
;	COMDAT ??_C@_05LAPONLG@false?$AA@
CONST	SEGMENT DWORD USE32 PUBLIC 'CONST'
CONST	ENDS
;	COMDAT _wmemcpy
_TEXT	SEGMENT PARA USE32 PUBLIC 'CODE'
_TEXT	ENDS
;	COMDAT ?max_size@?$allocator@_W@std@@QBEIXZ
_TEXT	SEGMENT PARA USE32 PUBLIC 'CODE'
_TEXT	ENDS
;	COMDAT ?allocate@?$allocator@_W@std@@QAEPA_WI@Z
_TEXT	SEGMENT PARA USE32 PUBLIC 'CODE'
_TEXT	ENDS
;	COMDAT ??$_Allocate@_W@std@@YAPA_WIPA_W@Z
_TEXT	SEGMENT PARA USE32 PUBLIC 'CODE'
_TEXT	ENDS
;	COMDAT ??_C@_0N@ILOMLJGA@nLength?5?$DO?$DN?50?$AA@
CONST	SEGMENT DWORD USE32 PUBLIC 'CONST'
CONST	ENDS
;	COMDAT ??_C@_0CD@EEFFJEGJ@nLength?5?$DM?$DN?5GetData?$CI?$CJ?9?$DOnAllocLeng@
CONST	SEGMENT DWORD USE32 PUBLIC 'CONST'
CONST	ENDS
;	COMDAT ?data@CStringData@ATL@@QAEPAXXZ
_TEXT	SEGMENT PARA USE32 PUBLIC 'CODE'
_TEXT	ENDS
;	COMDAT ?AtlThrow@ATL@@YGXJ@Z
_TEXT	SEGMENT PARA USE32 PUBLIC 'CODE'
_TEXT	ENDS
;	COMDAT ??RCTraceFileAndLineInfo@ATL@@QBAXKIPBDZZ
_TEXT	SEGMENT PARA USE32 PUBLIC 'CODE'
_TEXT	ENDS
;	COMDAT ?TraceV@CTrace@ATL@@QBAXPBDHKI0PAD@Z
_TEXT	SEGMENT PARA USE32 PUBLIC 'CODE'
_TEXT	ENDS
;	COMDAT ??0CTraceFileAndLineInfo@ATL@@QAE@PBDH@Z
_TEXT	SEGMENT PARA USE32 PUBLIC 'CODE'
_TEXT	ENDS
;	COMDAT ??_C@_0FI@NHHJANPC@D?3?2Program?5Files?5?$CIx86?$CJ?2Microsoft@
CONST	SEGMENT DWORD USE32 PUBLIC 'CONST'
CONST	ENDS
;	COMDAT ??_C@_0BF@IAAKIJDJ@AtlThrow?3?5hr?5?$DN?50x?$CFx?6?$AA@
CONST	SEGMENT DWORD USE32 PUBLIC 'CONST'
CONST	ENDS
;	COMDAT ??BCTraceCategory@ATL@@QBEKXZ
_TEXT	SEGMENT PARA USE32 PUBLIC 'CODE'
_TEXT	ENDS
;	COMDAT ??_C@_0FJ@DMHPDOJC@D?3?2Program?5Files?5?$CIx86?$CJ?2Microsoft@
CONST	SEGMENT DWORD USE32 PUBLIC 'CONST'
CONST	ENDS
;	COMDAT ??_C@_0BA@GOIMFHNK@pStringMgr?5?$CB?$DN?50?$AA@
CONST	SEGMENT DWORD USE32 PUBLIC 'CONST'
CONST	ENDS
;	COMDAT ??_C@_01GFHCPBMG@C?$AA@
CONST	SEGMENT DWORD USE32 PUBLIC 'CONST'
CONST	ENDS
;	COMDAT ?Release@CStringData@ATL@@QAEXXZ
_TEXT	SEGMENT PARA USE32 PUBLIC 'CODE'
_TEXT	ENDS
;	COMDAT ??_C@_0L@OIIMFBNE@nRefs?5?$CB?$DN?50?$AA@
CONST	SEGMENT DWORD USE32 PUBLIC 'CONST'
CONST	ENDS
;	COMDAT ?_Peek@?$istreambuf_iterator@_WU?$char_traits@_W@std@@@std@@AAE_WXZ
_TEXT	SEGMENT PARA USE32 PUBLIC 'CODE'
_TEXT	ENDS
;	COMDAT ?_Peek@?$istreambuf_iterator@DU?$char_traits@D@std@@@std@@AAEDXZ
_TEXT	SEGMENT PARA USE32 PUBLIC 'CODE'
_TEXT	ENDS
;	COMDAT ??$use_facet@V?$ctype@_W@std@@@std@@YAABV?$ctype@_W@0@ABVlocale@0@@Z
_TEXT	SEGMENT PARA USE32 PUBLIC 'CODE'
_TEXT	ENDS
;	COMDAT ??_S?$ctype@_W@std@@6B@
CONST	SEGMENT DWORD USE32 PUBLIC 'CONST'
CONST	ENDS
;	COMDAT ??_R4?$ctype@_W@std@@6B@
rdata$r	SEGMENT DWORD USE32 PUBLIC 'CONST'
rdata$r	ENDS
;	COMDAT ??_R0?AV?$ctype@_W@std@@@8
_DATA	SEGMENT DWORD USE32 PUBLIC 'DATA'
_DATA	ENDS
;	COMDAT ??_R3?$ctype@_W@std@@8
rdata$r	SEGMENT DWORD USE32 PUBLIC 'CONST'
rdata$r	ENDS
;	COMDAT ??_R2?$ctype@_W@std@@8
rdata$r	SEGMENT DWORD USE32 PUBLIC 'CONST'
rdata$r	ENDS
;	COMDAT ??_R1A@?0A@A@?$ctype@_W@std@@8
rdata$r	SEGMENT DWORD USE32 PUBLIC 'CONST'
rdata$r	ENDS
;	COMDAT ??_R1A@?0A@A@ctype_base@std@@8
rdata$r	SEGMENT DWORD USE32 PUBLIC 'CONST'
rdata$r	ENDS
;	COMDAT ??_R0?AUctype_base@std@@@8
_DATA	SEGMENT DWORD USE32 PUBLIC 'DATA'
_DATA	ENDS
;	COMDAT ??_G?$ctype@_W@std@@MAEPAXI@Z
_TEXT	SEGMENT PARA USE32 PUBLIC 'CODE'
_TEXT	ENDS
;	COMDAT ??_C@_08EPJLHIJG@bad?5cast?$AA@
CONST	SEGMENT DWORD USE32 PUBLIC 'CONST'
CONST	ENDS
;	COMDAT __TI2?AVbad_cast@@
xdata$x	SEGMENT DWORD USE32 PUBLIC 'CONST'
xdata$x	ENDS
;	COMDAT __CTA2?AVbad_cast@@
xdata$x	SEGMENT DWORD USE32 PUBLIC 'CONST'
xdata$x	ENDS
;	COMDAT __CT??_R0?AVbad_cast@@@8??0bad_cast@@QAE@ABV0@@Z12
xdata$x	SEGMENT DWORD USE32 PUBLIC 'CONST'
xdata$x	ENDS
;	COMDAT ??_R0?AVbad_cast@@@8
_DATA	SEGMENT DWORD USE32 PUBLIC 'DATA'
_DATA	ENDS
;	COMDAT __CT??_R0?AVexception@@@8??0exception@@QAE@ABV0@@Z12
xdata$x	SEGMENT DWORD USE32 PUBLIC 'CONST'
xdata$x	ENDS
;	COMDAT ??_R0?AVexception@@@8
_DATA	SEGMENT DWORD USE32 PUBLIC 'DATA'
_DATA	ENDS
;	COMDAT ??$_DebugHeapDelete@Vfacet@locale@std@@@std@@YAXPAVfacet@locale@0@@Z
_TEXT	SEGMENT PARA USE32 PUBLIC 'CODE'
_TEXT	ENDS
;	COMDAT ??$use_facet@V?$ctype@D@std@@@std@@YAABV?$ctype@D@0@ABVlocale@0@@Z
_TEXT	SEGMENT PARA USE32 PUBLIC 'CODE'
_TEXT	ENDS
;	COMDAT ??_S?$ctype@D@std@@6B@
CONST	SEGMENT DWORD USE32 PUBLIC 'CONST'
CONST	ENDS
;	COMDAT ??_R4?$ctype@D@std@@6B@
rdata$r	SEGMENT DWORD USE32 PUBLIC 'CONST'
rdata$r	ENDS
;	COMDAT ??_R0?AV?$ctype@D@std@@@8
_DATA	SEGMENT DWORD USE32 PUBLIC 'DATA'
_DATA	ENDS
;	COMDAT ??_R3?$ctype@D@std@@8
rdata$r	SEGMENT DWORD USE32 PUBLIC 'CONST'
rdata$r	ENDS
;	COMDAT ??_R2?$ctype@D@std@@8
rdata$r	SEGMENT DWORD USE32 PUBLIC 'CONST'
rdata$r	ENDS
;	COMDAT ??_R1A@?0A@A@?$ctype@D@std@@8
rdata$r	SEGMENT DWORD USE32 PUBLIC 'CONST'
rdata$r	ENDS
;	COMDAT ??_G?$ctype@D@std@@MAEPAXI@Z
_TEXT	SEGMENT PARA USE32 PUBLIC 'CODE'
_TEXT	ENDS
;	COMDAT ??_S?$numpunct@_W@std@@6B@
CONST	SEGMENT DWORD USE32 PUBLIC 'CONST'
CONST	ENDS
;	COMDAT ??_S?$numpunct@D@std@@6B@
CONST	SEGMENT DWORD USE32 PUBLIC 'CONST'
CONST	ENDS
;	COMDAT _wmemmove
_TEXT	SEGMENT PARA USE32 PUBLIC 'CODE'
_TEXT	ENDS
;	COMDAT ?deallocate@?$allocator@_W@std@@QAEXPA_WI@Z
_TEXT	SEGMENT PARA USE32 PUBLIC 'CODE'
_TEXT	ENDS
;	COMDAT ??0?$allocator@_W@std@@QAE@ABV01@@Z
_TEXT	SEGMENT PARA USE32 PUBLIC 'CODE'
_TEXT	ENDS
;	COMDAT ?IsLocked@CStringData@ATL@@QBE_NXZ
_TEXT	SEGMENT PARA USE32 PUBLIC 'CODE'
_TEXT	ENDS
;	COMDAT ?AddRef@CStringData@ATL@@QAEXXZ
_TEXT	SEGMENT PARA USE32 PUBLIC 'CODE'
_TEXT	ENDS
;	COMDAT ??_C@_09EEBKLCFA@nRefs?5?$DO?50?$AA@
CONST	SEGMENT DWORD USE32 PUBLIC 'CONST'
CONST	ENDS
;	COMDAT ?AtlIsValidString@ATL@@YAHPBDI@Z
_TEXT	SEGMENT PARA USE32 PUBLIC 'CODE'
_TEXT	ENDS
;	COMDAT ??_C@_0FH@KDPNIMBO@D?3?2Program?5Files?5?$CIx86?$CJ?2Microsoft@
CONST	SEGMENT DWORD USE32 PUBLIC 'CONST'
CONST	ENDS
;	COMDAT ?SetLayeredWindowAttributes@CWnd@@QAEHKEK@Z
_TEXT	SEGMENT PARA USE32 PUBLIC 'CODE'
_TEXT	ENDS
;	COMDAT ??_C@_0FI@KKCCAGJG@D?3?2Program?5Files?5?$CIx86?$CJ?2Microsoft@
CONST	SEGMENT DWORD USE32 PUBLIC 'CONST'
CONST	ENDS
;	COMDAT ?_messageEntries@CDialogMsg@@0QBUAFX_MSGMAP_ENTRY@@B
CONST	SEGMENT DWORD USE32 PUBLIC 'CONST'
CONST	ENDS
;	COMDAT ?messageMap@CDialogMsg@@1UAFX_MSGMAP@@B
CONST	SEGMENT DWORD USE32 PUBLIC 'CONST'
CONST	ENDS
;	COMDAT ?GetDefaultManager@?$StrTraitMFC_DLL@DV?$ChTraitsCRT@D@ATL@@@@SAPAUIAtlStringMgr@ATL@@XZ
_TEXT	SEGMENT PARA USE32 PUBLIC 'CODE'
_TEXT	ENDS
;	COMDAT ?FindStringResourceInstance@?$StrTraitMFC_DLL@DV?$ChTraitsCRT@D@ATL@@@@SAPAUHINSTANCE__@@I@Z
_TEXT	SEGMENT PARA USE32 PUBLIC 'CODE'
_TEXT	ENDS
;	COMDAT ?AtlGetStringResourceImage@ATL@@YAPBUATLSTRINGRESOURCEIMAGE@1@PAUHINSTANCE__@@I@Z
_TEXT	SEGMENT PARA USE32 PUBLIC 'CODE'
_TEXT	ENDS
;	COMDAT ?_AtlGetStringResourceImage@ATL@@YAPBUATLSTRINGRESOURCEIMAGE@1@PAUHINSTANCE__@@PAUHRSRC__@@I@Z
_TEXT	SEGMENT PARA USE32 PUBLIC 'CODE'
_TEXT	ENDS
;	COMDAT ?GetBaseTypeLength@?$ChTraitsCRT@D@ATL@@SAHPB_WH@Z
_TEXT	SEGMENT PARA USE32 PUBLIC 'CODE'
_TEXT	ENDS
;	COMDAT ?_AtlGetConversionACP@ATL@@YGIXZ
_TEXT	SEGMENT PARA USE32 PUBLIC 'CODE'
_TEXT	ENDS
;	COMDAT ?g_pfnGetThreadACP@ATL@@3P6GIXZA
_DATA	SEGMENT DWORD USE32 PUBLIC 'DATA'
_DATA	ENDS
;	COMDAT ?_AtlGetThreadACPThunk@ATL@@YGIXZ
_TEXT	SEGMENT PARA USE32 PUBLIC 'CODE'
_TEXT	ENDS
;	COMDAT ?_AtlGetThreadACPReal@ATL@@YGIXZ
_TEXT	SEGMENT PARA USE32 PUBLIC 'CODE'
_TEXT	ENDS
;	COMDAT ?_AtlGetThreadACPFake@ATL@@YGIXZ
_TEXT	SEGMENT PARA USE32 PUBLIC 'CODE'
_TEXT	ENDS
;	COMDAT ?InterlockedExchangePointer@@YGPAXPAPAXPAX@Z
_TEXT	SEGMENT PARA USE32 PUBLIC 'CODE'
_TEXT	ENDS
;	COMDAT ?IsShared@CStringData@ATL@@QBE_NXZ
_TEXT	SEGMENT PARA USE32 PUBLIC 'CODE'
_TEXT	ENDS
;	COMDAT ??_C@_0CB@GFHAPKDK@pOldData?9?$DOnAllocLength?5?$DM?5nLength@
CONST	SEGMENT DWORD USE32 PUBLIC 'CONST'
CONST	ENDS
;	COMDAT ?ConvertToBaseType@?$ChTraitsCRT@D@ATL@@SAXPADHPB_WH@Z
_TEXT	SEGMENT PARA USE32 PUBLIC 'CODE'
_TEXT	ENDS
;	COMDAT ??_C@_0BA@GNIEOBOF@nNewLength?5?$DO?$DN?50?$AA@
CONST	SEGMENT DWORD USE32 PUBLIC 'CONST'
CONST	ENDS
;	COMDAT ??_C@_0CJ@FJEKGMMD@Warning?3?5implicit?5LoadString?$CI?$CFu?$CJ@
CONST	SEGMENT DWORD USE32 PUBLIC 'CONST'
CONST	ENDS
;	COMDAT ??_7CDialogMsg@@6B@
CONST	SEGMENT DWORD USE32 PUBLIC 'CONST'
CONST	ENDS
;	COMDAT ?classCDialogMsg@CDialogMsg@@2UCRuntimeClass@@B
CONST	SEGMENT DWORD USE32 PUBLIC 'CONST'
CONST	ENDS
;	COMDAT ??_7IData@@6B@
CONST	SEGMENT DWORD USE32 PUBLIC 'CONST'
CONST	ENDS
sxdata	SEGMENT DWORD USE32 'SXDATA'
sxdata	ENDS
FLAT	GROUP _DATA, CONST, _BSS
	ASSUME	CS: FLAT, DS: FLAT, SS: FLAT
endif

INCLUDELIB MSVCRTD
INCLUDELIB OLDNAMES

PUBLIC	??_9@$BBFE@AE					; `vcall'
PUBLIC	??_9@$BBFI@AE					; `vcall'
PUBLIC	?g_pfnGetThreadACP@ATL@@3P6GIXZA		; ATL::g_pfnGetThreadACP
PUBLIC	?_AtlGetThreadACPThunk@ATL@@YGIXZ		; ATL::_AtlGetThreadACPThunk
PUBLIC	?classCDialogMsg@CDialogMsg@@2UCRuntimeClass@@B	; CDialogMsg::classCDialogMsg
PUBLIC	?_messageEntries@CDialogMsg@@0QBUAFX_MSGMAP_ENTRY@@B ; CDialogMsg::_messageEntries
PUBLIC	?messageMap@CDialogMsg@@1UAFX_MSGMAP@@B		; CDialogMsg::messageMap
PUBLIC	?OnBnClickedBtnClose@CDialogMsg@@QAEXXZ		; CDialogMsg::OnBnClickedBtnClose
PUBLIC	?OnBnClickedBtn1@CDialogMsg@@QAEXXZ		; CDialogMsg::OnBnClickedBtn1
PUBLIC	?OnBnClickedBtn2@CDialogMsg@@QAEXXZ		; CDialogMsg::OnBnClickedBtn2
PUBLIC	?OnBnClickedCheck@CDialogMsg@@QAEXXZ		; CDialogMsg::OnBnClickedCheck
PUBLIC	?OnBnClickedUnCheck@CDialogMsg@@QAEXXZ		; CDialogMsg::OnBnClickedUnCheck
PUBLIC	?OnPaint@CDialogMsg@@QAEXXZ			; CDialogMsg::OnPaint
PUBLIC	?OnLButtonDown@CDialogMsg@@QAEXIVCPoint@@@Z	; CDialogMsg::OnLButtonDown
EXTRN	?GetThisClass@CDialog@@SGPAUCRuntimeClass@@XZ:NEAR ; CDialog::GetThisClass
EXTRN	?GetThisMessageMap@CDialog@@KGPBUAFX_MSGMAP@@XZ:NEAR ; CDialog::GetThisMessageMap
CONST	SEGMENT
$SG187377 DB	'CDialogMsg', 00H
CONST	ENDS
;	COMDAT ?classCDialogMsg@CDialogMsg@@2UCRuntimeClass@@B
CONST	SEGMENT
?classCDialogMsg@CDialogMsg@@2UCRuntimeClass@@B DD FLAT:$SG187377 ; CDialogMsg::classCDialogMsg
	DD	068cH
	DD	0ffffH
	DD	00H
	DD	FLAT:?GetThisClass@CDialog@@SGPAUCRuntimeClass@@XZ
	DD	00H
	DD	00H
CONST	ENDS
CONST	SEGMENT
$SG187390 DB	00H
$SG187392 DB	0ccH, 0e1H, 0caH, 0beH, 00H
	ORG $+3
$SG187394 DB	0c8H, 0b7H, ' ', 0b6H, 0a8H, 00H
	ORG $+2
$SG187396 DB	0c8H, 0a1H, ' ', 0cfH, 0fbH, 00H
	ORG $+2
$SG187397 DB	0cbH, 0ceH, 0ccH, 0e5H, 00H
	ORG $+3
$SG187398 DB	0cbH, 0ceH, 0ccH, 0e5H, 00H
CONST	ENDS
;	COMDAT ?_messageEntries@CDialogMsg@@0QBUAFX_MSGMAP_ENTRY@@B
CONST	SEGMENT
?_messageEntries@CDialogMsg@@0QBUAFX_MSGMAP_ENTRY@@B DD 0111H ; CDialogMsg::_messageEntries
	DD	00H
	DD	0aH
	DD	0aH
	DD	035H
	DD	FLAT:?OnBnClickedBtnClose@CDialogMsg@@QAEXXZ
	DD	0111H
	DD	00H
	DD	014H
	DD	014H
	DD	035H
	DD	FLAT:?OnBnClickedBtn1@CDialogMsg@@QAEXXZ
	DD	0111H
	DD	00H
	DD	01eH
	DD	01eH
	DD	035H
	DD	FLAT:?OnBnClickedBtn2@CDialogMsg@@QAEXXZ
	DD	0111H
	DD	00H
	DD	028H
	DD	028H
	DD	035H
	DD	FLAT:?OnBnClickedCheck@CDialogMsg@@QAEXXZ
	DD	0111H
	DD	00H
	DD	032H
	DD	032H
	DD	035H
	DD	FLAT:?OnBnClickedUnCheck@CDialogMsg@@QAEXXZ
	DD	0111H
	DD	00H
	DD	01H
	DD	01H
	DD	035H
	DD	FLAT:??_9@$BBFE@AE
	DD	0111H
	DD	00H
	DD	02H
	DD	02H
	DD	035H
	DD	FLAT:??_9@$BBFI@AE
	DD	0fH
	DD	00H
	DD	00H
	DD	00H
	DD	010H
	DD	FLAT:?OnPaint@CDialogMsg@@QAEXXZ
	DD	0201H
	DD	00H
	DD	00H
	DD	00H
	DD	032H
	DD	FLAT:?OnLButtonDown@CDialogMsg@@QAEXIVCPoint@@@Z
	DD	00H
	DD	00H
	DD	00H
	DD	00H
	DD	00H
	DD	00H
CONST	ENDS
;	COMDAT ?messageMap@CDialogMsg@@1UAFX_MSGMAP@@B
CONST	SEGMENT
?messageMap@CDialogMsg@@1UAFX_MSGMAP@@B DD FLAT:?GetThisMessageMap@CDialog@@KGPBUAFX_MSGMAP@@XZ ; CDialogMsg::messageMap
	DD	FLAT:?_messageEntries@CDialogMsg@@0QBUAFX_MSGMAP_ENTRY@@B
CONST	ENDS
CONST	SEGMENT
	ORG $+3
$SG187512 DB	'MSGDialogLeftTop', 00H
	ORG $+3
$SG187514 DB	'MSGDialogRightTop', 00H
	ORG $+2
$SG187516 DB	'MSGDialogMidTop', 00H
$SG187518 DB	'MSGDialogMid', 00H
	ORG $+3
$SG187520 DB	'MSGDialogMidLeft', 00H
	ORG $+3
$SG187522 DB	'MSGDialogMidRight', 00H
	ORG $+2
$SG187524 DB	'MSGDialogLeftBottom', 00H
$SG187526 DB	'MSGDialogRightBottom', 00H
	ORG $+3
$SG187528 DB	'MSGDialogMidBottom', 00H
	ORG $+1
$SG187548 DB	0dH, 0aH, 00H
	ORG $+1
$SG187554 DB	0dH, 0aH, 00H
	ORG $+1
$SG187575 DB	'MSGDialogCloseOver', 00H
	ORG $+1
$SG187576 DB	'MSGDialogCloseDown', 00H
	ORG $+1
$SG187577 DB	'MSGDialogCloseNormal', 00H
	ORG $+3
$SG187583 DB	'MSGDialogBtn1Over', 00H
	ORG $+2
$SG187584 DB	'MSGDialogBtn1Down', 00H
	ORG $+2
$SG187585 DB	'MSGDialogBtn1Normal', 00H
$SG187593 DB	'MSGDialogBtn1Over', 00H
	ORG $+2
$SG187594 DB	'MSGDialogBtn1Down', 00H
	ORG $+2
$SG187595 DB	'MSGDialogBtn1Normal', 00H
$SG187596 DB	'MSGDialogBtn2Over', 00H
	ORG $+2
$SG187597 DB	'MSGDialogBtn2Down', 00H
	ORG $+2
$SG187598 DB	'MSGDialogBtn2Normal', 00H
$SG187602 DB	'msgminorexitboxchkOver', 00H
	ORG $+1
$SG187603 DB	'msgminorexitboxchkNormal', 00H
	ORG $+3
$SG187604 DB	'msgminorexitboxchkNormal', 00H
	ORG $+3
$SG187605 DB	'msgminorexitboxuchkOver', 00H
$SG187606 DB	'msgminorexitboxuchkNormal', 00H
	ORG $+2
$SG187607 DB	'msgminorexitboxuchkNormal', 00H
CONST	ENDS
;	COMDAT ?g_pfnGetThreadACP@ATL@@3P6GIXZA
_DATA	SEGMENT
?g_pfnGetThreadACP@ATL@@3P6GIXZA DD FLAT:?_AtlGetThreadACPThunk@ATL@@YGIXZ ; ATL::g_pfnGetThreadACP
_DATA	ENDS
PUBLIC	?GetThisClass@CDialogMsg@@SGPAUCRuntimeClass@@XZ ; CDialogMsg::GetThisClass
EXTRN	__RTC_InitBase:NEAR
EXTRN	__RTC_Shutdown:NEAR
;	COMDAT rtc$IMZ
; File d:\boxgit\playbox\playbox\dev\prj\playbox\src\gui\commoncontrol\dialogmsg.cpp
rtc$IMZ	SEGMENT
__RTC_InitBase.rtc$IMZ DD FLAT:__RTC_InitBase
rtc$IMZ	ENDS
;	COMDAT rtc$TMZ
rtc$TMZ	SEGMENT
__RTC_Shutdown.rtc$TMZ DD FLAT:__RTC_Shutdown
; Function compile flags: /Odt /RTCsu
rtc$TMZ	ENDS
_TEXT	SEGMENT
?GetThisClass@CDialogMsg@@SGPAUCRuntimeClass@@XZ PROC NEAR ; CDialogMsg::GetThisClass

; 15   : IMPLEMENT_DYNAMIC(CDialogMsg, CDialog)

  00000	55		 push	 ebp
  00001	8b ec		 mov	 ebp, esp
  00003	b8 00 00 00 00	 mov	 eax, OFFSET FLAT:?classCDialogMsg@CDialogMsg@@2UCRuntimeClass@@B ; CDialogMsg::classCDialogMsg
  00008	5d		 pop	 ebp
  00009	c3		 ret	 0
?GetThisClass@CDialogMsg@@SGPAUCRuntimeClass@@XZ ENDP	; CDialogMsg::GetThisClass
_TEXT	ENDS
PUBLIC	?GetRuntimeClass@CDialogMsg@@UBEPAUCRuntimeClass@@XZ ; CDialogMsg::GetRuntimeClass
; Function compile flags: /Odt /RTCsu
_TEXT	SEGMENT
_this$ = -4						; size = 4
?GetRuntimeClass@CDialogMsg@@UBEPAUCRuntimeClass@@XZ PROC NEAR ; CDialogMsg::GetRuntimeClass
; _this$ = ecx

; 15   : IMPLEMENT_DYNAMIC(CDialogMsg, CDialog)

  00010	55		 push	 ebp
  00011	8b ec		 mov	 ebp, esp
  00013	51		 push	 ecx
  00014	c7 45 fc cc cc
	cc cc		 mov	 DWORD PTR [ebp-4], -858993460 ; ccccccccH
  0001b	89 4d fc	 mov	 DWORD PTR _this$[ebp], ecx
  0001e	b8 00 00 00 00	 mov	 eax, OFFSET FLAT:?classCDialogMsg@CDialogMsg@@2UCRuntimeClass@@B ; CDialogMsg::classCDialogMsg
  00023	8b e5		 mov	 esp, ebp
  00025	5d		 pop	 ebp
  00026	c3		 ret	 0
?GetRuntimeClass@CDialogMsg@@UBEPAUCRuntimeClass@@XZ ENDP ; CDialogMsg::GetRuntimeClass
_TEXT	ENDS
PUBLIC	??_R1A@?0A@A@CDialog@@8				; CDialog::`RTTI Base Class Descriptor at (0,-1,0,0)'
PUBLIC	??_R0?AVCDialog@@@8				; CDialog `RTTI Type Descriptor'
PUBLIC	??_R1A@?0A@A@CWnd@@8				; CWnd::`RTTI Base Class Descriptor at (0,-1,0,0)'
PUBLIC	??_R0?AVCWnd@@@8				; CWnd `RTTI Type Descriptor'
PUBLIC	??_R1A@?0A@A@CCmdTarget@@8			; CCmdTarget::`RTTI Base Class Descriptor at (0,-1,0,0)'
PUBLIC	??_R0?AVCCmdTarget@@@8				; CCmdTarget `RTTI Type Descriptor'
PUBLIC	??_R1A@?0A@A@CObject@@8				; CObject::`RTTI Base Class Descriptor at (0,-1,0,0)'
PUBLIC	??_R0?AVCObject@@@8				; CObject `RTTI Type Descriptor'
PUBLIC	??_R4CDialogMsg@@6B@				; CDialogMsg::`RTTI Complete Object Locator'
PUBLIC	??_R0?AVCDialogMsg@@@8				; CDialogMsg `RTTI Type Descriptor'
PUBLIC	??_R3CDialogMsg@@8				; CDialogMsg::`RTTI Class Hierarchy Descriptor'
PUBLIC	??_R2CDialogMsg@@8				; CDialogMsg::`RTTI Base Class Array'
PUBLIC	??_R1A@?0A@A@CDialogMsg@@8			; CDialogMsg::`RTTI Base Class Descriptor at (0,-1,0,0)'
PUBLIC	??0CDialogMsg@@QAE@PAVCWnd@@@Z			; CDialogMsg::CDialogMsg
PUBLIC	?DoDataExchange@CDialogMsg@@MAEXPAVCDataExchange@@@Z ; CDialogMsg::DoDataExchange
PUBLIC	?GetMessageMap@CDialogMsg@@MBEPBUAFX_MSGMAP@@XZ	; CDialogMsg::GetMessageMap
PUBLIC	?SetTitle@CDialogMsg@@QAEXABV?$CStringT@DV?$StrTraitMFC_DLL@DV?$ChTraitsCRT@D@ATL@@@@@ATL@@@Z ; CDialogMsg::SetTitle
PUBLIC	?SetSize@CDialogMsg@@QAEXHH@Z			; CDialogMsg::SetSize
PUBLIC	?SetBtnCount@CDialogMsg@@QAEXH@Z		; CDialogMsg::SetBtnCount
PUBLIC	?SetBtnText@CDialogMsg@@QAEXHABV?$CStringT@DV?$StrTraitMFC_DLL@DV?$ChTraitsCRT@D@ATL@@@@@ATL@@@Z ; CDialogMsg::SetBtnText
PUBLIC	?OnClickBtn1@CDialogMsg@@UAEXXZ			; CDialogMsg::OnClickBtn1
PUBLIC	?OnClickBtn2@CDialogMsg@@UAEXXZ			; CDialogMsg::OnClickBtn2
PUBLIC	?OnClickClose@CDialogMsg@@UAEXXZ		; CDialogMsg::OnClickClose
PUBLIC	?CheckBox_Check@CDialogMsg@@UAEXXZ		; CDialogMsg::CheckBox_Check
PUBLIC	?PaintSomething@CDialogMsg@@UAEXPAVCDC@@@Z	; CDialogMsg::PaintSomething
PUBLIC	?CheckBox_Checked@CDialogMsg@@UAEXXZ		; CDialogMsg::CheckBox_Checked
PUBLIC	?CheckBox_UnChecked@CDialogMsg@@UAEXXZ		; CDialogMsg::CheckBox_UnChecked
PUBLIC	?OnOK@CDialogMsg@@MAEXXZ			; CDialogMsg::OnOK
PUBLIC	?OnCancel@CDialogMsg@@MAEXXZ			; CDialogMsg::OnCancel
PUBLIC	?OnInitDialog@CDialogMsg@@UAEHXZ		; CDialogMsg::OnInitDialog
PUBLIC	??_7CDialogMsg@@6B@				; CDialogMsg::`vftable'
PUBLIC	??_GCDialogMsg@@UAEPAXI@Z			; CDialogMsg::`scalar deleting destructor'
EXTRN	?GetInterfaceMap@CWnd@@MBEPBUAFX_INTERFACEMAP@@XZ:NEAR ; CWnd::GetInterfaceMap
EXTRN	?EnsureStdObj@CWnd@@UAEJXZ:NEAR			; CWnd::EnsureStdObj
EXTRN	?get_accParent@CWnd@@UAEJPAPAUIDispatch@@@Z:NEAR ; CWnd::get_accParent
EXTRN	?get_accChildCount@CWnd@@UAEJPAJ@Z:NEAR		; CWnd::get_accChildCount
EXTRN	?IsInvokeAllowed@CCmdTarget@@UAEHJ@Z:NEAR	; CCmdTarget::IsInvokeAllowed
EXTRN	?get_accChild@CWnd@@UAEJUtagVARIANT@@PAPAUIDispatch@@@Z:NEAR ; CWnd::get_accChild
EXTRN	?get_accName@CWnd@@UAEJUtagVARIANT@@PAPA_W@Z:NEAR ; CWnd::get_accName
EXTRN	?get_accValue@CWnd@@UAEJUtagVARIANT@@PAPA_W@Z:NEAR ; CWnd::get_accValue
EXTRN	?GetDispatchIID@CCmdTarget@@UAEHPAU_GUID@@@Z:NEAR ; CCmdTarget::GetDispatchIID
EXTRN	?GetTypeInfoCount@CCmdTarget@@UAEIXZ:NEAR	; CCmdTarget::GetTypeInfoCount
EXTRN	?GetTypeLibCache@CCmdTarget@@UAEPAVCTypeLibCache@@XZ:NEAR ; CCmdTarget::GetTypeLibCache
EXTRN	?get_accDescription@CWnd@@UAEJUtagVARIANT@@PAPA_W@Z:NEAR ; CWnd::get_accDescription
EXTRN	?GetTypeLib@CCmdTarget@@UAEJKPAPAUITypeLib@@@Z:NEAR ; CCmdTarget::GetTypeLib
EXTRN	?get_accRole@CWnd@@UAEJUtagVARIANT@@PAU2@@Z:NEAR ; CWnd::get_accRole
EXTRN	?get_accState@CWnd@@UAEJUtagVARIANT@@PAU2@@Z:NEAR ; CWnd::get_accState
EXTRN	?get_accHelp@CWnd@@UAEJUtagVARIANT@@PAPA_W@Z:NEAR ; CWnd::get_accHelp
EXTRN	?get_accHelpTopic@CWnd@@UAEJPAPA_WUtagVARIANT@@PAJ@Z:NEAR ; CWnd::get_accHelpTopic
EXTRN	?get_accKeyboardShortcut@CWnd@@UAEJUtagVARIANT@@PAPA_W@Z:NEAR ; CWnd::get_accKeyboardShortcut
EXTRN	?get_accFocus@CWnd@@UAEJPAUtagVARIANT@@@Z:NEAR	; CWnd::get_accFocus
EXTRN	?get_accSelection@CWnd@@UAEJPAUtagVARIANT@@@Z:NEAR ; CWnd::get_accSelection
EXTRN	?get_accDefaultAction@CWnd@@UAEJUtagVARIANT@@PAPA_W@Z:NEAR ; CWnd::get_accDefaultAction
EXTRN	?GetCommandMap@CCmdTarget@@MBEPBUAFX_OLECMDMAP@@XZ:NEAR ; CCmdTarget::GetCommandMap
EXTRN	?accSelect@CWnd@@UAEJJUtagVARIANT@@@Z:NEAR	; CWnd::accSelect
EXTRN	?accLocation@CWnd@@UAEJPAJ000UtagVARIANT@@@Z:NEAR ; CWnd::accLocation
EXTRN	?GetDispatchMap@CCmdTarget@@MBEPBUAFX_DISPMAP@@XZ:NEAR ; CCmdTarget::GetDispatchMap
EXTRN	?accNavigate@CWnd@@UAEJJUtagVARIANT@@PAU2@@Z:NEAR ; CWnd::accNavigate
EXTRN	?accHitTest@CWnd@@UAEJJJPAUtagVARIANT@@@Z:NEAR	; CWnd::accHitTest
EXTRN	?GetConnectionMap@CCmdTarget@@MBEPBUAFX_CONNECTIONMAP@@XZ:NEAR ; CCmdTarget::GetConnectionMap
EXTRN	?accDoDefaultAction@CWnd@@UAEJUtagVARIANT@@@Z:NEAR ; CWnd::accDoDefaultAction
EXTRN	?put_accName@CWnd@@UAEJUtagVARIANT@@PA_W@Z:NEAR	; CWnd::put_accName
EXTRN	?put_accValue@CWnd@@UAEJUtagVARIANT@@PA_W@Z:NEAR ; CWnd::put_accValue
EXTRN	?SetProxy@CWnd@@UAEJPAUIAccessibleProxy@@@Z:NEAR ; CWnd::SetProxy
EXTRN	?CreateAccessibleProxy@CWnd@@UAEJIJPAJ@Z:NEAR	; CWnd::CreateAccessibleProxy
EXTRN	?GetEventSinkMap@CCmdTarget@@MBEPBUAFX_EVENTSINKMAP@@XZ:NEAR ; CCmdTarget::GetEventSinkMap
EXTRN	?OnCreateAggregates@CCmdTarget@@UAEHXZ:NEAR	; CCmdTarget::OnCreateAggregates
EXTRN	?OnCommand@CWnd@@MAEHIJ@Z:NEAR			; CWnd::OnCommand
EXTRN	?GetInterfaceHook@CCmdTarget@@UAEPAUIUnknown@@PBX@Z:NEAR ; CCmdTarget::GetInterfaceHook
EXTRN	?OnNotify@CWnd@@MAEHIJPAJ@Z:NEAR		; CWnd::OnNotify
EXTRN	?GetExtraConnectionPoints@CCmdTarget@@MAEHPAVCPtrArray@@@Z:NEAR ; CCmdTarget::GetExtraConnectionPoints
EXTRN	?GetConnectionHook@CCmdTarget@@MAEPAUIConnectionPoint@@ABU_GUID@@@Z:NEAR ; CCmdTarget::GetConnectionHook
EXTRN	??0CFont@@QAE@XZ:NEAR				; CFont::CFont
EXTRN	?CreateFontA@CFont@@QAEHHHHHHEEEEEEEEPBD@Z:NEAR	; CFont::CreateFontA
EXTRN	??1CFont@@UAE@XZ:NEAR				; CFont::~CFont
EXTRN	??0CRect@@QAE@XZ:NEAR				; CRect::CRect
EXTRN	?PreSubclassWindow@CWnd@@UAEXXZ:NEAR		; CWnd::PreSubclassWindow
EXTRN	?Create@CWnd@@UAEHPBD0KABUtagRECT@@PAV1@IPAUCCreateContext@@@Z:NEAR ; CWnd::Create
EXTRN	?CreateEx@CWnd@@UAEHKPBD0KHHHHPAUHWND__@@PAUHMENU__@@PAX@Z:NEAR ; CWnd::CreateEx
EXTRN	?CreateEx@CWnd@@UAEHKPBD0KABUtagRECT@@PAV1@IPAX@Z:NEAR ; CWnd::CreateEx
EXTRN	?Serialize@CObject@@UAEXAAVCArchive@@@Z:NEAR	; CObject::Serialize
EXTRN	?DestroyWindow@CWnd@@UAEHXZ:NEAR		; CWnd::DestroyWindow
EXTRN	?PreCreateWindow@CWnd@@UAEHAAUtagCREATESTRUCTA@@@Z:NEAR ; CWnd::PreCreateWindow
EXTRN	?CalcWindowRect@CWnd@@UAEXPAUtagRECT@@I@Z:NEAR	; CWnd::CalcWindowRect
EXTRN	?GetSuperWndProcAddr@CWnd@@MAEPAP6GJPAUHWND__@@IIJ@ZXZ:NEAR ; CWnd::GetSuperWndProcAddr
EXTRN	?BeginModalState@CWnd@@UAEXXZ:NEAR		; CWnd::BeginModalState
EXTRN	?EndModalState@CWnd@@UAEXXZ:NEAR		; CWnd::EndModalState
EXTRN	?OnAmbientProperty@CWnd@@UAEHPAVCOleControlSite@@JPAUtagVARIANT@@@Z:NEAR ; CWnd::OnAmbientProperty
EXTRN	?WindowProc@CWnd@@MAEJIIJ@Z:NEAR		; CWnd::WindowProc
EXTRN	?OnWndMsg@CWnd@@MAEHIIJPAJ@Z:NEAR		; CWnd::OnWndMsg
EXTRN	?DefWindowProcA@CWnd@@MAEJIIJ@Z:NEAR		; CWnd::DefWindowProcA
EXTRN	?PostNcDestroy@CWnd@@MAEXXZ:NEAR		; CWnd::PostNcDestroy
EXTRN	?OnChildNotify@CWnd@@MAEHIIJPAJ@Z:NEAR		; CWnd::OnChildNotify
EXTRN	?IsFrameWnd@CWnd@@UBEHXZ:NEAR			; CWnd::IsFrameWnd
EXTRN	?OnFinalRelease@CWnd@@UAEXXZ:NEAR		; CWnd::OnFinalRelease
EXTRN	?CreateControlContainer@CWnd@@MAEHPAPAVCOleControlContainer@@@Z:NEAR ; CWnd::CreateControlContainer
EXTRN	?CreateControlSite@CWnd@@MAEHPAVCOleControlContainer@@PAPAVCOleControlSite@@IABU_GUID@@@Z:NEAR ; CWnd::CreateControlSite
EXTRN	??0CxSkinButton@@QAE@XZ:NEAR			; CxSkinButton::CxSkinButton
EXTRN	?Create@CDialog@@UAEHPBDPAVCWnd@@@Z:NEAR	; CDialog::Create
EXTRN	__imp_??0?$CStringT@DV?$StrTraitMFC_DLL@DV?$ChTraitsCRT@D@ATL@@@@@ATL@@QAE@XZ:NEAR
EXTRN	?Create@CDialog@@UAEHIPAVCWnd@@@Z:NEAR		; CDialog::Create
EXTRN	?CreateIndirect@CDialog@@UAEHPBUDLGTEMPLATE@@PAVCWnd@@PAX@Z:NEAR ; CDialog::CreateIndirect
EXTRN	?CreateIndirect@CDialog@@UAEHPAXPAVCWnd@@@Z:NEAR ; CDialog::CreateIndirect
EXTRN	?OnToolHitTest@CWnd@@UBEHVCPoint@@PAUtagTOOLINFOA@@@Z:NEAR ; CWnd::OnToolHitTest
EXTRN	??0CDialog@@QAE@IPAVCWnd@@@Z:NEAR		; CDialog::CDialog
EXTRN	??1CxSkinButton@@UAE@XZ:NEAR			; CxSkinButton::~CxSkinButton
EXTRN	__imp_??0?$CStringT@DV?$StrTraitMFC_DLL@DV?$ChTraitsCRT@D@ATL@@@@@ATL@@QAE@PBD@Z:NEAR
EXTRN	?DoModal@CDialog@@UAEHXZ:NEAR			; CDialog::DoModal
EXTRN	?OnSetFont@CDialog@@UAEXPAVCFont@@@Z:NEAR	; CDialog::OnSetFont
EXTRN	??1CDialog@@UAE@XZ:NEAR				; CDialog::~CDialog
EXTRN	?AssertValid@CDialog@@UBEXXZ:NEAR		; CDialog::AssertValid
EXTRN	?Dump@CDialog@@UBEXAAVCDumpContext@@@Z:NEAR	; CDialog::Dump
EXTRN	?PreTranslateMessage@CDialog@@UAEHPAUtagMSG@@@Z:NEAR ; CDialog::PreTranslateMessage
EXTRN	__imp_??1?$CStringT@DV?$StrTraitMFC_DLL@DV?$ChTraitsCRT@D@ATL@@@@@ATL@@QAE@XZ:NEAR
EXTRN	?OnCmdMsg@CDialog@@UAEHIHPAXPAUAFX_CMDHANDLERINFO@@@Z:NEAR ; CDialog::OnCmdMsg
EXTRN	?CheckAutoCenter@CDialog@@UAEHXZ:NEAR		; CDialog::CheckAutoCenter
EXTRN	__imp_??4?$CStringT@DV?$StrTraitMFC_DLL@DV?$ChTraitsCRT@D@ATL@@@@@ATL@@QAEAAV01@PBD@Z:NEAR
EXTRN	?SetOccDialogInfo@CDialog@@MAEHPAU_AFX_OCC_DIALOG_INFO@@@Z:NEAR ; CDialog::SetOccDialogInfo
EXTRN	?PreInitDialog@CDialog@@MAEXXZ:NEAR		; CDialog::PreInitDialog
EXTRN	__RTC_CheckEsp:NEAR
EXTRN	__except_list:DWORD
EXTRN	___CxxFrameHandler:NEAR
EXTRN	?GetScrollBarCtrl@CWnd@@UBEPAVCScrollBar@@H@Z:NEAR ; CWnd::GetScrollBarCtrl
EXTRN	??_ECDialogMsg@@UAEPAXI@Z:NEAR			; CDialogMsg::`vector deleting destructor'
EXTRN	?WinHelpA@CWnd@@UAEXKI@Z:NEAR			; CWnd::WinHelpA
EXTRN	?HtmlHelpA@CWnd@@UAEXKI@Z:NEAR			; CWnd::HtmlHelpA
EXTRN	??_7type_info@@6B@:QWORD			; type_info::`vftable'
EXTRN	?WinHelpInternal@CWnd@@UAEXKI@Z:NEAR		; CWnd::WinHelpInternal
EXTRN	?ContinueModal@CWnd@@UAEHXZ:NEAR		; CWnd::ContinueModal
EXTRN	?EndModalLoop@CWnd@@UAEXH@Z:NEAR		; CWnd::EndModalLoop
xdata$x	SEGMENT
$T188259 DD	0ffffffffH
	DD	FLAT:$L188236
	DD	00H
	DD	FLAT:$L188237
	DD	01H
	DD	FLAT:$L188238
	DD	02H
	DD	FLAT:$L188239
	DD	03H
	DD	FLAT:$L188240
	DD	04H
	DD	FLAT:$L188241
	DD	05H
	DD	FLAT:$L188242
	DD	06H
	DD	FLAT:$L188243
	DD	07H
	DD	FLAT:$L188244
	DD	08H
	DD	FLAT:$L188245
	DD	09H
	DD	FLAT:$L188246
	DD	0aH
	DD	FLAT:$L188247
	DD	0bH
	DD	FLAT:$L188248
	DD	0cH
	DD	FLAT:$L188249
	DD	0cH
	DD	FLAT:$L188250
	DD	0cH
	DD	FLAT:$L188251
$T188255 DD	019930520H
	DD	010H
	DD	FLAT:$T188259
	DD	2 DUP(00H)
	DD	2 DUP(00H)
xdata$x	ENDS
;	COMDAT ??_7CDialogMsg@@6B@
CONST	SEGMENT
??_7CDialogMsg@@6B@ DD FLAT:??_R4CDialogMsg@@6B@	; CDialogMsg::`vftable'
	DD	FLAT:?GetRuntimeClass@CDialogMsg@@UBEPAUCRuntimeClass@@XZ
	DD	FLAT:??_ECDialogMsg@@UAEPAXI@Z
	DD	FLAT:?Serialize@CObject@@UAEXAAVCArchive@@@Z
	DD	FLAT:?AssertValid@CDialog@@UBEXXZ
	DD	FLAT:?Dump@CDialog@@UBEXAAVCDumpContext@@@Z
	DD	FLAT:?OnCmdMsg@CDialog@@UAEHIHPAXPAUAFX_CMDHANDLERINFO@@@Z
	DD	FLAT:?OnFinalRelease@CWnd@@UAEXXZ
	DD	FLAT:?IsInvokeAllowed@CCmdTarget@@UAEHJ@Z
	DD	FLAT:?GetDispatchIID@CCmdTarget@@UAEHPAU_GUID@@@Z
	DD	FLAT:?GetTypeInfoCount@CCmdTarget@@UAEIXZ
	DD	FLAT:?GetTypeLibCache@CCmdTarget@@UAEPAVCTypeLibCache@@XZ
	DD	FLAT:?GetTypeLib@CCmdTarget@@UAEJKPAPAUITypeLib@@@Z
	DD	FLAT:?GetMessageMap@CDialogMsg@@MBEPBUAFX_MSGMAP@@XZ
	DD	FLAT:?GetCommandMap@CCmdTarget@@MBEPBUAFX_OLECMDMAP@@XZ
	DD	FLAT:?GetDispatchMap@CCmdTarget@@MBEPBUAFX_DISPMAP@@XZ
	DD	FLAT:?GetConnectionMap@CCmdTarget@@MBEPBUAFX_CONNECTIONMAP@@XZ
	DD	FLAT:?GetInterfaceMap@CWnd@@MBEPBUAFX_INTERFACEMAP@@XZ
	DD	FLAT:?GetEventSinkMap@CCmdTarget@@MBEPBUAFX_EVENTSINKMAP@@XZ
	DD	FLAT:?OnCreateAggregates@CCmdTarget@@UAEHXZ
	DD	FLAT:?GetInterfaceHook@CCmdTarget@@UAEPAUIUnknown@@PBX@Z
	DD	FLAT:?GetExtraConnectionPoints@CCmdTarget@@MAEHPAVCPtrArray@@@Z
	DD	FLAT:?GetConnectionHook@CCmdTarget@@MAEPAUIConnectionPoint@@ABU_GUID@@@Z
	DD	FLAT:?PreSubclassWindow@CWnd@@UAEXXZ
	DD	FLAT:?Create@CWnd@@UAEHPBD0KABUtagRECT@@PAV1@IPAUCCreateContext@@@Z
	DD	FLAT:?CreateEx@CWnd@@UAEHKPBD0KABUtagRECT@@PAV1@IPAX@Z
	DD	FLAT:?CreateEx@CWnd@@UAEHKPBD0KHHHHPAUHWND__@@PAUHMENU__@@PAX@Z
	DD	FLAT:?DestroyWindow@CWnd@@UAEHXZ
	DD	FLAT:?PreCreateWindow@CWnd@@UAEHAAUtagCREATESTRUCTA@@@Z
	DD	FLAT:?CalcWindowRect@CWnd@@UAEXPAUtagRECT@@I@Z
	DD	FLAT:?OnToolHitTest@CWnd@@UBEHVCPoint@@PAUtagTOOLINFOA@@@Z
	DD	FLAT:?GetScrollBarCtrl@CWnd@@UBEPAVCScrollBar@@H@Z
	DD	FLAT:?WinHelpA@CWnd@@UAEXKI@Z
	DD	FLAT:?HtmlHelpA@CWnd@@UAEXKI@Z
	DD	FLAT:?WinHelpInternal@CWnd@@UAEXKI@Z
	DD	FLAT:?ContinueModal@CWnd@@UAEHXZ
	DD	FLAT:?EndModalLoop@CWnd@@UAEXH@Z
	DD	FLAT:?EnsureStdObj@CWnd@@UAEJXZ
	DD	FLAT:?get_accParent@CWnd@@UAEJPAPAUIDispatch@@@Z
	DD	FLAT:?get_accChildCount@CWnd@@UAEJPAJ@Z
	DD	FLAT:?get_accChild@CWnd@@UAEJUtagVARIANT@@PAPAUIDispatch@@@Z
	DD	FLAT:?get_accName@CWnd@@UAEJUtagVARIANT@@PAPA_W@Z
	DD	FLAT:?get_accValue@CWnd@@UAEJUtagVARIANT@@PAPA_W@Z
	DD	FLAT:?get_accDescription@CWnd@@UAEJUtagVARIANT@@PAPA_W@Z
	DD	FLAT:?get_accRole@CWnd@@UAEJUtagVARIANT@@PAU2@@Z
	DD	FLAT:?get_accState@CWnd@@UAEJUtagVARIANT@@PAU2@@Z
	DD	FLAT:?get_accHelp@CWnd@@UAEJUtagVARIANT@@PAPA_W@Z
	DD	FLAT:?get_accHelpTopic@CWnd@@UAEJPAPA_WUtagVARIANT@@PAJ@Z
	DD	FLAT:?get_accKeyboardShortcut@CWnd@@UAEJUtagVARIANT@@PAPA_W@Z
	DD	FLAT:?get_accFocus@CWnd@@UAEJPAUtagVARIANT@@@Z
	DD	FLAT:?get_accSelection@CWnd@@UAEJPAUtagVARIANT@@@Z
	DD	FLAT:?get_accDefaultAction@CWnd@@UAEJUtagVARIANT@@PAPA_W@Z
	DD	FLAT:?accSelect@CWnd@@UAEJJUtagVARIANT@@@Z
	DD	FLAT:?accLocation@CWnd@@UAEJPAJ000UtagVARIANT@@@Z
	DD	FLAT:?accNavigate@CWnd@@UAEJJUtagVARIANT@@PAU2@@Z
	DD	FLAT:?accHitTest@CWnd@@UAEJJJPAUtagVARIANT@@@Z
	DD	FLAT:?accDoDefaultAction@CWnd@@UAEJUtagVARIANT@@@Z
	DD	FLAT:?put_accName@CWnd@@UAEJUtagVARIANT@@PA_W@Z
	DD	FLAT:?put_accValue@CWnd@@UAEJUtagVARIANT@@PA_W@Z
	DD	FLAT:?SetProxy@CWnd@@UAEJPAUIAccessibleProxy@@@Z
	DD	FLAT:?CreateAccessibleProxy@CWnd@@UAEJIJPAJ@Z
	DD	FLAT:?OnCommand@CWnd@@MAEHIJ@Z
	DD	FLAT:?OnNotify@CWnd@@MAEHIJPAJ@Z
	DD	FLAT:?GetSuperWndProcAddr@CWnd@@MAEPAP6GJPAUHWND__@@IIJ@ZXZ
	DD	FLAT:?DoDataExchange@CDialogMsg@@MAEXPAVCDataExchange@@@Z
	DD	FLAT:?BeginModalState@CWnd@@UAEXXZ
	DD	FLAT:?EndModalState@CWnd@@UAEXXZ
	DD	FLAT:?PreTranslateMessage@CDialog@@UAEHPAUtagMSG@@@Z
	DD	FLAT:?OnAmbientProperty@CWnd@@UAEHPAVCOleControlSite@@JPAUtagVARIANT@@@Z
	DD	FLAT:?WindowProc@CWnd@@MAEJIIJ@Z
	DD	FLAT:?OnWndMsg@CWnd@@MAEHIIJPAJ@Z
	DD	FLAT:?DefWindowProcA@CWnd@@MAEJIIJ@Z
	DD	FLAT:?PostNcDestroy@CWnd@@MAEXXZ
	DD	FLAT:?OnChildNotify@CWnd@@MAEHIIJPAJ@Z
	DD	FLAT:?CheckAutoCenter@CDialog@@UAEHXZ
	DD	FLAT:?IsFrameWnd@CWnd@@UBEHXZ
	DD	FLAT:?CreateControlContainer@CWnd@@MAEHPAPAVCOleControlContainer@@@Z
	DD	FLAT:?CreateControlSite@CWnd@@MAEHPAVCOleControlContainer@@PAPAVCOleControlSite@@IABU_GUID@@@Z
	DD	FLAT:?SetOccDialogInfo@CDialog@@MAEHPAU_AFX_OCC_DIALOG_INFO@@@Z
	DD	FLAT:?Create@CDialog@@UAEHIPAVCWnd@@@Z
	DD	FLAT:?Create@CDialog@@UAEHPBDPAVCWnd@@@Z
	DD	FLAT:?CreateIndirect@CDialog@@UAEHPAXPAVCWnd@@@Z
	DD	FLAT:?CreateIndirect@CDialog@@UAEHPBUDLGTEMPLATE@@PAVCWnd@@PAX@Z
	DD	FLAT:?DoModal@CDialog@@UAEHXZ
	DD	FLAT:?OnInitDialog@CDialogMsg@@UAEHXZ
	DD	FLAT:?OnSetFont@CDialog@@UAEXPAVCFont@@@Z
	DD	FLAT:?OnOK@CDialogMsg@@MAEXXZ
	DD	FLAT:?OnCancel@CDialogMsg@@MAEXXZ
	DD	FLAT:?PreInitDialog@CDialog@@MAEXXZ
	DD	FLAT:?OnClickBtn1@CDialogMsg@@UAEXXZ
	DD	FLAT:?OnClickBtn2@CDialogMsg@@UAEXXZ
	DD	FLAT:?OnClickClose@CDialogMsg@@UAEXXZ
	DD	FLAT:?CheckBox_Check@CDialogMsg@@UAEXXZ
	DD	FLAT:?PaintSomething@CDialogMsg@@UAEXPAVCDC@@@Z
	DD	FLAT:?CheckBox_Checked@CDialogMsg@@UAEXXZ
	DD	FLAT:?CheckBox_UnChecked@CDialogMsg@@UAEXXZ
CONST	ENDS
;	COMDAT ??_R4CDialogMsg@@6B@
rdata$r	SEGMENT
??_R4CDialogMsg@@6B@ DD 00H				; CDialogMsg::`RTTI Complete Object Locator'
	DD	00H
	DD	00H
	DD	FLAT:??_R0?AVCDialogMsg@@@8
	DD	FLAT:??_R3CDialogMsg@@8
rdata$r	ENDS
;	COMDAT ??_R0?AVCDialogMsg@@@8
_DATA	SEGMENT
??_R0?AVCDialogMsg@@@8 DD FLAT:??_7type_info@@6B@	; CDialogMsg `RTTI Type Descriptor'
	DD	00H
	DB	'.?AVCDialogMsg@@', 00H
_DATA	ENDS
;	COMDAT ??_R3CDialogMsg@@8
rdata$r	SEGMENT
??_R3CDialogMsg@@8 DD 00H				; CDialogMsg::`RTTI Class Hierarchy Descriptor'
	DD	00H
	DD	05H
	DD	FLAT:??_R2CDialogMsg@@8
rdata$r	ENDS
;	COMDAT ??_R2CDialogMsg@@8
rdata$r	SEGMENT
??_R2CDialogMsg@@8 DD FLAT:??_R1A@?0A@A@CDialogMsg@@8	; CDialogMsg::`RTTI Base Class Array'
	DD	FLAT:??_R1A@?0A@A@CDialog@@8
	DD	FLAT:??_R1A@?0A@A@CWnd@@8
	DD	FLAT:??_R1A@?0A@A@CCmdTarget@@8
	DD	FLAT:??_R1A@?0A@A@CObject@@8
rdata$r	ENDS
;	COMDAT ??_R1A@?0A@A@CDialogMsg@@8
rdata$r	SEGMENT
??_R1A@?0A@A@CDialogMsg@@8 DD FLAT:??_R0?AVCDialogMsg@@@8 ; CDialogMsg::`RTTI Base Class Descriptor at (0,-1,0,0)'
	DD	04H
	DD	00H
	DD	0ffffffffH
	DD	00H
	DD	00H
rdata$r	ENDS
;	COMDAT ??_R1A@?0A@A@CDialog@@8
rdata$r	SEGMENT
??_R1A@?0A@A@CDialog@@8 DD FLAT:??_R0?AVCDialog@@@8	; CDialog::`RTTI Base Class Descriptor at (0,-1,0,0)'
	DD	03H
	DD	00H
	DD	0ffffffffH
	DD	00H
	DD	00H
rdata$r	ENDS
;	COMDAT ??_R0?AVCDialog@@@8
_DATA	SEGMENT
??_R0?AVCDialog@@@8 DD FLAT:??_7type_info@@6B@		; CDialog `RTTI Type Descriptor'
	DD	00H
	DB	'.?AVCDialog@@', 00H
_DATA	ENDS
;	COMDAT ??_R1A@?0A@A@CWnd@@8
rdata$r	SEGMENT
??_R1A@?0A@A@CWnd@@8 DD FLAT:??_R0?AVCWnd@@@8		; CWnd::`RTTI Base Class Descriptor at (0,-1,0,0)'
	DD	02H
	DD	00H
	DD	0ffffffffH
	DD	00H
	DD	00H
rdata$r	ENDS
;	COMDAT ??_R0?AVCWnd@@@8
_DATA	SEGMENT
??_R0?AVCWnd@@@8 DD FLAT:??_7type_info@@6B@		; CWnd `RTTI Type Descriptor'
	DD	00H
	DB	'.?AVCWnd@@', 00H
_DATA	ENDS
;	COMDAT ??_R1A@?0A@A@CCmdTarget@@8
rdata$r	SEGMENT
??_R1A@?0A@A@CCmdTarget@@8 DD FLAT:??_R0?AVCCmdTarget@@@8 ; CCmdTarget::`RTTI Base Class Descriptor at (0,-1,0,0)'
	DD	01H
	DD	00H
	DD	0ffffffffH
	DD	00H
	DD	00H
rdata$r	ENDS
;	COMDAT ??_R0?AVCCmdTarget@@@8
_DATA	SEGMENT
??_R0?AVCCmdTarget@@@8 DD FLAT:??_7type_info@@6B@	; CCmdTarget `RTTI Type Descriptor'
	DD	00H
	DB	'.?AVCCmdTarget@@', 00H
_DATA	ENDS
;	COMDAT ??_R1A@?0A@A@CObject@@8
rdata$r	SEGMENT
??_R1A@?0A@A@CObject@@8 DD FLAT:??_R0?AVCObject@@@8	; CObject::`RTTI Base Class Descriptor at (0,-1,0,0)'
	DD	00H
	DD	00H
	DD	0ffffffffH
	DD	00H
	DD	00H
rdata$r	ENDS
;	COMDAT ??_R0?AVCObject@@@8
_DATA	SEGMENT
??_R0?AVCObject@@@8 DD FLAT:??_7type_info@@6B@		; CObject `RTTI Type Descriptor'
	DD	00H
	DB	'.?AVCObject@@', 00H
; Function compile flags: /Odt /RTCsu
_DATA	ENDS
_TEXT	SEGMENT
$T188235 = -28						; size = 4
$T188234 = -24						; size = 4
$T188233 = -20						; size = 4
_this$ = -16						; size = 4
__$EHRec$ = -12						; size = 12
_pParent$ = 8						; size = 4
??0CDialogMsg@@QAE@PAVCWnd@@@Z PROC NEAR		; CDialogMsg::CDialogMsg
; _this$ = ecx

; 18   : {

  00030	55		 push	 ebp
  00031	8b ec		 mov	 ebp, esp
  00033	6a ff		 push	 -1
  00035	68 00 00 00 00	 push	 __ehhandler$??0CDialogMsg@@QAE@PAVCWnd@@@Z
  0003a	64 a1 00 00 00
	00		 mov	 eax, DWORD PTR fs:__except_list
  00040	50		 push	 eax
  00041	64 89 25 00 00
	00 00		 mov	 DWORD PTR fs:__except_list, esp
  00048	83 ec 10	 sub	 esp, 16			; 00000010H
  0004b	56		 push	 esi
  0004c	b8 cc cc cc cc	 mov	 eax, -858993460		; ccccccccH
  00051	89 45 e4	 mov	 DWORD PTR [ebp-28], eax
  00054	89 45 e8	 mov	 DWORD PTR [ebp-24], eax
  00057	89 45 ec	 mov	 DWORD PTR [ebp-20], eax
  0005a	89 45 f0	 mov	 DWORD PTR [ebp-16], eax
  0005d	89 4d f0	 mov	 DWORD PTR _this$[ebp], ecx
  00060	8b 45 08	 mov	 eax, DWORD PTR _pParent$[ebp]
  00063	50		 push	 eax
  00064	6a 6c		 push	 108			; 0000006cH
  00066	8b 4d f0	 mov	 ecx, DWORD PTR _this$[ebp]
  00069	e8 00 00 00 00	 call	 ??0CDialog@@QAE@IPAVCWnd@@@Z ; CDialog::CDialog
  0006e	c7 45 fc 00 00
	00 00		 mov	 DWORD PTR __$EHRec$[ebp+8], 0
  00075	8b 4d f0	 mov	 ecx, DWORD PTR _this$[ebp]
  00078	c7 01 00 00 00
	00		 mov	 DWORD PTR [ecx], OFFSET FLAT:??_7CDialogMsg@@6B@
  0007e	8b 4d f0	 mov	 ecx, DWORD PTR _this$[ebp]
  00081	83 c1 74	 add	 ecx, 116		; 00000074H
  00084	8b f4		 mov	 esi, esp
  00086	ff 15 00 00 00
	00		 call	 DWORD PTR __imp_??0?$CStringT@DV?$StrTraitMFC_DLL@DV?$ChTraitsCRT@D@ATL@@@@@ATL@@QAE@XZ
  0008c	3b f4		 cmp	 esi, esp
  0008e	e8 00 00 00 00	 call	 __RTC_CheckEsp
  00093	c6 45 fc 01	 mov	 BYTE PTR __$EHRec$[ebp+8], 1
  00097	8b 4d f0	 mov	 ecx, DWORD PTR _this$[ebp]
  0009a	81 c1 84 00 00
	00		 add	 ecx, 132		; 00000084H
  000a0	8b f4		 mov	 esi, esp
  000a2	ff 15 00 00 00
	00		 call	 DWORD PTR __imp_??0?$CStringT@DV?$StrTraitMFC_DLL@DV?$ChTraitsCRT@D@ATL@@@@@ATL@@QAE@XZ
  000a8	3b f4		 cmp	 esi, esp
  000aa	e8 00 00 00 00	 call	 __RTC_CheckEsp
  000af	c6 45 fc 02	 mov	 BYTE PTR __$EHRec$[ebp+8], 2
  000b3	8b 4d f0	 mov	 ecx, DWORD PTR _this$[ebp]
  000b6	81 c1 88 00 00
	00		 add	 ecx, 136		; 00000088H
  000bc	8b f4		 mov	 esi, esp
  000be	ff 15 00 00 00
	00		 call	 DWORD PTR __imp_??0?$CStringT@DV?$StrTraitMFC_DLL@DV?$ChTraitsCRT@D@ATL@@@@@ATL@@QAE@XZ
  000c4	3b f4		 cmp	 esi, esp
  000c6	e8 00 00 00 00	 call	 __RTC_CheckEsp
  000cb	c6 45 fc 03	 mov	 BYTE PTR __$EHRec$[ebp+8], 3
  000cf	8b 4d f0	 mov	 ecx, DWORD PTR _this$[ebp]
  000d2	81 c1 8c 00 00
	00		 add	 ecx, 140		; 0000008cH
  000d8	8b f4		 mov	 esi, esp
  000da	ff 15 00 00 00
	00		 call	 DWORD PTR __imp_??0?$CStringT@DV?$StrTraitMFC_DLL@DV?$ChTraitsCRT@D@ATL@@@@@ATL@@QAE@XZ
  000e0	3b f4		 cmp	 esi, esp
  000e2	e8 00 00 00 00	 call	 __RTC_CheckEsp
  000e7	c6 45 fc 04	 mov	 BYTE PTR __$EHRec$[ebp+8], 4
  000eb	8b 4d f0	 mov	 ecx, DWORD PTR _this$[ebp]
  000ee	81 c1 90 00 00
	00		 add	 ecx, 144		; 00000090H
  000f4	e8 00 00 00 00	 call	 ??0CRect@@QAE@XZ	; CRect::CRect
  000f9	8b 4d f0	 mov	 ecx, DWORD PTR _this$[ebp]
  000fc	81 c1 a0 00 00
	00		 add	 ecx, 160		; 000000a0H
  00102	e8 00 00 00 00	 call	 ??0CRect@@QAE@XZ	; CRect::CRect
  00107	8b 4d f0	 mov	 ecx, DWORD PTR _this$[ebp]
  0010a	81 c1 b0 00 00
	00		 add	 ecx, 176		; 000000b0H
  00110	e8 00 00 00 00	 call	 ??0CRect@@QAE@XZ	; CRect::CRect
  00115	8b 4d f0	 mov	 ecx, DWORD PTR _this$[ebp]
  00118	81 c1 c0 00 00
	00		 add	 ecx, 192		; 000000c0H
  0011e	e8 00 00 00 00	 call	 ??0CFont@@QAE@XZ	; CFont::CFont
  00123	c6 45 fc 05	 mov	 BYTE PTR __$EHRec$[ebp+8], 5
  00127	8b 4d f0	 mov	 ecx, DWORD PTR _this$[ebp]
  0012a	81 c1 c8 00 00
	00		 add	 ecx, 200		; 000000c8H
  00130	e8 00 00 00 00	 call	 ??0CFont@@QAE@XZ	; CFont::CFont
  00135	c6 45 fc 06	 mov	 BYTE PTR __$EHRec$[ebp+8], 6
  00139	8b 4d f0	 mov	 ecx, DWORD PTR _this$[ebp]
  0013c	81 c1 d4 00 00
	00		 add	 ecx, 212		; 000000d4H
  00142	8b f4		 mov	 esi, esp
  00144	ff 15 00 00 00
	00		 call	 DWORD PTR __imp_??0?$CStringT@DV?$StrTraitMFC_DLL@DV?$ChTraitsCRT@D@ATL@@@@@ATL@@QAE@XZ
  0014a	3b f4		 cmp	 esi, esp
  0014c	e8 00 00 00 00	 call	 __RTC_CheckEsp
  00151	c6 45 fc 07	 mov	 BYTE PTR __$EHRec$[ebp+8], 7
  00155	8b 4d f0	 mov	 ecx, DWORD PTR _this$[ebp]
  00158	81 c1 d8 00 00
	00		 add	 ecx, 216		; 000000d8H
  0015e	e8 00 00 00 00	 call	 ??0CxSkinButton@@QAE@XZ	; CxSkinButton::CxSkinButton
  00163	c6 45 fc 08	 mov	 BYTE PTR __$EHRec$[ebp+8], 8
  00167	8b 4d f0	 mov	 ecx, DWORD PTR _this$[ebp]
  0016a	81 c1 fc 01 00
	00		 add	 ecx, 508		; 000001fcH
  00170	e8 00 00 00 00	 call	 ??0CxSkinButton@@QAE@XZ	; CxSkinButton::CxSkinButton
  00175	c6 45 fc 09	 mov	 BYTE PTR __$EHRec$[ebp+8], 9
  00179	8b 4d f0	 mov	 ecx, DWORD PTR _this$[ebp]
  0017c	81 c1 20 03 00
	00		 add	 ecx, 800		; 00000320H
  00182	e8 00 00 00 00	 call	 ??0CxSkinButton@@QAE@XZ	; CxSkinButton::CxSkinButton
  00187	c6 45 fc 0a	 mov	 BYTE PTR __$EHRec$[ebp+8], 10 ; 0000000aH
  0018b	8b 4d f0	 mov	 ecx, DWORD PTR _this$[ebp]
  0018e	81 c1 44 04 00
	00		 add	 ecx, 1092		; 00000444H
  00194	e8 00 00 00 00	 call	 ??0CxSkinButton@@QAE@XZ	; CxSkinButton::CxSkinButton
  00199	c6 45 fc 0b	 mov	 BYTE PTR __$EHRec$[ebp+8], 11 ; 0000000bH
  0019d	8b 4d f0	 mov	 ecx, DWORD PTR _this$[ebp]
  001a0	81 c1 68 05 00
	00		 add	 ecx, 1384		; 00000568H
  001a6	e8 00 00 00 00	 call	 ??0CxSkinButton@@QAE@XZ	; CxSkinButton::CxSkinButton
  001ab	c6 45 fc 0c	 mov	 BYTE PTR __$EHRec$[ebp+8], 12 ; 0000000cH

; 19   : 	m_strTitle = "";

  001af	8b f4		 mov	 esi, esp
  001b1	68 00 00 00 00	 push	 OFFSET FLAT:$SG187390
  001b6	8b 4d f0	 mov	 ecx, DWORD PTR _this$[ebp]
  001b9	83 c1 74	 add	 ecx, 116		; 00000074H
  001bc	ff 15 00 00 00
	00		 call	 DWORD PTR __imp_??4?$CStringT@DV?$StrTraitMFC_DLL@DV?$ChTraitsCRT@D@ATL@@@@@ATL@@QAEAAV01@PBD@Z
  001c2	3b f4		 cmp	 esi, esp
  001c4	e8 00 00 00 00	 call	 __RTC_CheckEsp

; 20   : 
; 21   : 	SetSize(254,131);

  001c9	68 83 00 00 00	 push	 131			; 00000083H
  001ce	68 fe 00 00 00	 push	 254			; 000000feH
  001d3	8b 4d f0	 mov	 ecx, DWORD PTR _this$[ebp]
  001d6	e8 00 00 00 00	 call	 ?SetSize@CDialogMsg@@QAEXHH@Z ; CDialogMsg::SetSize

; 22   : 	SetBtnCount(2);

  001db	6a 02		 push	 2
  001dd	8b 4d f0	 mov	 ecx, DWORD PTR _this$[ebp]
  001e0	e8 00 00 00 00	 call	 ?SetBtnCount@CDialogMsg@@QAEXH@Z ; CDialogMsg::SetBtnCount

; 23   : 	SetTitle("提示");

  001e5	8b f4		 mov	 esi, esp
  001e7	68 00 00 00 00	 push	 OFFSET FLAT:$SG187392
  001ec	8d 4d ec	 lea	 ecx, DWORD PTR $T188233[ebp]
  001ef	ff 15 00 00 00
	00		 call	 DWORD PTR __imp_??0?$CStringT@DV?$StrTraitMFC_DLL@DV?$ChTraitsCRT@D@ATL@@@@@ATL@@QAE@PBD@Z
  001f5	3b f4		 cmp	 esi, esp
  001f7	e8 00 00 00 00	 call	 __RTC_CheckEsp
  001fc	c6 45 fc 0d	 mov	 BYTE PTR __$EHRec$[ebp+8], 13 ; 0000000dH
  00200	8d 55 ec	 lea	 edx, DWORD PTR $T188233[ebp]
  00203	52		 push	 edx
  00204	8b 4d f0	 mov	 ecx, DWORD PTR _this$[ebp]
  00207	e8 00 00 00 00	 call	 ?SetTitle@CDialogMsg@@QAEXABV?$CStringT@DV?$StrTraitMFC_DLL@DV?$ChTraitsCRT@D@ATL@@@@@ATL@@@Z ; CDialogMsg::SetTitle
  0020c	c6 45 fc 0c	 mov	 BYTE PTR __$EHRec$[ebp+8], 12 ; 0000000cH
  00210	8b f4		 mov	 esi, esp
  00212	8d 4d ec	 lea	 ecx, DWORD PTR $T188233[ebp]
  00215	ff 15 00 00 00
	00		 call	 DWORD PTR __imp_??1?$CStringT@DV?$StrTraitMFC_DLL@DV?$ChTraitsCRT@D@ATL@@@@@ATL@@QAE@XZ
  0021b	3b f4		 cmp	 esi, esp
  0021d	e8 00 00 00 00	 call	 __RTC_CheckEsp

; 24   : 	SetBtnText(1,"确 定");

  00222	8b f4		 mov	 esi, esp
  00224	68 00 00 00 00	 push	 OFFSET FLAT:$SG187394
  00229	8d 4d e8	 lea	 ecx, DWORD PTR $T188234[ebp]
  0022c	ff 15 00 00 00
	00		 call	 DWORD PTR __imp_??0?$CStringT@DV?$StrTraitMFC_DLL@DV?$ChTraitsCRT@D@ATL@@@@@ATL@@QAE@PBD@Z
  00232	3b f4		 cmp	 esi, esp
  00234	e8 00 00 00 00	 call	 __RTC_CheckEsp
  00239	c6 45 fc 0e	 mov	 BYTE PTR __$EHRec$[ebp+8], 14 ; 0000000eH
  0023d	8d 45 e8	 lea	 eax, DWORD PTR $T188234[ebp]
  00240	50		 push	 eax
  00241	6a 01		 push	 1
  00243	8b 4d f0	 mov	 ecx, DWORD PTR _this$[ebp]
  00246	e8 00 00 00 00	 call	 ?SetBtnText@CDialogMsg@@QAEXHABV?$CStringT@DV?$StrTraitMFC_DLL@DV?$ChTraitsCRT@D@ATL@@@@@ATL@@@Z ; CDialogMsg::SetBtnText
  0024b	c6 45 fc 0c	 mov	 BYTE PTR __$EHRec$[ebp+8], 12 ; 0000000cH
  0024f	8b f4		 mov	 esi, esp
  00251	8d 4d e8	 lea	 ecx, DWORD PTR $T188234[ebp]
  00254	ff 15 00 00 00
	00		 call	 DWORD PTR __imp_??1?$CStringT@DV?$StrTraitMFC_DLL@DV?$ChTraitsCRT@D@ATL@@@@@ATL@@QAE@XZ
  0025a	3b f4		 cmp	 esi, esp
  0025c	e8 00 00 00 00	 call	 __RTC_CheckEsp

; 25   : 	SetBtnText(2,"取 消");	

  00261	8b f4		 mov	 esi, esp
  00263	68 00 00 00 00	 push	 OFFSET FLAT:$SG187396
  00268	8d 4d e4	 lea	 ecx, DWORD PTR $T188235[ebp]
  0026b	ff 15 00 00 00
	00		 call	 DWORD PTR __imp_??0?$CStringT@DV?$StrTraitMFC_DLL@DV?$ChTraitsCRT@D@ATL@@@@@ATL@@QAE@PBD@Z
  00271	3b f4		 cmp	 esi, esp
  00273	e8 00 00 00 00	 call	 __RTC_CheckEsp
  00278	c6 45 fc 0f	 mov	 BYTE PTR __$EHRec$[ebp+8], 15 ; 0000000fH
  0027c	8d 4d e4	 lea	 ecx, DWORD PTR $T188235[ebp]
  0027f	51		 push	 ecx
  00280	6a 02		 push	 2
  00282	8b 4d f0	 mov	 ecx, DWORD PTR _this$[ebp]
  00285	e8 00 00 00 00	 call	 ?SetBtnText@CDialogMsg@@QAEXHABV?$CStringT@DV?$StrTraitMFC_DLL@DV?$ChTraitsCRT@D@ATL@@@@@ATL@@@Z ; CDialogMsg::SetBtnText
  0028a	c6 45 fc 0c	 mov	 BYTE PTR __$EHRec$[ebp+8], 12 ; 0000000cH
  0028e	8b f4		 mov	 esi, esp
  00290	8d 4d e4	 lea	 ecx, DWORD PTR $T188235[ebp]
  00293	ff 15 00 00 00
	00		 call	 DWORD PTR __imp_??1?$CStringT@DV?$StrTraitMFC_DLL@DV?$ChTraitsCRT@D@ATL@@@@@ATL@@QAE@XZ
  00299	3b f4		 cmp	 esi, esp
  0029b	e8 00 00 00 00	 call	 __RTC_CheckEsp

; 26   : 
; 27   : 	m_bShowCheckBox = FALSE;

  002a0	8b 55 f0	 mov	 edx, DWORD PTR _this$[ebp]
  002a3	c7 82 d0 00 00
	00 00 00 00 00	 mov	 DWORD PTR [edx+208], 0

; 28   : 
; 29   : 	m_titleFont.CreateFont(
; 30   : 		12,                        // nHeight
; 31   : 		0,                         // nWidth
; 32   : 		0,                         // nEscapement
; 33   : 		0,                         // nOrientation
; 34   : 		FW_BOLD,				   // nWeight
; 35   : 		FALSE,                     // bItalic
; 36   : 		FALSE,                     // bUnderline
; 37   : 		0,                         // cStrikeOut
; 38   : 		ANSI_CHARSET,              // nCharSet
; 39   : 		OUT_DEFAULT_PRECIS,        // nOutPrecision
; 40   : 		CLIP_DEFAULT_PRECIS,       // nClipPrecision
; 41   : 		DEFAULT_QUALITY,           // nQuality
; 42   : 		DEFAULT_PITCH | FF_SWISS,  // nPitchAndFamily
; 43   : 		"宋体");				   // lpszFacename

  002ad	68 00 00 00 00	 push	 OFFSET FLAT:$SG187397
  002b2	6a 20		 push	 32			; 00000020H
  002b4	6a 00		 push	 0
  002b6	6a 00		 push	 0
  002b8	6a 00		 push	 0
  002ba	6a 00		 push	 0
  002bc	6a 00		 push	 0
  002be	6a 00		 push	 0
  002c0	6a 00		 push	 0
  002c2	68 bc 02 00 00	 push	 700			; 000002bcH
  002c7	6a 00		 push	 0
  002c9	6a 00		 push	 0
  002cb	6a 00		 push	 0
  002cd	6a 0c		 push	 12			; 0000000cH
  002cf	8b 4d f0	 mov	 ecx, DWORD PTR _this$[ebp]
  002d2	81 c1 c0 00 00
	00		 add	 ecx, 192		; 000000c0H
  002d8	e8 00 00 00 00	 call	 ?CreateFontA@CFont@@QAEHHHHHHEEEEEEEEPBD@Z ; CFont::CreateFontA

; 44   : 
; 45   : 	m_msgFont.CreateFont(
; 46   : 		12,                        // nHeight
; 47   : 		0,                         // nWidth
; 48   : 		0,                         // nEscapement
; 49   : 		0,                         // nOrientation
; 50   : 		FW_NORMAL,                 // nWeight
; 51   : 		FALSE,                     // bItalic
; 52   : 		FALSE,                     // bUnderline
; 53   : 		0,                         // cStrikeOut
; 54   : 		ANSI_CHARSET,              // nCharSet
; 55   : 		OUT_DEFAULT_PRECIS,        // nOutPrecision
; 56   : 		CLIP_DEFAULT_PRECIS,       // nClipPrecision
; 57   : 		DEFAULT_QUALITY,           // nQuality
; 58   : 		DEFAULT_PITCH | FF_SWISS,  // nPitchAndFamily
; 59   : 		"宋体");				   // lpszFacename

  002dd	68 00 00 00 00	 push	 OFFSET FLAT:$SG187398
  002e2	6a 20		 push	 32			; 00000020H
  002e4	6a 00		 push	 0
  002e6	6a 00		 push	 0
  002e8	6a 00		 push	 0
  002ea	6a 00		 push	 0
  002ec	6a 00		 push	 0
  002ee	6a 00		 push	 0
  002f0	6a 00		 push	 0
  002f2	68 90 01 00 00	 push	 400			; 00000190H
  002f7	6a 00		 push	 0
  002f9	6a 00		 push	 0
  002fb	6a 00		 push	 0
  002fd	6a 0c		 push	 12			; 0000000cH
  002ff	8b 4d f0	 mov	 ecx, DWORD PTR _this$[ebp]
  00302	81 c1 c8 00 00
	00		 add	 ecx, 200		; 000000c8H
  00308	e8 00 00 00 00	 call	 ?CreateFontA@CFont@@QAEHHHHHHEEEEEEEEPBD@Z ; CFont::CreateFontA

; 60   : }

  0030d	c7 45 fc ff ff
	ff ff		 mov	 DWORD PTR __$EHRec$[ebp+8], -1
  00314	8b 45 f0	 mov	 eax, DWORD PTR _this$[ebp]
  00317	8b 4d f4	 mov	 ecx, DWORD PTR __$EHRec$[ebp]
  0031a	64 89 0d 00 00
	00 00		 mov	 DWORD PTR fs:__except_list, ecx
  00321	5e		 pop	 esi
  00322	83 c4 1c	 add	 esp, 28			; 0000001cH
  00325	3b ec		 cmp	 ebp, esp
  00327	e8 00 00 00 00	 call	 __RTC_CheckEsp
  0032c	8b e5		 mov	 esp, ebp
  0032e	5d		 pop	 ebp
  0032f	c2 04 00	 ret	 4
_TEXT	ENDS
text$x	SEGMENT
$L188236:
  00000	8b 4d f0	 mov	 ecx, DWORD PTR _this$[ebp]
  00003	e9 00 00 00 00	 jmp	 ??1CDialog@@UAE@XZ	; CDialog::~CDialog
$L188237:
  00008	8b 4d f0	 mov	 ecx, DWORD PTR _this$[ebp]
  0000b	83 c1 74	 add	 ecx, 116		; 00000074H
  0000e	8b f4		 mov	 esi, esp
  00010	ff 15 00 00 00
	00		 call	 DWORD PTR __imp_??1?$CStringT@DV?$StrTraitMFC_DLL@DV?$ChTraitsCRT@D@ATL@@@@@ATL@@QAE@XZ
  00016	3b f4		 cmp	 esi, esp
  00018	e9 00 00 00 00	 jmp	 __RTC_CheckEsp
$L188238:
  0001d	8b 4d f0	 mov	 ecx, DWORD PTR _this$[ebp]
  00020	81 c1 84 00 00
	00		 add	 ecx, 132		; 00000084H
  00026	8b f4		 mov	 esi, esp
  00028	ff 15 00 00 00
	00		 call	 DWORD PTR __imp_??1?$CStringT@DV?$StrTraitMFC_DLL@DV?$ChTraitsCRT@D@ATL@@@@@ATL@@QAE@XZ
  0002e	3b f4		 cmp	 esi, esp
  00030	e9 00 00 00 00	 jmp	 __RTC_CheckEsp
$L188239:
  00035	8b 4d f0	 mov	 ecx, DWORD PTR _this$[ebp]
  00038	81 c1 88 00 00
	00		 add	 ecx, 136		; 00000088H
  0003e	8b f4		 mov	 esi, esp
  00040	ff 15 00 00 00
	00		 call	 DWORD PTR __imp_??1?$CStringT@DV?$StrTraitMFC_DLL@DV?$ChTraitsCRT@D@ATL@@@@@ATL@@QAE@XZ
  00046	3b f4		 cmp	 esi, esp
  00048	e9 00 00 00 00	 jmp	 __RTC_CheckEsp
$L188240:
  0004d	8b 4d f0	 mov	 ecx, DWORD PTR _this$[ebp]
  00050	81 c1 8c 00 00
	00		 add	 ecx, 140		; 0000008cH
  00056	8b f4		 mov	 esi, esp
  00058	ff 15 00 00 00
	00		 call	 DWORD PTR __imp_??1?$CStringT@DV?$StrTraitMFC_DLL@DV?$ChTraitsCRT@D@ATL@@@@@ATL@@QAE@XZ
  0005e	3b f4		 cmp	 esi, esp
  00060	e9 00 00 00 00	 jmp	 __RTC_CheckEsp
$L188241:
  00065	8b 4d f0	 mov	 ecx, DWORD PTR _this$[ebp]
  00068	81 c1 c0 00 00
	00		 add	 ecx, 192		; 000000c0H
  0006e	e9 00 00 00 00	 jmp	 ??1CFont@@UAE@XZ	; CFont::~CFont
$L188242:
  00073	8b 4d f0	 mov	 ecx, DWORD PTR _this$[ebp]
  00076	81 c1 c8 00 00
	00		 add	 ecx, 200		; 000000c8H
  0007c	e9 00 00 00 00	 jmp	 ??1CFont@@UAE@XZ	; CFont::~CFont
$L188243:
  00081	8b 4d f0	 mov	 ecx, DWORD PTR _this$[ebp]
  00084	81 c1 d4 00 00
	00		 add	 ecx, 212		; 000000d4H
  0008a	8b f4		 mov	 esi, esp
  0008c	ff 15 00 00 00
	00		 call	 DWORD PTR __imp_??1?$CStringT@DV?$StrTraitMFC_DLL@DV?$ChTraitsCRT@D@ATL@@@@@ATL@@QAE@XZ
  00092	3b f4		 cmp	 esi, esp
  00094	e9 00 00 00 00	 jmp	 __RTC_CheckEsp
$L188244:
  00099	8b 4d f0	 mov	 ecx, DWORD PTR _this$[ebp]
  0009c	81 c1 d8 00 00
	00		 add	 ecx, 216		; 000000d8H
  000a2	e9 00 00 00 00	 jmp	 ??1CxSkinButton@@UAE@XZ	; CxSkinButton::~CxSkinButton
$L188245:
  000a7	8b 4d f0	 mov	 ecx, DWORD PTR _this$[ebp]
  000aa	81 c1 fc 01 00
	00		 add	 ecx, 508		; 000001fcH
  000b0	e9 00 00 00 00	 jmp	 ??1CxSkinButton@@UAE@XZ	; CxSkinButton::~CxSkinButton
$L188246:
  000b5	8b 4d f0	 mov	 ecx, DWORD PTR _this$[ebp]
  000b8	81 c1 20 03 00
	00		 add	 ecx, 800		; 00000320H
  000be	e9 00 00 00 00	 jmp	 ??1CxSkinButton@@UAE@XZ	; CxSkinButton::~CxSkinButton
$L188247:
  000c3	8b 4d f0	 mov	 ecx, DWORD PTR _this$[ebp]
  000c6	81 c1 44 04 00
	00		 add	 ecx, 1092		; 00000444H
  000cc	e9 00 00 00 00	 jmp	 ??1CxSkinButton@@UAE@XZ	; CxSkinButton::~CxSkinButton
$L188248:
  000d1	8b 4d f0	 mov	 ecx, DWORD PTR _this$[ebp]
  000d4	81 c1 68 05 00
	00		 add	 ecx, 1384		; 00000568H
  000da	e9 00 00 00 00	 jmp	 ??1CxSkinButton@@UAE@XZ	; CxSkinButton::~CxSkinButton
$L188249:
  000df	8b f4		 mov	 esi, esp
  000e1	8d 4d ec	 lea	 ecx, DWORD PTR $T188233[ebp]
  000e4	ff 15 00 00 00
	00		 call	 DWORD PTR __imp_??1?$CStringT@DV?$StrTraitMFC_DLL@DV?$ChTraitsCRT@D@ATL@@@@@ATL@@QAE@XZ
  000ea	3b f4		 cmp	 esi, esp
  000ec	e9 00 00 00 00	 jmp	 __RTC_CheckEsp
$L188250:
  000f1	8b f4		 mov	 esi, esp
  000f3	8d 4d e8	 lea	 ecx, DWORD PTR $T188234[ebp]
  000f6	ff 15 00 00 00
	00		 call	 DWORD PTR __imp_??1?$CStringT@DV?$StrTraitMFC_DLL@DV?$ChTraitsCRT@D@ATL@@@@@ATL@@QAE@XZ
  000fc	3b f4		 cmp	 esi, esp
  000fe	e9 00 00 00 00	 jmp	 __RTC_CheckEsp
$L188251:
  00103	8b f4		 mov	 esi, esp
  00105	8d 4d e4	 lea	 ecx, DWORD PTR $T188235[ebp]
  00108	ff 15 00 00 00
	00		 call	 DWORD PTR __imp_??1?$CStringT@DV?$StrTraitMFC_DLL@DV?$ChTraitsCRT@D@ATL@@@@@ATL@@QAE@XZ
  0010e	3b f4		 cmp	 esi, esp
  00110	e9 00 00 00 00	 jmp	 __RTC_CheckEsp
__ehhandler$??0CDialogMsg@@QAE@PAVCWnd@@@Z:
  00115	b8 00 00 00 00	 mov	 eax, OFFSET FLAT:$T188255
  0011a	e9 00 00 00 00	 jmp	 ___CxxFrameHandler
text$x	ENDS
??0CDialogMsg@@QAE@PAVCWnd@@@Z ENDP			; CDialogMsg::CDialogMsg
EXTRN	__imp_??4?$CStringT@DV?$StrTraitMFC_DLL@DV?$ChTraitsCRT@D@ATL@@@@@ATL@@QAEAAV01@ABV01@@Z:NEAR
; Function compile flags: /Odt /RTCsu
; File d:\boxgit\playbox\playbox\dev\prj\playbox\src\gui\commoncontrol\dialogmsg.h
;	COMDAT ?SetTitle@CDialogMsg@@QAEXABV?$CStringT@DV?$StrTraitMFC_DLL@DV?$ChTraitsCRT@D@ATL@@@@@ATL@@@Z
_TEXT	SEGMENT
_this$ = -4						; size = 4
_strTitle$ = 8						; size = 4
?SetTitle@CDialogMsg@@QAEXABV?$CStringT@DV?$StrTraitMFC_DLL@DV?$ChTraitsCRT@D@ATL@@@@@ATL@@@Z PROC NEAR ; CDialogMsg::SetTitle, COMDAT
; _this$ = ecx

; 31   : 	void	SetTitle(const CString& strTitle ){m_strTitle = strTitle;}

  00000	55		 push	 ebp
  00001	8b ec		 mov	 ebp, esp
  00003	51		 push	 ecx
  00004	56		 push	 esi
  00005	c7 45 fc cc cc
	cc cc		 mov	 DWORD PTR [ebp-4], -858993460 ; ccccccccH
  0000c	89 4d fc	 mov	 DWORD PTR _this$[ebp], ecx
  0000f	8b f4		 mov	 esi, esp
  00011	8b 45 08	 mov	 eax, DWORD PTR _strTitle$[ebp]
  00014	50		 push	 eax
  00015	8b 4d fc	 mov	 ecx, DWORD PTR _this$[ebp]
  00018	83 c1 74	 add	 ecx, 116		; 00000074H
  0001b	ff 15 00 00 00
	00		 call	 DWORD PTR __imp_??4?$CStringT@DV?$StrTraitMFC_DLL@DV?$ChTraitsCRT@D@ATL@@@@@ATL@@QAEAAV01@ABV01@@Z
  00021	3b f4		 cmp	 esi, esp
  00023	e8 00 00 00 00	 call	 __RTC_CheckEsp
  00028	5e		 pop	 esi
  00029	83 c4 04	 add	 esp, 4
  0002c	3b ec		 cmp	 ebp, esp
  0002e	e8 00 00 00 00	 call	 __RTC_CheckEsp
  00033	8b e5		 mov	 esp, ebp
  00035	5d		 pop	 ebp
  00036	c2 04 00	 ret	 4
?SetTitle@CDialogMsg@@QAEXABV?$CStringT@DV?$StrTraitMFC_DLL@DV?$ChTraitsCRT@D@ATL@@@@@ATL@@@Z ENDP ; CDialogMsg::SetTitle
; Function compile flags: /Odt /RTCsu
_TEXT	ENDS
;	COMDAT ?SetSize@CDialogMsg@@QAEXHH@Z
_TEXT	SEGMENT
_this$ = -4						; size = 4
_iXSize$ = 8						; size = 4
_iYSize$ = 12						; size = 4
?SetSize@CDialogMsg@@QAEXHH@Z PROC NEAR			; CDialogMsg::SetSize, COMDAT
; _this$ = ecx

; 32   : 	void	SetSize(int iXSize,int iYSize){m_iXSize = iXSize;m_iYSize=iYSize;}

  00000	55		 push	 ebp
  00001	8b ec		 mov	 ebp, esp
  00003	51		 push	 ecx
  00004	c7 45 fc cc cc
	cc cc		 mov	 DWORD PTR [ebp-4], -858993460 ; ccccccccH
  0000b	89 4d fc	 mov	 DWORD PTR _this$[ebp], ecx
  0000e	8b 45 fc	 mov	 eax, DWORD PTR _this$[ebp]
  00011	8b 4d 08	 mov	 ecx, DWORD PTR _iXSize$[ebp]
  00014	89 48 78	 mov	 DWORD PTR [eax+120], ecx
  00017	8b 55 fc	 mov	 edx, DWORD PTR _this$[ebp]
  0001a	8b 45 0c	 mov	 eax, DWORD PTR _iYSize$[ebp]
  0001d	89 42 7c	 mov	 DWORD PTR [edx+124], eax
  00020	8b e5		 mov	 esp, ebp
  00022	5d		 pop	 ebp
  00023	c2 08 00	 ret	 8
?SetSize@CDialogMsg@@QAEXHH@Z ENDP			; CDialogMsg::SetSize
; Function compile flags: /Odt /RTCsu
_TEXT	ENDS
;	COMDAT ?CheckBox_Check@CDialogMsg@@UAEXXZ
_TEXT	SEGMENT
_this$ = -4						; size = 4
?CheckBox_Check@CDialogMsg@@UAEXXZ PROC NEAR		; CDialogMsg::CheckBox_Check, COMDAT
; _this$ = ecx

; 80   : 	virtual void CheckBox_Check(){};

  00000	55		 push	 ebp
  00001	8b ec		 mov	 ebp, esp
  00003	51		 push	 ecx
  00004	c7 45 fc cc cc
	cc cc		 mov	 DWORD PTR [ebp-4], -858993460 ; ccccccccH
  0000b	89 4d fc	 mov	 DWORD PTR _this$[ebp], ecx
  0000e	8b e5		 mov	 esp, ebp
  00010	5d		 pop	 ebp
  00011	c3		 ret	 0
?CheckBox_Check@CDialogMsg@@UAEXXZ ENDP			; CDialogMsg::CheckBox_Check
; Function compile flags: /Odt /RTCsu
_TEXT	ENDS
;	COMDAT ?CheckBox_Checked@CDialogMsg@@UAEXXZ
_TEXT	SEGMENT
_this$ = -4						; size = 4
?CheckBox_Checked@CDialogMsg@@UAEXXZ PROC NEAR		; CDialogMsg::CheckBox_Checked, COMDAT
; _this$ = ecx

; 84   : 	virtual void CheckBox_Checked(){};

  00000	55		 push	 ebp
  00001	8b ec		 mov	 ebp, esp
  00003	51		 push	 ecx
  00004	c7 45 fc cc cc
	cc cc		 mov	 DWORD PTR [ebp-4], -858993460 ; ccccccccH
  0000b	89 4d fc	 mov	 DWORD PTR _this$[ebp], ecx
  0000e	8b e5		 mov	 esp, ebp
  00010	5d		 pop	 ebp
  00011	c3		 ret	 0
?CheckBox_Checked@CDialogMsg@@UAEXXZ ENDP		; CDialogMsg::CheckBox_Checked
; Function compile flags: /Odt /RTCsu
_TEXT	ENDS
;	COMDAT ?CheckBox_UnChecked@CDialogMsg@@UAEXXZ
_TEXT	SEGMENT
_this$ = -4						; size = 4
?CheckBox_UnChecked@CDialogMsg@@UAEXXZ PROC NEAR	; CDialogMsg::CheckBox_UnChecked, COMDAT
; _this$ = ecx

; 85   : 	virtual void CheckBox_UnChecked(){};

  00000	55		 push	 ebp
  00001	8b ec		 mov	 ebp, esp
  00003	51		 push	 ecx
  00004	c7 45 fc cc cc
	cc cc		 mov	 DWORD PTR [ebp-4], -858993460 ; ccccccccH
  0000b	89 4d fc	 mov	 DWORD PTR _this$[ebp], ecx
  0000e	8b e5		 mov	 esp, ebp
  00010	5d		 pop	 ebp
  00011	c3		 ret	 0
?CheckBox_UnChecked@CDialogMsg@@UAEXXZ ENDP		; CDialogMsg::CheckBox_UnChecked
_TEXT	ENDS
PUBLIC	??1CDialogMsg@@UAE@XZ				; CDialogMsg::~CDialogMsg
EXTRN	??3CObject@@SGXPAX@Z:NEAR			; CObject::operator delete
; Function compile flags: /Odt /RTCsu
;	COMDAT ??_GCDialogMsg@@UAEPAXI@Z
_TEXT	SEGMENT
_this$ = -4						; size = 4
___flags$ = 8						; size = 4
??_GCDialogMsg@@UAEPAXI@Z PROC NEAR			; CDialogMsg::`scalar deleting destructor', COMDAT
; _this$ = ecx
  00000	55		 push	 ebp
  00001	8b ec		 mov	 ebp, esp
  00003	51		 push	 ecx
  00004	c7 45 fc cc cc
	cc cc		 mov	 DWORD PTR [ebp-4], -858993460 ; ccccccccH
  0000b	89 4d fc	 mov	 DWORD PTR _this$[ebp], ecx
  0000e	8b 4d fc	 mov	 ecx, DWORD PTR _this$[ebp]
  00011	e8 00 00 00 00	 call	 ??1CDialogMsg@@UAE@XZ	; CDialogMsg::~CDialogMsg
  00016	8b 45 08	 mov	 eax, DWORD PTR ___flags$[ebp]
  00019	83 e0 01	 and	 eax, 1
  0001c	74 09		 je	 SHORT $L187402
  0001e	8b 4d fc	 mov	 ecx, DWORD PTR _this$[ebp]
  00021	51		 push	 ecx
  00022	e8 00 00 00 00	 call	 ??3CObject@@SGXPAX@Z	; CObject::operator delete
$L187402:
  00027	8b 45 fc	 mov	 eax, DWORD PTR _this$[ebp]
  0002a	83 c4 04	 add	 esp, 4
  0002d	3b ec		 cmp	 ebp, esp
  0002f	e8 00 00 00 00	 call	 __RTC_CheckEsp
  00034	8b e5		 mov	 esp, ebp
  00036	5d		 pop	 ebp
  00037	c2 04 00	 ret	 4
??_GCDialogMsg@@UAEPAXI@Z ENDP				; CDialogMsg::`scalar deleting destructor'
_TEXT	ENDS
xdata$x	SEGMENT
$T188284 DD	0ffffffffH
	DD	FLAT:$L188268
	DD	00H
	DD	FLAT:$L188269
	DD	01H
	DD	FLAT:$L188270
	DD	02H
	DD	FLAT:$L188271
	DD	03H
	DD	FLAT:$L188272
	DD	04H
	DD	FLAT:$L188273
	DD	05H
	DD	FLAT:$L188274
	DD	06H
	DD	FLAT:$L188275
	DD	07H
	DD	FLAT:$L188276
	DD	08H
	DD	FLAT:$L188277
	DD	09H
	DD	FLAT:$L188278
	DD	0aH
	DD	FLAT:$L188279
$T188282 DD	019930520H
	DD	0cH
	DD	FLAT:$T188284
	DD	2 DUP(00H)
	DD	2 DUP(00H)
; Function compile flags: /Odt /RTCsu
; File d:\boxgit\playbox\playbox\dev\prj\playbox\src\gui\commoncontrol\dialogmsg.cpp
xdata$x	ENDS
_TEXT	SEGMENT
_this$ = -16						; size = 4
__$EHRec$ = -12						; size = 12
??1CDialogMsg@@UAE@XZ PROC NEAR				; CDialogMsg::~CDialogMsg
; _this$ = ecx

; 63   : {

  00340	55		 push	 ebp
  00341	8b ec		 mov	 ebp, esp
  00343	6a ff		 push	 -1
  00345	68 00 00 00 00	 push	 __ehhandler$??1CDialogMsg@@UAE@XZ
  0034a	64 a1 00 00 00
	00		 mov	 eax, DWORD PTR fs:__except_list
  00350	50		 push	 eax
  00351	64 89 25 00 00
	00 00		 mov	 DWORD PTR fs:__except_list, esp
  00358	51		 push	 ecx
  00359	56		 push	 esi
  0035a	c7 45 f0 cc cc
	cc cc		 mov	 DWORD PTR [ebp-16], -858993460 ; ccccccccH
  00361	89 4d f0	 mov	 DWORD PTR _this$[ebp], ecx
  00364	8b 45 f0	 mov	 eax, DWORD PTR _this$[ebp]
  00367	c7 00 00 00 00
	00		 mov	 DWORD PTR [eax], OFFSET FLAT:??_7CDialogMsg@@6B@
  0036d	c7 45 fc 0b 00
	00 00		 mov	 DWORD PTR __$EHRec$[ebp+8], 11 ; 0000000bH

; 64   : }

  00374	8b 4d f0	 mov	 ecx, DWORD PTR _this$[ebp]
  00377	81 c1 68 05 00
	00		 add	 ecx, 1384		; 00000568H
  0037d	e8 00 00 00 00	 call	 ??1CxSkinButton@@UAE@XZ	; CxSkinButton::~CxSkinButton
  00382	c6 45 fc 0a	 mov	 BYTE PTR __$EHRec$[ebp+8], 10 ; 0000000aH
  00386	8b 4d f0	 mov	 ecx, DWORD PTR _this$[ebp]
  00389	81 c1 44 04 00
	00		 add	 ecx, 1092		; 00000444H
  0038f	e8 00 00 00 00	 call	 ??1CxSkinButton@@UAE@XZ	; CxSkinButton::~CxSkinButton
  00394	c6 45 fc 09	 mov	 BYTE PTR __$EHRec$[ebp+8], 9
  00398	8b 4d f0	 mov	 ecx, DWORD PTR _this$[ebp]
  0039b	81 c1 20 03 00
	00		 add	 ecx, 800		; 00000320H
  003a1	e8 00 00 00 00	 call	 ??1CxSkinButton@@UAE@XZ	; CxSkinButton::~CxSkinButton
  003a6	c6 45 fc 08	 mov	 BYTE PTR __$EHRec$[ebp+8], 8
  003aa	8b 4d f0	 mov	 ecx, DWORD PTR _this$[ebp]
  003ad	81 c1 fc 01 00
	00		 add	 ecx, 508		; 000001fcH
  003b3	e8 00 00 00 00	 call	 ??1CxSkinButton@@UAE@XZ	; CxSkinButton::~CxSkinButton
  003b8	c6 45 fc 07	 mov	 BYTE PTR __$EHRec$[ebp+8], 7
  003bc	8b 4d f0	 mov	 ecx, DWORD PTR _this$[ebp]
  003bf	81 c1 d8 00 00
	00		 add	 ecx, 216		; 000000d8H
  003c5	e8 00 00 00 00	 call	 ??1CxSkinButton@@UAE@XZ	; CxSkinButton::~CxSkinButton
  003ca	c6 45 fc 06	 mov	 BYTE PTR __$EHRec$[ebp+8], 6
  003ce	8b 4d f0	 mov	 ecx, DWORD PTR _this$[ebp]
  003d1	81 c1 d4 00 00
	00		 add	 ecx, 212		; 000000d4H
  003d7	8b f4		 mov	 esi, esp
  003d9	ff 15 00 00 00
	00		 call	 DWORD PTR __imp_??1?$CStringT@DV?$StrTraitMFC_DLL@DV?$ChTraitsCRT@D@ATL@@@@@ATL@@QAE@XZ
  003df	3b f4		 cmp	 esi, esp
  003e1	e8 00 00 00 00	 call	 __RTC_CheckEsp
  003e6	c6 45 fc 05	 mov	 BYTE PTR __$EHRec$[ebp+8], 5
  003ea	8b 4d f0	 mov	 ecx, DWORD PTR _this$[ebp]
  003ed	81 c1 c8 00 00
	00		 add	 ecx, 200		; 000000c8H
  003f3	e8 00 00 00 00	 call	 ??1CFont@@UAE@XZ	; CFont::~CFont
  003f8	c6 45 fc 04	 mov	 BYTE PTR __$EHRec$[ebp+8], 4
  003fc	8b 4d f0	 mov	 ecx, DWORD PTR _this$[ebp]
  003ff	81 c1 c0 00 00
	00		 add	 ecx, 192		; 000000c0H
  00405	e8 00 00 00 00	 call	 ??1CFont@@UAE@XZ	; CFont::~CFont
  0040a	c6 45 fc 03	 mov	 BYTE PTR __$EHRec$[ebp+8], 3
  0040e	8b 4d f0	 mov	 ecx, DWORD PTR _this$[ebp]
  00411	81 c1 8c 00 00
	00		 add	 ecx, 140		; 0000008cH
  00417	8b f4		 mov	 esi, esp
  00419	ff 15 00 00 00
	00		 call	 DWORD PTR __imp_??1?$CStringT@DV?$StrTraitMFC_DLL@DV?$ChTraitsCRT@D@ATL@@@@@ATL@@QAE@XZ
  0041f	3b f4		 cmp	 esi, esp
  00421	e8 00 00 00 00	 call	 __RTC_CheckEsp
  00426	c6 45 fc 02	 mov	 BYTE PTR __$EHRec$[ebp+8], 2
  0042a	8b 4d f0	 mov	 ecx, DWORD PTR _this$[ebp]
  0042d	81 c1 88 00 00
	00		 add	 ecx, 136		; 00000088H
  00433	8b f4		 mov	 esi, esp
  00435	ff 15 00 00 00
	00		 call	 DWORD PTR __imp_??1?$CStringT@DV?$StrTraitMFC_DLL@DV?$ChTraitsCRT@D@ATL@@@@@ATL@@QAE@XZ
  0043b	3b f4		 cmp	 esi, esp
  0043d	e8 00 00 00 00	 call	 __RTC_CheckEsp
  00442	c6 45 fc 01	 mov	 BYTE PTR __$EHRec$[ebp+8], 1
  00446	8b 4d f0	 mov	 ecx, DWORD PTR _this$[ebp]
  00449	81 c1 84 00 00
	00		 add	 ecx, 132		; 00000084H
  0044f	8b f4		 mov	 esi, esp
  00451	ff 15 00 00 00
	00		 call	 DWORD PTR __imp_??1?$CStringT@DV?$StrTraitMFC_DLL@DV?$ChTraitsCRT@D@ATL@@@@@ATL@@QAE@XZ
  00457	3b f4		 cmp	 esi, esp
  00459	e8 00 00 00 00	 call	 __RTC_CheckEsp
  0045e	c6 45 fc 00	 mov	 BYTE PTR __$EHRec$[ebp+8], 0
  00462	8b 4d f0	 mov	 ecx, DWORD PTR _this$[ebp]
  00465	83 c1 74	 add	 ecx, 116		; 00000074H
  00468	8b f4		 mov	 esi, esp
  0046a	ff 15 00 00 00
	00		 call	 DWORD PTR __imp_??1?$CStringT@DV?$StrTraitMFC_DLL@DV?$ChTraitsCRT@D@ATL@@@@@ATL@@QAE@XZ
  00470	3b f4		 cmp	 esi, esp
  00472	e8 00 00 00 00	 call	 __RTC_CheckEsp
  00477	c7 45 fc ff ff
	ff ff		 mov	 DWORD PTR __$EHRec$[ebp+8], -1
  0047e	8b 4d f0	 mov	 ecx, DWORD PTR _this$[ebp]
  00481	e8 00 00 00 00	 call	 ??1CDialog@@UAE@XZ	; CDialog::~CDialog
  00486	8b 4d f4	 mov	 ecx, DWORD PTR __$EHRec$[ebp]
  00489	64 89 0d 00 00
	00 00		 mov	 DWORD PTR fs:__except_list, ecx
  00490	5e		 pop	 esi
  00491	83 c4 10	 add	 esp, 16			; 00000010H
  00494	3b ec		 cmp	 ebp, esp
  00496	e8 00 00 00 00	 call	 __RTC_CheckEsp
  0049b	8b e5		 mov	 esp, ebp
  0049d	5d		 pop	 ebp
  0049e	c3		 ret	 0
_TEXT	ENDS
text$x	SEGMENT
$L188268:
  0011f	8b 4d f0	 mov	 ecx, DWORD PTR _this$[ebp]
  00122	e9 00 00 00 00	 jmp	 ??1CDialog@@UAE@XZ	; CDialog::~CDialog
$L188269:
  00127	8b 4d f0	 mov	 ecx, DWORD PTR _this$[ebp]
  0012a	83 c1 74	 add	 ecx, 116		; 00000074H
  0012d	8b f4		 mov	 esi, esp
  0012f	ff 15 00 00 00
	00		 call	 DWORD PTR __imp_??1?$CStringT@DV?$StrTraitMFC_DLL@DV?$ChTraitsCRT@D@ATL@@@@@ATL@@QAE@XZ
  00135	3b f4		 cmp	 esi, esp
  00137	e9 00 00 00 00	 jmp	 __RTC_CheckEsp
$L188270:
  0013c	8b 4d f0	 mov	 ecx, DWORD PTR _this$[ebp]
  0013f	81 c1 84 00 00
	00		 add	 ecx, 132		; 00000084H
  00145	8b f4		 mov	 esi, esp
  00147	ff 15 00 00 00
	00		 call	 DWORD PTR __imp_??1?$CStringT@DV?$StrTraitMFC_DLL@DV?$ChTraitsCRT@D@ATL@@@@@ATL@@QAE@XZ
  0014d	3b f4		 cmp	 esi, esp
  0014f	e9 00 00 00 00	 jmp	 __RTC_CheckEsp
$L188271:
  00154	8b 4d f0	 mov	 ecx, DWORD PTR _this$[ebp]
  00157	81 c1 88 00 00
	00		 add	 ecx, 136		; 00000088H
  0015d	8b f4		 mov	 esi, esp
  0015f	ff 15 00 00 00
	00		 call	 DWORD PTR __imp_??1?$CStringT@DV?$StrTraitMFC_DLL@DV?$ChTraitsCRT@D@ATL@@@@@ATL@@QAE@XZ
  00165	3b f4		 cmp	 esi, esp
  00167	e9 00 00 00 00	 jmp	 __RTC_CheckEsp
$L188272:
  0016c	8b 4d f0	 mov	 ecx, DWORD PTR _this$[ebp]
  0016f	81 c1 8c 00 00
	00		 add	 ecx, 140		; 0000008cH
  00175	8b f4		 mov	 esi, esp
  00177	ff 15 00 00 00
	00		 call	 DWORD PTR __imp_??1?$CStringT@DV?$StrTraitMFC_DLL@DV?$ChTraitsCRT@D@ATL@@@@@ATL@@QAE@XZ
  0017d	3b f4		 cmp	 esi, esp
  0017f	e9 00 00 00 00	 jmp	 __RTC_CheckEsp
$L188273:
  00184	8b 4d f0	 mov	 ecx, DWORD PTR _this$[ebp]
  00187	81 c1 c0 00 00
	00		 add	 ecx, 192		; 000000c0H
  0018d	e9 00 00 00 00	 jmp	 ??1CFont@@UAE@XZ	; CFont::~CFont
$L188274:
  00192	8b 4d f0	 mov	 ecx, DWORD PTR _this$[ebp]
  00195	81 c1 c8 00 00
	00		 add	 ecx, 200		; 000000c8H
  0019b	e9 00 00 00 00	 jmp	 ??1CFont@@UAE@XZ	; CFont::~CFont
$L188275:
  001a0	8b 4d f0	 mov	 ecx, DWORD PTR _this$[ebp]
  001a3	81 c1 d4 00 00
	00		 add	 ecx, 212		; 000000d4H
  001a9	8b f4		 mov	 esi, esp
  001ab	ff 15 00 00 00
	00		 call	 DWORD PTR __imp_??1?$CStringT@DV?$StrTraitMFC_DLL@DV?$ChTraitsCRT@D@ATL@@@@@ATL@@QAE@XZ
  001b1	3b f4		 cmp	 esi, esp
  001b3	e9 00 00 00 00	 jmp	 __RTC_CheckEsp
$L188276:
  001b8	8b 4d f0	 mov	 ecx, DWORD PTR _this$[ebp]
  001bb	81 c1 d8 00 00
	00		 add	 ecx, 216		; 000000d8H
  001c1	e9 00 00 00 00	 jmp	 ??1CxSkinButton@@UAE@XZ	; CxSkinButton::~CxSkinButton
$L188277:
  001c6	8b 4d f0	 mov	 ecx, DWORD PTR _this$[ebp]
  001c9	81 c1 fc 01 00
	00		 add	 ecx, 508		; 000001fcH
  001cf	e9 00 00 00 00	 jmp	 ??1CxSkinButton@@UAE@XZ	; CxSkinButton::~CxSkinButton
$L188278:
  001d4	8b 4d f0	 mov	 ecx, DWORD PTR _this$[ebp]
  001d7	81 c1 20 03 00
	00		 add	 ecx, 800		; 00000320H
  001dd	e9 00 00 00 00	 jmp	 ??1CxSkinButton@@UAE@XZ	; CxSkinButton::~CxSkinButton
$L188279:
  001e2	8b 4d f0	 mov	 ecx, DWORD PTR _this$[ebp]
  001e5	81 c1 44 04 00
	00		 add	 ecx, 1092		; 00000444H
  001eb	e9 00 00 00 00	 jmp	 ??1CxSkinButton@@UAE@XZ	; CxSkinButton::~CxSkinButton
__ehhandler$??1CDialogMsg@@UAE@XZ:
  001f0	b8 00 00 00 00	 mov	 eax, OFFSET FLAT:$T188282
  001f5	e9 00 00 00 00	 jmp	 ___CxxFrameHandler
text$x	ENDS
??1CDialogMsg@@UAE@XZ ENDP				; CDialogMsg::~CDialogMsg
EXTRN	?DoDataExchange@CWnd@@MAEXPAVCDataExchange@@@Z:NEAR ; CWnd::DoDataExchange
; Function compile flags: /Odt /RTCsu
_TEXT	SEGMENT
_this$ = -4						; size = 4
_pDX$ = 8						; size = 4
?DoDataExchange@CDialogMsg@@MAEXPAVCDataExchange@@@Z PROC NEAR ; CDialogMsg::DoDataExchange
; _this$ = ecx

; 67   : {

  004a0	55		 push	 ebp
  004a1	8b ec		 mov	 ebp, esp
  004a3	51		 push	 ecx
  004a4	c7 45 fc cc cc
	cc cc		 mov	 DWORD PTR [ebp-4], -858993460 ; ccccccccH
  004ab	89 4d fc	 mov	 DWORD PTR _this$[ebp], ecx

; 68   : 	CDialog::DoDataExchange(pDX);	

  004ae	8b 45 08	 mov	 eax, DWORD PTR _pDX$[ebp]
  004b1	50		 push	 eax
  004b2	8b 4d fc	 mov	 ecx, DWORD PTR _this$[ebp]
  004b5	e8 00 00 00 00	 call	 ?DoDataExchange@CWnd@@MAEXPAVCDataExchange@@@Z ; CWnd::DoDataExchange

; 69   : }

  004ba	83 c4 04	 add	 esp, 4
  004bd	3b ec		 cmp	 ebp, esp
  004bf	e8 00 00 00 00	 call	 __RTC_CheckEsp
  004c4	8b e5		 mov	 esp, ebp
  004c6	5d		 pop	 ebp
  004c7	c2 04 00	 ret	 4
?DoDataExchange@CDialogMsg@@MAEXPAVCDataExchange@@@Z ENDP ; CDialogMsg::DoDataExchange
_TEXT	ENDS
PUBLIC	?GetThisMessageMap@CDialogMsg@@KGPBUAFX_MSGMAP@@XZ ; CDialogMsg::GetThisMessageMap
; Function compile flags: /Odt /RTCsu
_TEXT	SEGMENT
?GetThisMessageMap@CDialogMsg@@KGPBUAFX_MSGMAP@@XZ PROC NEAR ; CDialogMsg::GetThisMessageMap

; 72   : BEGIN_MESSAGE_MAP(CDialogMsg, CDialog)

  004d0	55		 push	 ebp
  004d1	8b ec		 mov	 ebp, esp
  004d3	b8 00 00 00 00	 mov	 eax, OFFSET FLAT:?messageMap@CDialogMsg@@1UAFX_MSGMAP@@B ; CDialogMsg::messageMap
  004d8	5d		 pop	 ebp
  004d9	c3		 ret	 0
?GetThisMessageMap@CDialogMsg@@KGPBUAFX_MSGMAP@@XZ ENDP	; CDialogMsg::GetThisMessageMap
; Function compile flags: /Odt /RTCsu
_this$ = -4						; size = 4
?GetMessageMap@CDialogMsg@@MBEPBUAFX_MSGMAP@@XZ PROC NEAR ; CDialogMsg::GetMessageMap
; _this$ = ecx

; 72   : BEGIN_MESSAGE_MAP(CDialogMsg, CDialog)

  004e0	55		 push	 ebp
  004e1	8b ec		 mov	 ebp, esp
  004e3	51		 push	 ecx
  004e4	c7 45 fc cc cc
	cc cc		 mov	 DWORD PTR [ebp-4], -858993460 ; ccccccccH
  004eb	89 4d fc	 mov	 DWORD PTR _this$[ebp], ecx
  004ee	b8 00 00 00 00	 mov	 eax, OFFSET FLAT:?messageMap@CDialogMsg@@1UAFX_MSGMAP@@B ; CDialogMsg::messageMap
  004f3	8b e5		 mov	 esp, ebp
  004f5	5d		 pop	 ebp
  004f6	c3		 ret	 0
?GetMessageMap@CDialogMsg@@MBEPBUAFX_MSGMAP@@XZ ENDP	; CDialogMsg::GetMessageMap
; Function compile flags: /Odt /RTCsu
_this$ = -4						; size = 4
_iBtnCount$ = 8						; size = 4
?SetBtnCount@CDialogMsg@@QAEXH@Z PROC NEAR		; CDialogMsg::SetBtnCount
; _this$ = ecx

; 85   : {

  00500	55		 push	 ebp
  00501	8b ec		 mov	 ebp, esp
  00503	51		 push	 ecx
  00504	c7 45 fc cc cc
	cc cc		 mov	 DWORD PTR [ebp-4], -858993460 ; ccccccccH
  0050b	89 4d fc	 mov	 DWORD PTR _this$[ebp], ecx

; 86   : 	if( iBtnCount <= 0 )

  0050e	83 7d 08 00	 cmp	 DWORD PTR _iBtnCount$[ebp], 0
  00512	7f 0f		 jg	 SHORT $L187459

; 87   : 	{
; 88   : 		m_iBtnCount = 0;

  00514	8b 45 fc	 mov	 eax, DWORD PTR _this$[ebp]
  00517	c7 80 80 00 00
	00 00 00 00 00	 mov	 DWORD PTR [eax+128], 0

; 89   : 	}
; 90   : 	else if( iBtnCount >= 2 )

  00521	eb 22		 jmp	 SHORT $L187458
$L187459:
  00523	83 7d 08 02	 cmp	 DWORD PTR _iBtnCount$[ebp], 2
  00527	7c 0f		 jl	 SHORT $L187461

; 91   : 	{
; 92   : 		m_iBtnCount = 2;

  00529	8b 4d fc	 mov	 ecx, DWORD PTR _this$[ebp]
  0052c	c7 81 80 00 00
	00 02 00 00 00	 mov	 DWORD PTR [ecx+128], 2

; 93   : 	}
; 94   : 	else

  00536	eb 0d		 jmp	 SHORT $L187458
$L187461:

; 95   : 	{
; 96   : 		m_iBtnCount =1;

  00538	8b 55 fc	 mov	 edx, DWORD PTR _this$[ebp]
  0053b	c7 82 80 00 00
	00 01 00 00 00	 mov	 DWORD PTR [edx+128], 1
$L187458:

; 97   : 	}
; 98   : }

  00545	8b e5		 mov	 esp, ebp
  00547	5d		 pop	 ebp
  00548	c2 04 00	 ret	 4
?SetBtnCount@CDialogMsg@@QAEXH@Z ENDP			; CDialogMsg::SetBtnCount
; Function compile flags: /Odt /RTCsu
_this$ = -4						; size = 4
_iBtnIdx$ = 8						; size = 4
_strText$ = 12						; size = 4
?SetBtnText@CDialogMsg@@QAEXHABV?$CStringT@DV?$StrTraitMFC_DLL@DV?$ChTraitsCRT@D@ATL@@@@@ATL@@@Z PROC NEAR ; CDialogMsg::SetBtnText
; _this$ = ecx

; 101  : {		

  00550	55		 push	 ebp
  00551	8b ec		 mov	 ebp, esp
  00553	51		 push	 ecx
  00554	56		 push	 esi
  00555	c7 45 fc cc cc
	cc cc		 mov	 DWORD PTR [ebp-4], -858993460 ; ccccccccH
  0055c	89 4d fc	 mov	 DWORD PTR _this$[ebp], ecx

; 102  : 	if( iBtnIdx == 1 )

  0055f	83 7d 08 01	 cmp	 DWORD PTR _iBtnIdx$[ebp], 1
  00563	75 1c		 jne	 SHORT $L187468

; 103  : 	{
; 104  : 		m_strBtnText1 = strText;

  00565	8b f4		 mov	 esi, esp
  00567	8b 45 0c	 mov	 eax, DWORD PTR _strText$[ebp]
  0056a	50		 push	 eax
  0056b	8b 4d fc	 mov	 ecx, DWORD PTR _this$[ebp]
  0056e	81 c1 84 00 00
	00		 add	 ecx, 132		; 00000084H
  00574	ff 15 00 00 00
	00		 call	 DWORD PTR __imp_??4?$CStringT@DV?$StrTraitMFC_DLL@DV?$ChTraitsCRT@D@ATL@@@@@ATL@@QAEAAV01@ABV01@@Z
  0057a	3b f4		 cmp	 esi, esp
  0057c	e8 00 00 00 00	 call	 __RTC_CheckEsp
$L187468:

; 105  : 	}
; 106  : 	if( iBtnIdx == 2 )

  00581	83 7d 08 02	 cmp	 DWORD PTR _iBtnIdx$[ebp], 2
  00585	75 1c		 jne	 SHORT $L187467

; 107  : 	{
; 108  : 		m_strBtnText2 = strText;

  00587	8b f4		 mov	 esi, esp
  00589	8b 4d 0c	 mov	 ecx, DWORD PTR _strText$[ebp]
  0058c	51		 push	 ecx
  0058d	8b 4d fc	 mov	 ecx, DWORD PTR _this$[ebp]
  00590	81 c1 88 00 00
	00		 add	 ecx, 136		; 00000088H
  00596	ff 15 00 00 00
	00		 call	 DWORD PTR __imp_??4?$CStringT@DV?$StrTraitMFC_DLL@DV?$ChTraitsCRT@D@ATL@@@@@ATL@@QAEAAV01@ABV01@@Z
  0059c	3b f4		 cmp	 esi, esp
  0059e	e8 00 00 00 00	 call	 __RTC_CheckEsp
$L187467:

; 109  : 	}
; 110  : }

  005a3	5e		 pop	 esi
  005a4	83 c4 04	 add	 esp, 4
  005a7	3b ec		 cmp	 ebp, esp
  005a9	e8 00 00 00 00	 call	 __RTC_CheckEsp
  005ae	8b e5		 mov	 esp, ebp
  005b0	5d		 pop	 ebp
  005b1	c2 08 00	 ret	 8
?SetBtnText@CDialogMsg@@QAEXHABV?$CStringT@DV?$StrTraitMFC_DLL@DV?$ChTraitsCRT@D@ATL@@@@@ATL@@@Z ENDP ; CDialogMsg::SetBtnText
; Function compile flags: /Odt /RTCsu
_this$ = -4						; size = 4
?OnBnClickedBtnClose@CDialogMsg@@QAEXXZ PROC NEAR	; CDialogMsg::OnBnClickedBtnClose
; _this$ = ecx

; 116  : {

  005c0	55		 push	 ebp
  005c1	8b ec		 mov	 ebp, esp
  005c3	51		 push	 ecx
  005c4	56		 push	 esi
  005c5	c7 45 fc cc cc
	cc cc		 mov	 DWORD PTR [ebp-4], -858993460 ; ccccccccH
  005cc	89 4d fc	 mov	 DWORD PTR _this$[ebp], ecx

; 117  : 	OnClickClose();

  005cf	8b 45 fc	 mov	 eax, DWORD PTR _this$[ebp]
  005d2	8b 10		 mov	 edx, DWORD PTR [eax]
  005d4	8b f4		 mov	 esi, esp
  005d6	8b 4d fc	 mov	 ecx, DWORD PTR _this$[ebp]
  005d9	ff 92 68 01 00
	00		 call	 DWORD PTR [edx+360]
  005df	3b f4		 cmp	 esi, esp
  005e1	e8 00 00 00 00	 call	 __RTC_CheckEsp

; 118  : }

  005e6	5e		 pop	 esi
  005e7	83 c4 04	 add	 esp, 4
  005ea	3b ec		 cmp	 ebp, esp
  005ec	e8 00 00 00 00	 call	 __RTC_CheckEsp
  005f1	8b e5		 mov	 esp, ebp
  005f3	5d		 pop	 ebp
  005f4	c3		 ret	 0
?OnBnClickedBtnClose@CDialogMsg@@QAEXXZ ENDP		; CDialogMsg::OnBnClickedBtnClose
; Function compile flags: /Odt /RTCsu
_this$ = -4						; size = 4
?OnBnClickedBtn1@CDialogMsg@@QAEXXZ PROC NEAR		; CDialogMsg::OnBnClickedBtn1
; _this$ = ecx

; 121  : {

  00600	55		 push	 ebp
  00601	8b ec		 mov	 ebp, esp
  00603	51		 push	 ecx
  00604	56		 push	 esi
  00605	c7 45 fc cc cc
	cc cc		 mov	 DWORD PTR [ebp-4], -858993460 ; ccccccccH
  0060c	89 4d fc	 mov	 DWORD PTR _this$[ebp], ecx

; 122  : 	OnClickBtn1();

  0060f	8b 45 fc	 mov	 eax, DWORD PTR _this$[ebp]
  00612	8b 10		 mov	 edx, DWORD PTR [eax]
  00614	8b f4		 mov	 esi, esp
  00616	8b 4d fc	 mov	 ecx, DWORD PTR _this$[ebp]
  00619	ff 92 60 01 00
	00		 call	 DWORD PTR [edx+352]
  0061f	3b f4		 cmp	 esi, esp
  00621	e8 00 00 00 00	 call	 __RTC_CheckEsp

; 123  : }

  00626	5e		 pop	 esi
  00627	83 c4 04	 add	 esp, 4
  0062a	3b ec		 cmp	 ebp, esp
  0062c	e8 00 00 00 00	 call	 __RTC_CheckEsp
  00631	8b e5		 mov	 esp, ebp
  00633	5d		 pop	 ebp
  00634	c3		 ret	 0
?OnBnClickedBtn1@CDialogMsg@@QAEXXZ ENDP		; CDialogMsg::OnBnClickedBtn1
; Function compile flags: /Odt /RTCsu
_this$ = -4						; size = 4
?OnBnClickedBtn2@CDialogMsg@@QAEXXZ PROC NEAR		; CDialogMsg::OnBnClickedBtn2
; _this$ = ecx

; 126  : {

  00640	55		 push	 ebp
  00641	8b ec		 mov	 ebp, esp
  00643	51		 push	 ecx
  00644	56		 push	 esi
  00645	c7 45 fc cc cc
	cc cc		 mov	 DWORD PTR [ebp-4], -858993460 ; ccccccccH
  0064c	89 4d fc	 mov	 DWORD PTR _this$[ebp], ecx

; 127  : 	OnClickBtn2();

  0064f	8b 45 fc	 mov	 eax, DWORD PTR _this$[ebp]
  00652	8b 10		 mov	 edx, DWORD PTR [eax]
  00654	8b f4		 mov	 esi, esp
  00656	8b 4d fc	 mov	 ecx, DWORD PTR _this$[ebp]
  00659	ff 92 64 01 00
	00		 call	 DWORD PTR [edx+356]
  0065f	3b f4		 cmp	 esi, esp
  00661	e8 00 00 00 00	 call	 __RTC_CheckEsp

; 128  : }

  00666	5e		 pop	 esi
  00667	83 c4 04	 add	 esp, 4
  0066a	3b ec		 cmp	 ebp, esp
  0066c	e8 00 00 00 00	 call	 __RTC_CheckEsp
  00671	8b e5		 mov	 esp, ebp
  00673	5d		 pop	 ebp
  00674	c3		 ret	 0
?OnBnClickedBtn2@CDialogMsg@@QAEXXZ ENDP		; CDialogMsg::OnBnClickedBtn2
_TEXT	ENDS
EXTRN	__imp__IsWindowVisible@4:NEAR
EXTRN	?EndDialog@CDialog@@QAEXH@Z:NEAR		; CDialog::EndDialog
; Function compile flags: /Odt /RTCsu
_TEXT	SEGMENT
_this$ = -4						; size = 4
?OnClickBtn1@CDialogMsg@@UAEXXZ PROC NEAR		; CDialogMsg::OnClickBtn1
; _this$ = ecx

; 131  : {

  00680	55		 push	 ebp
  00681	8b ec		 mov	 ebp, esp
  00683	51		 push	 ecx
  00684	56		 push	 esi
  00685	c7 45 fc cc cc
	cc cc		 mov	 DWORD PTR [ebp-4], -858993460 ; ccccccccH
  0068c	89 4d fc	 mov	 DWORD PTR _this$[ebp], ecx

; 132  : 	if( ::IsWindowVisible( m_btnCheck.m_hWnd) || ::IsWindowVisible(m_btnUnCheck.m_hWnd))

  0068f	8b f4		 mov	 esi, esp
  00691	8b 45 fc	 mov	 eax, DWORD PTR _this$[ebp]
  00694	8b 88 64 04 00
	00		 mov	 ecx, DWORD PTR [eax+1124]
  0069a	51		 push	 ecx
  0069b	ff 15 00 00 00
	00		 call	 DWORD PTR __imp__IsWindowVisible@4
  006a1	3b f4		 cmp	 esi, esp
  006a3	e8 00 00 00 00	 call	 __RTC_CheckEsp
  006a8	85 c0		 test	 eax, eax
  006aa	75 1d		 jne	 SHORT $L187483
  006ac	8b f4		 mov	 esi, esp
  006ae	8b 55 fc	 mov	 edx, DWORD PTR _this$[ebp]
  006b1	8b 82 88 05 00
	00		 mov	 eax, DWORD PTR [edx+1416]
  006b7	50		 push	 eax
  006b8	ff 15 00 00 00
	00		 call	 DWORD PTR __imp__IsWindowVisible@4
  006be	3b f4		 cmp	 esi, esp
  006c0	e8 00 00 00 00	 call	 __RTC_CheckEsp
  006c5	85 c0		 test	 eax, eax
  006c7	74 17		 je	 SHORT $L187482
$L187483:

; 133  : 	{
; 134  : 		CheckBox_Check();

  006c9	8b 4d fc	 mov	 ecx, DWORD PTR _this$[ebp]
  006cc	8b 11		 mov	 edx, DWORD PTR [ecx]
  006ce	8b f4		 mov	 esi, esp
  006d0	8b 4d fc	 mov	 ecx, DWORD PTR _this$[ebp]
  006d3	ff 92 6c 01 00
	00		 call	 DWORD PTR [edx+364]
  006d9	3b f4		 cmp	 esi, esp
  006db	e8 00 00 00 00	 call	 __RTC_CheckEsp
$L187482:

; 135  : 	}
; 136  : 	EndDialog(1);

  006e0	6a 01		 push	 1
  006e2	8b 4d fc	 mov	 ecx, DWORD PTR _this$[ebp]
  006e5	e8 00 00 00 00	 call	 ?EndDialog@CDialog@@QAEXH@Z ; CDialog::EndDialog

; 137  : }

  006ea	5e		 pop	 esi
  006eb	83 c4 04	 add	 esp, 4
  006ee	3b ec		 cmp	 ebp, esp
  006f0	e8 00 00 00 00	 call	 __RTC_CheckEsp
  006f5	8b e5		 mov	 esp, ebp
  006f7	5d		 pop	 ebp
  006f8	c3		 ret	 0
?OnClickBtn1@CDialogMsg@@UAEXXZ ENDP			; CDialogMsg::OnClickBtn1
; Function compile flags: /Odt /RTCsu
_this$ = -4						; size = 4
?OnClickBtn2@CDialogMsg@@UAEXXZ PROC NEAR		; CDialogMsg::OnClickBtn2
; _this$ = ecx

; 140  : {

  00700	55		 push	 ebp
  00701	8b ec		 mov	 ebp, esp
  00703	51		 push	 ecx
  00704	56		 push	 esi
  00705	c7 45 fc cc cc
	cc cc		 mov	 DWORD PTR [ebp-4], -858993460 ; ccccccccH
  0070c	89 4d fc	 mov	 DWORD PTR _this$[ebp], ecx

; 141  : 	if( ::IsWindowVisible( m_btnCheck.m_hWnd) || ::IsWindowVisible(m_btnUnCheck.m_hWnd))

  0070f	8b f4		 mov	 esi, esp
  00711	8b 45 fc	 mov	 eax, DWORD PTR _this$[ebp]
  00714	8b 88 64 04 00
	00		 mov	 ecx, DWORD PTR [eax+1124]
  0071a	51		 push	 ecx
  0071b	ff 15 00 00 00
	00		 call	 DWORD PTR __imp__IsWindowVisible@4
  00721	3b f4		 cmp	 esi, esp
  00723	e8 00 00 00 00	 call	 __RTC_CheckEsp
  00728	85 c0		 test	 eax, eax
  0072a	75 1d		 jne	 SHORT $L187488
  0072c	8b f4		 mov	 esi, esp
  0072e	8b 55 fc	 mov	 edx, DWORD PTR _this$[ebp]
  00731	8b 82 88 05 00
	00		 mov	 eax, DWORD PTR [edx+1416]
  00737	50		 push	 eax
  00738	ff 15 00 00 00
	00		 call	 DWORD PTR __imp__IsWindowVisible@4
  0073e	3b f4		 cmp	 esi, esp
  00740	e8 00 00 00 00	 call	 __RTC_CheckEsp
  00745	85 c0		 test	 eax, eax
  00747	74 17		 je	 SHORT $L187487
$L187488:

; 142  : 	{
; 143  : 		CheckBox_Check();

  00749	8b 4d fc	 mov	 ecx, DWORD PTR _this$[ebp]
  0074c	8b 11		 mov	 edx, DWORD PTR [ecx]
  0074e	8b f4		 mov	 esi, esp
  00750	8b 4d fc	 mov	 ecx, DWORD PTR _this$[ebp]
  00753	ff 92 6c 01 00
	00		 call	 DWORD PTR [edx+364]
  00759	3b f4		 cmp	 esi, esp
  0075b	e8 00 00 00 00	 call	 __RTC_CheckEsp
$L187487:

; 144  : 	}
; 145  : 	EndDialog(0);

  00760	6a 00		 push	 0
  00762	8b 4d fc	 mov	 ecx, DWORD PTR _this$[ebp]
  00765	e8 00 00 00 00	 call	 ?EndDialog@CDialog@@QAEXH@Z ; CDialog::EndDialog

; 146  : }

  0076a	5e		 pop	 esi
  0076b	83 c4 04	 add	 esp, 4
  0076e	3b ec		 cmp	 ebp, esp
  00770	e8 00 00 00 00	 call	 __RTC_CheckEsp
  00775	8b e5		 mov	 esp, ebp
  00777	5d		 pop	 ebp
  00778	c3		 ret	 0
?OnClickBtn2@CDialogMsg@@UAEXXZ ENDP			; CDialogMsg::OnClickBtn2
; Function compile flags: /Odt /RTCsu
_this$ = -4						; size = 4
?OnClickClose@CDialogMsg@@UAEXXZ PROC NEAR		; CDialogMsg::OnClickClose
; _this$ = ecx

; 149  : {

  00780	55		 push	 ebp
  00781	8b ec		 mov	 ebp, esp
  00783	51		 push	 ecx
  00784	56		 push	 esi
  00785	c7 45 fc cc cc
	cc cc		 mov	 DWORD PTR [ebp-4], -858993460 ; ccccccccH
  0078c	89 4d fc	 mov	 DWORD PTR _this$[ebp], ecx

; 150  : 	if( ::IsWindowVisible( m_btnCheck.m_hWnd) || ::IsWindowVisible(m_btnUnCheck.m_hWnd))

  0078f	8b f4		 mov	 esi, esp
  00791	8b 45 fc	 mov	 eax, DWORD PTR _this$[ebp]
  00794	8b 88 64 04 00
	00		 mov	 ecx, DWORD PTR [eax+1124]
  0079a	51		 push	 ecx
  0079b	ff 15 00 00 00
	00		 call	 DWORD PTR __imp__IsWindowVisible@4
  007a1	3b f4		 cmp	 esi, esp
  007a3	e8 00 00 00 00	 call	 __RTC_CheckEsp
  007a8	85 c0		 test	 eax, eax
  007aa	75 1d		 jne	 SHORT $L187493
  007ac	8b f4		 mov	 esi, esp
  007ae	8b 55 fc	 mov	 edx, DWORD PTR _this$[ebp]
  007b1	8b 82 88 05 00
	00		 mov	 eax, DWORD PTR [edx+1416]
  007b7	50		 push	 eax
  007b8	ff 15 00 00 00
	00		 call	 DWORD PTR __imp__IsWindowVisible@4
  007be	3b f4		 cmp	 esi, esp
  007c0	e8 00 00 00 00	 call	 __RTC_CheckEsp
  007c5	85 c0		 test	 eax, eax
  007c7	74 17		 je	 SHORT $L187492
$L187493:

; 151  : 	{
; 152  : 		CheckBox_Check();

  007c9	8b 4d fc	 mov	 ecx, DWORD PTR _this$[ebp]
  007cc	8b 11		 mov	 edx, DWORD PTR [ecx]
  007ce	8b f4		 mov	 esi, esp
  007d0	8b 4d fc	 mov	 ecx, DWORD PTR _this$[ebp]
  007d3	ff 92 6c 01 00
	00		 call	 DWORD PTR [edx+364]
  007d9	3b f4		 cmp	 esi, esp
  007db	e8 00 00 00 00	 call	 __RTC_CheckEsp
$L187492:

; 153  : 	}
; 154  : 	EndDialog(0);

  007e0	6a 00		 push	 0
  007e2	8b 4d fc	 mov	 ecx, DWORD PTR _this$[ebp]
  007e5	e8 00 00 00 00	 call	 ?EndDialog@CDialog@@QAEXH@Z ; CDialog::EndDialog

; 155  : }

  007ea	5e		 pop	 esi
  007eb	83 c4 04	 add	 esp, 4
  007ee	3b ec		 cmp	 ebp, esp
  007f0	e8 00 00 00 00	 call	 __RTC_CheckEsp
  007f5	8b e5		 mov	 esp, ebp
  007f7	5d		 pop	 ebp
  007f8	c3		 ret	 0
?OnClickClose@CDialogMsg@@UAEXXZ ENDP			; CDialogMsg::OnClickClose
; Function compile flags: /Odt /RTCsu
_this$ = -4						; size = 4
?OnOK@CDialogMsg@@MAEXXZ PROC NEAR			; CDialogMsg::OnOK
; _this$ = ecx

; 158  : {

  00800	55		 push	 ebp
  00801	8b ec		 mov	 ebp, esp
  00803	51		 push	 ecx
  00804	56		 push	 esi
  00805	c7 45 fc cc cc
	cc cc		 mov	 DWORD PTR [ebp-4], -858993460 ; ccccccccH
  0080c	89 4d fc	 mov	 DWORD PTR _this$[ebp], ecx

; 159  : 	OnClickBtn1();

  0080f	8b 45 fc	 mov	 eax, DWORD PTR _this$[ebp]
  00812	8b 10		 mov	 edx, DWORD PTR [eax]
  00814	8b f4		 mov	 esi, esp
  00816	8b 4d fc	 mov	 ecx, DWORD PTR _this$[ebp]
  00819	ff 92 60 01 00
	00		 call	 DWORD PTR [edx+352]
  0081f	3b f4		 cmp	 esi, esp
  00821	e8 00 00 00 00	 call	 __RTC_CheckEsp

; 160  : }

  00826	5e		 pop	 esi
  00827	83 c4 04	 add	 esp, 4
  0082a	3b ec		 cmp	 ebp, esp
  0082c	e8 00 00 00 00	 call	 __RTC_CheckEsp
  00831	8b e5		 mov	 esp, ebp
  00833	5d		 pop	 ebp
  00834	c3		 ret	 0
?OnOK@CDialogMsg@@MAEXXZ ENDP				; CDialogMsg::OnOK
; Function compile flags: /Odt /RTCsu
_this$ = -4						; size = 4
?OnCancel@CDialogMsg@@MAEXXZ PROC NEAR			; CDialogMsg::OnCancel
; _this$ = ecx

; 163  : {

  00840	55		 push	 ebp
  00841	8b ec		 mov	 ebp, esp
  00843	51		 push	 ecx
  00844	56		 push	 esi
  00845	c7 45 fc cc cc
	cc cc		 mov	 DWORD PTR [ebp-4], -858993460 ; ccccccccH
  0084c	89 4d fc	 mov	 DWORD PTR _this$[ebp], ecx

; 164  : 	OnClickClose();

  0084f	8b 45 fc	 mov	 eax, DWORD PTR _this$[ebp]
  00852	8b 10		 mov	 edx, DWORD PTR [eax]
  00854	8b f4		 mov	 esi, esp
  00856	8b 4d fc	 mov	 ecx, DWORD PTR _this$[ebp]
  00859	ff 92 68 01 00
	00		 call	 DWORD PTR [edx+360]
  0085f	3b f4		 cmp	 esi, esp
  00861	e8 00 00 00 00	 call	 __RTC_CheckEsp

; 165  : }

  00866	5e		 pop	 esi
  00867	83 c4 04	 add	 esp, 4
  0086a	3b ec		 cmp	 ebp, esp
  0086c	e8 00 00 00 00	 call	 __RTC_CheckEsp
  00871	8b e5		 mov	 esp, ebp
  00873	5d		 pop	 ebp
  00874	c3		 ret	 0
?OnCancel@CDialogMsg@@MAEXXZ ENDP			; CDialogMsg::OnCancel
_TEXT	ENDS
EXTRN	__imp_?Mid@?$CStringT@DV?$StrTraitMFC_DLL@DV?$ChTraitsCRT@D@ATL@@@@@ATL@@QBE?AV12@HH@Z:NEAR
EXTRN	__imp_?Right@?$CStringT@DV?$StrTraitMFC_DLL@DV?$ChTraitsCRT@D@ATL@@@@@ATL@@QBE?AV12@H@Z:NEAR
EXTRN	?DrawTextA@CDC@@QAEHABV?$CStringT@DV?$StrTraitMFC_DLL@DV?$ChTraitsCRT@D@ATL@@@@@ATL@@PAUtagRECT@@I@Z:NEAR ; CDC::DrawTextA
EXTRN	?AfxGetUIManager@@YAPAVIUIManager@@XZ:NEAR	; AfxGetUIManager
EXTRN	??0CPaintDC@@QAE@PAVCWnd@@@Z:NEAR		; CPaintDC::CPaintDC
EXTRN	??1CPaintDC@@UAE@XZ:NEAR			; CPaintDC::~CPaintDC
EXTRN	??0CRect@@QAE@HHHH@Z:NEAR			; CRect::CRect
EXTRN	?Draw@CDibBitmap@@QAEHPAVCDC@@HKH@Z:NEAR	; CDibBitmap::Draw
EXTRN	??BCRect@@QAEPAUtagRECT@@XZ:NEAR		; CRect::operator tagRECT *
EXTRN	?SetCDibRect@CDibBitmap@@QAEXVCRect@@@Z:NEAR	; CDibBitmap::SetCDibRect
EXTRN	?GetWidth@CDibBitmap@@QAEHXZ:NEAR		; CDibBitmap::GetWidth
EXTRN	?GetHeight@CDibBitmap@@QAEHXZ:NEAR		; CDibBitmap::GetHeight
EXTRN	??2CObject@@SGPAXI@Z:NEAR			; CObject::operator new
EXTRN	??BCDC@@QBEPAUHDC__@@XZ:NEAR			; CDC::operator HDC__ *
EXTRN	__imp_??B?$CSimpleStringT@D$00@ATL@@QBEPBDXZ:NEAR
EXTRN	__imp_?GetLength@?$CSimpleStringT@D$00@ATL@@QBEHXZ:NEAR
EXTRN	__imp__GetTextExtentPointA@16:NEAR
EXTRN	?SetBkMode@CDC@@QAEHH@Z:NEAR			; CDC::SetBkMode
EXTRN	__imp_?Find@?$CStringT@DV?$StrTraitMFC_DLL@DV?$ChTraitsCRT@D@ATL@@@@@ATL@@QBEHPBDH@Z:NEAR
EXTRN	___security_cookie:DWORD
EXTRN	@_RTC_CheckStackVars@8:NEAR
EXTRN	@__security_check_cookie@4:NEAR
EXTRN	??0CBufferDC@@QAE@PAUHDC__@@ABVCRect@@@Z:NEAR	; CBufferDC::CBufferDC
xdata$x	SEGMENT
$T188330 DD	0ffffffffH
	DD	FLAT:$L188311
	DD	00H
	DD	FLAT:$L188312
	DD	00H
	DD	FLAT:$L188313
	DD	02H
	DD	FLAT:$L188314
	DD	02H
	DD	FLAT:$L188315
$T188317 DD	019930520H
	DD	05H
	DD	FLAT:$T188330
	DD	2 DUP(00H)
	DD	2 DUP(00H)
; Function compile flags: /Odt /RTCsu
xdata$x	ENDS
_TEXT	SEGMENT
tv470 = -312						; size = 4
tv477 = -308						; size = 4
tv482 = -304						; size = 4
tv475 = -300						; size = 4
tv479 = -296						; size = 4
tv87 = -292						; size = 4
tv85 = -288						; size = 4
$T188308 = -284						; size = 4
$T188307 = -280						; size = 4
$T188306 = -276						; size = 4
$T188305 = -272						; size = 4
$T188302 = -268						; size = 16
$T188301 = -252						; size = 4
$T188300 = -248						; size = 4
_s$187557 = -240					; size = 8
_rect2$ = -224						; size = 16
_iLastPos$ = -204					; size = 4
_iStartPos$ = -200					; size = 4
_str$ = -192						; size = 4
_pFont$ = -184						; size = 4
_rect$ = -176						; size = 16
_pBottomMid$ = -156					; size = 4
_pBottomRight$ = -152					; size = 4
_pBottomLeft$ = -148					; size = 4
_pCenterRight$ = -144					; size = 4
_pCenterLeft$ = -140					; size = 4
_pCenter$ = -136					; size = 4
_pTopMid$ = -132					; size = 4
_pTopRight$ = -128					; size = 4
_pTopLeft$ = -124					; size = 4
_pSkinMgr$ = -120					; size = 4
_pDC$ = -116						; size = 4
_dc$ = -108						; size = 84
_this$ = -20						; size = 4
__$ArrayPad$ = -16					; size = 4
__$EHRec$ = -12						; size = 12
__$ReturnAddr$ = 4					; size = 4
?OnPaint@CDialogMsg@@QAEXXZ PROC NEAR			; CDialogMsg::OnPaint
; _this$ = ecx

; 168  : {

  00880	55		 push	 ebp
  00881	8b ec		 mov	 ebp, esp
  00883	6a ff		 push	 -1
  00885	68 00 00 00 00	 push	 __ehhandler$?OnPaint@CDialogMsg@@QAEXXZ
  0088a	64 a1 00 00 00
	00		 mov	 eax, DWORD PTR fs:__except_list
  00890	50		 push	 eax
  00891	64 89 25 00 00
	00 00		 mov	 DWORD PTR fs:__except_list, esp
  00898	81 ec 2c 01 00
	00		 sub	 esp, 300		; 0000012cH
  0089e	56		 push	 esi
  0089f	57		 push	 edi
  008a0	51		 push	 ecx
  008a1	8d bd c8 fe ff
	ff		 lea	 edi, DWORD PTR [ebp-312]
  008a7	b9 4b 00 00 00	 mov	 ecx, 75			; 0000004bH
  008ac	b8 cc cc cc cc	 mov	 eax, -858993460		; ccccccccH
  008b1	f3 ab		 rep stosd
  008b3	59		 pop	 ecx
  008b4	a1 00 00 00 00	 mov	 eax, DWORD PTR ___security_cookie
  008b9	89 45 f0	 mov	 DWORD PTR __$ArrayPad$[ebp], eax
  008bc	89 4d ec	 mov	 DWORD PTR _this$[ebp], ecx

; 169  : 	CPaintDC dc(this); 

  008bf	8b 45 ec	 mov	 eax, DWORD PTR _this$[ebp]
  008c2	50		 push	 eax
  008c3	8d 4d 94	 lea	 ecx, DWORD PTR _dc$[ebp]
  008c6	e8 00 00 00 00	 call	 ??0CPaintDC@@QAE@PAVCWnd@@@Z ; CPaintDC::CPaintDC
  008cb	c7 45 fc 00 00
	00 00		 mov	 DWORD PTR __$EHRec$[ebp+8], 0

; 170  : 	CBufferDC* pDC = new CBufferDC(dc);

  008d2	6a 30		 push	 48			; 00000030H
  008d4	e8 00 00 00 00	 call	 ??2CObject@@SGPAXI@Z	; CObject::operator new
  008d9	89 85 04 ff ff
	ff		 mov	 DWORD PTR $T188301[ebp], eax
  008df	c6 45 fc 01	 mov	 BYTE PTR __$EHRec$[ebp+8], 1
  008e3	83 bd 04 ff ff
	ff 00		 cmp	 DWORD PTR $T188301[ebp], 0
  008ea	74 30		 je	 SHORT $L188303
  008ec	6a 00		 push	 0
  008ee	6a 00		 push	 0
  008f0	6a 00		 push	 0
  008f2	6a 00		 push	 0
  008f4	8d 8d f4 fe ff
	ff		 lea	 ecx, DWORD PTR $T188302[ebp]
  008fa	e8 00 00 00 00	 call	 ??0CRect@@QAE@HHHH@Z	; CRect::CRect
  008ff	50		 push	 eax
  00900	8d 4d 94	 lea	 ecx, DWORD PTR _dc$[ebp]
  00903	e8 00 00 00 00	 call	 ??BCDC@@QBEPAUHDC__@@XZ	; CDC::operator HDC__ *
  00908	50		 push	 eax
  00909	8b 8d 04 ff ff
	ff		 mov	 ecx, DWORD PTR $T188301[ebp]
  0090f	e8 00 00 00 00	 call	 ??0CBufferDC@@QAE@PAUHDC__@@ABVCRect@@@Z ; CBufferDC::CBufferDC
  00914	89 85 e0 fe ff
	ff		 mov	 DWORD PTR tv85[ebp], eax
  0091a	eb 0a		 jmp	 SHORT $L188304
$L188303:
  0091c	c7 85 e0 fe ff
	ff 00 00 00 00	 mov	 DWORD PTR tv85[ebp], 0
$L188304:
  00926	8b 8d e0 fe ff
	ff		 mov	 ecx, DWORD PTR tv85[ebp]
  0092c	89 8d 08 ff ff
	ff		 mov	 DWORD PTR $T188300[ebp], ecx
  00932	c6 45 fc 00	 mov	 BYTE PTR __$EHRec$[ebp+8], 0
  00936	8b 95 08 ff ff
	ff		 mov	 edx, DWORD PTR $T188300[ebp]
  0093c	89 55 8c	 mov	 DWORD PTR _pDC$[ebp], edx

; 171  : 
; 172  : 	ISkinMgr* pSkinMgr = AfxGetUIManager()->UIGetSkinMgr();

  0093f	e8 00 00 00 00	 call	 ?AfxGetUIManager@@YAPAVIUIManager@@XZ ; AfxGetUIManager
  00944	89 85 dc fe ff
	ff		 mov	 DWORD PTR tv87[ebp], eax
  0094a	8b 85 dc fe ff
	ff		 mov	 eax, DWORD PTR tv87[ebp]
  00950	8b 10		 mov	 edx, DWORD PTR [eax]
  00952	8b f4		 mov	 esi, esp
  00954	8b 8d dc fe ff
	ff		 mov	 ecx, DWORD PTR tv87[ebp]
  0095a	ff 52 28	 call	 DWORD PTR [edx+40]
  0095d	3b f4		 cmp	 esi, esp
  0095f	e8 00 00 00 00	 call	 __RTC_CheckEsp
  00964	89 45 88	 mov	 DWORD PTR _pSkinMgr$[ebp], eax

; 173  : 	CDibBitmap* pTopLeft		= pSkinMgr->GetDibBmp("MSGDialogLeftTop");

  00967	8b f4		 mov	 esi, esp
  00969	68 00 00 00 00	 push	 OFFSET FLAT:$SG187512
  0096e	8b 45 88	 mov	 eax, DWORD PTR _pSkinMgr$[ebp]
  00971	8b 10		 mov	 edx, DWORD PTR [eax]
  00973	8b 4d 88	 mov	 ecx, DWORD PTR _pSkinMgr$[ebp]
  00976	ff 52 04	 call	 DWORD PTR [edx+4]
  00979	3b f4		 cmp	 esi, esp
  0097b	e8 00 00 00 00	 call	 __RTC_CheckEsp
  00980	89 45 84	 mov	 DWORD PTR _pTopLeft$[ebp], eax

; 174  : 	CDibBitmap* pTopRight		= pSkinMgr->GetDibBmp("MSGDialogRightTop");

  00983	8b f4		 mov	 esi, esp
  00985	68 00 00 00 00	 push	 OFFSET FLAT:$SG187514
  0098a	8b 45 88	 mov	 eax, DWORD PTR _pSkinMgr$[ebp]
  0098d	8b 10		 mov	 edx, DWORD PTR [eax]
  0098f	8b 4d 88	 mov	 ecx, DWORD PTR _pSkinMgr$[ebp]
  00992	ff 52 04	 call	 DWORD PTR [edx+4]
  00995	3b f4		 cmp	 esi, esp
  00997	e8 00 00 00 00	 call	 __RTC_CheckEsp
  0099c	89 45 80	 mov	 DWORD PTR _pTopRight$[ebp], eax

; 175  : 	CDibBitmap* pTopMid			= pSkinMgr->GetDibBmp("MSGDialogMidTop");

  0099f	8b f4		 mov	 esi, esp
  009a1	68 00 00 00 00	 push	 OFFSET FLAT:$SG187516
  009a6	8b 45 88	 mov	 eax, DWORD PTR _pSkinMgr$[ebp]
  009a9	8b 10		 mov	 edx, DWORD PTR [eax]
  009ab	8b 4d 88	 mov	 ecx, DWORD PTR _pSkinMgr$[ebp]
  009ae	ff 52 04	 call	 DWORD PTR [edx+4]
  009b1	3b f4		 cmp	 esi, esp
  009b3	e8 00 00 00 00	 call	 __RTC_CheckEsp
  009b8	89 85 7c ff ff
	ff		 mov	 DWORD PTR _pTopMid$[ebp], eax

; 176  : 	CDibBitmap* pCenter			= pSkinMgr->GetDibBmp("MSGDialogMid");

  009be	8b f4		 mov	 esi, esp
  009c0	68 00 00 00 00	 push	 OFFSET FLAT:$SG187518
  009c5	8b 45 88	 mov	 eax, DWORD PTR _pSkinMgr$[ebp]
  009c8	8b 10		 mov	 edx, DWORD PTR [eax]
  009ca	8b 4d 88	 mov	 ecx, DWORD PTR _pSkinMgr$[ebp]
  009cd	ff 52 04	 call	 DWORD PTR [edx+4]
  009d0	3b f4		 cmp	 esi, esp
  009d2	e8 00 00 00 00	 call	 __RTC_CheckEsp
  009d7	89 85 78 ff ff
	ff		 mov	 DWORD PTR _pCenter$[ebp], eax

; 177  : 	CDibBitmap* pCenterLeft		= pSkinMgr->GetDibBmp("MSGDialogMidLeft");

  009dd	8b f4		 mov	 esi, esp
  009df	68 00 00 00 00	 push	 OFFSET FLAT:$SG187520
  009e4	8b 45 88	 mov	 eax, DWORD PTR _pSkinMgr$[ebp]
  009e7	8b 10		 mov	 edx, DWORD PTR [eax]
  009e9	8b 4d 88	 mov	 ecx, DWORD PTR _pSkinMgr$[ebp]
  009ec	ff 52 04	 call	 DWORD PTR [edx+4]
  009ef	3b f4		 cmp	 esi, esp
  009f1	e8 00 00 00 00	 call	 __RTC_CheckEsp
  009f6	89 85 74 ff ff
	ff		 mov	 DWORD PTR _pCenterLeft$[ebp], eax

; 178  : 	CDibBitmap* pCenterRight	= pSkinMgr->GetDibBmp("MSGDialogMidRight");

  009fc	8b f4		 mov	 esi, esp
  009fe	68 00 00 00 00	 push	 OFFSET FLAT:$SG187522
  00a03	8b 45 88	 mov	 eax, DWORD PTR _pSkinMgr$[ebp]
  00a06	8b 10		 mov	 edx, DWORD PTR [eax]
  00a08	8b 4d 88	 mov	 ecx, DWORD PTR _pSkinMgr$[ebp]
  00a0b	ff 52 04	 call	 DWORD PTR [edx+4]
  00a0e	3b f4		 cmp	 esi, esp
  00a10	e8 00 00 00 00	 call	 __RTC_CheckEsp
  00a15	89 85 70 ff ff
	ff		 mov	 DWORD PTR _pCenterRight$[ebp], eax

; 179  : 	CDibBitmap* pBottomLeft		= pSkinMgr->GetDibBmp("MSGDialogLeftBottom");

  00a1b	8b f4		 mov	 esi, esp
  00a1d	68 00 00 00 00	 push	 OFFSET FLAT:$SG187524
  00a22	8b 45 88	 mov	 eax, DWORD PTR _pSkinMgr$[ebp]
  00a25	8b 10		 mov	 edx, DWORD PTR [eax]
  00a27	8b 4d 88	 mov	 ecx, DWORD PTR _pSkinMgr$[ebp]
  00a2a	ff 52 04	 call	 DWORD PTR [edx+4]
  00a2d	3b f4		 cmp	 esi, esp
  00a2f	e8 00 00 00 00	 call	 __RTC_CheckEsp
  00a34	89 85 6c ff ff
	ff		 mov	 DWORD PTR _pBottomLeft$[ebp], eax

; 180  : 	CDibBitmap* pBottomRight	= pSkinMgr->GetDibBmp("MSGDialogRightBottom");

  00a3a	8b f4		 mov	 esi, esp
  00a3c	68 00 00 00 00	 push	 OFFSET FLAT:$SG187526
  00a41	8b 45 88	 mov	 eax, DWORD PTR _pSkinMgr$[ebp]
  00a44	8b 10		 mov	 edx, DWORD PTR [eax]
  00a46	8b 4d 88	 mov	 ecx, DWORD PTR _pSkinMgr$[ebp]
  00a49	ff 52 04	 call	 DWORD PTR [edx+4]
  00a4c	3b f4		 cmp	 esi, esp
  00a4e	e8 00 00 00 00	 call	 __RTC_CheckEsp
  00a53	89 85 68 ff ff
	ff		 mov	 DWORD PTR _pBottomRight$[ebp], eax

; 181  : 	CDibBitmap* pBottomMid		= pSkinMgr->GetDibBmp("MSGDialogMidBottom");

  00a59	8b f4		 mov	 esi, esp
  00a5b	68 00 00 00 00	 push	 OFFSET FLAT:$SG187528
  00a60	8b 45 88	 mov	 eax, DWORD PTR _pSkinMgr$[ebp]
  00a63	8b 10		 mov	 edx, DWORD PTR [eax]
  00a65	8b 4d 88	 mov	 ecx, DWORD PTR _pSkinMgr$[ebp]
  00a68	ff 52 04	 call	 DWORD PTR [edx+4]
  00a6b	3b f4		 cmp	 esi, esp
  00a6d	e8 00 00 00 00	 call	 __RTC_CheckEsp
  00a72	89 85 64 ff ff
	ff		 mov	 DWORD PTR _pBottomMid$[ebp], eax

; 182  : 
; 183  : 	CRect rect;

  00a78	8d 8d 50 ff ff
	ff		 lea	 ecx, DWORD PTR _rect$[ebp]
  00a7e	e8 00 00 00 00	 call	 ??0CRect@@QAE@XZ	; CRect::CRect

; 184  : 	rect.left	= 0;

  00a83	c7 85 50 ff ff
	ff 00 00 00 00	 mov	 DWORD PTR _rect$[ebp], 0

; 185  : 	rect.top	= 0;

  00a8d	c7 85 54 ff ff
	ff 00 00 00 00	 mov	 DWORD PTR _rect$[ebp+4], 0

; 186  : 	rect.right	= pTopLeft->GetWidth();

  00a97	8b 4d 84	 mov	 ecx, DWORD PTR _pTopLeft$[ebp]
  00a9a	e8 00 00 00 00	 call	 ?GetWidth@CDibBitmap@@QAEHXZ ; CDibBitmap::GetWidth
  00a9f	89 85 58 ff ff
	ff		 mov	 DWORD PTR _rect$[ebp+8], eax

; 187  : 	rect.bottom = pTopLeft->GetHeight();

  00aa5	8b 4d 84	 mov	 ecx, DWORD PTR _pTopLeft$[ebp]
  00aa8	e8 00 00 00 00	 call	 ?GetHeight@CDibBitmap@@QAEHXZ ; CDibBitmap::GetHeight
  00aad	89 85 5c ff ff
	ff		 mov	 DWORD PTR _rect$[ebp+12], eax

; 188  : 	pTopLeft->SetCDibRect(rect);

  00ab3	83 ec 10	 sub	 esp, 16			; 00000010H
  00ab6	8b c4		 mov	 eax, esp
  00ab8	8b 8d 50 ff ff
	ff		 mov	 ecx, DWORD PTR _rect$[ebp]
  00abe	89 08		 mov	 DWORD PTR [eax], ecx
  00ac0	8b 95 54 ff ff
	ff		 mov	 edx, DWORD PTR _rect$[ebp+4]
  00ac6	89 50 04	 mov	 DWORD PTR [eax+4], edx
  00ac9	8b 8d 58 ff ff
	ff		 mov	 ecx, DWORD PTR _rect$[ebp+8]
  00acf	89 48 08	 mov	 DWORD PTR [eax+8], ecx
  00ad2	8b 95 5c ff ff
	ff		 mov	 edx, DWORD PTR _rect$[ebp+12]
  00ad8	89 50 0c	 mov	 DWORD PTR [eax+12], edx
  00adb	8b 4d 84	 mov	 ecx, DWORD PTR _pTopLeft$[ebp]
  00ade	e8 00 00 00 00	 call	 ?SetCDibRect@CDibBitmap@@QAEXVCRect@@@Z ; CDibBitmap::SetCDibRect

; 189  : 	pTopLeft->Draw( pDC,TRUE );

  00ae3	6a 01		 push	 1
  00ae5	6a 00		 push	 0
  00ae7	6a 01		 push	 1
  00ae9	8b 45 8c	 mov	 eax, DWORD PTR _pDC$[ebp]
  00aec	50		 push	 eax
  00aed	8b 4d 84	 mov	 ecx, DWORD PTR _pTopLeft$[ebp]
  00af0	e8 00 00 00 00	 call	 ?Draw@CDibBitmap@@QAEHPAVCDC@@HKH@Z ; CDibBitmap::Draw

; 190  : 
; 191  : 	rect.right	= m_iXSize;

  00af5	8b 4d ec	 mov	 ecx, DWORD PTR _this$[ebp]
  00af8	8b 51 78	 mov	 edx, DWORD PTR [ecx+120]
  00afb	89 95 58 ff ff
	ff		 mov	 DWORD PTR _rect$[ebp+8], edx

; 192  : 	rect.left	= m_iXSize - pTopRight->GetWidth();

  00b01	8b 4d 80	 mov	 ecx, DWORD PTR _pTopRight$[ebp]
  00b04	e8 00 00 00 00	 call	 ?GetWidth@CDibBitmap@@QAEHXZ ; CDibBitmap::GetWidth
  00b09	8b 4d ec	 mov	 ecx, DWORD PTR _this$[ebp]
  00b0c	8b 51 78	 mov	 edx, DWORD PTR [ecx+120]
  00b0f	2b d0		 sub	 edx, eax
  00b11	89 95 50 ff ff
	ff		 mov	 DWORD PTR _rect$[ebp], edx

; 193  : 	rect.top	= 0;	

  00b17	c7 85 54 ff ff
	ff 00 00 00 00	 mov	 DWORD PTR _rect$[ebp+4], 0

; 194  : 	rect.bottom = pTopLeft->GetHeight();

  00b21	8b 4d 84	 mov	 ecx, DWORD PTR _pTopLeft$[ebp]
  00b24	e8 00 00 00 00	 call	 ?GetHeight@CDibBitmap@@QAEHXZ ; CDibBitmap::GetHeight
  00b29	89 85 5c ff ff
	ff		 mov	 DWORD PTR _rect$[ebp+12], eax

; 195  : 	pTopRight->SetCDibRect(rect);

  00b2f	83 ec 10	 sub	 esp, 16			; 00000010H
  00b32	8b c4		 mov	 eax, esp
  00b34	8b 8d 50 ff ff
	ff		 mov	 ecx, DWORD PTR _rect$[ebp]
  00b3a	89 08		 mov	 DWORD PTR [eax], ecx
  00b3c	8b 95 54 ff ff
	ff		 mov	 edx, DWORD PTR _rect$[ebp+4]
  00b42	89 50 04	 mov	 DWORD PTR [eax+4], edx
  00b45	8b 8d 58 ff ff
	ff		 mov	 ecx, DWORD PTR _rect$[ebp+8]
  00b4b	89 48 08	 mov	 DWORD PTR [eax+8], ecx
  00b4e	8b 95 5c ff ff
	ff		 mov	 edx, DWORD PTR _rect$[ebp+12]
  00b54	89 50 0c	 mov	 DWORD PTR [eax+12], edx
  00b57	8b 4d 80	 mov	 ecx, DWORD PTR _pTopRight$[ebp]
  00b5a	e8 00 00 00 00	 call	 ?SetCDibRect@CDibBitmap@@QAEXVCRect@@@Z ; CDibBitmap::SetCDibRect

; 196  : 	pTopRight->Draw( pDC,TRUE );

  00b5f	6a 01		 push	 1
  00b61	6a 00		 push	 0
  00b63	6a 01		 push	 1
  00b65	8b 45 8c	 mov	 eax, DWORD PTR _pDC$[ebp]
  00b68	50		 push	 eax
  00b69	8b 4d 80	 mov	 ecx, DWORD PTR _pTopRight$[ebp]
  00b6c	e8 00 00 00 00	 call	 ?Draw@CDibBitmap@@QAEHPAVCDC@@HKH@Z ; CDibBitmap::Draw

; 197  : 
; 198  : 	rect.right	= m_iXSize-pTopRight->GetWidth();

  00b71	8b 4d 80	 mov	 ecx, DWORD PTR _pTopRight$[ebp]
  00b74	e8 00 00 00 00	 call	 ?GetWidth@CDibBitmap@@QAEHXZ ; CDibBitmap::GetWidth
  00b79	8b 4d ec	 mov	 ecx, DWORD PTR _this$[ebp]
  00b7c	8b 51 78	 mov	 edx, DWORD PTR [ecx+120]
  00b7f	2b d0		 sub	 edx, eax
  00b81	89 95 58 ff ff
	ff		 mov	 DWORD PTR _rect$[ebp+8], edx

; 199  : 	rect.left	= pTopLeft->GetWidth();;

  00b87	8b 4d 84	 mov	 ecx, DWORD PTR _pTopLeft$[ebp]
  00b8a	e8 00 00 00 00	 call	 ?GetWidth@CDibBitmap@@QAEHXZ ; CDibBitmap::GetWidth
  00b8f	89 85 50 ff ff
	ff		 mov	 DWORD PTR _rect$[ebp], eax

; 200  : 	rect.top	= 0;	

  00b95	c7 85 54 ff ff
	ff 00 00 00 00	 mov	 DWORD PTR _rect$[ebp+4], 0

; 201  : 	rect.bottom = pTopLeft->GetHeight();

  00b9f	8b 4d 84	 mov	 ecx, DWORD PTR _pTopLeft$[ebp]
  00ba2	e8 00 00 00 00	 call	 ?GetHeight@CDibBitmap@@QAEHXZ ; CDibBitmap::GetHeight
  00ba7	89 85 5c ff ff
	ff		 mov	 DWORD PTR _rect$[ebp+12], eax

; 202  : 	pTopMid->SetCDibRect(rect);

  00bad	83 ec 10	 sub	 esp, 16			; 00000010H
  00bb0	8b c4		 mov	 eax, esp
  00bb2	8b 8d 50 ff ff
	ff		 mov	 ecx, DWORD PTR _rect$[ebp]
  00bb8	89 08		 mov	 DWORD PTR [eax], ecx
  00bba	8b 95 54 ff ff
	ff		 mov	 edx, DWORD PTR _rect$[ebp+4]
  00bc0	89 50 04	 mov	 DWORD PTR [eax+4], edx
  00bc3	8b 8d 58 ff ff
	ff		 mov	 ecx, DWORD PTR _rect$[ebp+8]
  00bc9	89 48 08	 mov	 DWORD PTR [eax+8], ecx
  00bcc	8b 95 5c ff ff
	ff		 mov	 edx, DWORD PTR _rect$[ebp+12]
  00bd2	89 50 0c	 mov	 DWORD PTR [eax+12], edx
  00bd5	8b 8d 7c ff ff
	ff		 mov	 ecx, DWORD PTR _pTopMid$[ebp]
  00bdb	e8 00 00 00 00	 call	 ?SetCDibRect@CDibBitmap@@QAEXVCRect@@@Z ; CDibBitmap::SetCDibRect

; 203  : 	pTopMid->Draw( pDC,TRUE );

  00be0	6a 01		 push	 1
  00be2	6a 00		 push	 0
  00be4	6a 01		 push	 1
  00be6	8b 45 8c	 mov	 eax, DWORD PTR _pDC$[ebp]
  00be9	50		 push	 eax
  00bea	8b 8d 7c ff ff
	ff		 mov	 ecx, DWORD PTR _pTopMid$[ebp]
  00bf0	e8 00 00 00 00	 call	 ?Draw@CDibBitmap@@QAEHPAVCDC@@HKH@Z ; CDibBitmap::Draw

; 204  : 
; 205  : 	rect.left	= 0;

  00bf5	c7 85 50 ff ff
	ff 00 00 00 00	 mov	 DWORD PTR _rect$[ebp], 0

; 206  : 	rect.right  = pBottomLeft->GetWidth();

  00bff	8b 8d 6c ff ff
	ff		 mov	 ecx, DWORD PTR _pBottomLeft$[ebp]
  00c05	e8 00 00 00 00	 call	 ?GetWidth@CDibBitmap@@QAEHXZ ; CDibBitmap::GetWidth
  00c0a	89 85 58 ff ff
	ff		 mov	 DWORD PTR _rect$[ebp+8], eax

; 207  : 	rect.bottom	= m_iYSize;

  00c10	8b 4d ec	 mov	 ecx, DWORD PTR _this$[ebp]
  00c13	8b 51 7c	 mov	 edx, DWORD PTR [ecx+124]
  00c16	89 95 5c ff ff
	ff		 mov	 DWORD PTR _rect$[ebp+12], edx

; 208  : 	rect.top	= rect.bottom - pBottomLeft->GetHeight();

  00c1c	8b 8d 6c ff ff
	ff		 mov	 ecx, DWORD PTR _pBottomLeft$[ebp]
  00c22	e8 00 00 00 00	 call	 ?GetHeight@CDibBitmap@@QAEHXZ ; CDibBitmap::GetHeight
  00c27	8b 8d 5c ff ff
	ff		 mov	 ecx, DWORD PTR _rect$[ebp+12]
  00c2d	2b c8		 sub	 ecx, eax
  00c2f	89 8d 54 ff ff
	ff		 mov	 DWORD PTR _rect$[ebp+4], ecx

; 209  : 	pBottomLeft->SetCDibRect(rect);

  00c35	83 ec 10	 sub	 esp, 16			; 00000010H
  00c38	8b d4		 mov	 edx, esp
  00c3a	8b 85 50 ff ff
	ff		 mov	 eax, DWORD PTR _rect$[ebp]
  00c40	89 02		 mov	 DWORD PTR [edx], eax
  00c42	8b 8d 54 ff ff
	ff		 mov	 ecx, DWORD PTR _rect$[ebp+4]
  00c48	89 4a 04	 mov	 DWORD PTR [edx+4], ecx
  00c4b	8b 85 58 ff ff
	ff		 mov	 eax, DWORD PTR _rect$[ebp+8]
  00c51	89 42 08	 mov	 DWORD PTR [edx+8], eax
  00c54	8b 8d 5c ff ff
	ff		 mov	 ecx, DWORD PTR _rect$[ebp+12]
  00c5a	89 4a 0c	 mov	 DWORD PTR [edx+12], ecx
  00c5d	8b 8d 6c ff ff
	ff		 mov	 ecx, DWORD PTR _pBottomLeft$[ebp]
  00c63	e8 00 00 00 00	 call	 ?SetCDibRect@CDibBitmap@@QAEXVCRect@@@Z ; CDibBitmap::SetCDibRect

; 210  : 	pBottomLeft->Draw( pDC,TRUE );

  00c68	6a 01		 push	 1
  00c6a	6a 00		 push	 0
  00c6c	6a 01		 push	 1
  00c6e	8b 55 8c	 mov	 edx, DWORD PTR _pDC$[ebp]
  00c71	52		 push	 edx
  00c72	8b 8d 6c ff ff
	ff		 mov	 ecx, DWORD PTR _pBottomLeft$[ebp]
  00c78	e8 00 00 00 00	 call	 ?Draw@CDibBitmap@@QAEHPAVCDC@@HKH@Z ; CDibBitmap::Draw

; 211  : 
; 212  : 	rect.left	= m_iXSize-pBottomRight->GetWidth();

  00c7d	8b 8d 68 ff ff
	ff		 mov	 ecx, DWORD PTR _pBottomRight$[ebp]
  00c83	e8 00 00 00 00	 call	 ?GetWidth@CDibBitmap@@QAEHXZ ; CDibBitmap::GetWidth
  00c88	8b 4d ec	 mov	 ecx, DWORD PTR _this$[ebp]
  00c8b	8b 51 78	 mov	 edx, DWORD PTR [ecx+120]
  00c8e	2b d0		 sub	 edx, eax
  00c90	89 95 50 ff ff
	ff		 mov	 DWORD PTR _rect$[ebp], edx

; 213  : 	rect.right  = m_iXSize;

  00c96	8b 45 ec	 mov	 eax, DWORD PTR _this$[ebp]
  00c99	8b 48 78	 mov	 ecx, DWORD PTR [eax+120]
  00c9c	89 8d 58 ff ff
	ff		 mov	 DWORD PTR _rect$[ebp+8], ecx

; 214  : 	rect.bottom	= m_iYSize;

  00ca2	8b 55 ec	 mov	 edx, DWORD PTR _this$[ebp]
  00ca5	8b 42 7c	 mov	 eax, DWORD PTR [edx+124]
  00ca8	89 85 5c ff ff
	ff		 mov	 DWORD PTR _rect$[ebp+12], eax

; 215  : 	rect.top	= rect.bottom - pBottomLeft->GetHeight();

  00cae	8b 8d 6c ff ff
	ff		 mov	 ecx, DWORD PTR _pBottomLeft$[ebp]
  00cb4	e8 00 00 00 00	 call	 ?GetHeight@CDibBitmap@@QAEHXZ ; CDibBitmap::GetHeight
  00cb9	8b 8d 5c ff ff
	ff		 mov	 ecx, DWORD PTR _rect$[ebp+12]
  00cbf	2b c8		 sub	 ecx, eax
  00cc1	89 8d 54 ff ff
	ff		 mov	 DWORD PTR _rect$[ebp+4], ecx

; 216  : 	pBottomRight->SetCDibRect(rect);

  00cc7	83 ec 10	 sub	 esp, 16			; 00000010H
  00cca	8b d4		 mov	 edx, esp
  00ccc	8b 85 50 ff ff
	ff		 mov	 eax, DWORD PTR _rect$[ebp]
  00cd2	89 02		 mov	 DWORD PTR [edx], eax
  00cd4	8b 8d 54 ff ff
	ff		 mov	 ecx, DWORD PTR _rect$[ebp+4]
  00cda	89 4a 04	 mov	 DWORD PTR [edx+4], ecx
  00cdd	8b 85 58 ff ff
	ff		 mov	 eax, DWORD PTR _rect$[ebp+8]
  00ce3	89 42 08	 mov	 DWORD PTR [edx+8], eax
  00ce6	8b 8d 5c ff ff
	ff		 mov	 ecx, DWORD PTR _rect$[ebp+12]
  00cec	89 4a 0c	 mov	 DWORD PTR [edx+12], ecx
  00cef	8b 8d 68 ff ff
	ff		 mov	 ecx, DWORD PTR _pBottomRight$[ebp]
  00cf5	e8 00 00 00 00	 call	 ?SetCDibRect@CDibBitmap@@QAEXVCRect@@@Z ; CDibBitmap::SetCDibRect

; 217  : 	pBottomRight->Draw( pDC,TRUE );

  00cfa	6a 01		 push	 1
  00cfc	6a 00		 push	 0
  00cfe	6a 01		 push	 1
  00d00	8b 55 8c	 mov	 edx, DWORD PTR _pDC$[ebp]
  00d03	52		 push	 edx
  00d04	8b 8d 68 ff ff
	ff		 mov	 ecx, DWORD PTR _pBottomRight$[ebp]
  00d0a	e8 00 00 00 00	 call	 ?Draw@CDibBitmap@@QAEHPAVCDC@@HKH@Z ; CDibBitmap::Draw

; 218  : 
; 219  : 	rect.right	= m_iXSize-pBottomRight->GetWidth();

  00d0f	8b 8d 68 ff ff
	ff		 mov	 ecx, DWORD PTR _pBottomRight$[ebp]
  00d15	e8 00 00 00 00	 call	 ?GetWidth@CDibBitmap@@QAEHXZ ; CDibBitmap::GetWidth
  00d1a	8b 4d ec	 mov	 ecx, DWORD PTR _this$[ebp]
  00d1d	8b 51 78	 mov	 edx, DWORD PTR [ecx+120]
  00d20	2b d0		 sub	 edx, eax
  00d22	89 95 58 ff ff
	ff		 mov	 DWORD PTR _rect$[ebp+8], edx

; 220  : 	rect.left	= pBottomLeft->GetWidth();;

  00d28	8b 8d 6c ff ff
	ff		 mov	 ecx, DWORD PTR _pBottomLeft$[ebp]
  00d2e	e8 00 00 00 00	 call	 ?GetWidth@CDibBitmap@@QAEHXZ ; CDibBitmap::GetWidth
  00d33	89 85 50 ff ff
	ff		 mov	 DWORD PTR _rect$[ebp], eax

; 221  : 	rect.top	= m_iYSize - pBottomMid->GetHeight();	

  00d39	8b 8d 64 ff ff
	ff		 mov	 ecx, DWORD PTR _pBottomMid$[ebp]
  00d3f	e8 00 00 00 00	 call	 ?GetHeight@CDibBitmap@@QAEHXZ ; CDibBitmap::GetHeight
  00d44	8b 4d ec	 mov	 ecx, DWORD PTR _this$[ebp]
  00d47	8b 51 7c	 mov	 edx, DWORD PTR [ecx+124]
  00d4a	2b d0		 sub	 edx, eax
  00d4c	89 95 54 ff ff
	ff		 mov	 DWORD PTR _rect$[ebp+4], edx

; 222  : 	rect.bottom = m_iYSize;

  00d52	8b 45 ec	 mov	 eax, DWORD PTR _this$[ebp]
  00d55	8b 48 7c	 mov	 ecx, DWORD PTR [eax+124]
  00d58	89 8d 5c ff ff
	ff		 mov	 DWORD PTR _rect$[ebp+12], ecx

; 223  : 	pBottomMid->SetCDibRect(rect);

  00d5e	83 ec 10	 sub	 esp, 16			; 00000010H
  00d61	8b d4		 mov	 edx, esp
  00d63	8b 85 50 ff ff
	ff		 mov	 eax, DWORD PTR _rect$[ebp]
  00d69	89 02		 mov	 DWORD PTR [edx], eax
  00d6b	8b 8d 54 ff ff
	ff		 mov	 ecx, DWORD PTR _rect$[ebp+4]
  00d71	89 4a 04	 mov	 DWORD PTR [edx+4], ecx
  00d74	8b 85 58 ff ff
	ff		 mov	 eax, DWORD PTR _rect$[ebp+8]
  00d7a	89 42 08	 mov	 DWORD PTR [edx+8], eax
  00d7d	8b 8d 5c ff ff
	ff		 mov	 ecx, DWORD PTR _rect$[ebp+12]
  00d83	89 4a 0c	 mov	 DWORD PTR [edx+12], ecx
  00d86	8b 8d 64 ff ff
	ff		 mov	 ecx, DWORD PTR _pBottomMid$[ebp]
  00d8c	e8 00 00 00 00	 call	 ?SetCDibRect@CDibBitmap@@QAEXVCRect@@@Z ; CDibBitmap::SetCDibRect

; 224  : 	pBottomMid->Draw( pDC,TRUE );

  00d91	6a 01		 push	 1
  00d93	6a 00		 push	 0
  00d95	6a 01		 push	 1
  00d97	8b 55 8c	 mov	 edx, DWORD PTR _pDC$[ebp]
  00d9a	52		 push	 edx
  00d9b	8b 8d 64 ff ff
	ff		 mov	 ecx, DWORD PTR _pBottomMid$[ebp]
  00da1	e8 00 00 00 00	 call	 ?Draw@CDibBitmap@@QAEHPAVCDC@@HKH@Z ; CDibBitmap::Draw

; 225  : 
; 226  : 	rect.left	= 0;

  00da6	c7 85 50 ff ff
	ff 00 00 00 00	 mov	 DWORD PTR _rect$[ebp], 0

; 227  : 	rect.right  = pCenterLeft->GetWidth();

  00db0	8b 8d 74 ff ff
	ff		 mov	 ecx, DWORD PTR _pCenterLeft$[ebp]
  00db6	e8 00 00 00 00	 call	 ?GetWidth@CDibBitmap@@QAEHXZ ; CDibBitmap::GetWidth
  00dbb	89 85 58 ff ff
	ff		 mov	 DWORD PTR _rect$[ebp+8], eax

; 228  : 	rect.bottom	= m_iYSize-pBottomLeft->GetHeight();

  00dc1	8b 8d 6c ff ff
	ff		 mov	 ecx, DWORD PTR _pBottomLeft$[ebp]
  00dc7	e8 00 00 00 00	 call	 ?GetHeight@CDibBitmap@@QAEHXZ ; CDibBitmap::GetHeight
  00dcc	8b 4d ec	 mov	 ecx, DWORD PTR _this$[ebp]
  00dcf	8b 51 7c	 mov	 edx, DWORD PTR [ecx+124]
  00dd2	2b d0		 sub	 edx, eax
  00dd4	89 95 5c ff ff
	ff		 mov	 DWORD PTR _rect$[ebp+12], edx

; 229  : 	rect.top	= pTopLeft->GetHeight();

  00dda	8b 4d 84	 mov	 ecx, DWORD PTR _pTopLeft$[ebp]
  00ddd	e8 00 00 00 00	 call	 ?GetHeight@CDibBitmap@@QAEHXZ ; CDibBitmap::GetHeight
  00de2	89 85 54 ff ff
	ff		 mov	 DWORD PTR _rect$[ebp+4], eax

; 230  : 	pCenterLeft->SetCDibRect(rect);

  00de8	83 ec 10	 sub	 esp, 16			; 00000010H
  00deb	8b c4		 mov	 eax, esp
  00ded	8b 8d 50 ff ff
	ff		 mov	 ecx, DWORD PTR _rect$[ebp]
  00df3	89 08		 mov	 DWORD PTR [eax], ecx
  00df5	8b 95 54 ff ff
	ff		 mov	 edx, DWORD PTR _rect$[ebp+4]
  00dfb	89 50 04	 mov	 DWORD PTR [eax+4], edx
  00dfe	8b 8d 58 ff ff
	ff		 mov	 ecx, DWORD PTR _rect$[ebp+8]
  00e04	89 48 08	 mov	 DWORD PTR [eax+8], ecx
  00e07	8b 95 5c ff ff
	ff		 mov	 edx, DWORD PTR _rect$[ebp+12]
  00e0d	89 50 0c	 mov	 DWORD PTR [eax+12], edx
  00e10	8b 8d 74 ff ff
	ff		 mov	 ecx, DWORD PTR _pCenterLeft$[ebp]
  00e16	e8 00 00 00 00	 call	 ?SetCDibRect@CDibBitmap@@QAEXVCRect@@@Z ; CDibBitmap::SetCDibRect

; 231  : 	pCenterLeft->Draw( pDC,TRUE );

  00e1b	6a 01		 push	 1
  00e1d	6a 00		 push	 0
  00e1f	6a 01		 push	 1
  00e21	8b 45 8c	 mov	 eax, DWORD PTR _pDC$[ebp]
  00e24	50		 push	 eax
  00e25	8b 8d 74 ff ff
	ff		 mov	 ecx, DWORD PTR _pCenterLeft$[ebp]
  00e2b	e8 00 00 00 00	 call	 ?Draw@CDibBitmap@@QAEHPAVCDC@@HKH@Z ; CDibBitmap::Draw

; 232  : 
; 233  : 	rect.left	= m_iXSize-pCenterRight->GetWidth();

  00e30	8b 8d 70 ff ff
	ff		 mov	 ecx, DWORD PTR _pCenterRight$[ebp]
  00e36	e8 00 00 00 00	 call	 ?GetWidth@CDibBitmap@@QAEHXZ ; CDibBitmap::GetWidth
  00e3b	8b 4d ec	 mov	 ecx, DWORD PTR _this$[ebp]
  00e3e	8b 51 78	 mov	 edx, DWORD PTR [ecx+120]
  00e41	2b d0		 sub	 edx, eax
  00e43	89 95 50 ff ff
	ff		 mov	 DWORD PTR _rect$[ebp], edx

; 234  : 	rect.right  = m_iXSize;

  00e49	8b 45 ec	 mov	 eax, DWORD PTR _this$[ebp]
  00e4c	8b 48 78	 mov	 ecx, DWORD PTR [eax+120]
  00e4f	89 8d 58 ff ff
	ff		 mov	 DWORD PTR _rect$[ebp+8], ecx

; 235  : 	rect.bottom	= m_iYSize-pBottomRight->GetHeight();

  00e55	8b 8d 68 ff ff
	ff		 mov	 ecx, DWORD PTR _pBottomRight$[ebp]
  00e5b	e8 00 00 00 00	 call	 ?GetHeight@CDibBitmap@@QAEHXZ ; CDibBitmap::GetHeight
  00e60	8b 55 ec	 mov	 edx, DWORD PTR _this$[ebp]
  00e63	8b 4a 7c	 mov	 ecx, DWORD PTR [edx+124]
  00e66	2b c8		 sub	 ecx, eax
  00e68	89 8d 5c ff ff
	ff		 mov	 DWORD PTR _rect$[ebp+12], ecx

; 236  : 	rect.top	= pTopRight->GetHeight();

  00e6e	8b 4d 80	 mov	 ecx, DWORD PTR _pTopRight$[ebp]
  00e71	e8 00 00 00 00	 call	 ?GetHeight@CDibBitmap@@QAEHXZ ; CDibBitmap::GetHeight
  00e76	89 85 54 ff ff
	ff		 mov	 DWORD PTR _rect$[ebp+4], eax

; 237  : 	pCenterRight->SetCDibRect(rect);

  00e7c	83 ec 10	 sub	 esp, 16			; 00000010H
  00e7f	8b d4		 mov	 edx, esp
  00e81	8b 85 50 ff ff
	ff		 mov	 eax, DWORD PTR _rect$[ebp]
  00e87	89 02		 mov	 DWORD PTR [edx], eax
  00e89	8b 8d 54 ff ff
	ff		 mov	 ecx, DWORD PTR _rect$[ebp+4]
  00e8f	89 4a 04	 mov	 DWORD PTR [edx+4], ecx
  00e92	8b 85 58 ff ff
	ff		 mov	 eax, DWORD PTR _rect$[ebp+8]
  00e98	89 42 08	 mov	 DWORD PTR [edx+8], eax
  00e9b	8b 8d 5c ff ff
	ff		 mov	 ecx, DWORD PTR _rect$[ebp+12]
  00ea1	89 4a 0c	 mov	 DWORD PTR [edx+12], ecx
  00ea4	8b 8d 70 ff ff
	ff		 mov	 ecx, DWORD PTR _pCenterRight$[ebp]
  00eaa	e8 00 00 00 00	 call	 ?SetCDibRect@CDibBitmap@@QAEXVCRect@@@Z ; CDibBitmap::SetCDibRect

; 238  : 	pCenterRight->Draw( pDC,TRUE );

  00eaf	6a 01		 push	 1
  00eb1	6a 00		 push	 0
  00eb3	6a 01		 push	 1
  00eb5	8b 55 8c	 mov	 edx, DWORD PTR _pDC$[ebp]
  00eb8	52		 push	 edx
  00eb9	8b 8d 70 ff ff
	ff		 mov	 ecx, DWORD PTR _pCenterRight$[ebp]
  00ebf	e8 00 00 00 00	 call	 ?Draw@CDibBitmap@@QAEHPAVCDC@@HKH@Z ; CDibBitmap::Draw

; 239  : 
; 240  : 	rect.left	= pCenterLeft->GetWidth();

  00ec4	8b 8d 74 ff ff
	ff		 mov	 ecx, DWORD PTR _pCenterLeft$[ebp]
  00eca	e8 00 00 00 00	 call	 ?GetWidth@CDibBitmap@@QAEHXZ ; CDibBitmap::GetWidth
  00ecf	89 85 50 ff ff
	ff		 mov	 DWORD PTR _rect$[ebp], eax

; 241  : 	rect.right  = m_iXSize-pCenterRight->GetWidth();

  00ed5	8b 8d 70 ff ff
	ff		 mov	 ecx, DWORD PTR _pCenterRight$[ebp]
  00edb	e8 00 00 00 00	 call	 ?GetWidth@CDibBitmap@@QAEHXZ ; CDibBitmap::GetWidth
  00ee0	8b 4d ec	 mov	 ecx, DWORD PTR _this$[ebp]
  00ee3	8b 51 78	 mov	 edx, DWORD PTR [ecx+120]
  00ee6	2b d0		 sub	 edx, eax
  00ee8	89 95 58 ff ff
	ff		 mov	 DWORD PTR _rect$[ebp+8], edx

; 242  : 	rect.bottom	= m_iYSize-pBottomRight->GetHeight();

  00eee	8b 8d 68 ff ff
	ff		 mov	 ecx, DWORD PTR _pBottomRight$[ebp]
  00ef4	e8 00 00 00 00	 call	 ?GetHeight@CDibBitmap@@QAEHXZ ; CDibBitmap::GetHeight
  00ef9	8b 4d ec	 mov	 ecx, DWORD PTR _this$[ebp]
  00efc	8b 51 7c	 mov	 edx, DWORD PTR [ecx+124]
  00eff	2b d0		 sub	 edx, eax
  00f01	89 95 5c ff ff
	ff		 mov	 DWORD PTR _rect$[ebp+12], edx

; 243  : 	rect.top	= pTopRight->GetHeight();

  00f07	8b 4d 80	 mov	 ecx, DWORD PTR _pTopRight$[ebp]
  00f0a	e8 00 00 00 00	 call	 ?GetHeight@CDibBitmap@@QAEHXZ ; CDibBitmap::GetHeight
  00f0f	89 85 54 ff ff
	ff		 mov	 DWORD PTR _rect$[ebp+4], eax

; 244  : 	pCenter->SetCDibRect(rect);

  00f15	83 ec 10	 sub	 esp, 16			; 00000010H
  00f18	8b c4		 mov	 eax, esp
  00f1a	8b 8d 50 ff ff
	ff		 mov	 ecx, DWORD PTR _rect$[ebp]
  00f20	89 08		 mov	 DWORD PTR [eax], ecx
  00f22	8b 95 54 ff ff
	ff		 mov	 edx, DWORD PTR _rect$[ebp+4]
  00f28	89 50 04	 mov	 DWORD PTR [eax+4], edx
  00f2b	8b 8d 58 ff ff
	ff		 mov	 ecx, DWORD PTR _rect$[ebp+8]
  00f31	89 48 08	 mov	 DWORD PTR [eax+8], ecx
  00f34	8b 95 5c ff ff
	ff		 mov	 edx, DWORD PTR _rect$[ebp+12]
  00f3a	89 50 0c	 mov	 DWORD PTR [eax+12], edx
  00f3d	8b 8d 78 ff ff
	ff		 mov	 ecx, DWORD PTR _pCenter$[ebp]
  00f43	e8 00 00 00 00	 call	 ?SetCDibRect@CDibBitmap@@QAEXVCRect@@@Z ; CDibBitmap::SetCDibRect

; 245  : 	pCenter->Draw( pDC,TRUE );

  00f48	6a 01		 push	 1
  00f4a	6a 00		 push	 0
  00f4c	6a 01		 push	 1
  00f4e	8b 45 8c	 mov	 eax, DWORD PTR _pDC$[ebp]
  00f51	50		 push	 eax
  00f52	8b 8d 78 ff ff
	ff		 mov	 ecx, DWORD PTR _pCenter$[ebp]
  00f58	e8 00 00 00 00	 call	 ?Draw@CDibBitmap@@QAEHPAVCDC@@HKH@Z ; CDibBitmap::Draw

; 246  : 
; 247  : 	CFont* pFont = (CFont*)pDC->SelectObject( &m_titleFont );

  00f5d	8b 4d ec	 mov	 ecx, DWORD PTR _this$[ebp]
  00f60	81 c1 c0 00 00
	00		 add	 ecx, 192		; 000000c0H
  00f66	8b f4		 mov	 esi, esp
  00f68	51		 push	 ecx
  00f69	8b 55 8c	 mov	 edx, DWORD PTR _pDC$[ebp]
  00f6c	8b 02		 mov	 eax, DWORD PTR [edx]
  00f6e	8b 4d 8c	 mov	 ecx, DWORD PTR _pDC$[ebp]
  00f71	ff 50 30	 call	 DWORD PTR [eax+48]
  00f74	3b f4		 cmp	 esi, esp
  00f76	e8 00 00 00 00	 call	 __RTC_CheckEsp
  00f7b	89 85 48 ff ff
	ff		 mov	 DWORD PTR _pFont$[ebp], eax

; 248  : 	pDC->SetBkMode(TRANSPARENT);

  00f81	6a 01		 push	 1
  00f83	8b 4d 8c	 mov	 ecx, DWORD PTR _pDC$[ebp]
  00f86	e8 00 00 00 00	 call	 ?SetBkMode@CDC@@QAEHH@Z	; CDC::SetBkMode

; 249  : 	pDC->SetTextColor(RGB(28,68,91));	

  00f8b	8b f4		 mov	 esi, esp
  00f8d	68 1c 44 5b 00	 push	 5981212			; 005b441cH
  00f92	8b 4d 8c	 mov	 ecx, DWORD PTR _pDC$[ebp]
  00f95	8b 11		 mov	 edx, DWORD PTR [ecx]
  00f97	8b 4d 8c	 mov	 ecx, DWORD PTR _pDC$[ebp]
  00f9a	ff 52 38	 call	 DWORD PTR [edx+56]
  00f9d	3b f4		 cmp	 esi, esp
  00f9f	e8 00 00 00 00	 call	 __RTC_CheckEsp

; 250  : 	pDC->DrawText(m_strTitle,m_titleRect,DT_LEFT);

  00fa4	6a 00		 push	 0
  00fa6	8b 4d ec	 mov	 ecx, DWORD PTR _this$[ebp]
  00fa9	81 c1 90 00 00
	00		 add	 ecx, 144		; 00000090H
  00faf	e8 00 00 00 00	 call	 ??BCRect@@QAEPAUtagRECT@@XZ ; CRect::operator tagRECT *
  00fb4	50		 push	 eax
  00fb5	8b 45 ec	 mov	 eax, DWORD PTR _this$[ebp]
  00fb8	83 c0 74	 add	 eax, 116		; 00000074H
  00fbb	50		 push	 eax
  00fbc	8b 4d 8c	 mov	 ecx, DWORD PTR _pDC$[ebp]
  00fbf	e8 00 00 00 00	 call	 ?DrawTextA@CDC@@QAEHABV?$CStringT@DV?$StrTraitMFC_DLL@DV?$ChTraitsCRT@D@ATL@@@@@ATL@@PAUtagRECT@@I@Z ; CDC::DrawTextA

; 251  : 	pDC->SelectObject(pFont);

  00fc4	8b f4		 mov	 esi, esp
  00fc6	8b 8d 48 ff ff
	ff		 mov	 ecx, DWORD PTR _pFont$[ebp]
  00fcc	51		 push	 ecx
  00fcd	8b 55 8c	 mov	 edx, DWORD PTR _pDC$[ebp]
  00fd0	8b 02		 mov	 eax, DWORD PTR [edx]
  00fd2	8b 4d 8c	 mov	 ecx, DWORD PTR _pDC$[ebp]
  00fd5	ff 50 30	 call	 DWORD PTR [eax+48]
  00fd8	3b f4		 cmp	 esi, esp
  00fda	e8 00 00 00 00	 call	 __RTC_CheckEsp

; 252  : 
; 253  : 
; 254  : 	pFont = (CFont*)pDC->SelectObject( &m_msgFont );

  00fdf	8b 4d ec	 mov	 ecx, DWORD PTR _this$[ebp]
  00fe2	81 c1 c8 00 00
	00		 add	 ecx, 200		; 000000c8H
  00fe8	8b f4		 mov	 esi, esp
  00fea	51		 push	 ecx
  00feb	8b 55 8c	 mov	 edx, DWORD PTR _pDC$[ebp]
  00fee	8b 02		 mov	 eax, DWORD PTR [edx]
  00ff0	8b 4d 8c	 mov	 ecx, DWORD PTR _pDC$[ebp]
  00ff3	ff 50 30	 call	 DWORD PTR [eax+48]
  00ff6	3b f4		 cmp	 esi, esp
  00ff8	e8 00 00 00 00	 call	 __RTC_CheckEsp
  00ffd	89 85 48 ff ff
	ff		 mov	 DWORD PTR _pFont$[ebp], eax

; 255  : 	pDC->SetTextColor(RGB(48,54,54));

  01003	8b f4		 mov	 esi, esp
  01005	68 30 36 36 00	 push	 3552816			; 00363630H
  0100a	8b 4d 8c	 mov	 ecx, DWORD PTR _pDC$[ebp]
  0100d	8b 11		 mov	 edx, DWORD PTR [ecx]
  0100f	8b 4d 8c	 mov	 ecx, DWORD PTR _pDC$[ebp]
  01012	ff 52 38	 call	 DWORD PTR [edx+56]
  01015	3b f4		 cmp	 esi, esp
  01017	e8 00 00 00 00	 call	 __RTC_CheckEsp

; 256  : 
; 257  : 	CString str;

  0101c	8b f4		 mov	 esi, esp
  0101e	8d 8d 40 ff ff
	ff		 lea	 ecx, DWORD PTR _str$[ebp]
  01024	ff 15 00 00 00
	00		 call	 DWORD PTR __imp_??0?$CStringT@DV?$StrTraitMFC_DLL@DV?$ChTraitsCRT@D@ATL@@@@@ATL@@QAE@XZ
  0102a	3b f4		 cmp	 esi, esp
  0102c	e8 00 00 00 00	 call	 __RTC_CheckEsp
  01031	c6 45 fc 02	 mov	 BYTE PTR __$EHRec$[ebp+8], 2

; 258  : 	int		iStartPos = 0;

  01035	c7 85 38 ff ff
	ff 00 00 00 00	 mov	 DWORD PTR _iStartPos$[ebp], 0

; 259  : 	int		iLastPos  = m_strMsg.Find("\r\n",iStartPos);

  0103f	8b f4		 mov	 esi, esp
  01041	8b 85 38 ff ff
	ff		 mov	 eax, DWORD PTR _iStartPos$[ebp]
  01047	50		 push	 eax
  01048	68 00 00 00 00	 push	 OFFSET FLAT:$SG187548
  0104d	8b 4d ec	 mov	 ecx, DWORD PTR _this$[ebp]
  01050	81 c1 8c 00 00
	00		 add	 ecx, 140		; 0000008cH
  01056	ff 15 00 00 00
	00		 call	 DWORD PTR __imp_?Find@?$CStringT@DV?$StrTraitMFC_DLL@DV?$ChTraitsCRT@D@ATL@@@@@ATL@@QBEHPBDH@Z
  0105c	3b f4		 cmp	 esi, esp
  0105e	e8 00 00 00 00	 call	 __RTC_CheckEsp
  01063	89 85 34 ff ff
	ff		 mov	 DWORD PTR _iLastPos$[ebp], eax

; 260  : 
; 261  : 	CRect   rect2 = m_msgRect;

  01069	8b 4d ec	 mov	 ecx, DWORD PTR _this$[ebp]
  0106c	81 c1 a0 00 00
	00		 add	 ecx, 160		; 000000a0H
  01072	8b 11		 mov	 edx, DWORD PTR [ecx]
  01074	89 95 20 ff ff
	ff		 mov	 DWORD PTR _rect2$[ebp], edx
  0107a	8b 41 04	 mov	 eax, DWORD PTR [ecx+4]
  0107d	89 85 24 ff ff
	ff		 mov	 DWORD PTR _rect2$[ebp+4], eax
  01083	8b 51 08	 mov	 edx, DWORD PTR [ecx+8]
  01086	89 95 28 ff ff
	ff		 mov	 DWORD PTR _rect2$[ebp+8], edx
  0108c	8b 41 0c	 mov	 eax, DWORD PTR [ecx+12]
  0108f	89 85 2c ff ff
	ff		 mov	 DWORD PTR _rect2$[ebp+12], eax
$L187551:

; 262  : 
; 263  : 	while(  iLastPos != -1)

  01095	83 bd 34 ff ff
	ff ff		 cmp	 DWORD PTR _iLastPos$[ebp], -1
  0109c	0f 84 e8 00 00
	00		 je	 $L187552

; 264  : 	{
; 265  : 		str = m_strMsg.Mid(iStartPos,iLastPos-iStartPos);

  010a2	8b 8d 34 ff ff
	ff		 mov	 ecx, DWORD PTR _iLastPos$[ebp]
  010a8	2b 8d 38 ff ff
	ff		 sub	 ecx, DWORD PTR _iStartPos$[ebp]
  010ae	8b f4		 mov	 esi, esp
  010b0	51		 push	 ecx
  010b1	8b 95 38 ff ff
	ff		 mov	 edx, DWORD PTR _iStartPos$[ebp]
  010b7	52		 push	 edx
  010b8	8d 85 f0 fe ff
	ff		 lea	 eax, DWORD PTR $T188305[ebp]
  010be	50		 push	 eax
  010bf	8b 4d ec	 mov	 ecx, DWORD PTR _this$[ebp]
  010c2	81 c1 8c 00 00
	00		 add	 ecx, 140		; 0000008cH
  010c8	ff 15 00 00 00
	00		 call	 DWORD PTR __imp_?Mid@?$CStringT@DV?$StrTraitMFC_DLL@DV?$ChTraitsCRT@D@ATL@@@@@ATL@@QBE?AV12@HH@Z
  010ce	3b f4		 cmp	 esi, esp
  010d0	e8 00 00 00 00	 call	 __RTC_CheckEsp
  010d5	89 85 d8 fe ff
	ff		 mov	 DWORD PTR tv479[ebp], eax
  010db	8b 8d d8 fe ff
	ff		 mov	 ecx, DWORD PTR tv479[ebp]
  010e1	89 8d d4 fe ff
	ff		 mov	 DWORD PTR tv475[ebp], ecx
  010e7	c6 45 fc 03	 mov	 BYTE PTR __$EHRec$[ebp+8], 3
  010eb	8b f4		 mov	 esi, esp
  010ed	8b 95 d4 fe ff
	ff		 mov	 edx, DWORD PTR tv475[ebp]
  010f3	52		 push	 edx
  010f4	8d 8d 40 ff ff
	ff		 lea	 ecx, DWORD PTR _str$[ebp]
  010fa	ff 15 00 00 00
	00		 call	 DWORD PTR __imp_??4?$CStringT@DV?$StrTraitMFC_DLL@DV?$ChTraitsCRT@D@ATL@@@@@ATL@@QAEAAV01@ABV01@@Z
  01100	3b f4		 cmp	 esi, esp
  01102	e8 00 00 00 00	 call	 __RTC_CheckEsp
  01107	c6 45 fc 02	 mov	 BYTE PTR __$EHRec$[ebp+8], 2
  0110b	8b f4		 mov	 esi, esp
  0110d	8d 8d f0 fe ff
	ff		 lea	 ecx, DWORD PTR $T188305[ebp]
  01113	ff 15 00 00 00
	00		 call	 DWORD PTR __imp_??1?$CStringT@DV?$StrTraitMFC_DLL@DV?$ChTraitsCRT@D@ATL@@@@@ATL@@QAE@XZ
  01119	3b f4		 cmp	 esi, esp
  0111b	e8 00 00 00 00	 call	 __RTC_CheckEsp

; 266  : 		pDC->DrawText(str,rect2,DT_LEFT);

  01120	6a 00		 push	 0
  01122	8d 8d 20 ff ff
	ff		 lea	 ecx, DWORD PTR _rect2$[ebp]
  01128	e8 00 00 00 00	 call	 ??BCRect@@QAEPAUtagRECT@@XZ ; CRect::operator tagRECT *
  0112d	50		 push	 eax
  0112e	8d 85 40 ff ff
	ff		 lea	 eax, DWORD PTR _str$[ebp]
  01134	50		 push	 eax
  01135	8b 4d 8c	 mov	 ecx, DWORD PTR _pDC$[ebp]
  01138	e8 00 00 00 00	 call	 ?DrawTextA@CDC@@QAEHABV?$CStringT@DV?$StrTraitMFC_DLL@DV?$ChTraitsCRT@D@ATL@@@@@ATL@@PAUtagRECT@@I@Z ; CDC::DrawTextA

; 267  : 		rect2.top += 15;

  0113d	8b 8d 24 ff ff
	ff		 mov	 ecx, DWORD PTR _rect2$[ebp+4]
  01143	83 c1 0f	 add	 ecx, 15			; 0000000fH
  01146	89 8d 24 ff ff
	ff		 mov	 DWORD PTR _rect2$[ebp+4], ecx

; 268  : 		iStartPos = iLastPos + 2;

  0114c	8b 95 34 ff ff
	ff		 mov	 edx, DWORD PTR _iLastPos$[ebp]
  01152	83 c2 02	 add	 edx, 2
  01155	89 95 38 ff ff
	ff		 mov	 DWORD PTR _iStartPos$[ebp], edx

; 269  : 		iLastPos  = m_strMsg.Find("\r\n",iStartPos);

  0115b	8b f4		 mov	 esi, esp
  0115d	8b 85 38 ff ff
	ff		 mov	 eax, DWORD PTR _iStartPos$[ebp]
  01163	50		 push	 eax
  01164	68 00 00 00 00	 push	 OFFSET FLAT:$SG187554
  01169	8b 4d ec	 mov	 ecx, DWORD PTR _this$[ebp]
  0116c	81 c1 8c 00 00
	00		 add	 ecx, 140		; 0000008cH
  01172	ff 15 00 00 00
	00		 call	 DWORD PTR __imp_?Find@?$CStringT@DV?$StrTraitMFC_DLL@DV?$ChTraitsCRT@D@ATL@@@@@ATL@@QBEHPBDH@Z
  01178	3b f4		 cmp	 esi, esp
  0117a	e8 00 00 00 00	 call	 __RTC_CheckEsp
  0117f	89 85 34 ff ff
	ff		 mov	 DWORD PTR _iLastPos$[ebp], eax

; 270  : 	}

  01185	e9 0b ff ff ff	 jmp	 $L187551
$L187552:

; 271  : 
; 272  : 	str = m_strMsg.Right(m_strMsg.GetLength()-iStartPos);

  0118a	8b 4d ec	 mov	 ecx, DWORD PTR _this$[ebp]
  0118d	81 c1 8c 00 00
	00		 add	 ecx, 140		; 0000008cH
  01193	8b f4		 mov	 esi, esp
  01195	ff 15 00 00 00
	00		 call	 DWORD PTR __imp_?GetLength@?$CSimpleStringT@D$00@ATL@@QBEHXZ
  0119b	3b f4		 cmp	 esi, esp
  0119d	e8 00 00 00 00	 call	 __RTC_CheckEsp
  011a2	2b 85 38 ff ff
	ff		 sub	 eax, DWORD PTR _iStartPos$[ebp]
  011a8	8b f4		 mov	 esi, esp
  011aa	50		 push	 eax
  011ab	8d 8d ec fe ff
	ff		 lea	 ecx, DWORD PTR $T188306[ebp]
  011b1	51		 push	 ecx
  011b2	8b 4d ec	 mov	 ecx, DWORD PTR _this$[ebp]
  011b5	81 c1 8c 00 00
	00		 add	 ecx, 140		; 0000008cH
  011bb	ff 15 00 00 00
	00		 call	 DWORD PTR __imp_?Right@?$CStringT@DV?$StrTraitMFC_DLL@DV?$ChTraitsCRT@D@ATL@@@@@ATL@@QBE?AV12@H@Z
  011c1	3b f4		 cmp	 esi, esp
  011c3	e8 00 00 00 00	 call	 __RTC_CheckEsp
  011c8	89 85 d0 fe ff
	ff		 mov	 DWORD PTR tv482[ebp], eax
  011ce	8b 95 d0 fe ff
	ff		 mov	 edx, DWORD PTR tv482[ebp]
  011d4	89 95 cc fe ff
	ff		 mov	 DWORD PTR tv477[ebp], edx
  011da	c6 45 fc 04	 mov	 BYTE PTR __$EHRec$[ebp+8], 4
  011de	8b f4		 mov	 esi, esp
  011e0	8b 85 cc fe ff
	ff		 mov	 eax, DWORD PTR tv477[ebp]
  011e6	50		 push	 eax
  011e7	8d 8d 40 ff ff
	ff		 lea	 ecx, DWORD PTR _str$[ebp]
  011ed	ff 15 00 00 00
	00		 call	 DWORD PTR __imp_??4?$CStringT@DV?$StrTraitMFC_DLL@DV?$ChTraitsCRT@D@ATL@@@@@ATL@@QAEAAV01@ABV01@@Z
  011f3	3b f4		 cmp	 esi, esp
  011f5	e8 00 00 00 00	 call	 __RTC_CheckEsp
  011fa	c6 45 fc 02	 mov	 BYTE PTR __$EHRec$[ebp+8], 2
  011fe	8b f4		 mov	 esi, esp
  01200	8d 8d ec fe ff
	ff		 lea	 ecx, DWORD PTR $T188306[ebp]
  01206	ff 15 00 00 00
	00		 call	 DWORD PTR __imp_??1?$CStringT@DV?$StrTraitMFC_DLL@DV?$ChTraitsCRT@D@ATL@@@@@ATL@@QAE@XZ
  0120c	3b f4		 cmp	 esi, esp
  0120e	e8 00 00 00 00	 call	 __RTC_CheckEsp

; 273  : 
; 274  : 	pDC->DrawText(str,rect2,DT_LEFT);	

  01213	6a 00		 push	 0
  01215	8d 8d 20 ff ff
	ff		 lea	 ecx, DWORD PTR _rect2$[ebp]
  0121b	e8 00 00 00 00	 call	 ??BCRect@@QAEPAUtagRECT@@XZ ; CRect::operator tagRECT *
  01220	50		 push	 eax
  01221	8d 8d 40 ff ff
	ff		 lea	 ecx, DWORD PTR _str$[ebp]
  01227	51		 push	 ecx
  01228	8b 4d 8c	 mov	 ecx, DWORD PTR _pDC$[ebp]
  0122b	e8 00 00 00 00	 call	 ?DrawTextA@CDC@@QAEHABV?$CStringT@DV?$StrTraitMFC_DLL@DV?$ChTraitsCRT@D@ATL@@@@@ATL@@PAUtagRECT@@I@Z ; CDC::DrawTextA

; 275  : 
; 276  : 	if( m_bShowCheckBox )

  01230	8b 55 ec	 mov	 edx, DWORD PTR _this$[ebp]
  01233	83 ba d0 00 00
	00 00		 cmp	 DWORD PTR [edx+208], 0
  0123a	0f 84 da 00 00
	00		 je	 $L187556

; 277  : 	{
; 278  : 		rect2.left = 25+2;

  01240	c7 85 20 ff ff
	ff 1b 00 00 00	 mov	 DWORD PTR _rect2$[ebp], 27 ; 0000001bH

; 279  : 		rect2.top  = 107+2;

  0124a	c7 85 24 ff ff
	ff 6d 00 00 00	 mov	 DWORD PTR _rect2$[ebp+4], 109 ; 0000006dH

; 280  : 		rect2.bottom = 107+30;

  01254	c7 85 2c ff ff
	ff 89 00 00 00	 mov	 DWORD PTR _rect2$[ebp+12], 137 ; 00000089H

; 281  : 		rect2.right  = 25+100;

  0125e	c7 85 28 ff ff
	ff 7d 00 00 00	 mov	 DWORD PTR _rect2$[ebp+8], 125 ; 0000007dH

; 282  : 
; 283  : 		SIZE s;
; 284  : 		GetTextExtentPoint(pDC->m_hDC,m_strCheckBox,m_strCheckBox.GetLength(),&s);

  01268	8b f4		 mov	 esi, esp
  0126a	8d 85 10 ff ff
	ff		 lea	 eax, DWORD PTR _s$187557[ebp]
  01270	50		 push	 eax
  01271	8b 4d ec	 mov	 ecx, DWORD PTR _this$[ebp]
  01274	81 c1 d4 00 00
	00		 add	 ecx, 212		; 000000d4H
  0127a	8b fc		 mov	 edi, esp
  0127c	ff 15 00 00 00
	00		 call	 DWORD PTR __imp_?GetLength@?$CSimpleStringT@D$00@ATL@@QBEHXZ
  01282	3b fc		 cmp	 edi, esp
  01284	e8 00 00 00 00	 call	 __RTC_CheckEsp
  01289	50		 push	 eax
  0128a	8b 4d ec	 mov	 ecx, DWORD PTR _this$[ebp]
  0128d	81 c1 d4 00 00
	00		 add	 ecx, 212		; 000000d4H
  01293	8b fc		 mov	 edi, esp
  01295	ff 15 00 00 00
	00		 call	 DWORD PTR __imp_??B?$CSimpleStringT@D$00@ATL@@QBEPBDXZ
  0129b	3b fc		 cmp	 edi, esp
  0129d	e8 00 00 00 00	 call	 __RTC_CheckEsp
  012a2	50		 push	 eax
  012a3	8b 4d 8c	 mov	 ecx, DWORD PTR _pDC$[ebp]
  012a6	8b 51 04	 mov	 edx, DWORD PTR [ecx+4]
  012a9	52		 push	 edx
  012aa	ff 15 00 00 00
	00		 call	 DWORD PTR __imp__GetTextExtentPointA@16
  012b0	3b f4		 cmp	 esi, esp
  012b2	e8 00 00 00 00	 call	 __RTC_CheckEsp

; 285  : 		pDC->DrawText(m_strCheckBox,rect2,DT_LEFT);

  012b7	6a 00		 push	 0
  012b9	8d 8d 20 ff ff
	ff		 lea	 ecx, DWORD PTR _rect2$[ebp]
  012bf	e8 00 00 00 00	 call	 ??BCRect@@QAEPAUtagRECT@@XZ ; CRect::operator tagRECT *
  012c4	50		 push	 eax
  012c5	8b 45 ec	 mov	 eax, DWORD PTR _this$[ebp]
  012c8	05 d4 00 00 00	 add	 eax, 212		; 000000d4H
  012cd	50		 push	 eax
  012ce	8b 4d 8c	 mov	 ecx, DWORD PTR _pDC$[ebp]
  012d1	e8 00 00 00 00	 call	 ?DrawTextA@CDC@@QAEHABV?$CStringT@DV?$StrTraitMFC_DLL@DV?$ChTraitsCRT@D@ATL@@@@@ATL@@PAUtagRECT@@I@Z ; CDC::DrawTextA

; 286  : 
; 287  : 		m_NoMoreHintRect = rect2;

  012d6	8b 4d ec	 mov	 ecx, DWORD PTR _this$[ebp]
  012d9	81 c1 b0 00 00
	00		 add	 ecx, 176		; 000000b0H
  012df	8b 95 20 ff ff
	ff		 mov	 edx, DWORD PTR _rect2$[ebp]
  012e5	89 11		 mov	 DWORD PTR [ecx], edx
  012e7	8b 85 24 ff ff
	ff		 mov	 eax, DWORD PTR _rect2$[ebp+4]
  012ed	89 41 04	 mov	 DWORD PTR [ecx+4], eax
  012f0	8b 95 28 ff ff
	ff		 mov	 edx, DWORD PTR _rect2$[ebp+8]
  012f6	89 51 08	 mov	 DWORD PTR [ecx+8], edx
  012f9	8b 85 2c ff ff
	ff		 mov	 eax, DWORD PTR _rect2$[ebp+12]
  012ff	89 41 0c	 mov	 DWORD PTR [ecx+12], eax

; 288  : 		m_NoMoreHintRect.right = m_NoMoreHintRect.left + s.cx;

  01302	8b 4d ec	 mov	 ecx, DWORD PTR _this$[ebp]
  01305	8b 91 b0 00 00
	00		 mov	 edx, DWORD PTR [ecx+176]
  0130b	03 95 10 ff ff
	ff		 add	 edx, DWORD PTR _s$187557[ebp]
  01311	8b 45 ec	 mov	 eax, DWORD PTR _this$[ebp]
  01314	89 90 b8 00 00
	00		 mov	 DWORD PTR [eax+184], edx
$L187556:

; 289  : 	}
; 290  : 
; 291  : 	pDC->SelectObject(pFont);

  0131a	8b f4		 mov	 esi, esp
  0131c	8b 8d 48 ff ff
	ff		 mov	 ecx, DWORD PTR _pFont$[ebp]
  01322	51		 push	 ecx
  01323	8b 55 8c	 mov	 edx, DWORD PTR _pDC$[ebp]
  01326	8b 02		 mov	 eax, DWORD PTR [edx]
  01328	8b 4d 8c	 mov	 ecx, DWORD PTR _pDC$[ebp]
  0132b	ff 50 30	 call	 DWORD PTR [eax+48]
  0132e	3b f4		 cmp	 esi, esp
  01330	e8 00 00 00 00	 call	 __RTC_CheckEsp

; 292  : 	PaintSomething( pDC );

  01335	8b f4		 mov	 esi, esp
  01337	8b 4d 8c	 mov	 ecx, DWORD PTR _pDC$[ebp]
  0133a	51		 push	 ecx
  0133b	8b 55 ec	 mov	 edx, DWORD PTR _this$[ebp]
  0133e	8b 02		 mov	 eax, DWORD PTR [edx]
  01340	8b 4d ec	 mov	 ecx, DWORD PTR _this$[ebp]
  01343	ff 90 70 01 00
	00		 call	 DWORD PTR [eax+368]
  01349	3b f4		 cmp	 esi, esp
  0134b	e8 00 00 00 00	 call	 __RTC_CheckEsp

; 293  : 
; 294  : 	delete pDC;

  01350	8b 4d 8c	 mov	 ecx, DWORD PTR _pDC$[ebp]
  01353	89 8d e4 fe ff
	ff		 mov	 DWORD PTR $T188308[ebp], ecx
  01359	8b 95 e4 fe ff
	ff		 mov	 edx, DWORD PTR $T188308[ebp]
  0135f	89 95 e8 fe ff
	ff		 mov	 DWORD PTR $T188307[ebp], edx
  01365	83 bd e8 fe ff
	ff 00		 cmp	 DWORD PTR $T188307[ebp], 0
  0136c	74 24		 je	 SHORT $L188309
  0136e	8b f4		 mov	 esi, esp
  01370	6a 01		 push	 1
  01372	8b 85 e8 fe ff
	ff		 mov	 eax, DWORD PTR $T188307[ebp]
  01378	8b 10		 mov	 edx, DWORD PTR [eax]
  0137a	8b 8d e8 fe ff
	ff		 mov	 ecx, DWORD PTR $T188307[ebp]
  01380	ff 52 04	 call	 DWORD PTR [edx+4]
  01383	3b f4		 cmp	 esi, esp
  01385	e8 00 00 00 00	 call	 __RTC_CheckEsp
  0138a	89 85 c8 fe ff
	ff		 mov	 DWORD PTR tv470[ebp], eax
  01390	eb 0a		 jmp	 SHORT $L188310
$L188309:
  01392	c7 85 c8 fe ff
	ff 00 00 00 00	 mov	 DWORD PTR tv470[ebp], 0
$L188310:

; 295  : }

  0139c	c6 45 fc 00	 mov	 BYTE PTR __$EHRec$[ebp+8], 0
  013a0	8b f4		 mov	 esi, esp
  013a2	8d 8d 40 ff ff
	ff		 lea	 ecx, DWORD PTR _str$[ebp]
  013a8	ff 15 00 00 00
	00		 call	 DWORD PTR __imp_??1?$CStringT@DV?$StrTraitMFC_DLL@DV?$ChTraitsCRT@D@ATL@@@@@ATL@@QAE@XZ
  013ae	3b f4		 cmp	 esi, esp
  013b0	e8 00 00 00 00	 call	 __RTC_CheckEsp
  013b5	c7 45 fc ff ff
	ff ff		 mov	 DWORD PTR __$EHRec$[ebp+8], -1
  013bc	8d 4d 94	 lea	 ecx, DWORD PTR _dc$[ebp]
  013bf	e8 00 00 00 00	 call	 ??1CPaintDC@@UAE@XZ	; CPaintDC::~CPaintDC
  013c4	52		 push	 edx
  013c5	8b cd		 mov	 ecx, ebp
  013c7	50		 push	 eax
  013c8	8d 15 00 00 00
	00		 lea	 edx, DWORD PTR $L188327
  013ce	e8 00 00 00 00	 call	 @_RTC_CheckStackVars@8
  013d3	58		 pop	 eax
  013d4	5a		 pop	 edx
  013d5	8b 4d f4	 mov	 ecx, DWORD PTR __$EHRec$[ebp]
  013d8	64 89 0d 00 00
	00 00		 mov	 DWORD PTR fs:__except_list, ecx
  013df	8b 4d f0	 mov	 ecx, DWORD PTR __$ArrayPad$[ebp]
  013e2	e8 00 00 00 00	 call	 @__security_check_cookie@4
  013e7	5f		 pop	 edi
  013e8	5e		 pop	 esi
  013e9	81 c4 38 01 00
	00		 add	 esp, 312		; 00000138H
  013ef	3b ec		 cmp	 ebp, esp
  013f1	e8 00 00 00 00	 call	 __RTC_CheckEsp
  013f6	8b e5		 mov	 esp, ebp
  013f8	5d		 pop	 ebp
  013f9	c3		 ret	 0
$L188327:
  013fa	05 00 00 00	 DD	 5
  013fe	00 00 00 00	 DD	 $L188326
$L188326:
  01402	94 ff ff ff	 DD	 -108			; ffffff94H
  01406	54 00 00 00	 DD	 84			; 00000054H
  0140a	00 00 00 00	 DD	 $L188318
  0140e	50 ff ff ff	 DD	 -176			; ffffff50H
  01412	10 00 00 00	 DD	 16			; 00000010H
  01416	00 00 00 00	 DD	 $L188319
  0141a	40 ff ff ff	 DD	 -192			; ffffff40H
  0141e	04 00 00 00	 DD	 4
  01422	00 00 00 00	 DD	 $L188320
  01426	20 ff ff ff	 DD	 -224			; ffffff20H
  0142a	10 00 00 00	 DD	 16			; 00000010H
  0142e	00 00 00 00	 DD	 $L188321
  01432	10 ff ff ff	 DD	 -240			; ffffff10H
  01436	08 00 00 00	 DD	 8
  0143a	00 00 00 00	 DD	 $L188322
$L188322:
  0143e	73		 DB	 115			; 00000073H
  0143f	00		 DB	 0
$L188321:
  01440	72		 DB	 114			; 00000072H
  01441	65		 DB	 101			; 00000065H
  01442	63		 DB	 99			; 00000063H
  01443	74		 DB	 116			; 00000074H
  01444	32		 DB	 50			; 00000032H
  01445	00		 DB	 0
$L188320:
  01446	73		 DB	 115			; 00000073H
  01447	74		 DB	 116			; 00000074H
  01448	72		 DB	 114			; 00000072H
  01449	00		 DB	 0
$L188319:
  0144a	72		 DB	 114			; 00000072H
  0144b	65		 DB	 101			; 00000065H
  0144c	63		 DB	 99			; 00000063H
  0144d	74		 DB	 116			; 00000074H
  0144e	00		 DB	 0
$L188318:
  0144f	64		 DB	 100			; 00000064H
  01450	63		 DB	 99			; 00000063H
  01451	00		 DB	 0
_TEXT	ENDS
text$x	SEGMENT
$L188311:
  001fa	8d 4d 94	 lea	 ecx, DWORD PTR _dc$[ebp]
  001fd	e9 00 00 00 00	 jmp	 ??1CPaintDC@@UAE@XZ	; CPaintDC::~CPaintDC
$L188312:
  00202	8b 85 04 ff ff
	ff		 mov	 eax, DWORD PTR $T188301[ebp]
  00208	50		 push	 eax
  00209	e8 00 00 00 00	 call	 ??3CObject@@SGXPAX@Z	; CObject::operator delete
  0020e	c3		 ret	 0
$L188313:
  0020f	8b f4		 mov	 esi, esp
  00211	8d 8d 40 ff ff
	ff		 lea	 ecx, DWORD PTR _str$[ebp]
  00217	ff 15 00 00 00
	00		 call	 DWORD PTR __imp_??1?$CStringT@DV?$StrTraitMFC_DLL@DV?$ChTraitsCRT@D@ATL@@@@@ATL@@QAE@XZ
  0021d	3b f4		 cmp	 esi, esp
  0021f	e9 00 00 00 00	 jmp	 __RTC_CheckEsp
$L188314:
  00224	8b f4		 mov	 esi, esp
  00226	8d 8d f0 fe ff
	ff		 lea	 ecx, DWORD PTR $T188305[ebp]
  0022c	ff 15 00 00 00
	00		 call	 DWORD PTR __imp_??1?$CStringT@DV?$StrTraitMFC_DLL@DV?$ChTraitsCRT@D@ATL@@@@@ATL@@QAE@XZ
  00232	3b f4		 cmp	 esi, esp
  00234	e9 00 00 00 00	 jmp	 __RTC_CheckEsp
$L188315:
  00239	8b f4		 mov	 esi, esp
  0023b	8d 8d ec fe ff
	ff		 lea	 ecx, DWORD PTR $T188306[ebp]
  00241	ff 15 00 00 00
	00		 call	 DWORD PTR __imp_??1?$CStringT@DV?$StrTraitMFC_DLL@DV?$ChTraitsCRT@D@ATL@@@@@ATL@@QAE@XZ
  00247	3b f4		 cmp	 esi, esp
  00249	e9 00 00 00 00	 jmp	 __RTC_CheckEsp
__ehhandler$?OnPaint@CDialogMsg@@QAEXXZ:
  0024e	b8 00 00 00 00	 mov	 eax, OFFSET FLAT:$T188317
  00253	e9 00 00 00 00	 jmp	 ___CxxFrameHandler
text$x	ENDS
?OnPaint@CDialogMsg@@QAEXXZ ENDP			; CDialogMsg::OnPaint
; Function compile flags: /Odt /RTCsu
_TEXT	SEGMENT
_this$ = -4						; size = 4
_pDC$ = 8						; size = 4
?PaintSomething@CDialogMsg@@UAEXPAVCDC@@@Z PROC NEAR	; CDialogMsg::PaintSomething
; _this$ = ecx

; 298  : {

  01460	55		 push	 ebp
  01461	8b ec		 mov	 ebp, esp
  01463	51		 push	 ecx
  01464	c7 45 fc cc cc
	cc cc		 mov	 DWORD PTR [ebp-4], -858993460 ; ccccccccH
  0146b	89 4d fc	 mov	 DWORD PTR _this$[ebp], ecx

; 299  : 	
; 300  : }

  0146e	8b e5		 mov	 esp, ebp
  01470	5d		 pop	 ebp
  01471	c2 04 00	 ret	 4
?PaintSomething@CDialogMsg@@UAEXPAVCDC@@@Z ENDP		; CDialogMsg::PaintSomething
_TEXT	ENDS
PUBLIC	?SetLayeredWindowAttributes@CWnd@@QAEHKEK@Z	; CWnd::SetLayeredWindowAttributes
EXTRN	?SetWindowTextA@CWnd@@QAEXPBD@Z:NEAR		; CWnd::SetWindowTextA
EXTRN	?SetWindowPos@CWnd@@QAEHPBV1@HHHHI@Z:NEAR	; CWnd::SetWindowPos
EXTRN	__imp__GetWindowLongA@8:NEAR
EXTRN	__imp__SetWindowLongA@12:NEAR
EXTRN	?SetSkin@CxSkinButton@@QAEXPAVCDibBitmap@@00000FFF_N@Z:NEAR ; CxSkinButton::SetSkin
EXTRN	?OnInitDialog@CDialog@@UAEHXZ:NEAR		; CDialog::OnInitDialog
EXTRN	?CenterWindow@CWnd@@QAEXPAV1@@Z:NEAR		; CWnd::CenterWindow
; Function compile flags: /Odt /RTCsu
_TEXT	SEGMENT
tv143 = -156						; size = 4
$T188341 = -152						; size = 16
$T188340 = -136						; size = 16
$T188339 = -120						; size = 16
$T188338 = -104						; size = 16
$T188337 = -88						; size = 16
$T188336 = -72						; size = 16
$T188335 = -56						; size = 16
$T188334 = -40						; size = 16
$T188333 = -24						; size = 16
_pSkinMgr$ = -8						; size = 4
_this$ = -4						; size = 4
?OnInitDialog@CDialogMsg@@UAEHXZ PROC NEAR		; CDialogMsg::OnInitDialog
; _this$ = ecx

; 303  : {

  01480	55		 push	 ebp
  01481	8b ec		 mov	 ebp, esp
  01483	81 ec 9c 00 00
	00		 sub	 esp, 156		; 0000009cH
  01489	56		 push	 esi
  0148a	57		 push	 edi
  0148b	51		 push	 ecx
  0148c	8d bd 64 ff ff
	ff		 lea	 edi, DWORD PTR [ebp-156]
  01492	b9 27 00 00 00	 mov	 ecx, 39			; 00000027H
  01497	b8 cc cc cc cc	 mov	 eax, -858993460		; ccccccccH
  0149c	f3 ab		 rep stosd
  0149e	59		 pop	 ecx
  0149f	89 4d fc	 mov	 DWORD PTR _this$[ebp], ecx

; 304  : 	CDialog::OnInitDialog();	

  014a2	8b 4d fc	 mov	 ecx, DWORD PTR _this$[ebp]
  014a5	e8 00 00 00 00	 call	 ?OnInitDialog@CDialog@@UAEHXZ ; CDialog::OnInitDialog

; 305  : 
; 306  : 	SetWindowLong(m_hWnd,GWL_EXSTYLE,GetWindowLong(m_hWnd,GWL_EXSTYLE)^WS_EX_LAYERED);

  014aa	8b f4		 mov	 esi, esp
  014ac	6a ec		 push	 -20			; ffffffecH
  014ae	8b 45 fc	 mov	 eax, DWORD PTR _this$[ebp]
  014b1	8b 48 20	 mov	 ecx, DWORD PTR [eax+32]
  014b4	51		 push	 ecx
  014b5	ff 15 00 00 00
	00		 call	 DWORD PTR __imp__GetWindowLongA@8
  014bb	3b f4		 cmp	 esi, esp
  014bd	e8 00 00 00 00	 call	 __RTC_CheckEsp
  014c2	35 00 00 08 00	 xor	 eax, 524288		; 00080000H
  014c7	8b f4		 mov	 esi, esp
  014c9	50		 push	 eax
  014ca	6a ec		 push	 -20			; ffffffecH
  014cc	8b 55 fc	 mov	 edx, DWORD PTR _this$[ebp]
  014cf	8b 42 20	 mov	 eax, DWORD PTR [edx+32]
  014d2	50		 push	 eax
  014d3	ff 15 00 00 00
	00		 call	 DWORD PTR __imp__SetWindowLongA@12
  014d9	3b f4		 cmp	 esi, esp
  014db	e8 00 00 00 00	 call	 __RTC_CheckEsp

; 307  : 	SetWindowPos(NULL,0,0,m_iXSize,m_iYSize,SWP_NOMOVE);

  014e0	6a 02		 push	 2
  014e2	8b 4d fc	 mov	 ecx, DWORD PTR _this$[ebp]
  014e5	8b 51 7c	 mov	 edx, DWORD PTR [ecx+124]
  014e8	52		 push	 edx
  014e9	8b 45 fc	 mov	 eax, DWORD PTR _this$[ebp]
  014ec	8b 48 78	 mov	 ecx, DWORD PTR [eax+120]
  014ef	51		 push	 ecx
  014f0	6a 00		 push	 0
  014f2	6a 00		 push	 0
  014f4	6a 00		 push	 0
  014f6	8b 4d fc	 mov	 ecx, DWORD PTR _this$[ebp]
  014f9	e8 00 00 00 00	 call	 ?SetWindowPos@CWnd@@QAEHPBV1@HHHHI@Z ; CWnd::SetWindowPos

; 308  : 
; 309  : 	SetLayeredWindowAttributes(RGB(255,0,0),0,LWA_COLORKEY);

  014fe	6a 01		 push	 1
  01500	6a 00		 push	 0
  01502	68 ff 00 00 00	 push	 255			; 000000ffH
  01507	8b 4d fc	 mov	 ecx, DWORD PTR _this$[ebp]
  0150a	e8 00 00 00 00	 call	 ?SetLayeredWindowAttributes@CWnd@@QAEHKEK@Z ; CWnd::SetLayeredWindowAttributes

; 310  : 
; 311  : 	m_titleRect.left = 9;

  0150f	8b 55 fc	 mov	 edx, DWORD PTR _this$[ebp]
  01512	c7 82 90 00 00
	00 09 00 00 00	 mov	 DWORD PTR [edx+144], 9

; 312  : 	m_titleRect.top  = 8;

  0151c	8b 45 fc	 mov	 eax, DWORD PTR _this$[ebp]
  0151f	c7 80 94 00 00
	00 08 00 00 00	 mov	 DWORD PTR [eax+148], 8

; 313  : 	m_titleRect.right	= m_iXSize;

  01529	8b 4d fc	 mov	 ecx, DWORD PTR _this$[ebp]
  0152c	8b 55 fc	 mov	 edx, DWORD PTR _this$[ebp]
  0152f	8b 42 78	 mov	 eax, DWORD PTR [edx+120]
  01532	89 81 98 00 00
	00		 mov	 DWORD PTR [ecx+152], eax

; 314  : 	m_titleRect.bottom	= m_iYSize;

  01538	8b 4d fc	 mov	 ecx, DWORD PTR _this$[ebp]
  0153b	8b 55 fc	 mov	 edx, DWORD PTR _this$[ebp]
  0153e	8b 42 7c	 mov	 eax, DWORD PTR [edx+124]
  01541	89 81 9c 00 00
	00		 mov	 DWORD PTR [ecx+156], eax

; 315  : 
; 316  : 	m_msgRect.left	= 25;

  01547	8b 4d fc	 mov	 ecx, DWORD PTR _this$[ebp]
  0154a	c7 81 a0 00 00
	00 19 00 00 00	 mov	 DWORD PTR [ecx+160], 25	; 00000019H

; 317  : 	m_msgRect.right	= m_iXSize - 25;

  01554	8b 55 fc	 mov	 edx, DWORD PTR _this$[ebp]
  01557	8b 42 78	 mov	 eax, DWORD PTR [edx+120]
  0155a	83 e8 19	 sub	 eax, 25			; 00000019H
  0155d	8b 4d fc	 mov	 ecx, DWORD PTR _this$[ebp]
  01560	89 81 a8 00 00
	00		 mov	 DWORD PTR [ecx+168], eax

; 318  : 	m_msgRect.top	= 48;

  01566	8b 55 fc	 mov	 edx, DWORD PTR _this$[ebp]
  01569	c7 82 a4 00 00
	00 30 00 00 00	 mov	 DWORD PTR [edx+164], 48	; 00000030H

; 319  : 	m_msgRect.bottom = m_iYSize - 35;

  01573	8b 45 fc	 mov	 eax, DWORD PTR _this$[ebp]
  01576	8b 48 7c	 mov	 ecx, DWORD PTR [eax+124]
  01579	83 e9 23	 sub	 ecx, 35			; 00000023H
  0157c	8b 55 fc	 mov	 edx, DWORD PTR _this$[ebp]
  0157f	89 8a ac 00 00
	00		 mov	 DWORD PTR [edx+172], ecx

; 320  : 
; 321  : 	ISkinMgr* pSkinMgr = AfxGetUIManager()->UIGetSkinMgr();

  01585	e8 00 00 00 00	 call	 ?AfxGetUIManager@@YAPAVIUIManager@@XZ ; AfxGetUIManager
  0158a	89 85 64 ff ff
	ff		 mov	 DWORD PTR tv143[ebp], eax
  01590	8b 85 64 ff ff
	ff		 mov	 eax, DWORD PTR tv143[ebp]
  01596	8b 10		 mov	 edx, DWORD PTR [eax]
  01598	8b f4		 mov	 esi, esp
  0159a	8b 8d 64 ff ff
	ff		 mov	 ecx, DWORD PTR tv143[ebp]
  015a0	ff 52 28	 call	 DWORD PTR [edx+40]
  015a3	3b f4		 cmp	 esi, esp
  015a5	e8 00 00 00 00	 call	 __RTC_CheckEsp
  015aa	89 45 f8	 mov	 DWORD PTR _pSkinMgr$[ebp], eax

; 322  : 
; 323  : 	m_btnClose.Create(NULL,WS_VISIBLE,CRect(m_iXSize-20,5,m_iXSize-5,20),this,IDC_MSGD_BTN_CLOSE );	

  015ad	8b f4		 mov	 esi, esp
  015af	6a 0a		 push	 10			; 0000000aH
  015b1	8b 45 fc	 mov	 eax, DWORD PTR _this$[ebp]
  015b4	50		 push	 eax
  015b5	6a 14		 push	 20			; 00000014H
  015b7	8b 4d fc	 mov	 ecx, DWORD PTR _this$[ebp]
  015ba	8b 51 78	 mov	 edx, DWORD PTR [ecx+120]
  015bd	83 ea 05	 sub	 edx, 5
  015c0	52		 push	 edx
  015c1	6a 05		 push	 5
  015c3	8b 45 fc	 mov	 eax, DWORD PTR _this$[ebp]
  015c6	8b 48 78	 mov	 ecx, DWORD PTR [eax+120]
  015c9	83 e9 14	 sub	 ecx, 20			; 00000014H
  015cc	51		 push	 ecx
  015cd	8d 4d e8	 lea	 ecx, DWORD PTR $T188333[ebp]
  015d0	e8 00 00 00 00	 call	 ??0CRect@@QAE@HHHH@Z	; CRect::CRect
  015d5	50		 push	 eax
  015d6	68 00 00 00 10	 push	 268435456		; 10000000H
  015db	6a 00		 push	 0
  015dd	8b 4d fc	 mov	 ecx, DWORD PTR _this$[ebp]
  015e0	81 c1 d8 00 00
	00		 add	 ecx, 216		; 000000d8H
  015e6	8b 55 fc	 mov	 edx, DWORD PTR _this$[ebp]
  015e9	8b 82 d8 00 00
	00		 mov	 eax, DWORD PTR [edx+216]
  015ef	ff 90 38 01 00
	00		 call	 DWORD PTR [eax+312]
  015f5	3b f4		 cmp	 esi, esp
  015f7	e8 00 00 00 00	 call	 __RTC_CheckEsp

; 324  : 	m_btnClose.SetSkin( pSkinMgr->GetDibBmp("MSGDialogCloseNormal"),pSkinMgr->GetDibBmp("MSGDialogCloseDown"),pSkinMgr->GetDibBmp("MSGDialogCloseOver"),NULL,NULL,NULL,0,0,0);

  015fc	6a 00		 push	 0
  015fe	6a 00		 push	 0
  01600	6a 00		 push	 0
  01602	6a 00		 push	 0
  01604	6a 00		 push	 0
  01606	6a 00		 push	 0
  01608	6a 00		 push	 0
  0160a	8b f4		 mov	 esi, esp
  0160c	68 00 00 00 00	 push	 OFFSET FLAT:$SG187575
  01611	8b 4d f8	 mov	 ecx, DWORD PTR _pSkinMgr$[ebp]
  01614	8b 11		 mov	 edx, DWORD PTR [ecx]
  01616	8b 4d f8	 mov	 ecx, DWORD PTR _pSkinMgr$[ebp]
  01619	ff 52 04	 call	 DWORD PTR [edx+4]
  0161c	3b f4		 cmp	 esi, esp
  0161e	e8 00 00 00 00	 call	 __RTC_CheckEsp
  01623	50		 push	 eax
  01624	8b f4		 mov	 esi, esp
  01626	68 00 00 00 00	 push	 OFFSET FLAT:$SG187576
  0162b	8b 45 f8	 mov	 eax, DWORD PTR _pSkinMgr$[ebp]
  0162e	8b 10		 mov	 edx, DWORD PTR [eax]
  01630	8b 4d f8	 mov	 ecx, DWORD PTR _pSkinMgr$[ebp]
  01633	ff 52 04	 call	 DWORD PTR [edx+4]
  01636	3b f4		 cmp	 esi, esp
  01638	e8 00 00 00 00	 call	 __RTC_CheckEsp
  0163d	50		 push	 eax
  0163e	8b f4		 mov	 esi, esp
  01640	68 00 00 00 00	 push	 OFFSET FLAT:$SG187577
  01645	8b 45 f8	 mov	 eax, DWORD PTR _pSkinMgr$[ebp]
  01648	8b 10		 mov	 edx, DWORD PTR [eax]
  0164a	8b 4d f8	 mov	 ecx, DWORD PTR _pSkinMgr$[ebp]
  0164d	ff 52 04	 call	 DWORD PTR [edx+4]
  01650	3b f4		 cmp	 esi, esp
  01652	e8 00 00 00 00	 call	 __RTC_CheckEsp
  01657	50		 push	 eax
  01658	8b 4d fc	 mov	 ecx, DWORD PTR _this$[ebp]
  0165b	81 c1 d8 00 00
	00		 add	 ecx, 216		; 000000d8H
  01661	e8 00 00 00 00	 call	 ?SetSkin@CxSkinButton@@QAEXPAVCDibBitmap@@00000FFF_N@Z ; CxSkinButton::SetSkin

; 325  : 
; 326  : 	if( m_iBtnCount == 1)

  01666	8b 45 fc	 mov	 eax, DWORD PTR _this$[ebp]
  01669	83 b8 80 00 00
	00 01		 cmp	 DWORD PTR [eax+128], 1
  01670	0f 85 6c 01 00
	00		 jne	 $L187578

; 327  : 	{
; 328  : 		if( !m_bShowCheckBox )

  01676	8b 4d fc	 mov	 ecx, DWORD PTR _this$[ebp]
  01679	83 b9 d0 00 00
	00 00		 cmp	 DWORD PTR [ecx+208], 0
  01680	75 6b		 jne	 SHORT $L187579

; 329  : 		{
; 330  : 			m_btn1.Create(NULL,WS_VISIBLE,CRect(m_iXSize/2-34,m_iYSize-6-23,m_iXSize/2+33,m_iYSize-6),this,IDC_MSGD_BTN_1);

  01682	8b f4		 mov	 esi, esp
  01684	6a 14		 push	 20			; 00000014H
  01686	8b 55 fc	 mov	 edx, DWORD PTR _this$[ebp]
  01689	52		 push	 edx
  0168a	8b 45 fc	 mov	 eax, DWORD PTR _this$[ebp]
  0168d	8b 48 7c	 mov	 ecx, DWORD PTR [eax+124]
  01690	83 e9 06	 sub	 ecx, 6
  01693	51		 push	 ecx
  01694	8b 55 fc	 mov	 edx, DWORD PTR _this$[ebp]
  01697	8b 42 78	 mov	 eax, DWORD PTR [edx+120]
  0169a	99		 cdq
  0169b	2b c2		 sub	 eax, edx
  0169d	d1 f8		 sar	 eax, 1
  0169f	83 c0 21	 add	 eax, 33			; 00000021H
  016a2	50		 push	 eax
  016a3	8b 45 fc	 mov	 eax, DWORD PTR _this$[ebp]
  016a6	8b 48 7c	 mov	 ecx, DWORD PTR [eax+124]
  016a9	83 e9 1d	 sub	 ecx, 29			; 0000001dH
  016ac	51		 push	 ecx
  016ad	8b 55 fc	 mov	 edx, DWORD PTR _this$[ebp]
  016b0	8b 42 78	 mov	 eax, DWORD PTR [edx+120]
  016b3	99		 cdq
  016b4	2b c2		 sub	 eax, edx
  016b6	d1 f8		 sar	 eax, 1
  016b8	83 e8 22	 sub	 eax, 34			; 00000022H
  016bb	50		 push	 eax
  016bc	8d 4d d8	 lea	 ecx, DWORD PTR $T188334[ebp]
  016bf	e8 00 00 00 00	 call	 ??0CRect@@QAE@HHHH@Z	; CRect::CRect
  016c4	50		 push	 eax
  016c5	68 00 00 00 10	 push	 268435456		; 10000000H
  016ca	6a 00		 push	 0
  016cc	8b 4d fc	 mov	 ecx, DWORD PTR _this$[ebp]
  016cf	81 c1 fc 01 00
	00		 add	 ecx, 508		; 000001fcH
  016d5	8b 45 fc	 mov	 eax, DWORD PTR _this$[ebp]
  016d8	8b 90 fc 01 00
	00		 mov	 edx, DWORD PTR [eax+508]
  016de	ff 92 38 01 00
	00		 call	 DWORD PTR [edx+312]
  016e4	3b f4		 cmp	 esi, esp
  016e6	e8 00 00 00 00	 call	 __RTC_CheckEsp

; 331  : 		}
; 332  : 		else

  016eb	eb 5f		 jmp	 SHORT $L187581
$L187579:

; 333  : 		{
; 334  : 			m_btn1.Create(NULL,WS_VISIBLE,CRect(m_iXSize-67-10,m_iYSize-6-23,m_iXSize-10,m_iYSize-6),this,IDC_MSGD_BTN_1);

  016ed	8b f4		 mov	 esi, esp
  016ef	6a 14		 push	 20			; 00000014H
  016f1	8b 45 fc	 mov	 eax, DWORD PTR _this$[ebp]
  016f4	50		 push	 eax
  016f5	8b 4d fc	 mov	 ecx, DWORD PTR _this$[ebp]
  016f8	8b 51 7c	 mov	 edx, DWORD PTR [ecx+124]
  016fb	83 ea 06	 sub	 edx, 6
  016fe	52		 push	 edx
  016ff	8b 45 fc	 mov	 eax, DWORD PTR _this$[ebp]
  01702	8b 48 78	 mov	 ecx, DWORD PTR [eax+120]
  01705	83 e9 0a	 sub	 ecx, 10			; 0000000aH
  01708	51		 push	 ecx
  01709	8b 55 fc	 mov	 edx, DWORD PTR _this$[ebp]
  0170c	8b 42 7c	 mov	 eax, DWORD PTR [edx+124]
  0170f	83 e8 1d	 sub	 eax, 29			; 0000001dH
  01712	50		 push	 eax
  01713	8b 4d fc	 mov	 ecx, DWORD PTR _this$[ebp]
  01716	8b 51 78	 mov	 edx, DWORD PTR [ecx+120]
  01719	83 ea 4d	 sub	 edx, 77			; 0000004dH
  0171c	52		 push	 edx
  0171d	8d 4d c8	 lea	 ecx, DWORD PTR $T188335[ebp]
  01720	e8 00 00 00 00	 call	 ??0CRect@@QAE@HHHH@Z	; CRect::CRect
  01725	50		 push	 eax
  01726	68 00 00 00 10	 push	 268435456		; 10000000H
  0172b	6a 00		 push	 0
  0172d	8b 4d fc	 mov	 ecx, DWORD PTR _this$[ebp]
  01730	81 c1 fc 01 00
	00		 add	 ecx, 508		; 000001fcH
  01736	8b 45 fc	 mov	 eax, DWORD PTR _this$[ebp]
  01739	8b 90 fc 01 00
	00		 mov	 edx, DWORD PTR [eax+508]
  0173f	ff 92 38 01 00
	00		 call	 DWORD PTR [edx+312]
  01745	3b f4		 cmp	 esi, esp
  01747	e8 00 00 00 00	 call	 __RTC_CheckEsp
$L187581:

; 335  : 		}
; 336  : 		m_btn1.SetWindowText( m_strBtnText1 );		

  0174c	8b 4d fc	 mov	 ecx, DWORD PTR _this$[ebp]
  0174f	81 c1 84 00 00
	00		 add	 ecx, 132		; 00000084H
  01755	8b f4		 mov	 esi, esp
  01757	ff 15 00 00 00
	00		 call	 DWORD PTR __imp_??B?$CSimpleStringT@D$00@ATL@@QBEPBDXZ
  0175d	3b f4		 cmp	 esi, esp
  0175f	e8 00 00 00 00	 call	 __RTC_CheckEsp
  01764	50		 push	 eax
  01765	8b 4d fc	 mov	 ecx, DWORD PTR _this$[ebp]
  01768	81 c1 fc 01 00
	00		 add	 ecx, 508		; 000001fcH
  0176e	e8 00 00 00 00	 call	 ?SetWindowTextA@CWnd@@QAEXPBD@Z ; CWnd::SetWindowTextA

; 337  : 
; 338  : 		m_btn1.SetSkin( pSkinMgr->GetDibBmp("MSGDialogBtn1Normal"),pSkinMgr->GetDibBmp("MSGDialogBtn1Down"),pSkinMgr->GetDibBmp("MSGDialogBtn1Over"),NULL,NULL,NULL,0,0,0);		

  01773	6a 00		 push	 0
  01775	6a 00		 push	 0
  01777	6a 00		 push	 0
  01779	6a 00		 push	 0
  0177b	6a 00		 push	 0
  0177d	6a 00		 push	 0
  0177f	6a 00		 push	 0
  01781	8b f4		 mov	 esi, esp
  01783	68 00 00 00 00	 push	 OFFSET FLAT:$SG187583
  01788	8b 45 f8	 mov	 eax, DWORD PTR _pSkinMgr$[ebp]
  0178b	8b 10		 mov	 edx, DWORD PTR [eax]
  0178d	8b 4d f8	 mov	 ecx, DWORD PTR _pSkinMgr$[ebp]
  01790	ff 52 04	 call	 DWORD PTR [edx+4]
  01793	3b f4		 cmp	 esi, esp
  01795	e8 00 00 00 00	 call	 __RTC_CheckEsp
  0179a	50		 push	 eax
  0179b	8b f4		 mov	 esi, esp
  0179d	68 00 00 00 00	 push	 OFFSET FLAT:$SG187584
  017a2	8b 45 f8	 mov	 eax, DWORD PTR _pSkinMgr$[ebp]
  017a5	8b 10		 mov	 edx, DWORD PTR [eax]
  017a7	8b 4d f8	 mov	 ecx, DWORD PTR _pSkinMgr$[ebp]
  017aa	ff 52 04	 call	 DWORD PTR [edx+4]
  017ad	3b f4		 cmp	 esi, esp
  017af	e8 00 00 00 00	 call	 __RTC_CheckEsp
  017b4	50		 push	 eax
  017b5	8b f4		 mov	 esi, esp
  017b7	68 00 00 00 00	 push	 OFFSET FLAT:$SG187585
  017bc	8b 45 f8	 mov	 eax, DWORD PTR _pSkinMgr$[ebp]
  017bf	8b 10		 mov	 edx, DWORD PTR [eax]
  017c1	8b 4d f8	 mov	 ecx, DWORD PTR _pSkinMgr$[ebp]
  017c4	ff 52 04	 call	 DWORD PTR [edx+4]
  017c7	3b f4		 cmp	 esi, esp
  017c9	e8 00 00 00 00	 call	 __RTC_CheckEsp
  017ce	50		 push	 eax
  017cf	8b 4d fc	 mov	 ecx, DWORD PTR _this$[ebp]
  017d2	81 c1 fc 01 00
	00		 add	 ecx, 508		; 000001fcH
  017d8	e8 00 00 00 00	 call	 ?SetSkin@CxSkinButton@@QAEXPAVCDibBitmap@@00000FFF_N@Z ; CxSkinButton::SetSkin

; 339  : 
; 340  : 	}
; 341  : 	else

  017dd	e9 c9 02 00 00	 jmp	 $L187586
$L187578:

; 342  : 	{	
; 343  : 		if( !m_bShowCheckBox )

  017e2	8b 45 fc	 mov	 eax, DWORD PTR _this$[ebp]
  017e5	83 b8 d0 00 00
	00 00		 cmp	 DWORD PTR [eax+208], 0
  017ec	0f 85 d7 00 00
	00		 jne	 $L187587

; 344  : 		{
; 345  : 			m_btn1.Create(NULL,WS_VISIBLE,CRect(m_iXSize/2-3-67,m_iYSize-6-23,m_iXSize/2-3,m_iYSize-6),this,IDC_MSGD_BTN_1);

  017f2	8b f4		 mov	 esi, esp
  017f4	6a 14		 push	 20			; 00000014H
  017f6	8b 4d fc	 mov	 ecx, DWORD PTR _this$[ebp]
  017f9	51		 push	 ecx
  017fa	8b 55 fc	 mov	 edx, DWORD PTR _this$[ebp]
  017fd	8b 42 7c	 mov	 eax, DWORD PTR [edx+124]
  01800	83 e8 06	 sub	 eax, 6
  01803	50		 push	 eax
  01804	8b 4d fc	 mov	 ecx, DWORD PTR _this$[ebp]
  01807	8b 41 78	 mov	 eax, DWORD PTR [ecx+120]
  0180a	99		 cdq
  0180b	2b c2		 sub	 eax, edx
  0180d	d1 f8		 sar	 eax, 1
  0180f	83 e8 03	 sub	 eax, 3
  01812	50		 push	 eax
  01813	8b 55 fc	 mov	 edx, DWORD PTR _this$[ebp]
  01816	8b 42 7c	 mov	 eax, DWORD PTR [edx+124]
  01819	83 e8 1d	 sub	 eax, 29			; 0000001dH
  0181c	50		 push	 eax
  0181d	8b 4d fc	 mov	 ecx, DWORD PTR _this$[ebp]
  01820	8b 41 78	 mov	 eax, DWORD PTR [ecx+120]
  01823	99		 cdq
  01824	2b c2		 sub	 eax, edx
  01826	d1 f8		 sar	 eax, 1
  01828	83 e8 46	 sub	 eax, 70			; 00000046H
  0182b	50		 push	 eax
  0182c	8d 4d b8	 lea	 ecx, DWORD PTR $T188336[ebp]
  0182f	e8 00 00 00 00	 call	 ??0CRect@@QAE@HHHH@Z	; CRect::CRect
  01834	50		 push	 eax
  01835	68 00 00 00 10	 push	 268435456		; 10000000H
  0183a	6a 00		 push	 0
  0183c	8b 4d fc	 mov	 ecx, DWORD PTR _this$[ebp]
  0183f	81 c1 fc 01 00
	00		 add	 ecx, 508		; 000001fcH
  01845	8b 55 fc	 mov	 edx, DWORD PTR _this$[ebp]
  01848	8b 82 fc 01 00
	00		 mov	 eax, DWORD PTR [edx+508]
  0184e	ff 90 38 01 00
	00		 call	 DWORD PTR [eax+312]
  01854	3b f4		 cmp	 esi, esp
  01856	e8 00 00 00 00	 call	 __RTC_CheckEsp

; 346  : 			m_btn2.Create(NULL,WS_VISIBLE,CRect(m_iXSize/2+3,m_iYSize-6-23,m_iXSize/2+3+67,m_iYSize-6),this,IDC_MSGD_BTN_2);

  0185b	8b f4		 mov	 esi, esp
  0185d	6a 1e		 push	 30			; 0000001eH
  0185f	8b 4d fc	 mov	 ecx, DWORD PTR _this$[ebp]
  01862	51		 push	 ecx
  01863	8b 55 fc	 mov	 edx, DWORD PTR _this$[ebp]
  01866	8b 42 7c	 mov	 eax, DWORD PTR [edx+124]
  01869	83 e8 06	 sub	 eax, 6
  0186c	50		 push	 eax
  0186d	8b 4d fc	 mov	 ecx, DWORD PTR _this$[ebp]
  01870	8b 41 78	 mov	 eax, DWORD PTR [ecx+120]
  01873	99		 cdq
  01874	2b c2		 sub	 eax, edx
  01876	d1 f8		 sar	 eax, 1
  01878	83 c0 46	 add	 eax, 70			; 00000046H
  0187b	50		 push	 eax
  0187c	8b 55 fc	 mov	 edx, DWORD PTR _this$[ebp]
  0187f	8b 42 7c	 mov	 eax, DWORD PTR [edx+124]
  01882	83 e8 1d	 sub	 eax, 29			; 0000001dH
  01885	50		 push	 eax
  01886	8b 4d fc	 mov	 ecx, DWORD PTR _this$[ebp]
  01889	8b 41 78	 mov	 eax, DWORD PTR [ecx+120]
  0188c	99		 cdq
  0188d	2b c2		 sub	 eax, edx
  0188f	d1 f8		 sar	 eax, 1
  01891	83 c0 03	 add	 eax, 3
  01894	50		 push	 eax
  01895	8d 4d a8	 lea	 ecx, DWORD PTR $T188337[ebp]
  01898	e8 00 00 00 00	 call	 ??0CRect@@QAE@HHHH@Z	; CRect::CRect
  0189d	50		 push	 eax
  0189e	68 00 00 00 10	 push	 268435456		; 10000000H
  018a3	6a 00		 push	 0
  018a5	8b 4d fc	 mov	 ecx, DWORD PTR _this$[ebp]
  018a8	81 c1 20 03 00
	00		 add	 ecx, 800		; 00000320H
  018ae	8b 55 fc	 mov	 edx, DWORD PTR _this$[ebp]
  018b1	8b 82 20 03 00
	00		 mov	 eax, DWORD PTR [edx+800]
  018b7	ff 90 38 01 00
	00		 call	 DWORD PTR [eax+312]
  018bd	3b f4		 cmp	 esi, esp
  018bf	e8 00 00 00 00	 call	 __RTC_CheckEsp

; 347  : 		}
; 348  : 		else

  018c4	e9 c0 00 00 00	 jmp	 $L187590
$L187587:

; 349  : 		{
; 350  : 			m_btn1.Create(NULL,WS_VISIBLE,CRect(m_iXSize-67-67-10-3,m_iYSize-6-23,m_iXSize-67-3-10,m_iYSize-6),this,IDC_MSGD_BTN_1);

  018c9	8b f4		 mov	 esi, esp
  018cb	6a 14		 push	 20			; 00000014H
  018cd	8b 4d fc	 mov	 ecx, DWORD PTR _this$[ebp]
  018d0	51		 push	 ecx
  018d1	8b 55 fc	 mov	 edx, DWORD PTR _this$[ebp]
  018d4	8b 42 7c	 mov	 eax, DWORD PTR [edx+124]
  018d7	83 e8 06	 sub	 eax, 6
  018da	50		 push	 eax
  018db	8b 4d fc	 mov	 ecx, DWORD PTR _this$[ebp]
  018de	8b 51 78	 mov	 edx, DWORD PTR [ecx+120]
  018e1	83 ea 50	 sub	 edx, 80			; 00000050H
  018e4	52		 push	 edx
  018e5	8b 45 fc	 mov	 eax, DWORD PTR _this$[ebp]
  018e8	8b 48 7c	 mov	 ecx, DWORD PTR [eax+124]
  018eb	83 e9 1d	 sub	 ecx, 29			; 0000001dH
  018ee	51		 push	 ecx
  018ef	8b 55 fc	 mov	 edx, DWORD PTR _this$[ebp]
  018f2	8b 42 78	 mov	 eax, DWORD PTR [edx+120]
  018f5	2d 93 00 00 00	 sub	 eax, 147		; 00000093H
  018fa	50		 push	 eax
  018fb	8d 4d 98	 lea	 ecx, DWORD PTR $T188338[ebp]
  018fe	e8 00 00 00 00	 call	 ??0CRect@@QAE@HHHH@Z	; CRect::CRect
  01903	50		 push	 eax
  01904	68 00 00 00 10	 push	 268435456		; 10000000H
  01909	6a 00		 push	 0
  0190b	8b 4d fc	 mov	 ecx, DWORD PTR _this$[ebp]
  0190e	81 c1 fc 01 00
	00		 add	 ecx, 508		; 000001fcH
  01914	8b 55 fc	 mov	 edx, DWORD PTR _this$[ebp]
  01917	8b 82 fc 01 00
	00		 mov	 eax, DWORD PTR [edx+508]
  0191d	ff 90 38 01 00
	00		 call	 DWORD PTR [eax+312]
  01923	3b f4		 cmp	 esi, esp
  01925	e8 00 00 00 00	 call	 __RTC_CheckEsp

; 351  : 			m_btn2.Create(NULL,WS_VISIBLE,CRect(m_iXSize-67-10,m_iYSize-6-23,m_iXSize-10,m_iYSize-6),this,IDC_MSGD_BTN_2);

  0192a	8b f4		 mov	 esi, esp
  0192c	6a 1e		 push	 30			; 0000001eH
  0192e	8b 4d fc	 mov	 ecx, DWORD PTR _this$[ebp]
  01931	51		 push	 ecx
  01932	8b 55 fc	 mov	 edx, DWORD PTR _this$[ebp]
  01935	8b 42 7c	 mov	 eax, DWORD PTR [edx+124]
  01938	83 e8 06	 sub	 eax, 6
  0193b	50		 push	 eax
  0193c	8b 4d fc	 mov	 ecx, DWORD PTR _this$[ebp]
  0193f	8b 51 78	 mov	 edx, DWORD PTR [ecx+120]
  01942	83 ea 0a	 sub	 edx, 10			; 0000000aH
  01945	52		 push	 edx
  01946	8b 45 fc	 mov	 eax, DWORD PTR _this$[ebp]
  01949	8b 48 7c	 mov	 ecx, DWORD PTR [eax+124]
  0194c	83 e9 1d	 sub	 ecx, 29			; 0000001dH
  0194f	51		 push	 ecx
  01950	8b 55 fc	 mov	 edx, DWORD PTR _this$[ebp]
  01953	8b 42 78	 mov	 eax, DWORD PTR [edx+120]
  01956	83 e8 4d	 sub	 eax, 77			; 0000004dH
  01959	50		 push	 eax
  0195a	8d 4d 88	 lea	 ecx, DWORD PTR $T188339[ebp]
  0195d	e8 00 00 00 00	 call	 ??0CRect@@QAE@HHHH@Z	; CRect::CRect
  01962	50		 push	 eax
  01963	68 00 00 00 10	 push	 268435456		; 10000000H
  01968	6a 00		 push	 0
  0196a	8b 4d fc	 mov	 ecx, DWORD PTR _this$[ebp]
  0196d	81 c1 20 03 00
	00		 add	 ecx, 800		; 00000320H
  01973	8b 55 fc	 mov	 edx, DWORD PTR _this$[ebp]
  01976	8b 82 20 03 00
	00		 mov	 eax, DWORD PTR [edx+800]
  0197c	ff 90 38 01 00
	00		 call	 DWORD PTR [eax+312]
  01982	3b f4		 cmp	 esi, esp
  01984	e8 00 00 00 00	 call	 __RTC_CheckEsp
$L187590:

; 352  : 		}
; 353  : 
; 354  : 		m_btn1.SetWindowText( m_strBtnText1 );

  01989	8b 4d fc	 mov	 ecx, DWORD PTR _this$[ebp]
  0198c	81 c1 84 00 00
	00		 add	 ecx, 132		; 00000084H
  01992	8b f4		 mov	 esi, esp
  01994	ff 15 00 00 00
	00		 call	 DWORD PTR __imp_??B?$CSimpleStringT@D$00@ATL@@QBEPBDXZ
  0199a	3b f4		 cmp	 esi, esp
  0199c	e8 00 00 00 00	 call	 __RTC_CheckEsp
  019a1	50		 push	 eax
  019a2	8b 4d fc	 mov	 ecx, DWORD PTR _this$[ebp]
  019a5	81 c1 fc 01 00
	00		 add	 ecx, 508		; 000001fcH
  019ab	e8 00 00 00 00	 call	 ?SetWindowTextA@CWnd@@QAEXPBD@Z ; CWnd::SetWindowTextA

; 355  : 		m_btn2.SetWindowText( m_strBtnText2 );

  019b0	8b 4d fc	 mov	 ecx, DWORD PTR _this$[ebp]
  019b3	81 c1 88 00 00
	00		 add	 ecx, 136		; 00000088H
  019b9	8b f4		 mov	 esi, esp
  019bb	ff 15 00 00 00
	00		 call	 DWORD PTR __imp_??B?$CSimpleStringT@D$00@ATL@@QBEPBDXZ
  019c1	3b f4		 cmp	 esi, esp
  019c3	e8 00 00 00 00	 call	 __RTC_CheckEsp
  019c8	50		 push	 eax
  019c9	8b 4d fc	 mov	 ecx, DWORD PTR _this$[ebp]
  019cc	81 c1 20 03 00
	00		 add	 ecx, 800		; 00000320H
  019d2	e8 00 00 00 00	 call	 ?SetWindowTextA@CWnd@@QAEXPBD@Z ; CWnd::SetWindowTextA

; 356  : 
; 357  : 		m_btn1.SetSkin( pSkinMgr->GetDibBmp("MSGDialogBtn1Normal"),pSkinMgr->GetDibBmp("MSGDialogBtn1Down"),pSkinMgr->GetDibBmp("MSGDialogBtn1Over"),NULL,NULL,NULL,0,0,0);

  019d7	6a 00		 push	 0
  019d9	6a 00		 push	 0
  019db	6a 00		 push	 0
  019dd	6a 00		 push	 0
  019df	6a 00		 push	 0
  019e1	6a 00		 push	 0
  019e3	6a 00		 push	 0
  019e5	8b f4		 mov	 esi, esp
  019e7	68 00 00 00 00	 push	 OFFSET FLAT:$SG187593
  019ec	8b 4d f8	 mov	 ecx, DWORD PTR _pSkinMgr$[ebp]
  019ef	8b 11		 mov	 edx, DWORD PTR [ecx]
  019f1	8b 4d f8	 mov	 ecx, DWORD PTR _pSkinMgr$[ebp]
  019f4	ff 52 04	 call	 DWORD PTR [edx+4]
  019f7	3b f4		 cmp	 esi, esp
  019f9	e8 00 00 00 00	 call	 __RTC_CheckEsp
  019fe	50		 push	 eax
  019ff	8b f4		 mov	 esi, esp
  01a01	68 00 00 00 00	 push	 OFFSET FLAT:$SG187594
  01a06	8b 45 f8	 mov	 eax, DWORD PTR _pSkinMgr$[ebp]
  01a09	8b 10		 mov	 edx, DWORD PTR [eax]
  01a0b	8b 4d f8	 mov	 ecx, DWORD PTR _pSkinMgr$[ebp]
  01a0e	ff 52 04	 call	 DWORD PTR [edx+4]
  01a11	3b f4		 cmp	 esi, esp
  01a13	e8 00 00 00 00	 call	 __RTC_CheckEsp
  01a18	50		 push	 eax
  01a19	8b f4		 mov	 esi, esp
  01a1b	68 00 00 00 00	 push	 OFFSET FLAT:$SG187595
  01a20	8b 45 f8	 mov	 eax, DWORD PTR _pSkinMgr$[ebp]
  01a23	8b 10		 mov	 edx, DWORD PTR [eax]
  01a25	8b 4d f8	 mov	 ecx, DWORD PTR _pSkinMgr$[ebp]
  01a28	ff 52 04	 call	 DWORD PTR [edx+4]
  01a2b	3b f4		 cmp	 esi, esp
  01a2d	e8 00 00 00 00	 call	 __RTC_CheckEsp
  01a32	50		 push	 eax
  01a33	8b 4d fc	 mov	 ecx, DWORD PTR _this$[ebp]
  01a36	81 c1 fc 01 00
	00		 add	 ecx, 508		; 000001fcH
  01a3c	e8 00 00 00 00	 call	 ?SetSkin@CxSkinButton@@QAEXPAVCDibBitmap@@00000FFF_N@Z ; CxSkinButton::SetSkin

; 358  : 		m_btn2.SetSkin( pSkinMgr->GetDibBmp("MSGDialogBtn2Normal"),pSkinMgr->GetDibBmp("MSGDialogBtn2Down"),pSkinMgr->GetDibBmp("MSGDialogBtn2Over"),NULL,NULL,NULL,0,0,0);		

  01a41	6a 00		 push	 0
  01a43	6a 00		 push	 0
  01a45	6a 00		 push	 0
  01a47	6a 00		 push	 0
  01a49	6a 00		 push	 0
  01a4b	6a 00		 push	 0
  01a4d	6a 00		 push	 0
  01a4f	8b f4		 mov	 esi, esp
  01a51	68 00 00 00 00	 push	 OFFSET FLAT:$SG187596
  01a56	8b 45 f8	 mov	 eax, DWORD PTR _pSkinMgr$[ebp]
  01a59	8b 10		 mov	 edx, DWORD PTR [eax]
  01a5b	8b 4d f8	 mov	 ecx, DWORD PTR _pSkinMgr$[ebp]
  01a5e	ff 52 04	 call	 DWORD PTR [edx+4]
  01a61	3b f4		 cmp	 esi, esp
  01a63	e8 00 00 00 00	 call	 __RTC_CheckEsp
  01a68	50		 push	 eax
  01a69	8b f4		 mov	 esi, esp
  01a6b	68 00 00 00 00	 push	 OFFSET FLAT:$SG187597
  01a70	8b 45 f8	 mov	 eax, DWORD PTR _pSkinMgr$[ebp]
  01a73	8b 10		 mov	 edx, DWORD PTR [eax]
  01a75	8b 4d f8	 mov	 ecx, DWORD PTR _pSkinMgr$[ebp]
  01a78	ff 52 04	 call	 DWORD PTR [edx+4]
  01a7b	3b f4		 cmp	 esi, esp
  01a7d	e8 00 00 00 00	 call	 __RTC_CheckEsp
  01a82	50		 push	 eax
  01a83	8b f4		 mov	 esi, esp
  01a85	68 00 00 00 00	 push	 OFFSET FLAT:$SG187598
  01a8a	8b 45 f8	 mov	 eax, DWORD PTR _pSkinMgr$[ebp]
  01a8d	8b 10		 mov	 edx, DWORD PTR [eax]
  01a8f	8b 4d f8	 mov	 ecx, DWORD PTR _pSkinMgr$[ebp]
  01a92	ff 52 04	 call	 DWORD PTR [edx+4]
  01a95	3b f4		 cmp	 esi, esp
  01a97	e8 00 00 00 00	 call	 __RTC_CheckEsp
  01a9c	50		 push	 eax
  01a9d	8b 4d fc	 mov	 ecx, DWORD PTR _this$[ebp]
  01aa0	81 c1 20 03 00
	00		 add	 ecx, 800		; 00000320H
  01aa6	e8 00 00 00 00	 call	 ?SetSkin@CxSkinButton@@QAEXPAVCDibBitmap@@00000FFF_N@Z ; CxSkinButton::SetSkin
$L187586:

; 359  : 	}
; 360  : 
; 361  : 	if( m_bShowCheckBox )

  01aab	8b 45 fc	 mov	 eax, DWORD PTR _this$[ebp]
  01aae	83 b8 d0 00 00
	00 00		 cmp	 DWORD PTR [eax+208], 0
  01ab5	0f 84 55 01 00
	00		 je	 $L187599

; 362  : 	{
; 363  : 		m_btnCheck.Create(NULL,NULL,CRect(9,107,9+16,107+16),this,IDC_MSGD_BTN_CHECK);

  01abb	8b f4		 mov	 esi, esp
  01abd	6a 28		 push	 40			; 00000028H
  01abf	8b 4d fc	 mov	 ecx, DWORD PTR _this$[ebp]
  01ac2	51		 push	 ecx
  01ac3	6a 7b		 push	 123			; 0000007bH
  01ac5	6a 19		 push	 25			; 00000019H
  01ac7	6a 6b		 push	 107			; 0000006bH
  01ac9	6a 09		 push	 9
  01acb	8d 8d 78 ff ff
	ff		 lea	 ecx, DWORD PTR $T188340[ebp]
  01ad1	e8 00 00 00 00	 call	 ??0CRect@@QAE@HHHH@Z	; CRect::CRect
  01ad6	50		 push	 eax
  01ad7	6a 00		 push	 0
  01ad9	6a 00		 push	 0
  01adb	8b 4d fc	 mov	 ecx, DWORD PTR _this$[ebp]
  01ade	81 c1 44 04 00
	00		 add	 ecx, 1092		; 00000444H
  01ae4	8b 55 fc	 mov	 edx, DWORD PTR _this$[ebp]
  01ae7	8b 82 44 04 00
	00		 mov	 eax, DWORD PTR [edx+1092]
  01aed	ff 90 38 01 00
	00		 call	 DWORD PTR [eax+312]
  01af3	3b f4		 cmp	 esi, esp
  01af5	e8 00 00 00 00	 call	 __RTC_CheckEsp

; 364  : 		m_btnUnCheck.Create(NULL,WS_VISIBLE,CRect(9,107,9+16,107+16),this,IDC_MSGD_BTN_UNCHECK);

  01afa	8b f4		 mov	 esi, esp
  01afc	6a 32		 push	 50			; 00000032H
  01afe	8b 4d fc	 mov	 ecx, DWORD PTR _this$[ebp]
  01b01	51		 push	 ecx
  01b02	6a 7b		 push	 123			; 0000007bH
  01b04	6a 19		 push	 25			; 00000019H
  01b06	6a 6b		 push	 107			; 0000006bH
  01b08	6a 09		 push	 9
  01b0a	8d 8d 68 ff ff
	ff		 lea	 ecx, DWORD PTR $T188341[ebp]
  01b10	e8 00 00 00 00	 call	 ??0CRect@@QAE@HHHH@Z	; CRect::CRect
  01b15	50		 push	 eax
  01b16	68 00 00 00 10	 push	 268435456		; 10000000H
  01b1b	6a 00		 push	 0
  01b1d	8b 4d fc	 mov	 ecx, DWORD PTR _this$[ebp]
  01b20	81 c1 68 05 00
	00		 add	 ecx, 1384		; 00000568H
  01b26	8b 55 fc	 mov	 edx, DWORD PTR _this$[ebp]
  01b29	8b 82 68 05 00
	00		 mov	 eax, DWORD PTR [edx+1384]
  01b2f	ff 90 38 01 00
	00		 call	 DWORD PTR [eax+312]
  01b35	3b f4		 cmp	 esi, esp
  01b37	e8 00 00 00 00	 call	 __RTC_CheckEsp

; 365  : 
; 366  : 		m_btnCheck.SetSkin( pSkinMgr->GetDibBmp("msgminorexitboxchkNormal"),pSkinMgr->GetDibBmp("msgminorexitboxchkNormal"),pSkinMgr->GetDibBmp("msgminorexitboxchkOver"),NULL,NULL,NULL,0,0,0);

  01b3c	6a 00		 push	 0
  01b3e	6a 00		 push	 0
  01b40	6a 00		 push	 0
  01b42	6a 00		 push	 0
  01b44	6a 00		 push	 0
  01b46	6a 00		 push	 0
  01b48	6a 00		 push	 0
  01b4a	8b f4		 mov	 esi, esp
  01b4c	68 00 00 00 00	 push	 OFFSET FLAT:$SG187602
  01b51	8b 4d f8	 mov	 ecx, DWORD PTR _pSkinMgr$[ebp]
  01b54	8b 11		 mov	 edx, DWORD PTR [ecx]
  01b56	8b 4d f8	 mov	 ecx, DWORD PTR _pSkinMgr$[ebp]
  01b59	ff 52 04	 call	 DWORD PTR [edx+4]
  01b5c	3b f4		 cmp	 esi, esp
  01b5e	e8 00 00 00 00	 call	 __RTC_CheckEsp
  01b63	50		 push	 eax
  01b64	8b f4		 mov	 esi, esp
  01b66	68 00 00 00 00	 push	 OFFSET FLAT:$SG187603
  01b6b	8b 45 f8	 mov	 eax, DWORD PTR _pSkinMgr$[ebp]
  01b6e	8b 10		 mov	 edx, DWORD PTR [eax]
  01b70	8b 4d f8	 mov	 ecx, DWORD PTR _pSkinMgr$[ebp]
  01b73	ff 52 04	 call	 DWORD PTR [edx+4]
  01b76	3b f4		 cmp	 esi, esp
  01b78	e8 00 00 00 00	 call	 __RTC_CheckEsp
  01b7d	50		 push	 eax
  01b7e	8b f4		 mov	 esi, esp
  01b80	68 00 00 00 00	 push	 OFFSET FLAT:$SG187604
  01b85	8b 45 f8	 mov	 eax, DWORD PTR _pSkinMgr$[ebp]
  01b88	8b 10		 mov	 edx, DWORD PTR [eax]
  01b8a	8b 4d f8	 mov	 ecx, DWORD PTR _pSkinMgr$[ebp]
  01b8d	ff 52 04	 call	 DWORD PTR [edx+4]
  01b90	3b f4		 cmp	 esi, esp
  01b92	e8 00 00 00 00	 call	 __RTC_CheckEsp
  01b97	50		 push	 eax
  01b98	8b 4d fc	 mov	 ecx, DWORD PTR _this$[ebp]
  01b9b	81 c1 44 04 00
	00		 add	 ecx, 1092		; 00000444H
  01ba1	e8 00 00 00 00	 call	 ?SetSkin@CxSkinButton@@QAEXPAVCDibBitmap@@00000FFF_N@Z ; CxSkinButton::SetSkin

; 367  : 		m_btnUnCheck.SetSkin( pSkinMgr->GetDibBmp("msgminorexitboxuchkNormal"),pSkinMgr->GetDibBmp("msgminorexitboxuchkNormal"),pSkinMgr->GetDibBmp("msgminorexitboxuchkOver"),NULL,NULL,NULL,0,0,0);		

  01ba6	6a 00		 push	 0
  01ba8	6a 00		 push	 0
  01baa	6a 00		 push	 0
  01bac	6a 00		 push	 0
  01bae	6a 00		 push	 0
  01bb0	6a 00		 push	 0
  01bb2	6a 00		 push	 0
  01bb4	8b f4		 mov	 esi, esp
  01bb6	68 00 00 00 00	 push	 OFFSET FLAT:$SG187605
  01bbb	8b 45 f8	 mov	 eax, DWORD PTR _pSkinMgr$[ebp]
  01bbe	8b 10		 mov	 edx, DWORD PTR [eax]
  01bc0	8b 4d f8	 mov	 ecx, DWORD PTR _pSkinMgr$[ebp]
  01bc3	ff 52 04	 call	 DWORD PTR [edx+4]
  01bc6	3b f4		 cmp	 esi, esp
  01bc8	e8 00 00 00 00	 call	 __RTC_CheckEsp
  01bcd	50		 push	 eax
  01bce	8b f4		 mov	 esi, esp
  01bd0	68 00 00 00 00	 push	 OFFSET FLAT:$SG187606
  01bd5	8b 45 f8	 mov	 eax, DWORD PTR _pSkinMgr$[ebp]
  01bd8	8b 10		 mov	 edx, DWORD PTR [eax]
  01bda	8b 4d f8	 mov	 ecx, DWORD PTR _pSkinMgr$[ebp]
  01bdd	ff 52 04	 call	 DWORD PTR [edx+4]
  01be0	3b f4		 cmp	 esi, esp
  01be2	e8 00 00 00 00	 call	 __RTC_CheckEsp
  01be7	50		 push	 eax
  01be8	8b f4		 mov	 esi, esp
  01bea	68 00 00 00 00	 push	 OFFSET FLAT:$SG187607
  01bef	8b 45 f8	 mov	 eax, DWORD PTR _pSkinMgr$[ebp]
  01bf2	8b 10		 mov	 edx, DWORD PTR [eax]
  01bf4	8b 4d f8	 mov	 ecx, DWORD PTR _pSkinMgr$[ebp]
  01bf7	ff 52 04	 call	 DWORD PTR [edx+4]
  01bfa	3b f4		 cmp	 esi, esp
  01bfc	e8 00 00 00 00	 call	 __RTC_CheckEsp
  01c01	50		 push	 eax
  01c02	8b 4d fc	 mov	 ecx, DWORD PTR _this$[ebp]
  01c05	81 c1 68 05 00
	00		 add	 ecx, 1384		; 00000568H
  01c0b	e8 00 00 00 00	 call	 ?SetSkin@CxSkinButton@@QAEXPAVCDibBitmap@@00000FFF_N@Z ; CxSkinButton::SetSkin
$L187599:

; 368  : 	}
; 369  : 		
; 370  : 	CenterWindow();

  01c10	6a 00		 push	 0
  01c12	8b 4d fc	 mov	 ecx, DWORD PTR _this$[ebp]
  01c15	e8 00 00 00 00	 call	 ?CenterWindow@CWnd@@QAEXPAV1@@Z ; CWnd::CenterWindow

; 371  : 
; 372  : 	return TRUE;  

  01c1a	b8 01 00 00 00	 mov	 eax, 1

; 373  : }

  01c1f	5f		 pop	 edi
  01c20	5e		 pop	 esi
  01c21	81 c4 9c 00 00
	00		 add	 esp, 156		; 0000009cH
  01c27	3b ec		 cmp	 ebp, esp
  01c29	e8 00 00 00 00	 call	 __RTC_CheckEsp
  01c2e	8b e5		 mov	 esp, ebp
  01c30	5d		 pop	 ebp
  01c31	c3		 ret	 0
?OnInitDialog@CDialogMsg@@UAEHXZ ENDP			; CDialogMsg::OnInitDialog
_TEXT	ENDS
PUBLIC	?InterlockedExchangePointer@@YGPAXPAPAXPAX@Z	; InterlockedExchangePointer
PUBLIC	?_AtlGetThreadACPFake@ATL@@YGIXZ		; ATL::_AtlGetThreadACPFake
PUBLIC	?_AtlGetThreadACPReal@ATL@@YGIXZ		; ATL::_AtlGetThreadACPReal
EXTRN	__imp__GetVersionExA@4:NEAR
; Function compile flags: /Odt /RTCsu
; File d:\program files (x86)\microsoft visual studio .net 2003\vc7\atlmfc\include\atlconv.h
;	COMDAT ?_AtlGetThreadACPThunk@ATL@@YGIXZ
_TEXT	SEGMENT
_pfnGetThreadACP$ = -164				; size = 4
_ver$ = -156						; size = 148
__$ArrayPad$ = -4					; size = 4
__$ReturnAddr$ = 4					; size = 4
?_AtlGetThreadACPThunk@ATL@@YGIXZ PROC NEAR		; ATL::_AtlGetThreadACPThunk, COMDAT

; 134  : {

  00000	55		 push	 ebp
  00001	8b ec		 mov	 ebp, esp
  00003	81 ec a4 00 00
	00		 sub	 esp, 164		; 000000a4H
  00009	56		 push	 esi
  0000a	57		 push	 edi
  0000b	8d bd 5c ff ff
	ff		 lea	 edi, DWORD PTR [ebp-164]
  00011	b9 29 00 00 00	 mov	 ecx, 41			; 00000029H
  00016	b8 cc cc cc cc	 mov	 eax, -858993460		; ccccccccH
  0001b	f3 ab		 rep stosd
  0001d	a1 00 00 00 00	 mov	 eax, DWORD PTR ___security_cookie
  00022	89 45 fc	 mov	 DWORD PTR __$ArrayPad$[ebp], eax

; 135  : 	OSVERSIONINFO ver;
; 136  : 	ATLGETTHREADACP pfnGetThreadACP;
; 137  : 
; 138  : 	ver.dwOSVersionInfoSize = sizeof( ver );

  00025	c7 85 64 ff ff
	ff 94 00 00 00	 mov	 DWORD PTR _ver$[ebp], 148 ; 00000094H

; 139  : 	::GetVersionEx( &ver );

  0002f	8b f4		 mov	 esi, esp
  00031	8d 85 64 ff ff
	ff		 lea	 eax, DWORD PTR _ver$[ebp]
  00037	50		 push	 eax
  00038	ff 15 00 00 00
	00		 call	 DWORD PTR __imp__GetVersionExA@4
  0003e	3b f4		 cmp	 esi, esp
  00040	e8 00 00 00 00	 call	 __RTC_CheckEsp

; 140  : 	if( (ver.dwPlatformId == VER_PLATFORM_WIN32_NT) && (ver.dwMajorVersion >= 5) )

  00045	83 bd 74 ff ff
	ff 02		 cmp	 DWORD PTR _ver$[ebp+16], 2
  0004c	75 15		 jne	 SHORT $L24163
  0004e	83 bd 68 ff ff
	ff 05		 cmp	 DWORD PTR _ver$[ebp+4], 5
  00055	72 0c		 jb	 SHORT $L24163

; 141  : 	{
; 142  : 		// On Win2K, CP_THREAD_ACP is supported
; 143  : 		pfnGetThreadACP = _AtlGetThreadACPReal;

  00057	c7 85 5c ff ff
	ff 00 00 00 00	 mov	 DWORD PTR _pfnGetThreadACP$[ebp], OFFSET FLAT:?_AtlGetThreadACPReal@ATL@@YGIXZ ; ATL::_AtlGetThreadACPReal

; 144  : 	}
; 145  : 	else

  00061	eb 0a		 jmp	 SHORT $L24164
$L24163:

; 146  : 	{
; 147  : 		pfnGetThreadACP = _AtlGetThreadACPFake;

  00063	c7 85 5c ff ff
	ff 00 00 00 00	 mov	 DWORD PTR _pfnGetThreadACP$[ebp], OFFSET FLAT:?_AtlGetThreadACPFake@ATL@@YGIXZ ; ATL::_AtlGetThreadACPFake
$L24164:

; 148  : 	}
; 149  : 	InterlockedExchangePointer( reinterpret_cast< void** >(&g_pfnGetThreadACP), pfnGetThreadACP );

  0006d	8b 8d 5c ff ff
	ff		 mov	 ecx, DWORD PTR _pfnGetThreadACP$[ebp]
  00073	51		 push	 ecx
  00074	68 00 00 00 00	 push	 OFFSET FLAT:?g_pfnGetThreadACP@ATL@@3P6GIXZA ; ATL::g_pfnGetThreadACP
  00079	e8 00 00 00 00	 call	 ?InterlockedExchangePointer@@YGPAXPAPAXPAX@Z ; InterlockedExchangePointer

; 150  : 
; 151  : 	return( g_pfnGetThreadACP() );

  0007e	8b f4		 mov	 esi, esp
  00080	ff 15 00 00 00
	00		 call	 DWORD PTR ?g_pfnGetThreadACP@ATL@@3P6GIXZA ; ATL::g_pfnGetThreadACP
  00086	3b f4		 cmp	 esi, esp
  00088	e8 00 00 00 00	 call	 __RTC_CheckEsp

; 152  : }

  0008d	52		 push	 edx
  0008e	8b cd		 mov	 ecx, ebp
  00090	50		 push	 eax
  00091	8d 15 00 00 00
	00		 lea	 edx, DWORD PTR $L188347
  00097	e8 00 00 00 00	 call	 @_RTC_CheckStackVars@8
  0009c	58		 pop	 eax
  0009d	5a		 pop	 edx
  0009e	8b 4d fc	 mov	 ecx, DWORD PTR __$ArrayPad$[ebp]
  000a1	e8 00 00 00 00	 call	 @__security_check_cookie@4
  000a6	5f		 pop	 edi
  000a7	5e		 pop	 esi
  000a8	81 c4 a4 00 00
	00		 add	 esp, 164		; 000000a4H
  000ae	3b ec		 cmp	 ebp, esp
  000b0	e8 00 00 00 00	 call	 __RTC_CheckEsp
  000b5	8b e5		 mov	 esp, ebp
  000b7	5d		 pop	 ebp
  000b8	c3		 ret	 0
$L188347:
  000b9	01 00 00 00	 DD	 1
  000bd	00 00 00 00	 DD	 $L188346
$L188346:
  000c1	64 ff ff ff	 DD	 -156			; ffffff64H
  000c5	94 00 00 00	 DD	 148			; 00000094H
  000c9	00 00 00 00	 DD	 $L188344
$L188344:
  000cd	76		 DB	 118			; 00000076H
  000ce	65		 DB	 101			; 00000065H
  000cf	72		 DB	 114			; 00000072H
  000d0	00		 DB	 0
?_AtlGetThreadACPThunk@ATL@@YGIXZ ENDP			; ATL::_AtlGetThreadACPThunk
_TEXT	ENDS
EXTRN	__imp__InterlockedExchange@8:NEAR
; Function compile flags: /Odt /RTCsu
;	COMDAT ?InterlockedExchangePointer@@YGPAXPAPAXPAX@Z
_TEXT	SEGMENT
_pp$ = 8						; size = 4
_pNew$ = 12						; size = 4
?InterlockedExchangePointer@@YGPAXPAPAXPAX@Z PROC NEAR	; InterlockedExchangePointer, COMDAT

; 91   : {

  00000	55		 push	 ebp
  00001	8b ec		 mov	 ebp, esp
  00003	56		 push	 esi

; 92   : 	return( reinterpret_cast<void*>(static_cast<LONG_PTR>(::InterlockedExchange(reinterpret_cast<LONG*>(pp), static_cast<LONG>(reinterpret_cast<LONG_PTR>(pNew))))) );

  00004	8b f4		 mov	 esi, esp
  00006	8b 45 0c	 mov	 eax, DWORD PTR _pNew$[ebp]
  00009	50		 push	 eax
  0000a	8b 4d 08	 mov	 ecx, DWORD PTR _pp$[ebp]
  0000d	51		 push	 ecx
  0000e	ff 15 00 00 00
	00		 call	 DWORD PTR __imp__InterlockedExchange@8
  00014	3b f4		 cmp	 esi, esp
  00016	e8 00 00 00 00	 call	 __RTC_CheckEsp

; 93   : }

  0001b	5e		 pop	 esi
  0001c	3b ec		 cmp	 ebp, esp
  0001e	e8 00 00 00 00	 call	 __RTC_CheckEsp
  00023	5d		 pop	 ebp
  00024	c2 08 00	 ret	 8
?InterlockedExchangePointer@@YGPAXPAPAXPAX@Z ENDP	; InterlockedExchangePointer
_TEXT	ENDS
EXTRN	__imp__GetACP@0:NEAR
EXTRN	__imp__GetLocaleInfoA@16:NEAR
EXTRN	__imp__GetThreadLocale@0:NEAR
; Function compile flags: /Odt /RTCsu
;	COMDAT ?_AtlGetThreadACPFake@ATL@@YGIXZ
_TEXT	SEGMENT
_pch$24151 = -32					; size = 4
_szACP$ = -24						; size = 7
_lcidThread$ = -12					; size = 4
_nACP$ = -8						; size = 4
__$ArrayPad$ = -4					; size = 4
__$ReturnAddr$ = 4					; size = 4
?_AtlGetThreadACPFake@ATL@@YGIXZ PROC NEAR		; ATL::_AtlGetThreadACPFake, COMDAT

; 101  : {

  00000	55		 push	 ebp
  00001	8b ec		 mov	 ebp, esp
  00003	83 ec 20	 sub	 esp, 32			; 00000020H
  00006	56		 push	 esi
  00007	b8 cc cc cc cc	 mov	 eax, -858993460		; ccccccccH
  0000c	89 45 e0	 mov	 DWORD PTR [ebp-32], eax
  0000f	89 45 e4	 mov	 DWORD PTR [ebp-28], eax
  00012	89 45 e8	 mov	 DWORD PTR [ebp-24], eax
  00015	89 45 ec	 mov	 DWORD PTR [ebp-20], eax
  00018	89 45 f0	 mov	 DWORD PTR [ebp-16], eax
  0001b	89 45 f4	 mov	 DWORD PTR [ebp-12], eax
  0001e	89 45 f8	 mov	 DWORD PTR [ebp-8], eax
  00021	89 45 fc	 mov	 DWORD PTR [ebp-4], eax
  00024	a1 00 00 00 00	 mov	 eax, DWORD PTR ___security_cookie
  00029	89 45 fc	 mov	 DWORD PTR __$ArrayPad$[ebp], eax

; 102  : 	UINT nACP = 0;

  0002c	c7 45 f8 00 00
	00 00		 mov	 DWORD PTR _nACP$[ebp], 0

; 103  : 
; 104  : 	LCID lcidThread = ::GetThreadLocale();

  00033	8b f4		 mov	 esi, esp
  00035	ff 15 00 00 00
	00		 call	 DWORD PTR __imp__GetThreadLocale@0
  0003b	3b f4		 cmp	 esi, esp
  0003d	e8 00 00 00 00	 call	 __RTC_CheckEsp
  00042	89 45 f4	 mov	 DWORD PTR _lcidThread$[ebp], eax

; 105  : 
; 106  : 	char szACP[7];
; 107  : 	// GetLocaleInfoA will fail for a Unicode-only LCID, but those are only supported on 
; 108  : 	// Windows 2000.  Since Windows 2000 supports CP_THREAD_ACP, this code path is never
; 109  : 	// executed on Windows 2000.
; 110  : 	if (::GetLocaleInfoA(lcidThread, LOCALE_IDEFAULTANSICODEPAGE, szACP, 7) != 0)

  00045	8b f4		 mov	 esi, esp
  00047	6a 07		 push	 7
  00049	8d 45 e8	 lea	 eax, DWORD PTR _szACP$[ebp]
  0004c	50		 push	 eax
  0004d	68 04 10 00 00	 push	 4100			; 00001004H
  00052	8b 4d f4	 mov	 ecx, DWORD PTR _lcidThread$[ebp]
  00055	51		 push	 ecx
  00056	ff 15 00 00 00
	00		 call	 DWORD PTR __imp__GetLocaleInfoA@16
  0005c	3b f4		 cmp	 esi, esp
  0005e	e8 00 00 00 00	 call	 __RTC_CheckEsp
  00063	85 c0		 test	 eax, eax
  00065	74 34		 je	 SHORT $L24150

; 111  : 	{
; 112  : 		char* pch = szACP;

  00067	8d 55 e8	 lea	 edx, DWORD PTR _szACP$[ebp]
  0006a	89 55 e0	 mov	 DWORD PTR _pch$24151[ebp], edx
$L24153:

; 113  : 		while (*pch != '\0')

  0006d	8b 45 e0	 mov	 eax, DWORD PTR _pch$24151[ebp]
  00070	0f be 08	 movsx	 ecx, BYTE PTR [eax]
  00073	85 c9		 test	 ecx, ecx
  00075	74 24		 je	 SHORT $L24150

; 114  : 		{
; 115  : 			nACP *= 10;

  00077	8b 55 f8	 mov	 edx, DWORD PTR _nACP$[ebp]
  0007a	6b d2 0a	 imul	 edx, 10			; 0000000aH
  0007d	89 55 f8	 mov	 DWORD PTR _nACP$[ebp], edx

; 116  : 			nACP += *pch++ - '0';

  00080	8b 45 e0	 mov	 eax, DWORD PTR _pch$24151[ebp]
  00083	0f be 08	 movsx	 ecx, BYTE PTR [eax]
  00086	8b 55 f8	 mov	 edx, DWORD PTR _nACP$[ebp]
  00089	8d 44 0a d0	 lea	 eax, DWORD PTR [edx+ecx-48]
  0008d	89 45 f8	 mov	 DWORD PTR _nACP$[ebp], eax
  00090	8b 4d e0	 mov	 ecx, DWORD PTR _pch$24151[ebp]
  00093	83 c1 01	 add	 ecx, 1
  00096	89 4d e0	 mov	 DWORD PTR _pch$24151[ebp], ecx

; 117  : 		}

  00099	eb d2		 jmp	 SHORT $L24153
$L24150:

; 118  : 	}
; 119  : 	// Use the Default ANSI Code Page if we were unable to get the thread ACP or if one does not exist.
; 120  : 	if (nACP == 0)

  0009b	83 7d f8 00	 cmp	 DWORD PTR _nACP$[ebp], 0
  0009f	75 12		 jne	 SHORT $L24155

; 121  : 		nACP = ::GetACP();

  000a1	8b f4		 mov	 esi, esp
  000a3	ff 15 00 00 00
	00		 call	 DWORD PTR __imp__GetACP@0
  000a9	3b f4		 cmp	 esi, esp
  000ab	e8 00 00 00 00	 call	 __RTC_CheckEsp
  000b0	89 45 f8	 mov	 DWORD PTR _nACP$[ebp], eax
$L24155:

; 122  : 
; 123  : 	return nACP;

  000b3	8b 45 f8	 mov	 eax, DWORD PTR _nACP$[ebp]

; 124  : }

  000b6	52		 push	 edx
  000b7	8b cd		 mov	 ecx, ebp
  000b9	50		 push	 eax
  000ba	8d 15 00 00 00
	00		 lea	 edx, DWORD PTR $L188354
  000c0	e8 00 00 00 00	 call	 @_RTC_CheckStackVars@8
  000c5	58		 pop	 eax
  000c6	5a		 pop	 edx
  000c7	8b 4d fc	 mov	 ecx, DWORD PTR __$ArrayPad$[ebp]
  000ca	e8 00 00 00 00	 call	 @__security_check_cookie@4
  000cf	5e		 pop	 esi
  000d0	83 c4 20	 add	 esp, 32			; 00000020H
  000d3	3b ec		 cmp	 ebp, esp
  000d5	e8 00 00 00 00	 call	 __RTC_CheckEsp
  000da	8b e5		 mov	 esp, ebp
  000dc	5d		 pop	 ebp
  000dd	c3		 ret	 0
$L188354:
  000de	01 00 00 00	 DD	 1
  000e2	00 00 00 00	 DD	 $L188353
$L188353:
  000e6	e8 ff ff ff	 DD	 -24			; ffffffe8H
  000ea	07 00 00 00	 DD	 7
  000ee	00 00 00 00	 DD	 $L188351
$L188351:
  000f2	73		 DB	 115			; 00000073H
  000f3	7a		 DB	 122			; 0000007aH
  000f4	41		 DB	 65			; 00000041H
  000f5	43		 DB	 67			; 00000043H
  000f6	50		 DB	 80			; 00000050H
  000f7	00		 DB	 0
?_AtlGetThreadACPFake@ATL@@YGIXZ ENDP			; ATL::_AtlGetThreadACPFake
; Function compile flags: /Odt /RTCsu
_TEXT	ENDS
;	COMDAT ?_AtlGetThreadACPReal@ATL@@YGIXZ
_TEXT	SEGMENT
?_AtlGetThreadACPReal@ATL@@YGIXZ PROC NEAR		; ATL::_AtlGetThreadACPReal, COMDAT

; 127  : {

  00000	55		 push	 ebp
  00001	8b ec		 mov	 ebp, esp

; 128  : 	return( CP_THREAD_ACP );

  00003	b8 03 00 00 00	 mov	 eax, 3

; 129  : }

  00008	5d		 pop	 ebp
  00009	c3		 ret	 0
?_AtlGetThreadACPReal@ATL@@YGIXZ ENDP			; ATL::_AtlGetThreadACPReal
_TEXT	ENDS
EXTRN	?OnLButtonDown@CWnd@@IAEXIVCPoint@@@Z:NEAR	; CWnd::OnLButtonDown
EXTRN	?PtInRect@CRect@@QBEHUtagPOINT@@@Z:NEAR		; CRect::PtInRect
EXTRN	?PostMessageA@CWnd@@QAEHIIJ@Z:NEAR		; CWnd::PostMessageA
EXTRN	?ShowWindow@CWnd@@QAEHH@Z:NEAR			; CWnd::ShowWindow
EXTRN	?IsWindowVisible@CWnd@@QBEHXZ:NEAR		; CWnd::IsWindowVisible
; Function compile flags: /Odt /RTCsu
; File d:\boxgit\playbox\playbox\dev\prj\playbox\src\gui\commoncontrol\dialogmsg.cpp
_TEXT	SEGMENT
$T188357 = -12						; size = 8
_this$ = -4						; size = 4
_nFlags$ = 8						; size = 4
_point$ = 12						; size = 8
?OnLButtonDown@CDialogMsg@@QAEXIVCPoint@@@Z PROC NEAR	; CDialogMsg::OnLButtonDown
; _this$ = ecx

; 376  : {	

  01c40	55		 push	 ebp
  01c41	8b ec		 mov	 ebp, esp
  01c43	83 ec 0c	 sub	 esp, 12			; 0000000cH
  01c46	56		 push	 esi
  01c47	c7 45 f4 cc cc
	cc cc		 mov	 DWORD PTR [ebp-12], -858993460 ; ccccccccH
  01c4e	c7 45 f8 cc cc
	cc cc		 mov	 DWORD PTR [ebp-8], -858993460 ; ccccccccH
  01c55	c7 45 fc cc cc
	cc cc		 mov	 DWORD PTR [ebp-4], -858993460 ; ccccccccH
  01c5c	89 4d fc	 mov	 DWORD PTR _this$[ebp], ecx

; 377  : 	if( m_NoMoreHintRect.PtInRect( point) )

  01c5f	8b 45 0c	 mov	 eax, DWORD PTR _point$[ebp]
  01c62	89 45 f4	 mov	 DWORD PTR $T188357[ebp], eax
  01c65	8b 4d 10	 mov	 ecx, DWORD PTR _point$[ebp+4]
  01c68	89 4d f8	 mov	 DWORD PTR $T188357[ebp+4], ecx
  01c6b	8b 55 f8	 mov	 edx, DWORD PTR $T188357[ebp+4]
  01c6e	52		 push	 edx
  01c6f	8b 45 f4	 mov	 eax, DWORD PTR $T188357[ebp]
  01c72	50		 push	 eax
  01c73	8b 4d fc	 mov	 ecx, DWORD PTR _this$[ebp]
  01c76	81 c1 b0 00 00
	00		 add	 ecx, 176		; 000000b0H
  01c7c	e8 00 00 00 00	 call	 ?PtInRect@CRect@@QBEHUtagPOINT@@@Z ; CRect::PtInRect
  01c81	85 c0		 test	 eax, eax
  01c83	0f 84 84 00 00
	00		 je	 $L187614

; 378  : 	{
; 379  : 		if( m_btnCheck.IsWindowVisible() ) 

  01c89	8b 4d fc	 mov	 ecx, DWORD PTR _this$[ebp]
  01c8c	81 c1 44 04 00
	00		 add	 ecx, 1092		; 00000444H
  01c92	e8 00 00 00 00	 call	 ?IsWindowVisible@CWnd@@QBEHXZ ; CWnd::IsWindowVisible
  01c97	85 c0		 test	 eax, eax
  01c99	74 39		 je	 SHORT $L187615

; 380  : 		{
; 381  : 			m_btnCheck.ShowWindow(SW_HIDE);

  01c9b	6a 00		 push	 0
  01c9d	8b 4d fc	 mov	 ecx, DWORD PTR _this$[ebp]
  01ca0	81 c1 44 04 00
	00		 add	 ecx, 1092		; 00000444H
  01ca6	e8 00 00 00 00	 call	 ?ShowWindow@CWnd@@QAEHH@Z ; CWnd::ShowWindow

; 382  : 			m_btnUnCheck.ShowWindow(SW_SHOW);

  01cab	6a 05		 push	 5
  01cad	8b 4d fc	 mov	 ecx, DWORD PTR _this$[ebp]
  01cb0	81 c1 68 05 00
	00		 add	 ecx, 1384		; 00000568H
  01cb6	e8 00 00 00 00	 call	 ?ShowWindow@CWnd@@QAEHH@Z ; CWnd::ShowWindow

; 383  : 
; 384  : 			CheckBox_UnChecked();

  01cbb	8b 4d fc	 mov	 ecx, DWORD PTR _this$[ebp]
  01cbe	8b 11		 mov	 edx, DWORD PTR [ecx]
  01cc0	8b f4		 mov	 esi, esp
  01cc2	8b 4d fc	 mov	 ecx, DWORD PTR _this$[ebp]
  01cc5	ff 92 78 01 00
	00		 call	 DWORD PTR [edx+376]
  01ccb	3b f4		 cmp	 esi, esp
  01ccd	e8 00 00 00 00	 call	 __RTC_CheckEsp

; 385  : 		}
; 386  : 		else

  01cd2	eb 37		 jmp	 SHORT $L187616
$L187615:

; 387  : 		{
; 388  : 			m_btnCheck.ShowWindow(SW_SHOW);

  01cd4	6a 05		 push	 5
  01cd6	8b 4d fc	 mov	 ecx, DWORD PTR _this$[ebp]
  01cd9	81 c1 44 04 00
	00		 add	 ecx, 1092		; 00000444H
  01cdf	e8 00 00 00 00	 call	 ?ShowWindow@CWnd@@QAEHH@Z ; CWnd::ShowWindow

; 389  : 			m_btnUnCheck.ShowWindow(SW_HIDE);

  01ce4	6a 00		 push	 0
  01ce6	8b 4d fc	 mov	 ecx, DWORD PTR _this$[ebp]
  01ce9	81 c1 68 05 00
	00		 add	 ecx, 1384		; 00000568H
  01cef	e8 00 00 00 00	 call	 ?ShowWindow@CWnd@@QAEHH@Z ; CWnd::ShowWindow

; 390  : 			CheckBox_Checked();

  01cf4	8b 45 fc	 mov	 eax, DWORD PTR _this$[ebp]
  01cf7	8b 10		 mov	 edx, DWORD PTR [eax]
  01cf9	8b f4		 mov	 esi, esp
  01cfb	8b 4d fc	 mov	 ecx, DWORD PTR _this$[ebp]
  01cfe	ff 92 74 01 00
	00		 call	 DWORD PTR [edx+372]
  01d04	3b f4		 cmp	 esi, esp
  01d06	e8 00 00 00 00	 call	 __RTC_CheckEsp
$L187616:

; 391  : 		}
; 392  : 	}
; 393  : 	else

  01d0b	eb 27		 jmp	 SHORT $L187612
$L187614:

; 394  : 	{
; 395  : 		PostMessage( WM_NCLBUTTONDOWN, HTCAPTION, (LPARAM)&point );	

  01d0d	8d 45 0c	 lea	 eax, DWORD PTR _point$[ebp]
  01d10	50		 push	 eax
  01d11	6a 02		 push	 2
  01d13	68 a1 00 00 00	 push	 161			; 000000a1H
  01d18	8b 4d fc	 mov	 ecx, DWORD PTR _this$[ebp]
  01d1b	e8 00 00 00 00	 call	 ?PostMessageA@CWnd@@QAEHIIJ@Z ; CWnd::PostMessageA

; 396  : 		CDialog::OnLButtonDown(nFlags, point);

  01d20	8b 4d 10	 mov	 ecx, DWORD PTR _point$[ebp+4]
  01d23	51		 push	 ecx
  01d24	8b 55 0c	 mov	 edx, DWORD PTR _point$[ebp]
  01d27	52		 push	 edx
  01d28	8b 45 08	 mov	 eax, DWORD PTR _nFlags$[ebp]
  01d2b	50		 push	 eax
  01d2c	8b 4d fc	 mov	 ecx, DWORD PTR _this$[ebp]
  01d2f	e8 00 00 00 00	 call	 ?OnLButtonDown@CWnd@@IAEXIVCPoint@@@Z ; CWnd::OnLButtonDown
$L187612:

; 397  : 	}
; 398  : }

  01d34	5e		 pop	 esi
  01d35	83 c4 0c	 add	 esp, 12			; 0000000cH
  01d38	3b ec		 cmp	 ebp, esp
  01d3a	e8 00 00 00 00	 call	 __RTC_CheckEsp
  01d3f	8b e5		 mov	 esp, ebp
  01d41	5d		 pop	 ebp
  01d42	c2 0c 00	 ret	 12			; 0000000cH
?OnLButtonDown@CDialogMsg@@QAEXIVCPoint@@@Z ENDP	; CDialogMsg::OnLButtonDown
; Function compile flags: /Odt /RTCsu
_this$ = -4						; size = 4
?OnBnClickedCheck@CDialogMsg@@QAEXXZ PROC NEAR		; CDialogMsg::OnBnClickedCheck
; _this$ = ecx

; 402  : {

  01d50	55		 push	 ebp
  01d51	8b ec		 mov	 ebp, esp
  01d53	51		 push	 ecx
  01d54	56		 push	 esi
  01d55	c7 45 fc cc cc
	cc cc		 mov	 DWORD PTR [ebp-4], -858993460 ; ccccccccH
  01d5c	89 4d fc	 mov	 DWORD PTR _this$[ebp], ecx

; 403  : 	m_btnCheck.ShowWindow(SW_HIDE);

  01d5f	6a 00		 push	 0
  01d61	8b 4d fc	 mov	 ecx, DWORD PTR _this$[ebp]
  01d64	81 c1 44 04 00
	00		 add	 ecx, 1092		; 00000444H
  01d6a	e8 00 00 00 00	 call	 ?ShowWindow@CWnd@@QAEHH@Z ; CWnd::ShowWindow

; 404  : 	m_btnUnCheck.ShowWindow(SW_SHOW);

  01d6f	6a 05		 push	 5
  01d71	8b 4d fc	 mov	 ecx, DWORD PTR _this$[ebp]
  01d74	81 c1 68 05 00
	00		 add	 ecx, 1384		; 00000568H
  01d7a	e8 00 00 00 00	 call	 ?ShowWindow@CWnd@@QAEHH@Z ; CWnd::ShowWindow

; 405  : 	CheckBox_UnChecked();

  01d7f	8b 45 fc	 mov	 eax, DWORD PTR _this$[ebp]
  01d82	8b 10		 mov	 edx, DWORD PTR [eax]
  01d84	8b f4		 mov	 esi, esp
  01d86	8b 4d fc	 mov	 ecx, DWORD PTR _this$[ebp]
  01d89	ff 92 78 01 00
	00		 call	 DWORD PTR [edx+376]
  01d8f	3b f4		 cmp	 esi, esp
  01d91	e8 00 00 00 00	 call	 __RTC_CheckEsp

; 406  : }

  01d96	5e		 pop	 esi
  01d97	83 c4 04	 add	 esp, 4
  01d9a	3b ec		 cmp	 ebp, esp
  01d9c	e8 00 00 00 00	 call	 __RTC_CheckEsp
  01da1	8b e5		 mov	 esp, ebp
  01da3	5d		 pop	 ebp
  01da4	c3		 ret	 0
?OnBnClickedCheck@CDialogMsg@@QAEXXZ ENDP		; CDialogMsg::OnBnClickedCheck
; Function compile flags: /Odt /RTCsu
_this$ = -4						; size = 4
?OnBnClickedUnCheck@CDialogMsg@@QAEXXZ PROC NEAR	; CDialogMsg::OnBnClickedUnCheck
; _this$ = ecx

; 409  : {

  01db0	55		 push	 ebp
  01db1	8b ec		 mov	 ebp, esp
  01db3	51		 push	 ecx
  01db4	56		 push	 esi
  01db5	c7 45 fc cc cc
	cc cc		 mov	 DWORD PTR [ebp-4], -858993460 ; ccccccccH
  01dbc	89 4d fc	 mov	 DWORD PTR _this$[ebp], ecx

; 410  : 	m_btnCheck.ShowWindow(SW_SHOW);

  01dbf	6a 05		 push	 5
  01dc1	8b 4d fc	 mov	 ecx, DWORD PTR _this$[ebp]
  01dc4	81 c1 44 04 00
	00		 add	 ecx, 1092		; 00000444H
  01dca	e8 00 00 00 00	 call	 ?ShowWindow@CWnd@@QAEHH@Z ; CWnd::ShowWindow

; 411  : 	m_btnUnCheck.ShowWindow(SW_HIDE);

  01dcf	6a 00		 push	 0
  01dd1	8b 4d fc	 mov	 ecx, DWORD PTR _this$[ebp]
  01dd4	81 c1 68 05 00
	00		 add	 ecx, 1384		; 00000568H
  01dda	e8 00 00 00 00	 call	 ?ShowWindow@CWnd@@QAEHH@Z ; CWnd::ShowWindow

; 412  : 	CheckBox_Checked();

  01ddf	8b 45 fc	 mov	 eax, DWORD PTR _this$[ebp]
  01de2	8b 10		 mov	 edx, DWORD PTR [eax]
  01de4	8b f4		 mov	 esi, esp
  01de6	8b 4d fc	 mov	 ecx, DWORD PTR _this$[ebp]
  01de9	ff 92 74 01 00
	00		 call	 DWORD PTR [edx+372]
  01def	3b f4		 cmp	 esi, esp
  01df1	e8 00 00 00 00	 call	 __RTC_CheckEsp

; 413  : }

  01df6	5e		 pop	 esi
  01df7	83 c4 04	 add	 esp, 4
  01dfa	3b ec		 cmp	 ebp, esp
  01dfc	e8 00 00 00 00	 call	 __RTC_CheckEsp
  01e01	8b e5		 mov	 esp, ebp
  01e03	5d		 pop	 ebp
  01e04	c3		 ret	 0
?OnBnClickedUnCheck@CDialogMsg@@QAEXXZ ENDP		; CDialogMsg::OnBnClickedUnCheck
_TEXT	ENDS
PUBLIC	?ShowCheckBox@CDialogMsg@@QAEXH@Z		; CDialogMsg::ShowCheckBox
; Function compile flags: /Odt /RTCsu
_TEXT	SEGMENT
_this$ = -4						; size = 4
_bShow$ = 8						; size = 4
?ShowCheckBox@CDialogMsg@@QAEXH@Z PROC NEAR		; CDialogMsg::ShowCheckBox
; _this$ = ecx

; 416  : {

  01e10	55		 push	 ebp
  01e11	8b ec		 mov	 ebp, esp
  01e13	51		 push	 ecx
  01e14	c7 45 fc cc cc
	cc cc		 mov	 DWORD PTR [ebp-4], -858993460 ; ccccccccH
  01e1b	89 4d fc	 mov	 DWORD PTR _this$[ebp], ecx

; 417  : 	m_bShowCheckBox = bShow;

  01e1e	8b 45 fc	 mov	 eax, DWORD PTR _this$[ebp]
  01e21	8b 4d 08	 mov	 ecx, DWORD PTR _bShow$[ebp]
  01e24	89 88 d0 00 00
	00		 mov	 DWORD PTR [eax+208], ecx

; 418  : 	if( m_bShowCheckBox )

  01e2a	8b 55 fc	 mov	 edx, DWORD PTR _this$[ebp]
  01e2d	83 ba d0 00 00
	00 00		 cmp	 DWORD PTR [edx+208], 0
  01e34	74 12		 je	 SHORT $L187628

; 419  : 	{
; 420  : 		SetSize(260,131);

  01e36	68 83 00 00 00	 push	 131			; 00000083H
  01e3b	68 04 01 00 00	 push	 260			; 00000104H
  01e40	8b 4d fc	 mov	 ecx, DWORD PTR _this$[ebp]
  01e43	e8 00 00 00 00	 call	 ?SetSize@CDialogMsg@@QAEXHH@Z ; CDialogMsg::SetSize
$L187628:

; 421  : 	}
; 422  : }

  01e48	83 c4 04	 add	 esp, 4
  01e4b	3b ec		 cmp	 ebp, esp
  01e4d	e8 00 00 00 00	 call	 __RTC_CheckEsp
  01e52	8b e5		 mov	 esp, ebp
  01e54	5d		 pop	 ebp
  01e55	c2 04 00	 ret	 4
?ShowCheckBox@CDialogMsg@@QAEXH@Z ENDP			; CDialogMsg::ShowCheckBox
_TEXT	ENDS
PUBLIC	?SetCheckBoxText@CDialogMsg@@QAEXABV?$CStringT@DV?$StrTraitMFC_DLL@DV?$ChTraitsCRT@D@ATL@@@@@ATL@@@Z ; CDialogMsg::SetCheckBoxText
; Function compile flags: /Odt /RTCsu
_TEXT	SEGMENT
_this$ = -4						; size = 4
_str$ = 8						; size = 4
?SetCheckBoxText@CDialogMsg@@QAEXABV?$CStringT@DV?$StrTraitMFC_DLL@DV?$ChTraitsCRT@D@ATL@@@@@ATL@@@Z PROC NEAR ; CDialogMsg::SetCheckBoxText
; _this$ = ecx

; 425  : {

  01e60	55		 push	 ebp
  01e61	8b ec		 mov	 ebp, esp
  01e63	51		 push	 ecx
  01e64	56		 push	 esi
  01e65	c7 45 fc cc cc
	cc cc		 mov	 DWORD PTR [ebp-4], -858993460 ; ccccccccH
  01e6c	89 4d fc	 mov	 DWORD PTR _this$[ebp], ecx

; 426  : 	m_strCheckBox = str;

  01e6f	8b f4		 mov	 esi, esp
  01e71	8b 45 08	 mov	 eax, DWORD PTR _str$[ebp]
  01e74	50		 push	 eax
  01e75	8b 4d fc	 mov	 ecx, DWORD PTR _this$[ebp]
  01e78	81 c1 d4 00 00
	00		 add	 ecx, 212		; 000000d4H
  01e7e	ff 15 00 00 00
	00		 call	 DWORD PTR __imp_??4?$CStringT@DV?$StrTraitMFC_DLL@DV?$ChTraitsCRT@D@ATL@@@@@ATL@@QAEAAV01@ABV01@@Z
  01e84	3b f4		 cmp	 esi, esp
  01e86	e8 00 00 00 00	 call	 __RTC_CheckEsp

; 427  : }

  01e8b	5e		 pop	 esi
  01e8c	83 c4 04	 add	 esp, 4
  01e8f	3b ec		 cmp	 ebp, esp
  01e91	e8 00 00 00 00	 call	 __RTC_CheckEsp
  01e96	8b e5		 mov	 esp, ebp
  01e98	5d		 pop	 ebp
  01e99	c2 04 00	 ret	 4
?SetCheckBoxText@CDialogMsg@@QAEXABV?$CStringT@DV?$StrTraitMFC_DLL@DV?$ChTraitsCRT@D@ATL@@@@@ATL@@@Z ENDP ; CDialogMsg::SetCheckBoxText
; Function compile flags: /Odt /RTCsu
_TEXT	ENDS
;	COMDAT ??_9@$BBFE@AE
_TEXT	SEGMENT
??_9@$BBFE@AE PROC NEAR					; `vcall', COMDAT
  00000	8b 01		 mov	 eax, DWORD PTR [ecx]
  00002	ff a0 54 01 00
	00		 jmp	 DWORD PTR [eax+340]
??_9@$BBFE@AE ENDP					; `vcall'
; Function compile flags: /Odt /RTCsu
_TEXT	ENDS
;	COMDAT ??_9@$BBFI@AE
_TEXT	SEGMENT
??_9@$BBFI@AE PROC NEAR					; `vcall', COMDAT
  00000	8b 01		 mov	 eax, DWORD PTR [ecx]
  00002	ff a0 58 01 00
	00		 jmp	 DWORD PTR [eax+344]
??_9@$BBFI@AE ENDP					; `vcall'
_TEXT	ENDS
PUBLIC	??_C@_0FI@KKCCAGJG@D?3?2Program?5Files?5?$CIx86?$CJ?2Microsoft@ ; `string'
EXTRN	__imp__IsWindow@4:NEAR
EXTRN	__imp__SetLayeredWindowAttributes@16:NEAR
EXTRN	?AfxAssertFailedLine@@YGHPBDH@Z:NEAR		; AfxAssertFailedLine
;	COMDAT ??_C@_0FI@KKCCAGJG@D?3?2Program?5Files?5?$CIx86?$CJ?2Microsoft@
; File d:\program files (x86)\microsoft visual studio .net 2003\vc7\atlmfc\include\afxwin4.inl
CONST	SEGMENT
??_C@_0FI@KKCCAGJG@D?3?2Program?5Files?5?$CIx86?$CJ?2Microsoft@ DB 'D:\Pr'
	DB	'ogram Files (x86)\Microsoft Visual Studio .NET 2003\Vc7\atlmf'
	DB	'c\include\afxwin4.inl', 00H			; `string'
; Function compile flags: /Odt /RTCsu
CONST	ENDS
;	COMDAT ?SetLayeredWindowAttributes@CWnd@@QAEHKEK@Z
_TEXT	SEGMENT
_this$ = -4						; size = 4
_crKey$ = 8						; size = 4
_bAlpha$ = 12						; size = 1
_dwFlags$ = 16						; size = 4
?SetLayeredWindowAttributes@CWnd@@QAEHKEK@Z PROC NEAR	; CWnd::SetLayeredWindowAttributes, COMDAT
; _this$ = ecx

; 119  : {

  00000	55		 push	 ebp
  00001	8b ec		 mov	 ebp, esp
  00003	51		 push	 ecx
  00004	56		 push	 esi
  00005	c7 45 fc cc cc
	cc cc		 mov	 DWORD PTR [ebp-4], -858993460 ; ccccccccH
  0000c	89 4d fc	 mov	 DWORD PTR _this$[ebp], ecx

; 120  : 	ASSERT(::IsWindow(m_hWnd)); 

  0000f	8b f4		 mov	 esi, esp
  00011	8b 45 fc	 mov	 eax, DWORD PTR _this$[ebp]
  00014	8b 48 20	 mov	 ecx, DWORD PTR [eax+32]
  00017	51		 push	 ecx
  00018	ff 15 00 00 00
	00		 call	 DWORD PTR __imp__IsWindow@4
  0001e	3b f4		 cmp	 esi, esp
  00020	e8 00 00 00 00	 call	 __RTC_CheckEsp
  00025	85 c0		 test	 eax, eax
  00027	75 11		 jne	 SHORT $L188365
  00029	6a 78		 push	 120			; 00000078H
  0002b	68 00 00 00 00	 push	 OFFSET FLAT:??_C@_0FI@KKCCAGJG@D?3?2Program?5Files?5?$CIx86?$CJ?2Microsoft@
  00030	e8 00 00 00 00	 call	 ?AfxAssertFailedLine@@YGHPBDH@Z ; AfxAssertFailedLine
  00035	85 c0		 test	 eax, eax
  00037	74 01		 je	 SHORT $L188365
  00039	cc		 int	 3
$L188365:

; 121  : 	return ::SetLayeredWindowAttributes(m_hWnd, crKey, bAlpha, dwFlags);

  0003a	8b f4		 mov	 esi, esp
  0003c	8b 45 10	 mov	 eax, DWORD PTR _dwFlags$[ebp]
  0003f	50		 push	 eax
  00040	8a 4d 0c	 mov	 cl, BYTE PTR _bAlpha$[ebp]
  00043	51		 push	 ecx
  00044	8b 55 08	 mov	 edx, DWORD PTR _crKey$[ebp]
  00047	52		 push	 edx
  00048	8b 45 fc	 mov	 eax, DWORD PTR _this$[ebp]
  0004b	8b 48 20	 mov	 ecx, DWORD PTR [eax+32]
  0004e	51		 push	 ecx
  0004f	ff 15 00 00 00
	00		 call	 DWORD PTR __imp__SetLayeredWindowAttributes@16
  00055	3b f4		 cmp	 esi, esp
  00057	e8 00 00 00 00	 call	 __RTC_CheckEsp

; 122  : }

  0005c	5e		 pop	 esi
  0005d	83 c4 04	 add	 esp, 4
  00060	3b ec		 cmp	 ebp, esp
  00062	e8 00 00 00 00	 call	 __RTC_CheckEsp
  00067	8b e5		 mov	 esp, ebp
  00069	5d		 pop	 ebp
  0006a	c2 0c 00	 ret	 12			; 0000000cH
?SetLayeredWindowAttributes@CWnd@@QAEHKEK@Z ENDP	; CWnd::SetLayeredWindowAttributes
_TEXT	ENDS
END
