; Listing generated by Microsoft (R) Optimizing Compiler Version 13.10.3077 

	TITLE	.\src\AppConfig\config\Dlg\DlgConfig.cpp
	.386P
include listing.inc
if @Version gt 510
.model FLAT
else
_TEXT	SEGMENT PARA USE32 PUBLIC 'CODE'
_TEXT	ENDS
_DATA	SEGMENT DWORD USE32 PUBLIC 'DATA'
_DATA	ENDS
CONST	SEGMENT DWORD USE32 PUBLIC 'CONST'
CONST	ENDS
_BSS	SEGMENT DWORD USE32 PUBLIC 'BSS'
_BSS	ENDS
$$SYMBOLS	SEGMENT BYTE USE32 'DEBSYM'
$$SYMBOLS	ENDS
_TLS	SEGMENT DWORD USE32 PUBLIC 'TLS'
_TLS	ENDS
;	COMDAT ??_C@_0EN@IBFBLEEG@D?3?2Program?5Files?5?$CIx86?$CJ?2Microsoft@
CONST	SEGMENT DWORD USE32 PUBLIC 'CONST'
CONST	ENDS
;	COMDAT ??_C@_0BE@JONHPENG@map?1set?$DMT?$DO?5too?5long?$AA@
CONST	SEGMENT DWORD USE32 PUBLIC 'CONST'
CONST	ENDS
rdata$r	SEGMENT DWORD USE32 PUBLIC 'CONST'
rdata$r	ENDS
xdata$x	SEGMENT DWORD USE32 PUBLIC 'CONST'
xdata$x	ENDS
text$AFX_COL1	SEGMENT PARA USE32 PUBLIC ''
text$AFX_COL1	ENDS
text$yc	SEGMENT PARA USE32 PUBLIC 'CODE'
text$yc	ENDS
CRT$XCA	SEGMENT DWORD USE32 PUBLIC 'DATA'
CRT$XCA	ENDS
CRT$XCU	SEGMENT DWORD USE32 PUBLIC 'DATA'
CRT$XCU	ENDS
CRT$XCL	SEGMENT DWORD USE32 PUBLIC 'DATA'
CRT$XCL	ENDS
CRT$XCC	SEGMENT DWORD USE32 PUBLIC 'DATA'
CRT$XCC	ENDS
CRT$XCZ	SEGMENT DWORD USE32 PUBLIC 'DATA'
CRT$XCZ	ENDS
text$yd	SEGMENT PARA USE32 PUBLIC 'CODE'
text$yd	ENDS
ATL$__m	SEGMENT DWORD USE32 PUBLIC ''
ATL$__m	ENDS
ATL$__z	SEGMENT DWORD USE32 PUBLIC ''
ATL$__z	ENDS
ATL$__a	SEGMENT DWORD USE32 PUBLIC ''
ATL$__a	ENDS
;	COMDAT ?IAppExit@IAppExitObserver@@UAEXXZ
_TEXT	SEGMENT PARA USE32 PUBLIC 'CODE'
_TEXT	ENDS
;	COMDAT _$E5
text$yc	SEGMENT PARA USE32 PUBLIC 'CODE'
text$yc	ENDS
;	COMDAT ??1IData@@MAE@XZ
_TEXT	SEGMENT PARA USE32 PUBLIC 'CODE'
_TEXT	ENDS
;	COMDAT ?DataAppStart@IData@@UAEXXZ
_TEXT	SEGMENT PARA USE32 PUBLIC 'CODE'
_TEXT	ENDS
;	COMDAT ?DataAppExit@IData@@UAEXXZ
_TEXT	SEGMENT PARA USE32 PUBLIC 'CODE'
_TEXT	ENDS
;	COMDAT ??_GIData@@MAEPAXI@Z
_TEXT	SEGMENT PARA USE32 PUBLIC 'CODE'
_TEXT	ENDS
;	COMDAT ??_GCConfigDialog@@UAEPAXI@Z
_TEXT	SEGMENT PARA USE32 PUBLIC 'CODE'
_TEXT	ENDS
;	COMDAT ??0IMessageObserver@@QAE@XZ
_TEXT	SEGMENT PARA USE32 PUBLIC 'CODE'
_TEXT	ENDS
;	COMDAT ??0IAppExitObserver@@QAE@XZ
_TEXT	SEGMENT PARA USE32 PUBLIC 'CODE'
_TEXT	ENDS
;	COMDAT ??1IAppExitObserver@@UAE@XZ
_TEXT	SEGMENT PARA USE32 PUBLIC 'CODE'
_TEXT	ENDS
;	COMDAT ??1?$map@HPAVBaseDialog@@U?$less@H@std@@V?$allocator@U?$pair@$$CBHPAVBaseDialog@@@std@@@3@@std@@QAE@XZ
_TEXT	SEGMENT PARA USE32 PUBLIC 'CODE'
_TEXT	ENDS
;	COMDAT ??_DCConfigDialog@@QAEXXZ
_TEXT	SEGMENT PARA USE32 PUBLIC 'CODE'
_TEXT	ENDS
;	COMDAT ??_GIAppExitObserver@@UAEPAXI@Z
_TEXT	SEGMENT PARA USE32 PUBLIC 'CODE'
_TEXT	ENDS
;	COMDAT ??_DIAppExitObserver@@QAEXXZ
_TEXT	SEGMENT PARA USE32 PUBLIC 'CODE'
_TEXT	ENDS
;	COMDAT _$E7
text$yc	SEGMENT PARA USE32 PUBLIC 'CODE'
text$yc	ENDS
;	COMDAT ??B?$CComPtrBase@UITypeInfo2@@@ATL@@QBEPAUITypeInfo2@@XZ
_TEXT	SEGMENT PARA USE32 PUBLIC 'CODE'
_TEXT	ENDS
;	COMDAT ?equal@?$istreambuf_iterator@DU?$char_traits@D@std@@@std@@QBE_NABV12@@Z
_TEXT	SEGMENT PARA USE32 PUBLIC 'CODE'
_TEXT	ENDS
;	COMDAT ?equal@?$istreambuf_iterator@_WU?$char_traits@_W@std@@@std@@QBE_NABV12@@Z
_TEXT	SEGMENT PARA USE32 PUBLIC 'CODE'
_TEXT	ENDS
;	COMDAT ??0?$map@HPAVBaseDialog@@U?$less@H@std@@V?$allocator@U?$pair@$$CBHPAVBaseDialog@@@std@@@3@@std@@QAE@XZ
_TEXT	SEGMENT PARA USE32 PUBLIC 'CODE'
_TEXT	ENDS
;	COMDAT ??A?$map@HPAVBaseDialog@@U?$less@H@std@@V?$allocator@U?$pair@$$CBHPAVBaseDialog@@@std@@@3@@std@@QAEAAPAVBaseDialog@@ABH@Z
_TEXT	SEGMENT PARA USE32 PUBLIC 'CODE'
_TEXT	ENDS
;	COMDAT ??1?$_Tree@V?$_Tmap_traits@HPAVBaseDialog@@U?$less@H@std@@V?$allocator@U?$pair@$$CBHPAVBaseDialog@@@std@@@3@$0A@@std@@@std@@QAE@XZ
_TEXT	SEGMENT PARA USE32 PUBLIC 'CODE'
_TEXT	ENDS
;	COMDAT ?size@?$_Tree@V?$_Tmap_traits@HPAVBaseDialog@@U?$less@H@std@@V?$allocator@U?$pair@$$CBHPAVBaseDialog@@@std@@@3@$0A@@std@@@std@@QBEIXZ
_TEXT	SEGMENT PARA USE32 PUBLIC 'CODE'
_TEXT	ENDS
;	COMDAT ?_Key@?$_Tree@V?$_Tmap_traits@HPAVBaseDialog@@U?$less@H@std@@V?$allocator@U?$pair@$$CBHPAVBaseDialog@@@std@@@3@$0A@@std@@@std@@KAABHPAU_Node@?$_Tree_nod@V?$_Tmap_traits@HPAVBaseDialog@@U?$less@H@std@@V?$allocator@U?$pair@$$CBHPAVBaseDialog@@@std@@@3@$0A@@std@@@2@@Z
_TEXT	SEGMENT PARA USE32 PUBLIC 'CODE'
_TEXT	ENDS
;	COMDAT ??0?$_Tree@V?$_Tmap_traits@HPAVBaseDialog@@U?$less@H@std@@V?$allocator@U?$pair@$$CBHPAVBaseDialog@@@std@@@3@$0A@@std@@@std@@QAE@ABU?$less@H@1@ABV?$allocator@U?$pair@$$CBHPAVBaseDialog@@@std@@@1@@Z
_TEXT	SEGMENT PARA USE32 PUBLIC 'CODE'
_TEXT	ENDS
;	COMDAT ?end@?$_Tree@V?$_Tmap_traits@HPAVBaseDialog@@U?$less@H@std@@V?$allocator@U?$pair@$$CBHPAVBaseDialog@@@std@@@3@$0A@@std@@@std@@QAE?AViterator@12@XZ
_TEXT	SEGMENT PARA USE32 PUBLIC 'CODE'
_TEXT	ENDS
;	COMDAT ?insert@?$_Tree@V?$_Tmap_traits@HPAVBaseDialog@@U?$less@H@std@@V?$allocator@U?$pair@$$CBHPAVBaseDialog@@@std@@@3@$0A@@std@@@std@@QAE?AViterator@12@V312@ABU?$pair@$$CBHPAVBaseDialog@@@2@@Z
_TEXT	SEGMENT PARA USE32 PUBLIC 'CODE'
_TEXT	ENDS
;	COMDAT ?lower_bound@?$_Tree@V?$_Tmap_traits@HPAVBaseDialog@@U?$less@H@std@@V?$allocator@U?$pair@$$CBHPAVBaseDialog@@@std@@@3@$0A@@std@@@std@@QAE?AViterator@12@ABH@Z
_TEXT	SEGMENT PARA USE32 PUBLIC 'CODE'
_TEXT	ENDS
;	COMDAT ?_Tidy@?$_Tree@V?$_Tmap_traits@HPAVBaseDialog@@U?$less@H@std@@V?$allocator@U?$pair@$$CBHPAVBaseDialog@@@std@@@3@$0A@@std@@@std@@IAEXXZ
_TEXT	SEGMENT PARA USE32 PUBLIC 'CODE'
_TEXT	ENDS
;	COMDAT ??0?$allocator@U?$pair@$$CBHPAVBaseDialog@@@std@@@std@@QAE@XZ
_TEXT	SEGMENT PARA USE32 PUBLIC 'CODE'
_TEXT	ENDS
;	COMDAT ??R?$less@H@std@@QBE_NABH0@Z
_TEXT	SEGMENT PARA USE32 PUBLIC 'CODE'
_TEXT	ENDS
;	COMDAT ??Diterator@?$_Tree@V?$_Tmap_traits@HPAVBaseDialog@@U?$less@H@std@@V?$allocator@U?$pair@$$CBHPAVBaseDialog@@@std@@@3@$0A@@std@@@std@@QBEAAU?$pair@$$CBHPAVBaseDialog@@@2@XZ
_TEXT	SEGMENT PARA USE32 PUBLIC 'CODE'
_TEXT	ENDS
;	COMDAT ??8const_iterator@?$_Tree@V?$_Tmap_traits@HPAVBaseDialog@@U?$less@H@std@@V?$allocator@U?$pair@$$CBHPAVBaseDialog@@@std@@@3@$0A@@std@@@std@@QBE_NABV012@@Z
_TEXT	SEGMENT PARA USE32 PUBLIC 'CODE'
_TEXT	ENDS
;	COMDAT ?_Mynode@const_iterator@?$_Tree@V?$_Tmap_traits@HPAVBaseDialog@@U?$less@H@std@@V?$allocator@U?$pair@$$CBHPAVBaseDialog@@@std@@@3@$0A@@std@@@std@@QBEPAU_Node@?$_Tree_nod@V?$_Tmap_traits@HPAVBaseDialog@@U?$less@H@std@@V?$allocator@U?$pair@$$CBHPAVBaseDialog@@@std@@@3@$0A@@std@@@3@XZ
_TEXT	SEGMENT PARA USE32 PUBLIC 'CODE'
_TEXT	ENDS
;	COMDAT ??0?$pair@$$CBHPAVBaseDialog@@@std@@QAE@ABHABQAVBaseDialog@@@Z
_TEXT	SEGMENT PARA USE32 PUBLIC 'CODE'
_TEXT	ENDS
;	COMDAT ?_Isnil@?$_Tree@V?$_Tmap_traits@HPAVBaseDialog@@U?$less@H@std@@V?$allocator@U?$pair@$$CBHPAVBaseDialog@@@std@@@3@$0A@@std@@@std@@KAAADPAU_Node@?$_Tree_nod@V?$_Tmap_traits@HPAVBaseDialog@@U?$less@H@std@@V?$allocator@U?$pair@$$CBHPAVBaseDialog@@@std@@@3@$0A@@std@@@2@@Z
_TEXT	SEGMENT PARA USE32 PUBLIC 'CODE'
_TEXT	ENDS
;	COMDAT ?_Left@?$_Tree@V?$_Tmap_traits@HPAVBaseDialog@@U?$less@H@std@@V?$allocator@U?$pair@$$CBHPAVBaseDialog@@@std@@@3@$0A@@std@@@std@@KAAAPAU_Node@?$_Tree_nod@V?$_Tmap_traits@HPAVBaseDialog@@U?$less@H@std@@V?$allocator@U?$pair@$$CBHPAVBaseDialog@@@std@@@3@$0A@@std@@@2@PAU342@@Z
_TEXT	SEGMENT PARA USE32 PUBLIC 'CODE'
_TEXT	ENDS
;	COMDAT ?_Parent@?$_Tree@V?$_Tmap_traits@HPAVBaseDialog@@U?$less@H@std@@V?$allocator@U?$pair@$$CBHPAVBaseDialog@@@std@@@3@$0A@@std@@@std@@KAAAPAU_Node@?$_Tree_nod@V?$_Tmap_traits@HPAVBaseDialog@@U?$less@H@std@@V?$allocator@U?$pair@$$CBHPAVBaseDialog@@@std@@@3@$0A@@std@@@2@PAU342@@Z
_TEXT	SEGMENT PARA USE32 PUBLIC 'CODE'
_TEXT	ENDS
;	COMDAT ?_Right@?$_Tree@V?$_Tmap_traits@HPAVBaseDialog@@U?$less@H@std@@V?$allocator@U?$pair@$$CBHPAVBaseDialog@@@std@@@3@$0A@@std@@@std@@KAAAPAU_Node@?$_Tree_nod@V?$_Tmap_traits@HPAVBaseDialog@@U?$less@H@std@@V?$allocator@U?$pair@$$CBHPAVBaseDialog@@@std@@@3@$0A@@std@@@2@PAU342@@Z
_TEXT	SEGMENT PARA USE32 PUBLIC 'CODE'
_TEXT	ENDS
;	COMDAT ?_Myval@?$_Tree@V?$_Tmap_traits@HPAVBaseDialog@@U?$less@H@std@@V?$allocator@U?$pair@$$CBHPAVBaseDialog@@@std@@@3@$0A@@std@@@std@@KAAAU?$pair@$$CBHPAVBaseDialog@@@2@PAU_Node@?$_Tree_nod@V?$_Tmap_traits@HPAVBaseDialog@@U?$less@H@std@@V?$allocator@U?$pair@$$CBHPAVBaseDialog@@@std@@@3@$0A@@std@@@2@@Z
_TEXT	SEGMENT PARA USE32 PUBLIC 'CODE'
_TEXT	ENDS
;	COMDAT ?begin@?$_Tree@V?$_Tmap_traits@HPAVBaseDialog@@U?$less@H@std@@V?$allocator@U?$pair@$$CBHPAVBaseDialog@@@std@@@3@$0A@@std@@@std@@QAE?AViterator@12@XZ
_TEXT	SEGMENT PARA USE32 PUBLIC 'CODE'
_TEXT	ENDS
;	COMDAT ?insert@?$_Tree@V?$_Tmap_traits@HPAVBaseDialog@@U?$less@H@std@@V?$allocator@U?$pair@$$CBHPAVBaseDialog@@@std@@@3@$0A@@std@@@std@@QAE?AU?$pair@Viterator@?$_Tree@V?$_Tmap_traits@HPAVBaseDialog@@U?$less@H@std@@V?$allocator@U?$pair@$$CBHPAVBaseDialog@@@std@@@3@$0A@@std@@@std@@_N@2@ABU?$pair@$$CBHPAVBaseDialog@@@2@@Z
_TEXT	SEGMENT PARA USE32 PUBLIC 'CODE'
_TEXT	ENDS
;	COMDAT ?erase@?$_Tree@V?$_Tmap_traits@HPAVBaseDialog@@U?$less@H@std@@V?$allocator@U?$pair@$$CBHPAVBaseDialog@@@std@@@3@$0A@@std@@@std@@QAE?AViterator@12@V312@0@Z
_TEXT	SEGMENT PARA USE32 PUBLIC 'CODE'
_TEXT	ENDS
;	COMDAT ?_Init@?$_Tree@V?$_Tmap_traits@HPAVBaseDialog@@U?$less@H@std@@V?$allocator@U?$pair@$$CBHPAVBaseDialog@@@std@@@3@$0A@@std@@@std@@IAEXXZ
_TEXT	SEGMENT PARA USE32 PUBLIC 'CODE'
_TEXT	ENDS
;	COMDAT ?_Insert@?$_Tree@V?$_Tmap_traits@HPAVBaseDialog@@U?$less@H@std@@V?$allocator@U?$pair@$$CBHPAVBaseDialog@@@std@@@3@$0A@@std@@@std@@IAE?AViterator@12@_NPAU_Node@?$_Tree_nod@V?$_Tmap_traits@HPAVBaseDialog@@U?$less@H@std@@V?$allocator@U?$pair@$$CBHPAVBaseDialog@@@std@@@3@$0A@@std@@@2@ABU?$pair@$$CBHPAVBaseDialog@@@2@@Z
_TEXT	SEGMENT PARA USE32 PUBLIC 'CODE'
_TEXT	ENDS
;	COMDAT ?_Lbound@?$_Tree@V?$_Tmap_traits@HPAVBaseDialog@@U?$less@H@std@@V?$allocator@U?$pair@$$CBHPAVBaseDialog@@@std@@@3@$0A@@std@@@std@@IBEPAU_Node@?$_Tree_nod@V?$_Tmap_traits@HPAVBaseDialog@@U?$less@H@std@@V?$allocator@U?$pair@$$CBHPAVBaseDialog@@@std@@@3@$0A@@std@@@2@ABH@Z
_TEXT	SEGMENT PARA USE32 PUBLIC 'CODE'
_TEXT	ENDS
;	COMDAT ?_Rmost@?$_Tree@V?$_Tmap_traits@HPAVBaseDialog@@U?$less@H@std@@V?$allocator@U?$pair@$$CBHPAVBaseDialog@@@std@@@3@$0A@@std@@@std@@IAEAAPAU_Node@?$_Tree_nod@V?$_Tmap_traits@HPAVBaseDialog@@U?$less@H@std@@V?$allocator@U?$pair@$$CBHPAVBaseDialog@@@std@@@3@$0A@@std@@@2@XZ
_TEXT	SEGMENT PARA USE32 PUBLIC 'CODE'
_TEXT	ENDS
;	COMDAT ??0?$_Tree_val@V?$_Tmap_traits@HPAVBaseDialog@@U?$less@H@std@@V?$allocator@U?$pair@$$CBHPAVBaseDialog@@@std@@@3@$0A@@std@@@std@@IAE@ABU?$less@H@1@V?$allocator@U?$pair@$$CBHPAVBaseDialog@@@std@@@1@@Z
_TEXT	SEGMENT PARA USE32 PUBLIC 'CODE'
_TEXT	ENDS
;	COMDAT ?_Kfn@?$_Tmap_traits@HPAVBaseDialog@@U?$less@H@std@@V?$allocator@U?$pair@$$CBHPAVBaseDialog@@@std@@@3@$0A@@std@@SAABHABU?$pair@$$CBHPAVBaseDialog@@@2@@Z
_TEXT	SEGMENT PARA USE32 PUBLIC 'CODE'
_TEXT	ENDS
;	COMDAT ??0?$allocator@U?$pair@$$CBHPAVBaseDialog@@@std@@@std@@QAE@ABV01@@Z
_TEXT	SEGMENT PARA USE32 PUBLIC 'CODE'
_TEXT	ENDS
;	COMDAT ?deallocate@?$allocator@U_Node@?$_Tree_nod@V?$_Tmap_traits@HPAVBaseDialog@@U?$less@H@std@@V?$allocator@U?$pair@$$CBHPAVBaseDialog@@@std@@@3@$0A@@std@@@std@@@std@@QAEXPAU_Node@?$_Tree_nod@V?$_Tmap_traits@HPAVBaseDialog@@U?$less@H@std@@V?$allocator@U?$pair@$$CBHPAVBaseDialog@@@std@@@3@$0A@@std@@@2@I@Z
_TEXT	SEGMENT PARA USE32 PUBLIC 'CODE'
_TEXT	ENDS
;	COMDAT ?destroy@?$allocator@PAU_Node@?$_Tree_nod@V?$_Tmap_traits@HPAVBaseDialog@@U?$less@H@std@@V?$allocator@U?$pair@$$CBHPAVBaseDialog@@@std@@@3@$0A@@std@@@std@@@std@@QAEXPAPAU_Node@?$_Tree_nod@V?$_Tmap_traits@HPAVBaseDialog@@U?$less@H@std@@V?$allocator@U?$pair@$$CBHPAVBaseDialog@@@std@@@3@$0A@@std@@@2@@Z
_TEXT	SEGMENT PARA USE32 PUBLIC 'CODE'
_TEXT	ENDS
;	COMDAT ??0iterator@?$_Tree@V?$_Tmap_traits@HPAVBaseDialog@@U?$less@H@std@@V?$allocator@U?$pair@$$CBHPAVBaseDialog@@@std@@@3@$0A@@std@@@std@@QAE@XZ
_TEXT	SEGMENT PARA USE32 PUBLIC 'CODE'
_TEXT	ENDS
;	COMDAT ??0iterator@?$_Tree@V?$_Tmap_traits@HPAVBaseDialog@@U?$less@H@std@@V?$allocator@U?$pair@$$CBHPAVBaseDialog@@@std@@@3@$0A@@std@@@std@@QAE@PAU_Node@?$_Tree_nod@V?$_Tmap_traits@HPAVBaseDialog@@U?$less@H@std@@V?$allocator@U?$pair@$$CBHPAVBaseDialog@@@std@@@3@$0A@@std@@@2@@Z
_TEXT	SEGMENT PARA USE32 PUBLIC 'CODE'
_TEXT	ENDS
;	COMDAT ??Eiterator@?$_Tree@V?$_Tmap_traits@HPAVBaseDialog@@U?$less@H@std@@V?$allocator@U?$pair@$$CBHPAVBaseDialog@@@std@@@3@$0A@@std@@@std@@QAEAAV012@XZ
_TEXT	SEGMENT PARA USE32 PUBLIC 'CODE'
_TEXT	ENDS
;	COMDAT ??Fiterator@?$_Tree@V?$_Tmap_traits@HPAVBaseDialog@@U?$less@H@std@@V?$allocator@U?$pair@$$CBHPAVBaseDialog@@@std@@@3@$0A@@std@@@std@@QAEAAV012@XZ
_TEXT	SEGMENT PARA USE32 PUBLIC 'CODE'
_TEXT	ENDS
;	COMDAT ??Dconst_iterator@?$_Tree@V?$_Tmap_traits@HPAVBaseDialog@@U?$less@H@std@@V?$allocator@U?$pair@$$CBHPAVBaseDialog@@@std@@@3@$0A@@std@@@std@@QBEABU?$pair@$$CBHPAVBaseDialog@@@2@XZ
_TEXT	SEGMENT PARA USE32 PUBLIC 'CODE'
_TEXT	ENDS
;	COMDAT ??0length_error@std@@QAE@ABV01@@Z
_TEXT	SEGMENT PARA USE32 PUBLIC 'CODE'
_TEXT	ENDS
;	COMDAT ?_Color@?$_Tree@V?$_Tmap_traits@HPAVBaseDialog@@U?$less@H@std@@V?$allocator@U?$pair@$$CBHPAVBaseDialog@@@std@@@3@$0A@@std@@@std@@KAAADPAU_Node@?$_Tree_nod@V?$_Tmap_traits@HPAVBaseDialog@@U?$less@H@std@@V?$allocator@U?$pair@$$CBHPAVBaseDialog@@@std@@@3@$0A@@std@@@2@@Z
_TEXT	SEGMENT PARA USE32 PUBLIC 'CODE'
_TEXT	ENDS
;	COMDAT ?max_size@?$_Tree@V?$_Tmap_traits@HPAVBaseDialog@@U?$less@H@std@@V?$allocator@U?$pair@$$CBHPAVBaseDialog@@@std@@@3@$0A@@std@@@std@@QBEIXZ
_TEXT	SEGMENT PARA USE32 PUBLIC 'CODE'
_TEXT	ENDS
;	COMDAT ?erase@?$_Tree@V?$_Tmap_traits@HPAVBaseDialog@@U?$less@H@std@@V?$allocator@U?$pair@$$CBHPAVBaseDialog@@@std@@@3@$0A@@std@@@std@@QAE?AViterator@12@V312@@Z
_TEXT	SEGMENT PARA USE32 PUBLIC 'CODE'
_TEXT	ENDS
;	COMDAT ?clear@?$_Tree@V?$_Tmap_traits@HPAVBaseDialog@@U?$less@H@std@@V?$allocator@U?$pair@$$CBHPAVBaseDialog@@@std@@@3@$0A@@std@@@std@@QAEXXZ
_TEXT	SEGMENT PARA USE32 PUBLIC 'CODE'
_TEXT	ENDS
;	COMDAT ?_Lmost@?$_Tree@V?$_Tmap_traits@HPAVBaseDialog@@U?$less@H@std@@V?$allocator@U?$pair@$$CBHPAVBaseDialog@@@std@@@3@$0A@@std@@@std@@IAEAAPAU_Node@?$_Tree_nod@V?$_Tmap_traits@HPAVBaseDialog@@U?$less@H@std@@V?$allocator@U?$pair@$$CBHPAVBaseDialog@@@std@@@3@$0A@@std@@@2@XZ
_TEXT	SEGMENT PARA USE32 PUBLIC 'CODE'
_TEXT	ENDS
;	COMDAT ?_Lrotate@?$_Tree@V?$_Tmap_traits@HPAVBaseDialog@@U?$less@H@std@@V?$allocator@U?$pair@$$CBHPAVBaseDialog@@@std@@@3@$0A@@std@@@std@@IAEXPAU_Node@?$_Tree_nod@V?$_Tmap_traits@HPAVBaseDialog@@U?$less@H@std@@V?$allocator@U?$pair@$$CBHPAVBaseDialog@@@std@@@3@$0A@@std@@@2@@Z
_TEXT	SEGMENT PARA USE32 PUBLIC 'CODE'
_TEXT	ENDS
;	COMDAT ?_Root@?$_Tree@V?$_Tmap_traits@HPAVBaseDialog@@U?$less@H@std@@V?$allocator@U?$pair@$$CBHPAVBaseDialog@@@std@@@3@$0A@@std@@@std@@IAEAAPAU_Node@?$_Tree_nod@V?$_Tmap_traits@HPAVBaseDialog@@U?$less@H@std@@V?$allocator@U?$pair@$$CBHPAVBaseDialog@@@std@@@3@$0A@@std@@@2@XZ
_TEXT	SEGMENT PARA USE32 PUBLIC 'CODE'
_TEXT	ENDS
;	COMDAT ?_Root@?$_Tree@V?$_Tmap_traits@HPAVBaseDialog@@U?$less@H@std@@V?$allocator@U?$pair@$$CBHPAVBaseDialog@@@std@@@3@$0A@@std@@@std@@IBEAAPAU_Node@?$_Tree_nod@V?$_Tmap_traits@HPAVBaseDialog@@U?$less@H@std@@V?$allocator@U?$pair@$$CBHPAVBaseDialog@@@std@@@3@$0A@@std@@@2@XZ
_TEXT	SEGMENT PARA USE32 PUBLIC 'CODE'
_TEXT	ENDS
;	COMDAT ?_Rrotate@?$_Tree@V?$_Tmap_traits@HPAVBaseDialog@@U?$less@H@std@@V?$allocator@U?$pair@$$CBHPAVBaseDialog@@@std@@@3@$0A@@std@@@std@@IAEXPAU_Node@?$_Tree_nod@V?$_Tmap_traits@HPAVBaseDialog@@U?$less@H@std@@V?$allocator@U?$pair@$$CBHPAVBaseDialog@@@std@@@3@$0A@@std@@@2@@Z
_TEXT	SEGMENT PARA USE32 PUBLIC 'CODE'
_TEXT	ENDS
;	COMDAT ?_Buynode@?$_Tree@V?$_Tmap_traits@HPAVBaseDialog@@U?$less@H@std@@V?$allocator@U?$pair@$$CBHPAVBaseDialog@@@std@@@3@$0A@@std@@@std@@IAEPAU_Node@?$_Tree_nod@V?$_Tmap_traits@HPAVBaseDialog@@U?$less@H@std@@V?$allocator@U?$pair@$$CBHPAVBaseDialog@@@std@@@3@$0A@@std@@@2@XZ
_TEXT	SEGMENT PARA USE32 PUBLIC 'CODE'
_TEXT	ENDS
;	COMDAT ?_Buynode@?$_Tree@V?$_Tmap_traits@HPAVBaseDialog@@U?$less@H@std@@V?$allocator@U?$pair@$$CBHPAVBaseDialog@@@std@@@3@$0A@@std@@@std@@IAEPAU_Node@?$_Tree_nod@V?$_Tmap_traits@HPAVBaseDialog@@U?$less@H@std@@V?$allocator@U?$pair@$$CBHPAVBaseDialog@@@std@@@3@$0A@@std@@@2@PAU342@00ABU?$pair@$$CBHPAVBaseDialog@@@2@D@Z
_TEXT	SEGMENT PARA USE32 PUBLIC 'CODE'
_TEXT	ENDS
;	COMDAT ??0?$_Tree_ptr@V?$_Tmap_traits@HPAVBaseDialog@@U?$less@H@std@@V?$allocator@U?$pair@$$CBHPAVBaseDialog@@@std@@@3@$0A@@std@@@std@@IAE@ABU?$less@H@1@V?$allocator@U?$pair@$$CBHPAVBaseDialog@@@std@@@1@@Z
_TEXT	SEGMENT PARA USE32 PUBLIC 'CODE'
_TEXT	ENDS
;	COMDAT ??Eiterator@?$_Tree@V?$_Tmap_traits@HPAVBaseDialog@@U?$less@H@std@@V?$allocator@U?$pair@$$CBHPAVBaseDialog@@@std@@@3@$0A@@std@@@std@@QAE?AV012@H@Z
_TEXT	SEGMENT PARA USE32 PUBLIC 'CODE'
_TEXT	ENDS
;	COMDAT ??0const_iterator@?$_Tree@V?$_Tmap_traits@HPAVBaseDialog@@U?$less@H@std@@V?$allocator@U?$pair@$$CBHPAVBaseDialog@@@std@@@3@$0A@@std@@@std@@QAE@XZ
_TEXT	SEGMENT PARA USE32 PUBLIC 'CODE'
_TEXT	ENDS
;	COMDAT ??0const_iterator@?$_Tree@V?$_Tmap_traits@HPAVBaseDialog@@U?$less@H@std@@V?$allocator@U?$pair@$$CBHPAVBaseDialog@@@std@@@3@$0A@@std@@@std@@QAE@PAU_Node@?$_Tree_nod@V?$_Tmap_traits@HPAVBaseDialog@@U?$less@H@std@@V?$allocator@U?$pair@$$CBHPAVBaseDialog@@@std@@@3@$0A@@std@@@2@@Z
_TEXT	SEGMENT PARA USE32 PUBLIC 'CODE'
_TEXT	ENDS
;	COMDAT ??Econst_iterator@?$_Tree@V?$_Tmap_traits@HPAVBaseDialog@@U?$less@H@std@@V?$allocator@U?$pair@$$CBHPAVBaseDialog@@@std@@@3@$0A@@std@@@std@@QAEAAV012@XZ
_TEXT	SEGMENT PARA USE32 PUBLIC 'CODE'
_TEXT	ENDS
;	COMDAT ??Fconst_iterator@?$_Tree@V?$_Tmap_traits@HPAVBaseDialog@@U?$less@H@std@@V?$allocator@U?$pair@$$CBHPAVBaseDialog@@@std@@@3@$0A@@std@@@std@@QAEAAV012@XZ
_TEXT	SEGMENT PARA USE32 PUBLIC 'CODE'
_TEXT	ENDS
;	COMDAT ??9const_iterator@?$_Tree@V?$_Tmap_traits@HPAVBaseDialog@@U?$less@H@std@@V?$allocator@U?$pair@$$CBHPAVBaseDialog@@@std@@@3@$0A@@std@@@std@@QBE_NABV012@@Z
_TEXT	SEGMENT PARA USE32 PUBLIC 'CODE'
_TEXT	ENDS
;	COMDAT ??0?$pair@Viterator@?$_Tree@V?$_Tmap_traits@HPAVBaseDialog@@U?$less@H@std@@V?$allocator@U?$pair@$$CBHPAVBaseDialog@@@std@@@3@$0A@@std@@@std@@_N@std@@QAE@ABViterator@?$_Tree@V?$_Tmap_traits@HPAVBaseDialog@@U?$less@H@std@@V?$allocator@U?$pair@$$CBHPAVBaseDialog@@@std@@@3@$0A@@std@@@1@AB_N@Z
_TEXT	SEGMENT PARA USE32 PUBLIC 'CODE'
_TEXT	ENDS
;	COMDAT ?_Erase@?$_Tree@V?$_Tmap_traits@HPAVBaseDialog@@U?$less@H@std@@V?$allocator@U?$pair@$$CBHPAVBaseDialog@@@std@@@3@$0A@@std@@@std@@IAEXPAU_Node@?$_Tree_nod@V?$_Tmap_traits@HPAVBaseDialog@@U?$less@H@std@@V?$allocator@U?$pair@$$CBHPAVBaseDialog@@@std@@@3@$0A@@std@@@2@@Z
_TEXT	SEGMENT PARA USE32 PUBLIC 'CODE'
_TEXT	ENDS
;	COMDAT ?_Max@?$_Tree@V?$_Tmap_traits@HPAVBaseDialog@@U?$less@H@std@@V?$allocator@U?$pair@$$CBHPAVBaseDialog@@@std@@@3@$0A@@std@@@std@@KAPAU_Node@?$_Tree_nod@V?$_Tmap_traits@HPAVBaseDialog@@U?$less@H@std@@V?$allocator@U?$pair@$$CBHPAVBaseDialog@@@std@@@3@$0A@@std@@@2@PAU342@@Z
_TEXT	SEGMENT PARA USE32 PUBLIC 'CODE'
_TEXT	ENDS
;	COMDAT ?_Min@?$_Tree@V?$_Tmap_traits@HPAVBaseDialog@@U?$less@H@std@@V?$allocator@U?$pair@$$CBHPAVBaseDialog@@@std@@@3@$0A@@std@@@std@@KAPAU_Node@?$_Tree_nod@V?$_Tmap_traits@HPAVBaseDialog@@U?$less@H@std@@V?$allocator@U?$pair@$$CBHPAVBaseDialog@@@std@@@3@$0A@@std@@@2@PAU342@@Z
_TEXT	SEGMENT PARA USE32 PUBLIC 'CODE'
_TEXT	ENDS
;	COMDAT ??0?$_Tree_nod@V?$_Tmap_traits@HPAVBaseDialog@@U?$less@H@std@@V?$allocator@U?$pair@$$CBHPAVBaseDialog@@@std@@@3@$0A@@std@@@std@@IAE@ABU?$less@H@1@V?$allocator@U?$pair@$$CBHPAVBaseDialog@@@std@@@1@@Z
_TEXT	SEGMENT PARA USE32 PUBLIC 'CODE'
_TEXT	ENDS
;	COMDAT ?max_size@?$allocator@U?$pair@$$CBHPAVBaseDialog@@@std@@@std@@QBEIXZ
_TEXT	SEGMENT PARA USE32 PUBLIC 'CODE'
_TEXT	ENDS
;	COMDAT ?allocate@?$allocator@U_Node@?$_Tree_nod@V?$_Tmap_traits@HPAVBaseDialog@@U?$less@H@std@@V?$allocator@U?$pair@$$CBHPAVBaseDialog@@@std@@@3@$0A@@std@@@std@@@std@@QAEPAU_Node@?$_Tree_nod@V?$_Tmap_traits@HPAVBaseDialog@@U?$less@H@std@@V?$allocator@U?$pair@$$CBHPAVBaseDialog@@@std@@@3@$0A@@std@@@2@I@Z
_TEXT	SEGMENT PARA USE32 PUBLIC 'CODE'
_TEXT	ENDS
;	COMDAT ?destroy@?$allocator@U_Node@?$_Tree_nod@V?$_Tmap_traits@HPAVBaseDialog@@U?$less@H@std@@V?$allocator@U?$pair@$$CBHPAVBaseDialog@@@std@@@3@$0A@@std@@@std@@@std@@QAEXPAU_Node@?$_Tree_nod@V?$_Tmap_traits@HPAVBaseDialog@@U?$less@H@std@@V?$allocator@U?$pair@$$CBHPAVBaseDialog@@@std@@@3@$0A@@std@@@2@@Z
_TEXT	SEGMENT PARA USE32 PUBLIC 'CODE'
_TEXT	ENDS
;	COMDAT ?construct@?$allocator@PAU_Node@?$_Tree_nod@V?$_Tmap_traits@HPAVBaseDialog@@U?$less@H@std@@V?$allocator@U?$pair@$$CBHPAVBaseDialog@@@std@@@3@$0A@@std@@@std@@@std@@QAEXPAPAU_Node@?$_Tree_nod@V?$_Tmap_traits@HPAVBaseDialog@@U?$less@H@std@@V?$allocator@U?$pair@$$CBHPAVBaseDialog@@@std@@@3@$0A@@std@@@2@ABQAU342@@Z
_TEXT	SEGMENT PARA USE32 PUBLIC 'CODE'
_TEXT	ENDS
;	COMDAT ?_Dec@const_iterator@?$_Tree@V?$_Tmap_traits@HPAVBaseDialog@@U?$less@H@std@@V?$allocator@U?$pair@$$CBHPAVBaseDialog@@@std@@@3@$0A@@std@@@std@@QAEXXZ
_TEXT	SEGMENT PARA USE32 PUBLIC 'CODE'
_TEXT	ENDS
;	COMDAT ?_Inc@const_iterator@?$_Tree@V?$_Tmap_traits@HPAVBaseDialog@@U?$less@H@std@@V?$allocator@U?$pair@$$CBHPAVBaseDialog@@@std@@@3@$0A@@std@@@std@@QAEXXZ
_TEXT	SEGMENT PARA USE32 PUBLIC 'CODE'
_TEXT	ENDS
;	COMDAT ??0_Node@?$_Tree_nod@V?$_Tmap_traits@HPAVBaseDialog@@U?$less@H@std@@V?$allocator@U?$pair@$$CBHPAVBaseDialog@@@std@@@3@$0A@@std@@@std@@QAE@PAU012@00ABU?$pair@$$CBHPAVBaseDialog@@@2@D@Z
_TEXT	SEGMENT PARA USE32 PUBLIC 'CODE'
_TEXT	ENDS
;	COMDAT ??0?$_Tmap_traits@HPAVBaseDialog@@U?$less@H@std@@V?$allocator@U?$pair@$$CBHPAVBaseDialog@@@std@@@3@$0A@@std@@QAE@U?$less@H@1@@Z
_TEXT	SEGMENT PARA USE32 PUBLIC 'CODE'
_TEXT	ENDS
;	COMDAT ?Unlock@?$CComCritSecLock@VCComCriticalSection@ATL@@@ATL@@QAEXXZ
_TEXT	SEGMENT PARA USE32 PUBLIC 'CODE'
_TEXT	ENDS
;	COMDAT ??$_Maklocstr@D@std@@YAPADPBDPADABU_Cvtvec@@@Z
_TEXT	SEGMENT PARA USE32 PUBLIC 'CODE'
_TEXT	ENDS
;	COMDAT ??$_Destroy@PAU_Node@?$_Tree_nod@V?$_Tmap_traits@HPAVBaseDialog@@U?$less@H@std@@V?$allocator@U?$pair@$$CBHPAVBaseDialog@@@std@@@3@$0A@@std@@@std@@@std@@YAXPAPAU_Node@?$_Tree_nod@V?$_Tmap_traits@HPAVBaseDialog@@U?$less@H@std@@V?$allocator@U?$pair@$$CBHPAVBaseDialog@@@std@@@3@$0A@@std@@@0@@Z
_TEXT	SEGMENT PARA USE32 PUBLIC 'CODE'
_TEXT	ENDS
;	COMDAT ??$?0U?$pair@$$CBHPAVBaseDialog@@@std@@@?$allocator@PAU_Node@?$_Tree_nod@V?$_Tmap_traits@HPAVBaseDialog@@U?$less@H@std@@V?$allocator@U?$pair@$$CBHPAVBaseDialog@@@std@@@3@$0A@@std@@@std@@@std@@QAE@ABV?$allocator@U?$pair@$$CBHPAVBaseDialog@@@std@@@1@@Z
_TEXT	SEGMENT PARA USE32 PUBLIC 'CODE'
_TEXT	ENDS
;	COMDAT ??$?0U?$pair@$$CBHPAVBaseDialog@@@std@@@?$allocator@U_Node@?$_Tree_nod@V?$_Tmap_traits@HPAVBaseDialog@@U?$less@H@std@@V?$allocator@U?$pair@$$CBHPAVBaseDialog@@@std@@@3@$0A@@std@@@std@@@std@@QAE@ABV?$allocator@U?$pair@$$CBHPAVBaseDialog@@@std@@@1@@Z
_TEXT	SEGMENT PARA USE32 PUBLIC 'CODE'
_TEXT	ENDS
;	COMDAT ??$_Allocate@U_Node@?$_Tree_nod@V?$_Tmap_traits@HPAVBaseDialog@@U?$less@H@std@@V?$allocator@U?$pair@$$CBHPAVBaseDialog@@@std@@@3@$0A@@std@@@std@@@std@@YAPAU_Node@?$_Tree_nod@V?$_Tmap_traits@HPAVBaseDialog@@U?$less@H@std@@V?$allocator@U?$pair@$$CBHPAVBaseDialog@@@std@@@3@$0A@@std@@@0@IPAU120@@Z
_TEXT	SEGMENT PARA USE32 PUBLIC 'CODE'
_TEXT	ENDS
;	COMDAT ??$_Destroy@U_Node@?$_Tree_nod@V?$_Tmap_traits@HPAVBaseDialog@@U?$less@H@std@@V?$allocator@U?$pair@$$CBHPAVBaseDialog@@@std@@@3@$0A@@std@@@std@@@std@@YAXPAU_Node@?$_Tree_nod@V?$_Tmap_traits@HPAVBaseDialog@@U?$less@H@std@@V?$allocator@U?$pair@$$CBHPAVBaseDialog@@@std@@@3@$0A@@std@@@0@@Z
_TEXT	SEGMENT PARA USE32 PUBLIC 'CODE'
_TEXT	ENDS
;	COMDAT ??$_Construct@PAU_Node@?$_Tree_nod@V?$_Tmap_traits@HPAVBaseDialog@@U?$less@H@std@@V?$allocator@U?$pair@$$CBHPAVBaseDialog@@@std@@@3@$0A@@std@@@std@@PAU123@@std@@YAXPAPAU_Node@?$_Tree_nod@V?$_Tmap_traits@HPAVBaseDialog@@U?$less@H@std@@V?$allocator@U?$pair@$$CBHPAVBaseDialog@@@std@@@3@$0A@@std@@@0@ABQAU120@@Z
_TEXT	SEGMENT PARA USE32 PUBLIC 'CODE'
_TEXT	ENDS
;	COMDAT ??_ECConfigDialog@@WEOI@AEPAXI@Z
_TEXT	SEGMENT PARA USE32 PUBLIC 'CODE'
_TEXT	ENDS
;	COMDAT ??_R3IAppExitObserver@@8
rdata$r	SEGMENT DWORD USE32 PUBLIC 'CONST'
rdata$r	ENDS
;	COMDAT ??_R3?$numpunct@_W@std@@8
rdata$r	SEGMENT DWORD USE32 PUBLIC 'CONST'
rdata$r	ENDS
;	COMDAT ??_R3?$numpunct@D@std@@8
rdata$r	SEGMENT DWORD USE32 PUBLIC 'CONST'
rdata$r	ENDS
;	COMDAT ??_R3IData@@8
rdata$r	SEGMENT DWORD USE32 PUBLIC 'CONST'
rdata$r	ENDS
;	COMDAT ??_R3CConfigDialog@@8
rdata$r	SEGMENT DWORD USE32 PUBLIC 'CONST'
rdata$r	ENDS
;	COMDAT ??_R2IAppExitObserver@@8
rdata$r	SEGMENT DWORD USE32 PUBLIC 'CONST'
rdata$r	ENDS
;	COMDAT ??_R2?$numpunct@_W@std@@8
rdata$r	SEGMENT DWORD USE32 PUBLIC 'CONST'
rdata$r	ENDS
;	COMDAT ??_R2?$numpunct@D@std@@8
rdata$r	SEGMENT DWORD USE32 PUBLIC 'CONST'
rdata$r	ENDS
;	COMDAT ??_R2IData@@8
rdata$r	SEGMENT DWORD USE32 PUBLIC 'CONST'
rdata$r	ENDS
;	COMDAT ??_R2CConfigDialog@@8
rdata$r	SEGMENT DWORD USE32 PUBLIC 'CONST'
rdata$r	ENDS
;	COMDAT ??_R1A@33BA@IMessageObserver@@8
rdata$r	SEGMENT DWORD USE32 PUBLIC 'CONST'
rdata$r	ENDS
;	COMDAT ??_R1A@?0A@A@IAppExitObserver@@8
rdata$r	SEGMENT DWORD USE32 PUBLIC 'CONST'
rdata$r	ENDS
;	COMDAT ??_R1A@?0A@A@?$numpunct@_W@std@@8
rdata$r	SEGMENT DWORD USE32 PUBLIC 'CONST'
rdata$r	ENDS
;	COMDAT ??_R1A@?0A@A@facet@locale@std@@8
rdata$r	SEGMENT DWORD USE32 PUBLIC 'CONST'
rdata$r	ENDS
;	COMDAT ??_R0?AVfacet@locale@std@@@8
_DATA	SEGMENT DWORD USE32 PUBLIC 'DATA'
_DATA	ENDS
;	COMDAT ??_R1A@?0A@A@?$numpunct@D@std@@8
rdata$r	SEGMENT DWORD USE32 PUBLIC 'CONST'
rdata$r	ENDS
;	COMDAT ??_R1A@?0A@A@IData@@8
rdata$r	SEGMENT DWORD USE32 PUBLIC 'CONST'
rdata$r	ENDS
;	COMDAT ??_R1A@HI@3BA@IMessageObserver@@8
rdata$r	SEGMENT DWORD USE32 PUBLIC 'CONST'
rdata$r	ENDS
;	COMDAT ??_R1HE@?0A@A@IAppExitObserver@@8
rdata$r	SEGMENT DWORD USE32 PUBLIC 'CONST'
rdata$r	ENDS
;	COMDAT ??_R1A@?0A@A@CObject@@8
rdata$r	SEGMENT DWORD USE32 PUBLIC 'CONST'
rdata$r	ENDS
;	COMDAT ??_R0?AVCObject@@@8
_DATA	SEGMENT DWORD USE32 PUBLIC 'DATA'
_DATA	ENDS
;	COMDAT ??_R1A@?0A@A@CCmdTarget@@8
rdata$r	SEGMENT DWORD USE32 PUBLIC 'CONST'
rdata$r	ENDS
;	COMDAT ??_R0?AVCCmdTarget@@@8
_DATA	SEGMENT DWORD USE32 PUBLIC 'DATA'
_DATA	ENDS
;	COMDAT ??_R1A@?0A@A@CWnd@@8
rdata$r	SEGMENT DWORD USE32 PUBLIC 'CONST'
rdata$r	ENDS
;	COMDAT ??_R0?AVCWnd@@@8
_DATA	SEGMENT DWORD USE32 PUBLIC 'DATA'
_DATA	ENDS
;	COMDAT ??_R1A@?0A@A@CDialog@@8
rdata$r	SEGMENT DWORD USE32 PUBLIC 'CONST'
rdata$r	ENDS
;	COMDAT ??_R0?AVCDialog@@@8
_DATA	SEGMENT DWORD USE32 PUBLIC 'DATA'
_DATA	ENDS
;	COMDAT ??_R1A@?0A@A@CConfigDialog@@8
rdata$r	SEGMENT DWORD USE32 PUBLIC 'CONST'
rdata$r	ENDS
;	COMDAT ??_R0?AV?$numpunct@_W@std@@@8
_DATA	SEGMENT DWORD USE32 PUBLIC 'DATA'
_DATA	ENDS
;	COMDAT ??_R0?AV?$numpunct@D@std@@@8
_DATA	SEGMENT DWORD USE32 PUBLIC 'DATA'
_DATA	ENDS
;	COMDAT ??_R0?AVIData@@@8
_DATA	SEGMENT DWORD USE32 PUBLIC 'DATA'
_DATA	ENDS
;	COMDAT ??_R0?AVIMessageObserver@@@8
_DATA	SEGMENT DWORD USE32 PUBLIC 'DATA'
_DATA	ENDS
;	COMDAT ??_R0?AVIAppExitObserver@@@8
_DATA	SEGMENT DWORD USE32 PUBLIC 'DATA'
_DATA	ENDS
;	COMDAT ??_R0?AVCConfigDialog@@@8
_DATA	SEGMENT DWORD USE32 PUBLIC 'DATA'
_DATA	ENDS
;	COMDAT ??_R4IAppExitObserver@@6BIMessageObserver@@@
rdata$r	SEGMENT DWORD USE32 PUBLIC 'CONST'
rdata$r	ENDS
;	COMDAT ??_R4IAppExitObserver@@6B0@@
rdata$r	SEGMENT DWORD USE32 PUBLIC 'CONST'
rdata$r	ENDS
;	COMDAT ??0?$allocator@_W@std@@QAE@XZ
_TEXT	SEGMENT PARA USE32 PUBLIC 'CODE'
_TEXT	ENDS
;	COMDAT ??_G?$numpunct@_W@std@@MAEPAXI@Z
_TEXT	SEGMENT PARA USE32 PUBLIC 'CODE'
_TEXT	ENDS
;	COMDAT ??_R4?$numpunct@_W@std@@6B@
rdata$r	SEGMENT DWORD USE32 PUBLIC 'CONST'
rdata$r	ENDS
;	COMDAT ??_G?$numpunct@D@std@@MAEPAXI@Z
_TEXT	SEGMENT PARA USE32 PUBLIC 'CODE'
_TEXT	ENDS
;	COMDAT ??_R4?$numpunct@D@std@@6B@
rdata$r	SEGMENT DWORD USE32 PUBLIC 'CONST'
rdata$r	ENDS
;	COMDAT ??_R4IData@@6B@
rdata$r	SEGMENT DWORD USE32 PUBLIC 'CONST'
rdata$r	ENDS
;	COMDAT ??_R4CConfigDialog@@6BIMessageObserver@@@
rdata$r	SEGMENT DWORD USE32 PUBLIC 'CONST'
rdata$r	ENDS
;	COMDAT ??_R4CConfigDialog@@6BIAppExitObserver@@@
rdata$r	SEGMENT DWORD USE32 PUBLIC 'CONST'
rdata$r	ENDS
;	COMDAT ??_R4CConfigDialog@@6B@
rdata$r	SEGMENT DWORD USE32 PUBLIC 'CONST'
rdata$r	ENDS
;	COMDAT ??_C@_0EN@CBMLGOH@D?3?2Program?5Files?5?$CIx86?$CJ?2Microsoft@
CONST	SEGMENT DWORD USE32 PUBLIC 'CONST'
CONST	ENDS
;	COMDAT ?_Psave@?$_Facetptr@V?$numpunct@_W@std@@@std@@2PBVfacet@locale@2@B
_DATA	SEGMENT DWORD USE32 PUBLIC 'DATA'
_DATA	ENDS
;	COMDAT ?_Psave@?$_Facetptr@V?$numpunct@D@std@@@std@@2PBVfacet@locale@2@B
_DATA	SEGMENT DWORD USE32 PUBLIC 'DATA'
_DATA	ENDS
;	COMDAT ?Unlock@CComCriticalSection@ATL@@QAEJXZ
_TEXT	SEGMENT PARA USE32 PUBLIC 'CODE'
_TEXT	ENDS
;	COMDAT ??_C@_0FG@LDNDNCJM@D?3?2Program?5Files?5?$CIx86?$CJ?2Microsoft@
CONST	SEGMENT DWORD USE32 PUBLIC 'CONST'
CONST	ENDS
;	COMDAT ??_C@_09HIEJFN@m_bLocked?$AA@
CONST	SEGMENT DWORD USE32 PUBLIC 'CONST'
CONST	ENDS
;	COMDAT ?_Psave@?$_Facetptr@V?$ctype@_W@std@@@std@@2PBVfacet@locale@2@B
_DATA	SEGMENT DWORD USE32 PUBLIC 'DATA'
_DATA	ENDS
;	COMDAT ?_Psave@?$_Facetptr@V?$ctype@D@std@@@std@@2PBVfacet@locale@2@B
_DATA	SEGMENT DWORD USE32 PUBLIC 'DATA'
_DATA	ENDS
;	COMDAT ??3@YAXPAX0@Z
_TEXT	SEGMENT PARA USE32 PUBLIC 'CODE'
_TEXT	ENDS
;	COMDAT ??2@YAPAXIPAX@Z
_TEXT	SEGMENT PARA USE32 PUBLIC 'CODE'
_TEXT	ENDS
;	COMDAT ??$swap@D@std@@YAXAAD0@Z
_TEXT	SEGMENT PARA USE32 PUBLIC 'CODE'
_TEXT	ENDS
;	COMDAT __TI3?AVout_of_range@std@@
xdata$x	SEGMENT DWORD USE32 PUBLIC 'CONST'
xdata$x	ENDS
;	COMDAT ??1out_of_range@std@@UAE@XZ
_TEXT	SEGMENT PARA USE32 PUBLIC 'CODE'
_TEXT	ENDS
;	COMDAT ??_7out_of_range@std@@6B@
CONST	SEGMENT DWORD USE32 PUBLIC 'CONST'
CONST	ENDS
;	COMDAT ??_R4out_of_range@std@@6B@
rdata$r	SEGMENT DWORD USE32 PUBLIC 'CONST'
rdata$r	ENDS
;	COMDAT ??_R0?AVout_of_range@std@@@8
_DATA	SEGMENT DWORD USE32 PUBLIC 'DATA'
_DATA	ENDS
;	COMDAT ??_R3out_of_range@std@@8
rdata$r	SEGMENT DWORD USE32 PUBLIC 'CONST'
rdata$r	ENDS
;	COMDAT ??_R2out_of_range@std@@8
rdata$r	SEGMENT DWORD USE32 PUBLIC 'CONST'
rdata$r	ENDS
;	COMDAT ??_R1A@?0A@A@out_of_range@std@@8
rdata$r	SEGMENT DWORD USE32 PUBLIC 'CONST'
rdata$r	ENDS
;	COMDAT ??_R1A@?0A@A@logic_error@std@@8
rdata$r	SEGMENT DWORD USE32 PUBLIC 'CONST'
rdata$r	ENDS
;	COMDAT ??_R0?AVlogic_error@std@@@8
_DATA	SEGMENT DWORD USE32 PUBLIC 'DATA'
_DATA	ENDS
;	COMDAT ??_R1A@?0A@A@exception@@8
rdata$r	SEGMENT DWORD USE32 PUBLIC 'CONST'
rdata$r	ENDS
;	COMDAT ??_R0?AVexception@@@8
_DATA	SEGMENT DWORD USE32 PUBLIC 'DATA'
_DATA	ENDS
;	COMDAT ??_Gout_of_range@std@@UAEPAXI@Z
_TEXT	SEGMENT PARA USE32 PUBLIC 'CODE'
_TEXT	ENDS
;	COMDAT ?what@logic_error@std@@UBEPBDXZ
_TEXT	SEGMENT PARA USE32 PUBLIC 'CODE'
_TEXT	ENDS
;	COMDAT __CTA3?AVout_of_range@std@@
xdata$x	SEGMENT DWORD USE32 PUBLIC 'CONST'
xdata$x	ENDS
;	COMDAT __CT??_R0?AVout_of_range@std@@@8??0out_of_range@std@@QAE@ABV01@@Z40
xdata$x	SEGMENT DWORD USE32 PUBLIC 'CONST'
xdata$x	ENDS
;	COMDAT ??0out_of_range@std@@QAE@ABV01@@Z
_TEXT	SEGMENT PARA USE32 PUBLIC 'CODE'
_TEXT	ENDS
;	COMDAT ??_C@_0BM@PAPJHAGI@invalid?5map?1set?$DMT?$DO?5iterator?$AA@
CONST	SEGMENT DWORD USE32 PUBLIC 'CONST'
CONST	ENDS
;	COMDAT ??0out_of_range@std@@QAE@ABV?$basic_string@DU?$char_traits@D@std@@V?$allocator@D@2@@1@@Z
_TEXT	SEGMENT PARA USE32 PUBLIC 'CODE'
_TEXT	ENDS
;	COMDAT ??0logic_error@std@@QAE@ABV?$basic_string@DU?$char_traits@D@std@@V?$allocator@D@2@@1@@Z
_TEXT	SEGMENT PARA USE32 PUBLIC 'CODE'
_TEXT	ENDS
;	COMDAT ??_7logic_error@std@@6B@
CONST	SEGMENT DWORD USE32 PUBLIC 'CONST'
CONST	ENDS
;	COMDAT ??_R4logic_error@std@@6B@
rdata$r	SEGMENT DWORD USE32 PUBLIC 'CONST'
rdata$r	ENDS
;	COMDAT ??_R3logic_error@std@@8
rdata$r	SEGMENT DWORD USE32 PUBLIC 'CONST'
rdata$r	ENDS
;	COMDAT ??_R2logic_error@std@@8
rdata$r	SEGMENT DWORD USE32 PUBLIC 'CONST'
rdata$r	ENDS
;	COMDAT ??_Glogic_error@std@@UAEPAXI@Z
_TEXT	SEGMENT PARA USE32 PUBLIC 'CODE'
_TEXT	ENDS
;	COMDAT ??0?$allocator@D@std@@QAE@ABV01@@Z
_TEXT	SEGMENT PARA USE32 PUBLIC 'CODE'
_TEXT	ENDS
;	COMDAT ?deallocate@?$allocator@D@std@@QAEXPADI@Z
_TEXT	SEGMENT PARA USE32 PUBLIC 'CODE'
_TEXT	ENDS
;	COMDAT ?max_size@?$allocator@D@std@@QBEIXZ
_TEXT	SEGMENT PARA USE32 PUBLIC 'CODE'
_TEXT	ENDS
;	COMDAT ?allocate@?$allocator@D@std@@QAEPADI@Z
_TEXT	SEGMENT PARA USE32 PUBLIC 'CODE'
_TEXT	ENDS
;	COMDAT ??$_Allocate@D@std@@YAPADIPAD@Z
_TEXT	SEGMENT PARA USE32 PUBLIC 'CODE'
_TEXT	ENDS
;	COMDAT ??_7length_error@std@@6B@
CONST	SEGMENT DWORD USE32 PUBLIC 'CONST'
CONST	ENDS
;	COMDAT ??_R4length_error@std@@6B@
rdata$r	SEGMENT DWORD USE32 PUBLIC 'CONST'
rdata$r	ENDS
;	COMDAT ??_R3length_error@std@@8
rdata$r	SEGMENT DWORD USE32 PUBLIC 'CONST'
rdata$r	ENDS
;	COMDAT ??_R2length_error@std@@8
rdata$r	SEGMENT DWORD USE32 PUBLIC 'CONST'
rdata$r	ENDS
;	COMDAT ??_R1A@?0A@A@length_error@std@@8
rdata$r	SEGMENT DWORD USE32 PUBLIC 'CONST'
rdata$r	ENDS
;	COMDAT ??_Glength_error@std@@UAEPAXI@Z
_TEXT	SEGMENT PARA USE32 PUBLIC 'CODE'
_TEXT	ENDS
;	COMDAT ??1logic_error@std@@UAE@XZ
_TEXT	SEGMENT PARA USE32 PUBLIC 'CODE'
_TEXT	ENDS
;	COMDAT ??0logic_error@std@@QAE@ABV01@@Z
_TEXT	SEGMENT PARA USE32 PUBLIC 'CODE'
_TEXT	ENDS
;	COMDAT __CTA3?AVlength_error@std@@
xdata$x	SEGMENT DWORD USE32 PUBLIC 'CONST'
xdata$x	ENDS
;	COMDAT ??1length_error@std@@UAE@XZ
_TEXT	SEGMENT PARA USE32 PUBLIC 'CODE'
_TEXT	ENDS
;	COMDAT __CT??_R0?AVexception@@@8??0exception@@QAE@ABV0@@Z12
xdata$x	SEGMENT DWORD USE32 PUBLIC 'CONST'
xdata$x	ENDS
;	COMDAT __CT??_R0?AVlogic_error@std@@@8??0logic_error@std@@QAE@ABV01@@Z40
xdata$x	SEGMENT DWORD USE32 PUBLIC 'CONST'
xdata$x	ENDS
;	COMDAT __CT??_R0?AVlength_error@std@@@8??0length_error@std@@QAE@ABV01@@Z40
xdata$x	SEGMENT DWORD USE32 PUBLIC 'CONST'
xdata$x	ENDS
;	COMDAT ??_R0?AVlength_error@std@@@8
_DATA	SEGMENT DWORD USE32 PUBLIC 'DATA'
_DATA	ENDS
;	COMDAT __TI3?AVlength_error@std@@
xdata$x	SEGMENT DWORD USE32 PUBLIC 'CONST'
xdata$x	ENDS
;	COMDAT ??0length_error@std@@QAE@ABV?$basic_string@DU?$char_traits@D@std@@V?$allocator@D@2@@1@@Z
_TEXT	SEGMENT PARA USE32 PUBLIC 'CODE'
_TEXT	ENDS
;	COMDAT ??$_Maklocchr@_W@std@@YA_WDPA_WABU_Cvtvec@@@Z
_TEXT	SEGMENT PARA USE32 PUBLIC 'CODE'
_TEXT	ENDS
;	COMDAT ??$_DebugHeapDelete@X@std@@YAXPAX@Z
_TEXT	SEGMENT PARA USE32 PUBLIC 'CODE'
_TEXT	ENDS
;	COMDAT ??$_Maklocstr@_W@std@@YAPA_WPBDPA_WABU_Cvtvec@@@Z
_TEXT	SEGMENT PARA USE32 PUBLIC 'CODE'
_TEXT	ENDS
;	COMDAT ??$_Maklocchr@D@std@@YADDPADABU_Cvtvec@@@Z
_TEXT	SEGMENT PARA USE32 PUBLIC 'CODE'
_TEXT	ENDS
;	COMDAT ??_C@_04LOAJBDKD@true?$AA@
CONST	SEGMENT DWORD USE32 PUBLIC 'CONST'
CONST	ENDS
;	COMDAT ??_C@_05LAPONLG@false?$AA@
CONST	SEGMENT DWORD USE32 PUBLIC 'CONST'
CONST	ENDS
;	COMDAT _wmemcpy
_TEXT	SEGMENT PARA USE32 PUBLIC 'CODE'
_TEXT	ENDS
;	COMDAT ?max_size@?$allocator@_W@std@@QBEIXZ
_TEXT	SEGMENT PARA USE32 PUBLIC 'CODE'
_TEXT	ENDS
;	COMDAT ?allocate@?$allocator@_W@std@@QAEPA_WI@Z
_TEXT	SEGMENT PARA USE32 PUBLIC 'CODE'
_TEXT	ENDS
;	COMDAT ??$_Allocate@_W@std@@YAPA_WIPA_W@Z
_TEXT	SEGMENT PARA USE32 PUBLIC 'CODE'
_TEXT	ENDS
;	COMDAT ??_C@_01GFHCPBMG@C?$AA@
CONST	SEGMENT DWORD USE32 PUBLIC 'CONST'
CONST	ENDS
;	COMDAT ?_Peek@?$istreambuf_iterator@_WU?$char_traits@_W@std@@@std@@AAE_WXZ
_TEXT	SEGMENT PARA USE32 PUBLIC 'CODE'
_TEXT	ENDS
;	COMDAT ?_Peek@?$istreambuf_iterator@DU?$char_traits@D@std@@@std@@AAEDXZ
_TEXT	SEGMENT PARA USE32 PUBLIC 'CODE'
_TEXT	ENDS
;	COMDAT ??$use_facet@V?$ctype@_W@std@@@std@@YAABV?$ctype@_W@0@ABVlocale@0@@Z
_TEXT	SEGMENT PARA USE32 PUBLIC 'CODE'
_TEXT	ENDS
;	COMDAT ??_S?$ctype@_W@std@@6B@
CONST	SEGMENT DWORD USE32 PUBLIC 'CONST'
CONST	ENDS
;	COMDAT ??_R4?$ctype@_W@std@@6B@
rdata$r	SEGMENT DWORD USE32 PUBLIC 'CONST'
rdata$r	ENDS
;	COMDAT ??_R0?AV?$ctype@_W@std@@@8
_DATA	SEGMENT DWORD USE32 PUBLIC 'DATA'
_DATA	ENDS
;	COMDAT ??_R3?$ctype@_W@std@@8
rdata$r	SEGMENT DWORD USE32 PUBLIC 'CONST'
rdata$r	ENDS
;	COMDAT ??_R2?$ctype@_W@std@@8
rdata$r	SEGMENT DWORD USE32 PUBLIC 'CONST'
rdata$r	ENDS
;	COMDAT ??_R1A@?0A@A@?$ctype@_W@std@@8
rdata$r	SEGMENT DWORD USE32 PUBLIC 'CONST'
rdata$r	ENDS
;	COMDAT ??_R1A@?0A@A@ctype_base@std@@8
rdata$r	SEGMENT DWORD USE32 PUBLIC 'CONST'
rdata$r	ENDS
;	COMDAT ??_R0?AUctype_base@std@@@8
_DATA	SEGMENT DWORD USE32 PUBLIC 'DATA'
_DATA	ENDS
;	COMDAT ??_G?$ctype@_W@std@@MAEPAXI@Z
_TEXT	SEGMENT PARA USE32 PUBLIC 'CODE'
_TEXT	ENDS
;	COMDAT ??_C@_08EPJLHIJG@bad?5cast?$AA@
CONST	SEGMENT DWORD USE32 PUBLIC 'CONST'
CONST	ENDS
;	COMDAT __TI2?AVbad_cast@@
xdata$x	SEGMENT DWORD USE32 PUBLIC 'CONST'
xdata$x	ENDS
;	COMDAT __CTA2?AVbad_cast@@
xdata$x	SEGMENT DWORD USE32 PUBLIC 'CONST'
xdata$x	ENDS
;	COMDAT __CT??_R0?AVbad_cast@@@8??0bad_cast@@QAE@ABV0@@Z12
xdata$x	SEGMENT DWORD USE32 PUBLIC 'CONST'
xdata$x	ENDS
;	COMDAT ??_R0?AVbad_cast@@@8
_DATA	SEGMENT DWORD USE32 PUBLIC 'DATA'
_DATA	ENDS
;	COMDAT ??$_DebugHeapDelete@Vfacet@locale@std@@@std@@YAXPAVfacet@locale@0@@Z
_TEXT	SEGMENT PARA USE32 PUBLIC 'CODE'
_TEXT	ENDS
;	COMDAT ??$use_facet@V?$ctype@D@std@@@std@@YAABV?$ctype@D@0@ABVlocale@0@@Z
_TEXT	SEGMENT PARA USE32 PUBLIC 'CODE'
_TEXT	ENDS
;	COMDAT ??_S?$ctype@D@std@@6B@
CONST	SEGMENT DWORD USE32 PUBLIC 'CONST'
CONST	ENDS
;	COMDAT ??_R4?$ctype@D@std@@6B@
rdata$r	SEGMENT DWORD USE32 PUBLIC 'CONST'
rdata$r	ENDS
;	COMDAT ??_R0?AV?$ctype@D@std@@@8
_DATA	SEGMENT DWORD USE32 PUBLIC 'DATA'
_DATA	ENDS
;	COMDAT ??_R3?$ctype@D@std@@8
rdata$r	SEGMENT DWORD USE32 PUBLIC 'CONST'
rdata$r	ENDS
;	COMDAT ??_R2?$ctype@D@std@@8
rdata$r	SEGMENT DWORD USE32 PUBLIC 'CONST'
rdata$r	ENDS
;	COMDAT ??_R1A@?0A@A@?$ctype@D@std@@8
rdata$r	SEGMENT DWORD USE32 PUBLIC 'CONST'
rdata$r	ENDS
;	COMDAT ??_G?$ctype@D@std@@MAEPAXI@Z
_TEXT	SEGMENT PARA USE32 PUBLIC 'CODE'
_TEXT	ENDS
;	COMDAT ??_S?$numpunct@_W@std@@6B@
CONST	SEGMENT DWORD USE32 PUBLIC 'CONST'
CONST	ENDS
;	COMDAT ??_S?$numpunct@D@std@@6B@
CONST	SEGMENT DWORD USE32 PUBLIC 'CONST'
CONST	ENDS
;	COMDAT _wmemmove
_TEXT	SEGMENT PARA USE32 PUBLIC 'CODE'
_TEXT	ENDS
;	COMDAT ?deallocate@?$allocator@_W@std@@QAEXPA_WI@Z
_TEXT	SEGMENT PARA USE32 PUBLIC 'CODE'
_TEXT	ENDS
;	COMDAT ??0?$allocator@_W@std@@QAE@ABV01@@Z
_TEXT	SEGMENT PARA USE32 PUBLIC 'CODE'
_TEXT	ENDS
;	COMDAT ??0?$allocator@D@std@@QAE@XZ
_TEXT	SEGMENT PARA USE32 PUBLIC 'CODE'
_TEXT	ENDS
;	COMDAT ?_messageEntries@CConfigDialog@@0QBUAFX_MSGMAP_ENTRY@@B
_DATA	SEGMENT DWORD USE32 PUBLIC 'DATA'
_DATA	ENDS
;	COMDAT CRT$XCU
CRT$XCU	SEGMENT DWORD USE32 PUBLIC 'DATA'
CRT$XCU	ENDS
;	COMDAT ?messageMap@CConfigDialog@@1UAFX_MSGMAP@@B
CONST	SEGMENT DWORD USE32 PUBLIC 'CONST'
CONST	ENDS
;	COMDAT ??_7IAppExitObserver@@6BIMessageObserver@@@
CONST	SEGMENT DWORD USE32 PUBLIC 'CONST'
CONST	ENDS
;	COMDAT ??_7IAppExitObserver@@6B0@@
CONST	SEGMENT DWORD USE32 PUBLIC 'CONST'
CONST	ENDS
;	COMDAT ??_8IAppExitObserver@@7B@
CONST	SEGMENT DWORD USE32 PUBLIC 'CONST'
CONST	ENDS
;	COMDAT ??_7IMessageObserver@@6B@
CONST	SEGMENT DWORD USE32 PUBLIC 'CONST'
CONST	ENDS
;	COMDAT ??_R4IMessageObserver@@6B@
rdata$r	SEGMENT DWORD USE32 PUBLIC 'CONST'
rdata$r	ENDS
;	COMDAT ??_R3IMessageObserver@@8
rdata$r	SEGMENT DWORD USE32 PUBLIC 'CONST'
rdata$r	ENDS
;	COMDAT ??_R2IMessageObserver@@8
rdata$r	SEGMENT DWORD USE32 PUBLIC 'CONST'
rdata$r	ENDS
;	COMDAT ??_R1A@?0A@A@IMessageObserver@@8
rdata$r	SEGMENT DWORD USE32 PUBLIC 'CONST'
rdata$r	ENDS
;	COMDAT ??_GIMessageObserver@@UAEPAXI@Z
_TEXT	SEGMENT PARA USE32 PUBLIC 'CODE'
_TEXT	ENDS
;	COMDAT ??_7CConfigDialog@@6BIMessageObserver@@@
CONST	SEGMENT DWORD USE32 PUBLIC 'CONST'
CONST	ENDS
;	COMDAT ??_7CConfigDialog@@6BIAppExitObserver@@@
CONST	SEGMENT DWORD USE32 PUBLIC 'CONST'
CONST	ENDS
;	COMDAT ??_7CConfigDialog@@6B@
CONST	SEGMENT DWORD USE32 PUBLIC 'CONST'
CONST	ENDS
;	COMDAT ??1IMessageObserver@@UAE@XZ
_TEXT	SEGMENT PARA USE32 PUBLIC 'CODE'
_TEXT	ENDS
;	COMDAT ??_8CConfigDialog@@7B@
CONST	SEGMENT DWORD USE32 PUBLIC 'CONST'
CONST	ENDS
;	COMDAT ?classCConfigDialog@CConfigDialog@@2UCRuntimeClass@@B
CONST	SEGMENT DWORD USE32 PUBLIC 'CONST'
CONST	ENDS
;	COMDAT ??_7IData@@6B@
CONST	SEGMENT DWORD USE32 PUBLIC 'CONST'
CONST	ENDS
sxdata	SEGMENT DWORD USE32 'SXDATA'
sxdata	ENDS
FLAT	GROUP _DATA, CONST, _BSS, CRT$XCU
	ASSUME	CS: FLAT, DS: FLAT, SS: FLAT
endif

INCLUDELIB MSVCRTD
INCLUDELIB OLDNAMES

PUBLIC	?messageMap@CConfigDialog@@1UAFX_MSGMAP@@B	; CConfigDialog::messageMap
PUBLIC	?g_hLastConfWnd@@3PAUHWND__@@A			; g_hLastConfWnd
PUBLIC	?classCConfigDialog@CConfigDialog@@2UCRuntimeClass@@B ; CConfigDialog::classCConfigDialog
EXTRN	?GetThisClass@CDialog@@SGPAUCRuntimeClass@@XZ:NEAR ; CDialog::GetThisClass
EXTRN	?GetThisMessageMap@CDialog@@KGPBUAFX_MSGMAP@@XZ:NEAR ; CDialog::GetThisMessageMap
_BSS	SEGMENT
?g_hLastConfWnd@@3PAUHWND__@@A DD 01H DUP (?)		; g_hLastConfWnd
_BSS	ENDS
CONST	SEGMENT
$SG187953 DB	'int', 00H
CONST	ENDS
_DATA	SEGMENT
_TYPE_CONFIG_INT DD FLAT:$SG187953
_DATA	ENDS
CONST	SEGMENT
$SG187955 DB	'str', 00H
CONST	ENDS
_DATA	SEGMENT
_TYPE_CONFIG_STR DD FLAT:$SG187955
_DATA	ENDS
CONST	SEGMENT
$SG187957 DB	'double', 00H
CONST	ENDS
_DATA	SEGMENT
_TYPE_CONFIG_DOUBLE DD FLAT:$SG187957
_DATA	ENDS
CONST	SEGMENT
	ORG $+1
$SG187959 DB	'bool', 00H
CONST	ENDS
_DATA	SEGMENT
_TYPE_CONFIG_BOOL DD FLAT:$SG187959
_DATA	ENDS
CONST	SEGMENT
	ORG $+3
$SG187961 DB	'sepint', 00H
CONST	ENDS
_DATA	SEGMENT
_TYPE_CONFIG_INT_HASSEP DD FLAT:$SG187961
_DATA	ENDS
CONST	SEGMENT
	ORG $+1
$SG187963 DB	'sepstr', 00H
CONST	ENDS
_DATA	SEGMENT
_TYPE_CONFIG_STR_HASSEP DD FLAT:$SG187963
_DATA	ENDS
CONST	SEGMENT
	ORG $+1
$SG187965 DB	'sepdouble', 00H
CONST	ENDS
_DATA	SEGMENT
_TYPE_CONFIG_DOUBLE_HASSEP DD FLAT:$SG187965
_DATA	ENDS
CONST	SEGMENT
	ORG $+2
$SG187967 DB	'sepbool', 00H
CONST	ENDS
_DATA	SEGMENT
_TYPE_CONFIG_BOOL_HASSEP DD FLAT:$SG187967
_DATA	ENDS
CONST	SEGMENT
$SG187969 DB	'Setting', 00H
CONST	ENDS
_DATA	SEGMENT
_CONF_SETTING_MODULE_NAME DD FLAT:$SG187969
_DATA	ENDS
CONST	SEGMENT
$SG187971 DB	'skin', 00H
CONST	ENDS
_DATA	SEGMENT
_CONF_SETTING_SKIN_IDX DD FLAT:$SG187971
_DATA	ENDS
CONST	SEGMENT
	ORG $+3
$SG187973 DB	'MainPage', 00H
CONST	ENDS
_DATA	SEGMENT
_CONF_SETTING_CONFIG_MAIN_PAGE DD FLAT:$SG187973
_DATA	ENDS
CONST	SEGMENT
	ORG $+3
$SG187975 DB	'ProblemReport', 00H
CONST	ENDS
_DATA	SEGMENT
_CONF_SETTING_CONFIG_PROBLEM_REPORT DD FLAT:$SG187975
_DATA	ENDS
CONST	SEGMENT
	ORG $+2
$SG187977 DB	'HomePage', 00H
CONST	ENDS
_DATA	SEGMENT
_CONF_SETTING_CONFIG_HOME_PAGE DD FLAT:$SG187977
_DATA	ENDS
CONST	SEGMENT
	ORG $+3
$SG187979 DB	'askexit', 00H
CONST	ENDS
_DATA	SEGMENT
_CONF_SETTING_CONFIG_IFASKEXIT DD FLAT:$SG187979
_DATA	ENDS
CONST	SEGMENT
$SG187981 DB	'exitchoice', 00H
CONST	ENDS
_DATA	SEGMENT
_CONF_SETTING_CONFIG_EXITCHOICE DD FLAT:$SG187981
_DATA	ENDS
CONST	SEGMENT
	ORG $+1
$SG187983 DB	'UN', 00H
CONST	ENDS
_DATA	SEGMENT
_CONF_SETTING_LOGIN_USER_NAME DD FLAT:$SG187983
_DATA	ENDS
CONST	SEGMENT
	ORG $+1
$SG187985 DB	'PW', 00H
CONST	ENDS
_DATA	SEGMENT
_CONF_SETTING_LOGIN_PASSWORD DD FLAT:$SG187985
_DATA	ENDS
CONST	SEGMENT
	ORG $+1
$SG187987 DB	'NetID', 00H
CONST	ENDS
_DATA	SEGMENT
_CONF_SETTING_NETID DD FLAT:$SG187987
_DATA	ENDS
CONST	SEGMENT
	ORG $+2
$SG187989 DB	'ChangeColorValue', 00H
CONST	ENDS
_DATA	SEGMENT
_CONF_SETTING_COLOR DD FLAT:$SG187989
_DATA	ENDS
CONST	SEGMENT
	ORG $+3
$SG187991 DB	'changeColorLight', 00H
CONST	ENDS
_DATA	SEGMENT
_CONF_SETTING_LIGHT DD FLAT:$SG187991
_DATA	ENDS
CONST	SEGMENT
	ORG $+3
$SG187993 DB	'ColorIndex', 00H
CONST	ENDS
_DATA	SEGMENT
_CONF_SETTING_COLOR_BTN_INDEX DD FLAT:$SG187993
_DATA	ENDS
CONST	SEGMENT
	ORG $+1
$SG187995 DB	'ColorUser', 00H
CONST	ENDS
_DATA	SEGMENT
_CONF_SETTING_COLOR_USER DD FLAT:$SG187995
_DATA	ENDS
CONST	SEGMENT
	ORG $+2
$SG187997 DB	'FirstTimeChangeSkin', 00H
CONST	ENDS
_DATA	SEGMENT
_CONF_SETTING_FIRST_TIME_CHANGESKIN DD FLAT:$SG187997
_DATA	ENDS
CONST	SEGMENT
$SG188052 DB	'CConfigDialog', 00H
CONST	ENDS
;	COMDAT ?classCConfigDialog@CConfigDialog@@2UCRuntimeClass@@B
CONST	SEGMENT
?classCConfigDialog@CConfigDialog@@2UCRuntimeClass@@B DD FLAT:$SG188052 ; CConfigDialog::classCConfigDialog
	DD	04ecH
	DD	0ffffH
	DD	00H
	DD	FLAT:?GetThisClass@CDialog@@SGPAUCRuntimeClass@@XZ
	DD	00H
	DD	00H
CONST	ENDS
;	COMDAT ?messageMap@CConfigDialog@@1UAFX_MSGMAP@@B
CONST	SEGMENT
?messageMap@CConfigDialog@@1UAFX_MSGMAP@@B DD FLAT:?GetThisMessageMap@CDialog@@KGPBUAFX_MSGMAP@@XZ ; CConfigDialog::messageMap
	DD	FLAT:?_messageEntries@CConfigDialog@@0QBUAFX_MSGMAP_ENTRY@@B
CONST	ENDS
CONST	SEGMENT
	ORG $+2
$SG188129 DB	0cfH, 0c2H, 0d4H, 0d8H, 00H
	ORG $+3
$SG188130 DB	0cfH, 0b5H, 0cdH, 0b3H, 00H
	ORG $+3
$SG188143 DB	'ConfigDlg', 00H
	ORG $+2
$SG188144 DB	'add', 00H
$SG188145 DB	'AddDlg.txt', 00H
	ORG $+1
$SG188160 DB	'ConfigDlg', 00H
	ORG $+2
$SG188161 DB	'remove', 00H
	ORG $+1
$SG188162 DB	'AddDlg.txt', 00H
	ORG $+1
$SG188191 DB	'SET_CHANGE:DEFAULT', 00H
	ORG $+1
$SG188192 DB	'SETTING', 00H
_ID_MESSAGE_APPEXIT DD 0dH
CONST	ENDS
PUBLIC	?GetThisClass@CConfigDialog@@SGPAUCRuntimeClass@@XZ ; CConfigDialog::GetThisClass
EXTRN	__RTC_InitBase:NEAR
EXTRN	__RTC_Shutdown:NEAR
;	COMDAT rtc$IMZ
; File d:\boxgit\playbox\playbox\dev\prj\playbox\src\appconfig\config\dlg\dlgconfig.cpp
rtc$IMZ	SEGMENT
__RTC_InitBase.rtc$IMZ DD FLAT:__RTC_InitBase
rtc$IMZ	ENDS
;	COMDAT rtc$TMZ
rtc$TMZ	SEGMENT
__RTC_Shutdown.rtc$TMZ DD FLAT:__RTC_Shutdown
; Function compile flags: /Odt /RTCsu
rtc$TMZ	ENDS
_TEXT	SEGMENT
?GetThisClass@CConfigDialog@@SGPAUCRuntimeClass@@XZ PROC NEAR ; CConfigDialog::GetThisClass

; 12   : IMPLEMENT_DYNAMIC(CConfigDialog, CDialog)

  00000	55		 push	 ebp
  00001	8b ec		 mov	 ebp, esp
  00003	b8 00 00 00 00	 mov	 eax, OFFSET FLAT:?classCConfigDialog@CConfigDialog@@2UCRuntimeClass@@B ; CConfigDialog::classCConfigDialog
  00008	5d		 pop	 ebp
  00009	c3		 ret	 0
?GetThisClass@CConfigDialog@@SGPAUCRuntimeClass@@XZ ENDP ; CConfigDialog::GetThisClass
_TEXT	ENDS
PUBLIC	?GetRuntimeClass@CConfigDialog@@UBEPAUCRuntimeClass@@XZ ; CConfigDialog::GetRuntimeClass
; Function compile flags: /Odt /RTCsu
_TEXT	SEGMENT
_this$ = -4						; size = 4
?GetRuntimeClass@CConfigDialog@@UBEPAUCRuntimeClass@@XZ PROC NEAR ; CConfigDialog::GetRuntimeClass
; _this$ = ecx

; 12   : IMPLEMENT_DYNAMIC(CConfigDialog, CDialog)

  00010	55		 push	 ebp
  00011	8b ec		 mov	 ebp, esp
  00013	51		 push	 ecx
  00014	c7 45 fc cc cc
	cc cc		 mov	 DWORD PTR [ebp-4], -858993460 ; ccccccccH
  0001b	89 4d fc	 mov	 DWORD PTR _this$[ebp], ecx
  0001e	b8 00 00 00 00	 mov	 eax, OFFSET FLAT:?classCConfigDialog@CConfigDialog@@2UCRuntimeClass@@B ; CConfigDialog::classCConfigDialog
  00023	8b e5		 mov	 esp, ebp
  00025	5d		 pop	 ebp
  00026	c3		 ret	 0
?GetRuntimeClass@CConfigDialog@@UBEPAUCRuntimeClass@@XZ ENDP ; CConfigDialog::GetRuntimeClass
_TEXT	ENDS
PUBLIC	??1IMessageObserver@@UAE@XZ			; IMessageObserver::~IMessageObserver
PUBLIC	??0IMessageObserver@@QAE@XZ			; IMessageObserver::IMessageObserver
PUBLIC	??_R1A@?0A@A@CDialog@@8				; CDialog::`RTTI Base Class Descriptor at (0,-1,0,0)'
PUBLIC	??_R0?AVCDialog@@@8				; CDialog `RTTI Type Descriptor'
PUBLIC	??_R1A@?0A@A@CWnd@@8				; CWnd::`RTTI Base Class Descriptor at (0,-1,0,0)'
PUBLIC	??_R0?AVCWnd@@@8				; CWnd `RTTI Type Descriptor'
PUBLIC	??_R1A@?0A@A@CCmdTarget@@8			; CCmdTarget::`RTTI Base Class Descriptor at (0,-1,0,0)'
PUBLIC	??_R0?AVCCmdTarget@@@8				; CCmdTarget `RTTI Type Descriptor'
PUBLIC	??_R1A@?0A@A@CObject@@8				; CObject::`RTTI Base Class Descriptor at (0,-1,0,0)'
PUBLIC	??_R0?AVCObject@@@8				; CObject `RTTI Type Descriptor'
PUBLIC	??_R0?AVIMessageObserver@@@8			; IMessageObserver `RTTI Type Descriptor'
PUBLIC	??0?$map@HPAVBaseDialog@@U?$less@H@std@@V?$allocator@U?$pair@$$CBHPAVBaseDialog@@@std@@@3@@std@@QAE@XZ ; std::map<int,BaseDialog *,std::less<int>,std::allocator<std::pair<int const ,BaseDialog *> > >::map<int,BaseDialog *,std::less<int>,std::allocator<std::pair<int const ,BaseDialog *> > >
PUBLIC	??_R4CConfigDialog@@6B@				; CConfigDialog::`RTTI Complete Object Locator'
PUBLIC	??_R0?AVCConfigDialog@@@8			; CConfigDialog `RTTI Type Descriptor'
PUBLIC	??_R3CConfigDialog@@8				; CConfigDialog::`RTTI Class Hierarchy Descriptor'
PUBLIC	??_R2CConfigDialog@@8				; CConfigDialog::`RTTI Base Class Array'
PUBLIC	??_R1A@?0A@A@CConfigDialog@@8			; CConfigDialog::`RTTI Base Class Descriptor at (0,-1,0,0)'
PUBLIC	??_R1HE@?0A@A@IAppExitObserver@@8		; IAppExitObserver::`RTTI Base Class Descriptor at (116,-1,0,0)'
PUBLIC	??_R0?AVIAppExitObserver@@@8			; IAppExitObserver `RTTI Type Descriptor'
PUBLIC	??_R1A@HI@3BA@IMessageObserver@@8		; IMessageObserver::`RTTI Base Class Descriptor at (0,120,4,16)'
PUBLIC	??_R4CConfigDialog@@6BIAppExitObserver@@@	; CConfigDialog::`RTTI Complete Object Locator'
PUBLIC	??_ECConfigDialog@@WEOI@AEPAXI@Z		; [thunk]:CConfigDialog::`vector deleting destructor'
PUBLIC	??_R4CConfigDialog@@6BIMessageObserver@@@	; CConfigDialog::`RTTI Complete Object Locator'
PUBLIC	??0CConfigDialog@@QAE@HPAVCWnd@@@Z		; CConfigDialog::CConfigDialog
PUBLIC	?DoDataExchange@CConfigDialog@@MAEXPAVCDataExchange@@@Z ; CConfigDialog::DoDataExchange
PUBLIC	?GetMessageMap@CConfigDialog@@MBEPBUAFX_MSGMAP@@XZ ; CConfigDialog::GetMessageMap
PUBLIC	?OnInitDialog@CConfigDialog@@MAEHXZ		; CConfigDialog::OnInitDialog
PUBLIC	?IAppExit@CConfigDialog@@MAEXXZ			; CConfigDialog::IAppExit
PUBLIC	??_7CConfigDialog@@6B@				; CConfigDialog::`vftable'
PUBLIC	??_7CConfigDialog@@6BIAppExitObserver@@@	; CConfigDialog::`vftable'
PUBLIC	??_7CConfigDialog@@6BIMessageObserver@@@	; CConfigDialog::`vftable'
PUBLIC	??_8CConfigDialog@@7B@				; CConfigDialog::`vbtable'
PUBLIC	??_GCConfigDialog@@UAEPAXI@Z			; CConfigDialog::`scalar deleting destructor'
PUBLIC	??0IAppExitObserver@@QAE@XZ			; IAppExitObserver::IAppExitObserver
PUBLIC	??1IAppExitObserver@@UAE@XZ			; IAppExitObserver::~IAppExitObserver
EXTRN	?GetInterfaceMap@CWnd@@MBEPBUAFX_INTERFACEMAP@@XZ:NEAR ; CWnd::GetInterfaceMap
EXTRN	?EnsureStdObj@CWnd@@UAEJXZ:NEAR			; CWnd::EnsureStdObj
EXTRN	?get_accParent@CWnd@@UAEJPAPAUIDispatch@@@Z:NEAR ; CWnd::get_accParent
EXTRN	?get_accChildCount@CWnd@@UAEJPAJ@Z:NEAR		; CWnd::get_accChildCount
EXTRN	?IsInvokeAllowed@CCmdTarget@@UAEHJ@Z:NEAR	; CCmdTarget::IsInvokeAllowed
EXTRN	?get_accChild@CWnd@@UAEJUtagVARIANT@@PAPAUIDispatch@@@Z:NEAR ; CWnd::get_accChild
EXTRN	?get_accName@CWnd@@UAEJUtagVARIANT@@PAPA_W@Z:NEAR ; CWnd::get_accName
EXTRN	?get_accValue@CWnd@@UAEJUtagVARIANT@@PAPA_W@Z:NEAR ; CWnd::get_accValue
EXTRN	?GetDispatchIID@CCmdTarget@@UAEHPAU_GUID@@@Z:NEAR ; CCmdTarget::GetDispatchIID
EXTRN	?GetTypeInfoCount@CCmdTarget@@UAEIXZ:NEAR	; CCmdTarget::GetTypeInfoCount
EXTRN	?GetTypeLibCache@CCmdTarget@@UAEPAVCTypeLibCache@@XZ:NEAR ; CCmdTarget::GetTypeLibCache
EXTRN	?get_accDescription@CWnd@@UAEJUtagVARIANT@@PAPA_W@Z:NEAR ; CWnd::get_accDescription
EXTRN	?GetTypeLib@CCmdTarget@@UAEJKPAPAUITypeLib@@@Z:NEAR ; CCmdTarget::GetTypeLib
EXTRN	?get_accRole@CWnd@@UAEJUtagVARIANT@@PAU2@@Z:NEAR ; CWnd::get_accRole
EXTRN	?get_accState@CWnd@@UAEJUtagVARIANT@@PAU2@@Z:NEAR ; CWnd::get_accState
EXTRN	?get_accHelp@CWnd@@UAEJUtagVARIANT@@PAPA_W@Z:NEAR ; CWnd::get_accHelp
EXTRN	?get_accHelpTopic@CWnd@@UAEJPAPA_WUtagVARIANT@@PAJ@Z:NEAR ; CWnd::get_accHelpTopic
EXTRN	?get_accKeyboardShortcut@CWnd@@UAEJUtagVARIANT@@PAPA_W@Z:NEAR ; CWnd::get_accKeyboardShortcut
EXTRN	?get_accFocus@CWnd@@UAEJPAUtagVARIANT@@@Z:NEAR	; CWnd::get_accFocus
EXTRN	?get_accSelection@CWnd@@UAEJPAUtagVARIANT@@@Z:NEAR ; CWnd::get_accSelection
EXTRN	?get_accDefaultAction@CWnd@@UAEJUtagVARIANT@@PAPA_W@Z:NEAR ; CWnd::get_accDefaultAction
EXTRN	?GetCommandMap@CCmdTarget@@MBEPBUAFX_OLECMDMAP@@XZ:NEAR ; CCmdTarget::GetCommandMap
EXTRN	?accSelect@CWnd@@UAEJJUtagVARIANT@@@Z:NEAR	; CWnd::accSelect
EXTRN	?accLocation@CWnd@@UAEJPAJ000UtagVARIANT@@@Z:NEAR ; CWnd::accLocation
EXTRN	?GetDispatchMap@CCmdTarget@@MBEPBUAFX_DISPMAP@@XZ:NEAR ; CCmdTarget::GetDispatchMap
EXTRN	?accNavigate@CWnd@@UAEJJUtagVARIANT@@PAU2@@Z:NEAR ; CWnd::accNavigate
EXTRN	?accHitTest@CWnd@@UAEJJJPAUtagVARIANT@@@Z:NEAR	; CWnd::accHitTest
EXTRN	?GetConnectionMap@CCmdTarget@@MBEPBUAFX_CONNECTIONMAP@@XZ:NEAR ; CCmdTarget::GetConnectionMap
EXTRN	?accDoDefaultAction@CWnd@@UAEJUtagVARIANT@@@Z:NEAR ; CWnd::accDoDefaultAction
EXTRN	?put_accName@CWnd@@UAEJUtagVARIANT@@PA_W@Z:NEAR	; CWnd::put_accName
EXTRN	?put_accValue@CWnd@@UAEJUtagVARIANT@@PA_W@Z:NEAR ; CWnd::put_accValue
EXTRN	?SetProxy@CWnd@@UAEJPAUIAccessibleProxy@@@Z:NEAR ; CWnd::SetProxy
EXTRN	?CreateAccessibleProxy@CWnd@@UAEJIJPAJ@Z:NEAR	; CWnd::CreateAccessibleProxy
EXTRN	?GetEventSinkMap@CCmdTarget@@MBEPBUAFX_EVENTSINKMAP@@XZ:NEAR ; CCmdTarget::GetEventSinkMap
EXTRN	?OnCreateAggregates@CCmdTarget@@UAEHXZ:NEAR	; CCmdTarget::OnCreateAggregates
EXTRN	?OnCommand@CWnd@@MAEHIJ@Z:NEAR			; CWnd::OnCommand
EXTRN	?GetInterfaceHook@CCmdTarget@@UAEPAUIUnknown@@PBX@Z:NEAR ; CCmdTarget::GetInterfaceHook
EXTRN	?OnNotify@CWnd@@MAEHIJPAJ@Z:NEAR		; CWnd::OnNotify
EXTRN	?GetExtraConnectionPoints@CCmdTarget@@MAEHPAVCPtrArray@@@Z:NEAR ; CCmdTarget::GetExtraConnectionPoints
EXTRN	?GetConnectionHook@CCmdTarget@@MAEPAUIConnectionPoint@@ABU_GUID@@@Z:NEAR ; CCmdTarget::GetConnectionHook
EXTRN	?PreSubclassWindow@CWnd@@UAEXXZ:NEAR		; CWnd::PreSubclassWindow
EXTRN	?Create@CWnd@@UAEHPBD0KABUtagRECT@@PAV1@IPAUCCreateContext@@@Z:NEAR ; CWnd::Create
EXTRN	?CreateEx@CWnd@@UAEHKPBD0KHHHHPAUHWND__@@PAUHMENU__@@PAX@Z:NEAR ; CWnd::CreateEx
EXTRN	?CreateEx@CWnd@@UAEHKPBD0KABUtagRECT@@PAV1@IPAX@Z:NEAR ; CWnd::CreateEx
EXTRN	?Serialize@CObject@@UAEXAAVCArchive@@@Z:NEAR	; CObject::Serialize
EXTRN	?DestroyWindow@CWnd@@UAEHXZ:NEAR		; CWnd::DestroyWindow
EXTRN	?PreCreateWindow@CWnd@@UAEHAAUtagCREATESTRUCTA@@@Z:NEAR ; CWnd::PreCreateWindow
EXTRN	?CalcWindowRect@CWnd@@UAEXPAUtagRECT@@I@Z:NEAR	; CWnd::CalcWindowRect
EXTRN	??_ECConfigDialog@@UAEPAXI@Z:NEAR		; CConfigDialog::`vector deleting destructor'
EXTRN	?GetSuperWndProcAddr@CWnd@@MAEPAP6GJPAUHWND__@@IIJ@ZXZ:NEAR ; CWnd::GetSuperWndProcAddr
EXTRN	?BeginModalState@CWnd@@UAEXXZ:NEAR		; CWnd::BeginModalState
EXTRN	?EndModalState@CWnd@@UAEXXZ:NEAR		; CWnd::EndModalState
EXTRN	?OnAmbientProperty@CWnd@@UAEHPAVCOleControlSite@@JPAUtagVARIANT@@@Z:NEAR ; CWnd::OnAmbientProperty
EXTRN	?WindowProc@CWnd@@MAEJIIJ@Z:NEAR		; CWnd::WindowProc
EXTRN	?OnWndMsg@CWnd@@MAEHIIJPAJ@Z:NEAR		; CWnd::OnWndMsg
EXTRN	?DefWindowProcA@CWnd@@MAEJIIJ@Z:NEAR		; CWnd::DefWindowProcA
EXTRN	?PostNcDestroy@CWnd@@MAEXXZ:NEAR		; CWnd::PostNcDestroy
EXTRN	?OnChildNotify@CWnd@@MAEHIIJPAJ@Z:NEAR		; CWnd::OnChildNotify
EXTRN	?IsFrameWnd@CWnd@@UBEHXZ:NEAR			; CWnd::IsFrameWnd
EXTRN	?OnFinalRelease@CWnd@@UAEXXZ:NEAR		; CWnd::OnFinalRelease
EXTRN	?CreateControlContainer@CWnd@@MAEHPAPAVCOleControlContainer@@@Z:NEAR ; CWnd::CreateControlContainer
EXTRN	?CreateControlSite@CWnd@@MAEHPAVCOleControlContainer@@PAPAVCOleControlSite@@IABU_GUID@@@Z:NEAR ; CWnd::CreateControlSite
EXTRN	?Create@CDialog@@UAEHPBDPAVCWnd@@@Z:NEAR	; CDialog::Create
EXTRN	?Create@CDialog@@UAEHIPAVCWnd@@@Z:NEAR		; CDialog::Create
EXTRN	??0CDownDialog@@QAE@PAVCWnd@@@Z:NEAR		; CDownDialog::CDownDialog
EXTRN	??1CDownDialog@@UAE@XZ:NEAR			; CDownDialog::~CDownDialog
EXTRN	?CreateIndirect@CDialog@@UAEHPBUDLGTEMPLATE@@PAVCWnd@@PAX@Z:NEAR ; CDialog::CreateIndirect
EXTRN	?CreateIndirect@CDialog@@UAEHPAXPAVCWnd@@@Z:NEAR ; CDialog::CreateIndirect
EXTRN	?OnToolHitTest@CWnd@@UBEHVCPoint@@PAUtagTOOLINFOA@@@Z:NEAR ; CWnd::OnToolHitTest
EXTRN	??0CDialog@@QAE@IPAVCWnd@@@Z:NEAR		; CDialog::CDialog
EXTRN	?DoModal@CDialog@@UAEHXZ:NEAR			; CDialog::DoModal
EXTRN	?OnSetFont@CDialog@@UAEXPAVCFont@@@Z:NEAR	; CDialog::OnSetFont
EXTRN	?OnOK@CDialog@@MAEXXZ:NEAR			; CDialog::OnOK
EXTRN	?OnCancel@CDialog@@MAEXXZ:NEAR			; CDialog::OnCancel
EXTRN	??1CDialog@@UAE@XZ:NEAR				; CDialog::~CDialog
EXTRN	?AssertValid@CDialog@@UBEXXZ:NEAR		; CDialog::AssertValid
EXTRN	?Dump@CDialog@@UBEXAAVCDumpContext@@@Z:NEAR	; CDialog::Dump
EXTRN	?PreTranslateMessage@CDialog@@UAEHPAUtagMSG@@@Z:NEAR ; CDialog::PreTranslateMessage
EXTRN	??0CSysDialog@@QAE@PAVCWnd@@@Z:NEAR		; CSysDialog::CSysDialog
EXTRN	??1CSysDialog@@UAE@XZ:NEAR			; CSysDialog::~CSysDialog
EXTRN	?OnCmdMsg@CDialog@@UAEHIHPAXPAUAFX_CMDHANDLERINFO@@@Z:NEAR ; CDialog::OnCmdMsg
EXTRN	?CheckAutoCenter@CDialog@@UAEHXZ:NEAR		; CDialog::CheckAutoCenter
EXTRN	?SetOccDialogInfo@CDialog@@MAEHPAU_AFX_OCC_DIALOG_INFO@@@Z:NEAR ; CDialog::SetOccDialogInfo
EXTRN	?PreInitDialog@CDialog@@MAEXXZ:NEAR		; CDialog::PreInitDialog
EXTRN	?GetScrollBarCtrl@CWnd@@UBEPAVCScrollBar@@H@Z:NEAR ; CWnd::GetScrollBarCtrl
EXTRN	?WinHelpA@CWnd@@UAEXKI@Z:NEAR			; CWnd::WinHelpA
EXTRN	?HtmlHelpA@CWnd@@UAEXKI@Z:NEAR			; CWnd::HtmlHelpA
EXTRN	??_7type_info@@6B@:QWORD			; type_info::`vftable'
EXTRN	?WinHelpInternal@CWnd@@UAEXKI@Z:NEAR		; CWnd::WinHelpInternal
EXTRN	__except_list:DWORD
EXTRN	?ContinueModal@CWnd@@UAEHXZ:NEAR		; CWnd::ContinueModal
EXTRN	__RTC_CheckEsp:NEAR
EXTRN	?EndModalLoop@CWnd@@UAEXH@Z:NEAR		; CWnd::EndModalLoop
EXTRN	___CxxFrameHandler:NEAR
xdata$x	SEGMENT
$T189435 DD	0ffffffffH
	DD	FLAT:$L189421
	DD	00H
	DD	FLAT:$L189423
	DD	01H
	DD	FLAT:$L189424
	DD	02H
	DD	FLAT:$L189425
	DD	03H
	DD	FLAT:$L189426
$T189431 DD	019930520H
	DD	05H
	DD	FLAT:$T189435
	DD	2 DUP(00H)
	DD	2 DUP(00H)
xdata$x	ENDS
;	COMDAT ??_8CConfigDialog@@7B@
CONST	SEGMENT
??_8CConfigDialog@@7B@ DD 0fffffffcH			; CConfigDialog::`vbtable'
	DD	0470H
CONST	ENDS
;	COMDAT ??_7CConfigDialog@@6B@
CONST	SEGMENT
??_7CConfigDialog@@6B@ DD FLAT:??_R4CConfigDialog@@6B@	; CConfigDialog::`vftable'
	DD	FLAT:?GetRuntimeClass@CConfigDialog@@UBEPAUCRuntimeClass@@XZ
	DD	FLAT:??_ECConfigDialog@@UAEPAXI@Z
	DD	FLAT:?Serialize@CObject@@UAEXAAVCArchive@@@Z
	DD	FLAT:?AssertValid@CDialog@@UBEXXZ
	DD	FLAT:?Dump@CDialog@@UBEXAAVCDumpContext@@@Z
	DD	FLAT:?OnCmdMsg@CDialog@@UAEHIHPAXPAUAFX_CMDHANDLERINFO@@@Z
	DD	FLAT:?OnFinalRelease@CWnd@@UAEXXZ
	DD	FLAT:?IsInvokeAllowed@CCmdTarget@@UAEHJ@Z
	DD	FLAT:?GetDispatchIID@CCmdTarget@@UAEHPAU_GUID@@@Z
	DD	FLAT:?GetTypeInfoCount@CCmdTarget@@UAEIXZ
	DD	FLAT:?GetTypeLibCache@CCmdTarget@@UAEPAVCTypeLibCache@@XZ
	DD	FLAT:?GetTypeLib@CCmdTarget@@UAEJKPAPAUITypeLib@@@Z
	DD	FLAT:?GetMessageMap@CConfigDialog@@MBEPBUAFX_MSGMAP@@XZ
	DD	FLAT:?GetCommandMap@CCmdTarget@@MBEPBUAFX_OLECMDMAP@@XZ
	DD	FLAT:?GetDispatchMap@CCmdTarget@@MBEPBUAFX_DISPMAP@@XZ
	DD	FLAT:?GetConnectionMap@CCmdTarget@@MBEPBUAFX_CONNECTIONMAP@@XZ
	DD	FLAT:?GetInterfaceMap@CWnd@@MBEPBUAFX_INTERFACEMAP@@XZ
	DD	FLAT:?GetEventSinkMap@CCmdTarget@@MBEPBUAFX_EVENTSINKMAP@@XZ
	DD	FLAT:?OnCreateAggregates@CCmdTarget@@UAEHXZ
	DD	FLAT:?GetInterfaceHook@CCmdTarget@@UAEPAUIUnknown@@PBX@Z
	DD	FLAT:?GetExtraConnectionPoints@CCmdTarget@@MAEHPAVCPtrArray@@@Z
	DD	FLAT:?GetConnectionHook@CCmdTarget@@MAEPAUIConnectionPoint@@ABU_GUID@@@Z
	DD	FLAT:?PreSubclassWindow@CWnd@@UAEXXZ
	DD	FLAT:?Create@CWnd@@UAEHPBD0KABUtagRECT@@PAV1@IPAUCCreateContext@@@Z
	DD	FLAT:?CreateEx@CWnd@@UAEHKPBD0KABUtagRECT@@PAV1@IPAX@Z
	DD	FLAT:?CreateEx@CWnd@@UAEHKPBD0KHHHHPAUHWND__@@PAUHMENU__@@PAX@Z
	DD	FLAT:?DestroyWindow@CWnd@@UAEHXZ
	DD	FLAT:?PreCreateWindow@CWnd@@UAEHAAUtagCREATESTRUCTA@@@Z
	DD	FLAT:?CalcWindowRect@CWnd@@UAEXPAUtagRECT@@I@Z
	DD	FLAT:?OnToolHitTest@CWnd@@UBEHVCPoint@@PAUtagTOOLINFOA@@@Z
	DD	FLAT:?GetScrollBarCtrl@CWnd@@UBEPAVCScrollBar@@H@Z
	DD	FLAT:?WinHelpA@CWnd@@UAEXKI@Z
	DD	FLAT:?HtmlHelpA@CWnd@@UAEXKI@Z
	DD	FLAT:?WinHelpInternal@CWnd@@UAEXKI@Z
	DD	FLAT:?ContinueModal@CWnd@@UAEHXZ
	DD	FLAT:?EndModalLoop@CWnd@@UAEXH@Z
	DD	FLAT:?EnsureStdObj@CWnd@@UAEJXZ
	DD	FLAT:?get_accParent@CWnd@@UAEJPAPAUIDispatch@@@Z
	DD	FLAT:?get_accChildCount@CWnd@@UAEJPAJ@Z
	DD	FLAT:?get_accChild@CWnd@@UAEJUtagVARIANT@@PAPAUIDispatch@@@Z
	DD	FLAT:?get_accName@CWnd@@UAEJUtagVARIANT@@PAPA_W@Z
	DD	FLAT:?get_accValue@CWnd@@UAEJUtagVARIANT@@PAPA_W@Z
	DD	FLAT:?get_accDescription@CWnd@@UAEJUtagVARIANT@@PAPA_W@Z
	DD	FLAT:?get_accRole@CWnd@@UAEJUtagVARIANT@@PAU2@@Z
	DD	FLAT:?get_accState@CWnd@@UAEJUtagVARIANT@@PAU2@@Z
	DD	FLAT:?get_accHelp@CWnd@@UAEJUtagVARIANT@@PAPA_W@Z
	DD	FLAT:?get_accHelpTopic@CWnd@@UAEJPAPA_WUtagVARIANT@@PAJ@Z
	DD	FLAT:?get_accKeyboardShortcut@CWnd@@UAEJUtagVARIANT@@PAPA_W@Z
	DD	FLAT:?get_accFocus@CWnd@@UAEJPAUtagVARIANT@@@Z
	DD	FLAT:?get_accSelection@CWnd@@UAEJPAUtagVARIANT@@@Z
	DD	FLAT:?get_accDefaultAction@CWnd@@UAEJUtagVARIANT@@PAPA_W@Z
	DD	FLAT:?accSelect@CWnd@@UAEJJUtagVARIANT@@@Z
	DD	FLAT:?accLocation@CWnd@@UAEJPAJ000UtagVARIANT@@@Z
	DD	FLAT:?accNavigate@CWnd@@UAEJJUtagVARIANT@@PAU2@@Z
	DD	FLAT:?accHitTest@CWnd@@UAEJJJPAUtagVARIANT@@@Z
	DD	FLAT:?accDoDefaultAction@CWnd@@UAEJUtagVARIANT@@@Z
	DD	FLAT:?put_accName@CWnd@@UAEJUtagVARIANT@@PA_W@Z
	DD	FLAT:?put_accValue@CWnd@@UAEJUtagVARIANT@@PA_W@Z
	DD	FLAT:?SetProxy@CWnd@@UAEJPAUIAccessibleProxy@@@Z
	DD	FLAT:?CreateAccessibleProxy@CWnd@@UAEJIJPAJ@Z
	DD	FLAT:?OnCommand@CWnd@@MAEHIJ@Z
	DD	FLAT:?OnNotify@CWnd@@MAEHIJPAJ@Z
	DD	FLAT:?GetSuperWndProcAddr@CWnd@@MAEPAP6GJPAUHWND__@@IIJ@ZXZ
	DD	FLAT:?DoDataExchange@CConfigDialog@@MAEXPAVCDataExchange@@@Z
	DD	FLAT:?BeginModalState@CWnd@@UAEXXZ
	DD	FLAT:?EndModalState@CWnd@@UAEXXZ
	DD	FLAT:?PreTranslateMessage@CDialog@@UAEHPAUtagMSG@@@Z
	DD	FLAT:?OnAmbientProperty@CWnd@@UAEHPAVCOleControlSite@@JPAUtagVARIANT@@@Z
	DD	FLAT:?WindowProc@CWnd@@MAEJIIJ@Z
	DD	FLAT:?OnWndMsg@CWnd@@MAEHIIJPAJ@Z
	DD	FLAT:?DefWindowProcA@CWnd@@MAEJIIJ@Z
	DD	FLAT:?PostNcDestroy@CWnd@@MAEXXZ
	DD	FLAT:?OnChildNotify@CWnd@@MAEHIIJPAJ@Z
	DD	FLAT:?CheckAutoCenter@CDialog@@UAEHXZ
	DD	FLAT:?IsFrameWnd@CWnd@@UBEHXZ
	DD	FLAT:?CreateControlContainer@CWnd@@MAEHPAPAVCOleControlContainer@@@Z
	DD	FLAT:?CreateControlSite@CWnd@@MAEHPAVCOleControlContainer@@PAPAVCOleControlSite@@IABU_GUID@@@Z
	DD	FLAT:?SetOccDialogInfo@CDialog@@MAEHPAU_AFX_OCC_DIALOG_INFO@@@Z
	DD	FLAT:?Create@CDialog@@UAEHIPAVCWnd@@@Z
	DD	FLAT:?Create@CDialog@@UAEHPBDPAVCWnd@@@Z
	DD	FLAT:?CreateIndirect@CDialog@@UAEHPAXPAVCWnd@@@Z
	DD	FLAT:?CreateIndirect@CDialog@@UAEHPBUDLGTEMPLATE@@PAVCWnd@@PAX@Z
	DD	FLAT:?DoModal@CDialog@@UAEHXZ
	DD	FLAT:?OnInitDialog@CConfigDialog@@MAEHXZ
	DD	FLAT:?OnSetFont@CDialog@@UAEXPAVCFont@@@Z
	DD	FLAT:?OnOK@CDialog@@MAEXXZ
	DD	FLAT:?OnCancel@CDialog@@MAEXXZ
	DD	FLAT:?PreInitDialog@CDialog@@MAEXXZ
CONST	ENDS
;	COMDAT ??_7CConfigDialog@@6BIAppExitObserver@@@
CONST	SEGMENT
??_7CConfigDialog@@6BIAppExitObserver@@@ DD FLAT:??_R4CConfigDialog@@6BIAppExitObserver@@@ ; CConfigDialog::`vftable'
	DD	FLAT:?IAppExit@CConfigDialog@@MAEXXZ
CONST	ENDS
;	COMDAT ??_7CConfigDialog@@6BIMessageObserver@@@
CONST	SEGMENT
??_7CConfigDialog@@6BIMessageObserver@@@ DD FLAT:??_R4CConfigDialog@@6BIMessageObserver@@@ ; CConfigDialog::`vftable'
	DD	FLAT:??_ECConfigDialog@@WEOI@AEPAXI@Z
CONST	ENDS
;	COMDAT ??_R4CConfigDialog@@6B@
rdata$r	SEGMENT
??_R4CConfigDialog@@6B@ DD 00H				; CConfigDialog::`RTTI Complete Object Locator'
	DD	00H
	DD	00H
	DD	FLAT:??_R0?AVCConfigDialog@@@8
	DD	FLAT:??_R3CConfigDialog@@8
rdata$r	ENDS
;	COMDAT ??_R0?AVCConfigDialog@@@8
_DATA	SEGMENT
??_R0?AVCConfigDialog@@@8 DD FLAT:??_7type_info@@6B@	; CConfigDialog `RTTI Type Descriptor'
	DD	00H
	DB	'.?AVCConfigDialog@@', 00H
_DATA	ENDS
;	COMDAT ??_R3CConfigDialog@@8
rdata$r	SEGMENT
??_R3CConfigDialog@@8 DD 00H				; CConfigDialog::`RTTI Class Hierarchy Descriptor'
	DD	03H
	DD	07H
	DD	FLAT:??_R2CConfigDialog@@8
rdata$r	ENDS
;	COMDAT ??_R2CConfigDialog@@8
rdata$r	SEGMENT
??_R2CConfigDialog@@8 DD FLAT:??_R1A@?0A@A@CConfigDialog@@8 ; CConfigDialog::`RTTI Base Class Array'
	DD	FLAT:??_R1A@?0A@A@CDialog@@8
	DD	FLAT:??_R1A@?0A@A@CWnd@@8
	DD	FLAT:??_R1A@?0A@A@CCmdTarget@@8
	DD	FLAT:??_R1A@?0A@A@CObject@@8
	DD	FLAT:??_R1HE@?0A@A@IAppExitObserver@@8
	DD	FLAT:??_R1A@HI@3BA@IMessageObserver@@8
rdata$r	ENDS
;	COMDAT ??_R1A@?0A@A@CConfigDialog@@8
rdata$r	SEGMENT
??_R1A@?0A@A@CConfigDialog@@8 DD FLAT:??_R0?AVCConfigDialog@@@8 ; CConfigDialog::`RTTI Base Class Descriptor at (0,-1,0,0)'
	DD	06H
	DD	00H
	DD	0ffffffffH
	DD	00H
	DD	00H
rdata$r	ENDS
;	COMDAT ??_R1A@?0A@A@CDialog@@8
rdata$r	SEGMENT
??_R1A@?0A@A@CDialog@@8 DD FLAT:??_R0?AVCDialog@@@8	; CDialog::`RTTI Base Class Descriptor at (0,-1,0,0)'
	DD	03H
	DD	00H
	DD	0ffffffffH
	DD	00H
	DD	00H
rdata$r	ENDS
;	COMDAT ??_R0?AVCDialog@@@8
_DATA	SEGMENT
??_R0?AVCDialog@@@8 DD FLAT:??_7type_info@@6B@		; CDialog `RTTI Type Descriptor'
	DD	00H
	DB	'.?AVCDialog@@', 00H
_DATA	ENDS
;	COMDAT ??_R1A@?0A@A@CWnd@@8
rdata$r	SEGMENT
??_R1A@?0A@A@CWnd@@8 DD FLAT:??_R0?AVCWnd@@@8		; CWnd::`RTTI Base Class Descriptor at (0,-1,0,0)'
	DD	02H
	DD	00H
	DD	0ffffffffH
	DD	00H
	DD	00H
rdata$r	ENDS
;	COMDAT ??_R0?AVCWnd@@@8
_DATA	SEGMENT
??_R0?AVCWnd@@@8 DD FLAT:??_7type_info@@6B@		; CWnd `RTTI Type Descriptor'
	DD	00H
	DB	'.?AVCWnd@@', 00H
_DATA	ENDS
;	COMDAT ??_R1A@?0A@A@CCmdTarget@@8
rdata$r	SEGMENT
??_R1A@?0A@A@CCmdTarget@@8 DD FLAT:??_R0?AVCCmdTarget@@@8 ; CCmdTarget::`RTTI Base Class Descriptor at (0,-1,0,0)'
	DD	01H
	DD	00H
	DD	0ffffffffH
	DD	00H
	DD	00H
rdata$r	ENDS
;	COMDAT ??_R0?AVCCmdTarget@@@8
_DATA	SEGMENT
??_R0?AVCCmdTarget@@@8 DD FLAT:??_7type_info@@6B@	; CCmdTarget `RTTI Type Descriptor'
	DD	00H
	DB	'.?AVCCmdTarget@@', 00H
_DATA	ENDS
;	COMDAT ??_R1A@?0A@A@CObject@@8
rdata$r	SEGMENT
??_R1A@?0A@A@CObject@@8 DD FLAT:??_R0?AVCObject@@@8	; CObject::`RTTI Base Class Descriptor at (0,-1,0,0)'
	DD	00H
	DD	00H
	DD	0ffffffffH
	DD	00H
	DD	00H
rdata$r	ENDS
;	COMDAT ??_R0?AVCObject@@@8
_DATA	SEGMENT
??_R0?AVCObject@@@8 DD FLAT:??_7type_info@@6B@		; CObject `RTTI Type Descriptor'
	DD	00H
	DB	'.?AVCObject@@', 00H
_DATA	ENDS
;	COMDAT ??_R1HE@?0A@A@IAppExitObserver@@8
rdata$r	SEGMENT
??_R1HE@?0A@A@IAppExitObserver@@8 DD FLAT:??_R0?AVIAppExitObserver@@@8 ; IAppExitObserver::`RTTI Base Class Descriptor at (116,-1,0,0)'
	DD	01H
	DD	074H
	DD	0ffffffffH
	DD	00H
	DD	00H
rdata$r	ENDS
;	COMDAT ??_R0?AVIAppExitObserver@@@8
_DATA	SEGMENT
??_R0?AVIAppExitObserver@@@8 DD FLAT:??_7type_info@@6B@	; IAppExitObserver `RTTI Type Descriptor'
	DD	00H
	DB	'.?AVIAppExitObserver@@', 00H
_DATA	ENDS
;	COMDAT ??_R1A@HI@3BA@IMessageObserver@@8
rdata$r	SEGMENT
??_R1A@HI@3BA@IMessageObserver@@8 DD FLAT:??_R0?AVIMessageObserver@@@8 ; IMessageObserver::`RTTI Base Class Descriptor at (0,120,4,16)'
	DD	00H
	DD	00H
	DD	078H
	DD	04H
	DD	010H
rdata$r	ENDS
;	COMDAT ??_R0?AVIMessageObserver@@@8
_DATA	SEGMENT
??_R0?AVIMessageObserver@@@8 DD FLAT:??_7type_info@@6B@	; IMessageObserver `RTTI Type Descriptor'
	DD	00H
	DB	'.?AVIMessageObserver@@', 00H
	ORG $-31
	DD	FLAT:??_7type_info@@6B@
	DD	00H
	DB	'.?AVIMessageObserver@@', 00H
_DATA	ENDS
;	COMDAT ??_R4CConfigDialog@@6BIAppExitObserver@@@
rdata$r	SEGMENT
??_R4CConfigDialog@@6BIAppExitObserver@@@ DD 00H	; CConfigDialog::`RTTI Complete Object Locator'
	DD	074H
	DD	00H
	DD	FLAT:??_R0?AVCConfigDialog@@@8
	DD	FLAT:??_R3CConfigDialog@@8
rdata$r	ENDS
;	COMDAT ??_R4CConfigDialog@@6BIMessageObserver@@@
rdata$r	SEGMENT
??_R4CConfigDialog@@6BIMessageObserver@@@ DD 00H	; CConfigDialog::`RTTI Complete Object Locator'
	DD	04e8H
	DD	00H
	DD	FLAT:??_R0?AVCConfigDialog@@@8
	DD	FLAT:??_R3CConfigDialog@@8
; Function compile flags: /Odt /RTCsu
rdata$r	ENDS
_TEXT	SEGMENT
$T189420 = -20						; size = 4
_this$ = -16						; size = 4
__$EHRec$ = -12						; size = 12
_iShowIdx$ = 8						; size = 4
_pParent$ = 12						; size = 4
_$initVBases$ = 16					; size = 4
??0CConfigDialog@@QAE@HPAVCWnd@@@Z PROC NEAR		; CConfigDialog::CConfigDialog
; _this$ = ecx

; 16   : {

  00030	55		 push	 ebp
  00031	8b ec		 mov	 ebp, esp
  00033	6a ff		 push	 -1
  00035	68 00 00 00 00	 push	 __ehhandler$??0CConfigDialog@@QAE@HPAVCWnd@@@Z
  0003a	64 a1 00 00 00
	00		 mov	 eax, DWORD PTR fs:__except_list
  00040	50		 push	 eax
  00041	64 89 25 00 00
	00 00		 mov	 DWORD PTR fs:__except_list, esp
  00048	83 ec 08	 sub	 esp, 8
  0004b	c7 45 ec cc cc
	cc cc		 mov	 DWORD PTR [ebp-20], -858993460 ; ccccccccH
  00052	c7 45 f0 cc cc
	cc cc		 mov	 DWORD PTR [ebp-16], -858993460 ; ccccccccH
  00059	89 4d f0	 mov	 DWORD PTR _this$[ebp], ecx
  0005c	c7 45 ec 00 00
	00 00		 mov	 DWORD PTR $T189420[ebp], 0
  00063	83 7d 10 00	 cmp	 DWORD PTR _$initVBases$[ebp], 0
  00067	74 28		 je	 SHORT $L188067
  00069	8b 45 f0	 mov	 eax, DWORD PTR _this$[ebp]
  0006c	c7 40 78 00 00
	00 00		 mov	 DWORD PTR [eax+120], OFFSET FLAT:??_8CConfigDialog@@7B@
  00073	8b 4d f0	 mov	 ecx, DWORD PTR _this$[ebp]
  00076	81 c1 e8 04 00
	00		 add	 ecx, 1256		; 000004e8H
  0007c	e8 00 00 00 00	 call	 ??0IMessageObserver@@QAE@XZ
  00081	c7 45 fc 00 00
	00 00		 mov	 DWORD PTR __$EHRec$[ebp+8], 0
  00088	8b 4d ec	 mov	 ecx, DWORD PTR $T189420[ebp]
  0008b	83 c9 01	 or	 ecx, 1
  0008e	89 4d ec	 mov	 DWORD PTR $T189420[ebp], ecx
$L188067:
  00091	8b 55 0c	 mov	 edx, DWORD PTR _pParent$[ebp]
  00094	52		 push	 edx
  00095	68 8e 00 00 00	 push	 142			; 0000008eH
  0009a	8b 4d f0	 mov	 ecx, DWORD PTR _this$[ebp]
  0009d	e8 00 00 00 00	 call	 ??0CDialog@@QAE@IPAVCWnd@@@Z ; CDialog::CDialog
  000a2	c7 45 fc 01 00
	00 00		 mov	 DWORD PTR __$EHRec$[ebp+8], 1
  000a9	6a 00		 push	 0
  000ab	8b 4d f0	 mov	 ecx, DWORD PTR _this$[ebp]
  000ae	83 c1 74	 add	 ecx, 116		; 00000074H
  000b1	e8 00 00 00 00	 call	 ??0IAppExitObserver@@QAE@XZ
  000b6	c6 45 fc 02	 mov	 BYTE PTR __$EHRec$[ebp+8], 2
  000ba	8b 45 f0	 mov	 eax, DWORD PTR _this$[ebp]
  000bd	c7 00 00 00 00
	00		 mov	 DWORD PTR [eax], OFFSET FLAT:??_7CConfigDialog@@6B@
  000c3	8b 4d f0	 mov	 ecx, DWORD PTR _this$[ebp]
  000c6	c7 41 74 00 00
	00 00		 mov	 DWORD PTR [ecx+116], OFFSET FLAT:??_7CConfigDialog@@6BIAppExitObserver@@@
  000cd	8b 55 f0	 mov	 edx, DWORD PTR _this$[ebp]
  000d0	8b 42 78	 mov	 eax, DWORD PTR [edx+120]
  000d3	8b 48 04	 mov	 ecx, DWORD PTR [eax+4]
  000d6	8b 55 f0	 mov	 edx, DWORD PTR _this$[ebp]
  000d9	c7 44 0a 78 00
	00 00 00	 mov	 DWORD PTR [edx+ecx+120], OFFSET FLAT:??_7CConfigDialog@@6BIMessageObserver@@@
  000e1	6a 00		 push	 0
  000e3	8b 4d f0	 mov	 ecx, DWORD PTR _this$[ebp]
  000e6	83 c1 7c	 add	 ecx, 124		; 0000007cH
  000e9	e8 00 00 00 00	 call	 ??0CDownDialog@@QAE@PAVCWnd@@@Z ; CDownDialog::CDownDialog
  000ee	c6 45 fc 03	 mov	 BYTE PTR __$EHRec$[ebp+8], 3
  000f2	6a 00		 push	 0
  000f4	8b 4d f0	 mov	 ecx, DWORD PTR _this$[ebp]
  000f7	81 c1 84 02 00
	00		 add	 ecx, 644		; 00000284H
  000fd	e8 00 00 00 00	 call	 ??0CSysDialog@@QAE@PAVCWnd@@@Z ; CSysDialog::CSysDialog
  00102	c6 45 fc 04	 mov	 BYTE PTR __$EHRec$[ebp+8], 4
  00106	8b 4d f0	 mov	 ecx, DWORD PTR _this$[ebp]
  00109	81 c1 d4 04 00
	00		 add	 ecx, 1236		; 000004d4H
  0010f	e8 00 00 00 00	 call	 ??0?$map@HPAVBaseDialog@@U?$less@H@std@@V?$allocator@U?$pair@$$CBHPAVBaseDialog@@@std@@@3@@std@@QAE@XZ ; std::map<int,BaseDialog *,std::less<int>,std::allocator<std::pair<int const ,BaseDialog *> > >::map<int,BaseDialog *,std::less<int>,std::allocator<std::pair<int const ,BaseDialog *> > >

; 17   : 	m_iShowIdx	= iShowIdx;

  00114	8b 45 f0	 mov	 eax, DWORD PTR _this$[ebp]
  00117	8b 4d 08	 mov	 ecx, DWORD PTR _iShowIdx$[ebp]
  0011a	89 88 e4 04 00
	00		 mov	 DWORD PTR [eax+1252], ecx

; 18   : 	m_bFullScreen = FALSE;

  00120	8b 55 f0	 mov	 edx, DWORD PTR _this$[ebp]
  00123	c7 82 e0 04 00
	00 00 00 00 00	 mov	 DWORD PTR [edx+1248], 0

; 19   : }

  0012d	c7 45 fc ff ff
	ff ff		 mov	 DWORD PTR __$EHRec$[ebp+8], -1
  00134	8b 45 f0	 mov	 eax, DWORD PTR _this$[ebp]
  00137	8b 4d f4	 mov	 ecx, DWORD PTR __$EHRec$[ebp]
  0013a	64 89 0d 00 00
	00 00		 mov	 DWORD PTR fs:__except_list, ecx
  00141	83 c4 14	 add	 esp, 20			; 00000014H
  00144	3b ec		 cmp	 ebp, esp
  00146	e8 00 00 00 00	 call	 __RTC_CheckEsp
  0014b	8b e5		 mov	 esp, ebp
  0014d	5d		 pop	 ebp
  0014e	c2 0c 00	 ret	 12			; 0000000cH
_TEXT	ENDS
text$x	SEGMENT
$L189421:
  00000	8b 45 ec	 mov	 eax, DWORD PTR $T189420[ebp]
  00003	83 e0 01	 and	 eax, 1
  00006	0f 84 12 00 00
	00		 je	 $L189422
  0000c	83 65 ec fe	 and	 DWORD PTR $T189420[ebp], -2 ; fffffffeH
  00010	8b 4d f0	 mov	 ecx, DWORD PTR _this$[ebp]
  00013	81 c1 e8 04 00
	00		 add	 ecx, 1256		; 000004e8H
  00019	e9 00 00 00 00	 jmp	 ??1IMessageObserver@@UAE@XZ ; IMessageObserver::~IMessageObserver
$L189422:
  0001e	c3		 ret	 0
$L189423:
  0001f	8b 4d f0	 mov	 ecx, DWORD PTR _this$[ebp]
  00022	e9 00 00 00 00	 jmp	 ??1CDialog@@UAE@XZ	; CDialog::~CDialog
$L189424:
  00027	8b 4d f0	 mov	 ecx, DWORD PTR _this$[ebp]
  0002a	83 c1 7c	 add	 ecx, 124		; 0000007cH
  0002d	e9 00 00 00 00	 jmp	 ??1IAppExitObserver@@UAE@XZ
$L189425:
  00032	8b 4d f0	 mov	 ecx, DWORD PTR _this$[ebp]
  00035	83 c1 7c	 add	 ecx, 124		; 0000007cH
  00038	e9 00 00 00 00	 jmp	 ??1CDownDialog@@UAE@XZ	; CDownDialog::~CDownDialog
$L189426:
  0003d	8b 4d f0	 mov	 ecx, DWORD PTR _this$[ebp]
  00040	81 c1 84 02 00
	00		 add	 ecx, 644		; 00000284H
  00046	e9 00 00 00 00	 jmp	 ??1CSysDialog@@UAE@XZ	; CSysDialog::~CSysDialog
__ehhandler$??0CConfigDialog@@QAE@HPAVCWnd@@@Z:
  0004b	b8 00 00 00 00	 mov	 eax, OFFSET FLAT:$T189431
  00050	e9 00 00 00 00	 jmp	 ___CxxFrameHandler
text$x	ENDS
??0CConfigDialog@@QAE@HPAVCWnd@@@Z ENDP			; CConfigDialog::CConfigDialog
PUBLIC	??_DCConfigDialog@@QAEXXZ			; CConfigDialog::`vbase destructor'
EXTRN	??3CObject@@SGXPAX@Z:NEAR			; CObject::operator delete
; Function compile flags: /Odt /RTCsu
;	COMDAT ??_GCConfigDialog@@UAEPAXI@Z
_TEXT	SEGMENT
_this$ = -4						; size = 4
___flags$ = 8						; size = 4
??_GCConfigDialog@@UAEPAXI@Z PROC NEAR			; CConfigDialog::`scalar deleting destructor', COMDAT
; _this$ = ecx
  00000	55		 push	 ebp
  00001	8b ec		 mov	 ebp, esp
  00003	51		 push	 ecx
  00004	c7 45 fc cc cc
	cc cc		 mov	 DWORD PTR [ebp-4], -858993460 ; ccccccccH
  0000b	89 4d fc	 mov	 DWORD PTR _this$[ebp], ecx
  0000e	8b 4d fc	 mov	 ecx, DWORD PTR _this$[ebp]
  00011	e8 00 00 00 00	 call	 ??_DCConfigDialog@@QAEXXZ
  00016	8b 45 08	 mov	 eax, DWORD PTR ___flags$[ebp]
  00019	83 e0 01	 and	 eax, 1
  0001c	74 09		 je	 SHORT $L188071
  0001e	8b 4d fc	 mov	 ecx, DWORD PTR _this$[ebp]
  00021	51		 push	 ecx
  00022	e8 00 00 00 00	 call	 ??3CObject@@SGXPAX@Z	; CObject::operator delete
$L188071:
  00027	8b 45 fc	 mov	 eax, DWORD PTR _this$[ebp]
  0002a	83 c4 04	 add	 esp, 4
  0002d	3b ec		 cmp	 ebp, esp
  0002f	e8 00 00 00 00	 call	 __RTC_CheckEsp
  00034	8b e5		 mov	 esp, ebp
  00036	5d		 pop	 ebp
  00037	c2 04 00	 ret	 4
??_GCConfigDialog@@UAEPAXI@Z ENDP			; CConfigDialog::`scalar deleting destructor'
_TEXT	ENDS
PUBLIC	??_7IMessageObserver@@6B@			; IMessageObserver::`vftable'
PUBLIC	??_GIMessageObserver@@UAEPAXI@Z			; IMessageObserver::`scalar deleting destructor'
PUBLIC	??_R4IMessageObserver@@6B@			; IMessageObserver::`RTTI Complete Object Locator'
PUBLIC	??_R3IMessageObserver@@8			; IMessageObserver::`RTTI Class Hierarchy Descriptor'
PUBLIC	??_R2IMessageObserver@@8			; IMessageObserver::`RTTI Base Class Array'
PUBLIC	??_R1A@?0A@A@IMessageObserver@@8		; IMessageObserver::`RTTI Base Class Descriptor at (0,-1,0,0)'
EXTRN	??_EIMessageObserver@@UAEPAXI@Z:NEAR		; IMessageObserver::`vector deleting destructor'
;	COMDAT ??_7IMessageObserver@@6B@
CONST	SEGMENT
??_7IMessageObserver@@6B@ DD FLAT:??_R4IMessageObserver@@6B@ ; IMessageObserver::`vftable'
	DD	FLAT:??_EIMessageObserver@@UAEPAXI@Z
CONST	ENDS
;	COMDAT ??_R4IMessageObserver@@6B@
rdata$r	SEGMENT
??_R4IMessageObserver@@6B@ DD 00H			; IMessageObserver::`RTTI Complete Object Locator'
	DD	00H
	DD	00H
	DD	FLAT:??_R0?AVIMessageObserver@@@8
	DD	FLAT:??_R3IMessageObserver@@8
rdata$r	ENDS
;	COMDAT ??_R3IMessageObserver@@8
rdata$r	SEGMENT
??_R3IMessageObserver@@8 DD 00H				; IMessageObserver::`RTTI Class Hierarchy Descriptor'
	DD	00H
	DD	01H
	DD	FLAT:??_R2IMessageObserver@@8
rdata$r	ENDS
;	COMDAT ??_R2IMessageObserver@@8
rdata$r	SEGMENT
??_R2IMessageObserver@@8 DD FLAT:??_R1A@?0A@A@IMessageObserver@@8 ; IMessageObserver::`RTTI Base Class Array'
rdata$r	ENDS
;	COMDAT ??_R1A@?0A@A@IMessageObserver@@8
rdata$r	SEGMENT
??_R1A@?0A@A@IMessageObserver@@8 DD FLAT:??_R0?AVIMessageObserver@@@8 ; IMessageObserver::`RTTI Base Class Descriptor at (0,-1,0,0)'
	DD	00H
	DD	00H
	DD	0ffffffffH
	DD	00H
	DD	00H
; Function compile flags: /Odt /RTCsu
rdata$r	ENDS
;	COMDAT ??0IMessageObserver@@QAE@XZ
_TEXT	SEGMENT
_this$ = -4						; size = 4
??0IMessageObserver@@QAE@XZ PROC NEAR			; IMessageObserver::IMessageObserver, COMDAT
; _this$ = ecx
  00000	55		 push	 ebp
  00001	8b ec		 mov	 ebp, esp
  00003	51		 push	 ecx
  00004	c7 45 fc cc cc
	cc cc		 mov	 DWORD PTR [ebp-4], -858993460 ; ccccccccH
  0000b	89 4d fc	 mov	 DWORD PTR _this$[ebp], ecx
  0000e	8b 45 fc	 mov	 eax, DWORD PTR _this$[ebp]
  00011	c7 00 00 00 00
	00		 mov	 DWORD PTR [eax], OFFSET FLAT:??_7IMessageObserver@@6B@
  00017	8b 45 fc	 mov	 eax, DWORD PTR _this$[ebp]
  0001a	8b e5		 mov	 esp, ebp
  0001c	5d		 pop	 ebp
  0001d	c3		 ret	 0
??0IMessageObserver@@QAE@XZ ENDP			; IMessageObserver::IMessageObserver
_TEXT	ENDS
PUBLIC	??_R4IAppExitObserver@@6B0@@			; IAppExitObserver::`RTTI Complete Object Locator'
PUBLIC	??_R3IAppExitObserver@@8			; IAppExitObserver::`RTTI Class Hierarchy Descriptor'
PUBLIC	??_R2IAppExitObserver@@8			; IAppExitObserver::`RTTI Base Class Array'
PUBLIC	??_R1A@?0A@A@IAppExitObserver@@8		; IAppExitObserver::`RTTI Base Class Descriptor at (0,-1,0,0)'
PUBLIC	??_R1A@33BA@IMessageObserver@@8			; IMessageObserver::`RTTI Base Class Descriptor at (0,4,4,16)'
PUBLIC	??_R4IAppExitObserver@@6BIMessageObserver@@@	; IAppExitObserver::`RTTI Complete Object Locator'
PUBLIC	?IAppExit@IAppExitObserver@@UAEXXZ		; IAppExitObserver::IAppExit
PUBLIC	??_7IAppExitObserver@@6B0@@			; IAppExitObserver::`vftable'
PUBLIC	??_7IAppExitObserver@@6BIMessageObserver@@@	; IAppExitObserver::`vftable'
PUBLIC	??_8IAppExitObserver@@7B@			; IAppExitObserver::`vbtable'
PUBLIC	??_GIAppExitObserver@@UAEPAXI@Z			; IAppExitObserver::`scalar deleting destructor'
EXTRN	??_EIAppExitObserver@@UAEPAXI@Z:NEAR		; IAppExitObserver::`vector deleting destructor'
;	COMDAT ??_8IAppExitObserver@@7B@
CONST	SEGMENT
??_8IAppExitObserver@@7B@ DD 0fffffffcH			; IAppExitObserver::`vbtable'
	DD	04H
CONST	ENDS
;	COMDAT ??_7IAppExitObserver@@6B0@@
CONST	SEGMENT
??_7IAppExitObserver@@6B0@@ DD FLAT:??_R4IAppExitObserver@@6B0@@ ; IAppExitObserver::`vftable'
	DD	FLAT:?IAppExit@IAppExitObserver@@UAEXXZ
CONST	ENDS
;	COMDAT ??_7IAppExitObserver@@6BIMessageObserver@@@
CONST	SEGMENT
??_7IAppExitObserver@@6BIMessageObserver@@@ DD FLAT:??_R4IAppExitObserver@@6BIMessageObserver@@@ ; IAppExitObserver::`vftable'
	DD	FLAT:??_EIAppExitObserver@@UAEPAXI@Z
CONST	ENDS
;	COMDAT ??_R4IAppExitObserver@@6B0@@
rdata$r	SEGMENT
??_R4IAppExitObserver@@6B0@@ DD 00H			; IAppExitObserver::`RTTI Complete Object Locator'
	DD	00H
	DD	00H
	DD	FLAT:??_R0?AVIAppExitObserver@@@8
	DD	FLAT:??_R3IAppExitObserver@@8
rdata$r	ENDS
;	COMDAT ??_R3IAppExitObserver@@8
rdata$r	SEGMENT
??_R3IAppExitObserver@@8 DD 00H				; IAppExitObserver::`RTTI Class Hierarchy Descriptor'
	DD	00H
	DD	02H
	DD	FLAT:??_R2IAppExitObserver@@8
rdata$r	ENDS
;	COMDAT ??_R2IAppExitObserver@@8
rdata$r	SEGMENT
??_R2IAppExitObserver@@8 DD FLAT:??_R1A@?0A@A@IAppExitObserver@@8 ; IAppExitObserver::`RTTI Base Class Array'
	DD	FLAT:??_R1A@33BA@IMessageObserver@@8
rdata$r	ENDS
;	COMDAT ??_R1A@?0A@A@IAppExitObserver@@8
rdata$r	SEGMENT
??_R1A@?0A@A@IAppExitObserver@@8 DD FLAT:??_R0?AVIAppExitObserver@@@8 ; IAppExitObserver::`RTTI Base Class Descriptor at (0,-1,0,0)'
	DD	01H
	DD	00H
	DD	0ffffffffH
	DD	00H
	DD	00H
rdata$r	ENDS
;	COMDAT ??_R1A@33BA@IMessageObserver@@8
rdata$r	SEGMENT
??_R1A@33BA@IMessageObserver@@8 DD FLAT:??_R0?AVIMessageObserver@@@8 ; IMessageObserver::`RTTI Base Class Descriptor at (0,4,4,16)'
	DD	00H
	DD	00H
	DD	04H
	DD	04H
	DD	010H
rdata$r	ENDS
;	COMDAT ??_R4IAppExitObserver@@6BIMessageObserver@@@
rdata$r	SEGMENT
??_R4IAppExitObserver@@6BIMessageObserver@@@ DD 00H	; IAppExitObserver::`RTTI Complete Object Locator'
	DD	08H
	DD	00H
	DD	FLAT:??_R0?AVIAppExitObserver@@@8
	DD	FLAT:??_R3IAppExitObserver@@8
; Function compile flags: /Odt /RTCsu
rdata$r	ENDS
;	COMDAT ??0IAppExitObserver@@QAE@XZ
_TEXT	SEGMENT
$T189440 = -8						; size = 4
_this$ = -4						; size = 4
_$initVBases$ = 8					; size = 4
??0IAppExitObserver@@QAE@XZ PROC NEAR			; IAppExitObserver::IAppExitObserver, COMDAT
; _this$ = ecx
  00000	55		 push	 ebp
  00001	8b ec		 mov	 ebp, esp
  00003	83 ec 08	 sub	 esp, 8
  00006	c7 45 f8 cc cc
	cc cc		 mov	 DWORD PTR [ebp-8], -858993460 ; ccccccccH
  0000d	c7 45 fc cc cc
	cc cc		 mov	 DWORD PTR [ebp-4], -858993460 ; ccccccccH
  00014	89 4d fc	 mov	 DWORD PTR _this$[ebp], ecx
  00017	c7 45 f8 00 00
	00 00		 mov	 DWORD PTR $T189440[ebp], 0
  0001e	83 7d 08 00	 cmp	 DWORD PTR _$initVBases$[ebp], 0
  00022	74 19		 je	 SHORT $L188077
  00024	8b 45 fc	 mov	 eax, DWORD PTR _this$[ebp]
  00027	c7 40 04 00 00
	00 00		 mov	 DWORD PTR [eax+4], OFFSET FLAT:??_8IAppExitObserver@@7B@
  0002e	8b 4d fc	 mov	 ecx, DWORD PTR _this$[ebp]
  00031	83 c1 08	 add	 ecx, 8
  00034	e8 00 00 00 00	 call	 ??0IMessageObserver@@QAE@XZ
  00039	83 4d f8 01	 or	 DWORD PTR $T189440[ebp], 1
$L188077:
  0003d	8b 4d fc	 mov	 ecx, DWORD PTR _this$[ebp]
  00040	c7 01 00 00 00
	00		 mov	 DWORD PTR [ecx], OFFSET FLAT:??_7IAppExitObserver@@6B0@@
  00046	8b 55 fc	 mov	 edx, DWORD PTR _this$[ebp]
  00049	8b 42 04	 mov	 eax, DWORD PTR [edx+4]
  0004c	8b 48 04	 mov	 ecx, DWORD PTR [eax+4]
  0004f	8b 55 fc	 mov	 edx, DWORD PTR _this$[ebp]
  00052	c7 44 0a 04 00
	00 00 00	 mov	 DWORD PTR [edx+ecx+4], OFFSET FLAT:??_7IAppExitObserver@@6BIMessageObserver@@@
  0005a	8b 45 fc	 mov	 eax, DWORD PTR _this$[ebp]
  0005d	83 c4 08	 add	 esp, 8
  00060	3b ec		 cmp	 ebp, esp
  00062	e8 00 00 00 00	 call	 __RTC_CheckEsp
  00067	8b e5		 mov	 esp, ebp
  00069	5d		 pop	 ebp
  0006a	c2 04 00	 ret	 4
??0IAppExitObserver@@QAE@XZ ENDP			; IAppExitObserver::IAppExitObserver
; Function compile flags: /Odt /RTCsu
; File d:\boxgit\playbox\playbox\dev\prj\playbox\src\datainterface\iappexitobserver.h
_TEXT	ENDS
;	COMDAT ?IAppExit@IAppExitObserver@@UAEXXZ
_TEXT	SEGMENT
_this$ = -4						; size = 4
?IAppExit@IAppExitObserver@@UAEXXZ PROC NEAR		; IAppExitObserver::IAppExit, COMDAT
; _this$ = ecx

; 9    : 	virtual void	IAppExit(){};	

  00000	55		 push	 ebp
  00001	8b ec		 mov	 ebp, esp
  00003	51		 push	 ecx
  00004	c7 45 fc cc cc
	cc cc		 mov	 DWORD PTR [ebp-4], -858993460 ; ccccccccH
  0000b	89 4d fc	 mov	 DWORD PTR _this$[ebp], ecx
  0000e	8b e5		 mov	 esp, ebp
  00010	5d		 pop	 ebp
  00011	c3		 ret	 0
?IAppExit@IAppExitObserver@@UAEXXZ ENDP			; IAppExitObserver::IAppExit
; Function compile flags: /Odt /RTCsu
_TEXT	ENDS
;	COMDAT ??1IAppExitObserver@@UAE@XZ
_TEXT	SEGMENT
_this$ = -4						; size = 4
??1IAppExitObserver@@UAE@XZ PROC NEAR			; IAppExitObserver::~IAppExitObserver, COMDAT
; _this$ = ecx
  00000	55		 push	 ebp
  00001	8b ec		 mov	 ebp, esp
  00003	51		 push	 ecx
  00004	c7 45 fc cc cc
	cc cc		 mov	 DWORD PTR [ebp-4], -858993460 ; ccccccccH
  0000b	89 4d fc	 mov	 DWORD PTR _this$[ebp], ecx
  0000e	8b e5		 mov	 esp, ebp
  00010	5d		 pop	 ebp
  00011	c3		 ret	 0
??1IAppExitObserver@@UAE@XZ ENDP			; IAppExitObserver::~IAppExitObserver
_TEXT	ENDS
PUBLIC	??1CConfigDialog@@UAE@XZ			; CConfigDialog::~CConfigDialog
; Function compile flags: /Odt /RTCsu
;	COMDAT ??_DCConfigDialog@@QAEXXZ
_TEXT	SEGMENT
_this$ = -4						; size = 4
??_DCConfigDialog@@QAEXXZ PROC NEAR			; CConfigDialog::`vbase destructor', COMDAT
; _this$ = ecx
  00000	55		 push	 ebp
  00001	8b ec		 mov	 ebp, esp
  00003	51		 push	 ecx
  00004	c7 45 fc cc cc
	cc cc		 mov	 DWORD PTR [ebp-4], -858993460 ; ccccccccH
  0000b	89 4d fc	 mov	 DWORD PTR _this$[ebp], ecx
  0000e	8b 4d fc	 mov	 ecx, DWORD PTR _this$[ebp]
  00011	e8 00 00 00 00	 call	 ??1CConfigDialog@@UAE@XZ ; CConfigDialog::~CConfigDialog
  00016	8b 4d fc	 mov	 ecx, DWORD PTR _this$[ebp]
  00019	81 c1 e8 04 00
	00		 add	 ecx, 1256		; 000004e8H
  0001f	e8 00 00 00 00	 call	 ??1IMessageObserver@@UAE@XZ ; IMessageObserver::~IMessageObserver
  00024	83 c4 04	 add	 esp, 4
  00027	3b ec		 cmp	 ebp, esp
  00029	e8 00 00 00 00	 call	 __RTC_CheckEsp
  0002e	8b e5		 mov	 esp, ebp
  00030	5d		 pop	 ebp
  00031	c3		 ret	 0
??_DCConfigDialog@@QAEXXZ ENDP				; CConfigDialog::`vbase destructor'
_TEXT	ENDS
PUBLIC	??_DIAppExitObserver@@QAEXXZ			; IAppExitObserver::`vbase destructor'
EXTRN	??3@YAXPAX@Z:NEAR				; operator delete
; Function compile flags: /Odt /RTCsu
;	COMDAT ??_GIAppExitObserver@@UAEPAXI@Z
_TEXT	SEGMENT
_this$ = -4						; size = 4
___flags$ = 8						; size = 4
??_GIAppExitObserver@@UAEPAXI@Z PROC NEAR		; IAppExitObserver::`scalar deleting destructor', COMDAT
; _this$ = ecx
  00000	55		 push	 ebp
  00001	8b ec		 mov	 ebp, esp
  00003	51		 push	 ecx
  00004	c7 45 fc cc cc
	cc cc		 mov	 DWORD PTR [ebp-4], -858993460 ; ccccccccH
  0000b	89 4d fc	 mov	 DWORD PTR _this$[ebp], ecx
  0000e	8b 4d fc	 mov	 ecx, DWORD PTR _this$[ebp]
  00011	83 e9 08	 sub	 ecx, 8
  00014	e8 00 00 00 00	 call	 ??_DIAppExitObserver@@QAEXXZ
  00019	8b 45 08	 mov	 eax, DWORD PTR ___flags$[ebp]
  0001c	83 e0 01	 and	 eax, 1
  0001f	74 0f		 je	 SHORT $L188087
  00021	8b 4d fc	 mov	 ecx, DWORD PTR _this$[ebp]
  00024	83 e9 08	 sub	 ecx, 8
  00027	51		 push	 ecx
  00028	e8 00 00 00 00	 call	 ??3@YAXPAX@Z		; operator delete
  0002d	83 c4 04	 add	 esp, 4
$L188087:
  00030	8b 45 fc	 mov	 eax, DWORD PTR _this$[ebp]
  00033	83 e8 08	 sub	 eax, 8
  00036	83 c4 04	 add	 esp, 4
  00039	3b ec		 cmp	 ebp, esp
  0003b	e8 00 00 00 00	 call	 __RTC_CheckEsp
  00040	8b e5		 mov	 esp, ebp
  00042	5d		 pop	 ebp
  00043	c2 04 00	 ret	 4
??_GIAppExitObserver@@UAEPAXI@Z ENDP			; IAppExitObserver::`scalar deleting destructor'
; Function compile flags: /Odt /RTCsu
_TEXT	ENDS
;	COMDAT ??_DIAppExitObserver@@QAEXXZ
_TEXT	SEGMENT
_this$ = -4						; size = 4
??_DIAppExitObserver@@QAEXXZ PROC NEAR			; IAppExitObserver::`vbase destructor', COMDAT
; _this$ = ecx
  00000	55		 push	 ebp
  00001	8b ec		 mov	 ebp, esp
  00003	51		 push	 ecx
  00004	c7 45 fc cc cc
	cc cc		 mov	 DWORD PTR [ebp-4], -858993460 ; ccccccccH
  0000b	89 4d fc	 mov	 DWORD PTR _this$[ebp], ecx
  0000e	8b 4d fc	 mov	 ecx, DWORD PTR _this$[ebp]
  00011	83 c1 08	 add	 ecx, 8
  00014	e8 00 00 00 00	 call	 ??1IAppExitObserver@@UAE@XZ
  00019	8b 4d fc	 mov	 ecx, DWORD PTR _this$[ebp]
  0001c	83 c1 08	 add	 ecx, 8
  0001f	e8 00 00 00 00	 call	 ??1IMessageObserver@@UAE@XZ ; IMessageObserver::~IMessageObserver
  00024	83 c4 04	 add	 esp, 4
  00027	3b ec		 cmp	 ebp, esp
  00029	e8 00 00 00 00	 call	 __RTC_CheckEsp
  0002e	8b e5		 mov	 esp, ebp
  00030	5d		 pop	 ebp
  00031	c3		 ret	 0
??_DIAppExitObserver@@QAEXXZ ENDP			; IAppExitObserver::`vbase destructor'
_TEXT	ENDS
PUBLIC	??1?$map@HPAVBaseDialog@@U?$less@H@std@@V?$allocator@U?$pair@$$CBHPAVBaseDialog@@@std@@@3@@std@@QAE@XZ ; std::map<int,BaseDialog *,std::less<int>,std::allocator<std::pair<int const ,BaseDialog *> > >::~map<int,BaseDialog *,std::less<int>,std::allocator<std::pair<int const ,BaseDialog *> > >
xdata$x	SEGMENT
$T189459 DD	0ffffffffH
	DD	FLAT:$L189449
	DD	00H
	DD	FLAT:$L189452
	DD	01H
	DD	FLAT:$L189453
	DD	02H
	DD	FLAT:$L189454
$T189457 DD	019930520H
	DD	04H
	DD	FLAT:$T189459
	DD	2 DUP(00H)
	DD	2 DUP(00H)
; Function compile flags: /Odt /RTCsu
; File d:\boxgit\playbox\playbox\dev\prj\playbox\src\appconfig\config\dlg\dlgconfig.cpp
xdata$x	ENDS
_TEXT	SEGMENT
tv72 = -20						; size = 4
_this$ = -16						; size = 4
__$EHRec$ = -12						; size = 12
??1CConfigDialog@@UAE@XZ PROC NEAR			; CConfigDialog::~CConfigDialog
; _this$ = ecx

; 22   : {

  00160	55		 push	 ebp
  00161	8b ec		 mov	 ebp, esp
  00163	6a ff		 push	 -1
  00165	68 00 00 00 00	 push	 __ehhandler$??1CConfigDialog@@UAE@XZ
  0016a	64 a1 00 00 00
	00		 mov	 eax, DWORD PTR fs:__except_list
  00170	50		 push	 eax
  00171	64 89 25 00 00
	00 00		 mov	 DWORD PTR fs:__except_list, esp
  00178	83 ec 08	 sub	 esp, 8
  0017b	c7 45 ec cc cc
	cc cc		 mov	 DWORD PTR [ebp-20], -858993460 ; ccccccccH
  00182	c7 45 f0 cc cc
	cc cc		 mov	 DWORD PTR [ebp-16], -858993460 ; ccccccccH
  00189	89 4d f0	 mov	 DWORD PTR _this$[ebp], ecx
  0018c	8b 45 f0	 mov	 eax, DWORD PTR _this$[ebp]
  0018f	c7 00 00 00 00
	00		 mov	 DWORD PTR [eax], OFFSET FLAT:??_7CConfigDialog@@6B@
  00195	8b 4d f0	 mov	 ecx, DWORD PTR _this$[ebp]
  00198	c7 41 74 00 00
	00 00		 mov	 DWORD PTR [ecx+116], OFFSET FLAT:??_7CConfigDialog@@6BIAppExitObserver@@@
  0019f	8b 55 f0	 mov	 edx, DWORD PTR _this$[ebp]
  001a2	8b 42 78	 mov	 eax, DWORD PTR [edx+120]
  001a5	8b 48 04	 mov	 ecx, DWORD PTR [eax+4]
  001a8	8b 55 f0	 mov	 edx, DWORD PTR _this$[ebp]
  001ab	c7 44 0a 78 00
	00 00 00	 mov	 DWORD PTR [edx+ecx+120], OFFSET FLAT:??_7CConfigDialog@@6BIMessageObserver@@@
  001b3	c7 45 fc 03 00
	00 00		 mov	 DWORD PTR __$EHRec$[ebp+8], 3

; 23   : }

  001ba	8b 4d f0	 mov	 ecx, DWORD PTR _this$[ebp]
  001bd	81 c1 d4 04 00
	00		 add	 ecx, 1236		; 000004d4H
  001c3	e8 00 00 00 00	 call	 ??1?$map@HPAVBaseDialog@@U?$less@H@std@@V?$allocator@U?$pair@$$CBHPAVBaseDialog@@@std@@@3@@std@@QAE@XZ
  001c8	c6 45 fc 02	 mov	 BYTE PTR __$EHRec$[ebp+8], 2
  001cc	8b 4d f0	 mov	 ecx, DWORD PTR _this$[ebp]
  001cf	81 c1 84 02 00
	00		 add	 ecx, 644		; 00000284H
  001d5	e8 00 00 00 00	 call	 ??1CSysDialog@@UAE@XZ	; CSysDialog::~CSysDialog
  001da	c6 45 fc 01	 mov	 BYTE PTR __$EHRec$[ebp+8], 1
  001de	8b 4d f0	 mov	 ecx, DWORD PTR _this$[ebp]
  001e1	83 c1 7c	 add	 ecx, 124		; 0000007cH
  001e4	e8 00 00 00 00	 call	 ??1CDownDialog@@UAE@XZ	; CDownDialog::~CDownDialog
  001e9	c6 45 fc 00	 mov	 BYTE PTR __$EHRec$[ebp+8], 0
  001ed	83 7d f0 00	 cmp	 DWORD PTR _this$[ebp], 0
  001f1	74 0b		 je	 SHORT $L189447
  001f3	8b 45 f0	 mov	 eax, DWORD PTR _this$[ebp]
  001f6	83 c0 74	 add	 eax, 116		; 00000074H
  001f9	89 45 ec	 mov	 DWORD PTR tv72[ebp], eax
  001fc	eb 07		 jmp	 SHORT $L189448
$L189447:
  001fe	c7 45 ec 00 00
	00 00		 mov	 DWORD PTR tv72[ebp], 0
$L189448:
  00205	8b 4d ec	 mov	 ecx, DWORD PTR tv72[ebp]
  00208	83 c1 08	 add	 ecx, 8
  0020b	e8 00 00 00 00	 call	 ??1IAppExitObserver@@UAE@XZ
  00210	c7 45 fc ff ff
	ff ff		 mov	 DWORD PTR __$EHRec$[ebp+8], -1
  00217	8b 4d f0	 mov	 ecx, DWORD PTR _this$[ebp]
  0021a	e8 00 00 00 00	 call	 ??1CDialog@@UAE@XZ	; CDialog::~CDialog
  0021f	8b 4d f4	 mov	 ecx, DWORD PTR __$EHRec$[ebp]
  00222	64 89 0d 00 00
	00 00		 mov	 DWORD PTR fs:__except_list, ecx
  00229	83 c4 14	 add	 esp, 20			; 00000014H
  0022c	3b ec		 cmp	 ebp, esp
  0022e	e8 00 00 00 00	 call	 __RTC_CheckEsp
  00233	8b e5		 mov	 esp, ebp
  00235	5d		 pop	 ebp
  00236	c3		 ret	 0
_TEXT	ENDS
text$x	SEGMENT
$L189449:
  00055	8b 4d f0	 mov	 ecx, DWORD PTR _this$[ebp]
  00058	e9 00 00 00 00	 jmp	 ??1CDialog@@UAE@XZ	; CDialog::~CDialog
$L189452:
  0005d	83 7d f0 00	 cmp	 DWORD PTR _this$[ebp], 0
  00061	0f 84 0e 00 00
	00		 je	 $L189450
  00067	8b 45 f0	 mov	 eax, DWORD PTR _this$[ebp]
  0006a	83 c0 74	 add	 eax, 116		; 00000074H
  0006d	89 45 ec	 mov	 DWORD PTR tv72[ebp], eax
  00070	e9 07 00 00 00	 jmp	 $L189451
$L189450:
  00075	c7 45 ec 00 00
	00 00		 mov	 DWORD PTR tv72[ebp], 0
$L189451:
  0007c	8b 4d ec	 mov	 ecx, DWORD PTR tv72[ebp]
  0007f	83 c1 08	 add	 ecx, 8
  00082	e9 00 00 00 00	 jmp	 ??1IAppExitObserver@@UAE@XZ
$L189453:
  00087	8b 4d f0	 mov	 ecx, DWORD PTR _this$[ebp]
  0008a	83 c1 7c	 add	 ecx, 124		; 0000007cH
  0008d	e9 00 00 00 00	 jmp	 ??1CDownDialog@@UAE@XZ	; CDownDialog::~CDownDialog
$L189454:
  00092	8b 4d f0	 mov	 ecx, DWORD PTR _this$[ebp]
  00095	81 c1 84 02 00
	00		 add	 ecx, 644		; 00000284H
  0009b	e9 00 00 00 00	 jmp	 ??1CSysDialog@@UAE@XZ	; CSysDialog::~CSysDialog
__ehhandler$??1CConfigDialog@@UAE@XZ:
  000a0	b8 00 00 00 00	 mov	 eax, OFFSET FLAT:$T189457
  000a5	e9 00 00 00 00	 jmp	 ___CxxFrameHandler
text$x	ENDS
??1CConfigDialog@@UAE@XZ ENDP				; CConfigDialog::~CConfigDialog
PUBLIC	??1?$_Tree@V?$_Tmap_traits@HPAVBaseDialog@@U?$less@H@std@@V?$allocator@U?$pair@$$CBHPAVBaseDialog@@@std@@@3@$0A@@std@@@std@@QAE@XZ ; std::_Tree<std::_Tmap_traits<int,BaseDialog *,std::less<int>,std::allocator<std::pair<int const ,BaseDialog *> >,0> >::~_Tree<std::_Tmap_traits<int,BaseDialog *,std::less<int>,std::allocator<std::pair<int const ,BaseDialog *> >,0> >
; Function compile flags: /Odt /RTCsu
;	COMDAT ??1?$map@HPAVBaseDialog@@U?$less@H@std@@V?$allocator@U?$pair@$$CBHPAVBaseDialog@@@std@@@3@@std@@QAE@XZ
_TEXT	SEGMENT
_this$ = -4						; size = 4
??1?$map@HPAVBaseDialog@@U?$less@H@std@@V?$allocator@U?$pair@$$CBHPAVBaseDialog@@@std@@@3@@std@@QAE@XZ PROC NEAR ; std::map<int,BaseDialog *,std::less<int>,std::allocator<std::pair<int const ,BaseDialog *> > >::~map<int,BaseDialog *,std::less<int>,std::allocator<std::pair<int const ,BaseDialog *> > >, COMDAT
; _this$ = ecx
  00000	55		 push	 ebp
  00001	8b ec		 mov	 ebp, esp
  00003	51		 push	 ecx
  00004	c7 45 fc cc cc
	cc cc		 mov	 DWORD PTR [ebp-4], -858993460 ; ccccccccH
  0000b	89 4d fc	 mov	 DWORD PTR _this$[ebp], ecx
  0000e	8b 4d fc	 mov	 ecx, DWORD PTR _this$[ebp]
  00011	e8 00 00 00 00	 call	 ??1?$_Tree@V?$_Tmap_traits@HPAVBaseDialog@@U?$less@H@std@@V?$allocator@U?$pair@$$CBHPAVBaseDialog@@@std@@@3@$0A@@std@@@std@@QAE@XZ ; std::_Tree<std::_Tmap_traits<int,BaseDialog *,std::less<int>,std::allocator<std::pair<int const ,BaseDialog *> >,0> >::~_Tree<std::_Tmap_traits<int,BaseDialog *,std::less<int>,std::allocator<std::pair<int const ,BaseDialog *> >,0> >
  00016	83 c4 04	 add	 esp, 4
  00019	3b ec		 cmp	 ebp, esp
  0001b	e8 00 00 00 00	 call	 __RTC_CheckEsp
  00020	8b e5		 mov	 esp, ebp
  00022	5d		 pop	 ebp
  00023	c3		 ret	 0
??1?$map@HPAVBaseDialog@@U?$less@H@std@@V?$allocator@U?$pair@$$CBHPAVBaseDialog@@@std@@@3@@std@@QAE@XZ ENDP ; std::map<int,BaseDialog *,std::less<int>,std::allocator<std::pair<int const ,BaseDialog *> > >::~map<int,BaseDialog *,std::less<int>,std::allocator<std::pair<int const ,BaseDialog *> > >
_TEXT	ENDS
PUBLIC	?GetThisMessageMap@CConfigDialog@@KGPBUAFX_MSGMAP@@XZ ; CConfigDialog::GetThisMessageMap
; Function compile flags: /Odt /RTCsu
_TEXT	SEGMENT
?GetThisMessageMap@CConfigDialog@@KGPBUAFX_MSGMAP@@XZ PROC NEAR ; CConfigDialog::GetThisMessageMap

; 25   : BEGIN_MESSAGE_MAP(CConfigDialog,CDialog)

  00240	55		 push	 ebp
  00241	8b ec		 mov	 ebp, esp
  00243	b8 00 00 00 00	 mov	 eax, OFFSET FLAT:?messageMap@CConfigDialog@@1UAFX_MSGMAP@@B ; CConfigDialog::messageMap
  00248	5d		 pop	 ebp
  00249	c3		 ret	 0
?GetThisMessageMap@CConfigDialog@@KGPBUAFX_MSGMAP@@XZ ENDP ; CConfigDialog::GetThisMessageMap
; Function compile flags: /Odt /RTCsu
_this$ = -4						; size = 4
?GetMessageMap@CConfigDialog@@MBEPBUAFX_MSGMAP@@XZ PROC NEAR ; CConfigDialog::GetMessageMap
; _this$ = ecx

; 25   : BEGIN_MESSAGE_MAP(CConfigDialog,CDialog)

  00250	55		 push	 ebp
  00251	8b ec		 mov	 ebp, esp
  00253	51		 push	 ecx
  00254	c7 45 fc cc cc
	cc cc		 mov	 DWORD PTR [ebp-4], -858993460 ; ccccccccH
  0025b	89 4d fc	 mov	 DWORD PTR _this$[ebp], ecx
  0025e	b8 00 00 00 00	 mov	 eax, OFFSET FLAT:?messageMap@CConfigDialog@@1UAFX_MSGMAP@@B ; CConfigDialog::messageMap
  00263	8b e5		 mov	 esp, ebp
  00265	5d		 pop	 ebp
  00266	c3		 ret	 0
?GetMessageMap@CConfigDialog@@MBEPBUAFX_MSGMAP@@XZ ENDP	; CConfigDialog::GetMessageMap
_TEXT	ENDS
EXTRN	?DoDataExchange@CWnd@@MAEXPAVCDataExchange@@@Z:NEAR ; CWnd::DoDataExchange
; Function compile flags: /Odt /RTCsu
_TEXT	SEGMENT
_this$ = -4						; size = 4
_pDX$ = 8						; size = 4
?DoDataExchange@CConfigDialog@@MAEXPAVCDataExchange@@@Z PROC NEAR ; CConfigDialog::DoDataExchange
; _this$ = ecx

; 33   : {

  00270	55		 push	 ebp
  00271	8b ec		 mov	 ebp, esp
  00273	51		 push	 ecx
  00274	c7 45 fc cc cc
	cc cc		 mov	 DWORD PTR [ebp-4], -858993460 ; ccccccccH
  0027b	89 4d fc	 mov	 DWORD PTR _this$[ebp], ecx

; 34   : 	CDialog::DoDataExchange(pDX);

  0027e	8b 45 08	 mov	 eax, DWORD PTR _pDX$[ebp]
  00281	50		 push	 eax
  00282	8b 4d fc	 mov	 ecx, DWORD PTR _this$[ebp]
  00285	e8 00 00 00 00	 call	 ?DoDataExchange@CWnd@@MAEXPAVCDataExchange@@@Z ; CWnd::DoDataExchange

; 35   : }

  0028a	83 c4 04	 add	 esp, 4
  0028d	3b ec		 cmp	 ebp, esp
  0028f	e8 00 00 00 00	 call	 __RTC_CheckEsp
  00294	8b e5		 mov	 esp, ebp
  00296	5d		 pop	 ebp
  00297	c2 04 00	 ret	 4
?DoDataExchange@CConfigDialog@@MAEXPAVCDataExchange@@@Z ENDP ; CConfigDialog::DoDataExchange
_TEXT	ENDS
PUBLIC	?size@?$_Tree@V?$_Tmap_traits@HPAVBaseDialog@@U?$less@H@std@@V?$allocator@U?$pair@$$CBHPAVBaseDialog@@@std@@@3@$0A@@std@@@std@@QBEIXZ ; std::_Tree<std::_Tmap_traits<int,BaseDialog *,std::less<int>,std::allocator<std::pair<int const ,BaseDialog *> >,0> >::size
PUBLIC	??A?$map@HPAVBaseDialog@@U?$less@H@std@@V?$allocator@U?$pair@$$CBHPAVBaseDialog@@@std@@@3@@std@@QAEAAPAVBaseDialog@@ABH@Z ; std::map<int,BaseDialog *,std::less<int>,std::allocator<std::pair<int const ,BaseDialog *> > >::operator[]
EXTRN	@_RTC_CheckStackVars@8:NEAR
EXTRN	__imp__SendMessageA@16:NEAR
EXTRN	?AfxGetMessageManager@@YAPAVIMessageManager@@XZ:NEAR ; AfxGetMessageManager
EXTRN	?AfxGetUIManager@@YAPAVIUIManager@@XZ:NEAR	; AfxGetUIManager
EXTRN	__imp__SetWindowPos@28:NEAR
EXTRN	??0CRect@@QAE@XZ:NEAR				; CRect::CRect
EXTRN	??0CRect@@QAE@HHHH@Z:NEAR			; CRect::CRect
EXTRN	?Height@CRect@@QBEHXZ:NEAR			; CRect::Height
EXTRN	??BCRect@@QAEPAUtagRECT@@XZ:NEAR		; CRect::operator tagRECT *
EXTRN	__imp_??0?$basic_string@DU?$char_traits@D@std@@V?$allocator@D@2@@std@@QAE@PBD@Z:NEAR
EXTRN	__imp_??1?$basic_string@DU?$char_traits@D@std@@V?$allocator@D@2@@std@@QAE@XZ:NEAR
EXTRN	__imp_??4?$basic_string@DU?$char_traits@D@std@@V?$allocator@D@2@@std@@QAEAAV01@PBD@Z:NEAR
EXTRN	?GetDlgItem@CWnd@@QBEPAV1@H@Z:NEAR		; CWnd::GetDlgItem
EXTRN	__imp_?YL_Log@@YAXABV?$basic_string@DU?$char_traits@D@std@@V?$allocator@D@2@@std@@H0PBDZZ:NEAR
EXTRN	?MoveWindow@CWnd@@QAEXPBUtagRECT@@H@Z:NEAR	; CWnd::MoveWindow
EXTRN	?GetWindowRect@CWnd@@QBEXPAUtagRECT@@@Z:NEAR	; CWnd::GetWindowRect
EXTRN	?GetClientRect@CWnd@@QBEXPAUtagRECT@@@Z:NEAR	; CWnd::GetClientRect
EXTRN	?ScreenToClient@CWnd@@QBEXPAUtagPOINT@@@Z:NEAR	; CWnd::ScreenToClient
EXTRN	?ShowWindow@CWnd@@QAEHH@Z:NEAR			; CWnd::ShowWindow
EXTRN	?OnInitDialog@CDialog@@UAEHXZ:NEAR		; CDialog::OnInitDialog
EXTRN	?CenterWindow@CWnd@@QAEXPAV1@@Z:NEAR		; CWnd::CenterWindow
xdata$x	SEGMENT
$T189486 DD	0ffffffffH
	DD	FLAT:$L189472
	DD	00H
	DD	FLAT:$L189473
$T189475 DD	019930520H
	DD	02H
	DD	FLAT:$T189486
	DD	2 DUP(00H)
	DD	2 DUP(00H)
; Function compile flags: /Odt /RTCsu
xdata$x	ENDS
_TEXT	SEGMENT
tv221 = -216						; size = 4
tv230 = -212						; size = 4
tv215 = -208						; size = 4
$T189469 = -204						; size = 28
$T189468 = -176						; size = 28
$T189467 = -148						; size = 4
$T189466 = -144						; size = 4
_rcOne$188138 = -136					; size = 16
_i$188134 = -112					; size = 4
_rc$ = -100						; size = 16
_dlgRc$ = -76						; size = 16
_point$ = -52						; size = 8
_rect$ = -36						; size = 16
_this$ = -16						; size = 4
__$EHRec$ = -12						; size = 12
?OnInitDialog@CConfigDialog@@MAEHXZ PROC NEAR		; CConfigDialog::OnInitDialog
; _this$ = ecx

; 38   : {

  002a0	55		 push	 ebp
  002a1	8b ec		 mov	 ebp, esp
  002a3	6a ff		 push	 -1
  002a5	68 00 00 00 00	 push	 __ehhandler$?OnInitDialog@CConfigDialog@@MAEHXZ
  002aa	64 a1 00 00 00
	00		 mov	 eax, DWORD PTR fs:__except_list
  002b0	50		 push	 eax
  002b1	64 89 25 00 00
	00 00		 mov	 DWORD PTR fs:__except_list, esp
  002b8	81 ec cc 00 00
	00		 sub	 esp, 204		; 000000ccH
  002be	56		 push	 esi
  002bf	57		 push	 edi
  002c0	51		 push	 ecx
  002c1	8d bd 28 ff ff
	ff		 lea	 edi, DWORD PTR [ebp-216]
  002c7	b9 33 00 00 00	 mov	 ecx, 51			; 00000033H
  002cc	b8 cc cc cc cc	 mov	 eax, -858993460		; ccccccccH
  002d1	f3 ab		 rep stosd
  002d3	59		 pop	 ecx
  002d4	89 4d f0	 mov	 DWORD PTR _this$[ebp], ecx

; 39   : 	CDialog::OnInitDialog();

  002d7	8b 4d f0	 mov	 ecx, DWORD PTR _this$[ebp]
  002da	e8 00 00 00 00	 call	 ?OnInitDialog@CDialog@@UAEHXZ ; CDialog::OnInitDialog

; 40   : 	//
; 41   : 	if(g_hLastConfWnd != NULL && g_hLastConfWnd != m_hWnd)

  002df	83 3d 00 00 00
	00 00		 cmp	 DWORD PTR ?g_hLastConfWnd@@3PAUHWND__@@A, 0 ; g_hLastConfWnd
  002e6	74 2d		 je	 SHORT $L188124
  002e8	8b 45 f0	 mov	 eax, DWORD PTR _this$[ebp]
  002eb	8b 0d 00 00 00
	00		 mov	 ecx, DWORD PTR ?g_hLastConfWnd@@3PAUHWND__@@A ; g_hLastConfWnd
  002f1	3b 48 20	 cmp	 ecx, DWORD PTR [eax+32]
  002f4	74 1f		 je	 SHORT $L188124

; 42   : 	{
; 43   : 		::SendMessage(g_hLastConfWnd, WM_COMMAND, IDCANCEL, 0);

  002f6	8b f4		 mov	 esi, esp
  002f8	6a 00		 push	 0
  002fa	6a 02		 push	 2
  002fc	68 11 01 00 00	 push	 273			; 00000111H
  00301	8b 15 00 00 00
	00		 mov	 edx, DWORD PTR ?g_hLastConfWnd@@3PAUHWND__@@A ; g_hLastConfWnd
  00307	52		 push	 edx
  00308	ff 15 00 00 00
	00		 call	 DWORD PTR __imp__SendMessageA@16
  0030e	3b f4		 cmp	 esi, esp
  00310	e8 00 00 00 00	 call	 __RTC_CheckEsp
$L188124:

; 44   : 	}
; 45   : 	g_hLastConfWnd = m_hWnd;

  00315	8b 45 f0	 mov	 eax, DWORD PTR _this$[ebp]
  00318	8b 48 20	 mov	 ecx, DWORD PTR [eax+32]
  0031b	89 0d 00 00 00
	00		 mov	 DWORD PTR ?g_hLastConfWnd@@3PAUHWND__@@A, ecx ; g_hLastConfWnd

; 46   : 
; 47   : 	CenterWindow();

  00321	6a 00		 push	 0
  00323	8b 4d f0	 mov	 ecx, DWORD PTR _this$[ebp]
  00326	e8 00 00 00 00	 call	 ?CenterWindow@CWnd@@QAEXPAV1@@Z ; CWnd::CenterWindow

; 48   : 
; 49   : 	RECT rect;
; 50   : 	GetDlgItem(IDC_STATIC)->GetWindowRect(&rect);

  0032b	8d 55 dc	 lea	 edx, DWORD PTR _rect$[ebp]
  0032e	52		 push	 edx
  0032f	6a ff		 push	 -1
  00331	8b 4d f0	 mov	 ecx, DWORD PTR _this$[ebp]
  00334	e8 00 00 00 00	 call	 ?GetDlgItem@CWnd@@QBEPAV1@H@Z ; CWnd::GetDlgItem
  00339	8b c8		 mov	 ecx, eax
  0033b	e8 00 00 00 00	 call	 ?GetWindowRect@CWnd@@QBEXPAUtagRECT@@@Z ; CWnd::GetWindowRect

; 51   : 	POINT point;
; 52   : 	point.x = rect.left;

  00340	8b 45 dc	 mov	 eax, DWORD PTR _rect$[ebp]
  00343	89 45 cc	 mov	 DWORD PTR _point$[ebp], eax

; 53   : 	point.y = rect.top;

  00346	8b 4d e0	 mov	 ecx, DWORD PTR _rect$[ebp+4]
  00349	89 4d d0	 mov	 DWORD PTR _point$[ebp+4], ecx

; 54   : 	ScreenToClient(&point);

  0034c	8d 55 cc	 lea	 edx, DWORD PTR _point$[ebp]
  0034f	52		 push	 edx
  00350	8b 4d f0	 mov	 ecx, DWORD PTR _this$[ebp]
  00353	e8 00 00 00 00	 call	 ?ScreenToClient@CWnd@@QBEXPAUtagPOINT@@@Z ; CWnd::ScreenToClient

; 55   :     //
; 56   : 	CRect dlgRc = CRect( point.x,point.y,(rect.right - rect.left)+point.x,(rect.bottom-rect.top)+point.y );

  00358	8b 45 e8	 mov	 eax, DWORD PTR _rect$[ebp+12]
  0035b	2b 45 e0	 sub	 eax, DWORD PTR _rect$[ebp+4]
  0035e	03 45 d0	 add	 eax, DWORD PTR _point$[ebp+4]
  00361	50		 push	 eax
  00362	8b 4d e4	 mov	 ecx, DWORD PTR _rect$[ebp+8]
  00365	2b 4d dc	 sub	 ecx, DWORD PTR _rect$[ebp]
  00368	03 4d cc	 add	 ecx, DWORD PTR _point$[ebp]
  0036b	51		 push	 ecx
  0036c	8b 55 d0	 mov	 edx, DWORD PTR _point$[ebp+4]
  0036f	52		 push	 edx
  00370	8b 45 cc	 mov	 eax, DWORD PTR _point$[ebp]
  00373	50		 push	 eax
  00374	8d 4d b4	 lea	 ecx, DWORD PTR _dlgRc$[ebp]
  00377	e8 00 00 00 00	 call	 ??0CRect@@QAE@HHHH@Z	; CRect::CRect

; 57   : 
; 58   : 	m_downDlg.Create( CDownDialog::IDD, this );

  0037c	8b f4		 mov	 esi, esp
  0037e	8b 4d f0	 mov	 ecx, DWORD PTR _this$[ebp]
  00381	51		 push	 ecx
  00382	68 cb 00 00 00	 push	 203			; 000000cbH
  00387	8b 4d f0	 mov	 ecx, DWORD PTR _this$[ebp]
  0038a	83 c1 7c	 add	 ecx, 124		; 0000007cH
  0038d	8b 55 f0	 mov	 edx, DWORD PTR _this$[ebp]
  00390	8b 42 7c	 mov	 eax, DWORD PTR [edx+124]
  00393	ff 90 38 01 00
	00		 call	 DWORD PTR [eax+312]
  00399	3b f4		 cmp	 esi, esp
  0039b	e8 00 00 00 00	 call	 __RTC_CheckEsp

; 59   : 	m_downDlg.m_strAlert = "";

  003a0	8b f4		 mov	 esi, esp
  003a2	68 00 00 00 00	 push	 OFFSET FLAT:$SG188129
  003a7	8b 4d f0	 mov	 ecx, DWORD PTR _this$[ebp]
  003aa	81 c1 f0 00 00
	00		 add	 ecx, 240		; 000000f0H
  003b0	ff 15 00 00 00
	00		 call	 DWORD PTR __imp_??4?$basic_string@DU?$char_traits@D@std@@V?$allocator@D@2@@std@@QAEAAV01@PBD@Z
  003b6	3b f4		 cmp	 esi, esp
  003b8	e8 00 00 00 00	 call	 __RTC_CheckEsp

; 60   : 	
; 61   : 	m_sysDlg.Create( CSysDialog::IDD, this );

  003bd	8b f4		 mov	 esi, esp
  003bf	8b 4d f0	 mov	 ecx, DWORD PTR _this$[ebp]
  003c2	51		 push	 ecx
  003c3	68 cc 00 00 00	 push	 204			; 000000ccH
  003c8	8b 4d f0	 mov	 ecx, DWORD PTR _this$[ebp]
  003cb	81 c1 84 02 00
	00		 add	 ecx, 644		; 00000284H
  003d1	8b 55 f0	 mov	 edx, DWORD PTR _this$[ebp]
  003d4	8b 82 84 02 00
	00		 mov	 eax, DWORD PTR [edx+644]
  003da	ff 90 38 01 00
	00		 call	 DWORD PTR [eax+312]
  003e0	3b f4		 cmp	 esi, esp
  003e2	e8 00 00 00 00	 call	 __RTC_CheckEsp

; 62   : 	m_sysDlg.m_strAlert = "";

  003e7	8b f4		 mov	 esi, esp
  003e9	68 00 00 00 00	 push	 OFFSET FLAT:$SG188130
  003ee	8b 4d f0	 mov	 ecx, DWORD PTR _this$[ebp]
  003f1	81 c1 f8 02 00
	00		 add	 ecx, 760		; 000002f8H
  003f7	ff 15 00 00 00
	00		 call	 DWORD PTR __imp_??4?$basic_string@DU?$char_traits@D@std@@V?$allocator@D@2@@std@@QAEAAV01@PBD@Z
  003fd	3b f4		 cmp	 esi, esp
  003ff	e8 00 00 00 00	 call	 __RTC_CheckEsp

; 63   : 
; 64   : 	m_mapBase[CONF_IDX_DOWN]  = &m_downDlg;

  00404	c7 85 70 ff ff
	ff 00 00 00 00	 mov	 DWORD PTR $T189466[ebp], 0
  0040e	8b 75 f0	 mov	 esi, DWORD PTR _this$[ebp]
  00411	83 c6 7c	 add	 esi, 124		; 0000007cH
  00414	8d 8d 70 ff ff
	ff		 lea	 ecx, DWORD PTR $T189466[ebp]
  0041a	51		 push	 ecx
  0041b	8b 4d f0	 mov	 ecx, DWORD PTR _this$[ebp]
  0041e	81 c1 d4 04 00
	00		 add	 ecx, 1236		; 000004d4H
  00424	e8 00 00 00 00	 call	 ??A?$map@HPAVBaseDialog@@U?$less@H@std@@V?$allocator@U?$pair@$$CBHPAVBaseDialog@@@std@@@3@@std@@QAEAAPAVBaseDialog@@ABH@Z ; std::map<int,BaseDialog *,std::less<int>,std::allocator<std::pair<int const ,BaseDialog *> > >::operator[]
  00429	89 30		 mov	 DWORD PTR [eax], esi

; 65   : 	m_mapBase[CONF_IDX_SYS]   = &m_sysDlg;

  0042b	c7 85 6c ff ff
	ff 01 00 00 00	 mov	 DWORD PTR $T189467[ebp], 1
  00435	8b 75 f0	 mov	 esi, DWORD PTR _this$[ebp]
  00438	81 c6 84 02 00
	00		 add	 esi, 644		; 00000284H
  0043e	8d 95 6c ff ff
	ff		 lea	 edx, DWORD PTR $T189467[ebp]
  00444	52		 push	 edx
  00445	8b 4d f0	 mov	 ecx, DWORD PTR _this$[ebp]
  00448	81 c1 d4 04 00
	00		 add	 ecx, 1236		; 000004d4H
  0044e	e8 00 00 00 00	 call	 ??A?$map@HPAVBaseDialog@@U?$less@H@std@@V?$allocator@U?$pair@$$CBHPAVBaseDialog@@@std@@@3@@std@@QAEAAPAVBaseDialog@@ABH@Z ; std::map<int,BaseDialog *,std::less<int>,std::allocator<std::pair<int const ,BaseDialog *> > >::operator[]
  00453	89 30		 mov	 DWORD PTR [eax], esi

; 66   : 
; 67   : 	//wnd
; 68   : 	CRect rc(dlgRc);

  00455	8b 45 b4	 mov	 eax, DWORD PTR _dlgRc$[ebp]
  00458	89 45 9c	 mov	 DWORD PTR _rc$[ebp], eax
  0045b	8b 4d b8	 mov	 ecx, DWORD PTR _dlgRc$[ebp+4]
  0045e	89 4d a0	 mov	 DWORD PTR _rc$[ebp+4], ecx
  00461	8b 55 bc	 mov	 edx, DWORD PTR _dlgRc$[ebp+8]
  00464	89 55 a4	 mov	 DWORD PTR _rc$[ebp+8], edx
  00467	8b 45 c0	 mov	 eax, DWORD PTR _dlgRc$[ebp+12]
  0046a	89 45 a8	 mov	 DWORD PTR _rc$[ebp+12], eax

; 69   : 	for( int i=0; i<m_mapBase.size(); i++ )

  0046d	c7 45 90 00 00
	00 00		 mov	 DWORD PTR _i$188134[ebp], 0
  00474	eb 09		 jmp	 SHORT $L188135
$L188136:
  00476	8b 4d 90	 mov	 ecx, DWORD PTR _i$188134[ebp]
  00479	83 c1 01	 add	 ecx, 1
  0047c	89 4d 90	 mov	 DWORD PTR _i$188134[ebp], ecx
$L188135:
  0047f	8b 4d f0	 mov	 ecx, DWORD PTR _this$[ebp]
  00482	81 c1 d4 04 00
	00		 add	 ecx, 1236		; 000004d4H
  00488	e8 00 00 00 00	 call	 ?size@?$_Tree@V?$_Tmap_traits@HPAVBaseDialog@@U?$less@H@std@@V?$allocator@U?$pair@$$CBHPAVBaseDialog@@@std@@@3@$0A@@std@@@std@@QBEIXZ ; std::_Tree<std::_Tmap_traits<int,BaseDialog *,std::less<int>,std::allocator<std::pair<int const ,BaseDialog *> >,0> >::size
  0048d	39 45 90	 cmp	 DWORD PTR _i$188134[ebp], eax
  00490	0f 83 86 00 00
	00		 jae	 $L188137

; 70   : 	{
; 71   : 		CRect rcOne;

  00496	8d 8d 78 ff ff
	ff		 lea	 ecx, DWORD PTR _rcOne$188138[ebp]
  0049c	e8 00 00 00 00	 call	 ??0CRect@@QAE@XZ	; CRect::CRect

; 72   : 		m_mapBase[i]->GetClientRect(&rcOne);

  004a1	8d 95 78 ff ff
	ff		 lea	 edx, DWORD PTR _rcOne$188138[ebp]
  004a7	52		 push	 edx
  004a8	8d 45 90	 lea	 eax, DWORD PTR _i$188134[ebp]
  004ab	50		 push	 eax
  004ac	8b 4d f0	 mov	 ecx, DWORD PTR _this$[ebp]
  004af	81 c1 d4 04 00
	00		 add	 ecx, 1236		; 000004d4H
  004b5	e8 00 00 00 00	 call	 ??A?$map@HPAVBaseDialog@@U?$less@H@std@@V?$allocator@U?$pair@$$CBHPAVBaseDialog@@@std@@@3@@std@@QAEAAPAVBaseDialog@@ABH@Z ; std::map<int,BaseDialog *,std::less<int>,std::allocator<std::pair<int const ,BaseDialog *> > >::operator[]
  004ba	8b 08		 mov	 ecx, DWORD PTR [eax]
  004bc	e8 00 00 00 00	 call	 ?GetClientRect@CWnd@@QBEXPAUtagRECT@@@Z ; CWnd::GetClientRect

; 73   : 
; 74   : 		rc.bottom = rc.top + rcOne.Height();

  004c1	8d 8d 78 ff ff
	ff		 lea	 ecx, DWORD PTR _rcOne$188138[ebp]
  004c7	e8 00 00 00 00	 call	 ?Height@CRect@@QBEHXZ	; CRect::Height
  004cc	03 45 a0	 add	 eax, DWORD PTR _rc$[ebp+4]
  004cf	89 45 a8	 mov	 DWORD PTR _rc$[ebp+12], eax

; 75   : 		m_mapBase[i]->MoveWindow( rc );

  004d2	6a 01		 push	 1
  004d4	8d 4d 9c	 lea	 ecx, DWORD PTR _rc$[ebp]
  004d7	e8 00 00 00 00	 call	 ??BCRect@@QAEPAUtagRECT@@XZ ; CRect::operator tagRECT *
  004dc	50		 push	 eax
  004dd	8d 4d 90	 lea	 ecx, DWORD PTR _i$188134[ebp]
  004e0	51		 push	 ecx
  004e1	8b 4d f0	 mov	 ecx, DWORD PTR _this$[ebp]
  004e4	81 c1 d4 04 00
	00		 add	 ecx, 1236		; 000004d4H
  004ea	e8 00 00 00 00	 call	 ??A?$map@HPAVBaseDialog@@U?$less@H@std@@V?$allocator@U?$pair@$$CBHPAVBaseDialog@@@std@@@3@@std@@QAEAAPAVBaseDialog@@ABH@Z ; std::map<int,BaseDialog *,std::less<int>,std::allocator<std::pair<int const ,BaseDialog *> > >::operator[]
  004ef	8b 08		 mov	 ecx, DWORD PTR [eax]
  004f1	e8 00 00 00 00	 call	 ?MoveWindow@CWnd@@QAEXPBUtagRECT@@H@Z ; CWnd::MoveWindow

; 76   : 		m_mapBase[i]->ShowWindow(SW_SHOW);

  004f6	6a 05		 push	 5
  004f8	8d 55 90	 lea	 edx, DWORD PTR _i$188134[ebp]
  004fb	52		 push	 edx
  004fc	8b 4d f0	 mov	 ecx, DWORD PTR _this$[ebp]
  004ff	81 c1 d4 04 00
	00		 add	 ecx, 1236		; 000004d4H
  00505	e8 00 00 00 00	 call	 ??A?$map@HPAVBaseDialog@@U?$less@H@std@@V?$allocator@U?$pair@$$CBHPAVBaseDialog@@@std@@@3@@std@@QAEAAPAVBaseDialog@@ABH@Z ; std::map<int,BaseDialog *,std::less<int>,std::allocator<std::pair<int const ,BaseDialog *> > >::operator[]
  0050a	8b 08		 mov	 ecx, DWORD PTR [eax]
  0050c	e8 00 00 00 00	 call	 ?ShowWindow@CWnd@@QAEHH@Z ; CWnd::ShowWindow

; 77   : 
; 78   : 		rc.top = rc.bottom;

  00511	8b 45 a8	 mov	 eax, DWORD PTR _rc$[ebp+12]
  00514	89 45 a0	 mov	 DWORD PTR _rc$[ebp+4], eax

; 79   : 	}

  00517	e9 5a ff ff ff	 jmp	 $L188136
$L188137:

; 80   : 
; 81   : 	if( m_bFullScreen )

  0051c	8b 4d f0	 mov	 ecx, DWORD PTR _this$[ebp]
  0051f	83 b9 e0 04 00
	00 00		 cmp	 DWORD PTR [ecx+1248], 0
  00526	74 22		 je	 SHORT $L188139

; 82   : 	{
; 83   : 		::SetWindowPos(m_hWnd,HWND_TOPMOST,0,0,0,0,SWP_NOSIZE|SWP_NOMOVE);

  00528	8b f4		 mov	 esi, esp
  0052a	6a 03		 push	 3
  0052c	6a 00		 push	 0
  0052e	6a 00		 push	 0
  00530	6a 00		 push	 0
  00532	6a 00		 push	 0
  00534	6a ff		 push	 -1
  00536	8b 55 f0	 mov	 edx, DWORD PTR _this$[ebp]
  00539	8b 42 20	 mov	 eax, DWORD PTR [edx+32]
  0053c	50		 push	 eax
  0053d	ff 15 00 00 00
	00		 call	 DWORD PTR __imp__SetWindowPos@28
  00543	3b f4		 cmp	 esi, esp
  00545	e8 00 00 00 00	 call	 __RTC_CheckEsp
$L188139:

; 84   : 	}
; 85   : 
; 86   : 	YL_Log("AddDlg.txt",LOG_DEBUG,"add","ConfigDlg");

  0054a	8b f4		 mov	 esi, esp
  0054c	68 00 00 00 00	 push	 OFFSET FLAT:$SG188144
  00551	8d 8d 50 ff ff
	ff		 lea	 ecx, DWORD PTR $T189468[ebp]
  00557	ff 15 00 00 00
	00		 call	 DWORD PTR __imp_??0?$basic_string@DU?$char_traits@D@std@@V?$allocator@D@2@@std@@QAE@PBD@Z
  0055d	3b f4		 cmp	 esi, esp
  0055f	e8 00 00 00 00	 call	 __RTC_CheckEsp
  00564	c7 45 fc 00 00
	00 00		 mov	 DWORD PTR __$EHRec$[ebp+8], 0
  0056b	8b f4		 mov	 esi, esp
  0056d	68 00 00 00 00	 push	 OFFSET FLAT:$SG188145
  00572	8d 8d 34 ff ff
	ff		 lea	 ecx, DWORD PTR $T189469[ebp]
  00578	ff 15 00 00 00
	00		 call	 DWORD PTR __imp_??0?$basic_string@DU?$char_traits@D@std@@V?$allocator@D@2@@std@@QAE@PBD@Z
  0057e	3b f4		 cmp	 esi, esp
  00580	e8 00 00 00 00	 call	 __RTC_CheckEsp
  00585	c6 45 fc 01	 mov	 BYTE PTR __$EHRec$[ebp+8], 1
  00589	8b f4		 mov	 esi, esp
  0058b	68 00 00 00 00	 push	 OFFSET FLAT:$SG188143
  00590	8d 8d 50 ff ff
	ff		 lea	 ecx, DWORD PTR $T189468[ebp]
  00596	51		 push	 ecx
  00597	6a 00		 push	 0
  00599	8d 95 34 ff ff
	ff		 lea	 edx, DWORD PTR $T189469[ebp]
  0059f	52		 push	 edx
  005a0	ff 15 00 00 00
	00		 call	 DWORD PTR __imp_?YL_Log@@YAXABV?$basic_string@DU?$char_traits@D@std@@V?$allocator@D@2@@std@@H0PBDZZ
  005a6	83 c4 10	 add	 esp, 16			; 00000010H
  005a9	3b f4		 cmp	 esi, esp
  005ab	e8 00 00 00 00	 call	 __RTC_CheckEsp
  005b0	c6 45 fc 00	 mov	 BYTE PTR __$EHRec$[ebp+8], 0
  005b4	8b f4		 mov	 esi, esp
  005b6	8d 8d 34 ff ff
	ff		 lea	 ecx, DWORD PTR $T189469[ebp]
  005bc	ff 15 00 00 00
	00		 call	 DWORD PTR __imp_??1?$basic_string@DU?$char_traits@D@std@@V?$allocator@D@2@@std@@QAE@XZ
  005c2	3b f4		 cmp	 esi, esp
  005c4	e8 00 00 00 00	 call	 __RTC_CheckEsp
  005c9	c7 45 fc ff ff
	ff ff		 mov	 DWORD PTR __$EHRec$[ebp+8], -1
  005d0	8b f4		 mov	 esi, esp
  005d2	8d 8d 50 ff ff
	ff		 lea	 ecx, DWORD PTR $T189468[ebp]
  005d8	ff 15 00 00 00
	00		 call	 DWORD PTR __imp_??1?$basic_string@DU?$char_traits@D@std@@V?$allocator@D@2@@std@@QAE@XZ
  005de	3b f4		 cmp	 esi, esp
  005e0	e8 00 00 00 00	 call	 __RTC_CheckEsp

; 87   : 	AfxGetUIManager()->UIAddDialog(this);

  005e5	e8 00 00 00 00	 call	 ?AfxGetUIManager@@YAPAVIUIManager@@XZ ; AfxGetUIManager
  005ea	89 85 30 ff ff
	ff		 mov	 DWORD PTR tv215[ebp], eax
  005f0	8b f4		 mov	 esi, esp
  005f2	8b 45 f0	 mov	 eax, DWORD PTR _this$[ebp]
  005f5	50		 push	 eax
  005f6	8b 8d 30 ff ff
	ff		 mov	 ecx, DWORD PTR tv215[ebp]
  005fc	8b 11		 mov	 edx, DWORD PTR [ecx]
  005fe	8b 8d 30 ff ff
	ff		 mov	 ecx, DWORD PTR tv215[ebp]
  00604	ff 52 14	 call	 DWORD PTR [edx+20]
  00607	3b f4		 cmp	 esi, esp
  00609	e8 00 00 00 00	 call	 __RTC_CheckEsp

; 88   : 	AfxGetMessageManager()->AttachMessage( ID_MESSAGE_APPEXIT,this );

  0060e	83 7d f0 00	 cmp	 DWORD PTR _this$[ebp], 0
  00612	75 0c		 jne	 SHORT $L189470
  00614	c7 85 2c ff ff
	ff 00 00 00 00	 mov	 DWORD PTR tv230[ebp], 0
  0061e	eb 16		 jmp	 SHORT $L189471
$L189470:
  00620	8b 45 f0	 mov	 eax, DWORD PTR _this$[ebp]
  00623	8b 48 78	 mov	 ecx, DWORD PTR [eax+120]
  00626	8b 51 04	 mov	 edx, DWORD PTR [ecx+4]
  00629	8b 45 f0	 mov	 eax, DWORD PTR _this$[ebp]
  0062c	8d 4c 10 78	 lea	 ecx, DWORD PTR [eax+edx+120]
  00630	89 8d 2c ff ff
	ff		 mov	 DWORD PTR tv230[ebp], ecx
$L189471:
  00636	e8 00 00 00 00	 call	 ?AfxGetMessageManager@@YAPAVIMessageManager@@XZ ; AfxGetMessageManager
  0063b	89 85 28 ff ff
	ff		 mov	 DWORD PTR tv221[ebp], eax
  00641	8b f4		 mov	 esi, esp
  00643	6a 02		 push	 2
  00645	8b 95 2c ff ff
	ff		 mov	 edx, DWORD PTR tv230[ebp]
  0064b	52		 push	 edx
  0064c	68 00 00 00 00	 push	 OFFSET FLAT:_ID_MESSAGE_APPEXIT
  00651	8b 85 28 ff ff
	ff		 mov	 eax, DWORD PTR tv221[ebp]
  00657	8b 10		 mov	 edx, DWORD PTR [eax]
  00659	8b 8d 28 ff ff
	ff		 mov	 ecx, DWORD PTR tv221[ebp]
  0065f	ff 52 04	 call	 DWORD PTR [edx+4]
  00662	3b f4		 cmp	 esi, esp
  00664	e8 00 00 00 00	 call	 __RTC_CheckEsp

; 89   : 	return TRUE; 

  00669	b8 01 00 00 00	 mov	 eax, 1

; 90   : }

  0066e	52		 push	 edx
  0066f	8b cd		 mov	 ecx, ebp
  00671	50		 push	 eax
  00672	8d 15 00 00 00
	00		 lea	 edx, DWORD PTR $L189484
  00678	e8 00 00 00 00	 call	 @_RTC_CheckStackVars@8
  0067d	58		 pop	 eax
  0067e	5a		 pop	 edx
  0067f	8b 4d f4	 mov	 ecx, DWORD PTR __$EHRec$[ebp]
  00682	64 89 0d 00 00
	00 00		 mov	 DWORD PTR fs:__except_list, ecx
  00689	5f		 pop	 edi
  0068a	5e		 pop	 esi
  0068b	81 c4 d8 00 00
	00		 add	 esp, 216		; 000000d8H
  00691	3b ec		 cmp	 ebp, esp
  00693	e8 00 00 00 00	 call	 __RTC_CheckEsp
  00698	8b e5		 mov	 esp, ebp
  0069a	5d		 pop	 ebp
  0069b	c3		 ret	 0
$L189484:
  0069c	06 00 00 00	 DD	 6
  006a0	00 00 00 00	 DD	 $L189483
$L189483:
  006a4	dc ff ff ff	 DD	 -36			; ffffffdcH
  006a8	10 00 00 00	 DD	 16			; 00000010H
  006ac	00 00 00 00	 DD	 $L189476
  006b0	cc ff ff ff	 DD	 -52			; ffffffccH
  006b4	08 00 00 00	 DD	 8
  006b8	00 00 00 00	 DD	 $L189477
  006bc	b4 ff ff ff	 DD	 -76			; ffffffb4H
  006c0	10 00 00 00	 DD	 16			; 00000010H
  006c4	00 00 00 00	 DD	 $L189478
  006c8	9c ff ff ff	 DD	 -100			; ffffff9cH
  006cc	10 00 00 00	 DD	 16			; 00000010H
  006d0	00 00 00 00	 DD	 $L189479
  006d4	90 ff ff ff	 DD	 -112			; ffffff90H
  006d8	04 00 00 00	 DD	 4
  006dc	00 00 00 00	 DD	 $L189480
  006e0	78 ff ff ff	 DD	 -136			; ffffff78H
  006e4	10 00 00 00	 DD	 16			; 00000010H
  006e8	00 00 00 00	 DD	 $L189481
$L189481:
  006ec	72		 DB	 114			; 00000072H
  006ed	63		 DB	 99			; 00000063H
  006ee	4f		 DB	 79			; 0000004fH
  006ef	6e		 DB	 110			; 0000006eH
  006f0	65		 DB	 101			; 00000065H
  006f1	00		 DB	 0
$L189480:
  006f2	69		 DB	 105			; 00000069H
  006f3	00		 DB	 0
$L189479:
  006f4	72		 DB	 114			; 00000072H
  006f5	63		 DB	 99			; 00000063H
  006f6	00		 DB	 0
$L189478:
  006f7	64		 DB	 100			; 00000064H
  006f8	6c		 DB	 108			; 0000006cH
  006f9	67		 DB	 103			; 00000067H
  006fa	52		 DB	 82			; 00000052H
  006fb	63		 DB	 99			; 00000063H
  006fc	00		 DB	 0
$L189477:
  006fd	70		 DB	 112			; 00000070H
  006fe	6f		 DB	 111			; 0000006fH
  006ff	69		 DB	 105			; 00000069H
  00700	6e		 DB	 110			; 0000006eH
  00701	74		 DB	 116			; 00000074H
  00702	00		 DB	 0
$L189476:
  00703	72		 DB	 114			; 00000072H
  00704	65		 DB	 101			; 00000065H
  00705	63		 DB	 99			; 00000063H
  00706	74		 DB	 116			; 00000074H
  00707	00		 DB	 0
_TEXT	ENDS
text$x	SEGMENT
$L189472:
  000aa	8b f4		 mov	 esi, esp
  000ac	8d 8d 50 ff ff
	ff		 lea	 ecx, DWORD PTR $T189468[ebp]
  000b2	ff 15 00 00 00
	00		 call	 DWORD PTR __imp_??1?$basic_string@DU?$char_traits@D@std@@V?$allocator@D@2@@std@@QAE@XZ
  000b8	3b f4		 cmp	 esi, esp
  000ba	e9 00 00 00 00	 jmp	 __RTC_CheckEsp
$L189473:
  000bf	8b f4		 mov	 esi, esp
  000c1	8d 8d 34 ff ff
	ff		 lea	 ecx, DWORD PTR $T189469[ebp]
  000c7	ff 15 00 00 00
	00		 call	 DWORD PTR __imp_??1?$basic_string@DU?$char_traits@D@std@@V?$allocator@D@2@@std@@QAE@XZ
  000cd	3b f4		 cmp	 esi, esp
  000cf	e9 00 00 00 00	 jmp	 __RTC_CheckEsp
__ehhandler$?OnInitDialog@CConfigDialog@@MAEHXZ:
  000d4	b8 00 00 00 00	 mov	 eax, OFFSET FLAT:$T189475
  000d9	e9 00 00 00 00	 jmp	 ___CxxFrameHandler
text$x	ENDS
?OnInitDialog@CConfigDialog@@MAEHXZ ENDP		; CConfigDialog::OnInitDialog
PUBLIC	?OnClickedOK@CConfigDialog@@IAEXXZ		; CConfigDialog::OnClickedOK
PUBLIC	?IsAllInputOK@CConfigDialog@@IAE_NXZ		; CConfigDialog::IsAllInputOK
xdata$x	SEGMENT
$T189501 DD	0ffffffffH
	DD	FLAT:$L189492
	DD	00H
	DD	FLAT:$L189493
$T189495 DD	019930520H
	DD	02H
	DD	FLAT:$T189501
	DD	2 DUP(00H)
	DD	2 DUP(00H)
; Function compile flags: /Odt /RTCsu
xdata$x	ENDS
_TEXT	SEGMENT
tv151 = -116						; size = 4
tv159 = -112						; size = 4
tv145 = -108						; size = 4
tv128 = -104						; size = 4
tv80 = -100						; size = 4
$T189489 = -96						; size = 28
$T189488 = -68						; size = 28
_i$188154 = -36						; size = 4
_i$188150 = -24						; size = 4
_this$ = -16						; size = 4
__$EHRec$ = -12						; size = 12
?OnClickedOK@CConfigDialog@@IAEXXZ PROC NEAR		; CConfigDialog::OnClickedOK
; _this$ = ecx

; 93   : {

  00710	55		 push	 ebp
  00711	8b ec		 mov	 ebp, esp
  00713	6a ff		 push	 -1
  00715	68 00 00 00 00	 push	 __ehhandler$?OnClickedOK@CConfigDialog@@IAEXXZ
  0071a	64 a1 00 00 00
	00		 mov	 eax, DWORD PTR fs:__except_list
  00720	50		 push	 eax
  00721	64 89 25 00 00
	00 00		 mov	 DWORD PTR fs:__except_list, esp
  00728	83 ec 68	 sub	 esp, 104		; 00000068H
  0072b	56		 push	 esi
  0072c	57		 push	 edi
  0072d	51		 push	 ecx
  0072e	8d 7d 8c	 lea	 edi, DWORD PTR [ebp-116]
  00731	b9 1a 00 00 00	 mov	 ecx, 26			; 0000001aH
  00736	b8 cc cc cc cc	 mov	 eax, -858993460		; ccccccccH
  0073b	f3 ab		 rep stosd
  0073d	59		 pop	 ecx
  0073e	89 4d f0	 mov	 DWORD PTR _this$[ebp], ecx

; 94   : 	//
; 95   : 	if( !IsAllInputOK() )

  00741	8b 4d f0	 mov	 ecx, DWORD PTR _this$[ebp]
  00744	e8 00 00 00 00	 call	 ?IsAllInputOK@CConfigDialog@@IAE_NXZ ; CConfigDialog::IsAllInputOK
  00749	0f b6 c0	 movzx	 eax, al
  0074c	85 c0		 test	 eax, eax
  0074e	75 05		 jne	 SHORT $L188149

; 96   : 		return;

  00750	e9 ba 01 00 00	 jmp	 $L188148
$L188149:

; 97   : 	//
; 98   : 	for( int i=0; i<m_mapBase.size(); i++ )

  00755	c7 45 e8 00 00
	00 00		 mov	 DWORD PTR _i$188150[ebp], 0
  0075c	eb 09		 jmp	 SHORT $L188151
$L188152:
  0075e	8b 4d e8	 mov	 ecx, DWORD PTR _i$188150[ebp]
  00761	83 c1 01	 add	 ecx, 1
  00764	89 4d e8	 mov	 DWORD PTR _i$188150[ebp], ecx
$L188151:
  00767	8b 4d f0	 mov	 ecx, DWORD PTR _this$[ebp]
  0076a	81 c1 d4 04 00
	00		 add	 ecx, 1236		; 000004d4H
  00770	e8 00 00 00 00	 call	 ?size@?$_Tree@V?$_Tmap_traits@HPAVBaseDialog@@U?$less@H@std@@V?$allocator@U?$pair@$$CBHPAVBaseDialog@@@std@@@3@$0A@@std@@@std@@QBEIXZ ; std::_Tree<std::_Tmap_traits<int,BaseDialog *,std::less<int>,std::allocator<std::pair<int const ,BaseDialog *> >,0> >::size
  00775	39 45 e8	 cmp	 DWORD PTR _i$188150[ebp], eax
  00778	73 32		 jae	 SHORT $L188153

; 99   : 	{
; 100  : 		m_mapBase[i]->SaveConf();

  0077a	8d 55 e8	 lea	 edx, DWORD PTR _i$188150[ebp]
  0077d	52		 push	 edx
  0077e	8b 4d f0	 mov	 ecx, DWORD PTR _this$[ebp]
  00781	81 c1 d4 04 00
	00		 add	 ecx, 1236		; 000004d4H
  00787	e8 00 00 00 00	 call	 ??A?$map@HPAVBaseDialog@@U?$less@H@std@@V?$allocator@U?$pair@$$CBHPAVBaseDialog@@@std@@@3@@std@@QAEAAPAVBaseDialog@@ABH@Z ; std::map<int,BaseDialog *,std::less<int>,std::allocator<std::pair<int const ,BaseDialog *> > >::operator[]
  0078c	8b 00		 mov	 eax, DWORD PTR [eax]
  0078e	89 45 9c	 mov	 DWORD PTR tv80[ebp], eax
  00791	8b f4		 mov	 esi, esp
  00793	6a 01		 push	 1
  00795	8b 4d 9c	 mov	 ecx, DWORD PTR tv80[ebp]
  00798	8b 11		 mov	 edx, DWORD PTR [ecx]
  0079a	8b 4d 9c	 mov	 ecx, DWORD PTR tv80[ebp]
  0079d	ff 92 6c 01 00
	00		 call	 DWORD PTR [edx+364]
  007a3	3b f4		 cmp	 esi, esp
  007a5	e8 00 00 00 00	 call	 __RTC_CheckEsp

; 101  : 	}

  007aa	eb b2		 jmp	 SHORT $L188152
$L188153:

; 102  : 	//
; 103  : 	for( int i=0; i<m_mapBase.size(); i++ )

  007ac	c7 45 dc 00 00
	00 00		 mov	 DWORD PTR _i$188154[ebp], 0
  007b3	eb 09		 jmp	 SHORT $L188155
$L188156:
  007b5	8b 45 dc	 mov	 eax, DWORD PTR _i$188154[ebp]
  007b8	83 c0 01	 add	 eax, 1
  007bb	89 45 dc	 mov	 DWORD PTR _i$188154[ebp], eax
$L188155:
  007be	8b 4d f0	 mov	 ecx, DWORD PTR _this$[ebp]
  007c1	81 c1 d4 04 00
	00		 add	 ecx, 1236		; 000004d4H
  007c7	e8 00 00 00 00	 call	 ?size@?$_Tree@V?$_Tmap_traits@HPAVBaseDialog@@U?$less@H@std@@V?$allocator@U?$pair@$$CBHPAVBaseDialog@@@std@@@3@$0A@@std@@@std@@QBEIXZ ; std::_Tree<std::_Tmap_traits<int,BaseDialog *,std::less<int>,std::allocator<std::pair<int const ,BaseDialog *> >,0> >::size
  007cc	39 45 dc	 cmp	 DWORD PTR _i$188154[ebp], eax
  007cf	73 2d		 jae	 SHORT $L188157

; 104  : 	{
; 105  : 		m_mapBase[i]->DestroyWindow();

  007d1	8d 4d dc	 lea	 ecx, DWORD PTR _i$188154[ebp]
  007d4	51		 push	 ecx
  007d5	8b 4d f0	 mov	 ecx, DWORD PTR _this$[ebp]
  007d8	81 c1 d4 04 00
	00		 add	 ecx, 1236		; 000004d4H
  007de	e8 00 00 00 00	 call	 ??A?$map@HPAVBaseDialog@@U?$less@H@std@@V?$allocator@U?$pair@$$CBHPAVBaseDialog@@@std@@@3@@std@@QAEAAPAVBaseDialog@@ABH@Z ; std::map<int,BaseDialog *,std::less<int>,std::allocator<std::pair<int const ,BaseDialog *> > >::operator[]
  007e3	8b 10		 mov	 edx, DWORD PTR [eax]
  007e5	89 55 98	 mov	 DWORD PTR tv128[ebp], edx
  007e8	8b 45 98	 mov	 eax, DWORD PTR tv128[ebp]
  007eb	8b 10		 mov	 edx, DWORD PTR [eax]
  007ed	8b f4		 mov	 esi, esp
  007ef	8b 4d 98	 mov	 ecx, DWORD PTR tv128[ebp]
  007f2	ff 52 68	 call	 DWORD PTR [edx+104]
  007f5	3b f4		 cmp	 esi, esp
  007f7	e8 00 00 00 00	 call	 __RTC_CheckEsp

; 106  : 	}

  007fc	eb b7		 jmp	 SHORT $L188156
$L188157:

; 107  : 	g_hLastConfWnd = NULL;

  007fe	c7 05 00 00 00
	00 00 00 00 00	 mov	 DWORD PTR ?g_hLastConfWnd@@3PAUHWND__@@A, 0 ; g_hLastConfWnd

; 108  : 
; 109  : 	YL_Log("AddDlg.txt",LOG_DEBUG,"remove","ConfigDlg");

  00808	8b f4		 mov	 esi, esp
  0080a	68 00 00 00 00	 push	 OFFSET FLAT:$SG188161
  0080f	8d 4d bc	 lea	 ecx, DWORD PTR $T189488[ebp]
  00812	ff 15 00 00 00
	00		 call	 DWORD PTR __imp_??0?$basic_string@DU?$char_traits@D@std@@V?$allocator@D@2@@std@@QAE@PBD@Z
  00818	3b f4		 cmp	 esi, esp
  0081a	e8 00 00 00 00	 call	 __RTC_CheckEsp
  0081f	c7 45 fc 00 00
	00 00		 mov	 DWORD PTR __$EHRec$[ebp+8], 0
  00826	8b f4		 mov	 esi, esp
  00828	68 00 00 00 00	 push	 OFFSET FLAT:$SG188162
  0082d	8d 4d a0	 lea	 ecx, DWORD PTR $T189489[ebp]
  00830	ff 15 00 00 00
	00		 call	 DWORD PTR __imp_??0?$basic_string@DU?$char_traits@D@std@@V?$allocator@D@2@@std@@QAE@PBD@Z
  00836	3b f4		 cmp	 esi, esp
  00838	e8 00 00 00 00	 call	 __RTC_CheckEsp
  0083d	c6 45 fc 01	 mov	 BYTE PTR __$EHRec$[ebp+8], 1
  00841	8b f4		 mov	 esi, esp
  00843	68 00 00 00 00	 push	 OFFSET FLAT:$SG188160
  00848	8d 45 bc	 lea	 eax, DWORD PTR $T189488[ebp]
  0084b	50		 push	 eax
  0084c	6a 00		 push	 0
  0084e	8d 4d a0	 lea	 ecx, DWORD PTR $T189489[ebp]
  00851	51		 push	 ecx
  00852	ff 15 00 00 00
	00		 call	 DWORD PTR __imp_?YL_Log@@YAXABV?$basic_string@DU?$char_traits@D@std@@V?$allocator@D@2@@std@@H0PBDZZ
  00858	83 c4 10	 add	 esp, 16			; 00000010H
  0085b	3b f4		 cmp	 esi, esp
  0085d	e8 00 00 00 00	 call	 __RTC_CheckEsp
  00862	c6 45 fc 00	 mov	 BYTE PTR __$EHRec$[ebp+8], 0
  00866	8b f4		 mov	 esi, esp
  00868	8d 4d a0	 lea	 ecx, DWORD PTR $T189489[ebp]
  0086b	ff 15 00 00 00
	00		 call	 DWORD PTR __imp_??1?$basic_string@DU?$char_traits@D@std@@V?$allocator@D@2@@std@@QAE@XZ
  00871	3b f4		 cmp	 esi, esp
  00873	e8 00 00 00 00	 call	 __RTC_CheckEsp
  00878	c7 45 fc ff ff
	ff ff		 mov	 DWORD PTR __$EHRec$[ebp+8], -1
  0087f	8b f4		 mov	 esi, esp
  00881	8d 4d bc	 lea	 ecx, DWORD PTR $T189488[ebp]
  00884	ff 15 00 00 00
	00		 call	 DWORD PTR __imp_??1?$basic_string@DU?$char_traits@D@std@@V?$allocator@D@2@@std@@QAE@XZ
  0088a	3b f4		 cmp	 esi, esp
  0088c	e8 00 00 00 00	 call	 __RTC_CheckEsp

; 110  : 	AfxGetUIManager()->UIRemoveDialog(this);

  00891	e8 00 00 00 00	 call	 ?AfxGetUIManager@@YAPAVIUIManager@@XZ ; AfxGetUIManager
  00896	89 45 94	 mov	 DWORD PTR tv145[ebp], eax
  00899	8b f4		 mov	 esi, esp
  0089b	8b 55 f0	 mov	 edx, DWORD PTR _this$[ebp]
  0089e	52		 push	 edx
  0089f	8b 45 94	 mov	 eax, DWORD PTR tv145[ebp]
  008a2	8b 10		 mov	 edx, DWORD PTR [eax]
  008a4	8b 4d 94	 mov	 ecx, DWORD PTR tv145[ebp]
  008a7	ff 52 1c	 call	 DWORD PTR [edx+28]
  008aa	3b f4		 cmp	 esi, esp
  008ac	e8 00 00 00 00	 call	 __RTC_CheckEsp

; 111  : 	AfxGetMessageManager()->DetachMessage( ID_MESSAGE_APPEXIT,this );

  008b1	83 7d f0 00	 cmp	 DWORD PTR _this$[ebp], 0
  008b5	75 09		 jne	 SHORT $L189490
  008b7	c7 45 90 00 00
	00 00		 mov	 DWORD PTR tv159[ebp], 0
  008be	eb 13		 jmp	 SHORT $L189491
$L189490:
  008c0	8b 45 f0	 mov	 eax, DWORD PTR _this$[ebp]
  008c3	8b 48 78	 mov	 ecx, DWORD PTR [eax+120]
  008c6	8b 51 04	 mov	 edx, DWORD PTR [ecx+4]
  008c9	8b 45 f0	 mov	 eax, DWORD PTR _this$[ebp]
  008cc	8d 4c 10 78	 lea	 ecx, DWORD PTR [eax+edx+120]
  008d0	89 4d 90	 mov	 DWORD PTR tv159[ebp], ecx
$L189491:
  008d3	e8 00 00 00 00	 call	 ?AfxGetMessageManager@@YAPAVIMessageManager@@XZ ; AfxGetMessageManager
  008d8	89 45 8c	 mov	 DWORD PTR tv151[ebp], eax
  008db	8b f4		 mov	 esi, esp
  008dd	8b 55 90	 mov	 edx, DWORD PTR tv159[ebp]
  008e0	52		 push	 edx
  008e1	68 00 00 00 00	 push	 OFFSET FLAT:_ID_MESSAGE_APPEXIT
  008e6	8b 45 8c	 mov	 eax, DWORD PTR tv151[ebp]
  008e9	8b 10		 mov	 edx, DWORD PTR [eax]
  008eb	8b 4d 8c	 mov	 ecx, DWORD PTR tv151[ebp]
  008ee	ff 52 08	 call	 DWORD PTR [edx+8]
  008f1	3b f4		 cmp	 esi, esp
  008f3	e8 00 00 00 00	 call	 __RTC_CheckEsp

; 112  : 	OnOK();

  008f8	8b 45 f0	 mov	 eax, DWORD PTR _this$[ebp]
  008fb	8b 10		 mov	 edx, DWORD PTR [eax]
  008fd	8b f4		 mov	 esi, esp
  008ff	8b 4d f0	 mov	 ecx, DWORD PTR _this$[ebp]
  00902	ff 92 54 01 00
	00		 call	 DWORD PTR [edx+340]
  00908	3b f4		 cmp	 esi, esp
  0090a	e8 00 00 00 00	 call	 __RTC_CheckEsp
$L188148:

; 113  : }

  0090f	52		 push	 edx
  00910	8b cd		 mov	 ecx, ebp
  00912	50		 push	 eax
  00913	8d 15 00 00 00
	00		 lea	 edx, DWORD PTR $L189500
  00919	e8 00 00 00 00	 call	 @_RTC_CheckStackVars@8
  0091e	58		 pop	 eax
  0091f	5a		 pop	 edx
  00920	8b 4d f4	 mov	 ecx, DWORD PTR __$EHRec$[ebp]
  00923	64 89 0d 00 00
	00 00		 mov	 DWORD PTR fs:__except_list, ecx
  0092a	5f		 pop	 edi
  0092b	5e		 pop	 esi
  0092c	83 c4 74	 add	 esp, 116		; 00000074H
  0092f	3b ec		 cmp	 ebp, esp
  00931	e8 00 00 00 00	 call	 __RTC_CheckEsp
  00936	8b e5		 mov	 esp, ebp
  00938	5d		 pop	 ebp
  00939	c3		 ret	 0
$L189500:
  0093a	02 00 00 00	 DD	 2
  0093e	00 00 00 00	 DD	 $L189499
$L189499:
  00942	e8 ff ff ff	 DD	 -24			; ffffffe8H
  00946	04 00 00 00	 DD	 4
  0094a	00 00 00 00	 DD	 $L189496
  0094e	dc ff ff ff	 DD	 -36			; ffffffdcH
  00952	04 00 00 00	 DD	 4
  00956	00 00 00 00	 DD	 $L189497
$L189497:
  0095a	69		 DB	 105			; 00000069H
  0095b	00		 DB	 0
$L189496:
  0095c	69		 DB	 105			; 00000069H
  0095d	00		 DB	 0
_TEXT	ENDS
text$x	SEGMENT
$L189492:
  000de	8b f4		 mov	 esi, esp
  000e0	8d 4d bc	 lea	 ecx, DWORD PTR $T189488[ebp]
  000e3	ff 15 00 00 00
	00		 call	 DWORD PTR __imp_??1?$basic_string@DU?$char_traits@D@std@@V?$allocator@D@2@@std@@QAE@XZ
  000e9	3b f4		 cmp	 esi, esp
  000eb	e9 00 00 00 00	 jmp	 __RTC_CheckEsp
$L189493:
  000f0	8b f4		 mov	 esi, esp
  000f2	8d 4d a0	 lea	 ecx, DWORD PTR $T189489[ebp]
  000f5	ff 15 00 00 00
	00		 call	 DWORD PTR __imp_??1?$basic_string@DU?$char_traits@D@std@@V?$allocator@D@2@@std@@QAE@XZ
  000fb	3b f4		 cmp	 esi, esp
  000fd	e9 00 00 00 00	 jmp	 __RTC_CheckEsp
__ehhandler$?OnClickedOK@CConfigDialog@@IAEXXZ:
  00102	b8 00 00 00 00	 mov	 eax, OFFSET FLAT:$T189495
  00107	e9 00 00 00 00	 jmp	 ___CxxFrameHandler
text$x	ENDS
?OnClickedOK@CConfigDialog@@IAEXXZ ENDP			; CConfigDialog::OnClickedOK
EXTRN	___security_cookie:DWORD
EXTRN	@__security_check_cookie@4:NEAR
EXTRN	__imp_??0?$basic_string@DU?$char_traits@D@std@@V?$allocator@D@2@@std@@QAE@XZ:NEAR
EXTRN	__imp_?c_str@?$basic_string@DU?$char_traits@D@std@@V?$allocator@D@2@@std@@QBEPBDXZ:NEAR
EXTRN	__imp_?length@?$basic_string@DU?$char_traits@D@std@@V?$allocator@D@2@@std@@QBEIXZ:NEAR
EXTRN	?MessageBoxA@CWnd@@QAEHPBD0I@Z:NEAR		; CWnd::MessageBoxA
xdata$x	SEGMENT
$T189517 DD	0ffffffffH
	DD	FLAT:$L189506
$T189508 DD	019930520H
	DD	01H
	DD	FLAT:$T189517
	DD	2 DUP(00H)
	DD	2 DUP(00H)
; Function compile flags: /Odt /RTCsu
xdata$x	ENDS
_TEXT	SEGMENT
tv79 = -76						; size = 4
$T189505 = -70						; size = 1
$T189504 = -69						; size = 1
_i$188167 = -64						; size = 4
_strMsg$ = -52						; size = 28
_this$ = -20						; size = 4
__$ArrayPad$ = -16					; size = 4
__$EHRec$ = -12						; size = 12
__$ReturnAddr$ = 4					; size = 4
?IsAllInputOK@CConfigDialog@@IAE_NXZ PROC NEAR		; CConfigDialog::IsAllInputOK
; _this$ = ecx

; 116  : {

  00960	55		 push	 ebp
  00961	8b ec		 mov	 ebp, esp
  00963	6a ff		 push	 -1
  00965	68 00 00 00 00	 push	 __ehhandler$?IsAllInputOK@CConfigDialog@@IAE_NXZ
  0096a	64 a1 00 00 00
	00		 mov	 eax, DWORD PTR fs:__except_list
  00970	50		 push	 eax
  00971	64 89 25 00 00
	00 00		 mov	 DWORD PTR fs:__except_list, esp
  00978	83 ec 40	 sub	 esp, 64			; 00000040H
  0097b	56		 push	 esi
  0097c	57		 push	 edi
  0097d	51		 push	 ecx
  0097e	8d 7d b4	 lea	 edi, DWORD PTR [ebp-76]
  00981	b9 10 00 00 00	 mov	 ecx, 16			; 00000010H
  00986	b8 cc cc cc cc	 mov	 eax, -858993460		; ccccccccH
  0098b	f3 ab		 rep stosd
  0098d	59		 pop	 ecx
  0098e	a1 00 00 00 00	 mov	 eax, DWORD PTR ___security_cookie
  00993	89 45 f0	 mov	 DWORD PTR __$ArrayPad$[ebp], eax
  00996	89 4d ec	 mov	 DWORD PTR _this$[ebp], ecx

; 117  : 	string strMsg;

  00999	8b f4		 mov	 esi, esp
  0099b	8d 4d cc	 lea	 ecx, DWORD PTR _strMsg$[ebp]
  0099e	ff 15 00 00 00
	00		 call	 DWORD PTR __imp_??0?$basic_string@DU?$char_traits@D@std@@V?$allocator@D@2@@std@@QAE@XZ
  009a4	3b f4		 cmp	 esi, esp
  009a6	e8 00 00 00 00	 call	 __RTC_CheckEsp
  009ab	c7 45 fc 00 00
	00 00		 mov	 DWORD PTR __$EHRec$[ebp+8], 0

; 118  : 	for( int i=0; i<m_mapBase.size(); i++ )

  009b2	c7 45 c0 00 00
	00 00		 mov	 DWORD PTR _i$188167[ebp], 0
  009b9	eb 09		 jmp	 SHORT $L188168
$L188169:
  009bb	8b 45 c0	 mov	 eax, DWORD PTR _i$188167[ebp]
  009be	83 c0 01	 add	 eax, 1
  009c1	89 45 c0	 mov	 DWORD PTR _i$188167[ebp], eax
$L188168:
  009c4	8b 4d ec	 mov	 ecx, DWORD PTR _this$[ebp]
  009c7	81 c1 d4 04 00
	00		 add	 ecx, 1236		; 000004d4H
  009cd	e8 00 00 00 00	 call	 ?size@?$_Tree@V?$_Tmap_traits@HPAVBaseDialog@@U?$less@H@std@@V?$allocator@U?$pair@$$CBHPAVBaseDialog@@@std@@@3@$0A@@std@@@std@@QBEIXZ ; std::_Tree<std::_Tmap_traits<int,BaseDialog *,std::less<int>,std::allocator<std::pair<int const ,BaseDialog *> >,0> >::size
  009d2	39 45 c0	 cmp	 DWORD PTR _i$188167[ebp], eax
  009d5	0f 83 ba 00 00
	00		 jae	 $L188170

; 119  : 	{
; 120  : 		if( !m_mapBase[i]->IsAllInputOK( strMsg ) )

  009db	8d 4d c0	 lea	 ecx, DWORD PTR _i$188167[ebp]
  009de	51		 push	 ecx
  009df	8b 4d ec	 mov	 ecx, DWORD PTR _this$[ebp]
  009e2	81 c1 d4 04 00
	00		 add	 ecx, 1236		; 000004d4H
  009e8	e8 00 00 00 00	 call	 ??A?$map@HPAVBaseDialog@@U?$less@H@std@@V?$allocator@U?$pair@$$CBHPAVBaseDialog@@@std@@@3@@std@@QAEAAPAVBaseDialog@@ABH@Z ; std::map<int,BaseDialog *,std::less<int>,std::allocator<std::pair<int const ,BaseDialog *> > >::operator[]
  009ed	8b 10		 mov	 edx, DWORD PTR [eax]
  009ef	89 55 b4	 mov	 DWORD PTR tv79[ebp], edx
  009f2	8b f4		 mov	 esi, esp
  009f4	8d 45 cc	 lea	 eax, DWORD PTR _strMsg$[ebp]
  009f7	50		 push	 eax
  009f8	8b 4d b4	 mov	 ecx, DWORD PTR tv79[ebp]
  009fb	8b 11		 mov	 edx, DWORD PTR [ecx]
  009fd	8b 4d b4	 mov	 ecx, DWORD PTR tv79[ebp]
  00a00	ff 92 70 01 00
	00		 call	 DWORD PTR [edx+368]
  00a06	3b f4		 cmp	 esi, esp
  00a08	e8 00 00 00 00	 call	 __RTC_CheckEsp
  00a0d	0f b6 c0	 movzx	 eax, al
  00a10	85 c0		 test	 eax, eax
  00a12	75 7c		 jne	 SHORT $L188171

; 121  : 		{
; 122  : 			if( strMsg.length() != 0 )

  00a14	8b f4		 mov	 esi, esp
  00a16	8d 4d cc	 lea	 ecx, DWORD PTR _strMsg$[ebp]
  00a19	ff 15 00 00 00
	00		 call	 DWORD PTR __imp_?length@?$basic_string@DU?$char_traits@D@std@@V?$allocator@D@2@@std@@QBEIXZ
  00a1f	3b f4		 cmp	 esi, esp
  00a21	e8 00 00 00 00	 call	 __RTC_CheckEsp
  00a26	85 c0		 test	 eax, eax
  00a28	74 44		 je	 SHORT $L188172

; 123  : 			{
; 124  : 				MessageBox( strMsg.c_str(), m_mapBase[i]->m_strAlert.c_str() );

  00a2a	6a 00		 push	 0
  00a2c	8d 4d c0	 lea	 ecx, DWORD PTR _i$188167[ebp]
  00a2f	51		 push	 ecx
  00a30	8b 4d ec	 mov	 ecx, DWORD PTR _this$[ebp]
  00a33	81 c1 d4 04 00
	00		 add	 ecx, 1236		; 000004d4H
  00a39	e8 00 00 00 00	 call	 ??A?$map@HPAVBaseDialog@@U?$less@H@std@@V?$allocator@U?$pair@$$CBHPAVBaseDialog@@@std@@@3@@std@@QAEAAPAVBaseDialog@@ABH@Z ; std::map<int,BaseDialog *,std::less<int>,std::allocator<std::pair<int const ,BaseDialog *> > >::operator[]
  00a3e	8b 08		 mov	 ecx, DWORD PTR [eax]
  00a40	83 c1 74	 add	 ecx, 116		; 00000074H
  00a43	8b f4		 mov	 esi, esp
  00a45	ff 15 00 00 00
	00		 call	 DWORD PTR __imp_?c_str@?$basic_string@DU?$char_traits@D@std@@V?$allocator@D@2@@std@@QBEPBDXZ
  00a4b	3b f4		 cmp	 esi, esp
  00a4d	e8 00 00 00 00	 call	 __RTC_CheckEsp
  00a52	50		 push	 eax
  00a53	8b f4		 mov	 esi, esp
  00a55	8d 4d cc	 lea	 ecx, DWORD PTR _strMsg$[ebp]
  00a58	ff 15 00 00 00
	00		 call	 DWORD PTR __imp_?c_str@?$basic_string@DU?$char_traits@D@std@@V?$allocator@D@2@@std@@QBEPBDXZ
  00a5e	3b f4		 cmp	 esi, esp
  00a60	e8 00 00 00 00	 call	 __RTC_CheckEsp
  00a65	50		 push	 eax
  00a66	8b 4d ec	 mov	 ecx, DWORD PTR _this$[ebp]
  00a69	e8 00 00 00 00	 call	 ?MessageBoxA@CWnd@@QAEHPBD0I@Z ; CWnd::MessageBoxA
$L188172:

; 125  : 			}		
; 126  : 			return false;

  00a6e	c6 45 bb 00	 mov	 BYTE PTR $T189504[ebp], 0
  00a72	c7 45 fc ff ff
	ff ff		 mov	 DWORD PTR __$EHRec$[ebp+8], -1
  00a79	8b f4		 mov	 esi, esp
  00a7b	8d 4d cc	 lea	 ecx, DWORD PTR _strMsg$[ebp]
  00a7e	ff 15 00 00 00
	00		 call	 DWORD PTR __imp_??1?$basic_string@DU?$char_traits@D@std@@V?$allocator@D@2@@std@@QAE@XZ
  00a84	3b f4		 cmp	 esi, esp
  00a86	e8 00 00 00 00	 call	 __RTC_CheckEsp
  00a8b	8a 45 bb	 mov	 al, BYTE PTR $T189504[ebp]
  00a8e	eb 25		 jmp	 SHORT $L188165
$L188171:

; 127  : 		}
; 128  : 	}

  00a90	e9 26 ff ff ff	 jmp	 $L188169
$L188170:

; 129  : 	return true;

  00a95	c6 45 ba 01	 mov	 BYTE PTR $T189505[ebp], 1
  00a99	c7 45 fc ff ff
	ff ff		 mov	 DWORD PTR __$EHRec$[ebp+8], -1
  00aa0	8b f4		 mov	 esi, esp
  00aa2	8d 4d cc	 lea	 ecx, DWORD PTR _strMsg$[ebp]
  00aa5	ff 15 00 00 00
	00		 call	 DWORD PTR __imp_??1?$basic_string@DU?$char_traits@D@std@@V?$allocator@D@2@@std@@QAE@XZ
  00aab	3b f4		 cmp	 esi, esp
  00aad	e8 00 00 00 00	 call	 __RTC_CheckEsp
  00ab2	8a 45 ba	 mov	 al, BYTE PTR $T189505[ebp]
$L188165:

; 130  : }

  00ab5	52		 push	 edx
  00ab6	8b cd		 mov	 ecx, ebp
  00ab8	50		 push	 eax
  00ab9	8d 15 00 00 00
	00		 lea	 edx, DWORD PTR $L189515
  00abf	e8 00 00 00 00	 call	 @_RTC_CheckStackVars@8
  00ac4	58		 pop	 eax
  00ac5	5a		 pop	 edx
  00ac6	8b 4d f4	 mov	 ecx, DWORD PTR __$EHRec$[ebp]
  00ac9	64 89 0d 00 00
	00 00		 mov	 DWORD PTR fs:__except_list, ecx
  00ad0	8b 4d f0	 mov	 ecx, DWORD PTR __$ArrayPad$[ebp]
  00ad3	e8 00 00 00 00	 call	 @__security_check_cookie@4
  00ad8	5f		 pop	 edi
  00ad9	5e		 pop	 esi
  00ada	83 c4 4c	 add	 esp, 76			; 0000004cH
  00add	3b ec		 cmp	 ebp, esp
  00adf	e8 00 00 00 00	 call	 __RTC_CheckEsp
  00ae4	8b e5		 mov	 esp, ebp
  00ae6	5d		 pop	 ebp
  00ae7	c3		 ret	 0
$L189515:
  00ae8	02 00 00 00	 DD	 2
  00aec	00 00 00 00	 DD	 $L189514
$L189514:
  00af0	cc ff ff ff	 DD	 -52			; ffffffccH
  00af4	1c 00 00 00	 DD	 28			; 0000001cH
  00af8	00 00 00 00	 DD	 $L189509
  00afc	c0 ff ff ff	 DD	 -64			; ffffffc0H
  00b00	04 00 00 00	 DD	 4
  00b04	00 00 00 00	 DD	 $L189510
$L189510:
  00b08	69		 DB	 105			; 00000069H
  00b09	00		 DB	 0
$L189509:
  00b0a	73		 DB	 115			; 00000073H
  00b0b	74		 DB	 116			; 00000074H
  00b0c	72		 DB	 114			; 00000072H
  00b0d	4d		 DB	 77			; 0000004dH
  00b0e	73		 DB	 115			; 00000073H
  00b0f	67		 DB	 103			; 00000067H
  00b10	00		 DB	 0
_TEXT	ENDS
text$x	SEGMENT
$L189506:
  0010c	8b f4		 mov	 esi, esp
  0010e	8d 4d cc	 lea	 ecx, DWORD PTR _strMsg$[ebp]
  00111	ff 15 00 00 00
	00		 call	 DWORD PTR __imp_??1?$basic_string@DU?$char_traits@D@std@@V?$allocator@D@2@@std@@QAE@XZ
  00117	3b f4		 cmp	 esi, esp
  00119	e9 00 00 00 00	 jmp	 __RTC_CheckEsp
__ehhandler$?IsAllInputOK@CConfigDialog@@IAE_NXZ:
  0011e	b8 00 00 00 00	 mov	 eax, OFFSET FLAT:$T189508
  00123	e9 00 00 00 00	 jmp	 ___CxxFrameHandler
text$x	ENDS
?IsAllInputOK@CConfigDialog@@IAE_NXZ ENDP		; CConfigDialog::IsAllInputOK
PUBLIC	?OnClickedCancel@CConfigDialog@@IAEXXZ		; CConfigDialog::OnClickedCancel
; Function compile flags: /Odt /RTCsu
_TEXT	SEGMENT
tv87 = -32						; size = 4
tv95 = -28						; size = 4
tv81 = -24						; size = 4
tv76 = -20						; size = 4
_i$188178 = -12						; size = 4
_this$ = -4						; size = 4
?OnClickedCancel@CConfigDialog@@IAEXXZ PROC NEAR	; CConfigDialog::OnClickedCancel
; _this$ = ecx

; 133  : {

  00b20	55		 push	 ebp
  00b21	8b ec		 mov	 ebp, esp
  00b23	83 ec 20	 sub	 esp, 32			; 00000020H
  00b26	56		 push	 esi
  00b27	b8 cc cc cc cc	 mov	 eax, -858993460		; ccccccccH
  00b2c	89 45 e0	 mov	 DWORD PTR [ebp-32], eax
  00b2f	89 45 e4	 mov	 DWORD PTR [ebp-28], eax
  00b32	89 45 e8	 mov	 DWORD PTR [ebp-24], eax
  00b35	89 45 ec	 mov	 DWORD PTR [ebp-20], eax
  00b38	89 45 f0	 mov	 DWORD PTR [ebp-16], eax
  00b3b	89 45 f4	 mov	 DWORD PTR [ebp-12], eax
  00b3e	89 45 f8	 mov	 DWORD PTR [ebp-8], eax
  00b41	89 45 fc	 mov	 DWORD PTR [ebp-4], eax
  00b44	89 4d fc	 mov	 DWORD PTR _this$[ebp], ecx

; 134  : 	g_hLastConfWnd = NULL;

  00b47	c7 05 00 00 00
	00 00 00 00 00	 mov	 DWORD PTR ?g_hLastConfWnd@@3PAUHWND__@@A, 0 ; g_hLastConfWnd

; 135  : 
; 136  : 	for( int i=0; i<m_mapBase.size(); i++ )

  00b51	c7 45 f4 00 00
	00 00		 mov	 DWORD PTR _i$188178[ebp], 0
  00b58	eb 09		 jmp	 SHORT $L188179
$L188180:
  00b5a	8b 45 f4	 mov	 eax, DWORD PTR _i$188178[ebp]
  00b5d	83 c0 01	 add	 eax, 1
  00b60	89 45 f4	 mov	 DWORD PTR _i$188178[ebp], eax
$L188179:
  00b63	8b 4d fc	 mov	 ecx, DWORD PTR _this$[ebp]
  00b66	81 c1 d4 04 00
	00		 add	 ecx, 1236		; 000004d4H
  00b6c	e8 00 00 00 00	 call	 ?size@?$_Tree@V?$_Tmap_traits@HPAVBaseDialog@@U?$less@H@std@@V?$allocator@U?$pair@$$CBHPAVBaseDialog@@@std@@@3@$0A@@std@@@std@@QBEIXZ ; std::_Tree<std::_Tmap_traits<int,BaseDialog *,std::less<int>,std::allocator<std::pair<int const ,BaseDialog *> >,0> >::size
  00b71	39 45 f4	 cmp	 DWORD PTR _i$188178[ebp], eax
  00b74	73 2d		 jae	 SHORT $L188181

; 137  : 	{
; 138  : 		m_mapBase[i]->DestroyWindow();

  00b76	8d 4d f4	 lea	 ecx, DWORD PTR _i$188178[ebp]
  00b79	51		 push	 ecx
  00b7a	8b 4d fc	 mov	 ecx, DWORD PTR _this$[ebp]
  00b7d	81 c1 d4 04 00
	00		 add	 ecx, 1236		; 000004d4H
  00b83	e8 00 00 00 00	 call	 ??A?$map@HPAVBaseDialog@@U?$less@H@std@@V?$allocator@U?$pair@$$CBHPAVBaseDialog@@@std@@@3@@std@@QAEAAPAVBaseDialog@@ABH@Z ; std::map<int,BaseDialog *,std::less<int>,std::allocator<std::pair<int const ,BaseDialog *> > >::operator[]
  00b88	8b 10		 mov	 edx, DWORD PTR [eax]
  00b8a	89 55 ec	 mov	 DWORD PTR tv76[ebp], edx
  00b8d	8b 45 ec	 mov	 eax, DWORD PTR tv76[ebp]
  00b90	8b 10		 mov	 edx, DWORD PTR [eax]
  00b92	8b f4		 mov	 esi, esp
  00b94	8b 4d ec	 mov	 ecx, DWORD PTR tv76[ebp]
  00b97	ff 52 68	 call	 DWORD PTR [edx+104]
  00b9a	3b f4		 cmp	 esi, esp
  00b9c	e8 00 00 00 00	 call	 __RTC_CheckEsp

; 139  : 	}

  00ba1	eb b7		 jmp	 SHORT $L188180
$L188181:

; 140  : 	AfxGetUIManager()->UIRemoveDialog(this);

  00ba3	e8 00 00 00 00	 call	 ?AfxGetUIManager@@YAPAVIUIManager@@XZ ; AfxGetUIManager
  00ba8	89 45 e8	 mov	 DWORD PTR tv81[ebp], eax
  00bab	8b f4		 mov	 esi, esp
  00bad	8b 45 fc	 mov	 eax, DWORD PTR _this$[ebp]
  00bb0	50		 push	 eax
  00bb1	8b 4d e8	 mov	 ecx, DWORD PTR tv81[ebp]
  00bb4	8b 11		 mov	 edx, DWORD PTR [ecx]
  00bb6	8b 4d e8	 mov	 ecx, DWORD PTR tv81[ebp]
  00bb9	ff 52 1c	 call	 DWORD PTR [edx+28]
  00bbc	3b f4		 cmp	 esi, esp
  00bbe	e8 00 00 00 00	 call	 __RTC_CheckEsp

; 141  : 	AfxGetMessageManager()->DetachMessage( ID_MESSAGE_APPEXIT,this );

  00bc3	83 7d fc 00	 cmp	 DWORD PTR _this$[ebp], 0
  00bc7	75 09		 jne	 SHORT $L189519
  00bc9	c7 45 e4 00 00
	00 00		 mov	 DWORD PTR tv95[ebp], 0
  00bd0	eb 13		 jmp	 SHORT $L189520
$L189519:
  00bd2	8b 45 fc	 mov	 eax, DWORD PTR _this$[ebp]
  00bd5	8b 48 78	 mov	 ecx, DWORD PTR [eax+120]
  00bd8	8b 51 04	 mov	 edx, DWORD PTR [ecx+4]
  00bdb	8b 45 fc	 mov	 eax, DWORD PTR _this$[ebp]
  00bde	8d 4c 10 78	 lea	 ecx, DWORD PTR [eax+edx+120]
  00be2	89 4d e4	 mov	 DWORD PTR tv95[ebp], ecx
$L189520:
  00be5	e8 00 00 00 00	 call	 ?AfxGetMessageManager@@YAPAVIMessageManager@@XZ ; AfxGetMessageManager
  00bea	89 45 e0	 mov	 DWORD PTR tv87[ebp], eax
  00bed	8b f4		 mov	 esi, esp
  00bef	8b 55 e4	 mov	 edx, DWORD PTR tv95[ebp]
  00bf2	52		 push	 edx
  00bf3	68 00 00 00 00	 push	 OFFSET FLAT:_ID_MESSAGE_APPEXIT
  00bf8	8b 45 e0	 mov	 eax, DWORD PTR tv87[ebp]
  00bfb	8b 10		 mov	 edx, DWORD PTR [eax]
  00bfd	8b 4d e0	 mov	 ecx, DWORD PTR tv87[ebp]
  00c00	ff 52 08	 call	 DWORD PTR [edx+8]
  00c03	3b f4		 cmp	 esi, esp
  00c05	e8 00 00 00 00	 call	 __RTC_CheckEsp

; 142  : 
; 143  : 	OnCancel();

  00c0a	8b 45 fc	 mov	 eax, DWORD PTR _this$[ebp]
  00c0d	8b 10		 mov	 edx, DWORD PTR [eax]
  00c0f	8b f4		 mov	 esi, esp
  00c11	8b 4d fc	 mov	 ecx, DWORD PTR _this$[ebp]
  00c14	ff 92 58 01 00
	00		 call	 DWORD PTR [edx+344]
  00c1a	3b f4		 cmp	 esi, esp
  00c1c	e8 00 00 00 00	 call	 __RTC_CheckEsp

; 144  : }

  00c21	52		 push	 edx
  00c22	8b cd		 mov	 ecx, ebp
  00c24	50		 push	 eax
  00c25	8d 15 00 00 00
	00		 lea	 edx, DWORD PTR $L189523
  00c2b	e8 00 00 00 00	 call	 @_RTC_CheckStackVars@8
  00c30	58		 pop	 eax
  00c31	5a		 pop	 edx
  00c32	5e		 pop	 esi
  00c33	83 c4 20	 add	 esp, 32			; 00000020H
  00c36	3b ec		 cmp	 ebp, esp
  00c38	e8 00 00 00 00	 call	 __RTC_CheckEsp
  00c3d	8b e5		 mov	 esp, ebp
  00c3f	5d		 pop	 ebp
  00c40	c3		 ret	 0
$L189523:
  00c41	01 00 00 00	 DD	 1
  00c45	00 00 00 00	 DD	 $L189522
$L189522:
  00c49	f4 ff ff ff	 DD	 -12			; fffffff4H
  00c4d	04 00 00 00	 DD	 4
  00c51	00 00 00 00	 DD	 $L189521
$L189521:
  00c55	69		 DB	 105			; 00000069H
  00c56	00		 DB	 0
?OnClickedCancel@CConfigDialog@@IAEXXZ ENDP		; CConfigDialog::OnClickedCancel
_TEXT	ENDS
PUBLIC	?OnConfigBtnDefaultBnClicked@CConfigDialog@@IAEXXZ ; CConfigDialog::OnConfigBtnDefaultBnClicked
EXTRN	__imp_?LogUserActMsg@@YAXABV?$basic_string@DU?$char_traits@D@std@@V?$allocator@D@2@@std@@0@Z:NEAR
EXTRN	?EnableWindow@CWnd@@QAEHH@Z:NEAR		; CWnd::EnableWindow
xdata$x	SEGMENT
$T189535 DD	0ffffffffH
	DD	FLAT:$L189527
	DD	00H
	DD	FLAT:$L189528
$T189530 DD	019930520H
	DD	02H
	DD	FLAT:$T189535
	DD	2 DUP(00H)
	DD	2 DUP(00H)
; Function compile flags: /Odt /RTCsu
xdata$x	ENDS
_TEXT	SEGMENT
tv76 = -88						; size = 4
$T189526 = -84						; size = 28
$T189525 = -56						; size = 28
_i$188185 = -24						; size = 4
_this$ = -16						; size = 4
__$EHRec$ = -12						; size = 12
?OnConfigBtnDefaultBnClicked@CConfigDialog@@IAEXXZ PROC NEAR ; CConfigDialog::OnConfigBtnDefaultBnClicked
; _this$ = ecx

; 147  : {

  00c60	55		 push	 ebp
  00c61	8b ec		 mov	 ebp, esp
  00c63	6a ff		 push	 -1
  00c65	68 00 00 00 00	 push	 __ehhandler$?OnConfigBtnDefaultBnClicked@CConfigDialog@@IAEXXZ
  00c6a	64 a1 00 00 00
	00		 mov	 eax, DWORD PTR fs:__except_list
  00c70	50		 push	 eax
  00c71	64 89 25 00 00
	00 00		 mov	 DWORD PTR fs:__except_list, esp
  00c78	83 ec 4c	 sub	 esp, 76			; 0000004cH
  00c7b	56		 push	 esi
  00c7c	57		 push	 edi
  00c7d	51		 push	 ecx
  00c7e	8d 7d a8	 lea	 edi, DWORD PTR [ebp-88]
  00c81	b9 13 00 00 00	 mov	 ecx, 19			; 00000013H
  00c86	b8 cc cc cc cc	 mov	 eax, -858993460		; ccccccccH
  00c8b	f3 ab		 rep stosd
  00c8d	59		 pop	 ecx
  00c8e	89 4d f0	 mov	 DWORD PTR _this$[ebp], ecx

; 148  : 	for( int i=0; i<m_mapBase.size(); i++ )

  00c91	c7 45 e8 00 00
	00 00		 mov	 DWORD PTR _i$188185[ebp], 0
  00c98	eb 09		 jmp	 SHORT $L188186
$L188187:
  00c9a	8b 45 e8	 mov	 eax, DWORD PTR _i$188185[ebp]
  00c9d	83 c0 01	 add	 eax, 1
  00ca0	89 45 e8	 mov	 DWORD PTR _i$188185[ebp], eax
$L188186:
  00ca3	8b 4d f0	 mov	 ecx, DWORD PTR _this$[ebp]
  00ca6	81 c1 d4 04 00
	00		 add	 ecx, 1236		; 000004d4H
  00cac	e8 00 00 00 00	 call	 ?size@?$_Tree@V?$_Tmap_traits@HPAVBaseDialog@@U?$less@H@std@@V?$allocator@U?$pair@$$CBHPAVBaseDialog@@@std@@@3@$0A@@std@@@std@@QBEIXZ ; std::_Tree<std::_Tmap_traits<int,BaseDialog *,std::less<int>,std::allocator<std::pair<int const ,BaseDialog *> >,0> >::size
  00cb1	39 45 e8	 cmp	 DWORD PTR _i$188185[ebp], eax
  00cb4	73 30		 jae	 SHORT $L188188

; 149  : 	{
; 150  : 		m_mapBase[i]->SetDefault();

  00cb6	8d 4d e8	 lea	 ecx, DWORD PTR _i$188185[ebp]
  00cb9	51		 push	 ecx
  00cba	8b 4d f0	 mov	 ecx, DWORD PTR _this$[ebp]
  00cbd	81 c1 d4 04 00
	00		 add	 ecx, 1236		; 000004d4H
  00cc3	e8 00 00 00 00	 call	 ??A?$map@HPAVBaseDialog@@U?$less@H@std@@V?$allocator@U?$pair@$$CBHPAVBaseDialog@@@std@@@3@@std@@QAEAAPAVBaseDialog@@ABH@Z ; std::map<int,BaseDialog *,std::less<int>,std::allocator<std::pair<int const ,BaseDialog *> > >::operator[]
  00cc8	8b 10		 mov	 edx, DWORD PTR [eax]
  00cca	89 55 a8	 mov	 DWORD PTR tv76[ebp], edx
  00ccd	8b 45 a8	 mov	 eax, DWORD PTR tv76[ebp]
  00cd0	8b 10		 mov	 edx, DWORD PTR [eax]
  00cd2	8b f4		 mov	 esi, esp
  00cd4	8b 4d a8	 mov	 ecx, DWORD PTR tv76[ebp]
  00cd7	ff 92 64 01 00
	00		 call	 DWORD PTR [edx+356]
  00cdd	3b f4		 cmp	 esi, esp
  00cdf	e8 00 00 00 00	 call	 __RTC_CheckEsp

; 151  : 	}

  00ce4	eb b4		 jmp	 SHORT $L188187
$L188188:

; 152  : 	GetDlgItem(IDC_BUTTON_APPLY)->EnableWindow();

  00ce6	6a 01		 push	 1
  00ce8	68 bd 00 00 00	 push	 189			; 000000bdH
  00ced	8b 4d f0	 mov	 ecx, DWORD PTR _this$[ebp]
  00cf0	e8 00 00 00 00	 call	 ?GetDlgItem@CWnd@@QBEPAV1@H@Z ; CWnd::GetDlgItem
  00cf5	8b c8		 mov	 ecx, eax
  00cf7	e8 00 00 00 00	 call	 ?EnableWindow@CWnd@@QAEHH@Z ; CWnd::EnableWindow

; 153  : 	LogUserActMsg( "SETTING", "SET_CHANGE:DEFAULT" );

  00cfc	8b f4		 mov	 esi, esp
  00cfe	68 00 00 00 00	 push	 OFFSET FLAT:$SG188191
  00d03	8d 4d c8	 lea	 ecx, DWORD PTR $T189525[ebp]
  00d06	ff 15 00 00 00
	00		 call	 DWORD PTR __imp_??0?$basic_string@DU?$char_traits@D@std@@V?$allocator@D@2@@std@@QAE@PBD@Z
  00d0c	3b f4		 cmp	 esi, esp
  00d0e	e8 00 00 00 00	 call	 __RTC_CheckEsp
  00d13	c7 45 fc 00 00
	00 00		 mov	 DWORD PTR __$EHRec$[ebp+8], 0
  00d1a	8b f4		 mov	 esi, esp
  00d1c	68 00 00 00 00	 push	 OFFSET FLAT:$SG188192
  00d21	8d 4d ac	 lea	 ecx, DWORD PTR $T189526[ebp]
  00d24	ff 15 00 00 00
	00		 call	 DWORD PTR __imp_??0?$basic_string@DU?$char_traits@D@std@@V?$allocator@D@2@@std@@QAE@PBD@Z
  00d2a	3b f4		 cmp	 esi, esp
  00d2c	e8 00 00 00 00	 call	 __RTC_CheckEsp
  00d31	c6 45 fc 01	 mov	 BYTE PTR __$EHRec$[ebp+8], 1
  00d35	8b f4		 mov	 esi, esp
  00d37	8d 45 c8	 lea	 eax, DWORD PTR $T189525[ebp]
  00d3a	50		 push	 eax
  00d3b	8d 4d ac	 lea	 ecx, DWORD PTR $T189526[ebp]
  00d3e	51		 push	 ecx
  00d3f	ff 15 00 00 00
	00		 call	 DWORD PTR __imp_?LogUserActMsg@@YAXABV?$basic_string@DU?$char_traits@D@std@@V?$allocator@D@2@@std@@0@Z
  00d45	83 c4 08	 add	 esp, 8
  00d48	3b f4		 cmp	 esi, esp
  00d4a	e8 00 00 00 00	 call	 __RTC_CheckEsp
  00d4f	c6 45 fc 00	 mov	 BYTE PTR __$EHRec$[ebp+8], 0
  00d53	8b f4		 mov	 esi, esp
  00d55	8d 4d ac	 lea	 ecx, DWORD PTR $T189526[ebp]
  00d58	ff 15 00 00 00
	00		 call	 DWORD PTR __imp_??1?$basic_string@DU?$char_traits@D@std@@V?$allocator@D@2@@std@@QAE@XZ
  00d5e	3b f4		 cmp	 esi, esp
  00d60	e8 00 00 00 00	 call	 __RTC_CheckEsp
  00d65	c7 45 fc ff ff
	ff ff		 mov	 DWORD PTR __$EHRec$[ebp+8], -1
  00d6c	8b f4		 mov	 esi, esp
  00d6e	8d 4d c8	 lea	 ecx, DWORD PTR $T189525[ebp]
  00d71	ff 15 00 00 00
	00		 call	 DWORD PTR __imp_??1?$basic_string@DU?$char_traits@D@std@@V?$allocator@D@2@@std@@QAE@XZ
  00d77	3b f4		 cmp	 esi, esp
  00d79	e8 00 00 00 00	 call	 __RTC_CheckEsp

; 154  : }

  00d7e	52		 push	 edx
  00d7f	8b cd		 mov	 ecx, ebp
  00d81	50		 push	 eax
  00d82	8d 15 00 00 00
	00		 lea	 edx, DWORD PTR $L189534
  00d88	e8 00 00 00 00	 call	 @_RTC_CheckStackVars@8
  00d8d	58		 pop	 eax
  00d8e	5a		 pop	 edx
  00d8f	8b 4d f4	 mov	 ecx, DWORD PTR __$EHRec$[ebp]
  00d92	64 89 0d 00 00
	00 00		 mov	 DWORD PTR fs:__except_list, ecx
  00d99	5f		 pop	 edi
  00d9a	5e		 pop	 esi
  00d9b	83 c4 58	 add	 esp, 88			; 00000058H
  00d9e	3b ec		 cmp	 ebp, esp
  00da0	e8 00 00 00 00	 call	 __RTC_CheckEsp
  00da5	8b e5		 mov	 esp, ebp
  00da7	5d		 pop	 ebp
  00da8	c3		 ret	 0
$L189534:
  00da9	01 00 00 00	 DD	 1
  00dad	00 00 00 00	 DD	 $L189533
$L189533:
  00db1	e8 ff ff ff	 DD	 -24			; ffffffe8H
  00db5	04 00 00 00	 DD	 4
  00db9	00 00 00 00	 DD	 $L189531
$L189531:
  00dbd	69		 DB	 105			; 00000069H
  00dbe	00		 DB	 0
_TEXT	ENDS
text$x	SEGMENT
$L189527:
  00128	8b f4		 mov	 esi, esp
  0012a	8d 4d c8	 lea	 ecx, DWORD PTR $T189525[ebp]
  0012d	ff 15 00 00 00
	00		 call	 DWORD PTR __imp_??1?$basic_string@DU?$char_traits@D@std@@V?$allocator@D@2@@std@@QAE@XZ
  00133	3b f4		 cmp	 esi, esp
  00135	e9 00 00 00 00	 jmp	 __RTC_CheckEsp
$L189528:
  0013a	8b f4		 mov	 esi, esp
  0013c	8d 4d ac	 lea	 ecx, DWORD PTR $T189526[ebp]
  0013f	ff 15 00 00 00
	00		 call	 DWORD PTR __imp_??1?$basic_string@DU?$char_traits@D@std@@V?$allocator@D@2@@std@@QAE@XZ
  00145	3b f4		 cmp	 esi, esp
  00147	e9 00 00 00 00	 jmp	 __RTC_CheckEsp
__ehhandler$?OnConfigBtnDefaultBnClicked@CConfigDialog@@IAEXXZ:
  0014c	b8 00 00 00 00	 mov	 eax, OFFSET FLAT:$T189530
  00151	e9 00 00 00 00	 jmp	 ___CxxFrameHandler
text$x	ENDS
?OnConfigBtnDefaultBnClicked@CConfigDialog@@IAEXXZ ENDP	; CConfigDialog::OnConfigBtnDefaultBnClicked
EXTRN	?SendMessageA@CWnd@@QAEJIIJ@Z:NEAR		; CWnd::SendMessageA
; Function compile flags: /Odt /RTCsu
_TEXT	SEGMENT
_this$ = -4						; size = 4
?IAppExit@CConfigDialog@@MAEXXZ PROC NEAR		; CConfigDialog::IAppExit
; _this$ = ecx

; 157  : {

  00dc0	55		 push	 ebp
  00dc1	8b ec		 mov	 ebp, esp
  00dc3	51		 push	 ecx
  00dc4	c7 45 fc cc cc
	cc cc		 mov	 DWORD PTR [ebp-4], -858993460 ; ccccccccH
  00dcb	89 4d fc	 mov	 DWORD PTR _this$[ebp], ecx

; 158  : 	SendMessage(WM_COMMAND,IDCANCEL,0);

  00dce	6a 00		 push	 0
  00dd0	6a 02		 push	 2
  00dd2	68 11 01 00 00	 push	 273			; 00000111H
  00dd7	8b 4d fc	 mov	 ecx, DWORD PTR _this$[ebp]
  00dda	83 e9 74	 sub	 ecx, 116		; 00000074H
  00ddd	e8 00 00 00 00	 call	 ?SendMessageA@CWnd@@QAEJIIJ@Z ; CWnd::SendMessageA

; 159  : }

  00de2	83 c4 04	 add	 esp, 4
  00de5	3b ec		 cmp	 ebp, esp
  00de7	e8 00 00 00 00	 call	 __RTC_CheckEsp
  00dec	8b e5		 mov	 esp, ebp
  00dee	5d		 pop	 ebp
  00def	c3		 ret	 0
?IAppExit@CConfigDialog@@MAEXXZ ENDP			; CConfigDialog::IAppExit
_TEXT	ENDS
PUBLIC	?OnCtlColor@CConfigDialog@@IAEPAUHBRUSH__@@PAVCDC@@PAVCWnd@@I@Z ; CConfigDialog::OnCtlColor
EXTRN	?OnCtlColor@CWnd@@IAEPAUHBRUSH__@@PAVCDC@@PAV1@I@Z:NEAR ; CWnd::OnCtlColor
EXTRN	__imp__CreateSolidBrush@4:NEAR
; Function compile flags: /Odt /RTCsu
_TEXT	SEGMENT
_hbr$ = -8						; size = 4
_this$ = -4						; size = 4
_pDC$ = 8						; size = 4
_pWnd$ = 12						; size = 4
_nCtlColor$ = 16					; size = 4
?OnCtlColor@CConfigDialog@@IAEPAUHBRUSH__@@PAVCDC@@PAVCWnd@@I@Z PROC NEAR ; CConfigDialog::OnCtlColor
; _this$ = ecx

; 162  : {

  00df0	55		 push	 ebp
  00df1	8b ec		 mov	 ebp, esp
  00df3	83 ec 08	 sub	 esp, 8
  00df6	56		 push	 esi
  00df7	c7 45 f8 cc cc
	cc cc		 mov	 DWORD PTR [ebp-8], -858993460 ; ccccccccH
  00dfe	c7 45 fc cc cc
	cc cc		 mov	 DWORD PTR [ebp-4], -858993460 ; ccccccccH
  00e05	89 4d fc	 mov	 DWORD PTR _this$[ebp], ecx

; 163  : 	HBRUSH hbr = CDialog::OnCtlColor(pDC, pWnd, nCtlColor);

  00e08	8b 45 10	 mov	 eax, DWORD PTR _nCtlColor$[ebp]
  00e0b	50		 push	 eax
  00e0c	8b 4d 0c	 mov	 ecx, DWORD PTR _pWnd$[ebp]
  00e0f	51		 push	 ecx
  00e10	8b 55 08	 mov	 edx, DWORD PTR _pDC$[ebp]
  00e13	52		 push	 edx
  00e14	8b 4d fc	 mov	 ecx, DWORD PTR _this$[ebp]
  00e17	e8 00 00 00 00	 call	 ?OnCtlColor@CWnd@@IAEPAUHBRUSH__@@PAVCDC@@PAV1@I@Z ; CWnd::OnCtlColor
  00e1c	89 45 f8	 mov	 DWORD PTR _hbr$[ebp], eax

; 164  : 	hbr = ::CreateSolidBrush( RGB(245,245,245) );

  00e1f	8b f4		 mov	 esi, esp
  00e21	68 f5 f5 f5 00	 push	 16119285		; 00f5f5f5H
  00e26	ff 15 00 00 00
	00		 call	 DWORD PTR __imp__CreateSolidBrush@4
  00e2c	3b f4		 cmp	 esi, esp
  00e2e	e8 00 00 00 00	 call	 __RTC_CheckEsp
  00e33	89 45 f8	 mov	 DWORD PTR _hbr$[ebp], eax

; 165  : 	return hbr;

  00e36	8b 45 f8	 mov	 eax, DWORD PTR _hbr$[ebp]

; 166  : }

  00e39	5e		 pop	 esi
  00e3a	83 c4 08	 add	 esp, 8
  00e3d	3b ec		 cmp	 ebp, esp
  00e3f	e8 00 00 00 00	 call	 __RTC_CheckEsp
  00e44	8b e5		 mov	 esp, ebp
  00e46	5d		 pop	 ebp
  00e47	c2 0c 00	 ret	 12			; 0000000cH
?OnCtlColor@CConfigDialog@@IAEPAUHBRUSH__@@PAVCDC@@PAVCWnd@@I@Z ENDP ; CConfigDialog::OnCtlColor
_TEXT	ENDS
PUBLIC	??0?$allocator@U?$pair@$$CBHPAVBaseDialog@@@std@@@std@@QAE@XZ ; std::allocator<std::pair<int const ,BaseDialog *> >::allocator<std::pair<int const ,BaseDialog *> >
PUBLIC	??0?$_Tree@V?$_Tmap_traits@HPAVBaseDialog@@U?$less@H@std@@V?$allocator@U?$pair@$$CBHPAVBaseDialog@@@std@@@3@$0A@@std@@@std@@QAE@ABU?$less@H@1@ABV?$allocator@U?$pair@$$CBHPAVBaseDialog@@@std@@@1@@Z ; std::_Tree<std::_Tmap_traits<int,BaseDialog *,std::less<int>,std::allocator<std::pair<int const ,BaseDialog *> >,0> >::_Tree<std::_Tmap_traits<int,BaseDialog *,std::less<int>,std::allocator<std::pair<int const ,BaseDialog *> >,0> >
; Function compile flags: /Odt /RTCsu
; File d:\program files (x86)\microsoft visual studio .net 2003\vc7\include\map
;	COMDAT ??0?$map@HPAVBaseDialog@@U?$less@H@std@@V?$allocator@U?$pair@$$CBHPAVBaseDialog@@@std@@@3@@std@@QAE@XZ
_TEXT	SEGMENT
$T189540 = -6						; size = 1
$T189539 = -5						; size = 1
_this$ = -4						; size = 4
??0?$map@HPAVBaseDialog@@U?$less@H@std@@V?$allocator@U?$pair@$$CBHPAVBaseDialog@@@std@@@3@@std@@QAE@XZ PROC NEAR ; std::map<int,BaseDialog *,std::less<int>,std::allocator<std::pair<int const ,BaseDialog *> > >::map<int,BaseDialog *,std::less<int>,std::allocator<std::pair<int const ,BaseDialog *> > >, COMDAT
; _this$ = ecx

; 102  : 		{	// construct empty map from defaults

  00000	55		 push	 ebp
  00001	8b ec		 mov	 ebp, esp
  00003	83 ec 08	 sub	 esp, 8
  00006	c7 45 f8 cc cc
	cc cc		 mov	 DWORD PTR [ebp-8], -858993460 ; ccccccccH
  0000d	c7 45 fc cc cc
	cc cc		 mov	 DWORD PTR [ebp-4], -858993460 ; ccccccccH
  00014	89 4d fc	 mov	 DWORD PTR _this$[ebp], ecx
  00017	8d 4d fb	 lea	 ecx, DWORD PTR $T189539[ebp]
  0001a	e8 00 00 00 00	 call	 ??0?$allocator@U?$pair@$$CBHPAVBaseDialog@@@std@@@std@@QAE@XZ ; std::allocator<std::pair<int const ,BaseDialog *> >::allocator<std::pair<int const ,BaseDialog *> >
  0001f	50		 push	 eax
  00020	8d 45 fa	 lea	 eax, DWORD PTR $T189540[ebp]
  00023	50		 push	 eax
  00024	8b 4d fc	 mov	 ecx, DWORD PTR _this$[ebp]
  00027	e8 00 00 00 00	 call	 ??0?$_Tree@V?$_Tmap_traits@HPAVBaseDialog@@U?$less@H@std@@V?$allocator@U?$pair@$$CBHPAVBaseDialog@@@std@@@3@$0A@@std@@@std@@QAE@ABU?$less@H@1@ABV?$allocator@U?$pair@$$CBHPAVBaseDialog@@@std@@@1@@Z ; std::_Tree<std::_Tmap_traits<int,BaseDialog *,std::less<int>,std::allocator<std::pair<int const ,BaseDialog *> >,0> >::_Tree<std::_Tmap_traits<int,BaseDialog *,std::less<int>,std::allocator<std::pair<int const ,BaseDialog *> >,0> >

; 103  : 		}

  0002c	8b 45 fc	 mov	 eax, DWORD PTR _this$[ebp]
  0002f	83 c4 08	 add	 esp, 8
  00032	3b ec		 cmp	 ebp, esp
  00034	e8 00 00 00 00	 call	 __RTC_CheckEsp
  00039	8b e5		 mov	 esp, ebp
  0003b	5d		 pop	 ebp
  0003c	c3		 ret	 0
??0?$map@HPAVBaseDialog@@U?$less@H@std@@V?$allocator@U?$pair@$$CBHPAVBaseDialog@@@std@@@3@@std@@QAE@XZ ENDP ; std::map<int,BaseDialog *,std::less<int>,std::allocator<std::pair<int const ,BaseDialog *> > >::map<int,BaseDialog *,std::less<int>,std::allocator<std::pair<int const ,BaseDialog *> > >
_TEXT	ENDS
PUBLIC	??R?$less@H@std@@QBE_NABH0@Z			; std::less<int>::operator()
PUBLIC	?_Key@?$_Tree@V?$_Tmap_traits@HPAVBaseDialog@@U?$less@H@std@@V?$allocator@U?$pair@$$CBHPAVBaseDialog@@@std@@@3@$0A@@std@@@std@@KAABHPAU_Node@?$_Tree_nod@V?$_Tmap_traits@HPAVBaseDialog@@U?$less@H@std@@V?$allocator@U?$pair@$$CBHPAVBaseDialog@@@std@@@3@$0A@@std@@@2@@Z ; std::_Tree<std::_Tmap_traits<int,BaseDialog *,std::less<int>,std::allocator<std::pair<int const ,BaseDialog *> >,0> >::_Key
PUBLIC	?end@?$_Tree@V?$_Tmap_traits@HPAVBaseDialog@@U?$less@H@std@@V?$allocator@U?$pair@$$CBHPAVBaseDialog@@@std@@@3@$0A@@std@@@std@@QAE?AViterator@12@XZ ; std::_Tree<std::_Tmap_traits<int,BaseDialog *,std::less<int>,std::allocator<std::pair<int const ,BaseDialog *> >,0> >::end
PUBLIC	?insert@?$_Tree@V?$_Tmap_traits@HPAVBaseDialog@@U?$less@H@std@@V?$allocator@U?$pair@$$CBHPAVBaseDialog@@@std@@@3@$0A@@std@@@std@@QAE?AViterator@12@V312@ABU?$pair@$$CBHPAVBaseDialog@@@2@@Z ; std::_Tree<std::_Tmap_traits<int,BaseDialog *,std::less<int>,std::allocator<std::pair<int const ,BaseDialog *> >,0> >::insert
PUBLIC	?lower_bound@?$_Tree@V?$_Tmap_traits@HPAVBaseDialog@@U?$less@H@std@@V?$allocator@U?$pair@$$CBHPAVBaseDialog@@@std@@@3@$0A@@std@@@std@@QAE?AViterator@12@ABH@Z ; std::_Tree<std::_Tmap_traits<int,BaseDialog *,std::less<int>,std::allocator<std::pair<int const ,BaseDialog *> >,0> >::lower_bound
PUBLIC	??8const_iterator@?$_Tree@V?$_Tmap_traits@HPAVBaseDialog@@U?$less@H@std@@V?$allocator@U?$pair@$$CBHPAVBaseDialog@@@std@@@3@$0A@@std@@@std@@QBE_NABV012@@Z ; std::_Tree<std::_Tmap_traits<int,BaseDialog *,std::less<int>,std::allocator<std::pair<int const ,BaseDialog *> >,0> >::const_iterator::operator==
PUBLIC	?_Mynode@const_iterator@?$_Tree@V?$_Tmap_traits@HPAVBaseDialog@@U?$less@H@std@@V?$allocator@U?$pair@$$CBHPAVBaseDialog@@@std@@@3@$0A@@std@@@std@@QBEPAU_Node@?$_Tree_nod@V?$_Tmap_traits@HPAVBaseDialog@@U?$less@H@std@@V?$allocator@U?$pair@$$CBHPAVBaseDialog@@@std@@@3@$0A@@std@@@3@XZ ; std::_Tree<std::_Tmap_traits<int,BaseDialog *,std::less<int>,std::allocator<std::pair<int const ,BaseDialog *> >,0> >::const_iterator::_Mynode
PUBLIC	??Diterator@?$_Tree@V?$_Tmap_traits@HPAVBaseDialog@@U?$less@H@std@@V?$allocator@U?$pair@$$CBHPAVBaseDialog@@@std@@@3@$0A@@std@@@std@@QBEAAU?$pair@$$CBHPAVBaseDialog@@@2@XZ ; std::_Tree<std::_Tmap_traits<int,BaseDialog *,std::less<int>,std::allocator<std::pair<int const ,BaseDialog *> >,0> >::iterator::operator*
PUBLIC	??0?$pair@$$CBHPAVBaseDialog@@@std@@QAE@ABHABQAVBaseDialog@@@Z ; std::pair<int const ,BaseDialog *>::pair<int const ,BaseDialog *>
; Function compile flags: /Odt /RTCsu
;	COMDAT ??A?$map@HPAVBaseDialog@@U?$less@H@std@@V?$allocator@U?$pair@$$CBHPAVBaseDialog@@@std@@@3@@std@@QAEAAPAVBaseDialog@@ABH@Z
_TEXT	SEGMENT
$T189546 = -36						; size = 4
$T189545 = -32						; size = 4
$T189544 = -28						; size = 8
$T189543 = -20						; size = 4
__Where$ = -12						; size = 4
_this$ = -4						; size = 4
__Keyval$ = 8						; size = 4
??A?$map@HPAVBaseDialog@@U?$less@H@std@@V?$allocator@U?$pair@$$CBHPAVBaseDialog@@@std@@@3@@std@@QAEAAPAVBaseDialog@@ABH@Z PROC NEAR ; std::map<int,BaseDialog *,std::less<int>,std::allocator<std::pair<int const ,BaseDialog *> > >::operator[], COMDAT
; _this$ = ecx

; 142  : 		{	// find element matching _Keyval or insert with default mapped

  00000	55		 push	 ebp
  00001	8b ec		 mov	 ebp, esp
  00003	83 ec 24	 sub	 esp, 36			; 00000024H
  00006	b8 cc cc cc cc	 mov	 eax, -858993460		; ccccccccH
  0000b	89 45 dc	 mov	 DWORD PTR [ebp-36], eax
  0000e	89 45 e0	 mov	 DWORD PTR [ebp-32], eax
  00011	89 45 e4	 mov	 DWORD PTR [ebp-28], eax
  00014	89 45 e8	 mov	 DWORD PTR [ebp-24], eax
  00017	89 45 ec	 mov	 DWORD PTR [ebp-20], eax
  0001a	89 45 f0	 mov	 DWORD PTR [ebp-16], eax
  0001d	89 45 f4	 mov	 DWORD PTR [ebp-12], eax
  00020	89 45 f8	 mov	 DWORD PTR [ebp-8], eax
  00023	89 45 fc	 mov	 DWORD PTR [ebp-4], eax
  00026	89 4d fc	 mov	 DWORD PTR _this$[ebp], ecx

; 143  : 		iterator _Where = this->lower_bound(_Keyval);

  00029	8b 45 08	 mov	 eax, DWORD PTR __Keyval$[ebp]
  0002c	50		 push	 eax
  0002d	8d 4d f4	 lea	 ecx, DWORD PTR __Where$[ebp]
  00030	51		 push	 ecx
  00031	8b 4d fc	 mov	 ecx, DWORD PTR _this$[ebp]
  00034	e8 00 00 00 00	 call	 ?lower_bound@?$_Tree@V?$_Tmap_traits@HPAVBaseDialog@@U?$less@H@std@@V?$allocator@U?$pair@$$CBHPAVBaseDialog@@@std@@@3@$0A@@std@@@std@@QAE?AViterator@12@ABH@Z ; std::_Tree<std::_Tmap_traits<int,BaseDialog *,std::less<int>,std::allocator<std::pair<int const ,BaseDialog *> >,0> >::lower_bound

; 144  : 		if (_Where == this->end() || this->comp(_Keyval, this->_Key(_Where._Mynode())))

  00039	8d 55 ec	 lea	 edx, DWORD PTR $T189543[ebp]
  0003c	52		 push	 edx
  0003d	8b 4d fc	 mov	 ecx, DWORD PTR _this$[ebp]
  00040	e8 00 00 00 00	 call	 ?end@?$_Tree@V?$_Tmap_traits@HPAVBaseDialog@@U?$less@H@std@@V?$allocator@U?$pair@$$CBHPAVBaseDialog@@@std@@@3@$0A@@std@@@std@@QAE?AViterator@12@XZ ; std::_Tree<std::_Tmap_traits<int,BaseDialog *,std::less<int>,std::allocator<std::pair<int const ,BaseDialog *> >,0> >::end
  00045	50		 push	 eax
  00046	8d 4d f4	 lea	 ecx, DWORD PTR __Where$[ebp]
  00049	e8 00 00 00 00	 call	 ??8const_iterator@?$_Tree@V?$_Tmap_traits@HPAVBaseDialog@@U?$less@H@std@@V?$allocator@U?$pair@$$CBHPAVBaseDialog@@@std@@@3@$0A@@std@@@std@@QBE_NABV012@@Z ; std::_Tree<std::_Tmap_traits<int,BaseDialog *,std::less<int>,std::allocator<std::pair<int const ,BaseDialog *> >,0> >::const_iterator::operator==
  0004e	0f b6 c0	 movzx	 eax, al
  00051	85 c0		 test	 eax, eax
  00053	75 25		 jne	 SHORT $L188354
  00055	8d 4d f4	 lea	 ecx, DWORD PTR __Where$[ebp]
  00058	e8 00 00 00 00	 call	 ?_Mynode@const_iterator@?$_Tree@V?$_Tmap_traits@HPAVBaseDialog@@U?$less@H@std@@V?$allocator@U?$pair@$$CBHPAVBaseDialog@@@std@@@3@$0A@@std@@@std@@QBEPAU_Node@?$_Tree_nod@V?$_Tmap_traits@HPAVBaseDialog@@U?$less@H@std@@V?$allocator@U?$pair@$$CBHPAVBaseDialog@@@std@@@3@$0A@@std@@@3@XZ ; std::_Tree<std::_Tmap_traits<int,BaseDialog *,std::less<int>,std::allocator<std::pair<int const ,BaseDialog *> >,0> >::const_iterator::_Mynode
  0005d	50		 push	 eax
  0005e	e8 00 00 00 00	 call	 ?_Key@?$_Tree@V?$_Tmap_traits@HPAVBaseDialog@@U?$less@H@std@@V?$allocator@U?$pair@$$CBHPAVBaseDialog@@@std@@@3@$0A@@std@@@std@@KAABHPAU_Node@?$_Tree_nod@V?$_Tmap_traits@HPAVBaseDialog@@U?$less@H@std@@V?$allocator@U?$pair@$$CBHPAVBaseDialog@@@std@@@3@$0A@@std@@@2@@Z ; std::_Tree<std::_Tmap_traits<int,BaseDialog *,std::less<int>,std::allocator<std::pair<int const ,BaseDialog *> >,0> >::_Key
  00063	83 c4 04	 add	 esp, 4
  00066	50		 push	 eax
  00067	8b 4d 08	 mov	 ecx, DWORD PTR __Keyval$[ebp]
  0006a	51		 push	 ecx
  0006b	8b 4d fc	 mov	 ecx, DWORD PTR _this$[ebp]
  0006e	e8 00 00 00 00	 call	 ??R?$less@H@std@@QBE_NABH0@Z ; std::less<int>::operator()
  00073	0f b6 d0	 movzx	 edx, al
  00076	85 d2		 test	 edx, edx
  00078	74 2d		 je	 SHORT $L188353
$L188354:

; 145  : 			_Where = this->insert(_Where,
; 146  : 				value_type(_Keyval, mapped_type()));

  0007a	c7 45 e0 00 00
	00 00		 mov	 DWORD PTR $T189545[ebp], 0
  00081	8d 45 e0	 lea	 eax, DWORD PTR $T189545[ebp]
  00084	50		 push	 eax
  00085	8b 4d 08	 mov	 ecx, DWORD PTR __Keyval$[ebp]
  00088	51		 push	 ecx
  00089	8d 4d e4	 lea	 ecx, DWORD PTR $T189544[ebp]
  0008c	e8 00 00 00 00	 call	 ??0?$pair@$$CBHPAVBaseDialog@@@std@@QAE@ABHABQAVBaseDialog@@@Z ; std::pair<int const ,BaseDialog *>::pair<int const ,BaseDialog *>
  00091	50		 push	 eax
  00092	8b 55 f4	 mov	 edx, DWORD PTR __Where$[ebp]
  00095	52		 push	 edx
  00096	8d 45 dc	 lea	 eax, DWORD PTR $T189546[ebp]
  00099	50		 push	 eax
  0009a	8b 4d fc	 mov	 ecx, DWORD PTR _this$[ebp]
  0009d	e8 00 00 00 00	 call	 ?insert@?$_Tree@V?$_Tmap_traits@HPAVBaseDialog@@U?$less@H@std@@V?$allocator@U?$pair@$$CBHPAVBaseDialog@@@std@@@3@$0A@@std@@@std@@QAE?AViterator@12@V312@ABU?$pair@$$CBHPAVBaseDialog@@@2@@Z ; std::_Tree<std::_Tmap_traits<int,BaseDialog *,std::less<int>,std::allocator<std::pair<int const ,BaseDialog *> >,0> >::insert
  000a2	8b 08		 mov	 ecx, DWORD PTR [eax]
  000a4	89 4d f4	 mov	 DWORD PTR __Where$[ebp], ecx
$L188353:

; 147  : 		return ((*_Where).second);

  000a7	8d 4d f4	 lea	 ecx, DWORD PTR __Where$[ebp]
  000aa	e8 00 00 00 00	 call	 ??Diterator@?$_Tree@V?$_Tmap_traits@HPAVBaseDialog@@U?$less@H@std@@V?$allocator@U?$pair@$$CBHPAVBaseDialog@@@std@@@3@$0A@@std@@@std@@QBEAAU?$pair@$$CBHPAVBaseDialog@@@2@XZ ; std::_Tree<std::_Tmap_traits<int,BaseDialog *,std::less<int>,std::allocator<std::pair<int const ,BaseDialog *> >,0> >::iterator::operator*
  000af	83 c0 04	 add	 eax, 4

; 148  : 		}

  000b2	52		 push	 edx
  000b3	8b cd		 mov	 ecx, ebp
  000b5	50		 push	 eax
  000b6	8d 15 00 00 00
	00		 lea	 edx, DWORD PTR $L189549
  000bc	e8 00 00 00 00	 call	 @_RTC_CheckStackVars@8
  000c1	58		 pop	 eax
  000c2	5a		 pop	 edx
  000c3	83 c4 24	 add	 esp, 36			; 00000024H
  000c6	3b ec		 cmp	 ebp, esp
  000c8	e8 00 00 00 00	 call	 __RTC_CheckEsp
  000cd	8b e5		 mov	 esp, ebp
  000cf	5d		 pop	 ebp
  000d0	c2 04 00	 ret	 4
$L189549:
  000d3	01 00 00 00	 DD	 1
  000d7	00 00 00 00	 DD	 $L189548
$L189548:
  000db	f4 ff ff ff	 DD	 -12			; fffffff4H
  000df	04 00 00 00	 DD	 4
  000e3	00 00 00 00	 DD	 $L189547
$L189547:
  000e7	5f		 DB	 95			; 0000005fH
  000e8	57		 DB	 87			; 00000057H
  000e9	68		 DB	 104			; 00000068H
  000ea	65		 DB	 101			; 00000065H
  000eb	72		 DB	 114			; 00000072H
  000ec	65		 DB	 101			; 00000065H
  000ed	00		 DB	 0
??A?$map@HPAVBaseDialog@@U?$less@H@std@@V?$allocator@U?$pair@$$CBHPAVBaseDialog@@@std@@@3@@std@@QAEAAPAVBaseDialog@@ABH@Z ENDP ; std::map<int,BaseDialog *,std::less<int>,std::allocator<std::pair<int const ,BaseDialog *> > >::operator[]
_TEXT	ENDS
PUBLIC	?_Tidy@?$_Tree@V?$_Tmap_traits@HPAVBaseDialog@@U?$less@H@std@@V?$allocator@U?$pair@$$CBHPAVBaseDialog@@@std@@@3@$0A@@std@@@std@@IAEXXZ ; std::_Tree<std::_Tmap_traits<int,BaseDialog *,std::less<int>,std::allocator<std::pair<int const ,BaseDialog *> >,0> >::_Tidy
; Function compile flags: /Odt /RTCsu
; File d:\program files (x86)\microsoft visual studio .net 2003\vc7\include\xtree
;	COMDAT ??1?$_Tree@V?$_Tmap_traits@HPAVBaseDialog@@U?$less@H@std@@V?$allocator@U?$pair@$$CBHPAVBaseDialog@@@std@@@3@$0A@@std@@@std@@QAE@XZ
_TEXT	SEGMENT
_this$ = -4						; size = 4
??1?$_Tree@V?$_Tmap_traits@HPAVBaseDialog@@U?$less@H@std@@V?$allocator@U?$pair@$$CBHPAVBaseDialog@@@std@@@3@$0A@@std@@@std@@QAE@XZ PROC NEAR ; std::_Tree<std::_Tmap_traits<int,BaseDialog *,std::less<int>,std::allocator<std::pair<int const ,BaseDialog *> >,0> >::~_Tree<std::_Tmap_traits<int,BaseDialog *,std::less<int>,std::allocator<std::pair<int const ,BaseDialog *> >,0> >, COMDAT
; _this$ = ecx

; 391  : 		{	// destroy tree

  00000	55		 push	 ebp
  00001	8b ec		 mov	 ebp, esp
  00003	51		 push	 ecx
  00004	c7 45 fc cc cc
	cc cc		 mov	 DWORD PTR [ebp-4], -858993460 ; ccccccccH
  0000b	89 4d fc	 mov	 DWORD PTR _this$[ebp], ecx

; 392  : 		_Tidy();

  0000e	8b 4d fc	 mov	 ecx, DWORD PTR _this$[ebp]
  00011	e8 00 00 00 00	 call	 ?_Tidy@?$_Tree@V?$_Tmap_traits@HPAVBaseDialog@@U?$less@H@std@@V?$allocator@U?$pair@$$CBHPAVBaseDialog@@@std@@@3@$0A@@std@@@std@@IAEXXZ ; std::_Tree<std::_Tmap_traits<int,BaseDialog *,std::less<int>,std::allocator<std::pair<int const ,BaseDialog *> >,0> >::_Tidy

; 393  : 		}

  00016	83 c4 04	 add	 esp, 4
  00019	3b ec		 cmp	 ebp, esp
  0001b	e8 00 00 00 00	 call	 __RTC_CheckEsp
  00020	8b e5		 mov	 esp, ebp
  00022	5d		 pop	 ebp
  00023	c3		 ret	 0
??1?$_Tree@V?$_Tmap_traits@HPAVBaseDialog@@U?$less@H@std@@V?$allocator@U?$pair@$$CBHPAVBaseDialog@@@std@@@3@$0A@@std@@@std@@QAE@XZ ENDP ; std::_Tree<std::_Tmap_traits<int,BaseDialog *,std::less<int>,std::allocator<std::pair<int const ,BaseDialog *> >,0> >::~_Tree<std::_Tmap_traits<int,BaseDialog *,std::less<int>,std::allocator<std::pair<int const ,BaseDialog *> >,0> >
; Function compile flags: /Odt /RTCsu
_TEXT	ENDS
;	COMDAT ?size@?$_Tree@V?$_Tmap_traits@HPAVBaseDialog@@U?$less@H@std@@V?$allocator@U?$pair@$$CBHPAVBaseDialog@@@std@@@3@$0A@@std@@@std@@QBEIXZ
_TEXT	SEGMENT
_this$ = -4						; size = 4
?size@?$_Tree@V?$_Tmap_traits@HPAVBaseDialog@@U?$less@H@std@@V?$allocator@U?$pair@$$CBHPAVBaseDialog@@@std@@@3@$0A@@std@@@std@@QBEIXZ PROC NEAR ; std::_Tree<std::_Tmap_traits<int,BaseDialog *,std::less<int>,std::allocator<std::pair<int const ,BaseDialog *> >,0> >::size, COMDAT
; _this$ = ecx

; 447  : 		{	// return length of sequence

  00000	55		 push	 ebp
  00001	8b ec		 mov	 ebp, esp
  00003	51		 push	 ecx
  00004	c7 45 fc cc cc
	cc cc		 mov	 DWORD PTR [ebp-4], -858993460 ; ccccccccH
  0000b	89 4d fc	 mov	 DWORD PTR _this$[ebp], ecx

; 448  : 		return (_Mysize);

  0000e	8b 45 fc	 mov	 eax, DWORD PTR _this$[ebp]
  00011	8b 40 08	 mov	 eax, DWORD PTR [eax+8]

; 449  : 		}

  00014	8b e5		 mov	 esp, ebp
  00016	5d		 pop	 ebp
  00017	c3		 ret	 0
?size@?$_Tree@V?$_Tmap_traits@HPAVBaseDialog@@U?$less@H@std@@V?$allocator@U?$pair@$$CBHPAVBaseDialog@@@std@@@3@$0A@@std@@@std@@QBEIXZ ENDP ; std::_Tree<std::_Tmap_traits<int,BaseDialog *,std::less<int>,std::allocator<std::pair<int const ,BaseDialog *> >,0> >::size
_TEXT	ENDS
PUBLIC	?_Kfn@?$_Tmap_traits@HPAVBaseDialog@@U?$less@H@std@@V?$allocator@U?$pair@$$CBHPAVBaseDialog@@@std@@@3@$0A@@std@@SAABHABU?$pair@$$CBHPAVBaseDialog@@@2@@Z ; std::_Tmap_traits<int,BaseDialog *,std::less<int>,std::allocator<std::pair<int const ,BaseDialog *> >,0>::_Kfn
PUBLIC	?_Myval@?$_Tree@V?$_Tmap_traits@HPAVBaseDialog@@U?$less@H@std@@V?$allocator@U?$pair@$$CBHPAVBaseDialog@@@std@@@3@$0A@@std@@@std@@KAAAU?$pair@$$CBHPAVBaseDialog@@@2@PAU_Node@?$_Tree_nod@V?$_Tmap_traits@HPAVBaseDialog@@U?$less@H@std@@V?$allocator@U?$pair@$$CBHPAVBaseDialog@@@std@@@3@$0A@@std@@@2@@Z ; std::_Tree<std::_Tmap_traits<int,BaseDialog *,std::less<int>,std::allocator<std::pair<int const ,BaseDialog *> >,0> >::_Myval
; Function compile flags: /Odt /RTCsu
;	COMDAT ?_Key@?$_Tree@V?$_Tmap_traits@HPAVBaseDialog@@U?$less@H@std@@V?$allocator@U?$pair@$$CBHPAVBaseDialog@@@std@@@3@$0A@@std@@@std@@KAABHPAU_Node@?$_Tree_nod@V?$_Tmap_traits@HPAVBaseDialog@@U?$less@H@std@@V?$allocator@U?$pair@$$CBHPAVBaseDialog@@@std@@@3@$0A@@std@@@2@@Z
_TEXT	SEGMENT
__Pnode$ = 8						; size = 4
?_Key@?$_Tree@V?$_Tmap_traits@HPAVBaseDialog@@U?$less@H@std@@V?$allocator@U?$pair@$$CBHPAVBaseDialog@@@std@@@3@$0A@@std@@@std@@KAABHPAU_Node@?$_Tree_nod@V?$_Tmap_traits@HPAVBaseDialog@@U?$less@H@std@@V?$allocator@U?$pair@$$CBHPAVBaseDialog@@@std@@@3@$0A@@std@@@2@@Z PROC NEAR ; std::_Tree<std::_Tmap_traits<int,BaseDialog *,std::less<int>,std::allocator<std::pair<int const ,BaseDialog *> >,0> >::_Key, COMDAT

; 141  : 		{	// return reference to key in node

  00000	55		 push	 ebp
  00001	8b ec		 mov	 ebp, esp

; 142  : 		return (_Mybase::_Kfn(_Myval(_Pnode)));

  00003	8b 45 08	 mov	 eax, DWORD PTR __Pnode$[ebp]
  00006	50		 push	 eax
  00007	e8 00 00 00 00	 call	 ?_Myval@?$_Tree@V?$_Tmap_traits@HPAVBaseDialog@@U?$less@H@std@@V?$allocator@U?$pair@$$CBHPAVBaseDialog@@@std@@@3@$0A@@std@@@std@@KAAAU?$pair@$$CBHPAVBaseDialog@@@2@PAU_Node@?$_Tree_nod@V?$_Tmap_traits@HPAVBaseDialog@@U?$less@H@std@@V?$allocator@U?$pair@$$CBHPAVBaseDialog@@@std@@@3@$0A@@std@@@2@@Z ; std::_Tree<std::_Tmap_traits<int,BaseDialog *,std::less<int>,std::allocator<std::pair<int const ,BaseDialog *> >,0> >::_Myval
  0000c	83 c4 04	 add	 esp, 4
  0000f	50		 push	 eax
  00010	e8 00 00 00 00	 call	 ?_Kfn@?$_Tmap_traits@HPAVBaseDialog@@U?$less@H@std@@V?$allocator@U?$pair@$$CBHPAVBaseDialog@@@std@@@3@$0A@@std@@SAABHABU?$pair@$$CBHPAVBaseDialog@@@2@@Z ; std::_Tmap_traits<int,BaseDialog *,std::less<int>,std::allocator<std::pair<int const ,BaseDialog *> >,0>::_Kfn
  00015	83 c4 04	 add	 esp, 4

; 143  : 		}

  00018	3b ec		 cmp	 ebp, esp
  0001a	e8 00 00 00 00	 call	 __RTC_CheckEsp
  0001f	5d		 pop	 ebp
  00020	c3		 ret	 0
?_Key@?$_Tree@V?$_Tmap_traits@HPAVBaseDialog@@U?$less@H@std@@V?$allocator@U?$pair@$$CBHPAVBaseDialog@@@std@@@3@$0A@@std@@@std@@KAABHPAU_Node@?$_Tree_nod@V?$_Tmap_traits@HPAVBaseDialog@@U?$less@H@std@@V?$allocator@U?$pair@$$CBHPAVBaseDialog@@@std@@@3@$0A@@std@@@2@@Z ENDP ; std::_Tree<std::_Tmap_traits<int,BaseDialog *,std::less<int>,std::allocator<std::pair<int const ,BaseDialog *> >,0> >::_Key
_TEXT	ENDS
PUBLIC	??0?$allocator@U?$pair@$$CBHPAVBaseDialog@@@std@@@std@@QAE@ABV01@@Z ; std::allocator<std::pair<int const ,BaseDialog *> >::allocator<std::pair<int const ,BaseDialog *> >
PUBLIC	??0?$_Tree_val@V?$_Tmap_traits@HPAVBaseDialog@@U?$less@H@std@@V?$allocator@U?$pair@$$CBHPAVBaseDialog@@@std@@@3@$0A@@std@@@std@@IAE@ABU?$less@H@1@V?$allocator@U?$pair@$$CBHPAVBaseDialog@@@std@@@1@@Z ; std::_Tree_val<std::_Tmap_traits<int,BaseDialog *,std::less<int>,std::allocator<std::pair<int const ,BaseDialog *> >,0> >::_Tree_val<std::_Tmap_traits<int,BaseDialog *,std::less<int>,std::allocator<std::pair<int const ,BaseDialog *> >,0> >
PUBLIC	?_Init@?$_Tree@V?$_Tmap_traits@HPAVBaseDialog@@U?$less@H@std@@V?$allocator@U?$pair@$$CBHPAVBaseDialog@@@std@@@3@$0A@@std@@@std@@IAEXXZ ; std::_Tree<std::_Tmap_traits<int,BaseDialog *,std::less<int>,std::allocator<std::pair<int const ,BaseDialog *> >,0> >::_Init
; Function compile flags: /Odt /RTCsu
;	COMDAT ??0?$_Tree@V?$_Tmap_traits@HPAVBaseDialog@@U?$less@H@std@@V?$allocator@U?$pair@$$CBHPAVBaseDialog@@@std@@@3@$0A@@std@@@std@@QAE@ABU?$less@H@1@ABV?$allocator@U?$pair@$$CBHPAVBaseDialog@@@std@@@1@@Z
_TEXT	SEGMENT
_this$ = -4						; size = 4
__Parg$ = 8						; size = 4
__Al$ = 12						; size = 4
??0?$_Tree@V?$_Tmap_traits@HPAVBaseDialog@@U?$less@H@std@@V?$allocator@U?$pair@$$CBHPAVBaseDialog@@@std@@@3@$0A@@std@@@std@@QAE@ABU?$less@H@1@ABV?$allocator@U?$pair@$$CBHPAVBaseDialog@@@std@@@1@@Z PROC NEAR ; std::_Tree<std::_Tmap_traits<int,BaseDialog *,std::less<int>,std::allocator<std::pair<int const ,BaseDialog *> >,0> >::_Tree<std::_Tmap_traits<int,BaseDialog *,std::less<int>,std::allocator<std::pair<int const ,BaseDialog *> >,0> >, COMDAT
; _this$ = ecx

; 361  : 		{	// construct empty tree

  00000	55		 push	 ebp
  00001	8b ec		 mov	 ebp, esp
  00003	83 ec 08	 sub	 esp, 8
  00006	c7 45 f8 cc cc
	cc cc		 mov	 DWORD PTR [ebp-8], -858993460 ; ccccccccH
  0000d	c7 45 fc cc cc
	cc cc		 mov	 DWORD PTR [ebp-4], -858993460 ; ccccccccH
  00014	89 4d fc	 mov	 DWORD PTR _this$[ebp], ecx
  00017	51		 push	 ecx
  00018	8b cc		 mov	 ecx, esp
  0001a	8b 45 0c	 mov	 eax, DWORD PTR __Al$[ebp]
  0001d	50		 push	 eax
  0001e	e8 00 00 00 00	 call	 ??0?$allocator@U?$pair@$$CBHPAVBaseDialog@@@std@@@std@@QAE@ABV01@@Z ; std::allocator<std::pair<int const ,BaseDialog *> >::allocator<std::pair<int const ,BaseDialog *> >
  00023	8b 4d 08	 mov	 ecx, DWORD PTR __Parg$[ebp]
  00026	51		 push	 ecx
  00027	8b 4d fc	 mov	 ecx, DWORD PTR _this$[ebp]
  0002a	e8 00 00 00 00	 call	 ??0?$_Tree_val@V?$_Tmap_traits@HPAVBaseDialog@@U?$less@H@std@@V?$allocator@U?$pair@$$CBHPAVBaseDialog@@@std@@@3@$0A@@std@@@std@@IAE@ABU?$less@H@1@V?$allocator@U?$pair@$$CBHPAVBaseDialog@@@std@@@1@@Z ; std::_Tree_val<std::_Tmap_traits<int,BaseDialog *,std::less<int>,std::allocator<std::pair<int const ,BaseDialog *> >,0> >::_Tree_val<std::_Tmap_traits<int,BaseDialog *,std::less<int>,std::allocator<std::pair<int const ,BaseDialog *> >,0> >

; 362  : 		_Init();

  0002f	8b 4d fc	 mov	 ecx, DWORD PTR _this$[ebp]
  00032	e8 00 00 00 00	 call	 ?_Init@?$_Tree@V?$_Tmap_traits@HPAVBaseDialog@@U?$less@H@std@@V?$allocator@U?$pair@$$CBHPAVBaseDialog@@@std@@@3@$0A@@std@@@std@@IAEXXZ ; std::_Tree<std::_Tmap_traits<int,BaseDialog *,std::less<int>,std::allocator<std::pair<int const ,BaseDialog *> >,0> >::_Init

; 363  : 		}

  00037	8b 45 fc	 mov	 eax, DWORD PTR _this$[ebp]
  0003a	83 c4 08	 add	 esp, 8
  0003d	3b ec		 cmp	 ebp, esp
  0003f	e8 00 00 00 00	 call	 __RTC_CheckEsp
  00044	8b e5		 mov	 esp, ebp
  00046	5d		 pop	 ebp
  00047	c2 08 00	 ret	 8
??0?$_Tree@V?$_Tmap_traits@HPAVBaseDialog@@U?$less@H@std@@V?$allocator@U?$pair@$$CBHPAVBaseDialog@@@std@@@3@$0A@@std@@@std@@QAE@ABU?$less@H@1@ABV?$allocator@U?$pair@$$CBHPAVBaseDialog@@@std@@@1@@Z ENDP ; std::_Tree<std::_Tmap_traits<int,BaseDialog *,std::less<int>,std::allocator<std::pair<int const ,BaseDialog *> >,0> >::_Tree<std::_Tmap_traits<int,BaseDialog *,std::less<int>,std::allocator<std::pair<int const ,BaseDialog *> >,0> >
_TEXT	ENDS
PUBLIC	??0iterator@?$_Tree@V?$_Tmap_traits@HPAVBaseDialog@@U?$less@H@std@@V?$allocator@U?$pair@$$CBHPAVBaseDialog@@@std@@@3@$0A@@std@@@std@@QAE@PAU_Node@?$_Tree_nod@V?$_Tmap_traits@HPAVBaseDialog@@U?$less@H@std@@V?$allocator@U?$pair@$$CBHPAVBaseDialog@@@std@@@3@$0A@@std@@@2@@Z ; std::_Tree<std::_Tmap_traits<int,BaseDialog *,std::less<int>,std::allocator<std::pair<int const ,BaseDialog *> >,0> >::iterator::iterator
; Function compile flags: /Odt /RTCsu
;	COMDAT ?end@?$_Tree@V?$_Tmap_traits@HPAVBaseDialog@@U?$less@H@std@@V?$allocator@U?$pair@$$CBHPAVBaseDialog@@@std@@@3@$0A@@std@@@std@@QAE?AViterator@12@XZ
_TEXT	SEGMENT
_this$ = -4						; size = 4
___$ReturnUdt$ = 8					; size = 4
?end@?$_Tree@V?$_Tmap_traits@HPAVBaseDialog@@U?$less@H@std@@V?$allocator@U?$pair@$$CBHPAVBaseDialog@@@std@@@3@$0A@@std@@@std@@QAE?AViterator@12@XZ PROC NEAR ; std::_Tree<std::_Tmap_traits<int,BaseDialog *,std::less<int>,std::allocator<std::pair<int const ,BaseDialog *> >,0> >::end, COMDAT
; _this$ = ecx

; 417  : 		{	// return iterator for end of mutable sequence

  00000	55		 push	 ebp
  00001	8b ec		 mov	 ebp, esp
  00003	51		 push	 ecx
  00004	c7 45 fc cc cc
	cc cc		 mov	 DWORD PTR [ebp-4], -858993460 ; ccccccccH
  0000b	89 4d fc	 mov	 DWORD PTR _this$[ebp], ecx

; 418  : 		return (_TREE_ITERATOR(_Myhead));

  0000e	8b 45 fc	 mov	 eax, DWORD PTR _this$[ebp]
  00011	8b 48 04	 mov	 ecx, DWORD PTR [eax+4]
  00014	51		 push	 ecx
  00015	8b 4d 08	 mov	 ecx, DWORD PTR ___$ReturnUdt$[ebp]
  00018	e8 00 00 00 00	 call	 ??0iterator@?$_Tree@V?$_Tmap_traits@HPAVBaseDialog@@U?$less@H@std@@V?$allocator@U?$pair@$$CBHPAVBaseDialog@@@std@@@3@$0A@@std@@@std@@QAE@PAU_Node@?$_Tree_nod@V?$_Tmap_traits@HPAVBaseDialog@@U?$less@H@std@@V?$allocator@U?$pair@$$CBHPAVBaseDialog@@@std@@@3@$0A@@std@@@2@@Z ; std::_Tree<std::_Tmap_traits<int,BaseDialog *,std::less<int>,std::allocator<std::pair<int const ,BaseDialog *> >,0> >::iterator::iterator
  0001d	8b 45 08	 mov	 eax, DWORD PTR ___$ReturnUdt$[ebp]

; 419  : 		}

  00020	83 c4 04	 add	 esp, 4
  00023	3b ec		 cmp	 ebp, esp
  00025	e8 00 00 00 00	 call	 __RTC_CheckEsp
  0002a	8b e5		 mov	 esp, ebp
  0002c	5d		 pop	 ebp
  0002d	c2 04 00	 ret	 4
?end@?$_Tree@V?$_Tmap_traits@HPAVBaseDialog@@U?$less@H@std@@V?$allocator@U?$pair@$$CBHPAVBaseDialog@@@std@@@3@$0A@@std@@@std@@QAE?AViterator@12@XZ ENDP ; std::_Tree<std::_Tmap_traits<int,BaseDialog *,std::less<int>,std::allocator<std::pair<int const ,BaseDialog *> >,0> >::end
_TEXT	ENDS
PUBLIC	?_Isnil@?$_Tree@V?$_Tmap_traits@HPAVBaseDialog@@U?$less@H@std@@V?$allocator@U?$pair@$$CBHPAVBaseDialog@@@std@@@3@$0A@@std@@@std@@KAAADPAU_Node@?$_Tree_nod@V?$_Tmap_traits@HPAVBaseDialog@@U?$less@H@std@@V?$allocator@U?$pair@$$CBHPAVBaseDialog@@@std@@@3@$0A@@std@@@2@@Z ; std::_Tree<std::_Tmap_traits<int,BaseDialog *,std::less<int>,std::allocator<std::pair<int const ,BaseDialog *> >,0> >::_Isnil
PUBLIC	?_Right@?$_Tree@V?$_Tmap_traits@HPAVBaseDialog@@U?$less@H@std@@V?$allocator@U?$pair@$$CBHPAVBaseDialog@@@std@@@3@$0A@@std@@@std@@KAAAPAU_Node@?$_Tree_nod@V?$_Tmap_traits@HPAVBaseDialog@@U?$less@H@std@@V?$allocator@U?$pair@$$CBHPAVBaseDialog@@@std@@@3@$0A@@std@@@2@PAU342@@Z ; std::_Tree<std::_Tmap_traits<int,BaseDialog *,std::less<int>,std::allocator<std::pair<int const ,BaseDialog *> >,0> >::_Right
PUBLIC	?begin@?$_Tree@V?$_Tmap_traits@HPAVBaseDialog@@U?$less@H@std@@V?$allocator@U?$pair@$$CBHPAVBaseDialog@@@std@@@3@$0A@@std@@@std@@QAE?AViterator@12@XZ ; std::_Tree<std::_Tmap_traits<int,BaseDialog *,std::less<int>,std::allocator<std::pair<int const ,BaseDialog *> >,0> >::begin
PUBLIC	?insert@?$_Tree@V?$_Tmap_traits@HPAVBaseDialog@@U?$less@H@std@@V?$allocator@U?$pair@$$CBHPAVBaseDialog@@@std@@@3@$0A@@std@@@std@@QAE?AU?$pair@Viterator@?$_Tree@V?$_Tmap_traits@HPAVBaseDialog@@U?$less@H@std@@V?$allocator@U?$pair@$$CBHPAVBaseDialog@@@std@@@3@$0A@@std@@@std@@_N@2@ABU?$pair@$$CBHPAVBaseDialog@@@2@@Z ; std::_Tree<std::_Tmap_traits<int,BaseDialog *,std::less<int>,std::allocator<std::pair<int const ,BaseDialog *> >,0> >::insert
PUBLIC	?_Insert@?$_Tree@V?$_Tmap_traits@HPAVBaseDialog@@U?$less@H@std@@V?$allocator@U?$pair@$$CBHPAVBaseDialog@@@std@@@3@$0A@@std@@@std@@IAE?AViterator@12@_NPAU_Node@?$_Tree_nod@V?$_Tmap_traits@HPAVBaseDialog@@U?$less@H@std@@V?$allocator@U?$pair@$$CBHPAVBaseDialog@@@std@@@3@$0A@@std@@@2@ABU?$pair@$$CBHPAVBaseDialog@@@2@@Z ; std::_Tree<std::_Tmap_traits<int,BaseDialog *,std::less<int>,std::allocator<std::pair<int const ,BaseDialog *> >,0> >::_Insert
PUBLIC	?_Rmost@?$_Tree@V?$_Tmap_traits@HPAVBaseDialog@@U?$less@H@std@@V?$allocator@U?$pair@$$CBHPAVBaseDialog@@@std@@@3@$0A@@std@@@std@@IAEAAPAU_Node@?$_Tree_nod@V?$_Tmap_traits@HPAVBaseDialog@@U?$less@H@std@@V?$allocator@U?$pair@$$CBHPAVBaseDialog@@@std@@@3@$0A@@std@@@2@XZ ; std::_Tree<std::_Tmap_traits<int,BaseDialog *,std::less<int>,std::allocator<std::pair<int const ,BaseDialog *> >,0> >::_Rmost
PUBLIC	??0iterator@?$_Tree@V?$_Tmap_traits@HPAVBaseDialog@@U?$less@H@std@@V?$allocator@U?$pair@$$CBHPAVBaseDialog@@@std@@@3@$0A@@std@@@std@@QAE@XZ ; std::_Tree<std::_Tmap_traits<int,BaseDialog *,std::less<int>,std::allocator<std::pair<int const ,BaseDialog *> >,0> >::iterator::iterator
PUBLIC	??Eiterator@?$_Tree@V?$_Tmap_traits@HPAVBaseDialog@@U?$less@H@std@@V?$allocator@U?$pair@$$CBHPAVBaseDialog@@@std@@@3@$0A@@std@@@std@@QAEAAV012@XZ ; std::_Tree<std::_Tmap_traits<int,BaseDialog *,std::less<int>,std::allocator<std::pair<int const ,BaseDialog *> >,0> >::iterator::operator++
PUBLIC	??Fiterator@?$_Tree@V?$_Tmap_traits@HPAVBaseDialog@@U?$less@H@std@@V?$allocator@U?$pair@$$CBHPAVBaseDialog@@@std@@@3@$0A@@std@@@std@@QAEAAV012@XZ ; std::_Tree<std::_Tmap_traits<int,BaseDialog *,std::less<int>,std::allocator<std::pair<int const ,BaseDialog *> >,0> >::iterator::operator--
; Function compile flags: /Odt /RTCsu
;	COMDAT ?insert@?$_Tree@V?$_Tmap_traits@HPAVBaseDialog@@U?$less@H@std@@V?$allocator@U?$pair@$$CBHPAVBaseDialog@@@std@@@3@$0A@@std@@@std@@QAE?AViterator@12@V312@ABU?$pair@$$CBHPAVBaseDialog@@@2@@Z
_TEXT	SEGMENT
$T189563 = -48						; size = 8
$T189562 = -40						; size = 4
$T189561 = -36						; size = 4
$T189560 = -32						; size = 4
$T189559 = -28						; size = 4
$T189558 = -24						; size = 4
$T189557 = -20						; size = 4
__Next$ = -12						; size = 4
_this$ = -4						; size = 4
___$ReturnUdt$ = 8					; size = 4
__Where$ = 12						; size = 4
__Val$ = 16						; size = 4
?insert@?$_Tree@V?$_Tmap_traits@HPAVBaseDialog@@U?$less@H@std@@V?$allocator@U?$pair@$$CBHPAVBaseDialog@@@std@@@3@$0A@@std@@@std@@QAE?AViterator@12@V312@ABU?$pair@$$CBHPAVBaseDialog@@@2@@Z PROC NEAR ; std::_Tree<std::_Tmap_traits<int,BaseDialog *,std::less<int>,std::allocator<std::pair<int const ,BaseDialog *> >,0> >::insert, COMDAT
; _this$ = ecx

; 509  : 		{	// try to insert node with value _Val using _Where as a hint

  00000	55		 push	 ebp
  00001	8b ec		 mov	 ebp, esp
  00003	83 ec 30	 sub	 esp, 48			; 00000030H
  00006	57		 push	 edi
  00007	51		 push	 ecx
  00008	8d 7d d0	 lea	 edi, DWORD PTR [ebp-48]
  0000b	b9 0c 00 00 00	 mov	 ecx, 12			; 0000000cH
  00010	b8 cc cc cc cc	 mov	 eax, -858993460		; ccccccccH
  00015	f3 ab		 rep stosd
  00017	59		 pop	 ecx
  00018	89 4d fc	 mov	 DWORD PTR _this$[ebp], ecx

; 510  : 		iterator _Next;

  0001b	8d 4d f4	 lea	 ecx, DWORD PTR __Next$[ebp]
  0001e	e8 00 00 00 00	 call	 ??0iterator@?$_Tree@V?$_Tmap_traits@HPAVBaseDialog@@U?$less@H@std@@V?$allocator@U?$pair@$$CBHPAVBaseDialog@@@std@@@3@$0A@@std@@@std@@QAE@XZ ; std::_Tree<std::_Tmap_traits<int,BaseDialog *,std::less<int>,std::allocator<std::pair<int const ,BaseDialog *> >,0> >::iterator::iterator

; 511  : 
; 512  : 		if (size() == 0)

  00023	8b 4d fc	 mov	 ecx, DWORD PTR _this$[ebp]
  00026	e8 00 00 00 00	 call	 ?size@?$_Tree@V?$_Tmap_traits@HPAVBaseDialog@@U?$less@H@std@@V?$allocator@U?$pair@$$CBHPAVBaseDialog@@@std@@@3@$0A@@std@@@std@@QBEIXZ ; std::_Tree<std::_Tmap_traits<int,BaseDialog *,std::less<int>,std::allocator<std::pair<int const ,BaseDialog *> >,0> >::size
  0002b	85 c0		 test	 eax, eax
  0002d	75 21		 jne	 SHORT $L188405

; 513  : 			return (_Insert(true, _Myhead, _Val));	// insert into empty tree

  0002f	8b 45 10	 mov	 eax, DWORD PTR __Val$[ebp]
  00032	50		 push	 eax
  00033	8b 4d fc	 mov	 ecx, DWORD PTR _this$[ebp]
  00036	8b 51 04	 mov	 edx, DWORD PTR [ecx+4]
  00039	52		 push	 edx
  0003a	6a 01		 push	 1
  0003c	8b 45 08	 mov	 eax, DWORD PTR ___$ReturnUdt$[ebp]
  0003f	50		 push	 eax
  00040	8b 4d fc	 mov	 ecx, DWORD PTR _this$[ebp]
  00043	e8 00 00 00 00	 call	 ?_Insert@?$_Tree@V?$_Tmap_traits@HPAVBaseDialog@@U?$less@H@std@@V?$allocator@U?$pair@$$CBHPAVBaseDialog@@@std@@@3@$0A@@std@@@std@@IAE?AViterator@12@_NPAU_Node@?$_Tree_nod@V?$_Tmap_traits@HPAVBaseDialog@@U?$less@H@std@@V?$allocator@U?$pair@$$CBHPAVBaseDialog@@@std@@@3@$0A@@std@@@2@ABU?$pair@$$CBHPAVBaseDialog@@@2@@Z ; std::_Tree<std::_Tmap_traits<int,BaseDialog *,std::less<int>,std::allocator<std::pair<int const ,BaseDialog *> >,0> >::_Insert
  00048	8b 45 08	 mov	 eax, DWORD PTR ___$ReturnUdt$[ebp]
  0004b	e9 81 05 00 00	 jmp	 $L188403
$L188405:

; 514  : 		else if (this->_Multi)

  00050	33 c9		 xor	 ecx, ecx
  00052	0f 84 b5 02 00
	00		 je	 $L188408

; 515  : 			{	// insert even if duplicate
; 516  : 			if (_Where == begin())

  00058	8d 55 ec	 lea	 edx, DWORD PTR $T189557[ebp]
  0005b	52		 push	 edx
  0005c	8b 4d fc	 mov	 ecx, DWORD PTR _this$[ebp]
  0005f	e8 00 00 00 00	 call	 ?begin@?$_Tree@V?$_Tmap_traits@HPAVBaseDialog@@U?$less@H@std@@V?$allocator@U?$pair@$$CBHPAVBaseDialog@@@std@@@3@$0A@@std@@@std@@QAE?AViterator@12@XZ ; std::_Tree<std::_Tmap_traits<int,BaseDialog *,std::less<int>,std::allocator<std::pair<int const ,BaseDialog *> >,0> >::begin
  00064	50		 push	 eax
  00065	8d 4d 0c	 lea	 ecx, DWORD PTR __Where$[ebp]
  00068	e8 00 00 00 00	 call	 ??8const_iterator@?$_Tree@V?$_Tmap_traits@HPAVBaseDialog@@U?$less@H@std@@V?$allocator@U?$pair@$$CBHPAVBaseDialog@@@std@@@3@$0A@@std@@@std@@QBE_NABV012@@Z ; std::_Tree<std::_Tmap_traits<int,BaseDialog *,std::less<int>,std::allocator<std::pair<int const ,BaseDialog *> >,0> >::const_iterator::operator==
  0006d	0f b6 c0	 movzx	 eax, al
  00070	85 c0		 test	 eax, eax
  00072	74 56		 je	 SHORT $L188410

; 517  : 				{	// insert at beginning if before first element
; 518  : 				if (!this->comp(_Key(_Where._Mynode()), this->_Kfn(_Val)))

  00074	8b 4d 10	 mov	 ecx, DWORD PTR __Val$[ebp]
  00077	51		 push	 ecx
  00078	e8 00 00 00 00	 call	 ?_Kfn@?$_Tmap_traits@HPAVBaseDialog@@U?$less@H@std@@V?$allocator@U?$pair@$$CBHPAVBaseDialog@@@std@@@3@$0A@@std@@SAABHABU?$pair@$$CBHPAVBaseDialog@@@2@@Z ; std::_Tmap_traits<int,BaseDialog *,std::less<int>,std::allocator<std::pair<int const ,BaseDialog *> >,0>::_Kfn
  0007d	83 c4 04	 add	 esp, 4
  00080	50		 push	 eax
  00081	8d 4d 0c	 lea	 ecx, DWORD PTR __Where$[ebp]
  00084	e8 00 00 00 00	 call	 ?_Mynode@const_iterator@?$_Tree@V?$_Tmap_traits@HPAVBaseDialog@@U?$less@H@std@@V?$allocator@U?$pair@$$CBHPAVBaseDialog@@@std@@@3@$0A@@std@@@std@@QBEPAU_Node@?$_Tree_nod@V?$_Tmap_traits@HPAVBaseDialog@@U?$less@H@std@@V?$allocator@U?$pair@$$CBHPAVBaseDialog@@@std@@@3@$0A@@std@@@3@XZ ; std::_Tree<std::_Tmap_traits<int,BaseDialog *,std::less<int>,std::allocator<std::pair<int const ,BaseDialog *> >,0> >::const_iterator::_Mynode
  00089	50		 push	 eax
  0008a	e8 00 00 00 00	 call	 ?_Key@?$_Tree@V?$_Tmap_traits@HPAVBaseDialog@@U?$less@H@std@@V?$allocator@U?$pair@$$CBHPAVBaseDialog@@@std@@@3@$0A@@std@@@std@@KAABHPAU_Node@?$_Tree_nod@V?$_Tmap_traits@HPAVBaseDialog@@U?$less@H@std@@V?$allocator@U?$pair@$$CBHPAVBaseDialog@@@std@@@3@$0A@@std@@@2@@Z ; std::_Tree<std::_Tmap_traits<int,BaseDialog *,std::less<int>,std::allocator<std::pair<int const ,BaseDialog *> >,0> >::_Key
  0008f	83 c4 04	 add	 esp, 4
  00092	50		 push	 eax
  00093	8b 4d fc	 mov	 ecx, DWORD PTR _this$[ebp]
  00096	e8 00 00 00 00	 call	 ??R?$less@H@std@@QBE_NABH0@Z ; std::less<int>::operator()
  0009b	0f b6 d0	 movzx	 edx, al
  0009e	85 d2		 test	 edx, edx
  000a0	75 23		 jne	 SHORT $L188411

; 519  : 					return (_Insert(true, _Where._Mynode(), _Val));

  000a2	8b 45 10	 mov	 eax, DWORD PTR __Val$[ebp]
  000a5	50		 push	 eax
  000a6	8d 4d 0c	 lea	 ecx, DWORD PTR __Where$[ebp]
  000a9	e8 00 00 00 00	 call	 ?_Mynode@const_iterator@?$_Tree@V?$_Tmap_traits@HPAVBaseDialog@@U?$less@H@std@@V?$allocator@U?$pair@$$CBHPAVBaseDialog@@@std@@@3@$0A@@std@@@std@@QBEPAU_Node@?$_Tree_nod@V?$_Tmap_traits@HPAVBaseDialog@@U?$less@H@std@@V?$allocator@U?$pair@$$CBHPAVBaseDialog@@@std@@@3@$0A@@std@@@3@XZ ; std::_Tree<std::_Tmap_traits<int,BaseDialog *,std::less<int>,std::allocator<std::pair<int const ,BaseDialog *> >,0> >::const_iterator::_Mynode
  000ae	50		 push	 eax
  000af	6a 01		 push	 1
  000b1	8b 4d 08	 mov	 ecx, DWORD PTR ___$ReturnUdt$[ebp]
  000b4	51		 push	 ecx
  000b5	8b 4d fc	 mov	 ecx, DWORD PTR _this$[ebp]
  000b8	e8 00 00 00 00	 call	 ?_Insert@?$_Tree@V?$_Tmap_traits@HPAVBaseDialog@@U?$less@H@std@@V?$allocator@U?$pair@$$CBHPAVBaseDialog@@@std@@@3@$0A@@std@@@std@@IAE?AViterator@12@_NPAU_Node@?$_Tree_nod@V?$_Tmap_traits@HPAVBaseDialog@@U?$less@H@std@@V?$allocator@U?$pair@$$CBHPAVBaseDialog@@@std@@@3@$0A@@std@@@2@ABU?$pair@$$CBHPAVBaseDialog@@@2@@Z ; std::_Tree<std::_Tmap_traits<int,BaseDialog *,std::less<int>,std::allocator<std::pair<int const ,BaseDialog *> >,0> >::_Insert
  000bd	8b 45 08	 mov	 eax, DWORD PTR ___$ReturnUdt$[ebp]
  000c0	e9 0c 05 00 00	 jmp	 $L188403
$L188411:

; 520  : 				}
; 521  : 			else if (_Where == end())

  000c5	e9 3e 02 00 00	 jmp	 $L188413
$L188410:
  000ca	8d 55 e8	 lea	 edx, DWORD PTR $T189558[ebp]
  000cd	52		 push	 edx
  000ce	8b 4d fc	 mov	 ecx, DWORD PTR _this$[ebp]
  000d1	e8 00 00 00 00	 call	 ?end@?$_Tree@V?$_Tmap_traits@HPAVBaseDialog@@U?$less@H@std@@V?$allocator@U?$pair@$$CBHPAVBaseDialog@@@std@@@3@$0A@@std@@@std@@QAE?AViterator@12@XZ ; std::_Tree<std::_Tmap_traits<int,BaseDialog *,std::less<int>,std::allocator<std::pair<int const ,BaseDialog *> >,0> >::end
  000d6	50		 push	 eax
  000d7	8d 4d 0c	 lea	 ecx, DWORD PTR __Where$[ebp]
  000da	e8 00 00 00 00	 call	 ??8const_iterator@?$_Tree@V?$_Tmap_traits@HPAVBaseDialog@@U?$less@H@std@@V?$allocator@U?$pair@$$CBHPAVBaseDialog@@@std@@@3@$0A@@std@@@std@@QBE_NABV012@@Z ; std::_Tree<std::_Tmap_traits<int,BaseDialog *,std::less<int>,std::allocator<std::pair<int const ,BaseDialog *> >,0> >::const_iterator::operator==
  000df	0f b6 c0	 movzx	 eax, al
  000e2	85 c0		 test	 eax, eax
  000e4	74 5a		 je	 SHORT $L188415

; 522  : 				{	// insert at end if after last element
; 523  : 				if (!this->comp(this->_Kfn(_Val), _Key(_Rmost())))

  000e6	8b 4d fc	 mov	 ecx, DWORD PTR _this$[ebp]
  000e9	e8 00 00 00 00	 call	 ?_Rmost@?$_Tree@V?$_Tmap_traits@HPAVBaseDialog@@U?$less@H@std@@V?$allocator@U?$pair@$$CBHPAVBaseDialog@@@std@@@3@$0A@@std@@@std@@IAEAAPAU_Node@?$_Tree_nod@V?$_Tmap_traits@HPAVBaseDialog@@U?$less@H@std@@V?$allocator@U?$pair@$$CBHPAVBaseDialog@@@std@@@3@$0A@@std@@@2@XZ ; std::_Tree<std::_Tmap_traits<int,BaseDialog *,std::less<int>,std::allocator<std::pair<int const ,BaseDialog *> >,0> >::_Rmost
  000ee	8b 08		 mov	 ecx, DWORD PTR [eax]
  000f0	51		 push	 ecx
  000f1	e8 00 00 00 00	 call	 ?_Key@?$_Tree@V?$_Tmap_traits@HPAVBaseDialog@@U?$less@H@std@@V?$allocator@U?$pair@$$CBHPAVBaseDialog@@@std@@@3@$0A@@std@@@std@@KAABHPAU_Node@?$_Tree_nod@V?$_Tmap_traits@HPAVBaseDialog@@U?$less@H@std@@V?$allocator@U?$pair@$$CBHPAVBaseDialog@@@std@@@3@$0A@@std@@@2@@Z ; std::_Tree<std::_Tmap_traits<int,BaseDialog *,std::less<int>,std::allocator<std::pair<int const ,BaseDialog *> >,0> >::_Key
  000f6	83 c4 04	 add	 esp, 4
  000f9	50		 push	 eax
  000fa	8b 55 10	 mov	 edx, DWORD PTR __Val$[ebp]
  000fd	52		 push	 edx
  000fe	e8 00 00 00 00	 call	 ?_Kfn@?$_Tmap_traits@HPAVBaseDialog@@U?$less@H@std@@V?$allocator@U?$pair@$$CBHPAVBaseDialog@@@std@@@3@$0A@@std@@SAABHABU?$pair@$$CBHPAVBaseDialog@@@2@@Z ; std::_Tmap_traits<int,BaseDialog *,std::less<int>,std::allocator<std::pair<int const ,BaseDialog *> >,0>::_Kfn
  00103	83 c4 04	 add	 esp, 4
  00106	50		 push	 eax
  00107	8b 4d fc	 mov	 ecx, DWORD PTR _this$[ebp]
  0010a	e8 00 00 00 00	 call	 ??R?$less@H@std@@QBE_NABH0@Z ; std::less<int>::operator()
  0010f	0f b6 c0	 movzx	 eax, al
  00112	85 c0		 test	 eax, eax
  00114	75 25		 jne	 SHORT $L188416

; 524  : 					return (_Insert(false, _Rmost(), _Val));

  00116	8b 4d 10	 mov	 ecx, DWORD PTR __Val$[ebp]
  00119	51		 push	 ecx
  0011a	8b 4d fc	 mov	 ecx, DWORD PTR _this$[ebp]
  0011d	e8 00 00 00 00	 call	 ?_Rmost@?$_Tree@V?$_Tmap_traits@HPAVBaseDialog@@U?$less@H@std@@V?$allocator@U?$pair@$$CBHPAVBaseDialog@@@std@@@3@$0A@@std@@@std@@IAEAAPAU_Node@?$_Tree_nod@V?$_Tmap_traits@HPAVBaseDialog@@U?$less@H@std@@V?$allocator@U?$pair@$$CBHPAVBaseDialog@@@std@@@3@$0A@@std@@@2@XZ ; std::_Tree<std::_Tmap_traits<int,BaseDialog *,std::less<int>,std::allocator<std::pair<int const ,BaseDialog *> >,0> >::_Rmost
  00122	8b 10		 mov	 edx, DWORD PTR [eax]
  00124	52		 push	 edx
  00125	6a 00		 push	 0
  00127	8b 45 08	 mov	 eax, DWORD PTR ___$ReturnUdt$[ebp]
  0012a	50		 push	 eax
  0012b	8b 4d fc	 mov	 ecx, DWORD PTR _this$[ebp]
  0012e	e8 00 00 00 00	 call	 ?_Insert@?$_Tree@V?$_Tmap_traits@HPAVBaseDialog@@U?$less@H@std@@V?$allocator@U?$pair@$$CBHPAVBaseDialog@@@std@@@3@$0A@@std@@@std@@IAE?AViterator@12@_NPAU_Node@?$_Tree_nod@V?$_Tmap_traits@HPAVBaseDialog@@U?$less@H@std@@V?$allocator@U?$pair@$$CBHPAVBaseDialog@@@std@@@3@$0A@@std@@@2@ABU?$pair@$$CBHPAVBaseDialog@@@2@@Z ; std::_Tree<std::_Tmap_traits<int,BaseDialog *,std::less<int>,std::allocator<std::pair<int const ,BaseDialog *> >,0> >::_Insert
  00133	8b 45 08	 mov	 eax, DWORD PTR ___$ReturnUdt$[ebp]
  00136	e9 96 04 00 00	 jmp	 $L188403
$L188416:

; 525  : 				}
; 526  : 			else if (!this->comp(_Key(_Where._Mynode()), this->_Kfn(_Val))

  0013b	e9 c8 01 00 00	 jmp	 $L188413
$L188415:

; 527  : 				&& !this->comp(this->_Kfn(_Val),
; 528  : 					_Key((--(_Next = _Where))._Mynode())))

  00140	8b 4d 10	 mov	 ecx, DWORD PTR __Val$[ebp]
  00143	51		 push	 ecx
  00144	e8 00 00 00 00	 call	 ?_Kfn@?$_Tmap_traits@HPAVBaseDialog@@U?$less@H@std@@V?$allocator@U?$pair@$$CBHPAVBaseDialog@@@std@@@3@$0A@@std@@SAABHABU?$pair@$$CBHPAVBaseDialog@@@2@@Z ; std::_Tmap_traits<int,BaseDialog *,std::less<int>,std::allocator<std::pair<int const ,BaseDialog *> >,0>::_Kfn
  00149	83 c4 04	 add	 esp, 4
  0014c	50		 push	 eax
  0014d	8d 4d 0c	 lea	 ecx, DWORD PTR __Where$[ebp]
  00150	e8 00 00 00 00	 call	 ?_Mynode@const_iterator@?$_Tree@V?$_Tmap_traits@HPAVBaseDialog@@U?$less@H@std@@V?$allocator@U?$pair@$$CBHPAVBaseDialog@@@std@@@3@$0A@@std@@@std@@QBEPAU_Node@?$_Tree_nod@V?$_Tmap_traits@HPAVBaseDialog@@U?$less@H@std@@V?$allocator@U?$pair@$$CBHPAVBaseDialog@@@std@@@3@$0A@@std@@@3@XZ ; std::_Tree<std::_Tmap_traits<int,BaseDialog *,std::less<int>,std::allocator<std::pair<int const ,BaseDialog *> >,0> >::const_iterator::_Mynode
  00155	50		 push	 eax
  00156	e8 00 00 00 00	 call	 ?_Key@?$_Tree@V?$_Tmap_traits@HPAVBaseDialog@@U?$less@H@std@@V?$allocator@U?$pair@$$CBHPAVBaseDialog@@@std@@@3@$0A@@std@@@std@@KAABHPAU_Node@?$_Tree_nod@V?$_Tmap_traits@HPAVBaseDialog@@U?$less@H@std@@V?$allocator@U?$pair@$$CBHPAVBaseDialog@@@std@@@3@$0A@@std@@@2@@Z ; std::_Tree<std::_Tmap_traits<int,BaseDialog *,std::less<int>,std::allocator<std::pair<int const ,BaseDialog *> >,0> >::_Key
  0015b	83 c4 04	 add	 esp, 4
  0015e	50		 push	 eax
  0015f	8b 4d fc	 mov	 ecx, DWORD PTR _this$[ebp]
  00162	e8 00 00 00 00	 call	 ??R?$less@H@std@@QBE_NABH0@Z ; std::less<int>::operator()
  00167	0f b6 d0	 movzx	 edx, al
  0016a	85 d2		 test	 edx, edx
  0016c	0f 85 a4 00 00
	00		 jne	 $L188419
  00172	8b 45 0c	 mov	 eax, DWORD PTR __Where$[ebp]
  00175	89 45 f4	 mov	 DWORD PTR __Next$[ebp], eax
  00178	8d 4d f4	 lea	 ecx, DWORD PTR __Next$[ebp]
  0017b	e8 00 00 00 00	 call	 ??Fiterator@?$_Tree@V?$_Tmap_traits@HPAVBaseDialog@@U?$less@H@std@@V?$allocator@U?$pair@$$CBHPAVBaseDialog@@@std@@@3@$0A@@std@@@std@@QAEAAV012@XZ ; std::_Tree<std::_Tmap_traits<int,BaseDialog *,std::less<int>,std::allocator<std::pair<int const ,BaseDialog *> >,0> >::iterator::operator--
  00180	8b c8		 mov	 ecx, eax
  00182	e8 00 00 00 00	 call	 ?_Mynode@const_iterator@?$_Tree@V?$_Tmap_traits@HPAVBaseDialog@@U?$less@H@std@@V?$allocator@U?$pair@$$CBHPAVBaseDialog@@@std@@@3@$0A@@std@@@std@@QBEPAU_Node@?$_Tree_nod@V?$_Tmap_traits@HPAVBaseDialog@@U?$less@H@std@@V?$allocator@U?$pair@$$CBHPAVBaseDialog@@@std@@@3@$0A@@std@@@3@XZ ; std::_Tree<std::_Tmap_traits<int,BaseDialog *,std::less<int>,std::allocator<std::pair<int const ,BaseDialog *> >,0> >::const_iterator::_Mynode
  00187	50		 push	 eax
  00188	e8 00 00 00 00	 call	 ?_Key@?$_Tree@V?$_Tmap_traits@HPAVBaseDialog@@U?$less@H@std@@V?$allocator@U?$pair@$$CBHPAVBaseDialog@@@std@@@3@$0A@@std@@@std@@KAABHPAU_Node@?$_Tree_nod@V?$_Tmap_traits@HPAVBaseDialog@@U?$less@H@std@@V?$allocator@U?$pair@$$CBHPAVBaseDialog@@@std@@@3@$0A@@std@@@2@@Z ; std::_Tree<std::_Tmap_traits<int,BaseDialog *,std::less<int>,std::allocator<std::pair<int const ,BaseDialog *> >,0> >::_Key
  0018d	83 c4 04	 add	 esp, 4
  00190	50		 push	 eax
  00191	8b 4d 10	 mov	 ecx, DWORD PTR __Val$[ebp]
  00194	51		 push	 ecx
  00195	e8 00 00 00 00	 call	 ?_Kfn@?$_Tmap_traits@HPAVBaseDialog@@U?$less@H@std@@V?$allocator@U?$pair@$$CBHPAVBaseDialog@@@std@@@3@$0A@@std@@SAABHABU?$pair@$$CBHPAVBaseDialog@@@2@@Z ; std::_Tmap_traits<int,BaseDialog *,std::less<int>,std::allocator<std::pair<int const ,BaseDialog *> >,0>::_Kfn
  0019a	83 c4 04	 add	 esp, 4
  0019d	50		 push	 eax
  0019e	8b 4d fc	 mov	 ecx, DWORD PTR _this$[ebp]
  001a1	e8 00 00 00 00	 call	 ??R?$less@H@std@@QBE_NABH0@Z ; std::less<int>::operator()
  001a6	0f b6 d0	 movzx	 edx, al
  001a9	85 d2		 test	 edx, edx
  001ab	75 69		 jne	 SHORT $L188419

; 529  : 				{	// insert before _Where
; 530  : 				if (_Isnil(_Right(_Next._Mynode())))

  001ad	8d 4d f4	 lea	 ecx, DWORD PTR __Next$[ebp]
  001b0	e8 00 00 00 00	 call	 ?_Mynode@const_iterator@?$_Tree@V?$_Tmap_traits@HPAVBaseDialog@@U?$less@H@std@@V?$allocator@U?$pair@$$CBHPAVBaseDialog@@@std@@@3@$0A@@std@@@std@@QBEPAU_Node@?$_Tree_nod@V?$_Tmap_traits@HPAVBaseDialog@@U?$less@H@std@@V?$allocator@U?$pair@$$CBHPAVBaseDialog@@@std@@@3@$0A@@std@@@3@XZ ; std::_Tree<std::_Tmap_traits<int,BaseDialog *,std::less<int>,std::allocator<std::pair<int const ,BaseDialog *> >,0> >::const_iterator::_Mynode
  001b5	50		 push	 eax
  001b6	e8 00 00 00 00	 call	 ?_Right@?$_Tree@V?$_Tmap_traits@HPAVBaseDialog@@U?$less@H@std@@V?$allocator@U?$pair@$$CBHPAVBaseDialog@@@std@@@3@$0A@@std@@@std@@KAAAPAU_Node@?$_Tree_nod@V?$_Tmap_traits@HPAVBaseDialog@@U?$less@H@std@@V?$allocator@U?$pair@$$CBHPAVBaseDialog@@@std@@@3@$0A@@std@@@2@PAU342@@Z ; std::_Tree<std::_Tmap_traits<int,BaseDialog *,std::less<int>,std::allocator<std::pair<int const ,BaseDialog *> >,0> >::_Right
  001bb	83 c4 04	 add	 esp, 4
  001be	8b 00		 mov	 eax, DWORD PTR [eax]
  001c0	50		 push	 eax
  001c1	e8 00 00 00 00	 call	 ?_Isnil@?$_Tree@V?$_Tmap_traits@HPAVBaseDialog@@U?$less@H@std@@V?$allocator@U?$pair@$$CBHPAVBaseDialog@@@std@@@3@$0A@@std@@@std@@KAAADPAU_Node@?$_Tree_nod@V?$_Tmap_traits@HPAVBaseDialog@@U?$less@H@std@@V?$allocator@U?$pair@$$CBHPAVBaseDialog@@@std@@@3@$0A@@std@@@2@@Z ; std::_Tree<std::_Tmap_traits<int,BaseDialog *,std::less<int>,std::allocator<std::pair<int const ,BaseDialog *> >,0> >::_Isnil
  001c6	83 c4 04	 add	 esp, 4
  001c9	0f be 08	 movsx	 ecx, BYTE PTR [eax]
  001cc	85 c9		 test	 ecx, ecx
  001ce	74 23		 je	 SHORT $L188420

; 531  : 					return (_Insert(false, _Next._Mynode(), _Val));

  001d0	8b 55 10	 mov	 edx, DWORD PTR __Val$[ebp]
  001d3	52		 push	 edx
  001d4	8d 4d f4	 lea	 ecx, DWORD PTR __Next$[ebp]
  001d7	e8 00 00 00 00	 call	 ?_Mynode@const_iterator@?$_Tree@V?$_Tmap_traits@HPAVBaseDialog@@U?$less@H@std@@V?$allocator@U?$pair@$$CBHPAVBaseDialog@@@std@@@3@$0A@@std@@@std@@QBEPAU_Node@?$_Tree_nod@V?$_Tmap_traits@HPAVBaseDialog@@U?$less@H@std@@V?$allocator@U?$pair@$$CBHPAVBaseDialog@@@std@@@3@$0A@@std@@@3@XZ ; std::_Tree<std::_Tmap_traits<int,BaseDialog *,std::less<int>,std::allocator<std::pair<int const ,BaseDialog *> >,0> >::const_iterator::_Mynode
  001dc	50		 push	 eax
  001dd	6a 00		 push	 0
  001df	8b 45 08	 mov	 eax, DWORD PTR ___$ReturnUdt$[ebp]
  001e2	50		 push	 eax
  001e3	8b 4d fc	 mov	 ecx, DWORD PTR _this$[ebp]
  001e6	e8 00 00 00 00	 call	 ?_Insert@?$_Tree@V?$_Tmap_traits@HPAVBaseDialog@@U?$less@H@std@@V?$allocator@U?$pair@$$CBHPAVBaseDialog@@@std@@@3@$0A@@std@@@std@@IAE?AViterator@12@_NPAU_Node@?$_Tree_nod@V?$_Tmap_traits@HPAVBaseDialog@@U?$less@H@std@@V?$allocator@U?$pair@$$CBHPAVBaseDialog@@@std@@@3@$0A@@std@@@2@ABU?$pair@$$CBHPAVBaseDialog@@@2@@Z ; std::_Tree<std::_Tmap_traits<int,BaseDialog *,std::less<int>,std::allocator<std::pair<int const ,BaseDialog *> >,0> >::_Insert
  001eb	8b 45 08	 mov	 eax, DWORD PTR ___$ReturnUdt$[ebp]
  001ee	e9 de 03 00 00	 jmp	 $L188403
$L188420:

; 532  : 				else
; 533  : 					return (_Insert(true, _Where._Mynode(), _Val));

  001f3	8b 4d 10	 mov	 ecx, DWORD PTR __Val$[ebp]
  001f6	51		 push	 ecx
  001f7	8d 4d 0c	 lea	 ecx, DWORD PTR __Where$[ebp]
  001fa	e8 00 00 00 00	 call	 ?_Mynode@const_iterator@?$_Tree@V?$_Tmap_traits@HPAVBaseDialog@@U?$less@H@std@@V?$allocator@U?$pair@$$CBHPAVBaseDialog@@@std@@@3@$0A@@std@@@std@@QBEPAU_Node@?$_Tree_nod@V?$_Tmap_traits@HPAVBaseDialog@@U?$less@H@std@@V?$allocator@U?$pair@$$CBHPAVBaseDialog@@@std@@@3@$0A@@std@@@3@XZ ; std::_Tree<std::_Tmap_traits<int,BaseDialog *,std::less<int>,std::allocator<std::pair<int const ,BaseDialog *> >,0> >::const_iterator::_Mynode
  001ff	50		 push	 eax
  00200	6a 01		 push	 1
  00202	8b 55 08	 mov	 edx, DWORD PTR ___$ReturnUdt$[ebp]
  00205	52		 push	 edx
  00206	8b 4d fc	 mov	 ecx, DWORD PTR _this$[ebp]
  00209	e8 00 00 00 00	 call	 ?_Insert@?$_Tree@V?$_Tmap_traits@HPAVBaseDialog@@U?$less@H@std@@V?$allocator@U?$pair@$$CBHPAVBaseDialog@@@std@@@3@$0A@@std@@@std@@IAE?AViterator@12@_NPAU_Node@?$_Tree_nod@V?$_Tmap_traits@HPAVBaseDialog@@U?$less@H@std@@V?$allocator@U?$pair@$$CBHPAVBaseDialog@@@std@@@3@$0A@@std@@@2@ABU?$pair@$$CBHPAVBaseDialog@@@2@@Z ; std::_Tree<std::_Tmap_traits<int,BaseDialog *,std::less<int>,std::allocator<std::pair<int const ,BaseDialog *> >,0> >::_Insert
  0020e	8b 45 08	 mov	 eax, DWORD PTR ___$ReturnUdt$[ebp]
  00211	e9 bb 03 00 00	 jmp	 $L188403
$L188419:

; 534  : 				}
; 535  : 			else if (!this->comp(this->_Kfn(_Val), _Key(_Where._Mynode()))
; 536  : 				&& (++(_Next = _Where) == end()
; 537  : 					|| !this->comp(_Key(_Next._Mynode()),
; 538  : 						this->_Kfn(_Val))))

  00216	8d 4d 0c	 lea	 ecx, DWORD PTR __Where$[ebp]
  00219	e8 00 00 00 00	 call	 ?_Mynode@const_iterator@?$_Tree@V?$_Tmap_traits@HPAVBaseDialog@@U?$less@H@std@@V?$allocator@U?$pair@$$CBHPAVBaseDialog@@@std@@@3@$0A@@std@@@std@@QBEPAU_Node@?$_Tree_nod@V?$_Tmap_traits@HPAVBaseDialog@@U?$less@H@std@@V?$allocator@U?$pair@$$CBHPAVBaseDialog@@@std@@@3@$0A@@std@@@3@XZ ; std::_Tree<std::_Tmap_traits<int,BaseDialog *,std::less<int>,std::allocator<std::pair<int const ,BaseDialog *> >,0> >::const_iterator::_Mynode
  0021e	50		 push	 eax
  0021f	e8 00 00 00 00	 call	 ?_Key@?$_Tree@V?$_Tmap_traits@HPAVBaseDialog@@U?$less@H@std@@V?$allocator@U?$pair@$$CBHPAVBaseDialog@@@std@@@3@$0A@@std@@@std@@KAABHPAU_Node@?$_Tree_nod@V?$_Tmap_traits@HPAVBaseDialog@@U?$less@H@std@@V?$allocator@U?$pair@$$CBHPAVBaseDialog@@@std@@@3@$0A@@std@@@2@@Z ; std::_Tree<std::_Tmap_traits<int,BaseDialog *,std::less<int>,std::allocator<std::pair<int const ,BaseDialog *> >,0> >::_Key
  00224	83 c4 04	 add	 esp, 4
  00227	50		 push	 eax
  00228	8b 45 10	 mov	 eax, DWORD PTR __Val$[ebp]
  0022b	50		 push	 eax
  0022c	e8 00 00 00 00	 call	 ?_Kfn@?$_Tmap_traits@HPAVBaseDialog@@U?$less@H@std@@V?$allocator@U?$pair@$$CBHPAVBaseDialog@@@std@@@3@$0A@@std@@SAABHABU?$pair@$$CBHPAVBaseDialog@@@2@@Z ; std::_Tmap_traits<int,BaseDialog *,std::less<int>,std::allocator<std::pair<int const ,BaseDialog *> >,0>::_Kfn
  00231	83 c4 04	 add	 esp, 4
  00234	50		 push	 eax
  00235	8b 4d fc	 mov	 ecx, DWORD PTR _this$[ebp]
  00238	e8 00 00 00 00	 call	 ??R?$less@H@std@@QBE_NABH0@Z ; std::less<int>::operator()
  0023d	0f b6 c8	 movzx	 ecx, al
  00240	85 c9		 test	 ecx, ecx
  00242	0f 85 c0 00 00
	00		 jne	 $L188413
  00248	8b 55 0c	 mov	 edx, DWORD PTR __Where$[ebp]
  0024b	89 55 f4	 mov	 DWORD PTR __Next$[ebp], edx
  0024e	8d 45 e4	 lea	 eax, DWORD PTR $T189559[ebp]
  00251	50		 push	 eax
  00252	8b 4d fc	 mov	 ecx, DWORD PTR _this$[ebp]
  00255	e8 00 00 00 00	 call	 ?end@?$_Tree@V?$_Tmap_traits@HPAVBaseDialog@@U?$less@H@std@@V?$allocator@U?$pair@$$CBHPAVBaseDialog@@@std@@@3@$0A@@std@@@std@@QAE?AViterator@12@XZ ; std::_Tree<std::_Tmap_traits<int,BaseDialog *,std::less<int>,std::allocator<std::pair<int const ,BaseDialog *> >,0> >::end
  0025a	50		 push	 eax
  0025b	8d 4d f4	 lea	 ecx, DWORD PTR __Next$[ebp]
  0025e	e8 00 00 00 00	 call	 ??Eiterator@?$_Tree@V?$_Tmap_traits@HPAVBaseDialog@@U?$less@H@std@@V?$allocator@U?$pair@$$CBHPAVBaseDialog@@@std@@@3@$0A@@std@@@std@@QAEAAV012@XZ ; std::_Tree<std::_Tmap_traits<int,BaseDialog *,std::less<int>,std::allocator<std::pair<int const ,BaseDialog *> >,0> >::iterator::operator++
  00263	8b c8		 mov	 ecx, eax
  00265	e8 00 00 00 00	 call	 ??8const_iterator@?$_Tree@V?$_Tmap_traits@HPAVBaseDialog@@U?$less@H@std@@V?$allocator@U?$pair@$$CBHPAVBaseDialog@@@std@@@3@$0A@@std@@@std@@QBE_NABV012@@Z ; std::_Tree<std::_Tmap_traits<int,BaseDialog *,std::less<int>,std::allocator<std::pair<int const ,BaseDialog *> >,0> >::const_iterator::operator==
  0026a	0f b6 c8	 movzx	 ecx, al
  0026d	85 c9		 test	 ecx, ecx
  0026f	75 2e		 jne	 SHORT $L188427
  00271	8b 55 10	 mov	 edx, DWORD PTR __Val$[ebp]
  00274	52		 push	 edx
  00275	e8 00 00 00 00	 call	 ?_Kfn@?$_Tmap_traits@HPAVBaseDialog@@U?$less@H@std@@V?$allocator@U?$pair@$$CBHPAVBaseDialog@@@std@@@3@$0A@@std@@SAABHABU?$pair@$$CBHPAVBaseDialog@@@2@@Z ; std::_Tmap_traits<int,BaseDialog *,std::less<int>,std::allocator<std::pair<int const ,BaseDialog *> >,0>::_Kfn
  0027a	83 c4 04	 add	 esp, 4
  0027d	50		 push	 eax
  0027e	8d 4d f4	 lea	 ecx, DWORD PTR __Next$[ebp]
  00281	e8 00 00 00 00	 call	 ?_Mynode@const_iterator@?$_Tree@V?$_Tmap_traits@HPAVBaseDialog@@U?$less@H@std@@V?$allocator@U?$pair@$$CBHPAVBaseDialog@@@std@@@3@$0A@@std@@@std@@QBEPAU_Node@?$_Tree_nod@V?$_Tmap_traits@HPAVBaseDialog@@U?$less@H@std@@V?$allocator@U?$pair@$$CBHPAVBaseDialog@@@std@@@3@$0A@@std@@@3@XZ ; std::_Tree<std::_Tmap_traits<int,BaseDialog *,std::less<int>,std::allocator<std::pair<int const ,BaseDialog *> >,0> >::const_iterator::_Mynode
  00286	50		 push	 eax
  00287	e8 00 00 00 00	 call	 ?_Key@?$_Tree@V?$_Tmap_traits@HPAVBaseDialog@@U?$less@H@std@@V?$allocator@U?$pair@$$CBHPAVBaseDialog@@@std@@@3@$0A@@std@@@std@@KAABHPAU_Node@?$_Tree_nod@V?$_Tmap_traits@HPAVBaseDialog@@U?$less@H@std@@V?$allocator@U?$pair@$$CBHPAVBaseDialog@@@std@@@3@$0A@@std@@@2@@Z ; std::_Tree<std::_Tmap_traits<int,BaseDialog *,std::less<int>,std::allocator<std::pair<int const ,BaseDialog *> >,0> >::_Key
  0028c	83 c4 04	 add	 esp, 4
  0028f	50		 push	 eax
  00290	8b 4d fc	 mov	 ecx, DWORD PTR _this$[ebp]
  00293	e8 00 00 00 00	 call	 ??R?$less@H@std@@QBE_NABH0@Z ; std::less<int>::operator()
  00298	0f b6 c0	 movzx	 eax, al
  0029b	85 c0		 test	 eax, eax
  0029d	75 69		 jne	 SHORT $L188413
$L188427:

; 539  : 				{	// insert after _Where
; 540  : 				if (_Isnil(_Right(_Where._Mynode())))

  0029f	8d 4d 0c	 lea	 ecx, DWORD PTR __Where$[ebp]
  002a2	e8 00 00 00 00	 call	 ?_Mynode@const_iterator@?$_Tree@V?$_Tmap_traits@HPAVBaseDialog@@U?$less@H@std@@V?$allocator@U?$pair@$$CBHPAVBaseDialog@@@std@@@3@$0A@@std@@@std@@QBEPAU_Node@?$_Tree_nod@V?$_Tmap_traits@HPAVBaseDialog@@U?$less@H@std@@V?$allocator@U?$pair@$$CBHPAVBaseDialog@@@std@@@3@$0A@@std@@@3@XZ ; std::_Tree<std::_Tmap_traits<int,BaseDialog *,std::less<int>,std::allocator<std::pair<int const ,BaseDialog *> >,0> >::const_iterator::_Mynode
  002a7	50		 push	 eax
  002a8	e8 00 00 00 00	 call	 ?_Right@?$_Tree@V?$_Tmap_traits@HPAVBaseDialog@@U?$less@H@std@@V?$allocator@U?$pair@$$CBHPAVBaseDialog@@@std@@@3@$0A@@std@@@std@@KAAAPAU_Node@?$_Tree_nod@V?$_Tmap_traits@HPAVBaseDialog@@U?$less@H@std@@V?$allocator@U?$pair@$$CBHPAVBaseDialog@@@std@@@3@$0A@@std@@@2@PAU342@@Z ; std::_Tree<std::_Tmap_traits<int,BaseDialog *,std::less<int>,std::allocator<std::pair<int const ,BaseDialog *> >,0> >::_Right
  002ad	83 c4 04	 add	 esp, 4
  002b0	8b 08		 mov	 ecx, DWORD PTR [eax]
  002b2	51		 push	 ecx
  002b3	e8 00 00 00 00	 call	 ?_Isnil@?$_Tree@V?$_Tmap_traits@HPAVBaseDialog@@U?$less@H@std@@V?$allocator@U?$pair@$$CBHPAVBaseDialog@@@std@@@3@$0A@@std@@@std@@KAAADPAU_Node@?$_Tree_nod@V?$_Tmap_traits@HPAVBaseDialog@@U?$less@H@std@@V?$allocator@U?$pair@$$CBHPAVBaseDialog@@@std@@@3@$0A@@std@@@2@@Z ; std::_Tree<std::_Tmap_traits<int,BaseDialog *,std::less<int>,std::allocator<std::pair<int const ,BaseDialog *> >,0> >::_Isnil
  002b8	83 c4 04	 add	 esp, 4
  002bb	0f be 10	 movsx	 edx, BYTE PTR [eax]
  002be	85 d2		 test	 edx, edx
  002c0	74 23		 je	 SHORT $L188428

; 541  : 					return (_Insert(false, _Where._Mynode(), _Val));

  002c2	8b 45 10	 mov	 eax, DWORD PTR __Val$[ebp]
  002c5	50		 push	 eax
  002c6	8d 4d 0c	 lea	 ecx, DWORD PTR __Where$[ebp]
  002c9	e8 00 00 00 00	 call	 ?_Mynode@const_iterator@?$_Tree@V?$_Tmap_traits@HPAVBaseDialog@@U?$less@H@std@@V?$allocator@U?$pair@$$CBHPAVBaseDialog@@@std@@@3@$0A@@std@@@std@@QBEPAU_Node@?$_Tree_nod@V?$_Tmap_traits@HPAVBaseDialog@@U?$less@H@std@@V?$allocator@U?$pair@$$CBHPAVBaseDialog@@@std@@@3@$0A@@std@@@3@XZ ; std::_Tree<std::_Tmap_traits<int,BaseDialog *,std::less<int>,std::allocator<std::pair<int const ,BaseDialog *> >,0> >::const_iterator::_Mynode
  002ce	50		 push	 eax
  002cf	6a 00		 push	 0
  002d1	8b 4d 08	 mov	 ecx, DWORD PTR ___$ReturnUdt$[ebp]
  002d4	51		 push	 ecx
  002d5	8b 4d fc	 mov	 ecx, DWORD PTR _this$[ebp]
  002d8	e8 00 00 00 00	 call	 ?_Insert@?$_Tree@V?$_Tmap_traits@HPAVBaseDialog@@U?$less@H@std@@V?$allocator@U?$pair@$$CBHPAVBaseDialog@@@std@@@3@$0A@@std@@@std@@IAE?AViterator@12@_NPAU_Node@?$_Tree_nod@V?$_Tmap_traits@HPAVBaseDialog@@U?$less@H@std@@V?$allocator@U?$pair@$$CBHPAVBaseDialog@@@std@@@3@$0A@@std@@@2@ABU?$pair@$$CBHPAVBaseDialog@@@2@@Z ; std::_Tree<std::_Tmap_traits<int,BaseDialog *,std::less<int>,std::allocator<std::pair<int const ,BaseDialog *> >,0> >::_Insert
  002dd	8b 45 08	 mov	 eax, DWORD PTR ___$ReturnUdt$[ebp]
  002e0	e9 ec 02 00 00	 jmp	 $L188403
$L188428:

; 542  : 				else
; 543  : 					return (_Insert(true, _Next._Mynode(), _Val));

  002e5	8b 55 10	 mov	 edx, DWORD PTR __Val$[ebp]
  002e8	52		 push	 edx
  002e9	8d 4d f4	 lea	 ecx, DWORD PTR __Next$[ebp]
  002ec	e8 00 00 00 00	 call	 ?_Mynode@const_iterator@?$_Tree@V?$_Tmap_traits@HPAVBaseDialog@@U?$less@H@std@@V?$allocator@U?$pair@$$CBHPAVBaseDialog@@@std@@@3@$0A@@std@@@std@@QBEPAU_Node@?$_Tree_nod@V?$_Tmap_traits@HPAVBaseDialog@@U?$less@H@std@@V?$allocator@U?$pair@$$CBHPAVBaseDialog@@@std@@@3@$0A@@std@@@3@XZ ; std::_Tree<std::_Tmap_traits<int,BaseDialog *,std::less<int>,std::allocator<std::pair<int const ,BaseDialog *> >,0> >::const_iterator::_Mynode
  002f1	50		 push	 eax
  002f2	6a 01		 push	 1
  002f4	8b 45 08	 mov	 eax, DWORD PTR ___$ReturnUdt$[ebp]
  002f7	50		 push	 eax
  002f8	8b 4d fc	 mov	 ecx, DWORD PTR _this$[ebp]
  002fb	e8 00 00 00 00	 call	 ?_Insert@?$_Tree@V?$_Tmap_traits@HPAVBaseDialog@@U?$less@H@std@@V?$allocator@U?$pair@$$CBHPAVBaseDialog@@@std@@@3@$0A@@std@@@std@@IAE?AViterator@12@_NPAU_Node@?$_Tree_nod@V?$_Tmap_traits@HPAVBaseDialog@@U?$less@H@std@@V?$allocator@U?$pair@$$CBHPAVBaseDialog@@@std@@@3@$0A@@std@@@2@ABU?$pair@$$CBHPAVBaseDialog@@@2@@Z ; std::_Tree<std::_Tmap_traits<int,BaseDialog *,std::less<int>,std::allocator<std::pair<int const ,BaseDialog *> >,0> >::_Insert
  00300	8b 45 08	 mov	 eax, DWORD PTR ___$ReturnUdt$[ebp]
  00303	e9 c9 02 00 00	 jmp	 $L188403
$L188413:

; 544  : 				}
; 545  : 			}
; 546  : 		else

  00308	e9 aa 02 00 00	 jmp	 $L188407
$L188408:

; 547  : 			{	// insert only if unique
; 548  : 			if (_Where == begin())

  0030d	8d 4d e0	 lea	 ecx, DWORD PTR $T189560[ebp]
  00310	51		 push	 ecx
  00311	8b 4d fc	 mov	 ecx, DWORD PTR _this$[ebp]
  00314	e8 00 00 00 00	 call	 ?begin@?$_Tree@V?$_Tmap_traits@HPAVBaseDialog@@U?$less@H@std@@V?$allocator@U?$pair@$$CBHPAVBaseDialog@@@std@@@3@$0A@@std@@@std@@QAE?AViterator@12@XZ ; std::_Tree<std::_Tmap_traits<int,BaseDialog *,std::less<int>,std::allocator<std::pair<int const ,BaseDialog *> >,0> >::begin
  00319	50		 push	 eax
  0031a	8d 4d 0c	 lea	 ecx, DWORD PTR __Where$[ebp]
  0031d	e8 00 00 00 00	 call	 ??8const_iterator@?$_Tree@V?$_Tmap_traits@HPAVBaseDialog@@U?$less@H@std@@V?$allocator@U?$pair@$$CBHPAVBaseDialog@@@std@@@3@$0A@@std@@@std@@QBE_NABV012@@Z ; std::_Tree<std::_Tmap_traits<int,BaseDialog *,std::less<int>,std::allocator<std::pair<int const ,BaseDialog *> >,0> >::const_iterator::operator==
  00322	0f b6 d0	 movzx	 edx, al
  00325	85 d2		 test	 edx, edx
  00327	74 56		 je	 SHORT $L188434

; 549  : 				{	// insert at beginning if before first element
; 550  : 				if (this->comp(this->_Kfn(_Val), _Key(_Where._Mynode())))

  00329	8d 4d 0c	 lea	 ecx, DWORD PTR __Where$[ebp]
  0032c	e8 00 00 00 00	 call	 ?_Mynode@const_iterator@?$_Tree@V?$_Tmap_traits@HPAVBaseDialog@@U?$less@H@std@@V?$allocator@U?$pair@$$CBHPAVBaseDialog@@@std@@@3@$0A@@std@@@std@@QBEPAU_Node@?$_Tree_nod@V?$_Tmap_traits@HPAVBaseDialog@@U?$less@H@std@@V?$allocator@U?$pair@$$CBHPAVBaseDialog@@@std@@@3@$0A@@std@@@3@XZ ; std::_Tree<std::_Tmap_traits<int,BaseDialog *,std::less<int>,std::allocator<std::pair<int const ,BaseDialog *> >,0> >::const_iterator::_Mynode
  00331	50		 push	 eax
  00332	e8 00 00 00 00	 call	 ?_Key@?$_Tree@V?$_Tmap_traits@HPAVBaseDialog@@U?$less@H@std@@V?$allocator@U?$pair@$$CBHPAVBaseDialog@@@std@@@3@$0A@@std@@@std@@KAABHPAU_Node@?$_Tree_nod@V?$_Tmap_traits@HPAVBaseDialog@@U?$less@H@std@@V?$allocator@U?$pair@$$CBHPAVBaseDialog@@@std@@@3@$0A@@std@@@2@@Z ; std::_Tree<std::_Tmap_traits<int,BaseDialog *,std::less<int>,std::allocator<std::pair<int const ,BaseDialog *> >,0> >::_Key
  00337	83 c4 04	 add	 esp, 4
  0033a	50		 push	 eax
  0033b	8b 45 10	 mov	 eax, DWORD PTR __Val$[ebp]
  0033e	50		 push	 eax
  0033f	e8 00 00 00 00	 call	 ?_Kfn@?$_Tmap_traits@HPAVBaseDialog@@U?$less@H@std@@V?$allocator@U?$pair@$$CBHPAVBaseDialog@@@std@@@3@$0A@@std@@SAABHABU?$pair@$$CBHPAVBaseDialog@@@2@@Z ; std::_Tmap_traits<int,BaseDialog *,std::less<int>,std::allocator<std::pair<int const ,BaseDialog *> >,0>::_Kfn
  00344	83 c4 04	 add	 esp, 4
  00347	50		 push	 eax
  00348	8b 4d fc	 mov	 ecx, DWORD PTR _this$[ebp]
  0034b	e8 00 00 00 00	 call	 ??R?$less@H@std@@QBE_NABH0@Z ; std::less<int>::operator()
  00350	0f b6 c8	 movzx	 ecx, al
  00353	85 c9		 test	 ecx, ecx
  00355	74 23		 je	 SHORT $L188435

; 551  : 					return (_Insert(true, _Where._Mynode(), _Val));

  00357	8b 55 10	 mov	 edx, DWORD PTR __Val$[ebp]
  0035a	52		 push	 edx
  0035b	8d 4d 0c	 lea	 ecx, DWORD PTR __Where$[ebp]
  0035e	e8 00 00 00 00	 call	 ?_Mynode@const_iterator@?$_Tree@V?$_Tmap_traits@HPAVBaseDialog@@U?$less@H@std@@V?$allocator@U?$pair@$$CBHPAVBaseDialog@@@std@@@3@$0A@@std@@@std@@QBEPAU_Node@?$_Tree_nod@V?$_Tmap_traits@HPAVBaseDialog@@U?$less@H@std@@V?$allocator@U?$pair@$$CBHPAVBaseDialog@@@std@@@3@$0A@@std@@@3@XZ ; std::_Tree<std::_Tmap_traits<int,BaseDialog *,std::less<int>,std::allocator<std::pair<int const ,BaseDialog *> >,0> >::const_iterator::_Mynode
  00363	50		 push	 eax
  00364	6a 01		 push	 1
  00366	8b 45 08	 mov	 eax, DWORD PTR ___$ReturnUdt$[ebp]
  00369	50		 push	 eax
  0036a	8b 4d fc	 mov	 ecx, DWORD PTR _this$[ebp]
  0036d	e8 00 00 00 00	 call	 ?_Insert@?$_Tree@V?$_Tmap_traits@HPAVBaseDialog@@U?$less@H@std@@V?$allocator@U?$pair@$$CBHPAVBaseDialog@@@std@@@3@$0A@@std@@@std@@IAE?AViterator@12@_NPAU_Node@?$_Tree_nod@V?$_Tmap_traits@HPAVBaseDialog@@U?$less@H@std@@V?$allocator@U?$pair@$$CBHPAVBaseDialog@@@std@@@3@$0A@@std@@@2@ABU?$pair@$$CBHPAVBaseDialog@@@2@@Z ; std::_Tree<std::_Tmap_traits<int,BaseDialog *,std::less<int>,std::allocator<std::pair<int const ,BaseDialog *> >,0> >::_Insert
  00372	8b 45 08	 mov	 eax, DWORD PTR ___$ReturnUdt$[ebp]
  00375	e9 57 02 00 00	 jmp	 $L188403
$L188435:

; 552  : 				}
; 553  : 			else if (_Where == end())

  0037a	e9 38 02 00 00	 jmp	 $L188407
$L188434:
  0037f	8d 4d dc	 lea	 ecx, DWORD PTR $T189561[ebp]
  00382	51		 push	 ecx
  00383	8b 4d fc	 mov	 ecx, DWORD PTR _this$[ebp]
  00386	e8 00 00 00 00	 call	 ?end@?$_Tree@V?$_Tmap_traits@HPAVBaseDialog@@U?$less@H@std@@V?$allocator@U?$pair@$$CBHPAVBaseDialog@@@std@@@3@$0A@@std@@@std@@QAE?AViterator@12@XZ ; std::_Tree<std::_Tmap_traits<int,BaseDialog *,std::less<int>,std::allocator<std::pair<int const ,BaseDialog *> >,0> >::end
  0038b	50		 push	 eax
  0038c	8d 4d 0c	 lea	 ecx, DWORD PTR __Where$[ebp]
  0038f	e8 00 00 00 00	 call	 ??8const_iterator@?$_Tree@V?$_Tmap_traits@HPAVBaseDialog@@U?$less@H@std@@V?$allocator@U?$pair@$$CBHPAVBaseDialog@@@std@@@3@$0A@@std@@@std@@QBE_NABV012@@Z ; std::_Tree<std::_Tmap_traits<int,BaseDialog *,std::less<int>,std::allocator<std::pair<int const ,BaseDialog *> >,0> >::const_iterator::operator==
  00394	0f b6 d0	 movzx	 edx, al
  00397	85 d2		 test	 edx, edx
  00399	74 5a		 je	 SHORT $L188439

; 554  : 				{	// insert at end if after last element
; 555  : 				if (this->comp(_Key(_Rmost()), this->_Kfn(_Val)))

  0039b	8b 45 10	 mov	 eax, DWORD PTR __Val$[ebp]
  0039e	50		 push	 eax
  0039f	e8 00 00 00 00	 call	 ?_Kfn@?$_Tmap_traits@HPAVBaseDialog@@U?$less@H@std@@V?$allocator@U?$pair@$$CBHPAVBaseDialog@@@std@@@3@$0A@@std@@SAABHABU?$pair@$$CBHPAVBaseDialog@@@2@@Z ; std::_Tmap_traits<int,BaseDialog *,std::less<int>,std::allocator<std::pair<int const ,BaseDialog *> >,0>::_Kfn
  003a4	83 c4 04	 add	 esp, 4
  003a7	50		 push	 eax
  003a8	8b 4d fc	 mov	 ecx, DWORD PTR _this$[ebp]
  003ab	e8 00 00 00 00	 call	 ?_Rmost@?$_Tree@V?$_Tmap_traits@HPAVBaseDialog@@U?$less@H@std@@V?$allocator@U?$pair@$$CBHPAVBaseDialog@@@std@@@3@$0A@@std@@@std@@IAEAAPAU_Node@?$_Tree_nod@V?$_Tmap_traits@HPAVBaseDialog@@U?$less@H@std@@V?$allocator@U?$pair@$$CBHPAVBaseDialog@@@std@@@3@$0A@@std@@@2@XZ ; std::_Tree<std::_Tmap_traits<int,BaseDialog *,std::less<int>,std::allocator<std::pair<int const ,BaseDialog *> >,0> >::_Rmost
  003b0	8b 08		 mov	 ecx, DWORD PTR [eax]
  003b2	51		 push	 ecx
  003b3	e8 00 00 00 00	 call	 ?_Key@?$_Tree@V?$_Tmap_traits@HPAVBaseDialog@@U?$less@H@std@@V?$allocator@U?$pair@$$CBHPAVBaseDialog@@@std@@@3@$0A@@std@@@std@@KAABHPAU_Node@?$_Tree_nod@V?$_Tmap_traits@HPAVBaseDialog@@U?$less@H@std@@V?$allocator@U?$pair@$$CBHPAVBaseDialog@@@std@@@3@$0A@@std@@@2@@Z ; std::_Tree<std::_Tmap_traits<int,BaseDialog *,std::less<int>,std::allocator<std::pair<int const ,BaseDialog *> >,0> >::_Key
  003b8	83 c4 04	 add	 esp, 4
  003bb	50		 push	 eax
  003bc	8b 4d fc	 mov	 ecx, DWORD PTR _this$[ebp]
  003bf	e8 00 00 00 00	 call	 ??R?$less@H@std@@QBE_NABH0@Z ; std::less<int>::operator()
  003c4	0f b6 d0	 movzx	 edx, al
  003c7	85 d2		 test	 edx, edx
  003c9	74 25		 je	 SHORT $L188440

; 556  : 					return (_Insert(false, _Rmost(), _Val));

  003cb	8b 45 10	 mov	 eax, DWORD PTR __Val$[ebp]
  003ce	50		 push	 eax
  003cf	8b 4d fc	 mov	 ecx, DWORD PTR _this$[ebp]
  003d2	e8 00 00 00 00	 call	 ?_Rmost@?$_Tree@V?$_Tmap_traits@HPAVBaseDialog@@U?$less@H@std@@V?$allocator@U?$pair@$$CBHPAVBaseDialog@@@std@@@3@$0A@@std@@@std@@IAEAAPAU_Node@?$_Tree_nod@V?$_Tmap_traits@HPAVBaseDialog@@U?$less@H@std@@V?$allocator@U?$pair@$$CBHPAVBaseDialog@@@std@@@3@$0A@@std@@@2@XZ ; std::_Tree<std::_Tmap_traits<int,BaseDialog *,std::less<int>,std::allocator<std::pair<int const ,BaseDialog *> >,0> >::_Rmost
  003d7	8b 08		 mov	 ecx, DWORD PTR [eax]
  003d9	51		 push	 ecx
  003da	6a 00		 push	 0
  003dc	8b 55 08	 mov	 edx, DWORD PTR ___$ReturnUdt$[ebp]
  003df	52		 push	 edx
  003e0	8b 4d fc	 mov	 ecx, DWORD PTR _this$[ebp]
  003e3	e8 00 00 00 00	 call	 ?_Insert@?$_Tree@V?$_Tmap_traits@HPAVBaseDialog@@U?$less@H@std@@V?$allocator@U?$pair@$$CBHPAVBaseDialog@@@std@@@3@$0A@@std@@@std@@IAE?AViterator@12@_NPAU_Node@?$_Tree_nod@V?$_Tmap_traits@HPAVBaseDialog@@U?$less@H@std@@V?$allocator@U?$pair@$$CBHPAVBaseDialog@@@std@@@3@$0A@@std@@@2@ABU?$pair@$$CBHPAVBaseDialog@@@2@@Z ; std::_Tree<std::_Tmap_traits<int,BaseDialog *,std::less<int>,std::allocator<std::pair<int const ,BaseDialog *> >,0> >::_Insert
  003e8	8b 45 08	 mov	 eax, DWORD PTR ___$ReturnUdt$[ebp]
  003eb	e9 e1 01 00 00	 jmp	 $L188403
$L188440:

; 557  : 				}
; 558  : 			else if (this->comp(this->_Kfn(_Val), _Key(_Where._Mynode()))

  003f0	e9 c2 01 00 00	 jmp	 $L188407
$L188439:

; 559  : 				&& this->comp(_Key((--(_Next = _Where))._Mynode()),
; 560  : 					this->_Kfn(_Val)))

  003f5	8d 4d 0c	 lea	 ecx, DWORD PTR __Where$[ebp]
  003f8	e8 00 00 00 00	 call	 ?_Mynode@const_iterator@?$_Tree@V?$_Tmap_traits@HPAVBaseDialog@@U?$less@H@std@@V?$allocator@U?$pair@$$CBHPAVBaseDialog@@@std@@@3@$0A@@std@@@std@@QBEPAU_Node@?$_Tree_nod@V?$_Tmap_traits@HPAVBaseDialog@@U?$less@H@std@@V?$allocator@U?$pair@$$CBHPAVBaseDialog@@@std@@@3@$0A@@std@@@3@XZ ; std::_Tree<std::_Tmap_traits<int,BaseDialog *,std::less<int>,std::allocator<std::pair<int const ,BaseDialog *> >,0> >::const_iterator::_Mynode
  003fd	50		 push	 eax
  003fe	e8 00 00 00 00	 call	 ?_Key@?$_Tree@V?$_Tmap_traits@HPAVBaseDialog@@U?$less@H@std@@V?$allocator@U?$pair@$$CBHPAVBaseDialog@@@std@@@3@$0A@@std@@@std@@KAABHPAU_Node@?$_Tree_nod@V?$_Tmap_traits@HPAVBaseDialog@@U?$less@H@std@@V?$allocator@U?$pair@$$CBHPAVBaseDialog@@@std@@@3@$0A@@std@@@2@@Z ; std::_Tree<std::_Tmap_traits<int,BaseDialog *,std::less<int>,std::allocator<std::pair<int const ,BaseDialog *> >,0> >::_Key
  00403	83 c4 04	 add	 esp, 4
  00406	50		 push	 eax
  00407	8b 45 10	 mov	 eax, DWORD PTR __Val$[ebp]
  0040a	50		 push	 eax
  0040b	e8 00 00 00 00	 call	 ?_Kfn@?$_Tmap_traits@HPAVBaseDialog@@U?$less@H@std@@V?$allocator@U?$pair@$$CBHPAVBaseDialog@@@std@@@3@$0A@@std@@SAABHABU?$pair@$$CBHPAVBaseDialog@@@2@@Z ; std::_Tmap_traits<int,BaseDialog *,std::less<int>,std::allocator<std::pair<int const ,BaseDialog *> >,0>::_Kfn
  00410	83 c4 04	 add	 esp, 4
  00413	50		 push	 eax
  00414	8b 4d fc	 mov	 ecx, DWORD PTR _this$[ebp]
  00417	e8 00 00 00 00	 call	 ??R?$less@H@std@@QBE_NABH0@Z ; std::less<int>::operator()
  0041c	0f b6 c8	 movzx	 ecx, al
  0041f	85 c9		 test	 ecx, ecx
  00421	0f 84 a4 00 00
	00		 je	 $L188443
  00427	8b 55 0c	 mov	 edx, DWORD PTR __Where$[ebp]
  0042a	89 55 f4	 mov	 DWORD PTR __Next$[ebp], edx
  0042d	8b 45 10	 mov	 eax, DWORD PTR __Val$[ebp]
  00430	50		 push	 eax
  00431	e8 00 00 00 00	 call	 ?_Kfn@?$_Tmap_traits@HPAVBaseDialog@@U?$less@H@std@@V?$allocator@U?$pair@$$CBHPAVBaseDialog@@@std@@@3@$0A@@std@@SAABHABU?$pair@$$CBHPAVBaseDialog@@@2@@Z ; std::_Tmap_traits<int,BaseDialog *,std::less<int>,std::allocator<std::pair<int const ,BaseDialog *> >,0>::_Kfn
  00436	83 c4 04	 add	 esp, 4
  00439	50		 push	 eax
  0043a	8d 4d f4	 lea	 ecx, DWORD PTR __Next$[ebp]
  0043d	e8 00 00 00 00	 call	 ??Fiterator@?$_Tree@V?$_Tmap_traits@HPAVBaseDialog@@U?$less@H@std@@V?$allocator@U?$pair@$$CBHPAVBaseDialog@@@std@@@3@$0A@@std@@@std@@QAEAAV012@XZ ; std::_Tree<std::_Tmap_traits<int,BaseDialog *,std::less<int>,std::allocator<std::pair<int const ,BaseDialog *> >,0> >::iterator::operator--
  00442	8b c8		 mov	 ecx, eax
  00444	e8 00 00 00 00	 call	 ?_Mynode@const_iterator@?$_Tree@V?$_Tmap_traits@HPAVBaseDialog@@U?$less@H@std@@V?$allocator@U?$pair@$$CBHPAVBaseDialog@@@std@@@3@$0A@@std@@@std@@QBEPAU_Node@?$_Tree_nod@V?$_Tmap_traits@HPAVBaseDialog@@U?$less@H@std@@V?$allocator@U?$pair@$$CBHPAVBaseDialog@@@std@@@3@$0A@@std@@@3@XZ ; std::_Tree<std::_Tmap_traits<int,BaseDialog *,std::less<int>,std::allocator<std::pair<int const ,BaseDialog *> >,0> >::const_iterator::_Mynode
  00449	50		 push	 eax
  0044a	e8 00 00 00 00	 call	 ?_Key@?$_Tree@V?$_Tmap_traits@HPAVBaseDialog@@U?$less@H@std@@V?$allocator@U?$pair@$$CBHPAVBaseDialog@@@std@@@3@$0A@@std@@@std@@KAABHPAU_Node@?$_Tree_nod@V?$_Tmap_traits@HPAVBaseDialog@@U?$less@H@std@@V?$allocator@U?$pair@$$CBHPAVBaseDialog@@@std@@@3@$0A@@std@@@2@@Z ; std::_Tree<std::_Tmap_traits<int,BaseDialog *,std::less<int>,std::allocator<std::pair<int const ,BaseDialog *> >,0> >::_Key
  0044f	83 c4 04	 add	 esp, 4
  00452	50		 push	 eax
  00453	8b 4d fc	 mov	 ecx, DWORD PTR _this$[ebp]
  00456	e8 00 00 00 00	 call	 ??R?$less@H@std@@QBE_NABH0@Z ; std::less<int>::operator()
  0045b	0f b6 c8	 movzx	 ecx, al
  0045e	85 c9		 test	 ecx, ecx
  00460	74 69		 je	 SHORT $L188443

; 561  : 				{	// insert before _Where
; 562  : 				if (_Isnil(_Right(_Next._Mynode())))

  00462	8d 4d f4	 lea	 ecx, DWORD PTR __Next$[ebp]
  00465	e8 00 00 00 00	 call	 ?_Mynode@const_iterator@?$_Tree@V?$_Tmap_traits@HPAVBaseDialog@@U?$less@H@std@@V?$allocator@U?$pair@$$CBHPAVBaseDialog@@@std@@@3@$0A@@std@@@std@@QBEPAU_Node@?$_Tree_nod@V?$_Tmap_traits@HPAVBaseDialog@@U?$less@H@std@@V?$allocator@U?$pair@$$CBHPAVBaseDialog@@@std@@@3@$0A@@std@@@3@XZ ; std::_Tree<std::_Tmap_traits<int,BaseDialog *,std::less<int>,std::allocator<std::pair<int const ,BaseDialog *> >,0> >::const_iterator::_Mynode
  0046a	50		 push	 eax
  0046b	e8 00 00 00 00	 call	 ?_Right@?$_Tree@V?$_Tmap_traits@HPAVBaseDialog@@U?$less@H@std@@V?$allocator@U?$pair@$$CBHPAVBaseDialog@@@std@@@3@$0A@@std@@@std@@KAAAPAU_Node@?$_Tree_nod@V?$_Tmap_traits@HPAVBaseDialog@@U?$less@H@std@@V?$allocator@U?$pair@$$CBHPAVBaseDialog@@@std@@@3@$0A@@std@@@2@PAU342@@Z ; std::_Tree<std::_Tmap_traits<int,BaseDialog *,std::less<int>,std::allocator<std::pair<int const ,BaseDialog *> >,0> >::_Right
  00470	83 c4 04	 add	 esp, 4
  00473	8b 10		 mov	 edx, DWORD PTR [eax]
  00475	52		 push	 edx
  00476	e8 00 00 00 00	 call	 ?_Isnil@?$_Tree@V?$_Tmap_traits@HPAVBaseDialog@@U?$less@H@std@@V?$allocator@U?$pair@$$CBHPAVBaseDialog@@@std@@@3@$0A@@std@@@std@@KAAADPAU_Node@?$_Tree_nod@V?$_Tmap_traits@HPAVBaseDialog@@U?$less@H@std@@V?$allocator@U?$pair@$$CBHPAVBaseDialog@@@std@@@3@$0A@@std@@@2@@Z ; std::_Tree<std::_Tmap_traits<int,BaseDialog *,std::less<int>,std::allocator<std::pair<int const ,BaseDialog *> >,0> >::_Isnil
  0047b	83 c4 04	 add	 esp, 4
  0047e	0f be 00	 movsx	 eax, BYTE PTR [eax]
  00481	85 c0		 test	 eax, eax
  00483	74 23		 je	 SHORT $L188444

; 563  : 					return (_Insert(false, _Next._Mynode(), _Val));

  00485	8b 4d 10	 mov	 ecx, DWORD PTR __Val$[ebp]
  00488	51		 push	 ecx
  00489	8d 4d f4	 lea	 ecx, DWORD PTR __Next$[ebp]
  0048c	e8 00 00 00 00	 call	 ?_Mynode@const_iterator@?$_Tree@V?$_Tmap_traits@HPAVBaseDialog@@U?$less@H@std@@V?$allocator@U?$pair@$$CBHPAVBaseDialog@@@std@@@3@$0A@@std@@@std@@QBEPAU_Node@?$_Tree_nod@V?$_Tmap_traits@HPAVBaseDialog@@U?$less@H@std@@V?$allocator@U?$pair@$$CBHPAVBaseDialog@@@std@@@3@$0A@@std@@@3@XZ ; std::_Tree<std::_Tmap_traits<int,BaseDialog *,std::less<int>,std::allocator<std::pair<int const ,BaseDialog *> >,0> >::const_iterator::_Mynode
  00491	50		 push	 eax
  00492	6a 00		 push	 0
  00494	8b 55 08	 mov	 edx, DWORD PTR ___$ReturnUdt$[ebp]
  00497	52		 push	 edx
  00498	8b 4d fc	 mov	 ecx, DWORD PTR _this$[ebp]
  0049b	e8 00 00 00 00	 call	 ?_Insert@?$_Tree@V?$_Tmap_traits@HPAVBaseDialog@@U?$less@H@std@@V?$allocator@U?$pair@$$CBHPAVBaseDialog@@@std@@@3@$0A@@std@@@std@@IAE?AViterator@12@_NPAU_Node@?$_Tree_nod@V?$_Tmap_traits@HPAVBaseDialog@@U?$less@H@std@@V?$allocator@U?$pair@$$CBHPAVBaseDialog@@@std@@@3@$0A@@std@@@2@ABU?$pair@$$CBHPAVBaseDialog@@@2@@Z ; std::_Tree<std::_Tmap_traits<int,BaseDialog *,std::less<int>,std::allocator<std::pair<int const ,BaseDialog *> >,0> >::_Insert
  004a0	8b 45 08	 mov	 eax, DWORD PTR ___$ReturnUdt$[ebp]
  004a3	e9 29 01 00 00	 jmp	 $L188403
$L188444:

; 564  : 				else
; 565  : 					return (_Insert(true, _Where._Mynode(), _Val));

  004a8	8b 45 10	 mov	 eax, DWORD PTR __Val$[ebp]
  004ab	50		 push	 eax
  004ac	8d 4d 0c	 lea	 ecx, DWORD PTR __Where$[ebp]
  004af	e8 00 00 00 00	 call	 ?_Mynode@const_iterator@?$_Tree@V?$_Tmap_traits@HPAVBaseDialog@@U?$less@H@std@@V?$allocator@U?$pair@$$CBHPAVBaseDialog@@@std@@@3@$0A@@std@@@std@@QBEPAU_Node@?$_Tree_nod@V?$_Tmap_traits@HPAVBaseDialog@@U?$less@H@std@@V?$allocator@U?$pair@$$CBHPAVBaseDialog@@@std@@@3@$0A@@std@@@3@XZ ; std::_Tree<std::_Tmap_traits<int,BaseDialog *,std::less<int>,std::allocator<std::pair<int const ,BaseDialog *> >,0> >::const_iterator::_Mynode
  004b4	50		 push	 eax
  004b5	6a 01		 push	 1
  004b7	8b 4d 08	 mov	 ecx, DWORD PTR ___$ReturnUdt$[ebp]
  004ba	51		 push	 ecx
  004bb	8b 4d fc	 mov	 ecx, DWORD PTR _this$[ebp]
  004be	e8 00 00 00 00	 call	 ?_Insert@?$_Tree@V?$_Tmap_traits@HPAVBaseDialog@@U?$less@H@std@@V?$allocator@U?$pair@$$CBHPAVBaseDialog@@@std@@@3@$0A@@std@@@std@@IAE?AViterator@12@_NPAU_Node@?$_Tree_nod@V?$_Tmap_traits@HPAVBaseDialog@@U?$less@H@std@@V?$allocator@U?$pair@$$CBHPAVBaseDialog@@@std@@@3@$0A@@std@@@2@ABU?$pair@$$CBHPAVBaseDialog@@@2@@Z ; std::_Tree<std::_Tmap_traits<int,BaseDialog *,std::less<int>,std::allocator<std::pair<int const ,BaseDialog *> >,0> >::_Insert
  004c3	8b 45 08	 mov	 eax, DWORD PTR ___$ReturnUdt$[ebp]
  004c6	e9 06 01 00 00	 jmp	 $L188403
$L188443:

; 566  : 				}
; 567  : 			else if (this->comp(_Key(_Where._Mynode()), this->_Kfn(_Val))
; 568  : 				&& (++(_Next = _Where) == end()
; 569  : 					|| this->comp(this->_Kfn(_Val),
; 570  : 						_Key(_Next._Mynode()))))

  004cb	8b 55 10	 mov	 edx, DWORD PTR __Val$[ebp]
  004ce	52		 push	 edx
  004cf	e8 00 00 00 00	 call	 ?_Kfn@?$_Tmap_traits@HPAVBaseDialog@@U?$less@H@std@@V?$allocator@U?$pair@$$CBHPAVBaseDialog@@@std@@@3@$0A@@std@@SAABHABU?$pair@$$CBHPAVBaseDialog@@@2@@Z ; std::_Tmap_traits<int,BaseDialog *,std::less<int>,std::allocator<std::pair<int const ,BaseDialog *> >,0>::_Kfn
  004d4	83 c4 04	 add	 esp, 4
  004d7	50		 push	 eax
  004d8	8d 4d 0c	 lea	 ecx, DWORD PTR __Where$[ebp]
  004db	e8 00 00 00 00	 call	 ?_Mynode@const_iterator@?$_Tree@V?$_Tmap_traits@HPAVBaseDialog@@U?$less@H@std@@V?$allocator@U?$pair@$$CBHPAVBaseDialog@@@std@@@3@$0A@@std@@@std@@QBEPAU_Node@?$_Tree_nod@V?$_Tmap_traits@HPAVBaseDialog@@U?$less@H@std@@V?$allocator@U?$pair@$$CBHPAVBaseDialog@@@std@@@3@$0A@@std@@@3@XZ ; std::_Tree<std::_Tmap_traits<int,BaseDialog *,std::less<int>,std::allocator<std::pair<int const ,BaseDialog *> >,0> >::const_iterator::_Mynode
  004e0	50		 push	 eax
  004e1	e8 00 00 00 00	 call	 ?_Key@?$_Tree@V?$_Tmap_traits@HPAVBaseDialog@@U?$less@H@std@@V?$allocator@U?$pair@$$CBHPAVBaseDialog@@@std@@@3@$0A@@std@@@std@@KAABHPAU_Node@?$_Tree_nod@V?$_Tmap_traits@HPAVBaseDialog@@U?$less@H@std@@V?$allocator@U?$pair@$$CBHPAVBaseDialog@@@std@@@3@$0A@@std@@@2@@Z ; std::_Tree<std::_Tmap_traits<int,BaseDialog *,std::less<int>,std::allocator<std::pair<int const ,BaseDialog *> >,0> >::_Key
  004e6	83 c4 04	 add	 esp, 4
  004e9	50		 push	 eax
  004ea	8b 4d fc	 mov	 ecx, DWORD PTR _this$[ebp]
  004ed	e8 00 00 00 00	 call	 ??R?$less@H@std@@QBE_NABH0@Z ; std::less<int>::operator()
  004f2	0f b6 c0	 movzx	 eax, al
  004f5	85 c0		 test	 eax, eax
  004f7	0f 84 ba 00 00
	00		 je	 $L188407
  004fd	8b 4d 0c	 mov	 ecx, DWORD PTR __Where$[ebp]
  00500	89 4d f4	 mov	 DWORD PTR __Next$[ebp], ecx
  00503	8d 55 d8	 lea	 edx, DWORD PTR $T189562[ebp]
  00506	52		 push	 edx
  00507	8b 4d fc	 mov	 ecx, DWORD PTR _this$[ebp]
  0050a	e8 00 00 00 00	 call	 ?end@?$_Tree@V?$_Tmap_traits@HPAVBaseDialog@@U?$less@H@std@@V?$allocator@U?$pair@$$CBHPAVBaseDialog@@@std@@@3@$0A@@std@@@std@@QAE?AViterator@12@XZ ; std::_Tree<std::_Tmap_traits<int,BaseDialog *,std::less<int>,std::allocator<std::pair<int const ,BaseDialog *> >,0> >::end
  0050f	50		 push	 eax
  00510	8d 4d f4	 lea	 ecx, DWORD PTR __Next$[ebp]
  00513	e8 00 00 00 00	 call	 ??Eiterator@?$_Tree@V?$_Tmap_traits@HPAVBaseDialog@@U?$less@H@std@@V?$allocator@U?$pair@$$CBHPAVBaseDialog@@@std@@@3@$0A@@std@@@std@@QAEAAV012@XZ ; std::_Tree<std::_Tmap_traits<int,BaseDialog *,std::less<int>,std::allocator<std::pair<int const ,BaseDialog *> >,0> >::iterator::operator++
  00518	8b c8		 mov	 ecx, eax
  0051a	e8 00 00 00 00	 call	 ??8const_iterator@?$_Tree@V?$_Tmap_traits@HPAVBaseDialog@@U?$less@H@std@@V?$allocator@U?$pair@$$CBHPAVBaseDialog@@@std@@@3@$0A@@std@@@std@@QBE_NABV012@@Z ; std::_Tree<std::_Tmap_traits<int,BaseDialog *,std::less<int>,std::allocator<std::pair<int const ,BaseDialog *> >,0> >::const_iterator::operator==
  0051f	0f b6 c0	 movzx	 eax, al
  00522	85 c0		 test	 eax, eax
  00524	75 2e		 jne	 SHORT $L188451
  00526	8d 4d f4	 lea	 ecx, DWORD PTR __Next$[ebp]
  00529	e8 00 00 00 00	 call	 ?_Mynode@const_iterator@?$_Tree@V?$_Tmap_traits@HPAVBaseDialog@@U?$less@H@std@@V?$allocator@U?$pair@$$CBHPAVBaseDialog@@@std@@@3@$0A@@std@@@std@@QBEPAU_Node@?$_Tree_nod@V?$_Tmap_traits@HPAVBaseDialog@@U?$less@H@std@@V?$allocator@U?$pair@$$CBHPAVBaseDialog@@@std@@@3@$0A@@std@@@3@XZ ; std::_Tree<std::_Tmap_traits<int,BaseDialog *,std::less<int>,std::allocator<std::pair<int const ,BaseDialog *> >,0> >::const_iterator::_Mynode
  0052e	50		 push	 eax
  0052f	e8 00 00 00 00	 call	 ?_Key@?$_Tree@V?$_Tmap_traits@HPAVBaseDialog@@U?$less@H@std@@V?$allocator@U?$pair@$$CBHPAVBaseDialog@@@std@@@3@$0A@@std@@@std@@KAABHPAU_Node@?$_Tree_nod@V?$_Tmap_traits@HPAVBaseDialog@@U?$less@H@std@@V?$allocator@U?$pair@$$CBHPAVBaseDialog@@@std@@@3@$0A@@std@@@2@@Z ; std::_Tree<std::_Tmap_traits<int,BaseDialog *,std::less<int>,std::allocator<std::pair<int const ,BaseDialog *> >,0> >::_Key
  00534	83 c4 04	 add	 esp, 4
  00537	50		 push	 eax
  00538	8b 4d 10	 mov	 ecx, DWORD PTR __Val$[ebp]
  0053b	51		 push	 ecx
  0053c	e8 00 00 00 00	 call	 ?_Kfn@?$_Tmap_traits@HPAVBaseDialog@@U?$less@H@std@@V?$allocator@U?$pair@$$CBHPAVBaseDialog@@@std@@@3@$0A@@std@@SAABHABU?$pair@$$CBHPAVBaseDialog@@@2@@Z ; std::_Tmap_traits<int,BaseDialog *,std::less<int>,std::allocator<std::pair<int const ,BaseDialog *> >,0>::_Kfn
  00541	83 c4 04	 add	 esp, 4
  00544	50		 push	 eax
  00545	8b 4d fc	 mov	 ecx, DWORD PTR _this$[ebp]
  00548	e8 00 00 00 00	 call	 ??R?$less@H@std@@QBE_NABH0@Z ; std::less<int>::operator()
  0054d	0f b6 d0	 movzx	 edx, al
  00550	85 d2		 test	 edx, edx
  00552	74 63		 je	 SHORT $L188407
$L188451:

; 571  : 				{	// insert after _Where
; 572  : 				if (_Isnil(_Right(_Where._Mynode())))

  00554	8d 4d 0c	 lea	 ecx, DWORD PTR __Where$[ebp]
  00557	e8 00 00 00 00	 call	 ?_Mynode@const_iterator@?$_Tree@V?$_Tmap_traits@HPAVBaseDialog@@U?$less@H@std@@V?$allocator@U?$pair@$$CBHPAVBaseDialog@@@std@@@3@$0A@@std@@@std@@QBEPAU_Node@?$_Tree_nod@V?$_Tmap_traits@HPAVBaseDialog@@U?$less@H@std@@V?$allocator@U?$pair@$$CBHPAVBaseDialog@@@std@@@3@$0A@@std@@@3@XZ ; std::_Tree<std::_Tmap_traits<int,BaseDialog *,std::less<int>,std::allocator<std::pair<int const ,BaseDialog *> >,0> >::const_iterator::_Mynode
  0055c	50		 push	 eax
  0055d	e8 00 00 00 00	 call	 ?_Right@?$_Tree@V?$_Tmap_traits@HPAVBaseDialog@@U?$less@H@std@@V?$allocator@U?$pair@$$CBHPAVBaseDialog@@@std@@@3@$0A@@std@@@std@@KAAAPAU_Node@?$_Tree_nod@V?$_Tmap_traits@HPAVBaseDialog@@U?$less@H@std@@V?$allocator@U?$pair@$$CBHPAVBaseDialog@@@std@@@3@$0A@@std@@@2@PAU342@@Z ; std::_Tree<std::_Tmap_traits<int,BaseDialog *,std::less<int>,std::allocator<std::pair<int const ,BaseDialog *> >,0> >::_Right
  00562	83 c4 04	 add	 esp, 4
  00565	8b 00		 mov	 eax, DWORD PTR [eax]
  00567	50		 push	 eax
  00568	e8 00 00 00 00	 call	 ?_Isnil@?$_Tree@V?$_Tmap_traits@HPAVBaseDialog@@U?$less@H@std@@V?$allocator@U?$pair@$$CBHPAVBaseDialog@@@std@@@3@$0A@@std@@@std@@KAAADPAU_Node@?$_Tree_nod@V?$_Tmap_traits@HPAVBaseDialog@@U?$less@H@std@@V?$allocator@U?$pair@$$CBHPAVBaseDialog@@@std@@@3@$0A@@std@@@2@@Z ; std::_Tree<std::_Tmap_traits<int,BaseDialog *,std::less<int>,std::allocator<std::pair<int const ,BaseDialog *> >,0> >::_Isnil
  0056d	83 c4 04	 add	 esp, 4
  00570	0f be 08	 movsx	 ecx, BYTE PTR [eax]
  00573	85 c9		 test	 ecx, ecx
  00575	74 20		 je	 SHORT $L188452

; 573  : 					return (_Insert(false, _Where._Mynode(), _Val));

  00577	8b 55 10	 mov	 edx, DWORD PTR __Val$[ebp]
  0057a	52		 push	 edx
  0057b	8d 4d 0c	 lea	 ecx, DWORD PTR __Where$[ebp]
  0057e	e8 00 00 00 00	 call	 ?_Mynode@const_iterator@?$_Tree@V?$_Tmap_traits@HPAVBaseDialog@@U?$less@H@std@@V?$allocator@U?$pair@$$CBHPAVBaseDialog@@@std@@@3@$0A@@std@@@std@@QBEPAU_Node@?$_Tree_nod@V?$_Tmap_traits@HPAVBaseDialog@@U?$less@H@std@@V?$allocator@U?$pair@$$CBHPAVBaseDialog@@@std@@@3@$0A@@std@@@3@XZ ; std::_Tree<std::_Tmap_traits<int,BaseDialog *,std::less<int>,std::allocator<std::pair<int const ,BaseDialog *> >,0> >::const_iterator::_Mynode
  00583	50		 push	 eax
  00584	6a 00		 push	 0
  00586	8b 45 08	 mov	 eax, DWORD PTR ___$ReturnUdt$[ebp]
  00589	50		 push	 eax
  0058a	8b 4d fc	 mov	 ecx, DWORD PTR _this$[ebp]
  0058d	e8 00 00 00 00	 call	 ?_Insert@?$_Tree@V?$_Tmap_traits@HPAVBaseDialog@@U?$less@H@std@@V?$allocator@U?$pair@$$CBHPAVBaseDialog@@@std@@@3@$0A@@std@@@std@@IAE?AViterator@12@_NPAU_Node@?$_Tree_nod@V?$_Tmap_traits@HPAVBaseDialog@@U?$less@H@std@@V?$allocator@U?$pair@$$CBHPAVBaseDialog@@@std@@@3@$0A@@std@@@2@ABU?$pair@$$CBHPAVBaseDialog@@@2@@Z ; std::_Tree<std::_Tmap_traits<int,BaseDialog *,std::less<int>,std::allocator<std::pair<int const ,BaseDialog *> >,0> >::_Insert
  00592	8b 45 08	 mov	 eax, DWORD PTR ___$ReturnUdt$[ebp]
  00595	eb 3a		 jmp	 SHORT $L188403
$L188452:

; 574  : 				else
; 575  : 					return (_Insert(true, _Next._Mynode(), _Val));

  00597	8b 4d 10	 mov	 ecx, DWORD PTR __Val$[ebp]
  0059a	51		 push	 ecx
  0059b	8d 4d f4	 lea	 ecx, DWORD PTR __Next$[ebp]
  0059e	e8 00 00 00 00	 call	 ?_Mynode@const_iterator@?$_Tree@V?$_Tmap_traits@HPAVBaseDialog@@U?$less@H@std@@V?$allocator@U?$pair@$$CBHPAVBaseDialog@@@std@@@3@$0A@@std@@@std@@QBEPAU_Node@?$_Tree_nod@V?$_Tmap_traits@HPAVBaseDialog@@U?$less@H@std@@V?$allocator@U?$pair@$$CBHPAVBaseDialog@@@std@@@3@$0A@@std@@@3@XZ ; std::_Tree<std::_Tmap_traits<int,BaseDialog *,std::less<int>,std::allocator<std::pair<int const ,BaseDialog *> >,0> >::const_iterator::_Mynode
  005a3	50		 push	 eax
  005a4	6a 01		 push	 1
  005a6	8b 55 08	 mov	 edx, DWORD PTR ___$ReturnUdt$[ebp]
  005a9	52		 push	 edx
  005aa	8b 4d fc	 mov	 ecx, DWORD PTR _this$[ebp]
  005ad	e8 00 00 00 00	 call	 ?_Insert@?$_Tree@V?$_Tmap_traits@HPAVBaseDialog@@U?$less@H@std@@V?$allocator@U?$pair@$$CBHPAVBaseDialog@@@std@@@3@$0A@@std@@@std@@IAE?AViterator@12@_NPAU_Node@?$_Tree_nod@V?$_Tmap_traits@HPAVBaseDialog@@U?$less@H@std@@V?$allocator@U?$pair@$$CBHPAVBaseDialog@@@std@@@3@$0A@@std@@@2@ABU?$pair@$$CBHPAVBaseDialog@@@2@@Z ; std::_Tree<std::_Tmap_traits<int,BaseDialog *,std::less<int>,std::allocator<std::pair<int const ,BaseDialog *> >,0> >::_Insert
  005b2	8b 45 08	 mov	 eax, DWORD PTR ___$ReturnUdt$[ebp]
  005b5	eb 1a		 jmp	 SHORT $L188403
$L188407:

; 576  : 				}
; 577  : 			}
; 578  : 
; 579  : 		return (insert(_Val).first);	// try usual insert if all else fails

  005b7	8b 45 10	 mov	 eax, DWORD PTR __Val$[ebp]
  005ba	50		 push	 eax
  005bb	8d 4d d0	 lea	 ecx, DWORD PTR $T189563[ebp]
  005be	51		 push	 ecx
  005bf	8b 4d fc	 mov	 ecx, DWORD PTR _this$[ebp]
  005c2	e8 00 00 00 00	 call	 ?insert@?$_Tree@V?$_Tmap_traits@HPAVBaseDialog@@U?$less@H@std@@V?$allocator@U?$pair@$$CBHPAVBaseDialog@@@std@@@3@$0A@@std@@@std@@QAE?AU?$pair@Viterator@?$_Tree@V?$_Tmap_traits@HPAVBaseDialog@@U?$less@H@std@@V?$allocator@U?$pair@$$CBHPAVBaseDialog@@@std@@@3@$0A@@std@@@std@@_N@2@ABU?$pair@$$CBHPAVBaseDialog@@@2@@Z ; std::_Tree<std::_Tmap_traits<int,BaseDialog *,std::less<int>,std::allocator<std::pair<int const ,BaseDialog *> >,0> >::insert
  005c7	8b 10		 mov	 edx, DWORD PTR [eax]
  005c9	8b 45 08	 mov	 eax, DWORD PTR ___$ReturnUdt$[ebp]
  005cc	89 10		 mov	 DWORD PTR [eax], edx
  005ce	8b 45 08	 mov	 eax, DWORD PTR ___$ReturnUdt$[ebp]
$L188403:

; 580  : 		}

  005d1	52		 push	 edx
  005d2	8b cd		 mov	 ecx, ebp
  005d4	50		 push	 eax
  005d5	8d 15 00 00 00
	00		 lea	 edx, DWORD PTR $L189566
  005db	e8 00 00 00 00	 call	 @_RTC_CheckStackVars@8
  005e0	58		 pop	 eax
  005e1	5a		 pop	 edx
  005e2	5f		 pop	 edi
  005e3	83 c4 30	 add	 esp, 48			; 00000030H
  005e6	3b ec		 cmp	 ebp, esp
  005e8	e8 00 00 00 00	 call	 __RTC_CheckEsp
  005ed	8b e5		 mov	 esp, ebp
  005ef	5d		 pop	 ebp
  005f0	c2 0c 00	 ret	 12			; 0000000cH
$L189566:
  005f3	01 00 00 00	 DD	 1
  005f7	00 00 00 00	 DD	 $L189565
$L189565:
  005fb	f4 ff ff ff	 DD	 -12			; fffffff4H
  005ff	04 00 00 00	 DD	 4
  00603	00 00 00 00	 DD	 $L189564
$L189564:
  00607	5f		 DB	 95			; 0000005fH
  00608	4e		 DB	 78			; 0000004eH
  00609	65		 DB	 101			; 00000065H
  0060a	78		 DB	 120			; 00000078H
  0060b	74		 DB	 116			; 00000074H
  0060c	00		 DB	 0
?insert@?$_Tree@V?$_Tmap_traits@HPAVBaseDialog@@U?$less@H@std@@V?$allocator@U?$pair@$$CBHPAVBaseDialog@@@std@@@3@$0A@@std@@@std@@QAE?AViterator@12@V312@ABU?$pair@$$CBHPAVBaseDialog@@@2@@Z ENDP ; std::_Tree<std::_Tmap_traits<int,BaseDialog *,std::less<int>,std::allocator<std::pair<int const ,BaseDialog *> >,0> >::insert
_TEXT	ENDS
PUBLIC	?_Lbound@?$_Tree@V?$_Tmap_traits@HPAVBaseDialog@@U?$less@H@std@@V?$allocator@U?$pair@$$CBHPAVBaseDialog@@@std@@@3@$0A@@std@@@std@@IBEPAU_Node@?$_Tree_nod@V?$_Tmap_traits@HPAVBaseDialog@@U?$less@H@std@@V?$allocator@U?$pair@$$CBHPAVBaseDialog@@@std@@@3@$0A@@std@@@2@ABH@Z ; std::_Tree<std::_Tmap_traits<int,BaseDialog *,std::less<int>,std::allocator<std::pair<int const ,BaseDialog *> >,0> >::_Lbound
; Function compile flags: /Odt /RTCsu
;	COMDAT ?lower_bound@?$_Tree@V?$_Tmap_traits@HPAVBaseDialog@@U?$less@H@std@@V?$allocator@U?$pair@$$CBHPAVBaseDialog@@@std@@@3@$0A@@std@@@std@@QAE?AViterator@12@ABH@Z
_TEXT	SEGMENT
_this$ = -4						; size = 4
___$ReturnUdt$ = 8					; size = 4
__Keyval$ = 12						; size = 4
?lower_bound@?$_Tree@V?$_Tmap_traits@HPAVBaseDialog@@U?$less@H@std@@V?$allocator@U?$pair@$$CBHPAVBaseDialog@@@std@@@3@$0A@@std@@@std@@QAE?AViterator@12@ABH@Z PROC NEAR ; std::_Tree<std::_Tmap_traits<int,BaseDialog *,std::less<int>,std::allocator<std::pair<int const ,BaseDialog *> >,0> >::lower_bound, COMDAT
; _this$ = ecx

; 809  : 		{	// find leftmost node not less than _Keyval in mutable tree

  00000	55		 push	 ebp
  00001	8b ec		 mov	 ebp, esp
  00003	51		 push	 ecx
  00004	c7 45 fc cc cc
	cc cc		 mov	 DWORD PTR [ebp-4], -858993460 ; ccccccccH
  0000b	89 4d fc	 mov	 DWORD PTR _this$[ebp], ecx

; 810  : 		return (_TREE_ITERATOR(_Lbound(_Keyval)));

  0000e	8b 45 0c	 mov	 eax, DWORD PTR __Keyval$[ebp]
  00011	50		 push	 eax
  00012	8b 4d fc	 mov	 ecx, DWORD PTR _this$[ebp]
  00015	e8 00 00 00 00	 call	 ?_Lbound@?$_Tree@V?$_Tmap_traits@HPAVBaseDialog@@U?$less@H@std@@V?$allocator@U?$pair@$$CBHPAVBaseDialog@@@std@@@3@$0A@@std@@@std@@IBEPAU_Node@?$_Tree_nod@V?$_Tmap_traits@HPAVBaseDialog@@U?$less@H@std@@V?$allocator@U?$pair@$$CBHPAVBaseDialog@@@std@@@3@$0A@@std@@@2@ABH@Z ; std::_Tree<std::_Tmap_traits<int,BaseDialog *,std::less<int>,std::allocator<std::pair<int const ,BaseDialog *> >,0> >::_Lbound
  0001a	50		 push	 eax
  0001b	8b 4d 08	 mov	 ecx, DWORD PTR ___$ReturnUdt$[ebp]
  0001e	e8 00 00 00 00	 call	 ??0iterator@?$_Tree@V?$_Tmap_traits@HPAVBaseDialog@@U?$less@H@std@@V?$allocator@U?$pair@$$CBHPAVBaseDialog@@@std@@@3@$0A@@std@@@std@@QAE@PAU_Node@?$_Tree_nod@V?$_Tmap_traits@HPAVBaseDialog@@U?$less@H@std@@V?$allocator@U?$pair@$$CBHPAVBaseDialog@@@std@@@3@$0A@@std@@@2@@Z ; std::_Tree<std::_Tmap_traits<int,BaseDialog *,std::less<int>,std::allocator<std::pair<int const ,BaseDialog *> >,0> >::iterator::iterator
  00023	8b 45 08	 mov	 eax, DWORD PTR ___$ReturnUdt$[ebp]

; 811  : 		}

  00026	83 c4 04	 add	 esp, 4
  00029	3b ec		 cmp	 ebp, esp
  0002b	e8 00 00 00 00	 call	 __RTC_CheckEsp
  00030	8b e5		 mov	 esp, ebp
  00032	5d		 pop	 ebp
  00033	c2 08 00	 ret	 8
?lower_bound@?$_Tree@V?$_Tmap_traits@HPAVBaseDialog@@U?$less@H@std@@V?$allocator@U?$pair@$$CBHPAVBaseDialog@@@std@@@3@$0A@@std@@@std@@QAE?AViterator@12@ABH@Z ENDP ; std::_Tree<std::_Tmap_traits<int,BaseDialog *,std::less<int>,std::allocator<std::pair<int const ,BaseDialog *> >,0> >::lower_bound
_TEXT	ENDS
PUBLIC	?deallocate@?$allocator@U_Node@?$_Tree_nod@V?$_Tmap_traits@HPAVBaseDialog@@U?$less@H@std@@V?$allocator@U?$pair@$$CBHPAVBaseDialog@@@std@@@3@$0A@@std@@@std@@@std@@QAEXPAU_Node@?$_Tree_nod@V?$_Tmap_traits@HPAVBaseDialog@@U?$less@H@std@@V?$allocator@U?$pair@$$CBHPAVBaseDialog@@@std@@@3@$0A@@std@@@2@I@Z ; std::allocator<std::_Tree_nod<std::_Tmap_traits<int,BaseDialog *,std::less<int>,std::allocator<std::pair<int const ,BaseDialog *> >,0> >::_Node>::deallocate
PUBLIC	?destroy@?$allocator@PAU_Node@?$_Tree_nod@V?$_Tmap_traits@HPAVBaseDialog@@U?$less@H@std@@V?$allocator@U?$pair@$$CBHPAVBaseDialog@@@std@@@3@$0A@@std@@@std@@@std@@QAEXPAPAU_Node@?$_Tree_nod@V?$_Tmap_traits@HPAVBaseDialog@@U?$less@H@std@@V?$allocator@U?$pair@$$CBHPAVBaseDialog@@@std@@@3@$0A@@std@@@2@@Z ; std::allocator<std::_Tree_nod<std::_Tmap_traits<int,BaseDialog *,std::less<int>,std::allocator<std::pair<int const ,BaseDialog *> >,0> >::_Node *>::destroy
PUBLIC	?_Left@?$_Tree@V?$_Tmap_traits@HPAVBaseDialog@@U?$less@H@std@@V?$allocator@U?$pair@$$CBHPAVBaseDialog@@@std@@@3@$0A@@std@@@std@@KAAAPAU_Node@?$_Tree_nod@V?$_Tmap_traits@HPAVBaseDialog@@U?$less@H@std@@V?$allocator@U?$pair@$$CBHPAVBaseDialog@@@std@@@3@$0A@@std@@@2@PAU342@@Z ; std::_Tree<std::_Tmap_traits<int,BaseDialog *,std::less<int>,std::allocator<std::pair<int const ,BaseDialog *> >,0> >::_Left
PUBLIC	?_Parent@?$_Tree@V?$_Tmap_traits@HPAVBaseDialog@@U?$less@H@std@@V?$allocator@U?$pair@$$CBHPAVBaseDialog@@@std@@@3@$0A@@std@@@std@@KAAAPAU_Node@?$_Tree_nod@V?$_Tmap_traits@HPAVBaseDialog@@U?$less@H@std@@V?$allocator@U?$pair@$$CBHPAVBaseDialog@@@std@@@3@$0A@@std@@@2@PAU342@@Z ; std::_Tree<std::_Tmap_traits<int,BaseDialog *,std::less<int>,std::allocator<std::pair<int const ,BaseDialog *> >,0> >::_Parent
PUBLIC	?erase@?$_Tree@V?$_Tmap_traits@HPAVBaseDialog@@U?$less@H@std@@V?$allocator@U?$pair@$$CBHPAVBaseDialog@@@std@@@3@$0A@@std@@@std@@QAE?AViterator@12@V312@0@Z ; std::_Tree<std::_Tmap_traits<int,BaseDialog *,std::less<int>,std::allocator<std::pair<int const ,BaseDialog *> >,0> >::erase
; Function compile flags: /Odt /RTCsu
;	COMDAT ?_Tidy@?$_Tree@V?$_Tmap_traits@HPAVBaseDialog@@U?$less@H@std@@V?$allocator@U?$pair@$$CBHPAVBaseDialog@@@std@@@3@$0A@@std@@@std@@IAEXXZ
_TEXT	SEGMENT
$T189571 = -16						; size = 4
$T189570 = -12						; size = 4
$T189569 = -8						; size = 4
_this$ = -4						; size = 4
?_Tidy@?$_Tree@V?$_Tmap_traits@HPAVBaseDialog@@U?$less@H@std@@V?$allocator@U?$pair@$$CBHPAVBaseDialog@@@std@@@3@$0A@@std@@@std@@IAEXXZ PROC NEAR ; std::_Tree<std::_Tmap_traits<int,BaseDialog *,std::less<int>,std::allocator<std::pair<int const ,BaseDialog *> >,0> >::_Tidy, COMDAT
; _this$ = ecx

; 1142 : 		{	// free all storage

  00000	55		 push	 ebp
  00001	8b ec		 mov	 ebp, esp
  00003	83 ec 10	 sub	 esp, 16			; 00000010H
  00006	b8 cc cc cc cc	 mov	 eax, -858993460		; ccccccccH
  0000b	89 45 f0	 mov	 DWORD PTR [ebp-16], eax
  0000e	89 45 f4	 mov	 DWORD PTR [ebp-12], eax
  00011	89 45 f8	 mov	 DWORD PTR [ebp-8], eax
  00014	89 45 fc	 mov	 DWORD PTR [ebp-4], eax
  00017	89 4d fc	 mov	 DWORD PTR _this$[ebp], ecx

; 1143 : 		erase(begin(), end());

  0001a	8d 45 f8	 lea	 eax, DWORD PTR $T189569[ebp]
  0001d	50		 push	 eax
  0001e	8b 4d fc	 mov	 ecx, DWORD PTR _this$[ebp]
  00021	e8 00 00 00 00	 call	 ?end@?$_Tree@V?$_Tmap_traits@HPAVBaseDialog@@U?$less@H@std@@V?$allocator@U?$pair@$$CBHPAVBaseDialog@@@std@@@3@$0A@@std@@@std@@QAE?AViterator@12@XZ ; std::_Tree<std::_Tmap_traits<int,BaseDialog *,std::less<int>,std::allocator<std::pair<int const ,BaseDialog *> >,0> >::end
  00026	8b 08		 mov	 ecx, DWORD PTR [eax]
  00028	51		 push	 ecx
  00029	8d 55 f4	 lea	 edx, DWORD PTR $T189570[ebp]
  0002c	52		 push	 edx
  0002d	8b 4d fc	 mov	 ecx, DWORD PTR _this$[ebp]
  00030	e8 00 00 00 00	 call	 ?begin@?$_Tree@V?$_Tmap_traits@HPAVBaseDialog@@U?$less@H@std@@V?$allocator@U?$pair@$$CBHPAVBaseDialog@@@std@@@3@$0A@@std@@@std@@QAE?AViterator@12@XZ ; std::_Tree<std::_Tmap_traits<int,BaseDialog *,std::less<int>,std::allocator<std::pair<int const ,BaseDialog *> >,0> >::begin
  00035	8b 00		 mov	 eax, DWORD PTR [eax]
  00037	50		 push	 eax
  00038	8d 4d f0	 lea	 ecx, DWORD PTR $T189571[ebp]
  0003b	51		 push	 ecx
  0003c	8b 4d fc	 mov	 ecx, DWORD PTR _this$[ebp]
  0003f	e8 00 00 00 00	 call	 ?erase@?$_Tree@V?$_Tmap_traits@HPAVBaseDialog@@U?$less@H@std@@V?$allocator@U?$pair@$$CBHPAVBaseDialog@@@std@@@3@$0A@@std@@@std@@QAE?AViterator@12@V312@0@Z ; std::_Tree<std::_Tmap_traits<int,BaseDialog *,std::less<int>,std::allocator<std::pair<int const ,BaseDialog *> >,0> >::erase

; 1144 : 		this->_Alptr.destroy(&_Left(_Myhead));

  00044	8b 55 fc	 mov	 edx, DWORD PTR _this$[ebp]
  00047	8b 42 04	 mov	 eax, DWORD PTR [edx+4]
  0004a	50		 push	 eax
  0004b	e8 00 00 00 00	 call	 ?_Left@?$_Tree@V?$_Tmap_traits@HPAVBaseDialog@@U?$less@H@std@@V?$allocator@U?$pair@$$CBHPAVBaseDialog@@@std@@@3@$0A@@std@@@std@@KAAAPAU_Node@?$_Tree_nod@V?$_Tmap_traits@HPAVBaseDialog@@U?$less@H@std@@V?$allocator@U?$pair@$$CBHPAVBaseDialog@@@std@@@3@$0A@@std@@@2@PAU342@@Z ; std::_Tree<std::_Tmap_traits<int,BaseDialog *,std::less<int>,std::allocator<std::pair<int const ,BaseDialog *> >,0> >::_Left
  00050	83 c4 04	 add	 esp, 4
  00053	50		 push	 eax
  00054	8b 4d fc	 mov	 ecx, DWORD PTR _this$[ebp]
  00057	83 c1 02	 add	 ecx, 2
  0005a	e8 00 00 00 00	 call	 ?destroy@?$allocator@PAU_Node@?$_Tree_nod@V?$_Tmap_traits@HPAVBaseDialog@@U?$less@H@std@@V?$allocator@U?$pair@$$CBHPAVBaseDialog@@@std@@@3@$0A@@std@@@std@@@std@@QAEXPAPAU_Node@?$_Tree_nod@V?$_Tmap_traits@HPAVBaseDialog@@U?$less@H@std@@V?$allocator@U?$pair@$$CBHPAVBaseDialog@@@std@@@3@$0A@@std@@@2@@Z ; std::allocator<std::_Tree_nod<std::_Tmap_traits<int,BaseDialog *,std::less<int>,std::allocator<std::pair<int const ,BaseDialog *> >,0> >::_Node *>::destroy

; 1145 : 		this->_Alptr.destroy(&_Parent(_Myhead));

  0005f	8b 4d fc	 mov	 ecx, DWORD PTR _this$[ebp]
  00062	8b 51 04	 mov	 edx, DWORD PTR [ecx+4]
  00065	52		 push	 edx
  00066	e8 00 00 00 00	 call	 ?_Parent@?$_Tree@V?$_Tmap_traits@HPAVBaseDialog@@U?$less@H@std@@V?$allocator@U?$pair@$$CBHPAVBaseDialog@@@std@@@3@$0A@@std@@@std@@KAAAPAU_Node@?$_Tree_nod@V?$_Tmap_traits@HPAVBaseDialog@@U?$less@H@std@@V?$allocator@U?$pair@$$CBHPAVBaseDialog@@@std@@@3@$0A@@std@@@2@PAU342@@Z ; std::_Tree<std::_Tmap_traits<int,BaseDialog *,std::less<int>,std::allocator<std::pair<int const ,BaseDialog *> >,0> >::_Parent
  0006b	83 c4 04	 add	 esp, 4
  0006e	50		 push	 eax
  0006f	8b 4d fc	 mov	 ecx, DWORD PTR _this$[ebp]
  00072	83 c1 02	 add	 ecx, 2
  00075	e8 00 00 00 00	 call	 ?destroy@?$allocator@PAU_Node@?$_Tree_nod@V?$_Tmap_traits@HPAVBaseDialog@@U?$less@H@std@@V?$allocator@U?$pair@$$CBHPAVBaseDialog@@@std@@@3@$0A@@std@@@std@@@std@@QAEXPAPAU_Node@?$_Tree_nod@V?$_Tmap_traits@HPAVBaseDialog@@U?$less@H@std@@V?$allocator@U?$pair@$$CBHPAVBaseDialog@@@std@@@3@$0A@@std@@@2@@Z ; std::allocator<std::_Tree_nod<std::_Tmap_traits<int,BaseDialog *,std::less<int>,std::allocator<std::pair<int const ,BaseDialog *> >,0> >::_Node *>::destroy

; 1146 : 		this->_Alptr.destroy(&_Right(_Myhead));

  0007a	8b 45 fc	 mov	 eax, DWORD PTR _this$[ebp]
  0007d	8b 48 04	 mov	 ecx, DWORD PTR [eax+4]
  00080	51		 push	 ecx
  00081	e8 00 00 00 00	 call	 ?_Right@?$_Tree@V?$_Tmap_traits@HPAVBaseDialog@@U?$less@H@std@@V?$allocator@U?$pair@$$CBHPAVBaseDialog@@@std@@@3@$0A@@std@@@std@@KAAAPAU_Node@?$_Tree_nod@V?$_Tmap_traits@HPAVBaseDialog@@U?$less@H@std@@V?$allocator@U?$pair@$$CBHPAVBaseDialog@@@std@@@3@$0A@@std@@@2@PAU342@@Z ; std::_Tree<std::_Tmap_traits<int,BaseDialog *,std::less<int>,std::allocator<std::pair<int const ,BaseDialog *> >,0> >::_Right
  00086	83 c4 04	 add	 esp, 4
  00089	50		 push	 eax
  0008a	8b 4d fc	 mov	 ecx, DWORD PTR _this$[ebp]
  0008d	83 c1 02	 add	 ecx, 2
  00090	e8 00 00 00 00	 call	 ?destroy@?$allocator@PAU_Node@?$_Tree_nod@V?$_Tmap_traits@HPAVBaseDialog@@U?$less@H@std@@V?$allocator@U?$pair@$$CBHPAVBaseDialog@@@std@@@3@$0A@@std@@@std@@@std@@QAEXPAPAU_Node@?$_Tree_nod@V?$_Tmap_traits@HPAVBaseDialog@@U?$less@H@std@@V?$allocator@U?$pair@$$CBHPAVBaseDialog@@@std@@@3@$0A@@std@@@2@@Z ; std::allocator<std::_Tree_nod<std::_Tmap_traits<int,BaseDialog *,std::less<int>,std::allocator<std::pair<int const ,BaseDialog *> >,0> >::_Node *>::destroy

; 1147 : 		this->_Alnod.deallocate(_Myhead, 1);

  00095	6a 01		 push	 1
  00097	8b 55 fc	 mov	 edx, DWORD PTR _this$[ebp]
  0009a	8b 42 04	 mov	 eax, DWORD PTR [edx+4]
  0009d	50		 push	 eax
  0009e	8b 4d fc	 mov	 ecx, DWORD PTR _this$[ebp]
  000a1	83 c1 01	 add	 ecx, 1
  000a4	e8 00 00 00 00	 call	 ?deallocate@?$allocator@U_Node@?$_Tree_nod@V?$_Tmap_traits@HPAVBaseDialog@@U?$less@H@std@@V?$allocator@U?$pair@$$CBHPAVBaseDialog@@@std@@@3@$0A@@std@@@std@@@std@@QAEXPAU_Node@?$_Tree_nod@V?$_Tmap_traits@HPAVBaseDialog@@U?$less@H@std@@V?$allocator@U?$pair@$$CBHPAVBaseDialog@@@std@@@3@$0A@@std@@@2@I@Z ; std::allocator<std::_Tree_nod<std::_Tmap_traits<int,BaseDialog *,std::less<int>,std::allocator<std::pair<int const ,BaseDialog *> >,0> >::_Node>::deallocate

; 1148 : 		_Myhead = 0, _Mysize = 0;

  000a9	8b 4d fc	 mov	 ecx, DWORD PTR _this$[ebp]
  000ac	c7 41 04 00 00
	00 00		 mov	 DWORD PTR [ecx+4], 0
  000b3	8b 55 fc	 mov	 edx, DWORD PTR _this$[ebp]
  000b6	c7 42 08 00 00
	00 00		 mov	 DWORD PTR [edx+8], 0

; 1149 : 		}

  000bd	83 c4 10	 add	 esp, 16			; 00000010H
  000c0	3b ec		 cmp	 ebp, esp
  000c2	e8 00 00 00 00	 call	 __RTC_CheckEsp
  000c7	8b e5		 mov	 esp, ebp
  000c9	5d		 pop	 ebp
  000ca	c3		 ret	 0
?_Tidy@?$_Tree@V?$_Tmap_traits@HPAVBaseDialog@@U?$less@H@std@@V?$allocator@U?$pair@$$CBHPAVBaseDialog@@@std@@@3@$0A@@std@@@std@@IAEXXZ ENDP ; std::_Tree<std::_Tmap_traits<int,BaseDialog *,std::less<int>,std::allocator<std::pair<int const ,BaseDialog *> >,0> >::_Tidy
; Function compile flags: /Odt /RTCsu
; File d:\program files (x86)\microsoft visual studio .net 2003\vc7\include\xmemory
_TEXT	ENDS
;	COMDAT ??0?$allocator@U?$pair@$$CBHPAVBaseDialog@@@std@@@std@@QAE@XZ
_TEXT	SEGMENT
_this$ = -4						; size = 4
??0?$allocator@U?$pair@$$CBHPAVBaseDialog@@@std@@@std@@QAE@XZ PROC NEAR ; std::allocator<std::pair<int const ,BaseDialog *> >::allocator<std::pair<int const ,BaseDialog *> >, COMDAT
; _this$ = ecx

; 111  : 	allocator()

  00000	55		 push	 ebp
  00001	8b ec		 mov	 ebp, esp
  00003	51		 push	 ecx
  00004	c7 45 fc cc cc
	cc cc		 mov	 DWORD PTR [ebp-4], -858993460 ; ccccccccH
  0000b	89 4d fc	 mov	 DWORD PTR _this$[ebp], ecx

; 112  : 		{	// construct default allocator (do nothing)
; 113  : 		}

  0000e	8b 45 fc	 mov	 eax, DWORD PTR _this$[ebp]
  00011	8b e5		 mov	 esp, ebp
  00013	5d		 pop	 ebp
  00014	c3		 ret	 0
??0?$allocator@U?$pair@$$CBHPAVBaseDialog@@@std@@@std@@QAE@XZ ENDP ; std::allocator<std::pair<int const ,BaseDialog *> >::allocator<std::pair<int const ,BaseDialog *> >
; Function compile flags: /Odt /RTCsu
; File d:\program files (x86)\microsoft visual studio .net 2003\vc7\include\functional
_TEXT	ENDS
;	COMDAT ??R?$less@H@std@@QBE_NABH0@Z
_TEXT	SEGMENT
_this$ = -4						; size = 4
__Left$ = 8						; size = 4
__Right$ = 12						; size = 4
??R?$less@H@std@@QBE_NABH0@Z PROC NEAR			; std::less<int>::operator(), COMDAT
; _this$ = ecx

; 138  : 		{	// apply operator< to operands

  00000	55		 push	 ebp
  00001	8b ec		 mov	 ebp, esp
  00003	51		 push	 ecx
  00004	c7 45 fc cc cc
	cc cc		 mov	 DWORD PTR [ebp-4], -858993460 ; ccccccccH
  0000b	89 4d fc	 mov	 DWORD PTR _this$[ebp], ecx

; 139  : 		return (_Left < _Right);

  0000e	8b 45 08	 mov	 eax, DWORD PTR __Left$[ebp]
  00011	8b 4d 0c	 mov	 ecx, DWORD PTR __Right$[ebp]
  00014	8b 10		 mov	 edx, DWORD PTR [eax]
  00016	33 c0		 xor	 eax, eax
  00018	3b 11		 cmp	 edx, DWORD PTR [ecx]
  0001a	0f 9c c0	 setl	 al

; 140  : 		}

  0001d	8b e5		 mov	 esp, ebp
  0001f	5d		 pop	 ebp
  00020	c2 08 00	 ret	 8
??R?$less@H@std@@QBE_NABH0@Z ENDP			; std::less<int>::operator()
_TEXT	ENDS
PUBLIC	??Dconst_iterator@?$_Tree@V?$_Tmap_traits@HPAVBaseDialog@@U?$less@H@std@@V?$allocator@U?$pair@$$CBHPAVBaseDialog@@@std@@@3@$0A@@std@@@std@@QBEABU?$pair@$$CBHPAVBaseDialog@@@2@XZ ; std::_Tree<std::_Tmap_traits<int,BaseDialog *,std::less<int>,std::allocator<std::pair<int const ,BaseDialog *> >,0> >::const_iterator::operator*
; Function compile flags: /Odt /RTCsu
; File d:\program files (x86)\microsoft visual studio .net 2003\vc7\include\xtree
;	COMDAT ??Diterator@?$_Tree@V?$_Tmap_traits@HPAVBaseDialog@@U?$less@H@std@@V?$allocator@U?$pair@$$CBHPAVBaseDialog@@@std@@@3@$0A@@std@@@std@@QBEAAU?$pair@$$CBHPAVBaseDialog@@@2@XZ
_TEXT	SEGMENT
_this$ = -4						; size = 4
??Diterator@?$_Tree@V?$_Tmap_traits@HPAVBaseDialog@@U?$less@H@std@@V?$allocator@U?$pair@$$CBHPAVBaseDialog@@@std@@@3@$0A@@std@@@std@@QBEAAU?$pair@$$CBHPAVBaseDialog@@@2@XZ PROC NEAR ; std::_Tree<std::_Tmap_traits<int,BaseDialog *,std::less<int>,std::allocator<std::pair<int const ,BaseDialog *> >,0> >::iterator::operator*, COMDAT
; _this$ = ecx

; 316  : 			{	// return designated value

  00000	55		 push	 ebp
  00001	8b ec		 mov	 ebp, esp
  00003	51		 push	 ecx
  00004	c7 45 fc cc cc
	cc cc		 mov	 DWORD PTR [ebp-4], -858993460 ; ccccccccH
  0000b	89 4d fc	 mov	 DWORD PTR _this$[ebp], ecx

; 317  : 			return ((reference)**(const_iterator *)this);

  0000e	8b 4d fc	 mov	 ecx, DWORD PTR _this$[ebp]
  00011	e8 00 00 00 00	 call	 ??Dconst_iterator@?$_Tree@V?$_Tmap_traits@HPAVBaseDialog@@U?$less@H@std@@V?$allocator@U?$pair@$$CBHPAVBaseDialog@@@std@@@3@$0A@@std@@@std@@QBEABU?$pair@$$CBHPAVBaseDialog@@@2@XZ ; std::_Tree<std::_Tmap_traits<int,BaseDialog *,std::less<int>,std::allocator<std::pair<int const ,BaseDialog *> >,0> >::const_iterator::operator*

; 318  : 			}

  00016	83 c4 04	 add	 esp, 4
  00019	3b ec		 cmp	 ebp, esp
  0001b	e8 00 00 00 00	 call	 __RTC_CheckEsp
  00020	8b e5		 mov	 esp, ebp
  00022	5d		 pop	 ebp
  00023	c3		 ret	 0
??Diterator@?$_Tree@V?$_Tmap_traits@HPAVBaseDialog@@U?$less@H@std@@V?$allocator@U?$pair@$$CBHPAVBaseDialog@@@std@@@3@$0A@@std@@@std@@QBEAAU?$pair@$$CBHPAVBaseDialog@@@2@XZ ENDP ; std::_Tree<std::_Tmap_traits<int,BaseDialog *,std::less<int>,std::allocator<std::pair<int const ,BaseDialog *> >,0> >::iterator::operator*
; Function compile flags: /Odt /RTCsu
_TEXT	ENDS
;	COMDAT ??8const_iterator@?$_Tree@V?$_Tmap_traits@HPAVBaseDialog@@U?$less@H@std@@V?$allocator@U?$pair@$$CBHPAVBaseDialog@@@std@@@3@$0A@@std@@@std@@QBE_NABV012@@Z
_TEXT	SEGMENT
_this$ = -4						; size = 4
__Right$ = 8						; size = 4
??8const_iterator@?$_Tree@V?$_Tmap_traits@HPAVBaseDialog@@U?$less@H@std@@V?$allocator@U?$pair@$$CBHPAVBaseDialog@@@std@@@3@$0A@@std@@@std@@QBE_NABV012@@Z PROC NEAR ; std::_Tree<std::_Tmap_traits<int,BaseDialog *,std::less<int>,std::allocator<std::pair<int const ,BaseDialog *> >,0> >::const_iterator::operator==, COMDAT
; _this$ = ecx

; 240  : 			{	// test for iterator equality

  00000	55		 push	 ebp
  00001	8b ec		 mov	 ebp, esp
  00003	51		 push	 ecx
  00004	c7 45 fc cc cc
	cc cc		 mov	 DWORD PTR [ebp-4], -858993460 ; ccccccccH
  0000b	89 4d fc	 mov	 DWORD PTR _this$[ebp], ecx

; 241  : 			return (_Ptr == _Right._Ptr);

  0000e	8b 45 fc	 mov	 eax, DWORD PTR _this$[ebp]
  00011	8b 4d 08	 mov	 ecx, DWORD PTR __Right$[ebp]
  00014	8b 00		 mov	 eax, DWORD PTR [eax]
  00016	2b 01		 sub	 eax, DWORD PTR [ecx]
  00018	f7 d8		 neg	 eax
  0001a	1b c0		 sbb	 eax, eax
  0001c	40		 inc	 eax

; 242  : 			}

  0001d	8b e5		 mov	 esp, ebp
  0001f	5d		 pop	 ebp
  00020	c2 04 00	 ret	 4
??8const_iterator@?$_Tree@V?$_Tmap_traits@HPAVBaseDialog@@U?$less@H@std@@V?$allocator@U?$pair@$$CBHPAVBaseDialog@@@std@@@3@$0A@@std@@@std@@QBE_NABV012@@Z ENDP ; std::_Tree<std::_Tmap_traits<int,BaseDialog *,std::less<int>,std::allocator<std::pair<int const ,BaseDialog *> >,0> >::const_iterator::operator==
; Function compile flags: /Odt /RTCsu
_TEXT	ENDS
;	COMDAT ?_Mynode@const_iterator@?$_Tree@V?$_Tmap_traits@HPAVBaseDialog@@U?$less@H@std@@V?$allocator@U?$pair@$$CBHPAVBaseDialog@@@std@@@3@$0A@@std@@@std@@QBEPAU_Node@?$_Tree_nod@V?$_Tmap_traits@HPAVBaseDialog@@U?$less@H@std@@V?$allocator@U?$pair@$$CBHPAVBaseDialog@@@std@@@3@$0A@@std@@@3@XZ
_TEXT	SEGMENT
_this$ = -4						; size = 4
?_Mynode@const_iterator@?$_Tree@V?$_Tmap_traits@HPAVBaseDialog@@U?$less@H@std@@V?$allocator@U?$pair@$$CBHPAVBaseDialog@@@std@@@3@$0A@@std@@@std@@QBEPAU_Node@?$_Tree_nod@V?$_Tmap_traits@HPAVBaseDialog@@U?$less@H@std@@V?$allocator@U?$pair@$$CBHPAVBaseDialog@@@std@@@3@$0A@@std@@@3@XZ PROC NEAR ; std::_Tree<std::_Tmap_traits<int,BaseDialog *,std::less<int>,std::allocator<std::pair<int const ,BaseDialog *> >,0> >::const_iterator::_Mynode, COMDAT
; _this$ = ecx

; 283  : 			{	// return node pointer

  00000	55		 push	 ebp
  00001	8b ec		 mov	 ebp, esp
  00003	51		 push	 ecx
  00004	c7 45 fc cc cc
	cc cc		 mov	 DWORD PTR [ebp-4], -858993460 ; ccccccccH
  0000b	89 4d fc	 mov	 DWORD PTR _this$[ebp], ecx

; 284  : 			return (_Ptr);

  0000e	8b 45 fc	 mov	 eax, DWORD PTR _this$[ebp]
  00011	8b 00		 mov	 eax, DWORD PTR [eax]

; 285  : 			}

  00013	8b e5		 mov	 esp, ebp
  00015	5d		 pop	 ebp
  00016	c3		 ret	 0
?_Mynode@const_iterator@?$_Tree@V?$_Tmap_traits@HPAVBaseDialog@@U?$less@H@std@@V?$allocator@U?$pair@$$CBHPAVBaseDialog@@@std@@@3@$0A@@std@@@std@@QBEPAU_Node@?$_Tree_nod@V?$_Tmap_traits@HPAVBaseDialog@@U?$less@H@std@@V?$allocator@U?$pair@$$CBHPAVBaseDialog@@@std@@@3@$0A@@std@@@3@XZ ENDP ; std::_Tree<std::_Tmap_traits<int,BaseDialog *,std::less<int>,std::allocator<std::pair<int const ,BaseDialog *> >,0> >::const_iterator::_Mynode
; Function compile flags: /Odt /RTCsu
; File d:\program files (x86)\microsoft visual studio .net 2003\vc7\include\utility
_TEXT	ENDS
;	COMDAT ??0?$pair@$$CBHPAVBaseDialog@@@std@@QAE@ABHABQAVBaseDialog@@@Z
_TEXT	SEGMENT
_this$ = -4						; size = 4
__Val1$ = 8						; size = 4
__Val2$ = 12						; size = 4
??0?$pair@$$CBHPAVBaseDialog@@@std@@QAE@ABHABQAVBaseDialog@@@Z PROC NEAR ; std::pair<int const ,BaseDialog *>::pair<int const ,BaseDialog *>, COMDAT
; _this$ = ecx

; 34   : 		{	// construct from specified values

  00000	55		 push	 ebp
  00001	8b ec		 mov	 ebp, esp
  00003	51		 push	 ecx
  00004	c7 45 fc cc cc
	cc cc		 mov	 DWORD PTR [ebp-4], -858993460 ; ccccccccH
  0000b	89 4d fc	 mov	 DWORD PTR _this$[ebp], ecx
  0000e	8b 45 fc	 mov	 eax, DWORD PTR _this$[ebp]
  00011	8b 4d 08	 mov	 ecx, DWORD PTR __Val1$[ebp]
  00014	8b 11		 mov	 edx, DWORD PTR [ecx]
  00016	89 10		 mov	 DWORD PTR [eax], edx
  00018	8b 45 fc	 mov	 eax, DWORD PTR _this$[ebp]
  0001b	8b 4d 0c	 mov	 ecx, DWORD PTR __Val2$[ebp]
  0001e	8b 11		 mov	 edx, DWORD PTR [ecx]
  00020	89 50 04	 mov	 DWORD PTR [eax+4], edx

; 35   : 		}

  00023	8b 45 fc	 mov	 eax, DWORD PTR _this$[ebp]
  00026	8b e5		 mov	 esp, ebp
  00028	5d		 pop	 ebp
  00029	c2 08 00	 ret	 8
??0?$pair@$$CBHPAVBaseDialog@@@std@@QAE@ABHABQAVBaseDialog@@@Z ENDP ; std::pair<int const ,BaseDialog *>::pair<int const ,BaseDialog *>
; Function compile flags: /Odt /RTCsu
; File d:\program files (x86)\microsoft visual studio .net 2003\vc7\include\xtree
_TEXT	ENDS
;	COMDAT ?_Isnil@?$_Tree@V?$_Tmap_traits@HPAVBaseDialog@@U?$less@H@std@@V?$allocator@U?$pair@$$CBHPAVBaseDialog@@@std@@@3@$0A@@std@@@std@@KAAADPAU_Node@?$_Tree_nod@V?$_Tmap_traits@HPAVBaseDialog@@U?$less@H@std@@V?$allocator@U?$pair@$$CBHPAVBaseDialog@@@std@@@3@$0A@@std@@@2@@Z
_TEXT	SEGMENT
__Pnode$ = 8						; size = 4
?_Isnil@?$_Tree@V?$_Tmap_traits@HPAVBaseDialog@@U?$less@H@std@@V?$allocator@U?$pair@$$CBHPAVBaseDialog@@@std@@@3@$0A@@std@@@std@@KAAADPAU_Node@?$_Tree_nod@V?$_Tmap_traits@HPAVBaseDialog@@U?$less@H@std@@V?$allocator@U?$pair@$$CBHPAVBaseDialog@@@std@@@3@$0A@@std@@@2@@Z PROC NEAR ; std::_Tree<std::_Tmap_traits<int,BaseDialog *,std::less<int>,std::allocator<std::pair<int const ,BaseDialog *> >,0> >::_Isnil, COMDAT

; 136  : 		{	// return reference to nil flag in node

  00000	55		 push	 ebp
  00001	8b ec		 mov	 ebp, esp

; 137  : 		return ((_Charref)(*_Pnode)._Isnil);

  00003	8b 45 08	 mov	 eax, DWORD PTR __Pnode$[ebp]
  00006	83 c0 15	 add	 eax, 21			; 00000015H

; 138  : 		}

  00009	5d		 pop	 ebp
  0000a	c3		 ret	 0
?_Isnil@?$_Tree@V?$_Tmap_traits@HPAVBaseDialog@@U?$less@H@std@@V?$allocator@U?$pair@$$CBHPAVBaseDialog@@@std@@@3@$0A@@std@@@std@@KAAADPAU_Node@?$_Tree_nod@V?$_Tmap_traits@HPAVBaseDialog@@U?$less@H@std@@V?$allocator@U?$pair@$$CBHPAVBaseDialog@@@std@@@3@$0A@@std@@@2@@Z ENDP ; std::_Tree<std::_Tmap_traits<int,BaseDialog *,std::less<int>,std::allocator<std::pair<int const ,BaseDialog *> >,0> >::_Isnil
; Function compile flags: /Odt /RTCsu
_TEXT	ENDS
;	COMDAT ?_Left@?$_Tree@V?$_Tmap_traits@HPAVBaseDialog@@U?$less@H@std@@V?$allocator@U?$pair@$$CBHPAVBaseDialog@@@std@@@3@$0A@@std@@@std@@KAAAPAU_Node@?$_Tree_nod@V?$_Tmap_traits@HPAVBaseDialog@@U?$less@H@std@@V?$allocator@U?$pair@$$CBHPAVBaseDialog@@@std@@@3@$0A@@std@@@2@PAU342@@Z
_TEXT	SEGMENT
__Pnode$ = 8						; size = 4
?_Left@?$_Tree@V?$_Tmap_traits@HPAVBaseDialog@@U?$less@H@std@@V?$allocator@U?$pair@$$CBHPAVBaseDialog@@@std@@@3@$0A@@std@@@std@@KAAAPAU_Node@?$_Tree_nod@V?$_Tmap_traits@HPAVBaseDialog@@U?$less@H@std@@V?$allocator@U?$pair@$$CBHPAVBaseDialog@@@std@@@3@$0A@@std@@@2@PAU342@@Z PROC NEAR ; std::_Tree<std::_Tmap_traits<int,BaseDialog *,std::less<int>,std::allocator<std::pair<int const ,BaseDialog *> >,0> >::_Left, COMDAT

; 146  : 		{	// return reference to left pointer in node

  00000	55		 push	 ebp
  00001	8b ec		 mov	 ebp, esp

; 147  : 		return ((_Nodepref)(*_Pnode)._Left);

  00003	8b 45 08	 mov	 eax, DWORD PTR __Pnode$[ebp]

; 148  : 		}

  00006	5d		 pop	 ebp
  00007	c3		 ret	 0
?_Left@?$_Tree@V?$_Tmap_traits@HPAVBaseDialog@@U?$less@H@std@@V?$allocator@U?$pair@$$CBHPAVBaseDialog@@@std@@@3@$0A@@std@@@std@@KAAAPAU_Node@?$_Tree_nod@V?$_Tmap_traits@HPAVBaseDialog@@U?$less@H@std@@V?$allocator@U?$pair@$$CBHPAVBaseDialog@@@std@@@3@$0A@@std@@@2@PAU342@@Z ENDP ; std::_Tree<std::_Tmap_traits<int,BaseDialog *,std::less<int>,std::allocator<std::pair<int const ,BaseDialog *> >,0> >::_Left
; Function compile flags: /Odt /RTCsu
_TEXT	ENDS
;	COMDAT ?_Parent@?$_Tree@V?$_Tmap_traits@HPAVBaseDialog@@U?$less@H@std@@V?$allocator@U?$pair@$$CBHPAVBaseDialog@@@std@@@3@$0A@@std@@@std@@KAAAPAU_Node@?$_Tree_nod@V?$_Tmap_traits@HPAVBaseDialog@@U?$less@H@std@@V?$allocator@U?$pair@$$CBHPAVBaseDialog@@@std@@@3@$0A@@std@@@2@PAU342@@Z
_TEXT	SEGMENT
__Pnode$ = 8						; size = 4
?_Parent@?$_Tree@V?$_Tmap_traits@HPAVBaseDialog@@U?$less@H@std@@V?$allocator@U?$pair@$$CBHPAVBaseDialog@@@std@@@3@$0A@@std@@@std@@KAAAPAU_Node@?$_Tree_nod@V?$_Tmap_traits@HPAVBaseDialog@@U?$less@H@std@@V?$allocator@U?$pair@$$CBHPAVBaseDialog@@@std@@@3@$0A@@std@@@2@PAU342@@Z PROC NEAR ; std::_Tree<std::_Tmap_traits<int,BaseDialog *,std::less<int>,std::allocator<std::pair<int const ,BaseDialog *> >,0> >::_Parent, COMDAT

; 151  : 		{	// return reference to parent pointer in node

  00000	55		 push	 ebp
  00001	8b ec		 mov	 ebp, esp

; 152  : 		return ((_Nodepref)(*_Pnode)._Parent);

  00003	8b 45 08	 mov	 eax, DWORD PTR __Pnode$[ebp]
  00006	83 c0 04	 add	 eax, 4

; 153  : 		}

  00009	5d		 pop	 ebp
  0000a	c3		 ret	 0
?_Parent@?$_Tree@V?$_Tmap_traits@HPAVBaseDialog@@U?$less@H@std@@V?$allocator@U?$pair@$$CBHPAVBaseDialog@@@std@@@3@$0A@@std@@@std@@KAAAPAU_Node@?$_Tree_nod@V?$_Tmap_traits@HPAVBaseDialog@@U?$less@H@std@@V?$allocator@U?$pair@$$CBHPAVBaseDialog@@@std@@@3@$0A@@std@@@2@PAU342@@Z ENDP ; std::_Tree<std::_Tmap_traits<int,BaseDialog *,std::less<int>,std::allocator<std::pair<int const ,BaseDialog *> >,0> >::_Parent
; Function compile flags: /Odt /RTCsu
_TEXT	ENDS
;	COMDAT ?_Right@?$_Tree@V?$_Tmap_traits@HPAVBaseDialog@@U?$less@H@std@@V?$allocator@U?$pair@$$CBHPAVBaseDialog@@@std@@@3@$0A@@std@@@std@@KAAAPAU_Node@?$_Tree_nod@V?$_Tmap_traits@HPAVBaseDialog@@U?$less@H@std@@V?$allocator@U?$pair@$$CBHPAVBaseDialog@@@std@@@3@$0A@@std@@@2@PAU342@@Z
_TEXT	SEGMENT
__Pnode$ = 8						; size = 4
?_Right@?$_Tree@V?$_Tmap_traits@HPAVBaseDialog@@U?$less@H@std@@V?$allocator@U?$pair@$$CBHPAVBaseDialog@@@std@@@3@$0A@@std@@@std@@KAAAPAU_Node@?$_Tree_nod@V?$_Tmap_traits@HPAVBaseDialog@@U?$less@H@std@@V?$allocator@U?$pair@$$CBHPAVBaseDialog@@@std@@@3@$0A@@std@@@2@PAU342@@Z PROC NEAR ; std::_Tree<std::_Tmap_traits<int,BaseDialog *,std::less<int>,std::allocator<std::pair<int const ,BaseDialog *> >,0> >::_Right, COMDAT

; 156  : 		{	// return reference to right pointer in node

  00000	55		 push	 ebp
  00001	8b ec		 mov	 ebp, esp

; 157  : 		return ((_Nodepref)(*_Pnode)._Right);

  00003	8b 45 08	 mov	 eax, DWORD PTR __Pnode$[ebp]
  00006	83 c0 08	 add	 eax, 8

; 158  : 		}

  00009	5d		 pop	 ebp
  0000a	c3		 ret	 0
?_Right@?$_Tree@V?$_Tmap_traits@HPAVBaseDialog@@U?$less@H@std@@V?$allocator@U?$pair@$$CBHPAVBaseDialog@@@std@@@3@$0A@@std@@@std@@KAAAPAU_Node@?$_Tree_nod@V?$_Tmap_traits@HPAVBaseDialog@@U?$less@H@std@@V?$allocator@U?$pair@$$CBHPAVBaseDialog@@@std@@@3@$0A@@std@@@2@PAU342@@Z ENDP ; std::_Tree<std::_Tmap_traits<int,BaseDialog *,std::less<int>,std::allocator<std::pair<int const ,BaseDialog *> >,0> >::_Right
; Function compile flags: /Odt /RTCsu
_TEXT	ENDS
;	COMDAT ?_Myval@?$_Tree@V?$_Tmap_traits@HPAVBaseDialog@@U?$less@H@std@@V?$allocator@U?$pair@$$CBHPAVBaseDialog@@@std@@@3@$0A@@std@@@std@@KAAAU?$pair@$$CBHPAVBaseDialog@@@2@PAU_Node@?$_Tree_nod@V?$_Tmap_traits@HPAVBaseDialog@@U?$less@H@std@@V?$allocator@U?$pair@$$CBHPAVBaseDialog@@@std@@@3@$0A@@std@@@2@@Z
_TEXT	SEGMENT
__Pnode$ = 8						; size = 4
?_Myval@?$_Tree@V?$_Tmap_traits@HPAVBaseDialog@@U?$less@H@std@@V?$allocator@U?$pair@$$CBHPAVBaseDialog@@@std@@@3@$0A@@std@@@std@@KAAAU?$pair@$$CBHPAVBaseDialog@@@2@PAU_Node@?$_Tree_nod@V?$_Tmap_traits@HPAVBaseDialog@@U?$less@H@std@@V?$allocator@U?$pair@$$CBHPAVBaseDialog@@@std@@@3@$0A@@std@@@2@@Z PROC NEAR ; std::_Tree<std::_Tmap_traits<int,BaseDialog *,std::less<int>,std::allocator<std::pair<int const ,BaseDialog *> >,0> >::_Myval, COMDAT

; 161  : 		{	// return reference to value in node

  00000	55		 push	 ebp
  00001	8b ec		 mov	 ebp, esp

; 162  : 		return ((_Vref)(*_Pnode)._Myval);

  00003	8b 45 08	 mov	 eax, DWORD PTR __Pnode$[ebp]
  00006	83 c0 0c	 add	 eax, 12			; 0000000cH

; 163  : 		}

  00009	5d		 pop	 ebp
  0000a	c3		 ret	 0
?_Myval@?$_Tree@V?$_Tmap_traits@HPAVBaseDialog@@U?$less@H@std@@V?$allocator@U?$pair@$$CBHPAVBaseDialog@@@std@@@3@$0A@@std@@@std@@KAAAU?$pair@$$CBHPAVBaseDialog@@@2@PAU_Node@?$_Tree_nod@V?$_Tmap_traits@HPAVBaseDialog@@U?$less@H@std@@V?$allocator@U?$pair@$$CBHPAVBaseDialog@@@std@@@3@$0A@@std@@@2@@Z ENDP ; std::_Tree<std::_Tmap_traits<int,BaseDialog *,std::less<int>,std::allocator<std::pair<int const ,BaseDialog *> >,0> >::_Myval
_TEXT	ENDS
PUBLIC	?_Lmost@?$_Tree@V?$_Tmap_traits@HPAVBaseDialog@@U?$less@H@std@@V?$allocator@U?$pair@$$CBHPAVBaseDialog@@@std@@@3@$0A@@std@@@std@@IAEAAPAU_Node@?$_Tree_nod@V?$_Tmap_traits@HPAVBaseDialog@@U?$less@H@std@@V?$allocator@U?$pair@$$CBHPAVBaseDialog@@@std@@@3@$0A@@std@@@2@XZ ; std::_Tree<std::_Tmap_traits<int,BaseDialog *,std::less<int>,std::allocator<std::pair<int const ,BaseDialog *> >,0> >::_Lmost
; Function compile flags: /Odt /RTCsu
;	COMDAT ?begin@?$_Tree@V?$_Tmap_traits@HPAVBaseDialog@@U?$less@H@std@@V?$allocator@U?$pair@$$CBHPAVBaseDialog@@@std@@@3@$0A@@std@@@std@@QAE?AViterator@12@XZ
_TEXT	SEGMENT
_this$ = -4						; size = 4
___$ReturnUdt$ = 8					; size = 4
?begin@?$_Tree@V?$_Tmap_traits@HPAVBaseDialog@@U?$less@H@std@@V?$allocator@U?$pair@$$CBHPAVBaseDialog@@@std@@@3@$0A@@std@@@std@@QAE?AViterator@12@XZ PROC NEAR ; std::_Tree<std::_Tmap_traits<int,BaseDialog *,std::less<int>,std::allocator<std::pair<int const ,BaseDialog *> >,0> >::begin, COMDAT
; _this$ = ecx

; 407  : 		{	// return iterator for beginning of mutable sequence

  00000	55		 push	 ebp
  00001	8b ec		 mov	 ebp, esp
  00003	51		 push	 ecx
  00004	c7 45 fc cc cc
	cc cc		 mov	 DWORD PTR [ebp-4], -858993460 ; ccccccccH
  0000b	89 4d fc	 mov	 DWORD PTR _this$[ebp], ecx

; 408  : 		return (_TREE_ITERATOR(_Lmost()));

  0000e	8b 4d fc	 mov	 ecx, DWORD PTR _this$[ebp]
  00011	e8 00 00 00 00	 call	 ?_Lmost@?$_Tree@V?$_Tmap_traits@HPAVBaseDialog@@U?$less@H@std@@V?$allocator@U?$pair@$$CBHPAVBaseDialog@@@std@@@3@$0A@@std@@@std@@IAEAAPAU_Node@?$_Tree_nod@V?$_Tmap_traits@HPAVBaseDialog@@U?$less@H@std@@V?$allocator@U?$pair@$$CBHPAVBaseDialog@@@std@@@3@$0A@@std@@@2@XZ ; std::_Tree<std::_Tmap_traits<int,BaseDialog *,std::less<int>,std::allocator<std::pair<int const ,BaseDialog *> >,0> >::_Lmost
  00016	8b 00		 mov	 eax, DWORD PTR [eax]
  00018	50		 push	 eax
  00019	8b 4d 08	 mov	 ecx, DWORD PTR ___$ReturnUdt$[ebp]
  0001c	e8 00 00 00 00	 call	 ??0iterator@?$_Tree@V?$_Tmap_traits@HPAVBaseDialog@@U?$less@H@std@@V?$allocator@U?$pair@$$CBHPAVBaseDialog@@@std@@@3@$0A@@std@@@std@@QAE@PAU_Node@?$_Tree_nod@V?$_Tmap_traits@HPAVBaseDialog@@U?$less@H@std@@V?$allocator@U?$pair@$$CBHPAVBaseDialog@@@std@@@3@$0A@@std@@@2@@Z ; std::_Tree<std::_Tmap_traits<int,BaseDialog *,std::less<int>,std::allocator<std::pair<int const ,BaseDialog *> >,0> >::iterator::iterator
  00021	8b 45 08	 mov	 eax, DWORD PTR ___$ReturnUdt$[ebp]

; 409  : 		}

  00024	83 c4 04	 add	 esp, 4
  00027	3b ec		 cmp	 ebp, esp
  00029	e8 00 00 00 00	 call	 __RTC_CheckEsp
  0002e	8b e5		 mov	 esp, ebp
  00030	5d		 pop	 ebp
  00031	c2 04 00	 ret	 4
?begin@?$_Tree@V?$_Tmap_traits@HPAVBaseDialog@@U?$less@H@std@@V?$allocator@U?$pair@$$CBHPAVBaseDialog@@@std@@@3@$0A@@std@@@std@@QAE?AViterator@12@XZ ENDP ; std::_Tree<std::_Tmap_traits<int,BaseDialog *,std::less<int>,std::allocator<std::pair<int const ,BaseDialog *> >,0> >::begin
_TEXT	ENDS
PUBLIC	??0?$pair@Viterator@?$_Tree@V?$_Tmap_traits@HPAVBaseDialog@@U?$less@H@std@@V?$allocator@U?$pair@$$CBHPAVBaseDialog@@@std@@@3@$0A@@std@@@std@@_N@std@@QAE@ABViterator@?$_Tree@V?$_Tmap_traits@HPAVBaseDialog@@U?$less@H@std@@V?$allocator@U?$pair@$$CBHPAVBaseDialog@@@std@@@3@$0A@@std@@@1@AB_N@Z ; std::pair<std::_Tree<std::_Tmap_traits<int,BaseDialog *,std::less<int>,std::allocator<std::pair<int const ,BaseDialog *> >,0> >::iterator,bool>::pair<std::_Tree<std::_Tmap_traits<int,BaseDialog *,std::less<int>,std::allocator<std::pair<int const ,BaseDialog *> >,0> >::iterator,bool>
PUBLIC	?_Root@?$_Tree@V?$_Tmap_traits@HPAVBaseDialog@@U?$less@H@std@@V?$allocator@U?$pair@$$CBHPAVBaseDialog@@@std@@@3@$0A@@std@@@std@@IAEAAPAU_Node@?$_Tree_nod@V?$_Tmap_traits@HPAVBaseDialog@@U?$less@H@std@@V?$allocator@U?$pair@$$CBHPAVBaseDialog@@@std@@@3@$0A@@std@@@2@XZ ; std::_Tree<std::_Tmap_traits<int,BaseDialog *,std::less<int>,std::allocator<std::pair<int const ,BaseDialog *> >,0> >::_Root
; Function compile flags: /Odt /RTCsu
;	COMDAT ?insert@?$_Tree@V?$_Tmap_traits@HPAVBaseDialog@@U?$less@H@std@@V?$allocator@U?$pair@$$CBHPAVBaseDialog@@@std@@@3@$0A@@std@@@std@@QAE?AU?$pair@Viterator@?$_Tree@V?$_Tmap_traits@HPAVBaseDialog@@U?$less@H@std@@V?$allocator@U?$pair@$$CBHPAVBaseDialog@@@std@@@3@$0A@@std@@@std@@_N@2@ABU?$pair@$$CBHPAVBaseDialog@@@2@@Z
_TEXT	SEGMENT
tv85 = -64						; size = 4
$T189594 = -57						; size = 1
$T189593 = -56						; size = 4
$T189592 = -49						; size = 1
$T189591 = -48						; size = 4
$T189590 = -41						; size = 1
$T189589 = -40						; size = 4
$T189588 = -36						; size = 4
$T189587 = -29						; size = 1
__Where$188587 = -24					; size = 4
__Addleft$ = -13					; size = 1
__Wherenode$ = -12					; size = 4
__Trynode$ = -8						; size = 4
_this$ = -4						; size = 4
___$ReturnUdt$ = 8					; size = 4
__Val$ = 12						; size = 4
?insert@?$_Tree@V?$_Tmap_traits@HPAVBaseDialog@@U?$less@H@std@@V?$allocator@U?$pair@$$CBHPAVBaseDialog@@@std@@@3@$0A@@std@@@std@@QAE?AU?$pair@Viterator@?$_Tree@V?$_Tmap_traits@HPAVBaseDialog@@U?$less@H@std@@V?$allocator@U?$pair@$$CBHPAVBaseDialog@@@std@@@3@$0A@@std@@@std@@_N@2@ABU?$pair@$$CBHPAVBaseDialog@@@2@@Z PROC NEAR ; std::_Tree<std::_Tmap_traits<int,BaseDialog *,std::less<int>,std::allocator<std::pair<int const ,BaseDialog *> >,0> >::insert, COMDAT
; _this$ = ecx

; 477  : 		{	// try to insert node with value _Val

  00000	55		 push	 ebp
  00001	8b ec		 mov	 ebp, esp
  00003	83 ec 40	 sub	 esp, 64			; 00000040H
  00006	57		 push	 edi
  00007	51		 push	 ecx
  00008	8d 7d c0	 lea	 edi, DWORD PTR [ebp-64]
  0000b	b9 10 00 00 00	 mov	 ecx, 16			; 00000010H
  00010	b8 cc cc cc cc	 mov	 eax, -858993460		; ccccccccH
  00015	f3 ab		 rep stosd
  00017	59		 pop	 ecx
  00018	89 4d fc	 mov	 DWORD PTR _this$[ebp], ecx

; 478  : 		_Nodeptr _Trynode = _Root();

  0001b	8b 4d fc	 mov	 ecx, DWORD PTR _this$[ebp]
  0001e	e8 00 00 00 00	 call	 ?_Root@?$_Tree@V?$_Tmap_traits@HPAVBaseDialog@@U?$less@H@std@@V?$allocator@U?$pair@$$CBHPAVBaseDialog@@@std@@@3@$0A@@std@@@std@@IAEAAPAU_Node@?$_Tree_nod@V?$_Tmap_traits@HPAVBaseDialog@@U?$less@H@std@@V?$allocator@U?$pair@$$CBHPAVBaseDialog@@@std@@@3@$0A@@std@@@2@XZ ; std::_Tree<std::_Tmap_traits<int,BaseDialog *,std::less<int>,std::allocator<std::pair<int const ,BaseDialog *> >,0> >::_Root
  00023	8b 00		 mov	 eax, DWORD PTR [eax]
  00025	89 45 f8	 mov	 DWORD PTR __Trynode$[ebp], eax

; 479  : 		_Nodeptr _Wherenode = _Myhead;

  00028	8b 4d fc	 mov	 ecx, DWORD PTR _this$[ebp]
  0002b	8b 51 04	 mov	 edx, DWORD PTR [ecx+4]
  0002e	89 55 f4	 mov	 DWORD PTR __Wherenode$[ebp], edx

; 480  : 		bool _Addleft = true;	// add to left of head if tree empty

  00031	c6 45 f3 01	 mov	 BYTE PTR __Addleft$[ebp], 1
$L188576:

; 481  : 		while (!_Isnil(_Trynode))

  00035	8b 45 f8	 mov	 eax, DWORD PTR __Trynode$[ebp]
  00038	50		 push	 eax
  00039	e8 00 00 00 00	 call	 ?_Isnil@?$_Tree@V?$_Tmap_traits@HPAVBaseDialog@@U?$less@H@std@@V?$allocator@U?$pair@$$CBHPAVBaseDialog@@@std@@@3@$0A@@std@@@std@@KAAADPAU_Node@?$_Tree_nod@V?$_Tmap_traits@HPAVBaseDialog@@U?$less@H@std@@V?$allocator@U?$pair@$$CBHPAVBaseDialog@@@std@@@3@$0A@@std@@@2@@Z ; std::_Tree<std::_Tmap_traits<int,BaseDialog *,std::less<int>,std::allocator<std::pair<int const ,BaseDialog *> >,0> >::_Isnil
  0003e	83 c4 04	 add	 esp, 4
  00041	0f be 08	 movsx	 ecx, BYTE PTR [eax]
  00044	85 c9		 test	 ecx, ecx
  00046	75 5f		 jne	 SHORT $L188577

; 482  : 			{	// look for leaf to insert before (_Addleft) or after
; 483  : 			_Wherenode = _Trynode;

  00048	8b 55 f8	 mov	 edx, DWORD PTR __Trynode$[ebp]
  0004b	89 55 f4	 mov	 DWORD PTR __Wherenode$[ebp], edx

; 484  : 			_Addleft = this->comp(this->_Kfn(_Val), _Key(_Trynode));

  0004e	8b 45 f8	 mov	 eax, DWORD PTR __Trynode$[ebp]
  00051	50		 push	 eax
  00052	e8 00 00 00 00	 call	 ?_Key@?$_Tree@V?$_Tmap_traits@HPAVBaseDialog@@U?$less@H@std@@V?$allocator@U?$pair@$$CBHPAVBaseDialog@@@std@@@3@$0A@@std@@@std@@KAABHPAU_Node@?$_Tree_nod@V?$_Tmap_traits@HPAVBaseDialog@@U?$less@H@std@@V?$allocator@U?$pair@$$CBHPAVBaseDialog@@@std@@@3@$0A@@std@@@2@@Z ; std::_Tree<std::_Tmap_traits<int,BaseDialog *,std::less<int>,std::allocator<std::pair<int const ,BaseDialog *> >,0> >::_Key
  00057	83 c4 04	 add	 esp, 4
  0005a	50		 push	 eax
  0005b	8b 4d 0c	 mov	 ecx, DWORD PTR __Val$[ebp]
  0005e	51		 push	 ecx
  0005f	e8 00 00 00 00	 call	 ?_Kfn@?$_Tmap_traits@HPAVBaseDialog@@U?$less@H@std@@V?$allocator@U?$pair@$$CBHPAVBaseDialog@@@std@@@3@$0A@@std@@SAABHABU?$pair@$$CBHPAVBaseDialog@@@2@@Z ; std::_Tmap_traits<int,BaseDialog *,std::less<int>,std::allocator<std::pair<int const ,BaseDialog *> >,0>::_Kfn
  00064	83 c4 04	 add	 esp, 4
  00067	50		 push	 eax
  00068	8b 4d fc	 mov	 ecx, DWORD PTR _this$[ebp]
  0006b	e8 00 00 00 00	 call	 ??R?$less@H@std@@QBE_NABH0@Z ; std::less<int>::operator()
  00070	88 45 f3	 mov	 BYTE PTR __Addleft$[ebp], al

; 485  : 			_Trynode = _Addleft ? _Left(_Trynode) : _Right(_Trynode);

  00073	0f b6 55 f3	 movzx	 edx, BYTE PTR __Addleft$[ebp]
  00077	85 d2		 test	 edx, edx
  00079	74 13		 je	 SHORT $L189585
  0007b	8b 45 f8	 mov	 eax, DWORD PTR __Trynode$[ebp]
  0007e	50		 push	 eax
  0007f	e8 00 00 00 00	 call	 ?_Left@?$_Tree@V?$_Tmap_traits@HPAVBaseDialog@@U?$less@H@std@@V?$allocator@U?$pair@$$CBHPAVBaseDialog@@@std@@@3@$0A@@std@@@std@@KAAAPAU_Node@?$_Tree_nod@V?$_Tmap_traits@HPAVBaseDialog@@U?$less@H@std@@V?$allocator@U?$pair@$$CBHPAVBaseDialog@@@std@@@3@$0A@@std@@@2@PAU342@@Z ; std::_Tree<std::_Tmap_traits<int,BaseDialog *,std::less<int>,std::allocator<std::pair<int const ,BaseDialog *> >,0> >::_Left
  00084	83 c4 04	 add	 esp, 4
  00087	8b 08		 mov	 ecx, DWORD PTR [eax]
  00089	89 4d c0	 mov	 DWORD PTR tv85[ebp], ecx
  0008c	eb 11		 jmp	 SHORT $L189586
$L189585:
  0008e	8b 55 f8	 mov	 edx, DWORD PTR __Trynode$[ebp]
  00091	52		 push	 edx
  00092	e8 00 00 00 00	 call	 ?_Right@?$_Tree@V?$_Tmap_traits@HPAVBaseDialog@@U?$less@H@std@@V?$allocator@U?$pair@$$CBHPAVBaseDialog@@@std@@@3@$0A@@std@@@std@@KAAAPAU_Node@?$_Tree_nod@V?$_Tmap_traits@HPAVBaseDialog@@U?$less@H@std@@V?$allocator@U?$pair@$$CBHPAVBaseDialog@@@std@@@3@$0A@@std@@@2@PAU342@@Z ; std::_Tree<std::_Tmap_traits<int,BaseDialog *,std::less<int>,std::allocator<std::pair<int const ,BaseDialog *> >,0> >::_Right
  00097	83 c4 04	 add	 esp, 4
  0009a	8b 00		 mov	 eax, DWORD PTR [eax]
  0009c	89 45 c0	 mov	 DWORD PTR tv85[ebp], eax
$L189586:
  0009f	8b 4d c0	 mov	 ecx, DWORD PTR tv85[ebp]
  000a2	89 4d f8	 mov	 DWORD PTR __Trynode$[ebp], ecx

; 486  : 			}

  000a5	eb 8e		 jmp	 SHORT $L188576
$L188577:

; 487  : 
; 488  : 		if (this->_Multi)

  000a7	33 d2		 xor	 edx, edx
  000a9	74 31		 je	 SHORT $L188578

; 489  : 			return (_Pairib(_Insert(_Addleft, _Wherenode, _Val), true));

  000ab	c6 45 e3 01	 mov	 BYTE PTR $T189587[ebp], 1
  000af	8d 45 e3	 lea	 eax, DWORD PTR $T189587[ebp]
  000b2	50		 push	 eax
  000b3	8b 4d 0c	 mov	 ecx, DWORD PTR __Val$[ebp]
  000b6	51		 push	 ecx
  000b7	8b 55 f4	 mov	 edx, DWORD PTR __Wherenode$[ebp]
  000ba	52		 push	 edx
  000bb	8a 45 f3	 mov	 al, BYTE PTR __Addleft$[ebp]
  000be	50		 push	 eax
  000bf	8d 4d dc	 lea	 ecx, DWORD PTR $T189588[ebp]
  000c2	51		 push	 ecx
  000c3	8b 4d fc	 mov	 ecx, DWORD PTR _this$[ebp]
  000c6	e8 00 00 00 00	 call	 ?_Insert@?$_Tree@V?$_Tmap_traits@HPAVBaseDialog@@U?$less@H@std@@V?$allocator@U?$pair@$$CBHPAVBaseDialog@@@std@@@3@$0A@@std@@@std@@IAE?AViterator@12@_NPAU_Node@?$_Tree_nod@V?$_Tmap_traits@HPAVBaseDialog@@U?$less@H@std@@V?$allocator@U?$pair@$$CBHPAVBaseDialog@@@std@@@3@$0A@@std@@@2@ABU?$pair@$$CBHPAVBaseDialog@@@2@@Z ; std::_Tree<std::_Tmap_traits<int,BaseDialog *,std::less<int>,std::allocator<std::pair<int const ,BaseDialog *> >,0> >::_Insert
  000cb	50		 push	 eax
  000cc	8b 4d 08	 mov	 ecx, DWORD PTR ___$ReturnUdt$[ebp]
  000cf	e8 00 00 00 00	 call	 ??0?$pair@Viterator@?$_Tree@V?$_Tmap_traits@HPAVBaseDialog@@U?$less@H@std@@V?$allocator@U?$pair@$$CBHPAVBaseDialog@@@std@@@3@$0A@@std@@@std@@_N@std@@QAE@ABViterator@?$_Tree@V?$_Tmap_traits@HPAVBaseDialog@@U?$less@H@std@@V?$allocator@U?$pair@$$CBHPAVBaseDialog@@@std@@@3@$0A@@std@@@1@AB_N@Z ; std::pair<std::_Tree<std::_Tmap_traits<int,BaseDialog *,std::less<int>,std::allocator<std::pair<int const ,BaseDialog *> >,0> >::iterator,bool>::pair<std::_Tree<std::_Tmap_traits<int,BaseDialog *,std::less<int>,std::allocator<std::pair<int const ,BaseDialog *> >,0> >::iterator,bool>
  000d4	8b 45 08	 mov	 eax, DWORD PTR ___$ReturnUdt$[ebp]
  000d7	e9 d9 00 00 00	 jmp	 $L188571
$L188578:

; 490  : 		else
; 491  : 			{	// insert only if unique
; 492  : 			iterator _Where = _TREE_ITERATOR(_Wherenode);

  000dc	8b 55 f4	 mov	 edx, DWORD PTR __Wherenode$[ebp]
  000df	52		 push	 edx
  000e0	8d 4d e8	 lea	 ecx, DWORD PTR __Where$188587[ebp]
  000e3	e8 00 00 00 00	 call	 ??0iterator@?$_Tree@V?$_Tmap_traits@HPAVBaseDialog@@U?$less@H@std@@V?$allocator@U?$pair@$$CBHPAVBaseDialog@@@std@@@3@$0A@@std@@@std@@QAE@PAU_Node@?$_Tree_nod@V?$_Tmap_traits@HPAVBaseDialog@@U?$less@H@std@@V?$allocator@U?$pair@$$CBHPAVBaseDialog@@@std@@@3@$0A@@std@@@2@@Z ; std::_Tree<std::_Tmap_traits<int,BaseDialog *,std::less<int>,std::allocator<std::pair<int const ,BaseDialog *> >,0> >::iterator::iterator

; 493  : 			if (!_Addleft)

  000e8	0f b6 45 f3	 movzx	 eax, BYTE PTR __Addleft$[ebp]
  000ec	85 c0		 test	 eax, eax
  000ee	75 02		 jne	 SHORT $L188589

; 494  : 				;	// need to test if insert after is okay
; 495  : 			else if (_Where == begin())

  000f0	eb 50		 jmp	 SHORT $L188590
$L188589:
  000f2	8d 4d d8	 lea	 ecx, DWORD PTR $T189589[ebp]
  000f5	51		 push	 ecx
  000f6	8b 4d fc	 mov	 ecx, DWORD PTR _this$[ebp]
  000f9	e8 00 00 00 00	 call	 ?begin@?$_Tree@V?$_Tmap_traits@HPAVBaseDialog@@U?$less@H@std@@V?$allocator@U?$pair@$$CBHPAVBaseDialog@@@std@@@3@$0A@@std@@@std@@QAE?AViterator@12@XZ ; std::_Tree<std::_Tmap_traits<int,BaseDialog *,std::less<int>,std::allocator<std::pair<int const ,BaseDialog *> >,0> >::begin
  000fe	50		 push	 eax
  000ff	8d 4d e8	 lea	 ecx, DWORD PTR __Where$188587[ebp]
  00102	e8 00 00 00 00	 call	 ??8const_iterator@?$_Tree@V?$_Tmap_traits@HPAVBaseDialog@@U?$less@H@std@@V?$allocator@U?$pair@$$CBHPAVBaseDialog@@@std@@@3@$0A@@std@@@std@@QBE_NABV012@@Z ; std::_Tree<std::_Tmap_traits<int,BaseDialog *,std::less<int>,std::allocator<std::pair<int const ,BaseDialog *> >,0> >::const_iterator::operator==
  00107	0f b6 d0	 movzx	 edx, al
  0010a	85 d2		 test	 edx, edx
  0010c	74 2c		 je	 SHORT $L188592

; 496  : 				return (_Pairib(_Insert(true, _Wherenode, _Val), true));

  0010e	c6 45 d7 01	 mov	 BYTE PTR $T189590[ebp], 1
  00112	8d 45 d7	 lea	 eax, DWORD PTR $T189590[ebp]
  00115	50		 push	 eax
  00116	8b 4d 0c	 mov	 ecx, DWORD PTR __Val$[ebp]
  00119	51		 push	 ecx
  0011a	8b 55 f4	 mov	 edx, DWORD PTR __Wherenode$[ebp]
  0011d	52		 push	 edx
  0011e	6a 01		 push	 1
  00120	8d 45 d0	 lea	 eax, DWORD PTR $T189591[ebp]
  00123	50		 push	 eax
  00124	8b 4d fc	 mov	 ecx, DWORD PTR _this$[ebp]
  00127	e8 00 00 00 00	 call	 ?_Insert@?$_Tree@V?$_Tmap_traits@HPAVBaseDialog@@U?$less@H@std@@V?$allocator@U?$pair@$$CBHPAVBaseDialog@@@std@@@3@$0A@@std@@@std@@IAE?AViterator@12@_NPAU_Node@?$_Tree_nod@V?$_Tmap_traits@HPAVBaseDialog@@U?$less@H@std@@V?$allocator@U?$pair@$$CBHPAVBaseDialog@@@std@@@3@$0A@@std@@@2@ABU?$pair@$$CBHPAVBaseDialog@@@2@@Z ; std::_Tree<std::_Tmap_traits<int,BaseDialog *,std::less<int>,std::allocator<std::pair<int const ,BaseDialog *> >,0> >::_Insert
  0012c	50		 push	 eax
  0012d	8b 4d 08	 mov	 ecx, DWORD PTR ___$ReturnUdt$[ebp]
  00130	e8 00 00 00 00	 call	 ??0?$pair@Viterator@?$_Tree@V?$_Tmap_traits@HPAVBaseDialog@@U?$less@H@std@@V?$allocator@U?$pair@$$CBHPAVBaseDialog@@@std@@@3@$0A@@std@@@std@@_N@std@@QAE@ABViterator@?$_Tree@V?$_Tmap_traits@HPAVBaseDialog@@U?$less@H@std@@V?$allocator@U?$pair@$$CBHPAVBaseDialog@@@std@@@3@$0A@@std@@@1@AB_N@Z ; std::pair<std::_Tree<std::_Tmap_traits<int,BaseDialog *,std::less<int>,std::allocator<std::pair<int const ,BaseDialog *> >,0> >::iterator,bool>::pair<std::_Tree<std::_Tmap_traits<int,BaseDialog *,std::less<int>,std::allocator<std::pair<int const ,BaseDialog *> >,0> >::iterator,bool>
  00135	8b 45 08	 mov	 eax, DWORD PTR ___$ReturnUdt$[ebp]
  00138	eb 7b		 jmp	 SHORT $L188571
$L188592:

; 497  : 			else
; 498  : 				--_Where;	// need to test if insert before is okay

  0013a	8d 4d e8	 lea	 ecx, DWORD PTR __Where$188587[ebp]
  0013d	e8 00 00 00 00	 call	 ??Fiterator@?$_Tree@V?$_Tmap_traits@HPAVBaseDialog@@U?$less@H@std@@V?$allocator@U?$pair@$$CBHPAVBaseDialog@@@std@@@3@$0A@@std@@@std@@QAEAAV012@XZ ; std::_Tree<std::_Tmap_traits<int,BaseDialog *,std::less<int>,std::allocator<std::pair<int const ,BaseDialog *> >,0> >::iterator::operator--
$L188590:

; 499  : 
; 500  : 			if (this->comp(_Key(_Where._Mynode()), this->_Kfn(_Val)))

  00142	8b 4d 0c	 mov	 ecx, DWORD PTR __Val$[ebp]
  00145	51		 push	 ecx
  00146	e8 00 00 00 00	 call	 ?_Kfn@?$_Tmap_traits@HPAVBaseDialog@@U?$less@H@std@@V?$allocator@U?$pair@$$CBHPAVBaseDialog@@@std@@@3@$0A@@std@@SAABHABU?$pair@$$CBHPAVBaseDialog@@@2@@Z ; std::_Tmap_traits<int,BaseDialog *,std::less<int>,std::allocator<std::pair<int const ,BaseDialog *> >,0>::_Kfn
  0014b	83 c4 04	 add	 esp, 4
  0014e	50		 push	 eax
  0014f	8d 4d e8	 lea	 ecx, DWORD PTR __Where$188587[ebp]
  00152	e8 00 00 00 00	 call	 ?_Mynode@const_iterator@?$_Tree@V?$_Tmap_traits@HPAVBaseDialog@@U?$less@H@std@@V?$allocator@U?$pair@$$CBHPAVBaseDialog@@@std@@@3@$0A@@std@@@std@@QBEPAU_Node@?$_Tree_nod@V?$_Tmap_traits@HPAVBaseDialog@@U?$less@H@std@@V?$allocator@U?$pair@$$CBHPAVBaseDialog@@@std@@@3@$0A@@std@@@3@XZ ; std::_Tree<std::_Tmap_traits<int,BaseDialog *,std::less<int>,std::allocator<std::pair<int const ,BaseDialog *> >,0> >::const_iterator::_Mynode
  00157	50		 push	 eax
  00158	e8 00 00 00 00	 call	 ?_Key@?$_Tree@V?$_Tmap_traits@HPAVBaseDialog@@U?$less@H@std@@V?$allocator@U?$pair@$$CBHPAVBaseDialog@@@std@@@3@$0A@@std@@@std@@KAABHPAU_Node@?$_Tree_nod@V?$_Tmap_traits@HPAVBaseDialog@@U?$less@H@std@@V?$allocator@U?$pair@$$CBHPAVBaseDialog@@@std@@@3@$0A@@std@@@2@@Z ; std::_Tree<std::_Tmap_traits<int,BaseDialog *,std::less<int>,std::allocator<std::pair<int const ,BaseDialog *> >,0> >::_Key
  0015d	83 c4 04	 add	 esp, 4
  00160	50		 push	 eax
  00161	8b 4d fc	 mov	 ecx, DWORD PTR _this$[ebp]
  00164	e8 00 00 00 00	 call	 ??R?$less@H@std@@QBE_NABH0@Z ; std::less<int>::operator()
  00169	0f b6 d0	 movzx	 edx, al
  0016c	85 d2		 test	 edx, edx
  0016e	74 2e		 je	 SHORT $L188597

; 501  : 				return (_Pairib(_Insert(_Addleft, _Wherenode, _Val), true));

  00170	c6 45 cf 01	 mov	 BYTE PTR $T189592[ebp], 1
  00174	8d 45 cf	 lea	 eax, DWORD PTR $T189592[ebp]
  00177	50		 push	 eax
  00178	8b 4d 0c	 mov	 ecx, DWORD PTR __Val$[ebp]
  0017b	51		 push	 ecx
  0017c	8b 55 f4	 mov	 edx, DWORD PTR __Wherenode$[ebp]
  0017f	52		 push	 edx
  00180	8a 45 f3	 mov	 al, BYTE PTR __Addleft$[ebp]
  00183	50		 push	 eax
  00184	8d 4d c8	 lea	 ecx, DWORD PTR $T189593[ebp]
  00187	51		 push	 ecx
  00188	8b 4d fc	 mov	 ecx, DWORD PTR _this$[ebp]
  0018b	e8 00 00 00 00	 call	 ?_Insert@?$_Tree@V?$_Tmap_traits@HPAVBaseDialog@@U?$less@H@std@@V?$allocator@U?$pair@$$CBHPAVBaseDialog@@@std@@@3@$0A@@std@@@std@@IAE?AViterator@12@_NPAU_Node@?$_Tree_nod@V?$_Tmap_traits@HPAVBaseDialog@@U?$less@H@std@@V?$allocator@U?$pair@$$CBHPAVBaseDialog@@@std@@@3@$0A@@std@@@2@ABU?$pair@$$CBHPAVBaseDialog@@@2@@Z ; std::_Tree<std::_Tmap_traits<int,BaseDialog *,std::less<int>,std::allocator<std::pair<int const ,BaseDialog *> >,0> >::_Insert
  00190	50		 push	 eax
  00191	8b 4d 08	 mov	 ecx, DWORD PTR ___$ReturnUdt$[ebp]
  00194	e8 00 00 00 00	 call	 ??0?$pair@Viterator@?$_Tree@V?$_Tmap_traits@HPAVBaseDialog@@U?$less@H@std@@V?$allocator@U?$pair@$$CBHPAVBaseDialog@@@std@@@3@$0A@@std@@@std@@_N@std@@QAE@ABViterator@?$_Tree@V?$_Tmap_traits@HPAVBaseDialog@@U?$less@H@std@@V?$allocator@U?$pair@$$CBHPAVBaseDialog@@@std@@@3@$0A@@std@@@1@AB_N@Z ; std::pair<std::_Tree<std::_Tmap_traits<int,BaseDialog *,std::less<int>,std::allocator<std::pair<int const ,BaseDialog *> >,0> >::iterator,bool>::pair<std::_Tree<std::_Tmap_traits<int,BaseDialog *,std::less<int>,std::allocator<std::pair<int const ,BaseDialog *> >,0> >::iterator,bool>
  00199	8b 45 08	 mov	 eax, DWORD PTR ___$ReturnUdt$[ebp]
  0019c	eb 17		 jmp	 SHORT $L188571
$L188597:

; 502  : 			else
; 503  : 				return (_Pairib(_Where, false));

  0019e	c6 45 c7 00	 mov	 BYTE PTR $T189594[ebp], 0
  001a2	8d 55 c7	 lea	 edx, DWORD PTR $T189594[ebp]
  001a5	52		 push	 edx
  001a6	8d 45 e8	 lea	 eax, DWORD PTR __Where$188587[ebp]
  001a9	50		 push	 eax
  001aa	8b 4d 08	 mov	 ecx, DWORD PTR ___$ReturnUdt$[ebp]
  001ad	e8 00 00 00 00	 call	 ??0?$pair@Viterator@?$_Tree@V?$_Tmap_traits@HPAVBaseDialog@@U?$less@H@std@@V?$allocator@U?$pair@$$CBHPAVBaseDialog@@@std@@@3@$0A@@std@@@std@@_N@std@@QAE@ABViterator@?$_Tree@V?$_Tmap_traits@HPAVBaseDialog@@U?$less@H@std@@V?$allocator@U?$pair@$$CBHPAVBaseDialog@@@std@@@3@$0A@@std@@@1@AB_N@Z ; std::pair<std::_Tree<std::_Tmap_traits<int,BaseDialog *,std::less<int>,std::allocator<std::pair<int const ,BaseDialog *> >,0> >::iterator,bool>::pair<std::_Tree<std::_Tmap_traits<int,BaseDialog *,std::less<int>,std::allocator<std::pair<int const ,BaseDialog *> >,0> >::iterator,bool>
  001b2	8b 45 08	 mov	 eax, DWORD PTR ___$ReturnUdt$[ebp]
$L188571:

; 504  : 			}
; 505  : 		}

  001b5	52		 push	 edx
  001b6	8b cd		 mov	 ecx, ebp
  001b8	50		 push	 eax
  001b9	8d 15 00 00 00
	00		 lea	 edx, DWORD PTR $L189597
  001bf	e8 00 00 00 00	 call	 @_RTC_CheckStackVars@8
  001c4	58		 pop	 eax
  001c5	5a		 pop	 edx
  001c6	5f		 pop	 edi
  001c7	83 c4 40	 add	 esp, 64			; 00000040H
  001ca	3b ec		 cmp	 ebp, esp
  001cc	e8 00 00 00 00	 call	 __RTC_CheckEsp
  001d1	8b e5		 mov	 esp, ebp
  001d3	5d		 pop	 ebp
  001d4	c2 08 00	 ret	 8
$L189597:
  001d7	01 00 00 00	 DD	 1
  001db	00 00 00 00	 DD	 $L189596
$L189596:
  001df	e8 ff ff ff	 DD	 -24			; ffffffe8H
  001e3	04 00 00 00	 DD	 4
  001e7	00 00 00 00	 DD	 $L189595
$L189595:
  001eb	5f		 DB	 95			; 0000005fH
  001ec	57		 DB	 87			; 00000057H
  001ed	68		 DB	 104			; 00000068H
  001ee	65		 DB	 101			; 00000065H
  001ef	72		 DB	 114			; 00000072H
  001f0	65		 DB	 101			; 00000065H
  001f1	00		 DB	 0
?insert@?$_Tree@V?$_Tmap_traits@HPAVBaseDialog@@U?$less@H@std@@V?$allocator@U?$pair@$$CBHPAVBaseDialog@@@std@@@3@$0A@@std@@@std@@QAE?AU?$pair@Viterator@?$_Tree@V?$_Tmap_traits@HPAVBaseDialog@@U?$less@H@std@@V?$allocator@U?$pair@$$CBHPAVBaseDialog@@@std@@@3@$0A@@std@@@std@@_N@2@ABU?$pair@$$CBHPAVBaseDialog@@@2@@Z ENDP ; std::_Tree<std::_Tmap_traits<int,BaseDialog *,std::less<int>,std::allocator<std::pair<int const ,BaseDialog *> >,0> >::insert
_TEXT	ENDS
PUBLIC	?erase@?$_Tree@V?$_Tmap_traits@HPAVBaseDialog@@U?$less@H@std@@V?$allocator@U?$pair@$$CBHPAVBaseDialog@@@std@@@3@$0A@@std@@@std@@QAE?AViterator@12@V312@@Z ; std::_Tree<std::_Tmap_traits<int,BaseDialog *,std::less<int>,std::allocator<std::pair<int const ,BaseDialog *> >,0> >::erase
PUBLIC	?clear@?$_Tree@V?$_Tmap_traits@HPAVBaseDialog@@U?$less@H@std@@V?$allocator@U?$pair@$$CBHPAVBaseDialog@@@std@@@3@$0A@@std@@@std@@QAEXXZ ; std::_Tree<std::_Tmap_traits<int,BaseDialog *,std::less<int>,std::allocator<std::pair<int const ,BaseDialog *> >,0> >::clear
PUBLIC	??9const_iterator@?$_Tree@V?$_Tmap_traits@HPAVBaseDialog@@U?$less@H@std@@V?$allocator@U?$pair@$$CBHPAVBaseDialog@@@std@@@3@$0A@@std@@@std@@QBE_NABV012@@Z ; std::_Tree<std::_Tmap_traits<int,BaseDialog *,std::less<int>,std::allocator<std::pair<int const ,BaseDialog *> >,0> >::const_iterator::operator!=
PUBLIC	??Eiterator@?$_Tree@V?$_Tmap_traits@HPAVBaseDialog@@U?$less@H@std@@V?$allocator@U?$pair@$$CBHPAVBaseDialog@@@std@@@3@$0A@@std@@@std@@QAE?AV012@H@Z ; std::_Tree<std::_Tmap_traits<int,BaseDialog *,std::less<int>,std::allocator<std::pair<int const ,BaseDialog *> >,0> >::iterator::operator++
; Function compile flags: /Odt /RTCsu
;	COMDAT ?erase@?$_Tree@V?$_Tmap_traits@HPAVBaseDialog@@U?$less@H@std@@V?$allocator@U?$pair@$$CBHPAVBaseDialog@@@std@@@3@$0A@@std@@@std@@QAE?AViterator@12@V312@0@Z
_TEXT	SEGMENT
$T189602 = -20						; size = 4
$T189601 = -16						; size = 4
$T189600 = -12						; size = 4
$T189599 = -8						; size = 4
_this$ = -4						; size = 4
___$ReturnUdt$ = 8					; size = 4
__First$ = 12						; size = 4
__Last$ = 16						; size = 4
?erase@?$_Tree@V?$_Tmap_traits@HPAVBaseDialog@@U?$less@H@std@@V?$allocator@U?$pair@$$CBHPAVBaseDialog@@@std@@@3@$0A@@std@@@std@@QAE?AViterator@12@V312@0@Z PROC NEAR ; std::_Tree<std::_Tmap_traits<int,BaseDialog *,std::less<int>,std::allocator<std::pair<int const ,BaseDialog *> >,0> >::erase, COMDAT
; _this$ = ecx

; 750  : 		{	// erase [_First, _Last)

  00000	55		 push	 ebp
  00001	8b ec		 mov	 ebp, esp
  00003	83 ec 14	 sub	 esp, 20			; 00000014H
  00006	b8 cc cc cc cc	 mov	 eax, -858993460		; ccccccccH
  0000b	89 45 ec	 mov	 DWORD PTR [ebp-20], eax
  0000e	89 45 f0	 mov	 DWORD PTR [ebp-16], eax
  00011	89 45 f4	 mov	 DWORD PTR [ebp-12], eax
  00014	89 45 f8	 mov	 DWORD PTR [ebp-8], eax
  00017	89 45 fc	 mov	 DWORD PTR [ebp-4], eax
  0001a	89 4d fc	 mov	 DWORD PTR _this$[ebp], ecx

; 751  : 		if (_First == begin() && _Last == end())

  0001d	8d 45 f8	 lea	 eax, DWORD PTR $T189599[ebp]
  00020	50		 push	 eax
  00021	8b 4d fc	 mov	 ecx, DWORD PTR _this$[ebp]
  00024	e8 00 00 00 00	 call	 ?begin@?$_Tree@V?$_Tmap_traits@HPAVBaseDialog@@U?$less@H@std@@V?$allocator@U?$pair@$$CBHPAVBaseDialog@@@std@@@3@$0A@@std@@@std@@QAE?AViterator@12@XZ ; std::_Tree<std::_Tmap_traits<int,BaseDialog *,std::less<int>,std::allocator<std::pair<int const ,BaseDialog *> >,0> >::begin
  00029	50		 push	 eax
  0002a	8d 4d 0c	 lea	 ecx, DWORD PTR __First$[ebp]
  0002d	e8 00 00 00 00	 call	 ??8const_iterator@?$_Tree@V?$_Tmap_traits@HPAVBaseDialog@@U?$less@H@std@@V?$allocator@U?$pair@$$CBHPAVBaseDialog@@@std@@@3@$0A@@std@@@std@@QBE_NABV012@@Z ; std::_Tree<std::_Tmap_traits<int,BaseDialog *,std::less<int>,std::allocator<std::pair<int const ,BaseDialog *> >,0> >::const_iterator::operator==
  00032	0f b6 c8	 movzx	 ecx, al
  00035	85 c9		 test	 ecx, ecx
  00037	74 35		 je	 SHORT $L188613
  00039	8d 55 f4	 lea	 edx, DWORD PTR $T189600[ebp]
  0003c	52		 push	 edx
  0003d	8b 4d fc	 mov	 ecx, DWORD PTR _this$[ebp]
  00040	e8 00 00 00 00	 call	 ?end@?$_Tree@V?$_Tmap_traits@HPAVBaseDialog@@U?$less@H@std@@V?$allocator@U?$pair@$$CBHPAVBaseDialog@@@std@@@3@$0A@@std@@@std@@QAE?AViterator@12@XZ ; std::_Tree<std::_Tmap_traits<int,BaseDialog *,std::less<int>,std::allocator<std::pair<int const ,BaseDialog *> >,0> >::end
  00045	50		 push	 eax
  00046	8d 4d 10	 lea	 ecx, DWORD PTR __Last$[ebp]
  00049	e8 00 00 00 00	 call	 ??8const_iterator@?$_Tree@V?$_Tmap_traits@HPAVBaseDialog@@U?$less@H@std@@V?$allocator@U?$pair@$$CBHPAVBaseDialog@@@std@@@3@$0A@@std@@@std@@QBE_NABV012@@Z ; std::_Tree<std::_Tmap_traits<int,BaseDialog *,std::less<int>,std::allocator<std::pair<int const ,BaseDialog *> >,0> >::const_iterator::operator==
  0004e	0f b6 c0	 movzx	 eax, al
  00051	85 c0		 test	 eax, eax
  00053	74 19		 je	 SHORT $L188613

; 752  : 			{	// erase all
; 753  : 			clear();

  00055	8b 4d fc	 mov	 ecx, DWORD PTR _this$[ebp]
  00058	e8 00 00 00 00	 call	 ?clear@?$_Tree@V?$_Tmap_traits@HPAVBaseDialog@@U?$less@H@std@@V?$allocator@U?$pair@$$CBHPAVBaseDialog@@@std@@@3@$0A@@std@@@std@@QAEXXZ ; std::_Tree<std::_Tmap_traits<int,BaseDialog *,std::less<int>,std::allocator<std::pair<int const ,BaseDialog *> >,0> >::clear

; 754  : 			return (begin());

  0005d	8b 4d 08	 mov	 ecx, DWORD PTR ___$ReturnUdt$[ebp]
  00060	51		 push	 ecx
  00061	8b 4d fc	 mov	 ecx, DWORD PTR _this$[ebp]
  00064	e8 00 00 00 00	 call	 ?begin@?$_Tree@V?$_Tmap_traits@HPAVBaseDialog@@U?$less@H@std@@V?$allocator@U?$pair@$$CBHPAVBaseDialog@@@std@@@3@$0A@@std@@@std@@QAE?AViterator@12@XZ ; std::_Tree<std::_Tmap_traits<int,BaseDialog *,std::less<int>,std::allocator<std::pair<int const ,BaseDialog *> >,0> >::begin
  00069	8b 45 08	 mov	 eax, DWORD PTR ___$ReturnUdt$[ebp]
  0006c	eb 3d		 jmp	 SHORT $L188606
$L188613:

; 755  : 			}
; 756  : 		else
; 757  : 			{	// partial erase, one at a time
; 758  : 			while (_First != _Last)

  0006e	8d 55 10	 lea	 edx, DWORD PTR __Last$[ebp]
  00071	52		 push	 edx
  00072	8d 4d 0c	 lea	 ecx, DWORD PTR __First$[ebp]
  00075	e8 00 00 00 00	 call	 ??9const_iterator@?$_Tree@V?$_Tmap_traits@HPAVBaseDialog@@U?$less@H@std@@V?$allocator@U?$pair@$$CBHPAVBaseDialog@@@std@@@3@$0A@@std@@@std@@QBE_NABV012@@Z ; std::_Tree<std::_Tmap_traits<int,BaseDialog *,std::less<int>,std::allocator<std::pair<int const ,BaseDialog *> >,0> >::const_iterator::operator!=
  0007a	0f b6 c0	 movzx	 eax, al
  0007d	85 c0		 test	 eax, eax
  0007f	74 1f		 je	 SHORT $L188614

; 759  : 				erase(_First++);

  00081	6a 00		 push	 0
  00083	8d 4d f0	 lea	 ecx, DWORD PTR $T189601[ebp]
  00086	51		 push	 ecx
  00087	8d 4d 0c	 lea	 ecx, DWORD PTR __First$[ebp]
  0008a	e8 00 00 00 00	 call	 ??Eiterator@?$_Tree@V?$_Tmap_traits@HPAVBaseDialog@@U?$less@H@std@@V?$allocator@U?$pair@$$CBHPAVBaseDialog@@@std@@@3@$0A@@std@@@std@@QAE?AV012@H@Z ; std::_Tree<std::_Tmap_traits<int,BaseDialog *,std::less<int>,std::allocator<std::pair<int const ,BaseDialog *> >,0> >::iterator::operator++
  0008f	8b 10		 mov	 edx, DWORD PTR [eax]
  00091	52		 push	 edx
  00092	8d 45 ec	 lea	 eax, DWORD PTR $T189602[ebp]
  00095	50		 push	 eax
  00096	8b 4d fc	 mov	 ecx, DWORD PTR _this$[ebp]
  00099	e8 00 00 00 00	 call	 ?erase@?$_Tree@V?$_Tmap_traits@HPAVBaseDialog@@U?$less@H@std@@V?$allocator@U?$pair@$$CBHPAVBaseDialog@@@std@@@3@$0A@@std@@@std@@QAE?AViterator@12@V312@@Z ; std::_Tree<std::_Tmap_traits<int,BaseDialog *,std::less<int>,std::allocator<std::pair<int const ,BaseDialog *> >,0> >::erase
  0009e	eb ce		 jmp	 SHORT $L188613
$L188614:

; 760  : 			return (_First);

  000a0	8b 4d 08	 mov	 ecx, DWORD PTR ___$ReturnUdt$[ebp]
  000a3	8b 55 0c	 mov	 edx, DWORD PTR __First$[ebp]
  000a6	89 11		 mov	 DWORD PTR [ecx], edx
  000a8	8b 45 08	 mov	 eax, DWORD PTR ___$ReturnUdt$[ebp]
$L188606:

; 761  : 			}
; 762  : 		}

  000ab	83 c4 14	 add	 esp, 20			; 00000014H
  000ae	3b ec		 cmp	 ebp, esp
  000b0	e8 00 00 00 00	 call	 __RTC_CheckEsp
  000b5	8b e5		 mov	 esp, ebp
  000b7	5d		 pop	 ebp
  000b8	c2 0c 00	 ret	 12			; 0000000cH
?erase@?$_Tree@V?$_Tmap_traits@HPAVBaseDialog@@U?$less@H@std@@V?$allocator@U?$pair@$$CBHPAVBaseDialog@@@std@@@3@$0A@@std@@@std@@QAE?AViterator@12@V312@0@Z ENDP ; std::_Tree<std::_Tmap_traits<int,BaseDialog *,std::less<int>,std::allocator<std::pair<int const ,BaseDialog *> >,0> >::erase
_TEXT	ENDS
PUBLIC	?_Buynode@?$_Tree@V?$_Tmap_traits@HPAVBaseDialog@@U?$less@H@std@@V?$allocator@U?$pair@$$CBHPAVBaseDialog@@@std@@@3@$0A@@std@@@std@@IAEPAU_Node@?$_Tree_nod@V?$_Tmap_traits@HPAVBaseDialog@@U?$less@H@std@@V?$allocator@U?$pair@$$CBHPAVBaseDialog@@@std@@@3@$0A@@std@@@2@XZ ; std::_Tree<std::_Tmap_traits<int,BaseDialog *,std::less<int>,std::allocator<std::pair<int const ,BaseDialog *> >,0> >::_Buynode
; Function compile flags: /Odt /RTCsu
;	COMDAT ?_Init@?$_Tree@V?$_Tmap_traits@HPAVBaseDialog@@U?$less@H@std@@V?$allocator@U?$pair@$$CBHPAVBaseDialog@@@std@@@3@$0A@@std@@@std@@IAEXXZ
_TEXT	SEGMENT
_this$ = -4						; size = 4
?_Init@?$_Tree@V?$_Tmap_traits@HPAVBaseDialog@@U?$less@H@std@@V?$allocator@U?$pair@$$CBHPAVBaseDialog@@@std@@@3@$0A@@std@@@std@@IAEXXZ PROC NEAR ; std::_Tree<std::_Tmap_traits<int,BaseDialog *,std::less<int>,std::allocator<std::pair<int const ,BaseDialog *> >,0> >::_Init, COMDAT
; _this$ = ecx

; 901  : 		{	// create head/nil node and make tree empty

  00000	55		 push	 ebp
  00001	8b ec		 mov	 ebp, esp
  00003	51		 push	 ecx
  00004	c7 45 fc cc cc
	cc cc		 mov	 DWORD PTR [ebp-4], -858993460 ; ccccccccH
  0000b	89 4d fc	 mov	 DWORD PTR _this$[ebp], ecx

; 902  : 		_Myhead = _Buynode();

  0000e	8b 4d fc	 mov	 ecx, DWORD PTR _this$[ebp]
  00011	e8 00 00 00 00	 call	 ?_Buynode@?$_Tree@V?$_Tmap_traits@HPAVBaseDialog@@U?$less@H@std@@V?$allocator@U?$pair@$$CBHPAVBaseDialog@@@std@@@3@$0A@@std@@@std@@IAEPAU_Node@?$_Tree_nod@V?$_Tmap_traits@HPAVBaseDialog@@U?$less@H@std@@V?$allocator@U?$pair@$$CBHPAVBaseDialog@@@std@@@3@$0A@@std@@@2@XZ ; std::_Tree<std::_Tmap_traits<int,BaseDialog *,std::less<int>,std::allocator<std::pair<int const ,BaseDialog *> >,0> >::_Buynode
  00016	8b 4d fc	 mov	 ecx, DWORD PTR _this$[ebp]
  00019	89 41 04	 mov	 DWORD PTR [ecx+4], eax

; 903  : 		_Isnil(_Myhead) = true;

  0001c	8b 55 fc	 mov	 edx, DWORD PTR _this$[ebp]
  0001f	8b 42 04	 mov	 eax, DWORD PTR [edx+4]
  00022	50		 push	 eax
  00023	e8 00 00 00 00	 call	 ?_Isnil@?$_Tree@V?$_Tmap_traits@HPAVBaseDialog@@U?$less@H@std@@V?$allocator@U?$pair@$$CBHPAVBaseDialog@@@std@@@3@$0A@@std@@@std@@KAAADPAU_Node@?$_Tree_nod@V?$_Tmap_traits@HPAVBaseDialog@@U?$less@H@std@@V?$allocator@U?$pair@$$CBHPAVBaseDialog@@@std@@@3@$0A@@std@@@2@@Z ; std::_Tree<std::_Tmap_traits<int,BaseDialog *,std::less<int>,std::allocator<std::pair<int const ,BaseDialog *> >,0> >::_Isnil
  00028	83 c4 04	 add	 esp, 4
  0002b	c6 00 01	 mov	 BYTE PTR [eax], 1

; 904  : 		_Root() = _Myhead;

  0002e	8b 4d fc	 mov	 ecx, DWORD PTR _this$[ebp]
  00031	e8 00 00 00 00	 call	 ?_Root@?$_Tree@V?$_Tmap_traits@HPAVBaseDialog@@U?$less@H@std@@V?$allocator@U?$pair@$$CBHPAVBaseDialog@@@std@@@3@$0A@@std@@@std@@IAEAAPAU_Node@?$_Tree_nod@V?$_Tmap_traits@HPAVBaseDialog@@U?$less@H@std@@V?$allocator@U?$pair@$$CBHPAVBaseDialog@@@std@@@3@$0A@@std@@@2@XZ ; std::_Tree<std::_Tmap_traits<int,BaseDialog *,std::less<int>,std::allocator<std::pair<int const ,BaseDialog *> >,0> >::_Root
  00036	8b 4d fc	 mov	 ecx, DWORD PTR _this$[ebp]
  00039	8b 51 04	 mov	 edx, DWORD PTR [ecx+4]
  0003c	89 10		 mov	 DWORD PTR [eax], edx

; 905  : 		_Lmost() = _Myhead, _Rmost() = _Myhead;

  0003e	8b 4d fc	 mov	 ecx, DWORD PTR _this$[ebp]
  00041	e8 00 00 00 00	 call	 ?_Lmost@?$_Tree@V?$_Tmap_traits@HPAVBaseDialog@@U?$less@H@std@@V?$allocator@U?$pair@$$CBHPAVBaseDialog@@@std@@@3@$0A@@std@@@std@@IAEAAPAU_Node@?$_Tree_nod@V?$_Tmap_traits@HPAVBaseDialog@@U?$less@H@std@@V?$allocator@U?$pair@$$CBHPAVBaseDialog@@@std@@@3@$0A@@std@@@2@XZ ; std::_Tree<std::_Tmap_traits<int,BaseDialog *,std::less<int>,std::allocator<std::pair<int const ,BaseDialog *> >,0> >::_Lmost
  00046	8b 4d fc	 mov	 ecx, DWORD PTR _this$[ebp]
  00049	8b 51 04	 mov	 edx, DWORD PTR [ecx+4]
  0004c	89 10		 mov	 DWORD PTR [eax], edx
  0004e	8b 4d fc	 mov	 ecx, DWORD PTR _this$[ebp]
  00051	e8 00 00 00 00	 call	 ?_Rmost@?$_Tree@V?$_Tmap_traits@HPAVBaseDialog@@U?$less@H@std@@V?$allocator@U?$pair@$$CBHPAVBaseDialog@@@std@@@3@$0A@@std@@@std@@IAEAAPAU_Node@?$_Tree_nod@V?$_Tmap_traits@HPAVBaseDialog@@U?$less@H@std@@V?$allocator@U?$pair@$$CBHPAVBaseDialog@@@std@@@3@$0A@@std@@@2@XZ ; std::_Tree<std::_Tmap_traits<int,BaseDialog *,std::less<int>,std::allocator<std::pair<int const ,BaseDialog *> >,0> >::_Rmost
  00056	8b 4d fc	 mov	 ecx, DWORD PTR _this$[ebp]
  00059	8b 51 04	 mov	 edx, DWORD PTR [ecx+4]
  0005c	89 10		 mov	 DWORD PTR [eax], edx

; 906  : 		_Mysize = 0;

  0005e	8b 45 fc	 mov	 eax, DWORD PTR _this$[ebp]
  00061	c7 40 08 00 00
	00 00		 mov	 DWORD PTR [eax+8], 0

; 907  : 		}

  00068	83 c4 04	 add	 esp, 4
  0006b	3b ec		 cmp	 ebp, esp
  0006d	e8 00 00 00 00	 call	 __RTC_CheckEsp
  00072	8b e5		 mov	 esp, ebp
  00074	5d		 pop	 ebp
  00075	c3		 ret	 0
?_Init@?$_Tree@V?$_Tmap_traits@HPAVBaseDialog@@U?$less@H@std@@V?$allocator@U?$pair@$$CBHPAVBaseDialog@@@std@@@3@$0A@@std@@@std@@IAEXXZ ENDP ; std::_Tree<std::_Tmap_traits<int,BaseDialog *,std::less<int>,std::allocator<std::pair<int const ,BaseDialog *> >,0> >::_Init
_TEXT	ENDS
PUBLIC	??_R0?AVlogic_error@std@@@8			; std::logic_error `RTTI Type Descriptor'
PUBLIC	__CT??_R0?AVlogic_error@std@@@8??0logic_error@std@@QAE@ABV01@@Z40
PUBLIC	??_R0?AVexception@@@8				; exception `RTTI Type Descriptor'
PUBLIC	__CT??_R0?AVexception@@@8??0exception@@QAE@ABV0@@Z12
PUBLIC	__TI3?AVlength_error@std@@
PUBLIC	__CTA3?AVlength_error@std@@
PUBLIC	__CT??_R0?AVlength_error@std@@@8??0length_error@std@@QAE@ABV01@@Z40
PUBLIC	??_C@_0BE@JONHPENG@map?1set?$DMT?$DO?5too?5long?$AA@ ; `string'
PUBLIC	?_Color@?$_Tree@V?$_Tmap_traits@HPAVBaseDialog@@U?$less@H@std@@V?$allocator@U?$pair@$$CBHPAVBaseDialog@@@std@@@3@$0A@@std@@@std@@KAAADPAU_Node@?$_Tree_nod@V?$_Tmap_traits@HPAVBaseDialog@@U?$less@H@std@@V?$allocator@U?$pair@$$CBHPAVBaseDialog@@@std@@@3@$0A@@std@@@2@@Z ; std::_Tree<std::_Tmap_traits<int,BaseDialog *,std::less<int>,std::allocator<std::pair<int const ,BaseDialog *> >,0> >::_Color
PUBLIC	?max_size@?$_Tree@V?$_Tmap_traits@HPAVBaseDialog@@U?$less@H@std@@V?$allocator@U?$pair@$$CBHPAVBaseDialog@@@std@@@3@$0A@@std@@@std@@QBEIXZ ; std::_Tree<std::_Tmap_traits<int,BaseDialog *,std::less<int>,std::allocator<std::pair<int const ,BaseDialog *> >,0> >::max_size
PUBLIC	??_R0?AVlength_error@std@@@8			; std::length_error `RTTI Type Descriptor'
PUBLIC	?_Lrotate@?$_Tree@V?$_Tmap_traits@HPAVBaseDialog@@U?$less@H@std@@V?$allocator@U?$pair@$$CBHPAVBaseDialog@@@std@@@3@$0A@@std@@@std@@IAEXPAU_Node@?$_Tree_nod@V?$_Tmap_traits@HPAVBaseDialog@@U?$less@H@std@@V?$allocator@U?$pair@$$CBHPAVBaseDialog@@@std@@@3@$0A@@std@@@2@@Z ; std::_Tree<std::_Tmap_traits<int,BaseDialog *,std::less<int>,std::allocator<std::pair<int const ,BaseDialog *> >,0> >::_Lrotate
PUBLIC	?_Rrotate@?$_Tree@V?$_Tmap_traits@HPAVBaseDialog@@U?$less@H@std@@V?$allocator@U?$pair@$$CBHPAVBaseDialog@@@std@@@3@$0A@@std@@@std@@IAEXPAU_Node@?$_Tree_nod@V?$_Tmap_traits@HPAVBaseDialog@@U?$less@H@std@@V?$allocator@U?$pair@$$CBHPAVBaseDialog@@@std@@@3@$0A@@std@@@2@@Z ; std::_Tree<std::_Tmap_traits<int,BaseDialog *,std::less<int>,std::allocator<std::pair<int const ,BaseDialog *> >,0> >::_Rrotate
PUBLIC	?_Buynode@?$_Tree@V?$_Tmap_traits@HPAVBaseDialog@@U?$less@H@std@@V?$allocator@U?$pair@$$CBHPAVBaseDialog@@@std@@@3@$0A@@std@@@std@@IAEPAU_Node@?$_Tree_nod@V?$_Tmap_traits@HPAVBaseDialog@@U?$less@H@std@@V?$allocator@U?$pair@$$CBHPAVBaseDialog@@@std@@@3@$0A@@std@@@2@PAU342@00ABU?$pair@$$CBHPAVBaseDialog@@@2@D@Z ; std::_Tree<std::_Tmap_traits<int,BaseDialog *,std::less<int>,std::allocator<std::pair<int const ,BaseDialog *> >,0> >::_Buynode
PUBLIC	??0logic_error@std@@QAE@ABV01@@Z		; std::logic_error::logic_error
PUBLIC	??0length_error@std@@QAE@ABV?$basic_string@DU?$char_traits@D@std@@V?$allocator@D@2@@1@@Z ; std::length_error::length_error
PUBLIC	??1length_error@std@@UAE@XZ			; std::length_error::~length_error
PUBLIC	??0length_error@std@@QAE@ABV01@@Z		; std::length_error::length_error
EXTRN	__CxxThrowException@8:NEAR
EXTRN	??0exception@@QAE@ABV0@@Z:NEAR			; exception::exception
;	COMDAT xdata$x
xdata$x	SEGMENT
$T189612 DD	0ffffffffH
	DD	FLAT:$L189608
$T189610 DD	019930520H
	DD	01H
	DD	FLAT:$T189612
	DD	2 DUP(00H)
	DD	2 DUP(00H)
xdata$x	ENDS
;	COMDAT ??_C@_0BE@JONHPENG@map?1set?$DMT?$DO?5too?5long?$AA@
CONST	SEGMENT
??_C@_0BE@JONHPENG@map?1set?$DMT?$DO?5too?5long?$AA@ DB 'map/set<T> too l'
	DB	'ong', 00H					; `string'
CONST	ENDS
;	COMDAT __TI3?AVlength_error@std@@
xdata$x	SEGMENT
__TI3?AVlength_error@std@@ DD 00H
	DD	FLAT:??1length_error@std@@UAE@XZ
	DD	00H
	DD	FLAT:__CTA3?AVlength_error@std@@
xdata$x	ENDS
;	COMDAT __CTA3?AVlength_error@std@@
xdata$x	SEGMENT
__CTA3?AVlength_error@std@@ DD 03H
	DD	FLAT:__CT??_R0?AVlength_error@std@@@8??0length_error@std@@QAE@ABV01@@Z40
	DD	FLAT:__CT??_R0?AVlogic_error@std@@@8??0logic_error@std@@QAE@ABV01@@Z40
	DD	FLAT:__CT??_R0?AVexception@@@8??0exception@@QAE@ABV0@@Z12
xdata$x	ENDS
;	COMDAT __CT??_R0?AVlength_error@std@@@8??0length_error@std@@QAE@ABV01@@Z40
xdata$x	SEGMENT
__CT??_R0?AVlength_error@std@@@8??0length_error@std@@QAE@ABV01@@Z40 DD 00H
	DD	FLAT:??_R0?AVlength_error@std@@@8
	DD	00H
	DD	0ffffffffH
	ORG $+4
	DD	028H
	DD	FLAT:??0length_error@std@@QAE@ABV01@@Z
xdata$x	ENDS
;	COMDAT ??_R0?AVlength_error@std@@@8
_DATA	SEGMENT
??_R0?AVlength_error@std@@@8 DD FLAT:??_7type_info@@6B@	; std::length_error `RTTI Type Descriptor'
	DD	00H
	DB	'.?AVlength_error@std@@', 00H
	ORG $-31
	DD	FLAT:??_7type_info@@6B@
	DD	00H
	DB	'.?AVlength_error@std@@', 00H
_DATA	ENDS
;	COMDAT __CT??_R0?AVlogic_error@std@@@8??0logic_error@std@@QAE@ABV01@@Z40
xdata$x	SEGMENT
__CT??_R0?AVlogic_error@std@@@8??0logic_error@std@@QAE@ABV01@@Z40 DD 00H
	DD	FLAT:??_R0?AVlogic_error@std@@@8
	DD	00H
	DD	0ffffffffH
	ORG $+4
	DD	028H
	DD	FLAT:??0logic_error@std@@QAE@ABV01@@Z
xdata$x	ENDS
;	COMDAT ??_R0?AVlogic_error@std@@@8
_DATA	SEGMENT
??_R0?AVlogic_error@std@@@8 DD FLAT:??_7type_info@@6B@	; std::logic_error `RTTI Type Descriptor'
	DD	00H
	DB	'.?AVlogic_error@std@@', 00H
	ORG $-30
	DD	FLAT:??_7type_info@@6B@
	DD	00H
	DB	'.?AVlogic_error@std@@', 00H
_DATA	ENDS
;	COMDAT __CT??_R0?AVexception@@@8??0exception@@QAE@ABV0@@Z12
xdata$x	SEGMENT
__CT??_R0?AVexception@@@8??0exception@@QAE@ABV0@@Z12 DD 00H
	DD	FLAT:??_R0?AVexception@@@8
	DD	00H
	DD	0ffffffffH
	ORG $+4
	DD	0cH
	DD	FLAT:??0exception@@QAE@ABV0@@Z
xdata$x	ENDS
;	COMDAT ??_R0?AVexception@@@8
_DATA	SEGMENT
??_R0?AVexception@@@8 DD FLAT:??_7type_info@@6B@	; exception `RTTI Type Descriptor'
	DD	00H
	DB	'.?AVexception@@', 00H
	ORG $-24
	DD	FLAT:??_7type_info@@6B@
	DD	00H
	DB	'.?AVexception@@', 00H
; Function compile flags: /Odt /RTCsu
_DATA	ENDS
;	COMDAT ?_Insert@?$_Tree@V?$_Tmap_traits@HPAVBaseDialog@@U?$less@H@std@@V?$allocator@U?$pair@$$CBHPAVBaseDialog@@@std@@@3@$0A@@std@@@std@@IAE?AViterator@12@_NPAU_Node@?$_Tree_nod@V?$_Tmap_traits@HPAVBaseDialog@@U?$less@H@std@@V?$allocator@U?$pair@$$CBHPAVBaseDialog@@@std@@@3@$0A@@std@@@2@ABU?$pair@$$CBHPAVBaseDialog@@@2@@Z
_TEXT	SEGMENT
$T189606 = -92						; size = 28
$T189605 = -64						; size = 40
__Pnode$188637 = -24					; size = 4
__Newnode$ = -20					; size = 4
_this$ = -16						; size = 4
__$EHRec$ = -12						; size = 12
___$ReturnUdt$ = 8					; size = 4
__Addleft$ = 12						; size = 1
__Wherenode$ = 16					; size = 4
__Val$ = 20						; size = 4
?_Insert@?$_Tree@V?$_Tmap_traits@HPAVBaseDialog@@U?$less@H@std@@V?$allocator@U?$pair@$$CBHPAVBaseDialog@@@std@@@3@$0A@@std@@@std@@IAE?AViterator@12@_NPAU_Node@?$_Tree_nod@V?$_Tmap_traits@HPAVBaseDialog@@U?$less@H@std@@V?$allocator@U?$pair@$$CBHPAVBaseDialog@@@std@@@3@$0A@@std@@@2@ABU?$pair@$$CBHPAVBaseDialog@@@2@@Z PROC NEAR ; std::_Tree<std::_Tmap_traits<int,BaseDialog *,std::less<int>,std::allocator<std::pair<int const ,BaseDialog *> >,0> >::_Insert, COMDAT
; _this$ = ecx

; 911  : 		{	// add node with value next to _Wherenode, to left if _Addnode

  00000	55		 push	 ebp
  00001	8b ec		 mov	 ebp, esp
  00003	6a ff		 push	 -1
  00005	68 00 00 00 00	 push	 __ehhandler$?_Insert@?$_Tree@V?$_Tmap_traits@HPAVBaseDialog@@U?$less@H@std@@V?$allocator@U?$pair@$$CBHPAVBaseDialog@@@std@@@3@$0A@@std@@@std@@IAE?AViterator@12@_NPAU_Node@?$_Tree_nod@V?$_Tmap_traits@HPAVBaseDialog@@U?$less@H@std@@V?$allocator@U?$pair@$$CBHPAVBaseDialog@@@std@@@3@$0A@@std@@@2@ABU?$pair@$$CBHPAVBaseDialog@@@2@@Z
  0000a	64 a1 00 00 00
	00		 mov	 eax, DWORD PTR fs:__except_list
  00010	50		 push	 eax
  00011	64 89 25 00 00
	00 00		 mov	 DWORD PTR fs:__except_list, esp
  00018	83 ec 50	 sub	 esp, 80			; 00000050H
  0001b	56		 push	 esi
  0001c	57		 push	 edi
  0001d	51		 push	 ecx
  0001e	8d 7d a4	 lea	 edi, DWORD PTR [ebp-92]
  00021	b9 14 00 00 00	 mov	 ecx, 20			; 00000014H
  00026	b8 cc cc cc cc	 mov	 eax, -858993460		; ccccccccH
  0002b	f3 ab		 rep stosd
  0002d	59		 pop	 ecx
  0002e	89 4d f0	 mov	 DWORD PTR _this$[ebp], ecx

; 912  : 		if (max_size() - 1 <= _Mysize)

  00031	8b 4d f0	 mov	 ecx, DWORD PTR _this$[ebp]
  00034	e8 00 00 00 00	 call	 ?max_size@?$_Tree@V?$_Tmap_traits@HPAVBaseDialog@@U?$less@H@std@@V?$allocator@U?$pair@$$CBHPAVBaseDialog@@@std@@@3@$0A@@std@@@std@@QBEIXZ ; std::_Tree<std::_Tmap_traits<int,BaseDialog *,std::less<int>,std::allocator<std::pair<int const ,BaseDialog *> >,0> >::max_size
  00039	83 e8 01	 sub	 eax, 1
  0003c	8b 4d f0	 mov	 ecx, DWORD PTR _this$[ebp]
  0003f	3b 41 08	 cmp	 eax, DWORD PTR [ecx+8]
  00042	77 38		 ja	 SHORT $L188622

; 913  : 			_THROW(length_error, "map/set<T> too long");

  00044	8b f4		 mov	 esi, esp
  00046	68 00 00 00 00	 push	 OFFSET FLAT:??_C@_0BE@JONHPENG@map?1set?$DMT?$DO?5too?5long?$AA@
  0004b	8d 4d a4	 lea	 ecx, DWORD PTR $T189606[ebp]
  0004e	ff 15 00 00 00
	00		 call	 DWORD PTR __imp_??0?$basic_string@DU?$char_traits@D@std@@V?$allocator@D@2@@std@@QAE@PBD@Z
  00054	3b f4		 cmp	 esi, esp
  00056	e8 00 00 00 00	 call	 __RTC_CheckEsp
  0005b	c7 45 fc 00 00
	00 00		 mov	 DWORD PTR __$EHRec$[ebp+8], 0
  00062	8d 55 a4	 lea	 edx, DWORD PTR $T189606[ebp]
  00065	52		 push	 edx
  00066	8d 4d c0	 lea	 ecx, DWORD PTR $T189605[ebp]
  00069	e8 00 00 00 00	 call	 ??0length_error@std@@QAE@ABV?$basic_string@DU?$char_traits@D@std@@V?$allocator@D@2@@1@@Z ; std::length_error::length_error
  0006e	68 00 00 00 00	 push	 OFFSET FLAT:__TI3?AVlength_error@std@@
  00073	8d 45 c0	 lea	 eax, DWORD PTR $T189605[ebp]
  00076	50		 push	 eax
  00077	e8 00 00 00 00	 call	 __CxxThrowException@8
$L188622:

; 914  : 		_Nodeptr _Newnode = _Buynode(_Myhead, _Wherenode, _Myhead,
; 915  : 			_Val, _Red);

  0007c	6a 00		 push	 0
  0007e	8b 4d 14	 mov	 ecx, DWORD PTR __Val$[ebp]
  00081	51		 push	 ecx
  00082	8b 55 f0	 mov	 edx, DWORD PTR _this$[ebp]
  00085	8b 42 04	 mov	 eax, DWORD PTR [edx+4]
  00088	50		 push	 eax
  00089	8b 4d 10	 mov	 ecx, DWORD PTR __Wherenode$[ebp]
  0008c	51		 push	 ecx
  0008d	8b 55 f0	 mov	 edx, DWORD PTR _this$[ebp]
  00090	8b 42 04	 mov	 eax, DWORD PTR [edx+4]
  00093	50		 push	 eax
  00094	8b 4d f0	 mov	 ecx, DWORD PTR _this$[ebp]
  00097	e8 00 00 00 00	 call	 ?_Buynode@?$_Tree@V?$_Tmap_traits@HPAVBaseDialog@@U?$less@H@std@@V?$allocator@U?$pair@$$CBHPAVBaseDialog@@@std@@@3@$0A@@std@@@std@@IAEPAU_Node@?$_Tree_nod@V?$_Tmap_traits@HPAVBaseDialog@@U?$less@H@std@@V?$allocator@U?$pair@$$CBHPAVBaseDialog@@@std@@@3@$0A@@std@@@2@PAU342@00ABU?$pair@$$CBHPAVBaseDialog@@@2@D@Z ; std::_Tree<std::_Tmap_traits<int,BaseDialog *,std::less<int>,std::allocator<std::pair<int const ,BaseDialog *> >,0> >::_Buynode
  0009c	89 45 ec	 mov	 DWORD PTR __Newnode$[ebp], eax

; 916  : 
; 917  : 		++_Mysize;

  0009f	8b 4d f0	 mov	 ecx, DWORD PTR _this$[ebp]
  000a2	8b 51 08	 mov	 edx, DWORD PTR [ecx+8]
  000a5	83 c2 01	 add	 edx, 1
  000a8	8b 45 f0	 mov	 eax, DWORD PTR _this$[ebp]
  000ab	89 50 08	 mov	 DWORD PTR [eax+8], edx

; 918  : 		if (_Wherenode == _Myhead)

  000ae	8b 4d f0	 mov	 ecx, DWORD PTR _this$[ebp]
  000b1	8b 55 10	 mov	 edx, DWORD PTR __Wherenode$[ebp]
  000b4	3b 51 04	 cmp	 edx, DWORD PTR [ecx+4]
  000b7	75 29		 jne	 SHORT $L188631

; 919  : 			{	// first node in tree, just set head values
; 920  : 			_Root() = _Newnode;

  000b9	8b 4d f0	 mov	 ecx, DWORD PTR _this$[ebp]
  000bc	e8 00 00 00 00	 call	 ?_Root@?$_Tree@V?$_Tmap_traits@HPAVBaseDialog@@U?$less@H@std@@V?$allocator@U?$pair@$$CBHPAVBaseDialog@@@std@@@3@$0A@@std@@@std@@IAEAAPAU_Node@?$_Tree_nod@V?$_Tmap_traits@HPAVBaseDialog@@U?$less@H@std@@V?$allocator@U?$pair@$$CBHPAVBaseDialog@@@std@@@3@$0A@@std@@@2@XZ ; std::_Tree<std::_Tmap_traits<int,BaseDialog *,std::less<int>,std::allocator<std::pair<int const ,BaseDialog *> >,0> >::_Root
  000c1	8b 4d ec	 mov	 ecx, DWORD PTR __Newnode$[ebp]
  000c4	89 08		 mov	 DWORD PTR [eax], ecx

; 921  : 			_Lmost() = _Newnode, _Rmost() = _Newnode;

  000c6	8b 4d f0	 mov	 ecx, DWORD PTR _this$[ebp]
  000c9	e8 00 00 00 00	 call	 ?_Lmost@?$_Tree@V?$_Tmap_traits@HPAVBaseDialog@@U?$less@H@std@@V?$allocator@U?$pair@$$CBHPAVBaseDialog@@@std@@@3@$0A@@std@@@std@@IAEAAPAU_Node@?$_Tree_nod@V?$_Tmap_traits@HPAVBaseDialog@@U?$less@H@std@@V?$allocator@U?$pair@$$CBHPAVBaseDialog@@@std@@@3@$0A@@std@@@2@XZ ; std::_Tree<std::_Tmap_traits<int,BaseDialog *,std::less<int>,std::allocator<std::pair<int const ,BaseDialog *> >,0> >::_Lmost
  000ce	8b 55 ec	 mov	 edx, DWORD PTR __Newnode$[ebp]
  000d1	89 10		 mov	 DWORD PTR [eax], edx
  000d3	8b 4d f0	 mov	 ecx, DWORD PTR _this$[ebp]
  000d6	e8 00 00 00 00	 call	 ?_Rmost@?$_Tree@V?$_Tmap_traits@HPAVBaseDialog@@U?$less@H@std@@V?$allocator@U?$pair@$$CBHPAVBaseDialog@@@std@@@3@$0A@@std@@@std@@IAEAAPAU_Node@?$_Tree_nod@V?$_Tmap_traits@HPAVBaseDialog@@U?$less@H@std@@V?$allocator@U?$pair@$$CBHPAVBaseDialog@@@std@@@3@$0A@@std@@@2@XZ ; std::_Tree<std::_Tmap_traits<int,BaseDialog *,std::less<int>,std::allocator<std::pair<int const ,BaseDialog *> >,0> >::_Rmost
  000db	8b 4d ec	 mov	 ecx, DWORD PTR __Newnode$[ebp]
  000de	89 08		 mov	 DWORD PTR [eax], ecx

; 922  : 			}
; 923  : 		else if (_Addleft)

  000e0	eb 64		 jmp	 SHORT $L188632
$L188631:
  000e2	0f b6 55 0c	 movzx	 edx, BYTE PTR __Addleft$[ebp]
  000e6	85 d2		 test	 edx, edx
  000e8	74 2f		 je	 SHORT $L188633

; 924  : 			{	// add to left of _Wherenode
; 925  : 			_Left(_Wherenode) = _Newnode;

  000ea	8b 45 10	 mov	 eax, DWORD PTR __Wherenode$[ebp]
  000ed	50		 push	 eax
  000ee	e8 00 00 00 00	 call	 ?_Left@?$_Tree@V?$_Tmap_traits@HPAVBaseDialog@@U?$less@H@std@@V?$allocator@U?$pair@$$CBHPAVBaseDialog@@@std@@@3@$0A@@std@@@std@@KAAAPAU_Node@?$_Tree_nod@V?$_Tmap_traits@HPAVBaseDialog@@U?$less@H@std@@V?$allocator@U?$pair@$$CBHPAVBaseDialog@@@std@@@3@$0A@@std@@@2@PAU342@@Z ; std::_Tree<std::_Tmap_traits<int,BaseDialog *,std::less<int>,std::allocator<std::pair<int const ,BaseDialog *> >,0> >::_Left
  000f3	83 c4 04	 add	 esp, 4
  000f6	8b 4d ec	 mov	 ecx, DWORD PTR __Newnode$[ebp]
  000f9	89 08		 mov	 DWORD PTR [eax], ecx

; 926  : 			if (_Wherenode == _Lmost())

  000fb	8b 4d f0	 mov	 ecx, DWORD PTR _this$[ebp]
  000fe	e8 00 00 00 00	 call	 ?_Lmost@?$_Tree@V?$_Tmap_traits@HPAVBaseDialog@@U?$less@H@std@@V?$allocator@U?$pair@$$CBHPAVBaseDialog@@@std@@@3@$0A@@std@@@std@@IAEAAPAU_Node@?$_Tree_nod@V?$_Tmap_traits@HPAVBaseDialog@@U?$less@H@std@@V?$allocator@U?$pair@$$CBHPAVBaseDialog@@@std@@@3@$0A@@std@@@2@XZ ; std::_Tree<std::_Tmap_traits<int,BaseDialog *,std::less<int>,std::allocator<std::pair<int const ,BaseDialog *> >,0> >::_Lmost
  00103	8b 55 10	 mov	 edx, DWORD PTR __Wherenode$[ebp]
  00106	3b 10		 cmp	 edx, DWORD PTR [eax]
  00108	75 0d		 jne	 SHORT $L188634

; 927  : 				_Lmost() = _Newnode;

  0010a	8b 4d f0	 mov	 ecx, DWORD PTR _this$[ebp]
  0010d	e8 00 00 00 00	 call	 ?_Lmost@?$_Tree@V?$_Tmap_traits@HPAVBaseDialog@@U?$less@H@std@@V?$allocator@U?$pair@$$CBHPAVBaseDialog@@@std@@@3@$0A@@std@@@std@@IAEAAPAU_Node@?$_Tree_nod@V?$_Tmap_traits@HPAVBaseDialog@@U?$less@H@std@@V?$allocator@U?$pair@$$CBHPAVBaseDialog@@@std@@@3@$0A@@std@@@2@XZ ; std::_Tree<std::_Tmap_traits<int,BaseDialog *,std::less<int>,std::allocator<std::pair<int const ,BaseDialog *> >,0> >::_Lmost
  00112	8b 4d ec	 mov	 ecx, DWORD PTR __Newnode$[ebp]
  00115	89 08		 mov	 DWORD PTR [eax], ecx
$L188634:

; 928  : 			}
; 929  : 		else

  00117	eb 2d		 jmp	 SHORT $L188632
$L188633:

; 930  : 			{	// add to right of _Wherenode
; 931  : 			_Right(_Wherenode) = _Newnode;

  00119	8b 55 10	 mov	 edx, DWORD PTR __Wherenode$[ebp]
  0011c	52		 push	 edx
  0011d	e8 00 00 00 00	 call	 ?_Right@?$_Tree@V?$_Tmap_traits@HPAVBaseDialog@@U?$less@H@std@@V?$allocator@U?$pair@$$CBHPAVBaseDialog@@@std@@@3@$0A@@std@@@std@@KAAAPAU_Node@?$_Tree_nod@V?$_Tmap_traits@HPAVBaseDialog@@U?$less@H@std@@V?$allocator@U?$pair@$$CBHPAVBaseDialog@@@std@@@3@$0A@@std@@@2@PAU342@@Z ; std::_Tree<std::_Tmap_traits<int,BaseDialog *,std::less<int>,std::allocator<std::pair<int const ,BaseDialog *> >,0> >::_Right
  00122	83 c4 04	 add	 esp, 4
  00125	8b 4d ec	 mov	 ecx, DWORD PTR __Newnode$[ebp]
  00128	89 08		 mov	 DWORD PTR [eax], ecx

; 932  : 			if (_Wherenode == _Rmost())

  0012a	8b 4d f0	 mov	 ecx, DWORD PTR _this$[ebp]
  0012d	e8 00 00 00 00	 call	 ?_Rmost@?$_Tree@V?$_Tmap_traits@HPAVBaseDialog@@U?$less@H@std@@V?$allocator@U?$pair@$$CBHPAVBaseDialog@@@std@@@3@$0A@@std@@@std@@IAEAAPAU_Node@?$_Tree_nod@V?$_Tmap_traits@HPAVBaseDialog@@U?$less@H@std@@V?$allocator@U?$pair@$$CBHPAVBaseDialog@@@std@@@3@$0A@@std@@@2@XZ ; std::_Tree<std::_Tmap_traits<int,BaseDialog *,std::less<int>,std::allocator<std::pair<int const ,BaseDialog *> >,0> >::_Rmost
  00132	8b 55 10	 mov	 edx, DWORD PTR __Wherenode$[ebp]
  00135	3b 10		 cmp	 edx, DWORD PTR [eax]
  00137	75 0d		 jne	 SHORT $L188632

; 933  : 				_Rmost() = _Newnode;

  00139	8b 4d f0	 mov	 ecx, DWORD PTR _this$[ebp]
  0013c	e8 00 00 00 00	 call	 ?_Rmost@?$_Tree@V?$_Tmap_traits@HPAVBaseDialog@@U?$less@H@std@@V?$allocator@U?$pair@$$CBHPAVBaseDialog@@@std@@@3@$0A@@std@@@std@@IAEAAPAU_Node@?$_Tree_nod@V?$_Tmap_traits@HPAVBaseDialog@@U?$less@H@std@@V?$allocator@U?$pair@$$CBHPAVBaseDialog@@@std@@@3@$0A@@std@@@2@XZ ; std::_Tree<std::_Tmap_traits<int,BaseDialog *,std::less<int>,std::allocator<std::pair<int const ,BaseDialog *> >,0> >::_Rmost
  00141	8b 4d ec	 mov	 ecx, DWORD PTR __Newnode$[ebp]
  00144	89 08		 mov	 DWORD PTR [eax], ecx
$L188632:

; 934  : 			}
; 935  : 
; 936  : 		for (_Nodeptr _Pnode = _Newnode; _Color(_Parent(_Pnode)) == _Red; )

  00146	8b 55 ec	 mov	 edx, DWORD PTR __Newnode$[ebp]
  00149	89 55 e8	 mov	 DWORD PTR __Pnode$188637[ebp], edx
$L188639:
  0014c	8b 45 e8	 mov	 eax, DWORD PTR __Pnode$188637[ebp]
  0014f	50		 push	 eax
  00150	e8 00 00 00 00	 call	 ?_Parent@?$_Tree@V?$_Tmap_traits@HPAVBaseDialog@@U?$less@H@std@@V?$allocator@U?$pair@$$CBHPAVBaseDialog@@@std@@@3@$0A@@std@@@std@@KAAAPAU_Node@?$_Tree_nod@V?$_Tmap_traits@HPAVBaseDialog@@U?$less@H@std@@V?$allocator@U?$pair@$$CBHPAVBaseDialog@@@std@@@3@$0A@@std@@@2@PAU342@@Z ; std::_Tree<std::_Tmap_traits<int,BaseDialog *,std::less<int>,std::allocator<std::pair<int const ,BaseDialog *> >,0> >::_Parent
  00155	83 c4 04	 add	 esp, 4
  00158	8b 08		 mov	 ecx, DWORD PTR [eax]
  0015a	51		 push	 ecx
  0015b	e8 00 00 00 00	 call	 ?_Color@?$_Tree@V?$_Tmap_traits@HPAVBaseDialog@@U?$less@H@std@@V?$allocator@U?$pair@$$CBHPAVBaseDialog@@@std@@@3@$0A@@std@@@std@@KAAADPAU_Node@?$_Tree_nod@V?$_Tmap_traits@HPAVBaseDialog@@U?$less@H@std@@V?$allocator@U?$pair@$$CBHPAVBaseDialog@@@std@@@3@$0A@@std@@@2@@Z ; std::_Tree<std::_Tmap_traits<int,BaseDialog *,std::less<int>,std::allocator<std::pair<int const ,BaseDialog *> >,0> >::_Color
  00160	83 c4 04	 add	 esp, 4
  00163	0f be 10	 movsx	 edx, BYTE PTR [eax]
  00166	85 d2		 test	 edx, edx
  00168	0f 85 ce 02 00
	00		 jne	 $L188640

; 937  : 			if (_Parent(_Pnode) == _Left(_Parent(_Parent(_Pnode))))

  0016e	8b 45 e8	 mov	 eax, DWORD PTR __Pnode$188637[ebp]
  00171	50		 push	 eax
  00172	e8 00 00 00 00	 call	 ?_Parent@?$_Tree@V?$_Tmap_traits@HPAVBaseDialog@@U?$less@H@std@@V?$allocator@U?$pair@$$CBHPAVBaseDialog@@@std@@@3@$0A@@std@@@std@@KAAAPAU_Node@?$_Tree_nod@V?$_Tmap_traits@HPAVBaseDialog@@U?$less@H@std@@V?$allocator@U?$pair@$$CBHPAVBaseDialog@@@std@@@3@$0A@@std@@@2@PAU342@@Z ; std::_Tree<std::_Tmap_traits<int,BaseDialog *,std::less<int>,std::allocator<std::pair<int const ,BaseDialog *> >,0> >::_Parent
  00177	83 c4 04	 add	 esp, 4
  0017a	8b f0		 mov	 esi, eax
  0017c	8b 4d e8	 mov	 ecx, DWORD PTR __Pnode$188637[ebp]
  0017f	51		 push	 ecx
  00180	e8 00 00 00 00	 call	 ?_Parent@?$_Tree@V?$_Tmap_traits@HPAVBaseDialog@@U?$less@H@std@@V?$allocator@U?$pair@$$CBHPAVBaseDialog@@@std@@@3@$0A@@std@@@std@@KAAAPAU_Node@?$_Tree_nod@V?$_Tmap_traits@HPAVBaseDialog@@U?$less@H@std@@V?$allocator@U?$pair@$$CBHPAVBaseDialog@@@std@@@3@$0A@@std@@@2@PAU342@@Z ; std::_Tree<std::_Tmap_traits<int,BaseDialog *,std::less<int>,std::allocator<std::pair<int const ,BaseDialog *> >,0> >::_Parent
  00185	83 c4 04	 add	 esp, 4
  00188	8b 10		 mov	 edx, DWORD PTR [eax]
  0018a	52		 push	 edx
  0018b	e8 00 00 00 00	 call	 ?_Parent@?$_Tree@V?$_Tmap_traits@HPAVBaseDialog@@U?$less@H@std@@V?$allocator@U?$pair@$$CBHPAVBaseDialog@@@std@@@3@$0A@@std@@@std@@KAAAPAU_Node@?$_Tree_nod@V?$_Tmap_traits@HPAVBaseDialog@@U?$less@H@std@@V?$allocator@U?$pair@$$CBHPAVBaseDialog@@@std@@@3@$0A@@std@@@2@PAU342@@Z ; std::_Tree<std::_Tmap_traits<int,BaseDialog *,std::less<int>,std::allocator<std::pair<int const ,BaseDialog *> >,0> >::_Parent
  00190	83 c4 04	 add	 esp, 4
  00193	8b 00		 mov	 eax, DWORD PTR [eax]
  00195	50		 push	 eax
  00196	e8 00 00 00 00	 call	 ?_Left@?$_Tree@V?$_Tmap_traits@HPAVBaseDialog@@U?$less@H@std@@V?$allocator@U?$pair@$$CBHPAVBaseDialog@@@std@@@3@$0A@@std@@@std@@KAAAPAU_Node@?$_Tree_nod@V?$_Tmap_traits@HPAVBaseDialog@@U?$less@H@std@@V?$allocator@U?$pair@$$CBHPAVBaseDialog@@@std@@@3@$0A@@std@@@2@PAU342@@Z ; std::_Tree<std::_Tmap_traits<int,BaseDialog *,std::less<int>,std::allocator<std::pair<int const ,BaseDialog *> >,0> >::_Left
  0019b	83 c4 04	 add	 esp, 4
  0019e	8b 0e		 mov	 ecx, DWORD PTR [esi]
  001a0	3b 08		 cmp	 ecx, DWORD PTR [eax]
  001a2	0f 85 4a 01 00
	00		 jne	 $L188641

; 938  : 				{	// fixup red-red in left subtree
; 939  : 				_Wherenode = _Right(_Parent(_Parent(_Pnode)));

  001a8	8b 55 e8	 mov	 edx, DWORD PTR __Pnode$188637[ebp]
  001ab	52		 push	 edx
  001ac	e8 00 00 00 00	 call	 ?_Parent@?$_Tree@V?$_Tmap_traits@HPAVBaseDialog@@U?$less@H@std@@V?$allocator@U?$pair@$$CBHPAVBaseDialog@@@std@@@3@$0A@@std@@@std@@KAAAPAU_Node@?$_Tree_nod@V?$_Tmap_traits@HPAVBaseDialog@@U?$less@H@std@@V?$allocator@U?$pair@$$CBHPAVBaseDialog@@@std@@@3@$0A@@std@@@2@PAU342@@Z ; std::_Tree<std::_Tmap_traits<int,BaseDialog *,std::less<int>,std::allocator<std::pair<int const ,BaseDialog *> >,0> >::_Parent
  001b1	83 c4 04	 add	 esp, 4
  001b4	8b 00		 mov	 eax, DWORD PTR [eax]
  001b6	50		 push	 eax
  001b7	e8 00 00 00 00	 call	 ?_Parent@?$_Tree@V?$_Tmap_traits@HPAVBaseDialog@@U?$less@H@std@@V?$allocator@U?$pair@$$CBHPAVBaseDialog@@@std@@@3@$0A@@std@@@std@@KAAAPAU_Node@?$_Tree_nod@V?$_Tmap_traits@HPAVBaseDialog@@U?$less@H@std@@V?$allocator@U?$pair@$$CBHPAVBaseDialog@@@std@@@3@$0A@@std@@@2@PAU342@@Z ; std::_Tree<std::_Tmap_traits<int,BaseDialog *,std::less<int>,std::allocator<std::pair<int const ,BaseDialog *> >,0> >::_Parent
  001bc	83 c4 04	 add	 esp, 4
  001bf	8b 08		 mov	 ecx, DWORD PTR [eax]
  001c1	51		 push	 ecx
  001c2	e8 00 00 00 00	 call	 ?_Right@?$_Tree@V?$_Tmap_traits@HPAVBaseDialog@@U?$less@H@std@@V?$allocator@U?$pair@$$CBHPAVBaseDialog@@@std@@@3@$0A@@std@@@std@@KAAAPAU_Node@?$_Tree_nod@V?$_Tmap_traits@HPAVBaseDialog@@U?$less@H@std@@V?$allocator@U?$pair@$$CBHPAVBaseDialog@@@std@@@3@$0A@@std@@@2@PAU342@@Z ; std::_Tree<std::_Tmap_traits<int,BaseDialog *,std::less<int>,std::allocator<std::pair<int const ,BaseDialog *> >,0> >::_Right
  001c7	83 c4 04	 add	 esp, 4
  001ca	8b 10		 mov	 edx, DWORD PTR [eax]
  001cc	89 55 10	 mov	 DWORD PTR __Wherenode$[ebp], edx

; 940  : 				if (_Color(_Wherenode) == _Red)

  001cf	8b 45 10	 mov	 eax, DWORD PTR __Wherenode$[ebp]
  001d2	50		 push	 eax
  001d3	e8 00 00 00 00	 call	 ?_Color@?$_Tree@V?$_Tmap_traits@HPAVBaseDialog@@U?$less@H@std@@V?$allocator@U?$pair@$$CBHPAVBaseDialog@@@std@@@3@$0A@@std@@@std@@KAAADPAU_Node@?$_Tree_nod@V?$_Tmap_traits@HPAVBaseDialog@@U?$less@H@std@@V?$allocator@U?$pair@$$CBHPAVBaseDialog@@@std@@@3@$0A@@std@@@2@@Z ; std::_Tree<std::_Tmap_traits<int,BaseDialog *,std::less<int>,std::allocator<std::pair<int const ,BaseDialog *> >,0> >::_Color
  001d8	83 c4 04	 add	 esp, 4
  001db	0f be 08	 movsx	 ecx, BYTE PTR [eax]
  001de	85 c9		 test	 ecx, ecx
  001e0	75 6f		 jne	 SHORT $L188642

; 941  : 					{	// parent has two red children, blacken both
; 942  : 					_Color(_Parent(_Pnode)) = _Black;

  001e2	8b 55 e8	 mov	 edx, DWORD PTR __Pnode$188637[ebp]
  001e5	52		 push	 edx
  001e6	e8 00 00 00 00	 call	 ?_Parent@?$_Tree@V?$_Tmap_traits@HPAVBaseDialog@@U?$less@H@std@@V?$allocator@U?$pair@$$CBHPAVBaseDialog@@@std@@@3@$0A@@std@@@std@@KAAAPAU_Node@?$_Tree_nod@V?$_Tmap_traits@HPAVBaseDialog@@U?$less@H@std@@V?$allocator@U?$pair@$$CBHPAVBaseDialog@@@std@@@3@$0A@@std@@@2@PAU342@@Z ; std::_Tree<std::_Tmap_traits<int,BaseDialog *,std::less<int>,std::allocator<std::pair<int const ,BaseDialog *> >,0> >::_Parent
  001eb	83 c4 04	 add	 esp, 4
  001ee	8b 00		 mov	 eax, DWORD PTR [eax]
  001f0	50		 push	 eax
  001f1	e8 00 00 00 00	 call	 ?_Color@?$_Tree@V?$_Tmap_traits@HPAVBaseDialog@@U?$less@H@std@@V?$allocator@U?$pair@$$CBHPAVBaseDialog@@@std@@@3@$0A@@std@@@std@@KAAADPAU_Node@?$_Tree_nod@V?$_Tmap_traits@HPAVBaseDialog@@U?$less@H@std@@V?$allocator@U?$pair@$$CBHPAVBaseDialog@@@std@@@3@$0A@@std@@@2@@Z ; std::_Tree<std::_Tmap_traits<int,BaseDialog *,std::less<int>,std::allocator<std::pair<int const ,BaseDialog *> >,0> >::_Color
  001f6	83 c4 04	 add	 esp, 4
  001f9	c6 00 01	 mov	 BYTE PTR [eax], 1

; 943  : 					_Color(_Wherenode) = _Black;

  001fc	8b 4d 10	 mov	 ecx, DWORD PTR __Wherenode$[ebp]
  001ff	51		 push	 ecx
  00200	e8 00 00 00 00	 call	 ?_Color@?$_Tree@V?$_Tmap_traits@HPAVBaseDialog@@U?$less@H@std@@V?$allocator@U?$pair@$$CBHPAVBaseDialog@@@std@@@3@$0A@@std@@@std@@KAAADPAU_Node@?$_Tree_nod@V?$_Tmap_traits@HPAVBaseDialog@@U?$less@H@std@@V?$allocator@U?$pair@$$CBHPAVBaseDialog@@@std@@@3@$0A@@std@@@2@@Z ; std::_Tree<std::_Tmap_traits<int,BaseDialog *,std::less<int>,std::allocator<std::pair<int const ,BaseDialog *> >,0> >::_Color
  00205	83 c4 04	 add	 esp, 4
  00208	c6 00 01	 mov	 BYTE PTR [eax], 1

; 944  : 					_Color(_Parent(_Parent(_Pnode))) = _Red;

  0020b	8b 55 e8	 mov	 edx, DWORD PTR __Pnode$188637[ebp]
  0020e	52		 push	 edx
  0020f	e8 00 00 00 00	 call	 ?_Parent@?$_Tree@V?$_Tmap_traits@HPAVBaseDialog@@U?$less@H@std@@V?$allocator@U?$pair@$$CBHPAVBaseDialog@@@std@@@3@$0A@@std@@@std@@KAAAPAU_Node@?$_Tree_nod@V?$_Tmap_traits@HPAVBaseDialog@@U?$less@H@std@@V?$allocator@U?$pair@$$CBHPAVBaseDialog@@@std@@@3@$0A@@std@@@2@PAU342@@Z ; std::_Tree<std::_Tmap_traits<int,BaseDialog *,std::less<int>,std::allocator<std::pair<int const ,BaseDialog *> >,0> >::_Parent
  00214	83 c4 04	 add	 esp, 4
  00217	8b 00		 mov	 eax, DWORD PTR [eax]
  00219	50		 push	 eax
  0021a	e8 00 00 00 00	 call	 ?_Parent@?$_Tree@V?$_Tmap_traits@HPAVBaseDialog@@U?$less@H@std@@V?$allocator@U?$pair@$$CBHPAVBaseDialog@@@std@@@3@$0A@@std@@@std@@KAAAPAU_Node@?$_Tree_nod@V?$_Tmap_traits@HPAVBaseDialog@@U?$less@H@std@@V?$allocator@U?$pair@$$CBHPAVBaseDialog@@@std@@@3@$0A@@std@@@2@PAU342@@Z ; std::_Tree<std::_Tmap_traits<int,BaseDialog *,std::less<int>,std::allocator<std::pair<int const ,BaseDialog *> >,0> >::_Parent
  0021f	83 c4 04	 add	 esp, 4
  00222	8b 08		 mov	 ecx, DWORD PTR [eax]
  00224	51		 push	 ecx
  00225	e8 00 00 00 00	 call	 ?_Color@?$_Tree@V?$_Tmap_traits@HPAVBaseDialog@@U?$less@H@std@@V?$allocator@U?$pair@$$CBHPAVBaseDialog@@@std@@@3@$0A@@std@@@std@@KAAADPAU_Node@?$_Tree_nod@V?$_Tmap_traits@HPAVBaseDialog@@U?$less@H@std@@V?$allocator@U?$pair@$$CBHPAVBaseDialog@@@std@@@3@$0A@@std@@@2@@Z ; std::_Tree<std::_Tmap_traits<int,BaseDialog *,std::less<int>,std::allocator<std::pair<int const ,BaseDialog *> >,0> >::_Color
  0022a	83 c4 04	 add	 esp, 4
  0022d	c6 00 00	 mov	 BYTE PTR [eax], 0

; 945  : 					_Pnode = _Parent(_Parent(_Pnode));

  00230	8b 55 e8	 mov	 edx, DWORD PTR __Pnode$188637[ebp]
  00233	52		 push	 edx
  00234	e8 00 00 00 00	 call	 ?_Parent@?$_Tree@V?$_Tmap_traits@HPAVBaseDialog@@U?$less@H@std@@V?$allocator@U?$pair@$$CBHPAVBaseDialog@@@std@@@3@$0A@@std@@@std@@KAAAPAU_Node@?$_Tree_nod@V?$_Tmap_traits@HPAVBaseDialog@@U?$less@H@std@@V?$allocator@U?$pair@$$CBHPAVBaseDialog@@@std@@@3@$0A@@std@@@2@PAU342@@Z ; std::_Tree<std::_Tmap_traits<int,BaseDialog *,std::less<int>,std::allocator<std::pair<int const ,BaseDialog *> >,0> >::_Parent
  00239	83 c4 04	 add	 esp, 4
  0023c	8b 00		 mov	 eax, DWORD PTR [eax]
  0023e	50		 push	 eax
  0023f	e8 00 00 00 00	 call	 ?_Parent@?$_Tree@V?$_Tmap_traits@HPAVBaseDialog@@U?$less@H@std@@V?$allocator@U?$pair@$$CBHPAVBaseDialog@@@std@@@3@$0A@@std@@@std@@KAAAPAU_Node@?$_Tree_nod@V?$_Tmap_traits@HPAVBaseDialog@@U?$less@H@std@@V?$allocator@U?$pair@$$CBHPAVBaseDialog@@@std@@@3@$0A@@std@@@2@PAU342@@Z ; std::_Tree<std::_Tmap_traits<int,BaseDialog *,std::less<int>,std::allocator<std::pair<int const ,BaseDialog *> >,0> >::_Parent
  00244	83 c4 04	 add	 esp, 4
  00247	8b 08		 mov	 ecx, DWORD PTR [eax]
  00249	89 4d e8	 mov	 DWORD PTR __Pnode$188637[ebp], ecx

; 946  : 					}
; 947  : 				else

  0024c	e9 9c 00 00 00	 jmp	 $L188643
$L188642:

; 948  : 					{	// parent has red and black children
; 949  : 					if (_Pnode == _Right(_Parent(_Pnode)))

  00251	8b 55 e8	 mov	 edx, DWORD PTR __Pnode$188637[ebp]
  00254	52		 push	 edx
  00255	e8 00 00 00 00	 call	 ?_Parent@?$_Tree@V?$_Tmap_traits@HPAVBaseDialog@@U?$less@H@std@@V?$allocator@U?$pair@$$CBHPAVBaseDialog@@@std@@@3@$0A@@std@@@std@@KAAAPAU_Node@?$_Tree_nod@V?$_Tmap_traits@HPAVBaseDialog@@U?$less@H@std@@V?$allocator@U?$pair@$$CBHPAVBaseDialog@@@std@@@3@$0A@@std@@@2@PAU342@@Z ; std::_Tree<std::_Tmap_traits<int,BaseDialog *,std::less<int>,std::allocator<std::pair<int const ,BaseDialog *> >,0> >::_Parent
  0025a	83 c4 04	 add	 esp, 4
  0025d	8b 00		 mov	 eax, DWORD PTR [eax]
  0025f	50		 push	 eax
  00260	e8 00 00 00 00	 call	 ?_Right@?$_Tree@V?$_Tmap_traits@HPAVBaseDialog@@U?$less@H@std@@V?$allocator@U?$pair@$$CBHPAVBaseDialog@@@std@@@3@$0A@@std@@@std@@KAAAPAU_Node@?$_Tree_nod@V?$_Tmap_traits@HPAVBaseDialog@@U?$less@H@std@@V?$allocator@U?$pair@$$CBHPAVBaseDialog@@@std@@@3@$0A@@std@@@2@PAU342@@Z ; std::_Tree<std::_Tmap_traits<int,BaseDialog *,std::less<int>,std::allocator<std::pair<int const ,BaseDialog *> >,0> >::_Right
  00265	83 c4 04	 add	 esp, 4
  00268	8b 4d e8	 mov	 ecx, DWORD PTR __Pnode$188637[ebp]
  0026b	3b 08		 cmp	 ecx, DWORD PTR [eax]
  0026d	75 1d		 jne	 SHORT $L188644

; 950  : 						{	// rotate right child to left
; 951  : 						_Pnode = _Parent(_Pnode);

  0026f	8b 55 e8	 mov	 edx, DWORD PTR __Pnode$188637[ebp]
  00272	52		 push	 edx
  00273	e8 00 00 00 00	 call	 ?_Parent@?$_Tree@V?$_Tmap_traits@HPAVBaseDialog@@U?$less@H@std@@V?$allocator@U?$pair@$$CBHPAVBaseDialog@@@std@@@3@$0A@@std@@@std@@KAAAPAU_Node@?$_Tree_nod@V?$_Tmap_traits@HPAVBaseDialog@@U?$less@H@std@@V?$allocator@U?$pair@$$CBHPAVBaseDialog@@@std@@@3@$0A@@std@@@2@PAU342@@Z ; std::_Tree<std::_Tmap_traits<int,BaseDialog *,std::less<int>,std::allocator<std::pair<int const ,BaseDialog *> >,0> >::_Parent
  00278	83 c4 04	 add	 esp, 4
  0027b	8b 00		 mov	 eax, DWORD PTR [eax]
  0027d	89 45 e8	 mov	 DWORD PTR __Pnode$188637[ebp], eax

; 952  : 						_Lrotate(_Pnode);

  00280	8b 4d e8	 mov	 ecx, DWORD PTR __Pnode$188637[ebp]
  00283	51		 push	 ecx
  00284	8b 4d f0	 mov	 ecx, DWORD PTR _this$[ebp]
  00287	e8 00 00 00 00	 call	 ?_Lrotate@?$_Tree@V?$_Tmap_traits@HPAVBaseDialog@@U?$less@H@std@@V?$allocator@U?$pair@$$CBHPAVBaseDialog@@@std@@@3@$0A@@std@@@std@@IAEXPAU_Node@?$_Tree_nod@V?$_Tmap_traits@HPAVBaseDialog@@U?$less@H@std@@V?$allocator@U?$pair@$$CBHPAVBaseDialog@@@std@@@3@$0A@@std@@@2@@Z ; std::_Tree<std::_Tmap_traits<int,BaseDialog *,std::less<int>,std::allocator<std::pair<int const ,BaseDialog *> >,0> >::_Lrotate
$L188644:

; 953  : 						}
; 954  : 					_Color(_Parent(_Pnode)) = _Black;	// propagate red up

  0028c	8b 55 e8	 mov	 edx, DWORD PTR __Pnode$188637[ebp]
  0028f	52		 push	 edx
  00290	e8 00 00 00 00	 call	 ?_Parent@?$_Tree@V?$_Tmap_traits@HPAVBaseDialog@@U?$less@H@std@@V?$allocator@U?$pair@$$CBHPAVBaseDialog@@@std@@@3@$0A@@std@@@std@@KAAAPAU_Node@?$_Tree_nod@V?$_Tmap_traits@HPAVBaseDialog@@U?$less@H@std@@V?$allocator@U?$pair@$$CBHPAVBaseDialog@@@std@@@3@$0A@@std@@@2@PAU342@@Z ; std::_Tree<std::_Tmap_traits<int,BaseDialog *,std::less<int>,std::allocator<std::pair<int const ,BaseDialog *> >,0> >::_Parent
  00295	83 c4 04	 add	 esp, 4
  00298	8b 00		 mov	 eax, DWORD PTR [eax]
  0029a	50		 push	 eax
  0029b	e8 00 00 00 00	 call	 ?_Color@?$_Tree@V?$_Tmap_traits@HPAVBaseDialog@@U?$less@H@std@@V?$allocator@U?$pair@$$CBHPAVBaseDialog@@@std@@@3@$0A@@std@@@std@@KAAADPAU_Node@?$_Tree_nod@V?$_Tmap_traits@HPAVBaseDialog@@U?$less@H@std@@V?$allocator@U?$pair@$$CBHPAVBaseDialog@@@std@@@3@$0A@@std@@@2@@Z ; std::_Tree<std::_Tmap_traits<int,BaseDialog *,std::less<int>,std::allocator<std::pair<int const ,BaseDialog *> >,0> >::_Color
  002a0	83 c4 04	 add	 esp, 4
  002a3	c6 00 01	 mov	 BYTE PTR [eax], 1

; 955  : 					_Color(_Parent(_Parent(_Pnode))) = _Red;

  002a6	8b 4d e8	 mov	 ecx, DWORD PTR __Pnode$188637[ebp]
  002a9	51		 push	 ecx
  002aa	e8 00 00 00 00	 call	 ?_Parent@?$_Tree@V?$_Tmap_traits@HPAVBaseDialog@@U?$less@H@std@@V?$allocator@U?$pair@$$CBHPAVBaseDialog@@@std@@@3@$0A@@std@@@std@@KAAAPAU_Node@?$_Tree_nod@V?$_Tmap_traits@HPAVBaseDialog@@U?$less@H@std@@V?$allocator@U?$pair@$$CBHPAVBaseDialog@@@std@@@3@$0A@@std@@@2@PAU342@@Z ; std::_Tree<std::_Tmap_traits<int,BaseDialog *,std::less<int>,std::allocator<std::pair<int const ,BaseDialog *> >,0> >::_Parent
  002af	83 c4 04	 add	 esp, 4
  002b2	8b 10		 mov	 edx, DWORD PTR [eax]
  002b4	52		 push	 edx
  002b5	e8 00 00 00 00	 call	 ?_Parent@?$_Tree@V?$_Tmap_traits@HPAVBaseDialog@@U?$less@H@std@@V?$allocator@U?$pair@$$CBHPAVBaseDialog@@@std@@@3@$0A@@std@@@std@@KAAAPAU_Node@?$_Tree_nod@V?$_Tmap_traits@HPAVBaseDialog@@U?$less@H@std@@V?$allocator@U?$pair@$$CBHPAVBaseDialog@@@std@@@3@$0A@@std@@@2@PAU342@@Z ; std::_Tree<std::_Tmap_traits<int,BaseDialog *,std::less<int>,std::allocator<std::pair<int const ,BaseDialog *> >,0> >::_Parent
  002ba	83 c4 04	 add	 esp, 4
  002bd	8b 00		 mov	 eax, DWORD PTR [eax]
  002bf	50		 push	 eax
  002c0	e8 00 00 00 00	 call	 ?_Color@?$_Tree@V?$_Tmap_traits@HPAVBaseDialog@@U?$less@H@std@@V?$allocator@U?$pair@$$CBHPAVBaseDialog@@@std@@@3@$0A@@std@@@std@@KAAADPAU_Node@?$_Tree_nod@V?$_Tmap_traits@HPAVBaseDialog@@U?$less@H@std@@V?$allocator@U?$pair@$$CBHPAVBaseDialog@@@std@@@3@$0A@@std@@@2@@Z ; std::_Tree<std::_Tmap_traits<int,BaseDialog *,std::less<int>,std::allocator<std::pair<int const ,BaseDialog *> >,0> >::_Color
  002c5	83 c4 04	 add	 esp, 4
  002c8	c6 00 00	 mov	 BYTE PTR [eax], 0

; 956  : 					_Rrotate(_Parent(_Parent(_Pnode)));

  002cb	8b 4d e8	 mov	 ecx, DWORD PTR __Pnode$188637[ebp]
  002ce	51		 push	 ecx
  002cf	e8 00 00 00 00	 call	 ?_Parent@?$_Tree@V?$_Tmap_traits@HPAVBaseDialog@@U?$less@H@std@@V?$allocator@U?$pair@$$CBHPAVBaseDialog@@@std@@@3@$0A@@std@@@std@@KAAAPAU_Node@?$_Tree_nod@V?$_Tmap_traits@HPAVBaseDialog@@U?$less@H@std@@V?$allocator@U?$pair@$$CBHPAVBaseDialog@@@std@@@3@$0A@@std@@@2@PAU342@@Z ; std::_Tree<std::_Tmap_traits<int,BaseDialog *,std::less<int>,std::allocator<std::pair<int const ,BaseDialog *> >,0> >::_Parent
  002d4	83 c4 04	 add	 esp, 4
  002d7	8b 10		 mov	 edx, DWORD PTR [eax]
  002d9	52		 push	 edx
  002da	e8 00 00 00 00	 call	 ?_Parent@?$_Tree@V?$_Tmap_traits@HPAVBaseDialog@@U?$less@H@std@@V?$allocator@U?$pair@$$CBHPAVBaseDialog@@@std@@@3@$0A@@std@@@std@@KAAAPAU_Node@?$_Tree_nod@V?$_Tmap_traits@HPAVBaseDialog@@U?$less@H@std@@V?$allocator@U?$pair@$$CBHPAVBaseDialog@@@std@@@3@$0A@@std@@@2@PAU342@@Z ; std::_Tree<std::_Tmap_traits<int,BaseDialog *,std::less<int>,std::allocator<std::pair<int const ,BaseDialog *> >,0> >::_Parent
  002df	83 c4 04	 add	 esp, 4
  002e2	8b 00		 mov	 eax, DWORD PTR [eax]
  002e4	50		 push	 eax
  002e5	8b 4d f0	 mov	 ecx, DWORD PTR _this$[ebp]
  002e8	e8 00 00 00 00	 call	 ?_Rrotate@?$_Tree@V?$_Tmap_traits@HPAVBaseDialog@@U?$less@H@std@@V?$allocator@U?$pair@$$CBHPAVBaseDialog@@@std@@@3@$0A@@std@@@std@@IAEXPAU_Node@?$_Tree_nod@V?$_Tmap_traits@HPAVBaseDialog@@U?$less@H@std@@V?$allocator@U?$pair@$$CBHPAVBaseDialog@@@std@@@3@$0A@@std@@@2@@Z ; std::_Tree<std::_Tmap_traits<int,BaseDialog *,std::less<int>,std::allocator<std::pair<int const ,BaseDialog *> >,0> >::_Rrotate
$L188643:

; 957  : 					}
; 958  : 				}
; 959  : 			else

  002ed	e9 45 01 00 00	 jmp	 $L188645
$L188641:

; 960  : 				{	// fixup red-red in right subtree
; 961  : 				_Wherenode = _Left(_Parent(_Parent(_Pnode)));

  002f2	8b 4d e8	 mov	 ecx, DWORD PTR __Pnode$188637[ebp]
  002f5	51		 push	 ecx
  002f6	e8 00 00 00 00	 call	 ?_Parent@?$_Tree@V?$_Tmap_traits@HPAVBaseDialog@@U?$less@H@std@@V?$allocator@U?$pair@$$CBHPAVBaseDialog@@@std@@@3@$0A@@std@@@std@@KAAAPAU_Node@?$_Tree_nod@V?$_Tmap_traits@HPAVBaseDialog@@U?$less@H@std@@V?$allocator@U?$pair@$$CBHPAVBaseDialog@@@std@@@3@$0A@@std@@@2@PAU342@@Z ; std::_Tree<std::_Tmap_traits<int,BaseDialog *,std::less<int>,std::allocator<std::pair<int const ,BaseDialog *> >,0> >::_Parent
  002fb	83 c4 04	 add	 esp, 4
  002fe	8b 10		 mov	 edx, DWORD PTR [eax]
  00300	52		 push	 edx
  00301	e8 00 00 00 00	 call	 ?_Parent@?$_Tree@V?$_Tmap_traits@HPAVBaseDialog@@U?$less@H@std@@V?$allocator@U?$pair@$$CBHPAVBaseDialog@@@std@@@3@$0A@@std@@@std@@KAAAPAU_Node@?$_Tree_nod@V?$_Tmap_traits@HPAVBaseDialog@@U?$less@H@std@@V?$allocator@U?$pair@$$CBHPAVBaseDialog@@@std@@@3@$0A@@std@@@2@PAU342@@Z ; std::_Tree<std::_Tmap_traits<int,BaseDialog *,std::less<int>,std::allocator<std::pair<int const ,BaseDialog *> >,0> >::_Parent
  00306	83 c4 04	 add	 esp, 4
  00309	8b 00		 mov	 eax, DWORD PTR [eax]
  0030b	50		 push	 eax
  0030c	e8 00 00 00 00	 call	 ?_Left@?$_Tree@V?$_Tmap_traits@HPAVBaseDialog@@U?$less@H@std@@V?$allocator@U?$pair@$$CBHPAVBaseDialog@@@std@@@3@$0A@@std@@@std@@KAAAPAU_Node@?$_Tree_nod@V?$_Tmap_traits@HPAVBaseDialog@@U?$less@H@std@@V?$allocator@U?$pair@$$CBHPAVBaseDialog@@@std@@@3@$0A@@std@@@2@PAU342@@Z ; std::_Tree<std::_Tmap_traits<int,BaseDialog *,std::less<int>,std::allocator<std::pair<int const ,BaseDialog *> >,0> >::_Left
  00311	83 c4 04	 add	 esp, 4
  00314	8b 08		 mov	 ecx, DWORD PTR [eax]
  00316	89 4d 10	 mov	 DWORD PTR __Wherenode$[ebp], ecx

; 962  : 				if (_Color(_Wherenode) == _Red)

  00319	8b 55 10	 mov	 edx, DWORD PTR __Wherenode$[ebp]
  0031c	52		 push	 edx
  0031d	e8 00 00 00 00	 call	 ?_Color@?$_Tree@V?$_Tmap_traits@HPAVBaseDialog@@U?$less@H@std@@V?$allocator@U?$pair@$$CBHPAVBaseDialog@@@std@@@3@$0A@@std@@@std@@KAAADPAU_Node@?$_Tree_nod@V?$_Tmap_traits@HPAVBaseDialog@@U?$less@H@std@@V?$allocator@U?$pair@$$CBHPAVBaseDialog@@@std@@@3@$0A@@std@@@2@@Z ; std::_Tree<std::_Tmap_traits<int,BaseDialog *,std::less<int>,std::allocator<std::pair<int const ,BaseDialog *> >,0> >::_Color
  00322	83 c4 04	 add	 esp, 4
  00325	0f be 00	 movsx	 eax, BYTE PTR [eax]
  00328	85 c0		 test	 eax, eax
  0032a	75 6f		 jne	 SHORT $L188646

; 963  : 					{	// parent has two red children, blacken both
; 964  : 					_Color(_Parent(_Pnode)) = _Black;

  0032c	8b 4d e8	 mov	 ecx, DWORD PTR __Pnode$188637[ebp]
  0032f	51		 push	 ecx
  00330	e8 00 00 00 00	 call	 ?_Parent@?$_Tree@V?$_Tmap_traits@HPAVBaseDialog@@U?$less@H@std@@V?$allocator@U?$pair@$$CBHPAVBaseDialog@@@std@@@3@$0A@@std@@@std@@KAAAPAU_Node@?$_Tree_nod@V?$_Tmap_traits@HPAVBaseDialog@@U?$less@H@std@@V?$allocator@U?$pair@$$CBHPAVBaseDialog@@@std@@@3@$0A@@std@@@2@PAU342@@Z ; std::_Tree<std::_Tmap_traits<int,BaseDialog *,std::less<int>,std::allocator<std::pair<int const ,BaseDialog *> >,0> >::_Parent
  00335	83 c4 04	 add	 esp, 4
  00338	8b 10		 mov	 edx, DWORD PTR [eax]
  0033a	52		 push	 edx
  0033b	e8 00 00 00 00	 call	 ?_Color@?$_Tree@V?$_Tmap_traits@HPAVBaseDialog@@U?$less@H@std@@V?$allocator@U?$pair@$$CBHPAVBaseDialog@@@std@@@3@$0A@@std@@@std@@KAAADPAU_Node@?$_Tree_nod@V?$_Tmap_traits@HPAVBaseDialog@@U?$less@H@std@@V?$allocator@U?$pair@$$CBHPAVBaseDialog@@@std@@@3@$0A@@std@@@2@@Z ; std::_Tree<std::_Tmap_traits<int,BaseDialog *,std::less<int>,std::allocator<std::pair<int const ,BaseDialog *> >,0> >::_Color
  00340	83 c4 04	 add	 esp, 4
  00343	c6 00 01	 mov	 BYTE PTR [eax], 1

; 965  : 					_Color(_Wherenode) = _Black;

  00346	8b 45 10	 mov	 eax, DWORD PTR __Wherenode$[ebp]
  00349	50		 push	 eax
  0034a	e8 00 00 00 00	 call	 ?_Color@?$_Tree@V?$_Tmap_traits@HPAVBaseDialog@@U?$less@H@std@@V?$allocator@U?$pair@$$CBHPAVBaseDialog@@@std@@@3@$0A@@std@@@std@@KAAADPAU_Node@?$_Tree_nod@V?$_Tmap_traits@HPAVBaseDialog@@U?$less@H@std@@V?$allocator@U?$pair@$$CBHPAVBaseDialog@@@std@@@3@$0A@@std@@@2@@Z ; std::_Tree<std::_Tmap_traits<int,BaseDialog *,std::less<int>,std::allocator<std::pair<int const ,BaseDialog *> >,0> >::_Color
  0034f	83 c4 04	 add	 esp, 4
  00352	c6 00 01	 mov	 BYTE PTR [eax], 1

; 966  : 					_Color(_Parent(_Parent(_Pnode))) = _Red;

  00355	8b 4d e8	 mov	 ecx, DWORD PTR __Pnode$188637[ebp]
  00358	51		 push	 ecx
  00359	e8 00 00 00 00	 call	 ?_Parent@?$_Tree@V?$_Tmap_traits@HPAVBaseDialog@@U?$less@H@std@@V?$allocator@U?$pair@$$CBHPAVBaseDialog@@@std@@@3@$0A@@std@@@std@@KAAAPAU_Node@?$_Tree_nod@V?$_Tmap_traits@HPAVBaseDialog@@U?$less@H@std@@V?$allocator@U?$pair@$$CBHPAVBaseDialog@@@std@@@3@$0A@@std@@@2@PAU342@@Z ; std::_Tree<std::_Tmap_traits<int,BaseDialog *,std::less<int>,std::allocator<std::pair<int const ,BaseDialog *> >,0> >::_Parent
  0035e	83 c4 04	 add	 esp, 4
  00361	8b 10		 mov	 edx, DWORD PTR [eax]
  00363	52		 push	 edx
  00364	e8 00 00 00 00	 call	 ?_Parent@?$_Tree@V?$_Tmap_traits@HPAVBaseDialog@@U?$less@H@std@@V?$allocator@U?$pair@$$CBHPAVBaseDialog@@@std@@@3@$0A@@std@@@std@@KAAAPAU_Node@?$_Tree_nod@V?$_Tmap_traits@HPAVBaseDialog@@U?$less@H@std@@V?$allocator@U?$pair@$$CBHPAVBaseDialog@@@std@@@3@$0A@@std@@@2@PAU342@@Z ; std::_Tree<std::_Tmap_traits<int,BaseDialog *,std::less<int>,std::allocator<std::pair<int const ,BaseDialog *> >,0> >::_Parent
  00369	83 c4 04	 add	 esp, 4
  0036c	8b 00		 mov	 eax, DWORD PTR [eax]
  0036e	50		 push	 eax
  0036f	e8 00 00 00 00	 call	 ?_Color@?$_Tree@V?$_Tmap_traits@HPAVBaseDialog@@U?$less@H@std@@V?$allocator@U?$pair@$$CBHPAVBaseDialog@@@std@@@3@$0A@@std@@@std@@KAAADPAU_Node@?$_Tree_nod@V?$_Tmap_traits@HPAVBaseDialog@@U?$less@H@std@@V?$allocator@U?$pair@$$CBHPAVBaseDialog@@@std@@@3@$0A@@std@@@2@@Z ; std::_Tree<std::_Tmap_traits<int,BaseDialog *,std::less<int>,std::allocator<std::pair<int const ,BaseDialog *> >,0> >::_Color
  00374	83 c4 04	 add	 esp, 4
  00377	c6 00 00	 mov	 BYTE PTR [eax], 0

; 967  : 					_Pnode = _Parent(_Parent(_Pnode));

  0037a	8b 4d e8	 mov	 ecx, DWORD PTR __Pnode$188637[ebp]
  0037d	51		 push	 ecx
  0037e	e8 00 00 00 00	 call	 ?_Parent@?$_Tree@V?$_Tmap_traits@HPAVBaseDialog@@U?$less@H@std@@V?$allocator@U?$pair@$$CBHPAVBaseDialog@@@std@@@3@$0A@@std@@@std@@KAAAPAU_Node@?$_Tree_nod@V?$_Tmap_traits@HPAVBaseDialog@@U?$less@H@std@@V?$allocator@U?$pair@$$CBHPAVBaseDialog@@@std@@@3@$0A@@std@@@2@PAU342@@Z ; std::_Tree<std::_Tmap_traits<int,BaseDialog *,std::less<int>,std::allocator<std::pair<int const ,BaseDialog *> >,0> >::_Parent
  00383	83 c4 04	 add	 esp, 4
  00386	8b 10		 mov	 edx, DWORD PTR [eax]
  00388	52		 push	 edx
  00389	e8 00 00 00 00	 call	 ?_Parent@?$_Tree@V?$_Tmap_traits@HPAVBaseDialog@@U?$less@H@std@@V?$allocator@U?$pair@$$CBHPAVBaseDialog@@@std@@@3@$0A@@std@@@std@@KAAAPAU_Node@?$_Tree_nod@V?$_Tmap_traits@HPAVBaseDialog@@U?$less@H@std@@V?$allocator@U?$pair@$$CBHPAVBaseDialog@@@std@@@3@$0A@@std@@@2@PAU342@@Z ; std::_Tree<std::_Tmap_traits<int,BaseDialog *,std::less<int>,std::allocator<std::pair<int const ,BaseDialog *> >,0> >::_Parent
  0038e	83 c4 04	 add	 esp, 4
  00391	8b 00		 mov	 eax, DWORD PTR [eax]
  00393	89 45 e8	 mov	 DWORD PTR __Pnode$188637[ebp], eax

; 968  : 					}
; 969  : 				else

  00396	e9 9c 00 00 00	 jmp	 $L188645
$L188646:

; 970  : 					{	// parent has red and black children
; 971  : 					if (_Pnode == _Left(_Parent(_Pnode)))

  0039b	8b 4d e8	 mov	 ecx, DWORD PTR __Pnode$188637[ebp]
  0039e	51		 push	 ecx
  0039f	e8 00 00 00 00	 call	 ?_Parent@?$_Tree@V?$_Tmap_traits@HPAVBaseDialog@@U?$less@H@std@@V?$allocator@U?$pair@$$CBHPAVBaseDialog@@@std@@@3@$0A@@std@@@std@@KAAAPAU_Node@?$_Tree_nod@V?$_Tmap_traits@HPAVBaseDialog@@U?$less@H@std@@V?$allocator@U?$pair@$$CBHPAVBaseDialog@@@std@@@3@$0A@@std@@@2@PAU342@@Z ; std::_Tree<std::_Tmap_traits<int,BaseDialog *,std::less<int>,std::allocator<std::pair<int const ,BaseDialog *> >,0> >::_Parent
  003a4	83 c4 04	 add	 esp, 4
  003a7	8b 10		 mov	 edx, DWORD PTR [eax]
  003a9	52		 push	 edx
  003aa	e8 00 00 00 00	 call	 ?_Left@?$_Tree@V?$_Tmap_traits@HPAVBaseDialog@@U?$less@H@std@@V?$allocator@U?$pair@$$CBHPAVBaseDialog@@@std@@@3@$0A@@std@@@std@@KAAAPAU_Node@?$_Tree_nod@V?$_Tmap_traits@HPAVBaseDialog@@U?$less@H@std@@V?$allocator@U?$pair@$$CBHPAVBaseDialog@@@std@@@3@$0A@@std@@@2@PAU342@@Z ; std::_Tree<std::_Tmap_traits<int,BaseDialog *,std::less<int>,std::allocator<std::pair<int const ,BaseDialog *> >,0> >::_Left
  003af	83 c4 04	 add	 esp, 4
  003b2	8b 4d e8	 mov	 ecx, DWORD PTR __Pnode$188637[ebp]
  003b5	3b 08		 cmp	 ecx, DWORD PTR [eax]
  003b7	75 1d		 jne	 SHORT $L188648

; 972  : 						{	// rotate left child to right
; 973  : 						_Pnode = _Parent(_Pnode);

  003b9	8b 55 e8	 mov	 edx, DWORD PTR __Pnode$188637[ebp]
  003bc	52		 push	 edx
  003bd	e8 00 00 00 00	 call	 ?_Parent@?$_Tree@V?$_Tmap_traits@HPAVBaseDialog@@U?$less@H@std@@V?$allocator@U?$pair@$$CBHPAVBaseDialog@@@std@@@3@$0A@@std@@@std@@KAAAPAU_Node@?$_Tree_nod@V?$_Tmap_traits@HPAVBaseDialog@@U?$less@H@std@@V?$allocator@U?$pair@$$CBHPAVBaseDialog@@@std@@@3@$0A@@std@@@2@PAU342@@Z ; std::_Tree<std::_Tmap_traits<int,BaseDialog *,std::less<int>,std::allocator<std::pair<int const ,BaseDialog *> >,0> >::_Parent
  003c2	83 c4 04	 add	 esp, 4
  003c5	8b 00		 mov	 eax, DWORD PTR [eax]
  003c7	89 45 e8	 mov	 DWORD PTR __Pnode$188637[ebp], eax

; 974  : 						_Rrotate(_Pnode);

  003ca	8b 4d e8	 mov	 ecx, DWORD PTR __Pnode$188637[ebp]
  003cd	51		 push	 ecx
  003ce	8b 4d f0	 mov	 ecx, DWORD PTR _this$[ebp]
  003d1	e8 00 00 00 00	 call	 ?_Rrotate@?$_Tree@V?$_Tmap_traits@HPAVBaseDialog@@U?$less@H@std@@V?$allocator@U?$pair@$$CBHPAVBaseDialog@@@std@@@3@$0A@@std@@@std@@IAEXPAU_Node@?$_Tree_nod@V?$_Tmap_traits@HPAVBaseDialog@@U?$less@H@std@@V?$allocator@U?$pair@$$CBHPAVBaseDialog@@@std@@@3@$0A@@std@@@2@@Z ; std::_Tree<std::_Tmap_traits<int,BaseDialog *,std::less<int>,std::allocator<std::pair<int const ,BaseDialog *> >,0> >::_Rrotate
$L188648:

; 975  : 						}
; 976  : 					_Color(_Parent(_Pnode)) = _Black;	// propagate red up

  003d6	8b 55 e8	 mov	 edx, DWORD PTR __Pnode$188637[ebp]
  003d9	52		 push	 edx
  003da	e8 00 00 00 00	 call	 ?_Parent@?$_Tree@V?$_Tmap_traits@HPAVBaseDialog@@U?$less@H@std@@V?$allocator@U?$pair@$$CBHPAVBaseDialog@@@std@@@3@$0A@@std@@@std@@KAAAPAU_Node@?$_Tree_nod@V?$_Tmap_traits@HPAVBaseDialog@@U?$less@H@std@@V?$allocator@U?$pair@$$CBHPAVBaseDialog@@@std@@@3@$0A@@std@@@2@PAU342@@Z ; std::_Tree<std::_Tmap_traits<int,BaseDialog *,std::less<int>,std::allocator<std::pair<int const ,BaseDialog *> >,0> >::_Parent
  003df	83 c4 04	 add	 esp, 4
  003e2	8b 00		 mov	 eax, DWORD PTR [eax]
  003e4	50		 push	 eax
  003e5	e8 00 00 00 00	 call	 ?_Color@?$_Tree@V?$_Tmap_traits@HPAVBaseDialog@@U?$less@H@std@@V?$allocator@U?$pair@$$CBHPAVBaseDialog@@@std@@@3@$0A@@std@@@std@@KAAADPAU_Node@?$_Tree_nod@V?$_Tmap_traits@HPAVBaseDialog@@U?$less@H@std@@V?$allocator@U?$pair@$$CBHPAVBaseDialog@@@std@@@3@$0A@@std@@@2@@Z ; std::_Tree<std::_Tmap_traits<int,BaseDialog *,std::less<int>,std::allocator<std::pair<int const ,BaseDialog *> >,0> >::_Color
  003ea	83 c4 04	 add	 esp, 4
  003ed	c6 00 01	 mov	 BYTE PTR [eax], 1

; 977  : 					_Color(_Parent(_Parent(_Pnode))) = _Red;

  003f0	8b 4d e8	 mov	 ecx, DWORD PTR __Pnode$188637[ebp]
  003f3	51		 push	 ecx
  003f4	e8 00 00 00 00	 call	 ?_Parent@?$_Tree@V?$_Tmap_traits@HPAVBaseDialog@@U?$less@H@std@@V?$allocator@U?$pair@$$CBHPAVBaseDialog@@@std@@@3@$0A@@std@@@std@@KAAAPAU_Node@?$_Tree_nod@V?$_Tmap_traits@HPAVBaseDialog@@U?$less@H@std@@V?$allocator@U?$pair@$$CBHPAVBaseDialog@@@std@@@3@$0A@@std@@@2@PAU342@@Z ; std::_Tree<std::_Tmap_traits<int,BaseDialog *,std::less<int>,std::allocator<std::pair<int const ,BaseDialog *> >,0> >::_Parent
  003f9	83 c4 04	 add	 esp, 4
  003fc	8b 10		 mov	 edx, DWORD PTR [eax]
  003fe	52		 push	 edx
  003ff	e8 00 00 00 00	 call	 ?_Parent@?$_Tree@V?$_Tmap_traits@HPAVBaseDialog@@U?$less@H@std@@V?$allocator@U?$pair@$$CBHPAVBaseDialog@@@std@@@3@$0A@@std@@@std@@KAAAPAU_Node@?$_Tree_nod@V?$_Tmap_traits@HPAVBaseDialog@@U?$less@H@std@@V?$allocator@U?$pair@$$CBHPAVBaseDialog@@@std@@@3@$0A@@std@@@2@PAU342@@Z ; std::_Tree<std::_Tmap_traits<int,BaseDialog *,std::less<int>,std::allocator<std::pair<int const ,BaseDialog *> >,0> >::_Parent
  00404	83 c4 04	 add	 esp, 4
  00407	8b 00		 mov	 eax, DWORD PTR [eax]
  00409	50		 push	 eax
  0040a	e8 00 00 00 00	 call	 ?_Color@?$_Tree@V?$_Tmap_traits@HPAVBaseDialog@@U?$less@H@std@@V?$allocator@U?$pair@$$CBHPAVBaseDialog@@@std@@@3@$0A@@std@@@std@@KAAADPAU_Node@?$_Tree_nod@V?$_Tmap_traits@HPAVBaseDialog@@U?$less@H@std@@V?$allocator@U?$pair@$$CBHPAVBaseDialog@@@std@@@3@$0A@@std@@@2@@Z ; std::_Tree<std::_Tmap_traits<int,BaseDialog *,std::less<int>,std::allocator<std::pair<int const ,BaseDialog *> >,0> >::_Color
  0040f	83 c4 04	 add	 esp, 4
  00412	c6 00 00	 mov	 BYTE PTR [eax], 0

; 978  : 					_Lrotate(_Parent(_Parent(_Pnode)));

  00415	8b 4d e8	 mov	 ecx, DWORD PTR __Pnode$188637[ebp]
  00418	51		 push	 ecx
  00419	e8 00 00 00 00	 call	 ?_Parent@?$_Tree@V?$_Tmap_traits@HPAVBaseDialog@@U?$less@H@std@@V?$allocator@U?$pair@$$CBHPAVBaseDialog@@@std@@@3@$0A@@std@@@std@@KAAAPAU_Node@?$_Tree_nod@V?$_Tmap_traits@HPAVBaseDialog@@U?$less@H@std@@V?$allocator@U?$pair@$$CBHPAVBaseDialog@@@std@@@3@$0A@@std@@@2@PAU342@@Z ; std::_Tree<std::_Tmap_traits<int,BaseDialog *,std::less<int>,std::allocator<std::pair<int const ,BaseDialog *> >,0> >::_Parent
  0041e	83 c4 04	 add	 esp, 4
  00421	8b 10		 mov	 edx, DWORD PTR [eax]
  00423	52		 push	 edx
  00424	e8 00 00 00 00	 call	 ?_Parent@?$_Tree@V?$_Tmap_traits@HPAVBaseDialog@@U?$less@H@std@@V?$allocator@U?$pair@$$CBHPAVBaseDialog@@@std@@@3@$0A@@std@@@std@@KAAAPAU_Node@?$_Tree_nod@V?$_Tmap_traits@HPAVBaseDialog@@U?$less@H@std@@V?$allocator@U?$pair@$$CBHPAVBaseDialog@@@std@@@3@$0A@@std@@@2@PAU342@@Z ; std::_Tree<std::_Tmap_traits<int,BaseDialog *,std::less<int>,std::allocator<std::pair<int const ,BaseDialog *> >,0> >::_Parent
  00429	83 c4 04	 add	 esp, 4
  0042c	8b 00		 mov	 eax, DWORD PTR [eax]
  0042e	50		 push	 eax
  0042f	8b 4d f0	 mov	 ecx, DWORD PTR _this$[ebp]
  00432	e8 00 00 00 00	 call	 ?_Lrotate@?$_Tree@V?$_Tmap_traits@HPAVBaseDialog@@U?$less@H@std@@V?$allocator@U?$pair@$$CBHPAVBaseDialog@@@std@@@3@$0A@@std@@@std@@IAEXPAU_Node@?$_Tree_nod@V?$_Tmap_traits@HPAVBaseDialog@@U?$less@H@std@@V?$allocator@U?$pair@$$CBHPAVBaseDialog@@@std@@@3@$0A@@std@@@2@@Z ; std::_Tree<std::_Tmap_traits<int,BaseDialog *,std::less<int>,std::allocator<std::pair<int const ,BaseDialog *> >,0> >::_Lrotate
$L188645:

; 979  : 					}
; 980  : 				}

  00437	e9 10 fd ff ff	 jmp	 $L188639
$L188640:

; 981  : 
; 982  : 		_Color(_Root()) = _Black;	// root is always black

  0043c	8b 4d f0	 mov	 ecx, DWORD PTR _this$[ebp]
  0043f	e8 00 00 00 00	 call	 ?_Root@?$_Tree@V?$_Tmap_traits@HPAVBaseDialog@@U?$less@H@std@@V?$allocator@U?$pair@$$CBHPAVBaseDialog@@@std@@@3@$0A@@std@@@std@@IAEAAPAU_Node@?$_Tree_nod@V?$_Tmap_traits@HPAVBaseDialog@@U?$less@H@std@@V?$allocator@U?$pair@$$CBHPAVBaseDialog@@@std@@@3@$0A@@std@@@2@XZ ; std::_Tree<std::_Tmap_traits<int,BaseDialog *,std::less<int>,std::allocator<std::pair<int const ,BaseDialog *> >,0> >::_Root
  00444	8b 08		 mov	 ecx, DWORD PTR [eax]
  00446	51		 push	 ecx
  00447	e8 00 00 00 00	 call	 ?_Color@?$_Tree@V?$_Tmap_traits@HPAVBaseDialog@@U?$less@H@std@@V?$allocator@U?$pair@$$CBHPAVBaseDialog@@@std@@@3@$0A@@std@@@std@@KAAADPAU_Node@?$_Tree_nod@V?$_Tmap_traits@HPAVBaseDialog@@U?$less@H@std@@V?$allocator@U?$pair@$$CBHPAVBaseDialog@@@std@@@3@$0A@@std@@@2@@Z ; std::_Tree<std::_Tmap_traits<int,BaseDialog *,std::less<int>,std::allocator<std::pair<int const ,BaseDialog *> >,0> >::_Color
  0044c	83 c4 04	 add	 esp, 4
  0044f	c6 00 01	 mov	 BYTE PTR [eax], 1

; 983  : 		return (_TREE_ITERATOR(_Newnode));

  00452	8b 55 ec	 mov	 edx, DWORD PTR __Newnode$[ebp]
  00455	52		 push	 edx
  00456	8b 4d 08	 mov	 ecx, DWORD PTR ___$ReturnUdt$[ebp]
  00459	e8 00 00 00 00	 call	 ??0iterator@?$_Tree@V?$_Tmap_traits@HPAVBaseDialog@@U?$less@H@std@@V?$allocator@U?$pair@$$CBHPAVBaseDialog@@@std@@@3@$0A@@std@@@std@@QAE@PAU_Node@?$_Tree_nod@V?$_Tmap_traits@HPAVBaseDialog@@U?$less@H@std@@V?$allocator@U?$pair@$$CBHPAVBaseDialog@@@std@@@3@$0A@@std@@@2@@Z ; std::_Tree<std::_Tmap_traits<int,BaseDialog *,std::less<int>,std::allocator<std::pair<int const ,BaseDialog *> >,0> >::iterator::iterator
  0045e	8b 45 08	 mov	 eax, DWORD PTR ___$ReturnUdt$[ebp]
$L189604:

; 984  : 		}

  00461	8b 4d f4	 mov	 ecx, DWORD PTR __$EHRec$[ebp]
  00464	64 89 0d 00 00
	00 00		 mov	 DWORD PTR fs:__except_list, ecx
  0046b	5f		 pop	 edi
  0046c	5e		 pop	 esi
  0046d	83 c4 5c	 add	 esp, 92			; 0000005cH
  00470	3b ec		 cmp	 ebp, esp
  00472	e8 00 00 00 00	 call	 __RTC_CheckEsp
  00477	8b e5		 mov	 esp, ebp
  00479	5d		 pop	 ebp
  0047a	c2 10 00	 ret	 16			; 00000010H
_TEXT	ENDS
;	COMDAT text$x
text$x	SEGMENT
$L189608:
  00000	8b f4		 mov	 esi, esp
  00002	8d 4d a4	 lea	 ecx, DWORD PTR $T189606[ebp]
  00005	ff 15 00 00 00
	00		 call	 DWORD PTR __imp_??1?$basic_string@DU?$char_traits@D@std@@V?$allocator@D@2@@std@@QAE@XZ
  0000b	3b f4		 cmp	 esi, esp
  0000d	e9 00 00 00 00	 jmp	 __RTC_CheckEsp
__ehhandler$?_Insert@?$_Tree@V?$_Tmap_traits@HPAVBaseDialog@@U?$less@H@std@@V?$allocator@U?$pair@$$CBHPAVBaseDialog@@@std@@@3@$0A@@std@@@std@@IAE?AViterator@12@_NPAU_Node@?$_Tree_nod@V?$_Tmap_traits@HPAVBaseDialog@@U?$less@H@std@@V?$allocator@U?$pair@$$CBHPAVBaseDialog@@@std@@@3@$0A@@std@@@2@ABU?$pair@$$CBHPAVBaseDialog@@@2@@Z:
  00012	b8 00 00 00 00	 mov	 eax, OFFSET FLAT:$T189610
  00017	e9 00 00 00 00	 jmp	 ___CxxFrameHandler
text$x	ENDS
?_Insert@?$_Tree@V?$_Tmap_traits@HPAVBaseDialog@@U?$less@H@std@@V?$allocator@U?$pair@$$CBHPAVBaseDialog@@@std@@@3@$0A@@std@@@std@@IAE?AViterator@12@_NPAU_Node@?$_Tree_nod@V?$_Tmap_traits@HPAVBaseDialog@@U?$less@H@std@@V?$allocator@U?$pair@$$CBHPAVBaseDialog@@@std@@@3@$0A@@std@@@2@ABU?$pair@$$CBHPAVBaseDialog@@@2@@Z ENDP ; std::_Tree<std::_Tmap_traits<int,BaseDialog *,std::less<int>,std::allocator<std::pair<int const ,BaseDialog *> >,0> >::_Insert
PUBLIC	?_Root@?$_Tree@V?$_Tmap_traits@HPAVBaseDialog@@U?$less@H@std@@V?$allocator@U?$pair@$$CBHPAVBaseDialog@@@std@@@3@$0A@@std@@@std@@IBEAAPAU_Node@?$_Tree_nod@V?$_Tmap_traits@HPAVBaseDialog@@U?$less@H@std@@V?$allocator@U?$pair@$$CBHPAVBaseDialog@@@std@@@3@$0A@@std@@@2@XZ ; std::_Tree<std::_Tmap_traits<int,BaseDialog *,std::less<int>,std::allocator<std::pair<int const ,BaseDialog *> >,0> >::_Root
; Function compile flags: /Odt /RTCsu
;	COMDAT ?_Lbound@?$_Tree@V?$_Tmap_traits@HPAVBaseDialog@@U?$less@H@std@@V?$allocator@U?$pair@$$CBHPAVBaseDialog@@@std@@@3@$0A@@std@@@std@@IBEPAU_Node@?$_Tree_nod@V?$_Tmap_traits@HPAVBaseDialog@@U?$less@H@std@@V?$allocator@U?$pair@$$CBHPAVBaseDialog@@@std@@@3@$0A@@std@@@2@ABH@Z
_TEXT	SEGMENT
__Wherenode$ = -12					; size = 4
__Pnode$ = -8						; size = 4
_this$ = -4						; size = 4
__Keyval$ = 8						; size = 4
?_Lbound@?$_Tree@V?$_Tmap_traits@HPAVBaseDialog@@U?$less@H@std@@V?$allocator@U?$pair@$$CBHPAVBaseDialog@@@std@@@3@$0A@@std@@@std@@IBEPAU_Node@?$_Tree_nod@V?$_Tmap_traits@HPAVBaseDialog@@U?$less@H@std@@V?$allocator@U?$pair@$$CBHPAVBaseDialog@@@std@@@3@$0A@@std@@@2@ABH@Z PROC NEAR ; std::_Tree<std::_Tmap_traits<int,BaseDialog *,std::less<int>,std::allocator<std::pair<int const ,BaseDialog *> >,0> >::_Lbound, COMDAT
; _this$ = ecx

; 987  : 		{	// find leftmost node not less than _Keyval

  00000	55		 push	 ebp
  00001	8b ec		 mov	 ebp, esp
  00003	83 ec 0c	 sub	 esp, 12			; 0000000cH
  00006	c7 45 f4 cc cc
	cc cc		 mov	 DWORD PTR [ebp-12], -858993460 ; ccccccccH
  0000d	c7 45 f8 cc cc
	cc cc		 mov	 DWORD PTR [ebp-8], -858993460 ; ccccccccH
  00014	c7 45 fc cc cc
	cc cc		 mov	 DWORD PTR [ebp-4], -858993460 ; ccccccccH
  0001b	89 4d fc	 mov	 DWORD PTR _this$[ebp], ecx

; 988  : 		_Nodeptr _Pnode = _Root();

  0001e	8b 4d fc	 mov	 ecx, DWORD PTR _this$[ebp]
  00021	e8 00 00 00 00	 call	 ?_Root@?$_Tree@V?$_Tmap_traits@HPAVBaseDialog@@U?$less@H@std@@V?$allocator@U?$pair@$$CBHPAVBaseDialog@@@std@@@3@$0A@@std@@@std@@IBEAAPAU_Node@?$_Tree_nod@V?$_Tmap_traits@HPAVBaseDialog@@U?$less@H@std@@V?$allocator@U?$pair@$$CBHPAVBaseDialog@@@std@@@3@$0A@@std@@@2@XZ ; std::_Tree<std::_Tmap_traits<int,BaseDialog *,std::less<int>,std::allocator<std::pair<int const ,BaseDialog *> >,0> >::_Root
  00026	8b 00		 mov	 eax, DWORD PTR [eax]
  00028	89 45 f8	 mov	 DWORD PTR __Pnode$[ebp], eax

; 989  : 		_Nodeptr _Wherenode = _Myhead;	// end() if search fails

  0002b	8b 4d fc	 mov	 ecx, DWORD PTR _this$[ebp]
  0002e	8b 51 04	 mov	 edx, DWORD PTR [ecx+4]
  00031	89 55 f4	 mov	 DWORD PTR __Wherenode$[ebp], edx
$L188655:

; 990  : 
; 991  : 		while (!_Isnil(_Pnode))

  00034	8b 45 f8	 mov	 eax, DWORD PTR __Pnode$[ebp]
  00037	50		 push	 eax
  00038	e8 00 00 00 00	 call	 ?_Isnil@?$_Tree@V?$_Tmap_traits@HPAVBaseDialog@@U?$less@H@std@@V?$allocator@U?$pair@$$CBHPAVBaseDialog@@@std@@@3@$0A@@std@@@std@@KAAADPAU_Node@?$_Tree_nod@V?$_Tmap_traits@HPAVBaseDialog@@U?$less@H@std@@V?$allocator@U?$pair@$$CBHPAVBaseDialog@@@std@@@3@$0A@@std@@@2@@Z ; std::_Tree<std::_Tmap_traits<int,BaseDialog *,std::less<int>,std::allocator<std::pair<int const ,BaseDialog *> >,0> >::_Isnil
  0003d	83 c4 04	 add	 esp, 4
  00040	0f be 08	 movsx	 ecx, BYTE PTR [eax]
  00043	85 c9		 test	 ecx, ecx
  00045	75 4c		 jne	 SHORT $L188656

; 992  : 			if (this->comp(_Key(_Pnode), _Keyval))

  00047	8b 55 08	 mov	 edx, DWORD PTR __Keyval$[ebp]
  0004a	52		 push	 edx
  0004b	8b 45 f8	 mov	 eax, DWORD PTR __Pnode$[ebp]
  0004e	50		 push	 eax
  0004f	e8 00 00 00 00	 call	 ?_Key@?$_Tree@V?$_Tmap_traits@HPAVBaseDialog@@U?$less@H@std@@V?$allocator@U?$pair@$$CBHPAVBaseDialog@@@std@@@3@$0A@@std@@@std@@KAABHPAU_Node@?$_Tree_nod@V?$_Tmap_traits@HPAVBaseDialog@@U?$less@H@std@@V?$allocator@U?$pair@$$CBHPAVBaseDialog@@@std@@@3@$0A@@std@@@2@@Z ; std::_Tree<std::_Tmap_traits<int,BaseDialog *,std::less<int>,std::allocator<std::pair<int const ,BaseDialog *> >,0> >::_Key
  00054	83 c4 04	 add	 esp, 4
  00057	50		 push	 eax
  00058	8b 4d fc	 mov	 ecx, DWORD PTR _this$[ebp]
  0005b	e8 00 00 00 00	 call	 ??R?$less@H@std@@QBE_NABH0@Z ; std::less<int>::operator()
  00060	0f b6 c8	 movzx	 ecx, al
  00063	85 c9		 test	 ecx, ecx
  00065	74 13		 je	 SHORT $L188657

; 993  : 				_Pnode = _Right(_Pnode);	// descend right subtree

  00067	8b 55 f8	 mov	 edx, DWORD PTR __Pnode$[ebp]
  0006a	52		 push	 edx
  0006b	e8 00 00 00 00	 call	 ?_Right@?$_Tree@V?$_Tmap_traits@HPAVBaseDialog@@U?$less@H@std@@V?$allocator@U?$pair@$$CBHPAVBaseDialog@@@std@@@3@$0A@@std@@@std@@KAAAPAU_Node@?$_Tree_nod@V?$_Tmap_traits@HPAVBaseDialog@@U?$less@H@std@@V?$allocator@U?$pair@$$CBHPAVBaseDialog@@@std@@@3@$0A@@std@@@2@PAU342@@Z ; std::_Tree<std::_Tmap_traits<int,BaseDialog *,std::less<int>,std::allocator<std::pair<int const ,BaseDialog *> >,0> >::_Right
  00070	83 c4 04	 add	 esp, 4
  00073	8b 00		 mov	 eax, DWORD PTR [eax]
  00075	89 45 f8	 mov	 DWORD PTR __Pnode$[ebp], eax

; 994  : 			else

  00078	eb 17		 jmp	 SHORT $L188658
$L188657:

; 995  : 				{	// _Pnode not less than _Keyval, remember it
; 996  : 				_Wherenode = _Pnode;

  0007a	8b 4d f8	 mov	 ecx, DWORD PTR __Pnode$[ebp]
  0007d	89 4d f4	 mov	 DWORD PTR __Wherenode$[ebp], ecx

; 997  : 				_Pnode = _Left(_Pnode);	// descend left subtree

  00080	8b 55 f8	 mov	 edx, DWORD PTR __Pnode$[ebp]
  00083	52		 push	 edx
  00084	e8 00 00 00 00	 call	 ?_Left@?$_Tree@V?$_Tmap_traits@HPAVBaseDialog@@U?$less@H@std@@V?$allocator@U?$pair@$$CBHPAVBaseDialog@@@std@@@3@$0A@@std@@@std@@KAAAPAU_Node@?$_Tree_nod@V?$_Tmap_traits@HPAVBaseDialog@@U?$less@H@std@@V?$allocator@U?$pair@$$CBHPAVBaseDialog@@@std@@@3@$0A@@std@@@2@PAU342@@Z ; std::_Tree<std::_Tmap_traits<int,BaseDialog *,std::less<int>,std::allocator<std::pair<int const ,BaseDialog *> >,0> >::_Left
  00089	83 c4 04	 add	 esp, 4
  0008c	8b 00		 mov	 eax, DWORD PTR [eax]
  0008e	89 45 f8	 mov	 DWORD PTR __Pnode$[ebp], eax
$L188658:

; 998  : 				}

  00091	eb a1		 jmp	 SHORT $L188655
$L188656:

; 999  : 
; 1000 : 		return (_Wherenode);	// return best remembered candidate

  00093	8b 45 f4	 mov	 eax, DWORD PTR __Wherenode$[ebp]

; 1001 : 		}

  00096	83 c4 0c	 add	 esp, 12			; 0000000cH
  00099	3b ec		 cmp	 ebp, esp
  0009b	e8 00 00 00 00	 call	 __RTC_CheckEsp
  000a0	8b e5		 mov	 esp, ebp
  000a2	5d		 pop	 ebp
  000a3	c2 04 00	 ret	 4
?_Lbound@?$_Tree@V?$_Tmap_traits@HPAVBaseDialog@@U?$less@H@std@@V?$allocator@U?$pair@$$CBHPAVBaseDialog@@@std@@@3@$0A@@std@@@std@@IBEPAU_Node@?$_Tree_nod@V?$_Tmap_traits@HPAVBaseDialog@@U?$less@H@std@@V?$allocator@U?$pair@$$CBHPAVBaseDialog@@@std@@@3@$0A@@std@@@2@ABH@Z ENDP ; std::_Tree<std::_Tmap_traits<int,BaseDialog *,std::less<int>,std::allocator<std::pair<int const ,BaseDialog *> >,0> >::_Lbound
; Function compile flags: /Odt /RTCsu
_TEXT	ENDS
;	COMDAT ?_Rmost@?$_Tree@V?$_Tmap_traits@HPAVBaseDialog@@U?$less@H@std@@V?$allocator@U?$pair@$$CBHPAVBaseDialog@@@std@@@3@$0A@@std@@@std@@IAEAAPAU_Node@?$_Tree_nod@V?$_Tmap_traits@HPAVBaseDialog@@U?$less@H@std@@V?$allocator@U?$pair@$$CBHPAVBaseDialog@@@std@@@3@$0A@@std@@@2@XZ
_TEXT	SEGMENT
_this$ = -4						; size = 4
?_Rmost@?$_Tree@V?$_Tmap_traits@HPAVBaseDialog@@U?$less@H@std@@V?$allocator@U?$pair@$$CBHPAVBaseDialog@@@std@@@3@$0A@@std@@@std@@IAEAAPAU_Node@?$_Tree_nod@V?$_Tmap_traits@HPAVBaseDialog@@U?$less@H@std@@V?$allocator@U?$pair@$$CBHPAVBaseDialog@@@std@@@3@$0A@@std@@@2@XZ PROC NEAR ; std::_Tree<std::_Tmap_traits<int,BaseDialog *,std::less<int>,std::allocator<std::pair<int const ,BaseDialog *> >,0> >::_Rmost, COMDAT
; _this$ = ecx

; 1048 : 		{	// return rightmost node in mutable tree

  00000	55		 push	 ebp
  00001	8b ec		 mov	 ebp, esp
  00003	51		 push	 ecx
  00004	c7 45 fc cc cc
	cc cc		 mov	 DWORD PTR [ebp-4], -858993460 ; ccccccccH
  0000b	89 4d fc	 mov	 DWORD PTR _this$[ebp], ecx

; 1049 : 		return (_Right(_Myhead));

  0000e	8b 45 fc	 mov	 eax, DWORD PTR _this$[ebp]
  00011	8b 48 04	 mov	 ecx, DWORD PTR [eax+4]
  00014	51		 push	 ecx
  00015	e8 00 00 00 00	 call	 ?_Right@?$_Tree@V?$_Tmap_traits@HPAVBaseDialog@@U?$less@H@std@@V?$allocator@U?$pair@$$CBHPAVBaseDialog@@@std@@@3@$0A@@std@@@std@@KAAAPAU_Node@?$_Tree_nod@V?$_Tmap_traits@HPAVBaseDialog@@U?$less@H@std@@V?$allocator@U?$pair@$$CBHPAVBaseDialog@@@std@@@3@$0A@@std@@@2@PAU342@@Z ; std::_Tree<std::_Tmap_traits<int,BaseDialog *,std::less<int>,std::allocator<std::pair<int const ,BaseDialog *> >,0> >::_Right
  0001a	83 c4 04	 add	 esp, 4

; 1050 : 		}

  0001d	83 c4 04	 add	 esp, 4
  00020	3b ec		 cmp	 ebp, esp
  00022	e8 00 00 00 00	 call	 __RTC_CheckEsp
  00027	8b e5		 mov	 esp, ebp
  00029	5d		 pop	 ebp
  0002a	c3		 ret	 0
?_Rmost@?$_Tree@V?$_Tmap_traits@HPAVBaseDialog@@U?$less@H@std@@V?$allocator@U?$pair@$$CBHPAVBaseDialog@@@std@@@3@$0A@@std@@@std@@IAEAAPAU_Node@?$_Tree_nod@V?$_Tmap_traits@HPAVBaseDialog@@U?$less@H@std@@V?$allocator@U?$pair@$$CBHPAVBaseDialog@@@std@@@3@$0A@@std@@@2@XZ ENDP ; std::_Tree<std::_Tmap_traits<int,BaseDialog *,std::less<int>,std::allocator<std::pair<int const ,BaseDialog *> >,0> >::_Rmost
_TEXT	ENDS
PUBLIC	??0?$_Tree_ptr@V?$_Tmap_traits@HPAVBaseDialog@@U?$less@H@std@@V?$allocator@U?$pair@$$CBHPAVBaseDialog@@@std@@@3@$0A@@std@@@std@@IAE@ABU?$less@H@1@V?$allocator@U?$pair@$$CBHPAVBaseDialog@@@std@@@1@@Z ; std::_Tree_ptr<std::_Tmap_traits<int,BaseDialog *,std::less<int>,std::allocator<std::pair<int const ,BaseDialog *> >,0> >::_Tree_ptr<std::_Tmap_traits<int,BaseDialog *,std::less<int>,std::allocator<std::pair<int const ,BaseDialog *> >,0> >
; Function compile flags: /Odt /RTCsu
;	COMDAT ??0?$_Tree_val@V?$_Tmap_traits@HPAVBaseDialog@@U?$less@H@std@@V?$allocator@U?$pair@$$CBHPAVBaseDialog@@@std@@@3@$0A@@std@@@std@@IAE@ABU?$less@H@1@V?$allocator@U?$pair@$$CBHPAVBaseDialog@@@std@@@1@@Z
_TEXT	SEGMENT
_this$ = -4						; size = 4
__Parg$ = 8						; size = 4
__Al$ = 12						; size = 1
??0?$_Tree_val@V?$_Tmap_traits@HPAVBaseDialog@@U?$less@H@std@@V?$allocator@U?$pair@$$CBHPAVBaseDialog@@@std@@@3@$0A@@std@@@std@@IAE@ABU?$less@H@1@V?$allocator@U?$pair@$$CBHPAVBaseDialog@@@std@@@1@@Z PROC NEAR ; std::_Tree_val<std::_Tmap_traits<int,BaseDialog *,std::less<int>,std::allocator<std::pair<int const ,BaseDialog *> >,0> >::_Tree_val<std::_Tmap_traits<int,BaseDialog *,std::less<int>,std::allocator<std::pair<int const ,BaseDialog *> >,0> >, COMDAT
; _this$ = ecx

; 95   : 		{	// construct base, and allocator from _Al

  00000	55		 push	 ebp
  00001	8b ec		 mov	 ebp, esp
  00003	83 ec 08	 sub	 esp, 8
  00006	c7 45 f8 cc cc
	cc cc		 mov	 DWORD PTR [ebp-8], -858993460 ; ccccccccH
  0000d	c7 45 fc cc cc
	cc cc		 mov	 DWORD PTR [ebp-4], -858993460 ; ccccccccH
  00014	89 4d fc	 mov	 DWORD PTR _this$[ebp], ecx
  00017	51		 push	 ecx
  00018	8b cc		 mov	 ecx, esp
  0001a	8d 45 0c	 lea	 eax, DWORD PTR __Al$[ebp]
  0001d	50		 push	 eax
  0001e	e8 00 00 00 00	 call	 ??0?$allocator@U?$pair@$$CBHPAVBaseDialog@@@std@@@std@@QAE@ABV01@@Z ; std::allocator<std::pair<int const ,BaseDialog *> >::allocator<std::pair<int const ,BaseDialog *> >
  00023	8b 4d 08	 mov	 ecx, DWORD PTR __Parg$[ebp]
  00026	51		 push	 ecx
  00027	8b 4d fc	 mov	 ecx, DWORD PTR _this$[ebp]
  0002a	e8 00 00 00 00	 call	 ??0?$_Tree_ptr@V?$_Tmap_traits@HPAVBaseDialog@@U?$less@H@std@@V?$allocator@U?$pair@$$CBHPAVBaseDialog@@@std@@@3@$0A@@std@@@std@@IAE@ABU?$less@H@1@V?$allocator@U?$pair@$$CBHPAVBaseDialog@@@std@@@1@@Z ; std::_Tree_ptr<std::_Tmap_traits<int,BaseDialog *,std::less<int>,std::allocator<std::pair<int const ,BaseDialog *> >,0> >::_Tree_ptr<std::_Tmap_traits<int,BaseDialog *,std::less<int>,std::allocator<std::pair<int const ,BaseDialog *> >,0> >
  0002f	8d 55 0c	 lea	 edx, DWORD PTR __Al$[ebp]
  00032	52		 push	 edx
  00033	8b 4d fc	 mov	 ecx, DWORD PTR _this$[ebp]
  00036	83 c1 03	 add	 ecx, 3
  00039	e8 00 00 00 00	 call	 ??0?$allocator@U?$pair@$$CBHPAVBaseDialog@@@std@@@std@@QAE@ABV01@@Z ; std::allocator<std::pair<int const ,BaseDialog *> >::allocator<std::pair<int const ,BaseDialog *> >

; 96   : 		}

  0003e	8b 45 fc	 mov	 eax, DWORD PTR _this$[ebp]
  00041	83 c4 08	 add	 esp, 8
  00044	3b ec		 cmp	 ebp, esp
  00046	e8 00 00 00 00	 call	 __RTC_CheckEsp
  0004b	8b e5		 mov	 esp, ebp
  0004d	5d		 pop	 ebp
  0004e	c2 08 00	 ret	 8
??0?$_Tree_val@V?$_Tmap_traits@HPAVBaseDialog@@U?$less@H@std@@V?$allocator@U?$pair@$$CBHPAVBaseDialog@@@std@@@3@$0A@@std@@@std@@IAE@ABU?$less@H@1@V?$allocator@U?$pair@$$CBHPAVBaseDialog@@@std@@@1@@Z ENDP ; std::_Tree_val<std::_Tmap_traits<int,BaseDialog *,std::less<int>,std::allocator<std::pair<int const ,BaseDialog *> >,0> >::_Tree_val<std::_Tmap_traits<int,BaseDialog *,std::less<int>,std::allocator<std::pair<int const ,BaseDialog *> >,0> >
; Function compile flags: /Odt /RTCsu
; File d:\program files (x86)\microsoft visual studio .net 2003\vc7\include\map
_TEXT	ENDS
;	COMDAT ?_Kfn@?$_Tmap_traits@HPAVBaseDialog@@U?$less@H@std@@V?$allocator@U?$pair@$$CBHPAVBaseDialog@@@std@@@3@$0A@@std@@SAABHABU?$pair@$$CBHPAVBaseDialog@@@2@@Z
_TEXT	SEGMENT
__Val$ = 8						; size = 4
?_Kfn@?$_Tmap_traits@HPAVBaseDialog@@U?$less@H@std@@V?$allocator@U?$pair@$$CBHPAVBaseDialog@@@std@@@3@$0A@@std@@SAABHABU?$pair@$$CBHPAVBaseDialog@@@2@@Z PROC NEAR ; std::_Tmap_traits<int,BaseDialog *,std::less<int>,std::allocator<std::pair<int const ,BaseDialog *> >,0>::_Kfn, COMDAT

; 63   : 		{	// extract key from element value

  00000	55		 push	 ebp
  00001	8b ec		 mov	 ebp, esp

; 64   : 		return (_Val.first);

  00003	8b 45 08	 mov	 eax, DWORD PTR __Val$[ebp]

; 65   : 		}

  00006	5d		 pop	 ebp
  00007	c3		 ret	 0
?_Kfn@?$_Tmap_traits@HPAVBaseDialog@@U?$less@H@std@@V?$allocator@U?$pair@$$CBHPAVBaseDialog@@@std@@@3@$0A@@std@@SAABHABU?$pair@$$CBHPAVBaseDialog@@@2@@Z ENDP ; std::_Tmap_traits<int,BaseDialog *,std::less<int>,std::allocator<std::pair<int const ,BaseDialog *> >,0>::_Kfn
; Function compile flags: /Odt /RTCsu
; File d:\program files (x86)\microsoft visual studio .net 2003\vc7\include\xmemory
_TEXT	ENDS
;	COMDAT ??0?$allocator@U?$pair@$$CBHPAVBaseDialog@@@std@@@std@@QAE@ABV01@@Z
_TEXT	SEGMENT
_this$ = -4						; size = 4
___formal$ = 8						; size = 4
??0?$allocator@U?$pair@$$CBHPAVBaseDialog@@@std@@@std@@QAE@ABV01@@Z PROC NEAR ; std::allocator<std::pair<int const ,BaseDialog *> >::allocator<std::pair<int const ,BaseDialog *> >, COMDAT
; _this$ = ecx

; 115  : 	allocator(const allocator<_Ty>&)

  00000	55		 push	 ebp
  00001	8b ec		 mov	 ebp, esp
  00003	51		 push	 ecx
  00004	c7 45 fc cc cc
	cc cc		 mov	 DWORD PTR [ebp-4], -858993460 ; ccccccccH
  0000b	89 4d fc	 mov	 DWORD PTR _this$[ebp], ecx

; 116  : 		{	// construct by copying (do nothing)
; 117  : 		}

  0000e	8b 45 fc	 mov	 eax, DWORD PTR _this$[ebp]
  00011	8b e5		 mov	 esp, ebp
  00013	5d		 pop	 ebp
  00014	c2 04 00	 ret	 4
??0?$allocator@U?$pair@$$CBHPAVBaseDialog@@@std@@@std@@QAE@ABV01@@Z ENDP ; std::allocator<std::pair<int const ,BaseDialog *> >::allocator<std::pair<int const ,BaseDialog *> >
; Function compile flags: /Odt /RTCsu
_TEXT	ENDS
;	COMDAT ?deallocate@?$allocator@U_Node@?$_Tree_nod@V?$_Tmap_traits@HPAVBaseDialog@@U?$less@H@std@@V?$allocator@U?$pair@$$CBHPAVBaseDialog@@@std@@@3@$0A@@std@@@std@@@std@@QAEXPAU_Node@?$_Tree_nod@V?$_Tmap_traits@HPAVBaseDialog@@U?$less@H@std@@V?$allocator@U?$pair@$$CBHPAVBaseDialog@@@std@@@3@$0A@@std@@@2@I@Z
_TEXT	SEGMENT
_this$ = -4						; size = 4
__Ptr$ = 8						; size = 4
___formal$ = 12						; size = 4
?deallocate@?$allocator@U_Node@?$_Tree_nod@V?$_Tmap_traits@HPAVBaseDialog@@U?$less@H@std@@V?$allocator@U?$pair@$$CBHPAVBaseDialog@@@std@@@3@$0A@@std@@@std@@@std@@QAEXPAU_Node@?$_Tree_nod@V?$_Tmap_traits@HPAVBaseDialog@@U?$less@H@std@@V?$allocator@U?$pair@$$CBHPAVBaseDialog@@@std@@@3@$0A@@std@@@2@I@Z PROC NEAR ; std::allocator<std::_Tree_nod<std::_Tmap_traits<int,BaseDialog *,std::less<int>,std::allocator<std::pair<int const ,BaseDialog *> >,0> >::_Node>::deallocate, COMDAT
; _this$ = ecx

; 131  : 		{	// deallocate object at _Ptr, ignore size

  00000	55		 push	 ebp
  00001	8b ec		 mov	 ebp, esp
  00003	51		 push	 ecx
  00004	c7 45 fc cc cc
	cc cc		 mov	 DWORD PTR [ebp-4], -858993460 ; ccccccccH
  0000b	89 4d fc	 mov	 DWORD PTR _this$[ebp], ecx

; 132  : 		operator delete(_Ptr);

  0000e	8b 45 08	 mov	 eax, DWORD PTR __Ptr$[ebp]
  00011	50		 push	 eax
  00012	e8 00 00 00 00	 call	 ??3@YAXPAX@Z		; operator delete
  00017	83 c4 04	 add	 esp, 4

; 133  : 		}

  0001a	83 c4 04	 add	 esp, 4
  0001d	3b ec		 cmp	 ebp, esp
  0001f	e8 00 00 00 00	 call	 __RTC_CheckEsp
  00024	8b e5		 mov	 esp, ebp
  00026	5d		 pop	 ebp
  00027	c2 08 00	 ret	 8
?deallocate@?$allocator@U_Node@?$_Tree_nod@V?$_Tmap_traits@HPAVBaseDialog@@U?$less@H@std@@V?$allocator@U?$pair@$$CBHPAVBaseDialog@@@std@@@3@$0A@@std@@@std@@@std@@QAEXPAU_Node@?$_Tree_nod@V?$_Tmap_traits@HPAVBaseDialog@@U?$less@H@std@@V?$allocator@U?$pair@$$CBHPAVBaseDialog@@@std@@@3@$0A@@std@@@2@I@Z ENDP ; std::allocator<std::_Tree_nod<std::_Tmap_traits<int,BaseDialog *,std::less<int>,std::allocator<std::pair<int const ,BaseDialog *> >,0> >::_Node>::deallocate
_TEXT	ENDS
PUBLIC	??$_Destroy@PAU_Node@?$_Tree_nod@V?$_Tmap_traits@HPAVBaseDialog@@U?$less@H@std@@V?$allocator@U?$pair@$$CBHPAVBaseDialog@@@std@@@3@$0A@@std@@@std@@@std@@YAXPAPAU_Node@?$_Tree_nod@V?$_Tmap_traits@HPAVBaseDialog@@U?$less@H@std@@V?$allocator@U?$pair@$$CBHPAVBaseDialog@@@std@@@3@$0A@@std@@@0@@Z ; std::_Destroy<std::_Tree_nod<std::_Tmap_traits<int,BaseDialog *,std::less<int>,std::allocator<std::pair<int const ,BaseDialog *> >,0> >::_Node *>
; Function compile flags: /Odt /RTCsu
;	COMDAT ?destroy@?$allocator@PAU_Node@?$_Tree_nod@V?$_Tmap_traits@HPAVBaseDialog@@U?$less@H@std@@V?$allocator@U?$pair@$$CBHPAVBaseDialog@@@std@@@3@$0A@@std@@@std@@@std@@QAEXPAPAU_Node@?$_Tree_nod@V?$_Tmap_traits@HPAVBaseDialog@@U?$less@H@std@@V?$allocator@U?$pair@$$CBHPAVBaseDialog@@@std@@@3@$0A@@std@@@2@@Z
_TEXT	SEGMENT
_this$ = -4						; size = 4
__Ptr$ = 8						; size = 4
?destroy@?$allocator@PAU_Node@?$_Tree_nod@V?$_Tmap_traits@HPAVBaseDialog@@U?$less@H@std@@V?$allocator@U?$pair@$$CBHPAVBaseDialog@@@std@@@3@$0A@@std@@@std@@@std@@QAEXPAPAU_Node@?$_Tree_nod@V?$_Tmap_traits@HPAVBaseDialog@@U?$less@H@std@@V?$allocator@U?$pair@$$CBHPAVBaseDialog@@@std@@@3@$0A@@std@@@2@@Z PROC NEAR ; std::allocator<std::_Tree_nod<std::_Tmap_traits<int,BaseDialog *,std::less<int>,std::allocator<std::pair<int const ,BaseDialog *> >,0> >::_Node *>::destroy, COMDAT
; _this$ = ecx

; 151  : 		{	// destroy object at _Ptr

  00000	55		 push	 ebp
  00001	8b ec		 mov	 ebp, esp
  00003	51		 push	 ecx
  00004	c7 45 fc cc cc
	cc cc		 mov	 DWORD PTR [ebp-4], -858993460 ; ccccccccH
  0000b	89 4d fc	 mov	 DWORD PTR _this$[ebp], ecx

; 152  : 		_Destroy(_Ptr);

  0000e	8b 45 08	 mov	 eax, DWORD PTR __Ptr$[ebp]
  00011	50		 push	 eax
  00012	e8 00 00 00 00	 call	 ??$_Destroy@PAU_Node@?$_Tree_nod@V?$_Tmap_traits@HPAVBaseDialog@@U?$less@H@std@@V?$allocator@U?$pair@$$CBHPAVBaseDialog@@@std@@@3@$0A@@std@@@std@@@std@@YAXPAPAU_Node@?$_Tree_nod@V?$_Tmap_traits@HPAVBaseDialog@@U?$less@H@std@@V?$allocator@U?$pair@$$CBHPAVBaseDialog@@@std@@@3@$0A@@std@@@0@@Z ; std::_Destroy<std::_Tree_nod<std::_Tmap_traits<int,BaseDialog *,std::less<int>,std::allocator<std::pair<int const ,BaseDialog *> >,0> >::_Node *>
  00017	83 c4 04	 add	 esp, 4

; 153  : 		}

  0001a	83 c4 04	 add	 esp, 4
  0001d	3b ec		 cmp	 ebp, esp
  0001f	e8 00 00 00 00	 call	 __RTC_CheckEsp
  00024	8b e5		 mov	 esp, ebp
  00026	5d		 pop	 ebp
  00027	c2 04 00	 ret	 4
?destroy@?$allocator@PAU_Node@?$_Tree_nod@V?$_Tmap_traits@HPAVBaseDialog@@U?$less@H@std@@V?$allocator@U?$pair@$$CBHPAVBaseDialog@@@std@@@3@$0A@@std@@@std@@@std@@QAEXPAPAU_Node@?$_Tree_nod@V?$_Tmap_traits@HPAVBaseDialog@@U?$less@H@std@@V?$allocator@U?$pair@$$CBHPAVBaseDialog@@@std@@@3@$0A@@std@@@2@@Z ENDP ; std::allocator<std::_Tree_nod<std::_Tmap_traits<int,BaseDialog *,std::less<int>,std::allocator<std::pair<int const ,BaseDialog *> >,0> >::_Node *>::destroy
_TEXT	ENDS
PUBLIC	??0const_iterator@?$_Tree@V?$_Tmap_traits@HPAVBaseDialog@@U?$less@H@std@@V?$allocator@U?$pair@$$CBHPAVBaseDialog@@@std@@@3@$0A@@std@@@std@@QAE@XZ ; std::_Tree<std::_Tmap_traits<int,BaseDialog *,std::less<int>,std::allocator<std::pair<int const ,BaseDialog *> >,0> >::const_iterator::const_iterator
; Function compile flags: /Odt /RTCsu
; File d:\program files (x86)\microsoft visual studio .net 2003\vc7\include\xtree
;	COMDAT ??0iterator@?$_Tree@V?$_Tmap_traits@HPAVBaseDialog@@U?$less@H@std@@V?$allocator@U?$pair@$$CBHPAVBaseDialog@@@std@@@3@$0A@@std@@@std@@QAE@XZ
_TEXT	SEGMENT
_this$ = -4						; size = 4
??0iterator@?$_Tree@V?$_Tmap_traits@HPAVBaseDialog@@U?$less@H@std@@V?$allocator@U?$pair@$$CBHPAVBaseDialog@@@std@@@3@$0A@@std@@@std@@QAE@XZ PROC NEAR ; std::_Tree<std::_Tmap_traits<int,BaseDialog *,std::less<int>,std::allocator<std::pair<int const ,BaseDialog *> >,0> >::iterator::iterator, COMDAT
; _this$ = ecx

; 304  : 		iterator()

  00000	55		 push	 ebp
  00001	8b ec		 mov	 ebp, esp
  00003	51		 push	 ecx
  00004	c7 45 fc cc cc
	cc cc		 mov	 DWORD PTR [ebp-4], -858993460 ; ccccccccH
  0000b	89 4d fc	 mov	 DWORD PTR _this$[ebp], ecx
  0000e	8b 4d fc	 mov	 ecx, DWORD PTR _this$[ebp]
  00011	e8 00 00 00 00	 call	 ??0const_iterator@?$_Tree@V?$_Tmap_traits@HPAVBaseDialog@@U?$less@H@std@@V?$allocator@U?$pair@$$CBHPAVBaseDialog@@@std@@@3@$0A@@std@@@std@@QAE@XZ ; std::_Tree<std::_Tmap_traits<int,BaseDialog *,std::less<int>,std::allocator<std::pair<int const ,BaseDialog *> >,0> >::const_iterator::const_iterator

; 305  : 			{	// construct with null node pointer
; 306  : 			}

  00016	8b 45 fc	 mov	 eax, DWORD PTR _this$[ebp]
  00019	83 c4 04	 add	 esp, 4
  0001c	3b ec		 cmp	 ebp, esp
  0001e	e8 00 00 00 00	 call	 __RTC_CheckEsp
  00023	8b e5		 mov	 esp, ebp
  00025	5d		 pop	 ebp
  00026	c3		 ret	 0
??0iterator@?$_Tree@V?$_Tmap_traits@HPAVBaseDialog@@U?$less@H@std@@V?$allocator@U?$pair@$$CBHPAVBaseDialog@@@std@@@3@$0A@@std@@@std@@QAE@XZ ENDP ; std::_Tree<std::_Tmap_traits<int,BaseDialog *,std::less<int>,std::allocator<std::pair<int const ,BaseDialog *> >,0> >::iterator::iterator
_TEXT	ENDS
PUBLIC	??0const_iterator@?$_Tree@V?$_Tmap_traits@HPAVBaseDialog@@U?$less@H@std@@V?$allocator@U?$pair@$$CBHPAVBaseDialog@@@std@@@3@$0A@@std@@@std@@QAE@PAU_Node@?$_Tree_nod@V?$_Tmap_traits@HPAVBaseDialog@@U?$less@H@std@@V?$allocator@U?$pair@$$CBHPAVBaseDialog@@@std@@@3@$0A@@std@@@2@@Z ; std::_Tree<std::_Tmap_traits<int,BaseDialog *,std::less<int>,std::allocator<std::pair<int const ,BaseDialog *> >,0> >::const_iterator::const_iterator
; Function compile flags: /Odt /RTCsu
;	COMDAT ??0iterator@?$_Tree@V?$_Tmap_traits@HPAVBaseDialog@@U?$less@H@std@@V?$allocator@U?$pair@$$CBHPAVBaseDialog@@@std@@@3@$0A@@std@@@std@@QAE@PAU_Node@?$_Tree_nod@V?$_Tmap_traits@HPAVBaseDialog@@U?$less@H@std@@V?$allocator@U?$pair@$$CBHPAVBaseDialog@@@std@@@3@$0A@@std@@@2@@Z
_TEXT	SEGMENT
_this$ = -4						; size = 4
__Pnode$ = 8						; size = 4
??0iterator@?$_Tree@V?$_Tmap_traits@HPAVBaseDialog@@U?$less@H@std@@V?$allocator@U?$pair@$$CBHPAVBaseDialog@@@std@@@3@$0A@@std@@@std@@QAE@PAU_Node@?$_Tree_nod@V?$_Tmap_traits@HPAVBaseDialog@@U?$less@H@std@@V?$allocator@U?$pair@$$CBHPAVBaseDialog@@@std@@@3@$0A@@std@@@2@@Z PROC NEAR ; std::_Tree<std::_Tmap_traits<int,BaseDialog *,std::less<int>,std::allocator<std::pair<int const ,BaseDialog *> >,0> >::iterator::iterator, COMDAT
; _this$ = ecx

; 312  : 			{	// construct with node pointer _Pnode

  00000	55		 push	 ebp
  00001	8b ec		 mov	 ebp, esp
  00003	51		 push	 ecx
  00004	c7 45 fc cc cc
	cc cc		 mov	 DWORD PTR [ebp-4], -858993460 ; ccccccccH
  0000b	89 4d fc	 mov	 DWORD PTR _this$[ebp], ecx
  0000e	8b 45 08	 mov	 eax, DWORD PTR __Pnode$[ebp]
  00011	50		 push	 eax
  00012	8b 4d fc	 mov	 ecx, DWORD PTR _this$[ebp]
  00015	e8 00 00 00 00	 call	 ??0const_iterator@?$_Tree@V?$_Tmap_traits@HPAVBaseDialog@@U?$less@H@std@@V?$allocator@U?$pair@$$CBHPAVBaseDialog@@@std@@@3@$0A@@std@@@std@@QAE@PAU_Node@?$_Tree_nod@V?$_Tmap_traits@HPAVBaseDialog@@U?$less@H@std@@V?$allocator@U?$pair@$$CBHPAVBaseDialog@@@std@@@3@$0A@@std@@@2@@Z ; std::_Tree<std::_Tmap_traits<int,BaseDialog *,std::less<int>,std::allocator<std::pair<int const ,BaseDialog *> >,0> >::const_iterator::const_iterator

; 313  : 			}

  0001a	8b 45 fc	 mov	 eax, DWORD PTR _this$[ebp]
  0001d	83 c4 04	 add	 esp, 4
  00020	3b ec		 cmp	 ebp, esp
  00022	e8 00 00 00 00	 call	 __RTC_CheckEsp
  00027	8b e5		 mov	 esp, ebp
  00029	5d		 pop	 ebp
  0002a	c2 04 00	 ret	 4
??0iterator@?$_Tree@V?$_Tmap_traits@HPAVBaseDialog@@U?$less@H@std@@V?$allocator@U?$pair@$$CBHPAVBaseDialog@@@std@@@3@$0A@@std@@@std@@QAE@PAU_Node@?$_Tree_nod@V?$_Tmap_traits@HPAVBaseDialog@@U?$less@H@std@@V?$allocator@U?$pair@$$CBHPAVBaseDialog@@@std@@@3@$0A@@std@@@2@@Z ENDP ; std::_Tree<std::_Tmap_traits<int,BaseDialog *,std::less<int>,std::allocator<std::pair<int const ,BaseDialog *> >,0> >::iterator::iterator
_TEXT	ENDS
PUBLIC	??Econst_iterator@?$_Tree@V?$_Tmap_traits@HPAVBaseDialog@@U?$less@H@std@@V?$allocator@U?$pair@$$CBHPAVBaseDialog@@@std@@@3@$0A@@std@@@std@@QAEAAV012@XZ ; std::_Tree<std::_Tmap_traits<int,BaseDialog *,std::less<int>,std::allocator<std::pair<int const ,BaseDialog *> >,0> >::const_iterator::operator++
; Function compile flags: /Odt /RTCsu
;	COMDAT ??Eiterator@?$_Tree@V?$_Tmap_traits@HPAVBaseDialog@@U?$less@H@std@@V?$allocator@U?$pair@$$CBHPAVBaseDialog@@@std@@@3@$0A@@std@@@std@@QAEAAV012@XZ
_TEXT	SEGMENT
_this$ = -4						; size = 4
??Eiterator@?$_Tree@V?$_Tmap_traits@HPAVBaseDialog@@U?$less@H@std@@V?$allocator@U?$pair@$$CBHPAVBaseDialog@@@std@@@3@$0A@@std@@@std@@QAEAAV012@XZ PROC NEAR ; std::_Tree<std::_Tmap_traits<int,BaseDialog *,std::less<int>,std::allocator<std::pair<int const ,BaseDialog *> >,0> >::iterator::operator++, COMDAT
; _this$ = ecx

; 326  : 			{	// preincrement

  00000	55		 push	 ebp
  00001	8b ec		 mov	 ebp, esp
  00003	51		 push	 ecx
  00004	c7 45 fc cc cc
	cc cc		 mov	 DWORD PTR [ebp-4], -858993460 ; ccccccccH
  0000b	89 4d fc	 mov	 DWORD PTR _this$[ebp], ecx

; 327  : 			++(*(const_iterator *)this);

  0000e	8b 4d fc	 mov	 ecx, DWORD PTR _this$[ebp]
  00011	e8 00 00 00 00	 call	 ??Econst_iterator@?$_Tree@V?$_Tmap_traits@HPAVBaseDialog@@U?$less@H@std@@V?$allocator@U?$pair@$$CBHPAVBaseDialog@@@std@@@3@$0A@@std@@@std@@QAEAAV012@XZ ; std::_Tree<std::_Tmap_traits<int,BaseDialog *,std::less<int>,std::allocator<std::pair<int const ,BaseDialog *> >,0> >::const_iterator::operator++

; 328  : 			return (*this);

  00016	8b 45 fc	 mov	 eax, DWORD PTR _this$[ebp]

; 329  : 			}

  00019	83 c4 04	 add	 esp, 4
  0001c	3b ec		 cmp	 ebp, esp
  0001e	e8 00 00 00 00	 call	 __RTC_CheckEsp
  00023	8b e5		 mov	 esp, ebp
  00025	5d		 pop	 ebp
  00026	c3		 ret	 0
??Eiterator@?$_Tree@V?$_Tmap_traits@HPAVBaseDialog@@U?$less@H@std@@V?$allocator@U?$pair@$$CBHPAVBaseDialog@@@std@@@3@$0A@@std@@@std@@QAEAAV012@XZ ENDP ; std::_Tree<std::_Tmap_traits<int,BaseDialog *,std::less<int>,std::allocator<std::pair<int const ,BaseDialog *> >,0> >::iterator::operator++
_TEXT	ENDS
PUBLIC	??Fconst_iterator@?$_Tree@V?$_Tmap_traits@HPAVBaseDialog@@U?$less@H@std@@V?$allocator@U?$pair@$$CBHPAVBaseDialog@@@std@@@3@$0A@@std@@@std@@QAEAAV012@XZ ; std::_Tree<std::_Tmap_traits<int,BaseDialog *,std::less<int>,std::allocator<std::pair<int const ,BaseDialog *> >,0> >::const_iterator::operator--
; Function compile flags: /Odt /RTCsu
;	COMDAT ??Fiterator@?$_Tree@V?$_Tmap_traits@HPAVBaseDialog@@U?$less@H@std@@V?$allocator@U?$pair@$$CBHPAVBaseDialog@@@std@@@3@$0A@@std@@@std@@QAEAAV012@XZ
_TEXT	SEGMENT
_this$ = -4						; size = 4
??Fiterator@?$_Tree@V?$_Tmap_traits@HPAVBaseDialog@@U?$less@H@std@@V?$allocator@U?$pair@$$CBHPAVBaseDialog@@@std@@@3@$0A@@std@@@std@@QAEAAV012@XZ PROC NEAR ; std::_Tree<std::_Tmap_traits<int,BaseDialog *,std::less<int>,std::allocator<std::pair<int const ,BaseDialog *> >,0> >::iterator::operator--, COMDAT
; _this$ = ecx

; 339  : 			{	// predecrement

  00000	55		 push	 ebp
  00001	8b ec		 mov	 ebp, esp
  00003	51		 push	 ecx
  00004	c7 45 fc cc cc
	cc cc		 mov	 DWORD PTR [ebp-4], -858993460 ; ccccccccH
  0000b	89 4d fc	 mov	 DWORD PTR _this$[ebp], ecx

; 340  : 			--(*(const_iterator *)this);

  0000e	8b 4d fc	 mov	 ecx, DWORD PTR _this$[ebp]
  00011	e8 00 00 00 00	 call	 ??Fconst_iterator@?$_Tree@V?$_Tmap_traits@HPAVBaseDialog@@U?$less@H@std@@V?$allocator@U?$pair@$$CBHPAVBaseDialog@@@std@@@3@$0A@@std@@@std@@QAEAAV012@XZ ; std::_Tree<std::_Tmap_traits<int,BaseDialog *,std::less<int>,std::allocator<std::pair<int const ,BaseDialog *> >,0> >::const_iterator::operator--

; 341  : 			return (*this);

  00016	8b 45 fc	 mov	 eax, DWORD PTR _this$[ebp]

; 342  : 			}

  00019	83 c4 04	 add	 esp, 4
  0001c	3b ec		 cmp	 ebp, esp
  0001e	e8 00 00 00 00	 call	 __RTC_CheckEsp
  00023	8b e5		 mov	 esp, ebp
  00025	5d		 pop	 ebp
  00026	c3		 ret	 0
??Fiterator@?$_Tree@V?$_Tmap_traits@HPAVBaseDialog@@U?$less@H@std@@V?$allocator@U?$pair@$$CBHPAVBaseDialog@@@std@@@3@$0A@@std@@@std@@QAEAAV012@XZ ENDP ; std::_Tree<std::_Tmap_traits<int,BaseDialog *,std::less<int>,std::allocator<std::pair<int const ,BaseDialog *> >,0> >::iterator::operator--
; Function compile flags: /Odt /RTCsu
_TEXT	ENDS
;	COMDAT ??Dconst_iterator@?$_Tree@V?$_Tmap_traits@HPAVBaseDialog@@U?$less@H@std@@V?$allocator@U?$pair@$$CBHPAVBaseDialog@@@std@@@3@$0A@@std@@@std@@QBEABU?$pair@$$CBHPAVBaseDialog@@@2@XZ
_TEXT	SEGMENT
_this$ = -4						; size = 4
??Dconst_iterator@?$_Tree@V?$_Tmap_traits@HPAVBaseDialog@@U?$less@H@std@@V?$allocator@U?$pair@$$CBHPAVBaseDialog@@@std@@@3@$0A@@std@@@std@@QBEABU?$pair@$$CBHPAVBaseDialog@@@2@XZ PROC NEAR ; std::_Tree<std::_Tmap_traits<int,BaseDialog *,std::less<int>,std::allocator<std::pair<int const ,BaseDialog *> >,0> >::const_iterator::operator*, COMDAT
; _this$ = ecx

; 204  : 			{	// return designated value

  00000	55		 push	 ebp
  00001	8b ec		 mov	 ebp, esp
  00003	51		 push	 ecx
  00004	c7 45 fc cc cc
	cc cc		 mov	 DWORD PTR [ebp-4], -858993460 ; ccccccccH
  0000b	89 4d fc	 mov	 DWORD PTR _this$[ebp], ecx

; 205  : 			return (_Myval(_Ptr));

  0000e	8b 45 fc	 mov	 eax, DWORD PTR _this$[ebp]
  00011	8b 08		 mov	 ecx, DWORD PTR [eax]
  00013	51		 push	 ecx
  00014	e8 00 00 00 00	 call	 ?_Myval@?$_Tree@V?$_Tmap_traits@HPAVBaseDialog@@U?$less@H@std@@V?$allocator@U?$pair@$$CBHPAVBaseDialog@@@std@@@3@$0A@@std@@@std@@KAAAU?$pair@$$CBHPAVBaseDialog@@@2@PAU_Node@?$_Tree_nod@V?$_Tmap_traits@HPAVBaseDialog@@U?$less@H@std@@V?$allocator@U?$pair@$$CBHPAVBaseDialog@@@std@@@3@$0A@@std@@@2@@Z ; std::_Tree<std::_Tmap_traits<int,BaseDialog *,std::less<int>,std::allocator<std::pair<int const ,BaseDialog *> >,0> >::_Myval
  00019	83 c4 04	 add	 esp, 4

; 206  : 			}

  0001c	83 c4 04	 add	 esp, 4
  0001f	3b ec		 cmp	 ebp, esp
  00021	e8 00 00 00 00	 call	 __RTC_CheckEsp
  00026	8b e5		 mov	 esp, ebp
  00028	5d		 pop	 ebp
  00029	c3		 ret	 0
??Dconst_iterator@?$_Tree@V?$_Tmap_traits@HPAVBaseDialog@@U?$less@H@std@@V?$allocator@U?$pair@$$CBHPAVBaseDialog@@@std@@@3@$0A@@std@@@std@@QBEABU?$pair@$$CBHPAVBaseDialog@@@2@XZ ENDP ; std::_Tree<std::_Tmap_traits<int,BaseDialog *,std::less<int>,std::allocator<std::pair<int const ,BaseDialog *> >,0> >::const_iterator::operator*
_TEXT	ENDS
PUBLIC	??_R1A@?0A@A@exception@@8			; exception::`RTTI Base Class Descriptor at (0,-1,0,0)'
PUBLIC	??_R1A@?0A@A@logic_error@std@@8			; std::logic_error::`RTTI Base Class Descriptor at (0,-1,0,0)'
PUBLIC	??_R4length_error@std@@6B@			; std::length_error::`RTTI Complete Object Locator'
PUBLIC	??_R3length_error@std@@8			; std::length_error::`RTTI Class Hierarchy Descriptor'
PUBLIC	??_R2length_error@std@@8			; std::length_error::`RTTI Base Class Array'
PUBLIC	??_R1A@?0A@A@length_error@std@@8		; std::length_error::`RTTI Base Class Descriptor at (0,-1,0,0)'
PUBLIC	?what@logic_error@std@@UBEPBDXZ			; std::logic_error::what
PUBLIC	??_7length_error@std@@6B@			; std::length_error::`vftable'
PUBLIC	??_Glength_error@std@@UAEPAXI@Z			; std::length_error::`scalar deleting destructor'
EXTRN	??_Elength_error@std@@UAEPAXI@Z:NEAR		; std::length_error::`vector deleting destructor'
;	COMDAT ??_7length_error@std@@6B@
CONST	SEGMENT
??_7length_error@std@@6B@ DD FLAT:??_R4length_error@std@@6B@ ; std::length_error::`vftable'
	DD	FLAT:??_Elength_error@std@@UAEPAXI@Z
	DD	FLAT:?what@logic_error@std@@UBEPBDXZ
CONST	ENDS
;	COMDAT ??_R4length_error@std@@6B@
rdata$r	SEGMENT
??_R4length_error@std@@6B@ DD 00H			; std::length_error::`RTTI Complete Object Locator'
	DD	00H
	DD	00H
	DD	FLAT:??_R0?AVlength_error@std@@@8
	DD	FLAT:??_R3length_error@std@@8
rdata$r	ENDS
;	COMDAT ??_R3length_error@std@@8
rdata$r	SEGMENT
??_R3length_error@std@@8 DD 00H				; std::length_error::`RTTI Class Hierarchy Descriptor'
	DD	00H
	DD	03H
	DD	FLAT:??_R2length_error@std@@8
rdata$r	ENDS
;	COMDAT ??_R2length_error@std@@8
rdata$r	SEGMENT
??_R2length_error@std@@8 DD FLAT:??_R1A@?0A@A@length_error@std@@8 ; std::length_error::`RTTI Base Class Array'
	DD	FLAT:??_R1A@?0A@A@logic_error@std@@8
	DD	FLAT:??_R1A@?0A@A@exception@@8
rdata$r	ENDS
;	COMDAT ??_R1A@?0A@A@length_error@std@@8
rdata$r	SEGMENT
??_R1A@?0A@A@length_error@std@@8 DD FLAT:??_R0?AVlength_error@std@@@8 ; std::length_error::`RTTI Base Class Descriptor at (0,-1,0,0)'
	DD	02H
	DD	00H
	DD	0ffffffffH
	DD	00H
	DD	00H
rdata$r	ENDS
;	COMDAT ??_R1A@?0A@A@logic_error@std@@8
rdata$r	SEGMENT
??_R1A@?0A@A@logic_error@std@@8 DD FLAT:??_R0?AVlogic_error@std@@@8 ; std::logic_error::`RTTI Base Class Descriptor at (0,-1,0,0)'
	DD	01H
	DD	00H
	DD	0ffffffffH
	DD	00H
	DD	00H
rdata$r	ENDS
;	COMDAT ??_R1A@?0A@A@exception@@8
rdata$r	SEGMENT
??_R1A@?0A@A@exception@@8 DD FLAT:??_R0?AVexception@@@8	; exception::`RTTI Base Class Descriptor at (0,-1,0,0)'
	DD	00H
	DD	00H
	DD	0ffffffffH
	DD	00H
	DD	00H
; Function compile flags: /Odt /RTCsu
rdata$r	ENDS
;	COMDAT ??0length_error@std@@QAE@ABV01@@Z
_TEXT	SEGMENT
_this$ = -4						; size = 4
___that$ = 8						; size = 4
??0length_error@std@@QAE@ABV01@@Z PROC NEAR		; std::length_error::length_error, COMDAT
; _this$ = ecx
  00000	55		 push	 ebp
  00001	8b ec		 mov	 ebp, esp
  00003	51		 push	 ecx
  00004	c7 45 fc cc cc
	cc cc		 mov	 DWORD PTR [ebp-4], -858993460 ; ccccccccH
  0000b	89 4d fc	 mov	 DWORD PTR _this$[ebp], ecx
  0000e	8b 45 08	 mov	 eax, DWORD PTR ___that$[ebp]
  00011	50		 push	 eax
  00012	8b 4d fc	 mov	 ecx, DWORD PTR _this$[ebp]
  00015	e8 00 00 00 00	 call	 ??0logic_error@std@@QAE@ABV01@@Z
  0001a	8b 4d fc	 mov	 ecx, DWORD PTR _this$[ebp]
  0001d	c7 01 00 00 00
	00		 mov	 DWORD PTR [ecx], OFFSET FLAT:??_7length_error@std@@6B@
  00023	8b 45 fc	 mov	 eax, DWORD PTR _this$[ebp]
  00026	83 c4 04	 add	 esp, 4
  00029	3b ec		 cmp	 ebp, esp
  0002b	e8 00 00 00 00	 call	 __RTC_CheckEsp
  00030	8b e5		 mov	 esp, ebp
  00032	5d		 pop	 ebp
  00033	c2 04 00	 ret	 4
??0length_error@std@@QAE@ABV01@@Z ENDP			; std::length_error::length_error
; Function compile flags: /Odt /RTCsu
_TEXT	ENDS
;	COMDAT ?_Color@?$_Tree@V?$_Tmap_traits@HPAVBaseDialog@@U?$less@H@std@@V?$allocator@U?$pair@$$CBHPAVBaseDialog@@@std@@@3@$0A@@std@@@std@@KAAADPAU_Node@?$_Tree_nod@V?$_Tmap_traits@HPAVBaseDialog@@U?$less@H@std@@V?$allocator@U?$pair@$$CBHPAVBaseDialog@@@std@@@3@$0A@@std@@@2@@Z
_TEXT	SEGMENT
__Pnode$ = 8						; size = 4
?_Color@?$_Tree@V?$_Tmap_traits@HPAVBaseDialog@@U?$less@H@std@@V?$allocator@U?$pair@$$CBHPAVBaseDialog@@@std@@@3@$0A@@std@@@std@@KAAADPAU_Node@?$_Tree_nod@V?$_Tmap_traits@HPAVBaseDialog@@U?$less@H@std@@V?$allocator@U?$pair@$$CBHPAVBaseDialog@@@std@@@3@$0A@@std@@@2@@Z PROC NEAR ; std::_Tree<std::_Tmap_traits<int,BaseDialog *,std::less<int>,std::allocator<std::pair<int const ,BaseDialog *> >,0> >::_Color, COMDAT

; 131  : 		{	// return reference to color in node

  00000	55		 push	 ebp
  00001	8b ec		 mov	 ebp, esp

; 132  : 		return ((_Charref)(*_Pnode)._Color);

  00003	8b 45 08	 mov	 eax, DWORD PTR __Pnode$[ebp]
  00006	83 c0 14	 add	 eax, 20			; 00000014H

; 133  : 		}

  00009	5d		 pop	 ebp
  0000a	c3		 ret	 0
?_Color@?$_Tree@V?$_Tmap_traits@HPAVBaseDialog@@U?$less@H@std@@V?$allocator@U?$pair@$$CBHPAVBaseDialog@@@std@@@3@$0A@@std@@@std@@KAAADPAU_Node@?$_Tree_nod@V?$_Tmap_traits@HPAVBaseDialog@@U?$less@H@std@@V?$allocator@U?$pair@$$CBHPAVBaseDialog@@@std@@@3@$0A@@std@@@2@@Z ENDP ; std::_Tree<std::_Tmap_traits<int,BaseDialog *,std::less<int>,std::allocator<std::pair<int const ,BaseDialog *> >,0> >::_Color
_TEXT	ENDS
PUBLIC	?max_size@?$allocator@U?$pair@$$CBHPAVBaseDialog@@@std@@@std@@QBEIXZ ; std::allocator<std::pair<int const ,BaseDialog *> >::max_size
; Function compile flags: /Odt /RTCsu
;	COMDAT ?max_size@?$_Tree@V?$_Tmap_traits@HPAVBaseDialog@@U?$less@H@std@@V?$allocator@U?$pair@$$CBHPAVBaseDialog@@@std@@@3@$0A@@std@@@std@@QBEIXZ
_TEXT	SEGMENT
_this$ = -4						; size = 4
?max_size@?$_Tree@V?$_Tmap_traits@HPAVBaseDialog@@U?$less@H@std@@V?$allocator@U?$pair@$$CBHPAVBaseDialog@@@std@@@3@$0A@@std@@@std@@QBEIXZ PROC NEAR ; std::_Tree<std::_Tmap_traits<int,BaseDialog *,std::less<int>,std::allocator<std::pair<int const ,BaseDialog *> >,0> >::max_size, COMDAT
; _this$ = ecx

; 452  : 		{	// return maximum possible length of sequence

  00000	55		 push	 ebp
  00001	8b ec		 mov	 ebp, esp
  00003	51		 push	 ecx
  00004	c7 45 fc cc cc
	cc cc		 mov	 DWORD PTR [ebp-4], -858993460 ; ccccccccH
  0000b	89 4d fc	 mov	 DWORD PTR _this$[ebp], ecx

; 453  : 		return (this->_Alval.max_size());

  0000e	8b 4d fc	 mov	 ecx, DWORD PTR _this$[ebp]
  00011	83 c1 03	 add	 ecx, 3
  00014	e8 00 00 00 00	 call	 ?max_size@?$allocator@U?$pair@$$CBHPAVBaseDialog@@@std@@@std@@QBEIXZ ; std::allocator<std::pair<int const ,BaseDialog *> >::max_size

; 454  : 		}

  00019	83 c4 04	 add	 esp, 4
  0001c	3b ec		 cmp	 ebp, esp
  0001e	e8 00 00 00 00	 call	 __RTC_CheckEsp
  00023	8b e5		 mov	 esp, ebp
  00025	5d		 pop	 ebp
  00026	c3		 ret	 0
?max_size@?$_Tree@V?$_Tmap_traits@HPAVBaseDialog@@U?$less@H@std@@V?$allocator@U?$pair@$$CBHPAVBaseDialog@@@std@@@3@$0A@@std@@@std@@QBEIXZ ENDP ; std::_Tree<std::_Tmap_traits<int,BaseDialog *,std::less<int>,std::allocator<std::pair<int const ,BaseDialog *> >,0> >::max_size
_TEXT	ENDS
PUBLIC	?destroy@?$allocator@U_Node@?$_Tree_nod@V?$_Tmap_traits@HPAVBaseDialog@@U?$less@H@std@@V?$allocator@U?$pair@$$CBHPAVBaseDialog@@@std@@@3@$0A@@std@@@std@@@std@@QAEXPAU_Node@?$_Tree_nod@V?$_Tmap_traits@HPAVBaseDialog@@U?$less@H@std@@V?$allocator@U?$pair@$$CBHPAVBaseDialog@@@std@@@3@$0A@@std@@@2@@Z ; std::allocator<std::_Tree_nod<std::_Tmap_traits<int,BaseDialog *,std::less<int>,std::allocator<std::pair<int const ,BaseDialog *> >,0> >::_Node>::destroy
PUBLIC	__TI3?AVout_of_range@std@@
PUBLIC	__CTA3?AVout_of_range@std@@
PUBLIC	??_R0?AVout_of_range@std@@@8			; std::out_of_range `RTTI Type Descriptor'
PUBLIC	__CT??_R0?AVout_of_range@std@@@8??0out_of_range@std@@QAE@ABV01@@Z40
PUBLIC	??_C@_0BM@PAPJHAGI@invalid?5map?1set?$DMT?$DO?5iterator?$AA@ ; `string'
PUBLIC	??$swap@D@std@@YAXAAD0@Z			; std::swap<char>
PUBLIC	?_Max@?$_Tree@V?$_Tmap_traits@HPAVBaseDialog@@U?$less@H@std@@V?$allocator@U?$pair@$$CBHPAVBaseDialog@@@std@@@3@$0A@@std@@@std@@KAPAU_Node@?$_Tree_nod@V?$_Tmap_traits@HPAVBaseDialog@@U?$less@H@std@@V?$allocator@U?$pair@$$CBHPAVBaseDialog@@@std@@@3@$0A@@std@@@2@PAU342@@Z ; std::_Tree<std::_Tmap_traits<int,BaseDialog *,std::less<int>,std::allocator<std::pair<int const ,BaseDialog *> >,0> >::_Max
PUBLIC	?_Min@?$_Tree@V?$_Tmap_traits@HPAVBaseDialog@@U?$less@H@std@@V?$allocator@U?$pair@$$CBHPAVBaseDialog@@@std@@@3@$0A@@std@@@std@@KAPAU_Node@?$_Tree_nod@V?$_Tmap_traits@HPAVBaseDialog@@U?$less@H@std@@V?$allocator@U?$pair@$$CBHPAVBaseDialog@@@std@@@3@$0A@@std@@@2@PAU342@@Z ; std::_Tree<std::_Tmap_traits<int,BaseDialog *,std::less<int>,std::allocator<std::pair<int const ,BaseDialog *> >,0> >::_Min
PUBLIC	??0out_of_range@std@@QAE@ABV?$basic_string@DU?$char_traits@D@std@@V?$allocator@D@2@@1@@Z ; std::out_of_range::out_of_range
PUBLIC	??1out_of_range@std@@UAE@XZ			; std::out_of_range::~out_of_range
PUBLIC	??0out_of_range@std@@QAE@ABV01@@Z		; std::out_of_range::out_of_range
;	COMDAT xdata$x
xdata$x	SEGMENT
$T189643 DD	0ffffffffH
	DD	FLAT:$L189639
$T189641 DD	019930520H
	DD	01H
	DD	FLAT:$T189643
	DD	2 DUP(00H)
	DD	2 DUP(00H)
xdata$x	ENDS
;	COMDAT ??_C@_0BM@PAPJHAGI@invalid?5map?1set?$DMT?$DO?5iterator?$AA@
CONST	SEGMENT
??_C@_0BM@PAPJHAGI@invalid?5map?1set?$DMT?$DO?5iterator?$AA@ DB 'invalid '
	DB	'map/set<T> iterator', 00H			; `string'
CONST	ENDS
;	COMDAT __TI3?AVout_of_range@std@@
xdata$x	SEGMENT
__TI3?AVout_of_range@std@@ DD 00H
	DD	FLAT:??1out_of_range@std@@UAE@XZ
	DD	00H
	DD	FLAT:__CTA3?AVout_of_range@std@@
xdata$x	ENDS
;	COMDAT __CTA3?AVout_of_range@std@@
xdata$x	SEGMENT
__CTA3?AVout_of_range@std@@ DD 03H
	DD	FLAT:__CT??_R0?AVout_of_range@std@@@8??0out_of_range@std@@QAE@ABV01@@Z40
	DD	FLAT:__CT??_R0?AVlogic_error@std@@@8??0logic_error@std@@QAE@ABV01@@Z40
	DD	FLAT:__CT??_R0?AVexception@@@8??0exception@@QAE@ABV0@@Z12
xdata$x	ENDS
;	COMDAT __CT??_R0?AVout_of_range@std@@@8??0out_of_range@std@@QAE@ABV01@@Z40
xdata$x	SEGMENT
__CT??_R0?AVout_of_range@std@@@8??0out_of_range@std@@QAE@ABV01@@Z40 DD 00H
	DD	FLAT:??_R0?AVout_of_range@std@@@8
	DD	00H
	DD	0ffffffffH
	ORG $+4
	DD	028H
	DD	FLAT:??0out_of_range@std@@QAE@ABV01@@Z
xdata$x	ENDS
;	COMDAT ??_R0?AVout_of_range@std@@@8
_DATA	SEGMENT
??_R0?AVout_of_range@std@@@8 DD FLAT:??_7type_info@@6B@	; std::out_of_range `RTTI Type Descriptor'
	DD	00H
	DB	'.?AVout_of_range@std@@', 00H
; Function compile flags: /Odt /RTCsu
_DATA	ENDS
;	COMDAT ?erase@?$_Tree@V?$_Tmap_traits@HPAVBaseDialog@@U?$less@H@std@@V?$allocator@U?$pair@$$CBHPAVBaseDialog@@@std@@@3@$0A@@std@@@std@@QAE?AViterator@12@V312@@Z
_TEXT	SEGMENT
tv177 = -108						; size = 4
tv165 = -104						; size = 4
$T189634 = -100						; size = 28
$T189633 = -72						; size = 40
__Pnode$ = -32						; size = 4
__Fixnodeparent$ = -28					; size = 4
__Fixnode$ = -24					; size = 4
__Erasednode$ = -20					; size = 4
_this$ = -16						; size = 4
__$EHRec$ = -12						; size = 12
___$ReturnUdt$ = 8					; size = 4
__Where$ = 12						; size = 4
?erase@?$_Tree@V?$_Tmap_traits@HPAVBaseDialog@@U?$less@H@std@@V?$allocator@U?$pair@$$CBHPAVBaseDialog@@@std@@@3@$0A@@std@@@std@@QAE?AViterator@12@V312@@Z PROC NEAR ; std::_Tree<std::_Tmap_traits<int,BaseDialog *,std::less<int>,std::allocator<std::pair<int const ,BaseDialog *> >,0> >::erase, COMDAT
; _this$ = ecx

; 590  : 		{	// erase element at _Where

  00000	55		 push	 ebp
  00001	8b ec		 mov	 ebp, esp
  00003	6a ff		 push	 -1
  00005	68 00 00 00 00	 push	 __ehhandler$?erase@?$_Tree@V?$_Tmap_traits@HPAVBaseDialog@@U?$less@H@std@@V?$allocator@U?$pair@$$CBHPAVBaseDialog@@@std@@@3@$0A@@std@@@std@@QAE?AViterator@12@V312@@Z
  0000a	64 a1 00 00 00
	00		 mov	 eax, DWORD PTR fs:__except_list
  00010	50		 push	 eax
  00011	64 89 25 00 00
	00 00		 mov	 DWORD PTR fs:__except_list, esp
  00018	83 ec 60	 sub	 esp, 96			; 00000060H
  0001b	56		 push	 esi
  0001c	57		 push	 edi
  0001d	51		 push	 ecx
  0001e	8d 7d 94	 lea	 edi, DWORD PTR [ebp-108]
  00021	b9 18 00 00 00	 mov	 ecx, 24			; 00000018H
  00026	b8 cc cc cc cc	 mov	 eax, -858993460		; ccccccccH
  0002b	f3 ab		 rep stosd
  0002d	59		 pop	 ecx
  0002e	89 4d f0	 mov	 DWORD PTR _this$[ebp], ecx

; 591  : 		if (_Isnil(_Where._Mynode()))

  00031	8d 4d 0c	 lea	 ecx, DWORD PTR __Where$[ebp]
  00034	e8 00 00 00 00	 call	 ?_Mynode@const_iterator@?$_Tree@V?$_Tmap_traits@HPAVBaseDialog@@U?$less@H@std@@V?$allocator@U?$pair@$$CBHPAVBaseDialog@@@std@@@3@$0A@@std@@@std@@QBEPAU_Node@?$_Tree_nod@V?$_Tmap_traits@HPAVBaseDialog@@U?$less@H@std@@V?$allocator@U?$pair@$$CBHPAVBaseDialog@@@std@@@3@$0A@@std@@@3@XZ ; std::_Tree<std::_Tmap_traits<int,BaseDialog *,std::less<int>,std::allocator<std::pair<int const ,BaseDialog *> >,0> >::const_iterator::_Mynode
  00039	50		 push	 eax
  0003a	e8 00 00 00 00	 call	 ?_Isnil@?$_Tree@V?$_Tmap_traits@HPAVBaseDialog@@U?$less@H@std@@V?$allocator@U?$pair@$$CBHPAVBaseDialog@@@std@@@3@$0A@@std@@@std@@KAAADPAU_Node@?$_Tree_nod@V?$_Tmap_traits@HPAVBaseDialog@@U?$less@H@std@@V?$allocator@U?$pair@$$CBHPAVBaseDialog@@@std@@@3@$0A@@std@@@2@@Z ; std::_Tree<std::_Tmap_traits<int,BaseDialog *,std::less<int>,std::allocator<std::pair<int const ,BaseDialog *> >,0> >::_Isnil
  0003f	83 c4 04	 add	 esp, 4
  00042	0f be 00	 movsx	 eax, BYTE PTR [eax]
  00045	85 c0		 test	 eax, eax
  00047	74 38		 je	 SHORT $L188697

; 592  : 			_THROW(out_of_range, "invalid map/set<T> iterator");

  00049	8b f4		 mov	 esi, esp
  0004b	68 00 00 00 00	 push	 OFFSET FLAT:??_C@_0BM@PAPJHAGI@invalid?5map?1set?$DMT?$DO?5iterator?$AA@
  00050	8d 4d 9c	 lea	 ecx, DWORD PTR $T189634[ebp]
  00053	ff 15 00 00 00
	00		 call	 DWORD PTR __imp_??0?$basic_string@DU?$char_traits@D@std@@V?$allocator@D@2@@std@@QAE@PBD@Z
  00059	3b f4		 cmp	 esi, esp
  0005b	e8 00 00 00 00	 call	 __RTC_CheckEsp
  00060	c7 45 fc 00 00
	00 00		 mov	 DWORD PTR __$EHRec$[ebp+8], 0
  00067	8d 4d 9c	 lea	 ecx, DWORD PTR $T189634[ebp]
  0006a	51		 push	 ecx
  0006b	8d 4d b8	 lea	 ecx, DWORD PTR $T189633[ebp]
  0006e	e8 00 00 00 00	 call	 ??0out_of_range@std@@QAE@ABV?$basic_string@DU?$char_traits@D@std@@V?$allocator@D@2@@1@@Z ; std::out_of_range::out_of_range
  00073	68 00 00 00 00	 push	 OFFSET FLAT:__TI3?AVout_of_range@std@@
  00078	8d 55 b8	 lea	 edx, DWORD PTR $T189633[ebp]
  0007b	52		 push	 edx
  0007c	e8 00 00 00 00	 call	 __CxxThrowException@8
$L188697:

; 593  : 		_Nodeptr _Erasednode = _Where._Mynode();	// node to erase

  00081	8d 4d 0c	 lea	 ecx, DWORD PTR __Where$[ebp]
  00084	e8 00 00 00 00	 call	 ?_Mynode@const_iterator@?$_Tree@V?$_Tmap_traits@HPAVBaseDialog@@U?$less@H@std@@V?$allocator@U?$pair@$$CBHPAVBaseDialog@@@std@@@3@$0A@@std@@@std@@QBEPAU_Node@?$_Tree_nod@V?$_Tmap_traits@HPAVBaseDialog@@U?$less@H@std@@V?$allocator@U?$pair@$$CBHPAVBaseDialog@@@std@@@3@$0A@@std@@@3@XZ ; std::_Tree<std::_Tmap_traits<int,BaseDialog *,std::less<int>,std::allocator<std::pair<int const ,BaseDialog *> >,0> >::const_iterator::_Mynode
  00089	89 45 ec	 mov	 DWORD PTR __Erasednode$[ebp], eax

; 594  : 		++_Where;	// save successor iterator for return

  0008c	8d 4d 0c	 lea	 ecx, DWORD PTR __Where$[ebp]
  0008f	e8 00 00 00 00	 call	 ??Eiterator@?$_Tree@V?$_Tmap_traits@HPAVBaseDialog@@U?$less@H@std@@V?$allocator@U?$pair@$$CBHPAVBaseDialog@@@std@@@3@$0A@@std@@@std@@QAEAAV012@XZ ; std::_Tree<std::_Tmap_traits<int,BaseDialog *,std::less<int>,std::allocator<std::pair<int const ,BaseDialog *> >,0> >::iterator::operator++

; 595  : 
; 596  : 		_Nodeptr _Fixnode;	// the node to recolor as needed
; 597  : 		_Nodeptr _Fixnodeparent;	// parent of _Fixnode (which may be nil)
; 598  : 		_Nodeptr _Pnode = _Erasednode;

  00094	8b 45 ec	 mov	 eax, DWORD PTR __Erasednode$[ebp]
  00097	89 45 e0	 mov	 DWORD PTR __Pnode$[ebp], eax

; 599  : 
; 600  : 		if (_Isnil(_Left(_Pnode)))

  0009a	8b 4d e0	 mov	 ecx, DWORD PTR __Pnode$[ebp]
  0009d	51		 push	 ecx
  0009e	e8 00 00 00 00	 call	 ?_Left@?$_Tree@V?$_Tmap_traits@HPAVBaseDialog@@U?$less@H@std@@V?$allocator@U?$pair@$$CBHPAVBaseDialog@@@std@@@3@$0A@@std@@@std@@KAAAPAU_Node@?$_Tree_nod@V?$_Tmap_traits@HPAVBaseDialog@@U?$less@H@std@@V?$allocator@U?$pair@$$CBHPAVBaseDialog@@@std@@@3@$0A@@std@@@2@PAU342@@Z ; std::_Tree<std::_Tmap_traits<int,BaseDialog *,std::less<int>,std::allocator<std::pair<int const ,BaseDialog *> >,0> >::_Left
  000a3	83 c4 04	 add	 esp, 4
  000a6	8b 10		 mov	 edx, DWORD PTR [eax]
  000a8	52		 push	 edx
  000a9	e8 00 00 00 00	 call	 ?_Isnil@?$_Tree@V?$_Tmap_traits@HPAVBaseDialog@@U?$less@H@std@@V?$allocator@U?$pair@$$CBHPAVBaseDialog@@@std@@@3@$0A@@std@@@std@@KAAADPAU_Node@?$_Tree_nod@V?$_Tmap_traits@HPAVBaseDialog@@U?$less@H@std@@V?$allocator@U?$pair@$$CBHPAVBaseDialog@@@std@@@3@$0A@@std@@@2@@Z ; std::_Tree<std::_Tmap_traits<int,BaseDialog *,std::less<int>,std::allocator<std::pair<int const ,BaseDialog *> >,0> >::_Isnil
  000ae	83 c4 04	 add	 esp, 4
  000b1	0f be 00	 movsx	 eax, BYTE PTR [eax]
  000b4	85 c0		 test	 eax, eax
  000b6	74 13		 je	 SHORT $L188705

; 601  : 			_Fixnode = _Right(_Pnode);	// must stitch up right subtree

  000b8	8b 4d e0	 mov	 ecx, DWORD PTR __Pnode$[ebp]
  000bb	51		 push	 ecx
  000bc	e8 00 00 00 00	 call	 ?_Right@?$_Tree@V?$_Tmap_traits@HPAVBaseDialog@@U?$less@H@std@@V?$allocator@U?$pair@$$CBHPAVBaseDialog@@@std@@@3@$0A@@std@@@std@@KAAAPAU_Node@?$_Tree_nod@V?$_Tmap_traits@HPAVBaseDialog@@U?$less@H@std@@V?$allocator@U?$pair@$$CBHPAVBaseDialog@@@std@@@3@$0A@@std@@@2@PAU342@@Z ; std::_Tree<std::_Tmap_traits<int,BaseDialog *,std::less<int>,std::allocator<std::pair<int const ,BaseDialog *> >,0> >::_Right
  000c1	83 c4 04	 add	 esp, 4
  000c4	8b 10		 mov	 edx, DWORD PTR [eax]
  000c6	89 55 e8	 mov	 DWORD PTR __Fixnode$[ebp], edx

; 602  : 		else if (_Isnil(_Right(_Pnode)))

  000c9	eb 4d		 jmp	 SHORT $L188706
$L188705:
  000cb	8b 45 e0	 mov	 eax, DWORD PTR __Pnode$[ebp]
  000ce	50		 push	 eax
  000cf	e8 00 00 00 00	 call	 ?_Right@?$_Tree@V?$_Tmap_traits@HPAVBaseDialog@@U?$less@H@std@@V?$allocator@U?$pair@$$CBHPAVBaseDialog@@@std@@@3@$0A@@std@@@std@@KAAAPAU_Node@?$_Tree_nod@V?$_Tmap_traits@HPAVBaseDialog@@U?$less@H@std@@V?$allocator@U?$pair@$$CBHPAVBaseDialog@@@std@@@3@$0A@@std@@@2@PAU342@@Z ; std::_Tree<std::_Tmap_traits<int,BaseDialog *,std::less<int>,std::allocator<std::pair<int const ,BaseDialog *> >,0> >::_Right
  000d4	83 c4 04	 add	 esp, 4
  000d7	8b 08		 mov	 ecx, DWORD PTR [eax]
  000d9	51		 push	 ecx
  000da	e8 00 00 00 00	 call	 ?_Isnil@?$_Tree@V?$_Tmap_traits@HPAVBaseDialog@@U?$less@H@std@@V?$allocator@U?$pair@$$CBHPAVBaseDialog@@@std@@@3@$0A@@std@@@std@@KAAADPAU_Node@?$_Tree_nod@V?$_Tmap_traits@HPAVBaseDialog@@U?$less@H@std@@V?$allocator@U?$pair@$$CBHPAVBaseDialog@@@std@@@3@$0A@@std@@@2@@Z ; std::_Tree<std::_Tmap_traits<int,BaseDialog *,std::less<int>,std::allocator<std::pair<int const ,BaseDialog *> >,0> >::_Isnil
  000df	83 c4 04	 add	 esp, 4
  000e2	0f be 10	 movsx	 edx, BYTE PTR [eax]
  000e5	85 d2		 test	 edx, edx
  000e7	74 13		 je	 SHORT $L188707

; 603  : 			_Fixnode = _Left(_Pnode);	// must stitch up left subtree

  000e9	8b 45 e0	 mov	 eax, DWORD PTR __Pnode$[ebp]
  000ec	50		 push	 eax
  000ed	e8 00 00 00 00	 call	 ?_Left@?$_Tree@V?$_Tmap_traits@HPAVBaseDialog@@U?$less@H@std@@V?$allocator@U?$pair@$$CBHPAVBaseDialog@@@std@@@3@$0A@@std@@@std@@KAAAPAU_Node@?$_Tree_nod@V?$_Tmap_traits@HPAVBaseDialog@@U?$less@H@std@@V?$allocator@U?$pair@$$CBHPAVBaseDialog@@@std@@@3@$0A@@std@@@2@PAU342@@Z ; std::_Tree<std::_Tmap_traits<int,BaseDialog *,std::less<int>,std::allocator<std::pair<int const ,BaseDialog *> >,0> >::_Left
  000f2	83 c4 04	 add	 esp, 4
  000f5	8b 08		 mov	 ecx, DWORD PTR [eax]
  000f7	89 4d e8	 mov	 DWORD PTR __Fixnode$[ebp], ecx

; 604  : 		else

  000fa	eb 1c		 jmp	 SHORT $L188706
$L188707:

; 605  : 			{	// two subtrees, must lift successor node to replace erased
; 606  : 			_Pnode = _Where._Mynode();	// _Pnode is successor node

  000fc	8d 4d 0c	 lea	 ecx, DWORD PTR __Where$[ebp]
  000ff	e8 00 00 00 00	 call	 ?_Mynode@const_iterator@?$_Tree@V?$_Tmap_traits@HPAVBaseDialog@@U?$less@H@std@@V?$allocator@U?$pair@$$CBHPAVBaseDialog@@@std@@@3@$0A@@std@@@std@@QBEPAU_Node@?$_Tree_nod@V?$_Tmap_traits@HPAVBaseDialog@@U?$less@H@std@@V?$allocator@U?$pair@$$CBHPAVBaseDialog@@@std@@@3@$0A@@std@@@3@XZ ; std::_Tree<std::_Tmap_traits<int,BaseDialog *,std::less<int>,std::allocator<std::pair<int const ,BaseDialog *> >,0> >::const_iterator::_Mynode
  00104	89 45 e0	 mov	 DWORD PTR __Pnode$[ebp], eax

; 607  : 			_Fixnode = _Right(_Pnode);	// _Fixnode is its only subtree

  00107	8b 55 e0	 mov	 edx, DWORD PTR __Pnode$[ebp]
  0010a	52		 push	 edx
  0010b	e8 00 00 00 00	 call	 ?_Right@?$_Tree@V?$_Tmap_traits@HPAVBaseDialog@@U?$less@H@std@@V?$allocator@U?$pair@$$CBHPAVBaseDialog@@@std@@@3@$0A@@std@@@std@@KAAAPAU_Node@?$_Tree_nod@V?$_Tmap_traits@HPAVBaseDialog@@U?$less@H@std@@V?$allocator@U?$pair@$$CBHPAVBaseDialog@@@std@@@3@$0A@@std@@@2@PAU342@@Z ; std::_Tree<std::_Tmap_traits<int,BaseDialog *,std::less<int>,std::allocator<std::pair<int const ,BaseDialog *> >,0> >::_Right
  00110	83 c4 04	 add	 esp, 4
  00113	8b 00		 mov	 eax, DWORD PTR [eax]
  00115	89 45 e8	 mov	 DWORD PTR __Fixnode$[ebp], eax
$L188706:

; 608  : 			}
; 609  : 
; 610  : 		if (_Pnode == _Erasednode)

  00118	8b 4d e0	 mov	 ecx, DWORD PTR __Pnode$[ebp]
  0011b	3b 4d ec	 cmp	 ecx, DWORD PTR __Erasednode$[ebp]
  0011e	0f 85 1b 01 00
	00		 jne	 $L188709

; 611  : 			{	// at most one subtree, relink it
; 612  : 			_Fixnodeparent = _Parent(_Erasednode);

  00124	8b 55 ec	 mov	 edx, DWORD PTR __Erasednode$[ebp]
  00127	52		 push	 edx
  00128	e8 00 00 00 00	 call	 ?_Parent@?$_Tree@V?$_Tmap_traits@HPAVBaseDialog@@U?$less@H@std@@V?$allocator@U?$pair@$$CBHPAVBaseDialog@@@std@@@3@$0A@@std@@@std@@KAAAPAU_Node@?$_Tree_nod@V?$_Tmap_traits@HPAVBaseDialog@@U?$less@H@std@@V?$allocator@U?$pair@$$CBHPAVBaseDialog@@@std@@@3@$0A@@std@@@2@PAU342@@Z ; std::_Tree<std::_Tmap_traits<int,BaseDialog *,std::less<int>,std::allocator<std::pair<int const ,BaseDialog *> >,0> >::_Parent
  0012d	83 c4 04	 add	 esp, 4
  00130	8b 00		 mov	 eax, DWORD PTR [eax]
  00132	89 45 e4	 mov	 DWORD PTR __Fixnodeparent$[ebp], eax

; 613  : 			if (!_Isnil(_Fixnode))

  00135	8b 4d e8	 mov	 ecx, DWORD PTR __Fixnode$[ebp]
  00138	51		 push	 ecx
  00139	e8 00 00 00 00	 call	 ?_Isnil@?$_Tree@V?$_Tmap_traits@HPAVBaseDialog@@U?$less@H@std@@V?$allocator@U?$pair@$$CBHPAVBaseDialog@@@std@@@3@$0A@@std@@@std@@KAAADPAU_Node@?$_Tree_nod@V?$_Tmap_traits@HPAVBaseDialog@@U?$less@H@std@@V?$allocator@U?$pair@$$CBHPAVBaseDialog@@@std@@@3@$0A@@std@@@2@@Z ; std::_Tree<std::_Tmap_traits<int,BaseDialog *,std::less<int>,std::allocator<std::pair<int const ,BaseDialog *> >,0> >::_Isnil
  0013e	83 c4 04	 add	 esp, 4
  00141	0f be 10	 movsx	 edx, BYTE PTR [eax]
  00144	85 d2		 test	 edx, edx
  00146	75 11		 jne	 SHORT $L188710

; 614  : 				_Parent(_Fixnode) = _Fixnodeparent;	// link up

  00148	8b 45 e8	 mov	 eax, DWORD PTR __Fixnode$[ebp]
  0014b	50		 push	 eax
  0014c	e8 00 00 00 00	 call	 ?_Parent@?$_Tree@V?$_Tmap_traits@HPAVBaseDialog@@U?$less@H@std@@V?$allocator@U?$pair@$$CBHPAVBaseDialog@@@std@@@3@$0A@@std@@@std@@KAAAPAU_Node@?$_Tree_nod@V?$_Tmap_traits@HPAVBaseDialog@@U?$less@H@std@@V?$allocator@U?$pair@$$CBHPAVBaseDialog@@@std@@@3@$0A@@std@@@2@PAU342@@Z ; std::_Tree<std::_Tmap_traits<int,BaseDialog *,std::less<int>,std::allocator<std::pair<int const ,BaseDialog *> >,0> >::_Parent
  00151	83 c4 04	 add	 esp, 4
  00154	8b 4d e4	 mov	 ecx, DWORD PTR __Fixnodeparent$[ebp]
  00157	89 08		 mov	 DWORD PTR [eax], ecx
$L188710:

; 615  : 
; 616  : 			if (_Root() == _Erasednode)

  00159	8b 4d f0	 mov	 ecx, DWORD PTR _this$[ebp]
  0015c	e8 00 00 00 00	 call	 ?_Root@?$_Tree@V?$_Tmap_traits@HPAVBaseDialog@@U?$less@H@std@@V?$allocator@U?$pair@$$CBHPAVBaseDialog@@@std@@@3@$0A@@std@@@std@@IAEAAPAU_Node@?$_Tree_nod@V?$_Tmap_traits@HPAVBaseDialog@@U?$less@H@std@@V?$allocator@U?$pair@$$CBHPAVBaseDialog@@@std@@@3@$0A@@std@@@2@XZ ; std::_Tree<std::_Tmap_traits<int,BaseDialog *,std::less<int>,std::allocator<std::pair<int const ,BaseDialog *> >,0> >::_Root
  00161	8b 10		 mov	 edx, DWORD PTR [eax]
  00163	3b 55 ec	 cmp	 edx, DWORD PTR __Erasednode$[ebp]
  00166	75 0f		 jne	 SHORT $L188711

; 617  : 				_Root() = _Fixnode;	// link down from root

  00168	8b 4d f0	 mov	 ecx, DWORD PTR _this$[ebp]
  0016b	e8 00 00 00 00	 call	 ?_Root@?$_Tree@V?$_Tmap_traits@HPAVBaseDialog@@U?$less@H@std@@V?$allocator@U?$pair@$$CBHPAVBaseDialog@@@std@@@3@$0A@@std@@@std@@IAEAAPAU_Node@?$_Tree_nod@V?$_Tmap_traits@HPAVBaseDialog@@U?$less@H@std@@V?$allocator@U?$pair@$$CBHPAVBaseDialog@@@std@@@3@$0A@@std@@@2@XZ ; std::_Tree<std::_Tmap_traits<int,BaseDialog *,std::less<int>,std::allocator<std::pair<int const ,BaseDialog *> >,0> >::_Root
  00170	8b 4d e8	 mov	 ecx, DWORD PTR __Fixnode$[ebp]
  00173	89 08		 mov	 DWORD PTR [eax], ecx

; 618  : 			else if (_Left(_Fixnodeparent) == _Erasednode)

  00175	eb 37		 jmp	 SHORT $L188712
$L188711:
  00177	8b 55 e4	 mov	 edx, DWORD PTR __Fixnodeparent$[ebp]
  0017a	52		 push	 edx
  0017b	e8 00 00 00 00	 call	 ?_Left@?$_Tree@V?$_Tmap_traits@HPAVBaseDialog@@U?$less@H@std@@V?$allocator@U?$pair@$$CBHPAVBaseDialog@@@std@@@3@$0A@@std@@@std@@KAAAPAU_Node@?$_Tree_nod@V?$_Tmap_traits@HPAVBaseDialog@@U?$less@H@std@@V?$allocator@U?$pair@$$CBHPAVBaseDialog@@@std@@@3@$0A@@std@@@2@PAU342@@Z ; std::_Tree<std::_Tmap_traits<int,BaseDialog *,std::less<int>,std::allocator<std::pair<int const ,BaseDialog *> >,0> >::_Left
  00180	83 c4 04	 add	 esp, 4
  00183	8b 00		 mov	 eax, DWORD PTR [eax]
  00185	3b 45 ec	 cmp	 eax, DWORD PTR __Erasednode$[ebp]
  00188	75 13		 jne	 SHORT $L188713

; 619  : 				_Left(_Fixnodeparent) = _Fixnode;	// link down to left

  0018a	8b 4d e4	 mov	 ecx, DWORD PTR __Fixnodeparent$[ebp]
  0018d	51		 push	 ecx
  0018e	e8 00 00 00 00	 call	 ?_Left@?$_Tree@V?$_Tmap_traits@HPAVBaseDialog@@U?$less@H@std@@V?$allocator@U?$pair@$$CBHPAVBaseDialog@@@std@@@3@$0A@@std@@@std@@KAAAPAU_Node@?$_Tree_nod@V?$_Tmap_traits@HPAVBaseDialog@@U?$less@H@std@@V?$allocator@U?$pair@$$CBHPAVBaseDialog@@@std@@@3@$0A@@std@@@2@PAU342@@Z ; std::_Tree<std::_Tmap_traits<int,BaseDialog *,std::less<int>,std::allocator<std::pair<int const ,BaseDialog *> >,0> >::_Left
  00193	83 c4 04	 add	 esp, 4
  00196	8b 55 e8	 mov	 edx, DWORD PTR __Fixnode$[ebp]
  00199	89 10		 mov	 DWORD PTR [eax], edx

; 620  : 			else

  0019b	eb 11		 jmp	 SHORT $L188712
$L188713:

; 621  : 				_Right(_Fixnodeparent) = _Fixnode;	// link down to right

  0019d	8b 45 e4	 mov	 eax, DWORD PTR __Fixnodeparent$[ebp]
  001a0	50		 push	 eax
  001a1	e8 00 00 00 00	 call	 ?_Right@?$_Tree@V?$_Tmap_traits@HPAVBaseDialog@@U?$less@H@std@@V?$allocator@U?$pair@$$CBHPAVBaseDialog@@@std@@@3@$0A@@std@@@std@@KAAAPAU_Node@?$_Tree_nod@V?$_Tmap_traits@HPAVBaseDialog@@U?$less@H@std@@V?$allocator@U?$pair@$$CBHPAVBaseDialog@@@std@@@3@$0A@@std@@@2@PAU342@@Z ; std::_Tree<std::_Tmap_traits<int,BaseDialog *,std::less<int>,std::allocator<std::pair<int const ,BaseDialog *> >,0> >::_Right
  001a6	83 c4 04	 add	 esp, 4
  001a9	8b 4d e8	 mov	 ecx, DWORD PTR __Fixnode$[ebp]
  001ac	89 08		 mov	 DWORD PTR [eax], ecx
$L188712:

; 622  : 
; 623  : 			if (_Lmost() == _Erasednode)

  001ae	8b 4d f0	 mov	 ecx, DWORD PTR _this$[ebp]
  001b1	e8 00 00 00 00	 call	 ?_Lmost@?$_Tree@V?$_Tmap_traits@HPAVBaseDialog@@U?$less@H@std@@V?$allocator@U?$pair@$$CBHPAVBaseDialog@@@std@@@3@$0A@@std@@@std@@IAEAAPAU_Node@?$_Tree_nod@V?$_Tmap_traits@HPAVBaseDialog@@U?$less@H@std@@V?$allocator@U?$pair@$$CBHPAVBaseDialog@@@std@@@3@$0A@@std@@@2@XZ ; std::_Tree<std::_Tmap_traits<int,BaseDialog *,std::less<int>,std::allocator<std::pair<int const ,BaseDialog *> >,0> >::_Lmost
  001b6	8b 10		 mov	 edx, DWORD PTR [eax]
  001b8	3b 55 ec	 cmp	 edx, DWORD PTR __Erasednode$[ebp]
  001bb	75 37		 jne	 SHORT $L188715

; 624  : 				_Lmost() = _Isnil(_Fixnode)
; 625  : 					? _Fixnodeparent	// smallest is parent of erased node
; 626  : 					: _Min(_Fixnode);	// smallest in relinked subtree

  001bd	8b 45 e8	 mov	 eax, DWORD PTR __Fixnode$[ebp]
  001c0	50		 push	 eax
  001c1	e8 00 00 00 00	 call	 ?_Isnil@?$_Tree@V?$_Tmap_traits@HPAVBaseDialog@@U?$less@H@std@@V?$allocator@U?$pair@$$CBHPAVBaseDialog@@@std@@@3@$0A@@std@@@std@@KAAADPAU_Node@?$_Tree_nod@V?$_Tmap_traits@HPAVBaseDialog@@U?$less@H@std@@V?$allocator@U?$pair@$$CBHPAVBaseDialog@@@std@@@3@$0A@@std@@@2@@Z ; std::_Tree<std::_Tmap_traits<int,BaseDialog *,std::less<int>,std::allocator<std::pair<int const ,BaseDialog *> >,0> >::_Isnil
  001c6	83 c4 04	 add	 esp, 4
  001c9	0f be 08	 movsx	 ecx, BYTE PTR [eax]
  001cc	85 c9		 test	 ecx, ecx
  001ce	74 08		 je	 SHORT $L189635
  001d0	8b 55 e4	 mov	 edx, DWORD PTR __Fixnodeparent$[ebp]
  001d3	89 55 98	 mov	 DWORD PTR tv165[ebp], edx
  001d6	eb 0f		 jmp	 SHORT $L189636
$L189635:
  001d8	8b 45 e8	 mov	 eax, DWORD PTR __Fixnode$[ebp]
  001db	50		 push	 eax
  001dc	e8 00 00 00 00	 call	 ?_Min@?$_Tree@V?$_Tmap_traits@HPAVBaseDialog@@U?$less@H@std@@V?$allocator@U?$pair@$$CBHPAVBaseDialog@@@std@@@3@$0A@@std@@@std@@KAPAU_Node@?$_Tree_nod@V?$_Tmap_traits@HPAVBaseDialog@@U?$less@H@std@@V?$allocator@U?$pair@$$CBHPAVBaseDialog@@@std@@@3@$0A@@std@@@2@PAU342@@Z ; std::_Tree<std::_Tmap_traits<int,BaseDialog *,std::less<int>,std::allocator<std::pair<int const ,BaseDialog *> >,0> >::_Min
  001e1	83 c4 04	 add	 esp, 4
  001e4	89 45 98	 mov	 DWORD PTR tv165[ebp], eax
$L189636:
  001e7	8b 4d f0	 mov	 ecx, DWORD PTR _this$[ebp]
  001ea	e8 00 00 00 00	 call	 ?_Lmost@?$_Tree@V?$_Tmap_traits@HPAVBaseDialog@@U?$less@H@std@@V?$allocator@U?$pair@$$CBHPAVBaseDialog@@@std@@@3@$0A@@std@@@std@@IAEAAPAU_Node@?$_Tree_nod@V?$_Tmap_traits@HPAVBaseDialog@@U?$less@H@std@@V?$allocator@U?$pair@$$CBHPAVBaseDialog@@@std@@@3@$0A@@std@@@2@XZ ; std::_Tree<std::_Tmap_traits<int,BaseDialog *,std::less<int>,std::allocator<std::pair<int const ,BaseDialog *> >,0> >::_Lmost
  001ef	8b 4d 98	 mov	 ecx, DWORD PTR tv165[ebp]
  001f2	89 08		 mov	 DWORD PTR [eax], ecx
$L188715:

; 627  : 
; 628  : 			if (_Rmost() == _Erasednode)

  001f4	8b 4d f0	 mov	 ecx, DWORD PTR _this$[ebp]
  001f7	e8 00 00 00 00	 call	 ?_Rmost@?$_Tree@V?$_Tmap_traits@HPAVBaseDialog@@U?$less@H@std@@V?$allocator@U?$pair@$$CBHPAVBaseDialog@@@std@@@3@$0A@@std@@@std@@IAEAAPAU_Node@?$_Tree_nod@V?$_Tmap_traits@HPAVBaseDialog@@U?$less@H@std@@V?$allocator@U?$pair@$$CBHPAVBaseDialog@@@std@@@3@$0A@@std@@@2@XZ ; std::_Tree<std::_Tmap_traits<int,BaseDialog *,std::less<int>,std::allocator<std::pair<int const ,BaseDialog *> >,0> >::_Rmost
  001fc	8b 10		 mov	 edx, DWORD PTR [eax]
  001fe	3b 55 ec	 cmp	 edx, DWORD PTR __Erasednode$[ebp]
  00201	75 37		 jne	 SHORT $L188716

; 629  : 				_Rmost() = _Isnil(_Fixnode)
; 630  : 					? _Fixnodeparent	// largest is parent of erased node
; 631  : 					: _Max(_Fixnode);	// largest in relinked subtree

  00203	8b 45 e8	 mov	 eax, DWORD PTR __Fixnode$[ebp]
  00206	50		 push	 eax
  00207	e8 00 00 00 00	 call	 ?_Isnil@?$_Tree@V?$_Tmap_traits@HPAVBaseDialog@@U?$less@H@std@@V?$allocator@U?$pair@$$CBHPAVBaseDialog@@@std@@@3@$0A@@std@@@std@@KAAADPAU_Node@?$_Tree_nod@V?$_Tmap_traits@HPAVBaseDialog@@U?$less@H@std@@V?$allocator@U?$pair@$$CBHPAVBaseDialog@@@std@@@3@$0A@@std@@@2@@Z ; std::_Tree<std::_Tmap_traits<int,BaseDialog *,std::less<int>,std::allocator<std::pair<int const ,BaseDialog *> >,0> >::_Isnil
  0020c	83 c4 04	 add	 esp, 4
  0020f	0f be 08	 movsx	 ecx, BYTE PTR [eax]
  00212	85 c9		 test	 ecx, ecx
  00214	74 08		 je	 SHORT $L189637
  00216	8b 55 e4	 mov	 edx, DWORD PTR __Fixnodeparent$[ebp]
  00219	89 55 94	 mov	 DWORD PTR tv177[ebp], edx
  0021c	eb 0f		 jmp	 SHORT $L189638
$L189637:
  0021e	8b 45 e8	 mov	 eax, DWORD PTR __Fixnode$[ebp]
  00221	50		 push	 eax
  00222	e8 00 00 00 00	 call	 ?_Max@?$_Tree@V?$_Tmap_traits@HPAVBaseDialog@@U?$less@H@std@@V?$allocator@U?$pair@$$CBHPAVBaseDialog@@@std@@@3@$0A@@std@@@std@@KAPAU_Node@?$_Tree_nod@V?$_Tmap_traits@HPAVBaseDialog@@U?$less@H@std@@V?$allocator@U?$pair@$$CBHPAVBaseDialog@@@std@@@3@$0A@@std@@@2@PAU342@@Z ; std::_Tree<std::_Tmap_traits<int,BaseDialog *,std::less<int>,std::allocator<std::pair<int const ,BaseDialog *> >,0> >::_Max
  00227	83 c4 04	 add	 esp, 4
  0022a	89 45 94	 mov	 DWORD PTR tv177[ebp], eax
$L189638:
  0022d	8b 4d f0	 mov	 ecx, DWORD PTR _this$[ebp]
  00230	e8 00 00 00 00	 call	 ?_Rmost@?$_Tree@V?$_Tmap_traits@HPAVBaseDialog@@U?$less@H@std@@V?$allocator@U?$pair@$$CBHPAVBaseDialog@@@std@@@3@$0A@@std@@@std@@IAEAAPAU_Node@?$_Tree_nod@V?$_Tmap_traits@HPAVBaseDialog@@U?$less@H@std@@V?$allocator@U?$pair@$$CBHPAVBaseDialog@@@std@@@3@$0A@@std@@@2@XZ ; std::_Tree<std::_Tmap_traits<int,BaseDialog *,std::less<int>,std::allocator<std::pair<int const ,BaseDialog *> >,0> >::_Rmost
  00235	8b 4d 94	 mov	 ecx, DWORD PTR tv177[ebp]
  00238	89 08		 mov	 DWORD PTR [eax], ecx
$L188716:

; 632  : 			}
; 633  : 		else

  0023a	e9 8e 01 00 00	 jmp	 $L188717
$L188709:

; 634  : 			{	// erased has two subtrees, _Pnode is successor to erased
; 635  : 			_Parent(_Left(_Erasednode)) = _Pnode;	// link left up

  0023f	8b 55 ec	 mov	 edx, DWORD PTR __Erasednode$[ebp]
  00242	52		 push	 edx
  00243	e8 00 00 00 00	 call	 ?_Left@?$_Tree@V?$_Tmap_traits@HPAVBaseDialog@@U?$less@H@std@@V?$allocator@U?$pair@$$CBHPAVBaseDialog@@@std@@@3@$0A@@std@@@std@@KAAAPAU_Node@?$_Tree_nod@V?$_Tmap_traits@HPAVBaseDialog@@U?$less@H@std@@V?$allocator@U?$pair@$$CBHPAVBaseDialog@@@std@@@3@$0A@@std@@@2@PAU342@@Z ; std::_Tree<std::_Tmap_traits<int,BaseDialog *,std::less<int>,std::allocator<std::pair<int const ,BaseDialog *> >,0> >::_Left
  00248	83 c4 04	 add	 esp, 4
  0024b	8b 00		 mov	 eax, DWORD PTR [eax]
  0024d	50		 push	 eax
  0024e	e8 00 00 00 00	 call	 ?_Parent@?$_Tree@V?$_Tmap_traits@HPAVBaseDialog@@U?$less@H@std@@V?$allocator@U?$pair@$$CBHPAVBaseDialog@@@std@@@3@$0A@@std@@@std@@KAAAPAU_Node@?$_Tree_nod@V?$_Tmap_traits@HPAVBaseDialog@@U?$less@H@std@@V?$allocator@U?$pair@$$CBHPAVBaseDialog@@@std@@@3@$0A@@std@@@2@PAU342@@Z ; std::_Tree<std::_Tmap_traits<int,BaseDialog *,std::less<int>,std::allocator<std::pair<int const ,BaseDialog *> >,0> >::_Parent
  00253	83 c4 04	 add	 esp, 4
  00256	8b 4d e0	 mov	 ecx, DWORD PTR __Pnode$[ebp]
  00259	89 08		 mov	 DWORD PTR [eax], ecx

; 636  : 			_Left(_Pnode) = _Left(_Erasednode);	// link successor down

  0025b	8b 55 ec	 mov	 edx, DWORD PTR __Erasednode$[ebp]
  0025e	52		 push	 edx
  0025f	e8 00 00 00 00	 call	 ?_Left@?$_Tree@V?$_Tmap_traits@HPAVBaseDialog@@U?$less@H@std@@V?$allocator@U?$pair@$$CBHPAVBaseDialog@@@std@@@3@$0A@@std@@@std@@KAAAPAU_Node@?$_Tree_nod@V?$_Tmap_traits@HPAVBaseDialog@@U?$less@H@std@@V?$allocator@U?$pair@$$CBHPAVBaseDialog@@@std@@@3@$0A@@std@@@2@PAU342@@Z ; std::_Tree<std::_Tmap_traits<int,BaseDialog *,std::less<int>,std::allocator<std::pair<int const ,BaseDialog *> >,0> >::_Left
  00264	83 c4 04	 add	 esp, 4
  00267	8b f0		 mov	 esi, eax
  00269	8b 45 e0	 mov	 eax, DWORD PTR __Pnode$[ebp]
  0026c	50		 push	 eax
  0026d	e8 00 00 00 00	 call	 ?_Left@?$_Tree@V?$_Tmap_traits@HPAVBaseDialog@@U?$less@H@std@@V?$allocator@U?$pair@$$CBHPAVBaseDialog@@@std@@@3@$0A@@std@@@std@@KAAAPAU_Node@?$_Tree_nod@V?$_Tmap_traits@HPAVBaseDialog@@U?$less@H@std@@V?$allocator@U?$pair@$$CBHPAVBaseDialog@@@std@@@3@$0A@@std@@@2@PAU342@@Z ; std::_Tree<std::_Tmap_traits<int,BaseDialog *,std::less<int>,std::allocator<std::pair<int const ,BaseDialog *> >,0> >::_Left
  00272	83 c4 04	 add	 esp, 4
  00275	8b 0e		 mov	 ecx, DWORD PTR [esi]
  00277	89 08		 mov	 DWORD PTR [eax], ecx

; 637  : 
; 638  : 			if (_Pnode == _Right(_Erasednode))

  00279	8b 55 ec	 mov	 edx, DWORD PTR __Erasednode$[ebp]
  0027c	52		 push	 edx
  0027d	e8 00 00 00 00	 call	 ?_Right@?$_Tree@V?$_Tmap_traits@HPAVBaseDialog@@U?$less@H@std@@V?$allocator@U?$pair@$$CBHPAVBaseDialog@@@std@@@3@$0A@@std@@@std@@KAAAPAU_Node@?$_Tree_nod@V?$_Tmap_traits@HPAVBaseDialog@@U?$less@H@std@@V?$allocator@U?$pair@$$CBHPAVBaseDialog@@@std@@@3@$0A@@std@@@2@PAU342@@Z ; std::_Tree<std::_Tmap_traits<int,BaseDialog *,std::less<int>,std::allocator<std::pair<int const ,BaseDialog *> >,0> >::_Right
  00282	83 c4 04	 add	 esp, 4
  00285	8b 4d e0	 mov	 ecx, DWORD PTR __Pnode$[ebp]
  00288	3b 08		 cmp	 ecx, DWORD PTR [eax]
  0028a	75 0b		 jne	 SHORT $L188718

; 639  : 				_Fixnodeparent = _Pnode;	// successor is next to erased

  0028c	8b 55 e0	 mov	 edx, DWORD PTR __Pnode$[ebp]
  0028f	89 55 e4	 mov	 DWORD PTR __Fixnodeparent$[ebp], edx

; 640  : 			else

  00292	e9 80 00 00 00	 jmp	 $L188719
$L188718:

; 641  : 				{	// successor further down, link in place of erased
; 642  : 				_Fixnodeparent = _Parent(_Pnode);	// parent is successor's

  00297	8b 45 e0	 mov	 eax, DWORD PTR __Pnode$[ebp]
  0029a	50		 push	 eax
  0029b	e8 00 00 00 00	 call	 ?_Parent@?$_Tree@V?$_Tmap_traits@HPAVBaseDialog@@U?$less@H@std@@V?$allocator@U?$pair@$$CBHPAVBaseDialog@@@std@@@3@$0A@@std@@@std@@KAAAPAU_Node@?$_Tree_nod@V?$_Tmap_traits@HPAVBaseDialog@@U?$less@H@std@@V?$allocator@U?$pair@$$CBHPAVBaseDialog@@@std@@@3@$0A@@std@@@2@PAU342@@Z ; std::_Tree<std::_Tmap_traits<int,BaseDialog *,std::less<int>,std::allocator<std::pair<int const ,BaseDialog *> >,0> >::_Parent
  002a0	83 c4 04	 add	 esp, 4
  002a3	8b 08		 mov	 ecx, DWORD PTR [eax]
  002a5	89 4d e4	 mov	 DWORD PTR __Fixnodeparent$[ebp], ecx

; 643  : 				if (!_Isnil(_Fixnode))

  002a8	8b 55 e8	 mov	 edx, DWORD PTR __Fixnode$[ebp]
  002ab	52		 push	 edx
  002ac	e8 00 00 00 00	 call	 ?_Isnil@?$_Tree@V?$_Tmap_traits@HPAVBaseDialog@@U?$less@H@std@@V?$allocator@U?$pair@$$CBHPAVBaseDialog@@@std@@@3@$0A@@std@@@std@@KAAADPAU_Node@?$_Tree_nod@V?$_Tmap_traits@HPAVBaseDialog@@U?$less@H@std@@V?$allocator@U?$pair@$$CBHPAVBaseDialog@@@std@@@3@$0A@@std@@@2@@Z ; std::_Tree<std::_Tmap_traits<int,BaseDialog *,std::less<int>,std::allocator<std::pair<int const ,BaseDialog *> >,0> >::_Isnil
  002b1	83 c4 04	 add	 esp, 4
  002b4	0f be 00	 movsx	 eax, BYTE PTR [eax]
  002b7	85 c0		 test	 eax, eax
  002b9	75 11		 jne	 SHORT $L188720

; 644  : 					_Parent(_Fixnode) = _Fixnodeparent;	// link fix up

  002bb	8b 4d e8	 mov	 ecx, DWORD PTR __Fixnode$[ebp]
  002be	51		 push	 ecx
  002bf	e8 00 00 00 00	 call	 ?_Parent@?$_Tree@V?$_Tmap_traits@HPAVBaseDialog@@U?$less@H@std@@V?$allocator@U?$pair@$$CBHPAVBaseDialog@@@std@@@3@$0A@@std@@@std@@KAAAPAU_Node@?$_Tree_nod@V?$_Tmap_traits@HPAVBaseDialog@@U?$less@H@std@@V?$allocator@U?$pair@$$CBHPAVBaseDialog@@@std@@@3@$0A@@std@@@2@PAU342@@Z ; std::_Tree<std::_Tmap_traits<int,BaseDialog *,std::less<int>,std::allocator<std::pair<int const ,BaseDialog *> >,0> >::_Parent
  002c4	83 c4 04	 add	 esp, 4
  002c7	8b 55 e4	 mov	 edx, DWORD PTR __Fixnodeparent$[ebp]
  002ca	89 10		 mov	 DWORD PTR [eax], edx
$L188720:

; 645  : 				_Left(_Fixnodeparent) = _Fixnode;	// link fix down

  002cc	8b 45 e4	 mov	 eax, DWORD PTR __Fixnodeparent$[ebp]
  002cf	50		 push	 eax
  002d0	e8 00 00 00 00	 call	 ?_Left@?$_Tree@V?$_Tmap_traits@HPAVBaseDialog@@U?$less@H@std@@V?$allocator@U?$pair@$$CBHPAVBaseDialog@@@std@@@3@$0A@@std@@@std@@KAAAPAU_Node@?$_Tree_nod@V?$_Tmap_traits@HPAVBaseDialog@@U?$less@H@std@@V?$allocator@U?$pair@$$CBHPAVBaseDialog@@@std@@@3@$0A@@std@@@2@PAU342@@Z ; std::_Tree<std::_Tmap_traits<int,BaseDialog *,std::less<int>,std::allocator<std::pair<int const ,BaseDialog *> >,0> >::_Left
  002d5	83 c4 04	 add	 esp, 4
  002d8	8b 4d e8	 mov	 ecx, DWORD PTR __Fixnode$[ebp]
  002db	89 08		 mov	 DWORD PTR [eax], ecx

; 646  : 				_Right(_Pnode) = _Right(_Erasednode);	// link successor down

  002dd	8b 55 ec	 mov	 edx, DWORD PTR __Erasednode$[ebp]
  002e0	52		 push	 edx
  002e1	e8 00 00 00 00	 call	 ?_Right@?$_Tree@V?$_Tmap_traits@HPAVBaseDialog@@U?$less@H@std@@V?$allocator@U?$pair@$$CBHPAVBaseDialog@@@std@@@3@$0A@@std@@@std@@KAAAPAU_Node@?$_Tree_nod@V?$_Tmap_traits@HPAVBaseDialog@@U?$less@H@std@@V?$allocator@U?$pair@$$CBHPAVBaseDialog@@@std@@@3@$0A@@std@@@2@PAU342@@Z ; std::_Tree<std::_Tmap_traits<int,BaseDialog *,std::less<int>,std::allocator<std::pair<int const ,BaseDialog *> >,0> >::_Right
  002e6	83 c4 04	 add	 esp, 4
  002e9	8b f0		 mov	 esi, eax
  002eb	8b 45 e0	 mov	 eax, DWORD PTR __Pnode$[ebp]
  002ee	50		 push	 eax
  002ef	e8 00 00 00 00	 call	 ?_Right@?$_Tree@V?$_Tmap_traits@HPAVBaseDialog@@U?$less@H@std@@V?$allocator@U?$pair@$$CBHPAVBaseDialog@@@std@@@3@$0A@@std@@@std@@KAAAPAU_Node@?$_Tree_nod@V?$_Tmap_traits@HPAVBaseDialog@@U?$less@H@std@@V?$allocator@U?$pair@$$CBHPAVBaseDialog@@@std@@@3@$0A@@std@@@2@PAU342@@Z ; std::_Tree<std::_Tmap_traits<int,BaseDialog *,std::less<int>,std::allocator<std::pair<int const ,BaseDialog *> >,0> >::_Right
  002f4	83 c4 04	 add	 esp, 4
  002f7	8b 0e		 mov	 ecx, DWORD PTR [esi]
  002f9	89 08		 mov	 DWORD PTR [eax], ecx

; 647  : 				_Parent(_Right(_Erasednode)) = _Pnode;	// link right up

  002fb	8b 55 ec	 mov	 edx, DWORD PTR __Erasednode$[ebp]
  002fe	52		 push	 edx
  002ff	e8 00 00 00 00	 call	 ?_Right@?$_Tree@V?$_Tmap_traits@HPAVBaseDialog@@U?$less@H@std@@V?$allocator@U?$pair@$$CBHPAVBaseDialog@@@std@@@3@$0A@@std@@@std@@KAAAPAU_Node@?$_Tree_nod@V?$_Tmap_traits@HPAVBaseDialog@@U?$less@H@std@@V?$allocator@U?$pair@$$CBHPAVBaseDialog@@@std@@@3@$0A@@std@@@2@PAU342@@Z ; std::_Tree<std::_Tmap_traits<int,BaseDialog *,std::less<int>,std::allocator<std::pair<int const ,BaseDialog *> >,0> >::_Right
  00304	83 c4 04	 add	 esp, 4
  00307	8b 00		 mov	 eax, DWORD PTR [eax]
  00309	50		 push	 eax
  0030a	e8 00 00 00 00	 call	 ?_Parent@?$_Tree@V?$_Tmap_traits@HPAVBaseDialog@@U?$less@H@std@@V?$allocator@U?$pair@$$CBHPAVBaseDialog@@@std@@@3@$0A@@std@@@std@@KAAAPAU_Node@?$_Tree_nod@V?$_Tmap_traits@HPAVBaseDialog@@U?$less@H@std@@V?$allocator@U?$pair@$$CBHPAVBaseDialog@@@std@@@3@$0A@@std@@@2@PAU342@@Z ; std::_Tree<std::_Tmap_traits<int,BaseDialog *,std::less<int>,std::allocator<std::pair<int const ,BaseDialog *> >,0> >::_Parent
  0030f	83 c4 04	 add	 esp, 4
  00312	8b 4d e0	 mov	 ecx, DWORD PTR __Pnode$[ebp]
  00315	89 08		 mov	 DWORD PTR [eax], ecx
$L188719:

; 648  : 				}
; 649  : 
; 650  : 			if (_Root() == _Erasednode)

  00317	8b 4d f0	 mov	 ecx, DWORD PTR _this$[ebp]
  0031a	e8 00 00 00 00	 call	 ?_Root@?$_Tree@V?$_Tmap_traits@HPAVBaseDialog@@U?$less@H@std@@V?$allocator@U?$pair@$$CBHPAVBaseDialog@@@std@@@3@$0A@@std@@@std@@IAEAAPAU_Node@?$_Tree_nod@V?$_Tmap_traits@HPAVBaseDialog@@U?$less@H@std@@V?$allocator@U?$pair@$$CBHPAVBaseDialog@@@std@@@3@$0A@@std@@@2@XZ ; std::_Tree<std::_Tmap_traits<int,BaseDialog *,std::less<int>,std::allocator<std::pair<int const ,BaseDialog *> >,0> >::_Root
  0031f	8b 10		 mov	 edx, DWORD PTR [eax]
  00321	3b 55 ec	 cmp	 edx, DWORD PTR __Erasednode$[ebp]
  00324	75 0f		 jne	 SHORT $L188721

; 651  : 				_Root() = _Pnode;	// link down from root

  00326	8b 4d f0	 mov	 ecx, DWORD PTR _this$[ebp]
  00329	e8 00 00 00 00	 call	 ?_Root@?$_Tree@V?$_Tmap_traits@HPAVBaseDialog@@U?$less@H@std@@V?$allocator@U?$pair@$$CBHPAVBaseDialog@@@std@@@3@$0A@@std@@@std@@IAEAAPAU_Node@?$_Tree_nod@V?$_Tmap_traits@HPAVBaseDialog@@U?$less@H@std@@V?$allocator@U?$pair@$$CBHPAVBaseDialog@@@std@@@3@$0A@@std@@@2@XZ ; std::_Tree<std::_Tmap_traits<int,BaseDialog *,std::less<int>,std::allocator<std::pair<int const ,BaseDialog *> >,0> >::_Root
  0032e	8b 4d e0	 mov	 ecx, DWORD PTR __Pnode$[ebp]
  00331	89 08		 mov	 DWORD PTR [eax], ecx

; 652  : 			else if (_Left(_Parent(_Erasednode)) == _Erasednode)

  00333	eb 58		 jmp	 SHORT $L188722
$L188721:
  00335	8b 55 ec	 mov	 edx, DWORD PTR __Erasednode$[ebp]
  00338	52		 push	 edx
  00339	e8 00 00 00 00	 call	 ?_Parent@?$_Tree@V?$_Tmap_traits@HPAVBaseDialog@@U?$less@H@std@@V?$allocator@U?$pair@$$CBHPAVBaseDialog@@@std@@@3@$0A@@std@@@std@@KAAAPAU_Node@?$_Tree_nod@V?$_Tmap_traits@HPAVBaseDialog@@U?$less@H@std@@V?$allocator@U?$pair@$$CBHPAVBaseDialog@@@std@@@3@$0A@@std@@@2@PAU342@@Z ; std::_Tree<std::_Tmap_traits<int,BaseDialog *,std::less<int>,std::allocator<std::pair<int const ,BaseDialog *> >,0> >::_Parent
  0033e	83 c4 04	 add	 esp, 4
  00341	8b 00		 mov	 eax, DWORD PTR [eax]
  00343	50		 push	 eax
  00344	e8 00 00 00 00	 call	 ?_Left@?$_Tree@V?$_Tmap_traits@HPAVBaseDialog@@U?$less@H@std@@V?$allocator@U?$pair@$$CBHPAVBaseDialog@@@std@@@3@$0A@@std@@@std@@KAAAPAU_Node@?$_Tree_nod@V?$_Tmap_traits@HPAVBaseDialog@@U?$less@H@std@@V?$allocator@U?$pair@$$CBHPAVBaseDialog@@@std@@@3@$0A@@std@@@2@PAU342@@Z ; std::_Tree<std::_Tmap_traits<int,BaseDialog *,std::less<int>,std::allocator<std::pair<int const ,BaseDialog *> >,0> >::_Left
  00349	83 c4 04	 add	 esp, 4
  0034c	8b 08		 mov	 ecx, DWORD PTR [eax]
  0034e	3b 4d ec	 cmp	 ecx, DWORD PTR __Erasednode$[ebp]
  00351	75 1e		 jne	 SHORT $L188723

; 653  : 				_Left(_Parent(_Erasednode)) = _Pnode;	// link down to left

  00353	8b 55 ec	 mov	 edx, DWORD PTR __Erasednode$[ebp]
  00356	52		 push	 edx
  00357	e8 00 00 00 00	 call	 ?_Parent@?$_Tree@V?$_Tmap_traits@HPAVBaseDialog@@U?$less@H@std@@V?$allocator@U?$pair@$$CBHPAVBaseDialog@@@std@@@3@$0A@@std@@@std@@KAAAPAU_Node@?$_Tree_nod@V?$_Tmap_traits@HPAVBaseDialog@@U?$less@H@std@@V?$allocator@U?$pair@$$CBHPAVBaseDialog@@@std@@@3@$0A@@std@@@2@PAU342@@Z ; std::_Tree<std::_Tmap_traits<int,BaseDialog *,std::less<int>,std::allocator<std::pair<int const ,BaseDialog *> >,0> >::_Parent
  0035c	83 c4 04	 add	 esp, 4
  0035f	8b 00		 mov	 eax, DWORD PTR [eax]
  00361	50		 push	 eax
  00362	e8 00 00 00 00	 call	 ?_Left@?$_Tree@V?$_Tmap_traits@HPAVBaseDialog@@U?$less@H@std@@V?$allocator@U?$pair@$$CBHPAVBaseDialog@@@std@@@3@$0A@@std@@@std@@KAAAPAU_Node@?$_Tree_nod@V?$_Tmap_traits@HPAVBaseDialog@@U?$less@H@std@@V?$allocator@U?$pair@$$CBHPAVBaseDialog@@@std@@@3@$0A@@std@@@2@PAU342@@Z ; std::_Tree<std::_Tmap_traits<int,BaseDialog *,std::less<int>,std::allocator<std::pair<int const ,BaseDialog *> >,0> >::_Left
  00367	83 c4 04	 add	 esp, 4
  0036a	8b 4d e0	 mov	 ecx, DWORD PTR __Pnode$[ebp]
  0036d	89 08		 mov	 DWORD PTR [eax], ecx

; 654  : 			else

  0036f	eb 1c		 jmp	 SHORT $L188722
$L188723:

; 655  : 				_Right(_Parent(_Erasednode)) = _Pnode;	// link down to right

  00371	8b 55 ec	 mov	 edx, DWORD PTR __Erasednode$[ebp]
  00374	52		 push	 edx
  00375	e8 00 00 00 00	 call	 ?_Parent@?$_Tree@V?$_Tmap_traits@HPAVBaseDialog@@U?$less@H@std@@V?$allocator@U?$pair@$$CBHPAVBaseDialog@@@std@@@3@$0A@@std@@@std@@KAAAPAU_Node@?$_Tree_nod@V?$_Tmap_traits@HPAVBaseDialog@@U?$less@H@std@@V?$allocator@U?$pair@$$CBHPAVBaseDialog@@@std@@@3@$0A@@std@@@2@PAU342@@Z ; std::_Tree<std::_Tmap_traits<int,BaseDialog *,std::less<int>,std::allocator<std::pair<int const ,BaseDialog *> >,0> >::_Parent
  0037a	83 c4 04	 add	 esp, 4
  0037d	8b 00		 mov	 eax, DWORD PTR [eax]
  0037f	50		 push	 eax
  00380	e8 00 00 00 00	 call	 ?_Right@?$_Tree@V?$_Tmap_traits@HPAVBaseDialog@@U?$less@H@std@@V?$allocator@U?$pair@$$CBHPAVBaseDialog@@@std@@@3@$0A@@std@@@std@@KAAAPAU_Node@?$_Tree_nod@V?$_Tmap_traits@HPAVBaseDialog@@U?$less@H@std@@V?$allocator@U?$pair@$$CBHPAVBaseDialog@@@std@@@3@$0A@@std@@@2@PAU342@@Z ; std::_Tree<std::_Tmap_traits<int,BaseDialog *,std::less<int>,std::allocator<std::pair<int const ,BaseDialog *> >,0> >::_Right
  00385	83 c4 04	 add	 esp, 4
  00388	8b 4d e0	 mov	 ecx, DWORD PTR __Pnode$[ebp]
  0038b	89 08		 mov	 DWORD PTR [eax], ecx
$L188722:

; 656  : 
; 657  : 			_Parent(_Pnode) = _Parent(_Erasednode);	// link successor up

  0038d	8b 55 ec	 mov	 edx, DWORD PTR __Erasednode$[ebp]
  00390	52		 push	 edx
  00391	e8 00 00 00 00	 call	 ?_Parent@?$_Tree@V?$_Tmap_traits@HPAVBaseDialog@@U?$less@H@std@@V?$allocator@U?$pair@$$CBHPAVBaseDialog@@@std@@@3@$0A@@std@@@std@@KAAAPAU_Node@?$_Tree_nod@V?$_Tmap_traits@HPAVBaseDialog@@U?$less@H@std@@V?$allocator@U?$pair@$$CBHPAVBaseDialog@@@std@@@3@$0A@@std@@@2@PAU342@@Z ; std::_Tree<std::_Tmap_traits<int,BaseDialog *,std::less<int>,std::allocator<std::pair<int const ,BaseDialog *> >,0> >::_Parent
  00396	83 c4 04	 add	 esp, 4
  00399	8b f0		 mov	 esi, eax
  0039b	8b 45 e0	 mov	 eax, DWORD PTR __Pnode$[ebp]
  0039e	50		 push	 eax
  0039f	e8 00 00 00 00	 call	 ?_Parent@?$_Tree@V?$_Tmap_traits@HPAVBaseDialog@@U?$less@H@std@@V?$allocator@U?$pair@$$CBHPAVBaseDialog@@@std@@@3@$0A@@std@@@std@@KAAAPAU_Node@?$_Tree_nod@V?$_Tmap_traits@HPAVBaseDialog@@U?$less@H@std@@V?$allocator@U?$pair@$$CBHPAVBaseDialog@@@std@@@3@$0A@@std@@@2@PAU342@@Z ; std::_Tree<std::_Tmap_traits<int,BaseDialog *,std::less<int>,std::allocator<std::pair<int const ,BaseDialog *> >,0> >::_Parent
  003a4	83 c4 04	 add	 esp, 4
  003a7	8b 0e		 mov	 ecx, DWORD PTR [esi]
  003a9	89 08		 mov	 DWORD PTR [eax], ecx

; 658  : 			std::swap(_Color(_Pnode), _Color(_Erasednode));	// recolor it

  003ab	8b 55 ec	 mov	 edx, DWORD PTR __Erasednode$[ebp]
  003ae	52		 push	 edx
  003af	e8 00 00 00 00	 call	 ?_Color@?$_Tree@V?$_Tmap_traits@HPAVBaseDialog@@U?$less@H@std@@V?$allocator@U?$pair@$$CBHPAVBaseDialog@@@std@@@3@$0A@@std@@@std@@KAAADPAU_Node@?$_Tree_nod@V?$_Tmap_traits@HPAVBaseDialog@@U?$less@H@std@@V?$allocator@U?$pair@$$CBHPAVBaseDialog@@@std@@@3@$0A@@std@@@2@@Z ; std::_Tree<std::_Tmap_traits<int,BaseDialog *,std::less<int>,std::allocator<std::pair<int const ,BaseDialog *> >,0> >::_Color
  003b4	83 c4 04	 add	 esp, 4
  003b7	50		 push	 eax
  003b8	8b 45 e0	 mov	 eax, DWORD PTR __Pnode$[ebp]
  003bb	50		 push	 eax
  003bc	e8 00 00 00 00	 call	 ?_Color@?$_Tree@V?$_Tmap_traits@HPAVBaseDialog@@U?$less@H@std@@V?$allocator@U?$pair@$$CBHPAVBaseDialog@@@std@@@3@$0A@@std@@@std@@KAAADPAU_Node@?$_Tree_nod@V?$_Tmap_traits@HPAVBaseDialog@@U?$less@H@std@@V?$allocator@U?$pair@$$CBHPAVBaseDialog@@@std@@@3@$0A@@std@@@2@@Z ; std::_Tree<std::_Tmap_traits<int,BaseDialog *,std::less<int>,std::allocator<std::pair<int const ,BaseDialog *> >,0> >::_Color
  003c1	83 c4 04	 add	 esp, 4
  003c4	50		 push	 eax
  003c5	e8 00 00 00 00	 call	 ??$swap@D@std@@YAXAAD0@Z ; std::swap<char>
  003ca	83 c4 08	 add	 esp, 8
$L188717:

; 659  : 			}
; 660  : 
; 661  : 		if (_Color(_Erasednode) == _Black)

  003cd	8b 4d ec	 mov	 ecx, DWORD PTR __Erasednode$[ebp]
  003d0	51		 push	 ecx
  003d1	e8 00 00 00 00	 call	 ?_Color@?$_Tree@V?$_Tmap_traits@HPAVBaseDialog@@U?$less@H@std@@V?$allocator@U?$pair@$$CBHPAVBaseDialog@@@std@@@3@$0A@@std@@@std@@KAAADPAU_Node@?$_Tree_nod@V?$_Tmap_traits@HPAVBaseDialog@@U?$less@H@std@@V?$allocator@U?$pair@$$CBHPAVBaseDialog@@@std@@@3@$0A@@std@@@2@@Z ; std::_Tree<std::_Tmap_traits<int,BaseDialog *,std::less<int>,std::allocator<std::pair<int const ,BaseDialog *> >,0> >::_Color
  003d6	83 c4 04	 add	 esp, 4
  003d9	0f be 10	 movsx	 edx, BYTE PTR [eax]
  003dc	83 fa 01	 cmp	 edx, 1
  003df	0f 85 8f 03 00
	00		 jne	 $L188725

; 662  : 			{	// erasing black link, must recolor/rebalance tree
; 663  : 			for (; _Fixnode != _Root() && _Color(_Fixnode) == _Black;
; 664  : 				_Fixnodeparent = _Parent(_Fixnode))

  003e5	eb 11		 jmp	 SHORT $L188726
$L188727:
  003e7	8b 45 e8	 mov	 eax, DWORD PTR __Fixnode$[ebp]
  003ea	50		 push	 eax
  003eb	e8 00 00 00 00	 call	 ?_Parent@?$_Tree@V?$_Tmap_traits@HPAVBaseDialog@@U?$less@H@std@@V?$allocator@U?$pair@$$CBHPAVBaseDialog@@@std@@@3@$0A@@std@@@std@@KAAAPAU_Node@?$_Tree_nod@V?$_Tmap_traits@HPAVBaseDialog@@U?$less@H@std@@V?$allocator@U?$pair@$$CBHPAVBaseDialog@@@std@@@3@$0A@@std@@@2@PAU342@@Z ; std::_Tree<std::_Tmap_traits<int,BaseDialog *,std::less<int>,std::allocator<std::pair<int const ,BaseDialog *> >,0> >::_Parent
  003f0	83 c4 04	 add	 esp, 4
  003f3	8b 08		 mov	 ecx, DWORD PTR [eax]
  003f5	89 4d e4	 mov	 DWORD PTR __Fixnodeparent$[ebp], ecx
$L188726:
  003f8	8b 4d f0	 mov	 ecx, DWORD PTR _this$[ebp]
  003fb	e8 00 00 00 00	 call	 ?_Root@?$_Tree@V?$_Tmap_traits@HPAVBaseDialog@@U?$less@H@std@@V?$allocator@U?$pair@$$CBHPAVBaseDialog@@@std@@@3@$0A@@std@@@std@@IAEAAPAU_Node@?$_Tree_nod@V?$_Tmap_traits@HPAVBaseDialog@@U?$less@H@std@@V?$allocator@U?$pair@$$CBHPAVBaseDialog@@@std@@@3@$0A@@std@@@2@XZ ; std::_Tree<std::_Tmap_traits<int,BaseDialog *,std::less<int>,std::allocator<std::pair<int const ,BaseDialog *> >,0> >::_Root
  00400	8b 55 e8	 mov	 edx, DWORD PTR __Fixnode$[ebp]
  00403	3b 10		 cmp	 edx, DWORD PTR [eax]
  00405	0f 84 5a 03 00
	00		 je	 $L188728
  0040b	8b 45 e8	 mov	 eax, DWORD PTR __Fixnode$[ebp]
  0040e	50		 push	 eax
  0040f	e8 00 00 00 00	 call	 ?_Color@?$_Tree@V?$_Tmap_traits@HPAVBaseDialog@@U?$less@H@std@@V?$allocator@U?$pair@$$CBHPAVBaseDialog@@@std@@@3@$0A@@std@@@std@@KAAADPAU_Node@?$_Tree_nod@V?$_Tmap_traits@HPAVBaseDialog@@U?$less@H@std@@V?$allocator@U?$pair@$$CBHPAVBaseDialog@@@std@@@3@$0A@@std@@@2@@Z ; std::_Tree<std::_Tmap_traits<int,BaseDialog *,std::less<int>,std::allocator<std::pair<int const ,BaseDialog *> >,0> >::_Color
  00414	83 c4 04	 add	 esp, 4
  00417	0f be 08	 movsx	 ecx, BYTE PTR [eax]
  0041a	83 f9 01	 cmp	 ecx, 1
  0041d	0f 85 42 03 00
	00		 jne	 $L188728

; 665  : 				if (_Fixnode == _Left(_Fixnodeparent))

  00423	8b 55 e4	 mov	 edx, DWORD PTR __Fixnodeparent$[ebp]
  00426	52		 push	 edx
  00427	e8 00 00 00 00	 call	 ?_Left@?$_Tree@V?$_Tmap_traits@HPAVBaseDialog@@U?$less@H@std@@V?$allocator@U?$pair@$$CBHPAVBaseDialog@@@std@@@3@$0A@@std@@@std@@KAAAPAU_Node@?$_Tree_nod@V?$_Tmap_traits@HPAVBaseDialog@@U?$less@H@std@@V?$allocator@U?$pair@$$CBHPAVBaseDialog@@@std@@@3@$0A@@std@@@2@PAU342@@Z ; std::_Tree<std::_Tmap_traits<int,BaseDialog *,std::less<int>,std::allocator<std::pair<int const ,BaseDialog *> >,0> >::_Left
  0042c	83 c4 04	 add	 esp, 4
  0042f	8b 4d e8	 mov	 ecx, DWORD PTR __Fixnode$[ebp]
  00432	3b 08		 cmp	 ecx, DWORD PTR [eax]
  00434	0f 85 97 01 00
	00		 jne	 $L188729

; 666  : 					{	// fixup left subtree
; 667  : 					_Pnode = _Right(_Fixnodeparent);

  0043a	8b 55 e4	 mov	 edx, DWORD PTR __Fixnodeparent$[ebp]
  0043d	52		 push	 edx
  0043e	e8 00 00 00 00	 call	 ?_Right@?$_Tree@V?$_Tmap_traits@HPAVBaseDialog@@U?$less@H@std@@V?$allocator@U?$pair@$$CBHPAVBaseDialog@@@std@@@3@$0A@@std@@@std@@KAAAPAU_Node@?$_Tree_nod@V?$_Tmap_traits@HPAVBaseDialog@@U?$less@H@std@@V?$allocator@U?$pair@$$CBHPAVBaseDialog@@@std@@@3@$0A@@std@@@2@PAU342@@Z ; std::_Tree<std::_Tmap_traits<int,BaseDialog *,std::less<int>,std::allocator<std::pair<int const ,BaseDialog *> >,0> >::_Right
  00443	83 c4 04	 add	 esp, 4
  00446	8b 00		 mov	 eax, DWORD PTR [eax]
  00448	89 45 e0	 mov	 DWORD PTR __Pnode$[ebp], eax

; 668  : 					if (_Color(_Pnode) == _Red)

  0044b	8b 4d e0	 mov	 ecx, DWORD PTR __Pnode$[ebp]
  0044e	51		 push	 ecx
  0044f	e8 00 00 00 00	 call	 ?_Color@?$_Tree@V?$_Tmap_traits@HPAVBaseDialog@@U?$less@H@std@@V?$allocator@U?$pair@$$CBHPAVBaseDialog@@@std@@@3@$0A@@std@@@std@@KAAADPAU_Node@?$_Tree_nod@V?$_Tmap_traits@HPAVBaseDialog@@U?$less@H@std@@V?$allocator@U?$pair@$$CBHPAVBaseDialog@@@std@@@3@$0A@@std@@@2@@Z ; std::_Tree<std::_Tmap_traits<int,BaseDialog *,std::less<int>,std::allocator<std::pair<int const ,BaseDialog *> >,0> >::_Color
  00454	83 c4 04	 add	 esp, 4
  00457	0f be 10	 movsx	 edx, BYTE PTR [eax]
  0045a	85 d2		 test	 edx, edx
  0045c	75 3b		 jne	 SHORT $L188730

; 669  : 						{	// rotate red up from right subtree
; 670  : 						_Color(_Pnode) = _Black;

  0045e	8b 45 e0	 mov	 eax, DWORD PTR __Pnode$[ebp]
  00461	50		 push	 eax
  00462	e8 00 00 00 00	 call	 ?_Color@?$_Tree@V?$_Tmap_traits@HPAVBaseDialog@@U?$less@H@std@@V?$allocator@U?$pair@$$CBHPAVBaseDialog@@@std@@@3@$0A@@std@@@std@@KAAADPAU_Node@?$_Tree_nod@V?$_Tmap_traits@HPAVBaseDialog@@U?$less@H@std@@V?$allocator@U?$pair@$$CBHPAVBaseDialog@@@std@@@3@$0A@@std@@@2@@Z ; std::_Tree<std::_Tmap_traits<int,BaseDialog *,std::less<int>,std::allocator<std::pair<int const ,BaseDialog *> >,0> >::_Color
  00467	83 c4 04	 add	 esp, 4
  0046a	c6 00 01	 mov	 BYTE PTR [eax], 1

; 671  : 						_Color(_Fixnodeparent) = _Red;

  0046d	8b 4d e4	 mov	 ecx, DWORD PTR __Fixnodeparent$[ebp]
  00470	51		 push	 ecx
  00471	e8 00 00 00 00	 call	 ?_Color@?$_Tree@V?$_Tmap_traits@HPAVBaseDialog@@U?$less@H@std@@V?$allocator@U?$pair@$$CBHPAVBaseDialog@@@std@@@3@$0A@@std@@@std@@KAAADPAU_Node@?$_Tree_nod@V?$_Tmap_traits@HPAVBaseDialog@@U?$less@H@std@@V?$allocator@U?$pair@$$CBHPAVBaseDialog@@@std@@@3@$0A@@std@@@2@@Z ; std::_Tree<std::_Tmap_traits<int,BaseDialog *,std::less<int>,std::allocator<std::pair<int const ,BaseDialog *> >,0> >::_Color
  00476	83 c4 04	 add	 esp, 4
  00479	c6 00 00	 mov	 BYTE PTR [eax], 0

; 672  : 						_Lrotate(_Fixnodeparent);

  0047c	8b 55 e4	 mov	 edx, DWORD PTR __Fixnodeparent$[ebp]
  0047f	52		 push	 edx
  00480	8b 4d f0	 mov	 ecx, DWORD PTR _this$[ebp]
  00483	e8 00 00 00 00	 call	 ?_Lrotate@?$_Tree@V?$_Tmap_traits@HPAVBaseDialog@@U?$less@H@std@@V?$allocator@U?$pair@$$CBHPAVBaseDialog@@@std@@@3@$0A@@std@@@std@@IAEXPAU_Node@?$_Tree_nod@V?$_Tmap_traits@HPAVBaseDialog@@U?$less@H@std@@V?$allocator@U?$pair@$$CBHPAVBaseDialog@@@std@@@3@$0A@@std@@@2@@Z ; std::_Tree<std::_Tmap_traits<int,BaseDialog *,std::less<int>,std::allocator<std::pair<int const ,BaseDialog *> >,0> >::_Lrotate

; 673  : 						_Pnode = _Right(_Fixnodeparent);

  00488	8b 45 e4	 mov	 eax, DWORD PTR __Fixnodeparent$[ebp]
  0048b	50		 push	 eax
  0048c	e8 00 00 00 00	 call	 ?_Right@?$_Tree@V?$_Tmap_traits@HPAVBaseDialog@@U?$less@H@std@@V?$allocator@U?$pair@$$CBHPAVBaseDialog@@@std@@@3@$0A@@std@@@std@@KAAAPAU_Node@?$_Tree_nod@V?$_Tmap_traits@HPAVBaseDialog@@U?$less@H@std@@V?$allocator@U?$pair@$$CBHPAVBaseDialog@@@std@@@3@$0A@@std@@@2@PAU342@@Z ; std::_Tree<std::_Tmap_traits<int,BaseDialog *,std::less<int>,std::allocator<std::pair<int const ,BaseDialog *> >,0> >::_Right
  00491	83 c4 04	 add	 esp, 4
  00494	8b 08		 mov	 ecx, DWORD PTR [eax]
  00496	89 4d e0	 mov	 DWORD PTR __Pnode$[ebp], ecx
$L188730:

; 674  : 						}
; 675  : 
; 676  : 					if (_Isnil(_Pnode))

  00499	8b 55 e0	 mov	 edx, DWORD PTR __Pnode$[ebp]
  0049c	52		 push	 edx
  0049d	e8 00 00 00 00	 call	 ?_Isnil@?$_Tree@V?$_Tmap_traits@HPAVBaseDialog@@U?$less@H@std@@V?$allocator@U?$pair@$$CBHPAVBaseDialog@@@std@@@3@$0A@@std@@@std@@KAAADPAU_Node@?$_Tree_nod@V?$_Tmap_traits@HPAVBaseDialog@@U?$less@H@std@@V?$allocator@U?$pair@$$CBHPAVBaseDialog@@@std@@@3@$0A@@std@@@2@@Z ; std::_Tree<std::_Tmap_traits<int,BaseDialog *,std::less<int>,std::allocator<std::pair<int const ,BaseDialog *> >,0> >::_Isnil
  004a2	83 c4 04	 add	 esp, 4
  004a5	0f be 00	 movsx	 eax, BYTE PTR [eax]
  004a8	85 c0		 test	 eax, eax
  004aa	74 0b		 je	 SHORT $L188731

; 677  : 						_Fixnode = _Fixnodeparent;	// shouldn't happen

  004ac	8b 4d e4	 mov	 ecx, DWORD PTR __Fixnodeparent$[ebp]
  004af	89 4d e8	 mov	 DWORD PTR __Fixnode$[ebp], ecx

; 678  : 					else if (_Color(_Left(_Pnode)) == _Black

  004b2	e9 15 01 00 00	 jmp	 $L188732
$L188731:

; 679  : 						&& _Color(_Right(_Pnode)) == _Black)

  004b7	8b 55 e0	 mov	 edx, DWORD PTR __Pnode$[ebp]
  004ba	52		 push	 edx
  004bb	e8 00 00 00 00	 call	 ?_Left@?$_Tree@V?$_Tmap_traits@HPAVBaseDialog@@U?$less@H@std@@V?$allocator@U?$pair@$$CBHPAVBaseDialog@@@std@@@3@$0A@@std@@@std@@KAAAPAU_Node@?$_Tree_nod@V?$_Tmap_traits@HPAVBaseDialog@@U?$less@H@std@@V?$allocator@U?$pair@$$CBHPAVBaseDialog@@@std@@@3@$0A@@std@@@2@PAU342@@Z ; std::_Tree<std::_Tmap_traits<int,BaseDialog *,std::less<int>,std::allocator<std::pair<int const ,BaseDialog *> >,0> >::_Left
  004c0	83 c4 04	 add	 esp, 4
  004c3	8b 00		 mov	 eax, DWORD PTR [eax]
  004c5	50		 push	 eax
  004c6	e8 00 00 00 00	 call	 ?_Color@?$_Tree@V?$_Tmap_traits@HPAVBaseDialog@@U?$less@H@std@@V?$allocator@U?$pair@$$CBHPAVBaseDialog@@@std@@@3@$0A@@std@@@std@@KAAADPAU_Node@?$_Tree_nod@V?$_Tmap_traits@HPAVBaseDialog@@U?$less@H@std@@V?$allocator@U?$pair@$$CBHPAVBaseDialog@@@std@@@3@$0A@@std@@@2@@Z ; std::_Tree<std::_Tmap_traits<int,BaseDialog *,std::less<int>,std::allocator<std::pair<int const ,BaseDialog *> >,0> >::_Color
  004cb	83 c4 04	 add	 esp, 4
  004ce	0f be 08	 movsx	 ecx, BYTE PTR [eax]
  004d1	83 f9 01	 cmp	 ecx, 1
  004d4	75 39		 jne	 SHORT $L188733
  004d6	8b 55 e0	 mov	 edx, DWORD PTR __Pnode$[ebp]
  004d9	52		 push	 edx
  004da	e8 00 00 00 00	 call	 ?_Right@?$_Tree@V?$_Tmap_traits@HPAVBaseDialog@@U?$less@H@std@@V?$allocator@U?$pair@$$CBHPAVBaseDialog@@@std@@@3@$0A@@std@@@std@@KAAAPAU_Node@?$_Tree_nod@V?$_Tmap_traits@HPAVBaseDialog@@U?$less@H@std@@V?$allocator@U?$pair@$$CBHPAVBaseDialog@@@std@@@3@$0A@@std@@@2@PAU342@@Z ; std::_Tree<std::_Tmap_traits<int,BaseDialog *,std::less<int>,std::allocator<std::pair<int const ,BaseDialog *> >,0> >::_Right
  004df	83 c4 04	 add	 esp, 4
  004e2	8b 00		 mov	 eax, DWORD PTR [eax]
  004e4	50		 push	 eax
  004e5	e8 00 00 00 00	 call	 ?_Color@?$_Tree@V?$_Tmap_traits@HPAVBaseDialog@@U?$less@H@std@@V?$allocator@U?$pair@$$CBHPAVBaseDialog@@@std@@@3@$0A@@std@@@std@@KAAADPAU_Node@?$_Tree_nod@V?$_Tmap_traits@HPAVBaseDialog@@U?$less@H@std@@V?$allocator@U?$pair@$$CBHPAVBaseDialog@@@std@@@3@$0A@@std@@@2@@Z ; std::_Tree<std::_Tmap_traits<int,BaseDialog *,std::less<int>,std::allocator<std::pair<int const ,BaseDialog *> >,0> >::_Color
  004ea	83 c4 04	 add	 esp, 4
  004ed	0f be 08	 movsx	 ecx, BYTE PTR [eax]
  004f0	83 f9 01	 cmp	 ecx, 1
  004f3	75 1a		 jne	 SHORT $L188733

; 680  : 						{	// redden right subtree with black children
; 681  : 						_Color(_Pnode) = _Red;

  004f5	8b 55 e0	 mov	 edx, DWORD PTR __Pnode$[ebp]
  004f8	52		 push	 edx
  004f9	e8 00 00 00 00	 call	 ?_Color@?$_Tree@V?$_Tmap_traits@HPAVBaseDialog@@U?$less@H@std@@V?$allocator@U?$pair@$$CBHPAVBaseDialog@@@std@@@3@$0A@@std@@@std@@KAAADPAU_Node@?$_Tree_nod@V?$_Tmap_traits@HPAVBaseDialog@@U?$less@H@std@@V?$allocator@U?$pair@$$CBHPAVBaseDialog@@@std@@@3@$0A@@std@@@2@@Z ; std::_Tree<std::_Tmap_traits<int,BaseDialog *,std::less<int>,std::allocator<std::pair<int const ,BaseDialog *> >,0> >::_Color
  004fe	83 c4 04	 add	 esp, 4
  00501	c6 00 00	 mov	 BYTE PTR [eax], 0

; 682  : 						_Fixnode = _Fixnodeparent;

  00504	8b 45 e4	 mov	 eax, DWORD PTR __Fixnodeparent$[ebp]
  00507	89 45 e8	 mov	 DWORD PTR __Fixnode$[ebp], eax

; 683  : 						}
; 684  : 					else

  0050a	e9 bd 00 00 00	 jmp	 $L188732
$L188733:

; 685  : 						{	// must rearrange right subtree
; 686  : 						if (_Color(_Right(_Pnode)) == _Black)

  0050f	8b 4d e0	 mov	 ecx, DWORD PTR __Pnode$[ebp]
  00512	51		 push	 ecx
  00513	e8 00 00 00 00	 call	 ?_Right@?$_Tree@V?$_Tmap_traits@HPAVBaseDialog@@U?$less@H@std@@V?$allocator@U?$pair@$$CBHPAVBaseDialog@@@std@@@3@$0A@@std@@@std@@KAAAPAU_Node@?$_Tree_nod@V?$_Tmap_traits@HPAVBaseDialog@@U?$less@H@std@@V?$allocator@U?$pair@$$CBHPAVBaseDialog@@@std@@@3@$0A@@std@@@2@PAU342@@Z ; std::_Tree<std::_Tmap_traits<int,BaseDialog *,std::less<int>,std::allocator<std::pair<int const ,BaseDialog *> >,0> >::_Right
  00518	83 c4 04	 add	 esp, 4
  0051b	8b 10		 mov	 edx, DWORD PTR [eax]
  0051d	52		 push	 edx
  0051e	e8 00 00 00 00	 call	 ?_Color@?$_Tree@V?$_Tmap_traits@HPAVBaseDialog@@U?$less@H@std@@V?$allocator@U?$pair@$$CBHPAVBaseDialog@@@std@@@3@$0A@@std@@@std@@KAAADPAU_Node@?$_Tree_nod@V?$_Tmap_traits@HPAVBaseDialog@@U?$less@H@std@@V?$allocator@U?$pair@$$CBHPAVBaseDialog@@@std@@@3@$0A@@std@@@2@@Z ; std::_Tree<std::_Tmap_traits<int,BaseDialog *,std::less<int>,std::allocator<std::pair<int const ,BaseDialog *> >,0> >::_Color
  00523	83 c4 04	 add	 esp, 4
  00526	0f be 00	 movsx	 eax, BYTE PTR [eax]
  00529	83 f8 01	 cmp	 eax, 1
  0052c	75 46		 jne	 SHORT $L188735

; 687  : 							{	// rotate red up from left sub-subtree
; 688  : 							_Color(_Left(_Pnode)) = _Black;

  0052e	8b 4d e0	 mov	 ecx, DWORD PTR __Pnode$[ebp]
  00531	51		 push	 ecx
  00532	e8 00 00 00 00	 call	 ?_Left@?$_Tree@V?$_Tmap_traits@HPAVBaseDialog@@U?$less@H@std@@V?$allocator@U?$pair@$$CBHPAVBaseDialog@@@std@@@3@$0A@@std@@@std@@KAAAPAU_Node@?$_Tree_nod@V?$_Tmap_traits@HPAVBaseDialog@@U?$less@H@std@@V?$allocator@U?$pair@$$CBHPAVBaseDialog@@@std@@@3@$0A@@std@@@2@PAU342@@Z ; std::_Tree<std::_Tmap_traits<int,BaseDialog *,std::less<int>,std::allocator<std::pair<int const ,BaseDialog *> >,0> >::_Left
  00537	83 c4 04	 add	 esp, 4
  0053a	8b 10		 mov	 edx, DWORD PTR [eax]
  0053c	52		 push	 edx
  0053d	e8 00 00 00 00	 call	 ?_Color@?$_Tree@V?$_Tmap_traits@HPAVBaseDialog@@U?$less@H@std@@V?$allocator@U?$pair@$$CBHPAVBaseDialog@@@std@@@3@$0A@@std@@@std@@KAAADPAU_Node@?$_Tree_nod@V?$_Tmap_traits@HPAVBaseDialog@@U?$less@H@std@@V?$allocator@U?$pair@$$CBHPAVBaseDialog@@@std@@@3@$0A@@std@@@2@@Z ; std::_Tree<std::_Tmap_traits<int,BaseDialog *,std::less<int>,std::allocator<std::pair<int const ,BaseDialog *> >,0> >::_Color
  00542	83 c4 04	 add	 esp, 4
  00545	c6 00 01	 mov	 BYTE PTR [eax], 1

; 689  : 							_Color(_Pnode) = _Red;

  00548	8b 45 e0	 mov	 eax, DWORD PTR __Pnode$[ebp]
  0054b	50		 push	 eax
  0054c	e8 00 00 00 00	 call	 ?_Color@?$_Tree@V?$_Tmap_traits@HPAVBaseDialog@@U?$less@H@std@@V?$allocator@U?$pair@$$CBHPAVBaseDialog@@@std@@@3@$0A@@std@@@std@@KAAADPAU_Node@?$_Tree_nod@V?$_Tmap_traits@HPAVBaseDialog@@U?$less@H@std@@V?$allocator@U?$pair@$$CBHPAVBaseDialog@@@std@@@3@$0A@@std@@@2@@Z ; std::_Tree<std::_Tmap_traits<int,BaseDialog *,std::less<int>,std::allocator<std::pair<int const ,BaseDialog *> >,0> >::_Color
  00551	83 c4 04	 add	 esp, 4
  00554	c6 00 00	 mov	 BYTE PTR [eax], 0

; 690  : 							_Rrotate(_Pnode);

  00557	8b 4d e0	 mov	 ecx, DWORD PTR __Pnode$[ebp]
  0055a	51		 push	 ecx
  0055b	8b 4d f0	 mov	 ecx, DWORD PTR _this$[ebp]
  0055e	e8 00 00 00 00	 call	 ?_Rrotate@?$_Tree@V?$_Tmap_traits@HPAVBaseDialog@@U?$less@H@std@@V?$allocator@U?$pair@$$CBHPAVBaseDialog@@@std@@@3@$0A@@std@@@std@@IAEXPAU_Node@?$_Tree_nod@V?$_Tmap_traits@HPAVBaseDialog@@U?$less@H@std@@V?$allocator@U?$pair@$$CBHPAVBaseDialog@@@std@@@3@$0A@@std@@@2@@Z ; std::_Tree<std::_Tmap_traits<int,BaseDialog *,std::less<int>,std::allocator<std::pair<int const ,BaseDialog *> >,0> >::_Rrotate

; 691  : 							_Pnode = _Right(_Fixnodeparent);

  00563	8b 55 e4	 mov	 edx, DWORD PTR __Fixnodeparent$[ebp]
  00566	52		 push	 edx
  00567	e8 00 00 00 00	 call	 ?_Right@?$_Tree@V?$_Tmap_traits@HPAVBaseDialog@@U?$less@H@std@@V?$allocator@U?$pair@$$CBHPAVBaseDialog@@@std@@@3@$0A@@std@@@std@@KAAAPAU_Node@?$_Tree_nod@V?$_Tmap_traits@HPAVBaseDialog@@U?$less@H@std@@V?$allocator@U?$pair@$$CBHPAVBaseDialog@@@std@@@3@$0A@@std@@@2@PAU342@@Z ; std::_Tree<std::_Tmap_traits<int,BaseDialog *,std::less<int>,std::allocator<std::pair<int const ,BaseDialog *> >,0> >::_Right
  0056c	83 c4 04	 add	 esp, 4
  0056f	8b 00		 mov	 eax, DWORD PTR [eax]
  00571	89 45 e0	 mov	 DWORD PTR __Pnode$[ebp], eax
$L188735:

; 692  : 							}
; 693  : 
; 694  : 						_Color(_Pnode) = _Color(_Fixnodeparent);

  00574	8b 4d e4	 mov	 ecx, DWORD PTR __Fixnodeparent$[ebp]
  00577	51		 push	 ecx
  00578	e8 00 00 00 00	 call	 ?_Color@?$_Tree@V?$_Tmap_traits@HPAVBaseDialog@@U?$less@H@std@@V?$allocator@U?$pair@$$CBHPAVBaseDialog@@@std@@@3@$0A@@std@@@std@@KAAADPAU_Node@?$_Tree_nod@V?$_Tmap_traits@HPAVBaseDialog@@U?$less@H@std@@V?$allocator@U?$pair@$$CBHPAVBaseDialog@@@std@@@3@$0A@@std@@@2@@Z ; std::_Tree<std::_Tmap_traits<int,BaseDialog *,std::less<int>,std::allocator<std::pair<int const ,BaseDialog *> >,0> >::_Color
  0057d	83 c4 04	 add	 esp, 4
  00580	8b f0		 mov	 esi, eax
  00582	8b 55 e0	 mov	 edx, DWORD PTR __Pnode$[ebp]
  00585	52		 push	 edx
  00586	e8 00 00 00 00	 call	 ?_Color@?$_Tree@V?$_Tmap_traits@HPAVBaseDialog@@U?$less@H@std@@V?$allocator@U?$pair@$$CBHPAVBaseDialog@@@std@@@3@$0A@@std@@@std@@KAAADPAU_Node@?$_Tree_nod@V?$_Tmap_traits@HPAVBaseDialog@@U?$less@H@std@@V?$allocator@U?$pair@$$CBHPAVBaseDialog@@@std@@@3@$0A@@std@@@2@@Z ; std::_Tree<std::_Tmap_traits<int,BaseDialog *,std::less<int>,std::allocator<std::pair<int const ,BaseDialog *> >,0> >::_Color
  0058b	83 c4 04	 add	 esp, 4
  0058e	8a 0e		 mov	 cl, BYTE PTR [esi]
  00590	88 08		 mov	 BYTE PTR [eax], cl

; 695  : 						_Color(_Fixnodeparent) = _Black;

  00592	8b 55 e4	 mov	 edx, DWORD PTR __Fixnodeparent$[ebp]
  00595	52		 push	 edx
  00596	e8 00 00 00 00	 call	 ?_Color@?$_Tree@V?$_Tmap_traits@HPAVBaseDialog@@U?$less@H@std@@V?$allocator@U?$pair@$$CBHPAVBaseDialog@@@std@@@3@$0A@@std@@@std@@KAAADPAU_Node@?$_Tree_nod@V?$_Tmap_traits@HPAVBaseDialog@@U?$less@H@std@@V?$allocator@U?$pair@$$CBHPAVBaseDialog@@@std@@@3@$0A@@std@@@2@@Z ; std::_Tree<std::_Tmap_traits<int,BaseDialog *,std::less<int>,std::allocator<std::pair<int const ,BaseDialog *> >,0> >::_Color
  0059b	83 c4 04	 add	 esp, 4
  0059e	c6 00 01	 mov	 BYTE PTR [eax], 1

; 696  : 						_Color(_Right(_Pnode)) = _Black;

  005a1	8b 45 e0	 mov	 eax, DWORD PTR __Pnode$[ebp]
  005a4	50		 push	 eax
  005a5	e8 00 00 00 00	 call	 ?_Right@?$_Tree@V?$_Tmap_traits@HPAVBaseDialog@@U?$less@H@std@@V?$allocator@U?$pair@$$CBHPAVBaseDialog@@@std@@@3@$0A@@std@@@std@@KAAAPAU_Node@?$_Tree_nod@V?$_Tmap_traits@HPAVBaseDialog@@U?$less@H@std@@V?$allocator@U?$pair@$$CBHPAVBaseDialog@@@std@@@3@$0A@@std@@@2@PAU342@@Z ; std::_Tree<std::_Tmap_traits<int,BaseDialog *,std::less<int>,std::allocator<std::pair<int const ,BaseDialog *> >,0> >::_Right
  005aa	83 c4 04	 add	 esp, 4
  005ad	8b 08		 mov	 ecx, DWORD PTR [eax]
  005af	51		 push	 ecx
  005b0	e8 00 00 00 00	 call	 ?_Color@?$_Tree@V?$_Tmap_traits@HPAVBaseDialog@@U?$less@H@std@@V?$allocator@U?$pair@$$CBHPAVBaseDialog@@@std@@@3@$0A@@std@@@std@@KAAADPAU_Node@?$_Tree_nod@V?$_Tmap_traits@HPAVBaseDialog@@U?$less@H@std@@V?$allocator@U?$pair@$$CBHPAVBaseDialog@@@std@@@3@$0A@@std@@@2@@Z ; std::_Tree<std::_Tmap_traits<int,BaseDialog *,std::less<int>,std::allocator<std::pair<int const ,BaseDialog *> >,0> >::_Color
  005b5	83 c4 04	 add	 esp, 4
  005b8	c6 00 01	 mov	 BYTE PTR [eax], 1

; 697  : 						_Lrotate(_Fixnodeparent);

  005bb	8b 55 e4	 mov	 edx, DWORD PTR __Fixnodeparent$[ebp]
  005be	52		 push	 edx
  005bf	8b 4d f0	 mov	 ecx, DWORD PTR _this$[ebp]
  005c2	e8 00 00 00 00	 call	 ?_Lrotate@?$_Tree@V?$_Tmap_traits@HPAVBaseDialog@@U?$less@H@std@@V?$allocator@U?$pair@$$CBHPAVBaseDialog@@@std@@@3@$0A@@std@@@std@@IAEXPAU_Node@?$_Tree_nod@V?$_Tmap_traits@HPAVBaseDialog@@U?$less@H@std@@V?$allocator@U?$pair@$$CBHPAVBaseDialog@@@std@@@3@$0A@@std@@@2@@Z ; std::_Tree<std::_Tmap_traits<int,BaseDialog *,std::less<int>,std::allocator<std::pair<int const ,BaseDialog *> >,0> >::_Lrotate

; 698  : 						break;	// tree now recolored/rebalanced

  005c7	e9 99 01 00 00	 jmp	 $L188728
$L188732:

; 699  : 						}
; 700  : 					}
; 701  : 				else

  005cc	e9 8f 01 00 00	 jmp	 $L188736
$L188729:

; 702  : 					{	// fixup right subtree
; 703  : 					_Pnode = _Left(_Fixnodeparent);

  005d1	8b 45 e4	 mov	 eax, DWORD PTR __Fixnodeparent$[ebp]
  005d4	50		 push	 eax
  005d5	e8 00 00 00 00	 call	 ?_Left@?$_Tree@V?$_Tmap_traits@HPAVBaseDialog@@U?$less@H@std@@V?$allocator@U?$pair@$$CBHPAVBaseDialog@@@std@@@3@$0A@@std@@@std@@KAAAPAU_Node@?$_Tree_nod@V?$_Tmap_traits@HPAVBaseDialog@@U?$less@H@std@@V?$allocator@U?$pair@$$CBHPAVBaseDialog@@@std@@@3@$0A@@std@@@2@PAU342@@Z ; std::_Tree<std::_Tmap_traits<int,BaseDialog *,std::less<int>,std::allocator<std::pair<int const ,BaseDialog *> >,0> >::_Left
  005da	83 c4 04	 add	 esp, 4
  005dd	8b 08		 mov	 ecx, DWORD PTR [eax]
  005df	89 4d e0	 mov	 DWORD PTR __Pnode$[ebp], ecx

; 704  : 					if (_Color(_Pnode) == _Red)

  005e2	8b 55 e0	 mov	 edx, DWORD PTR __Pnode$[ebp]
  005e5	52		 push	 edx
  005e6	e8 00 00 00 00	 call	 ?_Color@?$_Tree@V?$_Tmap_traits@HPAVBaseDialog@@U?$less@H@std@@V?$allocator@U?$pair@$$CBHPAVBaseDialog@@@std@@@3@$0A@@std@@@std@@KAAADPAU_Node@?$_Tree_nod@V?$_Tmap_traits@HPAVBaseDialog@@U?$less@H@std@@V?$allocator@U?$pair@$$CBHPAVBaseDialog@@@std@@@3@$0A@@std@@@2@@Z ; std::_Tree<std::_Tmap_traits<int,BaseDialog *,std::less<int>,std::allocator<std::pair<int const ,BaseDialog *> >,0> >::_Color
  005eb	83 c4 04	 add	 esp, 4
  005ee	0f be 00	 movsx	 eax, BYTE PTR [eax]
  005f1	85 c0		 test	 eax, eax
  005f3	75 3b		 jne	 SHORT $L188737

; 705  : 						{	// rotate red up from left subtree
; 706  : 						_Color(_Pnode) = _Black;

  005f5	8b 4d e0	 mov	 ecx, DWORD PTR __Pnode$[ebp]
  005f8	51		 push	 ecx
  005f9	e8 00 00 00 00	 call	 ?_Color@?$_Tree@V?$_Tmap_traits@HPAVBaseDialog@@U?$less@H@std@@V?$allocator@U?$pair@$$CBHPAVBaseDialog@@@std@@@3@$0A@@std@@@std@@KAAADPAU_Node@?$_Tree_nod@V?$_Tmap_traits@HPAVBaseDialog@@U?$less@H@std@@V?$allocator@U?$pair@$$CBHPAVBaseDialog@@@std@@@3@$0A@@std@@@2@@Z ; std::_Tree<std::_Tmap_traits<int,BaseDialog *,std::less<int>,std::allocator<std::pair<int const ,BaseDialog *> >,0> >::_Color
  005fe	83 c4 04	 add	 esp, 4
  00601	c6 00 01	 mov	 BYTE PTR [eax], 1

; 707  : 						_Color(_Fixnodeparent) = _Red;

  00604	8b 55 e4	 mov	 edx, DWORD PTR __Fixnodeparent$[ebp]
  00607	52		 push	 edx
  00608	e8 00 00 00 00	 call	 ?_Color@?$_Tree@V?$_Tmap_traits@HPAVBaseDialog@@U?$less@H@std@@V?$allocator@U?$pair@$$CBHPAVBaseDialog@@@std@@@3@$0A@@std@@@std@@KAAADPAU_Node@?$_Tree_nod@V?$_Tmap_traits@HPAVBaseDialog@@U?$less@H@std@@V?$allocator@U?$pair@$$CBHPAVBaseDialog@@@std@@@3@$0A@@std@@@2@@Z ; std::_Tree<std::_Tmap_traits<int,BaseDialog *,std::less<int>,std::allocator<std::pair<int const ,BaseDialog *> >,0> >::_Color
  0060d	83 c4 04	 add	 esp, 4
  00610	c6 00 00	 mov	 BYTE PTR [eax], 0

; 708  : 						_Rrotate(_Fixnodeparent);

  00613	8b 45 e4	 mov	 eax, DWORD PTR __Fixnodeparent$[ebp]
  00616	50		 push	 eax
  00617	8b 4d f0	 mov	 ecx, DWORD PTR _this$[ebp]
  0061a	e8 00 00 00 00	 call	 ?_Rrotate@?$_Tree@V?$_Tmap_traits@HPAVBaseDialog@@U?$less@H@std@@V?$allocator@U?$pair@$$CBHPAVBaseDialog@@@std@@@3@$0A@@std@@@std@@IAEXPAU_Node@?$_Tree_nod@V?$_Tmap_traits@HPAVBaseDialog@@U?$less@H@std@@V?$allocator@U?$pair@$$CBHPAVBaseDialog@@@std@@@3@$0A@@std@@@2@@Z ; std::_Tree<std::_Tmap_traits<int,BaseDialog *,std::less<int>,std::allocator<std::pair<int const ,BaseDialog *> >,0> >::_Rrotate

; 709  : 						_Pnode = _Left(_Fixnodeparent);

  0061f	8b 4d e4	 mov	 ecx, DWORD PTR __Fixnodeparent$[ebp]
  00622	51		 push	 ecx
  00623	e8 00 00 00 00	 call	 ?_Left@?$_Tree@V?$_Tmap_traits@HPAVBaseDialog@@U?$less@H@std@@V?$allocator@U?$pair@$$CBHPAVBaseDialog@@@std@@@3@$0A@@std@@@std@@KAAAPAU_Node@?$_Tree_nod@V?$_Tmap_traits@HPAVBaseDialog@@U?$less@H@std@@V?$allocator@U?$pair@$$CBHPAVBaseDialog@@@std@@@3@$0A@@std@@@2@PAU342@@Z ; std::_Tree<std::_Tmap_traits<int,BaseDialog *,std::less<int>,std::allocator<std::pair<int const ,BaseDialog *> >,0> >::_Left
  00628	83 c4 04	 add	 esp, 4
  0062b	8b 10		 mov	 edx, DWORD PTR [eax]
  0062d	89 55 e0	 mov	 DWORD PTR __Pnode$[ebp], edx
$L188737:

; 710  : 						}
; 711  : 					if (_Isnil(_Pnode))

  00630	8b 45 e0	 mov	 eax, DWORD PTR __Pnode$[ebp]
  00633	50		 push	 eax
  00634	e8 00 00 00 00	 call	 ?_Isnil@?$_Tree@V?$_Tmap_traits@HPAVBaseDialog@@U?$less@H@std@@V?$allocator@U?$pair@$$CBHPAVBaseDialog@@@std@@@3@$0A@@std@@@std@@KAAADPAU_Node@?$_Tree_nod@V?$_Tmap_traits@HPAVBaseDialog@@U?$less@H@std@@V?$allocator@U?$pair@$$CBHPAVBaseDialog@@@std@@@3@$0A@@std@@@2@@Z ; std::_Tree<std::_Tmap_traits<int,BaseDialog *,std::less<int>,std::allocator<std::pair<int const ,BaseDialog *> >,0> >::_Isnil
  00639	83 c4 04	 add	 esp, 4
  0063c	0f be 08	 movsx	 ecx, BYTE PTR [eax]
  0063f	85 c9		 test	 ecx, ecx
  00641	74 0b		 je	 SHORT $L188738

; 712  : 						_Fixnode = _Fixnodeparent;	// shouldn't happen

  00643	8b 55 e4	 mov	 edx, DWORD PTR __Fixnodeparent$[ebp]
  00646	89 55 e8	 mov	 DWORD PTR __Fixnode$[ebp], edx

; 713  : 					else if (_Color(_Right(_Pnode)) == _Black

  00649	e9 12 01 00 00	 jmp	 $L188736
$L188738:

; 714  : 						&& _Color(_Left(_Pnode)) == _Black)

  0064e	8b 45 e0	 mov	 eax, DWORD PTR __Pnode$[ebp]
  00651	50		 push	 eax
  00652	e8 00 00 00 00	 call	 ?_Right@?$_Tree@V?$_Tmap_traits@HPAVBaseDialog@@U?$less@H@std@@V?$allocator@U?$pair@$$CBHPAVBaseDialog@@@std@@@3@$0A@@std@@@std@@KAAAPAU_Node@?$_Tree_nod@V?$_Tmap_traits@HPAVBaseDialog@@U?$less@H@std@@V?$allocator@U?$pair@$$CBHPAVBaseDialog@@@std@@@3@$0A@@std@@@2@PAU342@@Z ; std::_Tree<std::_Tmap_traits<int,BaseDialog *,std::less<int>,std::allocator<std::pair<int const ,BaseDialog *> >,0> >::_Right
  00657	83 c4 04	 add	 esp, 4
  0065a	8b 08		 mov	 ecx, DWORD PTR [eax]
  0065c	51		 push	 ecx
  0065d	e8 00 00 00 00	 call	 ?_Color@?$_Tree@V?$_Tmap_traits@HPAVBaseDialog@@U?$less@H@std@@V?$allocator@U?$pair@$$CBHPAVBaseDialog@@@std@@@3@$0A@@std@@@std@@KAAADPAU_Node@?$_Tree_nod@V?$_Tmap_traits@HPAVBaseDialog@@U?$less@H@std@@V?$allocator@U?$pair@$$CBHPAVBaseDialog@@@std@@@3@$0A@@std@@@2@@Z ; std::_Tree<std::_Tmap_traits<int,BaseDialog *,std::less<int>,std::allocator<std::pair<int const ,BaseDialog *> >,0> >::_Color
  00662	83 c4 04	 add	 esp, 4
  00665	0f be 10	 movsx	 edx, BYTE PTR [eax]
  00668	83 fa 01	 cmp	 edx, 1
  0066b	75 39		 jne	 SHORT $L188740
  0066d	8b 45 e0	 mov	 eax, DWORD PTR __Pnode$[ebp]
  00670	50		 push	 eax
  00671	e8 00 00 00 00	 call	 ?_Left@?$_Tree@V?$_Tmap_traits@HPAVBaseDialog@@U?$less@H@std@@V?$allocator@U?$pair@$$CBHPAVBaseDialog@@@std@@@3@$0A@@std@@@std@@KAAAPAU_Node@?$_Tree_nod@V?$_Tmap_traits@HPAVBaseDialog@@U?$less@H@std@@V?$allocator@U?$pair@$$CBHPAVBaseDialog@@@std@@@3@$0A@@std@@@2@PAU342@@Z ; std::_Tree<std::_Tmap_traits<int,BaseDialog *,std::less<int>,std::allocator<std::pair<int const ,BaseDialog *> >,0> >::_Left
  00676	83 c4 04	 add	 esp, 4
  00679	8b 08		 mov	 ecx, DWORD PTR [eax]
  0067b	51		 push	 ecx
  0067c	e8 00 00 00 00	 call	 ?_Color@?$_Tree@V?$_Tmap_traits@HPAVBaseDialog@@U?$less@H@std@@V?$allocator@U?$pair@$$CBHPAVBaseDialog@@@std@@@3@$0A@@std@@@std@@KAAADPAU_Node@?$_Tree_nod@V?$_Tmap_traits@HPAVBaseDialog@@U?$less@H@std@@V?$allocator@U?$pair@$$CBHPAVBaseDialog@@@std@@@3@$0A@@std@@@2@@Z ; std::_Tree<std::_Tmap_traits<int,BaseDialog *,std::less<int>,std::allocator<std::pair<int const ,BaseDialog *> >,0> >::_Color
  00681	83 c4 04	 add	 esp, 4
  00684	0f be 10	 movsx	 edx, BYTE PTR [eax]
  00687	83 fa 01	 cmp	 edx, 1
  0068a	75 1a		 jne	 SHORT $L188740

; 715  : 						{	// redden left subtree with black children
; 716  : 						_Color(_Pnode) = _Red;

  0068c	8b 45 e0	 mov	 eax, DWORD PTR __Pnode$[ebp]
  0068f	50		 push	 eax
  00690	e8 00 00 00 00	 call	 ?_Color@?$_Tree@V?$_Tmap_traits@HPAVBaseDialog@@U?$less@H@std@@V?$allocator@U?$pair@$$CBHPAVBaseDialog@@@std@@@3@$0A@@std@@@std@@KAAADPAU_Node@?$_Tree_nod@V?$_Tmap_traits@HPAVBaseDialog@@U?$less@H@std@@V?$allocator@U?$pair@$$CBHPAVBaseDialog@@@std@@@3@$0A@@std@@@2@@Z ; std::_Tree<std::_Tmap_traits<int,BaseDialog *,std::less<int>,std::allocator<std::pair<int const ,BaseDialog *> >,0> >::_Color
  00695	83 c4 04	 add	 esp, 4
  00698	c6 00 00	 mov	 BYTE PTR [eax], 0

; 717  : 						_Fixnode = _Fixnodeparent;

  0069b	8b 4d e4	 mov	 ecx, DWORD PTR __Fixnodeparent$[ebp]
  0069e	89 4d e8	 mov	 DWORD PTR __Fixnode$[ebp], ecx

; 718  : 						}
; 719  : 					else

  006a1	e9 ba 00 00 00	 jmp	 $L188736
$L188740:

; 720  : 						{	// must rearrange left subtree
; 721  : 						if (_Color(_Left(_Pnode)) == _Black)

  006a6	8b 55 e0	 mov	 edx, DWORD PTR __Pnode$[ebp]
  006a9	52		 push	 edx
  006aa	e8 00 00 00 00	 call	 ?_Left@?$_Tree@V?$_Tmap_traits@HPAVBaseDialog@@U?$less@H@std@@V?$allocator@U?$pair@$$CBHPAVBaseDialog@@@std@@@3@$0A@@std@@@std@@KAAAPAU_Node@?$_Tree_nod@V?$_Tmap_traits@HPAVBaseDialog@@U?$less@H@std@@V?$allocator@U?$pair@$$CBHPAVBaseDialog@@@std@@@3@$0A@@std@@@2@PAU342@@Z ; std::_Tree<std::_Tmap_traits<int,BaseDialog *,std::less<int>,std::allocator<std::pair<int const ,BaseDialog *> >,0> >::_Left
  006af	83 c4 04	 add	 esp, 4
  006b2	8b 00		 mov	 eax, DWORD PTR [eax]
  006b4	50		 push	 eax
  006b5	e8 00 00 00 00	 call	 ?_Color@?$_Tree@V?$_Tmap_traits@HPAVBaseDialog@@U?$less@H@std@@V?$allocator@U?$pair@$$CBHPAVBaseDialog@@@std@@@3@$0A@@std@@@std@@KAAADPAU_Node@?$_Tree_nod@V?$_Tmap_traits@HPAVBaseDialog@@U?$less@H@std@@V?$allocator@U?$pair@$$CBHPAVBaseDialog@@@std@@@3@$0A@@std@@@2@@Z ; std::_Tree<std::_Tmap_traits<int,BaseDialog *,std::less<int>,std::allocator<std::pair<int const ,BaseDialog *> >,0> >::_Color
  006ba	83 c4 04	 add	 esp, 4
  006bd	0f be 08	 movsx	 ecx, BYTE PTR [eax]
  006c0	83 f9 01	 cmp	 ecx, 1
  006c3	75 46		 jne	 SHORT $L188742

; 722  : 							{	// rotate red up from right sub-subtree
; 723  : 							_Color(_Right(_Pnode)) = _Black;

  006c5	8b 55 e0	 mov	 edx, DWORD PTR __Pnode$[ebp]
  006c8	52		 push	 edx
  006c9	e8 00 00 00 00	 call	 ?_Right@?$_Tree@V?$_Tmap_traits@HPAVBaseDialog@@U?$less@H@std@@V?$allocator@U?$pair@$$CBHPAVBaseDialog@@@std@@@3@$0A@@std@@@std@@KAAAPAU_Node@?$_Tree_nod@V?$_Tmap_traits@HPAVBaseDialog@@U?$less@H@std@@V?$allocator@U?$pair@$$CBHPAVBaseDialog@@@std@@@3@$0A@@std@@@2@PAU342@@Z ; std::_Tree<std::_Tmap_traits<int,BaseDialog *,std::less<int>,std::allocator<std::pair<int const ,BaseDialog *> >,0> >::_Right
  006ce	83 c4 04	 add	 esp, 4
  006d1	8b 00		 mov	 eax, DWORD PTR [eax]
  006d3	50		 push	 eax
  006d4	e8 00 00 00 00	 call	 ?_Color@?$_Tree@V?$_Tmap_traits@HPAVBaseDialog@@U?$less@H@std@@V?$allocator@U?$pair@$$CBHPAVBaseDialog@@@std@@@3@$0A@@std@@@std@@KAAADPAU_Node@?$_Tree_nod@V?$_Tmap_traits@HPAVBaseDialog@@U?$less@H@std@@V?$allocator@U?$pair@$$CBHPAVBaseDialog@@@std@@@3@$0A@@std@@@2@@Z ; std::_Tree<std::_Tmap_traits<int,BaseDialog *,std::less<int>,std::allocator<std::pair<int const ,BaseDialog *> >,0> >::_Color
  006d9	83 c4 04	 add	 esp, 4
  006dc	c6 00 01	 mov	 BYTE PTR [eax], 1

; 724  : 							_Color(_Pnode) = _Red;

  006df	8b 4d e0	 mov	 ecx, DWORD PTR __Pnode$[ebp]
  006e2	51		 push	 ecx
  006e3	e8 00 00 00 00	 call	 ?_Color@?$_Tree@V?$_Tmap_traits@HPAVBaseDialog@@U?$less@H@std@@V?$allocator@U?$pair@$$CBHPAVBaseDialog@@@std@@@3@$0A@@std@@@std@@KAAADPAU_Node@?$_Tree_nod@V?$_Tmap_traits@HPAVBaseDialog@@U?$less@H@std@@V?$allocator@U?$pair@$$CBHPAVBaseDialog@@@std@@@3@$0A@@std@@@2@@Z ; std::_Tree<std::_Tmap_traits<int,BaseDialog *,std::less<int>,std::allocator<std::pair<int const ,BaseDialog *> >,0> >::_Color
  006e8	83 c4 04	 add	 esp, 4
  006eb	c6 00 00	 mov	 BYTE PTR [eax], 0

; 725  : 							_Lrotate(_Pnode);

  006ee	8b 55 e0	 mov	 edx, DWORD PTR __Pnode$[ebp]
  006f1	52		 push	 edx
  006f2	8b 4d f0	 mov	 ecx, DWORD PTR _this$[ebp]
  006f5	e8 00 00 00 00	 call	 ?_Lrotate@?$_Tree@V?$_Tmap_traits@HPAVBaseDialog@@U?$less@H@std@@V?$allocator@U?$pair@$$CBHPAVBaseDialog@@@std@@@3@$0A@@std@@@std@@IAEXPAU_Node@?$_Tree_nod@V?$_Tmap_traits@HPAVBaseDialog@@U?$less@H@std@@V?$allocator@U?$pair@$$CBHPAVBaseDialog@@@std@@@3@$0A@@std@@@2@@Z ; std::_Tree<std::_Tmap_traits<int,BaseDialog *,std::less<int>,std::allocator<std::pair<int const ,BaseDialog *> >,0> >::_Lrotate

; 726  : 							_Pnode = _Left(_Fixnodeparent);

  006fa	8b 45 e4	 mov	 eax, DWORD PTR __Fixnodeparent$[ebp]
  006fd	50		 push	 eax
  006fe	e8 00 00 00 00	 call	 ?_Left@?$_Tree@V?$_Tmap_traits@HPAVBaseDialog@@U?$less@H@std@@V?$allocator@U?$pair@$$CBHPAVBaseDialog@@@std@@@3@$0A@@std@@@std@@KAAAPAU_Node@?$_Tree_nod@V?$_Tmap_traits@HPAVBaseDialog@@U?$less@H@std@@V?$allocator@U?$pair@$$CBHPAVBaseDialog@@@std@@@3@$0A@@std@@@2@PAU342@@Z ; std::_Tree<std::_Tmap_traits<int,BaseDialog *,std::less<int>,std::allocator<std::pair<int const ,BaseDialog *> >,0> >::_Left
  00703	83 c4 04	 add	 esp, 4
  00706	8b 08		 mov	 ecx, DWORD PTR [eax]
  00708	89 4d e0	 mov	 DWORD PTR __Pnode$[ebp], ecx
$L188742:

; 727  : 							}
; 728  : 
; 729  : 						_Color(_Pnode) = _Color(_Fixnodeparent);

  0070b	8b 55 e4	 mov	 edx, DWORD PTR __Fixnodeparent$[ebp]
  0070e	52		 push	 edx
  0070f	e8 00 00 00 00	 call	 ?_Color@?$_Tree@V?$_Tmap_traits@HPAVBaseDialog@@U?$less@H@std@@V?$allocator@U?$pair@$$CBHPAVBaseDialog@@@std@@@3@$0A@@std@@@std@@KAAADPAU_Node@?$_Tree_nod@V?$_Tmap_traits@HPAVBaseDialog@@U?$less@H@std@@V?$allocator@U?$pair@$$CBHPAVBaseDialog@@@std@@@3@$0A@@std@@@2@@Z ; std::_Tree<std::_Tmap_traits<int,BaseDialog *,std::less<int>,std::allocator<std::pair<int const ,BaseDialog *> >,0> >::_Color
  00714	83 c4 04	 add	 esp, 4
  00717	8b f0		 mov	 esi, eax
  00719	8b 45 e0	 mov	 eax, DWORD PTR __Pnode$[ebp]
  0071c	50		 push	 eax
  0071d	e8 00 00 00 00	 call	 ?_Color@?$_Tree@V?$_Tmap_traits@HPAVBaseDialog@@U?$less@H@std@@V?$allocator@U?$pair@$$CBHPAVBaseDialog@@@std@@@3@$0A@@std@@@std@@KAAADPAU_Node@?$_Tree_nod@V?$_Tmap_traits@HPAVBaseDialog@@U?$less@H@std@@V?$allocator@U?$pair@$$CBHPAVBaseDialog@@@std@@@3@$0A@@std@@@2@@Z ; std::_Tree<std::_Tmap_traits<int,BaseDialog *,std::less<int>,std::allocator<std::pair<int const ,BaseDialog *> >,0> >::_Color
  00722	83 c4 04	 add	 esp, 4
  00725	8a 0e		 mov	 cl, BYTE PTR [esi]
  00727	88 08		 mov	 BYTE PTR [eax], cl

; 730  : 						_Color(_Fixnodeparent) = _Black;

  00729	8b 55 e4	 mov	 edx, DWORD PTR __Fixnodeparent$[ebp]
  0072c	52		 push	 edx
  0072d	e8 00 00 00 00	 call	 ?_Color@?$_Tree@V?$_Tmap_traits@HPAVBaseDialog@@U?$less@H@std@@V?$allocator@U?$pair@$$CBHPAVBaseDialog@@@std@@@3@$0A@@std@@@std@@KAAADPAU_Node@?$_Tree_nod@V?$_Tmap_traits@HPAVBaseDialog@@U?$less@H@std@@V?$allocator@U?$pair@$$CBHPAVBaseDialog@@@std@@@3@$0A@@std@@@2@@Z ; std::_Tree<std::_Tmap_traits<int,BaseDialog *,std::less<int>,std::allocator<std::pair<int const ,BaseDialog *> >,0> >::_Color
  00732	83 c4 04	 add	 esp, 4
  00735	c6 00 01	 mov	 BYTE PTR [eax], 1

; 731  : 						_Color(_Left(_Pnode)) = _Black;

  00738	8b 45 e0	 mov	 eax, DWORD PTR __Pnode$[ebp]
  0073b	50		 push	 eax
  0073c	e8 00 00 00 00	 call	 ?_Left@?$_Tree@V?$_Tmap_traits@HPAVBaseDialog@@U?$less@H@std@@V?$allocator@U?$pair@$$CBHPAVBaseDialog@@@std@@@3@$0A@@std@@@std@@KAAAPAU_Node@?$_Tree_nod@V?$_Tmap_traits@HPAVBaseDialog@@U?$less@H@std@@V?$allocator@U?$pair@$$CBHPAVBaseDialog@@@std@@@3@$0A@@std@@@2@PAU342@@Z ; std::_Tree<std::_Tmap_traits<int,BaseDialog *,std::less<int>,std::allocator<std::pair<int const ,BaseDialog *> >,0> >::_Left
  00741	83 c4 04	 add	 esp, 4
  00744	8b 08		 mov	 ecx, DWORD PTR [eax]
  00746	51		 push	 ecx
  00747	e8 00 00 00 00	 call	 ?_Color@?$_Tree@V?$_Tmap_traits@HPAVBaseDialog@@U?$less@H@std@@V?$allocator@U?$pair@$$CBHPAVBaseDialog@@@std@@@3@$0A@@std@@@std@@KAAADPAU_Node@?$_Tree_nod@V?$_Tmap_traits@HPAVBaseDialog@@U?$less@H@std@@V?$allocator@U?$pair@$$CBHPAVBaseDialog@@@std@@@3@$0A@@std@@@2@@Z ; std::_Tree<std::_Tmap_traits<int,BaseDialog *,std::less<int>,std::allocator<std::pair<int const ,BaseDialog *> >,0> >::_Color
  0074c	83 c4 04	 add	 esp, 4
  0074f	c6 00 01	 mov	 BYTE PTR [eax], 1

; 732  : 						_Rrotate(_Fixnodeparent);

  00752	8b 55 e4	 mov	 edx, DWORD PTR __Fixnodeparent$[ebp]
  00755	52		 push	 edx
  00756	8b 4d f0	 mov	 ecx, DWORD PTR _this$[ebp]
  00759	e8 00 00 00 00	 call	 ?_Rrotate@?$_Tree@V?$_Tmap_traits@HPAVBaseDialog@@U?$less@H@std@@V?$allocator@U?$pair@$$CBHPAVBaseDialog@@@std@@@3@$0A@@std@@@std@@IAEXPAU_Node@?$_Tree_nod@V?$_Tmap_traits@HPAVBaseDialog@@U?$less@H@std@@V?$allocator@U?$pair@$$CBHPAVBaseDialog@@@std@@@3@$0A@@std@@@2@@Z ; std::_Tree<std::_Tmap_traits<int,BaseDialog *,std::less<int>,std::allocator<std::pair<int const ,BaseDialog *> >,0> >::_Rrotate

; 733  : 						break;	// tree now recolored/rebalanced

  0075e	eb 05		 jmp	 SHORT $L188728
$L188736:

; 734  : 						}
; 735  : 					}

  00760	e9 82 fc ff ff	 jmp	 $L188727
$L188728:

; 736  : 
; 737  : 			_Color(_Fixnode) = _Black;	// ensure stopping node is black

  00765	8b 45 e8	 mov	 eax, DWORD PTR __Fixnode$[ebp]
  00768	50		 push	 eax
  00769	e8 00 00 00 00	 call	 ?_Color@?$_Tree@V?$_Tmap_traits@HPAVBaseDialog@@U?$less@H@std@@V?$allocator@U?$pair@$$CBHPAVBaseDialog@@@std@@@3@$0A@@std@@@std@@KAAADPAU_Node@?$_Tree_nod@V?$_Tmap_traits@HPAVBaseDialog@@U?$less@H@std@@V?$allocator@U?$pair@$$CBHPAVBaseDialog@@@std@@@3@$0A@@std@@@2@@Z ; std::_Tree<std::_Tmap_traits<int,BaseDialog *,std::less<int>,std::allocator<std::pair<int const ,BaseDialog *> >,0> >::_Color
  0076e	83 c4 04	 add	 esp, 4
  00771	c6 00 01	 mov	 BYTE PTR [eax], 1
$L188725:

; 738  : 			}
; 739  : 
; 740  : 		this->_Alnod.destroy(_Erasednode);	// destroy, free erased node

  00774	8b 4d ec	 mov	 ecx, DWORD PTR __Erasednode$[ebp]
  00777	51		 push	 ecx
  00778	8b 4d f0	 mov	 ecx, DWORD PTR _this$[ebp]
  0077b	83 c1 01	 add	 ecx, 1
  0077e	e8 00 00 00 00	 call	 ?destroy@?$allocator@U_Node@?$_Tree_nod@V?$_Tmap_traits@HPAVBaseDialog@@U?$less@H@std@@V?$allocator@U?$pair@$$CBHPAVBaseDialog@@@std@@@3@$0A@@std@@@std@@@std@@QAEXPAU_Node@?$_Tree_nod@V?$_Tmap_traits@HPAVBaseDialog@@U?$less@H@std@@V?$allocator@U?$pair@$$CBHPAVBaseDialog@@@std@@@3@$0A@@std@@@2@@Z ; std::allocator<std::_Tree_nod<std::_Tmap_traits<int,BaseDialog *,std::less<int>,std::allocator<std::pair<int const ,BaseDialog *> >,0> >::_Node>::destroy

; 741  : 		this->_Alnod.deallocate(_Erasednode, 1);

  00783	6a 01		 push	 1
  00785	8b 55 ec	 mov	 edx, DWORD PTR __Erasednode$[ebp]
  00788	52		 push	 edx
  00789	8b 4d f0	 mov	 ecx, DWORD PTR _this$[ebp]
  0078c	83 c1 01	 add	 ecx, 1
  0078f	e8 00 00 00 00	 call	 ?deallocate@?$allocator@U_Node@?$_Tree_nod@V?$_Tmap_traits@HPAVBaseDialog@@U?$less@H@std@@V?$allocator@U?$pair@$$CBHPAVBaseDialog@@@std@@@3@$0A@@std@@@std@@@std@@QAEXPAU_Node@?$_Tree_nod@V?$_Tmap_traits@HPAVBaseDialog@@U?$less@H@std@@V?$allocator@U?$pair@$$CBHPAVBaseDialog@@@std@@@3@$0A@@std@@@2@I@Z ; std::allocator<std::_Tree_nod<std::_Tmap_traits<int,BaseDialog *,std::less<int>,std::allocator<std::pair<int const ,BaseDialog *> >,0> >::_Node>::deallocate

; 742  : 
; 743  : 		if (0 < _Mysize)

  00794	8b 45 f0	 mov	 eax, DWORD PTR _this$[ebp]
  00797	83 78 08 00	 cmp	 DWORD PTR [eax+8], 0
  0079b	76 0f		 jbe	 SHORT $L188743

; 744  : 			--_Mysize;

  0079d	8b 4d f0	 mov	 ecx, DWORD PTR _this$[ebp]
  007a0	8b 51 08	 mov	 edx, DWORD PTR [ecx+8]
  007a3	83 ea 01	 sub	 edx, 1
  007a6	8b 45 f0	 mov	 eax, DWORD PTR _this$[ebp]
  007a9	89 50 08	 mov	 DWORD PTR [eax+8], edx
$L188743:

; 745  : 
; 746  : 		return (_Where);	// return successor iterator

  007ac	8b 4d 08	 mov	 ecx, DWORD PTR ___$ReturnUdt$[ebp]
  007af	8b 55 0c	 mov	 edx, DWORD PTR __Where$[ebp]
  007b2	89 11		 mov	 DWORD PTR [ecx], edx
  007b4	8b 45 08	 mov	 eax, DWORD PTR ___$ReturnUdt$[ebp]
$L189632:

; 747  : 		}

  007b7	8b 4d f4	 mov	 ecx, DWORD PTR __$EHRec$[ebp]
  007ba	64 89 0d 00 00
	00 00		 mov	 DWORD PTR fs:__except_list, ecx
  007c1	5f		 pop	 edi
  007c2	5e		 pop	 esi
  007c3	83 c4 6c	 add	 esp, 108		; 0000006cH
  007c6	3b ec		 cmp	 ebp, esp
  007c8	e8 00 00 00 00	 call	 __RTC_CheckEsp
  007cd	8b e5		 mov	 esp, ebp
  007cf	5d		 pop	 ebp
  007d0	c2 08 00	 ret	 8
_TEXT	ENDS
;	COMDAT text$x
text$x	SEGMENT
$L189639:
  00000	8b f4		 mov	 esi, esp
  00002	8d 4d 9c	 lea	 ecx, DWORD PTR $T189634[ebp]
  00005	ff 15 00 00 00
	00		 call	 DWORD PTR __imp_??1?$basic_string@DU?$char_traits@D@std@@V?$allocator@D@2@@std@@QAE@XZ
  0000b	3b f4		 cmp	 esi, esp
  0000d	e9 00 00 00 00	 jmp	 __RTC_CheckEsp
__ehhandler$?erase@?$_Tree@V?$_Tmap_traits@HPAVBaseDialog@@U?$less@H@std@@V?$allocator@U?$pair@$$CBHPAVBaseDialog@@@std@@@3@$0A@@std@@@std@@QAE?AViterator@12@V312@@Z:
  00012	b8 00 00 00 00	 mov	 eax, OFFSET FLAT:$T189641
  00017	e9 00 00 00 00	 jmp	 ___CxxFrameHandler
text$x	ENDS
?erase@?$_Tree@V?$_Tmap_traits@HPAVBaseDialog@@U?$less@H@std@@V?$allocator@U?$pair@$$CBHPAVBaseDialog@@@std@@@3@$0A@@std@@@std@@QAE?AViterator@12@V312@@Z ENDP ; std::_Tree<std::_Tmap_traits<int,BaseDialog *,std::less<int>,std::allocator<std::pair<int const ,BaseDialog *> >,0> >::erase
PUBLIC	?_Erase@?$_Tree@V?$_Tmap_traits@HPAVBaseDialog@@U?$less@H@std@@V?$allocator@U?$pair@$$CBHPAVBaseDialog@@@std@@@3@$0A@@std@@@std@@IAEXPAU_Node@?$_Tree_nod@V?$_Tmap_traits@HPAVBaseDialog@@U?$less@H@std@@V?$allocator@U?$pair@$$CBHPAVBaseDialog@@@std@@@3@$0A@@std@@@2@@Z ; std::_Tree<std::_Tmap_traits<int,BaseDialog *,std::less<int>,std::allocator<std::pair<int const ,BaseDialog *> >,0> >::_Erase
; Function compile flags: /Odt /RTCsu
;	COMDAT ?clear@?$_Tree@V?$_Tmap_traits@HPAVBaseDialog@@U?$less@H@std@@V?$allocator@U?$pair@$$CBHPAVBaseDialog@@@std@@@3@$0A@@std@@@std@@QAEXXZ
_TEXT	SEGMENT
_this$ = -4						; size = 4
?clear@?$_Tree@V?$_Tmap_traits@HPAVBaseDialog@@U?$less@H@std@@V?$allocator@U?$pair@$$CBHPAVBaseDialog@@@std@@@3@$0A@@std@@@std@@QAEXXZ PROC NEAR ; std::_Tree<std::_Tmap_traits<int,BaseDialog *,std::less<int>,std::allocator<std::pair<int const ,BaseDialog *> >,0> >::clear, COMDAT
; _this$ = ecx

; 780  : 		{	// erase all

  00000	55		 push	 ebp
  00001	8b ec		 mov	 ebp, esp
  00003	51		 push	 ecx
  00004	c7 45 fc cc cc
	cc cc		 mov	 DWORD PTR [ebp-4], -858993460 ; ccccccccH
  0000b	89 4d fc	 mov	 DWORD PTR _this$[ebp], ecx

; 781  : 		_Erase(_Root());

  0000e	8b 4d fc	 mov	 ecx, DWORD PTR _this$[ebp]
  00011	e8 00 00 00 00	 call	 ?_Root@?$_Tree@V?$_Tmap_traits@HPAVBaseDialog@@U?$less@H@std@@V?$allocator@U?$pair@$$CBHPAVBaseDialog@@@std@@@3@$0A@@std@@@std@@IAEAAPAU_Node@?$_Tree_nod@V?$_Tmap_traits@HPAVBaseDialog@@U?$less@H@std@@V?$allocator@U?$pair@$$CBHPAVBaseDialog@@@std@@@3@$0A@@std@@@2@XZ ; std::_Tree<std::_Tmap_traits<int,BaseDialog *,std::less<int>,std::allocator<std::pair<int const ,BaseDialog *> >,0> >::_Root
  00016	8b 00		 mov	 eax, DWORD PTR [eax]
  00018	50		 push	 eax
  00019	8b 4d fc	 mov	 ecx, DWORD PTR _this$[ebp]
  0001c	e8 00 00 00 00	 call	 ?_Erase@?$_Tree@V?$_Tmap_traits@HPAVBaseDialog@@U?$less@H@std@@V?$allocator@U?$pair@$$CBHPAVBaseDialog@@@std@@@3@$0A@@std@@@std@@IAEXPAU_Node@?$_Tree_nod@V?$_Tmap_traits@HPAVBaseDialog@@U?$less@H@std@@V?$allocator@U?$pair@$$CBHPAVBaseDialog@@@std@@@3@$0A@@std@@@2@@Z ; std::_Tree<std::_Tmap_traits<int,BaseDialog *,std::less<int>,std::allocator<std::pair<int const ,BaseDialog *> >,0> >::_Erase

; 782  : 		_Root() = _Myhead, _Mysize = 0;

  00021	8b 4d fc	 mov	 ecx, DWORD PTR _this$[ebp]
  00024	e8 00 00 00 00	 call	 ?_Root@?$_Tree@V?$_Tmap_traits@HPAVBaseDialog@@U?$less@H@std@@V?$allocator@U?$pair@$$CBHPAVBaseDialog@@@std@@@3@$0A@@std@@@std@@IAEAAPAU_Node@?$_Tree_nod@V?$_Tmap_traits@HPAVBaseDialog@@U?$less@H@std@@V?$allocator@U?$pair@$$CBHPAVBaseDialog@@@std@@@3@$0A@@std@@@2@XZ ; std::_Tree<std::_Tmap_traits<int,BaseDialog *,std::less<int>,std::allocator<std::pair<int const ,BaseDialog *> >,0> >::_Root
  00029	8b 4d fc	 mov	 ecx, DWORD PTR _this$[ebp]
  0002c	8b 51 04	 mov	 edx, DWORD PTR [ecx+4]
  0002f	89 10		 mov	 DWORD PTR [eax], edx
  00031	8b 45 fc	 mov	 eax, DWORD PTR _this$[ebp]
  00034	c7 40 08 00 00
	00 00		 mov	 DWORD PTR [eax+8], 0

; 783  : 		_Lmost() = _Myhead, _Rmost() = _Myhead;

  0003b	8b 4d fc	 mov	 ecx, DWORD PTR _this$[ebp]
  0003e	e8 00 00 00 00	 call	 ?_Lmost@?$_Tree@V?$_Tmap_traits@HPAVBaseDialog@@U?$less@H@std@@V?$allocator@U?$pair@$$CBHPAVBaseDialog@@@std@@@3@$0A@@std@@@std@@IAEAAPAU_Node@?$_Tree_nod@V?$_Tmap_traits@HPAVBaseDialog@@U?$less@H@std@@V?$allocator@U?$pair@$$CBHPAVBaseDialog@@@std@@@3@$0A@@std@@@2@XZ ; std::_Tree<std::_Tmap_traits<int,BaseDialog *,std::less<int>,std::allocator<std::pair<int const ,BaseDialog *> >,0> >::_Lmost
  00043	8b 4d fc	 mov	 ecx, DWORD PTR _this$[ebp]
  00046	8b 51 04	 mov	 edx, DWORD PTR [ecx+4]
  00049	89 10		 mov	 DWORD PTR [eax], edx
  0004b	8b 4d fc	 mov	 ecx, DWORD PTR _this$[ebp]
  0004e	e8 00 00 00 00	 call	 ?_Rmost@?$_Tree@V?$_Tmap_traits@HPAVBaseDialog@@U?$less@H@std@@V?$allocator@U?$pair@$$CBHPAVBaseDialog@@@std@@@3@$0A@@std@@@std@@IAEAAPAU_Node@?$_Tree_nod@V?$_Tmap_traits@HPAVBaseDialog@@U?$less@H@std@@V?$allocator@U?$pair@$$CBHPAVBaseDialog@@@std@@@3@$0A@@std@@@2@XZ ; std::_Tree<std::_Tmap_traits<int,BaseDialog *,std::less<int>,std::allocator<std::pair<int const ,BaseDialog *> >,0> >::_Rmost
  00053	8b 4d fc	 mov	 ecx, DWORD PTR _this$[ebp]
  00056	8b 51 04	 mov	 edx, DWORD PTR [ecx+4]
  00059	89 10		 mov	 DWORD PTR [eax], edx

; 784  : 		}

  0005b	83 c4 04	 add	 esp, 4
  0005e	3b ec		 cmp	 ebp, esp
  00060	e8 00 00 00 00	 call	 __RTC_CheckEsp
  00065	8b e5		 mov	 esp, ebp
  00067	5d		 pop	 ebp
  00068	c3		 ret	 0
?clear@?$_Tree@V?$_Tmap_traits@HPAVBaseDialog@@U?$less@H@std@@V?$allocator@U?$pair@$$CBHPAVBaseDialog@@@std@@@3@$0A@@std@@@std@@QAEXXZ ENDP ; std::_Tree<std::_Tmap_traits<int,BaseDialog *,std::less<int>,std::allocator<std::pair<int const ,BaseDialog *> >,0> >::clear
; Function compile flags: /Odt /RTCsu
_TEXT	ENDS
;	COMDAT ?_Lmost@?$_Tree@V?$_Tmap_traits@HPAVBaseDialog@@U?$less@H@std@@V?$allocator@U?$pair@$$CBHPAVBaseDialog@@@std@@@3@$0A@@std@@@std@@IAEAAPAU_Node@?$_Tree_nod@V?$_Tmap_traits@HPAVBaseDialog@@U?$less@H@std@@V?$allocator@U?$pair@$$CBHPAVBaseDialog@@@std@@@3@$0A@@std@@@2@XZ
_TEXT	SEGMENT
_this$ = -4						; size = 4
?_Lmost@?$_Tree@V?$_Tmap_traits@HPAVBaseDialog@@U?$less@H@std@@V?$allocator@U?$pair@$$CBHPAVBaseDialog@@@std@@@3@$0A@@std@@@std@@IAEAAPAU_Node@?$_Tree_nod@V?$_Tmap_traits@HPAVBaseDialog@@U?$less@H@std@@V?$allocator@U?$pair@$$CBHPAVBaseDialog@@@std@@@3@$0A@@std@@@2@XZ PROC NEAR ; std::_Tree<std::_Tmap_traits<int,BaseDialog *,std::less<int>,std::allocator<std::pair<int const ,BaseDialog *> >,0> >::_Lmost, COMDAT
; _this$ = ecx

; 1004 : 		{	// return leftmost node in mutable tree

  00000	55		 push	 ebp
  00001	8b ec		 mov	 ebp, esp
  00003	51		 push	 ecx
  00004	c7 45 fc cc cc
	cc cc		 mov	 DWORD PTR [ebp-4], -858993460 ; ccccccccH
  0000b	89 4d fc	 mov	 DWORD PTR _this$[ebp], ecx

; 1005 : 		return (_Left(_Myhead));

  0000e	8b 45 fc	 mov	 eax, DWORD PTR _this$[ebp]
  00011	8b 48 04	 mov	 ecx, DWORD PTR [eax+4]
  00014	51		 push	 ecx
  00015	e8 00 00 00 00	 call	 ?_Left@?$_Tree@V?$_Tmap_traits@HPAVBaseDialog@@U?$less@H@std@@V?$allocator@U?$pair@$$CBHPAVBaseDialog@@@std@@@3@$0A@@std@@@std@@KAAAPAU_Node@?$_Tree_nod@V?$_Tmap_traits@HPAVBaseDialog@@U?$less@H@std@@V?$allocator@U?$pair@$$CBHPAVBaseDialog@@@std@@@3@$0A@@std@@@2@PAU342@@Z ; std::_Tree<std::_Tmap_traits<int,BaseDialog *,std::less<int>,std::allocator<std::pair<int const ,BaseDialog *> >,0> >::_Left
  0001a	83 c4 04	 add	 esp, 4

; 1006 : 		}

  0001d	83 c4 04	 add	 esp, 4
  00020	3b ec		 cmp	 ebp, esp
  00022	e8 00 00 00 00	 call	 __RTC_CheckEsp
  00027	8b e5		 mov	 esp, ebp
  00029	5d		 pop	 ebp
  0002a	c3		 ret	 0
?_Lmost@?$_Tree@V?$_Tmap_traits@HPAVBaseDialog@@U?$less@H@std@@V?$allocator@U?$pair@$$CBHPAVBaseDialog@@@std@@@3@$0A@@std@@@std@@IAEAAPAU_Node@?$_Tree_nod@V?$_Tmap_traits@HPAVBaseDialog@@U?$less@H@std@@V?$allocator@U?$pair@$$CBHPAVBaseDialog@@@std@@@3@$0A@@std@@@2@XZ ENDP ; std::_Tree<std::_Tmap_traits<int,BaseDialog *,std::less<int>,std::allocator<std::pair<int const ,BaseDialog *> >,0> >::_Lmost
; Function compile flags: /Odt /RTCsu
_TEXT	ENDS
;	COMDAT ?_Lrotate@?$_Tree@V?$_Tmap_traits@HPAVBaseDialog@@U?$less@H@std@@V?$allocator@U?$pair@$$CBHPAVBaseDialog@@@std@@@3@$0A@@std@@@std@@IAEXPAU_Node@?$_Tree_nod@V?$_Tmap_traits@HPAVBaseDialog@@U?$less@H@std@@V?$allocator@U?$pair@$$CBHPAVBaseDialog@@@std@@@3@$0A@@std@@@2@@Z
_TEXT	SEGMENT
__Pnode$ = -8						; size = 4
_this$ = -4						; size = 4
__Wherenode$ = 8					; size = 4
?_Lrotate@?$_Tree@V?$_Tmap_traits@HPAVBaseDialog@@U?$less@H@std@@V?$allocator@U?$pair@$$CBHPAVBaseDialog@@@std@@@3@$0A@@std@@@std@@IAEXPAU_Node@?$_Tree_nod@V?$_Tmap_traits@HPAVBaseDialog@@U?$less@H@std@@V?$allocator@U?$pair@$$CBHPAVBaseDialog@@@std@@@3@$0A@@std@@@2@@Z PROC NEAR ; std::_Tree<std::_Tmap_traits<int,BaseDialog *,std::less<int>,std::allocator<std::pair<int const ,BaseDialog *> >,0> >::_Lrotate, COMDAT
; _this$ = ecx

; 1014 : 		{	// promote right node to root of subtree

  00000	55		 push	 ebp
  00001	8b ec		 mov	 ebp, esp
  00003	83 ec 08	 sub	 esp, 8
  00006	56		 push	 esi
  00007	c7 45 f8 cc cc
	cc cc		 mov	 DWORD PTR [ebp-8], -858993460 ; ccccccccH
  0000e	c7 45 fc cc cc
	cc cc		 mov	 DWORD PTR [ebp-4], -858993460 ; ccccccccH
  00015	89 4d fc	 mov	 DWORD PTR _this$[ebp], ecx

; 1015 : 		_Nodeptr _Pnode = _Right(_Wherenode);

  00018	8b 45 08	 mov	 eax, DWORD PTR __Wherenode$[ebp]
  0001b	50		 push	 eax
  0001c	e8 00 00 00 00	 call	 ?_Right@?$_Tree@V?$_Tmap_traits@HPAVBaseDialog@@U?$less@H@std@@V?$allocator@U?$pair@$$CBHPAVBaseDialog@@@std@@@3@$0A@@std@@@std@@KAAAPAU_Node@?$_Tree_nod@V?$_Tmap_traits@HPAVBaseDialog@@U?$less@H@std@@V?$allocator@U?$pair@$$CBHPAVBaseDialog@@@std@@@3@$0A@@std@@@2@PAU342@@Z ; std::_Tree<std::_Tmap_traits<int,BaseDialog *,std::less<int>,std::allocator<std::pair<int const ,BaseDialog *> >,0> >::_Right
  00021	83 c4 04	 add	 esp, 4
  00024	8b 08		 mov	 ecx, DWORD PTR [eax]
  00026	89 4d f8	 mov	 DWORD PTR __Pnode$[ebp], ecx

; 1016 : 		_Right(_Wherenode) = _Left(_Pnode);

  00029	8b 55 f8	 mov	 edx, DWORD PTR __Pnode$[ebp]
  0002c	52		 push	 edx
  0002d	e8 00 00 00 00	 call	 ?_Left@?$_Tree@V?$_Tmap_traits@HPAVBaseDialog@@U?$less@H@std@@V?$allocator@U?$pair@$$CBHPAVBaseDialog@@@std@@@3@$0A@@std@@@std@@KAAAPAU_Node@?$_Tree_nod@V?$_Tmap_traits@HPAVBaseDialog@@U?$less@H@std@@V?$allocator@U?$pair@$$CBHPAVBaseDialog@@@std@@@3@$0A@@std@@@2@PAU342@@Z ; std::_Tree<std::_Tmap_traits<int,BaseDialog *,std::less<int>,std::allocator<std::pair<int const ,BaseDialog *> >,0> >::_Left
  00032	83 c4 04	 add	 esp, 4
  00035	8b f0		 mov	 esi, eax
  00037	8b 45 08	 mov	 eax, DWORD PTR __Wherenode$[ebp]
  0003a	50		 push	 eax
  0003b	e8 00 00 00 00	 call	 ?_Right@?$_Tree@V?$_Tmap_traits@HPAVBaseDialog@@U?$less@H@std@@V?$allocator@U?$pair@$$CBHPAVBaseDialog@@@std@@@3@$0A@@std@@@std@@KAAAPAU_Node@?$_Tree_nod@V?$_Tmap_traits@HPAVBaseDialog@@U?$less@H@std@@V?$allocator@U?$pair@$$CBHPAVBaseDialog@@@std@@@3@$0A@@std@@@2@PAU342@@Z ; std::_Tree<std::_Tmap_traits<int,BaseDialog *,std::less<int>,std::allocator<std::pair<int const ,BaseDialog *> >,0> >::_Right
  00040	83 c4 04	 add	 esp, 4
  00043	8b 0e		 mov	 ecx, DWORD PTR [esi]
  00045	89 08		 mov	 DWORD PTR [eax], ecx

; 1017 : 
; 1018 : 		if (!_Isnil(_Left(_Pnode)))

  00047	8b 55 f8	 mov	 edx, DWORD PTR __Pnode$[ebp]
  0004a	52		 push	 edx
  0004b	e8 00 00 00 00	 call	 ?_Left@?$_Tree@V?$_Tmap_traits@HPAVBaseDialog@@U?$less@H@std@@V?$allocator@U?$pair@$$CBHPAVBaseDialog@@@std@@@3@$0A@@std@@@std@@KAAAPAU_Node@?$_Tree_nod@V?$_Tmap_traits@HPAVBaseDialog@@U?$less@H@std@@V?$allocator@U?$pair@$$CBHPAVBaseDialog@@@std@@@3@$0A@@std@@@2@PAU342@@Z ; std::_Tree<std::_Tmap_traits<int,BaseDialog *,std::less<int>,std::allocator<std::pair<int const ,BaseDialog *> >,0> >::_Left
  00050	83 c4 04	 add	 esp, 4
  00053	8b 00		 mov	 eax, DWORD PTR [eax]
  00055	50		 push	 eax
  00056	e8 00 00 00 00	 call	 ?_Isnil@?$_Tree@V?$_Tmap_traits@HPAVBaseDialog@@U?$less@H@std@@V?$allocator@U?$pair@$$CBHPAVBaseDialog@@@std@@@3@$0A@@std@@@std@@KAAADPAU_Node@?$_Tree_nod@V?$_Tmap_traits@HPAVBaseDialog@@U?$less@H@std@@V?$allocator@U?$pair@$$CBHPAVBaseDialog@@@std@@@3@$0A@@std@@@2@@Z ; std::_Tree<std::_Tmap_traits<int,BaseDialog *,std::less<int>,std::allocator<std::pair<int const ,BaseDialog *> >,0> >::_Isnil
  0005b	83 c4 04	 add	 esp, 4
  0005e	0f be 08	 movsx	 ecx, BYTE PTR [eax]
  00061	85 c9		 test	 ecx, ecx
  00063	75 1c		 jne	 SHORT $L188751

; 1019 : 			_Parent(_Left(_Pnode)) = _Wherenode;

  00065	8b 55 f8	 mov	 edx, DWORD PTR __Pnode$[ebp]
  00068	52		 push	 edx
  00069	e8 00 00 00 00	 call	 ?_Left@?$_Tree@V?$_Tmap_traits@HPAVBaseDialog@@U?$less@H@std@@V?$allocator@U?$pair@$$CBHPAVBaseDialog@@@std@@@3@$0A@@std@@@std@@KAAAPAU_Node@?$_Tree_nod@V?$_Tmap_traits@HPAVBaseDialog@@U?$less@H@std@@V?$allocator@U?$pair@$$CBHPAVBaseDialog@@@std@@@3@$0A@@std@@@2@PAU342@@Z ; std::_Tree<std::_Tmap_traits<int,BaseDialog *,std::less<int>,std::allocator<std::pair<int const ,BaseDialog *> >,0> >::_Left
  0006e	83 c4 04	 add	 esp, 4
  00071	8b 00		 mov	 eax, DWORD PTR [eax]
  00073	50		 push	 eax
  00074	e8 00 00 00 00	 call	 ?_Parent@?$_Tree@V?$_Tmap_traits@HPAVBaseDialog@@U?$less@H@std@@V?$allocator@U?$pair@$$CBHPAVBaseDialog@@@std@@@3@$0A@@std@@@std@@KAAAPAU_Node@?$_Tree_nod@V?$_Tmap_traits@HPAVBaseDialog@@U?$less@H@std@@V?$allocator@U?$pair@$$CBHPAVBaseDialog@@@std@@@3@$0A@@std@@@2@PAU342@@Z ; std::_Tree<std::_Tmap_traits<int,BaseDialog *,std::less<int>,std::allocator<std::pair<int const ,BaseDialog *> >,0> >::_Parent
  00079	83 c4 04	 add	 esp, 4
  0007c	8b 4d 08	 mov	 ecx, DWORD PTR __Wherenode$[ebp]
  0007f	89 08		 mov	 DWORD PTR [eax], ecx
$L188751:

; 1020 : 		_Parent(_Pnode) = _Parent(_Wherenode);

  00081	8b 55 08	 mov	 edx, DWORD PTR __Wherenode$[ebp]
  00084	52		 push	 edx
  00085	e8 00 00 00 00	 call	 ?_Parent@?$_Tree@V?$_Tmap_traits@HPAVBaseDialog@@U?$less@H@std@@V?$allocator@U?$pair@$$CBHPAVBaseDialog@@@std@@@3@$0A@@std@@@std@@KAAAPAU_Node@?$_Tree_nod@V?$_Tmap_traits@HPAVBaseDialog@@U?$less@H@std@@V?$allocator@U?$pair@$$CBHPAVBaseDialog@@@std@@@3@$0A@@std@@@2@PAU342@@Z ; std::_Tree<std::_Tmap_traits<int,BaseDialog *,std::less<int>,std::allocator<std::pair<int const ,BaseDialog *> >,0> >::_Parent
  0008a	83 c4 04	 add	 esp, 4
  0008d	8b f0		 mov	 esi, eax
  0008f	8b 45 f8	 mov	 eax, DWORD PTR __Pnode$[ebp]
  00092	50		 push	 eax
  00093	e8 00 00 00 00	 call	 ?_Parent@?$_Tree@V?$_Tmap_traits@HPAVBaseDialog@@U?$less@H@std@@V?$allocator@U?$pair@$$CBHPAVBaseDialog@@@std@@@3@$0A@@std@@@std@@KAAAPAU_Node@?$_Tree_nod@V?$_Tmap_traits@HPAVBaseDialog@@U?$less@H@std@@V?$allocator@U?$pair@$$CBHPAVBaseDialog@@@std@@@3@$0A@@std@@@2@PAU342@@Z ; std::_Tree<std::_Tmap_traits<int,BaseDialog *,std::less<int>,std::allocator<std::pair<int const ,BaseDialog *> >,0> >::_Parent
  00098	83 c4 04	 add	 esp, 4
  0009b	8b 0e		 mov	 ecx, DWORD PTR [esi]
  0009d	89 08		 mov	 DWORD PTR [eax], ecx

; 1021 : 
; 1022 : 		if (_Wherenode == _Root())

  0009f	8b 4d fc	 mov	 ecx, DWORD PTR _this$[ebp]
  000a2	e8 00 00 00 00	 call	 ?_Root@?$_Tree@V?$_Tmap_traits@HPAVBaseDialog@@U?$less@H@std@@V?$allocator@U?$pair@$$CBHPAVBaseDialog@@@std@@@3@$0A@@std@@@std@@IAEAAPAU_Node@?$_Tree_nod@V?$_Tmap_traits@HPAVBaseDialog@@U?$less@H@std@@V?$allocator@U?$pair@$$CBHPAVBaseDialog@@@std@@@3@$0A@@std@@@2@XZ ; std::_Tree<std::_Tmap_traits<int,BaseDialog *,std::less<int>,std::allocator<std::pair<int const ,BaseDialog *> >,0> >::_Root
  000a7	8b 55 08	 mov	 edx, DWORD PTR __Wherenode$[ebp]
  000aa	3b 10		 cmp	 edx, DWORD PTR [eax]
  000ac	75 0f		 jne	 SHORT $L188752

; 1023 : 			_Root() = _Pnode;

  000ae	8b 4d fc	 mov	 ecx, DWORD PTR _this$[ebp]
  000b1	e8 00 00 00 00	 call	 ?_Root@?$_Tree@V?$_Tmap_traits@HPAVBaseDialog@@U?$less@H@std@@V?$allocator@U?$pair@$$CBHPAVBaseDialog@@@std@@@3@$0A@@std@@@std@@IAEAAPAU_Node@?$_Tree_nod@V?$_Tmap_traits@HPAVBaseDialog@@U?$less@H@std@@V?$allocator@U?$pair@$$CBHPAVBaseDialog@@@std@@@3@$0A@@std@@@2@XZ ; std::_Tree<std::_Tmap_traits<int,BaseDialog *,std::less<int>,std::allocator<std::pair<int const ,BaseDialog *> >,0> >::_Root
  000b6	8b 4d f8	 mov	 ecx, DWORD PTR __Pnode$[ebp]
  000b9	89 08		 mov	 DWORD PTR [eax], ecx

; 1024 : 		else if (_Wherenode == _Left(_Parent(_Wherenode)))

  000bb	eb 58		 jmp	 SHORT $L188753
$L188752:
  000bd	8b 55 08	 mov	 edx, DWORD PTR __Wherenode$[ebp]
  000c0	52		 push	 edx
  000c1	e8 00 00 00 00	 call	 ?_Parent@?$_Tree@V?$_Tmap_traits@HPAVBaseDialog@@U?$less@H@std@@V?$allocator@U?$pair@$$CBHPAVBaseDialog@@@std@@@3@$0A@@std@@@std@@KAAAPAU_Node@?$_Tree_nod@V?$_Tmap_traits@HPAVBaseDialog@@U?$less@H@std@@V?$allocator@U?$pair@$$CBHPAVBaseDialog@@@std@@@3@$0A@@std@@@2@PAU342@@Z ; std::_Tree<std::_Tmap_traits<int,BaseDialog *,std::less<int>,std::allocator<std::pair<int const ,BaseDialog *> >,0> >::_Parent
  000c6	83 c4 04	 add	 esp, 4
  000c9	8b 00		 mov	 eax, DWORD PTR [eax]
  000cb	50		 push	 eax
  000cc	e8 00 00 00 00	 call	 ?_Left@?$_Tree@V?$_Tmap_traits@HPAVBaseDialog@@U?$less@H@std@@V?$allocator@U?$pair@$$CBHPAVBaseDialog@@@std@@@3@$0A@@std@@@std@@KAAAPAU_Node@?$_Tree_nod@V?$_Tmap_traits@HPAVBaseDialog@@U?$less@H@std@@V?$allocator@U?$pair@$$CBHPAVBaseDialog@@@std@@@3@$0A@@std@@@2@PAU342@@Z ; std::_Tree<std::_Tmap_traits<int,BaseDialog *,std::less<int>,std::allocator<std::pair<int const ,BaseDialog *> >,0> >::_Left
  000d1	83 c4 04	 add	 esp, 4
  000d4	8b 4d 08	 mov	 ecx, DWORD PTR __Wherenode$[ebp]
  000d7	3b 08		 cmp	 ecx, DWORD PTR [eax]
  000d9	75 1e		 jne	 SHORT $L188754

; 1025 : 			_Left(_Parent(_Wherenode)) = _Pnode;

  000db	8b 55 08	 mov	 edx, DWORD PTR __Wherenode$[ebp]
  000de	52		 push	 edx
  000df	e8 00 00 00 00	 call	 ?_Parent@?$_Tree@V?$_Tmap_traits@HPAVBaseDialog@@U?$less@H@std@@V?$allocator@U?$pair@$$CBHPAVBaseDialog@@@std@@@3@$0A@@std@@@std@@KAAAPAU_Node@?$_Tree_nod@V?$_Tmap_traits@HPAVBaseDialog@@U?$less@H@std@@V?$allocator@U?$pair@$$CBHPAVBaseDialog@@@std@@@3@$0A@@std@@@2@PAU342@@Z ; std::_Tree<std::_Tmap_traits<int,BaseDialog *,std::less<int>,std::allocator<std::pair<int const ,BaseDialog *> >,0> >::_Parent
  000e4	83 c4 04	 add	 esp, 4
  000e7	8b 00		 mov	 eax, DWORD PTR [eax]
  000e9	50		 push	 eax
  000ea	e8 00 00 00 00	 call	 ?_Left@?$_Tree@V?$_Tmap_traits@HPAVBaseDialog@@U?$less@H@std@@V?$allocator@U?$pair@$$CBHPAVBaseDialog@@@std@@@3@$0A@@std@@@std@@KAAAPAU_Node@?$_Tree_nod@V?$_Tmap_traits@HPAVBaseDialog@@U?$less@H@std@@V?$allocator@U?$pair@$$CBHPAVBaseDialog@@@std@@@3@$0A@@std@@@2@PAU342@@Z ; std::_Tree<std::_Tmap_traits<int,BaseDialog *,std::less<int>,std::allocator<std::pair<int const ,BaseDialog *> >,0> >::_Left
  000ef	83 c4 04	 add	 esp, 4
  000f2	8b 4d f8	 mov	 ecx, DWORD PTR __Pnode$[ebp]
  000f5	89 08		 mov	 DWORD PTR [eax], ecx

; 1026 : 		else

  000f7	eb 1c		 jmp	 SHORT $L188753
$L188754:

; 1027 : 			_Right(_Parent(_Wherenode)) = _Pnode;

  000f9	8b 55 08	 mov	 edx, DWORD PTR __Wherenode$[ebp]
  000fc	52		 push	 edx
  000fd	e8 00 00 00 00	 call	 ?_Parent@?$_Tree@V?$_Tmap_traits@HPAVBaseDialog@@U?$less@H@std@@V?$allocator@U?$pair@$$CBHPAVBaseDialog@@@std@@@3@$0A@@std@@@std@@KAAAPAU_Node@?$_Tree_nod@V?$_Tmap_traits@HPAVBaseDialog@@U?$less@H@std@@V?$allocator@U?$pair@$$CBHPAVBaseDialog@@@std@@@3@$0A@@std@@@2@PAU342@@Z ; std::_Tree<std::_Tmap_traits<int,BaseDialog *,std::less<int>,std::allocator<std::pair<int const ,BaseDialog *> >,0> >::_Parent
  00102	83 c4 04	 add	 esp, 4
  00105	8b 00		 mov	 eax, DWORD PTR [eax]
  00107	50		 push	 eax
  00108	e8 00 00 00 00	 call	 ?_Right@?$_Tree@V?$_Tmap_traits@HPAVBaseDialog@@U?$less@H@std@@V?$allocator@U?$pair@$$CBHPAVBaseDialog@@@std@@@3@$0A@@std@@@std@@KAAAPAU_Node@?$_Tree_nod@V?$_Tmap_traits@HPAVBaseDialog@@U?$less@H@std@@V?$allocator@U?$pair@$$CBHPAVBaseDialog@@@std@@@3@$0A@@std@@@2@PAU342@@Z ; std::_Tree<std::_Tmap_traits<int,BaseDialog *,std::less<int>,std::allocator<std::pair<int const ,BaseDialog *> >,0> >::_Right
  0010d	83 c4 04	 add	 esp, 4
  00110	8b 4d f8	 mov	 ecx, DWORD PTR __Pnode$[ebp]
  00113	89 08		 mov	 DWORD PTR [eax], ecx
$L188753:

; 1028 : 
; 1029 : 		_Left(_Pnode) = _Wherenode;

  00115	8b 55 f8	 mov	 edx, DWORD PTR __Pnode$[ebp]
  00118	52		 push	 edx
  00119	e8 00 00 00 00	 call	 ?_Left@?$_Tree@V?$_Tmap_traits@HPAVBaseDialog@@U?$less@H@std@@V?$allocator@U?$pair@$$CBHPAVBaseDialog@@@std@@@3@$0A@@std@@@std@@KAAAPAU_Node@?$_Tree_nod@V?$_Tmap_traits@HPAVBaseDialog@@U?$less@H@std@@V?$allocator@U?$pair@$$CBHPAVBaseDialog@@@std@@@3@$0A@@std@@@2@PAU342@@Z ; std::_Tree<std::_Tmap_traits<int,BaseDialog *,std::less<int>,std::allocator<std::pair<int const ,BaseDialog *> >,0> >::_Left
  0011e	83 c4 04	 add	 esp, 4
  00121	8b 4d 08	 mov	 ecx, DWORD PTR __Wherenode$[ebp]
  00124	89 08		 mov	 DWORD PTR [eax], ecx

; 1030 : 		_Parent(_Wherenode) = _Pnode;

  00126	8b 55 08	 mov	 edx, DWORD PTR __Wherenode$[ebp]
  00129	52		 push	 edx
  0012a	e8 00 00 00 00	 call	 ?_Parent@?$_Tree@V?$_Tmap_traits@HPAVBaseDialog@@U?$less@H@std@@V?$allocator@U?$pair@$$CBHPAVBaseDialog@@@std@@@3@$0A@@std@@@std@@KAAAPAU_Node@?$_Tree_nod@V?$_Tmap_traits@HPAVBaseDialog@@U?$less@H@std@@V?$allocator@U?$pair@$$CBHPAVBaseDialog@@@std@@@3@$0A@@std@@@2@PAU342@@Z ; std::_Tree<std::_Tmap_traits<int,BaseDialog *,std::less<int>,std::allocator<std::pair<int const ,BaseDialog *> >,0> >::_Parent
  0012f	83 c4 04	 add	 esp, 4
  00132	8b 4d f8	 mov	 ecx, DWORD PTR __Pnode$[ebp]
  00135	89 08		 mov	 DWORD PTR [eax], ecx

; 1031 : 		}

  00137	5e		 pop	 esi
  00138	83 c4 08	 add	 esp, 8
  0013b	3b ec		 cmp	 ebp, esp
  0013d	e8 00 00 00 00	 call	 __RTC_CheckEsp
  00142	8b e5		 mov	 esp, ebp
  00144	5d		 pop	 ebp
  00145	c2 04 00	 ret	 4
?_Lrotate@?$_Tree@V?$_Tmap_traits@HPAVBaseDialog@@U?$less@H@std@@V?$allocator@U?$pair@$$CBHPAVBaseDialog@@@std@@@3@$0A@@std@@@std@@IAEXPAU_Node@?$_Tree_nod@V?$_Tmap_traits@HPAVBaseDialog@@U?$less@H@std@@V?$allocator@U?$pair@$$CBHPAVBaseDialog@@@std@@@3@$0A@@std@@@2@@Z ENDP ; std::_Tree<std::_Tmap_traits<int,BaseDialog *,std::less<int>,std::allocator<std::pair<int const ,BaseDialog *> >,0> >::_Lrotate
; Function compile flags: /Odt /RTCsu
_TEXT	ENDS
;	COMDAT ?_Root@?$_Tree@V?$_Tmap_traits@HPAVBaseDialog@@U?$less@H@std@@V?$allocator@U?$pair@$$CBHPAVBaseDialog@@@std@@@3@$0A@@std@@@std@@IAEAAPAU_Node@?$_Tree_nod@V?$_Tmap_traits@HPAVBaseDialog@@U?$less@H@std@@V?$allocator@U?$pair@$$CBHPAVBaseDialog@@@std@@@3@$0A@@std@@@2@XZ
_TEXT	SEGMENT
_this$ = -4						; size = 4
?_Root@?$_Tree@V?$_Tmap_traits@HPAVBaseDialog@@U?$less@H@std@@V?$allocator@U?$pair@$$CBHPAVBaseDialog@@@std@@@3@$0A@@std@@@std@@IAEAAPAU_Node@?$_Tree_nod@V?$_Tmap_traits@HPAVBaseDialog@@U?$less@H@std@@V?$allocator@U?$pair@$$CBHPAVBaseDialog@@@std@@@3@$0A@@std@@@2@XZ PROC NEAR ; std::_Tree<std::_Tmap_traits<int,BaseDialog *,std::less<int>,std::allocator<std::pair<int const ,BaseDialog *> >,0> >::_Root, COMDAT
; _this$ = ecx

; 1058 : 		{	// return root of mutable tree

  00000	55		 push	 ebp
  00001	8b ec		 mov	 ebp, esp
  00003	51		 push	 ecx
  00004	c7 45 fc cc cc
	cc cc		 mov	 DWORD PTR [ebp-4], -858993460 ; ccccccccH
  0000b	89 4d fc	 mov	 DWORD PTR _this$[ebp], ecx

; 1059 : 		return (_Parent(_Myhead));

  0000e	8b 45 fc	 mov	 eax, DWORD PTR _this$[ebp]
  00011	8b 48 04	 mov	 ecx, DWORD PTR [eax+4]
  00014	51		 push	 ecx
  00015	e8 00 00 00 00	 call	 ?_Parent@?$_Tree@V?$_Tmap_traits@HPAVBaseDialog@@U?$less@H@std@@V?$allocator@U?$pair@$$CBHPAVBaseDialog@@@std@@@3@$0A@@std@@@std@@KAAAPAU_Node@?$_Tree_nod@V?$_Tmap_traits@HPAVBaseDialog@@U?$less@H@std@@V?$allocator@U?$pair@$$CBHPAVBaseDialog@@@std@@@3@$0A@@std@@@2@PAU342@@Z ; std::_Tree<std::_Tmap_traits<int,BaseDialog *,std::less<int>,std::allocator<std::pair<int const ,BaseDialog *> >,0> >::_Parent
  0001a	83 c4 04	 add	 esp, 4

; 1060 : 		}

  0001d	83 c4 04	 add	 esp, 4
  00020	3b ec		 cmp	 ebp, esp
  00022	e8 00 00 00 00	 call	 __RTC_CheckEsp
  00027	8b e5		 mov	 esp, ebp
  00029	5d		 pop	 ebp
  0002a	c3		 ret	 0
?_Root@?$_Tree@V?$_Tmap_traits@HPAVBaseDialog@@U?$less@H@std@@V?$allocator@U?$pair@$$CBHPAVBaseDialog@@@std@@@3@$0A@@std@@@std@@IAEAAPAU_Node@?$_Tree_nod@V?$_Tmap_traits@HPAVBaseDialog@@U?$less@H@std@@V?$allocator@U?$pair@$$CBHPAVBaseDialog@@@std@@@3@$0A@@std@@@2@XZ ENDP ; std::_Tree<std::_Tmap_traits<int,BaseDialog *,std::less<int>,std::allocator<std::pair<int const ,BaseDialog *> >,0> >::_Root
; Function compile flags: /Odt /RTCsu
_TEXT	ENDS
;	COMDAT ?_Root@?$_Tree@V?$_Tmap_traits@HPAVBaseDialog@@U?$less@H@std@@V?$allocator@U?$pair@$$CBHPAVBaseDialog@@@std@@@3@$0A@@std@@@std@@IBEAAPAU_Node@?$_Tree_nod@V?$_Tmap_traits@HPAVBaseDialog@@U?$less@H@std@@V?$allocator@U?$pair@$$CBHPAVBaseDialog@@@std@@@3@$0A@@std@@@2@XZ
_TEXT	SEGMENT
_this$ = -4						; size = 4
?_Root@?$_Tree@V?$_Tmap_traits@HPAVBaseDialog@@U?$less@H@std@@V?$allocator@U?$pair@$$CBHPAVBaseDialog@@@std@@@3@$0A@@std@@@std@@IBEAAPAU_Node@?$_Tree_nod@V?$_Tmap_traits@HPAVBaseDialog@@U?$less@H@std@@V?$allocator@U?$pair@$$CBHPAVBaseDialog@@@std@@@3@$0A@@std@@@2@XZ PROC NEAR ; std::_Tree<std::_Tmap_traits<int,BaseDialog *,std::less<int>,std::allocator<std::pair<int const ,BaseDialog *> >,0> >::_Root, COMDAT
; _this$ = ecx

; 1063 : 		{	// return root of nonmutable tree

  00000	55		 push	 ebp
  00001	8b ec		 mov	 ebp, esp
  00003	51		 push	 ecx
  00004	c7 45 fc cc cc
	cc cc		 mov	 DWORD PTR [ebp-4], -858993460 ; ccccccccH
  0000b	89 4d fc	 mov	 DWORD PTR _this$[ebp], ecx

; 1064 : 		return (_Parent(_Myhead));

  0000e	8b 45 fc	 mov	 eax, DWORD PTR _this$[ebp]
  00011	8b 48 04	 mov	 ecx, DWORD PTR [eax+4]
  00014	51		 push	 ecx
  00015	e8 00 00 00 00	 call	 ?_Parent@?$_Tree@V?$_Tmap_traits@HPAVBaseDialog@@U?$less@H@std@@V?$allocator@U?$pair@$$CBHPAVBaseDialog@@@std@@@3@$0A@@std@@@std@@KAAAPAU_Node@?$_Tree_nod@V?$_Tmap_traits@HPAVBaseDialog@@U?$less@H@std@@V?$allocator@U?$pair@$$CBHPAVBaseDialog@@@std@@@3@$0A@@std@@@2@PAU342@@Z ; std::_Tree<std::_Tmap_traits<int,BaseDialog *,std::less<int>,std::allocator<std::pair<int const ,BaseDialog *> >,0> >::_Parent
  0001a	83 c4 04	 add	 esp, 4

; 1065 : 		}

  0001d	83 c4 04	 add	 esp, 4
  00020	3b ec		 cmp	 ebp, esp
  00022	e8 00 00 00 00	 call	 __RTC_CheckEsp
  00027	8b e5		 mov	 esp, ebp
  00029	5d		 pop	 ebp
  0002a	c3		 ret	 0
?_Root@?$_Tree@V?$_Tmap_traits@HPAVBaseDialog@@U?$less@H@std@@V?$allocator@U?$pair@$$CBHPAVBaseDialog@@@std@@@3@$0A@@std@@@std@@IBEAAPAU_Node@?$_Tree_nod@V?$_Tmap_traits@HPAVBaseDialog@@U?$less@H@std@@V?$allocator@U?$pair@$$CBHPAVBaseDialog@@@std@@@3@$0A@@std@@@2@XZ ENDP ; std::_Tree<std::_Tmap_traits<int,BaseDialog *,std::less<int>,std::allocator<std::pair<int const ,BaseDialog *> >,0> >::_Root
; Function compile flags: /Odt /RTCsu
_TEXT	ENDS
;	COMDAT ?_Rrotate@?$_Tree@V?$_Tmap_traits@HPAVBaseDialog@@U?$less@H@std@@V?$allocator@U?$pair@$$CBHPAVBaseDialog@@@std@@@3@$0A@@std@@@std@@IAEXPAU_Node@?$_Tree_nod@V?$_Tmap_traits@HPAVBaseDialog@@U?$less@H@std@@V?$allocator@U?$pair@$$CBHPAVBaseDialog@@@std@@@3@$0A@@std@@@2@@Z
_TEXT	SEGMENT
__Pnode$ = -8						; size = 4
_this$ = -4						; size = 4
__Wherenode$ = 8					; size = 4
?_Rrotate@?$_Tree@V?$_Tmap_traits@HPAVBaseDialog@@U?$less@H@std@@V?$allocator@U?$pair@$$CBHPAVBaseDialog@@@std@@@3@$0A@@std@@@std@@IAEXPAU_Node@?$_Tree_nod@V?$_Tmap_traits@HPAVBaseDialog@@U?$less@H@std@@V?$allocator@U?$pair@$$CBHPAVBaseDialog@@@std@@@3@$0A@@std@@@2@@Z PROC NEAR ; std::_Tree<std::_Tmap_traits<int,BaseDialog *,std::less<int>,std::allocator<std::pair<int const ,BaseDialog *> >,0> >::_Rrotate, COMDAT
; _this$ = ecx

; 1068 : 		{	// promote left node to root of subtree

  00000	55		 push	 ebp
  00001	8b ec		 mov	 ebp, esp
  00003	83 ec 08	 sub	 esp, 8
  00006	56		 push	 esi
  00007	c7 45 f8 cc cc
	cc cc		 mov	 DWORD PTR [ebp-8], -858993460 ; ccccccccH
  0000e	c7 45 fc cc cc
	cc cc		 mov	 DWORD PTR [ebp-4], -858993460 ; ccccccccH
  00015	89 4d fc	 mov	 DWORD PTR _this$[ebp], ecx

; 1069 : 		_Nodeptr _Pnode = _Left(_Wherenode);

  00018	8b 45 08	 mov	 eax, DWORD PTR __Wherenode$[ebp]
  0001b	50		 push	 eax
  0001c	e8 00 00 00 00	 call	 ?_Left@?$_Tree@V?$_Tmap_traits@HPAVBaseDialog@@U?$less@H@std@@V?$allocator@U?$pair@$$CBHPAVBaseDialog@@@std@@@3@$0A@@std@@@std@@KAAAPAU_Node@?$_Tree_nod@V?$_Tmap_traits@HPAVBaseDialog@@U?$less@H@std@@V?$allocator@U?$pair@$$CBHPAVBaseDialog@@@std@@@3@$0A@@std@@@2@PAU342@@Z ; std::_Tree<std::_Tmap_traits<int,BaseDialog *,std::less<int>,std::allocator<std::pair<int const ,BaseDialog *> >,0> >::_Left
  00021	83 c4 04	 add	 esp, 4
  00024	8b 08		 mov	 ecx, DWORD PTR [eax]
  00026	89 4d f8	 mov	 DWORD PTR __Pnode$[ebp], ecx

; 1070 : 		_Left(_Wherenode) = _Right(_Pnode);

  00029	8b 55 f8	 mov	 edx, DWORD PTR __Pnode$[ebp]
  0002c	52		 push	 edx
  0002d	e8 00 00 00 00	 call	 ?_Right@?$_Tree@V?$_Tmap_traits@HPAVBaseDialog@@U?$less@H@std@@V?$allocator@U?$pair@$$CBHPAVBaseDialog@@@std@@@3@$0A@@std@@@std@@KAAAPAU_Node@?$_Tree_nod@V?$_Tmap_traits@HPAVBaseDialog@@U?$less@H@std@@V?$allocator@U?$pair@$$CBHPAVBaseDialog@@@std@@@3@$0A@@std@@@2@PAU342@@Z ; std::_Tree<std::_Tmap_traits<int,BaseDialog *,std::less<int>,std::allocator<std::pair<int const ,BaseDialog *> >,0> >::_Right
  00032	83 c4 04	 add	 esp, 4
  00035	8b f0		 mov	 esi, eax
  00037	8b 45 08	 mov	 eax, DWORD PTR __Wherenode$[ebp]
  0003a	50		 push	 eax
  0003b	e8 00 00 00 00	 call	 ?_Left@?$_Tree@V?$_Tmap_traits@HPAVBaseDialog@@U?$less@H@std@@V?$allocator@U?$pair@$$CBHPAVBaseDialog@@@std@@@3@$0A@@std@@@std@@KAAAPAU_Node@?$_Tree_nod@V?$_Tmap_traits@HPAVBaseDialog@@U?$less@H@std@@V?$allocator@U?$pair@$$CBHPAVBaseDialog@@@std@@@3@$0A@@std@@@2@PAU342@@Z ; std::_Tree<std::_Tmap_traits<int,BaseDialog *,std::less<int>,std::allocator<std::pair<int const ,BaseDialog *> >,0> >::_Left
  00040	83 c4 04	 add	 esp, 4
  00043	8b 0e		 mov	 ecx, DWORD PTR [esi]
  00045	89 08		 mov	 DWORD PTR [eax], ecx

; 1071 : 
; 1072 : 		if (!_Isnil(_Right(_Pnode)))

  00047	8b 55 f8	 mov	 edx, DWORD PTR __Pnode$[ebp]
  0004a	52		 push	 edx
  0004b	e8 00 00 00 00	 call	 ?_Right@?$_Tree@V?$_Tmap_traits@HPAVBaseDialog@@U?$less@H@std@@V?$allocator@U?$pair@$$CBHPAVBaseDialog@@@std@@@3@$0A@@std@@@std@@KAAAPAU_Node@?$_Tree_nod@V?$_Tmap_traits@HPAVBaseDialog@@U?$less@H@std@@V?$allocator@U?$pair@$$CBHPAVBaseDialog@@@std@@@3@$0A@@std@@@2@PAU342@@Z ; std::_Tree<std::_Tmap_traits<int,BaseDialog *,std::less<int>,std::allocator<std::pair<int const ,BaseDialog *> >,0> >::_Right
  00050	83 c4 04	 add	 esp, 4
  00053	8b 00		 mov	 eax, DWORD PTR [eax]
  00055	50		 push	 eax
  00056	e8 00 00 00 00	 call	 ?_Isnil@?$_Tree@V?$_Tmap_traits@HPAVBaseDialog@@U?$less@H@std@@V?$allocator@U?$pair@$$CBHPAVBaseDialog@@@std@@@3@$0A@@std@@@std@@KAAADPAU_Node@?$_Tree_nod@V?$_Tmap_traits@HPAVBaseDialog@@U?$less@H@std@@V?$allocator@U?$pair@$$CBHPAVBaseDialog@@@std@@@3@$0A@@std@@@2@@Z ; std::_Tree<std::_Tmap_traits<int,BaseDialog *,std::less<int>,std::allocator<std::pair<int const ,BaseDialog *> >,0> >::_Isnil
  0005b	83 c4 04	 add	 esp, 4
  0005e	0f be 08	 movsx	 ecx, BYTE PTR [eax]
  00061	85 c9		 test	 ecx, ecx
  00063	75 1c		 jne	 SHORT $L188763

; 1073 : 			_Parent(_Right(_Pnode)) = _Wherenode;

  00065	8b 55 f8	 mov	 edx, DWORD PTR __Pnode$[ebp]
  00068	52		 push	 edx
  00069	e8 00 00 00 00	 call	 ?_Right@?$_Tree@V?$_Tmap_traits@HPAVBaseDialog@@U?$less@H@std@@V?$allocator@U?$pair@$$CBHPAVBaseDialog@@@std@@@3@$0A@@std@@@std@@KAAAPAU_Node@?$_Tree_nod@V?$_Tmap_traits@HPAVBaseDialog@@U?$less@H@std@@V?$allocator@U?$pair@$$CBHPAVBaseDialog@@@std@@@3@$0A@@std@@@2@PAU342@@Z ; std::_Tree<std::_Tmap_traits<int,BaseDialog *,std::less<int>,std::allocator<std::pair<int const ,BaseDialog *> >,0> >::_Right
  0006e	83 c4 04	 add	 esp, 4
  00071	8b 00		 mov	 eax, DWORD PTR [eax]
  00073	50		 push	 eax
  00074	e8 00 00 00 00	 call	 ?_Parent@?$_Tree@V?$_Tmap_traits@HPAVBaseDialog@@U?$less@H@std@@V?$allocator@U?$pair@$$CBHPAVBaseDialog@@@std@@@3@$0A@@std@@@std@@KAAAPAU_Node@?$_Tree_nod@V?$_Tmap_traits@HPAVBaseDialog@@U?$less@H@std@@V?$allocator@U?$pair@$$CBHPAVBaseDialog@@@std@@@3@$0A@@std@@@2@PAU342@@Z ; std::_Tree<std::_Tmap_traits<int,BaseDialog *,std::less<int>,std::allocator<std::pair<int const ,BaseDialog *> >,0> >::_Parent
  00079	83 c4 04	 add	 esp, 4
  0007c	8b 4d 08	 mov	 ecx, DWORD PTR __Wherenode$[ebp]
  0007f	89 08		 mov	 DWORD PTR [eax], ecx
$L188763:

; 1074 : 		_Parent(_Pnode) = _Parent(_Wherenode);

  00081	8b 55 08	 mov	 edx, DWORD PTR __Wherenode$[ebp]
  00084	52		 push	 edx
  00085	e8 00 00 00 00	 call	 ?_Parent@?$_Tree@V?$_Tmap_traits@HPAVBaseDialog@@U?$less@H@std@@V?$allocator@U?$pair@$$CBHPAVBaseDialog@@@std@@@3@$0A@@std@@@std@@KAAAPAU_Node@?$_Tree_nod@V?$_Tmap_traits@HPAVBaseDialog@@U?$less@H@std@@V?$allocator@U?$pair@$$CBHPAVBaseDialog@@@std@@@3@$0A@@std@@@2@PAU342@@Z ; std::_Tree<std::_Tmap_traits<int,BaseDialog *,std::less<int>,std::allocator<std::pair<int const ,BaseDialog *> >,0> >::_Parent
  0008a	83 c4 04	 add	 esp, 4
  0008d	8b f0		 mov	 esi, eax
  0008f	8b 45 f8	 mov	 eax, DWORD PTR __Pnode$[ebp]
  00092	50		 push	 eax
  00093	e8 00 00 00 00	 call	 ?_Parent@?$_Tree@V?$_Tmap_traits@HPAVBaseDialog@@U?$less@H@std@@V?$allocator@U?$pair@$$CBHPAVBaseDialog@@@std@@@3@$0A@@std@@@std@@KAAAPAU_Node@?$_Tree_nod@V?$_Tmap_traits@HPAVBaseDialog@@U?$less@H@std@@V?$allocator@U?$pair@$$CBHPAVBaseDialog@@@std@@@3@$0A@@std@@@2@PAU342@@Z ; std::_Tree<std::_Tmap_traits<int,BaseDialog *,std::less<int>,std::allocator<std::pair<int const ,BaseDialog *> >,0> >::_Parent
  00098	83 c4 04	 add	 esp, 4
  0009b	8b 0e		 mov	 ecx, DWORD PTR [esi]
  0009d	89 08		 mov	 DWORD PTR [eax], ecx

; 1075 : 
; 1076 : 		if (_Wherenode == _Root())

  0009f	8b 4d fc	 mov	 ecx, DWORD PTR _this$[ebp]
  000a2	e8 00 00 00 00	 call	 ?_Root@?$_Tree@V?$_Tmap_traits@HPAVBaseDialog@@U?$less@H@std@@V?$allocator@U?$pair@$$CBHPAVBaseDialog@@@std@@@3@$0A@@std@@@std@@IAEAAPAU_Node@?$_Tree_nod@V?$_Tmap_traits@HPAVBaseDialog@@U?$less@H@std@@V?$allocator@U?$pair@$$CBHPAVBaseDialog@@@std@@@3@$0A@@std@@@2@XZ ; std::_Tree<std::_Tmap_traits<int,BaseDialog *,std::less<int>,std::allocator<std::pair<int const ,BaseDialog *> >,0> >::_Root
  000a7	8b 55 08	 mov	 edx, DWORD PTR __Wherenode$[ebp]
  000aa	3b 10		 cmp	 edx, DWORD PTR [eax]
  000ac	75 0f		 jne	 SHORT $L188764

; 1077 : 			_Root() = _Pnode;

  000ae	8b 4d fc	 mov	 ecx, DWORD PTR _this$[ebp]
  000b1	e8 00 00 00 00	 call	 ?_Root@?$_Tree@V?$_Tmap_traits@HPAVBaseDialog@@U?$less@H@std@@V?$allocator@U?$pair@$$CBHPAVBaseDialog@@@std@@@3@$0A@@std@@@std@@IAEAAPAU_Node@?$_Tree_nod@V?$_Tmap_traits@HPAVBaseDialog@@U?$less@H@std@@V?$allocator@U?$pair@$$CBHPAVBaseDialog@@@std@@@3@$0A@@std@@@2@XZ ; std::_Tree<std::_Tmap_traits<int,BaseDialog *,std::less<int>,std::allocator<std::pair<int const ,BaseDialog *> >,0> >::_Root
  000b6	8b 4d f8	 mov	 ecx, DWORD PTR __Pnode$[ebp]
  000b9	89 08		 mov	 DWORD PTR [eax], ecx

; 1078 : 		else if (_Wherenode == _Right(_Parent(_Wherenode)))

  000bb	eb 58		 jmp	 SHORT $L188765
$L188764:
  000bd	8b 55 08	 mov	 edx, DWORD PTR __Wherenode$[ebp]
  000c0	52		 push	 edx
  000c1	e8 00 00 00 00	 call	 ?_Parent@?$_Tree@V?$_Tmap_traits@HPAVBaseDialog@@U?$less@H@std@@V?$allocator@U?$pair@$$CBHPAVBaseDialog@@@std@@@3@$0A@@std@@@std@@KAAAPAU_Node@?$_Tree_nod@V?$_Tmap_traits@HPAVBaseDialog@@U?$less@H@std@@V?$allocator@U?$pair@$$CBHPAVBaseDialog@@@std@@@3@$0A@@std@@@2@PAU342@@Z ; std::_Tree<std::_Tmap_traits<int,BaseDialog *,std::less<int>,std::allocator<std::pair<int const ,BaseDialog *> >,0> >::_Parent
  000c6	83 c4 04	 add	 esp, 4
  000c9	8b 00		 mov	 eax, DWORD PTR [eax]
  000cb	50		 push	 eax
  000cc	e8 00 00 00 00	 call	 ?_Right@?$_Tree@V?$_Tmap_traits@HPAVBaseDialog@@U?$less@H@std@@V?$allocator@U?$pair@$$CBHPAVBaseDialog@@@std@@@3@$0A@@std@@@std@@KAAAPAU_Node@?$_Tree_nod@V?$_Tmap_traits@HPAVBaseDialog@@U?$less@H@std@@V?$allocator@U?$pair@$$CBHPAVBaseDialog@@@std@@@3@$0A@@std@@@2@PAU342@@Z ; std::_Tree<std::_Tmap_traits<int,BaseDialog *,std::less<int>,std::allocator<std::pair<int const ,BaseDialog *> >,0> >::_Right
  000d1	83 c4 04	 add	 esp, 4
  000d4	8b 4d 08	 mov	 ecx, DWORD PTR __Wherenode$[ebp]
  000d7	3b 08		 cmp	 ecx, DWORD PTR [eax]
  000d9	75 1e		 jne	 SHORT $L188766

; 1079 : 			_Right(_Parent(_Wherenode)) = _Pnode;

  000db	8b 55 08	 mov	 edx, DWORD PTR __Wherenode$[ebp]
  000de	52		 push	 edx
  000df	e8 00 00 00 00	 call	 ?_Parent@?$_Tree@V?$_Tmap_traits@HPAVBaseDialog@@U?$less@H@std@@V?$allocator@U?$pair@$$CBHPAVBaseDialog@@@std@@@3@$0A@@std@@@std@@KAAAPAU_Node@?$_Tree_nod@V?$_Tmap_traits@HPAVBaseDialog@@U?$less@H@std@@V?$allocator@U?$pair@$$CBHPAVBaseDialog@@@std@@@3@$0A@@std@@@2@PAU342@@Z ; std::_Tree<std::_Tmap_traits<int,BaseDialog *,std::less<int>,std::allocator<std::pair<int const ,BaseDialog *> >,0> >::_Parent
  000e4	83 c4 04	 add	 esp, 4
  000e7	8b 00		 mov	 eax, DWORD PTR [eax]
  000e9	50		 push	 eax
  000ea	e8 00 00 00 00	 call	 ?_Right@?$_Tree@V?$_Tmap_traits@HPAVBaseDialog@@U?$less@H@std@@V?$allocator@U?$pair@$$CBHPAVBaseDialog@@@std@@@3@$0A@@std@@@std@@KAAAPAU_Node@?$_Tree_nod@V?$_Tmap_traits@HPAVBaseDialog@@U?$less@H@std@@V?$allocator@U?$pair@$$CBHPAVBaseDialog@@@std@@@3@$0A@@std@@@2@PAU342@@Z ; std::_Tree<std::_Tmap_traits<int,BaseDialog *,std::less<int>,std::allocator<std::pair<int const ,BaseDialog *> >,0> >::_Right
  000ef	83 c4 04	 add	 esp, 4
  000f2	8b 4d f8	 mov	 ecx, DWORD PTR __Pnode$[ebp]
  000f5	89 08		 mov	 DWORD PTR [eax], ecx

; 1080 : 		else

  000f7	eb 1c		 jmp	 SHORT $L188765
$L188766:

; 1081 : 			_Left(_Parent(_Wherenode)) = _Pnode;

  000f9	8b 55 08	 mov	 edx, DWORD PTR __Wherenode$[ebp]
  000fc	52		 push	 edx
  000fd	e8 00 00 00 00	 call	 ?_Parent@?$_Tree@V?$_Tmap_traits@HPAVBaseDialog@@U?$less@H@std@@V?$allocator@U?$pair@$$CBHPAVBaseDialog@@@std@@@3@$0A@@std@@@std@@KAAAPAU_Node@?$_Tree_nod@V?$_Tmap_traits@HPAVBaseDialog@@U?$less@H@std@@V?$allocator@U?$pair@$$CBHPAVBaseDialog@@@std@@@3@$0A@@std@@@2@PAU342@@Z ; std::_Tree<std::_Tmap_traits<int,BaseDialog *,std::less<int>,std::allocator<std::pair<int const ,BaseDialog *> >,0> >::_Parent
  00102	83 c4 04	 add	 esp, 4
  00105	8b 00		 mov	 eax, DWORD PTR [eax]
  00107	50		 push	 eax
  00108	e8 00 00 00 00	 call	 ?_Left@?$_Tree@V?$_Tmap_traits@HPAVBaseDialog@@U?$less@H@std@@V?$allocator@U?$pair@$$CBHPAVBaseDialog@@@std@@@3@$0A@@std@@@std@@KAAAPAU_Node@?$_Tree_nod@V?$_Tmap_traits@HPAVBaseDialog@@U?$less@H@std@@V?$allocator@U?$pair@$$CBHPAVBaseDialog@@@std@@@3@$0A@@std@@@2@PAU342@@Z ; std::_Tree<std::_Tmap_traits<int,BaseDialog *,std::less<int>,std::allocator<std::pair<int const ,BaseDialog *> >,0> >::_Left
  0010d	83 c4 04	 add	 esp, 4
  00110	8b 4d f8	 mov	 ecx, DWORD PTR __Pnode$[ebp]
  00113	89 08		 mov	 DWORD PTR [eax], ecx
$L188765:

; 1082 : 
; 1083 : 		_Right(_Pnode) = _Wherenode;

  00115	8b 55 f8	 mov	 edx, DWORD PTR __Pnode$[ebp]
  00118	52		 push	 edx
  00119	e8 00 00 00 00	 call	 ?_Right@?$_Tree@V?$_Tmap_traits@HPAVBaseDialog@@U?$less@H@std@@V?$allocator@U?$pair@$$CBHPAVBaseDialog@@@std@@@3@$0A@@std@@@std@@KAAAPAU_Node@?$_Tree_nod@V?$_Tmap_traits@HPAVBaseDialog@@U?$less@H@std@@V?$allocator@U?$pair@$$CBHPAVBaseDialog@@@std@@@3@$0A@@std@@@2@PAU342@@Z ; std::_Tree<std::_Tmap_traits<int,BaseDialog *,std::less<int>,std::allocator<std::pair<int const ,BaseDialog *> >,0> >::_Right
  0011e	83 c4 04	 add	 esp, 4
  00121	8b 4d 08	 mov	 ecx, DWORD PTR __Wherenode$[ebp]
  00124	89 08		 mov	 DWORD PTR [eax], ecx

; 1084 : 		_Parent(_Wherenode) = _Pnode;

  00126	8b 55 08	 mov	 edx, DWORD PTR __Wherenode$[ebp]
  00129	52		 push	 edx
  0012a	e8 00 00 00 00	 call	 ?_Parent@?$_Tree@V?$_Tmap_traits@HPAVBaseDialog@@U?$less@H@std@@V?$allocator@U?$pair@$$CBHPAVBaseDialog@@@std@@@3@$0A@@std@@@std@@KAAAPAU_Node@?$_Tree_nod@V?$_Tmap_traits@HPAVBaseDialog@@U?$less@H@std@@V?$allocator@U?$pair@$$CBHPAVBaseDialog@@@std@@@3@$0A@@std@@@2@PAU342@@Z ; std::_Tree<std::_Tmap_traits<int,BaseDialog *,std::less<int>,std::allocator<std::pair<int const ,BaseDialog *> >,0> >::_Parent
  0012f	83 c4 04	 add	 esp, 4
  00132	8b 4d f8	 mov	 ecx, DWORD PTR __Pnode$[ebp]
  00135	89 08		 mov	 DWORD PTR [eax], ecx

; 1085 : 		}

  00137	5e		 pop	 esi
  00138	83 c4 08	 add	 esp, 8
  0013b	3b ec		 cmp	 ebp, esp
  0013d	e8 00 00 00 00	 call	 __RTC_CheckEsp
  00142	8b e5		 mov	 esp, ebp
  00144	5d		 pop	 ebp
  00145	c2 04 00	 ret	 4
?_Rrotate@?$_Tree@V?$_Tmap_traits@HPAVBaseDialog@@U?$less@H@std@@V?$allocator@U?$pair@$$CBHPAVBaseDialog@@@std@@@3@$0A@@std@@@std@@IAEXPAU_Node@?$_Tree_nod@V?$_Tmap_traits@HPAVBaseDialog@@U?$less@H@std@@V?$allocator@U?$pair@$$CBHPAVBaseDialog@@@std@@@3@$0A@@std@@@2@@Z ENDP ; std::_Tree<std::_Tmap_traits<int,BaseDialog *,std::less<int>,std::allocator<std::pair<int const ,BaseDialog *> >,0> >::_Rrotate
_TEXT	ENDS
PUBLIC	?allocate@?$allocator@U_Node@?$_Tree_nod@V?$_Tmap_traits@HPAVBaseDialog@@U?$less@H@std@@V?$allocator@U?$pair@$$CBHPAVBaseDialog@@@std@@@3@$0A@@std@@@std@@@std@@QAEPAU_Node@?$_Tree_nod@V?$_Tmap_traits@HPAVBaseDialog@@U?$less@H@std@@V?$allocator@U?$pair@$$CBHPAVBaseDialog@@@std@@@3@$0A@@std@@@2@I@Z ; std::allocator<std::_Tree_nod<std::_Tmap_traits<int,BaseDialog *,std::less<int>,std::allocator<std::pair<int const ,BaseDialog *> >,0> >::_Node>::allocate
PUBLIC	?construct@?$allocator@PAU_Node@?$_Tree_nod@V?$_Tmap_traits@HPAVBaseDialog@@U?$less@H@std@@V?$allocator@U?$pair@$$CBHPAVBaseDialog@@@std@@@3@$0A@@std@@@std@@@std@@QAEXPAPAU_Node@?$_Tree_nod@V?$_Tmap_traits@HPAVBaseDialog@@U?$less@H@std@@V?$allocator@U?$pair@$$CBHPAVBaseDialog@@@std@@@3@$0A@@std@@@2@ABQAU342@@Z ; std::allocator<std::_Tree_nod<std::_Tmap_traits<int,BaseDialog *,std::less<int>,std::allocator<std::pair<int const ,BaseDialog *> >,0> >::_Node *>::construct
;	COMDAT xdata$x
xdata$x	SEGMENT
$T189661 DD	0ffffffffH
	DD	00H
	DD	0ffffffffH
	DD	00H
$T189663 DD	00H
	DD	00H
	DD	00H
	DD	FLAT:$L189657
$T189662 DD	00H
	DD	00H
	DD	01H
	DD	01H
	DD	FLAT:$T189663
$T189659 DD	019930520H
	DD	02H
	DD	FLAT:$T189661
	DD	01H
	DD	FLAT:$T189662
	DD	2 DUP(00H)
; Function compile flags: /Odt /RTCsu
xdata$x	ENDS
;	COMDAT ?_Buynode@?$_Tree@V?$_Tmap_traits@HPAVBaseDialog@@U?$less@H@std@@V?$allocator@U?$pair@$$CBHPAVBaseDialog@@@std@@@3@$0A@@std@@@std@@IAEPAU_Node@?$_Tree_nod@V?$_Tmap_traits@HPAVBaseDialog@@U?$less@H@std@@V?$allocator@U?$pair@$$CBHPAVBaseDialog@@@std@@@3@$0A@@std@@@2@XZ
_TEXT	SEGMENT
tv145 = -52						; size = 4
tv144 = -48						; size = 4
tv143 = -44						; size = 4
$T189655 = -40						; size = 4
$T189654 = -36						; size = 4
$T189653 = -32						; size = 4
__Linkcnt$ = -28					; size = 4
__Wherenode$ = -24					; size = 4
_this$ = -20						; size = 4
__$EHRec$ = -16						; size = 16
?_Buynode@?$_Tree@V?$_Tmap_traits@HPAVBaseDialog@@U?$less@H@std@@V?$allocator@U?$pair@$$CBHPAVBaseDialog@@@std@@@3@$0A@@std@@@std@@IAEPAU_Node@?$_Tree_nod@V?$_Tmap_traits@HPAVBaseDialog@@U?$less@H@std@@V?$allocator@U?$pair@$$CBHPAVBaseDialog@@@std@@@3@$0A@@std@@@2@XZ PROC NEAR ; std::_Tree<std::_Tmap_traits<int,BaseDialog *,std::less<int>,std::allocator<std::pair<int const ,BaseDialog *> >,0> >::_Buynode, COMDAT
; _this$ = ecx

; 1105 : 		{	// allocate a head/nil node

  00000	55		 push	 ebp
  00001	8b ec		 mov	 ebp, esp
  00003	6a ff		 push	 -1
  00005	68 00 00 00 00	 push	 __ehhandler$?_Buynode@?$_Tree@V?$_Tmap_traits@HPAVBaseDialog@@U?$less@H@std@@V?$allocator@U?$pair@$$CBHPAVBaseDialog@@@std@@@3@$0A@@std@@@std@@IAEPAU_Node@?$_Tree_nod@V?$_Tmap_traits@HPAVBaseDialog@@U?$less@H@std@@V?$allocator@U?$pair@$$CBHPAVBaseDialog@@@std@@@3@$0A@@std@@@2@XZ
  0000a	64 a1 00 00 00
	00		 mov	 eax, DWORD PTR fs:__except_list
  00010	50		 push	 eax
  00011	64 89 25 00 00
	00 00		 mov	 DWORD PTR fs:__except_list, esp
  00018	51		 push	 ecx
  00019	83 ec 24	 sub	 esp, 36			; 00000024H
  0001c	53		 push	 ebx
  0001d	56		 push	 esi
  0001e	57		 push	 edi
  0001f	b8 cc cc cc cc	 mov	 eax, -858993460		; ccccccccH
  00024	89 45 cc	 mov	 DWORD PTR [ebp-52], eax
  00027	89 45 d0	 mov	 DWORD PTR [ebp-48], eax
  0002a	89 45 d4	 mov	 DWORD PTR [ebp-44], eax
  0002d	89 45 d8	 mov	 DWORD PTR [ebp-40], eax
  00030	89 45 dc	 mov	 DWORD PTR [ebp-36], eax
  00033	89 45 e0	 mov	 DWORD PTR [ebp-32], eax
  00036	89 45 e4	 mov	 DWORD PTR [ebp-28], eax
  00039	89 45 e8	 mov	 DWORD PTR [ebp-24], eax
  0003c	89 45 ec	 mov	 DWORD PTR [ebp-20], eax
  0003f	89 65 f0	 mov	 DWORD PTR __$EHRec$[ebp], esp
  00042	89 4d ec	 mov	 DWORD PTR _this$[ebp], ecx

; 1106 : 		_Nodeptr _Wherenode = this->_Alnod.allocate(1);

  00045	6a 01		 push	 1
  00047	8b 4d ec	 mov	 ecx, DWORD PTR _this$[ebp]
  0004a	83 c1 01	 add	 ecx, 1
  0004d	e8 00 00 00 00	 call	 ?allocate@?$allocator@U_Node@?$_Tree_nod@V?$_Tmap_traits@HPAVBaseDialog@@U?$less@H@std@@V?$allocator@U?$pair@$$CBHPAVBaseDialog@@@std@@@3@$0A@@std@@@std@@@std@@QAEPAU_Node@?$_Tree_nod@V?$_Tmap_traits@HPAVBaseDialog@@U?$less@H@std@@V?$allocator@U?$pair@$$CBHPAVBaseDialog@@@std@@@3@$0A@@std@@@2@I@Z ; std::allocator<std::_Tree_nod<std::_Tmap_traits<int,BaseDialog *,std::less<int>,std::allocator<std::pair<int const ,BaseDialog *> >,0> >::_Node>::allocate
  00052	89 45 e8	 mov	 DWORD PTR __Wherenode$[ebp], eax

; 1107 : 		int _Linkcnt = 0;

  00055	c7 45 e4 00 00
	00 00		 mov	 DWORD PTR __Linkcnt$[ebp], 0

; 1108 : 
; 1109 : 		_TRY_BEGIN

  0005c	c7 45 fc 00 00
	00 00		 mov	 DWORD PTR __$EHRec$[ebp+12], 0

; 1110 : 		this->_Alptr.construct(&_Left(_Wherenode), 0);

  00063	c7 45 e0 00 00
	00 00		 mov	 DWORD PTR $T189653[ebp], 0
  0006a	8b 45 e8	 mov	 eax, DWORD PTR __Wherenode$[ebp]
  0006d	50		 push	 eax
  0006e	e8 00 00 00 00	 call	 ?_Left@?$_Tree@V?$_Tmap_traits@HPAVBaseDialog@@U?$less@H@std@@V?$allocator@U?$pair@$$CBHPAVBaseDialog@@@std@@@3@$0A@@std@@@std@@KAAAPAU_Node@?$_Tree_nod@V?$_Tmap_traits@HPAVBaseDialog@@U?$less@H@std@@V?$allocator@U?$pair@$$CBHPAVBaseDialog@@@std@@@3@$0A@@std@@@2@PAU342@@Z ; std::_Tree<std::_Tmap_traits<int,BaseDialog *,std::less<int>,std::allocator<std::pair<int const ,BaseDialog *> >,0> >::_Left
  00073	83 c4 04	 add	 esp, 4
  00076	89 45 d4	 mov	 DWORD PTR tv143[ebp], eax
  00079	8d 4d e0	 lea	 ecx, DWORD PTR $T189653[ebp]
  0007c	51		 push	 ecx
  0007d	8b 55 d4	 mov	 edx, DWORD PTR tv143[ebp]
  00080	52		 push	 edx
  00081	8b 4d ec	 mov	 ecx, DWORD PTR _this$[ebp]
  00084	83 c1 02	 add	 ecx, 2
  00087	e8 00 00 00 00	 call	 ?construct@?$allocator@PAU_Node@?$_Tree_nod@V?$_Tmap_traits@HPAVBaseDialog@@U?$less@H@std@@V?$allocator@U?$pair@$$CBHPAVBaseDialog@@@std@@@3@$0A@@std@@@std@@@std@@QAEXPAPAU_Node@?$_Tree_nod@V?$_Tmap_traits@HPAVBaseDialog@@U?$less@H@std@@V?$allocator@U?$pair@$$CBHPAVBaseDialog@@@std@@@3@$0A@@std@@@2@ABQAU342@@Z ; std::allocator<std::_Tree_nod<std::_Tmap_traits<int,BaseDialog *,std::less<int>,std::allocator<std::pair<int const ,BaseDialog *> >,0> >::_Node *>::construct

; 1111 : 		++_Linkcnt;

  0008c	8b 45 e4	 mov	 eax, DWORD PTR __Linkcnt$[ebp]
  0008f	83 c0 01	 add	 eax, 1
  00092	89 45 e4	 mov	 DWORD PTR __Linkcnt$[ebp], eax

; 1112 : 		this->_Alptr.construct(&_Parent(_Wherenode), 0);

  00095	c7 45 dc 00 00
	00 00		 mov	 DWORD PTR $T189654[ebp], 0
  0009c	8b 4d e8	 mov	 ecx, DWORD PTR __Wherenode$[ebp]
  0009f	51		 push	 ecx
  000a0	e8 00 00 00 00	 call	 ?_Parent@?$_Tree@V?$_Tmap_traits@HPAVBaseDialog@@U?$less@H@std@@V?$allocator@U?$pair@$$CBHPAVBaseDialog@@@std@@@3@$0A@@std@@@std@@KAAAPAU_Node@?$_Tree_nod@V?$_Tmap_traits@HPAVBaseDialog@@U?$less@H@std@@V?$allocator@U?$pair@$$CBHPAVBaseDialog@@@std@@@3@$0A@@std@@@2@PAU342@@Z ; std::_Tree<std::_Tmap_traits<int,BaseDialog *,std::less<int>,std::allocator<std::pair<int const ,BaseDialog *> >,0> >::_Parent
  000a5	83 c4 04	 add	 esp, 4
  000a8	89 45 d0	 mov	 DWORD PTR tv144[ebp], eax
  000ab	8d 55 dc	 lea	 edx, DWORD PTR $T189654[ebp]
  000ae	52		 push	 edx
  000af	8b 45 d0	 mov	 eax, DWORD PTR tv144[ebp]
  000b2	50		 push	 eax
  000b3	8b 4d ec	 mov	 ecx, DWORD PTR _this$[ebp]
  000b6	83 c1 02	 add	 ecx, 2
  000b9	e8 00 00 00 00	 call	 ?construct@?$allocator@PAU_Node@?$_Tree_nod@V?$_Tmap_traits@HPAVBaseDialog@@U?$less@H@std@@V?$allocator@U?$pair@$$CBHPAVBaseDialog@@@std@@@3@$0A@@std@@@std@@@std@@QAEXPAPAU_Node@?$_Tree_nod@V?$_Tmap_traits@HPAVBaseDialog@@U?$less@H@std@@V?$allocator@U?$pair@$$CBHPAVBaseDialog@@@std@@@3@$0A@@std@@@2@ABQAU342@@Z ; std::allocator<std::_Tree_nod<std::_Tmap_traits<int,BaseDialog *,std::less<int>,std::allocator<std::pair<int const ,BaseDialog *> >,0> >::_Node *>::construct

; 1113 : 		++_Linkcnt;

  000be	8b 4d e4	 mov	 ecx, DWORD PTR __Linkcnt$[ebp]
  000c1	83 c1 01	 add	 ecx, 1
  000c4	89 4d e4	 mov	 DWORD PTR __Linkcnt$[ebp], ecx

; 1114 : 		this->_Alptr.construct(&_Right(_Wherenode), 0);

  000c7	c7 45 d8 00 00
	00 00		 mov	 DWORD PTR $T189655[ebp], 0
  000ce	8b 55 e8	 mov	 edx, DWORD PTR __Wherenode$[ebp]
  000d1	52		 push	 edx
  000d2	e8 00 00 00 00	 call	 ?_Right@?$_Tree@V?$_Tmap_traits@HPAVBaseDialog@@U?$less@H@std@@V?$allocator@U?$pair@$$CBHPAVBaseDialog@@@std@@@3@$0A@@std@@@std@@KAAAPAU_Node@?$_Tree_nod@V?$_Tmap_traits@HPAVBaseDialog@@U?$less@H@std@@V?$allocator@U?$pair@$$CBHPAVBaseDialog@@@std@@@3@$0A@@std@@@2@PAU342@@Z ; std::_Tree<std::_Tmap_traits<int,BaseDialog *,std::less<int>,std::allocator<std::pair<int const ,BaseDialog *> >,0> >::_Right
  000d7	83 c4 04	 add	 esp, 4
  000da	89 45 cc	 mov	 DWORD PTR tv145[ebp], eax
  000dd	8d 45 d8	 lea	 eax, DWORD PTR $T189655[ebp]
  000e0	50		 push	 eax
  000e1	8b 4d cc	 mov	 ecx, DWORD PTR tv145[ebp]
  000e4	51		 push	 ecx
  000e5	8b 4d ec	 mov	 ecx, DWORD PTR _this$[ebp]
  000e8	83 c1 02	 add	 ecx, 2
  000eb	e8 00 00 00 00	 call	 ?construct@?$allocator@PAU_Node@?$_Tree_nod@V?$_Tmap_traits@HPAVBaseDialog@@U?$less@H@std@@V?$allocator@U?$pair@$$CBHPAVBaseDialog@@@std@@@3@$0A@@std@@@std@@@std@@QAEXPAPAU_Node@?$_Tree_nod@V?$_Tmap_traits@HPAVBaseDialog@@U?$less@H@std@@V?$allocator@U?$pair@$$CBHPAVBaseDialog@@@std@@@3@$0A@@std@@@2@ABQAU342@@Z ; std::allocator<std::_Tree_nod<std::_Tmap_traits<int,BaseDialog *,std::less<int>,std::allocator<std::pair<int const ,BaseDialog *> >,0> >::_Node *>::construct
  000f0	eb 56		 jmp	 SHORT $L189656
$L189657:

; 1115 : 		_CATCH_ALL
; 1116 : 		if (1 < _Linkcnt)

  000f2	83 7d e4 01	 cmp	 DWORD PTR __Linkcnt$[ebp], 1
  000f6	7e 18		 jle	 SHORT $L188776

; 1117 : 			this->_Alptr.destroy(&_Parent(_Wherenode));

  000f8	8b 55 e8	 mov	 edx, DWORD PTR __Wherenode$[ebp]
  000fb	52		 push	 edx
  000fc	e8 00 00 00 00	 call	 ?_Parent@?$_Tree@V?$_Tmap_traits@HPAVBaseDialog@@U?$less@H@std@@V?$allocator@U?$pair@$$CBHPAVBaseDialog@@@std@@@3@$0A@@std@@@std@@KAAAPAU_Node@?$_Tree_nod@V?$_Tmap_traits@HPAVBaseDialog@@U?$less@H@std@@V?$allocator@U?$pair@$$CBHPAVBaseDialog@@@std@@@3@$0A@@std@@@2@PAU342@@Z ; std::_Tree<std::_Tmap_traits<int,BaseDialog *,std::less<int>,std::allocator<std::pair<int const ,BaseDialog *> >,0> >::_Parent
  00101	83 c4 04	 add	 esp, 4
  00104	50		 push	 eax
  00105	8b 4d ec	 mov	 ecx, DWORD PTR _this$[ebp]
  00108	83 c1 02	 add	 ecx, 2
  0010b	e8 00 00 00 00	 call	 ?destroy@?$allocator@PAU_Node@?$_Tree_nod@V?$_Tmap_traits@HPAVBaseDialog@@U?$less@H@std@@V?$allocator@U?$pair@$$CBHPAVBaseDialog@@@std@@@3@$0A@@std@@@std@@@std@@QAEXPAPAU_Node@?$_Tree_nod@V?$_Tmap_traits@HPAVBaseDialog@@U?$less@H@std@@V?$allocator@U?$pair@$$CBHPAVBaseDialog@@@std@@@3@$0A@@std@@@2@@Z ; std::allocator<std::_Tree_nod<std::_Tmap_traits<int,BaseDialog *,std::less<int>,std::allocator<std::pair<int const ,BaseDialog *> >,0> >::_Node *>::destroy
$L188776:

; 1118 : 		if (0 < _Linkcnt)

  00110	83 7d e4 00	 cmp	 DWORD PTR __Linkcnt$[ebp], 0
  00114	7e 18		 jle	 SHORT $L188777

; 1119 : 			this->_Alptr.destroy(&_Left(_Wherenode));

  00116	8b 45 e8	 mov	 eax, DWORD PTR __Wherenode$[ebp]
  00119	50		 push	 eax
  0011a	e8 00 00 00 00	 call	 ?_Left@?$_Tree@V?$_Tmap_traits@HPAVBaseDialog@@U?$less@H@std@@V?$allocator@U?$pair@$$CBHPAVBaseDialog@@@std@@@3@$0A@@std@@@std@@KAAAPAU_Node@?$_Tree_nod@V?$_Tmap_traits@HPAVBaseDialog@@U?$less@H@std@@V?$allocator@U?$pair@$$CBHPAVBaseDialog@@@std@@@3@$0A@@std@@@2@PAU342@@Z ; std::_Tree<std::_Tmap_traits<int,BaseDialog *,std::less<int>,std::allocator<std::pair<int const ,BaseDialog *> >,0> >::_Left
  0011f	83 c4 04	 add	 esp, 4
  00122	50		 push	 eax
  00123	8b 4d ec	 mov	 ecx, DWORD PTR _this$[ebp]
  00126	83 c1 02	 add	 ecx, 2
  00129	e8 00 00 00 00	 call	 ?destroy@?$allocator@PAU_Node@?$_Tree_nod@V?$_Tmap_traits@HPAVBaseDialog@@U?$less@H@std@@V?$allocator@U?$pair@$$CBHPAVBaseDialog@@@std@@@3@$0A@@std@@@std@@@std@@QAEXPAPAU_Node@?$_Tree_nod@V?$_Tmap_traits@HPAVBaseDialog@@U?$less@H@std@@V?$allocator@U?$pair@$$CBHPAVBaseDialog@@@std@@@3@$0A@@std@@@2@@Z ; std::allocator<std::_Tree_nod<std::_Tmap_traits<int,BaseDialog *,std::less<int>,std::allocator<std::pair<int const ,BaseDialog *> >,0> >::_Node *>::destroy
$L188777:

; 1120 : 		this->_Alnod.deallocate(_Wherenode, 1);

  0012e	6a 01		 push	 1
  00130	8b 4d e8	 mov	 ecx, DWORD PTR __Wherenode$[ebp]
  00133	51		 push	 ecx
  00134	8b 4d ec	 mov	 ecx, DWORD PTR _this$[ebp]
  00137	83 c1 01	 add	 ecx, 1
  0013a	e8 00 00 00 00	 call	 ?deallocate@?$allocator@U_Node@?$_Tree_nod@V?$_Tmap_traits@HPAVBaseDialog@@U?$less@H@std@@V?$allocator@U?$pair@$$CBHPAVBaseDialog@@@std@@@3@$0A@@std@@@std@@@std@@QAEXPAU_Node@?$_Tree_nod@V?$_Tmap_traits@HPAVBaseDialog@@U?$less@H@std@@V?$allocator@U?$pair@$$CBHPAVBaseDialog@@@std@@@3@$0A@@std@@@2@I@Z ; std::allocator<std::_Tree_nod<std::_Tmap_traits<int,BaseDialog *,std::less<int>,std::allocator<std::pair<int const ,BaseDialog *> >,0> >::_Node>::deallocate

; 1121 : 		_RERAISE;

  0013f	6a 00		 push	 0
  00141	6a 00		 push	 0
  00143	e8 00 00 00 00	 call	 __CxxThrowException@8
$L189656:

; 1122 : 		_CATCH_END

  00148	c7 45 fc ff ff
	ff ff		 mov	 DWORD PTR __$EHRec$[ebp+12], -1

; 1123 : 		_Color(_Wherenode) = _Black;

  0014f	8b 55 e8	 mov	 edx, DWORD PTR __Wherenode$[ebp]
  00152	52		 push	 edx
  00153	e8 00 00 00 00	 call	 ?_Color@?$_Tree@V?$_Tmap_traits@HPAVBaseDialog@@U?$less@H@std@@V?$allocator@U?$pair@$$CBHPAVBaseDialog@@@std@@@3@$0A@@std@@@std@@KAAADPAU_Node@?$_Tree_nod@V?$_Tmap_traits@HPAVBaseDialog@@U?$less@H@std@@V?$allocator@U?$pair@$$CBHPAVBaseDialog@@@std@@@3@$0A@@std@@@2@@Z ; std::_Tree<std::_Tmap_traits<int,BaseDialog *,std::less<int>,std::allocator<std::pair<int const ,BaseDialog *> >,0> >::_Color
  00158	83 c4 04	 add	 esp, 4
  0015b	c6 00 01	 mov	 BYTE PTR [eax], 1

; 1124 : 		_Isnil(_Wherenode) = false;

  0015e	8b 45 e8	 mov	 eax, DWORD PTR __Wherenode$[ebp]
  00161	50		 push	 eax
  00162	e8 00 00 00 00	 call	 ?_Isnil@?$_Tree@V?$_Tmap_traits@HPAVBaseDialog@@U?$less@H@std@@V?$allocator@U?$pair@$$CBHPAVBaseDialog@@@std@@@3@$0A@@std@@@std@@KAAADPAU_Node@?$_Tree_nod@V?$_Tmap_traits@HPAVBaseDialog@@U?$less@H@std@@V?$allocator@U?$pair@$$CBHPAVBaseDialog@@@std@@@3@$0A@@std@@@2@@Z ; std::_Tree<std::_Tmap_traits<int,BaseDialog *,std::less<int>,std::allocator<std::pair<int const ,BaseDialog *> >,0> >::_Isnil
  00167	83 c4 04	 add	 esp, 4
  0016a	c6 00 00	 mov	 BYTE PTR [eax], 0

; 1125 : 		return (_Wherenode);

  0016d	8b 45 e8	 mov	 eax, DWORD PTR __Wherenode$[ebp]
$L189652:

; 1126 : 		}

  00170	8b 4d f4	 mov	 ecx, DWORD PTR __$EHRec$[ebp+4]
  00173	64 89 0d 00 00
	00 00		 mov	 DWORD PTR fs:__except_list, ecx
  0017a	5f		 pop	 edi
  0017b	5e		 pop	 esi
  0017c	5b		 pop	 ebx
  0017d	83 c4 34	 add	 esp, 52			; 00000034H
  00180	3b ec		 cmp	 ebp, esp
  00182	e8 00 00 00 00	 call	 __RTC_CheckEsp
  00187	8b e5		 mov	 esp, ebp
  00189	5d		 pop	 ebp
  0018a	c3		 ret	 0
_TEXT	ENDS
;	COMDAT text$x
text$x	SEGMENT
__ehhandler$?_Buynode@?$_Tree@V?$_Tmap_traits@HPAVBaseDialog@@U?$less@H@std@@V?$allocator@U?$pair@$$CBHPAVBaseDialog@@@std@@@3@$0A@@std@@@std@@IAEPAU_Node@?$_Tree_nod@V?$_Tmap_traits@HPAVBaseDialog@@U?$less@H@std@@V?$allocator@U?$pair@$$CBHPAVBaseDialog@@@std@@@3@$0A@@std@@@2@XZ:
  00000	b8 00 00 00 00	 mov	 eax, OFFSET FLAT:$T189659
  00005	e9 00 00 00 00	 jmp	 ___CxxFrameHandler
text$x	ENDS
?_Buynode@?$_Tree@V?$_Tmap_traits@HPAVBaseDialog@@U?$less@H@std@@V?$allocator@U?$pair@$$CBHPAVBaseDialog@@@std@@@3@$0A@@std@@@std@@IAEPAU_Node@?$_Tree_nod@V?$_Tmap_traits@HPAVBaseDialog@@U?$less@H@std@@V?$allocator@U?$pair@$$CBHPAVBaseDialog@@@std@@@3@$0A@@std@@@2@XZ ENDP ; std::_Tree<std::_Tmap_traits<int,BaseDialog *,std::less<int>,std::allocator<std::pair<int const ,BaseDialog *> >,0> >::_Buynode
PUBLIC	??0_Node@?$_Tree_nod@V?$_Tmap_traits@HPAVBaseDialog@@U?$less@H@std@@V?$allocator@U?$pair@$$CBHPAVBaseDialog@@@std@@@3@$0A@@std@@@std@@QAE@PAU012@00ABU?$pair@$$CBHPAVBaseDialog@@@2@D@Z ; std::_Tree_nod<std::_Tmap_traits<int,BaseDialog *,std::less<int>,std::allocator<std::pair<int const ,BaseDialog *> >,0> >::_Node::_Node
PUBLIC	??2@YAPAXIPAX@Z					; operator new
PUBLIC	??3@YAXPAX0@Z					; operator delete
;	COMDAT xdata$x
xdata$x	SEGMENT
$T189677 DD	0ffffffffH
	DD	00H
	DD	00H
	DD	FLAT:$L189673
	DD	0ffffffffH
	DD	00H
$T189679 DD	00H
	DD	00H
	DD	00H
	DD	FLAT:$L189672
$T189678 DD	00H
	DD	01H
	DD	02H
	DD	01H
	DD	FLAT:$T189679
$T189675 DD	019930520H
	DD	03H
	DD	FLAT:$T189677
	DD	01H
	DD	FLAT:$T189678
	DD	2 DUP(00H)
; Function compile flags: /Odt /RTCsu
xdata$x	ENDS
;	COMDAT ?_Buynode@?$_Tree@V?$_Tmap_traits@HPAVBaseDialog@@U?$less@H@std@@V?$allocator@U?$pair@$$CBHPAVBaseDialog@@@std@@@3@$0A@@std@@@std@@IAEPAU_Node@?$_Tree_nod@V?$_Tmap_traits@HPAVBaseDialog@@U?$less@H@std@@V?$allocator@U?$pair@$$CBHPAVBaseDialog@@@std@@@3@$0A@@std@@@2@PAU342@00ABU?$pair@$$CBHPAVBaseDialog@@@2@D@Z
_TEXT	SEGMENT
tv82 = -44						; size = 4
tv94 = -40						; size = 4
tv91 = -36						; size = 4
$T189668 = -32						; size = 4
$T189667 = -28						; size = 4
__Wherenode$ = -24					; size = 4
_this$ = -20						; size = 4
__$EHRec$ = -16						; size = 16
__Larg$ = 8						; size = 4
__Parg$ = 12						; size = 4
__Rarg$ = 16						; size = 4
__Val$ = 20						; size = 4
__Carg$ = 24						; size = 1
?_Buynode@?$_Tree@V?$_Tmap_traits@HPAVBaseDialog@@U?$less@H@std@@V?$allocator@U?$pair@$$CBHPAVBaseDialog@@@std@@@3@$0A@@std@@@std@@IAEPAU_Node@?$_Tree_nod@V?$_Tmap_traits@HPAVBaseDialog@@U?$less@H@std@@V?$allocator@U?$pair@$$CBHPAVBaseDialog@@@std@@@3@$0A@@std@@@2@PAU342@00ABU?$pair@$$CBHPAVBaseDialog@@@2@D@Z PROC NEAR ; std::_Tree<std::_Tmap_traits<int,BaseDialog *,std::less<int>,std::allocator<std::pair<int const ,BaseDialog *> >,0> >::_Buynode, COMDAT
; _this$ = ecx

; 1130 : 		{	// allocate a node with pointers, value, and color

  00000	55		 push	 ebp
  00001	8b ec		 mov	 ebp, esp
  00003	6a ff		 push	 -1
  00005	68 00 00 00 00	 push	 __ehhandler$?_Buynode@?$_Tree@V?$_Tmap_traits@HPAVBaseDialog@@U?$less@H@std@@V?$allocator@U?$pair@$$CBHPAVBaseDialog@@@std@@@3@$0A@@std@@@std@@IAEPAU_Node@?$_Tree_nod@V?$_Tmap_traits@HPAVBaseDialog@@U?$less@H@std@@V?$allocator@U?$pair@$$CBHPAVBaseDialog@@@std@@@3@$0A@@std@@@2@PAU342@00ABU?$pair@$$CBHPAVBaseDialog@@@2@D@Z
  0000a	64 a1 00 00 00
	00		 mov	 eax, DWORD PTR fs:__except_list
  00010	50		 push	 eax
  00011	64 89 25 00 00
	00 00		 mov	 DWORD PTR fs:__except_list, esp
  00018	51		 push	 ecx
  00019	83 ec 1c	 sub	 esp, 28			; 0000001cH
  0001c	53		 push	 ebx
  0001d	56		 push	 esi
  0001e	57		 push	 edi
  0001f	b8 cc cc cc cc	 mov	 eax, -858993460		; ccccccccH
  00024	89 45 d4	 mov	 DWORD PTR [ebp-44], eax
  00027	89 45 d8	 mov	 DWORD PTR [ebp-40], eax
  0002a	89 45 dc	 mov	 DWORD PTR [ebp-36], eax
  0002d	89 45 e0	 mov	 DWORD PTR [ebp-32], eax
  00030	89 45 e4	 mov	 DWORD PTR [ebp-28], eax
  00033	89 45 e8	 mov	 DWORD PTR [ebp-24], eax
  00036	89 45 ec	 mov	 DWORD PTR [ebp-20], eax
  00039	89 65 f0	 mov	 DWORD PTR __$EHRec$[ebp], esp
  0003c	89 4d ec	 mov	 DWORD PTR _this$[ebp], ecx

; 1131 : 		_Nodeptr _Wherenode = this->_Alnod.allocate(1);

  0003f	6a 01		 push	 1
  00041	8b 4d ec	 mov	 ecx, DWORD PTR _this$[ebp]
  00044	83 c1 01	 add	 ecx, 1
  00047	e8 00 00 00 00	 call	 ?allocate@?$allocator@U_Node@?$_Tree_nod@V?$_Tmap_traits@HPAVBaseDialog@@U?$less@H@std@@V?$allocator@U?$pair@$$CBHPAVBaseDialog@@@std@@@3@$0A@@std@@@std@@@std@@QAEPAU_Node@?$_Tree_nod@V?$_Tmap_traits@HPAVBaseDialog@@U?$less@H@std@@V?$allocator@U?$pair@$$CBHPAVBaseDialog@@@std@@@3@$0A@@std@@@2@I@Z ; std::allocator<std::_Tree_nod<std::_Tmap_traits<int,BaseDialog *,std::less<int>,std::allocator<std::pair<int const ,BaseDialog *> >,0> >::_Node>::allocate
  0004c	89 45 e8	 mov	 DWORD PTR __Wherenode$[ebp], eax

; 1132 : 		_TRY_BEGIN

  0004f	c7 45 fc 00 00
	00 00		 mov	 DWORD PTR __$EHRec$[ebp+12], 0

; 1133 : 		new (_Wherenode) _Node(_Larg, _Parg, _Rarg, _Val, _Carg);

  00056	8b 45 e8	 mov	 eax, DWORD PTR __Wherenode$[ebp]
  00059	50		 push	 eax
  0005a	6a 18		 push	 24			; 00000018H
  0005c	e8 00 00 00 00	 call	 ??2@YAPAXIPAX@Z		; operator new
  00061	83 c4 08	 add	 esp, 8
  00064	89 45 dc	 mov	 DWORD PTR tv91[ebp], eax
  00067	8b 4d dc	 mov	 ecx, DWORD PTR tv91[ebp]
  0006a	89 4d e0	 mov	 DWORD PTR $T189668[ebp], ecx
  0006d	c6 45 fc 01	 mov	 BYTE PTR __$EHRec$[ebp+12], 1
  00071	83 7d e0 00	 cmp	 DWORD PTR $T189668[ebp], 0
  00075	74 27		 je	 SHORT $L189669
  00077	8a 55 18	 mov	 dl, BYTE PTR __Carg$[ebp]
  0007a	52		 push	 edx
  0007b	8b 45 14	 mov	 eax, DWORD PTR __Val$[ebp]
  0007e	50		 push	 eax
  0007f	8b 4d 10	 mov	 ecx, DWORD PTR __Rarg$[ebp]
  00082	51		 push	 ecx
  00083	8b 55 0c	 mov	 edx, DWORD PTR __Parg$[ebp]
  00086	52		 push	 edx
  00087	8b 45 08	 mov	 eax, DWORD PTR __Larg$[ebp]
  0008a	50		 push	 eax
  0008b	8b 4d e0	 mov	 ecx, DWORD PTR $T189668[ebp]
  0008e	e8 00 00 00 00	 call	 ??0_Node@?$_Tree_nod@V?$_Tmap_traits@HPAVBaseDialog@@U?$less@H@std@@V?$allocator@U?$pair@$$CBHPAVBaseDialog@@@std@@@3@$0A@@std@@@std@@QAE@PAU012@00ABU?$pair@$$CBHPAVBaseDialog@@@2@D@Z ; std::_Tree_nod<std::_Tmap_traits<int,BaseDialog *,std::less<int>,std::allocator<std::pair<int const ,BaseDialog *> >,0> >::_Node::_Node
  00093	89 45 d8	 mov	 DWORD PTR tv94[ebp], eax
  00096	8b 4d d8	 mov	 ecx, DWORD PTR tv94[ebp]
  00099	89 4d d4	 mov	 DWORD PTR tv82[ebp], ecx
  0009c	eb 07		 jmp	 SHORT $L189670
$L189669:
  0009e	c7 45 d4 00 00
	00 00		 mov	 DWORD PTR tv82[ebp], 0
$L189670:
  000a5	8b 55 d4	 mov	 edx, DWORD PTR tv82[ebp]
  000a8	89 55 e4	 mov	 DWORD PTR $T189667[ebp], edx
  000ab	c6 45 fc 00	 mov	 BYTE PTR __$EHRec$[ebp+12], 0
  000af	eb 1a		 jmp	 SHORT $L189671
$L189672:

; 1134 : 		_CATCH_ALL
; 1135 : 		this->_Alnod.deallocate(_Wherenode, 1);

  000b1	6a 01		 push	 1
  000b3	8b 45 e8	 mov	 eax, DWORD PTR __Wherenode$[ebp]
  000b6	50		 push	 eax
  000b7	8b 4d ec	 mov	 ecx, DWORD PTR _this$[ebp]
  000ba	83 c1 01	 add	 ecx, 1
  000bd	e8 00 00 00 00	 call	 ?deallocate@?$allocator@U_Node@?$_Tree_nod@V?$_Tmap_traits@HPAVBaseDialog@@U?$less@H@std@@V?$allocator@U?$pair@$$CBHPAVBaseDialog@@@std@@@3@$0A@@std@@@std@@@std@@QAEXPAU_Node@?$_Tree_nod@V?$_Tmap_traits@HPAVBaseDialog@@U?$less@H@std@@V?$allocator@U?$pair@$$CBHPAVBaseDialog@@@std@@@3@$0A@@std@@@2@I@Z ; std::allocator<std::_Tree_nod<std::_Tmap_traits<int,BaseDialog *,std::less<int>,std::allocator<std::pair<int const ,BaseDialog *> >,0> >::_Node>::deallocate

; 1136 : 		_RERAISE;

  000c2	6a 00		 push	 0
  000c4	6a 00		 push	 0
  000c6	e8 00 00 00 00	 call	 __CxxThrowException@8
$L189671:

; 1137 : 		_CATCH_END

  000cb	c7 45 fc ff ff
	ff ff		 mov	 DWORD PTR __$EHRec$[ebp+12], -1

; 1138 : 		return (_Wherenode);

  000d2	8b 45 e8	 mov	 eax, DWORD PTR __Wherenode$[ebp]
$L189666:

; 1139 : 		}

  000d5	8b 4d f4	 mov	 ecx, DWORD PTR __$EHRec$[ebp+4]
  000d8	64 89 0d 00 00
	00 00		 mov	 DWORD PTR fs:__except_list, ecx
  000df	5f		 pop	 edi
  000e0	5e		 pop	 esi
  000e1	5b		 pop	 ebx
  000e2	83 c4 2c	 add	 esp, 44			; 0000002cH
  000e5	3b ec		 cmp	 ebp, esp
  000e7	e8 00 00 00 00	 call	 __RTC_CheckEsp
  000ec	8b e5		 mov	 esp, ebp
  000ee	5d		 pop	 ebp
  000ef	c2 14 00	 ret	 20			; 00000014H
_TEXT	ENDS
;	COMDAT text$x
text$x	SEGMENT
$L189673:
  00000	8b 45 e8	 mov	 eax, DWORD PTR __Wherenode$[ebp]
  00003	50		 push	 eax
  00004	8b 4d e0	 mov	 ecx, DWORD PTR $T189668[ebp]
  00007	51		 push	 ecx
  00008	e8 00 00 00 00	 call	 ??3@YAXPAX0@Z		; operator delete
  0000d	83 c4 08	 add	 esp, 8
  00010	c3		 ret	 0
__ehhandler$?_Buynode@?$_Tree@V?$_Tmap_traits@HPAVBaseDialog@@U?$less@H@std@@V?$allocator@U?$pair@$$CBHPAVBaseDialog@@@std@@@3@$0A@@std@@@std@@IAEPAU_Node@?$_Tree_nod@V?$_Tmap_traits@HPAVBaseDialog@@U?$less@H@std@@V?$allocator@U?$pair@$$CBHPAVBaseDialog@@@std@@@3@$0A@@std@@@2@PAU342@00ABU?$pair@$$CBHPAVBaseDialog@@@2@D@Z:
  00011	b8 00 00 00 00	 mov	 eax, OFFSET FLAT:$T189675
  00016	e9 00 00 00 00	 jmp	 ___CxxFrameHandler
text$x	ENDS
?_Buynode@?$_Tree@V?$_Tmap_traits@HPAVBaseDialog@@U?$less@H@std@@V?$allocator@U?$pair@$$CBHPAVBaseDialog@@@std@@@3@$0A@@std@@@std@@IAEPAU_Node@?$_Tree_nod@V?$_Tmap_traits@HPAVBaseDialog@@U?$less@H@std@@V?$allocator@U?$pair@$$CBHPAVBaseDialog@@@std@@@3@$0A@@std@@@2@PAU342@00ABU?$pair@$$CBHPAVBaseDialog@@@2@D@Z ENDP ; std::_Tree<std::_Tmap_traits<int,BaseDialog *,std::less<int>,std::allocator<std::pair<int const ,BaseDialog *> >,0> >::_Buynode
; Function compile flags: /Odt /RTCsu
; File d:\program files (x86)\microsoft visual studio .net 2003\vc7\include\new.h
;	COMDAT ??2@YAPAXIPAX@Z
_TEXT	SEGMENT
___formal$ = 8						; size = 4
__P$ = 12						; size = 4
??2@YAPAXIPAX@Z PROC NEAR				; operator new, COMDAT

; 109  :         {return (_P); }

  00000	55		 push	 ebp
  00001	8b ec		 mov	 ebp, esp
  00003	8b 45 0c	 mov	 eax, DWORD PTR __P$[ebp]
  00006	5d		 pop	 ebp
  00007	c3		 ret	 0
??2@YAPAXIPAX@Z ENDP					; operator new
; Function compile flags: /Odt /RTCsu
_TEXT	ENDS
;	COMDAT ??3@YAXPAX0@Z
_TEXT	SEGMENT
___formal$ = 8						; size = 4
___formal$ = 12						; size = 4
??3@YAXPAX0@Z PROC NEAR					; operator delete, COMDAT

; 112  :         {return; }

  00000	55		 push	 ebp
  00001	8b ec		 mov	 ebp, esp
  00003	5d		 pop	 ebp
  00004	c3		 ret	 0
??3@YAXPAX0@Z ENDP					; operator delete
_TEXT	ENDS
PUBLIC	??0?$_Tree_nod@V?$_Tmap_traits@HPAVBaseDialog@@U?$less@H@std@@V?$allocator@U?$pair@$$CBHPAVBaseDialog@@@std@@@3@$0A@@std@@@std@@IAE@ABU?$less@H@1@V?$allocator@U?$pair@$$CBHPAVBaseDialog@@@std@@@1@@Z ; std::_Tree_nod<std::_Tmap_traits<int,BaseDialog *,std::less<int>,std::allocator<std::pair<int const ,BaseDialog *> >,0> >::_Tree_nod<std::_Tmap_traits<int,BaseDialog *,std::less<int>,std::allocator<std::pair<int const ,BaseDialog *> >,0> >
PUBLIC	??$?0U?$pair@$$CBHPAVBaseDialog@@@std@@@?$allocator@PAU_Node@?$_Tree_nod@V?$_Tmap_traits@HPAVBaseDialog@@U?$less@H@std@@V?$allocator@U?$pair@$$CBHPAVBaseDialog@@@std@@@3@$0A@@std@@@std@@@std@@QAE@ABV?$allocator@U?$pair@$$CBHPAVBaseDialog@@@std@@@1@@Z ; std::allocator<std::_Tree_nod<std::_Tmap_traits<int,BaseDialog *,std::less<int>,std::allocator<std::pair<int const ,BaseDialog *> >,0> >::_Node *>::allocator<std::_Tree_nod<std::_Tmap_traits<int,BaseDialog *,std::less<int>,std::allocator<std::pair<int const ,BaseDialog *> >,0> >::_Node *><std::pair<int const ,BaseDialog *> >
; Function compile flags: /Odt /RTCsu
; File d:\program files (x86)\microsoft visual studio .net 2003\vc7\include\xtree
;	COMDAT ??0?$_Tree_ptr@V?$_Tmap_traits@HPAVBaseDialog@@U?$less@H@std@@V?$allocator@U?$pair@$$CBHPAVBaseDialog@@@std@@@3@$0A@@std@@@std@@IAE@ABU?$less@H@1@V?$allocator@U?$pair@$$CBHPAVBaseDialog@@@std@@@1@@Z
_TEXT	SEGMENT
_this$ = -4						; size = 4
__Parg$ = 8						; size = 4
__Al$ = 12						; size = 1
??0?$_Tree_ptr@V?$_Tmap_traits@HPAVBaseDialog@@U?$less@H@std@@V?$allocator@U?$pair@$$CBHPAVBaseDialog@@@std@@@3@$0A@@std@@@std@@IAE@ABU?$less@H@1@V?$allocator@U?$pair@$$CBHPAVBaseDialog@@@std@@@1@@Z PROC NEAR ; std::_Tree_ptr<std::_Tmap_traits<int,BaseDialog *,std::less<int>,std::allocator<std::pair<int const ,BaseDialog *> >,0> >::_Tree_ptr<std::_Tmap_traits<int,BaseDialog *,std::less<int>,std::allocator<std::pair<int const ,BaseDialog *> >,0> >, COMDAT
; _this$ = ecx

; 76   : 		{	// construct base, and allocator from _Al

  00000	55		 push	 ebp
  00001	8b ec		 mov	 ebp, esp
  00003	83 ec 08	 sub	 esp, 8
  00006	c7 45 f8 cc cc
	cc cc		 mov	 DWORD PTR [ebp-8], -858993460 ; ccccccccH
  0000d	c7 45 fc cc cc
	cc cc		 mov	 DWORD PTR [ebp-4], -858993460 ; ccccccccH
  00014	89 4d fc	 mov	 DWORD PTR _this$[ebp], ecx
  00017	51		 push	 ecx
  00018	8b cc		 mov	 ecx, esp
  0001a	8d 45 0c	 lea	 eax, DWORD PTR __Al$[ebp]
  0001d	50		 push	 eax
  0001e	e8 00 00 00 00	 call	 ??0?$allocator@U?$pair@$$CBHPAVBaseDialog@@@std@@@std@@QAE@ABV01@@Z ; std::allocator<std::pair<int const ,BaseDialog *> >::allocator<std::pair<int const ,BaseDialog *> >
  00023	8b 4d 08	 mov	 ecx, DWORD PTR __Parg$[ebp]
  00026	51		 push	 ecx
  00027	8b 4d fc	 mov	 ecx, DWORD PTR _this$[ebp]
  0002a	e8 00 00 00 00	 call	 ??0?$_Tree_nod@V?$_Tmap_traits@HPAVBaseDialog@@U?$less@H@std@@V?$allocator@U?$pair@$$CBHPAVBaseDialog@@@std@@@3@$0A@@std@@@std@@IAE@ABU?$less@H@1@V?$allocator@U?$pair@$$CBHPAVBaseDialog@@@std@@@1@@Z ; std::_Tree_nod<std::_Tmap_traits<int,BaseDialog *,std::less<int>,std::allocator<std::pair<int const ,BaseDialog *> >,0> >::_Tree_nod<std::_Tmap_traits<int,BaseDialog *,std::less<int>,std::allocator<std::pair<int const ,BaseDialog *> >,0> >
  0002f	8d 55 0c	 lea	 edx, DWORD PTR __Al$[ebp]
  00032	52		 push	 edx
  00033	8b 4d fc	 mov	 ecx, DWORD PTR _this$[ebp]
  00036	83 c1 02	 add	 ecx, 2
  00039	e8 00 00 00 00	 call	 ??$?0U?$pair@$$CBHPAVBaseDialog@@@std@@@?$allocator@PAU_Node@?$_Tree_nod@V?$_Tmap_traits@HPAVBaseDialog@@U?$less@H@std@@V?$allocator@U?$pair@$$CBHPAVBaseDialog@@@std@@@3@$0A@@std@@@std@@@std@@QAE@ABV?$allocator@U?$pair@$$CBHPAVBaseDialog@@@std@@@1@@Z ; std::allocator<std::_Tree_nod<std::_Tmap_traits<int,BaseDialog *,std::less<int>,std::allocator<std::pair<int const ,BaseDialog *> >,0> >::_Node *>::allocator<std::_Tree_nod<std::_Tmap_traits<int,BaseDialog *,std::less<int>,std::allocator<std::pair<int const ,BaseDialog *> >,0> >::_Node *><std::pair<int const ,BaseDialog *> >

; 77   : 		}

  0003e	8b 45 fc	 mov	 eax, DWORD PTR _this$[ebp]
  00041	83 c4 08	 add	 esp, 8
  00044	3b ec		 cmp	 ebp, esp
  00046	e8 00 00 00 00	 call	 __RTC_CheckEsp
  0004b	8b e5		 mov	 esp, ebp
  0004d	5d		 pop	 ebp
  0004e	c2 08 00	 ret	 8
??0?$_Tree_ptr@V?$_Tmap_traits@HPAVBaseDialog@@U?$less@H@std@@V?$allocator@U?$pair@$$CBHPAVBaseDialog@@@std@@@3@$0A@@std@@@std@@IAE@ABU?$less@H@1@V?$allocator@U?$pair@$$CBHPAVBaseDialog@@@std@@@1@@Z ENDP ; std::_Tree_ptr<std::_Tmap_traits<int,BaseDialog *,std::less<int>,std::allocator<std::pair<int const ,BaseDialog *> >,0> >::_Tree_ptr<std::_Tmap_traits<int,BaseDialog *,std::less<int>,std::allocator<std::pair<int const ,BaseDialog *> >,0> >
; Function compile flags: /Odt /RTCsu
_TEXT	ENDS
;	COMDAT ??Eiterator@?$_Tree@V?$_Tmap_traits@HPAVBaseDialog@@U?$less@H@std@@V?$allocator@U?$pair@$$CBHPAVBaseDialog@@@std@@@3@$0A@@std@@@std@@QAE?AV012@H@Z
_TEXT	SEGMENT
__Tmp$ = -12						; size = 4
_this$ = -4						; size = 4
___$ReturnUdt$ = 8					; size = 4
___formal$ = 12						; size = 4
??Eiterator@?$_Tree@V?$_Tmap_traits@HPAVBaseDialog@@U?$less@H@std@@V?$allocator@U?$pair@$$CBHPAVBaseDialog@@@std@@@3@$0A@@std@@@std@@QAE?AV012@H@Z PROC NEAR ; std::_Tree<std::_Tmap_traits<int,BaseDialog *,std::less<int>,std::allocator<std::pair<int const ,BaseDialog *> >,0> >::iterator::operator++, COMDAT
; _this$ = ecx

; 332  : 			{	// postincrement

  00000	55		 push	 ebp
  00001	8b ec		 mov	 ebp, esp
  00003	83 ec 10	 sub	 esp, 16			; 00000010H
  00006	b8 cc cc cc cc	 mov	 eax, -858993460		; ccccccccH
  0000b	89 45 f0	 mov	 DWORD PTR [ebp-16], eax
  0000e	89 45 f4	 mov	 DWORD PTR [ebp-12], eax
  00011	89 45 f8	 mov	 DWORD PTR [ebp-8], eax
  00014	89 45 fc	 mov	 DWORD PTR [ebp-4], eax
  00017	89 4d fc	 mov	 DWORD PTR _this$[ebp], ecx

; 333  : 			iterator _Tmp = *this;

  0001a	8b 45 fc	 mov	 eax, DWORD PTR _this$[ebp]
  0001d	8b 08		 mov	 ecx, DWORD PTR [eax]
  0001f	89 4d f4	 mov	 DWORD PTR __Tmp$[ebp], ecx

; 334  : 			++*this;

  00022	8b 4d fc	 mov	 ecx, DWORD PTR _this$[ebp]
  00025	e8 00 00 00 00	 call	 ??Eiterator@?$_Tree@V?$_Tmap_traits@HPAVBaseDialog@@U?$less@H@std@@V?$allocator@U?$pair@$$CBHPAVBaseDialog@@@std@@@3@$0A@@std@@@std@@QAEAAV012@XZ ; std::_Tree<std::_Tmap_traits<int,BaseDialog *,std::less<int>,std::allocator<std::pair<int const ,BaseDialog *> >,0> >::iterator::operator++

; 335  : 			return (_Tmp);

  0002a	8b 55 08	 mov	 edx, DWORD PTR ___$ReturnUdt$[ebp]
  0002d	8b 45 f4	 mov	 eax, DWORD PTR __Tmp$[ebp]
  00030	89 02		 mov	 DWORD PTR [edx], eax
  00032	8b 45 08	 mov	 eax, DWORD PTR ___$ReturnUdt$[ebp]

; 336  : 			}

  00035	52		 push	 edx
  00036	8b cd		 mov	 ecx, ebp
  00038	50		 push	 eax
  00039	8d 15 00 00 00
	00		 lea	 edx, DWORD PTR $L189689
  0003f	e8 00 00 00 00	 call	 @_RTC_CheckStackVars@8
  00044	58		 pop	 eax
  00045	5a		 pop	 edx
  00046	83 c4 10	 add	 esp, 16			; 00000010H
  00049	3b ec		 cmp	 ebp, esp
  0004b	e8 00 00 00 00	 call	 __RTC_CheckEsp
  00050	8b e5		 mov	 esp, ebp
  00052	5d		 pop	 ebp
  00053	c2 08 00	 ret	 8
$L189689:
  00056	01 00 00 00	 DD	 1
  0005a	00 00 00 00	 DD	 $L189688
$L189688:
  0005e	f4 ff ff ff	 DD	 -12			; fffffff4H
  00062	04 00 00 00	 DD	 4
  00066	00 00 00 00	 DD	 $L189687
$L189687:
  0006a	5f		 DB	 95			; 0000005fH
  0006b	54		 DB	 84			; 00000054H
  0006c	6d		 DB	 109			; 0000006dH
  0006d	70		 DB	 112			; 00000070H
  0006e	00		 DB	 0
??Eiterator@?$_Tree@V?$_Tmap_traits@HPAVBaseDialog@@U?$less@H@std@@V?$allocator@U?$pair@$$CBHPAVBaseDialog@@@std@@@3@$0A@@std@@@std@@QAE?AV012@H@Z ENDP ; std::_Tree<std::_Tmap_traits<int,BaseDialog *,std::less<int>,std::allocator<std::pair<int const ,BaseDialog *> >,0> >::iterator::operator++
; Function compile flags: /Odt /RTCsu
_TEXT	ENDS
;	COMDAT ??0const_iterator@?$_Tree@V?$_Tmap_traits@HPAVBaseDialog@@U?$less@H@std@@V?$allocator@U?$pair@$$CBHPAVBaseDialog@@@std@@@3@$0A@@std@@@std@@QAE@XZ
_TEXT	SEGMENT
_this$ = -4						; size = 4
??0const_iterator@?$_Tree@V?$_Tmap_traits@HPAVBaseDialog@@U?$less@H@std@@V?$allocator@U?$pair@$$CBHPAVBaseDialog@@@std@@@3@$0A@@std@@@std@@QAE@XZ PROC NEAR ; std::_Tree<std::_Tmap_traits<int,BaseDialog *,std::less<int>,std::allocator<std::pair<int const ,BaseDialog *> >,0> >::const_iterator::const_iterator, COMDAT
; _this$ = ecx

; 193  : 			{	// construct with null node pointer

  00000	55		 push	 ebp
  00001	8b ec		 mov	 ebp, esp
  00003	51		 push	 ecx
  00004	c7 45 fc cc cc
	cc cc		 mov	 DWORD PTR [ebp-4], -858993460 ; ccccccccH
  0000b	89 4d fc	 mov	 DWORD PTR _this$[ebp], ecx
  0000e	8b 45 fc	 mov	 eax, DWORD PTR _this$[ebp]
  00011	c7 00 00 00 00
	00		 mov	 DWORD PTR [eax], 0

; 194  : 			}

  00017	8b 45 fc	 mov	 eax, DWORD PTR _this$[ebp]
  0001a	8b e5		 mov	 esp, ebp
  0001c	5d		 pop	 ebp
  0001d	c3		 ret	 0
??0const_iterator@?$_Tree@V?$_Tmap_traits@HPAVBaseDialog@@U?$less@H@std@@V?$allocator@U?$pair@$$CBHPAVBaseDialog@@@std@@@3@$0A@@std@@@std@@QAE@XZ ENDP ; std::_Tree<std::_Tmap_traits<int,BaseDialog *,std::less<int>,std::allocator<std::pair<int const ,BaseDialog *> >,0> >::const_iterator::const_iterator
; Function compile flags: /Odt /RTCsu
_TEXT	ENDS
;	COMDAT ??0const_iterator@?$_Tree@V?$_Tmap_traits@HPAVBaseDialog@@U?$less@H@std@@V?$allocator@U?$pair@$$CBHPAVBaseDialog@@@std@@@3@$0A@@std@@@std@@QAE@PAU_Node@?$_Tree_nod@V?$_Tmap_traits@HPAVBaseDialog@@U?$less@H@std@@V?$allocator@U?$pair@$$CBHPAVBaseDialog@@@std@@@3@$0A@@std@@@2@@Z
_TEXT	SEGMENT
_this$ = -4						; size = 4
__Pnode$ = 8						; size = 4
??0const_iterator@?$_Tree@V?$_Tmap_traits@HPAVBaseDialog@@U?$less@H@std@@V?$allocator@U?$pair@$$CBHPAVBaseDialog@@@std@@@3@$0A@@std@@@std@@QAE@PAU_Node@?$_Tree_nod@V?$_Tmap_traits@HPAVBaseDialog@@U?$less@H@std@@V?$allocator@U?$pair@$$CBHPAVBaseDialog@@@std@@@3@$0A@@std@@@2@@Z PROC NEAR ; std::_Tree<std::_Tmap_traits<int,BaseDialog *,std::less<int>,std::allocator<std::pair<int const ,BaseDialog *> >,0> >::const_iterator::const_iterator, COMDAT
; _this$ = ecx

; 200  : 			{	// construct with node pointer _Pnode

  00000	55		 push	 ebp
  00001	8b ec		 mov	 ebp, esp
  00003	51		 push	 ecx
  00004	c7 45 fc cc cc
	cc cc		 mov	 DWORD PTR [ebp-4], -858993460 ; ccccccccH
  0000b	89 4d fc	 mov	 DWORD PTR _this$[ebp], ecx
  0000e	8b 45 fc	 mov	 eax, DWORD PTR _this$[ebp]
  00011	8b 4d 08	 mov	 ecx, DWORD PTR __Pnode$[ebp]
  00014	89 08		 mov	 DWORD PTR [eax], ecx

; 201  : 			}

  00016	8b 45 fc	 mov	 eax, DWORD PTR _this$[ebp]
  00019	8b e5		 mov	 esp, ebp
  0001b	5d		 pop	 ebp
  0001c	c2 04 00	 ret	 4
??0const_iterator@?$_Tree@V?$_Tmap_traits@HPAVBaseDialog@@U?$less@H@std@@V?$allocator@U?$pair@$$CBHPAVBaseDialog@@@std@@@3@$0A@@std@@@std@@QAE@PAU_Node@?$_Tree_nod@V?$_Tmap_traits@HPAVBaseDialog@@U?$less@H@std@@V?$allocator@U?$pair@$$CBHPAVBaseDialog@@@std@@@3@$0A@@std@@@2@@Z ENDP ; std::_Tree<std::_Tmap_traits<int,BaseDialog *,std::less<int>,std::allocator<std::pair<int const ,BaseDialog *> >,0> >::const_iterator::const_iterator
_TEXT	ENDS
PUBLIC	?_Inc@const_iterator@?$_Tree@V?$_Tmap_traits@HPAVBaseDialog@@U?$less@H@std@@V?$allocator@U?$pair@$$CBHPAVBaseDialog@@@std@@@3@$0A@@std@@@std@@QAEXXZ ; std::_Tree<std::_Tmap_traits<int,BaseDialog *,std::less<int>,std::allocator<std::pair<int const ,BaseDialog *> >,0> >::const_iterator::_Inc
; Function compile flags: /Odt /RTCsu
;	COMDAT ??Econst_iterator@?$_Tree@V?$_Tmap_traits@HPAVBaseDialog@@U?$less@H@std@@V?$allocator@U?$pair@$$CBHPAVBaseDialog@@@std@@@3@$0A@@std@@@std@@QAEAAV012@XZ
_TEXT	SEGMENT
_this$ = -4						; size = 4
??Econst_iterator@?$_Tree@V?$_Tmap_traits@HPAVBaseDialog@@U?$less@H@std@@V?$allocator@U?$pair@$$CBHPAVBaseDialog@@@std@@@3@$0A@@std@@@std@@QAEAAV012@XZ PROC NEAR ; std::_Tree<std::_Tmap_traits<int,BaseDialog *,std::less<int>,std::allocator<std::pair<int const ,BaseDialog *> >,0> >::const_iterator::operator++, COMDAT
; _this$ = ecx

; 214  : 			{	// preincrement

  00000	55		 push	 ebp
  00001	8b ec		 mov	 ebp, esp
  00003	51		 push	 ecx
  00004	c7 45 fc cc cc
	cc cc		 mov	 DWORD PTR [ebp-4], -858993460 ; ccccccccH
  0000b	89 4d fc	 mov	 DWORD PTR _this$[ebp], ecx

; 215  : 			_Inc();

  0000e	8b 4d fc	 mov	 ecx, DWORD PTR _this$[ebp]
  00011	e8 00 00 00 00	 call	 ?_Inc@const_iterator@?$_Tree@V?$_Tmap_traits@HPAVBaseDialog@@U?$less@H@std@@V?$allocator@U?$pair@$$CBHPAVBaseDialog@@@std@@@3@$0A@@std@@@std@@QAEXXZ ; std::_Tree<std::_Tmap_traits<int,BaseDialog *,std::less<int>,std::allocator<std::pair<int const ,BaseDialog *> >,0> >::const_iterator::_Inc

; 216  : 			return (*this);

  00016	8b 45 fc	 mov	 eax, DWORD PTR _this$[ebp]

; 217  : 			}

  00019	83 c4 04	 add	 esp, 4
  0001c	3b ec		 cmp	 ebp, esp
  0001e	e8 00 00 00 00	 call	 __RTC_CheckEsp
  00023	8b e5		 mov	 esp, ebp
  00025	5d		 pop	 ebp
  00026	c3		 ret	 0
??Econst_iterator@?$_Tree@V?$_Tmap_traits@HPAVBaseDialog@@U?$less@H@std@@V?$allocator@U?$pair@$$CBHPAVBaseDialog@@@std@@@3@$0A@@std@@@std@@QAEAAV012@XZ ENDP ; std::_Tree<std::_Tmap_traits<int,BaseDialog *,std::less<int>,std::allocator<std::pair<int const ,BaseDialog *> >,0> >::const_iterator::operator++
_TEXT	ENDS
PUBLIC	?_Dec@const_iterator@?$_Tree@V?$_Tmap_traits@HPAVBaseDialog@@U?$less@H@std@@V?$allocator@U?$pair@$$CBHPAVBaseDialog@@@std@@@3@$0A@@std@@@std@@QAEXXZ ; std::_Tree<std::_Tmap_traits<int,BaseDialog *,std::less<int>,std::allocator<std::pair<int const ,BaseDialog *> >,0> >::const_iterator::_Dec
; Function compile flags: /Odt /RTCsu
;	COMDAT ??Fconst_iterator@?$_Tree@V?$_Tmap_traits@HPAVBaseDialog@@U?$less@H@std@@V?$allocator@U?$pair@$$CBHPAVBaseDialog@@@std@@@3@$0A@@std@@@std@@QAEAAV012@XZ
_TEXT	SEGMENT
_this$ = -4						; size = 4
??Fconst_iterator@?$_Tree@V?$_Tmap_traits@HPAVBaseDialog@@U?$less@H@std@@V?$allocator@U?$pair@$$CBHPAVBaseDialog@@@std@@@3@$0A@@std@@@std@@QAEAAV012@XZ PROC NEAR ; std::_Tree<std::_Tmap_traits<int,BaseDialog *,std::less<int>,std::allocator<std::pair<int const ,BaseDialog *> >,0> >::const_iterator::operator--, COMDAT
; _this$ = ecx

; 227  : 			{	// predecrement

  00000	55		 push	 ebp
  00001	8b ec		 mov	 ebp, esp
  00003	51		 push	 ecx
  00004	c7 45 fc cc cc
	cc cc		 mov	 DWORD PTR [ebp-4], -858993460 ; ccccccccH
  0000b	89 4d fc	 mov	 DWORD PTR _this$[ebp], ecx

; 228  : 			_Dec();

  0000e	8b 4d fc	 mov	 ecx, DWORD PTR _this$[ebp]
  00011	e8 00 00 00 00	 call	 ?_Dec@const_iterator@?$_Tree@V?$_Tmap_traits@HPAVBaseDialog@@U?$less@H@std@@V?$allocator@U?$pair@$$CBHPAVBaseDialog@@@std@@@3@$0A@@std@@@std@@QAEXXZ ; std::_Tree<std::_Tmap_traits<int,BaseDialog *,std::less<int>,std::allocator<std::pair<int const ,BaseDialog *> >,0> >::const_iterator::_Dec

; 229  : 			return (*this);

  00016	8b 45 fc	 mov	 eax, DWORD PTR _this$[ebp]

; 230  : 			}

  00019	83 c4 04	 add	 esp, 4
  0001c	3b ec		 cmp	 ebp, esp
  0001e	e8 00 00 00 00	 call	 __RTC_CheckEsp
  00023	8b e5		 mov	 esp, ebp
  00025	5d		 pop	 ebp
  00026	c3		 ret	 0
??Fconst_iterator@?$_Tree@V?$_Tmap_traits@HPAVBaseDialog@@U?$less@H@std@@V?$allocator@U?$pair@$$CBHPAVBaseDialog@@@std@@@3@$0A@@std@@@std@@QAEAAV012@XZ ENDP ; std::_Tree<std::_Tmap_traits<int,BaseDialog *,std::less<int>,std::allocator<std::pair<int const ,BaseDialog *> >,0> >::const_iterator::operator--
; Function compile flags: /Odt /RTCsu
_TEXT	ENDS
;	COMDAT ??9const_iterator@?$_Tree@V?$_Tmap_traits@HPAVBaseDialog@@U?$less@H@std@@V?$allocator@U?$pair@$$CBHPAVBaseDialog@@@std@@@3@$0A@@std@@@std@@QBE_NABV012@@Z
_TEXT	SEGMENT
_this$ = -4						; size = 4
__Right$ = 8						; size = 4
??9const_iterator@?$_Tree@V?$_Tmap_traits@HPAVBaseDialog@@U?$less@H@std@@V?$allocator@U?$pair@$$CBHPAVBaseDialog@@@std@@@3@$0A@@std@@@std@@QBE_NABV012@@Z PROC NEAR ; std::_Tree<std::_Tmap_traits<int,BaseDialog *,std::less<int>,std::allocator<std::pair<int const ,BaseDialog *> >,0> >::const_iterator::operator!=, COMDAT
; _this$ = ecx

; 245  : 			{	// test for iterator inequality

  00000	55		 push	 ebp
  00001	8b ec		 mov	 ebp, esp
  00003	51		 push	 ecx
  00004	c7 45 fc cc cc
	cc cc		 mov	 DWORD PTR [ebp-4], -858993460 ; ccccccccH
  0000b	89 4d fc	 mov	 DWORD PTR _this$[ebp], ecx

; 246  : 			return (!(*this == _Right));

  0000e	8b 45 08	 mov	 eax, DWORD PTR __Right$[ebp]
  00011	50		 push	 eax
  00012	8b 4d fc	 mov	 ecx, DWORD PTR _this$[ebp]
  00015	e8 00 00 00 00	 call	 ??8const_iterator@?$_Tree@V?$_Tmap_traits@HPAVBaseDialog@@U?$less@H@std@@V?$allocator@U?$pair@$$CBHPAVBaseDialog@@@std@@@3@$0A@@std@@@std@@QBE_NABV012@@Z ; std::_Tree<std::_Tmap_traits<int,BaseDialog *,std::less<int>,std::allocator<std::pair<int const ,BaseDialog *> >,0> >::const_iterator::operator==
  0001a	0f b6 c0	 movzx	 eax, al
  0001d	f7 d8		 neg	 eax
  0001f	1b c0		 sbb	 eax, eax
  00021	40		 inc	 eax

; 247  : 			}

  00022	83 c4 04	 add	 esp, 4
  00025	3b ec		 cmp	 ebp, esp
  00027	e8 00 00 00 00	 call	 __RTC_CheckEsp
  0002c	8b e5		 mov	 esp, ebp
  0002e	5d		 pop	 ebp
  0002f	c2 04 00	 ret	 4
??9const_iterator@?$_Tree@V?$_Tmap_traits@HPAVBaseDialog@@U?$less@H@std@@V?$allocator@U?$pair@$$CBHPAVBaseDialog@@@std@@@3@$0A@@std@@@std@@QBE_NABV012@@Z ENDP ; std::_Tree<std::_Tmap_traits<int,BaseDialog *,std::less<int>,std::allocator<std::pair<int const ,BaseDialog *> >,0> >::const_iterator::operator!=
; Function compile flags: /Odt /RTCsu
; File d:\program files (x86)\microsoft visual studio .net 2003\vc7\include\utility
_TEXT	ENDS
;	COMDAT ??0?$pair@Viterator@?$_Tree@V?$_Tmap_traits@HPAVBaseDialog@@U?$less@H@std@@V?$allocator@U?$pair@$$CBHPAVBaseDialog@@@std@@@3@$0A@@std@@@std@@_N@std@@QAE@ABViterator@?$_Tree@V?$_Tmap_traits@HPAVBaseDialog@@U?$less@H@std@@V?$allocator@U?$pair@$$CBHPAVBaseDialog@@@std@@@3@$0A@@std@@@1@AB_N@Z
_TEXT	SEGMENT
_this$ = -4						; size = 4
__Val1$ = 8						; size = 4
__Val2$ = 12						; size = 4
??0?$pair@Viterator@?$_Tree@V?$_Tmap_traits@HPAVBaseDialog@@U?$less@H@std@@V?$allocator@U?$pair@$$CBHPAVBaseDialog@@@std@@@3@$0A@@std@@@std@@_N@std@@QAE@ABViterator@?$_Tree@V?$_Tmap_traits@HPAVBaseDialog@@U?$less@H@std@@V?$allocator@U?$pair@$$CBHPAVBaseDialog@@@std@@@3@$0A@@std@@@1@AB_N@Z PROC NEAR ; std::pair<std::_Tree<std::_Tmap_traits<int,BaseDialog *,std::less<int>,std::allocator<std::pair<int const ,BaseDialog *> >,0> >::iterator,bool>::pair<std::_Tree<std::_Tmap_traits<int,BaseDialog *,std::less<int>,std::allocator<std::pair<int const ,BaseDialog *> >,0> >::iterator,bool>, COMDAT
; _this$ = ecx

; 34   : 		{	// construct from specified values

  00000	55		 push	 ebp
  00001	8b ec		 mov	 ebp, esp
  00003	51		 push	 ecx
  00004	c7 45 fc cc cc
	cc cc		 mov	 DWORD PTR [ebp-4], -858993460 ; ccccccccH
  0000b	89 4d fc	 mov	 DWORD PTR _this$[ebp], ecx
  0000e	8b 45 08	 mov	 eax, DWORD PTR __Val1$[ebp]
  00011	8b 08		 mov	 ecx, DWORD PTR [eax]
  00013	8b 55 fc	 mov	 edx, DWORD PTR _this$[ebp]
  00016	89 0a		 mov	 DWORD PTR [edx], ecx
  00018	8b 45 fc	 mov	 eax, DWORD PTR _this$[ebp]
  0001b	8b 4d 0c	 mov	 ecx, DWORD PTR __Val2$[ebp]
  0001e	8a 11		 mov	 dl, BYTE PTR [ecx]
  00020	88 50 04	 mov	 BYTE PTR [eax+4], dl

; 35   : 		}

  00023	8b 45 fc	 mov	 eax, DWORD PTR _this$[ebp]
  00026	8b e5		 mov	 esp, ebp
  00028	5d		 pop	 ebp
  00029	c2 08 00	 ret	 8
??0?$pair@Viterator@?$_Tree@V?$_Tmap_traits@HPAVBaseDialog@@U?$less@H@std@@V?$allocator@U?$pair@$$CBHPAVBaseDialog@@@std@@@3@$0A@@std@@@std@@_N@std@@QAE@ABViterator@?$_Tree@V?$_Tmap_traits@HPAVBaseDialog@@U?$less@H@std@@V?$allocator@U?$pair@$$CBHPAVBaseDialog@@@std@@@3@$0A@@std@@@1@AB_N@Z ENDP ; std::pair<std::_Tree<std::_Tmap_traits<int,BaseDialog *,std::less<int>,std::allocator<std::pair<int const ,BaseDialog *> >,0> >::iterator,bool>::pair<std::_Tree<std::_Tmap_traits<int,BaseDialog *,std::less<int>,std::allocator<std::pair<int const ,BaseDialog *> >,0> >::iterator,bool>
; Function compile flags: /Odt /RTCsu
; File d:\program files (x86)\microsoft visual studio .net 2003\vc7\include\xtree
_TEXT	ENDS
;	COMDAT ?_Erase@?$_Tree@V?$_Tmap_traits@HPAVBaseDialog@@U?$less@H@std@@V?$allocator@U?$pair@$$CBHPAVBaseDialog@@@std@@@3@$0A@@std@@@std@@IAEXPAU_Node@?$_Tree_nod@V?$_Tmap_traits@HPAVBaseDialog@@U?$less@H@std@@V?$allocator@U?$pair@$$CBHPAVBaseDialog@@@std@@@3@$0A@@std@@@2@@Z
_TEXT	SEGMENT
__Pnode$188811 = -8					; size = 4
_this$ = -4						; size = 4
__Rootnode$ = 8						; size = 4
?_Erase@?$_Tree@V?$_Tmap_traits@HPAVBaseDialog@@U?$less@H@std@@V?$allocator@U?$pair@$$CBHPAVBaseDialog@@@std@@@3@$0A@@std@@@std@@IAEXPAU_Node@?$_Tree_nod@V?$_Tmap_traits@HPAVBaseDialog@@U?$less@H@std@@V?$allocator@U?$pair@$$CBHPAVBaseDialog@@@std@@@3@$0A@@std@@@2@@Z PROC NEAR ; std::_Tree<std::_Tmap_traits<int,BaseDialog *,std::less<int>,std::allocator<std::pair<int const ,BaseDialog *> >,0> >::_Erase, COMDAT
; _this$ = ecx

; 890  : 		{	// free entire subtree, recursively

  00000	55		 push	 ebp
  00001	8b ec		 mov	 ebp, esp
  00003	83 ec 08	 sub	 esp, 8
  00006	c7 45 f8 cc cc
	cc cc		 mov	 DWORD PTR [ebp-8], -858993460 ; ccccccccH
  0000d	c7 45 fc cc cc
	cc cc		 mov	 DWORD PTR [ebp-4], -858993460 ; ccccccccH
  00014	89 4d fc	 mov	 DWORD PTR _this$[ebp], ecx

; 891  : 		for (_Nodeptr _Pnode = _Rootnode; !_Isnil(_Pnode); _Rootnode = _Pnode)

  00017	8b 45 08	 mov	 eax, DWORD PTR __Rootnode$[ebp]
  0001a	89 45 f8	 mov	 DWORD PTR __Pnode$188811[ebp], eax
  0001d	eb 06		 jmp	 SHORT $L188812
$L188813:
  0001f	8b 4d f8	 mov	 ecx, DWORD PTR __Pnode$188811[ebp]
  00022	89 4d 08	 mov	 DWORD PTR __Rootnode$[ebp], ecx
$L188812:
  00025	8b 55 f8	 mov	 edx, DWORD PTR __Pnode$188811[ebp]
  00028	52		 push	 edx
  00029	e8 00 00 00 00	 call	 ?_Isnil@?$_Tree@V?$_Tmap_traits@HPAVBaseDialog@@U?$less@H@std@@V?$allocator@U?$pair@$$CBHPAVBaseDialog@@@std@@@3@$0A@@std@@@std@@KAAADPAU_Node@?$_Tree_nod@V?$_Tmap_traits@HPAVBaseDialog@@U?$less@H@std@@V?$allocator@U?$pair@$$CBHPAVBaseDialog@@@std@@@3@$0A@@std@@@2@@Z ; std::_Tree<std::_Tmap_traits<int,BaseDialog *,std::less<int>,std::allocator<std::pair<int const ,BaseDialog *> >,0> >::_Isnil
  0002e	83 c4 04	 add	 esp, 4
  00031	0f be 00	 movsx	 eax, BYTE PTR [eax]
  00034	85 c0		 test	 eax, eax
  00036	75 4a		 jne	 SHORT $L188810

; 892  : 			{	// free subtrees, then node
; 893  : 			_Erase(_Right(_Pnode));

  00038	8b 4d f8	 mov	 ecx, DWORD PTR __Pnode$188811[ebp]
  0003b	51		 push	 ecx
  0003c	e8 00 00 00 00	 call	 ?_Right@?$_Tree@V?$_Tmap_traits@HPAVBaseDialog@@U?$less@H@std@@V?$allocator@U?$pair@$$CBHPAVBaseDialog@@@std@@@3@$0A@@std@@@std@@KAAAPAU_Node@?$_Tree_nod@V?$_Tmap_traits@HPAVBaseDialog@@U?$less@H@std@@V?$allocator@U?$pair@$$CBHPAVBaseDialog@@@std@@@3@$0A@@std@@@2@PAU342@@Z ; std::_Tree<std::_Tmap_traits<int,BaseDialog *,std::less<int>,std::allocator<std::pair<int const ,BaseDialog *> >,0> >::_Right
  00041	83 c4 04	 add	 esp, 4
  00044	8b 10		 mov	 edx, DWORD PTR [eax]
  00046	52		 push	 edx
  00047	8b 4d fc	 mov	 ecx, DWORD PTR _this$[ebp]
  0004a	e8 00 00 00 00	 call	 ?_Erase@?$_Tree@V?$_Tmap_traits@HPAVBaseDialog@@U?$less@H@std@@V?$allocator@U?$pair@$$CBHPAVBaseDialog@@@std@@@3@$0A@@std@@@std@@IAEXPAU_Node@?$_Tree_nod@V?$_Tmap_traits@HPAVBaseDialog@@U?$less@H@std@@V?$allocator@U?$pair@$$CBHPAVBaseDialog@@@std@@@3@$0A@@std@@@2@@Z ; std::_Tree<std::_Tmap_traits<int,BaseDialog *,std::less<int>,std::allocator<std::pair<int const ,BaseDialog *> >,0> >::_Erase

; 894  : 			_Pnode = _Left(_Pnode);

  0004f	8b 45 f8	 mov	 eax, DWORD PTR __Pnode$188811[ebp]
  00052	50		 push	 eax
  00053	e8 00 00 00 00	 call	 ?_Left@?$_Tree@V?$_Tmap_traits@HPAVBaseDialog@@U?$less@H@std@@V?$allocator@U?$pair@$$CBHPAVBaseDialog@@@std@@@3@$0A@@std@@@std@@KAAAPAU_Node@?$_Tree_nod@V?$_Tmap_traits@HPAVBaseDialog@@U?$less@H@std@@V?$allocator@U?$pair@$$CBHPAVBaseDialog@@@std@@@3@$0A@@std@@@2@PAU342@@Z ; std::_Tree<std::_Tmap_traits<int,BaseDialog *,std::less<int>,std::allocator<std::pair<int const ,BaseDialog *> >,0> >::_Left
  00058	83 c4 04	 add	 esp, 4
  0005b	8b 08		 mov	 ecx, DWORD PTR [eax]
  0005d	89 4d f8	 mov	 DWORD PTR __Pnode$188811[ebp], ecx

; 895  : 			this->_Alnod.destroy(_Rootnode);	// destroy, free erased node

  00060	8b 55 08	 mov	 edx, DWORD PTR __Rootnode$[ebp]
  00063	52		 push	 edx
  00064	8b 4d fc	 mov	 ecx, DWORD PTR _this$[ebp]
  00067	83 c1 01	 add	 ecx, 1
  0006a	e8 00 00 00 00	 call	 ?destroy@?$allocator@U_Node@?$_Tree_nod@V?$_Tmap_traits@HPAVBaseDialog@@U?$less@H@std@@V?$allocator@U?$pair@$$CBHPAVBaseDialog@@@std@@@3@$0A@@std@@@std@@@std@@QAEXPAU_Node@?$_Tree_nod@V?$_Tmap_traits@HPAVBaseDialog@@U?$less@H@std@@V?$allocator@U?$pair@$$CBHPAVBaseDialog@@@std@@@3@$0A@@std@@@2@@Z ; std::allocator<std::_Tree_nod<std::_Tmap_traits<int,BaseDialog *,std::less<int>,std::allocator<std::pair<int const ,BaseDialog *> >,0> >::_Node>::destroy

; 896  : 			this->_Alnod.deallocate(_Rootnode, 1);

  0006f	6a 01		 push	 1
  00071	8b 45 08	 mov	 eax, DWORD PTR __Rootnode$[ebp]
  00074	50		 push	 eax
  00075	8b 4d fc	 mov	 ecx, DWORD PTR _this$[ebp]
  00078	83 c1 01	 add	 ecx, 1
  0007b	e8 00 00 00 00	 call	 ?deallocate@?$allocator@U_Node@?$_Tree_nod@V?$_Tmap_traits@HPAVBaseDialog@@U?$less@H@std@@V?$allocator@U?$pair@$$CBHPAVBaseDialog@@@std@@@3@$0A@@std@@@std@@@std@@QAEXPAU_Node@?$_Tree_nod@V?$_Tmap_traits@HPAVBaseDialog@@U?$less@H@std@@V?$allocator@U?$pair@$$CBHPAVBaseDialog@@@std@@@3@$0A@@std@@@2@I@Z ; std::allocator<std::_Tree_nod<std::_Tmap_traits<int,BaseDialog *,std::less<int>,std::allocator<std::pair<int const ,BaseDialog *> >,0> >::_Node>::deallocate

; 897  : 			}

  00080	eb 9d		 jmp	 SHORT $L188813
$L188810:

; 898  : 		}

  00082	83 c4 08	 add	 esp, 8
  00085	3b ec		 cmp	 ebp, esp
  00087	e8 00 00 00 00	 call	 __RTC_CheckEsp
  0008c	8b e5		 mov	 esp, ebp
  0008e	5d		 pop	 ebp
  0008f	c2 04 00	 ret	 4
?_Erase@?$_Tree@V?$_Tmap_traits@HPAVBaseDialog@@U?$less@H@std@@V?$allocator@U?$pair@$$CBHPAVBaseDialog@@@std@@@3@$0A@@std@@@std@@IAEXPAU_Node@?$_Tree_nod@V?$_Tmap_traits@HPAVBaseDialog@@U?$less@H@std@@V?$allocator@U?$pair@$$CBHPAVBaseDialog@@@std@@@3@$0A@@std@@@2@@Z ENDP ; std::_Tree<std::_Tmap_traits<int,BaseDialog *,std::less<int>,std::allocator<std::pair<int const ,BaseDialog *> >,0> >::_Erase
; Function compile flags: /Odt /RTCsu
_TEXT	ENDS
;	COMDAT ?_Max@?$_Tree@V?$_Tmap_traits@HPAVBaseDialog@@U?$less@H@std@@V?$allocator@U?$pair@$$CBHPAVBaseDialog@@@std@@@3@$0A@@std@@@std@@KAPAU_Node@?$_Tree_nod@V?$_Tmap_traits@HPAVBaseDialog@@U?$less@H@std@@V?$allocator@U?$pair@$$CBHPAVBaseDialog@@@std@@@3@$0A@@std@@@2@PAU342@@Z
_TEXT	SEGMENT
__Pnode$ = 8						; size = 4
?_Max@?$_Tree@V?$_Tmap_traits@HPAVBaseDialog@@U?$less@H@std@@V?$allocator@U?$pair@$$CBHPAVBaseDialog@@@std@@@3@$0A@@std@@@std@@KAPAU_Node@?$_Tree_nod@V?$_Tmap_traits@HPAVBaseDialog@@U?$less@H@std@@V?$allocator@U?$pair@$$CBHPAVBaseDialog@@@std@@@3@$0A@@std@@@2@PAU342@@Z PROC NEAR ; std::_Tree<std::_Tmap_traits<int,BaseDialog *,std::less<int>,std::allocator<std::pair<int const ,BaseDialog *> >,0> >::_Max, COMDAT

; 1034 : 		{	// return rightmost node in subtree at _Pnode

  00000	55		 push	 ebp
  00001	8b ec		 mov	 ebp, esp
$L188817:

; 1035 : 		while (!_Isnil(_Right(_Pnode)))

  00003	8b 45 08	 mov	 eax, DWORD PTR __Pnode$[ebp]
  00006	50		 push	 eax
  00007	e8 00 00 00 00	 call	 ?_Right@?$_Tree@V?$_Tmap_traits@HPAVBaseDialog@@U?$less@H@std@@V?$allocator@U?$pair@$$CBHPAVBaseDialog@@@std@@@3@$0A@@std@@@std@@KAAAPAU_Node@?$_Tree_nod@V?$_Tmap_traits@HPAVBaseDialog@@U?$less@H@std@@V?$allocator@U?$pair@$$CBHPAVBaseDialog@@@std@@@3@$0A@@std@@@2@PAU342@@Z ; std::_Tree<std::_Tmap_traits<int,BaseDialog *,std::less<int>,std::allocator<std::pair<int const ,BaseDialog *> >,0> >::_Right
  0000c	83 c4 04	 add	 esp, 4
  0000f	8b 08		 mov	 ecx, DWORD PTR [eax]
  00011	51		 push	 ecx
  00012	e8 00 00 00 00	 call	 ?_Isnil@?$_Tree@V?$_Tmap_traits@HPAVBaseDialog@@U?$less@H@std@@V?$allocator@U?$pair@$$CBHPAVBaseDialog@@@std@@@3@$0A@@std@@@std@@KAAADPAU_Node@?$_Tree_nod@V?$_Tmap_traits@HPAVBaseDialog@@U?$less@H@std@@V?$allocator@U?$pair@$$CBHPAVBaseDialog@@@std@@@3@$0A@@std@@@2@@Z ; std::_Tree<std::_Tmap_traits<int,BaseDialog *,std::less<int>,std::allocator<std::pair<int const ,BaseDialog *> >,0> >::_Isnil
  00017	83 c4 04	 add	 esp, 4
  0001a	0f be 10	 movsx	 edx, BYTE PTR [eax]
  0001d	85 d2		 test	 edx, edx
  0001f	75 13		 jne	 SHORT $L188818

; 1036 : 			_Pnode = _Right(_Pnode);

  00021	8b 45 08	 mov	 eax, DWORD PTR __Pnode$[ebp]
  00024	50		 push	 eax
  00025	e8 00 00 00 00	 call	 ?_Right@?$_Tree@V?$_Tmap_traits@HPAVBaseDialog@@U?$less@H@std@@V?$allocator@U?$pair@$$CBHPAVBaseDialog@@@std@@@3@$0A@@std@@@std@@KAAAPAU_Node@?$_Tree_nod@V?$_Tmap_traits@HPAVBaseDialog@@U?$less@H@std@@V?$allocator@U?$pair@$$CBHPAVBaseDialog@@@std@@@3@$0A@@std@@@2@PAU342@@Z ; std::_Tree<std::_Tmap_traits<int,BaseDialog *,std::less<int>,std::allocator<std::pair<int const ,BaseDialog *> >,0> >::_Right
  0002a	83 c4 04	 add	 esp, 4
  0002d	8b 08		 mov	 ecx, DWORD PTR [eax]
  0002f	89 4d 08	 mov	 DWORD PTR __Pnode$[ebp], ecx
  00032	eb cf		 jmp	 SHORT $L188817
$L188818:

; 1037 : 		return (_Pnode);

  00034	8b 45 08	 mov	 eax, DWORD PTR __Pnode$[ebp]

; 1038 : 		}

  00037	3b ec		 cmp	 ebp, esp
  00039	e8 00 00 00 00	 call	 __RTC_CheckEsp
  0003e	5d		 pop	 ebp
  0003f	c3		 ret	 0
?_Max@?$_Tree@V?$_Tmap_traits@HPAVBaseDialog@@U?$less@H@std@@V?$allocator@U?$pair@$$CBHPAVBaseDialog@@@std@@@3@$0A@@std@@@std@@KAPAU_Node@?$_Tree_nod@V?$_Tmap_traits@HPAVBaseDialog@@U?$less@H@std@@V?$allocator@U?$pair@$$CBHPAVBaseDialog@@@std@@@3@$0A@@std@@@2@PAU342@@Z ENDP ; std::_Tree<std::_Tmap_traits<int,BaseDialog *,std::less<int>,std::allocator<std::pair<int const ,BaseDialog *> >,0> >::_Max
; Function compile flags: /Odt /RTCsu
_TEXT	ENDS
;	COMDAT ?_Min@?$_Tree@V?$_Tmap_traits@HPAVBaseDialog@@U?$less@H@std@@V?$allocator@U?$pair@$$CBHPAVBaseDialog@@@std@@@3@$0A@@std@@@std@@KAPAU_Node@?$_Tree_nod@V?$_Tmap_traits@HPAVBaseDialog@@U?$less@H@std@@V?$allocator@U?$pair@$$CBHPAVBaseDialog@@@std@@@3@$0A@@std@@@2@PAU342@@Z
_TEXT	SEGMENT
__Pnode$ = 8						; size = 4
?_Min@?$_Tree@V?$_Tmap_traits@HPAVBaseDialog@@U?$less@H@std@@V?$allocator@U?$pair@$$CBHPAVBaseDialog@@@std@@@3@$0A@@std@@@std@@KAPAU_Node@?$_Tree_nod@V?$_Tmap_traits@HPAVBaseDialog@@U?$less@H@std@@V?$allocator@U?$pair@$$CBHPAVBaseDialog@@@std@@@3@$0A@@std@@@2@PAU342@@Z PROC NEAR ; std::_Tree<std::_Tmap_traits<int,BaseDialog *,std::less<int>,std::allocator<std::pair<int const ,BaseDialog *> >,0> >::_Min, COMDAT

; 1041 : 		{	// return leftmost node in subtree at _Pnode

  00000	55		 push	 ebp
  00001	8b ec		 mov	 ebp, esp
$L188821:

; 1042 : 		while (!_Isnil(_Left(_Pnode)))

  00003	8b 45 08	 mov	 eax, DWORD PTR __Pnode$[ebp]
  00006	50		 push	 eax
  00007	e8 00 00 00 00	 call	 ?_Left@?$_Tree@V?$_Tmap_traits@HPAVBaseDialog@@U?$less@H@std@@V?$allocator@U?$pair@$$CBHPAVBaseDialog@@@std@@@3@$0A@@std@@@std@@KAAAPAU_Node@?$_Tree_nod@V?$_Tmap_traits@HPAVBaseDialog@@U?$less@H@std@@V?$allocator@U?$pair@$$CBHPAVBaseDialog@@@std@@@3@$0A@@std@@@2@PAU342@@Z ; std::_Tree<std::_Tmap_traits<int,BaseDialog *,std::less<int>,std::allocator<std::pair<int const ,BaseDialog *> >,0> >::_Left
  0000c	83 c4 04	 add	 esp, 4
  0000f	8b 08		 mov	 ecx, DWORD PTR [eax]
  00011	51		 push	 ecx
  00012	e8 00 00 00 00	 call	 ?_Isnil@?$_Tree@V?$_Tmap_traits@HPAVBaseDialog@@U?$less@H@std@@V?$allocator@U?$pair@$$CBHPAVBaseDialog@@@std@@@3@$0A@@std@@@std@@KAAADPAU_Node@?$_Tree_nod@V?$_Tmap_traits@HPAVBaseDialog@@U?$less@H@std@@V?$allocator@U?$pair@$$CBHPAVBaseDialog@@@std@@@3@$0A@@std@@@2@@Z ; std::_Tree<std::_Tmap_traits<int,BaseDialog *,std::less<int>,std::allocator<std::pair<int const ,BaseDialog *> >,0> >::_Isnil
  00017	83 c4 04	 add	 esp, 4
  0001a	0f be 10	 movsx	 edx, BYTE PTR [eax]
  0001d	85 d2		 test	 edx, edx
  0001f	75 13		 jne	 SHORT $L188822

; 1043 : 			_Pnode = _Left(_Pnode);

  00021	8b 45 08	 mov	 eax, DWORD PTR __Pnode$[ebp]
  00024	50		 push	 eax
  00025	e8 00 00 00 00	 call	 ?_Left@?$_Tree@V?$_Tmap_traits@HPAVBaseDialog@@U?$less@H@std@@V?$allocator@U?$pair@$$CBHPAVBaseDialog@@@std@@@3@$0A@@std@@@std@@KAAAPAU_Node@?$_Tree_nod@V?$_Tmap_traits@HPAVBaseDialog@@U?$less@H@std@@V?$allocator@U?$pair@$$CBHPAVBaseDialog@@@std@@@3@$0A@@std@@@2@PAU342@@Z ; std::_Tree<std::_Tmap_traits<int,BaseDialog *,std::less<int>,std::allocator<std::pair<int const ,BaseDialog *> >,0> >::_Left
  0002a	83 c4 04	 add	 esp, 4
  0002d	8b 08		 mov	 ecx, DWORD PTR [eax]
  0002f	89 4d 08	 mov	 DWORD PTR __Pnode$[ebp], ecx
  00032	eb cf		 jmp	 SHORT $L188821
$L188822:

; 1044 : 		return (_Pnode);

  00034	8b 45 08	 mov	 eax, DWORD PTR __Pnode$[ebp]

; 1045 : 		}

  00037	3b ec		 cmp	 ebp, esp
  00039	e8 00 00 00 00	 call	 __RTC_CheckEsp
  0003e	5d		 pop	 ebp
  0003f	c3		 ret	 0
?_Min@?$_Tree@V?$_Tmap_traits@HPAVBaseDialog@@U?$less@H@std@@V?$allocator@U?$pair@$$CBHPAVBaseDialog@@@std@@@3@$0A@@std@@@std@@KAPAU_Node@?$_Tree_nod@V?$_Tmap_traits@HPAVBaseDialog@@U?$less@H@std@@V?$allocator@U?$pair@$$CBHPAVBaseDialog@@@std@@@3@$0A@@std@@@2@PAU342@@Z ENDP ; std::_Tree<std::_Tmap_traits<int,BaseDialog *,std::less<int>,std::allocator<std::pair<int const ,BaseDialog *> >,0> >::_Min
_TEXT	ENDS
PUBLIC	??0?$_Tmap_traits@HPAVBaseDialog@@U?$less@H@std@@V?$allocator@U?$pair@$$CBHPAVBaseDialog@@@std@@@3@$0A@@std@@QAE@U?$less@H@1@@Z ; std::_Tmap_traits<int,BaseDialog *,std::less<int>,std::allocator<std::pair<int const ,BaseDialog *> >,0>::_Tmap_traits<int,BaseDialog *,std::less<int>,std::allocator<std::pair<int const ,BaseDialog *> >,0>
PUBLIC	??$?0U?$pair@$$CBHPAVBaseDialog@@@std@@@?$allocator@U_Node@?$_Tree_nod@V?$_Tmap_traits@HPAVBaseDialog@@U?$less@H@std@@V?$allocator@U?$pair@$$CBHPAVBaseDialog@@@std@@@3@$0A@@std@@@std@@@std@@QAE@ABV?$allocator@U?$pair@$$CBHPAVBaseDialog@@@std@@@1@@Z ; std::allocator<std::_Tree_nod<std::_Tmap_traits<int,BaseDialog *,std::less<int>,std::allocator<std::pair<int const ,BaseDialog *> >,0> >::_Node>::allocator<std::_Tree_nod<std::_Tmap_traits<int,BaseDialog *,std::less<int>,std::allocator<std::pair<int const ,BaseDialog *> >,0> >::_Node><std::pair<int const ,BaseDialog *> >
; Function compile flags: /Odt /RTCsu
;	COMDAT ??0?$_Tree_nod@V?$_Tmap_traits@HPAVBaseDialog@@U?$less@H@std@@V?$allocator@U?$pair@$$CBHPAVBaseDialog@@@std@@@3@$0A@@std@@@std@@IAE@ABU?$less@H@1@V?$allocator@U?$pair@$$CBHPAVBaseDialog@@@std@@@1@@Z
_TEXT	SEGMENT
_this$ = -4						; size = 4
__Parg$ = 8						; size = 4
__Al$ = 12						; size = 1
??0?$_Tree_nod@V?$_Tmap_traits@HPAVBaseDialog@@U?$less@H@std@@V?$allocator@U?$pair@$$CBHPAVBaseDialog@@@std@@@3@$0A@@std@@@std@@IAE@ABU?$less@H@1@V?$allocator@U?$pair@$$CBHPAVBaseDialog@@@std@@@1@@Z PROC NEAR ; std::_Tree_nod<std::_Tmap_traits<int,BaseDialog *,std::less<int>,std::allocator<std::pair<int const ,BaseDialog *> >,0> >::_Tree_nod<std::_Tmap_traits<int,BaseDialog *,std::less<int>,std::allocator<std::pair<int const ,BaseDialog *> >,0> >, COMDAT
; _this$ = ecx

; 54   : 		{	// construct traits from _Parg and allocator from _Al

  00000	55		 push	 ebp
  00001	8b ec		 mov	 ebp, esp
  00003	51		 push	 ecx
  00004	c7 45 fc cc cc
	cc cc		 mov	 DWORD PTR [ebp-4], -858993460 ; ccccccccH
  0000b	89 4d fc	 mov	 DWORD PTR _this$[ebp], ecx
  0000e	8b 45 08	 mov	 eax, DWORD PTR __Parg$[ebp]
  00011	8a 08		 mov	 cl, BYTE PTR [eax]
  00013	51		 push	 ecx
  00014	8b 4d fc	 mov	 ecx, DWORD PTR _this$[ebp]
  00017	e8 00 00 00 00	 call	 ??0?$_Tmap_traits@HPAVBaseDialog@@U?$less@H@std@@V?$allocator@U?$pair@$$CBHPAVBaseDialog@@@std@@@3@$0A@@std@@QAE@U?$less@H@1@@Z ; std::_Tmap_traits<int,BaseDialog *,std::less<int>,std::allocator<std::pair<int const ,BaseDialog *> >,0>::_Tmap_traits<int,BaseDialog *,std::less<int>,std::allocator<std::pair<int const ,BaseDialog *> >,0>
  0001c	8d 55 0c	 lea	 edx, DWORD PTR __Al$[ebp]
  0001f	52		 push	 edx
  00020	8b 4d fc	 mov	 ecx, DWORD PTR _this$[ebp]
  00023	83 c1 01	 add	 ecx, 1
  00026	e8 00 00 00 00	 call	 ??$?0U?$pair@$$CBHPAVBaseDialog@@@std@@@?$allocator@U_Node@?$_Tree_nod@V?$_Tmap_traits@HPAVBaseDialog@@U?$less@H@std@@V?$allocator@U?$pair@$$CBHPAVBaseDialog@@@std@@@3@$0A@@std@@@std@@@std@@QAE@ABV?$allocator@U?$pair@$$CBHPAVBaseDialog@@@std@@@1@@Z ; std::allocator<std::_Tree_nod<std::_Tmap_traits<int,BaseDialog *,std::less<int>,std::allocator<std::pair<int const ,BaseDialog *> >,0> >::_Node>::allocator<std::_Tree_nod<std::_Tmap_traits<int,BaseDialog *,std::less<int>,std::allocator<std::pair<int const ,BaseDialog *> >,0> >::_Node><std::pair<int const ,BaseDialog *> >

; 55   : 		}

  0002b	8b 45 fc	 mov	 eax, DWORD PTR _this$[ebp]
  0002e	83 c4 04	 add	 esp, 4
  00031	3b ec		 cmp	 ebp, esp
  00033	e8 00 00 00 00	 call	 __RTC_CheckEsp
  00038	8b e5		 mov	 esp, ebp
  0003a	5d		 pop	 ebp
  0003b	c2 08 00	 ret	 8
??0?$_Tree_nod@V?$_Tmap_traits@HPAVBaseDialog@@U?$less@H@std@@V?$allocator@U?$pair@$$CBHPAVBaseDialog@@@std@@@3@$0A@@std@@@std@@IAE@ABU?$less@H@1@V?$allocator@U?$pair@$$CBHPAVBaseDialog@@@std@@@1@@Z ENDP ; std::_Tree_nod<std::_Tmap_traits<int,BaseDialog *,std::less<int>,std::allocator<std::pair<int const ,BaseDialog *> >,0> >::_Tree_nod<std::_Tmap_traits<int,BaseDialog *,std::less<int>,std::allocator<std::pair<int const ,BaseDialog *> >,0> >
; Function compile flags: /Odt /RTCsu
; File d:\program files (x86)\microsoft visual studio .net 2003\vc7\include\xmemory
_TEXT	ENDS
;	COMDAT ?max_size@?$allocator@U?$pair@$$CBHPAVBaseDialog@@@std@@@std@@QBEIXZ
_TEXT	SEGMENT
tv65 = -12						; size = 4
__Count$ = -8						; size = 4
_this$ = -4						; size = 4
?max_size@?$allocator@U?$pair@$$CBHPAVBaseDialog@@@std@@@std@@QBEIXZ PROC NEAR ; std::allocator<std::pair<int const ,BaseDialog *> >::max_size, COMDAT
; _this$ = ecx

; 156  : 		{	// estimate maximum array size

  00000	55		 push	 ebp
  00001	8b ec		 mov	 ebp, esp
  00003	83 ec 0c	 sub	 esp, 12			; 0000000cH
  00006	c7 45 f4 cc cc
	cc cc		 mov	 DWORD PTR [ebp-12], -858993460 ; ccccccccH
  0000d	c7 45 f8 cc cc
	cc cc		 mov	 DWORD PTR [ebp-8], -858993460 ; ccccccccH
  00014	c7 45 fc cc cc
	cc cc		 mov	 DWORD PTR [ebp-4], -858993460 ; ccccccccH
  0001b	89 4d fc	 mov	 DWORD PTR _this$[ebp], ecx

; 157  : 		_SIZT _Count = (_SIZT)(-1) / sizeof (_Ty);

  0001e	c7 45 f8 ff ff
	ff 1f		 mov	 DWORD PTR __Count$[ebp], 536870911 ; 1fffffffH

; 158  : 		return (0 < _Count ? _Count : 1);

  00025	83 7d f8 00	 cmp	 DWORD PTR __Count$[ebp], 0
  00029	76 08		 jbe	 SHORT $L189701
  0002b	8b 45 f8	 mov	 eax, DWORD PTR __Count$[ebp]
  0002e	89 45 f4	 mov	 DWORD PTR tv65[ebp], eax
  00031	eb 07		 jmp	 SHORT $L189702
$L189701:
  00033	c7 45 f4 01 00
	00 00		 mov	 DWORD PTR tv65[ebp], 1
$L189702:
  0003a	8b 45 f4	 mov	 eax, DWORD PTR tv65[ebp]

; 159  : 		}

  0003d	8b e5		 mov	 esp, ebp
  0003f	5d		 pop	 ebp
  00040	c3		 ret	 0
?max_size@?$allocator@U?$pair@$$CBHPAVBaseDialog@@@std@@@std@@QBEIXZ ENDP ; std::allocator<std::pair<int const ,BaseDialog *> >::max_size
_TEXT	ENDS
PUBLIC	??$_Allocate@U_Node@?$_Tree_nod@V?$_Tmap_traits@HPAVBaseDialog@@U?$less@H@std@@V?$allocator@U?$pair@$$CBHPAVBaseDialog@@@std@@@3@$0A@@std@@@std@@@std@@YAPAU_Node@?$_Tree_nod@V?$_Tmap_traits@HPAVBaseDialog@@U?$less@H@std@@V?$allocator@U?$pair@$$CBHPAVBaseDialog@@@std@@@3@$0A@@std@@@0@IPAU120@@Z ; std::_Allocate<std::_Tree_nod<std::_Tmap_traits<int,BaseDialog *,std::less<int>,std::allocator<std::pair<int const ,BaseDialog *> >,0> >::_Node>
; Function compile flags: /Odt /RTCsu
;	COMDAT ?allocate@?$allocator@U_Node@?$_Tree_nod@V?$_Tmap_traits@HPAVBaseDialog@@U?$less@H@std@@V?$allocator@U?$pair@$$CBHPAVBaseDialog@@@std@@@3@$0A@@std@@@std@@@std@@QAEPAU_Node@?$_Tree_nod@V?$_Tmap_traits@HPAVBaseDialog@@U?$less@H@std@@V?$allocator@U?$pair@$$CBHPAVBaseDialog@@@std@@@3@$0A@@std@@@2@I@Z
_TEXT	SEGMENT
_this$ = -4						; size = 4
__Count$ = 8						; size = 4
?allocate@?$allocator@U_Node@?$_Tree_nod@V?$_Tmap_traits@HPAVBaseDialog@@U?$less@H@std@@V?$allocator@U?$pair@$$CBHPAVBaseDialog@@@std@@@3@$0A@@std@@@std@@@std@@QAEPAU_Node@?$_Tree_nod@V?$_Tmap_traits@HPAVBaseDialog@@U?$less@H@std@@V?$allocator@U?$pair@$$CBHPAVBaseDialog@@@std@@@3@$0A@@std@@@2@I@Z PROC NEAR ; std::allocator<std::_Tree_nod<std::_Tmap_traits<int,BaseDialog *,std::less<int>,std::allocator<std::pair<int const ,BaseDialog *> >,0> >::_Node>::allocate, COMDAT
; _this$ = ecx

; 136  : 		{	// allocate array of _Count elements

  00000	55		 push	 ebp
  00001	8b ec		 mov	 ebp, esp
  00003	51		 push	 ecx
  00004	c7 45 fc cc cc
	cc cc		 mov	 DWORD PTR [ebp-4], -858993460 ; ccccccccH
  0000b	89 4d fc	 mov	 DWORD PTR _this$[ebp], ecx

; 137  : 		return (_Allocate(_Count, (pointer)0));

  0000e	6a 00		 push	 0
  00010	8b 45 08	 mov	 eax, DWORD PTR __Count$[ebp]
  00013	50		 push	 eax
  00014	e8 00 00 00 00	 call	 ??$_Allocate@U_Node@?$_Tree_nod@V?$_Tmap_traits@HPAVBaseDialog@@U?$less@H@std@@V?$allocator@U?$pair@$$CBHPAVBaseDialog@@@std@@@3@$0A@@std@@@std@@@std@@YAPAU_Node@?$_Tree_nod@V?$_Tmap_traits@HPAVBaseDialog@@U?$less@H@std@@V?$allocator@U?$pair@$$CBHPAVBaseDialog@@@std@@@3@$0A@@std@@@0@IPAU120@@Z ; std::_Allocate<std::_Tree_nod<std::_Tmap_traits<int,BaseDialog *,std::less<int>,std::allocator<std::pair<int const ,BaseDialog *> >,0> >::_Node>
  00019	83 c4 08	 add	 esp, 8

; 138  : 		}

  0001c	83 c4 04	 add	 esp, 4
  0001f	3b ec		 cmp	 ebp, esp
  00021	e8 00 00 00 00	 call	 __RTC_CheckEsp
  00026	8b e5		 mov	 esp, ebp
  00028	5d		 pop	 ebp
  00029	c2 04 00	 ret	 4
?allocate@?$allocator@U_Node@?$_Tree_nod@V?$_Tmap_traits@HPAVBaseDialog@@U?$less@H@std@@V?$allocator@U?$pair@$$CBHPAVBaseDialog@@@std@@@3@$0A@@std@@@std@@@std@@QAEPAU_Node@?$_Tree_nod@V?$_Tmap_traits@HPAVBaseDialog@@U?$less@H@std@@V?$allocator@U?$pair@$$CBHPAVBaseDialog@@@std@@@3@$0A@@std@@@2@I@Z ENDP ; std::allocator<std::_Tree_nod<std::_Tmap_traits<int,BaseDialog *,std::less<int>,std::allocator<std::pair<int const ,BaseDialog *> >,0> >::_Node>::allocate
_TEXT	ENDS
PUBLIC	??$_Destroy@U_Node@?$_Tree_nod@V?$_Tmap_traits@HPAVBaseDialog@@U?$less@H@std@@V?$allocator@U?$pair@$$CBHPAVBaseDialog@@@std@@@3@$0A@@std@@@std@@@std@@YAXPAU_Node@?$_Tree_nod@V?$_Tmap_traits@HPAVBaseDialog@@U?$less@H@std@@V?$allocator@U?$pair@$$CBHPAVBaseDialog@@@std@@@3@$0A@@std@@@0@@Z ; std::_Destroy<std::_Tree_nod<std::_Tmap_traits<int,BaseDialog *,std::less<int>,std::allocator<std::pair<int const ,BaseDialog *> >,0> >::_Node>
; Function compile flags: /Odt /RTCsu
;	COMDAT ?destroy@?$allocator@U_Node@?$_Tree_nod@V?$_Tmap_traits@HPAVBaseDialog@@U?$less@H@std@@V?$allocator@U?$pair@$$CBHPAVBaseDialog@@@std@@@3@$0A@@std@@@std@@@std@@QAEXPAU_Node@?$_Tree_nod@V?$_Tmap_traits@HPAVBaseDialog@@U?$less@H@std@@V?$allocator@U?$pair@$$CBHPAVBaseDialog@@@std@@@3@$0A@@std@@@2@@Z
_TEXT	SEGMENT
_this$ = -4						; size = 4
__Ptr$ = 8						; size = 4
?destroy@?$allocator@U_Node@?$_Tree_nod@V?$_Tmap_traits@HPAVBaseDialog@@U?$less@H@std@@V?$allocator@U?$pair@$$CBHPAVBaseDialog@@@std@@@3@$0A@@std@@@std@@@std@@QAEXPAU_Node@?$_Tree_nod@V?$_Tmap_traits@HPAVBaseDialog@@U?$less@H@std@@V?$allocator@U?$pair@$$CBHPAVBaseDialog@@@std@@@3@$0A@@std@@@2@@Z PROC NEAR ; std::allocator<std::_Tree_nod<std::_Tmap_traits<int,BaseDialog *,std::less<int>,std::allocator<std::pair<int const ,BaseDialog *> >,0> >::_Node>::destroy, COMDAT
; _this$ = ecx

; 151  : 		{	// destroy object at _Ptr

  00000	55		 push	 ebp
  00001	8b ec		 mov	 ebp, esp
  00003	51		 push	 ecx
  00004	c7 45 fc cc cc
	cc cc		 mov	 DWORD PTR [ebp-4], -858993460 ; ccccccccH
  0000b	89 4d fc	 mov	 DWORD PTR _this$[ebp], ecx

; 152  : 		_Destroy(_Ptr);

  0000e	8b 45 08	 mov	 eax, DWORD PTR __Ptr$[ebp]
  00011	50		 push	 eax
  00012	e8 00 00 00 00	 call	 ??$_Destroy@U_Node@?$_Tree_nod@V?$_Tmap_traits@HPAVBaseDialog@@U?$less@H@std@@V?$allocator@U?$pair@$$CBHPAVBaseDialog@@@std@@@3@$0A@@std@@@std@@@std@@YAXPAU_Node@?$_Tree_nod@V?$_Tmap_traits@HPAVBaseDialog@@U?$less@H@std@@V?$allocator@U?$pair@$$CBHPAVBaseDialog@@@std@@@3@$0A@@std@@@0@@Z ; std::_Destroy<std::_Tree_nod<std::_Tmap_traits<int,BaseDialog *,std::less<int>,std::allocator<std::pair<int const ,BaseDialog *> >,0> >::_Node>
  00017	83 c4 04	 add	 esp, 4

; 153  : 		}

  0001a	83 c4 04	 add	 esp, 4
  0001d	3b ec		 cmp	 ebp, esp
  0001f	e8 00 00 00 00	 call	 __RTC_CheckEsp
  00024	8b e5		 mov	 esp, ebp
  00026	5d		 pop	 ebp
  00027	c2 04 00	 ret	 4
?destroy@?$allocator@U_Node@?$_Tree_nod@V?$_Tmap_traits@HPAVBaseDialog@@U?$less@H@std@@V?$allocator@U?$pair@$$CBHPAVBaseDialog@@@std@@@3@$0A@@std@@@std@@@std@@QAEXPAU_Node@?$_Tree_nod@V?$_Tmap_traits@HPAVBaseDialog@@U?$less@H@std@@V?$allocator@U?$pair@$$CBHPAVBaseDialog@@@std@@@3@$0A@@std@@@2@@Z ENDP ; std::allocator<std::_Tree_nod<std::_Tmap_traits<int,BaseDialog *,std::less<int>,std::allocator<std::pair<int const ,BaseDialog *> >,0> >::_Node>::destroy
_TEXT	ENDS
PUBLIC	??$_Construct@PAU_Node@?$_Tree_nod@V?$_Tmap_traits@HPAVBaseDialog@@U?$less@H@std@@V?$allocator@U?$pair@$$CBHPAVBaseDialog@@@std@@@3@$0A@@std@@@std@@PAU123@@std@@YAXPAPAU_Node@?$_Tree_nod@V?$_Tmap_traits@HPAVBaseDialog@@U?$less@H@std@@V?$allocator@U?$pair@$$CBHPAVBaseDialog@@@std@@@3@$0A@@std@@@0@ABQAU120@@Z ; std::_Construct<std::_Tree_nod<std::_Tmap_traits<int,BaseDialog *,std::less<int>,std::allocator<std::pair<int const ,BaseDialog *> >,0> >::_Node *,std::_Tree_nod<std::_Tmap_traits<int,BaseDialog *,std::less<int>,std::allocator<std::pair<int const ,BaseDialog *> >,0> >::_Node *>
; Function compile flags: /Odt /RTCsu
;	COMDAT ?construct@?$allocator@PAU_Node@?$_Tree_nod@V?$_Tmap_traits@HPAVBaseDialog@@U?$less@H@std@@V?$allocator@U?$pair@$$CBHPAVBaseDialog@@@std@@@3@$0A@@std@@@std@@@std@@QAEXPAPAU_Node@?$_Tree_nod@V?$_Tmap_traits@HPAVBaseDialog@@U?$less@H@std@@V?$allocator@U?$pair@$$CBHPAVBaseDialog@@@std@@@3@$0A@@std@@@2@ABQAU342@@Z
_TEXT	SEGMENT
_this$ = -4						; size = 4
__Ptr$ = 8						; size = 4
__Val$ = 12						; size = 4
?construct@?$allocator@PAU_Node@?$_Tree_nod@V?$_Tmap_traits@HPAVBaseDialog@@U?$less@H@std@@V?$allocator@U?$pair@$$CBHPAVBaseDialog@@@std@@@3@$0A@@std@@@std@@@std@@QAEXPAPAU_Node@?$_Tree_nod@V?$_Tmap_traits@HPAVBaseDialog@@U?$less@H@std@@V?$allocator@U?$pair@$$CBHPAVBaseDialog@@@std@@@3@$0A@@std@@@2@ABQAU342@@Z PROC NEAR ; std::allocator<std::_Tree_nod<std::_Tmap_traits<int,BaseDialog *,std::less<int>,std::allocator<std::pair<int const ,BaseDialog *> >,0> >::_Node *>::construct, COMDAT
; _this$ = ecx

; 146  : 		{	// construct object at _Ptr with value _Val

  00000	55		 push	 ebp
  00001	8b ec		 mov	 ebp, esp
  00003	51		 push	 ecx
  00004	c7 45 fc cc cc
	cc cc		 mov	 DWORD PTR [ebp-4], -858993460 ; ccccccccH
  0000b	89 4d fc	 mov	 DWORD PTR _this$[ebp], ecx

; 147  : 		_Construct(_Ptr, _Val);

  0000e	8b 45 0c	 mov	 eax, DWORD PTR __Val$[ebp]
  00011	50		 push	 eax
  00012	8b 4d 08	 mov	 ecx, DWORD PTR __Ptr$[ebp]
  00015	51		 push	 ecx
  00016	e8 00 00 00 00	 call	 ??$_Construct@PAU_Node@?$_Tree_nod@V?$_Tmap_traits@HPAVBaseDialog@@U?$less@H@std@@V?$allocator@U?$pair@$$CBHPAVBaseDialog@@@std@@@3@$0A@@std@@@std@@PAU123@@std@@YAXPAPAU_Node@?$_Tree_nod@V?$_Tmap_traits@HPAVBaseDialog@@U?$less@H@std@@V?$allocator@U?$pair@$$CBHPAVBaseDialog@@@std@@@3@$0A@@std@@@0@ABQAU120@@Z ; std::_Construct<std::_Tree_nod<std::_Tmap_traits<int,BaseDialog *,std::less<int>,std::allocator<std::pair<int const ,BaseDialog *> >,0> >::_Node *,std::_Tree_nod<std::_Tmap_traits<int,BaseDialog *,std::less<int>,std::allocator<std::pair<int const ,BaseDialog *> >,0> >::_Node *>
  0001b	83 c4 08	 add	 esp, 8

; 148  : 		}

  0001e	83 c4 04	 add	 esp, 4
  00021	3b ec		 cmp	 ebp, esp
  00023	e8 00 00 00 00	 call	 __RTC_CheckEsp
  00028	8b e5		 mov	 esp, ebp
  0002a	5d		 pop	 ebp
  0002b	c2 08 00	 ret	 8
?construct@?$allocator@PAU_Node@?$_Tree_nod@V?$_Tmap_traits@HPAVBaseDialog@@U?$less@H@std@@V?$allocator@U?$pair@$$CBHPAVBaseDialog@@@std@@@3@$0A@@std@@@std@@@std@@QAEXPAPAU_Node@?$_Tree_nod@V?$_Tmap_traits@HPAVBaseDialog@@U?$less@H@std@@V?$allocator@U?$pair@$$CBHPAVBaseDialog@@@std@@@3@$0A@@std@@@2@ABQAU342@@Z ENDP ; std::allocator<std::_Tree_nod<std::_Tmap_traits<int,BaseDialog *,std::less<int>,std::allocator<std::pair<int const ,BaseDialog *> >,0> >::_Node *>::construct
; Function compile flags: /Odt /RTCsu
; File d:\program files (x86)\microsoft visual studio .net 2003\vc7\include\xtree
_TEXT	ENDS
;	COMDAT ?_Dec@const_iterator@?$_Tree@V?$_Tmap_traits@HPAVBaseDialog@@U?$less@H@std@@V?$allocator@U?$pair@$$CBHPAVBaseDialog@@@std@@@3@$0A@@std@@@std@@QAEXXZ
_TEXT	SEGMENT
__Pnode$188861 = -8					; size = 4
_this$ = -4						; size = 4
?_Dec@const_iterator@?$_Tree@V?$_Tmap_traits@HPAVBaseDialog@@U?$less@H@std@@V?$allocator@U?$pair@$$CBHPAVBaseDialog@@@std@@@3@$0A@@std@@@std@@QAEXXZ PROC NEAR ; std::_Tree<std::_Tmap_traits<int,BaseDialog *,std::less<int>,std::allocator<std::pair<int const ,BaseDialog *> >,0> >::const_iterator::_Dec, COMDAT
; _this$ = ecx

; 250  : 			{	// move to node with next smaller value

  00000	55		 push	 ebp
  00001	8b ec		 mov	 ebp, esp
  00003	83 ec 08	 sub	 esp, 8
  00006	c7 45 f8 cc cc
	cc cc		 mov	 DWORD PTR [ebp-8], -858993460 ; ccccccccH
  0000d	c7 45 fc cc cc
	cc cc		 mov	 DWORD PTR [ebp-4], -858993460 ; ccccccccH
  00014	89 4d fc	 mov	 DWORD PTR _this$[ebp], ecx

; 251  : 			if (_Isnil(_Ptr))

  00017	8b 45 fc	 mov	 eax, DWORD PTR _this$[ebp]
  0001a	8b 08		 mov	 ecx, DWORD PTR [eax]
  0001c	51		 push	 ecx
  0001d	e8 00 00 00 00	 call	 ?_Isnil@?$_Tree@V?$_Tmap_traits@HPAVBaseDialog@@U?$less@H@std@@V?$allocator@U?$pair@$$CBHPAVBaseDialog@@@std@@@3@$0A@@std@@@std@@KAAADPAU_Node@?$_Tree_nod@V?$_Tmap_traits@HPAVBaseDialog@@U?$less@H@std@@V?$allocator@U?$pair@$$CBHPAVBaseDialog@@@std@@@3@$0A@@std@@@2@@Z ; std::_Tree<std::_Tmap_traits<int,BaseDialog *,std::less<int>,std::allocator<std::pair<int const ,BaseDialog *> >,0> >::_Isnil
  00022	83 c4 04	 add	 esp, 4
  00025	0f be 10	 movsx	 edx, BYTE PTR [eax]
  00028	85 d2		 test	 edx, edx
  0002a	74 1a		 je	 SHORT $L188857

; 252  : 				_Ptr = _Right(_Ptr);	// end() ==> rightmost

  0002c	8b 45 fc	 mov	 eax, DWORD PTR _this$[ebp]
  0002f	8b 08		 mov	 ecx, DWORD PTR [eax]
  00031	51		 push	 ecx
  00032	e8 00 00 00 00	 call	 ?_Right@?$_Tree@V?$_Tmap_traits@HPAVBaseDialog@@U?$less@H@std@@V?$allocator@U?$pair@$$CBHPAVBaseDialog@@@std@@@3@$0A@@std@@@std@@KAAAPAU_Node@?$_Tree_nod@V?$_Tmap_traits@HPAVBaseDialog@@U?$less@H@std@@V?$allocator@U?$pair@$$CBHPAVBaseDialog@@@std@@@3@$0A@@std@@@2@PAU342@@Z ; std::_Tree<std::_Tmap_traits<int,BaseDialog *,std::less<int>,std::allocator<std::pair<int const ,BaseDialog *> >,0> >::_Right
  00037	83 c4 04	 add	 esp, 4
  0003a	8b 55 fc	 mov	 edx, DWORD PTR _this$[ebp]
  0003d	8b 00		 mov	 eax, DWORD PTR [eax]
  0003f	89 02		 mov	 DWORD PTR [edx], eax

; 253  : 			else if (!_Isnil(_Left(_Ptr)))

  00041	e9 a0 00 00 00	 jmp	 $L188856
$L188857:
  00046	8b 4d fc	 mov	 ecx, DWORD PTR _this$[ebp]
  00049	8b 11		 mov	 edx, DWORD PTR [ecx]
  0004b	52		 push	 edx
  0004c	e8 00 00 00 00	 call	 ?_Left@?$_Tree@V?$_Tmap_traits@HPAVBaseDialog@@U?$less@H@std@@V?$allocator@U?$pair@$$CBHPAVBaseDialog@@@std@@@3@$0A@@std@@@std@@KAAAPAU_Node@?$_Tree_nod@V?$_Tmap_traits@HPAVBaseDialog@@U?$less@H@std@@V?$allocator@U?$pair@$$CBHPAVBaseDialog@@@std@@@3@$0A@@std@@@2@PAU342@@Z ; std::_Tree<std::_Tmap_traits<int,BaseDialog *,std::less<int>,std::allocator<std::pair<int const ,BaseDialog *> >,0> >::_Left
  00051	83 c4 04	 add	 esp, 4
  00054	8b 00		 mov	 eax, DWORD PTR [eax]
  00056	50		 push	 eax
  00057	e8 00 00 00 00	 call	 ?_Isnil@?$_Tree@V?$_Tmap_traits@HPAVBaseDialog@@U?$less@H@std@@V?$allocator@U?$pair@$$CBHPAVBaseDialog@@@std@@@3@$0A@@std@@@std@@KAAADPAU_Node@?$_Tree_nod@V?$_Tmap_traits@HPAVBaseDialog@@U?$less@H@std@@V?$allocator@U?$pair@$$CBHPAVBaseDialog@@@std@@@3@$0A@@std@@@2@@Z ; std::_Tree<std::_Tmap_traits<int,BaseDialog *,std::less<int>,std::allocator<std::pair<int const ,BaseDialog *> >,0> >::_Isnil
  0005c	83 c4 04	 add	 esp, 4
  0005f	0f be 08	 movsx	 ecx, BYTE PTR [eax]
  00062	85 c9		 test	 ecx, ecx
  00064	75 20		 jne	 SHORT $L188863

; 254  : 				_Ptr = _Max(_Left(_Ptr));	// ==> largest of left subtree

  00066	8b 55 fc	 mov	 edx, DWORD PTR _this$[ebp]
  00069	8b 02		 mov	 eax, DWORD PTR [edx]
  0006b	50		 push	 eax
  0006c	e8 00 00 00 00	 call	 ?_Left@?$_Tree@V?$_Tmap_traits@HPAVBaseDialog@@U?$less@H@std@@V?$allocator@U?$pair@$$CBHPAVBaseDialog@@@std@@@3@$0A@@std@@@std@@KAAAPAU_Node@?$_Tree_nod@V?$_Tmap_traits@HPAVBaseDialog@@U?$less@H@std@@V?$allocator@U?$pair@$$CBHPAVBaseDialog@@@std@@@3@$0A@@std@@@2@PAU342@@Z ; std::_Tree<std::_Tmap_traits<int,BaseDialog *,std::less<int>,std::allocator<std::pair<int const ,BaseDialog *> >,0> >::_Left
  00071	83 c4 04	 add	 esp, 4
  00074	8b 08		 mov	 ecx, DWORD PTR [eax]
  00076	51		 push	 ecx
  00077	e8 00 00 00 00	 call	 ?_Max@?$_Tree@V?$_Tmap_traits@HPAVBaseDialog@@U?$less@H@std@@V?$allocator@U?$pair@$$CBHPAVBaseDialog@@@std@@@3@$0A@@std@@@std@@KAPAU_Node@?$_Tree_nod@V?$_Tmap_traits@HPAVBaseDialog@@U?$less@H@std@@V?$allocator@U?$pair@$$CBHPAVBaseDialog@@@std@@@3@$0A@@std@@@2@PAU342@@Z ; std::_Tree<std::_Tmap_traits<int,BaseDialog *,std::less<int>,std::allocator<std::pair<int const ,BaseDialog *> >,0> >::_Max
  0007c	83 c4 04	 add	 esp, 4
  0007f	8b 55 fc	 mov	 edx, DWORD PTR _this$[ebp]
  00082	89 02		 mov	 DWORD PTR [edx], eax

; 255  : 			else

  00084	eb 60		 jmp	 SHORT $L188856
$L188863:

; 256  : 				{	// climb looking for left subtree
; 257  : 				_Nodeptr _Pnode;
; 258  : 				while (!_Isnil(_Pnode = _Parent(_Ptr))
; 259  : 					&& _Ptr == _Left(_Pnode))

  00086	8b 45 fc	 mov	 eax, DWORD PTR _this$[ebp]
  00089	8b 08		 mov	 ecx, DWORD PTR [eax]
  0008b	51		 push	 ecx
  0008c	e8 00 00 00 00	 call	 ?_Parent@?$_Tree@V?$_Tmap_traits@HPAVBaseDialog@@U?$less@H@std@@V?$allocator@U?$pair@$$CBHPAVBaseDialog@@@std@@@3@$0A@@std@@@std@@KAAAPAU_Node@?$_Tree_nod@V?$_Tmap_traits@HPAVBaseDialog@@U?$less@H@std@@V?$allocator@U?$pair@$$CBHPAVBaseDialog@@@std@@@3@$0A@@std@@@2@PAU342@@Z ; std::_Tree<std::_Tmap_traits<int,BaseDialog *,std::less<int>,std::allocator<std::pair<int const ,BaseDialog *> >,0> >::_Parent
  00091	83 c4 04	 add	 esp, 4
  00094	8b 10		 mov	 edx, DWORD PTR [eax]
  00096	89 55 f8	 mov	 DWORD PTR __Pnode$188861[ebp], edx
  00099	8b 45 f8	 mov	 eax, DWORD PTR __Pnode$188861[ebp]
  0009c	50		 push	 eax
  0009d	e8 00 00 00 00	 call	 ?_Isnil@?$_Tree@V?$_Tmap_traits@HPAVBaseDialog@@U?$less@H@std@@V?$allocator@U?$pair@$$CBHPAVBaseDialog@@@std@@@3@$0A@@std@@@std@@KAAADPAU_Node@?$_Tree_nod@V?$_Tmap_traits@HPAVBaseDialog@@U?$less@H@std@@V?$allocator@U?$pair@$$CBHPAVBaseDialog@@@std@@@3@$0A@@std@@@2@@Z ; std::_Tree<std::_Tmap_traits<int,BaseDialog *,std::less<int>,std::allocator<std::pair<int const ,BaseDialog *> >,0> >::_Isnil
  000a2	83 c4 04	 add	 esp, 4
  000a5	0f be 08	 movsx	 ecx, BYTE PTR [eax]
  000a8	85 c9		 test	 ecx, ecx
  000aa	75 1f		 jne	 SHORT $L188864
  000ac	8b 55 f8	 mov	 edx, DWORD PTR __Pnode$188861[ebp]
  000af	52		 push	 edx
  000b0	e8 00 00 00 00	 call	 ?_Left@?$_Tree@V?$_Tmap_traits@HPAVBaseDialog@@U?$less@H@std@@V?$allocator@U?$pair@$$CBHPAVBaseDialog@@@std@@@3@$0A@@std@@@std@@KAAAPAU_Node@?$_Tree_nod@V?$_Tmap_traits@HPAVBaseDialog@@U?$less@H@std@@V?$allocator@U?$pair@$$CBHPAVBaseDialog@@@std@@@3@$0A@@std@@@2@PAU342@@Z ; std::_Tree<std::_Tmap_traits<int,BaseDialog *,std::less<int>,std::allocator<std::pair<int const ,BaseDialog *> >,0> >::_Left
  000b5	83 c4 04	 add	 esp, 4
  000b8	8b 4d fc	 mov	 ecx, DWORD PTR _this$[ebp]
  000bb	8b 11		 mov	 edx, DWORD PTR [ecx]
  000bd	3b 10		 cmp	 edx, DWORD PTR [eax]
  000bf	75 0a		 jne	 SHORT $L188864

; 260  : 					_Ptr = _Pnode;	// ==> parent while left subtree

  000c1	8b 45 fc	 mov	 eax, DWORD PTR _this$[ebp]
  000c4	8b 4d f8	 mov	 ecx, DWORD PTR __Pnode$188861[ebp]
  000c7	89 08		 mov	 DWORD PTR [eax], ecx
  000c9	eb bb		 jmp	 SHORT $L188863
$L188864:

; 261  : 				if (!_Isnil(_Pnode))

  000cb	8b 55 f8	 mov	 edx, DWORD PTR __Pnode$188861[ebp]
  000ce	52		 push	 edx
  000cf	e8 00 00 00 00	 call	 ?_Isnil@?$_Tree@V?$_Tmap_traits@HPAVBaseDialog@@U?$less@H@std@@V?$allocator@U?$pair@$$CBHPAVBaseDialog@@@std@@@3@$0A@@std@@@std@@KAAADPAU_Node@?$_Tree_nod@V?$_Tmap_traits@HPAVBaseDialog@@U?$less@H@std@@V?$allocator@U?$pair@$$CBHPAVBaseDialog@@@std@@@3@$0A@@std@@@2@@Z ; std::_Tree<std::_Tmap_traits<int,BaseDialog *,std::less<int>,std::allocator<std::pair<int const ,BaseDialog *> >,0> >::_Isnil
  000d4	83 c4 04	 add	 esp, 4
  000d7	0f be 00	 movsx	 eax, BYTE PTR [eax]
  000da	85 c0		 test	 eax, eax
  000dc	75 08		 jne	 SHORT $L188856

; 262  : 					_Ptr = _Pnode;	// ==> parent if not head

  000de	8b 4d fc	 mov	 ecx, DWORD PTR _this$[ebp]
  000e1	8b 55 f8	 mov	 edx, DWORD PTR __Pnode$188861[ebp]
  000e4	89 11		 mov	 DWORD PTR [ecx], edx
$L188856:

; 263  : 				}
; 264  : 			}

  000e6	83 c4 08	 add	 esp, 8
  000e9	3b ec		 cmp	 ebp, esp
  000eb	e8 00 00 00 00	 call	 __RTC_CheckEsp
  000f0	8b e5		 mov	 esp, ebp
  000f2	5d		 pop	 ebp
  000f3	c3		 ret	 0
?_Dec@const_iterator@?$_Tree@V?$_Tmap_traits@HPAVBaseDialog@@U?$less@H@std@@V?$allocator@U?$pair@$$CBHPAVBaseDialog@@@std@@@3@$0A@@std@@@std@@QAEXXZ ENDP ; std::_Tree<std::_Tmap_traits<int,BaseDialog *,std::less<int>,std::allocator<std::pair<int const ,BaseDialog *> >,0> >::const_iterator::_Dec
; Function compile flags: /Odt /RTCsu
_TEXT	ENDS
;	COMDAT ?_Inc@const_iterator@?$_Tree@V?$_Tmap_traits@HPAVBaseDialog@@U?$less@H@std@@V?$allocator@U?$pair@$$CBHPAVBaseDialog@@@std@@@3@$0A@@std@@@std@@QAEXXZ
_TEXT	SEGMENT
__Pnode$188872 = -8					; size = 4
_this$ = -4						; size = 4
?_Inc@const_iterator@?$_Tree@V?$_Tmap_traits@HPAVBaseDialog@@U?$less@H@std@@V?$allocator@U?$pair@$$CBHPAVBaseDialog@@@std@@@3@$0A@@std@@@std@@QAEXXZ PROC NEAR ; std::_Tree<std::_Tmap_traits<int,BaseDialog *,std::less<int>,std::allocator<std::pair<int const ,BaseDialog *> >,0> >::const_iterator::_Inc, COMDAT
; _this$ = ecx

; 267  : 			{	// move to node with next larger value

  00000	55		 push	 ebp
  00001	8b ec		 mov	 ebp, esp
  00003	83 ec 08	 sub	 esp, 8
  00006	c7 45 f8 cc cc
	cc cc		 mov	 DWORD PTR [ebp-8], -858993460 ; ccccccccH
  0000d	c7 45 fc cc cc
	cc cc		 mov	 DWORD PTR [ebp-4], -858993460 ; ccccccccH
  00014	89 4d fc	 mov	 DWORD PTR _this$[ebp], ecx

; 268  : 			if (_Isnil(_Ptr))

  00017	8b 45 fc	 mov	 eax, DWORD PTR _this$[ebp]
  0001a	8b 08		 mov	 ecx, DWORD PTR [eax]
  0001c	51		 push	 ecx
  0001d	e8 00 00 00 00	 call	 ?_Isnil@?$_Tree@V?$_Tmap_traits@HPAVBaseDialog@@U?$less@H@std@@V?$allocator@U?$pair@$$CBHPAVBaseDialog@@@std@@@3@$0A@@std@@@std@@KAAADPAU_Node@?$_Tree_nod@V?$_Tmap_traits@HPAVBaseDialog@@U?$less@H@std@@V?$allocator@U?$pair@$$CBHPAVBaseDialog@@@std@@@3@$0A@@std@@@2@@Z ; std::_Tree<std::_Tmap_traits<int,BaseDialog *,std::less<int>,std::allocator<std::pair<int const ,BaseDialog *> >,0> >::_Isnil
  00022	83 c4 04	 add	 esp, 4
  00025	0f be 10	 movsx	 edx, BYTE PTR [eax]
  00028	85 d2		 test	 edx, edx
  0002a	74 05		 je	 SHORT $L188868

; 269  : 				;	// end() shouldn't be incremented, don't move
; 270  : 			else if (!_Isnil(_Right(_Ptr)))

  0002c	e9 8d 00 00 00	 jmp	 $L188867
$L188868:
  00031	8b 45 fc	 mov	 eax, DWORD PTR _this$[ebp]
  00034	8b 08		 mov	 ecx, DWORD PTR [eax]
  00036	51		 push	 ecx
  00037	e8 00 00 00 00	 call	 ?_Right@?$_Tree@V?$_Tmap_traits@HPAVBaseDialog@@U?$less@H@std@@V?$allocator@U?$pair@$$CBHPAVBaseDialog@@@std@@@3@$0A@@std@@@std@@KAAAPAU_Node@?$_Tree_nod@V?$_Tmap_traits@HPAVBaseDialog@@U?$less@H@std@@V?$allocator@U?$pair@$$CBHPAVBaseDialog@@@std@@@3@$0A@@std@@@2@PAU342@@Z ; std::_Tree<std::_Tmap_traits<int,BaseDialog *,std::less<int>,std::allocator<std::pair<int const ,BaseDialog *> >,0> >::_Right
  0003c	83 c4 04	 add	 esp, 4
  0003f	8b 10		 mov	 edx, DWORD PTR [eax]
  00041	52		 push	 edx
  00042	e8 00 00 00 00	 call	 ?_Isnil@?$_Tree@V?$_Tmap_traits@HPAVBaseDialog@@U?$less@H@std@@V?$allocator@U?$pair@$$CBHPAVBaseDialog@@@std@@@3@$0A@@std@@@std@@KAAADPAU_Node@?$_Tree_nod@V?$_Tmap_traits@HPAVBaseDialog@@U?$less@H@std@@V?$allocator@U?$pair@$$CBHPAVBaseDialog@@@std@@@3@$0A@@std@@@2@@Z ; std::_Tree<std::_Tmap_traits<int,BaseDialog *,std::less<int>,std::allocator<std::pair<int const ,BaseDialog *> >,0> >::_Isnil
  00047	83 c4 04	 add	 esp, 4
  0004a	0f be 00	 movsx	 eax, BYTE PTR [eax]
  0004d	85 c0		 test	 eax, eax
  0004f	75 20		 jne	 SHORT $L188874

; 271  : 				_Ptr = _Min(_Right(_Ptr));	// ==> smallest of right subtree

  00051	8b 4d fc	 mov	 ecx, DWORD PTR _this$[ebp]
  00054	8b 11		 mov	 edx, DWORD PTR [ecx]
  00056	52		 push	 edx
  00057	e8 00 00 00 00	 call	 ?_Right@?$_Tree@V?$_Tmap_traits@HPAVBaseDialog@@U?$less@H@std@@V?$allocator@U?$pair@$$CBHPAVBaseDialog@@@std@@@3@$0A@@std@@@std@@KAAAPAU_Node@?$_Tree_nod@V?$_Tmap_traits@HPAVBaseDialog@@U?$less@H@std@@V?$allocator@U?$pair@$$CBHPAVBaseDialog@@@std@@@3@$0A@@std@@@2@PAU342@@Z ; std::_Tree<std::_Tmap_traits<int,BaseDialog *,std::less<int>,std::allocator<std::pair<int const ,BaseDialog *> >,0> >::_Right
  0005c	83 c4 04	 add	 esp, 4
  0005f	8b 00		 mov	 eax, DWORD PTR [eax]
  00061	50		 push	 eax
  00062	e8 00 00 00 00	 call	 ?_Min@?$_Tree@V?$_Tmap_traits@HPAVBaseDialog@@U?$less@H@std@@V?$allocator@U?$pair@$$CBHPAVBaseDialog@@@std@@@3@$0A@@std@@@std@@KAPAU_Node@?$_Tree_nod@V?$_Tmap_traits@HPAVBaseDialog@@U?$less@H@std@@V?$allocator@U?$pair@$$CBHPAVBaseDialog@@@std@@@3@$0A@@std@@@2@PAU342@@Z ; std::_Tree<std::_Tmap_traits<int,BaseDialog *,std::less<int>,std::allocator<std::pair<int const ,BaseDialog *> >,0> >::_Min
  00067	83 c4 04	 add	 esp, 4
  0006a	8b 4d fc	 mov	 ecx, DWORD PTR _this$[ebp]
  0006d	89 01		 mov	 DWORD PTR [ecx], eax

; 272  : 			else

  0006f	eb 4d		 jmp	 SHORT $L188867
$L188874:

; 273  : 				{	// climb looking for right subtree
; 274  : 				_Nodeptr _Pnode;
; 275  : 				while (!_Isnil(_Pnode = _Parent(_Ptr))
; 276  : 					&& _Ptr == _Right(_Pnode))

  00071	8b 55 fc	 mov	 edx, DWORD PTR _this$[ebp]
  00074	8b 02		 mov	 eax, DWORD PTR [edx]
  00076	50		 push	 eax
  00077	e8 00 00 00 00	 call	 ?_Parent@?$_Tree@V?$_Tmap_traits@HPAVBaseDialog@@U?$less@H@std@@V?$allocator@U?$pair@$$CBHPAVBaseDialog@@@std@@@3@$0A@@std@@@std@@KAAAPAU_Node@?$_Tree_nod@V?$_Tmap_traits@HPAVBaseDialog@@U?$less@H@std@@V?$allocator@U?$pair@$$CBHPAVBaseDialog@@@std@@@3@$0A@@std@@@2@PAU342@@Z ; std::_Tree<std::_Tmap_traits<int,BaseDialog *,std::less<int>,std::allocator<std::pair<int const ,BaseDialog *> >,0> >::_Parent
  0007c	83 c4 04	 add	 esp, 4
  0007f	8b 08		 mov	 ecx, DWORD PTR [eax]
  00081	89 4d f8	 mov	 DWORD PTR __Pnode$188872[ebp], ecx
  00084	8b 55 f8	 mov	 edx, DWORD PTR __Pnode$188872[ebp]
  00087	52		 push	 edx
  00088	e8 00 00 00 00	 call	 ?_Isnil@?$_Tree@V?$_Tmap_traits@HPAVBaseDialog@@U?$less@H@std@@V?$allocator@U?$pair@$$CBHPAVBaseDialog@@@std@@@3@$0A@@std@@@std@@KAAADPAU_Node@?$_Tree_nod@V?$_Tmap_traits@HPAVBaseDialog@@U?$less@H@std@@V?$allocator@U?$pair@$$CBHPAVBaseDialog@@@std@@@3@$0A@@std@@@2@@Z ; std::_Tree<std::_Tmap_traits<int,BaseDialog *,std::less<int>,std::allocator<std::pair<int const ,BaseDialog *> >,0> >::_Isnil
  0008d	83 c4 04	 add	 esp, 4
  00090	0f be 00	 movsx	 eax, BYTE PTR [eax]
  00093	85 c0		 test	 eax, eax
  00095	75 1f		 jne	 SHORT $L188875
  00097	8b 4d f8	 mov	 ecx, DWORD PTR __Pnode$188872[ebp]
  0009a	51		 push	 ecx
  0009b	e8 00 00 00 00	 call	 ?_Right@?$_Tree@V?$_Tmap_traits@HPAVBaseDialog@@U?$less@H@std@@V?$allocator@U?$pair@$$CBHPAVBaseDialog@@@std@@@3@$0A@@std@@@std@@KAAAPAU_Node@?$_Tree_nod@V?$_Tmap_traits@HPAVBaseDialog@@U?$less@H@std@@V?$allocator@U?$pair@$$CBHPAVBaseDialog@@@std@@@3@$0A@@std@@@2@PAU342@@Z ; std::_Tree<std::_Tmap_traits<int,BaseDialog *,std::less<int>,std::allocator<std::pair<int const ,BaseDialog *> >,0> >::_Right
  000a0	83 c4 04	 add	 esp, 4
  000a3	8b 55 fc	 mov	 edx, DWORD PTR _this$[ebp]
  000a6	8b 0a		 mov	 ecx, DWORD PTR [edx]
  000a8	3b 08		 cmp	 ecx, DWORD PTR [eax]
  000aa	75 0a		 jne	 SHORT $L188875

; 277  : 					_Ptr = _Pnode;	// ==> parent while right subtree

  000ac	8b 55 fc	 mov	 edx, DWORD PTR _this$[ebp]
  000af	8b 45 f8	 mov	 eax, DWORD PTR __Pnode$188872[ebp]
  000b2	89 02		 mov	 DWORD PTR [edx], eax
  000b4	eb bb		 jmp	 SHORT $L188874
$L188875:

; 278  : 				_Ptr = _Pnode;	// ==> parent (head if end())

  000b6	8b 4d fc	 mov	 ecx, DWORD PTR _this$[ebp]
  000b9	8b 55 f8	 mov	 edx, DWORD PTR __Pnode$188872[ebp]
  000bc	89 11		 mov	 DWORD PTR [ecx], edx
$L188867:

; 279  : 				}
; 280  : 			}

  000be	83 c4 08	 add	 esp, 8
  000c1	3b ec		 cmp	 ebp, esp
  000c3	e8 00 00 00 00	 call	 __RTC_CheckEsp
  000c8	8b e5		 mov	 esp, ebp
  000ca	5d		 pop	 ebp
  000cb	c3		 ret	 0
?_Inc@const_iterator@?$_Tree@V?$_Tmap_traits@HPAVBaseDialog@@U?$less@H@std@@V?$allocator@U?$pair@$$CBHPAVBaseDialog@@@std@@@3@$0A@@std@@@std@@QAEXXZ ENDP ; std::_Tree<std::_Tmap_traits<int,BaseDialog *,std::less<int>,std::allocator<std::pair<int const ,BaseDialog *> >,0> >::const_iterator::_Inc
; Function compile flags: /Odt /RTCsu
_TEXT	ENDS
;	COMDAT ??0_Node@?$_Tree_nod@V?$_Tmap_traits@HPAVBaseDialog@@U?$less@H@std@@V?$allocator@U?$pair@$$CBHPAVBaseDialog@@@std@@@3@$0A@@std@@@std@@QAE@PAU012@00ABU?$pair@$$CBHPAVBaseDialog@@@2@D@Z
_TEXT	SEGMENT
_this$ = -4						; size = 4
__Larg$ = 8						; size = 4
__Parg$ = 12						; size = 4
__Rarg$ = 16						; size = 4
__Val$ = 20						; size = 4
__Carg$ = 24						; size = 1
??0_Node@?$_Tree_nod@V?$_Tmap_traits@HPAVBaseDialog@@U?$less@H@std@@V?$allocator@U?$pair@$$CBHPAVBaseDialog@@@std@@@3@$0A@@std@@@std@@QAE@PAU012@00ABU?$pair@$$CBHPAVBaseDialog@@@2@D@Z PROC NEAR ; std::_Tree_nod<std::_Tmap_traits<int,BaseDialog *,std::less<int>,std::allocator<std::pair<int const ,BaseDialog *> >,0> >::_Node::_Node, COMDAT
; _this$ = ecx

; 40   : 			{	// construct a node with value

  00000	55		 push	 ebp
  00001	8b ec		 mov	 ebp, esp
  00003	51		 push	 ecx
  00004	c7 45 fc cc cc
	cc cc		 mov	 DWORD PTR [ebp-4], -858993460 ; ccccccccH
  0000b	89 4d fc	 mov	 DWORD PTR _this$[ebp], ecx
  0000e	8b 45 fc	 mov	 eax, DWORD PTR _this$[ebp]
  00011	8b 4d 08	 mov	 ecx, DWORD PTR __Larg$[ebp]
  00014	89 08		 mov	 DWORD PTR [eax], ecx
  00016	8b 55 fc	 mov	 edx, DWORD PTR _this$[ebp]
  00019	8b 45 0c	 mov	 eax, DWORD PTR __Parg$[ebp]
  0001c	89 42 04	 mov	 DWORD PTR [edx+4], eax
  0001f	8b 4d fc	 mov	 ecx, DWORD PTR _this$[ebp]
  00022	8b 55 10	 mov	 edx, DWORD PTR __Rarg$[ebp]
  00025	89 51 08	 mov	 DWORD PTR [ecx+8], edx
  00028	8b 45 14	 mov	 eax, DWORD PTR __Val$[ebp]
  0002b	8b 08		 mov	 ecx, DWORD PTR [eax]
  0002d	8b 50 04	 mov	 edx, DWORD PTR [eax+4]
  00030	8b 45 fc	 mov	 eax, DWORD PTR _this$[ebp]
  00033	89 48 0c	 mov	 DWORD PTR [eax+12], ecx
  00036	89 50 10	 mov	 DWORD PTR [eax+16], edx
  00039	8b 4d fc	 mov	 ecx, DWORD PTR _this$[ebp]
  0003c	8a 55 18	 mov	 dl, BYTE PTR __Carg$[ebp]
  0003f	88 51 14	 mov	 BYTE PTR [ecx+20], dl
  00042	8b 45 fc	 mov	 eax, DWORD PTR _this$[ebp]
  00045	c6 40 15 00	 mov	 BYTE PTR [eax+21], 0

; 41   : 			}

  00049	8b 45 fc	 mov	 eax, DWORD PTR _this$[ebp]
  0004c	8b e5		 mov	 esp, ebp
  0004e	5d		 pop	 ebp
  0004f	c2 14 00	 ret	 20			; 00000014H
??0_Node@?$_Tree_nod@V?$_Tmap_traits@HPAVBaseDialog@@U?$less@H@std@@V?$allocator@U?$pair@$$CBHPAVBaseDialog@@@std@@@3@$0A@@std@@@std@@QAE@PAU012@00ABU?$pair@$$CBHPAVBaseDialog@@@2@D@Z ENDP ; std::_Tree_nod<std::_Tmap_traits<int,BaseDialog *,std::less<int>,std::allocator<std::pair<int const ,BaseDialog *> >,0> >::_Node::_Node
; Function compile flags: /Odt /RTCsu
; File d:\program files (x86)\microsoft visual studio .net 2003\vc7\include\map
_TEXT	ENDS
;	COMDAT ??0?$_Tmap_traits@HPAVBaseDialog@@U?$less@H@std@@V?$allocator@U?$pair@$$CBHPAVBaseDialog@@@std@@@3@$0A@@std@@QAE@U?$less@H@1@@Z
_TEXT	SEGMENT
_this$ = -4						; size = 4
__Parg$ = 8						; size = 1
??0?$_Tmap_traits@HPAVBaseDialog@@U?$less@H@std@@V?$allocator@U?$pair@$$CBHPAVBaseDialog@@@std@@@3@$0A@@std@@QAE@U?$less@H@1@@Z PROC NEAR ; std::_Tmap_traits<int,BaseDialog *,std::less<int>,std::allocator<std::pair<int const ,BaseDialog *> >,0>::_Tmap_traits<int,BaseDialog *,std::less<int>,std::allocator<std::pair<int const ,BaseDialog *> >,0>, COMDAT
; _this$ = ecx

; 38   : 		{	// construct with specified comparator

  00000	55		 push	 ebp
  00001	8b ec		 mov	 ebp, esp
  00003	51		 push	 ecx
  00004	c7 45 fc cc cc
	cc cc		 mov	 DWORD PTR [ebp-4], -858993460 ; ccccccccH
  0000b	89 4d fc	 mov	 DWORD PTR _this$[ebp], ecx

; 39   : 		}

  0000e	8b 45 fc	 mov	 eax, DWORD PTR _this$[ebp]
  00011	8b e5		 mov	 esp, ebp
  00013	5d		 pop	 ebp
  00014	c2 04 00	 ret	 4
??0?$_Tmap_traits@HPAVBaseDialog@@U?$less@H@std@@V?$allocator@U?$pair@$$CBHPAVBaseDialog@@@std@@@3@$0A@@std@@QAE@U?$less@H@1@@Z ENDP ; std::_Tmap_traits<int,BaseDialog *,std::less<int>,std::allocator<std::pair<int const ,BaseDialog *> >,0>::_Tmap_traits<int,BaseDialog *,std::less<int>,std::allocator<std::pair<int const ,BaseDialog *> >,0>
; Function compile flags: /Odt /RTCsu
; File d:\program files (x86)\microsoft visual studio .net 2003\vc7\include\xmemory
_TEXT	ENDS
;	COMDAT ??$_Destroy@PAU_Node@?$_Tree_nod@V?$_Tmap_traits@HPAVBaseDialog@@U?$less@H@std@@V?$allocator@U?$pair@$$CBHPAVBaseDialog@@@std@@@3@$0A@@std@@@std@@@std@@YAXPAPAU_Node@?$_Tree_nod@V?$_Tmap_traits@HPAVBaseDialog@@U?$less@H@std@@V?$allocator@U?$pair@$$CBHPAVBaseDialog@@@std@@@3@$0A@@std@@@0@@Z
_TEXT	SEGMENT
__Ptr$ = 8						; size = 4
??$_Destroy@PAU_Node@?$_Tree_nod@V?$_Tmap_traits@HPAVBaseDialog@@U?$less@H@std@@V?$allocator@U?$pair@$$CBHPAVBaseDialog@@@std@@@3@$0A@@std@@@std@@@std@@YAXPAPAU_Node@?$_Tree_nod@V?$_Tmap_traits@HPAVBaseDialog@@U?$less@H@std@@V?$allocator@U?$pair@$$CBHPAVBaseDialog@@@std@@@3@$0A@@std@@@0@@Z PROC NEAR ; std::_Destroy<std::_Tree_nod<std::_Tmap_traits<int,BaseDialog *,std::less<int>,std::allocator<std::pair<int const ,BaseDialog *> >,0> >::_Node *>, COMDAT

; 48   : 	{	// destroy object at _Ptr

  00000	55		 push	 ebp
  00001	8b ec		 mov	 ebp, esp

; 49   : 	_DESTRUCTOR(_Ty, _Ptr);
; 50   : 	}

  00003	5d		 pop	 ebp
  00004	c3		 ret	 0
??$_Destroy@PAU_Node@?$_Tree_nod@V?$_Tmap_traits@HPAVBaseDialog@@U?$less@H@std@@V?$allocator@U?$pair@$$CBHPAVBaseDialog@@@std@@@3@$0A@@std@@@std@@@std@@YAXPAPAU_Node@?$_Tree_nod@V?$_Tmap_traits@HPAVBaseDialog@@U?$less@H@std@@V?$allocator@U?$pair@$$CBHPAVBaseDialog@@@std@@@3@$0A@@std@@@0@@Z ENDP ; std::_Destroy<std::_Tree_nod<std::_Tmap_traits<int,BaseDialog *,std::less<int>,std::allocator<std::pair<int const ,BaseDialog *> >,0> >::_Node *>
; Function compile flags: /Odt /RTCsu
_TEXT	ENDS
;	COMDAT ??$?0U?$pair@$$CBHPAVBaseDialog@@@std@@@?$allocator@PAU_Node@?$_Tree_nod@V?$_Tmap_traits@HPAVBaseDialog@@U?$less@H@std@@V?$allocator@U?$pair@$$CBHPAVBaseDialog@@@std@@@3@$0A@@std@@@std@@@std@@QAE@ABV?$allocator@U?$pair@$$CBHPAVBaseDialog@@@std@@@1@@Z
_TEXT	SEGMENT
_this$ = -4						; size = 4
___formal$ = 8						; size = 4
??$?0U?$pair@$$CBHPAVBaseDialog@@@std@@@?$allocator@PAU_Node@?$_Tree_nod@V?$_Tmap_traits@HPAVBaseDialog@@U?$less@H@std@@V?$allocator@U?$pair@$$CBHPAVBaseDialog@@@std@@@3@$0A@@std@@@std@@@std@@QAE@ABV?$allocator@U?$pair@$$CBHPAVBaseDialog@@@std@@@1@@Z PROC NEAR ; std::allocator<std::_Tree_nod<std::_Tmap_traits<int,BaseDialog *,std::less<int>,std::allocator<std::pair<int const ,BaseDialog *> >,0> >::_Node *>::allocator<std::_Tree_nod<std::_Tmap_traits<int,BaseDialog *,std::less<int>,std::allocator<std::pair<int const ,BaseDialog *> >,0> >::_Node *><std::pair<int const ,BaseDialog *> >, COMDAT
; _this$ = ecx

; 120  : 		allocator(const allocator<_Other>&)

  00000	55		 push	 ebp
  00001	8b ec		 mov	 ebp, esp
  00003	51		 push	 ecx
  00004	c7 45 fc cc cc
	cc cc		 mov	 DWORD PTR [ebp-4], -858993460 ; ccccccccH
  0000b	89 4d fc	 mov	 DWORD PTR _this$[ebp], ecx

; 121  : 		{	// construct from a related allocator (do nothing)
; 122  : 		}

  0000e	8b 45 fc	 mov	 eax, DWORD PTR _this$[ebp]
  00011	8b e5		 mov	 esp, ebp
  00013	5d		 pop	 ebp
  00014	c2 04 00	 ret	 4
??$?0U?$pair@$$CBHPAVBaseDialog@@@std@@@?$allocator@PAU_Node@?$_Tree_nod@V?$_Tmap_traits@HPAVBaseDialog@@U?$less@H@std@@V?$allocator@U?$pair@$$CBHPAVBaseDialog@@@std@@@3@$0A@@std@@@std@@@std@@QAE@ABV?$allocator@U?$pair@$$CBHPAVBaseDialog@@@std@@@1@@Z ENDP ; std::allocator<std::_Tree_nod<std::_Tmap_traits<int,BaseDialog *,std::less<int>,std::allocator<std::pair<int const ,BaseDialog *> >,0> >::_Node *>::allocator<std::_Tree_nod<std::_Tmap_traits<int,BaseDialog *,std::less<int>,std::allocator<std::pair<int const ,BaseDialog *> >,0> >::_Node *><std::pair<int const ,BaseDialog *> >
; Function compile flags: /Odt /RTCsu
_TEXT	ENDS
;	COMDAT ??$?0U?$pair@$$CBHPAVBaseDialog@@@std@@@?$allocator@U_Node@?$_Tree_nod@V?$_Tmap_traits@HPAVBaseDialog@@U?$less@H@std@@V?$allocator@U?$pair@$$CBHPAVBaseDialog@@@std@@@3@$0A@@std@@@std@@@std@@QAE@ABV?$allocator@U?$pair@$$CBHPAVBaseDialog@@@std@@@1@@Z
_TEXT	SEGMENT
_this$ = -4						; size = 4
___formal$ = 8						; size = 4
??$?0U?$pair@$$CBHPAVBaseDialog@@@std@@@?$allocator@U_Node@?$_Tree_nod@V?$_Tmap_traits@HPAVBaseDialog@@U?$less@H@std@@V?$allocator@U?$pair@$$CBHPAVBaseDialog@@@std@@@3@$0A@@std@@@std@@@std@@QAE@ABV?$allocator@U?$pair@$$CBHPAVBaseDialog@@@std@@@1@@Z PROC NEAR ; std::allocator<std::_Tree_nod<std::_Tmap_traits<int,BaseDialog *,std::less<int>,std::allocator<std::pair<int const ,BaseDialog *> >,0> >::_Node>::allocator<std::_Tree_nod<std::_Tmap_traits<int,BaseDialog *,std::less<int>,std::allocator<std::pair<int const ,BaseDialog *> >,0> >::_Node><std::pair<int const ,BaseDialog *> >, COMDAT
; _this$ = ecx

; 120  : 		allocator(const allocator<_Other>&)

  00000	55		 push	 ebp
  00001	8b ec		 mov	 ebp, esp
  00003	51		 push	 ecx
  00004	c7 45 fc cc cc
	cc cc		 mov	 DWORD PTR [ebp-4], -858993460 ; ccccccccH
  0000b	89 4d fc	 mov	 DWORD PTR _this$[ebp], ecx

; 121  : 		{	// construct from a related allocator (do nothing)
; 122  : 		}

  0000e	8b 45 fc	 mov	 eax, DWORD PTR _this$[ebp]
  00011	8b e5		 mov	 esp, ebp
  00013	5d		 pop	 ebp
  00014	c2 04 00	 ret	 4
??$?0U?$pair@$$CBHPAVBaseDialog@@@std@@@?$allocator@U_Node@?$_Tree_nod@V?$_Tmap_traits@HPAVBaseDialog@@U?$less@H@std@@V?$allocator@U?$pair@$$CBHPAVBaseDialog@@@std@@@3@$0A@@std@@@std@@@std@@QAE@ABV?$allocator@U?$pair@$$CBHPAVBaseDialog@@@std@@@1@@Z ENDP ; std::allocator<std::_Tree_nod<std::_Tmap_traits<int,BaseDialog *,std::less<int>,std::allocator<std::pair<int const ,BaseDialog *> >,0> >::_Node>::allocator<std::_Tree_nod<std::_Tmap_traits<int,BaseDialog *,std::less<int>,std::allocator<std::pair<int const ,BaseDialog *> >,0> >::_Node><std::pair<int const ,BaseDialog *> >
_TEXT	ENDS
EXTRN	??2@YAPAXI@Z:NEAR				; operator new
; Function compile flags: /Odt /RTCsu
;	COMDAT ??$_Allocate@U_Node@?$_Tree_nod@V?$_Tmap_traits@HPAVBaseDialog@@U?$less@H@std@@V?$allocator@U?$pair@$$CBHPAVBaseDialog@@@std@@@3@$0A@@std@@@std@@@std@@YAPAU_Node@?$_Tree_nod@V?$_Tmap_traits@HPAVBaseDialog@@U?$less@H@std@@V?$allocator@U?$pair@$$CBHPAVBaseDialog@@@std@@@3@$0A@@std@@@0@IPAU120@@Z
_TEXT	SEGMENT
__Count$ = 8						; size = 4
___formal$ = 12						; size = 4
??$_Allocate@U_Node@?$_Tree_nod@V?$_Tmap_traits@HPAVBaseDialog@@U?$less@H@std@@V?$allocator@U?$pair@$$CBHPAVBaseDialog@@@std@@@3@$0A@@std@@@std@@@std@@YAPAU_Node@?$_Tree_nod@V?$_Tmap_traits@HPAVBaseDialog@@U?$less@H@std@@V?$allocator@U?$pair@$$CBHPAVBaseDialog@@@std@@@3@$0A@@std@@@0@IPAU120@@Z PROC NEAR ; std::_Allocate<std::_Tree_nod<std::_Tmap_traits<int,BaseDialog *,std::less<int>,std::allocator<std::pair<int const ,BaseDialog *> >,0> >::_Node>, COMDAT

; 33   : 	{	// allocate storage for _Count elements of type _Ty

  00000	55		 push	 ebp
  00001	8b ec		 mov	 ebp, esp

; 34   : 	return ((_Ty _FARQ *)operator new(_Count * sizeof (_Ty)));

  00003	8b 45 08	 mov	 eax, DWORD PTR __Count$[ebp]
  00006	6b c0 18	 imul	 eax, 24			; 00000018H
  00009	50		 push	 eax
  0000a	e8 00 00 00 00	 call	 ??2@YAPAXI@Z		; operator new
  0000f	83 c4 04	 add	 esp, 4

; 35   : 	}

  00012	3b ec		 cmp	 ebp, esp
  00014	e8 00 00 00 00	 call	 __RTC_CheckEsp
  00019	5d		 pop	 ebp
  0001a	c3		 ret	 0
??$_Allocate@U_Node@?$_Tree_nod@V?$_Tmap_traits@HPAVBaseDialog@@U?$less@H@std@@V?$allocator@U?$pair@$$CBHPAVBaseDialog@@@std@@@3@$0A@@std@@@std@@@std@@YAPAU_Node@?$_Tree_nod@V?$_Tmap_traits@HPAVBaseDialog@@U?$less@H@std@@V?$allocator@U?$pair@$$CBHPAVBaseDialog@@@std@@@3@$0A@@std@@@0@IPAU120@@Z ENDP ; std::_Allocate<std::_Tree_nod<std::_Tmap_traits<int,BaseDialog *,std::less<int>,std::allocator<std::pair<int const ,BaseDialog *> >,0> >::_Node>
; Function compile flags: /Odt /RTCsu
_TEXT	ENDS
;	COMDAT ??$_Destroy@U_Node@?$_Tree_nod@V?$_Tmap_traits@HPAVBaseDialog@@U?$less@H@std@@V?$allocator@U?$pair@$$CBHPAVBaseDialog@@@std@@@3@$0A@@std@@@std@@@std@@YAXPAU_Node@?$_Tree_nod@V?$_Tmap_traits@HPAVBaseDialog@@U?$less@H@std@@V?$allocator@U?$pair@$$CBHPAVBaseDialog@@@std@@@3@$0A@@std@@@0@@Z
_TEXT	SEGMENT
__Ptr$ = 8						; size = 4
??$_Destroy@U_Node@?$_Tree_nod@V?$_Tmap_traits@HPAVBaseDialog@@U?$less@H@std@@V?$allocator@U?$pair@$$CBHPAVBaseDialog@@@std@@@3@$0A@@std@@@std@@@std@@YAXPAU_Node@?$_Tree_nod@V?$_Tmap_traits@HPAVBaseDialog@@U?$less@H@std@@V?$allocator@U?$pair@$$CBHPAVBaseDialog@@@std@@@3@$0A@@std@@@0@@Z PROC NEAR ; std::_Destroy<std::_Tree_nod<std::_Tmap_traits<int,BaseDialog *,std::less<int>,std::allocator<std::pair<int const ,BaseDialog *> >,0> >::_Node>, COMDAT

; 48   : 	{	// destroy object at _Ptr

  00000	55		 push	 ebp
  00001	8b ec		 mov	 ebp, esp

; 49   : 	_DESTRUCTOR(_Ty, _Ptr);
; 50   : 	}

  00003	5d		 pop	 ebp
  00004	c3		 ret	 0
??$_Destroy@U_Node@?$_Tree_nod@V?$_Tmap_traits@HPAVBaseDialog@@U?$less@H@std@@V?$allocator@U?$pair@$$CBHPAVBaseDialog@@@std@@@3@$0A@@std@@@std@@@std@@YAXPAU_Node@?$_Tree_nod@V?$_Tmap_traits@HPAVBaseDialog@@U?$less@H@std@@V?$allocator@U?$pair@$$CBHPAVBaseDialog@@@std@@@3@$0A@@std@@@0@@Z ENDP ; std::_Destroy<std::_Tree_nod<std::_Tmap_traits<int,BaseDialog *,std::less<int>,std::allocator<std::pair<int const ,BaseDialog *> >,0> >::_Node>
; Function compile flags: /Odt /RTCsu
_TEXT	ENDS
;	COMDAT ??$_Construct@PAU_Node@?$_Tree_nod@V?$_Tmap_traits@HPAVBaseDialog@@U?$less@H@std@@V?$allocator@U?$pair@$$CBHPAVBaseDialog@@@std@@@3@$0A@@std@@@std@@PAU123@@std@@YAXPAPAU_Node@?$_Tree_nod@V?$_Tmap_traits@HPAVBaseDialog@@U?$less@H@std@@V?$allocator@U?$pair@$$CBHPAVBaseDialog@@@std@@@3@$0A@@std@@@0@ABQAU120@@Z
_TEXT	SEGMENT
tv68 = -8						; size = 4
$T189716 = -4						; size = 4
__Ptr$ = 8						; size = 4
__Val$ = 12						; size = 4
??$_Construct@PAU_Node@?$_Tree_nod@V?$_Tmap_traits@HPAVBaseDialog@@U?$less@H@std@@V?$allocator@U?$pair@$$CBHPAVBaseDialog@@@std@@@3@$0A@@std@@@std@@PAU123@@std@@YAXPAPAU_Node@?$_Tree_nod@V?$_Tmap_traits@HPAVBaseDialog@@U?$less@H@std@@V?$allocator@U?$pair@$$CBHPAVBaseDialog@@@std@@@3@$0A@@std@@@0@ABQAU120@@Z PROC NEAR ; std::_Construct<std::_Tree_nod<std::_Tmap_traits<int,BaseDialog *,std::less<int>,std::allocator<std::pair<int const ,BaseDialog *> >,0> >::_Node *,std::_Tree_nod<std::_Tmap_traits<int,BaseDialog *,std::less<int>,std::allocator<std::pair<int const ,BaseDialog *> >,0> >::_Node *>, COMDAT

; 41   : 	{	// construct object at _Ptr with value _Val

  00000	55		 push	 ebp
  00001	8b ec		 mov	 ebp, esp
  00003	83 ec 08	 sub	 esp, 8
  00006	c7 45 f8 cc cc
	cc cc		 mov	 DWORD PTR [ebp-8], -858993460 ; ccccccccH
  0000d	c7 45 fc cc cc
	cc cc		 mov	 DWORD PTR [ebp-4], -858993460 ; ccccccccH

; 42   : 	new ((void _FARQ *)_Ptr) _T1(_Val);

  00014	8b 45 08	 mov	 eax, DWORD PTR __Ptr$[ebp]
  00017	50		 push	 eax
  00018	6a 04		 push	 4
  0001a	e8 00 00 00 00	 call	 ??2@YAPAXIPAX@Z		; operator new
  0001f	83 c4 08	 add	 esp, 8
  00022	89 45 fc	 mov	 DWORD PTR $T189716[ebp], eax
  00025	83 7d fc 00	 cmp	 DWORD PTR $T189716[ebp], 0
  00029	74 12		 je	 SHORT $L189717
  0002b	8b 4d fc	 mov	 ecx, DWORD PTR $T189716[ebp]
  0002e	8b 55 0c	 mov	 edx, DWORD PTR __Val$[ebp]
  00031	8b 02		 mov	 eax, DWORD PTR [edx]
  00033	89 01		 mov	 DWORD PTR [ecx], eax
  00035	8b 4d fc	 mov	 ecx, DWORD PTR $T189716[ebp]
  00038	89 4d f8	 mov	 DWORD PTR tv68[ebp], ecx
  0003b	eb 07		 jmp	 SHORT $L188913
$L189717:
  0003d	c7 45 f8 00 00
	00 00		 mov	 DWORD PTR tv68[ebp], 0
$L188913:

; 43   : 	}

  00044	83 c4 08	 add	 esp, 8
  00047	3b ec		 cmp	 ebp, esp
  00049	e8 00 00 00 00	 call	 __RTC_CheckEsp
  0004e	8b e5		 mov	 esp, ebp
  00050	5d		 pop	 ebp
  00051	c3		 ret	 0
??$_Construct@PAU_Node@?$_Tree_nod@V?$_Tmap_traits@HPAVBaseDialog@@U?$less@H@std@@V?$allocator@U?$pair@$$CBHPAVBaseDialog@@@std@@@3@$0A@@std@@@std@@PAU123@@std@@YAXPAPAU_Node@?$_Tree_nod@V?$_Tmap_traits@HPAVBaseDialog@@U?$less@H@std@@V?$allocator@U?$pair@$$CBHPAVBaseDialog@@@std@@@3@$0A@@std@@@0@ABQAU120@@Z ENDP ; std::_Construct<std::_Tree_nod<std::_Tmap_traits<int,BaseDialog *,std::less<int>,std::allocator<std::pair<int const ,BaseDialog *> >,0> >::_Node *,std::_Tree_nod<std::_Tmap_traits<int,BaseDialog *,std::less<int>,std::allocator<std::pair<int const ,BaseDialog *> >,0> >::_Node *>
; Function compile flags: /Odt /RTCsu
_TEXT	ENDS
;	COMDAT ??_ECConfigDialog@@WEOI@AEPAXI@Z
_TEXT	SEGMENT
??_ECConfigDialog@@WEOI@AEPAXI@Z PROC NEAR		; [thunk]:CConfigDialog::`vector deleting destructor', COMDAT
  00000	81 e9 e8 04 00
	00		 sub	 ecx, 1256		; 000004e8H
  00006	e9 00 00 00 00	 jmp	 ??_ECConfigDialog@@UAEPAXI@Z
??_ECConfigDialog@@WEOI@AEPAXI@Z ENDP			; [thunk]:CConfigDialog::`vector deleting destructor'
; Function compile flags: /Odt /RTCsu
; File d:\program files (x86)\microsoft visual studio .net 2003\vc7\include\stdexcept
_TEXT	ENDS
;	COMDAT ?what@logic_error@std@@UBEPBDXZ
_TEXT	SEGMENT
_this$ = -4						; size = 4
?what@logic_error@std@@UBEPBDXZ PROC NEAR		; std::logic_error::what, COMDAT
; _this$ = ecx

; 26   : 		{	// return pointer to message string

  00000	55		 push	 ebp
  00001	8b ec		 mov	 ebp, esp
  00003	51		 push	 ecx
  00004	56		 push	 esi
  00005	c7 45 fc cc cc
	cc cc		 mov	 DWORD PTR [ebp-4], -858993460 ; ccccccccH
  0000c	89 4d fc	 mov	 DWORD PTR _this$[ebp], ecx

; 27   : 		return (_Str.c_str());

  0000f	8b 4d fc	 mov	 ecx, DWORD PTR _this$[ebp]
  00012	83 c1 0c	 add	 ecx, 12			; 0000000cH
  00015	8b f4		 mov	 esi, esp
  00017	ff 15 00 00 00
	00		 call	 DWORD PTR __imp_?c_str@?$basic_string@DU?$char_traits@D@std@@V?$allocator@D@2@@std@@QBEPBDXZ
  0001d	3b f4		 cmp	 esi, esp
  0001f	e8 00 00 00 00	 call	 __RTC_CheckEsp

; 28   : 		}

  00024	5e		 pop	 esi
  00025	83 c4 04	 add	 esp, 4
  00028	3b ec		 cmp	 ebp, esp
  0002a	e8 00 00 00 00	 call	 __RTC_CheckEsp
  0002f	8b e5		 mov	 esp, ebp
  00031	5d		 pop	 ebp
  00032	c3		 ret	 0
?what@logic_error@std@@UBEPBDXZ ENDP			; std::logic_error::what
_TEXT	ENDS
PUBLIC	??0logic_error@std@@QAE@ABV?$basic_string@DU?$char_traits@D@std@@V?$allocator@D@2@@1@@Z ; std::logic_error::logic_error
; Function compile flags: /Odt /RTCsu
;	COMDAT ??0length_error@std@@QAE@ABV?$basic_string@DU?$char_traits@D@std@@V?$allocator@D@2@@1@@Z
_TEXT	SEGMENT
_this$ = -4						; size = 4
__Message$ = 8						; size = 4
??0length_error@std@@QAE@ABV?$basic_string@DU?$char_traits@D@std@@V?$allocator@D@2@@1@@Z PROC NEAR ; std::length_error::length_error, COMDAT
; _this$ = ecx

; 95   : 		{	// construct from message string

  00000	55		 push	 ebp
  00001	8b ec		 mov	 ebp, esp
  00003	51		 push	 ecx
  00004	c7 45 fc cc cc
	cc cc		 mov	 DWORD PTR [ebp-4], -858993460 ; ccccccccH
  0000b	89 4d fc	 mov	 DWORD PTR _this$[ebp], ecx
  0000e	8b 45 08	 mov	 eax, DWORD PTR __Message$[ebp]
  00011	50		 push	 eax
  00012	8b 4d fc	 mov	 ecx, DWORD PTR _this$[ebp]
  00015	e8 00 00 00 00	 call	 ??0logic_error@std@@QAE@ABV?$basic_string@DU?$char_traits@D@std@@V?$allocator@D@2@@1@@Z ; std::logic_error::logic_error
  0001a	8b 4d fc	 mov	 ecx, DWORD PTR _this$[ebp]
  0001d	c7 01 00 00 00
	00		 mov	 DWORD PTR [ecx], OFFSET FLAT:??_7length_error@std@@6B@

; 96   : 		}

  00023	8b 45 fc	 mov	 eax, DWORD PTR _this$[ebp]
  00026	83 c4 04	 add	 esp, 4
  00029	3b ec		 cmp	 ebp, esp
  0002b	e8 00 00 00 00	 call	 __RTC_CheckEsp
  00030	8b e5		 mov	 esp, ebp
  00032	5d		 pop	 ebp
  00033	c2 04 00	 ret	 4
??0length_error@std@@QAE@ABV?$basic_string@DU?$char_traits@D@std@@V?$allocator@D@2@@1@@Z ENDP ; std::length_error::length_error
_TEXT	ENDS
PUBLIC	??_7logic_error@std@@6B@			; std::logic_error::`vftable'
PUBLIC	??_Glogic_error@std@@UAEPAXI@Z			; std::logic_error::`scalar deleting destructor'
PUBLIC	??_R4logic_error@std@@6B@			; std::logic_error::`RTTI Complete Object Locator'
PUBLIC	??_R3logic_error@std@@8				; std::logic_error::`RTTI Class Hierarchy Descriptor'
PUBLIC	??_R2logic_error@std@@8				; std::logic_error::`RTTI Base Class Array'
EXTRN	__imp_??0exception@@QAE@XZ:NEAR
EXTRN	__imp_??1exception@@UAE@XZ:NEAR
EXTRN	__imp_??0?$basic_string@DU?$char_traits@D@std@@V?$allocator@D@2@@std@@QAE@ABV01@@Z:NEAR
EXTRN	??_Elogic_error@std@@UAEPAXI@Z:NEAR		; std::logic_error::`vector deleting destructor'
;	COMDAT xdata$x
xdata$x	SEGMENT
$T189729 DD	0ffffffffH
	DD	FLAT:$L189724
$T189727 DD	019930520H
	DD	01H
	DD	FLAT:$T189729
	DD	2 DUP(00H)
	DD	2 DUP(00H)
xdata$x	ENDS
;	COMDAT ??_7logic_error@std@@6B@
CONST	SEGMENT
??_7logic_error@std@@6B@ DD FLAT:??_R4logic_error@std@@6B@ ; std::logic_error::`vftable'
	DD	FLAT:??_Elogic_error@std@@UAEPAXI@Z
	DD	FLAT:?what@logic_error@std@@UBEPBDXZ
CONST	ENDS
;	COMDAT ??_R4logic_error@std@@6B@
rdata$r	SEGMENT
??_R4logic_error@std@@6B@ DD 00H			; std::logic_error::`RTTI Complete Object Locator'
	DD	00H
	DD	00H
	DD	FLAT:??_R0?AVlogic_error@std@@@8
	DD	FLAT:??_R3logic_error@std@@8
rdata$r	ENDS
;	COMDAT ??_R3logic_error@std@@8
rdata$r	SEGMENT
??_R3logic_error@std@@8 DD 00H				; std::logic_error::`RTTI Class Hierarchy Descriptor'
	DD	00H
	DD	02H
	DD	FLAT:??_R2logic_error@std@@8
rdata$r	ENDS
;	COMDAT ??_R2logic_error@std@@8
rdata$r	SEGMENT
??_R2logic_error@std@@8 DD FLAT:??_R1A@?0A@A@logic_error@std@@8 ; std::logic_error::`RTTI Base Class Array'
	DD	FLAT:??_R1A@?0A@A@exception@@8
; Function compile flags: /Odt /RTCsu
rdata$r	ENDS
;	COMDAT ??0logic_error@std@@QAE@ABV?$basic_string@DU?$char_traits@D@std@@V?$allocator@D@2@@1@@Z
_TEXT	SEGMENT
_this$ = -16						; size = 4
__$EHRec$ = -12						; size = 12
__Message$ = 8						; size = 4
??0logic_error@std@@QAE@ABV?$basic_string@DU?$char_traits@D@std@@V?$allocator@D@2@@1@@Z PROC NEAR ; std::logic_error::logic_error, COMDAT
; _this$ = ecx

; 19   : 		{	// construct from message string

  00000	55		 push	 ebp
  00001	8b ec		 mov	 ebp, esp
  00003	6a ff		 push	 -1
  00005	68 00 00 00 00	 push	 __ehhandler$??0logic_error@std@@QAE@ABV?$basic_string@DU?$char_traits@D@std@@V?$allocator@D@2@@1@@Z
  0000a	64 a1 00 00 00
	00		 mov	 eax, DWORD PTR fs:__except_list
  00010	50		 push	 eax
  00011	64 89 25 00 00
	00 00		 mov	 DWORD PTR fs:__except_list, esp
  00018	51		 push	 ecx
  00019	56		 push	 esi
  0001a	c7 45 f0 cc cc
	cc cc		 mov	 DWORD PTR [ebp-16], -858993460 ; ccccccccH
  00021	89 4d f0	 mov	 DWORD PTR _this$[ebp], ecx
  00024	8b f4		 mov	 esi, esp
  00026	8b 4d f0	 mov	 ecx, DWORD PTR _this$[ebp]
  00029	ff 15 00 00 00
	00		 call	 DWORD PTR __imp_??0exception@@QAE@XZ
  0002f	3b f4		 cmp	 esi, esp
  00031	e8 00 00 00 00	 call	 __RTC_CheckEsp
  00036	c7 45 fc 00 00
	00 00		 mov	 DWORD PTR __$EHRec$[ebp+8], 0
  0003d	8b 45 f0	 mov	 eax, DWORD PTR _this$[ebp]
  00040	c7 00 00 00 00
	00		 mov	 DWORD PTR [eax], OFFSET FLAT:??_7logic_error@std@@6B@
  00046	8b f4		 mov	 esi, esp
  00048	8b 4d 08	 mov	 ecx, DWORD PTR __Message$[ebp]
  0004b	51		 push	 ecx
  0004c	8b 4d f0	 mov	 ecx, DWORD PTR _this$[ebp]
  0004f	83 c1 0c	 add	 ecx, 12			; 0000000cH
  00052	ff 15 00 00 00
	00		 call	 DWORD PTR __imp_??0?$basic_string@DU?$char_traits@D@std@@V?$allocator@D@2@@std@@QAE@ABV01@@Z
  00058	3b f4		 cmp	 esi, esp
  0005a	e8 00 00 00 00	 call	 __RTC_CheckEsp

; 20   : 		}

  0005f	c7 45 fc ff ff
	ff ff		 mov	 DWORD PTR __$EHRec$[ebp+8], -1
  00066	8b 45 f0	 mov	 eax, DWORD PTR _this$[ebp]
  00069	8b 4d f4	 mov	 ecx, DWORD PTR __$EHRec$[ebp]
  0006c	64 89 0d 00 00
	00 00		 mov	 DWORD PTR fs:__except_list, ecx
  00073	5e		 pop	 esi
  00074	83 c4 10	 add	 esp, 16			; 00000010H
  00077	3b ec		 cmp	 ebp, esp
  00079	e8 00 00 00 00	 call	 __RTC_CheckEsp
  0007e	8b e5		 mov	 esp, ebp
  00080	5d		 pop	 ebp
  00081	c2 04 00	 ret	 4
_TEXT	ENDS
;	COMDAT text$x
text$x	SEGMENT
$L189724:
  00000	8b f4		 mov	 esi, esp
  00002	8b 4d f0	 mov	 ecx, DWORD PTR _this$[ebp]
  00005	ff 15 00 00 00
	00		 call	 DWORD PTR __imp_??1exception@@UAE@XZ
  0000b	3b f4		 cmp	 esi, esp
  0000d	e9 00 00 00 00	 jmp	 __RTC_CheckEsp
__ehhandler$??0logic_error@std@@QAE@ABV?$basic_string@DU?$char_traits@D@std@@V?$allocator@D@2@@1@@Z:
  00012	b8 00 00 00 00	 mov	 eax, OFFSET FLAT:$T189727
  00017	e9 00 00 00 00	 jmp	 ___CxxFrameHandler
text$x	ENDS
??0logic_error@std@@QAE@ABV?$basic_string@DU?$char_traits@D@std@@V?$allocator@D@2@@1@@Z ENDP ; std::logic_error::logic_error
PUBLIC	??1logic_error@std@@UAE@XZ			; std::logic_error::~logic_error
; Function compile flags: /Odt /RTCsu
;	COMDAT ??_Glogic_error@std@@UAEPAXI@Z
_TEXT	SEGMENT
_this$ = -4						; size = 4
___flags$ = 8						; size = 4
??_Glogic_error@std@@UAEPAXI@Z PROC NEAR		; std::logic_error::`scalar deleting destructor', COMDAT
; _this$ = ecx
  00000	55		 push	 ebp
  00001	8b ec		 mov	 ebp, esp
  00003	51		 push	 ecx
  00004	c7 45 fc cc cc
	cc cc		 mov	 DWORD PTR [ebp-4], -858993460 ; ccccccccH
  0000b	89 4d fc	 mov	 DWORD PTR _this$[ebp], ecx
  0000e	8b 4d fc	 mov	 ecx, DWORD PTR _this$[ebp]
  00011	e8 00 00 00 00	 call	 ??1logic_error@std@@UAE@XZ ; std::logic_error::~logic_error
  00016	8b 45 08	 mov	 eax, DWORD PTR ___flags$[ebp]
  00019	83 e0 01	 and	 eax, 1
  0001c	74 0c		 je	 SHORT $L91647
  0001e	8b 4d fc	 mov	 ecx, DWORD PTR _this$[ebp]
  00021	51		 push	 ecx
  00022	e8 00 00 00 00	 call	 ??3@YAXPAX@Z		; operator delete
  00027	83 c4 04	 add	 esp, 4
$L91647:
  0002a	8b 45 fc	 mov	 eax, DWORD PTR _this$[ebp]
  0002d	83 c4 04	 add	 esp, 4
  00030	3b ec		 cmp	 ebp, esp
  00032	e8 00 00 00 00	 call	 __RTC_CheckEsp
  00037	8b e5		 mov	 esp, ebp
  00039	5d		 pop	 ebp
  0003a	c2 04 00	 ret	 4
??_Glogic_error@std@@UAEPAXI@Z ENDP			; std::logic_error::`scalar deleting destructor'
_TEXT	ENDS
;	COMDAT xdata$x
xdata$x	SEGMENT
$T189739 DD	0ffffffffH
	DD	FLAT:$L189734
$T189737 DD	019930520H
	DD	01H
	DD	FLAT:$T189739
	DD	2 DUP(00H)
	DD	2 DUP(00H)
; Function compile flags: /Odt /RTCsu
xdata$x	ENDS
;	COMDAT ??1logic_error@std@@UAE@XZ
_TEXT	SEGMENT
_this$ = -16						; size = 4
__$EHRec$ = -12						; size = 12
??1logic_error@std@@UAE@XZ PROC NEAR			; std::logic_error::~logic_error, COMDAT
; _this$ = ecx

; 23   : 		{}	// destroy the object

  00000	55		 push	 ebp
  00001	8b ec		 mov	 ebp, esp
  00003	6a ff		 push	 -1
  00005	68 00 00 00 00	 push	 __ehhandler$??1logic_error@std@@UAE@XZ
  0000a	64 a1 00 00 00
	00		 mov	 eax, DWORD PTR fs:__except_list
  00010	50		 push	 eax
  00011	64 89 25 00 00
	00 00		 mov	 DWORD PTR fs:__except_list, esp
  00018	51		 push	 ecx
  00019	56		 push	 esi
  0001a	c7 45 f0 cc cc
	cc cc		 mov	 DWORD PTR [ebp-16], -858993460 ; ccccccccH
  00021	89 4d f0	 mov	 DWORD PTR _this$[ebp], ecx
  00024	8b 45 f0	 mov	 eax, DWORD PTR _this$[ebp]
  00027	c7 00 00 00 00
	00		 mov	 DWORD PTR [eax], OFFSET FLAT:??_7logic_error@std@@6B@
  0002d	c7 45 fc 00 00
	00 00		 mov	 DWORD PTR __$EHRec$[ebp+8], 0
  00034	8b 4d f0	 mov	 ecx, DWORD PTR _this$[ebp]
  00037	83 c1 0c	 add	 ecx, 12			; 0000000cH
  0003a	8b f4		 mov	 esi, esp
  0003c	ff 15 00 00 00
	00		 call	 DWORD PTR __imp_??1?$basic_string@DU?$char_traits@D@std@@V?$allocator@D@2@@std@@QAE@XZ
  00042	3b f4		 cmp	 esi, esp
  00044	e8 00 00 00 00	 call	 __RTC_CheckEsp
  00049	c7 45 fc ff ff
	ff ff		 mov	 DWORD PTR __$EHRec$[ebp+8], -1
  00050	8b f4		 mov	 esi, esp
  00052	8b 4d f0	 mov	 ecx, DWORD PTR _this$[ebp]
  00055	ff 15 00 00 00
	00		 call	 DWORD PTR __imp_??1exception@@UAE@XZ
  0005b	3b f4		 cmp	 esi, esp
  0005d	e8 00 00 00 00	 call	 __RTC_CheckEsp
  00062	8b 4d f4	 mov	 ecx, DWORD PTR __$EHRec$[ebp]
  00065	64 89 0d 00 00
	00 00		 mov	 DWORD PTR fs:__except_list, ecx
  0006c	5e		 pop	 esi
  0006d	83 c4 10	 add	 esp, 16			; 00000010H
  00070	3b ec		 cmp	 ebp, esp
  00072	e8 00 00 00 00	 call	 __RTC_CheckEsp
  00077	8b e5		 mov	 esp, ebp
  00079	5d		 pop	 ebp
  0007a	c3		 ret	 0
_TEXT	ENDS
;	COMDAT text$x
text$x	SEGMENT
$L189734:
  00000	8b f4		 mov	 esi, esp
  00002	8b 4d f0	 mov	 ecx, DWORD PTR _this$[ebp]
  00005	ff 15 00 00 00
	00		 call	 DWORD PTR __imp_??1exception@@UAE@XZ
  0000b	3b f4		 cmp	 esi, esp
  0000d	e9 00 00 00 00	 jmp	 __RTC_CheckEsp
__ehhandler$??1logic_error@std@@UAE@XZ:
  00012	b8 00 00 00 00	 mov	 eax, OFFSET FLAT:$T189737
  00017	e9 00 00 00 00	 jmp	 ___CxxFrameHandler
text$x	ENDS
??1logic_error@std@@UAE@XZ ENDP				; std::logic_error::~logic_error
; Function compile flags: /Odt /RTCsu
;	COMDAT ??1length_error@std@@UAE@XZ
_TEXT	SEGMENT
_this$ = -4						; size = 4
??1length_error@std@@UAE@XZ PROC NEAR			; std::length_error::~length_error, COMDAT
; _this$ = ecx

; 99   : 		{}	// destroy the object

  00000	55		 push	 ebp
  00001	8b ec		 mov	 ebp, esp
  00003	51		 push	 ecx
  00004	c7 45 fc cc cc
	cc cc		 mov	 DWORD PTR [ebp-4], -858993460 ; ccccccccH
  0000b	89 4d fc	 mov	 DWORD PTR _this$[ebp], ecx
  0000e	8b 45 fc	 mov	 eax, DWORD PTR _this$[ebp]
  00011	c7 00 00 00 00
	00		 mov	 DWORD PTR [eax], OFFSET FLAT:??_7length_error@std@@6B@
  00017	8b 4d fc	 mov	 ecx, DWORD PTR _this$[ebp]
  0001a	e8 00 00 00 00	 call	 ??1logic_error@std@@UAE@XZ ; std::logic_error::~logic_error
  0001f	83 c4 04	 add	 esp, 4
  00022	3b ec		 cmp	 ebp, esp
  00024	e8 00 00 00 00	 call	 __RTC_CheckEsp
  00029	8b e5		 mov	 esp, ebp
  0002b	5d		 pop	 ebp
  0002c	c3		 ret	 0
??1length_error@std@@UAE@XZ ENDP			; std::length_error::~length_error
; Function compile flags: /Odt /RTCsu
_TEXT	ENDS
;	COMDAT ??_Glength_error@std@@UAEPAXI@Z
_TEXT	SEGMENT
_this$ = -4						; size = 4
___flags$ = 8						; size = 4
??_Glength_error@std@@UAEPAXI@Z PROC NEAR		; std::length_error::`scalar deleting destructor', COMDAT
; _this$ = ecx
  00000	55		 push	 ebp
  00001	8b ec		 mov	 ebp, esp
  00003	51		 push	 ecx
  00004	c7 45 fc cc cc
	cc cc		 mov	 DWORD PTR [ebp-4], -858993460 ; ccccccccH
  0000b	89 4d fc	 mov	 DWORD PTR _this$[ebp], ecx
  0000e	8b 4d fc	 mov	 ecx, DWORD PTR _this$[ebp]
  00011	e8 00 00 00 00	 call	 ??1length_error@std@@UAE@XZ ; std::length_error::~length_error
  00016	8b 45 08	 mov	 eax, DWORD PTR ___flags$[ebp]
  00019	83 e0 01	 and	 eax, 1
  0001c	74 0c		 je	 SHORT $L91713
  0001e	8b 4d fc	 mov	 ecx, DWORD PTR _this$[ebp]
  00021	51		 push	 ecx
  00022	e8 00 00 00 00	 call	 ??3@YAXPAX@Z		; operator delete
  00027	83 c4 04	 add	 esp, 4
$L91713:
  0002a	8b 45 fc	 mov	 eax, DWORD PTR _this$[ebp]
  0002d	83 c4 04	 add	 esp, 4
  00030	3b ec		 cmp	 ebp, esp
  00032	e8 00 00 00 00	 call	 __RTC_CheckEsp
  00037	8b e5		 mov	 esp, ebp
  00039	5d		 pop	 ebp
  0003a	c2 04 00	 ret	 4
??_Glength_error@std@@UAEPAXI@Z ENDP			; std::length_error::`scalar deleting destructor'
_TEXT	ENDS
PUBLIC	??_R4out_of_range@std@@6B@			; std::out_of_range::`RTTI Complete Object Locator'
PUBLIC	??_R3out_of_range@std@@8			; std::out_of_range::`RTTI Class Hierarchy Descriptor'
PUBLIC	??_R2out_of_range@std@@8			; std::out_of_range::`RTTI Base Class Array'
PUBLIC	??_R1A@?0A@A@out_of_range@std@@8		; std::out_of_range::`RTTI Base Class Descriptor at (0,-1,0,0)'
PUBLIC	??_7out_of_range@std@@6B@			; std::out_of_range::`vftable'
PUBLIC	??_Gout_of_range@std@@UAEPAXI@Z			; std::out_of_range::`scalar deleting destructor'
EXTRN	??_Eout_of_range@std@@UAEPAXI@Z:NEAR		; std::out_of_range::`vector deleting destructor'
;	COMDAT ??_7out_of_range@std@@6B@
CONST	SEGMENT
??_7out_of_range@std@@6B@ DD FLAT:??_R4out_of_range@std@@6B@ ; std::out_of_range::`vftable'
	DD	FLAT:??_Eout_of_range@std@@UAEPAXI@Z
	DD	FLAT:?what@logic_error@std@@UBEPBDXZ
CONST	ENDS
;	COMDAT ??_R4out_of_range@std@@6B@
rdata$r	SEGMENT
??_R4out_of_range@std@@6B@ DD 00H			; std::out_of_range::`RTTI Complete Object Locator'
	DD	00H
	DD	00H
	DD	FLAT:??_R0?AVout_of_range@std@@@8
	DD	FLAT:??_R3out_of_range@std@@8
rdata$r	ENDS
;	COMDAT ??_R3out_of_range@std@@8
rdata$r	SEGMENT
??_R3out_of_range@std@@8 DD 00H				; std::out_of_range::`RTTI Class Hierarchy Descriptor'
	DD	00H
	DD	03H
	DD	FLAT:??_R2out_of_range@std@@8
rdata$r	ENDS
;	COMDAT ??_R2out_of_range@std@@8
rdata$r	SEGMENT
??_R2out_of_range@std@@8 DD FLAT:??_R1A@?0A@A@out_of_range@std@@8 ; std::out_of_range::`RTTI Base Class Array'
	DD	FLAT:??_R1A@?0A@A@logic_error@std@@8
	DD	FLAT:??_R1A@?0A@A@exception@@8
rdata$r	ENDS
;	COMDAT ??_R1A@?0A@A@out_of_range@std@@8
rdata$r	SEGMENT
??_R1A@?0A@A@out_of_range@std@@8 DD FLAT:??_R0?AVout_of_range@std@@@8 ; std::out_of_range::`RTTI Base Class Descriptor at (0,-1,0,0)'
	DD	02H
	DD	00H
	DD	0ffffffffH
	DD	00H
	DD	00H
; Function compile flags: /Odt /RTCsu
rdata$r	ENDS
;	COMDAT ??0out_of_range@std@@QAE@ABV?$basic_string@DU?$char_traits@D@std@@V?$allocator@D@2@@1@@Z
_TEXT	SEGMENT
_this$ = -4						; size = 4
__Message$ = 8						; size = 4
??0out_of_range@std@@QAE@ABV?$basic_string@DU?$char_traits@D@std@@V?$allocator@D@2@@1@@Z PROC NEAR ; std::out_of_range::out_of_range, COMDAT
; _this$ = ecx

; 118  : 		{	// construct from message string

  00000	55		 push	 ebp
  00001	8b ec		 mov	 ebp, esp
  00003	51		 push	 ecx
  00004	c7 45 fc cc cc
	cc cc		 mov	 DWORD PTR [ebp-4], -858993460 ; ccccccccH
  0000b	89 4d fc	 mov	 DWORD PTR _this$[ebp], ecx
  0000e	8b 45 08	 mov	 eax, DWORD PTR __Message$[ebp]
  00011	50		 push	 eax
  00012	8b 4d fc	 mov	 ecx, DWORD PTR _this$[ebp]
  00015	e8 00 00 00 00	 call	 ??0logic_error@std@@QAE@ABV?$basic_string@DU?$char_traits@D@std@@V?$allocator@D@2@@1@@Z ; std::logic_error::logic_error
  0001a	8b 4d fc	 mov	 ecx, DWORD PTR _this$[ebp]
  0001d	c7 01 00 00 00
	00		 mov	 DWORD PTR [ecx], OFFSET FLAT:??_7out_of_range@std@@6B@

; 119  : 		}

  00023	8b 45 fc	 mov	 eax, DWORD PTR _this$[ebp]
  00026	83 c4 04	 add	 esp, 4
  00029	3b ec		 cmp	 ebp, esp
  0002b	e8 00 00 00 00	 call	 __RTC_CheckEsp
  00030	8b e5		 mov	 esp, ebp
  00032	5d		 pop	 ebp
  00033	c2 04 00	 ret	 4
??0out_of_range@std@@QAE@ABV?$basic_string@DU?$char_traits@D@std@@V?$allocator@D@2@@1@@Z ENDP ; std::out_of_range::out_of_range
; Function compile flags: /Odt /RTCsu
_TEXT	ENDS
;	COMDAT ??1out_of_range@std@@UAE@XZ
_TEXT	SEGMENT
_this$ = -4						; size = 4
??1out_of_range@std@@UAE@XZ PROC NEAR			; std::out_of_range::~out_of_range, COMDAT
; _this$ = ecx

; 122  : 		{}	// destroy the object

  00000	55		 push	 ebp
  00001	8b ec		 mov	 ebp, esp
  00003	51		 push	 ecx
  00004	c7 45 fc cc cc
	cc cc		 mov	 DWORD PTR [ebp-4], -858993460 ; ccccccccH
  0000b	89 4d fc	 mov	 DWORD PTR _this$[ebp], ecx
  0000e	8b 45 fc	 mov	 eax, DWORD PTR _this$[ebp]
  00011	c7 00 00 00 00
	00		 mov	 DWORD PTR [eax], OFFSET FLAT:??_7out_of_range@std@@6B@
  00017	8b 4d fc	 mov	 ecx, DWORD PTR _this$[ebp]
  0001a	e8 00 00 00 00	 call	 ??1logic_error@std@@UAE@XZ ; std::logic_error::~logic_error
  0001f	83 c4 04	 add	 esp, 4
  00022	3b ec		 cmp	 ebp, esp
  00024	e8 00 00 00 00	 call	 __RTC_CheckEsp
  00029	8b e5		 mov	 esp, ebp
  0002b	5d		 pop	 ebp
  0002c	c3		 ret	 0
??1out_of_range@std@@UAE@XZ ENDP			; std::out_of_range::~out_of_range
; Function compile flags: /Odt /RTCsu
_TEXT	ENDS
;	COMDAT ??_Gout_of_range@std@@UAEPAXI@Z
_TEXT	SEGMENT
_this$ = -4						; size = 4
___flags$ = 8						; size = 4
??_Gout_of_range@std@@UAEPAXI@Z PROC NEAR		; std::out_of_range::`scalar deleting destructor', COMDAT
; _this$ = ecx
  00000	55		 push	 ebp
  00001	8b ec		 mov	 ebp, esp
  00003	51		 push	 ecx
  00004	c7 45 fc cc cc
	cc cc		 mov	 DWORD PTR [ebp-4], -858993460 ; ccccccccH
  0000b	89 4d fc	 mov	 DWORD PTR _this$[ebp], ecx
  0000e	8b 4d fc	 mov	 ecx, DWORD PTR _this$[ebp]
  00011	e8 00 00 00 00	 call	 ??1out_of_range@std@@UAE@XZ ; std::out_of_range::~out_of_range
  00016	8b 45 08	 mov	 eax, DWORD PTR ___flags$[ebp]
  00019	83 e0 01	 and	 eax, 1
  0001c	74 0c		 je	 SHORT $L91735
  0001e	8b 4d fc	 mov	 ecx, DWORD PTR _this$[ebp]
  00021	51		 push	 ecx
  00022	e8 00 00 00 00	 call	 ??3@YAXPAX@Z		; operator delete
  00027	83 c4 04	 add	 esp, 4
$L91735:
  0002a	8b 45 fc	 mov	 eax, DWORD PTR _this$[ebp]
  0002d	83 c4 04	 add	 esp, 4
  00030	3b ec		 cmp	 ebp, esp
  00032	e8 00 00 00 00	 call	 __RTC_CheckEsp
  00037	8b e5		 mov	 esp, ebp
  00039	5d		 pop	 ebp
  0003a	c2 04 00	 ret	 4
??_Gout_of_range@std@@UAEPAXI@Z ENDP			; std::out_of_range::`scalar deleting destructor'
; Function compile flags: /Odt /RTCsu
; File d:\boxgit\playbox\playbox\dev\prj\playbox\src\core\imessageobserver.h
_TEXT	ENDS
;	COMDAT ??1IMessageObserver@@UAE@XZ
_TEXT	SEGMENT
_this$ = -4						; size = 4
??1IMessageObserver@@UAE@XZ PROC NEAR			; IMessageObserver::~IMessageObserver, COMDAT
; _this$ = ecx

; 16   : 	virtual ~IMessageObserver(){};

  00000	55		 push	 ebp
  00001	8b ec		 mov	 ebp, esp
  00003	51		 push	 ecx
  00004	c7 45 fc cc cc
	cc cc		 mov	 DWORD PTR [ebp-4], -858993460 ; ccccccccH
  0000b	89 4d fc	 mov	 DWORD PTR _this$[ebp], ecx
  0000e	8b 45 fc	 mov	 eax, DWORD PTR _this$[ebp]
  00011	c7 00 00 00 00
	00		 mov	 DWORD PTR [eax], OFFSET FLAT:??_7IMessageObserver@@6B@
  00017	8b e5		 mov	 esp, ebp
  00019	5d		 pop	 ebp
  0001a	c3		 ret	 0
??1IMessageObserver@@UAE@XZ ENDP			; IMessageObserver::~IMessageObserver
; Function compile flags: /Odt /RTCsu
_TEXT	ENDS
;	COMDAT ??_GIMessageObserver@@UAEPAXI@Z
_TEXT	SEGMENT
_this$ = -4						; size = 4
___flags$ = 8						; size = 4
??_GIMessageObserver@@UAEPAXI@Z PROC NEAR		; IMessageObserver::`scalar deleting destructor', COMDAT
; _this$ = ecx
  00000	55		 push	 ebp
  00001	8b ec		 mov	 ebp, esp
  00003	51		 push	 ecx
  00004	c7 45 fc cc cc
	cc cc		 mov	 DWORD PTR [ebp-4], -858993460 ; ccccccccH
  0000b	89 4d fc	 mov	 DWORD PTR _this$[ebp], ecx
  0000e	8b 4d fc	 mov	 ecx, DWORD PTR _this$[ebp]
  00011	e8 00 00 00 00	 call	 ??1IMessageObserver@@UAE@XZ ; IMessageObserver::~IMessageObserver
  00016	8b 45 08	 mov	 eax, DWORD PTR ___flags$[ebp]
  00019	83 e0 01	 and	 eax, 1
  0001c	74 0c		 je	 SHORT $L99513
  0001e	8b 4d fc	 mov	 ecx, DWORD PTR _this$[ebp]
  00021	51		 push	 ecx
  00022	e8 00 00 00 00	 call	 ??3@YAXPAX@Z		; operator delete
  00027	83 c4 04	 add	 esp, 4
$L99513:
  0002a	8b 45 fc	 mov	 eax, DWORD PTR _this$[ebp]
  0002d	83 c4 04	 add	 esp, 4
  00030	3b ec		 cmp	 ebp, esp
  00032	e8 00 00 00 00	 call	 __RTC_CheckEsp
  00037	8b e5		 mov	 esp, ebp
  00039	5d		 pop	 ebp
  0003a	c2 04 00	 ret	 4
??_GIMessageObserver@@UAEPAXI@Z ENDP			; IMessageObserver::`scalar deleting destructor'
; Function compile flags: /Odt /RTCsu
_TEXT	ENDS
;	COMDAT ??0out_of_range@std@@QAE@ABV01@@Z
_TEXT	SEGMENT
_this$ = -4						; size = 4
___that$ = 8						; size = 4
??0out_of_range@std@@QAE@ABV01@@Z PROC NEAR		; std::out_of_range::out_of_range, COMDAT
; _this$ = ecx
  00000	55		 push	 ebp
  00001	8b ec		 mov	 ebp, esp
  00003	51		 push	 ecx
  00004	c7 45 fc cc cc
	cc cc		 mov	 DWORD PTR [ebp-4], -858993460 ; ccccccccH
  0000b	89 4d fc	 mov	 DWORD PTR _this$[ebp], ecx
  0000e	8b 45 08	 mov	 eax, DWORD PTR ___that$[ebp]
  00011	50		 push	 eax
  00012	8b 4d fc	 mov	 ecx, DWORD PTR _this$[ebp]
  00015	e8 00 00 00 00	 call	 ??0logic_error@std@@QAE@ABV01@@Z
  0001a	8b 4d fc	 mov	 ecx, DWORD PTR _this$[ebp]
  0001d	c7 01 00 00 00
	00		 mov	 DWORD PTR [ecx], OFFSET FLAT:??_7out_of_range@std@@6B@
  00023	8b 45 fc	 mov	 eax, DWORD PTR _this$[ebp]
  00026	83 c4 04	 add	 esp, 4
  00029	3b ec		 cmp	 ebp, esp
  0002b	e8 00 00 00 00	 call	 __RTC_CheckEsp
  00030	8b e5		 mov	 esp, ebp
  00032	5d		 pop	 ebp
  00033	c2 04 00	 ret	 4
??0out_of_range@std@@QAE@ABV01@@Z ENDP			; std::out_of_range::out_of_range
_TEXT	ENDS
EXTRN	__imp_??0exception@@QAE@ABV0@@Z:NEAR
;	COMDAT xdata$x
xdata$x	SEGMENT
$T189760 DD	0ffffffffH
	DD	FLAT:$L189755
$T189758 DD	019930520H
	DD	01H
	DD	FLAT:$T189760
	DD	2 DUP(00H)
	DD	2 DUP(00H)
; Function compile flags: /Odt /RTCsu
xdata$x	ENDS
;	COMDAT ??0logic_error@std@@QAE@ABV01@@Z
_TEXT	SEGMENT
_this$ = -16						; size = 4
__$EHRec$ = -12						; size = 12
___that$ = 8						; size = 4
??0logic_error@std@@QAE@ABV01@@Z PROC NEAR		; std::logic_error::logic_error, COMDAT
; _this$ = ecx
  00000	55		 push	 ebp
  00001	8b ec		 mov	 ebp, esp
  00003	6a ff		 push	 -1
  00005	68 00 00 00 00	 push	 __ehhandler$??0logic_error@std@@QAE@ABV01@@Z
  0000a	64 a1 00 00 00
	00		 mov	 eax, DWORD PTR fs:__except_list
  00010	50		 push	 eax
  00011	64 89 25 00 00
	00 00		 mov	 DWORD PTR fs:__except_list, esp
  00018	51		 push	 ecx
  00019	56		 push	 esi
  0001a	c7 45 f0 cc cc
	cc cc		 mov	 DWORD PTR [ebp-16], -858993460 ; ccccccccH
  00021	89 4d f0	 mov	 DWORD PTR _this$[ebp], ecx
  00024	8b f4		 mov	 esi, esp
  00026	8b 45 08	 mov	 eax, DWORD PTR ___that$[ebp]
  00029	50		 push	 eax
  0002a	8b 4d f0	 mov	 ecx, DWORD PTR _this$[ebp]
  0002d	ff 15 00 00 00
	00		 call	 DWORD PTR __imp_??0exception@@QAE@ABV0@@Z
  00033	3b f4		 cmp	 esi, esp
  00035	e8 00 00 00 00	 call	 __RTC_CheckEsp
  0003a	c7 45 fc 00 00
	00 00		 mov	 DWORD PTR __$EHRec$[ebp+8], 0
  00041	8b 4d f0	 mov	 ecx, DWORD PTR _this$[ebp]
  00044	c7 01 00 00 00
	00		 mov	 DWORD PTR [ecx], OFFSET FLAT:??_7logic_error@std@@6B@
  0004a	8b 55 08	 mov	 edx, DWORD PTR ___that$[ebp]
  0004d	83 c2 0c	 add	 edx, 12			; 0000000cH
  00050	8b f4		 mov	 esi, esp
  00052	52		 push	 edx
  00053	8b 4d f0	 mov	 ecx, DWORD PTR _this$[ebp]
  00056	83 c1 0c	 add	 ecx, 12			; 0000000cH
  00059	ff 15 00 00 00
	00		 call	 DWORD PTR __imp_??0?$basic_string@DU?$char_traits@D@std@@V?$allocator@D@2@@std@@QAE@ABV01@@Z
  0005f	3b f4		 cmp	 esi, esp
  00061	e8 00 00 00 00	 call	 __RTC_CheckEsp
  00066	c7 45 fc ff ff
	ff ff		 mov	 DWORD PTR __$EHRec$[ebp+8], -1
  0006d	8b 45 f0	 mov	 eax, DWORD PTR _this$[ebp]
  00070	8b 4d f4	 mov	 ecx, DWORD PTR __$EHRec$[ebp]
  00073	64 89 0d 00 00
	00 00		 mov	 DWORD PTR fs:__except_list, ecx
  0007a	5e		 pop	 esi
  0007b	83 c4 10	 add	 esp, 16			; 00000010H
  0007e	3b ec		 cmp	 ebp, esp
  00080	e8 00 00 00 00	 call	 __RTC_CheckEsp
  00085	8b e5		 mov	 esp, ebp
  00087	5d		 pop	 ebp
  00088	c2 04 00	 ret	 4
_TEXT	ENDS
;	COMDAT text$x
text$x	SEGMENT
$L189755:
  00000	8b f4		 mov	 esi, esp
  00002	8b 4d f0	 mov	 ecx, DWORD PTR _this$[ebp]
  00005	ff 15 00 00 00
	00		 call	 DWORD PTR __imp_??1exception@@UAE@XZ
  0000b	3b f4		 cmp	 esi, esp
  0000d	e9 00 00 00 00	 jmp	 __RTC_CheckEsp
__ehhandler$??0logic_error@std@@QAE@ABV01@@Z:
  00012	b8 00 00 00 00	 mov	 eax, OFFSET FLAT:$T189758
  00017	e9 00 00 00 00	 jmp	 ___CxxFrameHandler
text$x	ENDS
??0logic_error@std@@QAE@ABV01@@Z ENDP			; std::logic_error::logic_error
; Function compile flags: /Odt /RTCsu
; File d:\program files (x86)\microsoft visual studio .net 2003\vc7\include\utility
;	COMDAT ??$swap@D@std@@YAXAAD0@Z
_TEXT	SEGMENT
__Tmp$ = -1						; size = 1
__Left$ = 8						; size = 4
__Right$ = 12						; size = 4
??$swap@D@std@@YAXAAD0@Z PROC NEAR			; std::swap<char>, COMDAT

; 14   : 	{	// exchange values stored at _Left and _Right

  00000	55		 push	 ebp
  00001	8b ec		 mov	 ebp, esp
  00003	51		 push	 ecx
  00004	c7 45 fc cc cc
	cc cc		 mov	 DWORD PTR [ebp-4], -858993460 ; ccccccccH

; 15   : 	_Ty _Tmp = _Left;

  0000b	8b 45 08	 mov	 eax, DWORD PTR __Left$[ebp]
  0000e	8a 08		 mov	 cl, BYTE PTR [eax]
  00010	88 4d ff	 mov	 BYTE PTR __Tmp$[ebp], cl

; 16   : 	_Left = _Right, _Right = _Tmp;

  00013	8b 55 08	 mov	 edx, DWORD PTR __Left$[ebp]
  00016	8b 45 0c	 mov	 eax, DWORD PTR __Right$[ebp]
  00019	8a 08		 mov	 cl, BYTE PTR [eax]
  0001b	88 0a		 mov	 BYTE PTR [edx], cl
  0001d	8b 55 0c	 mov	 edx, DWORD PTR __Right$[ebp]
  00020	8a 45 ff	 mov	 al, BYTE PTR __Tmp$[ebp]
  00023	88 02		 mov	 BYTE PTR [edx], al

; 17   : 	}

  00025	8b e5		 mov	 esp, ebp
  00027	5d		 pop	 ebp
  00028	c3		 ret	 0
??$swap@D@std@@YAXAAD0@Z ENDP				; std::swap<char>
_TEXT	ENDS
CRT$XCU	SEGMENT
_$S6	DD	FLAT:_$E5
; Function compile flags: /Odt /RTCsu
; File d:\boxgit\playbox\playbox\dev\prj\playbox\src\appconfig\config\configsettingdef.h
CRT$XCU	ENDS
;	COMDAT _$E5
text$yc	SEGMENT
_$E5	PROC NEAR					; COMDAT

; 25   : 	CONF_SETTING_SKIN_IDX,				TYPE_CONFIG_STR,

  00000	55		 push	 ebp
  00001	8b ec		 mov	 ebp, esp
  00003	a1 00 00 00 00	 mov	 eax, DWORD PTR _CONF_SETTING_SKIN_IDX
  00008	a3 00 00 00 00	 mov	 DWORD PTR _CONF_SETTING, eax
  0000d	8b 0d 00 00 00
	00		 mov	 ecx, DWORD PTR _TYPE_CONFIG_STR
  00013	89 0d 04 00 00
	00		 mov	 DWORD PTR _CONF_SETTING+4, ecx

; 26   : 	CONF_SETTING_CONFIG_MAIN_PAGE,		TYPE_CONFIG_STR,

  00019	8b 15 00 00 00
	00		 mov	 edx, DWORD PTR _CONF_SETTING_CONFIG_MAIN_PAGE
  0001f	89 15 08 00 00
	00		 mov	 DWORD PTR _CONF_SETTING+8, edx
  00025	a1 00 00 00 00	 mov	 eax, DWORD PTR _TYPE_CONFIG_STR
  0002a	a3 0c 00 00 00	 mov	 DWORD PTR _CONF_SETTING+12, eax

; 27   : 	CONF_SETTING_CONFIG_PROBLEM_REPORT,	TYPE_CONFIG_STR,

  0002f	8b 0d 00 00 00
	00		 mov	 ecx, DWORD PTR _CONF_SETTING_CONFIG_PROBLEM_REPORT
  00035	89 0d 10 00 00
	00		 mov	 DWORD PTR _CONF_SETTING+16, ecx
  0003b	8b 15 00 00 00
	00		 mov	 edx, DWORD PTR _TYPE_CONFIG_STR
  00041	89 15 14 00 00
	00		 mov	 DWORD PTR _CONF_SETTING+20, edx

; 28   : 	CONF_SETTING_CONFIG_HOME_PAGE,		TYPE_CONFIG_STR,

  00047	a1 00 00 00 00	 mov	 eax, DWORD PTR _CONF_SETTING_CONFIG_HOME_PAGE
  0004c	a3 18 00 00 00	 mov	 DWORD PTR _CONF_SETTING+24, eax
  00051	8b 0d 00 00 00
	00		 mov	 ecx, DWORD PTR _TYPE_CONFIG_STR
  00057	89 0d 1c 00 00
	00		 mov	 DWORD PTR _CONF_SETTING+28, ecx

; 29   : 	CONF_SETTING_CONFIG_IFASKEXIT,		TYPE_CONFIG_BOOL,

  0005d	8b 15 00 00 00
	00		 mov	 edx, DWORD PTR _CONF_SETTING_CONFIG_IFASKEXIT
  00063	89 15 20 00 00
	00		 mov	 DWORD PTR _CONF_SETTING+32, edx
  00069	a1 00 00 00 00	 mov	 eax, DWORD PTR _TYPE_CONFIG_BOOL
  0006e	a3 24 00 00 00	 mov	 DWORD PTR _CONF_SETTING+36, eax

; 30   : 	CONF_SETTING_CONFIG_EXITCHOICE,		TYPE_CONFIG_BOOL,

  00073	8b 0d 00 00 00
	00		 mov	 ecx, DWORD PTR _CONF_SETTING_CONFIG_EXITCHOICE
  00079	89 0d 28 00 00
	00		 mov	 DWORD PTR _CONF_SETTING+40, ecx
  0007f	8b 15 00 00 00
	00		 mov	 edx, DWORD PTR _TYPE_CONFIG_BOOL
  00085	89 15 2c 00 00
	00		 mov	 DWORD PTR _CONF_SETTING+44, edx

; 31   : 	CONF_SETTING_LOGIN_USER_NAME,		TYPE_CONFIG_STR,

  0008b	a1 00 00 00 00	 mov	 eax, DWORD PTR _CONF_SETTING_LOGIN_USER_NAME
  00090	a3 30 00 00 00	 mov	 DWORD PTR _CONF_SETTING+48, eax
  00095	8b 0d 00 00 00
	00		 mov	 ecx, DWORD PTR _TYPE_CONFIG_STR
  0009b	89 0d 34 00 00
	00		 mov	 DWORD PTR _CONF_SETTING+52, ecx

; 32   : 	CONF_SETTING_LOGIN_PASSWORD,		TYPE_CONFIG_STR,

  000a1	8b 15 00 00 00
	00		 mov	 edx, DWORD PTR _CONF_SETTING_LOGIN_PASSWORD
  000a7	89 15 38 00 00
	00		 mov	 DWORD PTR _CONF_SETTING+56, edx
  000ad	a1 00 00 00 00	 mov	 eax, DWORD PTR _TYPE_CONFIG_STR
  000b2	a3 3c 00 00 00	 mov	 DWORD PTR _CONF_SETTING+60, eax

; 33   : 	CONF_SETTING_NETID,					TYPE_CONFIG_STR,

  000b7	8b 0d 00 00 00
	00		 mov	 ecx, DWORD PTR _CONF_SETTING_NETID
  000bd	89 0d 40 00 00
	00		 mov	 DWORD PTR _CONF_SETTING+64, ecx
  000c3	8b 15 00 00 00
	00		 mov	 edx, DWORD PTR _TYPE_CONFIG_STR
  000c9	89 15 44 00 00
	00		 mov	 DWORD PTR _CONF_SETTING+68, edx

; 34   : 	CONF_SETTING_COLOR,					TYPE_CONFIG_INT,

  000cf	a1 00 00 00 00	 mov	 eax, DWORD PTR _CONF_SETTING_COLOR
  000d4	a3 48 00 00 00	 mov	 DWORD PTR _CONF_SETTING+72, eax
  000d9	8b 0d 00 00 00
	00		 mov	 ecx, DWORD PTR _TYPE_CONFIG_INT
  000df	89 0d 4c 00 00
	00		 mov	 DWORD PTR _CONF_SETTING+76, ecx

; 35   : 	CONF_SETTING_LIGHT,					TYPE_CONFIG_INT,

  000e5	8b 15 00 00 00
	00		 mov	 edx, DWORD PTR _CONF_SETTING_LIGHT
  000eb	89 15 50 00 00
	00		 mov	 DWORD PTR _CONF_SETTING+80, edx
  000f1	a1 00 00 00 00	 mov	 eax, DWORD PTR _TYPE_CONFIG_INT
  000f6	a3 54 00 00 00	 mov	 DWORD PTR _CONF_SETTING+84, eax

; 36   : 	CONF_SETTING_COLOR_BTN_INDEX,		TYPE_CONFIG_INT,

  000fb	8b 0d 00 00 00
	00		 mov	 ecx, DWORD PTR _CONF_SETTING_COLOR_BTN_INDEX
  00101	89 0d 58 00 00
	00		 mov	 DWORD PTR _CONF_SETTING+88, ecx
  00107	8b 15 00 00 00
	00		 mov	 edx, DWORD PTR _TYPE_CONFIG_INT
  0010d	89 15 5c 00 00
	00		 mov	 DWORD PTR _CONF_SETTING+92, edx

; 37   : 	CONF_SETTING_COLOR_USER,			TYPE_CONFIG_INT,

  00113	a1 00 00 00 00	 mov	 eax, DWORD PTR _CONF_SETTING_COLOR_USER
  00118	a3 60 00 00 00	 mov	 DWORD PTR _CONF_SETTING+96, eax
  0011d	8b 0d 00 00 00
	00		 mov	 ecx, DWORD PTR _TYPE_CONFIG_INT
  00123	89 0d 64 00 00
	00		 mov	 DWORD PTR _CONF_SETTING+100, ecx

; 38   : 	CONF_SETTING_FIRST_TIME_CHANGESKIN, TYPE_CONFIG_BOOL

  00129	8b 15 00 00 00
	00		 mov	 edx, DWORD PTR _CONF_SETTING_FIRST_TIME_CHANGESKIN
  0012f	89 15 68 00 00
	00		 mov	 DWORD PTR _CONF_SETTING+104, edx

; 39   : };

  00135	a1 00 00 00 00	 mov	 eax, DWORD PTR _TYPE_CONFIG_BOOL
  0013a	a3 6c 00 00 00	 mov	 DWORD PTR _CONF_SETTING+108, eax
  0013f	5d		 pop	 ebp
  00140	c3		 ret	 0
_$E5	ENDP
text$yc	ENDS
;	COMDAT CRT$XCU
; File d:\boxgit\playbox\playbox\dev\prj\playbox\src\appconfig\config\dlg\dlgconfig.cpp
CRT$XCU	SEGMENT
_$S8	DD	FLAT:_$E7
; Function compile flags: /Odt /RTCsu
CRT$XCU	ENDS
;	COMDAT _$E7
text$yc	SEGMENT
$T189768 = -36						; size = 12
$T189767 = -24						; size = 12
$T189766 = -12						; size = 12
_$E7	PROC NEAR					; COMDAT

; 26   :     ON_BN_CLICKED(IDOK, OnClickedOK)

  00000	55		 push	 ebp
  00001	8b ec		 mov	 ebp, esp
  00003	83 ec 24	 sub	 esp, 36			; 00000024H
  00006	b8 cc cc cc cc	 mov	 eax, -858993460		; ccccccccH
  0000b	89 45 dc	 mov	 DWORD PTR [ebp-36], eax
  0000e	89 45 e0	 mov	 DWORD PTR [ebp-32], eax
  00011	89 45 e4	 mov	 DWORD PTR [ebp-28], eax
  00014	89 45 e8	 mov	 DWORD PTR [ebp-24], eax
  00017	89 45 ec	 mov	 DWORD PTR [ebp-20], eax
  0001a	89 45 f0	 mov	 DWORD PTR [ebp-16], eax
  0001d	89 45 f4	 mov	 DWORD PTR [ebp-12], eax
  00020	89 45 f8	 mov	 DWORD PTR [ebp-8], eax
  00023	89 45 fc	 mov	 DWORD PTR [ebp-4], eax
  00026	c7 45 f4 00 00
	00 00		 mov	 DWORD PTR $T189766[ebp], OFFSET FLAT:?OnClickedOK@CConfigDialog@@IAEXXZ ; CConfigDialog::OnClickedOK
  0002d	c7 45 f8 8c ff
	ff ff		 mov	 DWORD PTR $T189766[ebp+4], -116 ; ffffff8cH
  00034	c7 45 fc 00 00
	00 00		 mov	 DWORD PTR $T189766[ebp+8], 0
  0003b	8b 45 f4	 mov	 eax, DWORD PTR $T189766[ebp]
  0003e	a3 14 00 00 00	 mov	 DWORD PTR ?_messageEntries@CConfigDialog@@0QBUAFX_MSGMAP_ENTRY@@B+20, eax

; 27   :     ON_BN_CLICKED(IDCANCEL, OnClickedCancel)

  00043	c7 05 18 00 00
	00 11 01 00 00	 mov	 DWORD PTR ?_messageEntries@CConfigDialog@@0QBUAFX_MSGMAP_ENTRY@@B+24, 273 ; 00000111H
  0004d	c7 05 1c 00 00
	00 00 00 00 00	 mov	 DWORD PTR ?_messageEntries@CConfigDialog@@0QBUAFX_MSGMAP_ENTRY@@B+28, 0
  00057	c7 05 20 00 00
	00 02 00 00 00	 mov	 DWORD PTR ?_messageEntries@CConfigDialog@@0QBUAFX_MSGMAP_ENTRY@@B+32, 2
  00061	c7 05 24 00 00
	00 02 00 00 00	 mov	 DWORD PTR ?_messageEntries@CConfigDialog@@0QBUAFX_MSGMAP_ENTRY@@B+36, 2
  0006b	c7 05 28 00 00
	00 35 00 00 00	 mov	 DWORD PTR ?_messageEntries@CConfigDialog@@0QBUAFX_MSGMAP_ENTRY@@B+40, 53 ; 00000035H
  00075	c7 45 e8 00 00
	00 00		 mov	 DWORD PTR $T189767[ebp], OFFSET FLAT:?OnClickedCancel@CConfigDialog@@IAEXXZ ; CConfigDialog::OnClickedCancel
  0007c	c7 45 ec 8c ff
	ff ff		 mov	 DWORD PTR $T189767[ebp+4], -116 ; ffffff8cH
  00083	c7 45 f0 00 00
	00 00		 mov	 DWORD PTR $T189767[ebp+8], 0
  0008a	8b 4d e8	 mov	 ecx, DWORD PTR $T189767[ebp]
  0008d	89 0d 2c 00 00
	00		 mov	 DWORD PTR ?_messageEntries@CConfigDialog@@0QBUAFX_MSGMAP_ENTRY@@B+44, ecx

; 28   : 	ON_BN_CLICKED(IDC_CONFIG_BTN_DEFAULT, OnConfigBtnDefaultBnClicked)

  00093	c7 05 30 00 00
	00 11 01 00 00	 mov	 DWORD PTR ?_messageEntries@CConfigDialog@@0QBUAFX_MSGMAP_ENTRY@@B+48, 273 ; 00000111H
  0009d	c7 05 34 00 00
	00 00 00 00 00	 mov	 DWORD PTR ?_messageEntries@CConfigDialog@@0QBUAFX_MSGMAP_ENTRY@@B+52, 0
  000a7	c7 05 38 00 00
	00 be 00 00 00	 mov	 DWORD PTR ?_messageEntries@CConfigDialog@@0QBUAFX_MSGMAP_ENTRY@@B+56, 190 ; 000000beH
  000b1	c7 05 3c 00 00
	00 be 00 00 00	 mov	 DWORD PTR ?_messageEntries@CConfigDialog@@0QBUAFX_MSGMAP_ENTRY@@B+60, 190 ; 000000beH
  000bb	c7 05 40 00 00
	00 35 00 00 00	 mov	 DWORD PTR ?_messageEntries@CConfigDialog@@0QBUAFX_MSGMAP_ENTRY@@B+64, 53 ; 00000035H
  000c5	c7 45 dc 00 00
	00 00		 mov	 DWORD PTR $T189768[ebp], OFFSET FLAT:?OnConfigBtnDefaultBnClicked@CConfigDialog@@IAEXXZ ; CConfigDialog::OnConfigBtnDefaultBnClicked
  000cc	c7 45 e0 8c ff
	ff ff		 mov	 DWORD PTR $T189768[ebp+4], -116 ; ffffff8cH
  000d3	c7 45 e4 00 00
	00 00		 mov	 DWORD PTR $T189768[ebp+8], 0
  000da	8b 55 dc	 mov	 edx, DWORD PTR $T189768[ebp]
  000dd	89 15 44 00 00
	00		 mov	 DWORD PTR ?_messageEntries@CConfigDialog@@0QBUAFX_MSGMAP_ENTRY@@B+68, edx

; 29   : 	//ON_WM_CTLCOLOR()
; 30   : END_MESSAGE_MAP()

  000e3	c7 05 48 00 00
	00 00 00 00 00	 mov	 DWORD PTR ?_messageEntries@CConfigDialog@@0QBUAFX_MSGMAP_ENTRY@@B+72, 0
  000ed	c7 05 4c 00 00
	00 00 00 00 00	 mov	 DWORD PTR ?_messageEntries@CConfigDialog@@0QBUAFX_MSGMAP_ENTRY@@B+76, 0
  000f7	c7 05 50 00 00
	00 00 00 00 00	 mov	 DWORD PTR ?_messageEntries@CConfigDialog@@0QBUAFX_MSGMAP_ENTRY@@B+80, 0
  00101	c7 05 54 00 00
	00 00 00 00 00	 mov	 DWORD PTR ?_messageEntries@CConfigDialog@@0QBUAFX_MSGMAP_ENTRY@@B+84, 0
  0010b	c7 05 58 00 00
	00 00 00 00 00	 mov	 DWORD PTR ?_messageEntries@CConfigDialog@@0QBUAFX_MSGMAP_ENTRY@@B+88, 0
  00115	c7 05 5c 00 00
	00 00 00 00 00	 mov	 DWORD PTR ?_messageEntries@CConfigDialog@@0QBUAFX_MSGMAP_ENTRY@@B+92, 0
  0011f	8b e5		 mov	 esp, ebp
  00121	5d		 pop	 ebp
  00122	c3		 ret	 0
_$E7	ENDP
text$yc	ENDS
PUBLIC	?_messageEntries@CConfigDialog@@0QBUAFX_MSGMAP_ENTRY@@B ; CConfigDialog::_messageEntries
_BSS	SEGMENT
_CONF_SETTING DD 01cH DUP (?)
_BSS	ENDS
;	COMDAT ?_messageEntries@CConfigDialog@@0QBUAFX_MSGMAP_ENTRY@@B
_DATA	SEGMENT
?_messageEntries@CConfigDialog@@0QBUAFX_MSGMAP_ENTRY@@B DD 0111H ; CConfigDialog::_messageEntries
	DD	00H
	DD	01H
	DD	01H
	DD	035H
	ORG $+76
_DATA	ENDS
END
