; Listing generated by Microsoft (R) Optimizing Compiler Version 13.10.3077 

	TITLE	.\src\AppConfig\config\Dlg\DlgDown.cpp
	.386P
include listing.inc
if @Version gt 510
.model FLAT
else
_TEXT	SEGMENT PARA USE32 PUBLIC 'CODE'
_TEXT	ENDS
_DATA	SEGMENT DWORD USE32 PUBLIC 'DATA'
_DATA	ENDS
CONST	SEGMENT DWORD USE32 PUBLIC 'CONST'
CONST	ENDS
_BSS	SEGMENT DWORD USE32 PUBLIC 'BSS'
_BSS	ENDS
$$SYMBOLS	SEGMENT BYTE USE32 'DEBSYM'
$$SYMBOLS	ENDS
_TLS	SEGMENT DWORD USE32 PUBLIC 'TLS'
_TLS	ENDS
;	COMDAT ??_C@_0EN@IBFBLEEG@D?3?2Program?5Files?5?$CIx86?$CJ?2Microsoft@
CONST	SEGMENT DWORD USE32 PUBLIC 'CONST'
CONST	ENDS
rdata$r	SEGMENT DWORD USE32 PUBLIC 'CONST'
rdata$r	ENDS
xdata$x	SEGMENT DWORD USE32 PUBLIC 'CONST'
xdata$x	ENDS
text$AFX_COL1	SEGMENT PARA USE32 PUBLIC ''
text$AFX_COL1	ENDS
text$yc	SEGMENT PARA USE32 PUBLIC 'CODE'
text$yc	ENDS
CRT$XCA	SEGMENT DWORD USE32 PUBLIC 'DATA'
CRT$XCA	ENDS
CRT$XCU	SEGMENT DWORD USE32 PUBLIC 'DATA'
CRT$XCU	ENDS
CRT$XCL	SEGMENT DWORD USE32 PUBLIC 'DATA'
CRT$XCL	ENDS
CRT$XCC	SEGMENT DWORD USE32 PUBLIC 'DATA'
CRT$XCC	ENDS
CRT$XCZ	SEGMENT DWORD USE32 PUBLIC 'DATA'
CRT$XCZ	ENDS
text$yd	SEGMENT PARA USE32 PUBLIC 'CODE'
text$yd	ENDS
ATL$__m	SEGMENT DWORD USE32 PUBLIC ''
ATL$__m	ENDS
ATL$__z	SEGMENT DWORD USE32 PUBLIC ''
ATL$__z	ENDS
ATL$__a	SEGMENT DWORD USE32 PUBLIC ''
ATL$__a	ENDS
;	COMDAT _$E5
text$yc	SEGMENT PARA USE32 PUBLIC 'CODE'
text$yc	ENDS
;	COMDAT ??_GCDownDialog@@UAEPAXI@Z
_TEXT	SEGMENT PARA USE32 PUBLIC 'CODE'
_TEXT	ENDS
;	COMDAT ??0BaseDialog@@QAE@XZ
_TEXT	SEGMENT PARA USE32 PUBLIC 'CODE'
_TEXT	ENDS
;	COMDAT ??1BaseDialog@@UAE@XZ
_TEXT	SEGMENT PARA USE32 PUBLIC 'CODE'
_TEXT	ENDS
;	COMDAT ??_GBaseDialog@@UAEPAXI@Z
_TEXT	SEGMENT PARA USE32 PUBLIC 'CODE'
_TEXT	ENDS
;	COMDAT ??B?$CComPtrBase@UITypeInfo2@@@ATL@@QBEPAUITypeInfo2@@XZ
_TEXT	SEGMENT PARA USE32 PUBLIC 'CODE'
_TEXT	ENDS
;	COMDAT ?equal@?$istreambuf_iterator@DU?$char_traits@D@std@@@std@@QBE_NABV12@@Z
_TEXT	SEGMENT PARA USE32 PUBLIC 'CODE'
_TEXT	ENDS
;	COMDAT ?equal@?$istreambuf_iterator@_WU?$char_traits@_W@std@@@std@@QBE_NABV12@@Z
_TEXT	SEGMENT PARA USE32 PUBLIC 'CODE'
_TEXT	ENDS
;	COMDAT ?Unlock@?$CComCritSecLock@VCComCriticalSection@ATL@@@ATL@@QAEXXZ
_TEXT	SEGMENT PARA USE32 PUBLIC 'CODE'
_TEXT	ENDS
;	COMDAT ??$_Maklocstr@D@std@@YAPADPBDPADABU_Cvtvec@@@Z
_TEXT	SEGMENT PARA USE32 PUBLIC 'CODE'
_TEXT	ENDS
;	COMDAT ??_R3BaseDialog@@8
rdata$r	SEGMENT DWORD USE32 PUBLIC 'CONST'
rdata$r	ENDS
;	COMDAT ??_R3?$numpunct@_W@std@@8
rdata$r	SEGMENT DWORD USE32 PUBLIC 'CONST'
rdata$r	ENDS
;	COMDAT ??_R3?$numpunct@D@std@@8
rdata$r	SEGMENT DWORD USE32 PUBLIC 'CONST'
rdata$r	ENDS
;	COMDAT ??_R3CDownDialog@@8
rdata$r	SEGMENT DWORD USE32 PUBLIC 'CONST'
rdata$r	ENDS
;	COMDAT ??_R2BaseDialog@@8
rdata$r	SEGMENT DWORD USE32 PUBLIC 'CONST'
rdata$r	ENDS
;	COMDAT ??_R2?$numpunct@_W@std@@8
rdata$r	SEGMENT DWORD USE32 PUBLIC 'CONST'
rdata$r	ENDS
;	COMDAT ??_R2?$numpunct@D@std@@8
rdata$r	SEGMENT DWORD USE32 PUBLIC 'CONST'
rdata$r	ENDS
;	COMDAT ??_R2CDownDialog@@8
rdata$r	SEGMENT DWORD USE32 PUBLIC 'CONST'
rdata$r	ENDS
;	COMDAT ??_R1A@?0A@A@?$numpunct@_W@std@@8
rdata$r	SEGMENT DWORD USE32 PUBLIC 'CONST'
rdata$r	ENDS
;	COMDAT ??_R1A@?0A@A@facet@locale@std@@8
rdata$r	SEGMENT DWORD USE32 PUBLIC 'CONST'
rdata$r	ENDS
;	COMDAT ??_R0?AVfacet@locale@std@@@8
_DATA	SEGMENT DWORD USE32 PUBLIC 'DATA'
_DATA	ENDS
;	COMDAT ??_R1A@?0A@A@?$numpunct@D@std@@8
rdata$r	SEGMENT DWORD USE32 PUBLIC 'CONST'
rdata$r	ENDS
;	COMDAT ??_R1A@?0A@A@CObject@@8
rdata$r	SEGMENT DWORD USE32 PUBLIC 'CONST'
rdata$r	ENDS
;	COMDAT ??_R0?AVCObject@@@8
_DATA	SEGMENT DWORD USE32 PUBLIC 'DATA'
_DATA	ENDS
;	COMDAT ??_R1A@?0A@A@CCmdTarget@@8
rdata$r	SEGMENT DWORD USE32 PUBLIC 'CONST'
rdata$r	ENDS
;	COMDAT ??_R0?AVCCmdTarget@@@8
_DATA	SEGMENT DWORD USE32 PUBLIC 'DATA'
_DATA	ENDS
;	COMDAT ??_R1A@?0A@A@CWnd@@8
rdata$r	SEGMENT DWORD USE32 PUBLIC 'CONST'
rdata$r	ENDS
;	COMDAT ??_R0?AVCWnd@@@8
_DATA	SEGMENT DWORD USE32 PUBLIC 'DATA'
_DATA	ENDS
;	COMDAT ??_R1A@?0A@A@CDialog@@8
rdata$r	SEGMENT DWORD USE32 PUBLIC 'CONST'
rdata$r	ENDS
;	COMDAT ??_R0?AVCDialog@@@8
_DATA	SEGMENT DWORD USE32 PUBLIC 'DATA'
_DATA	ENDS
;	COMDAT ??_R1A@?0A@A@BaseDialog@@8
rdata$r	SEGMENT DWORD USE32 PUBLIC 'CONST'
rdata$r	ENDS
;	COMDAT ??_R1A@?0A@A@CDownDialog@@8
rdata$r	SEGMENT DWORD USE32 PUBLIC 'CONST'
rdata$r	ENDS
;	COMDAT ??_R0?AV?$numpunct@_W@std@@@8
_DATA	SEGMENT DWORD USE32 PUBLIC 'DATA'
_DATA	ENDS
;	COMDAT ??_R0?AV?$numpunct@D@std@@@8
_DATA	SEGMENT DWORD USE32 PUBLIC 'DATA'
_DATA	ENDS
;	COMDAT ??_R0?AVBaseDialog@@@8
_DATA	SEGMENT DWORD USE32 PUBLIC 'DATA'
_DATA	ENDS
;	COMDAT ??_R0?AVCDownDialog@@@8
_DATA	SEGMENT DWORD USE32 PUBLIC 'DATA'
_DATA	ENDS
;	COMDAT ??_R4BaseDialog@@6B@
rdata$r	SEGMENT DWORD USE32 PUBLIC 'CONST'
rdata$r	ENDS
;	COMDAT ??0?$allocator@_W@std@@QAE@XZ
_TEXT	SEGMENT PARA USE32 PUBLIC 'CODE'
_TEXT	ENDS
;	COMDAT ??_G?$numpunct@_W@std@@MAEPAXI@Z
_TEXT	SEGMENT PARA USE32 PUBLIC 'CODE'
_TEXT	ENDS
;	COMDAT ??_R4?$numpunct@_W@std@@6B@
rdata$r	SEGMENT DWORD USE32 PUBLIC 'CONST'
rdata$r	ENDS
;	COMDAT ??_G?$numpunct@D@std@@MAEPAXI@Z
_TEXT	SEGMENT PARA USE32 PUBLIC 'CODE'
_TEXT	ENDS
;	COMDAT ??_R4?$numpunct@D@std@@6B@
rdata$r	SEGMENT DWORD USE32 PUBLIC 'CONST'
rdata$r	ENDS
;	COMDAT ??_R4CDownDialog@@6B@
rdata$r	SEGMENT DWORD USE32 PUBLIC 'CONST'
rdata$r	ENDS
;	COMDAT ??_C@_0EN@CBMLGOH@D?3?2Program?5Files?5?$CIx86?$CJ?2Microsoft@
CONST	SEGMENT DWORD USE32 PUBLIC 'CONST'
CONST	ENDS
;	COMDAT ?_Psave@?$_Facetptr@V?$numpunct@_W@std@@@std@@2PBVfacet@locale@2@B
_DATA	SEGMENT DWORD USE32 PUBLIC 'DATA'
_DATA	ENDS
;	COMDAT ?_Psave@?$_Facetptr@V?$numpunct@D@std@@@std@@2PBVfacet@locale@2@B
_DATA	SEGMENT DWORD USE32 PUBLIC 'DATA'
_DATA	ENDS
;	COMDAT ?Unlock@CComCriticalSection@ATL@@QAEJXZ
_TEXT	SEGMENT PARA USE32 PUBLIC 'CODE'
_TEXT	ENDS
;	COMDAT ??_C@_0FG@LDNDNCJM@D?3?2Program?5Files?5?$CIx86?$CJ?2Microsoft@
CONST	SEGMENT DWORD USE32 PUBLIC 'CONST'
CONST	ENDS
;	COMDAT ??_C@_09HIEJFN@m_bLocked?$AA@
CONST	SEGMENT DWORD USE32 PUBLIC 'CONST'
CONST	ENDS
;	COMDAT ?_Psave@?$_Facetptr@V?$ctype@_W@std@@@std@@2PBVfacet@locale@2@B
_DATA	SEGMENT DWORD USE32 PUBLIC 'DATA'
_DATA	ENDS
;	COMDAT ?_Psave@?$_Facetptr@V?$ctype@D@std@@@std@@2PBVfacet@locale@2@B
_DATA	SEGMENT DWORD USE32 PUBLIC 'DATA'
_DATA	ENDS
;	COMDAT ??$_Maklocchr@_W@std@@YA_WDPA_WABU_Cvtvec@@@Z
_TEXT	SEGMENT PARA USE32 PUBLIC 'CODE'
_TEXT	ENDS
;	COMDAT ??$_DebugHeapDelete@X@std@@YAXPAX@Z
_TEXT	SEGMENT PARA USE32 PUBLIC 'CODE'
_TEXT	ENDS
;	COMDAT ??$_Maklocstr@_W@std@@YAPA_WPBDPA_WABU_Cvtvec@@@Z
_TEXT	SEGMENT PARA USE32 PUBLIC 'CODE'
_TEXT	ENDS
;	COMDAT ??$_Maklocchr@D@std@@YADDPADABU_Cvtvec@@@Z
_TEXT	SEGMENT PARA USE32 PUBLIC 'CODE'
_TEXT	ENDS
;	COMDAT ??_C@_04LOAJBDKD@true?$AA@
CONST	SEGMENT DWORD USE32 PUBLIC 'CONST'
CONST	ENDS
;	COMDAT ??_C@_05LAPONLG@false?$AA@
CONST	SEGMENT DWORD USE32 PUBLIC 'CONST'
CONST	ENDS
;	COMDAT _wmemcpy
_TEXT	SEGMENT PARA USE32 PUBLIC 'CODE'
_TEXT	ENDS
;	COMDAT ?max_size@?$allocator@_W@std@@QBEIXZ
_TEXT	SEGMENT PARA USE32 PUBLIC 'CODE'
_TEXT	ENDS
;	COMDAT ?allocate@?$allocator@_W@std@@QAEPA_WI@Z
_TEXT	SEGMENT PARA USE32 PUBLIC 'CODE'
_TEXT	ENDS
;	COMDAT ??$_Allocate@_W@std@@YAPA_WIPA_W@Z
_TEXT	SEGMENT PARA USE32 PUBLIC 'CODE'
_TEXT	ENDS
;	COMDAT ??_C@_01GFHCPBMG@C?$AA@
CONST	SEGMENT DWORD USE32 PUBLIC 'CONST'
CONST	ENDS
;	COMDAT ?max_size@?$allocator@D@std@@QBEIXZ
_TEXT	SEGMENT PARA USE32 PUBLIC 'CODE'
_TEXT	ENDS
;	COMDAT ?allocate@?$allocator@D@std@@QAEPADI@Z
_TEXT	SEGMENT PARA USE32 PUBLIC 'CODE'
_TEXT	ENDS
;	COMDAT ??$_Allocate@D@std@@YAPADIPAD@Z
_TEXT	SEGMENT PARA USE32 PUBLIC 'CODE'
_TEXT	ENDS
;	COMDAT ?deallocate@?$allocator@D@std@@QAEXPADI@Z
_TEXT	SEGMENT PARA USE32 PUBLIC 'CODE'
_TEXT	ENDS
;	COMDAT ?_Peek@?$istreambuf_iterator@_WU?$char_traits@_W@std@@@std@@AAE_WXZ
_TEXT	SEGMENT PARA USE32 PUBLIC 'CODE'
_TEXT	ENDS
;	COMDAT ?_Peek@?$istreambuf_iterator@DU?$char_traits@D@std@@@std@@AAEDXZ
_TEXT	SEGMENT PARA USE32 PUBLIC 'CODE'
_TEXT	ENDS
;	COMDAT ??$use_facet@V?$ctype@_W@std@@@std@@YAABV?$ctype@_W@0@ABVlocale@0@@Z
_TEXT	SEGMENT PARA USE32 PUBLIC 'CODE'
_TEXT	ENDS
;	COMDAT ??_S?$ctype@_W@std@@6B@
CONST	SEGMENT DWORD USE32 PUBLIC 'CONST'
CONST	ENDS
;	COMDAT ??_R4?$ctype@_W@std@@6B@
rdata$r	SEGMENT DWORD USE32 PUBLIC 'CONST'
rdata$r	ENDS
;	COMDAT ??_R0?AV?$ctype@_W@std@@@8
_DATA	SEGMENT DWORD USE32 PUBLIC 'DATA'
_DATA	ENDS
;	COMDAT ??_R3?$ctype@_W@std@@8
rdata$r	SEGMENT DWORD USE32 PUBLIC 'CONST'
rdata$r	ENDS
;	COMDAT ??_R2?$ctype@_W@std@@8
rdata$r	SEGMENT DWORD USE32 PUBLIC 'CONST'
rdata$r	ENDS
;	COMDAT ??_R1A@?0A@A@?$ctype@_W@std@@8
rdata$r	SEGMENT DWORD USE32 PUBLIC 'CONST'
rdata$r	ENDS
;	COMDAT ??_R1A@?0A@A@ctype_base@std@@8
rdata$r	SEGMENT DWORD USE32 PUBLIC 'CONST'
rdata$r	ENDS
;	COMDAT ??_R0?AUctype_base@std@@@8
_DATA	SEGMENT DWORD USE32 PUBLIC 'DATA'
_DATA	ENDS
;	COMDAT ??_G?$ctype@_W@std@@MAEPAXI@Z
_TEXT	SEGMENT PARA USE32 PUBLIC 'CODE'
_TEXT	ENDS
;	COMDAT ??_C@_08EPJLHIJG@bad?5cast?$AA@
CONST	SEGMENT DWORD USE32 PUBLIC 'CONST'
CONST	ENDS
;	COMDAT __TI2?AVbad_cast@@
xdata$x	SEGMENT DWORD USE32 PUBLIC 'CONST'
xdata$x	ENDS
;	COMDAT __CTA2?AVbad_cast@@
xdata$x	SEGMENT DWORD USE32 PUBLIC 'CONST'
xdata$x	ENDS
;	COMDAT __CT??_R0?AVbad_cast@@@8??0bad_cast@@QAE@ABV0@@Z12
xdata$x	SEGMENT DWORD USE32 PUBLIC 'CONST'
xdata$x	ENDS
;	COMDAT ??_R0?AVbad_cast@@@8
_DATA	SEGMENT DWORD USE32 PUBLIC 'DATA'
_DATA	ENDS
;	COMDAT __CT??_R0?AVexception@@@8??0exception@@QAE@ABV0@@Z12
xdata$x	SEGMENT DWORD USE32 PUBLIC 'CONST'
xdata$x	ENDS
;	COMDAT ??_R0?AVexception@@@8
_DATA	SEGMENT DWORD USE32 PUBLIC 'DATA'
_DATA	ENDS
;	COMDAT ??$_DebugHeapDelete@Vfacet@locale@std@@@std@@YAXPAVfacet@locale@0@@Z
_TEXT	SEGMENT PARA USE32 PUBLIC 'CODE'
_TEXT	ENDS
;	COMDAT ??$use_facet@V?$ctype@D@std@@@std@@YAABV?$ctype@D@0@ABVlocale@0@@Z
_TEXT	SEGMENT PARA USE32 PUBLIC 'CODE'
_TEXT	ENDS
;	COMDAT ??_S?$ctype@D@std@@6B@
CONST	SEGMENT DWORD USE32 PUBLIC 'CONST'
CONST	ENDS
;	COMDAT ??_R4?$ctype@D@std@@6B@
rdata$r	SEGMENT DWORD USE32 PUBLIC 'CONST'
rdata$r	ENDS
;	COMDAT ??_R0?AV?$ctype@D@std@@@8
_DATA	SEGMENT DWORD USE32 PUBLIC 'DATA'
_DATA	ENDS
;	COMDAT ??_R3?$ctype@D@std@@8
rdata$r	SEGMENT DWORD USE32 PUBLIC 'CONST'
rdata$r	ENDS
;	COMDAT ??_R2?$ctype@D@std@@8
rdata$r	SEGMENT DWORD USE32 PUBLIC 'CONST'
rdata$r	ENDS
;	COMDAT ??_R1A@?0A@A@?$ctype@D@std@@8
rdata$r	SEGMENT DWORD USE32 PUBLIC 'CONST'
rdata$r	ENDS
;	COMDAT ??_G?$ctype@D@std@@MAEPAXI@Z
_TEXT	SEGMENT PARA USE32 PUBLIC 'CODE'
_TEXT	ENDS
;	COMDAT ??_S?$numpunct@_W@std@@6B@
CONST	SEGMENT DWORD USE32 PUBLIC 'CONST'
CONST	ENDS
;	COMDAT ??_S?$numpunct@D@std@@6B@
CONST	SEGMENT DWORD USE32 PUBLIC 'CONST'
CONST	ENDS
;	COMDAT _wmemmove
_TEXT	SEGMENT PARA USE32 PUBLIC 'CODE'
_TEXT	ENDS
;	COMDAT ?deallocate@?$allocator@_W@std@@QAEXPA_WI@Z
_TEXT	SEGMENT PARA USE32 PUBLIC 'CODE'
_TEXT	ENDS
;	COMDAT ??0?$allocator@_W@std@@QAE@ABV01@@Z
_TEXT	SEGMENT PARA USE32 PUBLIC 'CODE'
_TEXT	ENDS
;	COMDAT ?IsLocked@CStringData@ATL@@QBE_NXZ
_TEXT	SEGMENT PARA USE32 PUBLIC 'CODE'
_TEXT	ENDS
;	COMDAT ??_C@_0N@ILOMLJGA@nLength?5?$DO?$DN?50?$AA@
CONST	SEGMENT DWORD USE32 PUBLIC 'CONST'
CONST	ENDS
;	COMDAT ??_C@_0CD@EEFFJEGJ@nLength?5?$DM?$DN?5GetData?$CI?$CJ?9?$DOnAllocLeng@
CONST	SEGMENT DWORD USE32 PUBLIC 'CONST'
CONST	ENDS
;	COMDAT ??_C@_0FJ@DMHPDOJC@D?3?2Program?5Files?5?$CIx86?$CJ?2Microsoft@
CONST	SEGMENT DWORD USE32 PUBLIC 'CONST'
CONST	ENDS
;	COMDAT ?Release@CStringData@ATL@@QAEXXZ
_TEXT	SEGMENT PARA USE32 PUBLIC 'CODE'
_TEXT	ENDS
;	COMDAT ??_C@_0L@OIIMFBNE@nRefs?5?$CB?$DN?50?$AA@
CONST	SEGMENT DWORD USE32 PUBLIC 'CONST'
CONST	ENDS
;	COMDAT ?data@CStringData@ATL@@QAEPAXXZ
_TEXT	SEGMENT PARA USE32 PUBLIC 'CODE'
_TEXT	ENDS
;	COMDAT ?AtlThrow@ATL@@YGXJ@Z
_TEXT	SEGMENT PARA USE32 PUBLIC 'CODE'
_TEXT	ENDS
;	COMDAT ??RCTraceFileAndLineInfo@ATL@@QBAXKIPBDZZ
_TEXT	SEGMENT PARA USE32 PUBLIC 'CODE'
_TEXT	ENDS
;	COMDAT ?TraceV@CTrace@ATL@@QBAXPBDHKI0PAD@Z
_TEXT	SEGMENT PARA USE32 PUBLIC 'CODE'
_TEXT	ENDS
;	COMDAT ??0CTraceFileAndLineInfo@ATL@@QAE@PBDH@Z
_TEXT	SEGMENT PARA USE32 PUBLIC 'CODE'
_TEXT	ENDS
;	COMDAT ??_C@_0FI@NHHJANPC@D?3?2Program?5Files?5?$CIx86?$CJ?2Microsoft@
CONST	SEGMENT DWORD USE32 PUBLIC 'CONST'
CONST	ENDS
;	COMDAT ??_C@_0BF@IAAKIJDJ@AtlThrow?3?5hr?5?$DN?50x?$CFx?6?$AA@
CONST	SEGMENT DWORD USE32 PUBLIC 'CONST'
CONST	ENDS
;	COMDAT ??BCTraceCategory@ATL@@QBEKXZ
_TEXT	SEGMENT PARA USE32 PUBLIC 'CODE'
_TEXT	ENDS
;	COMDAT ?IsShared@CStringData@ATL@@QBE_NXZ
_TEXT	SEGMENT PARA USE32 PUBLIC 'CODE'
_TEXT	ENDS
;	COMDAT ??_C@_0CB@GFHAPKDK@pOldData?9?$DOnAllocLength?5?$DM?5nLength@
CONST	SEGMENT DWORD USE32 PUBLIC 'CONST'
CONST	ENDS
;	COMDAT ??_C@_0BA@GNIEOBOF@nNewLength?5?$DO?$DN?50?$AA@
CONST	SEGMENT DWORD USE32 PUBLIC 'CONST'
CONST	ENDS
;	COMDAT ??_C@_0BA@GOIMFHNK@pStringMgr?5?$CB?$DN?50?$AA@
CONST	SEGMENT DWORD USE32 PUBLIC 'CONST'
CONST	ENDS
;	COMDAT ?GetDefaultManager@?$StrTraitMFC_DLL@DV?$ChTraitsCRT@D@ATL@@@@SAPAUIAtlStringMgr@ATL@@XZ
_TEXT	SEGMENT PARA USE32 PUBLIC 'CODE'
_TEXT	ENDS
;	COMDAT ?FindStringResourceInstance@?$StrTraitMFC_DLL@DV?$ChTraitsCRT@D@ATL@@@@SAPAUHINSTANCE__@@I@Z
_TEXT	SEGMENT PARA USE32 PUBLIC 'CODE'
_TEXT	ENDS
;	COMDAT ?AtlGetStringResourceImage@ATL@@YAPBUATLSTRINGRESOURCEIMAGE@1@PAUHINSTANCE__@@I@Z
_TEXT	SEGMENT PARA USE32 PUBLIC 'CODE'
_TEXT	ENDS
;	COMDAT ?_AtlGetStringResourceImage@ATL@@YAPBUATLSTRINGRESOURCEIMAGE@1@PAUHINSTANCE__@@PAUHRSRC__@@I@Z
_TEXT	SEGMENT PARA USE32 PUBLIC 'CODE'
_TEXT	ENDS
;	COMDAT ?GetBaseTypeLength@?$ChTraitsCRT@D@ATL@@SAHPB_WH@Z
_TEXT	SEGMENT PARA USE32 PUBLIC 'CODE'
_TEXT	ENDS
;	COMDAT ?_AtlGetConversionACP@ATL@@YGIXZ
_TEXT	SEGMENT PARA USE32 PUBLIC 'CODE'
_TEXT	ENDS
;	COMDAT ?g_pfnGetThreadACP@ATL@@3P6GIXZA
_DATA	SEGMENT DWORD USE32 PUBLIC 'DATA'
_DATA	ENDS
;	COMDAT ?_AtlGetThreadACPThunk@ATL@@YGIXZ
_TEXT	SEGMENT PARA USE32 PUBLIC 'CODE'
_TEXT	ENDS
;	COMDAT ?_AtlGetThreadACPReal@ATL@@YGIXZ
_TEXT	SEGMENT PARA USE32 PUBLIC 'CODE'
_TEXT	ENDS
;	COMDAT ?_AtlGetThreadACPFake@ATL@@YGIXZ
_TEXT	SEGMENT PARA USE32 PUBLIC 'CODE'
_TEXT	ENDS
;	COMDAT ?InterlockedExchangePointer@@YGPAXPAPAXPAX@Z
_TEXT	SEGMENT PARA USE32 PUBLIC 'CODE'
_TEXT	ENDS
;	COMDAT ?ConvertToBaseType@?$ChTraitsCRT@D@ATL@@SAXPADHPB_WH@Z
_TEXT	SEGMENT PARA USE32 PUBLIC 'CODE'
_TEXT	ENDS
;	COMDAT ??_C@_0FH@KDPNIMBO@D?3?2Program?5Files?5?$CIx86?$CJ?2Microsoft@
CONST	SEGMENT DWORD USE32 PUBLIC 'CONST'
CONST	ENDS
;	COMDAT ??_C@_0CJ@FJEKGMMD@Warning?3?5implicit?5LoadString?$CI?$CFu?$CJ@
CONST	SEGMENT DWORD USE32 PUBLIC 'CONST'
CONST	ENDS
;	COMDAT ?AddRef@CStringData@ATL@@QAEXXZ
_TEXT	SEGMENT PARA USE32 PUBLIC 'CODE'
_TEXT	ENDS
;	COMDAT ??_C@_09EEBKLCFA@nRefs?5?$DO?50?$AA@
CONST	SEGMENT DWORD USE32 PUBLIC 'CONST'
CONST	ENDS
;	COMDAT ??0?$allocator@D@std@@QAE@ABV01@@Z
_TEXT	SEGMENT PARA USE32 PUBLIC 'CODE'
_TEXT	ENDS
;	COMDAT ??0?$allocator@D@std@@QAE@XZ
_TEXT	SEGMENT PARA USE32 PUBLIC 'CODE'
_TEXT	ENDS
;	COMDAT ?_messageEntries@CDownDialog@@0QBUAFX_MSGMAP_ENTRY@@B
CONST	SEGMENT DWORD USE32 PUBLIC 'CONST'
CONST	ENDS
;	COMDAT ?messageMap@CDownDialog@@1UAFX_MSGMAP@@B
CONST	SEGMENT DWORD USE32 PUBLIC 'CONST'
CONST	ENDS
;	COMDAT ??_7BaseDialog@@6B@
CONST	SEGMENT DWORD USE32 PUBLIC 'CONST'
CONST	ENDS
;	COMDAT ??_7CDownDialog@@6B@
CONST	SEGMENT DWORD USE32 PUBLIC 'CONST'
CONST	ENDS
;	COMDAT ?classCDownDialog@CDownDialog@@2UCRuntimeClass@@B
CONST	SEGMENT DWORD USE32 PUBLIC 'CONST'
CONST	ENDS
sxdata	SEGMENT DWORD USE32 'SXDATA'
sxdata	ENDS
FLAT	GROUP _DATA, CONST, _BSS
	ASSUME	CS: FLAT, DS: FLAT, SS: FLAT
endif

INCLUDELIB MSVCRTD
INCLUDELIB OLDNAMES

PUBLIC	?g_pfnGetThreadACP@ATL@@3P6GIXZA		; ATL::g_pfnGetThreadACP
PUBLIC	?_AtlGetThreadACPThunk@ATL@@YGIXZ		; ATL::_AtlGetThreadACPThunk
PUBLIC	?classCDownDialog@CDownDialog@@2UCRuntimeClass@@B ; CDownDialog::classCDownDialog
PUBLIC	?_messageEntries@CDownDialog@@0QBUAFX_MSGMAP_ENTRY@@B ; CDownDialog::_messageEntries
PUBLIC	?messageMap@CDownDialog@@1UAFX_MSGMAP@@B	; CDownDialog::messageMap
PUBLIC	?OnBnClickedButton1@CDownDialog@@IAEXXZ		; CDownDialog::OnBnClickedButton1
PUBLIC	?OnBtnBroPicSavePath@CDownDialog@@IAEXXZ	; CDownDialog::OnBtnBroPicSavePath
EXTRN	?GetThisClass@BaseDialog@@SGPAUCRuntimeClass@@XZ:NEAR ; BaseDialog::GetThisClass
EXTRN	?GetThisMessageMap@BaseDialog@@KGPBUAFX_MSGMAP@@XZ:NEAR ; BaseDialog::GetThisMessageMap
CONST	SEGMENT
$SG187309 DB	'int', 00H
CONST	ENDS
_DATA	SEGMENT
_TYPE_CONFIG_INT DD FLAT:$SG187309
_DATA	ENDS
CONST	SEGMENT
$SG187311 DB	'str', 00H
CONST	ENDS
_DATA	SEGMENT
_TYPE_CONFIG_STR DD FLAT:$SG187311
_DATA	ENDS
CONST	SEGMENT
$SG187313 DB	'double', 00H
CONST	ENDS
_DATA	SEGMENT
_TYPE_CONFIG_DOUBLE DD FLAT:$SG187313
_DATA	ENDS
CONST	SEGMENT
	ORG $+1
$SG187315 DB	'bool', 00H
CONST	ENDS
_DATA	SEGMENT
_TYPE_CONFIG_BOOL DD FLAT:$SG187315
_DATA	ENDS
CONST	SEGMENT
	ORG $+3
$SG187317 DB	'sepint', 00H
CONST	ENDS
_DATA	SEGMENT
_TYPE_CONFIG_INT_HASSEP DD FLAT:$SG187317
_DATA	ENDS
CONST	SEGMENT
	ORG $+1
$SG187319 DB	'sepstr', 00H
CONST	ENDS
_DATA	SEGMENT
_TYPE_CONFIG_STR_HASSEP DD FLAT:$SG187319
_DATA	ENDS
CONST	SEGMENT
	ORG $+1
$SG187321 DB	'sepdouble', 00H
CONST	ENDS
_DATA	SEGMENT
_TYPE_CONFIG_DOUBLE_HASSEP DD FLAT:$SG187321
_DATA	ENDS
CONST	SEGMENT
	ORG $+2
$SG187323 DB	'sepbool', 00H
CONST	ENDS
_DATA	SEGMENT
_TYPE_CONFIG_BOOL_HASSEP DD FLAT:$SG187323
_DATA	ENDS
CONST	SEGMENT
$SG187325 DB	'App', 00H
CONST	ENDS
_DATA	SEGMENT
_CONF_APP_MODULE_NAME DD FLAT:$SG187325
_DATA	ENDS
CONST	SEGMENT
$SG187327 DB	'SwfPath', 00H
CONST	ENDS
_DATA	SEGMENT
_CONF_APP_SWF_PATH DD FLAT:$SG187327
_DATA	ENDS
CONST	SEGMENT
$SG187329 DB	'MainWndHold', 00H
CONST	ENDS
_DATA	SEGMENT
_CONF_APP_MAINWND_HOLD DD FLAT:$SG187329
_DATA	ENDS
CONST	SEGMENT
$SG187331 DB	'RunCount', 00H
CONST	ENDS
_DATA	SEGMENT
_CONF_APP_RUN_COUNT DD FLAT:$SG187331
_DATA	ENDS
CONST	SEGMENT
	ORG $+3
$SG187333 DB	'PlayedGame', 00H
CONST	ENDS
_DATA	SEGMENT
_CONF_APP_PLAYED_GAME DD FLAT:$SG187333
_DATA	ENDS
CONST	SEGMENT
	ORG $+1
$SG187335 DB	'playedPcGame', 00H
CONST	ENDS
_DATA	SEGMENT
_CONF_APP_PLAYED_PC_GAME DD FLAT:$SG187335
_DATA	ENDS
CONST	SEGMENT
	ORG $+3
$SG187337 DB	'PlayedIconSize', 00H
CONST	ENDS
_DATA	SEGMENT
_CONF_APP_PLAYED_ICON_SIZE DD FLAT:$SG187337
_DATA	ENDS
CONST	SEGMENT
	ORG $+1
$SG187339 DB	'PictureSavePath', 00H
CONST	ENDS
_DATA	SEGMENT
_CONF_APP_PIC_SAVE_PATH DD FLAT:$SG187339
_DATA	ENDS
CONST	SEGMENT
$SG187777 DB	'CDownDialog', 00H
CONST	ENDS
;	COMDAT ?classCDownDialog@CDownDialog@@2UCRuntimeClass@@B
CONST	SEGMENT
?classCDownDialog@CDownDialog@@2UCRuntimeClass@@B DD FLAT:$SG187777 ; CDownDialog::classCDownDialog
	DD	0208H
	DD	0ffffH
	DD	00H
	DD	FLAT:?GetThisClass@BaseDialog@@SGPAUCRuntimeClass@@XZ
	DD	00H
	DD	00H
CONST	ENDS
;	COMDAT ?_messageEntries@CDownDialog@@0QBUAFX_MSGMAP_ENTRY@@B
CONST	SEGMENT
?_messageEntries@CDownDialog@@0QBUAFX_MSGMAP_ENTRY@@B DD 0111H ; CDownDialog::_messageEntries
	DD	00H
	DD	03eaH
	DD	03eaH
	DD	035H
	DD	FLAT:?OnBnClickedButton1@CDownDialog@@IAEXXZ
	DD	0111H
	DD	00H
	DD	03ecH
	DD	03ecH
	DD	035H
	DD	FLAT:?OnBtnBroPicSavePath@CDownDialog@@IAEXXZ
	DD	00H
	DD	00H
	DD	00H
	DD	00H
	DD	00H
	DD	00H
CONST	ENDS
;	COMDAT ?messageMap@CDownDialog@@1UAFX_MSGMAP@@B
CONST	SEGMENT
?messageMap@CDownDialog@@1UAFX_MSGMAP@@B DD FLAT:?GetThisMessageMap@BaseDialog@@KGPBUAFX_MSGMAP@@XZ ; CDownDialog::messageMap
	DD	FLAT:?_messageEntries@CDownDialog@@0QBUAFX_MSGMAP_ENTRY@@B
CONST	ENDS
CONST	SEGMENT
$SG187837 DB	0cdH, 0bcH, 0c6H, 0acH, 0b1H, 0a3H, 0b4H, 0e6H, 0c2H, 0b7H
	DB	0beH, 0b6H, 0b2H, 0bbH, 0d5H, 0fdH, 0c8H, 0b7H, ',', 0c7H, 0ebH
	DB	0b5H, 0a5H, 0bbH, 0f7H, 0e4H, 0afH, 0c0H, 0c0H, 0d6H, 0d8H, 0d0H
	DB	0c2H, 0d1H, 0a1H, 0d4H, 0f1H, 00H
	ORG $+2
$SG187878 DB	0cfH, 0c2H, 0d4H, 0d8H, 0c4H, 0bfH, 0c2H, 0bcH, 0ceH, 0deH
	DB	0b7H, 0a8H, 0b7H, 0c3H, 0ceH, 0caH, 00H
	ORG $+3
$SG187885 DB	0d1H, 0a1H, 0d4H, 0f1H, 0d3H, 0ceH, 0cfH, 0b7H, 0b4H, 0e6H
	DB	0b7H, 0c5H, 0c4H, 0bfH, 0c2H, 0bcH, 00H
	ORG $+3
$SG187894 DB	0cfH, 0c2H, 0d4H, 0d8H, 00H
	ORG $+3
$SG187895 DB	0b4H, 0edH, 0ceH, 0f3H, 0b5H, 0c4H, 0b4H, 0e6H, 0b7H, 0c5H
	DB	0c4H, 0bfH, 0c2H, 0bcH, ', ', 0c7H, 0ebH, 0d6H, 0d8H, 0d0H, 0c2H
	DB	0c9H, 0e8H, 0d6H, 0c3H, '!', 00H
$SG187904 DB	0d1H, 0a1H, 0d4H, 0f1H, 0d3H, 0ceH, 0cfH, 0b7H, 0bdH, 0d8H
	DB	0cdH, 0bcH, 0b4H, 0e6H, 0b7H, 0c5H, 0c4H, 0bfH, 0c2H, 0bcH, 00H
	ORG $+3
$SG187913 DB	0cfH, 0c2H, 0d4H, 0d8H, 00H
	ORG $+3
$SG187914 DB	0c4H, 0bfH, 0c2H, 0bcH, 0b4H, 0edH, 0ceH, 0f3H, ', ', 0c7H
	DB	0ebH, 0d6H, 0d8H, 0d0H, 0c2H, 0c9H, 0e8H, 0d6H, 0c3H, '!', 00H
CONST	ENDS
;	COMDAT ?g_pfnGetThreadACP@ATL@@3P6GIXZA
_DATA	SEGMENT
?g_pfnGetThreadACP@ATL@@3P6GIXZA DD FLAT:?_AtlGetThreadACPThunk@ATL@@YGIXZ ; ATL::g_pfnGetThreadACP
_DATA	ENDS
PUBLIC	?GetThisClass@CDownDialog@@SGPAUCRuntimeClass@@XZ ; CDownDialog::GetThisClass
EXTRN	__RTC_InitBase:NEAR
EXTRN	__RTC_Shutdown:NEAR
;	COMDAT rtc$IMZ
; File d:\boxgit\playbox\playbox\dev\prj\playbox\src\appconfig\config\dlg\dlgdown.cpp
rtc$IMZ	SEGMENT
__RTC_InitBase.rtc$IMZ DD FLAT:__RTC_InitBase
rtc$IMZ	ENDS
;	COMDAT rtc$TMZ
rtc$TMZ	SEGMENT
__RTC_Shutdown.rtc$TMZ DD FLAT:__RTC_Shutdown
; Function compile flags: /Odt /RTCsu
rtc$TMZ	ENDS
_TEXT	SEGMENT
?GetThisClass@CDownDialog@@SGPAUCRuntimeClass@@XZ PROC NEAR ; CDownDialog::GetThisClass

; 10   : IMPLEMENT_DYNAMIC(CDownDialog, BaseDialog)

  00000	55		 push	 ebp
  00001	8b ec		 mov	 ebp, esp
  00003	b8 00 00 00 00	 mov	 eax, OFFSET FLAT:?classCDownDialog@CDownDialog@@2UCRuntimeClass@@B ; CDownDialog::classCDownDialog
  00008	5d		 pop	 ebp
  00009	c3		 ret	 0
?GetThisClass@CDownDialog@@SGPAUCRuntimeClass@@XZ ENDP	; CDownDialog::GetThisClass
_TEXT	ENDS
PUBLIC	?GetRuntimeClass@CDownDialog@@UBEPAUCRuntimeClass@@XZ ; CDownDialog::GetRuntimeClass
; Function compile flags: /Odt /RTCsu
_TEXT	SEGMENT
_this$ = -4						; size = 4
?GetRuntimeClass@CDownDialog@@UBEPAUCRuntimeClass@@XZ PROC NEAR ; CDownDialog::GetRuntimeClass
; _this$ = ecx

; 10   : IMPLEMENT_DYNAMIC(CDownDialog, BaseDialog)

  00010	55		 push	 ebp
  00011	8b ec		 mov	 ebp, esp
  00013	51		 push	 ecx
  00014	c7 45 fc cc cc
	cc cc		 mov	 DWORD PTR [ebp-4], -858993460 ; ccccccccH
  0001b	89 4d fc	 mov	 DWORD PTR _this$[ebp], ecx
  0001e	b8 00 00 00 00	 mov	 eax, OFFSET FLAT:?classCDownDialog@CDownDialog@@2UCRuntimeClass@@B ; CDownDialog::classCDownDialog
  00023	8b e5		 mov	 esp, ebp
  00025	5d		 pop	 ebp
  00026	c3		 ret	 0
?GetRuntimeClass@CDownDialog@@UBEPAUCRuntimeClass@@XZ ENDP ; CDownDialog::GetRuntimeClass
_TEXT	ENDS
PUBLIC	??_R1A@?0A@A@CDialog@@8				; CDialog::`RTTI Base Class Descriptor at (0,-1,0,0)'
PUBLIC	??_R0?AVCDialog@@@8				; CDialog `RTTI Type Descriptor'
PUBLIC	??_R1A@?0A@A@CWnd@@8				; CWnd::`RTTI Base Class Descriptor at (0,-1,0,0)'
PUBLIC	??_R0?AVCWnd@@@8				; CWnd `RTTI Type Descriptor'
PUBLIC	??_R1A@?0A@A@CCmdTarget@@8			; CCmdTarget::`RTTI Base Class Descriptor at (0,-1,0,0)'
PUBLIC	??_R0?AVCCmdTarget@@@8				; CCmdTarget `RTTI Type Descriptor'
PUBLIC	??_R1A@?0A@A@CObject@@8				; CObject::`RTTI Base Class Descriptor at (0,-1,0,0)'
PUBLIC	??_R0?AVCObject@@@8				; CObject `RTTI Type Descriptor'
PUBLIC	??_R4CDownDialog@@6B@				; CDownDialog::`RTTI Complete Object Locator'
PUBLIC	??_R0?AVCDownDialog@@@8				; CDownDialog `RTTI Type Descriptor'
PUBLIC	??_R3CDownDialog@@8				; CDownDialog::`RTTI Class Hierarchy Descriptor'
PUBLIC	??_R2CDownDialog@@8				; CDownDialog::`RTTI Base Class Array'
PUBLIC	??_R1A@?0A@A@CDownDialog@@8			; CDownDialog::`RTTI Base Class Descriptor at (0,-1,0,0)'
PUBLIC	??_R1A@?0A@A@BaseDialog@@8			; BaseDialog::`RTTI Base Class Descriptor at (0,-1,0,0)'
PUBLIC	??_R0?AVBaseDialog@@@8				; BaseDialog `RTTI Type Descriptor'
PUBLIC	??0BaseDialog@@QAE@XZ				; BaseDialog::BaseDialog
PUBLIC	??1BaseDialog@@UAE@XZ				; BaseDialog::~BaseDialog
PUBLIC	??0CDownDialog@@QAE@PAVCWnd@@@Z			; CDownDialog::CDownDialog
PUBLIC	?SetDefault@CDownDialog@@UAEXXZ			; CDownDialog::SetDefault
PUBLIC	?LoadConf@CDownDialog@@UAEXXZ			; CDownDialog::LoadConf
PUBLIC	?SaveConf@CDownDialog@@UAEX_N@Z			; CDownDialog::SaveConf
PUBLIC	?IsAllInputOK@CDownDialog@@UAE_NAAV?$basic_string@DU?$char_traits@D@std@@V?$allocator@D@2@@std@@@Z ; CDownDialog::IsAllInputOK
PUBLIC	?DoDataExchange@CDownDialog@@MAEXPAVCDataExchange@@@Z ; CDownDialog::DoDataExchange
PUBLIC	?GetMessageMap@CDownDialog@@MBEPBUAFX_MSGMAP@@XZ ; CDownDialog::GetMessageMap
PUBLIC	??_7CDownDialog@@6B@				; CDownDialog::`vftable'
PUBLIC	??_GCDownDialog@@UAEPAXI@Z			; CDownDialog::`scalar deleting destructor'
EXTRN	?GetInterfaceMap@CWnd@@MBEPBUAFX_INTERFACEMAP@@XZ:NEAR ; CWnd::GetInterfaceMap
EXTRN	__RTC_CheckEsp:NEAR
EXTRN	__except_list:DWORD
EXTRN	___CxxFrameHandler:NEAR
EXTRN	?EnsureStdObj@CWnd@@UAEJXZ:NEAR			; CWnd::EnsureStdObj
EXTRN	?get_accParent@CWnd@@UAEJPAPAUIDispatch@@@Z:NEAR ; CWnd::get_accParent
EXTRN	?get_accChildCount@CWnd@@UAEJPAJ@Z:NEAR		; CWnd::get_accChildCount
EXTRN	?IsInvokeAllowed@CCmdTarget@@UAEHJ@Z:NEAR	; CCmdTarget::IsInvokeAllowed
EXTRN	?get_accChild@CWnd@@UAEJUtagVARIANT@@PAPAUIDispatch@@@Z:NEAR ; CWnd::get_accChild
EXTRN	?get_accName@CWnd@@UAEJUtagVARIANT@@PAPA_W@Z:NEAR ; CWnd::get_accName
EXTRN	?get_accValue@CWnd@@UAEJUtagVARIANT@@PAPA_W@Z:NEAR ; CWnd::get_accValue
EXTRN	?GetDispatchIID@CCmdTarget@@UAEHPAU_GUID@@@Z:NEAR ; CCmdTarget::GetDispatchIID
EXTRN	?GetTypeInfoCount@CCmdTarget@@UAEIXZ:NEAR	; CCmdTarget::GetTypeInfoCount
EXTRN	?GetTypeLibCache@CCmdTarget@@UAEPAVCTypeLibCache@@XZ:NEAR ; CCmdTarget::GetTypeLibCache
EXTRN	?get_accDescription@CWnd@@UAEJUtagVARIANT@@PAPA_W@Z:NEAR ; CWnd::get_accDescription
EXTRN	?GetTypeLib@CCmdTarget@@UAEJKPAPAUITypeLib@@@Z:NEAR ; CCmdTarget::GetTypeLib
EXTRN	?get_accRole@CWnd@@UAEJUtagVARIANT@@PAU2@@Z:NEAR ; CWnd::get_accRole
EXTRN	?get_accState@CWnd@@UAEJUtagVARIANT@@PAU2@@Z:NEAR ; CWnd::get_accState
EXTRN	?get_accHelp@CWnd@@UAEJUtagVARIANT@@PAPA_W@Z:NEAR ; CWnd::get_accHelp
EXTRN	?get_accHelpTopic@CWnd@@UAEJPAPA_WUtagVARIANT@@PAJ@Z:NEAR ; CWnd::get_accHelpTopic
EXTRN	?get_accKeyboardShortcut@CWnd@@UAEJUtagVARIANT@@PAPA_W@Z:NEAR ; CWnd::get_accKeyboardShortcut
EXTRN	?get_accFocus@CWnd@@UAEJPAUtagVARIANT@@@Z:NEAR	; CWnd::get_accFocus
EXTRN	?get_accSelection@CWnd@@UAEJPAUtagVARIANT@@@Z:NEAR ; CWnd::get_accSelection
EXTRN	?get_accDefaultAction@CWnd@@UAEJUtagVARIANT@@PAPA_W@Z:NEAR ; CWnd::get_accDefaultAction
EXTRN	?GetCommandMap@CCmdTarget@@MBEPBUAFX_OLECMDMAP@@XZ:NEAR ; CCmdTarget::GetCommandMap
EXTRN	?accSelect@CWnd@@UAEJJUtagVARIANT@@@Z:NEAR	; CWnd::accSelect
EXTRN	?accLocation@CWnd@@UAEJPAJ000UtagVARIANT@@@Z:NEAR ; CWnd::accLocation
EXTRN	?GetDispatchMap@CCmdTarget@@MBEPBUAFX_DISPMAP@@XZ:NEAR ; CCmdTarget::GetDispatchMap
EXTRN	?accNavigate@CWnd@@UAEJJUtagVARIANT@@PAU2@@Z:NEAR ; CWnd::accNavigate
EXTRN	?accHitTest@CWnd@@UAEJJJPAUtagVARIANT@@@Z:NEAR	; CWnd::accHitTest
EXTRN	?GetConnectionMap@CCmdTarget@@MBEPBUAFX_CONNECTIONMAP@@XZ:NEAR ; CCmdTarget::GetConnectionMap
EXTRN	?accDoDefaultAction@CWnd@@UAEJUtagVARIANT@@@Z:NEAR ; CWnd::accDoDefaultAction
EXTRN	?put_accName@CWnd@@UAEJUtagVARIANT@@PA_W@Z:NEAR	; CWnd::put_accName
EXTRN	?put_accValue@CWnd@@UAEJUtagVARIANT@@PA_W@Z:NEAR ; CWnd::put_accValue
EXTRN	?SetProxy@CWnd@@UAEJPAUIAccessibleProxy@@@Z:NEAR ; CWnd::SetProxy
EXTRN	?CreateAccessibleProxy@CWnd@@UAEJIJPAJ@Z:NEAR	; CWnd::CreateAccessibleProxy
EXTRN	?GetEventSinkMap@CCmdTarget@@MBEPBUAFX_EVENTSINKMAP@@XZ:NEAR ; CCmdTarget::GetEventSinkMap
EXTRN	?OnCreateAggregates@CCmdTarget@@UAEHXZ:NEAR	; CCmdTarget::OnCreateAggregates
EXTRN	?OnCommand@CWnd@@MAEHIJ@Z:NEAR			; CWnd::OnCommand
EXTRN	?GetInterfaceHook@CCmdTarget@@UAEPAUIUnknown@@PBX@Z:NEAR ; CCmdTarget::GetInterfaceHook
EXTRN	?OnNotify@CWnd@@MAEHIJPAJ@Z:NEAR		; CWnd::OnNotify
EXTRN	?GetExtraConnectionPoints@CCmdTarget@@MAEHPAVCPtrArray@@@Z:NEAR ; CCmdTarget::GetExtraConnectionPoints
EXTRN	?GetConnectionHook@CCmdTarget@@MAEPAUIConnectionPoint@@ABU_GUID@@@Z:NEAR ; CCmdTarget::GetConnectionHook
EXTRN	?PreSubclassWindow@CWnd@@UAEXXZ:NEAR		; CWnd::PreSubclassWindow
EXTRN	?Create@CWnd@@UAEHPBD0KABUtagRECT@@PAV1@IPAUCCreateContext@@@Z:NEAR ; CWnd::Create
EXTRN	?CreateEx@CWnd@@UAEHKPBD0KHHHHPAUHWND__@@PAUHMENU__@@PAX@Z:NEAR ; CWnd::CreateEx
EXTRN	?CreateEx@CWnd@@UAEHKPBD0KABUtagRECT@@PAV1@IPAX@Z:NEAR ; CWnd::CreateEx
EXTRN	?Serialize@CObject@@UAEXAAVCArchive@@@Z:NEAR	; CObject::Serialize
EXTRN	?DestroyWindow@CWnd@@UAEHXZ:NEAR		; CWnd::DestroyWindow
EXTRN	?PreCreateWindow@CWnd@@UAEHAAUtagCREATESTRUCTA@@@Z:NEAR ; CWnd::PreCreateWindow
EXTRN	?CalcWindowRect@CWnd@@UAEXPAUtagRECT@@I@Z:NEAR	; CWnd::CalcWindowRect
EXTRN	?GetSuperWndProcAddr@CWnd@@MAEPAP6GJPAUHWND__@@IIJ@ZXZ:NEAR ; CWnd::GetSuperWndProcAddr
EXTRN	?BeginModalState@CWnd@@UAEXXZ:NEAR		; CWnd::BeginModalState
EXTRN	?EndModalState@CWnd@@UAEXXZ:NEAR		; CWnd::EndModalState
EXTRN	?OnAmbientProperty@CWnd@@UAEHPAVCOleControlSite@@JPAUtagVARIANT@@@Z:NEAR ; CWnd::OnAmbientProperty
EXTRN	?WindowProc@CWnd@@MAEJIIJ@Z:NEAR		; CWnd::WindowProc
EXTRN	?OnWndMsg@CWnd@@MAEHIIJPAJ@Z:NEAR		; CWnd::OnWndMsg
EXTRN	?DefWindowProcA@CWnd@@MAEJIIJ@Z:NEAR		; CWnd::DefWindowProcA
EXTRN	?PostNcDestroy@CWnd@@MAEXXZ:NEAR		; CWnd::PostNcDestroy
EXTRN	?OnChildNotify@CWnd@@MAEHIIJPAJ@Z:NEAR		; CWnd::OnChildNotify
EXTRN	?IsFrameWnd@CWnd@@UBEHXZ:NEAR			; CWnd::IsFrameWnd
EXTRN	?OnFinalRelease@CWnd@@UAEXXZ:NEAR		; CWnd::OnFinalRelease
EXTRN	??0SetBaseStatic@@QAE@XZ:NEAR			; SetBaseStatic::SetBaseStatic
EXTRN	??1SetBaseStatic@@UAE@XZ:NEAR			; SetBaseStatic::~SetBaseStatic
EXTRN	??0SetBaseEdit@@QAE@XZ:NEAR			; SetBaseEdit::SetBaseEdit
EXTRN	??1SetBaseEdit@@UAE@XZ:NEAR			; SetBaseEdit::~SetBaseEdit
EXTRN	?CreateControlContainer@CWnd@@MAEHPAPAVCOleControlContainer@@@Z:NEAR ; CWnd::CreateControlContainer
EXTRN	?CreateControlSite@CWnd@@MAEHPAVCOleControlContainer@@PAPAVCOleControlSite@@IABU_GUID@@@Z:NEAR ; CWnd::CreateControlSite
EXTRN	?OnOK@BaseDialog@@MAEXXZ:NEAR			; BaseDialog::OnOK
EXTRN	?OnCancel@BaseDialog@@MAEXXZ:NEAR		; BaseDialog::OnCancel
EXTRN	?OnInitDialog@BaseDialog@@MAEHXZ:NEAR		; BaseDialog::OnInitDialog
EXTRN	?SthChanged@BaseDialog@@UAEXXZ:NEAR		; BaseDialog::SthChanged
EXTRN	?Create@CDialog@@UAEHPBDPAVCWnd@@@Z:NEAR	; CDialog::Create
EXTRN	__imp_??0?$CStringT@DV?$StrTraitMFC_DLL@DV?$ChTraitsCRT@D@ATL@@@@@ATL@@QAE@XZ:NEAR
EXTRN	?Create@CDialog@@UAEHIPAVCWnd@@@Z:NEAR		; CDialog::Create
EXTRN	?CreateIndirect@CDialog@@UAEHPBUDLGTEMPLATE@@PAVCWnd@@PAX@Z:NEAR ; CDialog::CreateIndirect
EXTRN	?CreateIndirect@CDialog@@UAEHPAXPAVCWnd@@@Z:NEAR ; CDialog::CreateIndirect
EXTRN	?OnToolHitTest@CWnd@@UBEHVCPoint@@PAUtagTOOLINFOA@@@Z:NEAR ; CWnd::OnToolHitTest
EXTRN	??0CDialog@@QAE@IPAVCWnd@@@Z:NEAR		; CDialog::CDialog
EXTRN	?DoModal@CDialog@@UAEHXZ:NEAR			; CDialog::DoModal
EXTRN	??_ECDownDialog@@UAEPAXI@Z:NEAR			; CDownDialog::`vector deleting destructor'
EXTRN	?OnSetFont@CDialog@@UAEXPAVCFont@@@Z:NEAR	; CDialog::OnSetFont
EXTRN	??1CDialog@@UAE@XZ:NEAR				; CDialog::~CDialog
EXTRN	?AssertValid@CDialog@@UBEXXZ:NEAR		; CDialog::AssertValid
EXTRN	?Dump@CDialog@@UBEXAAVCDumpContext@@@Z:NEAR	; CDialog::Dump
EXTRN	?PreTranslateMessage@CDialog@@UAEHPAUtagMSG@@@Z:NEAR ; CDialog::PreTranslateMessage
EXTRN	__imp_??1?$CStringT@DV?$StrTraitMFC_DLL@DV?$ChTraitsCRT@D@ATL@@@@@ATL@@QAE@XZ:NEAR
EXTRN	?OnCmdMsg@CDialog@@UAEHIHPAXPAUAFX_CMDHANDLERINFO@@@Z:NEAR ; CDialog::OnCmdMsg
EXTRN	?CheckAutoCenter@CDialog@@UAEHXZ:NEAR		; CDialog::CheckAutoCenter
EXTRN	?SetOccDialogInfo@CDialog@@MAEHPAU_AFX_OCC_DIALOG_INFO@@@Z:NEAR ; CDialog::SetOccDialogInfo
EXTRN	?PreInitDialog@CDialog@@MAEXXZ:NEAR		; CDialog::PreInitDialog
EXTRN	?GetScrollBarCtrl@CWnd@@UBEPAVCScrollBar@@H@Z:NEAR ; CWnd::GetScrollBarCtrl
EXTRN	?WinHelpA@CWnd@@UAEXKI@Z:NEAR			; CWnd::WinHelpA
EXTRN	?HtmlHelpA@CWnd@@UAEXKI@Z:NEAR			; CWnd::HtmlHelpA
EXTRN	??_7type_info@@6B@:QWORD			; type_info::`vftable'
EXTRN	?WinHelpInternal@CWnd@@UAEXKI@Z:NEAR		; CWnd::WinHelpInternal
EXTRN	?ContinueModal@CWnd@@UAEHXZ:NEAR		; CWnd::ContinueModal
EXTRN	?EndModalLoop@CWnd@@UAEXH@Z:NEAR		; CWnd::EndModalLoop
xdata$x	SEGMENT
$T188471 DD	0ffffffffH
	DD	FLAT:$L188456
	DD	00H
	DD	FLAT:$L188457
	DD	01H
	DD	FLAT:$L188458
	DD	02H
	DD	FLAT:$L188459
	DD	03H
	DD	FLAT:$L188460
	DD	04H
	DD	FLAT:$L188461
	DD	05H
	DD	FLAT:$L188462
$T188467 DD	019930520H
	DD	07H
	DD	FLAT:$T188471
	DD	2 DUP(00H)
	DD	2 DUP(00H)
xdata$x	ENDS
;	COMDAT ??_7CDownDialog@@6B@
CONST	SEGMENT
??_7CDownDialog@@6B@ DD FLAT:??_R4CDownDialog@@6B@	; CDownDialog::`vftable'
	DD	FLAT:?GetRuntimeClass@CDownDialog@@UBEPAUCRuntimeClass@@XZ
	DD	FLAT:??_ECDownDialog@@UAEPAXI@Z
	DD	FLAT:?Serialize@CObject@@UAEXAAVCArchive@@@Z
	DD	FLAT:?AssertValid@CDialog@@UBEXXZ
	DD	FLAT:?Dump@CDialog@@UBEXAAVCDumpContext@@@Z
	DD	FLAT:?OnCmdMsg@CDialog@@UAEHIHPAXPAUAFX_CMDHANDLERINFO@@@Z
	DD	FLAT:?OnFinalRelease@CWnd@@UAEXXZ
	DD	FLAT:?IsInvokeAllowed@CCmdTarget@@UAEHJ@Z
	DD	FLAT:?GetDispatchIID@CCmdTarget@@UAEHPAU_GUID@@@Z
	DD	FLAT:?GetTypeInfoCount@CCmdTarget@@UAEIXZ
	DD	FLAT:?GetTypeLibCache@CCmdTarget@@UAEPAVCTypeLibCache@@XZ
	DD	FLAT:?GetTypeLib@CCmdTarget@@UAEJKPAPAUITypeLib@@@Z
	DD	FLAT:?GetMessageMap@CDownDialog@@MBEPBUAFX_MSGMAP@@XZ
	DD	FLAT:?GetCommandMap@CCmdTarget@@MBEPBUAFX_OLECMDMAP@@XZ
	DD	FLAT:?GetDispatchMap@CCmdTarget@@MBEPBUAFX_DISPMAP@@XZ
	DD	FLAT:?GetConnectionMap@CCmdTarget@@MBEPBUAFX_CONNECTIONMAP@@XZ
	DD	FLAT:?GetInterfaceMap@CWnd@@MBEPBUAFX_INTERFACEMAP@@XZ
	DD	FLAT:?GetEventSinkMap@CCmdTarget@@MBEPBUAFX_EVENTSINKMAP@@XZ
	DD	FLAT:?OnCreateAggregates@CCmdTarget@@UAEHXZ
	DD	FLAT:?GetInterfaceHook@CCmdTarget@@UAEPAUIUnknown@@PBX@Z
	DD	FLAT:?GetExtraConnectionPoints@CCmdTarget@@MAEHPAVCPtrArray@@@Z
	DD	FLAT:?GetConnectionHook@CCmdTarget@@MAEPAUIConnectionPoint@@ABU_GUID@@@Z
	DD	FLAT:?PreSubclassWindow@CWnd@@UAEXXZ
	DD	FLAT:?Create@CWnd@@UAEHPBD0KABUtagRECT@@PAV1@IPAUCCreateContext@@@Z
	DD	FLAT:?CreateEx@CWnd@@UAEHKPBD0KABUtagRECT@@PAV1@IPAX@Z
	DD	FLAT:?CreateEx@CWnd@@UAEHKPBD0KHHHHPAUHWND__@@PAUHMENU__@@PAX@Z
	DD	FLAT:?DestroyWindow@CWnd@@UAEHXZ
	DD	FLAT:?PreCreateWindow@CWnd@@UAEHAAUtagCREATESTRUCTA@@@Z
	DD	FLAT:?CalcWindowRect@CWnd@@UAEXPAUtagRECT@@I@Z
	DD	FLAT:?OnToolHitTest@CWnd@@UBEHVCPoint@@PAUtagTOOLINFOA@@@Z
	DD	FLAT:?GetScrollBarCtrl@CWnd@@UBEPAVCScrollBar@@H@Z
	DD	FLAT:?WinHelpA@CWnd@@UAEXKI@Z
	DD	FLAT:?HtmlHelpA@CWnd@@UAEXKI@Z
	DD	FLAT:?WinHelpInternal@CWnd@@UAEXKI@Z
	DD	FLAT:?ContinueModal@CWnd@@UAEHXZ
	DD	FLAT:?EndModalLoop@CWnd@@UAEXH@Z
	DD	FLAT:?EnsureStdObj@CWnd@@UAEJXZ
	DD	FLAT:?get_accParent@CWnd@@UAEJPAPAUIDispatch@@@Z
	DD	FLAT:?get_accChildCount@CWnd@@UAEJPAJ@Z
	DD	FLAT:?get_accChild@CWnd@@UAEJUtagVARIANT@@PAPAUIDispatch@@@Z
	DD	FLAT:?get_accName@CWnd@@UAEJUtagVARIANT@@PAPA_W@Z
	DD	FLAT:?get_accValue@CWnd@@UAEJUtagVARIANT@@PAPA_W@Z
	DD	FLAT:?get_accDescription@CWnd@@UAEJUtagVARIANT@@PAPA_W@Z
	DD	FLAT:?get_accRole@CWnd@@UAEJUtagVARIANT@@PAU2@@Z
	DD	FLAT:?get_accState@CWnd@@UAEJUtagVARIANT@@PAU2@@Z
	DD	FLAT:?get_accHelp@CWnd@@UAEJUtagVARIANT@@PAPA_W@Z
	DD	FLAT:?get_accHelpTopic@CWnd@@UAEJPAPA_WUtagVARIANT@@PAJ@Z
	DD	FLAT:?get_accKeyboardShortcut@CWnd@@UAEJUtagVARIANT@@PAPA_W@Z
	DD	FLAT:?get_accFocus@CWnd@@UAEJPAUtagVARIANT@@@Z
	DD	FLAT:?get_accSelection@CWnd@@UAEJPAUtagVARIANT@@@Z
	DD	FLAT:?get_accDefaultAction@CWnd@@UAEJUtagVARIANT@@PAPA_W@Z
	DD	FLAT:?accSelect@CWnd@@UAEJJUtagVARIANT@@@Z
	DD	FLAT:?accLocation@CWnd@@UAEJPAJ000UtagVARIANT@@@Z
	DD	FLAT:?accNavigate@CWnd@@UAEJJUtagVARIANT@@PAU2@@Z
	DD	FLAT:?accHitTest@CWnd@@UAEJJJPAUtagVARIANT@@@Z
	DD	FLAT:?accDoDefaultAction@CWnd@@UAEJUtagVARIANT@@@Z
	DD	FLAT:?put_accName@CWnd@@UAEJUtagVARIANT@@PA_W@Z
	DD	FLAT:?put_accValue@CWnd@@UAEJUtagVARIANT@@PA_W@Z
	DD	FLAT:?SetProxy@CWnd@@UAEJPAUIAccessibleProxy@@@Z
	DD	FLAT:?CreateAccessibleProxy@CWnd@@UAEJIJPAJ@Z
	DD	FLAT:?OnCommand@CWnd@@MAEHIJ@Z
	DD	FLAT:?OnNotify@CWnd@@MAEHIJPAJ@Z
	DD	FLAT:?GetSuperWndProcAddr@CWnd@@MAEPAP6GJPAUHWND__@@IIJ@ZXZ
	DD	FLAT:?DoDataExchange@CDownDialog@@MAEXPAVCDataExchange@@@Z
	DD	FLAT:?BeginModalState@CWnd@@UAEXXZ
	DD	FLAT:?EndModalState@CWnd@@UAEXXZ
	DD	FLAT:?PreTranslateMessage@CDialog@@UAEHPAUtagMSG@@@Z
	DD	FLAT:?OnAmbientProperty@CWnd@@UAEHPAVCOleControlSite@@JPAUtagVARIANT@@@Z
	DD	FLAT:?WindowProc@CWnd@@MAEJIIJ@Z
	DD	FLAT:?OnWndMsg@CWnd@@MAEHIIJPAJ@Z
	DD	FLAT:?DefWindowProcA@CWnd@@MAEJIIJ@Z
	DD	FLAT:?PostNcDestroy@CWnd@@MAEXXZ
	DD	FLAT:?OnChildNotify@CWnd@@MAEHIIJPAJ@Z
	DD	FLAT:?CheckAutoCenter@CDialog@@UAEHXZ
	DD	FLAT:?IsFrameWnd@CWnd@@UBEHXZ
	DD	FLAT:?CreateControlContainer@CWnd@@MAEHPAPAVCOleControlContainer@@@Z
	DD	FLAT:?CreateControlSite@CWnd@@MAEHPAVCOleControlContainer@@PAPAVCOleControlSite@@IABU_GUID@@@Z
	DD	FLAT:?SetOccDialogInfo@CDialog@@MAEHPAU_AFX_OCC_DIALOG_INFO@@@Z
	DD	FLAT:?Create@CDialog@@UAEHIPAVCWnd@@@Z
	DD	FLAT:?Create@CDialog@@UAEHPBDPAVCWnd@@@Z
	DD	FLAT:?CreateIndirect@CDialog@@UAEHPAXPAVCWnd@@@Z
	DD	FLAT:?CreateIndirect@CDialog@@UAEHPBUDLGTEMPLATE@@PAVCWnd@@PAX@Z
	DD	FLAT:?DoModal@CDialog@@UAEHXZ
	DD	FLAT:?OnInitDialog@BaseDialog@@MAEHXZ
	DD	FLAT:?OnSetFont@CDialog@@UAEXPAVCFont@@@Z
	DD	FLAT:?OnOK@BaseDialog@@MAEXXZ
	DD	FLAT:?OnCancel@BaseDialog@@MAEXXZ
	DD	FLAT:?PreInitDialog@CDialog@@MAEXXZ
	DD	FLAT:?SthChanged@BaseDialog@@UAEXXZ
	DD	FLAT:?SetDefault@CDownDialog@@UAEXXZ
	DD	FLAT:?LoadConf@CDownDialog@@UAEXXZ
	DD	FLAT:?SaveConf@CDownDialog@@UAEX_N@Z
	DD	FLAT:?IsAllInputOK@CDownDialog@@UAE_NAAV?$basic_string@DU?$char_traits@D@std@@V?$allocator@D@2@@std@@@Z
CONST	ENDS
;	COMDAT ??_R4CDownDialog@@6B@
rdata$r	SEGMENT
??_R4CDownDialog@@6B@ DD 00H				; CDownDialog::`RTTI Complete Object Locator'
	DD	00H
	DD	00H
	DD	FLAT:??_R0?AVCDownDialog@@@8
	DD	FLAT:??_R3CDownDialog@@8
rdata$r	ENDS
;	COMDAT ??_R0?AVCDownDialog@@@8
_DATA	SEGMENT
??_R0?AVCDownDialog@@@8 DD FLAT:??_7type_info@@6B@	; CDownDialog `RTTI Type Descriptor'
	DD	00H
	DB	'.?AVCDownDialog@@', 00H
_DATA	ENDS
;	COMDAT ??_R3CDownDialog@@8
rdata$r	SEGMENT
??_R3CDownDialog@@8 DD 00H				; CDownDialog::`RTTI Class Hierarchy Descriptor'
	DD	00H
	DD	06H
	DD	FLAT:??_R2CDownDialog@@8
rdata$r	ENDS
;	COMDAT ??_R2CDownDialog@@8
rdata$r	SEGMENT
??_R2CDownDialog@@8 DD FLAT:??_R1A@?0A@A@CDownDialog@@8	; CDownDialog::`RTTI Base Class Array'
	DD	FLAT:??_R1A@?0A@A@BaseDialog@@8
	DD	FLAT:??_R1A@?0A@A@CDialog@@8
	DD	FLAT:??_R1A@?0A@A@CWnd@@8
	DD	FLAT:??_R1A@?0A@A@CCmdTarget@@8
	DD	FLAT:??_R1A@?0A@A@CObject@@8
rdata$r	ENDS
;	COMDAT ??_R1A@?0A@A@CDownDialog@@8
rdata$r	SEGMENT
??_R1A@?0A@A@CDownDialog@@8 DD FLAT:??_R0?AVCDownDialog@@@8 ; CDownDialog::`RTTI Base Class Descriptor at (0,-1,0,0)'
	DD	05H
	DD	00H
	DD	0ffffffffH
	DD	00H
	DD	00H
rdata$r	ENDS
;	COMDAT ??_R1A@?0A@A@BaseDialog@@8
rdata$r	SEGMENT
??_R1A@?0A@A@BaseDialog@@8 DD FLAT:??_R0?AVBaseDialog@@@8 ; BaseDialog::`RTTI Base Class Descriptor at (0,-1,0,0)'
	DD	04H
	DD	00H
	DD	0ffffffffH
	DD	00H
	DD	00H
rdata$r	ENDS
;	COMDAT ??_R0?AVBaseDialog@@@8
_DATA	SEGMENT
??_R0?AVBaseDialog@@@8 DD FLAT:??_7type_info@@6B@	; BaseDialog `RTTI Type Descriptor'
	DD	00H
	DB	'.?AVBaseDialog@@', 00H
_DATA	ENDS
;	COMDAT ??_R1A@?0A@A@CDialog@@8
rdata$r	SEGMENT
??_R1A@?0A@A@CDialog@@8 DD FLAT:??_R0?AVCDialog@@@8	; CDialog::`RTTI Base Class Descriptor at (0,-1,0,0)'
	DD	03H
	DD	00H
	DD	0ffffffffH
	DD	00H
	DD	00H
rdata$r	ENDS
;	COMDAT ??_R0?AVCDialog@@@8
_DATA	SEGMENT
??_R0?AVCDialog@@@8 DD FLAT:??_7type_info@@6B@		; CDialog `RTTI Type Descriptor'
	DD	00H
	DB	'.?AVCDialog@@', 00H
_DATA	ENDS
;	COMDAT ??_R1A@?0A@A@CWnd@@8
rdata$r	SEGMENT
??_R1A@?0A@A@CWnd@@8 DD FLAT:??_R0?AVCWnd@@@8		; CWnd::`RTTI Base Class Descriptor at (0,-1,0,0)'
	DD	02H
	DD	00H
	DD	0ffffffffH
	DD	00H
	DD	00H
rdata$r	ENDS
;	COMDAT ??_R0?AVCWnd@@@8
_DATA	SEGMENT
??_R0?AVCWnd@@@8 DD FLAT:??_7type_info@@6B@		; CWnd `RTTI Type Descriptor'
	DD	00H
	DB	'.?AVCWnd@@', 00H
_DATA	ENDS
;	COMDAT ??_R1A@?0A@A@CCmdTarget@@8
rdata$r	SEGMENT
??_R1A@?0A@A@CCmdTarget@@8 DD FLAT:??_R0?AVCCmdTarget@@@8 ; CCmdTarget::`RTTI Base Class Descriptor at (0,-1,0,0)'
	DD	01H
	DD	00H
	DD	0ffffffffH
	DD	00H
	DD	00H
rdata$r	ENDS
;	COMDAT ??_R0?AVCCmdTarget@@@8
_DATA	SEGMENT
??_R0?AVCCmdTarget@@@8 DD FLAT:??_7type_info@@6B@	; CCmdTarget `RTTI Type Descriptor'
	DD	00H
	DB	'.?AVCCmdTarget@@', 00H
_DATA	ENDS
;	COMDAT ??_R1A@?0A@A@CObject@@8
rdata$r	SEGMENT
??_R1A@?0A@A@CObject@@8 DD FLAT:??_R0?AVCObject@@@8	; CObject::`RTTI Base Class Descriptor at (0,-1,0,0)'
	DD	00H
	DD	00H
	DD	0ffffffffH
	DD	00H
	DD	00H
rdata$r	ENDS
;	COMDAT ??_R0?AVCObject@@@8
_DATA	SEGMENT
??_R0?AVCObject@@@8 DD FLAT:??_7type_info@@6B@		; CObject `RTTI Type Descriptor'
	DD	00H
	DB	'.?AVCObject@@', 00H
; Function compile flags: /Odt /RTCsu
_DATA	ENDS
_TEXT	SEGMENT
$T188455 = -132						; size = 116
_this$ = -16						; size = 4
__$EHRec$ = -12						; size = 12
_pParent$ = 8						; size = 4
??0CDownDialog@@QAE@PAVCWnd@@@Z PROC NEAR		; CDownDialog::CDownDialog
; _this$ = ecx

; 12   : {

  00030	55		 push	 ebp
  00031	8b ec		 mov	 ebp, esp
  00033	6a ff		 push	 -1
  00035	68 00 00 00 00	 push	 __ehhandler$??0CDownDialog@@QAE@PAVCWnd@@@Z
  0003a	64 a1 00 00 00
	00		 mov	 eax, DWORD PTR fs:__except_list
  00040	50		 push	 eax
  00041	64 89 25 00 00
	00 00		 mov	 DWORD PTR fs:__except_list, esp
  00048	83 ec 78	 sub	 esp, 120		; 00000078H
  0004b	56		 push	 esi
  0004c	57		 push	 edi
  0004d	51		 push	 ecx
  0004e	8d bd 7c ff ff
	ff		 lea	 edi, DWORD PTR [ebp-132]
  00054	b9 1e 00 00 00	 mov	 ecx, 30			; 0000001eH
  00059	b8 cc cc cc cc	 mov	 eax, -858993460		; ccccccccH
  0005e	f3 ab		 rep stosd
  00060	59		 pop	 ecx
  00061	89 4d f0	 mov	 DWORD PTR _this$[ebp], ecx
  00064	8b 4d f0	 mov	 ecx, DWORD PTR _this$[ebp]
  00067	e8 00 00 00 00	 call	 ??0BaseDialog@@QAE@XZ
  0006c	c7 45 fc 00 00
	00 00		 mov	 DWORD PTR __$EHRec$[ebp+8], 0
  00073	8b 45 f0	 mov	 eax, DWORD PTR _this$[ebp]
  00076	c7 00 00 00 00
	00		 mov	 DWORD PTR [eax], OFFSET FLAT:??_7CDownDialog@@6B@
  0007c	8b 4d f0	 mov	 ecx, DWORD PTR _this$[ebp]
  0007f	81 c1 90 00 00
	00		 add	 ecx, 144		; 00000090H
  00085	e8 00 00 00 00	 call	 ??0SetBaseStatic@@QAE@XZ ; SetBaseStatic::SetBaseStatic
  0008a	c6 45 fc 01	 mov	 BYTE PTR __$EHRec$[ebp+8], 1
  0008e	8b 4d f0	 mov	 ecx, DWORD PTR _this$[ebp]
  00091	81 c1 f4 00 00
	00		 add	 ecx, 244		; 000000f4H
  00097	e8 00 00 00 00	 call	 ??0SetBaseStatic@@QAE@XZ ; SetBaseStatic::SetBaseStatic
  0009c	c6 45 fc 02	 mov	 BYTE PTR __$EHRec$[ebp+8], 2
  000a0	8b 4d f0	 mov	 ecx, DWORD PTR _this$[ebp]
  000a3	81 c1 58 01 00
	00		 add	 ecx, 344		; 00000158H
  000a9	8b f4		 mov	 esi, esp
  000ab	ff 15 00 00 00
	00		 call	 DWORD PTR __imp_??0?$CStringT@DV?$StrTraitMFC_DLL@DV?$ChTraitsCRT@D@ATL@@@@@ATL@@QAE@XZ
  000b1	3b f4		 cmp	 esi, esp
  000b3	e8 00 00 00 00	 call	 __RTC_CheckEsp
  000b8	c6 45 fc 03	 mov	 BYTE PTR __$EHRec$[ebp+8], 3
  000bc	8b 4d f0	 mov	 ecx, DWORD PTR _this$[ebp]
  000bf	81 c1 5c 01 00
	00		 add	 ecx, 348		; 0000015cH
  000c5	e8 00 00 00 00	 call	 ??0SetBaseEdit@@QAE@XZ	; SetBaseEdit::SetBaseEdit
  000ca	c6 45 fc 04	 mov	 BYTE PTR __$EHRec$[ebp+8], 4
  000ce	8b 4d f0	 mov	 ecx, DWORD PTR _this$[ebp]
  000d1	81 c1 b0 01 00
	00		 add	 ecx, 432		; 000001b0H
  000d7	8b f4		 mov	 esi, esp
  000d9	ff 15 00 00 00
	00		 call	 DWORD PTR __imp_??0?$CStringT@DV?$StrTraitMFC_DLL@DV?$ChTraitsCRT@D@ATL@@@@@ATL@@QAE@XZ
  000df	3b f4		 cmp	 esi, esp
  000e1	e8 00 00 00 00	 call	 __RTC_CheckEsp
  000e6	c6 45 fc 05	 mov	 BYTE PTR __$EHRec$[ebp+8], 5
  000ea	8b 4d f0	 mov	 ecx, DWORD PTR _this$[ebp]
  000ed	81 c1 b4 01 00
	00		 add	 ecx, 436		; 000001b4H
  000f3	e8 00 00 00 00	 call	 ??0SetBaseEdit@@QAE@XZ	; SetBaseEdit::SetBaseEdit
  000f8	c6 45 fc 06	 mov	 BYTE PTR __$EHRec$[ebp+8], 6

; 13   : 	CDialog( CDownDialog::IDD, pParent );

  000fc	8b 4d 08	 mov	 ecx, DWORD PTR _pParent$[ebp]
  000ff	51		 push	 ecx
  00100	68 cb 00 00 00	 push	 203			; 000000cbH
  00105	8d 8d 7c ff ff
	ff		 lea	 ecx, DWORD PTR $T188455[ebp]
  0010b	e8 00 00 00 00	 call	 ??0CDialog@@QAE@IPAVCWnd@@@Z ; CDialog::CDialog
  00110	8d 8d 7c ff ff
	ff		 lea	 ecx, DWORD PTR $T188455[ebp]
  00116	e8 00 00 00 00	 call	 ??1CDialog@@UAE@XZ	; CDialog::~CDialog

; 14   : 
; 15   : }

  0011b	c7 45 fc ff ff
	ff ff		 mov	 DWORD PTR __$EHRec$[ebp+8], -1
  00122	8b 45 f0	 mov	 eax, DWORD PTR _this$[ebp]
  00125	8b 4d f4	 mov	 ecx, DWORD PTR __$EHRec$[ebp]
  00128	64 89 0d 00 00
	00 00		 mov	 DWORD PTR fs:__except_list, ecx
  0012f	5f		 pop	 edi
  00130	5e		 pop	 esi
  00131	81 c4 84 00 00
	00		 add	 esp, 132		; 00000084H
  00137	3b ec		 cmp	 ebp, esp
  00139	e8 00 00 00 00	 call	 __RTC_CheckEsp
  0013e	8b e5		 mov	 esp, ebp
  00140	5d		 pop	 ebp
  00141	c2 04 00	 ret	 4
_TEXT	ENDS
text$x	SEGMENT
$L188456:
  00000	8b 4d f0	 mov	 ecx, DWORD PTR _this$[ebp]
  00003	e9 00 00 00 00	 jmp	 ??1BaseDialog@@UAE@XZ
$L188457:
  00008	8b 4d f0	 mov	 ecx, DWORD PTR _this$[ebp]
  0000b	81 c1 90 00 00
	00		 add	 ecx, 144		; 00000090H
  00011	e9 00 00 00 00	 jmp	 ??1SetBaseStatic@@UAE@XZ ; SetBaseStatic::~SetBaseStatic
$L188458:
  00016	8b 4d f0	 mov	 ecx, DWORD PTR _this$[ebp]
  00019	81 c1 f4 00 00
	00		 add	 ecx, 244		; 000000f4H
  0001f	e9 00 00 00 00	 jmp	 ??1SetBaseStatic@@UAE@XZ ; SetBaseStatic::~SetBaseStatic
$L188459:
  00024	8b 4d f0	 mov	 ecx, DWORD PTR _this$[ebp]
  00027	81 c1 58 01 00
	00		 add	 ecx, 344		; 00000158H
  0002d	8b f4		 mov	 esi, esp
  0002f	ff 15 00 00 00
	00		 call	 DWORD PTR __imp_??1?$CStringT@DV?$StrTraitMFC_DLL@DV?$ChTraitsCRT@D@ATL@@@@@ATL@@QAE@XZ
  00035	3b f4		 cmp	 esi, esp
  00037	e9 00 00 00 00	 jmp	 __RTC_CheckEsp
$L188460:
  0003c	8b 4d f0	 mov	 ecx, DWORD PTR _this$[ebp]
  0003f	81 c1 5c 01 00
	00		 add	 ecx, 348		; 0000015cH
  00045	e9 00 00 00 00	 jmp	 ??1SetBaseEdit@@UAE@XZ	; SetBaseEdit::~SetBaseEdit
$L188461:
  0004a	8b 4d f0	 mov	 ecx, DWORD PTR _this$[ebp]
  0004d	81 c1 b0 01 00
	00		 add	 ecx, 432		; 000001b0H
  00053	8b f4		 mov	 esi, esp
  00055	ff 15 00 00 00
	00		 call	 DWORD PTR __imp_??1?$CStringT@DV?$StrTraitMFC_DLL@DV?$ChTraitsCRT@D@ATL@@@@@ATL@@QAE@XZ
  0005b	3b f4		 cmp	 esi, esp
  0005d	e9 00 00 00 00	 jmp	 __RTC_CheckEsp
$L188462:
  00062	8b 4d f0	 mov	 ecx, DWORD PTR _this$[ebp]
  00065	81 c1 b4 01 00
	00		 add	 ecx, 436		; 000001b4H
  0006b	e9 00 00 00 00	 jmp	 ??1SetBaseEdit@@UAE@XZ	; SetBaseEdit::~SetBaseEdit
__ehhandler$??0CDownDialog@@QAE@PAVCWnd@@@Z:
  00070	b8 00 00 00 00	 mov	 eax, OFFSET FLAT:$T188467
  00075	e9 00 00 00 00	 jmp	 ___CxxFrameHandler
text$x	ENDS
??0CDownDialog@@QAE@PAVCWnd@@@Z ENDP			; CDownDialog::CDownDialog
PUBLIC	??1CDownDialog@@UAE@XZ				; CDownDialog::~CDownDialog
EXTRN	??3CObject@@SGXPAX@Z:NEAR			; CObject::operator delete
; Function compile flags: /Odt /RTCsu
;	COMDAT ??_GCDownDialog@@UAEPAXI@Z
_TEXT	SEGMENT
_this$ = -4						; size = 4
___flags$ = 8						; size = 4
??_GCDownDialog@@UAEPAXI@Z PROC NEAR			; CDownDialog::`scalar deleting destructor', COMDAT
; _this$ = ecx
  00000	55		 push	 ebp
  00001	8b ec		 mov	 ebp, esp
  00003	51		 push	 ecx
  00004	c7 45 fc cc cc
	cc cc		 mov	 DWORD PTR [ebp-4], -858993460 ; ccccccccH
  0000b	89 4d fc	 mov	 DWORD PTR _this$[ebp], ecx
  0000e	8b 4d fc	 mov	 ecx, DWORD PTR _this$[ebp]
  00011	e8 00 00 00 00	 call	 ??1CDownDialog@@UAE@XZ	; CDownDialog::~CDownDialog
  00016	8b 45 08	 mov	 eax, DWORD PTR ___flags$[ebp]
  00019	83 e0 01	 and	 eax, 1
  0001c	74 09		 je	 SHORT $L187794
  0001e	8b 4d fc	 mov	 ecx, DWORD PTR _this$[ebp]
  00021	51		 push	 ecx
  00022	e8 00 00 00 00	 call	 ??3CObject@@SGXPAX@Z	; CObject::operator delete
$L187794:
  00027	8b 45 fc	 mov	 eax, DWORD PTR _this$[ebp]
  0002a	83 c4 04	 add	 esp, 4
  0002d	3b ec		 cmp	 ebp, esp
  0002f	e8 00 00 00 00	 call	 __RTC_CheckEsp
  00034	8b e5		 mov	 esp, ebp
  00036	5d		 pop	 ebp
  00037	c2 04 00	 ret	 4
??_GCDownDialog@@UAEPAXI@Z ENDP				; CDownDialog::`scalar deleting destructor'
_TEXT	ENDS
PUBLIC	??_R4BaseDialog@@6B@				; BaseDialog::`RTTI Complete Object Locator'
PUBLIC	??_R3BaseDialog@@8				; BaseDialog::`RTTI Class Hierarchy Descriptor'
PUBLIC	??_R2BaseDialog@@8				; BaseDialog::`RTTI Base Class Array'
PUBLIC	??_7BaseDialog@@6B@				; BaseDialog::`vftable'
PUBLIC	??_GBaseDialog@@UAEPAXI@Z			; BaseDialog::`scalar deleting destructor'
EXTRN	__purecall:NEAR
EXTRN	__imp_??0?$basic_string@DU?$char_traits@D@std@@V?$allocator@D@2@@std@@QAE@XZ:NEAR
EXTRN	?DoDataExchange@CWnd@@MAEXPAVCDataExchange@@@Z:NEAR ; CWnd::DoDataExchange
EXTRN	?GetRuntimeClass@BaseDialog@@UBEPAUCRuntimeClass@@XZ:NEAR ; BaseDialog::GetRuntimeClass
EXTRN	?GetMessageMap@BaseDialog@@MBEPBUAFX_MSGMAP@@XZ:NEAR ; BaseDialog::GetMessageMap
EXTRN	??_EBaseDialog@@UAEPAXI@Z:NEAR			; BaseDialog::`vector deleting destructor'
EXTRN	??0CDialog@@QAE@XZ:NEAR				; CDialog::CDialog
;	COMDAT xdata$x
xdata$x	SEGMENT
$T188480 DD	0ffffffffH
	DD	FLAT:$L188475
$T188478 DD	019930520H
	DD	01H
	DD	FLAT:$T188480
	DD	2 DUP(00H)
	DD	2 DUP(00H)
xdata$x	ENDS
;	COMDAT ??_7BaseDialog@@6B@
CONST	SEGMENT
??_7BaseDialog@@6B@ DD FLAT:??_R4BaseDialog@@6B@	; BaseDialog::`vftable'
	DD	FLAT:?GetRuntimeClass@BaseDialog@@UBEPAUCRuntimeClass@@XZ
	DD	FLAT:??_EBaseDialog@@UAEPAXI@Z
	DD	FLAT:?Serialize@CObject@@UAEXAAVCArchive@@@Z
	DD	FLAT:?AssertValid@CDialog@@UBEXXZ
	DD	FLAT:?Dump@CDialog@@UBEXAAVCDumpContext@@@Z
	DD	FLAT:?OnCmdMsg@CDialog@@UAEHIHPAXPAUAFX_CMDHANDLERINFO@@@Z
	DD	FLAT:?OnFinalRelease@CWnd@@UAEXXZ
	DD	FLAT:?IsInvokeAllowed@CCmdTarget@@UAEHJ@Z
	DD	FLAT:?GetDispatchIID@CCmdTarget@@UAEHPAU_GUID@@@Z
	DD	FLAT:?GetTypeInfoCount@CCmdTarget@@UAEIXZ
	DD	FLAT:?GetTypeLibCache@CCmdTarget@@UAEPAVCTypeLibCache@@XZ
	DD	FLAT:?GetTypeLib@CCmdTarget@@UAEJKPAPAUITypeLib@@@Z
	DD	FLAT:?GetMessageMap@BaseDialog@@MBEPBUAFX_MSGMAP@@XZ
	DD	FLAT:?GetCommandMap@CCmdTarget@@MBEPBUAFX_OLECMDMAP@@XZ
	DD	FLAT:?GetDispatchMap@CCmdTarget@@MBEPBUAFX_DISPMAP@@XZ
	DD	FLAT:?GetConnectionMap@CCmdTarget@@MBEPBUAFX_CONNECTIONMAP@@XZ
	DD	FLAT:?GetInterfaceMap@CWnd@@MBEPBUAFX_INTERFACEMAP@@XZ
	DD	FLAT:?GetEventSinkMap@CCmdTarget@@MBEPBUAFX_EVENTSINKMAP@@XZ
	DD	FLAT:?OnCreateAggregates@CCmdTarget@@UAEHXZ
	DD	FLAT:?GetInterfaceHook@CCmdTarget@@UAEPAUIUnknown@@PBX@Z
	DD	FLAT:?GetExtraConnectionPoints@CCmdTarget@@MAEHPAVCPtrArray@@@Z
	DD	FLAT:?GetConnectionHook@CCmdTarget@@MAEPAUIConnectionPoint@@ABU_GUID@@@Z
	DD	FLAT:?PreSubclassWindow@CWnd@@UAEXXZ
	DD	FLAT:?Create@CWnd@@UAEHPBD0KABUtagRECT@@PAV1@IPAUCCreateContext@@@Z
	DD	FLAT:?CreateEx@CWnd@@UAEHKPBD0KABUtagRECT@@PAV1@IPAX@Z
	DD	FLAT:?CreateEx@CWnd@@UAEHKPBD0KHHHHPAUHWND__@@PAUHMENU__@@PAX@Z
	DD	FLAT:?DestroyWindow@CWnd@@UAEHXZ
	DD	FLAT:?PreCreateWindow@CWnd@@UAEHAAUtagCREATESTRUCTA@@@Z
	DD	FLAT:?CalcWindowRect@CWnd@@UAEXPAUtagRECT@@I@Z
	DD	FLAT:?OnToolHitTest@CWnd@@UBEHVCPoint@@PAUtagTOOLINFOA@@@Z
	DD	FLAT:?GetScrollBarCtrl@CWnd@@UBEPAVCScrollBar@@H@Z
	DD	FLAT:?WinHelpA@CWnd@@UAEXKI@Z
	DD	FLAT:?HtmlHelpA@CWnd@@UAEXKI@Z
	DD	FLAT:?WinHelpInternal@CWnd@@UAEXKI@Z
	DD	FLAT:?ContinueModal@CWnd@@UAEHXZ
	DD	FLAT:?EndModalLoop@CWnd@@UAEXH@Z
	DD	FLAT:?EnsureStdObj@CWnd@@UAEJXZ
	DD	FLAT:?get_accParent@CWnd@@UAEJPAPAUIDispatch@@@Z
	DD	FLAT:?get_accChildCount@CWnd@@UAEJPAJ@Z
	DD	FLAT:?get_accChild@CWnd@@UAEJUtagVARIANT@@PAPAUIDispatch@@@Z
	DD	FLAT:?get_accName@CWnd@@UAEJUtagVARIANT@@PAPA_W@Z
	DD	FLAT:?get_accValue@CWnd@@UAEJUtagVARIANT@@PAPA_W@Z
	DD	FLAT:?get_accDescription@CWnd@@UAEJUtagVARIANT@@PAPA_W@Z
	DD	FLAT:?get_accRole@CWnd@@UAEJUtagVARIANT@@PAU2@@Z
	DD	FLAT:?get_accState@CWnd@@UAEJUtagVARIANT@@PAU2@@Z
	DD	FLAT:?get_accHelp@CWnd@@UAEJUtagVARIANT@@PAPA_W@Z
	DD	FLAT:?get_accHelpTopic@CWnd@@UAEJPAPA_WUtagVARIANT@@PAJ@Z
	DD	FLAT:?get_accKeyboardShortcut@CWnd@@UAEJUtagVARIANT@@PAPA_W@Z
	DD	FLAT:?get_accFocus@CWnd@@UAEJPAUtagVARIANT@@@Z
	DD	FLAT:?get_accSelection@CWnd@@UAEJPAUtagVARIANT@@@Z
	DD	FLAT:?get_accDefaultAction@CWnd@@UAEJUtagVARIANT@@PAPA_W@Z
	DD	FLAT:?accSelect@CWnd@@UAEJJUtagVARIANT@@@Z
	DD	FLAT:?accLocation@CWnd@@UAEJPAJ000UtagVARIANT@@@Z
	DD	FLAT:?accNavigate@CWnd@@UAEJJUtagVARIANT@@PAU2@@Z
	DD	FLAT:?accHitTest@CWnd@@UAEJJJPAUtagVARIANT@@@Z
	DD	FLAT:?accDoDefaultAction@CWnd@@UAEJUtagVARIANT@@@Z
	DD	FLAT:?put_accName@CWnd@@UAEJUtagVARIANT@@PA_W@Z
	DD	FLAT:?put_accValue@CWnd@@UAEJUtagVARIANT@@PA_W@Z
	DD	FLAT:?SetProxy@CWnd@@UAEJPAUIAccessibleProxy@@@Z
	DD	FLAT:?CreateAccessibleProxy@CWnd@@UAEJIJPAJ@Z
	DD	FLAT:?OnCommand@CWnd@@MAEHIJ@Z
	DD	FLAT:?OnNotify@CWnd@@MAEHIJPAJ@Z
	DD	FLAT:?GetSuperWndProcAddr@CWnd@@MAEPAP6GJPAUHWND__@@IIJ@ZXZ
	DD	FLAT:?DoDataExchange@CWnd@@MAEXPAVCDataExchange@@@Z
	DD	FLAT:?BeginModalState@CWnd@@UAEXXZ
	DD	FLAT:?EndModalState@CWnd@@UAEXXZ
	DD	FLAT:?PreTranslateMessage@CDialog@@UAEHPAUtagMSG@@@Z
	DD	FLAT:?OnAmbientProperty@CWnd@@UAEHPAVCOleControlSite@@JPAUtagVARIANT@@@Z
	DD	FLAT:?WindowProc@CWnd@@MAEJIIJ@Z
	DD	FLAT:?OnWndMsg@CWnd@@MAEHIIJPAJ@Z
	DD	FLAT:?DefWindowProcA@CWnd@@MAEJIIJ@Z
	DD	FLAT:?PostNcDestroy@CWnd@@MAEXXZ
	DD	FLAT:?OnChildNotify@CWnd@@MAEHIIJPAJ@Z
	DD	FLAT:?CheckAutoCenter@CDialog@@UAEHXZ
	DD	FLAT:?IsFrameWnd@CWnd@@UBEHXZ
	DD	FLAT:?CreateControlContainer@CWnd@@MAEHPAPAVCOleControlContainer@@@Z
	DD	FLAT:?CreateControlSite@CWnd@@MAEHPAVCOleControlContainer@@PAPAVCOleControlSite@@IABU_GUID@@@Z
	DD	FLAT:?SetOccDialogInfo@CDialog@@MAEHPAU_AFX_OCC_DIALOG_INFO@@@Z
	DD	FLAT:?Create@CDialog@@UAEHIPAVCWnd@@@Z
	DD	FLAT:?Create@CDialog@@UAEHPBDPAVCWnd@@@Z
	DD	FLAT:?CreateIndirect@CDialog@@UAEHPAXPAVCWnd@@@Z
	DD	FLAT:?CreateIndirect@CDialog@@UAEHPBUDLGTEMPLATE@@PAVCWnd@@PAX@Z
	DD	FLAT:?DoModal@CDialog@@UAEHXZ
	DD	FLAT:?OnInitDialog@BaseDialog@@MAEHXZ
	DD	FLAT:?OnSetFont@CDialog@@UAEXPAVCFont@@@Z
	DD	FLAT:?OnOK@BaseDialog@@MAEXXZ
	DD	FLAT:?OnCancel@BaseDialog@@MAEXXZ
	DD	FLAT:?PreInitDialog@CDialog@@MAEXXZ
	DD	FLAT:?SthChanged@BaseDialog@@UAEXXZ
	DD	FLAT:__purecall
	DD	FLAT:__purecall
	DD	FLAT:__purecall
	DD	FLAT:__purecall
CONST	ENDS
;	COMDAT ??_R4BaseDialog@@6B@
rdata$r	SEGMENT
??_R4BaseDialog@@6B@ DD 00H				; BaseDialog::`RTTI Complete Object Locator'
	DD	00H
	DD	00H
	DD	FLAT:??_R0?AVBaseDialog@@@8
	DD	FLAT:??_R3BaseDialog@@8
rdata$r	ENDS
;	COMDAT ??_R3BaseDialog@@8
rdata$r	SEGMENT
??_R3BaseDialog@@8 DD 00H				; BaseDialog::`RTTI Class Hierarchy Descriptor'
	DD	00H
	DD	05H
	DD	FLAT:??_R2BaseDialog@@8
rdata$r	ENDS
;	COMDAT ??_R2BaseDialog@@8
rdata$r	SEGMENT
??_R2BaseDialog@@8 DD FLAT:??_R1A@?0A@A@BaseDialog@@8	; BaseDialog::`RTTI Base Class Array'
	DD	FLAT:??_R1A@?0A@A@CDialog@@8
	DD	FLAT:??_R1A@?0A@A@CWnd@@8
	DD	FLAT:??_R1A@?0A@A@CCmdTarget@@8
	DD	FLAT:??_R1A@?0A@A@CObject@@8
; Function compile flags: /Odt /RTCsu
rdata$r	ENDS
;	COMDAT ??0BaseDialog@@QAE@XZ
_TEXT	SEGMENT
_this$ = -16						; size = 4
__$EHRec$ = -12						; size = 12
??0BaseDialog@@QAE@XZ PROC NEAR				; BaseDialog::BaseDialog, COMDAT
; _this$ = ecx
  00000	55		 push	 ebp
  00001	8b ec		 mov	 ebp, esp
  00003	6a ff		 push	 -1
  00005	68 00 00 00 00	 push	 __ehhandler$??0BaseDialog@@QAE@XZ
  0000a	64 a1 00 00 00
	00		 mov	 eax, DWORD PTR fs:__except_list
  00010	50		 push	 eax
  00011	64 89 25 00 00
	00 00		 mov	 DWORD PTR fs:__except_list, esp
  00018	51		 push	 ecx
  00019	56		 push	 esi
  0001a	c7 45 f0 cc cc
	cc cc		 mov	 DWORD PTR [ebp-16], -858993460 ; ccccccccH
  00021	89 4d f0	 mov	 DWORD PTR _this$[ebp], ecx
  00024	8b 4d f0	 mov	 ecx, DWORD PTR _this$[ebp]
  00027	e8 00 00 00 00	 call	 ??0CDialog@@QAE@XZ	; CDialog::CDialog
  0002c	c7 45 fc 00 00
	00 00		 mov	 DWORD PTR __$EHRec$[ebp+8], 0
  00033	8b 45 f0	 mov	 eax, DWORD PTR _this$[ebp]
  00036	c7 00 00 00 00
	00		 mov	 DWORD PTR [eax], OFFSET FLAT:??_7BaseDialog@@6B@
  0003c	8b 4d f0	 mov	 ecx, DWORD PTR _this$[ebp]
  0003f	83 c1 74	 add	 ecx, 116		; 00000074H
  00042	8b f4		 mov	 esi, esp
  00044	ff 15 00 00 00
	00		 call	 DWORD PTR __imp_??0?$basic_string@DU?$char_traits@D@std@@V?$allocator@D@2@@std@@QAE@XZ
  0004a	3b f4		 cmp	 esi, esp
  0004c	e8 00 00 00 00	 call	 __RTC_CheckEsp
  00051	c7 45 fc ff ff
	ff ff		 mov	 DWORD PTR __$EHRec$[ebp+8], -1
  00058	8b 45 f0	 mov	 eax, DWORD PTR _this$[ebp]
  0005b	8b 4d f4	 mov	 ecx, DWORD PTR __$EHRec$[ebp]
  0005e	64 89 0d 00 00
	00 00		 mov	 DWORD PTR fs:__except_list, ecx
  00065	5e		 pop	 esi
  00066	83 c4 10	 add	 esp, 16			; 00000010H
  00069	3b ec		 cmp	 ebp, esp
  0006b	e8 00 00 00 00	 call	 __RTC_CheckEsp
  00070	8b e5		 mov	 esp, ebp
  00072	5d		 pop	 ebp
  00073	c3		 ret	 0
_TEXT	ENDS
;	COMDAT text$x
text$x	SEGMENT
$L188475:
  00000	8b 4d f0	 mov	 ecx, DWORD PTR _this$[ebp]
  00003	e9 00 00 00 00	 jmp	 ??1CDialog@@UAE@XZ	; CDialog::~CDialog
__ehhandler$??0BaseDialog@@QAE@XZ:
  00008	b8 00 00 00 00	 mov	 eax, OFFSET FLAT:$T188478
  0000d	e9 00 00 00 00	 jmp	 ___CxxFrameHandler
text$x	ENDS
??0BaseDialog@@QAE@XZ ENDP				; BaseDialog::BaseDialog
EXTRN	__imp_??1?$basic_string@DU?$char_traits@D@std@@V?$allocator@D@2@@std@@QAE@XZ:NEAR
;	COMDAT xdata$x
xdata$x	SEGMENT
$T188489 DD	0ffffffffH
	DD	FLAT:$L188484
$T188487 DD	019930520H
	DD	01H
	DD	FLAT:$T188489
	DD	2 DUP(00H)
	DD	2 DUP(00H)
; Function compile flags: /Odt /RTCsu
xdata$x	ENDS
;	COMDAT ??1BaseDialog@@UAE@XZ
_TEXT	SEGMENT
_this$ = -16						; size = 4
__$EHRec$ = -12						; size = 12
??1BaseDialog@@UAE@XZ PROC NEAR				; BaseDialog::~BaseDialog, COMDAT
; _this$ = ecx
  00000	55		 push	 ebp
  00001	8b ec		 mov	 ebp, esp
  00003	6a ff		 push	 -1
  00005	68 00 00 00 00	 push	 __ehhandler$??1BaseDialog@@UAE@XZ
  0000a	64 a1 00 00 00
	00		 mov	 eax, DWORD PTR fs:__except_list
  00010	50		 push	 eax
  00011	64 89 25 00 00
	00 00		 mov	 DWORD PTR fs:__except_list, esp
  00018	51		 push	 ecx
  00019	56		 push	 esi
  0001a	c7 45 f0 cc cc
	cc cc		 mov	 DWORD PTR [ebp-16], -858993460 ; ccccccccH
  00021	89 4d f0	 mov	 DWORD PTR _this$[ebp], ecx
  00024	c7 45 fc 00 00
	00 00		 mov	 DWORD PTR __$EHRec$[ebp+8], 0
  0002b	8b 4d f0	 mov	 ecx, DWORD PTR _this$[ebp]
  0002e	83 c1 74	 add	 ecx, 116		; 00000074H
  00031	8b f4		 mov	 esi, esp
  00033	ff 15 00 00 00
	00		 call	 DWORD PTR __imp_??1?$basic_string@DU?$char_traits@D@std@@V?$allocator@D@2@@std@@QAE@XZ
  00039	3b f4		 cmp	 esi, esp
  0003b	e8 00 00 00 00	 call	 __RTC_CheckEsp
  00040	c7 45 fc ff ff
	ff ff		 mov	 DWORD PTR __$EHRec$[ebp+8], -1
  00047	8b 4d f0	 mov	 ecx, DWORD PTR _this$[ebp]
  0004a	e8 00 00 00 00	 call	 ??1CDialog@@UAE@XZ	; CDialog::~CDialog
  0004f	8b 4d f4	 mov	 ecx, DWORD PTR __$EHRec$[ebp]
  00052	64 89 0d 00 00
	00 00		 mov	 DWORD PTR fs:__except_list, ecx
  00059	5e		 pop	 esi
  0005a	83 c4 10	 add	 esp, 16			; 00000010H
  0005d	3b ec		 cmp	 ebp, esp
  0005f	e8 00 00 00 00	 call	 __RTC_CheckEsp
  00064	8b e5		 mov	 esp, ebp
  00066	5d		 pop	 ebp
  00067	c3		 ret	 0
_TEXT	ENDS
;	COMDAT text$x
text$x	SEGMENT
$L188484:
  00000	8b 4d f0	 mov	 ecx, DWORD PTR _this$[ebp]
  00003	e9 00 00 00 00	 jmp	 ??1CDialog@@UAE@XZ	; CDialog::~CDialog
__ehhandler$??1BaseDialog@@UAE@XZ:
  00008	b8 00 00 00 00	 mov	 eax, OFFSET FLAT:$T188487
  0000d	e9 00 00 00 00	 jmp	 ___CxxFrameHandler
text$x	ENDS
??1BaseDialog@@UAE@XZ ENDP				; BaseDialog::~BaseDialog
; Function compile flags: /Odt /RTCsu
;	COMDAT ??_GBaseDialog@@UAEPAXI@Z
_TEXT	SEGMENT
_this$ = -4						; size = 4
___flags$ = 8						; size = 4
??_GBaseDialog@@UAEPAXI@Z PROC NEAR			; BaseDialog::`scalar deleting destructor', COMDAT
; _this$ = ecx
  00000	55		 push	 ebp
  00001	8b ec		 mov	 ebp, esp
  00003	51		 push	 ecx
  00004	c7 45 fc cc cc
	cc cc		 mov	 DWORD PTR [ebp-4], -858993460 ; ccccccccH
  0000b	89 4d fc	 mov	 DWORD PTR _this$[ebp], ecx
  0000e	8b 4d fc	 mov	 ecx, DWORD PTR _this$[ebp]
  00011	e8 00 00 00 00	 call	 ??1BaseDialog@@UAE@XZ
  00016	8b 45 08	 mov	 eax, DWORD PTR ___flags$[ebp]
  00019	83 e0 01	 and	 eax, 1
  0001c	74 09		 je	 SHORT $L187802
  0001e	8b 4d fc	 mov	 ecx, DWORD PTR _this$[ebp]
  00021	51		 push	 ecx
  00022	e8 00 00 00 00	 call	 ??3CObject@@SGXPAX@Z	; CObject::operator delete
$L187802:
  00027	8b 45 fc	 mov	 eax, DWORD PTR _this$[ebp]
  0002a	83 c4 04	 add	 esp, 4
  0002d	3b ec		 cmp	 ebp, esp
  0002f	e8 00 00 00 00	 call	 __RTC_CheckEsp
  00034	8b e5		 mov	 esp, ebp
  00036	5d		 pop	 ebp
  00037	c2 04 00	 ret	 4
??_GBaseDialog@@UAEPAXI@Z ENDP				; BaseDialog::`scalar deleting destructor'
_TEXT	ENDS
xdata$x	SEGMENT
$T188504 DD	0ffffffffH
	DD	FLAT:$L188494
	DD	00H
	DD	FLAT:$L188495
	DD	01H
	DD	FLAT:$L188496
	DD	02H
	DD	FLAT:$L188497
	DD	03H
	DD	FLAT:$L188498
	DD	04H
	DD	FLAT:$L188499
$T188502 DD	019930520H
	DD	06H
	DD	FLAT:$T188504
	DD	2 DUP(00H)
	DD	2 DUP(00H)
; Function compile flags: /Odt /RTCsu
xdata$x	ENDS
_TEXT	SEGMENT
_this$ = -16						; size = 4
__$EHRec$ = -12						; size = 12
??1CDownDialog@@UAE@XZ PROC NEAR			; CDownDialog::~CDownDialog
; _this$ = ecx

; 18   : {

  00150	55		 push	 ebp
  00151	8b ec		 mov	 ebp, esp
  00153	6a ff		 push	 -1
  00155	68 00 00 00 00	 push	 __ehhandler$??1CDownDialog@@UAE@XZ
  0015a	64 a1 00 00 00
	00		 mov	 eax, DWORD PTR fs:__except_list
  00160	50		 push	 eax
  00161	64 89 25 00 00
	00 00		 mov	 DWORD PTR fs:__except_list, esp
  00168	51		 push	 ecx
  00169	56		 push	 esi
  0016a	c7 45 f0 cc cc
	cc cc		 mov	 DWORD PTR [ebp-16], -858993460 ; ccccccccH
  00171	89 4d f0	 mov	 DWORD PTR _this$[ebp], ecx
  00174	8b 45 f0	 mov	 eax, DWORD PTR _this$[ebp]
  00177	c7 00 00 00 00
	00		 mov	 DWORD PTR [eax], OFFSET FLAT:??_7CDownDialog@@6B@
  0017d	c7 45 fc 05 00
	00 00		 mov	 DWORD PTR __$EHRec$[ebp+8], 5

; 19   : }

  00184	8b 4d f0	 mov	 ecx, DWORD PTR _this$[ebp]
  00187	81 c1 b4 01 00
	00		 add	 ecx, 436		; 000001b4H
  0018d	e8 00 00 00 00	 call	 ??1SetBaseEdit@@UAE@XZ	; SetBaseEdit::~SetBaseEdit
  00192	c6 45 fc 04	 mov	 BYTE PTR __$EHRec$[ebp+8], 4
  00196	8b 4d f0	 mov	 ecx, DWORD PTR _this$[ebp]
  00199	81 c1 b0 01 00
	00		 add	 ecx, 432		; 000001b0H
  0019f	8b f4		 mov	 esi, esp
  001a1	ff 15 00 00 00
	00		 call	 DWORD PTR __imp_??1?$CStringT@DV?$StrTraitMFC_DLL@DV?$ChTraitsCRT@D@ATL@@@@@ATL@@QAE@XZ
  001a7	3b f4		 cmp	 esi, esp
  001a9	e8 00 00 00 00	 call	 __RTC_CheckEsp
  001ae	c6 45 fc 03	 mov	 BYTE PTR __$EHRec$[ebp+8], 3
  001b2	8b 4d f0	 mov	 ecx, DWORD PTR _this$[ebp]
  001b5	81 c1 5c 01 00
	00		 add	 ecx, 348		; 0000015cH
  001bb	e8 00 00 00 00	 call	 ??1SetBaseEdit@@UAE@XZ	; SetBaseEdit::~SetBaseEdit
  001c0	c6 45 fc 02	 mov	 BYTE PTR __$EHRec$[ebp+8], 2
  001c4	8b 4d f0	 mov	 ecx, DWORD PTR _this$[ebp]
  001c7	81 c1 58 01 00
	00		 add	 ecx, 344		; 00000158H
  001cd	8b f4		 mov	 esi, esp
  001cf	ff 15 00 00 00
	00		 call	 DWORD PTR __imp_??1?$CStringT@DV?$StrTraitMFC_DLL@DV?$ChTraitsCRT@D@ATL@@@@@ATL@@QAE@XZ
  001d5	3b f4		 cmp	 esi, esp
  001d7	e8 00 00 00 00	 call	 __RTC_CheckEsp
  001dc	c6 45 fc 01	 mov	 BYTE PTR __$EHRec$[ebp+8], 1
  001e0	8b 4d f0	 mov	 ecx, DWORD PTR _this$[ebp]
  001e3	81 c1 f4 00 00
	00		 add	 ecx, 244		; 000000f4H
  001e9	e8 00 00 00 00	 call	 ??1SetBaseStatic@@UAE@XZ ; SetBaseStatic::~SetBaseStatic
  001ee	c6 45 fc 00	 mov	 BYTE PTR __$EHRec$[ebp+8], 0
  001f2	8b 4d f0	 mov	 ecx, DWORD PTR _this$[ebp]
  001f5	81 c1 90 00 00
	00		 add	 ecx, 144		; 00000090H
  001fb	e8 00 00 00 00	 call	 ??1SetBaseStatic@@UAE@XZ ; SetBaseStatic::~SetBaseStatic
  00200	c7 45 fc ff ff
	ff ff		 mov	 DWORD PTR __$EHRec$[ebp+8], -1
  00207	8b 4d f0	 mov	 ecx, DWORD PTR _this$[ebp]
  0020a	e8 00 00 00 00	 call	 ??1BaseDialog@@UAE@XZ
  0020f	8b 4d f4	 mov	 ecx, DWORD PTR __$EHRec$[ebp]
  00212	64 89 0d 00 00
	00 00		 mov	 DWORD PTR fs:__except_list, ecx
  00219	5e		 pop	 esi
  0021a	83 c4 10	 add	 esp, 16			; 00000010H
  0021d	3b ec		 cmp	 ebp, esp
  0021f	e8 00 00 00 00	 call	 __RTC_CheckEsp
  00224	8b e5		 mov	 esp, ebp
  00226	5d		 pop	 ebp
  00227	c3		 ret	 0
_TEXT	ENDS
text$x	SEGMENT
$L188494:
  0007a	8b 4d f0	 mov	 ecx, DWORD PTR _this$[ebp]
  0007d	e9 00 00 00 00	 jmp	 ??1BaseDialog@@UAE@XZ
$L188495:
  00082	8b 4d f0	 mov	 ecx, DWORD PTR _this$[ebp]
  00085	81 c1 90 00 00
	00		 add	 ecx, 144		; 00000090H
  0008b	e9 00 00 00 00	 jmp	 ??1SetBaseStatic@@UAE@XZ ; SetBaseStatic::~SetBaseStatic
$L188496:
  00090	8b 4d f0	 mov	 ecx, DWORD PTR _this$[ebp]
  00093	81 c1 f4 00 00
	00		 add	 ecx, 244		; 000000f4H
  00099	e9 00 00 00 00	 jmp	 ??1SetBaseStatic@@UAE@XZ ; SetBaseStatic::~SetBaseStatic
$L188497:
  0009e	8b 4d f0	 mov	 ecx, DWORD PTR _this$[ebp]
  000a1	81 c1 58 01 00
	00		 add	 ecx, 344		; 00000158H
  000a7	8b f4		 mov	 esi, esp
  000a9	ff 15 00 00 00
	00		 call	 DWORD PTR __imp_??1?$CStringT@DV?$StrTraitMFC_DLL@DV?$ChTraitsCRT@D@ATL@@@@@ATL@@QAE@XZ
  000af	3b f4		 cmp	 esi, esp
  000b1	e9 00 00 00 00	 jmp	 __RTC_CheckEsp
$L188498:
  000b6	8b 4d f0	 mov	 ecx, DWORD PTR _this$[ebp]
  000b9	81 c1 5c 01 00
	00		 add	 ecx, 348		; 0000015cH
  000bf	e9 00 00 00 00	 jmp	 ??1SetBaseEdit@@UAE@XZ	; SetBaseEdit::~SetBaseEdit
$L188499:
  000c4	8b 4d f0	 mov	 ecx, DWORD PTR _this$[ebp]
  000c7	81 c1 b0 01 00
	00		 add	 ecx, 432		; 000001b0H
  000cd	8b f4		 mov	 esi, esp
  000cf	ff 15 00 00 00
	00		 call	 DWORD PTR __imp_??1?$CStringT@DV?$StrTraitMFC_DLL@DV?$ChTraitsCRT@D@ATL@@@@@ATL@@QAE@XZ
  000d5	3b f4		 cmp	 esi, esp
  000d7	e9 00 00 00 00	 jmp	 __RTC_CheckEsp
__ehhandler$??1CDownDialog@@UAE@XZ:
  000dc	b8 00 00 00 00	 mov	 eax, OFFSET FLAT:$T188502
  000e1	e9 00 00 00 00	 jmp	 ___CxxFrameHandler
text$x	ENDS
??1CDownDialog@@UAE@XZ ENDP				; CDownDialog::~CDownDialog
PUBLIC	?GetThisMessageMap@CDownDialog@@KGPBUAFX_MSGMAP@@XZ ; CDownDialog::GetThisMessageMap
; Function compile flags: /Odt /RTCsu
_TEXT	SEGMENT
?GetThisMessageMap@CDownDialog@@KGPBUAFX_MSGMAP@@XZ PROC NEAR ; CDownDialog::GetThisMessageMap

; 21   : BEGIN_MESSAGE_MAP(CDownDialog, BaseDialog)

  00230	55		 push	 ebp
  00231	8b ec		 mov	 ebp, esp
  00233	b8 00 00 00 00	 mov	 eax, OFFSET FLAT:?messageMap@CDownDialog@@1UAFX_MSGMAP@@B ; CDownDialog::messageMap
  00238	5d		 pop	 ebp
  00239	c3		 ret	 0
?GetThisMessageMap@CDownDialog@@KGPBUAFX_MSGMAP@@XZ ENDP ; CDownDialog::GetThisMessageMap
; Function compile flags: /Odt /RTCsu
_this$ = -4						; size = 4
?GetMessageMap@CDownDialog@@MBEPBUAFX_MSGMAP@@XZ PROC NEAR ; CDownDialog::GetMessageMap
; _this$ = ecx

; 21   : BEGIN_MESSAGE_MAP(CDownDialog, BaseDialog)

  00240	55		 push	 ebp
  00241	8b ec		 mov	 ebp, esp
  00243	51		 push	 ecx
  00244	c7 45 fc cc cc
	cc cc		 mov	 DWORD PTR [ebp-4], -858993460 ; ccccccccH
  0024b	89 4d fc	 mov	 DWORD PTR _this$[ebp], ecx
  0024e	b8 00 00 00 00	 mov	 eax, OFFSET FLAT:?messageMap@CDownDialog@@1UAFX_MSGMAP@@B ; CDownDialog::messageMap
  00253	8b e5		 mov	 esp, ebp
  00255	5d		 pop	 ebp
  00256	c3		 ret	 0
?GetMessageMap@CDownDialog@@MBEPBUAFX_MSGMAP@@XZ ENDP	; CDownDialog::GetMessageMap
_TEXT	ENDS
EXTRN	?DDX_Text@@YGXPAVCDataExchange@@HAAV?$CStringT@DV?$StrTraitMFC_DLL@DV?$ChTraitsCRT@D@ATL@@@@@ATL@@@Z:NEAR ; DDX_Text
EXTRN	?DDX_Control@@YGXPAVCDataExchange@@HAAVCWnd@@@Z:NEAR ; DDX_Control
; Function compile flags: /Odt /RTCsu
_TEXT	SEGMENT
_this$ = -4						; size = 4
_pDX$ = 8						; size = 4
?DoDataExchange@CDownDialog@@MAEXPAVCDataExchange@@@Z PROC NEAR ; CDownDialog::DoDataExchange
; _this$ = ecx

; 27   : {

  00260	55		 push	 ebp
  00261	8b ec		 mov	 ebp, esp
  00263	51		 push	 ecx
  00264	c7 45 fc cc cc
	cc cc		 mov	 DWORD PTR [ebp-4], -858993460 ; ccccccccH
  0026b	89 4d fc	 mov	 DWORD PTR _this$[ebp], ecx

; 28   : 	CDialog::DoDataExchange(pDX);

  0026e	8b 45 08	 mov	 eax, DWORD PTR _pDX$[ebp]
  00271	50		 push	 eax
  00272	8b 4d fc	 mov	 ecx, DWORD PTR _this$[ebp]
  00275	e8 00 00 00 00	 call	 ?DoDataExchange@CWnd@@MAEXPAVCDataExchange@@@Z ; CWnd::DoDataExchange

; 29   : 	
; 30   : 	DDX_Text(pDX, IDC_EDIT_SAVE_PATH, m_strPicSavePath);

  0027a	8b 4d fc	 mov	 ecx, DWORD PTR _this$[ebp]
  0027d	81 c1 b0 01 00
	00		 add	 ecx, 432		; 000001b0H
  00283	51		 push	 ecx
  00284	68 f2 03 00 00	 push	 1010			; 000003f2H
  00289	8b 55 08	 mov	 edx, DWORD PTR _pDX$[ebp]
  0028c	52		 push	 edx
  0028d	e8 00 00 00 00	 call	 ?DDX_Text@@YGXPAVCDataExchange@@HAAV?$CStringT@DV?$StrTraitMFC_DLL@DV?$ChTraitsCRT@D@ATL@@@@@ATL@@@Z ; DDX_Text

; 31   : 	DDX_Control(pDX, IDC_EDIT_SAVE_PATH, m_EditPicSavePath);

  00292	8b 45 fc	 mov	 eax, DWORD PTR _this$[ebp]
  00295	05 b4 01 00 00	 add	 eax, 436		; 000001b4H
  0029a	50		 push	 eax
  0029b	68 f2 03 00 00	 push	 1010			; 000003f2H
  002a0	8b 4d 08	 mov	 ecx, DWORD PTR _pDX$[ebp]
  002a3	51		 push	 ecx
  002a4	e8 00 00 00 00	 call	 ?DDX_Control@@YGXPAVCDataExchange@@HAAVCWnd@@@Z ; DDX_Control

; 32   : 
; 33   : 	DDX_Text(pDX, IDC_EDIT1, m_strSwfPath);

  002a9	8b 55 fc	 mov	 edx, DWORD PTR _this$[ebp]
  002ac	81 c2 58 01 00
	00		 add	 edx, 344		; 00000158H
  002b2	52		 push	 edx
  002b3	68 e9 03 00 00	 push	 1001			; 000003e9H
  002b8	8b 45 08	 mov	 eax, DWORD PTR _pDX$[ebp]
  002bb	50		 push	 eax
  002bc	e8 00 00 00 00	 call	 ?DDX_Text@@YGXPAVCDataExchange@@HAAV?$CStringT@DV?$StrTraitMFC_DLL@DV?$ChTraitsCRT@D@ATL@@@@@ATL@@@Z ; DDX_Text

; 34   : 	DDX_Control(pDX, IDC_EDIT1, m_EditSwfPath);

  002c1	8b 4d fc	 mov	 ecx, DWORD PTR _this$[ebp]
  002c4	81 c1 5c 01 00
	00		 add	 ecx, 348		; 0000015cH
  002ca	51		 push	 ecx
  002cb	68 e9 03 00 00	 push	 1001			; 000003e9H
  002d0	8b 55 08	 mov	 edx, DWORD PTR _pDX$[ebp]
  002d3	52		 push	 edx
  002d4	e8 00 00 00 00	 call	 ?DDX_Control@@YGXPAVCDataExchange@@HAAVCWnd@@@Z ; DDX_Control

; 35   : 
; 36   : 	DDX_Control(pDX, IDC_STATIC1, m_static1);

  002d9	8b 45 fc	 mov	 eax, DWORD PTR _this$[ebp]
  002dc	05 90 00 00 00	 add	 eax, 144		; 00000090H
  002e1	50		 push	 eax
  002e2	68 96 00 00 00	 push	 150			; 00000096H
  002e7	8b 4d 08	 mov	 ecx, DWORD PTR _pDX$[ebp]
  002ea	51		 push	 ecx
  002eb	e8 00 00 00 00	 call	 ?DDX_Control@@YGXPAVCDataExchange@@HAAVCWnd@@@Z ; DDX_Control

; 37   : 	DDX_Control(pDX, IDC_STATIC_PIC_SAVE_PATH, m_staticPicSavePath);

  002f0	8b 55 fc	 mov	 edx, DWORD PTR _this$[ebp]
  002f3	81 c2 f4 00 00
	00		 add	 edx, 244		; 000000f4H
  002f9	52		 push	 edx
  002fa	68 f4 03 00 00	 push	 1012			; 000003f4H
  002ff	8b 45 08	 mov	 eax, DWORD PTR _pDX$[ebp]
  00302	50		 push	 eax
  00303	e8 00 00 00 00	 call	 ?DDX_Control@@YGXPAVCDataExchange@@HAAVCWnd@@@Z ; DDX_Control

; 38   : }

  00308	83 c4 04	 add	 esp, 4
  0030b	3b ec		 cmp	 ebp, esp
  0030d	e8 00 00 00 00	 call	 __RTC_CheckEsp
  00312	8b e5		 mov	 esp, ebp
  00314	5d		 pop	 ebp
  00315	c2 04 00	 ret	 4
?DoDataExchange@CDownDialog@@MAEXPAVCDataExchange@@@Z ENDP ; CDownDialog::DoDataExchange
_TEXT	ENDS
EXTRN	___security_cookie:DWORD
EXTRN	@_RTC_CheckStackVars@8:NEAR
EXTRN	@__security_check_cookie@4:NEAR
EXTRN	?AfxGetUserConfig@@YAPAVAfxUserConfig@@XZ:NEAR	; AfxGetUserConfig
EXTRN	__imp_??0?$basic_string@DU?$char_traits@D@std@@V?$allocator@D@2@@std@@QAE@PBD@Z:NEAR
EXTRN	?SetConfigStringValue@AfxUserConfig@@QAEXABV?$basic_string@DU?$char_traits@D@std@@V?$allocator@D@2@@std@@00_N@Z:NEAR ; AfxUserConfig::SetConfigStringValue
EXTRN	__imp_??B?$CSimpleStringT@D$00@ATL@@QBEPBDXZ:NEAR
EXTRN	__imp_?length@?$basic_string@DU?$char_traits@D@std@@V?$allocator@D@2@@std@@QBEIXZ:NEAR
EXTRN	__imp_??0?$CStringT@DV?$StrTraitMFC_DLL@DV?$ChTraitsCRT@D@ATL@@@@@ATL@@QAE@ABV01@@Z:NEAR
EXTRN	?MakeDir@YL_DirInfo@@SA_NABV?$basic_string@DU?$char_traits@D@std@@V?$allocator@D@2@@std@@@Z:NEAR ; YL_DirInfo::MakeDir
EXTRN	?MessageBoxA@CWnd@@QAEHPBD0I@Z:NEAR		; CWnd::MessageBoxA
EXTRN	?UpdateData@CWnd@@QAEHH@Z:NEAR			; CWnd::UpdateData
xdata$x	SEGMENT
$T188533 DD	0ffffffffH
	DD	FLAT:$L188515
	DD	00H
	DD	FLAT:$L188516
	DD	01H
	DD	FLAT:$L188517
	DD	00H
	DD	FLAT:$L188518
	DD	03H
	DD	FLAT:$L188519
	DD	00H
	DD	FLAT:$L188519
	DD	05H
	DD	FLAT:$L188520
	DD	06H
	DD	FLAT:$L188521
$T188523 DD	019930520H
	DD	08H
	DD	FLAT:$T188533
	DD	2 DUP(00H)
	DD	2 DUP(00H)
; Function compile flags: /Odt /RTCsu
xdata$x	ENDS
_TEXT	SEGMENT
tv156 = -220						; size = 4
tv163 = -216						; size = 4
$T188514 = -212						; size = 28
$T188513 = -184						; size = 28
$T188512 = -156						; size = 4
$T188511 = -152						; size = 28
$T188510 = -124						; size = 28
_strPicSavePath$ = -92					; size = 28
_strValue$ = -56					; size = 28
_pUserConfig$ = -24					; size = 4
_this$ = -20						; size = 4
__$ArrayPad$ = -16					; size = 4
__$EHRec$ = -12						; size = 12
__$ReturnAddr$ = 4					; size = 4
_bSave2File$ = 8					; size = 1
?SaveConf@CDownDialog@@UAEX_N@Z PROC NEAR		; CDownDialog::SaveConf
; _this$ = ecx

; 41   : {

  00320	55		 push	 ebp
  00321	8b ec		 mov	 ebp, esp
  00323	6a ff		 push	 -1
  00325	68 00 00 00 00	 push	 __ehhandler$?SaveConf@CDownDialog@@UAEX_N@Z
  0032a	64 a1 00 00 00
	00		 mov	 eax, DWORD PTR fs:__except_list
  00330	50		 push	 eax
  00331	64 89 25 00 00
	00 00		 mov	 DWORD PTR fs:__except_list, esp
  00338	81 ec d0 00 00
	00		 sub	 esp, 208		; 000000d0H
  0033e	56		 push	 esi
  0033f	57		 push	 edi
  00340	51		 push	 ecx
  00341	8d bd 24 ff ff
	ff		 lea	 edi, DWORD PTR [ebp-220]
  00347	b9 34 00 00 00	 mov	 ecx, 52			; 00000034H
  0034c	b8 cc cc cc cc	 mov	 eax, -858993460		; ccccccccH
  00351	f3 ab		 rep stosd
  00353	59		 pop	 ecx
  00354	a1 00 00 00 00	 mov	 eax, DWORD PTR ___security_cookie
  00359	89 45 f0	 mov	 DWORD PTR __$ArrayPad$[ebp], eax
  0035c	89 4d ec	 mov	 DWORD PTR _this$[ebp], ecx

; 42   : 	UpdateData();

  0035f	6a 01		 push	 1
  00361	8b 4d ec	 mov	 ecx, DWORD PTR _this$[ebp]
  00364	e8 00 00 00 00	 call	 ?UpdateData@CWnd@@QAEHH@Z ; CWnd::UpdateData

; 43   : 	AfxUserConfig*	pUserConfig = AfxGetUserConfig();

  00369	e8 00 00 00 00	 call	 ?AfxGetUserConfig@@YAPAVAfxUserConfig@@XZ ; AfxGetUserConfig
  0036e	89 45 e8	 mov	 DWORD PTR _pUserConfig$[ebp], eax

; 44   : 
; 45   : 	string strValue = string(m_strSwfPath);

  00371	8b 4d ec	 mov	 ecx, DWORD PTR _this$[ebp]
  00374	81 c1 58 01 00
	00		 add	 ecx, 344		; 00000158H
  0037a	8b f4		 mov	 esi, esp
  0037c	ff 15 00 00 00
	00		 call	 DWORD PTR __imp_??B?$CSimpleStringT@D$00@ATL@@QBEPBDXZ
  00382	3b f4		 cmp	 esi, esp
  00384	e8 00 00 00 00	 call	 __RTC_CheckEsp
  00389	8b f4		 mov	 esi, esp
  0038b	50		 push	 eax
  0038c	8d 4d c8	 lea	 ecx, DWORD PTR _strValue$[ebp]
  0038f	ff 15 00 00 00
	00		 call	 DWORD PTR __imp_??0?$basic_string@DU?$char_traits@D@std@@V?$allocator@D@2@@std@@QAE@PBD@Z
  00395	3b f4		 cmp	 esi, esp
  00397	e8 00 00 00 00	 call	 __RTC_CheckEsp
  0039c	c7 45 fc 00 00
	00 00		 mov	 DWORD PTR __$EHRec$[ebp+8], 0

; 46   : 	YL_DirInfo::MakeDir( strValue );

  003a3	8d 45 c8	 lea	 eax, DWORD PTR _strValue$[ebp]
  003a6	50		 push	 eax
  003a7	e8 00 00 00 00	 call	 ?MakeDir@YL_DirInfo@@SA_NABV?$basic_string@DU?$char_traits@D@std@@V?$allocator@D@2@@std@@@Z ; YL_DirInfo::MakeDir
  003ac	83 c4 04	 add	 esp, 4

; 47   : 	pUserConfig->SetConfigStringValue( CONF_APP_MODULE_NAME, CONF_APP_SWF_PATH, strValue, bSave2File );

  003af	8b f4		 mov	 esi, esp
  003b1	8b 0d 00 00 00
	00		 mov	 ecx, DWORD PTR _CONF_APP_SWF_PATH
  003b7	51		 push	 ecx
  003b8	8d 4d 84	 lea	 ecx, DWORD PTR $T188510[ebp]
  003bb	ff 15 00 00 00
	00		 call	 DWORD PTR __imp_??0?$basic_string@DU?$char_traits@D@std@@V?$allocator@D@2@@std@@QAE@PBD@Z
  003c1	3b f4		 cmp	 esi, esp
  003c3	e8 00 00 00 00	 call	 __RTC_CheckEsp
  003c8	c6 45 fc 01	 mov	 BYTE PTR __$EHRec$[ebp+8], 1
  003cc	8b f4		 mov	 esi, esp
  003ce	8b 15 00 00 00
	00		 mov	 edx, DWORD PTR _CONF_APP_MODULE_NAME
  003d4	52		 push	 edx
  003d5	8d 8d 68 ff ff
	ff		 lea	 ecx, DWORD PTR $T188511[ebp]
  003db	ff 15 00 00 00
	00		 call	 DWORD PTR __imp_??0?$basic_string@DU?$char_traits@D@std@@V?$allocator@D@2@@std@@QAE@PBD@Z
  003e1	3b f4		 cmp	 esi, esp
  003e3	e8 00 00 00 00	 call	 __RTC_CheckEsp
  003e8	c6 45 fc 02	 mov	 BYTE PTR __$EHRec$[ebp+8], 2
  003ec	8a 45 08	 mov	 al, BYTE PTR _bSave2File$[ebp]
  003ef	50		 push	 eax
  003f0	8d 4d c8	 lea	 ecx, DWORD PTR _strValue$[ebp]
  003f3	51		 push	 ecx
  003f4	8d 55 84	 lea	 edx, DWORD PTR $T188510[ebp]
  003f7	52		 push	 edx
  003f8	8d 85 68 ff ff
	ff		 lea	 eax, DWORD PTR $T188511[ebp]
  003fe	50		 push	 eax
  003ff	8b 4d e8	 mov	 ecx, DWORD PTR _pUserConfig$[ebp]
  00402	e8 00 00 00 00	 call	 ?SetConfigStringValue@AfxUserConfig@@QAEXABV?$basic_string@DU?$char_traits@D@std@@V?$allocator@D@2@@std@@00_N@Z ; AfxUserConfig::SetConfigStringValue
  00407	c6 45 fc 01	 mov	 BYTE PTR __$EHRec$[ebp+8], 1
  0040b	8b f4		 mov	 esi, esp
  0040d	8d 8d 68 ff ff
	ff		 lea	 ecx, DWORD PTR $T188511[ebp]
  00413	ff 15 00 00 00
	00		 call	 DWORD PTR __imp_??1?$basic_string@DU?$char_traits@D@std@@V?$allocator@D@2@@std@@QAE@XZ
  00419	3b f4		 cmp	 esi, esp
  0041b	e8 00 00 00 00	 call	 __RTC_CheckEsp
  00420	c6 45 fc 00	 mov	 BYTE PTR __$EHRec$[ebp+8], 0
  00424	8b f4		 mov	 esi, esp
  00426	8d 4d 84	 lea	 ecx, DWORD PTR $T188510[ebp]
  00429	ff 15 00 00 00
	00		 call	 DWORD PTR __imp_??1?$basic_string@DU?$char_traits@D@std@@V?$allocator@D@2@@std@@QAE@XZ
  0042f	3b f4		 cmp	 esi, esp
  00431	e8 00 00 00 00	 call	 __RTC_CheckEsp

; 48   : 	// 
; 49   : 	// added by wang
; 50   : 	//	
; 51   : 	string strPicSavePath= (CString)m_strPicSavePath;

  00436	8b 4d ec	 mov	 ecx, DWORD PTR _this$[ebp]
  00439	81 c1 b0 01 00
	00		 add	 ecx, 432		; 000001b0H
  0043f	8b f4		 mov	 esi, esp
  00441	51		 push	 ecx
  00442	8d 8d 64 ff ff
	ff		 lea	 ecx, DWORD PTR $T188512[ebp]
  00448	ff 15 00 00 00
	00		 call	 DWORD PTR __imp_??0?$CStringT@DV?$StrTraitMFC_DLL@DV?$ChTraitsCRT@D@ATL@@@@@ATL@@QAE@ABV01@@Z
  0044e	3b f4		 cmp	 esi, esp
  00450	e8 00 00 00 00	 call	 __RTC_CheckEsp
  00455	89 85 28 ff ff
	ff		 mov	 DWORD PTR tv163[ebp], eax
  0045b	8b 95 28 ff ff
	ff		 mov	 edx, DWORD PTR tv163[ebp]
  00461	89 95 24 ff ff
	ff		 mov	 DWORD PTR tv156[ebp], edx
  00467	c6 45 fc 03	 mov	 BYTE PTR __$EHRec$[ebp+8], 3
  0046b	8b f4		 mov	 esi, esp
  0046d	8b 8d 24 ff ff
	ff		 mov	 ecx, DWORD PTR tv156[ebp]
  00473	ff 15 00 00 00
	00		 call	 DWORD PTR __imp_??B?$CSimpleStringT@D$00@ATL@@QBEPBDXZ
  00479	3b f4		 cmp	 esi, esp
  0047b	e8 00 00 00 00	 call	 __RTC_CheckEsp
  00480	8b f4		 mov	 esi, esp
  00482	50		 push	 eax
  00483	8d 4d a4	 lea	 ecx, DWORD PTR _strPicSavePath$[ebp]
  00486	ff 15 00 00 00
	00		 call	 DWORD PTR __imp_??0?$basic_string@DU?$char_traits@D@std@@V?$allocator@D@2@@std@@QAE@PBD@Z
  0048c	3b f4		 cmp	 esi, esp
  0048e	e8 00 00 00 00	 call	 __RTC_CheckEsp
  00493	c6 45 fc 05	 mov	 BYTE PTR __$EHRec$[ebp+8], 5
  00497	8b f4		 mov	 esi, esp
  00499	8d 8d 64 ff ff
	ff		 lea	 ecx, DWORD PTR $T188512[ebp]
  0049f	ff 15 00 00 00
	00		 call	 DWORD PTR __imp_??1?$CStringT@DV?$StrTraitMFC_DLL@DV?$ChTraitsCRT@D@ATL@@@@@ATL@@QAE@XZ
  004a5	3b f4		 cmp	 esi, esp
  004a7	e8 00 00 00 00	 call	 __RTC_CheckEsp

; 52   : 	if (strPicSavePath.length()<=0)

  004ac	8b f4		 mov	 esi, esp
  004ae	8d 4d a4	 lea	 ecx, DWORD PTR _strPicSavePath$[ebp]
  004b1	ff 15 00 00 00
	00		 call	 DWORD PTR __imp_?length@?$basic_string@DU?$char_traits@D@std@@V?$allocator@D@2@@std@@QBEIXZ
  004b7	3b f4		 cmp	 esi, esp
  004b9	e8 00 00 00 00	 call	 __RTC_CheckEsp
  004be	85 c0		 test	 eax, eax
  004c0	77 11		 ja	 SHORT $L187836

; 53   : 	{
; 54   : 		MessageBox(",");

  004c2	6a 00		 push	 0
  004c4	6a 00		 push	 0
  004c6	68 00 00 00 00	 push	 OFFSET FLAT:$SG187837
  004cb	8b 4d ec	 mov	 ecx, DWORD PTR _this$[ebp]
  004ce	e8 00 00 00 00	 call	 ?MessageBoxA@CWnd@@QAEHPBD0I@Z ; CWnd::MessageBoxA
$L187836:

; 55   : 	}
; 56   : 	pUserConfig->SetConfigStringValue(CONF_APP_MODULE_NAME, CONF_APP_PIC_SAVE_PATH, strPicSavePath, bSave2File);

  004d3	8b f4		 mov	 esi, esp
  004d5	a1 00 00 00 00	 mov	 eax, DWORD PTR _CONF_APP_PIC_SAVE_PATH
  004da	50		 push	 eax
  004db	8d 8d 48 ff ff
	ff		 lea	 ecx, DWORD PTR $T188513[ebp]
  004e1	ff 15 00 00 00
	00		 call	 DWORD PTR __imp_??0?$basic_string@DU?$char_traits@D@std@@V?$allocator@D@2@@std@@QAE@PBD@Z
  004e7	3b f4		 cmp	 esi, esp
  004e9	e8 00 00 00 00	 call	 __RTC_CheckEsp
  004ee	c6 45 fc 06	 mov	 BYTE PTR __$EHRec$[ebp+8], 6
  004f2	8b f4		 mov	 esi, esp
  004f4	8b 0d 00 00 00
	00		 mov	 ecx, DWORD PTR _CONF_APP_MODULE_NAME
  004fa	51		 push	 ecx
  004fb	8d 8d 2c ff ff
	ff		 lea	 ecx, DWORD PTR $T188514[ebp]
  00501	ff 15 00 00 00
	00		 call	 DWORD PTR __imp_??0?$basic_string@DU?$char_traits@D@std@@V?$allocator@D@2@@std@@QAE@PBD@Z
  00507	3b f4		 cmp	 esi, esp
  00509	e8 00 00 00 00	 call	 __RTC_CheckEsp
  0050e	c6 45 fc 07	 mov	 BYTE PTR __$EHRec$[ebp+8], 7
  00512	8a 55 08	 mov	 dl, BYTE PTR _bSave2File$[ebp]
  00515	52		 push	 edx
  00516	8d 45 a4	 lea	 eax, DWORD PTR _strPicSavePath$[ebp]
  00519	50		 push	 eax
  0051a	8d 8d 48 ff ff
	ff		 lea	 ecx, DWORD PTR $T188513[ebp]
  00520	51		 push	 ecx
  00521	8d 95 2c ff ff
	ff		 lea	 edx, DWORD PTR $T188514[ebp]
  00527	52		 push	 edx
  00528	8b 4d e8	 mov	 ecx, DWORD PTR _pUserConfig$[ebp]
  0052b	e8 00 00 00 00	 call	 ?SetConfigStringValue@AfxUserConfig@@QAEXABV?$basic_string@DU?$char_traits@D@std@@V?$allocator@D@2@@std@@00_N@Z ; AfxUserConfig::SetConfigStringValue
  00530	c6 45 fc 06	 mov	 BYTE PTR __$EHRec$[ebp+8], 6
  00534	8b f4		 mov	 esi, esp
  00536	8d 8d 2c ff ff
	ff		 lea	 ecx, DWORD PTR $T188514[ebp]
  0053c	ff 15 00 00 00
	00		 call	 DWORD PTR __imp_??1?$basic_string@DU?$char_traits@D@std@@V?$allocator@D@2@@std@@QAE@XZ
  00542	3b f4		 cmp	 esi, esp
  00544	e8 00 00 00 00	 call	 __RTC_CheckEsp
  00549	c6 45 fc 05	 mov	 BYTE PTR __$EHRec$[ebp+8], 5
  0054d	8b f4		 mov	 esi, esp
  0054f	8d 8d 48 ff ff
	ff		 lea	 ecx, DWORD PTR $T188513[ebp]
  00555	ff 15 00 00 00
	00		 call	 DWORD PTR __imp_??1?$basic_string@DU?$char_traits@D@std@@V?$allocator@D@2@@std@@QAE@XZ
  0055b	3b f4		 cmp	 esi, esp
  0055d	e8 00 00 00 00	 call	 __RTC_CheckEsp

; 57   : }

  00562	c6 45 fc 00	 mov	 BYTE PTR __$EHRec$[ebp+8], 0
  00566	8b f4		 mov	 esi, esp
  00568	8d 4d a4	 lea	 ecx, DWORD PTR _strPicSavePath$[ebp]
  0056b	ff 15 00 00 00
	00		 call	 DWORD PTR __imp_??1?$basic_string@DU?$char_traits@D@std@@V?$allocator@D@2@@std@@QAE@XZ
  00571	3b f4		 cmp	 esi, esp
  00573	e8 00 00 00 00	 call	 __RTC_CheckEsp
  00578	c7 45 fc ff ff
	ff ff		 mov	 DWORD PTR __$EHRec$[ebp+8], -1
  0057f	8b f4		 mov	 esi, esp
  00581	8d 4d c8	 lea	 ecx, DWORD PTR _strValue$[ebp]
  00584	ff 15 00 00 00
	00		 call	 DWORD PTR __imp_??1?$basic_string@DU?$char_traits@D@std@@V?$allocator@D@2@@std@@QAE@XZ
  0058a	3b f4		 cmp	 esi, esp
  0058c	e8 00 00 00 00	 call	 __RTC_CheckEsp
  00591	52		 push	 edx
  00592	8b cd		 mov	 ecx, ebp
  00594	50		 push	 eax
  00595	8d 15 00 00 00
	00		 lea	 edx, DWORD PTR $L188530
  0059b	e8 00 00 00 00	 call	 @_RTC_CheckStackVars@8
  005a0	58		 pop	 eax
  005a1	5a		 pop	 edx
  005a2	8b 4d f4	 mov	 ecx, DWORD PTR __$EHRec$[ebp]
  005a5	64 89 0d 00 00
	00 00		 mov	 DWORD PTR fs:__except_list, ecx
  005ac	8b 4d f0	 mov	 ecx, DWORD PTR __$ArrayPad$[ebp]
  005af	e8 00 00 00 00	 call	 @__security_check_cookie@4
  005b4	5f		 pop	 edi
  005b5	5e		 pop	 esi
  005b6	81 c4 dc 00 00
	00		 add	 esp, 220		; 000000dcH
  005bc	3b ec		 cmp	 ebp, esp
  005be	e8 00 00 00 00	 call	 __RTC_CheckEsp
  005c3	8b e5		 mov	 esp, ebp
  005c5	5d		 pop	 ebp
  005c6	c2 04 00	 ret	 4
$L188530:
  005c9	02 00 00 00	 DD	 2
  005cd	00 00 00 00	 DD	 $L188529
$L188529:
  005d1	c8 ff ff ff	 DD	 -56			; ffffffc8H
  005d5	1c 00 00 00	 DD	 28			; 0000001cH
  005d9	00 00 00 00	 DD	 $L188524
  005dd	a4 ff ff ff	 DD	 -92			; ffffffa4H
  005e1	1c 00 00 00	 DD	 28			; 0000001cH
  005e5	00 00 00 00	 DD	 $L188525
$L188525:
  005e9	73		 DB	 115			; 00000073H
  005ea	74		 DB	 116			; 00000074H
  005eb	72		 DB	 114			; 00000072H
  005ec	50		 DB	 80			; 00000050H
  005ed	69		 DB	 105			; 00000069H
  005ee	63		 DB	 99			; 00000063H
  005ef	53		 DB	 83			; 00000053H
  005f0	61		 DB	 97			; 00000061H
  005f1	76		 DB	 118			; 00000076H
  005f2	65		 DB	 101			; 00000065H
  005f3	50		 DB	 80			; 00000050H
  005f4	61		 DB	 97			; 00000061H
  005f5	74		 DB	 116			; 00000074H
  005f6	68		 DB	 104			; 00000068H
  005f7	00		 DB	 0
$L188524:
  005f8	73		 DB	 115			; 00000073H
  005f9	74		 DB	 116			; 00000074H
  005fa	72		 DB	 114			; 00000072H
  005fb	56		 DB	 86			; 00000056H
  005fc	61		 DB	 97			; 00000061H
  005fd	6c		 DB	 108			; 0000006cH
  005fe	75		 DB	 117			; 00000075H
  005ff	65		 DB	 101			; 00000065H
  00600	00		 DB	 0
_TEXT	ENDS
text$x	SEGMENT
$L188515:
  000e6	8b f4		 mov	 esi, esp
  000e8	8d 4d c8	 lea	 ecx, DWORD PTR _strValue$[ebp]
  000eb	ff 15 00 00 00
	00		 call	 DWORD PTR __imp_??1?$basic_string@DU?$char_traits@D@std@@V?$allocator@D@2@@std@@QAE@XZ
  000f1	3b f4		 cmp	 esi, esp
  000f3	e9 00 00 00 00	 jmp	 __RTC_CheckEsp
$L188516:
  000f8	8b f4		 mov	 esi, esp
  000fa	8d 4d 84	 lea	 ecx, DWORD PTR $T188510[ebp]
  000fd	ff 15 00 00 00
	00		 call	 DWORD PTR __imp_??1?$basic_string@DU?$char_traits@D@std@@V?$allocator@D@2@@std@@QAE@XZ
  00103	3b f4		 cmp	 esi, esp
  00105	e9 00 00 00 00	 jmp	 __RTC_CheckEsp
$L188517:
  0010a	8b f4		 mov	 esi, esp
  0010c	8d 8d 68 ff ff
	ff		 lea	 ecx, DWORD PTR $T188511[ebp]
  00112	ff 15 00 00 00
	00		 call	 DWORD PTR __imp_??1?$basic_string@DU?$char_traits@D@std@@V?$allocator@D@2@@std@@QAE@XZ
  00118	3b f4		 cmp	 esi, esp
  0011a	e9 00 00 00 00	 jmp	 __RTC_CheckEsp
$L188518:
  0011f	8b f4		 mov	 esi, esp
  00121	8d 8d 64 ff ff
	ff		 lea	 ecx, DWORD PTR $T188512[ebp]
  00127	ff 15 00 00 00
	00		 call	 DWORD PTR __imp_??1?$CStringT@DV?$StrTraitMFC_DLL@DV?$ChTraitsCRT@D@ATL@@@@@ATL@@QAE@XZ
  0012d	3b f4		 cmp	 esi, esp
  0012f	e9 00 00 00 00	 jmp	 __RTC_CheckEsp
$L188519:
  00134	8b f4		 mov	 esi, esp
  00136	8d 4d a4	 lea	 ecx, DWORD PTR _strPicSavePath$[ebp]
  00139	ff 15 00 00 00
	00		 call	 DWORD PTR __imp_??1?$basic_string@DU?$char_traits@D@std@@V?$allocator@D@2@@std@@QAE@XZ
  0013f	3b f4		 cmp	 esi, esp
  00141	e9 00 00 00 00	 jmp	 __RTC_CheckEsp
$L188520:
  00146	8b f4		 mov	 esi, esp
  00148	8d 8d 48 ff ff
	ff		 lea	 ecx, DWORD PTR $T188513[ebp]
  0014e	ff 15 00 00 00
	00		 call	 DWORD PTR __imp_??1?$basic_string@DU?$char_traits@D@std@@V?$allocator@D@2@@std@@QAE@XZ
  00154	3b f4		 cmp	 esi, esp
  00156	e9 00 00 00 00	 jmp	 __RTC_CheckEsp
$L188521:
  0015b	8b f4		 mov	 esi, esp
  0015d	8d 8d 2c ff ff
	ff		 lea	 ecx, DWORD PTR $T188514[ebp]
  00163	ff 15 00 00 00
	00		 call	 DWORD PTR __imp_??1?$basic_string@DU?$char_traits@D@std@@V?$allocator@D@2@@std@@QAE@XZ
  00169	3b f4		 cmp	 esi, esp
  0016b	e9 00 00 00 00	 jmp	 __RTC_CheckEsp
__ehhandler$?SaveConf@CDownDialog@@UAEX_N@Z:
  00170	b8 00 00 00 00	 mov	 eax, OFFSET FLAT:$T188523
  00175	e9 00 00 00 00	 jmp	 ___CxxFrameHandler
text$x	ENDS
?SaveConf@CDownDialog@@UAEX_N@Z ENDP			; CDownDialog::SaveConf
EXTRN	__imp_??$?9DU?$char_traits@D@std@@V?$allocator@D@1@@std@@YA_NABV?$basic_string@DU?$char_traits@D@std@@V?$allocator@D@2@@0@0@Z:NEAR
EXTRN	?GetConfigStringValue@AfxUserConfig@@QAEXABV?$basic_string@DU?$char_traits@D@std@@V?$allocator@D@2@@std@@0AAV23@@Z:NEAR ; AfxUserConfig::GetConfigStringValue
EXTRN	__imp_?c_str@?$basic_string@DU?$char_traits@D@std@@V?$allocator@D@2@@std@@QBEPBDXZ:NEAR
EXTRN	__imp_??0?$CStringT@DV?$StrTraitMFC_DLL@DV?$ChTraitsCRT@D@ATL@@@@@ATL@@QAE@PBD@Z:NEAR
EXTRN	__imp_??4?$CStringT@DV?$StrTraitMFC_DLL@DV?$ChTraitsCRT@D@ATL@@@@@ATL@@QAEAAV01@ABV01@@Z:NEAR
EXTRN	?IsDirectory@YL_FileInfo@@SA_NPBD@Z:NEAR	; YL_FileInfo::IsDirectory
EXTRN	?GetDefaultAPP_SWF_PATH@ConfigParaDefault@@SA?AV?$basic_string@DU?$char_traits@D@std@@V?$allocator@D@2@@std@@XZ:NEAR ; ConfigParaDefault::GetDefaultAPP_SWF_PATH
EXTRN	?GetDefaultAPP_PicSave_Path@ConfigParaDefault@@SA?AV?$basic_string@DU?$char_traits@D@std@@V?$allocator@D@2@@std@@XZ:NEAR ; ConfigParaDefault::GetDefaultAPP_PicSave_Path
xdata$x	SEGMENT
$T188566 DD	0ffffffffH
	DD	FLAT:$L188544
	DD	00H
	DD	FLAT:$L188545
	DD	01H
	DD	FLAT:$L188546
	DD	00H
	DD	FLAT:$L188547
	DD	00H
	DD	FLAT:$L188548
	DD	04H
	DD	FLAT:$L188549
	DD	00H
	DD	FLAT:$L188550
	DD	06H
	DD	FLAT:$L188551
	DD	07H
	DD	FLAT:$L188552
	DD	06H
	DD	FLAT:$L188553
	DD	06H
	DD	FLAT:$L188554
	DD	0aH
	DD	FLAT:$L188555
$T188557 DD	019930520H
	DD	0cH
	DD	FLAT:$T188566
	DD	2 DUP(00H)
	DD	2 DUP(00H)
; Function compile flags: /Odt /RTCsu
xdata$x	ENDS
_TEXT	SEGMENT
tv201 = -328						; size = 4
tv219 = -324						; size = 4
tv198 = -320						; size = 4
tv215 = -316						; size = 4
tv193 = -312						; size = 4
tv209 = -308						; size = 4
tv190 = -304						; size = 4
tv205 = -300						; size = 4
$T188543 = -296						; size = 4
$T188542 = -292						; size = 4
$T188541 = -288						; size = 28
$T188540 = -260						; size = 28
$T188539 = -232						; size = 4
$T188538 = -228						; size = 4
$T188537 = -224						; size = 28
$T188536 = -196						; size = 28
_strDefaultPath$ = -164					; size = 28
_strPictSavePath$ = -128				; size = 28
_strDefaultPath$187849 = -92				; size = 28
_strValue$ = -56					; size = 28
_pUserConfig$ = -24					; size = 4
_this$ = -20						; size = 4
__$ArrayPad$ = -16					; size = 4
__$EHRec$ = -12						; size = 12
__$ReturnAddr$ = 4					; size = 4
?LoadConf@CDownDialog@@UAEXXZ PROC NEAR			; CDownDialog::LoadConf
; _this$ = ecx

; 60   : {

  00610	55		 push	 ebp
  00611	8b ec		 mov	 ebp, esp
  00613	6a ff		 push	 -1
  00615	68 00 00 00 00	 push	 __ehhandler$?LoadConf@CDownDialog@@UAEXXZ
  0061a	64 a1 00 00 00
	00		 mov	 eax, DWORD PTR fs:__except_list
  00620	50		 push	 eax
  00621	64 89 25 00 00
	00 00		 mov	 DWORD PTR fs:__except_list, esp
  00628	81 ec 3c 01 00
	00		 sub	 esp, 316		; 0000013cH
  0062e	56		 push	 esi
  0062f	57		 push	 edi
  00630	51		 push	 ecx
  00631	8d bd b8 fe ff
	ff		 lea	 edi, DWORD PTR [ebp-328]
  00637	b9 4f 00 00 00	 mov	 ecx, 79			; 0000004fH
  0063c	b8 cc cc cc cc	 mov	 eax, -858993460		; ccccccccH
  00641	f3 ab		 rep stosd
  00643	59		 pop	 ecx
  00644	a1 00 00 00 00	 mov	 eax, DWORD PTR ___security_cookie
  00649	89 45 f0	 mov	 DWORD PTR __$ArrayPad$[ebp], eax
  0064c	89 4d ec	 mov	 DWORD PTR _this$[ebp], ecx

; 61   : 	AfxUserConfig*	pUserConfig = AfxGetUserConfig();

  0064f	e8 00 00 00 00	 call	 ?AfxGetUserConfig@@YAPAVAfxUserConfig@@XZ ; AfxGetUserConfig
  00654	89 45 e8	 mov	 DWORD PTR _pUserConfig$[ebp], eax

; 62   : 	string strValue;

  00657	8b f4		 mov	 esi, esp
  00659	8d 4d c8	 lea	 ecx, DWORD PTR _strValue$[ebp]
  0065c	ff 15 00 00 00
	00		 call	 DWORD PTR __imp_??0?$basic_string@DU?$char_traits@D@std@@V?$allocator@D@2@@std@@QAE@XZ
  00662	3b f4		 cmp	 esi, esp
  00664	e8 00 00 00 00	 call	 __RTC_CheckEsp
  00669	c7 45 fc 00 00
	00 00		 mov	 DWORD PTR __$EHRec$[ebp+8], 0

; 63   : 	pUserConfig->GetConfigStringValue( CONF_APP_MODULE_NAME, CONF_APP_SWF_PATH, strValue );

  00670	8b f4		 mov	 esi, esp
  00672	a1 00 00 00 00	 mov	 eax, DWORD PTR _CONF_APP_SWF_PATH
  00677	50		 push	 eax
  00678	8d 8d 3c ff ff
	ff		 lea	 ecx, DWORD PTR $T188536[ebp]
  0067e	ff 15 00 00 00
	00		 call	 DWORD PTR __imp_??0?$basic_string@DU?$char_traits@D@std@@V?$allocator@D@2@@std@@QAE@PBD@Z
  00684	3b f4		 cmp	 esi, esp
  00686	e8 00 00 00 00	 call	 __RTC_CheckEsp
  0068b	c6 45 fc 01	 mov	 BYTE PTR __$EHRec$[ebp+8], 1
  0068f	8b f4		 mov	 esi, esp
  00691	8b 0d 00 00 00
	00		 mov	 ecx, DWORD PTR _CONF_APP_MODULE_NAME
  00697	51		 push	 ecx
  00698	8d 8d 20 ff ff
	ff		 lea	 ecx, DWORD PTR $T188537[ebp]
  0069e	ff 15 00 00 00
	00		 call	 DWORD PTR __imp_??0?$basic_string@DU?$char_traits@D@std@@V?$allocator@D@2@@std@@QAE@PBD@Z
  006a4	3b f4		 cmp	 esi, esp
  006a6	e8 00 00 00 00	 call	 __RTC_CheckEsp
  006ab	c6 45 fc 02	 mov	 BYTE PTR __$EHRec$[ebp+8], 2
  006af	8d 55 c8	 lea	 edx, DWORD PTR _strValue$[ebp]
  006b2	52		 push	 edx
  006b3	8d 85 3c ff ff
	ff		 lea	 eax, DWORD PTR $T188536[ebp]
  006b9	50		 push	 eax
  006ba	8d 8d 20 ff ff
	ff		 lea	 ecx, DWORD PTR $T188537[ebp]
  006c0	51		 push	 ecx
  006c1	8b 4d e8	 mov	 ecx, DWORD PTR _pUserConfig$[ebp]
  006c4	e8 00 00 00 00	 call	 ?GetConfigStringValue@AfxUserConfig@@QAEXABV?$basic_string@DU?$char_traits@D@std@@V?$allocator@D@2@@std@@0AAV23@@Z ; AfxUserConfig::GetConfigStringValue
  006c9	c6 45 fc 01	 mov	 BYTE PTR __$EHRec$[ebp+8], 1
  006cd	8b f4		 mov	 esi, esp
  006cf	8d 8d 20 ff ff
	ff		 lea	 ecx, DWORD PTR $T188537[ebp]
  006d5	ff 15 00 00 00
	00		 call	 DWORD PTR __imp_??1?$basic_string@DU?$char_traits@D@std@@V?$allocator@D@2@@std@@QAE@XZ
  006db	3b f4		 cmp	 esi, esp
  006dd	e8 00 00 00 00	 call	 __RTC_CheckEsp
  006e2	c6 45 fc 00	 mov	 BYTE PTR __$EHRec$[ebp+8], 0
  006e6	8b f4		 mov	 esi, esp
  006e8	8d 8d 3c ff ff
	ff		 lea	 ecx, DWORD PTR $T188536[ebp]
  006ee	ff 15 00 00 00
	00		 call	 DWORD PTR __imp_??1?$basic_string@DU?$char_traits@D@std@@V?$allocator@D@2@@std@@QAE@XZ
  006f4	3b f4		 cmp	 esi, esp
  006f6	e8 00 00 00 00	 call	 __RTC_CheckEsp

; 64   : 	m_strSwfPath = CString( strValue.c_str() );

  006fb	8b f4		 mov	 esi, esp
  006fd	8d 4d c8	 lea	 ecx, DWORD PTR _strValue$[ebp]
  00700	ff 15 00 00 00
	00		 call	 DWORD PTR __imp_?c_str@?$basic_string@DU?$char_traits@D@std@@V?$allocator@D@2@@std@@QBEPBDXZ
  00706	3b f4		 cmp	 esi, esp
  00708	e8 00 00 00 00	 call	 __RTC_CheckEsp
  0070d	8b f4		 mov	 esi, esp
  0070f	50		 push	 eax
  00710	8d 8d 1c ff ff
	ff		 lea	 ecx, DWORD PTR $T188538[ebp]
  00716	ff 15 00 00 00
	00		 call	 DWORD PTR __imp_??0?$CStringT@DV?$StrTraitMFC_DLL@DV?$ChTraitsCRT@D@ATL@@@@@ATL@@QAE@PBD@Z
  0071c	3b f4		 cmp	 esi, esp
  0071e	e8 00 00 00 00	 call	 __RTC_CheckEsp
  00723	89 85 d4 fe ff
	ff		 mov	 DWORD PTR tv205[ebp], eax
  00729	8b 95 d4 fe ff
	ff		 mov	 edx, DWORD PTR tv205[ebp]
  0072f	89 95 d0 fe ff
	ff		 mov	 DWORD PTR tv190[ebp], edx
  00735	c6 45 fc 03	 mov	 BYTE PTR __$EHRec$[ebp+8], 3
  00739	8b f4		 mov	 esi, esp
  0073b	8b 85 d0 fe ff
	ff		 mov	 eax, DWORD PTR tv190[ebp]
  00741	50		 push	 eax
  00742	8b 4d ec	 mov	 ecx, DWORD PTR _this$[ebp]
  00745	81 c1 58 01 00
	00		 add	 ecx, 344		; 00000158H
  0074b	ff 15 00 00 00
	00		 call	 DWORD PTR __imp_??4?$CStringT@DV?$StrTraitMFC_DLL@DV?$ChTraitsCRT@D@ATL@@@@@ATL@@QAEAAV01@ABV01@@Z
  00751	3b f4		 cmp	 esi, esp
  00753	e8 00 00 00 00	 call	 __RTC_CheckEsp
  00758	c6 45 fc 00	 mov	 BYTE PTR __$EHRec$[ebp+8], 0
  0075c	8b f4		 mov	 esi, esp
  0075e	8d 8d 1c ff ff
	ff		 lea	 ecx, DWORD PTR $T188538[ebp]
  00764	ff 15 00 00 00
	00		 call	 DWORD PTR __imp_??1?$CStringT@DV?$StrTraitMFC_DLL@DV?$ChTraitsCRT@D@ATL@@@@@ATL@@QAE@XZ
  0076a	3b f4		 cmp	 esi, esp
  0076c	e8 00 00 00 00	 call	 __RTC_CheckEsp

; 65   : 	YL_DirInfo::MakeDir( strValue );

  00771	8d 4d c8	 lea	 ecx, DWORD PTR _strValue$[ebp]
  00774	51		 push	 ecx
  00775	e8 00 00 00 00	 call	 ?MakeDir@YL_DirInfo@@SA_NABV?$basic_string@DU?$char_traits@D@std@@V?$allocator@D@2@@std@@@Z ; YL_DirInfo::MakeDir
  0077a	83 c4 04	 add	 esp, 4

; 66   : 
; 67   : 	//
; 68   : 	if( !YL_FileInfo::IsDirectory( strValue.c_str() ) ) 

  0077d	8b f4		 mov	 esi, esp
  0077f	8d 4d c8	 lea	 ecx, DWORD PTR _strValue$[ebp]
  00782	ff 15 00 00 00
	00		 call	 DWORD PTR __imp_?c_str@?$basic_string@DU?$char_traits@D@std@@V?$allocator@D@2@@std@@QBEPBDXZ
  00788	3b f4		 cmp	 esi, esp
  0078a	e8 00 00 00 00	 call	 __RTC_CheckEsp
  0078f	50		 push	 eax
  00790	e8 00 00 00 00	 call	 ?IsDirectory@YL_FileInfo@@SA_NPBD@Z ; YL_FileInfo::IsDirectory
  00795	83 c4 04	 add	 esp, 4
  00798	0f b6 d0	 movzx	 edx, al
  0079b	85 d2		 test	 edx, edx
  0079d	0f 85 a8 00 00
	00		 jne	 $L187848

; 69   : 	{
; 70   : 		string strDefaultPath = ConfigParaDefault::GetDefaultAPP_SWF_PATH();

  007a3	8d 45 a4	 lea	 eax, DWORD PTR _strDefaultPath$187849[ebp]
  007a6	50		 push	 eax
  007a7	e8 00 00 00 00	 call	 ?GetDefaultAPP_SWF_PATH@ConfigParaDefault@@SA?AV?$basic_string@DU?$char_traits@D@std@@V?$allocator@D@2@@std@@XZ ; ConfigParaDefault::GetDefaultAPP_SWF_PATH
  007ac	83 c4 04	 add	 esp, 4
  007af	c6 45 fc 04	 mov	 BYTE PTR __$EHRec$[ebp+8], 4

; 71   : 		YL_DirInfo::MakeDir( strDefaultPath );

  007b3	8d 4d a4	 lea	 ecx, DWORD PTR _strDefaultPath$187849[ebp]
  007b6	51		 push	 ecx
  007b7	e8 00 00 00 00	 call	 ?MakeDir@YL_DirInfo@@SA_NABV?$basic_string@DU?$char_traits@D@std@@V?$allocator@D@2@@std@@@Z ; YL_DirInfo::MakeDir
  007bc	83 c4 04	 add	 esp, 4

; 72   : 		m_strSwfPath = CString( strDefaultPath.c_str() );

  007bf	8b f4		 mov	 esi, esp
  007c1	8d 4d a4	 lea	 ecx, DWORD PTR _strDefaultPath$187849[ebp]
  007c4	ff 15 00 00 00
	00		 call	 DWORD PTR __imp_?c_str@?$basic_string@DU?$char_traits@D@std@@V?$allocator@D@2@@std@@QBEPBDXZ
  007ca	3b f4		 cmp	 esi, esp
  007cc	e8 00 00 00 00	 call	 __RTC_CheckEsp
  007d1	8b f4		 mov	 esi, esp
  007d3	50		 push	 eax
  007d4	8d 8d 18 ff ff
	ff		 lea	 ecx, DWORD PTR $T188539[ebp]
  007da	ff 15 00 00 00
	00		 call	 DWORD PTR __imp_??0?$CStringT@DV?$StrTraitMFC_DLL@DV?$ChTraitsCRT@D@ATL@@@@@ATL@@QAE@PBD@Z
  007e0	3b f4		 cmp	 esi, esp
  007e2	e8 00 00 00 00	 call	 __RTC_CheckEsp
  007e7	89 85 cc fe ff
	ff		 mov	 DWORD PTR tv209[ebp], eax
  007ed	8b 95 cc fe ff
	ff		 mov	 edx, DWORD PTR tv209[ebp]
  007f3	89 95 c8 fe ff
	ff		 mov	 DWORD PTR tv193[ebp], edx
  007f9	c6 45 fc 05	 mov	 BYTE PTR __$EHRec$[ebp+8], 5
  007fd	8b f4		 mov	 esi, esp
  007ff	8b 85 c8 fe ff
	ff		 mov	 eax, DWORD PTR tv193[ebp]
  00805	50		 push	 eax
  00806	8b 4d ec	 mov	 ecx, DWORD PTR _this$[ebp]
  00809	81 c1 58 01 00
	00		 add	 ecx, 344		; 00000158H
  0080f	ff 15 00 00 00
	00		 call	 DWORD PTR __imp_??4?$CStringT@DV?$StrTraitMFC_DLL@DV?$ChTraitsCRT@D@ATL@@@@@ATL@@QAEAAV01@ABV01@@Z
  00815	3b f4		 cmp	 esi, esp
  00817	e8 00 00 00 00	 call	 __RTC_CheckEsp
  0081c	c6 45 fc 04	 mov	 BYTE PTR __$EHRec$[ebp+8], 4
  00820	8b f4		 mov	 esi, esp
  00822	8d 8d 18 ff ff
	ff		 lea	 ecx, DWORD PTR $T188539[ebp]
  00828	ff 15 00 00 00
	00		 call	 DWORD PTR __imp_??1?$CStringT@DV?$StrTraitMFC_DLL@DV?$ChTraitsCRT@D@ATL@@@@@ATL@@QAE@XZ
  0082e	3b f4		 cmp	 esi, esp
  00830	e8 00 00 00 00	 call	 __RTC_CheckEsp

; 73   : 	}

  00835	c6 45 fc 00	 mov	 BYTE PTR __$EHRec$[ebp+8], 0
  00839	8b f4		 mov	 esi, esp
  0083b	8d 4d a4	 lea	 ecx, DWORD PTR _strDefaultPath$187849[ebp]
  0083e	ff 15 00 00 00
	00		 call	 DWORD PTR __imp_??1?$basic_string@DU?$char_traits@D@std@@V?$allocator@D@2@@std@@QAE@XZ
  00844	3b f4		 cmp	 esi, esp
  00846	e8 00 00 00 00	 call	 __RTC_CheckEsp
$L187848:

; 74   : 	//
; 75   : 	// added by wang
; 76   : 	//
; 77   : 	string strPictSavePath ;

  0084b	8b f4		 mov	 esi, esp
  0084d	8d 4d 80	 lea	 ecx, DWORD PTR _strPictSavePath$[ebp]
  00850	ff 15 00 00 00
	00		 call	 DWORD PTR __imp_??0?$basic_string@DU?$char_traits@D@std@@V?$allocator@D@2@@std@@QAE@XZ
  00856	3b f4		 cmp	 esi, esp
  00858	e8 00 00 00 00	 call	 __RTC_CheckEsp
  0085d	c6 45 fc 06	 mov	 BYTE PTR __$EHRec$[ebp+8], 6

; 78   : 	pUserConfig->GetConfigStringValue(CONF_APP_MODULE_NAME, CONF_APP_PIC_SAVE_PATH, strPictSavePath);

  00861	8b f4		 mov	 esi, esp
  00863	8b 0d 00 00 00
	00		 mov	 ecx, DWORD PTR _CONF_APP_PIC_SAVE_PATH
  00869	51		 push	 ecx
  0086a	8d 8d fc fe ff
	ff		 lea	 ecx, DWORD PTR $T188540[ebp]
  00870	ff 15 00 00 00
	00		 call	 DWORD PTR __imp_??0?$basic_string@DU?$char_traits@D@std@@V?$allocator@D@2@@std@@QAE@PBD@Z
  00876	3b f4		 cmp	 esi, esp
  00878	e8 00 00 00 00	 call	 __RTC_CheckEsp
  0087d	c6 45 fc 07	 mov	 BYTE PTR __$EHRec$[ebp+8], 7
  00881	8b f4		 mov	 esi, esp
  00883	8b 15 00 00 00
	00		 mov	 edx, DWORD PTR _CONF_APP_MODULE_NAME
  00889	52		 push	 edx
  0088a	8d 8d e0 fe ff
	ff		 lea	 ecx, DWORD PTR $T188541[ebp]
  00890	ff 15 00 00 00
	00		 call	 DWORD PTR __imp_??0?$basic_string@DU?$char_traits@D@std@@V?$allocator@D@2@@std@@QAE@PBD@Z
  00896	3b f4		 cmp	 esi, esp
  00898	e8 00 00 00 00	 call	 __RTC_CheckEsp
  0089d	c6 45 fc 08	 mov	 BYTE PTR __$EHRec$[ebp+8], 8
  008a1	8d 45 80	 lea	 eax, DWORD PTR _strPictSavePath$[ebp]
  008a4	50		 push	 eax
  008a5	8d 8d fc fe ff
	ff		 lea	 ecx, DWORD PTR $T188540[ebp]
  008ab	51		 push	 ecx
  008ac	8d 95 e0 fe ff
	ff		 lea	 edx, DWORD PTR $T188541[ebp]
  008b2	52		 push	 edx
  008b3	8b 4d e8	 mov	 ecx, DWORD PTR _pUserConfig$[ebp]
  008b6	e8 00 00 00 00	 call	 ?GetConfigStringValue@AfxUserConfig@@QAEXABV?$basic_string@DU?$char_traits@D@std@@V?$allocator@D@2@@std@@0AAV23@@Z ; AfxUserConfig::GetConfigStringValue
  008bb	c6 45 fc 07	 mov	 BYTE PTR __$EHRec$[ebp+8], 7
  008bf	8b f4		 mov	 esi, esp
  008c1	8d 8d e0 fe ff
	ff		 lea	 ecx, DWORD PTR $T188541[ebp]
  008c7	ff 15 00 00 00
	00		 call	 DWORD PTR __imp_??1?$basic_string@DU?$char_traits@D@std@@V?$allocator@D@2@@std@@QAE@XZ
  008cd	3b f4		 cmp	 esi, esp
  008cf	e8 00 00 00 00	 call	 __RTC_CheckEsp
  008d4	c6 45 fc 06	 mov	 BYTE PTR __$EHRec$[ebp+8], 6
  008d8	8b f4		 mov	 esi, esp
  008da	8d 8d fc fe ff
	ff		 lea	 ecx, DWORD PTR $T188540[ebp]
  008e0	ff 15 00 00 00
	00		 call	 DWORD PTR __imp_??1?$basic_string@DU?$char_traits@D@std@@V?$allocator@D@2@@std@@QAE@XZ
  008e6	3b f4		 cmp	 esi, esp
  008e8	e8 00 00 00 00	 call	 __RTC_CheckEsp

; 79   : 	m_strPicSavePath = CString(strPictSavePath.c_str());

  008ed	8b f4		 mov	 esi, esp
  008ef	8d 4d 80	 lea	 ecx, DWORD PTR _strPictSavePath$[ebp]
  008f2	ff 15 00 00 00
	00		 call	 DWORD PTR __imp_?c_str@?$basic_string@DU?$char_traits@D@std@@V?$allocator@D@2@@std@@QBEPBDXZ
  008f8	3b f4		 cmp	 esi, esp
  008fa	e8 00 00 00 00	 call	 __RTC_CheckEsp
  008ff	8b f4		 mov	 esi, esp
  00901	50		 push	 eax
  00902	8d 8d dc fe ff
	ff		 lea	 ecx, DWORD PTR $T188542[ebp]
  00908	ff 15 00 00 00
	00		 call	 DWORD PTR __imp_??0?$CStringT@DV?$StrTraitMFC_DLL@DV?$ChTraitsCRT@D@ATL@@@@@ATL@@QAE@PBD@Z
  0090e	3b f4		 cmp	 esi, esp
  00910	e8 00 00 00 00	 call	 __RTC_CheckEsp
  00915	89 85 c4 fe ff
	ff		 mov	 DWORD PTR tv215[ebp], eax
  0091b	8b 85 c4 fe ff
	ff		 mov	 eax, DWORD PTR tv215[ebp]
  00921	89 85 c0 fe ff
	ff		 mov	 DWORD PTR tv198[ebp], eax
  00927	c6 45 fc 09	 mov	 BYTE PTR __$EHRec$[ebp+8], 9
  0092b	8b f4		 mov	 esi, esp
  0092d	8b 8d c0 fe ff
	ff		 mov	 ecx, DWORD PTR tv198[ebp]
  00933	51		 push	 ecx
  00934	8b 4d ec	 mov	 ecx, DWORD PTR _this$[ebp]
  00937	81 c1 b0 01 00
	00		 add	 ecx, 432		; 000001b0H
  0093d	ff 15 00 00 00
	00		 call	 DWORD PTR __imp_??4?$CStringT@DV?$StrTraitMFC_DLL@DV?$ChTraitsCRT@D@ATL@@@@@ATL@@QAEAAV01@ABV01@@Z
  00943	3b f4		 cmp	 esi, esp
  00945	e8 00 00 00 00	 call	 __RTC_CheckEsp
  0094a	c6 45 fc 06	 mov	 BYTE PTR __$EHRec$[ebp+8], 6
  0094e	8b f4		 mov	 esi, esp
  00950	8d 8d dc fe ff
	ff		 lea	 ecx, DWORD PTR $T188542[ebp]
  00956	ff 15 00 00 00
	00		 call	 DWORD PTR __imp_??1?$CStringT@DV?$StrTraitMFC_DLL@DV?$ChTraitsCRT@D@ATL@@@@@ATL@@QAE@XZ
  0095c	3b f4		 cmp	 esi, esp
  0095e	e8 00 00 00 00	 call	 __RTC_CheckEsp

; 80   : 	// ? .
; 81   : 	// .
; 82   : 	string strDefaultPath = ConfigParaDefault::GetDefaultAPP_PicSave_Path();

  00963	8d 95 5c ff ff
	ff		 lea	 edx, DWORD PTR _strDefaultPath$[ebp]
  00969	52		 push	 edx
  0096a	e8 00 00 00 00	 call	 ?GetDefaultAPP_PicSave_Path@ConfigParaDefault@@SA?AV?$basic_string@DU?$char_traits@D@std@@V?$allocator@D@2@@std@@XZ ; ConfigParaDefault::GetDefaultAPP_PicSave_Path
  0096f	83 c4 04	 add	 esp, 4
  00972	c6 45 fc 0a	 mov	 BYTE PTR __$EHRec$[ebp+8], 10 ; 0000000aH

; 83   : 	if( strPictSavePath != strDefaultPath ) {

  00976	8b f4		 mov	 esi, esp
  00978	8d 85 5c ff ff
	ff		 lea	 eax, DWORD PTR _strDefaultPath$[ebp]
  0097e	50		 push	 eax
  0097f	8d 4d 80	 lea	 ecx, DWORD PTR _strPictSavePath$[ebp]
  00982	51		 push	 ecx
  00983	ff 15 00 00 00
	00		 call	 DWORD PTR __imp_??$?9DU?$char_traits@D@std@@V?$allocator@D@1@@std@@YA_NABV?$basic_string@DU?$char_traits@D@std@@V?$allocator@D@2@@0@0@Z
  00989	83 c4 08	 add	 esp, 8
  0098c	3b f4		 cmp	 esi, esp
  0098e	e8 00 00 00 00	 call	 __RTC_CheckEsp
  00993	0f b6 d0	 movzx	 edx, al
  00996	85 d2		 test	 edx, edx
  00998	74 79		 je	 SHORT $L187858

; 84   : 		m_strPicSavePath = (CString)(strDefaultPath.c_str());

  0099a	8b f4		 mov	 esi, esp
  0099c	8d 8d 5c ff ff
	ff		 lea	 ecx, DWORD PTR _strDefaultPath$[ebp]
  009a2	ff 15 00 00 00
	00		 call	 DWORD PTR __imp_?c_str@?$basic_string@DU?$char_traits@D@std@@V?$allocator@D@2@@std@@QBEPBDXZ
  009a8	3b f4		 cmp	 esi, esp
  009aa	e8 00 00 00 00	 call	 __RTC_CheckEsp
  009af	8b f4		 mov	 esi, esp
  009b1	50		 push	 eax
  009b2	8d 8d d8 fe ff
	ff		 lea	 ecx, DWORD PTR $T188543[ebp]
  009b8	ff 15 00 00 00
	00		 call	 DWORD PTR __imp_??0?$CStringT@DV?$StrTraitMFC_DLL@DV?$ChTraitsCRT@D@ATL@@@@@ATL@@QAE@PBD@Z
  009be	3b f4		 cmp	 esi, esp
  009c0	e8 00 00 00 00	 call	 __RTC_CheckEsp
  009c5	89 85 bc fe ff
	ff		 mov	 DWORD PTR tv219[ebp], eax
  009cb	8b 85 bc fe ff
	ff		 mov	 eax, DWORD PTR tv219[ebp]
  009d1	89 85 b8 fe ff
	ff		 mov	 DWORD PTR tv201[ebp], eax
  009d7	c6 45 fc 0b	 mov	 BYTE PTR __$EHRec$[ebp+8], 11 ; 0000000bH
  009db	8b f4		 mov	 esi, esp
  009dd	8b 8d b8 fe ff
	ff		 mov	 ecx, DWORD PTR tv201[ebp]
  009e3	51		 push	 ecx
  009e4	8b 4d ec	 mov	 ecx, DWORD PTR _this$[ebp]
  009e7	81 c1 b0 01 00
	00		 add	 ecx, 432		; 000001b0H
  009ed	ff 15 00 00 00
	00		 call	 DWORD PTR __imp_??4?$CStringT@DV?$StrTraitMFC_DLL@DV?$ChTraitsCRT@D@ATL@@@@@ATL@@QAEAAV01@ABV01@@Z
  009f3	3b f4		 cmp	 esi, esp
  009f5	e8 00 00 00 00	 call	 __RTC_CheckEsp
  009fa	c6 45 fc 0a	 mov	 BYTE PTR __$EHRec$[ebp+8], 10 ; 0000000aH
  009fe	8b f4		 mov	 esi, esp
  00a00	8d 8d d8 fe ff
	ff		 lea	 ecx, DWORD PTR $T188543[ebp]
  00a06	ff 15 00 00 00
	00		 call	 DWORD PTR __imp_??1?$CStringT@DV?$StrTraitMFC_DLL@DV?$ChTraitsCRT@D@ATL@@@@@ATL@@QAE@XZ
  00a0c	3b f4		 cmp	 esi, esp
  00a0e	e8 00 00 00 00	 call	 __RTC_CheckEsp
$L187858:

; 85   : 	}
; 86   : }

  00a13	c6 45 fc 06	 mov	 BYTE PTR __$EHRec$[ebp+8], 6
  00a17	8b f4		 mov	 esi, esp
  00a19	8d 8d 5c ff ff
	ff		 lea	 ecx, DWORD PTR _strDefaultPath$[ebp]
  00a1f	ff 15 00 00 00
	00		 call	 DWORD PTR __imp_??1?$basic_string@DU?$char_traits@D@std@@V?$allocator@D@2@@std@@QAE@XZ
  00a25	3b f4		 cmp	 esi, esp
  00a27	e8 00 00 00 00	 call	 __RTC_CheckEsp
  00a2c	c6 45 fc 00	 mov	 BYTE PTR __$EHRec$[ebp+8], 0
  00a30	8b f4		 mov	 esi, esp
  00a32	8d 4d 80	 lea	 ecx, DWORD PTR _strPictSavePath$[ebp]
  00a35	ff 15 00 00 00
	00		 call	 DWORD PTR __imp_??1?$basic_string@DU?$char_traits@D@std@@V?$allocator@D@2@@std@@QAE@XZ
  00a3b	3b f4		 cmp	 esi, esp
  00a3d	e8 00 00 00 00	 call	 __RTC_CheckEsp
  00a42	c7 45 fc ff ff
	ff ff		 mov	 DWORD PTR __$EHRec$[ebp+8], -1
  00a49	8b f4		 mov	 esi, esp
  00a4b	8d 4d c8	 lea	 ecx, DWORD PTR _strValue$[ebp]
  00a4e	ff 15 00 00 00
	00		 call	 DWORD PTR __imp_??1?$basic_string@DU?$char_traits@D@std@@V?$allocator@D@2@@std@@QAE@XZ
  00a54	3b f4		 cmp	 esi, esp
  00a56	e8 00 00 00 00	 call	 __RTC_CheckEsp
  00a5b	52		 push	 edx
  00a5c	8b cd		 mov	 ecx, ebp
  00a5e	50		 push	 eax
  00a5f	8d 15 00 00 00
	00		 lea	 edx, DWORD PTR $L188565
  00a65	e8 00 00 00 00	 call	 @_RTC_CheckStackVars@8
  00a6a	58		 pop	 eax
  00a6b	5a		 pop	 edx
  00a6c	8b 4d f4	 mov	 ecx, DWORD PTR __$EHRec$[ebp]
  00a6f	64 89 0d 00 00
	00 00		 mov	 DWORD PTR fs:__except_list, ecx
  00a76	8b 4d f0	 mov	 ecx, DWORD PTR __$ArrayPad$[ebp]
  00a79	e8 00 00 00 00	 call	 @__security_check_cookie@4
  00a7e	5f		 pop	 edi
  00a7f	5e		 pop	 esi
  00a80	81 c4 48 01 00
	00		 add	 esp, 328		; 00000148H
  00a86	3b ec		 cmp	 ebp, esp
  00a88	e8 00 00 00 00	 call	 __RTC_CheckEsp
  00a8d	8b e5		 mov	 esp, ebp
  00a8f	5d		 pop	 ebp
  00a90	c3		 ret	 0
$L188565:
  00a91	04 00 00 00	 DD	 4
  00a95	00 00 00 00	 DD	 $L188564
$L188564:
  00a99	c8 ff ff ff	 DD	 -56			; ffffffc8H
  00a9d	1c 00 00 00	 DD	 28			; 0000001cH
  00aa1	00 00 00 00	 DD	 $L188558
  00aa5	a4 ff ff ff	 DD	 -92			; ffffffa4H
  00aa9	1c 00 00 00	 DD	 28			; 0000001cH
  00aad	00 00 00 00	 DD	 $L188559
  00ab1	80 ff ff ff	 DD	 -128			; ffffff80H
  00ab5	1c 00 00 00	 DD	 28			; 0000001cH
  00ab9	00 00 00 00	 DD	 $L188560
  00abd	5c ff ff ff	 DD	 -164			; ffffff5cH
  00ac1	1c 00 00 00	 DD	 28			; 0000001cH
  00ac5	00 00 00 00	 DD	 $L188561
$L188561:
  00ac9	73		 DB	 115			; 00000073H
  00aca	74		 DB	 116			; 00000074H
  00acb	72		 DB	 114			; 00000072H
  00acc	44		 DB	 68			; 00000044H
  00acd	65		 DB	 101			; 00000065H
  00ace	66		 DB	 102			; 00000066H
  00acf	61		 DB	 97			; 00000061H
  00ad0	75		 DB	 117			; 00000075H
  00ad1	6c		 DB	 108			; 0000006cH
  00ad2	74		 DB	 116			; 00000074H
  00ad3	50		 DB	 80			; 00000050H
  00ad4	61		 DB	 97			; 00000061H
  00ad5	74		 DB	 116			; 00000074H
  00ad6	68		 DB	 104			; 00000068H
  00ad7	00		 DB	 0
$L188560:
  00ad8	73		 DB	 115			; 00000073H
  00ad9	74		 DB	 116			; 00000074H
  00ada	72		 DB	 114			; 00000072H
  00adb	50		 DB	 80			; 00000050H
  00adc	69		 DB	 105			; 00000069H
  00add	63		 DB	 99			; 00000063H
  00ade	74		 DB	 116			; 00000074H
  00adf	53		 DB	 83			; 00000053H
  00ae0	61		 DB	 97			; 00000061H
  00ae1	76		 DB	 118			; 00000076H
  00ae2	65		 DB	 101			; 00000065H
  00ae3	50		 DB	 80			; 00000050H
  00ae4	61		 DB	 97			; 00000061H
  00ae5	74		 DB	 116			; 00000074H
  00ae6	68		 DB	 104			; 00000068H
  00ae7	00		 DB	 0
$L188559:
  00ae8	73		 DB	 115			; 00000073H
  00ae9	74		 DB	 116			; 00000074H
  00aea	72		 DB	 114			; 00000072H
  00aeb	44		 DB	 68			; 00000044H
  00aec	65		 DB	 101			; 00000065H
  00aed	66		 DB	 102			; 00000066H
  00aee	61		 DB	 97			; 00000061H
  00aef	75		 DB	 117			; 00000075H
  00af0	6c		 DB	 108			; 0000006cH
  00af1	74		 DB	 116			; 00000074H
  00af2	50		 DB	 80			; 00000050H
  00af3	61		 DB	 97			; 00000061H
  00af4	74		 DB	 116			; 00000074H
  00af5	68		 DB	 104			; 00000068H
  00af6	00		 DB	 0
$L188558:
  00af7	73		 DB	 115			; 00000073H
  00af8	74		 DB	 116			; 00000074H
  00af9	72		 DB	 114			; 00000072H
  00afa	56		 DB	 86			; 00000056H
  00afb	61		 DB	 97			; 00000061H
  00afc	6c		 DB	 108			; 0000006cH
  00afd	75		 DB	 117			; 00000075H
  00afe	65		 DB	 101			; 00000065H
  00aff	00		 DB	 0
_TEXT	ENDS
text$x	SEGMENT
$L188544:
  0017a	8b f4		 mov	 esi, esp
  0017c	8d 4d c8	 lea	 ecx, DWORD PTR _strValue$[ebp]
  0017f	ff 15 00 00 00
	00		 call	 DWORD PTR __imp_??1?$basic_string@DU?$char_traits@D@std@@V?$allocator@D@2@@std@@QAE@XZ
  00185	3b f4		 cmp	 esi, esp
  00187	e9 00 00 00 00	 jmp	 __RTC_CheckEsp
$L188545:
  0018c	8b f4		 mov	 esi, esp
  0018e	8d 8d 3c ff ff
	ff		 lea	 ecx, DWORD PTR $T188536[ebp]
  00194	ff 15 00 00 00
	00		 call	 DWORD PTR __imp_??1?$basic_string@DU?$char_traits@D@std@@V?$allocator@D@2@@std@@QAE@XZ
  0019a	3b f4		 cmp	 esi, esp
  0019c	e9 00 00 00 00	 jmp	 __RTC_CheckEsp
$L188546:
  001a1	8b f4		 mov	 esi, esp
  001a3	8d 8d 20 ff ff
	ff		 lea	 ecx, DWORD PTR $T188537[ebp]
  001a9	ff 15 00 00 00
	00		 call	 DWORD PTR __imp_??1?$basic_string@DU?$char_traits@D@std@@V?$allocator@D@2@@std@@QAE@XZ
  001af	3b f4		 cmp	 esi, esp
  001b1	e9 00 00 00 00	 jmp	 __RTC_CheckEsp
$L188547:
  001b6	8b f4		 mov	 esi, esp
  001b8	8d 8d 1c ff ff
	ff		 lea	 ecx, DWORD PTR $T188538[ebp]
  001be	ff 15 00 00 00
	00		 call	 DWORD PTR __imp_??1?$CStringT@DV?$StrTraitMFC_DLL@DV?$ChTraitsCRT@D@ATL@@@@@ATL@@QAE@XZ
  001c4	3b f4		 cmp	 esi, esp
  001c6	e9 00 00 00 00	 jmp	 __RTC_CheckEsp
$L188548:
  001cb	8b f4		 mov	 esi, esp
  001cd	8d 4d a4	 lea	 ecx, DWORD PTR _strDefaultPath$187849[ebp]
  001d0	ff 15 00 00 00
	00		 call	 DWORD PTR __imp_??1?$basic_string@DU?$char_traits@D@std@@V?$allocator@D@2@@std@@QAE@XZ
  001d6	3b f4		 cmp	 esi, esp
  001d8	e9 00 00 00 00	 jmp	 __RTC_CheckEsp
$L188549:
  001dd	8b f4		 mov	 esi, esp
  001df	8d 8d 18 ff ff
	ff		 lea	 ecx, DWORD PTR $T188539[ebp]
  001e5	ff 15 00 00 00
	00		 call	 DWORD PTR __imp_??1?$CStringT@DV?$StrTraitMFC_DLL@DV?$ChTraitsCRT@D@ATL@@@@@ATL@@QAE@XZ
  001eb	3b f4		 cmp	 esi, esp
  001ed	e9 00 00 00 00	 jmp	 __RTC_CheckEsp
$L188550:
  001f2	8b f4		 mov	 esi, esp
  001f4	8d 4d 80	 lea	 ecx, DWORD PTR _strPictSavePath$[ebp]
  001f7	ff 15 00 00 00
	00		 call	 DWORD PTR __imp_??1?$basic_string@DU?$char_traits@D@std@@V?$allocator@D@2@@std@@QAE@XZ
  001fd	3b f4		 cmp	 esi, esp
  001ff	e9 00 00 00 00	 jmp	 __RTC_CheckEsp
$L188551:
  00204	8b f4		 mov	 esi, esp
  00206	8d 8d fc fe ff
	ff		 lea	 ecx, DWORD PTR $T188540[ebp]
  0020c	ff 15 00 00 00
	00		 call	 DWORD PTR __imp_??1?$basic_string@DU?$char_traits@D@std@@V?$allocator@D@2@@std@@QAE@XZ
  00212	3b f4		 cmp	 esi, esp
  00214	e9 00 00 00 00	 jmp	 __RTC_CheckEsp
$L188552:
  00219	8b f4		 mov	 esi, esp
  0021b	8d 8d e0 fe ff
	ff		 lea	 ecx, DWORD PTR $T188541[ebp]
  00221	ff 15 00 00 00
	00		 call	 DWORD PTR __imp_??1?$basic_string@DU?$char_traits@D@std@@V?$allocator@D@2@@std@@QAE@XZ
  00227	3b f4		 cmp	 esi, esp
  00229	e9 00 00 00 00	 jmp	 __RTC_CheckEsp
$L188553:
  0022e	8b f4		 mov	 esi, esp
  00230	8d 8d dc fe ff
	ff		 lea	 ecx, DWORD PTR $T188542[ebp]
  00236	ff 15 00 00 00
	00		 call	 DWORD PTR __imp_??1?$CStringT@DV?$StrTraitMFC_DLL@DV?$ChTraitsCRT@D@ATL@@@@@ATL@@QAE@XZ
  0023c	3b f4		 cmp	 esi, esp
  0023e	e9 00 00 00 00	 jmp	 __RTC_CheckEsp
$L188554:
  00243	8b f4		 mov	 esi, esp
  00245	8d 8d 5c ff ff
	ff		 lea	 ecx, DWORD PTR _strDefaultPath$[ebp]
  0024b	ff 15 00 00 00
	00		 call	 DWORD PTR __imp_??1?$basic_string@DU?$char_traits@D@std@@V?$allocator@D@2@@std@@QAE@XZ
  00251	3b f4		 cmp	 esi, esp
  00253	e9 00 00 00 00	 jmp	 __RTC_CheckEsp
$L188555:
  00258	8b f4		 mov	 esi, esp
  0025a	8d 8d d8 fe ff
	ff		 lea	 ecx, DWORD PTR $T188543[ebp]
  00260	ff 15 00 00 00
	00		 call	 DWORD PTR __imp_??1?$CStringT@DV?$StrTraitMFC_DLL@DV?$ChTraitsCRT@D@ATL@@@@@ATL@@QAE@XZ
  00266	3b f4		 cmp	 esi, esp
  00268	e9 00 00 00 00	 jmp	 __RTC_CheckEsp
__ehhandler$?LoadConf@CDownDialog@@UAEXXZ:
  0026d	b8 00 00 00 00	 mov	 eax, OFFSET FLAT:$T188557
  00272	e9 00 00 00 00	 jmp	 ___CxxFrameHandler
text$x	ENDS
?LoadConf@CDownDialog@@UAEXXZ ENDP			; CDownDialog::LoadConf
xdata$x	SEGMENT
$T188579 DD	0ffffffffH
	DD	FLAT:$L188572
	DD	00H
	DD	FLAT:$L188573
	DD	0ffffffffH
	DD	FLAT:$L188574
	DD	02H
	DD	FLAT:$L188575
$T188577 DD	019930520H
	DD	04H
	DD	FLAT:$T188579
	DD	2 DUP(00H)
	DD	2 DUP(00H)
; Function compile flags: /Odt /RTCsu
xdata$x	ENDS
_TEXT	SEGMENT
tv133 = -112						; size = 4
tv143 = -108						; size = 4
tv131 = -104						; size = 4
tv140 = -100						; size = 4
tv129 = -96						; size = 4
tv137 = -92						; size = 4
tv95 = -88						; size = 4
tv134 = -84						; size = 4
$T188571 = -80						; size = 28
$T188570 = -52						; size = 4
$T188569 = -48						; size = 28
$T188568 = -20						; size = 4
_this$ = -16						; size = 4
__$EHRec$ = -12						; size = 12
?SetDefault@CDownDialog@@UAEXXZ PROC NEAR		; CDownDialog::SetDefault
; _this$ = ecx

; 89   : {

  00b00	55		 push	 ebp
  00b01	8b ec		 mov	 ebp, esp
  00b03	6a ff		 push	 -1
  00b05	68 00 00 00 00	 push	 __ehhandler$?SetDefault@CDownDialog@@UAEXXZ
  00b0a	64 a1 00 00 00
	00		 mov	 eax, DWORD PTR fs:__except_list
  00b10	50		 push	 eax
  00b11	64 89 25 00 00
	00 00		 mov	 DWORD PTR fs:__except_list, esp
  00b18	83 ec 64	 sub	 esp, 100		; 00000064H
  00b1b	56		 push	 esi
  00b1c	57		 push	 edi
  00b1d	51		 push	 ecx
  00b1e	8d 7d 90	 lea	 edi, DWORD PTR [ebp-112]
  00b21	b9 19 00 00 00	 mov	 ecx, 25			; 00000019H
  00b26	b8 cc cc cc cc	 mov	 eax, -858993460		; ccccccccH
  00b2b	f3 ab		 rep stosd
  00b2d	59		 pop	 ecx
  00b2e	89 4d f0	 mov	 DWORD PTR _this$[ebp], ecx

; 90   : 	m_strSwfPath = CString( ConfigParaDefault::GetDefaultAPP_SWF_PATH().c_str() );

  00b31	8d 45 d0	 lea	 eax, DWORD PTR $T188569[ebp]
  00b34	50		 push	 eax
  00b35	e8 00 00 00 00	 call	 ?GetDefaultAPP_SWF_PATH@ConfigParaDefault@@SA?AV?$basic_string@DU?$char_traits@D@std@@V?$allocator@D@2@@std@@XZ ; ConfigParaDefault::GetDefaultAPP_SWF_PATH
  00b3a	83 c4 04	 add	 esp, 4
  00b3d	89 45 ac	 mov	 DWORD PTR tv134[ebp], eax
  00b40	8b 4d ac	 mov	 ecx, DWORD PTR tv134[ebp]
  00b43	89 4d a8	 mov	 DWORD PTR tv95[ebp], ecx
  00b46	c7 45 fc 00 00
	00 00		 mov	 DWORD PTR __$EHRec$[ebp+8], 0
  00b4d	8b f4		 mov	 esi, esp
  00b4f	8b 4d a8	 mov	 ecx, DWORD PTR tv95[ebp]
  00b52	ff 15 00 00 00
	00		 call	 DWORD PTR __imp_?c_str@?$basic_string@DU?$char_traits@D@std@@V?$allocator@D@2@@std@@QBEPBDXZ
  00b58	3b f4		 cmp	 esi, esp
  00b5a	e8 00 00 00 00	 call	 __RTC_CheckEsp
  00b5f	8b f4		 mov	 esi, esp
  00b61	50		 push	 eax
  00b62	8d 4d ec	 lea	 ecx, DWORD PTR $T188568[ebp]
  00b65	ff 15 00 00 00
	00		 call	 DWORD PTR __imp_??0?$CStringT@DV?$StrTraitMFC_DLL@DV?$ChTraitsCRT@D@ATL@@@@@ATL@@QAE@PBD@Z
  00b6b	3b f4		 cmp	 esi, esp
  00b6d	e8 00 00 00 00	 call	 __RTC_CheckEsp
  00b72	89 45 a4	 mov	 DWORD PTR tv137[ebp], eax
  00b75	8b 55 a4	 mov	 edx, DWORD PTR tv137[ebp]
  00b78	89 55 a0	 mov	 DWORD PTR tv129[ebp], edx
  00b7b	c6 45 fc 01	 mov	 BYTE PTR __$EHRec$[ebp+8], 1
  00b7f	8b f4		 mov	 esi, esp
  00b81	8b 45 a0	 mov	 eax, DWORD PTR tv129[ebp]
  00b84	50		 push	 eax
  00b85	8b 4d f0	 mov	 ecx, DWORD PTR _this$[ebp]
  00b88	81 c1 58 01 00
	00		 add	 ecx, 344		; 00000158H
  00b8e	ff 15 00 00 00
	00		 call	 DWORD PTR __imp_??4?$CStringT@DV?$StrTraitMFC_DLL@DV?$ChTraitsCRT@D@ATL@@@@@ATL@@QAEAAV01@ABV01@@Z
  00b94	3b f4		 cmp	 esi, esp
  00b96	e8 00 00 00 00	 call	 __RTC_CheckEsp
  00b9b	c6 45 fc 00	 mov	 BYTE PTR __$EHRec$[ebp+8], 0
  00b9f	8b f4		 mov	 esi, esp
  00ba1	8d 4d ec	 lea	 ecx, DWORD PTR $T188568[ebp]
  00ba4	ff 15 00 00 00
	00		 call	 DWORD PTR __imp_??1?$CStringT@DV?$StrTraitMFC_DLL@DV?$ChTraitsCRT@D@ATL@@@@@ATL@@QAE@XZ
  00baa	3b f4		 cmp	 esi, esp
  00bac	e8 00 00 00 00	 call	 __RTC_CheckEsp
  00bb1	c7 45 fc ff ff
	ff ff		 mov	 DWORD PTR __$EHRec$[ebp+8], -1
  00bb8	8b f4		 mov	 esi, esp
  00bba	8d 4d d0	 lea	 ecx, DWORD PTR $T188569[ebp]
  00bbd	ff 15 00 00 00
	00		 call	 DWORD PTR __imp_??1?$basic_string@DU?$char_traits@D@std@@V?$allocator@D@2@@std@@QAE@XZ
  00bc3	3b f4		 cmp	 esi, esp
  00bc5	e8 00 00 00 00	 call	 __RTC_CheckEsp

; 91   : 	m_strPicSavePath =CString( ConfigParaDefault::GetDefaultAPP_PicSave_Path().c_str());

  00bca	8d 4d b0	 lea	 ecx, DWORD PTR $T188571[ebp]
  00bcd	51		 push	 ecx
  00bce	e8 00 00 00 00	 call	 ?GetDefaultAPP_PicSave_Path@ConfigParaDefault@@SA?AV?$basic_string@DU?$char_traits@D@std@@V?$allocator@D@2@@std@@XZ ; ConfigParaDefault::GetDefaultAPP_PicSave_Path
  00bd3	83 c4 04	 add	 esp, 4
  00bd6	89 45 9c	 mov	 DWORD PTR tv140[ebp], eax
  00bd9	8b 55 9c	 mov	 edx, DWORD PTR tv140[ebp]
  00bdc	89 55 98	 mov	 DWORD PTR tv131[ebp], edx
  00bdf	c7 45 fc 02 00
	00 00		 mov	 DWORD PTR __$EHRec$[ebp+8], 2
  00be6	8b f4		 mov	 esi, esp
  00be8	8b 4d 98	 mov	 ecx, DWORD PTR tv131[ebp]
  00beb	ff 15 00 00 00
	00		 call	 DWORD PTR __imp_?c_str@?$basic_string@DU?$char_traits@D@std@@V?$allocator@D@2@@std@@QBEPBDXZ
  00bf1	3b f4		 cmp	 esi, esp
  00bf3	e8 00 00 00 00	 call	 __RTC_CheckEsp
  00bf8	8b f4		 mov	 esi, esp
  00bfa	50		 push	 eax
  00bfb	8d 4d cc	 lea	 ecx, DWORD PTR $T188570[ebp]
  00bfe	ff 15 00 00 00
	00		 call	 DWORD PTR __imp_??0?$CStringT@DV?$StrTraitMFC_DLL@DV?$ChTraitsCRT@D@ATL@@@@@ATL@@QAE@PBD@Z
  00c04	3b f4		 cmp	 esi, esp
  00c06	e8 00 00 00 00	 call	 __RTC_CheckEsp
  00c0b	89 45 94	 mov	 DWORD PTR tv143[ebp], eax
  00c0e	8b 45 94	 mov	 eax, DWORD PTR tv143[ebp]
  00c11	89 45 90	 mov	 DWORD PTR tv133[ebp], eax
  00c14	c6 45 fc 03	 mov	 BYTE PTR __$EHRec$[ebp+8], 3
  00c18	8b f4		 mov	 esi, esp
  00c1a	8b 4d 90	 mov	 ecx, DWORD PTR tv133[ebp]
  00c1d	51		 push	 ecx
  00c1e	8b 4d f0	 mov	 ecx, DWORD PTR _this$[ebp]
  00c21	81 c1 b0 01 00
	00		 add	 ecx, 432		; 000001b0H
  00c27	ff 15 00 00 00
	00		 call	 DWORD PTR __imp_??4?$CStringT@DV?$StrTraitMFC_DLL@DV?$ChTraitsCRT@D@ATL@@@@@ATL@@QAEAAV01@ABV01@@Z
  00c2d	3b f4		 cmp	 esi, esp
  00c2f	e8 00 00 00 00	 call	 __RTC_CheckEsp
  00c34	c6 45 fc 02	 mov	 BYTE PTR __$EHRec$[ebp+8], 2
  00c38	8b f4		 mov	 esi, esp
  00c3a	8d 4d cc	 lea	 ecx, DWORD PTR $T188570[ebp]
  00c3d	ff 15 00 00 00
	00		 call	 DWORD PTR __imp_??1?$CStringT@DV?$StrTraitMFC_DLL@DV?$ChTraitsCRT@D@ATL@@@@@ATL@@QAE@XZ
  00c43	3b f4		 cmp	 esi, esp
  00c45	e8 00 00 00 00	 call	 __RTC_CheckEsp
  00c4a	c7 45 fc ff ff
	ff ff		 mov	 DWORD PTR __$EHRec$[ebp+8], -1
  00c51	8b f4		 mov	 esi, esp
  00c53	8d 4d b0	 lea	 ecx, DWORD PTR $T188571[ebp]
  00c56	ff 15 00 00 00
	00		 call	 DWORD PTR __imp_??1?$basic_string@DU?$char_traits@D@std@@V?$allocator@D@2@@std@@QAE@XZ
  00c5c	3b f4		 cmp	 esi, esp
  00c5e	e8 00 00 00 00	 call	 __RTC_CheckEsp

; 92   : 	UpdateData( FALSE );

  00c63	6a 00		 push	 0
  00c65	8b 4d f0	 mov	 ecx, DWORD PTR _this$[ebp]
  00c68	e8 00 00 00 00	 call	 ?UpdateData@CWnd@@QAEHH@Z ; CWnd::UpdateData

; 93   : }

  00c6d	8b 4d f4	 mov	 ecx, DWORD PTR __$EHRec$[ebp]
  00c70	64 89 0d 00 00
	00 00		 mov	 DWORD PTR fs:__except_list, ecx
  00c77	5f		 pop	 edi
  00c78	5e		 pop	 esi
  00c79	83 c4 70	 add	 esp, 112		; 00000070H
  00c7c	3b ec		 cmp	 ebp, esp
  00c7e	e8 00 00 00 00	 call	 __RTC_CheckEsp
  00c83	8b e5		 mov	 esp, ebp
  00c85	5d		 pop	 ebp
  00c86	c3		 ret	 0
_TEXT	ENDS
text$x	SEGMENT
$L188572:
  00277	8b f4		 mov	 esi, esp
  00279	8d 4d d0	 lea	 ecx, DWORD PTR $T188569[ebp]
  0027c	ff 15 00 00 00
	00		 call	 DWORD PTR __imp_??1?$basic_string@DU?$char_traits@D@std@@V?$allocator@D@2@@std@@QAE@XZ
  00282	3b f4		 cmp	 esi, esp
  00284	e9 00 00 00 00	 jmp	 __RTC_CheckEsp
$L188573:
  00289	8b f4		 mov	 esi, esp
  0028b	8d 4d ec	 lea	 ecx, DWORD PTR $T188568[ebp]
  0028e	ff 15 00 00 00
	00		 call	 DWORD PTR __imp_??1?$CStringT@DV?$StrTraitMFC_DLL@DV?$ChTraitsCRT@D@ATL@@@@@ATL@@QAE@XZ
  00294	3b f4		 cmp	 esi, esp
  00296	e9 00 00 00 00	 jmp	 __RTC_CheckEsp
$L188574:
  0029b	8b f4		 mov	 esi, esp
  0029d	8d 4d b0	 lea	 ecx, DWORD PTR $T188571[ebp]
  002a0	ff 15 00 00 00
	00		 call	 DWORD PTR __imp_??1?$basic_string@DU?$char_traits@D@std@@V?$allocator@D@2@@std@@QAE@XZ
  002a6	3b f4		 cmp	 esi, esp
  002a8	e9 00 00 00 00	 jmp	 __RTC_CheckEsp
$L188575:
  002ad	8b f4		 mov	 esi, esp
  002af	8d 4d cc	 lea	 ecx, DWORD PTR $T188570[ebp]
  002b2	ff 15 00 00 00
	00		 call	 DWORD PTR __imp_??1?$CStringT@DV?$StrTraitMFC_DLL@DV?$ChTraitsCRT@D@ATL@@@@@ATL@@QAE@XZ
  002b8	3b f4		 cmp	 esi, esp
  002ba	e9 00 00 00 00	 jmp	 __RTC_CheckEsp
__ehhandler$?SetDefault@CDownDialog@@UAEXXZ:
  002bf	b8 00 00 00 00	 mov	 eax, OFFSET FLAT:$T188577
  002c4	e9 00 00 00 00	 jmp	 ___CxxFrameHandler
text$x	ENDS
?SetDefault@CDownDialog@@UAEXXZ ENDP			; CDownDialog::SetDefault
EXTRN	__imp_??4?$basic_string@DU?$char_traits@D@std@@V?$allocator@D@2@@std@@QAEAAV01@PBD@Z:NEAR
EXTRN	?IsPathValid@ConfigParaDefault@@SA_NAAV?$basic_string@DU?$char_traits@D@std@@V?$allocator@D@2@@std@@@Z:NEAR ; ConfigParaDefault::IsPathValid
xdata$x	SEGMENT
$T188592 DD	0ffffffffH
	DD	FLAT:$L188584
$T188586 DD	019930520H
	DD	01H
	DD	FLAT:$T188592
	DD	2 DUP(00H)
	DD	2 DUP(00H)
; Function compile flags: /Odt /RTCsu
xdata$x	ENDS
_TEXT	SEGMENT
$T188583 = -58						; size = 1
$T188582 = -57						; size = 1
_strSwfPath$ = -52					; size = 28
_this$ = -20						; size = 4
__$ArrayPad$ = -16					; size = 4
__$EHRec$ = -12						; size = 12
__$ReturnAddr$ = 4					; size = 4
_strMsg$ = 8						; size = 4
?IsAllInputOK@CDownDialog@@UAE_NAAV?$basic_string@DU?$char_traits@D@std@@V?$allocator@D@2@@std@@@Z PROC NEAR ; CDownDialog::IsAllInputOK
; _this$ = ecx

; 96   : {

  00c90	55		 push	 ebp
  00c91	8b ec		 mov	 ebp, esp
  00c93	6a ff		 push	 -1
  00c95	68 00 00 00 00	 push	 __ehhandler$?IsAllInputOK@CDownDialog@@UAE_NAAV?$basic_string@DU?$char_traits@D@std@@V?$allocator@D@2@@std@@@Z
  00c9a	64 a1 00 00 00
	00		 mov	 eax, DWORD PTR fs:__except_list
  00ca0	50		 push	 eax
  00ca1	64 89 25 00 00
	00 00		 mov	 DWORD PTR fs:__except_list, esp
  00ca8	83 ec 30	 sub	 esp, 48			; 00000030H
  00cab	56		 push	 esi
  00cac	57		 push	 edi
  00cad	51		 push	 ecx
  00cae	8d 7d c4	 lea	 edi, DWORD PTR [ebp-60]
  00cb1	b9 0c 00 00 00	 mov	 ecx, 12			; 0000000cH
  00cb6	b8 cc cc cc cc	 mov	 eax, -858993460		; ccccccccH
  00cbb	f3 ab		 rep stosd
  00cbd	59		 pop	 ecx
  00cbe	a1 00 00 00 00	 mov	 eax, DWORD PTR ___security_cookie
  00cc3	89 45 f0	 mov	 DWORD PTR __$ArrayPad$[ebp], eax
  00cc6	89 4d ec	 mov	 DWORD PTR _this$[ebp], ecx

; 97   : 	if( UpdateData() == FALSE )

  00cc9	6a 01		 push	 1
  00ccb	8b 4d ec	 mov	 ecx, DWORD PTR _this$[ebp]
  00cce	e8 00 00 00 00	 call	 ?UpdateData@CWnd@@QAEHH@Z ; CWnd::UpdateData
  00cd3	85 c0		 test	 eax, eax
  00cd5	75 07		 jne	 SHORT $L187872

; 98   : 		return false;

  00cd7	32 c0		 xor	 al, al
  00cd9	e9 9e 00 00 00	 jmp	 $L187871
$L187872:

; 99   : 
; 100  : 	//
; 101  : 	string strSwfPath = string( m_strSwfPath );

  00cde	8b 4d ec	 mov	 ecx, DWORD PTR _this$[ebp]
  00ce1	81 c1 58 01 00
	00		 add	 ecx, 344		; 00000158H
  00ce7	8b f4		 mov	 esi, esp
  00ce9	ff 15 00 00 00
	00		 call	 DWORD PTR __imp_??B?$CSimpleStringT@D$00@ATL@@QBEPBDXZ
  00cef	3b f4		 cmp	 esi, esp
  00cf1	e8 00 00 00 00	 call	 __RTC_CheckEsp
  00cf6	8b f4		 mov	 esi, esp
  00cf8	50		 push	 eax
  00cf9	8d 4d cc	 lea	 ecx, DWORD PTR _strSwfPath$[ebp]
  00cfc	ff 15 00 00 00
	00		 call	 DWORD PTR __imp_??0?$basic_string@DU?$char_traits@D@std@@V?$allocator@D@2@@std@@QAE@PBD@Z
  00d02	3b f4		 cmp	 esi, esp
  00d04	e8 00 00 00 00	 call	 __RTC_CheckEsp
  00d09	c7 45 fc 00 00
	00 00		 mov	 DWORD PTR __$EHRec$[ebp+8], 0

; 102  : 	if( ConfigParaDefault::IsPathValid( strSwfPath ) )

  00d10	8d 45 cc	 lea	 eax, DWORD PTR _strSwfPath$[ebp]
  00d13	50		 push	 eax
  00d14	e8 00 00 00 00	 call	 ?IsPathValid@ConfigParaDefault@@SA_NAAV?$basic_string@DU?$char_traits@D@std@@V?$allocator@D@2@@std@@@Z ; ConfigParaDefault::IsPathValid
  00d19	83 c4 04	 add	 esp, 4
  00d1c	0f b6 c8	 movzx	 ecx, al
  00d1f	85 c9		 test	 ecx, ecx
  00d21	74 22		 je	 SHORT $L187875

; 103  : 	{
; 104  : 		return true;

  00d23	c6 45 c7 01	 mov	 BYTE PTR $T188582[ebp], 1
  00d27	c7 45 fc ff ff
	ff ff		 mov	 DWORD PTR __$EHRec$[ebp+8], -1
  00d2e	8b f4		 mov	 esi, esp
  00d30	8d 4d cc	 lea	 ecx, DWORD PTR _strSwfPath$[ebp]
  00d33	ff 15 00 00 00
	00		 call	 DWORD PTR __imp_??1?$basic_string@DU?$char_traits@D@std@@V?$allocator@D@2@@std@@QAE@XZ
  00d39	3b f4		 cmp	 esi, esp
  00d3b	e8 00 00 00 00	 call	 __RTC_CheckEsp
  00d40	8a 45 c7	 mov	 al, BYTE PTR $T188582[ebp]
  00d43	eb 37		 jmp	 SHORT $L187871
$L187875:

; 105  : 	}else
; 106  : 	{
; 107  : 		strMsg = "";

  00d45	8b f4		 mov	 esi, esp
  00d47	68 00 00 00 00	 push	 OFFSET FLAT:$SG187878
  00d4c	8b 4d 08	 mov	 ecx, DWORD PTR _strMsg$[ebp]
  00d4f	ff 15 00 00 00
	00		 call	 DWORD PTR __imp_??4?$basic_string@DU?$char_traits@D@std@@V?$allocator@D@2@@std@@QAEAAV01@PBD@Z
  00d55	3b f4		 cmp	 esi, esp
  00d57	e8 00 00 00 00	 call	 __RTC_CheckEsp

; 108  : 		return false;

  00d5c	c6 45 c6 00	 mov	 BYTE PTR $T188583[ebp], 0
  00d60	c7 45 fc ff ff
	ff ff		 mov	 DWORD PTR __$EHRec$[ebp+8], -1
  00d67	8b f4		 mov	 esi, esp
  00d69	8d 4d cc	 lea	 ecx, DWORD PTR _strSwfPath$[ebp]
  00d6c	ff 15 00 00 00
	00		 call	 DWORD PTR __imp_??1?$basic_string@DU?$char_traits@D@std@@V?$allocator@D@2@@std@@QAE@XZ
  00d72	3b f4		 cmp	 esi, esp
  00d74	e8 00 00 00 00	 call	 __RTC_CheckEsp
  00d79	8a 45 c6	 mov	 al, BYTE PTR $T188583[ebp]
$L187871:

; 109  : 	}
; 110  : }

  00d7c	52		 push	 edx
  00d7d	8b cd		 mov	 ecx, ebp
  00d7f	50		 push	 eax
  00d80	8d 15 00 00 00
	00		 lea	 edx, DWORD PTR $L188591
  00d86	e8 00 00 00 00	 call	 @_RTC_CheckStackVars@8
  00d8b	58		 pop	 eax
  00d8c	5a		 pop	 edx
  00d8d	8b 4d f4	 mov	 ecx, DWORD PTR __$EHRec$[ebp]
  00d90	64 89 0d 00 00
	00 00		 mov	 DWORD PTR fs:__except_list, ecx
  00d97	8b 4d f0	 mov	 ecx, DWORD PTR __$ArrayPad$[ebp]
  00d9a	e8 00 00 00 00	 call	 @__security_check_cookie@4
  00d9f	5f		 pop	 edi
  00da0	5e		 pop	 esi
  00da1	83 c4 3c	 add	 esp, 60			; 0000003cH
  00da4	3b ec		 cmp	 ebp, esp
  00da6	e8 00 00 00 00	 call	 __RTC_CheckEsp
  00dab	8b e5		 mov	 esp, ebp
  00dad	5d		 pop	 ebp
  00dae	c2 04 00	 ret	 4
$L188591:
  00db1	01 00 00 00	 DD	 1
  00db5	00 00 00 00	 DD	 $L188590
$L188590:
  00db9	cc ff ff ff	 DD	 -52			; ffffffccH
  00dbd	1c 00 00 00	 DD	 28			; 0000001cH
  00dc1	00 00 00 00	 DD	 $L188587
$L188587:
  00dc5	73		 DB	 115			; 00000073H
  00dc6	74		 DB	 116			; 00000074H
  00dc7	72		 DB	 114			; 00000072H
  00dc8	53		 DB	 83			; 00000053H
  00dc9	77		 DB	 119			; 00000077H
  00dca	66		 DB	 102			; 00000066H
  00dcb	50		 DB	 80			; 00000050H
  00dcc	61		 DB	 97			; 00000061H
  00dcd	74		 DB	 116			; 00000074H
  00dce	68		 DB	 104			; 00000068H
  00dcf	00		 DB	 0
_TEXT	ENDS
text$x	SEGMENT
$L188584:
  002c9	8b f4		 mov	 esi, esp
  002cb	8d 4d cc	 lea	 ecx, DWORD PTR _strSwfPath$[ebp]
  002ce	ff 15 00 00 00
	00		 call	 DWORD PTR __imp_??1?$basic_string@DU?$char_traits@D@std@@V?$allocator@D@2@@std@@QAE@XZ
  002d4	3b f4		 cmp	 esi, esp
  002d6	e9 00 00 00 00	 jmp	 __RTC_CheckEsp
__ehhandler$?IsAllInputOK@CDownDialog@@UAE_NAAV?$basic_string@DU?$char_traits@D@std@@V?$allocator@D@2@@std@@@Z:
  002db	b8 00 00 00 00	 mov	 eax, OFFSET FLAT:$T188586
  002e0	e9 00 00 00 00	 jmp	 ___CxxFrameHandler
text$x	ENDS
?IsAllInputOK@CDownDialog@@UAE_NAAV?$basic_string@DU?$char_traits@D@std@@V?$allocator@D@2@@std@@@Z ENDP ; CDownDialog::IsAllInputOK
EXTRN	__imp__SHGetPathFromIDListA@8:NEAR
EXTRN	__imp__SHGetMalloc@4:NEAR
EXTRN	__imp__SHBrowseForFolderA@4:NEAR
EXTRN	?SetWindowTextA@CWnd@@QAEXPBD@Z:NEAR		; CWnd::SetWindowTextA
EXTRN	_memset:NEAR
EXTRN	?SetFocus@CWnd@@QAEPAV1@XZ:NEAR			; CWnd::SetFocus
EXTRN	?MakeDir@YL_DirInfo@@SA_NPBD@Z:NEAR		; YL_DirInfo::MakeDir
EXTRN	__imp_??4?$CStringT@DV?$StrTraitMFC_DLL@DV?$ChTraitsCRT@D@ATL@@@@@ATL@@QAEAAV01@PBD@Z:NEAR
; Function compile flags: /Odt /RTCsu
_TEXT	SEGMENT
_pMalloc$187896 = -592					; size = 4
_szFolder$ = -580					; size = 520
_bRet$ = -56						; size = 4
_pidl$ = -52						; size = 4
_bi$ = -44						; size = 32
_this$ = -8						; size = 4
__$ArrayPad$ = -4					; size = 4
__$ReturnAddr$ = 4					; size = 4
?OnBnClickedButton1@CDownDialog@@IAEXXZ PROC NEAR	; CDownDialog::OnBnClickedButton1
; _this$ = ecx

; 113  : {

  00dd0	55		 push	 ebp
  00dd1	8b ec		 mov	 ebp, esp
  00dd3	81 ec 54 02 00
	00		 sub	 esp, 596		; 00000254H
  00dd9	56		 push	 esi
  00dda	57		 push	 edi
  00ddb	51		 push	 ecx
  00ddc	8d bd ac fd ff
	ff		 lea	 edi, DWORD PTR [ebp-596]
  00de2	b9 95 00 00 00	 mov	 ecx, 149		; 00000095H
  00de7	b8 cc cc cc cc	 mov	 eax, -858993460		; ccccccccH
  00dec	f3 ab		 rep stosd
  00dee	59		 pop	 ecx
  00def	a1 00 00 00 00	 mov	 eax, DWORD PTR ___security_cookie
  00df4	89 45 fc	 mov	 DWORD PTR __$ArrayPad$[ebp], eax
  00df7	89 4d f8	 mov	 DWORD PTR _this$[ebp], ecx

; 114  : 	//
; 115  : 	BROWSEINFO bi;
; 116  : 	ZeroMemory(&bi, sizeof(BROWSEINFO));

  00dfa	6a 20		 push	 32			; 00000020H
  00dfc	6a 00		 push	 0
  00dfe	8d 45 d4	 lea	 eax, DWORD PTR _bi$[ebp]
  00e01	50		 push	 eax
  00e02	e8 00 00 00 00	 call	 _memset
  00e07	83 c4 0c	 add	 esp, 12			; 0000000cH

; 117  : 
; 118  : 	bi.hwndOwner = this->m_hWnd;//m_hWnd;

  00e0a	8b 4d f8	 mov	 ecx, DWORD PTR _this$[ebp]
  00e0d	8b 51 20	 mov	 edx, DWORD PTR [ecx+32]
  00e10	89 55 d4	 mov	 DWORD PTR _bi$[ebp], edx

; 119  : 	bi.ulFlags   = BIF_RETURNONLYFSDIRS;

  00e13	c7 45 e4 01 00
	00 00		 mov	 DWORD PTR _bi$[ebp+16], 1

; 120  : 	bi.lpszTitle = "";

  00e1a	c7 45 e0 00 00
	00 00		 mov	 DWORD PTR _bi$[ebp+12], OFFSET FLAT:$SG187885

; 121  : 	LPITEMIDLIST pidl = SHBrowseForFolder(&bi);

  00e21	8b f4		 mov	 esi, esp
  00e23	8d 45 d4	 lea	 eax, DWORD PTR _bi$[ebp]
  00e26	50		 push	 eax
  00e27	ff 15 00 00 00
	00		 call	 DWORD PTR __imp__SHBrowseForFolderA@4
  00e2d	3b f4		 cmp	 esi, esp
  00e2f	e8 00 00 00 00	 call	 __RTC_CheckEsp
  00e34	89 45 cc	 mov	 DWORD PTR _pidl$[ebp], eax

; 122  : 
; 123  : 	BOOL bRet = FALSE;

  00e37	c7 45 c8 00 00
	00 00		 mov	 DWORD PTR _bRet$[ebp], 0

; 124  : 
; 125  : 	TCHAR szFolder[MAX_PATH*2];
; 126  : 	szFolder[0] = _T('\0');

  00e3e	c6 85 bc fd ff
	ff 00		 mov	 BYTE PTR _szFolder$[ebp], 0

; 127  : 
; 128  : 	if (pidl)

  00e45	83 7d cc 00	 cmp	 DWORD PTR _pidl$[ebp], 0
  00e49	0f 84 30 01 00
	00		 je	 $L187882

; 129  : 	{
; 130  : 		if (SHGetPathFromIDList(pidl, szFolder))

  00e4f	8b f4		 mov	 esi, esp
  00e51	8d 8d bc fd ff
	ff		 lea	 ecx, DWORD PTR _szFolder$[ebp]
  00e57	51		 push	 ecx
  00e58	8b 55 cc	 mov	 edx, DWORD PTR _pidl$[ebp]
  00e5b	52		 push	 edx
  00e5c	ff 15 00 00 00
	00		 call	 DWORD PTR __imp__SHGetPathFromIDListA@8
  00e62	3b f4		 cmp	 esi, esp
  00e64	e8 00 00 00 00	 call	 __RTC_CheckEsp
  00e69	85 c0		 test	 eax, eax
  00e6b	0f 84 a7 00 00
	00		 je	 $L187890

; 131  : 		{
; 132  : 			if( YL_DirInfo::MakeDir(szFolder) )

  00e71	8d 85 bc fd ff
	ff		 lea	 eax, DWORD PTR _szFolder$[ebp]
  00e77	50		 push	 eax
  00e78	e8 00 00 00 00	 call	 ?MakeDir@YL_DirInfo@@SA_NPBD@Z ; YL_DirInfo::MakeDir
  00e7d	83 c4 04	 add	 esp, 4
  00e80	0f b6 c8	 movzx	 ecx, al
  00e83	85 c9		 test	 ecx, ecx
  00e85	74 21		 je	 SHORT $L187891

; 133  : 			{
; 134  : 				m_strSwfPath = szFolder;

  00e87	8b f4		 mov	 esi, esp
  00e89	8d 95 bc fd ff
	ff		 lea	 edx, DWORD PTR _szFolder$[ebp]
  00e8f	52		 push	 edx
  00e90	8b 4d f8	 mov	 ecx, DWORD PTR _this$[ebp]
  00e93	81 c1 58 01 00
	00		 add	 ecx, 344		; 00000158H
  00e99	ff 15 00 00 00
	00		 call	 DWORD PTR __imp_??4?$CStringT@DV?$StrTraitMFC_DLL@DV?$ChTraitsCRT@D@ATL@@@@@ATL@@QAEAAV01@PBD@Z
  00e9f	3b f4		 cmp	 esi, esp
  00ea1	e8 00 00 00 00	 call	 __RTC_CheckEsp

; 135  : 			}
; 136  : 			else

  00ea6	eb 1d		 jmp	 SHORT $L187892
$L187891:

; 137  : 			{
; 138  : 				if( MessageBox(", !", "", MB_OK) == 0 )

  00ea8	6a 00		 push	 0
  00eaa	68 00 00 00 00	 push	 OFFSET FLAT:$SG187894
  00eaf	68 00 00 00 00	 push	 OFFSET FLAT:$SG187895
  00eb4	8b 4d f8	 mov	 ecx, DWORD PTR _this$[ebp]
  00eb7	e8 00 00 00 00	 call	 ?MessageBoxA@CWnd@@QAEHPBD0I@Z ; CWnd::MessageBoxA
  00ebc	85 c0		 test	 eax, eax
  00ebe	75 05		 jne	 SHORT $L187892

; 139  : 					return;

  00ec0	e9 ba 00 00 00	 jmp	 $L187882
$L187892:

; 140  : 			}
; 141  : 			m_EditSwfPath.SetWindowText( m_strSwfPath );

  00ec5	8b 4d f8	 mov	 ecx, DWORD PTR _this$[ebp]
  00ec8	81 c1 58 01 00
	00		 add	 ecx, 344		; 00000158H
  00ece	8b f4		 mov	 esi, esp
  00ed0	ff 15 00 00 00
	00		 call	 DWORD PTR __imp_??B?$CSimpleStringT@D$00@ATL@@QBEPBDXZ
  00ed6	3b f4		 cmp	 esi, esp
  00ed8	e8 00 00 00 00	 call	 __RTC_CheckEsp
  00edd	50		 push	 eax
  00ede	8b 4d f8	 mov	 ecx, DWORD PTR _this$[ebp]
  00ee1	81 c1 5c 01 00
	00		 add	 ecx, 348		; 0000015cH
  00ee7	e8 00 00 00 00	 call	 ?SetWindowTextA@CWnd@@QAEXPBD@Z ; CWnd::SetWindowTextA

; 142  : 			m_EditSwfPath.SetFocus();

  00eec	8b 4d f8	 mov	 ecx, DWORD PTR _this$[ebp]
  00eef	81 c1 5c 01 00
	00		 add	 ecx, 348		; 0000015cH
  00ef5	e8 00 00 00 00	 call	 ?SetFocus@CWnd@@QAEPAV1@XZ ; CWnd::SetFocus

; 143  : 			bRet = TRUE;

  00efa	c7 45 c8 01 00
	00 00		 mov	 DWORD PTR _bRet$[ebp], 1

; 144  : 			SthChanged();

  00f01	8b 45 f8	 mov	 eax, DWORD PTR _this$[ebp]
  00f04	8b 10		 mov	 edx, DWORD PTR [eax]
  00f06	8b f4		 mov	 esi, esp
  00f08	8b 4d f8	 mov	 ecx, DWORD PTR _this$[ebp]
  00f0b	ff 92 60 01 00
	00		 call	 DWORD PTR [edx+352]
  00f11	3b f4		 cmp	 esi, esp
  00f13	e8 00 00 00 00	 call	 __RTC_CheckEsp
$L187890:

; 145  : 		}
; 146  : 
; 147  : 		IMalloc *pMalloc = NULL; 

  00f18	c7 85 b0 fd ff
	ff 00 00 00 00	 mov	 DWORD PTR _pMalloc$187896[ebp], 0

; 148  : 		if (SUCCEEDED(SHGetMalloc(&pMalloc)) && pMalloc) 

  00f22	8b f4		 mov	 esi, esp
  00f24	8d 85 b0 fd ff
	ff		 lea	 eax, DWORD PTR _pMalloc$187896[ebp]
  00f2a	50		 push	 eax
  00f2b	ff 15 00 00 00
	00		 call	 DWORD PTR __imp__SHGetMalloc@4
  00f31	3b f4		 cmp	 esi, esp
  00f33	e8 00 00 00 00	 call	 __RTC_CheckEsp
  00f38	85 c0		 test	 eax, eax
  00f3a	7c 43		 jl	 SHORT $L187882
  00f3c	83 bd b0 fd ff
	ff 00		 cmp	 DWORD PTR _pMalloc$187896[ebp], 0
  00f43	74 3a		 je	 SHORT $L187882

; 149  : 		{
; 150  : 			pMalloc->Free(pidl);  

  00f45	8b f4		 mov	 esi, esp
  00f47	8b 4d cc	 mov	 ecx, DWORD PTR _pidl$[ebp]
  00f4a	51		 push	 ecx
  00f4b	8b 95 b0 fd ff
	ff		 mov	 edx, DWORD PTR _pMalloc$187896[ebp]
  00f51	8b 02		 mov	 eax, DWORD PTR [edx]
  00f53	8b 8d b0 fd ff
	ff		 mov	 ecx, DWORD PTR _pMalloc$187896[ebp]
  00f59	51		 push	 ecx
  00f5a	ff 50 14	 call	 DWORD PTR [eax+20]
  00f5d	3b f4		 cmp	 esi, esp
  00f5f	e8 00 00 00 00	 call	 __RTC_CheckEsp

; 151  : 			pMalloc->Release(); 

  00f64	8b 95 b0 fd ff
	ff		 mov	 edx, DWORD PTR _pMalloc$187896[ebp]
  00f6a	8b 02		 mov	 eax, DWORD PTR [edx]
  00f6c	8b f4		 mov	 esi, esp
  00f6e	8b 8d b0 fd ff
	ff		 mov	 ecx, DWORD PTR _pMalloc$187896[ebp]
  00f74	51		 push	 ecx
  00f75	ff 50 08	 call	 DWORD PTR [eax+8]
  00f78	3b f4		 cmp	 esi, esp
  00f7a	e8 00 00 00 00	 call	 __RTC_CheckEsp
$L187882:

; 152  : 		}
; 153  : 	}
; 154  : }

  00f7f	52		 push	 edx
  00f80	8b cd		 mov	 ecx, ebp
  00f82	50		 push	 eax
  00f83	8d 15 00 00 00
	00		 lea	 edx, DWORD PTR $L188600
  00f89	e8 00 00 00 00	 call	 @_RTC_CheckStackVars@8
  00f8e	58		 pop	 eax
  00f8f	5a		 pop	 edx
  00f90	8b 4d fc	 mov	 ecx, DWORD PTR __$ArrayPad$[ebp]
  00f93	e8 00 00 00 00	 call	 @__security_check_cookie@4
  00f98	5f		 pop	 edi
  00f99	5e		 pop	 esi
  00f9a	81 c4 54 02 00
	00		 add	 esp, 596		; 00000254H
  00fa0	3b ec		 cmp	 ebp, esp
  00fa2	e8 00 00 00 00	 call	 __RTC_CheckEsp
  00fa7	8b e5		 mov	 esp, ebp
  00fa9	5d		 pop	 ebp
  00faa	c3		 ret	 0
$L188600:
  00fab	03 00 00 00	 DD	 3
  00faf	00 00 00 00	 DD	 $L188599
$L188599:
  00fb3	d4 ff ff ff	 DD	 -44			; ffffffd4H
  00fb7	20 00 00 00	 DD	 32			; 00000020H
  00fbb	00 00 00 00	 DD	 $L188595
  00fbf	bc fd ff ff	 DD	 -580			; fffffdbcH
  00fc3	08 02 00 00	 DD	 520			; 00000208H
  00fc7	00 00 00 00	 DD	 $L188596
  00fcb	b0 fd ff ff	 DD	 -592			; fffffdb0H
  00fcf	04 00 00 00	 DD	 4
  00fd3	00 00 00 00	 DD	 $L188597
$L188597:
  00fd7	70		 DB	 112			; 00000070H
  00fd8	4d		 DB	 77			; 0000004dH
  00fd9	61		 DB	 97			; 00000061H
  00fda	6c		 DB	 108			; 0000006cH
  00fdb	6c		 DB	 108			; 0000006cH
  00fdc	6f		 DB	 111			; 0000006fH
  00fdd	63		 DB	 99			; 00000063H
  00fde	00		 DB	 0
$L188596:
  00fdf	73		 DB	 115			; 00000073H
  00fe0	7a		 DB	 122			; 0000007aH
  00fe1	46		 DB	 70			; 00000046H
  00fe2	6f		 DB	 111			; 0000006fH
  00fe3	6c		 DB	 108			; 0000006cH
  00fe4	64		 DB	 100			; 00000064H
  00fe5	65		 DB	 101			; 00000065H
  00fe6	72		 DB	 114			; 00000072H
  00fe7	00		 DB	 0
$L188595:
  00fe8	62		 DB	 98			; 00000062H
  00fe9	69		 DB	 105			; 00000069H
  00fea	00		 DB	 0
?OnBnClickedButton1@CDownDialog@@IAEXXZ ENDP		; CDownDialog::OnBnClickedButton1
; Function compile flags: /Odt /RTCsu
_pMalloc$187915 = -592					; size = 4
_szFolder$ = -580					; size = 520
_bRet$ = -56						; size = 4
_pidl$ = -52						; size = 4
_bi$ = -44						; size = 32
_this$ = -8						; size = 4
__$ArrayPad$ = -4					; size = 4
__$ReturnAddr$ = 4					; size = 4
?OnBtnBroPicSavePath@CDownDialog@@IAEXXZ PROC NEAR	; CDownDialog::OnBtnBroPicSavePath
; _this$ = ecx

; 160  : {

  00ff0	55		 push	 ebp
  00ff1	8b ec		 mov	 ebp, esp
  00ff3	81 ec 54 02 00
	00		 sub	 esp, 596		; 00000254H
  00ff9	56		 push	 esi
  00ffa	57		 push	 edi
  00ffb	51		 push	 ecx
  00ffc	8d bd ac fd ff
	ff		 lea	 edi, DWORD PTR [ebp-596]
  01002	b9 95 00 00 00	 mov	 ecx, 149		; 00000095H
  01007	b8 cc cc cc cc	 mov	 eax, -858993460		; ccccccccH
  0100c	f3 ab		 rep stosd
  0100e	59		 pop	 ecx
  0100f	a1 00 00 00 00	 mov	 eax, DWORD PTR ___security_cookie
  01014	89 45 fc	 mov	 DWORD PTR __$ArrayPad$[ebp], eax
  01017	89 4d f8	 mov	 DWORD PTR _this$[ebp], ecx

; 161  : 	//
; 162  : 	BROWSEINFO bi;
; 163  : 	ZeroMemory(&bi, sizeof(BROWSEINFO));

  0101a	6a 20		 push	 32			; 00000020H
  0101c	6a 00		 push	 0
  0101e	8d 45 d4	 lea	 eax, DWORD PTR _bi$[ebp]
  01021	50		 push	 eax
  01022	e8 00 00 00 00	 call	 _memset
  01027	83 c4 0c	 add	 esp, 12			; 0000000cH

; 164  : 
; 165  : 	bi.hwndOwner = this->m_hWnd;//m_hWnd;

  0102a	8b 4d f8	 mov	 ecx, DWORD PTR _this$[ebp]
  0102d	8b 51 20	 mov	 edx, DWORD PTR [ecx+32]
  01030	89 55 d4	 mov	 DWORD PTR _bi$[ebp], edx

; 166  : 	bi.ulFlags   = BIF_RETURNONLYFSDIRS;

  01033	c7 45 e4 01 00
	00 00		 mov	 DWORD PTR _bi$[ebp+16], 1

; 167  : 	bi.lpszTitle = "";

  0103a	c7 45 e0 00 00
	00 00		 mov	 DWORD PTR _bi$[ebp+12], OFFSET FLAT:$SG187904

; 168  : 	LPITEMIDLIST pidl = SHBrowseForFolder(&bi);

  01041	8b f4		 mov	 esi, esp
  01043	8d 45 d4	 lea	 eax, DWORD PTR _bi$[ebp]
  01046	50		 push	 eax
  01047	ff 15 00 00 00
	00		 call	 DWORD PTR __imp__SHBrowseForFolderA@4
  0104d	3b f4		 cmp	 esi, esp
  0104f	e8 00 00 00 00	 call	 __RTC_CheckEsp
  01054	89 45 cc	 mov	 DWORD PTR _pidl$[ebp], eax

; 169  : 
; 170  : 	BOOL bRet = FALSE;

  01057	c7 45 c8 00 00
	00 00		 mov	 DWORD PTR _bRet$[ebp], 0

; 171  : 
; 172  : 	TCHAR szFolder[MAX_PATH*2];
; 173  : 	szFolder[0] = _T('\0');

  0105e	c6 85 bc fd ff
	ff 00		 mov	 BYTE PTR _szFolder$[ebp], 0

; 174  : 
; 175  : 	if (pidl)

  01065	83 7d cc 00	 cmp	 DWORD PTR _pidl$[ebp], 0
  01069	0f 84 30 01 00
	00		 je	 $L187901

; 176  : 	{
; 177  : 		if (SHGetPathFromIDList(pidl, szFolder))

  0106f	8b f4		 mov	 esi, esp
  01071	8d 8d bc fd ff
	ff		 lea	 ecx, DWORD PTR _szFolder$[ebp]
  01077	51		 push	 ecx
  01078	8b 55 cc	 mov	 edx, DWORD PTR _pidl$[ebp]
  0107b	52		 push	 edx
  0107c	ff 15 00 00 00
	00		 call	 DWORD PTR __imp__SHGetPathFromIDListA@8
  01082	3b f4		 cmp	 esi, esp
  01084	e8 00 00 00 00	 call	 __RTC_CheckEsp
  01089	85 c0		 test	 eax, eax
  0108b	0f 84 a7 00 00
	00		 je	 $L187909

; 178  : 		{
; 179  : 			if( YL_DirInfo::MakeDir(szFolder) )

  01091	8d 85 bc fd ff
	ff		 lea	 eax, DWORD PTR _szFolder$[ebp]
  01097	50		 push	 eax
  01098	e8 00 00 00 00	 call	 ?MakeDir@YL_DirInfo@@SA_NPBD@Z ; YL_DirInfo::MakeDir
  0109d	83 c4 04	 add	 esp, 4
  010a0	0f b6 c8	 movzx	 ecx, al
  010a3	85 c9		 test	 ecx, ecx
  010a5	74 21		 je	 SHORT $L187910

; 180  : 			{
; 181  : 				m_strPicSavePath = szFolder;

  010a7	8b f4		 mov	 esi, esp
  010a9	8d 95 bc fd ff
	ff		 lea	 edx, DWORD PTR _szFolder$[ebp]
  010af	52		 push	 edx
  010b0	8b 4d f8	 mov	 ecx, DWORD PTR _this$[ebp]
  010b3	81 c1 b0 01 00
	00		 add	 ecx, 432		; 000001b0H
  010b9	ff 15 00 00 00
	00		 call	 DWORD PTR __imp_??4?$CStringT@DV?$StrTraitMFC_DLL@DV?$ChTraitsCRT@D@ATL@@@@@ATL@@QAEAAV01@PBD@Z
  010bf	3b f4		 cmp	 esi, esp
  010c1	e8 00 00 00 00	 call	 __RTC_CheckEsp

; 182  : 			}
; 183  : 			else

  010c6	eb 1d		 jmp	 SHORT $L187911
$L187910:

; 184  : 			{
; 185  : 				if( MessageBox(", !", "", MB_OK) == 0 )

  010c8	6a 00		 push	 0
  010ca	68 00 00 00 00	 push	 OFFSET FLAT:$SG187913
  010cf	68 00 00 00 00	 push	 OFFSET FLAT:$SG187914
  010d4	8b 4d f8	 mov	 ecx, DWORD PTR _this$[ebp]
  010d7	e8 00 00 00 00	 call	 ?MessageBoxA@CWnd@@QAEHPBD0I@Z ; CWnd::MessageBoxA
  010dc	85 c0		 test	 eax, eax
  010de	75 05		 jne	 SHORT $L187911

; 186  : 					return;

  010e0	e9 ba 00 00 00	 jmp	 $L187901
$L187911:

; 187  : 			}
; 188  : 			m_EditPicSavePath.SetWindowText( m_strPicSavePath );

  010e5	8b 4d f8	 mov	 ecx, DWORD PTR _this$[ebp]
  010e8	81 c1 b0 01 00
	00		 add	 ecx, 432		; 000001b0H
  010ee	8b f4		 mov	 esi, esp
  010f0	ff 15 00 00 00
	00		 call	 DWORD PTR __imp_??B?$CSimpleStringT@D$00@ATL@@QBEPBDXZ
  010f6	3b f4		 cmp	 esi, esp
  010f8	e8 00 00 00 00	 call	 __RTC_CheckEsp
  010fd	50		 push	 eax
  010fe	8b 4d f8	 mov	 ecx, DWORD PTR _this$[ebp]
  01101	81 c1 b4 01 00
	00		 add	 ecx, 436		; 000001b4H
  01107	e8 00 00 00 00	 call	 ?SetWindowTextA@CWnd@@QAEXPBD@Z ; CWnd::SetWindowTextA

; 189  : 			m_EditPicSavePath.SetFocus();

  0110c	8b 4d f8	 mov	 ecx, DWORD PTR _this$[ebp]
  0110f	81 c1 b4 01 00
	00		 add	 ecx, 436		; 000001b4H
  01115	e8 00 00 00 00	 call	 ?SetFocus@CWnd@@QAEPAV1@XZ ; CWnd::SetFocus

; 190  : 			bRet = TRUE;

  0111a	c7 45 c8 01 00
	00 00		 mov	 DWORD PTR _bRet$[ebp], 1

; 191  : 			SthChanged();

  01121	8b 45 f8	 mov	 eax, DWORD PTR _this$[ebp]
  01124	8b 10		 mov	 edx, DWORD PTR [eax]
  01126	8b f4		 mov	 esi, esp
  01128	8b 4d f8	 mov	 ecx, DWORD PTR _this$[ebp]
  0112b	ff 92 60 01 00
	00		 call	 DWORD PTR [edx+352]
  01131	3b f4		 cmp	 esi, esp
  01133	e8 00 00 00 00	 call	 __RTC_CheckEsp
$L187909:

; 192  : 		}
; 193  : 
; 194  : 		IMalloc *pMalloc = NULL; 

  01138	c7 85 b0 fd ff
	ff 00 00 00 00	 mov	 DWORD PTR _pMalloc$187915[ebp], 0

; 195  : 		if (SUCCEEDED(SHGetMalloc(&pMalloc)) && pMalloc) 

  01142	8b f4		 mov	 esi, esp
  01144	8d 85 b0 fd ff
	ff		 lea	 eax, DWORD PTR _pMalloc$187915[ebp]
  0114a	50		 push	 eax
  0114b	ff 15 00 00 00
	00		 call	 DWORD PTR __imp__SHGetMalloc@4
  01151	3b f4		 cmp	 esi, esp
  01153	e8 00 00 00 00	 call	 __RTC_CheckEsp
  01158	85 c0		 test	 eax, eax
  0115a	7c 43		 jl	 SHORT $L187901
  0115c	83 bd b0 fd ff
	ff 00		 cmp	 DWORD PTR _pMalloc$187915[ebp], 0
  01163	74 3a		 je	 SHORT $L187901

; 196  : 		{
; 197  : 			pMalloc->Free(pidl);  

  01165	8b f4		 mov	 esi, esp
  01167	8b 4d cc	 mov	 ecx, DWORD PTR _pidl$[ebp]
  0116a	51		 push	 ecx
  0116b	8b 95 b0 fd ff
	ff		 mov	 edx, DWORD PTR _pMalloc$187915[ebp]
  01171	8b 02		 mov	 eax, DWORD PTR [edx]
  01173	8b 8d b0 fd ff
	ff		 mov	 ecx, DWORD PTR _pMalloc$187915[ebp]
  01179	51		 push	 ecx
  0117a	ff 50 14	 call	 DWORD PTR [eax+20]
  0117d	3b f4		 cmp	 esi, esp
  0117f	e8 00 00 00 00	 call	 __RTC_CheckEsp

; 198  : 			pMalloc->Release(); 

  01184	8b 95 b0 fd ff
	ff		 mov	 edx, DWORD PTR _pMalloc$187915[ebp]
  0118a	8b 02		 mov	 eax, DWORD PTR [edx]
  0118c	8b f4		 mov	 esi, esp
  0118e	8b 8d b0 fd ff
	ff		 mov	 ecx, DWORD PTR _pMalloc$187915[ebp]
  01194	51		 push	 ecx
  01195	ff 50 08	 call	 DWORD PTR [eax+8]
  01198	3b f4		 cmp	 esi, esp
  0119a	e8 00 00 00 00	 call	 __RTC_CheckEsp
$L187901:

; 199  : 		}
; 200  : 	}
; 201  : }

  0119f	52		 push	 edx
  011a0	8b cd		 mov	 ecx, ebp
  011a2	50		 push	 eax
  011a3	8d 15 00 00 00
	00		 lea	 edx, DWORD PTR $L188608
  011a9	e8 00 00 00 00	 call	 @_RTC_CheckStackVars@8
  011ae	58		 pop	 eax
  011af	5a		 pop	 edx
  011b0	8b 4d fc	 mov	 ecx, DWORD PTR __$ArrayPad$[ebp]
  011b3	e8 00 00 00 00	 call	 @__security_check_cookie@4
  011b8	5f		 pop	 edi
  011b9	5e		 pop	 esi
  011ba	81 c4 54 02 00
	00		 add	 esp, 596		; 00000254H
  011c0	3b ec		 cmp	 ebp, esp
  011c2	e8 00 00 00 00	 call	 __RTC_CheckEsp
  011c7	8b e5		 mov	 esp, ebp
  011c9	5d		 pop	 ebp
  011ca	c3		 ret	 0
$L188608:
  011cb	03 00 00 00	 DD	 3
  011cf	00 00 00 00	 DD	 $L188607
$L188607:
  011d3	d4 ff ff ff	 DD	 -44			; ffffffd4H
  011d7	20 00 00 00	 DD	 32			; 00000020H
  011db	00 00 00 00	 DD	 $L188603
  011df	bc fd ff ff	 DD	 -580			; fffffdbcH
  011e3	08 02 00 00	 DD	 520			; 00000208H
  011e7	00 00 00 00	 DD	 $L188604
  011eb	b0 fd ff ff	 DD	 -592			; fffffdb0H
  011ef	04 00 00 00	 DD	 4
  011f3	00 00 00 00	 DD	 $L188605
$L188605:
  011f7	70		 DB	 112			; 00000070H
  011f8	4d		 DB	 77			; 0000004dH
  011f9	61		 DB	 97			; 00000061H
  011fa	6c		 DB	 108			; 0000006cH
  011fb	6c		 DB	 108			; 0000006cH
  011fc	6f		 DB	 111			; 0000006fH
  011fd	63		 DB	 99			; 00000063H
  011fe	00		 DB	 0
$L188604:
  011ff	73		 DB	 115			; 00000073H
  01200	7a		 DB	 122			; 0000007aH
  01201	46		 DB	 70			; 00000046H
  01202	6f		 DB	 111			; 0000006fH
  01203	6c		 DB	 108			; 0000006cH
  01204	64		 DB	 100			; 00000064H
  01205	65		 DB	 101			; 00000065H
  01206	72		 DB	 114			; 00000072H
  01207	00		 DB	 0
$L188603:
  01208	62		 DB	 98			; 00000062H
  01209	69		 DB	 105			; 00000069H
  0120a	00		 DB	 0
?OnBtnBroPicSavePath@CDownDialog@@IAEXXZ ENDP		; CDownDialog::OnBtnBroPicSavePath
_TEXT	ENDS
PUBLIC	?InterlockedExchangePointer@@YGPAXPAPAXPAX@Z	; InterlockedExchangePointer
PUBLIC	?_AtlGetThreadACPFake@ATL@@YGIXZ		; ATL::_AtlGetThreadACPFake
PUBLIC	?_AtlGetThreadACPReal@ATL@@YGIXZ		; ATL::_AtlGetThreadACPReal
EXTRN	__imp__GetVersionExA@4:NEAR
; Function compile flags: /Odt /RTCsu
; File d:\program files (x86)\microsoft visual studio .net 2003\vc7\atlmfc\include\atlconv.h
;	COMDAT ?_AtlGetThreadACPThunk@ATL@@YGIXZ
_TEXT	SEGMENT
_pfnGetThreadACP$ = -164				; size = 4
_ver$ = -156						; size = 148
__$ArrayPad$ = -4					; size = 4
__$ReturnAddr$ = 4					; size = 4
?_AtlGetThreadACPThunk@ATL@@YGIXZ PROC NEAR		; ATL::_AtlGetThreadACPThunk, COMDAT

; 134  : {

  00000	55		 push	 ebp
  00001	8b ec		 mov	 ebp, esp
  00003	81 ec a4 00 00
	00		 sub	 esp, 164		; 000000a4H
  00009	56		 push	 esi
  0000a	57		 push	 edi
  0000b	8d bd 5c ff ff
	ff		 lea	 edi, DWORD PTR [ebp-164]
  00011	b9 29 00 00 00	 mov	 ecx, 41			; 00000029H
  00016	b8 cc cc cc cc	 mov	 eax, -858993460		; ccccccccH
  0001b	f3 ab		 rep stosd
  0001d	a1 00 00 00 00	 mov	 eax, DWORD PTR ___security_cookie
  00022	89 45 fc	 mov	 DWORD PTR __$ArrayPad$[ebp], eax

; 135  : 	OSVERSIONINFO ver;
; 136  : 	ATLGETTHREADACP pfnGetThreadACP;
; 137  : 
; 138  : 	ver.dwOSVersionInfoSize = sizeof( ver );

  00025	c7 85 64 ff ff
	ff 94 00 00 00	 mov	 DWORD PTR _ver$[ebp], 148 ; 00000094H

; 139  : 	::GetVersionEx( &ver );

  0002f	8b f4		 mov	 esi, esp
  00031	8d 85 64 ff ff
	ff		 lea	 eax, DWORD PTR _ver$[ebp]
  00037	50		 push	 eax
  00038	ff 15 00 00 00
	00		 call	 DWORD PTR __imp__GetVersionExA@4
  0003e	3b f4		 cmp	 esi, esp
  00040	e8 00 00 00 00	 call	 __RTC_CheckEsp

; 140  : 	if( (ver.dwPlatformId == VER_PLATFORM_WIN32_NT) && (ver.dwMajorVersion >= 5) )

  00045	83 bd 74 ff ff
	ff 02		 cmp	 DWORD PTR _ver$[ebp+16], 2
  0004c	75 15		 jne	 SHORT $L24163
  0004e	83 bd 68 ff ff
	ff 05		 cmp	 DWORD PTR _ver$[ebp+4], 5
  00055	72 0c		 jb	 SHORT $L24163

; 141  : 	{
; 142  : 		// On Win2K, CP_THREAD_ACP is supported
; 143  : 		pfnGetThreadACP = _AtlGetThreadACPReal;

  00057	c7 85 5c ff ff
	ff 00 00 00 00	 mov	 DWORD PTR _pfnGetThreadACP$[ebp], OFFSET FLAT:?_AtlGetThreadACPReal@ATL@@YGIXZ ; ATL::_AtlGetThreadACPReal

; 144  : 	}
; 145  : 	else

  00061	eb 0a		 jmp	 SHORT $L24164
$L24163:

; 146  : 	{
; 147  : 		pfnGetThreadACP = _AtlGetThreadACPFake;

  00063	c7 85 5c ff ff
	ff 00 00 00 00	 mov	 DWORD PTR _pfnGetThreadACP$[ebp], OFFSET FLAT:?_AtlGetThreadACPFake@ATL@@YGIXZ ; ATL::_AtlGetThreadACPFake
$L24164:

; 148  : 	}
; 149  : 	InterlockedExchangePointer( reinterpret_cast< void** >(&g_pfnGetThreadACP), pfnGetThreadACP );

  0006d	8b 8d 5c ff ff
	ff		 mov	 ecx, DWORD PTR _pfnGetThreadACP$[ebp]
  00073	51		 push	 ecx
  00074	68 00 00 00 00	 push	 OFFSET FLAT:?g_pfnGetThreadACP@ATL@@3P6GIXZA ; ATL::g_pfnGetThreadACP
  00079	e8 00 00 00 00	 call	 ?InterlockedExchangePointer@@YGPAXPAPAXPAX@Z ; InterlockedExchangePointer

; 150  : 
; 151  : 	return( g_pfnGetThreadACP() );

  0007e	8b f4		 mov	 esi, esp
  00080	ff 15 00 00 00
	00		 call	 DWORD PTR ?g_pfnGetThreadACP@ATL@@3P6GIXZA ; ATL::g_pfnGetThreadACP
  00086	3b f4		 cmp	 esi, esp
  00088	e8 00 00 00 00	 call	 __RTC_CheckEsp

; 152  : }

  0008d	52		 push	 edx
  0008e	8b cd		 mov	 ecx, ebp
  00090	50		 push	 eax
  00091	8d 15 00 00 00
	00		 lea	 edx, DWORD PTR $L188614
  00097	e8 00 00 00 00	 call	 @_RTC_CheckStackVars@8
  0009c	58		 pop	 eax
  0009d	5a		 pop	 edx
  0009e	8b 4d fc	 mov	 ecx, DWORD PTR __$ArrayPad$[ebp]
  000a1	e8 00 00 00 00	 call	 @__security_check_cookie@4
  000a6	5f		 pop	 edi
  000a7	5e		 pop	 esi
  000a8	81 c4 a4 00 00
	00		 add	 esp, 164		; 000000a4H
  000ae	3b ec		 cmp	 ebp, esp
  000b0	e8 00 00 00 00	 call	 __RTC_CheckEsp
  000b5	8b e5		 mov	 esp, ebp
  000b7	5d		 pop	 ebp
  000b8	c3		 ret	 0
$L188614:
  000b9	01 00 00 00	 DD	 1
  000bd	00 00 00 00	 DD	 $L188613
$L188613:
  000c1	64 ff ff ff	 DD	 -156			; ffffff64H
  000c5	94 00 00 00	 DD	 148			; 00000094H
  000c9	00 00 00 00	 DD	 $L188611
$L188611:
  000cd	76		 DB	 118			; 00000076H
  000ce	65		 DB	 101			; 00000065H
  000cf	72		 DB	 114			; 00000072H
  000d0	00		 DB	 0
?_AtlGetThreadACPThunk@ATL@@YGIXZ ENDP			; ATL::_AtlGetThreadACPThunk
_TEXT	ENDS
EXTRN	__imp__InterlockedExchange@8:NEAR
; Function compile flags: /Odt /RTCsu
;	COMDAT ?InterlockedExchangePointer@@YGPAXPAPAXPAX@Z
_TEXT	SEGMENT
_pp$ = 8						; size = 4
_pNew$ = 12						; size = 4
?InterlockedExchangePointer@@YGPAXPAPAXPAX@Z PROC NEAR	; InterlockedExchangePointer, COMDAT

; 91   : {

  00000	55		 push	 ebp
  00001	8b ec		 mov	 ebp, esp
  00003	56		 push	 esi

; 92   : 	return( reinterpret_cast<void*>(static_cast<LONG_PTR>(::InterlockedExchange(reinterpret_cast<LONG*>(pp), static_cast<LONG>(reinterpret_cast<LONG_PTR>(pNew))))) );

  00004	8b f4		 mov	 esi, esp
  00006	8b 45 0c	 mov	 eax, DWORD PTR _pNew$[ebp]
  00009	50		 push	 eax
  0000a	8b 4d 08	 mov	 ecx, DWORD PTR _pp$[ebp]
  0000d	51		 push	 ecx
  0000e	ff 15 00 00 00
	00		 call	 DWORD PTR __imp__InterlockedExchange@8
  00014	3b f4		 cmp	 esi, esp
  00016	e8 00 00 00 00	 call	 __RTC_CheckEsp

; 93   : }

  0001b	5e		 pop	 esi
  0001c	3b ec		 cmp	 ebp, esp
  0001e	e8 00 00 00 00	 call	 __RTC_CheckEsp
  00023	5d		 pop	 ebp
  00024	c2 08 00	 ret	 8
?InterlockedExchangePointer@@YGPAXPAPAXPAX@Z ENDP	; InterlockedExchangePointer
_TEXT	ENDS
EXTRN	__imp__GetACP@0:NEAR
EXTRN	__imp__GetLocaleInfoA@16:NEAR
EXTRN	__imp__GetThreadLocale@0:NEAR
; Function compile flags: /Odt /RTCsu
;	COMDAT ?_AtlGetThreadACPFake@ATL@@YGIXZ
_TEXT	SEGMENT
_pch$24151 = -32					; size = 4
_szACP$ = -24						; size = 7
_lcidThread$ = -12					; size = 4
_nACP$ = -8						; size = 4
__$ArrayPad$ = -4					; size = 4
__$ReturnAddr$ = 4					; size = 4
?_AtlGetThreadACPFake@ATL@@YGIXZ PROC NEAR		; ATL::_AtlGetThreadACPFake, COMDAT

; 101  : {

  00000	55		 push	 ebp
  00001	8b ec		 mov	 ebp, esp
  00003	83 ec 20	 sub	 esp, 32			; 00000020H
  00006	56		 push	 esi
  00007	b8 cc cc cc cc	 mov	 eax, -858993460		; ccccccccH
  0000c	89 45 e0	 mov	 DWORD PTR [ebp-32], eax
  0000f	89 45 e4	 mov	 DWORD PTR [ebp-28], eax
  00012	89 45 e8	 mov	 DWORD PTR [ebp-24], eax
  00015	89 45 ec	 mov	 DWORD PTR [ebp-20], eax
  00018	89 45 f0	 mov	 DWORD PTR [ebp-16], eax
  0001b	89 45 f4	 mov	 DWORD PTR [ebp-12], eax
  0001e	89 45 f8	 mov	 DWORD PTR [ebp-8], eax
  00021	89 45 fc	 mov	 DWORD PTR [ebp-4], eax
  00024	a1 00 00 00 00	 mov	 eax, DWORD PTR ___security_cookie
  00029	89 45 fc	 mov	 DWORD PTR __$ArrayPad$[ebp], eax

; 102  : 	UINT nACP = 0;

  0002c	c7 45 f8 00 00
	00 00		 mov	 DWORD PTR _nACP$[ebp], 0

; 103  : 
; 104  : 	LCID lcidThread = ::GetThreadLocale();

  00033	8b f4		 mov	 esi, esp
  00035	ff 15 00 00 00
	00		 call	 DWORD PTR __imp__GetThreadLocale@0
  0003b	3b f4		 cmp	 esi, esp
  0003d	e8 00 00 00 00	 call	 __RTC_CheckEsp
  00042	89 45 f4	 mov	 DWORD PTR _lcidThread$[ebp], eax

; 105  : 
; 106  : 	char szACP[7];
; 107  : 	// GetLocaleInfoA will fail for a Unicode-only LCID, but those are only supported on 
; 108  : 	// Windows 2000.  Since Windows 2000 supports CP_THREAD_ACP, this code path is never
; 109  : 	// executed on Windows 2000.
; 110  : 	if (::GetLocaleInfoA(lcidThread, LOCALE_IDEFAULTANSICODEPAGE, szACP, 7) != 0)

  00045	8b f4		 mov	 esi, esp
  00047	6a 07		 push	 7
  00049	8d 45 e8	 lea	 eax, DWORD PTR _szACP$[ebp]
  0004c	50		 push	 eax
  0004d	68 04 10 00 00	 push	 4100			; 00001004H
  00052	8b 4d f4	 mov	 ecx, DWORD PTR _lcidThread$[ebp]
  00055	51		 push	 ecx
  00056	ff 15 00 00 00
	00		 call	 DWORD PTR __imp__GetLocaleInfoA@16
  0005c	3b f4		 cmp	 esi, esp
  0005e	e8 00 00 00 00	 call	 __RTC_CheckEsp
  00063	85 c0		 test	 eax, eax
  00065	74 34		 je	 SHORT $L24150

; 111  : 	{
; 112  : 		char* pch = szACP;

  00067	8d 55 e8	 lea	 edx, DWORD PTR _szACP$[ebp]
  0006a	89 55 e0	 mov	 DWORD PTR _pch$24151[ebp], edx
$L24153:

; 113  : 		while (*pch != '\0')

  0006d	8b 45 e0	 mov	 eax, DWORD PTR _pch$24151[ebp]
  00070	0f be 08	 movsx	 ecx, BYTE PTR [eax]
  00073	85 c9		 test	 ecx, ecx
  00075	74 24		 je	 SHORT $L24150

; 114  : 		{
; 115  : 			nACP *= 10;

  00077	8b 55 f8	 mov	 edx, DWORD PTR _nACP$[ebp]
  0007a	6b d2 0a	 imul	 edx, 10			; 0000000aH
  0007d	89 55 f8	 mov	 DWORD PTR _nACP$[ebp], edx

; 116  : 			nACP += *pch++ - '0';

  00080	8b 45 e0	 mov	 eax, DWORD PTR _pch$24151[ebp]
  00083	0f be 08	 movsx	 ecx, BYTE PTR [eax]
  00086	8b 55 f8	 mov	 edx, DWORD PTR _nACP$[ebp]
  00089	8d 44 0a d0	 lea	 eax, DWORD PTR [edx+ecx-48]
  0008d	89 45 f8	 mov	 DWORD PTR _nACP$[ebp], eax
  00090	8b 4d e0	 mov	 ecx, DWORD PTR _pch$24151[ebp]
  00093	83 c1 01	 add	 ecx, 1
  00096	89 4d e0	 mov	 DWORD PTR _pch$24151[ebp], ecx

; 117  : 		}

  00099	eb d2		 jmp	 SHORT $L24153
$L24150:

; 118  : 	}
; 119  : 	// Use the Default ANSI Code Page if we were unable to get the thread ACP or if one does not exist.
; 120  : 	if (nACP == 0)

  0009b	83 7d f8 00	 cmp	 DWORD PTR _nACP$[ebp], 0
  0009f	75 12		 jne	 SHORT $L24155

; 121  : 		nACP = ::GetACP();

  000a1	8b f4		 mov	 esi, esp
  000a3	ff 15 00 00 00
	00		 call	 DWORD PTR __imp__GetACP@0
  000a9	3b f4		 cmp	 esi, esp
  000ab	e8 00 00 00 00	 call	 __RTC_CheckEsp
  000b0	89 45 f8	 mov	 DWORD PTR _nACP$[ebp], eax
$L24155:

; 122  : 
; 123  : 	return nACP;

  000b3	8b 45 f8	 mov	 eax, DWORD PTR _nACP$[ebp]

; 124  : }

  000b6	52		 push	 edx
  000b7	8b cd		 mov	 ecx, ebp
  000b9	50		 push	 eax
  000ba	8d 15 00 00 00
	00		 lea	 edx, DWORD PTR $L188621
  000c0	e8 00 00 00 00	 call	 @_RTC_CheckStackVars@8
  000c5	58		 pop	 eax
  000c6	5a		 pop	 edx
  000c7	8b 4d fc	 mov	 ecx, DWORD PTR __$ArrayPad$[ebp]
  000ca	e8 00 00 00 00	 call	 @__security_check_cookie@4
  000cf	5e		 pop	 esi
  000d0	83 c4 20	 add	 esp, 32			; 00000020H
  000d3	3b ec		 cmp	 ebp, esp
  000d5	e8 00 00 00 00	 call	 __RTC_CheckEsp
  000da	8b e5		 mov	 esp, ebp
  000dc	5d		 pop	 ebp
  000dd	c3		 ret	 0
$L188621:
  000de	01 00 00 00	 DD	 1
  000e2	00 00 00 00	 DD	 $L188620
$L188620:
  000e6	e8 ff ff ff	 DD	 -24			; ffffffe8H
  000ea	07 00 00 00	 DD	 7
  000ee	00 00 00 00	 DD	 $L188618
$L188618:
  000f2	73		 DB	 115			; 00000073H
  000f3	7a		 DB	 122			; 0000007aH
  000f4	41		 DB	 65			; 00000041H
  000f5	43		 DB	 67			; 00000043H
  000f6	50		 DB	 80			; 00000050H
  000f7	00		 DB	 0
?_AtlGetThreadACPFake@ATL@@YGIXZ ENDP			; ATL::_AtlGetThreadACPFake
; Function compile flags: /Odt /RTCsu
_TEXT	ENDS
;	COMDAT ?_AtlGetThreadACPReal@ATL@@YGIXZ
_TEXT	SEGMENT
?_AtlGetThreadACPReal@ATL@@YGIXZ PROC NEAR		; ATL::_AtlGetThreadACPReal, COMDAT

; 127  : {

  00000	55		 push	 ebp
  00001	8b ec		 mov	 ebp, esp

; 128  : 	return( CP_THREAD_ACP );

  00003	b8 03 00 00 00	 mov	 eax, 3

; 129  : }

  00008	5d		 pop	 ebp
  00009	c3		 ret	 0
?_AtlGetThreadACPReal@ATL@@YGIXZ ENDP			; ATL::_AtlGetThreadACPReal
_TEXT	ENDS
CRT$XCU	SEGMENT
_$S6	DD	FLAT:_$E5
; Function compile flags: /Odt /RTCsu
; File d:\boxgit\playbox\playbox\dev\prj\playbox\src\appconfig\config\configappdef.h
CRT$XCU	ENDS
;	COMDAT _$E5
text$yc	SEGMENT
_$E5	PROC NEAR					; COMDAT

; 19   : 	CONF_APP_SWF_PATH,			TYPE_CONFIG_STR,

  00000	55		 push	 ebp
  00001	8b ec		 mov	 ebp, esp
  00003	a1 00 00 00 00	 mov	 eax, DWORD PTR _CONF_APP_SWF_PATH
  00008	a3 00 00 00 00	 mov	 DWORD PTR _CONF_APP, eax
  0000d	8b 0d 00 00 00
	00		 mov	 ecx, DWORD PTR _TYPE_CONFIG_STR
  00013	89 0d 04 00 00
	00		 mov	 DWORD PTR _CONF_APP+4, ecx

; 20   : 	CONF_APP_MAINWND_HOLD,		TYPE_CONFIG_BOOL,

  00019	8b 15 00 00 00
	00		 mov	 edx, DWORD PTR _CONF_APP_MAINWND_HOLD
  0001f	89 15 08 00 00
	00		 mov	 DWORD PTR _CONF_APP+8, edx
  00025	a1 00 00 00 00	 mov	 eax, DWORD PTR _TYPE_CONFIG_BOOL
  0002a	a3 0c 00 00 00	 mov	 DWORD PTR _CONF_APP+12, eax

; 21   : 	CONF_APP_RUN_COUNT,			TYPE_CONFIG_INT,

  0002f	8b 0d 00 00 00
	00		 mov	 ecx, DWORD PTR _CONF_APP_RUN_COUNT
  00035	89 0d 10 00 00
	00		 mov	 DWORD PTR _CONF_APP+16, ecx
  0003b	8b 15 00 00 00
	00		 mov	 edx, DWORD PTR _TYPE_CONFIG_INT
  00041	89 15 14 00 00
	00		 mov	 DWORD PTR _CONF_APP+20, edx

; 22   : 	CONF_APP_PLAYED_GAME,		TYPE_CONFIG_INT,

  00047	a1 00 00 00 00	 mov	 eax, DWORD PTR _CONF_APP_PLAYED_GAME
  0004c	a3 18 00 00 00	 mov	 DWORD PTR _CONF_APP+24, eax
  00051	8b 0d 00 00 00
	00		 mov	 ecx, DWORD PTR _TYPE_CONFIG_INT
  00057	89 0d 1c 00 00
	00		 mov	 DWORD PTR _CONF_APP+28, ecx

; 23   : 	CONF_APP_PLAYED_PC_GAME,	TYPE_CONFIG_INT,

  0005d	8b 15 00 00 00
	00		 mov	 edx, DWORD PTR _CONF_APP_PLAYED_PC_GAME
  00063	89 15 20 00 00
	00		 mov	 DWORD PTR _CONF_APP+32, edx
  00069	a1 00 00 00 00	 mov	 eax, DWORD PTR _TYPE_CONFIG_INT
  0006e	a3 24 00 00 00	 mov	 DWORD PTR _CONF_APP+36, eax

; 24   : 	CONF_APP_PLAYED_ICON_SIZE,	TYPE_CONFIG_INT, //panelicon0,1,2

  00073	8b 0d 00 00 00
	00		 mov	 ecx, DWORD PTR _CONF_APP_PLAYED_ICON_SIZE
  00079	89 0d 28 00 00
	00		 mov	 DWORD PTR _CONF_APP+40, ecx
  0007f	8b 15 00 00 00
	00		 mov	 edx, DWORD PTR _TYPE_CONFIG_INT
  00085	89 15 2c 00 00
	00		 mov	 DWORD PTR _CONF_APP+44, edx

; 25   : 	CONF_APP_PIC_SAVE_PATH,		TYPE_CONFIG_STR

  0008b	a1 00 00 00 00	 mov	 eax, DWORD PTR _CONF_APP_PIC_SAVE_PATH
  00090	a3 30 00 00 00	 mov	 DWORD PTR _CONF_APP+48, eax

; 26   : };

  00095	8b 0d 00 00 00
	00		 mov	 ecx, DWORD PTR _TYPE_CONFIG_STR
  0009b	89 0d 34 00 00
	00		 mov	 DWORD PTR _CONF_APP+52, ecx
  000a1	5d		 pop	 ebp
  000a2	c3		 ret	 0
_$E5	ENDP
text$yc	ENDS
_BSS	SEGMENT
_CONF_APP DD	0eH DUP (?)
_BSS	ENDS
END
