; Listing generated by Microsoft (R) Optimizing Compiler Version 13.10.3077 

	TITLE	.\src\AppConfig\config\Dlg\DlgSys.cpp
	.386P
include listing.inc
if @Version gt 510
.model FLAT
else
_TEXT	SEGMENT PARA USE32 PUBLIC 'CODE'
_TEXT	ENDS
_DATA	SEGMENT DWORD USE32 PUBLIC 'DATA'
_DATA	ENDS
CONST	SEGMENT DWORD USE32 PUBLIC 'CONST'
CONST	ENDS
_BSS	SEGMENT DWORD USE32 PUBLIC 'BSS'
_BSS	ENDS
$$SYMBOLS	SEGMENT BYTE USE32 'DEBSYM'
$$SYMBOLS	ENDS
_TLS	SEGMENT DWORD USE32 PUBLIC 'TLS'
_TLS	ENDS
;	COMDAT ??_C@_0EN@IBFBLEEG@D?3?2Program?5Files?5?$CIx86?$CJ?2Microsoft@
CONST	SEGMENT DWORD USE32 PUBLIC 'CONST'
CONST	ENDS
rdata$r	SEGMENT DWORD USE32 PUBLIC 'CONST'
rdata$r	ENDS
xdata$x	SEGMENT DWORD USE32 PUBLIC 'CONST'
xdata$x	ENDS
text$AFX_COL1	SEGMENT PARA USE32 PUBLIC ''
text$AFX_COL1	ENDS
text$yc	SEGMENT PARA USE32 PUBLIC 'CODE'
text$yc	ENDS
CRT$XCA	SEGMENT DWORD USE32 PUBLIC 'DATA'
CRT$XCA	ENDS
CRT$XCU	SEGMENT DWORD USE32 PUBLIC 'DATA'
CRT$XCU	ENDS
CRT$XCL	SEGMENT DWORD USE32 PUBLIC 'DATA'
CRT$XCL	ENDS
CRT$XCC	SEGMENT DWORD USE32 PUBLIC 'DATA'
CRT$XCC	ENDS
CRT$XCZ	SEGMENT DWORD USE32 PUBLIC 'DATA'
CRT$XCZ	ENDS
text$yd	SEGMENT PARA USE32 PUBLIC 'CODE'
text$yd	ENDS
ATL$__m	SEGMENT DWORD USE32 PUBLIC ''
ATL$__m	ENDS
ATL$__z	SEGMENT DWORD USE32 PUBLIC ''
ATL$__z	ENDS
ATL$__a	SEGMENT DWORD USE32 PUBLIC ''
ATL$__a	ENDS
;	COMDAT _$E5
text$yc	SEGMENT PARA USE32 PUBLIC 'CODE'
text$yc	ENDS
;	COMDAT ??_GCSysDialog@@UAEPAXI@Z
_TEXT	SEGMENT PARA USE32 PUBLIC 'CODE'
_TEXT	ENDS
;	COMDAT ??0BaseDialog@@QAE@XZ
_TEXT	SEGMENT PARA USE32 PUBLIC 'CODE'
_TEXT	ENDS
;	COMDAT ??1BaseDialog@@UAE@XZ
_TEXT	SEGMENT PARA USE32 PUBLIC 'CODE'
_TEXT	ENDS
;	COMDAT ??_GBaseDialog@@UAEPAXI@Z
_TEXT	SEGMENT PARA USE32 PUBLIC 'CODE'
_TEXT	ENDS
;	COMDAT ??B?$CComPtrBase@UITypeInfo2@@@ATL@@QBEPAUITypeInfo2@@XZ
_TEXT	SEGMENT PARA USE32 PUBLIC 'CODE'
_TEXT	ENDS
;	COMDAT ?equal@?$istreambuf_iterator@DU?$char_traits@D@std@@@std@@QBE_NABV12@@Z
_TEXT	SEGMENT PARA USE32 PUBLIC 'CODE'
_TEXT	ENDS
;	COMDAT ?equal@?$istreambuf_iterator@_WU?$char_traits@_W@std@@@std@@QBE_NABV12@@Z
_TEXT	SEGMENT PARA USE32 PUBLIC 'CODE'
_TEXT	ENDS
;	COMDAT ?Unlock@?$CComCritSecLock@VCComCriticalSection@ATL@@@ATL@@QAEXXZ
_TEXT	SEGMENT PARA USE32 PUBLIC 'CODE'
_TEXT	ENDS
;	COMDAT ??$_Maklocstr@D@std@@YAPADPBDPADABU_Cvtvec@@@Z
_TEXT	SEGMENT PARA USE32 PUBLIC 'CODE'
_TEXT	ENDS
;	COMDAT ??_R3BaseDialog@@8
rdata$r	SEGMENT DWORD USE32 PUBLIC 'CONST'
rdata$r	ENDS
;	COMDAT ??_R3?$numpunct@_W@std@@8
rdata$r	SEGMENT DWORD USE32 PUBLIC 'CONST'
rdata$r	ENDS
;	COMDAT ??_R3?$numpunct@D@std@@8
rdata$r	SEGMENT DWORD USE32 PUBLIC 'CONST'
rdata$r	ENDS
;	COMDAT ??_R3CSysDialog@@8
rdata$r	SEGMENT DWORD USE32 PUBLIC 'CONST'
rdata$r	ENDS
;	COMDAT ??_R2BaseDialog@@8
rdata$r	SEGMENT DWORD USE32 PUBLIC 'CONST'
rdata$r	ENDS
;	COMDAT ??_R2?$numpunct@_W@std@@8
rdata$r	SEGMENT DWORD USE32 PUBLIC 'CONST'
rdata$r	ENDS
;	COMDAT ??_R2?$numpunct@D@std@@8
rdata$r	SEGMENT DWORD USE32 PUBLIC 'CONST'
rdata$r	ENDS
;	COMDAT ??_R2CSysDialog@@8
rdata$r	SEGMENT DWORD USE32 PUBLIC 'CONST'
rdata$r	ENDS
;	COMDAT ??_R1A@?0A@A@?$numpunct@_W@std@@8
rdata$r	SEGMENT DWORD USE32 PUBLIC 'CONST'
rdata$r	ENDS
;	COMDAT ??_R1A@?0A@A@facet@locale@std@@8
rdata$r	SEGMENT DWORD USE32 PUBLIC 'CONST'
rdata$r	ENDS
;	COMDAT ??_R0?AVfacet@locale@std@@@8
_DATA	SEGMENT DWORD USE32 PUBLIC 'DATA'
_DATA	ENDS
;	COMDAT ??_R1A@?0A@A@?$numpunct@D@std@@8
rdata$r	SEGMENT DWORD USE32 PUBLIC 'CONST'
rdata$r	ENDS
;	COMDAT ??_R1A@?0A@A@CObject@@8
rdata$r	SEGMENT DWORD USE32 PUBLIC 'CONST'
rdata$r	ENDS
;	COMDAT ??_R0?AVCObject@@@8
_DATA	SEGMENT DWORD USE32 PUBLIC 'DATA'
_DATA	ENDS
;	COMDAT ??_R1A@?0A@A@CCmdTarget@@8
rdata$r	SEGMENT DWORD USE32 PUBLIC 'CONST'
rdata$r	ENDS
;	COMDAT ??_R0?AVCCmdTarget@@@8
_DATA	SEGMENT DWORD USE32 PUBLIC 'DATA'
_DATA	ENDS
;	COMDAT ??_R1A@?0A@A@CWnd@@8
rdata$r	SEGMENT DWORD USE32 PUBLIC 'CONST'
rdata$r	ENDS
;	COMDAT ??_R0?AVCWnd@@@8
_DATA	SEGMENT DWORD USE32 PUBLIC 'DATA'
_DATA	ENDS
;	COMDAT ??_R1A@?0A@A@CDialog@@8
rdata$r	SEGMENT DWORD USE32 PUBLIC 'CONST'
rdata$r	ENDS
;	COMDAT ??_R0?AVCDialog@@@8
_DATA	SEGMENT DWORD USE32 PUBLIC 'DATA'
_DATA	ENDS
;	COMDAT ??_R1A@?0A@A@BaseDialog@@8
rdata$r	SEGMENT DWORD USE32 PUBLIC 'CONST'
rdata$r	ENDS
;	COMDAT ??_R1A@?0A@A@CSysDialog@@8
rdata$r	SEGMENT DWORD USE32 PUBLIC 'CONST'
rdata$r	ENDS
;	COMDAT ??_R0?AV?$numpunct@_W@std@@@8
_DATA	SEGMENT DWORD USE32 PUBLIC 'DATA'
_DATA	ENDS
;	COMDAT ??_R0?AV?$numpunct@D@std@@@8
_DATA	SEGMENT DWORD USE32 PUBLIC 'DATA'
_DATA	ENDS
;	COMDAT ??_R0?AVBaseDialog@@@8
_DATA	SEGMENT DWORD USE32 PUBLIC 'DATA'
_DATA	ENDS
;	COMDAT ??_R0?AVCSysDialog@@@8
_DATA	SEGMENT DWORD USE32 PUBLIC 'DATA'
_DATA	ENDS
;	COMDAT ??_R4BaseDialog@@6B@
rdata$r	SEGMENT DWORD USE32 PUBLIC 'CONST'
rdata$r	ENDS
;	COMDAT ??0?$allocator@_W@std@@QAE@XZ
_TEXT	SEGMENT PARA USE32 PUBLIC 'CODE'
_TEXT	ENDS
;	COMDAT ??_G?$numpunct@_W@std@@MAEPAXI@Z
_TEXT	SEGMENT PARA USE32 PUBLIC 'CODE'
_TEXT	ENDS
;	COMDAT ??_R4?$numpunct@_W@std@@6B@
rdata$r	SEGMENT DWORD USE32 PUBLIC 'CONST'
rdata$r	ENDS
;	COMDAT ??_G?$numpunct@D@std@@MAEPAXI@Z
_TEXT	SEGMENT PARA USE32 PUBLIC 'CODE'
_TEXT	ENDS
;	COMDAT ??_R4?$numpunct@D@std@@6B@
rdata$r	SEGMENT DWORD USE32 PUBLIC 'CONST'
rdata$r	ENDS
;	COMDAT ??_R4CSysDialog@@6B@
rdata$r	SEGMENT DWORD USE32 PUBLIC 'CONST'
rdata$r	ENDS
;	COMDAT ??_C@_0EN@CBMLGOH@D?3?2Program?5Files?5?$CIx86?$CJ?2Microsoft@
CONST	SEGMENT DWORD USE32 PUBLIC 'CONST'
CONST	ENDS
;	COMDAT ?_Psave@?$_Facetptr@V?$numpunct@_W@std@@@std@@2PBVfacet@locale@2@B
_DATA	SEGMENT DWORD USE32 PUBLIC 'DATA'
_DATA	ENDS
;	COMDAT ?_Psave@?$_Facetptr@V?$numpunct@D@std@@@std@@2PBVfacet@locale@2@B
_DATA	SEGMENT DWORD USE32 PUBLIC 'DATA'
_DATA	ENDS
;	COMDAT ?Unlock@CComCriticalSection@ATL@@QAEJXZ
_TEXT	SEGMENT PARA USE32 PUBLIC 'CODE'
_TEXT	ENDS
;	COMDAT ??_C@_0FG@LDNDNCJM@D?3?2Program?5Files?5?$CIx86?$CJ?2Microsoft@
CONST	SEGMENT DWORD USE32 PUBLIC 'CONST'
CONST	ENDS
;	COMDAT ??_C@_09HIEJFN@m_bLocked?$AA@
CONST	SEGMENT DWORD USE32 PUBLIC 'CONST'
CONST	ENDS
;	COMDAT ?_Psave@?$_Facetptr@V?$ctype@_W@std@@@std@@2PBVfacet@locale@2@B
_DATA	SEGMENT DWORD USE32 PUBLIC 'DATA'
_DATA	ENDS
;	COMDAT ?_Psave@?$_Facetptr@V?$ctype@D@std@@@std@@2PBVfacet@locale@2@B
_DATA	SEGMENT DWORD USE32 PUBLIC 'DATA'
_DATA	ENDS
;	COMDAT ??$_Maklocchr@_W@std@@YA_WDPA_WABU_Cvtvec@@@Z
_TEXT	SEGMENT PARA USE32 PUBLIC 'CODE'
_TEXT	ENDS
;	COMDAT ??$_DebugHeapDelete@X@std@@YAXPAX@Z
_TEXT	SEGMENT PARA USE32 PUBLIC 'CODE'
_TEXT	ENDS
;	COMDAT ??$_Maklocstr@_W@std@@YAPA_WPBDPA_WABU_Cvtvec@@@Z
_TEXT	SEGMENT PARA USE32 PUBLIC 'CODE'
_TEXT	ENDS
;	COMDAT ??$_Maklocchr@D@std@@YADDPADABU_Cvtvec@@@Z
_TEXT	SEGMENT PARA USE32 PUBLIC 'CODE'
_TEXT	ENDS
;	COMDAT ??_C@_04LOAJBDKD@true?$AA@
CONST	SEGMENT DWORD USE32 PUBLIC 'CONST'
CONST	ENDS
;	COMDAT ??_C@_05LAPONLG@false?$AA@
CONST	SEGMENT DWORD USE32 PUBLIC 'CONST'
CONST	ENDS
;	COMDAT _wmemcpy
_TEXT	SEGMENT PARA USE32 PUBLIC 'CODE'
_TEXT	ENDS
;	COMDAT ?max_size@?$allocator@_W@std@@QBEIXZ
_TEXT	SEGMENT PARA USE32 PUBLIC 'CODE'
_TEXT	ENDS
;	COMDAT ?allocate@?$allocator@_W@std@@QAEPA_WI@Z
_TEXT	SEGMENT PARA USE32 PUBLIC 'CODE'
_TEXT	ENDS
;	COMDAT ??$_Allocate@_W@std@@YAPA_WIPA_W@Z
_TEXT	SEGMENT PARA USE32 PUBLIC 'CODE'
_TEXT	ENDS
;	COMDAT ??_C@_01GFHCPBMG@C?$AA@
CONST	SEGMENT DWORD USE32 PUBLIC 'CONST'
CONST	ENDS
;	COMDAT ?max_size@?$allocator@D@std@@QBEIXZ
_TEXT	SEGMENT PARA USE32 PUBLIC 'CODE'
_TEXT	ENDS
;	COMDAT ?allocate@?$allocator@D@std@@QAEPADI@Z
_TEXT	SEGMENT PARA USE32 PUBLIC 'CODE'
_TEXT	ENDS
;	COMDAT ??$_Allocate@D@std@@YAPADIPAD@Z
_TEXT	SEGMENT PARA USE32 PUBLIC 'CODE'
_TEXT	ENDS
;	COMDAT ?deallocate@?$allocator@D@std@@QAEXPADI@Z
_TEXT	SEGMENT PARA USE32 PUBLIC 'CODE'
_TEXT	ENDS
;	COMDAT ?_Peek@?$istreambuf_iterator@_WU?$char_traits@_W@std@@@std@@AAE_WXZ
_TEXT	SEGMENT PARA USE32 PUBLIC 'CODE'
_TEXT	ENDS
;	COMDAT ?_Peek@?$istreambuf_iterator@DU?$char_traits@D@std@@@std@@AAEDXZ
_TEXT	SEGMENT PARA USE32 PUBLIC 'CODE'
_TEXT	ENDS
;	COMDAT ??$use_facet@V?$ctype@_W@std@@@std@@YAABV?$ctype@_W@0@ABVlocale@0@@Z
_TEXT	SEGMENT PARA USE32 PUBLIC 'CODE'
_TEXT	ENDS
;	COMDAT ??_S?$ctype@_W@std@@6B@
CONST	SEGMENT DWORD USE32 PUBLIC 'CONST'
CONST	ENDS
;	COMDAT ??_R4?$ctype@_W@std@@6B@
rdata$r	SEGMENT DWORD USE32 PUBLIC 'CONST'
rdata$r	ENDS
;	COMDAT ??_R0?AV?$ctype@_W@std@@@8
_DATA	SEGMENT DWORD USE32 PUBLIC 'DATA'
_DATA	ENDS
;	COMDAT ??_R3?$ctype@_W@std@@8
rdata$r	SEGMENT DWORD USE32 PUBLIC 'CONST'
rdata$r	ENDS
;	COMDAT ??_R2?$ctype@_W@std@@8
rdata$r	SEGMENT DWORD USE32 PUBLIC 'CONST'
rdata$r	ENDS
;	COMDAT ??_R1A@?0A@A@?$ctype@_W@std@@8
rdata$r	SEGMENT DWORD USE32 PUBLIC 'CONST'
rdata$r	ENDS
;	COMDAT ??_R1A@?0A@A@ctype_base@std@@8
rdata$r	SEGMENT DWORD USE32 PUBLIC 'CONST'
rdata$r	ENDS
;	COMDAT ??_R0?AUctype_base@std@@@8
_DATA	SEGMENT DWORD USE32 PUBLIC 'DATA'
_DATA	ENDS
;	COMDAT ??_G?$ctype@_W@std@@MAEPAXI@Z
_TEXT	SEGMENT PARA USE32 PUBLIC 'CODE'
_TEXT	ENDS
;	COMDAT ??_C@_08EPJLHIJG@bad?5cast?$AA@
CONST	SEGMENT DWORD USE32 PUBLIC 'CONST'
CONST	ENDS
;	COMDAT __TI2?AVbad_cast@@
xdata$x	SEGMENT DWORD USE32 PUBLIC 'CONST'
xdata$x	ENDS
;	COMDAT __CTA2?AVbad_cast@@
xdata$x	SEGMENT DWORD USE32 PUBLIC 'CONST'
xdata$x	ENDS
;	COMDAT __CT??_R0?AVbad_cast@@@8??0bad_cast@@QAE@ABV0@@Z12
xdata$x	SEGMENT DWORD USE32 PUBLIC 'CONST'
xdata$x	ENDS
;	COMDAT ??_R0?AVbad_cast@@@8
_DATA	SEGMENT DWORD USE32 PUBLIC 'DATA'
_DATA	ENDS
;	COMDAT __CT??_R0?AVexception@@@8??0exception@@QAE@ABV0@@Z12
xdata$x	SEGMENT DWORD USE32 PUBLIC 'CONST'
xdata$x	ENDS
;	COMDAT ??_R0?AVexception@@@8
_DATA	SEGMENT DWORD USE32 PUBLIC 'DATA'
_DATA	ENDS
;	COMDAT ??$_DebugHeapDelete@Vfacet@locale@std@@@std@@YAXPAVfacet@locale@0@@Z
_TEXT	SEGMENT PARA USE32 PUBLIC 'CODE'
_TEXT	ENDS
;	COMDAT ??$use_facet@V?$ctype@D@std@@@std@@YAABV?$ctype@D@0@ABVlocale@0@@Z
_TEXT	SEGMENT PARA USE32 PUBLIC 'CODE'
_TEXT	ENDS
;	COMDAT ??_S?$ctype@D@std@@6B@
CONST	SEGMENT DWORD USE32 PUBLIC 'CONST'
CONST	ENDS
;	COMDAT ??_R4?$ctype@D@std@@6B@
rdata$r	SEGMENT DWORD USE32 PUBLIC 'CONST'
rdata$r	ENDS
;	COMDAT ??_R0?AV?$ctype@D@std@@@8
_DATA	SEGMENT DWORD USE32 PUBLIC 'DATA'
_DATA	ENDS
;	COMDAT ??_R3?$ctype@D@std@@8
rdata$r	SEGMENT DWORD USE32 PUBLIC 'CONST'
rdata$r	ENDS
;	COMDAT ??_R2?$ctype@D@std@@8
rdata$r	SEGMENT DWORD USE32 PUBLIC 'CONST'
rdata$r	ENDS
;	COMDAT ??_R1A@?0A@A@?$ctype@D@std@@8
rdata$r	SEGMENT DWORD USE32 PUBLIC 'CONST'
rdata$r	ENDS
;	COMDAT ??_G?$ctype@D@std@@MAEPAXI@Z
_TEXT	SEGMENT PARA USE32 PUBLIC 'CODE'
_TEXT	ENDS
;	COMDAT ??_S?$numpunct@_W@std@@6B@
CONST	SEGMENT DWORD USE32 PUBLIC 'CONST'
CONST	ENDS
;	COMDAT ??_S?$numpunct@D@std@@6B@
CONST	SEGMENT DWORD USE32 PUBLIC 'CONST'
CONST	ENDS
;	COMDAT _wmemmove
_TEXT	SEGMENT PARA USE32 PUBLIC 'CODE'
_TEXT	ENDS
;	COMDAT ?deallocate@?$allocator@_W@std@@QAEXPA_WI@Z
_TEXT	SEGMENT PARA USE32 PUBLIC 'CODE'
_TEXT	ENDS
;	COMDAT ??0?$allocator@_W@std@@QAE@ABV01@@Z
_TEXT	SEGMENT PARA USE32 PUBLIC 'CODE'
_TEXT	ENDS
;	COMDAT ??0?$allocator@D@std@@QAE@ABV01@@Z
_TEXT	SEGMENT PARA USE32 PUBLIC 'CODE'
_TEXT	ENDS
;	COMDAT ??0?$allocator@D@std@@QAE@XZ
_TEXT	SEGMENT PARA USE32 PUBLIC 'CODE'
_TEXT	ENDS
;	COMDAT ?_messageEntries@CSysDialog@@0QBUAFX_MSGMAP_ENTRY@@B
CONST	SEGMENT DWORD USE32 PUBLIC 'CONST'
CONST	ENDS
;	COMDAT ?messageMap@CSysDialog@@1UAFX_MSGMAP@@B
CONST	SEGMENT DWORD USE32 PUBLIC 'CONST'
CONST	ENDS
;	COMDAT ??_7BaseDialog@@6B@
CONST	SEGMENT DWORD USE32 PUBLIC 'CONST'
CONST	ENDS
;	COMDAT ??_7CSysDialog@@6B@
CONST	SEGMENT DWORD USE32 PUBLIC 'CONST'
CONST	ENDS
;	COMDAT ?classCSysDialog@CSysDialog@@2UCRuntimeClass@@B
CONST	SEGMENT DWORD USE32 PUBLIC 'CONST'
CONST	ENDS
sxdata	SEGMENT DWORD USE32 'SXDATA'
sxdata	ENDS
FLAT	GROUP _DATA, CONST, _BSS
	ASSUME	CS: FLAT, DS: FLAT, SS: FLAT
endif

INCLUDELIB MSVCRTD
INCLUDELIB OLDNAMES

PUBLIC	?classCSysDialog@CSysDialog@@2UCRuntimeClass@@B	; CSysDialog::classCSysDialog
PUBLIC	?_messageEntries@CSysDialog@@0QBUAFX_MSGMAP_ENTRY@@B ; CSysDialog::_messageEntries
PUBLIC	?messageMap@CSysDialog@@1UAFX_MSGMAP@@B		; CSysDialog::messageMap
PUBLIC	?OnBnClickedRadMin@CSysDialog@@IAEXXZ		; CSysDialog::OnBnClickedRadMin
PUBLIC	?OnBnClickedRadExit@CSysDialog@@IAEXXZ		; CSysDialog::OnBnClickedRadExit
PUBLIC	?OnBnClickedChkNoask@CSysDialog@@IAEXXZ		; CSysDialog::OnBnClickedChkNoask
PUBLIC	?OnBnClickedCheckAutoRun@CSysDialog@@IAEXXZ	; CSysDialog::OnBnClickedCheckAutoRun
EXTRN	?GetThisClass@BaseDialog@@SGPAUCRuntimeClass@@XZ:NEAR ; BaseDialog::GetThisClass
EXTRN	?GetThisMessageMap@BaseDialog@@KGPBUAFX_MSGMAP@@XZ:NEAR ; BaseDialog::GetThisMessageMap
CONST	SEGMENT
$SG187389 DB	'int', 00H
CONST	ENDS
_DATA	SEGMENT
_TYPE_CONFIG_INT DD FLAT:$SG187389
_DATA	ENDS
CONST	SEGMENT
$SG187391 DB	'str', 00H
CONST	ENDS
_DATA	SEGMENT
_TYPE_CONFIG_STR DD FLAT:$SG187391
_DATA	ENDS
CONST	SEGMENT
$SG187393 DB	'double', 00H
CONST	ENDS
_DATA	SEGMENT
_TYPE_CONFIG_DOUBLE DD FLAT:$SG187393
_DATA	ENDS
CONST	SEGMENT
	ORG $+1
$SG187395 DB	'bool', 00H
CONST	ENDS
_DATA	SEGMENT
_TYPE_CONFIG_BOOL DD FLAT:$SG187395
_DATA	ENDS
CONST	SEGMENT
	ORG $+3
$SG187397 DB	'sepint', 00H
CONST	ENDS
_DATA	SEGMENT
_TYPE_CONFIG_INT_HASSEP DD FLAT:$SG187397
_DATA	ENDS
CONST	SEGMENT
	ORG $+1
$SG187399 DB	'sepstr', 00H
CONST	ENDS
_DATA	SEGMENT
_TYPE_CONFIG_STR_HASSEP DD FLAT:$SG187399
_DATA	ENDS
CONST	SEGMENT
	ORG $+1
$SG187401 DB	'sepdouble', 00H
CONST	ENDS
_DATA	SEGMENT
_TYPE_CONFIG_DOUBLE_HASSEP DD FLAT:$SG187401
_DATA	ENDS
CONST	SEGMENT
	ORG $+2
$SG187403 DB	'sepbool', 00H
CONST	ENDS
_DATA	SEGMENT
_TYPE_CONFIG_BOOL_HASSEP DD FLAT:$SG187403
_DATA	ENDS
CONST	SEGMENT
$SG187405 DB	'Setting', 00H
CONST	ENDS
_DATA	SEGMENT
_CONF_SETTING_MODULE_NAME DD FLAT:$SG187405
_DATA	ENDS
CONST	SEGMENT
$SG187407 DB	'skin', 00H
CONST	ENDS
_DATA	SEGMENT
_CONF_SETTING_SKIN_IDX DD FLAT:$SG187407
_DATA	ENDS
CONST	SEGMENT
	ORG $+3
$SG187409 DB	'MainPage', 00H
CONST	ENDS
_DATA	SEGMENT
_CONF_SETTING_CONFIG_MAIN_PAGE DD FLAT:$SG187409
_DATA	ENDS
CONST	SEGMENT
	ORG $+3
$SG187411 DB	'ProblemReport', 00H
CONST	ENDS
_DATA	SEGMENT
_CONF_SETTING_CONFIG_PROBLEM_REPORT DD FLAT:$SG187411
_DATA	ENDS
CONST	SEGMENT
	ORG $+2
$SG187413 DB	'HomePage', 00H
CONST	ENDS
_DATA	SEGMENT
_CONF_SETTING_CONFIG_HOME_PAGE DD FLAT:$SG187413
_DATA	ENDS
CONST	SEGMENT
	ORG $+3
$SG187415 DB	'askexit', 00H
CONST	ENDS
_DATA	SEGMENT
_CONF_SETTING_CONFIG_IFASKEXIT DD FLAT:$SG187415
_DATA	ENDS
CONST	SEGMENT
$SG187417 DB	'exitchoice', 00H
CONST	ENDS
_DATA	SEGMENT
_CONF_SETTING_CONFIG_EXITCHOICE DD FLAT:$SG187417
_DATA	ENDS
CONST	SEGMENT
	ORG $+1
$SG187419 DB	'UN', 00H
CONST	ENDS
_DATA	SEGMENT
_CONF_SETTING_LOGIN_USER_NAME DD FLAT:$SG187419
_DATA	ENDS
CONST	SEGMENT
	ORG $+1
$SG187421 DB	'PW', 00H
CONST	ENDS
_DATA	SEGMENT
_CONF_SETTING_LOGIN_PASSWORD DD FLAT:$SG187421
_DATA	ENDS
CONST	SEGMENT
	ORG $+1
$SG187423 DB	'NetID', 00H
CONST	ENDS
_DATA	SEGMENT
_CONF_SETTING_NETID DD FLAT:$SG187423
_DATA	ENDS
CONST	SEGMENT
	ORG $+2
$SG187425 DB	'ChangeColorValue', 00H
CONST	ENDS
_DATA	SEGMENT
_CONF_SETTING_COLOR DD FLAT:$SG187425
_DATA	ENDS
CONST	SEGMENT
	ORG $+3
$SG187427 DB	'changeColorLight', 00H
CONST	ENDS
_DATA	SEGMENT
_CONF_SETTING_LIGHT DD FLAT:$SG187427
_DATA	ENDS
CONST	SEGMENT
	ORG $+3
$SG187429 DB	'ColorIndex', 00H
CONST	ENDS
_DATA	SEGMENT
_CONF_SETTING_COLOR_BTN_INDEX DD FLAT:$SG187429
_DATA	ENDS
CONST	SEGMENT
	ORG $+1
$SG187431 DB	'ColorUser', 00H
CONST	ENDS
_DATA	SEGMENT
_CONF_SETTING_COLOR_USER DD FLAT:$SG187431
_DATA	ENDS
CONST	SEGMENT
	ORG $+2
$SG187433 DB	'FirstTimeChangeSkin', 00H
CONST	ENDS
_DATA	SEGMENT
_CONF_SETTING_FIRST_TIME_CHANGESKIN DD FLAT:$SG187433
_DATA	ENDS
CONST	SEGMENT
$SG187540 DB	'CSysDialog', 00H
CONST	ENDS
;	COMDAT ?classCSysDialog@CSysDialog@@2UCRuntimeClass@@B
CONST	SEGMENT
?classCSysDialog@CSysDialog@@2UCRuntimeClass@@B DD FLAT:$SG187540 ; CSysDialog::classCSysDialog
	DD	0250H
	DD	0ffffH
	DD	00H
	DD	FLAT:?GetThisClass@BaseDialog@@SGPAUCRuntimeClass@@XZ
	DD	00H
	DD	00H
CONST	ENDS
;	COMDAT ?_messageEntries@CSysDialog@@0QBUAFX_MSGMAP_ENTRY@@B
CONST	SEGMENT
?_messageEntries@CSysDialog@@0QBUAFX_MSGMAP_ENTRY@@B DD 0111H ; CSysDialog::_messageEntries
	DD	00H
	DD	0d1H
	DD	0d1H
	DD	035H
	DD	FLAT:?OnBnClickedRadMin@CSysDialog@@IAEXXZ
	DD	0111H
	DD	00H
	DD	0d2H
	DD	0d2H
	DD	035H
	DD	FLAT:?OnBnClickedRadExit@CSysDialog@@IAEXXZ
	DD	0111H
	DD	00H
	DD	0d3H
	DD	0d3H
	DD	035H
	DD	FLAT:?OnBnClickedChkNoask@CSysDialog@@IAEXXZ
	DD	0111H
	DD	00H
	DD	0ceH
	DD	0ceH
	DD	035H
	DD	FLAT:?OnBnClickedCheckAutoRun@CSysDialog@@IAEXXZ
	DD	00H
	DD	00H
	DD	00H
	DD	00H
	DD	00H
	DD	00H
CONST	ENDS
;	COMDAT ?messageMap@CSysDialog@@1UAFX_MSGMAP@@B
CONST	SEGMENT
?messageMap@CSysDialog@@1UAFX_MSGMAP@@B DD FLAT:?GetThisMessageMap@BaseDialog@@KGPBUAFX_MSGMAP@@XZ ; CSysDialog::messageMap
	DD	FLAT:?_messageEntries@CSysDialog@@0QBUAFX_MSGMAP_ENTRY@@B
CONST	ENDS
PUBLIC	?GetThisClass@CSysDialog@@SGPAUCRuntimeClass@@XZ ; CSysDialog::GetThisClass
EXTRN	__RTC_InitBase:NEAR
EXTRN	__RTC_Shutdown:NEAR
;	COMDAT rtc$IMZ
; File d:\boxgit\playbox\playbox\dev\prj\playbox\src\appconfig\config\dlg\dlgsys.cpp
rtc$IMZ	SEGMENT
__RTC_InitBase.rtc$IMZ DD FLAT:__RTC_InitBase
rtc$IMZ	ENDS
;	COMDAT rtc$TMZ
rtc$TMZ	SEGMENT
__RTC_Shutdown.rtc$TMZ DD FLAT:__RTC_Shutdown
; Function compile flags: /Odt /RTCsu
rtc$TMZ	ENDS
_TEXT	SEGMENT
?GetThisClass@CSysDialog@@SGPAUCRuntimeClass@@XZ PROC NEAR ; CSysDialog::GetThisClass

; 9    : IMPLEMENT_DYNAMIC(CSysDialog, BaseDialog)

  00000	55		 push	 ebp
  00001	8b ec		 mov	 ebp, esp
  00003	b8 00 00 00 00	 mov	 eax, OFFSET FLAT:?classCSysDialog@CSysDialog@@2UCRuntimeClass@@B ; CSysDialog::classCSysDialog
  00008	5d		 pop	 ebp
  00009	c3		 ret	 0
?GetThisClass@CSysDialog@@SGPAUCRuntimeClass@@XZ ENDP	; CSysDialog::GetThisClass
_TEXT	ENDS
PUBLIC	?GetRuntimeClass@CSysDialog@@UBEPAUCRuntimeClass@@XZ ; CSysDialog::GetRuntimeClass
; Function compile flags: /Odt /RTCsu
_TEXT	SEGMENT
_this$ = -4						; size = 4
?GetRuntimeClass@CSysDialog@@UBEPAUCRuntimeClass@@XZ PROC NEAR ; CSysDialog::GetRuntimeClass
; _this$ = ecx

; 9    : IMPLEMENT_DYNAMIC(CSysDialog, BaseDialog)

  00010	55		 push	 ebp
  00011	8b ec		 mov	 ebp, esp
  00013	51		 push	 ecx
  00014	c7 45 fc cc cc
	cc cc		 mov	 DWORD PTR [ebp-4], -858993460 ; ccccccccH
  0001b	89 4d fc	 mov	 DWORD PTR _this$[ebp], ecx
  0001e	b8 00 00 00 00	 mov	 eax, OFFSET FLAT:?classCSysDialog@CSysDialog@@2UCRuntimeClass@@B ; CSysDialog::classCSysDialog
  00023	8b e5		 mov	 esp, ebp
  00025	5d		 pop	 ebp
  00026	c3		 ret	 0
?GetRuntimeClass@CSysDialog@@UBEPAUCRuntimeClass@@XZ ENDP ; CSysDialog::GetRuntimeClass
_TEXT	ENDS
PUBLIC	??_R1A@?0A@A@CDialog@@8				; CDialog::`RTTI Base Class Descriptor at (0,-1,0,0)'
PUBLIC	??_R0?AVCDialog@@@8				; CDialog `RTTI Type Descriptor'
PUBLIC	??_R1A@?0A@A@CWnd@@8				; CWnd::`RTTI Base Class Descriptor at (0,-1,0,0)'
PUBLIC	??_R0?AVCWnd@@@8				; CWnd `RTTI Type Descriptor'
PUBLIC	??_R1A@?0A@A@CCmdTarget@@8			; CCmdTarget::`RTTI Base Class Descriptor at (0,-1,0,0)'
PUBLIC	??_R0?AVCCmdTarget@@@8				; CCmdTarget `RTTI Type Descriptor'
PUBLIC	??_R1A@?0A@A@CObject@@8				; CObject::`RTTI Base Class Descriptor at (0,-1,0,0)'
PUBLIC	??_R0?AVCObject@@@8				; CObject `RTTI Type Descriptor'
PUBLIC	??_R4CSysDialog@@6B@				; CSysDialog::`RTTI Complete Object Locator'
PUBLIC	??_R0?AVCSysDialog@@@8				; CSysDialog `RTTI Type Descriptor'
PUBLIC	??_R3CSysDialog@@8				; CSysDialog::`RTTI Class Hierarchy Descriptor'
PUBLIC	??_R2CSysDialog@@8				; CSysDialog::`RTTI Base Class Array'
PUBLIC	??_R1A@?0A@A@CSysDialog@@8			; CSysDialog::`RTTI Base Class Descriptor at (0,-1,0,0)'
PUBLIC	??_R1A@?0A@A@BaseDialog@@8			; BaseDialog::`RTTI Base Class Descriptor at (0,-1,0,0)'
PUBLIC	??_R0?AVBaseDialog@@@8				; BaseDialog `RTTI Type Descriptor'
PUBLIC	??0BaseDialog@@QAE@XZ				; BaseDialog::BaseDialog
PUBLIC	??1BaseDialog@@UAE@XZ				; BaseDialog::~BaseDialog
PUBLIC	??0CSysDialog@@QAE@PAVCWnd@@@Z			; CSysDialog::CSysDialog
PUBLIC	?SetDefault@CSysDialog@@UAEXXZ			; CSysDialog::SetDefault
PUBLIC	?LoadConf@CSysDialog@@UAEXXZ			; CSysDialog::LoadConf
PUBLIC	?SaveConf@CSysDialog@@UAEX_N@Z			; CSysDialog::SaveConf
PUBLIC	?IsAllInputOK@CSysDialog@@UAE_NAAV?$basic_string@DU?$char_traits@D@std@@V?$allocator@D@2@@std@@@Z ; CSysDialog::IsAllInputOK
PUBLIC	?DoDataExchange@CSysDialog@@MAEXPAVCDataExchange@@@Z ; CSysDialog::DoDataExchange
PUBLIC	?GetMessageMap@CSysDialog@@MBEPBUAFX_MSGMAP@@XZ	; CSysDialog::GetMessageMap
PUBLIC	??_7CSysDialog@@6B@				; CSysDialog::`vftable'
PUBLIC	??_GCSysDialog@@UAEPAXI@Z			; CSysDialog::`scalar deleting destructor'
EXTRN	?GetInterfaceMap@CWnd@@MBEPBUAFX_INTERFACEMAP@@XZ:NEAR ; CWnd::GetInterfaceMap
EXTRN	?EnsureStdObj@CWnd@@UAEJXZ:NEAR			; CWnd::EnsureStdObj
EXTRN	?get_accParent@CWnd@@UAEJPAPAUIDispatch@@@Z:NEAR ; CWnd::get_accParent
EXTRN	?get_accChildCount@CWnd@@UAEJPAJ@Z:NEAR		; CWnd::get_accChildCount
EXTRN	?IsInvokeAllowed@CCmdTarget@@UAEHJ@Z:NEAR	; CCmdTarget::IsInvokeAllowed
EXTRN	?get_accChild@CWnd@@UAEJUtagVARIANT@@PAPAUIDispatch@@@Z:NEAR ; CWnd::get_accChild
EXTRN	?get_accName@CWnd@@UAEJUtagVARIANT@@PAPA_W@Z:NEAR ; CWnd::get_accName
EXTRN	?get_accValue@CWnd@@UAEJUtagVARIANT@@PAPA_W@Z:NEAR ; CWnd::get_accValue
EXTRN	?GetDispatchIID@CCmdTarget@@UAEHPAU_GUID@@@Z:NEAR ; CCmdTarget::GetDispatchIID
EXTRN	?GetTypeInfoCount@CCmdTarget@@UAEIXZ:NEAR	; CCmdTarget::GetTypeInfoCount
EXTRN	?GetTypeLibCache@CCmdTarget@@UAEPAVCTypeLibCache@@XZ:NEAR ; CCmdTarget::GetTypeLibCache
EXTRN	?get_accDescription@CWnd@@UAEJUtagVARIANT@@PAPA_W@Z:NEAR ; CWnd::get_accDescription
EXTRN	?GetTypeLib@CCmdTarget@@UAEJKPAPAUITypeLib@@@Z:NEAR ; CCmdTarget::GetTypeLib
EXTRN	?get_accRole@CWnd@@UAEJUtagVARIANT@@PAU2@@Z:NEAR ; CWnd::get_accRole
EXTRN	?get_accState@CWnd@@UAEJUtagVARIANT@@PAU2@@Z:NEAR ; CWnd::get_accState
EXTRN	?get_accHelp@CWnd@@UAEJUtagVARIANT@@PAPA_W@Z:NEAR ; CWnd::get_accHelp
EXTRN	?get_accHelpTopic@CWnd@@UAEJPAPA_WUtagVARIANT@@PAJ@Z:NEAR ; CWnd::get_accHelpTopic
EXTRN	?get_accKeyboardShortcut@CWnd@@UAEJUtagVARIANT@@PAPA_W@Z:NEAR ; CWnd::get_accKeyboardShortcut
EXTRN	?get_accFocus@CWnd@@UAEJPAUtagVARIANT@@@Z:NEAR	; CWnd::get_accFocus
EXTRN	?get_accSelection@CWnd@@UAEJPAUtagVARIANT@@@Z:NEAR ; CWnd::get_accSelection
EXTRN	?get_accDefaultAction@CWnd@@UAEJUtagVARIANT@@PAPA_W@Z:NEAR ; CWnd::get_accDefaultAction
EXTRN	?GetCommandMap@CCmdTarget@@MBEPBUAFX_OLECMDMAP@@XZ:NEAR ; CCmdTarget::GetCommandMap
EXTRN	?accSelect@CWnd@@UAEJJUtagVARIANT@@@Z:NEAR	; CWnd::accSelect
EXTRN	?accLocation@CWnd@@UAEJPAJ000UtagVARIANT@@@Z:NEAR ; CWnd::accLocation
EXTRN	?GetDispatchMap@CCmdTarget@@MBEPBUAFX_DISPMAP@@XZ:NEAR ; CCmdTarget::GetDispatchMap
EXTRN	?accNavigate@CWnd@@UAEJJUtagVARIANT@@PAU2@@Z:NEAR ; CWnd::accNavigate
EXTRN	?accHitTest@CWnd@@UAEJJJPAUtagVARIANT@@@Z:NEAR	; CWnd::accHitTest
EXTRN	?GetConnectionMap@CCmdTarget@@MBEPBUAFX_CONNECTIONMAP@@XZ:NEAR ; CCmdTarget::GetConnectionMap
EXTRN	?accDoDefaultAction@CWnd@@UAEJUtagVARIANT@@@Z:NEAR ; CWnd::accDoDefaultAction
EXTRN	?put_accName@CWnd@@UAEJUtagVARIANT@@PA_W@Z:NEAR	; CWnd::put_accName
EXTRN	?put_accValue@CWnd@@UAEJUtagVARIANT@@PA_W@Z:NEAR ; CWnd::put_accValue
EXTRN	?SetProxy@CWnd@@UAEJPAUIAccessibleProxy@@@Z:NEAR ; CWnd::SetProxy
EXTRN	?CreateAccessibleProxy@CWnd@@UAEJIJPAJ@Z:NEAR	; CWnd::CreateAccessibleProxy
EXTRN	?GetEventSinkMap@CCmdTarget@@MBEPBUAFX_EVENTSINKMAP@@XZ:NEAR ; CCmdTarget::GetEventSinkMap
EXTRN	?OnCreateAggregates@CCmdTarget@@UAEHXZ:NEAR	; CCmdTarget::OnCreateAggregates
EXTRN	?OnCommand@CWnd@@MAEHIJ@Z:NEAR			; CWnd::OnCommand
EXTRN	?GetInterfaceHook@CCmdTarget@@UAEPAUIUnknown@@PBX@Z:NEAR ; CCmdTarget::GetInterfaceHook
EXTRN	?OnNotify@CWnd@@MAEHIJPAJ@Z:NEAR		; CWnd::OnNotify
EXTRN	?GetExtraConnectionPoints@CCmdTarget@@MAEHPAVCPtrArray@@@Z:NEAR ; CCmdTarget::GetExtraConnectionPoints
EXTRN	?GetConnectionHook@CCmdTarget@@MAEPAUIConnectionPoint@@ABU_GUID@@@Z:NEAR ; CCmdTarget::GetConnectionHook
EXTRN	?PreSubclassWindow@CWnd@@UAEXXZ:NEAR		; CWnd::PreSubclassWindow
EXTRN	?Create@CWnd@@UAEHPBD0KABUtagRECT@@PAV1@IPAUCCreateContext@@@Z:NEAR ; CWnd::Create
EXTRN	?CreateEx@CWnd@@UAEHKPBD0KHHHHPAUHWND__@@PAUHMENU__@@PAX@Z:NEAR ; CWnd::CreateEx
EXTRN	?CreateEx@CWnd@@UAEHKPBD0KABUtagRECT@@PAV1@IPAX@Z:NEAR ; CWnd::CreateEx
EXTRN	?Serialize@CObject@@UAEXAAVCArchive@@@Z:NEAR	; CObject::Serialize
EXTRN	?DestroyWindow@CWnd@@UAEHXZ:NEAR		; CWnd::DestroyWindow
EXTRN	?PreCreateWindow@CWnd@@UAEHAAUtagCREATESTRUCTA@@@Z:NEAR ; CWnd::PreCreateWindow
EXTRN	?CalcWindowRect@CWnd@@UAEXPAUtagRECT@@I@Z:NEAR	; CWnd::CalcWindowRect
EXTRN	?GetSuperWndProcAddr@CWnd@@MAEPAP6GJPAUHWND__@@IIJ@ZXZ:NEAR ; CWnd::GetSuperWndProcAddr
EXTRN	?BeginModalState@CWnd@@UAEXXZ:NEAR		; CWnd::BeginModalState
EXTRN	?EndModalState@CWnd@@UAEXXZ:NEAR		; CWnd::EndModalState
EXTRN	?OnAmbientProperty@CWnd@@UAEHPAVCOleControlSite@@JPAUtagVARIANT@@@Z:NEAR ; CWnd::OnAmbientProperty
EXTRN	?WindowProc@CWnd@@MAEJIIJ@Z:NEAR		; CWnd::WindowProc
EXTRN	?OnWndMsg@CWnd@@MAEHIIJPAJ@Z:NEAR		; CWnd::OnWndMsg
EXTRN	?DefWindowProcA@CWnd@@MAEJIIJ@Z:NEAR		; CWnd::DefWindowProcA
EXTRN	?PostNcDestroy@CWnd@@MAEXXZ:NEAR		; CWnd::PostNcDestroy
EXTRN	?OnChildNotify@CWnd@@MAEHIIJPAJ@Z:NEAR		; CWnd::OnChildNotify
EXTRN	?IsFrameWnd@CWnd@@UBEHXZ:NEAR			; CWnd::IsFrameWnd
EXTRN	?OnFinalRelease@CWnd@@UAEXXZ:NEAR		; CWnd::OnFinalRelease
EXTRN	??0SetBaseStatic@@QAE@XZ:NEAR			; SetBaseStatic::SetBaseStatic
EXTRN	??1SetBaseStatic@@UAE@XZ:NEAR			; SetBaseStatic::~SetBaseStatic
EXTRN	?CreateControlContainer@CWnd@@MAEHPAPAVCOleControlContainer@@@Z:NEAR ; CWnd::CreateControlContainer
EXTRN	?CreateControlSite@CWnd@@MAEHPAVCOleControlContainer@@PAPAVCOleControlSite@@IABU_GUID@@@Z:NEAR ; CWnd::CreateControlSite
EXTRN	??0SetBaseButton@@QAE@XZ:NEAR			; SetBaseButton::SetBaseButton
EXTRN	??1SetBaseButton@@UAE@XZ:NEAR			; SetBaseButton::~SetBaseButton
EXTRN	__except_list:DWORD
EXTRN	__RTC_CheckEsp:NEAR
EXTRN	___CxxFrameHandler:NEAR
EXTRN	?OnOK@BaseDialog@@MAEXXZ:NEAR			; BaseDialog::OnOK
EXTRN	?OnCancel@BaseDialog@@MAEXXZ:NEAR		; BaseDialog::OnCancel
EXTRN	?OnInitDialog@BaseDialog@@MAEHXZ:NEAR		; BaseDialog::OnInitDialog
EXTRN	?SthChanged@BaseDialog@@UAEXXZ:NEAR		; BaseDialog::SthChanged
EXTRN	?Create@CDialog@@UAEHPBDPAVCWnd@@@Z:NEAR	; CDialog::Create
EXTRN	?Create@CDialog@@UAEHIPAVCWnd@@@Z:NEAR		; CDialog::Create
EXTRN	?CreateIndirect@CDialog@@UAEHPBUDLGTEMPLATE@@PAVCWnd@@PAX@Z:NEAR ; CDialog::CreateIndirect
EXTRN	?CreateIndirect@CDialog@@UAEHPAXPAVCWnd@@@Z:NEAR ; CDialog::CreateIndirect
EXTRN	?OnToolHitTest@CWnd@@UBEHVCPoint@@PAUtagTOOLINFOA@@@Z:NEAR ; CWnd::OnToolHitTest
EXTRN	??0CDialog@@QAE@IPAVCWnd@@@Z:NEAR		; CDialog::CDialog
EXTRN	?DoModal@CDialog@@UAEHXZ:NEAR			; CDialog::DoModal
EXTRN	??_ECSysDialog@@UAEPAXI@Z:NEAR			; CSysDialog::`vector deleting destructor'
EXTRN	?OnSetFont@CDialog@@UAEXPAVCFont@@@Z:NEAR	; CDialog::OnSetFont
EXTRN	??1CDialog@@UAE@XZ:NEAR				; CDialog::~CDialog
EXTRN	?AssertValid@CDialog@@UBEXXZ:NEAR		; CDialog::AssertValid
EXTRN	?Dump@CDialog@@UBEXAAVCDumpContext@@@Z:NEAR	; CDialog::Dump
EXTRN	?PreTranslateMessage@CDialog@@UAEHPAUtagMSG@@@Z:NEAR ; CDialog::PreTranslateMessage
EXTRN	?OnCmdMsg@CDialog@@UAEHIHPAXPAUAFX_CMDHANDLERINFO@@@Z:NEAR ; CDialog::OnCmdMsg
EXTRN	?CheckAutoCenter@CDialog@@UAEHXZ:NEAR		; CDialog::CheckAutoCenter
EXTRN	?SetOccDialogInfo@CDialog@@MAEHPAU_AFX_OCC_DIALOG_INFO@@@Z:NEAR ; CDialog::SetOccDialogInfo
EXTRN	?PreInitDialog@CDialog@@MAEXXZ:NEAR		; CDialog::PreInitDialog
EXTRN	?GetScrollBarCtrl@CWnd@@UBEPAVCScrollBar@@H@Z:NEAR ; CWnd::GetScrollBarCtrl
EXTRN	?WinHelpA@CWnd@@UAEXKI@Z:NEAR			; CWnd::WinHelpA
EXTRN	?HtmlHelpA@CWnd@@UAEXKI@Z:NEAR			; CWnd::HtmlHelpA
EXTRN	??_7type_info@@6B@:QWORD			; type_info::`vftable'
EXTRN	?WinHelpInternal@CWnd@@UAEXKI@Z:NEAR		; CWnd::WinHelpInternal
EXTRN	?ContinueModal@CWnd@@UAEHXZ:NEAR		; CWnd::ContinueModal
EXTRN	?EndModalLoop@CWnd@@UAEXH@Z:NEAR		; CWnd::EndModalLoop
xdata$x	SEGMENT
$T188116 DD	0ffffffffH
	DD	FLAT:$L188102
	DD	00H
	DD	FLAT:$L188103
	DD	01H
	DD	FLAT:$L188104
	DD	02H
	DD	FLAT:$L188105
	DD	03H
	DD	FLAT:$L188106
	DD	04H
	DD	FLAT:$L188107
$T188112 DD	019930520H
	DD	06H
	DD	FLAT:$T188116
	DD	2 DUP(00H)
	DD	2 DUP(00H)
xdata$x	ENDS
;	COMDAT ??_7CSysDialog@@6B@
CONST	SEGMENT
??_7CSysDialog@@6B@ DD FLAT:??_R4CSysDialog@@6B@	; CSysDialog::`vftable'
	DD	FLAT:?GetRuntimeClass@CSysDialog@@UBEPAUCRuntimeClass@@XZ
	DD	FLAT:??_ECSysDialog@@UAEPAXI@Z
	DD	FLAT:?Serialize@CObject@@UAEXAAVCArchive@@@Z
	DD	FLAT:?AssertValid@CDialog@@UBEXXZ
	DD	FLAT:?Dump@CDialog@@UBEXAAVCDumpContext@@@Z
	DD	FLAT:?OnCmdMsg@CDialog@@UAEHIHPAXPAUAFX_CMDHANDLERINFO@@@Z
	DD	FLAT:?OnFinalRelease@CWnd@@UAEXXZ
	DD	FLAT:?IsInvokeAllowed@CCmdTarget@@UAEHJ@Z
	DD	FLAT:?GetDispatchIID@CCmdTarget@@UAEHPAU_GUID@@@Z
	DD	FLAT:?GetTypeInfoCount@CCmdTarget@@UAEIXZ
	DD	FLAT:?GetTypeLibCache@CCmdTarget@@UAEPAVCTypeLibCache@@XZ
	DD	FLAT:?GetTypeLib@CCmdTarget@@UAEJKPAPAUITypeLib@@@Z
	DD	FLAT:?GetMessageMap@CSysDialog@@MBEPBUAFX_MSGMAP@@XZ
	DD	FLAT:?GetCommandMap@CCmdTarget@@MBEPBUAFX_OLECMDMAP@@XZ
	DD	FLAT:?GetDispatchMap@CCmdTarget@@MBEPBUAFX_DISPMAP@@XZ
	DD	FLAT:?GetConnectionMap@CCmdTarget@@MBEPBUAFX_CONNECTIONMAP@@XZ
	DD	FLAT:?GetInterfaceMap@CWnd@@MBEPBUAFX_INTERFACEMAP@@XZ
	DD	FLAT:?GetEventSinkMap@CCmdTarget@@MBEPBUAFX_EVENTSINKMAP@@XZ
	DD	FLAT:?OnCreateAggregates@CCmdTarget@@UAEHXZ
	DD	FLAT:?GetInterfaceHook@CCmdTarget@@UAEPAUIUnknown@@PBX@Z
	DD	FLAT:?GetExtraConnectionPoints@CCmdTarget@@MAEHPAVCPtrArray@@@Z
	DD	FLAT:?GetConnectionHook@CCmdTarget@@MAEPAUIConnectionPoint@@ABU_GUID@@@Z
	DD	FLAT:?PreSubclassWindow@CWnd@@UAEXXZ
	DD	FLAT:?Create@CWnd@@UAEHPBD0KABUtagRECT@@PAV1@IPAUCCreateContext@@@Z
	DD	FLAT:?CreateEx@CWnd@@UAEHKPBD0KABUtagRECT@@PAV1@IPAX@Z
	DD	FLAT:?CreateEx@CWnd@@UAEHKPBD0KHHHHPAUHWND__@@PAUHMENU__@@PAX@Z
	DD	FLAT:?DestroyWindow@CWnd@@UAEHXZ
	DD	FLAT:?PreCreateWindow@CWnd@@UAEHAAUtagCREATESTRUCTA@@@Z
	DD	FLAT:?CalcWindowRect@CWnd@@UAEXPAUtagRECT@@I@Z
	DD	FLAT:?OnToolHitTest@CWnd@@UBEHVCPoint@@PAUtagTOOLINFOA@@@Z
	DD	FLAT:?GetScrollBarCtrl@CWnd@@UBEPAVCScrollBar@@H@Z
	DD	FLAT:?WinHelpA@CWnd@@UAEXKI@Z
	DD	FLAT:?HtmlHelpA@CWnd@@UAEXKI@Z
	DD	FLAT:?WinHelpInternal@CWnd@@UAEXKI@Z
	DD	FLAT:?ContinueModal@CWnd@@UAEHXZ
	DD	FLAT:?EndModalLoop@CWnd@@UAEXH@Z
	DD	FLAT:?EnsureStdObj@CWnd@@UAEJXZ
	DD	FLAT:?get_accParent@CWnd@@UAEJPAPAUIDispatch@@@Z
	DD	FLAT:?get_accChildCount@CWnd@@UAEJPAJ@Z
	DD	FLAT:?get_accChild@CWnd@@UAEJUtagVARIANT@@PAPAUIDispatch@@@Z
	DD	FLAT:?get_accName@CWnd@@UAEJUtagVARIANT@@PAPA_W@Z
	DD	FLAT:?get_accValue@CWnd@@UAEJUtagVARIANT@@PAPA_W@Z
	DD	FLAT:?get_accDescription@CWnd@@UAEJUtagVARIANT@@PAPA_W@Z
	DD	FLAT:?get_accRole@CWnd@@UAEJUtagVARIANT@@PAU2@@Z
	DD	FLAT:?get_accState@CWnd@@UAEJUtagVARIANT@@PAU2@@Z
	DD	FLAT:?get_accHelp@CWnd@@UAEJUtagVARIANT@@PAPA_W@Z
	DD	FLAT:?get_accHelpTopic@CWnd@@UAEJPAPA_WUtagVARIANT@@PAJ@Z
	DD	FLAT:?get_accKeyboardShortcut@CWnd@@UAEJUtagVARIANT@@PAPA_W@Z
	DD	FLAT:?get_accFocus@CWnd@@UAEJPAUtagVARIANT@@@Z
	DD	FLAT:?get_accSelection@CWnd@@UAEJPAUtagVARIANT@@@Z
	DD	FLAT:?get_accDefaultAction@CWnd@@UAEJUtagVARIANT@@PAPA_W@Z
	DD	FLAT:?accSelect@CWnd@@UAEJJUtagVARIANT@@@Z
	DD	FLAT:?accLocation@CWnd@@UAEJPAJ000UtagVARIANT@@@Z
	DD	FLAT:?accNavigate@CWnd@@UAEJJUtagVARIANT@@PAU2@@Z
	DD	FLAT:?accHitTest@CWnd@@UAEJJJPAUtagVARIANT@@@Z
	DD	FLAT:?accDoDefaultAction@CWnd@@UAEJUtagVARIANT@@@Z
	DD	FLAT:?put_accName@CWnd@@UAEJUtagVARIANT@@PA_W@Z
	DD	FLAT:?put_accValue@CWnd@@UAEJUtagVARIANT@@PA_W@Z
	DD	FLAT:?SetProxy@CWnd@@UAEJPAUIAccessibleProxy@@@Z
	DD	FLAT:?CreateAccessibleProxy@CWnd@@UAEJIJPAJ@Z
	DD	FLAT:?OnCommand@CWnd@@MAEHIJ@Z
	DD	FLAT:?OnNotify@CWnd@@MAEHIJPAJ@Z
	DD	FLAT:?GetSuperWndProcAddr@CWnd@@MAEPAP6GJPAUHWND__@@IIJ@ZXZ
	DD	FLAT:?DoDataExchange@CSysDialog@@MAEXPAVCDataExchange@@@Z
	DD	FLAT:?BeginModalState@CWnd@@UAEXXZ
	DD	FLAT:?EndModalState@CWnd@@UAEXXZ
	DD	FLAT:?PreTranslateMessage@CDialog@@UAEHPAUtagMSG@@@Z
	DD	FLAT:?OnAmbientProperty@CWnd@@UAEHPAVCOleControlSite@@JPAUtagVARIANT@@@Z
	DD	FLAT:?WindowProc@CWnd@@MAEJIIJ@Z
	DD	FLAT:?OnWndMsg@CWnd@@MAEHIIJPAJ@Z
	DD	FLAT:?DefWindowProcA@CWnd@@MAEJIIJ@Z
	DD	FLAT:?PostNcDestroy@CWnd@@MAEXXZ
	DD	FLAT:?OnChildNotify@CWnd@@MAEHIIJPAJ@Z
	DD	FLAT:?CheckAutoCenter@CDialog@@UAEHXZ
	DD	FLAT:?IsFrameWnd@CWnd@@UBEHXZ
	DD	FLAT:?CreateControlContainer@CWnd@@MAEHPAPAVCOleControlContainer@@@Z
	DD	FLAT:?CreateControlSite@CWnd@@MAEHPAVCOleControlContainer@@PAPAVCOleControlSite@@IABU_GUID@@@Z
	DD	FLAT:?SetOccDialogInfo@CDialog@@MAEHPAU_AFX_OCC_DIALOG_INFO@@@Z
	DD	FLAT:?Create@CDialog@@UAEHIPAVCWnd@@@Z
	DD	FLAT:?Create@CDialog@@UAEHPBDPAVCWnd@@@Z
	DD	FLAT:?CreateIndirect@CDialog@@UAEHPAXPAVCWnd@@@Z
	DD	FLAT:?CreateIndirect@CDialog@@UAEHPBUDLGTEMPLATE@@PAVCWnd@@PAX@Z
	DD	FLAT:?DoModal@CDialog@@UAEHXZ
	DD	FLAT:?OnInitDialog@BaseDialog@@MAEHXZ
	DD	FLAT:?OnSetFont@CDialog@@UAEXPAVCFont@@@Z
	DD	FLAT:?OnOK@BaseDialog@@MAEXXZ
	DD	FLAT:?OnCancel@BaseDialog@@MAEXXZ
	DD	FLAT:?PreInitDialog@CDialog@@MAEXXZ
	DD	FLAT:?SthChanged@BaseDialog@@UAEXXZ
	DD	FLAT:?SetDefault@CSysDialog@@UAEXXZ
	DD	FLAT:?LoadConf@CSysDialog@@UAEXXZ
	DD	FLAT:?SaveConf@CSysDialog@@UAEX_N@Z
	DD	FLAT:?IsAllInputOK@CSysDialog@@UAE_NAAV?$basic_string@DU?$char_traits@D@std@@V?$allocator@D@2@@std@@@Z
CONST	ENDS
;	COMDAT ??_R4CSysDialog@@6B@
rdata$r	SEGMENT
??_R4CSysDialog@@6B@ DD 00H				; CSysDialog::`RTTI Complete Object Locator'
	DD	00H
	DD	00H
	DD	FLAT:??_R0?AVCSysDialog@@@8
	DD	FLAT:??_R3CSysDialog@@8
rdata$r	ENDS
;	COMDAT ??_R0?AVCSysDialog@@@8
_DATA	SEGMENT
??_R0?AVCSysDialog@@@8 DD FLAT:??_7type_info@@6B@	; CSysDialog `RTTI Type Descriptor'
	DD	00H
	DB	'.?AVCSysDialog@@', 00H
_DATA	ENDS
;	COMDAT ??_R3CSysDialog@@8
rdata$r	SEGMENT
??_R3CSysDialog@@8 DD 00H				; CSysDialog::`RTTI Class Hierarchy Descriptor'
	DD	00H
	DD	06H
	DD	FLAT:??_R2CSysDialog@@8
rdata$r	ENDS
;	COMDAT ??_R2CSysDialog@@8
rdata$r	SEGMENT
??_R2CSysDialog@@8 DD FLAT:??_R1A@?0A@A@CSysDialog@@8	; CSysDialog::`RTTI Base Class Array'
	DD	FLAT:??_R1A@?0A@A@BaseDialog@@8
	DD	FLAT:??_R1A@?0A@A@CDialog@@8
	DD	FLAT:??_R1A@?0A@A@CWnd@@8
	DD	FLAT:??_R1A@?0A@A@CCmdTarget@@8
	DD	FLAT:??_R1A@?0A@A@CObject@@8
rdata$r	ENDS
;	COMDAT ??_R1A@?0A@A@CSysDialog@@8
rdata$r	SEGMENT
??_R1A@?0A@A@CSysDialog@@8 DD FLAT:??_R0?AVCSysDialog@@@8 ; CSysDialog::`RTTI Base Class Descriptor at (0,-1,0,0)'
	DD	05H
	DD	00H
	DD	0ffffffffH
	DD	00H
	DD	00H
rdata$r	ENDS
;	COMDAT ??_R1A@?0A@A@BaseDialog@@8
rdata$r	SEGMENT
??_R1A@?0A@A@BaseDialog@@8 DD FLAT:??_R0?AVBaseDialog@@@8 ; BaseDialog::`RTTI Base Class Descriptor at (0,-1,0,0)'
	DD	04H
	DD	00H
	DD	0ffffffffH
	DD	00H
	DD	00H
rdata$r	ENDS
;	COMDAT ??_R0?AVBaseDialog@@@8
_DATA	SEGMENT
??_R0?AVBaseDialog@@@8 DD FLAT:??_7type_info@@6B@	; BaseDialog `RTTI Type Descriptor'
	DD	00H
	DB	'.?AVBaseDialog@@', 00H
_DATA	ENDS
;	COMDAT ??_R1A@?0A@A@CDialog@@8
rdata$r	SEGMENT
??_R1A@?0A@A@CDialog@@8 DD FLAT:??_R0?AVCDialog@@@8	; CDialog::`RTTI Base Class Descriptor at (0,-1,0,0)'
	DD	03H
	DD	00H
	DD	0ffffffffH
	DD	00H
	DD	00H
rdata$r	ENDS
;	COMDAT ??_R0?AVCDialog@@@8
_DATA	SEGMENT
??_R0?AVCDialog@@@8 DD FLAT:??_7type_info@@6B@		; CDialog `RTTI Type Descriptor'
	DD	00H
	DB	'.?AVCDialog@@', 00H
_DATA	ENDS
;	COMDAT ??_R1A@?0A@A@CWnd@@8
rdata$r	SEGMENT
??_R1A@?0A@A@CWnd@@8 DD FLAT:??_R0?AVCWnd@@@8		; CWnd::`RTTI Base Class Descriptor at (0,-1,0,0)'
	DD	02H
	DD	00H
	DD	0ffffffffH
	DD	00H
	DD	00H
rdata$r	ENDS
;	COMDAT ??_R0?AVCWnd@@@8
_DATA	SEGMENT
??_R0?AVCWnd@@@8 DD FLAT:??_7type_info@@6B@		; CWnd `RTTI Type Descriptor'
	DD	00H
	DB	'.?AVCWnd@@', 00H
_DATA	ENDS
;	COMDAT ??_R1A@?0A@A@CCmdTarget@@8
rdata$r	SEGMENT
??_R1A@?0A@A@CCmdTarget@@8 DD FLAT:??_R0?AVCCmdTarget@@@8 ; CCmdTarget::`RTTI Base Class Descriptor at (0,-1,0,0)'
	DD	01H
	DD	00H
	DD	0ffffffffH
	DD	00H
	DD	00H
rdata$r	ENDS
;	COMDAT ??_R0?AVCCmdTarget@@@8
_DATA	SEGMENT
??_R0?AVCCmdTarget@@@8 DD FLAT:??_7type_info@@6B@	; CCmdTarget `RTTI Type Descriptor'
	DD	00H
	DB	'.?AVCCmdTarget@@', 00H
_DATA	ENDS
;	COMDAT ??_R1A@?0A@A@CObject@@8
rdata$r	SEGMENT
??_R1A@?0A@A@CObject@@8 DD FLAT:??_R0?AVCObject@@@8	; CObject::`RTTI Base Class Descriptor at (0,-1,0,0)'
	DD	00H
	DD	00H
	DD	0ffffffffH
	DD	00H
	DD	00H
rdata$r	ENDS
;	COMDAT ??_R0?AVCObject@@@8
_DATA	SEGMENT
??_R0?AVCObject@@@8 DD FLAT:??_7type_info@@6B@		; CObject `RTTI Type Descriptor'
	DD	00H
	DB	'.?AVCObject@@', 00H
; Function compile flags: /Odt /RTCsu
_DATA	ENDS
_TEXT	SEGMENT
$T188101 = -132						; size = 116
_this$ = -16						; size = 4
__$EHRec$ = -12						; size = 12
_pParent$ = 8						; size = 4
??0CSysDialog@@QAE@PAVCWnd@@@Z PROC NEAR		; CSysDialog::CSysDialog
; _this$ = ecx

; 12   : {

  00030	55		 push	 ebp
  00031	8b ec		 mov	 ebp, esp
  00033	6a ff		 push	 -1
  00035	68 00 00 00 00	 push	 __ehhandler$??0CSysDialog@@QAE@PAVCWnd@@@Z
  0003a	64 a1 00 00 00
	00		 mov	 eax, DWORD PTR fs:__except_list
  00040	50		 push	 eax
  00041	64 89 25 00 00
	00 00		 mov	 DWORD PTR fs:__except_list, esp
  00048	83 ec 78	 sub	 esp, 120		; 00000078H
  0004b	57		 push	 edi
  0004c	51		 push	 ecx
  0004d	8d bd 7c ff ff
	ff		 lea	 edi, DWORD PTR [ebp-132]
  00053	b9 1e 00 00 00	 mov	 ecx, 30			; 0000001eH
  00058	b8 cc cc cc cc	 mov	 eax, -858993460		; ccccccccH
  0005d	f3 ab		 rep stosd
  0005f	59		 pop	 ecx
  00060	89 4d f0	 mov	 DWORD PTR _this$[ebp], ecx
  00063	8b 4d f0	 mov	 ecx, DWORD PTR _this$[ebp]
  00066	e8 00 00 00 00	 call	 ??0BaseDialog@@QAE@XZ
  0006b	c7 45 fc 00 00
	00 00		 mov	 DWORD PTR __$EHRec$[ebp+8], 0
  00072	8b 45 f0	 mov	 eax, DWORD PTR _this$[ebp]
  00075	c7 00 00 00 00
	00		 mov	 DWORD PTR [eax], OFFSET FLAT:??_7CSysDialog@@6B@
  0007b	8b 4d f0	 mov	 ecx, DWORD PTR _this$[ebp]
  0007e	81 c1 94 00 00
	00		 add	 ecx, 148		; 00000094H
  00084	e8 00 00 00 00	 call	 ??0SetBaseButton@@QAE@XZ ; SetBaseButton::SetBaseButton
  00089	c6 45 fc 01	 mov	 BYTE PTR __$EHRec$[ebp+8], 1
  0008d	8b 4d f0	 mov	 ecx, DWORD PTR _this$[ebp]
  00090	81 c1 f0 00 00
	00		 add	 ecx, 240		; 000000f0H
  00096	e8 00 00 00 00	 call	 ??0SetBaseButton@@QAE@XZ ; SetBaseButton::SetBaseButton
  0009b	c6 45 fc 02	 mov	 BYTE PTR __$EHRec$[ebp+8], 2
  0009f	8b 4d f0	 mov	 ecx, DWORD PTR _this$[ebp]
  000a2	81 c1 44 01 00
	00		 add	 ecx, 324		; 00000144H
  000a8	e8 00 00 00 00	 call	 ??0SetBaseButton@@QAE@XZ ; SetBaseButton::SetBaseButton
  000ad	c6 45 fc 03	 mov	 BYTE PTR __$EHRec$[ebp+8], 3
  000b1	8b 4d f0	 mov	 ecx, DWORD PTR _this$[ebp]
  000b4	81 c1 98 01 00
	00		 add	 ecx, 408		; 00000198H
  000ba	e8 00 00 00 00	 call	 ??0SetBaseButton@@QAE@XZ ; SetBaseButton::SetBaseButton
  000bf	c6 45 fc 04	 mov	 BYTE PTR __$EHRec$[ebp+8], 4
  000c3	8b 4d f0	 mov	 ecx, DWORD PTR _this$[ebp]
  000c6	81 c1 ec 01 00
	00		 add	 ecx, 492		; 000001ecH
  000cc	e8 00 00 00 00	 call	 ??0SetBaseStatic@@QAE@XZ ; SetBaseStatic::SetBaseStatic
  000d1	c6 45 fc 05	 mov	 BYTE PTR __$EHRec$[ebp+8], 5

; 13   : 	CDialog(CSysDialog::IDD, pParent);

  000d5	8b 4d 08	 mov	 ecx, DWORD PTR _pParent$[ebp]
  000d8	51		 push	 ecx
  000d9	68 cc 00 00 00	 push	 204			; 000000ccH
  000de	8d 8d 7c ff ff
	ff		 lea	 ecx, DWORD PTR $T188101[ebp]
  000e4	e8 00 00 00 00	 call	 ??0CDialog@@QAE@IPAVCWnd@@@Z ; CDialog::CDialog
  000e9	8d 8d 7c ff ff
	ff		 lea	 ecx, DWORD PTR $T188101[ebp]
  000ef	e8 00 00 00 00	 call	 ??1CDialog@@UAE@XZ	; CDialog::~CDialog

; 14   : 	m_minOrExit = FALSE;

  000f4	8b 55 f0	 mov	 edx, DWORD PTR _this$[ebp]
  000f7	c7 82 e8 00 00
	00 00 00 00 00	 mov	 DWORD PTR [edx+232], 0

; 15   : 	m_noAsk     = FALSE;

  00101	8b 45 f0	 mov	 eax, DWORD PTR _this$[ebp]
  00104	c7 80 ec 00 00
	00 00 00 00 00	 mov	 DWORD PTR [eax+236], 0

; 16   : }

  0010e	c7 45 fc ff ff
	ff ff		 mov	 DWORD PTR __$EHRec$[ebp+8], -1
  00115	8b 45 f0	 mov	 eax, DWORD PTR _this$[ebp]
  00118	8b 4d f4	 mov	 ecx, DWORD PTR __$EHRec$[ebp]
  0011b	64 89 0d 00 00
	00 00		 mov	 DWORD PTR fs:__except_list, ecx
  00122	5f		 pop	 edi
  00123	81 c4 84 00 00
	00		 add	 esp, 132		; 00000084H
  00129	3b ec		 cmp	 ebp, esp
  0012b	e8 00 00 00 00	 call	 __RTC_CheckEsp
  00130	8b e5		 mov	 esp, ebp
  00132	5d		 pop	 ebp
  00133	c2 04 00	 ret	 4
_TEXT	ENDS
text$x	SEGMENT
$L188102:
  00000	8b 4d f0	 mov	 ecx, DWORD PTR _this$[ebp]
  00003	e9 00 00 00 00	 jmp	 ??1BaseDialog@@UAE@XZ
$L188103:
  00008	8b 4d f0	 mov	 ecx, DWORD PTR _this$[ebp]
  0000b	81 c1 94 00 00
	00		 add	 ecx, 148		; 00000094H
  00011	e9 00 00 00 00	 jmp	 ??1SetBaseButton@@UAE@XZ ; SetBaseButton::~SetBaseButton
$L188104:
  00016	8b 4d f0	 mov	 ecx, DWORD PTR _this$[ebp]
  00019	81 c1 f0 00 00
	00		 add	 ecx, 240		; 000000f0H
  0001f	e9 00 00 00 00	 jmp	 ??1SetBaseButton@@UAE@XZ ; SetBaseButton::~SetBaseButton
$L188105:
  00024	8b 4d f0	 mov	 ecx, DWORD PTR _this$[ebp]
  00027	81 c1 44 01 00
	00		 add	 ecx, 324		; 00000144H
  0002d	e9 00 00 00 00	 jmp	 ??1SetBaseButton@@UAE@XZ ; SetBaseButton::~SetBaseButton
$L188106:
  00032	8b 4d f0	 mov	 ecx, DWORD PTR _this$[ebp]
  00035	81 c1 98 01 00
	00		 add	 ecx, 408		; 00000198H
  0003b	e9 00 00 00 00	 jmp	 ??1SetBaseButton@@UAE@XZ ; SetBaseButton::~SetBaseButton
$L188107:
  00040	8b 4d f0	 mov	 ecx, DWORD PTR _this$[ebp]
  00043	81 c1 ec 01 00
	00		 add	 ecx, 492		; 000001ecH
  00049	e9 00 00 00 00	 jmp	 ??1SetBaseStatic@@UAE@XZ ; SetBaseStatic::~SetBaseStatic
__ehhandler$??0CSysDialog@@QAE@PAVCWnd@@@Z:
  0004e	b8 00 00 00 00	 mov	 eax, OFFSET FLAT:$T188112
  00053	e9 00 00 00 00	 jmp	 ___CxxFrameHandler
text$x	ENDS
??0CSysDialog@@QAE@PAVCWnd@@@Z ENDP			; CSysDialog::CSysDialog
PUBLIC	??1CSysDialog@@UAE@XZ				; CSysDialog::~CSysDialog
EXTRN	??3CObject@@SGXPAX@Z:NEAR			; CObject::operator delete
; Function compile flags: /Odt /RTCsu
;	COMDAT ??_GCSysDialog@@UAEPAXI@Z
_TEXT	SEGMENT
_this$ = -4						; size = 4
___flags$ = 8						; size = 4
??_GCSysDialog@@UAEPAXI@Z PROC NEAR			; CSysDialog::`scalar deleting destructor', COMDAT
; _this$ = ecx
  00000	55		 push	 ebp
  00001	8b ec		 mov	 ebp, esp
  00003	51		 push	 ecx
  00004	c7 45 fc cc cc
	cc cc		 mov	 DWORD PTR [ebp-4], -858993460 ; ccccccccH
  0000b	89 4d fc	 mov	 DWORD PTR _this$[ebp], ecx
  0000e	8b 4d fc	 mov	 ecx, DWORD PTR _this$[ebp]
  00011	e8 00 00 00 00	 call	 ??1CSysDialog@@UAE@XZ	; CSysDialog::~CSysDialog
  00016	8b 45 08	 mov	 eax, DWORD PTR ___flags$[ebp]
  00019	83 e0 01	 and	 eax, 1
  0001c	74 09		 je	 SHORT $L187557
  0001e	8b 4d fc	 mov	 ecx, DWORD PTR _this$[ebp]
  00021	51		 push	 ecx
  00022	e8 00 00 00 00	 call	 ??3CObject@@SGXPAX@Z	; CObject::operator delete
$L187557:
  00027	8b 45 fc	 mov	 eax, DWORD PTR _this$[ebp]
  0002a	83 c4 04	 add	 esp, 4
  0002d	3b ec		 cmp	 ebp, esp
  0002f	e8 00 00 00 00	 call	 __RTC_CheckEsp
  00034	8b e5		 mov	 esp, ebp
  00036	5d		 pop	 ebp
  00037	c2 04 00	 ret	 4
??_GCSysDialog@@UAEPAXI@Z ENDP				; CSysDialog::`scalar deleting destructor'
_TEXT	ENDS
PUBLIC	??_R4BaseDialog@@6B@				; BaseDialog::`RTTI Complete Object Locator'
PUBLIC	??_R3BaseDialog@@8				; BaseDialog::`RTTI Class Hierarchy Descriptor'
PUBLIC	??_R2BaseDialog@@8				; BaseDialog::`RTTI Base Class Array'
PUBLIC	??_7BaseDialog@@6B@				; BaseDialog::`vftable'
PUBLIC	??_GBaseDialog@@UAEPAXI@Z			; BaseDialog::`scalar deleting destructor'
EXTRN	__purecall:NEAR
EXTRN	__imp_??0?$basic_string@DU?$char_traits@D@std@@V?$allocator@D@2@@std@@QAE@XZ:NEAR
EXTRN	?DoDataExchange@CWnd@@MAEXPAVCDataExchange@@@Z:NEAR ; CWnd::DoDataExchange
EXTRN	?GetRuntimeClass@BaseDialog@@UBEPAUCRuntimeClass@@XZ:NEAR ; BaseDialog::GetRuntimeClass
EXTRN	?GetMessageMap@BaseDialog@@MBEPBUAFX_MSGMAP@@XZ:NEAR ; BaseDialog::GetMessageMap
EXTRN	??_EBaseDialog@@UAEPAXI@Z:NEAR			; BaseDialog::`vector deleting destructor'
EXTRN	??0CDialog@@QAE@XZ:NEAR				; CDialog::CDialog
;	COMDAT xdata$x
xdata$x	SEGMENT
$T188125 DD	0ffffffffH
	DD	FLAT:$L188120
$T188123 DD	019930520H
	DD	01H
	DD	FLAT:$T188125
	DD	2 DUP(00H)
	DD	2 DUP(00H)
xdata$x	ENDS
;	COMDAT ??_7BaseDialog@@6B@
CONST	SEGMENT
??_7BaseDialog@@6B@ DD FLAT:??_R4BaseDialog@@6B@	; BaseDialog::`vftable'
	DD	FLAT:?GetRuntimeClass@BaseDialog@@UBEPAUCRuntimeClass@@XZ
	DD	FLAT:??_EBaseDialog@@UAEPAXI@Z
	DD	FLAT:?Serialize@CObject@@UAEXAAVCArchive@@@Z
	DD	FLAT:?AssertValid@CDialog@@UBEXXZ
	DD	FLAT:?Dump@CDialog@@UBEXAAVCDumpContext@@@Z
	DD	FLAT:?OnCmdMsg@CDialog@@UAEHIHPAXPAUAFX_CMDHANDLERINFO@@@Z
	DD	FLAT:?OnFinalRelease@CWnd@@UAEXXZ
	DD	FLAT:?IsInvokeAllowed@CCmdTarget@@UAEHJ@Z
	DD	FLAT:?GetDispatchIID@CCmdTarget@@UAEHPAU_GUID@@@Z
	DD	FLAT:?GetTypeInfoCount@CCmdTarget@@UAEIXZ
	DD	FLAT:?GetTypeLibCache@CCmdTarget@@UAEPAVCTypeLibCache@@XZ
	DD	FLAT:?GetTypeLib@CCmdTarget@@UAEJKPAPAUITypeLib@@@Z
	DD	FLAT:?GetMessageMap@BaseDialog@@MBEPBUAFX_MSGMAP@@XZ
	DD	FLAT:?GetCommandMap@CCmdTarget@@MBEPBUAFX_OLECMDMAP@@XZ
	DD	FLAT:?GetDispatchMap@CCmdTarget@@MBEPBUAFX_DISPMAP@@XZ
	DD	FLAT:?GetConnectionMap@CCmdTarget@@MBEPBUAFX_CONNECTIONMAP@@XZ
	DD	FLAT:?GetInterfaceMap@CWnd@@MBEPBUAFX_INTERFACEMAP@@XZ
	DD	FLAT:?GetEventSinkMap@CCmdTarget@@MBEPBUAFX_EVENTSINKMAP@@XZ
	DD	FLAT:?OnCreateAggregates@CCmdTarget@@UAEHXZ
	DD	FLAT:?GetInterfaceHook@CCmdTarget@@UAEPAUIUnknown@@PBX@Z
	DD	FLAT:?GetExtraConnectionPoints@CCmdTarget@@MAEHPAVCPtrArray@@@Z
	DD	FLAT:?GetConnectionHook@CCmdTarget@@MAEPAUIConnectionPoint@@ABU_GUID@@@Z
	DD	FLAT:?PreSubclassWindow@CWnd@@UAEXXZ
	DD	FLAT:?Create@CWnd@@UAEHPBD0KABUtagRECT@@PAV1@IPAUCCreateContext@@@Z
	DD	FLAT:?CreateEx@CWnd@@UAEHKPBD0KABUtagRECT@@PAV1@IPAX@Z
	DD	FLAT:?CreateEx@CWnd@@UAEHKPBD0KHHHHPAUHWND__@@PAUHMENU__@@PAX@Z
	DD	FLAT:?DestroyWindow@CWnd@@UAEHXZ
	DD	FLAT:?PreCreateWindow@CWnd@@UAEHAAUtagCREATESTRUCTA@@@Z
	DD	FLAT:?CalcWindowRect@CWnd@@UAEXPAUtagRECT@@I@Z
	DD	FLAT:?OnToolHitTest@CWnd@@UBEHVCPoint@@PAUtagTOOLINFOA@@@Z
	DD	FLAT:?GetScrollBarCtrl@CWnd@@UBEPAVCScrollBar@@H@Z
	DD	FLAT:?WinHelpA@CWnd@@UAEXKI@Z
	DD	FLAT:?HtmlHelpA@CWnd@@UAEXKI@Z
	DD	FLAT:?WinHelpInternal@CWnd@@UAEXKI@Z
	DD	FLAT:?ContinueModal@CWnd@@UAEHXZ
	DD	FLAT:?EndModalLoop@CWnd@@UAEXH@Z
	DD	FLAT:?EnsureStdObj@CWnd@@UAEJXZ
	DD	FLAT:?get_accParent@CWnd@@UAEJPAPAUIDispatch@@@Z
	DD	FLAT:?get_accChildCount@CWnd@@UAEJPAJ@Z
	DD	FLAT:?get_accChild@CWnd@@UAEJUtagVARIANT@@PAPAUIDispatch@@@Z
	DD	FLAT:?get_accName@CWnd@@UAEJUtagVARIANT@@PAPA_W@Z
	DD	FLAT:?get_accValue@CWnd@@UAEJUtagVARIANT@@PAPA_W@Z
	DD	FLAT:?get_accDescription@CWnd@@UAEJUtagVARIANT@@PAPA_W@Z
	DD	FLAT:?get_accRole@CWnd@@UAEJUtagVARIANT@@PAU2@@Z
	DD	FLAT:?get_accState@CWnd@@UAEJUtagVARIANT@@PAU2@@Z
	DD	FLAT:?get_accHelp@CWnd@@UAEJUtagVARIANT@@PAPA_W@Z
	DD	FLAT:?get_accHelpTopic@CWnd@@UAEJPAPA_WUtagVARIANT@@PAJ@Z
	DD	FLAT:?get_accKeyboardShortcut@CWnd@@UAEJUtagVARIANT@@PAPA_W@Z
	DD	FLAT:?get_accFocus@CWnd@@UAEJPAUtagVARIANT@@@Z
	DD	FLAT:?get_accSelection@CWnd@@UAEJPAUtagVARIANT@@@Z
	DD	FLAT:?get_accDefaultAction@CWnd@@UAEJUtagVARIANT@@PAPA_W@Z
	DD	FLAT:?accSelect@CWnd@@UAEJJUtagVARIANT@@@Z
	DD	FLAT:?accLocation@CWnd@@UAEJPAJ000UtagVARIANT@@@Z
	DD	FLAT:?accNavigate@CWnd@@UAEJJUtagVARIANT@@PAU2@@Z
	DD	FLAT:?accHitTest@CWnd@@UAEJJJPAUtagVARIANT@@@Z
	DD	FLAT:?accDoDefaultAction@CWnd@@UAEJUtagVARIANT@@@Z
	DD	FLAT:?put_accName@CWnd@@UAEJUtagVARIANT@@PA_W@Z
	DD	FLAT:?put_accValue@CWnd@@UAEJUtagVARIANT@@PA_W@Z
	DD	FLAT:?SetProxy@CWnd@@UAEJPAUIAccessibleProxy@@@Z
	DD	FLAT:?CreateAccessibleProxy@CWnd@@UAEJIJPAJ@Z
	DD	FLAT:?OnCommand@CWnd@@MAEHIJ@Z
	DD	FLAT:?OnNotify@CWnd@@MAEHIJPAJ@Z
	DD	FLAT:?GetSuperWndProcAddr@CWnd@@MAEPAP6GJPAUHWND__@@IIJ@ZXZ
	DD	FLAT:?DoDataExchange@CWnd@@MAEXPAVCDataExchange@@@Z
	DD	FLAT:?BeginModalState@CWnd@@UAEXXZ
	DD	FLAT:?EndModalState@CWnd@@UAEXXZ
	DD	FLAT:?PreTranslateMessage@CDialog@@UAEHPAUtagMSG@@@Z
	DD	FLAT:?OnAmbientProperty@CWnd@@UAEHPAVCOleControlSite@@JPAUtagVARIANT@@@Z
	DD	FLAT:?WindowProc@CWnd@@MAEJIIJ@Z
	DD	FLAT:?OnWndMsg@CWnd@@MAEHIIJPAJ@Z
	DD	FLAT:?DefWindowProcA@CWnd@@MAEJIIJ@Z
	DD	FLAT:?PostNcDestroy@CWnd@@MAEXXZ
	DD	FLAT:?OnChildNotify@CWnd@@MAEHIIJPAJ@Z
	DD	FLAT:?CheckAutoCenter@CDialog@@UAEHXZ
	DD	FLAT:?IsFrameWnd@CWnd@@UBEHXZ
	DD	FLAT:?CreateControlContainer@CWnd@@MAEHPAPAVCOleControlContainer@@@Z
	DD	FLAT:?CreateControlSite@CWnd@@MAEHPAVCOleControlContainer@@PAPAVCOleControlSite@@IABU_GUID@@@Z
	DD	FLAT:?SetOccDialogInfo@CDialog@@MAEHPAU_AFX_OCC_DIALOG_INFO@@@Z
	DD	FLAT:?Create@CDialog@@UAEHIPAVCWnd@@@Z
	DD	FLAT:?Create@CDialog@@UAEHPBDPAVCWnd@@@Z
	DD	FLAT:?CreateIndirect@CDialog@@UAEHPAXPAVCWnd@@@Z
	DD	FLAT:?CreateIndirect@CDialog@@UAEHPBUDLGTEMPLATE@@PAVCWnd@@PAX@Z
	DD	FLAT:?DoModal@CDialog@@UAEHXZ
	DD	FLAT:?OnInitDialog@BaseDialog@@MAEHXZ
	DD	FLAT:?OnSetFont@CDialog@@UAEXPAVCFont@@@Z
	DD	FLAT:?OnOK@BaseDialog@@MAEXXZ
	DD	FLAT:?OnCancel@BaseDialog@@MAEXXZ
	DD	FLAT:?PreInitDialog@CDialog@@MAEXXZ
	DD	FLAT:?SthChanged@BaseDialog@@UAEXXZ
	DD	FLAT:__purecall
	DD	FLAT:__purecall
	DD	FLAT:__purecall
	DD	FLAT:__purecall
CONST	ENDS
;	COMDAT ??_R4BaseDialog@@6B@
rdata$r	SEGMENT
??_R4BaseDialog@@6B@ DD 00H				; BaseDialog::`RTTI Complete Object Locator'
	DD	00H
	DD	00H
	DD	FLAT:??_R0?AVBaseDialog@@@8
	DD	FLAT:??_R3BaseDialog@@8
rdata$r	ENDS
;	COMDAT ??_R3BaseDialog@@8
rdata$r	SEGMENT
??_R3BaseDialog@@8 DD 00H				; BaseDialog::`RTTI Class Hierarchy Descriptor'
	DD	00H
	DD	05H
	DD	FLAT:??_R2BaseDialog@@8
rdata$r	ENDS
;	COMDAT ??_R2BaseDialog@@8
rdata$r	SEGMENT
??_R2BaseDialog@@8 DD FLAT:??_R1A@?0A@A@BaseDialog@@8	; BaseDialog::`RTTI Base Class Array'
	DD	FLAT:??_R1A@?0A@A@CDialog@@8
	DD	FLAT:??_R1A@?0A@A@CWnd@@8
	DD	FLAT:??_R1A@?0A@A@CCmdTarget@@8
	DD	FLAT:??_R1A@?0A@A@CObject@@8
; Function compile flags: /Odt /RTCsu
rdata$r	ENDS
;	COMDAT ??0BaseDialog@@QAE@XZ
_TEXT	SEGMENT
_this$ = -16						; size = 4
__$EHRec$ = -12						; size = 12
??0BaseDialog@@QAE@XZ PROC NEAR				; BaseDialog::BaseDialog, COMDAT
; _this$ = ecx
  00000	55		 push	 ebp
  00001	8b ec		 mov	 ebp, esp
  00003	6a ff		 push	 -1
  00005	68 00 00 00 00	 push	 __ehhandler$??0BaseDialog@@QAE@XZ
  0000a	64 a1 00 00 00
	00		 mov	 eax, DWORD PTR fs:__except_list
  00010	50		 push	 eax
  00011	64 89 25 00 00
	00 00		 mov	 DWORD PTR fs:__except_list, esp
  00018	51		 push	 ecx
  00019	56		 push	 esi
  0001a	c7 45 f0 cc cc
	cc cc		 mov	 DWORD PTR [ebp-16], -858993460 ; ccccccccH
  00021	89 4d f0	 mov	 DWORD PTR _this$[ebp], ecx
  00024	8b 4d f0	 mov	 ecx, DWORD PTR _this$[ebp]
  00027	e8 00 00 00 00	 call	 ??0CDialog@@QAE@XZ	; CDialog::CDialog
  0002c	c7 45 fc 00 00
	00 00		 mov	 DWORD PTR __$EHRec$[ebp+8], 0
  00033	8b 45 f0	 mov	 eax, DWORD PTR _this$[ebp]
  00036	c7 00 00 00 00
	00		 mov	 DWORD PTR [eax], OFFSET FLAT:??_7BaseDialog@@6B@
  0003c	8b 4d f0	 mov	 ecx, DWORD PTR _this$[ebp]
  0003f	83 c1 74	 add	 ecx, 116		; 00000074H
  00042	8b f4		 mov	 esi, esp
  00044	ff 15 00 00 00
	00		 call	 DWORD PTR __imp_??0?$basic_string@DU?$char_traits@D@std@@V?$allocator@D@2@@std@@QAE@XZ
  0004a	3b f4		 cmp	 esi, esp
  0004c	e8 00 00 00 00	 call	 __RTC_CheckEsp
  00051	c7 45 fc ff ff
	ff ff		 mov	 DWORD PTR __$EHRec$[ebp+8], -1
  00058	8b 45 f0	 mov	 eax, DWORD PTR _this$[ebp]
  0005b	8b 4d f4	 mov	 ecx, DWORD PTR __$EHRec$[ebp]
  0005e	64 89 0d 00 00
	00 00		 mov	 DWORD PTR fs:__except_list, ecx
  00065	5e		 pop	 esi
  00066	83 c4 10	 add	 esp, 16			; 00000010H
  00069	3b ec		 cmp	 ebp, esp
  0006b	e8 00 00 00 00	 call	 __RTC_CheckEsp
  00070	8b e5		 mov	 esp, ebp
  00072	5d		 pop	 ebp
  00073	c3		 ret	 0
_TEXT	ENDS
;	COMDAT text$x
text$x	SEGMENT
$L188120:
  00000	8b 4d f0	 mov	 ecx, DWORD PTR _this$[ebp]
  00003	e9 00 00 00 00	 jmp	 ??1CDialog@@UAE@XZ	; CDialog::~CDialog
__ehhandler$??0BaseDialog@@QAE@XZ:
  00008	b8 00 00 00 00	 mov	 eax, OFFSET FLAT:$T188123
  0000d	e9 00 00 00 00	 jmp	 ___CxxFrameHandler
text$x	ENDS
??0BaseDialog@@QAE@XZ ENDP				; BaseDialog::BaseDialog
EXTRN	__imp_??1?$basic_string@DU?$char_traits@D@std@@V?$allocator@D@2@@std@@QAE@XZ:NEAR
;	COMDAT xdata$x
xdata$x	SEGMENT
$T188134 DD	0ffffffffH
	DD	FLAT:$L188129
$T188132 DD	019930520H
	DD	01H
	DD	FLAT:$T188134
	DD	2 DUP(00H)
	DD	2 DUP(00H)
; Function compile flags: /Odt /RTCsu
xdata$x	ENDS
;	COMDAT ??1BaseDialog@@UAE@XZ
_TEXT	SEGMENT
_this$ = -16						; size = 4
__$EHRec$ = -12						; size = 12
??1BaseDialog@@UAE@XZ PROC NEAR				; BaseDialog::~BaseDialog, COMDAT
; _this$ = ecx
  00000	55		 push	 ebp
  00001	8b ec		 mov	 ebp, esp
  00003	6a ff		 push	 -1
  00005	68 00 00 00 00	 push	 __ehhandler$??1BaseDialog@@UAE@XZ
  0000a	64 a1 00 00 00
	00		 mov	 eax, DWORD PTR fs:__except_list
  00010	50		 push	 eax
  00011	64 89 25 00 00
	00 00		 mov	 DWORD PTR fs:__except_list, esp
  00018	51		 push	 ecx
  00019	56		 push	 esi
  0001a	c7 45 f0 cc cc
	cc cc		 mov	 DWORD PTR [ebp-16], -858993460 ; ccccccccH
  00021	89 4d f0	 mov	 DWORD PTR _this$[ebp], ecx
  00024	c7 45 fc 00 00
	00 00		 mov	 DWORD PTR __$EHRec$[ebp+8], 0
  0002b	8b 4d f0	 mov	 ecx, DWORD PTR _this$[ebp]
  0002e	83 c1 74	 add	 ecx, 116		; 00000074H
  00031	8b f4		 mov	 esi, esp
  00033	ff 15 00 00 00
	00		 call	 DWORD PTR __imp_??1?$basic_string@DU?$char_traits@D@std@@V?$allocator@D@2@@std@@QAE@XZ
  00039	3b f4		 cmp	 esi, esp
  0003b	e8 00 00 00 00	 call	 __RTC_CheckEsp
  00040	c7 45 fc ff ff
	ff ff		 mov	 DWORD PTR __$EHRec$[ebp+8], -1
  00047	8b 4d f0	 mov	 ecx, DWORD PTR _this$[ebp]
  0004a	e8 00 00 00 00	 call	 ??1CDialog@@UAE@XZ	; CDialog::~CDialog
  0004f	8b 4d f4	 mov	 ecx, DWORD PTR __$EHRec$[ebp]
  00052	64 89 0d 00 00
	00 00		 mov	 DWORD PTR fs:__except_list, ecx
  00059	5e		 pop	 esi
  0005a	83 c4 10	 add	 esp, 16			; 00000010H
  0005d	3b ec		 cmp	 ebp, esp
  0005f	e8 00 00 00 00	 call	 __RTC_CheckEsp
  00064	8b e5		 mov	 esp, ebp
  00066	5d		 pop	 ebp
  00067	c3		 ret	 0
_TEXT	ENDS
;	COMDAT text$x
text$x	SEGMENT
$L188129:
  00000	8b 4d f0	 mov	 ecx, DWORD PTR _this$[ebp]
  00003	e9 00 00 00 00	 jmp	 ??1CDialog@@UAE@XZ	; CDialog::~CDialog
__ehhandler$??1BaseDialog@@UAE@XZ:
  00008	b8 00 00 00 00	 mov	 eax, OFFSET FLAT:$T188132
  0000d	e9 00 00 00 00	 jmp	 ___CxxFrameHandler
text$x	ENDS
??1BaseDialog@@UAE@XZ ENDP				; BaseDialog::~BaseDialog
; Function compile flags: /Odt /RTCsu
;	COMDAT ??_GBaseDialog@@UAEPAXI@Z
_TEXT	SEGMENT
_this$ = -4						; size = 4
___flags$ = 8						; size = 4
??_GBaseDialog@@UAEPAXI@Z PROC NEAR			; BaseDialog::`scalar deleting destructor', COMDAT
; _this$ = ecx
  00000	55		 push	 ebp
  00001	8b ec		 mov	 ebp, esp
  00003	51		 push	 ecx
  00004	c7 45 fc cc cc
	cc cc		 mov	 DWORD PTR [ebp-4], -858993460 ; ccccccccH
  0000b	89 4d fc	 mov	 DWORD PTR _this$[ebp], ecx
  0000e	8b 4d fc	 mov	 ecx, DWORD PTR _this$[ebp]
  00011	e8 00 00 00 00	 call	 ??1BaseDialog@@UAE@XZ
  00016	8b 45 08	 mov	 eax, DWORD PTR ___flags$[ebp]
  00019	83 e0 01	 and	 eax, 1
  0001c	74 09		 je	 SHORT $L187565
  0001e	8b 4d fc	 mov	 ecx, DWORD PTR _this$[ebp]
  00021	51		 push	 ecx
  00022	e8 00 00 00 00	 call	 ??3CObject@@SGXPAX@Z	; CObject::operator delete
$L187565:
  00027	8b 45 fc	 mov	 eax, DWORD PTR _this$[ebp]
  0002a	83 c4 04	 add	 esp, 4
  0002d	3b ec		 cmp	 ebp, esp
  0002f	e8 00 00 00 00	 call	 __RTC_CheckEsp
  00034	8b e5		 mov	 esp, ebp
  00036	5d		 pop	 ebp
  00037	c2 04 00	 ret	 4
??_GBaseDialog@@UAEPAXI@Z ENDP				; BaseDialog::`scalar deleting destructor'
_TEXT	ENDS
xdata$x	SEGMENT
$T188148 DD	0ffffffffH
	DD	FLAT:$L188139
	DD	00H
	DD	FLAT:$L188140
	DD	01H
	DD	FLAT:$L188141
	DD	02H
	DD	FLAT:$L188142
	DD	03H
	DD	FLAT:$L188143
$T188146 DD	019930520H
	DD	05H
	DD	FLAT:$T188148
	DD	2 DUP(00H)
	DD	2 DUP(00H)
; Function compile flags: /Odt /RTCsu
xdata$x	ENDS
_TEXT	SEGMENT
_this$ = -16						; size = 4
__$EHRec$ = -12						; size = 12
??1CSysDialog@@UAE@XZ PROC NEAR				; CSysDialog::~CSysDialog
; _this$ = ecx

; 19   : {

  00140	55		 push	 ebp
  00141	8b ec		 mov	 ebp, esp
  00143	6a ff		 push	 -1
  00145	68 00 00 00 00	 push	 __ehhandler$??1CSysDialog@@UAE@XZ
  0014a	64 a1 00 00 00
	00		 mov	 eax, DWORD PTR fs:__except_list
  00150	50		 push	 eax
  00151	64 89 25 00 00
	00 00		 mov	 DWORD PTR fs:__except_list, esp
  00158	51		 push	 ecx
  00159	c7 45 f0 cc cc
	cc cc		 mov	 DWORD PTR [ebp-16], -858993460 ; ccccccccH
  00160	89 4d f0	 mov	 DWORD PTR _this$[ebp], ecx
  00163	8b 45 f0	 mov	 eax, DWORD PTR _this$[ebp]
  00166	c7 00 00 00 00
	00		 mov	 DWORD PTR [eax], OFFSET FLAT:??_7CSysDialog@@6B@
  0016c	c7 45 fc 04 00
	00 00		 mov	 DWORD PTR __$EHRec$[ebp+8], 4

; 20   : }

  00173	8b 4d f0	 mov	 ecx, DWORD PTR _this$[ebp]
  00176	81 c1 ec 01 00
	00		 add	 ecx, 492		; 000001ecH
  0017c	e8 00 00 00 00	 call	 ??1SetBaseStatic@@UAE@XZ ; SetBaseStatic::~SetBaseStatic
  00181	c6 45 fc 03	 mov	 BYTE PTR __$EHRec$[ebp+8], 3
  00185	8b 4d f0	 mov	 ecx, DWORD PTR _this$[ebp]
  00188	81 c1 98 01 00
	00		 add	 ecx, 408		; 00000198H
  0018e	e8 00 00 00 00	 call	 ??1SetBaseButton@@UAE@XZ ; SetBaseButton::~SetBaseButton
  00193	c6 45 fc 02	 mov	 BYTE PTR __$EHRec$[ebp+8], 2
  00197	8b 4d f0	 mov	 ecx, DWORD PTR _this$[ebp]
  0019a	81 c1 44 01 00
	00		 add	 ecx, 324		; 00000144H
  001a0	e8 00 00 00 00	 call	 ??1SetBaseButton@@UAE@XZ ; SetBaseButton::~SetBaseButton
  001a5	c6 45 fc 01	 mov	 BYTE PTR __$EHRec$[ebp+8], 1
  001a9	8b 4d f0	 mov	 ecx, DWORD PTR _this$[ebp]
  001ac	81 c1 f0 00 00
	00		 add	 ecx, 240		; 000000f0H
  001b2	e8 00 00 00 00	 call	 ??1SetBaseButton@@UAE@XZ ; SetBaseButton::~SetBaseButton
  001b7	c6 45 fc 00	 mov	 BYTE PTR __$EHRec$[ebp+8], 0
  001bb	8b 4d f0	 mov	 ecx, DWORD PTR _this$[ebp]
  001be	81 c1 94 00 00
	00		 add	 ecx, 148		; 00000094H
  001c4	e8 00 00 00 00	 call	 ??1SetBaseButton@@UAE@XZ ; SetBaseButton::~SetBaseButton
  001c9	c7 45 fc ff ff
	ff ff		 mov	 DWORD PTR __$EHRec$[ebp+8], -1
  001d0	8b 4d f0	 mov	 ecx, DWORD PTR _this$[ebp]
  001d3	e8 00 00 00 00	 call	 ??1BaseDialog@@UAE@XZ
  001d8	8b 4d f4	 mov	 ecx, DWORD PTR __$EHRec$[ebp]
  001db	64 89 0d 00 00
	00 00		 mov	 DWORD PTR fs:__except_list, ecx
  001e2	83 c4 10	 add	 esp, 16			; 00000010H
  001e5	3b ec		 cmp	 ebp, esp
  001e7	e8 00 00 00 00	 call	 __RTC_CheckEsp
  001ec	8b e5		 mov	 esp, ebp
  001ee	5d		 pop	 ebp
  001ef	c3		 ret	 0
_TEXT	ENDS
text$x	SEGMENT
$L188139:
  00058	8b 4d f0	 mov	 ecx, DWORD PTR _this$[ebp]
  0005b	e9 00 00 00 00	 jmp	 ??1BaseDialog@@UAE@XZ
$L188140:
  00060	8b 4d f0	 mov	 ecx, DWORD PTR _this$[ebp]
  00063	81 c1 94 00 00
	00		 add	 ecx, 148		; 00000094H
  00069	e9 00 00 00 00	 jmp	 ??1SetBaseButton@@UAE@XZ ; SetBaseButton::~SetBaseButton
$L188141:
  0006e	8b 4d f0	 mov	 ecx, DWORD PTR _this$[ebp]
  00071	81 c1 f0 00 00
	00		 add	 ecx, 240		; 000000f0H
  00077	e9 00 00 00 00	 jmp	 ??1SetBaseButton@@UAE@XZ ; SetBaseButton::~SetBaseButton
$L188142:
  0007c	8b 4d f0	 mov	 ecx, DWORD PTR _this$[ebp]
  0007f	81 c1 44 01 00
	00		 add	 ecx, 324		; 00000144H
  00085	e9 00 00 00 00	 jmp	 ??1SetBaseButton@@UAE@XZ ; SetBaseButton::~SetBaseButton
$L188143:
  0008a	8b 4d f0	 mov	 ecx, DWORD PTR _this$[ebp]
  0008d	81 c1 98 01 00
	00		 add	 ecx, 408		; 00000198H
  00093	e9 00 00 00 00	 jmp	 ??1SetBaseButton@@UAE@XZ ; SetBaseButton::~SetBaseButton
__ehhandler$??1CSysDialog@@UAE@XZ:
  00098	b8 00 00 00 00	 mov	 eax, OFFSET FLAT:$T188146
  0009d	e9 00 00 00 00	 jmp	 ___CxxFrameHandler
text$x	ENDS
??1CSysDialog@@UAE@XZ ENDP				; CSysDialog::~CSysDialog
PUBLIC	?GetThisMessageMap@CSysDialog@@KGPBUAFX_MSGMAP@@XZ ; CSysDialog::GetThisMessageMap
; Function compile flags: /Odt /RTCsu
_TEXT	SEGMENT
?GetThisMessageMap@CSysDialog@@KGPBUAFX_MSGMAP@@XZ PROC NEAR ; CSysDialog::GetThisMessageMap

; 22   : BEGIN_MESSAGE_MAP(CSysDialog, BaseDialog)

  001f0	55		 push	 ebp
  001f1	8b ec		 mov	 ebp, esp
  001f3	b8 00 00 00 00	 mov	 eax, OFFSET FLAT:?messageMap@CSysDialog@@1UAFX_MSGMAP@@B ; CSysDialog::messageMap
  001f8	5d		 pop	 ebp
  001f9	c3		 ret	 0
?GetThisMessageMap@CSysDialog@@KGPBUAFX_MSGMAP@@XZ ENDP	; CSysDialog::GetThisMessageMap
; Function compile flags: /Odt /RTCsu
_this$ = -4						; size = 4
?GetMessageMap@CSysDialog@@MBEPBUAFX_MSGMAP@@XZ PROC NEAR ; CSysDialog::GetMessageMap
; _this$ = ecx

; 22   : BEGIN_MESSAGE_MAP(CSysDialog, BaseDialog)

  00200	55		 push	 ebp
  00201	8b ec		 mov	 ebp, esp
  00203	51		 push	 ecx
  00204	c7 45 fc cc cc
	cc cc		 mov	 DWORD PTR [ebp-4], -858993460 ; ccccccccH
  0020b	89 4d fc	 mov	 DWORD PTR _this$[ebp], ecx
  0020e	b8 00 00 00 00	 mov	 eax, OFFSET FLAT:?messageMap@CSysDialog@@1UAFX_MSGMAP@@B ; CSysDialog::messageMap
  00213	8b e5		 mov	 esp, ebp
  00215	5d		 pop	 ebp
  00216	c3		 ret	 0
?GetMessageMap@CSysDialog@@MBEPBUAFX_MSGMAP@@XZ ENDP	; CSysDialog::GetMessageMap
_TEXT	ENDS
EXTRN	?DDX_Check@@YGXPAVCDataExchange@@HAAH@Z:NEAR	; DDX_Check
EXTRN	?DDX_Radio@@YGXPAVCDataExchange@@HAAH@Z:NEAR	; DDX_Radio
EXTRN	?DDX_Control@@YGXPAVCDataExchange@@HAAVCWnd@@@Z:NEAR ; DDX_Control
; Function compile flags: /Odt /RTCsu
_TEXT	SEGMENT
_this$ = -4						; size = 4
_pDX$ = 8						; size = 4
?DoDataExchange@CSysDialog@@MAEXPAVCDataExchange@@@Z PROC NEAR ; CSysDialog::DoDataExchange
; _this$ = ecx

; 30   : {

  00220	55		 push	 ebp
  00221	8b ec		 mov	 ebp, esp
  00223	51		 push	 ecx
  00224	c7 45 fc cc cc
	cc cc		 mov	 DWORD PTR [ebp-4], -858993460 ; ccccccccH
  0022b	89 4d fc	 mov	 DWORD PTR _this$[ebp], ecx

; 31   : 	CDialog::DoDataExchange(pDX);

  0022e	8b 45 08	 mov	 eax, DWORD PTR _pDX$[ebp]
  00231	50		 push	 eax
  00232	8b 4d fc	 mov	 ecx, DWORD PTR _this$[ebp]
  00235	e8 00 00 00 00	 call	 ?DoDataExchange@CWnd@@MAEXPAVCDataExchange@@@Z ; CWnd::DoDataExchange

; 32   : 	
; 33   : 	DDX_Check(pDX, IDC_CHECK_AUTORUN, m_bAutoRun);

  0023a	8b 4d fc	 mov	 ecx, DWORD PTR _this$[ebp]
  0023d	81 c1 90 00 00
	00		 add	 ecx, 144		; 00000090H
  00243	51		 push	 ecx
  00244	68 ce 00 00 00	 push	 206			; 000000ceH
  00249	8b 55 08	 mov	 edx, DWORD PTR _pDX$[ebp]
  0024c	52		 push	 edx
  0024d	e8 00 00 00 00	 call	 ?DDX_Check@@YGXPAVCDataExchange@@HAAH@Z ; DDX_Check

; 34   : 	DDX_Check(pDX, IDC_CHK_NOASK, m_noAsk);

  00252	8b 45 fc	 mov	 eax, DWORD PTR _this$[ebp]
  00255	05 ec 00 00 00	 add	 eax, 236		; 000000ecH
  0025a	50		 push	 eax
  0025b	68 d3 00 00 00	 push	 211			; 000000d3H
  00260	8b 4d 08	 mov	 ecx, DWORD PTR _pDX$[ebp]
  00263	51		 push	 ecx
  00264	e8 00 00 00 00	 call	 ?DDX_Check@@YGXPAVCDataExchange@@HAAH@Z ; DDX_Check

; 35   : 	DDX_Control(pDX, IDC_CHECK_AUTORUN, m_checkAutoRun);

  00269	8b 55 fc	 mov	 edx, DWORD PTR _this$[ebp]
  0026c	81 c2 94 00 00
	00		 add	 edx, 148		; 00000094H
  00272	52		 push	 edx
  00273	68 ce 00 00 00	 push	 206			; 000000ceH
  00278	8b 45 08	 mov	 eax, DWORD PTR _pDX$[ebp]
  0027b	50		 push	 eax
  0027c	e8 00 00 00 00	 call	 ?DDX_Control@@YGXPAVCDataExchange@@HAAVCWnd@@@Z ; DDX_Control

; 36   : 	DDX_Radio(pDX, IDC_RAD_MIN, m_minOrExit);

  00281	8b 4d fc	 mov	 ecx, DWORD PTR _this$[ebp]
  00284	81 c1 e8 00 00
	00		 add	 ecx, 232		; 000000e8H
  0028a	51		 push	 ecx
  0028b	68 d1 00 00 00	 push	 209			; 000000d1H
  00290	8b 55 08	 mov	 edx, DWORD PTR _pDX$[ebp]
  00293	52		 push	 edx
  00294	e8 00 00 00 00	 call	 ?DDX_Radio@@YGXPAVCDataExchange@@HAAH@Z ; DDX_Radio

; 37   : 	DDX_Control(pDX, IDC_RAD_MIN, m_minCtrl);

  00299	8b 45 fc	 mov	 eax, DWORD PTR _this$[ebp]
  0029c	05 f0 00 00 00	 add	 eax, 240		; 000000f0H
  002a1	50		 push	 eax
  002a2	68 d1 00 00 00	 push	 209			; 000000d1H
  002a7	8b 4d 08	 mov	 ecx, DWORD PTR _pDX$[ebp]
  002aa	51		 push	 ecx
  002ab	e8 00 00 00 00	 call	 ?DDX_Control@@YGXPAVCDataExchange@@HAAVCWnd@@@Z ; DDX_Control

; 38   : 	DDX_Control(pDX, IDC_RAD_EXIT, m_exitCtrl);

  002b0	8b 55 fc	 mov	 edx, DWORD PTR _this$[ebp]
  002b3	81 c2 44 01 00
	00		 add	 edx, 324		; 00000144H
  002b9	52		 push	 edx
  002ba	68 d2 00 00 00	 push	 210			; 000000d2H
  002bf	8b 45 08	 mov	 eax, DWORD PTR _pDX$[ebp]
  002c2	50		 push	 eax
  002c3	e8 00 00 00 00	 call	 ?DDX_Control@@YGXPAVCDataExchange@@HAAVCWnd@@@Z ; DDX_Control

; 39   : 	DDX_Control(pDX, IDC_CHK_NOASK, m_noAskCtrl);

  002c8	8b 4d fc	 mov	 ecx, DWORD PTR _this$[ebp]
  002cb	81 c1 98 01 00
	00		 add	 ecx, 408		; 00000198H
  002d1	51		 push	 ecx
  002d2	68 d3 00 00 00	 push	 211			; 000000d3H
  002d7	8b 55 08	 mov	 edx, DWORD PTR _pDX$[ebp]
  002da	52		 push	 edx
  002db	e8 00 00 00 00	 call	 ?DDX_Control@@YGXPAVCDataExchange@@HAAVCWnd@@@Z ; DDX_Control

; 40   : 	DDX_Control(pDX, IDC_STATIC_MINOREXIT, m_staticMinOrExit);

  002e0	8b 45 fc	 mov	 eax, DWORD PTR _this$[ebp]
  002e3	05 ec 01 00 00	 add	 eax, 492		; 000001ecH
  002e8	50		 push	 eax
  002e9	68 d0 00 00 00	 push	 208			; 000000d0H
  002ee	8b 4d 08	 mov	 ecx, DWORD PTR _pDX$[ebp]
  002f1	51		 push	 ecx
  002f2	e8 00 00 00 00	 call	 ?DDX_Control@@YGXPAVCDataExchange@@HAAVCWnd@@@Z ; DDX_Control

; 41   : }

  002f7	83 c4 04	 add	 esp, 4
  002fa	3b ec		 cmp	 ebp, esp
  002fc	e8 00 00 00 00	 call	 __RTC_CheckEsp
  00301	8b e5		 mov	 esp, ebp
  00303	5d		 pop	 ebp
  00304	c2 04 00	 ret	 4
?DoDataExchange@CSysDialog@@MAEXPAVCDataExchange@@@Z ENDP ; CSysDialog::DoDataExchange
_TEXT	ENDS
EXTRN	?AfxGetUserConfig@@YAPAVAfxUserConfig@@XZ:NEAR	; AfxGetUserConfig
EXTRN	?CreateGBoxRunInStartUp@GlobalFunc@@SAX_N@Z:NEAR ; GlobalFunc::CreateGBoxRunInStartUp
EXTRN	__imp_??0?$basic_string@DU?$char_traits@D@std@@V?$allocator@D@2@@std@@QAE@PBD@Z:NEAR
EXTRN	?SetConfigBoolValue@AfxUserConfig@@QAEXABV?$basic_string@DU?$char_traits@D@std@@V?$allocator@D@2@@std@@0_N1@Z:NEAR ; AfxUserConfig::SetConfigBoolValue
EXTRN	?UpdateData@CWnd@@QAEHH@Z:NEAR			; CWnd::UpdateData
xdata$x	SEGMENT
$T188164 DD	0ffffffffH
	DD	FLAT:$L188157
	DD	00H
	DD	FLAT:$L188158
	DD	0ffffffffH
	DD	FLAT:$L188159
	DD	02H
	DD	FLAT:$L188160
$T188162 DD	019930520H
	DD	04H
	DD	FLAT:$T188164
	DD	2 DUP(00H)
	DD	2 DUP(00H)
; Function compile flags: /Odt /RTCsu
xdata$x	ENDS
_TEXT	SEGMENT
$T188156 = -132						; size = 28
$T188155 = -104						; size = 28
$T188154 = -76						; size = 28
$T188153 = -48						; size = 28
_bValue$ = -17						; size = 1
_this$ = -16						; size = 4
__$EHRec$ = -12						; size = 12
_bSave2File$ = 8					; size = 1
?SaveConf@CSysDialog@@UAEX_N@Z PROC NEAR		; CSysDialog::SaveConf
; _this$ = ecx

; 44   : {

  00310	55		 push	 ebp
  00311	8b ec		 mov	 ebp, esp
  00313	6a ff		 push	 -1
  00315	68 00 00 00 00	 push	 __ehhandler$?SaveConf@CSysDialog@@UAEX_N@Z
  0031a	64 a1 00 00 00
	00		 mov	 eax, DWORD PTR fs:__except_list
  00320	50		 push	 eax
  00321	64 89 25 00 00
	00 00		 mov	 DWORD PTR fs:__except_list, esp
  00328	83 ec 78	 sub	 esp, 120		; 00000078H
  0032b	56		 push	 esi
  0032c	57		 push	 edi
  0032d	51		 push	 ecx
  0032e	8d bd 7c ff ff
	ff		 lea	 edi, DWORD PTR [ebp-132]
  00334	b9 1e 00 00 00	 mov	 ecx, 30			; 0000001eH
  00339	b8 cc cc cc cc	 mov	 eax, -858993460		; ccccccccH
  0033e	f3 ab		 rep stosd
  00340	59		 pop	 ecx
  00341	89 4d f0	 mov	 DWORD PTR _this$[ebp], ecx

; 45   : 	UpdateData();

  00344	6a 01		 push	 1
  00346	8b 4d f0	 mov	 ecx, DWORD PTR _this$[ebp]
  00349	e8 00 00 00 00	 call	 ?UpdateData@CWnd@@QAEHH@Z ; CWnd::UpdateData

; 46   : 	GlobalFunc::CreateGBoxRunInStartUp( m_bAutoRun );

  0034e	8b 45 f0	 mov	 eax, DWORD PTR _this$[ebp]
  00351	83 b8 90 00 00
	00 00		 cmp	 DWORD PTR [eax+144], 0
  00358	0f 95 c1	 setne	 cl
  0035b	51		 push	 ecx
  0035c	e8 00 00 00 00	 call	 ?CreateGBoxRunInStartUp@GlobalFunc@@SAX_N@Z ; GlobalFunc::CreateGBoxRunInStartUp
  00361	83 c4 04	 add	 esp, 4

; 47   : 
; 48   : 	bool bValue = m_minOrExit;

  00364	8b 55 f0	 mov	 edx, DWORD PTR _this$[ebp]
  00367	83 ba e8 00 00
	00 00		 cmp	 DWORD PTR [edx+232], 0
  0036e	0f 95 c0	 setne	 al
  00371	88 45 ef	 mov	 BYTE PTR _bValue$[ebp], al

; 49   : 	AfxGetUserConfig()->SetConfigBoolValue( CONF_SETTING_MODULE_NAME,CONF_SETTING_CONFIG_EXITCHOICE,bValue);

  00374	8b f4		 mov	 esi, esp
  00376	8b 0d 00 00 00
	00		 mov	 ecx, DWORD PTR _CONF_SETTING_CONFIG_EXITCHOICE
  0037c	51		 push	 ecx
  0037d	8d 4d d0	 lea	 ecx, DWORD PTR $T188153[ebp]
  00380	ff 15 00 00 00
	00		 call	 DWORD PTR __imp_??0?$basic_string@DU?$char_traits@D@std@@V?$allocator@D@2@@std@@QAE@PBD@Z
  00386	3b f4		 cmp	 esi, esp
  00388	e8 00 00 00 00	 call	 __RTC_CheckEsp
  0038d	c7 45 fc 00 00
	00 00		 mov	 DWORD PTR __$EHRec$[ebp+8], 0
  00394	8b f4		 mov	 esi, esp
  00396	8b 15 00 00 00
	00		 mov	 edx, DWORD PTR _CONF_SETTING_MODULE_NAME
  0039c	52		 push	 edx
  0039d	8d 4d b4	 lea	 ecx, DWORD PTR $T188154[ebp]
  003a0	ff 15 00 00 00
	00		 call	 DWORD PTR __imp_??0?$basic_string@DU?$char_traits@D@std@@V?$allocator@D@2@@std@@QAE@PBD@Z
  003a6	3b f4		 cmp	 esi, esp
  003a8	e8 00 00 00 00	 call	 __RTC_CheckEsp
  003ad	c6 45 fc 01	 mov	 BYTE PTR __$EHRec$[ebp+8], 1
  003b1	6a 00		 push	 0
  003b3	8a 45 ef	 mov	 al, BYTE PTR _bValue$[ebp]
  003b6	50		 push	 eax
  003b7	8d 4d d0	 lea	 ecx, DWORD PTR $T188153[ebp]
  003ba	51		 push	 ecx
  003bb	8d 55 b4	 lea	 edx, DWORD PTR $T188154[ebp]
  003be	52		 push	 edx
  003bf	e8 00 00 00 00	 call	 ?AfxGetUserConfig@@YAPAVAfxUserConfig@@XZ ; AfxGetUserConfig
  003c4	8b c8		 mov	 ecx, eax
  003c6	e8 00 00 00 00	 call	 ?SetConfigBoolValue@AfxUserConfig@@QAEXABV?$basic_string@DU?$char_traits@D@std@@V?$allocator@D@2@@std@@0_N1@Z ; AfxUserConfig::SetConfigBoolValue
  003cb	c6 45 fc 00	 mov	 BYTE PTR __$EHRec$[ebp+8], 0
  003cf	8b f4		 mov	 esi, esp
  003d1	8d 4d b4	 lea	 ecx, DWORD PTR $T188154[ebp]
  003d4	ff 15 00 00 00
	00		 call	 DWORD PTR __imp_??1?$basic_string@DU?$char_traits@D@std@@V?$allocator@D@2@@std@@QAE@XZ
  003da	3b f4		 cmp	 esi, esp
  003dc	e8 00 00 00 00	 call	 __RTC_CheckEsp
  003e1	c7 45 fc ff ff
	ff ff		 mov	 DWORD PTR __$EHRec$[ebp+8], -1
  003e8	8b f4		 mov	 esi, esp
  003ea	8d 4d d0	 lea	 ecx, DWORD PTR $T188153[ebp]
  003ed	ff 15 00 00 00
	00		 call	 DWORD PTR __imp_??1?$basic_string@DU?$char_traits@D@std@@V?$allocator@D@2@@std@@QAE@XZ
  003f3	3b f4		 cmp	 esi, esp
  003f5	e8 00 00 00 00	 call	 __RTC_CheckEsp

; 50   : 
; 51   : 	bValue = m_noAsk;

  003fa	8b 45 f0	 mov	 eax, DWORD PTR _this$[ebp]
  003fd	83 b8 ec 00 00
	00 00		 cmp	 DWORD PTR [eax+236], 0
  00404	0f 95 c1	 setne	 cl
  00407	88 4d ef	 mov	 BYTE PTR _bValue$[ebp], cl

; 52   : 	AfxGetUserConfig()->SetConfigBoolValue( CONF_SETTING_MODULE_NAME,CONF_SETTING_CONFIG_IFASKEXIT,bValue);

  0040a	8b f4		 mov	 esi, esp
  0040c	8b 15 00 00 00
	00		 mov	 edx, DWORD PTR _CONF_SETTING_CONFIG_IFASKEXIT
  00412	52		 push	 edx
  00413	8d 4d 98	 lea	 ecx, DWORD PTR $T188155[ebp]
  00416	ff 15 00 00 00
	00		 call	 DWORD PTR __imp_??0?$basic_string@DU?$char_traits@D@std@@V?$allocator@D@2@@std@@QAE@PBD@Z
  0041c	3b f4		 cmp	 esi, esp
  0041e	e8 00 00 00 00	 call	 __RTC_CheckEsp
  00423	c7 45 fc 02 00
	00 00		 mov	 DWORD PTR __$EHRec$[ebp+8], 2
  0042a	8b f4		 mov	 esi, esp
  0042c	a1 00 00 00 00	 mov	 eax, DWORD PTR _CONF_SETTING_MODULE_NAME
  00431	50		 push	 eax
  00432	8d 8d 7c ff ff
	ff		 lea	 ecx, DWORD PTR $T188156[ebp]
  00438	ff 15 00 00 00
	00		 call	 DWORD PTR __imp_??0?$basic_string@DU?$char_traits@D@std@@V?$allocator@D@2@@std@@QAE@PBD@Z
  0043e	3b f4		 cmp	 esi, esp
  00440	e8 00 00 00 00	 call	 __RTC_CheckEsp
  00445	c6 45 fc 03	 mov	 BYTE PTR __$EHRec$[ebp+8], 3
  00449	6a 00		 push	 0
  0044b	8a 4d ef	 mov	 cl, BYTE PTR _bValue$[ebp]
  0044e	51		 push	 ecx
  0044f	8d 55 98	 lea	 edx, DWORD PTR $T188155[ebp]
  00452	52		 push	 edx
  00453	8d 85 7c ff ff
	ff		 lea	 eax, DWORD PTR $T188156[ebp]
  00459	50		 push	 eax
  0045a	e8 00 00 00 00	 call	 ?AfxGetUserConfig@@YAPAVAfxUserConfig@@XZ ; AfxGetUserConfig
  0045f	8b c8		 mov	 ecx, eax
  00461	e8 00 00 00 00	 call	 ?SetConfigBoolValue@AfxUserConfig@@QAEXABV?$basic_string@DU?$char_traits@D@std@@V?$allocator@D@2@@std@@0_N1@Z ; AfxUserConfig::SetConfigBoolValue
  00466	c6 45 fc 02	 mov	 BYTE PTR __$EHRec$[ebp+8], 2
  0046a	8b f4		 mov	 esi, esp
  0046c	8d 8d 7c ff ff
	ff		 lea	 ecx, DWORD PTR $T188156[ebp]
  00472	ff 15 00 00 00
	00		 call	 DWORD PTR __imp_??1?$basic_string@DU?$char_traits@D@std@@V?$allocator@D@2@@std@@QAE@XZ
  00478	3b f4		 cmp	 esi, esp
  0047a	e8 00 00 00 00	 call	 __RTC_CheckEsp
  0047f	c7 45 fc ff ff
	ff ff		 mov	 DWORD PTR __$EHRec$[ebp+8], -1
  00486	8b f4		 mov	 esi, esp
  00488	8d 4d 98	 lea	 ecx, DWORD PTR $T188155[ebp]
  0048b	ff 15 00 00 00
	00		 call	 DWORD PTR __imp_??1?$basic_string@DU?$char_traits@D@std@@V?$allocator@D@2@@std@@QAE@XZ
  00491	3b f4		 cmp	 esi, esp
  00493	e8 00 00 00 00	 call	 __RTC_CheckEsp

; 53   : }

  00498	8b 4d f4	 mov	 ecx, DWORD PTR __$EHRec$[ebp]
  0049b	64 89 0d 00 00
	00 00		 mov	 DWORD PTR fs:__except_list, ecx
  004a2	5f		 pop	 edi
  004a3	5e		 pop	 esi
  004a4	81 c4 84 00 00
	00		 add	 esp, 132		; 00000084H
  004aa	3b ec		 cmp	 ebp, esp
  004ac	e8 00 00 00 00	 call	 __RTC_CheckEsp
  004b1	8b e5		 mov	 esp, ebp
  004b3	5d		 pop	 ebp
  004b4	c2 04 00	 ret	 4
_TEXT	ENDS
text$x	SEGMENT
$L188157:
  000a2	8b f4		 mov	 esi, esp
  000a4	8d 4d d0	 lea	 ecx, DWORD PTR $T188153[ebp]
  000a7	ff 15 00 00 00
	00		 call	 DWORD PTR __imp_??1?$basic_string@DU?$char_traits@D@std@@V?$allocator@D@2@@std@@QAE@XZ
  000ad	3b f4		 cmp	 esi, esp
  000af	e9 00 00 00 00	 jmp	 __RTC_CheckEsp
$L188158:
  000b4	8b f4		 mov	 esi, esp
  000b6	8d 4d b4	 lea	 ecx, DWORD PTR $T188154[ebp]
  000b9	ff 15 00 00 00
	00		 call	 DWORD PTR __imp_??1?$basic_string@DU?$char_traits@D@std@@V?$allocator@D@2@@std@@QAE@XZ
  000bf	3b f4		 cmp	 esi, esp
  000c1	e9 00 00 00 00	 jmp	 __RTC_CheckEsp
$L188159:
  000c6	8b f4		 mov	 esi, esp
  000c8	8d 4d 98	 lea	 ecx, DWORD PTR $T188155[ebp]
  000cb	ff 15 00 00 00
	00		 call	 DWORD PTR __imp_??1?$basic_string@DU?$char_traits@D@std@@V?$allocator@D@2@@std@@QAE@XZ
  000d1	3b f4		 cmp	 esi, esp
  000d3	e9 00 00 00 00	 jmp	 __RTC_CheckEsp
$L188160:
  000d8	8b f4		 mov	 esi, esp
  000da	8d 8d 7c ff ff
	ff		 lea	 ecx, DWORD PTR $T188156[ebp]
  000e0	ff 15 00 00 00
	00		 call	 DWORD PTR __imp_??1?$basic_string@DU?$char_traits@D@std@@V?$allocator@D@2@@std@@QAE@XZ
  000e6	3b f4		 cmp	 esi, esp
  000e8	e9 00 00 00 00	 jmp	 __RTC_CheckEsp
__ehhandler$?SaveConf@CSysDialog@@UAEX_N@Z:
  000ed	b8 00 00 00 00	 mov	 eax, OFFSET FLAT:$T188162
  000f2	e9 00 00 00 00	 jmp	 ___CxxFrameHandler
text$x	ENDS
?SaveConf@CSysDialog@@UAEX_N@Z ENDP			; CSysDialog::SaveConf
EXTRN	?IsAutoRun@GlobalFunc@@SA_NXZ:NEAR		; GlobalFunc::IsAutoRun
EXTRN	?GetConfigBoolValue@AfxUserConfig@@QAEXABV?$basic_string@DU?$char_traits@D@std@@V?$allocator@D@2@@std@@0AA_N@Z:NEAR ; AfxUserConfig::GetConfigBoolValue
EXTRN	@_RTC_CheckStackVars@8:NEAR
xdata$x	SEGMENT
$T188181 DD	0ffffffffH
	DD	FLAT:$L188170
	DD	00H
	DD	FLAT:$L188171
	DD	0ffffffffH
	DD	FLAT:$L188172
	DD	02H
	DD	FLAT:$L188173
$T188175 DD	019930520H
	DD	04H
	DD	FLAT:$T188181
	DD	2 DUP(00H)
	DD	2 DUP(00H)
; Function compile flags: /Odt /RTCsu
xdata$x	ENDS
_TEXT	SEGMENT
$T188169 = -144						; size = 28
$T188168 = -116						; size = 28
$T188167 = -88						; size = 28
$T188166 = -60						; size = 28
_bValue$ = -25						; size = 1
_pUserConfig$ = -20					; size = 4
_this$ = -16						; size = 4
__$EHRec$ = -12						; size = 12
?LoadConf@CSysDialog@@UAEXXZ PROC NEAR			; CSysDialog::LoadConf
; _this$ = ecx

; 56   : {

  004c0	55		 push	 ebp
  004c1	8b ec		 mov	 ebp, esp
  004c3	6a ff		 push	 -1
  004c5	68 00 00 00 00	 push	 __ehhandler$?LoadConf@CSysDialog@@UAEXXZ
  004ca	64 a1 00 00 00
	00		 mov	 eax, DWORD PTR fs:__except_list
  004d0	50		 push	 eax
  004d1	64 89 25 00 00
	00 00		 mov	 DWORD PTR fs:__except_list, esp
  004d8	81 ec 84 00 00
	00		 sub	 esp, 132		; 00000084H
  004de	56		 push	 esi
  004df	57		 push	 edi
  004e0	51		 push	 ecx
  004e1	8d bd 70 ff ff
	ff		 lea	 edi, DWORD PTR [ebp-144]
  004e7	b9 21 00 00 00	 mov	 ecx, 33			; 00000021H
  004ec	b8 cc cc cc cc	 mov	 eax, -858993460		; ccccccccH
  004f1	f3 ab		 rep stosd
  004f3	59		 pop	 ecx
  004f4	89 4d f0	 mov	 DWORD PTR _this$[ebp], ecx

; 57   : 	//	
; 58   : 	m_bAutoRun = GlobalFunc::IsAutoRun();

  004f7	e8 00 00 00 00	 call	 ?IsAutoRun@GlobalFunc@@SA_NXZ ; GlobalFunc::IsAutoRun
  004fc	0f b6 c0	 movzx	 eax, al
  004ff	8b 4d f0	 mov	 ecx, DWORD PTR _this$[ebp]
  00502	89 81 90 00 00
	00		 mov	 DWORD PTR [ecx+144], eax

; 59   : 	//
; 60   : 	AfxUserConfig*	pUserConfig = AfxGetUserConfig();

  00508	e8 00 00 00 00	 call	 ?AfxGetUserConfig@@YAPAVAfxUserConfig@@XZ ; AfxGetUserConfig
  0050d	89 45 ec	 mov	 DWORD PTR _pUserConfig$[ebp], eax

; 61   : 	bool bValue;
; 62   : 	pUserConfig->GetConfigBoolValue( CONF_SETTING_MODULE_NAME,CONF_SETTING_CONFIG_EXITCHOICE,bValue);

  00510	8b f4		 mov	 esi, esp
  00512	8b 15 00 00 00
	00		 mov	 edx, DWORD PTR _CONF_SETTING_CONFIG_EXITCHOICE
  00518	52		 push	 edx
  00519	8d 4d c4	 lea	 ecx, DWORD PTR $T188166[ebp]
  0051c	ff 15 00 00 00
	00		 call	 DWORD PTR __imp_??0?$basic_string@DU?$char_traits@D@std@@V?$allocator@D@2@@std@@QAE@PBD@Z
  00522	3b f4		 cmp	 esi, esp
  00524	e8 00 00 00 00	 call	 __RTC_CheckEsp
  00529	c7 45 fc 00 00
	00 00		 mov	 DWORD PTR __$EHRec$[ebp+8], 0
  00530	8b f4		 mov	 esi, esp
  00532	a1 00 00 00 00	 mov	 eax, DWORD PTR _CONF_SETTING_MODULE_NAME
  00537	50		 push	 eax
  00538	8d 4d a8	 lea	 ecx, DWORD PTR $T188167[ebp]
  0053b	ff 15 00 00 00
	00		 call	 DWORD PTR __imp_??0?$basic_string@DU?$char_traits@D@std@@V?$allocator@D@2@@std@@QAE@PBD@Z
  00541	3b f4		 cmp	 esi, esp
  00543	e8 00 00 00 00	 call	 __RTC_CheckEsp
  00548	c6 45 fc 01	 mov	 BYTE PTR __$EHRec$[ebp+8], 1
  0054c	8d 4d e7	 lea	 ecx, DWORD PTR _bValue$[ebp]
  0054f	51		 push	 ecx
  00550	8d 55 c4	 lea	 edx, DWORD PTR $T188166[ebp]
  00553	52		 push	 edx
  00554	8d 45 a8	 lea	 eax, DWORD PTR $T188167[ebp]
  00557	50		 push	 eax
  00558	8b 4d ec	 mov	 ecx, DWORD PTR _pUserConfig$[ebp]
  0055b	e8 00 00 00 00	 call	 ?GetConfigBoolValue@AfxUserConfig@@QAEXABV?$basic_string@DU?$char_traits@D@std@@V?$allocator@D@2@@std@@0AA_N@Z ; AfxUserConfig::GetConfigBoolValue
  00560	c6 45 fc 00	 mov	 BYTE PTR __$EHRec$[ebp+8], 0
  00564	8b f4		 mov	 esi, esp
  00566	8d 4d a8	 lea	 ecx, DWORD PTR $T188167[ebp]
  00569	ff 15 00 00 00
	00		 call	 DWORD PTR __imp_??1?$basic_string@DU?$char_traits@D@std@@V?$allocator@D@2@@std@@QAE@XZ
  0056f	3b f4		 cmp	 esi, esp
  00571	e8 00 00 00 00	 call	 __RTC_CheckEsp
  00576	c7 45 fc ff ff
	ff ff		 mov	 DWORD PTR __$EHRec$[ebp+8], -1
  0057d	8b f4		 mov	 esi, esp
  0057f	8d 4d c4	 lea	 ecx, DWORD PTR $T188166[ebp]
  00582	ff 15 00 00 00
	00		 call	 DWORD PTR __imp_??1?$basic_string@DU?$char_traits@D@std@@V?$allocator@D@2@@std@@QAE@XZ
  00588	3b f4		 cmp	 esi, esp
  0058a	e8 00 00 00 00	 call	 __RTC_CheckEsp

; 63   : 	m_minOrExit = bValue;

  0058f	0f b6 4d e7	 movzx	 ecx, BYTE PTR _bValue$[ebp]
  00593	8b 55 f0	 mov	 edx, DWORD PTR _this$[ebp]
  00596	89 8a e8 00 00
	00		 mov	 DWORD PTR [edx+232], ecx

; 64   : 
; 65   : 	pUserConfig->GetConfigBoolValue( CONF_SETTING_MODULE_NAME,CONF_SETTING_CONFIG_IFASKEXIT,bValue);

  0059c	8b f4		 mov	 esi, esp
  0059e	a1 00 00 00 00	 mov	 eax, DWORD PTR _CONF_SETTING_CONFIG_IFASKEXIT
  005a3	50		 push	 eax
  005a4	8d 4d 8c	 lea	 ecx, DWORD PTR $T188168[ebp]
  005a7	ff 15 00 00 00
	00		 call	 DWORD PTR __imp_??0?$basic_string@DU?$char_traits@D@std@@V?$allocator@D@2@@std@@QAE@PBD@Z
  005ad	3b f4		 cmp	 esi, esp
  005af	e8 00 00 00 00	 call	 __RTC_CheckEsp
  005b4	c7 45 fc 02 00
	00 00		 mov	 DWORD PTR __$EHRec$[ebp+8], 2
  005bb	8b f4		 mov	 esi, esp
  005bd	8b 0d 00 00 00
	00		 mov	 ecx, DWORD PTR _CONF_SETTING_MODULE_NAME
  005c3	51		 push	 ecx
  005c4	8d 8d 70 ff ff
	ff		 lea	 ecx, DWORD PTR $T188169[ebp]
  005ca	ff 15 00 00 00
	00		 call	 DWORD PTR __imp_??0?$basic_string@DU?$char_traits@D@std@@V?$allocator@D@2@@std@@QAE@PBD@Z
  005d0	3b f4		 cmp	 esi, esp
  005d2	e8 00 00 00 00	 call	 __RTC_CheckEsp
  005d7	c6 45 fc 03	 mov	 BYTE PTR __$EHRec$[ebp+8], 3
  005db	8d 55 e7	 lea	 edx, DWORD PTR _bValue$[ebp]
  005de	52		 push	 edx
  005df	8d 45 8c	 lea	 eax, DWORD PTR $T188168[ebp]
  005e2	50		 push	 eax
  005e3	8d 8d 70 ff ff
	ff		 lea	 ecx, DWORD PTR $T188169[ebp]
  005e9	51		 push	 ecx
  005ea	8b 4d ec	 mov	 ecx, DWORD PTR _pUserConfig$[ebp]
  005ed	e8 00 00 00 00	 call	 ?GetConfigBoolValue@AfxUserConfig@@QAEXABV?$basic_string@DU?$char_traits@D@std@@V?$allocator@D@2@@std@@0AA_N@Z ; AfxUserConfig::GetConfigBoolValue
  005f2	c6 45 fc 02	 mov	 BYTE PTR __$EHRec$[ebp+8], 2
  005f6	8b f4		 mov	 esi, esp
  005f8	8d 8d 70 ff ff
	ff		 lea	 ecx, DWORD PTR $T188169[ebp]
  005fe	ff 15 00 00 00
	00		 call	 DWORD PTR __imp_??1?$basic_string@DU?$char_traits@D@std@@V?$allocator@D@2@@std@@QAE@XZ
  00604	3b f4		 cmp	 esi, esp
  00606	e8 00 00 00 00	 call	 __RTC_CheckEsp
  0060b	c7 45 fc ff ff
	ff ff		 mov	 DWORD PTR __$EHRec$[ebp+8], -1
  00612	8b f4		 mov	 esi, esp
  00614	8d 4d 8c	 lea	 ecx, DWORD PTR $T188168[ebp]
  00617	ff 15 00 00 00
	00		 call	 DWORD PTR __imp_??1?$basic_string@DU?$char_traits@D@std@@V?$allocator@D@2@@std@@QAE@XZ
  0061d	3b f4		 cmp	 esi, esp
  0061f	e8 00 00 00 00	 call	 __RTC_CheckEsp

; 66   : 	m_noAsk = bValue;

  00624	0f b6 55 e7	 movzx	 edx, BYTE PTR _bValue$[ebp]
  00628	8b 45 f0	 mov	 eax, DWORD PTR _this$[ebp]
  0062b	89 90 ec 00 00
	00		 mov	 DWORD PTR [eax+236], edx

; 67   : }

  00631	52		 push	 edx
  00632	8b cd		 mov	 ecx, ebp
  00634	50		 push	 eax
  00635	8d 15 00 00 00
	00		 lea	 edx, DWORD PTR $L188179
  0063b	e8 00 00 00 00	 call	 @_RTC_CheckStackVars@8
  00640	58		 pop	 eax
  00641	5a		 pop	 edx
  00642	8b 4d f4	 mov	 ecx, DWORD PTR __$EHRec$[ebp]
  00645	64 89 0d 00 00
	00 00		 mov	 DWORD PTR fs:__except_list, ecx
  0064c	5f		 pop	 edi
  0064d	5e		 pop	 esi
  0064e	81 c4 90 00 00
	00		 add	 esp, 144		; 00000090H
  00654	3b ec		 cmp	 ebp, esp
  00656	e8 00 00 00 00	 call	 __RTC_CheckEsp
  0065b	8b e5		 mov	 esp, ebp
  0065d	5d		 pop	 ebp
  0065e	c3		 ret	 0
$L188179:
  0065f	01 00 00 00	 DD	 1
  00663	00 00 00 00	 DD	 $L188178
$L188178:
  00667	e7 ff ff ff	 DD	 -25			; ffffffe7H
  0066b	01 00 00 00	 DD	 1
  0066f	00 00 00 00	 DD	 $L188176
$L188176:
  00673	62		 DB	 98			; 00000062H
  00674	56		 DB	 86			; 00000056H
  00675	61		 DB	 97			; 00000061H
  00676	6c		 DB	 108			; 0000006cH
  00677	75		 DB	 117			; 00000075H
  00678	65		 DB	 101			; 00000065H
  00679	00		 DB	 0
_TEXT	ENDS
text$x	SEGMENT
$L188170:
  000f7	8b f4		 mov	 esi, esp
  000f9	8d 4d c4	 lea	 ecx, DWORD PTR $T188166[ebp]
  000fc	ff 15 00 00 00
	00		 call	 DWORD PTR __imp_??1?$basic_string@DU?$char_traits@D@std@@V?$allocator@D@2@@std@@QAE@XZ
  00102	3b f4		 cmp	 esi, esp
  00104	e9 00 00 00 00	 jmp	 __RTC_CheckEsp
$L188171:
  00109	8b f4		 mov	 esi, esp
  0010b	8d 4d a8	 lea	 ecx, DWORD PTR $T188167[ebp]
  0010e	ff 15 00 00 00
	00		 call	 DWORD PTR __imp_??1?$basic_string@DU?$char_traits@D@std@@V?$allocator@D@2@@std@@QAE@XZ
  00114	3b f4		 cmp	 esi, esp
  00116	e9 00 00 00 00	 jmp	 __RTC_CheckEsp
$L188172:
  0011b	8b f4		 mov	 esi, esp
  0011d	8d 4d 8c	 lea	 ecx, DWORD PTR $T188168[ebp]
  00120	ff 15 00 00 00
	00		 call	 DWORD PTR __imp_??1?$basic_string@DU?$char_traits@D@std@@V?$allocator@D@2@@std@@QAE@XZ
  00126	3b f4		 cmp	 esi, esp
  00128	e9 00 00 00 00	 jmp	 __RTC_CheckEsp
$L188173:
  0012d	8b f4		 mov	 esi, esp
  0012f	8d 8d 70 ff ff
	ff		 lea	 ecx, DWORD PTR $T188169[ebp]
  00135	ff 15 00 00 00
	00		 call	 DWORD PTR __imp_??1?$basic_string@DU?$char_traits@D@std@@V?$allocator@D@2@@std@@QAE@XZ
  0013b	3b f4		 cmp	 esi, esp
  0013d	e9 00 00 00 00	 jmp	 __RTC_CheckEsp
__ehhandler$?LoadConf@CSysDialog@@UAEXXZ:
  00142	b8 00 00 00 00	 mov	 eax, OFFSET FLAT:$T188175
  00147	e9 00 00 00 00	 jmp	 ___CxxFrameHandler
text$x	ENDS
?LoadConf@CSysDialog@@UAEXXZ ENDP			; CSysDialog::LoadConf
; Function compile flags: /Odt /RTCsu
_TEXT	SEGMENT
_this$ = -4						; size = 4
?SetDefault@CSysDialog@@UAEXXZ PROC NEAR		; CSysDialog::SetDefault
; _this$ = ecx

; 70   : {

  00680	55		 push	 ebp
  00681	8b ec		 mov	 ebp, esp
  00683	51		 push	 ecx
  00684	c7 45 fc cc cc
	cc cc		 mov	 DWORD PTR [ebp-4], -858993460 ; ccccccccH
  0068b	89 4d fc	 mov	 DWORD PTR _this$[ebp], ecx

; 71   : 	m_bAutoRun	= TRUE;

  0068e	8b 45 fc	 mov	 eax, DWORD PTR _this$[ebp]
  00691	c7 80 90 00 00
	00 01 00 00 00	 mov	 DWORD PTR [eax+144], 1

; 72   : 	m_minOrExit	= FALSE;

  0069b	8b 4d fc	 mov	 ecx, DWORD PTR _this$[ebp]
  0069e	c7 81 e8 00 00
	00 00 00 00 00	 mov	 DWORD PTR [ecx+232], 0

; 73   : 	m_noAsk		= FALSE;

  006a8	8b 55 fc	 mov	 edx, DWORD PTR _this$[ebp]
  006ab	c7 82 ec 00 00
	00 00 00 00 00	 mov	 DWORD PTR [edx+236], 0

; 74   : 	UpdateData( FALSE );

  006b5	6a 00		 push	 0
  006b7	8b 4d fc	 mov	 ecx, DWORD PTR _this$[ebp]
  006ba	e8 00 00 00 00	 call	 ?UpdateData@CWnd@@QAEHH@Z ; CWnd::UpdateData

; 75   : }

  006bf	83 c4 04	 add	 esp, 4
  006c2	3b ec		 cmp	 ebp, esp
  006c4	e8 00 00 00 00	 call	 __RTC_CheckEsp
  006c9	8b e5		 mov	 esp, ebp
  006cb	5d		 pop	 ebp
  006cc	c3		 ret	 0
?SetDefault@CSysDialog@@UAEXXZ ENDP			; CSysDialog::SetDefault
; Function compile flags: /Odt /RTCsu
_this$ = -4						; size = 4
_strMsg$ = 8						; size = 4
?IsAllInputOK@CSysDialog@@UAE_NAAV?$basic_string@DU?$char_traits@D@std@@V?$allocator@D@2@@std@@@Z PROC NEAR ; CSysDialog::IsAllInputOK
; _this$ = ecx

; 78   : {

  006d0	55		 push	 ebp
  006d1	8b ec		 mov	 ebp, esp
  006d3	51		 push	 ecx
  006d4	c7 45 fc cc cc
	cc cc		 mov	 DWORD PTR [ebp-4], -858993460 ; ccccccccH
  006db	89 4d fc	 mov	 DWORD PTR _this$[ebp], ecx

; 79   : 	if( UpdateData() == FALSE )

  006de	6a 01		 push	 1
  006e0	8b 4d fc	 mov	 ecx, DWORD PTR _this$[ebp]
  006e3	e8 00 00 00 00	 call	 ?UpdateData@CWnd@@QAEHH@Z ; CWnd::UpdateData
  006e8	85 c0		 test	 eax, eax
  006ea	75 04		 jne	 SHORT $L187620

; 80   : 		return false;

  006ec	32 c0		 xor	 al, al
  006ee	eb 02		 jmp	 SHORT $L187619
$L187620:

; 81   : 	return true;

  006f0	b0 01		 mov	 al, 1
$L187619:

; 82   : }

  006f2	83 c4 04	 add	 esp, 4
  006f5	3b ec		 cmp	 ebp, esp
  006f7	e8 00 00 00 00	 call	 __RTC_CheckEsp
  006fc	8b e5		 mov	 esp, ebp
  006fe	5d		 pop	 ebp
  006ff	c2 04 00	 ret	 4
?IsAllInputOK@CSysDialog@@UAE_NAAV?$basic_string@DU?$char_traits@D@std@@V?$allocator@D@2@@std@@@Z ENDP ; CSysDialog::IsAllInputOK
_TEXT	ENDS
PUBLIC	?CreateLink@CSysDialog@@AAEJPBD00@Z		; CSysDialog::CreateLink
EXTRN	__imp__CoInitialize@4:NEAR
EXTRN	__imp__MultiByteToWideChar@24:NEAR
EXTRN	__imp__CoCreateInstance@20:NEAR
EXTRN	___security_cookie:DWORD
EXTRN	@__security_check_cookie@4:NEAR
EXTRN	_CLSID_ShellLink:BYTE
EXTRN	_IID_IShellLinkA:BYTE
EXTRN	_IID_IPersistFile:BYTE
; Function compile flags: /Odt /RTCsu
_TEXT	SEGMENT
_wsz$187636 = -560					; size = 520
_ppf$187632 = -32					; size = 4
_psl$ = -20						; size = 4
_hres$ = -12						; size = 4
_this$ = -8						; size = 4
__$ArrayPad$ = -4					; size = 4
__$ReturnAddr$ = 4					; size = 4
_lpszPathObj$ = 8					; size = 4
_lpszPathLink$ = 12					; size = 4
_lpszDesc$ = 16						; size = 4
?CreateLink@CSysDialog@@AAEJPBD00@Z PROC NEAR		; CSysDialog::CreateLink
; _this$ = ecx

; 85   : {

  00710	55		 push	 ebp
  00711	8b ec		 mov	 ebp, esp
  00713	81 ec 34 02 00
	00		 sub	 esp, 564		; 00000234H
  00719	56		 push	 esi
  0071a	57		 push	 edi
  0071b	51		 push	 ecx
  0071c	8d bd cc fd ff
	ff		 lea	 edi, DWORD PTR [ebp-564]
  00722	b9 8d 00 00 00	 mov	 ecx, 141		; 0000008dH
  00727	b8 cc cc cc cc	 mov	 eax, -858993460		; ccccccccH
  0072c	f3 ab		 rep stosd
  0072e	59		 pop	 ecx
  0072f	a1 00 00 00 00	 mov	 eax, DWORD PTR ___security_cookie
  00734	89 45 fc	 mov	 DWORD PTR __$ArrayPad$[ebp], eax
  00737	89 4d f8	 mov	 DWORD PTR _this$[ebp], ecx

; 86   :     HRESULT hres;
; 87   :     IShellLink* psl;
; 88   : 
; 89   :     hres = CoInitialize(NULL);

  0073a	8b f4		 mov	 esi, esp
  0073c	6a 00		 push	 0
  0073e	ff 15 00 00 00
	00		 call	 DWORD PTR __imp__CoInitialize@4
  00744	3b f4		 cmp	 esi, esp
  00746	e8 00 00 00 00	 call	 __RTC_CheckEsp
  0074b	89 45 f4	 mov	 DWORD PTR _hres$[ebp], eax

; 90   :     hres = CoCreateInstance(CLSID_ShellLink, NULL, CLSCTX_INPROC_SERVER, IID_IShellLink, (LPVOID *) &psl);

  0074e	8b f4		 mov	 esi, esp
  00750	8d 45 ec	 lea	 eax, DWORD PTR _psl$[ebp]
  00753	50		 push	 eax
  00754	68 00 00 00 00	 push	 OFFSET FLAT:_IID_IShellLinkA
  00759	6a 01		 push	 1
  0075b	6a 00		 push	 0
  0075d	68 00 00 00 00	 push	 OFFSET FLAT:_CLSID_ShellLink
  00762	ff 15 00 00 00
	00		 call	 DWORD PTR __imp__CoCreateInstance@20
  00768	3b f4		 cmp	 esi, esp
  0076a	e8 00 00 00 00	 call	 __RTC_CheckEsp
  0076f	89 45 f4	 mov	 DWORD PTR _hres$[ebp], eax

; 91   :     
; 92   :     if (SUCCEEDED(hres)) {

  00772	83 7d f4 00	 cmp	 DWORD PTR _hres$[ebp], 0
  00776	0f 8c c8 00 00
	00		 jl	 $L187631

; 93   :         IPersistFile *ppf;
; 94   : 
; 95   :         psl->SetPath(lpszPathObj);

  0077c	8b f4		 mov	 esi, esp
  0077e	8b 4d 08	 mov	 ecx, DWORD PTR _lpszPathObj$[ebp]
  00781	51		 push	 ecx
  00782	8b 55 ec	 mov	 edx, DWORD PTR _psl$[ebp]
  00785	8b 02		 mov	 eax, DWORD PTR [edx]
  00787	8b 4d ec	 mov	 ecx, DWORD PTR _psl$[ebp]
  0078a	51		 push	 ecx
  0078b	ff 50 50	 call	 DWORD PTR [eax+80]
  0078e	3b f4		 cmp	 esi, esp
  00790	e8 00 00 00 00	 call	 __RTC_CheckEsp

; 96   :         psl->SetDescription(lpszDesc);

  00795	8b f4		 mov	 esi, esp
  00797	8b 55 10	 mov	 edx, DWORD PTR _lpszDesc$[ebp]
  0079a	52		 push	 edx
  0079b	8b 45 ec	 mov	 eax, DWORD PTR _psl$[ebp]
  0079e	8b 08		 mov	 ecx, DWORD PTR [eax]
  007a0	8b 55 ec	 mov	 edx, DWORD PTR _psl$[ebp]
  007a3	52		 push	 edx
  007a4	ff 51 1c	 call	 DWORD PTR [ecx+28]
  007a7	3b f4		 cmp	 esi, esp
  007a9	e8 00 00 00 00	 call	 __RTC_CheckEsp

; 97   :         hres = psl->QueryInterface(IID_IPersistFile, (void **)&ppf);

  007ae	8b f4		 mov	 esi, esp
  007b0	8d 45 e0	 lea	 eax, DWORD PTR _ppf$187632[ebp]
  007b3	50		 push	 eax
  007b4	68 00 00 00 00	 push	 OFFSET FLAT:_IID_IPersistFile
  007b9	8b 4d ec	 mov	 ecx, DWORD PTR _psl$[ebp]
  007bc	8b 11		 mov	 edx, DWORD PTR [ecx]
  007be	8b 45 ec	 mov	 eax, DWORD PTR _psl$[ebp]
  007c1	50		 push	 eax
  007c2	ff 12		 call	 DWORD PTR [edx]
  007c4	3b f4		 cmp	 esi, esp
  007c6	e8 00 00 00 00	 call	 __RTC_CheckEsp
  007cb	89 45 f4	 mov	 DWORD PTR _hres$[ebp], eax

; 98   :         if (SUCCEEDED(hres)) {

  007ce	83 7d f4 00	 cmp	 DWORD PTR _hres$[ebp], 0
  007d2	7c 5b		 jl	 SHORT $L187635

; 99   :             WCHAR wsz[MAX_PATH];
; 100  :             
; 101  :             MultiByteToWideChar(CP_ACP, 0, lpszPathLink, -1, wsz, MAX_PATH);

  007d4	8b f4		 mov	 esi, esp
  007d6	68 04 01 00 00	 push	 260			; 00000104H
  007db	8d 8d d0 fd ff
	ff		 lea	 ecx, DWORD PTR _wsz$187636[ebp]
  007e1	51		 push	 ecx
  007e2	6a ff		 push	 -1
  007e4	8b 55 0c	 mov	 edx, DWORD PTR _lpszPathLink$[ebp]
  007e7	52		 push	 edx
  007e8	6a 00		 push	 0
  007ea	6a 00		 push	 0
  007ec	ff 15 00 00 00
	00		 call	 DWORD PTR __imp__MultiByteToWideChar@24
  007f2	3b f4		 cmp	 esi, esp
  007f4	e8 00 00 00 00	 call	 __RTC_CheckEsp

; 102  :             hres = ppf->Save(wsz, TRUE);

  007f9	8b f4		 mov	 esi, esp
  007fb	6a 01		 push	 1
  007fd	8d 85 d0 fd ff
	ff		 lea	 eax, DWORD PTR _wsz$187636[ebp]
  00803	50		 push	 eax
  00804	8b 4d e0	 mov	 ecx, DWORD PTR _ppf$187632[ebp]
  00807	8b 11		 mov	 edx, DWORD PTR [ecx]
  00809	8b 45 e0	 mov	 eax, DWORD PTR _ppf$187632[ebp]
  0080c	50		 push	 eax
  0080d	ff 52 18	 call	 DWORD PTR [edx+24]
  00810	3b f4		 cmp	 esi, esp
  00812	e8 00 00 00 00	 call	 __RTC_CheckEsp
  00817	89 45 f4	 mov	 DWORD PTR _hres$[ebp], eax

; 103  :             ppf->Release();

  0081a	8b 4d e0	 mov	 ecx, DWORD PTR _ppf$187632[ebp]
  0081d	8b 11		 mov	 edx, DWORD PTR [ecx]
  0081f	8b f4		 mov	 esi, esp
  00821	8b 45 e0	 mov	 eax, DWORD PTR _ppf$187632[ebp]
  00824	50		 push	 eax
  00825	ff 52 08	 call	 DWORD PTR [edx+8]
  00828	3b f4		 cmp	 esi, esp
  0082a	e8 00 00 00 00	 call	 __RTC_CheckEsp
$L187635:

; 104  :         }
; 105  :         psl->Release();

  0082f	8b 4d ec	 mov	 ecx, DWORD PTR _psl$[ebp]
  00832	8b 11		 mov	 edx, DWORD PTR [ecx]
  00834	8b f4		 mov	 esi, esp
  00836	8b 45 ec	 mov	 eax, DWORD PTR _psl$[ebp]
  00839	50		 push	 eax
  0083a	ff 52 08	 call	 DWORD PTR [edx+8]
  0083d	3b f4		 cmp	 esi, esp
  0083f	e8 00 00 00 00	 call	 __RTC_CheckEsp
$L187631:

; 106  :     }
; 107  :     return hres;

  00844	8b 45 f4	 mov	 eax, DWORD PTR _hres$[ebp]

; 108  : }

  00847	52		 push	 edx
  00848	8b cd		 mov	 ecx, ebp
  0084a	50		 push	 eax
  0084b	8d 15 00 00 00
	00		 lea	 edx, DWORD PTR $L188192
  00851	e8 00 00 00 00	 call	 @_RTC_CheckStackVars@8
  00856	58		 pop	 eax
  00857	5a		 pop	 edx
  00858	8b 4d fc	 mov	 ecx, DWORD PTR __$ArrayPad$[ebp]
  0085b	e8 00 00 00 00	 call	 @__security_check_cookie@4
  00860	5f		 pop	 edi
  00861	5e		 pop	 esi
  00862	81 c4 34 02 00
	00		 add	 esp, 564		; 00000234H
  00868	3b ec		 cmp	 ebp, esp
  0086a	e8 00 00 00 00	 call	 __RTC_CheckEsp
  0086f	8b e5		 mov	 esp, ebp
  00871	5d		 pop	 ebp
  00872	c2 0c 00	 ret	 12			; 0000000cH
$L188192:
  00875	03 00 00 00	 DD	 3
  00879	00 00 00 00	 DD	 $L188191
$L188191:
  0087d	ec ff ff ff	 DD	 -20			; ffffffecH
  00881	04 00 00 00	 DD	 4
  00885	00 00 00 00	 DD	 $L188186
  00889	e0 ff ff ff	 DD	 -32			; ffffffe0H
  0088d	04 00 00 00	 DD	 4
  00891	00 00 00 00	 DD	 $L188187
  00895	d0 fd ff ff	 DD	 -560			; fffffdd0H
  00899	08 02 00 00	 DD	 520			; 00000208H
  0089d	00 00 00 00	 DD	 $L188188
$L188188:
  008a1	77		 DB	 119			; 00000077H
  008a2	73		 DB	 115			; 00000073H
  008a3	7a		 DB	 122			; 0000007aH
  008a4	00		 DB	 0
$L188187:
  008a5	70		 DB	 112			; 00000070H
  008a6	70		 DB	 112			; 00000070H
  008a7	66		 DB	 102			; 00000066H
  008a8	00		 DB	 0
$L188186:
  008a9	70		 DB	 112			; 00000070H
  008aa	73		 DB	 115			; 00000073H
  008ab	6c		 DB	 108			; 0000006cH
  008ac	00		 DB	 0
?CreateLink@CSysDialog@@AAEJPBD00@Z ENDP		; CSysDialog::CreateLink
; Function compile flags: /Odt /RTCsu
_this$ = -4						; size = 4
?OnBnClickedRadMin@CSysDialog@@IAEXXZ PROC NEAR		; CSysDialog::OnBnClickedRadMin
; _this$ = ecx

; 111  : {

  008b0	55		 push	 ebp
  008b1	8b ec		 mov	 ebp, esp
  008b3	51		 push	 ecx
  008b4	56		 push	 esi
  008b5	c7 45 fc cc cc
	cc cc		 mov	 DWORD PTR [ebp-4], -858993460 ; ccccccccH
  008bc	89 4d fc	 mov	 DWORD PTR _this$[ebp], ecx

; 112  : 	SthChanged();

  008bf	8b 45 fc	 mov	 eax, DWORD PTR _this$[ebp]
  008c2	8b 10		 mov	 edx, DWORD PTR [eax]
  008c4	8b f4		 mov	 esi, esp
  008c6	8b 4d fc	 mov	 ecx, DWORD PTR _this$[ebp]
  008c9	ff 92 60 01 00
	00		 call	 DWORD PTR [edx+352]
  008cf	3b f4		 cmp	 esi, esp
  008d1	e8 00 00 00 00	 call	 __RTC_CheckEsp

; 113  : }

  008d6	5e		 pop	 esi
  008d7	83 c4 04	 add	 esp, 4
  008da	3b ec		 cmp	 ebp, esp
  008dc	e8 00 00 00 00	 call	 __RTC_CheckEsp
  008e1	8b e5		 mov	 esp, ebp
  008e3	5d		 pop	 ebp
  008e4	c3		 ret	 0
?OnBnClickedRadMin@CSysDialog@@IAEXXZ ENDP		; CSysDialog::OnBnClickedRadMin
; Function compile flags: /Odt /RTCsu
_this$ = -4						; size = 4
?OnBnClickedRadExit@CSysDialog@@IAEXXZ PROC NEAR	; CSysDialog::OnBnClickedRadExit
; _this$ = ecx

; 116  : {

  008f0	55		 push	 ebp
  008f1	8b ec		 mov	 ebp, esp
  008f3	51		 push	 ecx
  008f4	56		 push	 esi
  008f5	c7 45 fc cc cc
	cc cc		 mov	 DWORD PTR [ebp-4], -858993460 ; ccccccccH
  008fc	89 4d fc	 mov	 DWORD PTR _this$[ebp], ecx

; 117  : 	SthChanged();

  008ff	8b 45 fc	 mov	 eax, DWORD PTR _this$[ebp]
  00902	8b 10		 mov	 edx, DWORD PTR [eax]
  00904	8b f4		 mov	 esi, esp
  00906	8b 4d fc	 mov	 ecx, DWORD PTR _this$[ebp]
  00909	ff 92 60 01 00
	00		 call	 DWORD PTR [edx+352]
  0090f	3b f4		 cmp	 esi, esp
  00911	e8 00 00 00 00	 call	 __RTC_CheckEsp

; 118  : }

  00916	5e		 pop	 esi
  00917	83 c4 04	 add	 esp, 4
  0091a	3b ec		 cmp	 ebp, esp
  0091c	e8 00 00 00 00	 call	 __RTC_CheckEsp
  00921	8b e5		 mov	 esp, ebp
  00923	5d		 pop	 ebp
  00924	c3		 ret	 0
?OnBnClickedRadExit@CSysDialog@@IAEXXZ ENDP		; CSysDialog::OnBnClickedRadExit
; Function compile flags: /Odt /RTCsu
_this$ = -4						; size = 4
?OnBnClickedChkNoask@CSysDialog@@IAEXXZ PROC NEAR	; CSysDialog::OnBnClickedChkNoask
; _this$ = ecx

; 121  : {

  00930	55		 push	 ebp
  00931	8b ec		 mov	 ebp, esp
  00933	51		 push	 ecx
  00934	56		 push	 esi
  00935	c7 45 fc cc cc
	cc cc		 mov	 DWORD PTR [ebp-4], -858993460 ; ccccccccH
  0093c	89 4d fc	 mov	 DWORD PTR _this$[ebp], ecx

; 122  : 	SthChanged();

  0093f	8b 45 fc	 mov	 eax, DWORD PTR _this$[ebp]
  00942	8b 10		 mov	 edx, DWORD PTR [eax]
  00944	8b f4		 mov	 esi, esp
  00946	8b 4d fc	 mov	 ecx, DWORD PTR _this$[ebp]
  00949	ff 92 60 01 00
	00		 call	 DWORD PTR [edx+352]
  0094f	3b f4		 cmp	 esi, esp
  00951	e8 00 00 00 00	 call	 __RTC_CheckEsp

; 123  : }

  00956	5e		 pop	 esi
  00957	83 c4 04	 add	 esp, 4
  0095a	3b ec		 cmp	 ebp, esp
  0095c	e8 00 00 00 00	 call	 __RTC_CheckEsp
  00961	8b e5		 mov	 esp, ebp
  00963	5d		 pop	 ebp
  00964	c3		 ret	 0
?OnBnClickedChkNoask@CSysDialog@@IAEXXZ ENDP		; CSysDialog::OnBnClickedChkNoask
; Function compile flags: /Odt /RTCsu
_this$ = -4						; size = 4
?OnBnClickedCheckAutoRun@CSysDialog@@IAEXXZ PROC NEAR	; CSysDialog::OnBnClickedCheckAutoRun
; _this$ = ecx

; 126  : {

  00970	55		 push	 ebp
  00971	8b ec		 mov	 ebp, esp
  00973	51		 push	 ecx
  00974	56		 push	 esi
  00975	c7 45 fc cc cc
	cc cc		 mov	 DWORD PTR [ebp-4], -858993460 ; ccccccccH
  0097c	89 4d fc	 mov	 DWORD PTR _this$[ebp], ecx

; 127  : 	SthChanged();

  0097f	8b 45 fc	 mov	 eax, DWORD PTR _this$[ebp]
  00982	8b 10		 mov	 edx, DWORD PTR [eax]
  00984	8b f4		 mov	 esi, esp
  00986	8b 4d fc	 mov	 ecx, DWORD PTR _this$[ebp]
  00989	ff 92 60 01 00
	00		 call	 DWORD PTR [edx+352]
  0098f	3b f4		 cmp	 esi, esp
  00991	e8 00 00 00 00	 call	 __RTC_CheckEsp

; 128  : }

  00996	5e		 pop	 esi
  00997	83 c4 04	 add	 esp, 4
  0099a	3b ec		 cmp	 ebp, esp
  0099c	e8 00 00 00 00	 call	 __RTC_CheckEsp
  009a1	8b e5		 mov	 esp, ebp
  009a3	5d		 pop	 ebp
  009a4	c3		 ret	 0
?OnBnClickedCheckAutoRun@CSysDialog@@IAEXXZ ENDP	; CSysDialog::OnBnClickedCheckAutoRun
_TEXT	ENDS
CRT$XCU	SEGMENT
_$S6	DD	FLAT:_$E5
; Function compile flags: /Odt /RTCsu
; File d:\boxgit\playbox\playbox\dev\prj\playbox\src\appconfig\config\configsettingdef.h
CRT$XCU	ENDS
;	COMDAT _$E5
text$yc	SEGMENT
_$E5	PROC NEAR					; COMDAT

; 25   : 	CONF_SETTING_SKIN_IDX,				TYPE_CONFIG_STR,

  00000	55		 push	 ebp
  00001	8b ec		 mov	 ebp, esp
  00003	a1 00 00 00 00	 mov	 eax, DWORD PTR _CONF_SETTING_SKIN_IDX
  00008	a3 00 00 00 00	 mov	 DWORD PTR _CONF_SETTING, eax
  0000d	8b 0d 00 00 00
	00		 mov	 ecx, DWORD PTR _TYPE_CONFIG_STR
  00013	89 0d 04 00 00
	00		 mov	 DWORD PTR _CONF_SETTING+4, ecx

; 26   : 	CONF_SETTING_CONFIG_MAIN_PAGE,		TYPE_CONFIG_STR,

  00019	8b 15 00 00 00
	00		 mov	 edx, DWORD PTR _CONF_SETTING_CONFIG_MAIN_PAGE
  0001f	89 15 08 00 00
	00		 mov	 DWORD PTR _CONF_SETTING+8, edx
  00025	a1 00 00 00 00	 mov	 eax, DWORD PTR _TYPE_CONFIG_STR
  0002a	a3 0c 00 00 00	 mov	 DWORD PTR _CONF_SETTING+12, eax

; 27   : 	CONF_SETTING_CONFIG_PROBLEM_REPORT,	TYPE_CONFIG_STR,

  0002f	8b 0d 00 00 00
	00		 mov	 ecx, DWORD PTR _CONF_SETTING_CONFIG_PROBLEM_REPORT
  00035	89 0d 10 00 00
	00		 mov	 DWORD PTR _CONF_SETTING+16, ecx
  0003b	8b 15 00 00 00
	00		 mov	 edx, DWORD PTR _TYPE_CONFIG_STR
  00041	89 15 14 00 00
	00		 mov	 DWORD PTR _CONF_SETTING+20, edx

; 28   : 	CONF_SETTING_CONFIG_HOME_PAGE,		TYPE_CONFIG_STR,

  00047	a1 00 00 00 00	 mov	 eax, DWORD PTR _CONF_SETTING_CONFIG_HOME_PAGE
  0004c	a3 18 00 00 00	 mov	 DWORD PTR _CONF_SETTING+24, eax
  00051	8b 0d 00 00 00
	00		 mov	 ecx, DWORD PTR _TYPE_CONFIG_STR
  00057	89 0d 1c 00 00
	00		 mov	 DWORD PTR _CONF_SETTING+28, ecx

; 29   : 	CONF_SETTING_CONFIG_IFASKEXIT,		TYPE_CONFIG_BOOL,

  0005d	8b 15 00 00 00
	00		 mov	 edx, DWORD PTR _CONF_SETTING_CONFIG_IFASKEXIT
  00063	89 15 20 00 00
	00		 mov	 DWORD PTR _CONF_SETTING+32, edx
  00069	a1 00 00 00 00	 mov	 eax, DWORD PTR _TYPE_CONFIG_BOOL
  0006e	a3 24 00 00 00	 mov	 DWORD PTR _CONF_SETTING+36, eax

; 30   : 	CONF_SETTING_CONFIG_EXITCHOICE,		TYPE_CONFIG_BOOL,

  00073	8b 0d 00 00 00
	00		 mov	 ecx, DWORD PTR _CONF_SETTING_CONFIG_EXITCHOICE
  00079	89 0d 28 00 00
	00		 mov	 DWORD PTR _CONF_SETTING+40, ecx
  0007f	8b 15 00 00 00
	00		 mov	 edx, DWORD PTR _TYPE_CONFIG_BOOL
  00085	89 15 2c 00 00
	00		 mov	 DWORD PTR _CONF_SETTING+44, edx

; 31   : 	CONF_SETTING_LOGIN_USER_NAME,		TYPE_CONFIG_STR,

  0008b	a1 00 00 00 00	 mov	 eax, DWORD PTR _CONF_SETTING_LOGIN_USER_NAME
  00090	a3 30 00 00 00	 mov	 DWORD PTR _CONF_SETTING+48, eax
  00095	8b 0d 00 00 00
	00		 mov	 ecx, DWORD PTR _TYPE_CONFIG_STR
  0009b	89 0d 34 00 00
	00		 mov	 DWORD PTR _CONF_SETTING+52, ecx

; 32   : 	CONF_SETTING_LOGIN_PASSWORD,		TYPE_CONFIG_STR,

  000a1	8b 15 00 00 00
	00		 mov	 edx, DWORD PTR _CONF_SETTING_LOGIN_PASSWORD
  000a7	89 15 38 00 00
	00		 mov	 DWORD PTR _CONF_SETTING+56, edx
  000ad	a1 00 00 00 00	 mov	 eax, DWORD PTR _TYPE_CONFIG_STR
  000b2	a3 3c 00 00 00	 mov	 DWORD PTR _CONF_SETTING+60, eax

; 33   : 	CONF_SETTING_NETID,					TYPE_CONFIG_STR,

  000b7	8b 0d 00 00 00
	00		 mov	 ecx, DWORD PTR _CONF_SETTING_NETID
  000bd	89 0d 40 00 00
	00		 mov	 DWORD PTR _CONF_SETTING+64, ecx
  000c3	8b 15 00 00 00
	00		 mov	 edx, DWORD PTR _TYPE_CONFIG_STR
  000c9	89 15 44 00 00
	00		 mov	 DWORD PTR _CONF_SETTING+68, edx

; 34   : 	CONF_SETTING_COLOR,					TYPE_CONFIG_INT,

  000cf	a1 00 00 00 00	 mov	 eax, DWORD PTR _CONF_SETTING_COLOR
  000d4	a3 48 00 00 00	 mov	 DWORD PTR _CONF_SETTING+72, eax
  000d9	8b 0d 00 00 00
	00		 mov	 ecx, DWORD PTR _TYPE_CONFIG_INT
  000df	89 0d 4c 00 00
	00		 mov	 DWORD PTR _CONF_SETTING+76, ecx

; 35   : 	CONF_SETTING_LIGHT,					TYPE_CONFIG_INT,

  000e5	8b 15 00 00 00
	00		 mov	 edx, DWORD PTR _CONF_SETTING_LIGHT
  000eb	89 15 50 00 00
	00		 mov	 DWORD PTR _CONF_SETTING+80, edx
  000f1	a1 00 00 00 00	 mov	 eax, DWORD PTR _TYPE_CONFIG_INT
  000f6	a3 54 00 00 00	 mov	 DWORD PTR _CONF_SETTING+84, eax

; 36   : 	CONF_SETTING_COLOR_BTN_INDEX,		TYPE_CONFIG_INT,

  000fb	8b 0d 00 00 00
	00		 mov	 ecx, DWORD PTR _CONF_SETTING_COLOR_BTN_INDEX
  00101	89 0d 58 00 00
	00		 mov	 DWORD PTR _CONF_SETTING+88, ecx
  00107	8b 15 00 00 00
	00		 mov	 edx, DWORD PTR _TYPE_CONFIG_INT
  0010d	89 15 5c 00 00
	00		 mov	 DWORD PTR _CONF_SETTING+92, edx

; 37   : 	CONF_SETTING_COLOR_USER,			TYPE_CONFIG_INT,

  00113	a1 00 00 00 00	 mov	 eax, DWORD PTR _CONF_SETTING_COLOR_USER
  00118	a3 60 00 00 00	 mov	 DWORD PTR _CONF_SETTING+96, eax
  0011d	8b 0d 00 00 00
	00		 mov	 ecx, DWORD PTR _TYPE_CONFIG_INT
  00123	89 0d 64 00 00
	00		 mov	 DWORD PTR _CONF_SETTING+100, ecx

; 38   : 	CONF_SETTING_FIRST_TIME_CHANGESKIN, TYPE_CONFIG_BOOL

  00129	8b 15 00 00 00
	00		 mov	 edx, DWORD PTR _CONF_SETTING_FIRST_TIME_CHANGESKIN
  0012f	89 15 68 00 00
	00		 mov	 DWORD PTR _CONF_SETTING+104, edx

; 39   : };

  00135	a1 00 00 00 00	 mov	 eax, DWORD PTR _TYPE_CONFIG_BOOL
  0013a	a3 6c 00 00 00	 mov	 DWORD PTR _CONF_SETTING+108, eax
  0013f	5d		 pop	 ebp
  00140	c3		 ret	 0
_$E5	ENDP
text$yc	ENDS
_BSS	SEGMENT
_CONF_SETTING DD 01cH DUP (?)
_BSS	ENDS
END
