; Listing generated by Microsoft (R) Optimizing Compiler Version 13.10.3077 

	TITLE	.\src\module\DownAD\DownAD.cpp
	.386P
include listing.inc
if @Version gt 510
.model FLAT
else
_TEXT	SEGMENT PARA USE32 PUBLIC 'CODE'
_TEXT	ENDS
_DATA	SEGMENT DWORD USE32 PUBLIC 'DATA'
_DATA	ENDS
CONST	SEGMENT DWORD USE32 PUBLIC 'CONST'
CONST	ENDS
_BSS	SEGMENT DWORD USE32 PUBLIC 'BSS'
_BSS	ENDS
$$SYMBOLS	SEGMENT BYTE USE32 'DEBSYM'
$$SYMBOLS	ENDS
_TLS	SEGMENT DWORD USE32 PUBLIC 'TLS'
_TLS	ENDS
;	COMDAT ??_C@_0EN@IBFBLEEG@D?3?2Program?5Files?5?$CIx86?$CJ?2Microsoft@
CONST	SEGMENT DWORD USE32 PUBLIC 'CONST'
CONST	ENDS
;	COMDAT ??_C@_0BD@OLBABOEK@vector?$DMT?$DO?5too?5long?$AA@
CONST	SEGMENT DWORD USE32 PUBLIC 'CONST'
CONST	ENDS
rdata$r	SEGMENT DWORD USE32 PUBLIC 'CONST'
rdata$r	ENDS
xdata$x	SEGMENT DWORD USE32 PUBLIC 'CONST'
xdata$x	ENDS
text$AFX_COL1	SEGMENT PARA USE32 PUBLIC ''
text$AFX_COL1	ENDS
text$yc	SEGMENT PARA USE32 PUBLIC 'CODE'
text$yc	ENDS
CRT$XCA	SEGMENT DWORD USE32 PUBLIC 'DATA'
CRT$XCA	ENDS
CRT$XCU	SEGMENT DWORD USE32 PUBLIC 'DATA'
CRT$XCU	ENDS
CRT$XCL	SEGMENT DWORD USE32 PUBLIC 'DATA'
CRT$XCL	ENDS
CRT$XCC	SEGMENT DWORD USE32 PUBLIC 'DATA'
CRT$XCC	ENDS
CRT$XCZ	SEGMENT DWORD USE32 PUBLIC 'DATA'
CRT$XCZ	ENDS
text$yd	SEGMENT PARA USE32 PUBLIC 'CODE'
text$yd	ENDS
ATL$__m	SEGMENT DWORD USE32 PUBLIC ''
ATL$__m	ENDS
ATL$__z	SEGMENT DWORD USE32 PUBLIC ''
ATL$__z	ENDS
ATL$__a	SEGMENT DWORD USE32 PUBLIC ''
ATL$__a	ENDS
;	COMDAT ?IConfUpdate_Update@IConfUpdateObserver@@UAEXXZ
_TEXT	SEGMENT PARA USE32 PUBLIC 'CODE'
_TEXT	ENDS
;	COMDAT ?IConfUpdate_ConfigFile@IConfUpdateObserver@@UAEXXZ
_TEXT	SEGMENT PARA USE32 PUBLIC 'CODE'
_TEXT	ENDS
;	COMDAT ?IConfUpdate_CodecSucc@IConfUpdateObserver@@UAEXXZ
_TEXT	SEGMENT PARA USE32 PUBLIC 'CODE'
_TEXT	ENDS
;	COMDAT ??1IData@@MAE@XZ
_TEXT	SEGMENT PARA USE32 PUBLIC 'CODE'
_TEXT	ENDS
;	COMDAT ?DataAppStart@IData@@UAEXXZ
_TEXT	SEGMENT PARA USE32 PUBLIC 'CODE'
_TEXT	ENDS
;	COMDAT ?DataAppExit@IData@@UAEXXZ
_TEXT	SEGMENT PARA USE32 PUBLIC 'CODE'
_TEXT	ENDS
;	COMDAT ??_GIData@@MAEPAXI@Z
_TEXT	SEGMENT PARA USE32 PUBLIC 'CODE'
_TEXT	ENDS
;	COMDAT ??1IAdData@@MAE@XZ
_TEXT	SEGMENT PARA USE32 PUBLIC 'CODE'
_TEXT	ENDS
;	COMDAT ??_GIAdData@@MAEPAXI@Z
_TEXT	SEGMENT PARA USE32 PUBLIC 'CODE'
_TEXT	ENDS
;	COMDAT ??_GCDownAD@@UAEPAXI@Z
_TEXT	SEGMENT PARA USE32 PUBLIC 'CODE'
_TEXT	ENDS
;	COMDAT ??0IMessageObserver@@QAE@XZ
_TEXT	SEGMENT PARA USE32 PUBLIC 'CODE'
_TEXT	ENDS
;	COMDAT ??0IConfUpdateObserver@@QAE@XZ
_TEXT	SEGMENT PARA USE32 PUBLIC 'CODE'
_TEXT	ENDS
;	COMDAT ??1IConfUpdateObserver@@UAE@XZ
_TEXT	SEGMENT PARA USE32 PUBLIC 'CODE'
_TEXT	ENDS
;	COMDAT ??0IAdData@@QAE@XZ
_TEXT	SEGMENT PARA USE32 PUBLIC 'CODE'
_TEXT	ENDS
;	COMDAT ??_DCDownAD@@QAEXXZ
_TEXT	SEGMENT PARA USE32 PUBLIC 'CODE'
_TEXT	ENDS
;	COMDAT ??_GIConfUpdateObserver@@UAEPAXI@Z
_TEXT	SEGMENT PARA USE32 PUBLIC 'CODE'
_TEXT	ENDS
;	COMDAT ??0IData@@QAE@XZ
_TEXT	SEGMENT PARA USE32 PUBLIC 'CODE'
_TEXT	ENDS
;	COMDAT ??_DIConfUpdateObserver@@QAEXXZ
_TEXT	SEGMENT PARA USE32 PUBLIC 'CODE'
_TEXT	ENDS
;	COMDAT ??0AD_STRUCT@@QAE@XZ
_TEXT	SEGMENT PARA USE32 PUBLIC 'CODE'
_TEXT	ENDS
;	COMDAT ??1AD_STRUCT@@QAE@XZ
_TEXT	SEGMENT PARA USE32 PUBLIC 'CODE'
_TEXT	ENDS
;	COMDAT ??4AD_STRUCT@@QAEAAU0@ABU0@@Z
_TEXT	SEGMENT PARA USE32 PUBLIC 'CODE'
_TEXT	ENDS
;	COMDAT ??B?$CComPtrBase@UITypeInfo2@@@ATL@@QBEPAUITypeInfo2@@XZ
_TEXT	SEGMENT PARA USE32 PUBLIC 'CODE'
_TEXT	ENDS
;	COMDAT ?equal@?$istreambuf_iterator@DU?$char_traits@D@std@@@std@@QBE_NABV12@@Z
_TEXT	SEGMENT PARA USE32 PUBLIC 'CODE'
_TEXT	ENDS
;	COMDAT ?equal@?$istreambuf_iterator@_WU?$char_traits@_W@std@@@std@@QBE_NABV12@@Z
_TEXT	SEGMENT PARA USE32 PUBLIC 'CODE'
_TEXT	ENDS
;	COMDAT ??0?$vector@UAD_STRUCT@@V?$allocator@UAD_STRUCT@@@std@@@std@@QAE@XZ
_TEXT	SEGMENT PARA USE32 PUBLIC 'CODE'
_TEXT	ENDS
;	COMDAT ??1?$vector@UAD_STRUCT@@V?$allocator@UAD_STRUCT@@@std@@@std@@QAE@XZ
_TEXT	SEGMENT PARA USE32 PUBLIC 'CODE'
_TEXT	ENDS
;	COMDAT ?size@?$vector@UAD_STRUCT@@V?$allocator@UAD_STRUCT@@@std@@@std@@QBEIXZ
_TEXT	SEGMENT PARA USE32 PUBLIC 'CODE'
_TEXT	ENDS
;	COMDAT ??A?$vector@UAD_STRUCT@@V?$allocator@UAD_STRUCT@@@std@@@std@@QAEAAUAD_STRUCT@@I@Z
_TEXT	SEGMENT PARA USE32 PUBLIC 'CODE'
_TEXT	ENDS
;	COMDAT ?push_back@?$vector@UAD_STRUCT@@V?$allocator@UAD_STRUCT@@@std@@@std@@QAEXABUAD_STRUCT@@@Z
_TEXT	SEGMENT PARA USE32 PUBLIC 'CODE'
_TEXT	ENDS
;	COMDAT ?clear@?$vector@UAD_STRUCT@@V?$allocator@UAD_STRUCT@@@std@@@std@@QAEXXZ
_TEXT	SEGMENT PARA USE32 PUBLIC 'CODE'
_TEXT	ENDS
;	COMDAT ??0?$list@PAVIMessageObserver@@V?$allocator@PAVIMessageObserver@@@std@@@std@@QAE@XZ
_TEXT	SEGMENT PARA USE32 PUBLIC 'CODE'
_TEXT	ENDS
;	COMDAT ??1?$list@PAVIMessageObserver@@V?$allocator@PAVIMessageObserver@@@std@@@std@@QAE@XZ
_TEXT	SEGMENT PARA USE32 PUBLIC 'CODE'
_TEXT	ENDS
;	COMDAT ?begin@?$list@PAVIMessageObserver@@V?$allocator@PAVIMessageObserver@@@std@@@std@@QAE?AViterator@12@XZ
_TEXT	SEGMENT PARA USE32 PUBLIC 'CODE'
_TEXT	ENDS
;	COMDAT ?end@?$list@PAVIMessageObserver@@V?$allocator@PAVIMessageObserver@@@std@@@std@@QAE?AViterator@12@XZ
_TEXT	SEGMENT PARA USE32 PUBLIC 'CODE'
_TEXT	ENDS
;	COMDAT ??Diterator@?$list@PAVIMessageObserver@@V?$allocator@PAVIMessageObserver@@@std@@@std@@QBEAAPAVIMessageObserver@@XZ
_TEXT	SEGMENT PARA USE32 PUBLIC 'CODE'
_TEXT	ENDS
;	COMDAT ??Eiterator@?$list@PAVIMessageObserver@@V?$allocator@PAVIMessageObserver@@@std@@@std@@QAE?AV012@H@Z
_TEXT	SEGMENT PARA USE32 PUBLIC 'CODE'
_TEXT	ENDS
;	COMDAT ??9const_iterator@?$list@PAVIMessageObserver@@V?$allocator@PAVIMessageObserver@@@std@@@std@@QBE_NABV012@@Z
_TEXT	SEGMENT PARA USE32 PUBLIC 'CODE'
_TEXT	ENDS
;	COMDAT ??0?$vector@V?$basic_string@DU?$char_traits@D@std@@V?$allocator@D@2@@std@@V?$allocator@V?$basic_string@DU?$char_traits@D@std@@V?$allocator@D@2@@std@@@2@@std@@QAE@XZ
_TEXT	SEGMENT PARA USE32 PUBLIC 'CODE'
_TEXT	ENDS
;	COMDAT ??1?$vector@V?$basic_string@DU?$char_traits@D@std@@V?$allocator@D@2@@std@@V?$allocator@V?$basic_string@DU?$char_traits@D@std@@V?$allocator@D@2@@std@@@2@@std@@QAE@XZ
_TEXT	SEGMENT PARA USE32 PUBLIC 'CODE'
_TEXT	ENDS
;	COMDAT ??0?$allocator@V?$basic_string@DU?$char_traits@D@std@@V?$allocator@D@2@@std@@@std@@QAE@XZ
_TEXT	SEGMENT PARA USE32 PUBLIC 'CODE'
_TEXT	ENDS
;	COMDAT ?capacity@?$vector@UAD_STRUCT@@V?$allocator@UAD_STRUCT@@@std@@@std@@QBEIXZ
_TEXT	SEGMENT PARA USE32 PUBLIC 'CODE'
_TEXT	ENDS
;	COMDAT ?begin@?$vector@UAD_STRUCT@@V?$allocator@UAD_STRUCT@@@std@@@std@@QAE?AViterator@12@XZ
_TEXT	SEGMENT PARA USE32 PUBLIC 'CODE'
_TEXT	ENDS
;	COMDAT ?end@?$vector@UAD_STRUCT@@V?$allocator@UAD_STRUCT@@@std@@@std@@QAE?AViterator@12@XZ
_TEXT	SEGMENT PARA USE32 PUBLIC 'CODE'
_TEXT	ENDS
;	COMDAT ?insert@?$vector@UAD_STRUCT@@V?$allocator@UAD_STRUCT@@@std@@@std@@QAE?AViterator@12@V312@ABUAD_STRUCT@@@Z
_TEXT	SEGMENT PARA USE32 PUBLIC 'CODE'
_TEXT	ENDS
;	COMDAT ?_Buy@?$vector@UAD_STRUCT@@V?$allocator@UAD_STRUCT@@@std@@@std@@IAE_NI@Z
_TEXT	SEGMENT PARA USE32 PUBLIC 'CODE'
_TEXT	ENDS
;	COMDAT ?_Tidy@?$vector@UAD_STRUCT@@V?$allocator@UAD_STRUCT@@@std@@@std@@IAEXXZ
_TEXT	SEGMENT PARA USE32 PUBLIC 'CODE'
_TEXT	ENDS
;	COMDAT ?_Ufill@?$vector@UAD_STRUCT@@V?$allocator@UAD_STRUCT@@@std@@@std@@IAEPAUAD_STRUCT@@PAU3@IABU3@@Z
_TEXT	SEGMENT PARA USE32 PUBLIC 'CODE'
_TEXT	ENDS
;	COMDAT ??0?$_Vector_val@UAD_STRUCT@@V?$allocator@UAD_STRUCT@@@std@@@std@@IAE@V?$allocator@UAD_STRUCT@@@1@@Z
_TEXT	SEGMENT PARA USE32 PUBLIC 'CODE'
_TEXT	ENDS
;	COMDAT ??0?$allocator@UAD_STRUCT@@@std@@QAE@XZ
_TEXT	SEGMENT PARA USE32 PUBLIC 'CODE'
_TEXT	ENDS
;	COMDAT ?_Nextnode@?$list@PAVIMessageObserver@@V?$allocator@PAVIMessageObserver@@@std@@@std@@KAAAPAU_Node@?$_List_nod@PAVIMessageObserver@@V?$allocator@PAVIMessageObserver@@@std@@@2@PAU342@@Z
_TEXT	SEGMENT PARA USE32 PUBLIC 'CODE'
_TEXT	ENDS
;	COMDAT ?_Buynode@?$list@PAVIMessageObserver@@V?$allocator@PAVIMessageObserver@@@std@@@std@@IAEPAU_Node@?$_List_nod@PAVIMessageObserver@@V?$allocator@PAVIMessageObserver@@@std@@@2@XZ
_TEXT	SEGMENT PARA USE32 PUBLIC 'CODE'
_TEXT	ENDS
;	COMDAT ?_Tidy@?$list@PAVIMessageObserver@@V?$allocator@PAVIMessageObserver@@@std@@@std@@IAEXXZ
_TEXT	SEGMENT PARA USE32 PUBLIC 'CODE'
_TEXT	ENDS
;	COMDAT ??0?$_List_val@PAVIMessageObserver@@V?$allocator@PAVIMessageObserver@@@std@@@std@@IAE@V?$allocator@PAVIMessageObserver@@@1@@Z
_TEXT	SEGMENT PARA USE32 PUBLIC 'CODE'
_TEXT	ENDS
;	COMDAT ??0?$allocator@PAVIMessageObserver@@@std@@QAE@XZ
_TEXT	SEGMENT PARA USE32 PUBLIC 'CODE'
_TEXT	ENDS
;	COMDAT ??0iterator@?$list@PAVIMessageObserver@@V?$allocator@PAVIMessageObserver@@@std@@@std@@QAE@PAU_Node@?$_List_nod@PAVIMessageObserver@@V?$allocator@PAVIMessageObserver@@@std@@@2@@Z
_TEXT	SEGMENT PARA USE32 PUBLIC 'CODE'
_TEXT	ENDS
;	COMDAT ??Eiterator@?$list@PAVIMessageObserver@@V?$allocator@PAVIMessageObserver@@@std@@@std@@QAEAAV012@XZ
_TEXT	SEGMENT PARA USE32 PUBLIC 'CODE'
_TEXT	ENDS
;	COMDAT ??Dconst_iterator@?$list@PAVIMessageObserver@@V?$allocator@PAVIMessageObserver@@@std@@@std@@QBEABQAVIMessageObserver@@XZ
_TEXT	SEGMENT PARA USE32 PUBLIC 'CODE'
_TEXT	ENDS
;	COMDAT ??8const_iterator@?$list@PAVIMessageObserver@@V?$allocator@PAVIMessageObserver@@@std@@@std@@QBE_NABV012@@Z
_TEXT	SEGMENT PARA USE32 PUBLIC 'CODE'
_TEXT	ENDS
;	COMDAT ?_Buy@?$vector@V?$basic_string@DU?$char_traits@D@std@@V?$allocator@D@2@@std@@V?$allocator@V?$basic_string@DU?$char_traits@D@std@@V?$allocator@D@2@@std@@@2@@std@@IAE_NI@Z
_TEXT	SEGMENT PARA USE32 PUBLIC 'CODE'
_TEXT	ENDS
;	COMDAT ?_Tidy@?$vector@V?$basic_string@DU?$char_traits@D@std@@V?$allocator@D@2@@std@@V?$allocator@V?$basic_string@DU?$char_traits@D@std@@V?$allocator@D@2@@std@@@2@@std@@IAEXXZ
_TEXT	SEGMENT PARA USE32 PUBLIC 'CODE'
_TEXT	ENDS
;	COMDAT ??0?$_Vector_val@V?$basic_string@DU?$char_traits@D@std@@V?$allocator@D@2@@std@@V?$allocator@V?$basic_string@DU?$char_traits@D@std@@V?$allocator@D@2@@std@@@2@@std@@IAE@V?$allocator@V?$basic_string@DU?$char_traits@D@std@@V?$allocator@D@2@@std@@@1@@Z
_TEXT	SEGMENT PARA USE32 PUBLIC 'CODE'
_TEXT	ENDS
;	COMDAT ??Diterator@?$vector@UAD_STRUCT@@V?$allocator@UAD_STRUCT@@@std@@@std@@QBEAAUAD_STRUCT@@XZ
_TEXT	SEGMENT PARA USE32 PUBLIC 'CODE'
_TEXT	ENDS
;	COMDAT ??Hiterator@?$vector@UAD_STRUCT@@V?$allocator@UAD_STRUCT@@@std@@@std@@QBE?AV012@H@Z
_TEXT	SEGMENT PARA USE32 PUBLIC 'CODE'
_TEXT	ENDS
;	COMDAT ??0?$allocator@V?$basic_string@DU?$char_traits@D@std@@V?$allocator@D@2@@std@@@std@@QAE@ABV01@@Z
_TEXT	SEGMENT PARA USE32 PUBLIC 'CODE'
_TEXT	ENDS
;	COMDAT ?deallocate@?$allocator@V?$basic_string@DU?$char_traits@D@std@@V?$allocator@D@2@@std@@@std@@QAEXPAV?$basic_string@DU?$char_traits@D@std@@V?$allocator@D@2@@2@I@Z
_TEXT	SEGMENT PARA USE32 PUBLIC 'CODE'
_TEXT	ENDS
;	COMDAT ?allocate@?$allocator@V?$basic_string@DU?$char_traits@D@std@@V?$allocator@D@2@@std@@@std@@QAEPAV?$basic_string@DU?$char_traits@D@std@@V?$allocator@D@2@@2@I@Z
_TEXT	SEGMENT PARA USE32 PUBLIC 'CODE'
_TEXT	ENDS
;	COMDAT ?max_size@?$vector@UAD_STRUCT@@V?$allocator@UAD_STRUCT@@@std@@@std@@QBEIXZ
_TEXT	SEGMENT PARA USE32 PUBLIC 'CODE'
_TEXT	ENDS
;	COMDAT ?_Destroy@?$vector@UAD_STRUCT@@V?$allocator@UAD_STRUCT@@@std@@@std@@IAEXPAUAD_STRUCT@@0@Z
_TEXT	SEGMENT PARA USE32 PUBLIC 'CODE'
_TEXT	ENDS
;	COMDAT ?_Insert_n@?$vector@UAD_STRUCT@@V?$allocator@UAD_STRUCT@@@std@@@std@@IAEXViterator@12@IABUAD_STRUCT@@@Z
_TEXT	SEGMENT PARA USE32 PUBLIC 'CODE'
_TEXT	ENDS
;	COMDAT ?_Xlen@?$vector@UAD_STRUCT@@V?$allocator@UAD_STRUCT@@@std@@@std@@IBEXXZ
_TEXT	SEGMENT PARA USE32 PUBLIC 'CODE'
_TEXT	ENDS
;	COMDAT ??0?$allocator@UAD_STRUCT@@@std@@QAE@ABV01@@Z
_TEXT	SEGMENT PARA USE32 PUBLIC 'CODE'
_TEXT	ENDS
;	COMDAT ?deallocate@?$allocator@UAD_STRUCT@@@std@@QAEXPAUAD_STRUCT@@I@Z
_TEXT	SEGMENT PARA USE32 PUBLIC 'CODE'
_TEXT	ENDS
;	COMDAT ?allocate@?$allocator@UAD_STRUCT@@@std@@QAEPAUAD_STRUCT@@I@Z
_TEXT	SEGMENT PARA USE32 PUBLIC 'CODE'
_TEXT	ENDS
;	COMDAT ?_Prevnode@?$list@PAVIMessageObserver@@V?$allocator@PAVIMessageObserver@@@std@@@std@@KAAAPAU_Node@?$_List_nod@PAVIMessageObserver@@V?$allocator@PAVIMessageObserver@@@std@@@2@PAU342@@Z
_TEXT	SEGMENT PARA USE32 PUBLIC 'CODE'
_TEXT	ENDS
;	COMDAT ?_Myval@?$list@PAVIMessageObserver@@V?$allocator@PAVIMessageObserver@@@std@@@std@@KAAAPAVIMessageObserver@@PAU_Node@?$_List_nod@PAVIMessageObserver@@V?$allocator@PAVIMessageObserver@@@std@@@2@@Z
_TEXT	SEGMENT PARA USE32 PUBLIC 'CODE'
_TEXT	ENDS
;	COMDAT ?clear@?$list@PAVIMessageObserver@@V?$allocator@PAVIMessageObserver@@@std@@@std@@QAEXXZ
_TEXT	SEGMENT PARA USE32 PUBLIC 'CODE'
_TEXT	ENDS
;	COMDAT ??0?$_List_ptr@PAVIMessageObserver@@V?$allocator@PAVIMessageObserver@@@std@@@std@@IAE@V?$allocator@PAVIMessageObserver@@@1@@Z
_TEXT	SEGMENT PARA USE32 PUBLIC 'CODE'
_TEXT	ENDS
;	COMDAT ??0?$allocator@PAVIMessageObserver@@@std@@QAE@ABV01@@Z
_TEXT	SEGMENT PARA USE32 PUBLIC 'CODE'
_TEXT	ENDS
;	COMDAT ?deallocate@?$allocator@U_Node@?$_List_nod@PAVIMessageObserver@@V?$allocator@PAVIMessageObserver@@@std@@@std@@@std@@QAEXPAU_Node@?$_List_nod@PAVIMessageObserver@@V?$allocator@PAVIMessageObserver@@@std@@@2@I@Z
_TEXT	SEGMENT PARA USE32 PUBLIC 'CODE'
_TEXT	ENDS
;	COMDAT ?allocate@?$allocator@U_Node@?$_List_nod@PAVIMessageObserver@@V?$allocator@PAVIMessageObserver@@@std@@@std@@@std@@QAEPAU_Node@?$_List_nod@PAVIMessageObserver@@V?$allocator@PAVIMessageObserver@@@std@@@2@I@Z
_TEXT	SEGMENT PARA USE32 PUBLIC 'CODE'
_TEXT	ENDS
;	COMDAT ?construct@?$allocator@PAU_Node@?$_List_nod@PAVIMessageObserver@@V?$allocator@PAVIMessageObserver@@@std@@@std@@@std@@QAEXPAPAU_Node@?$_List_nod@PAVIMessageObserver@@V?$allocator@PAVIMessageObserver@@@std@@@2@ABQAU342@@Z
_TEXT	SEGMENT PARA USE32 PUBLIC 'CODE'
_TEXT	ENDS
;	COMDAT ?destroy@?$allocator@PAU_Node@?$_List_nod@PAVIMessageObserver@@V?$allocator@PAVIMessageObserver@@@std@@@std@@@std@@QAEXPAPAU_Node@?$_List_nod@PAVIMessageObserver@@V?$allocator@PAVIMessageObserver@@@std@@@2@@Z
_TEXT	SEGMENT PARA USE32 PUBLIC 'CODE'
_TEXT	ENDS
;	COMDAT ??0const_iterator@?$list@PAVIMessageObserver@@V?$allocator@PAVIMessageObserver@@@std@@@std@@QAE@PAU_Node@?$_List_nod@PAVIMessageObserver@@V?$allocator@PAVIMessageObserver@@@std@@@2@@Z
_TEXT	SEGMENT PARA USE32 PUBLIC 'CODE'
_TEXT	ENDS
;	COMDAT ??Econst_iterator@?$list@PAVIMessageObserver@@V?$allocator@PAVIMessageObserver@@@std@@@std@@QAEAAV012@XZ
_TEXT	SEGMENT PARA USE32 PUBLIC 'CODE'
_TEXT	ENDS
;	COMDAT ?max_size@?$vector@V?$basic_string@DU?$char_traits@D@std@@V?$allocator@D@2@@std@@V?$allocator@V?$basic_string@DU?$char_traits@D@std@@V?$allocator@D@2@@std@@@2@@std@@QBEIXZ
_TEXT	SEGMENT PARA USE32 PUBLIC 'CODE'
_TEXT	ENDS
;	COMDAT ?_Destroy@?$vector@V?$basic_string@DU?$char_traits@D@std@@V?$allocator@D@2@@std@@V?$allocator@V?$basic_string@DU?$char_traits@D@std@@V?$allocator@D@2@@std@@@2@@std@@IAEXPAV?$basic_string@DU?$char_traits@D@std@@V?$allocator@D@2@@2@0@Z
_TEXT	SEGMENT PARA USE32 PUBLIC 'CODE'
_TEXT	ENDS
;	COMDAT ?_Xlen@?$vector@V?$basic_string@DU?$char_traits@D@std@@V?$allocator@D@2@@std@@V?$allocator@V?$basic_string@DU?$char_traits@D@std@@V?$allocator@D@2@@std@@@2@@std@@IBEXXZ
_TEXT	SEGMENT PARA USE32 PUBLIC 'CODE'
_TEXT	ENDS
;	COMDAT ??0iterator@?$vector@UAD_STRUCT@@V?$allocator@UAD_STRUCT@@@std@@@std@@QAE@PAUAD_STRUCT@@@Z
_TEXT	SEGMENT PARA USE32 PUBLIC 'CODE'
_TEXT	ENDS
;	COMDAT ??Yiterator@?$vector@UAD_STRUCT@@V?$allocator@UAD_STRUCT@@@std@@@std@@QAEAAV012@H@Z
_TEXT	SEGMENT PARA USE32 PUBLIC 'CODE'
_TEXT	ENDS
;	COMDAT ??Giterator@?$vector@UAD_STRUCT@@V?$allocator@UAD_STRUCT@@@std@@@std@@QBEHABVconst_iterator@12@@Z
_TEXT	SEGMENT PARA USE32 PUBLIC 'CODE'
_TEXT	ENDS
;	COMDAT ??Dconst_iterator@?$vector@UAD_STRUCT@@V?$allocator@UAD_STRUCT@@@std@@@std@@QBEABUAD_STRUCT@@XZ
_TEXT	SEGMENT PARA USE32 PUBLIC 'CODE'
_TEXT	ENDS
;	COMDAT ??0AD_STRUCT@@QAE@ABU0@@Z
_TEXT	SEGMENT PARA USE32 PUBLIC 'CODE'
_TEXT	ENDS
;	COMDAT ??0length_error@std@@QAE@ABV01@@Z
_TEXT	SEGMENT PARA USE32 PUBLIC 'CODE'
_TEXT	ENDS
;	COMDAT ?max_size@?$allocator@V?$basic_string@DU?$char_traits@D@std@@V?$allocator@D@2@@std@@@std@@QBEIXZ
_TEXT	SEGMENT PARA USE32 PUBLIC 'CODE'
_TEXT	ENDS
;	COMDAT ?max_size@?$allocator@UAD_STRUCT@@@std@@QBEIXZ
_TEXT	SEGMENT PARA USE32 PUBLIC 'CODE'
_TEXT	ENDS
;	COMDAT ??0?$_List_nod@PAVIMessageObserver@@V?$allocator@PAVIMessageObserver@@@std@@@std@@IAE@V?$allocator@PAVIMessageObserver@@@1@@Z
_TEXT	SEGMENT PARA USE32 PUBLIC 'CODE'
_TEXT	ENDS
;	COMDAT ?destroy@?$allocator@U_Node@?$_List_nod@PAVIMessageObserver@@V?$allocator@PAVIMessageObserver@@@std@@@std@@@std@@QAEXPAU_Node@?$_List_nod@PAVIMessageObserver@@V?$allocator@PAVIMessageObserver@@@std@@@2@@Z
_TEXT	SEGMENT PARA USE32 PUBLIC 'CODE'
_TEXT	ENDS
;	COMDAT ??0const_iterator@?$vector@UAD_STRUCT@@V?$allocator@UAD_STRUCT@@@std@@@std@@QAE@PAUAD_STRUCT@@@Z
_TEXT	SEGMENT PARA USE32 PUBLIC 'CODE'
_TEXT	ENDS
;	COMDAT ??Gconst_iterator@?$vector@UAD_STRUCT@@V?$allocator@UAD_STRUCT@@@std@@@std@@QBEHABV012@@Z
_TEXT	SEGMENT PARA USE32 PUBLIC 'CODE'
_TEXT	ENDS
;	COMDAT ?Unlock@?$CComCritSecLock@VCComCriticalSection@ATL@@@ATL@@QAEXXZ
_TEXT	SEGMENT PARA USE32 PUBLIC 'CODE'
_TEXT	ENDS
;	COMDAT ??$_Uninitialized_fill_n@PAUAD_STRUCT@@IU1@V?$allocator@UAD_STRUCT@@@std@@@std@@YAXPAUAD_STRUCT@@IABU1@AAV?$allocator@UAD_STRUCT@@@0@@Z
_TEXT	SEGMENT PARA USE32 PUBLIC 'CODE'
_TEXT	ENDS
;	COMDAT ??$_Maklocstr@D@std@@YAPADPBDPADABU_Cvtvec@@@Z
_TEXT	SEGMENT PARA USE32 PUBLIC 'CODE'
_TEXT	ENDS
;	COMDAT ??$_Allocate@V?$basic_string@DU?$char_traits@D@std@@V?$allocator@D@2@@std@@@std@@YAPAV?$basic_string@DU?$char_traits@D@std@@V?$allocator@D@2@@0@IPAV10@@Z
_TEXT	SEGMENT PARA USE32 PUBLIC 'CODE'
_TEXT	ENDS
;	COMDAT ??$_Destroy_range@UAD_STRUCT@@V?$allocator@UAD_STRUCT@@@std@@@std@@YAXPAUAD_STRUCT@@0AAV?$allocator@UAD_STRUCT@@@0@@Z
_TEXT	SEGMENT PARA USE32 PUBLIC 'CODE'
_TEXT	ENDS
;	COMDAT ??$_Ucopy@PAUAD_STRUCT@@@?$vector@UAD_STRUCT@@V?$allocator@UAD_STRUCT@@@std@@@std@@IAEPAUAD_STRUCT@@PAU2@00@Z
_TEXT	SEGMENT PARA USE32 PUBLIC 'CODE'
_TEXT	ENDS
;	COMDAT ??$fill@PAUAD_STRUCT@@U1@@std@@YAXPAUAD_STRUCT@@0ABU1@@Z
_TEXT	SEGMENT PARA USE32 PUBLIC 'CODE'
_TEXT	ENDS
;	COMDAT ??$copy_backward@PAUAD_STRUCT@@PAU1@@std@@YAPAUAD_STRUCT@@PAU1@00@Z
_TEXT	SEGMENT PARA USE32 PUBLIC 'CODE'
_TEXT	ENDS
;	COMDAT ??$_Allocate@UAD_STRUCT@@@std@@YAPAUAD_STRUCT@@IPAU1@@Z
_TEXT	SEGMENT PARA USE32 PUBLIC 'CODE'
_TEXT	ENDS
;	COMDAT ??$?0PAVIMessageObserver@@@?$allocator@PAU_Node@?$_List_nod@PAVIMessageObserver@@V?$allocator@PAVIMessageObserver@@@std@@@std@@@std@@QAE@ABV?$allocator@PAVIMessageObserver@@@1@@Z
_TEXT	SEGMENT PARA USE32 PUBLIC 'CODE'
_TEXT	ENDS
;	COMDAT ??$_Allocate@U_Node@?$_List_nod@PAVIMessageObserver@@V?$allocator@PAVIMessageObserver@@@std@@@std@@@std@@YAPAU_Node@?$_List_nod@PAVIMessageObserver@@V?$allocator@PAVIMessageObserver@@@std@@@0@IPAU120@@Z
_TEXT	SEGMENT PARA USE32 PUBLIC 'CODE'
_TEXT	ENDS
;	COMDAT ??$_Construct@PAU_Node@?$_List_nod@PAVIMessageObserver@@V?$allocator@PAVIMessageObserver@@@std@@@std@@PAU123@@std@@YAXPAPAU_Node@?$_List_nod@PAVIMessageObserver@@V?$allocator@PAVIMessageObserver@@@std@@@0@ABQAU120@@Z
_TEXT	SEGMENT PARA USE32 PUBLIC 'CODE'
_TEXT	ENDS
;	COMDAT ??$_Destroy@PAU_Node@?$_List_nod@PAVIMessageObserver@@V?$allocator@PAVIMessageObserver@@@std@@@std@@@std@@YAXPAPAU_Node@?$_List_nod@PAVIMessageObserver@@V?$allocator@PAVIMessageObserver@@@std@@@0@@Z
_TEXT	SEGMENT PARA USE32 PUBLIC 'CODE'
_TEXT	ENDS
;	COMDAT ??$_Destroy_range@V?$basic_string@DU?$char_traits@D@std@@V?$allocator@D@2@@std@@V?$allocator@V?$basic_string@DU?$char_traits@D@std@@V?$allocator@D@2@@std@@@2@@std@@YAXPAV?$basic_string@DU?$char_traits@D@std@@V?$allocator@D@2@@0@0AAV?$allocator@V?$basic_string@DU?$char_traits@D@std@@V?$allocator@D@2@@std@@@0@@Z
_TEXT	SEGMENT PARA USE32 PUBLIC 'CODE'
_TEXT	ENDS
;	COMDAT ??$?0PAVIMessageObserver@@@?$allocator@U_Node@?$_List_nod@PAVIMessageObserver@@V?$allocator@PAVIMessageObserver@@@std@@@std@@@std@@QAE@ABV?$allocator@PAVIMessageObserver@@@1@@Z
_TEXT	SEGMENT PARA USE32 PUBLIC 'CODE'
_TEXT	ENDS
;	COMDAT ??$_Destroy@U_Node@?$_List_nod@PAVIMessageObserver@@V?$allocator@PAVIMessageObserver@@@std@@@std@@@std@@YAXPAU_Node@?$_List_nod@PAVIMessageObserver@@V?$allocator@PAVIMessageObserver@@@std@@@0@@Z
_TEXT	SEGMENT PARA USE32 PUBLIC 'CODE'
_TEXT	ENDS
;	COMDAT ??$_Ptr_cat@PAUAD_STRUCT@@PAU1@@std@@YA?AU_Nonscalar_ptr_iterator_tag@0@AAPAUAD_STRUCT@@0@Z
_TEXT	SEGMENT PARA USE32 PUBLIC 'CODE'
_TEXT	ENDS
;	COMDAT ??$_Uninit_fill_n@PAUAD_STRUCT@@IU1@V?$allocator@UAD_STRUCT@@@std@@@std@@YAXPAUAD_STRUCT@@IABU1@AAV?$allocator@UAD_STRUCT@@@0@U_Nonscalar_ptr_iterator_tag@0@@Z
_TEXT	SEGMENT PARA USE32 PUBLIC 'CODE'
_TEXT	ENDS
;	COMDAT ??$_Destroy_range@UAD_STRUCT@@V?$allocator@UAD_STRUCT@@@std@@@std@@YAXPAUAD_STRUCT@@0AAV?$allocator@UAD_STRUCT@@@0@U_Nonscalar_ptr_iterator_tag@0@@Z
_TEXT	SEGMENT PARA USE32 PUBLIC 'CODE'
_TEXT	ENDS
;	COMDAT ??$_Uninitialized_copy@PAUAD_STRUCT@@PAU1@V?$allocator@UAD_STRUCT@@@std@@@std@@YAPAUAD_STRUCT@@PAU1@00AAV?$allocator@UAD_STRUCT@@@0@@Z
_TEXT	SEGMENT PARA USE32 PUBLIC 'CODE'
_TEXT	ENDS
;	COMDAT ??$_Copy_backward_opt@PAUAD_STRUCT@@PAU1@@std@@YAPAUAD_STRUCT@@PAU1@00U_Nonscalar_ptr_iterator_tag@0@@Z
_TEXT	SEGMENT PARA USE32 PUBLIC 'CODE'
_TEXT	ENDS
;	COMDAT ??$_Ptr_cat@PAV?$basic_string@DU?$char_traits@D@std@@V?$allocator@D@2@@std@@PAV12@@std@@YA?AU_Nonscalar_ptr_iterator_tag@0@AAPAV?$basic_string@DU?$char_traits@D@std@@V?$allocator@D@2@@0@0@Z
_TEXT	SEGMENT PARA USE32 PUBLIC 'CODE'
_TEXT	ENDS
;	COMDAT ??$_Destroy_range@V?$basic_string@DU?$char_traits@D@std@@V?$allocator@D@2@@std@@V?$allocator@V?$basic_string@DU?$char_traits@D@std@@V?$allocator@D@2@@std@@@2@@std@@YAXPAV?$basic_string@DU?$char_traits@D@std@@V?$allocator@D@2@@0@0AAV?$allocator@V?$basic_string@DU?$char_traits@D@std@@V?$allocator@D@2@@std@@@0@U_Nonscalar_ptr_iterator_tag@0@@Z
_TEXT	SEGMENT PARA USE32 PUBLIC 'CODE'
_TEXT	ENDS
;	COMDAT ?destroy@?$allocator@V?$basic_string@DU?$char_traits@D@std@@V?$allocator@D@2@@std@@@std@@QAEXPAV?$basic_string@DU?$char_traits@D@std@@V?$allocator@D@2@@2@@Z
_TEXT	SEGMENT PARA USE32 PUBLIC 'CODE'
_TEXT	ENDS
;	COMDAT ?construct@?$allocator@UAD_STRUCT@@@std@@QAEXPAUAD_STRUCT@@ABU3@@Z
_TEXT	SEGMENT PARA USE32 PUBLIC 'CODE'
_TEXT	ENDS
;	COMDAT ?destroy@?$allocator@UAD_STRUCT@@@std@@QAEXPAUAD_STRUCT@@@Z
_TEXT	SEGMENT PARA USE32 PUBLIC 'CODE'
_TEXT	ENDS
;	COMDAT ??$_Uninit_copy@PAUAD_STRUCT@@PAU1@V?$allocator@UAD_STRUCT@@@std@@@std@@YAPAUAD_STRUCT@@PAU1@00AAV?$allocator@UAD_STRUCT@@@0@U_Nonscalar_ptr_iterator_tag@0@@Z
_TEXT	SEGMENT PARA USE32 PUBLIC 'CODE'
_TEXT	ENDS
;	COMDAT ??$_Destroy@V?$basic_string@DU?$char_traits@D@std@@V?$allocator@D@2@@std@@@std@@YAXPAV?$basic_string@DU?$char_traits@D@std@@V?$allocator@D@2@@0@@Z
_TEXT	SEGMENT PARA USE32 PUBLIC 'CODE'
_TEXT	ENDS
;	COMDAT ??$_Construct@UAD_STRUCT@@U1@@std@@YAXPAUAD_STRUCT@@ABU1@@Z
_TEXT	SEGMENT PARA USE32 PUBLIC 'CODE'
_TEXT	ENDS
;	COMDAT ??$_Destroy@UAD_STRUCT@@@std@@YAXPAUAD_STRUCT@@@Z
_TEXT	SEGMENT PARA USE32 PUBLIC 'CODE'
_TEXT	ENDS
;	COMDAT ??_G?$basic_string@DU?$char_traits@D@std@@V?$allocator@D@2@@std@@QAEPAXI@Z
_TEXT	SEGMENT PARA USE32 PUBLIC 'CODE'
_TEXT	ENDS
;	COMDAT ??_GAD_STRUCT@@QAEPAXI@Z
_TEXT	SEGMENT PARA USE32 PUBLIC 'CODE'
_TEXT	ENDS
;	COMDAT ??_ECDownAD@@W7AEPAXI@Z
_TEXT	SEGMENT PARA USE32 PUBLIC 'CODE'
_TEXT	ENDS
;	COMDAT ??_ECDownAD@@WCI@AEPAXI@Z
_TEXT	SEGMENT PARA USE32 PUBLIC 'CODE'
_TEXT	ENDS
;	COMDAT ??_R3IConfUpdateObserver@@8
rdata$r	SEGMENT DWORD USE32 PUBLIC 'CONST'
rdata$r	ENDS
;	COMDAT ??_R3?$numpunct@_W@std@@8
rdata$r	SEGMENT DWORD USE32 PUBLIC 'CONST'
rdata$r	ENDS
;	COMDAT ??_R3?$numpunct@D@std@@8
rdata$r	SEGMENT DWORD USE32 PUBLIC 'CONST'
rdata$r	ENDS
;	COMDAT ??_R3IData@@8
rdata$r	SEGMENT DWORD USE32 PUBLIC 'CONST'
rdata$r	ENDS
;	COMDAT ??_R3CDownAD@@8
rdata$r	SEGMENT DWORD USE32 PUBLIC 'CONST'
rdata$r	ENDS
;	COMDAT ??_R3IAdData@@8
rdata$r	SEGMENT DWORD USE32 PUBLIC 'CONST'
rdata$r	ENDS
;	COMDAT ??_R2IConfUpdateObserver@@8
rdata$r	SEGMENT DWORD USE32 PUBLIC 'CONST'
rdata$r	ENDS
;	COMDAT ??_R2?$numpunct@_W@std@@8
rdata$r	SEGMENT DWORD USE32 PUBLIC 'CONST'
rdata$r	ENDS
;	COMDAT ??_R2?$numpunct@D@std@@8
rdata$r	SEGMENT DWORD USE32 PUBLIC 'CONST'
rdata$r	ENDS
;	COMDAT ??_R2IData@@8
rdata$r	SEGMENT DWORD USE32 PUBLIC 'CONST'
rdata$r	ENDS
;	COMDAT ??_R2CDownAD@@8
rdata$r	SEGMENT DWORD USE32 PUBLIC 'CONST'
rdata$r	ENDS
;	COMDAT ??_R2IAdData@@8
rdata$r	SEGMENT DWORD USE32 PUBLIC 'CONST'
rdata$r	ENDS
;	COMDAT ??_R1A@?0A@A@?$numpunct@_W@std@@8
rdata$r	SEGMENT DWORD USE32 PUBLIC 'CONST'
rdata$r	ENDS
;	COMDAT ??_R1A@?0A@A@facet@locale@std@@8
rdata$r	SEGMENT DWORD USE32 PUBLIC 'CONST'
rdata$r	ENDS
;	COMDAT ??_R0?AVfacet@locale@std@@@8
_DATA	SEGMENT DWORD USE32 PUBLIC 'DATA'
_DATA	ENDS
;	COMDAT ??_R1A@?0A@A@?$numpunct@D@std@@8
rdata$r	SEGMENT DWORD USE32 PUBLIC 'CONST'
rdata$r	ENDS
;	COMDAT ??_R17?0A@A@IData@@8
rdata$r	SEGMENT DWORD USE32 PUBLIC 'CONST'
rdata$r	ENDS
;	COMDAT ??_R17?0A@A@IAdData@@8
rdata$r	SEGMENT DWORD USE32 PUBLIC 'CONST'
rdata$r	ENDS
;	COMDAT ??_R1A@33BA@IMessageObserver@@8
rdata$r	SEGMENT DWORD USE32 PUBLIC 'CONST'
rdata$r	ENDS
;	COMDAT ??_R1A@?0A@A@IConfUpdateObserver@@8
rdata$r	SEGMENT DWORD USE32 PUBLIC 'CONST'
rdata$r	ENDS
;	COMDAT ??_R1A@?0A@A@CDownAD@@8
rdata$r	SEGMENT DWORD USE32 PUBLIC 'CONST'
rdata$r	ENDS
;	COMDAT ??_R1A@?0A@A@IData@@8
rdata$r	SEGMENT DWORD USE32 PUBLIC 'CONST'
rdata$r	ENDS
;	COMDAT ??_R1A@?0A@A@IAdData@@8
rdata$r	SEGMENT DWORD USE32 PUBLIC 'CONST'
rdata$r	ENDS
;	COMDAT ??_R0?AV?$numpunct@_W@std@@@8
_DATA	SEGMENT DWORD USE32 PUBLIC 'DATA'
_DATA	ENDS
;	COMDAT ??_R0?AV?$numpunct@D@std@@@8
_DATA	SEGMENT DWORD USE32 PUBLIC 'DATA'
_DATA	ENDS
;	COMDAT ??_R0?AVIConfUpdateObserver@@@8
_DATA	SEGMENT DWORD USE32 PUBLIC 'DATA'
_DATA	ENDS
;	COMDAT ??_R0?AVCDownAD@@@8
_DATA	SEGMENT DWORD USE32 PUBLIC 'DATA'
_DATA	ENDS
;	COMDAT ??_R0?AVIData@@@8
_DATA	SEGMENT DWORD USE32 PUBLIC 'DATA'
_DATA	ENDS
;	COMDAT ??_R0?AVIAdData@@@8
_DATA	SEGMENT DWORD USE32 PUBLIC 'DATA'
_DATA	ENDS
;	COMDAT ??_R4IConfUpdateObserver@@6BIMessageObserver@@@
rdata$r	SEGMENT DWORD USE32 PUBLIC 'CONST'
rdata$r	ENDS
;	COMDAT ??_R4IConfUpdateObserver@@6B0@@
rdata$r	SEGMENT DWORD USE32 PUBLIC 'CONST'
rdata$r	ENDS
;	COMDAT ??0?$allocator@_W@std@@QAE@XZ
_TEXT	SEGMENT PARA USE32 PUBLIC 'CODE'
_TEXT	ENDS
;	COMDAT ??_G?$numpunct@_W@std@@MAEPAXI@Z
_TEXT	SEGMENT PARA USE32 PUBLIC 'CODE'
_TEXT	ENDS
;	COMDAT ??_R4?$numpunct@_W@std@@6B@
rdata$r	SEGMENT DWORD USE32 PUBLIC 'CONST'
rdata$r	ENDS
;	COMDAT ??_G?$numpunct@D@std@@MAEPAXI@Z
_TEXT	SEGMENT PARA USE32 PUBLIC 'CODE'
_TEXT	ENDS
;	COMDAT ??_R4?$numpunct@D@std@@6B@
rdata$r	SEGMENT DWORD USE32 PUBLIC 'CONST'
rdata$r	ENDS
;	COMDAT ??_R4IData@@6B@
rdata$r	SEGMENT DWORD USE32 PUBLIC 'CONST'
rdata$r	ENDS
;	COMDAT ??_R4CDownAD@@6BIMessageObserver@@@
rdata$r	SEGMENT DWORD USE32 PUBLIC 'CONST'
rdata$r	ENDS
;	COMDAT ??_R4CDownAD@@6B@
rdata$r	SEGMENT DWORD USE32 PUBLIC 'CONST'
rdata$r	ENDS
;	COMDAT ??_R4CDownAD@@6BIConfUpdateObserver@@@
rdata$r	SEGMENT DWORD USE32 PUBLIC 'CONST'
rdata$r	ENDS
;	COMDAT ??_R4IAdData@@6B@
rdata$r	SEGMENT DWORD USE32 PUBLIC 'CONST'
rdata$r	ENDS
;	COMDAT ??3@YAXPAX0@Z
_TEXT	SEGMENT PARA USE32 PUBLIC 'CODE'
_TEXT	ENDS
;	COMDAT ??2@YAPAXIPAX@Z
_TEXT	SEGMENT PARA USE32 PUBLIC 'CODE'
_TEXT	ENDS
;	COMDAT ??_C@_0EN@CBMLGOH@D?3?2Program?5Files?5?$CIx86?$CJ?2Microsoft@
CONST	SEGMENT DWORD USE32 PUBLIC 'CONST'
CONST	ENDS
;	COMDAT ?_Psave@?$_Facetptr@V?$numpunct@_W@std@@@std@@2PBVfacet@locale@2@B
_DATA	SEGMENT DWORD USE32 PUBLIC 'DATA'
_DATA	ENDS
;	COMDAT ?_Psave@?$_Facetptr@V?$numpunct@D@std@@@std@@2PBVfacet@locale@2@B
_DATA	SEGMENT DWORD USE32 PUBLIC 'DATA'
_DATA	ENDS
;	COMDAT ?Unlock@CComCriticalSection@ATL@@QAEJXZ
_TEXT	SEGMENT PARA USE32 PUBLIC 'CODE'
_TEXT	ENDS
;	COMDAT ??_C@_0FG@LDNDNCJM@D?3?2Program?5Files?5?$CIx86?$CJ?2Microsoft@
CONST	SEGMENT DWORD USE32 PUBLIC 'CONST'
CONST	ENDS
;	COMDAT ??_C@_09HIEJFN@m_bLocked?$AA@
CONST	SEGMENT DWORD USE32 PUBLIC 'CONST'
CONST	ENDS
;	COMDAT ?_Psave@?$_Facetptr@V?$ctype@_W@std@@@std@@2PBVfacet@locale@2@B
_DATA	SEGMENT DWORD USE32 PUBLIC 'DATA'
_DATA	ENDS
;	COMDAT ?_Psave@?$_Facetptr@V?$ctype@D@std@@@std@@2PBVfacet@locale@2@B
_DATA	SEGMENT DWORD USE32 PUBLIC 'DATA'
_DATA	ENDS
;	COMDAT ??_7length_error@std@@6B@
CONST	SEGMENT DWORD USE32 PUBLIC 'CONST'
CONST	ENDS
;	COMDAT ??_R4length_error@std@@6B@
rdata$r	SEGMENT DWORD USE32 PUBLIC 'CONST'
rdata$r	ENDS
;	COMDAT ??_R3length_error@std@@8
rdata$r	SEGMENT DWORD USE32 PUBLIC 'CONST'
rdata$r	ENDS
;	COMDAT ??_R2length_error@std@@8
rdata$r	SEGMENT DWORD USE32 PUBLIC 'CONST'
rdata$r	ENDS
;	COMDAT ??_R1A@?0A@A@length_error@std@@8
rdata$r	SEGMENT DWORD USE32 PUBLIC 'CONST'
rdata$r	ENDS
;	COMDAT ??_R1A@?0A@A@logic_error@std@@8
rdata$r	SEGMENT DWORD USE32 PUBLIC 'CONST'
rdata$r	ENDS
;	COMDAT ??_R0?AVlogic_error@std@@@8
_DATA	SEGMENT DWORD USE32 PUBLIC 'DATA'
_DATA	ENDS
;	COMDAT ??_R1A@?0A@A@exception@@8
rdata$r	SEGMENT DWORD USE32 PUBLIC 'CONST'
rdata$r	ENDS
;	COMDAT ??_R0?AVexception@@@8
_DATA	SEGMENT DWORD USE32 PUBLIC 'DATA'
_DATA	ENDS
;	COMDAT ??_Glength_error@std@@UAEPAXI@Z
_TEXT	SEGMENT PARA USE32 PUBLIC 'CODE'
_TEXT	ENDS
;	COMDAT ?what@logic_error@std@@UBEPBDXZ
_TEXT	SEGMENT PARA USE32 PUBLIC 'CODE'
_TEXT	ENDS
;	COMDAT ??1logic_error@std@@UAE@XZ
_TEXT	SEGMENT PARA USE32 PUBLIC 'CODE'
_TEXT	ENDS
;	COMDAT ??_7logic_error@std@@6B@
CONST	SEGMENT DWORD USE32 PUBLIC 'CONST'
CONST	ENDS
;	COMDAT ??_R4logic_error@std@@6B@
rdata$r	SEGMENT DWORD USE32 PUBLIC 'CONST'
rdata$r	ENDS
;	COMDAT ??_R3logic_error@std@@8
rdata$r	SEGMENT DWORD USE32 PUBLIC 'CONST'
rdata$r	ENDS
;	COMDAT ??_R2logic_error@std@@8
rdata$r	SEGMENT DWORD USE32 PUBLIC 'CONST'
rdata$r	ENDS
;	COMDAT ??_Glogic_error@std@@UAEPAXI@Z
_TEXT	SEGMENT PARA USE32 PUBLIC 'CODE'
_TEXT	ENDS
;	COMDAT ??0logic_error@std@@QAE@ABV01@@Z
_TEXT	SEGMENT PARA USE32 PUBLIC 'CODE'
_TEXT	ENDS
;	COMDAT ??0?$allocator@D@std@@QAE@ABV01@@Z
_TEXT	SEGMENT PARA USE32 PUBLIC 'CODE'
_TEXT	ENDS
;	COMDAT ?deallocate@?$allocator@D@std@@QAEXPADI@Z
_TEXT	SEGMENT PARA USE32 PUBLIC 'CODE'
_TEXT	ENDS
;	COMDAT ?max_size@?$allocator@D@std@@QBEIXZ
_TEXT	SEGMENT PARA USE32 PUBLIC 'CODE'
_TEXT	ENDS
;	COMDAT ?allocate@?$allocator@D@std@@QAEPADI@Z
_TEXT	SEGMENT PARA USE32 PUBLIC 'CODE'
_TEXT	ENDS
;	COMDAT ??$_Allocate@D@std@@YAPADIPAD@Z
_TEXT	SEGMENT PARA USE32 PUBLIC 'CODE'
_TEXT	ENDS
;	COMDAT __CTA3?AVlength_error@std@@
xdata$x	SEGMENT DWORD USE32 PUBLIC 'CONST'
xdata$x	ENDS
;	COMDAT ??1length_error@std@@UAE@XZ
_TEXT	SEGMENT PARA USE32 PUBLIC 'CODE'
_TEXT	ENDS
;	COMDAT __CT??_R0?AVexception@@@8??0exception@@QAE@ABV0@@Z12
xdata$x	SEGMENT DWORD USE32 PUBLIC 'CONST'
xdata$x	ENDS
;	COMDAT __CT??_R0?AVlogic_error@std@@@8??0logic_error@std@@QAE@ABV01@@Z40
xdata$x	SEGMENT DWORD USE32 PUBLIC 'CONST'
xdata$x	ENDS
;	COMDAT __CT??_R0?AVlength_error@std@@@8??0length_error@std@@QAE@ABV01@@Z40
xdata$x	SEGMENT DWORD USE32 PUBLIC 'CONST'
xdata$x	ENDS
;	COMDAT ??_R0?AVlength_error@std@@@8
_DATA	SEGMENT DWORD USE32 PUBLIC 'DATA'
_DATA	ENDS
;	COMDAT __TI3?AVlength_error@std@@
xdata$x	SEGMENT DWORD USE32 PUBLIC 'CONST'
xdata$x	ENDS
;	COMDAT ??0length_error@std@@QAE@ABV?$basic_string@DU?$char_traits@D@std@@V?$allocator@D@2@@1@@Z
_TEXT	SEGMENT PARA USE32 PUBLIC 'CODE'
_TEXT	ENDS
;	COMDAT ??0logic_error@std@@QAE@ABV?$basic_string@DU?$char_traits@D@std@@V?$allocator@D@2@@1@@Z
_TEXT	SEGMENT PARA USE32 PUBLIC 'CODE'
_TEXT	ENDS
;	COMDAT ??$_Maklocchr@_W@std@@YA_WDPA_WABU_Cvtvec@@@Z
_TEXT	SEGMENT PARA USE32 PUBLIC 'CODE'
_TEXT	ENDS
;	COMDAT ??$_DebugHeapDelete@X@std@@YAXPAX@Z
_TEXT	SEGMENT PARA USE32 PUBLIC 'CODE'
_TEXT	ENDS
;	COMDAT ??$_Maklocstr@_W@std@@YAPA_WPBDPA_WABU_Cvtvec@@@Z
_TEXT	SEGMENT PARA USE32 PUBLIC 'CODE'
_TEXT	ENDS
;	COMDAT ??$_Maklocchr@D@std@@YADDPADABU_Cvtvec@@@Z
_TEXT	SEGMENT PARA USE32 PUBLIC 'CODE'
_TEXT	ENDS
;	COMDAT ??_C@_04LOAJBDKD@true?$AA@
CONST	SEGMENT DWORD USE32 PUBLIC 'CONST'
CONST	ENDS
;	COMDAT ??_C@_05LAPONLG@false?$AA@
CONST	SEGMENT DWORD USE32 PUBLIC 'CONST'
CONST	ENDS
;	COMDAT _wmemcpy
_TEXT	SEGMENT PARA USE32 PUBLIC 'CODE'
_TEXT	ENDS
;	COMDAT ?max_size@?$allocator@_W@std@@QBEIXZ
_TEXT	SEGMENT PARA USE32 PUBLIC 'CODE'
_TEXT	ENDS
;	COMDAT ?allocate@?$allocator@_W@std@@QAEPA_WI@Z
_TEXT	SEGMENT PARA USE32 PUBLIC 'CODE'
_TEXT	ENDS
;	COMDAT ??$_Allocate@_W@std@@YAPA_WIPA_W@Z
_TEXT	SEGMENT PARA USE32 PUBLIC 'CODE'
_TEXT	ENDS
;	COMDAT ??_C@_01GFHCPBMG@C?$AA@
CONST	SEGMENT DWORD USE32 PUBLIC 'CONST'
CONST	ENDS
;	COMDAT ?_Peek@?$istreambuf_iterator@_WU?$char_traits@_W@std@@@std@@AAE_WXZ
_TEXT	SEGMENT PARA USE32 PUBLIC 'CODE'
_TEXT	ENDS
;	COMDAT ?_Peek@?$istreambuf_iterator@DU?$char_traits@D@std@@@std@@AAEDXZ
_TEXT	SEGMENT PARA USE32 PUBLIC 'CODE'
_TEXT	ENDS
;	COMDAT ??$use_facet@V?$ctype@_W@std@@@std@@YAABV?$ctype@_W@0@ABVlocale@0@@Z
_TEXT	SEGMENT PARA USE32 PUBLIC 'CODE'
_TEXT	ENDS
;	COMDAT ??_S?$ctype@_W@std@@6B@
CONST	SEGMENT DWORD USE32 PUBLIC 'CONST'
CONST	ENDS
;	COMDAT ??_R4?$ctype@_W@std@@6B@
rdata$r	SEGMENT DWORD USE32 PUBLIC 'CONST'
rdata$r	ENDS
;	COMDAT ??_R0?AV?$ctype@_W@std@@@8
_DATA	SEGMENT DWORD USE32 PUBLIC 'DATA'
_DATA	ENDS
;	COMDAT ??_R3?$ctype@_W@std@@8
rdata$r	SEGMENT DWORD USE32 PUBLIC 'CONST'
rdata$r	ENDS
;	COMDAT ??_R2?$ctype@_W@std@@8
rdata$r	SEGMENT DWORD USE32 PUBLIC 'CONST'
rdata$r	ENDS
;	COMDAT ??_R1A@?0A@A@?$ctype@_W@std@@8
rdata$r	SEGMENT DWORD USE32 PUBLIC 'CONST'
rdata$r	ENDS
;	COMDAT ??_R1A@?0A@A@ctype_base@std@@8
rdata$r	SEGMENT DWORD USE32 PUBLIC 'CONST'
rdata$r	ENDS
;	COMDAT ??_R0?AUctype_base@std@@@8
_DATA	SEGMENT DWORD USE32 PUBLIC 'DATA'
_DATA	ENDS
;	COMDAT ??_G?$ctype@_W@std@@MAEPAXI@Z
_TEXT	SEGMENT PARA USE32 PUBLIC 'CODE'
_TEXT	ENDS
;	COMDAT ??_C@_08EPJLHIJG@bad?5cast?$AA@
CONST	SEGMENT DWORD USE32 PUBLIC 'CONST'
CONST	ENDS
;	COMDAT __TI2?AVbad_cast@@
xdata$x	SEGMENT DWORD USE32 PUBLIC 'CONST'
xdata$x	ENDS
;	COMDAT __CTA2?AVbad_cast@@
xdata$x	SEGMENT DWORD USE32 PUBLIC 'CONST'
xdata$x	ENDS
;	COMDAT __CT??_R0?AVbad_cast@@@8??0bad_cast@@QAE@ABV0@@Z12
xdata$x	SEGMENT DWORD USE32 PUBLIC 'CONST'
xdata$x	ENDS
;	COMDAT ??_R0?AVbad_cast@@@8
_DATA	SEGMENT DWORD USE32 PUBLIC 'DATA'
_DATA	ENDS
;	COMDAT ??$_DebugHeapDelete@Vfacet@locale@std@@@std@@YAXPAVfacet@locale@0@@Z
_TEXT	SEGMENT PARA USE32 PUBLIC 'CODE'
_TEXT	ENDS
;	COMDAT ??$use_facet@V?$ctype@D@std@@@std@@YAABV?$ctype@D@0@ABVlocale@0@@Z
_TEXT	SEGMENT PARA USE32 PUBLIC 'CODE'
_TEXT	ENDS
;	COMDAT ??_S?$ctype@D@std@@6B@
CONST	SEGMENT DWORD USE32 PUBLIC 'CONST'
CONST	ENDS
;	COMDAT ??_R4?$ctype@D@std@@6B@
rdata$r	SEGMENT DWORD USE32 PUBLIC 'CONST'
rdata$r	ENDS
;	COMDAT ??_R0?AV?$ctype@D@std@@@8
_DATA	SEGMENT DWORD USE32 PUBLIC 'DATA'
_DATA	ENDS
;	COMDAT ??_R3?$ctype@D@std@@8
rdata$r	SEGMENT DWORD USE32 PUBLIC 'CONST'
rdata$r	ENDS
;	COMDAT ??_R2?$ctype@D@std@@8
rdata$r	SEGMENT DWORD USE32 PUBLIC 'CONST'
rdata$r	ENDS
;	COMDAT ??_R1A@?0A@A@?$ctype@D@std@@8
rdata$r	SEGMENT DWORD USE32 PUBLIC 'CONST'
rdata$r	ENDS
;	COMDAT ??_G?$ctype@D@std@@MAEPAXI@Z
_TEXT	SEGMENT PARA USE32 PUBLIC 'CODE'
_TEXT	ENDS
;	COMDAT ??_S?$numpunct@_W@std@@6B@
CONST	SEGMENT DWORD USE32 PUBLIC 'CONST'
CONST	ENDS
;	COMDAT ??_S?$numpunct@D@std@@6B@
CONST	SEGMENT DWORD USE32 PUBLIC 'CONST'
CONST	ENDS
;	COMDAT _wmemmove
_TEXT	SEGMENT PARA USE32 PUBLIC 'CODE'
_TEXT	ENDS
;	COMDAT ?deallocate@?$allocator@_W@std@@QAEXPA_WI@Z
_TEXT	SEGMENT PARA USE32 PUBLIC 'CODE'
_TEXT	ENDS
;	COMDAT ??0?$allocator@_W@std@@QAE@ABV01@@Z
_TEXT	SEGMENT PARA USE32 PUBLIC 'CODE'
_TEXT	ENDS
;	COMDAT ??$?HDU?$char_traits@D@std@@V?$allocator@D@1@@std@@YA?AV?$basic_string@DU?$char_traits@D@std@@V?$allocator@D@2@@0@ABV10@PBD@Z
_TEXT	SEGMENT PARA USE32 PUBLIC 'CODE'
_TEXT	ENDS
;	COMDAT ??_R0?AVIMessageObserver@@@8
_DATA	SEGMENT DWORD USE32 PUBLIC 'DATA'
_DATA	ENDS
;	COMDAT ??_R0?AVIAdObserver@@@8
_DATA	SEGMENT DWORD USE32 PUBLIC 'DATA'
_DATA	ENDS
;	COMDAT ??0?$allocator@D@std@@QAE@XZ
_TEXT	SEGMENT PARA USE32 PUBLIC 'CODE'
_TEXT	ENDS
;	COMDAT ??_7IConfUpdateObserver@@6BIMessageObserver@@@
CONST	SEGMENT DWORD USE32 PUBLIC 'CONST'
CONST	ENDS
;	COMDAT ??_7IConfUpdateObserver@@6B0@@
CONST	SEGMENT DWORD USE32 PUBLIC 'CONST'
CONST	ENDS
;	COMDAT ??_8IConfUpdateObserver@@7B@
CONST	SEGMENT DWORD USE32 PUBLIC 'CONST'
CONST	ENDS
;	COMDAT ??_7IMessageObserver@@6B@
CONST	SEGMENT DWORD USE32 PUBLIC 'CONST'
CONST	ENDS
;	COMDAT ??_R4IMessageObserver@@6B@
rdata$r	SEGMENT DWORD USE32 PUBLIC 'CONST'
rdata$r	ENDS
;	COMDAT ??_R3IMessageObserver@@8
rdata$r	SEGMENT DWORD USE32 PUBLIC 'CONST'
rdata$r	ENDS
;	COMDAT ??_R2IMessageObserver@@8
rdata$r	SEGMENT DWORD USE32 PUBLIC 'CONST'
rdata$r	ENDS
;	COMDAT ??_R1A@?0A@A@IMessageObserver@@8
rdata$r	SEGMENT DWORD USE32 PUBLIC 'CONST'
rdata$r	ENDS
;	COMDAT ??_GIMessageObserver@@UAEPAXI@Z
_TEXT	SEGMENT PARA USE32 PUBLIC 'CODE'
_TEXT	ENDS
;	COMDAT ??_7CDownAD@@6BIMessageObserver@@@
CONST	SEGMENT DWORD USE32 PUBLIC 'CONST'
CONST	ENDS
;	COMDAT ??_7CDownAD@@6B@
CONST	SEGMENT DWORD USE32 PUBLIC 'CONST'
CONST	ENDS
;	COMDAT ??_7CDownAD@@6BIConfUpdateObserver@@@
CONST	SEGMENT DWORD USE32 PUBLIC 'CONST'
CONST	ENDS
;	COMDAT ??1IMessageObserver@@UAE@XZ
_TEXT	SEGMENT PARA USE32 PUBLIC 'CODE'
_TEXT	ENDS
;	COMDAT ??_8CDownAD@@7B@
CONST	SEGMENT DWORD USE32 PUBLIC 'CONST'
CONST	ENDS
;	COMDAT ??_7IAdData@@6B@
CONST	SEGMENT DWORD USE32 PUBLIC 'CONST'
CONST	ENDS
;	COMDAT ??_7IData@@6B@
CONST	SEGMENT DWORD USE32 PUBLIC 'CONST'
CONST	ENDS
sxdata	SEGMENT DWORD USE32 'SXDATA'
sxdata	ENDS
FLAT	GROUP _DATA, CONST, _BSS
	ASSUME	CS: FLAT, DS: FLAT, SS: FLAT
endif

INCLUDELIB MSVCRTD
INCLUDELIB OLDNAMES

PUBLIC	?m_pDownAD@CDownAD@@2PAV1@A			; CDownAD::m_pDownAD
_BSS	SEGMENT
?m_pDownAD@CDownAD@@2PAV1@A DD 01H DUP (?)		; CDownAD::m_pDownAD
_BSS	ENDS
CONST	SEGMENT
$SG187688 DB	0d0H, 0e8H, 0d2H, 0aaH, 0bdH, 0f8H, 0d0H, 0d0H, 'ZipRes', 0b8H
	DB	0fcH, 0d0H, 0c2H, 00H
	ORG $+1
$SG187689 DB	'CAdData', 00H
$SG187690 DB	'qq.txt', 00H
$SG187695 DB	00H
$SG187701 DB	0cfH, 0c2H, 0d4H, 0d8H, 0cdH, 0eaH, 0b3H, 0c9H, 00H
	ORG $+3
$SG187702 DB	'Ad--HTTP', 00H
	ORG $+3
$SG187703 DB	'log_httpr.txt', 00H
	ORG $+2
$SG187709 DB	0bbH, 0f1H, 0c8H, 0a1H, 'ZipRes Sign == ', 0caH, 0a7H, 0b0H
	DB	0dcH, 00H
$SG187710 DB	'CAdData', 00H
$SG187711 DB	'log_httpr.txt', 00H
	ORG $+2
$SG187714 DB	0b8H, 0fcH, 0d0H, 0c2H, 0b9H, 0e3H, 0b8H, 0e6H, '--', 0bdH
	DB	0e1H, 0caH, 0f8H, 00H
	ORG $+1
$SG187715 DB	'CAdData', 00H
$SG187716 DB	'log_httpr.txt', 00H
	ORG $+2
$SG187722 DB	'DataAppStart', 00H
	ORG $+3
$SG187723 DB	'CDownAD', 00H
$SG187724 DB	'main.txt', 00H
	ORG $+3
$SG187727 DB	'DataAppStart--OUT', 00H
	ORG $+2
$SG187728 DB	'CDownAD', 00H
$SG187729 DB	'main.txt', 00H
	ORG $+3
$SG187735 DB	'DataAppExit', 00H
$SG187736 DB	'CDownAD', 00H
$SG187737 DB	'main.txt', 00H
	ORG $+3
$SG187745 DB	'DataAppExit-- out', 00H
	ORG $+2
$SG187746 DB	'CDownAD', 00H
$SG187747 DB	'main.txt', 00H
	ORG $+3
$SG188276 DB	'GetAd Path Failed', 00H
	ORG $+2
$SG188277 DB	'DownZipFinish', 00H
	ORG $+2
$SG188278 DB	'ad.txt', 00H
$SG188478 DB	00H
$SG188481 DB	'res ', 0bdH, 0e2H, 0d1H, 0b9H, 0cbH, 0f5H, 0caH, 0a7H, 0b0H
	DB	0dcH, '!!!!!!', 00H
	ORG $+3
$SG188482 DB	'DownZipFinish', 00H
	ORG $+2
$SG188483 DB	'qq.txt', 00H
	ORG $+1
$SG188491 DB	'AdLoadingPane.ini', 00H
	ORG $+2
$SG188494 DB	'AdLoadingPane', 00H
	ORG $+2
$SG188496 DB	'AdLoadingPaneNum', 00H
	ORG $+3
$SG188506 DB	'LoadingPaneLink%d', 00H
	ORG $+2
$SG188510 DB	'LoadingPanePic%d', 00H
	ORG $+3
_ID_MESSAGE_AD DD 0fH
CONST	ENDS
PUBLIC	??_R0?AVIConfUpdateObserver@@@8			; IConfUpdateObserver `RTTI Type Descriptor'
PUBLIC	??_R1A@33BA@IMessageObserver@@8			; IMessageObserver::`RTTI Base Class Descriptor at (0,4,4,16)'
PUBLIC	??_R17?0A@A@IAdData@@8				; IAdData::`RTTI Base Class Descriptor at (8,-1,0,0)'
PUBLIC	??_R17?0A@A@IData@@8				; IData::`RTTI Base Class Descriptor at (8,-1,0,0)'
PUBLIC	??_ECDownAD@@W7AEPAXI@Z				; [thunk]:CDownAD::`vector deleting destructor'
PUBLIC	??_R4CDownAD@@6B@				; CDownAD::`RTTI Complete Object Locator'
PUBLIC	??_ECDownAD@@WCI@AEPAXI@Z			; [thunk]:CDownAD::`vector deleting destructor'
PUBLIC	??_R4CDownAD@@6BIMessageObserver@@@		; CDownAD::`RTTI Complete Object Locator'
PUBLIC	??1IMessageObserver@@UAE@XZ			; IMessageObserver::~IMessageObserver
PUBLIC	??0IMessageObserver@@QAE@XZ			; IMessageObserver::IMessageObserver
PUBLIC	??_R0?AVIMessageObserver@@@8			; IMessageObserver `RTTI Type Descriptor'
PUBLIC	?IConfUpdate_Update@IConfUpdateObserver@@UAEXXZ	; IConfUpdateObserver::IConfUpdate_Update
PUBLIC	?IConfUpdate_ConfigFile@IConfUpdateObserver@@UAEXXZ ; IConfUpdateObserver::IConfUpdate_ConfigFile
PUBLIC	?IConfUpdate_CodecSucc@IConfUpdateObserver@@UAEXXZ ; IConfUpdateObserver::IConfUpdate_CodecSucc
PUBLIC	??0IConfUpdateObserver@@QAE@XZ			; IConfUpdateObserver::IConfUpdateObserver
PUBLIC	??1IConfUpdateObserver@@UAE@XZ			; IConfUpdateObserver::~IConfUpdateObserver
PUBLIC	??1IAdData@@MAE@XZ				; IAdData::~IAdData
PUBLIC	??0IAdData@@QAE@XZ				; IAdData::IAdData
PUBLIC	??0CDownAD@@QAE@XZ				; CDownAD::CDownAD
PUBLIC	?DataAppStart@CDownAD@@UAEXXZ			; CDownAD::DataAppStart
PUBLIC	?DataAppExit@CDownAD@@UAEXXZ			; CDownAD::DataAppExit
PUBLIC	?GetLoadingPicAd@CDownAD@@UAE_NAAUAD_STRUCT@@@Z	; CDownAD::GetLoadingPicAd
PUBLIC	??0?$vector@UAD_STRUCT@@V?$allocator@UAD_STRUCT@@@std@@@std@@QAE@XZ ; std::vector<AD_STRUCT,std::allocator<AD_STRUCT> >::vector<AD_STRUCT,std::allocator<AD_STRUCT> >
PUBLIC	??1?$vector@UAD_STRUCT@@V?$allocator@UAD_STRUCT@@@std@@@std@@QAE@XZ ; std::vector<AD_STRUCT,std::allocator<AD_STRUCT> >::~vector<AD_STRUCT,std::allocator<AD_STRUCT> >
PUBLIC	?clear@?$vector@UAD_STRUCT@@V?$allocator@UAD_STRUCT@@@std@@@std@@QAEXXZ ; std::vector<AD_STRUCT,std::allocator<AD_STRUCT> >::clear
PUBLIC	?ReloadAd@CDownAD@@AAEXXZ			; CDownAD::ReloadAd
PUBLIC	??_R0?AVIAdData@@@8				; IAdData `RTTI Type Descriptor'
PUBLIC	??_7CDownAD@@6BIConfUpdateObserver@@@		; CDownAD::`vftable'
PUBLIC	??_7CDownAD@@6B@				; CDownAD::`vftable'
PUBLIC	??_7CDownAD@@6BIMessageObserver@@@		; CDownAD::`vftable'
PUBLIC	??_R0?AVIData@@@8				; IData `RTTI Type Descriptor'
PUBLIC	??_R4CDownAD@@6BIConfUpdateObserver@@@		; CDownAD::`RTTI Complete Object Locator'
PUBLIC	??_8CDownAD@@7B@				; CDownAD::`vbtable'
PUBLIC	??_R0?AVCDownAD@@@8				; CDownAD `RTTI Type Descriptor'
PUBLIC	??_R3CDownAD@@8					; CDownAD::`RTTI Class Hierarchy Descriptor'
PUBLIC	??_R2CDownAD@@8					; CDownAD::`RTTI Base Class Array'
PUBLIC	??_R1A@?0A@A@CDownAD@@8				; CDownAD::`RTTI Base Class Descriptor at (0,-1,0,0)'
PUBLIC	??_R1A@?0A@A@IConfUpdateObserver@@8		; IConfUpdateObserver::`RTTI Base Class Descriptor at (0,-1,0,0)'
EXTRN	__RTC_InitBase:NEAR
EXTRN	__RTC_Shutdown:NEAR
EXTRN	__except_list:DWORD
EXTRN	__RTC_CheckEsp:NEAR
EXTRN	___CxxFrameHandler:NEAR
EXTRN	??_7type_info@@6B@:QWORD			; type_info::`vftable'
;	COMDAT rtc$IMZ
; File d:\boxgit\playbox\playbox\dev\prj\playbox\src\module\downad\downad.cpp
rtc$IMZ	SEGMENT
__RTC_InitBase.rtc$IMZ DD FLAT:__RTC_InitBase
rtc$IMZ	ENDS
;	COMDAT rtc$TMZ
rtc$TMZ	SEGMENT
__RTC_Shutdown.rtc$TMZ DD FLAT:__RTC_Shutdown
rtc$TMZ	ENDS
xdata$x	SEGMENT
$T189971 DD	0ffffffffH
	DD	FLAT:$L189959
	DD	00H
	DD	FLAT:$L189961
	DD	01H
	DD	FLAT:$L189962
	DD	02H
	DD	FLAT:$L189963
$T189967 DD	019930520H
	DD	04H
	DD	FLAT:$T189971
	DD	2 DUP(00H)
	DD	2 DUP(00H)
xdata$x	ENDS
;	COMDAT ??_8CDownAD@@7B@
CONST	SEGMENT
??_8CDownAD@@7B@ DD 0fffffffcH				; CDownAD::`vbtable'
	DD	024H
CONST	ENDS
;	COMDAT ??_7CDownAD@@6BIConfUpdateObserver@@@
CONST	SEGMENT
??_7CDownAD@@6BIConfUpdateObserver@@@ DD FLAT:??_R4CDownAD@@6BIConfUpdateObserver@@@ ; CDownAD::`vftable'
	DD	FLAT:?IConfUpdate_Update@IConfUpdateObserver@@UAEXXZ
	DD	FLAT:?IConfUpdate_ConfigFile@IConfUpdateObserver@@UAEXXZ
	DD	FLAT:?IConfUpdate_CodecSucc@IConfUpdateObserver@@UAEXXZ
CONST	ENDS
;	COMDAT ??_7CDownAD@@6B@
CONST	SEGMENT
??_7CDownAD@@6B@ DD FLAT:??_R4CDownAD@@6B@		; CDownAD::`vftable'
	DD	FLAT:??_ECDownAD@@W7AEPAXI@Z
	DD	FLAT:?DataAppStart@CDownAD@@UAEXXZ
	DD	FLAT:?DataAppExit@CDownAD@@UAEXXZ
	DD	FLAT:?GetLoadingPicAd@CDownAD@@UAE_NAAUAD_STRUCT@@@Z
CONST	ENDS
;	COMDAT ??_7CDownAD@@6BIMessageObserver@@@
CONST	SEGMENT
??_7CDownAD@@6BIMessageObserver@@@ DD FLAT:??_R4CDownAD@@6BIMessageObserver@@@ ; CDownAD::`vftable'
	DD	FLAT:??_ECDownAD@@WCI@AEPAXI@Z
CONST	ENDS
;	COMDAT ??_R4CDownAD@@6BIConfUpdateObserver@@@
rdata$r	SEGMENT
??_R4CDownAD@@6BIConfUpdateObserver@@@ DD 00H		; CDownAD::`RTTI Complete Object Locator'
	DD	00H
	DD	00H
	DD	FLAT:??_R0?AVCDownAD@@@8
	DD	FLAT:??_R3CDownAD@@8
rdata$r	ENDS
;	COMDAT ??_R0?AVCDownAD@@@8
_DATA	SEGMENT
??_R0?AVCDownAD@@@8 DD FLAT:??_7type_info@@6B@		; CDownAD `RTTI Type Descriptor'
	DD	00H
	DB	'.?AVCDownAD@@', 00H
_DATA	ENDS
;	COMDAT ??_R3CDownAD@@8
rdata$r	SEGMENT
??_R3CDownAD@@8 DD 00H					; CDownAD::`RTTI Class Hierarchy Descriptor'
	DD	03H
	DD	05H
	DD	FLAT:??_R2CDownAD@@8
rdata$r	ENDS
;	COMDAT ??_R2CDownAD@@8
rdata$r	SEGMENT
??_R2CDownAD@@8 DD FLAT:??_R1A@?0A@A@CDownAD@@8		; CDownAD::`RTTI Base Class Array'
	DD	FLAT:??_R1A@?0A@A@IConfUpdateObserver@@8
	DD	FLAT:??_R1A@33BA@IMessageObserver@@8
	DD	FLAT:??_R17?0A@A@IAdData@@8
	DD	FLAT:??_R17?0A@A@IData@@8
rdata$r	ENDS
;	COMDAT ??_R1A@?0A@A@CDownAD@@8
rdata$r	SEGMENT
??_R1A@?0A@A@CDownAD@@8 DD FLAT:??_R0?AVCDownAD@@@8	; CDownAD::`RTTI Base Class Descriptor at (0,-1,0,0)'
	DD	04H
	DD	00H
	DD	0ffffffffH
	DD	00H
	DD	00H
rdata$r	ENDS
;	COMDAT ??_R1A@?0A@A@IConfUpdateObserver@@8
rdata$r	SEGMENT
??_R1A@?0A@A@IConfUpdateObserver@@8 DD FLAT:??_R0?AVIConfUpdateObserver@@@8 ; IConfUpdateObserver::`RTTI Base Class Descriptor at (0,-1,0,0)'
	DD	01H
	DD	00H
	DD	0ffffffffH
	DD	00H
	DD	00H
rdata$r	ENDS
;	COMDAT ??_R0?AVIConfUpdateObserver@@@8
_DATA	SEGMENT
??_R0?AVIConfUpdateObserver@@@8 DD FLAT:??_7type_info@@6B@ ; IConfUpdateObserver `RTTI Type Descriptor'
	DD	00H
	DB	'.?AVIConfUpdateObserver@@', 00H
_DATA	ENDS
;	COMDAT ??_R1A@33BA@IMessageObserver@@8
rdata$r	SEGMENT
??_R1A@33BA@IMessageObserver@@8 DD FLAT:??_R0?AVIMessageObserver@@@8 ; IMessageObserver::`RTTI Base Class Descriptor at (0,4,4,16)'
	DD	00H
	DD	00H
	DD	04H
	DD	04H
	DD	010H
rdata$r	ENDS
;	COMDAT ??_R0?AVIMessageObserver@@@8
_DATA	SEGMENT
??_R0?AVIMessageObserver@@@8 DD FLAT:??_7type_info@@6B@	; IMessageObserver `RTTI Type Descriptor'
	DD	00H
	DB	'.?AVIMessageObserver@@', 00H
	ORG $-31
	DD	FLAT:??_7type_info@@6B@
	DD	00H
	DB	'.?AVIMessageObserver@@', 00H
_DATA	ENDS
;	COMDAT ??_R17?0A@A@IAdData@@8
rdata$r	SEGMENT
??_R17?0A@A@IAdData@@8 DD FLAT:??_R0?AVIAdData@@@8	; IAdData::`RTTI Base Class Descriptor at (8,-1,0,0)'
	DD	01H
	DD	08H
	DD	0ffffffffH
	DD	00H
	DD	00H
rdata$r	ENDS
;	COMDAT ??_R0?AVIAdData@@@8
_DATA	SEGMENT
??_R0?AVIAdData@@@8 DD FLAT:??_7type_info@@6B@		; IAdData `RTTI Type Descriptor'
	DD	00H
	DB	'.?AVIAdData@@', 00H
_DATA	ENDS
;	COMDAT ??_R17?0A@A@IData@@8
rdata$r	SEGMENT
??_R17?0A@A@IData@@8 DD FLAT:??_R0?AVIData@@@8		; IData::`RTTI Base Class Descriptor at (8,-1,0,0)'
	DD	00H
	DD	08H
	DD	0ffffffffH
	DD	00H
	DD	00H
rdata$r	ENDS
;	COMDAT ??_R0?AVIData@@@8
_DATA	SEGMENT
??_R0?AVIData@@@8 DD FLAT:??_7type_info@@6B@		; IData `RTTI Type Descriptor'
	DD	00H
	DB	'.?AVIData@@', 00H
_DATA	ENDS
;	COMDAT ??_R4CDownAD@@6B@
rdata$r	SEGMENT
??_R4CDownAD@@6B@ DD 00H				; CDownAD::`RTTI Complete Object Locator'
	DD	08H
	DD	00H
	DD	FLAT:??_R0?AVCDownAD@@@8
	DD	FLAT:??_R3CDownAD@@8
rdata$r	ENDS
;	COMDAT ??_R4CDownAD@@6BIMessageObserver@@@
rdata$r	SEGMENT
??_R4CDownAD@@6BIMessageObserver@@@ DD 00H		; CDownAD::`RTTI Complete Object Locator'
	DD	028H
	DD	00H
	DD	FLAT:??_R0?AVCDownAD@@@8
	DD	FLAT:??_R3CDownAD@@8
; Function compile flags: /Odt /RTCsu
rdata$r	ENDS
_TEXT	SEGMENT
$T189958 = -20						; size = 4
_this$ = -16						; size = 4
__$EHRec$ = -12						; size = 12
_$initVBases$ = 8					; size = 4
??0CDownAD@@QAE@XZ PROC NEAR				; CDownAD::CDownAD
; _this$ = ecx

; 13   : {

  00000	55		 push	 ebp
  00001	8b ec		 mov	 ebp, esp
  00003	6a ff		 push	 -1
  00005	68 00 00 00 00	 push	 __ehhandler$??0CDownAD@@QAE@XZ
  0000a	64 a1 00 00 00
	00		 mov	 eax, DWORD PTR fs:__except_list
  00010	50		 push	 eax
  00011	64 89 25 00 00
	00 00		 mov	 DWORD PTR fs:__except_list, esp
  00018	83 ec 08	 sub	 esp, 8
  0001b	c7 45 ec cc cc
	cc cc		 mov	 DWORD PTR [ebp-20], -858993460 ; ccccccccH
  00022	c7 45 f0 cc cc
	cc cc		 mov	 DWORD PTR [ebp-16], -858993460 ; ccccccccH
  00029	89 4d f0	 mov	 DWORD PTR _this$[ebp], ecx
  0002c	c7 45 ec 00 00
	00 00		 mov	 DWORD PTR $T189958[ebp], 0
  00033	83 7d 08 00	 cmp	 DWORD PTR _$initVBases$[ebp], 0
  00037	74 25		 je	 SHORT $L187646
  00039	8b 45 f0	 mov	 eax, DWORD PTR _this$[ebp]
  0003c	c7 40 04 00 00
	00 00		 mov	 DWORD PTR [eax+4], OFFSET FLAT:??_8CDownAD@@7B@
  00043	8b 4d f0	 mov	 ecx, DWORD PTR _this$[ebp]
  00046	83 c1 28	 add	 ecx, 40			; 00000028H
  00049	e8 00 00 00 00	 call	 ??0IMessageObserver@@QAE@XZ
  0004e	c7 45 fc 00 00
	00 00		 mov	 DWORD PTR __$EHRec$[ebp+8], 0
  00055	8b 4d ec	 mov	 ecx, DWORD PTR $T189958[ebp]
  00058	83 c9 01	 or	 ecx, 1
  0005b	89 4d ec	 mov	 DWORD PTR $T189958[ebp], ecx
$L187646:
  0005e	6a 00		 push	 0
  00060	8b 4d f0	 mov	 ecx, DWORD PTR _this$[ebp]
  00063	e8 00 00 00 00	 call	 ??0IConfUpdateObserver@@QAE@XZ
  00068	c7 45 fc 01 00
	00 00		 mov	 DWORD PTR __$EHRec$[ebp+8], 1
  0006f	8b 4d f0	 mov	 ecx, DWORD PTR _this$[ebp]
  00072	83 c1 08	 add	 ecx, 8
  00075	e8 00 00 00 00	 call	 ??0IAdData@@QAE@XZ
  0007a	c6 45 fc 02	 mov	 BYTE PTR __$EHRec$[ebp+8], 2
  0007e	8b 55 f0	 mov	 edx, DWORD PTR _this$[ebp]
  00081	c7 02 00 00 00
	00		 mov	 DWORD PTR [edx], OFFSET FLAT:??_7CDownAD@@6BIConfUpdateObserver@@@
  00087	8b 45 f0	 mov	 eax, DWORD PTR _this$[ebp]
  0008a	c7 40 08 00 00
	00 00		 mov	 DWORD PTR [eax+8], OFFSET FLAT:??_7CDownAD@@6B@
  00091	8b 4d f0	 mov	 ecx, DWORD PTR _this$[ebp]
  00094	8b 51 04	 mov	 edx, DWORD PTR [ecx+4]
  00097	8b 42 04	 mov	 eax, DWORD PTR [edx+4]
  0009a	8b 4d f0	 mov	 ecx, DWORD PTR _this$[ebp]
  0009d	c7 44 01 04 00
	00 00 00	 mov	 DWORD PTR [ecx+eax+4], OFFSET FLAT:??_7CDownAD@@6BIMessageObserver@@@
  000a5	8b 4d f0	 mov	 ecx, DWORD PTR _this$[ebp]
  000a8	83 c1 14	 add	 ecx, 20			; 00000014H
  000ab	e8 00 00 00 00	 call	 ??0?$vector@UAD_STRUCT@@V?$allocator@UAD_STRUCT@@@std@@@std@@QAE@XZ ; std::vector<AD_STRUCT,std::allocator<AD_STRUCT> >::vector<AD_STRUCT,std::allocator<AD_STRUCT> >
  000b0	c6 45 fc 03	 mov	 BYTE PTR __$EHRec$[ebp+8], 3

; 14   : 	m_iCurAd = 0;

  000b4	8b 55 f0	 mov	 edx, DWORD PTR _this$[ebp]
  000b7	c7 42 24 00 00
	00 00		 mov	 DWORD PTR [edx+36], 0

; 15   : 	m_vecAD.clear();

  000be	8b 4d f0	 mov	 ecx, DWORD PTR _this$[ebp]
  000c1	83 c1 14	 add	 ecx, 20			; 00000014H
  000c4	e8 00 00 00 00	 call	 ?clear@?$vector@UAD_STRUCT@@V?$allocator@UAD_STRUCT@@@std@@@std@@QAEXXZ ; std::vector<AD_STRUCT,std::allocator<AD_STRUCT> >::clear

; 16   : 	ReloadAd();

  000c9	8b 4d f0	 mov	 ecx, DWORD PTR _this$[ebp]
  000cc	e8 00 00 00 00	 call	 ?ReloadAd@CDownAD@@AAEXXZ ; CDownAD::ReloadAd

; 17   : }

  000d1	c7 45 fc ff ff
	ff ff		 mov	 DWORD PTR __$EHRec$[ebp+8], -1
  000d8	8b 45 f0	 mov	 eax, DWORD PTR _this$[ebp]
  000db	8b 4d f4	 mov	 ecx, DWORD PTR __$EHRec$[ebp]
  000de	64 89 0d 00 00
	00 00		 mov	 DWORD PTR fs:__except_list, ecx
  000e5	83 c4 14	 add	 esp, 20			; 00000014H
  000e8	3b ec		 cmp	 ebp, esp
  000ea	e8 00 00 00 00	 call	 __RTC_CheckEsp
  000ef	8b e5		 mov	 esp, ebp
  000f1	5d		 pop	 ebp
  000f2	c2 04 00	 ret	 4
_TEXT	ENDS
text$x	SEGMENT
$L189959:
  00000	8b 45 ec	 mov	 eax, DWORD PTR $T189958[ebp]
  00003	83 e0 01	 and	 eax, 1
  00006	0f 84 0f 00 00
	00		 je	 $L189960
  0000c	83 65 ec fe	 and	 DWORD PTR $T189958[ebp], -2 ; fffffffeH
  00010	8b 4d f0	 mov	 ecx, DWORD PTR _this$[ebp]
  00013	83 c1 28	 add	 ecx, 40			; 00000028H
  00016	e9 00 00 00 00	 jmp	 ??1IMessageObserver@@UAE@XZ ; IMessageObserver::~IMessageObserver
$L189960:
  0001b	c3		 ret	 0
$L189961:
  0001c	8b 4d f0	 mov	 ecx, DWORD PTR _this$[ebp]
  0001f	83 c1 08	 add	 ecx, 8
  00022	e9 00 00 00 00	 jmp	 ??1IConfUpdateObserver@@UAE@XZ
$L189962:
  00027	8b 4d f0	 mov	 ecx, DWORD PTR _this$[ebp]
  0002a	83 c1 08	 add	 ecx, 8
  0002d	e9 00 00 00 00	 jmp	 ??1IAdData@@MAE@XZ	; IAdData::~IAdData
$L189963:
  00032	8b 4d f0	 mov	 ecx, DWORD PTR _this$[ebp]
  00035	83 c1 14	 add	 ecx, 20			; 00000014H
  00038	e9 00 00 00 00	 jmp	 ??1?$vector@UAD_STRUCT@@V?$allocator@UAD_STRUCT@@@std@@@std@@QAE@XZ ; std::vector<AD_STRUCT,std::allocator<AD_STRUCT> >::~vector<AD_STRUCT,std::allocator<AD_STRUCT> >
__ehhandler$??0CDownAD@@QAE@XZ:
  0003d	b8 00 00 00 00	 mov	 eax, OFFSET FLAT:$T189967
  00042	e9 00 00 00 00	 jmp	 ___CxxFrameHandler
text$x	ENDS
??0CDownAD@@QAE@XZ ENDP					; CDownAD::CDownAD
; Function compile flags: /Odt /RTCsu
; File d:\boxgit\playbox\playbox\dev\prj\playbox\src\datainterface\iconfupdateobserver.h
;	COMDAT ?IConfUpdate_Update@IConfUpdateObserver@@UAEXXZ
_TEXT	SEGMENT
_this$ = -4						; size = 4
?IConfUpdate_Update@IConfUpdateObserver@@UAEXXZ PROC NEAR ; IConfUpdateObserver::IConfUpdate_Update, COMDAT
; _this$ = ecx

; 9    : 	virtual void	IConfUpdate_Update(){};

  00000	55		 push	 ebp
  00001	8b ec		 mov	 ebp, esp
  00003	51		 push	 ecx
  00004	c7 45 fc cc cc
	cc cc		 mov	 DWORD PTR [ebp-4], -858993460 ; ccccccccH
  0000b	89 4d fc	 mov	 DWORD PTR _this$[ebp], ecx
  0000e	8b e5		 mov	 esp, ebp
  00010	5d		 pop	 ebp
  00011	c3		 ret	 0
?IConfUpdate_Update@IConfUpdateObserver@@UAEXXZ ENDP	; IConfUpdateObserver::IConfUpdate_Update
; Function compile flags: /Odt /RTCsu
_TEXT	ENDS
;	COMDAT ?IConfUpdate_ConfigFile@IConfUpdateObserver@@UAEXXZ
_TEXT	SEGMENT
_this$ = -4						; size = 4
?IConfUpdate_ConfigFile@IConfUpdateObserver@@UAEXXZ PROC NEAR ; IConfUpdateObserver::IConfUpdate_ConfigFile, COMDAT
; _this$ = ecx

; 10   : 	virtual void	IConfUpdate_ConfigFile(){};

  00000	55		 push	 ebp
  00001	8b ec		 mov	 ebp, esp
  00003	51		 push	 ecx
  00004	c7 45 fc cc cc
	cc cc		 mov	 DWORD PTR [ebp-4], -858993460 ; ccccccccH
  0000b	89 4d fc	 mov	 DWORD PTR _this$[ebp], ecx
  0000e	8b e5		 mov	 esp, ebp
  00010	5d		 pop	 ebp
  00011	c3		 ret	 0
?IConfUpdate_ConfigFile@IConfUpdateObserver@@UAEXXZ ENDP ; IConfUpdateObserver::IConfUpdate_ConfigFile
; Function compile flags: /Odt /RTCsu
_TEXT	ENDS
;	COMDAT ?IConfUpdate_CodecSucc@IConfUpdateObserver@@UAEXXZ
_TEXT	SEGMENT
_this$ = -4						; size = 4
?IConfUpdate_CodecSucc@IConfUpdateObserver@@UAEXXZ PROC NEAR ; IConfUpdateObserver::IConfUpdate_CodecSucc, COMDAT
; _this$ = ecx

; 11   : 	virtual void	IConfUpdate_CodecSucc(){};

  00000	55		 push	 ebp
  00001	8b ec		 mov	 ebp, esp
  00003	51		 push	 ecx
  00004	c7 45 fc cc cc
	cc cc		 mov	 DWORD PTR [ebp-4], -858993460 ; ccccccccH
  0000b	89 4d fc	 mov	 DWORD PTR _this$[ebp], ecx
  0000e	8b e5		 mov	 esp, ebp
  00010	5d		 pop	 ebp
  00011	c3		 ret	 0
?IConfUpdate_CodecSucc@IConfUpdateObserver@@UAEXXZ ENDP	; IConfUpdateObserver::IConfUpdate_CodecSucc
_TEXT	ENDS
PUBLIC	??1IData@@MAE@XZ				; IData::~IData
PUBLIC	?DataAppStart@IData@@UAEXXZ			; IData::DataAppStart
PUBLIC	?DataAppExit@IData@@UAEXXZ			; IData::DataAppExit
PUBLIC	??_7IAdData@@6B@				; IAdData::`vftable'
PUBLIC	??_GIAdData@@MAEPAXI@Z				; IAdData::`scalar deleting destructor'
PUBLIC	??_R4IAdData@@6B@				; IAdData::`RTTI Complete Object Locator'
PUBLIC	??_R3IAdData@@8					; IAdData::`RTTI Class Hierarchy Descriptor'
PUBLIC	??_R2IAdData@@8					; IAdData::`RTTI Base Class Array'
PUBLIC	??_R1A@?0A@A@IAdData@@8				; IAdData::`RTTI Base Class Descriptor at (0,-1,0,0)'
PUBLIC	??_R1A@?0A@A@IData@@8				; IData::`RTTI Base Class Descriptor at (0,-1,0,0)'
EXTRN	__purecall:NEAR
EXTRN	??_EIAdData@@MAEPAXI@Z:NEAR			; IAdData::`vector deleting destructor'
;	COMDAT ??_7IAdData@@6B@
; File d:\boxgit\playbox\playbox\dev\prj\playbox\src\datainterface\iaddata.h
CONST	SEGMENT
??_7IAdData@@6B@ DD FLAT:??_R4IAdData@@6B@		; IAdData::`vftable'
	DD	FLAT:??_EIAdData@@MAEPAXI@Z
	DD	FLAT:?DataAppStart@IData@@UAEXXZ
	DD	FLAT:?DataAppExit@IData@@UAEXXZ
	DD	FLAT:__purecall
CONST	ENDS
;	COMDAT ??_R4IAdData@@6B@
rdata$r	SEGMENT
??_R4IAdData@@6B@ DD 00H				; IAdData::`RTTI Complete Object Locator'
	DD	00H
	DD	00H
	DD	FLAT:??_R0?AVIAdData@@@8
	DD	FLAT:??_R3IAdData@@8
rdata$r	ENDS
;	COMDAT ??_R3IAdData@@8
rdata$r	SEGMENT
??_R3IAdData@@8 DD 00H					; IAdData::`RTTI Class Hierarchy Descriptor'
	DD	00H
	DD	02H
	DD	FLAT:??_R2IAdData@@8
rdata$r	ENDS
;	COMDAT ??_R2IAdData@@8
rdata$r	SEGMENT
??_R2IAdData@@8 DD FLAT:??_R1A@?0A@A@IAdData@@8		; IAdData::`RTTI Base Class Array'
	DD	FLAT:??_R1A@?0A@A@IData@@8
rdata$r	ENDS
;	COMDAT ??_R1A@?0A@A@IAdData@@8
rdata$r	SEGMENT
??_R1A@?0A@A@IAdData@@8 DD FLAT:??_R0?AVIAdData@@@8	; IAdData::`RTTI Base Class Descriptor at (0,-1,0,0)'
	DD	01H
	DD	00H
	DD	0ffffffffH
	DD	00H
	DD	00H
rdata$r	ENDS
;	COMDAT ??_R1A@?0A@A@IData@@8
rdata$r	SEGMENT
??_R1A@?0A@A@IData@@8 DD FLAT:??_R0?AVIData@@@8		; IData::`RTTI Base Class Descriptor at (0,-1,0,0)'
	DD	00H
	DD	00H
	DD	0ffffffffH
	DD	00H
	DD	00H
; Function compile flags: /Odt /RTCsu
rdata$r	ENDS
;	COMDAT ??1IAdData@@MAE@XZ
_TEXT	SEGMENT
_this$ = -4						; size = 4
??1IAdData@@MAE@XZ PROC NEAR				; IAdData::~IAdData, COMDAT
; _this$ = ecx

; 17   : 	virtual ~IAdData(){};

  00000	55		 push	 ebp
  00001	8b ec		 mov	 ebp, esp
  00003	51		 push	 ecx
  00004	c7 45 fc cc cc
	cc cc		 mov	 DWORD PTR [ebp-4], -858993460 ; ccccccccH
  0000b	89 4d fc	 mov	 DWORD PTR _this$[ebp], ecx
  0000e	8b 45 fc	 mov	 eax, DWORD PTR _this$[ebp]
  00011	c7 00 00 00 00
	00		 mov	 DWORD PTR [eax], OFFSET FLAT:??_7IAdData@@6B@
  00017	8b 4d fc	 mov	 ecx, DWORD PTR _this$[ebp]
  0001a	e8 00 00 00 00	 call	 ??1IData@@MAE@XZ	; IData::~IData
  0001f	83 c4 04	 add	 esp, 4
  00022	3b ec		 cmp	 ebp, esp
  00024	e8 00 00 00 00	 call	 __RTC_CheckEsp
  00029	8b e5		 mov	 esp, ebp
  0002b	5d		 pop	 ebp
  0002c	c3		 ret	 0
??1IAdData@@MAE@XZ ENDP					; IAdData::~IAdData
_TEXT	ENDS
PUBLIC	??_R4IData@@6B@					; IData::`RTTI Complete Object Locator'
PUBLIC	??_R3IData@@8					; IData::`RTTI Class Hierarchy Descriptor'
PUBLIC	??_R2IData@@8					; IData::`RTTI Base Class Array'
PUBLIC	??_7IData@@6B@					; IData::`vftable'
PUBLIC	??_GIData@@MAEPAXI@Z				; IData::`scalar deleting destructor'
EXTRN	??_EIData@@MAEPAXI@Z:NEAR			; IData::`vector deleting destructor'
;	COMDAT ??_7IData@@6B@
; File d:\boxgit\playbox\playbox\dev\prj\playbox\src\datainterface\idata.h
CONST	SEGMENT
??_7IData@@6B@ DD FLAT:??_R4IData@@6B@			; IData::`vftable'
	DD	FLAT:??_EIData@@MAEPAXI@Z
	DD	FLAT:?DataAppStart@IData@@UAEXXZ
	DD	FLAT:?DataAppExit@IData@@UAEXXZ
CONST	ENDS
;	COMDAT ??_R4IData@@6B@
rdata$r	SEGMENT
??_R4IData@@6B@ DD 00H					; IData::`RTTI Complete Object Locator'
	DD	00H
	DD	00H
	DD	FLAT:??_R0?AVIData@@@8
	DD	FLAT:??_R3IData@@8
rdata$r	ENDS
;	COMDAT ??_R3IData@@8
rdata$r	SEGMENT
??_R3IData@@8 DD 00H					; IData::`RTTI Class Hierarchy Descriptor'
	DD	00H
	DD	01H
	DD	FLAT:??_R2IData@@8
rdata$r	ENDS
;	COMDAT ??_R2IData@@8
rdata$r	SEGMENT
??_R2IData@@8 DD FLAT:??_R1A@?0A@A@IData@@8		; IData::`RTTI Base Class Array'
; Function compile flags: /Odt /RTCsu
rdata$r	ENDS
;	COMDAT ??1IData@@MAE@XZ
_TEXT	SEGMENT
_this$ = -4						; size = 4
??1IData@@MAE@XZ PROC NEAR				; IData::~IData, COMDAT
; _this$ = ecx

; 10   : 	virtual ~IData(){};

  00000	55		 push	 ebp
  00001	8b ec		 mov	 ebp, esp
  00003	51		 push	 ecx
  00004	c7 45 fc cc cc
	cc cc		 mov	 DWORD PTR [ebp-4], -858993460 ; ccccccccH
  0000b	89 4d fc	 mov	 DWORD PTR _this$[ebp], ecx
  0000e	8b 45 fc	 mov	 eax, DWORD PTR _this$[ebp]
  00011	c7 00 00 00 00
	00		 mov	 DWORD PTR [eax], OFFSET FLAT:??_7IData@@6B@
  00017	8b e5		 mov	 esp, ebp
  00019	5d		 pop	 ebp
  0001a	c3		 ret	 0
??1IData@@MAE@XZ ENDP					; IData::~IData
; Function compile flags: /Odt /RTCsu
_TEXT	ENDS
;	COMDAT ?DataAppStart@IData@@UAEXXZ
_TEXT	SEGMENT
_this$ = -4						; size = 4
?DataAppStart@IData@@UAEXXZ PROC NEAR			; IData::DataAppStart, COMDAT
; _this$ = ecx

; 15   : 	virtual void	DataAppStart(){};

  00000	55		 push	 ebp
  00001	8b ec		 mov	 ebp, esp
  00003	51		 push	 ecx
  00004	c7 45 fc cc cc
	cc cc		 mov	 DWORD PTR [ebp-4], -858993460 ; ccccccccH
  0000b	89 4d fc	 mov	 DWORD PTR _this$[ebp], ecx
  0000e	8b e5		 mov	 esp, ebp
  00010	5d		 pop	 ebp
  00011	c3		 ret	 0
?DataAppStart@IData@@UAEXXZ ENDP			; IData::DataAppStart
; Function compile flags: /Odt /RTCsu
_TEXT	ENDS
;	COMDAT ?DataAppExit@IData@@UAEXXZ
_TEXT	SEGMENT
_this$ = -4						; size = 4
?DataAppExit@IData@@UAEXXZ PROC NEAR			; IData::DataAppExit, COMDAT
; _this$ = ecx

; 18   : 	virtual void	DataAppExit(){};

  00000	55		 push	 ebp
  00001	8b ec		 mov	 ebp, esp
  00003	51		 push	 ecx
  00004	c7 45 fc cc cc
	cc cc		 mov	 DWORD PTR [ebp-4], -858993460 ; ccccccccH
  0000b	89 4d fc	 mov	 DWORD PTR _this$[ebp], ecx
  0000e	8b e5		 mov	 esp, ebp
  00010	5d		 pop	 ebp
  00011	c3		 ret	 0
?DataAppExit@IData@@UAEXXZ ENDP				; IData::DataAppExit
_TEXT	ENDS
EXTRN	??3@YAXPAX@Z:NEAR				; operator delete
; Function compile flags: /Odt /RTCsu
;	COMDAT ??_GIData@@MAEPAXI@Z
_TEXT	SEGMENT
_this$ = -4						; size = 4
___flags$ = 8						; size = 4
??_GIData@@MAEPAXI@Z PROC NEAR				; IData::`scalar deleting destructor', COMDAT
; _this$ = ecx
  00000	55		 push	 ebp
  00001	8b ec		 mov	 ebp, esp
  00003	51		 push	 ecx
  00004	c7 45 fc cc cc
	cc cc		 mov	 DWORD PTR [ebp-4], -858993460 ; ccccccccH
  0000b	89 4d fc	 mov	 DWORD PTR _this$[ebp], ecx
  0000e	8b 4d fc	 mov	 ecx, DWORD PTR _this$[ebp]
  00011	e8 00 00 00 00	 call	 ??1IData@@MAE@XZ	; IData::~IData
  00016	8b 45 08	 mov	 eax, DWORD PTR ___flags$[ebp]
  00019	83 e0 01	 and	 eax, 1
  0001c	74 0c		 je	 SHORT $L187071
  0001e	8b 4d fc	 mov	 ecx, DWORD PTR _this$[ebp]
  00021	51		 push	 ecx
  00022	e8 00 00 00 00	 call	 ??3@YAXPAX@Z		; operator delete
  00027	83 c4 04	 add	 esp, 4
$L187071:
  0002a	8b 45 fc	 mov	 eax, DWORD PTR _this$[ebp]
  0002d	83 c4 04	 add	 esp, 4
  00030	3b ec		 cmp	 ebp, esp
  00032	e8 00 00 00 00	 call	 __RTC_CheckEsp
  00037	8b e5		 mov	 esp, ebp
  00039	5d		 pop	 ebp
  0003a	c2 04 00	 ret	 4
??_GIData@@MAEPAXI@Z ENDP				; IData::`scalar deleting destructor'
; Function compile flags: /Odt /RTCsu
_TEXT	ENDS
;	COMDAT ??_GIAdData@@MAEPAXI@Z
_TEXT	SEGMENT
_this$ = -4						; size = 4
___flags$ = 8						; size = 4
??_GIAdData@@MAEPAXI@Z PROC NEAR			; IAdData::`scalar deleting destructor', COMDAT
; _this$ = ecx
  00000	55		 push	 ebp
  00001	8b ec		 mov	 ebp, esp
  00003	51		 push	 ecx
  00004	c7 45 fc cc cc
	cc cc		 mov	 DWORD PTR [ebp-4], -858993460 ; ccccccccH
  0000b	89 4d fc	 mov	 DWORD PTR _this$[ebp], ecx
  0000e	8b 4d fc	 mov	 ecx, DWORD PTR _this$[ebp]
  00011	e8 00 00 00 00	 call	 ??1IAdData@@MAE@XZ	; IAdData::~IAdData
  00016	8b 45 08	 mov	 eax, DWORD PTR ___flags$[ebp]
  00019	83 e0 01	 and	 eax, 1
  0001c	74 0c		 je	 SHORT $L187106
  0001e	8b 4d fc	 mov	 ecx, DWORD PTR _this$[ebp]
  00021	51		 push	 ecx
  00022	e8 00 00 00 00	 call	 ??3@YAXPAX@Z		; operator delete
  00027	83 c4 04	 add	 esp, 4
$L187106:
  0002a	8b 45 fc	 mov	 eax, DWORD PTR _this$[ebp]
  0002d	83 c4 04	 add	 esp, 4
  00030	3b ec		 cmp	 ebp, esp
  00032	e8 00 00 00 00	 call	 __RTC_CheckEsp
  00037	8b e5		 mov	 esp, ebp
  00039	5d		 pop	 ebp
  0003a	c2 04 00	 ret	 4
??_GIAdData@@MAEPAXI@Z ENDP				; IAdData::`scalar deleting destructor'
_TEXT	ENDS
PUBLIC	??_7IMessageObserver@@6B@			; IMessageObserver::`vftable'
PUBLIC	??_GIMessageObserver@@UAEPAXI@Z			; IMessageObserver::`scalar deleting destructor'
PUBLIC	??_R4IMessageObserver@@6B@			; IMessageObserver::`RTTI Complete Object Locator'
PUBLIC	??_R3IMessageObserver@@8			; IMessageObserver::`RTTI Class Hierarchy Descriptor'
PUBLIC	??_R2IMessageObserver@@8			; IMessageObserver::`RTTI Base Class Array'
PUBLIC	??_R1A@?0A@A@IMessageObserver@@8		; IMessageObserver::`RTTI Base Class Descriptor at (0,-1,0,0)'
EXTRN	??_EIMessageObserver@@UAEPAXI@Z:NEAR		; IMessageObserver::`vector deleting destructor'
;	COMDAT ??_7IMessageObserver@@6B@
CONST	SEGMENT
??_7IMessageObserver@@6B@ DD FLAT:??_R4IMessageObserver@@6B@ ; IMessageObserver::`vftable'
	DD	FLAT:??_EIMessageObserver@@UAEPAXI@Z
CONST	ENDS
;	COMDAT ??_R4IMessageObserver@@6B@
rdata$r	SEGMENT
??_R4IMessageObserver@@6B@ DD 00H			; IMessageObserver::`RTTI Complete Object Locator'
	DD	00H
	DD	00H
	DD	FLAT:??_R0?AVIMessageObserver@@@8
	DD	FLAT:??_R3IMessageObserver@@8
rdata$r	ENDS
;	COMDAT ??_R3IMessageObserver@@8
rdata$r	SEGMENT
??_R3IMessageObserver@@8 DD 00H				; IMessageObserver::`RTTI Class Hierarchy Descriptor'
	DD	00H
	DD	01H
	DD	FLAT:??_R2IMessageObserver@@8
rdata$r	ENDS
;	COMDAT ??_R2IMessageObserver@@8
rdata$r	SEGMENT
??_R2IMessageObserver@@8 DD FLAT:??_R1A@?0A@A@IMessageObserver@@8 ; IMessageObserver::`RTTI Base Class Array'
rdata$r	ENDS
;	COMDAT ??_R1A@?0A@A@IMessageObserver@@8
rdata$r	SEGMENT
??_R1A@?0A@A@IMessageObserver@@8 DD FLAT:??_R0?AVIMessageObserver@@@8 ; IMessageObserver::`RTTI Base Class Descriptor at (0,-1,0,0)'
	DD	00H
	DD	00H
	DD	0ffffffffH
	DD	00H
	DD	00H
; Function compile flags: /Odt /RTCsu
rdata$r	ENDS
;	COMDAT ??0IMessageObserver@@QAE@XZ
_TEXT	SEGMENT
_this$ = -4						; size = 4
??0IMessageObserver@@QAE@XZ PROC NEAR			; IMessageObserver::IMessageObserver, COMDAT
; _this$ = ecx
  00000	55		 push	 ebp
  00001	8b ec		 mov	 ebp, esp
  00003	51		 push	 ecx
  00004	c7 45 fc cc cc
	cc cc		 mov	 DWORD PTR [ebp-4], -858993460 ; ccccccccH
  0000b	89 4d fc	 mov	 DWORD PTR _this$[ebp], ecx
  0000e	8b 45 fc	 mov	 eax, DWORD PTR _this$[ebp]
  00011	c7 00 00 00 00
	00		 mov	 DWORD PTR [eax], OFFSET FLAT:??_7IMessageObserver@@6B@
  00017	8b 45 fc	 mov	 eax, DWORD PTR _this$[ebp]
  0001a	8b e5		 mov	 esp, ebp
  0001c	5d		 pop	 ebp
  0001d	c3		 ret	 0
??0IMessageObserver@@QAE@XZ ENDP			; IMessageObserver::IMessageObserver
_TEXT	ENDS
PUBLIC	??_R4IConfUpdateObserver@@6B0@@			; IConfUpdateObserver::`RTTI Complete Object Locator'
PUBLIC	??_R3IConfUpdateObserver@@8			; IConfUpdateObserver::`RTTI Class Hierarchy Descriptor'
PUBLIC	??_R2IConfUpdateObserver@@8			; IConfUpdateObserver::`RTTI Base Class Array'
PUBLIC	??_R4IConfUpdateObserver@@6BIMessageObserver@@@	; IConfUpdateObserver::`RTTI Complete Object Locator'
PUBLIC	??_7IConfUpdateObserver@@6B0@@			; IConfUpdateObserver::`vftable'
PUBLIC	??_7IConfUpdateObserver@@6BIMessageObserver@@@	; IConfUpdateObserver::`vftable'
PUBLIC	??_8IConfUpdateObserver@@7B@			; IConfUpdateObserver::`vbtable'
PUBLIC	??_GIConfUpdateObserver@@UAEPAXI@Z		; IConfUpdateObserver::`scalar deleting destructor'
EXTRN	??_EIConfUpdateObserver@@UAEPAXI@Z:NEAR		; IConfUpdateObserver::`vector deleting destructor'
;	COMDAT ??_8IConfUpdateObserver@@7B@
CONST	SEGMENT
??_8IConfUpdateObserver@@7B@ DD 0fffffffcH		; IConfUpdateObserver::`vbtable'
	DD	04H
CONST	ENDS
;	COMDAT ??_7IConfUpdateObserver@@6B0@@
CONST	SEGMENT
??_7IConfUpdateObserver@@6B0@@ DD FLAT:??_R4IConfUpdateObserver@@6B0@@ ; IConfUpdateObserver::`vftable'
	DD	FLAT:?IConfUpdate_Update@IConfUpdateObserver@@UAEXXZ
	DD	FLAT:?IConfUpdate_ConfigFile@IConfUpdateObserver@@UAEXXZ
	DD	FLAT:?IConfUpdate_CodecSucc@IConfUpdateObserver@@UAEXXZ
CONST	ENDS
;	COMDAT ??_7IConfUpdateObserver@@6BIMessageObserver@@@
CONST	SEGMENT
??_7IConfUpdateObserver@@6BIMessageObserver@@@ DD FLAT:??_R4IConfUpdateObserver@@6BIMessageObserver@@@ ; IConfUpdateObserver::`vftable'
	DD	FLAT:??_EIConfUpdateObserver@@UAEPAXI@Z
CONST	ENDS
;	COMDAT ??_R4IConfUpdateObserver@@6B0@@
rdata$r	SEGMENT
??_R4IConfUpdateObserver@@6B0@@ DD 00H			; IConfUpdateObserver::`RTTI Complete Object Locator'
	DD	00H
	DD	00H
	DD	FLAT:??_R0?AVIConfUpdateObserver@@@8
	DD	FLAT:??_R3IConfUpdateObserver@@8
rdata$r	ENDS
;	COMDAT ??_R3IConfUpdateObserver@@8
rdata$r	SEGMENT
??_R3IConfUpdateObserver@@8 DD 00H			; IConfUpdateObserver::`RTTI Class Hierarchy Descriptor'
	DD	00H
	DD	02H
	DD	FLAT:??_R2IConfUpdateObserver@@8
rdata$r	ENDS
;	COMDAT ??_R2IConfUpdateObserver@@8
rdata$r	SEGMENT
??_R2IConfUpdateObserver@@8 DD FLAT:??_R1A@?0A@A@IConfUpdateObserver@@8 ; IConfUpdateObserver::`RTTI Base Class Array'
	DD	FLAT:??_R1A@33BA@IMessageObserver@@8
rdata$r	ENDS
;	COMDAT ??_R4IConfUpdateObserver@@6BIMessageObserver@@@
rdata$r	SEGMENT
??_R4IConfUpdateObserver@@6BIMessageObserver@@@ DD 00H	; IConfUpdateObserver::`RTTI Complete Object Locator'
	DD	08H
	DD	00H
	DD	FLAT:??_R0?AVIConfUpdateObserver@@@8
	DD	FLAT:??_R3IConfUpdateObserver@@8
; Function compile flags: /Odt /RTCsu
rdata$r	ENDS
;	COMDAT ??0IConfUpdateObserver@@QAE@XZ
_TEXT	SEGMENT
$T189985 = -8						; size = 4
_this$ = -4						; size = 4
_$initVBases$ = 8					; size = 4
??0IConfUpdateObserver@@QAE@XZ PROC NEAR		; IConfUpdateObserver::IConfUpdateObserver, COMDAT
; _this$ = ecx
  00000	55		 push	 ebp
  00001	8b ec		 mov	 ebp, esp
  00003	83 ec 08	 sub	 esp, 8
  00006	c7 45 f8 cc cc
	cc cc		 mov	 DWORD PTR [ebp-8], -858993460 ; ccccccccH
  0000d	c7 45 fc cc cc
	cc cc		 mov	 DWORD PTR [ebp-4], -858993460 ; ccccccccH
  00014	89 4d fc	 mov	 DWORD PTR _this$[ebp], ecx
  00017	c7 45 f8 00 00
	00 00		 mov	 DWORD PTR $T189985[ebp], 0
  0001e	83 7d 08 00	 cmp	 DWORD PTR _$initVBases$[ebp], 0
  00022	74 19		 je	 SHORT $L187656
  00024	8b 45 fc	 mov	 eax, DWORD PTR _this$[ebp]
  00027	c7 40 04 00 00
	00 00		 mov	 DWORD PTR [eax+4], OFFSET FLAT:??_8IConfUpdateObserver@@7B@
  0002e	8b 4d fc	 mov	 ecx, DWORD PTR _this$[ebp]
  00031	83 c1 08	 add	 ecx, 8
  00034	e8 00 00 00 00	 call	 ??0IMessageObserver@@QAE@XZ
  00039	83 4d f8 01	 or	 DWORD PTR $T189985[ebp], 1
$L187656:
  0003d	8b 4d fc	 mov	 ecx, DWORD PTR _this$[ebp]
  00040	c7 01 00 00 00
	00		 mov	 DWORD PTR [ecx], OFFSET FLAT:??_7IConfUpdateObserver@@6B0@@
  00046	8b 55 fc	 mov	 edx, DWORD PTR _this$[ebp]
  00049	8b 42 04	 mov	 eax, DWORD PTR [edx+4]
  0004c	8b 48 04	 mov	 ecx, DWORD PTR [eax+4]
  0004f	8b 55 fc	 mov	 edx, DWORD PTR _this$[ebp]
  00052	c7 44 0a 04 00
	00 00 00	 mov	 DWORD PTR [edx+ecx+4], OFFSET FLAT:??_7IConfUpdateObserver@@6BIMessageObserver@@@
  0005a	8b 45 fc	 mov	 eax, DWORD PTR _this$[ebp]
  0005d	83 c4 08	 add	 esp, 8
  00060	3b ec		 cmp	 ebp, esp
  00062	e8 00 00 00 00	 call	 __RTC_CheckEsp
  00067	8b e5		 mov	 esp, ebp
  00069	5d		 pop	 ebp
  0006a	c2 04 00	 ret	 4
??0IConfUpdateObserver@@QAE@XZ ENDP			; IConfUpdateObserver::IConfUpdateObserver
; Function compile flags: /Odt /RTCsu
_TEXT	ENDS
;	COMDAT ??1IConfUpdateObserver@@UAE@XZ
_TEXT	SEGMENT
_this$ = -4						; size = 4
??1IConfUpdateObserver@@UAE@XZ PROC NEAR		; IConfUpdateObserver::~IConfUpdateObserver, COMDAT
; _this$ = ecx
  00000	55		 push	 ebp
  00001	8b ec		 mov	 ebp, esp
  00003	51		 push	 ecx
  00004	c7 45 fc cc cc
	cc cc		 mov	 DWORD PTR [ebp-4], -858993460 ; ccccccccH
  0000b	89 4d fc	 mov	 DWORD PTR _this$[ebp], ecx
  0000e	8b e5		 mov	 esp, ebp
  00010	5d		 pop	 ebp
  00011	c3		 ret	 0
??1IConfUpdateObserver@@UAE@XZ ENDP			; IConfUpdateObserver::~IConfUpdateObserver
_TEXT	ENDS
PUBLIC	??0IData@@QAE@XZ				; IData::IData
; Function compile flags: /Odt /RTCsu
;	COMDAT ??0IAdData@@QAE@XZ
_TEXT	SEGMENT
_this$ = -4						; size = 4
??0IAdData@@QAE@XZ PROC NEAR				; IAdData::IAdData, COMDAT
; _this$ = ecx
  00000	55		 push	 ebp
  00001	8b ec		 mov	 ebp, esp
  00003	51		 push	 ecx
  00004	c7 45 fc cc cc
	cc cc		 mov	 DWORD PTR [ebp-4], -858993460 ; ccccccccH
  0000b	89 4d fc	 mov	 DWORD PTR _this$[ebp], ecx
  0000e	8b 4d fc	 mov	 ecx, DWORD PTR _this$[ebp]
  00011	e8 00 00 00 00	 call	 ??0IData@@QAE@XZ
  00016	8b 45 fc	 mov	 eax, DWORD PTR _this$[ebp]
  00019	c7 00 00 00 00
	00		 mov	 DWORD PTR [eax], OFFSET FLAT:??_7IAdData@@6B@
  0001f	8b 45 fc	 mov	 eax, DWORD PTR _this$[ebp]
  00022	83 c4 04	 add	 esp, 4
  00025	3b ec		 cmp	 ebp, esp
  00027	e8 00 00 00 00	 call	 __RTC_CheckEsp
  0002c	8b e5		 mov	 esp, ebp
  0002e	5d		 pop	 ebp
  0002f	c3		 ret	 0
??0IAdData@@QAE@XZ ENDP					; IAdData::IAdData
_TEXT	ENDS
PUBLIC	??_DIConfUpdateObserver@@QAEXXZ			; IConfUpdateObserver::`vbase destructor'
; Function compile flags: /Odt /RTCsu
;	COMDAT ??_GIConfUpdateObserver@@UAEPAXI@Z
_TEXT	SEGMENT
_this$ = -4						; size = 4
___flags$ = 8						; size = 4
??_GIConfUpdateObserver@@UAEPAXI@Z PROC NEAR		; IConfUpdateObserver::`scalar deleting destructor', COMDAT
; _this$ = ecx
  00000	55		 push	 ebp
  00001	8b ec		 mov	 ebp, esp
  00003	51		 push	 ecx
  00004	c7 45 fc cc cc
	cc cc		 mov	 DWORD PTR [ebp-4], -858993460 ; ccccccccH
  0000b	89 4d fc	 mov	 DWORD PTR _this$[ebp], ecx
  0000e	8b 4d fc	 mov	 ecx, DWORD PTR _this$[ebp]
  00011	83 e9 08	 sub	 ecx, 8
  00014	e8 00 00 00 00	 call	 ??_DIConfUpdateObserver@@QAEXXZ
  00019	8b 45 08	 mov	 eax, DWORD PTR ___flags$[ebp]
  0001c	83 e0 01	 and	 eax, 1
  0001f	74 0f		 je	 SHORT $L187666
  00021	8b 4d fc	 mov	 ecx, DWORD PTR _this$[ebp]
  00024	83 e9 08	 sub	 ecx, 8
  00027	51		 push	 ecx
  00028	e8 00 00 00 00	 call	 ??3@YAXPAX@Z		; operator delete
  0002d	83 c4 04	 add	 esp, 4
$L187666:
  00030	8b 45 fc	 mov	 eax, DWORD PTR _this$[ebp]
  00033	83 e8 08	 sub	 eax, 8
  00036	83 c4 04	 add	 esp, 4
  00039	3b ec		 cmp	 ebp, esp
  0003b	e8 00 00 00 00	 call	 __RTC_CheckEsp
  00040	8b e5		 mov	 esp, ebp
  00042	5d		 pop	 ebp
  00043	c2 04 00	 ret	 4
??_GIConfUpdateObserver@@UAEPAXI@Z ENDP			; IConfUpdateObserver::`scalar deleting destructor'
; Function compile flags: /Odt /RTCsu
_TEXT	ENDS
;	COMDAT ??0IData@@QAE@XZ
_TEXT	SEGMENT
_this$ = -4						; size = 4
??0IData@@QAE@XZ PROC NEAR				; IData::IData, COMDAT
; _this$ = ecx
  00000	55		 push	 ebp
  00001	8b ec		 mov	 ebp, esp
  00003	51		 push	 ecx
  00004	c7 45 fc cc cc
	cc cc		 mov	 DWORD PTR [ebp-4], -858993460 ; ccccccccH
  0000b	89 4d fc	 mov	 DWORD PTR _this$[ebp], ecx
  0000e	8b 45 fc	 mov	 eax, DWORD PTR _this$[ebp]
  00011	c7 00 00 00 00
	00		 mov	 DWORD PTR [eax], OFFSET FLAT:??_7IData@@6B@
  00017	8b 45 fc	 mov	 eax, DWORD PTR _this$[ebp]
  0001a	8b e5		 mov	 esp, ebp
  0001c	5d		 pop	 ebp
  0001d	c3		 ret	 0
??0IData@@QAE@XZ ENDP					; IData::IData
; Function compile flags: /Odt /RTCsu
_TEXT	ENDS
;	COMDAT ??_DIConfUpdateObserver@@QAEXXZ
_TEXT	SEGMENT
_this$ = -4						; size = 4
??_DIConfUpdateObserver@@QAEXXZ PROC NEAR		; IConfUpdateObserver::`vbase destructor', COMDAT
; _this$ = ecx
  00000	55		 push	 ebp
  00001	8b ec		 mov	 ebp, esp
  00003	51		 push	 ecx
  00004	c7 45 fc cc cc
	cc cc		 mov	 DWORD PTR [ebp-4], -858993460 ; ccccccccH
  0000b	89 4d fc	 mov	 DWORD PTR _this$[ebp], ecx
  0000e	8b 4d fc	 mov	 ecx, DWORD PTR _this$[ebp]
  00011	83 c1 08	 add	 ecx, 8
  00014	e8 00 00 00 00	 call	 ??1IConfUpdateObserver@@UAE@XZ
  00019	8b 4d fc	 mov	 ecx, DWORD PTR _this$[ebp]
  0001c	83 c1 08	 add	 ecx, 8
  0001f	e8 00 00 00 00	 call	 ??1IMessageObserver@@UAE@XZ ; IMessageObserver::~IMessageObserver
  00024	83 c4 04	 add	 esp, 4
  00027	3b ec		 cmp	 ebp, esp
  00029	e8 00 00 00 00	 call	 __RTC_CheckEsp
  0002e	8b e5		 mov	 esp, ebp
  00030	5d		 pop	 ebp
  00031	c3		 ret	 0
??_DIConfUpdateObserver@@QAEXXZ ENDP			; IConfUpdateObserver::`vbase destructor'
_TEXT	ENDS
PUBLIC	??1CDownAD@@UAE@XZ				; CDownAD::~CDownAD
xdata$x	SEGMENT
$T190002 DD	0ffffffffH
	DD	FLAT:$L189994
	DD	00H
	DD	FLAT:$L189997
$T190000 DD	019930520H
	DD	02H
	DD	FLAT:$T190002
	DD	2 DUP(00H)
	DD	2 DUP(00H)
; Function compile flags: /Odt /RTCsu
; File d:\boxgit\playbox\playbox\dev\prj\playbox\src\module\downad\downad.cpp
xdata$x	ENDS
_TEXT	SEGMENT
tv73 = -20						; size = 4
_this$ = -16						; size = 4
__$EHRec$ = -12						; size = 12
??1CDownAD@@UAE@XZ PROC NEAR				; CDownAD::~CDownAD
; _this$ = ecx

; 20   : {

  00100	55		 push	 ebp
  00101	8b ec		 mov	 ebp, esp
  00103	6a ff		 push	 -1
  00105	68 00 00 00 00	 push	 __ehhandler$??1CDownAD@@UAE@XZ
  0010a	64 a1 00 00 00
	00		 mov	 eax, DWORD PTR fs:__except_list
  00110	50		 push	 eax
  00111	64 89 25 00 00
	00 00		 mov	 DWORD PTR fs:__except_list, esp
  00118	83 ec 08	 sub	 esp, 8
  0011b	c7 45 ec cc cc
	cc cc		 mov	 DWORD PTR [ebp-20], -858993460 ; ccccccccH
  00122	c7 45 f0 cc cc
	cc cc		 mov	 DWORD PTR [ebp-16], -858993460 ; ccccccccH
  00129	89 4d f0	 mov	 DWORD PTR _this$[ebp], ecx
  0012c	8b 45 f0	 mov	 eax, DWORD PTR _this$[ebp]
  0012f	c7 00 00 00 00
	00		 mov	 DWORD PTR [eax], OFFSET FLAT:??_7CDownAD@@6BIConfUpdateObserver@@@
  00135	8b 4d f0	 mov	 ecx, DWORD PTR _this$[ebp]
  00138	c7 41 08 00 00
	00 00		 mov	 DWORD PTR [ecx+8], OFFSET FLAT:??_7CDownAD@@6B@
  0013f	8b 55 f0	 mov	 edx, DWORD PTR _this$[ebp]
  00142	8b 42 04	 mov	 eax, DWORD PTR [edx+4]
  00145	8b 48 04	 mov	 ecx, DWORD PTR [eax+4]
  00148	8b 55 f0	 mov	 edx, DWORD PTR _this$[ebp]
  0014b	c7 44 0a 04 00
	00 00 00	 mov	 DWORD PTR [edx+ecx+4], OFFSET FLAT:??_7CDownAD@@6BIMessageObserver@@@
  00153	c7 45 fc 01 00
	00 00		 mov	 DWORD PTR __$EHRec$[ebp+8], 1

; 21   : }

  0015a	8b 4d f0	 mov	 ecx, DWORD PTR _this$[ebp]
  0015d	83 c1 14	 add	 ecx, 20			; 00000014H
  00160	e8 00 00 00 00	 call	 ??1?$vector@UAD_STRUCT@@V?$allocator@UAD_STRUCT@@@std@@@std@@QAE@XZ ; std::vector<AD_STRUCT,std::allocator<AD_STRUCT> >::~vector<AD_STRUCT,std::allocator<AD_STRUCT> >
  00165	c6 45 fc 00	 mov	 BYTE PTR __$EHRec$[ebp+8], 0
  00169	83 7d f0 00	 cmp	 DWORD PTR _this$[ebp], 0
  0016d	74 0b		 je	 SHORT $L189992
  0016f	8b 45 f0	 mov	 eax, DWORD PTR _this$[ebp]
  00172	83 c0 08	 add	 eax, 8
  00175	89 45 ec	 mov	 DWORD PTR tv73[ebp], eax
  00178	eb 07		 jmp	 SHORT $L189993
$L189992:
  0017a	c7 45 ec 00 00
	00 00		 mov	 DWORD PTR tv73[ebp], 0
$L189993:
  00181	8b 4d ec	 mov	 ecx, DWORD PTR tv73[ebp]
  00184	e8 00 00 00 00	 call	 ??1IAdData@@MAE@XZ	; IAdData::~IAdData
  00189	c7 45 fc ff ff
	ff ff		 mov	 DWORD PTR __$EHRec$[ebp+8], -1
  00190	8b 4d f0	 mov	 ecx, DWORD PTR _this$[ebp]
  00193	83 c1 08	 add	 ecx, 8
  00196	e8 00 00 00 00	 call	 ??1IConfUpdateObserver@@UAE@XZ
  0019b	8b 4d f4	 mov	 ecx, DWORD PTR __$EHRec$[ebp]
  0019e	64 89 0d 00 00
	00 00		 mov	 DWORD PTR fs:__except_list, ecx
  001a5	83 c4 14	 add	 esp, 20			; 00000014H
  001a8	3b ec		 cmp	 ebp, esp
  001aa	e8 00 00 00 00	 call	 __RTC_CheckEsp
  001af	8b e5		 mov	 esp, ebp
  001b1	5d		 pop	 ebp
  001b2	c3		 ret	 0
_TEXT	ENDS
text$x	SEGMENT
$L189994:
  00047	8b 4d f0	 mov	 ecx, DWORD PTR _this$[ebp]
  0004a	83 c1 08	 add	 ecx, 8
  0004d	e9 00 00 00 00	 jmp	 ??1IConfUpdateObserver@@UAE@XZ
$L189997:
  00052	83 7d f0 00	 cmp	 DWORD PTR _this$[ebp], 0
  00056	0f 84 0e 00 00
	00		 je	 $L189995
  0005c	8b 45 f0	 mov	 eax, DWORD PTR _this$[ebp]
  0005f	83 c0 08	 add	 eax, 8
  00062	89 45 ec	 mov	 DWORD PTR tv73[ebp], eax
  00065	e9 07 00 00 00	 jmp	 $L189996
$L189995:
  0006a	c7 45 ec 00 00
	00 00		 mov	 DWORD PTR tv73[ebp], 0
$L189996:
  00071	8b 4d ec	 mov	 ecx, DWORD PTR tv73[ebp]
  00074	e9 00 00 00 00	 jmp	 ??1IAdData@@MAE@XZ	; IAdData::~IAdData
__ehhandler$??1CDownAD@@UAE@XZ:
  00079	b8 00 00 00 00	 mov	 eax, OFFSET FLAT:$T190000
  0007e	e9 00 00 00 00	 jmp	 ___CxxFrameHandler
text$x	ENDS
??1CDownAD@@UAE@XZ ENDP					; CDownAD::~CDownAD
PUBLIC	?GetInstance@CDownAD@@SAPAV1@XZ			; CDownAD::GetInstance
EXTRN	??2@YAPAXI@Z:NEAR				; operator new
xdata$x	SEGMENT
$T190012 DD	0ffffffffH
	DD	FLAT:$L190008
$T190010 DD	019930520H
	DD	01H
	DD	FLAT:$T190012
	DD	2 DUP(00H)
	DD	2 DUP(00H)
; Function compile flags: /Odt /RTCsu
xdata$x	ENDS
_TEXT	SEGMENT
tv73 = -24						; size = 4
$T190005 = -20						; size = 4
$T190004 = -16						; size = 4
__$EHRec$ = -12						; size = 12
?GetInstance@CDownAD@@SAPAV1@XZ PROC NEAR		; CDownAD::GetInstance

; 24   : {

  001c0	55		 push	 ebp
  001c1	8b ec		 mov	 ebp, esp
  001c3	6a ff		 push	 -1
  001c5	68 00 00 00 00	 push	 __ehhandler$?GetInstance@CDownAD@@SAPAV1@XZ
  001ca	64 a1 00 00 00
	00		 mov	 eax, DWORD PTR fs:__except_list
  001d0	50		 push	 eax
  001d1	64 89 25 00 00
	00 00		 mov	 DWORD PTR fs:__except_list, esp
  001d8	83 ec 0c	 sub	 esp, 12			; 0000000cH
  001db	c7 45 e8 cc cc
	cc cc		 mov	 DWORD PTR [ebp-24], -858993460 ; ccccccccH
  001e2	c7 45 ec cc cc
	cc cc		 mov	 DWORD PTR [ebp-20], -858993460 ; ccccccccH
  001e9	c7 45 f0 cc cc
	cc cc		 mov	 DWORD PTR [ebp-16], -858993460 ; ccccccccH

; 25   : 	if( m_pDownAD == NULL )

  001f0	83 3d 00 00 00
	00 00		 cmp	 DWORD PTR ?m_pDownAD@CDownAD@@2PAV1@A, 0 ; CDownAD::m_pDownAD
  001f7	75 50		 jne	 SHORT $L187677

; 26   : 	{
; 27   : 		m_pDownAD = new CDownAD();

  001f9	6a 2c		 push	 44			; 0000002cH
  001fb	e8 00 00 00 00	 call	 ??2@YAPAXI@Z		; operator new
  00200	83 c4 04	 add	 esp, 4
  00203	89 45 ec	 mov	 DWORD PTR $T190005[ebp], eax
  00206	c7 45 fc 00 00
	00 00		 mov	 DWORD PTR __$EHRec$[ebp+8], 0
  0020d	83 7d ec 00	 cmp	 DWORD PTR $T190005[ebp], 0
  00211	74 0f		 je	 SHORT $L190006
  00213	6a 01		 push	 1
  00215	8b 4d ec	 mov	 ecx, DWORD PTR $T190005[ebp]
  00218	e8 00 00 00 00	 call	 ??0CDownAD@@QAE@XZ	; CDownAD::CDownAD
  0021d	89 45 e8	 mov	 DWORD PTR tv73[ebp], eax
  00220	eb 07		 jmp	 SHORT $L190007
$L190006:
  00222	c7 45 e8 00 00
	00 00		 mov	 DWORD PTR tv73[ebp], 0
$L190007:
  00229	8b 45 e8	 mov	 eax, DWORD PTR tv73[ebp]
  0022c	89 45 f0	 mov	 DWORD PTR $T190004[ebp], eax
  0022f	c7 45 fc ff ff
	ff ff		 mov	 DWORD PTR __$EHRec$[ebp+8], -1
  00236	8b 4d f0	 mov	 ecx, DWORD PTR $T190004[ebp]
  00239	89 0d 00 00 00
	00		 mov	 DWORD PTR ?m_pDownAD@CDownAD@@2PAV1@A, ecx ; CDownAD::m_pDownAD

; 28   : 		m_pDownAD->m_bGetAdData = false;

  0023f	8b 15 00 00 00
	00		 mov	 edx, DWORD PTR ?m_pDownAD@CDownAD@@2PAV1@A ; CDownAD::m_pDownAD
  00245	c6 42 10 00	 mov	 BYTE PTR [edx+16], 0
$L187677:

; 29   : 	}
; 30   : 	return m_pDownAD;

  00249	a1 00 00 00 00	 mov	 eax, DWORD PTR ?m_pDownAD@CDownAD@@2PAV1@A ; CDownAD::m_pDownAD

; 31   : }

  0024e	8b 4d f4	 mov	 ecx, DWORD PTR __$EHRec$[ebp]
  00251	64 89 0d 00 00
	00 00		 mov	 DWORD PTR fs:__except_list, ecx
  00258	83 c4 18	 add	 esp, 24			; 00000018H
  0025b	3b ec		 cmp	 ebp, esp
  0025d	e8 00 00 00 00	 call	 __RTC_CheckEsp
  00262	8b e5		 mov	 esp, ebp
  00264	5d		 pop	 ebp
  00265	c3		 ret	 0
_TEXT	ENDS
text$x	SEGMENT
$L190008:
  00083	8b 45 ec	 mov	 eax, DWORD PTR $T190005[ebp]
  00086	50		 push	 eax
  00087	e8 00 00 00 00	 call	 ??3@YAXPAX@Z		; operator delete
  0008c	59		 pop	 ecx
  0008d	c3		 ret	 0
__ehhandler$?GetInstance@CDownAD@@SAPAV1@XZ:
  0008e	b8 00 00 00 00	 mov	 eax, OFFSET FLAT:$T190010
  00093	e9 00 00 00 00	 jmp	 ___CxxFrameHandler
text$x	ENDS
?GetInstance@CDownAD@@SAPAV1@XZ ENDP			; CDownAD::GetInstance
EXTRN	__imp__CreateThread@24:NEAR
EXTRN	__imp_??0?$basic_string@DU?$char_traits@D@std@@V?$allocator@D@2@@std@@QAE@PBD@Z:NEAR
EXTRN	__imp_??1?$basic_string@DU?$char_traits@D@std@@V?$allocator@D@2@@std@@QAE@XZ:NEAR
EXTRN	__imp_?YL_Log@@YAXABV?$basic_string@DU?$char_traits@D@std@@V?$allocator@D@2@@std@@H0PBDZZ:NEAR
xdata$x	SEGMENT
$T190025 DD	0ffffffffH
	DD	FLAT:$L190018
	DD	00H
	DD	FLAT:$L190019
	DD	0ffffffffH
	DD	FLAT:$L190020
	DD	02H
	DD	FLAT:$L190021
$T190023 DD	019930520H
	DD	04H
	DD	FLAT:$T190025
	DD	2 DUP(00H)
	DD	2 DUP(00H)
; Function compile flags: /Odt /RTCsu
xdata$x	ENDS
_TEXT	SEGMENT
$T190017 = -128						; size = 28
$T190016 = -100						; size = 28
$T190015 = -72						; size = 28
$T190014 = -44						; size = 28
_this$ = -16						; size = 4
__$EHRec$ = -12						; size = 12
?DataAppStart@CDownAD@@UAEXXZ PROC NEAR			; CDownAD::DataAppStart
; _this$ = ecx

; 73   : {

  00270	55		 push	 ebp
  00271	8b ec		 mov	 ebp, esp
  00273	6a ff		 push	 -1
  00275	68 00 00 00 00	 push	 __ehhandler$?DataAppStart@CDownAD@@UAEXXZ
  0027a	64 a1 00 00 00
	00		 mov	 eax, DWORD PTR fs:__except_list
  00280	50		 push	 eax
  00281	64 89 25 00 00
	00 00		 mov	 DWORD PTR fs:__except_list, esp
  00288	83 ec 74	 sub	 esp, 116		; 00000074H
  0028b	56		 push	 esi
  0028c	57		 push	 edi
  0028d	51		 push	 ecx
  0028e	8d 7d 80	 lea	 edi, DWORD PTR [ebp-128]
  00291	b9 1d 00 00 00	 mov	 ecx, 29			; 0000001dH
  00296	b8 cc cc cc cc	 mov	 eax, -858993460		; ccccccccH
  0029b	f3 ab		 rep stosd
  0029d	59		 pop	 ecx
  0029e	89 4d f0	 mov	 DWORD PTR _this$[ebp], ecx

; 74   : 	YL_Log( STR_LOG_FILE,LOG_NOTICE,"CDownAD","DataAppStart");

  002a1	8b f4		 mov	 esi, esp
  002a3	68 00 00 00 00	 push	 OFFSET FLAT:$SG187723
  002a8	8d 4d d4	 lea	 ecx, DWORD PTR $T190014[ebp]
  002ab	ff 15 00 00 00
	00		 call	 DWORD PTR __imp_??0?$basic_string@DU?$char_traits@D@std@@V?$allocator@D@2@@std@@QAE@PBD@Z
  002b1	3b f4		 cmp	 esi, esp
  002b3	e8 00 00 00 00	 call	 __RTC_CheckEsp
  002b8	c7 45 fc 00 00
	00 00		 mov	 DWORD PTR __$EHRec$[ebp+8], 0
  002bf	8b f4		 mov	 esi, esp
  002c1	68 00 00 00 00	 push	 OFFSET FLAT:$SG187724
  002c6	8d 4d b8	 lea	 ecx, DWORD PTR $T190015[ebp]
  002c9	ff 15 00 00 00
	00		 call	 DWORD PTR __imp_??0?$basic_string@DU?$char_traits@D@std@@V?$allocator@D@2@@std@@QAE@PBD@Z
  002cf	3b f4		 cmp	 esi, esp
  002d1	e8 00 00 00 00	 call	 __RTC_CheckEsp
  002d6	c6 45 fc 01	 mov	 BYTE PTR __$EHRec$[ebp+8], 1
  002da	8b f4		 mov	 esi, esp
  002dc	68 00 00 00 00	 push	 OFFSET FLAT:$SG187722
  002e1	8d 45 d4	 lea	 eax, DWORD PTR $T190014[ebp]
  002e4	50		 push	 eax
  002e5	6a 01		 push	 1
  002e7	8d 4d b8	 lea	 ecx, DWORD PTR $T190015[ebp]
  002ea	51		 push	 ecx
  002eb	ff 15 00 00 00
	00		 call	 DWORD PTR __imp_?YL_Log@@YAXABV?$basic_string@DU?$char_traits@D@std@@V?$allocator@D@2@@std@@H0PBDZZ
  002f1	83 c4 10	 add	 esp, 16			; 00000010H
  002f4	3b f4		 cmp	 esi, esp
  002f6	e8 00 00 00 00	 call	 __RTC_CheckEsp
  002fb	c6 45 fc 00	 mov	 BYTE PTR __$EHRec$[ebp+8], 0
  002ff	8b f4		 mov	 esi, esp
  00301	8d 4d b8	 lea	 ecx, DWORD PTR $T190015[ebp]
  00304	ff 15 00 00 00
	00		 call	 DWORD PTR __imp_??1?$basic_string@DU?$char_traits@D@std@@V?$allocator@D@2@@std@@QAE@XZ
  0030a	3b f4		 cmp	 esi, esp
  0030c	e8 00 00 00 00	 call	 __RTC_CheckEsp
  00311	c7 45 fc ff ff
	ff ff		 mov	 DWORD PTR __$EHRec$[ebp+8], -1
  00318	8b f4		 mov	 esi, esp
  0031a	8d 4d d4	 lea	 ecx, DWORD PTR $T190014[ebp]
  0031d	ff 15 00 00 00
	00		 call	 DWORD PTR __imp_??1?$basic_string@DU?$char_traits@D@std@@V?$allocator@D@2@@std@@QAE@XZ
  00323	3b f4		 cmp	 esi, esp
  00325	e8 00 00 00 00	 call	 __RTC_CheckEsp

; 75   : 	// 
; 76   : 	m_hThreadDown = CreateThread(0,0,Thread_DownZip,0,0,0);

  0032a	8b f4		 mov	 esi, esp
  0032c	6a 00		 push	 0
  0032e	6a 00		 push	 0
  00330	6a 00		 push	 0
  00332	68 00 00 00 00	 push	 OFFSET FLAT:?Thread_DownZip@@YGKPAX@Z ; Thread_DownZip
  00337	6a 00		 push	 0
  00339	6a 00		 push	 0
  0033b	ff 15 00 00 00
	00		 call	 DWORD PTR __imp__CreateThread@24
  00341	3b f4		 cmp	 esi, esp
  00343	e8 00 00 00 00	 call	 __RTC_CheckEsp
  00348	8b 55 f0	 mov	 edx, DWORD PTR _this$[ebp]
  0034b	89 42 04	 mov	 DWORD PTR [edx+4], eax

; 77   : 	YL_Log( STR_LOG_FILE,LOG_NOTICE,"CDownAD","DataAppStart--OUT");

  0034e	8b f4		 mov	 esi, esp
  00350	68 00 00 00 00	 push	 OFFSET FLAT:$SG187728
  00355	8d 4d 9c	 lea	 ecx, DWORD PTR $T190016[ebp]
  00358	ff 15 00 00 00
	00		 call	 DWORD PTR __imp_??0?$basic_string@DU?$char_traits@D@std@@V?$allocator@D@2@@std@@QAE@PBD@Z
  0035e	3b f4		 cmp	 esi, esp
  00360	e8 00 00 00 00	 call	 __RTC_CheckEsp
  00365	c7 45 fc 02 00
	00 00		 mov	 DWORD PTR __$EHRec$[ebp+8], 2
  0036c	8b f4		 mov	 esi, esp
  0036e	68 00 00 00 00	 push	 OFFSET FLAT:$SG187729
  00373	8d 4d 80	 lea	 ecx, DWORD PTR $T190017[ebp]
  00376	ff 15 00 00 00
	00		 call	 DWORD PTR __imp_??0?$basic_string@DU?$char_traits@D@std@@V?$allocator@D@2@@std@@QAE@PBD@Z
  0037c	3b f4		 cmp	 esi, esp
  0037e	e8 00 00 00 00	 call	 __RTC_CheckEsp
  00383	c6 45 fc 03	 mov	 BYTE PTR __$EHRec$[ebp+8], 3
  00387	8b f4		 mov	 esi, esp
  00389	68 00 00 00 00	 push	 OFFSET FLAT:$SG187727
  0038e	8d 45 9c	 lea	 eax, DWORD PTR $T190016[ebp]
  00391	50		 push	 eax
  00392	6a 01		 push	 1
  00394	8d 4d 80	 lea	 ecx, DWORD PTR $T190017[ebp]
  00397	51		 push	 ecx
  00398	ff 15 00 00 00
	00		 call	 DWORD PTR __imp_?YL_Log@@YAXABV?$basic_string@DU?$char_traits@D@std@@V?$allocator@D@2@@std@@H0PBDZZ
  0039e	83 c4 10	 add	 esp, 16			; 00000010H
  003a1	3b f4		 cmp	 esi, esp
  003a3	e8 00 00 00 00	 call	 __RTC_CheckEsp
  003a8	c6 45 fc 02	 mov	 BYTE PTR __$EHRec$[ebp+8], 2
  003ac	8b f4		 mov	 esi, esp
  003ae	8d 4d 80	 lea	 ecx, DWORD PTR $T190017[ebp]
  003b1	ff 15 00 00 00
	00		 call	 DWORD PTR __imp_??1?$basic_string@DU?$char_traits@D@std@@V?$allocator@D@2@@std@@QAE@XZ
  003b7	3b f4		 cmp	 esi, esp
  003b9	e8 00 00 00 00	 call	 __RTC_CheckEsp
  003be	c7 45 fc ff ff
	ff ff		 mov	 DWORD PTR __$EHRec$[ebp+8], -1
  003c5	8b f4		 mov	 esi, esp
  003c7	8d 4d 9c	 lea	 ecx, DWORD PTR $T190016[ebp]
  003ca	ff 15 00 00 00
	00		 call	 DWORD PTR __imp_??1?$basic_string@DU?$char_traits@D@std@@V?$allocator@D@2@@std@@QAE@XZ
  003d0	3b f4		 cmp	 esi, esp
  003d2	e8 00 00 00 00	 call	 __RTC_CheckEsp

; 78   : }

  003d7	8b 4d f4	 mov	 ecx, DWORD PTR __$EHRec$[ebp]
  003da	64 89 0d 00 00
	00 00		 mov	 DWORD PTR fs:__except_list, ecx
  003e1	5f		 pop	 edi
  003e2	5e		 pop	 esi
  003e3	81 c4 80 00 00
	00		 add	 esp, 128		; 00000080H
  003e9	3b ec		 cmp	 ebp, esp
  003eb	e8 00 00 00 00	 call	 __RTC_CheckEsp
  003f0	8b e5		 mov	 esp, ebp
  003f2	5d		 pop	 ebp
  003f3	c3		 ret	 0
_TEXT	ENDS
text$x	SEGMENT
$L190018:
  00098	8b f4		 mov	 esi, esp
  0009a	8d 4d d4	 lea	 ecx, DWORD PTR $T190014[ebp]
  0009d	ff 15 00 00 00
	00		 call	 DWORD PTR __imp_??1?$basic_string@DU?$char_traits@D@std@@V?$allocator@D@2@@std@@QAE@XZ
  000a3	3b f4		 cmp	 esi, esp
  000a5	e9 00 00 00 00	 jmp	 __RTC_CheckEsp
$L190019:
  000aa	8b f4		 mov	 esi, esp
  000ac	8d 4d b8	 lea	 ecx, DWORD PTR $T190015[ebp]
  000af	ff 15 00 00 00
	00		 call	 DWORD PTR __imp_??1?$basic_string@DU?$char_traits@D@std@@V?$allocator@D@2@@std@@QAE@XZ
  000b5	3b f4		 cmp	 esi, esp
  000b7	e9 00 00 00 00	 jmp	 __RTC_CheckEsp
$L190020:
  000bc	8b f4		 mov	 esi, esp
  000be	8d 4d 9c	 lea	 ecx, DWORD PTR $T190016[ebp]
  000c1	ff 15 00 00 00
	00		 call	 DWORD PTR __imp_??1?$basic_string@DU?$char_traits@D@std@@V?$allocator@D@2@@std@@QAE@XZ
  000c7	3b f4		 cmp	 esi, esp
  000c9	e9 00 00 00 00	 jmp	 __RTC_CheckEsp
$L190021:
  000ce	8b f4		 mov	 esi, esp
  000d0	8d 4d 80	 lea	 ecx, DWORD PTR $T190017[ebp]
  000d3	ff 15 00 00 00
	00		 call	 DWORD PTR __imp_??1?$basic_string@DU?$char_traits@D@std@@V?$allocator@D@2@@std@@QAE@XZ
  000d9	3b f4		 cmp	 esi, esp
  000db	e9 00 00 00 00	 jmp	 __RTC_CheckEsp
__ehhandler$?DataAppStart@CDownAD@@UAEXXZ:
  000e0	b8 00 00 00 00	 mov	 eax, OFFSET FLAT:$T190023
  000e5	e9 00 00 00 00	 jmp	 ___CxxFrameHandler
text$x	ENDS
?DataAppStart@CDownAD@@UAEXXZ ENDP			; CDownAD::DataAppStart
PUBLIC	?DownZipFinish@CDownAD@@QAEXPAXI@Z		; CDownAD::DownZipFinish
PUBLIC	?ZipResReady@CDownAD@@QAEXH@Z			; CDownAD::ZipResReady
EXTRN	?HTTPWait_AD@CHTTPControl@@SAXXZ:NEAR		; CHTTPControl::HTTPWait_AD
EXTRN	?HTTPFinish_DownAD@CHTTPControl@@SAXXZ:NEAR	; CHTTPControl::HTTPFinish_DownAD
EXTRN	__imp_??0YL_CHTTPRequest@@QAE@XZ:NEAR
EXTRN	__imp_??1YL_CHTTPRequest@@QAE@XZ:NEAR
EXTRN	__imp_?Request@YL_CHTTPRequest@@QAE_NABV?$basic_string@DU?$char_traits@D@std@@V?$allocator@D@2@@std@@W4REQUEST_TYPE@1@JPAEI@Z:NEAR
EXTRN	__imp_?GetContent@YL_CHTTPRequest@@QAEPAEAAJ@Z:NEAR
EXTRN	?GetAdDataServer@CLhcImg@@SA_NAAV?$basic_string@DU?$char_traits@D@std@@V?$allocator@D@2@@std@@@Z:NEAR ; CLhcImg::GetAdDataServer
EXTRN	?CheckUpdateADData@CLhcImg@@SA_NXZ:NEAR		; CLhcImg::CheckUpdateADData
EXTRN	__imp_??0?$basic_string@DU?$char_traits@D@std@@V?$allocator@D@2@@std@@QAE@XZ:NEAR
EXTRN	__imp_??4?$basic_string@DU?$char_traits@D@std@@V?$allocator@D@2@@std@@QAEAAV01@PBD@Z:NEAR
EXTRN	___security_cookie:DWORD
EXTRN	@_RTC_CheckStackVars@8:NEAR
EXTRN	@__security_check_cookie@4:NEAR
EXTRN	__imp_?c_str@?$basic_string@DU?$char_traits@D@std@@V?$allocator@D@2@@std@@QBEPBDXZ:NEAR
xdata$x	SEGMENT
$T190061 DD	0ffffffffH
	DD	FLAT:$L190038
	DD	00H
	DD	FLAT:$L190039
	DD	0ffffffffH
	DD	FLAT:$L190040
	DD	02H
	DD	FLAT:$L190041
	DD	03H
	DD	FLAT:$L190042
	DD	03H
	DD	FLAT:$L190043
	DD	05H
	DD	FLAT:$L190044
	DD	03H
	DD	FLAT:$L190045
	DD	07H
	DD	FLAT:$L190046
	DD	0ffffffffH
	DD	FLAT:$L190047
	DD	09H
	DD	FLAT:$L190048
$T190050 DD	019930520H
	DD	0bH
	DD	FLAT:$T190061
	DD	2 DUP(00H)
	DD	2 DUP(00H)
; Function compile flags: /Odt /RTCsu
xdata$x	ENDS
_TEXT	SEGMENT
$T190037 = -336						; size = 28
$T190036 = -308						; size = 28
$T190035 = -280						; size = 28
$T190034 = -252						; size = 28
$T190033 = -224						; size = 28
$T190032 = -196						; size = 28
$T190031 = -168						; size = 28
$T190030 = -137						; size = 1
$T190029 = -136						; size = 28
$T190028 = -108						; size = 28
_pContent$187705 = -80					; size = 4
_lConLen$187704 = -72					; size = 4
_strSvr$187693 = -60					; size = 28
_http$187692 = -24					; size = 4
__$ArrayPad$ = -16					; size = 4
__$EHRec$ = -12						; size = 12
__$ReturnAddr$ = 4					; size = 4
_ppar$ = 8						; size = 4
?Thread_DownZip@@YGKPAX@Z PROC NEAR			; Thread_DownZip

; 34   : {

  00400	55		 push	 ebp
  00401	8b ec		 mov	 ebp, esp
  00403	6a ff		 push	 -1
  00405	68 00 00 00 00	 push	 __ehhandler$?Thread_DownZip@@YGKPAX@Z
  0040a	64 a1 00 00 00
	00		 mov	 eax, DWORD PTR fs:__except_list
  00410	50		 push	 eax
  00411	64 89 25 00 00
	00 00		 mov	 DWORD PTR fs:__except_list, esp
  00418	81 ec 44 01 00
	00		 sub	 esp, 324		; 00000144H
  0041e	56		 push	 esi
  0041f	57		 push	 edi
  00420	8d bd b0 fe ff
	ff		 lea	 edi, DWORD PTR [ebp-336]
  00426	b9 51 00 00 00	 mov	 ecx, 81			; 00000051H
  0042b	b8 cc cc cc cc	 mov	 eax, -858993460		; ccccccccH
  00430	f3 ab		 rep stosd
  00432	a1 00 00 00 00	 mov	 eax, DWORD PTR ___security_cookie
  00437	89 45 f0	 mov	 DWORD PTR __$ArrayPad$[ebp], eax

; 35   : 	if( CLhcImg::CheckUpdateADData() )

  0043a	e8 00 00 00 00	 call	 ?CheckUpdateADData@CLhcImg@@SA_NXZ ; CLhcImg::CheckUpdateADData
  0043f	0f b6 c0	 movzx	 eax, al
  00442	85 c0		 test	 eax, eax
  00444	0f 84 d0 03 00
	00		 je	 $L187685

; 36   : 	{
; 37   : 		YL_Log( "qq.txt",LOG_NOTICE,"CAdData","ZipRes");

  0044a	8b f4		 mov	 esi, esp
  0044c	68 00 00 00 00	 push	 OFFSET FLAT:$SG187689
  00451	8d 4d 94	 lea	 ecx, DWORD PTR $T190028[ebp]
  00454	ff 15 00 00 00
	00		 call	 DWORD PTR __imp_??0?$basic_string@DU?$char_traits@D@std@@V?$allocator@D@2@@std@@QAE@PBD@Z
  0045a	3b f4		 cmp	 esi, esp
  0045c	e8 00 00 00 00	 call	 __RTC_CheckEsp
  00461	c7 45 fc 00 00
	00 00		 mov	 DWORD PTR __$EHRec$[ebp+8], 0
  00468	8b f4		 mov	 esi, esp
  0046a	68 00 00 00 00	 push	 OFFSET FLAT:$SG187690
  0046f	8d 8d 78 ff ff
	ff		 lea	 ecx, DWORD PTR $T190029[ebp]
  00475	ff 15 00 00 00
	00		 call	 DWORD PTR __imp_??0?$basic_string@DU?$char_traits@D@std@@V?$allocator@D@2@@std@@QAE@PBD@Z
  0047b	3b f4		 cmp	 esi, esp
  0047d	e8 00 00 00 00	 call	 __RTC_CheckEsp
  00482	c6 45 fc 01	 mov	 BYTE PTR __$EHRec$[ebp+8], 1
  00486	8b f4		 mov	 esi, esp
  00488	68 00 00 00 00	 push	 OFFSET FLAT:$SG187688
  0048d	8d 4d 94	 lea	 ecx, DWORD PTR $T190028[ebp]
  00490	51		 push	 ecx
  00491	6a 01		 push	 1
  00493	8d 95 78 ff ff
	ff		 lea	 edx, DWORD PTR $T190029[ebp]
  00499	52		 push	 edx
  0049a	ff 15 00 00 00
	00		 call	 DWORD PTR __imp_?YL_Log@@YAXABV?$basic_string@DU?$char_traits@D@std@@V?$allocator@D@2@@std@@H0PBDZZ
  004a0	83 c4 10	 add	 esp, 16			; 00000010H
  004a3	3b f4		 cmp	 esi, esp
  004a5	e8 00 00 00 00	 call	 __RTC_CheckEsp
  004aa	c6 45 fc 00	 mov	 BYTE PTR __$EHRec$[ebp+8], 0
  004ae	8b f4		 mov	 esi, esp
  004b0	8d 8d 78 ff ff
	ff		 lea	 ecx, DWORD PTR $T190029[ebp]
  004b6	ff 15 00 00 00
	00		 call	 DWORD PTR __imp_??1?$basic_string@DU?$char_traits@D@std@@V?$allocator@D@2@@std@@QAE@XZ
  004bc	3b f4		 cmp	 esi, esp
  004be	e8 00 00 00 00	 call	 __RTC_CheckEsp
  004c3	c7 45 fc ff ff
	ff ff		 mov	 DWORD PTR __$EHRec$[ebp+8], -1
  004ca	8b f4		 mov	 esi, esp
  004cc	8d 4d 94	 lea	 ecx, DWORD PTR $T190028[ebp]
  004cf	ff 15 00 00 00
	00		 call	 DWORD PTR __imp_??1?$basic_string@DU?$char_traits@D@std@@V?$allocator@D@2@@std@@QAE@XZ
  004d5	3b f4		 cmp	 esi, esp
  004d7	e8 00 00 00 00	 call	 __RTC_CheckEsp

; 38   : 		CHTTPControl::HTTPWait_AD();

  004dc	e8 00 00 00 00	 call	 ?HTTPWait_AD@CHTTPControl@@SAXXZ ; CHTTPControl::HTTPWait_AD

; 39   : 
; 40   : 		if( CDownAD::m_pDownAD != NULL )

  004e1	83 3d 00 00 00
	00 00		 cmp	 DWORD PTR ?m_pDownAD@CDownAD@@2PAV1@A, 0 ; CDownAD::m_pDownAD
  004e8	0f 84 91 02 00
	00		 je	 $L187691

; 41   : 		{
; 42   : 			CDownAD::m_pDownAD->m_bGetAdData = TRUE;

  004ee	a1 00 00 00 00	 mov	 eax, DWORD PTR ?m_pDownAD@CDownAD@@2PAV1@A ; CDownAD::m_pDownAD
  004f3	c6 40 10 01	 mov	 BYTE PTR [eax+16], 1

; 43   : 			YL_CHTTPRequest http;

  004f7	8b f4		 mov	 esi, esp
  004f9	8d 4d e8	 lea	 ecx, DWORD PTR _http$187692[ebp]
  004fc	ff 15 00 00 00
	00		 call	 DWORD PTR __imp_??0YL_CHTTPRequest@@QAE@XZ
  00502	3b f4		 cmp	 esi, esp
  00504	e8 00 00 00 00	 call	 __RTC_CheckEsp
  00509	c7 45 fc 02 00
	00 00		 mov	 DWORD PTR __$EHRec$[ebp+8], 2

; 44   : 			string strSvr;

  00510	8b f4		 mov	 esi, esp
  00512	8d 4d c4	 lea	 ecx, DWORD PTR _strSvr$187693[ebp]
  00515	ff 15 00 00 00
	00		 call	 DWORD PTR __imp_??0?$basic_string@DU?$char_traits@D@std@@V?$allocator@D@2@@std@@QAE@XZ
  0051b	3b f4		 cmp	 esi, esp
  0051d	e8 00 00 00 00	 call	 __RTC_CheckEsp
  00522	c6 45 fc 03	 mov	 BYTE PTR __$EHRec$[ebp+8], 3

; 45   : 			if( !CLhcImg::GetAdDataServer( strSvr ) )

  00526	8d 4d c4	 lea	 ecx, DWORD PTR _strSvr$187693[ebp]
  00529	51		 push	 ecx
  0052a	e8 00 00 00 00	 call	 ?GetAdDataServer@CLhcImg@@SA_NAAV?$basic_string@DU?$char_traits@D@std@@V?$allocator@D@2@@std@@@Z ; CLhcImg::GetAdDataServer
  0052f	83 c4 04	 add	 esp, 4
  00532	0f b6 d0	 movzx	 edx, al
  00535	85 d2		 test	 edx, edx
  00537	75 17		 jne	 SHORT $L187694

; 46   : 			{
; 47   : 				strSvr = "";

  00539	8b f4		 mov	 esi, esp
  0053b	68 00 00 00 00	 push	 OFFSET FLAT:$SG187695
  00540	8d 4d c4	 lea	 ecx, DWORD PTR _strSvr$187693[ebp]
  00543	ff 15 00 00 00
	00		 call	 DWORD PTR __imp_??4?$basic_string@DU?$char_traits@D@std@@V?$allocator@D@2@@std@@QAEAAV01@PBD@Z
  00549	3b f4		 cmp	 esi, esp
  0054b	e8 00 00 00 00	 call	 __RTC_CheckEsp
$L187694:

; 48   : 			}
; 49   : 
; 50   : 			if( http.Request( strSvr.c_str() ,YL_CHTTPRequest::REQUEST_GET,30*1000 ) )

  00550	8b f4		 mov	 esi, esp
  00552	8d 4d c4	 lea	 ecx, DWORD PTR _strSvr$187693[ebp]
  00555	ff 15 00 00 00
	00		 call	 DWORD PTR __imp_?c_str@?$basic_string@DU?$char_traits@D@std@@V?$allocator@D@2@@std@@QBEPBDXZ
  0055b	3b f4		 cmp	 esi, esp
  0055d	e8 00 00 00 00	 call	 __RTC_CheckEsp
  00562	8b f4		 mov	 esi, esp
  00564	50		 push	 eax
  00565	8d 8d 58 ff ff
	ff		 lea	 ecx, DWORD PTR $T190031[ebp]
  0056b	ff 15 00 00 00
	00		 call	 DWORD PTR __imp_??0?$basic_string@DU?$char_traits@D@std@@V?$allocator@D@2@@std@@QAE@PBD@Z
  00571	3b f4		 cmp	 esi, esp
  00573	e8 00 00 00 00	 call	 __RTC_CheckEsp
  00578	c6 45 fc 04	 mov	 BYTE PTR __$EHRec$[ebp+8], 4
  0057c	8b f4		 mov	 esi, esp
  0057e	6a 00		 push	 0
  00580	6a 00		 push	 0
  00582	68 30 75 00 00	 push	 30000			; 00007530H
  00587	6a 00		 push	 0
  00589	8d 85 58 ff ff
	ff		 lea	 eax, DWORD PTR $T190031[ebp]
  0058f	50		 push	 eax
  00590	8d 4d e8	 lea	 ecx, DWORD PTR _http$187692[ebp]
  00593	ff 15 00 00 00
	00		 call	 DWORD PTR __imp_?Request@YL_CHTTPRequest@@QAE_NABV?$basic_string@DU?$char_traits@D@std@@V?$allocator@D@2@@std@@W4REQUEST_TYPE@1@JPAEI@Z
  00599	3b f4		 cmp	 esi, esp
  0059b	e8 00 00 00 00	 call	 __RTC_CheckEsp
  005a0	88 85 77 ff ff
	ff		 mov	 BYTE PTR $T190030[ebp], al
  005a6	c6 45 fc 03	 mov	 BYTE PTR __$EHRec$[ebp+8], 3
  005aa	8b f4		 mov	 esi, esp
  005ac	8d 8d 58 ff ff
	ff		 lea	 ecx, DWORD PTR $T190031[ebp]
  005b2	ff 15 00 00 00
	00		 call	 DWORD PTR __imp_??1?$basic_string@DU?$char_traits@D@std@@V?$allocator@D@2@@std@@QAE@XZ
  005b8	3b f4		 cmp	 esi, esp
  005ba	e8 00 00 00 00	 call	 __RTC_CheckEsp
  005bf	0f b6 8d 77 ff
	ff ff		 movzx	 ecx, BYTE PTR $T190030[ebp]
  005c6	85 c9		 test	 ecx, ecx
  005c8	0f 84 cd 00 00
	00		 je	 $L187697

; 51   : 			{
; 52   : 				YL_Log( "log_httpr.txt",LOG_DEBUG,"Ad--HTTP","");

  005ce	8b f4		 mov	 esi, esp
  005d0	68 00 00 00 00	 push	 OFFSET FLAT:$SG187702
  005d5	8d 8d 3c ff ff
	ff		 lea	 ecx, DWORD PTR $T190032[ebp]
  005db	ff 15 00 00 00
	00		 call	 DWORD PTR __imp_??0?$basic_string@DU?$char_traits@D@std@@V?$allocator@D@2@@std@@QAE@PBD@Z
  005e1	3b f4		 cmp	 esi, esp
  005e3	e8 00 00 00 00	 call	 __RTC_CheckEsp
  005e8	c6 45 fc 05	 mov	 BYTE PTR __$EHRec$[ebp+8], 5
  005ec	8b f4		 mov	 esi, esp
  005ee	68 00 00 00 00	 push	 OFFSET FLAT:$SG187703
  005f3	8d 8d 20 ff ff
	ff		 lea	 ecx, DWORD PTR $T190033[ebp]
  005f9	ff 15 00 00 00
	00		 call	 DWORD PTR __imp_??0?$basic_string@DU?$char_traits@D@std@@V?$allocator@D@2@@std@@QAE@PBD@Z
  005ff	3b f4		 cmp	 esi, esp
  00601	e8 00 00 00 00	 call	 __RTC_CheckEsp
  00606	c6 45 fc 06	 mov	 BYTE PTR __$EHRec$[ebp+8], 6
  0060a	8b f4		 mov	 esi, esp
  0060c	68 00 00 00 00	 push	 OFFSET FLAT:$SG187701
  00611	8d 95 3c ff ff
	ff		 lea	 edx, DWORD PTR $T190032[ebp]
  00617	52		 push	 edx
  00618	6a 00		 push	 0
  0061a	8d 85 20 ff ff
	ff		 lea	 eax, DWORD PTR $T190033[ebp]
  00620	50		 push	 eax
  00621	ff 15 00 00 00
	00		 call	 DWORD PTR __imp_?YL_Log@@YAXABV?$basic_string@DU?$char_traits@D@std@@V?$allocator@D@2@@std@@H0PBDZZ
  00627	83 c4 10	 add	 esp, 16			; 00000010H
  0062a	3b f4		 cmp	 esi, esp
  0062c	e8 00 00 00 00	 call	 __RTC_CheckEsp
  00631	c6 45 fc 05	 mov	 BYTE PTR __$EHRec$[ebp+8], 5
  00635	8b f4		 mov	 esi, esp
  00637	8d 8d 20 ff ff
	ff		 lea	 ecx, DWORD PTR $T190033[ebp]
  0063d	ff 15 00 00 00
	00		 call	 DWORD PTR __imp_??1?$basic_string@DU?$char_traits@D@std@@V?$allocator@D@2@@std@@QAE@XZ
  00643	3b f4		 cmp	 esi, esp
  00645	e8 00 00 00 00	 call	 __RTC_CheckEsp
  0064a	c6 45 fc 03	 mov	 BYTE PTR __$EHRec$[ebp+8], 3
  0064e	8b f4		 mov	 esi, esp
  00650	8d 8d 3c ff ff
	ff		 lea	 ecx, DWORD PTR $T190032[ebp]
  00656	ff 15 00 00 00
	00		 call	 DWORD PTR __imp_??1?$basic_string@DU?$char_traits@D@std@@V?$allocator@D@2@@std@@QAE@XZ
  0065c	3b f4		 cmp	 esi, esp
  0065e	e8 00 00 00 00	 call	 __RTC_CheckEsp

; 53   : 
; 54   : 				long		   lConLen = 0;

  00663	c7 45 b8 00 00
	00 00		 mov	 DWORD PTR _lConLen$187704[ebp], 0

; 55   : 				unsigned char* pContent = http.GetContent(lConLen);

  0066a	8b f4		 mov	 esi, esp
  0066c	8d 4d b8	 lea	 ecx, DWORD PTR _lConLen$187704[ebp]
  0066f	51		 push	 ecx
  00670	8d 4d e8	 lea	 ecx, DWORD PTR _http$187692[ebp]
  00673	ff 15 00 00 00
	00		 call	 DWORD PTR __imp_?GetContent@YL_CHTTPRequest@@QAEPAEAAJ@Z
  00679	3b f4		 cmp	 esi, esp
  0067b	e8 00 00 00 00	 call	 __RTC_CheckEsp
  00680	89 45 b0	 mov	 DWORD PTR _pContent$187705[ebp], eax

; 56   : 
; 57   : 				CDownAD::m_pDownAD->DownZipFinish( pContent,lConLen );

  00683	8b 55 b8	 mov	 edx, DWORD PTR _lConLen$187704[ebp]
  00686	52		 push	 edx
  00687	8b 45 b0	 mov	 eax, DWORD PTR _pContent$187705[ebp]
  0068a	50		 push	 eax
  0068b	8b 0d 00 00 00
	00		 mov	 ecx, DWORD PTR ?m_pDownAD@CDownAD@@2PAV1@A ; CDownAD::m_pDownAD
  00691	e8 00 00 00 00	 call	 ?DownZipFinish@CDownAD@@QAEXPAXI@Z ; CDownAD::DownZipFinish

; 58   : 			}
; 59   :  			else

  00696	e9 9f 00 00 00	 jmp	 $L187706
$L187697:

; 60   :  			{
; 61   : 				CDownAD::m_pDownAD->m_bGetAdData = FALSE;

  0069b	8b 0d 00 00 00
	00		 mov	 ecx, DWORD PTR ?m_pDownAD@CDownAD@@2PAV1@A ; CDownAD::m_pDownAD
  006a1	c6 41 10 00	 mov	 BYTE PTR [ecx+16], 0

; 62   :  				YL_Log( "log_httpr.txt",LOG_NOTICE,"CAdData","ZipRes Sign == ");

  006a5	8b f4		 mov	 esi, esp
  006a7	68 00 00 00 00	 push	 OFFSET FLAT:$SG187710
  006ac	8d 8d 04 ff ff
	ff		 lea	 ecx, DWORD PTR $T190034[ebp]
  006b2	ff 15 00 00 00
	00		 call	 DWORD PTR __imp_??0?$basic_string@DU?$char_traits@D@std@@V?$allocator@D@2@@std@@QAE@PBD@Z
  006b8	3b f4		 cmp	 esi, esp
  006ba	e8 00 00 00 00	 call	 __RTC_CheckEsp
  006bf	c6 45 fc 07	 mov	 BYTE PTR __$EHRec$[ebp+8], 7
  006c3	8b f4		 mov	 esi, esp
  006c5	68 00 00 00 00	 push	 OFFSET FLAT:$SG187711
  006ca	8d 8d e8 fe ff
	ff		 lea	 ecx, DWORD PTR $T190035[ebp]
  006d0	ff 15 00 00 00
	00		 call	 DWORD PTR __imp_??0?$basic_string@DU?$char_traits@D@std@@V?$allocator@D@2@@std@@QAE@PBD@Z
  006d6	3b f4		 cmp	 esi, esp
  006d8	e8 00 00 00 00	 call	 __RTC_CheckEsp
  006dd	c6 45 fc 08	 mov	 BYTE PTR __$EHRec$[ebp+8], 8
  006e1	8b f4		 mov	 esi, esp
  006e3	68 00 00 00 00	 push	 OFFSET FLAT:$SG187709
  006e8	8d 95 04 ff ff
	ff		 lea	 edx, DWORD PTR $T190034[ebp]
  006ee	52		 push	 edx
  006ef	6a 01		 push	 1
  006f1	8d 85 e8 fe ff
	ff		 lea	 eax, DWORD PTR $T190035[ebp]
  006f7	50		 push	 eax
  006f8	ff 15 00 00 00
	00		 call	 DWORD PTR __imp_?YL_Log@@YAXABV?$basic_string@DU?$char_traits@D@std@@V?$allocator@D@2@@std@@H0PBDZZ
  006fe	83 c4 10	 add	 esp, 16			; 00000010H
  00701	3b f4		 cmp	 esi, esp
  00703	e8 00 00 00 00	 call	 __RTC_CheckEsp
  00708	c6 45 fc 07	 mov	 BYTE PTR __$EHRec$[ebp+8], 7
  0070c	8b f4		 mov	 esi, esp
  0070e	8d 8d e8 fe ff
	ff		 lea	 ecx, DWORD PTR $T190035[ebp]
  00714	ff 15 00 00 00
	00		 call	 DWORD PTR __imp_??1?$basic_string@DU?$char_traits@D@std@@V?$allocator@D@2@@std@@QAE@XZ
  0071a	3b f4		 cmp	 esi, esp
  0071c	e8 00 00 00 00	 call	 __RTC_CheckEsp
  00721	c6 45 fc 03	 mov	 BYTE PTR __$EHRec$[ebp+8], 3
  00725	8b f4		 mov	 esi, esp
  00727	8d 8d 04 ff ff
	ff		 lea	 ecx, DWORD PTR $T190034[ebp]
  0072d	ff 15 00 00 00
	00		 call	 DWORD PTR __imp_??1?$basic_string@DU?$char_traits@D@std@@V?$allocator@D@2@@std@@QAE@XZ
  00733	3b f4		 cmp	 esi, esp
  00735	e8 00 00 00 00	 call	 __RTC_CheckEsp
$L187706:

; 63   :  			}
; 64   :  			CDownAD::m_pDownAD->ZipResReady( CDownAD::m_pDownAD->m_bGetAdData );

  0073a	8b 0d 00 00 00
	00		 mov	 ecx, DWORD PTR ?m_pDownAD@CDownAD@@2PAV1@A ; CDownAD::m_pDownAD
  00740	0f b6 51 10	 movzx	 edx, BYTE PTR [ecx+16]
  00744	52		 push	 edx
  00745	8b 0d 00 00 00
	00		 mov	 ecx, DWORD PTR ?m_pDownAD@CDownAD@@2PAV1@A ; CDownAD::m_pDownAD
  0074b	e8 00 00 00 00	 call	 ?ZipResReady@CDownAD@@QAEXH@Z ; CDownAD::ZipResReady

; 65   : 		}

  00750	c6 45 fc 02	 mov	 BYTE PTR __$EHRec$[ebp+8], 2
  00754	8b f4		 mov	 esi, esp
  00756	8d 4d c4	 lea	 ecx, DWORD PTR _strSvr$187693[ebp]
  00759	ff 15 00 00 00
	00		 call	 DWORD PTR __imp_??1?$basic_string@DU?$char_traits@D@std@@V?$allocator@D@2@@std@@QAE@XZ
  0075f	3b f4		 cmp	 esi, esp
  00761	e8 00 00 00 00	 call	 __RTC_CheckEsp
  00766	c7 45 fc ff ff
	ff ff		 mov	 DWORD PTR __$EHRec$[ebp+8], -1
  0076d	8b f4		 mov	 esi, esp
  0076f	8d 4d e8	 lea	 ecx, DWORD PTR _http$187692[ebp]
  00772	ff 15 00 00 00
	00		 call	 DWORD PTR __imp_??1YL_CHTTPRequest@@QAE@XZ
  00778	3b f4		 cmp	 esi, esp
  0077a	e8 00 00 00 00	 call	 __RTC_CheckEsp
$L187691:

; 66   : 		YL_Log( "log_httpr.txt",LOG_NOTICE,"CAdData","--");

  0077f	8b f4		 mov	 esi, esp
  00781	68 00 00 00 00	 push	 OFFSET FLAT:$SG187715
  00786	8d 8d cc fe ff
	ff		 lea	 ecx, DWORD PTR $T190036[ebp]
  0078c	ff 15 00 00 00
	00		 call	 DWORD PTR __imp_??0?$basic_string@DU?$char_traits@D@std@@V?$allocator@D@2@@std@@QAE@PBD@Z
  00792	3b f4		 cmp	 esi, esp
  00794	e8 00 00 00 00	 call	 __RTC_CheckEsp
  00799	c7 45 fc 09 00
	00 00		 mov	 DWORD PTR __$EHRec$[ebp+8], 9
  007a0	8b f4		 mov	 esi, esp
  007a2	68 00 00 00 00	 push	 OFFSET FLAT:$SG187716
  007a7	8d 8d b0 fe ff
	ff		 lea	 ecx, DWORD PTR $T190037[ebp]
  007ad	ff 15 00 00 00
	00		 call	 DWORD PTR __imp_??0?$basic_string@DU?$char_traits@D@std@@V?$allocator@D@2@@std@@QAE@PBD@Z
  007b3	3b f4		 cmp	 esi, esp
  007b5	e8 00 00 00 00	 call	 __RTC_CheckEsp
  007ba	c6 45 fc 0a	 mov	 BYTE PTR __$EHRec$[ebp+8], 10 ; 0000000aH
  007be	8b f4		 mov	 esi, esp
  007c0	68 00 00 00 00	 push	 OFFSET FLAT:$SG187714
  007c5	8d 85 cc fe ff
	ff		 lea	 eax, DWORD PTR $T190036[ebp]
  007cb	50		 push	 eax
  007cc	6a 01		 push	 1
  007ce	8d 8d b0 fe ff
	ff		 lea	 ecx, DWORD PTR $T190037[ebp]
  007d4	51		 push	 ecx
  007d5	ff 15 00 00 00
	00		 call	 DWORD PTR __imp_?YL_Log@@YAXABV?$basic_string@DU?$char_traits@D@std@@V?$allocator@D@2@@std@@H0PBDZZ
  007db	83 c4 10	 add	 esp, 16			; 00000010H
  007de	3b f4		 cmp	 esi, esp
  007e0	e8 00 00 00 00	 call	 __RTC_CheckEsp
  007e5	c6 45 fc 09	 mov	 BYTE PTR __$EHRec$[ebp+8], 9
  007e9	8b f4		 mov	 esi, esp
  007eb	8d 8d b0 fe ff
	ff		 lea	 ecx, DWORD PTR $T190037[ebp]
  007f1	ff 15 00 00 00
	00		 call	 DWORD PTR __imp_??1?$basic_string@DU?$char_traits@D@std@@V?$allocator@D@2@@std@@QAE@XZ
  007f7	3b f4		 cmp	 esi, esp
  007f9	e8 00 00 00 00	 call	 __RTC_CheckEsp
  007fe	c7 45 fc ff ff
	ff ff		 mov	 DWORD PTR __$EHRec$[ebp+8], -1
  00805	8b f4		 mov	 esi, esp
  00807	8d 8d cc fe ff
	ff		 lea	 ecx, DWORD PTR $T190036[ebp]
  0080d	ff 15 00 00 00
	00		 call	 DWORD PTR __imp_??1?$basic_string@DU?$char_traits@D@std@@V?$allocator@D@2@@std@@QAE@XZ
  00813	3b f4		 cmp	 esi, esp
  00815	e8 00 00 00 00	 call	 __RTC_CheckEsp
$L187685:

; 67   :  	}
; 68   :  	CHTTPControl::HTTPFinish_DownAD();

  0081a	e8 00 00 00 00	 call	 ?HTTPFinish_DownAD@CHTTPControl@@SAXXZ ; CHTTPControl::HTTPFinish_DownAD

; 69   : 	return 0;

  0081f	33 c0		 xor	 eax, eax

; 70   : }

  00821	52		 push	 edx
  00822	8b cd		 mov	 ecx, ebp
  00824	50		 push	 eax
  00825	8d 15 00 00 00
	00		 lea	 edx, DWORD PTR $L190058
  0082b	e8 00 00 00 00	 call	 @_RTC_CheckStackVars@8
  00830	58		 pop	 eax
  00831	5a		 pop	 edx
  00832	8b 4d f4	 mov	 ecx, DWORD PTR __$EHRec$[ebp]
  00835	64 89 0d 00 00
	00 00		 mov	 DWORD PTR fs:__except_list, ecx
  0083c	8b 4d f0	 mov	 ecx, DWORD PTR __$ArrayPad$[ebp]
  0083f	e8 00 00 00 00	 call	 @__security_check_cookie@4
  00844	5f		 pop	 edi
  00845	5e		 pop	 esi
  00846	81 c4 50 01 00
	00		 add	 esp, 336		; 00000150H
  0084c	3b ec		 cmp	 ebp, esp
  0084e	e8 00 00 00 00	 call	 __RTC_CheckEsp
  00853	8b e5		 mov	 esp, ebp
  00855	5d		 pop	 ebp
  00856	c2 04 00	 ret	 4
$L190058:
  00859	03 00 00 00	 DD	 3
  0085d	00 00 00 00	 DD	 $L190057
$L190057:
  00861	e8 ff ff ff	 DD	 -24			; ffffffe8H
  00865	04 00 00 00	 DD	 4
  00869	00 00 00 00	 DD	 $L190051
  0086d	c4 ff ff ff	 DD	 -60			; ffffffc4H
  00871	1c 00 00 00	 DD	 28			; 0000001cH
  00875	00 00 00 00	 DD	 $L190052
  00879	b8 ff ff ff	 DD	 -72			; ffffffb8H
  0087d	04 00 00 00	 DD	 4
  00881	00 00 00 00	 DD	 $L190053
$L190053:
  00885	6c		 DB	 108			; 0000006cH
  00886	43		 DB	 67			; 00000043H
  00887	6f		 DB	 111			; 0000006fH
  00888	6e		 DB	 110			; 0000006eH
  00889	4c		 DB	 76			; 0000004cH
  0088a	65		 DB	 101			; 00000065H
  0088b	6e		 DB	 110			; 0000006eH
  0088c	00		 DB	 0
$L190052:
  0088d	73		 DB	 115			; 00000073H
  0088e	74		 DB	 116			; 00000074H
  0088f	72		 DB	 114			; 00000072H
  00890	53		 DB	 83			; 00000053H
  00891	76		 DB	 118			; 00000076H
  00892	72		 DB	 114			; 00000072H
  00893	00		 DB	 0
$L190051:
  00894	68		 DB	 104			; 00000068H
  00895	74		 DB	 116			; 00000074H
  00896	74		 DB	 116			; 00000074H
  00897	70		 DB	 112			; 00000070H
  00898	00		 DB	 0
_TEXT	ENDS
text$x	SEGMENT
$L190038:
  000ea	8b f4		 mov	 esi, esp
  000ec	8d 4d 94	 lea	 ecx, DWORD PTR $T190028[ebp]
  000ef	ff 15 00 00 00
	00		 call	 DWORD PTR __imp_??1?$basic_string@DU?$char_traits@D@std@@V?$allocator@D@2@@std@@QAE@XZ
  000f5	3b f4		 cmp	 esi, esp
  000f7	e9 00 00 00 00	 jmp	 __RTC_CheckEsp
$L190039:
  000fc	8b f4		 mov	 esi, esp
  000fe	8d 8d 78 ff ff
	ff		 lea	 ecx, DWORD PTR $T190029[ebp]
  00104	ff 15 00 00 00
	00		 call	 DWORD PTR __imp_??1?$basic_string@DU?$char_traits@D@std@@V?$allocator@D@2@@std@@QAE@XZ
  0010a	3b f4		 cmp	 esi, esp
  0010c	e9 00 00 00 00	 jmp	 __RTC_CheckEsp
$L190040:
  00111	8b f4		 mov	 esi, esp
  00113	8d 4d e8	 lea	 ecx, DWORD PTR _http$187692[ebp]
  00116	ff 15 00 00 00
	00		 call	 DWORD PTR __imp_??1YL_CHTTPRequest@@QAE@XZ
  0011c	3b f4		 cmp	 esi, esp
  0011e	e9 00 00 00 00	 jmp	 __RTC_CheckEsp
$L190041:
  00123	8b f4		 mov	 esi, esp
  00125	8d 4d c4	 lea	 ecx, DWORD PTR _strSvr$187693[ebp]
  00128	ff 15 00 00 00
	00		 call	 DWORD PTR __imp_??1?$basic_string@DU?$char_traits@D@std@@V?$allocator@D@2@@std@@QAE@XZ
  0012e	3b f4		 cmp	 esi, esp
  00130	e9 00 00 00 00	 jmp	 __RTC_CheckEsp
$L190042:
  00135	8b f4		 mov	 esi, esp
  00137	8d 8d 58 ff ff
	ff		 lea	 ecx, DWORD PTR $T190031[ebp]
  0013d	ff 15 00 00 00
	00		 call	 DWORD PTR __imp_??1?$basic_string@DU?$char_traits@D@std@@V?$allocator@D@2@@std@@QAE@XZ
  00143	3b f4		 cmp	 esi, esp
  00145	e9 00 00 00 00	 jmp	 __RTC_CheckEsp
$L190043:
  0014a	8b f4		 mov	 esi, esp
  0014c	8d 8d 3c ff ff
	ff		 lea	 ecx, DWORD PTR $T190032[ebp]
  00152	ff 15 00 00 00
	00		 call	 DWORD PTR __imp_??1?$basic_string@DU?$char_traits@D@std@@V?$allocator@D@2@@std@@QAE@XZ
  00158	3b f4		 cmp	 esi, esp
  0015a	e9 00 00 00 00	 jmp	 __RTC_CheckEsp
$L190044:
  0015f	8b f4		 mov	 esi, esp
  00161	8d 8d 20 ff ff
	ff		 lea	 ecx, DWORD PTR $T190033[ebp]
  00167	ff 15 00 00 00
	00		 call	 DWORD PTR __imp_??1?$basic_string@DU?$char_traits@D@std@@V?$allocator@D@2@@std@@QAE@XZ
  0016d	3b f4		 cmp	 esi, esp
  0016f	e9 00 00 00 00	 jmp	 __RTC_CheckEsp
$L190045:
  00174	8b f4		 mov	 esi, esp
  00176	8d 8d 04 ff ff
	ff		 lea	 ecx, DWORD PTR $T190034[ebp]
  0017c	ff 15 00 00 00
	00		 call	 DWORD PTR __imp_??1?$basic_string@DU?$char_traits@D@std@@V?$allocator@D@2@@std@@QAE@XZ
  00182	3b f4		 cmp	 esi, esp
  00184	e9 00 00 00 00	 jmp	 __RTC_CheckEsp
$L190046:
  00189	8b f4		 mov	 esi, esp
  0018b	8d 8d e8 fe ff
	ff		 lea	 ecx, DWORD PTR $T190035[ebp]
  00191	ff 15 00 00 00
	00		 call	 DWORD PTR __imp_??1?$basic_string@DU?$char_traits@D@std@@V?$allocator@D@2@@std@@QAE@XZ
  00197	3b f4		 cmp	 esi, esp
  00199	e9 00 00 00 00	 jmp	 __RTC_CheckEsp
$L190047:
  0019e	8b f4		 mov	 esi, esp
  001a0	8d 8d cc fe ff
	ff		 lea	 ecx, DWORD PTR $T190036[ebp]
  001a6	ff 15 00 00 00
	00		 call	 DWORD PTR __imp_??1?$basic_string@DU?$char_traits@D@std@@V?$allocator@D@2@@std@@QAE@XZ
  001ac	3b f4		 cmp	 esi, esp
  001ae	e9 00 00 00 00	 jmp	 __RTC_CheckEsp
$L190048:
  001b3	8b f4		 mov	 esi, esp
  001b5	8d 8d b0 fe ff
	ff		 lea	 ecx, DWORD PTR $T190037[ebp]
  001bb	ff 15 00 00 00
	00		 call	 DWORD PTR __imp_??1?$basic_string@DU?$char_traits@D@std@@V?$allocator@D@2@@std@@QAE@XZ
  001c1	3b f4		 cmp	 esi, esp
  001c3	e9 00 00 00 00	 jmp	 __RTC_CheckEsp
__ehhandler$?Thread_DownZip@@YGKPAX@Z:
  001c8	b8 00 00 00 00	 mov	 eax, OFFSET FLAT:$T190050
  001cd	e9 00 00 00 00	 jmp	 ___CxxFrameHandler
text$x	ENDS
?Thread_DownZip@@YGKPAX@Z ENDP				; Thread_DownZip
EXTRN	__imp__TerminateThread@8:NEAR
EXTRN	__imp__GetExitCodeThread@8:NEAR
EXTRN	__imp__WaitForSingleObject@8:NEAR
EXTRN	__imp__CloseHandle@4:NEAR
xdata$x	SEGMENT
$T190081 DD	0ffffffffH
	DD	FLAT:$L190071
	DD	00H
	DD	FLAT:$L190072
	DD	0ffffffffH
	DD	FLAT:$L190073
	DD	02H
	DD	FLAT:$L190074
$T190076 DD	019930520H
	DD	04H
	DD	FLAT:$T190081
	DD	2 DUP(00H)
	DD	2 DUP(00H)
; Function compile flags: /Odt /RTCsu
xdata$x	ENDS
_TEXT	SEGMENT
tv135 = -152						; size = 4
$T190070 = -148						; size = 28
$T190069 = -120						; size = 28
$T190066 = -92						; size = 4
$T190065 = -88						; size = 4
$T190064 = -84						; size = 28
$T190063 = -56						; size = 28
_dwExitCode$ = -24					; size = 4
_this$ = -16						; size = 4
__$EHRec$ = -12						; size = 12
?DataAppExit@CDownAD@@UAEXXZ PROC NEAR			; CDownAD::DataAppExit
; _this$ = ecx

; 81   : {

  008a0	55		 push	 ebp
  008a1	8b ec		 mov	 ebp, esp
  008a3	6a ff		 push	 -1
  008a5	68 00 00 00 00	 push	 __ehhandler$?DataAppExit@CDownAD@@UAEXXZ
  008aa	64 a1 00 00 00
	00		 mov	 eax, DWORD PTR fs:__except_list
  008b0	50		 push	 eax
  008b1	64 89 25 00 00
	00 00		 mov	 DWORD PTR fs:__except_list, esp
  008b8	81 ec 8c 00 00
	00		 sub	 esp, 140		; 0000008cH
  008be	56		 push	 esi
  008bf	57		 push	 edi
  008c0	51		 push	 ecx
  008c1	8d bd 68 ff ff
	ff		 lea	 edi, DWORD PTR [ebp-152]
  008c7	b9 23 00 00 00	 mov	 ecx, 35			; 00000023H
  008cc	b8 cc cc cc cc	 mov	 eax, -858993460		; ccccccccH
  008d1	f3 ab		 rep stosd
  008d3	59		 pop	 ecx
  008d4	89 4d f0	 mov	 DWORD PTR _this$[ebp], ecx

; 82   : 	YL_Log( STR_LOG_FILE,LOG_NOTICE,"CDownAD","DataAppExit");

  008d7	8b f4		 mov	 esi, esp
  008d9	68 00 00 00 00	 push	 OFFSET FLAT:$SG187736
  008de	8d 4d c8	 lea	 ecx, DWORD PTR $T190063[ebp]
  008e1	ff 15 00 00 00
	00		 call	 DWORD PTR __imp_??0?$basic_string@DU?$char_traits@D@std@@V?$allocator@D@2@@std@@QAE@PBD@Z
  008e7	3b f4		 cmp	 esi, esp
  008e9	e8 00 00 00 00	 call	 __RTC_CheckEsp
  008ee	c7 45 fc 00 00
	00 00		 mov	 DWORD PTR __$EHRec$[ebp+8], 0
  008f5	8b f4		 mov	 esi, esp
  008f7	68 00 00 00 00	 push	 OFFSET FLAT:$SG187737
  008fc	8d 4d ac	 lea	 ecx, DWORD PTR $T190064[ebp]
  008ff	ff 15 00 00 00
	00		 call	 DWORD PTR __imp_??0?$basic_string@DU?$char_traits@D@std@@V?$allocator@D@2@@std@@QAE@PBD@Z
  00905	3b f4		 cmp	 esi, esp
  00907	e8 00 00 00 00	 call	 __RTC_CheckEsp
  0090c	c6 45 fc 01	 mov	 BYTE PTR __$EHRec$[ebp+8], 1
  00910	8b f4		 mov	 esi, esp
  00912	68 00 00 00 00	 push	 OFFSET FLAT:$SG187735
  00917	8d 45 c8	 lea	 eax, DWORD PTR $T190063[ebp]
  0091a	50		 push	 eax
  0091b	6a 01		 push	 1
  0091d	8d 4d ac	 lea	 ecx, DWORD PTR $T190064[ebp]
  00920	51		 push	 ecx
  00921	ff 15 00 00 00
	00		 call	 DWORD PTR __imp_?YL_Log@@YAXABV?$basic_string@DU?$char_traits@D@std@@V?$allocator@D@2@@std@@H0PBDZZ
  00927	83 c4 10	 add	 esp, 16			; 00000010H
  0092a	3b f4		 cmp	 esi, esp
  0092c	e8 00 00 00 00	 call	 __RTC_CheckEsp
  00931	c6 45 fc 00	 mov	 BYTE PTR __$EHRec$[ebp+8], 0
  00935	8b f4		 mov	 esi, esp
  00937	8d 4d ac	 lea	 ecx, DWORD PTR $T190064[ebp]
  0093a	ff 15 00 00 00
	00		 call	 DWORD PTR __imp_??1?$basic_string@DU?$char_traits@D@std@@V?$allocator@D@2@@std@@QAE@XZ
  00940	3b f4		 cmp	 esi, esp
  00942	e8 00 00 00 00	 call	 __RTC_CheckEsp
  00947	c7 45 fc ff ff
	ff ff		 mov	 DWORD PTR __$EHRec$[ebp+8], -1
  0094e	8b f4		 mov	 esi, esp
  00950	8d 4d c8	 lea	 ecx, DWORD PTR $T190063[ebp]
  00953	ff 15 00 00 00
	00		 call	 DWORD PTR __imp_??1?$basic_string@DU?$char_traits@D@std@@V?$allocator@D@2@@std@@QAE@XZ
  00959	3b f4		 cmp	 esi, esp
  0095b	e8 00 00 00 00	 call	 __RTC_CheckEsp

; 83   : 	DWORD dwExitCode = 0;

  00960	c7 45 e8 00 00
	00 00		 mov	 DWORD PTR _dwExitCode$[ebp], 0

; 84   : 
; 85   : 	if( GetExitCodeThread( m_hThreadDown,&dwExitCode) && dwExitCode == STILL_ACTIVE )

  00967	8b f4		 mov	 esi, esp
  00969	8d 55 e8	 lea	 edx, DWORD PTR _dwExitCode$[ebp]
  0096c	52		 push	 edx
  0096d	8b 45 f0	 mov	 eax, DWORD PTR _this$[ebp]
  00970	8b 48 04	 mov	 ecx, DWORD PTR [eax+4]
  00973	51		 push	 ecx
  00974	ff 15 00 00 00
	00		 call	 DWORD PTR __imp__GetExitCodeThread@8
  0097a	3b f4		 cmp	 esi, esp
  0097c	e8 00 00 00 00	 call	 __RTC_CheckEsp
  00981	85 c0		 test	 eax, eax
  00983	74 3c		 je	 SHORT $L187740
  00985	81 7d e8 03 01
	00 00		 cmp	 DWORD PTR _dwExitCode$[ebp], 259 ; 00000103H
  0098c	75 33		 jne	 SHORT $L187740

; 86   : 	{
; 87   : 		TerminateThread(m_hThreadDown,1);

  0098e	8b f4		 mov	 esi, esp
  00990	6a 01		 push	 1
  00992	8b 55 f0	 mov	 edx, DWORD PTR _this$[ebp]
  00995	8b 42 04	 mov	 eax, DWORD PTR [edx+4]
  00998	50		 push	 eax
  00999	ff 15 00 00 00
	00		 call	 DWORD PTR __imp__TerminateThread@8
  0099f	3b f4		 cmp	 esi, esp
  009a1	e8 00 00 00 00	 call	 __RTC_CheckEsp

; 88   : 		WaitForSingleObject( m_hThreadDown,2000);

  009a6	8b f4		 mov	 esi, esp
  009a8	68 d0 07 00 00	 push	 2000			; 000007d0H
  009ad	8b 4d f0	 mov	 ecx, DWORD PTR _this$[ebp]
  009b0	8b 51 04	 mov	 edx, DWORD PTR [ecx+4]
  009b3	52		 push	 edx
  009b4	ff 15 00 00 00
	00		 call	 DWORD PTR __imp__WaitForSingleObject@8
  009ba	3b f4		 cmp	 esi, esp
  009bc	e8 00 00 00 00	 call	 __RTC_CheckEsp
$L187740:

; 89   : 	}
; 90   : 	CloseHandle( m_hThreadDown );

  009c1	8b f4		 mov	 esi, esp
  009c3	8b 45 f0	 mov	 eax, DWORD PTR _this$[ebp]
  009c6	8b 48 04	 mov	 ecx, DWORD PTR [eax+4]
  009c9	51		 push	 ecx
  009ca	ff 15 00 00 00
	00		 call	 DWORD PTR __imp__CloseHandle@4
  009d0	3b f4		 cmp	 esi, esp
  009d2	e8 00 00 00 00	 call	 __RTC_CheckEsp

; 91   : 	delete this;

  009d7	8b 55 f0	 mov	 edx, DWORD PTR _this$[ebp]
  009da	83 ea 08	 sub	 edx, 8
  009dd	89 55 a4	 mov	 DWORD PTR $T190066[ebp], edx
  009e0	8b 45 a4	 mov	 eax, DWORD PTR $T190066[ebp]
  009e3	89 45 a8	 mov	 DWORD PTR $T190065[ebp], eax
  009e6	83 7d a8 00	 cmp	 DWORD PTR $T190065[ebp], 0
  009ea	74 21		 je	 SHORT $L190067
  009ec	8b f4		 mov	 esi, esp
  009ee	6a 01		 push	 1
  009f0	8b 4d a8	 mov	 ecx, DWORD PTR $T190065[ebp]
  009f3	83 c1 08	 add	 ecx, 8
  009f6	8b 55 a8	 mov	 edx, DWORD PTR $T190065[ebp]
  009f9	8b 42 08	 mov	 eax, DWORD PTR [edx+8]
  009fc	ff 10		 call	 DWORD PTR [eax]
  009fe	3b f4		 cmp	 esi, esp
  00a00	e8 00 00 00 00	 call	 __RTC_CheckEsp
  00a05	89 85 68 ff ff
	ff		 mov	 DWORD PTR tv135[ebp], eax
  00a0b	eb 0a		 jmp	 SHORT $L190068
$L190067:
  00a0d	c7 85 68 ff ff
	ff 00 00 00 00	 mov	 DWORD PTR tv135[ebp], 0
$L190068:

; 92   : 	YL_Log( STR_LOG_FILE,LOG_NOTICE,"CDownAD","DataAppExit-- out");

  00a17	8b f4		 mov	 esi, esp
  00a19	68 00 00 00 00	 push	 OFFSET FLAT:$SG187746
  00a1e	8d 4d 88	 lea	 ecx, DWORD PTR $T190069[ebp]
  00a21	ff 15 00 00 00
	00		 call	 DWORD PTR __imp_??0?$basic_string@DU?$char_traits@D@std@@V?$allocator@D@2@@std@@QAE@PBD@Z
  00a27	3b f4		 cmp	 esi, esp
  00a29	e8 00 00 00 00	 call	 __RTC_CheckEsp
  00a2e	c7 45 fc 02 00
	00 00		 mov	 DWORD PTR __$EHRec$[ebp+8], 2
  00a35	8b f4		 mov	 esi, esp
  00a37	68 00 00 00 00	 push	 OFFSET FLAT:$SG187747
  00a3c	8d 8d 6c ff ff
	ff		 lea	 ecx, DWORD PTR $T190070[ebp]
  00a42	ff 15 00 00 00
	00		 call	 DWORD PTR __imp_??0?$basic_string@DU?$char_traits@D@std@@V?$allocator@D@2@@std@@QAE@PBD@Z
  00a48	3b f4		 cmp	 esi, esp
  00a4a	e8 00 00 00 00	 call	 __RTC_CheckEsp
  00a4f	c6 45 fc 03	 mov	 BYTE PTR __$EHRec$[ebp+8], 3
  00a53	8b f4		 mov	 esi, esp
  00a55	68 00 00 00 00	 push	 OFFSET FLAT:$SG187745
  00a5a	8d 4d 88	 lea	 ecx, DWORD PTR $T190069[ebp]
  00a5d	51		 push	 ecx
  00a5e	6a 01		 push	 1
  00a60	8d 95 6c ff ff
	ff		 lea	 edx, DWORD PTR $T190070[ebp]
  00a66	52		 push	 edx
  00a67	ff 15 00 00 00
	00		 call	 DWORD PTR __imp_?YL_Log@@YAXABV?$basic_string@DU?$char_traits@D@std@@V?$allocator@D@2@@std@@H0PBDZZ
  00a6d	83 c4 10	 add	 esp, 16			; 00000010H
  00a70	3b f4		 cmp	 esi, esp
  00a72	e8 00 00 00 00	 call	 __RTC_CheckEsp
  00a77	c6 45 fc 02	 mov	 BYTE PTR __$EHRec$[ebp+8], 2
  00a7b	8b f4		 mov	 esi, esp
  00a7d	8d 8d 6c ff ff
	ff		 lea	 ecx, DWORD PTR $T190070[ebp]
  00a83	ff 15 00 00 00
	00		 call	 DWORD PTR __imp_??1?$basic_string@DU?$char_traits@D@std@@V?$allocator@D@2@@std@@QAE@XZ
  00a89	3b f4		 cmp	 esi, esp
  00a8b	e8 00 00 00 00	 call	 __RTC_CheckEsp
  00a90	c7 45 fc ff ff
	ff ff		 mov	 DWORD PTR __$EHRec$[ebp+8], -1
  00a97	8b f4		 mov	 esi, esp
  00a99	8d 4d 88	 lea	 ecx, DWORD PTR $T190069[ebp]
  00a9c	ff 15 00 00 00
	00		 call	 DWORD PTR __imp_??1?$basic_string@DU?$char_traits@D@std@@V?$allocator@D@2@@std@@QAE@XZ
  00aa2	3b f4		 cmp	 esi, esp
  00aa4	e8 00 00 00 00	 call	 __RTC_CheckEsp

; 93   : }

  00aa9	52		 push	 edx
  00aaa	8b cd		 mov	 ecx, ebp
  00aac	50		 push	 eax
  00aad	8d 15 00 00 00
	00		 lea	 edx, DWORD PTR $L190080
  00ab3	e8 00 00 00 00	 call	 @_RTC_CheckStackVars@8
  00ab8	58		 pop	 eax
  00ab9	5a		 pop	 edx
  00aba	8b 4d f4	 mov	 ecx, DWORD PTR __$EHRec$[ebp]
  00abd	64 89 0d 00 00
	00 00		 mov	 DWORD PTR fs:__except_list, ecx
  00ac4	5f		 pop	 edi
  00ac5	5e		 pop	 esi
  00ac6	81 c4 98 00 00
	00		 add	 esp, 152		; 00000098H
  00acc	3b ec		 cmp	 ebp, esp
  00ace	e8 00 00 00 00	 call	 __RTC_CheckEsp
  00ad3	8b e5		 mov	 esp, ebp
  00ad5	5d		 pop	 ebp
  00ad6	c3		 ret	 0
$L190080:
  00ad7	01 00 00 00	 DD	 1
  00adb	00 00 00 00	 DD	 $L190079
$L190079:
  00adf	e8 ff ff ff	 DD	 -24			; ffffffe8H
  00ae3	04 00 00 00	 DD	 4
  00ae7	00 00 00 00	 DD	 $L190077
$L190077:
  00aeb	64		 DB	 100			; 00000064H
  00aec	77		 DB	 119			; 00000077H
  00aed	45		 DB	 69			; 00000045H
  00aee	78		 DB	 120			; 00000078H
  00aef	69		 DB	 105			; 00000069H
  00af0	74		 DB	 116			; 00000074H
  00af1	43		 DB	 67			; 00000043H
  00af2	6f		 DB	 111			; 0000006fH
  00af3	64		 DB	 100			; 00000064H
  00af4	65		 DB	 101			; 00000065H
  00af5	00		 DB	 0
_TEXT	ENDS
text$x	SEGMENT
$L190071:
  001d2	8b f4		 mov	 esi, esp
  001d4	8d 4d c8	 lea	 ecx, DWORD PTR $T190063[ebp]
  001d7	ff 15 00 00 00
	00		 call	 DWORD PTR __imp_??1?$basic_string@DU?$char_traits@D@std@@V?$allocator@D@2@@std@@QAE@XZ
  001dd	3b f4		 cmp	 esi, esp
  001df	e9 00 00 00 00	 jmp	 __RTC_CheckEsp
$L190072:
  001e4	8b f4		 mov	 esi, esp
  001e6	8d 4d ac	 lea	 ecx, DWORD PTR $T190064[ebp]
  001e9	ff 15 00 00 00
	00		 call	 DWORD PTR __imp_??1?$basic_string@DU?$char_traits@D@std@@V?$allocator@D@2@@std@@QAE@XZ
  001ef	3b f4		 cmp	 esi, esp
  001f1	e9 00 00 00 00	 jmp	 __RTC_CheckEsp
$L190073:
  001f6	8b f4		 mov	 esi, esp
  001f8	8d 4d 88	 lea	 ecx, DWORD PTR $T190069[ebp]
  001fb	ff 15 00 00 00
	00		 call	 DWORD PTR __imp_??1?$basic_string@DU?$char_traits@D@std@@V?$allocator@D@2@@std@@QAE@XZ
  00201	3b f4		 cmp	 esi, esp
  00203	e9 00 00 00 00	 jmp	 __RTC_CheckEsp
$L190074:
  00208	8b f4		 mov	 esi, esp
  0020a	8d 8d 6c ff ff
	ff		 lea	 ecx, DWORD PTR $T190070[ebp]
  00210	ff 15 00 00 00
	00		 call	 DWORD PTR __imp_??1?$basic_string@DU?$char_traits@D@std@@V?$allocator@D@2@@std@@QAE@XZ
  00216	3b f4		 cmp	 esi, esp
  00218	e9 00 00 00 00	 jmp	 __RTC_CheckEsp
__ehhandler$?DataAppExit@CDownAD@@UAEXXZ:
  0021d	b8 00 00 00 00	 mov	 eax, OFFSET FLAT:$T190076
  00222	e9 00 00 00 00	 jmp	 ___CxxFrameHandler
text$x	ENDS
?DataAppExit@CDownAD@@UAEXXZ ENDP			; CDownAD::DataAppExit
PUBLIC	?NotifyZipSuc@CDownAD@@QAEXXZ			; CDownAD::NotifyZipSuc
PUBLIC	?NotifyZipFailed@CDownAD@@QAEXXZ		; CDownAD::NotifyZipFailed
; Function compile flags: /Odt /RTCsu
_TEXT	SEGMENT
_this$ = -4						; size = 4
_bDownSuccess$ = 8					; size = 4
?ZipResReady@CDownAD@@QAEXH@Z PROC NEAR			; CDownAD::ZipResReady
; _this$ = ecx

; 96   : {

  00b00	55		 push	 ebp
  00b01	8b ec		 mov	 ebp, esp
  00b03	51		 push	 ecx
  00b04	c7 45 fc cc cc
	cc cc		 mov	 DWORD PTR [ebp-4], -858993460 ; ccccccccH
  00b0b	89 4d fc	 mov	 DWORD PTR _this$[ebp], ecx

; 97   : 	if(bDownSuccess)

  00b0e	83 7d 08 00	 cmp	 DWORD PTR _bDownSuccess$[ebp], 0
  00b12	74 0a		 je	 SHORT $L187752

; 98   : 	{
; 99   : 		NotifyZipSuc();

  00b14	8b 4d fc	 mov	 ecx, DWORD PTR _this$[ebp]
  00b17	e8 00 00 00 00	 call	 ?NotifyZipSuc@CDownAD@@QAEXXZ ; CDownAD::NotifyZipSuc

; 100  : 	}else

  00b1c	eb 08		 jmp	 SHORT $L187751
$L187752:

; 101  : 	{
; 102  : 		NotifyZipFailed();

  00b1e	8b 4d fc	 mov	 ecx, DWORD PTR _this$[ebp]
  00b21	e8 00 00 00 00	 call	 ?NotifyZipFailed@CDownAD@@QAEXXZ ; CDownAD::NotifyZipFailed
$L187751:

; 103  : 	}
; 104  : }

  00b26	83 c4 04	 add	 esp, 4
  00b29	3b ec		 cmp	 ebp, esp
  00b2b	e8 00 00 00 00	 call	 __RTC_CheckEsp
  00b30	8b e5		 mov	 esp, ebp
  00b32	5d		 pop	 ebp
  00b33	c2 04 00	 ret	 4
?ZipResReady@CDownAD@@QAEXH@Z ENDP			; CDownAD::ZipResReady
; Function compile flags: /Odt /RTCsu
_this$ = -4						; size = 4
?NotifyZipFailed@CDownAD@@QAEXXZ PROC NEAR		; CDownAD::NotifyZipFailed
; _this$ = ecx

; 107  : {

  00b40	55		 push	 ebp
  00b41	8b ec		 mov	 ebp, esp
  00b43	51		 push	 ecx
  00b44	56		 push	 esi
  00b45	c7 45 fc cc cc
	cc cc		 mov	 DWORD PTR [ebp-4], -858993460 ; ccccccccH
  00b4c	89 4d fc	 mov	 DWORD PTR _this$[ebp], ecx

; 108  : 	m_hThreadDown = CreateThread(0,0,Thread_DownZip,0,0,0);

  00b4f	8b f4		 mov	 esi, esp
  00b51	6a 00		 push	 0
  00b53	6a 00		 push	 0
  00b55	6a 00		 push	 0
  00b57	68 00 00 00 00	 push	 OFFSET FLAT:?Thread_DownZip@@YGKPAX@Z ; Thread_DownZip
  00b5c	6a 00		 push	 0
  00b5e	6a 00		 push	 0
  00b60	ff 15 00 00 00
	00		 call	 DWORD PTR __imp__CreateThread@24
  00b66	3b f4		 cmp	 esi, esp
  00b68	e8 00 00 00 00	 call	 __RTC_CheckEsp
  00b6d	8b 4d fc	 mov	 ecx, DWORD PTR _this$[ebp]
  00b70	89 41 0c	 mov	 DWORD PTR [ecx+12], eax

; 109  : }

  00b73	5e		 pop	 esi
  00b74	83 c4 04	 add	 esp, 4
  00b77	3b ec		 cmp	 ebp, esp
  00b79	e8 00 00 00 00	 call	 __RTC_CheckEsp
  00b7e	8b e5		 mov	 esp, ebp
  00b80	5d		 pop	 ebp
  00b81	c3		 ret	 0
?NotifyZipFailed@CDownAD@@QAEXXZ ENDP			; CDownAD::NotifyZipFailed
_TEXT	ENDS
PUBLIC	??0?$list@PAVIMessageObserver@@V?$allocator@PAVIMessageObserver@@@std@@@std@@QAE@XZ ; std::list<IMessageObserver *,std::allocator<IMessageObserver *> >::list<IMessageObserver *,std::allocator<IMessageObserver *> >
PUBLIC	??1?$list@PAVIMessageObserver@@V?$allocator@PAVIMessageObserver@@@std@@@std@@QAE@XZ ; std::list<IMessageObserver *,std::allocator<IMessageObserver *> >::~list<IMessageObserver *,std::allocator<IMessageObserver *> >
PUBLIC	?begin@?$list@PAVIMessageObserver@@V?$allocator@PAVIMessageObserver@@@std@@@std@@QAE?AViterator@12@XZ ; std::list<IMessageObserver *,std::allocator<IMessageObserver *> >::begin
PUBLIC	?end@?$list@PAVIMessageObserver@@V?$allocator@PAVIMessageObserver@@@std@@@std@@QAE?AViterator@12@XZ ; std::list<IMessageObserver *,std::allocator<IMessageObserver *> >::end
PUBLIC	??9const_iterator@?$list@PAVIMessageObserver@@V?$allocator@PAVIMessageObserver@@@std@@@std@@QBE_NABV012@@Z ; std::list<IMessageObserver *,std::allocator<IMessageObserver *> >::const_iterator::operator!=
PUBLIC	??Diterator@?$list@PAVIMessageObserver@@V?$allocator@PAVIMessageObserver@@@std@@@std@@QBEAAPAVIMessageObserver@@XZ ; std::list<IMessageObserver *,std::allocator<IMessageObserver *> >::iterator::operator*
PUBLIC	??Eiterator@?$list@PAVIMessageObserver@@V?$allocator@PAVIMessageObserver@@@std@@@std@@QAE?AV012@H@Z ; std::list<IMessageObserver *,std::allocator<IMessageObserver *> >::iterator::operator++
PUBLIC	??_R0?AVIAdObserver@@@8				; IAdObserver `RTTI Type Descriptor'
EXTRN	?AfxGetMessageManager@@YAPAVIMessageManager@@XZ:NEAR ; AfxGetMessageManager
EXTRN	___RTDynamicCast:NEAR
EXTRN	?SetUpdateADData@CLhcImg@@SA_NXZ:NEAR		; CLhcImg::SetUpdateADData
xdata$x	SEGMENT
$T190095 DD	0ffffffffH
	DD	FLAT:$L190087
$T190089 DD	019930520H
	DD	01H
	DD	FLAT:$T190095
	DD	2 DUP(00H)
	DD	2 DUP(00H)
xdata$x	ENDS
;	COMDAT ??_R0?AVIAdObserver@@@8
_DATA	SEGMENT
??_R0?AVIAdObserver@@@8 DD FLAT:??_7type_info@@6B@	; IAdObserver `RTTI Type Descriptor'
	DD	00H
	DB	'.?AVIAdObserver@@', 00H
; Function compile flags: /Odt /RTCsu
_DATA	ENDS
_TEXT	SEGMENT
tv70 = -64						; size = 4
$T190086 = -60						; size = 4
$T190085 = -56						; size = 4
_pOb$188261 = -52					; size = 4
_itOb$188254 = -44					; size = 4
_listOb$ = -32						; size = 12
_this$ = -16						; size = 4
__$EHRec$ = -12						; size = 12
?NotifyZipSuc@CDownAD@@QAEXXZ PROC NEAR			; CDownAD::NotifyZipSuc
; _this$ = ecx

; 112  : {

  00b90	55		 push	 ebp
  00b91	8b ec		 mov	 ebp, esp
  00b93	6a ff		 push	 -1
  00b95	68 00 00 00 00	 push	 __ehhandler$?NotifyZipSuc@CDownAD@@QAEXXZ
  00b9a	64 a1 00 00 00
	00		 mov	 eax, DWORD PTR fs:__except_list
  00ba0	50		 push	 eax
  00ba1	64 89 25 00 00
	00 00		 mov	 DWORD PTR fs:__except_list, esp
  00ba8	83 ec 34	 sub	 esp, 52			; 00000034H
  00bab	56		 push	 esi
  00bac	57		 push	 edi
  00bad	51		 push	 ecx
  00bae	8d 7d c0	 lea	 edi, DWORD PTR [ebp-64]
  00bb1	b9 0d 00 00 00	 mov	 ecx, 13			; 0000000dH
  00bb6	b8 cc cc cc cc	 mov	 eax, -858993460		; ccccccccH
  00bbb	f3 ab		 rep stosd
  00bbd	59		 pop	 ecx
  00bbe	89 4d f0	 mov	 DWORD PTR _this$[ebp], ecx

; 113  : 	ReloadAd();

  00bc1	8b 4d f0	 mov	 ecx, DWORD PTR _this$[ebp]
  00bc4	e8 00 00 00 00	 call	 ?ReloadAd@CDownAD@@AAEXXZ ; CDownAD::ReloadAd

; 114  : 
; 115  : 	list<IMessageObserver*> listOb;

  00bc9	8d 4d e0	 lea	 ecx, DWORD PTR _listOb$[ebp]
  00bcc	e8 00 00 00 00	 call	 ??0?$list@PAVIMessageObserver@@V?$allocator@PAVIMessageObserver@@@std@@@std@@QAE@XZ ; std::list<IMessageObserver *,std::allocator<IMessageObserver *> >::list<IMessageObserver *,std::allocator<IMessageObserver *> >
  00bd1	c7 45 fc 00 00
	00 00		 mov	 DWORD PTR __$EHRec$[ebp+8], 0

; 116  : 	AfxGetMessageManager()->QueryObservers( ID_MESSAGE_AD,listOb);

  00bd8	e8 00 00 00 00	 call	 ?AfxGetMessageManager@@YAPAVIMessageManager@@XZ ; AfxGetMessageManager
  00bdd	89 45 c0	 mov	 DWORD PTR tv70[ebp], eax
  00be0	8b f4		 mov	 esi, esp
  00be2	8d 45 e0	 lea	 eax, DWORD PTR _listOb$[ebp]
  00be5	50		 push	 eax
  00be6	68 00 00 00 00	 push	 OFFSET FLAT:_ID_MESSAGE_AD
  00beb	8b 4d c0	 mov	 ecx, DWORD PTR tv70[ebp]
  00bee	8b 11		 mov	 edx, DWORD PTR [ecx]
  00bf0	8b 4d c0	 mov	 ecx, DWORD PTR tv70[ebp]
  00bf3	ff 52 0c	 call	 DWORD PTR [edx+12]
  00bf6	3b f4		 cmp	 esi, esp
  00bf8	e8 00 00 00 00	 call	 __RTC_CheckEsp

; 117  : 
; 118  : 	for( list<IMessageObserver*>::iterator itOb = listOb.begin();itOb != listOb.end();itOb++ )

  00bfd	8d 45 d4	 lea	 eax, DWORD PTR _itOb$188254[ebp]
  00c00	50		 push	 eax
  00c01	8d 4d e0	 lea	 ecx, DWORD PTR _listOb$[ebp]
  00c04	e8 00 00 00 00	 call	 ?begin@?$list@PAVIMessageObserver@@V?$allocator@PAVIMessageObserver@@@std@@@std@@QAE?AViterator@12@XZ ; std::list<IMessageObserver *,std::allocator<IMessageObserver *> >::begin
  00c09	eb 0e		 jmp	 SHORT $L188258
$L188259:
  00c0b	6a 00		 push	 0
  00c0d	8d 4d c8	 lea	 ecx, DWORD PTR $T190085[ebp]
  00c10	51		 push	 ecx
  00c11	8d 4d d4	 lea	 ecx, DWORD PTR _itOb$188254[ebp]
  00c14	e8 00 00 00 00	 call	 ??Eiterator@?$list@PAVIMessageObserver@@V?$allocator@PAVIMessageObserver@@@std@@@std@@QAE?AV012@H@Z ; std::list<IMessageObserver *,std::allocator<IMessageObserver *> >::iterator::operator++
$L188258:
  00c19	8d 55 c4	 lea	 edx, DWORD PTR $T190086[ebp]
  00c1c	52		 push	 edx
  00c1d	8d 4d e0	 lea	 ecx, DWORD PTR _listOb$[ebp]
  00c20	e8 00 00 00 00	 call	 ?end@?$list@PAVIMessageObserver@@V?$allocator@PAVIMessageObserver@@@std@@@std@@QAE?AViterator@12@XZ ; std::list<IMessageObserver *,std::allocator<IMessageObserver *> >::end
  00c25	50		 push	 eax
  00c26	8d 4d d4	 lea	 ecx, DWORD PTR _itOb$188254[ebp]
  00c29	e8 00 00 00 00	 call	 ??9const_iterator@?$list@PAVIMessageObserver@@V?$allocator@PAVIMessageObserver@@@std@@@std@@QBE_NABV012@@Z ; std::list<IMessageObserver *,std::allocator<IMessageObserver *> >::const_iterator::operator!=
  00c2e	0f b6 c0	 movzx	 eax, al
  00c31	85 c0		 test	 eax, eax
  00c33	74 3a		 je	 SHORT $L188260

; 119  : 	{
; 120  : 		IAdObserver* pOb = dynamic_cast<IAdObserver*>(*itOb);

  00c35	6a 00		 push	 0
  00c37	68 00 00 00 00	 push	 OFFSET FLAT:??_R0?AVIAdObserver@@@8
  00c3c	68 00 00 00 00	 push	 OFFSET FLAT:??_R0?AVIMessageObserver@@@8
  00c41	6a 00		 push	 0
  00c43	8d 4d d4	 lea	 ecx, DWORD PTR _itOb$188254[ebp]
  00c46	e8 00 00 00 00	 call	 ??Diterator@?$list@PAVIMessageObserver@@V?$allocator@PAVIMessageObserver@@@std@@@std@@QBEAAPAVIMessageObserver@@XZ ; std::list<IMessageObserver *,std::allocator<IMessageObserver *> >::iterator::operator*
  00c4b	8b 08		 mov	 ecx, DWORD PTR [eax]
  00c4d	51		 push	 ecx
  00c4e	e8 00 00 00 00	 call	 ___RTDynamicCast
  00c53	83 c4 14	 add	 esp, 20			; 00000014H
  00c56	89 45 cc	 mov	 DWORD PTR _pOb$188261[ebp], eax

; 121  : 		pOb->AdOb_UpdataSuc();

  00c59	8b 55 cc	 mov	 edx, DWORD PTR _pOb$188261[ebp]
  00c5c	8b 02		 mov	 eax, DWORD PTR [edx]
  00c5e	8b f4		 mov	 esi, esp
  00c60	8b 4d cc	 mov	 ecx, DWORD PTR _pOb$188261[ebp]
  00c63	ff 50 04	 call	 DWORD PTR [eax+4]
  00c66	3b f4		 cmp	 esi, esp
  00c68	e8 00 00 00 00	 call	 __RTC_CheckEsp

; 122  : 	}

  00c6d	eb 9c		 jmp	 SHORT $L188259
$L188260:

; 123  : 	CLhcImg::SetUpdateADData();

  00c6f	e8 00 00 00 00	 call	 ?SetUpdateADData@CLhcImg@@SA_NXZ ; CLhcImg::SetUpdateADData

; 124  : }

  00c74	c7 45 fc ff ff
	ff ff		 mov	 DWORD PTR __$EHRec$[ebp+8], -1
  00c7b	8d 4d e0	 lea	 ecx, DWORD PTR _listOb$[ebp]
  00c7e	e8 00 00 00 00	 call	 ??1?$list@PAVIMessageObserver@@V?$allocator@PAVIMessageObserver@@@std@@@std@@QAE@XZ ; std::list<IMessageObserver *,std::allocator<IMessageObserver *> >::~list<IMessageObserver *,std::allocator<IMessageObserver *> >
  00c83	52		 push	 edx
  00c84	8b cd		 mov	 ecx, ebp
  00c86	50		 push	 eax
  00c87	8d 15 00 00 00
	00		 lea	 edx, DWORD PTR $L190094
  00c8d	e8 00 00 00 00	 call	 @_RTC_CheckStackVars@8
  00c92	58		 pop	 eax
  00c93	5a		 pop	 edx
  00c94	8b 4d f4	 mov	 ecx, DWORD PTR __$EHRec$[ebp]
  00c97	64 89 0d 00 00
	00 00		 mov	 DWORD PTR fs:__except_list, ecx
  00c9e	5f		 pop	 edi
  00c9f	5e		 pop	 esi
  00ca0	83 c4 40	 add	 esp, 64			; 00000040H
  00ca3	3b ec		 cmp	 ebp, esp
  00ca5	e8 00 00 00 00	 call	 __RTC_CheckEsp
  00caa	8b e5		 mov	 esp, ebp
  00cac	5d		 pop	 ebp
  00cad	c3		 ret	 0
$L190094:
  00cae	02 00 00 00	 DD	 2
  00cb2	00 00 00 00	 DD	 $L190093
$L190093:
  00cb6	e0 ff ff ff	 DD	 -32			; ffffffe0H
  00cba	0c 00 00 00	 DD	 12			; 0000000cH
  00cbe	00 00 00 00	 DD	 $L190090
  00cc2	d4 ff ff ff	 DD	 -44			; ffffffd4H
  00cc6	04 00 00 00	 DD	 4
  00cca	00 00 00 00	 DD	 $L190091
$L190091:
  00cce	69		 DB	 105			; 00000069H
  00ccf	74		 DB	 116			; 00000074H
  00cd0	4f		 DB	 79			; 0000004fH
  00cd1	62		 DB	 98			; 00000062H
  00cd2	00		 DB	 0
$L190090:
  00cd3	6c		 DB	 108			; 0000006cH
  00cd4	69		 DB	 105			; 00000069H
  00cd5	73		 DB	 115			; 00000073H
  00cd6	74		 DB	 116			; 00000074H
  00cd7	4f		 DB	 79			; 0000004fH
  00cd8	62		 DB	 98			; 00000062H
  00cd9	00		 DB	 0
_TEXT	ENDS
text$x	SEGMENT
$L190087:
  00227	8d 4d e0	 lea	 ecx, DWORD PTR _listOb$[ebp]
  0022a	e9 00 00 00 00	 jmp	 ??1?$list@PAVIMessageObserver@@V?$allocator@PAVIMessageObserver@@@std@@@std@@QAE@XZ ; std::list<IMessageObserver *,std::allocator<IMessageObserver *> >::~list<IMessageObserver *,std::allocator<IMessageObserver *> >
__ehhandler$?NotifyZipSuc@CDownAD@@QAEXXZ:
  0022f	b8 00 00 00 00	 mov	 eax, OFFSET FLAT:$T190089
  00234	e9 00 00 00 00	 jmp	 ___CxxFrameHandler
text$x	ENDS
?NotifyZipSuc@CDownAD@@QAEXXZ ENDP			; CDownAD::NotifyZipSuc
PUBLIC	?NotifyZipStart@CDownAD@@QAEXXZ			; CDownAD::NotifyZipStart
; Function compile flags: /Odt /RTCsu
_TEXT	SEGMENT
_this$ = -4						; size = 4
?NotifyZipStart@CDownAD@@QAEXXZ PROC NEAR		; CDownAD::NotifyZipStart
; _this$ = ecx

; 127  : {

  00ce0	55		 push	 ebp
  00ce1	8b ec		 mov	 ebp, esp
  00ce3	51		 push	 ecx
  00ce4	c7 45 fc cc cc
	cc cc		 mov	 DWORD PTR [ebp-4], -858993460 ; ccccccccH
  00ceb	89 4d fc	 mov	 DWORD PTR _this$[ebp], ecx

; 128  : }

  00cee	8b e5		 mov	 esp, ebp
  00cf0	5d		 pop	 ebp
  00cf1	c3		 ret	 0
?NotifyZipStart@CDownAD@@QAEXXZ ENDP			; CDownAD::NotifyZipStart
_TEXT	ENDS
PUBLIC	??0?$vector@V?$basic_string@DU?$char_traits@D@std@@V?$allocator@D@2@@std@@V?$allocator@V?$basic_string@DU?$char_traits@D@std@@V?$allocator@D@2@@std@@@2@@std@@QAE@XZ ; std::vector<std::basic_string<char,std::char_traits<char>,std::allocator<char> >,std::allocator<std::basic_string<char,std::char_traits<char>,std::allocator<char> > > >::vector<std::basic_string<char,std::char_traits<char>,std::allocator<char> >,std::allocator<std::basic_string<char,std::char_traits<char>,std::allocator<char> > > >
PUBLIC	??1?$vector@V?$basic_string@DU?$char_traits@D@std@@V?$allocator@D@2@@std@@V?$allocator@V?$basic_string@DU?$char_traits@D@std@@V?$allocator@D@2@@std@@@2@@std@@QAE@XZ ; std::vector<std::basic_string<char,std::char_traits<char>,std::allocator<char> >,std::allocator<std::basic_string<char,std::char_traits<char>,std::allocator<char> > > >::~vector<std::basic_string<char,std::char_traits<char>,std::allocator<char> >,std::allocator<std::basic_string<char,std::char_traits<char>,std::allocator<char> > > >
EXTRN	__imp_?UnCompress@YL_CFileZip@@SA_NPAXIABV?$basic_string@DU?$char_traits@D@std@@V?$allocator@D@2@@std@@AAV?$vector@V?$basic_string@DU?$char_traits@D@std@@V?$allocator@D@2@@std@@V?$allocator@V?$basic_string@DU?$char_traits@D@std@@V?$allocator@D@2@@std@@@2@@3@_NV23@@Z:NEAR
EXTRN	?GetAdPath@CLhcImg@@SA_NQADH@Z:NEAR		; CLhcImg::GetAdPath
xdata$x	SEGMENT
$T190121 DD	0ffffffffH
	DD	FLAT:$L190106
	DD	00H
	DD	FLAT:$L190107
	DD	0ffffffffH
	DD	FLAT:$L190108
	DD	02H
	DD	FLAT:$L190109
	DD	03H
	DD	FLAT:$L190110
	DD	02H
	DD	FLAT:$L190110
	DD	02H
	DD	FLAT:$L190111
	DD	06H
	DD	FLAT:$L190112
$T190114 DD	019930520H
	DD	08H
	DD	FLAT:$T190121
	DD	2 DUP(00H)
	DD	2 DUP(00H)
; Function compile flags: /Odt /RTCsu
xdata$x	ENDS
_TEXT	SEGMENT
tv164 = -729						; size = 1
tv166 = -728						; size = 4
tv174 = -724						; size = 4
tv163 = -720						; size = 4
tv82 = -716						; size = 4
$T190105 = -712						; size = 28
$T190104 = -684						; size = 28
$T190103 = -656						; size = 28
$T190102 = -628						; size = 4
$T190101 = -621						; size = 1
$T190100 = -620						; size = 28
$T190099 = -592						; size = 28
_vecStrPath$ = -560					; size = 16
_szBuffer$ = -536					; size = 512
_this$ = -20						; size = 4
__$ArrayPad$ = -16					; size = 4
__$EHRec$ = -12						; size = 12
__$ReturnAddr$ = 4					; size = 4
_pVoid$ = 8						; size = 4
_unContentLen$ = 12					; size = 4
?DownZipFinish@CDownAD@@QAEXPAXI@Z PROC NEAR		; CDownAD::DownZipFinish
; _this$ = ecx

; 131  : {

  00d00	55		 push	 ebp
  00d01	8b ec		 mov	 ebp, esp
  00d03	6a ff		 push	 -1
  00d05	68 00 00 00 00	 push	 __ehhandler$?DownZipFinish@CDownAD@@QAEXPAXI@Z
  00d0a	64 a1 00 00 00
	00		 mov	 eax, DWORD PTR fs:__except_list
  00d10	50		 push	 eax
  00d11	64 89 25 00 00
	00 00		 mov	 DWORD PTR fs:__except_list, esp
  00d18	81 ec d0 02 00
	00		 sub	 esp, 720		; 000002d0H
  00d1e	56		 push	 esi
  00d1f	57		 push	 edi
  00d20	51		 push	 ecx
  00d21	8d bd 24 fd ff
	ff		 lea	 edi, DWORD PTR [ebp-732]
  00d27	b9 b4 00 00 00	 mov	 ecx, 180		; 000000b4H
  00d2c	b8 cc cc cc cc	 mov	 eax, -858993460		; ccccccccH
  00d31	f3 ab		 rep stosd
  00d33	59		 pop	 ecx
  00d34	a1 00 00 00 00	 mov	 eax, DWORD PTR ___security_cookie
  00d39	89 45 f0	 mov	 DWORD PTR __$ArrayPad$[ebp], eax
  00d3c	89 4d ec	 mov	 DWORD PTR _this$[ebp], ecx

; 132  : 	char szBuffer[512];
; 133  : 	if( !CLhcImg::GetAdPath( szBuffer,512 ) )

  00d3f	68 00 02 00 00	 push	 512			; 00000200H
  00d44	8d 85 e8 fd ff
	ff		 lea	 eax, DWORD PTR _szBuffer$[ebp]
  00d4a	50		 push	 eax
  00d4b	e8 00 00 00 00	 call	 ?GetAdPath@CLhcImg@@SA_NQADH@Z ; CLhcImg::GetAdPath
  00d50	83 c4 08	 add	 esp, 8
  00d53	0f b6 c8	 movzx	 ecx, al
  00d56	85 c9		 test	 ecx, ecx
  00d58	0f 85 a0 00 00
	00		 jne	 $L188273

; 134  : 	{
; 135  : 		YL_Log( "ad.txt",LOG_NOTICE,"DownZipFinish","GetAd Path Failed" );

  00d5e	8b f4		 mov	 esi, esp
  00d60	68 00 00 00 00	 push	 OFFSET FLAT:$SG188277
  00d65	8d 8d b0 fd ff
	ff		 lea	 ecx, DWORD PTR $T190099[ebp]
  00d6b	ff 15 00 00 00
	00		 call	 DWORD PTR __imp_??0?$basic_string@DU?$char_traits@D@std@@V?$allocator@D@2@@std@@QAE@PBD@Z
  00d71	3b f4		 cmp	 esi, esp
  00d73	e8 00 00 00 00	 call	 __RTC_CheckEsp
  00d78	c7 45 fc 00 00
	00 00		 mov	 DWORD PTR __$EHRec$[ebp+8], 0
  00d7f	8b f4		 mov	 esi, esp
  00d81	68 00 00 00 00	 push	 OFFSET FLAT:$SG188278
  00d86	8d 8d 94 fd ff
	ff		 lea	 ecx, DWORD PTR $T190100[ebp]
  00d8c	ff 15 00 00 00
	00		 call	 DWORD PTR __imp_??0?$basic_string@DU?$char_traits@D@std@@V?$allocator@D@2@@std@@QAE@PBD@Z
  00d92	3b f4		 cmp	 esi, esp
  00d94	e8 00 00 00 00	 call	 __RTC_CheckEsp
  00d99	c6 45 fc 01	 mov	 BYTE PTR __$EHRec$[ebp+8], 1
  00d9d	8b f4		 mov	 esi, esp
  00d9f	68 00 00 00 00	 push	 OFFSET FLAT:$SG188276
  00da4	8d 95 b0 fd ff
	ff		 lea	 edx, DWORD PTR $T190099[ebp]
  00daa	52		 push	 edx
  00dab	6a 01		 push	 1
  00dad	8d 85 94 fd ff
	ff		 lea	 eax, DWORD PTR $T190100[ebp]
  00db3	50		 push	 eax
  00db4	ff 15 00 00 00
	00		 call	 DWORD PTR __imp_?YL_Log@@YAXABV?$basic_string@DU?$char_traits@D@std@@V?$allocator@D@2@@std@@H0PBDZZ
  00dba	83 c4 10	 add	 esp, 16			; 00000010H
  00dbd	3b f4		 cmp	 esi, esp
  00dbf	e8 00 00 00 00	 call	 __RTC_CheckEsp
  00dc4	c6 45 fc 00	 mov	 BYTE PTR __$EHRec$[ebp+8], 0
  00dc8	8b f4		 mov	 esi, esp
  00dca	8d 8d 94 fd ff
	ff		 lea	 ecx, DWORD PTR $T190100[ebp]
  00dd0	ff 15 00 00 00
	00		 call	 DWORD PTR __imp_??1?$basic_string@DU?$char_traits@D@std@@V?$allocator@D@2@@std@@QAE@XZ
  00dd6	3b f4		 cmp	 esi, esp
  00dd8	e8 00 00 00 00	 call	 __RTC_CheckEsp
  00ddd	c7 45 fc ff ff
	ff ff		 mov	 DWORD PTR __$EHRec$[ebp+8], -1
  00de4	8b f4		 mov	 esi, esp
  00de6	8d 8d b0 fd ff
	ff		 lea	 ecx, DWORD PTR $T190099[ebp]
  00dec	ff 15 00 00 00
	00		 call	 DWORD PTR __imp_??1?$basic_string@DU?$char_traits@D@std@@V?$allocator@D@2@@std@@QAE@XZ
  00df2	3b f4		 cmp	 esi, esp
  00df4	e8 00 00 00 00	 call	 __RTC_CheckEsp

; 136  : 		return;

  00df9	e9 99 01 00 00	 jmp	 $L188271
$L188273:

; 137  : 	}
; 138  : 
; 139  : 	vector<string> vecStrPath;

  00dfe	8d 8d d0 fd ff
	ff		 lea	 ecx, DWORD PTR _vecStrPath$[ebp]
  00e04	e8 00 00 00 00	 call	 ??0?$vector@V?$basic_string@DU?$char_traits@D@std@@V?$allocator@D@2@@std@@V?$allocator@V?$basic_string@DU?$char_traits@D@std@@V?$allocator@D@2@@std@@@2@@std@@QAE@XZ ; std::vector<std::basic_string<char,std::char_traits<char>,std::allocator<char> >,std::allocator<std::basic_string<char,std::char_traits<char>,std::allocator<char> > > >::vector<std::basic_string<char,std::char_traits<char>,std::allocator<char> >,std::allocator<std::basic_string<char,std::char_traits<char>,std::allocator<char> > > >
  00e09	c7 45 fc 02 00
	00 00		 mov	 DWORD PTR __$EHRec$[ebp+8], 2

; 140  : 	if( !YL_CFileZip::UnCompress( pVoid,unContentLen,string(szBuffer),vecStrPath,true) )

  00e10	83 ec 1c	 sub	 esp, 28			; 0000001cH
  00e13	8b cc		 mov	 ecx, esp
  00e15	89 a5 8c fd ff
	ff		 mov	 DWORD PTR $T190102[ebp], esp
  00e1b	8b f4		 mov	 esi, esp
  00e1d	68 00 00 00 00	 push	 OFFSET FLAT:$SG188478
  00e22	ff 15 00 00 00
	00		 call	 DWORD PTR __imp_??0?$basic_string@DU?$char_traits@D@std@@V?$allocator@D@2@@std@@QAE@PBD@Z
  00e28	3b f4		 cmp	 esi, esp
  00e2a	e8 00 00 00 00	 call	 __RTC_CheckEsp
  00e2f	89 85 34 fd ff
	ff		 mov	 DWORD PTR tv82[ebp], eax
  00e35	8b 8d 34 fd ff
	ff		 mov	 ecx, DWORD PTR tv82[ebp]
  00e3b	89 8d 30 fd ff
	ff		 mov	 DWORD PTR tv163[ebp], ecx
  00e41	c6 45 fc 03	 mov	 BYTE PTR __$EHRec$[ebp+8], 3
  00e45	8b f4		 mov	 esi, esp
  00e47	8d 95 e8 fd ff
	ff		 lea	 edx, DWORD PTR _szBuffer$[ebp]
  00e4d	52		 push	 edx
  00e4e	8d 8d 70 fd ff
	ff		 lea	 ecx, DWORD PTR $T190103[ebp]
  00e54	ff 15 00 00 00
	00		 call	 DWORD PTR __imp_??0?$basic_string@DU?$char_traits@D@std@@V?$allocator@D@2@@std@@QAE@PBD@Z
  00e5a	3b f4		 cmp	 esi, esp
  00e5c	e8 00 00 00 00	 call	 __RTC_CheckEsp
  00e61	89 85 2c fd ff
	ff		 mov	 DWORD PTR tv174[ebp], eax
  00e67	8b 85 2c fd ff
	ff		 mov	 eax, DWORD PTR tv174[ebp]
  00e6d	89 85 28 fd ff
	ff		 mov	 DWORD PTR tv166[ebp], eax
  00e73	c6 45 fc 04	 mov	 BYTE PTR __$EHRec$[ebp+8], 4
  00e77	6a 01		 push	 1
  00e79	8d 8d d0 fd ff
	ff		 lea	 ecx, DWORD PTR _vecStrPath$[ebp]
  00e7f	51		 push	 ecx
  00e80	8b 95 28 fd ff
	ff		 mov	 edx, DWORD PTR tv166[ebp]
  00e86	52		 push	 edx
  00e87	8b 45 0c	 mov	 eax, DWORD PTR _unContentLen$[ebp]
  00e8a	50		 push	 eax
  00e8b	8b 4d 08	 mov	 ecx, DWORD PTR _pVoid$[ebp]
  00e8e	51		 push	 ecx
  00e8f	c6 45 fc 05	 mov	 BYTE PTR __$EHRec$[ebp+8], 5
  00e93	ff 15 00 00 00
	00		 call	 DWORD PTR __imp_?UnCompress@YL_CFileZip@@SA_NPAXIABV?$basic_string@DU?$char_traits@D@std@@V?$allocator@D@2@@std@@AAV?$vector@V?$basic_string@DU?$char_traits@D@std@@V?$allocator@D@2@@std@@V?$allocator@V?$basic_string@DU?$char_traits@D@std@@V?$allocator@D@2@@std@@@2@@3@_NV23@@Z
  00e99	83 c4 30	 add	 esp, 48			; 00000030H
  00e9c	88 85 27 fd ff
	ff		 mov	 BYTE PTR tv164[ebp], al
  00ea2	0f b6 95 27 fd
	ff ff		 movzx	 edx, BYTE PTR tv164[ebp]
  00ea9	f7 da		 neg	 edx
  00eab	1b d2		 sbb	 edx, edx
  00ead	42		 inc	 edx
  00eae	88 95 93 fd ff
	ff		 mov	 BYTE PTR $T190101[ebp], dl
  00eb4	c6 45 fc 02	 mov	 BYTE PTR __$EHRec$[ebp+8], 2
  00eb8	8b f4		 mov	 esi, esp
  00eba	8d 8d 70 fd ff
	ff		 lea	 ecx, DWORD PTR $T190103[ebp]
  00ec0	ff 15 00 00 00
	00		 call	 DWORD PTR __imp_??1?$basic_string@DU?$char_traits@D@std@@V?$allocator@D@2@@std@@QAE@XZ
  00ec6	3b f4		 cmp	 esi, esp
  00ec8	e8 00 00 00 00	 call	 __RTC_CheckEsp
  00ecd	0f b6 85 93 fd
	ff ff		 movzx	 eax, BYTE PTR $T190101[ebp]
  00ed4	85 c0		 test	 eax, eax
  00ed6	0f 84 a9 00 00
	00		 je	 $L188476

; 141  : 	{
; 142  : 		YL_Log( "qq.txt",LOG_NOTICE,"DownZipFinish","res !!!!!!" );

  00edc	8b f4		 mov	 esi, esp
  00ede	68 00 00 00 00	 push	 OFFSET FLAT:$SG188482
  00ee3	8d 8d 54 fd ff
	ff		 lea	 ecx, DWORD PTR $T190104[ebp]
  00ee9	ff 15 00 00 00
	00		 call	 DWORD PTR __imp_??0?$basic_string@DU?$char_traits@D@std@@V?$allocator@D@2@@std@@QAE@PBD@Z
  00eef	3b f4		 cmp	 esi, esp
  00ef1	e8 00 00 00 00	 call	 __RTC_CheckEsp
  00ef6	c6 45 fc 06	 mov	 BYTE PTR __$EHRec$[ebp+8], 6
  00efa	8b f4		 mov	 esi, esp
  00efc	68 00 00 00 00	 push	 OFFSET FLAT:$SG188483
  00f01	8d 8d 38 fd ff
	ff		 lea	 ecx, DWORD PTR $T190105[ebp]
  00f07	ff 15 00 00 00
	00		 call	 DWORD PTR __imp_??0?$basic_string@DU?$char_traits@D@std@@V?$allocator@D@2@@std@@QAE@PBD@Z
  00f0d	3b f4		 cmp	 esi, esp
  00f0f	e8 00 00 00 00	 call	 __RTC_CheckEsp
  00f14	c6 45 fc 07	 mov	 BYTE PTR __$EHRec$[ebp+8], 7
  00f18	8b f4		 mov	 esi, esp
  00f1a	68 00 00 00 00	 push	 OFFSET FLAT:$SG188481
  00f1f	8d 8d 54 fd ff
	ff		 lea	 ecx, DWORD PTR $T190104[ebp]
  00f25	51		 push	 ecx
  00f26	6a 01		 push	 1
  00f28	8d 95 38 fd ff
	ff		 lea	 edx, DWORD PTR $T190105[ebp]
  00f2e	52		 push	 edx
  00f2f	ff 15 00 00 00
	00		 call	 DWORD PTR __imp_?YL_Log@@YAXABV?$basic_string@DU?$char_traits@D@std@@V?$allocator@D@2@@std@@H0PBDZZ
  00f35	83 c4 10	 add	 esp, 16			; 00000010H
  00f38	3b f4		 cmp	 esi, esp
  00f3a	e8 00 00 00 00	 call	 __RTC_CheckEsp
  00f3f	c6 45 fc 06	 mov	 BYTE PTR __$EHRec$[ebp+8], 6
  00f43	8b f4		 mov	 esi, esp
  00f45	8d 8d 38 fd ff
	ff		 lea	 ecx, DWORD PTR $T190105[ebp]
  00f4b	ff 15 00 00 00
	00		 call	 DWORD PTR __imp_??1?$basic_string@DU?$char_traits@D@std@@V?$allocator@D@2@@std@@QAE@XZ
  00f51	3b f4		 cmp	 esi, esp
  00f53	e8 00 00 00 00	 call	 __RTC_CheckEsp
  00f58	c6 45 fc 02	 mov	 BYTE PTR __$EHRec$[ebp+8], 2
  00f5c	8b f4		 mov	 esi, esp
  00f5e	8d 8d 54 fd ff
	ff		 lea	 ecx, DWORD PTR $T190104[ebp]
  00f64	ff 15 00 00 00
	00		 call	 DWORD PTR __imp_??1?$basic_string@DU?$char_traits@D@std@@V?$allocator@D@2@@std@@QAE@XZ
  00f6a	3b f4		 cmp	 esi, esp
  00f6c	e8 00 00 00 00	 call	 __RTC_CheckEsp

; 143  : 		return;

  00f71	c7 45 fc ff ff
	ff ff		 mov	 DWORD PTR __$EHRec$[ebp+8], -1
  00f78	8d 8d d0 fd ff
	ff		 lea	 ecx, DWORD PTR _vecStrPath$[ebp]
  00f7e	e8 00 00 00 00	 call	 ??1?$vector@V?$basic_string@DU?$char_traits@D@std@@V?$allocator@D@2@@std@@V?$allocator@V?$basic_string@DU?$char_traits@D@std@@V?$allocator@D@2@@std@@@2@@std@@QAE@XZ ; std::vector<std::basic_string<char,std::char_traits<char>,std::allocator<char> >,std::allocator<std::basic_string<char,std::char_traits<char>,std::allocator<char> > > >::~vector<std::basic_string<char,std::char_traits<char>,std::allocator<char> >,std::allocator<std::basic_string<char,std::char_traits<char>,std::allocator<char> > > >
  00f83	eb 12		 jmp	 SHORT $L188271
$L188476:

; 144  : 	}
; 145  : }

  00f85	c7 45 fc ff ff
	ff ff		 mov	 DWORD PTR __$EHRec$[ebp+8], -1
  00f8c	8d 8d d0 fd ff
	ff		 lea	 ecx, DWORD PTR _vecStrPath$[ebp]
  00f92	e8 00 00 00 00	 call	 ??1?$vector@V?$basic_string@DU?$char_traits@D@std@@V?$allocator@D@2@@std@@V?$allocator@V?$basic_string@DU?$char_traits@D@std@@V?$allocator@D@2@@std@@@2@@std@@QAE@XZ ; std::vector<std::basic_string<char,std::char_traits<char>,std::allocator<char> >,std::allocator<std::basic_string<char,std::char_traits<char>,std::allocator<char> > > >::~vector<std::basic_string<char,std::char_traits<char>,std::allocator<char> >,std::allocator<std::basic_string<char,std::char_traits<char>,std::allocator<char> > > >
$L188271:
  00f97	52		 push	 edx
  00f98	8b cd		 mov	 ecx, ebp
  00f9a	50		 push	 eax
  00f9b	8d 15 00 00 00
	00		 lea	 edx, DWORD PTR $L190120
  00fa1	e8 00 00 00 00	 call	 @_RTC_CheckStackVars@8
  00fa6	58		 pop	 eax
  00fa7	5a		 pop	 edx
  00fa8	8b 4d f4	 mov	 ecx, DWORD PTR __$EHRec$[ebp]
  00fab	64 89 0d 00 00
	00 00		 mov	 DWORD PTR fs:__except_list, ecx
  00fb2	8b 4d f0	 mov	 ecx, DWORD PTR __$ArrayPad$[ebp]
  00fb5	e8 00 00 00 00	 call	 @__security_check_cookie@4
  00fba	5f		 pop	 edi
  00fbb	5e		 pop	 esi
  00fbc	81 c4 dc 02 00
	00		 add	 esp, 732		; 000002dcH
  00fc2	3b ec		 cmp	 ebp, esp
  00fc4	e8 00 00 00 00	 call	 __RTC_CheckEsp
  00fc9	8b e5		 mov	 esp, ebp
  00fcb	5d		 pop	 ebp
  00fcc	c2 08 00	 ret	 8
$L190120:
  00fcf	02 00 00 00	 DD	 2
  00fd3	00 00 00 00	 DD	 $L190119
$L190119:
  00fd7	e8 fd ff ff	 DD	 -536			; fffffde8H
  00fdb	00 02 00 00	 DD	 512			; 00000200H
  00fdf	00 00 00 00	 DD	 $L190115
  00fe3	d0 fd ff ff	 DD	 -560			; fffffdd0H
  00fe7	10 00 00 00	 DD	 16			; 00000010H
  00feb	00 00 00 00	 DD	 $L190116
$L190116:
  00fef	76		 DB	 118			; 00000076H
  00ff0	65		 DB	 101			; 00000065H
  00ff1	63		 DB	 99			; 00000063H
  00ff2	53		 DB	 83			; 00000053H
  00ff3	74		 DB	 116			; 00000074H
  00ff4	72		 DB	 114			; 00000072H
  00ff5	50		 DB	 80			; 00000050H
  00ff6	61		 DB	 97			; 00000061H
  00ff7	74		 DB	 116			; 00000074H
  00ff8	68		 DB	 104			; 00000068H
  00ff9	00		 DB	 0
$L190115:
  00ffa	73		 DB	 115			; 00000073H
  00ffb	7a		 DB	 122			; 0000007aH
  00ffc	42		 DB	 66			; 00000042H
  00ffd	75		 DB	 117			; 00000075H
  00ffe	66		 DB	 102			; 00000066H
  00fff	66		 DB	 102			; 00000066H
  01000	65		 DB	 101			; 00000065H
  01001	72		 DB	 114			; 00000072H
  01002	00		 DB	 0
_TEXT	ENDS
text$x	SEGMENT
$L190106:
  00239	8b f4		 mov	 esi, esp
  0023b	8d 8d b0 fd ff
	ff		 lea	 ecx, DWORD PTR $T190099[ebp]
  00241	ff 15 00 00 00
	00		 call	 DWORD PTR __imp_??1?$basic_string@DU?$char_traits@D@std@@V?$allocator@D@2@@std@@QAE@XZ
  00247	3b f4		 cmp	 esi, esp
  00249	e9 00 00 00 00	 jmp	 __RTC_CheckEsp
$L190107:
  0024e	8b f4		 mov	 esi, esp
  00250	8d 8d 94 fd ff
	ff		 lea	 ecx, DWORD PTR $T190100[ebp]
  00256	ff 15 00 00 00
	00		 call	 DWORD PTR __imp_??1?$basic_string@DU?$char_traits@D@std@@V?$allocator@D@2@@std@@QAE@XZ
  0025c	3b f4		 cmp	 esi, esp
  0025e	e9 00 00 00 00	 jmp	 __RTC_CheckEsp
$L190108:
  00263	8d 8d d0 fd ff
	ff		 lea	 ecx, DWORD PTR _vecStrPath$[ebp]
  00269	e9 00 00 00 00	 jmp	 ??1?$vector@V?$basic_string@DU?$char_traits@D@std@@V?$allocator@D@2@@std@@V?$allocator@V?$basic_string@DU?$char_traits@D@std@@V?$allocator@D@2@@std@@@2@@std@@QAE@XZ ; std::vector<std::basic_string<char,std::char_traits<char>,std::allocator<char> >,std::allocator<std::basic_string<char,std::char_traits<char>,std::allocator<char> > > >::~vector<std::basic_string<char,std::char_traits<char>,std::allocator<char> >,std::allocator<std::basic_string<char,std::char_traits<char>,std::allocator<char> > > >
$L190109:
  0026e	8b f4		 mov	 esi, esp
  00270	8b 8d 8c fd ff
	ff		 mov	 ecx, DWORD PTR $T190102[ebp]
  00276	ff 15 00 00 00
	00		 call	 DWORD PTR __imp_??1?$basic_string@DU?$char_traits@D@std@@V?$allocator@D@2@@std@@QAE@XZ
  0027c	3b f4		 cmp	 esi, esp
  0027e	e9 00 00 00 00	 jmp	 __RTC_CheckEsp
$L190110:
  00283	8b f4		 mov	 esi, esp
  00285	8d 8d 70 fd ff
	ff		 lea	 ecx, DWORD PTR $T190103[ebp]
  0028b	ff 15 00 00 00
	00		 call	 DWORD PTR __imp_??1?$basic_string@DU?$char_traits@D@std@@V?$allocator@D@2@@std@@QAE@XZ
  00291	3b f4		 cmp	 esi, esp
  00293	e9 00 00 00 00	 jmp	 __RTC_CheckEsp
$L190111:
  00298	8b f4		 mov	 esi, esp
  0029a	8d 8d 54 fd ff
	ff		 lea	 ecx, DWORD PTR $T190104[ebp]
  002a0	ff 15 00 00 00
	00		 call	 DWORD PTR __imp_??1?$basic_string@DU?$char_traits@D@std@@V?$allocator@D@2@@std@@QAE@XZ
  002a6	3b f4		 cmp	 esi, esp
  002a8	e9 00 00 00 00	 jmp	 __RTC_CheckEsp
$L190112:
  002ad	8b f4		 mov	 esi, esp
  002af	8d 8d 38 fd ff
	ff		 lea	 ecx, DWORD PTR $T190105[ebp]
  002b5	ff 15 00 00 00
	00		 call	 DWORD PTR __imp_??1?$basic_string@DU?$char_traits@D@std@@V?$allocator@D@2@@std@@QAE@XZ
  002bb	3b f4		 cmp	 esi, esp
  002bd	e9 00 00 00 00	 jmp	 __RTC_CheckEsp
__ehhandler$?DownZipFinish@CDownAD@@QAEXPAXI@Z:
  002c2	b8 00 00 00 00	 mov	 eax, OFFSET FLAT:$T190114
  002c7	e9 00 00 00 00	 jmp	 ___CxxFrameHandler
text$x	ENDS
?DownZipFinish@CDownAD@@QAEXPAXI@Z ENDP			; CDownAD::DownZipFinish
PUBLIC	??$?HDU?$char_traits@D@std@@V?$allocator@D@1@@std@@YA?AV?$basic_string@DU?$char_traits@D@std@@V?$allocator@D@2@@0@ABV10@PBD@Z ; std::operator+<char,std::char_traits<char>,std::allocator<char> >
PUBLIC	??0AD_STRUCT@@QAE@XZ				; AD_STRUCT::AD_STRUCT
PUBLIC	??1AD_STRUCT@@QAE@XZ				; AD_STRUCT::~AD_STRUCT
PUBLIC	?push_back@?$vector@UAD_STRUCT@@V?$allocator@UAD_STRUCT@@@std@@@std@@QAEXABUAD_STRUCT@@@Z ; std::vector<AD_STRUCT,std::allocator<AD_STRUCT> >::push_back
EXTRN	?Format@YL_StringUtil@@SA_NAAV?$basic_string@DU?$char_traits@D@std@@V?$allocator@D@2@@std@@PBDZZ:NEAR ; YL_StringUtil::Format
EXTRN	?IsValid@YL_FileInfo@@SA_NABV?$basic_string@DU?$char_traits@D@std@@V?$allocator@D@2@@std@@@Z:NEAR ; YL_FileInfo::IsValid
EXTRN	??0YL_Ini@@QAE@PBD@Z:NEAR			; YL_Ini::YL_Ini
EXTRN	??1YL_Ini@@UAE@XZ:NEAR				; YL_Ini::~YL_Ini
EXTRN	?GetString@YL_Ini@@QBEKPBD0PADK0@Z:NEAR		; YL_Ini::GetString
EXTRN	?GetInt@YL_Ini@@QBEHPBD0HH@Z:NEAR		; YL_Ini::GetInt
EXTRN	__imp_??4?$basic_string@DU?$char_traits@D@std@@V?$allocator@D@2@@std@@QAEAAV01@ABV01@@Z:NEAR
EXTRN	_memset:NEAR
EXTRN	_strcat:NEAR
EXTRN	_strlen:NEAR
EXTRN	__imp_?length@?$basic_string@DU?$char_traits@D@std@@V?$allocator@D@2@@std@@QBEIXZ:NEAR
xdata$x	SEGMENT
$T190142 DD	0ffffffffH
	DD	FLAT:$L190125
	DD	00H
	DD	FLAT:$L190126
	DD	01H
	DD	FLAT:$L190127
	DD	02H
	DD	FLAT:$L190128
	DD	03H
	DD	FLAT:$L190129
$T190131 DD	019930520H
	DD	05H
	DD	FLAT:$T190142
	DD	2 DUP(00H)
	DD	2 DUP(00H)
; Function compile flags: /Odt /RTCsu
xdata$x	ENDS
_TEXT	SEGMENT
tv199 = -1776						; size = 4
tv132 = -1772						; size = 4
$T190124 = -1768					; size = 28
_ad$188504 = -1736					; size = 56
_i$188500 = -1676					; size = 4
_strTmpKey$ = -1668					; size = 28
_dwTmpRet$ = -1636					; size = 4
_szTmpBuf$ = -1628					; size = 1024
_nAdNum$ = -600						; size = 4
_szSection$ = -596					; size = 4
_ini$ = -588						; size = 8
_strAdPath$ = -572					; size = 28
_szBuffer$ = -536					; size = 512
_this$ = -20						; size = 4
__$ArrayPad$ = -16					; size = 4
__$EHRec$ = -12						; size = 12
__$ReturnAddr$ = 4					; size = 4
?ReloadAd@CDownAD@@AAEXXZ PROC NEAR			; CDownAD::ReloadAd
; _this$ = ecx

; 148  : {

  01010	55		 push	 ebp
  01011	8b ec		 mov	 ebp, esp
  01013	6a ff		 push	 -1
  01015	68 00 00 00 00	 push	 __ehhandler$?ReloadAd@CDownAD@@AAEXXZ
  0101a	64 a1 00 00 00
	00		 mov	 eax, DWORD PTR fs:__except_list
  01020	50		 push	 eax
  01021	64 89 25 00 00
	00 00		 mov	 DWORD PTR fs:__except_list, esp
  01028	81 ec e4 06 00
	00		 sub	 esp, 1764		; 000006e4H
  0102e	56		 push	 esi
  0102f	57		 push	 edi
  01030	51		 push	 ecx
  01031	8d bd 10 f9 ff
	ff		 lea	 edi, DWORD PTR [ebp-1776]
  01037	b9 b9 01 00 00	 mov	 ecx, 441		; 000001b9H
  0103c	b8 cc cc cc cc	 mov	 eax, -858993460		; ccccccccH
  01041	f3 ab		 rep stosd
  01043	59		 pop	 ecx
  01044	a1 00 00 00 00	 mov	 eax, DWORD PTR ___security_cookie
  01049	89 45 f0	 mov	 DWORD PTR __$ArrayPad$[ebp], eax
  0104c	89 4d ec	 mov	 DWORD PTR _this$[ebp], ecx

; 149  : 	m_iCurAd = 0;

  0104f	8b 45 ec	 mov	 eax, DWORD PTR _this$[ebp]
  01052	c7 40 24 00 00
	00 00		 mov	 DWORD PTR [eax+36], 0

; 150  : 	m_vecAD.clear();

  01059	8b 4d ec	 mov	 ecx, DWORD PTR _this$[ebp]
  0105c	83 c1 14	 add	 ecx, 20			; 00000014H
  0105f	e8 00 00 00 00	 call	 ?clear@?$vector@UAD_STRUCT@@V?$allocator@UAD_STRUCT@@@std@@@std@@QAEXXZ ; std::vector<AD_STRUCT,std::allocator<AD_STRUCT> >::clear

; 151  : 	//
; 152  : 	char szBuffer[512];
; 153  : 	memset( szBuffer, 0, 512 );

  01064	68 00 02 00 00	 push	 512			; 00000200H
  01069	6a 00		 push	 0
  0106b	8d 8d e8 fd ff
	ff		 lea	 ecx, DWORD PTR _szBuffer$[ebp]
  01071	51		 push	 ecx
  01072	e8 00 00 00 00	 call	 _memset
  01077	83 c4 0c	 add	 esp, 12			; 0000000cH

; 154  : 	if( !CLhcImg::GetAdPath( szBuffer,512 ) )

  0107a	68 00 02 00 00	 push	 512			; 00000200H
  0107f	8d 95 e8 fd ff
	ff		 lea	 edx, DWORD PTR _szBuffer$[ebp]
  01085	52		 push	 edx
  01086	e8 00 00 00 00	 call	 ?GetAdPath@CLhcImg@@SA_NQADH@Z ; CLhcImg::GetAdPath
  0108b	83 c4 08	 add	 esp, 8
  0108e	0f b6 c0	 movzx	 eax, al
  01091	85 c0		 test	 eax, eax
  01093	75 05		 jne	 SHORT $L188488

; 155  : 	{
; 156  : 		return;

  01095	e9 47 03 00 00	 jmp	 $L188486
$L188488:

; 157  : 	}
; 158  : 	string strAdPath = string( szBuffer );

  0109a	8b f4		 mov	 esi, esp
  0109c	8d 8d e8 fd ff
	ff		 lea	 ecx, DWORD PTR _szBuffer$[ebp]
  010a2	51		 push	 ecx
  010a3	8d 8d c4 fd ff
	ff		 lea	 ecx, DWORD PTR _strAdPath$[ebp]
  010a9	ff 15 00 00 00
	00		 call	 DWORD PTR __imp_??0?$basic_string@DU?$char_traits@D@std@@V?$allocator@D@2@@std@@QAE@PBD@Z
  010af	3b f4		 cmp	 esi, esp
  010b1	e8 00 00 00 00	 call	 __RTC_CheckEsp
  010b6	c7 45 fc 00 00
	00 00		 mov	 DWORD PTR __$EHRec$[ebp+8], 0

; 159  : 	strcat( szBuffer, "AdLoadingPane.ini" );

  010bd	68 00 00 00 00	 push	 OFFSET FLAT:$SG188491
  010c2	8d 95 e8 fd ff
	ff		 lea	 edx, DWORD PTR _szBuffer$[ebp]
  010c8	52		 push	 edx
  010c9	e8 00 00 00 00	 call	 _strcat
  010ce	83 c4 08	 add	 esp, 8

; 160  : 
; 161  : 	YL_Ini ini (szBuffer);

  010d1	8d 85 e8 fd ff
	ff		 lea	 eax, DWORD PTR _szBuffer$[ebp]
  010d7	50		 push	 eax
  010d8	8d 8d b4 fd ff
	ff		 lea	 ecx, DWORD PTR _ini$[ebp]
  010de	e8 00 00 00 00	 call	 ??0YL_Ini@@QAE@PBD@Z	; YL_Ini::YL_Ini
  010e3	c6 45 fc 01	 mov	 BYTE PTR __$EHRec$[ebp+8], 1

; 162  : 	const char * szSection = "AdLoadingPane";

  010e7	c7 85 ac fd ff
	ff 00 00 00 00	 mov	 DWORD PTR _szSection$[ebp], OFFSET FLAT:$SG188494

; 163  : 	int nAdNum = ini.GetInt (szSection, "AdLoadingPaneNum", 0);

  010f1	6a 0a		 push	 10			; 0000000aH
  010f3	6a 00		 push	 0
  010f5	68 00 00 00 00	 push	 OFFSET FLAT:$SG188496
  010fa	8b 8d ac fd ff
	ff		 mov	 ecx, DWORD PTR _szSection$[ebp]
  01100	51		 push	 ecx
  01101	8d 8d b4 fd ff
	ff		 lea	 ecx, DWORD PTR _ini$[ebp]
  01107	e8 00 00 00 00	 call	 ?GetInt@YL_Ini@@QBEHPBD0HH@Z ; YL_Ini::GetInt
  0110c	89 85 a8 fd ff
	ff		 mov	 DWORD PTR _nAdNum$[ebp], eax

; 164  : 
; 165  : 	char szTmpBuf [1024] = {0};

  01112	c6 85 a4 f9 ff
	ff 00		 mov	 BYTE PTR _szTmpBuf$[ebp], 0
  01119	b9 ff 00 00 00	 mov	 ecx, 255		; 000000ffH
  0111e	33 c0		 xor	 eax, eax
  01120	8d bd a5 f9 ff
	ff		 lea	 edi, DWORD PTR _szTmpBuf$[ebp+1]
  01126	f3 ab		 rep stosd
  01128	66 ab		 stosw
  0112a	aa		 stosb

; 166  : 	DWORD dwTmpRet = 0;

  0112b	c7 85 9c f9 ff
	ff 00 00 00 00	 mov	 DWORD PTR _dwTmpRet$[ebp], 0

; 167  : 	string strTmpKey;

  01135	8b f4		 mov	 esi, esp
  01137	8d 8d 7c f9 ff
	ff		 lea	 ecx, DWORD PTR _strTmpKey$[ebp]
  0113d	ff 15 00 00 00
	00		 call	 DWORD PTR __imp_??0?$basic_string@DU?$char_traits@D@std@@V?$allocator@D@2@@std@@QAE@XZ
  01143	3b f4		 cmp	 esi, esp
  01145	e8 00 00 00 00	 call	 __RTC_CheckEsp
  0114a	c6 45 fc 02	 mov	 BYTE PTR __$EHRec$[ebp+8], 2

; 168  : 	for (int i = 0; i < nAdNum; i++)

  0114e	c7 85 74 f9 ff
	ff 00 00 00 00	 mov	 DWORD PTR _i$188500[ebp], 0
  01158	eb 0f		 jmp	 SHORT $L188501
$L188502:
  0115a	8b 95 74 f9 ff
	ff		 mov	 edx, DWORD PTR _i$188500[ebp]
  01160	83 c2 01	 add	 edx, 1
  01163	89 95 74 f9 ff
	ff		 mov	 DWORD PTR _i$188500[ebp], edx
$L188501:
  01169	8b 85 74 f9 ff
	ff		 mov	 eax, DWORD PTR _i$188500[ebp]
  0116f	3b 85 a8 fd ff
	ff		 cmp	 eax, DWORD PTR _nAdNum$[ebp]
  01175	0f 8d 22 02 00
	00		 jge	 $L188503

; 169  : 	{
; 170  : 		AD_STRUCT ad;

  0117b	8d 8d 38 f9 ff
	ff		 lea	 ecx, DWORD PTR _ad$188504[ebp]
  01181	e8 00 00 00 00	 call	 ??0AD_STRUCT@@QAE@XZ
  01186	c6 45 fc 03	 mov	 BYTE PTR __$EHRec$[ebp+8], 3

; 171  : 		//strLinkUrl
; 172  : 		memset (szTmpBuf, 0, sizeof (char) * 1024);

  0118a	68 00 04 00 00	 push	 1024			; 00000400H
  0118f	6a 00		 push	 0
  01191	8d 8d a4 f9 ff
	ff		 lea	 ecx, DWORD PTR _szTmpBuf$[ebp]
  01197	51		 push	 ecx
  01198	e8 00 00 00 00	 call	 _memset
  0119d	83 c4 0c	 add	 esp, 12			; 0000000cH

; 173  : 		YL_StringUtil::Format (strTmpKey, "LoadingPaneLink%d", i);

  011a0	8b 95 74 f9 ff
	ff		 mov	 edx, DWORD PTR _i$188500[ebp]
  011a6	52		 push	 edx
  011a7	68 00 00 00 00	 push	 OFFSET FLAT:$SG188506
  011ac	8d 85 7c f9 ff
	ff		 lea	 eax, DWORD PTR _strTmpKey$[ebp]
  011b2	50		 push	 eax
  011b3	e8 00 00 00 00	 call	 ?Format@YL_StringUtil@@SA_NAAV?$basic_string@DU?$char_traits@D@std@@V?$allocator@D@2@@std@@PBDZZ ; YL_StringUtil::Format
  011b8	83 c4 0c	 add	 esp, 12			; 0000000cH

; 174  : 		dwTmpRet = ini.GetString (szSection, strTmpKey.c_str (), szTmpBuf, 1024 - 1);

  011bb	6a 00		 push	 0
  011bd	68 ff 03 00 00	 push	 1023			; 000003ffH
  011c2	8d 8d a4 f9 ff
	ff		 lea	 ecx, DWORD PTR _szTmpBuf$[ebp]
  011c8	51		 push	 ecx
  011c9	8b f4		 mov	 esi, esp
  011cb	8d 8d 7c f9 ff
	ff		 lea	 ecx, DWORD PTR _strTmpKey$[ebp]
  011d1	ff 15 00 00 00
	00		 call	 DWORD PTR __imp_?c_str@?$basic_string@DU?$char_traits@D@std@@V?$allocator@D@2@@std@@QBEPBDXZ
  011d7	3b f4		 cmp	 esi, esp
  011d9	e8 00 00 00 00	 call	 __RTC_CheckEsp
  011de	50		 push	 eax
  011df	8b 95 ac fd ff
	ff		 mov	 edx, DWORD PTR _szSection$[ebp]
  011e5	52		 push	 edx
  011e6	8d 8d b4 fd ff
	ff		 lea	 ecx, DWORD PTR _ini$[ebp]
  011ec	e8 00 00 00 00	 call	 ?GetString@YL_Ini@@QBEKPBD0PADK0@Z ; YL_Ini::GetString
  011f1	89 85 9c f9 ff
	ff		 mov	 DWORD PTR _dwTmpRet$[ebp], eax

; 175  : 		if (dwTmpRet == 0 || strlen(szTmpBuf) == 0)

  011f7	83 bd 9c f9 ff
	ff 00		 cmp	 DWORD PTR _dwTmpRet$[ebp], 0
  011fe	74 13		 je	 SHORT $L188508
  01200	8d 85 a4 f9 ff
	ff		 lea	 eax, DWORD PTR _szTmpBuf$[ebp]
  01206	50		 push	 eax
  01207	e8 00 00 00 00	 call	 _strlen
  0120c	83 c4 04	 add	 esp, 4
  0120f	85 c0		 test	 eax, eax
  01211	75 14		 jne	 SHORT $L188507
$L188508:

; 176  : 			continue;

  01213	c6 45 fc 02	 mov	 BYTE PTR __$EHRec$[ebp+8], 2
  01217	8d 8d 38 f9 ff
	ff		 lea	 ecx, DWORD PTR _ad$188504[ebp]
  0121d	e8 00 00 00 00	 call	 ??1AD_STRUCT@@QAE@XZ
  01222	e9 33 ff ff ff	 jmp	 $L188502
$L188507:

; 177  : 		ad.strLinkUrl = szTmpBuf;

  01227	8b f4		 mov	 esi, esp
  01229	8d 8d a4 f9 ff
	ff		 lea	 ecx, DWORD PTR _szTmpBuf$[ebp]
  0122f	51		 push	 ecx
  01230	8d 8d 38 f9 ff
	ff		 lea	 ecx, DWORD PTR _ad$188504[ebp]
  01236	ff 15 00 00 00
	00		 call	 DWORD PTR __imp_??4?$basic_string@DU?$char_traits@D@std@@V?$allocator@D@2@@std@@QAEAAV01@PBD@Z
  0123c	3b f4		 cmp	 esi, esp
  0123e	e8 00 00 00 00	 call	 __RTC_CheckEsp

; 178  : 		//strPicPath
; 179  : 		memset (szTmpBuf, 0, sizeof (char) * 1024);

  01243	68 00 04 00 00	 push	 1024			; 00000400H
  01248	6a 00		 push	 0
  0124a	8d 95 a4 f9 ff
	ff		 lea	 edx, DWORD PTR _szTmpBuf$[ebp]
  01250	52		 push	 edx
  01251	e8 00 00 00 00	 call	 _memset
  01256	83 c4 0c	 add	 esp, 12			; 0000000cH

; 180  : 		YL_StringUtil::Format (strTmpKey, "LoadingPanePic%d", i);

  01259	8b 85 74 f9 ff
	ff		 mov	 eax, DWORD PTR _i$188500[ebp]
  0125f	50		 push	 eax
  01260	68 00 00 00 00	 push	 OFFSET FLAT:$SG188510
  01265	8d 8d 7c f9 ff
	ff		 lea	 ecx, DWORD PTR _strTmpKey$[ebp]
  0126b	51		 push	 ecx
  0126c	e8 00 00 00 00	 call	 ?Format@YL_StringUtil@@SA_NAAV?$basic_string@DU?$char_traits@D@std@@V?$allocator@D@2@@std@@PBDZZ ; YL_StringUtil::Format
  01271	83 c4 0c	 add	 esp, 12			; 0000000cH

; 181  : 		dwTmpRet = ini.GetString (szSection, strTmpKey.c_str (), szTmpBuf, 1024 - 1);

  01274	6a 00		 push	 0
  01276	68 ff 03 00 00	 push	 1023			; 000003ffH
  0127b	8d 95 a4 f9 ff
	ff		 lea	 edx, DWORD PTR _szTmpBuf$[ebp]
  01281	52		 push	 edx
  01282	8b f4		 mov	 esi, esp
  01284	8d 8d 7c f9 ff
	ff		 lea	 ecx, DWORD PTR _strTmpKey$[ebp]
  0128a	ff 15 00 00 00
	00		 call	 DWORD PTR __imp_?c_str@?$basic_string@DU?$char_traits@D@std@@V?$allocator@D@2@@std@@QBEPBDXZ
  01290	3b f4		 cmp	 esi, esp
  01292	e8 00 00 00 00	 call	 __RTC_CheckEsp
  01297	50		 push	 eax
  01298	8b 85 ac fd ff
	ff		 mov	 eax, DWORD PTR _szSection$[ebp]
  0129e	50		 push	 eax
  0129f	8d 8d b4 fd ff
	ff		 lea	 ecx, DWORD PTR _ini$[ebp]
  012a5	e8 00 00 00 00	 call	 ?GetString@YL_Ini@@QBEKPBD0PADK0@Z ; YL_Ini::GetString
  012aa	89 85 9c f9 ff
	ff		 mov	 DWORD PTR _dwTmpRet$[ebp], eax

; 182  : 		if (dwTmpRet == 0 || strlen(szTmpBuf) == 0)

  012b0	83 bd 9c f9 ff
	ff 00		 cmp	 DWORD PTR _dwTmpRet$[ebp], 0
  012b7	74 13		 je	 SHORT $L188512
  012b9	8d 8d a4 f9 ff
	ff		 lea	 ecx, DWORD PTR _szTmpBuf$[ebp]
  012bf	51		 push	 ecx
  012c0	e8 00 00 00 00	 call	 _strlen
  012c5	83 c4 04	 add	 esp, 4
  012c8	85 c0		 test	 eax, eax
  012ca	75 14		 jne	 SHORT $L188511
$L188512:

; 183  : 			continue;

  012cc	c6 45 fc 02	 mov	 BYTE PTR __$EHRec$[ebp+8], 2
  012d0	8d 8d 38 f9 ff
	ff		 lea	 ecx, DWORD PTR _ad$188504[ebp]
  012d6	e8 00 00 00 00	 call	 ??1AD_STRUCT@@QAE@XZ
  012db	e9 7a fe ff ff	 jmp	 $L188502
$L188511:

; 184  : 		ad.strPicPath = strAdPath + szTmpBuf;

  012e0	8d 95 a4 f9 ff
	ff		 lea	 edx, DWORD PTR _szTmpBuf$[ebp]
  012e6	52		 push	 edx
  012e7	8d 85 c4 fd ff
	ff		 lea	 eax, DWORD PTR _strAdPath$[ebp]
  012ed	50		 push	 eax
  012ee	8d 8d 18 f9 ff
	ff		 lea	 ecx, DWORD PTR $T190124[ebp]
  012f4	51		 push	 ecx
  012f5	e8 00 00 00 00	 call	 ??$?HDU?$char_traits@D@std@@V?$allocator@D@1@@std@@YA?AV?$basic_string@DU?$char_traits@D@std@@V?$allocator@D@2@@0@ABV10@PBD@Z ; std::operator+<char,std::char_traits<char>,std::allocator<char> >
  012fa	83 c4 0c	 add	 esp, 12			; 0000000cH
  012fd	89 85 14 f9 ff
	ff		 mov	 DWORD PTR tv132[ebp], eax
  01303	8b 95 14 f9 ff
	ff		 mov	 edx, DWORD PTR tv132[ebp]
  01309	89 95 10 f9 ff
	ff		 mov	 DWORD PTR tv199[ebp], edx
  0130f	c6 45 fc 04	 mov	 BYTE PTR __$EHRec$[ebp+8], 4
  01313	8b f4		 mov	 esi, esp
  01315	8b 85 10 f9 ff
	ff		 mov	 eax, DWORD PTR tv199[ebp]
  0131b	50		 push	 eax
  0131c	8d 8d 54 f9 ff
	ff		 lea	 ecx, DWORD PTR _ad$188504[ebp+28]
  01322	ff 15 00 00 00
	00		 call	 DWORD PTR __imp_??4?$basic_string@DU?$char_traits@D@std@@V?$allocator@D@2@@std@@QAEAAV01@ABV01@@Z
  01328	3b f4		 cmp	 esi, esp
  0132a	e8 00 00 00 00	 call	 __RTC_CheckEsp
  0132f	c6 45 fc 03	 mov	 BYTE PTR __$EHRec$[ebp+8], 3
  01333	8b f4		 mov	 esi, esp
  01335	8d 8d 18 f9 ff
	ff		 lea	 ecx, DWORD PTR $T190124[ebp]
  0133b	ff 15 00 00 00
	00		 call	 DWORD PTR __imp_??1?$basic_string@DU?$char_traits@D@std@@V?$allocator@D@2@@std@@QAE@XZ
  01341	3b f4		 cmp	 esi, esp
  01343	e8 00 00 00 00	 call	 __RTC_CheckEsp

; 185  : 
; 186  : 		if( ad.strLinkUrl.length() > 0 && YL_FileInfo::IsValid( ad.strPicPath ) )

  01348	8b f4		 mov	 esi, esp
  0134a	8d 8d 38 f9 ff
	ff		 lea	 ecx, DWORD PTR _ad$188504[ebp]
  01350	ff 15 00 00 00
	00		 call	 DWORD PTR __imp_?length@?$basic_string@DU?$char_traits@D@std@@V?$allocator@D@2@@std@@QBEIXZ
  01356	3b f4		 cmp	 esi, esp
  01358	e8 00 00 00 00	 call	 __RTC_CheckEsp
  0135d	85 c0		 test	 eax, eax
  0135f	76 28		 jbe	 SHORT $L188514
  01361	8d 8d 54 f9 ff
	ff		 lea	 ecx, DWORD PTR _ad$188504[ebp+28]
  01367	51		 push	 ecx
  01368	e8 00 00 00 00	 call	 ?IsValid@YL_FileInfo@@SA_NABV?$basic_string@DU?$char_traits@D@std@@V?$allocator@D@2@@std@@@Z ; YL_FileInfo::IsValid
  0136d	83 c4 04	 add	 esp, 4
  01370	0f b6 d0	 movzx	 edx, al
  01373	85 d2		 test	 edx, edx
  01375	74 12		 je	 SHORT $L188514

; 187  : 		{
; 188  : 			m_vecAD.push_back(ad);

  01377	8d 85 38 f9 ff
	ff		 lea	 eax, DWORD PTR _ad$188504[ebp]
  0137d	50		 push	 eax
  0137e	8b 4d ec	 mov	 ecx, DWORD PTR _this$[ebp]
  01381	83 c1 14	 add	 ecx, 20			; 00000014H
  01384	e8 00 00 00 00	 call	 ?push_back@?$vector@UAD_STRUCT@@V?$allocator@UAD_STRUCT@@@std@@@std@@QAEXABUAD_STRUCT@@@Z ; std::vector<AD_STRUCT,std::allocator<AD_STRUCT> >::push_back
$L188514:

; 189  : 		}
; 190  : 	}

  01389	c6 45 fc 02	 mov	 BYTE PTR __$EHRec$[ebp+8], 2
  0138d	8d 8d 38 f9 ff
	ff		 lea	 ecx, DWORD PTR _ad$188504[ebp]
  01393	e8 00 00 00 00	 call	 ??1AD_STRUCT@@QAE@XZ
  01398	e9 bd fd ff ff	 jmp	 $L188502
$L188503:

; 191  : }

  0139d	c6 45 fc 01	 mov	 BYTE PTR __$EHRec$[ebp+8], 1
  013a1	8b f4		 mov	 esi, esp
  013a3	8d 8d 7c f9 ff
	ff		 lea	 ecx, DWORD PTR _strTmpKey$[ebp]
  013a9	ff 15 00 00 00
	00		 call	 DWORD PTR __imp_??1?$basic_string@DU?$char_traits@D@std@@V?$allocator@D@2@@std@@QAE@XZ
  013af	3b f4		 cmp	 esi, esp
  013b1	e8 00 00 00 00	 call	 __RTC_CheckEsp
  013b6	c6 45 fc 00	 mov	 BYTE PTR __$EHRec$[ebp+8], 0
  013ba	8d 8d b4 fd ff
	ff		 lea	 ecx, DWORD PTR _ini$[ebp]
  013c0	e8 00 00 00 00	 call	 ??1YL_Ini@@UAE@XZ	; YL_Ini::~YL_Ini
  013c5	c7 45 fc ff ff
	ff ff		 mov	 DWORD PTR __$EHRec$[ebp+8], -1
  013cc	8b f4		 mov	 esi, esp
  013ce	8d 8d c4 fd ff
	ff		 lea	 ecx, DWORD PTR _strAdPath$[ebp]
  013d4	ff 15 00 00 00
	00		 call	 DWORD PTR __imp_??1?$basic_string@DU?$char_traits@D@std@@V?$allocator@D@2@@std@@QAE@XZ
  013da	3b f4		 cmp	 esi, esp
  013dc	e8 00 00 00 00	 call	 __RTC_CheckEsp
$L188486:
  013e1	52		 push	 edx
  013e2	8b cd		 mov	 ecx, ebp
  013e4	50		 push	 eax
  013e5	8d 15 00 00 00
	00		 lea	 edx, DWORD PTR $L190141
  013eb	e8 00 00 00 00	 call	 @_RTC_CheckStackVars@8
  013f0	58		 pop	 eax
  013f1	5a		 pop	 edx
  013f2	8b 4d f4	 mov	 ecx, DWORD PTR __$EHRec$[ebp]
  013f5	64 89 0d 00 00
	00 00		 mov	 DWORD PTR fs:__except_list, ecx
  013fc	8b 4d f0	 mov	 ecx, DWORD PTR __$ArrayPad$[ebp]
  013ff	e8 00 00 00 00	 call	 @__security_check_cookie@4
  01404	5f		 pop	 edi
  01405	5e		 pop	 esi
  01406	81 c4 f0 06 00
	00		 add	 esp, 1776		; 000006f0H
  0140c	3b ec		 cmp	 ebp, esp
  0140e	e8 00 00 00 00	 call	 __RTC_CheckEsp
  01413	8b e5		 mov	 esp, ebp
  01415	5d		 pop	 ebp
  01416	c3		 ret	 0
$L190141:
  01417	06 00 00 00	 DD	 6
  0141b	00 00 00 00	 DD	 $L190140
$L190140:
  0141f	e8 fd ff ff	 DD	 -536			; fffffde8H
  01423	00 02 00 00	 DD	 512			; 00000200H
  01427	00 00 00 00	 DD	 $L190132
  0142b	c4 fd ff ff	 DD	 -572			; fffffdc4H
  0142f	1c 00 00 00	 DD	 28			; 0000001cH
  01433	00 00 00 00	 DD	 $L190133
  01437	b4 fd ff ff	 DD	 -588			; fffffdb4H
  0143b	08 00 00 00	 DD	 8
  0143f	00 00 00 00	 DD	 $L190134
  01443	a4 f9 ff ff	 DD	 -1628			; fffff9a4H
  01447	00 04 00 00	 DD	 1024			; 00000400H
  0144b	00 00 00 00	 DD	 $L190135
  0144f	7c f9 ff ff	 DD	 -1668			; fffff97cH
  01453	1c 00 00 00	 DD	 28			; 0000001cH
  01457	00 00 00 00	 DD	 $L190136
  0145b	38 f9 ff ff	 DD	 -1736			; fffff938H
  0145f	38 00 00 00	 DD	 56			; 00000038H
  01463	00 00 00 00	 DD	 $L190137
$L190137:
  01467	61		 DB	 97			; 00000061H
  01468	64		 DB	 100			; 00000064H
  01469	00		 DB	 0
$L190136:
  0146a	73		 DB	 115			; 00000073H
  0146b	74		 DB	 116			; 00000074H
  0146c	72		 DB	 114			; 00000072H
  0146d	54		 DB	 84			; 00000054H
  0146e	6d		 DB	 109			; 0000006dH
  0146f	70		 DB	 112			; 00000070H
  01470	4b		 DB	 75			; 0000004bH
  01471	65		 DB	 101			; 00000065H
  01472	79		 DB	 121			; 00000079H
  01473	00		 DB	 0
$L190135:
  01474	73		 DB	 115			; 00000073H
  01475	7a		 DB	 122			; 0000007aH
  01476	54		 DB	 84			; 00000054H
  01477	6d		 DB	 109			; 0000006dH
  01478	70		 DB	 112			; 00000070H
  01479	42		 DB	 66			; 00000042H
  0147a	75		 DB	 117			; 00000075H
  0147b	66		 DB	 102			; 00000066H
  0147c	00		 DB	 0
$L190134:
  0147d	69		 DB	 105			; 00000069H
  0147e	6e		 DB	 110			; 0000006eH
  0147f	69		 DB	 105			; 00000069H
  01480	00		 DB	 0
$L190133:
  01481	73		 DB	 115			; 00000073H
  01482	74		 DB	 116			; 00000074H
  01483	72		 DB	 114			; 00000072H
  01484	41		 DB	 65			; 00000041H
  01485	64		 DB	 100			; 00000064H
  01486	50		 DB	 80			; 00000050H
  01487	61		 DB	 97			; 00000061H
  01488	74		 DB	 116			; 00000074H
  01489	68		 DB	 104			; 00000068H
  0148a	00		 DB	 0
$L190132:
  0148b	73		 DB	 115			; 00000073H
  0148c	7a		 DB	 122			; 0000007aH
  0148d	42		 DB	 66			; 00000042H
  0148e	75		 DB	 117			; 00000075H
  0148f	66		 DB	 102			; 00000066H
  01490	66		 DB	 102			; 00000066H
  01491	65		 DB	 101			; 00000065H
  01492	72		 DB	 114			; 00000072H
  01493	00		 DB	 0
_TEXT	ENDS
text$x	SEGMENT
$L190125:
  002cc	8b f4		 mov	 esi, esp
  002ce	8d 8d c4 fd ff
	ff		 lea	 ecx, DWORD PTR _strAdPath$[ebp]
  002d4	ff 15 00 00 00
	00		 call	 DWORD PTR __imp_??1?$basic_string@DU?$char_traits@D@std@@V?$allocator@D@2@@std@@QAE@XZ
  002da	3b f4		 cmp	 esi, esp
  002dc	e9 00 00 00 00	 jmp	 __RTC_CheckEsp
$L190126:
  002e1	8d 8d b4 fd ff
	ff		 lea	 ecx, DWORD PTR _ini$[ebp]
  002e7	e9 00 00 00 00	 jmp	 ??1YL_Ini@@UAE@XZ	; YL_Ini::~YL_Ini
$L190127:
  002ec	8b f4		 mov	 esi, esp
  002ee	8d 8d 7c f9 ff
	ff		 lea	 ecx, DWORD PTR _strTmpKey$[ebp]
  002f4	ff 15 00 00 00
	00		 call	 DWORD PTR __imp_??1?$basic_string@DU?$char_traits@D@std@@V?$allocator@D@2@@std@@QAE@XZ
  002fa	3b f4		 cmp	 esi, esp
  002fc	e9 00 00 00 00	 jmp	 __RTC_CheckEsp
$L190128:
  00301	8d 8d 38 f9 ff
	ff		 lea	 ecx, DWORD PTR _ad$188504[ebp]
  00307	e9 00 00 00 00	 jmp	 ??1AD_STRUCT@@QAE@XZ
$L190129:
  0030c	8b f4		 mov	 esi, esp
  0030e	8d 8d 18 f9 ff
	ff		 lea	 ecx, DWORD PTR $T190124[ebp]
  00314	ff 15 00 00 00
	00		 call	 DWORD PTR __imp_??1?$basic_string@DU?$char_traits@D@std@@V?$allocator@D@2@@std@@QAE@XZ
  0031a	3b f4		 cmp	 esi, esp
  0031c	e9 00 00 00 00	 jmp	 __RTC_CheckEsp
__ehhandler$?ReloadAd@CDownAD@@AAEXXZ:
  00321	b8 00 00 00 00	 mov	 eax, OFFSET FLAT:$T190131
  00326	e9 00 00 00 00	 jmp	 ___CxxFrameHandler
text$x	ENDS
?ReloadAd@CDownAD@@AAEXXZ ENDP				; CDownAD::ReloadAd
;	COMDAT xdata$x
xdata$x	SEGMENT
$T190149 DD	0ffffffffH
	DD	FLAT:$L190144
$T190147 DD	019930520H
	DD	01H
	DD	FLAT:$T190149
	DD	2 DUP(00H)
	DD	2 DUP(00H)
; Function compile flags: /Odt /RTCsu
xdata$x	ENDS
;	COMDAT ??0AD_STRUCT@@QAE@XZ
_TEXT	SEGMENT
_this$ = -16						; size = 4
__$EHRec$ = -12						; size = 12
??0AD_STRUCT@@QAE@XZ PROC NEAR				; AD_STRUCT::AD_STRUCT, COMDAT
; _this$ = ecx
  00000	55		 push	 ebp
  00001	8b ec		 mov	 ebp, esp
  00003	6a ff		 push	 -1
  00005	68 00 00 00 00	 push	 __ehhandler$??0AD_STRUCT@@QAE@XZ
  0000a	64 a1 00 00 00
	00		 mov	 eax, DWORD PTR fs:__except_list
  00010	50		 push	 eax
  00011	64 89 25 00 00
	00 00		 mov	 DWORD PTR fs:__except_list, esp
  00018	51		 push	 ecx
  00019	56		 push	 esi
  0001a	c7 45 f0 cc cc
	cc cc		 mov	 DWORD PTR [ebp-16], -858993460 ; ccccccccH
  00021	89 4d f0	 mov	 DWORD PTR _this$[ebp], ecx
  00024	8b f4		 mov	 esi, esp
  00026	8b 4d f0	 mov	 ecx, DWORD PTR _this$[ebp]
  00029	ff 15 00 00 00
	00		 call	 DWORD PTR __imp_??0?$basic_string@DU?$char_traits@D@std@@V?$allocator@D@2@@std@@QAE@XZ
  0002f	3b f4		 cmp	 esi, esp
  00031	e8 00 00 00 00	 call	 __RTC_CheckEsp
  00036	c7 45 fc 00 00
	00 00		 mov	 DWORD PTR __$EHRec$[ebp+8], 0
  0003d	8b 4d f0	 mov	 ecx, DWORD PTR _this$[ebp]
  00040	83 c1 1c	 add	 ecx, 28			; 0000001cH
  00043	8b f4		 mov	 esi, esp
  00045	ff 15 00 00 00
	00		 call	 DWORD PTR __imp_??0?$basic_string@DU?$char_traits@D@std@@V?$allocator@D@2@@std@@QAE@XZ
  0004b	3b f4		 cmp	 esi, esp
  0004d	e8 00 00 00 00	 call	 __RTC_CheckEsp
  00052	c7 45 fc ff ff
	ff ff		 mov	 DWORD PTR __$EHRec$[ebp+8], -1
  00059	8b 45 f0	 mov	 eax, DWORD PTR _this$[ebp]
  0005c	8b 4d f4	 mov	 ecx, DWORD PTR __$EHRec$[ebp]
  0005f	64 89 0d 00 00
	00 00		 mov	 DWORD PTR fs:__except_list, ecx
  00066	5e		 pop	 esi
  00067	83 c4 10	 add	 esp, 16			; 00000010H
  0006a	3b ec		 cmp	 ebp, esp
  0006c	e8 00 00 00 00	 call	 __RTC_CheckEsp
  00071	8b e5		 mov	 esp, ebp
  00073	5d		 pop	 ebp
  00074	c3		 ret	 0
_TEXT	ENDS
;	COMDAT text$x
text$x	SEGMENT
$L190144:
  00000	8b f4		 mov	 esi, esp
  00002	8b 4d f0	 mov	 ecx, DWORD PTR _this$[ebp]
  00005	ff 15 00 00 00
	00		 call	 DWORD PTR __imp_??1?$basic_string@DU?$char_traits@D@std@@V?$allocator@D@2@@std@@QAE@XZ
  0000b	3b f4		 cmp	 esi, esp
  0000d	e9 00 00 00 00	 jmp	 __RTC_CheckEsp
__ehhandler$??0AD_STRUCT@@QAE@XZ:
  00012	b8 00 00 00 00	 mov	 eax, OFFSET FLAT:$T190147
  00017	e9 00 00 00 00	 jmp	 ___CxxFrameHandler
text$x	ENDS
??0AD_STRUCT@@QAE@XZ ENDP				; AD_STRUCT::AD_STRUCT
;	COMDAT xdata$x
xdata$x	SEGMENT
$T190158 DD	0ffffffffH
	DD	FLAT:$L190153
$T190156 DD	019930520H
	DD	01H
	DD	FLAT:$T190158
	DD	2 DUP(00H)
	DD	2 DUP(00H)
; Function compile flags: /Odt /RTCsu
xdata$x	ENDS
;	COMDAT ??1AD_STRUCT@@QAE@XZ
_TEXT	SEGMENT
_this$ = -16						; size = 4
__$EHRec$ = -12						; size = 12
??1AD_STRUCT@@QAE@XZ PROC NEAR				; AD_STRUCT::~AD_STRUCT, COMDAT
; _this$ = ecx
  00000	55		 push	 ebp
  00001	8b ec		 mov	 ebp, esp
  00003	6a ff		 push	 -1
  00005	68 00 00 00 00	 push	 __ehhandler$??1AD_STRUCT@@QAE@XZ
  0000a	64 a1 00 00 00
	00		 mov	 eax, DWORD PTR fs:__except_list
  00010	50		 push	 eax
  00011	64 89 25 00 00
	00 00		 mov	 DWORD PTR fs:__except_list, esp
  00018	51		 push	 ecx
  00019	56		 push	 esi
  0001a	c7 45 f0 cc cc
	cc cc		 mov	 DWORD PTR [ebp-16], -858993460 ; ccccccccH
  00021	89 4d f0	 mov	 DWORD PTR _this$[ebp], ecx
  00024	c7 45 fc 00 00
	00 00		 mov	 DWORD PTR __$EHRec$[ebp+8], 0
  0002b	8b 4d f0	 mov	 ecx, DWORD PTR _this$[ebp]
  0002e	83 c1 1c	 add	 ecx, 28			; 0000001cH
  00031	8b f4		 mov	 esi, esp
  00033	ff 15 00 00 00
	00		 call	 DWORD PTR __imp_??1?$basic_string@DU?$char_traits@D@std@@V?$allocator@D@2@@std@@QAE@XZ
  00039	3b f4		 cmp	 esi, esp
  0003b	e8 00 00 00 00	 call	 __RTC_CheckEsp
  00040	c7 45 fc ff ff
	ff ff		 mov	 DWORD PTR __$EHRec$[ebp+8], -1
  00047	8b f4		 mov	 esi, esp
  00049	8b 4d f0	 mov	 ecx, DWORD PTR _this$[ebp]
  0004c	ff 15 00 00 00
	00		 call	 DWORD PTR __imp_??1?$basic_string@DU?$char_traits@D@std@@V?$allocator@D@2@@std@@QAE@XZ
  00052	3b f4		 cmp	 esi, esp
  00054	e8 00 00 00 00	 call	 __RTC_CheckEsp
  00059	8b 4d f4	 mov	 ecx, DWORD PTR __$EHRec$[ebp]
  0005c	64 89 0d 00 00
	00 00		 mov	 DWORD PTR fs:__except_list, ecx
  00063	5e		 pop	 esi
  00064	83 c4 10	 add	 esp, 16			; 00000010H
  00067	3b ec		 cmp	 ebp, esp
  00069	e8 00 00 00 00	 call	 __RTC_CheckEsp
  0006e	8b e5		 mov	 esp, ebp
  00070	5d		 pop	 ebp
  00071	c3		 ret	 0
_TEXT	ENDS
;	COMDAT text$x
text$x	SEGMENT
$L190153:
  00000	8b f4		 mov	 esi, esp
  00002	8b 4d f0	 mov	 ecx, DWORD PTR _this$[ebp]
  00005	ff 15 00 00 00
	00		 call	 DWORD PTR __imp_??1?$basic_string@DU?$char_traits@D@std@@V?$allocator@D@2@@std@@QAE@XZ
  0000b	3b f4		 cmp	 esi, esp
  0000d	e9 00 00 00 00	 jmp	 __RTC_CheckEsp
__ehhandler$??1AD_STRUCT@@QAE@XZ:
  00012	b8 00 00 00 00	 mov	 eax, OFFSET FLAT:$T190156
  00017	e9 00 00 00 00	 jmp	 ___CxxFrameHandler
text$x	ENDS
??1AD_STRUCT@@QAE@XZ ENDP				; AD_STRUCT::~AD_STRUCT
PUBLIC	??4AD_STRUCT@@QAEAAU0@ABU0@@Z			; AD_STRUCT::operator=
PUBLIC	?size@?$vector@UAD_STRUCT@@V?$allocator@UAD_STRUCT@@@std@@@std@@QBEIXZ ; std::vector<AD_STRUCT,std::allocator<AD_STRUCT> >::size
PUBLIC	??A?$vector@UAD_STRUCT@@V?$allocator@UAD_STRUCT@@@std@@@std@@QAEAAUAD_STRUCT@@I@Z ; std::vector<AD_STRUCT,std::allocator<AD_STRUCT> >::operator[]
; Function compile flags: /Odt /RTCsu
_TEXT	SEGMENT
_this$ = -4						; size = 4
_ad$ = 8						; size = 4
?GetLoadingPicAd@CDownAD@@UAE_NAAUAD_STRUCT@@@Z PROC NEAR ; CDownAD::GetLoadingPicAd
; _this$ = ecx

; 194  : {

  014a0	55		 push	 ebp
  014a1	8b ec		 mov	 ebp, esp
  014a3	51		 push	 ecx
  014a4	c7 45 fc cc cc
	cc cc		 mov	 DWORD PTR [ebp-4], -858993460 ; ccccccccH
  014ab	89 4d fc	 mov	 DWORD PTR _this$[ebp], ecx

; 195  : 	if( m_vecAD.size() == 0 )

  014ae	8b 4d fc	 mov	 ecx, DWORD PTR _this$[ebp]
  014b1	83 c1 0c	 add	 ecx, 12			; 0000000cH
  014b4	e8 00 00 00 00	 call	 ?size@?$vector@UAD_STRUCT@@V?$allocator@UAD_STRUCT@@@std@@@std@@QBEIXZ ; std::vector<AD_STRUCT,std::allocator<AD_STRUCT> >::size
  014b9	85 c0		 test	 eax, eax
  014bb	75 04		 jne	 SHORT $L188523

; 196  : 		return false;

  014bd	32 c0		 xor	 al, al
  014bf	eb 49		 jmp	 SHORT $L188522
$L188523:

; 197  : 
; 198  : 	m_iCurAd++;

  014c1	8b 45 fc	 mov	 eax, DWORD PTR _this$[ebp]
  014c4	8b 48 1c	 mov	 ecx, DWORD PTR [eax+28]
  014c7	83 c1 01	 add	 ecx, 1
  014ca	8b 55 fc	 mov	 edx, DWORD PTR _this$[ebp]
  014cd	89 4a 1c	 mov	 DWORD PTR [edx+28], ecx

; 199  : 	if( m_iCurAd >= m_vecAD.size() )

  014d0	8b 4d fc	 mov	 ecx, DWORD PTR _this$[ebp]
  014d3	83 c1 0c	 add	 ecx, 12			; 0000000cH
  014d6	e8 00 00 00 00	 call	 ?size@?$vector@UAD_STRUCT@@V?$allocator@UAD_STRUCT@@@std@@@std@@QBEIXZ ; std::vector<AD_STRUCT,std::allocator<AD_STRUCT> >::size
  014db	8b 4d fc	 mov	 ecx, DWORD PTR _this$[ebp]
  014de	39 41 1c	 cmp	 DWORD PTR [ecx+28], eax
  014e1	72 0a		 jb	 SHORT $L188524

; 200  : 	{
; 201  : 		m_iCurAd = 0;

  014e3	8b 55 fc	 mov	 edx, DWORD PTR _this$[ebp]
  014e6	c7 42 1c 00 00
	00 00		 mov	 DWORD PTR [edx+28], 0
$L188524:

; 202  : 	} 
; 203  : 	ad = m_vecAD[m_iCurAd];

  014ed	8b 45 fc	 mov	 eax, DWORD PTR _this$[ebp]
  014f0	8b 48 1c	 mov	 ecx, DWORD PTR [eax+28]
  014f3	51		 push	 ecx
  014f4	8b 4d fc	 mov	 ecx, DWORD PTR _this$[ebp]
  014f7	83 c1 0c	 add	 ecx, 12			; 0000000cH
  014fa	e8 00 00 00 00	 call	 ??A?$vector@UAD_STRUCT@@V?$allocator@UAD_STRUCT@@@std@@@std@@QAEAAUAD_STRUCT@@I@Z ; std::vector<AD_STRUCT,std::allocator<AD_STRUCT> >::operator[]
  014ff	50		 push	 eax
  01500	8b 4d 08	 mov	 ecx, DWORD PTR _ad$[ebp]
  01503	e8 00 00 00 00	 call	 ??4AD_STRUCT@@QAEAAU0@ABU0@@Z

; 204  : 	return true;

  01508	b0 01		 mov	 al, 1
$L188522:

; 205  : }

  0150a	83 c4 04	 add	 esp, 4
  0150d	3b ec		 cmp	 ebp, esp
  0150f	e8 00 00 00 00	 call	 __RTC_CheckEsp
  01514	8b e5		 mov	 esp, ebp
  01516	5d		 pop	 ebp
  01517	c2 04 00	 ret	 4
?GetLoadingPicAd@CDownAD@@UAE_NAAUAD_STRUCT@@@Z ENDP	; CDownAD::GetLoadingPicAd
; Function compile flags: /Odt /RTCsu
_TEXT	ENDS
;	COMDAT ??4AD_STRUCT@@QAEAAU0@ABU0@@Z
_TEXT	SEGMENT
_this$ = -4						; size = 4
___that$ = 8						; size = 4
??4AD_STRUCT@@QAEAAU0@ABU0@@Z PROC NEAR			; AD_STRUCT::operator=, COMDAT
; _this$ = ecx
  00000	55		 push	 ebp
  00001	8b ec		 mov	 ebp, esp
  00003	51		 push	 ecx
  00004	56		 push	 esi
  00005	c7 45 fc cc cc
	cc cc		 mov	 DWORD PTR [ebp-4], -858993460 ; ccccccccH
  0000c	89 4d fc	 mov	 DWORD PTR _this$[ebp], ecx
  0000f	8b f4		 mov	 esi, esp
  00011	8b 45 08	 mov	 eax, DWORD PTR ___that$[ebp]
  00014	50		 push	 eax
  00015	8b 4d fc	 mov	 ecx, DWORD PTR _this$[ebp]
  00018	ff 15 00 00 00
	00		 call	 DWORD PTR __imp_??4?$basic_string@DU?$char_traits@D@std@@V?$allocator@D@2@@std@@QAEAAV01@ABV01@@Z
  0001e	3b f4		 cmp	 esi, esp
  00020	e8 00 00 00 00	 call	 __RTC_CheckEsp
  00025	8b 4d 08	 mov	 ecx, DWORD PTR ___that$[ebp]
  00028	83 c1 1c	 add	 ecx, 28			; 0000001cH
  0002b	8b f4		 mov	 esi, esp
  0002d	51		 push	 ecx
  0002e	8b 4d fc	 mov	 ecx, DWORD PTR _this$[ebp]
  00031	83 c1 1c	 add	 ecx, 28			; 0000001cH
  00034	ff 15 00 00 00
	00		 call	 DWORD PTR __imp_??4?$basic_string@DU?$char_traits@D@std@@V?$allocator@D@2@@std@@QAEAAV01@ABV01@@Z
  0003a	3b f4		 cmp	 esi, esp
  0003c	e8 00 00 00 00	 call	 __RTC_CheckEsp
  00041	8b 45 fc	 mov	 eax, DWORD PTR _this$[ebp]
  00044	5e		 pop	 esi
  00045	83 c4 04	 add	 esp, 4
  00048	3b ec		 cmp	 ebp, esp
  0004a	e8 00 00 00 00	 call	 __RTC_CheckEsp
  0004f	8b e5		 mov	 esp, ebp
  00051	5d		 pop	 ebp
  00052	c2 04 00	 ret	 4
??4AD_STRUCT@@QAEAAU0@ABU0@@Z ENDP			; AD_STRUCT::operator=
_TEXT	ENDS
PUBLIC	??0?$_Vector_val@UAD_STRUCT@@V?$allocator@UAD_STRUCT@@@std@@@std@@IAE@V?$allocator@UAD_STRUCT@@@1@@Z ; std::_Vector_val<AD_STRUCT,std::allocator<AD_STRUCT> >::_Vector_val<AD_STRUCT,std::allocator<AD_STRUCT> >
PUBLIC	??0?$allocator@UAD_STRUCT@@@std@@QAE@XZ		; std::allocator<AD_STRUCT>::allocator<AD_STRUCT>
PUBLIC	?_Buy@?$vector@UAD_STRUCT@@V?$allocator@UAD_STRUCT@@@std@@@std@@IAE_NI@Z ; std::vector<AD_STRUCT,std::allocator<AD_STRUCT> >::_Buy
; Function compile flags: /Odt /RTCsu
; File d:\program files (x86)\microsoft visual studio .net 2003\vc7\include\vector
;	COMDAT ??0?$vector@UAD_STRUCT@@V?$allocator@UAD_STRUCT@@@std@@@std@@QAE@XZ
_TEXT	SEGMENT
_this$ = -4						; size = 4
??0?$vector@UAD_STRUCT@@V?$allocator@UAD_STRUCT@@@std@@@std@@QAE@XZ PROC NEAR ; std::vector<AD_STRUCT,std::allocator<AD_STRUCT> >::vector<AD_STRUCT,std::allocator<AD_STRUCT> >, COMDAT
; _this$ = ecx

; 299  : 		{	// construct empty vector

  00000	55		 push	 ebp
  00001	8b ec		 mov	 ebp, esp
  00003	83 ec 08	 sub	 esp, 8
  00006	c7 45 f8 cc cc
	cc cc		 mov	 DWORD PTR [ebp-8], -858993460 ; ccccccccH
  0000d	c7 45 fc cc cc
	cc cc		 mov	 DWORD PTR [ebp-4], -858993460 ; ccccccccH
  00014	89 4d fc	 mov	 DWORD PTR _this$[ebp], ecx
  00017	51		 push	 ecx
  00018	8b cc		 mov	 ecx, esp
  0001a	e8 00 00 00 00	 call	 ??0?$allocator@UAD_STRUCT@@@std@@QAE@XZ ; std::allocator<AD_STRUCT>::allocator<AD_STRUCT>
  0001f	8b 4d fc	 mov	 ecx, DWORD PTR _this$[ebp]
  00022	e8 00 00 00 00	 call	 ??0?$_Vector_val@UAD_STRUCT@@V?$allocator@UAD_STRUCT@@@std@@@std@@IAE@V?$allocator@UAD_STRUCT@@@1@@Z ; std::_Vector_val<AD_STRUCT,std::allocator<AD_STRUCT> >::_Vector_val<AD_STRUCT,std::allocator<AD_STRUCT> >

; 300  : 		_Buy(0);

  00027	6a 00		 push	 0
  00029	8b 4d fc	 mov	 ecx, DWORD PTR _this$[ebp]
  0002c	e8 00 00 00 00	 call	 ?_Buy@?$vector@UAD_STRUCT@@V?$allocator@UAD_STRUCT@@@std@@@std@@IAE_NI@Z ; std::vector<AD_STRUCT,std::allocator<AD_STRUCT> >::_Buy

; 301  : 		}

  00031	8b 45 fc	 mov	 eax, DWORD PTR _this$[ebp]
  00034	83 c4 08	 add	 esp, 8
  00037	3b ec		 cmp	 ebp, esp
  00039	e8 00 00 00 00	 call	 __RTC_CheckEsp
  0003e	8b e5		 mov	 esp, ebp
  00040	5d		 pop	 ebp
  00041	c3		 ret	 0
??0?$vector@UAD_STRUCT@@V?$allocator@UAD_STRUCT@@@std@@@std@@QAE@XZ ENDP ; std::vector<AD_STRUCT,std::allocator<AD_STRUCT> >::vector<AD_STRUCT,std::allocator<AD_STRUCT> >
_TEXT	ENDS
PUBLIC	?_Tidy@?$vector@UAD_STRUCT@@V?$allocator@UAD_STRUCT@@@std@@@std@@IAEXXZ ; std::vector<AD_STRUCT,std::allocator<AD_STRUCT> >::_Tidy
; Function compile flags: /Odt /RTCsu
;	COMDAT ??1?$vector@UAD_STRUCT@@V?$allocator@UAD_STRUCT@@@std@@@std@@QAE@XZ
_TEXT	SEGMENT
_this$ = -4						; size = 4
??1?$vector@UAD_STRUCT@@V?$allocator@UAD_STRUCT@@@std@@@std@@QAE@XZ PROC NEAR ; std::vector<AD_STRUCT,std::allocator<AD_STRUCT> >::~vector<AD_STRUCT,std::allocator<AD_STRUCT> >, COMDAT
; _this$ = ecx

; 387  : 		{	// destroy the object

  00000	55		 push	 ebp
  00001	8b ec		 mov	 ebp, esp
  00003	51		 push	 ecx
  00004	c7 45 fc cc cc
	cc cc		 mov	 DWORD PTR [ebp-4], -858993460 ; ccccccccH
  0000b	89 4d fc	 mov	 DWORD PTR _this$[ebp], ecx

; 388  : 		_Tidy();

  0000e	8b 4d fc	 mov	 ecx, DWORD PTR _this$[ebp]
  00011	e8 00 00 00 00	 call	 ?_Tidy@?$vector@UAD_STRUCT@@V?$allocator@UAD_STRUCT@@@std@@@std@@IAEXXZ ; std::vector<AD_STRUCT,std::allocator<AD_STRUCT> >::_Tidy

; 389  : 		}

  00016	83 c4 04	 add	 esp, 4
  00019	3b ec		 cmp	 ebp, esp
  0001b	e8 00 00 00 00	 call	 __RTC_CheckEsp
  00020	8b e5		 mov	 esp, ebp
  00022	5d		 pop	 ebp
  00023	c3		 ret	 0
??1?$vector@UAD_STRUCT@@V?$allocator@UAD_STRUCT@@@std@@@std@@QAE@XZ ENDP ; std::vector<AD_STRUCT,std::allocator<AD_STRUCT> >::~vector<AD_STRUCT,std::allocator<AD_STRUCT> >
; Function compile flags: /Odt /RTCsu
_TEXT	ENDS
;	COMDAT ?size@?$vector@UAD_STRUCT@@V?$allocator@UAD_STRUCT@@@std@@@std@@QBEIXZ
_TEXT	SEGMENT
tv70 = -8						; size = 4
_this$ = -4						; size = 4
?size@?$vector@UAD_STRUCT@@V?$allocator@UAD_STRUCT@@@std@@@std@@QBEIXZ PROC NEAR ; std::vector<AD_STRUCT,std::allocator<AD_STRUCT> >::size, COMDAT
; _this$ = ecx

; 515  : 		{	// return length of sequence

  00000	55		 push	 ebp
  00001	8b ec		 mov	 ebp, esp
  00003	83 ec 08	 sub	 esp, 8
  00006	c7 45 f8 cc cc
	cc cc		 mov	 DWORD PTR [ebp-8], -858993460 ; ccccccccH
  0000d	c7 45 fc cc cc
	cc cc		 mov	 DWORD PTR [ebp-4], -858993460 ; ccccccccH
  00014	89 4d fc	 mov	 DWORD PTR _this$[ebp], ecx

; 516  : 		return (_Myfirst == 0 ? 0 : _Mylast - _Myfirst);

  00017	8b 45 fc	 mov	 eax, DWORD PTR _this$[ebp]
  0001a	83 78 04 00	 cmp	 DWORD PTR [eax+4], 0
  0001e	75 09		 jne	 SHORT $L190167
  00020	c7 45 f8 00 00
	00 00		 mov	 DWORD PTR tv70[ebp], 0
  00027	eb 17		 jmp	 SHORT $L190168
$L190167:
  00029	8b 4d fc	 mov	 ecx, DWORD PTR _this$[ebp]
  0002c	8b 55 fc	 mov	 edx, DWORD PTR _this$[ebp]
  0002f	8b 41 08	 mov	 eax, DWORD PTR [ecx+8]
  00032	2b 42 04	 sub	 eax, DWORD PTR [edx+4]
  00035	99		 cdq
  00036	b9 38 00 00 00	 mov	 ecx, 56			; 00000038H
  0003b	f7 f9		 idiv	 ecx
  0003d	89 45 f8	 mov	 DWORD PTR tv70[ebp], eax
$L190168:
  00040	8b 45 f8	 mov	 eax, DWORD PTR tv70[ebp]

; 517  : 		}

  00043	8b e5		 mov	 esp, ebp
  00045	5d		 pop	 ebp
  00046	c3		 ret	 0
?size@?$vector@UAD_STRUCT@@V?$allocator@UAD_STRUCT@@@std@@@std@@QBEIXZ ENDP ; std::vector<AD_STRUCT,std::allocator<AD_STRUCT> >::size
_TEXT	ENDS
PUBLIC	??Diterator@?$vector@UAD_STRUCT@@V?$allocator@UAD_STRUCT@@@std@@@std@@QBEAAUAD_STRUCT@@XZ ; std::vector<AD_STRUCT,std::allocator<AD_STRUCT> >::iterator::operator*
PUBLIC	??Hiterator@?$vector@UAD_STRUCT@@V?$allocator@UAD_STRUCT@@@std@@@std@@QBE?AV012@H@Z ; std::vector<AD_STRUCT,std::allocator<AD_STRUCT> >::iterator::operator+
PUBLIC	?begin@?$vector@UAD_STRUCT@@V?$allocator@UAD_STRUCT@@@std@@@std@@QAE?AViterator@12@XZ ; std::vector<AD_STRUCT,std::allocator<AD_STRUCT> >::begin
; Function compile flags: /Odt /RTCsu
;	COMDAT ??A?$vector@UAD_STRUCT@@V?$allocator@UAD_STRUCT@@@std@@@std@@QAEAAUAD_STRUCT@@I@Z
_TEXT	SEGMENT
$T190171 = -12						; size = 4
$T190170 = -8						; size = 4
_this$ = -4						; size = 4
__Pos$ = 8						; size = 4
??A?$vector@UAD_STRUCT@@V?$allocator@UAD_STRUCT@@@std@@@std@@QAEAAUAD_STRUCT@@I@Z PROC NEAR ; std::vector<AD_STRUCT,std::allocator<AD_STRUCT> >::operator[], COMDAT
; _this$ = ecx

; 554  : 		{	// subscript mutable sequence

  00000	55		 push	 ebp
  00001	8b ec		 mov	 ebp, esp
  00003	83 ec 0c	 sub	 esp, 12			; 0000000cH
  00006	c7 45 f4 cc cc
	cc cc		 mov	 DWORD PTR [ebp-12], -858993460 ; ccccccccH
  0000d	c7 45 f8 cc cc
	cc cc		 mov	 DWORD PTR [ebp-8], -858993460 ; ccccccccH
  00014	c7 45 fc cc cc
	cc cc		 mov	 DWORD PTR [ebp-4], -858993460 ; ccccccccH
  0001b	89 4d fc	 mov	 DWORD PTR _this$[ebp], ecx

; 555  : 		return (*(begin() + _Pos));

  0001e	8b 45 08	 mov	 eax, DWORD PTR __Pos$[ebp]
  00021	50		 push	 eax
  00022	8d 4d f4	 lea	 ecx, DWORD PTR $T190171[ebp]
  00025	51		 push	 ecx
  00026	8d 55 f8	 lea	 edx, DWORD PTR $T190170[ebp]
  00029	52		 push	 edx
  0002a	8b 4d fc	 mov	 ecx, DWORD PTR _this$[ebp]
  0002d	e8 00 00 00 00	 call	 ?begin@?$vector@UAD_STRUCT@@V?$allocator@UAD_STRUCT@@@std@@@std@@QAE?AViterator@12@XZ ; std::vector<AD_STRUCT,std::allocator<AD_STRUCT> >::begin
  00032	8b c8		 mov	 ecx, eax
  00034	e8 00 00 00 00	 call	 ??Hiterator@?$vector@UAD_STRUCT@@V?$allocator@UAD_STRUCT@@@std@@@std@@QBE?AV012@H@Z ; std::vector<AD_STRUCT,std::allocator<AD_STRUCT> >::iterator::operator+
  00039	8b c8		 mov	 ecx, eax
  0003b	e8 00 00 00 00	 call	 ??Diterator@?$vector@UAD_STRUCT@@V?$allocator@UAD_STRUCT@@@std@@@std@@QBEAAUAD_STRUCT@@XZ ; std::vector<AD_STRUCT,std::allocator<AD_STRUCT> >::iterator::operator*

; 556  : 		}

  00040	83 c4 0c	 add	 esp, 12			; 0000000cH
  00043	3b ec		 cmp	 ebp, esp
  00045	e8 00 00 00 00	 call	 __RTC_CheckEsp
  0004a	8b e5		 mov	 esp, ebp
  0004c	5d		 pop	 ebp
  0004d	c2 04 00	 ret	 4
??A?$vector@UAD_STRUCT@@V?$allocator@UAD_STRUCT@@@std@@@std@@QAEAAUAD_STRUCT@@I@Z ENDP ; std::vector<AD_STRUCT,std::allocator<AD_STRUCT> >::operator[]
_TEXT	ENDS
PUBLIC	?capacity@?$vector@UAD_STRUCT@@V?$allocator@UAD_STRUCT@@@std@@@std@@QBEIXZ ; std::vector<AD_STRUCT,std::allocator<AD_STRUCT> >::capacity
PUBLIC	?end@?$vector@UAD_STRUCT@@V?$allocator@UAD_STRUCT@@@std@@@std@@QAE?AViterator@12@XZ ; std::vector<AD_STRUCT,std::allocator<AD_STRUCT> >::end
PUBLIC	?insert@?$vector@UAD_STRUCT@@V?$allocator@UAD_STRUCT@@@std@@@std@@QAE?AViterator@12@V312@ABUAD_STRUCT@@@Z ; std::vector<AD_STRUCT,std::allocator<AD_STRUCT> >::insert
PUBLIC	?_Ufill@?$vector@UAD_STRUCT@@V?$allocator@UAD_STRUCT@@@std@@@std@@IAEPAUAD_STRUCT@@PAU3@IABU3@@Z ; std::vector<AD_STRUCT,std::allocator<AD_STRUCT> >::_Ufill
; Function compile flags: /Odt /RTCsu
;	COMDAT ?push_back@?$vector@UAD_STRUCT@@V?$allocator@UAD_STRUCT@@@std@@@std@@QAEXABUAD_STRUCT@@@Z
_TEXT	SEGMENT
$T190174 = -12						; size = 4
$T190173 = -8						; size = 4
_this$ = -4						; size = 4
__Val$ = 8						; size = 4
?push_back@?$vector@UAD_STRUCT@@V?$allocator@UAD_STRUCT@@@std@@@std@@QAEXABUAD_STRUCT@@@Z PROC NEAR ; std::vector<AD_STRUCT,std::allocator<AD_STRUCT> >::push_back, COMDAT
; _this$ = ecx

; 579  : 		{	// insert element at end

  00000	55		 push	 ebp
  00001	8b ec		 mov	 ebp, esp
  00003	83 ec 0c	 sub	 esp, 12			; 0000000cH
  00006	56		 push	 esi
  00007	c7 45 f4 cc cc
	cc cc		 mov	 DWORD PTR [ebp-12], -858993460 ; ccccccccH
  0000e	c7 45 f8 cc cc
	cc cc		 mov	 DWORD PTR [ebp-8], -858993460 ; ccccccccH
  00015	c7 45 fc cc cc
	cc cc		 mov	 DWORD PTR [ebp-4], -858993460 ; ccccccccH
  0001c	89 4d fc	 mov	 DWORD PTR _this$[ebp], ecx

; 580  : 		if (size() < capacity())

  0001f	8b 4d fc	 mov	 ecx, DWORD PTR _this$[ebp]
  00022	e8 00 00 00 00	 call	 ?size@?$vector@UAD_STRUCT@@V?$allocator@UAD_STRUCT@@@std@@@std@@QBEIXZ ; std::vector<AD_STRUCT,std::allocator<AD_STRUCT> >::size
  00027	8b f0		 mov	 esi, eax
  00029	8b 4d fc	 mov	 ecx, DWORD PTR _this$[ebp]
  0002c	e8 00 00 00 00	 call	 ?capacity@?$vector@UAD_STRUCT@@V?$allocator@UAD_STRUCT@@@std@@@std@@QBEIXZ ; std::vector<AD_STRUCT,std::allocator<AD_STRUCT> >::capacity
  00031	3b f0		 cmp	 esi, eax
  00033	73 1d		 jae	 SHORT $L188722

; 581  : 			_Mylast = _Ufill(_Mylast, 1, _Val);

  00035	8b 45 08	 mov	 eax, DWORD PTR __Val$[ebp]
  00038	50		 push	 eax
  00039	6a 01		 push	 1
  0003b	8b 4d fc	 mov	 ecx, DWORD PTR _this$[ebp]
  0003e	8b 51 08	 mov	 edx, DWORD PTR [ecx+8]
  00041	52		 push	 edx
  00042	8b 4d fc	 mov	 ecx, DWORD PTR _this$[ebp]
  00045	e8 00 00 00 00	 call	 ?_Ufill@?$vector@UAD_STRUCT@@V?$allocator@UAD_STRUCT@@@std@@@std@@IAEPAUAD_STRUCT@@PAU3@IABU3@@Z ; std::vector<AD_STRUCT,std::allocator<AD_STRUCT> >::_Ufill
  0004a	8b 4d fc	 mov	 ecx, DWORD PTR _this$[ebp]
  0004d	89 41 08	 mov	 DWORD PTR [ecx+8], eax

; 582  : 		else

  00050	eb 1f		 jmp	 SHORT $L188721
$L188722:

; 583  : 			insert(end(), _Val);

  00052	8b 55 08	 mov	 edx, DWORD PTR __Val$[ebp]
  00055	52		 push	 edx
  00056	8d 45 f8	 lea	 eax, DWORD PTR $T190173[ebp]
  00059	50		 push	 eax
  0005a	8b 4d fc	 mov	 ecx, DWORD PTR _this$[ebp]
  0005d	e8 00 00 00 00	 call	 ?end@?$vector@UAD_STRUCT@@V?$allocator@UAD_STRUCT@@@std@@@std@@QAE?AViterator@12@XZ ; std::vector<AD_STRUCT,std::allocator<AD_STRUCT> >::end
  00062	8b 08		 mov	 ecx, DWORD PTR [eax]
  00064	51		 push	 ecx
  00065	8d 55 f4	 lea	 edx, DWORD PTR $T190174[ebp]
  00068	52		 push	 edx
  00069	8b 4d fc	 mov	 ecx, DWORD PTR _this$[ebp]
  0006c	e8 00 00 00 00	 call	 ?insert@?$vector@UAD_STRUCT@@V?$allocator@UAD_STRUCT@@@std@@@std@@QAE?AViterator@12@V312@ABUAD_STRUCT@@@Z ; std::vector<AD_STRUCT,std::allocator<AD_STRUCT> >::insert
$L188721:

; 584  : 		}

  00071	5e		 pop	 esi
  00072	83 c4 0c	 add	 esp, 12			; 0000000cH
  00075	3b ec		 cmp	 ebp, esp
  00077	e8 00 00 00 00	 call	 __RTC_CheckEsp
  0007c	8b e5		 mov	 esp, ebp
  0007e	5d		 pop	 ebp
  0007f	c2 04 00	 ret	 4
?push_back@?$vector@UAD_STRUCT@@V?$allocator@UAD_STRUCT@@@std@@@std@@QAEXABUAD_STRUCT@@@Z ENDP ; std::vector<AD_STRUCT,std::allocator<AD_STRUCT> >::push_back
; Function compile flags: /Odt /RTCsu
_TEXT	ENDS
;	COMDAT ?clear@?$vector@UAD_STRUCT@@V?$allocator@UAD_STRUCT@@@std@@@std@@QAEXXZ
_TEXT	SEGMENT
_this$ = -4						; size = 4
?clear@?$vector@UAD_STRUCT@@V?$allocator@UAD_STRUCT@@@std@@@std@@QAEXXZ PROC NEAR ; std::vector<AD_STRUCT,std::allocator<AD_STRUCT> >::clear, COMDAT
; _this$ = ecx

; 743  : 		{	// erase all

  00000	55		 push	 ebp
  00001	8b ec		 mov	 ebp, esp
  00003	51		 push	 ecx
  00004	c7 45 fc cc cc
	cc cc		 mov	 DWORD PTR [ebp-4], -858993460 ; ccccccccH
  0000b	89 4d fc	 mov	 DWORD PTR _this$[ebp], ecx

; 744  : 		_Tidy();

  0000e	8b 4d fc	 mov	 ecx, DWORD PTR _this$[ebp]
  00011	e8 00 00 00 00	 call	 ?_Tidy@?$vector@UAD_STRUCT@@V?$allocator@UAD_STRUCT@@@std@@@std@@IAEXXZ ; std::vector<AD_STRUCT,std::allocator<AD_STRUCT> >::_Tidy

; 745  : 		}

  00016	83 c4 04	 add	 esp, 4
  00019	3b ec		 cmp	 ebp, esp
  0001b	e8 00 00 00 00	 call	 __RTC_CheckEsp
  00020	8b e5		 mov	 esp, ebp
  00022	5d		 pop	 ebp
  00023	c3		 ret	 0
?clear@?$vector@UAD_STRUCT@@V?$allocator@UAD_STRUCT@@@std@@@std@@QAEXXZ ENDP ; std::vector<AD_STRUCT,std::allocator<AD_STRUCT> >::clear
_TEXT	ENDS
PUBLIC	??0?$allocator@PAVIMessageObserver@@@std@@QAE@XZ ; std::allocator<IMessageObserver *>::allocator<IMessageObserver *>
PUBLIC	??0?$_List_val@PAVIMessageObserver@@V?$allocator@PAVIMessageObserver@@@std@@@std@@IAE@V?$allocator@PAVIMessageObserver@@@1@@Z ; std::_List_val<IMessageObserver *,std::allocator<IMessageObserver *> >::_List_val<IMessageObserver *,std::allocator<IMessageObserver *> >
PUBLIC	?_Buynode@?$list@PAVIMessageObserver@@V?$allocator@PAVIMessageObserver@@@std@@@std@@IAEPAU_Node@?$_List_nod@PAVIMessageObserver@@V?$allocator@PAVIMessageObserver@@@std@@@2@XZ ; std::list<IMessageObserver *,std::allocator<IMessageObserver *> >::_Buynode
; Function compile flags: /Odt /RTCsu
; File d:\program files (x86)\microsoft visual studio .net 2003\vc7\include\list
;	COMDAT ??0?$list@PAVIMessageObserver@@V?$allocator@PAVIMessageObserver@@@std@@@std@@QAE@XZ
_TEXT	SEGMENT
_this$ = -4						; size = 4
??0?$list@PAVIMessageObserver@@V?$allocator@PAVIMessageObserver@@@std@@@std@@QAE@XZ PROC NEAR ; std::list<IMessageObserver *,std::allocator<IMessageObserver *> >::list<IMessageObserver *,std::allocator<IMessageObserver *> >, COMDAT
; _this$ = ecx

; 280  : 		{	// construct empty list

  00000	55		 push	 ebp
  00001	8b ec		 mov	 ebp, esp
  00003	83 ec 08	 sub	 esp, 8
  00006	c7 45 f8 cc cc
	cc cc		 mov	 DWORD PTR [ebp-8], -858993460 ; ccccccccH
  0000d	c7 45 fc cc cc
	cc cc		 mov	 DWORD PTR [ebp-4], -858993460 ; ccccccccH
  00014	89 4d fc	 mov	 DWORD PTR _this$[ebp], ecx
  00017	51		 push	 ecx
  00018	8b cc		 mov	 ecx, esp
  0001a	e8 00 00 00 00	 call	 ??0?$allocator@PAVIMessageObserver@@@std@@QAE@XZ ; std::allocator<IMessageObserver *>::allocator<IMessageObserver *>
  0001f	8b 4d fc	 mov	 ecx, DWORD PTR _this$[ebp]
  00022	e8 00 00 00 00	 call	 ??0?$_List_val@PAVIMessageObserver@@V?$allocator@PAVIMessageObserver@@@std@@@std@@IAE@V?$allocator@PAVIMessageObserver@@@1@@Z ; std::_List_val<IMessageObserver *,std::allocator<IMessageObserver *> >::_List_val<IMessageObserver *,std::allocator<IMessageObserver *> >
  00027	8b 4d fc	 mov	 ecx, DWORD PTR _this$[ebp]
  0002a	e8 00 00 00 00	 call	 ?_Buynode@?$list@PAVIMessageObserver@@V?$allocator@PAVIMessageObserver@@@std@@@std@@IAEPAU_Node@?$_List_nod@PAVIMessageObserver@@V?$allocator@PAVIMessageObserver@@@std@@@2@XZ ; std::list<IMessageObserver *,std::allocator<IMessageObserver *> >::_Buynode
  0002f	8b 4d fc	 mov	 ecx, DWORD PTR _this$[ebp]
  00032	89 41 04	 mov	 DWORD PTR [ecx+4], eax
  00035	8b 55 fc	 mov	 edx, DWORD PTR _this$[ebp]
  00038	c7 42 08 00 00
	00 00		 mov	 DWORD PTR [edx+8], 0

; 281  : 		}

  0003f	8b 45 fc	 mov	 eax, DWORD PTR _this$[ebp]
  00042	83 c4 08	 add	 esp, 8
  00045	3b ec		 cmp	 ebp, esp
  00047	e8 00 00 00 00	 call	 __RTC_CheckEsp
  0004c	8b e5		 mov	 esp, ebp
  0004e	5d		 pop	 ebp
  0004f	c3		 ret	 0
??0?$list@PAVIMessageObserver@@V?$allocator@PAVIMessageObserver@@@std@@@std@@QAE@XZ ENDP ; std::list<IMessageObserver *,std::allocator<IMessageObserver *> >::list<IMessageObserver *,std::allocator<IMessageObserver *> >
_TEXT	ENDS
PUBLIC	?_Tidy@?$list@PAVIMessageObserver@@V?$allocator@PAVIMessageObserver@@@std@@@std@@IAEXXZ ; std::list<IMessageObserver *,std::allocator<IMessageObserver *> >::_Tidy
; Function compile flags: /Odt /RTCsu
;	COMDAT ??1?$list@PAVIMessageObserver@@V?$allocator@PAVIMessageObserver@@@std@@@std@@QAE@XZ
_TEXT	SEGMENT
_this$ = -4						; size = 4
??1?$list@PAVIMessageObserver@@V?$allocator@PAVIMessageObserver@@@std@@@std@@QAE@XZ PROC NEAR ; std::list<IMessageObserver *,std::allocator<IMessageObserver *> >::~list<IMessageObserver *,std::allocator<IMessageObserver *> >, COMDAT
; _this$ = ecx

; 364  : 		{	// destroy the object

  00000	55		 push	 ebp
  00001	8b ec		 mov	 ebp, esp
  00003	51		 push	 ecx
  00004	c7 45 fc cc cc
	cc cc		 mov	 DWORD PTR [ebp-4], -858993460 ; ccccccccH
  0000b	89 4d fc	 mov	 DWORD PTR _this$[ebp], ecx

; 365  : 		_Tidy();

  0000e	8b 4d fc	 mov	 ecx, DWORD PTR _this$[ebp]
  00011	e8 00 00 00 00	 call	 ?_Tidy@?$list@PAVIMessageObserver@@V?$allocator@PAVIMessageObserver@@@std@@@std@@IAEXXZ ; std::list<IMessageObserver *,std::allocator<IMessageObserver *> >::_Tidy

; 366  : 		}

  00016	83 c4 04	 add	 esp, 4
  00019	3b ec		 cmp	 ebp, esp
  0001b	e8 00 00 00 00	 call	 __RTC_CheckEsp
  00020	8b e5		 mov	 esp, ebp
  00022	5d		 pop	 ebp
  00023	c3		 ret	 0
??1?$list@PAVIMessageObserver@@V?$allocator@PAVIMessageObserver@@@std@@@std@@QAE@XZ ENDP ; std::list<IMessageObserver *,std::allocator<IMessageObserver *> >::~list<IMessageObserver *,std::allocator<IMessageObserver *> >
_TEXT	ENDS
PUBLIC	?_Nextnode@?$list@PAVIMessageObserver@@V?$allocator@PAVIMessageObserver@@@std@@@std@@KAAAPAU_Node@?$_List_nod@PAVIMessageObserver@@V?$allocator@PAVIMessageObserver@@@std@@@2@PAU342@@Z ; std::list<IMessageObserver *,std::allocator<IMessageObserver *> >::_Nextnode
PUBLIC	??0iterator@?$list@PAVIMessageObserver@@V?$allocator@PAVIMessageObserver@@@std@@@std@@QAE@PAU_Node@?$_List_nod@PAVIMessageObserver@@V?$allocator@PAVIMessageObserver@@@std@@@2@@Z ; std::list<IMessageObserver *,std::allocator<IMessageObserver *> >::iterator::iterator
; Function compile flags: /Odt /RTCsu
;	COMDAT ?begin@?$list@PAVIMessageObserver@@V?$allocator@PAVIMessageObserver@@@std@@@std@@QAE?AViterator@12@XZ
_TEXT	SEGMENT
_this$ = -4						; size = 4
___$ReturnUdt$ = 8					; size = 4
?begin@?$list@PAVIMessageObserver@@V?$allocator@PAVIMessageObserver@@@std@@@std@@QAE?AViterator@12@XZ PROC NEAR ; std::list<IMessageObserver *,std::allocator<IMessageObserver *> >::begin, COMDAT
; _this$ = ecx

; 376  : 		{	// return iterator for beginning of mutable sequence

  00000	55		 push	 ebp
  00001	8b ec		 mov	 ebp, esp
  00003	51		 push	 ecx
  00004	c7 45 fc cc cc
	cc cc		 mov	 DWORD PTR [ebp-4], -858993460 ; ccccccccH
  0000b	89 4d fc	 mov	 DWORD PTR _this$[ebp], ecx

; 377  : 		return (iterator(_Nextnode(_Myhead)));

  0000e	8b 45 fc	 mov	 eax, DWORD PTR _this$[ebp]
  00011	8b 48 04	 mov	 ecx, DWORD PTR [eax+4]
  00014	51		 push	 ecx
  00015	e8 00 00 00 00	 call	 ?_Nextnode@?$list@PAVIMessageObserver@@V?$allocator@PAVIMessageObserver@@@std@@@std@@KAAAPAU_Node@?$_List_nod@PAVIMessageObserver@@V?$allocator@PAVIMessageObserver@@@std@@@2@PAU342@@Z ; std::list<IMessageObserver *,std::allocator<IMessageObserver *> >::_Nextnode
  0001a	83 c4 04	 add	 esp, 4
  0001d	8b 10		 mov	 edx, DWORD PTR [eax]
  0001f	52		 push	 edx
  00020	8b 4d 08	 mov	 ecx, DWORD PTR ___$ReturnUdt$[ebp]
  00023	e8 00 00 00 00	 call	 ??0iterator@?$list@PAVIMessageObserver@@V?$allocator@PAVIMessageObserver@@@std@@@std@@QAE@PAU_Node@?$_List_nod@PAVIMessageObserver@@V?$allocator@PAVIMessageObserver@@@std@@@2@@Z ; std::list<IMessageObserver *,std::allocator<IMessageObserver *> >::iterator::iterator
  00028	8b 45 08	 mov	 eax, DWORD PTR ___$ReturnUdt$[ebp]

; 378  : 		}

  0002b	83 c4 04	 add	 esp, 4
  0002e	3b ec		 cmp	 ebp, esp
  00030	e8 00 00 00 00	 call	 __RTC_CheckEsp
  00035	8b e5		 mov	 esp, ebp
  00037	5d		 pop	 ebp
  00038	c2 04 00	 ret	 4
?begin@?$list@PAVIMessageObserver@@V?$allocator@PAVIMessageObserver@@@std@@@std@@QAE?AViterator@12@XZ ENDP ; std::list<IMessageObserver *,std::allocator<IMessageObserver *> >::begin
; Function compile flags: /Odt /RTCsu
_TEXT	ENDS
;	COMDAT ?end@?$list@PAVIMessageObserver@@V?$allocator@PAVIMessageObserver@@@std@@@std@@QAE?AViterator@12@XZ
_TEXT	SEGMENT
_this$ = -4						; size = 4
___$ReturnUdt$ = 8					; size = 4
?end@?$list@PAVIMessageObserver@@V?$allocator@PAVIMessageObserver@@@std@@@std@@QAE?AViterator@12@XZ PROC NEAR ; std::list<IMessageObserver *,std::allocator<IMessageObserver *> >::end, COMDAT
; _this$ = ecx

; 386  : 		{	// return iterator for end of mutable sequence

  00000	55		 push	 ebp
  00001	8b ec		 mov	 ebp, esp
  00003	51		 push	 ecx
  00004	c7 45 fc cc cc
	cc cc		 mov	 DWORD PTR [ebp-4], -858993460 ; ccccccccH
  0000b	89 4d fc	 mov	 DWORD PTR _this$[ebp], ecx

; 387  : 		return (iterator(_Myhead));

  0000e	8b 45 fc	 mov	 eax, DWORD PTR _this$[ebp]
  00011	8b 48 04	 mov	 ecx, DWORD PTR [eax+4]
  00014	51		 push	 ecx
  00015	8b 4d 08	 mov	 ecx, DWORD PTR ___$ReturnUdt$[ebp]
  00018	e8 00 00 00 00	 call	 ??0iterator@?$list@PAVIMessageObserver@@V?$allocator@PAVIMessageObserver@@@std@@@std@@QAE@PAU_Node@?$_List_nod@PAVIMessageObserver@@V?$allocator@PAVIMessageObserver@@@std@@@2@@Z ; std::list<IMessageObserver *,std::allocator<IMessageObserver *> >::iterator::iterator
  0001d	8b 45 08	 mov	 eax, DWORD PTR ___$ReturnUdt$[ebp]

; 388  : 		}

  00020	83 c4 04	 add	 esp, 4
  00023	3b ec		 cmp	 ebp, esp
  00025	e8 00 00 00 00	 call	 __RTC_CheckEsp
  0002a	8b e5		 mov	 esp, ebp
  0002c	5d		 pop	 ebp
  0002d	c2 04 00	 ret	 4
?end@?$list@PAVIMessageObserver@@V?$allocator@PAVIMessageObserver@@@std@@@std@@QAE?AViterator@12@XZ ENDP ; std::list<IMessageObserver *,std::allocator<IMessageObserver *> >::end
_TEXT	ENDS
PUBLIC	??Dconst_iterator@?$list@PAVIMessageObserver@@V?$allocator@PAVIMessageObserver@@@std@@@std@@QBEABQAVIMessageObserver@@XZ ; std::list<IMessageObserver *,std::allocator<IMessageObserver *> >::const_iterator::operator*
; Function compile flags: /Odt /RTCsu
;	COMDAT ??Diterator@?$list@PAVIMessageObserver@@V?$allocator@PAVIMessageObserver@@@std@@@std@@QBEAAPAVIMessageObserver@@XZ
_TEXT	SEGMENT
_this$ = -4						; size = 4
??Diterator@?$list@PAVIMessageObserver@@V?$allocator@PAVIMessageObserver@@@std@@@std@@QBEAAPAVIMessageObserver@@XZ PROC NEAR ; std::list<IMessageObserver *,std::allocator<IMessageObserver *> >::iterator::operator*, COMDAT
; _this$ = ecx

; 239  : 			{	// return designated value

  00000	55		 push	 ebp
  00001	8b ec		 mov	 ebp, esp
  00003	51		 push	 ecx
  00004	c7 45 fc cc cc
	cc cc		 mov	 DWORD PTR [ebp-4], -858993460 ; ccccccccH
  0000b	89 4d fc	 mov	 DWORD PTR _this$[ebp], ecx

; 240  : 			return ((reference)**(const_iterator *)this);

  0000e	8b 4d fc	 mov	 ecx, DWORD PTR _this$[ebp]
  00011	e8 00 00 00 00	 call	 ??Dconst_iterator@?$list@PAVIMessageObserver@@V?$allocator@PAVIMessageObserver@@@std@@@std@@QBEABQAVIMessageObserver@@XZ ; std::list<IMessageObserver *,std::allocator<IMessageObserver *> >::const_iterator::operator*

; 241  : 			}

  00016	83 c4 04	 add	 esp, 4
  00019	3b ec		 cmp	 ebp, esp
  0001b	e8 00 00 00 00	 call	 __RTC_CheckEsp
  00020	8b e5		 mov	 esp, ebp
  00022	5d		 pop	 ebp
  00023	c3		 ret	 0
??Diterator@?$list@PAVIMessageObserver@@V?$allocator@PAVIMessageObserver@@@std@@@std@@QBEAAPAVIMessageObserver@@XZ ENDP ; std::list<IMessageObserver *,std::allocator<IMessageObserver *> >::iterator::operator*
_TEXT	ENDS
PUBLIC	??Eiterator@?$list@PAVIMessageObserver@@V?$allocator@PAVIMessageObserver@@@std@@@std@@QAEAAV012@XZ ; std::list<IMessageObserver *,std::allocator<IMessageObserver *> >::iterator::operator++
; Function compile flags: /Odt /RTCsu
;	COMDAT ??Eiterator@?$list@PAVIMessageObserver@@V?$allocator@PAVIMessageObserver@@@std@@@std@@QAE?AV012@H@Z
_TEXT	SEGMENT
__Tmp$ = -12						; size = 4
_this$ = -4						; size = 4
___$ReturnUdt$ = 8					; size = 4
___formal$ = 12						; size = 4
??Eiterator@?$list@PAVIMessageObserver@@V?$allocator@PAVIMessageObserver@@@std@@@std@@QAE?AV012@H@Z PROC NEAR ; std::list<IMessageObserver *,std::allocator<IMessageObserver *> >::iterator::operator++, COMDAT
; _this$ = ecx

; 255  : 			{	// postincrement

  00000	55		 push	 ebp
  00001	8b ec		 mov	 ebp, esp
  00003	83 ec 10	 sub	 esp, 16			; 00000010H
  00006	b8 cc cc cc cc	 mov	 eax, -858993460		; ccccccccH
  0000b	89 45 f0	 mov	 DWORD PTR [ebp-16], eax
  0000e	89 45 f4	 mov	 DWORD PTR [ebp-12], eax
  00011	89 45 f8	 mov	 DWORD PTR [ebp-8], eax
  00014	89 45 fc	 mov	 DWORD PTR [ebp-4], eax
  00017	89 4d fc	 mov	 DWORD PTR _this$[ebp], ecx

; 256  : 			iterator _Tmp = *this;

  0001a	8b 45 fc	 mov	 eax, DWORD PTR _this$[ebp]
  0001d	8b 08		 mov	 ecx, DWORD PTR [eax]
  0001f	89 4d f4	 mov	 DWORD PTR __Tmp$[ebp], ecx

; 257  : 			++*this;

  00022	8b 4d fc	 mov	 ecx, DWORD PTR _this$[ebp]
  00025	e8 00 00 00 00	 call	 ??Eiterator@?$list@PAVIMessageObserver@@V?$allocator@PAVIMessageObserver@@@std@@@std@@QAEAAV012@XZ ; std::list<IMessageObserver *,std::allocator<IMessageObserver *> >::iterator::operator++

; 258  : 			return (_Tmp);

  0002a	8b 55 08	 mov	 edx, DWORD PTR ___$ReturnUdt$[ebp]
  0002d	8b 45 f4	 mov	 eax, DWORD PTR __Tmp$[ebp]
  00030	89 02		 mov	 DWORD PTR [edx], eax
  00032	8b 45 08	 mov	 eax, DWORD PTR ___$ReturnUdt$[ebp]

; 259  : 			}

  00035	52		 push	 edx
  00036	8b cd		 mov	 ecx, ebp
  00038	50		 push	 eax
  00039	8d 15 00 00 00
	00		 lea	 edx, DWORD PTR $L190185
  0003f	e8 00 00 00 00	 call	 @_RTC_CheckStackVars@8
  00044	58		 pop	 eax
  00045	5a		 pop	 edx
  00046	83 c4 10	 add	 esp, 16			; 00000010H
  00049	3b ec		 cmp	 ebp, esp
  0004b	e8 00 00 00 00	 call	 __RTC_CheckEsp
  00050	8b e5		 mov	 esp, ebp
  00052	5d		 pop	 ebp
  00053	c2 08 00	 ret	 8
$L190185:
  00056	01 00 00 00	 DD	 1
  0005a	00 00 00 00	 DD	 $L190184
$L190184:
  0005e	f4 ff ff ff	 DD	 -12			; fffffff4H
  00062	04 00 00 00	 DD	 4
  00066	00 00 00 00	 DD	 $L190183
$L190183:
  0006a	5f		 DB	 95			; 0000005fH
  0006b	54		 DB	 84			; 00000054H
  0006c	6d		 DB	 109			; 0000006dH
  0006d	70		 DB	 112			; 00000070H
  0006e	00		 DB	 0
??Eiterator@?$list@PAVIMessageObserver@@V?$allocator@PAVIMessageObserver@@@std@@@std@@QAE?AV012@H@Z ENDP ; std::list<IMessageObserver *,std::allocator<IMessageObserver *> >::iterator::operator++
_TEXT	ENDS
PUBLIC	??8const_iterator@?$list@PAVIMessageObserver@@V?$allocator@PAVIMessageObserver@@@std@@@std@@QBE_NABV012@@Z ; std::list<IMessageObserver *,std::allocator<IMessageObserver *> >::const_iterator::operator==
; Function compile flags: /Odt /RTCsu
;	COMDAT ??9const_iterator@?$list@PAVIMessageObserver@@V?$allocator@PAVIMessageObserver@@@std@@@std@@QBE_NABV012@@Z
_TEXT	SEGMENT
_this$ = -4						; size = 4
__Right$ = 8						; size = 4
??9const_iterator@?$list@PAVIMessageObserver@@V?$allocator@PAVIMessageObserver@@@std@@@std@@QBE_NABV012@@Z PROC NEAR ; std::list<IMessageObserver *,std::allocator<IMessageObserver *> >::const_iterator::operator!=, COMDAT
; _this$ = ecx

; 201  : 			{	// test for iterator inequality

  00000	55		 push	 ebp
  00001	8b ec		 mov	 ebp, esp
  00003	51		 push	 ecx
  00004	c7 45 fc cc cc
	cc cc		 mov	 DWORD PTR [ebp-4], -858993460 ; ccccccccH
  0000b	89 4d fc	 mov	 DWORD PTR _this$[ebp], ecx

; 202  : 			return (!(*this == _Right));

  0000e	8b 45 08	 mov	 eax, DWORD PTR __Right$[ebp]
  00011	50		 push	 eax
  00012	8b 4d fc	 mov	 ecx, DWORD PTR _this$[ebp]
  00015	e8 00 00 00 00	 call	 ??8const_iterator@?$list@PAVIMessageObserver@@V?$allocator@PAVIMessageObserver@@@std@@@std@@QBE_NABV012@@Z ; std::list<IMessageObserver *,std::allocator<IMessageObserver *> >::const_iterator::operator==
  0001a	0f b6 c0	 movzx	 eax, al
  0001d	f7 d8		 neg	 eax
  0001f	1b c0		 sbb	 eax, eax
  00021	40		 inc	 eax

; 203  : 			}

  00022	83 c4 04	 add	 esp, 4
  00025	3b ec		 cmp	 ebp, esp
  00027	e8 00 00 00 00	 call	 __RTC_CheckEsp
  0002c	8b e5		 mov	 esp, ebp
  0002e	5d		 pop	 ebp
  0002f	c2 04 00	 ret	 4
??9const_iterator@?$list@PAVIMessageObserver@@V?$allocator@PAVIMessageObserver@@@std@@@std@@QBE_NABV012@@Z ENDP ; std::list<IMessageObserver *,std::allocator<IMessageObserver *> >::const_iterator::operator!=
_TEXT	ENDS
PUBLIC	?_Buy@?$vector@V?$basic_string@DU?$char_traits@D@std@@V?$allocator@D@2@@std@@V?$allocator@V?$basic_string@DU?$char_traits@D@std@@V?$allocator@D@2@@std@@@2@@std@@IAE_NI@Z ; std::vector<std::basic_string<char,std::char_traits<char>,std::allocator<char> >,std::allocator<std::basic_string<char,std::char_traits<char>,std::allocator<char> > > >::_Buy
PUBLIC	??0?$allocator@V?$basic_string@DU?$char_traits@D@std@@V?$allocator@D@2@@std@@@std@@QAE@XZ ; std::allocator<std::basic_string<char,std::char_traits<char>,std::allocator<char> > >::allocator<std::basic_string<char,std::char_traits<char>,std::allocator<char> > >
PUBLIC	??0?$_Vector_val@V?$basic_string@DU?$char_traits@D@std@@V?$allocator@D@2@@std@@V?$allocator@V?$basic_string@DU?$char_traits@D@std@@V?$allocator@D@2@@std@@@2@@std@@IAE@V?$allocator@V?$basic_string@DU?$char_traits@D@std@@V?$allocator@D@2@@std@@@1@@Z ; std::_Vector_val<std::basic_string<char,std::char_traits<char>,std::allocator<char> >,std::allocator<std::basic_string<char,std::char_traits<char>,std::allocator<char> > > >::_Vector_val<std::basic_string<char,std::char_traits<char>,std::allocator<char> >,std::allocator<std::basic_string<char,std::char_traits<char>,std::allocator<char> > > >
; Function compile flags: /Odt /RTCsu
; File d:\program files (x86)\microsoft visual studio .net 2003\vc7\include\vector
;	COMDAT ??0?$vector@V?$basic_string@DU?$char_traits@D@std@@V?$allocator@D@2@@std@@V?$allocator@V?$basic_string@DU?$char_traits@D@std@@V?$allocator@D@2@@std@@@2@@std@@QAE@XZ
_TEXT	SEGMENT
_this$ = -4						; size = 4
??0?$vector@V?$basic_string@DU?$char_traits@D@std@@V?$allocator@D@2@@std@@V?$allocator@V?$basic_string@DU?$char_traits@D@std@@V?$allocator@D@2@@std@@@2@@std@@QAE@XZ PROC NEAR ; std::vector<std::basic_string<char,std::char_traits<char>,std::allocator<char> >,std::allocator<std::basic_string<char,std::char_traits<char>,std::allocator<char> > > >::vector<std::basic_string<char,std::char_traits<char>,std::allocator<char> >,std::allocator<std::basic_string<char,std::char_traits<char>,std::allocator<char> > > >, COMDAT
; _this$ = ecx

; 299  : 		{	// construct empty vector

  00000	55		 push	 ebp
  00001	8b ec		 mov	 ebp, esp
  00003	83 ec 08	 sub	 esp, 8
  00006	c7 45 f8 cc cc
	cc cc		 mov	 DWORD PTR [ebp-8], -858993460 ; ccccccccH
  0000d	c7 45 fc cc cc
	cc cc		 mov	 DWORD PTR [ebp-4], -858993460 ; ccccccccH
  00014	89 4d fc	 mov	 DWORD PTR _this$[ebp], ecx
  00017	51		 push	 ecx
  00018	8b cc		 mov	 ecx, esp
  0001a	e8 00 00 00 00	 call	 ??0?$allocator@V?$basic_string@DU?$char_traits@D@std@@V?$allocator@D@2@@std@@@std@@QAE@XZ ; std::allocator<std::basic_string<char,std::char_traits<char>,std::allocator<char> > >::allocator<std::basic_string<char,std::char_traits<char>,std::allocator<char> > >
  0001f	8b 4d fc	 mov	 ecx, DWORD PTR _this$[ebp]
  00022	e8 00 00 00 00	 call	 ??0?$_Vector_val@V?$basic_string@DU?$char_traits@D@std@@V?$allocator@D@2@@std@@V?$allocator@V?$basic_string@DU?$char_traits@D@std@@V?$allocator@D@2@@std@@@2@@std@@IAE@V?$allocator@V?$basic_string@DU?$char_traits@D@std@@V?$allocator@D@2@@std@@@1@@Z ; std::_Vector_val<std::basic_string<char,std::char_traits<char>,std::allocator<char> >,std::allocator<std::basic_string<char,std::char_traits<char>,std::allocator<char> > > >::_Vector_val<std::basic_string<char,std::char_traits<char>,std::allocator<char> >,std::allocator<std::basic_string<char,std::char_traits<char>,std::allocator<char> > > >

; 300  : 		_Buy(0);

  00027	6a 00		 push	 0
  00029	8b 4d fc	 mov	 ecx, DWORD PTR _this$[ebp]
  0002c	e8 00 00 00 00	 call	 ?_Buy@?$vector@V?$basic_string@DU?$char_traits@D@std@@V?$allocator@D@2@@std@@V?$allocator@V?$basic_string@DU?$char_traits@D@std@@V?$allocator@D@2@@std@@@2@@std@@IAE_NI@Z ; std::vector<std::basic_string<char,std::char_traits<char>,std::allocator<char> >,std::allocator<std::basic_string<char,std::char_traits<char>,std::allocator<char> > > >::_Buy

; 301  : 		}

  00031	8b 45 fc	 mov	 eax, DWORD PTR _this$[ebp]
  00034	83 c4 08	 add	 esp, 8
  00037	3b ec		 cmp	 ebp, esp
  00039	e8 00 00 00 00	 call	 __RTC_CheckEsp
  0003e	8b e5		 mov	 esp, ebp
  00040	5d		 pop	 ebp
  00041	c3		 ret	 0
??0?$vector@V?$basic_string@DU?$char_traits@D@std@@V?$allocator@D@2@@std@@V?$allocator@V?$basic_string@DU?$char_traits@D@std@@V?$allocator@D@2@@std@@@2@@std@@QAE@XZ ENDP ; std::vector<std::basic_string<char,std::char_traits<char>,std::allocator<char> >,std::allocator<std::basic_string<char,std::char_traits<char>,std::allocator<char> > > >::vector<std::basic_string<char,std::char_traits<char>,std::allocator<char> >,std::allocator<std::basic_string<char,std::char_traits<char>,std::allocator<char> > > >
_TEXT	ENDS
PUBLIC	?_Tidy@?$vector@V?$basic_string@DU?$char_traits@D@std@@V?$allocator@D@2@@std@@V?$allocator@V?$basic_string@DU?$char_traits@D@std@@V?$allocator@D@2@@std@@@2@@std@@IAEXXZ ; std::vector<std::basic_string<char,std::char_traits<char>,std::allocator<char> >,std::allocator<std::basic_string<char,std::char_traits<char>,std::allocator<char> > > >::_Tidy
; Function compile flags: /Odt /RTCsu
;	COMDAT ??1?$vector@V?$basic_string@DU?$char_traits@D@std@@V?$allocator@D@2@@std@@V?$allocator@V?$basic_string@DU?$char_traits@D@std@@V?$allocator@D@2@@std@@@2@@std@@QAE@XZ
_TEXT	SEGMENT
_this$ = -4						; size = 4
??1?$vector@V?$basic_string@DU?$char_traits@D@std@@V?$allocator@D@2@@std@@V?$allocator@V?$basic_string@DU?$char_traits@D@std@@V?$allocator@D@2@@std@@@2@@std@@QAE@XZ PROC NEAR ; std::vector<std::basic_string<char,std::char_traits<char>,std::allocator<char> >,std::allocator<std::basic_string<char,std::char_traits<char>,std::allocator<char> > > >::~vector<std::basic_string<char,std::char_traits<char>,std::allocator<char> >,std::allocator<std::basic_string<char,std::char_traits<char>,std::allocator<char> > > >, COMDAT
; _this$ = ecx

; 387  : 		{	// destroy the object

  00000	55		 push	 ebp
  00001	8b ec		 mov	 ebp, esp
  00003	51		 push	 ecx
  00004	c7 45 fc cc cc
	cc cc		 mov	 DWORD PTR [ebp-4], -858993460 ; ccccccccH
  0000b	89 4d fc	 mov	 DWORD PTR _this$[ebp], ecx

; 388  : 		_Tidy();

  0000e	8b 4d fc	 mov	 ecx, DWORD PTR _this$[ebp]
  00011	e8 00 00 00 00	 call	 ?_Tidy@?$vector@V?$basic_string@DU?$char_traits@D@std@@V?$allocator@D@2@@std@@V?$allocator@V?$basic_string@DU?$char_traits@D@std@@V?$allocator@D@2@@std@@@2@@std@@IAEXXZ ; std::vector<std::basic_string<char,std::char_traits<char>,std::allocator<char> >,std::allocator<std::basic_string<char,std::char_traits<char>,std::allocator<char> > > >::_Tidy

; 389  : 		}

  00016	83 c4 04	 add	 esp, 4
  00019	3b ec		 cmp	 ebp, esp
  0001b	e8 00 00 00 00	 call	 __RTC_CheckEsp
  00020	8b e5		 mov	 esp, ebp
  00022	5d		 pop	 ebp
  00023	c3		 ret	 0
??1?$vector@V?$basic_string@DU?$char_traits@D@std@@V?$allocator@D@2@@std@@V?$allocator@V?$basic_string@DU?$char_traits@D@std@@V?$allocator@D@2@@std@@@2@@std@@QAE@XZ ENDP ; std::vector<std::basic_string<char,std::char_traits<char>,std::allocator<char> >,std::allocator<std::basic_string<char,std::char_traits<char>,std::allocator<char> > > >::~vector<std::basic_string<char,std::char_traits<char>,std::allocator<char> >,std::allocator<std::basic_string<char,std::char_traits<char>,std::allocator<char> > > >
; Function compile flags: /Odt /RTCsu
; File d:\program files (x86)\microsoft visual studio .net 2003\vc7\include\xmemory
_TEXT	ENDS
;	COMDAT ??0?$allocator@V?$basic_string@DU?$char_traits@D@std@@V?$allocator@D@2@@std@@@std@@QAE@XZ
_TEXT	SEGMENT
_this$ = -4						; size = 4
??0?$allocator@V?$basic_string@DU?$char_traits@D@std@@V?$allocator@D@2@@std@@@std@@QAE@XZ PROC NEAR ; std::allocator<std::basic_string<char,std::char_traits<char>,std::allocator<char> > >::allocator<std::basic_string<char,std::char_traits<char>,std::allocator<char> > >, COMDAT
; _this$ = ecx

; 111  : 	allocator()

  00000	55		 push	 ebp
  00001	8b ec		 mov	 ebp, esp
  00003	51		 push	 ecx
  00004	c7 45 fc cc cc
	cc cc		 mov	 DWORD PTR [ebp-4], -858993460 ; ccccccccH
  0000b	89 4d fc	 mov	 DWORD PTR _this$[ebp], ecx

; 112  : 		{	// construct default allocator (do nothing)
; 113  : 		}

  0000e	8b 45 fc	 mov	 eax, DWORD PTR _this$[ebp]
  00011	8b e5		 mov	 esp, ebp
  00013	5d		 pop	 ebp
  00014	c3		 ret	 0
??0?$allocator@V?$basic_string@DU?$char_traits@D@std@@V?$allocator@D@2@@std@@@std@@QAE@XZ ENDP ; std::allocator<std::basic_string<char,std::char_traits<char>,std::allocator<char> > >::allocator<std::basic_string<char,std::char_traits<char>,std::allocator<char> > >
; Function compile flags: /Odt /RTCsu
; File d:\program files (x86)\microsoft visual studio .net 2003\vc7\include\vector
_TEXT	ENDS
;	COMDAT ?capacity@?$vector@UAD_STRUCT@@V?$allocator@UAD_STRUCT@@@std@@@std@@QBEIXZ
_TEXT	SEGMENT
tv70 = -8						; size = 4
_this$ = -4						; size = 4
?capacity@?$vector@UAD_STRUCT@@V?$allocator@UAD_STRUCT@@@std@@@std@@QBEIXZ PROC NEAR ; std::vector<AD_STRUCT,std::allocator<AD_STRUCT> >::capacity, COMDAT
; _this$ = ecx

; 457  : 		{	// return current length of allocated storage

  00000	55		 push	 ebp
  00001	8b ec		 mov	 ebp, esp
  00003	83 ec 08	 sub	 esp, 8
  00006	c7 45 f8 cc cc
	cc cc		 mov	 DWORD PTR [ebp-8], -858993460 ; ccccccccH
  0000d	c7 45 fc cc cc
	cc cc		 mov	 DWORD PTR [ebp-4], -858993460 ; ccccccccH
  00014	89 4d fc	 mov	 DWORD PTR _this$[ebp], ecx

; 458  : 		return (_Myfirst == 0 ? 0 : _Myend - _Myfirst);

  00017	8b 45 fc	 mov	 eax, DWORD PTR _this$[ebp]
  0001a	83 78 04 00	 cmp	 DWORD PTR [eax+4], 0
  0001e	75 09		 jne	 SHORT $L190192
  00020	c7 45 f8 00 00
	00 00		 mov	 DWORD PTR tv70[ebp], 0
  00027	eb 17		 jmp	 SHORT $L190193
$L190192:
  00029	8b 4d fc	 mov	 ecx, DWORD PTR _this$[ebp]
  0002c	8b 55 fc	 mov	 edx, DWORD PTR _this$[ebp]
  0002f	8b 41 0c	 mov	 eax, DWORD PTR [ecx+12]
  00032	2b 42 04	 sub	 eax, DWORD PTR [edx+4]
  00035	99		 cdq
  00036	b9 38 00 00 00	 mov	 ecx, 56			; 00000038H
  0003b	f7 f9		 idiv	 ecx
  0003d	89 45 f8	 mov	 DWORD PTR tv70[ebp], eax
$L190193:
  00040	8b 45 f8	 mov	 eax, DWORD PTR tv70[ebp]

; 459  : 		}

  00043	8b e5		 mov	 esp, ebp
  00045	5d		 pop	 ebp
  00046	c3		 ret	 0
?capacity@?$vector@UAD_STRUCT@@V?$allocator@UAD_STRUCT@@@std@@@std@@QBEIXZ ENDP ; std::vector<AD_STRUCT,std::allocator<AD_STRUCT> >::capacity
_TEXT	ENDS
PUBLIC	??0iterator@?$vector@UAD_STRUCT@@V?$allocator@UAD_STRUCT@@@std@@@std@@QAE@PAUAD_STRUCT@@@Z ; std::vector<AD_STRUCT,std::allocator<AD_STRUCT> >::iterator::iterator
; Function compile flags: /Odt /RTCsu
;	COMDAT ?begin@?$vector@UAD_STRUCT@@V?$allocator@UAD_STRUCT@@@std@@@std@@QAE?AViterator@12@XZ
_TEXT	SEGMENT
_this$ = -4						; size = 4
___$ReturnUdt$ = 8					; size = 4
?begin@?$vector@UAD_STRUCT@@V?$allocator@UAD_STRUCT@@@std@@@std@@QAE?AViterator@12@XZ PROC NEAR ; std::vector<AD_STRUCT,std::allocator<AD_STRUCT> >::begin, COMDAT
; _this$ = ecx

; 462  : 		{	// return iterator for beginning of mutable sequence

  00000	55		 push	 ebp
  00001	8b ec		 mov	 ebp, esp
  00003	51		 push	 ecx
  00004	c7 45 fc cc cc
	cc cc		 mov	 DWORD PTR [ebp-4], -858993460 ; ccccccccH
  0000b	89 4d fc	 mov	 DWORD PTR _this$[ebp], ecx

; 463  : 		return (iterator(_Myfirst));

  0000e	8b 45 fc	 mov	 eax, DWORD PTR _this$[ebp]
  00011	8b 48 04	 mov	 ecx, DWORD PTR [eax+4]
  00014	51		 push	 ecx
  00015	8b 4d 08	 mov	 ecx, DWORD PTR ___$ReturnUdt$[ebp]
  00018	e8 00 00 00 00	 call	 ??0iterator@?$vector@UAD_STRUCT@@V?$allocator@UAD_STRUCT@@@std@@@std@@QAE@PAUAD_STRUCT@@@Z ; std::vector<AD_STRUCT,std::allocator<AD_STRUCT> >::iterator::iterator
  0001d	8b 45 08	 mov	 eax, DWORD PTR ___$ReturnUdt$[ebp]

; 464  : 		}

  00020	83 c4 04	 add	 esp, 4
  00023	3b ec		 cmp	 ebp, esp
  00025	e8 00 00 00 00	 call	 __RTC_CheckEsp
  0002a	8b e5		 mov	 esp, ebp
  0002c	5d		 pop	 ebp
  0002d	c2 04 00	 ret	 4
?begin@?$vector@UAD_STRUCT@@V?$allocator@UAD_STRUCT@@@std@@@std@@QAE?AViterator@12@XZ ENDP ; std::vector<AD_STRUCT,std::allocator<AD_STRUCT> >::begin
; Function compile flags: /Odt /RTCsu
_TEXT	ENDS
;	COMDAT ?end@?$vector@UAD_STRUCT@@V?$allocator@UAD_STRUCT@@@std@@@std@@QAE?AViterator@12@XZ
_TEXT	SEGMENT
_this$ = -4						; size = 4
___$ReturnUdt$ = 8					; size = 4
?end@?$vector@UAD_STRUCT@@V?$allocator@UAD_STRUCT@@@std@@@std@@QAE?AViterator@12@XZ PROC NEAR ; std::vector<AD_STRUCT,std::allocator<AD_STRUCT> >::end, COMDAT
; _this$ = ecx

; 472  : 		{	// return iterator for end of mutable sequence

  00000	55		 push	 ebp
  00001	8b ec		 mov	 ebp, esp
  00003	51		 push	 ecx
  00004	c7 45 fc cc cc
	cc cc		 mov	 DWORD PTR [ebp-4], -858993460 ; ccccccccH
  0000b	89 4d fc	 mov	 DWORD PTR _this$[ebp], ecx

; 473  : 		return (iterator(_Mylast));

  0000e	8b 45 fc	 mov	 eax, DWORD PTR _this$[ebp]
  00011	8b 48 08	 mov	 ecx, DWORD PTR [eax+8]
  00014	51		 push	 ecx
  00015	8b 4d 08	 mov	 ecx, DWORD PTR ___$ReturnUdt$[ebp]
  00018	e8 00 00 00 00	 call	 ??0iterator@?$vector@UAD_STRUCT@@V?$allocator@UAD_STRUCT@@@std@@@std@@QAE@PAUAD_STRUCT@@@Z ; std::vector<AD_STRUCT,std::allocator<AD_STRUCT> >::iterator::iterator
  0001d	8b 45 08	 mov	 eax, DWORD PTR ___$ReturnUdt$[ebp]

; 474  : 		}

  00020	83 c4 04	 add	 esp, 4
  00023	3b ec		 cmp	 ebp, esp
  00025	e8 00 00 00 00	 call	 __RTC_CheckEsp
  0002a	8b e5		 mov	 esp, ebp
  0002c	5d		 pop	 ebp
  0002d	c2 04 00	 ret	 4
?end@?$vector@UAD_STRUCT@@V?$allocator@UAD_STRUCT@@@std@@@std@@QAE?AViterator@12@XZ ENDP ; std::vector<AD_STRUCT,std::allocator<AD_STRUCT> >::end
_TEXT	ENDS
PUBLIC	??Giterator@?$vector@UAD_STRUCT@@V?$allocator@UAD_STRUCT@@@std@@@std@@QBEHABVconst_iterator@12@@Z ; std::vector<AD_STRUCT,std::allocator<AD_STRUCT> >::iterator::operator-
PUBLIC	?_Insert_n@?$vector@UAD_STRUCT@@V?$allocator@UAD_STRUCT@@@std@@@std@@IAEXViterator@12@IABUAD_STRUCT@@@Z ; std::vector<AD_STRUCT,std::allocator<AD_STRUCT> >::_Insert_n
; Function compile flags: /Odt /RTCsu
;	COMDAT ?insert@?$vector@UAD_STRUCT@@V?$allocator@UAD_STRUCT@@@std@@@std@@QAE?AViterator@12@V312@ABUAD_STRUCT@@@Z
_TEXT	SEGMENT
tv73 = -20						; size = 4
$T190200 = -16						; size = 4
$T190197 = -12						; size = 4
__Off$ = -8						; size = 4
_this$ = -4						; size = 4
___$ReturnUdt$ = 8					; size = 4
__Where$ = 12						; size = 4
__Val$ = 16						; size = 4
?insert@?$vector@UAD_STRUCT@@V?$allocator@UAD_STRUCT@@@std@@@std@@QAE?AViterator@12@V312@ABUAD_STRUCT@@@Z PROC NEAR ; std::vector<AD_STRUCT,std::allocator<AD_STRUCT> >::insert, COMDAT
; _this$ = ecx

; 620  : 		{	// insert _Val at _Where

  00000	55		 push	 ebp
  00001	8b ec		 mov	 ebp, esp
  00003	83 ec 14	 sub	 esp, 20			; 00000014H
  00006	b8 cc cc cc cc	 mov	 eax, -858993460		; ccccccccH
  0000b	89 45 ec	 mov	 DWORD PTR [ebp-20], eax
  0000e	89 45 f0	 mov	 DWORD PTR [ebp-16], eax
  00011	89 45 f4	 mov	 DWORD PTR [ebp-12], eax
  00014	89 45 f8	 mov	 DWORD PTR [ebp-8], eax
  00017	89 45 fc	 mov	 DWORD PTR [ebp-4], eax
  0001a	89 4d fc	 mov	 DWORD PTR _this$[ebp], ecx

; 621  : 		size_type _Off = size() == 0 ? 0 : _Where - begin();

  0001d	8b 4d fc	 mov	 ecx, DWORD PTR _this$[ebp]
  00020	e8 00 00 00 00	 call	 ?size@?$vector@UAD_STRUCT@@V?$allocator@UAD_STRUCT@@@std@@@std@@QBEIXZ ; std::vector<AD_STRUCT,std::allocator<AD_STRUCT> >::size
  00025	85 c0		 test	 eax, eax
  00027	75 09		 jne	 SHORT $L190198
  00029	c7 45 ec 00 00
	00 00		 mov	 DWORD PTR tv73[ebp], 0
  00030	eb 18		 jmp	 SHORT $L190199
$L190198:
  00032	8d 45 f4	 lea	 eax, DWORD PTR $T190197[ebp]
  00035	50		 push	 eax
  00036	8b 4d fc	 mov	 ecx, DWORD PTR _this$[ebp]
  00039	e8 00 00 00 00	 call	 ?begin@?$vector@UAD_STRUCT@@V?$allocator@UAD_STRUCT@@@std@@@std@@QAE?AViterator@12@XZ ; std::vector<AD_STRUCT,std::allocator<AD_STRUCT> >::begin
  0003e	50		 push	 eax
  0003f	8d 4d 0c	 lea	 ecx, DWORD PTR __Where$[ebp]
  00042	e8 00 00 00 00	 call	 ??Giterator@?$vector@UAD_STRUCT@@V?$allocator@UAD_STRUCT@@@std@@@std@@QBEHABVconst_iterator@12@@Z ; std::vector<AD_STRUCT,std::allocator<AD_STRUCT> >::iterator::operator-
  00047	89 45 ec	 mov	 DWORD PTR tv73[ebp], eax
$L190199:
  0004a	8b 4d ec	 mov	 ecx, DWORD PTR tv73[ebp]
  0004d	89 4d f8	 mov	 DWORD PTR __Off$[ebp], ecx

; 622  : 		_Insert_n(_Where, (size_type)1, _Val);

  00050	8b 55 10	 mov	 edx, DWORD PTR __Val$[ebp]
  00053	52		 push	 edx
  00054	6a 01		 push	 1
  00056	8b 45 0c	 mov	 eax, DWORD PTR __Where$[ebp]
  00059	50		 push	 eax
  0005a	8b 4d fc	 mov	 ecx, DWORD PTR _this$[ebp]
  0005d	e8 00 00 00 00	 call	 ?_Insert_n@?$vector@UAD_STRUCT@@V?$allocator@UAD_STRUCT@@@std@@@std@@IAEXViterator@12@IABUAD_STRUCT@@@Z ; std::vector<AD_STRUCT,std::allocator<AD_STRUCT> >::_Insert_n

; 623  : 		return (begin() + _Off);

  00062	8b 4d f8	 mov	 ecx, DWORD PTR __Off$[ebp]
  00065	51		 push	 ecx
  00066	8b 55 08	 mov	 edx, DWORD PTR ___$ReturnUdt$[ebp]
  00069	52		 push	 edx
  0006a	8d 45 f0	 lea	 eax, DWORD PTR $T190200[ebp]
  0006d	50		 push	 eax
  0006e	8b 4d fc	 mov	 ecx, DWORD PTR _this$[ebp]
  00071	e8 00 00 00 00	 call	 ?begin@?$vector@UAD_STRUCT@@V?$allocator@UAD_STRUCT@@@std@@@std@@QAE?AViterator@12@XZ ; std::vector<AD_STRUCT,std::allocator<AD_STRUCT> >::begin
  00076	8b c8		 mov	 ecx, eax
  00078	e8 00 00 00 00	 call	 ??Hiterator@?$vector@UAD_STRUCT@@V?$allocator@UAD_STRUCT@@@std@@@std@@QBE?AV012@H@Z ; std::vector<AD_STRUCT,std::allocator<AD_STRUCT> >::iterator::operator+
  0007d	8b 45 08	 mov	 eax, DWORD PTR ___$ReturnUdt$[ebp]

; 624  : 		}

  00080	83 c4 14	 add	 esp, 20			; 00000014H
  00083	3b ec		 cmp	 ebp, esp
  00085	e8 00 00 00 00	 call	 __RTC_CheckEsp
  0008a	8b e5		 mov	 esp, ebp
  0008c	5d		 pop	 ebp
  0008d	c2 0c 00	 ret	 12			; 0000000cH
?insert@?$vector@UAD_STRUCT@@V?$allocator@UAD_STRUCT@@@std@@@std@@QAE?AViterator@12@V312@ABUAD_STRUCT@@@Z ENDP ; std::vector<AD_STRUCT,std::allocator<AD_STRUCT> >::insert
_TEXT	ENDS
PUBLIC	?allocate@?$allocator@UAD_STRUCT@@@std@@QAEPAUAD_STRUCT@@I@Z ; std::allocator<AD_STRUCT>::allocate
PUBLIC	?max_size@?$vector@UAD_STRUCT@@V?$allocator@UAD_STRUCT@@@std@@@std@@QBEIXZ ; std::vector<AD_STRUCT,std::allocator<AD_STRUCT> >::max_size
PUBLIC	?_Xlen@?$vector@UAD_STRUCT@@V?$allocator@UAD_STRUCT@@@std@@@std@@IBEXXZ ; std::vector<AD_STRUCT,std::allocator<AD_STRUCT> >::_Xlen
; Function compile flags: /Odt /RTCsu
;	COMDAT ?_Buy@?$vector@UAD_STRUCT@@V?$allocator@UAD_STRUCT@@@std@@@std@@IAE_NI@Z
_TEXT	SEGMENT
_this$ = -4						; size = 4
__Capacity$ = 8						; size = 4
?_Buy@?$vector@UAD_STRUCT@@V?$allocator@UAD_STRUCT@@@std@@@std@@IAE_NI@Z PROC NEAR ; std::vector<AD_STRUCT,std::allocator<AD_STRUCT> >::_Buy, COMDAT
; _this$ = ecx

; 770  : 		{	// allocate array with _Capacity elements

  00000	55		 push	 ebp
  00001	8b ec		 mov	 ebp, esp
  00003	51		 push	 ecx
  00004	c7 45 fc cc cc
	cc cc		 mov	 DWORD PTR [ebp-4], -858993460 ; ccccccccH
  0000b	89 4d fc	 mov	 DWORD PTR _this$[ebp], ecx

; 771  : 		_Myfirst = 0, _Mylast = 0, _Myend = 0;

  0000e	8b 45 fc	 mov	 eax, DWORD PTR _this$[ebp]
  00011	c7 40 04 00 00
	00 00		 mov	 DWORD PTR [eax+4], 0
  00018	8b 4d fc	 mov	 ecx, DWORD PTR _this$[ebp]
  0001b	c7 41 08 00 00
	00 00		 mov	 DWORD PTR [ecx+8], 0
  00022	8b 55 fc	 mov	 edx, DWORD PTR _this$[ebp]
  00025	c7 42 0c 00 00
	00 00		 mov	 DWORD PTR [edx+12], 0

; 772  : 		if (_Capacity == 0)

  0002c	83 7d 08 00	 cmp	 DWORD PTR __Capacity$[ebp], 0
  00030	75 04		 jne	 SHORT $L188798

; 773  : 			return (false);

  00032	32 c0		 xor	 al, al
  00034	eb 49		 jmp	 SHORT $L188797
$L188798:

; 774  : 		else if (max_size() < _Capacity)

  00036	8b 4d fc	 mov	 ecx, DWORD PTR _this$[ebp]
  00039	e8 00 00 00 00	 call	 ?max_size@?$vector@UAD_STRUCT@@V?$allocator@UAD_STRUCT@@@std@@@std@@QBEIXZ ; std::vector<AD_STRUCT,std::allocator<AD_STRUCT> >::max_size
  0003e	3b 45 08	 cmp	 eax, DWORD PTR __Capacity$[ebp]
  00041	73 0a		 jae	 SHORT $L188800

; 775  : 			_Xlen();	// result too long

  00043	8b 4d fc	 mov	 ecx, DWORD PTR _this$[ebp]
  00046	e8 00 00 00 00	 call	 ?_Xlen@?$vector@UAD_STRUCT@@V?$allocator@UAD_STRUCT@@@std@@@std@@IBEXXZ ; std::vector<AD_STRUCT,std::allocator<AD_STRUCT> >::_Xlen

; 776  : 		else

  0004b	eb 30		 jmp	 SHORT $L188799
$L188800:

; 777  : 			{	// nonempty array, allocate storage
; 778  : 			_Myfirst = this->_Alval.allocate(_Capacity);

  0004d	8b 45 08	 mov	 eax, DWORD PTR __Capacity$[ebp]
  00050	50		 push	 eax
  00051	8b 4d fc	 mov	 ecx, DWORD PTR _this$[ebp]
  00054	e8 00 00 00 00	 call	 ?allocate@?$allocator@UAD_STRUCT@@@std@@QAEPAUAD_STRUCT@@I@Z ; std::allocator<AD_STRUCT>::allocate
  00059	8b 4d fc	 mov	 ecx, DWORD PTR _this$[ebp]
  0005c	89 41 04	 mov	 DWORD PTR [ecx+4], eax

; 779  : 			_Mylast = _Myfirst;

  0005f	8b 55 fc	 mov	 edx, DWORD PTR _this$[ebp]
  00062	8b 45 fc	 mov	 eax, DWORD PTR _this$[ebp]
  00065	8b 48 04	 mov	 ecx, DWORD PTR [eax+4]
  00068	89 4a 08	 mov	 DWORD PTR [edx+8], ecx

; 780  : 			_Myend = _Myfirst + _Capacity;

  0006b	8b 55 08	 mov	 edx, DWORD PTR __Capacity$[ebp]
  0006e	6b d2 38	 imul	 edx, 56			; 00000038H
  00071	8b 45 fc	 mov	 eax, DWORD PTR _this$[ebp]
  00074	03 50 04	 add	 edx, DWORD PTR [eax+4]
  00077	8b 4d fc	 mov	 ecx, DWORD PTR _this$[ebp]
  0007a	89 51 0c	 mov	 DWORD PTR [ecx+12], edx
$L188799:

; 781  : 			}
; 782  : 		return (true);

  0007d	b0 01		 mov	 al, 1
$L188797:

; 783  : 		}

  0007f	83 c4 04	 add	 esp, 4
  00082	3b ec		 cmp	 ebp, esp
  00084	e8 00 00 00 00	 call	 __RTC_CheckEsp
  00089	8b e5		 mov	 esp, ebp
  0008b	5d		 pop	 ebp
  0008c	c2 04 00	 ret	 4
?_Buy@?$vector@UAD_STRUCT@@V?$allocator@UAD_STRUCT@@@std@@@std@@IAE_NI@Z ENDP ; std::vector<AD_STRUCT,std::allocator<AD_STRUCT> >::_Buy
_TEXT	ENDS
PUBLIC	?deallocate@?$allocator@UAD_STRUCT@@@std@@QAEXPAUAD_STRUCT@@I@Z ; std::allocator<AD_STRUCT>::deallocate
PUBLIC	?_Destroy@?$vector@UAD_STRUCT@@V?$allocator@UAD_STRUCT@@@std@@@std@@IAEXPAUAD_STRUCT@@0@Z ; std::vector<AD_STRUCT,std::allocator<AD_STRUCT> >::_Destroy
; Function compile flags: /Odt /RTCsu
;	COMDAT ?_Tidy@?$vector@UAD_STRUCT@@V?$allocator@UAD_STRUCT@@@std@@@std@@IAEXXZ
_TEXT	SEGMENT
_this$ = -4						; size = 4
?_Tidy@?$vector@UAD_STRUCT@@V?$allocator@UAD_STRUCT@@@std@@@std@@IAEXXZ PROC NEAR ; std::vector<AD_STRUCT,std::allocator<AD_STRUCT> >::_Tidy, COMDAT
; _this$ = ecx

; 791  : 		{	// free all storage

  00000	55		 push	 ebp
  00001	8b ec		 mov	 ebp, esp
  00003	51		 push	 ecx
  00004	c7 45 fc cc cc
	cc cc		 mov	 DWORD PTR [ebp-4], -858993460 ; ccccccccH
  0000b	89 4d fc	 mov	 DWORD PTR _this$[ebp], ecx

; 792  : 		if (_Myfirst != 0)

  0000e	8b 45 fc	 mov	 eax, DWORD PTR _this$[ebp]
  00011	83 78 04 00	 cmp	 DWORD PTR [eax+4], 0
  00015	74 3c		 je	 SHORT $L188804

; 793  : 			{	// something to free, destroy and deallocate it
; 794  : 			_Destroy(_Myfirst, _Mylast);

  00017	8b 4d fc	 mov	 ecx, DWORD PTR _this$[ebp]
  0001a	8b 51 08	 mov	 edx, DWORD PTR [ecx+8]
  0001d	52		 push	 edx
  0001e	8b 45 fc	 mov	 eax, DWORD PTR _this$[ebp]
  00021	8b 48 04	 mov	 ecx, DWORD PTR [eax+4]
  00024	51		 push	 ecx
  00025	8b 4d fc	 mov	 ecx, DWORD PTR _this$[ebp]
  00028	e8 00 00 00 00	 call	 ?_Destroy@?$vector@UAD_STRUCT@@V?$allocator@UAD_STRUCT@@@std@@@std@@IAEXPAUAD_STRUCT@@0@Z ; std::vector<AD_STRUCT,std::allocator<AD_STRUCT> >::_Destroy

; 795  : 			this->_Alval.deallocate(_Myfirst, _Myend - _Myfirst);

  0002d	8b 55 fc	 mov	 edx, DWORD PTR _this$[ebp]
  00030	8b 45 fc	 mov	 eax, DWORD PTR _this$[ebp]
  00033	8b 4a 0c	 mov	 ecx, DWORD PTR [edx+12]
  00036	2b 48 04	 sub	 ecx, DWORD PTR [eax+4]
  00039	8b c1		 mov	 eax, ecx
  0003b	99		 cdq
  0003c	b9 38 00 00 00	 mov	 ecx, 56			; 00000038H
  00041	f7 f9		 idiv	 ecx
  00043	50		 push	 eax
  00044	8b 55 fc	 mov	 edx, DWORD PTR _this$[ebp]
  00047	8b 42 04	 mov	 eax, DWORD PTR [edx+4]
  0004a	50		 push	 eax
  0004b	8b 4d fc	 mov	 ecx, DWORD PTR _this$[ebp]
  0004e	e8 00 00 00 00	 call	 ?deallocate@?$allocator@UAD_STRUCT@@@std@@QAEXPAUAD_STRUCT@@I@Z ; std::allocator<AD_STRUCT>::deallocate
$L188804:

; 796  : 			}
; 797  : 		_Myfirst = 0, _Mylast = 0, _Myend = 0;

  00053	8b 4d fc	 mov	 ecx, DWORD PTR _this$[ebp]
  00056	c7 41 04 00 00
	00 00		 mov	 DWORD PTR [ecx+4], 0
  0005d	8b 55 fc	 mov	 edx, DWORD PTR _this$[ebp]
  00060	c7 42 08 00 00
	00 00		 mov	 DWORD PTR [edx+8], 0
  00067	8b 45 fc	 mov	 eax, DWORD PTR _this$[ebp]
  0006a	c7 40 0c 00 00
	00 00		 mov	 DWORD PTR [eax+12], 0

; 798  : 		}

  00071	83 c4 04	 add	 esp, 4
  00074	3b ec		 cmp	 ebp, esp
  00076	e8 00 00 00 00	 call	 __RTC_CheckEsp
  0007b	8b e5		 mov	 esp, ebp
  0007d	5d		 pop	 ebp
  0007e	c3		 ret	 0
?_Tidy@?$vector@UAD_STRUCT@@V?$allocator@UAD_STRUCT@@@std@@@std@@IAEXXZ ENDP ; std::vector<AD_STRUCT,std::allocator<AD_STRUCT> >::_Tidy
_TEXT	ENDS
PUBLIC	??$_Uninitialized_fill_n@PAUAD_STRUCT@@IU1@V?$allocator@UAD_STRUCT@@@std@@@std@@YAXPAUAD_STRUCT@@IABU1@AAV?$allocator@UAD_STRUCT@@@0@@Z ; std::_Uninitialized_fill_n<AD_STRUCT *,unsigned int,AD_STRUCT,std::allocator<AD_STRUCT> >
; Function compile flags: /Odt /RTCsu
;	COMDAT ?_Ufill@?$vector@UAD_STRUCT@@V?$allocator@UAD_STRUCT@@@std@@@std@@IAEPAUAD_STRUCT@@PAU3@IABU3@@Z
_TEXT	SEGMENT
_this$ = -4						; size = 4
__Ptr$ = 8						; size = 4
__Count$ = 12						; size = 4
__Val$ = 16						; size = 4
?_Ufill@?$vector@UAD_STRUCT@@V?$allocator@UAD_STRUCT@@@std@@@std@@IAEPAUAD_STRUCT@@PAU3@IABU3@@Z PROC NEAR ; std::vector<AD_STRUCT,std::allocator<AD_STRUCT> >::_Ufill, COMDAT
; _this$ = ecx

; 877  : 		{	// copy initializing _Count * _Val, using allocator

  00000	55		 push	 ebp
  00001	8b ec		 mov	 ebp, esp
  00003	51		 push	 ecx
  00004	c7 45 fc cc cc
	cc cc		 mov	 DWORD PTR [ebp-4], -858993460 ; ccccccccH
  0000b	89 4d fc	 mov	 DWORD PTR _this$[ebp], ecx

; 878  : 		_Uninitialized_fill_n(_Ptr, _Count, _Val, this->_Alval);

  0000e	8b 45 fc	 mov	 eax, DWORD PTR _this$[ebp]
  00011	50		 push	 eax
  00012	8b 4d 10	 mov	 ecx, DWORD PTR __Val$[ebp]
  00015	51		 push	 ecx
  00016	8b 55 0c	 mov	 edx, DWORD PTR __Count$[ebp]
  00019	52		 push	 edx
  0001a	8b 45 08	 mov	 eax, DWORD PTR __Ptr$[ebp]
  0001d	50		 push	 eax
  0001e	e8 00 00 00 00	 call	 ??$_Uninitialized_fill_n@PAUAD_STRUCT@@IU1@V?$allocator@UAD_STRUCT@@@std@@@std@@YAXPAUAD_STRUCT@@IABU1@AAV?$allocator@UAD_STRUCT@@@0@@Z ; std::_Uninitialized_fill_n<AD_STRUCT *,unsigned int,AD_STRUCT,std::allocator<AD_STRUCT> >
  00023	83 c4 10	 add	 esp, 16			; 00000010H

; 879  : 		return (_Ptr + _Count);

  00026	8b 45 0c	 mov	 eax, DWORD PTR __Count$[ebp]
  00029	6b c0 38	 imul	 eax, 56			; 00000038H
  0002c	03 45 08	 add	 eax, DWORD PTR __Ptr$[ebp]

; 880  : 		}

  0002f	83 c4 04	 add	 esp, 4
  00032	3b ec		 cmp	 ebp, esp
  00034	e8 00 00 00 00	 call	 __RTC_CheckEsp
  00039	8b e5		 mov	 esp, ebp
  0003b	5d		 pop	 ebp
  0003c	c2 0c 00	 ret	 12			; 0000000cH
?_Ufill@?$vector@UAD_STRUCT@@V?$allocator@UAD_STRUCT@@@std@@@std@@IAEPAUAD_STRUCT@@PAU3@IABU3@@Z ENDP ; std::vector<AD_STRUCT,std::allocator<AD_STRUCT> >::_Ufill
_TEXT	ENDS
PUBLIC	??0?$allocator@UAD_STRUCT@@@std@@QAE@ABV01@@Z	; std::allocator<AD_STRUCT>::allocator<AD_STRUCT>
; Function compile flags: /Odt /RTCsu
;	COMDAT ??0?$_Vector_val@UAD_STRUCT@@V?$allocator@UAD_STRUCT@@@std@@@std@@IAE@V?$allocator@UAD_STRUCT@@@1@@Z
_TEXT	SEGMENT
_this$ = -4						; size = 4
__Al$ = 8						; size = 1
??0?$_Vector_val@UAD_STRUCT@@V?$allocator@UAD_STRUCT@@@std@@@std@@IAE@V?$allocator@UAD_STRUCT@@@1@@Z PROC NEAR ; std::_Vector_val<AD_STRUCT,std::allocator<AD_STRUCT> >::_Vector_val<AD_STRUCT,std::allocator<AD_STRUCT> >, COMDAT
; _this$ = ecx

; 21   : 		{	// construct allocator from _Al

  00000	55		 push	 ebp
  00001	8b ec		 mov	 ebp, esp
  00003	51		 push	 ecx
  00004	c7 45 fc cc cc
	cc cc		 mov	 DWORD PTR [ebp-4], -858993460 ; ccccccccH
  0000b	89 4d fc	 mov	 DWORD PTR _this$[ebp], ecx
  0000e	8d 45 08	 lea	 eax, DWORD PTR __Al$[ebp]
  00011	50		 push	 eax
  00012	8b 4d fc	 mov	 ecx, DWORD PTR _this$[ebp]
  00015	e8 00 00 00 00	 call	 ??0?$allocator@UAD_STRUCT@@@std@@QAE@ABV01@@Z ; std::allocator<AD_STRUCT>::allocator<AD_STRUCT>

; 22   : 		}

  0001a	8b 45 fc	 mov	 eax, DWORD PTR _this$[ebp]
  0001d	83 c4 04	 add	 esp, 4
  00020	3b ec		 cmp	 ebp, esp
  00022	e8 00 00 00 00	 call	 __RTC_CheckEsp
  00027	8b e5		 mov	 esp, ebp
  00029	5d		 pop	 ebp
  0002a	c2 04 00	 ret	 4
??0?$_Vector_val@UAD_STRUCT@@V?$allocator@UAD_STRUCT@@@std@@@std@@IAE@V?$allocator@UAD_STRUCT@@@1@@Z ENDP ; std::_Vector_val<AD_STRUCT,std::allocator<AD_STRUCT> >::_Vector_val<AD_STRUCT,std::allocator<AD_STRUCT> >
; Function compile flags: /Odt /RTCsu
; File d:\program files (x86)\microsoft visual studio .net 2003\vc7\include\xmemory
_TEXT	ENDS
;	COMDAT ??0?$allocator@UAD_STRUCT@@@std@@QAE@XZ
_TEXT	SEGMENT
_this$ = -4						; size = 4
??0?$allocator@UAD_STRUCT@@@std@@QAE@XZ PROC NEAR	; std::allocator<AD_STRUCT>::allocator<AD_STRUCT>, COMDAT
; _this$ = ecx

; 111  : 	allocator()

  00000	55		 push	 ebp
  00001	8b ec		 mov	 ebp, esp
  00003	51		 push	 ecx
  00004	c7 45 fc cc cc
	cc cc		 mov	 DWORD PTR [ebp-4], -858993460 ; ccccccccH
  0000b	89 4d fc	 mov	 DWORD PTR _this$[ebp], ecx

; 112  : 		{	// construct default allocator (do nothing)
; 113  : 		}

  0000e	8b 45 fc	 mov	 eax, DWORD PTR _this$[ebp]
  00011	8b e5		 mov	 esp, ebp
  00013	5d		 pop	 ebp
  00014	c3		 ret	 0
??0?$allocator@UAD_STRUCT@@@std@@QAE@XZ ENDP		; std::allocator<AD_STRUCT>::allocator<AD_STRUCT>
; Function compile flags: /Odt /RTCsu
; File d:\program files (x86)\microsoft visual studio .net 2003\vc7\include\list
_TEXT	ENDS
;	COMDAT ?_Nextnode@?$list@PAVIMessageObserver@@V?$allocator@PAVIMessageObserver@@@std@@@std@@KAAAPAU_Node@?$_List_nod@PAVIMessageObserver@@V?$allocator@PAVIMessageObserver@@@std@@@2@PAU342@@Z
_TEXT	SEGMENT
__Pnode$ = 8						; size = 4
?_Nextnode@?$list@PAVIMessageObserver@@V?$allocator@PAVIMessageObserver@@@std@@@std@@KAAAPAU_Node@?$_List_nod@PAVIMessageObserver@@V?$allocator@PAVIMessageObserver@@@std@@@2@PAU342@@Z PROC NEAR ; std::list<IMessageObserver *,std::allocator<IMessageObserver *> >::_Nextnode, COMDAT

; 107  : 		{	// return reference to successor pointer in node

  00000	55		 push	 ebp
  00001	8b ec		 mov	 ebp, esp

; 108  : 		return ((_Nodepref)(*_Pnode)._Next);

  00003	8b 45 08	 mov	 eax, DWORD PTR __Pnode$[ebp]

; 109  : 		}

  00006	5d		 pop	 ebp
  00007	c3		 ret	 0
?_Nextnode@?$list@PAVIMessageObserver@@V?$allocator@PAVIMessageObserver@@@std@@@std@@KAAAPAU_Node@?$_List_nod@PAVIMessageObserver@@V?$allocator@PAVIMessageObserver@@@std@@@2@PAU342@@Z ENDP ; std::list<IMessageObserver *,std::allocator<IMessageObserver *> >::_Nextnode
_TEXT	ENDS
PUBLIC	?deallocate@?$allocator@U_Node@?$_List_nod@PAVIMessageObserver@@V?$allocator@PAVIMessageObserver@@@std@@@std@@@std@@QAEXPAU_Node@?$_List_nod@PAVIMessageObserver@@V?$allocator@PAVIMessageObserver@@@std@@@2@I@Z ; std::allocator<std::_List_nod<IMessageObserver *,std::allocator<IMessageObserver *> >::_Node>::deallocate
PUBLIC	?allocate@?$allocator@U_Node@?$_List_nod@PAVIMessageObserver@@V?$allocator@PAVIMessageObserver@@@std@@@std@@@std@@QAEPAU_Node@?$_List_nod@PAVIMessageObserver@@V?$allocator@PAVIMessageObserver@@@std@@@2@I@Z ; std::allocator<std::_List_nod<IMessageObserver *,std::allocator<IMessageObserver *> >::_Node>::allocate
PUBLIC	?construct@?$allocator@PAU_Node@?$_List_nod@PAVIMessageObserver@@V?$allocator@PAVIMessageObserver@@@std@@@std@@@std@@QAEXPAPAU_Node@?$_List_nod@PAVIMessageObserver@@V?$allocator@PAVIMessageObserver@@@std@@@2@ABQAU342@@Z ; std::allocator<std::_List_nod<IMessageObserver *,std::allocator<IMessageObserver *> >::_Node *>::construct
PUBLIC	?destroy@?$allocator@PAU_Node@?$_List_nod@PAVIMessageObserver@@V?$allocator@PAVIMessageObserver@@@std@@@std@@@std@@QAEXPAPAU_Node@?$_List_nod@PAVIMessageObserver@@V?$allocator@PAVIMessageObserver@@@std@@@2@@Z ; std::allocator<std::_List_nod<IMessageObserver *,std::allocator<IMessageObserver *> >::_Node *>::destroy
PUBLIC	?_Prevnode@?$list@PAVIMessageObserver@@V?$allocator@PAVIMessageObserver@@@std@@@std@@KAAAPAU_Node@?$_List_nod@PAVIMessageObserver@@V?$allocator@PAVIMessageObserver@@@std@@@2@PAU342@@Z ; std::list<IMessageObserver *,std::allocator<IMessageObserver *> >::_Prevnode
EXTRN	__CxxThrowException@8:NEAR
;	COMDAT xdata$x
xdata$x	SEGMENT
$T190217 DD	0ffffffffH
	DD	00H
	DD	0ffffffffH
	DD	00H
$T190219 DD	00H
	DD	00H
	DD	00H
	DD	FLAT:$L190210
$T190218 DD	00H
	DD	00H
	DD	01H
	DD	01H
	DD	FLAT:$T190219
$T190212 DD	019930520H
	DD	02H
	DD	FLAT:$T190217
	DD	01H
	DD	FLAT:$T190218
	DD	2 DUP(00H)
; Function compile flags: /Odt /RTCsu
xdata$x	ENDS
;	COMDAT ?_Buynode@?$list@PAVIMessageObserver@@V?$allocator@PAVIMessageObserver@@@std@@@std@@IAEPAU_Node@?$_List_nod@PAVIMessageObserver@@V?$allocator@PAVIMessageObserver@@@std@@@2@XZ
_TEXT	SEGMENT
tv93 = -44						; size = 4
tv92 = -40						; size = 4
__Linkcnt$ = -36					; size = 4
__Pnode$ = -28						; size = 4
_this$ = -20						; size = 4
__$EHRec$ = -16						; size = 16
?_Buynode@?$list@PAVIMessageObserver@@V?$allocator@PAVIMessageObserver@@@std@@@std@@IAEPAU_Node@?$_List_nod@PAVIMessageObserver@@V?$allocator@PAVIMessageObserver@@@std@@@2@XZ PROC NEAR ; std::list<IMessageObserver *,std::allocator<IMessageObserver *> >::_Buynode, COMDAT
; _this$ = ecx

; 898  : 		{	// allocate a head node and set links

  00000	55		 push	 ebp
  00001	8b ec		 mov	 ebp, esp
  00003	6a ff		 push	 -1
  00005	68 00 00 00 00	 push	 __ehhandler$?_Buynode@?$list@PAVIMessageObserver@@V?$allocator@PAVIMessageObserver@@@std@@@std@@IAEPAU_Node@?$_List_nod@PAVIMessageObserver@@V?$allocator@PAVIMessageObserver@@@std@@@2@XZ
  0000a	64 a1 00 00 00
	00		 mov	 eax, DWORD PTR fs:__except_list
  00010	50		 push	 eax
  00011	64 89 25 00 00
	00 00		 mov	 DWORD PTR fs:__except_list, esp
  00018	51		 push	 ecx
  00019	83 ec 1c	 sub	 esp, 28			; 0000001cH
  0001c	53		 push	 ebx
  0001d	56		 push	 esi
  0001e	57		 push	 edi
  0001f	b8 cc cc cc cc	 mov	 eax, -858993460		; ccccccccH
  00024	89 45 d4	 mov	 DWORD PTR [ebp-44], eax
  00027	89 45 d8	 mov	 DWORD PTR [ebp-40], eax
  0002a	89 45 dc	 mov	 DWORD PTR [ebp-36], eax
  0002d	89 45 e0	 mov	 DWORD PTR [ebp-32], eax
  00030	89 45 e4	 mov	 DWORD PTR [ebp-28], eax
  00033	89 45 e8	 mov	 DWORD PTR [ebp-24], eax
  00036	89 45 ec	 mov	 DWORD PTR [ebp-20], eax
  00039	89 65 f0	 mov	 DWORD PTR __$EHRec$[ebp], esp
  0003c	89 4d ec	 mov	 DWORD PTR _this$[ebp], ecx

; 899  : 		_Nodeptr _Pnode = this->_Alnod.allocate(1);

  0003f	6a 01		 push	 1
  00041	8b 4d ec	 mov	 ecx, DWORD PTR _this$[ebp]
  00044	e8 00 00 00 00	 call	 ?allocate@?$allocator@U_Node@?$_List_nod@PAVIMessageObserver@@V?$allocator@PAVIMessageObserver@@@std@@@std@@@std@@QAEPAU_Node@?$_List_nod@PAVIMessageObserver@@V?$allocator@PAVIMessageObserver@@@std@@@2@I@Z ; std::allocator<std::_List_nod<IMessageObserver *,std::allocator<IMessageObserver *> >::_Node>::allocate
  00049	89 45 e4	 mov	 DWORD PTR __Pnode$[ebp], eax

; 900  : 		int _Linkcnt = 0;

  0004c	c7 45 dc 00 00
	00 00		 mov	 DWORD PTR __Linkcnt$[ebp], 0

; 901  : 
; 902  : 		_TRY_BEGIN

  00053	c7 45 fc 00 00
	00 00		 mov	 DWORD PTR __$EHRec$[ebp+12], 0

; 903  : 		this->_Alptr.construct(&_Nextnode(_Pnode), _Pnode);

  0005a	8b 45 e4	 mov	 eax, DWORD PTR __Pnode$[ebp]
  0005d	50		 push	 eax
  0005e	e8 00 00 00 00	 call	 ?_Nextnode@?$list@PAVIMessageObserver@@V?$allocator@PAVIMessageObserver@@@std@@@std@@KAAAPAU_Node@?$_List_nod@PAVIMessageObserver@@V?$allocator@PAVIMessageObserver@@@std@@@2@PAU342@@Z ; std::list<IMessageObserver *,std::allocator<IMessageObserver *> >::_Nextnode
  00063	83 c4 04	 add	 esp, 4
  00066	89 45 d8	 mov	 DWORD PTR tv92[ebp], eax
  00069	8d 4d e4	 lea	 ecx, DWORD PTR __Pnode$[ebp]
  0006c	51		 push	 ecx
  0006d	8b 55 d8	 mov	 edx, DWORD PTR tv92[ebp]
  00070	52		 push	 edx
  00071	8b 4d ec	 mov	 ecx, DWORD PTR _this$[ebp]
  00074	83 c1 01	 add	 ecx, 1
  00077	e8 00 00 00 00	 call	 ?construct@?$allocator@PAU_Node@?$_List_nod@PAVIMessageObserver@@V?$allocator@PAVIMessageObserver@@@std@@@std@@@std@@QAEXPAPAU_Node@?$_List_nod@PAVIMessageObserver@@V?$allocator@PAVIMessageObserver@@@std@@@2@ABQAU342@@Z ; std::allocator<std::_List_nod<IMessageObserver *,std::allocator<IMessageObserver *> >::_Node *>::construct

; 904  : 		++_Linkcnt;

  0007c	8b 45 dc	 mov	 eax, DWORD PTR __Linkcnt$[ebp]
  0007f	83 c0 01	 add	 eax, 1
  00082	89 45 dc	 mov	 DWORD PTR __Linkcnt$[ebp], eax

; 905  : 		this->_Alptr.construct(&_Prevnode(_Pnode), _Pnode);

  00085	8b 4d e4	 mov	 ecx, DWORD PTR __Pnode$[ebp]
  00088	51		 push	 ecx
  00089	e8 00 00 00 00	 call	 ?_Prevnode@?$list@PAVIMessageObserver@@V?$allocator@PAVIMessageObserver@@@std@@@std@@KAAAPAU_Node@?$_List_nod@PAVIMessageObserver@@V?$allocator@PAVIMessageObserver@@@std@@@2@PAU342@@Z ; std::list<IMessageObserver *,std::allocator<IMessageObserver *> >::_Prevnode
  0008e	83 c4 04	 add	 esp, 4
  00091	89 45 d4	 mov	 DWORD PTR tv93[ebp], eax
  00094	8d 55 e4	 lea	 edx, DWORD PTR __Pnode$[ebp]
  00097	52		 push	 edx
  00098	8b 45 d4	 mov	 eax, DWORD PTR tv93[ebp]
  0009b	50		 push	 eax
  0009c	8b 4d ec	 mov	 ecx, DWORD PTR _this$[ebp]
  0009f	83 c1 01	 add	 ecx, 1
  000a2	e8 00 00 00 00	 call	 ?construct@?$allocator@PAU_Node@?$_List_nod@PAVIMessageObserver@@V?$allocator@PAVIMessageObserver@@@std@@@std@@@std@@QAEXPAPAU_Node@?$_List_nod@PAVIMessageObserver@@V?$allocator@PAVIMessageObserver@@@std@@@2@ABQAU342@@Z ; std::allocator<std::_List_nod<IMessageObserver *,std::allocator<IMessageObserver *> >::_Node *>::construct
  000a7	eb 35		 jmp	 SHORT $L190209
$L190210:

; 906  : 		_CATCH_ALL
; 907  : 		if (0 < _Linkcnt)

  000a9	83 7d dc 00	 cmp	 DWORD PTR __Linkcnt$[ebp], 0
  000ad	7e 18		 jle	 SHORT $L188840

; 908  : 			this->_Alptr.destroy(&_Nextnode(_Pnode));

  000af	8b 4d e4	 mov	 ecx, DWORD PTR __Pnode$[ebp]
  000b2	51		 push	 ecx
