; Listing generated by Microsoft (R) Optimizing Compiler Version 13.10.3077 

	TITLE	.\src\LayoutMgr\ChangeColor\DownloadPercentWnd.cpp
	.386P
include listing.inc
if @Version gt 510
.model FLAT
else
_TEXT	SEGMENT PARA USE32 PUBLIC 'CODE'
_TEXT	ENDS
_DATA	SEGMENT DWORD USE32 PUBLIC 'DATA'
_DATA	ENDS
CONST	SEGMENT DWORD USE32 PUBLIC 'CONST'
CONST	ENDS
_BSS	SEGMENT DWORD USE32 PUBLIC 'BSS'
_BSS	ENDS
$$SYMBOLS	SEGMENT BYTE USE32 'DEBSYM'
$$SYMBOLS	ENDS
_TLS	SEGMENT DWORD USE32 PUBLIC 'TLS'
_TLS	ENDS
;	COMDAT ??_C@_0FC@OGIBLEP@d?3?2boxgit?2playbox?2playbox?2dev?2pr@
CONST	SEGMENT DWORD USE32 PUBLIC 'CONST'
CONST	ENDS
;	COMDAT ??_C@_0EN@IBFBLEEG@D?3?2Program?5Files?5?$CIx86?$CJ?2Microsoft@
CONST	SEGMENT DWORD USE32 PUBLIC 'CONST'
CONST	ENDS
rdata$r	SEGMENT DWORD USE32 PUBLIC 'CONST'
rdata$r	ENDS
xdata$x	SEGMENT DWORD USE32 PUBLIC 'CONST'
xdata$x	ENDS
text$AFX_COL1	SEGMENT PARA USE32 PUBLIC ''
text$AFX_COL1	ENDS
text$yc	SEGMENT PARA USE32 PUBLIC 'CODE'
text$yc	ENDS
CRT$XCA	SEGMENT DWORD USE32 PUBLIC 'DATA'
CRT$XCA	ENDS
CRT$XCU	SEGMENT DWORD USE32 PUBLIC 'DATA'
CRT$XCU	ENDS
CRT$XCL	SEGMENT DWORD USE32 PUBLIC 'DATA'
CRT$XCL	ENDS
CRT$XCC	SEGMENT DWORD USE32 PUBLIC 'DATA'
CRT$XCC	ENDS
CRT$XCZ	SEGMENT DWORD USE32 PUBLIC 'DATA'
CRT$XCZ	ENDS
text$yd	SEGMENT PARA USE32 PUBLIC 'CODE'
text$yd	ENDS
ATL$__m	SEGMENT DWORD USE32 PUBLIC ''
ATL$__m	ENDS
ATL$__z	SEGMENT DWORD USE32 PUBLIC ''
ATL$__z	ENDS
ATL$__a	SEGMENT DWORD USE32 PUBLIC ''
ATL$__a	ENDS
;	COMDAT ??1HTTPObserver@@UAE@XZ
_TEXT	SEGMENT PARA USE32 PUBLIC 'CODE'
_TEXT	ENDS
;	COMDAT ?HTTPOb_DownStart@HTTPObserver@@UAEXPBD0I@Z
_TEXT	SEGMENT PARA USE32 PUBLIC 'CODE'
_TEXT	ENDS
;	COMDAT ?HTTPOb_DownFinish@HTTPObserver@@UAEXPBD@Z
_TEXT	SEGMENT PARA USE32 PUBLIC 'CODE'
_TEXT	ENDS
;	COMDAT ?HTTPOb_DownFailed@HTTPObserver@@UAEXPBDW4HTTP_DOWN_FAILED_REASON@@@Z
_TEXT	SEGMENT PARA USE32 PUBLIC 'CODE'
_TEXT	ENDS
;	COMDAT ?HTTPOb_DownProgress@HTTPObserver@@UAEXPBDII@Z
_TEXT	SEGMENT PARA USE32 PUBLIC 'CODE'
_TEXT	ENDS
;	COMDAT ?HTTPOb_DownloadPause@HTTPObserver@@UAEXPBD@Z
_TEXT	SEGMENT PARA USE32 PUBLIC 'CODE'
_TEXT	ENDS
;	COMDAT ??_GHTTPObserver@@UAEPAXI@Z
_TEXT	SEGMENT PARA USE32 PUBLIC 'CODE'
_TEXT	ENDS
;	COMDAT ??1CGdiPlusBitmap@CSkinButton@@UAE@XZ
_TEXT	SEGMENT PARA USE32 PUBLIC 'CODE'
_TEXT	ENDS
;	COMDAT ?Empty@CGdiPlusBitmap@CSkinButton@@QAEXXZ
_TEXT	SEGMENT PARA USE32 PUBLIC 'CODE'
_TEXT	ENDS
;	COMDAT ?Load@CGdiPlusBitmap@CSkinButton@@QAE_NPB_W@Z
_TEXT	SEGMENT PARA USE32 PUBLIC 'CODE'
_TEXT	ENDS
;	COMDAT ??_GCGdiPlusBitmap@CSkinButton@@UAEPAXI@Z
_TEXT	SEGMENT PARA USE32 PUBLIC 'CODE'
_TEXT	ENDS
;	COMDAT ??1DIBINFO@@UAE@XZ
_TEXT	SEGMENT PARA USE32 PUBLIC 'CODE'
_TEXT	ENDS
;	COMDAT ??_GDIBINFO@@UAEPAXI@Z
_TEXT	SEGMENT PARA USE32 PUBLIC 'CODE'
_TEXT	ENDS
;	COMDAT ??0BaseColor@@QAE@XZ
_TEXT	SEGMENT PARA USE32 PUBLIC 'CODE'
_TEXT	ENDS
;	COMDAT ??1BaseColor@@QAE@XZ
_TEXT	SEGMENT PARA USE32 PUBLIC 'CODE'
_TEXT	ENDS
;	COMDAT ??_GBaseColor@@QAEPAXI@Z
_TEXT	SEGMENT PARA USE32 PUBLIC 'CODE'
_TEXT	ENDS
;	COMDAT ??_GCDownloadPercentWnd@@UAEPAXI@Z
_TEXT	SEGMENT PARA USE32 PUBLIC 'CODE'
_TEXT	ENDS
;	COMDAT ??B?$CComPtrBase@UITypeInfo2@@@ATL@@QBEPAUITypeInfo2@@XZ
_TEXT	SEGMENT PARA USE32 PUBLIC 'CODE'
_TEXT	ENDS
;	COMDAT ?equal@?$istreambuf_iterator@DU?$char_traits@D@std@@@std@@QBE_NABV12@@Z
_TEXT	SEGMENT PARA USE32 PUBLIC 'CODE'
_TEXT	ENDS
;	COMDAT ?equal@?$istreambuf_iterator@_WU?$char_traits@_W@std@@@std@@QBE_NABV12@@Z
_TEXT	SEGMENT PARA USE32 PUBLIC 'CODE'
_TEXT	ENDS
;	COMDAT ?Unlock@?$CComCritSecLock@VCComCriticalSection@ATL@@@ATL@@QAEXXZ
_TEXT	SEGMENT PARA USE32 PUBLIC 'CODE'
_TEXT	ENDS
;	COMDAT ??$_Maklocstr@D@std@@YAPADPBDPADABU_Cvtvec@@@Z
_TEXT	SEGMENT PARA USE32 PUBLIC 'CODE'
_TEXT	ENDS
;	COMDAT ??_R3CGdiPlusBitmap@CSkinButton@@8
rdata$r	SEGMENT DWORD USE32 PUBLIC 'CONST'
rdata$r	ENDS
;	COMDAT ??_R3CDownloadPercentWnd@@8
rdata$r	SEGMENT DWORD USE32 PUBLIC 'CONST'
rdata$r	ENDS
;	COMDAT ??_R3?$numpunct@_W@std@@8
rdata$r	SEGMENT DWORD USE32 PUBLIC 'CONST'
rdata$r	ENDS
;	COMDAT ??_R3?$numpunct@D@std@@8
rdata$r	SEGMENT DWORD USE32 PUBLIC 'CONST'
rdata$r	ENDS
;	COMDAT ??_R3DIBINFO@@8
rdata$r	SEGMENT DWORD USE32 PUBLIC 'CONST'
rdata$r	ENDS
;	COMDAT ??_R3HTTPObserver@@8
rdata$r	SEGMENT DWORD USE32 PUBLIC 'CONST'
rdata$r	ENDS
;	COMDAT ??_R2CGdiPlusBitmap@CSkinButton@@8
rdata$r	SEGMENT DWORD USE32 PUBLIC 'CONST'
rdata$r	ENDS
;	COMDAT ??_R2CDownloadPercentWnd@@8
rdata$r	SEGMENT DWORD USE32 PUBLIC 'CONST'
rdata$r	ENDS
;	COMDAT ??_R2?$numpunct@_W@std@@8
rdata$r	SEGMENT DWORD USE32 PUBLIC 'CONST'
rdata$r	ENDS
;	COMDAT ??_R2?$numpunct@D@std@@8
rdata$r	SEGMENT DWORD USE32 PUBLIC 'CONST'
rdata$r	ENDS
;	COMDAT ??_R2DIBINFO@@8
rdata$r	SEGMENT DWORD USE32 PUBLIC 'CONST'
rdata$r	ENDS
;	COMDAT ??_R2HTTPObserver@@8
rdata$r	SEGMENT DWORD USE32 PUBLIC 'CONST'
rdata$r	ENDS
;	COMDAT ??_R1A@?0A@A@CGdiPlusBitmap@CSkinButton@@8
rdata$r	SEGMENT DWORD USE32 PUBLIC 'CONST'
rdata$r	ENDS
;	COMDAT ??_R1A@?0A@A@CObject@@8
rdata$r	SEGMENT DWORD USE32 PUBLIC 'CONST'
rdata$r	ENDS
;	COMDAT ??_R0?AVCObject@@@8
_DATA	SEGMENT DWORD USE32 PUBLIC 'DATA'
_DATA	ENDS
;	COMDAT ??_R1A@?0A@A@CCmdTarget@@8
rdata$r	SEGMENT DWORD USE32 PUBLIC 'CONST'
rdata$r	ENDS
;	COMDAT ??_R0?AVCCmdTarget@@@8
_DATA	SEGMENT DWORD USE32 PUBLIC 'DATA'
_DATA	ENDS
;	COMDAT ??_R1A@?0A@A@CWnd@@8
rdata$r	SEGMENT DWORD USE32 PUBLIC 'CONST'
rdata$r	ENDS
;	COMDAT ??_R0?AVCWnd@@@8
_DATA	SEGMENT DWORD USE32 PUBLIC 'DATA'
_DATA	ENDS
;	COMDAT ??_R1A@?0A@A@CDownloadPercentWnd@@8
rdata$r	SEGMENT DWORD USE32 PUBLIC 'CONST'
rdata$r	ENDS
;	COMDAT ??_R1A@?0A@A@?$numpunct@_W@std@@8
rdata$r	SEGMENT DWORD USE32 PUBLIC 'CONST'
rdata$r	ENDS
;	COMDAT ??_R1A@?0A@A@facet@locale@std@@8
rdata$r	SEGMENT DWORD USE32 PUBLIC 'CONST'
rdata$r	ENDS
;	COMDAT ??_R0?AVfacet@locale@std@@@8
_DATA	SEGMENT DWORD USE32 PUBLIC 'DATA'
_DATA	ENDS
;	COMDAT ??_R1A@?0A@A@?$numpunct@D@std@@8
rdata$r	SEGMENT DWORD USE32 PUBLIC 'CONST'
rdata$r	ENDS
;	COMDAT ??_R1A@?0A@A@DIBINFO@@8
rdata$r	SEGMENT DWORD USE32 PUBLIC 'CONST'
rdata$r	ENDS
;	COMDAT ??_R1A@?0A@A@HTTPObserver@@8
rdata$r	SEGMENT DWORD USE32 PUBLIC 'CONST'
rdata$r	ENDS
;	COMDAT ??_R0?AVCGdiPlusBitmap@CSkinButton@@@8
_DATA	SEGMENT DWORD USE32 PUBLIC 'DATA'
_DATA	ENDS
;	COMDAT ??_R0?AVCDownloadPercentWnd@@@8
_DATA	SEGMENT DWORD USE32 PUBLIC 'DATA'
_DATA	ENDS
;	COMDAT ??_R0?AV?$numpunct@_W@std@@@8
_DATA	SEGMENT DWORD USE32 PUBLIC 'DATA'
_DATA	ENDS
;	COMDAT ??_R0?AV?$numpunct@D@std@@@8
_DATA	SEGMENT DWORD USE32 PUBLIC 'DATA'
_DATA	ENDS
;	COMDAT ??_R0?AVDIBINFO@@@8
_DATA	SEGMENT DWORD USE32 PUBLIC 'DATA'
_DATA	ENDS
;	COMDAT ??_R0?AVHTTPObserver@@@8
_DATA	SEGMENT DWORD USE32 PUBLIC 'DATA'
_DATA	ENDS
;	COMDAT ??_R4CGdiPlusBitmap@CSkinButton@@6B@
rdata$r	SEGMENT DWORD USE32 PUBLIC 'CONST'
rdata$r	ENDS
;	COMDAT ??_R4CDownloadPercentWnd@@6B@
rdata$r	SEGMENT DWORD USE32 PUBLIC 'CONST'
rdata$r	ENDS
;	COMDAT ??0?$allocator@_W@std@@QAE@XZ
_TEXT	SEGMENT PARA USE32 PUBLIC 'CODE'
_TEXT	ENDS
;	COMDAT ??0?$allocator@D@std@@QAE@ABV01@@Z
_TEXT	SEGMENT PARA USE32 PUBLIC 'CODE'
_TEXT	ENDS
;	COMDAT ??0?$allocator@D@std@@QAE@XZ
_TEXT	SEGMENT PARA USE32 PUBLIC 'CODE'
_TEXT	ENDS
;	COMDAT ?deallocate@?$allocator@D@std@@QAEXPADI@Z
_TEXT	SEGMENT PARA USE32 PUBLIC 'CODE'
_TEXT	ENDS
;	COMDAT ?max_size@?$allocator@D@std@@QBEIXZ
_TEXT	SEGMENT PARA USE32 PUBLIC 'CODE'
_TEXT	ENDS
;	COMDAT ?allocate@?$allocator@D@std@@QAEPADI@Z
_TEXT	SEGMENT PARA USE32 PUBLIC 'CODE'
_TEXT	ENDS
;	COMDAT ??$_Allocate@D@std@@YAPADIPAD@Z
_TEXT	SEGMENT PARA USE32 PUBLIC 'CODE'
_TEXT	ENDS
;	COMDAT ??_G?$numpunct@_W@std@@MAEPAXI@Z
_TEXT	SEGMENT PARA USE32 PUBLIC 'CODE'
_TEXT	ENDS
;	COMDAT ??_R4?$numpunct@_W@std@@6B@
rdata$r	SEGMENT DWORD USE32 PUBLIC 'CONST'
rdata$r	ENDS
;	COMDAT ??_G?$numpunct@D@std@@MAEPAXI@Z
_TEXT	SEGMENT PARA USE32 PUBLIC 'CODE'
_TEXT	ENDS
;	COMDAT ??_R4?$numpunct@D@std@@6B@
rdata$r	SEGMENT DWORD USE32 PUBLIC 'CONST'
rdata$r	ENDS
;	COMDAT ??_R4DIBINFO@@6B@
rdata$r	SEGMENT DWORD USE32 PUBLIC 'CONST'
rdata$r	ENDS
;	COMDAT ??_R4HTTPObserver@@6B@
rdata$r	SEGMENT DWORD USE32 PUBLIC 'CONST'
rdata$r	ENDS
;	COMDAT ??_C@_0EN@CBMLGOH@D?3?2Program?5Files?5?$CIx86?$CJ?2Microsoft@
CONST	SEGMENT DWORD USE32 PUBLIC 'CONST'
CONST	ENDS
;	COMDAT ?_Psave@?$_Facetptr@V?$numpunct@_W@std@@@std@@2PBVfacet@locale@2@B
_DATA	SEGMENT DWORD USE32 PUBLIC 'DATA'
_DATA	ENDS
;	COMDAT ?_Psave@?$_Facetptr@V?$numpunct@D@std@@@std@@2PBVfacet@locale@2@B
_DATA	SEGMENT DWORD USE32 PUBLIC 'DATA'
_DATA	ENDS
;	COMDAT ?Unlock@CComCriticalSection@ATL@@QAEJXZ
_TEXT	SEGMENT PARA USE32 PUBLIC 'CODE'
_TEXT	ENDS
;	COMDAT ??_C@_0FG@LDNDNCJM@D?3?2Program?5Files?5?$CIx86?$CJ?2Microsoft@
CONST	SEGMENT DWORD USE32 PUBLIC 'CONST'
CONST	ENDS
;	COMDAT ??_C@_09HIEJFN@m_bLocked?$AA@
CONST	SEGMENT DWORD USE32 PUBLIC 'CONST'
CONST	ENDS
;	COMDAT ?_Psave@?$_Facetptr@V?$ctype@_W@std@@@std@@2PBVfacet@locale@2@B
_DATA	SEGMENT DWORD USE32 PUBLIC 'DATA'
_DATA	ENDS
;	COMDAT ?_Psave@?$_Facetptr@V?$ctype@D@std@@@std@@2PBVfacet@locale@2@B
_DATA	SEGMENT DWORD USE32 PUBLIC 'DATA'
_DATA	ENDS
;	COMDAT ??$_Maklocchr@_W@std@@YA_WDPA_WABU_Cvtvec@@@Z
_TEXT	SEGMENT PARA USE32 PUBLIC 'CODE'
_TEXT	ENDS
;	COMDAT ??$_DebugHeapDelete@X@std@@YAXPAX@Z
_TEXT	SEGMENT PARA USE32 PUBLIC 'CODE'
_TEXT	ENDS
;	COMDAT ??$_Maklocstr@_W@std@@YAPA_WPBDPA_WABU_Cvtvec@@@Z
_TEXT	SEGMENT PARA USE32 PUBLIC 'CODE'
_TEXT	ENDS
;	COMDAT ??$_Maklocchr@D@std@@YADDPADABU_Cvtvec@@@Z
_TEXT	SEGMENT PARA USE32 PUBLIC 'CODE'
_TEXT	ENDS
;	COMDAT ??_C@_04LOAJBDKD@true?$AA@
CONST	SEGMENT DWORD USE32 PUBLIC 'CONST'
CONST	ENDS
;	COMDAT ??_C@_05LAPONLG@false?$AA@
CONST	SEGMENT DWORD USE32 PUBLIC 'CONST'
CONST	ENDS
;	COMDAT _wmemcpy
_TEXT	SEGMENT PARA USE32 PUBLIC 'CODE'
_TEXT	ENDS
;	COMDAT ?max_size@?$allocator@_W@std@@QBEIXZ
_TEXT	SEGMENT PARA USE32 PUBLIC 'CODE'
_TEXT	ENDS
;	COMDAT ?allocate@?$allocator@_W@std@@QAEPA_WI@Z
_TEXT	SEGMENT PARA USE32 PUBLIC 'CODE'
_TEXT	ENDS
;	COMDAT ??$_Allocate@_W@std@@YAPA_WIPA_W@Z
_TEXT	SEGMENT PARA USE32 PUBLIC 'CODE'
_TEXT	ENDS
;	COMDAT ??_C@_01GFHCPBMG@C?$AA@
CONST	SEGMENT DWORD USE32 PUBLIC 'CONST'
CONST	ENDS
;	COMDAT ??_C@_0BA@GNIEOBOF@nNewLength?5?$DO?$DN?50?$AA@
CONST	SEGMENT DWORD USE32 PUBLIC 'CONST'
CONST	ENDS
;	COMDAT ??_C@_0FJ@DMHPDOJC@D?3?2Program?5Files?5?$CIx86?$CJ?2Microsoft@
CONST	SEGMENT DWORD USE32 PUBLIC 'CONST'
CONST	ENDS
;	COMDAT ??_C@_0N@ILOMLJGA@nLength?5?$DO?$DN?50?$AA@
CONST	SEGMENT DWORD USE32 PUBLIC 'CONST'
CONST	ENDS
;	COMDAT ??_C@_0CD@EEFFJEGJ@nLength?5?$DM?$DN?5GetData?$CI?$CJ?9?$DOnAllocLeng@
CONST	SEGMENT DWORD USE32 PUBLIC 'CONST'
CONST	ENDS
;	COMDAT ?Format@?$ChTraitsCRT@D@ATL@@SAHPADPBD0@Z
_TEXT	SEGMENT PARA USE32 PUBLIC 'CODE'
_TEXT	ENDS
;	COMDAT ?IsShared@CStringData@ATL@@QBE_NXZ
_TEXT	SEGMENT PARA USE32 PUBLIC 'CODE'
_TEXT	ENDS
;	COMDAT ?data@CStringData@ATL@@QAEPAXXZ
_TEXT	SEGMENT PARA USE32 PUBLIC 'CODE'
_TEXT	ENDS
;	COMDAT ?Release@CStringData@ATL@@QAEXXZ
_TEXT	SEGMENT PARA USE32 PUBLIC 'CODE'
_TEXT	ENDS
;	COMDAT ??_C@_0L@OIIMFBNE@nRefs?5?$CB?$DN?50?$AA@
CONST	SEGMENT DWORD USE32 PUBLIC 'CONST'
CONST	ENDS
;	COMDAT ??_C@_0CB@GFHAPKDK@pOldData?9?$DOnAllocLength?5?$DM?5nLength@
CONST	SEGMENT DWORD USE32 PUBLIC 'CONST'
CONST	ENDS
;	COMDAT ?GetFormattedLength@?$ChTraitsCRT@D@ATL@@SAHPBDPAD@Z
_TEXT	SEGMENT PARA USE32 PUBLIC 'CODE'
_TEXT	ENDS
;	COMDAT ?AtlThrow@ATL@@YGXJ@Z
_TEXT	SEGMENT PARA USE32 PUBLIC 'CODE'
_TEXT	ENDS
;	COMDAT ??RCTraceFileAndLineInfo@ATL@@QBAXKIPBDZZ
_TEXT	SEGMENT PARA USE32 PUBLIC 'CODE'
_TEXT	ENDS
;	COMDAT ?TraceV@CTrace@ATL@@QBAXPBDHKI0PAD@Z
_TEXT	SEGMENT PARA USE32 PUBLIC 'CODE'
_TEXT	ENDS
;	COMDAT ??0CTraceFileAndLineInfo@ATL@@QAE@PBDH@Z
_TEXT	SEGMENT PARA USE32 PUBLIC 'CODE'
_TEXT	ENDS
;	COMDAT ??_C@_0FI@NHHJANPC@D?3?2Program?5Files?5?$CIx86?$CJ?2Microsoft@
CONST	SEGMENT DWORD USE32 PUBLIC 'CONST'
CONST	ENDS
;	COMDAT ??_C@_0BF@IAAKIJDJ@AtlThrow?3?5hr?5?$DN?50x?$CFx?6?$AA@
CONST	SEGMENT DWORD USE32 PUBLIC 'CONST'
CONST	ENDS
;	COMDAT ??BCTraceCategory@ATL@@QBEKXZ
_TEXT	SEGMENT PARA USE32 PUBLIC 'CODE'
_TEXT	ENDS
;	COMDAT ?_Peek@?$istreambuf_iterator@_WU?$char_traits@_W@std@@@std@@AAE_WXZ
_TEXT	SEGMENT PARA USE32 PUBLIC 'CODE'
_TEXT	ENDS
;	COMDAT ?_Peek@?$istreambuf_iterator@DU?$char_traits@D@std@@@std@@AAEDXZ
_TEXT	SEGMENT PARA USE32 PUBLIC 'CODE'
_TEXT	ENDS
;	COMDAT ??$use_facet@V?$ctype@_W@std@@@std@@YAABV?$ctype@_W@0@ABVlocale@0@@Z
_TEXT	SEGMENT PARA USE32 PUBLIC 'CODE'
_TEXT	ENDS
;	COMDAT ??_S?$ctype@_W@std@@6B@
CONST	SEGMENT DWORD USE32 PUBLIC 'CONST'
CONST	ENDS
;	COMDAT ??_R4?$ctype@_W@std@@6B@
rdata$r	SEGMENT DWORD USE32 PUBLIC 'CONST'
rdata$r	ENDS
;	COMDAT ??_R0?AV?$ctype@_W@std@@@8
_DATA	SEGMENT DWORD USE32 PUBLIC 'DATA'
_DATA	ENDS
;	COMDAT ??_R3?$ctype@_W@std@@8
rdata$r	SEGMENT DWORD USE32 PUBLIC 'CONST'
rdata$r	ENDS
;	COMDAT ??_R2?$ctype@_W@std@@8
rdata$r	SEGMENT DWORD USE32 PUBLIC 'CONST'
rdata$r	ENDS
;	COMDAT ??_R1A@?0A@A@?$ctype@_W@std@@8
rdata$r	SEGMENT DWORD USE32 PUBLIC 'CONST'
rdata$r	ENDS
;	COMDAT ??_R1A@?0A@A@ctype_base@std@@8
rdata$r	SEGMENT DWORD USE32 PUBLIC 'CONST'
rdata$r	ENDS
;	COMDAT ??_R0?AUctype_base@std@@@8
_DATA	SEGMENT DWORD USE32 PUBLIC 'DATA'
_DATA	ENDS
;	COMDAT ??_G?$ctype@_W@std@@MAEPAXI@Z
_TEXT	SEGMENT PARA USE32 PUBLIC 'CODE'
_TEXT	ENDS
;	COMDAT ??_C@_08EPJLHIJG@bad?5cast?$AA@
CONST	SEGMENT DWORD USE32 PUBLIC 'CONST'
CONST	ENDS
;	COMDAT __TI2?AVbad_cast@@
xdata$x	SEGMENT DWORD USE32 PUBLIC 'CONST'
xdata$x	ENDS
;	COMDAT __CTA2?AVbad_cast@@
xdata$x	SEGMENT DWORD USE32 PUBLIC 'CONST'
xdata$x	ENDS
;	COMDAT __CT??_R0?AVbad_cast@@@8??0bad_cast@@QAE@ABV0@@Z12
xdata$x	SEGMENT DWORD USE32 PUBLIC 'CONST'
xdata$x	ENDS
;	COMDAT ??_R0?AVbad_cast@@@8
_DATA	SEGMENT DWORD USE32 PUBLIC 'DATA'
_DATA	ENDS
;	COMDAT __CT??_R0?AVexception@@@8??0exception@@QAE@ABV0@@Z12
xdata$x	SEGMENT DWORD USE32 PUBLIC 'CONST'
xdata$x	ENDS
;	COMDAT ??_R0?AVexception@@@8
_DATA	SEGMENT DWORD USE32 PUBLIC 'DATA'
_DATA	ENDS
;	COMDAT ??$_DebugHeapDelete@Vfacet@locale@std@@@std@@YAXPAVfacet@locale@0@@Z
_TEXT	SEGMENT PARA USE32 PUBLIC 'CODE'
_TEXT	ENDS
;	COMDAT ??$use_facet@V?$ctype@D@std@@@std@@YAABV?$ctype@D@0@ABVlocale@0@@Z
_TEXT	SEGMENT PARA USE32 PUBLIC 'CODE'
_TEXT	ENDS
;	COMDAT ??_S?$ctype@D@std@@6B@
CONST	SEGMENT DWORD USE32 PUBLIC 'CONST'
CONST	ENDS
;	COMDAT ??_R4?$ctype@D@std@@6B@
rdata$r	SEGMENT DWORD USE32 PUBLIC 'CONST'
rdata$r	ENDS
;	COMDAT ??_R0?AV?$ctype@D@std@@@8
_DATA	SEGMENT DWORD USE32 PUBLIC 'DATA'
_DATA	ENDS
;	COMDAT ??_R3?$ctype@D@std@@8
rdata$r	SEGMENT DWORD USE32 PUBLIC 'CONST'
rdata$r	ENDS
;	COMDAT ??_R2?$ctype@D@std@@8
rdata$r	SEGMENT DWORD USE32 PUBLIC 'CONST'
rdata$r	ENDS
;	COMDAT ??_R1A@?0A@A@?$ctype@D@std@@8
rdata$r	SEGMENT DWORD USE32 PUBLIC 'CONST'
rdata$r	ENDS
;	COMDAT ??_G?$ctype@D@std@@MAEPAXI@Z
_TEXT	SEGMENT PARA USE32 PUBLIC 'CODE'
_TEXT	ENDS
;	COMDAT ??_S?$numpunct@_W@std@@6B@
CONST	SEGMENT DWORD USE32 PUBLIC 'CONST'
CONST	ENDS
;	COMDAT ??_S?$numpunct@D@std@@6B@
CONST	SEGMENT DWORD USE32 PUBLIC 'CONST'
CONST	ENDS
;	COMDAT _wmemmove
_TEXT	SEGMENT PARA USE32 PUBLIC 'CODE'
_TEXT	ENDS
;	COMDAT ?deallocate@?$allocator@_W@std@@QAEXPA_WI@Z
_TEXT	SEGMENT PARA USE32 PUBLIC 'CODE'
_TEXT	ENDS
;	COMDAT ??0?$allocator@_W@std@@QAE@ABV01@@Z
_TEXT	SEGMENT PARA USE32 PUBLIC 'CODE'
_TEXT	ENDS
;	COMDAT ??_C@_0FH@KDPNIMBO@D?3?2Program?5Files?5?$CIx86?$CJ?2Microsoft@
CONST	SEGMENT DWORD USE32 PUBLIC 'CONST'
CONST	ENDS
;	COMDAT ??_C@_0BO@OBIGOAOM@AtlIsValidString?$CI?5pszFormat?5?$CJ?$AA@
CONST	SEGMENT DWORD USE32 PUBLIC 'CONST'
CONST	ENDS
;	COMDAT ?AtlIsValidString@ATL@@YAHPBDI@Z
_TEXT	SEGMENT PARA USE32 PUBLIC 'CODE'
_TEXT	ENDS
;	COMDAT ??_C@_0BA@GOIMFHNK@pStringMgr?5?$CB?$DN?50?$AA@
CONST	SEGMENT DWORD USE32 PUBLIC 'CONST'
CONST	ENDS
;	COMDAT ?GetDefaultManager@?$StrTraitMFC_DLL@DV?$ChTraitsCRT@D@ATL@@@@SAPAUIAtlStringMgr@ATL@@XZ
_TEXT	SEGMENT PARA USE32 PUBLIC 'CODE'
_TEXT	ENDS
;	COMDAT ?_messageEntries@CDownloadPercentWnd@@0QBUAFX_MSGMAP_ENTRY@@B
CONST	SEGMENT DWORD USE32 PUBLIC 'CONST'
CONST	ENDS
;	COMDAT ?messageMap@CDownloadPercentWnd@@1UAFX_MSGMAP@@B
CONST	SEGMENT DWORD USE32 PUBLIC 'CONST'
CONST	ENDS
;	COMDAT ??_7CDownloadPercentWnd@@6B@
CONST	SEGMENT DWORD USE32 PUBLIC 'CONST'
CONST	ENDS
;	COMDAT ?classCDownloadPercentWnd@CDownloadPercentWnd@@2UCRuntimeClass@@B
CONST	SEGMENT DWORD USE32 PUBLIC 'CONST'
CONST	ENDS
;	COMDAT ??_7DIBINFO@@6B@
CONST	SEGMENT DWORD USE32 PUBLIC 'CONST'
CONST	ENDS
;	COMDAT ?FindStringResourceInstance@?$StrTraitMFC_DLL@DV?$ChTraitsCRT@D@ATL@@@@SAPAUHINSTANCE__@@I@Z
_TEXT	SEGMENT PARA USE32 PUBLIC 'CODE'
_TEXT	ENDS
;	COMDAT ?AtlGetStringResourceImage@ATL@@YAPBUATLSTRINGRESOURCEIMAGE@1@PAUHINSTANCE__@@I@Z
_TEXT	SEGMENT PARA USE32 PUBLIC 'CODE'
_TEXT	ENDS
;	COMDAT ?_AtlGetStringResourceImage@ATL@@YAPBUATLSTRINGRESOURCEIMAGE@1@PAUHINSTANCE__@@PAUHRSRC__@@I@Z
_TEXT	SEGMENT PARA USE32 PUBLIC 'CODE'
_TEXT	ENDS
;	COMDAT ?GetBaseTypeLength@?$ChTraitsCRT@D@ATL@@SAHPB_WH@Z
_TEXT	SEGMENT PARA USE32 PUBLIC 'CODE'
_TEXT	ENDS
;	COMDAT ?_AtlGetConversionACP@ATL@@YGIXZ
_TEXT	SEGMENT PARA USE32 PUBLIC 'CODE'
_TEXT	ENDS
;	COMDAT ?g_pfnGetThreadACP@ATL@@3P6GIXZA
_DATA	SEGMENT DWORD USE32 PUBLIC 'DATA'
_DATA	ENDS
;	COMDAT ?_AtlGetThreadACPThunk@ATL@@YGIXZ
_TEXT	SEGMENT PARA USE32 PUBLIC 'CODE'
_TEXT	ENDS
;	COMDAT ?_AtlGetThreadACPReal@ATL@@YGIXZ
_TEXT	SEGMENT PARA USE32 PUBLIC 'CODE'
_TEXT	ENDS
;	COMDAT ?_AtlGetThreadACPFake@ATL@@YGIXZ
_TEXT	SEGMENT PARA USE32 PUBLIC 'CODE'
_TEXT	ENDS
;	COMDAT ?InterlockedExchangePointer@@YGPAXPAPAXPAX@Z
_TEXT	SEGMENT PARA USE32 PUBLIC 'CODE'
_TEXT	ENDS
;	COMDAT ?ConvertToBaseType@?$ChTraitsCRT@D@ATL@@SAXPADHPB_WH@Z
_TEXT	SEGMENT PARA USE32 PUBLIC 'CODE'
_TEXT	ENDS
;	COMDAT ??_C@_0CJ@FJEKGMMD@Warning?3?5implicit?5LoadString?$CI?$CFu?$CJ@
CONST	SEGMENT DWORD USE32 PUBLIC 'CONST'
CONST	ENDS
;	COMDAT ?IsLocked@CStringData@ATL@@QBE_NXZ
_TEXT	SEGMENT PARA USE32 PUBLIC 'CODE'
_TEXT	ENDS
;	COMDAT ?AddRef@CStringData@ATL@@QAEXXZ
_TEXT	SEGMENT PARA USE32 PUBLIC 'CODE'
_TEXT	ENDS
;	COMDAT ??_C@_09EEBKLCFA@nRefs?5?$DO?50?$AA@
CONST	SEGMENT DWORD USE32 PUBLIC 'CONST'
CONST	ENDS
;	COMDAT ?GetLastStatus@Image@Gdiplus@@QBE?AW4Status@2@XZ
_TEXT	SEGMENT PARA USE32 PUBLIC 'CODE'
_TEXT	ENDS
;	COMDAT ?FromFile@Bitmap@Gdiplus@@SAPAV12@PB_WH@Z
_TEXT	SEGMENT PARA USE32 PUBLIC 'CODE'
_TEXT	ENDS
;	COMDAT ??2GdiplusBase@Gdiplus@@SAPAXI@Z
_TEXT	SEGMENT PARA USE32 PUBLIC 'CODE'
_TEXT	ENDS
;	COMDAT ??3GdiplusBase@Gdiplus@@SAXPAX@Z
_TEXT	SEGMENT PARA USE32 PUBLIC 'CODE'
_TEXT	ENDS
;	COMDAT ??0Bitmap@Gdiplus@@QAE@PB_WH@Z
_TEXT	SEGMENT PARA USE32 PUBLIC 'CODE'
_TEXT	ENDS
;	COMDAT ??0Image@Gdiplus@@IAE@XZ
_TEXT	SEGMENT PARA USE32 PUBLIC 'CODE'
_TEXT	ENDS
;	COMDAT ??_7Image@Gdiplus@@6B@
CONST	SEGMENT DWORD USE32 PUBLIC 'CONST'
CONST	ENDS
;	COMDAT ??_R4Image@Gdiplus@@6B@
rdata$r	SEGMENT DWORD USE32 PUBLIC 'CONST'
rdata$r	ENDS
;	COMDAT ??_R0?AVImage@Gdiplus@@@8
_DATA	SEGMENT DWORD USE32 PUBLIC 'DATA'
_DATA	ENDS
;	COMDAT ??_R3Image@Gdiplus@@8
rdata$r	SEGMENT DWORD USE32 PUBLIC 'CONST'
rdata$r	ENDS
;	COMDAT ??_R2Image@Gdiplus@@8
rdata$r	SEGMENT DWORD USE32 PUBLIC 'CONST'
rdata$r	ENDS
;	COMDAT ??_R1A@?0A@A@Image@Gdiplus@@8
rdata$r	SEGMENT DWORD USE32 PUBLIC 'CONST'
rdata$r	ENDS
;	COMDAT ??_R13?0A@A@GdiplusBase@Gdiplus@@8
rdata$r	SEGMENT DWORD USE32 PUBLIC 'CONST'
rdata$r	ENDS
;	COMDAT ??_R0?AVGdiplusBase@Gdiplus@@@8
_DATA	SEGMENT DWORD USE32 PUBLIC 'DATA'
_DATA	ENDS
;	COMDAT ??_GImage@Gdiplus@@UAEPAXI@Z
_TEXT	SEGMENT PARA USE32 PUBLIC 'CODE'
_TEXT	ENDS
;	COMDAT ?Clone@Image@Gdiplus@@UAEPAV12@XZ
_TEXT	SEGMENT PARA USE32 PUBLIC 'CODE'
_TEXT	ENDS
;	COMDAT ?SetStatus@Image@Gdiplus@@IBE?AW4Status@2@W432@@Z
_TEXT	SEGMENT PARA USE32 PUBLIC 'CODE'
_TEXT	ENDS
;	COMDAT ??0Image@Gdiplus@@IAE@PAVGpImage@1@W4Status@1@@Z
_TEXT	SEGMENT PARA USE32 PUBLIC 'CODE'
_TEXT	ENDS
;	COMDAT ??1Image@Gdiplus@@UAE@XZ
_TEXT	SEGMENT PARA USE32 PUBLIC 'CODE'
_TEXT	ENDS
;	COMDAT ??_7Bitmap@Gdiplus@@6B@
CONST	SEGMENT DWORD USE32 PUBLIC 'CONST'
CONST	ENDS
;	COMDAT ??_R4Bitmap@Gdiplus@@6B@
rdata$r	SEGMENT DWORD USE32 PUBLIC 'CONST'
rdata$r	ENDS
;	COMDAT ??_R0?AVBitmap@Gdiplus@@@8
_DATA	SEGMENT DWORD USE32 PUBLIC 'DATA'
_DATA	ENDS
;	COMDAT ??_R3Bitmap@Gdiplus@@8
rdata$r	SEGMENT DWORD USE32 PUBLIC 'CONST'
rdata$r	ENDS
;	COMDAT ??_R2Bitmap@Gdiplus@@8
rdata$r	SEGMENT DWORD USE32 PUBLIC 'CONST'
rdata$r	ENDS
;	COMDAT ??_R1A@?0A@A@Bitmap@Gdiplus@@8
rdata$r	SEGMENT DWORD USE32 PUBLIC 'CONST'
rdata$r	ENDS
;	COMDAT ??_GBitmap@Gdiplus@@UAEPAXI@Z
_TEXT	SEGMENT PARA USE32 PUBLIC 'CODE'
_TEXT	ENDS
;	COMDAT ??1Bitmap@Gdiplus@@UAE@XZ
_TEXT	SEGMENT PARA USE32 PUBLIC 'CODE'
_TEXT	ENDS
;	COMDAT ?SetNativeImage@Image@Gdiplus@@IAEXPAVGpImage@2@@Z
_TEXT	SEGMENT PARA USE32 PUBLIC 'CODE'
_TEXT	ENDS
;	COMDAT ??_7CGdiPlusBitmap@CSkinButton@@6B@
CONST	SEGMENT DWORD USE32 PUBLIC 'CONST'
CONST	ENDS
;	COMDAT ??_7HTTPObserver@@6B@
CONST	SEGMENT DWORD USE32 PUBLIC 'CONST'
CONST	ENDS
sxdata	SEGMENT DWORD USE32 'SXDATA'
sxdata	ENDS
FLAT	GROUP _DATA, CONST, _BSS
	ASSUME	CS: FLAT, DS: FLAT, SS: FLAT
endif

INCLUDELIB MSVCRTD
INCLUDELIB OLDNAMES

PUBLIC	?classCDownloadPercentWnd@CDownloadPercentWnd@@2UCRuntimeClass@@B ; CDownloadPercentWnd::classCDownloadPercentWnd
PUBLIC	?_messageEntries@CDownloadPercentWnd@@0QBUAFX_MSGMAP_ENTRY@@B ; CDownloadPercentWnd::_messageEntries
PUBLIC	?messageMap@CDownloadPercentWnd@@1UAFX_MSGMAP@@B ; CDownloadPercentWnd::messageMap
PUBLIC	?OnCreate@CDownloadPercentWnd@@QAEHPAUtagCREATESTRUCTA@@@Z ; CDownloadPercentWnd::OnCreate
PUBLIC	?OnDownSubStart@CDownloadPercentWnd@@QAEJIJ@Z	; CDownloadPercentWnd::OnDownSubStart
PUBLIC	?OnDownSubClose@CDownloadPercentWnd@@QAEJIJ@Z	; CDownloadPercentWnd::OnDownSubClose
PUBLIC	?OnTimer@CDownloadPercentWnd@@QAEXI@Z		; CDownloadPercentWnd::OnTimer
PUBLIC	?OnPaint@CDownloadPercentWnd@@QAEXXZ		; CDownloadPercentWnd::OnPaint
PUBLIC	?g_pfnGetThreadACP@ATL@@3P6GIXZA		; ATL::g_pfnGetThreadACP
PUBLIC	?_AtlGetThreadACPThunk@ATL@@YGIXZ		; ATL::_AtlGetThreadACPThunk
EXTRN	?GetThisClass@CWnd@@SGPAUCRuntimeClass@@XZ:NEAR	; CWnd::GetThisClass
EXTRN	?GetThisMessageMap@CWnd@@KGPBUAFX_MSGMAP@@XZ:NEAR ; CWnd::GetThisMessageMap
CONST	SEGMENT
$SG188682 DB	'CDownloadPercentWnd', 00H
CONST	ENDS
;	COMDAT ?classCDownloadPercentWnd@CDownloadPercentWnd@@2UCRuntimeClass@@B
CONST	SEGMENT
?classCDownloadPercentWnd@CDownloadPercentWnd@@2UCRuntimeClass@@B DD FLAT:$SG188682 ; CDownloadPercentWnd::classCDownloadPercentWnd
	DD	0230H
	DD	0ffffH
	DD	00H
	DD	FLAT:?GetThisClass@CWnd@@SGPAUCRuntimeClass@@XZ
	DD	00H
	DD	00H
CONST	ENDS
;	COMDAT ?_messageEntries@CDownloadPercentWnd@@0QBUAFX_MSGMAP_ENTRY@@B
CONST	SEGMENT
?_messageEntries@CDownloadPercentWnd@@0QBUAFX_MSGMAP_ENTRY@@B DD 01H ; CDownloadPercentWnd::_messageEntries
	DD	00H
	DD	00H
	DD	00H
	DD	0dH
	DD	FLAT:?OnCreate@CDownloadPercentWnd@@QAEHPAUtagCREATESTRUCTA@@@Z
	DD	0fH
	DD	00H
	DD	00H
	DD	00H
	DD	010H
	DD	FLAT:?OnPaint@CDownloadPercentWnd@@QAEXXZ
	DD	0113H
	DD	00H
	DD	00H
	DD	00H
	DD	011H
	DD	FLAT:?OnTimer@CDownloadPercentWnd@@QAEXI@Z
	DD	0464H
	DD	00H
	DD	00H
	DD	00H
	DD	0eH
	DD	FLAT:?OnDownSubStart@CDownloadPercentWnd@@QAEJIJ@Z
	DD	0465H
	DD	00H
	DD	00H
	DD	00H
	DD	0eH
	DD	FLAT:?OnDownSubClose@CDownloadPercentWnd@@QAEJIJ@Z
	DD	00H
	DD	00H
	DD	00H
	DD	00H
	DD	00H
	DD	00H
CONST	ENDS
;	COMDAT ?messageMap@CDownloadPercentWnd@@1UAFX_MSGMAP@@B
CONST	SEGMENT
?messageMap@CDownloadPercentWnd@@1UAFX_MSGMAP@@B DD FLAT:?GetThisMessageMap@CWnd@@KGPBUAFX_MSGMAP@@XZ ; CDownloadPercentWnd::messageMap
	DD	FLAT:?_messageEntries@CDownloadPercentWnd@@0QBUAFX_MSGMAP_ENTRY@@B
CONST	ENDS
CONST	SEGMENT
$SG188767 DB	'%d', 00H
	ORG $+1
$SG188768 DB	'%', 00H
CONST	ENDS
;	COMDAT ?g_pfnGetThreadACP@ATL@@3P6GIXZA
_DATA	SEGMENT
?g_pfnGetThreadACP@ATL@@3P6GIXZA DD FLAT:?_AtlGetThreadACPThunk@ATL@@YGIXZ ; ATL::g_pfnGetThreadACP
_DATA	ENDS
PUBLIC	?GetThisClass@CDownloadPercentWnd@@SGPAUCRuntimeClass@@XZ ; CDownloadPercentWnd::GetThisClass
EXTRN	__RTC_InitBase:NEAR
EXTRN	__RTC_Shutdown:NEAR
;	COMDAT rtc$IMZ
; File d:\boxgit\playbox\playbox\dev\prj\playbox\src\layoutmgr\changecolor\downloadpercentwnd.cpp
rtc$IMZ	SEGMENT
__RTC_InitBase.rtc$IMZ DD FLAT:__RTC_InitBase
rtc$IMZ	ENDS
;	COMDAT rtc$TMZ
rtc$TMZ	SEGMENT
__RTC_Shutdown.rtc$TMZ DD FLAT:__RTC_Shutdown
; Function compile flags: /Odt /RTCsu
rtc$TMZ	ENDS
_TEXT	SEGMENT
?GetThisClass@CDownloadPercentWnd@@SGPAUCRuntimeClass@@XZ PROC NEAR ; CDownloadPercentWnd::GetThisClass

; 13   : IMPLEMENT_DYNAMIC(CDownloadPercentWnd, CWnd)

  00000	55		 push	 ebp
  00001	8b ec		 mov	 ebp, esp
  00003	b8 00 00 00 00	 mov	 eax, OFFSET FLAT:?classCDownloadPercentWnd@CDownloadPercentWnd@@2UCRuntimeClass@@B ; CDownloadPercentWnd::classCDownloadPercentWnd
  00008	5d		 pop	 ebp
  00009	c3		 ret	 0
?GetThisClass@CDownloadPercentWnd@@SGPAUCRuntimeClass@@XZ ENDP ; CDownloadPercentWnd::GetThisClass
_TEXT	ENDS
PUBLIC	?GetRuntimeClass@CDownloadPercentWnd@@UBEPAUCRuntimeClass@@XZ ; CDownloadPercentWnd::GetRuntimeClass
; Function compile flags: /Odt /RTCsu
_TEXT	SEGMENT
_this$ = -4						; size = 4
?GetRuntimeClass@CDownloadPercentWnd@@UBEPAUCRuntimeClass@@XZ PROC NEAR ; CDownloadPercentWnd::GetRuntimeClass
; _this$ = ecx

; 13   : IMPLEMENT_DYNAMIC(CDownloadPercentWnd, CWnd)

  00010	55		 push	 ebp
  00011	8b ec		 mov	 ebp, esp
  00013	51		 push	 ecx
  00014	c7 45 fc cc cc
	cc cc		 mov	 DWORD PTR [ebp-4], -858993460 ; ccccccccH
  0001b	89 4d fc	 mov	 DWORD PTR _this$[ebp], ecx
  0001e	b8 00 00 00 00	 mov	 eax, OFFSET FLAT:?classCDownloadPercentWnd@CDownloadPercentWnd@@2UCRuntimeClass@@B ; CDownloadPercentWnd::classCDownloadPercentWnd
  00023	8b e5		 mov	 esp, ebp
  00025	5d		 pop	 ebp
  00026	c3		 ret	 0
?GetRuntimeClass@CDownloadPercentWnd@@UBEPAUCRuntimeClass@@XZ ENDP ; CDownloadPercentWnd::GetRuntimeClass
_TEXT	ENDS
PUBLIC	??0CDownloadPercentWnd@@QAE@XZ			; CDownloadPercentWnd::CDownloadPercentWnd
PUBLIC	?GetMessageMap@CDownloadPercentWnd@@MBEPBUAFX_MSGMAP@@XZ ; CDownloadPercentWnd::GetMessageMap
PUBLIC	??_7CDownloadPercentWnd@@6B@			; CDownloadPercentWnd::`vftable'
PUBLIC	??_GCDownloadPercentWnd@@UAEPAXI@Z		; CDownloadPercentWnd::`scalar deleting destructor'
PUBLIC	??_R1A@?0A@A@CWnd@@8				; CWnd::`RTTI Base Class Descriptor at (0,-1,0,0)'
PUBLIC	??_R0?AVCWnd@@@8				; CWnd `RTTI Type Descriptor'
PUBLIC	??_R1A@?0A@A@CCmdTarget@@8			; CCmdTarget::`RTTI Base Class Descriptor at (0,-1,0,0)'
PUBLIC	??_R0?AVCCmdTarget@@@8				; CCmdTarget `RTTI Type Descriptor'
PUBLIC	??_R1A@?0A@A@CObject@@8				; CObject::`RTTI Base Class Descriptor at (0,-1,0,0)'
PUBLIC	??_R0?AVCObject@@@8				; CObject `RTTI Type Descriptor'
PUBLIC	??_R4CDownloadPercentWnd@@6B@			; CDownloadPercentWnd::`RTTI Complete Object Locator'
PUBLIC	??_R0?AVCDownloadPercentWnd@@@8			; CDownloadPercentWnd `RTTI Type Descriptor'
PUBLIC	??_R3CDownloadPercentWnd@@8			; CDownloadPercentWnd::`RTTI Class Hierarchy Descriptor'
PUBLIC	??_R2CDownloadPercentWnd@@8			; CDownloadPercentWnd::`RTTI Base Class Array'
PUBLIC	??_R1A@?0A@A@CDownloadPercentWnd@@8		; CDownloadPercentWnd::`RTTI Base Class Descriptor at (0,-1,0,0)'
EXTRN	?GetInterfaceMap@CWnd@@MBEPBUAFX_INTERFACEMAP@@XZ:NEAR ; CWnd::GetInterfaceMap
EXTRN	??_ECDownloadPercentWnd@@UAEPAXI@Z:NEAR		; CDownloadPercentWnd::`vector deleting destructor'
EXTRN	?EnsureStdObj@CWnd@@UAEJXZ:NEAR			; CWnd::EnsureStdObj
EXTRN	?get_accParent@CWnd@@UAEJPAPAUIDispatch@@@Z:NEAR ; CWnd::get_accParent
EXTRN	?OnCmdMsg@CCmdTarget@@UAEHIHPAXPAUAFX_CMDHANDLERINFO@@@Z:NEAR ; CCmdTarget::OnCmdMsg
EXTRN	?get_accChildCount@CWnd@@UAEJPAJ@Z:NEAR		; CWnd::get_accChildCount
EXTRN	?IsInvokeAllowed@CCmdTarget@@UAEHJ@Z:NEAR	; CCmdTarget::IsInvokeAllowed
EXTRN	?get_accChild@CWnd@@UAEJUtagVARIANT@@PAPAUIDispatch@@@Z:NEAR ; CWnd::get_accChild
EXTRN	?get_accName@CWnd@@UAEJUtagVARIANT@@PAPA_W@Z:NEAR ; CWnd::get_accName
EXTRN	?get_accValue@CWnd@@UAEJUtagVARIANT@@PAPA_W@Z:NEAR ; CWnd::get_accValue
EXTRN	?GetDispatchIID@CCmdTarget@@UAEHPAU_GUID@@@Z:NEAR ; CCmdTarget::GetDispatchIID
EXTRN	?GetTypeInfoCount@CCmdTarget@@UAEIXZ:NEAR	; CCmdTarget::GetTypeInfoCount
EXTRN	?GetTypeLibCache@CCmdTarget@@UAEPAVCTypeLibCache@@XZ:NEAR ; CCmdTarget::GetTypeLibCache
EXTRN	?get_accDescription@CWnd@@UAEJUtagVARIANT@@PAPA_W@Z:NEAR ; CWnd::get_accDescription
EXTRN	?GetTypeLib@CCmdTarget@@UAEJKPAPAUITypeLib@@@Z:NEAR ; CCmdTarget::GetTypeLib
EXTRN	?get_accRole@CWnd@@UAEJUtagVARIANT@@PAU2@@Z:NEAR ; CWnd::get_accRole
EXTRN	?get_accState@CWnd@@UAEJUtagVARIANT@@PAU2@@Z:NEAR ; CWnd::get_accState
EXTRN	?get_accHelp@CWnd@@UAEJUtagVARIANT@@PAPA_W@Z:NEAR ; CWnd::get_accHelp
EXTRN	?get_accHelpTopic@CWnd@@UAEJPAPA_WUtagVARIANT@@PAJ@Z:NEAR ; CWnd::get_accHelpTopic
EXTRN	?get_accKeyboardShortcut@CWnd@@UAEJUtagVARIANT@@PAPA_W@Z:NEAR ; CWnd::get_accKeyboardShortcut
EXTRN	?get_accFocus@CWnd@@UAEJPAUtagVARIANT@@@Z:NEAR	; CWnd::get_accFocus
EXTRN	?get_accSelection@CWnd@@UAEJPAUtagVARIANT@@@Z:NEAR ; CWnd::get_accSelection
EXTRN	?get_accDefaultAction@CWnd@@UAEJUtagVARIANT@@PAPA_W@Z:NEAR ; CWnd::get_accDefaultAction
EXTRN	?GetCommandMap@CCmdTarget@@MBEPBUAFX_OLECMDMAP@@XZ:NEAR ; CCmdTarget::GetCommandMap
EXTRN	?accSelect@CWnd@@UAEJJUtagVARIANT@@@Z:NEAR	; CWnd::accSelect
EXTRN	?accLocation@CWnd@@UAEJPAJ000UtagVARIANT@@@Z:NEAR ; CWnd::accLocation
EXTRN	?GetDispatchMap@CCmdTarget@@MBEPBUAFX_DISPMAP@@XZ:NEAR ; CCmdTarget::GetDispatchMap
EXTRN	?accNavigate@CWnd@@UAEJJUtagVARIANT@@PAU2@@Z:NEAR ; CWnd::accNavigate
EXTRN	?accHitTest@CWnd@@UAEJJJPAUtagVARIANT@@@Z:NEAR	; CWnd::accHitTest
EXTRN	?GetConnectionMap@CCmdTarget@@MBEPBUAFX_CONNECTIONMAP@@XZ:NEAR ; CCmdTarget::GetConnectionMap
EXTRN	?accDoDefaultAction@CWnd@@UAEJUtagVARIANT@@@Z:NEAR ; CWnd::accDoDefaultAction
EXTRN	?put_accName@CWnd@@UAEJUtagVARIANT@@PA_W@Z:NEAR	; CWnd::put_accName
EXTRN	?put_accValue@CWnd@@UAEJUtagVARIANT@@PA_W@Z:NEAR ; CWnd::put_accValue
EXTRN	?SetProxy@CWnd@@UAEJPAUIAccessibleProxy@@@Z:NEAR ; CWnd::SetProxy
EXTRN	?CreateAccessibleProxy@CWnd@@UAEJIJPAJ@Z:NEAR	; CWnd::CreateAccessibleProxy
EXTRN	?GetEventSinkMap@CCmdTarget@@MBEPBUAFX_EVENTSINKMAP@@XZ:NEAR ; CCmdTarget::GetEventSinkMap
EXTRN	?OnCreateAggregates@CCmdTarget@@UAEHXZ:NEAR	; CCmdTarget::OnCreateAggregates
EXTRN	?OnCommand@CWnd@@MAEHIJ@Z:NEAR			; CWnd::OnCommand
EXTRN	?GetInterfaceHook@CCmdTarget@@UAEPAUIUnknown@@PBX@Z:NEAR ; CCmdTarget::GetInterfaceHook
EXTRN	?OnNotify@CWnd@@MAEHIJPAJ@Z:NEAR		; CWnd::OnNotify
EXTRN	?GetExtraConnectionPoints@CCmdTarget@@MAEHPAVCPtrArray@@@Z:NEAR ; CCmdTarget::GetExtraConnectionPoints
EXTRN	?GetConnectionHook@CCmdTarget@@MAEPAUIConnectionPoint@@ABU_GUID@@@Z:NEAR ; CCmdTarget::GetConnectionHook
EXTRN	??0CWnd@@QAE@XZ:NEAR				; CWnd::CWnd
EXTRN	?PreSubclassWindow@CWnd@@UAEXXZ:NEAR		; CWnd::PreSubclassWindow
EXTRN	?Create@CWnd@@UAEHPBD0KABUtagRECT@@PAV1@IPAUCCreateContext@@@Z:NEAR ; CWnd::Create
EXTRN	?CreateEx@CWnd@@UAEHKPBD0KHHHHPAUHWND__@@PAUHMENU__@@PAX@Z:NEAR ; CWnd::CreateEx
EXTRN	?CreateEx@CWnd@@UAEHKPBD0KABUtagRECT@@PAV1@IPAX@Z:NEAR ; CWnd::CreateEx
EXTRN	?Serialize@CObject@@UAEXAAVCArchive@@@Z:NEAR	; CObject::Serialize
EXTRN	?DestroyWindow@CWnd@@UAEHXZ:NEAR		; CWnd::DestroyWindow
EXTRN	?PreCreateWindow@CWnd@@UAEHAAUtagCREATESTRUCTA@@@Z:NEAR ; CWnd::PreCreateWindow
EXTRN	?CalcWindowRect@CWnd@@UAEXPAUtagRECT@@I@Z:NEAR	; CWnd::CalcWindowRect
EXTRN	?GetSuperWndProcAddr@CWnd@@MAEPAP6GJPAUHWND__@@IIJ@ZXZ:NEAR ; CWnd::GetSuperWndProcAddr
EXTRN	?DoDataExchange@CWnd@@MAEXPAVCDataExchange@@@Z:NEAR ; CWnd::DoDataExchange
EXTRN	?BeginModalState@CWnd@@UAEXXZ:NEAR		; CWnd::BeginModalState
EXTRN	?EndModalState@CWnd@@UAEXXZ:NEAR		; CWnd::EndModalState
EXTRN	?PreTranslateMessage@CWnd@@UAEHPAUtagMSG@@@Z:NEAR ; CWnd::PreTranslateMessage
EXTRN	?OnAmbientProperty@CWnd@@UAEHPAVCOleControlSite@@JPAUtagVARIANT@@@Z:NEAR ; CWnd::OnAmbientProperty
EXTRN	?WindowProc@CWnd@@MAEJIIJ@Z:NEAR		; CWnd::WindowProc
EXTRN	?OnWndMsg@CWnd@@MAEHIIJPAJ@Z:NEAR		; CWnd::OnWndMsg
EXTRN	?DefWindowProcA@CWnd@@MAEJIIJ@Z:NEAR		; CWnd::DefWindowProcA
EXTRN	?PostNcDestroy@CWnd@@MAEXXZ:NEAR		; CWnd::PostNcDestroy
EXTRN	?OnChildNotify@CWnd@@MAEHIIJPAJ@Z:NEAR		; CWnd::OnChildNotify
EXTRN	??1CWnd@@UAE@XZ:NEAR				; CWnd::~CWnd
EXTRN	?CheckAutoCenter@CWnd@@UAEHXZ:NEAR		; CWnd::CheckAutoCenter
EXTRN	?AssertValid@CWnd@@UBEXXZ:NEAR			; CWnd::AssertValid
EXTRN	?Dump@CWnd@@UBEXAAVCDumpContext@@@Z:NEAR	; CWnd::Dump
EXTRN	?IsFrameWnd@CWnd@@UBEHXZ:NEAR			; CWnd::IsFrameWnd
EXTRN	?OnFinalRelease@CWnd@@UAEXXZ:NEAR		; CWnd::OnFinalRelease
EXTRN	??0CColorSlide@@QAE@XZ:NEAR			; CColorSlide::CColorSlide
EXTRN	??1CColorSlide@@UAE@XZ:NEAR			; CColorSlide::~CColorSlide
EXTRN	?CreateControlContainer@CWnd@@MAEHPAPAVCOleControlContainer@@@Z:NEAR ; CWnd::CreateControlContainer
EXTRN	?CreateControlSite@CWnd@@MAEHPAVCOleControlContainer@@PAPAVCOleControlSite@@IABU_GUID@@@Z:NEAR ; CWnd::CreateControlSite
EXTRN	?SetOccDialogInfo@CWnd@@MAEHPAU_AFX_OCC_DIALOG_INFO@@@Z:NEAR ; CWnd::SetOccDialogInfo
EXTRN	?OnToolHitTest@CWnd@@UBEHVCPoint@@PAUtagTOOLINFOA@@@Z:NEAR ; CWnd::OnToolHitTest
EXTRN	??0CStaticText@@QAE@XZ:NEAR			; CStaticText::CStaticText
EXTRN	??1CStaticText@@UAE@XZ:NEAR			; CStaticText::~CStaticText
EXTRN	?GetScrollBarCtrl@CWnd@@UBEPAVCScrollBar@@H@Z:NEAR ; CWnd::GetScrollBarCtrl
EXTRN	?WinHelpA@CWnd@@UAEXKI@Z:NEAR			; CWnd::WinHelpA
EXTRN	?HtmlHelpA@CWnd@@UAEXKI@Z:NEAR			; CWnd::HtmlHelpA
EXTRN	??_7type_info@@6B@:QWORD			; type_info::`vftable'
EXTRN	?WinHelpInternal@CWnd@@UAEXKI@Z:NEAR		; CWnd::WinHelpInternal
EXTRN	__except_list:DWORD
EXTRN	?ContinueModal@CWnd@@UAEHXZ:NEAR		; CWnd::ContinueModal
EXTRN	__RTC_CheckEsp:NEAR
EXTRN	?EndModalLoop@CWnd@@UAEXH@Z:NEAR		; CWnd::EndModalLoop
EXTRN	___CxxFrameHandler:NEAR
xdata$x	SEGMENT
$T189435 DD	0ffffffffH
	DD	FLAT:$L189424
	DD	00H
	DD	FLAT:$L189425
	DD	01H
	DD	FLAT:$L189426
$T189431 DD	019930520H
	DD	03H
	DD	FLAT:$T189435
	DD	2 DUP(00H)
	DD	2 DUP(00H)
xdata$x	ENDS
;	COMDAT ??_7CDownloadPercentWnd@@6B@
CONST	SEGMENT
??_7CDownloadPercentWnd@@6B@ DD FLAT:??_R4CDownloadPercentWnd@@6B@ ; CDownloadPercentWnd::`vftable'
	DD	FLAT:?GetRuntimeClass@CDownloadPercentWnd@@UBEPAUCRuntimeClass@@XZ
	DD	FLAT:??_ECDownloadPercentWnd@@UAEPAXI@Z
	DD	FLAT:?Serialize@CObject@@UAEXAAVCArchive@@@Z
	DD	FLAT:?AssertValid@CWnd@@UBEXXZ
	DD	FLAT:?Dump@CWnd@@UBEXAAVCDumpContext@@@Z
	DD	FLAT:?OnCmdMsg@CCmdTarget@@UAEHIHPAXPAUAFX_CMDHANDLERINFO@@@Z
	DD	FLAT:?OnFinalRelease@CWnd@@UAEXXZ
	DD	FLAT:?IsInvokeAllowed@CCmdTarget@@UAEHJ@Z
	DD	FLAT:?GetDispatchIID@CCmdTarget@@UAEHPAU_GUID@@@Z
	DD	FLAT:?GetTypeInfoCount@CCmdTarget@@UAEIXZ
	DD	FLAT:?GetTypeLibCache@CCmdTarget@@UAEPAVCTypeLibCache@@XZ
	DD	FLAT:?GetTypeLib@CCmdTarget@@UAEJKPAPAUITypeLib@@@Z
	DD	FLAT:?GetMessageMap@CDownloadPercentWnd@@MBEPBUAFX_MSGMAP@@XZ
	DD	FLAT:?GetCommandMap@CCmdTarget@@MBEPBUAFX_OLECMDMAP@@XZ
	DD	FLAT:?GetDispatchMap@CCmdTarget@@MBEPBUAFX_DISPMAP@@XZ
	DD	FLAT:?GetConnectionMap@CCmdTarget@@MBEPBUAFX_CONNECTIONMAP@@XZ
	DD	FLAT:?GetInterfaceMap@CWnd@@MBEPBUAFX_INTERFACEMAP@@XZ
	DD	FLAT:?GetEventSinkMap@CCmdTarget@@MBEPBUAFX_EVENTSINKMAP@@XZ
	DD	FLAT:?OnCreateAggregates@CCmdTarget@@UAEHXZ
	DD	FLAT:?GetInterfaceHook@CCmdTarget@@UAEPAUIUnknown@@PBX@Z
	DD	FLAT:?GetExtraConnectionPoints@CCmdTarget@@MAEHPAVCPtrArray@@@Z
	DD	FLAT:?GetConnectionHook@CCmdTarget@@MAEPAUIConnectionPoint@@ABU_GUID@@@Z
	DD	FLAT:?PreSubclassWindow@CWnd@@UAEXXZ
	DD	FLAT:?Create@CWnd@@UAEHPBD0KABUtagRECT@@PAV1@IPAUCCreateContext@@@Z
	DD	FLAT:?CreateEx@CWnd@@UAEHKPBD0KABUtagRECT@@PAV1@IPAX@Z
	DD	FLAT:?CreateEx@CWnd@@UAEHKPBD0KHHHHPAUHWND__@@PAUHMENU__@@PAX@Z
	DD	FLAT:?DestroyWindow@CWnd@@UAEHXZ
	DD	FLAT:?PreCreateWindow@CWnd@@UAEHAAUtagCREATESTRUCTA@@@Z
	DD	FLAT:?CalcWindowRect@CWnd@@UAEXPAUtagRECT@@I@Z
	DD	FLAT:?OnToolHitTest@CWnd@@UBEHVCPoint@@PAUtagTOOLINFOA@@@Z
	DD	FLAT:?GetScrollBarCtrl@CWnd@@UBEPAVCScrollBar@@H@Z
	DD	FLAT:?WinHelpA@CWnd@@UAEXKI@Z
	DD	FLAT:?HtmlHelpA@CWnd@@UAEXKI@Z
	DD	FLAT:?WinHelpInternal@CWnd@@UAEXKI@Z
	DD	FLAT:?ContinueModal@CWnd@@UAEHXZ
	DD	FLAT:?EndModalLoop@CWnd@@UAEXH@Z
	DD	FLAT:?EnsureStdObj@CWnd@@UAEJXZ
	DD	FLAT:?get_accParent@CWnd@@UAEJPAPAUIDispatch@@@Z
	DD	FLAT:?get_accChildCount@CWnd@@UAEJPAJ@Z
	DD	FLAT:?get_accChild@CWnd@@UAEJUtagVARIANT@@PAPAUIDispatch@@@Z
	DD	FLAT:?get_accName@CWnd@@UAEJUtagVARIANT@@PAPA_W@Z
	DD	FLAT:?get_accValue@CWnd@@UAEJUtagVARIANT@@PAPA_W@Z
	DD	FLAT:?get_accDescription@CWnd@@UAEJUtagVARIANT@@PAPA_W@Z
	DD	FLAT:?get_accRole@CWnd@@UAEJUtagVARIANT@@PAU2@@Z
	DD	FLAT:?get_accState@CWnd@@UAEJUtagVARIANT@@PAU2@@Z
	DD	FLAT:?get_accHelp@CWnd@@UAEJUtagVARIANT@@PAPA_W@Z
	DD	FLAT:?get_accHelpTopic@CWnd@@UAEJPAPA_WUtagVARIANT@@PAJ@Z
	DD	FLAT:?get_accKeyboardShortcut@CWnd@@UAEJUtagVARIANT@@PAPA_W@Z
	DD	FLAT:?get_accFocus@CWnd@@UAEJPAUtagVARIANT@@@Z
	DD	FLAT:?get_accSelection@CWnd@@UAEJPAUtagVARIANT@@@Z
	DD	FLAT:?get_accDefaultAction@CWnd@@UAEJUtagVARIANT@@PAPA_W@Z
	DD	FLAT:?accSelect@CWnd@@UAEJJUtagVARIANT@@@Z
	DD	FLAT:?accLocation@CWnd@@UAEJPAJ000UtagVARIANT@@@Z
	DD	FLAT:?accNavigate@CWnd@@UAEJJUtagVARIANT@@PAU2@@Z
	DD	FLAT:?accHitTest@CWnd@@UAEJJJPAUtagVARIANT@@@Z
	DD	FLAT:?accDoDefaultAction@CWnd@@UAEJUtagVARIANT@@@Z
	DD	FLAT:?put_accName@CWnd@@UAEJUtagVARIANT@@PA_W@Z
	DD	FLAT:?put_accValue@CWnd@@UAEJUtagVARIANT@@PA_W@Z
	DD	FLAT:?SetProxy@CWnd@@UAEJPAUIAccessibleProxy@@@Z
	DD	FLAT:?CreateAccessibleProxy@CWnd@@UAEJIJPAJ@Z
	DD	FLAT:?OnCommand@CWnd@@MAEHIJ@Z
	DD	FLAT:?OnNotify@CWnd@@MAEHIJPAJ@Z
	DD	FLAT:?GetSuperWndProcAddr@CWnd@@MAEPAP6GJPAUHWND__@@IIJ@ZXZ
	DD	FLAT:?DoDataExchange@CWnd@@MAEXPAVCDataExchange@@@Z
	DD	FLAT:?BeginModalState@CWnd@@UAEXXZ
	DD	FLAT:?EndModalState@CWnd@@UAEXXZ
	DD	FLAT:?PreTranslateMessage@CWnd@@UAEHPAUtagMSG@@@Z
	DD	FLAT:?OnAmbientProperty@CWnd@@UAEHPAVCOleControlSite@@JPAUtagVARIANT@@@Z
	DD	FLAT:?WindowProc@CWnd@@MAEJIIJ@Z
	DD	FLAT:?OnWndMsg@CWnd@@MAEHIIJPAJ@Z
	DD	FLAT:?DefWindowProcA@CWnd@@MAEJIIJ@Z
	DD	FLAT:?PostNcDestroy@CWnd@@MAEXXZ
	DD	FLAT:?OnChildNotify@CWnd@@MAEHIIJPAJ@Z
	DD	FLAT:?CheckAutoCenter@CWnd@@UAEHXZ
	DD	FLAT:?IsFrameWnd@CWnd@@UBEHXZ
	DD	FLAT:?CreateControlContainer@CWnd@@MAEHPAPAVCOleControlContainer@@@Z
	DD	FLAT:?CreateControlSite@CWnd@@MAEHPAVCOleControlContainer@@PAPAVCOleControlSite@@IABU_GUID@@@Z
	DD	FLAT:?SetOccDialogInfo@CWnd@@MAEHPAU_AFX_OCC_DIALOG_INFO@@@Z
CONST	ENDS
;	COMDAT ??_R4CDownloadPercentWnd@@6B@
rdata$r	SEGMENT
??_R4CDownloadPercentWnd@@6B@ DD 00H			; CDownloadPercentWnd::`RTTI Complete Object Locator'
	DD	00H
	DD	00H
	DD	FLAT:??_R0?AVCDownloadPercentWnd@@@8
	DD	FLAT:??_R3CDownloadPercentWnd@@8
rdata$r	ENDS
;	COMDAT ??_R0?AVCDownloadPercentWnd@@@8
_DATA	SEGMENT
??_R0?AVCDownloadPercentWnd@@@8 DD FLAT:??_7type_info@@6B@ ; CDownloadPercentWnd `RTTI Type Descriptor'
	DD	00H
	DB	'.?AVCDownloadPercentWnd@@', 00H
_DATA	ENDS
;	COMDAT ??_R3CDownloadPercentWnd@@8
rdata$r	SEGMENT
??_R3CDownloadPercentWnd@@8 DD 00H			; CDownloadPercentWnd::`RTTI Class Hierarchy Descriptor'
	DD	00H
	DD	04H
	DD	FLAT:??_R2CDownloadPercentWnd@@8
rdata$r	ENDS
;	COMDAT ??_R2CDownloadPercentWnd@@8
rdata$r	SEGMENT
??_R2CDownloadPercentWnd@@8 DD FLAT:??_R1A@?0A@A@CDownloadPercentWnd@@8 ; CDownloadPercentWnd::`RTTI Base Class Array'
	DD	FLAT:??_R1A@?0A@A@CWnd@@8
	DD	FLAT:??_R1A@?0A@A@CCmdTarget@@8
	DD	FLAT:??_R1A@?0A@A@CObject@@8
rdata$r	ENDS
;	COMDAT ??_R1A@?0A@A@CDownloadPercentWnd@@8
rdata$r	SEGMENT
??_R1A@?0A@A@CDownloadPercentWnd@@8 DD FLAT:??_R0?AVCDownloadPercentWnd@@@8 ; CDownloadPercentWnd::`RTTI Base Class Descriptor at (0,-1,0,0)'
	DD	03H
	DD	00H
	DD	0ffffffffH
	DD	00H
	DD	00H
rdata$r	ENDS
;	COMDAT ??_R1A@?0A@A@CWnd@@8
rdata$r	SEGMENT
??_R1A@?0A@A@CWnd@@8 DD FLAT:??_R0?AVCWnd@@@8		; CWnd::`RTTI Base Class Descriptor at (0,-1,0,0)'
	DD	02H
	DD	00H
	DD	0ffffffffH
	DD	00H
	DD	00H
rdata$r	ENDS
;	COMDAT ??_R0?AVCWnd@@@8
_DATA	SEGMENT
??_R0?AVCWnd@@@8 DD FLAT:??_7type_info@@6B@		; CWnd `RTTI Type Descriptor'
	DD	00H
	DB	'.?AVCWnd@@', 00H
_DATA	ENDS
;	COMDAT ??_R1A@?0A@A@CCmdTarget@@8
rdata$r	SEGMENT
??_R1A@?0A@A@CCmdTarget@@8 DD FLAT:??_R0?AVCCmdTarget@@@8 ; CCmdTarget::`RTTI Base Class Descriptor at (0,-1,0,0)'
	DD	01H
	DD	00H
	DD	0ffffffffH
	DD	00H
	DD	00H
rdata$r	ENDS
;	COMDAT ??_R0?AVCCmdTarget@@@8
_DATA	SEGMENT
??_R0?AVCCmdTarget@@@8 DD FLAT:??_7type_info@@6B@	; CCmdTarget `RTTI Type Descriptor'
	DD	00H
	DB	'.?AVCCmdTarget@@', 00H
_DATA	ENDS
;	COMDAT ??_R1A@?0A@A@CObject@@8
rdata$r	SEGMENT
??_R1A@?0A@A@CObject@@8 DD FLAT:??_R0?AVCObject@@@8	; CObject::`RTTI Base Class Descriptor at (0,-1,0,0)'
	DD	00H
	DD	00H
	DD	0ffffffffH
	DD	00H
	DD	00H
rdata$r	ENDS
;	COMDAT ??_R0?AVCObject@@@8
_DATA	SEGMENT
??_R0?AVCObject@@@8 DD FLAT:??_7type_info@@6B@		; CObject `RTTI Type Descriptor'
	DD	00H
	DB	'.?AVCObject@@', 00H
; Function compile flags: /Odt /RTCsu
_DATA	ENDS
_TEXT	SEGMENT
_this$ = -16						; size = 4
__$EHRec$ = -12						; size = 12
??0CDownloadPercentWnd@@QAE@XZ PROC NEAR		; CDownloadPercentWnd::CDownloadPercentWnd
; _this$ = ecx

; 15   : {

  00030	55		 push	 ebp
  00031	8b ec		 mov	 ebp, esp
  00033	6a ff		 push	 -1
  00035	68 00 00 00 00	 push	 __ehhandler$??0CDownloadPercentWnd@@QAE@XZ
  0003a	64 a1 00 00 00
	00		 mov	 eax, DWORD PTR fs:__except_list
  00040	50		 push	 eax
  00041	64 89 25 00 00
	00 00		 mov	 DWORD PTR fs:__except_list, esp
  00048	51		 push	 ecx
  00049	c7 45 f0 cc cc
	cc cc		 mov	 DWORD PTR [ebp-16], -858993460 ; ccccccccH
  00050	89 4d f0	 mov	 DWORD PTR _this$[ebp], ecx
  00053	8b 4d f0	 mov	 ecx, DWORD PTR _this$[ebp]
  00056	e8 00 00 00 00	 call	 ??0CWnd@@QAE@XZ		; CWnd::CWnd
  0005b	c7 45 fc 00 00
	00 00		 mov	 DWORD PTR __$EHRec$[ebp+8], 0
  00062	8b 45 f0	 mov	 eax, DWORD PTR _this$[ebp]
  00065	c7 00 00 00 00
	00		 mov	 DWORD PTR [eax], OFFSET FLAT:??_7CDownloadPercentWnd@@6B@
  0006b	8b 4d f0	 mov	 ecx, DWORD PTR _this$[ebp]
  0006e	83 c1 54	 add	 ecx, 84			; 00000054H
  00071	e8 00 00 00 00	 call	 ??0CColorSlide@@QAE@XZ	; CColorSlide::CColorSlide
  00076	c6 45 fc 01	 mov	 BYTE PTR __$EHRec$[ebp+8], 1
  0007a	8b 4d f0	 mov	 ecx, DWORD PTR _this$[ebp]
  0007d	81 c1 e0 00 00
	00		 add	 ecx, 224		; 000000e0H
  00083	e8 00 00 00 00	 call	 ??0CStaticText@@QAE@XZ	; CStaticText::CStaticText
  00088	c6 45 fc 02	 mov	 BYTE PTR __$EHRec$[ebp+8], 2
  0008c	8b 4d f0	 mov	 ecx, DWORD PTR _this$[ebp]
  0008f	81 c1 80 01 00
	00		 add	 ecx, 384		; 00000180H
  00095	e8 00 00 00 00	 call	 ??0CStaticText@@QAE@XZ	; CStaticText::CStaticText

; 16   : 	m_pEvnet	= NULL;

  0009a	8b 4d f0	 mov	 ecx, DWORD PTR _this$[ebp]
  0009d	c7 81 20 02 00
	00 00 00 00 00	 mov	 DWORD PTR [ecx+544], 0

; 17   : 	m_pDown		= NULL;

  000a7	8b 55 f0	 mov	 edx, DWORD PTR _this$[ebp]
  000aa	c7 82 24 02 00
	00 00 00 00 00	 mov	 DWORD PTR [edx+548], 0

; 18   : }

  000b4	c7 45 fc ff ff
	ff ff		 mov	 DWORD PTR __$EHRec$[ebp+8], -1
  000bb	8b 45 f0	 mov	 eax, DWORD PTR _this$[ebp]
  000be	8b 4d f4	 mov	 ecx, DWORD PTR __$EHRec$[ebp]
  000c1	64 89 0d 00 00
	00 00		 mov	 DWORD PTR fs:__except_list, ecx
  000c8	83 c4 10	 add	 esp, 16			; 00000010H
  000cb	3b ec		 cmp	 ebp, esp
  000cd	e8 00 00 00 00	 call	 __RTC_CheckEsp
  000d2	8b e5		 mov	 esp, ebp
  000d4	5d		 pop	 ebp
  000d5	c3		 ret	 0
_TEXT	ENDS
text$x	SEGMENT
$L189424:
  00000	8b 4d f0	 mov	 ecx, DWORD PTR _this$[ebp]
  00003	e9 00 00 00 00	 jmp	 ??1CWnd@@UAE@XZ		; CWnd::~CWnd
$L189425:
  00008	8b 4d f0	 mov	 ecx, DWORD PTR _this$[ebp]
  0000b	83 c1 54	 add	 ecx, 84			; 00000054H
  0000e	e9 00 00 00 00	 jmp	 ??1CColorSlide@@UAE@XZ	; CColorSlide::~CColorSlide
$L189426:
  00013	8b 4d f0	 mov	 ecx, DWORD PTR _this$[ebp]
  00016	81 c1 e0 00 00
	00		 add	 ecx, 224		; 000000e0H
  0001c	e9 00 00 00 00	 jmp	 ??1CStaticText@@UAE@XZ	; CStaticText::~CStaticText
__ehhandler$??0CDownloadPercentWnd@@QAE@XZ:
  00021	b8 00 00 00 00	 mov	 eax, OFFSET FLAT:$T189431
  00026	e9 00 00 00 00	 jmp	 ___CxxFrameHandler
text$x	ENDS
??0CDownloadPercentWnd@@QAE@XZ ENDP			; CDownloadPercentWnd::CDownloadPercentWnd
PUBLIC	??1CDownloadPercentWnd@@UAE@XZ			; CDownloadPercentWnd::~CDownloadPercentWnd
EXTRN	??3CObject@@SGXPAX@Z:NEAR			; CObject::operator delete
; Function compile flags: /Odt /RTCsu
;	COMDAT ??_GCDownloadPercentWnd@@UAEPAXI@Z
_TEXT	SEGMENT
_this$ = -4						; size = 4
___flags$ = 8						; size = 4
??_GCDownloadPercentWnd@@UAEPAXI@Z PROC NEAR		; CDownloadPercentWnd::`scalar deleting destructor', COMDAT
; _this$ = ecx
  00000	55		 push	 ebp
  00001	8b ec		 mov	 ebp, esp
  00003	51		 push	 ecx
  00004	c7 45 fc cc cc
	cc cc		 mov	 DWORD PTR [ebp-4], -858993460 ; ccccccccH
  0000b	89 4d fc	 mov	 DWORD PTR _this$[ebp], ecx
  0000e	8b 4d fc	 mov	 ecx, DWORD PTR _this$[ebp]
  00011	e8 00 00 00 00	 call	 ??1CDownloadPercentWnd@@UAE@XZ ; CDownloadPercentWnd::~CDownloadPercentWnd
  00016	8b 45 08	 mov	 eax, DWORD PTR ___flags$[ebp]
  00019	83 e0 01	 and	 eax, 1
  0001c	74 09		 je	 SHORT $L188697
  0001e	8b 4d fc	 mov	 ecx, DWORD PTR _this$[ebp]
  00021	51		 push	 ecx
  00022	e8 00 00 00 00	 call	 ??3CObject@@SGXPAX@Z	; CObject::operator delete
$L188697:
  00027	8b 45 fc	 mov	 eax, DWORD PTR _this$[ebp]
  0002a	83 c4 04	 add	 esp, 4
  0002d	3b ec		 cmp	 ebp, esp
  0002f	e8 00 00 00 00	 call	 __RTC_CheckEsp
  00034	8b e5		 mov	 esp, ebp
  00036	5d		 pop	 ebp
  00037	c2 04 00	 ret	 4
??_GCDownloadPercentWnd@@UAEPAXI@Z ENDP			; CDownloadPercentWnd::`scalar deleting destructor'
_TEXT	ENDS
xdata$x	SEGMENT
$T189446 DD	0ffffffffH
	DD	FLAT:$L189439
	DD	00H
	DD	FLAT:$L189440
	DD	01H
	DD	FLAT:$L189441
$T189444 DD	019930520H
	DD	03H
	DD	FLAT:$T189446
	DD	2 DUP(00H)
	DD	2 DUP(00H)
; Function compile flags: /Odt /RTCsu
xdata$x	ENDS
_TEXT	SEGMENT
_this$ = -16						; size = 4
__$EHRec$ = -12						; size = 12
??1CDownloadPercentWnd@@UAE@XZ PROC NEAR		; CDownloadPercentWnd::~CDownloadPercentWnd
; _this$ = ecx

; 21   : {

  000e0	55		 push	 ebp
  000e1	8b ec		 mov	 ebp, esp
  000e3	6a ff		 push	 -1
  000e5	68 00 00 00 00	 push	 __ehhandler$??1CDownloadPercentWnd@@UAE@XZ
  000ea	64 a1 00 00 00
	00		 mov	 eax, DWORD PTR fs:__except_list
  000f0	50		 push	 eax
  000f1	64 89 25 00 00
	00 00		 mov	 DWORD PTR fs:__except_list, esp
  000f8	51		 push	 ecx
  000f9	c7 45 f0 cc cc
	cc cc		 mov	 DWORD PTR [ebp-16], -858993460 ; ccccccccH
  00100	89 4d f0	 mov	 DWORD PTR _this$[ebp], ecx
  00103	8b 45 f0	 mov	 eax, DWORD PTR _this$[ebp]
  00106	c7 00 00 00 00
	00		 mov	 DWORD PTR [eax], OFFSET FLAT:??_7CDownloadPercentWnd@@6B@
  0010c	c7 45 fc 02 00
	00 00		 mov	 DWORD PTR __$EHRec$[ebp+8], 2

; 22   : }

  00113	8b 4d f0	 mov	 ecx, DWORD PTR _this$[ebp]
  00116	81 c1 80 01 00
	00		 add	 ecx, 384		; 00000180H
  0011c	e8 00 00 00 00	 call	 ??1CStaticText@@UAE@XZ	; CStaticText::~CStaticText
  00121	c6 45 fc 01	 mov	 BYTE PTR __$EHRec$[ebp+8], 1
  00125	8b 4d f0	 mov	 ecx, DWORD PTR _this$[ebp]
  00128	81 c1 e0 00 00
	00		 add	 ecx, 224		; 000000e0H
  0012e	e8 00 00 00 00	 call	 ??1CStaticText@@UAE@XZ	; CStaticText::~CStaticText
  00133	c6 45 fc 00	 mov	 BYTE PTR __$EHRec$[ebp+8], 0
  00137	8b 4d f0	 mov	 ecx, DWORD PTR _this$[ebp]
  0013a	83 c1 54	 add	 ecx, 84			; 00000054H
  0013d	e8 00 00 00 00	 call	 ??1CColorSlide@@UAE@XZ	; CColorSlide::~CColorSlide
  00142	c7 45 fc ff ff
	ff ff		 mov	 DWORD PTR __$EHRec$[ebp+8], -1
  00149	8b 4d f0	 mov	 ecx, DWORD PTR _this$[ebp]
  0014c	e8 00 00 00 00	 call	 ??1CWnd@@UAE@XZ		; CWnd::~CWnd
  00151	8b 4d f4	 mov	 ecx, DWORD PTR __$EHRec$[ebp]
  00154	64 89 0d 00 00
	00 00		 mov	 DWORD PTR fs:__except_list, ecx
  0015b	83 c4 10	 add	 esp, 16			; 00000010H
  0015e	3b ec		 cmp	 ebp, esp
  00160	e8 00 00 00 00	 call	 __RTC_CheckEsp
  00165	8b e5		 mov	 esp, ebp
  00167	5d		 pop	 ebp
  00168	c3		 ret	 0
_TEXT	ENDS
text$x	SEGMENT
$L189439:
  0002b	8b 4d f0	 mov	 ecx, DWORD PTR _this$[ebp]
  0002e	e9 00 00 00 00	 jmp	 ??1CWnd@@UAE@XZ		; CWnd::~CWnd
$L189440:
  00033	8b 4d f0	 mov	 ecx, DWORD PTR _this$[ebp]
  00036	83 c1 54	 add	 ecx, 84			; 00000054H
  00039	e9 00 00 00 00	 jmp	 ??1CColorSlide@@UAE@XZ	; CColorSlide::~CColorSlide
$L189441:
  0003e	8b 4d f0	 mov	 ecx, DWORD PTR _this$[ebp]
  00041	81 c1 e0 00 00
	00		 add	 ecx, 224		; 000000e0H
  00047	e9 00 00 00 00	 jmp	 ??1CStaticText@@UAE@XZ	; CStaticText::~CStaticText
__ehhandler$??1CDownloadPercentWnd@@UAE@XZ:
  0004c	b8 00 00 00 00	 mov	 eax, OFFSET FLAT:$T189444
  00051	e9 00 00 00 00	 jmp	 ___CxxFrameHandler
text$x	ENDS
??1CDownloadPercentWnd@@UAE@XZ ENDP			; CDownloadPercentWnd::~CDownloadPercentWnd
PUBLIC	?GetThisMessageMap@CDownloadPercentWnd@@KGPBUAFX_MSGMAP@@XZ ; CDownloadPercentWnd::GetThisMessageMap
; Function compile flags: /Odt /RTCsu
_TEXT	SEGMENT
?GetThisMessageMap@CDownloadPercentWnd@@KGPBUAFX_MSGMAP@@XZ PROC NEAR ; CDownloadPercentWnd::GetThisMessageMap

; 24   : BEGIN_MESSAGE_MAP(CDownloadPercentWnd, CWnd)

  00170	55		 push	 ebp
  00171	8b ec		 mov	 ebp, esp
  00173	b8 00 00 00 00	 mov	 eax, OFFSET FLAT:?messageMap@CDownloadPercentWnd@@1UAFX_MSGMAP@@B ; CDownloadPercentWnd::messageMap
  00178	5d		 pop	 ebp
  00179	c3		 ret	 0
?GetThisMessageMap@CDownloadPercentWnd@@KGPBUAFX_MSGMAP@@XZ ENDP ; CDownloadPercentWnd::GetThisMessageMap
; Function compile flags: /Odt /RTCsu
_this$ = -4						; size = 4
?GetMessageMap@CDownloadPercentWnd@@MBEPBUAFX_MSGMAP@@XZ PROC NEAR ; CDownloadPercentWnd::GetMessageMap
; _this$ = ecx

; 24   : BEGIN_MESSAGE_MAP(CDownloadPercentWnd, CWnd)

  00180	55		 push	 ebp
  00181	8b ec		 mov	 ebp, esp
  00183	51		 push	 ecx
  00184	c7 45 fc cc cc
	cc cc		 mov	 DWORD PTR [ebp-4], -858993460 ; ccccccccH
  0018b	89 4d fc	 mov	 DWORD PTR _this$[ebp], ecx
  0018e	b8 00 00 00 00	 mov	 eax, OFFSET FLAT:?messageMap@CDownloadPercentWnd@@1UAFX_MSGMAP@@B ; CDownloadPercentWnd::messageMap
  00193	8b e5		 mov	 esp, ebp
  00195	5d		 pop	 ebp
  00196	c3		 ret	 0
?GetMessageMap@CDownloadPercentWnd@@MBEPBUAFX_MSGMAP@@XZ ENDP ; CDownloadPercentWnd::GetMessageMap
_TEXT	ENDS
EXTRN	@_RTC_CheckStackVars@8:NEAR
EXTRN	?AfxGetUIManager@@YAPAVIUIManager@@XZ:NEAR	; AfxGetUIManager
EXTRN	?OnCreate@CWnd@@IAEHPAUtagCREATESTRUCTA@@@Z:NEAR ; CWnd::OnCreate
EXTRN	??0CRect@@QAE@XZ:NEAR				; CRect::CRect
EXTRN	?GetClientRect@CWnd@@QBEXPAUtagRECT@@@Z:NEAR	; CWnd::GetClientRect
EXTRN	?SetSliderCtrlType@CColorSlide@@QAEXW4ColorSlideType@@@Z:NEAR ; CColorSlide::SetSliderCtrlType
EXTRN	?SetRange@CColorSlide@@QAEXHH@Z:NEAR		; CColorSlide::SetRange
EXTRN	?SetBKColor@CColorSlide@@QAEXKKI@Z:NEAR		; CColorSlide::SetBKColor
EXTRN	?ShowWindow@CWnd@@QAEHH@Z:NEAR			; CWnd::ShowWindow
; Function compile flags: /Odt /RTCsu
_TEXT	SEGMENT
tv187 = -124						; size = 4
tv182 = -120						; size = 4
tv155 = -116						; size = 4
tv150 = -112						; size = 4
tv79 = -108						; size = 4
tv74 = -104						; size = 4
_percentRect$ = -96					; size = 16
_hintRect$ = -72					; size = 16
_slideRect$ = -48					; size = 16
_clientlRect$ = -24					; size = 16
_this$ = -4						; size = 4
_lpCreateStruct$ = 8					; size = 4
?OnCreate@CDownloadPercentWnd@@QAEHPAUtagCREATESTRUCTA@@@Z PROC NEAR ; CDownloadPercentWnd::OnCreate
; _this$ = ecx

; 33   : {

  001a0	55		 push	 ebp
  001a1	8b ec		 mov	 ebp, esp
  001a3	83 ec 7c	 sub	 esp, 124		; 0000007cH
  001a6	56		 push	 esi
  001a7	57		 push	 edi
  001a8	51		 push	 ecx
  001a9	8d 7d 84	 lea	 edi, DWORD PTR [ebp-124]
  001ac	b9 1f 00 00 00	 mov	 ecx, 31			; 0000001fH
  001b1	b8 cc cc cc cc	 mov	 eax, -858993460		; ccccccccH
  001b6	f3 ab		 rep stosd
  001b8	59		 pop	 ecx
  001b9	89 4d fc	 mov	 DWORD PTR _this$[ebp], ecx

; 34   : 	if (CWnd::OnCreate(lpCreateStruct) == -1)

  001bc	8b 45 08	 mov	 eax, DWORD PTR _lpCreateStruct$[ebp]
  001bf	50		 push	 eax
  001c0	8b 4d fc	 mov	 ecx, DWORD PTR _this$[ebp]
  001c3	e8 00 00 00 00	 call	 ?OnCreate@CWnd@@IAEHPAUtagCREATESTRUCTA@@@Z ; CWnd::OnCreate
  001c8	83 f8 ff	 cmp	 eax, -1
  001cb	75 08		 jne	 SHORT $L188733

; 35   : 		return -1;

  001cd	83 c8 ff	 or	 eax, -1
  001d0	e9 87 02 00 00	 jmp	 $L188732
$L188733:

; 36   : 
; 37   : 	CRect clientlRect;

  001d5	8d 4d e8	 lea	 ecx, DWORD PTR _clientlRect$[ebp]
  001d8	e8 00 00 00 00	 call	 ??0CRect@@QAE@XZ	; CRect::CRect

; 38   : 	GetClientRect( &clientlRect );

  001dd	8d 4d e8	 lea	 ecx, DWORD PTR _clientlRect$[ebp]
  001e0	51		 push	 ecx
  001e1	8b 4d fc	 mov	 ecx, DWORD PTR _this$[ebp]
  001e4	e8 00 00 00 00	 call	 ?GetClientRect@CWnd@@QBEXPAUtagRECT@@@Z ; CWnd::GetClientRect

; 39   : 
; 40   : 	CRect slideRect;

  001e9	8d 4d d0	 lea	 ecx, DWORD PTR _slideRect$[ebp]
  001ec	e8 00 00 00 00	 call	 ??0CRect@@QAE@XZ	; CRect::CRect

; 41   : 	slideRect = clientlRect;

  001f1	8b 55 e8	 mov	 edx, DWORD PTR _clientlRect$[ebp]
  001f4	89 55 d0	 mov	 DWORD PTR _slideRect$[ebp], edx
  001f7	8b 45 ec	 mov	 eax, DWORD PTR _clientlRect$[ebp+4]
  001fa	89 45 d4	 mov	 DWORD PTR _slideRect$[ebp+4], eax
  001fd	8b 4d f0	 mov	 ecx, DWORD PTR _clientlRect$[ebp+8]
  00200	89 4d d8	 mov	 DWORD PTR _slideRect$[ebp+8], ecx
  00203	8b 55 f4	 mov	 edx, DWORD PTR _clientlRect$[ebp+12]
  00206	89 55 dc	 mov	 DWORD PTR _slideRect$[ebp+12], edx

; 42   : 
; 43   : 	if( AfxGetUIManager()->UIGetLayoutMgr()->GetDisplayMode() == DISPLAY_SEPERATE_MODE )

  00209	e8 00 00 00 00	 call	 ?AfxGetUIManager@@YAPAVIUIManager@@XZ ; AfxGetUIManager
  0020e	89 45 98	 mov	 DWORD PTR tv74[ebp], eax
  00211	8b 45 98	 mov	 eax, DWORD PTR tv74[ebp]
  00214	8b 10		 mov	 edx, DWORD PTR [eax]
  00216	8b f4		 mov	 esi, esp
  00218	8b 4d 98	 mov	 ecx, DWORD PTR tv74[ebp]
  0021b	ff 52 24	 call	 DWORD PTR [edx+36]
  0021e	3b f4		 cmp	 esi, esp
  00220	e8 00 00 00 00	 call	 __RTC_CheckEsp
  00225	89 45 94	 mov	 DWORD PTR tv79[ebp], eax
  00228	8b 45 94	 mov	 eax, DWORD PTR tv79[ebp]
  0022b	8b 10		 mov	 edx, DWORD PTR [eax]
  0022d	8b f4		 mov	 esi, esp
  0022f	8b 4d 94	 mov	 ecx, DWORD PTR tv79[ebp]
  00232	ff 52 7c	 call	 DWORD PTR [edx+124]
  00235	3b f4		 cmp	 esi, esp
  00237	e8 00 00 00 00	 call	 __RTC_CheckEsp
  0023c	85 c0		 test	 eax, eax
  0023e	75 0b		 jne	 SHORT $L188736

; 44   : 	{
; 45   : 		slideRect.top += 5;

  00240	8b 45 d4	 mov	 eax, DWORD PTR _slideRect$[ebp+4]
  00243	83 c0 05	 add	 eax, 5
  00246	89 45 d4	 mov	 DWORD PTR _slideRect$[ebp+4], eax

; 46   : 	}
; 47   : 	else

  00249	eb 09		 jmp	 SHORT $L188737
$L188736:

; 48   : 	{
; 49   : 		slideRect.top += 15;

  0024b	8b 4d d4	 mov	 ecx, DWORD PTR _slideRect$[ebp+4]
  0024e	83 c1 0f	 add	 ecx, 15			; 0000000fH
  00251	89 4d d4	 mov	 DWORD PTR _slideRect$[ebp+4], ecx
$L188737:

; 50   : 	}
; 51   : 	slideRect.left += 15;

  00254	8b 55 d0	 mov	 edx, DWORD PTR _slideRect$[ebp]
  00257	83 c2 0f	 add	 edx, 15			; 0000000fH
  0025a	89 55 d0	 mov	 DWORD PTR _slideRect$[ebp], edx

; 52   : 	slideRect.bottom = slideRect.top + 10;

  0025d	8b 45 d4	 mov	 eax, DWORD PTR _slideRect$[ebp+4]
  00260	83 c0 0a	 add	 eax, 10			; 0000000aH
  00263	89 45 dc	 mov	 DWORD PTR _slideRect$[ebp+12], eax

; 53   : 	slideRect.right -= 25;

  00266	8b 4d d8	 mov	 ecx, DWORD PTR _slideRect$[ebp+8]
  00269	83 e9 19	 sub	 ecx, 25			; 00000019H
  0026c	89 4d d8	 mov	 DWORD PTR _slideRect$[ebp+8], ecx

; 54   : 
; 55   : 	m_downLoadSlide.Create( WS_VISIBLE|WS_CHILD, slideRect, this, 10000-6 );

  0026f	8b f4		 mov	 esi, esp
  00271	68 0a 27 00 00	 push	 9994			; 0000270aH
  00276	8b 55 fc	 mov	 edx, DWORD PTR _this$[ebp]
  00279	52		 push	 edx
  0027a	8d 45 d0	 lea	 eax, DWORD PTR _slideRect$[ebp]
  0027d	50		 push	 eax
  0027e	68 00 00 00 50	 push	 1342177280		; 50000000H
  00283	8b 4d fc	 mov	 ecx, DWORD PTR _this$[ebp]
  00286	83 c1 54	 add	 ecx, 84			; 00000054H
  00289	8b 55 fc	 mov	 edx, DWORD PTR _this$[ebp]
  0028c	8b 42 54	 mov	 eax, DWORD PTR [edx+84]
  0028f	ff 90 38 01 00
	00		 call	 DWORD PTR [eax+312]
  00295	3b f4		 cmp	 esi, esp
  00297	e8 00 00 00 00	 call	 __RTC_CheckEsp

; 56   : 	m_downLoadSlide.SetSliderCtrlType( PERCENT_SLIDE );

  0029c	6a 00		 push	 0
  0029e	8b 4d fc	 mov	 ecx, DWORD PTR _this$[ebp]
  002a1	83 c1 54	 add	 ecx, 84			; 00000054H
  002a4	e8 00 00 00 00	 call	 ?SetSliderCtrlType@CColorSlide@@QAEXW4ColorSlideType@@@Z ; CColorSlide::SetSliderCtrlType

; 57   : 	m_downLoadSlide.SetBKColor( RGB(31,233,29),RGB(243,243,243),0 );

  002a9	6a 00		 push	 0
  002ab	68 f3 f3 f3 00	 push	 15987699		; 00f3f3f3H
  002b0	68 1f e9 1d 00	 push	 1960223			; 001de91fH
  002b5	8b 4d fc	 mov	 ecx, DWORD PTR _this$[ebp]
  002b8	83 c1 54	 add	 ecx, 84			; 00000054H
  002bb	e8 00 00 00 00	 call	 ?SetBKColor@CColorSlide@@QAEXKKI@Z ; CColorSlide::SetBKColor

; 58   : 	m_downLoadSlide.SetRange( 0, 100 );

  002c0	6a 64		 push	 100			; 00000064H
  002c2	6a 00		 push	 0
  002c4	8b 4d fc	 mov	 ecx, DWORD PTR _this$[ebp]
  002c7	83 c1 54	 add	 ecx, 84			; 00000054H
  002ca	e8 00 00 00 00	 call	 ?SetRange@CColorSlide@@QAEXHH@Z ; CColorSlide::SetRange

; 59   : 	m_downLoadSlide.ShowWindow( SW_SHOW );

  002cf	6a 05		 push	 5
  002d1	8b 4d fc	 mov	 ecx, DWORD PTR _this$[ebp]
  002d4	83 c1 54	 add	 ecx, 84			; 00000054H
  002d7	e8 00 00 00 00	 call	 ?ShowWindow@CWnd@@QAEHH@Z ; CWnd::ShowWindow

; 60   : 
; 61   : 	CRect hintRect;

  002dc	8d 4d b8	 lea	 ecx, DWORD PTR _hintRect$[ebp]
  002df	e8 00 00 00 00	 call	 ??0CRect@@QAE@XZ	; CRect::CRect

; 62   : 	hintRect = clientlRect;

  002e4	8b 4d e8	 mov	 ecx, DWORD PTR _clientlRect$[ebp]
  002e7	89 4d b8	 mov	 DWORD PTR _hintRect$[ebp], ecx
  002ea	8b 55 ec	 mov	 edx, DWORD PTR _clientlRect$[ebp+4]
  002ed	89 55 bc	 mov	 DWORD PTR _hintRect$[ebp+4], edx
  002f0	8b 45 f0	 mov	 eax, DWORD PTR _clientlRect$[ebp+8]
  002f3	89 45 c0	 mov	 DWORD PTR _hintRect$[ebp+8], eax
  002f6	8b 4d f4	 mov	 ecx, DWORD PTR _clientlRect$[ebp+12]
  002f9	89 4d c4	 mov	 DWORD PTR _hintRect$[ebp+12], ecx

; 63   : 	if( AfxGetUIManager()->UIGetLayoutMgr()->GetDisplayMode() == DISPLAY_SEPERATE_MODE )

  002fc	e8 00 00 00 00	 call	 ?AfxGetUIManager@@YAPAVIUIManager@@XZ ; AfxGetUIManager
  00301	89 45 90	 mov	 DWORD PTR tv150[ebp], eax
  00304	8b 55 90	 mov	 edx, DWORD PTR tv150[ebp]
  00307	8b 02		 mov	 eax, DWORD PTR [edx]
  00309	8b f4		 mov	 esi, esp
  0030b	8b 4d 90	 mov	 ecx, DWORD PTR tv150[ebp]
  0030e	ff 50 24	 call	 DWORD PTR [eax+36]
  00311	3b f4		 cmp	 esi, esp
  00313	e8 00 00 00 00	 call	 __RTC_CheckEsp
  00318	89 45 8c	 mov	 DWORD PTR tv155[ebp], eax
  0031b	8b 4d 8c	 mov	 ecx, DWORD PTR tv155[ebp]
  0031e	8b 11		 mov	 edx, DWORD PTR [ecx]
  00320	8b f4		 mov	 esi, esp
  00322	8b 4d 8c	 mov	 ecx, DWORD PTR tv155[ebp]
  00325	ff 52 7c	 call	 DWORD PTR [edx+124]
  00328	3b f4		 cmp	 esi, esp
  0032a	e8 00 00 00 00	 call	 __RTC_CheckEsp
  0032f	85 c0		 test	 eax, eax
  00331	75 0b		 jne	 SHORT $L188751

; 64   : 	{
; 65   : 		hintRect.top += 18;

  00333	8b 45 bc	 mov	 eax, DWORD PTR _hintRect$[ebp+4]
  00336	83 c0 12	 add	 eax, 18			; 00000012H
  00339	89 45 bc	 mov	 DWORD PTR _hintRect$[ebp+4], eax

; 66   : 	}
; 67   : 	else

  0033c	eb 09		 jmp	 SHORT $L188752
$L188751:

; 68   : 	{
; 69   : 		hintRect.top += 33;

  0033e	8b 4d bc	 mov	 ecx, DWORD PTR _hintRect$[ebp+4]
  00341	83 c1 21	 add	 ecx, 33			; 00000021H
  00344	89 4d bc	 mov	 DWORD PTR _hintRect$[ebp+4], ecx
$L188752:

; 70   : 	}
; 71   : 	hintRect.left += 18;

  00347	8b 55 b8	 mov	 edx, DWORD PTR _hintRect$[ebp]
  0034a	83 c2 12	 add	 edx, 18			; 00000012H
  0034d	89 55 b8	 mov	 DWORD PTR _hintRect$[ebp], edx

; 72   : 	hintRect.bottom = hintRect.top + 13;

  00350	8b 45 bc	 mov	 eax, DWORD PTR _hintRect$[ebp+4]
  00353	83 c0 0d	 add	 eax, 13			; 0000000dH
  00356	89 45 c4	 mov	 DWORD PTR _hintRect$[ebp+12], eax

; 73   : 
; 74   : 	m_textHit.Create( NULL, 5, hintRect, this, 10000-7 );

  00359	8b f4		 mov	 esi, esp
  0035b	68 09 27 00 00	 push	 9993			; 00002709H
  00360	8b 4d fc	 mov	 ecx, DWORD PTR _this$[ebp]
  00363	51		 push	 ecx
  00364	8d 55 b8	 lea	 edx, DWORD PTR _hintRect$[ebp]
  00367	52		 push	 edx
  00368	6a 05		 push	 5
  0036a	6a 00		 push	 0
  0036c	8b 4d fc	 mov	 ecx, DWORD PTR _this$[ebp]
  0036f	81 c1 80 01 00
	00		 add	 ecx, 384		; 00000180H
  00375	8b 45 fc	 mov	 eax, DWORD PTR _this$[ebp]
  00378	8b 90 80 01 00
	00		 mov	 edx, DWORD PTR [eax+384]
  0037e	ff 92 38 01 00
	00		 call	 DWORD PTR [edx+312]
  00384	3b f4		 cmp	 esi, esp
  00386	e8 00 00 00 00	 call	 __RTC_CheckEsp

; 75   : 	m_textHit.ShowWindow(SW_SHOW);

  0038b	6a 05		 push	 5
  0038d	8b 4d fc	 mov	 ecx, DWORD PTR _this$[ebp]
  00390	81 c1 80 01 00
	00		 add	 ecx, 384		; 00000180H
  00396	e8 00 00 00 00	 call	 ?ShowWindow@CWnd@@QAEHH@Z ; CWnd::ShowWindow

; 76   : 
; 77   : 	CRect percentRect;

  0039b	8d 4d a0	 lea	 ecx, DWORD PTR _percentRect$[ebp]
  0039e	e8 00 00 00 00	 call	 ??0CRect@@QAE@XZ	; CRect::CRect

; 78   : 	percentRect = clientlRect;

  003a3	8b 45 e8	 mov	 eax, DWORD PTR _clientlRect$[ebp]
  003a6	89 45 a0	 mov	 DWORD PTR _percentRect$[ebp], eax
  003a9	8b 4d ec	 mov	 ecx, DWORD PTR _clientlRect$[ebp+4]
  003ac	89 4d a4	 mov	 DWORD PTR _percentRect$[ebp+4], ecx
  003af	8b 55 f0	 mov	 edx, DWORD PTR _clientlRect$[ebp+8]
  003b2	89 55 a8	 mov	 DWORD PTR _percentRect$[ebp+8], edx
  003b5	8b 45 f4	 mov	 eax, DWORD PTR _clientlRect$[ebp+12]
  003b8	89 45 ac	 mov	 DWORD PTR _percentRect$[ebp+12], eax

; 79   : 	if( AfxGetUIManager()->UIGetLayoutMgr()->GetDisplayMode() == DISPLAY_SEPERATE_MODE )

  003bb	e8 00 00 00 00	 call	 ?AfxGetUIManager@@YAPAVIUIManager@@XZ ; AfxGetUIManager
  003c0	89 45 88	 mov	 DWORD PTR tv182[ebp], eax
  003c3	8b 4d 88	 mov	 ecx, DWORD PTR tv182[ebp]
  003c6	8b 11		 mov	 edx, DWORD PTR [ecx]
  003c8	8b f4		 mov	 esi, esp
  003ca	8b 4d 88	 mov	 ecx, DWORD PTR tv182[ebp]
  003cd	ff 52 24	 call	 DWORD PTR [edx+36]
  003d0	3b f4		 cmp	 esi, esp
  003d2	e8 00 00 00 00	 call	 __RTC_CheckEsp
  003d7	89 45 84	 mov	 DWORD PTR tv187[ebp], eax
  003da	8b 45 84	 mov	 eax, DWORD PTR tv187[ebp]
  003dd	8b 10		 mov	 edx, DWORD PTR [eax]
  003df	8b f4		 mov	 esi, esp
  003e1	8b 4d 84	 mov	 ecx, DWORD PTR tv187[ebp]
  003e4	ff 52 7c	 call	 DWORD PTR [edx+124]
  003e7	3b f4		 cmp	 esi, esp
  003e9	e8 00 00 00 00	 call	 __RTC_CheckEsp
  003ee	85 c0		 test	 eax, eax
  003f0	75 0b		 jne	 SHORT $L188754

; 80   : 	{
; 81   : 		percentRect.top += 5;

  003f2	8b 45 a4	 mov	 eax, DWORD PTR _percentRect$[ebp+4]
  003f5	83 c0 05	 add	 eax, 5
  003f8	89 45 a4	 mov	 DWORD PTR _percentRect$[ebp+4], eax

; 82   : 	}
; 83   : 	else

  003fb	eb 09		 jmp	 SHORT $L188755
$L188754:

; 84   : 	{
; 85   : 		percentRect.top += 15;

  003fd	8b 4d a4	 mov	 ecx, DWORD PTR _percentRect$[ebp+4]
  00400	83 c1 0f	 add	 ecx, 15			; 0000000fH
  00403	89 4d a4	 mov	 DWORD PTR _percentRect$[ebp+4], ecx
$L188755:

; 86   : 	}
; 87   : 
; 88   : 	percentRect.bottom = percentRect.top + 13;

  00406	8b 55 a4	 mov	 edx, DWORD PTR _percentRect$[ebp+4]
  00409	83 c2 0d	 add	 edx, 13			; 0000000dH
  0040c	89 55 ac	 mov	 DWORD PTR _percentRect$[ebp+12], edx

; 89   : 	percentRect.left = percentRect.right - 25;

  0040f	8b 45 a8	 mov	 eax, DWORD PTR _percentRect$[ebp+8]
  00412	83 e8 19	 sub	 eax, 25			; 00000019H
  00415	89 45 a0	 mov	 DWORD PTR _percentRect$[ebp], eax

; 90   : 		
; 91   : 	m_textPercent.Create( NULL, 5, percentRect, this, 10000-8 );

  00418	8b f4		 mov	 esi, esp
  0041a	68 08 27 00 00	 push	 9992			; 00002708H
  0041f	8b 4d fc	 mov	 ecx, DWORD PTR _this$[ebp]
  00422	51		 push	 ecx
  00423	8d 55 a0	 lea	 edx, DWORD PTR _percentRect$[ebp]
  00426	52		 push	 edx
  00427	6a 05		 push	 5
  00429	6a 00		 push	 0
  0042b	8b 4d fc	 mov	 ecx, DWORD PTR _this$[ebp]
  0042e	81 c1 e0 00 00
	00		 add	 ecx, 224		; 000000e0H
  00434	8b 45 fc	 mov	 eax, DWORD PTR _this$[ebp]
  00437	8b 90 e0 00 00
	00		 mov	 edx, DWORD PTR [eax+224]
  0043d	ff 92 38 01 00
	00		 call	 DWORD PTR [edx+312]
  00443	3b f4		 cmp	 esi, esp
  00445	e8 00 00 00 00	 call	 __RTC_CheckEsp

; 92   : 	m_textPercent.ShowWindow(SW_SHOW);

  0044a	6a 05		 push	 5
  0044c	8b 4d fc	 mov	 ecx, DWORD PTR _this$[ebp]
  0044f	81 c1 e0 00 00
	00		 add	 ecx, 224		; 000000e0H
  00455	e8 00 00 00 00	 call	 ?ShowWindow@CWnd@@QAEHH@Z ; CWnd::ShowWindow

; 93   : 	return 0;

  0045a	33 c0		 xor	 eax, eax
$L188732:

; 94   : }

  0045c	52		 push	 edx
  0045d	8b cd		 mov	 ecx, ebp
  0045f	50		 push	 eax
  00460	8d 15 00 00 00
	00		 lea	 edx, DWORD PTR $L189455
  00466	e8 00 00 00 00	 call	 @_RTC_CheckStackVars@8
  0046b	58		 pop	 eax
  0046c	5a		 pop	 edx
  0046d	5f		 pop	 edi
  0046e	5e		 pop	 esi
  0046f	83 c4 7c	 add	 esp, 124		; 0000007cH
  00472	3b ec		 cmp	 ebp, esp
  00474	e8 00 00 00 00	 call	 __RTC_CheckEsp
  00479	8b e5		 mov	 esp, ebp
  0047b	5d		 pop	 ebp
  0047c	c2 04 00	 ret	 4
$L189455:
  0047f	04 00 00 00	 DD	 4
  00483	00 00 00 00	 DD	 $L189454
$L189454:
  00487	e8 ff ff ff	 DD	 -24			; ffffffe8H
  0048b	10 00 00 00	 DD	 16			; 00000010H
  0048f	00 00 00 00	 DD	 $L189450
  00493	d0 ff ff ff	 DD	 -48			; ffffffd0H
  00497	10 00 00 00	 DD	 16			; 00000010H
  0049b	00 00 00 00	 DD	 $L189451
  0049f	b8 ff ff ff	 DD	 -72			; ffffffb8H
  004a3	10 00 00 00	 DD	 16			; 00000010H
  004a7	00 00 00 00	 DD	 $L189452
  004ab	a0 ff ff ff	 DD	 -96			; ffffffa0H
  004af	10 00 00 00	 DD	 16			; 00000010H
  004b3	00 00 00 00	 DD	 $L189453
$L189453:
  004b7	70		 DB	 112			; 00000070H
  004b8	65		 DB	 101			; 00000065H
  004b9	72		 DB	 114			; 00000072H
  004ba	63		 DB	 99			; 00000063H
  004bb	65		 DB	 101			; 00000065H
  004bc	6e		 DB	 110			; 0000006eH
  004bd	74		 DB	 116			; 00000074H
  004be	52		 DB	 82			; 00000052H
  004bf	65		 DB	 101			; 00000065H
  004c0	63		 DB	 99			; 00000063H
  004c1	74		 DB	 116			; 00000074H
  004c2	00		 DB	 0
$L189452:
  004c3	68		 DB	 104			; 00000068H
  004c4	69		 DB	 105			; 00000069H
  004c5	6e		 DB	 110			; 0000006eH
  004c6	74		 DB	 116			; 00000074H
  004c7	52		 DB	 82			; 00000052H
  004c8	65		 DB	 101			; 00000065H
  004c9	63		 DB	 99			; 00000063H
  004ca	74		 DB	 116			; 00000074H
  004cb	00		 DB	 0
$L189451:
  004cc	73		 DB	 115			; 00000073H
  004cd	6c		 DB	 108			; 0000006cH
  004ce	69		 DB	 105			; 00000069H
  004cf	64		 DB	 100			; 00000064H
  004d0	65		 DB	 101			; 00000065H
  004d1	52		 DB	 82			; 00000052H
  004d2	65		 DB	 101			; 00000065H
  004d3	63		 DB	 99			; 00000063H
  004d4	74		 DB	 116			; 00000074H
  004d5	00		 DB	 0
$L189450:
  004d6	63		 DB	 99			; 00000063H
  004d7	6c		 DB	 108			; 0000006cH
  004d8	69		 DB	 105			; 00000069H
  004d9	65		 DB	 101			; 00000065H
  004da	6e		 DB	 110			; 0000006eH
  004db	74		 DB	 116			; 00000074H
  004dc	6c		 DB	 108			; 0000006cH
  004dd	52		 DB	 82			; 00000052H
  004de	65		 DB	 101			; 00000065H
  004df	63		 DB	 99			; 00000063H
  004e0	74		 DB	 116			; 00000074H
  004e1	00		 DB	 0
?OnCreate@CDownloadPercentWnd@@QAEHPAUtagCREATESTRUCTA@@@Z ENDP ; CDownloadPercentWnd::OnCreate
_TEXT	ENDS
PUBLIC	?SetDownloadHit@CDownloadPercentWnd@@QAEXV?$CStringT@DV?$StrTraitMFC_DLL@DV?$ChTraitsCRT@D@ATL@@@@@ATL@@@Z ; CDownloadPercentWnd::SetDownloadHit
EXTRN	?SetWindowTextA@CWnd@@QAEXPBD@Z:NEAR		; CWnd::SetWindowTextA
EXTRN	__imp_??B?$CSimpleStringT@D$00@ATL@@QBEPBDXZ:NEAR
EXTRN	__imp_??1?$CStringT@DV?$StrTraitMFC_DLL@DV?$ChTraitsCRT@D@ATL@@@@@ATL@@QAE@XZ:NEAR
xdata$x	SEGMENT
$T189462 DD	0ffffffffH
	DD	FLAT:$L189458
$T189460 DD	019930520H
	DD	01H
	DD	FLAT:$T189462
	DD	2 DUP(00H)
	DD	2 DUP(00H)
; Function compile flags: /Odt /RTCsu
xdata$x	ENDS
_TEXT	SEGMENT
_this$ = -16						; size = 4
__$EHRec$ = -12						; size = 12
_str$ = 8						; size = 4
?SetDownloadHit@CDownloadPercentWnd@@QAEXV?$CStringT@DV?$StrTraitMFC_DLL@DV?$ChTraitsCRT@D@ATL@@@@@ATL@@@Z PROC NEAR ; CDownloadPercentWnd::SetDownloadHit
; _this$ = ecx

; 96   : {

  004f0	55		 push	 ebp
  004f1	8b ec		 mov	 ebp, esp
  004f3	6a ff		 push	 -1
  004f5	68 00 00 00 00	 push	 __ehhandler$?SetDownloadHit@CDownloadPercentWnd@@QAEXV?$CStringT@DV?$StrTraitMFC_DLL@DV?$ChTraitsCRT@D@ATL@@@@@ATL@@@Z
  004fa	64 a1 00 00 00
	00		 mov	 eax, DWORD PTR fs:__except_list
  00500	50		 push	 eax
  00501	64 89 25 00 00
	00 00		 mov	 DWORD PTR fs:__except_list, esp
  00508	51		 push	 ecx
  00509	56		 push	 esi
  0050a	c7 45 f0 cc cc
	cc cc		 mov	 DWORD PTR [ebp-16], -858993460 ; ccccccccH
  00511	89 4d f0	 mov	 DWORD PTR _this$[ebp], ecx
  00514	c7 45 fc 00 00
	00 00		 mov	 DWORD PTR __$EHRec$[ebp+8], 0

; 97   : 	m_textHit.SetWindowText( str );

  0051b	8b f4		 mov	 esi, esp
  0051d	8d 4d 08	 lea	 ecx, DWORD PTR _str$[ebp]
  00520	ff 15 00 00 00
	00		 call	 DWORD PTR __imp_??B?$CSimpleStringT@D$00@ATL@@QBEPBDXZ
  00526	3b f4		 cmp	 esi, esp
  00528	e8 00 00 00 00	 call	 __RTC_CheckEsp
  0052d	50		 push	 eax
  0052e	8b 4d f0	 mov	 ecx, DWORD PTR _this$[ebp]
  00531	81 c1 80 01 00
	00		 add	 ecx, 384		; 00000180H
  00537	e8 00 00 00 00	 call	 ?SetWindowTextA@CWnd@@QAEXPBD@Z ; CWnd::SetWindowTextA

; 98   : }

  0053c	c7 45 fc ff ff
	ff ff		 mov	 DWORD PTR __$EHRec$[ebp+8], -1
  00543	8b f4		 mov	 esi, esp
  00545	8d 4d 08	 lea	 ecx, DWORD PTR _str$[ebp]
  00548	ff 15 00 00 00
	00		 call	 DWORD PTR __imp_??1?$CStringT@DV?$StrTraitMFC_DLL@DV?$ChTraitsCRT@D@ATL@@@@@ATL@@QAE@XZ
  0054e	3b f4		 cmp	 esi, esp
  00550	e8 00 00 00 00	 call	 __RTC_CheckEsp
  00555	8b 4d f4	 mov	 ecx, DWORD PTR __$EHRec$[ebp]
  00558	64 89 0d 00 00
	00 00		 mov	 DWORD PTR fs:__except_list, ecx
  0055f	5e		 pop	 esi
  00560	83 c4 10	 add	 esp, 16			; 00000010H
  00563	3b ec		 cmp	 ebp, esp
  00565	e8 00 00 00 00	 call	 __RTC_CheckEsp
  0056a	8b e5		 mov	 esp, ebp
  0056c	5d		 pop	 ebp
  0056d	c2 04 00	 ret	 4
_TEXT	ENDS
text$x	SEGMENT
$L189458:
  00056	8b f4		 mov	 esi, esp
  00058	8d 4d 08	 lea	 ecx, DWORD PTR _str$[ebp]
  0005b	ff 15 00 00 00
	00		 call	 DWORD PTR __imp_??1?$CStringT@DV?$StrTraitMFC_DLL@DV?$ChTraitsCRT@D@ATL@@@@@ATL@@QAE@XZ
  00061	3b f4		 cmp	 esi, esp
  00063	e9 00 00 00 00	 jmp	 __RTC_CheckEsp
__ehhandler$?SetDownloadHit@CDownloadPercentWnd@@QAEXV?$CStringT@DV?$StrTraitMFC_DLL@DV?$ChTraitsCRT@D@ATL@@@@@ATL@@@Z:
  00068	b8 00 00 00 00	 mov	 eax, OFFSET FLAT:$T189460
  0006d	e9 00 00 00 00	 jmp	 ___CxxFrameHandler
text$x	ENDS
?SetDownloadHit@CDownloadPercentWnd@@QAEXV?$CStringT@DV?$StrTraitMFC_DLL@DV?$ChTraitsCRT@D@ATL@@@@@ATL@@@Z ENDP ; CDownloadPercentWnd::SetDownloadHit
PUBLIC	?SetDownloadPercent@CDownloadPercentWnd@@QAEXH@Z ; CDownloadPercentWnd::SetDownloadPercent
EXTRN	__imp_?Format@?$CStringT@DV?$StrTraitMFC_DLL@DV?$ChTraitsCRT@D@ATL@@@@@ATL@@QAAXPBDZZ:NEAR
EXTRN	?SetButtonPos@CColorSlide@@QAEXH@Z:NEAR		; CColorSlide::SetButtonPos
EXTRN	__imp_??0?$CStringT@DV?$StrTraitMFC_DLL@DV?$ChTraitsCRT@D@ATL@@@@@ATL@@QAE@XZ:NEAR
EXTRN	__imp_??Y?$CStringT@DV?$StrTraitMFC_DLL@DV?$ChTraitsCRT@D@ATL@@@@@ATL@@QAEAAV01@PBD@Z:NEAR
xdata$x	SEGMENT
$T189471 DD	0ffffffffH
	DD	FLAT:$L189464
$T189466 DD	019930520H
	DD	01H
	DD	FLAT:$T189471
	DD	2 DUP(00H)
	DD	2 DUP(00H)
; Function compile flags: /Odt /RTCsu
xdata$x	ENDS
_TEXT	SEGMENT
_str$ = -24						; size = 4
_this$ = -16						; size = 4
__$EHRec$ = -12						; size = 12
_percentage$ = 8					; size = 4
?SetDownloadPercent@CDownloadPercentWnd@@QAEXH@Z PROC NEAR ; CDownloadPercentWnd::SetDownloadPercent
; _this$ = ecx

; 101  : {

  00570	55		 push	 ebp
  00571	8b ec		 mov	 ebp, esp
  00573	6a ff		 push	 -1
  00575	68 00 00 00 00	 push	 __ehhandler$?SetDownloadPercent@CDownloadPercentWnd@@QAEXH@Z
  0057a	64 a1 00 00 00
	00		 mov	 eax, DWORD PTR fs:__except_list
  00580	50		 push	 eax
  00581	64 89 25 00 00
	00 00		 mov	 DWORD PTR fs:__except_list, esp
  00588	83 ec 10	 sub	 esp, 16			; 00000010H
  0058b	56		 push	 esi
  0058c	b8 cc cc cc cc	 mov	 eax, -858993460		; ccccccccH
  00591	89 45 e4	 mov	 DWORD PTR [ebp-28], eax
  00594	89 45 e8	 mov	 DWORD PTR [ebp-24], eax
  00597	89 45 ec	 mov	 DWORD PTR [ebp-20], eax
  0059a	89 45 f0	 mov	 DWORD PTR [ebp-16], eax
  0059d	89 4d f0	 mov	 DWORD PTR _this$[ebp], ecx

; 102  : 	if( ( percentage<0)||(percentage>100) ) 

  005a0	83 7d 08 00	 cmp	 DWORD PTR _percentage$[ebp], 0
  005a4	7c 06		 jl	 SHORT $L188765
  005a6	83 7d 08 64	 cmp	 DWORD PTR _percentage$[ebp], 100 ; 00000064H
  005aa	7e 05		 jle	 SHORT $L188764
$L188765:

; 103  : 		return;

  005ac	e9 98 00 00 00	 jmp	 $L188763
$L188764:

; 104  : 	CString str;

  005b1	8b f4		 mov	 esi, esp
  005b3	8d 4d e8	 lea	 ecx, DWORD PTR _str$[ebp]
  005b6	ff 15 00 00 00
	00		 call	 DWORD PTR __imp_??0?$CStringT@DV?$StrTraitMFC_DLL@DV?$ChTraitsCRT@D@ATL@@@@@ATL@@QAE@XZ
  005bc	3b f4		 cmp	 esi, esp
  005be	e8 00 00 00 00	 call	 __RTC_CheckEsp
  005c3	c7 45 fc 00 00
	00 00		 mov	 DWORD PTR __$EHRec$[ebp+8], 0

; 105  : 	str.Format( "%d", percentage );

  005ca	8b f4		 mov	 esi, esp
  005cc	8b 45 08	 mov	 eax, DWORD PTR _percentage$[ebp]
  005cf	50		 push	 eax
  005d0	68 00 00 00 00	 push	 OFFSET FLAT:$SG188767
  005d5	8d 4d e8	 lea	 ecx, DWORD PTR _str$[ebp]
  005d8	51		 push	 ecx
  005d9	ff 15 00 00 00
	00		 call	 DWORD PTR __imp_?Format@?$CStringT@DV?$StrTraitMFC_DLL@DV?$ChTraitsCRT@D@ATL@@@@@ATL@@QAAXPBDZZ
  005df	83 c4 0c	 add	 esp, 12			; 0000000cH
  005e2	3b f4		 cmp	 esi, esp
  005e4	e8 00 00 00 00	 call	 __RTC_CheckEsp

; 106  : 	str += "%";

  005e9	8b f4		 mov	 esi, esp
  005eb	68 00 00 00 00	 push	 OFFSET FLAT:$SG188768
  005f0	8d 4d e8	 lea	 ecx, DWORD PTR _str$[ebp]
  005f3	ff 15 00 00 00
	00		 call	 DWORD PTR __imp_??Y?$CStringT@DV?$StrTraitMFC_DLL@DV?$ChTraitsCRT@D@ATL@@@@@ATL@@QAEAAV01@PBD@Z
  005f9	3b f4		 cmp	 esi, esp
  005fb	e8 00 00 00 00	 call	 __RTC_CheckEsp

; 107  : 	m_textPercent.SetWindowText( str );

  00600	8b f4		 mov	 esi, esp
  00602	8d 4d e8	 lea	 ecx, DWORD PTR _str$[ebp]
  00605	ff 15 00 00 00
	00		 call	 DWORD PTR __imp_??B?$CSimpleStringT@D$00@ATL@@QBEPBDXZ
  0060b	3b f4		 cmp	 esi, esp
  0060d	e8 00 00 00 00	 call	 __RTC_CheckEsp
  00612	50		 push	 eax
  00613	8b 4d f0	 mov	 ecx, DWORD PTR _this$[ebp]
  00616	81 c1 e0 00 00
	00		 add	 ecx, 224		; 000000e0H
  0061c	e8 00 00 00 00	 call	 ?SetWindowTextA@CWnd@@QAEXPBD@Z ; CWnd::SetWindowTextA

; 108  : 	m_downLoadSlide.SetButtonPos( percentage );

  00621	8b 55 08	 mov	 edx, DWORD PTR _percentage$[ebp]
  00624	52		 push	 edx
  00625	8b 4d f0	 mov	 ecx, DWORD PTR _this$[ebp]
  00628	83 c1 54	 add	 ecx, 84			; 00000054H
  0062b	e8 00 00 00 00	 call	 ?SetButtonPos@CColorSlide@@QAEXH@Z ; CColorSlide::SetButtonPos

; 109  : }

  00630	c7 45 fc ff ff
	ff ff		 mov	 DWORD PTR __$EHRec$[ebp+8], -1
  00637	8b f4		 mov	 esi, esp
  00639	8d 4d e8	 lea	 ecx, DWORD PTR _str$[ebp]
  0063c	ff 15 00 00 00
	00		 call	 DWORD PTR __imp_??1?$CStringT@DV?$StrTraitMFC_DLL@DV?$ChTraitsCRT@D@ATL@@@@@ATL@@QAE@XZ
  00642	3b f4		 cmp	 esi, esp
  00644	e8 00 00 00 00	 call	 __RTC_CheckEsp
$L188763:
  00649	52		 push	 edx
  0064a	8b cd		 mov	 ecx, ebp
  0064c	50		 push	 eax
  0064d	8d 15 00 00 00
	00		 lea	 edx, DWORD PTR $L189470
  00653	e8 00 00 00 00	 call	 @_RTC_CheckStackVars@8
  00658	58		 pop	 eax
  00659	5a		 pop	 edx
  0065a	8b 4d f4	 mov	 ecx, DWORD PTR __$EHRec$[ebp]
  0065d	64 89 0d 00 00
	00 00		 mov	 DWORD PTR fs:__except_list, ecx
  00664	5e		 pop	 esi
  00665	83 c4 1c	 add	 esp, 28			; 0000001cH
  00668	3b ec		 cmp	 ebp, esp
  0066a	e8 00 00 00 00	 call	 __RTC_CheckEsp
  0066f	8b e5		 mov	 esp, ebp
  00671	5d		 pop	 ebp
  00672	c2 04 00	 ret	 4
$L189470:
  00675	01 00 00 00	 DD	 1
  00679	00 00 00 00	 DD	 $L189469
$L189469:
  0067d	e8 ff ff ff	 DD	 -24			; ffffffe8H
  00681	04 00 00 00	 DD	 4
  00685	00 00 00 00	 DD	 $L189467
$L189467:
  00689	73		 DB	 115			; 00000073H
  0068a	74		 DB	 116			; 00000074H
  0068b	72		 DB	 114			; 00000072H
  0068c	00		 DB	 0
_TEXT	ENDS
text$x	SEGMENT
$L189464:
  00072	8b f4		 mov	 esi, esp
  00074	8d 4d e8	 lea	 ecx, DWORD PTR _str$[ebp]
  00077	ff 15 00 00 00
	00		 call	 DWORD PTR __imp_??1?$CStringT@DV?$StrTraitMFC_DLL@DV?$ChTraitsCRT@D@ATL@@@@@ATL@@QAE@XZ
  0007d	3b f4		 cmp	 esi, esp
  0007f	e9 00 00 00 00	 jmp	 __RTC_CheckEsp
__ehhandler$?SetDownloadPercent@CDownloadPercentWnd@@QAEXH@Z:
  00084	b8 00 00 00 00	 mov	 eax, OFFSET FLAT:$T189466
  00089	e9 00 00 00 00	 jmp	 ___CxxFrameHandler
text$x	ENDS
?SetDownloadPercent@CDownloadPercentWnd@@QAEXH@Z ENDP	; CDownloadPercentWnd::SetDownloadPercent
EXTRN	___security_cookie:DWORD
EXTRN	@__security_check_cookie@4:NEAR
EXTRN	?FillRectangle@CBitMapOperate@@UAEXPAUHDC__@@UtagRECT@@KH@Z:NEAR ; CBitMapOperate::FillRectangle
EXTRN	?getColor@CWndColorMgr@@QAEPAUCtrColBase@@I@Z:NEAR ; CWndColorMgr::getColor
EXTRN	?gBitMapOperate@@3VCBitMapOperate@@A:BYTE	; gBitMapOperate
EXTRN	?gWndColor@@3VCWndColorMgr@@A:DWORD		; gWndColor
EXTRN	??0CPaintDC@@QAE@PAVCWnd@@@Z:NEAR		; CPaintDC::CPaintDC
EXTRN	??1CPaintDC@@UAE@XZ:NEAR			; CPaintDC::~CPaintDC
xdata$x	SEGMENT
$T189486 DD	0ffffffffH
	DD	FLAT:$L189475
$T189477 DD	019930520H
	DD	01H
	DD	FLAT:$T189486
	DD	2 DUP(00H)
	DD	2 DUP(00H)
; Function compile flags: /Odt /RTCsu
xdata$x	ENDS
_TEXT	SEGMENT
$T189474 = -152						; size = 16
_rect$ = -132						; size = 16
_dc$ = -108						; size = 84
_this$ = -20						; size = 4
__$ArrayPad$ = -16					; size = 4
__$EHRec$ = -12						; size = 12
__$ReturnAddr$ = 4					; size = 4
?OnPaint@CDownloadPercentWnd@@QAEXXZ PROC NEAR		; CDownloadPercentWnd::OnPaint
; _this$ = ecx

; 112  : {

  00690	55		 push	 ebp
  00691	8b ec		 mov	 ebp, esp
  00693	6a ff		 push	 -1
  00695	68 00 00 00 00	 push	 __ehhandler$?OnPaint@CDownloadPercentWnd@@QAEXXZ
  0069a	64 a1 00 00 00
	00		 mov	 eax, DWORD PTR fs:__except_list
  006a0	50		 push	 eax
  006a1	64 89 25 00 00
	00 00		 mov	 DWORD PTR fs:__except_list, esp
  006a8	81 ec 8c 00 00
	00		 sub	 esp, 140		; 0000008cH
  006ae	57		 push	 edi
  006af	51		 push	 ecx
  006b0	8d bd 68 ff ff
	ff		 lea	 edi, DWORD PTR [ebp-152]
  006b6	b9 23 00 00 00	 mov	 ecx, 35			; 00000023H
  006bb	b8 cc cc cc cc	 mov	 eax, -858993460		; ccccccccH
  006c0	f3 ab		 rep stosd
  006c2	59		 pop	 ecx
  006c3	a1 00 00 00 00	 mov	 eax, DWORD PTR ___security_cookie
  006c8	89 45 f0	 mov	 DWORD PTR __$ArrayPad$[ebp], eax
  006cb	89 4d ec	 mov	 DWORD PTR _this$[ebp], ecx

; 113  : 	CPaintDC dc(this);

  006ce	8b 45 ec	 mov	 eax, DWORD PTR _this$[ebp]
  006d1	50		 push	 eax
  006d2	8d 4d 94	 lea	 ecx, DWORD PTR _dc$[ebp]
  006d5	e8 00 00 00 00	 call	 ??0CPaintDC@@QAE@PAVCWnd@@@Z ; CPaintDC::CPaintDC
  006da	c7 45 fc 00 00
	00 00		 mov	 DWORD PTR __$EHRec$[ebp+8], 0

; 114  : 	CRect rect;

  006e1	8d 8d 7c ff ff
	ff		 lea	 ecx, DWORD PTR _rect$[ebp]
  006e7	e8 00 00 00 00	 call	 ??0CRect@@QAE@XZ	; CRect::CRect

; 115  : 	GetClientRect( &rect );

  006ec	8d 8d 7c ff ff
	ff		 lea	 ecx, DWORD PTR _rect$[ebp]
  006f2	51		 push	 ecx
  006f3	8b 4d ec	 mov	 ecx, DWORD PTR _this$[ebp]
  006f6	e8 00 00 00 00	 call	 ?GetClientRect@CWnd@@QBEXPAUtagRECT@@@Z ; CWnd::GetClientRect

; 116  : 	gBitMapOperate.FillRectangle( dc.m_hDC, rect, 
; 117  : 		gWndColor.getColor(TABLE_CTROL)->structColBase->colBK, true );

  006fb	8b 95 7c ff ff
	ff		 mov	 edx, DWORD PTR _rect$[ebp]
  00701	89 95 68 ff ff
	ff		 mov	 DWORD PTR $T189474[ebp], edx
  00707	8b 45 80	 mov	 eax, DWORD PTR _rect$[ebp+4]
  0070a	89 85 6c ff ff
	ff		 mov	 DWORD PTR $T189474[ebp+4], eax
  00710	8b 4d 84	 mov	 ecx, DWORD PTR _rect$[ebp+8]
  00713	89 8d 70 ff ff
	ff		 mov	 DWORD PTR $T189474[ebp+8], ecx
  00719	8b 55 88	 mov	 edx, DWORD PTR _rect$[ebp+12]
  0071c	89 95 74 ff ff
	ff		 mov	 DWORD PTR $T189474[ebp+12], edx
  00722	6a 01		 push	 1
  00724	6a 02		 push	 2
  00726	b9 00 00 00 00	 mov	 ecx, OFFSET FLAT:?gWndColor@@3VCWndColorMgr@@A ; gWndColor
  0072b	e8 00 00 00 00	 call	 ?getColor@CWndColorMgr@@QAEPAUCtrColBase@@I@Z ; CWndColorMgr::getColor
  00730	8b 00		 mov	 eax, DWORD PTR [eax]
  00732	8b 48 10	 mov	 ecx, DWORD PTR [eax+16]
  00735	51		 push	 ecx
  00736	83 ec 10	 sub	 esp, 16			; 00000010H
  00739	8b d4		 mov	 edx, esp
  0073b	8b 85 68 ff ff
	ff		 mov	 eax, DWORD PTR $T189474[ebp]
  00741	89 02		 mov	 DWORD PTR [edx], eax
  00743	8b 8d 6c ff ff
	ff		 mov	 ecx, DWORD PTR $T189474[ebp+4]
  00749	89 4a 04	 mov	 DWORD PTR [edx+4], ecx
  0074c	8b 85 70 ff ff
	ff		 mov	 eax, DWORD PTR $T189474[ebp+8]
  00752	89 42 08	 mov	 DWORD PTR [edx+8], eax
  00755	8b 8d 74 ff ff
	ff		 mov	 ecx, DWORD PTR $T189474[ebp+12]
  0075b	89 4a 0c	 mov	 DWORD PTR [edx+12], ecx
  0075e	8b 55 98	 mov	 edx, DWORD PTR _dc$[ebp+4]
  00761	52		 push	 edx
  00762	b9 00 00 00 00	 mov	 ecx, OFFSET FLAT:?gBitMapOperate@@3VCBitMapOperate@@A
  00767	e8 00 00 00 00	 call	 ?FillRectangle@CBitMapOperate@@UAEXPAUHDC__@@UtagRECT@@KH@Z ; CBitMapOperate::FillRectangle

; 118  : }

  0076c	c7 45 fc ff ff
	ff ff		 mov	 DWORD PTR __$EHRec$[ebp+8], -1
  00773	8d 4d 94	 lea	 ecx, DWORD PTR _dc$[ebp]
  00776	e8 00 00 00 00	 call	 ??1CPaintDC@@UAE@XZ	; CPaintDC::~CPaintDC
  0077b	52		 push	 edx
  0077c	8b cd		 mov	 ecx, ebp
  0077e	50		 push	 eax
  0077f	8d 15 00 00 00
	00		 lea	 edx, DWORD PTR $L189484
  00785	e8 00 00 00 00	 call	 @_RTC_CheckStackVars@8
  0078a	58		 pop	 eax
  0078b	5a		 pop	 edx
  0078c	8b 4d f4	 mov	 ecx, DWORD PTR __$EHRec$[ebp]
  0078f	64 89 0d 00 00
	00 00		 mov	 DWORD PTR fs:__except_list, ecx
  00796	8b 4d f0	 mov	 ecx, DWORD PTR __$ArrayPad$[ebp]
  00799	e8 00 00 00 00	 call	 @__security_check_cookie@4
  0079e	5f		 pop	 edi
  0079f	81 c4 98 00 00
	00		 add	 esp, 152		; 00000098H
  007a5	3b ec		 cmp	 ebp, esp
  007a7	e8 00 00 00 00	 call	 __RTC_CheckEsp
  007ac	8b e5		 mov	 esp, ebp
  007ae	5d		 pop	 ebp
  007af	c3		 ret	 0
$L189484:
  007b0	02 00 00 00	 DD	 2
  007b4	00 00 00 00	 DD	 $L189483
$L189483:
  007b8	94 ff ff ff	 DD	 -108			; ffffff94H
  007bc	54 00 00 00	 DD	 84			; 00000054H
  007c0	00 00 00 00	 DD	 $L189478
  007c4	7c ff ff ff	 DD	 -132			; ffffff7cH
  007c8	10 00 00 00	 DD	 16			; 00000010H
  007cc	00 00 00 00	 DD	 $L189479
$L189479:
  007d0	72		 DB	 114			; 00000072H
  007d1	65		 DB	 101			; 00000065H
  007d2	63		 DB	 99			; 00000063H
  007d3	74		 DB	 116			; 00000074H
  007d4	00		 DB	 0
$L189478:
  007d5	64		 DB	 100			; 00000064H
  007d6	63		 DB	 99			; 00000063H
  007d7	00		 DB	 0
_TEXT	ENDS
text$x	SEGMENT
$L189475:
  0008e	8d 4d 94	 lea	 ecx, DWORD PTR _dc$[ebp]
  00091	e9 00 00 00 00	 jmp	 ??1CPaintDC@@UAE@XZ	; CPaintDC::~CPaintDC
__ehhandler$?OnPaint@CDownloadPercentWnd@@QAEXXZ:
  00096	b8 00 00 00 00	 mov	 eax, OFFSET FLAT:$T189477
  0009b	e9 00 00 00 00	 jmp	 ___CxxFrameHandler
text$x	ENDS
?OnPaint@CDownloadPercentWnd@@QAEXXZ ENDP		; CDownloadPercentWnd::OnPaint
PUBLIC	?InterlockedExchangePointer@@YGPAXPAPAXPAX@Z	; InterlockedExchangePointer
PUBLIC	?_AtlGetThreadACPFake@ATL@@YGIXZ		; ATL::_AtlGetThreadACPFake
PUBLIC	?_AtlGetThreadACPReal@ATL@@YGIXZ		; ATL::_AtlGetThreadACPReal
EXTRN	__imp__GetVersionExA@4:NEAR
; Function compile flags: /Odt /RTCsu
; File d:\program files (x86)\microsoft visual studio .net 2003\vc7\atlmfc\include\atlconv.h
;	COMDAT ?_AtlGetThreadACPThunk@ATL@@YGIXZ
_TEXT	SEGMENT
_pfnGetThreadACP$ = -164				; size = 4
_ver$ = -156						; size = 148
__$ArrayPad$ = -4					; size = 4
__$ReturnAddr$ = 4					; size = 4
?_AtlGetThreadACPThunk@ATL@@YGIXZ PROC NEAR		; ATL::_AtlGetThreadACPThunk, COMDAT

; 134  : {

  00000	55		 push	 ebp
  00001	8b ec		 mov	 ebp, esp
  00003	81 ec a4 00 00
	00		 sub	 esp, 164		; 000000a4H
  00009	56		 push	 esi
  0000a	57		 push	 edi
  0000b	8d bd 5c ff ff
	ff		 lea	 edi, DWORD PTR [ebp-164]
  00011	b9 29 00 00 00	 mov	 ecx, 41			; 00000029H
  00016	b8 cc cc cc cc	 mov	 eax, -858993460		; ccccccccH
  0001b	f3 ab		 rep stosd
  0001d	a1 00 00 00 00	 mov	 eax, DWORD PTR ___security_cookie
  00022	89 45 fc	 mov	 DWORD PTR __$ArrayPad$[ebp], eax

; 135  : 	OSVERSIONINFO ver;
; 136  : 	ATLGETTHREADACP pfnGetThreadACP;
; 137  : 
; 138  : 	ver.dwOSVersionInfoSize = sizeof( ver );

  00025	c7 85 64 ff ff
	ff 94 00 00 00	 mov	 DWORD PTR _ver$[ebp], 148 ; 00000094H

; 139  : 	::GetVersionEx( &ver );

  0002f	8b f4		 mov	 esi, esp
  00031	8d 85 64 ff ff
	ff		 lea	 eax, DWORD PTR _ver$[ebp]
  00037	50		 push	 eax
  00038	ff 15 00 00 00
	00		 call	 DWORD PTR __imp__GetVersionExA@4
  0003e	3b f4		 cmp	 esi, esp
  00040	e8 00 00 00 00	 call	 __RTC_CheckEsp

; 140  : 	if( (ver.dwPlatformId == VER_PLATFORM_WIN32_NT) && (ver.dwMajorVersion >= 5) )

  00045	83 bd 74 ff ff
	ff 02		 cmp	 DWORD PTR _ver$[ebp+16], 2
  0004c	75 15		 jne	 SHORT $L24163
  0004e	83 bd 68 ff ff
	ff 05		 cmp	 DWORD PTR _ver$[ebp+4], 5
  00055	72 0c		 jb	 SHORT $L24163

; 141  : 	{
; 142  : 		// On Win2K, CP_THREAD_ACP is supported
; 143  : 		pfnGetThreadACP = _AtlGetThreadACPReal;

  00057	c7 85 5c ff ff
	ff 00 00 00 00	 mov	 DWORD PTR _pfnGetThreadACP$[ebp], OFFSET FLAT:?_AtlGetThreadACPReal@ATL@@YGIXZ ; ATL::_AtlGetThreadACPReal

; 144  : 	}
; 145  : 	else

  00061	eb 0a		 jmp	 SHORT $L24164
$L24163:

; 146  : 	{
; 147  : 		pfnGetThreadACP = _AtlGetThreadACPFake;

  00063	c7 85 5c ff ff
	ff 00 00 00 00	 mov	 DWORD PTR _pfnGetThreadACP$[ebp], OFFSET FLAT:?_AtlGetThreadACPFake@ATL@@YGIXZ ; ATL::_AtlGetThreadACPFake
$L24164:

; 148  : 	}
; 149  : 	InterlockedExchangePointer( reinterpret_cast< void** >(&g_pfnGetThreadACP), pfnGetThreadACP );

  0006d	8b 8d 5c ff ff
	ff		 mov	 ecx, DWORD PTR _pfnGetThreadACP$[ebp]
  00073	51		 push	 ecx
  00074	68 00 00 00 00	 push	 OFFSET FLAT:?g_pfnGetThreadACP@ATL@@3P6GIXZA ; ATL::g_pfnGetThreadACP
  00079	e8 00 00 00 00	 call	 ?InterlockedExchangePointer@@YGPAXPAPAXPAX@Z ; InterlockedExchangePointer

; 150  : 
; 151  : 	return( g_pfnGetThreadACP() );

  0007e	8b f4		 mov	 esi, esp
  00080	ff 15 00 00 00
	00		 call	 DWORD PTR ?g_pfnGetThreadACP@ATL@@3P6GIXZA ; ATL::g_pfnGetThreadACP
  00086	3b f4		 cmp	 esi, esp
  00088	e8 00 00 00 00	 call	 __RTC_CheckEsp

; 152  : }

  0008d	52		 push	 edx
  0008e	8b cd		 mov	 ecx, ebp
  00090	50		 push	 eax
  00091	8d 15 00 00 00
	00		 lea	 edx, DWORD PTR $L189492
  00097	e8 00 00 00 00	 call	 @_RTC_CheckStackVars@8
  0009c	58		 pop	 eax
  0009d	5a		 pop	 edx
  0009e	8b 4d fc	 mov	 ecx, DWORD PTR __$ArrayPad$[ebp]
  000a1	e8 00 00 00 00	 call	 @__security_check_cookie@4
  000a6	5f		 pop	 edi
  000a7	5e		 pop	 esi
  000a8	81 c4 a4 00 00
	00		 add	 esp, 164		; 000000a4H
  000ae	3b ec		 cmp	 ebp, esp
  000b0	e8 00 00 00 00	 call	 __RTC_CheckEsp
  000b5	8b e5		 mov	 esp, ebp
  000b7	5d		 pop	 ebp
  000b8	c3		 ret	 0
$L189492:
  000b9	01 00 00 00	 DD	 1
  000bd	00 00 00 00	 DD	 $L189491
$L189491:
  000c1	64 ff ff ff	 DD	 -156			; ffffff64H
  000c5	94 00 00 00	 DD	 148			; 00000094H
  000c9	00 00 00 00	 DD	 $L189489
$L189489:
  000cd	76		 DB	 118			; 00000076H
  000ce	65		 DB	 101			; 00000065H
  000cf	72		 DB	 114			; 00000072H
  000d0	00		 DB	 0
?_AtlGetThreadACPThunk@ATL@@YGIXZ ENDP			; ATL::_AtlGetThreadACPThunk
_TEXT	ENDS
EXTRN	__imp__InterlockedExchange@8:NEAR
; Function compile flags: /Odt /RTCsu
;	COMDAT ?InterlockedExchangePointer@@YGPAXPAPAXPAX@Z
_TEXT	SEGMENT
_pp$ = 8						; size = 4
_pNew$ = 12						; size = 4
?InterlockedExchangePointer@@YGPAXPAPAXPAX@Z PROC NEAR	; InterlockedExchangePointer, COMDAT

; 91   : {

  00000	55		 push	 ebp
  00001	8b ec		 mov	 ebp, esp
  00003	56		 push	 esi

; 92   : 	return( reinterpret_cast<void*>(static_cast<LONG_PTR>(::InterlockedExchange(reinterpret_cast<LONG*>(pp), static_cast<LONG>(reinterpret_cast<LONG_PTR>(pNew))))) );

  00004	8b f4		 mov	 esi, esp
  00006	8b 45 0c	 mov	 eax, DWORD PTR _pNew$[ebp]
  00009	50		 push	 eax
  0000a	8b 4d 08	 mov	 ecx, DWORD PTR _pp$[ebp]
  0000d	51		 push	 ecx
  0000e	ff 15 00 00 00
	00		 call	 DWORD PTR __imp__InterlockedExchange@8
  00014	3b f4		 cmp	 esi, esp
  00016	e8 00 00 00 00	 call	 __RTC_CheckEsp

; 93   : }

  0001b	5e		 pop	 esi
  0001c	3b ec		 cmp	 ebp, esp
  0001e	e8 00 00 00 00	 call	 __RTC_CheckEsp
  00023	5d		 pop	 ebp
  00024	c2 08 00	 ret	 8
?InterlockedExchangePointer@@YGPAXPAPAXPAX@Z ENDP	; InterlockedExchangePointer
_TEXT	ENDS
EXTRN	__imp__GetACP@0:NEAR
EXTRN	__imp__GetLocaleInfoA@16:NEAR
EXTRN	__imp__GetThreadLocale@0:NEAR
; Function compile flags: /Odt /RTCsu
;	COMDAT ?_AtlGetThreadACPFake@ATL@@YGIXZ
_TEXT	SEGMENT
_pch$24151 = -32					; size = 4
_szACP$ = -24						; size = 7
_lcidThread$ = -12					; size = 4
_nACP$ = -8						; size = 4
__$ArrayPad$ = -4					; size = 4
__$ReturnAddr$ = 4					; size = 4
?_AtlGetThreadACPFake@ATL@@YGIXZ PROC NEAR		; ATL::_AtlGetThreadACPFake, COMDAT

; 101  : {

  00000	55		 push	 ebp
  00001	8b ec		 mov	 ebp, esp
  00003	83 ec 20	 sub	 esp, 32			; 00000020H
  00006	56		 push	 esi
  00007	b8 cc cc cc cc	 mov	 eax, -858993460		; ccccccccH
  0000c	89 45 e0	 mov	 DWORD PTR [ebp-32], eax
  0000f	89 45 e4	 mov	 DWORD PTR [ebp-28], eax
  00012	89 45 e8	 mov	 DWORD PTR [ebp-24], eax
  00015	89 45 ec	 mov	 DWORD PTR [ebp-20], eax
  00018	89 45 f0	 mov	 DWORD PTR [ebp-16], eax
  0001b	89 45 f4	 mov	 DWORD PTR [ebp-12], eax
  0001e	89 45 f8	 mov	 DWORD PTR [ebp-8], eax
  00021	89 45 fc	 mov	 DWORD PTR [ebp-4], eax
  00024	a1 00 00 00 00	 mov	 eax, DWORD PTR ___security_cookie
  00029	89 45 fc	 mov	 DWORD PTR __$ArrayPad$[ebp], eax

; 102  : 	UINT nACP = 0;

  0002c	c7 45 f8 00 00
	00 00		 mov	 DWORD PTR _nACP$[ebp], 0

; 103  : 
; 104  : 	LCID lcidThread = ::GetThreadLocale();

  00033	8b f4		 mov	 esi, esp
  00035	ff 15 00 00 00
	00		 call	 DWORD PTR __imp__GetThreadLocale@0
  0003b	3b f4		 cmp	 esi, esp
  0003d	e8 00 00 00 00	 call	 __RTC_CheckEsp
  00042	89 45 f4	 mov	 DWORD PTR _lcidThread$[ebp], eax

; 105  : 
; 106  : 	char szACP[7];
; 107  : 	// GetLocaleInfoA will fail for a Unicode-only LCID, but those are only supported on 
; 108  : 	// Windows 2000.  Since Windows 2000 supports CP_THREAD_ACP, this code path is never
; 109  : 	// executed on Windows 2000.
; 110  : 	if (::GetLocaleInfoA(lcidThread, LOCALE_IDEFAULTANSICODEPAGE, szACP, 7) != 0)

  00045	8b f4		 mov	 esi, esp
  00047	6a 07		 push	 7
  00049	8d 45 e8	 lea	 eax, DWORD PTR _szACP$[ebp]
  0004c	50		 push	 eax
  0004d	68 04 10 00 00	 push	 4100			; 00001004H
  00052	8b 4d f4	 mov	 ecx, DWORD PTR _lcidThread$[ebp]
  00055	51		 push	 ecx
  00056	ff 15 00 00 00
	00		 call	 DWORD PTR __imp__GetLocaleInfoA@16
  0005c	3b f4		 cmp	 esi, esp
  0005e	e8 00 00 00 00	 call	 __RTC_CheckEsp
  00063	85 c0		 test	 eax, eax
  00065	74 34		 je	 SHORT $L24150

; 111  : 	{
; 112  : 		char* pch = szACP;

  00067	8d 55 e8	 lea	 edx, DWORD PTR _szACP$[ebp]
  0006a	89 55 e0	 mov	 DWORD PTR _pch$24151[ebp], edx
$L24153:

; 113  : 		while (*pch != '\0')

  0006d	8b 45 e0	 mov	 eax, DWORD PTR _pch$24151[ebp]
  00070	0f be 08	 movsx	 ecx, BYTE PTR [eax]
  00073	85 c9		 test	 ecx, ecx
  00075	74 24		 je	 SHORT $L24150

; 114  : 		{
; 115  : 			nACP *= 10;

  00077	8b 55 f8	 mov	 edx, DWORD PTR _nACP$[ebp]
  0007a	6b d2 0a	 imul	 edx, 10			; 0000000aH
  0007d	89 55 f8	 mov	 DWORD PTR _nACP$[ebp], edx

; 116  : 			nACP += *pch++ - '0';

  00080	8b 45 e0	 mov	 eax, DWORD PTR _pch$24151[ebp]
  00083	0f be 08	 movsx	 ecx, BYTE PTR [eax]
  00086	8b 55 f8	 mov	 edx, DWORD PTR _nACP$[ebp]
  00089	8d 44 0a d0	 lea	 eax, DWORD PTR [edx+ecx-48]
  0008d	89 45 f8	 mov	 DWORD PTR _nACP$[ebp], eax
  00090	8b 4d e0	 mov	 ecx, DWORD PTR _pch$24151[ebp]
  00093	83 c1 01	 add	 ecx, 1
  00096	89 4d e0	 mov	 DWORD PTR _pch$24151[ebp], ecx

; 117  : 		}

  00099	eb d2		 jmp	 SHORT $L24153
$L24150:

; 118  : 	}
; 119  : 	// Use the Default ANSI Code Page if we were unable to get the thread ACP or if one does not exist.
; 120  : 	if (nACP == 0)

  0009b	83 7d f8 00	 cmp	 DWORD PTR _nACP$[ebp], 0
  0009f	75 12		 jne	 SHORT $L24155

; 121  : 		nACP = ::GetACP();

  000a1	8b f4		 mov	 esi, esp
  000a3	ff 15 00 00 00
	00		 call	 DWORD PTR __imp__GetACP@0
  000a9	3b f4		 cmp	 esi, esp
  000ab	e8 00 00 00 00	 call	 __RTC_CheckEsp
  000b0	89 45 f8	 mov	 DWORD PTR _nACP$[ebp], eax
$L24155:

; 122  : 
; 123  : 	return nACP;

  000b3	8b 45 f8	 mov	 eax, DWORD PTR _nACP$[ebp]

; 124  : }

  000b6	52		 push	 edx
  000b7	8b cd		 mov	 ecx, ebp
  000b9	50		 push	 eax
  000ba	8d 15 00 00 00
	00		 lea	 edx, DWORD PTR $L189499
  000c0	e8 00 00 00 00	 call	 @_RTC_CheckStackVars@8
  000c5	58		 pop	 eax
  000c6	5a		 pop	 edx
  000c7	8b 4d fc	 mov	 ecx, DWORD PTR __$ArrayPad$[ebp]
  000ca	e8 00 00 00 00	 call	 @__security_check_cookie@4
  000cf	5e		 pop	 esi
  000d0	83 c4 20	 add	 esp, 32			; 00000020H
  000d3	3b ec		 cmp	 ebp, esp
  000d5	e8 00 00 00 00	 call	 __RTC_CheckEsp
  000da	8b e5		 mov	 esp, ebp
  000dc	5d		 pop	 ebp
  000dd	c3		 ret	 0
$L189499:
  000de	01 00 00 00	 DD	 1
  000e2	00 00 00 00	 DD	 $L189498
$L189498:
  000e6	e8 ff ff ff	 DD	 -24			; ffffffe8H
  000ea	07 00 00 00	 DD	 7
  000ee	00 00 00 00	 DD	 $L189496
$L189496:
  000f2	73		 DB	 115			; 00000073H
  000f3	7a		 DB	 122			; 0000007aH
  000f4	41		 DB	 65			; 00000041H
  000f5	43		 DB	 67			; 00000043H
  000f6	50		 DB	 80			; 00000050H
  000f7	00		 DB	 0
?_AtlGetThreadACPFake@ATL@@YGIXZ ENDP			; ATL::_AtlGetThreadACPFake
; Function compile flags: /Odt /RTCsu
_TEXT	ENDS
;	COMDAT ?_AtlGetThreadACPReal@ATL@@YGIXZ
_TEXT	SEGMENT
?_AtlGetThreadACPReal@ATL@@YGIXZ PROC NEAR		; ATL::_AtlGetThreadACPReal, COMDAT

; 127  : {

  00000	55		 push	 ebp
  00001	8b ec		 mov	 ebp, esp

; 128  : 	return( CP_THREAD_ACP );

  00003	b8 03 00 00 00	 mov	 eax, 3

; 129  : }

  00008	5d		 pop	 ebp
  00009	c3		 ret	 0
?_AtlGetThreadACPReal@ATL@@YGIXZ ENDP			; ATL::_AtlGetThreadACPReal
_TEXT	ENDS
EXTRN	?SetTimer@CWnd@@QAEIIIP6GXPAUHWND__@@IIK@Z@Z:NEAR ; CWnd::SetTimer
EXTRN	__imp__GetTickCount@0:NEAR
; Function compile flags: /Odt /RTCsu
; File d:\boxgit\playbox\playbox\dev\prj\playbox\src\layoutmgr\changecolor\downloadpercentwnd.cpp
_TEXT	SEGMENT
_this$ = -4						; size = 4
_w$ = 8							; size = 4
___formal$ = 12						; size = 4
?OnDownSubStart@CDownloadPercentWnd@@QAEJIJ@Z PROC NEAR	; CDownloadPercentWnd::OnDownSubStart
; _this$ = ecx

; 121  : {

  007e0	55		 push	 ebp
  007e1	8b ec		 mov	 ebp, esp
  007e3	51		 push	 ecx
  007e4	56		 push	 esi
  007e5	c7 45 fc cc cc
	cc cc		 mov	 DWORD PTR [ebp-4], -858993460 ; ccccccccH
  007ec	89 4d fc	 mov	 DWORD PTR _this$[ebp], ecx

; 122  : 	SetTimer(TIMER_CHECK_DOWN,500,NULL );

  007ef	6a 00		 push	 0
  007f1	68 f4 01 00 00	 push	 500			; 000001f4H
  007f6	6a 64		 push	 100			; 00000064H
  007f8	8b 4d fc	 mov	 ecx, DWORD PTR _this$[ebp]
  007fb	e8 00 00 00 00	 call	 ?SetTimer@CWnd@@QAEIIIP6GXPAUHWND__@@IIK@Z@Z ; CWnd::SetTimer

; 123  : 	if(false)

  00800	33 c0		 xor	 eax, eax
  00802	74 45		 je	 SHORT $L188780

; 124  : 	{
; 125  : 		m_iDownPercent = GetTickCount() % 20 + 10;

  00804	8b f4		 mov	 esi, esp
  00806	ff 15 00 00 00
	00		 call	 DWORD PTR __imp__GetTickCount@0
  0080c	3b f4		 cmp	 esi, esp
  0080e	e8 00 00 00 00	 call	 __RTC_CheckEsp
  00813	33 d2		 xor	 edx, edx
  00815	b9 14 00 00 00	 mov	 ecx, 20			; 00000014H
  0081a	f7 f1		 div	 ecx
  0081c	83 c2 0a	 add	 edx, 10			; 0000000aH
  0081f	8b 45 fc	 mov	 eax, DWORD PTR _this$[ebp]
  00822	89 90 28 02 00
	00		 mov	 DWORD PTR [eax+552], edx

; 126  : 		SetDownloadPercent( m_iDownPercent );

  00828	8b 4d fc	 mov	 ecx, DWORD PTR _this$[ebp]
  0082b	8b 91 28 02 00
	00		 mov	 edx, DWORD PTR [ecx+552]
  00831	52		 push	 edx
  00832	8b 4d fc	 mov	 ecx, DWORD PTR _this$[ebp]
  00835	e8 00 00 00 00	 call	 ?SetDownloadPercent@CDownloadPercentWnd@@QAEXH@Z ; CDownloadPercentWnd::SetDownloadPercent

; 127  : 		m_bNetConnect = TRUE;

  0083a	8b 45 fc	 mov	 eax, DWORD PTR _this$[ebp]
  0083d	c7 80 2c 02 00
	00 01 00 00 00	 mov	 DWORD PTR [eax+556], 1

; 128  : 	}
; 129  : 	else 

  00847	eb 2c		 jmp	 SHORT $L188781
$L188780:

; 130  : 	{
; 131  : 		m_iDownPercent = 0;

  00849	8b 4d fc	 mov	 ecx, DWORD PTR _this$[ebp]
  0084c	c7 81 28 02 00
	00 00 00 00 00	 mov	 DWORD PTR [ecx+552], 0

; 132  : 		SetDownloadPercent( m_iDownPercent );

  00856	8b 55 fc	 mov	 edx, DWORD PTR _this$[ebp]
  00859	8b 82 28 02 00
	00		 mov	 eax, DWORD PTR [edx+552]
  0085f	50		 push	 eax
  00860	8b 4d fc	 mov	 ecx, DWORD PTR _this$[ebp]
  00863	e8 00 00 00 00	 call	 ?SetDownloadPercent@CDownloadPercentWnd@@QAEXH@Z ; CDownloadPercentWnd::SetDownloadPercent

; 133  : 		m_bNetConnect = FALSE;

  00868	8b 4d fc	 mov	 ecx, DWORD PTR _this$[ebp]
  0086b	c7 81 2c 02 00
	00 00 00 00 00	 mov	 DWORD PTR [ecx+556], 0
$L188781:

; 134  : 	}
; 135  : 
; 136  : 	m_pDown = (YL_CHTTPDownFile*)w;

  00875	8b 55 fc	 mov	 edx, DWORD PTR _this$[ebp]
  00878	8b 45 08	 mov	 eax, DWORD PTR _w$[ebp]
  0087b	89 82 24 02 00
	00		 mov	 DWORD PTR [edx+548], eax

; 137  : 	return 0;

  00881	33 c0		 xor	 eax, eax

; 138  : }

  00883	5e		 pop	 esi
  00884	83 c4 04	 add	 esp, 4
  00887	3b ec		 cmp	 ebp, esp
  00889	e8 00 00 00 00	 call	 __RTC_CheckEsp
  0088e	8b e5		 mov	 esp, ebp
  00890	5d		 pop	 ebp
  00891	c2 08 00	 ret	 8
?OnDownSubStart@CDownloadPercentWnd@@QAEJIJ@Z ENDP	; CDownloadPercentWnd::OnDownSubStart
_TEXT	ENDS
EXTRN	?KillTimer@CWnd@@QAEHI@Z:NEAR			; CWnd::KillTimer
; Function compile flags: /Odt /RTCsu
_TEXT	SEGMENT
_this$ = -4						; size = 4
_w$ = 8							; size = 4
___formal$ = 12						; size = 4
?OnDownSubClose@CDownloadPercentWnd@@QAEJIJ@Z PROC NEAR	; CDownloadPercentWnd::OnDownSubClose
; _this$ = ecx

; 141  : {

  008a0	55		 push	 ebp
  008a1	8b ec		 mov	 ebp, esp
  008a3	51		 push	 ecx
  008a4	56		 push	 esi
  008a5	c7 45 fc cc cc
	cc cc		 mov	 DWORD PTR [ebp-4], -858993460 ; ccccccccH
  008ac	89 4d fc	 mov	 DWORD PTR _this$[ebp], ecx

; 142  : 	KillTimer( TIMER_CHECK_DOWN );

  008af	6a 64		 push	 100			; 00000064H
  008b1	8b 4d fc	 mov	 ecx, DWORD PTR _this$[ebp]
  008b4	e8 00 00 00 00	 call	 ?KillTimer@CWnd@@QAEHI@Z ; CWnd::KillTimer

; 143  : 	if( m_pEvnet != NULL )

  008b9	8b 45 fc	 mov	 eax, DWORD PTR _this$[ebp]
  008bc	83 b8 20 02 00
	00 00		 cmp	 DWORD PTR [eax+544], 0
  008c3	74 24		 je	 SHORT $L188788

; 144  : 	{
; 145  : 		m_pEvnet->OnFinishDownSubject(w);

  008c5	8b f4		 mov	 esi, esp
  008c7	8b 4d 08	 mov	 ecx, DWORD PTR _w$[ebp]
  008ca	51		 push	 ecx
  008cb	8b 55 fc	 mov	 edx, DWORD PTR _this$[ebp]
  008ce	8b 82 20 02 00
	00		 mov	 eax, DWORD PTR [edx+544]
  008d4	8b 4d fc	 mov	 ecx, DWORD PTR _this$[ebp]
  008d7	8b 89 20 02 00
	00		 mov	 ecx, DWORD PTR [ecx+544]
  008dd	8b 10		 mov	 edx, DWORD PTR [eax]
  008df	ff 52 1c	 call	 DWORD PTR [edx+28]
  008e2	3b f4		 cmp	 esi, esp
  008e4	e8 00 00 00 00	 call	 __RTC_CheckEsp
$L188788:

; 146  : 	}
; 147  : 	return 0;

  008e9	33 c0		 xor	 eax, eax

; 148  : }

  008eb	5e		 pop	 esi
  008ec	83 c4 04	 add	 esp, 4
  008ef	3b ec		 cmp	 ebp, esp
  008f1	e8 00 00 00 00	 call	 __RTC_CheckEsp
  008f6	8b e5		 mov	 esp, ebp
  008f8	5d		 pop	 ebp
  008f9	c2 08 00	 ret	 8
?OnDownSubClose@CDownloadPercentWnd@@QAEJIJ@Z ENDP	; CDownloadPercentWnd::OnDownSubClose
_TEXT	ENDS
xdata$x	SEGMENT
$T189509 DD	0ffffffffH
	DD	00H
	DD	0ffffffffH
	DD	00H
$T189511 DD	00H
	DD	00H
	DD	00H
	DD	FLAT:$L189505
$T189510 DD	00H
	DD	00H
	DD	01H
	DD	01H
	DD	FLAT:$T189511
$T189507 DD	019930520H
	DD	02H
	DD	FLAT:$T189509
	DD	01H
	DD	FLAT:$T189510
	DD	2 DUP(00H)
; Function compile flags: /Odt /RTCsu
xdata$x	ENDS
_TEXT	SEGMENT
_this$ = -20						; size = 4
__$EHRec$ = -16						; size = 16
_nIDEvent$ = 8						; size = 4
?OnTimer@CDownloadPercentWnd@@QAEXI@Z PROC NEAR		; CDownloadPercentWnd::OnTimer
; _this$ = ecx

; 151  : {

  00900	55		 push	 ebp
  00901	8b ec		 mov	 ebp, esp
  00903	6a ff		 push	 -1
  00905	68 00 00 00 00	 push	 __ehhandler$?OnTimer@CDownloadPercentWnd@@QAEXI@Z
  0090a	64 a1 00 00 00
	00		 mov	 eax, DWORD PTR fs:__except_list
  00910	50		 push	 eax
  00911	64 89 25 00 00
	00 00		 mov	 DWORD PTR fs:__except_list, esp
  00918	51		 push	 ecx
  00919	51		 push	 ecx
  0091a	53		 push	 ebx
  0091b	56		 push	 esi
  0091c	57		 push	 edi
  0091d	c7 45 ec cc cc
	cc cc		 mov	 DWORD PTR [ebp-20], -858993460 ; ccccccccH
  00924	89 65 f0	 mov	 DWORD PTR __$EHRec$[ebp], esp
  00927	89 4d ec	 mov	 DWORD PTR _this$[ebp], ecx

; 152  : 	if( nIDEvent == TIMER_CHECK_DOWN )

  0092a	83 7d 08 64	 cmp	 DWORD PTR _nIDEvent$[ebp], 100 ; 00000064H
  0092e	75 0f		 jne	 SHORT $L189504

; 153  : 	{
; 154  : 		try
; 155  : 		{

  00930	c7 45 fc 00 00
	00 00		 mov	 DWORD PTR __$EHRec$[ebp+12], 0
  00937	eb 06		 jmp	 SHORT $L189504
$L189505:

; 156  : 			//m_bNetConnect = CCheckNetConnect::GetInstance()->IsNetConnect();
; 157  : 			//if(m_bNetConnect)
; 158  : 			//{
; 159  : 			//	m_iDownPercent += 10;
; 160  : 			//	if(m_iDownPercent < 99)
; 161  : 			//		SetDownloadPercent(m_iDownPercent);
; 162  : 			//}
; 163  : 		}	
; 164  : 		catch (...)
; 165  : 		{			
; 166  : 		}		

  00939	b8 00 00 00 00	 mov	 eax, $L189504
  0093e	c3		 ret	 0
$L189504:
  0093f	c7 45 fc ff ff
	ff ff		 mov	 DWORD PTR __$EHRec$[ebp+12], -1

; 167  : 	}
; 168  : 	return ;
; 169  : }

  00946	8b 4d f4	 mov	 ecx, DWORD PTR __$EHRec$[ebp+4]
  00949	64 89 0d 00 00
	00 00		 mov	 DWORD PTR fs:__except_list, ecx
  00950	5f		 pop	 edi
  00951	5e		 pop	 esi
  00952	5b		 pop	 ebx
  00953	8b e5		 mov	 esp, ebp
  00955	5d		 pop	 ebp
  00956	c2 04 00	 ret	 4
_TEXT	ENDS
text$x	SEGMENT
__ehhandler$?OnTimer@CDownloadPercentWnd@@QAEXI@Z:
  000a0	b8 00 00 00 00	 mov	 eax, OFFSET FLAT:$T189507
  000a5	e9 00 00 00 00	 jmp	 ___CxxFrameHandler
text$x	ENDS
?OnTimer@CDownloadPercentWnd@@QAEXI@Z ENDP		; CDownloadPercentWnd::OnTimer
END
