; Listing generated by Microsoft (R) Optimizing Compiler Version 13.10.3077 

	TITLE	.\src\module\GamePanel\DownPercentWnd.cpp
	.386P
include listing.inc
if @Version gt 510
.model FLAT
else
_TEXT	SEGMENT PARA USE32 PUBLIC 'CODE'
_TEXT	ENDS
_DATA	SEGMENT DWORD USE32 PUBLIC 'DATA'
_DATA	ENDS
CONST	SEGMENT DWORD USE32 PUBLIC 'CONST'
CONST	ENDS
_BSS	SEGMENT DWORD USE32 PUBLIC 'BSS'
_BSS	ENDS
$$SYMBOLS	SEGMENT BYTE USE32 'DEBSYM'
$$SYMBOLS	ENDS
_TLS	SEGMENT DWORD USE32 PUBLIC 'TLS'
_TLS	ENDS
;	COMDAT ??_C@_08OLHMJGAF@stop?4swf?$AA@
CONST	SEGMENT DWORD USE32 PUBLIC 'CONST'
CONST	ENDS
;	COMDAT ??_C@_0M@DBEKFKCI@loading?4swf?$AA@
CONST	SEGMENT DWORD USE32 PUBLIC 'CONST'
CONST	ENDS
;	COMDAT ??_C@_0BH@PCLJNBEP@?2Resources?2StandardUI?2?$AA@
CONST	SEGMENT DWORD USE32 PUBLIC 'CONST'
CONST	ENDS
;	COMDAT ??_C@_0EN@IBFBLEEG@D?3?2Program?5Files?5?$CIx86?$CJ?2Microsoft@
CONST	SEGMENT DWORD USE32 PUBLIC 'CONST'
CONST	ENDS
;	COMDAT ??_C@_0BD@OLBABOEK@vector?$DMT?$DO?5too?5long?$AA@
CONST	SEGMENT DWORD USE32 PUBLIC 'CONST'
CONST	ENDS
rdata$r	SEGMENT DWORD USE32 PUBLIC 'CONST'
rdata$r	ENDS
xdata$x	SEGMENT DWORD USE32 PUBLIC 'CONST'
xdata$x	ENDS
text$AFX_COL1	SEGMENT PARA USE32 PUBLIC ''
text$AFX_COL1	ENDS
text$yc	SEGMENT PARA USE32 PUBLIC 'CODE'
text$yc	ENDS
CRT$XCA	SEGMENT DWORD USE32 PUBLIC 'DATA'
CRT$XCA	ENDS
CRT$XCU	SEGMENT DWORD USE32 PUBLIC 'DATA'
CRT$XCU	ENDS
CRT$XCL	SEGMENT DWORD USE32 PUBLIC 'DATA'
CRT$XCL	ENDS
CRT$XCC	SEGMENT DWORD USE32 PUBLIC 'DATA'
CRT$XCC	ENDS
CRT$XCZ	SEGMENT DWORD USE32 PUBLIC 'DATA'
CRT$XCZ	ENDS
text$yd	SEGMENT PARA USE32 PUBLIC 'CODE'
text$yd	ENDS
ATL$__m	SEGMENT DWORD USE32 PUBLIC ''
ATL$__m	ENDS
ATL$__z	SEGMENT DWORD USE32 PUBLIC ''
ATL$__z	ENDS
ATL$__a	SEGMENT DWORD USE32 PUBLIC ''
ATL$__a	ENDS
;	COMDAT ?GetClsid@CShockwaveFlash@@QAEABU_GUID@@XZ
_TEXT	SEGMENT PARA USE32 PUBLIC 'CODE'
_TEXT	ENDS
;	COMDAT ??1IData@@MAE@XZ
_TEXT	SEGMENT PARA USE32 PUBLIC 'CODE'
_TEXT	ENDS
;	COMDAT ?DataAppStart@IData@@UAEXXZ
_TEXT	SEGMENT PARA USE32 PUBLIC 'CODE'
_TEXT	ENDS
;	COMDAT ?DataAppExit@IData@@UAEXXZ
_TEXT	SEGMENT PARA USE32 PUBLIC 'CODE'
_TEXT	ENDS
;	COMDAT ??_GIData@@MAEPAXI@Z
_TEXT	SEGMENT PARA USE32 PUBLIC 'CODE'
_TEXT	ENDS
;	COMDAT ??1IAdData@@MAE@XZ
_TEXT	SEGMENT PARA USE32 PUBLIC 'CODE'
_TEXT	ENDS
;	COMDAT ??_GIAdData@@MAEPAXI@Z
_TEXT	SEGMENT PARA USE32 PUBLIC 'CODE'
_TEXT	ENDS
;	COMDAT ?GetSwfPath@GlobalSwfPath@@SA?AV?$CStringT@DV?$StrTraitMFC_DLL@DV?$ChTraitsCRT@D@ATL@@@@@ATL@@XZ
_TEXT	SEGMENT PARA USE32 PUBLIC 'CODE'
_TEXT	ENDS
;	COMDAT ?clear@OneLocalGame@@QAEXXZ
_TEXT	SEGMENT PARA USE32 PUBLIC 'CODE'
_TEXT	ENDS
;	COMDAT ??_GDownPercentWnd@@UAEPAXI@Z
_TEXT	SEGMENT PARA USE32 PUBLIC 'CODE'
_TEXT	ENDS
;	COMDAT ??0CBasicSkinWnd@@QAE@XZ
_TEXT	SEGMENT PARA USE32 PUBLIC 'CODE'
_TEXT	ENDS
;	COMDAT ??0AD_STRUCT@@QAE@XZ
_TEXT	SEGMENT PARA USE32 PUBLIC 'CODE'
_TEXT	ENDS
;	COMDAT ??1AD_STRUCT@@QAE@XZ
_TEXT	SEGMENT PARA USE32 PUBLIC 'CODE'
_TEXT	ENDS
;	COMDAT ??HATL@@YA?AV?$CStringT@DV?$StrTraitMFC_DLL@DV?$ChTraitsCRT@D@ATL@@@@@0@ABV10@PBD@Z
_TEXT	SEGMENT PARA USE32 PUBLIC 'CODE'
_TEXT	ENDS
;	COMDAT ??B?$CComPtrBase@UITypeInfo2@@@ATL@@QBEPAUITypeInfo2@@XZ
_TEXT	SEGMENT PARA USE32 PUBLIC 'CODE'
_TEXT	ENDS
;	COMDAT ?equal@?$istreambuf_iterator@DU?$char_traits@D@std@@@std@@QBE_NABV12@@Z
_TEXT	SEGMENT PARA USE32 PUBLIC 'CODE'
_TEXT	ENDS
;	COMDAT ?equal@?$istreambuf_iterator@_WU?$char_traits@_W@std@@@std@@QBE_NABV12@@Z
_TEXT	SEGMENT PARA USE32 PUBLIC 'CODE'
_TEXT	ENDS
;	COMDAT ??0?$vector@V?$basic_string@DU?$char_traits@D@std@@V?$allocator@D@2@@std@@V?$allocator@V?$basic_string@DU?$char_traits@D@std@@V?$allocator@D@2@@std@@@2@@std@@QAE@XZ
_TEXT	SEGMENT PARA USE32 PUBLIC 'CODE'
_TEXT	ENDS
;	COMDAT ??1?$vector@V?$basic_string@DU?$char_traits@D@std@@V?$allocator@D@2@@std@@V?$allocator@V?$basic_string@DU?$char_traits@D@std@@V?$allocator@D@2@@std@@@2@@std@@QAE@XZ
_TEXT	SEGMENT PARA USE32 PUBLIC 'CODE'
_TEXT	ENDS
;	COMDAT ?begin@?$vector@V?$basic_string@DU?$char_traits@D@std@@V?$allocator@D@2@@std@@V?$allocator@V?$basic_string@DU?$char_traits@D@std@@V?$allocator@D@2@@std@@@2@@std@@QAE?AViterator@12@XZ
_TEXT	SEGMENT PARA USE32 PUBLIC 'CODE'
_TEXT	ENDS
;	COMDAT ?end@?$vector@V?$basic_string@DU?$char_traits@D@std@@V?$allocator@D@2@@std@@V?$allocator@V?$basic_string@DU?$char_traits@D@std@@V?$allocator@D@2@@std@@@2@@std@@QAE?AViterator@12@XZ
_TEXT	SEGMENT PARA USE32 PUBLIC 'CODE'
_TEXT	ENDS
;	COMDAT ?size@?$vector@V?$basic_string@DU?$char_traits@D@std@@V?$allocator@D@2@@std@@V?$allocator@V?$basic_string@DU?$char_traits@D@std@@V?$allocator@D@2@@std@@@2@@std@@QBEIXZ
_TEXT	SEGMENT PARA USE32 PUBLIC 'CODE'
_TEXT	ENDS
;	COMDAT ??A?$vector@V?$basic_string@DU?$char_traits@D@std@@V?$allocator@D@2@@std@@V?$allocator@V?$basic_string@DU?$char_traits@D@std@@V?$allocator@D@2@@std@@@2@@std@@QAEAAV?$basic_string@DU?$char_traits@D@std@@V?$allocator@D@2@@1@I@Z
_TEXT	SEGMENT PARA USE32 PUBLIC 'CODE'
_TEXT	ENDS
;	COMDAT ?clear@?$vector@V?$basic_string@DU?$char_traits@D@std@@V?$allocator@D@2@@std@@V?$allocator@V?$basic_string@DU?$char_traits@D@std@@V?$allocator@D@2@@std@@@2@@std@@QAEXXZ
_TEXT	SEGMENT PARA USE32 PUBLIC 'CODE'
_TEXT	ENDS
;	COMDAT ??0?$allocator@V?$basic_string@DU?$char_traits@D@std@@V?$allocator@D@2@@std@@@std@@QAE@XZ
_TEXT	SEGMENT PARA USE32 PUBLIC 'CODE'
_TEXT	ENDS
;	COMDAT ?_Buy@?$vector@V?$basic_string@DU?$char_traits@D@std@@V?$allocator@D@2@@std@@V?$allocator@V?$basic_string@DU?$char_traits@D@std@@V?$allocator@D@2@@std@@@2@@std@@IAE_NI@Z
_TEXT	SEGMENT PARA USE32 PUBLIC 'CODE'
_TEXT	ENDS
;	COMDAT ?_Tidy@?$vector@V?$basic_string@DU?$char_traits@D@std@@V?$allocator@D@2@@std@@V?$allocator@V?$basic_string@DU?$char_traits@D@std@@V?$allocator@D@2@@std@@@2@@std@@IAEXXZ
_TEXT	SEGMENT PARA USE32 PUBLIC 'CODE'
_TEXT	ENDS
;	COMDAT ??0?$_Vector_val@V?$basic_string@DU?$char_traits@D@std@@V?$allocator@D@2@@std@@V?$allocator@V?$basic_string@DU?$char_traits@D@std@@V?$allocator@D@2@@std@@@2@@std@@IAE@V?$allocator@V?$basic_string@DU?$char_traits@D@std@@V?$allocator@D@2@@std@@@1@@Z
_TEXT	SEGMENT PARA USE32 PUBLIC 'CODE'
_TEXT	ENDS
;	COMDAT ??0iterator@?$vector@V?$basic_string@DU?$char_traits@D@std@@V?$allocator@D@2@@std@@V?$allocator@V?$basic_string@DU?$char_traits@D@std@@V?$allocator@D@2@@std@@@2@@std@@QAE@PAV?$basic_string@DU?$char_traits@D@std@@V?$allocator@D@2@@2@@Z
_TEXT	SEGMENT PARA USE32 PUBLIC 'CODE'
_TEXT	ENDS
;	COMDAT ??Diterator@?$vector@V?$basic_string@DU?$char_traits@D@std@@V?$allocator@D@2@@std@@V?$allocator@V?$basic_string@DU?$char_traits@D@std@@V?$allocator@D@2@@std@@@2@@std@@QBEAAV?$basic_string@DU?$char_traits@D@std@@V?$allocator@D@2@@2@XZ
_TEXT	SEGMENT PARA USE32 PUBLIC 'CODE'
_TEXT	ENDS
;	COMDAT ??Hiterator@?$vector@V?$basic_string@DU?$char_traits@D@std@@V?$allocator@D@2@@std@@V?$allocator@V?$basic_string@DU?$char_traits@D@std@@V?$allocator@D@2@@std@@@2@@std@@QBE?AV012@H@Z
_TEXT	SEGMENT PARA USE32 PUBLIC 'CODE'
_TEXT	ENDS
;	COMDAT ??0?$allocator@V?$basic_string@DU?$char_traits@D@std@@V?$allocator@D@2@@std@@@std@@QAE@ABV01@@Z
_TEXT	SEGMENT PARA USE32 PUBLIC 'CODE'
_TEXT	ENDS
;	COMDAT ?deallocate@?$allocator@V?$basic_string@DU?$char_traits@D@std@@V?$allocator@D@2@@std@@@std@@QAEXPAV?$basic_string@DU?$char_traits@D@std@@V?$allocator@D@2@@2@I@Z
_TEXT	SEGMENT PARA USE32 PUBLIC 'CODE'
_TEXT	ENDS
;	COMDAT ?allocate@?$allocator@V?$basic_string@DU?$char_traits@D@std@@V?$allocator@D@2@@std@@@std@@QAEPAV?$basic_string@DU?$char_traits@D@std@@V?$allocator@D@2@@2@I@Z
_TEXT	SEGMENT PARA USE32 PUBLIC 'CODE'
_TEXT	ENDS
;	COMDAT ??0iterator@?$basic_string@DU?$char_traits@D@std@@V?$allocator@D@2@@std@@QAE@PAD@Z
_TEXT	SEGMENT PARA USE32 PUBLIC 'CODE'
_TEXT	ENDS
;	COMDAT ?max_size@?$vector@V?$basic_string@DU?$char_traits@D@std@@V?$allocator@D@2@@std@@V?$allocator@V?$basic_string@DU?$char_traits@D@std@@V?$allocator@D@2@@std@@@2@@std@@QBEIXZ
_TEXT	SEGMENT PARA USE32 PUBLIC 'CODE'
_TEXT	ENDS
;	COMDAT ?_Destroy@?$vector@V?$basic_string@DU?$char_traits@D@std@@V?$allocator@D@2@@std@@V?$allocator@V?$basic_string@DU?$char_traits@D@std@@V?$allocator@D@2@@std@@@2@@std@@IAEXPAV?$basic_string@DU?$char_traits@D@std@@V?$allocator@D@2@@2@0@Z
_TEXT	SEGMENT PARA USE32 PUBLIC 'CODE'
_TEXT	ENDS
;	COMDAT ?_Xlen@?$vector@V?$basic_string@DU?$char_traits@D@std@@V?$allocator@D@2@@std@@V?$allocator@V?$basic_string@DU?$char_traits@D@std@@V?$allocator@D@2@@std@@@2@@std@@IBEXXZ
_TEXT	SEGMENT PARA USE32 PUBLIC 'CODE'
_TEXT	ENDS
;	COMDAT ??Yiterator@?$vector@V?$basic_string@DU?$char_traits@D@std@@V?$allocator@D@2@@std@@V?$allocator@V?$basic_string@DU?$char_traits@D@std@@V?$allocator@D@2@@std@@@2@@std@@QAEAAV012@H@Z
_TEXT	SEGMENT PARA USE32 PUBLIC 'CODE'
_TEXT	ENDS
;	COMDAT ??0const_iterator@?$vector@V?$basic_string@DU?$char_traits@D@std@@V?$allocator@D@2@@std@@V?$allocator@V?$basic_string@DU?$char_traits@D@std@@V?$allocator@D@2@@std@@@2@@std@@QAE@PAV?$basic_string@DU?$char_traits@D@std@@V?$allocator@D@2@@2@@Z
_TEXT	SEGMENT PARA USE32 PUBLIC 'CODE'
_TEXT	ENDS
;	COMDAT ??Dconst_iterator@?$vector@V?$basic_string@DU?$char_traits@D@std@@V?$allocator@D@2@@std@@V?$allocator@V?$basic_string@DU?$char_traits@D@std@@V?$allocator@D@2@@std@@@2@@std@@QBEABV?$basic_string@DU?$char_traits@D@std@@V?$allocator@D@2@@2@XZ
_TEXT	SEGMENT PARA USE32 PUBLIC 'CODE'
_TEXT	ENDS
;	COMDAT ??0length_error@std@@QAE@ABV01@@Z
_TEXT	SEGMENT PARA USE32 PUBLIC 'CODE'
_TEXT	ENDS
;	COMDAT ?max_size@?$allocator@V?$basic_string@DU?$char_traits@D@std@@V?$allocator@D@2@@std@@@std@@QBEIXZ
_TEXT	SEGMENT PARA USE32 PUBLIC 'CODE'
_TEXT	ENDS
;	COMDAT ??0const_iterator@?$basic_string@DU?$char_traits@D@std@@V?$allocator@D@2@@std@@QAE@PBD@Z
_TEXT	SEGMENT PARA USE32 PUBLIC 'CODE'
_TEXT	ENDS
;	COMDAT ??Gconst_iterator@?$basic_string@DU?$char_traits@D@std@@V?$allocator@D@2@@std@@QBEHABV012@@Z
_TEXT	SEGMENT PARA USE32 PUBLIC 'CODE'
_TEXT	ENDS
;	COMDAT ?Unlock@?$CComCritSecLock@VCComCriticalSection@ATL@@@ATL@@QAEXXZ
_TEXT	SEGMENT PARA USE32 PUBLIC 'CODE'
_TEXT	ENDS
;	COMDAT ??$back_inserter@V?$vector@V?$basic_string@DU?$char_traits@D@std@@V?$allocator@D@2@@std@@V?$allocator@V?$basic_string@DU?$char_traits@D@std@@V?$allocator@D@2@@std@@@2@@std@@@std@@YA?AV?$back_insert_iterator@V?$vector@V?$basic_string@DU?$char_traits@D@std@@V?$allocator@D@2@@std@@V?$allocator@V?$basic_string@DU?$char_traits@D@std@@V?$allocator@D@2@@std@@@2@@std@@@0@AAV?$vector@V?$basic_string@DU?$char_traits@D@std@@V?$allocator@D@2@@std@@V?$allocator@V?$basic_string@DU?$char_traits@D@std@@V?$allocator@D@2@@std@@@2@@0@@Z
_TEXT	SEGMENT PARA USE32 PUBLIC 'CODE'
_TEXT	ENDS
;	COMDAT ??$copy@Viterator@?$vector@V?$basic_string@DU?$char_traits@D@std@@V?$allocator@D@2@@std@@V?$allocator@V?$basic_string@DU?$char_traits@D@std@@V?$allocator@D@2@@std@@@2@@std@@V?$back_insert_iterator@V?$vector@V?$basic_string@DU?$char_traits@D@std@@V?$allocator@D@2@@std@@V?$allocator@V?$basic_string@DU?$char_traits@D@std@@V?$allocator@D@2@@std@@@2@@std@@@3@@std@@YA?AV?$back_insert_iterator@V?$vector@V?$basic_string@DU?$char_traits@D@std@@V?$allocator@D@2@@std@@V?$allocator@V?$basic_string@DU?$char_traits@D@std@@V?$allocator@D@2@@std@@@2@@std@@@0@Viterator@?$vector@V?$basic_string@DU?$char_traits@D@std@@V?$allocator@D@2@@std@@V?$allocator@V?$basic_string@DU?$char_traits@D@std@@V?$allocator@D@2@@std@@@2@@0@0V10@@Z
_TEXT	SEGMENT PARA USE32 PUBLIC 'CODE'
_TEXT	ENDS
;	COMDAT ??$_Maklocstr@D@std@@YAPADPBDPADABU_Cvtvec@@@Z
_TEXT	SEGMENT PARA USE32 PUBLIC 'CODE'
_TEXT	ENDS
;	COMDAT ??$_Allocate@V?$basic_string@DU?$char_traits@D@std@@V?$allocator@D@2@@std@@@std@@YAPAV?$basic_string@DU?$char_traits@D@std@@V?$allocator@D@2@@0@IPAV10@@Z
_TEXT	SEGMENT PARA USE32 PUBLIC 'CODE'
_TEXT	ENDS
;	COMDAT ??$_Destroy_range@V?$basic_string@DU?$char_traits@D@std@@V?$allocator@D@2@@std@@V?$allocator@V?$basic_string@DU?$char_traits@D@std@@V?$allocator@D@2@@std@@@2@@std@@YAXPAV?$basic_string@DU?$char_traits@D@std@@V?$allocator@D@2@@0@0AAV?$allocator@V?$basic_string@DU?$char_traits@D@std@@V?$allocator@D@2@@std@@@0@@Z
_TEXT	SEGMENT PARA USE32 PUBLIC 'CODE'
_TEXT	ENDS
;	COMDAT ??0?$back_insert_iterator@V?$vector@V?$basic_string@DU?$char_traits@D@std@@V?$allocator@D@2@@std@@V?$allocator@V?$basic_string@DU?$char_traits@D@std@@V?$allocator@D@2@@std@@@2@@std@@@std@@QAE@AAV?$vector@V?$basic_string@DU?$char_traits@D@std@@V?$allocator@D@2@@std@@V?$allocator@V?$basic_string@DU?$char_traits@D@std@@V?$allocator@D@2@@std@@@2@@1@@Z
_TEXT	SEGMENT PARA USE32 PUBLIC 'CODE'
_TEXT	ENDS
;	COMDAT ??$_Ptr_cat@Viterator@?$vector@V?$basic_string@DU?$char_traits@D@std@@V?$allocator@D@2@@std@@V?$allocator@V?$basic_string@DU?$char_traits@D@std@@V?$allocator@D@2@@std@@@2@@std@@V?$back_insert_iterator@V?$vector@V?$basic_string@DU?$char_traits@D@std@@V?$allocator@D@2@@std@@V?$allocator@V?$basic_string@DU?$char_traits@D@std@@V?$allocator@D@2@@std@@@2@@std@@@3@@std@@YA?AU_Nonscalar_ptr_iterator_tag@0@AAViterator@?$vector@V?$basic_string@DU?$char_traits@D@std@@V?$allocator@D@2@@std@@V?$allocator@V?$basic_string@DU?$char_traits@D@std@@V?$allocator@D@2@@std@@@2@@0@AAV?$back_insert_iterator@V?$vector@V?$basic_string@DU?$char_traits@D@std@@V?$allocator@D@2@@std@@V?$allocator@V?$basic_string@DU?$char_traits@D@std@@V?$allocator@D@2@@std@@@2@@std@@@0@@Z
_TEXT	SEGMENT PARA USE32 PUBLIC 'CODE'
_TEXT	ENDS
;	COMDAT ??$_Copy_opt@Viterator@?$vector@V?$basic_string@DU?$char_traits@D@std@@V?$allocator@D@2@@std@@V?$allocator@V?$basic_string@DU?$char_traits@D@std@@V?$allocator@D@2@@std@@@2@@std@@V?$back_insert_iterator@V?$vector@V?$basic_string@DU?$char_traits@D@std@@V?$allocator@D@2@@std@@V?$allocator@V?$basic_string@DU?$char_traits@D@std@@V?$allocator@D@2@@std@@@2@@std@@@3@@std@@YA?AV?$back_insert_iterator@V?$vector@V?$basic_string@DU?$char_traits@D@std@@V?$allocator@D@2@@std@@V?$allocator@V?$basic_string@DU?$char_traits@D@std@@V?$allocator@D@2@@std@@@2@@std@@@0@Viterator@?$vector@V?$basic_string@DU?$char_traits@D@std@@V?$allocator@D@2@@std@@V?$allocator@V?$basic_string@DU?$char_traits@D@std@@V?$allocator@D@2@@std@@@2@@0@0V10@U_Nonscalar_ptr_iterator_tag@0@@Z
_TEXT	SEGMENT PARA USE32 PUBLIC 'CODE'
_TEXT	ENDS
;	COMDAT ??$_Ptr_cat@PAV?$basic_string@DU?$char_traits@D@std@@V?$allocator@D@2@@std@@PAV12@@std@@YA?AU_Nonscalar_ptr_iterator_tag@0@AAPAV?$basic_string@DU?$char_traits@D@std@@V?$allocator@D@2@@0@0@Z
_TEXT	SEGMENT PARA USE32 PUBLIC 'CODE'
_TEXT	ENDS
;	COMDAT ??$_Destroy_range@V?$basic_string@DU?$char_traits@D@std@@V?$allocator@D@2@@std@@V?$allocator@V?$basic_string@DU?$char_traits@D@std@@V?$allocator@D@2@@std@@@2@@std@@YAXPAV?$basic_string@DU?$char_traits@D@std@@V?$allocator@D@2@@0@0AAV?$allocator@V?$basic_string@DU?$char_traits@D@std@@V?$allocator@D@2@@std@@@0@U_Nonscalar_ptr_iterator_tag@0@@Z
_TEXT	SEGMENT PARA USE32 PUBLIC 'CODE'
_TEXT	ENDS
;	COMDAT ?destroy@?$allocator@V?$basic_string@DU?$char_traits@D@std@@V?$allocator@D@2@@std@@@std@@QAEXPAV?$basic_string@DU?$char_traits@D@std@@V?$allocator@D@2@@2@@Z
_TEXT	SEGMENT PARA USE32 PUBLIC 'CODE'
_TEXT	ENDS
;	COMDAT ??Eiterator@?$vector@V?$basic_string@DU?$char_traits@D@std@@V?$allocator@D@2@@std@@V?$allocator@V?$basic_string@DU?$char_traits@D@std@@V?$allocator@D@2@@std@@@2@@std@@QAEAAV012@XZ
_TEXT	SEGMENT PARA USE32 PUBLIC 'CODE'
_TEXT	ENDS
;	COMDAT ??9const_iterator@?$vector@V?$basic_string@DU?$char_traits@D@std@@V?$allocator@D@2@@std@@V?$allocator@V?$basic_string@DU?$char_traits@D@std@@V?$allocator@D@2@@std@@@2@@std@@QBE_NABV012@@Z
_TEXT	SEGMENT PARA USE32 PUBLIC 'CODE'
_TEXT	ENDS
;	COMDAT ??4?$back_insert_iterator@V?$vector@V?$basic_string@DU?$char_traits@D@std@@V?$allocator@D@2@@std@@V?$allocator@V?$basic_string@DU?$char_traits@D@std@@V?$allocator@D@2@@std@@@2@@std@@@std@@QAEAAV01@ABV?$basic_string@DU?$char_traits@D@std@@V?$allocator@D@2@@1@@Z
_TEXT	SEGMENT PARA USE32 PUBLIC 'CODE'
_TEXT	ENDS
;	COMDAT ??D?$back_insert_iterator@V?$vector@V?$basic_string@DU?$char_traits@D@std@@V?$allocator@D@2@@std@@V?$allocator@V?$basic_string@DU?$char_traits@D@std@@V?$allocator@D@2@@std@@@2@@std@@@std@@QAEAAV01@XZ
_TEXT	SEGMENT PARA USE32 PUBLIC 'CODE'
_TEXT	ENDS
;	COMDAT ??E?$back_insert_iterator@V?$vector@V?$basic_string@DU?$char_traits@D@std@@V?$allocator@D@2@@std@@V?$allocator@V?$basic_string@DU?$char_traits@D@std@@V?$allocator@D@2@@std@@@2@@std@@@std@@QAEAAV01@XZ
_TEXT	SEGMENT PARA USE32 PUBLIC 'CODE'
_TEXT	ENDS
;	COMDAT ?push_back@?$vector@V?$basic_string@DU?$char_traits@D@std@@V?$allocator@D@2@@std@@V?$allocator@V?$basic_string@DU?$char_traits@D@std@@V?$allocator@D@2@@std@@@2@@std@@QAEXABV?$basic_string@DU?$char_traits@D@std@@V?$allocator@D@2@@2@@Z
_TEXT	SEGMENT PARA USE32 PUBLIC 'CODE'
_TEXT	ENDS
;	COMDAT ??8const_iterator@?$vector@V?$basic_string@DU?$char_traits@D@std@@V?$allocator@D@2@@std@@V?$allocator@V?$basic_string@DU?$char_traits@D@std@@V?$allocator@D@2@@std@@@2@@std@@QBE_NABV012@@Z
_TEXT	SEGMENT PARA USE32 PUBLIC 'CODE'
_TEXT	ENDS
;	COMDAT ?capacity@?$vector@V?$basic_string@DU?$char_traits@D@std@@V?$allocator@D@2@@std@@V?$allocator@V?$basic_string@DU?$char_traits@D@std@@V?$allocator@D@2@@std@@@2@@std@@QBEIXZ
_TEXT	SEGMENT PARA USE32 PUBLIC 'CODE'
_TEXT	ENDS
;	COMDAT ?insert@?$vector@V?$basic_string@DU?$char_traits@D@std@@V?$allocator@D@2@@std@@V?$allocator@V?$basic_string@DU?$char_traits@D@std@@V?$allocator@D@2@@std@@@2@@std@@QAE?AViterator@12@V312@ABV?$basic_string@DU?$char_traits@D@std@@V?$allocator@D@2@@2@@Z
_TEXT	SEGMENT PARA USE32 PUBLIC 'CODE'
_TEXT	ENDS
;	COMDAT ?_Ufill@?$vector@V?$basic_string@DU?$char_traits@D@std@@V?$allocator@D@2@@std@@V?$allocator@V?$basic_string@DU?$char_traits@D@std@@V?$allocator@D@2@@std@@@2@@std@@IAEPAV?$basic_string@DU?$char_traits@D@std@@V?$allocator@D@2@@2@PAV32@IABV32@@Z
_TEXT	SEGMENT PARA USE32 PUBLIC 'CODE'
_TEXT	ENDS
;	COMDAT ?_Insert_n@?$vector@V?$basic_string@DU?$char_traits@D@std@@V?$allocator@D@2@@std@@V?$allocator@V?$basic_string@DU?$char_traits@D@std@@V?$allocator@D@2@@std@@@2@@std@@IAEXViterator@12@IABV?$basic_string@DU?$char_traits@D@std@@V?$allocator@D@2@@2@@Z
_TEXT	SEGMENT PARA USE32 PUBLIC 'CODE'
_TEXT	ENDS
;	COMDAT ??Giterator@?$vector@V?$basic_string@DU?$char_traits@D@std@@V?$allocator@D@2@@std@@V?$allocator@V?$basic_string@DU?$char_traits@D@std@@V?$allocator@D@2@@std@@@2@@std@@QBEHABVconst_iterator@12@@Z
_TEXT	SEGMENT PARA USE32 PUBLIC 'CODE'
_TEXT	ENDS
;	COMDAT ??Gconst_iterator@?$vector@V?$basic_string@DU?$char_traits@D@std@@V?$allocator@D@2@@std@@V?$allocator@V?$basic_string@DU?$char_traits@D@std@@V?$allocator@D@2@@std@@@2@@std@@QBEHABV012@@Z
_TEXT	SEGMENT PARA USE32 PUBLIC 'CODE'
_TEXT	ENDS
;	COMDAT ??$_Destroy@V?$basic_string@DU?$char_traits@D@std@@V?$allocator@D@2@@std@@@std@@YAXPAV?$basic_string@DU?$char_traits@D@std@@V?$allocator@D@2@@0@@Z
_TEXT	SEGMENT PARA USE32 PUBLIC 'CODE'
_TEXT	ENDS
;	COMDAT ??$_Uninitialized_fill_n@PAV?$basic_string@DU?$char_traits@D@std@@V?$allocator@D@2@@std@@IV12@V?$allocator@V?$basic_string@DU?$char_traits@D@std@@V?$allocator@D@2@@std@@@2@@std@@YAXPAV?$basic_string@DU?$char_traits@D@std@@V?$allocator@D@2@@0@IABV10@AAV?$allocator@V?$basic_string@DU?$char_traits@D@std@@V?$allocator@D@2@@std@@@0@@Z
_TEXT	SEGMENT PARA USE32 PUBLIC 'CODE'
_TEXT	ENDS
;	COMDAT ??$_Ucopy@PAV?$basic_string@DU?$char_traits@D@std@@V?$allocator@D@2@@std@@@?$vector@V?$basic_string@DU?$char_traits@D@std@@V?$allocator@D@2@@std@@V?$allocator@V?$basic_string@DU?$char_traits@D@std@@V?$allocator@D@2@@std@@@2@@std@@IAEPAV?$basic_string@DU?$char_traits@D@std@@V?$allocator@D@2@@1@PAV21@00@Z
_TEXT	SEGMENT PARA USE32 PUBLIC 'CODE'
_TEXT	ENDS
;	COMDAT ??$fill@PAV?$basic_string@DU?$char_traits@D@std@@V?$allocator@D@2@@std@@V12@@std@@YAXPAV?$basic_string@DU?$char_traits@D@std@@V?$allocator@D@2@@0@0ABV10@@Z
_TEXT	SEGMENT PARA USE32 PUBLIC 'CODE'
_TEXT	ENDS
;	COMDAT ??$copy_backward@PAV?$basic_string@DU?$char_traits@D@std@@V?$allocator@D@2@@std@@PAV12@@std@@YAPAV?$basic_string@DU?$char_traits@D@std@@V?$allocator@D@2@@0@PAV10@00@Z
_TEXT	SEGMENT PARA USE32 PUBLIC 'CODE'
_TEXT	ENDS
;	COMDAT ??_G?$basic_string@DU?$char_traits@D@std@@V?$allocator@D@2@@std@@QAEPAXI@Z
_TEXT	SEGMENT PARA USE32 PUBLIC 'CODE'
_TEXT	ENDS
;	COMDAT ??$_Uninit_fill_n@PAV?$basic_string@DU?$char_traits@D@std@@V?$allocator@D@2@@std@@IV12@V?$allocator@V?$basic_string@DU?$char_traits@D@std@@V?$allocator@D@2@@std@@@2@@std@@YAXPAV?$basic_string@DU?$char_traits@D@std@@V?$allocator@D@2@@0@IABV10@AAV?$allocator@V?$basic_string@DU?$char_traits@D@std@@V?$allocator@D@2@@std@@@0@U_Nonscalar_ptr_iterator_tag@0@@Z
_TEXT	SEGMENT PARA USE32 PUBLIC 'CODE'
_TEXT	ENDS
;	COMDAT ??$_Uninitialized_copy@PAV?$basic_string@DU?$char_traits@D@std@@V?$allocator@D@2@@std@@PAV12@V?$allocator@V?$basic_string@DU?$char_traits@D@std@@V?$allocator@D@2@@std@@@2@@std@@YAPAV?$basic_string@DU?$char_traits@D@std@@V?$allocator@D@2@@0@PAV10@00AAV?$allocator@V?$basic_string@DU?$char_traits@D@std@@V?$allocator@D@2@@std@@@0@@Z
_TEXT	SEGMENT PARA USE32 PUBLIC 'CODE'
_TEXT	ENDS
;	COMDAT ??$_Copy_backward_opt@PAV?$basic_string@DU?$char_traits@D@std@@V?$allocator@D@2@@std@@PAV12@@std@@YAPAV?$basic_string@DU?$char_traits@D@std@@V?$allocator@D@2@@0@PAV10@00U_Nonscalar_ptr_iterator_tag@0@@Z
_TEXT	SEGMENT PARA USE32 PUBLIC 'CODE'
_TEXT	ENDS
;	COMDAT ?construct@?$allocator@V?$basic_string@DU?$char_traits@D@std@@V?$allocator@D@2@@std@@@std@@QAEXPAV?$basic_string@DU?$char_traits@D@std@@V?$allocator@D@2@@2@ABV32@@Z
_TEXT	SEGMENT PARA USE32 PUBLIC 'CODE'
_TEXT	ENDS
;	COMDAT ??$_Uninit_copy@PAV?$basic_string@DU?$char_traits@D@std@@V?$allocator@D@2@@std@@PAV12@V?$allocator@V?$basic_string@DU?$char_traits@D@std@@V?$allocator@D@2@@std@@@2@@std@@YAPAV?$basic_string@DU?$char_traits@D@std@@V?$allocator@D@2@@0@PAV10@00AAV?$allocator@V?$basic_string@DU?$char_traits@D@std@@V?$allocator@D@2@@std@@@0@U_Nonscalar_ptr_iterator_tag@0@@Z
_TEXT	SEGMENT PARA USE32 PUBLIC 'CODE'
_TEXT	ENDS
;	COMDAT ??$_Construct@V?$basic_string@DU?$char_traits@D@std@@V?$allocator@D@2@@std@@V12@@std@@YAXPAV?$basic_string@DU?$char_traits@D@std@@V?$allocator@D@2@@0@ABV10@@Z
_TEXT	SEGMENT PARA USE32 PUBLIC 'CODE'
_TEXT	ENDS
;	COMDAT ??_EDownPercentWnd@@WFE@AEPAXI@Z
_TEXT	SEGMENT PARA USE32 PUBLIC 'CODE'
_TEXT	ENDS
;	COMDAT ??_R3DownPercentWnd@@8
rdata$r	SEGMENT DWORD USE32 PUBLIC 'CONST'
rdata$r	ENDS
;	COMDAT ??_R3IAdData@@8
rdata$r	SEGMENT DWORD USE32 PUBLIC 'CONST'
rdata$r	ENDS
;	COMDAT ??_R3?$numpunct@_W@std@@8
rdata$r	SEGMENT DWORD USE32 PUBLIC 'CONST'
rdata$r	ENDS
;	COMDAT ??_R3?$numpunct@D@std@@8
rdata$r	SEGMENT DWORD USE32 PUBLIC 'CONST'
rdata$r	ENDS
;	COMDAT ??_R3IData@@8
rdata$r	SEGMENT DWORD USE32 PUBLIC 'CONST'
rdata$r	ENDS
;	COMDAT ??_R2DownPercentWnd@@8
rdata$r	SEGMENT DWORD USE32 PUBLIC 'CONST'
rdata$r	ENDS
;	COMDAT ??_R2IAdData@@8
rdata$r	SEGMENT DWORD USE32 PUBLIC 'CONST'
rdata$r	ENDS
;	COMDAT ??_R2?$numpunct@_W@std@@8
rdata$r	SEGMENT DWORD USE32 PUBLIC 'CONST'
rdata$r	ENDS
;	COMDAT ??_R2?$numpunct@D@std@@8
rdata$r	SEGMENT DWORD USE32 PUBLIC 'CONST'
rdata$r	ENDS
;	COMDAT ??_R2IData@@8
rdata$r	SEGMENT DWORD USE32 PUBLIC 'CONST'
rdata$r	ENDS
;	COMDAT ??_R1FE@?0A@A@CBasicSkinWnd@@8
rdata$r	SEGMENT DWORD USE32 PUBLIC 'CONST'
rdata$r	ENDS
;	COMDAT ??_R1A@?0A@A@CObject@@8
rdata$r	SEGMENT DWORD USE32 PUBLIC 'CONST'
rdata$r	ENDS
;	COMDAT ??_R0?AVCObject@@@8
_DATA	SEGMENT DWORD USE32 PUBLIC 'DATA'
_DATA	ENDS
;	COMDAT ??_R1A@?0A@A@CCmdTarget@@8
rdata$r	SEGMENT DWORD USE32 PUBLIC 'CONST'
rdata$r	ENDS
;	COMDAT ??_R0?AVCCmdTarget@@@8
_DATA	SEGMENT DWORD USE32 PUBLIC 'DATA'
_DATA	ENDS
;	COMDAT ??_R1A@?0A@A@CWnd@@8
rdata$r	SEGMENT DWORD USE32 PUBLIC 'CONST'
rdata$r	ENDS
;	COMDAT ??_R0?AVCWnd@@@8
_DATA	SEGMENT DWORD USE32 PUBLIC 'DATA'
_DATA	ENDS
;	COMDAT ??_R1A@?0A@A@DownPercentWnd@@8
rdata$r	SEGMENT DWORD USE32 PUBLIC 'CONST'
rdata$r	ENDS
;	COMDAT ??_R1A@?0A@A@IAdData@@8
rdata$r	SEGMENT DWORD USE32 PUBLIC 'CONST'
rdata$r	ENDS
;	COMDAT ??_R1A@?0A@A@?$numpunct@_W@std@@8
rdata$r	SEGMENT DWORD USE32 PUBLIC 'CONST'
rdata$r	ENDS
;	COMDAT ??_R1A@?0A@A@facet@locale@std@@8
rdata$r	SEGMENT DWORD USE32 PUBLIC 'CONST'
rdata$r	ENDS
;	COMDAT ??_R0?AVfacet@locale@std@@@8
_DATA	SEGMENT DWORD USE32 PUBLIC 'DATA'
_DATA	ENDS
;	COMDAT ??_R1A@?0A@A@?$numpunct@D@std@@8
rdata$r	SEGMENT DWORD USE32 PUBLIC 'CONST'
rdata$r	ENDS
;	COMDAT ??_R1A@?0A@A@IData@@8
rdata$r	SEGMENT DWORD USE32 PUBLIC 'CONST'
rdata$r	ENDS
;	COMDAT ??_R0?AVCBasicSkinWnd@@@8
_DATA	SEGMENT DWORD USE32 PUBLIC 'DATA'
_DATA	ENDS
;	COMDAT ??_R0?AVDownPercentWnd@@@8
_DATA	SEGMENT DWORD USE32 PUBLIC 'DATA'
_DATA	ENDS
;	COMDAT ??_R0?AVIAdData@@@8
_DATA	SEGMENT DWORD USE32 PUBLIC 'DATA'
_DATA	ENDS
;	COMDAT ??_R0?AV?$numpunct@_W@std@@@8
_DATA	SEGMENT DWORD USE32 PUBLIC 'DATA'
_DATA	ENDS
;	COMDAT ??_R0?AV?$numpunct@D@std@@@8
_DATA	SEGMENT DWORD USE32 PUBLIC 'DATA'
_DATA	ENDS
;	COMDAT ??_R0?AVIData@@@8
_DATA	SEGMENT DWORD USE32 PUBLIC 'DATA'
_DATA	ENDS
;	COMDAT ??_R4DownPercentWnd@@6BCBasicSkinWnd@@@
rdata$r	SEGMENT DWORD USE32 PUBLIC 'CONST'
rdata$r	ENDS
;	COMDAT ??_R4DownPercentWnd@@6BCWnd@@@
rdata$r	SEGMENT DWORD USE32 PUBLIC 'CONST'
rdata$r	ENDS
;	COMDAT ??_R4IAdData@@6B@
rdata$r	SEGMENT DWORD USE32 PUBLIC 'CONST'
rdata$r	ENDS
;	COMDAT ??0?$allocator@_W@std@@QAE@XZ
_TEXT	SEGMENT PARA USE32 PUBLIC 'CODE'
_TEXT	ENDS
;	COMDAT ??_G?$numpunct@_W@std@@MAEPAXI@Z
_TEXT	SEGMENT PARA USE32 PUBLIC 'CODE'
_TEXT	ENDS
;	COMDAT ??_R4?$numpunct@_W@std@@6B@
rdata$r	SEGMENT DWORD USE32 PUBLIC 'CONST'
rdata$r	ENDS
;	COMDAT ??_G?$numpunct@D@std@@MAEPAXI@Z
_TEXT	SEGMENT PARA USE32 PUBLIC 'CODE'
_TEXT	ENDS
;	COMDAT ??_R4?$numpunct@D@std@@6B@
rdata$r	SEGMENT DWORD USE32 PUBLIC 'CONST'
rdata$r	ENDS
;	COMDAT ??_R4IData@@6B@
rdata$r	SEGMENT DWORD USE32 PUBLIC 'CONST'
rdata$r	ENDS
;	COMDAT ??3@YAXPAX0@Z
_TEXT	SEGMENT PARA USE32 PUBLIC 'CODE'
_TEXT	ENDS
;	COMDAT ??2@YAPAXIPAX@Z
_TEXT	SEGMENT PARA USE32 PUBLIC 'CODE'
_TEXT	ENDS
;	COMDAT ?max_size@?$allocator@D@std@@QBEIXZ
_TEXT	SEGMENT PARA USE32 PUBLIC 'CODE'
_TEXT	ENDS
;	COMDAT ?allocate@?$allocator@D@std@@QAEPADI@Z
_TEXT	SEGMENT PARA USE32 PUBLIC 'CODE'
_TEXT	ENDS
;	COMDAT ??$_Allocate@D@std@@YAPADIPAD@Z
_TEXT	SEGMENT PARA USE32 PUBLIC 'CODE'
_TEXT	ENDS
;	COMDAT ?deallocate@?$allocator@D@std@@QAEXPADI@Z
_TEXT	SEGMENT PARA USE32 PUBLIC 'CODE'
_TEXT	ENDS
;	COMDAT ??0?$allocator@D@std@@QAE@ABV01@@Z
_TEXT	SEGMENT PARA USE32 PUBLIC 'CODE'
_TEXT	ENDS
;	COMDAT ??_C@_0EN@CBMLGOH@D?3?2Program?5Files?5?$CIx86?$CJ?2Microsoft@
CONST	SEGMENT DWORD USE32 PUBLIC 'CONST'
CONST	ENDS
;	COMDAT ?_Psave@?$_Facetptr@V?$numpunct@_W@std@@@std@@2PBVfacet@locale@2@B
_DATA	SEGMENT DWORD USE32 PUBLIC 'DATA'
_DATA	ENDS
;	COMDAT ?_Psave@?$_Facetptr@V?$numpunct@D@std@@@std@@2PBVfacet@locale@2@B
_DATA	SEGMENT DWORD USE32 PUBLIC 'DATA'
_DATA	ENDS
;	COMDAT ?Unlock@CComCriticalSection@ATL@@QAEJXZ
_TEXT	SEGMENT PARA USE32 PUBLIC 'CODE'
_TEXT	ENDS
;	COMDAT ??_C@_0FG@LDNDNCJM@D?3?2Program?5Files?5?$CIx86?$CJ?2Microsoft@
CONST	SEGMENT DWORD USE32 PUBLIC 'CONST'
CONST	ENDS
;	COMDAT ??_C@_09HIEJFN@m_bLocked?$AA@
CONST	SEGMENT DWORD USE32 PUBLIC 'CONST'
CONST	ENDS
;	COMDAT ?_Psave@?$_Facetptr@V?$ctype@_W@std@@@std@@2PBVfacet@locale@2@B
_DATA	SEGMENT DWORD USE32 PUBLIC 'DATA'
_DATA	ENDS
;	COMDAT ?_Psave@?$_Facetptr@V?$ctype@D@std@@@std@@2PBVfacet@locale@2@B
_DATA	SEGMENT DWORD USE32 PUBLIC 'DATA'
_DATA	ENDS
;	COMDAT ??_7length_error@std@@6B@
CONST	SEGMENT DWORD USE32 PUBLIC 'CONST'
CONST	ENDS
;	COMDAT ??_R4length_error@std@@6B@
rdata$r	SEGMENT DWORD USE32 PUBLIC 'CONST'
rdata$r	ENDS
;	COMDAT ??_R3length_error@std@@8
rdata$r	SEGMENT DWORD USE32 PUBLIC 'CONST'
rdata$r	ENDS
;	COMDAT ??_R2length_error@std@@8
rdata$r	SEGMENT DWORD USE32 PUBLIC 'CONST'
rdata$r	ENDS
;	COMDAT ??_R1A@?0A@A@length_error@std@@8
rdata$r	SEGMENT DWORD USE32 PUBLIC 'CONST'
rdata$r	ENDS
;	COMDAT ??_R1A@?0A@A@logic_error@std@@8
rdata$r	SEGMENT DWORD USE32 PUBLIC 'CONST'
rdata$r	ENDS
;	COMDAT ??_R0?AVlogic_error@std@@@8
_DATA	SEGMENT DWORD USE32 PUBLIC 'DATA'
_DATA	ENDS
;	COMDAT ??_R1A@?0A@A@exception@@8
rdata$r	SEGMENT DWORD USE32 PUBLIC 'CONST'
rdata$r	ENDS
;	COMDAT ??_R0?AVexception@@@8
_DATA	SEGMENT DWORD USE32 PUBLIC 'DATA'
_DATA	ENDS
;	COMDAT ??_Glength_error@std@@UAEPAXI@Z
_TEXT	SEGMENT PARA USE32 PUBLIC 'CODE'
_TEXT	ENDS
;	COMDAT ?what@logic_error@std@@UBEPBDXZ
_TEXT	SEGMENT PARA USE32 PUBLIC 'CODE'
_TEXT	ENDS
;	COMDAT ??1logic_error@std@@UAE@XZ
_TEXT	SEGMENT PARA USE32 PUBLIC 'CODE'
_TEXT	ENDS
;	COMDAT ??_7logic_error@std@@6B@
CONST	SEGMENT DWORD USE32 PUBLIC 'CONST'
CONST	ENDS
;	COMDAT ??_R4logic_error@std@@6B@
rdata$r	SEGMENT DWORD USE32 PUBLIC 'CONST'
rdata$r	ENDS
;	COMDAT ??_R3logic_error@std@@8
rdata$r	SEGMENT DWORD USE32 PUBLIC 'CONST'
rdata$r	ENDS
;	COMDAT ??_R2logic_error@std@@8
rdata$r	SEGMENT DWORD USE32 PUBLIC 'CONST'
rdata$r	ENDS
;	COMDAT ??_Glogic_error@std@@UAEPAXI@Z
_TEXT	SEGMENT PARA USE32 PUBLIC 'CODE'
_TEXT	ENDS
;	COMDAT ??0logic_error@std@@QAE@ABV01@@Z
_TEXT	SEGMENT PARA USE32 PUBLIC 'CODE'
_TEXT	ENDS
;	COMDAT __CTA3?AVlength_error@std@@
xdata$x	SEGMENT DWORD USE32 PUBLIC 'CONST'
xdata$x	ENDS
;	COMDAT ??1length_error@std@@UAE@XZ
_TEXT	SEGMENT PARA USE32 PUBLIC 'CODE'
_TEXT	ENDS
;	COMDAT __CT??_R0?AVexception@@@8??0exception@@QAE@ABV0@@Z12
xdata$x	SEGMENT DWORD USE32 PUBLIC 'CONST'
xdata$x	ENDS
;	COMDAT __CT??_R0?AVlogic_error@std@@@8??0logic_error@std@@QAE@ABV01@@Z40
xdata$x	SEGMENT DWORD USE32 PUBLIC 'CONST'
xdata$x	ENDS
;	COMDAT __CT??_R0?AVlength_error@std@@@8??0length_error@std@@QAE@ABV01@@Z40
xdata$x	SEGMENT DWORD USE32 PUBLIC 'CONST'
xdata$x	ENDS
;	COMDAT ??_R0?AVlength_error@std@@@8
_DATA	SEGMENT DWORD USE32 PUBLIC 'DATA'
_DATA	ENDS
;	COMDAT __TI3?AVlength_error@std@@
xdata$x	SEGMENT DWORD USE32 PUBLIC 'CONST'
xdata$x	ENDS
;	COMDAT ??0?$allocator@D@std@@QAE@XZ
_TEXT	SEGMENT PARA USE32 PUBLIC 'CODE'
_TEXT	ENDS
;	COMDAT ??0length_error@std@@QAE@ABV?$basic_string@DU?$char_traits@D@std@@V?$allocator@D@2@@1@@Z
_TEXT	SEGMENT PARA USE32 PUBLIC 'CODE'
_TEXT	ENDS
;	COMDAT ??0logic_error@std@@QAE@ABV?$basic_string@DU?$char_traits@D@std@@V?$allocator@D@2@@1@@Z
_TEXT	SEGMENT PARA USE32 PUBLIC 'CODE'
_TEXT	ENDS
;	COMDAT ??$_Maklocchr@_W@std@@YA_WDPA_WABU_Cvtvec@@@Z
_TEXT	SEGMENT PARA USE32 PUBLIC 'CODE'
_TEXT	ENDS
;	COMDAT ??$_DebugHeapDelete@X@std@@YAXPAX@Z
_TEXT	SEGMENT PARA USE32 PUBLIC 'CODE'
_TEXT	ENDS
;	COMDAT ??$_Maklocstr@_W@std@@YAPA_WPBDPA_WABU_Cvtvec@@@Z
_TEXT	SEGMENT PARA USE32 PUBLIC 'CODE'
_TEXT	ENDS
;	COMDAT ??$_Maklocchr@D@std@@YADDPADABU_Cvtvec@@@Z
_TEXT	SEGMENT PARA USE32 PUBLIC 'CODE'
_TEXT	ENDS
;	COMDAT ??_C@_04LOAJBDKD@true?$AA@
CONST	SEGMENT DWORD USE32 PUBLIC 'CONST'
CONST	ENDS
;	COMDAT ??_C@_05LAPONLG@false?$AA@
CONST	SEGMENT DWORD USE32 PUBLIC 'CONST'
CONST	ENDS
;	COMDAT _wmemcpy
_TEXT	SEGMENT PARA USE32 PUBLIC 'CODE'
_TEXT	ENDS
;	COMDAT ?max_size@?$allocator@_W@std@@QBEIXZ
_TEXT	SEGMENT PARA USE32 PUBLIC 'CODE'
_TEXT	ENDS
;	COMDAT ?allocate@?$allocator@_W@std@@QAEPA_WI@Z
_TEXT	SEGMENT PARA USE32 PUBLIC 'CODE'
_TEXT	ENDS
;	COMDAT ??$_Allocate@_W@std@@YAPA_WIPA_W@Z
_TEXT	SEGMENT PARA USE32 PUBLIC 'CODE'
_TEXT	ENDS
;	COMDAT ??_C@_01GFHCPBMG@C?$AA@
CONST	SEGMENT DWORD USE32 PUBLIC 'CONST'
CONST	ENDS
;	COMDAT ?Release@CStringData@ATL@@QAEXXZ
_TEXT	SEGMENT PARA USE32 PUBLIC 'CODE'
_TEXT	ENDS
;	COMDAT ??_C@_0L@OIIMFBNE@nRefs?5?$CB?$DN?50?$AA@
CONST	SEGMENT DWORD USE32 PUBLIC 'CONST'
CONST	ENDS
;	COMDAT ??_C@_0FJ@DMHPDOJC@D?3?2Program?5Files?5?$CIx86?$CJ?2Microsoft@
CONST	SEGMENT DWORD USE32 PUBLIC 'CONST'
CONST	ENDS
;	COMDAT ??_C@_0BA@GOIMFHNK@pStringMgr?5?$CB?$DN?50?$AA@
CONST	SEGMENT DWORD USE32 PUBLIC 'CONST'
CONST	ENDS
;	COMDAT ?data@CStringData@ATL@@QAEPAXXZ
_TEXT	SEGMENT PARA USE32 PUBLIC 'CODE'
_TEXT	ENDS
;	COMDAT ??_C@_0BA@GNIEOBOF@nNewLength?5?$DO?$DN?50?$AA@
CONST	SEGMENT DWORD USE32 PUBLIC 'CONST'
CONST	ENDS
;	COMDAT ??_C@_0N@ILOMLJGA@nLength?5?$DO?$DN?50?$AA@
CONST	SEGMENT DWORD USE32 PUBLIC 'CONST'
CONST	ENDS
;	COMDAT ??_C@_0CD@EEFFJEGJ@nLength?5?$DM?$DN?5GetData?$CI?$CJ?9?$DOnAllocLeng@
CONST	SEGMENT DWORD USE32 PUBLIC 'CONST'
CONST	ENDS
;	COMDAT ?AtlThrow@ATL@@YGXJ@Z
_TEXT	SEGMENT PARA USE32 PUBLIC 'CODE'
_TEXT	ENDS
;	COMDAT ??RCTraceFileAndLineInfo@ATL@@QBAXKIPBDZZ
_TEXT	SEGMENT PARA USE32 PUBLIC 'CODE'
_TEXT	ENDS
;	COMDAT ?TraceV@CTrace@ATL@@QBAXPBDHKI0PAD@Z
_TEXT	SEGMENT PARA USE32 PUBLIC 'CODE'
_TEXT	ENDS
;	COMDAT ??0CTraceFileAndLineInfo@ATL@@QAE@PBDH@Z
_TEXT	SEGMENT PARA USE32 PUBLIC 'CODE'
_TEXT	ENDS
;	COMDAT ??_C@_0FI@NHHJANPC@D?3?2Program?5Files?5?$CIx86?$CJ?2Microsoft@
CONST	SEGMENT DWORD USE32 PUBLIC 'CONST'
CONST	ENDS
;	COMDAT ??_C@_0BF@IAAKIJDJ@AtlThrow?3?5hr?5?$DN?50x?$CFx?6?$AA@
CONST	SEGMENT DWORD USE32 PUBLIC 'CONST'
CONST	ENDS
;	COMDAT ??BCTraceCategory@ATL@@QBEKXZ
_TEXT	SEGMENT PARA USE32 PUBLIC 'CODE'
_TEXT	ENDS
;	COMDAT ?IsShared@CStringData@ATL@@QBE_NXZ
_TEXT	SEGMENT PARA USE32 PUBLIC 'CODE'
_TEXT	ENDS
;	COMDAT ??_C@_0CB@GFHAPKDK@pOldData?9?$DOnAllocLength?5?$DM?5nLength@
CONST	SEGMENT DWORD USE32 PUBLIC 'CONST'
CONST	ENDS
;	COMDAT ?_Peek@?$istreambuf_iterator@_WU?$char_traits@_W@std@@@std@@AAE_WXZ
_TEXT	SEGMENT PARA USE32 PUBLIC 'CODE'
_TEXT	ENDS
;	COMDAT ?_Peek@?$istreambuf_iterator@DU?$char_traits@D@std@@@std@@AAEDXZ
_TEXT	SEGMENT PARA USE32 PUBLIC 'CODE'
_TEXT	ENDS
;	COMDAT ??$use_facet@V?$ctype@_W@std@@@std@@YAABV?$ctype@_W@0@ABVlocale@0@@Z
_TEXT	SEGMENT PARA USE32 PUBLIC 'CODE'
_TEXT	ENDS
;	COMDAT ??_S?$ctype@_W@std@@6B@
CONST	SEGMENT DWORD USE32 PUBLIC 'CONST'
CONST	ENDS
;	COMDAT ??_R4?$ctype@_W@std@@6B@
rdata$r	SEGMENT DWORD USE32 PUBLIC 'CONST'
rdata$r	ENDS
;	COMDAT ??_R0?AV?$ctype@_W@std@@@8
_DATA	SEGMENT DWORD USE32 PUBLIC 'DATA'
_DATA	ENDS
;	COMDAT ??_R3?$ctype@_W@std@@8
rdata$r	SEGMENT DWORD USE32 PUBLIC 'CONST'
rdata$r	ENDS
;	COMDAT ??_R2?$ctype@_W@std@@8
rdata$r	SEGMENT DWORD USE32 PUBLIC 'CONST'
rdata$r	ENDS
;	COMDAT ??_R1A@?0A@A@?$ctype@_W@std@@8
rdata$r	SEGMENT DWORD USE32 PUBLIC 'CONST'
rdata$r	ENDS
;	COMDAT ??_R1A@?0A@A@ctype_base@std@@8
rdata$r	SEGMENT DWORD USE32 PUBLIC 'CONST'
rdata$r	ENDS
;	COMDAT ??_R0?AUctype_base@std@@@8
_DATA	SEGMENT DWORD USE32 PUBLIC 'DATA'
_DATA	ENDS
;	COMDAT ??_G?$ctype@_W@std@@MAEPAXI@Z
_TEXT	SEGMENT PARA USE32 PUBLIC 'CODE'
_TEXT	ENDS
;	COMDAT ??_C@_08EPJLHIJG@bad?5cast?$AA@
CONST	SEGMENT DWORD USE32 PUBLIC 'CONST'
CONST	ENDS
;	COMDAT __TI2?AVbad_cast@@
xdata$x	SEGMENT DWORD USE32 PUBLIC 'CONST'
xdata$x	ENDS
;	COMDAT __CTA2?AVbad_cast@@
xdata$x	SEGMENT DWORD USE32 PUBLIC 'CONST'
xdata$x	ENDS
;	COMDAT __CT??_R0?AVbad_cast@@@8??0bad_cast@@QAE@ABV0@@Z12
xdata$x	SEGMENT DWORD USE32 PUBLIC 'CONST'
xdata$x	ENDS
;	COMDAT ??_R0?AVbad_cast@@@8
_DATA	SEGMENT DWORD USE32 PUBLIC 'DATA'
_DATA	ENDS
;	COMDAT ??$_DebugHeapDelete@Vfacet@locale@std@@@std@@YAXPAVfacet@locale@0@@Z
_TEXT	SEGMENT PARA USE32 PUBLIC 'CODE'
_TEXT	ENDS
;	COMDAT ??$use_facet@V?$ctype@D@std@@@std@@YAABV?$ctype@D@0@ABVlocale@0@@Z
_TEXT	SEGMENT PARA USE32 PUBLIC 'CODE'
_TEXT	ENDS
;	COMDAT ??_S?$ctype@D@std@@6B@
CONST	SEGMENT DWORD USE32 PUBLIC 'CONST'
CONST	ENDS
;	COMDAT ??_R4?$ctype@D@std@@6B@
rdata$r	SEGMENT DWORD USE32 PUBLIC 'CONST'
rdata$r	ENDS
;	COMDAT ??_R0?AV?$ctype@D@std@@@8
_DATA	SEGMENT DWORD USE32 PUBLIC 'DATA'
_DATA	ENDS
;	COMDAT ??_R3?$ctype@D@std@@8
rdata$r	SEGMENT DWORD USE32 PUBLIC 'CONST'
rdata$r	ENDS
;	COMDAT ??_R2?$ctype@D@std@@8
rdata$r	SEGMENT DWORD USE32 PUBLIC 'CONST'
rdata$r	ENDS
;	COMDAT ??_R1A@?0A@A@?$ctype@D@std@@8
rdata$r	SEGMENT DWORD USE32 PUBLIC 'CONST'
rdata$r	ENDS
;	COMDAT ??_G?$ctype@D@std@@MAEPAXI@Z
_TEXT	SEGMENT PARA USE32 PUBLIC 'CODE'
_TEXT	ENDS
;	COMDAT ??_S?$numpunct@_W@std@@6B@
CONST	SEGMENT DWORD USE32 PUBLIC 'CONST'
CONST	ENDS
;	COMDAT ??_S?$numpunct@D@std@@6B@
CONST	SEGMENT DWORD USE32 PUBLIC 'CONST'
CONST	ENDS
;	COMDAT _wmemmove
_TEXT	SEGMENT PARA USE32 PUBLIC 'CODE'
_TEXT	ENDS
;	COMDAT ?deallocate@?$allocator@_W@std@@QAEXPA_WI@Z
_TEXT	SEGMENT PARA USE32 PUBLIC 'CODE'
_TEXT	ENDS
;	COMDAT ??0?$allocator@_W@std@@QAE@ABV01@@Z
_TEXT	SEGMENT PARA USE32 PUBLIC 'CODE'
_TEXT	ENDS
;	COMDAT ?IsLocked@CStringData@ATL@@QBE_NXZ
_TEXT	SEGMENT PARA USE32 PUBLIC 'CODE'
_TEXT	ENDS
;	COMDAT ?AddRef@CStringData@ATL@@QAEXXZ
_TEXT	SEGMENT PARA USE32 PUBLIC 'CODE'
_TEXT	ENDS
;	COMDAT ??_C@_09EEBKLCFA@nRefs?5?$DO?50?$AA@
CONST	SEGMENT DWORD USE32 PUBLIC 'CONST'
CONST	ENDS
;	COMDAT ?DrawImage@Graphics@Gdiplus@@QAE?AW4Status@2@PAVImage@2@ABVRect@2@@Z
_TEXT	SEGMENT PARA USE32 PUBLIC 'CODE'
_TEXT	ENDS
;	COMDAT ?DrawImage@Graphics@Gdiplus@@QAE?AW4Status@2@PAVImage@2@HHHH@Z
_TEXT	SEGMENT PARA USE32 PUBLIC 'CODE'
_TEXT	ENDS
;	COMDAT ?SetStatus@Graphics@Gdiplus@@IBE?AW4Status@2@W432@@Z
_TEXT	SEGMENT PARA USE32 PUBLIC 'CODE'
_TEXT	ENDS
;	COMDAT ??1Graphics@Gdiplus@@QAE@XZ
_TEXT	SEGMENT PARA USE32 PUBLIC 'CODE'
_TEXT	ENDS
;	COMDAT ??0Graphics@Gdiplus@@QAE@PAUHDC__@@@Z
_TEXT	SEGMENT PARA USE32 PUBLIC 'CODE'
_TEXT	ENDS
;	COMDAT ?SetNativeGraphics@Graphics@Gdiplus@@IAEXPAVGpGraphics@2@@Z
_TEXT	SEGMENT PARA USE32 PUBLIC 'CODE'
_TEXT	ENDS
;	COMDAT ??0Rect@Gdiplus@@QAE@HHHH@Z
_TEXT	SEGMENT PARA USE32 PUBLIC 'CODE'
_TEXT	ENDS
;	COMDAT ?GetWidth@Image@Gdiplus@@QAEIXZ
_TEXT	SEGMENT PARA USE32 PUBLIC 'CODE'
_TEXT	ENDS
;	COMDAT ?SetStatus@Image@Gdiplus@@IBE?AW4Status@2@W432@@Z
_TEXT	SEGMENT PARA USE32 PUBLIC 'CODE'
_TEXT	ENDS
;	COMDAT ?GetHeight@Image@Gdiplus@@QAEIXZ
_TEXT	SEGMENT PARA USE32 PUBLIC 'CODE'
_TEXT	ENDS
;	COMDAT ?AtlA2WHelper@@YGPA_WPA_WPBDHI@Z
_TEXT	SEGMENT PARA USE32 PUBLIC 'CODE'
_TEXT	ENDS
;	COMDAT ??_C@_08DMHHBMMN@lpa?5?$CB?$DN?50?$AA@
CONST	SEGMENT DWORD USE32 PUBLIC 'CONST'
CONST	ENDS
;	COMDAT ??_C@_08DIHJLFDJ@lpw?5?$CB?$DN?50?$AA@
CONST	SEGMENT DWORD USE32 PUBLIC 'CONST'
CONST	ENDS
;	COMDAT ??_C@_01GBGANLPD@0?$AA@
CONST	SEGMENT DWORD USE32 PUBLIC 'CONST'
CONST	ENDS
;	COMDAT ??_C@_0FG@PFHCBDBK@D?3?2Program?5Files?5?$CIx86?$CJ?2Microsoft@
CONST	SEGMENT DWORD USE32 PUBLIC 'CONST'
CONST	ENDS
;	COMDAT ??0Image@Gdiplus@@QAE@PB_WH@Z
_TEXT	SEGMENT PARA USE32 PUBLIC 'CODE'
_TEXT	ENDS
;	COMDAT ??_7Image@Gdiplus@@6B@
CONST	SEGMENT DWORD USE32 PUBLIC 'CONST'
CONST	ENDS
;	COMDAT ??_R4Image@Gdiplus@@6B@
rdata$r	SEGMENT DWORD USE32 PUBLIC 'CONST'
rdata$r	ENDS
;	COMDAT ??_R0?AVImage@Gdiplus@@@8
_DATA	SEGMENT DWORD USE32 PUBLIC 'DATA'
_DATA	ENDS
;	COMDAT ??_R3Image@Gdiplus@@8
rdata$r	SEGMENT DWORD USE32 PUBLIC 'CONST'
rdata$r	ENDS
;	COMDAT ??_R2Image@Gdiplus@@8
rdata$r	SEGMENT DWORD USE32 PUBLIC 'CONST'
rdata$r	ENDS
;	COMDAT ??_R1A@?0A@A@Image@Gdiplus@@8
rdata$r	SEGMENT DWORD USE32 PUBLIC 'CONST'
rdata$r	ENDS
;	COMDAT ??_R13?0A@A@GdiplusBase@Gdiplus@@8
rdata$r	SEGMENT DWORD USE32 PUBLIC 'CONST'
rdata$r	ENDS
;	COMDAT ??_R0?AVGdiplusBase@Gdiplus@@@8
_DATA	SEGMENT DWORD USE32 PUBLIC 'DATA'
_DATA	ENDS
;	COMDAT ??_GImage@Gdiplus@@UAEPAXI@Z
_TEXT	SEGMENT PARA USE32 PUBLIC 'CODE'
_TEXT	ENDS
;	COMDAT ??1Image@Gdiplus@@UAE@XZ
_TEXT	SEGMENT PARA USE32 PUBLIC 'CODE'
_TEXT	ENDS
;	COMDAT ?Clone@Image@Gdiplus@@UAEPAV12@XZ
_TEXT	SEGMENT PARA USE32 PUBLIC 'CODE'
_TEXT	ENDS
;	COMDAT ??0Image@Gdiplus@@IAE@PAVGpImage@1@W4Status@1@@Z
_TEXT	SEGMENT PARA USE32 PUBLIC 'CODE'
_TEXT	ENDS
;	COMDAT ?SetNativeImage@Image@Gdiplus@@IAEXPAVGpImage@2@@Z
_TEXT	SEGMENT PARA USE32 PUBLIC 'CODE'
_TEXT	ENDS
;	COMDAT ??3GdiplusBase@Gdiplus@@SAXPAX@Z
_TEXT	SEGMENT PARA USE32 PUBLIC 'CODE'
_TEXT	ENDS
;	COMDAT ??2GdiplusBase@Gdiplus@@SAPAXI@Z
_TEXT	SEGMENT PARA USE32 PUBLIC 'CODE'
_TEXT	ENDS
;	COMDAT ?_AtlGetConversionACP@ATL@@YGIXZ
_TEXT	SEGMENT PARA USE32 PUBLIC 'CODE'
_TEXT	ENDS
;	COMDAT ?g_pfnGetThreadACP@ATL@@3P6GIXZA
_DATA	SEGMENT DWORD USE32 PUBLIC 'DATA'
_DATA	ENDS
;	COMDAT ?_AtlGetThreadACPThunk@ATL@@YGIXZ
_TEXT	SEGMENT PARA USE32 PUBLIC 'CODE'
_TEXT	ENDS
;	COMDAT ?_AtlGetThreadACPReal@ATL@@YGIXZ
_TEXT	SEGMENT PARA USE32 PUBLIC 'CODE'
_TEXT	ENDS
;	COMDAT ?_AtlGetThreadACPFake@ATL@@YGIXZ
_TEXT	SEGMENT PARA USE32 PUBLIC 'CODE'
_TEXT	ENDS
;	COMDAT ?InterlockedExchangePointer@@YGPAXPAPAXPAX@Z
_TEXT	SEGMENT PARA USE32 PUBLIC 'CODE'
_TEXT	ENDS
;	COMDAT ?_messageEntries@DownPercentWnd@@0QBUAFX_MSGMAP_ENTRY@@B
CONST	SEGMENT DWORD USE32 PUBLIC 'CONST'
CONST	ENDS
;	COMDAT ?messageMap@DownPercentWnd@@1UAFX_MSGMAP@@B
CONST	SEGMENT DWORD USE32 PUBLIC 'CONST'
CONST	ENDS
;	COMDAT ??_7CBasicSkinWnd@@6B@
CONST	SEGMENT DWORD USE32 PUBLIC 'CONST'
CONST	ENDS
;	COMDAT ??_R4CBasicSkinWnd@@6B@
rdata$r	SEGMENT DWORD USE32 PUBLIC 'CONST'
rdata$r	ENDS
;	COMDAT ??_R3CBasicSkinWnd@@8
rdata$r	SEGMENT DWORD USE32 PUBLIC 'CONST'
rdata$r	ENDS
;	COMDAT ??_R2CBasicSkinWnd@@8
rdata$r	SEGMENT DWORD USE32 PUBLIC 'CONST'
rdata$r	ENDS
;	COMDAT ??_R1A@?0A@A@CBasicSkinWnd@@8
rdata$r	SEGMENT DWORD USE32 PUBLIC 'CONST'
rdata$r	ENDS
;	COMDAT ??_GCBasicSkinWnd@@UAEPAXI@Z
_TEXT	SEGMENT PARA USE32 PUBLIC 'CODE'
_TEXT	ENDS
;	COMDAT ??_7DownPercentWnd@@6BCBasicSkinWnd@@@
CONST	SEGMENT DWORD USE32 PUBLIC 'CONST'
CONST	ENDS
;	COMDAT ??_7DownPercentWnd@@6BCWnd@@@
CONST	SEGMENT DWORD USE32 PUBLIC 'CONST'
CONST	ENDS
;	COMDAT ??1CBasicSkinWnd@@UAE@XZ
_TEXT	SEGMENT PARA USE32 PUBLIC 'CODE'
_TEXT	ENDS
;	COMDAT ?classDownPercentWnd@DownPercentWnd@@2UCRuntimeClass@@B
CONST	SEGMENT DWORD USE32 PUBLIC 'CONST'
CONST	ENDS
;	COMDAT ??_C@_00CNPNBAHC@?$AA@
CONST	SEGMENT DWORD USE32 PUBLIC 'CONST'
CONST	ENDS
;	COMDAT ?GetDefaultManager@?$StrTraitMFC_DLL@DV?$ChTraitsCRT@D@ATL@@@@SAPAUIAtlStringMgr@ATL@@XZ
_TEXT	SEGMENT PARA USE32 PUBLIC 'CODE'
_TEXT	ENDS
;	COMDAT ?FindStringResourceInstance@?$StrTraitMFC_DLL@DV?$ChTraitsCRT@D@ATL@@@@SAPAUHINSTANCE__@@I@Z
_TEXT	SEGMENT PARA USE32 PUBLIC 'CODE'
_TEXT	ENDS
;	COMDAT ?AtlGetStringResourceImage@ATL@@YAPBUATLSTRINGRESOURCEIMAGE@1@PAUHINSTANCE__@@I@Z
_TEXT	SEGMENT PARA USE32 PUBLIC 'CODE'
_TEXT	ENDS
;	COMDAT ?_AtlGetStringResourceImage@ATL@@YAPBUATLSTRINGRESOURCEIMAGE@1@PAUHINSTANCE__@@PAUHRSRC__@@I@Z
_TEXT	SEGMENT PARA USE32 PUBLIC 'CODE'
_TEXT	ENDS
;	COMDAT ?GetBaseTypeLength@?$ChTraitsCRT@D@ATL@@SAHPB_WH@Z
_TEXT	SEGMENT PARA USE32 PUBLIC 'CODE'
_TEXT	ENDS
;	COMDAT ?ConvertToBaseType@?$ChTraitsCRT@D@ATL@@SAXPADHPB_WH@Z
_TEXT	SEGMENT PARA USE32 PUBLIC 'CODE'
_TEXT	ENDS
;	COMDAT ??_C@_0FH@KDPNIMBO@D?3?2Program?5Files?5?$CIx86?$CJ?2Microsoft@
CONST	SEGMENT DWORD USE32 PUBLIC 'CONST'
CONST	ENDS
;	COMDAT ??_C@_0CJ@FJEKGMMD@Warning?3?5implicit?5LoadString?$CI?$CFu?$CJ@
CONST	SEGMENT DWORD USE32 PUBLIC 'CONST'
CONST	ENDS
;	COMDAT ??_7IAdData@@6B@
CONST	SEGMENT DWORD USE32 PUBLIC 'CONST'
CONST	ENDS
;	COMDAT ??_7IData@@6B@
CONST	SEGMENT DWORD USE32 PUBLIC 'CONST'
CONST	ENDS
;	COMDAT ?clsid@?1??GetClsid@CShockwaveFlash@@QAEABU_GUID@@XZ@4U3@B
CONST	SEGMENT DWORD USE32 PUBLIC 'CONST'
CONST	ENDS
sxdata	SEGMENT DWORD USE32 'SXDATA'
sxdata	ENDS
FLAT	GROUP _DATA, CONST, _BSS
	ASSUME	CS: FLAT, DS: FLAT, SS: FLAT
endif

INCLUDELIB MSVCRTD
INCLUDELIB OLDNAMES

PUBLIC	?_messageEntries@DownPercentWnd@@0QBUAFX_MSGMAP_ENTRY@@B ; DownPercentWnd::_messageEntries
PUBLIC	?messageMap@DownPercentWnd@@1UAFX_MSGMAP@@B	; DownPercentWnd::messageMap
PUBLIC	?OnCreate@DownPercentWnd@@QAEHPAUtagCREATESTRUCTA@@@Z ; DownPercentWnd::OnCreate
PUBLIC	?OnPaint@DownPercentWnd@@QAEXXZ			; DownPercentWnd::OnPaint
PUBLIC	?OnDestroy@DownPercentWnd@@QAEXXZ		; DownPercentWnd::OnDestroy
PUBLIC	?OnMouseMove@DownPercentWnd@@QAEXIVCPoint@@@Z	; DownPercentWnd::OnMouseMove
PUBLIC	?OnLButtonDown@DownPercentWnd@@QAEXIVCPoint@@@Z	; DownPercentWnd::OnLButtonDown
PUBLIC	?g_pfnGetThreadACP@ATL@@3P6GIXZA		; ATL::g_pfnGetThreadACP
PUBLIC	?_AtlGetThreadACPThunk@ATL@@YGIXZ		; ATL::_AtlGetThreadACPThunk
PUBLIC	?classDownPercentWnd@DownPercentWnd@@2UCRuntimeClass@@B ; DownPercentWnd::classDownPercentWnd
EXTRN	?GetThisClass@CWnd@@SGPAUCRuntimeClass@@XZ:NEAR	; CWnd::GetThisClass
EXTRN	?GetThisMessageMap@CWnd@@KGPBUAFX_MSGMAP@@XZ:NEAR ; CWnd::GetThisMessageMap
CONST	SEGMENT
$SG188914 DB	'DownPercentWnd', 00H
CONST	ENDS
;	COMDAT ?classDownPercentWnd@DownPercentWnd@@2UCRuntimeClass@@B
CONST	SEGMENT
?classDownPercentWnd@DownPercentWnd@@2UCRuntimeClass@@B DD FLAT:$SG188914 ; DownPercentWnd::classDownPercentWnd
	DD	0e8H
	DD	0ffffH
	DD	00H
	DD	FLAT:?GetThisClass@CWnd@@SGPAUCRuntimeClass@@XZ
	DD	00H
	DD	00H
CONST	ENDS
CONST	SEGMENT
	ORG $+1
$SG188940 DB	0cbH, 0ceH, 0ccH, 0e5H, 00H
CONST	ENDS
;	COMDAT ?_messageEntries@DownPercentWnd@@0QBUAFX_MSGMAP_ENTRY@@B
CONST	SEGMENT
?_messageEntries@DownPercentWnd@@0QBUAFX_MSGMAP_ENTRY@@B DD 01H ; DownPercentWnd::_messageEntries
	DD	00H
	DD	00H
	DD	00H
	DD	0dH
	DD	FLAT:?OnCreate@DownPercentWnd@@QAEHPAUtagCREATESTRUCTA@@@Z
	DD	0fH
	DD	00H
	DD	00H
	DD	00H
	DD	010H
	DD	FLAT:?OnPaint@DownPercentWnd@@QAEXXZ
	DD	02H
	DD	00H
	DD	00H
	DD	00H
	DD	010H
	DD	FLAT:?OnDestroy@DownPercentWnd@@QAEXXZ
	DD	0200H
	DD	00H
	DD	00H
	DD	00H
	DD	032H
	DD	FLAT:?OnMouseMove@DownPercentWnd@@QAEXIVCPoint@@@Z
	DD	0201H
	DD	00H
	DD	00H
	DD	00H
	DD	032H
	DD	FLAT:?OnLButtonDown@DownPercentWnd@@QAEXIVCPoint@@@Z
	DD	00H
	DD	00H
	DD	00H
	DD	00H
	DD	00H
	DD	00H
CONST	ENDS
;	COMDAT ?messageMap@DownPercentWnd@@1UAFX_MSGMAP@@B
CONST	SEGMENT
?messageMap@DownPercentWnd@@1UAFX_MSGMAP@@B DD FLAT:?GetThisMessageMap@CWnd@@KGPBUAFX_MSGMAP@@XZ ; DownPercentWnd::messageMap
	DD	FLAT:?_messageEntries@DownPercentWnd@@0QBUAFX_MSGMAP_ENTRY@@B
CONST	ENDS
CONST	SEGMENT
	ORG $+3
$SG189257 DB	'DownProgressWndTextColor', 00H
	ORG $+3
$SG189258 DB	'Lo_Bg_L', 00H
$SG189259 DB	'Lo_Bg_M', 00H
$SG189260 DB	'Lo_Bg_R', 00H
$SG189261 DB	'Lo_M', 00H
$SG189289 DB	00H
	ORG $+2
$SG189290 DB	'iexplore.exe', 00H
	ORG $+3
$SG189291 DB	'open', 00H
CONST	ENDS
;	COMDAT ?g_pfnGetThreadACP@ATL@@3P6GIXZA
_DATA	SEGMENT
?g_pfnGetThreadACP@ATL@@3P6GIXZA DD FLAT:?_AtlGetThreadACPThunk@ATL@@YGIXZ ; ATL::g_pfnGetThreadACP
_DATA	ENDS
CONST	SEGMENT
	ORG $+3
_ID_DATA_AD DD	0bH
CONST	ENDS
PUBLIC	?GetThisClass@DownPercentWnd@@SGPAUCRuntimeClass@@XZ ; DownPercentWnd::GetThisClass
EXTRN	__RTC_InitBase:NEAR
EXTRN	__RTC_Shutdown:NEAR
;	COMDAT rtc$IMZ
; File d:\boxgit\playbox\playbox\dev\prj\playbox\src\module\gamepanel\downpercentwnd.cpp
rtc$IMZ	SEGMENT
__RTC_InitBase.rtc$IMZ DD FLAT:__RTC_InitBase
rtc$IMZ	ENDS
;	COMDAT rtc$TMZ
rtc$TMZ	SEGMENT
__RTC_Shutdown.rtc$TMZ DD FLAT:__RTC_Shutdown
; Function compile flags: /Odt /RTCsu
rtc$TMZ	ENDS
_TEXT	SEGMENT
?GetThisClass@DownPercentWnd@@SGPAUCRuntimeClass@@XZ PROC NEAR ; DownPercentWnd::GetThisClass

; 7    : IMPLEMENT_DYNAMIC(DownPercentWnd, CWnd)

  00000	55		 push	 ebp
  00001	8b ec		 mov	 ebp, esp
  00003	b8 00 00 00 00	 mov	 eax, OFFSET FLAT:?classDownPercentWnd@DownPercentWnd@@2UCRuntimeClass@@B ; DownPercentWnd::classDownPercentWnd
  00008	5d		 pop	 ebp
  00009	c3		 ret	 0
?GetThisClass@DownPercentWnd@@SGPAUCRuntimeClass@@XZ ENDP ; DownPercentWnd::GetThisClass
_TEXT	ENDS
PUBLIC	?GetRuntimeClass@DownPercentWnd@@UBEPAUCRuntimeClass@@XZ ; DownPercentWnd::GetRuntimeClass
; Function compile flags: /Odt /RTCsu
_TEXT	SEGMENT
_this$ = -4						; size = 4
?GetRuntimeClass@DownPercentWnd@@UBEPAUCRuntimeClass@@XZ PROC NEAR ; DownPercentWnd::GetRuntimeClass
; _this$ = ecx

; 7    : IMPLEMENT_DYNAMIC(DownPercentWnd, CWnd)

  00010	55		 push	 ebp
  00011	8b ec		 mov	 ebp, esp
  00013	51		 push	 ecx
  00014	c7 45 fc cc cc
	cc cc		 mov	 DWORD PTR [ebp-4], -858993460 ; ccccccccH
  0001b	89 4d fc	 mov	 DWORD PTR _this$[ebp], ecx
  0001e	b8 00 00 00 00	 mov	 eax, OFFSET FLAT:?classDownPercentWnd@DownPercentWnd@@2UCRuntimeClass@@B ; DownPercentWnd::classDownPercentWnd
  00023	8b e5		 mov	 esp, ebp
  00025	5d		 pop	 ebp
  00026	c3		 ret	 0
?GetRuntimeClass@DownPercentWnd@@UBEPAUCRuntimeClass@@XZ ENDP ; DownPercentWnd::GetRuntimeClass
_TEXT	ENDS
PUBLIC	__real@0000000000000000
PUBLIC	?GetMessageMap@DownPercentWnd@@MBEPBUAFX_MSGMAP@@XZ ; DownPercentWnd::GetMessageMap
PUBLIC	?LoadSkin@DownPercentWnd@@UAEXXZ		; DownPercentWnd::LoadSkin
PUBLIC	??_7DownPercentWnd@@6BCWnd@@@			; DownPercentWnd::`vftable'
PUBLIC	??_7DownPercentWnd@@6BCBasicSkinWnd@@@		; DownPercentWnd::`vftable'
PUBLIC	??_GDownPercentWnd@@UAEPAXI@Z			; DownPercentWnd::`scalar deleting destructor'
PUBLIC	??_R1A@?0A@A@CWnd@@8				; CWnd::`RTTI Base Class Descriptor at (0,-1,0,0)'
PUBLIC	??_R0?AVCWnd@@@8				; CWnd `RTTI Type Descriptor'
PUBLIC	??_R1A@?0A@A@CCmdTarget@@8			; CCmdTarget::`RTTI Base Class Descriptor at (0,-1,0,0)'
PUBLIC	??_R0?AVCCmdTarget@@@8				; CCmdTarget `RTTI Type Descriptor'
PUBLIC	??_R1A@?0A@A@CObject@@8				; CObject::`RTTI Base Class Descriptor at (0,-1,0,0)'
PUBLIC	??_R0?AVCObject@@@8				; CObject `RTTI Type Descriptor'
PUBLIC	??_R4DownPercentWnd@@6BCWnd@@@			; DownPercentWnd::`RTTI Complete Object Locator'
PUBLIC	??_R0?AVDownPercentWnd@@@8			; DownPercentWnd `RTTI Type Descriptor'
PUBLIC	??_R3DownPercentWnd@@8				; DownPercentWnd::`RTTI Class Hierarchy Descriptor'
PUBLIC	??_R2DownPercentWnd@@8				; DownPercentWnd::`RTTI Base Class Array'
PUBLIC	??_R1A@?0A@A@DownPercentWnd@@8			; DownPercentWnd::`RTTI Base Class Descriptor at (0,-1,0,0)'
PUBLIC	??_R1FE@?0A@A@CBasicSkinWnd@@8			; CBasicSkinWnd::`RTTI Base Class Descriptor at (84,-1,0,0)'
PUBLIC	??_EDownPercentWnd@@WFE@AEPAXI@Z		; [thunk]:DownPercentWnd::`vector deleting destructor'
PUBLIC	??_R4DownPercentWnd@@6BCBasicSkinWnd@@@		; DownPercentWnd::`RTTI Complete Object Locator'
PUBLIC	??1CBasicSkinWnd@@UAE@XZ			; CBasicSkinWnd::~CBasicSkinWnd
PUBLIC	??0CBasicSkinWnd@@QAE@XZ			; CBasicSkinWnd::CBasicSkinWnd
PUBLIC	??_R0?AVCBasicSkinWnd@@@8			; CBasicSkinWnd `RTTI Type Descriptor'
PUBLIC	??0AD_STRUCT@@QAE@XZ				; AD_STRUCT::AD_STRUCT
PUBLIC	??1AD_STRUCT@@QAE@XZ				; AD_STRUCT::~AD_STRUCT
PUBLIC	??0DownPercentWnd@@QAE@XZ			; DownPercentWnd::DownPercentWnd
PUBLIC	??0?$vector@V?$basic_string@DU?$char_traits@D@std@@V?$allocator@D@2@@std@@V?$allocator@V?$basic_string@DU?$char_traits@D@std@@V?$allocator@D@2@@std@@@2@@std@@QAE@XZ ; std::vector<std::basic_string<char,std::char_traits<char>,std::allocator<char> >,std::allocator<std::basic_string<char,std::char_traits<char>,std::allocator<char> > > >::vector<std::basic_string<char,std::char_traits<char>,std::allocator<char> >,std::allocator<std::basic_string<char,std::char_traits<char>,std::allocator<char> > > >
PUBLIC	??1?$vector@V?$basic_string@DU?$char_traits@D@std@@V?$allocator@D@2@@std@@V?$allocator@V?$basic_string@DU?$char_traits@D@std@@V?$allocator@D@2@@std@@@2@@std@@QAE@XZ ; std::vector<std::basic_string<char,std::char_traits<char>,std::allocator<char> >,std::allocator<std::basic_string<char,std::char_traits<char>,std::allocator<char> > > >::~vector<std::basic_string<char,std::char_traits<char>,std::allocator<char> >,std::allocator<std::basic_string<char,std::char_traits<char>,std::allocator<char> > > >
EXTRN	?GetInterfaceMap@CWnd@@MBEPBUAFX_INTERFACEMAP@@XZ:NEAR ; CWnd::GetInterfaceMap
EXTRN	__RTC_CheckEsp:NEAR
EXTRN	__except_list:DWORD
EXTRN	___security_cookie:DWORD
EXTRN	@_RTC_CheckStackVars@8:NEAR
EXTRN	@__security_check_cookie@4:NEAR
EXTRN	__fltused:NEAR
EXTRN	___CxxFrameHandler:NEAR
EXTRN	??_EDownPercentWnd@@UAEPAXI@Z:NEAR		; DownPercentWnd::`vector deleting destructor'
EXTRN	?EnsureStdObj@CWnd@@UAEJXZ:NEAR			; CWnd::EnsureStdObj
EXTRN	?get_accParent@CWnd@@UAEJPAPAUIDispatch@@@Z:NEAR ; CWnd::get_accParent
EXTRN	?OnCmdMsg@CCmdTarget@@UAEHIHPAXPAUAFX_CMDHANDLERINFO@@@Z:NEAR ; CCmdTarget::OnCmdMsg
EXTRN	?get_accChildCount@CWnd@@UAEJPAJ@Z:NEAR		; CWnd::get_accChildCount
EXTRN	?IsInvokeAllowed@CCmdTarget@@UAEHJ@Z:NEAR	; CCmdTarget::IsInvokeAllowed
EXTRN	?get_accChild@CWnd@@UAEJUtagVARIANT@@PAPAUIDispatch@@@Z:NEAR ; CWnd::get_accChild
EXTRN	?get_accName@CWnd@@UAEJUtagVARIANT@@PAPA_W@Z:NEAR ; CWnd::get_accName
EXTRN	?get_accValue@CWnd@@UAEJUtagVARIANT@@PAPA_W@Z:NEAR ; CWnd::get_accValue
EXTRN	?GetDispatchIID@CCmdTarget@@UAEHPAU_GUID@@@Z:NEAR ; CCmdTarget::GetDispatchIID
EXTRN	?GetTypeInfoCount@CCmdTarget@@UAEIXZ:NEAR	; CCmdTarget::GetTypeInfoCount
EXTRN	?GetTypeLibCache@CCmdTarget@@UAEPAVCTypeLibCache@@XZ:NEAR ; CCmdTarget::GetTypeLibCache
EXTRN	?get_accDescription@CWnd@@UAEJUtagVARIANT@@PAPA_W@Z:NEAR ; CWnd::get_accDescription
EXTRN	?GetTypeLib@CCmdTarget@@UAEJKPAPAUITypeLib@@@Z:NEAR ; CCmdTarget::GetTypeLib
EXTRN	?get_accRole@CWnd@@UAEJUtagVARIANT@@PAU2@@Z:NEAR ; CWnd::get_accRole
EXTRN	?get_accState@CWnd@@UAEJUtagVARIANT@@PAU2@@Z:NEAR ; CWnd::get_accState
EXTRN	?get_accHelp@CWnd@@UAEJUtagVARIANT@@PAPA_W@Z:NEAR ; CWnd::get_accHelp
EXTRN	?get_accHelpTopic@CWnd@@UAEJPAPA_WUtagVARIANT@@PAJ@Z:NEAR ; CWnd::get_accHelpTopic
EXTRN	?get_accKeyboardShortcut@CWnd@@UAEJUtagVARIANT@@PAPA_W@Z:NEAR ; CWnd::get_accKeyboardShortcut
EXTRN	?get_accFocus@CWnd@@UAEJPAUtagVARIANT@@@Z:NEAR	; CWnd::get_accFocus
EXTRN	?get_accSelection@CWnd@@UAEJPAUtagVARIANT@@@Z:NEAR ; CWnd::get_accSelection
EXTRN	?get_accDefaultAction@CWnd@@UAEJUtagVARIANT@@PAPA_W@Z:NEAR ; CWnd::get_accDefaultAction
EXTRN	?GetCommandMap@CCmdTarget@@MBEPBUAFX_OLECMDMAP@@XZ:NEAR ; CCmdTarget::GetCommandMap
EXTRN	?accSelect@CWnd@@UAEJJUtagVARIANT@@@Z:NEAR	; CWnd::accSelect
EXTRN	?accLocation@CWnd@@UAEJPAJ000UtagVARIANT@@@Z:NEAR ; CWnd::accLocation
EXTRN	?GetDispatchMap@CCmdTarget@@MBEPBUAFX_DISPMAP@@XZ:NEAR ; CCmdTarget::GetDispatchMap
EXTRN	?accNavigate@CWnd@@UAEJJUtagVARIANT@@PAU2@@Z:NEAR ; CWnd::accNavigate
EXTRN	?accHitTest@CWnd@@UAEJJJPAUtagVARIANT@@@Z:NEAR	; CWnd::accHitTest
EXTRN	?GetConnectionMap@CCmdTarget@@MBEPBUAFX_CONNECTIONMAP@@XZ:NEAR ; CCmdTarget::GetConnectionMap
EXTRN	?accDoDefaultAction@CWnd@@UAEJUtagVARIANT@@@Z:NEAR ; CWnd::accDoDefaultAction
EXTRN	?put_accName@CWnd@@UAEJUtagVARIANT@@PA_W@Z:NEAR	; CWnd::put_accName
EXTRN	?put_accValue@CWnd@@UAEJUtagVARIANT@@PA_W@Z:NEAR ; CWnd::put_accValue
EXTRN	?SetProxy@CWnd@@UAEJPAUIAccessibleProxy@@@Z:NEAR ; CWnd::SetProxy
EXTRN	?CreateAccessibleProxy@CWnd@@UAEJIJPAJ@Z:NEAR	; CWnd::CreateAccessibleProxy
EXTRN	?GetEventSinkMap@CCmdTarget@@MBEPBUAFX_EVENTSINKMAP@@XZ:NEAR ; CCmdTarget::GetEventSinkMap
EXTRN	?OnCreateAggregates@CCmdTarget@@UAEHXZ:NEAR	; CCmdTarget::OnCreateAggregates
EXTRN	?OnCommand@CWnd@@MAEHIJ@Z:NEAR			; CWnd::OnCommand
EXTRN	?GetInterfaceHook@CCmdTarget@@UAEPAUIUnknown@@PBX@Z:NEAR ; CCmdTarget::GetInterfaceHook
EXTRN	?OnNotify@CWnd@@MAEHIJPAJ@Z:NEAR		; CWnd::OnNotify
EXTRN	?GetExtraConnectionPoints@CCmdTarget@@MAEHPAVCPtrArray@@@Z:NEAR ; CCmdTarget::GetExtraConnectionPoints
EXTRN	?GetConnectionHook@CCmdTarget@@MAEPAUIConnectionPoint@@ABU_GUID@@@Z:NEAR ; CCmdTarget::GetConnectionHook
EXTRN	??0CFont@@QAE@XZ:NEAR				; CFont::CFont
EXTRN	?CreateFontIndirectA@CFont@@QAEHPBUtagLOGFONTA@@@Z:NEAR ; CFont::CreateFontIndirectA
EXTRN	??1CFont@@UAE@XZ:NEAR				; CFont::~CFont
EXTRN	??0CRect@@QAE@XZ:NEAR				; CRect::CRect
EXTRN	??0CWnd@@QAE@XZ:NEAR				; CWnd::CWnd
EXTRN	??0CRect@@QAE@HHHH@Z:NEAR			; CRect::CRect
EXTRN	?PreSubclassWindow@CWnd@@UAEXXZ:NEAR		; CWnd::PreSubclassWindow
EXTRN	?Create@CWnd@@UAEHPBD0KABUtagRECT@@PAV1@IPAUCCreateContext@@@Z:NEAR ; CWnd::Create
EXTRN	?CreateEx@CWnd@@UAEHKPBD0KHHHHPAUHWND__@@PAUHMENU__@@PAX@Z:NEAR ; CWnd::CreateEx
EXTRN	?SetRectEmpty@CRect@@QAEXXZ:NEAR		; CRect::SetRectEmpty
EXTRN	?CreateEx@CWnd@@UAEHKPBD0KABUtagRECT@@PAV1@IPAX@Z:NEAR ; CWnd::CreateEx
EXTRN	?Serialize@CObject@@UAEXAAVCArchive@@@Z:NEAR	; CObject::Serialize
EXTRN	?DestroyWindow@CWnd@@UAEHXZ:NEAR		; CWnd::DestroyWindow
EXTRN	?PreCreateWindow@CWnd@@UAEHAAUtagCREATESTRUCTA@@@Z:NEAR ; CWnd::PreCreateWindow
EXTRN	?CalcWindowRect@CWnd@@UAEXPAUtagRECT@@I@Z:NEAR	; CWnd::CalcWindowRect
EXTRN	?GetSuperWndProcAddr@CWnd@@MAEPAP6GJPAUHWND__@@IIJ@ZXZ:NEAR ; CWnd::GetSuperWndProcAddr
EXTRN	?DoDataExchange@CWnd@@MAEXPAVCDataExchange@@@Z:NEAR ; CWnd::DoDataExchange
EXTRN	?BeginModalState@CWnd@@UAEXXZ:NEAR		; CWnd::BeginModalState
EXTRN	?EndModalState@CWnd@@UAEXXZ:NEAR		; CWnd::EndModalState
EXTRN	?PreTranslateMessage@CWnd@@UAEHPAUtagMSG@@@Z:NEAR ; CWnd::PreTranslateMessage
EXTRN	?OnAmbientProperty@CWnd@@UAEHPAVCOleControlSite@@JPAUtagVARIANT@@@Z:NEAR ; CWnd::OnAmbientProperty
EXTRN	?WindowProc@CWnd@@MAEJIIJ@Z:NEAR		; CWnd::WindowProc
EXTRN	?OnWndMsg@CWnd@@MAEHIIJPAJ@Z:NEAR		; CWnd::OnWndMsg
EXTRN	?DefWindowProcA@CWnd@@MAEJIIJ@Z:NEAR		; CWnd::DefWindowProcA
EXTRN	?PostNcDestroy@CWnd@@MAEXXZ:NEAR		; CWnd::PostNcDestroy
EXTRN	?OnChildNotify@CWnd@@MAEHIIJPAJ@Z:NEAR		; CWnd::OnChildNotify
EXTRN	??1CWnd@@UAE@XZ:NEAR				; CWnd::~CWnd
EXTRN	?CheckAutoCenter@CWnd@@UAEHXZ:NEAR		; CWnd::CheckAutoCenter
EXTRN	?AssertValid@CWnd@@UBEXXZ:NEAR			; CWnd::AssertValid
EXTRN	?Dump@CWnd@@UBEXAAVCDumpContext@@@Z:NEAR	; CWnd::Dump
EXTRN	?IsFrameWnd@CWnd@@UBEHXZ:NEAR			; CWnd::IsFrameWnd
EXTRN	?OnFinalRelease@CWnd@@UAEXXZ:NEAR		; CWnd::OnFinalRelease
EXTRN	__imp_?clear@?$basic_string@DU?$char_traits@D@std@@V?$allocator@D@2@@std@@QAEXXZ:NEAR
EXTRN	?CreateControlContainer@CWnd@@MAEHPAPAVCOleControlContainer@@@Z:NEAR ; CWnd::CreateControlContainer
EXTRN	?CreateControlSite@CWnd@@MAEHPAVCOleControlContainer@@PAPAVCOleControlSite@@IABU_GUID@@@Z:NEAR ; CWnd::CreateControlSite
EXTRN	?SetOccDialogInfo@CWnd@@MAEHPAU_AFX_OCC_DIALOG_INFO@@@Z:NEAR ; CWnd::SetOccDialogInfo
EXTRN	_memset:NEAR
EXTRN	_strcpy:NEAR
EXTRN	?OnToolHitTest@CWnd@@UBEHVCPoint@@PAUtagTOOLINFOA@@@Z:NEAR ; CWnd::OnToolHitTest
EXTRN	?GetScrollBarCtrl@CWnd@@UBEPAVCScrollBar@@H@Z:NEAR ; CWnd::GetScrollBarCtrl
EXTRN	?WinHelpA@CWnd@@UAEXKI@Z:NEAR			; CWnd::WinHelpA
EXTRN	?HtmlHelpA@CWnd@@UAEXKI@Z:NEAR			; CWnd::HtmlHelpA
EXTRN	??_7type_info@@6B@:QWORD			; type_info::`vftable'
EXTRN	?WinHelpInternal@CWnd@@UAEXKI@Z:NEAR		; CWnd::WinHelpInternal
EXTRN	?ContinueModal@CWnd@@UAEHXZ:NEAR		; CWnd::ContinueModal
EXTRN	?EndModalLoop@CWnd@@UAEXH@Z:NEAR		; CWnd::EndModalLoop
xdata$x	SEGMENT
$T190529 DD	0ffffffffH
	DD	FLAT:$L190507
	DD	00H
	DD	FLAT:$L190508
	DD	01H
	DD	FLAT:$L190509
	DD	02H
	DD	FLAT:$L190510
	DD	03H
	DD	FLAT:$L190511
$T190515 DD	019930520H
	DD	05H
	DD	FLAT:$T190529
	DD	2 DUP(00H)
	DD	2 DUP(00H)
xdata$x	ENDS
;	COMDAT ??_7DownPercentWnd@@6BCWnd@@@
CONST	SEGMENT
??_7DownPercentWnd@@6BCWnd@@@ DD FLAT:??_R4DownPercentWnd@@6BCWnd@@@ ; DownPercentWnd::`vftable'
	DD	FLAT:?GetRuntimeClass@DownPercentWnd@@UBEPAUCRuntimeClass@@XZ
	DD	FLAT:??_EDownPercentWnd@@UAEPAXI@Z
	DD	FLAT:?Serialize@CObject@@UAEXAAVCArchive@@@Z
	DD	FLAT:?AssertValid@CWnd@@UBEXXZ
	DD	FLAT:?Dump@CWnd@@UBEXAAVCDumpContext@@@Z
	DD	FLAT:?OnCmdMsg@CCmdTarget@@UAEHIHPAXPAUAFX_CMDHANDLERINFO@@@Z
	DD	FLAT:?OnFinalRelease@CWnd@@UAEXXZ
	DD	FLAT:?IsInvokeAllowed@CCmdTarget@@UAEHJ@Z
	DD	FLAT:?GetDispatchIID@CCmdTarget@@UAEHPAU_GUID@@@Z
	DD	FLAT:?GetTypeInfoCount@CCmdTarget@@UAEIXZ
	DD	FLAT:?GetTypeLibCache@CCmdTarget@@UAEPAVCTypeLibCache@@XZ
	DD	FLAT:?GetTypeLib@CCmdTarget@@UAEJKPAPAUITypeLib@@@Z
	DD	FLAT:?GetMessageMap@DownPercentWnd@@MBEPBUAFX_MSGMAP@@XZ
	DD	FLAT:?GetCommandMap@CCmdTarget@@MBEPBUAFX_OLECMDMAP@@XZ
	DD	FLAT:?GetDispatchMap@CCmdTarget@@MBEPBUAFX_DISPMAP@@XZ
	DD	FLAT:?GetConnectionMap@CCmdTarget@@MBEPBUAFX_CONNECTIONMAP@@XZ
	DD	FLAT:?GetInterfaceMap@CWnd@@MBEPBUAFX_INTERFACEMAP@@XZ
	DD	FLAT:?GetEventSinkMap@CCmdTarget@@MBEPBUAFX_EVENTSINKMAP@@XZ
	DD	FLAT:?OnCreateAggregates@CCmdTarget@@UAEHXZ
	DD	FLAT:?GetInterfaceHook@CCmdTarget@@UAEPAUIUnknown@@PBX@Z
	DD	FLAT:?GetExtraConnectionPoints@CCmdTarget@@MAEHPAVCPtrArray@@@Z
	DD	FLAT:?GetConnectionHook@CCmdTarget@@MAEPAUIConnectionPoint@@ABU_GUID@@@Z
	DD	FLAT:?PreSubclassWindow@CWnd@@UAEXXZ
	DD	FLAT:?Create@CWnd@@UAEHPBD0KABUtagRECT@@PAV1@IPAUCCreateContext@@@Z
	DD	FLAT:?CreateEx@CWnd@@UAEHKPBD0KABUtagRECT@@PAV1@IPAX@Z
	DD	FLAT:?CreateEx@CWnd@@UAEHKPBD0KHHHHPAUHWND__@@PAUHMENU__@@PAX@Z
	DD	FLAT:?DestroyWindow@CWnd@@UAEHXZ
	DD	FLAT:?PreCreateWindow@CWnd@@UAEHAAUtagCREATESTRUCTA@@@Z
	DD	FLAT:?CalcWindowRect@CWnd@@UAEXPAUtagRECT@@I@Z
	DD	FLAT:?OnToolHitTest@CWnd@@UBEHVCPoint@@PAUtagTOOLINFOA@@@Z
	DD	FLAT:?GetScrollBarCtrl@CWnd@@UBEPAVCScrollBar@@H@Z
	DD	FLAT:?WinHelpA@CWnd@@UAEXKI@Z
	DD	FLAT:?HtmlHelpA@CWnd@@UAEXKI@Z
	DD	FLAT:?WinHelpInternal@CWnd@@UAEXKI@Z
	DD	FLAT:?ContinueModal@CWnd@@UAEHXZ
	DD	FLAT:?EndModalLoop@CWnd@@UAEXH@Z
	DD	FLAT:?EnsureStdObj@CWnd@@UAEJXZ
	DD	FLAT:?get_accParent@CWnd@@UAEJPAPAUIDispatch@@@Z
	DD	FLAT:?get_accChildCount@CWnd@@UAEJPAJ@Z
	DD	FLAT:?get_accChild@CWnd@@UAEJUtagVARIANT@@PAPAUIDispatch@@@Z
	DD	FLAT:?get_accName@CWnd@@UAEJUtagVARIANT@@PAPA_W@Z
	DD	FLAT:?get_accValue@CWnd@@UAEJUtagVARIANT@@PAPA_W@Z
	DD	FLAT:?get_accDescription@CWnd@@UAEJUtagVARIANT@@PAPA_W@Z
	DD	FLAT:?get_accRole@CWnd@@UAEJUtagVARIANT@@PAU2@@Z
	DD	FLAT:?get_accState@CWnd@@UAEJUtagVARIANT@@PAU2@@Z
	DD	FLAT:?get_accHelp@CWnd@@UAEJUtagVARIANT@@PAPA_W@Z
	DD	FLAT:?get_accHelpTopic@CWnd@@UAEJPAPA_WUtagVARIANT@@PAJ@Z
	DD	FLAT:?get_accKeyboardShortcut@CWnd@@UAEJUtagVARIANT@@PAPA_W@Z
	DD	FLAT:?get_accFocus@CWnd@@UAEJPAUtagVARIANT@@@Z
	DD	FLAT:?get_accSelection@CWnd@@UAEJPAUtagVARIANT@@@Z
	DD	FLAT:?get_accDefaultAction@CWnd@@UAEJUtagVARIANT@@PAPA_W@Z
	DD	FLAT:?accSelect@CWnd@@UAEJJUtagVARIANT@@@Z
	DD	FLAT:?accLocation@CWnd@@UAEJPAJ000UtagVARIANT@@@Z
	DD	FLAT:?accNavigate@CWnd@@UAEJJUtagVARIANT@@PAU2@@Z
	DD	FLAT:?accHitTest@CWnd@@UAEJJJPAUtagVARIANT@@@Z
	DD	FLAT:?accDoDefaultAction@CWnd@@UAEJUtagVARIANT@@@Z
	DD	FLAT:?put_accName@CWnd@@UAEJUtagVARIANT@@PA_W@Z
	DD	FLAT:?put_accValue@CWnd@@UAEJUtagVARIANT@@PA_W@Z
	DD	FLAT:?SetProxy@CWnd@@UAEJPAUIAccessibleProxy@@@Z
	DD	FLAT:?CreateAccessibleProxy@CWnd@@UAEJIJPAJ@Z
	DD	FLAT:?OnCommand@CWnd@@MAEHIJ@Z
	DD	FLAT:?OnNotify@CWnd@@MAEHIJPAJ@Z
	DD	FLAT:?GetSuperWndProcAddr@CWnd@@MAEPAP6GJPAUHWND__@@IIJ@ZXZ
	DD	FLAT:?DoDataExchange@CWnd@@MAEXPAVCDataExchange@@@Z
	DD	FLAT:?BeginModalState@CWnd@@UAEXXZ
	DD	FLAT:?EndModalState@CWnd@@UAEXXZ
	DD	FLAT:?PreTranslateMessage@CWnd@@UAEHPAUtagMSG@@@Z
	DD	FLAT:?OnAmbientProperty@CWnd@@UAEHPAVCOleControlSite@@JPAUtagVARIANT@@@Z
	DD	FLAT:?WindowProc@CWnd@@MAEJIIJ@Z
	DD	FLAT:?OnWndMsg@CWnd@@MAEHIIJPAJ@Z
	DD	FLAT:?DefWindowProcA@CWnd@@MAEJIIJ@Z
	DD	FLAT:?PostNcDestroy@CWnd@@MAEXXZ
	DD	FLAT:?OnChildNotify@CWnd@@MAEHIIJPAJ@Z
	DD	FLAT:?CheckAutoCenter@CWnd@@UAEHXZ
	DD	FLAT:?IsFrameWnd@CWnd@@UBEHXZ
	DD	FLAT:?CreateControlContainer@CWnd@@MAEHPAPAVCOleControlContainer@@@Z
	DD	FLAT:?CreateControlSite@CWnd@@MAEHPAVCOleControlContainer@@PAPAVCOleControlSite@@IABU_GUID@@@Z
	DD	FLAT:?SetOccDialogInfo@CWnd@@MAEHPAU_AFX_OCC_DIALOG_INFO@@@Z
CONST	ENDS
;	COMDAT ??_7DownPercentWnd@@6BCBasicSkinWnd@@@
CONST	SEGMENT
??_7DownPercentWnd@@6BCBasicSkinWnd@@@ DD FLAT:??_R4DownPercentWnd@@6BCBasicSkinWnd@@@ ; DownPercentWnd::`vftable'
	DD	FLAT:??_EDownPercentWnd@@WFE@AEPAXI@Z
	DD	FLAT:?LoadSkin@DownPercentWnd@@UAEXXZ
CONST	ENDS
;	COMDAT __real@0000000000000000
CONST	SEGMENT
__real@0000000000000000 DQ 00000000000000000r	; 0
CONST	ENDS
;	COMDAT ??_R4DownPercentWnd@@6BCWnd@@@
rdata$r	SEGMENT
??_R4DownPercentWnd@@6BCWnd@@@ DD 00H			; DownPercentWnd::`RTTI Complete Object Locator'
	DD	00H
	DD	00H
	DD	FLAT:??_R0?AVDownPercentWnd@@@8
	DD	FLAT:??_R3DownPercentWnd@@8
rdata$r	ENDS
;	COMDAT ??_R0?AVDownPercentWnd@@@8
_DATA	SEGMENT
??_R0?AVDownPercentWnd@@@8 DD FLAT:??_7type_info@@6B@	; DownPercentWnd `RTTI Type Descriptor'
	DD	00H
	DB	'.?AVDownPercentWnd@@', 00H
_DATA	ENDS
;	COMDAT ??_R3DownPercentWnd@@8
rdata$r	SEGMENT
??_R3DownPercentWnd@@8 DD 00H				; DownPercentWnd::`RTTI Class Hierarchy Descriptor'
	DD	01H
	DD	05H
	DD	FLAT:??_R2DownPercentWnd@@8
rdata$r	ENDS
;	COMDAT ??_R2DownPercentWnd@@8
rdata$r	SEGMENT
??_R2DownPercentWnd@@8 DD FLAT:??_R1A@?0A@A@DownPercentWnd@@8 ; DownPercentWnd::`RTTI Base Class Array'
	DD	FLAT:??_R1A@?0A@A@CWnd@@8
	DD	FLAT:??_R1A@?0A@A@CCmdTarget@@8
	DD	FLAT:??_R1A@?0A@A@CObject@@8
	DD	FLAT:??_R1FE@?0A@A@CBasicSkinWnd@@8
rdata$r	ENDS
;	COMDAT ??_R1A@?0A@A@DownPercentWnd@@8
rdata$r	SEGMENT
??_R1A@?0A@A@DownPercentWnd@@8 DD FLAT:??_R0?AVDownPercentWnd@@@8 ; DownPercentWnd::`RTTI Base Class Descriptor at (0,-1,0,0)'
	DD	04H
	DD	00H
	DD	0ffffffffH
	DD	00H
	DD	00H
rdata$r	ENDS
;	COMDAT ??_R1A@?0A@A@CWnd@@8
rdata$r	SEGMENT
??_R1A@?0A@A@CWnd@@8 DD FLAT:??_R0?AVCWnd@@@8		; CWnd::`RTTI Base Class Descriptor at (0,-1,0,0)'
	DD	02H
	DD	00H
	DD	0ffffffffH
	DD	00H
	DD	00H
rdata$r	ENDS
;	COMDAT ??_R0?AVCWnd@@@8
_DATA	SEGMENT
??_R0?AVCWnd@@@8 DD FLAT:??_7type_info@@6B@		; CWnd `RTTI Type Descriptor'
	DD	00H
	DB	'.?AVCWnd@@', 00H
_DATA	ENDS
;	COMDAT ??_R1A@?0A@A@CCmdTarget@@8
rdata$r	SEGMENT
??_R1A@?0A@A@CCmdTarget@@8 DD FLAT:??_R0?AVCCmdTarget@@@8 ; CCmdTarget::`RTTI Base Class Descriptor at (0,-1,0,0)'
	DD	01H
	DD	00H
	DD	0ffffffffH
	DD	00H
	DD	00H
rdata$r	ENDS
;	COMDAT ??_R0?AVCCmdTarget@@@8
_DATA	SEGMENT
??_R0?AVCCmdTarget@@@8 DD FLAT:??_7type_info@@6B@	; CCmdTarget `RTTI Type Descriptor'
	DD	00H
	DB	'.?AVCCmdTarget@@', 00H
_DATA	ENDS
;	COMDAT ??_R1A@?0A@A@CObject@@8
rdata$r	SEGMENT
??_R1A@?0A@A@CObject@@8 DD FLAT:??_R0?AVCObject@@@8	; CObject::`RTTI Base Class Descriptor at (0,-1,0,0)'
	DD	00H
	DD	00H
	DD	0ffffffffH
	DD	00H
	DD	00H
rdata$r	ENDS
;	COMDAT ??_R0?AVCObject@@@8
_DATA	SEGMENT
??_R0?AVCObject@@@8 DD FLAT:??_7type_info@@6B@		; CObject `RTTI Type Descriptor'
	DD	00H
	DB	'.?AVCObject@@', 00H
_DATA	ENDS
;	COMDAT ??_R1FE@?0A@A@CBasicSkinWnd@@8
rdata$r	SEGMENT
??_R1FE@?0A@A@CBasicSkinWnd@@8 DD FLAT:??_R0?AVCBasicSkinWnd@@@8 ; CBasicSkinWnd::`RTTI Base Class Descriptor at (84,-1,0,0)'
	DD	00H
	DD	054H
	DD	0ffffffffH
	DD	00H
	DD	00H
rdata$r	ENDS
;	COMDAT ??_R0?AVCBasicSkinWnd@@@8
_DATA	SEGMENT
??_R0?AVCBasicSkinWnd@@@8 DD FLAT:??_7type_info@@6B@	; CBasicSkinWnd `RTTI Type Descriptor'
	DD	00H
	DB	'.?AVCBasicSkinWnd@@', 00H
	ORG $-28
	DD	FLAT:??_7type_info@@6B@
	DD	00H
	DB	'.?AVCBasicSkinWnd@@', 00H
_DATA	ENDS
;	COMDAT ??_R4DownPercentWnd@@6BCBasicSkinWnd@@@
rdata$r	SEGMENT
??_R4DownPercentWnd@@6BCBasicSkinWnd@@@ DD 00H		; DownPercentWnd::`RTTI Complete Object Locator'
	DD	054H
	DD	00H
	DD	FLAT:??_R0?AVDownPercentWnd@@@8
	DD	FLAT:??_R3DownPercentWnd@@8
; Function compile flags: /Odt /RTCsu
rdata$r	ENDS
_TEXT	SEGMENT
$T190506 = -104						; size = 16
_lf$ = -84						; size = 60
_this$ = -20						; size = 4
__$ArrayPad$ = -16					; size = 4
__$EHRec$ = -12						; size = 12
__$ReturnAddr$ = 4					; size = 4
??0DownPercentWnd@@QAE@XZ PROC NEAR			; DownPercentWnd::DownPercentWnd
; _this$ = ecx

; 9    : {

  00030	55		 push	 ebp
  00031	8b ec		 mov	 ebp, esp
  00033	6a ff		 push	 -1
  00035	68 00 00 00 00	 push	 __ehhandler$??0DownPercentWnd@@QAE@XZ
  0003a	64 a1 00 00 00
	00		 mov	 eax, DWORD PTR fs:__except_list
  00040	50		 push	 eax
  00041	64 89 25 00 00
	00 00		 mov	 DWORD PTR fs:__except_list, esp
  00048	83 ec 5c	 sub	 esp, 92			; 0000005cH
  0004b	56		 push	 esi
  0004c	57		 push	 edi
  0004d	51		 push	 ecx
  0004e	8d 7d 98	 lea	 edi, DWORD PTR [ebp-104]
  00051	b9 17 00 00 00	 mov	 ecx, 23			; 00000017H
  00056	b8 cc cc cc cc	 mov	 eax, -858993460		; ccccccccH
  0005b	f3 ab		 rep stosd
  0005d	59		 pop	 ecx
  0005e	a1 00 00 00 00	 mov	 eax, DWORD PTR ___security_cookie
  00063	89 45 f0	 mov	 DWORD PTR __$ArrayPad$[ebp], eax
  00066	89 4d ec	 mov	 DWORD PTR _this$[ebp], ecx
  00069	8b 4d ec	 mov	 ecx, DWORD PTR _this$[ebp]
  0006c	e8 00 00 00 00	 call	 ??0CWnd@@QAE@XZ		; CWnd::CWnd
  00071	c7 45 fc 00 00
	00 00		 mov	 DWORD PTR __$EHRec$[ebp+8], 0
  00078	8b 4d ec	 mov	 ecx, DWORD PTR _this$[ebp]
  0007b	83 c1 54	 add	 ecx, 84			; 00000054H
  0007e	e8 00 00 00 00	 call	 ??0CBasicSkinWnd@@QAE@XZ
  00083	c6 45 fc 01	 mov	 BYTE PTR __$EHRec$[ebp+8], 1
  00087	8b 45 ec	 mov	 eax, DWORD PTR _this$[ebp]
  0008a	c7 00 00 00 00
	00		 mov	 DWORD PTR [eax], OFFSET FLAT:??_7DownPercentWnd@@6BCWnd@@@
  00090	8b 4d ec	 mov	 ecx, DWORD PTR _this$[ebp]
  00093	c7 41 54 00 00
	00 00		 mov	 DWORD PTR [ecx+84], OFFSET FLAT:??_7DownPercentWnd@@6BCBasicSkinWnd@@@
  0009a	8b 4d ec	 mov	 ecx, DWORD PTR _this$[ebp]
  0009d	83 c1 68	 add	 ecx, 104		; 00000068H
  000a0	e8 00 00 00 00	 call	 ??0CFont@@QAE@XZ	; CFont::CFont
  000a5	c6 45 fc 02	 mov	 BYTE PTR __$EHRec$[ebp+8], 2
  000a9	8b 4d ec	 mov	 ecx, DWORD PTR _this$[ebp]
  000ac	83 c1 70	 add	 ecx, 112		; 00000070H
  000af	e8 00 00 00 00	 call	 ??0?$vector@V?$basic_string@DU?$char_traits@D@std@@V?$allocator@D@2@@std@@V?$allocator@V?$basic_string@DU?$char_traits@D@std@@V?$allocator@D@2@@std@@@2@@std@@QAE@XZ ; std::vector<std::basic_string<char,std::char_traits<char>,std::allocator<char> >,std::allocator<std::basic_string<char,std::char_traits<char>,std::allocator<char> > > >::vector<std::basic_string<char,std::char_traits<char>,std::allocator<char> >,std::allocator<std::basic_string<char,std::char_traits<char>,std::allocator<char> > > >
  000b4	c6 45 fc 03	 mov	 BYTE PTR __$EHRec$[ebp+8], 3
  000b8	8b 4d ec	 mov	 ecx, DWORD PTR _this$[ebp]
  000bb	81 c1 9c 00 00
	00		 add	 ecx, 156		; 0000009cH
  000c1	e8 00 00 00 00	 call	 ??0CRect@@QAE@XZ	; CRect::CRect
  000c6	8b 4d ec	 mov	 ecx, DWORD PTR _this$[ebp]
  000c9	81 c1 ac 00 00
	00		 add	 ecx, 172		; 000000acH
  000cf	e8 00 00 00 00	 call	 ??0AD_STRUCT@@QAE@XZ
  000d4	c6 45 fc 04	 mov	 BYTE PTR __$EHRec$[ebp+8], 4

; 10   : 	m_isFailed		 = false;

  000d8	8b 55 ec	 mov	 edx, DWORD PTR _this$[ebp]
  000db	c6 42 58 00	 mov	 BYTE PTR [edx+88], 0

; 11   : 	m_dDownPercent	 = 0;

  000df	8b 45 ec	 mov	 eax, DWORD PTR _this$[ebp]
  000e2	dd 05 00 00 00
	00		 fld	 QWORD PTR __real@0000000000000000
  000e8	dd 58 60	 fstp	 QWORD PTR [eax+96]

; 12   :  	m_colBk			 = RGB(218,232,244);

  000eb	8b 4d ec	 mov	 ecx, DWORD PTR _this$[ebp]
  000ee	c7 81 80 00 00
	00 da e8 f4 00	 mov	 DWORD PTR [ecx+128], 16050394 ; 00f4e8daH

; 13   : 	m_colText		 = RGB(103,103,103);

  000f8	8b 55 ec	 mov	 edx, DWORD PTR _this$[ebp]
  000fb	c7 82 84 00 00
	00 67 67 67 00	 mov	 DWORD PTR [edx+132], 6776679 ; 00676767H

; 14   : 	m_rcFlash		 = CRect(0, 0, 0, 0);

  00105	6a 00		 push	 0
  00107	6a 00		 push	 0
  00109	6a 00		 push	 0
  0010b	6a 00		 push	 0
  0010d	8d 4d 98	 lea	 ecx, DWORD PTR $T190506[ebp]
  00110	e8 00 00 00 00	 call	 ??0CRect@@QAE@HHHH@Z	; CRect::CRect
  00115	8b 4d ec	 mov	 ecx, DWORD PTR _this$[ebp]
  00118	81 c1 9c 00 00
	00		 add	 ecx, 156		; 0000009cH
  0011e	8b 10		 mov	 edx, DWORD PTR [eax]
  00120	89 11		 mov	 DWORD PTR [ecx], edx
  00122	8b 50 04	 mov	 edx, DWORD PTR [eax+4]
  00125	89 51 04	 mov	 DWORD PTR [ecx+4], edx
  00128	8b 50 08	 mov	 edx, DWORD PTR [eax+8]
  0012b	89 51 08	 mov	 DWORD PTR [ecx+8], edx
  0012e	8b 40 0c	 mov	 eax, DWORD PTR [eax+12]
  00131	89 41 0c	 mov	 DWORD PTR [ecx+12], eax

; 15   : 	m_ad.strLinkUrl.clear();

  00134	8b 4d ec	 mov	 ecx, DWORD PTR _this$[ebp]
  00137	81 c1 ac 00 00
	00		 add	 ecx, 172		; 000000acH
  0013d	8b f4		 mov	 esi, esp
  0013f	ff 15 00 00 00
	00		 call	 DWORD PTR __imp_?clear@?$basic_string@DU?$char_traits@D@std@@V?$allocator@D@2@@std@@QAEXXZ
  00145	3b f4		 cmp	 esi, esp
  00147	e8 00 00 00 00	 call	 __RTC_CheckEsp

; 16   : 	m_ad.strPicPath.clear();

  0014c	8b 4d ec	 mov	 ecx, DWORD PTR _this$[ebp]
  0014f	81 c1 c8 00 00
	00		 add	 ecx, 200		; 000000c8H
  00155	8b f4		 mov	 esi, esp
  00157	ff 15 00 00 00
	00		 call	 DWORD PTR __imp_?clear@?$basic_string@DU?$char_traits@D@std@@V?$allocator@D@2@@std@@QAEXXZ
  0015d	3b f4		 cmp	 esi, esp
  0015f	e8 00 00 00 00	 call	 __RTC_CheckEsp

; 17   : 	m_rcFlash.SetRectEmpty();

  00164	8b 4d ec	 mov	 ecx, DWORD PTR _this$[ebp]
  00167	81 c1 9c 00 00
	00		 add	 ecx, 156		; 0000009cH
  0016d	e8 00 00 00 00	 call	 ?SetRectEmpty@CRect@@QAEXXZ ; CRect::SetRectEmpty

; 18   : 
; 19   : 	m_pBmpBgL  = NULL;

  00172	8b 4d ec	 mov	 ecx, DWORD PTR _this$[ebp]
  00175	c7 81 88 00 00
	00 00 00 00 00	 mov	 DWORD PTR [ecx+136], 0

; 20   : 	m_pBmpBgM  = NULL;

  0017f	8b 55 ec	 mov	 edx, DWORD PTR _this$[ebp]
  00182	c7 82 8c 00 00
	00 00 00 00 00	 mov	 DWORD PTR [edx+140], 0

; 21   : 	m_pBmpBgR  = NULL;

  0018c	8b 45 ec	 mov	 eax, DWORD PTR _this$[ebp]
  0018f	c7 80 90 00 00
	00 00 00 00 00	 mov	 DWORD PTR [eax+144], 0

; 22   : 	m_pBmpM    = NULL;

  00199	8b 4d ec	 mov	 ecx, DWORD PTR _this$[ebp]
  0019c	c7 81 94 00 00
	00 00 00 00 00	 mov	 DWORD PTR [ecx+148], 0

; 23   : 	m_pImgAd   = NULL;

  001a6	8b 55 ec	 mov	 edx, DWORD PTR _this$[ebp]
  001a9	c7 82 98 00 00
	00 00 00 00 00	 mov	 DWORD PTR [edx+152], 0

; 24   : 
; 25   : 	//
; 26   : 	LOGFONT  lf;
; 27   : 	ZeroMemory(&lf,sizeof(lf));

  001b3	6a 3c		 push	 60			; 0000003cH
  001b5	6a 00		 push	 0
  001b7	8d 45 ac	 lea	 eax, DWORD PTR _lf$[ebp]
  001ba	50		 push	 eax
  001bb	e8 00 00 00 00	 call	 _memset
  001c0	83 c4 0c	 add	 esp, 12			; 0000000cH

; 28   : 
; 29   : 	lf.lfHeight = 12;

  001c3	c7 45 ac 0c 00
	00 00		 mov	 DWORD PTR _lf$[ebp], 12	; 0000000cH

; 30   : 	lf.lfWidth  = 0;

  001ca	c7 45 b0 00 00
	00 00		 mov	 DWORD PTR _lf$[ebp+4], 0

; 31   : 	lf.lfCharSet = GB2312_CHARSET;

  001d1	c6 45 c3 86	 mov	 BYTE PTR _lf$[ebp+23], 134 ; 00000086H

; 32   : 	lf.lfStrikeOut = FALSE;

  001d5	c6 45 c2 00	 mov	 BYTE PTR _lf$[ebp+22], 0

; 33   : 	lf.lfOutPrecision = OUT_DEFAULT_PRECIS;

  001d9	c6 45 c4 00	 mov	 BYTE PTR _lf$[ebp+24], 0

; 34   : 	lf.lfClipPrecision = CLIP_DEFAULT_PRECIS;

  001dd	c6 45 c5 00	 mov	 BYTE PTR _lf$[ebp+25], 0

; 35   : 	lf.lfQuality = DEFAULT_QUALITY;

  001e1	c6 45 c6 00	 mov	 BYTE PTR _lf$[ebp+26], 0

; 36   : 	lf.lfPitchAndFamily = FF_DONTCARE | DEFAULT_PITCH;

  001e5	c6 45 c7 00	 mov	 BYTE PTR _lf$[ebp+27], 0

; 37   : 	lf.lfUnderline = false;

  001e9	c6 45 c1 00	 mov	 BYTE PTR _lf$[ebp+21], 0

; 38   : 	strcpy(lf.lfFaceName, "");

  001ed	68 00 00 00 00	 push	 OFFSET FLAT:$SG188940
  001f2	8d 4d c8	 lea	 ecx, DWORD PTR _lf$[ebp+28]
  001f5	51		 push	 ecx
  001f6	e8 00 00 00 00	 call	 _strcpy
  001fb	83 c4 08	 add	 esp, 8

; 39   : 
; 40   : 	lf.lfWeight = FW_NORMAL;

  001fe	c7 45 bc 90 01
	00 00		 mov	 DWORD PTR _lf$[ebp+16], 400 ; 00000190H

; 41   : 	m_font.CreateFontIndirect(&lf);

  00205	8d 55 ac	 lea	 edx, DWORD PTR _lf$[ebp]
  00208	52		 push	 edx
  00209	8b 4d ec	 mov	 ecx, DWORD PTR _this$[ebp]
  0020c	83 c1 68	 add	 ecx, 104		; 00000068H
  0020f	e8 00 00 00 00	 call	 ?CreateFontIndirectA@CFont@@QAEHPBUtagLOGFONTA@@@Z ; CFont::CreateFontIndirectA

; 42   : }

  00214	c7 45 fc ff ff
	ff ff		 mov	 DWORD PTR __$EHRec$[ebp+8], -1
  0021b	8b 45 ec	 mov	 eax, DWORD PTR _this$[ebp]
  0021e	52		 push	 edx
  0021f	8b cd		 mov	 ecx, ebp
  00221	50		 push	 eax
  00222	8d 15 00 00 00
	00		 lea	 edx, DWORD PTR $L190525
  00228	e8 00 00 00 00	 call	 @_RTC_CheckStackVars@8
  0022d	58		 pop	 eax
  0022e	5a		 pop	 edx
  0022f	8b 4d f4	 mov	 ecx, DWORD PTR __$EHRec$[ebp]
  00232	64 89 0d 00 00
	00 00		 mov	 DWORD PTR fs:__except_list, ecx
  00239	8b 4d f0	 mov	 ecx, DWORD PTR __$ArrayPad$[ebp]
  0023c	e8 00 00 00 00	 call	 @__security_check_cookie@4
  00241	5f		 pop	 edi
  00242	5e		 pop	 esi
  00243	83 c4 68	 add	 esp, 104		; 00000068H
  00246	3b ec		 cmp	 ebp, esp
  00248	e8 00 00 00 00	 call	 __RTC_CheckEsp
  0024d	8b e5		 mov	 esp, ebp
  0024f	5d		 pop	 ebp
  00250	c3		 ret	 0
$L190525:
  00251	01 00 00 00	 DD	 1
  00255	00 00 00 00	 DD	 $L190524
$L190524:
  00259	ac ff ff ff	 DD	 -84			; ffffffacH
  0025d	3c 00 00 00	 DD	 60			; 0000003cH
  00261	00 00 00 00	 DD	 $L190519
$L190519:
  00265	6c		 DB	 108			; 0000006cH
  00266	66		 DB	 102			; 00000066H
  00267	00		 DB	 0
_TEXT	ENDS
text$x	SEGMENT
$L190507:
  00000	8b 4d ec	 mov	 ecx, DWORD PTR _this$[ebp]
  00003	e9 00 00 00 00	 jmp	 ??1CWnd@@UAE@XZ		; CWnd::~CWnd
$L190508:
  00008	8b 4d ec	 mov	 ecx, DWORD PTR _this$[ebp]
  0000b	83 c1 54	 add	 ecx, 84			; 00000054H
  0000e	e9 00 00 00 00	 jmp	 ??1CBasicSkinWnd@@UAE@XZ ; CBasicSkinWnd::~CBasicSkinWnd
$L190509:
  00013	8b 4d ec	 mov	 ecx, DWORD PTR _this$[ebp]
  00016	83 c1 68	 add	 ecx, 104		; 00000068H
  00019	e9 00 00 00 00	 jmp	 ??1CFont@@UAE@XZ	; CFont::~CFont
$L190510:
  0001e	8b 4d ec	 mov	 ecx, DWORD PTR _this$[ebp]
  00021	83 c1 70	 add	 ecx, 112		; 00000070H
  00024	e9 00 00 00 00	 jmp	 ??1?$vector@V?$basic_string@DU?$char_traits@D@std@@V?$allocator@D@2@@std@@V?$allocator@V?$basic_string@DU?$char_traits@D@std@@V?$allocator@D@2@@std@@@2@@std@@QAE@XZ ; std::vector<std::basic_string<char,std::char_traits<char>,std::allocator<char> >,std::allocator<std::basic_string<char,std::char_traits<char>,std::allocator<char> > > >::~vector<std::basic_string<char,std::char_traits<char>,std::allocator<char> >,std::allocator<std::basic_string<char,std::char_traits<char>,std::allocator<char> > > >
$L190511:
  00029	8b 4d ec	 mov	 ecx, DWORD PTR _this$[ebp]
  0002c	81 c1 ac 00 00
	00		 add	 ecx, 172		; 000000acH
  00032	e9 00 00 00 00	 jmp	 ??1AD_STRUCT@@QAE@XZ
__ehhandler$??0DownPercentWnd@@QAE@XZ:
  00037	b8 00 00 00 00	 mov	 eax, OFFSET FLAT:$T190515
  0003c	e9 00 00 00 00	 jmp	 ___CxxFrameHandler
text$x	ENDS
??0DownPercentWnd@@QAE@XZ ENDP				; DownPercentWnd::DownPercentWnd
PUBLIC	??1DownPercentWnd@@UAE@XZ			; DownPercentWnd::~DownPercentWnd
EXTRN	??3CObject@@SGXPAX@Z:NEAR			; CObject::operator delete
; Function compile flags: /Odt /RTCsu
;	COMDAT ??_GDownPercentWnd@@UAEPAXI@Z
_TEXT	SEGMENT
_this$ = -4						; size = 4
___flags$ = 8						; size = 4
??_GDownPercentWnd@@UAEPAXI@Z PROC NEAR			; DownPercentWnd::`scalar deleting destructor', COMDAT
; _this$ = ecx
  00000	55		 push	 ebp
  00001	8b ec		 mov	 ebp, esp
  00003	51		 push	 ecx
  00004	c7 45 fc cc cc
	cc cc		 mov	 DWORD PTR [ebp-4], -858993460 ; ccccccccH
  0000b	89 4d fc	 mov	 DWORD PTR _this$[ebp], ecx
  0000e	8b 4d fc	 mov	 ecx, DWORD PTR _this$[ebp]
  00011	e8 00 00 00 00	 call	 ??1DownPercentWnd@@UAE@XZ ; DownPercentWnd::~DownPercentWnd
  00016	8b 45 08	 mov	 eax, DWORD PTR ___flags$[ebp]
  00019	83 e0 01	 and	 eax, 1
  0001c	74 09		 je	 SHORT $L188944
  0001e	8b 4d fc	 mov	 ecx, DWORD PTR _this$[ebp]
  00021	51		 push	 ecx
  00022	e8 00 00 00 00	 call	 ??3CObject@@SGXPAX@Z	; CObject::operator delete
$L188944:
  00027	8b 45 fc	 mov	 eax, DWORD PTR _this$[ebp]
  0002a	83 c4 04	 add	 esp, 4
  0002d	3b ec		 cmp	 ebp, esp
  0002f	e8 00 00 00 00	 call	 __RTC_CheckEsp
  00034	8b e5		 mov	 esp, ebp
  00036	5d		 pop	 ebp
  00037	c2 04 00	 ret	 4
??_GDownPercentWnd@@UAEPAXI@Z ENDP			; DownPercentWnd::`scalar deleting destructor'
_TEXT	ENDS
PUBLIC	??_7CBasicSkinWnd@@6B@				; CBasicSkinWnd::`vftable'
PUBLIC	??_GCBasicSkinWnd@@UAEPAXI@Z			; CBasicSkinWnd::`scalar deleting destructor'
PUBLIC	??_R4CBasicSkinWnd@@6B@				; CBasicSkinWnd::`RTTI Complete Object Locator'
PUBLIC	??_R3CBasicSkinWnd@@8				; CBasicSkinWnd::`RTTI Class Hierarchy Descriptor'
PUBLIC	??_R2CBasicSkinWnd@@8				; CBasicSkinWnd::`RTTI Base Class Array'
PUBLIC	??_R1A@?0A@A@CBasicSkinWnd@@8			; CBasicSkinWnd::`RTTI Base Class Descriptor at (0,-1,0,0)'
EXTRN	__purecall:NEAR
EXTRN	??_ECBasicSkinWnd@@UAEPAXI@Z:NEAR		; CBasicSkinWnd::`vector deleting destructor'
;	COMDAT ??_7CBasicSkinWnd@@6B@
CONST	SEGMENT
??_7CBasicSkinWnd@@6B@ DD FLAT:??_R4CBasicSkinWnd@@6B@	; CBasicSkinWnd::`vftable'
	DD	FLAT:??_ECBasicSkinWnd@@UAEPAXI@Z
	DD	FLAT:__purecall
CONST	ENDS
;	COMDAT ??_R4CBasicSkinWnd@@6B@
rdata$r	SEGMENT
??_R4CBasicSkinWnd@@6B@ DD 00H				; CBasicSkinWnd::`RTTI Complete Object Locator'
	DD	00H
	DD	00H
	DD	FLAT:??_R0?AVCBasicSkinWnd@@@8
	DD	FLAT:??_R3CBasicSkinWnd@@8
rdata$r	ENDS
;	COMDAT ??_R3CBasicSkinWnd@@8
rdata$r	SEGMENT
??_R3CBasicSkinWnd@@8 DD 00H				; CBasicSkinWnd::`RTTI Class Hierarchy Descriptor'
	DD	00H
	DD	01H
	DD	FLAT:??_R2CBasicSkinWnd@@8
rdata$r	ENDS
;	COMDAT ??_R2CBasicSkinWnd@@8
rdata$r	SEGMENT
??_R2CBasicSkinWnd@@8 DD FLAT:??_R1A@?0A@A@CBasicSkinWnd@@8 ; CBasicSkinWnd::`RTTI Base Class Array'
rdata$r	ENDS
;	COMDAT ??_R1A@?0A@A@CBasicSkinWnd@@8
rdata$r	SEGMENT
??_R1A@?0A@A@CBasicSkinWnd@@8 DD FLAT:??_R0?AVCBasicSkinWnd@@@8 ; CBasicSkinWnd::`RTTI Base Class Descriptor at (0,-1,0,0)'
	DD	00H
	DD	00H
	DD	0ffffffffH
	DD	00H
	DD	00H
; Function compile flags: /Odt /RTCsu
rdata$r	ENDS
;	COMDAT ??0CBasicSkinWnd@@QAE@XZ
_TEXT	SEGMENT
_this$ = -4						; size = 4
??0CBasicSkinWnd@@QAE@XZ PROC NEAR			; CBasicSkinWnd::CBasicSkinWnd, COMDAT
; _this$ = ecx
  00000	55		 push	 ebp
  00001	8b ec		 mov	 ebp, esp
  00003	51		 push	 ecx
  00004	c7 45 fc cc cc
	cc cc		 mov	 DWORD PTR [ebp-4], -858993460 ; ccccccccH
  0000b	89 4d fc	 mov	 DWORD PTR _this$[ebp], ecx
  0000e	8b 45 fc	 mov	 eax, DWORD PTR _this$[ebp]
  00011	c7 00 00 00 00
	00		 mov	 DWORD PTR [eax], OFFSET FLAT:??_7CBasicSkinWnd@@6B@
  00017	8b 45 fc	 mov	 eax, DWORD PTR _this$[ebp]
  0001a	8b e5		 mov	 esp, ebp
  0001c	5d		 pop	 ebp
  0001d	c3		 ret	 0
??0CBasicSkinWnd@@QAE@XZ ENDP				; CBasicSkinWnd::CBasicSkinWnd
_TEXT	ENDS
EXTRN	__imp_??0?$basic_string@DU?$char_traits@D@std@@V?$allocator@D@2@@std@@QAE@XZ:NEAR
EXTRN	__imp_??1?$basic_string@DU?$char_traits@D@std@@V?$allocator@D@2@@std@@QAE@XZ:NEAR
;	COMDAT xdata$x
xdata$x	SEGMENT
$T190539 DD	0ffffffffH
	DD	FLAT:$L190534
$T190537 DD	019930520H
	DD	01H
	DD	FLAT:$T190539
	DD	2 DUP(00H)
	DD	2 DUP(00H)
; Function compile flags: /Odt /RTCsu
xdata$x	ENDS
;	COMDAT ??0AD_STRUCT@@QAE@XZ
_TEXT	SEGMENT
_this$ = -16						; size = 4
__$EHRec$ = -12						; size = 12
??0AD_STRUCT@@QAE@XZ PROC NEAR				; AD_STRUCT::AD_STRUCT, COMDAT
; _this$ = ecx
  00000	55		 push	 ebp
  00001	8b ec		 mov	 ebp, esp
  00003	6a ff		 push	 -1
  00005	68 00 00 00 00	 push	 __ehhandler$??0AD_STRUCT@@QAE@XZ
  0000a	64 a1 00 00 00
	00		 mov	 eax, DWORD PTR fs:__except_list
  00010	50		 push	 eax
  00011	64 89 25 00 00
	00 00		 mov	 DWORD PTR fs:__except_list, esp
  00018	51		 push	 ecx
  00019	56		 push	 esi
  0001a	c7 45 f0 cc cc
	cc cc		 mov	 DWORD PTR [ebp-16], -858993460 ; ccccccccH
  00021	89 4d f0	 mov	 DWORD PTR _this$[ebp], ecx
  00024	8b f4		 mov	 esi, esp
  00026	8b 4d f0	 mov	 ecx, DWORD PTR _this$[ebp]
  00029	ff 15 00 00 00
	00		 call	 DWORD PTR __imp_??0?$basic_string@DU?$char_traits@D@std@@V?$allocator@D@2@@std@@QAE@XZ
  0002f	3b f4		 cmp	 esi, esp
  00031	e8 00 00 00 00	 call	 __RTC_CheckEsp
  00036	c7 45 fc 00 00
	00 00		 mov	 DWORD PTR __$EHRec$[ebp+8], 0
  0003d	8b 4d f0	 mov	 ecx, DWORD PTR _this$[ebp]
  00040	83 c1 1c	 add	 ecx, 28			; 0000001cH
  00043	8b f4		 mov	 esi, esp
  00045	ff 15 00 00 00
	00		 call	 DWORD PTR __imp_??0?$basic_string@DU?$char_traits@D@std@@V?$allocator@D@2@@std@@QAE@XZ
  0004b	3b f4		 cmp	 esi, esp
  0004d	e8 00 00 00 00	 call	 __RTC_CheckEsp
  00052	c7 45 fc ff ff
	ff ff		 mov	 DWORD PTR __$EHRec$[ebp+8], -1
  00059	8b 45 f0	 mov	 eax, DWORD PTR _this$[ebp]
  0005c	8b 4d f4	 mov	 ecx, DWORD PTR __$EHRec$[ebp]
  0005f	64 89 0d 00 00
	00 00		 mov	 DWORD PTR fs:__except_list, ecx
  00066	5e		 pop	 esi
  00067	83 c4 10	 add	 esp, 16			; 00000010H
  0006a	3b ec		 cmp	 ebp, esp
  0006c	e8 00 00 00 00	 call	 __RTC_CheckEsp
  00071	8b e5		 mov	 esp, ebp
  00073	5d		 pop	 ebp
  00074	c3		 ret	 0
_TEXT	ENDS
;	COMDAT text$x
text$x	SEGMENT
$L190534:
  00000	8b f4		 mov	 esi, esp
  00002	8b 4d f0	 mov	 ecx, DWORD PTR _this$[ebp]
  00005	ff 15 00 00 00
	00		 call	 DWORD PTR __imp_??1?$basic_string@DU?$char_traits@D@std@@V?$allocator@D@2@@std@@QAE@XZ
  0000b	3b f4		 cmp	 esi, esp
  0000d	e9 00 00 00 00	 jmp	 __RTC_CheckEsp
__ehhandler$??0AD_STRUCT@@QAE@XZ:
  00012	b8 00 00 00 00	 mov	 eax, OFFSET FLAT:$T190537
  00017	e9 00 00 00 00	 jmp	 ___CxxFrameHandler
text$x	ENDS
??0AD_STRUCT@@QAE@XZ ENDP				; AD_STRUCT::AD_STRUCT
;	COMDAT xdata$x
xdata$x	SEGMENT
$T190548 DD	0ffffffffH
	DD	FLAT:$L190543
$T190546 DD	019930520H
	DD	01H
	DD	FLAT:$T190548
	DD	2 DUP(00H)
	DD	2 DUP(00H)
; Function compile flags: /Odt /RTCsu
xdata$x	ENDS
;	COMDAT ??1AD_STRUCT@@QAE@XZ
_TEXT	SEGMENT
_this$ = -16						; size = 4
__$EHRec$ = -12						; size = 12
??1AD_STRUCT@@QAE@XZ PROC NEAR				; AD_STRUCT::~AD_STRUCT, COMDAT
; _this$ = ecx
  00000	55		 push	 ebp
  00001	8b ec		 mov	 ebp, esp
  00003	6a ff		 push	 -1
  00005	68 00 00 00 00	 push	 __ehhandler$??1AD_STRUCT@@QAE@XZ
  0000a	64 a1 00 00 00
	00		 mov	 eax, DWORD PTR fs:__except_list
  00010	50		 push	 eax
  00011	64 89 25 00 00
	00 00		 mov	 DWORD PTR fs:__except_list, esp
  00018	51		 push	 ecx
  00019	56		 push	 esi
  0001a	c7 45 f0 cc cc
	cc cc		 mov	 DWORD PTR [ebp-16], -858993460 ; ccccccccH
  00021	89 4d f0	 mov	 DWORD PTR _this$[ebp], ecx
  00024	c7 45 fc 00 00
	00 00		 mov	 DWORD PTR __$EHRec$[ebp+8], 0
  0002b	8b 4d f0	 mov	 ecx, DWORD PTR _this$[ebp]
  0002e	83 c1 1c	 add	 ecx, 28			; 0000001cH
  00031	8b f4		 mov	 esi, esp
  00033	ff 15 00 00 00
	00		 call	 DWORD PTR __imp_??1?$basic_string@DU?$char_traits@D@std@@V?$allocator@D@2@@std@@QAE@XZ
  00039	3b f4		 cmp	 esi, esp
  0003b	e8 00 00 00 00	 call	 __RTC_CheckEsp
  00040	c7 45 fc ff ff
	ff ff		 mov	 DWORD PTR __$EHRec$[ebp+8], -1
  00047	8b f4		 mov	 esi, esp
  00049	8b 4d f0	 mov	 ecx, DWORD PTR _this$[ebp]
  0004c	ff 15 00 00 00
	00		 call	 DWORD PTR __imp_??1?$basic_string@DU?$char_traits@D@std@@V?$allocator@D@2@@std@@QAE@XZ
  00052	3b f4		 cmp	 esi, esp
  00054	e8 00 00 00 00	 call	 __RTC_CheckEsp
  00059	8b 4d f4	 mov	 ecx, DWORD PTR __$EHRec$[ebp]
  0005c	64 89 0d 00 00
	00 00		 mov	 DWORD PTR fs:__except_list, ecx
  00063	5e		 pop	 esi
  00064	83 c4 10	 add	 esp, 16			; 00000010H
  00067	3b ec		 cmp	 ebp, esp
  00069	e8 00 00 00 00	 call	 __RTC_CheckEsp
  0006e	8b e5		 mov	 esp, ebp
  00070	5d		 pop	 ebp
  00071	c3		 ret	 0
_TEXT	ENDS
;	COMDAT text$x
text$x	SEGMENT
$L190543:
  00000	8b f4		 mov	 esi, esp
  00002	8b 4d f0	 mov	 ecx, DWORD PTR _this$[ebp]
  00005	ff 15 00 00 00
	00		 call	 DWORD PTR __imp_??1?$basic_string@DU?$char_traits@D@std@@V?$allocator@D@2@@std@@QAE@XZ
  0000b	3b f4		 cmp	 esi, esp
  0000d	e9 00 00 00 00	 jmp	 __RTC_CheckEsp
__ehhandler$??1AD_STRUCT@@QAE@XZ:
  00012	b8 00 00 00 00	 mov	 eax, OFFSET FLAT:$T190546
  00017	e9 00 00 00 00	 jmp	 ___CxxFrameHandler
text$x	ENDS
??1AD_STRUCT@@QAE@XZ ENDP				; AD_STRUCT::~AD_STRUCT
EXTRN	?DeleteObject@CGdiObject@@QAEHXZ:NEAR		; CGdiObject::DeleteObject
xdata$x	SEGMENT
$T190564 DD	0ffffffffH
	DD	FLAT:$L190554
	DD	00H
	DD	FLAT:$L190557
	DD	01H
	DD	FLAT:$L190558
	DD	02H
	DD	FLAT:$L190559
	DD	03H
	DD	FLAT:$L190560
$T190562 DD	019930520H
	DD	05H
	DD	FLAT:$T190564
	DD	2 DUP(00H)
	DD	2 DUP(00H)
; Function compile flags: /Odt /RTCsu
xdata$x	ENDS
_TEXT	SEGMENT
tv68 = -20						; size = 4
_this$ = -16						; size = 4
__$EHRec$ = -12						; size = 12
??1DownPercentWnd@@UAE@XZ PROC NEAR			; DownPercentWnd::~DownPercentWnd
; _this$ = ecx

; 45   : {

  00270	55		 push	 ebp
  00271	8b ec		 mov	 ebp, esp
  00273	6a ff		 push	 -1
  00275	68 00 00 00 00	 push	 __ehhandler$??1DownPercentWnd@@UAE@XZ
  0027a	64 a1 00 00 00
	00		 mov	 eax, DWORD PTR fs:__except_list
  00280	50		 push	 eax
  00281	64 89 25 00 00
	00 00		 mov	 DWORD PTR fs:__except_list, esp
  00288	83 ec 08	 sub	 esp, 8
  0028b	c7 45 ec cc cc
	cc cc		 mov	 DWORD PTR [ebp-20], -858993460 ; ccccccccH
  00292	c7 45 f0 cc cc
	cc cc		 mov	 DWORD PTR [ebp-16], -858993460 ; ccccccccH
  00299	89 4d f0	 mov	 DWORD PTR _this$[ebp], ecx
  0029c	8b 45 f0	 mov	 eax, DWORD PTR _this$[ebp]
  0029f	c7 00 00 00 00
	00		 mov	 DWORD PTR [eax], OFFSET FLAT:??_7DownPercentWnd@@6BCWnd@@@
  002a5	8b 4d f0	 mov	 ecx, DWORD PTR _this$[ebp]
  002a8	c7 41 54 00 00
	00 00		 mov	 DWORD PTR [ecx+84], OFFSET FLAT:??_7DownPercentWnd@@6BCBasicSkinWnd@@@
  002af	c7 45 fc 04 00
	00 00		 mov	 DWORD PTR __$EHRec$[ebp+8], 4

; 46   : 	m_font.DeleteObject();

  002b6	8b 4d f0	 mov	 ecx, DWORD PTR _this$[ebp]
  002b9	83 c1 68	 add	 ecx, 104		; 00000068H
  002bc	e8 00 00 00 00	 call	 ?DeleteObject@CGdiObject@@QAEHXZ ; CGdiObject::DeleteObject

; 47   : }

  002c1	c6 45 fc 03	 mov	 BYTE PTR __$EHRec$[ebp+8], 3
  002c5	8b 4d f0	 mov	 ecx, DWORD PTR _this$[ebp]
  002c8	81 c1 ac 00 00
	00		 add	 ecx, 172		; 000000acH
  002ce	e8 00 00 00 00	 call	 ??1AD_STRUCT@@QAE@XZ
  002d3	c6 45 fc 02	 mov	 BYTE PTR __$EHRec$[ebp+8], 2
  002d7	8b 4d f0	 mov	 ecx, DWORD PTR _this$[ebp]
  002da	83 c1 70	 add	 ecx, 112		; 00000070H
  002dd	e8 00 00 00 00	 call	 ??1?$vector@V?$basic_string@DU?$char_traits@D@std@@V?$allocator@D@2@@std@@V?$allocator@V?$basic_string@DU?$char_traits@D@std@@V?$allocator@D@2@@std@@@2@@std@@QAE@XZ ; std::vector<std::basic_string<char,std::char_traits<char>,std::allocator<char> >,std::allocator<std::basic_string<char,std::char_traits<char>,std::allocator<char> > > >::~vector<std::basic_string<char,std::char_traits<char>,std::allocator<char> >,std::allocator<std::basic_string<char,std::char_traits<char>,std::allocator<char> > > >
  002e2	c6 45 fc 01	 mov	 BYTE PTR __$EHRec$[ebp+8], 1
  002e6	8b 4d f0	 mov	 ecx, DWORD PTR _this$[ebp]
  002e9	83 c1 68	 add	 ecx, 104		; 00000068H
  002ec	e8 00 00 00 00	 call	 ??1CFont@@UAE@XZ	; CFont::~CFont
  002f1	c6 45 fc 00	 mov	 BYTE PTR __$EHRec$[ebp+8], 0
  002f5	83 7d f0 00	 cmp	 DWORD PTR _this$[ebp], 0
  002f9	74 0b		 je	 SHORT $L190552
  002fb	8b 55 f0	 mov	 edx, DWORD PTR _this$[ebp]
  002fe	83 c2 54	 add	 edx, 84			; 00000054H
  00301	89 55 ec	 mov	 DWORD PTR tv68[ebp], edx
  00304	eb 07		 jmp	 SHORT $L190553
$L190552:
  00306	c7 45 ec 00 00
	00 00		 mov	 DWORD PTR tv68[ebp], 0
$L190553:
  0030d	8b 4d ec	 mov	 ecx, DWORD PTR tv68[ebp]
  00310	e8 00 00 00 00	 call	 ??1CBasicSkinWnd@@UAE@XZ ; CBasicSkinWnd::~CBasicSkinWnd
  00315	c7 45 fc ff ff
	ff ff		 mov	 DWORD PTR __$EHRec$[ebp+8], -1
  0031c	8b 4d f0	 mov	 ecx, DWORD PTR _this$[ebp]
  0031f	e8 00 00 00 00	 call	 ??1CWnd@@UAE@XZ		; CWnd::~CWnd
  00324	8b 4d f4	 mov	 ecx, DWORD PTR __$EHRec$[ebp]
  00327	64 89 0d 00 00
	00 00		 mov	 DWORD PTR fs:__except_list, ecx
  0032e	83 c4 14	 add	 esp, 20			; 00000014H
  00331	3b ec		 cmp	 ebp, esp
  00333	e8 00 00 00 00	 call	 __RTC_CheckEsp
  00338	8b e5		 mov	 esp, ebp
  0033a	5d		 pop	 ebp
  0033b	c3		 ret	 0
_TEXT	ENDS
text$x	SEGMENT
$L190554:
  00041	8b 4d f0	 mov	 ecx, DWORD PTR _this$[ebp]
  00044	e9 00 00 00 00	 jmp	 ??1CWnd@@UAE@XZ		; CWnd::~CWnd
$L190557:
  00049	83 7d f0 00	 cmp	 DWORD PTR _this$[ebp], 0
  0004d	0f 84 0e 00 00
	00		 je	 $L190555
  00053	8b 45 f0	 mov	 eax, DWORD PTR _this$[ebp]
  00056	83 c0 54	 add	 eax, 84			; 00000054H
  00059	89 45 ec	 mov	 DWORD PTR tv68[ebp], eax
  0005c	e9 07 00 00 00	 jmp	 $L190556
$L190555:
  00061	c7 45 ec 00 00
	00 00		 mov	 DWORD PTR tv68[ebp], 0
$L190556:
  00068	8b 4d ec	 mov	 ecx, DWORD PTR tv68[ebp]
  0006b	e9 00 00 00 00	 jmp	 ??1CBasicSkinWnd@@UAE@XZ ; CBasicSkinWnd::~CBasicSkinWnd
$L190558:
  00070	8b 4d f0	 mov	 ecx, DWORD PTR _this$[ebp]
  00073	83 c1 68	 add	 ecx, 104		; 00000068H
  00076	e9 00 00 00 00	 jmp	 ??1CFont@@UAE@XZ	; CFont::~CFont
$L190559:
  0007b	8b 4d f0	 mov	 ecx, DWORD PTR _this$[ebp]
  0007e	83 c1 70	 add	 ecx, 112		; 00000070H
  00081	e9 00 00 00 00	 jmp	 ??1?$vector@V?$basic_string@DU?$char_traits@D@std@@V?$allocator@D@2@@std@@V?$allocator@V?$basic_string@DU?$char_traits@D@std@@V?$allocator@D@2@@std@@@2@@std@@QAE@XZ ; std::vector<std::basic_string<char,std::char_traits<char>,std::allocator<char> >,std::allocator<std::basic_string<char,std::char_traits<char>,std::allocator<char> > > >::~vector<std::basic_string<char,std::char_traits<char>,std::allocator<char> >,std::allocator<std::basic_string<char,std::char_traits<char>,std::allocator<char> > > >
$L190560:
  00086	8b 4d f0	 mov	 ecx, DWORD PTR _this$[ebp]
  00089	81 c1 ac 00 00
	00		 add	 ecx, 172		; 000000acH
  0008f	e9 00 00 00 00	 jmp	 ??1AD_STRUCT@@QAE@XZ
__ehhandler$??1DownPercentWnd@@UAE@XZ:
  00094	b8 00 00 00 00	 mov	 eax, OFFSET FLAT:$T190562
  00099	e9 00 00 00 00	 jmp	 ___CxxFrameHandler
text$x	ENDS
??1DownPercentWnd@@UAE@XZ ENDP				; DownPercentWnd::~DownPercentWnd
PUBLIC	?GetThisMessageMap@DownPercentWnd@@KGPBUAFX_MSGMAP@@XZ ; DownPercentWnd::GetThisMessageMap
; Function compile flags: /Odt /RTCsu
_TEXT	SEGMENT
?GetThisMessageMap@DownPercentWnd@@KGPBUAFX_MSGMAP@@XZ PROC NEAR ; DownPercentWnd::GetThisMessageMap

; 49   : BEGIN_MESSAGE_MAP(DownPercentWnd, CWnd)

  00340	55		 push	 ebp
  00341	8b ec		 mov	 ebp, esp
  00343	b8 00 00 00 00	 mov	 eax, OFFSET FLAT:?messageMap@DownPercentWnd@@1UAFX_MSGMAP@@B ; DownPercentWnd::messageMap
  00348	5d		 pop	 ebp
  00349	c3		 ret	 0
?GetThisMessageMap@DownPercentWnd@@KGPBUAFX_MSGMAP@@XZ ENDP ; DownPercentWnd::GetThisMessageMap
; Function compile flags: /Odt /RTCsu
_this$ = -4						; size = 4
?GetMessageMap@DownPercentWnd@@MBEPBUAFX_MSGMAP@@XZ PROC NEAR ; DownPercentWnd::GetMessageMap
; _this$ = ecx

; 49   : BEGIN_MESSAGE_MAP(DownPercentWnd, CWnd)

  00350	55		 push	 ebp
  00351	8b ec		 mov	 ebp, esp
  00353	51		 push	 ecx
  00354	c7 45 fc cc cc
	cc cc		 mov	 DWORD PTR [ebp-4], -858993460 ; ccccccccH
  0035b	89 4d fc	 mov	 DWORD PTR _this$[ebp], ecx
  0035e	b8 00 00 00 00	 mov	 eax, OFFSET FLAT:?messageMap@DownPercentWnd@@1UAFX_MSGMAP@@B ; DownPercentWnd::messageMap
  00363	8b e5		 mov	 esp, ebp
  00365	5d		 pop	 ebp
  00366	c3		 ret	 0
?GetMessageMap@DownPercentWnd@@MBEPBUAFX_MSGMAP@@XZ ENDP ; DownPercentWnd::GetMessageMap
_TEXT	ENDS
PUBLIC	??3GdiplusBase@Gdiplus@@SAXPAX@Z		; Gdiplus::GdiplusBase::operator delete
PUBLIC	??2GdiplusBase@Gdiplus@@SAPAXI@Z		; Gdiplus::GdiplusBase::operator new
PUBLIC	?_AtlGetConversionACP@ATL@@YGIXZ		; ATL::_AtlGetConversionACP
PUBLIC	?AtlA2WHelper@@YGPA_WPA_WPBDHI@Z		; AtlA2WHelper
PUBLIC	??0Image@Gdiplus@@QAE@PB_WH@Z			; Gdiplus::Image::Image
EXTRN	__alloca_probe:NEAR
EXTRN	__imp__lstrlenA@4:NEAR
EXTRN	?AfxGetDataManager2@@YAPAVIDataManager@@XZ:NEAR	; AfxGetDataManager2
EXTRN	?AfxGetUIManager@@YAPAVIUIManager@@XZ:NEAR	; AfxGetUIManager
EXTRN	?OnCreate@CWnd@@IAEHPAUtagCREATESTRUCTA@@@Z:NEAR ; CWnd::OnCreate
EXTRN	__imp_?c_str@?$basic_string@DU?$char_traits@D@std@@V?$allocator@D@2@@std@@QBEPBDXZ:NEAR
xdata$x	SEGMENT
$T190581 DD	0ffffffffH
	DD	FLAT:$L190576
$T190578 DD	019930520H
	DD	01H
	DD	FLAT:$T190581
	DD	2 DUP(00H)
	DD	2 DUP(00H)
; Function compile flags: /Odt /RTCsu
xdata$x	ENDS
_TEXT	SEGMENT
tv164 = -72						; size = 4
tv158 = -68						; size = 4
tv162 = -64						; size = 4
tv95 = -60						; size = 4
tv89 = -56						; size = 4
tv75 = -52						; size = 4
tv70 = -48						; size = 4
tv80 = -44						; size = 4
$T190571 = -40						; size = 4
$T190570 = -36						; size = 4
__lpa$188997 = -32					; size = 4
__lpw$188996 = -28					; size = 4
__acp$188995 = -24					; size = 4
__convert$188994 = -20					; size = 4
_this$ = -16						; size = 4
__$EHRec$ = -12						; size = 12
_lpCreateStruct$ = 8					; size = 4
?OnCreate@DownPercentWnd@@QAEHPAUtagCREATESTRUCTA@@@Z PROC NEAR ; DownPercentWnd::OnCreate
; _this$ = ecx

; 58   : {

  00370	55		 push	 ebp
  00371	8b ec		 mov	 ebp, esp
  00373	6a ff		 push	 -1
  00375	68 00 00 00 00	 push	 __ehhandler$?OnCreate@DownPercentWnd@@QAEHPAUtagCREATESTRUCTA@@@Z
  0037a	64 a1 00 00 00
	00		 mov	 eax, DWORD PTR fs:__except_list
  00380	50		 push	 eax
  00381	64 89 25 00 00
	00 00		 mov	 DWORD PTR fs:__except_list, esp
  00388	83 ec 3c	 sub	 esp, 60			; 0000003cH
  0038b	56		 push	 esi
  0038c	57		 push	 edi
  0038d	51		 push	 ecx
  0038e	8d 7d b8	 lea	 edi, DWORD PTR [ebp-72]
  00391	b9 0f 00 00 00	 mov	 ecx, 15			; 0000000fH
  00396	b8 cc cc cc cc	 mov	 eax, -858993460		; ccccccccH
  0039b	f3 ab		 rep stosd
  0039d	59		 pop	 ecx
  0039e	89 4d f0	 mov	 DWORD PTR _this$[ebp], ecx

; 59   : 	if (CWnd::OnCreate(lpCreateStruct) == -1)

  003a1	8b 45 08	 mov	 eax, DWORD PTR _lpCreateStruct$[ebp]
  003a4	50		 push	 eax
  003a5	8b 4d f0	 mov	 ecx, DWORD PTR _this$[ebp]
  003a8	e8 00 00 00 00	 call	 ?OnCreate@CWnd@@IAEHPAUtagCREATESTRUCTA@@@Z ; CWnd::OnCreate
  003ad	83 f8 ff	 cmp	 eax, -1
  003b0	75 08		 jne	 SHORT $L188991

; 60   : 		return -1;

  003b2	83 c8 ff	 or	 eax, -1
  003b5	e9 91 01 00 00	 jmp	 $L188990
$L188991:

; 61   : 	AfxGetUIManager()->UIGetSkinMgr()->AddSkinWnd( this );

  003ba	83 7d f0 00	 cmp	 DWORD PTR _this$[ebp], 0
  003be	74 0b		 je	 SHORT $L190568
  003c0	8b 4d f0	 mov	 ecx, DWORD PTR _this$[ebp]
  003c3	83 c1 54	 add	 ecx, 84			; 00000054H
  003c6	89 4d d4	 mov	 DWORD PTR tv80[ebp], ecx
  003c9	eb 07		 jmp	 SHORT $L190569
$L190568:
  003cb	c7 45 d4 00 00
	00 00		 mov	 DWORD PTR tv80[ebp], 0
$L190569:
  003d2	e8 00 00 00 00	 call	 ?AfxGetUIManager@@YAPAVIUIManager@@XZ ; AfxGetUIManager
  003d7	89 45 d0	 mov	 DWORD PTR tv70[ebp], eax
  003da	8b f4		 mov	 esi, esp
  003dc	8b 55 d0	 mov	 edx, DWORD PTR tv70[ebp]
  003df	8b 02		 mov	 eax, DWORD PTR [edx]
  003e1	8b 4d d0	 mov	 ecx, DWORD PTR tv70[ebp]
  003e4	ff 50 28	 call	 DWORD PTR [eax+40]
  003e7	3b f4		 cmp	 esi, esp
  003e9	e8 00 00 00 00	 call	 __RTC_CheckEsp
  003ee	89 45 cc	 mov	 DWORD PTR tv75[ebp], eax
  003f1	8b f4		 mov	 esi, esp
  003f3	8b 4d d4	 mov	 ecx, DWORD PTR tv80[ebp]
  003f6	51		 push	 ecx
  003f7	8b 55 cc	 mov	 edx, DWORD PTR tv75[ebp]
  003fa	8b 02		 mov	 eax, DWORD PTR [edx]
  003fc	8b 4d cc	 mov	 ecx, DWORD PTR tv75[ebp]
  003ff	ff 50 14	 call	 DWORD PTR [eax+20]
  00402	3b f4		 cmp	 esi, esp
  00404	e8 00 00 00 00	 call	 __RTC_CheckEsp

; 62   : 	LoadSkin();

  00409	8b 4d f0	 mov	 ecx, DWORD PTR _this$[ebp]
  0040c	83 c1 54	 add	 ecx, 84			; 00000054H
  0040f	8b 55 f0	 mov	 edx, DWORD PTR _this$[ebp]
  00412	8b 42 54	 mov	 eax, DWORD PTR [edx+84]
  00415	8b f4		 mov	 esi, esp
  00417	ff 50 04	 call	 DWORD PTR [eax+4]
  0041a	3b f4		 cmp	 esi, esp
  0041c	e8 00 00 00 00	 call	 __RTC_CheckEsp

; 63   : 
; 64   : 	if( GLOBAL_ADDATA->GetLoadingPicAd( m_ad ) )

  00421	e8 00 00 00 00	 call	 ?AfxGetDataManager2@@YAPAVIDataManager@@XZ ; AfxGetDataManager2
  00426	89 45 c8	 mov	 DWORD PTR tv89[ebp], eax
  00429	8b f4		 mov	 esi, esp
  0042b	68 00 00 00 00	 push	 OFFSET FLAT:_ID_DATA_AD
  00430	8b 4d c8	 mov	 ecx, DWORD PTR tv89[ebp]
  00433	8b 11		 mov	 edx, DWORD PTR [ecx]
  00435	8b 4d c8	 mov	 ecx, DWORD PTR tv89[ebp]
  00438	ff 52 0c	 call	 DWORD PTR [edx+12]
  0043b	3b f4		 cmp	 esi, esp
  0043d	e8 00 00 00 00	 call	 __RTC_CheckEsp
  00442	89 45 c4	 mov	 DWORD PTR tv95[ebp], eax
  00445	8b 45 f0	 mov	 eax, DWORD PTR _this$[ebp]
  00448	05 ac 00 00 00	 add	 eax, 172		; 000000acH
  0044d	8b f4		 mov	 esi, esp
  0044f	50		 push	 eax
  00450	8b 4d c4	 mov	 ecx, DWORD PTR tv95[ebp]
  00453	8b 11		 mov	 edx, DWORD PTR [ecx]
  00455	8b 4d c4	 mov	 ecx, DWORD PTR tv95[ebp]
  00458	ff 52 0c	 call	 DWORD PTR [edx+12]
  0045b	3b f4		 cmp	 esi, esp
  0045d	e8 00 00 00 00	 call	 __RTC_CheckEsp
  00462	0f b6 c0	 movzx	 eax, al
  00465	85 c0		 test	 eax, eax
  00467	0f 84 dc 00 00
	00		 je	 $L188993

; 65   : 	{
; 66   : 		USES_CONVERSION;

  0046d	c7 45 ec 00 00
	00 00		 mov	 DWORD PTR __convert$188994[ebp], 0
  00474	e8 00 00 00 00	 call	 ?_AtlGetConversionACP@ATL@@YGIXZ ; ATL::_AtlGetConversionACP
  00479	89 45 e8	 mov	 DWORD PTR __acp$188995[ebp], eax
  0047c	c7 45 e4 00 00
	00 00		 mov	 DWORD PTR __lpw$188996[ebp], 0
  00483	c7 45 e0 00 00
	00 00		 mov	 DWORD PTR __lpa$188997[ebp], 0

; 67   : 		m_pImgAd = new Image( A2W(m_ad.strPicPath.c_str()), FALSE );

  0048a	6a 10		 push	 16			; 00000010H
  0048c	e8 00 00 00 00	 call	 ??2GdiplusBase@Gdiplus@@SAPAXI@Z ; Gdiplus::GdiplusBase::operator new
  00491	83 c4 04	 add	 esp, 4
  00494	89 45 d8	 mov	 DWORD PTR $T190571[ebp], eax
  00497	c7 45 fc 00 00
	00 00		 mov	 DWORD PTR __$EHRec$[ebp+8], 0
  0049e	83 7d d8 00	 cmp	 DWORD PTR $T190571[ebp], 0
  004a2	0f 84 81 00 00
	00		 je	 $L190574
  004a8	8b 4d f0	 mov	 ecx, DWORD PTR _this$[ebp]
  004ab	81 c1 c8 00 00
	00		 add	 ecx, 200		; 000000c8H
  004b1	8b f4		 mov	 esi, esp
  004b3	ff 15 00 00 00
	00		 call	 DWORD PTR __imp_?c_str@?$basic_string@DU?$char_traits@D@std@@V?$allocator@D@2@@std@@QBEPBDXZ
  004b9	3b f4		 cmp	 esi, esp
  004bb	e8 00 00 00 00	 call	 __RTC_CheckEsp
  004c0	89 45 e0	 mov	 DWORD PTR __lpa$188997[ebp], eax
  004c3	83 7d e0 00	 cmp	 DWORD PTR __lpa$188997[ebp], 0
  004c7	75 09		 jne	 SHORT $L190572
  004c9	c7 45 c0 00 00
	00 00		 mov	 DWORD PTR tv162[ebp], 0
  004d0	eb 44		 jmp	 SHORT $L190573
$L190572:
  004d2	8b f4		 mov	 esi, esp
  004d4	8b 4d e0	 mov	 ecx, DWORD PTR __lpa$188997[ebp]
  004d7	51		 push	 ecx
  004d8	ff 15 00 00 00
	00		 call	 DWORD PTR __imp__lstrlenA@4
  004de	3b f4		 cmp	 esi, esp
  004e0	e8 00 00 00 00	 call	 __RTC_CheckEsp
  004e5	83 c0 01	 add	 eax, 1
  004e8	89 45 ec	 mov	 DWORD PTR __convert$188994[ebp], eax
  004eb	8b 45 ec	 mov	 eax, DWORD PTR __convert$188994[ebp]
  004ee	d1 e0		 shl	 eax, 1
  004f0	83 c0 03	 add	 eax, 3
  004f3	83 e0 fc	 and	 eax, -4			; fffffffcH
  004f6	e8 00 00 00 00	 call	 __alloca_probe
  004fb	89 65 bc	 mov	 DWORD PTR tv158[ebp], esp
  004fe	8b 55 e8	 mov	 edx, DWORD PTR __acp$188995[ebp]
  00501	52		 push	 edx
  00502	8b 45 ec	 mov	 eax, DWORD PTR __convert$188994[ebp]
  00505	50		 push	 eax
  00506	8b 4d e0	 mov	 ecx, DWORD PTR __lpa$188997[ebp]
  00509	51		 push	 ecx
  0050a	8b 55 bc	 mov	 edx, DWORD PTR tv158[ebp]
  0050d	52		 push	 edx
  0050e	e8 00 00 00 00	 call	 ?AtlA2WHelper@@YGPA_WPA_WPBDHI@Z ; AtlA2WHelper
  00513	89 45 c0	 mov	 DWORD PTR tv162[ebp], eax
$L190573:
  00516	6a 00		 push	 0
  00518	8b 45 c0	 mov	 eax, DWORD PTR tv162[ebp]
  0051b	50		 push	 eax
  0051c	8b 4d d8	 mov	 ecx, DWORD PTR $T190571[ebp]
  0051f	e8 00 00 00 00	 call	 ??0Image@Gdiplus@@QAE@PB_WH@Z ; Gdiplus::Image::Image
  00524	89 45 b8	 mov	 DWORD PTR tv164[ebp], eax
  00527	eb 07		 jmp	 SHORT $L190575
$L190574:
  00529	c7 45 b8 00 00
	00 00		 mov	 DWORD PTR tv164[ebp], 0
$L190575:
  00530	8b 4d b8	 mov	 ecx, DWORD PTR tv164[ebp]
  00533	89 4d dc	 mov	 DWORD PTR $T190570[ebp], ecx
  00536	c7 45 fc ff ff
	ff ff		 mov	 DWORD PTR __$EHRec$[ebp+8], -1
  0053d	8b 55 f0	 mov	 edx, DWORD PTR _this$[ebp]
  00540	8b 45 dc	 mov	 eax, DWORD PTR $T190570[ebp]
  00543	89 82 98 00 00
	00		 mov	 DWORD PTR [edx+152], eax
$L188993:

; 68   : 	}
; 69   : 	return 0;

  00549	33 c0		 xor	 eax, eax
$L188990:

; 70   : }

  0054b	8d 65 b0	 lea	 esp, DWORD PTR [ebp-80]
  0054e	8b 4d f4	 mov	 ecx, DWORD PTR __$EHRec$[ebp]
  00551	64 89 0d 00 00
	00 00		 mov	 DWORD PTR fs:__except_list, ecx
  00558	5f		 pop	 edi
  00559	5e		 pop	 esi
  0055a	8b e5		 mov	 esp, ebp
  0055c	5d		 pop	 ebp
  0055d	c2 04 00	 ret	 4
_TEXT	ENDS
text$x	SEGMENT
$L190576:
  0009e	8b 45 d8	 mov	 eax, DWORD PTR $T190571[ebp]
  000a1	50		 push	 eax
  000a2	e8 00 00 00 00	 call	 ??3GdiplusBase@Gdiplus@@SAXPAX@Z ; Gdiplus::GdiplusBase::operator delete
  000a7	59		 pop	 ecx
  000a8	c3		 ret	 0
__ehhandler$?OnCreate@DownPercentWnd@@QAEHPAUtagCREATESTRUCTA@@@Z:
  000a9	b8 00 00 00 00	 mov	 eax, OFFSET FLAT:$T190578
  000ae	e9 00 00 00 00	 jmp	 ___CxxFrameHandler
text$x	ENDS
?OnCreate@DownPercentWnd@@QAEHPAUtagCREATESTRUCTA@@@Z ENDP ; DownPercentWnd::OnCreate
PUBLIC	?DrawProgress@DownPercentWnd@@AAEXPAVCDC@@VCRect@@@Z ; DownPercentWnd::DrawProgress
PUBLIC	?DrawInfoText@DownPercentWnd@@AAEXPAVCDC@@VCRect@@@Z ; DownPercentWnd::DrawInfoText
PUBLIC	?DrawAd@DownPercentWnd@@AAEXPAVCDC@@VCRect@@@Z	; DownPercentWnd::DrawAd
EXTRN	?BitBlt@CDC@@QAEHHHHHPAV1@HHK@Z:NEAR		; CDC::BitBlt
EXTRN	?FillSolidRect@CDC@@QAEXPBUtagRECT@@K@Z:NEAR	; CDC::FillSolidRect
EXTRN	??1CDC@@UAE@XZ:NEAR				; CDC::~CDC
EXTRN	??0CPaintDC@@QAE@PAVCWnd@@@Z:NEAR		; CPaintDC::CPaintDC
EXTRN	??1CPaintDC@@UAE@XZ:NEAR			; CPaintDC::~CPaintDC
EXTRN	??0CBitmap@@QAE@XZ:NEAR				; CBitmap::CBitmap
EXTRN	?Width@CRect@@QBEHXZ:NEAR			; CRect::Width
EXTRN	?Height@CRect@@QBEHXZ:NEAR			; CRect::Height
EXTRN	?CreateCompatibleBitmap@CBitmap@@QAEHPAVCDC@@HH@Z:NEAR ; CBitmap::CreateCompatibleBitmap
EXTRN	??1CBitmap@@UAE@XZ:NEAR				; CBitmap::~CBitmap
EXTRN	?GetClientRect@CWnd@@QBEXPAUtagRECT@@@Z:NEAR	; CWnd::GetClientRect
EXTRN	??0CDC@@QAE@XZ:NEAR				; CDC::CDC
EXTRN	?CreateCompatibleDC@CDC@@QAEHPAV1@@Z:NEAR	; CDC::CreateCompatibleDC
EXTRN	?DeleteDC@CDC@@QAEHXZ:NEAR			; CDC::DeleteDC
EXTRN	?SaveDC@CDC@@UAEHXZ:NEAR			; CDC::SaveDC
EXTRN	?RestoreDC@CDC@@UAEHH@Z:NEAR			; CDC::RestoreDC
EXTRN	?SelectObject@CDC@@UAEPAVCFont@@PAV2@@Z:NEAR	; CDC::SelectObject
EXTRN	?SelectObject@CDC@@QAEPAVCBitmap@@PAV2@@Z:NEAR	; CDC::SelectObject
EXTRN	?SetBkMode@CDC@@QAEHH@Z:NEAR			; CDC::SetBkMode
EXTRN	?SetTextColor@CDC@@UAEKK@Z:NEAR			; CDC::SetTextColor
xdata$x	SEGMENT
$T190597 DD	0ffffffffH
	DD	FLAT:$L190584
	DD	00H
	DD	FLAT:$L190585
	DD	01H
	DD	FLAT:$L190586
$T190588 DD	019930520H
	DD	03H
	DD	FLAT:$T190597
	DD	2 DUP(00H)
	DD	2 DUP(00H)
; Function compile flags: /Odt /RTCsu
xdata$x	ENDS
_TEXT	SEGMENT
_iSaveDc$ = -180					; size = 4
_MemBitmap2$ = -172					; size = 8
_MemDC2$ = -156						; size = 16
_rect$ = -132						; size = 16
_dc$ = -108						; size = 84
_this$ = -20						; size = 4
__$ArrayPad$ = -16					; size = 4
__$EHRec$ = -12						; size = 12
__$ReturnAddr$ = 4					; size = 4
?OnPaint@DownPercentWnd@@QAEXXZ PROC NEAR		; DownPercentWnd::OnPaint
; _this$ = ecx

; 73   : {

  00560	55		 push	 ebp
  00561	8b ec		 mov	 ebp, esp
  00563	6a ff		 push	 -1
  00565	68 00 00 00 00	 push	 __ehhandler$?OnPaint@DownPercentWnd@@QAEXXZ
  0056a	64 a1 00 00 00
	00		 mov	 eax, DWORD PTR fs:__except_list
  00570	50		 push	 eax
  00571	64 89 25 00 00
	00 00		 mov	 DWORD PTR fs:__except_list, esp
  00578	81 ec a8 00 00
	00		 sub	 esp, 168		; 000000a8H
  0057e	57		 push	 edi
  0057f	51		 push	 ecx
  00580	8d bd 4c ff ff
	ff		 lea	 edi, DWORD PTR [ebp-180]
  00586	b9 2a 00 00 00	 mov	 ecx, 42			; 0000002aH
  0058b	b8 cc cc cc cc	 mov	 eax, -858993460		; ccccccccH
  00590	f3 ab		 rep stosd
  00592	59		 pop	 ecx
  00593	a1 00 00 00 00	 mov	 eax, DWORD PTR ___security_cookie
  00598	89 45 f0	 mov	 DWORD PTR __$ArrayPad$[ebp], eax
  0059b	89 4d ec	 mov	 DWORD PTR _this$[ebp], ecx

; 74   : 	CPaintDC dc(this);

  0059e	8b 45 ec	 mov	 eax, DWORD PTR _this$[ebp]
  005a1	50		 push	 eax
  005a2	8d 4d 94	 lea	 ecx, DWORD PTR _dc$[ebp]
  005a5	e8 00 00 00 00	 call	 ??0CPaintDC@@QAE@PAVCWnd@@@Z ; CPaintDC::CPaintDC
  005aa	c7 45 fc 00 00
	00 00		 mov	 DWORD PTR __$EHRec$[ebp+8], 0

; 75   : 	//
; 76   : 	CRect rect;

  005b1	8d 8d 7c ff ff
	ff		 lea	 ecx, DWORD PTR _rect$[ebp]
  005b7	e8 00 00 00 00	 call	 ??0CRect@@QAE@XZ	; CRect::CRect

; 77   : 	GetClientRect( &rect );

  005bc	8d 8d 7c ff ff
	ff		 lea	 ecx, DWORD PTR _rect$[ebp]
  005c2	51		 push	 ecx
  005c3	8b 4d ec	 mov	 ecx, DWORD PTR _this$[ebp]
  005c6	e8 00 00 00 00	 call	 ?GetClientRect@CWnd@@QBEXPAUtagRECT@@@Z ; CWnd::GetClientRect

; 78   : 
; 79   : 	CDC MemDC2;

  005cb	8d 8d 64 ff ff
	ff		 lea	 ecx, DWORD PTR _MemDC2$[ebp]
  005d1	e8 00 00 00 00	 call	 ??0CDC@@QAE@XZ		; CDC::CDC
  005d6	c6 45 fc 01	 mov	 BYTE PTR __$EHRec$[ebp+8], 1

; 80   : 	CBitmap MemBitmap2;

  005da	8d 8d 54 ff ff
	ff		 lea	 ecx, DWORD PTR _MemBitmap2$[ebp]
  005e0	e8 00 00 00 00	 call	 ??0CBitmap@@QAE@XZ	; CBitmap::CBitmap
  005e5	c6 45 fc 02	 mov	 BYTE PTR __$EHRec$[ebp+8], 2

; 81   : 
; 82   : 	MemDC2.CreateCompatibleDC( &dc ); 

  005e9	8d 55 94	 lea	 edx, DWORD PTR _dc$[ebp]
  005ec	52		 push	 edx
  005ed	8d 8d 64 ff ff
	ff		 lea	 ecx, DWORD PTR _MemDC2$[ebp]
  005f3	e8 00 00 00 00	 call	 ?CreateCompatibleDC@CDC@@QAEHPAV1@@Z ; CDC::CreateCompatibleDC

; 83   : 	int iSaveDc = MemDC2.SaveDC();

  005f8	8d 8d 64 ff ff
	ff		 lea	 ecx, DWORD PTR _MemDC2$[ebp]
  005fe	e8 00 00 00 00	 call	 ?SaveDC@CDC@@UAEHXZ	; CDC::SaveDC
  00603	89 85 4c ff ff
	ff		 mov	 DWORD PTR _iSaveDc$[ebp], eax

; 84   : 
; 85   : 	MemDC2.SelectObject(&m_font);	

  00609	8b 45 ec	 mov	 eax, DWORD PTR _this$[ebp]
  0060c	83 c0 68	 add	 eax, 104		; 00000068H
  0060f	50		 push	 eax
  00610	8d 8d 64 ff ff
	ff		 lea	 ecx, DWORD PTR _MemDC2$[ebp]
  00616	e8 00 00 00 00	 call	 ?SelectObject@CDC@@UAEPAVCFont@@PAV2@@Z ; CDC::SelectObject

; 86   : 	MemDC2.SetTextColor(m_colText);

  0061b	8b 4d ec	 mov	 ecx, DWORD PTR _this$[ebp]
  0061e	8b 91 84 00 00
	00		 mov	 edx, DWORD PTR [ecx+132]
  00624	52		 push	 edx
  00625	8d 8d 64 ff ff
	ff		 lea	 ecx, DWORD PTR _MemDC2$[ebp]
  0062b	e8 00 00 00 00	 call	 ?SetTextColor@CDC@@UAEKK@Z ; CDC::SetTextColor

; 87   : 	MemBitmap2.CreateCompatibleBitmap( &dc, rect.Width(), rect.Height() );//info1size

  00630	8d 8d 7c ff ff
	ff		 lea	 ecx, DWORD PTR _rect$[ebp]
  00636	e8 00 00 00 00	 call	 ?Height@CRect@@QBEHXZ	; CRect::Height
  0063b	50		 push	 eax
  0063c	8d 8d 7c ff ff
	ff		 lea	 ecx, DWORD PTR _rect$[ebp]
  00642	e8 00 00 00 00	 call	 ?Width@CRect@@QBEHXZ	; CRect::Width
  00647	50		 push	 eax
  00648	8d 45 94	 lea	 eax, DWORD PTR _dc$[ebp]
  0064b	50		 push	 eax
  0064c	8d 8d 54 ff ff
	ff		 lea	 ecx, DWORD PTR _MemBitmap2$[ebp]
  00652	e8 00 00 00 00	 call	 ?CreateCompatibleBitmap@CBitmap@@QAEHPAVCDC@@HH@Z ; CBitmap::CreateCompatibleBitmap

; 88   : 	MemDC2.SelectObject(&MemBitmap2);

  00657	8d 8d 54 ff ff
	ff		 lea	 ecx, DWORD PTR _MemBitmap2$[ebp]
  0065d	51		 push	 ecx
  0065e	8d 8d 64 ff ff
	ff		 lea	 ecx, DWORD PTR _MemDC2$[ebp]
  00664	e8 00 00 00 00	 call	 ?SelectObject@CDC@@QAEPAVCBitmap@@PAV2@@Z ; CDC::SelectObject

; 89   : 	MemDC2.SetBkMode(TRANSPARENT);

  00669	6a 01		 push	 1
  0066b	8d 8d 64 ff ff
	ff		 lea	 ecx, DWORD PTR _MemDC2$[ebp]
  00671	e8 00 00 00 00	 call	 ?SetBkMode@CDC@@QAEHH@Z	; CDC::SetBkMode

; 90   : 	//////DC-begin
; 91   : 	//1
; 92   : 	MemDC2.FillSolidRect( &rect, m_colBk );

  00676	8b 55 ec	 mov	 edx, DWORD PTR _this$[ebp]
  00679	8b 82 80 00 00
	00		 mov	 eax, DWORD PTR [edx+128]
  0067f	50		 push	 eax
  00680	8d 8d 7c ff ff
	ff		 lea	 ecx, DWORD PTR _rect$[ebp]
  00686	51		 push	 ecx
  00687	8d 8d 64 ff ff
	ff		 lea	 ecx, DWORD PTR _MemDC2$[ebp]
  0068d	e8 00 00 00 00	 call	 ?FillSolidRect@CDC@@QAEXPBUtagRECT@@K@Z ; CDC::FillSolidRect

; 93   : 	//2
; 94   : 	DrawProgress( &MemDC2, rect );

  00692	83 ec 10	 sub	 esp, 16			; 00000010H
  00695	8b d4		 mov	 edx, esp
  00697	8b 85 7c ff ff
	ff		 mov	 eax, DWORD PTR _rect$[ebp]
  0069d	89 02		 mov	 DWORD PTR [edx], eax
  0069f	8b 4d 80	 mov	 ecx, DWORD PTR _rect$[ebp+4]
  006a2	89 4a 04	 mov	 DWORD PTR [edx+4], ecx
  006a5	8b 45 84	 mov	 eax, DWORD PTR _rect$[ebp+8]
  006a8	89 42 08	 mov	 DWORD PTR [edx+8], eax
  006ab	8b 4d 88	 mov	 ecx, DWORD PTR _rect$[ebp+12]
  006ae	89 4a 0c	 mov	 DWORD PTR [edx+12], ecx
  006b1	8d 95 64 ff ff
	ff		 lea	 edx, DWORD PTR _MemDC2$[ebp]
  006b7	52		 push	 edx
  006b8	8b 4d ec	 mov	 ecx, DWORD PTR _this$[ebp]
  006bb	e8 00 00 00 00	 call	 ?DrawProgress@DownPercentWnd@@AAEXPAVCDC@@VCRect@@@Z ; DownPercentWnd::DrawProgress

; 95   : 	//3
; 96   : 	DrawInfoText( &MemDC2, rect );

  006c0	83 ec 10	 sub	 esp, 16			; 00000010H
  006c3	8b c4		 mov	 eax, esp
  006c5	8b 8d 7c ff ff
	ff		 mov	 ecx, DWORD PTR _rect$[ebp]
  006cb	89 08		 mov	 DWORD PTR [eax], ecx
  006cd	8b 55 80	 mov	 edx, DWORD PTR _rect$[ebp+4]
  006d0	89 50 04	 mov	 DWORD PTR [eax+4], edx
  006d3	8b 4d 84	 mov	 ecx, DWORD PTR _rect$[ebp+8]
  006d6	89 48 08	 mov	 DWORD PTR [eax+8], ecx
  006d9	8b 55 88	 mov	 edx, DWORD PTR _rect$[ebp+12]
  006dc	89 50 0c	 mov	 DWORD PTR [eax+12], edx
  006df	8d 85 64 ff ff
	ff		 lea	 eax, DWORD PTR _MemDC2$[ebp]
  006e5	50		 push	 eax
  006e6	8b 4d ec	 mov	 ecx, DWORD PTR _this$[ebp]
  006e9	e8 00 00 00 00	 call	 ?DrawInfoText@DownPercentWnd@@AAEXPAVCDC@@VCRect@@@Z ; DownPercentWnd::DrawInfoText

; 97   : 	//4
; 98   : 	DrawAd( &MemDC2, rect );

  006ee	83 ec 10	 sub	 esp, 16			; 00000010H
  006f1	8b cc		 mov	 ecx, esp
  006f3	8b 95 7c ff ff
	ff		 mov	 edx, DWORD PTR _rect$[ebp]
  006f9	89 11		 mov	 DWORD PTR [ecx], edx
  006fb	8b 45 80	 mov	 eax, DWORD PTR _rect$[ebp+4]
  006fe	89 41 04	 mov	 DWORD PTR [ecx+4], eax
  00701	8b 55 84	 mov	 edx, DWORD PTR _rect$[ebp+8]
  00704	89 51 08	 mov	 DWORD PTR [ecx+8], edx
  00707	8b 45 88	 mov	 eax, DWORD PTR _rect$[ebp+12]
  0070a	89 41 0c	 mov	 DWORD PTR [ecx+12], eax
  0070d	8d 8d 64 ff ff
	ff		 lea	 ecx, DWORD PTR _MemDC2$[ebp]
  00713	51		 push	 ecx
  00714	8b 4d ec	 mov	 ecx, DWORD PTR _this$[ebp]
  00717	e8 00 00 00 00	 call	 ?DrawAd@DownPercentWnd@@AAEXPAVCDC@@VCRect@@@Z ; DownPercentWnd::DrawAd

; 99   : 	//////DC-end
; 100  : 	dc.BitBlt( 0, 0, rect.Width(), rect.Height(), &MemDC2, 0, 0, SRCCOPY );

  0071c	68 20 00 cc 00	 push	 13369376		; 00cc0020H
  00721	6a 00		 push	 0
  00723	6a 00		 push	 0
  00725	8d 95 64 ff ff
	ff		 lea	 edx, DWORD PTR _MemDC2$[ebp]
  0072b	52		 push	 edx
  0072c	8d 8d 7c ff ff
	ff		 lea	 ecx, DWORD PTR _rect$[ebp]
  00732	e8 00 00 00 00	 call	 ?Height@CRect@@QBEHXZ	; CRect::Height
  00737	50		 push	 eax
  00738	8d 8d 7c ff ff
	ff		 lea	 ecx, DWORD PTR _rect$[ebp]
  0073e	e8 00 00 00 00	 call	 ?Width@CRect@@QBEHXZ	; CRect::Width
  00743	50		 push	 eax
  00744	6a 00		 push	 0
  00746	6a 00		 push	 0
  00748	8d 4d 94	 lea	 ecx, DWORD PTR _dc$[ebp]
  0074b	e8 00 00 00 00	 call	 ?BitBlt@CDC@@QAEHHHHHPAV1@HHK@Z ; CDC::BitBlt

; 101  : 	MemDC2.RestoreDC(iSaveDc);

  00750	8b 85 4c ff ff
	ff		 mov	 eax, DWORD PTR _iSaveDc$[ebp]
  00756	50		 push	 eax
  00757	8d 8d 64 ff ff
	ff		 lea	 ecx, DWORD PTR _MemDC2$[ebp]
  0075d	e8 00 00 00 00	 call	 ?RestoreDC@CDC@@UAEHH@Z	; CDC::RestoreDC

; 102  : 	MemDC2.DeleteDC();	

  00762	8d 8d 64 ff ff
	ff		 lea	 ecx, DWORD PTR _MemDC2$[ebp]
  00768	e8 00 00 00 00	 call	 ?DeleteDC@CDC@@QAEHXZ	; CDC::DeleteDC

; 103  : 	MemBitmap2.DeleteObject();

  0076d	8d 8d 54 ff ff
	ff		 lea	 ecx, DWORD PTR _MemBitmap2$[ebp]
  00773	e8 00 00 00 00	 call	 ?DeleteObject@CGdiObject@@QAEHXZ ; CGdiObject::DeleteObject

; 104  : }

  00778	c6 45 fc 01	 mov	 BYTE PTR __$EHRec$[ebp+8], 1
  0077c	8d 8d 54 ff ff
	ff		 lea	 ecx, DWORD PTR _MemBitmap2$[ebp]
  00782	e8 00 00 00 00	 call	 ??1CBitmap@@UAE@XZ	; CBitmap::~CBitmap
  00787	c6 45 fc 00	 mov	 BYTE PTR __$EHRec$[ebp+8], 0
  0078b	8d 8d 64 ff ff
	ff		 lea	 ecx, DWORD PTR _MemDC2$[ebp]
  00791	e8 00 00 00 00	 call	 ??1CDC@@UAE@XZ		; CDC::~CDC
  00796	c7 45 fc ff ff
	ff ff		 mov	 DWORD PTR __$EHRec$[ebp+8], -1
  0079d	8d 4d 94	 lea	 ecx, DWORD PTR _dc$[ebp]
  007a0	e8 00 00 00 00	 call	 ??1CPaintDC@@UAE@XZ	; CPaintDC::~CPaintDC
  007a5	52		 push	 edx
  007a6	8b cd		 mov	 ecx, ebp
  007a8	50		 push	 eax
  007a9	8d 15 00 00 00
	00		 lea	 edx, DWORD PTR $L190596
  007af	e8 00 00 00 00	 call	 @_RTC_CheckStackVars@8
  007b4	58		 pop	 eax
  007b5	5a		 pop	 edx
  007b6	8b 4d f4	 mov	 ecx, DWORD PTR __$EHRec$[ebp]
  007b9	64 89 0d 00 00
	00 00		 mov	 DWORD PTR fs:__except_list, ecx
  007c0	8b 4d f0	 mov	 ecx, DWORD PTR __$ArrayPad$[ebp]
  007c3	e8 00 00 00 00	 call	 @__security_check_cookie@4
  007c8	5f		 pop	 edi
  007c9	81 c4 b4 00 00
	00		 add	 esp, 180		; 000000b4H
  007cf	3b ec		 cmp	 ebp, esp
  007d1	e8 00 00 00 00	 call	 __RTC_CheckEsp
  007d6	8b e5		 mov	 esp, ebp
  007d8	5d		 pop	 ebp
  007d9	c3		 ret	 0
$L190596:
  007da	04 00 00 00	 DD	 4
  007de	00 00 00 00	 DD	 $L190595
$L190595:
  007e2	94 ff ff ff	 DD	 -108			; ffffff94H
  007e6	54 00 00 00	 DD	 84			; 00000054H
  007ea	00 00 00 00	 DD	 $L190589
  007ee	7c ff ff ff	 DD	 -132			; ffffff7cH
  007f2	10 00 00 00	 DD	 16			; 00000010H
  007f6	00 00 00 00	 DD	 $L190590
  007fa	64 ff ff ff	 DD	 -156			; ffffff64H
  007fe	10 00 00 00	 DD	 16			; 00000010H
  00802	00 00 00 00	 DD	 $L190591
  00806	54 ff ff ff	 DD	 -172			; ffffff54H
  0080a	08 00 00 00	 DD	 8
  0080e	00 00 00 00	 DD	 $L190592
$L190592:
  00812	4d		 DB	 77			; 0000004dH
  00813	65		 DB	 101			; 00000065H
  00814	6d		 DB	 109			; 0000006dH
  00815	42		 DB	 66			; 00000042H
  00816	69		 DB	 105			; 00000069H
  00817	74		 DB	 116			; 00000074H
  00818	6d		 DB	 109			; 0000006dH
  00819	61		 DB	 97			; 00000061H
  0081a	70		 DB	 112			; 00000070H
  0081b	32		 DB	 50			; 00000032H
  0081c	00		 DB	 0
$L190591:
  0081d	4d		 DB	 77			; 0000004dH
  0081e	65		 DB	 101			; 00000065H
  0081f	6d		 DB	 109			; 0000006dH
  00820	44		 DB	 68			; 00000044H
  00821	43		 DB	 67			; 00000043H
  00822	32		 DB	 50			; 00000032H
  00823	00		 DB	 0
$L190590:
  00824	72		 DB	 114			; 00000072H
  00825	65		 DB	 101			; 00000065H
  00826	63		 DB	 99			; 00000063H
  00827	74		 DB	 116			; 00000074H
  00828	00		 DB	 0
$L190589:
  00829	64		 DB	 100			; 00000064H
  0082a	63		 DB	 99			; 00000063H
  0082b	00		 DB	 0
_TEXT	ENDS
text$x	SEGMENT
$L190584:
  000b3	8d 4d 94	 lea	 ecx, DWORD PTR _dc$[ebp]
  000b6	e9 00 00 00 00	 jmp	 ??1CPaintDC@@UAE@XZ	; CPaintDC::~CPaintDC
$L190585:
  000bb	8d 8d 64 ff ff
	ff		 lea	 ecx, DWORD PTR _MemDC2$[ebp]
  000c1	e9 00 00 00 00	 jmp	 ??1CDC@@UAE@XZ		; CDC::~CDC
$L190586:
  000c6	8d 8d 54 ff ff
	ff		 lea	 ecx, DWORD PTR _MemBitmap2$[ebp]
  000cc	e9 00 00 00 00	 jmp	 ??1CBitmap@@UAE@XZ	; CBitmap::~CBitmap
__ehhandler$?OnPaint@DownPercentWnd@@QAEXXZ:
  000d1	b8 00 00 00 00	 mov	 eax, OFFSET FLAT:$T190588
  000d6	e9 00 00 00 00	 jmp	 ___CxxFrameHandler
text$x	ENDS
?OnPaint@DownPercentWnd@@QAEXXZ ENDP			; DownPercentWnd::OnPaint
EXTRN	__ftol2:NEAR
EXTRN	?CenterPoint@CRect@@QBE?AVCPoint@@XZ:NEAR	; CRect::CenterPoint
EXTRN	?Draw@CDibBitmap@@QAEHPAVCDC@@HKH@Z:NEAR	; CDibBitmap::Draw
EXTRN	?SetCDibRect@CDibBitmap@@QAEXVCRect@@@Z:NEAR	; CDibBitmap::SetCDibRect
EXTRN	?GetWidth@CDibBitmap@@QAEHXZ:NEAR		; CDibBitmap::GetWidth
EXTRN	?GetHeight@CDibBitmap@@QAEHXZ:NEAR		; CDibBitmap::GetHeight
EXTRN	?DeflateRect@CRect@@QAEXHHHH@Z:NEAR		; CRect::DeflateRect
; Function compile flags: /Odt /RTCsu
_TEXT	SEGMENT
tv309 = -168						; size = 4
_rcM$ = -160						; size = 16
_rcProgressBar$ = -136					; size = 16
_rcBgM$ = -112						; size = 16
_rcBgR$ = -88						; size = 16
_rcBgL$ = -64						; size = 16
_rcProgressBarBg$ = -40					; size = 16
_ptCenter$ = -16					; size = 8
_this$ = -4						; size = 4
_pDc$ = 8						; size = 4
_rc$ = 12						; size = 16
?DrawProgress@DownPercentWnd@@AAEXPAVCDC@@VCRect@@@Z PROC NEAR ; DownPercentWnd::DrawProgress
; _this$ = ecx

; 107  : {

  00830	55		 push	 ebp
  00831	8b ec		 mov	 ebp, esp
  00833	81 ec a8 00 00
	00		 sub	 esp, 168		; 000000a8H
  00839	57		 push	 edi
  0083a	51		 push	 ecx
  0083b	8d bd 58 ff ff
	ff		 lea	 edi, DWORD PTR [ebp-168]
  00841	b9 2a 00 00 00	 mov	 ecx, 42			; 0000002aH
  00846	b8 cc cc cc cc	 mov	 eax, -858993460		; ccccccccH
  0084b	f3 ab		 rep stosd
  0084d	59		 pop	 ecx
  0084e	89 4d fc	 mov	 DWORD PTR _this$[ebp], ecx

; 108  : 	if( m_pBmpBgL == NULL || m_pBmpBgM == NULL 
; 109  : 		|| m_pBmpBgR == NULL || m_pBmpM == NULL )

  00851	8b 45 fc	 mov	 eax, DWORD PTR _this$[ebp]
  00854	83 b8 88 00 00
	00 00		 cmp	 DWORD PTR [eax+136], 0
  0085b	74 24		 je	 SHORT $L189018
  0085d	8b 4d fc	 mov	 ecx, DWORD PTR _this$[ebp]
  00860	83 b9 8c 00 00
	00 00		 cmp	 DWORD PTR [ecx+140], 0
  00867	74 18		 je	 SHORT $L189018
  00869	8b 55 fc	 mov	 edx, DWORD PTR _this$[ebp]
  0086c	83 ba 90 00 00
	00 00		 cmp	 DWORD PTR [edx+144], 0
  00873	74 0c		 je	 SHORT $L189018
  00875	8b 45 fc	 mov	 eax, DWORD PTR _this$[ebp]
  00878	83 b8 94 00 00
	00 00		 cmp	 DWORD PTR [eax+148], 0
  0087f	75 05		 jne	 SHORT $L189017
$L189018:

; 110  : 	{
; 111  : 		return;

  00881	e9 79 02 00 00	 jmp	 $L189016
$L189017:

; 112  : 	}
; 113  : 	//30
; 114  : 	CPoint ptCenter = rc.CenterPoint();

  00886	8d 4d f0	 lea	 ecx, DWORD PTR _ptCenter$[ebp]
  00889	51		 push	 ecx
  0088a	8d 4d 0c	 lea	 ecx, DWORD PTR _rc$[ebp]
  0088d	e8 00 00 00 00	 call	 ?CenterPoint@CRect@@QBE?AVCPoint@@XZ ; CRect::CenterPoint

; 115  : 	CRect rcProgressBarBg( rc );

  00892	8b 55 0c	 mov	 edx, DWORD PTR _rc$[ebp]
  00895	89 55 d8	 mov	 DWORD PTR _rcProgressBarBg$[ebp], edx
  00898	8b 45 10	 mov	 eax, DWORD PTR _rc$[ebp+4]
  0089b	89 45 dc	 mov	 DWORD PTR _rcProgressBarBg$[ebp+4], eax
  0089e	8b 4d 14	 mov	 ecx, DWORD PTR _rc$[ebp+8]
  008a1	89 4d e0	 mov	 DWORD PTR _rcProgressBarBg$[ebp+8], ecx
  008a4	8b 55 18	 mov	 edx, DWORD PTR _rc$[ebp+12]
  008a7	89 55 e4	 mov	 DWORD PTR _rcProgressBarBg$[ebp+12], edx

; 116  : 	rcProgressBarBg.left += 30;

  008aa	8b 45 d8	 mov	 eax, DWORD PTR _rcProgressBarBg$[ebp]
  008ad	83 c0 1e	 add	 eax, 30			; 0000001eH
  008b0	89 45 d8	 mov	 DWORD PTR _rcProgressBarBg$[ebp], eax

; 117  : 	rcProgressBarBg.right -= 30;

  008b3	8b 4d e0	 mov	 ecx, DWORD PTR _rcProgressBarBg$[ebp+8]
  008b6	83 e9 1e	 sub	 ecx, 30			; 0000001eH
  008b9	89 4d e0	 mov	 DWORD PTR _rcProgressBarBg$[ebp+8], ecx

; 118  : 	rcProgressBarBg.bottom = ptCenter.y + 30;

  008bc	8b 55 f4	 mov	 edx, DWORD PTR _ptCenter$[ebp+4]
  008bf	83 c2 1e	 add	 edx, 30			; 0000001eH
  008c2	89 55 e4	 mov	 DWORD PTR _rcProgressBarBg$[ebp+12], edx

; 119  : 	rcProgressBarBg.top = rcProgressBarBg.bottom - m_pBmpBgL->GetHeight();

  008c5	8b 45 fc	 mov	 eax, DWORD PTR _this$[ebp]
  008c8	8b 88 88 00 00
	00		 mov	 ecx, DWORD PTR [eax+136]
  008ce	e8 00 00 00 00	 call	 ?GetHeight@CDibBitmap@@QAEHXZ ; CDibBitmap::GetHeight
  008d3	8b 4d e4	 mov	 ecx, DWORD PTR _rcProgressBarBg$[ebp+12]
  008d6	2b c8		 sub	 ecx, eax
  008d8	89 4d dc	 mov	 DWORD PTR _rcProgressBarBg$[ebp+4], ecx

; 120  : 	//
; 121  : 	//
; 122  : 	CRect rcBgL( rcProgressBarBg );

  008db	8b 55 d8	 mov	 edx, DWORD PTR _rcProgressBarBg$[ebp]
  008de	89 55 c0	 mov	 DWORD PTR _rcBgL$[ebp], edx
  008e1	8b 45 dc	 mov	 eax, DWORD PTR _rcProgressBarBg$[ebp+4]
  008e4	89 45 c4	 mov	 DWORD PTR _rcBgL$[ebp+4], eax
  008e7	8b 4d e0	 mov	 ecx, DWORD PTR _rcProgressBarBg$[ebp+8]
  008ea	89 4d c8	 mov	 DWORD PTR _rcBgL$[ebp+8], ecx
  008ed	8b 55 e4	 mov	 edx, DWORD PTR _rcProgressBarBg$[ebp+12]
  008f0	89 55 cc	 mov	 DWORD PTR _rcBgL$[ebp+12], edx

; 123  : 	rcBgL.right = rcBgL.left + m_pBmpBgL->GetWidth();

  008f3	8b 45 fc	 mov	 eax, DWORD PTR _this$[ebp]
  008f6	8b 88 88 00 00
	00		 mov	 ecx, DWORD PTR [eax+136]
  008fc	e8 00 00 00 00	 call	 ?GetWidth@CDibBitmap@@QAEHXZ ; CDibBitmap::GetWidth
  00901	03 45 c0	 add	 eax, DWORD PTR _rcBgL$[ebp]
  00904	89 45 c8	 mov	 DWORD PTR _rcBgL$[ebp+8], eax

; 124  : 	m_pBmpBgL->SetCDibRect( rcBgL );

  00907	83 ec 10	 sub	 esp, 16			; 00000010H
  0090a	8b cc		 mov	 ecx, esp
  0090c	8b 55 c0	 mov	 edx, DWORD PTR _rcBgL$[ebp]
  0090f	89 11		 mov	 DWORD PTR [ecx], edx
  00911	8b 45 c4	 mov	 eax, DWORD PTR _rcBgL$[ebp+4]
  00914	89 41 04	 mov	 DWORD PTR [ecx+4], eax
  00917	8b 55 c8	 mov	 edx, DWORD PTR _rcBgL$[ebp+8]
  0091a	89 51 08	 mov	 DWORD PTR [ecx+8], edx
  0091d	8b 45 cc	 mov	 eax, DWORD PTR _rcBgL$[ebp+12]
  00920	89 41 0c	 mov	 DWORD PTR [ecx+12], eax
  00923	8b 4d fc	 mov	 ecx, DWORD PTR _this$[ebp]
  00926	8b 89 88 00 00
	00		 mov	 ecx, DWORD PTR [ecx+136]
  0092c	e8 00 00 00 00	 call	 ?SetCDibRect@CDibBitmap@@QAEXVCRect@@@Z ; CDibBitmap::SetCDibRect

; 125  : 	m_pBmpBgL->Draw( pDc, TRUE, RGB(255,0,0) );

  00931	6a 01		 push	 1
  00933	68 ff 00 00 00	 push	 255			; 000000ffH
  00938	6a 01		 push	 1
  0093a	8b 55 08	 mov	 edx, DWORD PTR _pDc$[ebp]
  0093d	52		 push	 edx
  0093e	8b 45 fc	 mov	 eax, DWORD PTR _this$[ebp]
  00941	8b 88 88 00 00
	00		 mov	 ecx, DWORD PTR [eax+136]
  00947	e8 00 00 00 00	 call	 ?Draw@CDibBitmap@@QAEHPAVCDC@@HKH@Z ; CDibBitmap::Draw

; 126  : 	//
; 127  : 	CRect rcBgR( rcProgressBarBg );

  0094c	8b 4d d8	 mov	 ecx, DWORD PTR _rcProgressBarBg$[ebp]
  0094f	89 4d a8	 mov	 DWORD PTR _rcBgR$[ebp], ecx
  00952	8b 55 dc	 mov	 edx, DWORD PTR _rcProgressBarBg$[ebp+4]
  00955	89 55 ac	 mov	 DWORD PTR _rcBgR$[ebp+4], edx
  00958	8b 45 e0	 mov	 eax, DWORD PTR _rcProgressBarBg$[ebp+8]
  0095b	89 45 b0	 mov	 DWORD PTR _rcBgR$[ebp+8], eax
  0095e	8b 4d e4	 mov	 ecx, DWORD PTR _rcProgressBarBg$[ebp+12]
  00961	89 4d b4	 mov	 DWORD PTR _rcBgR$[ebp+12], ecx

; 128  : 	rcBgR.left = rcBgR.right - m_pBmpBgR->GetWidth();

  00964	8b 55 fc	 mov	 edx, DWORD PTR _this$[ebp]
  00967	8b 8a 90 00 00
	00		 mov	 ecx, DWORD PTR [edx+144]
  0096d	e8 00 00 00 00	 call	 ?GetWidth@CDibBitmap@@QAEHXZ ; CDibBitmap::GetWidth
  00972	8b 4d b0	 mov	 ecx, DWORD PTR _rcBgR$[ebp+8]
  00975	2b c8		 sub	 ecx, eax
  00977	89 4d a8	 mov	 DWORD PTR _rcBgR$[ebp], ecx

; 129  : 	m_pBmpBgR->SetCDibRect( rcBgR );

  0097a	83 ec 10	 sub	 esp, 16			; 00000010H
  0097d	8b d4		 mov	 edx, esp
  0097f	8b 45 a8	 mov	 eax, DWORD PTR _rcBgR$[ebp]
  00982	89 02		 mov	 DWORD PTR [edx], eax
  00984	8b 4d ac	 mov	 ecx, DWORD PTR _rcBgR$[ebp+4]
  00987	89 4a 04	 mov	 DWORD PTR [edx+4], ecx
  0098a	8b 45 b0	 mov	 eax, DWORD PTR _rcBgR$[ebp+8]
  0098d	89 42 08	 mov	 DWORD PTR [edx+8], eax
  00990	8b 4d b4	 mov	 ecx, DWORD PTR _rcBgR$[ebp+12]
  00993	89 4a 0c	 mov	 DWORD PTR [edx+12], ecx
  00996	8b 55 fc	 mov	 edx, DWORD PTR _this$[ebp]
  00999	8b 8a 90 00 00
	00		 mov	 ecx, DWORD PTR [edx+144]
  0099f	e8 00 00 00 00	 call	 ?SetCDibRect@CDibBitmap@@QAEXVCRect@@@Z ; CDibBitmap::SetCDibRect

; 130  : 	m_pBmpBgR->Draw( pDc, TRUE, RGB(255,0,0) );

  009a4	6a 01		 push	 1
  009a6	68 ff 00 00 00	 push	 255			; 000000ffH
  009ab	6a 01		 push	 1
  009ad	8b 45 08	 mov	 eax, DWORD PTR _pDc$[ebp]
  009b0	50		 push	 eax
  009b1	8b 4d fc	 mov	 ecx, DWORD PTR _this$[ebp]
  009b4	8b 89 90 00 00
	00		 mov	 ecx, DWORD PTR [ecx+144]
  009ba	e8 00 00 00 00	 call	 ?Draw@CDibBitmap@@QAEHPAVCDC@@HKH@Z ; CDibBitmap::Draw

; 131  : 	//
; 132  : 	CRect rcBgM( rcProgressBarBg );

  009bf	8b 55 d8	 mov	 edx, DWORD PTR _rcProgressBarBg$[ebp]
  009c2	89 55 90	 mov	 DWORD PTR _rcBgM$[ebp], edx
  009c5	8b 45 dc	 mov	 eax, DWORD PTR _rcProgressBarBg$[ebp+4]
  009c8	89 45 94	 mov	 DWORD PTR _rcBgM$[ebp+4], eax
  009cb	8b 4d e0	 mov	 ecx, DWORD PTR _rcProgressBarBg$[ebp+8]
  009ce	89 4d 98	 mov	 DWORD PTR _rcBgM$[ebp+8], ecx
  009d1	8b 55 e4	 mov	 edx, DWORD PTR _rcProgressBarBg$[ebp+12]
  009d4	89 55 9c	 mov	 DWORD PTR _rcBgM$[ebp+12], edx

; 133  : 	rcBgM.left  = rcBgL.right;

  009d7	8b 45 c8	 mov	 eax, DWORD PTR _rcBgL$[ebp+8]
  009da	89 45 90	 mov	 DWORD PTR _rcBgM$[ebp], eax

; 134  : 	rcBgM.right = rcBgR.left;

  009dd	8b 4d a8	 mov	 ecx, DWORD PTR _rcBgR$[ebp]
  009e0	89 4d 98	 mov	 DWORD PTR _rcBgM$[ebp+8], ecx

; 135  : 	m_pBmpBgM->SetCDibRect( rcBgM );

  009e3	83 ec 10	 sub	 esp, 16			; 00000010H
  009e6	8b d4		 mov	 edx, esp
  009e8	8b 45 90	 mov	 eax, DWORD PTR _rcBgM$[ebp]
  009eb	89 02		 mov	 DWORD PTR [edx], eax
  009ed	8b 4d 94	 mov	 ecx, DWORD PTR _rcBgM$[ebp+4]
  009f0	89 4a 04	 mov	 DWORD PTR [edx+4], ecx
  009f3	8b 45 98	 mov	 eax, DWORD PTR _rcBgM$[ebp+8]
  009f6	89 42 08	 mov	 DWORD PTR [edx+8], eax
  009f9	8b 4d 9c	 mov	 ecx, DWORD PTR _rcBgM$[ebp+12]
  009fc	89 4a 0c	 mov	 DWORD PTR [edx+12], ecx
  009ff	8b 55 fc	 mov	 edx, DWORD PTR _this$[ebp]
  00a02	8b 8a 8c 00 00
	00		 mov	 ecx, DWORD PTR [edx+140]
  00a08	e8 00 00 00 00	 call	 ?SetCDibRect@CDibBitmap@@QAEXVCRect@@@Z ; CDibBitmap::SetCDibRect

; 136  : 	m_pBmpBgM->Draw( pDc, TRUE, RGB(255,0,0) );

  00a0d	6a 01		 push	 1
  00a0f	68 ff 00 00 00	 push	 255			; 000000ffH
  00a14	6a 01		 push	 1
  00a16	8b 45 08	 mov	 eax, DWORD PTR _pDc$[ebp]
  00a19	50		 push	 eax
  00a1a	8b 4d fc	 mov	 ecx, DWORD PTR _this$[ebp]
  00a1d	8b 89 8c 00 00
	00		 mov	 ecx, DWORD PTR [ecx+140]
  00a23	e8 00 00 00 00	 call	 ?Draw@CDibBitmap@@QAEHPAVCDC@@HKH@Z ; CDibBitmap::Draw

; 137  : 	//-1
; 138  : 	CRect rcProgressBar( rcProgressBarBg );

  00a28	8b 55 d8	 mov	 edx, DWORD PTR _rcProgressBarBg$[ebp]
  00a2b	89 95 78 ff ff
	ff		 mov	 DWORD PTR _rcProgressBar$[ebp], edx
  00a31	8b 45 dc	 mov	 eax, DWORD PTR _rcProgressBarBg$[ebp+4]
  00a34	89 85 7c ff ff
	ff		 mov	 DWORD PTR _rcProgressBar$[ebp+4], eax
  00a3a	8b 4d e0	 mov	 ecx, DWORD PTR _rcProgressBarBg$[ebp+8]
  00a3d	89 4d 80	 mov	 DWORD PTR _rcProgressBar$[ebp+8], ecx
  00a40	8b 55 e4	 mov	 edx, DWORD PTR _rcProgressBarBg$[ebp+12]
  00a43	89 55 84	 mov	 DWORD PTR _rcProgressBar$[ebp+12], edx

; 139  : 	rcProgressBar.DeflateRect( 1,1,1,1 );

  00a46	6a 01		 push	 1
  00a48	6a 01		 push	 1
  00a4a	6a 01		 push	 1
  00a4c	6a 01		 push	 1
  00a4e	8d 8d 78 ff ff
	ff		 lea	 ecx, DWORD PTR _rcProgressBar$[ebp]
  00a54	e8 00 00 00 00	 call	 ?DeflateRect@CRect@@QAEXHHHH@Z ; CRect::DeflateRect

; 140  : 	rcProgressBar.right = m_dDownPercent * rcProgressBar.Width() + rcProgressBar.left;

  00a59	8d 8d 78 ff ff
	ff		 lea	 ecx, DWORD PTR _rcProgressBar$[ebp]
  00a5f	e8 00 00 00 00	 call	 ?Width@CRect@@QBEHXZ	; CRect::Width
  00a64	89 85 58 ff ff
	ff		 mov	 DWORD PTR tv309[ebp], eax
  00a6a	db 85 58 ff ff
	ff		 fild	 DWORD PTR tv309[ebp]
  00a70	8b 45 fc	 mov	 eax, DWORD PTR _this$[ebp]
  00a73	dc 48 60	 fmul	 QWORD PTR [eax+96]
  00a76	da 85 78 ff ff
	ff		 fiadd	 DWORD PTR _rcProgressBar$[ebp]
  00a7c	e8 00 00 00 00	 call	 __ftol2
  00a81	89 45 80	 mov	 DWORD PTR _rcProgressBar$[ebp+8], eax

; 141  : 	//
; 142  : 	CRect rcM( rcProgressBar );

  00a84	8b 8d 78 ff ff
	ff		 mov	 ecx, DWORD PTR _rcProgressBar$[ebp]
  00a8a	89 8d 60 ff ff
	ff		 mov	 DWORD PTR _rcM$[ebp], ecx
  00a90	8b 95 7c ff ff
	ff		 mov	 edx, DWORD PTR _rcProgressBar$[ebp+4]
  00a96	89 95 64 ff ff
	ff		 mov	 DWORD PTR _rcM$[ebp+4], edx
  00a9c	8b 45 80	 mov	 eax, DWORD PTR _rcProgressBar$[ebp+8]
  00a9f	89 85 68 ff ff
	ff		 mov	 DWORD PTR _rcM$[ebp+8], eax
  00aa5	8b 4d 84	 mov	 ecx, DWORD PTR _rcProgressBar$[ebp+12]
  00aa8	89 8d 6c ff ff
	ff		 mov	 DWORD PTR _rcM$[ebp+12], ecx

; 143  : 	m_pBmpM->SetCDibRect( rcM );

  00aae	83 ec 10	 sub	 esp, 16			; 00000010H
  00ab1	8b d4		 mov	 edx, esp
  00ab3	8b 85 60 ff ff
	ff		 mov	 eax, DWORD PTR _rcM$[ebp]
  00ab9	89 02		 mov	 DWORD PTR [edx], eax
  00abb	8b 8d 64 ff ff
	ff		 mov	 ecx, DWORD PTR _rcM$[ebp+4]
  00ac1	89 4a 04	 mov	 DWORD PTR [edx+4], ecx
  00ac4	8b 85 68 ff ff
	ff		 mov	 eax, DWORD PTR _rcM$[ebp+8]
  00aca	89 42 08	 mov	 DWORD PTR [edx+8], eax
  00acd	8b 8d 6c ff ff
	ff		 mov	 ecx, DWORD PTR _rcM$[ebp+12]
  00ad3	89 4a 0c	 mov	 DWORD PTR [edx+12], ecx
  00ad6	8b 55 fc	 mov	 edx, DWORD PTR _this$[ebp]
  00ad9	8b 8a 94 00 00
	00		 mov	 ecx, DWORD PTR [edx+148]
  00adf	e8 00 00 00 00	 call	 ?SetCDibRect@CDibBitmap@@QAEXVCRect@@@Z ; CDibBitmap::SetCDibRect

; 144  : 	m_pBmpM->Draw( pDc, TRUE, RGB(255,0,0) );

  00ae4	6a 01		 push	 1
  00ae6	68 ff 00 00 00	 push	 255			; 000000ffH
  00aeb	6a 01		 push	 1
  00aed	8b 45 08	 mov	 eax, DWORD PTR _pDc$[ebp]
  00af0	50		 push	 eax
  00af1	8b 4d fc	 mov	 ecx, DWORD PTR _this$[ebp]
  00af4	8b 89 94 00 00
	00		 mov	 ecx, DWORD PTR [ecx+148]
  00afa	e8 00 00 00 00	 call	 ?Draw@CDibBitmap@@QAEHPAVCDC@@HKH@Z ; CDibBitmap::Draw
$L189016:

; 145  : }

  00aff	52		 push	 edx
  00b00	8b cd		 mov	 ecx, ebp
  00b02	50		 push	 eax
  00b03	8d 15 00 00 00
	00		 lea	 edx, DWORD PTR $L190608
  00b09	e8 00 00 00 00	 call	 @_RTC_CheckStackVars@8
  00b0e	58		 pop	 eax
  00b0f	5a		 pop	 edx
  00b10	5f		 pop	 edi
  00b11	81 c4 a8 00 00
	00		 add	 esp, 168		; 000000a8H
  00b17	3b ec		 cmp	 ebp, esp
  00b19	e8 00 00 00 00	 call	 __RTC_CheckEsp
  00b1e	8b e5		 mov	 esp, ebp
  00b20	5d		 pop	 ebp
  00b21	c2 14 00	 ret	 20			; 00000014H
$L190608:
  00b24	07 00 00 00	 DD	 7
  00b28	00 00 00 00	 DD	 $L190607
$L190607:
  00b2c	f0 ff ff ff	 DD	 -16			; fffffff0H
  00b30	08 00 00 00	 DD	 8
  00b34	00 00 00 00	 DD	 $L190600
  00b38	d8 ff ff ff	 DD	 -40			; ffffffd8H
  00b3c	10 00 00 00	 DD	 16			; 00000010H
  00b40	00 00 00 00	 DD	 $L190601
  00b44	c0 ff ff ff	 DD	 -64			; ffffffc0H
  00b48	10 00 00 00	 DD	 16			; 00000010H
  00b4c	00 00 00 00	 DD	 $L190602
  00b50	a8 ff ff ff	 DD	 -88			; ffffffa8H
  00b54	10 00 00 00	 DD	 16			; 00000010H
  00b58	00 00 00 00	 DD	 $L190603
  00b5c	90 ff ff ff	 DD	 -112			; ffffff90H
  00b60	10 00 00 00	 DD	 16			; 00000010H
  00b64	00 00 00 00	 DD	 $L190604
  00b68	78 ff ff ff	 DD	 -136			; ffffff78H
  00b6c	10 00 00 00	 DD	 16			; 00000010H
  00b70	00 00 00 00	 DD	 $L190605
  00b74	60 ff ff ff	 DD	 -160			; ffffff60H
  00b78	10 00 00 00	 DD	 16			; 00000010H
  00b7c	00 00 00 00	 DD	 $L190606
$L190606:
  00b80	72		 DB	 114			; 00000072H
  00b81	63		 DB	 99			; 00000063H
  00b82	4d		 DB	 77			; 0000004dH
  00b83	00		 DB	 0
$L190605:
  00b84	72		 DB	 114			; 00000072H
  00b85	63		 DB	 99			; 00000063H
  00b86	50		 DB	 80			; 00000050H
  00b87	72		 DB	 114			; 00000072H
  00b88	6f		 DB	 111			; 0000006fH
  00b89	67		 DB	 103			; 00000067H
  00b8a	72		 DB	 114			; 00000072H
  00b8b	65		 DB	 101			; 00000065H
  00b8c	73		 DB	 115			; 00000073H
  00b8d	73		 DB	 115			; 00000073H
  00b8e	42		 DB	 66			; 00000042H
  00b8f	61		 DB	 97			; 00000061H
  00b90	72		 DB	 114			; 00000072H
  00b91	00		 DB	 0
$L190604:
  00b92	72		 DB	 114			; 00000072H
  00b93	63		 DB	 99			; 00000063H
  00b94	42		 DB	 66			; 00000042H
  00b95	67		 DB	 103			; 00000067H
  00b96	4d		 DB	 77			; 0000004dH
  00b97	00		 DB	 0
$L190603:
  00b98	72		 DB	 114			; 00000072H
  00b99	63		 DB	 99			; 00000063H
  00b9a	42		 DB	 66			; 00000042H
  00b9b	67		 DB	 103			; 00000067H
  00b9c	52		 DB	 82			; 00000052H
  00b9d	00		 DB	 0
$L190602:
  00b9e	72		 DB	 114			; 00000072H
  00b9f	63		 DB	 99			; 00000063H
  00ba0	42		 DB	 66			; 00000042H
  00ba1	67		 DB	 103			; 00000067H
  00ba2	4c		 DB	 76			; 0000004cH
  00ba3	00		 DB	 0
$L190601:
  00ba4	72		 DB	 114			; 00000072H
  00ba5	63		 DB	 99			; 00000063H
  00ba6	50		 DB	 80			; 00000050H
  00ba7	72		 DB	 114			; 00000072H
  00ba8	6f		 DB	 111			; 0000006fH
  00ba9	67		 DB	 103			; 00000067H
  00baa	72		 DB	 114			; 00000072H
  00bab	65		 DB	 101			; 00000065H
  00bac	73		 DB	 115			; 00000073H
  00bad	73		 DB	 115			; 00000073H
  00bae	42		 DB	 66			; 00000042H
  00baf	61		 DB	 97			; 00000061H
  00bb0	72		 DB	 114			; 00000072H
  00bb1	42		 DB	 66			; 00000042H
  00bb2	67		 DB	 103			; 00000067H
  00bb3	00		 DB	 0
$L190600:
  00bb4	70		 DB	 112			; 00000070H
  00bb5	74		 DB	 116			; 00000074H
  00bb6	43		 DB	 67			; 00000043H
  00bb7	65		 DB	 101			; 00000065H
  00bb8	6e		 DB	 110			; 0000006eH
  00bb9	74		 DB	 116			; 00000074H
  00bba	65		 DB	 101			; 00000065H
  00bbb	72		 DB	 114			; 00000072H
  00bbc	00		 DB	 0
?DrawProgress@DownPercentWnd@@AAEXPAVCDC@@VCRect@@@Z ENDP ; DownPercentWnd::DrawProgress
_TEXT	ENDS
PUBLIC	??A?$vector@V?$basic_string@DU?$char_traits@D@std@@V?$allocator@D@2@@std@@V?$allocator@V?$basic_string@DU?$char_traits@D@std@@V?$allocator@D@2@@std@@@2@@std@@QAEAAV?$basic_string@DU?$char_traits@D@std@@V?$allocator@D@2@@1@I@Z ; std::vector<std::basic_string<char,std::char_traits<char>,std::allocator<char> >,std::allocator<std::basic_string<char,std::char_traits<char>,std::allocator<char> > > >::operator[]
PUBLIC	?size@?$vector@V?$basic_string@DU?$char_traits@D@std@@V?$allocator@D@2@@std@@V?$allocator@V?$basic_string@DU?$char_traits@D@std@@V?$allocator@D@2@@std@@@2@@std@@QBEIXZ ; std::vector<std::basic_string<char,std::char_traits<char>,std::allocator<char> >,std::allocator<std::basic_string<char,std::char_traits<char>,std::allocator<char> > > >::size
EXTRN	?OffsetRect@CRect@@QAEXHH@Z:NEAR		; CRect::OffsetRect
; Function compile flags: /Odt /RTCsu
_TEXT	SEGMENT
_i$189059 = -48						; size = 4
_rcInfo$ = -40						; size = 16
_ptCenter$ = -16					; size = 8
_this$ = -4						; size = 4
_pDc$ = 8						; size = 4
_rc$ = 12						; size = 16
?DrawInfoText@DownPercentWnd@@AAEXPAVCDC@@VCRect@@@Z PROC NEAR ; DownPercentWnd::DrawInfoText
; _this$ = ecx

; 148  : {

  00bc0	55		 push	 ebp
  00bc1	8b ec		 mov	 ebp, esp
  00bc3	83 ec 30	 sub	 esp, 48			; 00000030H
  00bc6	56		 push	 esi
  00bc7	57		 push	 edi
  00bc8	51		 push	 ecx
  00bc9	8d 7d d0	 lea	 edi, DWORD PTR [ebp-48]
  00bcc	b9 0c 00 00 00	 mov	 ecx, 12			; 0000000cH
  00bd1	b8 cc cc cc cc	 mov	 eax, -858993460		; ccccccccH
  00bd6	f3 ab		 rep stosd
  00bd8	59		 pop	 ecx
  00bd9	89 4d fc	 mov	 DWORD PTR _this$[ebp], ecx

; 149  : 	//:50
; 150  : 	CPoint ptCenter = rc.CenterPoint();

  00bdc	8d 45 f0	 lea	 eax, DWORD PTR _ptCenter$[ebp]
  00bdf	50		 push	 eax
  00be0	8d 4d 0c	 lea	 ecx, DWORD PTR _rc$[ebp]
  00be3	e8 00 00 00 00	 call	 ?CenterPoint@CRect@@QBE?AVCPoint@@XZ ; CRect::CenterPoint

; 151  : 	CRect rcInfo( rc );

  00be8	8b 4d 0c	 mov	 ecx, DWORD PTR _rc$[ebp]
  00beb	89 4d d8	 mov	 DWORD PTR _rcInfo$[ebp], ecx
  00bee	8b 55 10	 mov	 edx, DWORD PTR _rc$[ebp+4]
  00bf1	89 55 dc	 mov	 DWORD PTR _rcInfo$[ebp+4], edx
  00bf4	8b 45 14	 mov	 eax, DWORD PTR _rc$[ebp+8]
  00bf7	89 45 e0	 mov	 DWORD PTR _rcInfo$[ebp+8], eax
  00bfa	8b 4d 18	 mov	 ecx, DWORD PTR _rc$[ebp+12]
  00bfd	89 4d e4	 mov	 DWORD PTR _rcInfo$[ebp+12], ecx

; 152  : 	rcInfo.top = ptCenter.y + 50;

  00c00	8b 55 f4	 mov	 edx, DWORD PTR _ptCenter$[ebp+4]
  00c03	83 c2 32	 add	 edx, 50			; 00000032H
  00c06	89 55 dc	 mov	 DWORD PTR _rcInfo$[ebp+4], edx

; 153  : 	rcInfo.bottom = rcInfo.top + 20;

  00c09	8b 45 dc	 mov	 eax, DWORD PTR _rcInfo$[ebp+4]
  00c0c	83 c0 14	 add	 eax, 20			; 00000014H
  00c0f	89 45 e4	 mov	 DWORD PTR _rcInfo$[ebp+12], eax

; 154  : 	//
; 155  : 	pDc->SelectObject( &m_font );

  00c12	8b 4d fc	 mov	 ecx, DWORD PTR _this$[ebp]
  00c15	83 c1 68	 add	 ecx, 104		; 00000068H
  00c18	8b f4		 mov	 esi, esp
  00c1a	51		 push	 ecx
  00c1b	8b 55 08	 mov	 edx, DWORD PTR _pDc$[ebp]
  00c1e	8b 02		 mov	 eax, DWORD PTR [edx]
  00c20	8b 4d 08	 mov	 ecx, DWORD PTR _pDc$[ebp]
  00c23	ff 50 30	 call	 DWORD PTR [eax+48]
  00c26	3b f4		 cmp	 esi, esp
  00c28	e8 00 00 00 00	 call	 __RTC_CheckEsp

; 156  : 	pDc->SetTextColor( m_colText );

  00c2d	8b f4		 mov	 esi, esp
  00c2f	8b 4d fc	 mov	 ecx, DWORD PTR _this$[ebp]
  00c32	8b 91 84 00 00
	00		 mov	 edx, DWORD PTR [ecx+132]
  00c38	52		 push	 edx
  00c39	8b 45 08	 mov	 eax, DWORD PTR _pDc$[ebp]
  00c3c	8b 10		 mov	 edx, DWORD PTR [eax]
  00c3e	8b 4d 08	 mov	 ecx, DWORD PTR _pDc$[ebp]
  00c41	ff 52 38	 call	 DWORD PTR [edx+56]
  00c44	3b f4		 cmp	 esi, esp
  00c46	e8 00 00 00 00	 call	 __RTC_CheckEsp

; 157  : 	for( int i=0; i<m_vecText.size(); i++ )

  00c4b	c7 45 d0 00 00
	00 00		 mov	 DWORD PTR _i$189059[ebp], 0
  00c52	eb 09		 jmp	 SHORT $L189060
$L189061:
  00c54	8b 45 d0	 mov	 eax, DWORD PTR _i$189059[ebp]
  00c57	83 c0 01	 add	 eax, 1
  00c5a	89 45 d0	 mov	 DWORD PTR _i$189059[ebp], eax
$L189060:
  00c5d	8b 4d fc	 mov	 ecx, DWORD PTR _this$[ebp]
  00c60	83 c1 70	 add	 ecx, 112		; 00000070H
  00c63	e8 00 00 00 00	 call	 ?size@?$vector@V?$basic_string@DU?$char_traits@D@std@@V?$allocator@D@2@@std@@V?$allocator@V?$basic_string@DU?$char_traits@D@std@@V?$allocator@D@2@@std@@@2@@std@@QBEIXZ ; std::vector<std::basic_string<char,std::char_traits<char>,std::allocator<char> >,std::allocator<std::basic_string<char,std::char_traits<char>,std::allocator<char> > > >::size
  00c68	39 45 d0	 cmp	 DWORD PTR _i$189059[ebp], eax
  00c6b	73 4e		 jae	 SHORT $L189055

; 158  : 	{
; 159  : 		pDc->DrawText( m_vecText[i].c_str(), -1, &rcInfo, DT_NOPREFIX|DT_CENTER|DT_VCENTER|DT_SINGLELINE);

  00c6d	8b f4		 mov	 esi, esp
  00c6f	68 25 08 00 00	 push	 2085			; 00000825H
  00c74	8d 4d d8	 lea	 ecx, DWORD PTR _rcInfo$[ebp]
  00c77	51		 push	 ecx
  00c78	6a ff		 push	 -1
  00c7a	8b 55 d0	 mov	 edx, DWORD PTR _i$189059[ebp]
  00c7d	52		 push	 edx
  00c7e	8b 4d fc	 mov	 ecx, DWORD PTR _this$[ebp]
  00c81	83 c1 70	 add	 ecx, 112		; 00000070H
  00c84	e8 00 00 00 00	 call	 ??A?$vector@V?$basic_string@DU?$char_traits@D@std@@V?$allocator@D@2@@std@@V?$allocator@V?$basic_string@DU?$char_traits@D@std@@V?$allocator@D@2@@std@@@2@@std@@QAEAAV?$basic_string@DU?$char_traits@D@std@@V?$allocator@D@2@@1@I@Z ; std::vector<std::basic_string<char,std::char_traits<char>,std::allocator<char> >,std::allocator<std::basic_string<char,std::char_traits<char>,std::allocator<char> > > >::operator[]
  00c89	8b fc		 mov	 edi, esp
  00c8b	8b c8		 mov	 ecx, eax
  00c8d	ff 15 00 00 00
	00		 call	 DWORD PTR __imp_?c_str@?$basic_string@DU?$char_traits@D@std@@V?$allocator@D@2@@std@@QBEPBDXZ
  00c93	3b fc		 cmp	 edi, esp
  00c95	e8 00 00 00 00	 call	 __RTC_CheckEsp
  00c9a	50		 push	 eax
  00c9b	8b 45 08	 mov	 eax, DWORD PTR _pDc$[ebp]
  00c9e	8b 10		 mov	 edx, DWORD PTR [eax]
  00ca0	8b 4d 08	 mov	 ecx, DWORD PTR _pDc$[ebp]
  00ca3	ff 52 70	 call	 DWORD PTR [edx+112]
  00ca6	3b f4		 cmp	 esi, esp
  00ca8	e8 00 00 00 00	 call	 __RTC_CheckEsp

; 160  : 		rcInfo.OffsetRect( 0, 20 ); //20

  00cad	6a 14		 push	 20			; 00000014H
  00caf	6a 00		 push	 0
  00cb1	8d 4d d8	 lea	 ecx, DWORD PTR _rcInfo$[ebp]
  00cb4	e8 00 00 00 00	 call	 ?OffsetRect@CRect@@QAEXHH@Z ; CRect::OffsetRect

; 161  : 	}	

  00cb9	eb 99		 jmp	 SHORT $L189061
$L189055:

; 162  : }

  00cbb	52		 push	 edx
  00cbc	8b cd		 mov	 ecx, ebp
  00cbe	50		 push	 eax
  00cbf	8d 15 00 00 00
	00		 lea	 edx, DWORD PTR $L190613
  00cc5	e8 00 00 00 00	 call	 @_RTC_CheckStackVars@8
  00cca	58		 pop	 eax
  00ccb	5a		 pop	 edx
  00ccc	5f		 pop	 edi
  00ccd	5e		 pop	 esi
  00cce	83 c4 30	 add	 esp, 48			; 00000030H
  00cd1	3b ec		 cmp	 ebp, esp
  00cd3	e8 00 00 00 00	 call	 __RTC_CheckEsp
  00cd8	8b e5		 mov	 esp, ebp
  00cda	5d		 pop	 ebp
  00cdb	c2 14 00	 ret	 20			; 00000014H
$L190613:
  00cde	02 00 00 00	 DD	 2
  00ce2	00 00 00 00	 DD	 $L190612
$L190612:
  00ce6	f0 ff ff ff	 DD	 -16			; fffffff0H
  00cea	08 00 00 00	 DD	 8
  00cee	00 00 00 00	 DD	 $L190610
  00cf2	d8 ff ff ff	 DD	 -40			; ffffffd8H
  00cf6	10 00 00 00	 DD	 16			; 00000010H
  00cfa	00 00 00 00	 DD	 $L190611
$L190611:
  00cfe	72		 DB	 114			; 00000072H
  00cff	63		 DB	 99			; 00000063H
  00d00	49		 DB	 73			; 00000049H
  00d01	6e		 DB	 110			; 0000006eH
  00d02	66		 DB	 102			; 00000066H
  00d03	6f		 DB	 111			; 0000006fH
  00d04	00		 DB	 0
$L190610:
  00d05	70		 DB	 112			; 00000070H
  00d06	74		 DB	 116			; 00000074H
  00d07	43		 DB	 67			; 00000043H
  00d08	65		 DB	 101			; 00000065H
  00d09	6e		 DB	 110			; 0000006eH
  00d0a	74		 DB	 116			; 00000074H
  00d0b	65		 DB	 101			; 00000065H
  00d0c	72		 DB	 114			; 00000072H
  00d0d	00		 DB	 0
?DrawInfoText@DownPercentWnd@@AAEXPAVCDC@@VCRect@@@Z ENDP ; DownPercentWnd::DrawInfoText
_TEXT	ENDS
PUBLIC	__real@3f800000
PUBLIC	??0Graphics@Gdiplus@@QAE@PAUHDC__@@@Z		; Gdiplus::Graphics::Graphics
PUBLIC	??1Graphics@Gdiplus@@QAE@XZ			; Gdiplus::Graphics::~Graphics
PUBLIC	??0Rect@Gdiplus@@QAE@HHHH@Z			; Gdiplus::Rect::Rect
PUBLIC	?DrawImage@Graphics@Gdiplus@@QAE?AW4Status@2@PAVImage@2@ABVRect@2@@Z ; Gdiplus::Graphics::DrawImage
PUBLIC	?GetWidth@Image@Gdiplus@@QAEIXZ			; Gdiplus::Image::GetWidth
PUBLIC	?GetHeight@Image@Gdiplus@@QAEIXZ		; Gdiplus::Image::GetHeight
EXTRN	?GetSafeHdc@CDC@@QBEPAUHDC__@@XZ:NEAR		; CDC::GetSafeHdc
xdata$x	SEGMENT
$T190626 DD	0ffffffffH
	DD	FLAT:$L190615
$T190617 DD	019930520H
	DD	01H
	DD	FLAT:$T190626
	DD	2 DUP(00H)
	DD	2 DUP(00H)
xdata$x	ENDS
;	COMDAT __real@3f800000
CONST	SEGMENT
__real@3f800000 DD 03f800000r			; 1
; Function compile flags: /Odt /RTCsu
CONST	ENDS
_TEXT	SEGMENT
tv236 = -128						; size = 8
tv227 = -120						; size = 8
tv205 = -112						; size = 8
tv200 = -104						; size = 8
_gc$ = -92						; size = 8
_rcImg$ = -76						; size = 16
_iY$ = -56						; size = 4
_iX$ = -52						; size = 4
_pCenter$ = -44						; size = 8
_fPerX$ = -32						; size = 4
_fPerY$ = -28						; size = 4
_iAdMaxWidth$ = -24					; size = 4
_iAdMaxHeight$ = -20					; size = 4
_this$ = -16						; size = 4
__$EHRec$ = -12						; size = 12
_pDc$ = 8						; size = 4
_rc$ = 12						; size = 16
?DrawAd@DownPercentWnd@@AAEXPAVCDC@@VCRect@@@Z PROC NEAR ; DownPercentWnd::DrawAd
; _this$ = ecx

; 165  : {

  00d10	55		 push	 ebp
  00d11	8b ec		 mov	 ebp, esp
  00d13	6a ff		 push	 -1
  00d15	68 00 00 00 00	 push	 __ehhandler$?DrawAd@DownPercentWnd@@AAEXPAVCDC@@VCRect@@@Z
  00d1a	64 a1 00 00 00
	00		 mov	 eax, DWORD PTR fs:__except_list
  00d20	50		 push	 eax
  00d21	64 89 25 00 00
	00 00		 mov	 DWORD PTR fs:__except_list, esp
  00d28	83 ec 74	 sub	 esp, 116		; 00000074H
  00d2b	57		 push	 edi
  00d2c	51		 push	 ecx
  00d2d	8d 7d 80	 lea	 edi, DWORD PTR [ebp-128]
  00d30	b9 1d 00 00 00	 mov	 ecx, 29			; 0000001dH
  00d35	b8 cc cc cc cc	 mov	 eax, -858993460		; ccccccccH
  00d3a	f3 ab		 rep stosd
  00d3c	59		 pop	 ecx
  00d3d	89 4d f0	 mov	 DWORD PTR _this$[ebp], ecx

; 166  : 	if( m_pImgAd == NULL )

  00d40	8b 45 f0	 mov	 eax, DWORD PTR _this$[ebp]
  00d43	83 b8 98 00 00
	00 00		 cmp	 DWORD PTR [eax+152], 0
  00d4a	75 05		 jne	 SHORT $L189068

; 167  : 		return;

  00d4c	e9 f6 01 00 00	 jmp	 $L189067
$L189068:

; 168  : 	//:,
; 169  : 	int iAdMaxHeight = rc.Height()/2;

  00d51	8d 4d 0c	 lea	 ecx, DWORD PTR _rc$[ebp]
  00d54	e8 00 00 00 00	 call	 ?Height@CRect@@QBEHXZ	; CRect::Height
  00d59	99		 cdq
  00d5a	2b c2		 sub	 eax, edx
  00d5c	d1 f8		 sar	 eax, 1
  00d5e	89 45 ec	 mov	 DWORD PTR _iAdMaxHeight$[ebp], eax

; 170  : 	int iAdMaxWidth  = rc.Width();

  00d61	8d 4d 0c	 lea	 ecx, DWORD PTR _rc$[ebp]
  00d64	e8 00 00 00 00	 call	 ?Width@CRect@@QBEHXZ	; CRect::Width
  00d69	89 45 e8	 mov	 DWORD PTR _iAdMaxWidth$[ebp], eax

; 171  : 
; 172  : 	float fPerY = (float)(m_pImgAd->GetHeight()) / (float)iAdMaxHeight;

  00d6c	8b 4d f0	 mov	 ecx, DWORD PTR _this$[ebp]
  00d6f	8b 89 98 00 00
	00		 mov	 ecx, DWORD PTR [ecx+152]
  00d75	e8 00 00 00 00	 call	 ?GetHeight@Image@Gdiplus@@QAEIXZ ; Gdiplus::Image::GetHeight
  00d7a	89 45 98	 mov	 DWORD PTR tv200[ebp], eax
  00d7d	c7 45 9c 00 00
	00 00		 mov	 DWORD PTR tv200[ebp+4], 0
  00d84	df 6d 98	 fild	 QWORD PTR tv200[ebp]
  00d87	da 75 ec	 fidiv	 DWORD PTR _iAdMaxHeight$[ebp]
  00d8a	d9 5d e4	 fstp	 DWORD PTR _fPerY$[ebp]

; 173  : 	float fPerX = (float)(m_pImgAd->GetWidth())  / (float)iAdMaxWidth;

  00d8d	8b 55 f0	 mov	 edx, DWORD PTR _this$[ebp]
  00d90	8b 8a 98 00 00
	00		 mov	 ecx, DWORD PTR [edx+152]
  00d96	e8 00 00 00 00	 call	 ?GetWidth@Image@Gdiplus@@QAEIXZ ; Gdiplus::Image::GetWidth
  00d9b	89 45 90	 mov	 DWORD PTR tv205[ebp], eax
  00d9e	c7 45 94 00 00
	00 00		 mov	 DWORD PTR tv205[ebp+4], 0
  00da5	df 6d 90	 fild	 QWORD PTR tv205[ebp]
  00da8	da 75 e8	 fidiv	 DWORD PTR _iAdMaxWidth$[ebp]
  00dab	d9 5d e0	 fstp	 DWORD PTR _fPerX$[ebp]

; 174  : 
; 175  : 	CPoint pCenter = rc.CenterPoint();

  00dae	8d 45 d4	 lea	 eax, DWORD PTR _pCenter$[ebp]
  00db1	50		 push	 eax
  00db2	8d 4d 0c	 lea	 ecx, DWORD PTR _rc$[ebp]
  00db5	e8 00 00 00 00	 call	 ?CenterPoint@CRect@@QBE?AVCPoint@@XZ ; CRect::CenterPoint

; 176  : 	int iX = 0;

  00dba	c7 45 cc 00 00
	00 00		 mov	 DWORD PTR _iX$[ebp], 0

; 177  : 	int iY = 0;

  00dc1	c7 45 c8 00 00
	00 00		 mov	 DWORD PTR _iY$[ebp], 0

; 178  : 	if( fPerY <= 1 && fPerX <= 1 )//

  00dc8	d9 45 e4	 fld	 DWORD PTR _fPerY$[ebp]
  00dcb	d8 1d 00 00 00
	00		 fcomp	 DWORD PTR __real@3f800000
  00dd1	df e0		 fnstsw	 ax
  00dd3	f6 c4 41	 test	 ah, 65			; 00000041H
  00dd6	7a 34		 jp	 SHORT $L189081
  00dd8	d9 45 e0	 fld	 DWORD PTR _fPerX$[ebp]
  00ddb	d8 1d 00 00 00
	00		 fcomp	 DWORD PTR __real@3f800000
  00de1	df e0		 fnstsw	 ax
  00de3	f6 c4 41	 test	 ah, 65			; 00000041H
  00de6	7a 24		 jp	 SHORT $L189081

; 179  : 	{
; 180  : 		iX = m_pImgAd->GetWidth();

  00de8	8b 4d f0	 mov	 ecx, DWORD PTR _this$[ebp]
  00deb	8b 89 98 00 00
	00		 mov	 ecx, DWORD PTR [ecx+152]
  00df1	e8 00 00 00 00	 call	 ?GetWidth@Image@Gdiplus@@QAEIXZ ; Gdiplus::Image::GetWidth
  00df6	89 45 cc	 mov	 DWORD PTR _iX$[ebp], eax

; 181  : 		iY = m_pImgAd->GetHeight();

  00df9	8b 55 f0	 mov	 edx, DWORD PTR _this$[ebp]
  00dfc	8b 8a 98 00 00
	00		 mov	 ecx, DWORD PTR [edx+152]
  00e02	e8 00 00 00 00	 call	 ?GetHeight@Image@Gdiplus@@QAEIXZ ; Gdiplus::Image::GetHeight
  00e07	89 45 c8	 mov	 DWORD PTR _iY$[ebp], eax

; 182  : 	}else

  00e0a	eb 67		 jmp	 SHORT $L189082
$L189081:

; 183  : 	if( fPerY > fPerX ) //

  00e0c	d9 45 e4	 fld	 DWORD PTR _fPerY$[ebp]
  00e0f	d8 5d e0	 fcomp	 DWORD PTR _fPerX$[ebp]
  00e12	df e0		 fnstsw	 ax
  00e14	f6 c4 41	 test	 ah, 65			; 00000041H
  00e17	75 2e		 jne	 SHORT $L189083

; 184  : 	{
; 185  : 		iX = (float)(m_pImgAd->GetWidth()) / (float)fPerY;

  00e19	8b 45 f0	 mov	 eax, DWORD PTR _this$[ebp]
  00e1c	8b 88 98 00 00
	00		 mov	 ecx, DWORD PTR [eax+152]
  00e22	e8 00 00 00 00	 call	 ?GetWidth@Image@Gdiplus@@QAEIXZ ; Gdiplus::Image::GetWidth
  00e27	89 45 88	 mov	 DWORD PTR tv227[ebp], eax
  00e2a	c7 45 8c 00 00
	00 00		 mov	 DWORD PTR tv227[ebp+4], 0
  00e31	df 6d 88	 fild	 QWORD PTR tv227[ebp]
  00e34	d8 75 e4	 fdiv	 DWORD PTR _fPerY$[ebp]
  00e37	e8 00 00 00 00	 call	 __ftol2
  00e3c	89 45 cc	 mov	 DWORD PTR _iX$[ebp], eax

; 186  : 		iY = iAdMaxHeight;

  00e3f	8b 4d ec	 mov	 ecx, DWORD PTR _iAdMaxHeight$[ebp]
  00e42	89 4d c8	 mov	 DWORD PTR _iY$[ebp], ecx

; 187  : 	}else //

  00e45	eb 2c		 jmp	 SHORT $L189082
$L189083:

; 188  : 	{
; 189  : 		iX = iAdMaxWidth;

  00e47	8b 55 e8	 mov	 edx, DWORD PTR _iAdMaxWidth$[ebp]
  00e4a	89 55 cc	 mov	 DWORD PTR _iX$[ebp], edx

; 190  : 		iY = (float)(m_pImgAd->GetHeight()) / (float)fPerX;

  00e4d	8b 45 f0	 mov	 eax, DWORD PTR _this$[ebp]
  00e50	8b 88 98 00 00
	00		 mov	 ecx, DWORD PTR [eax+152]
  00e56	e8 00 00 00 00	 call	 ?GetHeight@Image@Gdiplus@@QAEIXZ ; Gdiplus::Image::GetHeight
  00e5b	89 45 80	 mov	 DWORD PTR tv236[ebp], eax
  00e5e	c7 45 84 00 00
	00 00		 mov	 DWORD PTR tv236[ebp+4], 0
  00e65	df 6d 80	 fild	 QWORD PTR tv236[ebp]
  00e68	d8 75 e0	 fdiv	 DWORD PTR _fPerX$[ebp]
  00e6b	e8 00 00 00 00	 call	 __ftol2
  00e70	89 45 c8	 mov	 DWORD PTR _iY$[ebp], eax
$L189082:

; 191  : 	}
; 192  : 	m_rcFlash.left = pCenter.x - ( iX / 2 );

  00e73	8b 45 cc	 mov	 eax, DWORD PTR _iX$[ebp]
  00e76	99		 cdq
  00e77	2b c2		 sub	 eax, edx
  00e79	d1 f8		 sar	 eax, 1
  00e7b	8b 4d d4	 mov	 ecx, DWORD PTR _pCenter$[ebp]
  00e7e	2b c8		 sub	 ecx, eax
  00e80	8b 55 f0	 mov	 edx, DWORD PTR _this$[ebp]
  00e83	89 8a 9c 00 00
	00		 mov	 DWORD PTR [edx+156], ecx

; 193  : 	m_rcFlash.top  = ( pCenter.y / 2 ) - ( iY / 2 );

  00e89	8b 45 d8	 mov	 eax, DWORD PTR _pCenter$[ebp+4]
  00e8c	99		 cdq
  00e8d	2b c2		 sub	 eax, edx
  00e8f	8b c8		 mov	 ecx, eax
  00e91	d1 f9		 sar	 ecx, 1
  00e93	8b 45 c8	 mov	 eax, DWORD PTR _iY$[ebp]
  00e96	99		 cdq
  00e97	2b c2		 sub	 eax, edx
  00e99	d1 f8		 sar	 eax, 1
  00e9b	2b c8		 sub	 ecx, eax
  00e9d	8b 55 f0	 mov	 edx, DWORD PTR _this$[ebp]
  00ea0	89 8a a0 00 00
	00		 mov	 DWORD PTR [edx+160], ecx

; 194  : 	m_rcFlash.right  = m_rcFlash.left + iX;

  00ea6	8b 45 f0	 mov	 eax, DWORD PTR _this$[ebp]
  00ea9	8b 88 9c 00 00
	00		 mov	 ecx, DWORD PTR [eax+156]
  00eaf	03 4d cc	 add	 ecx, DWORD PTR _iX$[ebp]
  00eb2	8b 55 f0	 mov	 edx, DWORD PTR _this$[ebp]
  00eb5	89 8a a4 00 00
	00		 mov	 DWORD PTR [edx+164], ecx

; 195  : 	m_rcFlash.bottom = m_rcFlash.top  + iY;

  00ebb	8b 45 f0	 mov	 eax, DWORD PTR _this$[ebp]
  00ebe	8b 88 a0 00 00
	00		 mov	 ecx, DWORD PTR [eax+160]
  00ec4	03 4d c8	 add	 ecx, DWORD PTR _iY$[ebp]
  00ec7	8b 55 f0	 mov	 edx, DWORD PTR _this$[ebp]
  00eca	89 8a a8 00 00
	00		 mov	 DWORD PTR [edx+168], ecx

; 196  : 
; 197  : 	Rect rcImg( m_rcFlash.left, m_rcFlash.top, m_rcFlash.Width(), m_rcFlash.Height() );

  00ed0	8b 4d f0	 mov	 ecx, DWORD PTR _this$[ebp]
  00ed3	81 c1 9c 00 00
	00		 add	 ecx, 156		; 0000009cH
  00ed9	e8 00 00 00 00	 call	 ?Height@CRect@@QBEHXZ	; CRect::Height
  00ede	50		 push	 eax
  00edf	8b 4d f0	 mov	 ecx, DWORD PTR _this$[ebp]
  00ee2	81 c1 9c 00 00
	00		 add	 ecx, 156		; 0000009cH
  00ee8	e8 00 00 00 00	 call	 ?Width@CRect@@QBEHXZ	; CRect::Width
  00eed	50		 push	 eax
  00eee	8b 45 f0	 mov	 eax, DWORD PTR _this$[ebp]
  00ef1	8b 88 a0 00 00
	00		 mov	 ecx, DWORD PTR [eax+160]
  00ef7	51		 push	 ecx
  00ef8	8b 55 f0	 mov	 edx, DWORD PTR _this$[ebp]
  00efb	8b 82 9c 00 00
	00		 mov	 eax, DWORD PTR [edx+156]
  00f01	50		 push	 eax
  00f02	8d 4d b4	 lea	 ecx, DWORD PTR _rcImg$[ebp]
  00f05	e8 00 00 00 00	 call	 ??0Rect@Gdiplus@@QAE@HHHH@Z ; Gdiplus::Rect::Rect

; 198  : 	Graphics gc( pDc->GetSafeHdc() );

  00f0a	8b 4d 08	 mov	 ecx, DWORD PTR _pDc$[ebp]
  00f0d	e8 00 00 00 00	 call	 ?GetSafeHdc@CDC@@QBEPAUHDC__@@XZ ; CDC::GetSafeHdc
  00f12	50		 push	 eax
  00f13	8d 4d a4	 lea	 ecx, DWORD PTR _gc$[ebp]
  00f16	e8 00 00 00 00	 call	 ??0Graphics@Gdiplus@@QAE@PAUHDC__@@@Z ; Gdiplus::Graphics::Graphics
  00f1b	c7 45 fc 00 00
	00 00		 mov	 DWORD PTR __$EHRec$[ebp+8], 0

; 199  : 	gc.DrawImage( m_pImgAd, rcImg );

  00f22	8d 4d b4	 lea	 ecx, DWORD PTR _rcImg$[ebp]
  00f25	51		 push	 ecx
  00f26	8b 55 f0	 mov	 edx, DWORD PTR _this$[ebp]
  00f29	8b 82 98 00 00
	00		 mov	 eax, DWORD PTR [edx+152]
  00f2f	50		 push	 eax
  00f30	8d 4d a4	 lea	 ecx, DWORD PTR _gc$[ebp]
  00f33	e8 00 00 00 00	 call	 ?DrawImage@Graphics@Gdiplus@@QAE?AW4Status@2@PAVImage@2@ABVRect@2@@Z ; Gdiplus::Graphics::DrawImage

; 200  : }

  00f38	c7 45 fc ff ff
	ff ff		 mov	 DWORD PTR __$EHRec$[ebp+8], -1
  00f3f	8d 4d a4	 lea	 ecx, DWORD PTR _gc$[ebp]
  00f42	e8 00 00 00 00	 call	 ??1Graphics@Gdiplus@@QAE@XZ ; Gdiplus::Graphics::~Graphics
$L189067:
  00f47	52		 push	 edx
  00f48	8b cd		 mov	 ecx, ebp
  00f4a	50		 push	 eax
  00f4b	8d 15 00 00 00
	00		 lea	 edx, DWORD PTR $L190625
  00f51	e8 00 00 00 00	 call	 @_RTC_CheckStackVars@8
  00f56	58		 pop	 eax
  00f57	5a		 pop	 edx
  00f58	8b 4d f4	 mov	 ecx, DWORD PTR __$EHRec$[ebp]
  00f5b	64 89 0d 00 00
	00 00		 mov	 DWORD PTR fs:__except_list, ecx
  00f62	5f		 pop	 edi
  00f63	81 c4 80 00 00
	00		 add	 esp, 128		; 00000080H
  00f69	3b ec		 cmp	 ebp, esp
  00f6b	e8 00 00 00 00	 call	 __RTC_CheckEsp
  00f70	8b e5		 mov	 esp, ebp
  00f72	5d		 pop	 ebp
  00f73	c2 14 00	 ret	 20			; 00000014H
$L190625:
  00f76	03 00 00 00	 DD	 3
  00f7a	00 00 00 00	 DD	 $L190624
$L190624:
  00f7e	d4 ff ff ff	 DD	 -44			; ffffffd4H
  00f82	08 00 00 00	 DD	 8
  00f86	00 00 00 00	 DD	 $L190620
  00f8a	b4 ff ff ff	 DD	 -76			; ffffffb4H
  00f8e	10 00 00 00	 DD	 16			; 00000010H
  00f92	00 00 00 00	 DD	 $L190621
  00f96	a4 ff ff ff	 DD	 -92			; ffffffa4H
  00f9a	08 00 00 00	 DD	 8
  00f9e	00 00 00 00	 DD	 $L190622
$L190622:
  00fa2	67		 DB	 103			; 00000067H
  00fa3	63		 DB	 99			; 00000063H
  00fa4	00		 DB	 0
$L190621:
  00fa5	72		 DB	 114			; 00000072H
  00fa6	63		 DB	 99			; 00000063H
  00fa7	49		 DB	 73			; 00000049H
  00fa8	6d		 DB	 109			; 0000006dH
  00fa9	67		 DB	 103			; 00000067H
  00faa	00		 DB	 0
$L190620:
  00fab	70		 DB	 112			; 00000070H
  00fac	43		 DB	 67			; 00000043H
  00fad	65		 DB	 101			; 00000065H
  00fae	6e		 DB	 110			; 0000006eH
  00faf	74		 DB	 116			; 00000074H
  00fb0	65		 DB	 101			; 00000065H
  00fb1	72		 DB	 114			; 00000072H
  00fb2	00		 DB	 0
_TEXT	ENDS
text$x	SEGMENT
$L190615:
  000db	8d 4d a4	 lea	 ecx, DWORD PTR _gc$[ebp]
  000de	e9 00 00 00 00	 jmp	 ??1Graphics@Gdiplus@@QAE@XZ ; Gdiplus::Graphics::~Graphics
__ehhandler$?DrawAd@DownPercentWnd@@AAEXPAVCDC@@VCRect@@@Z:
  000e3	b8 00 00 00 00	 mov	 eax, OFFSET FLAT:$T190617
  000e8	e9 00 00 00 00	 jmp	 ___CxxFrameHandler
text$x	ENDS
?DrawAd@DownPercentWnd@@AAEXPAVCDC@@VCRect@@@Z ENDP	; DownPercentWnd::DrawAd
PUBLIC	?SetDownPercent@DownPercentWnd@@QAEXN@Z		; DownPercentWnd::SetDownPercent
EXTRN	?Invalidate@CWnd@@QAEXH@Z:NEAR			; CWnd::Invalidate
; Function compile flags: /Odt /RTCsu
_TEXT	SEGMENT
_this$ = -4						; size = 4
_dPercent$ = 8						; size = 8
?SetDownPercent@DownPercentWnd@@QAEXN@Z PROC NEAR	; DownPercentWnd::SetDownPercent
; _this$ = ecx

; 203  : {

  00fc0	55		 push	 ebp
  00fc1	8b ec		 mov	 ebp, esp
  00fc3	51		 push	 ecx
  00fc4	c7 45 fc cc cc
	cc cc		 mov	 DWORD PTR [ebp-4], -858993460 ; ccccccccH
  00fcb	89 4d fc	 mov	 DWORD PTR _this$[ebp], ecx

; 204  : 	m_dDownPercent = dPercent;

  00fce	8b 45 fc	 mov	 eax, DWORD PTR _this$[ebp]
  00fd1	dd 45 08	 fld	 QWORD PTR _dPercent$[ebp]
  00fd4	dd 58 60	 fstp	 QWORD PTR [eax+96]

; 205  : 	Invalidate();

  00fd7	6a 01		 push	 1
  00fd9	8b 4d fc	 mov	 ecx, DWORD PTR _this$[ebp]
  00fdc	e8 00 00 00 00	 call	 ?Invalidate@CWnd@@QAEXH@Z ; CWnd::Invalidate

; 206  : }

  00fe1	83 c4 04	 add	 esp, 4
  00fe4	3b ec		 cmp	 ebp, esp
  00fe6	e8 00 00 00 00	 call	 __RTC_CheckEsp
  00feb	8b e5		 mov	 esp, ebp
  00fed	5d		 pop	 ebp
  00fee	c2 08 00	 ret	 8
?SetDownPercent@DownPercentWnd@@QAEXN@Z ENDP		; DownPercentWnd::SetDownPercent
_TEXT	ENDS
PUBLIC	?clear@?$vector@V?$basic_string@DU?$char_traits@D@std@@V?$allocator@D@2@@std@@V?$allocator@V?$basic_string@DU?$char_traits@D@std@@V?$allocator@D@2@@std@@@2@@std@@QAEXXZ ; std::vector<std::basic_string<char,std::char_traits<char>,std::allocator<char> >,std::allocator<std::basic_string<char,std::char_traits<char>,std::allocator<char> > > >::clear
PUBLIC	?SetText@DownPercentWnd@@QAEXAAV?$vector@V?$basic_string@DU?$char_traits@D@std@@V?$allocator@D@2@@std@@V?$allocator@V?$basic_string@DU?$char_traits@D@std@@V?$allocator@D@2@@std@@@2@@std@@@Z ; DownPercentWnd::SetText
PUBLIC	??$back_inserter@V?$vector@V?$basic_string@DU?$char_traits@D@std@@V?$allocator@D@2@@std@@V?$allocator@V?$basic_string@DU?$char_traits@D@std@@V?$allocator@D@2@@std@@@2@@std@@@std@@YA?AV?$back_insert_iterator@V?$vector@V?$basic_string@DU?$char_traits@D@std@@V?$allocator@D@2@@std@@V?$allocator@V?$basic_string@DU?$char_traits@D@std@@V?$allocator@D@2@@std@@@2@@std@@@0@AAV?$vector@V?$basic_string@DU?$char_traits@D@std@@V?$allocator@D@2@@std@@V?$allocator@V?$basic_string@DU?$char_traits@D@std@@V?$allocator@D@2@@std@@@2@@0@@Z ; std::back_inserter<std::vector<std::basic_string<char,std::char_traits<char>,std::allocator<char> >,std::allocator<std::basic_string<char,std::char_traits<char>,std::allocator<char> > > > >
PUBLIC	??$copy@Viterator@?$vector@V?$basic_string@DU?$char_traits@D@std@@V?$allocator@D@2@@std@@V?$allocator@V?$basic_string@DU?$char_traits@D@std@@V?$allocator@D@2@@std@@@2@@std@@V?$back_insert_iterator@V?$vector@V?$basic_string@DU?$char_traits@D@std@@V?$allocator@D@2@@std@@V?$allocator@V?$basic_string@DU?$char_traits@D@std@@V?$allocator@D@2@@std@@@2@@std@@@3@@std@@YA?AV?$back_insert_iterator@V?$vector@V?$basic_string@DU?$char_traits@D@std@@V?$allocator@D@2@@std@@V?$allocator@V?$basic_string@DU?$char_traits@D@std@@V?$allocator@D@2@@std@@@2@@std@@@0@Viterator@?$vector@V?$basic_string@DU?$char_traits@D@std@@V?$allocator@D@2@@std@@V?$allocator@V?$basic_string@DU?$char_traits@D@std@@V?$allocator@D@2@@std@@@2@@0@0V10@@Z ; std::copy<std::vector<std::basic_string<char,std::char_traits<char>,std::allocator<char> >,std::allocator<std::basic_string<char,std::char_traits<char>,std::allocator<char> > > >::iterator,std::back_insert_iterator<std::vector<std::basic_string<char,std::char_traits<char>,std::allocator<char> >,std::allocator<std::basic_string<char,std::char_traits<char>,std::allocator<char> > > > > >
PUBLIC	?begin@?$vector@V?$basic_string@DU?$char_traits@D@std@@V?$allocator@D@2@@std@@V?$allocator@V?$basic_string@DU?$char_traits@D@std@@V?$allocator@D@2@@std@@@2@@std@@QAE?AViterator@12@XZ ; std::vector<std::basic_string<char,std::char_traits<char>,std::allocator<char> >,std::allocator<std::basic_string<char,std::char_traits<char>,std::allocator<char> > > >::begin
PUBLIC	?end@?$vector@V?$basic_string@DU?$char_traits@D@std@@V?$allocator@D@2@@std@@V?$allocator@V?$basic_string@DU?$char_traits@D@std@@V?$allocator@D@2@@std@@@2@@std@@QAE?AViterator@12@XZ ; std::vector<std::basic_string<char,std::char_traits<char>,std::allocator<char> >,std::allocator<std::basic_string<char,std::char_traits<char>,std::allocator<char> > > >::end
; Function compile flags: /Odt /RTCsu
_TEXT	SEGMENT
$T190632 = -20						; size = 4
$T190631 = -16						; size = 4
$T190630 = -12						; size = 4
$T190629 = -8						; size = 4
_this$ = -4						; size = 4
_vecText$ = 8						; size = 4
?SetText@DownPercentWnd@@QAEXAAV?$vector@V?$basic_string@DU?$char_traits@D@std@@V?$allocator@D@2@@std@@V?$allocator@V?$basic_string@DU?$char_traits@D@std@@V?$allocator@D@2@@std@@@2@@std@@@Z PROC NEAR ; DownPercentWnd::SetText
; _this$ = ecx

; 209  : {

  01000	55		 push	 ebp
  01001	8b ec		 mov	 ebp, esp
  01003	83 ec 14	 sub	 esp, 20			; 00000014H
  01006	b8 cc cc cc cc	 mov	 eax, -858993460		; ccccccccH
  0100b	89 45 ec	 mov	 DWORD PTR [ebp-20], eax
  0100e	89 45 f0	 mov	 DWORD PTR [ebp-16], eax
  01011	89 45 f4	 mov	 DWORD PTR [ebp-12], eax
  01014	89 45 f8	 mov	 DWORD PTR [ebp-8], eax
  01017	89 45 fc	 mov	 DWORD PTR [ebp-4], eax
  0101a	89 4d fc	 mov	 DWORD PTR _this$[ebp], ecx

; 210  : 	m_vecText.clear();

  0101d	8b 4d fc	 mov	 ecx, DWORD PTR _this$[ebp]
  01020	83 c1 70	 add	 ecx, 112		; 00000070H
  01023	e8 00 00 00 00	 call	 ?clear@?$vector@V?$basic_string@DU?$char_traits@D@std@@V?$allocator@D@2@@std@@V?$allocator@V?$basic_string@DU?$char_traits@D@std@@V?$allocator@D@2@@std@@@2@@std@@QAEXXZ ; std::vector<std::basic_string<char,std::char_traits<char>,std::allocator<char> >,std::allocator<std::basic_string<char,std::char_traits<char>,std::allocator<char> > > >::clear

; 211  : 	copy( vecText.begin(), vecText.end(), back_inserter(m_vecText) );

  01028	8b 45 fc	 mov	 eax, DWORD PTR _this$[ebp]
  0102b	83 c0 70	 add	 eax, 112		; 00000070H
  0102e	50		 push	 eax
  0102f	8d 4d f8	 lea	 ecx, DWORD PTR $T190629[ebp]
  01032	51		 push	 ecx
  01033	e8 00 00 00 00	 call	 ??$back_inserter@V?$vector@V?$basic_string@DU?$char_traits@D@std@@V?$allocator@D@2@@std@@V?$allocator@V?$basic_string@DU?$char_traits@D@std@@V?$allocator@D@2@@std@@@2@@std@@@std@@YA?AV?$back_insert_iterator@V?$vector@V?$basic_string@DU?$char_traits@D@std@@V?$allocator@D@2@@std@@V?$allocator@V?$basic_string@DU?$char_traits@D@std@@V?$allocator@D@2@@std@@@2@@std@@@0@AAV?$vector@V?$basic_string@DU?$char_traits@D@std@@V?$allocator@D@2@@std@@V?$allocator@V?$basic_string@DU?$char_traits@D@std@@V?$allocator@D@2@@std@@@2@@0@@Z ; std::back_inserter<std::vector<std::basic_string<char,std::char_traits<char>,std::allocator<char> >,std::allocator<std::basic_string<char,std::char_traits<char>,std::allocator<char> > > > >
  01038	83 c4 08	 add	 esp, 8
  0103b	8b 10		 mov	 edx, DWORD PTR [eax]
  0103d	52		 push	 edx
  0103e	8d 45 f4	 lea	 eax, DWORD PTR $T190630[ebp]
  01041	50		 push	 eax
  01042	8b 4d 08	 mov	 ecx, DWORD PTR _vecText$[ebp]
  01045	e8 00 00 00 00	 call	 ?end@?$vector@V?$basic_string@DU?$char_traits@D@std@@V?$allocator@D@2@@std@@V?$allocator@V?$basic_string@DU?$char_traits@D@std@@V?$allocator@D@2@@std@@@2@@std@@QAE?AViterator@12@XZ ; std::vector<std::basic_string<char,std::char_traits<char>,std::allocator<char> >,std::allocator<std::basic_string<char,std::char_traits<char>,std::allocator<char> > > >::end
  0104a	8b 08		 mov	 ecx, DWORD PTR [eax]
  0104c	51		 push	 ecx
  0104d	8d 55 f0	 lea	 edx, DWORD PTR $T190631[ebp]
  01050	52		 push	 edx
  01051	8b 4d 08	 mov	 ecx, DWORD PTR _vecText$[ebp]
  01054	e8 00 00 00 00	 call	 ?begin@?$vector@V?$basic_string@DU?$char_traits@D@std@@V?$allocator@D@2@@std@@V?$allocator@V?$basic_string@DU?$char_traits@D@std@@V?$allocator@D@2@@std@@@2@@std@@QAE?AViterator@12@XZ ; std::vector<std::basic_string<char,std::char_traits<char>,std::allocator<char> >,std::allocator<std::basic_string<char,std::char_traits<char>,std::allocator<char> > > >::begin
  01059	8b 00		 mov	 eax, DWORD PTR [eax]
  0105b	50		 push	 eax
  0105c	8d 4d ec	 lea	 ecx, DWORD PTR $T190632[ebp]
  0105f	51		 push	 ecx
  01060	e8 00 00 00 00	 call	 ??$copy@Viterator@?$vector@V?$basic_string@DU?$char_traits@D@std@@V?$allocator@D@2@@std@@V?$allocator@V?$basic_string@DU?$char_traits@D@std@@V?$allocator@D@2@@std@@@2@@std@@V?$back_insert_iterator@V?$vector@V?$basic_string@DU?$char_traits@D@std@@V?$allocator@D@2@@std@@V?$allocator@V?$basic_string@DU?$char_traits@D@std@@V?$allocator@D@2@@std@@@2@@std@@@3@@std@@YA?AV?$back_insert_iterator@V?$vector@V?$basic_string@DU?$char_traits@D@std@@V?$allocator@D@2@@std@@V?$allocator@V?$basic_string@DU?$char_traits@D@std@@V?$allocator@D@2@@std@@@2@@std@@@0@Viterator@?$vector@V?$basic_string@DU?$char_traits@D@std@@V?$allocator@D@2@@std@@V?$allocator@V?$basic_string@DU?$char_traits@D@std@@V?$allocator@D@2@@std@@@2@@0@0V10@@Z ; std::copy<std::vector<std::basic_string<char,std::char_traits<char>,std::allocator<char> >,std::allocator<std::basic_string<char,std::char_traits<char>,std::allocator<char> > > >::iterator,std::back_insert_iterator<std::vector<std::basic_string<char,std::char_traits<char>,std::allocator<char> >,std::allocator<std::basic_string<char,std::char_traits<char>,std::allocator<char> > > > > >
  01065	83 c4 10	 add	 esp, 16			; 00000010H

; 212  : }

  01068	83 c4 14	 add	 esp, 20			; 00000014H
  0106b	3b ec		 cmp	 ebp, esp
  0106d	e8 00 00 00 00	 call	 __RTC_CheckEsp
  01072	8b e5		 mov	 esp, ebp
  01074	5d		 pop	 ebp
  01075	c2 04 00	 ret	 4
?SetText@DownPercentWnd@@QAEXAAV?$vector@V?$basic_string@DU?$char_traits@D@std@@V?$allocator@D@2@@std@@V?$allocator@V?$basic_string@DU?$char_traits@D@std@@V?$allocator@D@2@@std@@@2@@std@@@Z ENDP ; DownPercentWnd::SetText
_TEXT	ENDS
PUBLIC	?SetFailed@DownPercentWnd@@QAEX_N@Z		; DownPercentWnd::SetFailed
; Function compile flags: /Odt /RTCsu
_TEXT	SEGMENT
_this$ = -4						; size = 4
_bFailed$ = 8						; size = 1
?SetFailed@DownPercentWnd@@QAEX_N@Z PROC NEAR		; DownPercentWnd::SetFailed
; _this$ = ecx

; 215  : {

  01080	55		 push	 ebp
  01081	8b ec		 mov	 ebp, esp
  01083	51		 push	 ecx
  01084	c7 45 fc cc cc
	cc cc		 mov	 DWORD PTR [ebp-4], -858993460 ; ccccccccH
  0108b	89 4d fc	 mov	 DWORD PTR _this$[ebp], ecx

; 216  : 	m_isFailed = bFailed;

  0108e	8b 45 fc	 mov	 eax, DWORD PTR _this$[ebp]
  01091	8a 4d 08	 mov	 cl, BYTE PTR _bFailed$[ebp]
  01094	88 48 58	 mov	 BYTE PTR [eax+88], cl

; 217  : }

  01097	8b e5		 mov	 esp, ebp
  01099	5d		 pop	 ebp
  0109a	c2 04 00	 ret	 4
?SetFailed@DownPercentWnd@@QAEX_N@Z ENDP		; DownPercentWnd::SetFailed
; Function compile flags: /Odt /RTCsu
tv66 = -12						; size = 4
_pSkinMgr$ = -8						; size = 4
_this$ = -4						; size = 4
?LoadSkin@DownPercentWnd@@UAEXXZ PROC NEAR		; DownPercentWnd::LoadSkin
; _this$ = ecx

; 220  : {

  010a0	55		 push	 ebp
  010a1	8b ec		 mov	 ebp, esp
  010a3	83 ec 0c	 sub	 esp, 12			; 0000000cH
  010a6	56		 push	 esi
  010a7	c7 45 f4 cc cc
	cc cc		 mov	 DWORD PTR [ebp-12], -858993460 ; ccccccccH
  010ae	c7 45 f8 cc cc
	cc cc		 mov	 DWORD PTR [ebp-8], -858993460 ; ccccccccH
  010b5	c7 45 fc cc cc
	cc cc		 mov	 DWORD PTR [ebp-4], -858993460 ; ccccccccH
  010bc	89 4d fc	 mov	 DWORD PTR _this$[ebp], ecx

; 221  : 	ISkinMgr* pSkinMgr = AfxGetUIManager()->UIGetSkinMgr();

  010bf	e8 00 00 00 00	 call	 ?AfxGetUIManager@@YAPAVIUIManager@@XZ ; AfxGetUIManager
  010c4	89 45 f4	 mov	 DWORD PTR tv66[ebp], eax
  010c7	8b 45 f4	 mov	 eax, DWORD PTR tv66[ebp]
  010ca	8b 10		 mov	 edx, DWORD PTR [eax]
  010cc	8b f4		 mov	 esi, esp
  010ce	8b 4d f4	 mov	 ecx, DWORD PTR tv66[ebp]
  010d1	ff 52 28	 call	 DWORD PTR [edx+40]
  010d4	3b f4		 cmp	 esi, esp
  010d6	e8 00 00 00 00	 call	 __RTC_CheckEsp
  010db	89 45 f8	 mov	 DWORD PTR _pSkinMgr$[ebp], eax

; 222  : 	m_colText  = pSkinMgr->GetColor( "DownProgressWndTextColor" );

  010de	8b f4		 mov	 esi, esp
  010e0	68 00 00 00 00	 push	 OFFSET FLAT:$SG189257
  010e5	8b 45 f8	 mov	 eax, DWORD PTR _pSkinMgr$[ebp]
  010e8	8b 10		 mov	 edx, DWORD PTR [eax]
  010ea	8b 4d f8	 mov	 ecx, DWORD PTR _pSkinMgr$[ebp]
  010ed	ff 52 08	 call	 DWORD PTR [edx+8]
  010f0	3b f4		 cmp	 esi, esp
  010f2	e8 00 00 00 00	 call	 __RTC_CheckEsp
  010f7	8b 4d fc	 mov	 ecx, DWORD PTR _this$[ebp]
  010fa	89 41 30	 mov	 DWORD PTR [ecx+48], eax

; 223  : 	m_pBmpBgL  = pSkinMgr->GetDibBmp( "Lo_Bg_L" );

  010fd	8b f4		 mov	 esi, esp
  010ff	68 00 00 00 00	 push	 OFFSET FLAT:$SG189258
  01104	8b 55 f8	 mov	 edx, DWORD PTR _pSkinMgr$[ebp]
  01107	8b 02		 mov	 eax, DWORD PTR [edx]
  01109	8b 4d f8	 mov	 ecx, DWORD PTR _pSkinMgr$[ebp]
  0110c	ff 50 04	 call	 DWORD PTR [eax+4]
  0110f	3b f4		 cmp	 esi, esp
  01111	e8 00 00 00 00	 call	 __RTC_CheckEsp
  01116	8b 4d fc	 mov	 ecx, DWORD PTR _this$[ebp]
  01119	89 41 34	 mov	 DWORD PTR [ecx+52], eax

; 224  : 	m_pBmpBgM  = pSkinMgr->GetDibBmp( "Lo_Bg_M" );

  0111c	8b f4		 mov	 esi, esp
  0111e	68 00 00 00 00	 push	 OFFSET FLAT:$SG189259
  01123	8b 55 f8	 mov	 edx, DWORD PTR _pSkinMgr$[ebp]
  01126	8b 02		 mov	 eax, DWORD PTR [edx]
  01128	8b 4d f8	 mov	 ecx, DWORD PTR _pSkinMgr$[ebp]
  0112b	ff 50 04	 call	 DWORD PTR [eax+4]
  0112e	3b f4		 cmp	 esi, esp
  01130	e8 00 00 00 00	 call	 __RTC_CheckEsp
  01135	8b 4d fc	 mov	 ecx, DWORD PTR _this$[ebp]
  01138	89 41 38	 mov	 DWORD PTR [ecx+56], eax

; 225  : 	m_pBmpBgR  = pSkinMgr->GetDibBmp( "Lo_Bg_R" );

  0113b	8b f4		 mov	 esi, esp
  0113d	68 00 00 00 00	 push	 OFFSET FLAT:$SG189260
  01142	8b 55 f8	 mov	 edx, DWORD PTR _pSkinMgr$[ebp]
  01145	8b 02		 mov	 eax, DWORD PTR [edx]
  01147	8b 4d f8	 mov	 ecx, DWORD PTR _pSkinMgr$[ebp]
  0114a	ff 50 04	 call	 DWORD PTR [eax+4]
  0114d	3b f4		 cmp	 esi, esp
  0114f	e8 00 00 00 00	 call	 __RTC_CheckEsp
  01154	8b 4d fc	 mov	 ecx, DWORD PTR _this$[ebp]
  01157	89 41 3c	 mov	 DWORD PTR [ecx+60], eax

; 226  : 	m_pBmpM    = pSkinMgr->GetDibBmp( "Lo_M" );

  0115a	8b f4		 mov	 esi, esp
  0115c	68 00 00 00 00	 push	 OFFSET FLAT:$SG189261
  01161	8b 55 f8	 mov	 edx, DWORD PTR _pSkinMgr$[ebp]
  01164	8b 02		 mov	 eax, DWORD PTR [edx]
  01166	8b 4d f8	 mov	 ecx, DWORD PTR _pSkinMgr$[ebp]
  01169	ff 50 04	 call	 DWORD PTR [eax+4]
  0116c	3b f4		 cmp	 esi, esp
  0116e	e8 00 00 00 00	 call	 __RTC_CheckEsp
  01173	8b 4d fc	 mov	 ecx, DWORD PTR _this$[ebp]
  01176	89 41 40	 mov	 DWORD PTR [ecx+64], eax

; 227  : }

  01179	5e		 pop	 esi
  0117a	83 c4 0c	 add	 esp, 12			; 0000000cH
  0117d	3b ec		 cmp	 ebp, esp
  0117f	e8 00 00 00 00	 call	 __RTC_CheckEsp
  01184	8b e5		 mov	 esp, ebp
  01186	5d		 pop	 ebp
  01187	c3		 ret	 0
?LoadSkin@DownPercentWnd@@UAEXXZ ENDP			; DownPercentWnd::LoadSkin
_TEXT	ENDS
EXTRN	?OnDestroy@CWnd@@IAEXXZ:NEAR			; CWnd::OnDestroy
; Function compile flags: /Odt /RTCsu
_TEXT	SEGMENT
tv71 = -16						; size = 4
tv66 = -12						; size = 4
tv76 = -8						; size = 4
_this$ = -4						; size = 4
?OnDestroy@DownPercentWnd@@QAEXXZ PROC NEAR		; DownPercentWnd::OnDestroy
; _this$ = ecx

; 229  : {

  01190	55		 push	 ebp
  01191	8b ec		 mov	 ebp, esp
  01193	83 ec 10	 sub	 esp, 16			; 00000010H
  01196	56		 push	 esi
  01197	b8 cc cc cc cc	 mov	 eax, -858993460		; ccccccccH
  0119c	89 45 f0	 mov	 DWORD PTR [ebp-16], eax
  0119f	89 45 f4	 mov	 DWORD PTR [ebp-12], eax
  011a2	89 45 f8	 mov	 DWORD PTR [ebp-8], eax
  011a5	89 45 fc	 mov	 DWORD PTR [ebp-4], eax
  011a8	89 4d fc	 mov	 DWORD PTR _this$[ebp], ecx

; 230  : 	AfxGetUIManager()->UIGetSkinMgr()->RemoveSkinWnd( this );

  011ab	83 7d fc 00	 cmp	 DWORD PTR _this$[ebp], 0
  011af	74 0b		 je	 SHORT $L190636
  011b1	8b 45 fc	 mov	 eax, DWORD PTR _this$[ebp]
  011b4	83 c0 54	 add	 eax, 84			; 00000054H
  011b7	89 45 f8	 mov	 DWORD PTR tv76[ebp], eax
  011ba	eb 07		 jmp	 SHORT $L190637
$L190636:
  011bc	c7 45 f8 00 00
	00 00		 mov	 DWORD PTR tv76[ebp], 0
$L190637:
  011c3	e8 00 00 00 00	 call	 ?AfxGetUIManager@@YAPAVIUIManager@@XZ ; AfxGetUIManager
  011c8	89 45 f4	 mov	 DWORD PTR tv66[ebp], eax
  011cb	8b f4		 mov	 esi, esp
  011cd	8b 4d f4	 mov	 ecx, DWORD PTR tv66[ebp]
  011d0	8b 11		 mov	 edx, DWORD PTR [ecx]
  011d2	8b 4d f4	 mov	 ecx, DWORD PTR tv66[ebp]
  011d5	ff 52 28	 call	 DWORD PTR [edx+40]
  011d8	3b f4		 cmp	 esi, esp
  011da	e8 00 00 00 00	 call	 __RTC_CheckEsp
  011df	89 45 f0	 mov	 DWORD PTR tv71[ebp], eax
  011e2	8b f4		 mov	 esi, esp
  011e4	8b 45 f8	 mov	 eax, DWORD PTR tv76[ebp]
  011e7	50		 push	 eax
  011e8	8b 4d f0	 mov	 ecx, DWORD PTR tv71[ebp]
  011eb	8b 11		 mov	 edx, DWORD PTR [ecx]
  011ed	8b 4d f0	 mov	 ecx, DWORD PTR tv71[ebp]
  011f0	ff 52 18	 call	 DWORD PTR [edx+24]
  011f3	3b f4		 cmp	 esi, esp
  011f5	e8 00 00 00 00	 call	 __RTC_CheckEsp

; 231  : 	__super::OnDestroy();

  011fa	8b 4d fc	 mov	 ecx, DWORD PTR _this$[ebp]
  011fd	e8 00 00 00 00	 call	 ?OnDestroy@CWnd@@IAEXXZ	; CWnd::OnDestroy

; 232  : }

  01202	5e		 pop	 esi
  01203	83 c4 10	 add	 esp, 16			; 00000010H
  01206	3b ec		 cmp	 ebp, esp
  01208	e8 00 00 00 00	 call	 __RTC_CheckEsp
  0120d	8b e5		 mov	 esp, ebp
  0120f	5d		 pop	 ebp
  01210	c3		 ret	 0
?OnDestroy@DownPercentWnd@@QAEXXZ ENDP			; DownPercentWnd::OnDestroy
_TEXT	ENDS
PUBLIC	?InterlockedExchangePointer@@YGPAXPAPAXPAX@Z	; InterlockedExchangePointer
PUBLIC	?_AtlGetThreadACPFake@ATL@@YGIXZ		; ATL::_AtlGetThreadACPFake
PUBLIC	?_AtlGetThreadACPReal@ATL@@YGIXZ		; ATL::_AtlGetThreadACPReal
EXTRN	__imp__GetVersionExA@4:NEAR
; Function compile flags: /Odt /RTCsu
; File d:\program files (x86)\microsoft visual studio .net 2003\vc7\atlmfc\include\atlconv.h
;	COMDAT ?_AtlGetThreadACPThunk@ATL@@YGIXZ
_TEXT	SEGMENT
_pfnGetThreadACP$ = -164				; size = 4
_ver$ = -156						; size = 148
__$ArrayPad$ = -4					; size = 4
__$ReturnAddr$ = 4					; size = 4
?_AtlGetThreadACPThunk@ATL@@YGIXZ PROC NEAR		; ATL::_AtlGetThreadACPThunk, COMDAT

; 134  : {

  00000	55		 push	 ebp
  00001	8b ec		 mov	 ebp, esp
  00003	81 ec a4 00 00
	00		 sub	 esp, 164		; 000000a4H
  00009	56		 push	 esi
  0000a	57		 push	 edi
  0000b	8d bd 5c ff ff
	ff		 lea	 edi, DWORD PTR [ebp-164]
  00011	b9 29 00 00 00	 mov	 ecx, 41			; 00000029H
  00016	b8 cc cc cc cc	 mov	 eax, -858993460		; ccccccccH
  0001b	f3 ab		 rep stosd
  0001d	a1 00 00 00 00	 mov	 eax, DWORD PTR ___security_cookie
  00022	89 45 fc	 mov	 DWORD PTR __$ArrayPad$[ebp], eax

; 135  : 	OSVERSIONINFO ver;
; 136  : 	ATLGETTHREADACP pfnGetThreadACP;
; 137  : 
; 138  : 	ver.dwOSVersionInfoSize = sizeof( ver );

  00025	c7 85 64 ff ff
	ff 94 00 00 00	 mov	 DWORD PTR _ver$[ebp], 148 ; 00000094H

; 139  : 	::GetVersionEx( &ver );

  0002f	8b f4		 mov	 esi, esp
  00031	8d 85 64 ff ff
	ff		 lea	 eax, DWORD PTR _ver$[ebp]
  00037	50		 push	 eax
  00038	ff 15 00 00 00
	00		 call	 DWORD PTR __imp__GetVersionExA@4
  0003e	3b f4		 cmp	 esi, esp
  00040	e8 00 00 00 00	 call	 __RTC_CheckEsp

; 140  : 	if( (ver.dwPlatformId == VER_PLATFORM_WIN32_NT) && (ver.dwMajorVersion >= 5) )

  00045	83 bd 74 ff ff
	ff 02		 cmp	 DWORD PTR _ver$[ebp+16], 2
  0004c	75 15		 jne	 SHORT $L24163
  0004e	83 bd 68 ff ff
	ff 05		 cmp	 DWORD PTR _ver$[ebp+4], 5
  00055	72 0c		 jb	 SHORT $L24163

; 141  : 	{
; 142  : 		// On Win2K, CP_THREAD_ACP is supported
; 143  : 		pfnGetThreadACP = _AtlGetThreadACPReal;

  00057	c7 85 5c ff ff
	ff 00 00 00 00	 mov	 DWORD PTR _pfnGetThreadACP$[ebp], OFFSET FLAT:?_AtlGetThreadACPReal@ATL@@YGIXZ ; ATL::_AtlGetThreadACPReal

; 144  : 	}
; 145  : 	else

  00061	eb 0a		 jmp	 SHORT $L24164
$L24163:

; 146  : 	{
; 147  : 		pfnGetThreadACP = _AtlGetThreadACPFake;

  00063	c7 85 5c ff ff
	ff 00 00 00 00	 mov	 DWORD PTR _pfnGetThreadACP$[ebp], OFFSET FLAT:?_AtlGetThreadACPFake@ATL@@YGIXZ ; ATL::_AtlGetThreadACPFake
$L24164:

; 148  : 	}
; 149  : 	InterlockedExchangePointer( reinterpret_cast< void** >(&g_pfnGetThreadACP), pfnGetThreadACP );

  0006d	8b 8d 5c ff ff
	ff		 mov	 ecx, DWORD PTR _pfnGetThreadACP$[ebp]
  00073	51		 push	 ecx
  00074	68 00 00 00 00	 push	 OFFSET FLAT:?g_pfnGetThreadACP@ATL@@3P6GIXZA ; ATL::g_pfnGetThreadACP
  00079	e8 00 00 00 00	 call	 ?InterlockedExchangePointer@@YGPAXPAPAXPAX@Z ; InterlockedExchangePointer

; 150  : 
; 151  : 	return( g_pfnGetThreadACP() );

  0007e	8b f4		 mov	 esi, esp
  00080	ff 15 00 00 00
	00		 call	 DWORD PTR ?g_pfnGetThreadACP@ATL@@3P6GIXZA ; ATL::g_pfnGetThreadACP
  00086	3b f4		 cmp	 esi, esp
  00088	e8 00 00 00 00	 call	 __RTC_CheckEsp

; 152  : }

  0008d	52		 push	 edx
  0008e	8b cd		 mov	 ecx, ebp
  00090	50		 push	 eax
  00091	8d 15 00 00 00
	00		 lea	 edx, DWORD PTR $L190643
  00097	e8 00 00 00 00	 call	 @_RTC_CheckStackVars@8
  0009c	58		 pop	 eax
  0009d	5a		 pop	 edx
  0009e	8b 4d fc	 mov	 ecx, DWORD PTR __$ArrayPad$[ebp]
  000a1	e8 00 00 00 00	 call	 @__security_check_cookie@4
  000a6	5f		 pop	 edi
  000a7	5e		 pop	 esi
  000a8	81 c4 a4 00 00
	00		 add	 esp, 164		; 000000a4H
  000ae	3b ec		 cmp	 ebp, esp
  000b0	e8 00 00 00 00	 call	 __RTC_CheckEsp
  000b5	8b e5		 mov	 esp, ebp
  000b7	5d		 pop	 ebp
  000b8	c3		 ret	 0
$L190643:
  000b9	01 00 00 00	 DD	 1
  000bd	00 00 00 00	 DD	 $L190642
$L190642:
  000c1	64 ff ff ff	 DD	 -156			; ffffff64H
  000c5	94 00 00 00	 DD	 148			; 00000094H
  000c9	00 00 00 00	 DD	 $L190640
$L190640:
  000cd	76		 DB	 118			; 00000076H
  000ce	65		 DB	 101			; 00000065H
  000cf	72		 DB	 114			; 00000072H
  000d0	00		 DB	 0
?_AtlGetThreadACPThunk@ATL@@YGIXZ ENDP			; ATL::_AtlGetThreadACPThunk
_TEXT	ENDS
EXTRN	__imp__InterlockedExchange@8:NEAR
; Function compile flags: /Odt /RTCsu
;	COMDAT ?InterlockedExchangePointer@@YGPAXPAPAXPAX@Z
_TEXT	SEGMENT
_pp$ = 8						; size = 4
_pNew$ = 12						; size = 4
?InterlockedExchangePointer@@YGPAXPAPAXPAX@Z PROC NEAR	; InterlockedExchangePointer, COMDAT

; 91   : {

  00000	55		 push	 ebp
  00001	8b ec		 mov	 ebp, esp
  00003	56		 push	 esi

; 92   : 	return( reinterpret_cast<void*>(static_cast<LONG_PTR>(::InterlockedExchange(reinterpret_cast<LONG*>(pp), static_cast<LONG>(reinterpret_cast<LONG_PTR>(pNew))))) );

  00004	8b f4		 mov	 esi, esp
  00006	8b 45 0c	 mov	 eax, DWORD PTR _pNew$[ebp]
  00009	50		 push	 eax
  0000a	8b 4d 08	 mov	 ecx, DWORD PTR _pp$[ebp]
  0000d	51		 push	 ecx
  0000e	ff 15 00 00 00
	00		 call	 DWORD PTR __imp__InterlockedExchange@8
  00014	3b f4		 cmp	 esi, esp
  00016	e8 00 00 00 00	 call	 __RTC_CheckEsp

; 93   : }

  0001b	5e		 pop	 esi
  0001c	3b ec		 cmp	 ebp, esp
  0001e	e8 00 00 00 00	 call	 __RTC_CheckEsp
  00023	5d		 pop	 ebp
  00024	c2 08 00	 ret	 8
?InterlockedExchangePointer@@YGPAXPAPAXPAX@Z ENDP	; InterlockedExchangePointer
_TEXT	ENDS
EXTRN	__imp__GetACP@0:NEAR
EXTRN	__imp__GetLocaleInfoA@16:NEAR
EXTRN	__imp__GetThreadLocale@0:NEAR
; Function compile flags: /Odt /RTCsu
;	COMDAT ?_AtlGetThreadACPFake@ATL@@YGIXZ
_TEXT	SEGMENT
_pch$24151 = -32					; size = 4
_szACP$ = -24						; size = 7
_lcidThread$ = -12					; size = 4
_nACP$ = -8						; size = 4
__$ArrayPad$ = -4					; size = 4
__$ReturnAddr$ = 4					; size = 4
?_AtlGetThreadACPFake@ATL@@YGIXZ PROC NEAR		; ATL::_AtlGetThreadACPFake, COMDAT

; 101  : {

  00000	55		 push	 ebp
  00001	8b ec		 mov	 ebp, esp
  00003	83 ec 20	 sub	 esp, 32			; 00000020H
  00006	56		 push	 esi
  00007	b8 cc cc cc cc	 mov	 eax, -858993460		; ccccccccH
  0000c	89 45 e0	 mov	 DWORD PTR [ebp-32], eax
  0000f	89 45 e4	 mov	 DWORD PTR [ebp-28], eax
  00012	89 45 e8	 mov	 DWORD PTR [ebp-24], eax
  00015	89 45 ec	 mov	 DWORD PTR [ebp-20], eax
  00018	89 45 f0	 mov	 DWORD PTR [ebp-16], eax
  0001b	89 45 f4	 mov	 DWORD PTR [ebp-12], eax
  0001e	89 45 f8	 mov	 DWORD PTR [ebp-8], eax
  00021	89 45 fc	 mov	 DWORD PTR [ebp-4], eax
  00024	a1 00 00 00 00	 mov	 eax, DWORD PTR ___security_cookie
  00029	89 45 fc	 mov	 DWORD PTR __$ArrayPad$[ebp], eax

; 102  : 	UINT nACP = 0;

  0002c	c7 45 f8 00 00
	00 00		 mov	 DWORD PTR _nACP$[ebp], 0

; 103  : 
; 104  : 	LCID lcidThread = ::GetThreadLocale();

  00033	8b f4		 mov	 esi, esp
  00035	ff 15 00 00 00
	00		 call	 DWORD PTR __imp__GetThreadLocale@0
  0003b	3b f4		 cmp	 esi, esp
  0003d	e8 00 00 00 00	 call	 __RTC_CheckEsp
  00042	89 45 f4	 mov	 DWORD PTR _lcidThread$[ebp], eax

; 105  : 
; 106  : 	char szACP[7];
; 107  : 	// GetLocaleInfoA will fail for a Unicode-only LCID, but those are only supported on 
; 108  : 	// Windows 2000.  Since Windows 2000 supports CP_THREAD_ACP, this code path is never
; 109  : 	// executed on Windows 2000.
; 110  : 	if (::GetLocaleInfoA(lcidThread, LOCALE_IDEFAULTANSICODEPAGE, szACP, 7) != 0)

  00045	8b f4		 mov	 esi, esp
  00047	6a 07		 push	 7
  00049	8d 45 e8	 lea	 eax, DWORD PTR _szACP$[ebp]
  0004c	50		 push	 eax
  0004d	68 04 10 00 00	 push	 4100			; 00001004H
  00052	8b 4d f4	 mov	 ecx, DWORD PTR _lcidThread$[ebp]
  00055	51		 push	 ecx
  00056	ff 15 00 00 00
	00		 call	 DWORD PTR __imp__GetLocaleInfoA@16
  0005c	3b f4		 cmp	 esi, esp
  0005e	e8 00 00 00 00	 call	 __RTC_CheckEsp
  00063	85 c0		 test	 eax, eax
  00065	74 34		 je	 SHORT $L24150

; 111  : 	{
; 112  : 		char* pch = szACP;

  00067	8d 55 e8	 lea	 edx, DWORD PTR _szACP$[ebp]
  0006a	89 55 e0	 mov	 DWORD PTR _pch$24151[ebp], edx
$L24153:

; 113  : 		while (*pch != '\0')

  0006d	8b 45 e0	 mov	 eax, DWORD PTR _pch$24151[ebp]
  00070	0f be 08	 movsx	 ecx, BYTE PTR [eax]
  00073	85 c9		 test	 ecx, ecx
  00075	74 24		 je	 SHORT $L24150

; 114  : 		{
; 115  : 			nACP *= 10;

  00077	8b 55 f8	 mov	 edx, DWORD PTR _nACP$[ebp]
  0007a	6b d2 0a	 imul	 edx, 10			; 0000000aH
  0007d	89 55 f8	 mov	 DWORD PTR _nACP$[ebp], edx

; 116  : 			nACP += *pch++ - '0';

  00080	8b 45 e0	 mov	 eax, DWORD PTR _pch$24151[ebp]
  00083	0f be 08	 movsx	 ecx, BYTE PTR [eax]
  00086	8b 55 f8	 mov	 edx, DWORD PTR _nACP$[ebp]
  00089	8d 44 0a d0	 lea	 eax, DWORD PTR [edx+ecx-48]
  0008d	89 45 f8	 mov	 DWORD PTR _nACP$[ebp], eax
  00090	8b 4d e0	 mov	 ecx, DWORD PTR _pch$24151[ebp]
  00093	83 c1 01	 add	 ecx, 1
  00096	89 4d e0	 mov	 DWORD PTR _pch$24151[ebp], ecx

; 117  : 		}

  00099	eb d2		 jmp	 SHORT $L24153
$L24150:

; 118  : 	}
; 119  : 	// Use the Default ANSI Code Page if we were unable to get the thread ACP or if one does not exist.
; 120  : 	if (nACP == 0)

  0009b	83 7d f8 00	 cmp	 DWORD PTR _nACP$[ebp], 0
  0009f	75 12		 jne	 SHORT $L24155

; 121  : 		nACP = ::GetACP();

  000a1	8b f4		 mov	 esi, esp
  000a3	ff 15 00 00 00
	00		 call	 DWORD PTR __imp__GetACP@0
  000a9	3b f4		 cmp	 esi, esp
  000ab	e8 00 00 00 00	 call	 __RTC_CheckEsp
  000b0	89 45 f8	 mov	 DWORD PTR _nACP$[ebp], eax
$L24155:

; 122  : 
; 123  : 	return nACP;

  000b3	8b 45 f8	 mov	 eax, DWORD PTR _nACP$[ebp]

; 124  : }

  000b6	52		 push	 edx
  000b7	8b cd		 mov	 ecx, ebp
  000b9	50		 push	 eax
  000ba	8d 15 00 00 00
	00		 lea	 edx, DWORD PTR $L190650
  000c0	e8 00 00 00 00	 call	 @_RTC_CheckStackVars@8
  000c5	58		 pop	 eax
  000c6	5a		 pop	 edx
  000c7	8b 4d fc	 mov	 ecx, DWORD PTR __$ArrayPad$[ebp]
  000ca	e8 00 00 00 00	 call	 @__security_check_cookie@4
  000cf	5e		 pop	 esi
  000d0	83 c4 20	 add	 esp, 32			; 00000020H
  000d3	3b ec		 cmp	 ebp, esp
  000d5	e8 00 00 00 00	 call	 __RTC_CheckEsp
  000da	8b e5		 mov	 esp, ebp
  000dc	5d		 pop	 ebp
  000dd	c3		 ret	 0
$L190650:
  000de	01 00 00 00	 DD	 1
  000e2	00 00 00 00	 DD	 $L190649
$L190649:
  000e6	e8 ff ff ff	 DD	 -24			; ffffffe8H
  000ea	07 00 00 00	 DD	 7
  000ee	00 00 00 00	 DD	 $L190647
$L190647:
  000f2	73		 DB	 115			; 00000073H
  000f3	7a		 DB	 122			; 0000007aH
  000f4	41		 DB	 65			; 00000041H
  000f5	43		 DB	 67			; 00000043H
  000f6	50		 DB	 80			; 00000050H
  000f7	00		 DB	 0
?_AtlGetThreadACPFake@ATL@@YGIXZ ENDP			; ATL::_AtlGetThreadACPFake
; Function compile flags: /Odt /RTCsu
_TEXT	ENDS
;	COMDAT ?_AtlGetThreadACPReal@ATL@@YGIXZ
_TEXT	SEGMENT
?_AtlGetThreadACPReal@ATL@@YGIXZ PROC NEAR		; ATL::_AtlGetThreadACPReal, COMDAT

; 127  : {

  00000	55		 push	 ebp
  00001	8b ec		 mov	 ebp, esp

; 128  : 	return( CP_THREAD_ACP );

  00003	b8 03 00 00 00	 mov	 eax, 3

; 129  : }

  00008	5d		 pop	 ebp
  00009	c3		 ret	 0
?_AtlGetThreadACPReal@ATL@@YGIXZ ENDP			; ATL::_AtlGetThreadACPReal
_TEXT	ENDS
EXTRN	?OnMouseMove@CWnd@@IAEXIVCPoint@@@Z:NEAR	; CWnd::OnMouseMove
EXTRN	?PtInRect@CRect@@QBEHUtagPOINT@@@Z:NEAR		; CRect::PtInRect
EXTRN	__imp__SetCursor@4:NEAR
EXTRN	__imp__LoadCursorA@8:NEAR
; Function compile flags: /Odt /RTCsu
; File d:\boxgit\playbox\playbox\dev\prj\playbox\src\module\gamepanel\downpercentwnd.cpp
_TEXT	SEGMENT
$T190653 = -20						; size = 8
_m_hCursor$189277 = -12					; size = 4
_m_hCursor$189272 = -8					; size = 4
_this$ = -4						; size = 4
_nFlags$ = 8						; size = 4
_point$ = 12						; size = 8
?OnMouseMove@DownPercentWnd@@QAEXIVCPoint@@@Z PROC NEAR	; DownPercentWnd::OnMouseMove
; _this$ = ecx

; 235  : {

  01220	55		 push	 ebp
  01221	8b ec		 mov	 ebp, esp
  01223	83 ec 14	 sub	 esp, 20			; 00000014H
  01226	56		 push	 esi
  01227	b8 cc cc cc cc	 mov	 eax, -858993460		; ccccccccH
  0122c	89 45 ec	 mov	 DWORD PTR [ebp-20], eax
  0122f	89 45 f0	 mov	 DWORD PTR [ebp-16], eax
  01232	89 45 f4	 mov	 DWORD PTR [ebp-12], eax
  01235	89 45 f8	 mov	 DWORD PTR [ebp-8], eax
  01238	89 45 fc	 mov	 DWORD PTR [ebp-4], eax
  0123b	89 4d fc	 mov	 DWORD PTR _this$[ebp], ecx

; 236  : 	if( m_rcFlash.PtInRect( point ) )

  0123e	8b 45 0c	 mov	 eax, DWORD PTR _point$[ebp]
  01241	89 45 ec	 mov	 DWORD PTR $T190653[ebp], eax
  01244	8b 4d 10	 mov	 ecx, DWORD PTR _point$[ebp+4]
  01247	89 4d f0	 mov	 DWORD PTR $T190653[ebp+4], ecx
  0124a	8b 55 f0	 mov	 edx, DWORD PTR $T190653[ebp+4]
  0124d	52		 push	 edx
  0124e	8b 45 ec	 mov	 eax, DWORD PTR $T190653[ebp]
  01251	50		 push	 eax
  01252	8b 4d fc	 mov	 ecx, DWORD PTR _this$[ebp]
  01255	81 c1 9c 00 00
	00		 add	 ecx, 156		; 0000009cH
  0125b	e8 00 00 00 00	 call	 ?PtInRect@CRect@@QBEHUtagPOINT@@@Z ; CRect::PtInRect
  01260	85 c0		 test	 eax, eax
  01262	74 2e		 je	 SHORT $L189271

; 237  : 	{
; 238  : 		HCURSOR  m_hCursor = ::LoadCursor(NULL, IDC_HAND);

  01264	8b f4		 mov	 esi, esp
  01266	68 89 7f 00 00	 push	 32649			; 00007f89H
  0126b	6a 00		 push	 0
  0126d	ff 15 00 00 00
	00		 call	 DWORD PTR __imp__LoadCursorA@8
  01273	3b f4		 cmp	 esi, esp
  01275	e8 00 00 00 00	 call	 __RTC_CheckEsp
  0127a	89 45 f8	 mov	 DWORD PTR _m_hCursor$189272[ebp], eax

; 239  : 		::SetCursor(m_hCursor);

  0127d	8b f4		 mov	 esi, esp
  0127f	8b 4d f8	 mov	 ecx, DWORD PTR _m_hCursor$189272[ebp]
  01282	51		 push	 ecx
  01283	ff 15 00 00 00
	00		 call	 DWORD PTR __imp__SetCursor@4
  01289	3b f4		 cmp	 esi, esp
  0128b	e8 00 00 00 00	 call	 __RTC_CheckEsp

; 240  : 	}else

  01290	eb 2c		 jmp	 SHORT $L189276
$L189271:

; 241  : 	{
; 242  : 		HCURSOR  m_hCursor = ::LoadCursor(NULL, IDC_ARROW);

  01292	8b f4		 mov	 esi, esp
  01294	68 00 7f 00 00	 push	 32512			; 00007f00H
  01299	6a 00		 push	 0
  0129b	ff 15 00 00 00
	00		 call	 DWORD PTR __imp__LoadCursorA@8
  012a1	3b f4		 cmp	 esi, esp
  012a3	e8 00 00 00 00	 call	 __RTC_CheckEsp
  012a8	89 45 f4	 mov	 DWORD PTR _m_hCursor$189277[ebp], eax

; 243  : 		::SetCursor(m_hCursor);

  012ab	8b f4		 mov	 esi, esp
  012ad	8b 55 f4	 mov	 edx, DWORD PTR _m_hCursor$189277[ebp]
  012b0	52		 push	 edx
  012b1	ff 15 00 00 00
	00		 call	 DWORD PTR __imp__SetCursor@4
  012b7	3b f4		 cmp	 esi, esp
  012b9	e8 00 00 00 00	 call	 __RTC_CheckEsp
$L189276:

; 244  : 	}
; 245  : 	__super::OnMouseMove(nFlags, point);

  012be	8b 45 10	 mov	 eax, DWORD PTR _point$[ebp+4]
  012c1	50		 push	 eax
  012c2	8b 4d 0c	 mov	 ecx, DWORD PTR _point$[ebp]
  012c5	51		 push	 ecx
  012c6	8b 55 08	 mov	 edx, DWORD PTR _nFlags$[ebp]
  012c9	52		 push	 edx
  012ca	8b 4d fc	 mov	 ecx, DWORD PTR _this$[ebp]
  012cd	e8 00 00 00 00	 call	 ?OnMouseMove@CWnd@@IAEXIVCPoint@@@Z ; CWnd::OnMouseMove

; 246  : }

  012d2	5e		 pop	 esi
  012d3	83 c4 14	 add	 esp, 20			; 00000014H
  012d6	3b ec		 cmp	 ebp, esp
  012d8	e8 00 00 00 00	 call	 __RTC_CheckEsp
  012dd	8b e5		 mov	 esp, ebp
  012df	5d		 pop	 ebp
  012e0	c2 0c 00	 ret	 12			; 0000000cH
?OnMouseMove@DownPercentWnd@@QAEXIVCPoint@@@Z ENDP	; DownPercentWnd::OnMouseMove
; Function compile flags: /Odt /RTCsu
; File d:\program files (x86)\microsoft visual studio .net 2003\vc7\atlmfc\include\atlconv.h
_TEXT	ENDS
;	COMDAT ?_AtlGetConversionACP@ATL@@YGIXZ
_TEXT	SEGMENT
?_AtlGetConversionACP@ATL@@YGIXZ PROC NEAR		; ATL::_AtlGetConversionACP, COMDAT

; 157  : {

  00000	55		 push	 ebp
  00001	8b ec		 mov	 ebp, esp
  00003	56		 push	 esi

; 158  : 	return( g_pfnGetThreadACP() );

  00004	8b f4		 mov	 esi, esp
  00006	ff 15 00 00 00
	00		 call	 DWORD PTR ?g_pfnGetThreadACP@ATL@@3P6GIXZA ; ATL::g_pfnGetThreadACP
  0000c	3b f4		 cmp	 esi, esp
  0000e	e8 00 00 00 00	 call	 __RTC_CheckEsp

; 159  : }

  00013	5e		 pop	 esi
  00014	3b ec		 cmp	 ebp, esp
  00016	e8 00 00 00 00	 call	 __RTC_CheckEsp
  0001b	5d		 pop	 ebp
  0001c	c3		 ret	 0
?_AtlGetConversionACP@ATL@@YGIXZ ENDP			; ATL::_AtlGetConversionACP
_TEXT	ENDS
PUBLIC	??_C@_08DMHHBMMN@lpa?5?$CB?$DN?50?$AA@		; `string'
PUBLIC	??_C@_0FG@PFHCBDBK@D?3?2Program?5Files?5?$CIx86?$CJ?2Microsoft@ ; `string'
PUBLIC	??_C@_08DIHJLFDJ@lpw?5?$CB?$DN?50?$AA@		; `string'
PUBLIC	??_C@_01GBGANLPD@0?$AA@				; `string'
EXTRN	__imp___CrtDbgReport:NEAR
EXTRN	__imp__MultiByteToWideChar@24:NEAR
;	COMDAT ??_C@_08DMHHBMMN@lpa?5?$CB?$DN?50?$AA@
CONST	SEGMENT
??_C@_08DMHHBMMN@lpa?5?$CB?$DN?50?$AA@ DB 'lpa != 0', 00H ; `string'
CONST	ENDS
;	COMDAT ??_C@_0FG@PFHCBDBK@D?3?2Program?5Files?5?$CIx86?$CJ?2Microsoft@
CONST	SEGMENT
??_C@_0FG@PFHCBDBK@D?3?2Program?5Files?5?$CIx86?$CJ?2Microsoft@ DB 'D:\Pr'
	DB	'ogram Files (x86)\Microsoft Visual Studio .NET 2003\Vc7\atlmf'
	DB	'c\include\atlconv.h', 00H			; `string'
CONST	ENDS
;	COMDAT ??_C@_08DIHJLFDJ@lpw?5?$CB?$DN?50?$AA@
CONST	SEGMENT
??_C@_08DIHJLFDJ@lpw?5?$CB?$DN?50?$AA@ DB 'lpw != 0', 00H ; `string'
CONST	ENDS
;	COMDAT ??_C@_01GBGANLPD@0?$AA@
CONST	SEGMENT
??_C@_01GBGANLPD@0?$AA@ DB '0', 00H			; `string'
; Function compile flags: /Odt /RTCsu
CONST	ENDS
;	COMDAT ?AtlA2WHelper@@YGPA_WPA_WPBDHI@Z
_TEXT	SEGMENT
_ret$ = -4						; size = 4
_lpw$ = 8						; size = 4
_lpa$ = 12						; size = 4
_nChars$ = 16						; size = 4
_acp$ = 20						; size = 4
?AtlA2WHelper@@YGPA_WPA_WPBDHI@Z PROC NEAR		; AtlA2WHelper, COMDAT

; 554  : {

  00000	55		 push	 ebp
  00001	8b ec		 mov	 ebp, esp
  00003	51		 push	 ecx
  00004	56		 push	 esi
  00005	c7 45 fc cc cc
	cc cc		 mov	 DWORD PTR [ebp-4], -858993460 ; ccccccccH

; 555  : 	ATLASSERT(lpa != NULL);

  0000c	83 7d 0c 00	 cmp	 DWORD PTR _lpa$[ebp], 0
  00010	75 2b		 jne	 SHORT $L190656
  00012	8b f4		 mov	 esi, esp
  00014	68 00 00 00 00	 push	 OFFSET FLAT:??_C@_08DMHHBMMN@lpa?5?$CB?$DN?50?$AA@
  00019	6a 00		 push	 0
  0001b	68 2b 02 00 00	 push	 555			; 0000022bH
  00020	68 00 00 00 00	 push	 OFFSET FLAT:??_C@_0FG@PFHCBDBK@D?3?2Program?5Files?5?$CIx86?$CJ?2Microsoft@
  00025	6a 02		 push	 2
  00027	ff 15 00 00 00
	00		 call	 DWORD PTR __imp___CrtDbgReport
  0002d	83 c4 14	 add	 esp, 20			; 00000014H
  00030	3b f4		 cmp	 esi, esp
  00032	e8 00 00 00 00	 call	 __RTC_CheckEsp
  00037	83 f8 01	 cmp	 eax, 1
  0003a	75 01		 jne	 SHORT $L190656
  0003c	cc		 int	 3
$L190656:

; 556  : 	ATLASSERT(lpw != NULL);

  0003d	83 7d 08 00	 cmp	 DWORD PTR _lpw$[ebp], 0
  00041	75 2b		 jne	 SHORT $L190657
  00043	8b f4		 mov	 esi, esp
  00045	68 00 00 00 00	 push	 OFFSET FLAT:??_C@_08DIHJLFDJ@lpw?5?$CB?$DN?50?$AA@
  0004a	6a 00		 push	 0
  0004c	68 2c 02 00 00	 push	 556			; 0000022cH
  00051	68 00 00 00 00	 push	 OFFSET FLAT:??_C@_0FG@PFHCBDBK@D?3?2Program?5Files?5?$CIx86?$CJ?2Microsoft@
  00056	6a 02		 push	 2
  00058	ff 15 00 00 00
	00		 call	 DWORD PTR __imp___CrtDbgReport
  0005e	83 c4 14	 add	 esp, 20			; 00000014H
  00061	3b f4		 cmp	 esi, esp
  00063	e8 00 00 00 00	 call	 __RTC_CheckEsp
  00068	83 f8 01	 cmp	 eax, 1
  0006b	75 01		 jne	 SHORT $L190657
  0006d	cc		 int	 3
$L190657:

; 557  : 	if (lpw == NULL || lpa == NULL)

  0006e	83 7d 08 00	 cmp	 DWORD PTR _lpw$[ebp], 0
  00072	74 06		 je	 SHORT $L24299
  00074	83 7d 0c 00	 cmp	 DWORD PTR _lpa$[ebp], 0
  00078	75 04		 jne	 SHORT $L24298
$L24299:

; 558  : 		return NULL;

  0007a	33 c0		 xor	 eax, eax
  0007c	eb 6a		 jmp	 SHORT $L24292
$L24298:

; 559  : 	// verify that no illegal character present
; 560  : 	// since lpw was allocated based on the size of lpa
; 561  : 	// don't worry about the number of chars
; 562  : 	lpw[0] = '\0';

  0007e	8b 55 08	 mov	 edx, DWORD PTR _lpw$[ebp]
  00081	66 c7 02 00 00	 mov	 WORD PTR [edx], 0

; 563  : 	int ret = MultiByteToWideChar(acp, 0, lpa, -1, lpw, nChars);

  00086	8b f4		 mov	 esi, esp
  00088	8b 45 10	 mov	 eax, DWORD PTR _nChars$[ebp]
  0008b	50		 push	 eax
  0008c	8b 4d 08	 mov	 ecx, DWORD PTR _lpw$[ebp]
  0008f	51		 push	 ecx
  00090	6a ff		 push	 -1
  00092	8b 55 0c	 mov	 edx, DWORD PTR _lpa$[ebp]
  00095	52		 push	 edx
  00096	6a 00		 push	 0
  00098	8b 45 14	 mov	 eax, DWORD PTR _acp$[ebp]
  0009b	50		 push	 eax
  0009c	ff 15 00 00 00
	00		 call	 DWORD PTR __imp__MultiByteToWideChar@24
  000a2	3b f4		 cmp	 esi, esp
  000a4	e8 00 00 00 00	 call	 __RTC_CheckEsp
  000a9	89 45 fc	 mov	 DWORD PTR _ret$[ebp], eax

; 564  : 	if(ret == 0)

  000ac	83 7d fc 00	 cmp	 DWORD PTR _ret$[ebp], 0
  000b0	75 33		 jne	 SHORT $L24301

; 565  : 	{
; 566  : 		ATLASSERT(FALSE);

  000b2	33 c9		 xor	 ecx, ecx
  000b4	75 2b		 jne	 SHORT $L190658
  000b6	8b f4		 mov	 esi, esp
  000b8	68 00 00 00 00	 push	 OFFSET FLAT:??_C@_01GBGANLPD@0?$AA@
  000bd	6a 00		 push	 0
  000bf	68 36 02 00 00	 push	 566			; 00000236H
  000c4	68 00 00 00 00	 push	 OFFSET FLAT:??_C@_0FG@PFHCBDBK@D?3?2Program?5Files?5?$CIx86?$CJ?2Microsoft@
  000c9	6a 02		 push	 2
  000cb	ff 15 00 00 00
	00		 call	 DWORD PTR __imp___CrtDbgReport
  000d1	83 c4 14	 add	 esp, 20			; 00000014H
  000d4	3b f4		 cmp	 esi, esp
  000d6	e8 00 00 00 00	 call	 __RTC_CheckEsp
  000db	83 f8 01	 cmp	 eax, 1
  000de	75 01		 jne	 SHORT $L190658
  000e0	cc		 int	 3
$L190658:

; 567  : 		return NULL;

  000e1	33 c0		 xor	 eax, eax
  000e3	eb 03		 jmp	 SHORT $L24292
$L24301:

; 568  : 	}		
; 569  : 	return lpw;

  000e5	8b 45 08	 mov	 eax, DWORD PTR _lpw$[ebp]
$L24292:

; 570  : }

  000e8	5e		 pop	 esi
  000e9	83 c4 04	 add	 esp, 4
  000ec	3b ec		 cmp	 ebp, esp
  000ee	e8 00 00 00 00	 call	 __RTC_CheckEsp
  000f3	8b e5		 mov	 esp, ebp
  000f5	5d		 pop	 ebp
  000f6	c2 10 00	 ret	 16			; 00000010H
?AtlA2WHelper@@YGPA_WPA_WPBDHI@Z ENDP			; AtlA2WHelper
_TEXT	ENDS
EXTRN	__imp__ShellExecuteA@24:NEAR
EXTRN	?OnLButtonDown@CWnd@@IAEXIVCPoint@@@Z:NEAR	; CWnd::OnLButtonDown
EXTRN	__imp_?length@?$basic_string@DU?$char_traits@D@std@@V?$allocator@D@2@@std@@QBEIXZ:NEAR
; Function compile flags: /Odt /RTCsu
; File d:\boxgit\playbox\playbox\dev\prj\playbox\src\module\gamepanel\downpercentwnd.cpp
_TEXT	SEGMENT
$T190660 = -12						; size = 8
_this$ = -4						; size = 4
_nFlags$ = 8						; size = 4
_point$ = 12						; size = 8
?OnLButtonDown@DownPercentWnd@@QAEXIVCPoint@@@Z PROC NEAR ; DownPercentWnd::OnLButtonDown
; _this$ = ecx

; 249  : {

  012f0	55		 push	 ebp
  012f1	8b ec		 mov	 ebp, esp
  012f3	83 ec 0c	 sub	 esp, 12			; 0000000cH
  012f6	56		 push	 esi
  012f7	57		 push	 edi
  012f8	c7 45 f4 cc cc
	cc cc		 mov	 DWORD PTR [ebp-12], -858993460 ; ccccccccH
  012ff	c7 45 f8 cc cc
	cc cc		 mov	 DWORD PTR [ebp-8], -858993460 ; ccccccccH
  01306	c7 45 fc cc cc
	cc cc		 mov	 DWORD PTR [ebp-4], -858993460 ; ccccccccH
  0130d	89 4d fc	 mov	 DWORD PTR _this$[ebp], ecx

; 250  : 	if( m_rcFlash.PtInRect( point ) )

  01310	8b 45 0c	 mov	 eax, DWORD PTR _point$[ebp]
  01313	89 45 f4	 mov	 DWORD PTR $T190660[ebp], eax
  01316	8b 4d 10	 mov	 ecx, DWORD PTR _point$[ebp+4]
  01319	89 4d f8	 mov	 DWORD PTR $T190660[ebp+4], ecx
  0131c	8b 55 f8	 mov	 edx, DWORD PTR $T190660[ebp+4]
  0131f	52		 push	 edx
  01320	8b 45 f4	 mov	 eax, DWORD PTR $T190660[ebp]
  01323	50		 push	 eax
  01324	8b 4d fc	 mov	 ecx, DWORD PTR _this$[ebp]
  01327	81 c1 9c 00 00
	00		 add	 ecx, 156		; 0000009cH
  0132d	e8 00 00 00 00	 call	 ?PtInRect@CRect@@QBEHUtagPOINT@@@Z ; CRect::PtInRect
  01332	85 c0		 test	 eax, eax
  01334	74 57		 je	 SHORT $L189287

; 251  : 	{
; 252  : 		if( m_ad.strLinkUrl.length() > 0 )

  01336	8b 4d fc	 mov	 ecx, DWORD PTR _this$[ebp]
  01339	81 c1 ac 00 00
	00		 add	 ecx, 172		; 000000acH
  0133f	8b f4		 mov	 esi, esp
  01341	ff 15 00 00 00
	00		 call	 DWORD PTR __imp_?length@?$basic_string@DU?$char_traits@D@std@@V?$allocator@D@2@@std@@QBEIXZ
  01347	3b f4		 cmp	 esi, esp
  01349	e8 00 00 00 00	 call	 __RTC_CheckEsp
  0134e	85 c0		 test	 eax, eax
  01350	76 3b		 jbe	 SHORT $L189287

; 253  : 		{
; 254  : 			ShellExecute(NULL, "open", "iexplore.exe", m_ad.strLinkUrl.c_str(),"", SW_SHOWNORMAL);	

  01352	8b f4		 mov	 esi, esp
  01354	6a 01		 push	 1
  01356	68 00 00 00 00	 push	 OFFSET FLAT:$SG189289
  0135b	8b 4d fc	 mov	 ecx, DWORD PTR _this$[ebp]
  0135e	81 c1 ac 00 00
	00		 add	 ecx, 172		; 000000acH
  01364	8b fc		 mov	 edi, esp
  01366	ff 15 00 00 00
	00		 call	 DWORD PTR __imp_?c_str@?$basic_string@DU?$char_traits@D@std@@V?$allocator@D@2@@std@@QBEPBDXZ
  0136c	3b fc		 cmp	 edi, esp
  0136e	e8 00 00 00 00	 call	 __RTC_CheckEsp
  01373	50		 push	 eax
  01374	68 00 00 00 00	 push	 OFFSET FLAT:$SG189290
  01379	68 00 00 00 00	 push	 OFFSET FLAT:$SG189291
  0137e	6a 00		 push	 0
  01380	ff 15 00 00 00
	00		 call	 DWORD PTR __imp__ShellExecuteA@24
  01386	3b f4		 cmp	 esi, esp
  01388	e8 00 00 00 00	 call	 __RTC_CheckEsp
$L189287:

; 255  : 		}		
; 256  : 	}
; 257  : 	__super::OnLButtonDown(nFlags, point);

  0138d	8b 4d 10	 mov	 ecx, DWORD PTR _point$[ebp+4]
  01390	51		 push	 ecx
  01391	8b 55 0c	 mov	 edx, DWORD PTR _point$[ebp]
  01394	52		 push	 edx
  01395	8b 45 08	 mov	 eax, DWORD PTR _nFlags$[ebp]
  01398	50		 push	 eax
  01399	8b 4d fc	 mov	 ecx, DWORD PTR _this$[ebp]
  0139c	e8 00 00 00 00	 call	 ?OnLButtonDown@CWnd@@IAEXIVCPoint@@@Z ; CWnd::OnLButtonDown

; 258  : }

  013a1	5f		 pop	 edi
  013a2	5e		 pop	 esi
  013a3	83 c4 0c	 add	 esp, 12			; 0000000cH
  013a6	3b ec		 cmp	 ebp, esp
  013a8	e8 00 00 00 00	 call	 __RTC_CheckEsp
  013ad	8b e5		 mov	 esp, ebp
  013af	5d		 pop	 ebp
  013b0	c2 0c 00	 ret	 12			; 0000000cH
?OnLButtonDown@DownPercentWnd@@QAEXIVCPoint@@@Z ENDP	; DownPercentWnd::OnLButtonDown
_TEXT	ENDS
PUBLIC	?_Buy@?$vector@V?$basic_string@DU?$char_traits@D@std@@V?$allocator@D@2@@std@@V?$allocator@V?$basic_string@DU?$char_traits@D@std@@V?$allocator@D@2@@std@@@2@@std@@IAE_NI@Z ; std::vector<std::basic_string<char,std::char_traits<char>,std::allocator<char> >,std::allocator<std::basic_string<char,std::char_traits<char>,std::allocator<char> > > >::_Buy
PUBLIC	??0?$allocator@V?$basic_string@DU?$char_traits@D@std@@V?$allocator@D@2@@std@@@std@@QAE@XZ ; std::allocator<std::basic_string<char,std::char_traits<char>,std::allocator<char> > >::allocator<std::basic_string<char,std::char_traits<char>,std::allocator<char> > >
PUBLIC	??0?$_Vector_val@V?$basic_string@DU?$char_traits@D@std@@V?$allocator@D@2@@std@@V?$allocator@V?$basic_string@DU?$char_traits@D@std@@V?$allocator@D@2@@std@@@2@@std@@IAE@V?$allocator@V?$basic_string@DU?$char_traits@D@std@@V?$allocator@D@2@@std@@@1@@Z ; std::_Vector_val<std::basic_string<char,std::char_traits<char>,std::allocator<char> >,std::allocator<std::basic_string<char,std::char_traits<char>,std::allocator<char> > > >::_Vector_val<std::basic_string<char,std::char_traits<char>,std::allocator<char> >,std::allocator<std::basic_string<char,std::char_traits<char>,std::allocator<char> > > >
; Function compile flags: /Odt /RTCsu
; File d:\program files (x86)\microsoft visual studio .net 2003\vc7\include\vector
;	COMDAT ??0?$vector@V?$basic_string@DU?$char_traits@D@std@@V?$allocator@D@2@@std@@V?$allocator@V?$basic_string@DU?$char_traits@D@std@@V?$allocator@D@2@@std@@@2@@std@@QAE@XZ
_TEXT	SEGMENT
_this$ = -4						; size = 4
??0?$vector@V?$basic_string@DU?$char_traits@D@std@@V?$allocator@D@2@@std@@V?$allocator@V?$basic_string@DU?$char_traits@D@std@@V?$allocator@D@2@@std@@@2@@std@@QAE@XZ PROC NEAR ; std::vector<std::basic_string<char,std::char_traits<char>,std::allocator<char> >,std::allocator<std::basic_string<char,std::char_traits<char>,std::allocator<char> > > >::vector<std::basic_string<char,std::char_traits<char>,std::allocator<char> >,std::allocator<std::basic_string<char,std::char_traits<char>,std::allocator<char> > > >, COMDAT
; _this$ = ecx

; 299  : 		{	// construct empty vector

  00000	55		 push	 ebp
  00001	8b ec		 mov	 ebp, esp
  00003	83 ec 08	 sub	 esp, 8
  00006	c7 45 f8 cc cc
	cc cc		 mov	 DWORD PTR [ebp-8], -858993460 ; ccccccccH
  0000d	c7 45 fc cc cc
	cc cc		 mov	 DWORD PTR [ebp-4], -858993460 ; ccccccccH
  00014	89 4d fc	 mov	 DWORD PTR _this$[ebp], ecx
  00017	51		 push	 ecx
  00018	8b cc		 mov	 ecx, esp
  0001a	e8 00 00 00 00	 call	 ??0?$allocator@V?$basic_string@DU?$char_traits@D@std@@V?$allocator@D@2@@std@@@std@@QAE@XZ ; std::allocator<std::basic_string<char,std::char_traits<char>,std::allocator<char> > >::allocator<std::basic_string<char,std::char_traits<char>,std::allocator<char> > >
  0001f	8b 4d fc	 mov	 ecx, DWORD PTR _this$[ebp]
  00022	e8 00 00 00 00	 call	 ??0?$_Vector_val@V?$basic_string@DU?$char_traits@D@std@@V?$allocator@D@2@@std@@V?$allocator@V?$basic_string@DU?$char_traits@D@std@@V?$allocator@D@2@@std@@@2@@std@@IAE@V?$allocator@V?$basic_string@DU?$char_traits@D@std@@V?$allocator@D@2@@std@@@1@@Z ; std::_Vector_val<std::basic_string<char,std::char_traits<char>,std::allocator<char> >,std::allocator<std::basic_string<char,std::char_traits<char>,std::allocator<char> > > >::_Vector_val<std::basic_string<char,std::char_traits<char>,std::allocator<char> >,std::allocator<std::basic_string<char,std::char_traits<char>,std::allocator<char> > > >

; 300  : 		_Buy(0);

  00027	6a 00		 push	 0
  00029	8b 4d fc	 mov	 ecx, DWORD PTR _this$[ebp]
  0002c	e8 00 00 00 00	 call	 ?_Buy@?$vector@V?$basic_string@DU?$char_traits@D@std@@V?$allocator@D@2@@std@@V?$allocator@V?$basic_string@DU?$char_traits@D@std@@V?$allocator@D@2@@std@@@2@@std@@IAE_NI@Z ; std::vector<std::basic_string<char,std::char_traits<char>,std::allocator<char> >,std::allocator<std::basic_string<char,std::char_traits<char>,std::allocator<char> > > >::_Buy

; 301  : 		}

  00031	8b 45 fc	 mov	 eax, DWORD PTR _this$[ebp]
  00034	83 c4 08	 add	 esp, 8
  00037	3b ec		 cmp	 ebp, esp
  00039	e8 00 00 00 00	 call	 __RTC_CheckEsp
  0003e	8b e5		 mov	 esp, ebp
  00040	5d		 pop	 ebp
  00041	c3		 ret	 0
??0?$vector@V?$basic_string@DU?$char_traits@D@std@@V?$allocator@D@2@@std@@V?$allocator@V?$basic_string@DU?$char_traits@D@std@@V?$allocator@D@2@@std@@@2@@std@@QAE@XZ ENDP ; std::vector<std::basic_string<char,std::char_traits<char>,std::allocator<char> >,std::allocator<std::basic_string<char,std::char_traits<char>,std::allocator<char> > > >::vector<std::basic_string<char,std::char_traits<char>,std::allocator<char> >,std::allocator<std::basic_string<char,std::char_traits<char>,std::allocator<char> > > >
_TEXT	ENDS
PUBLIC	?_Tidy@?$vector@V?$basic_string@DU?$char_traits@D@std@@V?$allocator@D@2@@std@@V?$allocator@V?$basic_string@DU?$char_traits@D@std@@V?$allocator@D@2@@std@@@2@@std@@IAEXXZ ; std::vector<std::basic_string<char,std::char_traits<char>,std::allocator<char> >,std::allocator<std::basic_string<char,std::char_traits<char>,std::allocator<char> > > >::_Tidy
; Function compile flags: /Odt /RTCsu
;	COMDAT ??1?$vector@V?$basic_string@DU?$char_traits@D@std@@V?$allocator@D@2@@std@@V?$allocator@V?$basic_string@DU?$char_traits@D@std@@V?$allocator@D@2@@std@@@2@@std@@QAE@XZ
_TEXT	SEGMENT
_this$ = -4						; size = 4
??1?$vector@V?$basic_string@DU?$char_traits@D@std@@V?$allocator@D@2@@std@@V?$allocator@V?$basic_string@DU?$char_traits@D@std@@V?$allocator@D@2@@std@@@2@@std@@QAE@XZ PROC NEAR ; std::vector<std::basic_string<char,std::char_traits<char>,std::allocator<char> >,std::allocator<std::basic_string<char,std::char_traits<char>,std::allocator<char> > > >::~vector<std::basic_string<char,std::char_traits<char>,std::allocator<char> >,std::allocator<std::basic_string<char,std::char_traits<char>,std::allocator<char> > > >, COMDAT
; _this$ = ecx

; 387  : 		{	// destroy the object

  00000	55		 push	 ebp
  00001	8b ec		 mov	 ebp, esp
  00003	51		 push	 ecx
  00004	c7 45 fc cc cc
	cc cc		 mov	 DWORD PTR [ebp-4], -858993460 ; ccccccccH
  0000b	89 4d fc	 mov	 DWORD PTR _this$[ebp], ecx

; 388  : 		_Tidy();

  0000e	8b 4d fc	 mov	 ecx, DWORD PTR _this$[ebp]
  00011	e8 00 00 00 00	 call	 ?_Tidy@?$vector@V?$basic_string@DU?$char_traits@D@std@@V?$allocator@D@2@@std@@V?$allocator@V?$basic_string@DU?$char_traits@D@std@@V?$allocator@D@2@@std@@@2@@std@@IAEXXZ ; std::vector<std::basic_string<char,std::char_traits<char>,std::allocator<char> >,std::allocator<std::basic_string<char,std::char_traits<char>,std::allocator<char> > > >::_Tidy

; 389  : 		}

  00016	83 c4 04	 add	 esp, 4
  00019	3b ec		 cmp	 ebp, esp
  0001b	e8 00 00 00 00	 call	 __RTC_CheckEsp
  00020	8b e5		 mov	 esp, ebp
  00022	5d		 pop	 ebp
  00023	c3		 ret	 0
??1?$vector@V?$basic_string@DU?$char_traits@D@std@@V?$allocator@D@2@@std@@V?$allocator@V?$basic_string@DU?$char_traits@D@std@@V?$allocator@D@2@@std@@@2@@std@@QAE@XZ ENDP ; std::vector<std::basic_string<char,std::char_traits<char>,std::allocator<char> >,std::allocator<std::basic_string<char,std::char_traits<char>,std::allocator<char> > > >::~vector<std::basic_string<char,std::char_traits<char>,std::allocator<char> >,std::allocator<std::basic_string<char,std::char_traits<char>,std::allocator<char> > > >
_TEXT	ENDS
PUBLIC	??0iterator@?$vector@V?$basic_string@DU?$char_traits@D@std@@V?$allocator@D@2@@std@@V?$allocator@V?$basic_string@DU?$char_traits@D@std@@V?$allocator@D@2@@std@@@2@@std@@QAE@PAV?$basic_string@DU?$char_traits@D@std@@V?$allocator@D@2@@2@@Z ; std::vector<std::basic_string<char,std::char_traits<char>,std::allocator<char> >,std::allocator<std::basic_string<char,std::char_traits<char>,std::allocator<char> > > >::iterator::iterator
; Function compile flags: /Odt /RTCsu
;	COMDAT ?begin@?$vector@V?$basic_string@DU?$char_traits@D@std@@V?$allocator@D@2@@std@@V?$allocator@V?$basic_string@DU?$char_traits@D@std@@V?$allocator@D@2@@std@@@2@@std@@QAE?AViterator@12@XZ
_TEXT	SEGMENT
_this$ = -4						; size = 4
___$ReturnUdt$ = 8					; size = 4
?begin@?$vector@V?$basic_string@DU?$char_traits@D@std@@V?$allocator@D@2@@std@@V?$allocator@V?$basic_string@DU?$char_traits@D@std@@V?$allocator@D@2@@std@@@2@@std@@QAE?AViterator@12@XZ PROC NEAR ; std::vector<std::basic_string<char,std::char_traits<char>,std::allocator<char> >,std::allocator<std::basic_string<char,std::char_traits<char>,std::allocator<char> > > >::begin, COMDAT
; _this$ = ecx

; 462  : 		{	// return iterator for beginning of mutable sequence

  00000	55		 push	 ebp
  00001	8b ec		 mov	 ebp, esp
  00003	51		 push	 ecx
  00004	c7 45 fc cc cc
	cc cc		 mov	 DWORD PTR [ebp-4], -858993460 ; ccccccccH
  0000b	89 4d fc	 mov	 DWORD PTR _this$[ebp], ecx

; 463  : 		return (iterator(_Myfirst));

  0000e	8b 45 fc	 mov	 eax, DWORD PTR _this$[ebp]
  00011	8b 48 04	 mov	 ecx, DWORD PTR [eax+4]
  00014	51		 push	 ecx
  00015	8b 4d 08	 mov	 ecx, DWORD PTR ___$ReturnUdt$[ebp]
  00018	e8 00 00 00 00	 call	 ??0iterator@?$vector@V?$basic_string@DU?$char_traits@D@std@@V?$allocator@D@2@@std@@V?$allocator@V?$basic_string@DU?$char_traits@D@std@@V?$allocator@D@2@@std@@@2@@std@@QAE@PAV?$basic_string@DU?$char_traits@D@std@@V?$allocator@D@2@@2@@Z ; std::vector<std::basic_string<char,std::char_traits<char>,std::allocator<char> >,std::allocator<std::basic_string<char,std::char_traits<char>,std::allocator<char> > > >::iterator::iterator
  0001d	8b 45 08	 mov	 eax, DWORD PTR ___$ReturnUdt$[ebp]

; 464  : 		}

  00020	83 c4 04	 add	 esp, 4
  00023	3b ec		 cmp	 ebp, esp
  00025	e8 00 00 00 00	 call	 __RTC_CheckEsp
  0002a	8b e5		 mov	 esp, ebp
  0002c	5d		 pop	 ebp
  0002d	c2 04 00	 ret	 4
?begin@?$vector@V?$basic_string@DU?$char_traits@D@std@@V?$allocator@D@2@@std@@V?$allocator@V?$basic_string@DU?$char_traits@D@std@@V?$allocator@D@2@@std@@@2@@std@@QAE?AViterator@12@XZ ENDP ; std::vector<std::basic_string<char,std::char_traits<char>,std::allocator<char> >,std::allocator<std::basic_string<char,std::char_traits<char>,std::allocator<char> > > >::begin
; Function compile flags: /Odt /RTCsu
_TEXT	ENDS
;	COMDAT ?end@?$vector@V?$basic_string@DU?$char_traits@D@std@@V?$allocator@D@2@@std@@V?$allocator@V?$basic_string@DU?$char_traits@D@std@@V?$allocator@D@2@@std@@@2@@std@@QAE?AViterator@12@XZ
_TEXT	SEGMENT
_this$ = -4						; size = 4
___$ReturnUdt$ = 8					; size = 4
?end@?$vector@V?$basic_string@DU?$char_traits@D@std@@V?$allocator@D@2@@std@@V?$allocator@V?$basic_string@DU?$char_traits@D@std@@V?$allocator@D@2@@std@@@2@@std@@QAE?AViterator@12@XZ PROC NEAR ; std::vector<std::basic_string<char,std::char_traits<char>,std::allocator<char> >,std::allocator<std::basic_string<char,std::char_traits<char>,std::allocator<char> > > >::end, COMDAT
; _this$ = ecx

; 472  : 		{	// return iterator for end of mutable sequence

  00000	55		 push	 ebp
  00001	8b ec		 mov	 ebp, esp
  00003	51		 push	 ecx
  00004	c7 45 fc cc cc
	cc cc		 mov	 DWORD PTR [ebp-4], -858993460 ; ccccccccH
  0000b	89 4d fc	 mov	 DWORD PTR _this$[ebp], ecx

; 473  : 		return (iterator(_Mylast));

  0000e	8b 45 fc	 mov	 eax, DWORD PTR _this$[ebp]
  00011	8b 48 08	 mov	 ecx, DWORD PTR [eax+8]
  00014	51		 push	 ecx
  00015	8b 4d 08	 mov	 ecx, DWORD PTR ___$ReturnUdt$[ebp]
  00018	e8 00 00 00 00	 call	 ??0iterator@?$vector@V?$basic_string@DU?$char_traits@D@std@@V?$allocator@D@2@@std@@V?$allocator@V?$basic_string@DU?$char_traits@D@std@@V?$allocator@D@2@@std@@@2@@std@@QAE@PAV?$basic_string@DU?$char_traits@D@std@@V?$allocator@D@2@@2@@Z ; std::vector<std::basic_string<char,std::char_traits<char>,std::allocator<char> >,std::allocator<std::basic_string<char,std::char_traits<char>,std::allocator<char> > > >::iterator::iterator
  0001d	8b 45 08	 mov	 eax, DWORD PTR ___$ReturnUdt$[ebp]

; 474  : 		}

  00020	83 c4 04	 add	 esp, 4
  00023	3b ec		 cmp	 ebp, esp
  00025	e8 00 00 00 00	 call	 __RTC_CheckEsp
  0002a	8b e5		 mov	 esp, ebp
  0002c	5d		 pop	 ebp
  0002d	c2 04 00	 ret	 4
?end@?$vector@V?$basic_string@DU?$char_traits@D@std@@V?$allocator@D@2@@std@@V?$allocator@V?$basic_string@DU?$char_traits@D@std@@V?$allocator@D@2@@std@@@2@@std@@QAE?AViterator@12@XZ ENDP ; std::vector<std::basic_string<char,std::char_traits<char>,std::allocator<char> >,std::allocator<std::basic_string<char,std::char_traits<char>,std::allocator<char> > > >::end
; Function compile flags: /Odt /RTCsu
_TEXT	ENDS
;	COMDAT ?size@?$vector@V?$basic_string@DU?$char_traits@D@std@@V?$allocator@D@2@@std@@V?$allocator@V?$basic_string@DU?$char_traits@D@std@@V?$allocator@D@2@@std@@@2@@std@@QBEIXZ
_TEXT	SEGMENT
tv70 = -8						; size = 4
_this$ = -4						; size = 4
?size@?$vector@V?$basic_string@DU?$char_traits@D@std@@V?$allocator@D@2@@std@@V?$allocator@V?$basic_string@DU?$char_traits@D@std@@V?$allocator@D@2@@std@@@2@@std@@QBEIXZ PROC NEAR ; std::vector<std::basic_string<char,std::char_traits<char>,std::allocator<char> >,std::allocator<std::basic_string<char,std::char_traits<char>,std::allocator<char> > > >::size, COMDAT
; _this$ = ecx

; 515  : 		{	// return length of sequence

  00000	55		 push	 ebp
  00001	8b ec		 mov	 ebp, esp
  00003	83 ec 08	 sub	 esp, 8
  00006	c7 45 f8 cc cc
	cc cc		 mov	 DWORD PTR [ebp-8], -858993460 ; ccccccccH
  0000d	c7 45 fc cc cc
	cc cc		 mov	 DWORD PTR [ebp-4], -858993460 ; ccccccccH
  00014	89 4d fc	 mov	 DWORD PTR _this$[ebp], ecx

; 516  : 		return (_Myfirst == 0 ? 0 : _Mylast - _Myfirst);

  00017	8b 45 fc	 mov	 eax, DWORD PTR _this$[ebp]
  0001a	83 78 04 00	 cmp	 DWORD PTR [eax+4], 0
  0001e	75 09		 jne	 SHORT $L190667
  00020	c7 45 f8 00 00
	00 00		 mov	 DWORD PTR tv70[ebp], 0
  00027	eb 17		 jmp	 SHORT $L190668
$L190667:
  00029	8b 4d fc	 mov	 ecx, DWORD PTR _this$[ebp]
  0002c	8b 55 fc	 mov	 edx, DWORD PTR _this$[ebp]
  0002f	8b 41 08	 mov	 eax, DWORD PTR [ecx+8]
  00032	2b 42 04	 sub	 eax, DWORD PTR [edx+4]
  00035	99		 cdq
  00036	b9 1c 00 00 00	 mov	 ecx, 28			; 0000001cH
  0003b	f7 f9		 idiv	 ecx
  0003d	89 45 f8	 mov	 DWORD PTR tv70[ebp], eax
$L190668:
  00040	8b 45 f8	 mov	 eax, DWORD PTR tv70[ebp]

; 517  : 		}

  00043	8b e5		 mov	 esp, ebp
  00045	5d		 pop	 ebp
  00046	c3		 ret	 0
?size@?$vector@V?$basic_string@DU?$char_traits@D@std@@V?$allocator@D@2@@std@@V?$allocator@V?$basic_string@DU?$char_traits@D@std@@V?$allocator@D@2@@std@@@2@@std@@QBEIXZ ENDP ; std::vector<std::basic_string<char,std::char_traits<char>,std::allocator<char> >,std::allocator<std::basic_string<char,std::char_traits<char>,std::allocator<char> > > >::size
_TEXT	ENDS
PUBLIC	??Diterator@?$vector@V?$basic_string@DU?$char_traits@D@std@@V?$allocator@D@2@@std@@V?$allocator@V?$basic_string@DU?$char_traits@D@std@@V?$allocator@D@2@@std@@@2@@std@@QBEAAV?$basic_string@DU?$char_traits@D@std@@V?$allocator@D@2@@2@XZ ; std::vector<std::basic_string<char,std::char_traits<char>,std::allocator<char> >,std::allocator<std::basic_string<char,std::char_traits<char>,std::allocator<char> > > >::iterator::operator*
PUBLIC	??Hiterator@?$vector@V?$basic_string@DU?$char_traits@D@std@@V?$allocator@D@2@@std@@V?$allocator@V?$basic_string@DU?$char_traits@D@std@@V?$allocator@D@2@@std@@@2@@std@@QBE?AV012@H@Z ; std::vector<std::basic_string<char,std::char_traits<char>,std::allocator<char> >,std::allocator<std::basic_string<char,std::char_traits<char>,std::allocator<char> > > >::iterator::operator+
; Function compile flags: /Odt /RTCsu
;	COMDAT ??A?$vector@V?$basic_string@DU?$char_traits@D@std@@V?$allocator@D@2@@std@@V?$allocator@V?$basic_string@DU?$char_traits@D@std@@V?$allocator@D@2@@std@@@2@@std@@QAEAAV?$basic_string@DU?$char_traits@D@std@@V?$allocator@D@2@@1@I@Z
_TEXT	SEGMENT
$T190671 = -12						; size = 4
$T190670 = -8						; size = 4
_this$ = -4						; size = 4
__Pos$ = 8						; size = 4
??A?$vector@V?$basic_string@DU?$char_traits@D@std@@V?$allocator@D@2@@std@@V?$allocator@V?$basic_string@DU?$char_traits@D@std@@V?$allocator@D@2@@std@@@2@@std@@QAEAAV?$basic_string@DU?$char_traits@D@std@@V?$allocator@D@2@@1@I@Z PROC NEAR ; std::vector<std::basic_string<char,std::char_traits<char>,std::allocator<char> >,std::allocator<std::basic_string<char,std::char_traits<char>,std::allocator<char> > > >::operator[], COMDAT
; _this$ = ecx

; 554  : 		{	// subscript mutable sequence

  00000	55		 push	 ebp
  00001	8b ec		 mov	 ebp, esp
  00003	83 ec 0c	 sub	 esp, 12			; 0000000cH
  00006	c7 45 f4 cc cc
	cc cc		 mov	 DWORD PTR [ebp-12], -858993460 ; ccccccccH
  0000d	c7 45 f8 cc cc
	cc cc		 mov	 DWORD PTR [ebp-8], -858993460 ; ccccccccH
  00014	c7 45 fc cc cc
	cc cc		 mov	 DWORD PTR [ebp-4], -858993460 ; ccccccccH
  0001b	89 4d fc	 mov	 DWORD PTR _this$[ebp], ecx

; 555  : 		return (*(begin() + _Pos));

  0001e	8b 45 08	 mov	 eax, DWORD PTR __Pos$[ebp]
  00021	50		 push	 eax
  00022	8d 4d f4	 lea	 ecx, DWORD PTR $T190671[ebp]
  00025	51		 push	 ecx
  00026	8d 55 f8	 lea	 edx, DWORD PTR $T190670[ebp]
  00029	52		 push	 edx
  0002a	8b 4d fc	 mov	 ecx, DWORD PTR _this$[ebp]
  0002d	e8 00 00 00 00	 call	 ?begin@?$vector@V?$basic_string@DU?$char_traits@D@std@@V?$allocator@D@2@@std@@V?$allocator@V?$basic_string@DU?$char_traits@D@std@@V?$allocator@D@2@@std@@@2@@std@@QAE?AViterator@12@XZ ; std::vector<std::basic_string<char,std::char_traits<char>,std::allocator<char> >,std::allocator<std::basic_string<char,std::char_traits<char>,std::allocator<char> > > >::begin
  00032	8b c8		 mov	 ecx, eax
  00034	e8 00 00 00 00	 call	 ??Hiterator@?$vector@V?$basic_string@DU?$char_traits@D@std@@V?$allocator@D@2@@std@@V?$allocator@V?$basic_string@DU?$char_traits@D@std@@V?$allocator@D@2@@std@@@2@@std@@QBE?AV012@H@Z ; std::vector<std::basic_string<char,std::char_traits<char>,std::allocator<char> >,std::allocator<std::basic_string<char,std::char_traits<char>,std::allocator<char> > > >::iterator::operator+
  00039	8b c8		 mov	 ecx, eax
  0003b	e8 00 00 00 00	 call	 ??Diterator@?$vector@V?$basic_string@DU?$char_traits@D@std@@V?$allocator@D@2@@std@@V?$allocator@V?$basic_string@DU?$char_traits@D@std@@V?$allocator@D@2@@std@@@2@@std@@QBEAAV?$basic_string@DU?$char_traits@D@std@@V?$allocator@D@2@@2@XZ ; std::vector<std::basic_string<char,std::char_traits<char>,std::allocator<char> >,std::allocator<std::basic_string<char,std::char_traits<char>,std::allocator<char> > > >::iterator::operator*

; 556  : 		}

  00040	83 c4 0c	 add	 esp, 12			; 0000000cH
  00043	3b ec		 cmp	 ebp, esp
  00045	e8 00 00 00 00	 call	 __RTC_CheckEsp
  0004a	8b e5		 mov	 esp, ebp
  0004c	5d		 pop	 ebp
  0004d	c2 04 00	 ret	 4
??A?$vector@V?$basic_string@DU?$char_traits@D@std@@V?$allocator@D@2@@std@@V?$allocator@V?$basic_string@DU?$char_traits@D@std@@V?$allocator@D@2@@std@@@2@@std@@QAEAAV?$basic_string@DU?$char_traits@D@std@@V?$allocator@D@2@@1@I@Z ENDP ; std::vector<std::basic_string<char,std::char_traits<char>,std::allocator<char> >,std::allocator<std::basic_string<char,std::char_traits<char>,std::allocator<char> > > >::operator[]
; Function compile flags: /Odt /RTCsu
_TEXT	ENDS
;	COMDAT ?clear@?$vector@V?$basic_string@DU?$char_traits@D@std@@V?$allocator@D@2@@std@@V?$allocator@V?$basic_string@DU?$char_traits@D@std@@V?$allocator@D@2@@std@@@2@@std@@QAEXXZ
_TEXT	SEGMENT
_this$ = -4						; size = 4
?clear@?$vector@V?$basic_string@DU?$char_traits@D@std@@V?$allocator@D@2@@std@@V?$allocator@V?$basic_string@DU?$char_traits@D@std@@V?$allocator@D@2@@std@@@2@@std@@QAEXXZ PROC NEAR ; std::vector<std::basic_string<char,std::char_traits<char>,std::allocator<char> >,std::allocator<std::basic_string<char,std::char_traits<char>,std::allocator<char> > > >::clear, COMDAT
; _this$ = ecx

; 743  : 		{	// erase all

  00000	55		 push	 ebp
  00001	8b ec		 mov	 ebp, esp
  00003	51		 push	 ecx
  00004	c7 45 fc cc cc
	cc cc		 mov	 DWORD PTR [ebp-4], -858993460 ; ccccccccH
  0000b	89 4d fc	 mov	 DWORD PTR _this$[ebp], ecx

; 744  : 		_Tidy();

  0000e	8b 4d fc	 mov	 ecx, DWORD PTR _this$[ebp]
  00011	e8 00 00 00 00	 call	 ?_Tidy@?$vector@V?$basic_string@DU?$char_traits@D@std@@V?$allocator@D@2@@std@@V?$allocator@V?$basic_string@DU?$char_traits@D@std@@V?$allocator@D@2@@std@@@2@@std@@IAEXXZ ; std::vector<std::basic_string<char,std::char_traits<char>,std::allocator<char> >,std::allocator<std::basic_string<char,std::char_traits<char>,std::allocator<char> > > >::_Tidy

; 745  : 		}

  00016	83 c4 04	 add	 esp, 4
  00019	3b ec		 cmp	 ebp, esp
  0001b	e8 00 00 00 00	 call	 __RTC_CheckEsp
  00020	8b e5		 mov	 esp, ebp
  00022	5d		 pop	 ebp
  00023	c3		 ret	 0
?clear@?$vector@V?$basic_string@DU?$char_traits@D@std@@V?$allocator@D@2@@std@@V?$allocator@V?$basic_string@DU?$char_traits@D@std@@V?$allocator@D@2@@std@@@2@@std@@QAEXXZ ENDP ; std::vector<std::basic_string<char,std::char_traits<char>,std::allocator<char> >,std::allocator<std::basic_string<char,std::char_traits<char>,std::allocator<char> > > >::clear
; Function compile flags: /Odt /RTCsu
; File d:\program files (x86)\microsoft visual studio .net 2003\vc7\include\xmemory
_TEXT	ENDS
;	COMDAT ??0?$allocator@V?$basic_string@DU?$char_traits@D@std@@V?$allocator@D@2@@std@@@std@@QAE@XZ
_TEXT	SEGMENT
_this$ = -4						; size = 4
??0?$allocator@V?$basic_string@DU?$char_traits@D@std@@V?$allocator@D@2@@std@@@std@@QAE@XZ PROC NEAR ; std::allocator<std::basic_string<char,std::char_traits<char>,std::allocator<char> > >::allocator<std::basic_string<char,std::char_traits<char>,std::allocator<char> > >, COMDAT
; _this$ = ecx

; 111  : 	allocator()

  00000	55		 push	 ebp
  00001	8b ec		 mov	 ebp, esp
  00003	51		 push	 ecx
  00004	c7 45 fc cc cc
	cc cc		 mov	 DWORD PTR [ebp-4], -858993460 ; ccccccccH
  0000b	89 4d fc	 mov	 DWORD PTR _this$[ebp], ecx

; 112  : 		{	// construct default allocator (do nothing)
; 113  : 		}

  0000e	8b 45 fc	 mov	 eax, DWORD PTR _this$[ebp]
  00011	8b e5		 mov	 esp, ebp
  00013	5d		 pop	 ebp
  00014	c3		 ret	 0
??0?$allocator@V?$basic_string@DU?$char_traits@D@std@@V?$allocator@D@2@@std@@@std@@QAE@XZ ENDP ; std::allocator<std::basic_string<char,std::char_traits<char>,std::allocator<char> > >::allocator<std::basic_string<char,std::char_traits<char>,std::allocator<char> > >
_TEXT	ENDS
PUBLIC	?_Xlen@?$vector@V?$basic_string@DU?$char_traits@D@std@@V?$allocator@D@2@@std@@V?$allocator@V?$basic_string@DU?$char_traits@D@std@@V?$allocator@D@2@@std@@@2@@std@@IBEXXZ ; std::vector<std::basic_string<char,std::char_traits<char>,std::allocator<char> >,std::allocator<std::basic_string<char,std::char_traits<char>,std::allocator<char> > > >::_Xlen
PUBLIC	?allocate@?$allocator@V?$basic_string@DU?$char_traits@D@std@@V?$allocator@D@2@@std@@@std@@QAEPAV?$basic_string@DU?$char_traits@D@std@@V?$allocator@D@2@@2@I@Z ; std::allocator<std::basic_string<char,std::char_traits<char>,std::allocator<char> > >::allocate
PUBLIC	?max_size@?$vector@V?$basic_string@DU?$char_traits@D@std@@V?$allocator@D@2@@std@@V?$allocator@V?$basic_string@DU?$char_traits@D@std@@V?$allocator@D@2@@std@@@2@@std@@QBEIXZ ; std::vector<std::basic_string<char,std::char_traits<char>,std::allocator<char> >,std::allocator<std::basic_string<char,std::char_traits<char>,std::allocator<char> > > >::max_size
; Function compile flags: /Odt /RTCsu
; File d:\program files (x86)\microsoft visual studio .net 2003\vc7\include\vector
;	COMDAT ?_Buy@?$vector@V?$basic_string@DU?$char_traits@D@std@@V?$allocator@D@2@@std@@V?$allocator@V?$basic_string@DU?$char_traits@D@std@@V?$allocator@D@2@@std@@@2@@std@@IAE_NI@Z
_TEXT	SEGMENT
_this$ = -4						; size = 4
__Capacity$ = 8						; size = 4
?_Buy@?$vector@V?$basic_string@DU?$char_traits@D@std@@V?$allocator@D@2@@std@@V?$allocator@V?$basic_string@DU?$char_traits@D@std@@V?$allocator@D@2@@std@@@2@@std@@IAE_NI@Z PROC NEAR ; std::vector<std::basic_string<char,std::char_traits<char>,std::allocator<char> >,std::allocator<std::basic_string<char,std::char_traits<char>,std::allocator<char> > > >::_Buy, COMDAT
; _this$ = ecx

; 770  : 		{	// allocate array with _Capacity elements

  00000	55		 push	 ebp
  00001	8b ec		 mov	 ebp, esp
  00003	51		 push	 ecx
  00004	c7 45 fc cc cc
	cc cc		 mov	 DWORD PTR [ebp-4], -858993460 ; ccccccccH
  0000b	89 4d fc	 mov	 DWORD PTR _this$[ebp], ecx

; 771  : 		_Myfirst = 0, _Mylast = 0, _Myend = 0;

  0000e	8b 45 fc	 mov	 eax, DWORD PTR _this$[ebp]
  00011	c7 40 04 00 00
	00 00		 mov	 DWORD PTR [eax+4], 0
  00018	8b 4d fc	 mov	 ecx, DWORD PTR _this$[ebp]
  0001b	c7 41 08 00 00
	00 00		 mov	 DWORD PTR [ecx+8], 0
  00022	8b 55 fc	 mov	 edx, DWORD PTR _this$[ebp]
  00025	c7 42 0c 00 00
	00 00		 mov	 DWORD PTR [edx+12], 0

; 772  : 		if (_Capacity == 0)

  0002c	83 7d 08 00	 cmp	 DWORD PTR __Capacity$[ebp], 0
  00030	75 04		 jne	 SHORT $L189423

; 773  : 			return (false);

  00032	32 c0		 xor	 al, al
  00034	eb 49		 jmp	 SHORT $L189422
$L189423:

; 774  : 		else if (max_size() < _Capacity)

  00036	8b 4d fc	 mov	 ecx, DWORD PTR _this$[ebp]
  00039	e8 00 00 00 00	 call	 ?max_size@?$vector@V?$basic_string@DU?$char_traits@D@std@@V?$allocator@D@2@@std@@V?$allocator@V?$basic_string@DU?$char_traits@D@std@@V?$allocator@D@2@@std@@@2@@std@@QBEIXZ ; std::vector<std::basic_string<char,std::char_traits<char>,std::allocator<char> >,std::allocator<std::basic_string<char,std::char_traits<char>,std::allocator<char> > > >::max_size
  0003e	3b 45 08	 cmp	 eax, DWORD PTR __Capacity$[ebp]
  00041	73 0a		 jae	 SHORT $L189425

; 775  : 			_Xlen();	// result too long

  00043	8b 4d fc	 mov	 ecx, DWORD PTR _this$[ebp]
  00046	e8 00 00 00 00	 call	 ?_Xlen@?$vector@V?$basic_string@DU?$char_traits@D@std@@V?$allocator@D@2@@std@@V?$allocator@V?$basic_string@DU?$char_traits@D@std@@V?$allocator@D@2@@std@@@2@@std@@IBEXXZ ; std::vector<std::basic_string<char,std::char_traits<char>,std::allocator<char> >,std::allocator<std::basic_string<char,std::char_traits<char>,std::allocator<char> > > >::_Xlen

; 776  : 		else

  0004b	eb 30		 jmp	 SHORT $L189424
$L189425:

; 777  : 			{	// nonempty array, allocate storage
; 778  : 			_Myfirst = this->_Alval.allocate(_Capacity);

  0004d	8b 45 08	 mov	 eax, DWORD PTR __Capacity$[ebp]
  00050	50		 push	 eax
  00051	8b 4d fc	 mov	 ecx, DWORD PTR _this$[ebp]
  00054	e8 00 00 00 00	 call	 ?allocate@?$allocator@V?$basic_string@DU?$char_traits@D@std@@V?$allocator@D@2@@std@@@std@@QAEPAV?$basic_string@DU?$char_traits@D@std@@V?$allocator@D@2@@2@I@Z ; std::allocator<std::basic_string<char,std::char_traits<char>,std::allocator<char> > >::allocate
  00059	8b 4d fc	 mov	 ecx, DWORD PTR _this$[ebp]
  0005c	89 41 04	 mov	 DWORD PTR [ecx+4], eax

; 779  : 			_Mylast = _Myfirst;

  0005f	8b 55 fc	 mov	 edx, DWORD PTR _this$[ebp]
  00062	8b 45 fc	 mov	 eax, DWORD PTR _this$[ebp]
  00065	8b 48 04	 mov	 ecx, DWORD PTR [eax+4]
  00068	89 4a 08	 mov	 DWORD PTR [edx+8], ecx

; 780  : 			_Myend = _Myfirst + _Capacity;

  0006b	8b 55 08	 mov	 edx, DWORD PTR __Capacity$[ebp]
  0006e	6b d2 1c	 imul	 edx, 28			; 0000001cH
  00071	8b 45 fc	 mov	 eax, DWORD PTR _this$[ebp]
  00074	03 50 04	 add	 edx, DWORD PTR [eax+4]
  00077	8b 4d fc	 mov	 ecx, DWORD PTR _this$[ebp]
  0007a	89 51 0c	 mov	 DWORD PTR [ecx+12], edx
$L189424:

; 781  : 			}
; 782  : 		return (true);

  0007d	b0 01		 mov	 al, 1
$L189422:

; 783  : 		}

  0007f	83 c4 04	 add	 esp, 4
  00082	3b ec		 cmp	 ebp, esp
  00084	e8 00 00 00 00	 call	 __RTC_CheckEsp
  00089	8b e5		 mov	 esp, ebp
  0008b	5d		 pop	 ebp
  0008c	c2 04 00	 ret	 4
?_Buy@?$vector@V?$basic_string@DU?$char_traits@D@std@@V?$allocator@D@2@@std@@V?$allocator@V?$basic_string@DU?$char_traits@D@std@@V?$allocator@D@2@@std@@@2@@std@@IAE_NI@Z ENDP ; std::vector<std::basic_string<char,std::char_traits<char>,std::allocator<char> >,std::allocator<std::basic_string<char,std::char_traits<char>,std::allocator<char> > > >::_Buy
_TEXT	ENDS
PUBLIC	?_Destroy@?$vector@V?$basic_string@DU?$char_traits@D@std@@V?$allocator@D@2@@std@@V?$allocator@V?$basic_string@DU?$char_traits@D@std@@V?$allocator@D@2@@std@@@2@@std@@IAEXPAV?$basic_string@DU?$char_traits@D@std@@V?$allocator@D@2@@2@0@Z ; std::vector<std::basic_string<char,std::char_traits<char>,std::allocator<char> >,std::allocator<std::basic_string<char,std::char_traits<char>,std::allocator<char> > > >::_Destroy
PUBLIC	?deallocate@?$allocator@V?$basic_string@DU?$char_traits@D@std@@V?$allocator@D@2@@std@@@std@@QAEXPAV?$basic_string@DU?$char_traits@D@std@@V?$allocator@D@2@@2@I@Z ; std::allocator<std::basic_string<char,std::char_traits<char>,std::allocator<char> > >::deallocate
; Function compile flags: /Odt /RTCsu
;	COMDAT ?_Tidy@?$vector@V?$basic_string@DU?$char_traits@D@std@@V?$allocator@D@2@@std@@V?$allocator@V?$basic_string@DU?$char_traits@D@std@@V?$allocator@D@2@@std@@@2@@std@@IAEXXZ
_TEXT	SEGMENT
_this$ = -4						; size = 4
?_Tidy@?$vector@V?$basic_string@DU?$char_traits@D@std@@V?$allocator@D@2@@std@@V?$allocator@V?$basic_string@DU?$char_traits@D@std@@V?$allocator@D@2@@std@@@2@@std@@IAEXXZ PROC NEAR ; std::vector<std::basic_string<char,std::char_traits<char>,std::allocator<char> >,std::allocator<std::basic_string<char,std::char_traits<char>,std::allocator<char> > > >::_Tidy, COMDAT
; _this$ = ecx

; 791  : 		{	// free all storage

  00000	55		 push	 ebp
  00001	8b ec		 mov	 ebp, esp
  00003	51		 push	 ecx
  00004	c7 45 fc cc cc
	cc cc		 mov	 DWORD PTR [ebp-4], -858993460 ; ccccccccH
  0000b	89 4d fc	 mov	 DWORD PTR _this$[ebp], ecx

; 792  : 		if (_Myfirst != 0)

  0000e	8b 45 fc	 mov	 eax, DWORD PTR _this$[ebp]
  00011	83 78 04 00	 cmp	 DWORD PTR [eax+4], 0
  00015	74 3c		 je	 SHORT $L189429

; 793  : 			{	// something to free, destroy and deallocate it
; 794  : 			_Destroy(_Myfirst, _Mylast);

  00017	8b 4d fc	 mov	 ecx, DWORD PTR _this$[ebp]
  0001a	8b 51 08	 mov	 edx, DWORD PTR [ecx+8]
  0001d	52		 push	 edx
  0001e	8b 45 fc	 mov	 eax, DWORD PTR _this$[ebp]
  00021	8b 48 04	 mov	 ecx, DWORD PTR [eax+4]
  00024	51		 push	 ecx
  00025	8b 4d fc	 mov	 ecx, DWORD PTR _this$[ebp]
  00028	e8 00 00 00 00	 call	 ?_Destroy@?$vector@V?$basic_string@DU?$char_traits@D@std@@V?$allocator@D@2@@std@@V?$allocator@V?$basic_string@DU?$char_traits@D@std@@V?$allocator@D@2@@std@@@2@@std@@IAEXPAV?$basic_string@DU?$char_traits@D@std@@V?$allocator@D@2@@2@0@Z ; std::vector<std::basic_string<char,std::char_traits<char>,std::allocator<char> >,std::allocator<std::basic_string<char,std::char_traits<char>,std::allocator<char> > > >::_Destroy

; 795  : 			this->_Alval.deallocate(_Myfirst, _Myend - _Myfirst);

  0002d	8b 55 fc	 mov	 edx, DWORD PTR _this$[ebp]
  00030	8b 45 fc	 mov	 eax, DWORD PTR _this$[ebp]
  00033	8b 4a 0c	 mov	 ecx, DWORD PTR [edx+12]
  00036	2b 48 04	 sub	 ecx, DWORD PTR [eax+4]
  00039	8b c1		 mov	 eax, ecx
  0003b	99		 cdq
  0003c	b9 1c 00 00 00	 mov	 ecx, 28			; 0000001cH
  00041	f7 f9		 idiv	 ecx
  00043	50		 push	 eax
  00044	8b 55 fc	 mov	 edx, DWORD PTR _this$[ebp]
  00047	8b 42 04	 mov	 eax, DWORD PTR [edx+4]
  0004a	50		 push	 eax
  0004b	8b 4d fc	 mov	 ecx, DWORD PTR _this$[ebp]
  0004e	e8 00 00 00 00	 call	 ?deallocate@?$allocator@V?$basic_string@DU?$char_traits@D@std@@V?$allocator@D@2@@std@@@std@@QAEXPAV?$basic_string@DU?$char_traits@D@std@@V?$allocator@D@2@@2@I@Z ; std::allocator<std::basic_string<char,std::char_traits<char>,std::allocator<char> > >::deallocate
$L189429:

; 796  : 			}
; 797  : 		_Myfirst = 0, _Mylast = 0, _Myend = 0;

  00053	8b 4d fc	 mov	 ecx, DWORD PTR _this$[ebp]
  00056	c7 41 04 00 00
	00 00		 mov	 DWORD PTR [ecx+4], 0
  0005d	8b 55 fc	 mov	 edx, DWORD PTR _this$[ebp]
  00060	c7 42 08 00 00
	00 00		 mov	 DWORD PTR [edx+8], 0
  00067	8b 45 fc	 mov	 eax, DWORD PTR _this$[ebp]
  0006a	c7 40 0c 00 00
	00 00		 mov	 DWORD PTR [eax+12], 0

; 798  : 		}

  00071	83 c4 04	 add	 esp, 4
  00074	3b ec		 cmp	 ebp, esp
  00076	e8 00 00 00 00	 call	 __RTC_CheckEsp
  0007b	8b e5		 mov	 esp, ebp
  0007d	5d		 pop	 ebp
  0007e	c3		 ret	 0
?_Tidy@?$vector@V?$basic_string@DU?$char_traits@D@std@@V?$allocator@D@2@@std@@V?$allocator@V?$basic_string@DU?$char_traits@D@std@@V?$allocator@D@2@@std@@@2@@std@@IAEXXZ ENDP ; std::vector<std::basic_string<char,std::char_traits<char>,std::allocator<char> >,std::allocator<std::basic_string<char,std::char_traits<char>,std::allocator<char> > > >::_Tidy
_TEXT	ENDS
PUBLIC	??0?$allocator@V?$basic_string@DU?$char_traits@D@std@@V?$allocator@D@2@@std@@@std@@QAE@ABV01@@Z ; std::allocator<std::basic_string<char,std::char_traits<char>,std::allocator<char> > >::allocator<std::basic_string<char,std::char_traits<char>,std::allocator<char> > >
; Function compile flags: /Odt /RTCsu
;	COMDAT ??0?$_Vector_val@V?$basic_string@DU?$char_traits@D@std@@V?$allocator@D@2@@std@@V?$allocator@V?$basic_string@DU?$char_traits@D@std@@V?$allocator@D@2@@std@@@2@@std@@IAE@V?$allocator@V?$basic_string@DU?$char_traits@D@std@@V?$allocator@D@2@@std@@@1@@Z
_TEXT	SEGMENT
_this$ = -4						; size = 4
__Al$ = 8						; size = 1
??0?$_Vector_val@V?$basic_string@DU?$char_traits@D@std@@V?$allocator@D@2@@std@@V?$allocator@V?$basic_string@DU?$char_traits@D@std@@V?$allocator@D@2@@std@@@2@@std@@IAE@V?$allocator@V?$basic_string@DU?$char_traits@D@std@@V?$allocator@D@2@@std@@@1@@Z PROC NEAR ; std::_Vector_val<std::basic_string<char,std::char_traits<char>,std::allocator<char> >,std::allocator<std::basic_string<char,std::char_traits<char>,std::allocator<char> > > >::_Vector_val<std::basic_string<char,std::char_traits<char>,std::allocator<char> >,std::allocator<std::basic_string<char,std::char_traits<char>,std::allocator<char> > > >, COMDAT
; _this$ = ecx

; 21   : 		{	// construct allocator from _Al

  00000	55		 push	 ebp
  00001	8b ec		 mov	 ebp, esp
  00003	51		 push	 ecx
  00004	c7 45 fc cc cc
	cc cc		 mov	 DWORD PTR [ebp-4], -858993460 ; ccccccccH
  0000b	89 4d fc	 mov	 DWORD PTR _this$[ebp], ecx
  0000e	8d 45 08	 lea	 eax, DWORD PTR __Al$[ebp]
  00011	50		 push	 eax
  00012	8b 4d fc	 mov	 ecx, DWORD PTR _this$[ebp]
  00015	e8 00 00 00 00	 call	 ??0?$allocator@V?$basic_string@DU?$char_traits@D@std@@V?$allocator@D@2@@std@@@std@@QAE@ABV01@@Z ; std::allocator<std::basic_string<char,std::char_traits<char>,std::allocator<char> > >::allocator<std::basic_string<char,std::char_traits<char>,std::allocator<char> > >

; 22   : 		}

  0001a	8b 45 fc	 mov	 eax, DWORD PTR _this$[ebp]
  0001d	83 c4 04	 add	 esp, 4
  00020	3b ec		 cmp	 ebp, esp
  00022	e8 00 00 00 00	 call	 __RTC_CheckEsp
  00027	8b e5		 mov	 esp, ebp
  00029	5d		 pop	 ebp
  0002a	c2 04 00	 ret	 4
??0?$_Vector_val@V?$basic_string@DU?$char_traits@D@std@@V?$allocator@D@2@@std@@V?$allocator@V?$basic_string@DU?$char_traits@D@std@@V?$allocator@D@2@@std@@@2@@std@@IAE@V?$allocator@V?$basic_string@DU?$char_traits@D@std@@V?$allocator@D@2@@std@@@1@@Z ENDP ; std::_Vector_val<std::basic_string<char,std::char_traits<char>,std::allocator<char> >,std::allocator<std::basic_string<char,std::char_traits<char>,std::allocator<char> > > >::_Vector_val<std::basic_string<char,std::char_traits<char>,std::allocator<char> >,std::allocator<std::basic_string<char,std::char_traits<char>,std::allocator<char> > > >
_TEXT	ENDS
PUBLIC	??0const_iterator@?$vector@V?$basic_string@DU?$char_traits@D@std@@V?$allocator@D@2@@std@@V?$allocator@V?$basic_string@DU?$char_traits@D@std@@V?$allocator@D@2@@std@@@2@@std@@QAE@PAV?$basic_string@DU?$char_traits@D@std@@V?$allocator@D@2@@2@@Z ; std::vector<std::basic_string<char,std::char_traits<char>,std::allocator<char> >,std::allocator<std::basic_string<char,std::char_traits<char>,std::allocator<char> > > >::const_iterator::const_iterator
; Function compile flags: /Odt /RTCsu
;	COMDAT ??0iterator@?$vector@V?$basic_string@DU?$char_traits@D@std@@V?$allocator@D@2@@std@@V?$allocator@V?$basic_string@DU?$char_traits@D@std@@V?$allocator@D@2@@std@@@2@@std@@QAE@PAV?$basic_string@DU?$char_traits@D@std@@V?$allocator@D@2@@2@@Z
_TEXT	SEGMENT
_this$ = -4						; size = 4
__Ptr$ = 8						; size = 4
??0iterator@?$vector@V?$basic_string@DU?$char_traits@D@std@@V?$allocator@D@2@@std@@V?$allocator@V?$basic_string@DU?$char_traits@D@std@@V?$allocator@D@2@@std@@@2@@std@@QAE@PAV?$basic_string@DU?$char_traits@D@std@@V?$allocator@D@2@@2@@Z PROC NEAR ; std::vector<std::basic_string<char,std::char_traits<char>,std::allocator<char> >,std::allocator<std::basic_string<char,std::char_traits<char>,std::allocator<char> > > >::iterator::iterator, COMDAT
; _this$ = ecx

; 215  : 			{	// construct with pointer _Ptr

  00000	55		 push	 ebp
  00001	8b ec		 mov	 ebp, esp
  00003	51		 push	 ecx
  00004	c7 45 fc cc cc
	cc cc		 mov	 DWORD PTR [ebp-4], -858993460 ; ccccccccH
  0000b	89 4d fc	 mov	 DWORD PTR _this$[ebp], ecx
  0000e	8b 45 08	 mov	 eax, DWORD PTR __Ptr$[ebp]
  00011	50		 push	 eax
  00012	8b 4d fc	 mov	 ecx, DWORD PTR _this$[ebp]
  00015	e8 00 00 00 00	 call	 ??0const_iterator@?$vector@V?$basic_string@DU?$char_traits@D@std@@V?$allocator@D@2@@std@@V?$allocator@V?$basic_string@DU?$char_traits@D@std@@V?$allocator@D@2@@std@@@2@@std@@QAE@PAV?$basic_string@DU?$char_traits@D@std@@V?$allocator@D@2@@2@@Z ; std::vector<std::basic_string<char,std::char_traits<char>,std::allocator<char> >,std::allocator<std::basic_string<char,std::char_traits<char>,std::allocator<char> > > >::const_iterator::const_iterator

; 216  : 			}

  0001a	8b 45 fc	 mov	 eax, DWORD PTR _this$[ebp]
  0001d	83 c4 04	 add	 esp, 4
  00020	3b ec		 cmp	 ebp, esp
  00022	e8 00 00 00 00	 call	 __RTC_CheckEsp
  00027	8b e5		 mov	 esp, ebp
  00029	5d		 pop	 ebp
  0002a	c2 04 00	 ret	 4
??0iterator@?$vector@V?$basic_string@DU?$char_traits@D@std@@V?$allocator@D@2@@std@@V?$allocator@V?$basic_string@DU?$char_traits@D@std@@V?$allocator@D@2@@std@@@2@@std@@QAE@PAV?$basic_string@DU?$char_traits@D@std@@V?$allocator@D@2@@2@@Z ENDP ; std::vector<std::basic_string<char,std::char_traits<char>,std::allocator<char> >,std::allocator<std::basic_string<char,std::char_traits<char>,std::allocator<char> > > >::iterator::iterator
_TEXT	ENDS
PUBLIC	??Dconst_iterator@?$vector@V?$basic_string@DU?$char_traits@D@std@@V?$allocator@D@2@@std@@V?$allocator@V?$basic_string@DU?$char_traits@D@std@@V?$allocator@D@2@@std@@@2@@std@@QBEABV?$basic_string@DU?$char_traits@D@std@@V?$allocator@D@2@@2@XZ ; std::vector<std::basic_string<char,std::char_traits<char>,std::allocator<char> >,std::allocator<std::basic_string<char,std::char_traits<char>,std::allocator<char> > > >::const_iterator::operator*
; Function compile flags: /Odt /RTCsu
;	COMDAT ??Diterator@?$vector@V?$basic_string@DU?$char_traits@D@std@@V?$allocator@D@2@@std@@V?$allocator@V?$basic_string@DU?$char_traits@D@std@@V?$allocator@D@2@@std@@@2@@std@@QBEAAV?$basic_string@DU?$char_traits@D@std@@V?$allocator@D@2@@2@XZ
_TEXT	SEGMENT
_this$ = -4						; size = 4
??Diterator@?$vector@V?$basic_string@DU?$char_traits@D@std@@V?$allocator@D@2@@std@@V?$allocator@V?$basic_string@DU?$char_traits@D@std@@V?$allocator@D@2@@std@@@2@@std@@QBEAAV?$basic_string@DU?$char_traits@D@std@@V?$allocator@D@2@@2@XZ PROC NEAR ; std::vector<std::basic_string<char,std::char_traits<char>,std::allocator<char> >,std::allocator<std::basic_string<char,std::char_traits<char>,std::allocator<char> > > >::iterator::operator*, COMDAT
; _this$ = ecx

; 219  : 			{	// return designated object

  00000	55		 push	 ebp
  00001	8b ec		 mov	 ebp, esp
  00003	51		 push	 ecx
  00004	c7 45 fc cc cc
	cc cc		 mov	 DWORD PTR [ebp-4], -858993460 ; ccccccccH
  0000b	89 4d fc	 mov	 DWORD PTR _this$[ebp], ecx

; 220  : 			return ((reference)**(const_iterator *)this);

  0000e	8b 4d fc	 mov	 ecx, DWORD PTR _this$[ebp]
  00011	e8 00 00 00 00	 call	 ??Dconst_iterator@?$vector@V?$basic_string@DU?$char_traits@D@std@@V?$allocator@D@2@@std@@V?$allocator@V?$basic_string@DU?$char_traits@D@std@@V?$allocator@D@2@@std@@@2@@std@@QBEABV?$basic_string@DU?$char_traits@D@std@@V?$allocator@D@2@@2@XZ ; std::vector<std::basic_string<char,std::char_traits<char>,std::allocator<char> >,std::allocator<std::basic_string<char,std::char_traits<char>,std::allocator<char> > > >::const_iterator::operator*

; 221  : 			}

  00016	83 c4 04	 add	 esp, 4
  00019	3b ec		 cmp	 ebp, esp
  0001b	e8 00 00 00 00	 call	 __RTC_CheckEsp
  00020	8b e5		 mov	 esp, ebp
  00022	5d		 pop	 ebp
  00023	c3		 ret	 0
??Diterator@?$vector@V?$basic_string@DU?$char_traits@D@std@@V?$allocator@D@2@@std@@V?$allocator@V?$basic_string@DU?$char_traits@D@std@@V?$allocator@D@2@@std@@@2@@std@@QBEAAV?$basic_string@DU?$char_traits@D@std@@V?$allocator@D@2@@2@XZ ENDP ; std::vector<std::basic_string<char,std::char_traits<char>,std::allocator<char> >,std::allocator<std::basic_string<char,std::char_traits<char>,std::allocator<char> > > >::iterator::operator*
_TEXT	ENDS
PUBLIC	??Yiterator@?$vector@V?$basic_string@DU?$char_traits@D@std@@V?$allocator@D@2@@std@@V?$allocator@V?$basic_string@DU?$char_traits@D@std@@V?$allocator@D@2@@std@@@2@@std@@QAEAAV012@H@Z ; std::vector<std::basic_string<char,std::char_traits<char>,std::allocator<char> >,std::allocator<std::basic_string<char,std::char_traits<char>,std::allocator<char> > > >::iterator::operator+=
; Function compile flags: /Odt /RTCsu
;	COMDAT ??Hiterator@?$vector@V?$basic_string@DU?$char_traits@D@std@@V?$allocator@D@2@@std@@V?$allocator@V?$basic_string@DU?$char_traits@D@std@@V?$allocator@D@2@@std@@@2@@std@@QBE?AV012@H@Z
_TEXT	SEGMENT
__Tmp$ = -12						; size = 4
_this$ = -4						; size = 4
___$ReturnUdt$ = 8					; size = 4
__Off$ = 12						; size = 4
??Hiterator@?$vector@V?$basic_string@DU?$char_traits@D@std@@V?$allocator@D@2@@std@@V?$allocator@V?$basic_string@DU?$char_traits@D@std@@V?$allocator@D@2@@std@@@2@@std@@QBE?AV012@H@Z PROC NEAR ; std::vector<std::basic_string<char,std::char_traits<char>,std::allocator<char> >,std::allocator<std::basic_string<char,std::char_traits<char>,std::allocator<char> > > >::iterator::operator+, COMDAT
; _this$ = ecx

; 261  : 			{	// return this + integer

  00000	55		 push	 ebp
  00001	8b ec		 mov	 ebp, esp
  00003	83 ec 10	 sub	 esp, 16			; 00000010H
  00006	b8 cc cc cc cc	 mov	 eax, -858993460		; ccccccccH
  0000b	89 45 f0	 mov	 DWORD PTR [ebp-16], eax
  0000e	89 45 f4	 mov	 DWORD PTR [ebp-12], eax
  00011	89 45 f8	 mov	 DWORD PTR [ebp-8], eax
  00014	89 45 fc	 mov	 DWORD PTR [ebp-4], eax
  00017	89 4d fc	 mov	 DWORD PTR _this$[ebp], ecx

; 262  : 			iterator _Tmp = *this;

  0001a	8b 45 fc	 mov	 eax, DWORD PTR _this$[ebp]
  0001d	8b 08		 mov	 ecx, DWORD PTR [eax]
  0001f	89 4d f4	 mov	 DWORD PTR __Tmp$[ebp], ecx

; 263  : 			return (_Tmp += _Off);

  00022	8b 55 0c	 mov	 edx, DWORD PTR __Off$[ebp]
  00025	52		 push	 edx
  00026	8d 4d f4	 lea	 ecx, DWORD PTR __Tmp$[ebp]
  00029	e8 00 00 00 00	 call	 ??Yiterator@?$vector@V?$basic_string@DU?$char_traits@D@std@@V?$allocator@D@2@@std@@V?$allocator@V?$basic_string@DU?$char_traits@D@std@@V?$allocator@D@2@@std@@@2@@std@@QAEAAV012@H@Z ; std::vector<std::basic_string<char,std::char_traits<char>,std::allocator<char> >,std::allocator<std::basic_string<char,std::char_traits<char>,std::allocator<char> > > >::iterator::operator+=
  0002e	8b 00		 mov	 eax, DWORD PTR [eax]
  00030	8b 4d 08	 mov	 ecx, DWORD PTR ___$ReturnUdt$[ebp]
  00033	89 01		 mov	 DWORD PTR [ecx], eax
  00035	8b 45 08	 mov	 eax, DWORD PTR ___$ReturnUdt$[ebp]

; 264  : 			}

  00038	52		 push	 edx
  00039	8b cd		 mov	 ecx, ebp
  0003b	50		 push	 eax
  0003c	8d 15 00 00 00
	00		 lea	 edx, DWORD PTR $L190682
  00042	e8 00 00 00 00	 call	 @_RTC_CheckStackVars@8
  00047	58		 pop	 eax
  00048	5a		 pop	 edx
  00049	83 c4 10	 add	 esp, 16			; 00000010H
  0004c	3b ec		 cmp	 ebp, esp
  0004e	e8 00 00 00 00	 call	 __RTC_CheckEsp
  00053	8b e5		 mov	 esp, ebp
  00055	5d		 pop	 ebp
  00056	c2 08 00	 ret	 8
$L190682:
  00059	01 00 00 00	 DD	 1
  0005d	00 00 00 00	 DD	 $L190681
$L190681:
  00061	f4 ff ff ff	 DD	 -12			; fffffff4H
  00065	04 00 00 00	 DD	 4
  00069	00 00 00 00	 DD	 $L190680
$L190680:
  0006d	5f		 DB	 95			; 0000005fH
  0006e	54		 DB	 84			; 00000054H
  0006f	6d		 DB	 109			; 0000006dH
  00070	70		 DB	 112			; 00000070H
  00071	00		 DB	 0
??Hiterator@?$vector@V?$basic_string@DU?$char_traits@D@std@@V?$allocator@D@2@@std@@V?$allocator@V?$basic_string@DU?$char_traits@D@std@@V?$allocator@D@2@@std@@@2@@std@@QBE?AV012@H@Z ENDP ; std::vector<std::basic_string<char,std::char_traits<char>,std::allocator<char> >,std::allocator<std::basic_string<char,std::char_traits<char>,std::allocator<char> > > >::iterator::operator+
; Function compile flags: /Odt /RTCsu
; File d:\program files (x86)\microsoft visual studio .net 2003\vc7\include\xmemory
_TEXT	ENDS
;	COMDAT ??0?$allocator@V?$basic_string@DU?$char_traits@D@std@@V?$allocator@D@2@@std@@@std@@QAE@ABV01@@Z
_TEXT	SEGMENT
_this$ = -4						; size = 4
___formal$ = 8						; size = 4
??0?$allocator@V?$basic_string@DU?$char_traits@D@std@@V?$allocator@D@2@@std@@@std@@QAE@ABV01@@Z PROC NEAR ; std::allocator<std::basic_string<char,std::char_traits<char>,std::allocator<char> > >::allocator<std::basic_string<char,std::char_traits<char>,std::allocator<char> > >, COMDAT
; _this$ = ecx

; 115  : 	allocator(const allocator<_Ty>&)

  00000	55		 push	 ebp
  00001	8b ec		 mov	 ebp, esp
  00003	51		 push	 ecx
  00004	c7 45 fc cc cc
	cc cc		 mov	 DWORD PTR [ebp-4], -858993460 ; ccccccccH
  0000b	89 4d fc	 mov	 DWORD PTR _this$[ebp], ecx

; 116  : 		{	// construct by copying (do nothing)
; 117  : 		}

  0000e	8b 45 fc	 mov	 eax, DWORD PTR _this$[ebp]
  00011	8b e5		 mov	 esp, ebp
  00013	5d		 pop	 ebp
  00014	c2 04 00	 ret	 4
??0?$allocator@V?$basic_string@DU?$char_traits@D@std@@V?$allocator@D@2@@std@@@std@@QAE@ABV01@@Z ENDP ; std::allocator<std::basic_string<char,std::char_traits<char>,std::allocator<char> > >::allocator<std::basic_string<char,std::char_traits<char>,std::allocator<char> > >
_TEXT	ENDS
EXTRN	??3@YAXPAX@Z:NEAR				; operator delete
; Function compile flags: /Odt /RTCsu
;	COMDAT ?deallocate@?$allocator@V?$basic_string@DU?$char_traits@D@std@@V?$allocator@D@2@@std@@@std@@QAEXPAV?$basic_string@DU?$char_traits@D@std@@V?$allocator@D@2@@2@I@Z
_TEXT	SEGMENT
_this$ = -4						; size = 4
__Ptr$ = 8						; size = 4
___formal$ = 12						; size = 4
?deallocate@?$allocator@V?$basic_string@DU?$char_traits@D@std@@V?$allocator@D@2@@std@@@std@@QAEXPAV?$basic_string@DU?$char_traits@D@std@@V?$allocator@D@2@@2@I@Z PROC NEAR ; std::allocator<std::basic_string<char,std::char_traits<char>,std::allocator<char> > >::deallocate, COMDAT
; _this$ = ecx

; 131  : 		{	// deallocate object at _Ptr, ignore size

  00000	55		 push	 ebp
  00001	8b ec		 mov	 ebp, esp
  00003	51		 push	 ecx
  00004	c7 45 fc cc cc
	cc cc		 mov	 DWORD PTR [ebp-4], -858993460 ; ccccccccH
  0000b	89 4d fc	 mov	 DWORD PTR _this$[ebp], ecx

; 132  : 		operator delete(_Ptr);

  0000e	8b 45 08	 mov	 eax, DWORD PTR __Ptr$[ebp]
  00011	50		 push	 eax
  00012	e8 00 00 00 00	 call	 ??3@YAXPAX@Z		; operator delete
  00017	83 c4 04	 add	 esp, 4

; 133  : 		}

  0001a	83 c4 04	 add	 esp, 4
  0001d	3b ec		 cmp	 ebp, esp
  0001f	e8 00 00 00 00	 call	 __RTC_CheckEsp
  00024	8b e5		 mov	 esp, ebp
  00026	5d		 pop	 ebp
  00027	c2 08 00	 ret	 8
?deallocate@?$allocator@V?$basic_string@DU?$char_traits@D@std@@V?$allocator@D@2@@std@@@std@@QAEXPAV?$basic_string@DU?$char_traits@D@std@@V?$allocator@D@2@@2@I@Z ENDP ; std::allocator<std::basic_string<char,std::char_traits<char>,std::allocator<char> > >::deallocate
_TEXT	ENDS
PUBLIC	??$_Allocate@V?$basic_string@DU?$char_traits@D@std@@V?$allocator@D@2@@std@@@std@@YAPAV?$basic_string@DU?$char_traits@D@std@@V?$allocator@D@2@@0@IPAV10@@Z ; std::_Allocate<std::basic_string<char,std::char_traits<char>,std::allocator<char> > >
; Function compile flags: /Odt /RTCsu
;	COMDAT ?allocate@?$allocator@V?$basic_string@DU?$char_traits@D@std@@V?$allocator@D@2@@std@@@std@@QAEPAV?$basic_string@DU?$char_traits@D@std@@V?$allocator@D@2@@2@I@Z
_TEXT	SEGMENT
_this$ = -4						; size = 4
__Count$ = 8						; size = 4
?allocate@?$allocator@V?$basic_string@DU?$char_traits@D@std@@V?$allocator@D@2@@std@@@std@@QAEPAV?$basic_string@DU?$char_traits@D@std@@V?$allocator@D@2@@2@I@Z PROC NEAR ; std::allocator<std::basic_string<char,std::char_traits<char>,std::allocator<char> > >::allocate, COMDAT
; _this$ = ecx

; 136  : 		{	// allocate array of _Count elements

  00000	55		 push	 ebp
  00001	8b ec		 mov	 ebp, esp
  00003	51		 push	 ecx
  00004	c7 45 fc cc cc
	cc cc		 mov	 DWORD PTR [ebp-4], -858993460 ; ccccccccH
  0000b	89 4d fc	 mov	 DWORD PTR _this$[ebp], ecx

; 137  : 		return (_Allocate(_Count, (pointer)0));

  0000e	6a 00		 push	 0
  00010	8b 45 08	 mov	 eax, DWORD PTR __Count$[ebp]
  00013	50		 push	 eax
  00014	e8 00 00 00 00	 call	 ??$_Allocate@V?$basic_string@DU?$char_traits@D@std@@V?$allocator@D@2@@std@@@std@@YAPAV?$basic_string@DU?$char_traits@D@std@@V?$allocator@D@2@@0@IPAV10@@Z ; std::_Allocate<std::basic_string<char,std::char_traits<char>,std::allocator<char> > >
  00019	83 c4 08	 add	 esp, 8

; 138  : 		}

  0001c	83 c4 04	 add	 esp, 4
  0001f	3b ec		 cmp	 ebp, esp
  00021	e8 00 00 00 00	 call	 __RTC_CheckEsp
  00026	8b e5		 mov	 esp, ebp
  00028	5d		 pop	 ebp
  00029	c2 04 00	 ret	 4
?allocate@?$allocator@V?$basic_string@DU?$char_traits@D@std@@V?$allocator@D@2@@std@@@std@@QAEPAV?$basic_string@DU?$char_traits@D@std@@V?$allocator@D@2@@2@I@Z ENDP ; std::allocator<std::basic_string<char,std::char_traits<char>,std::allocator<char> > >::allocate
_TEXT	ENDS
PUBLIC	?max_size@?$allocator@V?$basic_string@DU?$char_traits@D@std@@V?$allocator@D@2@@std@@@std@@QBEIXZ ; std::allocator<std::basic_string<char,std::char_traits<char>,std::allocator<char> > >::max_size
; Function compile flags: /Odt /RTCsu
; File d:\program files (x86)\microsoft visual studio .net 2003\vc7\include\vector
;	COMDAT ?max_size@?$vector@V?$basic_string@DU?$char_traits@D@std@@V?$allocator@D@2@@std@@V?$allocator@V?$basic_string@DU?$char_traits@D@std@@V?$allocator@D@2@@std@@@2@@std@@QBEIXZ
_TEXT	SEGMENT
_this$ = -4						; size = 4
?max_size@?$vector@V?$basic_string@DU?$char_traits@D@std@@V?$allocator@D@2@@std@@V?$allocator@V?$basic_string@DU?$char_traits@D@std@@V?$allocator@D@2@@std@@@2@@std@@QBEIXZ PROC NEAR ; std::vector<std::basic_string<char,std::char_traits<char>,std::allocator<char> >,std::allocator<std::basic_string<char,std::char_traits<char>,std::allocator<char> > > >::max_size, COMDAT
; _this$ = ecx

; 520  : 		{	// return maximum possible length of sequence

  00000	55		 push	 ebp
  00001	8b ec		 mov	 ebp, esp
  00003	51		 push	 ecx
  00004	c7 45 fc cc cc
	cc cc		 mov	 DWORD PTR [ebp-4], -858993460 ; ccccccccH
  0000b	89 4d fc	 mov	 DWORD PTR _this$[ebp], ecx

; 521  : 		return (this->_Alval.max_size());

  0000e	8b 4d fc	 mov	 ecx, DWORD PTR _this$[ebp]
  00011	e8 00 00 00 00	 call	 ?max_size@?$allocator@V?$basic_string@DU?$char_traits@D@std@@V?$allocator@D@2@@std@@@std@@QBEIXZ ; std::allocator<std::basic_string<char,std::char_traits<char>,std::allocator<char> > >::max_size

; 522  : 		}

  00016	83 c4 04	 add	 esp, 4
  00019	3b ec		 cmp	 ebp, esp
  0001b	e8 00 00 00 00	 call	 __RTC_CheckEsp
  00020	8b e5		 mov	 esp, ebp
  00022	5d		 pop	 ebp
  00023	c3		 ret	 0
?max_size@?$vector@V?$basic_string@DU?$char_traits@D@std@@V?$allocator@D@2@@std@@V?$allocator@V?$basic_string@DU?$char_traits@D@std@@V?$allocator@D@2@@std@@@2@@std@@QBEIXZ ENDP ; std::vector<std::basic_string<char,std::char_traits<char>,std::allocator<char> >,std::allocator<std::basic_string<char,std::char_traits<char>,std::allocator<char> > > >::max_size
_TEXT	ENDS
PUBLIC	??$_Destroy_range@V?$basic_string@DU?$char_traits@D@std@@V?$allocator@D@2@@std@@V?$allocator@V?$basic_string@DU?$char_traits@D@std@@V?$allocator@D@2@@std@@@2@@std@@YAXPAV?$basic_string@DU?$char_traits@D@std@@V?$allocator@D@2@@0@0AAV?$allocator@V?$basic_string@DU?$char_traits@D@std@@V?$allocator@D@2@@std@@@0@@Z ; std::_Destroy_range<std::basic_string<char,std::char_traits<char>,std::allocator<char> >,std::allocator<std::basic_string<char,std::char_traits<char>,std::allocator<char> > > >
; Function compile flags: /Odt /RTCsu
;	COMDAT ?_Destroy@?$vector@V?$basic_string@DU?$char_traits@D@std@@V?$allocator@D@2@@std@@V?$allocator@V?$basic_string@DU?$char_traits@D@std@@V?$allocator@D@2@@std@@@2@@std@@IAEXPAV?$basic_string@DU?$char_traits@D@std@@V?$allocator@D@2@@2@0@Z
_TEXT	SEGMENT
_this$ = -4						; size = 4
__First$ = 8						; size = 4
__Last$ = 12						; size = 4
?_Destroy@?$vector@V?$basic_string@DU?$char_traits@D@std@@V?$allocator@D@2@@std@@V?$allocator@V?$basic_string@DU?$char_traits@D@std@@V?$allocator@D@2@@std@@@2@@std@@IAEXPAV?$basic_string@DU?$char_traits@D@std@@V?$allocator@D@2@@2@0@Z PROC NEAR ; std::vector<std::basic_string<char,std::char_traits<char>,std::allocator<char> >,std::allocator<std::basic_string<char,std::char_traits<char>,std::allocator<char> > > >::_Destroy, COMDAT
; _this$ = ecx

; 786  : 		{	// destroy [_First, _Last) using allocator

  00000	55		 push	 ebp
  00001	8b ec		 mov	 ebp, esp
  00003	51		 push	 ecx
  00004	c7 45 fc cc cc
	cc cc		 mov	 DWORD PTR [ebp-4], -858993460 ; ccccccccH
  0000b	89 4d fc	 mov	 DWORD PTR _this$[ebp], ecx

; 787  : 		_Destroy_range(_First, _Last, this->_Alval);

  0000e	8b 45 fc	 mov	 eax, DWORD PTR _this$[ebp]
  00011	50		 push	 eax
  00012	8b 4d 0c	 mov	 ecx, DWORD PTR __Last$[ebp]
  00015	51		 push	 ecx
  00016	8b 55 08	 mov	 edx, DWORD PTR __First$[ebp]
  00019	52		 push	 edx
  0001a	e8 00 00 00 00	 call	 ??$_Destroy_range@V?$basic_string@DU?$char_traits@D@std@@V?$allocator@D@2@@std@@V?$allocator@V?$basic_string@DU?$char_traits@D@std@@V?$allocator@D@2@@std@@@2@@std@@YAXPAV?$basic_string@DU?$char_traits@D@std@@V?$allocator@D@2@@0@0AAV?$allocator@V?$basic_string@DU?$char_traits@D@std@@V?$allocator@D@2@@std@@@0@@Z ; std::_Destroy_range<std::basic_string<char,std::char_traits<char>,std::allocator<char> >,std::allocator<std::basic_string<char,std::char_traits<char>,std::allocator<char> > > >
  0001f	83 c4 0c	 add	 esp, 12			; 0000000cH

; 788  : 		}

  00022	83 c4 04	 add	 esp, 4
  00025	3b ec		 cmp	 ebp, esp
  00027	e8 00 00 00 00	 call	 __RTC_CheckEsp
  0002c	8b e5		 mov	 esp, ebp
  0002e	5d		 pop	 ebp
  0002f	c2 08 00	 ret	 8
?_Destroy@?$vector@V?$basic_string@DU?$char_traits@D@std@@V?$allocator@D@2@@std@@V?$allocator@V?$basic_string@DU?$char_traits@D@std@@V?$allocator@D@2@@std@@@2@@std@@IAEXPAV?$basic_string@DU?$char_traits@D@std@@V?$allocator@D@2@@2@0@Z ENDP ; std::vector<std::basic_string<char,std::char_traits<char>,std::allocator<char> >,std::allocator<std::basic_string<char,std::char_traits<char>,std::allocator<char> > > >::_Destroy
_TEXT	ENDS
PUBLIC	__TI3?AVlength_error@std@@
PUBLIC	__CTA3?AVlength_error@std@@
PUBLIC	__CT??_R0?AVlength_error@std@@@8??0length_error@std@@QAE@ABV01@@Z40
PUBLIC	??_C@_0BD@OLBABOEK@vector?$DMT?$DO?5too?5long?$AA@ ; `string'
PUBLIC	??_R0?AVlogic_error@std@@@8			; std::logic_error `RTTI Type Descriptor'
PUBLIC	__CT??_R0?AVlogic_error@std@@@8??0logic_error@std@@QAE@ABV01@@Z40
PUBLIC	??_R0?AVexception@@@8				; exception `RTTI Type Descriptor'
PUBLIC	__CT??_R0?AVexception@@@8??0exception@@QAE@ABV0@@Z12
PUBLIC	??_R0?AVlength_error@std@@@8			; std::length_error `RTTI Type Descriptor'
PUBLIC	??0logic_error@std@@QAE@ABV01@@Z		; std::logic_error::logic_error
PUBLIC	??0length_error@std@@QAE@ABV?$basic_string@DU?$char_traits@D@std@@V?$allocator@D@2@@1@@Z ; std::length_error::length_error
PUBLIC	??1length_error@std@@UAE@XZ			; std::length_error::~length_error
PUBLIC	??0length_error@std@@QAE@ABV01@@Z		; std::length_error::length_error
EXTRN	__CxxThrowException@8:NEAR
EXTRN	__imp_??0?$basic_string@DU?$char_traits@D@std@@V?$allocator@D@2@@std@@QAE@PBD@Z:NEAR
EXTRN	??0exception@@QAE@ABV0@@Z:NEAR			; exception::exception
;	COMDAT xdata$x
xdata$x	SEGMENT
$T190696 DD	0ffffffffH
	DD	FLAT:$L190692
$T190694 DD	019930520H
	DD	01H
	DD	FLAT:$T190696
	DD	2 DUP(00H)
	DD	2 DUP(00H)
xdata$x	ENDS
;	COMDAT ??_C@_0BD@OLBABOEK@vector?$DMT?$DO?5too?5long?$AA@
CONST	SEGMENT
??_C@_0BD@OLBABOEK@vector?$DMT?$DO?5too?5long?$AA@ DB 'vector<T> too long'
	DB	00H						; `string'
CONST	ENDS
;	COMDAT __TI3?AVlength_error@std@@
xdata$x	SEGMENT
__TI3?AVlength_error@std@@ DD 00H
	DD	FLAT:??1length_error@std@@UAE@XZ
	DD	00H
	DD	FLAT:__CTA3?AVlength_error@std@@
xdata$x	ENDS
;	COMDAT __CTA3?AVlength_error@std@@
xdata$x	SEGMENT
__CTA3?AVlength_error@std@@ DD 03H
	DD	FLAT:__CT??_R0?AVlength_error@std@@@8??0length_error@std@@QAE@ABV01@@Z40
	DD	FLAT:__CT??_R0?AVlogic_error@std@@@8??0logic_error@std@@QAE@ABV01@@Z40
	DD	FLAT:__CT??_R0?AVexception@@@8??0exception@@QAE@ABV0@@Z12
xdata$x	ENDS
;	COMDAT __CT??_R0?AVlength_error@std@@@8??0length_error@std@@QAE@ABV01@@Z40
xdata$x	SEGMENT
__CT??_R0?AVlength_error@std@@@8??0length_error@std@@QAE@ABV01@@Z40 DD 00H
	DD	FLAT:??_R0?AVlength_error@std@@@8
	DD	00H
	DD	0ffffffffH
	ORG $+4
	DD	028H
	DD	FLAT:??0length_error@std@@QAE@ABV01@@Z
xdata$x	ENDS
;	COMDAT ??_R0?AVlength_error@std@@@8
_DATA	SEGMENT
??_R0?AVlength_error@std@@@8 DD FLAT:??_7type_info@@6B@	; std::length_error `RTTI Type Descriptor'
	DD	00H
	DB	'.?AVlength_error@std@@', 00H
	ORG $-31
	DD	FLAT:??_7type_info@@6B@
	DD	00H
	DB	'.?AVlength_error@std@@', 00H
_DATA	ENDS
;	COMDAT __CT??_R0?AVlogic_error@std@@@8??0logic_error@std@@QAE@ABV01@@Z40
