; Listing generated by Microsoft (R) Optimizing Compiler Version 13.10.3077 

	TITLE	.\src\Gui\CommonControl\EditGlow.cpp
	.386P
include listing.inc
if @Version gt 510
.model FLAT
else
_TEXT	SEGMENT PARA USE32 PUBLIC 'CODE'
_TEXT	ENDS
_DATA	SEGMENT DWORD USE32 PUBLIC 'DATA'
_DATA	ENDS
CONST	SEGMENT DWORD USE32 PUBLIC 'CONST'
CONST	ENDS
_BSS	SEGMENT DWORD USE32 PUBLIC 'BSS'
_BSS	ENDS
$$SYMBOLS	SEGMENT BYTE USE32 'DEBSYM'
$$SYMBOLS	ENDS
_TLS	SEGMENT DWORD USE32 PUBLIC 'TLS'
_TLS	ENDS
;	COMDAT ??_C@_0EN@IBFBLEEG@D?3?2Program?5Files?5?$CIx86?$CJ?2Microsoft@
CONST	SEGMENT DWORD USE32 PUBLIC 'CONST'
CONST	ENDS
rdata$r	SEGMENT DWORD USE32 PUBLIC 'CONST'
rdata$r	ENDS
xdata$x	SEGMENT DWORD USE32 PUBLIC 'CONST'
xdata$x	ENDS
text$AFX_COL1	SEGMENT PARA USE32 PUBLIC ''
text$AFX_COL1	ENDS
text$yc	SEGMENT PARA USE32 PUBLIC 'CODE'
text$yc	ENDS
CRT$XCA	SEGMENT DWORD USE32 PUBLIC 'DATA'
CRT$XCA	ENDS
CRT$XCU	SEGMENT DWORD USE32 PUBLIC 'DATA'
CRT$XCU	ENDS
CRT$XCL	SEGMENT DWORD USE32 PUBLIC 'DATA'
CRT$XCL	ENDS
CRT$XCC	SEGMENT DWORD USE32 PUBLIC 'DATA'
CRT$XCC	ENDS
CRT$XCZ	SEGMENT DWORD USE32 PUBLIC 'DATA'
CRT$XCZ	ENDS
text$yd	SEGMENT PARA USE32 PUBLIC 'CODE'
text$yd	ENDS
ATL$__m	SEGMENT DWORD USE32 PUBLIC ''
ATL$__m	ENDS
ATL$__z	SEGMENT DWORD USE32 PUBLIC ''
ATL$__z	ENDS
ATL$__a	SEGMENT DWORD USE32 PUBLIC ''
ATL$__a	ENDS
;	COMDAT ??_GCEditGlow@@UAEPAXI@Z
_TEXT	SEGMENT PARA USE32 PUBLIC 'CODE'
_TEXT	ENDS
;	COMDAT ??B?$CComPtrBase@UITypeInfo2@@@ATL@@QBEPAUITypeInfo2@@XZ
_TEXT	SEGMENT PARA USE32 PUBLIC 'CODE'
_TEXT	ENDS
;	COMDAT ?equal@?$istreambuf_iterator@DU?$char_traits@D@std@@@std@@QBE_NABV12@@Z
_TEXT	SEGMENT PARA USE32 PUBLIC 'CODE'
_TEXT	ENDS
;	COMDAT ?equal@?$istreambuf_iterator@_WU?$char_traits@_W@std@@@std@@QBE_NABV12@@Z
_TEXT	SEGMENT PARA USE32 PUBLIC 'CODE'
_TEXT	ENDS
;	COMDAT ?Unlock@?$CComCritSecLock@VCComCriticalSection@ATL@@@ATL@@QAEXXZ
_TEXT	SEGMENT PARA USE32 PUBLIC 'CODE'
_TEXT	ENDS
;	COMDAT ??$_Maklocstr@D@std@@YAPADPBDPADABU_Cvtvec@@@Z
_TEXT	SEGMENT PARA USE32 PUBLIC 'CODE'
_TEXT	ENDS
;	COMDAT ??_R3CEditGlow@@8
rdata$r	SEGMENT DWORD USE32 PUBLIC 'CONST'
rdata$r	ENDS
;	COMDAT ??_R3?$numpunct@_W@std@@8
rdata$r	SEGMENT DWORD USE32 PUBLIC 'CONST'
rdata$r	ENDS
;	COMDAT ??_R3?$numpunct@D@std@@8
rdata$r	SEGMENT DWORD USE32 PUBLIC 'CONST'
rdata$r	ENDS
;	COMDAT ??_R2CEditGlow@@8
rdata$r	SEGMENT DWORD USE32 PUBLIC 'CONST'
rdata$r	ENDS
;	COMDAT ??_R2?$numpunct@_W@std@@8
rdata$r	SEGMENT DWORD USE32 PUBLIC 'CONST'
rdata$r	ENDS
;	COMDAT ??_R2?$numpunct@D@std@@8
rdata$r	SEGMENT DWORD USE32 PUBLIC 'CONST'
rdata$r	ENDS
;	COMDAT ??_R1A@?0A@A@CObject@@8
rdata$r	SEGMENT DWORD USE32 PUBLIC 'CONST'
rdata$r	ENDS
;	COMDAT ??_R0?AVCObject@@@8
_DATA	SEGMENT DWORD USE32 PUBLIC 'DATA'
_DATA	ENDS
;	COMDAT ??_R1A@?0A@A@CCmdTarget@@8
rdata$r	SEGMENT DWORD USE32 PUBLIC 'CONST'
rdata$r	ENDS
;	COMDAT ??_R0?AVCCmdTarget@@@8
_DATA	SEGMENT DWORD USE32 PUBLIC 'DATA'
_DATA	ENDS
;	COMDAT ??_R1A@?0A@A@CWnd@@8
rdata$r	SEGMENT DWORD USE32 PUBLIC 'CONST'
rdata$r	ENDS
;	COMDAT ??_R0?AVCWnd@@@8
_DATA	SEGMENT DWORD USE32 PUBLIC 'DATA'
_DATA	ENDS
;	COMDAT ??_R1A@?0A@A@CEdit@@8
rdata$r	SEGMENT DWORD USE32 PUBLIC 'CONST'
rdata$r	ENDS
;	COMDAT ??_R1A@?0A@A@CEditGlow@@8
rdata$r	SEGMENT DWORD USE32 PUBLIC 'CONST'
rdata$r	ENDS
;	COMDAT ??_R1A@?0A@A@?$numpunct@_W@std@@8
rdata$r	SEGMENT DWORD USE32 PUBLIC 'CONST'
rdata$r	ENDS
;	COMDAT ??_R1A@?0A@A@facet@locale@std@@8
rdata$r	SEGMENT DWORD USE32 PUBLIC 'CONST'
rdata$r	ENDS
;	COMDAT ??_R0?AVfacet@locale@std@@@8
_DATA	SEGMENT DWORD USE32 PUBLIC 'DATA'
_DATA	ENDS
;	COMDAT ??_R1A@?0A@A@?$numpunct@D@std@@8
rdata$r	SEGMENT DWORD USE32 PUBLIC 'CONST'
rdata$r	ENDS
;	COMDAT ??_R0?AVCEdit@@@8
_DATA	SEGMENT DWORD USE32 PUBLIC 'DATA'
_DATA	ENDS
;	COMDAT ??_R0?AVCEditGlow@@@8
_DATA	SEGMENT DWORD USE32 PUBLIC 'DATA'
_DATA	ENDS
;	COMDAT ??_R0?AV?$numpunct@_W@std@@@8
_DATA	SEGMENT DWORD USE32 PUBLIC 'DATA'
_DATA	ENDS
;	COMDAT ??_R0?AV?$numpunct@D@std@@@8
_DATA	SEGMENT DWORD USE32 PUBLIC 'DATA'
_DATA	ENDS
;	COMDAT ??_R4CEditGlow@@6B@
rdata$r	SEGMENT DWORD USE32 PUBLIC 'CONST'
rdata$r	ENDS
;	COMDAT ??0?$allocator@_W@std@@QAE@XZ
_TEXT	SEGMENT PARA USE32 PUBLIC 'CODE'
_TEXT	ENDS
;	COMDAT ??0?$allocator@D@std@@QAE@ABV01@@Z
_TEXT	SEGMENT PARA USE32 PUBLIC 'CODE'
_TEXT	ENDS
;	COMDAT ??0?$allocator@D@std@@QAE@XZ
_TEXT	SEGMENT PARA USE32 PUBLIC 'CODE'
_TEXT	ENDS
;	COMDAT ?deallocate@?$allocator@D@std@@QAEXPADI@Z
_TEXT	SEGMENT PARA USE32 PUBLIC 'CODE'
_TEXT	ENDS
;	COMDAT ?max_size@?$allocator@D@std@@QBEIXZ
_TEXT	SEGMENT PARA USE32 PUBLIC 'CODE'
_TEXT	ENDS
;	COMDAT ?allocate@?$allocator@D@std@@QAEPADI@Z
_TEXT	SEGMENT PARA USE32 PUBLIC 'CODE'
_TEXT	ENDS
;	COMDAT ??$_Allocate@D@std@@YAPADIPAD@Z
_TEXT	SEGMENT PARA USE32 PUBLIC 'CODE'
_TEXT	ENDS
;	COMDAT ??_G?$numpunct@_W@std@@MAEPAXI@Z
_TEXT	SEGMENT PARA USE32 PUBLIC 'CODE'
_TEXT	ENDS
;	COMDAT ??_R4?$numpunct@_W@std@@6B@
rdata$r	SEGMENT DWORD USE32 PUBLIC 'CONST'
rdata$r	ENDS
;	COMDAT ??_G?$numpunct@D@std@@MAEPAXI@Z
_TEXT	SEGMENT PARA USE32 PUBLIC 'CODE'
_TEXT	ENDS
;	COMDAT ??_R4?$numpunct@D@std@@6B@
rdata$r	SEGMENT DWORD USE32 PUBLIC 'CONST'
rdata$r	ENDS
;	COMDAT ??_C@_0EN@CBMLGOH@D?3?2Program?5Files?5?$CIx86?$CJ?2Microsoft@
CONST	SEGMENT DWORD USE32 PUBLIC 'CONST'
CONST	ENDS
;	COMDAT ?_Psave@?$_Facetptr@V?$numpunct@_W@std@@@std@@2PBVfacet@locale@2@B
_DATA	SEGMENT DWORD USE32 PUBLIC 'DATA'
_DATA	ENDS
;	COMDAT ?_Psave@?$_Facetptr@V?$numpunct@D@std@@@std@@2PBVfacet@locale@2@B
_DATA	SEGMENT DWORD USE32 PUBLIC 'DATA'
_DATA	ENDS
;	COMDAT ?Unlock@CComCriticalSection@ATL@@QAEJXZ
_TEXT	SEGMENT PARA USE32 PUBLIC 'CODE'
_TEXT	ENDS
;	COMDAT ??_C@_0FG@LDNDNCJM@D?3?2Program?5Files?5?$CIx86?$CJ?2Microsoft@
CONST	SEGMENT DWORD USE32 PUBLIC 'CONST'
CONST	ENDS
;	COMDAT ??_C@_09HIEJFN@m_bLocked?$AA@
CONST	SEGMENT DWORD USE32 PUBLIC 'CONST'
CONST	ENDS
;	COMDAT ?_Psave@?$_Facetptr@V?$ctype@_W@std@@@std@@2PBVfacet@locale@2@B
_DATA	SEGMENT DWORD USE32 PUBLIC 'DATA'
_DATA	ENDS
;	COMDAT ?_Psave@?$_Facetptr@V?$ctype@D@std@@@std@@2PBVfacet@locale@2@B
_DATA	SEGMENT DWORD USE32 PUBLIC 'DATA'
_DATA	ENDS
;	COMDAT ??$_Maklocchr@_W@std@@YA_WDPA_WABU_Cvtvec@@@Z
_TEXT	SEGMENT PARA USE32 PUBLIC 'CODE'
_TEXT	ENDS
;	COMDAT ??$_DebugHeapDelete@X@std@@YAXPAX@Z
_TEXT	SEGMENT PARA USE32 PUBLIC 'CODE'
_TEXT	ENDS
;	COMDAT ??$_Maklocstr@_W@std@@YAPA_WPBDPA_WABU_Cvtvec@@@Z
_TEXT	SEGMENT PARA USE32 PUBLIC 'CODE'
_TEXT	ENDS
;	COMDAT ??$_Maklocchr@D@std@@YADDPADABU_Cvtvec@@@Z
_TEXT	SEGMENT PARA USE32 PUBLIC 'CODE'
_TEXT	ENDS
;	COMDAT ??_C@_04LOAJBDKD@true?$AA@
CONST	SEGMENT DWORD USE32 PUBLIC 'CONST'
CONST	ENDS
;	COMDAT ??_C@_05LAPONLG@false?$AA@
CONST	SEGMENT DWORD USE32 PUBLIC 'CONST'
CONST	ENDS
;	COMDAT _wmemcpy
_TEXT	SEGMENT PARA USE32 PUBLIC 'CODE'
_TEXT	ENDS
;	COMDAT ?max_size@?$allocator@_W@std@@QBEIXZ
_TEXT	SEGMENT PARA USE32 PUBLIC 'CODE'
_TEXT	ENDS
;	COMDAT ?allocate@?$allocator@_W@std@@QAEPA_WI@Z
_TEXT	SEGMENT PARA USE32 PUBLIC 'CODE'
_TEXT	ENDS
;	COMDAT ??$_Allocate@_W@std@@YAPA_WIPA_W@Z
_TEXT	SEGMENT PARA USE32 PUBLIC 'CODE'
_TEXT	ENDS
;	COMDAT ??_C@_01GFHCPBMG@C?$AA@
CONST	SEGMENT DWORD USE32 PUBLIC 'CONST'
CONST	ENDS
;	COMDAT ?_Peek@?$istreambuf_iterator@_WU?$char_traits@_W@std@@@std@@AAE_WXZ
_TEXT	SEGMENT PARA USE32 PUBLIC 'CODE'
_TEXT	ENDS
;	COMDAT ?_Peek@?$istreambuf_iterator@DU?$char_traits@D@std@@@std@@AAEDXZ
_TEXT	SEGMENT PARA USE32 PUBLIC 'CODE'
_TEXT	ENDS
;	COMDAT ??$use_facet@V?$ctype@_W@std@@@std@@YAABV?$ctype@_W@0@ABVlocale@0@@Z
_TEXT	SEGMENT PARA USE32 PUBLIC 'CODE'
_TEXT	ENDS
;	COMDAT ??_S?$ctype@_W@std@@6B@
CONST	SEGMENT DWORD USE32 PUBLIC 'CONST'
CONST	ENDS
;	COMDAT ??_R4?$ctype@_W@std@@6B@
rdata$r	SEGMENT DWORD USE32 PUBLIC 'CONST'
rdata$r	ENDS
;	COMDAT ??_R0?AV?$ctype@_W@std@@@8
_DATA	SEGMENT DWORD USE32 PUBLIC 'DATA'
_DATA	ENDS
;	COMDAT ??_R3?$ctype@_W@std@@8
rdata$r	SEGMENT DWORD USE32 PUBLIC 'CONST'
rdata$r	ENDS
;	COMDAT ??_R2?$ctype@_W@std@@8
rdata$r	SEGMENT DWORD USE32 PUBLIC 'CONST'
rdata$r	ENDS
;	COMDAT ??_R1A@?0A@A@?$ctype@_W@std@@8
rdata$r	SEGMENT DWORD USE32 PUBLIC 'CONST'
rdata$r	ENDS
;	COMDAT ??_R1A@?0A@A@ctype_base@std@@8
rdata$r	SEGMENT DWORD USE32 PUBLIC 'CONST'
rdata$r	ENDS
;	COMDAT ??_R0?AUctype_base@std@@@8
_DATA	SEGMENT DWORD USE32 PUBLIC 'DATA'
_DATA	ENDS
;	COMDAT ??_G?$ctype@_W@std@@MAEPAXI@Z
_TEXT	SEGMENT PARA USE32 PUBLIC 'CODE'
_TEXT	ENDS
;	COMDAT ??_C@_08EPJLHIJG@bad?5cast?$AA@
CONST	SEGMENT DWORD USE32 PUBLIC 'CONST'
CONST	ENDS
;	COMDAT __TI2?AVbad_cast@@
xdata$x	SEGMENT DWORD USE32 PUBLIC 'CONST'
xdata$x	ENDS
;	COMDAT __CTA2?AVbad_cast@@
xdata$x	SEGMENT DWORD USE32 PUBLIC 'CONST'
xdata$x	ENDS
;	COMDAT __CT??_R0?AVbad_cast@@@8??0bad_cast@@QAE@ABV0@@Z12
xdata$x	SEGMENT DWORD USE32 PUBLIC 'CONST'
xdata$x	ENDS
;	COMDAT ??_R0?AVbad_cast@@@8
_DATA	SEGMENT DWORD USE32 PUBLIC 'DATA'
_DATA	ENDS
;	COMDAT __CT??_R0?AVexception@@@8??0exception@@QAE@ABV0@@Z12
xdata$x	SEGMENT DWORD USE32 PUBLIC 'CONST'
xdata$x	ENDS
;	COMDAT ??_R0?AVexception@@@8
_DATA	SEGMENT DWORD USE32 PUBLIC 'DATA'
_DATA	ENDS
;	COMDAT ??$_DebugHeapDelete@Vfacet@locale@std@@@std@@YAXPAVfacet@locale@0@@Z
_TEXT	SEGMENT PARA USE32 PUBLIC 'CODE'
_TEXT	ENDS
;	COMDAT ??$use_facet@V?$ctype@D@std@@@std@@YAABV?$ctype@D@0@ABVlocale@0@@Z
_TEXT	SEGMENT PARA USE32 PUBLIC 'CODE'
_TEXT	ENDS
;	COMDAT ??_S?$ctype@D@std@@6B@
CONST	SEGMENT DWORD USE32 PUBLIC 'CONST'
CONST	ENDS
;	COMDAT ??_R4?$ctype@D@std@@6B@
rdata$r	SEGMENT DWORD USE32 PUBLIC 'CONST'
rdata$r	ENDS
;	COMDAT ??_R0?AV?$ctype@D@std@@@8
_DATA	SEGMENT DWORD USE32 PUBLIC 'DATA'
_DATA	ENDS
;	COMDAT ??_R3?$ctype@D@std@@8
rdata$r	SEGMENT DWORD USE32 PUBLIC 'CONST'
rdata$r	ENDS
;	COMDAT ??_R2?$ctype@D@std@@8
rdata$r	SEGMENT DWORD USE32 PUBLIC 'CONST'
rdata$r	ENDS
;	COMDAT ??_R1A@?0A@A@?$ctype@D@std@@8
rdata$r	SEGMENT DWORD USE32 PUBLIC 'CONST'
rdata$r	ENDS
;	COMDAT ??_G?$ctype@D@std@@MAEPAXI@Z
_TEXT	SEGMENT PARA USE32 PUBLIC 'CODE'
_TEXT	ENDS
;	COMDAT ??_S?$numpunct@_W@std@@6B@
CONST	SEGMENT DWORD USE32 PUBLIC 'CONST'
CONST	ENDS
;	COMDAT ??_S?$numpunct@D@std@@6B@
CONST	SEGMENT DWORD USE32 PUBLIC 'CONST'
CONST	ENDS
;	COMDAT _wmemmove
_TEXT	SEGMENT PARA USE32 PUBLIC 'CODE'
_TEXT	ENDS
;	COMDAT ?deallocate@?$allocator@_W@std@@QAEXPA_WI@Z
_TEXT	SEGMENT PARA USE32 PUBLIC 'CODE'
_TEXT	ENDS
;	COMDAT ??0?$allocator@_W@std@@QAE@ABV01@@Z
_TEXT	SEGMENT PARA USE32 PUBLIC 'CODE'
_TEXT	ENDS
;	COMDAT ?DrawImage@Graphics@Gdiplus@@QAE?AW4Status@2@PAVImage@2@ABVRect@2@HHHHW4Unit@2@PBVImageAttributes@2@P6GHPAX@Z4@Z
_TEXT	SEGMENT PARA USE32 PUBLIC 'CODE'
_TEXT	ENDS
;	COMDAT ?SetStatus@Graphics@Gdiplus@@IBE?AW4Status@2@W432@@Z
_TEXT	SEGMENT PARA USE32 PUBLIC 'CODE'
_TEXT	ENDS
;	COMDAT ??0Rect@Gdiplus@@QAE@HHHH@Z
_TEXT	SEGMENT PARA USE32 PUBLIC 'CODE'
_TEXT	ENDS
;	COMDAT ?SetSmoothingMode@Graphics@Gdiplus@@QAE?AW4Status@2@W4SmoothingMode@2@@Z
_TEXT	SEGMENT PARA USE32 PUBLIC 'CODE'
_TEXT	ENDS
;	COMDAT ??1Graphics@Gdiplus@@QAE@XZ
_TEXT	SEGMENT PARA USE32 PUBLIC 'CODE'
_TEXT	ENDS
;	COMDAT ??0Graphics@Gdiplus@@QAE@PAUHDC__@@@Z
_TEXT	SEGMENT PARA USE32 PUBLIC 'CODE'
_TEXT	ENDS
;	COMDAT ?SetNativeGraphics@Graphics@Gdiplus@@IAEXPAVGpGraphics@2@@Z
_TEXT	SEGMENT PARA USE32 PUBLIC 'CODE'
_TEXT	ENDS
;	COMDAT ?_messageEntries@CEditGlow@@0QBUAFX_MSGMAP_ENTRY@@B
CONST	SEGMENT DWORD USE32 PUBLIC 'CONST'
CONST	ENDS
;	COMDAT ?messageMap@CEditGlow@@1UAFX_MSGMAP@@B
CONST	SEGMENT DWORD USE32 PUBLIC 'CONST'
CONST	ENDS
;	COMDAT ?Clone@Image@Gdiplus@@UAEPAV12@XZ
_TEXT	SEGMENT PARA USE32 PUBLIC 'CODE'
_TEXT	ENDS
;	COMDAT ?SetStatus@Image@Gdiplus@@IBE?AW4Status@2@W432@@Z
_TEXT	SEGMENT PARA USE32 PUBLIC 'CODE'
_TEXT	ENDS
;	COMDAT ??2GdiplusBase@Gdiplus@@SAPAXI@Z
_TEXT	SEGMENT PARA USE32 PUBLIC 'CODE'
_TEXT	ENDS
;	COMDAT ??3GdiplusBase@Gdiplus@@SAXPAX@Z
_TEXT	SEGMENT PARA USE32 PUBLIC 'CODE'
_TEXT	ENDS
;	COMDAT ??0Image@Gdiplus@@IAE@PAVGpImage@1@W4Status@1@@Z
_TEXT	SEGMENT PARA USE32 PUBLIC 'CODE'
_TEXT	ENDS
;	COMDAT ??_7Image@Gdiplus@@6B@
CONST	SEGMENT DWORD USE32 PUBLIC 'CONST'
CONST	ENDS
;	COMDAT ??_R4Image@Gdiplus@@6B@
rdata$r	SEGMENT DWORD USE32 PUBLIC 'CONST'
rdata$r	ENDS
;	COMDAT ??_R0?AVImage@Gdiplus@@@8
_DATA	SEGMENT DWORD USE32 PUBLIC 'DATA'
_DATA	ENDS
;	COMDAT ??_R3Image@Gdiplus@@8
rdata$r	SEGMENT DWORD USE32 PUBLIC 'CONST'
rdata$r	ENDS
;	COMDAT ??_R2Image@Gdiplus@@8
rdata$r	SEGMENT DWORD USE32 PUBLIC 'CONST'
rdata$r	ENDS
;	COMDAT ??_R1A@?0A@A@Image@Gdiplus@@8
rdata$r	SEGMENT DWORD USE32 PUBLIC 'CONST'
rdata$r	ENDS
;	COMDAT ??_R13?0A@A@GdiplusBase@Gdiplus@@8
rdata$r	SEGMENT DWORD USE32 PUBLIC 'CONST'
rdata$r	ENDS
;	COMDAT ??_R0?AVGdiplusBase@Gdiplus@@@8
_DATA	SEGMENT DWORD USE32 PUBLIC 'DATA'
_DATA	ENDS
;	COMDAT ??_GImage@Gdiplus@@UAEPAXI@Z
_TEXT	SEGMENT PARA USE32 PUBLIC 'CODE'
_TEXT	ENDS
;	COMDAT ?SetNativeImage@Image@Gdiplus@@IAEXPAVGpImage@2@@Z
_TEXT	SEGMENT PARA USE32 PUBLIC 'CODE'
_TEXT	ENDS
;	COMDAT ??0CTraceFileAndLineInfo@ATL@@QAE@PBDH@Z
_TEXT	SEGMENT PARA USE32 PUBLIC 'CODE'
_TEXT	ENDS
;	COMDAT ??RCTraceFileAndLineInfo@ATL@@QBAXPBDZZ
_TEXT	SEGMENT PARA USE32 PUBLIC 'CODE'
_TEXT	ENDS
;	COMDAT ?TraceV@CTrace@ATL@@QBAXPBDHKI0PAD@Z
_TEXT	SEGMENT PARA USE32 PUBLIC 'CODE'
_TEXT	ENDS
;	COMDAT ??BCTraceCategory@ATL@@QBEKXZ
_TEXT	SEGMENT PARA USE32 PUBLIC 'CODE'
_TEXT	ENDS
;	COMDAT ?GetHeight@Image@Gdiplus@@QAEIXZ
_TEXT	SEGMENT PARA USE32 PUBLIC 'CODE'
_TEXT	ENDS
;	COMDAT ?GetWidth@Image@Gdiplus@@QAEIXZ
_TEXT	SEGMENT PARA USE32 PUBLIC 'CODE'
_TEXT	ENDS
;	COMDAT ?GetLastStatus@Image@Gdiplus@@QBE?AW4Status@2@XZ
_TEXT	SEGMENT PARA USE32 PUBLIC 'CODE'
_TEXT	ENDS
;	COMDAT ??1Image@Gdiplus@@UAE@XZ
_TEXT	SEGMENT PARA USE32 PUBLIC 'CODE'
_TEXT	ENDS
;	COMDAT ??0Image@Gdiplus@@QAE@PB_WH@Z
_TEXT	SEGMENT PARA USE32 PUBLIC 'CODE'
_TEXT	ENDS
;	COMDAT ?Release@CStringData@ATL@@QAEXXZ
_TEXT	SEGMENT PARA USE32 PUBLIC 'CODE'
_TEXT	ENDS
;	COMDAT ??_C@_0L@OIIMFBNE@nRefs?5?$CB?$DN?50?$AA@
CONST	SEGMENT DWORD USE32 PUBLIC 'CONST'
CONST	ENDS
;	COMDAT ??_C@_0FJ@DMHPDOJC@D?3?2Program?5Files?5?$CIx86?$CJ?2Microsoft@
CONST	SEGMENT DWORD USE32 PUBLIC 'CONST'
CONST	ENDS
;	COMDAT ??_C@_0BA@GOIMFHNK@pStringMgr?5?$CB?$DN?50?$AA@
CONST	SEGMENT DWORD USE32 PUBLIC 'CONST'
CONST	ENDS
;	COMDAT ?data@CStringData@ATL@@QAEPAXXZ
_TEXT	SEGMENT PARA USE32 PUBLIC 'CODE'
_TEXT	ENDS
;	COMDAT ?GetDefaultManager@?$StrTraitMFC_DLL@DV?$ChTraitsCRT@D@ATL@@@@SAPAUIAtlStringMgr@ATL@@XZ
_TEXT	SEGMENT PARA USE32 PUBLIC 'CODE'
_TEXT	ENDS
;	COMDAT ??_7CEditGlow@@6B@
CONST	SEGMENT DWORD USE32 PUBLIC 'CONST'
CONST	ENDS
;	COMDAT ?classCEditGlow@CEditGlow@@2UCRuntimeClass@@B
CONST	SEGMENT DWORD USE32 PUBLIC 'CONST'
CONST	ENDS
sxdata	SEGMENT DWORD USE32 'SXDATA'
sxdata	ENDS
FLAT	GROUP _DATA, CONST, _BSS
	ASSUME	CS: FLAT, DS: FLAT, SS: FLAT
endif

INCLUDELIB MSVCRTD
INCLUDELIB OLDNAMES

PUBLIC	?classCEditGlow@CEditGlow@@2UCRuntimeClass@@B	; CEditGlow::classCEditGlow
PUBLIC	?_messageEntries@CEditGlow@@0QBUAFX_MSGMAP_ENTRY@@B ; CEditGlow::_messageEntries
PUBLIC	?messageMap@CEditGlow@@1UAFX_MSGMAP@@B		; CEditGlow::messageMap
PUBLIC	?OnCreate@CEditGlow@@QAEHPAUtagCREATESTRUCTA@@@Z ; CEditGlow::OnCreate
PUBLIC	?OnMouseLeave@CEditGlow@@QAEJIJ@Z		; CEditGlow::OnMouseLeave
PUBLIC	?OnMouseHover@CEditGlow@@QAEJIJ@Z		; CEditGlow::OnMouseHover
PUBLIC	?OnMouseMove@CEditGlow@@QAEXIVCPoint@@@Z	; CEditGlow::OnMouseMove
PUBLIC	?OnPaint@CEditGlow@@QAEXXZ			; CEditGlow::OnPaint
PUBLIC	?OnSetFocus@CEditGlow@@QAEXPAVCWnd@@@Z		; CEditGlow::OnSetFocus
PUBLIC	?OnKillFocus@CEditGlow@@QAEXPAVCWnd@@@Z		; CEditGlow::OnKillFocus
PUBLIC	?CtlColor@CEditGlow@@QAEPAUHBRUSH__@@PAVCDC@@I@Z ; CEditGlow::CtlColor
EXTRN	?GetThisClass@CEdit@@SGPAUCRuntimeClass@@XZ:NEAR ; CEdit::GetThisClass
EXTRN	?GetThisMessageMap@CWnd@@KGPBUAFX_MSGMAP@@XZ:NEAR ; CWnd::GetThisMessageMap
CONST	SEGMENT
$SG187075 DB	'CEditGlow', 00H
CONST	ENDS
;	COMDAT ?classCEditGlow@CEditGlow@@2UCRuntimeClass@@B
CONST	SEGMENT
?classCEditGlow@CEditGlow@@2UCRuntimeClass@@B DD FLAT:$SG187075 ; CEditGlow::classCEditGlow
	DD	08cH
	DD	0ffffH
	DD	00H
	DD	FLAT:?GetThisClass@CEdit@@SGPAUCRuntimeClass@@XZ
	DD	00H
	DD	00H
CONST	ENDS
CONST	SEGMENT
	ORG $+2
$SG187130 DB	'.\src\Gui\CommonControl\EditGlow.cpp', 00H
	ORG $+3
$SG187131 DB	'w: %d ,h: %d, %s', 0dH, 0aH, 00H
CONST	ENDS
;	COMDAT ?_messageEntries@CEditGlow@@0QBUAFX_MSGMAP_ENTRY@@B
CONST	SEGMENT
?_messageEntries@CEditGlow@@0QBUAFX_MSGMAP_ENTRY@@B DD 01H ; CEditGlow::_messageEntries
	DD	00H
	DD	00H
	DD	00H
	DD	0dH
	DD	FLAT:?OnCreate@CEditGlow@@QAEHPAUtagCREATESTRUCTA@@@Z
	DD	02a3H
	DD	00H
	DD	00H
	DD	00H
	DD	0eH
	DD	FLAT:?OnMouseLeave@CEditGlow@@QAEJIJ@Z
	DD	02a1H
	DD	00H
	DD	00H
	DD	00H
	DD	0eH
	DD	FLAT:?OnMouseHover@CEditGlow@@QAEJIJ@Z
	DD	0200H
	DD	00H
	DD	00H
	DD	00H
	DD	032H
	DD	FLAT:?OnMouseMove@CEditGlow@@QAEXIVCPoint@@@Z
	DD	0fH
	DD	00H
	DD	00H
	DD	00H
	DD	010H
	DD	FLAT:?OnPaint@CEditGlow@@QAEXXZ
	DD	07H
	DD	00H
	DD	00H
	DD	00H
	DD	020H
	DD	FLAT:?OnSetFocus@CEditGlow@@QAEXPAVCWnd@@@Z
	DD	08H
	DD	00H
	DD	00H
	DD	00H
	DD	020H
	DD	FLAT:?OnKillFocus@CEditGlow@@QAEXPAVCWnd@@@Z
	DD	0bc19H
	DD	00H
	DD	00H
	DD	00H
	DD	09H
	DD	FLAT:?CtlColor@CEditGlow@@QAEPAUHBRUSH__@@PAVCDC@@I@Z
	DD	00H
	DD	00H
	DD	00H
	DD	00H
	DD	00H
	DD	00H
CONST	ENDS
;	COMDAT ?messageMap@CEditGlow@@1UAFX_MSGMAP@@B
CONST	SEGMENT
?messageMap@CEditGlow@@1UAFX_MSGMAP@@B DD FLAT:?GetThisMessageMap@CWnd@@KGPBUAFX_MSGMAP@@XZ ; CEditGlow::messageMap
	DD	FLAT:?_messageEntries@CEditGlow@@0QBUAFX_MSGMAP_ENTRY@@B
CONST	ENDS
CONST	SEGMENT
	ORG $+1
$SG187235 DB	'LoginEditLeftBorder', 00H
$SG187237 DB	'LoginEditTopBorder', 00H
	ORG $+1
$SG187239 DB	'LoginEditRightBorder', 00H
	ORG $+3
$SG187241 DB	'LoginEditBottomBorder', 00H
	ORG $+2
$SG187243 DB	'AuthorListPanelSearchLeftGray', 00H
	ORG $+2
$SG187245 DB	'AuthorListPanelSearchCenterGray', 00H
$SG187247 DB	'AuthorListPanelSearchRightGray', 00H
CONST	ENDS
PUBLIC	?GetThisClass@CEditGlow@@SGPAUCRuntimeClass@@XZ	; CEditGlow::GetThisClass
EXTRN	__RTC_InitBase:NEAR
EXTRN	__RTC_Shutdown:NEAR
;	COMDAT rtc$IMZ
; File d:\boxgit\playbox\playbox\dev\prj\playbox\src\gui\commoncontrol\editglow.cpp
rtc$IMZ	SEGMENT
__RTC_InitBase.rtc$IMZ DD FLAT:__RTC_InitBase
rtc$IMZ	ENDS
;	COMDAT rtc$TMZ
rtc$TMZ	SEGMENT
__RTC_Shutdown.rtc$TMZ DD FLAT:__RTC_Shutdown
; Function compile flags: /Odt /RTCsu
rtc$TMZ	ENDS
_TEXT	SEGMENT
?GetThisClass@CEditGlow@@SGPAUCRuntimeClass@@XZ PROC NEAR ; CEditGlow::GetThisClass

; 5    : IMPLEMENT_DYNAMIC(CEditGlow, CEdit)

  00000	55		 push	 ebp
  00001	8b ec		 mov	 ebp, esp
  00003	b8 00 00 00 00	 mov	 eax, OFFSET FLAT:?classCEditGlow@CEditGlow@@2UCRuntimeClass@@B ; CEditGlow::classCEditGlow
  00008	5d		 pop	 ebp
  00009	c3		 ret	 0
?GetThisClass@CEditGlow@@SGPAUCRuntimeClass@@XZ ENDP	; CEditGlow::GetThisClass
_TEXT	ENDS
PUBLIC	?GetRuntimeClass@CEditGlow@@UBEPAUCRuntimeClass@@XZ ; CEditGlow::GetRuntimeClass
; Function compile flags: /Odt /RTCsu
_TEXT	SEGMENT
_this$ = -4						; size = 4
?GetRuntimeClass@CEditGlow@@UBEPAUCRuntimeClass@@XZ PROC NEAR ; CEditGlow::GetRuntimeClass
; _this$ = ecx

; 5    : IMPLEMENT_DYNAMIC(CEditGlow, CEdit)

  00010	55		 push	 ebp
  00011	8b ec		 mov	 ebp, esp
  00013	51		 push	 ecx
  00014	c7 45 fc cc cc
	cc cc		 mov	 DWORD PTR [ebp-4], -858993460 ; ccccccccH
  0001b	89 4d fc	 mov	 DWORD PTR _this$[ebp], ecx
  0001e	b8 00 00 00 00	 mov	 eax, OFFSET FLAT:?classCEditGlow@CEditGlow@@2UCRuntimeClass@@B ; CEditGlow::classCEditGlow
  00023	8b e5		 mov	 esp, ebp
  00025	5d		 pop	 ebp
  00026	c3		 ret	 0
?GetRuntimeClass@CEditGlow@@UBEPAUCRuntimeClass@@XZ ENDP ; CEditGlow::GetRuntimeClass
_TEXT	ENDS
PUBLIC	??_R4CEditGlow@@6B@				; CEditGlow::`RTTI Complete Object Locator'
PUBLIC	??_R0?AVCEditGlow@@@8				; CEditGlow `RTTI Type Descriptor'
PUBLIC	??_R3CEditGlow@@8				; CEditGlow::`RTTI Class Hierarchy Descriptor'
PUBLIC	??_R2CEditGlow@@8				; CEditGlow::`RTTI Base Class Array'
PUBLIC	??_R1A@?0A@A@CEditGlow@@8			; CEditGlow::`RTTI Base Class Descriptor at (0,-1,0,0)'
PUBLIC	??_R1A@?0A@A@CEdit@@8				; CEdit::`RTTI Base Class Descriptor at (0,-1,0,0)'
PUBLIC	??_R0?AVCEdit@@@8				; CEdit `RTTI Type Descriptor'
PUBLIC	??_R1A@?0A@A@CWnd@@8				; CWnd::`RTTI Base Class Descriptor at (0,-1,0,0)'
PUBLIC	??_R0?AVCWnd@@@8				; CWnd `RTTI Type Descriptor'
PUBLIC	??_R1A@?0A@A@CCmdTarget@@8			; CCmdTarget::`RTTI Base Class Descriptor at (0,-1,0,0)'
PUBLIC	??_R0?AVCCmdTarget@@@8				; CCmdTarget `RTTI Type Descriptor'
PUBLIC	??_R1A@?0A@A@CObject@@8				; CObject::`RTTI Base Class Descriptor at (0,-1,0,0)'
PUBLIC	??_R0?AVCObject@@@8				; CObject `RTTI Type Descriptor'
PUBLIC	??0CEditGlow@@QAE@XZ				; CEditGlow::CEditGlow
PUBLIC	?GetMessageMap@CEditGlow@@MBEPBUAFX_MSGMAP@@XZ	; CEditGlow::GetMessageMap
PUBLIC	??_7CEditGlow@@6B@				; CEditGlow::`vftable'
PUBLIC	??_GCEditGlow@@UAEPAXI@Z			; CEditGlow::`scalar deleting destructor'
EXTRN	?GetInterfaceMap@CWnd@@MBEPBUAFX_INTERFACEMAP@@XZ:NEAR ; CWnd::GetInterfaceMap
EXTRN	?EnsureStdObj@CWnd@@UAEJXZ:NEAR			; CWnd::EnsureStdObj
EXTRN	?get_accParent@CWnd@@UAEJPAPAUIDispatch@@@Z:NEAR ; CWnd::get_accParent
EXTRN	?OnCmdMsg@CCmdTarget@@UAEHIHPAXPAUAFX_CMDHANDLERINFO@@@Z:NEAR ; CCmdTarget::OnCmdMsg
EXTRN	?get_accChildCount@CWnd@@UAEJPAJ@Z:NEAR		; CWnd::get_accChildCount
EXTRN	?IsInvokeAllowed@CCmdTarget@@UAEHJ@Z:NEAR	; CCmdTarget::IsInvokeAllowed
EXTRN	?get_accChild@CWnd@@UAEJUtagVARIANT@@PAPAUIDispatch@@@Z:NEAR ; CWnd::get_accChild
EXTRN	?get_accName@CWnd@@UAEJUtagVARIANT@@PAPA_W@Z:NEAR ; CWnd::get_accName
EXTRN	?get_accValue@CWnd@@UAEJUtagVARIANT@@PAPA_W@Z:NEAR ; CWnd::get_accValue
EXTRN	?GetDispatchIID@CCmdTarget@@UAEHPAU_GUID@@@Z:NEAR ; CCmdTarget::GetDispatchIID
EXTRN	?GetTypeInfoCount@CCmdTarget@@UAEIXZ:NEAR	; CCmdTarget::GetTypeInfoCount
EXTRN	?GetTypeLibCache@CCmdTarget@@UAEPAVCTypeLibCache@@XZ:NEAR ; CCmdTarget::GetTypeLibCache
EXTRN	?get_accDescription@CWnd@@UAEJUtagVARIANT@@PAPA_W@Z:NEAR ; CWnd::get_accDescription
EXTRN	?GetTypeLib@CCmdTarget@@UAEJKPAPAUITypeLib@@@Z:NEAR ; CCmdTarget::GetTypeLib
EXTRN	?get_accRole@CWnd@@UAEJUtagVARIANT@@PAU2@@Z:NEAR ; CWnd::get_accRole
EXTRN	?get_accState@CWnd@@UAEJUtagVARIANT@@PAU2@@Z:NEAR ; CWnd::get_accState
EXTRN	?get_accHelp@CWnd@@UAEJUtagVARIANT@@PAPA_W@Z:NEAR ; CWnd::get_accHelp
EXTRN	?get_accHelpTopic@CWnd@@UAEJPAPA_WUtagVARIANT@@PAJ@Z:NEAR ; CWnd::get_accHelpTopic
EXTRN	?get_accKeyboardShortcut@CWnd@@UAEJUtagVARIANT@@PAPA_W@Z:NEAR ; CWnd::get_accKeyboardShortcut
EXTRN	?get_accFocus@CWnd@@UAEJPAUtagVARIANT@@@Z:NEAR	; CWnd::get_accFocus
EXTRN	?get_accSelection@CWnd@@UAEJPAUtagVARIANT@@@Z:NEAR ; CWnd::get_accSelection
EXTRN	?get_accDefaultAction@CWnd@@UAEJUtagVARIANT@@PAPA_W@Z:NEAR ; CWnd::get_accDefaultAction
EXTRN	?GetCommandMap@CCmdTarget@@MBEPBUAFX_OLECMDMAP@@XZ:NEAR ; CCmdTarget::GetCommandMap
EXTRN	?accSelect@CWnd@@UAEJJUtagVARIANT@@@Z:NEAR	; CWnd::accSelect
EXTRN	?accLocation@CWnd@@UAEJPAJ000UtagVARIANT@@@Z:NEAR ; CWnd::accLocation
EXTRN	?GetDispatchMap@CCmdTarget@@MBEPBUAFX_DISPMAP@@XZ:NEAR ; CCmdTarget::GetDispatchMap
EXTRN	?accNavigate@CWnd@@UAEJJUtagVARIANT@@PAU2@@Z:NEAR ; CWnd::accNavigate
EXTRN	?accHitTest@CWnd@@UAEJJJPAUtagVARIANT@@@Z:NEAR	; CWnd::accHitTest
EXTRN	?GetConnectionMap@CCmdTarget@@MBEPBUAFX_CONNECTIONMAP@@XZ:NEAR ; CCmdTarget::GetConnectionMap
EXTRN	?accDoDefaultAction@CWnd@@UAEJUtagVARIANT@@@Z:NEAR ; CWnd::accDoDefaultAction
EXTRN	?put_accName@CWnd@@UAEJUtagVARIANT@@PA_W@Z:NEAR	; CWnd::put_accName
EXTRN	?put_accValue@CWnd@@UAEJUtagVARIANT@@PA_W@Z:NEAR ; CWnd::put_accValue
EXTRN	?SetProxy@CWnd@@UAEJPAUIAccessibleProxy@@@Z:NEAR ; CWnd::SetProxy
EXTRN	?CreateAccessibleProxy@CWnd@@UAEJIJPAJ@Z:NEAR	; CWnd::CreateAccessibleProxy
EXTRN	?GetEventSinkMap@CCmdTarget@@MBEPBUAFX_EVENTSINKMAP@@XZ:NEAR ; CCmdTarget::GetEventSinkMap
EXTRN	?OnCreateAggregates@CCmdTarget@@UAEHXZ:NEAR	; CCmdTarget::OnCreateAggregates
EXTRN	?OnCommand@CWnd@@MAEHIJ@Z:NEAR			; CWnd::OnCommand
EXTRN	?GetInterfaceHook@CCmdTarget@@UAEPAUIUnknown@@PBX@Z:NEAR ; CCmdTarget::GetInterfaceHook
EXTRN	?OnNotify@CWnd@@MAEHIJPAJ@Z:NEAR		; CWnd::OnNotify
EXTRN	??0CEdit@@QAE@XZ:NEAR				; CEdit::CEdit
EXTRN	?GetExtraConnectionPoints@CCmdTarget@@MAEHPAVCPtrArray@@@Z:NEAR ; CCmdTarget::GetExtraConnectionPoints
EXTRN	?GetConnectionHook@CCmdTarget@@MAEPAUIConnectionPoint@@ABU_GUID@@@Z:NEAR ; CCmdTarget::GetConnectionHook
EXTRN	?Create@CEdit@@UAEHKABUtagRECT@@PAVCWnd@@I@Z:NEAR ; CEdit::Create
EXTRN	__RTC_CheckEsp:NEAR
EXTRN	__except_list:DWORD
EXTRN	??0CBrush@@QAE@XZ:NEAR				; CBrush::CBrush
EXTRN	___CxxFrameHandler:NEAR
EXTRN	?CreateSolidBrush@CBrush@@QAEHK@Z:NEAR		; CBrush::CreateSolidBrush
EXTRN	??1CBrush@@UAE@XZ:NEAR				; CBrush::~CBrush
EXTRN	??1CEdit@@UAE@XZ:NEAR				; CEdit::~CEdit
EXTRN	??0CFont@@QAE@XZ:NEAR				; CFont::CFont
EXTRN	??1CFont@@UAE@XZ:NEAR				; CFont::~CFont
EXTRN	?PreSubclassWindow@CWnd@@UAEXXZ:NEAR		; CWnd::PreSubclassWindow
EXTRN	?Create@CWnd@@UAEHPBD0KABUtagRECT@@PAV1@IPAUCCreateContext@@@Z:NEAR ; CWnd::Create
EXTRN	?CreateEx@CWnd@@UAEHKPBD0KHHHHPAUHWND__@@PAUHMENU__@@PAX@Z:NEAR ; CWnd::CreateEx
EXTRN	?CreateEx@CWnd@@UAEHKPBD0KABUtagRECT@@PAV1@IPAX@Z:NEAR ; CWnd::CreateEx
EXTRN	?Serialize@CObject@@UAEXAAVCArchive@@@Z:NEAR	; CObject::Serialize
EXTRN	?DestroyWindow@CWnd@@UAEHXZ:NEAR		; CWnd::DestroyWindow
EXTRN	?PreCreateWindow@CWnd@@UAEHAAUtagCREATESTRUCTA@@@Z:NEAR ; CWnd::PreCreateWindow
EXTRN	?CalcWindowRect@CWnd@@UAEXPAUtagRECT@@I@Z:NEAR	; CWnd::CalcWindowRect
EXTRN	?GetSuperWndProcAddr@CWnd@@MAEPAP6GJPAUHWND__@@IIJ@ZXZ:NEAR ; CWnd::GetSuperWndProcAddr
EXTRN	?DoDataExchange@CWnd@@MAEXPAVCDataExchange@@@Z:NEAR ; CWnd::DoDataExchange
EXTRN	?BeginModalState@CWnd@@UAEXXZ:NEAR		; CWnd::BeginModalState
EXTRN	?EndModalState@CWnd@@UAEXXZ:NEAR		; CWnd::EndModalState
EXTRN	?PreTranslateMessage@CWnd@@UAEHPAUtagMSG@@@Z:NEAR ; CWnd::PreTranslateMessage
EXTRN	?OnAmbientProperty@CWnd@@UAEHPAVCOleControlSite@@JPAUtagVARIANT@@@Z:NEAR ; CWnd::OnAmbientProperty
EXTRN	?WindowProc@CWnd@@MAEJIIJ@Z:NEAR		; CWnd::WindowProc
EXTRN	?OnWndMsg@CWnd@@MAEHIIJPAJ@Z:NEAR		; CWnd::OnWndMsg
EXTRN	?DefWindowProcA@CWnd@@MAEJIIJ@Z:NEAR		; CWnd::DefWindowProcA
EXTRN	?PostNcDestroy@CWnd@@MAEXXZ:NEAR		; CWnd::PostNcDestroy
EXTRN	?OnChildNotify@CWnd@@MAEHIIJPAJ@Z:NEAR		; CWnd::OnChildNotify
EXTRN	?CheckAutoCenter@CWnd@@UAEHXZ:NEAR		; CWnd::CheckAutoCenter
EXTRN	?AssertValid@CWnd@@UBEXXZ:NEAR			; CWnd::AssertValid
EXTRN	?Dump@CWnd@@UBEXAAVCDumpContext@@@Z:NEAR	; CWnd::Dump
EXTRN	?IsFrameWnd@CWnd@@UBEHXZ:NEAR			; CWnd::IsFrameWnd
EXTRN	?OnFinalRelease@CWnd@@UAEXXZ:NEAR		; CWnd::OnFinalRelease
EXTRN	?CreateControlContainer@CWnd@@MAEHPAPAVCOleControlContainer@@@Z:NEAR ; CWnd::CreateControlContainer
EXTRN	?CreateControlSite@CWnd@@MAEHPAVCOleControlContainer@@PAPAVCOleControlSite@@IABU_GUID@@@Z:NEAR ; CWnd::CreateControlSite
EXTRN	?SetOccDialogInfo@CWnd@@MAEHPAU_AFX_OCC_DIALOG_INFO@@@Z:NEAR ; CWnd::SetOccDialogInfo
EXTRN	??_ECEditGlow@@UAEPAXI@Z:NEAR			; CEditGlow::`vector deleting destructor'
EXTRN	__imp_??0?$CStringT@DV?$StrTraitMFC_DLL@DV?$ChTraitsCRT@D@ATL@@@@@ATL@@QAE@XZ:NEAR
EXTRN	?OnToolHitTest@CWnd@@UBEHVCPoint@@PAUtagTOOLINFOA@@@Z:NEAR ; CWnd::OnToolHitTest
EXTRN	__imp_??1?$CStringT@DV?$StrTraitMFC_DLL@DV?$ChTraitsCRT@D@ATL@@@@@ATL@@QAE@XZ:NEAR
EXTRN	?GetScrollBarCtrl@CWnd@@UBEPAVCScrollBar@@H@Z:NEAR ; CWnd::GetScrollBarCtrl
EXTRN	?WinHelpA@CWnd@@UAEXKI@Z:NEAR			; CWnd::WinHelpA
EXTRN	?HtmlHelpA@CWnd@@UAEXKI@Z:NEAR			; CWnd::HtmlHelpA
EXTRN	??_7type_info@@6B@:QWORD			; type_info::`vftable'
EXTRN	?WinHelpInternal@CWnd@@UAEXKI@Z:NEAR		; CWnd::WinHelpInternal
EXTRN	?ContinueModal@CWnd@@UAEHXZ:NEAR		; CWnd::ContinueModal
EXTRN	?EndModalLoop@CWnd@@UAEXH@Z:NEAR		; CWnd::EndModalLoop
xdata$x	SEGMENT
$T187769 DD	0ffffffffH
	DD	FLAT:$L187758
	DD	00H
	DD	FLAT:$L187759
	DD	01H
	DD	FLAT:$L187760
	DD	02H
	DD	FLAT:$L187761
$T187765 DD	019930520H
	DD	04H
	DD	FLAT:$T187769
	DD	2 DUP(00H)
	DD	2 DUP(00H)
xdata$x	ENDS
;	COMDAT ??_7CEditGlow@@6B@
CONST	SEGMENT
??_7CEditGlow@@6B@ DD FLAT:??_R4CEditGlow@@6B@		; CEditGlow::`vftable'
	DD	FLAT:?GetRuntimeClass@CEditGlow@@UBEPAUCRuntimeClass@@XZ
	DD	FLAT:??_ECEditGlow@@UAEPAXI@Z
	DD	FLAT:?Serialize@CObject@@UAEXAAVCArchive@@@Z
	DD	FLAT:?AssertValid@CWnd@@UBEXXZ
	DD	FLAT:?Dump@CWnd@@UBEXAAVCDumpContext@@@Z
	DD	FLAT:?OnCmdMsg@CCmdTarget@@UAEHIHPAXPAUAFX_CMDHANDLERINFO@@@Z
	DD	FLAT:?OnFinalRelease@CWnd@@UAEXXZ
	DD	FLAT:?IsInvokeAllowed@CCmdTarget@@UAEHJ@Z
	DD	FLAT:?GetDispatchIID@CCmdTarget@@UAEHPAU_GUID@@@Z
	DD	FLAT:?GetTypeInfoCount@CCmdTarget@@UAEIXZ
	DD	FLAT:?GetTypeLibCache@CCmdTarget@@UAEPAVCTypeLibCache@@XZ
	DD	FLAT:?GetTypeLib@CCmdTarget@@UAEJKPAPAUITypeLib@@@Z
	DD	FLAT:?GetMessageMap@CEditGlow@@MBEPBUAFX_MSGMAP@@XZ
	DD	FLAT:?GetCommandMap@CCmdTarget@@MBEPBUAFX_OLECMDMAP@@XZ
	DD	FLAT:?GetDispatchMap@CCmdTarget@@MBEPBUAFX_DISPMAP@@XZ
	DD	FLAT:?GetConnectionMap@CCmdTarget@@MBEPBUAFX_CONNECTIONMAP@@XZ
	DD	FLAT:?GetInterfaceMap@CWnd@@MBEPBUAFX_INTERFACEMAP@@XZ
	DD	FLAT:?GetEventSinkMap@CCmdTarget@@MBEPBUAFX_EVENTSINKMAP@@XZ
	DD	FLAT:?OnCreateAggregates@CCmdTarget@@UAEHXZ
	DD	FLAT:?GetInterfaceHook@CCmdTarget@@UAEPAUIUnknown@@PBX@Z
	DD	FLAT:?GetExtraConnectionPoints@CCmdTarget@@MAEHPAVCPtrArray@@@Z
	DD	FLAT:?GetConnectionHook@CCmdTarget@@MAEPAUIConnectionPoint@@ABU_GUID@@@Z
	DD	FLAT:?PreSubclassWindow@CWnd@@UAEXXZ
	DD	FLAT:?Create@CWnd@@UAEHPBD0KABUtagRECT@@PAV1@IPAUCCreateContext@@@Z
	DD	FLAT:?CreateEx@CWnd@@UAEHKPBD0KABUtagRECT@@PAV1@IPAX@Z
	DD	FLAT:?CreateEx@CWnd@@UAEHKPBD0KHHHHPAUHWND__@@PAUHMENU__@@PAX@Z
	DD	FLAT:?DestroyWindow@CWnd@@UAEHXZ
	DD	FLAT:?PreCreateWindow@CWnd@@UAEHAAUtagCREATESTRUCTA@@@Z
	DD	FLAT:?CalcWindowRect@CWnd@@UAEXPAUtagRECT@@I@Z
	DD	FLAT:?OnToolHitTest@CWnd@@UBEHVCPoint@@PAUtagTOOLINFOA@@@Z
	DD	FLAT:?GetScrollBarCtrl@CWnd@@UBEPAVCScrollBar@@H@Z
	DD	FLAT:?WinHelpA@CWnd@@UAEXKI@Z
	DD	FLAT:?HtmlHelpA@CWnd@@UAEXKI@Z
	DD	FLAT:?WinHelpInternal@CWnd@@UAEXKI@Z
	DD	FLAT:?ContinueModal@CWnd@@UAEHXZ
	DD	FLAT:?EndModalLoop@CWnd@@UAEXH@Z
	DD	FLAT:?EnsureStdObj@CWnd@@UAEJXZ
	DD	FLAT:?get_accParent@CWnd@@UAEJPAPAUIDispatch@@@Z
	DD	FLAT:?get_accChildCount@CWnd@@UAEJPAJ@Z
	DD	FLAT:?get_accChild@CWnd@@UAEJUtagVARIANT@@PAPAUIDispatch@@@Z
	DD	FLAT:?get_accName@CWnd@@UAEJUtagVARIANT@@PAPA_W@Z
	DD	FLAT:?get_accValue@CWnd@@UAEJUtagVARIANT@@PAPA_W@Z
	DD	FLAT:?get_accDescription@CWnd@@UAEJUtagVARIANT@@PAPA_W@Z
	DD	FLAT:?get_accRole@CWnd@@UAEJUtagVARIANT@@PAU2@@Z
	DD	FLAT:?get_accState@CWnd@@UAEJUtagVARIANT@@PAU2@@Z
	DD	FLAT:?get_accHelp@CWnd@@UAEJUtagVARIANT@@PAPA_W@Z
	DD	FLAT:?get_accHelpTopic@CWnd@@UAEJPAPA_WUtagVARIANT@@PAJ@Z
	DD	FLAT:?get_accKeyboardShortcut@CWnd@@UAEJUtagVARIANT@@PAPA_W@Z
	DD	FLAT:?get_accFocus@CWnd@@UAEJPAUtagVARIANT@@@Z
	DD	FLAT:?get_accSelection@CWnd@@UAEJPAUtagVARIANT@@@Z
	DD	FLAT:?get_accDefaultAction@CWnd@@UAEJUtagVARIANT@@PAPA_W@Z
	DD	FLAT:?accSelect@CWnd@@UAEJJUtagVARIANT@@@Z
	DD	FLAT:?accLocation@CWnd@@UAEJPAJ000UtagVARIANT@@@Z
	DD	FLAT:?accNavigate@CWnd@@UAEJJUtagVARIANT@@PAU2@@Z
	DD	FLAT:?accHitTest@CWnd@@UAEJJJPAUtagVARIANT@@@Z
	DD	FLAT:?accDoDefaultAction@CWnd@@UAEJUtagVARIANT@@@Z
	DD	FLAT:?put_accName@CWnd@@UAEJUtagVARIANT@@PA_W@Z
	DD	FLAT:?put_accValue@CWnd@@UAEJUtagVARIANT@@PA_W@Z
	DD	FLAT:?SetProxy@CWnd@@UAEJPAUIAccessibleProxy@@@Z
	DD	FLAT:?CreateAccessibleProxy@CWnd@@UAEJIJPAJ@Z
	DD	FLAT:?OnCommand@CWnd@@MAEHIJ@Z
	DD	FLAT:?OnNotify@CWnd@@MAEHIJPAJ@Z
	DD	FLAT:?GetSuperWndProcAddr@CWnd@@MAEPAP6GJPAUHWND__@@IIJ@ZXZ
	DD	FLAT:?DoDataExchange@CWnd@@MAEXPAVCDataExchange@@@Z
	DD	FLAT:?BeginModalState@CWnd@@UAEXXZ
	DD	FLAT:?EndModalState@CWnd@@UAEXXZ
	DD	FLAT:?PreTranslateMessage@CWnd@@UAEHPAUtagMSG@@@Z
	DD	FLAT:?OnAmbientProperty@CWnd@@UAEHPAVCOleControlSite@@JPAUtagVARIANT@@@Z
	DD	FLAT:?WindowProc@CWnd@@MAEJIIJ@Z
	DD	FLAT:?OnWndMsg@CWnd@@MAEHIIJPAJ@Z
	DD	FLAT:?DefWindowProcA@CWnd@@MAEJIIJ@Z
	DD	FLAT:?PostNcDestroy@CWnd@@MAEXXZ
	DD	FLAT:?OnChildNotify@CWnd@@MAEHIIJPAJ@Z
	DD	FLAT:?CheckAutoCenter@CWnd@@UAEHXZ
	DD	FLAT:?IsFrameWnd@CWnd@@UBEHXZ
	DD	FLAT:?CreateControlContainer@CWnd@@MAEHPAPAVCOleControlContainer@@@Z
	DD	FLAT:?CreateControlSite@CWnd@@MAEHPAVCOleControlContainer@@PAPAVCOleControlSite@@IABU_GUID@@@Z
	DD	FLAT:?SetOccDialogInfo@CWnd@@MAEHPAU_AFX_OCC_DIALOG_INFO@@@Z
	DD	FLAT:?Create@CEdit@@UAEHKABUtagRECT@@PAVCWnd@@I@Z
CONST	ENDS
;	COMDAT ??_R4CEditGlow@@6B@
rdata$r	SEGMENT
??_R4CEditGlow@@6B@ DD 00H				; CEditGlow::`RTTI Complete Object Locator'
	DD	00H
	DD	00H
	DD	FLAT:??_R0?AVCEditGlow@@@8
	DD	FLAT:??_R3CEditGlow@@8
rdata$r	ENDS
;	COMDAT ??_R0?AVCEditGlow@@@8
_DATA	SEGMENT
??_R0?AVCEditGlow@@@8 DD FLAT:??_7type_info@@6B@	; CEditGlow `RTTI Type Descriptor'
	DD	00H
	DB	'.?AVCEditGlow@@', 00H
_DATA	ENDS
;	COMDAT ??_R3CEditGlow@@8
rdata$r	SEGMENT
??_R3CEditGlow@@8 DD 00H				; CEditGlow::`RTTI Class Hierarchy Descriptor'
	DD	00H
	DD	05H
	DD	FLAT:??_R2CEditGlow@@8
rdata$r	ENDS
;	COMDAT ??_R2CEditGlow@@8
rdata$r	SEGMENT
??_R2CEditGlow@@8 DD FLAT:??_R1A@?0A@A@CEditGlow@@8	; CEditGlow::`RTTI Base Class Array'
	DD	FLAT:??_R1A@?0A@A@CEdit@@8
	DD	FLAT:??_R1A@?0A@A@CWnd@@8
	DD	FLAT:??_R1A@?0A@A@CCmdTarget@@8
	DD	FLAT:??_R1A@?0A@A@CObject@@8
rdata$r	ENDS
;	COMDAT ??_R1A@?0A@A@CEditGlow@@8
rdata$r	SEGMENT
??_R1A@?0A@A@CEditGlow@@8 DD FLAT:??_R0?AVCEditGlow@@@8	; CEditGlow::`RTTI Base Class Descriptor at (0,-1,0,0)'
	DD	04H
	DD	00H
	DD	0ffffffffH
	DD	00H
	DD	00H
rdata$r	ENDS
;	COMDAT ??_R1A@?0A@A@CEdit@@8
rdata$r	SEGMENT
??_R1A@?0A@A@CEdit@@8 DD FLAT:??_R0?AVCEdit@@@8		; CEdit::`RTTI Base Class Descriptor at (0,-1,0,0)'
	DD	03H
	DD	00H
	DD	0ffffffffH
	DD	00H
	DD	00H
rdata$r	ENDS
;	COMDAT ??_R0?AVCEdit@@@8
_DATA	SEGMENT
??_R0?AVCEdit@@@8 DD FLAT:??_7type_info@@6B@		; CEdit `RTTI Type Descriptor'
	DD	00H
	DB	'.?AVCEdit@@', 00H
_DATA	ENDS
;	COMDAT ??_R1A@?0A@A@CWnd@@8
rdata$r	SEGMENT
??_R1A@?0A@A@CWnd@@8 DD FLAT:??_R0?AVCWnd@@@8		; CWnd::`RTTI Base Class Descriptor at (0,-1,0,0)'
	DD	02H
	DD	00H
	DD	0ffffffffH
	DD	00H
	DD	00H
rdata$r	ENDS
;	COMDAT ??_R0?AVCWnd@@@8
_DATA	SEGMENT
??_R0?AVCWnd@@@8 DD FLAT:??_7type_info@@6B@		; CWnd `RTTI Type Descriptor'
	DD	00H
	DB	'.?AVCWnd@@', 00H
_DATA	ENDS
;	COMDAT ??_R1A@?0A@A@CCmdTarget@@8
rdata$r	SEGMENT
??_R1A@?0A@A@CCmdTarget@@8 DD FLAT:??_R0?AVCCmdTarget@@@8 ; CCmdTarget::`RTTI Base Class Descriptor at (0,-1,0,0)'
	DD	01H
	DD	00H
	DD	0ffffffffH
	DD	00H
	DD	00H
rdata$r	ENDS
;	COMDAT ??_R0?AVCCmdTarget@@@8
_DATA	SEGMENT
??_R0?AVCCmdTarget@@@8 DD FLAT:??_7type_info@@6B@	; CCmdTarget `RTTI Type Descriptor'
	DD	00H
	DB	'.?AVCCmdTarget@@', 00H
_DATA	ENDS
;	COMDAT ??_R1A@?0A@A@CObject@@8
rdata$r	SEGMENT
??_R1A@?0A@A@CObject@@8 DD FLAT:??_R0?AVCObject@@@8	; CObject::`RTTI Base Class Descriptor at (0,-1,0,0)'
	DD	00H
	DD	00H
	DD	0ffffffffH
	DD	00H
	DD	00H
rdata$r	ENDS
;	COMDAT ??_R0?AVCObject@@@8
_DATA	SEGMENT
??_R0?AVCObject@@@8 DD FLAT:??_7type_info@@6B@		; CObject `RTTI Type Descriptor'
	DD	00H
	DB	'.?AVCObject@@', 00H
; Function compile flags: /Odt /RTCsu
_DATA	ENDS
_TEXT	SEGMENT
_this$ = -16						; size = 4
__$EHRec$ = -12						; size = 12
??0CEditGlow@@QAE@XZ PROC NEAR				; CEditGlow::CEditGlow
; _this$ = ecx

; 9    : {

  00030	55		 push	 ebp
  00031	8b ec		 mov	 ebp, esp
  00033	6a ff		 push	 -1
  00035	68 00 00 00 00	 push	 __ehhandler$??0CEditGlow@@QAE@XZ
  0003a	64 a1 00 00 00
	00		 mov	 eax, DWORD PTR fs:__except_list
  00040	50		 push	 eax
  00041	64 89 25 00 00
	00 00		 mov	 DWORD PTR fs:__except_list, esp
  00048	51		 push	 ecx
  00049	56		 push	 esi
  0004a	c7 45 f0 cc cc
	cc cc		 mov	 DWORD PTR [ebp-16], -858993460 ; ccccccccH
  00051	89 4d f0	 mov	 DWORD PTR _this$[ebp], ecx
  00054	8b 4d f0	 mov	 ecx, DWORD PTR _this$[ebp]
  00057	e8 00 00 00 00	 call	 ??0CEdit@@QAE@XZ	; CEdit::CEdit
  0005c	c7 45 fc 00 00
	00 00		 mov	 DWORD PTR __$EHRec$[ebp+8], 0
  00063	8b 45 f0	 mov	 eax, DWORD PTR _this$[ebp]
  00066	c7 00 00 00 00
	00		 mov	 DWORD PTR [eax], OFFSET FLAT:??_7CEditGlow@@6B@
  0006c	8b 4d f0	 mov	 ecx, DWORD PTR _this$[ebp]
  0006f	83 c1 58	 add	 ecx, 88			; 00000058H
  00072	e8 00 00 00 00	 call	 ??0CFont@@QAE@XZ	; CFont::CFont
  00077	c6 45 fc 01	 mov	 BYTE PTR __$EHRec$[ebp+8], 1
  0007b	8b 4d f0	 mov	 ecx, DWORD PTR _this$[ebp]
  0007e	c7 41 60 09 00
	00 00		 mov	 DWORD PTR [ecx+96], 9
  00085	8b 55 f0	 mov	 edx, DWORD PTR _this$[ebp]
  00088	c7 42 64 00 00
	00 00		 mov	 DWORD PTR [edx+100], 0
  0008f	8b 4d f0	 mov	 ecx, DWORD PTR _this$[ebp]
  00092	83 c1 68	 add	 ecx, 104		; 00000068H
  00095	e8 00 00 00 00	 call	 ??0CBrush@@QAE@XZ	; CBrush::CBrush
  0009a	c6 45 fc 02	 mov	 BYTE PTR __$EHRec$[ebp+8], 2
  0009e	8b 4d f0	 mov	 ecx, DWORD PTR _this$[ebp]
  000a1	83 c1 78	 add	 ecx, 120		; 00000078H
  000a4	8b f4		 mov	 esi, esp
  000a6	ff 15 00 00 00
	00		 call	 DWORD PTR __imp_??0?$CStringT@DV?$StrTraitMFC_DLL@DV?$ChTraitsCRT@D@ATL@@@@@ATL@@QAE@XZ
  000ac	3b f4		 cmp	 esi, esp
  000ae	e8 00 00 00 00	 call	 __RTC_CheckEsp
  000b3	c6 45 fc 03	 mov	 BYTE PTR __$EHRec$[ebp+8], 3

; 10   : 	m_bDrawBorderSelf = false;

  000b7	8b 45 f0	 mov	 eax, DWORD PTR _this$[ebp]
  000ba	c7 40 7c 00 00
	00 00		 mov	 DWORD PTR [eax+124], 0

; 11   : 	m_pImgBorder = NULL;

  000c1	8b 4d f0	 mov	 ecx, DWORD PTR _this$[ebp]
  000c4	c7 81 84 00 00
	00 00 00 00 00	 mov	 DWORD PTR [ecx+132], 0

; 12   : 	m_bFocus = false;

  000ce	8b 55 f0	 mov	 edx, DWORD PTR _this$[ebp]
  000d1	c7 82 80 00 00
	00 00 00 00 00	 mov	 DWORD PTR [edx+128], 0

; 13   : 	m_pImgBorderGlow = NULL;

  000db	8b 45 f0	 mov	 eax, DWORD PTR _this$[ebp]
  000de	c7 80 88 00 00
	00 00 00 00 00	 mov	 DWORD PTR [eax+136], 0

; 14   : 
; 15   : 	m_colText = RGB( 238,238,238 );

  000e8	8b 4d f0	 mov	 ecx, DWORD PTR _this$[ebp]
  000eb	c7 41 70 ee ee
	ee 00		 mov	 DWORD PTR [ecx+112], 15658734 ; 00eeeeeeH

; 16   : 	m_colBk	  = RGB( 59,59,59 );

  000f2	8b 55 f0	 mov	 edx, DWORD PTR _this$[ebp]
  000f5	c7 42 74 3b 3b
	3b 00		 mov	 DWORD PTR [edx+116], 3881787 ; 003b3b3bH

; 17   : 	m_hBrush.CreateSolidBrush( m_colBk );

  000fc	8b 45 f0	 mov	 eax, DWORD PTR _this$[ebp]
  000ff	8b 48 74	 mov	 ecx, DWORD PTR [eax+116]
  00102	51		 push	 ecx
  00103	8b 4d f0	 mov	 ecx, DWORD PTR _this$[ebp]
  00106	83 c1 68	 add	 ecx, 104		; 00000068H
  00109	e8 00 00 00 00	 call	 ?CreateSolidBrush@CBrush@@QAEHK@Z ; CBrush::CreateSolidBrush

; 18   : }

  0010e	c7 45 fc ff ff
	ff ff		 mov	 DWORD PTR __$EHRec$[ebp+8], -1
  00115	8b 45 f0	 mov	 eax, DWORD PTR _this$[ebp]
  00118	8b 4d f4	 mov	 ecx, DWORD PTR __$EHRec$[ebp]
  0011b	64 89 0d 00 00
	00 00		 mov	 DWORD PTR fs:__except_list, ecx
  00122	5e		 pop	 esi
  00123	83 c4 10	 add	 esp, 16			; 00000010H
  00126	3b ec		 cmp	 ebp, esp
  00128	e8 00 00 00 00	 call	 __RTC_CheckEsp
  0012d	8b e5		 mov	 esp, ebp
  0012f	5d		 pop	 ebp
  00130	c3		 ret	 0
_TEXT	ENDS
text$x	SEGMENT
$L187758:
  00000	8b 4d f0	 mov	 ecx, DWORD PTR _this$[ebp]
  00003	e9 00 00 00 00	 jmp	 ??1CEdit@@UAE@XZ	; CEdit::~CEdit
$L187759:
  00008	8b 4d f0	 mov	 ecx, DWORD PTR _this$[ebp]
  0000b	83 c1 58	 add	 ecx, 88			; 00000058H
  0000e	e9 00 00 00 00	 jmp	 ??1CFont@@UAE@XZ	; CFont::~CFont
$L187760:
  00013	8b 4d f0	 mov	 ecx, DWORD PTR _this$[ebp]
  00016	83 c1 68	 add	 ecx, 104		; 00000068H
  00019	e9 00 00 00 00	 jmp	 ??1CBrush@@UAE@XZ	; CBrush::~CBrush
$L187761:
  0001e	8b 4d f0	 mov	 ecx, DWORD PTR _this$[ebp]
  00021	83 c1 78	 add	 ecx, 120		; 00000078H
  00024	8b f4		 mov	 esi, esp
  00026	ff 15 00 00 00
	00		 call	 DWORD PTR __imp_??1?$CStringT@DV?$StrTraitMFC_DLL@DV?$ChTraitsCRT@D@ATL@@@@@ATL@@QAE@XZ
  0002c	3b f4		 cmp	 esi, esp
  0002e	e9 00 00 00 00	 jmp	 __RTC_CheckEsp
__ehhandler$??0CEditGlow@@QAE@XZ:
  00033	b8 00 00 00 00	 mov	 eax, OFFSET FLAT:$T187765
  00038	e9 00 00 00 00	 jmp	 ___CxxFrameHandler
text$x	ENDS
??0CEditGlow@@QAE@XZ ENDP				; CEditGlow::CEditGlow
PUBLIC	??1CEditGlow@@UAE@XZ				; CEditGlow::~CEditGlow
EXTRN	??3CObject@@SGXPAX@Z:NEAR			; CObject::operator delete
; Function compile flags: /Odt /RTCsu
;	COMDAT ??_GCEditGlow@@UAEPAXI@Z
_TEXT	SEGMENT
_this$ = -4						; size = 4
___flags$ = 8						; size = 4
??_GCEditGlow@@UAEPAXI@Z PROC NEAR			; CEditGlow::`scalar deleting destructor', COMDAT
; _this$ = ecx
  00000	55		 push	 ebp
  00001	8b ec		 mov	 ebp, esp
  00003	51		 push	 ecx
  00004	c7 45 fc cc cc
	cc cc		 mov	 DWORD PTR [ebp-4], -858993460 ; ccccccccH
  0000b	89 4d fc	 mov	 DWORD PTR _this$[ebp], ecx
  0000e	8b 4d fc	 mov	 ecx, DWORD PTR _this$[ebp]
  00011	e8 00 00 00 00	 call	 ??1CEditGlow@@UAE@XZ	; CEditGlow::~CEditGlow
  00016	8b 45 08	 mov	 eax, DWORD PTR ___flags$[ebp]
  00019	83 e0 01	 and	 eax, 1
  0001c	74 09		 je	 SHORT $L187102
  0001e	8b 4d fc	 mov	 ecx, DWORD PTR _this$[ebp]
  00021	51		 push	 ecx
  00022	e8 00 00 00 00	 call	 ??3CObject@@SGXPAX@Z	; CObject::operator delete
$L187102:
  00027	8b 45 fc	 mov	 eax, DWORD PTR _this$[ebp]
  0002a	83 c4 04	 add	 esp, 4
  0002d	3b ec		 cmp	 ebp, esp
  0002f	e8 00 00 00 00	 call	 __RTC_CheckEsp
  00034	8b e5		 mov	 esp, ebp
  00036	5d		 pop	 ebp
  00037	c2 04 00	 ret	 4
??_GCEditGlow@@UAEPAXI@Z ENDP				; CEditGlow::`scalar deleting destructor'
_TEXT	ENDS
EXTRN	?DeleteObject@CGdiObject@@QAEHXZ:NEAR		; CGdiObject::DeleteObject
xdata$x	SEGMENT
$T187788 DD	0ffffffffH
	DD	FLAT:$L187781
	DD	00H
	DD	FLAT:$L187782
	DD	01H
	DD	FLAT:$L187783
	DD	02H
	DD	FLAT:$L187784
$T187786 DD	019930520H
	DD	04H
	DD	FLAT:$T187788
	DD	2 DUP(00H)
	DD	2 DUP(00H)
; Function compile flags: /Odt /RTCsu
xdata$x	ENDS
_TEXT	SEGMENT
tv95 = -40						; size = 4
tv87 = -36						; size = 4
$T187778 = -32						; size = 4
$T187777 = -28						; size = 4
$T187774 = -24						; size = 4
$T187773 = -20						; size = 4
_this$ = -16						; size = 4
__$EHRec$ = -12						; size = 12
??1CEditGlow@@UAE@XZ PROC NEAR				; CEditGlow::~CEditGlow
; _this$ = ecx

; 21   : {

  00140	55		 push	 ebp
  00141	8b ec		 mov	 ebp, esp
  00143	6a ff		 push	 -1
  00145	68 00 00 00 00	 push	 __ehhandler$??1CEditGlow@@UAE@XZ
  0014a	64 a1 00 00 00
	00		 mov	 eax, DWORD PTR fs:__except_list
  00150	50		 push	 eax
  00151	64 89 25 00 00
	00 00		 mov	 DWORD PTR fs:__except_list, esp
  00158	83 ec 1c	 sub	 esp, 28			; 0000001cH
  0015b	56		 push	 esi
  0015c	b8 cc cc cc cc	 mov	 eax, -858993460		; ccccccccH
  00161	89 45 d8	 mov	 DWORD PTR [ebp-40], eax
  00164	89 45 dc	 mov	 DWORD PTR [ebp-36], eax
  00167	89 45 e0	 mov	 DWORD PTR [ebp-32], eax
  0016a	89 45 e4	 mov	 DWORD PTR [ebp-28], eax
  0016d	89 45 e8	 mov	 DWORD PTR [ebp-24], eax
  00170	89 45 ec	 mov	 DWORD PTR [ebp-20], eax
  00173	89 45 f0	 mov	 DWORD PTR [ebp-16], eax
  00176	89 4d f0	 mov	 DWORD PTR _this$[ebp], ecx
  00179	8b 45 f0	 mov	 eax, DWORD PTR _this$[ebp]
  0017c	c7 00 00 00 00
	00		 mov	 DWORD PTR [eax], OFFSET FLAT:??_7CEditGlow@@6B@
  00182	c7 45 fc 03 00
	00 00		 mov	 DWORD PTR __$EHRec$[ebp+8], 3

; 22   : 	m_hBrush.DeleteObject();

  00189	8b 4d f0	 mov	 ecx, DWORD PTR _this$[ebp]
  0018c	83 c1 68	 add	 ecx, 104		; 00000068H
  0018f	e8 00 00 00 00	 call	 ?DeleteObject@CGdiObject@@QAEHXZ ; CGdiObject::DeleteObject

; 23   : 	delete m_pImgBorder;

  00194	8b 4d f0	 mov	 ecx, DWORD PTR _this$[ebp]
  00197	8b 91 84 00 00
	00		 mov	 edx, DWORD PTR [ecx+132]
  0019d	89 55 e8	 mov	 DWORD PTR $T187774[ebp], edx
  001a0	8b 45 e8	 mov	 eax, DWORD PTR $T187774[ebp]
  001a3	89 45 ec	 mov	 DWORD PTR $T187773[ebp], eax
  001a6	83 7d ec 00	 cmp	 DWORD PTR $T187773[ebp], 0
  001aa	74 1a		 je	 SHORT $L187775
  001ac	8b f4		 mov	 esi, esp
  001ae	6a 01		 push	 1
  001b0	8b 4d ec	 mov	 ecx, DWORD PTR $T187773[ebp]
  001b3	8b 11		 mov	 edx, DWORD PTR [ecx]
  001b5	8b 4d ec	 mov	 ecx, DWORD PTR $T187773[ebp]
  001b8	ff 12		 call	 DWORD PTR [edx]
  001ba	3b f4		 cmp	 esi, esp
  001bc	e8 00 00 00 00	 call	 __RTC_CheckEsp
  001c1	89 45 dc	 mov	 DWORD PTR tv87[ebp], eax
  001c4	eb 07		 jmp	 SHORT $L187776
$L187775:
  001c6	c7 45 dc 00 00
	00 00		 mov	 DWORD PTR tv87[ebp], 0
$L187776:

; 24   : 	delete m_pImgBorderGlow;

  001cd	8b 45 f0	 mov	 eax, DWORD PTR _this$[ebp]
  001d0	8b 88 88 00 00
	00		 mov	 ecx, DWORD PTR [eax+136]
  001d6	89 4d e0	 mov	 DWORD PTR $T187778[ebp], ecx
  001d9	8b 55 e0	 mov	 edx, DWORD PTR $T187778[ebp]
  001dc	89 55 e4	 mov	 DWORD PTR $T187777[ebp], edx
  001df	83 7d e4 00	 cmp	 DWORD PTR $T187777[ebp], 0
  001e3	74 1a		 je	 SHORT $L187779
  001e5	8b f4		 mov	 esi, esp
  001e7	6a 01		 push	 1
  001e9	8b 45 e4	 mov	 eax, DWORD PTR $T187777[ebp]
  001ec	8b 10		 mov	 edx, DWORD PTR [eax]
  001ee	8b 4d e4	 mov	 ecx, DWORD PTR $T187777[ebp]
  001f1	ff 12		 call	 DWORD PTR [edx]
  001f3	3b f4		 cmp	 esi, esp
  001f5	e8 00 00 00 00	 call	 __RTC_CheckEsp
  001fa	89 45 d8	 mov	 DWORD PTR tv95[ebp], eax
  001fd	eb 07		 jmp	 SHORT $L187105
$L187779:
  001ff	c7 45 d8 00 00
	00 00		 mov	 DWORD PTR tv95[ebp], 0
$L187105:

; 25   : }

  00206	c6 45 fc 02	 mov	 BYTE PTR __$EHRec$[ebp+8], 2
  0020a	8b 4d f0	 mov	 ecx, DWORD PTR _this$[ebp]
  0020d	83 c1 78	 add	 ecx, 120		; 00000078H
  00210	8b f4		 mov	 esi, esp
  00212	ff 15 00 00 00
	00		 call	 DWORD PTR __imp_??1?$CStringT@DV?$StrTraitMFC_DLL@DV?$ChTraitsCRT@D@ATL@@@@@ATL@@QAE@XZ
  00218	3b f4		 cmp	 esi, esp
  0021a	e8 00 00 00 00	 call	 __RTC_CheckEsp
  0021f	c6 45 fc 01	 mov	 BYTE PTR __$EHRec$[ebp+8], 1
  00223	8b 4d f0	 mov	 ecx, DWORD PTR _this$[ebp]
  00226	83 c1 68	 add	 ecx, 104		; 00000068H
  00229	e8 00 00 00 00	 call	 ??1CBrush@@UAE@XZ	; CBrush::~CBrush
  0022e	c6 45 fc 00	 mov	 BYTE PTR __$EHRec$[ebp+8], 0
  00232	8b 4d f0	 mov	 ecx, DWORD PTR _this$[ebp]
  00235	83 c1 58	 add	 ecx, 88			; 00000058H
  00238	e8 00 00 00 00	 call	 ??1CFont@@UAE@XZ	; CFont::~CFont
  0023d	c7 45 fc ff ff
	ff ff		 mov	 DWORD PTR __$EHRec$[ebp+8], -1
  00244	8b 4d f0	 mov	 ecx, DWORD PTR _this$[ebp]
  00247	e8 00 00 00 00	 call	 ??1CEdit@@UAE@XZ	; CEdit::~CEdit
  0024c	8b 4d f4	 mov	 ecx, DWORD PTR __$EHRec$[ebp]
  0024f	64 89 0d 00 00
	00 00		 mov	 DWORD PTR fs:__except_list, ecx
  00256	5e		 pop	 esi
  00257	83 c4 28	 add	 esp, 40			; 00000028H
  0025a	3b ec		 cmp	 ebp, esp
  0025c	e8 00 00 00 00	 call	 __RTC_CheckEsp
  00261	8b e5		 mov	 esp, ebp
  00263	5d		 pop	 ebp
  00264	c3		 ret	 0
_TEXT	ENDS
text$x	SEGMENT
$L187781:
  0003d	8b 4d f0	 mov	 ecx, DWORD PTR _this$[ebp]
  00040	e9 00 00 00 00	 jmp	 ??1CEdit@@UAE@XZ	; CEdit::~CEdit
$L187782:
  00045	8b 4d f0	 mov	 ecx, DWORD PTR _this$[ebp]
  00048	83 c1 58	 add	 ecx, 88			; 00000058H
  0004b	e9 00 00 00 00	 jmp	 ??1CFont@@UAE@XZ	; CFont::~CFont
$L187783:
  00050	8b 4d f0	 mov	 ecx, DWORD PTR _this$[ebp]
  00053	83 c1 68	 add	 ecx, 104		; 00000068H
  00056	e9 00 00 00 00	 jmp	 ??1CBrush@@UAE@XZ	; CBrush::~CBrush
$L187784:
  0005b	8b 4d f0	 mov	 ecx, DWORD PTR _this$[ebp]
  0005e	83 c1 78	 add	 ecx, 120		; 00000078H
  00061	8b f4		 mov	 esi, esp
  00063	ff 15 00 00 00
	00		 call	 DWORD PTR __imp_??1?$CStringT@DV?$StrTraitMFC_DLL@DV?$ChTraitsCRT@D@ATL@@@@@ATL@@QAE@XZ
  00069	3b f4		 cmp	 esi, esp
  0006b	e9 00 00 00 00	 jmp	 __RTC_CheckEsp
__ehhandler$??1CEditGlow@@UAE@XZ:
  00070	b8 00 00 00 00	 mov	 eax, OFFSET FLAT:$T187786
  00075	e9 00 00 00 00	 jmp	 ___CxxFrameHandler
text$x	ENDS
??1CEditGlow@@UAE@XZ ENDP				; CEditGlow::~CEditGlow
PUBLIC	?CloneImage@CEditGlow@@QAEPAVImage@Gdiplus@@V?$basic_string@DU?$char_traits@D@std@@V?$allocator@D@2@@std@@@Z ; CEditGlow::CloneImage
PUBLIC	?SetPngBorder@CEditGlow@@QAEXV?$basic_string@DU?$char_traits@D@std@@V?$allocator@D@2@@std@@0@Z ; CEditGlow::SetPngBorder
EXTRN	__imp_??0?$basic_string@DU?$char_traits@D@std@@V?$allocator@D@2@@std@@QAE@ABV01@@Z:NEAR
EXTRN	__imp_??1?$basic_string@DU?$char_traits@D@std@@V?$allocator@D@2@@std@@QAE@XZ:NEAR
xdata$x	SEGMENT
$T187799 DD	0ffffffffH
	DD	FLAT:$L187792
	DD	00H
	DD	FLAT:$L187793
$T187797 DD	019930520H
	DD	02H
	DD	FLAT:$T187799
	DD	2 DUP(00H)
	DD	2 DUP(00H)
; Function compile flags: /Odt /RTCsu
xdata$x	ENDS
_TEXT	SEGMENT
tv139 = -40						; size = 4
tv138 = -36						; size = 4
tv136 = -32						; size = 4
tv135 = -28						; size = 4
$T187791 = -24						; size = 4
$T187790 = -20						; size = 4
_this$ = -16						; size = 4
__$EHRec$ = -12						; size = 12
_normalpath$ = 8					; size = 28
_glowpath$ = 36						; size = 28
?SetPngBorder@CEditGlow@@QAEXV?$basic_string@DU?$char_traits@D@std@@V?$allocator@D@2@@std@@0@Z PROC NEAR ; CEditGlow::SetPngBorder
; _this$ = ecx

; 28   : {

  00270	55		 push	 ebp
  00271	8b ec		 mov	 ebp, esp
  00273	6a ff		 push	 -1
  00275	68 00 00 00 00	 push	 __ehhandler$?SetPngBorder@CEditGlow@@QAEXV?$basic_string@DU?$char_traits@D@std@@V?$allocator@D@2@@std@@0@Z
  0027a	64 a1 00 00 00
	00		 mov	 eax, DWORD PTR fs:__except_list
  00280	50		 push	 eax
  00281	64 89 25 00 00
	00 00		 mov	 DWORD PTR fs:__except_list, esp
  00288	83 ec 1c	 sub	 esp, 28			; 0000001cH
  0028b	56		 push	 esi
  0028c	b8 cc cc cc cc	 mov	 eax, -858993460		; ccccccccH
  00291	89 45 d8	 mov	 DWORD PTR [ebp-40], eax
  00294	89 45 dc	 mov	 DWORD PTR [ebp-36], eax
  00297	89 45 e0	 mov	 DWORD PTR [ebp-32], eax
  0029a	89 45 e4	 mov	 DWORD PTR [ebp-28], eax
  0029d	89 45 e8	 mov	 DWORD PTR [ebp-24], eax
  002a0	89 45 ec	 mov	 DWORD PTR [ebp-20], eax
  002a3	89 45 f0	 mov	 DWORD PTR [ebp-16], eax
  002a6	89 4d f0	 mov	 DWORD PTR _this$[ebp], ecx
  002a9	c7 45 fc 01 00
	00 00		 mov	 DWORD PTR __$EHRec$[ebp+8], 1

; 29   : 	m_pImgBorder = CloneImage(normalpath);

  002b0	83 ec 1c	 sub	 esp, 28			; 0000001cH
  002b3	8b cc		 mov	 ecx, esp
  002b5	89 65 ec	 mov	 DWORD PTR $T187790[ebp], esp
  002b8	8b f4		 mov	 esi, esp
  002ba	8d 45 08	 lea	 eax, DWORD PTR _normalpath$[ebp]
  002bd	50		 push	 eax
  002be	ff 15 00 00 00
	00		 call	 DWORD PTR __imp_??0?$basic_string@DU?$char_traits@D@std@@V?$allocator@D@2@@std@@QAE@ABV01@@Z
  002c4	3b f4		 cmp	 esi, esp
  002c6	e8 00 00 00 00	 call	 __RTC_CheckEsp
  002cb	89 45 e4	 mov	 DWORD PTR tv135[ebp], eax
  002ce	8b 4d f0	 mov	 ecx, DWORD PTR _this$[ebp]
  002d1	e8 00 00 00 00	 call	 ?CloneImage@CEditGlow@@QAEPAVImage@Gdiplus@@V?$basic_string@DU?$char_traits@D@std@@V?$allocator@D@2@@std@@@Z ; CEditGlow::CloneImage
  002d6	89 45 e0	 mov	 DWORD PTR tv136[ebp], eax
  002d9	8b 4d f0	 mov	 ecx, DWORD PTR _this$[ebp]
  002dc	8b 55 e0	 mov	 edx, DWORD PTR tv136[ebp]
  002df	89 91 84 00 00
	00		 mov	 DWORD PTR [ecx+132], edx

; 30   : 	m_pImgBorderGlow = CloneImage(glowpath);

  002e5	83 ec 1c	 sub	 esp, 28			; 0000001cH
  002e8	8b cc		 mov	 ecx, esp
  002ea	89 65 e8	 mov	 DWORD PTR $T187791[ebp], esp
  002ed	8b f4		 mov	 esi, esp
  002ef	8d 45 24	 lea	 eax, DWORD PTR _glowpath$[ebp]
  002f2	50		 push	 eax
  002f3	ff 15 00 00 00
	00		 call	 DWORD PTR __imp_??0?$basic_string@DU?$char_traits@D@std@@V?$allocator@D@2@@std@@QAE@ABV01@@Z
  002f9	3b f4		 cmp	 esi, esp
  002fb	e8 00 00 00 00	 call	 __RTC_CheckEsp
  00300	89 45 dc	 mov	 DWORD PTR tv138[ebp], eax
  00303	8b 4d f0	 mov	 ecx, DWORD PTR _this$[ebp]
  00306	e8 00 00 00 00	 call	 ?CloneImage@CEditGlow@@QAEPAVImage@Gdiplus@@V?$basic_string@DU?$char_traits@D@std@@V?$allocator@D@2@@std@@@Z ; CEditGlow::CloneImage
  0030b	89 45 d8	 mov	 DWORD PTR tv139[ebp], eax
  0030e	8b 4d f0	 mov	 ecx, DWORD PTR _this$[ebp]
  00311	8b 55 d8	 mov	 edx, DWORD PTR tv139[ebp]
  00314	89 91 88 00 00
	00		 mov	 DWORD PTR [ecx+136], edx

; 31   : }

  0031a	c6 45 fc 00	 mov	 BYTE PTR __$EHRec$[ebp+8], 0
  0031e	8b f4		 mov	 esi, esp
  00320	8d 4d 08	 lea	 ecx, DWORD PTR _normalpath$[ebp]
  00323	ff 15 00 00 00
	00		 call	 DWORD PTR __imp_??1?$basic_string@DU?$char_traits@D@std@@V?$allocator@D@2@@std@@QAE@XZ
  00329	3b f4		 cmp	 esi, esp
  0032b	e8 00 00 00 00	 call	 __RTC_CheckEsp
  00330	c7 45 fc ff ff
	ff ff		 mov	 DWORD PTR __$EHRec$[ebp+8], -1
  00337	8b f4		 mov	 esi, esp
  00339	8d 4d 24	 lea	 ecx, DWORD PTR _glowpath$[ebp]
  0033c	ff 15 00 00 00
	00		 call	 DWORD PTR __imp_??1?$basic_string@DU?$char_traits@D@std@@V?$allocator@D@2@@std@@QAE@XZ
  00342	3b f4		 cmp	 esi, esp
  00344	e8 00 00 00 00	 call	 __RTC_CheckEsp
  00349	8b 4d f4	 mov	 ecx, DWORD PTR __$EHRec$[ebp]
  0034c	64 89 0d 00 00
	00 00		 mov	 DWORD PTR fs:__except_list, ecx
  00353	5e		 pop	 esi
  00354	83 c4 28	 add	 esp, 40			; 00000028H
  00357	3b ec		 cmp	 ebp, esp
  00359	e8 00 00 00 00	 call	 __RTC_CheckEsp
  0035e	8b e5		 mov	 esp, ebp
  00360	5d		 pop	 ebp
  00361	c2 38 00	 ret	 56			; 00000038H
_TEXT	ENDS
text$x	SEGMENT
$L187792:
  0007a	8b f4		 mov	 esi, esp
  0007c	8d 4d 24	 lea	 ecx, DWORD PTR _glowpath$[ebp]
  0007f	ff 15 00 00 00
	00		 call	 DWORD PTR __imp_??1?$basic_string@DU?$char_traits@D@std@@V?$allocator@D@2@@std@@QAE@XZ
  00085	3b f4		 cmp	 esi, esp
  00087	e9 00 00 00 00	 jmp	 __RTC_CheckEsp
$L187793:
  0008c	8b f4		 mov	 esi, esp
  0008e	8d 4d 08	 lea	 ecx, DWORD PTR _normalpath$[ebp]
  00091	ff 15 00 00 00
	00		 call	 DWORD PTR __imp_??1?$basic_string@DU?$char_traits@D@std@@V?$allocator@D@2@@std@@QAE@XZ
  00097	3b f4		 cmp	 esi, esp
  00099	e9 00 00 00 00	 jmp	 __RTC_CheckEsp
__ehhandler$?SetPngBorder@CEditGlow@@QAEXV?$basic_string@DU?$char_traits@D@std@@V?$allocator@D@2@@std@@0@Z:
  0009e	b8 00 00 00 00	 mov	 eax, OFFSET FLAT:$T187797
  000a3	e9 00 00 00 00	 jmp	 ___CxxFrameHandler
text$x	ENDS
?SetPngBorder@CEditGlow@@QAEXV?$basic_string@DU?$char_traits@D@std@@V?$allocator@D@2@@std@@0@Z ENDP ; CEditGlow::SetPngBorder
PUBLIC	??0CTraceFileAndLineInfo@ATL@@QAE@PBDH@Z	; ATL::CTraceFileAndLineInfo::CTraceFileAndLineInfo
PUBLIC	??RCTraceFileAndLineInfo@ATL@@QBAXPBDZZ		; ATL::CTraceFileAndLineInfo::operator()
PUBLIC	??0Image@Gdiplus@@QAE@PB_WH@Z			; Gdiplus::Image::Image
PUBLIC	??1Image@Gdiplus@@UAE@XZ			; Gdiplus::Image::~Image
PUBLIC	?Clone@Image@Gdiplus@@UAEPAV12@XZ		; Gdiplus::Image::Clone
PUBLIC	?GetWidth@Image@Gdiplus@@QAEIXZ			; Gdiplus::Image::GetWidth
PUBLIC	?GetHeight@Image@Gdiplus@@QAEIXZ		; Gdiplus::Image::GetHeight
PUBLIC	?GetLastStatus@Image@Gdiplus@@QBE?AW4Status@2@XZ ; Gdiplus::Image::GetLastStatus
EXTRN	__imp__MultiByteToWideChar@24:NEAR
EXTRN	__chkstk:NEAR
EXTRN	___security_cookie:DWORD
EXTRN	@_RTC_CheckStackVars@8:NEAR
EXTRN	@__security_check_cookie@4:NEAR
EXTRN	__imp_?c_str@?$basic_string@DU?$char_traits@D@std@@V?$allocator@D@2@@std@@QBEPBDXZ:NEAR
EXTRN	__imp_?length@?$basic_string@DU?$char_traits@D@std@@V?$allocator@D@2@@std@@QBEIXZ:NEAR
xdata$x	SEGMENT
$T187819 DD	0ffffffffH
	DD	FLAT:$L187805
	DD	00H
	DD	FLAT:$L187806
$T187808 DD	019930520H
	DD	02H
	DD	FLAT:$T187819
	DD	2 DUP(00H)
	DD	2 DUP(00H)
; Function compile flags: /Odt /RTCsu
xdata$x	ENDS
_TEXT	SEGMENT
$T187804 = -4176					; size = 4
$T187803 = -4172					; size = 8
$T187802 = -4164					; size = 4
_h$ = -4160						; size = 4
_w$ = -4156						; size = 4
_image$ = -4148						; size = 16
_lLen$ = -4128						; size = 4
_szWidePath$ = -4120					; size = 4096
_this$ = -20						; size = 4
__$ArrayPad$ = -16					; size = 4
__$EHRec$ = -12						; size = 12
__$ReturnAddr$ = 4					; size = 4
_path$ = 8						; size = 28
?CloneImage@CEditGlow@@QAEPAVImage@Gdiplus@@V?$basic_string@DU?$char_traits@D@std@@V?$allocator@D@2@@std@@@Z PROC NEAR ; CEditGlow::CloneImage
; _this$ = ecx

; 34   : {

  00370	55		 push	 ebp
  00371	8b ec		 mov	 ebp, esp
  00373	6a ff		 push	 -1
  00375	68 00 00 00 00	 push	 __ehhandler$?CloneImage@CEditGlow@@QAEPAVImage@Gdiplus@@V?$basic_string@DU?$char_traits@D@std@@V?$allocator@D@2@@std@@@Z
  0037a	64 a1 00 00 00
	00		 mov	 eax, DWORD PTR fs:__except_list
  00380	50		 push	 eax
  00381	64 89 25 00 00
	00 00		 mov	 DWORD PTR fs:__except_list, esp
  00388	b8 44 10 00 00	 mov	 eax, 4164		; 00001044H
  0038d	e8 00 00 00 00	 call	 __chkstk
  00392	56		 push	 esi
  00393	57		 push	 edi
  00394	51		 push	 ecx
  00395	8d bd b0 ef ff
	ff		 lea	 edi, DWORD PTR [ebp-4176]
  0039b	b9 11 04 00 00	 mov	 ecx, 1041		; 00000411H
  003a0	b8 cc cc cc cc	 mov	 eax, -858993460		; ccccccccH
  003a5	f3 ab		 rep stosd
  003a7	59		 pop	 ecx
  003a8	a1 00 00 00 00	 mov	 eax, DWORD PTR ___security_cookie
  003ad	89 45 f0	 mov	 DWORD PTR __$ArrayPad$[ebp], eax
  003b0	89 4d ec	 mov	 DWORD PTR _this$[ebp], ecx
  003b3	c7 45 fc 00 00
	00 00		 mov	 DWORD PTR __$EHRec$[ebp+8], 0

; 35   : 	WCHAR szWidePath[2048];   
; 36   : 	long lLen = MultiByteToWideChar(CP_ACP,0,path.c_str(),path.length(),szWidePath,sizeof(szWidePath)); 

  003ba	8b f4		 mov	 esi, esp
  003bc	68 00 10 00 00	 push	 4096			; 00001000H
  003c1	8d 85 e8 ef ff
	ff		 lea	 eax, DWORD PTR _szWidePath$[ebp]
  003c7	50		 push	 eax
  003c8	8b fc		 mov	 edi, esp
  003ca	8d 4d 08	 lea	 ecx, DWORD PTR _path$[ebp]
  003cd	ff 15 00 00 00
	00		 call	 DWORD PTR __imp_?length@?$basic_string@DU?$char_traits@D@std@@V?$allocator@D@2@@std@@QBEIXZ
  003d3	3b fc		 cmp	 edi, esp
  003d5	e8 00 00 00 00	 call	 __RTC_CheckEsp
  003da	50		 push	 eax
  003db	8b fc		 mov	 edi, esp
  003dd	8d 4d 08	 lea	 ecx, DWORD PTR _path$[ebp]
  003e0	ff 15 00 00 00
	00		 call	 DWORD PTR __imp_?c_str@?$basic_string@DU?$char_traits@D@std@@V?$allocator@D@2@@std@@QBEPBDXZ
  003e6	3b fc		 cmp	 edi, esp
  003e8	e8 00 00 00 00	 call	 __RTC_CheckEsp
  003ed	50		 push	 eax
  003ee	6a 00		 push	 0
  003f0	6a 00		 push	 0
  003f2	ff 15 00 00 00
	00		 call	 DWORD PTR __imp__MultiByteToWideChar@24
  003f8	3b f4		 cmp	 esi, esp
  003fa	e8 00 00 00 00	 call	 __RTC_CheckEsp
  003ff	89 85 e0 ef ff
	ff		 mov	 DWORD PTR _lLen$[ebp], eax

; 37   : 	szWidePath[lLen] = '\0';     

  00405	8b 8d e0 ef ff
	ff		 mov	 ecx, DWORD PTR _lLen$[ebp]
  0040b	66 c7 84 4d e8
	ef ff ff 00 00	 mov	 WORD PTR _szWidePath$[ebp+ecx*2], 0

; 38   : 
; 39   : 	Image image(szWidePath);

  00415	6a 00		 push	 0
  00417	8d 95 e8 ef ff
	ff		 lea	 edx, DWORD PTR _szWidePath$[ebp]
  0041d	52		 push	 edx
  0041e	8d 8d cc ef ff
	ff		 lea	 ecx, DWORD PTR _image$[ebp]
  00424	e8 00 00 00 00	 call	 ??0Image@Gdiplus@@QAE@PB_WH@Z ; Gdiplus::Image::Image
  00429	c6 45 fc 01	 mov	 BYTE PTR __$EHRec$[ebp+8], 1

; 40   : 	if(image.GetLastStatus() != S_OK)

  0042d	8d 8d cc ef ff
	ff		 lea	 ecx, DWORD PTR _image$[ebp]
  00433	e8 00 00 00 00	 call	 ?GetLastStatus@Image@Gdiplus@@QBE?AW4Status@2@XZ ; Gdiplus::Image::GetLastStatus
  00438	85 c0		 test	 eax, eax
  0043a	74 3d		 je	 SHORT $L187125

; 41   : 	{
; 42   : 		return NULL;

  0043c	c7 85 bc ef ff
	ff 00 00 00 00	 mov	 DWORD PTR $T187802[ebp], 0
  00446	c6 45 fc 00	 mov	 BYTE PTR __$EHRec$[ebp+8], 0
  0044a	8d 8d cc ef ff
	ff		 lea	 ecx, DWORD PTR _image$[ebp]
  00450	e8 00 00 00 00	 call	 ??1Image@Gdiplus@@UAE@XZ ; Gdiplus::Image::~Image
  00455	c7 45 fc ff ff
	ff ff		 mov	 DWORD PTR __$EHRec$[ebp+8], -1
  0045c	8b f4		 mov	 esi, esp
  0045e	8d 4d 08	 lea	 ecx, DWORD PTR _path$[ebp]
  00461	ff 15 00 00 00
	00		 call	 DWORD PTR __imp_??1?$basic_string@DU?$char_traits@D@std@@V?$allocator@D@2@@std@@QAE@XZ
  00467	3b f4		 cmp	 esi, esp
  00469	e8 00 00 00 00	 call	 __RTC_CheckEsp
  0046e	8b 85 bc ef ff
	ff		 mov	 eax, DWORD PTR $T187802[ebp]
  00474	e9 a2 00 00 00	 jmp	 $L187120
$L187125:

; 43   : 	}
; 44   : 	int w = image.GetWidth();

  00479	8d 8d cc ef ff
	ff		 lea	 ecx, DWORD PTR _image$[ebp]
  0047f	e8 00 00 00 00	 call	 ?GetWidth@Image@Gdiplus@@QAEIXZ ; Gdiplus::Image::GetWidth
  00484	89 85 c4 ef ff
	ff		 mov	 DWORD PTR _w$[ebp], eax

; 45   : 	int h = image.GetHeight(); 

  0048a	8d 8d cc ef ff
	ff		 lea	 ecx, DWORD PTR _image$[ebp]
  00490	e8 00 00 00 00	 call	 ?GetHeight@Image@Gdiplus@@QAEIXZ ; Gdiplus::Image::GetHeight
  00495	89 85 c0 ef ff
	ff		 mov	 DWORD PTR _h$[ebp], eax

; 46   : 	TRACE("w: %d ,h: %d, %s\r\n", w,h,path.c_str());

  0049b	8b f4		 mov	 esi, esp
  0049d	8d 4d 08	 lea	 ecx, DWORD PTR _path$[ebp]
  004a0	ff 15 00 00 00
	00		 call	 DWORD PTR __imp_?c_str@?$basic_string@DU?$char_traits@D@std@@V?$allocator@D@2@@std@@QBEPBDXZ
  004a6	3b f4		 cmp	 esi, esp
  004a8	e8 00 00 00 00	 call	 __RTC_CheckEsp
  004ad	50		 push	 eax
  004ae	8b 85 c0 ef ff
	ff		 mov	 eax, DWORD PTR _h$[ebp]
  004b4	50		 push	 eax
  004b5	8b 8d c4 ef ff
	ff		 mov	 ecx, DWORD PTR _w$[ebp]
  004bb	51		 push	 ecx
  004bc	68 00 00 00 00	 push	 OFFSET FLAT:$SG187131
  004c1	6a 2e		 push	 46			; 0000002eH
  004c3	68 00 00 00 00	 push	 OFFSET FLAT:$SG187130
  004c8	8d 8d b4 ef ff
	ff		 lea	 ecx, DWORD PTR $T187803[ebp]
  004ce	e8 00 00 00 00	 call	 ??0CTraceFileAndLineInfo@ATL@@QAE@PBDH@Z ; ATL::CTraceFileAndLineInfo::CTraceFileAndLineInfo
  004d3	50		 push	 eax
  004d4	e8 00 00 00 00	 call	 ??RCTraceFileAndLineInfo@ATL@@QBAXPBDZZ ; ATL::CTraceFileAndLineInfo::operator()
  004d9	83 c4 14	 add	 esp, 20			; 00000014H

; 47   : 	return image.Clone();

  004dc	8d 8d cc ef ff
	ff		 lea	 ecx, DWORD PTR _image$[ebp]
  004e2	e8 00 00 00 00	 call	 ?Clone@Image@Gdiplus@@UAEPAV12@XZ ; Gdiplus::Image::Clone
  004e7	89 85 b0 ef ff
	ff		 mov	 DWORD PTR $T187804[ebp], eax
  004ed	c6 45 fc 00	 mov	 BYTE PTR __$EHRec$[ebp+8], 0
  004f1	8d 8d cc ef ff
	ff		 lea	 ecx, DWORD PTR _image$[ebp]
  004f7	e8 00 00 00 00	 call	 ??1Image@Gdiplus@@UAE@XZ ; Gdiplus::Image::~Image
  004fc	c7 45 fc ff ff
	ff ff		 mov	 DWORD PTR __$EHRec$[ebp+8], -1
  00503	8b f4		 mov	 esi, esp
  00505	8d 4d 08	 lea	 ecx, DWORD PTR _path$[ebp]
  00508	ff 15 00 00 00
	00		 call	 DWORD PTR __imp_??1?$basic_string@DU?$char_traits@D@std@@V?$allocator@D@2@@std@@QAE@XZ
  0050e	3b f4		 cmp	 esi, esp
  00510	e8 00 00 00 00	 call	 __RTC_CheckEsp
  00515	8b 85 b0 ef ff
	ff		 mov	 eax, DWORD PTR $T187804[ebp]
$L187120:

; 48   : }

  0051b	52		 push	 edx
  0051c	8b cd		 mov	 ecx, ebp
  0051e	50		 push	 eax
  0051f	8d 15 00 00 00
	00		 lea	 edx, DWORD PTR $L187816
  00525	e8 00 00 00 00	 call	 @_RTC_CheckStackVars@8
  0052a	58		 pop	 eax
  0052b	5a		 pop	 edx
  0052c	8b 4d f4	 mov	 ecx, DWORD PTR __$EHRec$[ebp]
  0052f	64 89 0d 00 00
	00 00		 mov	 DWORD PTR fs:__except_list, ecx
  00536	8b 4d f0	 mov	 ecx, DWORD PTR __$ArrayPad$[ebp]
  00539	e8 00 00 00 00	 call	 @__security_check_cookie@4
  0053e	5f		 pop	 edi
  0053f	5e		 pop	 esi
  00540	81 c4 50 10 00
	00		 add	 esp, 4176		; 00001050H
  00546	3b ec		 cmp	 ebp, esp
  00548	e8 00 00 00 00	 call	 __RTC_CheckEsp
  0054d	8b e5		 mov	 esp, ebp
  0054f	5d		 pop	 ebp
  00550	c2 1c 00	 ret	 28			; 0000001cH
$L187816:
  00553	02 00 00 00	 DD	 2
  00557	00 00 00 00	 DD	 $L187815
$L187815:
  0055b	e8 ef ff ff	 DD	 -4120			; ffffefe8H
  0055f	00 10 00 00	 DD	 4096			; 00001000H
  00563	00 00 00 00	 DD	 $L187809
  00567	cc ef ff ff	 DD	 -4148			; ffffefccH
  0056b	10 00 00 00	 DD	 16			; 00000010H
  0056f	00 00 00 00	 DD	 $L187810
$L187810:
  00573	69		 DB	 105			; 00000069H
  00574	6d		 DB	 109			; 0000006dH
  00575	61		 DB	 97			; 00000061H
  00576	67		 DB	 103			; 00000067H
  00577	65		 DB	 101			; 00000065H
  00578	00		 DB	 0
$L187809:
  00579	73		 DB	 115			; 00000073H
  0057a	7a		 DB	 122			; 0000007aH
  0057b	57		 DB	 87			; 00000057H
  0057c	69		 DB	 105			; 00000069H
  0057d	64		 DB	 100			; 00000064H
  0057e	65		 DB	 101			; 00000065H
  0057f	50		 DB	 80			; 00000050H
  00580	61		 DB	 97			; 00000061H
  00581	74		 DB	 116			; 00000074H
  00582	68		 DB	 104			; 00000068H
  00583	00		 DB	 0
_TEXT	ENDS
text$x	SEGMENT
$L187805:
  000a8	8b f4		 mov	 esi, esp
  000aa	8d 4d 08	 lea	 ecx, DWORD PTR _path$[ebp]
  000ad	ff 15 00 00 00
	00		 call	 DWORD PTR __imp_??1?$basic_string@DU?$char_traits@D@std@@V?$allocator@D@2@@std@@QAE@XZ
  000b3	3b f4		 cmp	 esi, esp
  000b5	e9 00 00 00 00	 jmp	 __RTC_CheckEsp
$L187806:
  000ba	8d 8d cc ef ff
	ff		 lea	 ecx, DWORD PTR _image$[ebp]
  000c0	e9 00 00 00 00	 jmp	 ??1Image@Gdiplus@@UAE@XZ ; Gdiplus::Image::~Image
__ehhandler$?CloneImage@CEditGlow@@QAEPAVImage@Gdiplus@@V?$basic_string@DU?$char_traits@D@std@@V?$allocator@D@2@@std@@@Z:
  000c5	b8 00 00 00 00	 mov	 eax, OFFSET FLAT:$T187808
  000ca	e9 00 00 00 00	 jmp	 ___CxxFrameHandler
text$x	ENDS
?CloneImage@CEditGlow@@QAEPAVImage@Gdiplus@@V?$basic_string@DU?$char_traits@D@std@@V?$allocator@D@2@@std@@@Z ENDP ; CEditGlow::CloneImage
PUBLIC	?GetThisMessageMap@CEditGlow@@KGPBUAFX_MSGMAP@@XZ ; CEditGlow::GetThisMessageMap
; Function compile flags: /Odt /RTCsu
_TEXT	SEGMENT
?GetThisMessageMap@CEditGlow@@KGPBUAFX_MSGMAP@@XZ PROC NEAR ; CEditGlow::GetThisMessageMap

; 51   : BEGIN_MESSAGE_MAP(CEditGlow, CEdit)

  00590	55		 push	 ebp
  00591	8b ec		 mov	 ebp, esp
  00593	b8 00 00 00 00	 mov	 eax, OFFSET FLAT:?messageMap@CEditGlow@@1UAFX_MSGMAP@@B ; CEditGlow::messageMap
  00598	5d		 pop	 ebp
  00599	c3		 ret	 0
?GetThisMessageMap@CEditGlow@@KGPBUAFX_MSGMAP@@XZ ENDP	; CEditGlow::GetThisMessageMap
; Function compile flags: /Odt /RTCsu
_this$ = -4						; size = 4
?GetMessageMap@CEditGlow@@MBEPBUAFX_MSGMAP@@XZ PROC NEAR ; CEditGlow::GetMessageMap
; _this$ = ecx

; 51   : BEGIN_MESSAGE_MAP(CEditGlow, CEdit)

  005a0	55		 push	 ebp
  005a1	8b ec		 mov	 ebp, esp
  005a3	51		 push	 ecx
  005a4	c7 45 fc cc cc
	cc cc		 mov	 DWORD PTR [ebp-4], -858993460 ; ccccccccH
  005ab	89 4d fc	 mov	 DWORD PTR _this$[ebp], ecx
  005ae	b8 00 00 00 00	 mov	 eax, OFFSET FLAT:?messageMap@CEditGlow@@1UAFX_MSGMAP@@B ; CEditGlow::messageMap
  005b3	8b e5		 mov	 esp, ebp
  005b5	5d		 pop	 ebp
  005b6	c3		 ret	 0
?GetMessageMap@CEditGlow@@MBEPBUAFX_MSGMAP@@XZ ENDP	; CEditGlow::GetMessageMap
_TEXT	ENDS
PUBLIC	?SetTextSize@CEditGlow@@QAEXI@Z			; CEditGlow::SetTextSize
; Function compile flags: /Odt /RTCsu
_TEXT	SEGMENT
_this$ = -4						; size = 4
_textSize$ = 8						; size = 4
?SetTextSize@CEditGlow@@QAEXI@Z PROC NEAR		; CEditGlow::SetTextSize
; _this$ = ecx

; 64   : {

  005c0	55		 push	 ebp
  005c1	8b ec		 mov	 ebp, esp
  005c3	51		 push	 ecx
  005c4	c7 45 fc cc cc
	cc cc		 mov	 DWORD PTR [ebp-4], -858993460 ; ccccccccH
  005cb	89 4d fc	 mov	 DWORD PTR _this$[ebp], ecx

; 65   : 	m_textSize = textSize;

  005ce	8b 45 fc	 mov	 eax, DWORD PTR _this$[ebp]
  005d1	8b 4d 08	 mov	 ecx, DWORD PTR _textSize$[ebp]
  005d4	89 48 60	 mov	 DWORD PTR [eax+96], ecx

; 66   : }

  005d7	8b e5		 mov	 esp, ebp
  005d9	5d		 pop	 ebp
  005da	c2 04 00	 ret	 4
?SetTextSize@CEditGlow@@QAEXI@Z ENDP			; CEditGlow::SetTextSize
_TEXT	ENDS
EXTRN	?SetTextAlign@CDC@@QAEII@Z:NEAR			; CDC::SetTextAlign
EXTRN	?OnCreate@CWnd@@IAEHPAUtagCREATESTRUCTA@@@Z:NEAR ; CWnd::OnCreate
EXTRN	?SetMargins@CEdit@@QAEXII@Z:NEAR		; CEdit::SetMargins
EXTRN	?CreateFontIndirectA@CFont@@QAEHPBUtagLOGFONTA@@@Z:NEAR ; CFont::CreateFontIndirectA
EXTRN	?SetFont@CWnd@@QAEXPAVCFont@@H@Z:NEAR		; CWnd::SetFont
EXTRN	__imp__GetDeviceCaps@8:NEAR
EXTRN	?GetDC@CWnd@@QAEPAVCDC@@XZ:NEAR			; CWnd::GetDC
EXTRN	?ReleaseDC@CWnd@@QAEHPAVCDC@@@Z:NEAR		; CWnd::ReleaseDC
EXTRN	?SetBkMode@CDC@@QAEHH@Z:NEAR			; CDC::SetBkMode
EXTRN	_memset:NEAR
EXTRN	__imp__MulDiv@12:NEAR
; Function compile flags: /Odt /RTCsu
_TEXT	SEGMENT
_lf$ = -76						; size = 60
_lpDC$ = -12						; size = 4
_this$ = -8						; size = 4
__$ArrayPad$ = -4					; size = 4
__$ReturnAddr$ = 4					; size = 4
_lpCreateStruct$ = 8					; size = 4
?OnCreate@CEditGlow@@QAEHPAUtagCREATESTRUCTA@@@Z PROC NEAR ; CEditGlow::OnCreate
; _this$ = ecx

; 69   : {

  005e0	55		 push	 ebp
  005e1	8b ec		 mov	 ebp, esp
  005e3	83 ec 50	 sub	 esp, 80			; 00000050H
  005e6	56		 push	 esi
  005e7	57		 push	 edi
  005e8	51		 push	 ecx
  005e9	8d 7d b0	 lea	 edi, DWORD PTR [ebp-80]
  005ec	b9 14 00 00 00	 mov	 ecx, 20			; 00000014H
  005f1	b8 cc cc cc cc	 mov	 eax, -858993460		; ccccccccH
  005f6	f3 ab		 rep stosd
  005f8	59		 pop	 ecx
  005f9	a1 00 00 00 00	 mov	 eax, DWORD PTR ___security_cookie
  005fe	89 45 fc	 mov	 DWORD PTR __$ArrayPad$[ebp], eax
  00601	89 4d f8	 mov	 DWORD PTR _this$[ebp], ecx

; 70   : 	if (CEdit::OnCreate(lpCreateStruct) == -1)

  00604	8b 45 08	 mov	 eax, DWORD PTR _lpCreateStruct$[ebp]
  00607	50		 push	 eax
  00608	8b 4d f8	 mov	 ecx, DWORD PTR _this$[ebp]
  0060b	e8 00 00 00 00	 call	 ?OnCreate@CWnd@@IAEHPAUtagCREATESTRUCTA@@@Z ; CWnd::OnCreate
  00610	83 f8 ff	 cmp	 eax, -1
  00613	75 08		 jne	 SHORT $L187183

; 71   : 		return -1;

  00615	83 c8 ff	 or	 eax, -1
  00618	e9 ba 00 00 00	 jmp	 $L187182
$L187183:

; 72   : 
; 73   : 	CDC* lpDC;
; 74   : 	lpDC = GetDC();

  0061d	8b 4d f8	 mov	 ecx, DWORD PTR _this$[ebp]
  00620	e8 00 00 00 00	 call	 ?GetDC@CWnd@@QAEPAVCDC@@XZ ; CWnd::GetDC
  00625	89 45 f4	 mov	 DWORD PTR _lpDC$[ebp], eax

; 75   : 	
; 76   : 	LOGFONT  lf;
; 77   : 	ZeroMemory(&lf,sizeof(lf));

  00628	6a 3c		 push	 60			; 0000003cH
  0062a	6a 00		 push	 0
  0062c	8d 4d b4	 lea	 ecx, DWORD PTR _lf$[ebp]
  0062f	51		 push	 ecx
  00630	e8 00 00 00 00	 call	 _memset
  00635	83 c4 0c	 add	 esp, 12			; 0000000cH

; 78   : 	lf.lfHeight= -MulDiv(m_textSize,GetDeviceCaps(lpDC->m_hDC,LOGPIXELSY),72);

  00638	8b f4		 mov	 esi, esp
  0063a	6a 48		 push	 72			; 00000048H
  0063c	8b fc		 mov	 edi, esp
  0063e	6a 5a		 push	 90			; 0000005aH
  00640	8b 55 f4	 mov	 edx, DWORD PTR _lpDC$[ebp]
  00643	8b 42 04	 mov	 eax, DWORD PTR [edx+4]
  00646	50		 push	 eax
  00647	ff 15 00 00 00
	00		 call	 DWORD PTR __imp__GetDeviceCaps@8
  0064d	3b fc		 cmp	 edi, esp
  0064f	e8 00 00 00 00	 call	 __RTC_CheckEsp
  00654	50		 push	 eax
  00655	8b 4d f8	 mov	 ecx, DWORD PTR _this$[ebp]
  00658	8b 51 60	 mov	 edx, DWORD PTR [ecx+96]
  0065b	52		 push	 edx
  0065c	ff 15 00 00 00
	00		 call	 DWORD PTR __imp__MulDiv@12
  00662	3b f4		 cmp	 esi, esp
  00664	e8 00 00 00 00	 call	 __RTC_CheckEsp
  00669	f7 d8		 neg	 eax
  0066b	89 45 b4	 mov	 DWORD PTR _lf$[ebp], eax

; 79   : 	lf.lfWeight=FW_NORMAL;

  0066e	c7 45 c4 90 01
	00 00		 mov	 DWORD PTR _lf$[ebp+16], 400 ; 00000190H

; 80   : 	lf.lfCharSet=ANSI_CHARSET;

  00675	c6 45 cb 00	 mov	 BYTE PTR _lf$[ebp+23], 0

; 81   : 	lf.lfOutPrecision=OUT_DEFAULT_PRECIS;

  00679	c6 45 cc 00	 mov	 BYTE PTR _lf$[ebp+24], 0

; 82   : 	lf.lfClipPrecision=CLIP_DEFAULT_PRECIS;

  0067d	c6 45 cd 00	 mov	 BYTE PTR _lf$[ebp+25], 0

; 83   : 	lf.lfQuality=DEFAULT_QUALITY;

  00681	c6 45 ce 00	 mov	 BYTE PTR _lf$[ebp+26], 0

; 84   : 	lf.lfPitchAndFamily=FF_DONTCARE | DEFAULT_PITCH;

  00685	c6 45 cf 00	 mov	 BYTE PTR _lf$[ebp+27], 0

; 85   : 
; 86   : 	m_font.CreateFontIndirect(&lf);

  00689	8d 45 b4	 lea	 eax, DWORD PTR _lf$[ebp]
  0068c	50		 push	 eax
  0068d	8b 4d f8	 mov	 ecx, DWORD PTR _this$[ebp]
  00690	83 c1 58	 add	 ecx, 88			; 00000058H
  00693	e8 00 00 00 00	 call	 ?CreateFontIndirectA@CFont@@QAEHPBUtagLOGFONTA@@@Z ; CFont::CreateFontIndirectA

; 87   : 	SetFont( &m_font );

  00698	6a 01		 push	 1
  0069a	8b 4d f8	 mov	 ecx, DWORD PTR _this$[ebp]
  0069d	83 c1 58	 add	 ecx, 88			; 00000058H
  006a0	51		 push	 ecx
  006a1	8b 4d f8	 mov	 ecx, DWORD PTR _this$[ebp]
  006a4	e8 00 00 00 00	 call	 ?SetFont@CWnd@@QAEXPAVCFont@@H@Z ; CWnd::SetFont

; 88   : 
; 89   : 	lpDC->SetTextAlign( TA_BOTTOM  );

  006a9	6a 08		 push	 8
  006ab	8b 4d f4	 mov	 ecx, DWORD PTR _lpDC$[ebp]
  006ae	e8 00 00 00 00	 call	 ?SetTextAlign@CDC@@QAEII@Z ; CDC::SetTextAlign

; 90   : 	lpDC->SetBkMode( TRANSPARENT );

  006b3	6a 01		 push	 1
  006b5	8b 4d f4	 mov	 ecx, DWORD PTR _lpDC$[ebp]
  006b8	e8 00 00 00 00	 call	 ?SetBkMode@CDC@@QAEHH@Z	; CDC::SetBkMode

; 91   : 	
; 92   : 	ReleaseDC( lpDC );

  006bd	8b 55 f4	 mov	 edx, DWORD PTR _lpDC$[ebp]
  006c0	52		 push	 edx
  006c1	8b 4d f8	 mov	 ecx, DWORD PTR _this$[ebp]
  006c4	e8 00 00 00 00	 call	 ?ReleaseDC@CWnd@@QAEHPAVCDC@@@Z ; CWnd::ReleaseDC

; 93   : 
; 94   : 	SetMargins(4,0);

  006c9	6a 00		 push	 0
  006cb	6a 04		 push	 4
  006cd	8b 4d f8	 mov	 ecx, DWORD PTR _this$[ebp]
  006d0	e8 00 00 00 00	 call	 ?SetMargins@CEdit@@QAEXII@Z ; CEdit::SetMargins

; 95   : 
; 96   : 	return 0;

  006d5	33 c0		 xor	 eax, eax
$L187182:

; 97   : }

  006d7	52		 push	 edx
  006d8	8b cd		 mov	 ecx, ebp
  006da	50		 push	 eax
  006db	8d 15 00 00 00
	00		 lea	 edx, DWORD PTR $L187828
  006e1	e8 00 00 00 00	 call	 @_RTC_CheckStackVars@8
  006e6	58		 pop	 eax
  006e7	5a		 pop	 edx
  006e8	8b 4d fc	 mov	 ecx, DWORD PTR __$ArrayPad$[ebp]
  006eb	e8 00 00 00 00	 call	 @__security_check_cookie@4
  006f0	5f		 pop	 edi
  006f1	5e		 pop	 esi
  006f2	83 c4 50	 add	 esp, 80			; 00000050H
  006f5	3b ec		 cmp	 ebp, esp
  006f7	e8 00 00 00 00	 call	 __RTC_CheckEsp
  006fc	8b e5		 mov	 esp, ebp
  006fe	5d		 pop	 ebp
  006ff	c2 04 00	 ret	 4
$L187828:
  00702	01 00 00 00	 DD	 1
  00706	00 00 00 00	 DD	 $L187827
$L187827:
  0070a	b4 ff ff ff	 DD	 -76			; ffffffb4H
  0070e	3c 00 00 00	 DD	 60			; 0000003cH
  00712	00 00 00 00	 DD	 $L187825
$L187825:
  00716	6c		 DB	 108			; 0000006cH
  00717	66		 DB	 102			; 00000066H
  00718	00		 DB	 0
?OnCreate@CEditGlow@@QAEHPAUtagCREATESTRUCTA@@@Z ENDP	; CEditGlow::OnCreate
_TEXT	ENDS
PUBLIC	?EraseParentBK@CEditGlow@@AAEXXZ		; CEditGlow::EraseParentBK
; Function compile flags: /Odt /RTCsu
_TEXT	SEGMENT
_this$ = -4						; size = 4
_wParam$ = 8						; size = 4
_lParam$ = 12						; size = 4
?OnMouseHover@CEditGlow@@QAEJIJ@Z PROC NEAR		; CEditGlow::OnMouseHover
; _this$ = ecx

; 100  : { 	

  00720	55		 push	 ebp
  00721	8b ec		 mov	 ebp, esp
  00723	51		 push	 ecx
  00724	c7 45 fc cc cc
	cc cc		 mov	 DWORD PTR [ebp-4], -858993460 ; ccccccccH
  0072b	89 4d fc	 mov	 DWORD PTR _this$[ebp], ecx

; 101  : 	m_bMouseOn = TRUE;

  0072e	8b 45 fc	 mov	 eax, DWORD PTR _this$[ebp]
  00731	c7 40 64 01 00
	00 00		 mov	 DWORD PTR [eax+100], 1

; 102  : 	EraseParentBK();

  00738	8b 4d fc	 mov	 ecx, DWORD PTR _this$[ebp]
  0073b	e8 00 00 00 00	 call	 ?EraseParentBK@CEditGlow@@AAEXXZ ; CEditGlow::EraseParentBK

; 103  : 	return 1;

  00740	b8 01 00 00 00	 mov	 eax, 1

; 104  : } 

  00745	83 c4 04	 add	 esp, 4
  00748	3b ec		 cmp	 ebp, esp
  0074a	e8 00 00 00 00	 call	 __RTC_CheckEsp
  0074f	8b e5		 mov	 esp, ebp
  00751	5d		 pop	 ebp
  00752	c2 08 00	 ret	 8
?OnMouseHover@CEditGlow@@QAEJIJ@Z ENDP			; CEditGlow::OnMouseHover
; Function compile flags: /Odt /RTCsu
_this$ = -4						; size = 4
_wParam$ = 8						; size = 4
_lParam$ = 12						; size = 4
?OnMouseLeave@CEditGlow@@QAEJIJ@Z PROC NEAR		; CEditGlow::OnMouseLeave
; _this$ = ecx

; 106  : { 	

  00760	55		 push	 ebp
  00761	8b ec		 mov	 ebp, esp
  00763	51		 push	 ecx
  00764	c7 45 fc cc cc
	cc cc		 mov	 DWORD PTR [ebp-4], -858993460 ; ccccccccH
  0076b	89 4d fc	 mov	 DWORD PTR _this$[ebp], ecx

; 107  : 	m_bMouseOn = FALSE;

  0076e	8b 45 fc	 mov	 eax, DWORD PTR _this$[ebp]
  00771	c7 40 64 00 00
	00 00		 mov	 DWORD PTR [eax+100], 0

; 108  : 	EraseParentBK();

  00778	8b 4d fc	 mov	 ecx, DWORD PTR _this$[ebp]
  0077b	e8 00 00 00 00	 call	 ?EraseParentBK@CEditGlow@@AAEXXZ ; CEditGlow::EraseParentBK

; 109  : 	return 1; 

  00780	b8 01 00 00 00	 mov	 eax, 1

; 110  : }

  00785	83 c4 04	 add	 esp, 4
  00788	3b ec		 cmp	 ebp, esp
  0078a	e8 00 00 00 00	 call	 __RTC_CheckEsp
  0078f	8b e5		 mov	 esp, ebp
  00791	5d		 pop	 ebp
  00792	c2 08 00	 ret	 8
?OnMouseLeave@CEditGlow@@QAEJIJ@Z ENDP			; CEditGlow::OnMouseLeave
_TEXT	ENDS
EXTRN	?OnMouseMove@CWnd@@IAEXIVCPoint@@@Z:NEAR	; CWnd::OnMouseMove
EXTRN	__imp___TrackMouseEvent@4:NEAR
; Function compile flags: /Odt /RTCsu
_TEXT	SEGMENT
_tme$187202 = -24					; size = 16
_this$ = -4						; size = 4
_nFlags$ = 8						; size = 4
_point$ = 12						; size = 8
?OnMouseMove@CEditGlow@@QAEXIVCPoint@@@Z PROC NEAR	; CEditGlow::OnMouseMove
; _this$ = ecx

; 113  : {

  007a0	55		 push	 ebp
  007a1	8b ec		 mov	 ebp, esp
  007a3	83 ec 1c	 sub	 esp, 28			; 0000001cH
  007a6	56		 push	 esi
  007a7	b8 cc cc cc cc	 mov	 eax, -858993460		; ccccccccH
  007ac	89 45 e4	 mov	 DWORD PTR [ebp-28], eax
  007af	89 45 e8	 mov	 DWORD PTR [ebp-24], eax
  007b2	89 45 ec	 mov	 DWORD PTR [ebp-20], eax
  007b5	89 45 f0	 mov	 DWORD PTR [ebp-16], eax
  007b8	89 45 f4	 mov	 DWORD PTR [ebp-12], eax
  007bb	89 45 f8	 mov	 DWORD PTR [ebp-8], eax
  007be	89 45 fc	 mov	 DWORD PTR [ebp-4], eax
  007c1	89 4d fc	 mov	 DWORD PTR _this$[ebp], ecx

; 114  : 	// TODO: Add your message handler code here and/or call default
; 115  : 	if   (!m_bMouseOn) 

  007c4	8b 45 fc	 mov	 eax, DWORD PTR _this$[ebp]
  007c7	83 78 64 00	 cmp	 DWORD PTR [eax+100], 0
  007cb	75 3f		 jne	 SHORT $L187201

; 116  : 	{ 
; 117  : 		TRACKMOUSEEVENT   tme;
; 118  : 		tme.cbSize   =   sizeof(tme); 

  007cd	c7 45 e8 10 00
	00 00		 mov	 DWORD PTR _tme$187202[ebp], 16 ; 00000010H

; 119  : 		tme.hwndTrack   =   m_hWnd; 

  007d4	8b 4d fc	 mov	 ecx, DWORD PTR _this$[ebp]
  007d7	8b 51 20	 mov	 edx, DWORD PTR [ecx+32]
  007da	89 55 f0	 mov	 DWORD PTR _tme$187202[ebp+8], edx

; 120  : 		tme.dwFlags   =   TME_LEAVE   |   TME_HOVER; 

  007dd	c7 45 ec 03 00
	00 00		 mov	 DWORD PTR _tme$187202[ebp+4], 3

; 121  : 		tme.dwHoverTime   =   1; 

  007e4	c7 45 f4 01 00
	00 00		 mov	 DWORD PTR _tme$187202[ebp+12], 1

; 122  : 		m_bMouseOn   =   _TrackMouseEvent(&tme); 

  007eb	8b f4		 mov	 esi, esp
  007ed	8d 45 e8	 lea	 eax, DWORD PTR _tme$187202[ebp]
  007f0	50		 push	 eax
  007f1	ff 15 00 00 00
	00		 call	 DWORD PTR __imp___TrackMouseEvent@4
  007f7	3b f4		 cmp	 esi, esp
  007f9	e8 00 00 00 00	 call	 __RTC_CheckEsp
  007fe	8b 4d fc	 mov	 ecx, DWORD PTR _this$[ebp]
  00801	89 41 64	 mov	 DWORD PTR [ecx+100], eax

; 123  : 		EraseParentBK();

  00804	8b 4d fc	 mov	 ecx, DWORD PTR _this$[ebp]
  00807	e8 00 00 00 00	 call	 ?EraseParentBK@CEditGlow@@AAEXXZ ; CEditGlow::EraseParentBK
$L187201:

; 124  : 	} 
; 125  : 
; 126  : 	CEdit::OnMouseMove(nFlags, point);

  0080c	8b 55 10	 mov	 edx, DWORD PTR _point$[ebp+4]
  0080f	52		 push	 edx
  00810	8b 45 0c	 mov	 eax, DWORD PTR _point$[ebp]
  00813	50		 push	 eax
  00814	8b 4d 08	 mov	 ecx, DWORD PTR _nFlags$[ebp]
  00817	51		 push	 ecx
  00818	8b 4d fc	 mov	 ecx, DWORD PTR _this$[ebp]
  0081b	e8 00 00 00 00	 call	 ?OnMouseMove@CWnd@@IAEXIVCPoint@@@Z ; CWnd::OnMouseMove

; 127  : }

  00820	52		 push	 edx
  00821	8b cd		 mov	 ecx, ebp
  00823	50		 push	 eax
  00824	8d 15 00 00 00
	00		 lea	 edx, DWORD PTR $L187834
  0082a	e8 00 00 00 00	 call	 @_RTC_CheckStackVars@8
  0082f	58		 pop	 eax
  00830	5a		 pop	 edx
  00831	5e		 pop	 esi
  00832	83 c4 1c	 add	 esp, 28			; 0000001cH
  00835	3b ec		 cmp	 ebp, esp
  00837	e8 00 00 00 00	 call	 __RTC_CheckEsp
  0083c	8b e5		 mov	 esp, ebp
  0083e	5d		 pop	 ebp
  0083f	c2 0c 00	 ret	 12			; 0000000cH
$L187834:
  00842	01 00 00 00	 DD	 1
  00846	00 00 00 00	 DD	 $L187833
$L187833:
  0084a	e8 ff ff ff	 DD	 -24			; ffffffe8H
  0084e	10 00 00 00	 DD	 16			; 00000010H
  00852	00 00 00 00	 DD	 $L187832
$L187832:
  00856	74		 DB	 116			; 00000074H
  00857	6d		 DB	 109			; 0000006dH
  00858	65		 DB	 101			; 00000065H
  00859	00		 DB	 0
?OnMouseMove@CEditGlow@@QAEXIVCPoint@@@Z ENDP		; CEditGlow::OnMouseMove
_TEXT	ENDS
EXTRN	??BCBrush@@QBEPAUHBRUSH__@@XZ:NEAR		; CBrush::operator HBRUSH__ *
; Function compile flags: /Odt /RTCsu
_TEXT	SEGMENT
_this$ = -4						; size = 4
_pDC$ = 8						; size = 4
_nCtlColor$ = 12					; size = 4
?CtlColor@CEditGlow@@QAEPAUHBRUSH__@@PAVCDC@@I@Z PROC NEAR ; CEditGlow::CtlColor
; _this$ = ecx

; 131  : {

  00860	55		 push	 ebp
  00861	8b ec		 mov	 ebp, esp
  00863	51		 push	 ecx
  00864	56		 push	 esi
  00865	c7 45 fc cc cc
	cc cc		 mov	 DWORD PTR [ebp-4], -858993460 ; ccccccccH
  0086c	89 4d fc	 mov	 DWORD PTR _this$[ebp], ecx

; 132  : 
; 133  : 
; 134  : 	// TODO: Return a non-NULL brush if the parent's handler should not be called
; 135  : 
; 136  : 	//set text color
; 137  : 	pDC->SetTextColor( m_colText );

  0086f	8b f4		 mov	 esi, esp
  00871	8b 45 fc	 mov	 eax, DWORD PTR _this$[ebp]
  00874	8b 48 70	 mov	 ecx, DWORD PTR [eax+112]
  00877	51		 push	 ecx
  00878	8b 55 08	 mov	 edx, DWORD PTR _pDC$[ebp]
  0087b	8b 02		 mov	 eax, DWORD PTR [edx]
  0087d	8b 4d 08	 mov	 ecx, DWORD PTR _pDC$[ebp]
  00880	ff 50 38	 call	 DWORD PTR [eax+56]
  00883	3b f4		 cmp	 esi, esp
  00885	e8 00 00 00 00	 call	 __RTC_CheckEsp

; 138  : 	//set the text's background color
; 139  : 	pDC->SetBkColor( m_colBk );

  0088a	8b f4		 mov	 esi, esp
  0088c	8b 4d fc	 mov	 ecx, DWORD PTR _this$[ebp]
  0088f	8b 51 74	 mov	 edx, DWORD PTR [ecx+116]
  00892	52		 push	 edx
  00893	8b 45 08	 mov	 eax, DWORD PTR _pDC$[ebp]
  00896	8b 10		 mov	 edx, DWORD PTR [eax]
  00898	8b 4d 08	 mov	 ecx, DWORD PTR _pDC$[ebp]
  0089b	ff 52 34	 call	 DWORD PTR [edx+52]
  0089e	3b f4		 cmp	 esi, esp
  008a0	e8 00 00 00 00	 call	 __RTC_CheckEsp

; 140  : 
; 141  : 	//return the brush used for background this sets control background
; 142  : 	return m_hBrush;

  008a5	8b 4d fc	 mov	 ecx, DWORD PTR _this$[ebp]
  008a8	83 c1 68	 add	 ecx, 104		; 00000068H
  008ab	e8 00 00 00 00	 call	 ??BCBrush@@QBEPAUHBRUSH__@@XZ ; CBrush::operator HBRUSH__ *

; 143  : }

  008b0	5e		 pop	 esi
  008b1	83 c4 04	 add	 esp, 4
  008b4	3b ec		 cmp	 ebp, esp
  008b6	e8 00 00 00 00	 call	 __RTC_CheckEsp
  008bb	8b e5		 mov	 esp, ebp
  008bd	5d		 pop	 ebp
  008be	c2 08 00	 ret	 8
?CtlColor@CEditGlow@@QAEPAUHBRUSH__@@PAVCDC@@I@Z ENDP	; CEditGlow::CtlColor
_TEXT	ENDS
EXTRN	?OnPaint@CWnd@@IAEXXZ:NEAR			; CWnd::OnPaint
; Function compile flags: /Odt /RTCsu
_TEXT	SEGMENT
_this$ = -4						; size = 4
?OnPaint@CEditGlow@@QAEXXZ PROC NEAR			; CEditGlow::OnPaint
; _this$ = ecx

; 147  : {

  008d0	55		 push	 ebp
  008d1	8b ec		 mov	 ebp, esp
  008d3	51		 push	 ecx
  008d4	c7 45 fc cc cc
	cc cc		 mov	 DWORD PTR [ebp-4], -858993460 ; ccccccccH
  008db	89 4d fc	 mov	 DWORD PTR _this$[ebp], ecx

; 148  : 	CEdit::OnPaint();

  008de	8b 4d fc	 mov	 ecx, DWORD PTR _this$[ebp]
  008e1	e8 00 00 00 00	 call	 ?OnPaint@CWnd@@IAEXXZ	; CWnd::OnPaint

; 149  : }

  008e6	83 c4 04	 add	 esp, 4
  008e9	3b ec		 cmp	 ebp, esp
  008eb	e8 00 00 00 00	 call	 __RTC_CheckEsp
  008f0	8b e5		 mov	 esp, ebp
  008f2	5d		 pop	 ebp
  008f3	c3		 ret	 0
?OnPaint@CEditGlow@@QAEXXZ ENDP				; CEditGlow::OnPaint
_TEXT	ENDS
PUBLIC	??0Graphics@Gdiplus@@QAE@PAUHDC__@@@Z		; Gdiplus::Graphics::Graphics
PUBLIC	??1Graphics@Gdiplus@@QAE@XZ			; Gdiplus::Graphics::~Graphics
PUBLIC	?SetSmoothingMode@Graphics@Gdiplus@@QAE?AW4Status@2@W4SmoothingMode@2@@Z ; Gdiplus::Graphics::SetSmoothingMode
PUBLIC	??0Rect@Gdiplus@@QAE@HHHH@Z			; Gdiplus::Rect::Rect
PUBLIC	?ShowSearchEditFrame@CEditGlow@@QAEXPAVCDC@@_N@Z ; CEditGlow::ShowSearchEditFrame
PUBLIC	?DrawImage@Graphics@Gdiplus@@QAE?AW4Status@2@PAVImage@2@ABVRect@2@HHHHW4Unit@2@PBVImageAttributes@2@P6GHPAX@Z4@Z ; Gdiplus::Graphics::DrawImage
EXTRN	??0CRect@@QAE@XZ:NEAR				; CRect::CRect
EXTRN	??BCRect@@QAEPAUtagRECT@@XZ:NEAR		; CRect::operator tagRECT *
EXTRN	?GetWindowRect@CWnd@@QBEXPAUtagRECT@@@Z:NEAR	; CWnd::GetWindowRect
EXTRN	?ScreenToClient@CWnd@@QBEXPAUtagRECT@@@Z:NEAR	; CWnd::ScreenToClient
EXTRN	?GetParent@CWnd@@QBEPAV1@XZ:NEAR		; CWnd::GetParent
xdata$x	SEGMENT
$T187853 DD	0ffffffffH
	DD	FLAT:$L187843
$T187845 DD	019930520H
	DD	01H
	DD	FLAT:$T187853
	DD	2 DUP(00H)
	DD	2 DUP(00H)
; Function compile flags: /Odt /RTCsu
xdata$x	ENDS
_TEXT	SEGMENT
tv192 = -240						; size = 4
_rr$187228 = -104					; size = 16
_rr$187222 = -80					; size = 16
_graph$ = -56						; size = 8
_pWnd$ = -44						; size = 4
_rectEdit$ = -36					; size = 16
_this$ = -16						; size = 4
__$EHRec$ = -12						; size = 12
_pdc$ = 8						; size = 4
_bUse$ = 12						; size = 1
?ShowSearchEditFrame@CEditGlow@@QAEXPAVCDC@@_N@Z PROC NEAR ; CEditGlow::ShowSearchEditFrame
; _this$ = ecx

; 169  : {

  00900	55		 push	 ebp
  00901	8b ec		 mov	 ebp, esp
  00903	6a ff		 push	 -1
  00905	68 00 00 00 00	 push	 __ehhandler$?ShowSearchEditFrame@CEditGlow@@QAEXPAVCDC@@_N@Z
  0090a	64 a1 00 00 00
	00		 mov	 eax, DWORD PTR fs:__except_list
  00910	50		 push	 eax
  00911	64 89 25 00 00
	00 00		 mov	 DWORD PTR fs:__except_list, esp
  00918	81 ec e4 00 00
	00		 sub	 esp, 228		; 000000e4H
  0091e	56		 push	 esi
  0091f	57		 push	 edi
  00920	51		 push	 ecx
  00921	8d bd 10 ff ff
	ff		 lea	 edi, DWORD PTR [ebp-240]
  00927	b9 39 00 00 00	 mov	 ecx, 57			; 00000039H
  0092c	b8 cc cc cc cc	 mov	 eax, -858993460		; ccccccccH
  00931	f3 ab		 rep stosd
  00933	59		 pop	 ecx
  00934	89 4d f0	 mov	 DWORD PTR _this$[ebp], ecx

; 170  : 	CRect rectEdit;  // 

  00937	8d 4d dc	 lea	 ecx, DWORD PTR _rectEdit$[ebp]
  0093a	e8 00 00 00 00	 call	 ??0CRect@@QAE@XZ	; CRect::CRect

; 171  : 	CWnd *pWnd = GetParent();

  0093f	8b 4d f0	 mov	 ecx, DWORD PTR _this$[ebp]
  00942	e8 00 00 00 00	 call	 ?GetParent@CWnd@@QBEPAV1@XZ ; CWnd::GetParent
  00947	89 45 d4	 mov	 DWORD PTR _pWnd$[ebp], eax

; 172  : 	this->GetWindowRect(rectEdit);

  0094a	8d 4d dc	 lea	 ecx, DWORD PTR _rectEdit$[ebp]
  0094d	e8 00 00 00 00	 call	 ??BCRect@@QAEPAUtagRECT@@XZ ; CRect::operator tagRECT *
  00952	50		 push	 eax
  00953	8b 4d f0	 mov	 ecx, DWORD PTR _this$[ebp]
  00956	e8 00 00 00 00	 call	 ?GetWindowRect@CWnd@@QBEXPAUtagRECT@@@Z ; CWnd::GetWindowRect

; 173  : 	pWnd->ScreenToClient(&rectEdit);

  0095b	8d 45 dc	 lea	 eax, DWORD PTR _rectEdit$[ebp]
  0095e	50		 push	 eax
  0095f	8b 4d d4	 mov	 ecx, DWORD PTR _pWnd$[ebp]
  00962	e8 00 00 00 00	 call	 ?ScreenToClient@CWnd@@QBEXPAUtagRECT@@@Z ; CWnd::ScreenToClient

; 174  : 
; 175  : 	//CDC* pdc = pWnd->GetDC();
; 176  : 	Gdiplus::Graphics graph(pdc->m_hDC);

  00967	8b 4d 08	 mov	 ecx, DWORD PTR _pdc$[ebp]
  0096a	8b 51 04	 mov	 edx, DWORD PTR [ecx+4]
  0096d	52		 push	 edx
  0096e	8d 4d c8	 lea	 ecx, DWORD PTR _graph$[ebp]
  00971	e8 00 00 00 00	 call	 ??0Graphics@Gdiplus@@QAE@PAUHDC__@@@Z ; Gdiplus::Graphics::Graphics
  00976	c7 45 fc 00 00
	00 00		 mov	 DWORD PTR __$EHRec$[ebp+8], 0

; 177  : 	graph.SetSmoothingMode(Gdiplus::SmoothingModeNone);

  0097d	6a 03		 push	 3
  0097f	8d 4d c8	 lea	 ecx, DWORD PTR _graph$[ebp]
  00982	e8 00 00 00 00	 call	 ?SetSmoothingMode@Graphics@Gdiplus@@QAE?AW4Status@2@W4SmoothingMode@2@@Z ; Gdiplus::Graphics::SetSmoothingMode

; 178  : 
; 179  : 	if(m_pImgBorder && m_pImgBorderGlow)

  00987	8b 45 f0	 mov	 eax, DWORD PTR _this$[ebp]
  0098a	83 b8 84 00 00
	00 00		 cmp	 DWORD PTR [eax+132], 0
  00991	0f 84 0f 01 00
	00		 je	 $L187219
  00997	8b 4d f0	 mov	 ecx, DWORD PTR _this$[ebp]
  0099a	83 b9 88 00 00
	00 00		 cmp	 DWORD PTR [ecx+136], 0
  009a1	0f 84 ff 00 00
	00		 je	 $L187219

; 180  : 	{
; 181  : 		if(m_bMouseOn || m_bFocus)

  009a7	8b 55 f0	 mov	 edx, DWORD PTR _this$[ebp]
  009aa	83 7a 64 00	 cmp	 DWORD PTR [edx+100], 0
  009ae	75 0c		 jne	 SHORT $L187221
  009b0	8b 45 f0	 mov	 eax, DWORD PTR _this$[ebp]
  009b3	83 b8 80 00 00
	00 00		 cmp	 DWORD PTR [eax+128], 0
  009ba	74 76		 je	 SHORT $L187220
$L187221:

; 182  : 		{
; 183  : 			Rect rr(rectEdit.left-2 , rectEdit.top-2 , m_pImgBorderGlow->GetWidth(), m_pImgBorderGlow->GetHeight());

  009bc	8b 4d f0	 mov	 ecx, DWORD PTR _this$[ebp]
  009bf	8b 89 88 00 00
	00		 mov	 ecx, DWORD PTR [ecx+136]
  009c5	e8 00 00 00 00	 call	 ?GetHeight@Image@Gdiplus@@QAEIXZ ; Gdiplus::Image::GetHeight
  009ca	50		 push	 eax
  009cb	8b 55 f0	 mov	 edx, DWORD PTR _this$[ebp]
  009ce	8b 8a 88 00 00
	00		 mov	 ecx, DWORD PTR [edx+136]
  009d4	e8 00 00 00 00	 call	 ?GetWidth@Image@Gdiplus@@QAEIXZ ; Gdiplus::Image::GetWidth
  009d9	50		 push	 eax
  009da	8b 45 e0	 mov	 eax, DWORD PTR _rectEdit$[ebp+4]
  009dd	83 e8 02	 sub	 eax, 2
  009e0	50		 push	 eax
  009e1	8b 4d dc	 mov	 ecx, DWORD PTR _rectEdit$[ebp]
  009e4	83 e9 02	 sub	 ecx, 2
  009e7	51		 push	 ecx
  009e8	8d 4d b0	 lea	 ecx, DWORD PTR _rr$187222[ebp]
  009eb	e8 00 00 00 00	 call	 ??0Rect@Gdiplus@@QAE@HHHH@Z ; Gdiplus::Rect::Rect

; 184  : 
; 185  : 			graph.DrawImage(m_pImgBorderGlow,
; 186  : 				rr,
; 187  : 				(int)0, 
; 188  : 				(int)0,
; 189  : 				(int)m_pImgBorderGlow->GetWidth(), 
; 190  : 				(int)m_pImgBorderGlow->GetHeight(),
; 191  : 				UnitPixel );

  009f0	6a 00		 push	 0
  009f2	6a 00		 push	 0
  009f4	6a 00		 push	 0
  009f6	6a 02		 push	 2
  009f8	8b 55 f0	 mov	 edx, DWORD PTR _this$[ebp]
  009fb	8b 8a 88 00 00
	00		 mov	 ecx, DWORD PTR [edx+136]
  00a01	e8 00 00 00 00	 call	 ?GetHeight@Image@Gdiplus@@QAEIXZ ; Gdiplus::Image::GetHeight
  00a06	50		 push	 eax
  00a07	8b 45 f0	 mov	 eax, DWORD PTR _this$[ebp]
  00a0a	8b 88 88 00 00
	00		 mov	 ecx, DWORD PTR [eax+136]
  00a10	e8 00 00 00 00	 call	 ?GetWidth@Image@Gdiplus@@QAEIXZ ; Gdiplus::Image::GetWidth
  00a15	50		 push	 eax
  00a16	6a 00		 push	 0
  00a18	6a 00		 push	 0
  00a1a	8d 4d b0	 lea	 ecx, DWORD PTR _rr$187222[ebp]
  00a1d	51		 push	 ecx
  00a1e	8b 55 f0	 mov	 edx, DWORD PTR _this$[ebp]
  00a21	8b 82 88 00 00
	00		 mov	 eax, DWORD PTR [edx+136]
  00a27	50		 push	 eax
  00a28	8d 4d c8	 lea	 ecx, DWORD PTR _graph$[ebp]
  00a2b	e8 00 00 00 00	 call	 ?DrawImage@Graphics@Gdiplus@@QAE?AW4Status@2@PAVImage@2@ABVRect@2@HHHHW4Unit@2@PBVImageAttributes@2@P6GHPAX@Z4@Z ; Gdiplus::Graphics::DrawImage

; 192  : 		}
; 193  : 		else

  00a30	eb 74		 jmp	 SHORT $L187219
$L187220:

; 194  : 		{
; 195  : 			Rect rr(rectEdit.left-2 , rectEdit.top-2 , m_pImgBorder->GetWidth(), m_pImgBorder->GetHeight());

  00a32	8b 4d f0	 mov	 ecx, DWORD PTR _this$[ebp]
  00a35	8b 89 84 00 00
	00		 mov	 ecx, DWORD PTR [ecx+132]
  00a3b	e8 00 00 00 00	 call	 ?GetHeight@Image@Gdiplus@@QAEIXZ ; Gdiplus::Image::GetHeight
  00a40	50		 push	 eax
  00a41	8b 55 f0	 mov	 edx, DWORD PTR _this$[ebp]
  00a44	8b 8a 84 00 00
	00		 mov	 ecx, DWORD PTR [edx+132]
  00a4a	e8 00 00 00 00	 call	 ?GetWidth@Image@Gdiplus@@QAEIXZ ; Gdiplus::Image::GetWidth
  00a4f	50		 push	 eax
  00a50	8b 45 e0	 mov	 eax, DWORD PTR _rectEdit$[ebp+4]
  00a53	83 e8 02	 sub	 eax, 2
  00a56	50		 push	 eax
  00a57	8b 4d dc	 mov	 ecx, DWORD PTR _rectEdit$[ebp]
  00a5a	83 e9 02	 sub	 ecx, 2
  00a5d	51		 push	 ecx
  00a5e	8d 4d 98	 lea	 ecx, DWORD PTR _rr$187228[ebp]
  00a61	e8 00 00 00 00	 call	 ??0Rect@Gdiplus@@QAE@HHHH@Z ; Gdiplus::Rect::Rect

; 196  : 
; 197  : 			graph.DrawImage(m_pImgBorder,
; 198  : 				rr,
; 199  : 				(int)0, 
; 200  : 				(int)0,
; 201  : 				(int)m_pImgBorder->GetWidth(), 
; 202  : 				(int)m_pImgBorder->GetHeight(),
; 203  : 				UnitPixel );

  00a66	6a 00		 push	 0
  00a68	6a 00		 push	 0
  00a6a	6a 00		 push	 0
  00a6c	6a 02		 push	 2
  00a6e	8b 55 f0	 mov	 edx, DWORD PTR _this$[ebp]
  00a71	8b 8a 84 00 00
	00		 mov	 ecx, DWORD PTR [edx+132]
  00a77	e8 00 00 00 00	 call	 ?GetHeight@Image@Gdiplus@@QAEIXZ ; Gdiplus::Image::GetHeight
  00a7c	50		 push	 eax
  00a7d	8b 45 f0	 mov	 eax, DWORD PTR _this$[ebp]
  00a80	8b 88 84 00 00
	00		 mov	 ecx, DWORD PTR [eax+132]
  00a86	e8 00 00 00 00	 call	 ?GetWidth@Image@Gdiplus@@QAEIXZ ; Gdiplus::Image::GetWidth
  00a8b	50		 push	 eax
  00a8c	6a 00		 push	 0
  00a8e	6a 00		 push	 0
  00a90	8d 4d 98	 lea	 ecx, DWORD PTR _rr$187228[ebp]
  00a93	51		 push	 ecx
  00a94	8b 55 f0	 mov	 edx, DWORD PTR _this$[ebp]
  00a97	8b 82 84 00 00
	00		 mov	 eax, DWORD PTR [edx+132]
  00a9d	50		 push	 eax
  00a9e	8d 4d c8	 lea	 ecx, DWORD PTR _graph$[ebp]
  00aa1	e8 00 00 00 00	 call	 ?DrawImage@Graphics@Gdiplus@@QAE?AW4Status@2@PAVImage@2@ABVRect@2@HHHHW4Unit@2@PBVImageAttributes@2@P6GHPAX@Z4@Z ; Gdiplus::Graphics::DrawImage
$L187219:

; 204  : 
; 205  : 		}
; 206  : 
; 207  : 	} 
; 208  : 
; 209  : 	return;

  00aa6	c7 45 fc ff ff
	ff ff		 mov	 DWORD PTR __$EHRec$[ebp+8], -1
  00aad	8d 4d c8	 lea	 ecx, DWORD PTR _graph$[ebp]
  00ab0	e8 00 00 00 00	 call	 ??1Graphics@Gdiplus@@QAE@XZ ; Gdiplus::Graphics::~Graphics

; 210  : 
; 211  : 
; 212  : 
; 213  : 
; 214  : 	ISkinMgr*	pSkinMgr = AfxGetUIManager()->UIGetSkinMgr();
; 215  : 
; 216  : 	CDibBitmap*	m_bmpEditLeft = pSkinMgr->GetDibBmp("LoginEditLeftBorder");
; 217  : 	CDibBitmap*	m_bmpEditTop = pSkinMgr->GetDibBmp("LoginEditTopBorder");
; 218  : 	CDibBitmap*	m_bmpEditRight = pSkinMgr->GetDibBmp("LoginEditRightBorder");
; 219  : 	CDibBitmap*	m_bmpEditBottom = pSkinMgr->GetDibBmp("LoginEditBottomBorder");
; 220  : 
; 221  : 	CDibBitmap*	m_bmpEditLiftGray = pSkinMgr->GetDibBmp("AuthorListPanelSearchLeftGray");
; 222  : 	CDibBitmap*	m_bmpEditCenterGray = pSkinMgr->GetDibBmp("AuthorListPanelSearchCenterGray");
; 223  : 	CDibBitmap*	m_bmpEditRightGray = pSkinMgr->GetDibBmp("AuthorListPanelSearchRightGray");
; 224  : 
; 225  : 
; 226  : 
; 227  : 	int nTop = rectEdit.top - m_bmpEditTop->GetHeight();
; 228  : 	int nLeft = rectEdit.left-m_bmpEditLeft->GetWidth();
; 229  : 
; 230  : 	if( bUse )
; 231  : 	{
; 232  : 		CDC* pdc = pWnd->GetDC();
; 233  : 
; 234  : 		m_bmpEditLeft->SetCDibRect(  CRect(nLeft,nTop, nLeft+m_bmpEditLeft->GetWidth(), nTop+m_bmpEditLeft->GetHeight()) );
; 235  : 		m_bmpEditLeft->Draw( pdc, FALSE );
; 236  : 
; 237  : 		m_bmpEditRight->SetCDibRect( CRect(rectEdit.right,nTop, rectEdit.right+m_bmpEditRight->GetWidth(), nTop+m_bmpEditRight->GetHeight()) );
; 238  : 		m_bmpEditRight->Draw( pdc, FALSE );
; 239  : 
; 240  : 		m_bmpEditTop->SetCDibRect( CRect(rectEdit.left,nTop, rectEdit.left+rectEdit.Width(), nTop+m_bmpEditTop->GetHeight()) );
; 241  : 		m_bmpEditTop->Draw( pdc, FALSE );
; 242  : 
; 243  : 		ReleaseDC(pdc);
; 244  : 	}
; 245  : 	else
; 246  : 	{
; 247  : 		CDC* pdc = pWnd->GetDC();
; 248  : 
; 249  : 		m_bmpEditLiftGray->SetCDibRect(  CRect(nLeft,nTop, nLeft+m_bmpEditLiftGray->GetWidth(), nTop+m_bmpEditLiftGray->GetHeight()) );
; 250  : 		m_bmpEditLiftGray->Draw( pdc, FALSE );
; 251  : 
; 252  : 		m_bmpEditRightGray->SetCDibRect( CRect(rectEdit.right,nTop, rectEdit.right+m_bmpEditRightGray->GetWidth(), nTop+m_bmpEditRightGray->GetHeight()) );
; 253  : 		m_bmpEditRightGray->Draw( pdc, FALSE );
; 254  : 
; 255  : 		//m_bmpEditCenterGray->SetCDibRect( CRect(rectEdit.left,nTop, rectEdit.left+rectEdit.Width(), nTop+m_bmpEditCenter->GetHeight()) );
; 256  : 		//m_bmpEditCenter->Draw( pdc, FALSE );
; 257  : 
; 258  : 		ReleaseDC(pdc);
; 259  : 	}
; 260  : }

  00ab5	52		 push	 edx
  00ab6	8b cd		 mov	 ecx, ebp
  00ab8	50		 push	 eax
  00ab9	8d 15 00 00 00
	00		 lea	 edx, DWORD PTR $L187852
  00abf	e8 00 00 00 00	 call	 @_RTC_CheckStackVars@8
  00ac4	58		 pop	 eax
  00ac5	5a		 pop	 edx
  00ac6	8b 4d f4	 mov	 ecx, DWORD PTR __$EHRec$[ebp]
  00ac9	64 89 0d 00 00
	00 00		 mov	 DWORD PTR fs:__except_list, ecx
  00ad0	5f		 pop	 edi
  00ad1	5e		 pop	 esi
  00ad2	81 c4 f0 00 00
	00		 add	 esp, 240		; 000000f0H
  00ad8	3b ec		 cmp	 ebp, esp
  00ada	e8 00 00 00 00	 call	 __RTC_CheckEsp
  00adf	8b e5		 mov	 esp, ebp
  00ae1	5d		 pop	 ebp
  00ae2	c2 08 00	 ret	 8
$L187852:
  00ae5	04 00 00 00	 DD	 4
  00ae9	00 00 00 00	 DD	 $L187851
$L187851:
  00aed	dc ff ff ff	 DD	 -36			; ffffffdcH
  00af1	10 00 00 00	 DD	 16			; 00000010H
  00af5	00 00 00 00	 DD	 $L187846
  00af9	c8 ff ff ff	 DD	 -56			; ffffffc8H
  00afd	08 00 00 00	 DD	 8
  00b01	00 00 00 00	 DD	 $L187847
  00b05	b0 ff ff ff	 DD	 -80			; ffffffb0H
  00b09	10 00 00 00	 DD	 16			; 00000010H
  00b0d	00 00 00 00	 DD	 $L187848
  00b11	98 ff ff ff	 DD	 -104			; ffffff98H
  00b15	10 00 00 00	 DD	 16			; 00000010H
  00b19	00 00 00 00	 DD	 $L187849
$L187849:
  00b1d	72		 DB	 114			; 00000072H
  00b1e	72		 DB	 114			; 00000072H
  00b1f	00		 DB	 0
$L187848:
  00b20	72		 DB	 114			; 00000072H
  00b21	72		 DB	 114			; 00000072H
  00b22	00		 DB	 0
$L187847:
  00b23	67		 DB	 103			; 00000067H
  00b24	72		 DB	 114			; 00000072H
  00b25	61		 DB	 97			; 00000061H
  00b26	70		 DB	 112			; 00000070H
  00b27	68		 DB	 104			; 00000068H
  00b28	00		 DB	 0
$L187846:
  00b29	72		 DB	 114			; 00000072H
  00b2a	65		 DB	 101			; 00000065H
  00b2b	63		 DB	 99			; 00000063H
  00b2c	74		 DB	 116			; 00000074H
  00b2d	45		 DB	 69			; 00000045H
  00b2e	64		 DB	 100			; 00000064H
  00b2f	69		 DB	 105			; 00000069H
  00b30	74		 DB	 116			; 00000074H
  00b31	00		 DB	 0
_TEXT	ENDS
text$x	SEGMENT
$L187843:
  000cf	8d 4d c8	 lea	 ecx, DWORD PTR _graph$[ebp]
  000d2	e9 00 00 00 00	 jmp	 ??1Graphics@Gdiplus@@QAE@XZ ; Gdiplus::Graphics::~Graphics
__ehhandler$?ShowSearchEditFrame@CEditGlow@@QAEXPAVCDC@@_N@Z:
  000d7	b8 00 00 00 00	 mov	 eax, OFFSET FLAT:$T187845
  000dc	e9 00 00 00 00	 jmp	 ___CxxFrameHandler
text$x	ENDS
?ShowSearchEditFrame@CEditGlow@@QAEXPAVCDC@@_N@Z ENDP	; CEditGlow::ShowSearchEditFrame
EXTRN	?InflateRect@CRect@@QAEXHHHH@Z:NEAR		; CRect::InflateRect
EXTRN	?InvalidateRect@CWnd@@QAEXPBUtagRECT@@H@Z:NEAR	; CWnd::InvalidateRect
; Function compile flags: /Odt /RTCsu
_TEXT	SEGMENT
_Rect$ = -24						; size = 16
_this$ = -4						; size = 4
?EraseParentBK@CEditGlow@@AAEXXZ PROC NEAR		; CEditGlow::EraseParentBK
; _this$ = ecx

; 263  : {

  00b40	55		 push	 ebp
  00b41	8b ec		 mov	 ebp, esp
  00b43	83 ec 1c	 sub	 esp, 28			; 0000001cH
  00b46	b8 cc cc cc cc	 mov	 eax, -858993460		; ccccccccH
  00b4b	89 45 e4	 mov	 DWORD PTR [ebp-28], eax
  00b4e	89 45 e8	 mov	 DWORD PTR [ebp-24], eax
  00b51	89 45 ec	 mov	 DWORD PTR [ebp-20], eax
  00b54	89 45 f0	 mov	 DWORD PTR [ebp-16], eax
  00b57	89 45 f4	 mov	 DWORD PTR [ebp-12], eax
  00b5a	89 45 f8	 mov	 DWORD PTR [ebp-8], eax
  00b5d	89 45 fc	 mov	 DWORD PTR [ebp-4], eax
  00b60	89 4d fc	 mov	 DWORD PTR _this$[ebp], ecx

; 264  : 	CRect Rect;

  00b63	8d 4d e8	 lea	 ecx, DWORD PTR _Rect$[ebp]
  00b66	e8 00 00 00 00	 call	 ??0CRect@@QAE@XZ	; CRect::CRect

; 265  : 	GetWindowRect(&Rect);

  00b6b	8d 45 e8	 lea	 eax, DWORD PTR _Rect$[ebp]
  00b6e	50		 push	 eax
  00b6f	8b 4d fc	 mov	 ecx, DWORD PTR _this$[ebp]
  00b72	e8 00 00 00 00	 call	 ?GetWindowRect@CWnd@@QBEXPAUtagRECT@@@Z ; CWnd::GetWindowRect

; 266  : 	GetParent()->ScreenToClient(&Rect);

  00b77	8d 4d e8	 lea	 ecx, DWORD PTR _Rect$[ebp]
  00b7a	51		 push	 ecx
  00b7b	8b 4d fc	 mov	 ecx, DWORD PTR _this$[ebp]
  00b7e	e8 00 00 00 00	 call	 ?GetParent@CWnd@@QBEPAV1@XZ ; CWnd::GetParent
  00b83	8b c8		 mov	 ecx, eax
  00b85	e8 00 00 00 00	 call	 ?ScreenToClient@CWnd@@QBEXPAUtagRECT@@@Z ; CWnd::ScreenToClient

; 267  : 	Rect.InflateRect(6,6,6,6);

  00b8a	6a 06		 push	 6
  00b8c	6a 06		 push	 6
  00b8e	6a 06		 push	 6
  00b90	6a 06		 push	 6
  00b92	8d 4d e8	 lea	 ecx, DWORD PTR _Rect$[ebp]
  00b95	e8 00 00 00 00	 call	 ?InflateRect@CRect@@QAEXHHHH@Z ; CRect::InflateRect

; 268  : 	GetParent()->InvalidateRect(&Rect);

  00b9a	6a 01		 push	 1
  00b9c	8d 55 e8	 lea	 edx, DWORD PTR _Rect$[ebp]
  00b9f	52		 push	 edx
  00ba0	8b 4d fc	 mov	 ecx, DWORD PTR _this$[ebp]
  00ba3	e8 00 00 00 00	 call	 ?GetParent@CWnd@@QBEPAV1@XZ ; CWnd::GetParent
  00ba8	8b c8		 mov	 ecx, eax
  00baa	e8 00 00 00 00	 call	 ?InvalidateRect@CWnd@@QAEXPBUtagRECT@@H@Z ; CWnd::InvalidateRect

; 269  : 	//GetParent()->Invalidate();
; 270  : 	//GetParent()->UpdateWindow();
; 271  : }

  00baf	52		 push	 edx
  00bb0	8b cd		 mov	 ecx, ebp
  00bb2	50		 push	 eax
  00bb3	8d 15 00 00 00
	00		 lea	 edx, DWORD PTR $L187857
  00bb9	e8 00 00 00 00	 call	 @_RTC_CheckStackVars@8
  00bbe	58		 pop	 eax
  00bbf	5a		 pop	 edx
  00bc0	83 c4 1c	 add	 esp, 28			; 0000001cH
  00bc3	3b ec		 cmp	 ebp, esp
  00bc5	e8 00 00 00 00	 call	 __RTC_CheckEsp
  00bca	8b e5		 mov	 esp, ebp
  00bcc	5d		 pop	 ebp
  00bcd	c3		 ret	 0
$L187857:
  00bce	01 00 00 00	 DD	 1
  00bd2	00 00 00 00	 DD	 $L187856
$L187856:
  00bd6	e8 ff ff ff	 DD	 -24			; ffffffe8H
  00bda	10 00 00 00	 DD	 16			; 00000010H
  00bde	00 00 00 00	 DD	 $L187855
$L187855:
  00be2	52		 DB	 82			; 00000052H
  00be3	65		 DB	 101			; 00000065H
  00be4	63		 DB	 99			; 00000063H
  00be5	74		 DB	 116			; 00000074H
  00be6	00		 DB	 0
?EraseParentBK@CEditGlow@@AAEXXZ ENDP			; CEditGlow::EraseParentBK
_TEXT	ENDS
EXTRN	?OnSetFocus@CWnd@@IAEXPAV1@@Z:NEAR		; CWnd::OnSetFocus
; Function compile flags: /Odt /RTCsu
_TEXT	SEGMENT
_this$ = -4						; size = 4
_pOldWnd$ = 8						; size = 4
?OnSetFocus@CEditGlow@@QAEXPAVCWnd@@@Z PROC NEAR	; CEditGlow::OnSetFocus
; _this$ = ecx

; 274  : {

  00bf0	55		 push	 ebp
  00bf1	8b ec		 mov	 ebp, esp
  00bf3	51		 push	 ecx
  00bf4	c7 45 fc cc cc
	cc cc		 mov	 DWORD PTR [ebp-4], -858993460 ; ccccccccH
  00bfb	89 4d fc	 mov	 DWORD PTR _this$[ebp], ecx

; 275  : 	CEdit::OnSetFocus(pOldWnd);

  00bfe	8b 45 08	 mov	 eax, DWORD PTR _pOldWnd$[ebp]
  00c01	50		 push	 eax
  00c02	8b 4d fc	 mov	 ecx, DWORD PTR _this$[ebp]
  00c05	e8 00 00 00 00	 call	 ?OnSetFocus@CWnd@@IAEXPAV1@@Z ; CWnd::OnSetFocus

; 276  : 
; 277  : 	m_bFocus = true;

  00c0a	8b 4d fc	 mov	 ecx, DWORD PTR _this$[ebp]
  00c0d	c7 81 80 00 00
	00 01 00 00 00	 mov	 DWORD PTR [ecx+128], 1

; 278  : 	EraseParentBK();

  00c17	8b 4d fc	 mov	 ecx, DWORD PTR _this$[ebp]
  00c1a	e8 00 00 00 00	 call	 ?EraseParentBK@CEditGlow@@AAEXXZ ; CEditGlow::EraseParentBK

; 279  : 
; 280  : 	// TODO: Add your message handler code here
; 281  : }

  00c1f	83 c4 04	 add	 esp, 4
  00c22	3b ec		 cmp	 ebp, esp
  00c24	e8 00 00 00 00	 call	 __RTC_CheckEsp
  00c29	8b e5		 mov	 esp, ebp
  00c2b	5d		 pop	 ebp
  00c2c	c2 04 00	 ret	 4
?OnSetFocus@CEditGlow@@QAEXPAVCWnd@@@Z ENDP		; CEditGlow::OnSetFocus
_TEXT	ENDS
EXTRN	?OnKillFocus@CWnd@@IAEXPAV1@@Z:NEAR		; CWnd::OnKillFocus
; Function compile flags: /Odt /RTCsu
_TEXT	SEGMENT
_this$ = -4						; size = 4
_pNewWnd$ = 8						; size = 4
?OnKillFocus@CEditGlow@@QAEXPAVCWnd@@@Z PROC NEAR	; CEditGlow::OnKillFocus
; _this$ = ecx

; 284  : {

  00c30	55		 push	 ebp
  00c31	8b ec		 mov	 ebp, esp
  00c33	51		 push	 ecx
  00c34	c7 45 fc cc cc
	cc cc		 mov	 DWORD PTR [ebp-4], -858993460 ; ccccccccH
  00c3b	89 4d fc	 mov	 DWORD PTR _this$[ebp], ecx

; 285  : 	CEdit::OnKillFocus(pNewWnd);

  00c3e	8b 45 08	 mov	 eax, DWORD PTR _pNewWnd$[ebp]
  00c41	50		 push	 eax
  00c42	8b 4d fc	 mov	 ecx, DWORD PTR _this$[ebp]
  00c45	e8 00 00 00 00	 call	 ?OnKillFocus@CWnd@@IAEXPAV1@@Z ; CWnd::OnKillFocus

; 286  : 	m_bFocus = false;

  00c4a	8b 4d fc	 mov	 ecx, DWORD PTR _this$[ebp]
  00c4d	c7 81 80 00 00
	00 00 00 00 00	 mov	 DWORD PTR [ecx+128], 0

; 287  : 	EraseParentBK();

  00c57	8b 4d fc	 mov	 ecx, DWORD PTR _this$[ebp]
  00c5a	e8 00 00 00 00	 call	 ?EraseParentBK@CEditGlow@@AAEXXZ ; CEditGlow::EraseParentBK

; 288  : 
; 289  : 	// TODO: Add your message handler code here
; 290  : }

  00c5f	83 c4 04	 add	 esp, 4
  00c62	3b ec		 cmp	 ebp, esp
  00c64	e8 00 00 00 00	 call	 __RTC_CheckEsp
  00c69	8b e5		 mov	 esp, ebp
  00c6b	5d		 pop	 ebp
  00c6c	c2 04 00	 ret	 4
?OnKillFocus@CEditGlow@@QAEXPAVCWnd@@@Z ENDP		; CEditGlow::OnKillFocus
; Function compile flags: /Odt /RTCsu
; File d:\program files (x86)\microsoft visual studio .net 2003\vc7\atlmfc\include\atltrace.h
_TEXT	ENDS
;	COMDAT ??0CTraceFileAndLineInfo@ATL@@QAE@PBDH@Z
_TEXT	SEGMENT
_this$ = -4						; size = 4
_pszFileName$ = 8					; size = 4
_nLineNo$ = 12						; size = 4
??0CTraceFileAndLineInfo@ATL@@QAE@PBDH@Z PROC NEAR	; ATL::CTraceFileAndLineInfo::CTraceFileAndLineInfo, COMDAT
; _this$ = ecx

; 158  : 	{}

  00000	55		 push	 ebp
  00001	8b ec		 mov	 ebp, esp
  00003	51		 push	 ecx
  00004	c7 45 fc cc cc
	cc cc		 mov	 DWORD PTR [ebp-4], -858993460 ; ccccccccH
  0000b	89 4d fc	 mov	 DWORD PTR _this$[ebp], ecx
  0000e	8b 45 fc	 mov	 eax, DWORD PTR _this$[ebp]
  00011	8b 4d 08	 mov	 ecx, DWORD PTR _pszFileName$[ebp]
  00014	89 08		 mov	 DWORD PTR [eax], ecx
  00016	8b 55 fc	 mov	 edx, DWORD PTR _this$[ebp]
  00019	8b 45 0c	 mov	 eax, DWORD PTR _nLineNo$[ebp]
  0001c	89 42 04	 mov	 DWORD PTR [edx+4], eax
  0001f	8b 45 fc	 mov	 eax, DWORD PTR _this$[ebp]
  00022	8b e5		 mov	 esp, ebp
  00024	5d		 pop	 ebp
  00025	c2 08 00	 ret	 8
??0CTraceFileAndLineInfo@ATL@@QAE@PBDH@Z ENDP		; ATL::CTraceFileAndLineInfo::CTraceFileAndLineInfo
_TEXT	ENDS
PUBLIC	??BCTraceCategory@ATL@@QBEKXZ			; ATL::CTraceCategory::operator unsigned long
PUBLIC	?TraceV@CTrace@ATL@@QBAXPBDHKI0PAD@Z		; ATL::CTrace::TraceV
EXTRN	?s_trace@CTrace@ATL@@2V12@A:QWORD		; ATL::CTrace::s_trace
EXTRN	?atlTraceGeneral@ATL@@3VCTraceCategory@1@A:DWORD ; ATL::atlTraceGeneral
; Function compile flags: /Odt /RTCsu
;	COMDAT ??RCTraceFileAndLineInfo@ATL@@QBAXPBDZZ
_TEXT	SEGMENT
_ptr$ = -4						; size = 4
_this$ = 8						; size = 4
_pszFmt$ = 12						; size = 4
??RCTraceFileAndLineInfo@ATL@@QBAXPBDZZ PROC NEAR	; ATL::CTraceFileAndLineInfo::operator(), COMDAT

; 173  : 	{

  00000	55		 push	 ebp
  00001	8b ec		 mov	 ebp, esp
  00003	51		 push	 ecx
  00004	c7 45 fc cc cc
	cc cc		 mov	 DWORD PTR [ebp-4], -858993460 ; ccccccccH

; 174  : 		va_list ptr; va_start(ptr, pszFmt);

  0000b	8d 45 10	 lea	 eax, DWORD PTR _pszFmt$[ebp+4]
  0000e	89 45 fc	 mov	 DWORD PTR _ptr$[ebp], eax

; 175  : 		ATL::CTrace::s_trace.TraceV(m_pszFileName, m_nLineNo, atlTraceGeneral, 0, pszFmt, ptr);

  00011	8b 4d fc	 mov	 ecx, DWORD PTR _ptr$[ebp]
  00014	51		 push	 ecx
  00015	8b 55 0c	 mov	 edx, DWORD PTR _pszFmt$[ebp]
  00018	52		 push	 edx
  00019	6a 00		 push	 0
  0001b	b9 00 00 00 00	 mov	 ecx, OFFSET FLAT:?atlTraceGeneral@ATL@@3VCTraceCategory@1@A ; ATL::atlTraceGeneral
  00020	e8 00 00 00 00	 call	 ??BCTraceCategory@ATL@@QBEKXZ ; ATL::CTraceCategory::operator unsigned long
  00025	50		 push	 eax
  00026	8b 45 08	 mov	 eax, DWORD PTR _this$[ebp]
  00029	8b 48 04	 mov	 ecx, DWORD PTR [eax+4]
  0002c	51		 push	 ecx
  0002d	8b 55 08	 mov	 edx, DWORD PTR _this$[ebp]
  00030	8b 02		 mov	 eax, DWORD PTR [edx]
  00032	50		 push	 eax
  00033	68 00 00 00 00	 push	 OFFSET FLAT:?s_trace@CTrace@ATL@@2V12@A
  00038	e8 00 00 00 00	 call	 ?TraceV@CTrace@ATL@@QBAXPBDHKI0PAD@Z ; ATL::CTrace::TraceV
  0003d	83 c4 1c	 add	 esp, 28			; 0000001cH

; 176  : 		va_end(ptr);

  00040	c7 45 fc 00 00
	00 00		 mov	 DWORD PTR _ptr$[ebp], 0

; 177  : 	}

  00047	83 c4 04	 add	 esp, 4
  0004a	3b ec		 cmp	 ebp, esp
  0004c	e8 00 00 00 00	 call	 __RTC_CheckEsp
  00051	8b e5		 mov	 esp, ebp
  00053	5d		 pop	 ebp
  00054	c3		 ret	 0
??RCTraceFileAndLineInfo@ATL@@QBAXPBDZZ ENDP		; ATL::CTraceFileAndLineInfo::operator()
_TEXT	ENDS
EXTRN	_AtlTraceVA:NEAR
; Function compile flags: /Odt /RTCsu
;	COMDAT ?TraceV@CTrace@ATL@@QBAXPBDHKI0PAD@Z
_TEXT	SEGMENT
_this$ = 8						; size = 4
_pszFileName$ = 12					; size = 4
_nLine$ = 16						; size = 4
_dwCategory$ = 20					; size = 4
_nLevel$ = 24						; size = 4
_pszFmt$ = 28						; size = 4
_args$ = 32						; size = 4
?TraceV@CTrace@ATL@@QBAXPBDHKI0PAD@Z PROC NEAR		; ATL::CTrace::TraceV, COMDAT

; 121  : 	{

  00000	55		 push	 ebp
  00001	8b ec		 mov	 ebp, esp

; 122  : 		AtlTraceVA(m_dwModule, pszFileName, nLine, dwCategory, nLevel, pszFmt, args);

  00003	8b 45 20	 mov	 eax, DWORD PTR _args$[ebp]
  00006	50		 push	 eax
  00007	8b 4d 1c	 mov	 ecx, DWORD PTR _pszFmt$[ebp]
  0000a	51		 push	 ecx
  0000b	8b 55 18	 mov	 edx, DWORD PTR _nLevel$[ebp]
  0000e	52		 push	 edx
  0000f	8b 45 14	 mov	 eax, DWORD PTR _dwCategory$[ebp]
  00012	50		 push	 eax
  00013	8b 4d 10	 mov	 ecx, DWORD PTR _nLine$[ebp]
  00016	51		 push	 ecx
  00017	8b 55 0c	 mov	 edx, DWORD PTR _pszFileName$[ebp]
  0001a	52		 push	 edx
  0001b	8b 45 08	 mov	 eax, DWORD PTR _this$[ebp]
  0001e	8b 48 04	 mov	 ecx, DWORD PTR [eax+4]
  00021	51		 push	 ecx
  00022	e8 00 00 00 00	 call	 _AtlTraceVA
  00027	83 c4 1c	 add	 esp, 28			; 0000001cH

; 123  : 	}

  0002a	3b ec		 cmp	 ebp, esp
  0002c	e8 00 00 00 00	 call	 __RTC_CheckEsp
  00031	5d		 pop	 ebp
  00032	c3		 ret	 0
?TraceV@CTrace@ATL@@QBAXPBDHKI0PAD@Z ENDP		; ATL::CTrace::TraceV
; Function compile flags: /Odt /RTCsu
_TEXT	ENDS
;	COMDAT ??BCTraceCategory@ATL@@QBEKXZ
_TEXT	SEGMENT
_this$ = -4						; size = 4
??BCTraceCategory@ATL@@QBEKXZ PROC NEAR			; ATL::CTraceCategory::operator unsigned long, COMDAT
; _this$ = ecx

; 202  : {

  00000	55		 push	 ebp
  00001	8b ec		 mov	 ebp, esp
  00003	51		 push	 ecx
  00004	c7 45 fc cc cc
	cc cc		 mov	 DWORD PTR [ebp-4], -858993460 ; ccccccccH
  0000b	89 4d fc	 mov	 DWORD PTR _this$[ebp], ecx

; 203  : 	return( m_dwCategory );

  0000e	8b 45 fc	 mov	 eax, DWORD PTR _this$[ebp]
  00011	8b 00		 mov	 eax, DWORD PTR [eax]

; 204  : }

  00013	8b e5		 mov	 esp, ebp
  00015	5d		 pop	 ebp
  00016	c3		 ret	 0
??BCTraceCategory@ATL@@QBEKXZ ENDP			; ATL::CTraceCategory::operator unsigned long
; Function compile flags: /Odt /RTCsu
; File d:\program files (x86)\microsoft visual studio .net 2003\vc7\platformsdk\include\gdiplustypes.h
_TEXT	ENDS
;	COMDAT ??0Rect@Gdiplus@@QAE@HHHH@Z
_TEXT	SEGMENT
_this$ = -4						; size = 4
_x$ = 8							; size = 4
_y$ = 12						; size = 4
_width$ = 16						; size = 4
_height$ = 20						; size = 4
??0Rect@Gdiplus@@QAE@HHHH@Z PROC NEAR			; Gdiplus::Rect::Rect, COMDAT
; _this$ = ecx

; 527  :     Rect(IN INT x,

  00000	55		 push	 ebp
  00001	8b ec		 mov	 ebp, esp
  00003	51		 push	 ecx
  00004	c7 45 fc cc cc
	cc cc		 mov	 DWORD PTR [ebp-4], -858993460 ; ccccccccH
  0000b	89 4d fc	 mov	 DWORD PTR _this$[ebp], ecx

; 528  :          IN INT y,
; 529  :          IN INT width,
; 530  :          IN INT height)
; 531  :     {
; 532  :         X = x;

  0000e	8b 45 fc	 mov	 eax, DWORD PTR _this$[ebp]
  00011	8b 4d 08	 mov	 ecx, DWORD PTR _x$[ebp]
  00014	89 08		 mov	 DWORD PTR [eax], ecx

; 533  :         Y = y;

  00016	8b 55 fc	 mov	 edx, DWORD PTR _this$[ebp]
  00019	8b 45 0c	 mov	 eax, DWORD PTR _y$[ebp]
  0001c	89 42 04	 mov	 DWORD PTR [edx+4], eax

; 534  :         Width = width;

  0001f	8b 4d fc	 mov	 ecx, DWORD PTR _this$[ebp]
  00022	8b 55 10	 mov	 edx, DWORD PTR _width$[ebp]
  00025	89 51 08	 mov	 DWORD PTR [ecx+8], edx

; 535  :         Height = height;

  00028	8b 45 fc	 mov	 eax, DWORD PTR _this$[ebp]
  0002b	8b 4d 14	 mov	 ecx, DWORD PTR _height$[ebp]
  0002e	89 48 0c	 mov	 DWORD PTR [eax+12], ecx

; 536  :     }

  00031	8b 45 fc	 mov	 eax, DWORD PTR _this$[ebp]
  00034	8b e5		 mov	 esp, ebp
  00036	5d		 pop	 ebp
  00037	c2 10 00	 ret	 16			; 00000010H
??0Rect@Gdiplus@@QAE@HHHH@Z ENDP			; Gdiplus::Rect::Rect
_TEXT	ENDS
PUBLIC	?SetNativeGraphics@Graphics@Gdiplus@@IAEXPAVGpGraphics@2@@Z ; Gdiplus::Graphics::SetNativeGraphics
EXTRN	_GdipCreateFromHDC@8:NEAR
; Function compile flags: /Odt /RTCsu
; File d:\program files (x86)\microsoft visual studio .net 2003\vc7\platformsdk\include\gdiplusgraphics.h
;	COMDAT ??0Graphics@Gdiplus@@QAE@PAUHDC__@@@Z
_TEXT	SEGMENT
_graphics$ = -12					; size = 4
_this$ = -4						; size = 4
_hdc$ = 8						; size = 4
??0Graphics@Gdiplus@@QAE@PAUHDC__@@@Z PROC NEAR		; Gdiplus::Graphics::Graphics, COMDAT
; _this$ = ecx

; 53   :     Graphics(IN HDC hdc)

  00000	55		 push	 ebp
  00001	8b ec		 mov	 ebp, esp
  00003	83 ec 10	 sub	 esp, 16			; 00000010H
  00006	b8 cc cc cc cc	 mov	 eax, -858993460		; ccccccccH
  0000b	89 45 f0	 mov	 DWORD PTR [ebp-16], eax
  0000e	89 45 f4	 mov	 DWORD PTR [ebp-12], eax
  00011	89 45 f8	 mov	 DWORD PTR [ebp-8], eax
  00014	89 45 fc	 mov	 DWORD PTR [ebp-4], eax
  00017	89 4d fc	 mov	 DWORD PTR _this$[ebp], ecx

; 54   :     {
; 55   :         GpGraphics *graphics = NULL;

  0001a	c7 45 f4 00 00
	00 00		 mov	 DWORD PTR _graphics$[ebp], 0

; 56   : 
; 57   :         lastResult = DllExports::GdipCreateFromHDC(hdc, &graphics);

  00021	8d 45 f4	 lea	 eax, DWORD PTR _graphics$[ebp]
  00024	50		 push	 eax
  00025	8b 4d 08	 mov	 ecx, DWORD PTR _hdc$[ebp]
  00028	51		 push	 ecx
  00029	e8 00 00 00 00	 call	 _GdipCreateFromHDC@8
  0002e	8b 55 fc	 mov	 edx, DWORD PTR _this$[ebp]
  00031	89 42 04	 mov	 DWORD PTR [edx+4], eax

; 58   : 
; 59   :         SetNativeGraphics(graphics);

  00034	8b 45 f4	 mov	 eax, DWORD PTR _graphics$[ebp]
  00037	50		 push	 eax
  00038	8b 4d fc	 mov	 ecx, DWORD PTR _this$[ebp]
  0003b	e8 00 00 00 00	 call	 ?SetNativeGraphics@Graphics@Gdiplus@@IAEXPAVGpGraphics@2@@Z ; Gdiplus::Graphics::SetNativeGraphics

; 60   :     }

  00040	8b 45 fc	 mov	 eax, DWORD PTR _this$[ebp]
  00043	52		 push	 edx
  00044	8b cd		 mov	 ecx, ebp
  00046	50		 push	 eax
  00047	8d 15 00 00 00
	00		 lea	 edx, DWORD PTR $L187868
  0004d	e8 00 00 00 00	 call	 @_RTC_CheckStackVars@8
  00052	58		 pop	 eax
  00053	5a		 pop	 edx
  00054	83 c4 10	 add	 esp, 16			; 00000010H
  00057	3b ec		 cmp	 ebp, esp
  00059	e8 00 00 00 00	 call	 __RTC_CheckEsp
  0005e	8b e5		 mov	 esp, ebp
  00060	5d		 pop	 ebp
  00061	c2 04 00	 ret	 4
$L187868:
  00064	01 00 00 00	 DD	 1
  00068	00 00 00 00	 DD	 $L187867
$L187867:
  0006c	f4 ff ff ff	 DD	 -12			; fffffff4H
  00070	04 00 00 00	 DD	 4
  00074	00 00 00 00	 DD	 $L187866
$L187866:
  00078	67		 DB	 103			; 00000067H
  00079	72		 DB	 114			; 00000072H
  0007a	61		 DB	 97			; 00000061H
  0007b	70		 DB	 112			; 00000070H
  0007c	68		 DB	 104			; 00000068H
  0007d	69		 DB	 105			; 00000069H
  0007e	63		 DB	 99			; 00000063H
  0007f	73		 DB	 115			; 00000073H
  00080	00		 DB	 0
??0Graphics@Gdiplus@@QAE@PAUHDC__@@@Z ENDP		; Gdiplus::Graphics::Graphics
_TEXT	ENDS
EXTRN	_GdipDeleteGraphics@4:NEAR
; Function compile flags: /Odt /RTCsu
;	COMDAT ??1Graphics@Gdiplus@@QAE@XZ
_TEXT	SEGMENT
_this$ = -4						; size = 4
??1Graphics@Gdiplus@@QAE@XZ PROC NEAR			; Gdiplus::Graphics::~Graphics, COMDAT
; _this$ = ecx

; 102  :     {

  00000	55		 push	 ebp
  00001	8b ec		 mov	 ebp, esp
  00003	51		 push	 ecx
  00004	c7 45 fc cc cc
	cc cc		 mov	 DWORD PTR [ebp-4], -858993460 ; ccccccccH
  0000b	89 4d fc	 mov	 DWORD PTR _this$[ebp], ecx

; 103  :         DllExports::GdipDeleteGraphics(nativeGraphics);

  0000e	8b 45 fc	 mov	 eax, DWORD PTR _this$[ebp]
  00011	8b 08		 mov	 ecx, DWORD PTR [eax]
  00013	51		 push	 ecx
  00014	e8 00 00 00 00	 call	 _GdipDeleteGraphics@4

; 104  :     }

  00019	83 c4 04	 add	 esp, 4
  0001c	3b ec		 cmp	 ebp, esp
  0001e	e8 00 00 00 00	 call	 __RTC_CheckEsp
  00023	8b e5		 mov	 esp, ebp
  00025	5d		 pop	 ebp
  00026	c3		 ret	 0
??1Graphics@Gdiplus@@QAE@XZ ENDP			; Gdiplus::Graphics::~Graphics
_TEXT	ENDS
PUBLIC	?SetStatus@Graphics@Gdiplus@@IBE?AW4Status@2@W432@@Z ; Gdiplus::Graphics::SetStatus
EXTRN	_GdipSetSmoothingMode@8:NEAR
; Function compile flags: /Odt /RTCsu
;	COMDAT ?SetSmoothingMode@Graphics@Gdiplus@@QAE?AW4Status@2@W4SmoothingMode@2@@Z
_TEXT	SEGMENT
_this$ = -4						; size = 4
_smoothingMode$ = 8					; size = 4
?SetSmoothingMode@Graphics@Gdiplus@@QAE?AW4Status@2@W4SmoothingMode@2@@Z PROC NEAR ; Gdiplus::Graphics::SetSmoothingMode, COMDAT
; _this$ = ecx

; 246  :     {

  00000	55		 push	 ebp
  00001	8b ec		 mov	 ebp, esp
  00003	51		 push	 ecx
  00004	c7 45 fc cc cc
	cc cc		 mov	 DWORD PTR [ebp-4], -858993460 ; ccccccccH
  0000b	89 4d fc	 mov	 DWORD PTR _this$[ebp], ecx

; 247  :         return SetStatus(DllExports::GdipSetSmoothingMode(nativeGraphics,
; 248  :                                                           smoothingMode));

  0000e	8b 45 08	 mov	 eax, DWORD PTR _smoothingMode$[ebp]
  00011	50		 push	 eax
  00012	8b 4d fc	 mov	 ecx, DWORD PTR _this$[ebp]
  00015	8b 11		 mov	 edx, DWORD PTR [ecx]
  00017	52		 push	 edx
  00018	e8 00 00 00 00	 call	 _GdipSetSmoothingMode@8
  0001d	50		 push	 eax
  0001e	8b 4d fc	 mov	 ecx, DWORD PTR _this$[ebp]
  00021	e8 00 00 00 00	 call	 ?SetStatus@Graphics@Gdiplus@@IBE?AW4Status@2@W432@@Z ; Gdiplus::Graphics::SetStatus

; 249  :     }

  00026	83 c4 04	 add	 esp, 4
  00029	3b ec		 cmp	 ebp, esp
  0002b	e8 00 00 00 00	 call	 __RTC_CheckEsp
  00030	8b e5		 mov	 esp, ebp
  00032	5d		 pop	 ebp
  00033	c2 04 00	 ret	 4
?SetSmoothingMode@Graphics@Gdiplus@@QAE?AW4Status@2@W4SmoothingMode@2@@Z ENDP ; Gdiplus::Graphics::SetSmoothingMode
_TEXT	ENDS
EXTRN	_GdipDrawImageRectRectI@56:NEAR
; Function compile flags: /Odt /RTCsu
;	COMDAT ?DrawImage@Graphics@Gdiplus@@QAE?AW4Status@2@PAVImage@2@ABVRect@2@HHHHW4Unit@2@PBVImageAttributes@2@P6GHPAX@Z4@Z
_TEXT	SEGMENT
tv86 = -12						; size = 4
tv70 = -8						; size = 4
_this$ = -4						; size = 4
_image$ = 8						; size = 4
_destRect$ = 12						; size = 4
_srcx$ = 16						; size = 4
_srcy$ = 20						; size = 4
_srcwidth$ = 24						; size = 4
_srcheight$ = 28					; size = 4
_srcUnit$ = 32						; size = 4
_imageAttributes$ = 36					; size = 4
_callback$ = 40						; size = 4
_callbackData$ = 44					; size = 4
?DrawImage@Graphics@Gdiplus@@QAE?AW4Status@2@PAVImage@2@ABVRect@2@HHHHW4Unit@2@PBVImageAttributes@2@P6GHPAX@Z4@Z PROC NEAR ; Gdiplus::Graphics::DrawImage, COMDAT
; _this$ = ecx

; 1707 :     {

  00000	55		 push	 ebp
  00001	8b ec		 mov	 ebp, esp
  00003	83 ec 0c	 sub	 esp, 12			; 0000000cH
  00006	c7 45 f4 cc cc
	cc cc		 mov	 DWORD PTR [ebp-12], -858993460 ; ccccccccH
  0000d	c7 45 f8 cc cc
	cc cc		 mov	 DWORD PTR [ebp-8], -858993460 ; ccccccccH
  00014	c7 45 fc cc cc
	cc cc		 mov	 DWORD PTR [ebp-4], -858993460 ; ccccccccH
  0001b	89 4d fc	 mov	 DWORD PTR _this$[ebp], ecx

; 1708 :         return SetStatus(DllExports::GdipDrawImageRectRectI(nativeGraphics,
; 1709 :                                                             image ? image->nativeImage
; 1710 :                                                                   : NULL,
; 1711 :                                                             destRect.X,
; 1712 :                                                             destRect.Y,
; 1713 :                                                             destRect.Width,
; 1714 :                                                             destRect.Height,
; 1715 :                                                             srcx,
; 1716 :                                                             srcy,
; 1717 :                                                             srcwidth,
; 1718 :                                                             srcheight,
; 1719 :                                                             srcUnit,
; 1720 :                                                             imageAttributes
; 1721 :                                                             ? imageAttributes->nativeImageAttr
; 1722 :                                                             : NULL,
; 1723 :                                                             callback,
; 1724 :                                                             callbackData));

  0001e	83 7d 24 00	 cmp	 DWORD PTR _imageAttributes$[ebp], 0
  00022	74 0a		 je	 SHORT $L187872
  00024	8b 45 24	 mov	 eax, DWORD PTR _imageAttributes$[ebp]
  00027	8b 08		 mov	 ecx, DWORD PTR [eax]
  00029	89 4d f8	 mov	 DWORD PTR tv70[ebp], ecx
  0002c	eb 07		 jmp	 SHORT $L187873
$L187872:
  0002e	c7 45 f8 00 00
	00 00		 mov	 DWORD PTR tv70[ebp], 0
$L187873:
  00035	83 7d 08 00	 cmp	 DWORD PTR _image$[ebp], 0
  00039	74 0b		 je	 SHORT $L187874
  0003b	8b 55 08	 mov	 edx, DWORD PTR _image$[ebp]
  0003e	8b 42 04	 mov	 eax, DWORD PTR [edx+4]
  00041	89 45 f4	 mov	 DWORD PTR tv86[ebp], eax
  00044	eb 07		 jmp	 SHORT $L187875
$L187874:
  00046	c7 45 f4 00 00
	00 00		 mov	 DWORD PTR tv86[ebp], 0
$L187875:
  0004d	8b 4d 2c	 mov	 ecx, DWORD PTR _callbackData$[ebp]
  00050	51		 push	 ecx
  00051	8b 55 28	 mov	 edx, DWORD PTR _callback$[ebp]
  00054	52		 push	 edx
  00055	8b 45 f8	 mov	 eax, DWORD PTR tv70[ebp]
  00058	50		 push	 eax
  00059	8b 4d 20	 mov	 ecx, DWORD PTR _srcUnit$[ebp]
  0005c	51		 push	 ecx
  0005d	8b 55 1c	 mov	 edx, DWORD PTR _srcheight$[ebp]
  00060	52		 push	 edx
  00061	8b 45 18	 mov	 eax, DWORD PTR _srcwidth$[ebp]
  00064	50		 push	 eax
  00065	8b 4d 14	 mov	 ecx, DWORD PTR _srcy$[ebp]
  00068	51		 push	 ecx
  00069	8b 55 10	 mov	 edx, DWORD PTR _srcx$[ebp]
  0006c	52		 push	 edx
  0006d	8b 45 0c	 mov	 eax, DWORD PTR _destRect$[ebp]
  00070	8b 48 0c	 mov	 ecx, DWORD PTR [eax+12]
  00073	51		 push	 ecx
  00074	8b 55 0c	 mov	 edx, DWORD PTR _destRect$[ebp]
  00077	8b 42 08	 mov	 eax, DWORD PTR [edx+8]
  0007a	50		 push	 eax
  0007b	8b 4d 0c	 mov	 ecx, DWORD PTR _destRect$[ebp]
  0007e	8b 51 04	 mov	 edx, DWORD PTR [ecx+4]
  00081	52		 push	 edx
  00082	8b 45 0c	 mov	 eax, DWORD PTR _destRect$[ebp]
  00085	8b 08		 mov	 ecx, DWORD PTR [eax]
  00087	51		 push	 ecx
  00088	8b 55 f4	 mov	 edx, DWORD PTR tv86[ebp]
  0008b	52		 push	 edx
  0008c	8b 45 fc	 mov	 eax, DWORD PTR _this$[ebp]
  0008f	8b 08		 mov	 ecx, DWORD PTR [eax]
  00091	51		 push	 ecx
  00092	e8 00 00 00 00	 call	 _GdipDrawImageRectRectI@56
  00097	50		 push	 eax
  00098	8b 4d fc	 mov	 ecx, DWORD PTR _this$[ebp]
  0009b	e8 00 00 00 00	 call	 ?SetStatus@Graphics@Gdiplus@@IBE?AW4Status@2@W432@@Z ; Gdiplus::Graphics::SetStatus

; 1725 :     }

  000a0	83 c4 0c	 add	 esp, 12			; 0000000cH
  000a3	3b ec		 cmp	 ebp, esp
  000a5	e8 00 00 00 00	 call	 __RTC_CheckEsp
  000aa	8b e5		 mov	 esp, ebp
  000ac	5d		 pop	 ebp
  000ad	c2 28 00	 ret	 40			; 00000028H
?DrawImage@Graphics@Gdiplus@@QAE?AW4Status@2@PAVImage@2@ABVRect@2@HHHHW4Unit@2@PBVImageAttributes@2@P6GHPAX@Z4@Z ENDP ; Gdiplus::Graphics::DrawImage
; Function compile flags: /Odt /RTCsu
_TEXT	ENDS
;	COMDAT ?SetNativeGraphics@Graphics@Gdiplus@@IAEXPAVGpGraphics@2@@Z
_TEXT	SEGMENT
_this$ = -4						; size = 4
_graphics$ = 8						; size = 4
?SetNativeGraphics@Graphics@Gdiplus@@IAEXPAVGpGraphics@2@@Z PROC NEAR ; Gdiplus::Graphics::SetNativeGraphics, COMDAT
; _this$ = ecx

; 2339 :     {

  00000	55		 push	 ebp
  00001	8b ec		 mov	 ebp, esp
  00003	51		 push	 ecx
  00004	c7 45 fc cc cc
	cc cc		 mov	 DWORD PTR [ebp-4], -858993460 ; ccccccccH
  0000b	89 4d fc	 mov	 DWORD PTR _this$[ebp], ecx

; 2340 :         this->nativeGraphics = graphics;

  0000e	8b 45 fc	 mov	 eax, DWORD PTR _this$[ebp]
  00011	8b 4d 08	 mov	 ecx, DWORD PTR _graphics$[ebp]
  00014	89 08		 mov	 DWORD PTR [eax], ecx

; 2341 :     }

  00016	8b e5		 mov	 esp, ebp
  00018	5d		 pop	 ebp
  00019	c2 04 00	 ret	 4
?SetNativeGraphics@Graphics@Gdiplus@@IAEXPAVGpGraphics@2@@Z ENDP ; Gdiplus::Graphics::SetNativeGraphics
; Function compile flags: /Odt /RTCsu
_TEXT	ENDS
;	COMDAT ?SetStatus@Graphics@Gdiplus@@IBE?AW4Status@2@W432@@Z
_TEXT	SEGMENT
_this$ = -4						; size = 4
_status$ = 8						; size = 4
?SetStatus@Graphics@Gdiplus@@IBE?AW4Status@2@W432@@Z PROC NEAR ; Gdiplus::Graphics::SetStatus, COMDAT
; _this$ = ecx

; 2344 :     {

  00000	55		 push	 ebp
  00001	8b ec		 mov	 ebp, esp
  00003	51		 push	 ecx
  00004	c7 45 fc cc cc
	cc cc		 mov	 DWORD PTR [ebp-4], -858993460 ; ccccccccH
  0000b	89 4d fc	 mov	 DWORD PTR _this$[ebp], ecx

; 2345 :         if (status != Ok)

  0000e	83 7d 08 00	 cmp	 DWORD PTR _status$[ebp], 0
  00012	74 0e		 je	 SHORT $L116181

; 2346 :             return (lastResult = status);

  00014	8b 45 fc	 mov	 eax, DWORD PTR _this$[ebp]
  00017	8b 4d 08	 mov	 ecx, DWORD PTR _status$[ebp]
  0001a	89 48 04	 mov	 DWORD PTR [eax+4], ecx
  0001d	8b 45 08	 mov	 eax, DWORD PTR _status$[ebp]
  00020	eb 03		 jmp	 SHORT $L116180
$L116181:

; 2347 :         else
; 2348 :             return status;

  00022	8b 45 08	 mov	 eax, DWORD PTR _status$[ebp]
$L116180:

; 2349 :     }

  00025	8b e5		 mov	 esp, ebp
  00027	5d		 pop	 ebp
  00028	c2 04 00	 ret	 4
?SetStatus@Graphics@Gdiplus@@IBE?AW4Status@2@W432@@Z ENDP ; Gdiplus::Graphics::SetStatus
_TEXT	ENDS
PUBLIC	??_R13?0A@A@GdiplusBase@Gdiplus@@8		; Gdiplus::GdiplusBase::`RTTI Base Class Descriptor at (4,-1,0,0)'
PUBLIC	??_R0?AVGdiplusBase@Gdiplus@@@8			; Gdiplus::GdiplusBase `RTTI Type Descriptor'
PUBLIC	??_R1A@?0A@A@Image@Gdiplus@@8			; Gdiplus::Image::`RTTI Base Class Descriptor at (0,-1,0,0)'
PUBLIC	??_R0?AVImage@Gdiplus@@@8			; Gdiplus::Image `RTTI Type Descriptor'
PUBLIC	??_R4Image@Gdiplus@@6B@				; Gdiplus::Image::`RTTI Complete Object Locator'
PUBLIC	??_R3Image@Gdiplus@@8				; Gdiplus::Image::`RTTI Class Hierarchy Descriptor'
PUBLIC	??_R2Image@Gdiplus@@8				; Gdiplus::Image::`RTTI Base Class Array'
PUBLIC	??_7Image@Gdiplus@@6B@				; Gdiplus::Image::`vftable'
PUBLIC	??_GImage@Gdiplus@@UAEPAXI@Z			; Gdiplus::Image::`scalar deleting destructor'
EXTRN	_GdipLoadImageFromFile@8:NEAR
EXTRN	_GdipLoadImageFromFileICM@8:NEAR
EXTRN	??_EImage@Gdiplus@@UAEPAXI@Z:NEAR		; Gdiplus::Image::`vector deleting destructor'
;	COMDAT ??_7Image@Gdiplus@@6B@
; File d:\program files (x86)\microsoft visual studio .net 2003\vc7\platformsdk\include\gdiplusbitmap.h
CONST	SEGMENT
??_7Image@Gdiplus@@6B@ DD FLAT:??_R4Image@Gdiplus@@6B@	; Gdiplus::Image::`vftable'
	DD	FLAT:??_EImage@Gdiplus@@UAEPAXI@Z
	DD	FLAT:?Clone@Image@Gdiplus@@UAEPAV12@XZ
CONST	ENDS
;	COMDAT ??_R4Image@Gdiplus@@6B@
rdata$r	SEGMENT
??_R4Image@Gdiplus@@6B@ DD 00H				; Gdiplus::Image::`RTTI Complete Object Locator'
	DD	00H
	DD	00H
	DD	FLAT:??_R0?AVImage@Gdiplus@@@8
	DD	FLAT:??_R3Image@Gdiplus@@8
rdata$r	ENDS
;	COMDAT ??_R0?AVImage@Gdiplus@@@8
_DATA	SEGMENT
??_R0?AVImage@Gdiplus@@@8 DD FLAT:??_7type_info@@6B@	; Gdiplus::Image `RTTI Type Descriptor'
	DD	00H
	DB	'.?AVImage@Gdiplus@@', 00H
_DATA	ENDS
;	COMDAT ??_R3Image@Gdiplus@@8
rdata$r	SEGMENT
??_R3Image@Gdiplus@@8 DD 00H				; Gdiplus::Image::`RTTI Class Hierarchy Descriptor'
	DD	00H
	DD	02H
	DD	FLAT:??_R2Image@Gdiplus@@8
rdata$r	ENDS
;	COMDAT ??_R2Image@Gdiplus@@8
rdata$r	SEGMENT
??_R2Image@Gdiplus@@8 DD FLAT:??_R1A@?0A@A@Image@Gdiplus@@8 ; Gdiplus::Image::`RTTI Base Class Array'
	DD	FLAT:??_R13?0A@A@GdiplusBase@Gdiplus@@8
rdata$r	ENDS
;	COMDAT ??_R1A@?0A@A@Image@Gdiplus@@8
rdata$r	SEGMENT
??_R1A@?0A@A@Image@Gdiplus@@8 DD FLAT:??_R0?AVImage@Gdiplus@@@8 ; Gdiplus::Image::`RTTI Base Class Descriptor at (0,-1,0,0)'
	DD	01H
	DD	00H
	DD	0ffffffffH
	DD	00H
	DD	00H
rdata$r	ENDS
;	COMDAT ??_R13?0A@A@GdiplusBase@Gdiplus@@8
rdata$r	SEGMENT
??_R13?0A@A@GdiplusBase@Gdiplus@@8 DD FLAT:??_R0?AVGdiplusBase@Gdiplus@@@8 ; Gdiplus::GdiplusBase::`RTTI Base Class Descriptor at (4,-1,0,0)'
	DD	00H
	DD	04H
	DD	0ffffffffH
	DD	00H
	DD	00H
rdata$r	ENDS
;	COMDAT ??_R0?AVGdiplusBase@Gdiplus@@@8
_DATA	SEGMENT
??_R0?AVGdiplusBase@Gdiplus@@@8 DD FLAT:??_7type_info@@6B@ ; Gdiplus::GdiplusBase `RTTI Type Descriptor'
	DD	00H
	DB	'.?AVGdiplusBase@Gdiplus@@', 00H
; Function compile flags: /Odt /RTCsu
_DATA	ENDS
;	COMDAT ??0Image@Gdiplus@@QAE@PB_WH@Z
_TEXT	SEGMENT
_this$ = -4						; size = 4
_filename$ = 8						; size = 4
_useEmbeddedColorManagement$ = 12			; size = 4
??0Image@Gdiplus@@QAE@PB_WH@Z PROC NEAR			; Gdiplus::Image::Image, COMDAT
; _this$ = ecx

; 23   : {

  00000	55		 push	 ebp
  00001	8b ec		 mov	 ebp, esp
  00003	51		 push	 ecx
  00004	c7 45 fc cc cc
	cc cc		 mov	 DWORD PTR [ebp-4], -858993460 ; ccccccccH
  0000b	89 4d fc	 mov	 DWORD PTR _this$[ebp], ecx
  0000e	8b 45 fc	 mov	 eax, DWORD PTR _this$[ebp]
  00011	c7 00 00 00 00
	00		 mov	 DWORD PTR [eax], OFFSET FLAT:??_7Image@Gdiplus@@6B@

; 24   :     nativeImage = NULL;

  00017	8b 4d fc	 mov	 ecx, DWORD PTR _this$[ebp]
  0001a	c7 41 04 00 00
	00 00		 mov	 DWORD PTR [ecx+4], 0

; 25   :     if(useEmbeddedColorManagement)

  00021	83 7d 0c 00	 cmp	 DWORD PTR _useEmbeddedColorManagement$[ebp], 0
  00025	74 18		 je	 SHORT $L116797

; 26   :     {
; 27   :         lastResult = DllExports::GdipLoadImageFromFileICM(
; 28   :             filename, 
; 29   :             &nativeImage
; 30   :         );

  00027	8b 55 fc	 mov	 edx, DWORD PTR _this$[ebp]
  0002a	83 c2 04	 add	 edx, 4
  0002d	52		 push	 edx
  0002e	8b 45 08	 mov	 eax, DWORD PTR _filename$[ebp]
  00031	50		 push	 eax
  00032	e8 00 00 00 00	 call	 _GdipLoadImageFromFileICM@8
  00037	8b 4d fc	 mov	 ecx, DWORD PTR _this$[ebp]
  0003a	89 41 08	 mov	 DWORD PTR [ecx+8], eax

; 31   :     }
; 32   :     else

  0003d	eb 16		 jmp	 SHORT $L116796
$L116797:

; 33   :     {      
; 34   :         lastResult = DllExports::GdipLoadImageFromFile(
; 35   :             filename, 
; 36   :             &nativeImage
; 37   :         );

  0003f	8b 55 fc	 mov	 edx, DWORD PTR _this$[ebp]
  00042	83 c2 04	 add	 edx, 4
  00045	52		 push	 edx
  00046	8b 45 08	 mov	 eax, DWORD PTR _filename$[ebp]
  00049	50		 push	 eax
  0004a	e8 00 00 00 00	 call	 _GdipLoadImageFromFile@8
  0004f	8b 4d fc	 mov	 ecx, DWORD PTR _this$[ebp]
  00052	89 41 08	 mov	 DWORD PTR [ecx+8], eax
$L116796:

; 38   :     }
; 39   : }

  00055	8b 45 fc	 mov	 eax, DWORD PTR _this$[ebp]
  00058	83 c4 04	 add	 esp, 4
  0005b	3b ec		 cmp	 ebp, esp
  0005d	e8 00 00 00 00	 call	 __RTC_CheckEsp
  00062	8b e5		 mov	 esp, ebp
  00064	5d		 pop	 ebp
  00065	c2 08 00	 ret	 8
??0Image@Gdiplus@@QAE@PB_WH@Z ENDP			; Gdiplus::Image::Image
_TEXT	ENDS
PUBLIC	??3GdiplusBase@Gdiplus@@SAXPAX@Z		; Gdiplus::GdiplusBase::operator delete
; Function compile flags: /Odt /RTCsu
;	COMDAT ??_GImage@Gdiplus@@UAEPAXI@Z
_TEXT	SEGMENT
_this$ = -4						; size = 4
___flags$ = 8						; size = 4
??_GImage@Gdiplus@@UAEPAXI@Z PROC NEAR			; Gdiplus::Image::`scalar deleting destructor', COMDAT
; _this$ = ecx
  00000	55		 push	 ebp
  00001	8b ec		 mov	 ebp, esp
  00003	51		 push	 ecx
  00004	c7 45 fc cc cc
	cc cc		 mov	 DWORD PTR [ebp-4], -858993460 ; ccccccccH
  0000b	89 4d fc	 mov	 DWORD PTR _this$[ebp], ecx
  0000e	8b 4d fc	 mov	 ecx, DWORD PTR _this$[ebp]
  00011	e8 00 00 00 00	 call	 ??1Image@Gdiplus@@UAE@XZ ; Gdiplus::Image::~Image
  00016	8b 45 08	 mov	 eax, DWORD PTR ___flags$[ebp]
  00019	83 e0 01	 and	 eax, 1
  0001c	74 0c		 je	 SHORT $L109528
  0001e	8b 4d fc	 mov	 ecx, DWORD PTR _this$[ebp]
  00021	51		 push	 ecx
  00022	e8 00 00 00 00	 call	 ??3GdiplusBase@Gdiplus@@SAXPAX@Z ; Gdiplus::GdiplusBase::operator delete
  00027	83 c4 04	 add	 esp, 4
$L109528:
  0002a	8b 45 fc	 mov	 eax, DWORD PTR _this$[ebp]
  0002d	83 c4 04	 add	 esp, 4
  00030	3b ec		 cmp	 ebp, esp
  00032	e8 00 00 00 00	 call	 __RTC_CheckEsp
  00037	8b e5		 mov	 esp, ebp
  00039	5d		 pop	 ebp
  0003a	c2 04 00	 ret	 4
??_GImage@Gdiplus@@UAEPAXI@Z ENDP			; Gdiplus::Image::`scalar deleting destructor'
_TEXT	ENDS
EXTRN	_GdipFree@4:NEAR
; Function compile flags: /Odt /RTCsu
; File d:\program files (x86)\microsoft visual studio .net 2003\vc7\platformsdk\include\gdiplusbase.h
;	COMDAT ??3GdiplusBase@Gdiplus@@SAXPAX@Z
_TEXT	SEGMENT
_in_pVoid$ = 8						; size = 4
??3GdiplusBase@Gdiplus@@SAXPAX@Z PROC NEAR		; Gdiplus::GdiplusBase::operator delete, COMDAT

; 22   :     {

  00000	55		 push	 ebp
  00001	8b ec		 mov	 ebp, esp

; 23   :        DllExports::GdipFree(in_pVoid);

  00003	8b 45 08	 mov	 eax, DWORD PTR _in_pVoid$[ebp]
  00006	50		 push	 eax
  00007	e8 00 00 00 00	 call	 _GdipFree@4

; 24   :     }

  0000c	3b ec		 cmp	 ebp, esp
  0000e	e8 00 00 00 00	 call	 __RTC_CheckEsp
  00013	5d		 pop	 ebp
  00014	c3		 ret	 0
??3GdiplusBase@Gdiplus@@SAXPAX@Z ENDP			; Gdiplus::GdiplusBase::operator delete
_TEXT	ENDS
EXTRN	_GdipDisposeImage@4:NEAR
; Function compile flags: /Odt /RTCsu
; File d:\program files (x86)\microsoft visual studio .net 2003\vc7\platformsdk\include\gdiplusbitmap.h
;	COMDAT ??1Image@Gdiplus@@UAE@XZ
_TEXT	SEGMENT
_this$ = -4						; size = 4
??1Image@Gdiplus@@UAE@XZ PROC NEAR			; Gdiplus::Image::~Image, COMDAT
; _this$ = ecx

; 90   : {

  00000	55		 push	 ebp
  00001	8b ec		 mov	 ebp, esp
  00003	51		 push	 ecx
  00004	c7 45 fc cc cc
	cc cc		 mov	 DWORD PTR [ebp-4], -858993460 ; ccccccccH
  0000b	89 4d fc	 mov	 DWORD PTR _this$[ebp], ecx
  0000e	8b 45 fc	 mov	 eax, DWORD PTR _this$[ebp]
  00011	c7 00 00 00 00
	00		 mov	 DWORD PTR [eax], OFFSET FLAT:??_7Image@Gdiplus@@6B@

; 91   :     DllExports::GdipDisposeImage(nativeImage);

  00017	8b 4d fc	 mov	 ecx, DWORD PTR _this$[ebp]
  0001a	8b 51 04	 mov	 edx, DWORD PTR [ecx+4]
  0001d	52		 push	 edx
  0001e	e8 00 00 00 00	 call	 _GdipDisposeImage@4

; 92   : }

  00023	83 c4 04	 add	 esp, 4
  00026	3b ec		 cmp	 ebp, esp
  00028	e8 00 00 00 00	 call	 __RTC_CheckEsp
  0002d	8b e5		 mov	 esp, ebp
  0002f	5d		 pop	 ebp
  00030	c3		 ret	 0
??1Image@Gdiplus@@UAE@XZ ENDP				; Gdiplus::Image::~Image
_TEXT	ENDS
PUBLIC	??2GdiplusBase@Gdiplus@@SAPAXI@Z		; Gdiplus::GdiplusBase::operator new
PUBLIC	??0Image@Gdiplus@@IAE@PAVGpImage@1@W4Status@1@@Z ; Gdiplus::Image::Image
PUBLIC	?SetStatus@Image@Gdiplus@@IBE?AW4Status@2@W432@@Z ; Gdiplus::Image::SetStatus
EXTRN	_GdipCloneImage@8:NEAR
;	COMDAT xdata$x
xdata$x	SEGMENT
$T187894 DD	0ffffffffH
	DD	FLAT:$L187887
$T187889 DD	019930520H
	DD	01H
	DD	FLAT:$T187894
	DD	2 DUP(00H)
	DD	2 DUP(00H)
; Function compile flags: /Odt /RTCsu
xdata$x	ENDS
;	COMDAT ?Clone@Image@Gdiplus@@UAEPAV12@XZ
_TEXT	SEGMENT
tv80 = -40						; size = 4
$T187884 = -36						; size = 4
$T187883 = -32						; size = 4
_cloneimage$ = -24					; size = 4
_this$ = -16						; size = 4
__$EHRec$ = -12						; size = 12
?Clone@Image@Gdiplus@@UAEPAV12@XZ PROC NEAR		; Gdiplus::Image::Clone, COMDAT
; _this$ = ecx

; 96   : {

  00000	55		 push	 ebp
  00001	8b ec		 mov	 ebp, esp
  00003	6a ff		 push	 -1
  00005	68 00 00 00 00	 push	 __ehhandler$?Clone@Image@Gdiplus@@UAEPAV12@XZ
  0000a	64 a1 00 00 00
	00		 mov	 eax, DWORD PTR fs:__except_list
  00010	50		 push	 eax
  00011	64 89 25 00 00
	00 00		 mov	 DWORD PTR fs:__except_list, esp
  00018	83 ec 1c	 sub	 esp, 28			; 0000001cH
  0001b	b8 cc cc cc cc	 mov	 eax, -858993460		; ccccccccH
  00020	89 45 d8	 mov	 DWORD PTR [ebp-40], eax
  00023	89 45 dc	 mov	 DWORD PTR [ebp-36], eax
  00026	89 45 e0	 mov	 DWORD PTR [ebp-32], eax
  00029	89 45 e4	 mov	 DWORD PTR [ebp-28], eax
  0002c	89 45 e8	 mov	 DWORD PTR [ebp-24], eax
  0002f	89 45 ec	 mov	 DWORD PTR [ebp-20], eax
  00032	89 45 f0	 mov	 DWORD PTR [ebp-16], eax
  00035	89 4d f0	 mov	 DWORD PTR _this$[ebp], ecx

; 97   :     GpImage *cloneimage = NULL;

  00038	c7 45 e8 00 00
	00 00		 mov	 DWORD PTR _cloneimage$[ebp], 0

; 98   : 
; 99   :     SetStatus(DllExports::GdipCloneImage(nativeImage, &cloneimage));

  0003f	8d 45 e8	 lea	 eax, DWORD PTR _cloneimage$[ebp]
  00042	50		 push	 eax
  00043	8b 4d f0	 mov	 ecx, DWORD PTR _this$[ebp]
  00046	8b 51 04	 mov	 edx, DWORD PTR [ecx+4]
  00049	52		 push	 edx
  0004a	e8 00 00 00 00	 call	 _GdipCloneImage@8
  0004f	50		 push	 eax
  00050	8b 4d f0	 mov	 ecx, DWORD PTR _this$[ebp]
  00053	e8 00 00 00 00	 call	 ?SetStatus@Image@Gdiplus@@IBE?AW4Status@2@W432@@Z ; Gdiplus::Image::SetStatus

; 100  : 
; 101  :     return new Image(cloneimage, lastResult);

  00058	6a 10		 push	 16			; 00000010H
  0005a	e8 00 00 00 00	 call	 ??2GdiplusBase@Gdiplus@@SAPAXI@Z ; Gdiplus::GdiplusBase::operator new
  0005f	83 c4 04	 add	 esp, 4
  00062	89 45 dc	 mov	 DWORD PTR $T187884[ebp], eax
  00065	c7 45 fc 00 00
	00 00		 mov	 DWORD PTR __$EHRec$[ebp+8], 0
  0006c	83 7d dc 00	 cmp	 DWORD PTR $T187884[ebp], 0
  00070	74 18		 je	 SHORT $L187885
  00072	8b 45 f0	 mov	 eax, DWORD PTR _this$[ebp]
  00075	8b 48 08	 mov	 ecx, DWORD PTR [eax+8]
  00078	51		 push	 ecx
  00079	8b 55 e8	 mov	 edx, DWORD PTR _cloneimage$[ebp]
  0007c	52		 push	 edx
  0007d	8b 4d dc	 mov	 ecx, DWORD PTR $T187884[ebp]
  00080	e8 00 00 00 00	 call	 ??0Image@Gdiplus@@IAE@PAVGpImage@1@W4Status@1@@Z ; Gdiplus::Image::Image
  00085	89 45 d8	 mov	 DWORD PTR tv80[ebp], eax
  00088	eb 07		 jmp	 SHORT $L187886
$L187885:
  0008a	c7 45 d8 00 00
	00 00		 mov	 DWORD PTR tv80[ebp], 0
$L187886:
  00091	8b 45 d8	 mov	 eax, DWORD PTR tv80[ebp]
  00094	89 45 e0	 mov	 DWORD PTR $T187883[ebp], eax
  00097	c7 45 fc ff ff
	ff ff		 mov	 DWORD PTR __$EHRec$[ebp+8], -1
  0009e	8b 45 e0	 mov	 eax, DWORD PTR $T187883[ebp]

; 102  : }

  000a1	52		 push	 edx
  000a2	8b cd		 mov	 ecx, ebp
  000a4	50		 push	 eax
  000a5	8d 15 00 00 00
	00		 lea	 edx, DWORD PTR $L187893
  000ab	e8 00 00 00 00	 call	 @_RTC_CheckStackVars@8
  000b0	58		 pop	 eax
  000b1	5a		 pop	 edx
  000b2	8b 4d f4	 mov	 ecx, DWORD PTR __$EHRec$[ebp]
  000b5	64 89 0d 00 00
	00 00		 mov	 DWORD PTR fs:__except_list, ecx
  000bc	83 c4 28	 add	 esp, 40			; 00000028H
  000bf	3b ec		 cmp	 ebp, esp
  000c1	e8 00 00 00 00	 call	 __RTC_CheckEsp
  000c6	8b e5		 mov	 esp, ebp
  000c8	5d		 pop	 ebp
  000c9	c3		 ret	 0
$L187893:
  000ca	01 00 00 00	 DD	 1
  000ce	00 00 00 00	 DD	 $L187892
$L187892:
  000d2	e8 ff ff ff	 DD	 -24			; ffffffe8H
  000d6	04 00 00 00	 DD	 4
  000da	00 00 00 00	 DD	 $L187890
$L187890:
  000de	63		 DB	 99			; 00000063H
  000df	6c		 DB	 108			; 0000006cH
  000e0	6f		 DB	 111			; 0000006fH
  000e1	6e		 DB	 110			; 0000006eH
  000e2	65		 DB	 101			; 00000065H
  000e3	69		 DB	 105			; 00000069H
  000e4	6d		 DB	 109			; 0000006dH
  000e5	61		 DB	 97			; 00000061H
  000e6	67		 DB	 103			; 00000067H
  000e7	65		 DB	 101			; 00000065H
  000e8	00		 DB	 0
_TEXT	ENDS
;	COMDAT text$x
text$x	SEGMENT
$L187887:
  00000	8b 45 dc	 mov	 eax, DWORD PTR $T187884[ebp]
  00003	50		 push	 eax
  00004	e8 00 00 00 00	 call	 ??3GdiplusBase@Gdiplus@@SAXPAX@Z ; Gdiplus::GdiplusBase::operator delete
  00009	59		 pop	 ecx
  0000a	c3		 ret	 0
__ehhandler$?Clone@Image@Gdiplus@@UAEPAV12@XZ:
  0000b	b8 00 00 00 00	 mov	 eax, OFFSET FLAT:$T187889
  00010	e9 00 00 00 00	 jmp	 ___CxxFrameHandler
text$x	ENDS
?Clone@Image@Gdiplus@@UAEPAV12@XZ ENDP			; Gdiplus::Image::Clone
EXTRN	_GdipAlloc@4:NEAR
; Function compile flags: /Odt /RTCsu
; File d:\program files (x86)\microsoft visual studio .net 2003\vc7\platformsdk\include\gdiplusbase.h
;	COMDAT ??2GdiplusBase@Gdiplus@@SAPAXI@Z
_TEXT	SEGMENT
_in_size$ = 8						; size = 4
??2GdiplusBase@Gdiplus@@SAPAXI@Z PROC NEAR		; Gdiplus::GdiplusBase::operator new, COMDAT

; 26   :     {

  00000	55		 push	 ebp
  00001	8b ec		 mov	 ebp, esp

; 27   :        return DllExports::GdipAlloc(in_size);

  00003	8b 45 08	 mov	 eax, DWORD PTR _in_size$[ebp]
  00006	50		 push	 eax
  00007	e8 00 00 00 00	 call	 _GdipAlloc@4

; 28   :     }

  0000c	3b ec		 cmp	 ebp, esp
  0000e	e8 00 00 00 00	 call	 __RTC_CheckEsp
  00013	5d		 pop	 ebp
  00014	c3		 ret	 0
??2GdiplusBase@Gdiplus@@SAPAXI@Z ENDP			; Gdiplus::GdiplusBase::operator new
; Function compile flags: /Odt /RTCsu
; File d:\program files (x86)\microsoft visual studio .net 2003\vc7\platformsdk\include\gdiplusheaders.h
_TEXT	ENDS
;	COMDAT ?SetStatus@Image@Gdiplus@@IBE?AW4Status@2@W432@@Z
_TEXT	SEGMENT
_this$ = -4						; size = 4
_status$ = 8						; size = 4
?SetStatus@Image@Gdiplus@@IBE?AW4Status@2@W432@@Z PROC NEAR ; Gdiplus::Image::SetStatus, COMDAT
; _this$ = ecx

; 472  :     {

  00000	55		 push	 ebp
  00001	8b ec		 mov	 ebp, esp
  00003	51		 push	 ecx
  00004	c7 45 fc cc cc
	cc cc		 mov	 DWORD PTR [ebp-4], -858993460 ; ccccccccH
  0000b	89 4d fc	 mov	 DWORD PTR _this$[ebp], ecx

; 473  :         if (status != Ok)

  0000e	83 7d 08 00	 cmp	 DWORD PTR _status$[ebp], 0
  00012	74 0e		 je	 SHORT $L109523

; 474  :             return (lastResult = status);

  00014	8b 45 fc	 mov	 eax, DWORD PTR _this$[ebp]
  00017	8b 4d 08	 mov	 ecx, DWORD PTR _status$[ebp]
  0001a	89 48 08	 mov	 DWORD PTR [eax+8], ecx
  0001d	8b 45 08	 mov	 eax, DWORD PTR _status$[ebp]
  00020	eb 03		 jmp	 SHORT $L109522
$L109523:

; 475  :         else
; 476  :             return status;

  00022	8b 45 08	 mov	 eax, DWORD PTR _status$[ebp]
$L109522:

; 477  :     }

  00025	8b e5		 mov	 esp, ebp
  00027	5d		 pop	 ebp
  00028	c2 04 00	 ret	 4
?SetStatus@Image@Gdiplus@@IBE?AW4Status@2@W432@@Z ENDP	; Gdiplus::Image::SetStatus
_TEXT	ENDS
EXTRN	_GdipGetImageWidth@8:NEAR
; Function compile flags: /Odt /RTCsu
; File d:\program files (x86)\microsoft visual studio .net 2003\vc7\platformsdk\include\gdiplusbitmap.h
;	COMDAT ?GetWidth@Image@Gdiplus@@QAEIXZ
_TEXT	SEGMENT
_width$ = -12						; size = 4
_this$ = -4						; size = 4
?GetWidth@Image@Gdiplus@@QAEIXZ PROC NEAR		; Gdiplus::Image::GetWidth, COMDAT
; _this$ = ecx

; 225  : {

  00000	55		 push	 ebp
  00001	8b ec		 mov	 ebp, esp
  00003	83 ec 10	 sub	 esp, 16			; 00000010H
  00006	b8 cc cc cc cc	 mov	 eax, -858993460		; ccccccccH
  0000b	89 45 f0	 mov	 DWORD PTR [ebp-16], eax
  0000e	89 45 f4	 mov	 DWORD PTR [ebp-12], eax
  00011	89 45 f8	 mov	 DWORD PTR [ebp-8], eax
  00014	89 45 fc	 mov	 DWORD PTR [ebp-4], eax
  00017	89 4d fc	 mov	 DWORD PTR _this$[ebp], ecx

; 226  :     UINT width = 0;

  0001a	c7 45 f4 00 00
	00 00		 mov	 DWORD PTR _width$[ebp], 0

; 227  : 
; 228  :     SetStatus(DllExports::GdipGetImageWidth(nativeImage, &width));

  00021	8d 45 f4	 lea	 eax, DWORD PTR _width$[ebp]
  00024	50		 push	 eax
  00025	8b 4d fc	 mov	 ecx, DWORD PTR _this$[ebp]
  00028	8b 51 04	 mov	 edx, DWORD PTR [ecx+4]
  0002b	52		 push	 edx
  0002c	e8 00 00 00 00	 call	 _GdipGetImageWidth@8
  00031	50		 push	 eax
  00032	8b 4d fc	 mov	 ecx, DWORD PTR _this$[ebp]
  00035	e8 00 00 00 00	 call	 ?SetStatus@Image@Gdiplus@@IBE?AW4Status@2@W432@@Z ; Gdiplus::Image::SetStatus

; 229  : 
; 230  :     return width;

  0003a	8b 45 f4	 mov	 eax, DWORD PTR _width$[ebp]

; 231  : }

  0003d	52		 push	 edx
  0003e	8b cd		 mov	 ecx, ebp
  00040	50		 push	 eax
  00041	8d 15 00 00 00
	00		 lea	 edx, DWORD PTR $L187902
  00047	e8 00 00 00 00	 call	 @_RTC_CheckStackVars@8
  0004c	58		 pop	 eax
  0004d	5a		 pop	 edx
  0004e	83 c4 10	 add	 esp, 16			; 00000010H
  00051	3b ec		 cmp	 ebp, esp
  00053	e8 00 00 00 00	 call	 __RTC_CheckEsp
  00058	8b e5		 mov	 esp, ebp
  0005a	5d		 pop	 ebp
  0005b	c3		 ret	 0
$L187902:
  0005c	01 00 00 00	 DD	 1
  00060	00 00 00 00	 DD	 $L187901
$L187901:
  00064	f4 ff ff ff	 DD	 -12			; fffffff4H
  00068	04 00 00 00	 DD	 4
  0006c	00 00 00 00	 DD	 $L187900
$L187900:
  00070	77		 DB	 119			; 00000077H
  00071	69		 DB	 105			; 00000069H
  00072	64		 DB	 100			; 00000064H
  00073	74		 DB	 116			; 00000074H
  00074	68		 DB	 104			; 00000068H
  00075	00		 DB	 0
?GetWidth@Image@Gdiplus@@QAEIXZ ENDP			; Gdiplus::Image::GetWidth
_TEXT	ENDS
EXTRN	_GdipGetImageHeight@8:NEAR
; Function compile flags: /Odt /RTCsu
;	COMDAT ?GetHeight@Image@Gdiplus@@QAEIXZ
_TEXT	SEGMENT
_height$ = -12						; size = 4
_this$ = -4						; size = 4
?GetHeight@Image@Gdiplus@@QAEIXZ PROC NEAR		; Gdiplus::Image::GetHeight, COMDAT
; _this$ = ecx

; 235  : {

  00000	55		 push	 ebp
  00001	8b ec		 mov	 ebp, esp
  00003	83 ec 10	 sub	 esp, 16			; 00000010H
  00006	b8 cc cc cc cc	 mov	 eax, -858993460		; ccccccccH
  0000b	89 45 f0	 mov	 DWORD PTR [ebp-16], eax
  0000e	89 45 f4	 mov	 DWORD PTR [ebp-12], eax
  00011	89 45 f8	 mov	 DWORD PTR [ebp-8], eax
  00014	89 45 fc	 mov	 DWORD PTR [ebp-4], eax
  00017	89 4d fc	 mov	 DWORD PTR _this$[ebp], ecx

; 236  :     UINT height = 0;

  0001a	c7 45 f4 00 00
	00 00		 mov	 DWORD PTR _height$[ebp], 0

; 237  : 
; 238  :     SetStatus(DllExports::GdipGetImageHeight(nativeImage, &height));

  00021	8d 45 f4	 lea	 eax, DWORD PTR _height$[ebp]
  00024	50		 push	 eax
  00025	8b 4d fc	 mov	 ecx, DWORD PTR _this$[ebp]
  00028	8b 51 04	 mov	 edx, DWORD PTR [ecx+4]
  0002b	52		 push	 edx
  0002c	e8 00 00 00 00	 call	 _GdipGetImageHeight@8
  00031	50		 push	 eax
  00032	8b 4d fc	 mov	 ecx, DWORD PTR _this$[ebp]
  00035	e8 00 00 00 00	 call	 ?SetStatus@Image@Gdiplus@@IBE?AW4Status@2@W432@@Z ; Gdiplus::Image::SetStatus

; 239  : 
; 240  :     return height;

  0003a	8b 45 f4	 mov	 eax, DWORD PTR _height$[ebp]

; 241  : }

  0003d	52		 push	 edx
  0003e	8b cd		 mov	 ecx, ebp
  00040	50		 push	 eax
  00041	8d 15 00 00 00
	00		 lea	 edx, DWORD PTR $L187906
  00047	e8 00 00 00 00	 call	 @_RTC_CheckStackVars@8
  0004c	58		 pop	 eax
  0004d	5a		 pop	 edx
  0004e	83 c4 10	 add	 esp, 16			; 00000010H
  00051	3b ec		 cmp	 ebp, esp
  00053	e8 00 00 00 00	 call	 __RTC_CheckEsp
  00058	8b e5		 mov	 esp, ebp
  0005a	5d		 pop	 ebp
  0005b	c3		 ret	 0
$L187906:
  0005c	01 00 00 00	 DD	 1
  00060	00 00 00 00	 DD	 $L187905
$L187905:
  00064	f4 ff ff ff	 DD	 -12			; fffffff4H
  00068	04 00 00 00	 DD	 4
  0006c	00 00 00 00	 DD	 $L187904
$L187904:
  00070	68		 DB	 104			; 00000068H
  00071	65		 DB	 101			; 00000065H
  00072	69		 DB	 105			; 00000069H
  00073	67		 DB	 103			; 00000067H
  00074	68		 DB	 104			; 00000068H
  00075	74		 DB	 116			; 00000074H
  00076	00		 DB	 0
?GetHeight@Image@Gdiplus@@QAEIXZ ENDP			; Gdiplus::Image::GetHeight
; Function compile flags: /Odt /RTCsu
_TEXT	ENDS
;	COMDAT ?GetLastStatus@Image@Gdiplus@@QBE?AW4Status@2@XZ
_TEXT	SEGMENT
_lastStatus$ = -8					; size = 4
_this$ = -4						; size = 4
?GetLastStatus@Image@Gdiplus@@QBE?AW4Status@2@XZ PROC NEAR ; Gdiplus::Image::GetLastStatus, COMDAT
; _this$ = ecx

; 488  : {

  00000	55		 push	 ebp
  00001	8b ec		 mov	 ebp, esp
  00003	83 ec 08	 sub	 esp, 8
  00006	c7 45 f8 cc cc
	cc cc		 mov	 DWORD PTR [ebp-8], -858993460 ; ccccccccH
  0000d	c7 45 fc cc cc
	cc cc		 mov	 DWORD PTR [ebp-4], -858993460 ; ccccccccH
  00014	89 4d fc	 mov	 DWORD PTR _this$[ebp], ecx

; 489  :     Status lastStatus = lastResult;

  00017	8b 45 fc	 mov	 eax, DWORD PTR _this$[ebp]
  0001a	8b 48 08	 mov	 ecx, DWORD PTR [eax+8]
  0001d	89 4d f8	 mov	 DWORD PTR _lastStatus$[ebp], ecx

; 490  :     lastResult = Ok;

  00020	8b 55 fc	 mov	 edx, DWORD PTR _this$[ebp]
  00023	c7 42 08 00 00
	00 00		 mov	 DWORD PTR [edx+8], 0

; 491  : 
; 492  :     return lastStatus;

  0002a	8b 45 f8	 mov	 eax, DWORD PTR _lastStatus$[ebp]

; 493  : }

  0002d	8b e5		 mov	 esp, ebp
  0002f	5d		 pop	 ebp
  00030	c3		 ret	 0
?GetLastStatus@Image@Gdiplus@@QBE?AW4Status@2@XZ ENDP	; Gdiplus::Image::GetLastStatus
_TEXT	ENDS
PUBLIC	?SetNativeImage@Image@Gdiplus@@IAEXPAVGpImage@2@@Z ; Gdiplus::Image::SetNativeImage
; Function compile flags: /Odt /RTCsu
;	COMDAT ??0Image@Gdiplus@@IAE@PAVGpImage@1@W4Status@1@@Z
_TEXT	SEGMENT
_this$ = -4						; size = 4
_nativeImage$ = 8					; size = 4
_status$ = 12						; size = 4
??0Image@Gdiplus@@IAE@PAVGpImage@1@W4Status@1@@Z PROC NEAR ; Gdiplus::Image::Image, COMDAT
; _this$ = ecx

; 497  : {

  00000	55		 push	 ebp
  00001	8b ec		 mov	 ebp, esp
  00003	51		 push	 ecx
  00004	c7 45 fc cc cc
	cc cc		 mov	 DWORD PTR [ebp-4], -858993460 ; ccccccccH
  0000b	89 4d fc	 mov	 DWORD PTR _this$[ebp], ecx
  0000e	8b 45 fc	 mov	 eax, DWORD PTR _this$[ebp]
  00011	c7 00 00 00 00
	00		 mov	 DWORD PTR [eax], OFFSET FLAT:??_7Image@Gdiplus@@6B@

; 498  :     SetNativeImage(nativeImage);

  00017	8b 4d 08	 mov	 ecx, DWORD PTR _nativeImage$[ebp]
  0001a	51		 push	 ecx
  0001b	8b 4d fc	 mov	 ecx, DWORD PTR _this$[ebp]
  0001e	e8 00 00 00 00	 call	 ?SetNativeImage@Image@Gdiplus@@IAEXPAVGpImage@2@@Z ; Gdiplus::Image::SetNativeImage

; 499  :     lastResult = status;

  00023	8b 55 fc	 mov	 edx, DWORD PTR _this$[ebp]
  00026	8b 45 0c	 mov	 eax, DWORD PTR _status$[ebp]
  00029	89 42 08	 mov	 DWORD PTR [edx+8], eax

; 500  : }

  0002c	8b 45 fc	 mov	 eax, DWORD PTR _this$[ebp]
  0002f	83 c4 04	 add	 esp, 4
  00032	3b ec		 cmp	 ebp, esp
  00034	e8 00 00 00 00	 call	 __RTC_CheckEsp
  00039	8b e5		 mov	 esp, ebp
  0003b	5d		 pop	 ebp
  0003c	c2 08 00	 ret	 8
??0Image@Gdiplus@@IAE@PAVGpImage@1@W4Status@1@@Z ENDP	; Gdiplus::Image::Image
; Function compile flags: /Odt /RTCsu
_TEXT	ENDS
;	COMDAT ?SetNativeImage@Image@Gdiplus@@IAEXPAVGpImage@2@@Z
_TEXT	SEGMENT
_this$ = -4						; size = 4
_nativeImage$ = 8					; size = 4
?SetNativeImage@Image@Gdiplus@@IAEXPAVGpImage@2@@Z PROC NEAR ; Gdiplus::Image::SetNativeImage, COMDAT
; _this$ = ecx

; 504  : {

  00000	55		 push	 ebp
  00001	8b ec		 mov	 ebp, esp
  00003	51		 push	 ecx
  00004	c7 45 fc cc cc
	cc cc		 mov	 DWORD PTR [ebp-4], -858993460 ; ccccccccH
  0000b	89 4d fc	 mov	 DWORD PTR _this$[ebp], ecx

; 505  :     this->nativeImage = nativeImage;

  0000e	8b 45 fc	 mov	 eax, DWORD PTR _this$[ebp]
  00011	8b 4d 08	 mov	 ecx, DWORD PTR _nativeImage$[ebp]
  00014	89 48 04	 mov	 DWORD PTR [eax+4], ecx

; 506  : }

  00017	8b e5		 mov	 esp, ebp
  00019	5d		 pop	 ebp
  0001a	c2 04 00	 ret	 4
?SetNativeImage@Image@Gdiplus@@IAEXPAVGpImage@2@@Z ENDP	; Gdiplus::Image::SetNativeImage
_TEXT	ENDS
END
