; Listing generated by Microsoft (R) Optimizing Compiler Version 13.10.3077 

	TITLE	.\src\Gui\CommonControl\EditEx.cpp
	.386P
include listing.inc
if @Version gt 510
.model FLAT
else
_TEXT	SEGMENT PARA USE32 PUBLIC 'CODE'
_TEXT	ENDS
_DATA	SEGMENT DWORD USE32 PUBLIC 'DATA'
_DATA	ENDS
CONST	SEGMENT DWORD USE32 PUBLIC 'CONST'
CONST	ENDS
_BSS	SEGMENT DWORD USE32 PUBLIC 'BSS'
_BSS	ENDS
$$SYMBOLS	SEGMENT BYTE USE32 'DEBSYM'
$$SYMBOLS	ENDS
_TLS	SEGMENT DWORD USE32 PUBLIC 'TLS'
_TLS	ENDS
;	COMDAT ??_C@_0EN@IBFBLEEG@D?3?2Program?5Files?5?$CIx86?$CJ?2Microsoft@
CONST	SEGMENT DWORD USE32 PUBLIC 'CONST'
CONST	ENDS
;	COMDAT ??_C@_0BK@JOOHECM@nNewLength?5?$DM?$DN?5GetLength?$CI?$CJ?$AA@
CONST	SEGMENT DWORD USE32 PUBLIC 'CONST'
CONST	ENDS
rdata$r	SEGMENT DWORD USE32 PUBLIC 'CONST'
rdata$r	ENDS
xdata$x	SEGMENT DWORD USE32 PUBLIC 'CONST'
xdata$x	ENDS
text$AFX_COL1	SEGMENT PARA USE32 PUBLIC ''
text$AFX_COL1	ENDS
text$yc	SEGMENT PARA USE32 PUBLIC 'CODE'
text$yc	ENDS
CRT$XCA	SEGMENT DWORD USE32 PUBLIC 'DATA'
CRT$XCA	ENDS
CRT$XCU	SEGMENT DWORD USE32 PUBLIC 'DATA'
CRT$XCU	ENDS
CRT$XCL	SEGMENT DWORD USE32 PUBLIC 'DATA'
CRT$XCL	ENDS
CRT$XCC	SEGMENT DWORD USE32 PUBLIC 'DATA'
CRT$XCC	ENDS
CRT$XCZ	SEGMENT DWORD USE32 PUBLIC 'DATA'
CRT$XCZ	ENDS
text$yd	SEGMENT PARA USE32 PUBLIC 'CODE'
text$yd	ENDS
ATL$__m	SEGMENT DWORD USE32 PUBLIC ''
ATL$__m	ENDS
ATL$__z	SEGMENT DWORD USE32 PUBLIC ''
ATL$__z	ENDS
ATL$__a	SEGMENT DWORD USE32 PUBLIC ''
ATL$__a	ENDS
;	COMDAT ??_GCEditEx@@UAEPAXI@Z
_TEXT	SEGMENT PARA USE32 PUBLIC 'CODE'
_TEXT	ENDS
;	COMDAT ??B?$CComPtrBase@UITypeInfo2@@@ATL@@QBEPAUITypeInfo2@@XZ
_TEXT	SEGMENT PARA USE32 PUBLIC 'CODE'
_TEXT	ENDS
;	COMDAT ?equal@?$istreambuf_iterator@DU?$char_traits@D@std@@@std@@QBE_NABV12@@Z
_TEXT	SEGMENT PARA USE32 PUBLIC 'CODE'
_TEXT	ENDS
;	COMDAT ?equal@?$istreambuf_iterator@_WU?$char_traits@_W@std@@@std@@QBE_NABV12@@Z
_TEXT	SEGMENT PARA USE32 PUBLIC 'CODE'
_TEXT	ENDS
;	COMDAT ?CharNextA@?$ChTraitsCRT@D@ATL@@SAPADPBD@Z
_TEXT	SEGMENT PARA USE32 PUBLIC 'CODE'
_TEXT	ENDS
;	COMDAT ?IsSpace@?$ChTraitsCRT@D@ATL@@SAHD@Z
_TEXT	SEGMENT PARA USE32 PUBLIC 'CODE'
_TEXT	ENDS
;	COMDAT ?Unlock@?$CComCritSecLock@VCComCriticalSection@ATL@@@ATL@@QAEXXZ
_TEXT	SEGMENT PARA USE32 PUBLIC 'CODE'
_TEXT	ENDS
;	COMDAT ??$_Maklocstr@D@std@@YAPADPBDPADABU_Cvtvec@@@Z
_TEXT	SEGMENT PARA USE32 PUBLIC 'CODE'
_TEXT	ENDS
;	COMDAT ??_R3CEditEx@@8
rdata$r	SEGMENT DWORD USE32 PUBLIC 'CONST'
rdata$r	ENDS
;	COMDAT ??_R3?$numpunct@_W@std@@8
rdata$r	SEGMENT DWORD USE32 PUBLIC 'CONST'
rdata$r	ENDS
;	COMDAT ??_R3?$numpunct@D@std@@8
rdata$r	SEGMENT DWORD USE32 PUBLIC 'CONST'
rdata$r	ENDS
;	COMDAT ??_R2CEditEx@@8
rdata$r	SEGMENT DWORD USE32 PUBLIC 'CONST'
rdata$r	ENDS
;	COMDAT ??_R2?$numpunct@_W@std@@8
rdata$r	SEGMENT DWORD USE32 PUBLIC 'CONST'
rdata$r	ENDS
;	COMDAT ??_R2?$numpunct@D@std@@8
rdata$r	SEGMENT DWORD USE32 PUBLIC 'CONST'
rdata$r	ENDS
;	COMDAT ??_R1A@?0A@A@CObject@@8
rdata$r	SEGMENT DWORD USE32 PUBLIC 'CONST'
rdata$r	ENDS
;	COMDAT ??_R0?AVCObject@@@8
_DATA	SEGMENT DWORD USE32 PUBLIC 'DATA'
_DATA	ENDS
;	COMDAT ??_R1A@?0A@A@CCmdTarget@@8
rdata$r	SEGMENT DWORD USE32 PUBLIC 'CONST'
rdata$r	ENDS
;	COMDAT ??_R0?AVCCmdTarget@@@8
_DATA	SEGMENT DWORD USE32 PUBLIC 'DATA'
_DATA	ENDS
;	COMDAT ??_R1A@?0A@A@CWnd@@8
rdata$r	SEGMENT DWORD USE32 PUBLIC 'CONST'
rdata$r	ENDS
;	COMDAT ??_R0?AVCWnd@@@8
_DATA	SEGMENT DWORD USE32 PUBLIC 'DATA'
_DATA	ENDS
;	COMDAT ??_R1A@?0A@A@CEdit@@8
rdata$r	SEGMENT DWORD USE32 PUBLIC 'CONST'
rdata$r	ENDS
;	COMDAT ??_R1A@?0A@A@CEditEx@@8
rdata$r	SEGMENT DWORD USE32 PUBLIC 'CONST'
rdata$r	ENDS
;	COMDAT ??_R1A@?0A@A@?$numpunct@_W@std@@8
rdata$r	SEGMENT DWORD USE32 PUBLIC 'CONST'
rdata$r	ENDS
;	COMDAT ??_R1A@?0A@A@facet@locale@std@@8
rdata$r	SEGMENT DWORD USE32 PUBLIC 'CONST'
rdata$r	ENDS
;	COMDAT ??_R0?AVfacet@locale@std@@@8
_DATA	SEGMENT DWORD USE32 PUBLIC 'DATA'
_DATA	ENDS
;	COMDAT ??_R1A@?0A@A@?$numpunct@D@std@@8
rdata$r	SEGMENT DWORD USE32 PUBLIC 'CONST'
rdata$r	ENDS
;	COMDAT ??_R0?AVCEdit@@@8
_DATA	SEGMENT DWORD USE32 PUBLIC 'DATA'
_DATA	ENDS
;	COMDAT ??_R0?AVCEditEx@@@8
_DATA	SEGMENT DWORD USE32 PUBLIC 'DATA'
_DATA	ENDS
;	COMDAT ??_R0?AV?$numpunct@_W@std@@@8
_DATA	SEGMENT DWORD USE32 PUBLIC 'DATA'
_DATA	ENDS
;	COMDAT ??_R0?AV?$numpunct@D@std@@@8
_DATA	SEGMENT DWORD USE32 PUBLIC 'DATA'
_DATA	ENDS
;	COMDAT ??_R4CEditEx@@6B@
rdata$r	SEGMENT DWORD USE32 PUBLIC 'CONST'
rdata$r	ENDS
;	COMDAT ??0?$allocator@_W@std@@QAE@XZ
_TEXT	SEGMENT PARA USE32 PUBLIC 'CODE'
_TEXT	ENDS
;	COMDAT ??0?$allocator@D@std@@QAE@ABV01@@Z
_TEXT	SEGMENT PARA USE32 PUBLIC 'CODE'
_TEXT	ENDS
;	COMDAT ??0?$allocator@D@std@@QAE@XZ
_TEXT	SEGMENT PARA USE32 PUBLIC 'CODE'
_TEXT	ENDS
;	COMDAT ?deallocate@?$allocator@D@std@@QAEXPADI@Z
_TEXT	SEGMENT PARA USE32 PUBLIC 'CODE'
_TEXT	ENDS
;	COMDAT ?max_size@?$allocator@D@std@@QBEIXZ
_TEXT	SEGMENT PARA USE32 PUBLIC 'CODE'
_TEXT	ENDS
;	COMDAT ?allocate@?$allocator@D@std@@QAEPADI@Z
_TEXT	SEGMENT PARA USE32 PUBLIC 'CODE'
_TEXT	ENDS
;	COMDAT ??$_Allocate@D@std@@YAPADIPAD@Z
_TEXT	SEGMENT PARA USE32 PUBLIC 'CODE'
_TEXT	ENDS
;	COMDAT ??_G?$numpunct@_W@std@@MAEPAXI@Z
_TEXT	SEGMENT PARA USE32 PUBLIC 'CODE'
_TEXT	ENDS
;	COMDAT ??_R4?$numpunct@_W@std@@6B@
rdata$r	SEGMENT DWORD USE32 PUBLIC 'CONST'
rdata$r	ENDS
;	COMDAT ??_G?$numpunct@D@std@@MAEPAXI@Z
_TEXT	SEGMENT PARA USE32 PUBLIC 'CODE'
_TEXT	ENDS
;	COMDAT ??_R4?$numpunct@D@std@@6B@
rdata$r	SEGMENT DWORD USE32 PUBLIC 'CONST'
rdata$r	ENDS
;	COMDAT ??_C@_0EN@CBMLGOH@D?3?2Program?5Files?5?$CIx86?$CJ?2Microsoft@
CONST	SEGMENT DWORD USE32 PUBLIC 'CONST'
CONST	ENDS
;	COMDAT ?_Psave@?$_Facetptr@V?$numpunct@_W@std@@@std@@2PBVfacet@locale@2@B
_DATA	SEGMENT DWORD USE32 PUBLIC 'DATA'
_DATA	ENDS
;	COMDAT ?_Psave@?$_Facetptr@V?$numpunct@D@std@@@std@@2PBVfacet@locale@2@B
_DATA	SEGMENT DWORD USE32 PUBLIC 'DATA'
_DATA	ENDS
;	COMDAT ?Unlock@CComCriticalSection@ATL@@QAEJXZ
_TEXT	SEGMENT PARA USE32 PUBLIC 'CODE'
_TEXT	ENDS
;	COMDAT ??_C@_0FG@LDNDNCJM@D?3?2Program?5Files?5?$CIx86?$CJ?2Microsoft@
CONST	SEGMENT DWORD USE32 PUBLIC 'CONST'
CONST	ENDS
;	COMDAT ??_C@_09HIEJFN@m_bLocked?$AA@
CONST	SEGMENT DWORD USE32 PUBLIC 'CONST'
CONST	ENDS
;	COMDAT ?_Psave@?$_Facetptr@V?$ctype@_W@std@@@std@@2PBVfacet@locale@2@B
_DATA	SEGMENT DWORD USE32 PUBLIC 'DATA'
_DATA	ENDS
;	COMDAT ?_Psave@?$_Facetptr@V?$ctype@D@std@@@std@@2PBVfacet@locale@2@B
_DATA	SEGMENT DWORD USE32 PUBLIC 'DATA'
_DATA	ENDS
;	COMDAT ??$_Maklocchr@_W@std@@YA_WDPA_WABU_Cvtvec@@@Z
_TEXT	SEGMENT PARA USE32 PUBLIC 'CODE'
_TEXT	ENDS
;	COMDAT ??$_DebugHeapDelete@X@std@@YAXPAX@Z
_TEXT	SEGMENT PARA USE32 PUBLIC 'CODE'
_TEXT	ENDS
;	COMDAT ??$_Maklocstr@_W@std@@YAPA_WPBDPA_WABU_Cvtvec@@@Z
_TEXT	SEGMENT PARA USE32 PUBLIC 'CODE'
_TEXT	ENDS
;	COMDAT ??$_Maklocchr@D@std@@YADDPADABU_Cvtvec@@@Z
_TEXT	SEGMENT PARA USE32 PUBLIC 'CODE'
_TEXT	ENDS
;	COMDAT ??_C@_04LOAJBDKD@true?$AA@
CONST	SEGMENT DWORD USE32 PUBLIC 'CONST'
CONST	ENDS
;	COMDAT ??_C@_05LAPONLG@false?$AA@
CONST	SEGMENT DWORD USE32 PUBLIC 'CONST'
CONST	ENDS
;	COMDAT _wmemcpy
_TEXT	SEGMENT PARA USE32 PUBLIC 'CODE'
_TEXT	ENDS
;	COMDAT ?max_size@?$allocator@_W@std@@QBEIXZ
_TEXT	SEGMENT PARA USE32 PUBLIC 'CODE'
_TEXT	ENDS
;	COMDAT ?allocate@?$allocator@_W@std@@QAEPA_WI@Z
_TEXT	SEGMENT PARA USE32 PUBLIC 'CODE'
_TEXT	ENDS
;	COMDAT ??$_Allocate@_W@std@@YAPA_WIPA_W@Z
_TEXT	SEGMENT PARA USE32 PUBLIC 'CODE'
_TEXT	ENDS
;	COMDAT ??_C@_0FJ@DMHPDOJC@D?3?2Program?5Files?5?$CIx86?$CJ?2Microsoft@
CONST	SEGMENT DWORD USE32 PUBLIC 'CONST'
CONST	ENDS
;	COMDAT ??_C@_01GFHCPBMG@C?$AA@
CONST	SEGMENT DWORD USE32 PUBLIC 'CONST'
CONST	ENDS
;	COMDAT ??_C@_0BA@GNIEOBOF@nNewLength?5?$DO?$DN?50?$AA@
CONST	SEGMENT DWORD USE32 PUBLIC 'CONST'
CONST	ENDS
;	COMDAT ??_C@_0N@ILOMLJGA@nLength?5?$DO?$DN?50?$AA@
CONST	SEGMENT DWORD USE32 PUBLIC 'CONST'
CONST	ENDS
;	COMDAT ??_C@_0CD@EEFFJEGJ@nLength?5?$DM?$DN?5GetData?$CI?$CJ?9?$DOnAllocLeng@
CONST	SEGMENT DWORD USE32 PUBLIC 'CONST'
CONST	ENDS
;	COMDAT ?AtlThrow@ATL@@YGXJ@Z
_TEXT	SEGMENT PARA USE32 PUBLIC 'CODE'
_TEXT	ENDS
;	COMDAT ??RCTraceFileAndLineInfo@ATL@@QBAXKIPBDZZ
_TEXT	SEGMENT PARA USE32 PUBLIC 'CODE'
_TEXT	ENDS
;	COMDAT ?TraceV@CTrace@ATL@@QBAXPBDHKI0PAD@Z
_TEXT	SEGMENT PARA USE32 PUBLIC 'CODE'
_TEXT	ENDS
;	COMDAT ??0CTraceFileAndLineInfo@ATL@@QAE@PBDH@Z
_TEXT	SEGMENT PARA USE32 PUBLIC 'CODE'
_TEXT	ENDS
;	COMDAT ??_C@_0FI@NHHJANPC@D?3?2Program?5Files?5?$CIx86?$CJ?2Microsoft@
CONST	SEGMENT DWORD USE32 PUBLIC 'CONST'
CONST	ENDS
;	COMDAT ??_C@_0BF@IAAKIJDJ@AtlThrow?3?5hr?5?$DN?50x?$CFx?6?$AA@
CONST	SEGMENT DWORD USE32 PUBLIC 'CONST'
CONST	ENDS
;	COMDAT ??BCTraceCategory@ATL@@QBEKXZ
_TEXT	SEGMENT PARA USE32 PUBLIC 'CODE'
_TEXT	ENDS
;	COMDAT ?IsShared@CStringData@ATL@@QBE_NXZ
_TEXT	SEGMENT PARA USE32 PUBLIC 'CODE'
_TEXT	ENDS
;	COMDAT ?data@CStringData@ATL@@QAEPAXXZ
_TEXT	SEGMENT PARA USE32 PUBLIC 'CODE'
_TEXT	ENDS
;	COMDAT ?Release@CStringData@ATL@@QAEXXZ
_TEXT	SEGMENT PARA USE32 PUBLIC 'CODE'
_TEXT	ENDS
;	COMDAT ??_C@_0L@OIIMFBNE@nRefs?5?$CB?$DN?50?$AA@
CONST	SEGMENT DWORD USE32 PUBLIC 'CONST'
CONST	ENDS
;	COMDAT ??_C@_0CB@GFHAPKDK@pOldData?9?$DOnAllocLength?5?$DM?5nLength@
CONST	SEGMENT DWORD USE32 PUBLIC 'CONST'
CONST	ENDS
;	COMDAT ?_Peek@?$istreambuf_iterator@_WU?$char_traits@_W@std@@@std@@AAE_WXZ
_TEXT	SEGMENT PARA USE32 PUBLIC 'CODE'
_TEXT	ENDS
;	COMDAT ?_Peek@?$istreambuf_iterator@DU?$char_traits@D@std@@@std@@AAEDXZ
_TEXT	SEGMENT PARA USE32 PUBLIC 'CODE'
_TEXT	ENDS
;	COMDAT ??$use_facet@V?$ctype@_W@std@@@std@@YAABV?$ctype@_W@0@ABVlocale@0@@Z
_TEXT	SEGMENT PARA USE32 PUBLIC 'CODE'
_TEXT	ENDS
;	COMDAT ??_S?$ctype@_W@std@@6B@
CONST	SEGMENT DWORD USE32 PUBLIC 'CONST'
CONST	ENDS
;	COMDAT ??_R4?$ctype@_W@std@@6B@
rdata$r	SEGMENT DWORD USE32 PUBLIC 'CONST'
rdata$r	ENDS
;	COMDAT ??_R0?AV?$ctype@_W@std@@@8
_DATA	SEGMENT DWORD USE32 PUBLIC 'DATA'
_DATA	ENDS
;	COMDAT ??_R3?$ctype@_W@std@@8
rdata$r	SEGMENT DWORD USE32 PUBLIC 'CONST'
rdata$r	ENDS
;	COMDAT ??_R2?$ctype@_W@std@@8
rdata$r	SEGMENT DWORD USE32 PUBLIC 'CONST'
rdata$r	ENDS
;	COMDAT ??_R1A@?0A@A@?$ctype@_W@std@@8
rdata$r	SEGMENT DWORD USE32 PUBLIC 'CONST'
rdata$r	ENDS
;	COMDAT ??_R1A@?0A@A@ctype_base@std@@8
rdata$r	SEGMENT DWORD USE32 PUBLIC 'CONST'
rdata$r	ENDS
;	COMDAT ??_R0?AUctype_base@std@@@8
_DATA	SEGMENT DWORD USE32 PUBLIC 'DATA'
_DATA	ENDS
;	COMDAT ??_G?$ctype@_W@std@@MAEPAXI@Z
_TEXT	SEGMENT PARA USE32 PUBLIC 'CODE'
_TEXT	ENDS
;	COMDAT ??_C@_08EPJLHIJG@bad?5cast?$AA@
CONST	SEGMENT DWORD USE32 PUBLIC 'CONST'
CONST	ENDS
;	COMDAT __TI2?AVbad_cast@@
xdata$x	SEGMENT DWORD USE32 PUBLIC 'CONST'
xdata$x	ENDS
;	COMDAT __CTA2?AVbad_cast@@
xdata$x	SEGMENT DWORD USE32 PUBLIC 'CONST'
xdata$x	ENDS
;	COMDAT __CT??_R0?AVbad_cast@@@8??0bad_cast@@QAE@ABV0@@Z12
xdata$x	SEGMENT DWORD USE32 PUBLIC 'CONST'
xdata$x	ENDS
;	COMDAT ??_R0?AVbad_cast@@@8
_DATA	SEGMENT DWORD USE32 PUBLIC 'DATA'
_DATA	ENDS
;	COMDAT __CT??_R0?AVexception@@@8??0exception@@QAE@ABV0@@Z12
xdata$x	SEGMENT DWORD USE32 PUBLIC 'CONST'
xdata$x	ENDS
;	COMDAT ??_R0?AVexception@@@8
_DATA	SEGMENT DWORD USE32 PUBLIC 'DATA'
_DATA	ENDS
;	COMDAT ??$_DebugHeapDelete@Vfacet@locale@std@@@std@@YAXPAVfacet@locale@0@@Z
_TEXT	SEGMENT PARA USE32 PUBLIC 'CODE'
_TEXT	ENDS
;	COMDAT ??$use_facet@V?$ctype@D@std@@@std@@YAABV?$ctype@D@0@ABVlocale@0@@Z
_TEXT	SEGMENT PARA USE32 PUBLIC 'CODE'
_TEXT	ENDS
;	COMDAT ??_S?$ctype@D@std@@6B@
CONST	SEGMENT DWORD USE32 PUBLIC 'CONST'
CONST	ENDS
;	COMDAT ??_R4?$ctype@D@std@@6B@
rdata$r	SEGMENT DWORD USE32 PUBLIC 'CONST'
rdata$r	ENDS
;	COMDAT ??_R0?AV?$ctype@D@std@@@8
_DATA	SEGMENT DWORD USE32 PUBLIC 'DATA'
_DATA	ENDS
;	COMDAT ??_R3?$ctype@D@std@@8
rdata$r	SEGMENT DWORD USE32 PUBLIC 'CONST'
rdata$r	ENDS
;	COMDAT ??_R2?$ctype@D@std@@8
rdata$r	SEGMENT DWORD USE32 PUBLIC 'CONST'
rdata$r	ENDS
;	COMDAT ??_R1A@?0A@A@?$ctype@D@std@@8
rdata$r	SEGMENT DWORD USE32 PUBLIC 'CONST'
rdata$r	ENDS
;	COMDAT ??_G?$ctype@D@std@@MAEPAXI@Z
_TEXT	SEGMENT PARA USE32 PUBLIC 'CODE'
_TEXT	ENDS
;	COMDAT ??_S?$numpunct@_W@std@@6B@
CONST	SEGMENT DWORD USE32 PUBLIC 'CONST'
CONST	ENDS
;	COMDAT ??_S?$numpunct@D@std@@6B@
CONST	SEGMENT DWORD USE32 PUBLIC 'CONST'
CONST	ENDS
;	COMDAT _wmemmove
_TEXT	SEGMENT PARA USE32 PUBLIC 'CODE'
_TEXT	ENDS
;	COMDAT ?deallocate@?$allocator@_W@std@@QAEXPA_WI@Z
_TEXT	SEGMENT PARA USE32 PUBLIC 'CODE'
_TEXT	ENDS
;	COMDAT ??0?$allocator@_W@std@@QAE@ABV01@@Z
_TEXT	SEGMENT PARA USE32 PUBLIC 'CODE'
_TEXT	ENDS
;	COMDAT ?IsLocked@CStringData@ATL@@QBE_NXZ
_TEXT	SEGMENT PARA USE32 PUBLIC 'CODE'
_TEXT	ENDS
;	COMDAT ??_C@_0BA@GOIMFHNK@pStringMgr?5?$CB?$DN?50?$AA@
CONST	SEGMENT DWORD USE32 PUBLIC 'CONST'
CONST	ENDS
;	COMDAT ?GetDefaultManager@?$StrTraitMFC_DLL@DV?$ChTraitsCRT@D@ATL@@@@SAPAUIAtlStringMgr@ATL@@XZ
_TEXT	SEGMENT PARA USE32 PUBLIC 'CODE'
_TEXT	ENDS
;	COMDAT ?_messageEntries@CEditEx@@0QBUAFX_MSGMAP_ENTRY@@B
CONST	SEGMENT DWORD USE32 PUBLIC 'CONST'
CONST	ENDS
;	COMDAT ?messageMap@CEditEx@@1UAFX_MSGMAP@@B
CONST	SEGMENT DWORD USE32 PUBLIC 'CONST'
CONST	ENDS
;	COMDAT ??_7CEditEx@@6B@
CONST	SEGMENT DWORD USE32 PUBLIC 'CONST'
CONST	ENDS
;	COMDAT ?classCEditEx@CEditEx@@2UCRuntimeClass@@B
CONST	SEGMENT DWORD USE32 PUBLIC 'CONST'
CONST	ENDS
sxdata	SEGMENT DWORD USE32 'SXDATA'
sxdata	ENDS
FLAT	GROUP _DATA, CONST, _BSS
	ASSUME	CS: FLAT, DS: FLAT, SS: FLAT
endif

INCLUDELIB MSVCRTD
INCLUDELIB OLDNAMES

PUBLIC	?classCEditEx@CEditEx@@2UCRuntimeClass@@B	; CEditEx::classCEditEx
PUBLIC	?_messageEntries@CEditEx@@0QBUAFX_MSGMAP_ENTRY@@B ; CEditEx::_messageEntries
PUBLIC	?messageMap@CEditEx@@1UAFX_MSGMAP@@B		; CEditEx::messageMap
PUBLIC	?OnCreate@CEditEx@@QAEHPAUtagCREATESTRUCTA@@@Z	; CEditEx::OnCreate
PUBLIC	?OnMouseLeave@CEditEx@@QAEJIJ@Z			; CEditEx::OnMouseLeave
PUBLIC	?OnMouseHover@CEditEx@@QAEJIJ@Z			; CEditEx::OnMouseHover
PUBLIC	?OnMouseMove@CEditEx@@QAEXIVCPoint@@@Z		; CEditEx::OnMouseMove
PUBLIC	?OnPaint@CEditEx@@QAEXXZ			; CEditEx::OnPaint
EXTRN	?GetThisClass@CEdit@@SGPAUCRuntimeClass@@XZ:NEAR ; CEdit::GetThisClass
EXTRN	?GetThisMessageMap@CWnd@@KGPBUAFX_MSGMAP@@XZ:NEAR ; CWnd::GetThisMessageMap
CONST	SEGMENT
$SG187056 DB	'CEditEx', 00H
CONST	ENDS
;	COMDAT ?classCEditEx@CEditEx@@2UCRuntimeClass@@B
CONST	SEGMENT
?classCEditEx@CEditEx@@2UCRuntimeClass@@B DD FLAT:$SG187056 ; CEditEx::classCEditEx
	DD	068H
	DD	0ffffH
	DD	00H
	DD	FLAT:?GetThisClass@CEdit@@SGPAUCRuntimeClass@@XZ
	DD	00H
	DD	00H
CONST	ENDS
;	COMDAT ?_messageEntries@CEditEx@@0QBUAFX_MSGMAP_ENTRY@@B
CONST	SEGMENT
?_messageEntries@CEditEx@@0QBUAFX_MSGMAP_ENTRY@@B DD 01H ; CEditEx::_messageEntries
	DD	00H
	DD	00H
	DD	00H
	DD	0dH
	DD	FLAT:?OnCreate@CEditEx@@QAEHPAUtagCREATESTRUCTA@@@Z
	DD	02a3H
	DD	00H
	DD	00H
	DD	00H
	DD	0eH
	DD	FLAT:?OnMouseLeave@CEditEx@@QAEJIJ@Z
	DD	02a1H
	DD	00H
	DD	00H
	DD	00H
	DD	0eH
	DD	FLAT:?OnMouseHover@CEditEx@@QAEJIJ@Z
	DD	0200H
	DD	00H
	DD	00H
	DD	00H
	DD	032H
	DD	FLAT:?OnMouseMove@CEditEx@@QAEXIVCPoint@@@Z
	DD	0fH
	DD	00H
	DD	00H
	DD	00H
	DD	010H
	DD	FLAT:?OnPaint@CEditEx@@QAEXXZ
	DD	00H
	DD	00H
	DD	00H
	DD	00H
	DD	00H
	DD	00H
CONST	ENDS
;	COMDAT ?messageMap@CEditEx@@1UAFX_MSGMAP@@B
CONST	SEGMENT
?messageMap@CEditEx@@1UAFX_MSGMAP@@B DD FLAT:?GetThisMessageMap@CWnd@@KGPBUAFX_MSGMAP@@XZ ; CEditEx::messageMap
	DD	FLAT:?_messageEntries@CEditEx@@0QBUAFX_MSGMAP_ENTRY@@B
CONST	ENDS
CONST	SEGMENT
$SG187139 DB	0cbH, 0d1H, 0cbH, 0f7H, 0b8H, 0e8H, 0caH, 0d6H, '...', 00H
$SG187144 DB	'SearchInputEditTip', 00H
	ORG $+1
$SG187146 DB	'SearchInputEditText', 00H
$SG187149 DB	'SearchInputEditBK', 00H
	ORG $+2
$SG187162 DB	'SearchInputEditText', 00H
$SG187163 DB	'SearchInputEditBK', 00H
CONST	ENDS
PUBLIC	?GetThisClass@CEditEx@@SGPAUCRuntimeClass@@XZ	; CEditEx::GetThisClass
EXTRN	__RTC_InitBase:NEAR
EXTRN	__RTC_Shutdown:NEAR
;	COMDAT rtc$IMZ
; File d:\boxgit\playbox\playbox\dev\prj\playbox\src\gui\commoncontrol\editex.cpp
rtc$IMZ	SEGMENT
__RTC_InitBase.rtc$IMZ DD FLAT:__RTC_InitBase
rtc$IMZ	ENDS
;	COMDAT rtc$TMZ
rtc$TMZ	SEGMENT
__RTC_Shutdown.rtc$TMZ DD FLAT:__RTC_Shutdown
; Function compile flags: /Odt /RTCsu
rtc$TMZ	ENDS
_TEXT	SEGMENT
?GetThisClass@CEditEx@@SGPAUCRuntimeClass@@XZ PROC NEAR	; CEditEx::GetThisClass

; 9    : IMPLEMENT_DYNAMIC(CEditEx, CEdit)

  00000	55		 push	 ebp
  00001	8b ec		 mov	 ebp, esp
  00003	b8 00 00 00 00	 mov	 eax, OFFSET FLAT:?classCEditEx@CEditEx@@2UCRuntimeClass@@B ; CEditEx::classCEditEx
  00008	5d		 pop	 ebp
  00009	c3		 ret	 0
?GetThisClass@CEditEx@@SGPAUCRuntimeClass@@XZ ENDP	; CEditEx::GetThisClass
_TEXT	ENDS
PUBLIC	?GetRuntimeClass@CEditEx@@UBEPAUCRuntimeClass@@XZ ; CEditEx::GetRuntimeClass
; Function compile flags: /Odt /RTCsu
_TEXT	SEGMENT
_this$ = -4						; size = 4
?GetRuntimeClass@CEditEx@@UBEPAUCRuntimeClass@@XZ PROC NEAR ; CEditEx::GetRuntimeClass
; _this$ = ecx

; 9    : IMPLEMENT_DYNAMIC(CEditEx, CEdit)

  00010	55		 push	 ebp
  00011	8b ec		 mov	 ebp, esp
  00013	51		 push	 ecx
  00014	c7 45 fc cc cc
	cc cc		 mov	 DWORD PTR [ebp-4], -858993460 ; ccccccccH
  0001b	89 4d fc	 mov	 DWORD PTR _this$[ebp], ecx
  0001e	b8 00 00 00 00	 mov	 eax, OFFSET FLAT:?classCEditEx@CEditEx@@2UCRuntimeClass@@B ; CEditEx::classCEditEx
  00023	8b e5		 mov	 esp, ebp
  00025	5d		 pop	 ebp
  00026	c3		 ret	 0
?GetRuntimeClass@CEditEx@@UBEPAUCRuntimeClass@@XZ ENDP	; CEditEx::GetRuntimeClass
_TEXT	ENDS
PUBLIC	??_R1A@?0A@A@CWnd@@8				; CWnd::`RTTI Base Class Descriptor at (0,-1,0,0)'
PUBLIC	??_R0?AVCWnd@@@8				; CWnd `RTTI Type Descriptor'
PUBLIC	??_R1A@?0A@A@CCmdTarget@@8			; CCmdTarget::`RTTI Base Class Descriptor at (0,-1,0,0)'
PUBLIC	??_R0?AVCCmdTarget@@@8				; CCmdTarget `RTTI Type Descriptor'
PUBLIC	??_R1A@?0A@A@CObject@@8				; CObject::`RTTI Base Class Descriptor at (0,-1,0,0)'
PUBLIC	??_R0?AVCObject@@@8				; CObject `RTTI Type Descriptor'
PUBLIC	??0CEditEx@@QAE@XZ				; CEditEx::CEditEx
PUBLIC	?GetMessageMap@CEditEx@@MBEPBUAFX_MSGMAP@@XZ	; CEditEx::GetMessageMap
PUBLIC	?OnChildNotify@CEditEx@@UAEHIIJPAJ@Z		; CEditEx::OnChildNotify
PUBLIC	??_7CEditEx@@6B@				; CEditEx::`vftable'
PUBLIC	??_GCEditEx@@UAEPAXI@Z				; CEditEx::`scalar deleting destructor'
PUBLIC	??_R4CEditEx@@6B@				; CEditEx::`RTTI Complete Object Locator'
PUBLIC	??_R0?AVCEditEx@@@8				; CEditEx `RTTI Type Descriptor'
PUBLIC	??_R3CEditEx@@8					; CEditEx::`RTTI Class Hierarchy Descriptor'
PUBLIC	??_R2CEditEx@@8					; CEditEx::`RTTI Base Class Array'
PUBLIC	??_R1A@?0A@A@CEditEx@@8				; CEditEx::`RTTI Base Class Descriptor at (0,-1,0,0)'
PUBLIC	??_R1A@?0A@A@CEdit@@8				; CEdit::`RTTI Base Class Descriptor at (0,-1,0,0)'
PUBLIC	??_R0?AVCEdit@@@8				; CEdit `RTTI Type Descriptor'
EXTRN	?GetInterfaceMap@CWnd@@MBEPBUAFX_INTERFACEMAP@@XZ:NEAR ; CWnd::GetInterfaceMap
EXTRN	?EnsureStdObj@CWnd@@UAEJXZ:NEAR			; CWnd::EnsureStdObj
EXTRN	?get_accParent@CWnd@@UAEJPAPAUIDispatch@@@Z:NEAR ; CWnd::get_accParent
EXTRN	?OnCmdMsg@CCmdTarget@@UAEHIHPAXPAUAFX_CMDHANDLERINFO@@@Z:NEAR ; CCmdTarget::OnCmdMsg
EXTRN	?get_accChildCount@CWnd@@UAEJPAJ@Z:NEAR		; CWnd::get_accChildCount
EXTRN	?IsInvokeAllowed@CCmdTarget@@UAEHJ@Z:NEAR	; CCmdTarget::IsInvokeAllowed
EXTRN	?get_accChild@CWnd@@UAEJUtagVARIANT@@PAPAUIDispatch@@@Z:NEAR ; CWnd::get_accChild
EXTRN	?get_accName@CWnd@@UAEJUtagVARIANT@@PAPA_W@Z:NEAR ; CWnd::get_accName
EXTRN	?get_accValue@CWnd@@UAEJUtagVARIANT@@PAPA_W@Z:NEAR ; CWnd::get_accValue
EXTRN	?GetDispatchIID@CCmdTarget@@UAEHPAU_GUID@@@Z:NEAR ; CCmdTarget::GetDispatchIID
EXTRN	?GetTypeInfoCount@CCmdTarget@@UAEIXZ:NEAR	; CCmdTarget::GetTypeInfoCount
EXTRN	?GetTypeLibCache@CCmdTarget@@UAEPAVCTypeLibCache@@XZ:NEAR ; CCmdTarget::GetTypeLibCache
EXTRN	?get_accDescription@CWnd@@UAEJUtagVARIANT@@PAPA_W@Z:NEAR ; CWnd::get_accDescription
EXTRN	?GetTypeLib@CCmdTarget@@UAEJKPAPAUITypeLib@@@Z:NEAR ; CCmdTarget::GetTypeLib
EXTRN	?get_accRole@CWnd@@UAEJUtagVARIANT@@PAU2@@Z:NEAR ; CWnd::get_accRole
EXTRN	?get_accState@CWnd@@UAEJUtagVARIANT@@PAU2@@Z:NEAR ; CWnd::get_accState
EXTRN	?get_accHelp@CWnd@@UAEJUtagVARIANT@@PAPA_W@Z:NEAR ; CWnd::get_accHelp
EXTRN	?get_accHelpTopic@CWnd@@UAEJPAPA_WUtagVARIANT@@PAJ@Z:NEAR ; CWnd::get_accHelpTopic
EXTRN	?get_accKeyboardShortcut@CWnd@@UAEJUtagVARIANT@@PAPA_W@Z:NEAR ; CWnd::get_accKeyboardShortcut
EXTRN	?get_accFocus@CWnd@@UAEJPAUtagVARIANT@@@Z:NEAR	; CWnd::get_accFocus
EXTRN	?get_accSelection@CWnd@@UAEJPAUtagVARIANT@@@Z:NEAR ; CWnd::get_accSelection
EXTRN	?get_accDefaultAction@CWnd@@UAEJUtagVARIANT@@PAPA_W@Z:NEAR ; CWnd::get_accDefaultAction
EXTRN	?GetCommandMap@CCmdTarget@@MBEPBUAFX_OLECMDMAP@@XZ:NEAR ; CCmdTarget::GetCommandMap
EXTRN	?accSelect@CWnd@@UAEJJUtagVARIANT@@@Z:NEAR	; CWnd::accSelect
EXTRN	?accLocation@CWnd@@UAEJPAJ000UtagVARIANT@@@Z:NEAR ; CWnd::accLocation
EXTRN	?GetDispatchMap@CCmdTarget@@MBEPBUAFX_DISPMAP@@XZ:NEAR ; CCmdTarget::GetDispatchMap
EXTRN	?accNavigate@CWnd@@UAEJJUtagVARIANT@@PAU2@@Z:NEAR ; CWnd::accNavigate
EXTRN	?accHitTest@CWnd@@UAEJJJPAUtagVARIANT@@@Z:NEAR	; CWnd::accHitTest
EXTRN	?GetConnectionMap@CCmdTarget@@MBEPBUAFX_CONNECTIONMAP@@XZ:NEAR ; CCmdTarget::GetConnectionMap
EXTRN	?accDoDefaultAction@CWnd@@UAEJUtagVARIANT@@@Z:NEAR ; CWnd::accDoDefaultAction
EXTRN	?put_accName@CWnd@@UAEJUtagVARIANT@@PA_W@Z:NEAR	; CWnd::put_accName
EXTRN	?put_accValue@CWnd@@UAEJUtagVARIANT@@PA_W@Z:NEAR ; CWnd::put_accValue
EXTRN	?SetProxy@CWnd@@UAEJPAUIAccessibleProxy@@@Z:NEAR ; CWnd::SetProxy
EXTRN	?CreateAccessibleProxy@CWnd@@UAEJIJPAJ@Z:NEAR	; CWnd::CreateAccessibleProxy
EXTRN	?GetEventSinkMap@CCmdTarget@@MBEPBUAFX_EVENTSINKMAP@@XZ:NEAR ; CCmdTarget::GetEventSinkMap
EXTRN	?OnCreateAggregates@CCmdTarget@@UAEHXZ:NEAR	; CCmdTarget::OnCreateAggregates
EXTRN	?OnCommand@CWnd@@MAEHIJ@Z:NEAR			; CWnd::OnCommand
EXTRN	?GetInterfaceHook@CCmdTarget@@UAEPAUIUnknown@@PBX@Z:NEAR ; CCmdTarget::GetInterfaceHook
EXTRN	?OnNotify@CWnd@@MAEHIJPAJ@Z:NEAR		; CWnd::OnNotify
EXTRN	__except_list:DWORD
EXTRN	__RTC_CheckEsp:NEAR
EXTRN	___CxxFrameHandler:NEAR
EXTRN	??0CEdit@@QAE@XZ:NEAR				; CEdit::CEdit
EXTRN	?GetExtraConnectionPoints@CCmdTarget@@MAEHPAVCPtrArray@@@Z:NEAR ; CCmdTarget::GetExtraConnectionPoints
EXTRN	?GetConnectionHook@CCmdTarget@@MAEPAUIConnectionPoint@@ABU_GUID@@@Z:NEAR ; CCmdTarget::GetConnectionHook
EXTRN	?Create@CEdit@@UAEHKABUtagRECT@@PAVCWnd@@I@Z:NEAR ; CEdit::Create
EXTRN	??1CEdit@@UAE@XZ:NEAR				; CEdit::~CEdit
EXTRN	??0CFont@@QAE@XZ:NEAR				; CFont::CFont
EXTRN	?PreSubclassWindow@CWnd@@UAEXXZ:NEAR		; CWnd::PreSubclassWindow
EXTRN	?Create@CWnd@@UAEHPBD0KABUtagRECT@@PAV1@IPAUCCreateContext@@@Z:NEAR ; CWnd::Create
EXTRN	?CreateEx@CWnd@@UAEHKPBD0KHHHHPAUHWND__@@PAUHMENU__@@PAX@Z:NEAR ; CWnd::CreateEx
EXTRN	?CreateEx@CWnd@@UAEHKPBD0KABUtagRECT@@PAV1@IPAX@Z:NEAR ; CWnd::CreateEx
EXTRN	?Serialize@CObject@@UAEXAAVCArchive@@@Z:NEAR	; CObject::Serialize
EXTRN	?DestroyWindow@CWnd@@UAEHXZ:NEAR		; CWnd::DestroyWindow
EXTRN	?PreCreateWindow@CWnd@@UAEHAAUtagCREATESTRUCTA@@@Z:NEAR ; CWnd::PreCreateWindow
EXTRN	?CalcWindowRect@CWnd@@UAEXPAUtagRECT@@I@Z:NEAR	; CWnd::CalcWindowRect
EXTRN	?GetSuperWndProcAddr@CWnd@@MAEPAP6GJPAUHWND__@@IIJ@ZXZ:NEAR ; CWnd::GetSuperWndProcAddr
EXTRN	?DoDataExchange@CWnd@@MAEXPAVCDataExchange@@@Z:NEAR ; CWnd::DoDataExchange
EXTRN	?BeginModalState@CWnd@@UAEXXZ:NEAR		; CWnd::BeginModalState
EXTRN	?EndModalState@CWnd@@UAEXXZ:NEAR		; CWnd::EndModalState
EXTRN	?PreTranslateMessage@CWnd@@UAEHPAUtagMSG@@@Z:NEAR ; CWnd::PreTranslateMessage
EXTRN	?OnAmbientProperty@CWnd@@UAEHPAVCOleControlSite@@JPAUtagVARIANT@@@Z:NEAR ; CWnd::OnAmbientProperty
EXTRN	?WindowProc@CWnd@@MAEJIIJ@Z:NEAR		; CWnd::WindowProc
EXTRN	?OnWndMsg@CWnd@@MAEHIIJPAJ@Z:NEAR		; CWnd::OnWndMsg
EXTRN	?DefWindowProcA@CWnd@@MAEJIIJ@Z:NEAR		; CWnd::DefWindowProcA
EXTRN	?PostNcDestroy@CWnd@@MAEXXZ:NEAR		; CWnd::PostNcDestroy
EXTRN	?CheckAutoCenter@CWnd@@UAEHXZ:NEAR		; CWnd::CheckAutoCenter
EXTRN	?AssertValid@CWnd@@UBEXXZ:NEAR			; CWnd::AssertValid
EXTRN	?Dump@CWnd@@UBEXAAVCDumpContext@@@Z:NEAR	; CWnd::Dump
EXTRN	?IsFrameWnd@CWnd@@UBEHXZ:NEAR			; CWnd::IsFrameWnd
EXTRN	?OnFinalRelease@CWnd@@UAEXXZ:NEAR		; CWnd::OnFinalRelease
EXTRN	??_ECEditEx@@UAEPAXI@Z:NEAR			; CEditEx::`vector deleting destructor'
EXTRN	?CreateControlContainer@CWnd@@MAEHPAPAVCOleControlContainer@@@Z:NEAR ; CWnd::CreateControlContainer
EXTRN	?CreateControlSite@CWnd@@MAEHPAVCOleControlContainer@@PAPAVCOleControlSite@@IABU_GUID@@@Z:NEAR ; CWnd::CreateControlSite
EXTRN	?SetOccDialogInfo@CWnd@@MAEHPAU_AFX_OCC_DIALOG_INFO@@@Z:NEAR ; CWnd::SetOccDialogInfo
EXTRN	?OnToolHitTest@CWnd@@UBEHVCPoint@@PAUtagTOOLINFOA@@@Z:NEAR ; CWnd::OnToolHitTest
EXTRN	?GetScrollBarCtrl@CWnd@@UBEPAVCScrollBar@@H@Z:NEAR ; CWnd::GetScrollBarCtrl
EXTRN	?WinHelpA@CWnd@@UAEXKI@Z:NEAR			; CWnd::WinHelpA
EXTRN	?HtmlHelpA@CWnd@@UAEXKI@Z:NEAR			; CWnd::HtmlHelpA
EXTRN	??_7type_info@@6B@:QWORD			; type_info::`vftable'
EXTRN	?WinHelpInternal@CWnd@@UAEXKI@Z:NEAR		; CWnd::WinHelpInternal
EXTRN	?ContinueModal@CWnd@@UAEHXZ:NEAR		; CWnd::ContinueModal
EXTRN	?EndModalLoop@CWnd@@UAEXH@Z:NEAR		; CWnd::EndModalLoop
xdata$x	SEGMENT
$T187700 DD	0ffffffffH
	DD	FLAT:$L187691
$T187696 DD	019930520H
	DD	01H
	DD	FLAT:$T187700
	DD	2 DUP(00H)
	DD	2 DUP(00H)
xdata$x	ENDS
;	COMDAT ??_7CEditEx@@6B@
CONST	SEGMENT
??_7CEditEx@@6B@ DD FLAT:??_R4CEditEx@@6B@		; CEditEx::`vftable'
	DD	FLAT:?GetRuntimeClass@CEditEx@@UBEPAUCRuntimeClass@@XZ
	DD	FLAT:??_ECEditEx@@UAEPAXI@Z
	DD	FLAT:?Serialize@CObject@@UAEXAAVCArchive@@@Z
	DD	FLAT:?AssertValid@CWnd@@UBEXXZ
	DD	FLAT:?Dump@CWnd@@UBEXAAVCDumpContext@@@Z
	DD	FLAT:?OnCmdMsg@CCmdTarget@@UAEHIHPAXPAUAFX_CMDHANDLERINFO@@@Z
	DD	FLAT:?OnFinalRelease@CWnd@@UAEXXZ
	DD	FLAT:?IsInvokeAllowed@CCmdTarget@@UAEHJ@Z
	DD	FLAT:?GetDispatchIID@CCmdTarget@@UAEHPAU_GUID@@@Z
	DD	FLAT:?GetTypeInfoCount@CCmdTarget@@UAEIXZ
	DD	FLAT:?GetTypeLibCache@CCmdTarget@@UAEPAVCTypeLibCache@@XZ
	DD	FLAT:?GetTypeLib@CCmdTarget@@UAEJKPAPAUITypeLib@@@Z
	DD	FLAT:?GetMessageMap@CEditEx@@MBEPBUAFX_MSGMAP@@XZ
	DD	FLAT:?GetCommandMap@CCmdTarget@@MBEPBUAFX_OLECMDMAP@@XZ
	DD	FLAT:?GetDispatchMap@CCmdTarget@@MBEPBUAFX_DISPMAP@@XZ
	DD	FLAT:?GetConnectionMap@CCmdTarget@@MBEPBUAFX_CONNECTIONMAP@@XZ
	DD	FLAT:?GetInterfaceMap@CWnd@@MBEPBUAFX_INTERFACEMAP@@XZ
	DD	FLAT:?GetEventSinkMap@CCmdTarget@@MBEPBUAFX_EVENTSINKMAP@@XZ
	DD	FLAT:?OnCreateAggregates@CCmdTarget@@UAEHXZ
	DD	FLAT:?GetInterfaceHook@CCmdTarget@@UAEPAUIUnknown@@PBX@Z
	DD	FLAT:?GetExtraConnectionPoints@CCmdTarget@@MAEHPAVCPtrArray@@@Z
	DD	FLAT:?GetConnectionHook@CCmdTarget@@MAEPAUIConnectionPoint@@ABU_GUID@@@Z
	DD	FLAT:?PreSubclassWindow@CWnd@@UAEXXZ
	DD	FLAT:?Create@CWnd@@UAEHPBD0KABUtagRECT@@PAV1@IPAUCCreateContext@@@Z
	DD	FLAT:?CreateEx@CWnd@@UAEHKPBD0KABUtagRECT@@PAV1@IPAX@Z
	DD	FLAT:?CreateEx@CWnd@@UAEHKPBD0KHHHHPAUHWND__@@PAUHMENU__@@PAX@Z
	DD	FLAT:?DestroyWindow@CWnd@@UAEHXZ
	DD	FLAT:?PreCreateWindow@CWnd@@UAEHAAUtagCREATESTRUCTA@@@Z
	DD	FLAT:?CalcWindowRect@CWnd@@UAEXPAUtagRECT@@I@Z
	DD	FLAT:?OnToolHitTest@CWnd@@UBEHVCPoint@@PAUtagTOOLINFOA@@@Z
	DD	FLAT:?GetScrollBarCtrl@CWnd@@UBEPAVCScrollBar@@H@Z
	DD	FLAT:?WinHelpA@CWnd@@UAEXKI@Z
	DD	FLAT:?HtmlHelpA@CWnd@@UAEXKI@Z
	DD	FLAT:?WinHelpInternal@CWnd@@UAEXKI@Z
	DD	FLAT:?ContinueModal@CWnd@@UAEHXZ
	DD	FLAT:?EndModalLoop@CWnd@@UAEXH@Z
	DD	FLAT:?EnsureStdObj@CWnd@@UAEJXZ
	DD	FLAT:?get_accParent@CWnd@@UAEJPAPAUIDispatch@@@Z
	DD	FLAT:?get_accChildCount@CWnd@@UAEJPAJ@Z
	DD	FLAT:?get_accChild@CWnd@@UAEJUtagVARIANT@@PAPAUIDispatch@@@Z
	DD	FLAT:?get_accName@CWnd@@UAEJUtagVARIANT@@PAPA_W@Z
	DD	FLAT:?get_accValue@CWnd@@UAEJUtagVARIANT@@PAPA_W@Z
	DD	FLAT:?get_accDescription@CWnd@@UAEJUtagVARIANT@@PAPA_W@Z
	DD	FLAT:?get_accRole@CWnd@@UAEJUtagVARIANT@@PAU2@@Z
	DD	FLAT:?get_accState@CWnd@@UAEJUtagVARIANT@@PAU2@@Z
	DD	FLAT:?get_accHelp@CWnd@@UAEJUtagVARIANT@@PAPA_W@Z
	DD	FLAT:?get_accHelpTopic@CWnd@@UAEJPAPA_WUtagVARIANT@@PAJ@Z
	DD	FLAT:?get_accKeyboardShortcut@CWnd@@UAEJUtagVARIANT@@PAPA_W@Z
	DD	FLAT:?get_accFocus@CWnd@@UAEJPAUtagVARIANT@@@Z
	DD	FLAT:?get_accSelection@CWnd@@UAEJPAUtagVARIANT@@@Z
	DD	FLAT:?get_accDefaultAction@CWnd@@UAEJUtagVARIANT@@PAPA_W@Z
	DD	FLAT:?accSelect@CWnd@@UAEJJUtagVARIANT@@@Z
	DD	FLAT:?accLocation@CWnd@@UAEJPAJ000UtagVARIANT@@@Z
	DD	FLAT:?accNavigate@CWnd@@UAEJJUtagVARIANT@@PAU2@@Z
	DD	FLAT:?accHitTest@CWnd@@UAEJJJPAUtagVARIANT@@@Z
	DD	FLAT:?accDoDefaultAction@CWnd@@UAEJUtagVARIANT@@@Z
	DD	FLAT:?put_accName@CWnd@@UAEJUtagVARIANT@@PA_W@Z
	DD	FLAT:?put_accValue@CWnd@@UAEJUtagVARIANT@@PA_W@Z
	DD	FLAT:?SetProxy@CWnd@@UAEJPAUIAccessibleProxy@@@Z
	DD	FLAT:?CreateAccessibleProxy@CWnd@@UAEJIJPAJ@Z
	DD	FLAT:?OnCommand@CWnd@@MAEHIJ@Z
	DD	FLAT:?OnNotify@CWnd@@MAEHIJPAJ@Z
	DD	FLAT:?GetSuperWndProcAddr@CWnd@@MAEPAP6GJPAUHWND__@@IIJ@ZXZ
	DD	FLAT:?DoDataExchange@CWnd@@MAEXPAVCDataExchange@@@Z
	DD	FLAT:?BeginModalState@CWnd@@UAEXXZ
	DD	FLAT:?EndModalState@CWnd@@UAEXXZ
	DD	FLAT:?PreTranslateMessage@CWnd@@UAEHPAUtagMSG@@@Z
	DD	FLAT:?OnAmbientProperty@CWnd@@UAEHPAVCOleControlSite@@JPAUtagVARIANT@@@Z
	DD	FLAT:?WindowProc@CWnd@@MAEJIIJ@Z
	DD	FLAT:?OnWndMsg@CWnd@@MAEHIIJPAJ@Z
	DD	FLAT:?DefWindowProcA@CWnd@@MAEJIIJ@Z
	DD	FLAT:?PostNcDestroy@CWnd@@MAEXXZ
	DD	FLAT:?OnChildNotify@CEditEx@@UAEHIIJPAJ@Z
	DD	FLAT:?CheckAutoCenter@CWnd@@UAEHXZ
	DD	FLAT:?IsFrameWnd@CWnd@@UBEHXZ
	DD	FLAT:?CreateControlContainer@CWnd@@MAEHPAPAVCOleControlContainer@@@Z
	DD	FLAT:?CreateControlSite@CWnd@@MAEHPAVCOleControlContainer@@PAPAVCOleControlSite@@IABU_GUID@@@Z
	DD	FLAT:?SetOccDialogInfo@CWnd@@MAEHPAU_AFX_OCC_DIALOG_INFO@@@Z
	DD	FLAT:?Create@CEdit@@UAEHKABUtagRECT@@PAVCWnd@@I@Z
CONST	ENDS
;	COMDAT ??_R4CEditEx@@6B@
rdata$r	SEGMENT
??_R4CEditEx@@6B@ DD 00H				; CEditEx::`RTTI Complete Object Locator'
	DD	00H
	DD	00H
	DD	FLAT:??_R0?AVCEditEx@@@8
	DD	FLAT:??_R3CEditEx@@8
rdata$r	ENDS
;	COMDAT ??_R0?AVCEditEx@@@8
_DATA	SEGMENT
??_R0?AVCEditEx@@@8 DD FLAT:??_7type_info@@6B@		; CEditEx `RTTI Type Descriptor'
	DD	00H
	DB	'.?AVCEditEx@@', 00H
_DATA	ENDS
;	COMDAT ??_R3CEditEx@@8
rdata$r	SEGMENT
??_R3CEditEx@@8 DD 00H					; CEditEx::`RTTI Class Hierarchy Descriptor'
	DD	00H
	DD	05H
	DD	FLAT:??_R2CEditEx@@8
rdata$r	ENDS
;	COMDAT ??_R2CEditEx@@8
rdata$r	SEGMENT
??_R2CEditEx@@8 DD FLAT:??_R1A@?0A@A@CEditEx@@8		; CEditEx::`RTTI Base Class Array'
	DD	FLAT:??_R1A@?0A@A@CEdit@@8
	DD	FLAT:??_R1A@?0A@A@CWnd@@8
	DD	FLAT:??_R1A@?0A@A@CCmdTarget@@8
	DD	FLAT:??_R1A@?0A@A@CObject@@8
rdata$r	ENDS
;	COMDAT ??_R1A@?0A@A@CEditEx@@8
rdata$r	SEGMENT
??_R1A@?0A@A@CEditEx@@8 DD FLAT:??_R0?AVCEditEx@@@8	; CEditEx::`RTTI Base Class Descriptor at (0,-1,0,0)'
	DD	04H
	DD	00H
	DD	0ffffffffH
	DD	00H
	DD	00H
rdata$r	ENDS
;	COMDAT ??_R1A@?0A@A@CEdit@@8
rdata$r	SEGMENT
??_R1A@?0A@A@CEdit@@8 DD FLAT:??_R0?AVCEdit@@@8		; CEdit::`RTTI Base Class Descriptor at (0,-1,0,0)'
	DD	03H
	DD	00H
	DD	0ffffffffH
	DD	00H
	DD	00H
rdata$r	ENDS
;	COMDAT ??_R0?AVCEdit@@@8
_DATA	SEGMENT
??_R0?AVCEdit@@@8 DD FLAT:??_7type_info@@6B@		; CEdit `RTTI Type Descriptor'
	DD	00H
	DB	'.?AVCEdit@@', 00H
_DATA	ENDS
;	COMDAT ??_R1A@?0A@A@CWnd@@8
rdata$r	SEGMENT
??_R1A@?0A@A@CWnd@@8 DD FLAT:??_R0?AVCWnd@@@8		; CWnd::`RTTI Base Class Descriptor at (0,-1,0,0)'
	DD	02H
	DD	00H
	DD	0ffffffffH
	DD	00H
	DD	00H
rdata$r	ENDS
;	COMDAT ??_R0?AVCWnd@@@8
_DATA	SEGMENT
??_R0?AVCWnd@@@8 DD FLAT:??_7type_info@@6B@		; CWnd `RTTI Type Descriptor'
	DD	00H
	DB	'.?AVCWnd@@', 00H
_DATA	ENDS
;	COMDAT ??_R1A@?0A@A@CCmdTarget@@8
rdata$r	SEGMENT
??_R1A@?0A@A@CCmdTarget@@8 DD FLAT:??_R0?AVCCmdTarget@@@8 ; CCmdTarget::`RTTI Base Class Descriptor at (0,-1,0,0)'
	DD	01H
	DD	00H
	DD	0ffffffffH
	DD	00H
	DD	00H
rdata$r	ENDS
;	COMDAT ??_R0?AVCCmdTarget@@@8
_DATA	SEGMENT
??_R0?AVCCmdTarget@@@8 DD FLAT:??_7type_info@@6B@	; CCmdTarget `RTTI Type Descriptor'
	DD	00H
	DB	'.?AVCCmdTarget@@', 00H
_DATA	ENDS
;	COMDAT ??_R1A@?0A@A@CObject@@8
rdata$r	SEGMENT
??_R1A@?0A@A@CObject@@8 DD FLAT:??_R0?AVCObject@@@8	; CObject::`RTTI Base Class Descriptor at (0,-1,0,0)'
	DD	00H
	DD	00H
	DD	0ffffffffH
	DD	00H
	DD	00H
rdata$r	ENDS
;	COMDAT ??_R0?AVCObject@@@8
_DATA	SEGMENT
??_R0?AVCObject@@@8 DD FLAT:??_7type_info@@6B@		; CObject `RTTI Type Descriptor'
	DD	00H
	DB	'.?AVCObject@@', 00H
; Function compile flags: /Odt /RTCsu
_DATA	ENDS
_TEXT	SEGMENT
_this$ = -16						; size = 4
__$EHRec$ = -12						; size = 12
??0CEditEx@@QAE@XZ PROC NEAR				; CEditEx::CEditEx
; _this$ = ecx

; 13   : {

  00030	55		 push	 ebp
  00031	8b ec		 mov	 ebp, esp
  00033	6a ff		 push	 -1
  00035	68 00 00 00 00	 push	 __ehhandler$??0CEditEx@@QAE@XZ
  0003a	64 a1 00 00 00
	00		 mov	 eax, DWORD PTR fs:__except_list
  00040	50		 push	 eax
  00041	64 89 25 00 00
	00 00		 mov	 DWORD PTR fs:__except_list, esp
  00048	51		 push	 ecx
  00049	c7 45 f0 cc cc
	cc cc		 mov	 DWORD PTR [ebp-16], -858993460 ; ccccccccH
  00050	89 4d f0	 mov	 DWORD PTR _this$[ebp], ecx
  00053	8b 4d f0	 mov	 ecx, DWORD PTR _this$[ebp]
  00056	e8 00 00 00 00	 call	 ??0CEdit@@QAE@XZ	; CEdit::CEdit
  0005b	c7 45 fc 00 00
	00 00		 mov	 DWORD PTR __$EHRec$[ebp+8], 0
  00062	8b 45 f0	 mov	 eax, DWORD PTR _this$[ebp]
  00065	c7 00 00 00 00
	00		 mov	 DWORD PTR [eax], OFFSET FLAT:??_7CEditEx@@6B@
  0006b	8b 4d f0	 mov	 ecx, DWORD PTR _this$[ebp]
  0006e	83 c1 58	 add	 ecx, 88			; 00000058H
  00071	e8 00 00 00 00	 call	 ??0CFont@@QAE@XZ	; CFont::CFont
  00076	8b 4d f0	 mov	 ecx, DWORD PTR _this$[ebp]
  00079	c7 41 60 09 00
	00 00		 mov	 DWORD PTR [ecx+96], 9
  00080	8b 55 f0	 mov	 edx, DWORD PTR _this$[ebp]
  00083	c7 42 64 00 00
	00 00		 mov	 DWORD PTR [edx+100], 0

; 14   : }

  0008a	c7 45 fc ff ff
	ff ff		 mov	 DWORD PTR __$EHRec$[ebp+8], -1
  00091	8b 45 f0	 mov	 eax, DWORD PTR _this$[ebp]
  00094	8b 4d f4	 mov	 ecx, DWORD PTR __$EHRec$[ebp]
  00097	64 89 0d 00 00
	00 00		 mov	 DWORD PTR fs:__except_list, ecx
  0009e	83 c4 10	 add	 esp, 16			; 00000010H
  000a1	3b ec		 cmp	 ebp, esp
  000a3	e8 00 00 00 00	 call	 __RTC_CheckEsp
  000a8	8b e5		 mov	 esp, ebp
  000aa	5d		 pop	 ebp
  000ab	c3		 ret	 0
_TEXT	ENDS
text$x	SEGMENT
$L187691:
  00000	8b 4d f0	 mov	 ecx, DWORD PTR _this$[ebp]
  00003	e9 00 00 00 00	 jmp	 ??1CEdit@@UAE@XZ	; CEdit::~CEdit
__ehhandler$??0CEditEx@@QAE@XZ:
  00008	b8 00 00 00 00	 mov	 eax, OFFSET FLAT:$T187696
  0000d	e9 00 00 00 00	 jmp	 ___CxxFrameHandler
text$x	ENDS
??0CEditEx@@QAE@XZ ENDP					; CEditEx::CEditEx
PUBLIC	??1CEditEx@@UAE@XZ				; CEditEx::~CEditEx
EXTRN	??3CObject@@SGXPAX@Z:NEAR			; CObject::operator delete
; Function compile flags: /Odt /RTCsu
;	COMDAT ??_GCEditEx@@UAEPAXI@Z
_TEXT	SEGMENT
_this$ = -4						; size = 4
___flags$ = 8						; size = 4
??_GCEditEx@@UAEPAXI@Z PROC NEAR			; CEditEx::`scalar deleting destructor', COMDAT
; _this$ = ecx
  00000	55		 push	 ebp
  00001	8b ec		 mov	 ebp, esp
  00003	51		 push	 ecx
  00004	c7 45 fc cc cc
	cc cc		 mov	 DWORD PTR [ebp-4], -858993460 ; ccccccccH
  0000b	89 4d fc	 mov	 DWORD PTR _this$[ebp], ecx
  0000e	8b 4d fc	 mov	 ecx, DWORD PTR _this$[ebp]
  00011	e8 00 00 00 00	 call	 ??1CEditEx@@UAE@XZ	; CEditEx::~CEditEx
  00016	8b 45 08	 mov	 eax, DWORD PTR ___flags$[ebp]
  00019	83 e0 01	 and	 eax, 1
  0001c	74 09		 je	 SHORT $L187071
  0001e	8b 4d fc	 mov	 ecx, DWORD PTR _this$[ebp]
  00021	51		 push	 ecx
  00022	e8 00 00 00 00	 call	 ??3CObject@@SGXPAX@Z	; CObject::operator delete
$L187071:
  00027	8b 45 fc	 mov	 eax, DWORD PTR _this$[ebp]
  0002a	83 c4 04	 add	 esp, 4
  0002d	3b ec		 cmp	 ebp, esp
  0002f	e8 00 00 00 00	 call	 __RTC_CheckEsp
  00034	8b e5		 mov	 esp, ebp
  00036	5d		 pop	 ebp
  00037	c2 04 00	 ret	 4
??_GCEditEx@@UAEPAXI@Z ENDP				; CEditEx::`scalar deleting destructor'
_TEXT	ENDS
EXTRN	??1CFont@@UAE@XZ:NEAR				; CFont::~CFont
xdata$x	SEGMENT
$T187709 DD	0ffffffffH
	DD	FLAT:$L187704
$T187707 DD	019930520H
	DD	01H
	DD	FLAT:$T187709
	DD	2 DUP(00H)
	DD	2 DUP(00H)
; Function compile flags: /Odt /RTCsu
xdata$x	ENDS
_TEXT	SEGMENT
_this$ = -16						; size = 4
__$EHRec$ = -12						; size = 12
??1CEditEx@@UAE@XZ PROC NEAR				; CEditEx::~CEditEx
; _this$ = ecx

; 17   : {

  000b0	55		 push	 ebp
  000b1	8b ec		 mov	 ebp, esp
  000b3	6a ff		 push	 -1
  000b5	68 00 00 00 00	 push	 __ehhandler$??1CEditEx@@UAE@XZ
  000ba	64 a1 00 00 00
	00		 mov	 eax, DWORD PTR fs:__except_list
  000c0	50		 push	 eax
  000c1	64 89 25 00 00
	00 00		 mov	 DWORD PTR fs:__except_list, esp
  000c8	51		 push	 ecx
  000c9	c7 45 f0 cc cc
	cc cc		 mov	 DWORD PTR [ebp-16], -858993460 ; ccccccccH
  000d0	89 4d f0	 mov	 DWORD PTR _this$[ebp], ecx
  000d3	8b 45 f0	 mov	 eax, DWORD PTR _this$[ebp]
  000d6	c7 00 00 00 00
	00		 mov	 DWORD PTR [eax], OFFSET FLAT:??_7CEditEx@@6B@
  000dc	c7 45 fc 00 00
	00 00		 mov	 DWORD PTR __$EHRec$[ebp+8], 0

; 18   : }

  000e3	8b 4d f0	 mov	 ecx, DWORD PTR _this$[ebp]
  000e6	83 c1 58	 add	 ecx, 88			; 00000058H
  000e9	e8 00 00 00 00	 call	 ??1CFont@@UAE@XZ	; CFont::~CFont
  000ee	c7 45 fc ff ff
	ff ff		 mov	 DWORD PTR __$EHRec$[ebp+8], -1
  000f5	8b 4d f0	 mov	 ecx, DWORD PTR _this$[ebp]
  000f8	e8 00 00 00 00	 call	 ??1CEdit@@UAE@XZ	; CEdit::~CEdit
  000fd	8b 4d f4	 mov	 ecx, DWORD PTR __$EHRec$[ebp]
  00100	64 89 0d 00 00
	00 00		 mov	 DWORD PTR fs:__except_list, ecx
  00107	83 c4 10	 add	 esp, 16			; 00000010H
  0010a	3b ec		 cmp	 ebp, esp
  0010c	e8 00 00 00 00	 call	 __RTC_CheckEsp
  00111	8b e5		 mov	 esp, ebp
  00113	5d		 pop	 ebp
  00114	c3		 ret	 0
_TEXT	ENDS
text$x	SEGMENT
$L187704:
  00012	8b 4d f0	 mov	 ecx, DWORD PTR _this$[ebp]
  00015	e9 00 00 00 00	 jmp	 ??1CEdit@@UAE@XZ	; CEdit::~CEdit
__ehhandler$??1CEditEx@@UAE@XZ:
  0001a	b8 00 00 00 00	 mov	 eax, OFFSET FLAT:$T187707
  0001f	e9 00 00 00 00	 jmp	 ___CxxFrameHandler
text$x	ENDS
??1CEditEx@@UAE@XZ ENDP					; CEditEx::~CEditEx
PUBLIC	?GetThisMessageMap@CEditEx@@KGPBUAFX_MSGMAP@@XZ	; CEditEx::GetThisMessageMap
; Function compile flags: /Odt /RTCsu
_TEXT	SEGMENT
?GetThisMessageMap@CEditEx@@KGPBUAFX_MSGMAP@@XZ PROC NEAR ; CEditEx::GetThisMessageMap

; 21   : BEGIN_MESSAGE_MAP(CEditEx, CEdit)

  00120	55		 push	 ebp
  00121	8b ec		 mov	 ebp, esp
  00123	b8 00 00 00 00	 mov	 eax, OFFSET FLAT:?messageMap@CEditEx@@1UAFX_MSGMAP@@B ; CEditEx::messageMap
  00128	5d		 pop	 ebp
  00129	c3		 ret	 0
?GetThisMessageMap@CEditEx@@KGPBUAFX_MSGMAP@@XZ ENDP	; CEditEx::GetThisMessageMap
; Function compile flags: /Odt /RTCsu
_this$ = -4						; size = 4
?GetMessageMap@CEditEx@@MBEPBUAFX_MSGMAP@@XZ PROC NEAR	; CEditEx::GetMessageMap
; _this$ = ecx

; 21   : BEGIN_MESSAGE_MAP(CEditEx, CEdit)

  00130	55		 push	 ebp
  00131	8b ec		 mov	 ebp, esp
  00133	51		 push	 ecx
  00134	c7 45 fc cc cc
	cc cc		 mov	 DWORD PTR [ebp-4], -858993460 ; ccccccccH
  0013b	89 4d fc	 mov	 DWORD PTR _this$[ebp], ecx
  0013e	b8 00 00 00 00	 mov	 eax, OFFSET FLAT:?messageMap@CEditEx@@1UAFX_MSGMAP@@B ; CEditEx::messageMap
  00143	8b e5		 mov	 esp, ebp
  00145	5d		 pop	 ebp
  00146	c3		 ret	 0
?GetMessageMap@CEditEx@@MBEPBUAFX_MSGMAP@@XZ ENDP	; CEditEx::GetMessageMap
_TEXT	ENDS
PUBLIC	?SetTextSize@CEditEx@@QAEXI@Z			; CEditEx::SetTextSize
; Function compile flags: /Odt /RTCsu
_TEXT	SEGMENT
_this$ = -4						; size = 4
_textSize$ = 8						; size = 4
?SetTextSize@CEditEx@@QAEXI@Z PROC NEAR			; CEditEx::SetTextSize
; _this$ = ecx

; 30   : {

  00150	55		 push	 ebp
  00151	8b ec		 mov	 ebp, esp
  00153	51		 push	 ecx
  00154	c7 45 fc cc cc
	cc cc		 mov	 DWORD PTR [ebp-4], -858993460 ; ccccccccH
  0015b	89 4d fc	 mov	 DWORD PTR _this$[ebp], ecx

; 31   : 	m_textSize = textSize;

  0015e	8b 45 fc	 mov	 eax, DWORD PTR _this$[ebp]
  00161	8b 4d 08	 mov	 ecx, DWORD PTR _textSize$[ebp]
  00164	89 48 60	 mov	 DWORD PTR [eax+96], ecx

; 32   : }

  00167	8b e5		 mov	 esp, ebp
  00169	5d		 pop	 ebp
  0016a	c2 04 00	 ret	 4
?SetTextSize@CEditEx@@QAEXI@Z ENDP			; CEditEx::SetTextSize
_TEXT	ENDS
EXTRN	?SetTextAlign@CDC@@QAEII@Z:NEAR			; CDC::SetTextAlign
EXTRN	?OnCreate@CWnd@@IAEHPAUtagCREATESTRUCTA@@@Z:NEAR ; CWnd::OnCreate
EXTRN	___security_cookie:DWORD
EXTRN	@_RTC_CheckStackVars@8:NEAR
EXTRN	@__security_check_cookie@4:NEAR
EXTRN	?SetMargins@CEdit@@QAEXII@Z:NEAR		; CEdit::SetMargins
EXTRN	?CreateFontIndirectA@CFont@@QAEHPBUtagLOGFONTA@@@Z:NEAR ; CFont::CreateFontIndirectA
EXTRN	?SetFont@CWnd@@QAEXPAVCFont@@H@Z:NEAR		; CWnd::SetFont
EXTRN	__imp__GetDeviceCaps@8:NEAR
EXTRN	?GetDC@CWnd@@QAEPAVCDC@@XZ:NEAR			; CWnd::GetDC
EXTRN	?ReleaseDC@CWnd@@QAEHPAVCDC@@@Z:NEAR		; CWnd::ReleaseDC
EXTRN	_memset:NEAR
EXTRN	__imp__MulDiv@12:NEAR
; Function compile flags: /Odt /RTCsu
_TEXT	SEGMENT
_lf$ = -76						; size = 60
_lpDC$ = -12						; size = 4
_this$ = -8						; size = 4
__$ArrayPad$ = -4					; size = 4
__$ReturnAddr$ = 4					; size = 4
_lpCreateStruct$ = 8					; size = 4
?OnCreate@CEditEx@@QAEHPAUtagCREATESTRUCTA@@@Z PROC NEAR ; CEditEx::OnCreate
; _this$ = ecx

; 35   : {

  00170	55		 push	 ebp
  00171	8b ec		 mov	 ebp, esp
  00173	83 ec 50	 sub	 esp, 80			; 00000050H
  00176	56		 push	 esi
  00177	57		 push	 edi
  00178	51		 push	 ecx
  00179	8d 7d b0	 lea	 edi, DWORD PTR [ebp-80]
  0017c	b9 14 00 00 00	 mov	 ecx, 20			; 00000014H
  00181	b8 cc cc cc cc	 mov	 eax, -858993460		; ccccccccH
  00186	f3 ab		 rep stosd
  00188	59		 pop	 ecx
  00189	a1 00 00 00 00	 mov	 eax, DWORD PTR ___security_cookie
  0018e	89 45 fc	 mov	 DWORD PTR __$ArrayPad$[ebp], eax
  00191	89 4d f8	 mov	 DWORD PTR _this$[ebp], ecx

; 36   : 	if (CEdit::OnCreate(lpCreateStruct) == -1)

  00194	8b 45 08	 mov	 eax, DWORD PTR _lpCreateStruct$[ebp]
  00197	50		 push	 eax
  00198	8b 4d f8	 mov	 ecx, DWORD PTR _this$[ebp]
  0019b	e8 00 00 00 00	 call	 ?OnCreate@CWnd@@IAEHPAUtagCREATESTRUCTA@@@Z ; CWnd::OnCreate
  001a0	83 f8 ff	 cmp	 eax, -1
  001a3	75 08		 jne	 SHORT $L187112

; 37   : 		return -1;

  001a5	83 c8 ff	 or	 eax, -1
  001a8	e9 b0 00 00 00	 jmp	 $L187111
$L187112:

; 38   : 
; 39   : 	CDC* lpDC;
; 40   : 	lpDC = GetDC();

  001ad	8b 4d f8	 mov	 ecx, DWORD PTR _this$[ebp]
  001b0	e8 00 00 00 00	 call	 ?GetDC@CWnd@@QAEPAVCDC@@XZ ; CWnd::GetDC
  001b5	89 45 f4	 mov	 DWORD PTR _lpDC$[ebp], eax

; 41   : 	
; 42   : 	LOGFONT  lf;
; 43   : 	ZeroMemory(&lf,sizeof(lf));

  001b8	6a 3c		 push	 60			; 0000003cH
  001ba	6a 00		 push	 0
  001bc	8d 4d b4	 lea	 ecx, DWORD PTR _lf$[ebp]
  001bf	51		 push	 ecx
  001c0	e8 00 00 00 00	 call	 _memset
  001c5	83 c4 0c	 add	 esp, 12			; 0000000cH

; 44   : 	lf.lfHeight= -MulDiv(m_textSize,GetDeviceCaps(lpDC->m_hDC,LOGPIXELSY),72);

  001c8	8b f4		 mov	 esi, esp
  001ca	6a 48		 push	 72			; 00000048H
  001cc	8b fc		 mov	 edi, esp
  001ce	6a 5a		 push	 90			; 0000005aH
  001d0	8b 55 f4	 mov	 edx, DWORD PTR _lpDC$[ebp]
  001d3	8b 42 04	 mov	 eax, DWORD PTR [edx+4]
  001d6	50		 push	 eax
  001d7	ff 15 00 00 00
	00		 call	 DWORD PTR __imp__GetDeviceCaps@8
  001dd	3b fc		 cmp	 edi, esp
  001df	e8 00 00 00 00	 call	 __RTC_CheckEsp
  001e4	50		 push	 eax
  001e5	8b 4d f8	 mov	 ecx, DWORD PTR _this$[ebp]
  001e8	8b 51 60	 mov	 edx, DWORD PTR [ecx+96]
  001eb	52		 push	 edx
  001ec	ff 15 00 00 00
	00		 call	 DWORD PTR __imp__MulDiv@12
  001f2	3b f4		 cmp	 esi, esp
  001f4	e8 00 00 00 00	 call	 __RTC_CheckEsp
  001f9	f7 d8		 neg	 eax
  001fb	89 45 b4	 mov	 DWORD PTR _lf$[ebp], eax

; 45   : 	lf.lfWeight=FW_NORMAL;

  001fe	c7 45 c4 90 01
	00 00		 mov	 DWORD PTR _lf$[ebp+16], 400 ; 00000190H

; 46   : 	lf.lfCharSet=ANSI_CHARSET;

  00205	c6 45 cb 00	 mov	 BYTE PTR _lf$[ebp+23], 0

; 47   : 	lf.lfOutPrecision=OUT_DEFAULT_PRECIS;

  00209	c6 45 cc 00	 mov	 BYTE PTR _lf$[ebp+24], 0

; 48   : 	lf.lfClipPrecision=CLIP_DEFAULT_PRECIS;

  0020d	c6 45 cd 00	 mov	 BYTE PTR _lf$[ebp+25], 0

; 49   : 	lf.lfQuality=DEFAULT_QUALITY;

  00211	c6 45 ce 00	 mov	 BYTE PTR _lf$[ebp+26], 0

; 50   : 	lf.lfPitchAndFamily=FF_DONTCARE | DEFAULT_PITCH;

  00215	c6 45 cf 00	 mov	 BYTE PTR _lf$[ebp+27], 0

; 51   : 
; 52   : 	m_font.CreateFontIndirect(&lf);

  00219	8d 45 b4	 lea	 eax, DWORD PTR _lf$[ebp]
  0021c	50		 push	 eax
  0021d	8b 4d f8	 mov	 ecx, DWORD PTR _this$[ebp]
  00220	83 c1 58	 add	 ecx, 88			; 00000058H
  00223	e8 00 00 00 00	 call	 ?CreateFontIndirectA@CFont@@QAEHPBUtagLOGFONTA@@@Z ; CFont::CreateFontIndirectA

; 53   : 	SetFont( &m_font );

  00228	6a 01		 push	 1
  0022a	8b 4d f8	 mov	 ecx, DWORD PTR _this$[ebp]
  0022d	83 c1 58	 add	 ecx, 88			; 00000058H
  00230	51		 push	 ecx
  00231	8b 4d f8	 mov	 ecx, DWORD PTR _this$[ebp]
  00234	e8 00 00 00 00	 call	 ?SetFont@CWnd@@QAEXPAVCFont@@H@Z ; CWnd::SetFont

; 54   : 
; 55   : 	lpDC->SetTextAlign( TA_BOTTOM  );

  00239	6a 08		 push	 8
  0023b	8b 4d f4	 mov	 ecx, DWORD PTR _lpDC$[ebp]
  0023e	e8 00 00 00 00	 call	 ?SetTextAlign@CDC@@QAEII@Z ; CDC::SetTextAlign

; 56   : 	
; 57   : 	ReleaseDC( lpDC );

  00243	8b 55 f4	 mov	 edx, DWORD PTR _lpDC$[ebp]
  00246	52		 push	 edx
  00247	8b 4d f8	 mov	 ecx, DWORD PTR _this$[ebp]
  0024a	e8 00 00 00 00	 call	 ?ReleaseDC@CWnd@@QAEHPAVCDC@@@Z ; CWnd::ReleaseDC

; 58   : 
; 59   : 	SetMargins(4,0);

  0024f	6a 00		 push	 0
  00251	6a 04		 push	 4
  00253	8b 4d f8	 mov	 ecx, DWORD PTR _this$[ebp]
  00256	e8 00 00 00 00	 call	 ?SetMargins@CEdit@@QAEXII@Z ; CEdit::SetMargins

; 60   : 	return 0;

  0025b	33 c0		 xor	 eax, eax
$L187111:

; 61   : }

  0025d	52		 push	 edx
  0025e	8b cd		 mov	 ecx, ebp
  00260	50		 push	 eax
  00261	8d 15 00 00 00
	00		 lea	 edx, DWORD PTR $L187719
  00267	e8 00 00 00 00	 call	 @_RTC_CheckStackVars@8
  0026c	58		 pop	 eax
  0026d	5a		 pop	 edx
  0026e	8b 4d fc	 mov	 ecx, DWORD PTR __$ArrayPad$[ebp]
  00271	e8 00 00 00 00	 call	 @__security_check_cookie@4
  00276	5f		 pop	 edi
  00277	5e		 pop	 esi
  00278	83 c4 50	 add	 esp, 80			; 00000050H
  0027b	3b ec		 cmp	 ebp, esp
  0027d	e8 00 00 00 00	 call	 __RTC_CheckEsp
  00282	8b e5		 mov	 esp, ebp
  00284	5d		 pop	 ebp
  00285	c2 04 00	 ret	 4
$L187719:
  00288	01 00 00 00	 DD	 1
  0028c	00 00 00 00	 DD	 $L187718
$L187718:
  00290	b4 ff ff ff	 DD	 -76			; ffffffb4H
  00294	3c 00 00 00	 DD	 60			; 0000003cH
  00298	00 00 00 00	 DD	 $L187715
$L187715:
  0029c	6c		 DB	 108			; 0000006cH
  0029d	66		 DB	 102			; 00000066H
  0029e	00		 DB	 0
?OnCreate@CEditEx@@QAEHPAUtagCREATESTRUCTA@@@Z ENDP	; CEditEx::OnCreate
_TEXT	ENDS
EXTRN	__imp__SendMessageA@16:NEAR
EXTRN	__imp__GetWindowLongA@8:NEAR
EXTRN	?GetParent@CWnd@@QBEPAV1@XZ:NEAR		; CWnd::GetParent
; Function compile flags: /Odt /RTCsu
_TEXT	SEGMENT
_this$ = -4						; size = 4
_wParam$ = 8						; size = 4
_lParam$ = 12						; size = 4
?OnMouseHover@CEditEx@@QAEJIJ@Z PROC NEAR		; CEditEx::OnMouseHover
; _this$ = ecx

; 64   : { 	

  002a0	55		 push	 ebp
  002a1	8b ec		 mov	 ebp, esp
  002a3	51		 push	 ecx
  002a4	56		 push	 esi
  002a5	57		 push	 edi
  002a6	c7 45 fc cc cc
	cc cc		 mov	 DWORD PTR [ebp-4], -858993460 ; ccccccccH
  002ad	89 4d fc	 mov	 DWORD PTR _this$[ebp], ecx

; 65   : 	m_bMouseOn = TRUE;

  002b0	8b 45 fc	 mov	 eax, DWORD PTR _this$[ebp]
  002b3	c7 40 64 01 00
	00 00		 mov	 DWORD PTR [eax+100], 1

; 66   : 	::SendMessage( this->GetParent()->m_hWnd, MSG_MOUSEHOVER_EDIT, GetWindowLong(this->m_hWnd, GWL_ID),0 );

  002ba	8b f4		 mov	 esi, esp
  002bc	6a 00		 push	 0
  002be	8b fc		 mov	 edi, esp
  002c0	6a f4		 push	 -12			; fffffff4H
  002c2	8b 4d fc	 mov	 ecx, DWORD PTR _this$[ebp]
  002c5	8b 51 20	 mov	 edx, DWORD PTR [ecx+32]
  002c8	52		 push	 edx
  002c9	ff 15 00 00 00
	00		 call	 DWORD PTR __imp__GetWindowLongA@8
  002cf	3b fc		 cmp	 edi, esp
  002d1	e8 00 00 00 00	 call	 __RTC_CheckEsp
  002d6	50		 push	 eax
  002d7	68 eb 07 00 00	 push	 2027			; 000007ebH
  002dc	8b 4d fc	 mov	 ecx, DWORD PTR _this$[ebp]
  002df	e8 00 00 00 00	 call	 ?GetParent@CWnd@@QBEPAV1@XZ ; CWnd::GetParent
  002e4	8b 40 20	 mov	 eax, DWORD PTR [eax+32]
  002e7	50		 push	 eax
  002e8	ff 15 00 00 00
	00		 call	 DWORD PTR __imp__SendMessageA@16
  002ee	3b f4		 cmp	 esi, esp
  002f0	e8 00 00 00 00	 call	 __RTC_CheckEsp

; 67   : 	return 1;

  002f5	b8 01 00 00 00	 mov	 eax, 1

; 68   : } 

  002fa	5f		 pop	 edi
  002fb	5e		 pop	 esi
  002fc	83 c4 04	 add	 esp, 4
  002ff	3b ec		 cmp	 ebp, esp
  00301	e8 00 00 00 00	 call	 __RTC_CheckEsp
  00306	8b e5		 mov	 esp, ebp
  00308	5d		 pop	 ebp
  00309	c2 08 00	 ret	 8
?OnMouseHover@CEditEx@@QAEJIJ@Z ENDP			; CEditEx::OnMouseHover
; Function compile flags: /Odt /RTCsu
_this$ = -4						; size = 4
_wParam$ = 8						; size = 4
_lParam$ = 12						; size = 4
?OnMouseLeave@CEditEx@@QAEJIJ@Z PROC NEAR		; CEditEx::OnMouseLeave
; _this$ = ecx

; 70   : { 	

  00310	55		 push	 ebp
  00311	8b ec		 mov	 ebp, esp
  00313	51		 push	 ecx
  00314	56		 push	 esi
  00315	57		 push	 edi
  00316	c7 45 fc cc cc
	cc cc		 mov	 DWORD PTR [ebp-4], -858993460 ; ccccccccH
  0031d	89 4d fc	 mov	 DWORD PTR _this$[ebp], ecx

; 71   : 	m_bMouseOn = FALSE;

  00320	8b 45 fc	 mov	 eax, DWORD PTR _this$[ebp]
  00323	c7 40 64 00 00
	00 00		 mov	 DWORD PTR [eax+100], 0

; 72   : 	::SendMessage( this->GetParent()->m_hWnd, MSG_MOUSELEAVE_EDIT, GetWindowLong(this->m_hWnd, GWL_ID),0 );

  0032a	8b f4		 mov	 esi, esp
  0032c	6a 00		 push	 0
  0032e	8b fc		 mov	 edi, esp
  00330	6a f4		 push	 -12			; fffffff4H
  00332	8b 4d fc	 mov	 ecx, DWORD PTR _this$[ebp]
  00335	8b 51 20	 mov	 edx, DWORD PTR [ecx+32]
  00338	52		 push	 edx
  00339	ff 15 00 00 00
	00		 call	 DWORD PTR __imp__GetWindowLongA@8
  0033f	3b fc		 cmp	 edi, esp
  00341	e8 00 00 00 00	 call	 __RTC_CheckEsp
  00346	50		 push	 eax
  00347	68 ea 07 00 00	 push	 2026			; 000007eaH
  0034c	8b 4d fc	 mov	 ecx, DWORD PTR _this$[ebp]
  0034f	e8 00 00 00 00	 call	 ?GetParent@CWnd@@QBEPAV1@XZ ; CWnd::GetParent
  00354	8b 40 20	 mov	 eax, DWORD PTR [eax+32]
  00357	50		 push	 eax
  00358	ff 15 00 00 00
	00		 call	 DWORD PTR __imp__SendMessageA@16
  0035e	3b f4		 cmp	 esi, esp
  00360	e8 00 00 00 00	 call	 __RTC_CheckEsp

; 73   : 	return 1;

  00365	b8 01 00 00 00	 mov	 eax, 1

; 74   : }

  0036a	5f		 pop	 edi
  0036b	5e		 pop	 esi
  0036c	83 c4 04	 add	 esp, 4
  0036f	3b ec		 cmp	 ebp, esp
  00371	e8 00 00 00 00	 call	 __RTC_CheckEsp
  00376	8b e5		 mov	 esp, ebp
  00378	5d		 pop	 ebp
  00379	c2 08 00	 ret	 8
?OnMouseLeave@CEditEx@@QAEJIJ@Z ENDP			; CEditEx::OnMouseLeave
_TEXT	ENDS
EXTRN	?OnMouseMove@CWnd@@IAEXIVCPoint@@@Z:NEAR	; CWnd::OnMouseMove
EXTRN	__imp___TrackMouseEvent@4:NEAR
; Function compile flags: /Odt /RTCsu
_TEXT	SEGMENT
_tme$187131 = -24					; size = 16
_this$ = -4						; size = 4
_nFlags$ = 8						; size = 4
_point$ = 12						; size = 8
?OnMouseMove@CEditEx@@QAEXIVCPoint@@@Z PROC NEAR	; CEditEx::OnMouseMove
; _this$ = ecx

; 76   : {

  00380	55		 push	 ebp
  00381	8b ec		 mov	 ebp, esp
  00383	83 ec 1c	 sub	 esp, 28			; 0000001cH
  00386	56		 push	 esi
  00387	b8 cc cc cc cc	 mov	 eax, -858993460		; ccccccccH
  0038c	89 45 e4	 mov	 DWORD PTR [ebp-28], eax
  0038f	89 45 e8	 mov	 DWORD PTR [ebp-24], eax
  00392	89 45 ec	 mov	 DWORD PTR [ebp-20], eax
  00395	89 45 f0	 mov	 DWORD PTR [ebp-16], eax
  00398	89 45 f4	 mov	 DWORD PTR [ebp-12], eax
  0039b	89 45 f8	 mov	 DWORD PTR [ebp-8], eax
  0039e	89 45 fc	 mov	 DWORD PTR [ebp-4], eax
  003a1	89 4d fc	 mov	 DWORD PTR _this$[ebp], ecx

; 77   : 	// TODO: Add your message handler code here and/or call default
; 78   : 	if   (!m_bMouseOn) 

  003a4	8b 45 fc	 mov	 eax, DWORD PTR _this$[ebp]
  003a7	83 78 64 00	 cmp	 DWORD PTR [eax+100], 0
  003ab	75 37		 jne	 SHORT $L187130

; 79   : 	{ 
; 80   : 		TRACKMOUSEEVENT   tme;
; 81   : 		tme.cbSize   =   sizeof(tme); 

  003ad	c7 45 e8 10 00
	00 00		 mov	 DWORD PTR _tme$187131[ebp], 16 ; 00000010H

; 82   : 		tme.hwndTrack   =   m_hWnd; 

  003b4	8b 4d fc	 mov	 ecx, DWORD PTR _this$[ebp]
  003b7	8b 51 20	 mov	 edx, DWORD PTR [ecx+32]
  003ba	89 55 f0	 mov	 DWORD PTR _tme$187131[ebp+8], edx

; 83   : 		tme.dwFlags   =   TME_LEAVE   |   TME_HOVER; 

  003bd	c7 45 ec 03 00
	00 00		 mov	 DWORD PTR _tme$187131[ebp+4], 3

; 84   : 		tme.dwHoverTime   =   1; 

  003c4	c7 45 f4 01 00
	00 00		 mov	 DWORD PTR _tme$187131[ebp+12], 1

; 85   : 		m_bMouseOn   =   _TrackMouseEvent(&tme); 

  003cb	8b f4		 mov	 esi, esp
  003cd	8d 45 e8	 lea	 eax, DWORD PTR _tme$187131[ebp]
  003d0	50		 push	 eax
  003d1	ff 15 00 00 00
	00		 call	 DWORD PTR __imp___TrackMouseEvent@4
  003d7	3b f4		 cmp	 esi, esp
  003d9	e8 00 00 00 00	 call	 __RTC_CheckEsp
  003de	8b 4d fc	 mov	 ecx, DWORD PTR _this$[ebp]
  003e1	89 41 64	 mov	 DWORD PTR [ecx+100], eax
$L187130:

; 86   : 	} 
; 87   : 
; 88   : 	CEdit::OnMouseMove(nFlags, point);

  003e4	8b 55 10	 mov	 edx, DWORD PTR _point$[ebp+4]
  003e7	52		 push	 edx
  003e8	8b 45 0c	 mov	 eax, DWORD PTR _point$[ebp]
  003eb	50		 push	 eax
  003ec	8b 4d 08	 mov	 ecx, DWORD PTR _nFlags$[ebp]
  003ef	51		 push	 ecx
  003f0	8b 4d fc	 mov	 ecx, DWORD PTR _this$[ebp]
  003f3	e8 00 00 00 00	 call	 ?OnMouseMove@CWnd@@IAEXIVCPoint@@@Z ; CWnd::OnMouseMove

; 89   : }

  003f8	52		 push	 edx
  003f9	8b cd		 mov	 ecx, ebp
  003fb	50		 push	 eax
  003fc	8d 15 00 00 00
	00		 lea	 edx, DWORD PTR $L187727
  00402	e8 00 00 00 00	 call	 @_RTC_CheckStackVars@8
  00407	58		 pop	 eax
  00408	5a		 pop	 edx
  00409	5e		 pop	 esi
  0040a	83 c4 1c	 add	 esp, 28			; 0000001cH
  0040d	3b ec		 cmp	 ebp, esp
  0040f	e8 00 00 00 00	 call	 __RTC_CheckEsp
  00414	8b e5		 mov	 esp, ebp
  00416	5d		 pop	 ebp
  00417	c2 0c 00	 ret	 12			; 0000000cH
$L187727:
  0041a	01 00 00 00	 DD	 1
  0041e	00 00 00 00	 DD	 $L187726
$L187726:
  00422	e8 ff ff ff	 DD	 -24			; ffffffe8H
  00426	10 00 00 00	 DD	 16			; 00000010H
  0042a	00 00 00 00	 DD	 $L187725
$L187725:
  0042e	74		 DB	 116			; 00000074H
  0042f	6d		 DB	 109			; 0000006dH
  00430	65		 DB	 101			; 00000065H
  00431	00		 DB	 0
?OnMouseMove@CEditEx@@QAEXIVCPoint@@@Z ENDP		; CEditEx::OnMouseMove
_TEXT	ENDS
EXTRN	?DrawTextA@CDC@@QAEHABV?$CStringT@DV?$StrTraitMFC_DLL@DV?$ChTraitsCRT@D@ATL@@@@@ATL@@PAUtagRECT@@I@Z:NEAR ; CDC::DrawTextA
EXTRN	?AfxGetUIManager@@YAPAVIUIManager@@XZ:NEAR	; AfxGetUIManager
EXTRN	?SetSel@CEdit@@QAEXHHH@Z:NEAR			; CEdit::SetSel
EXTRN	?FillSolidRect@CDC@@QAEXPBUtagRECT@@K@Z:NEAR	; CDC::FillSolidRect
EXTRN	??0CPaintDC@@QAE@PAVCWnd@@@Z:NEAR		; CPaintDC::CPaintDC
EXTRN	??1CPaintDC@@UAE@XZ:NEAR			; CPaintDC::~CPaintDC
EXTRN	??0CRect@@QAE@XZ:NEAR				; CRect::CRect
EXTRN	??BCRect@@QAEPAUtagRECT@@XZ:NEAR		; CRect::operator tagRECT *
EXTRN	?GetWindowTextA@CWnd@@QBEXAAV?$CStringT@DV?$StrTraitMFC_DLL@DV?$ChTraitsCRT@D@ATL@@@@@ATL@@@Z:NEAR ; CWnd::GetWindowTextA
EXTRN	?GetClientRect@CWnd@@QBEXPAUtagRECT@@@Z:NEAR	; CWnd::GetClientRect
EXTRN	__imp_?GetLength@?$CSimpleStringT@D$00@ATL@@QBEHXZ:NEAR
EXTRN	?SelectObject@CDC@@UAEPAVCFont@@PAV2@@Z:NEAR	; CDC::SelectObject
EXTRN	?SetTextColor@CDC@@UAEKK@Z:NEAR			; CDC::SetTextColor
EXTRN	__imp_??0?$CStringT@DV?$StrTraitMFC_DLL@DV?$ChTraitsCRT@D@ATL@@@@@ATL@@QAE@XZ:NEAR
EXTRN	?GetFocus@CWnd@@SGPAV1@XZ:NEAR			; CWnd::GetFocus
EXTRN	__imp_??1?$CStringT@DV?$StrTraitMFC_DLL@DV?$ChTraitsCRT@D@ATL@@@@@ATL@@QAE@XZ:NEAR
EXTRN	__imp_??4?$CStringT@DV?$StrTraitMFC_DLL@DV?$ChTraitsCRT@D@ATL@@@@@ATL@@QAEAAV01@PBD@Z:NEAR
EXTRN	__imp_?Trim@?$CStringT@DV?$StrTraitMFC_DLL@DV?$ChTraitsCRT@D@ATL@@@@@ATL@@QAEAAV12@XZ:NEAR
xdata$x	SEGMENT
$T187741 DD	0ffffffffH
	DD	FLAT:$L187730
	DD	00H
	DD	FLAT:$L187731
$T187733 DD	019930520H
	DD	02H
	DD	FLAT:$T187741
	DD	2 DUP(00H)
	DD	2 DUP(00H)
; Function compile flags: /Odt /RTCsu
xdata$x	ENDS
_TEXT	SEGMENT
tv156 = -188						; size = 4
tv151 = -184						; size = 4
tv138 = -180						; size = 4
tv133 = -176						; size = 4
tv94 = -172						; size = 4
tv89 = -168						; size = 4
_clrBk$ = -164						; size = 4
_oldfont$ = -160					; size = 4
_clrText$ = -156					; size = 4
_rectText$ = -148					; size = 16
_dc$ = -124						; size = 84
_cText$ = -32						; size = 4
_bDrawTip$ = -21					; size = 1
_this$ = -20						; size = 4
__$ArrayPad$ = -16					; size = 4
__$EHRec$ = -12						; size = 12
__$ReturnAddr$ = 4					; size = 4
?OnPaint@CEditEx@@QAEXXZ PROC NEAR			; CEditEx::OnPaint
; _this$ = ecx

; 92   : {

  00440	55		 push	 ebp
  00441	8b ec		 mov	 ebp, esp
  00443	6a ff		 push	 -1
  00445	68 00 00 00 00	 push	 __ehhandler$?OnPaint@CEditEx@@QAEXXZ
  0044a	64 a1 00 00 00
	00		 mov	 eax, DWORD PTR fs:__except_list
  00450	50		 push	 eax
  00451	64 89 25 00 00
	00 00		 mov	 DWORD PTR fs:__except_list, esp
  00458	81 ec b0 00 00
	00		 sub	 esp, 176		; 000000b0H
  0045e	56		 push	 esi
  0045f	57		 push	 edi
  00460	51		 push	 ecx
  00461	8d bd 44 ff ff
	ff		 lea	 edi, DWORD PTR [ebp-188]
  00467	b9 2c 00 00 00	 mov	 ecx, 44			; 0000002cH
  0046c	b8 cc cc cc cc	 mov	 eax, -858993460		; ccccccccH
  00471	f3 ab		 rep stosd
  00473	59		 pop	 ecx
  00474	a1 00 00 00 00	 mov	 eax, DWORD PTR ___security_cookie
  00479	89 45 f0	 mov	 DWORD PTR __$ArrayPad$[ebp], eax
  0047c	89 4d ec	 mov	 DWORD PTR _this$[ebp], ecx

; 93   : 	bool bDrawTip = false;

  0047f	c6 45 eb 00	 mov	 BYTE PTR _bDrawTip$[ebp], 0

; 94   : 	CString cText;

  00483	8b f4		 mov	 esi, esp
  00485	8d 4d e0	 lea	 ecx, DWORD PTR _cText$[ebp]
  00488	ff 15 00 00 00
	00		 call	 DWORD PTR __imp_??0?$CStringT@DV?$StrTraitMFC_DLL@DV?$ChTraitsCRT@D@ATL@@@@@ATL@@QAE@XZ
  0048e	3b f4		 cmp	 esi, esp
  00490	e8 00 00 00 00	 call	 __RTC_CheckEsp
  00495	c7 45 fc 00 00
	00 00		 mov	 DWORD PTR __$EHRec$[ebp+8], 0

; 95   : 	if( GetFocus()!= this )

  0049c	e8 00 00 00 00	 call	 ?GetFocus@CWnd@@SGPAV1@XZ ; CWnd::GetFocus
  004a1	3b 45 ec	 cmp	 eax, DWORD PTR _this$[ebp]
  004a4	74 4e		 je	 SHORT $L187137

; 96   : 	{
; 97   : 		GetWindowText(cText);

  004a6	8d 45 e0	 lea	 eax, DWORD PTR _cText$[ebp]
  004a9	50		 push	 eax
  004aa	8b 4d ec	 mov	 ecx, DWORD PTR _this$[ebp]
  004ad	e8 00 00 00 00	 call	 ?GetWindowTextA@CWnd@@QBEXAAV?$CStringT@DV?$StrTraitMFC_DLL@DV?$ChTraitsCRT@D@ATL@@@@@ATL@@@Z ; CWnd::GetWindowTextA

; 98   : 		if( cText.Trim().GetLength() == 0 )

  004b2	8b f4		 mov	 esi, esp
  004b4	8d 4d e0	 lea	 ecx, DWORD PTR _cText$[ebp]
  004b7	ff 15 00 00 00
	00		 call	 DWORD PTR __imp_?Trim@?$CStringT@DV?$StrTraitMFC_DLL@DV?$ChTraitsCRT@D@ATL@@@@@ATL@@QAEAAV12@XZ
  004bd	3b f4		 cmp	 esi, esp
  004bf	e8 00 00 00 00	 call	 __RTC_CheckEsp
  004c4	8b f4		 mov	 esi, esp
  004c6	8b c8		 mov	 ecx, eax
  004c8	ff 15 00 00 00
	00		 call	 DWORD PTR __imp_?GetLength@?$CSimpleStringT@D$00@ATL@@QBEHXZ
  004ce	3b f4		 cmp	 esi, esp
  004d0	e8 00 00 00 00	 call	 __RTC_CheckEsp
  004d5	85 c0		 test	 eax, eax
  004d7	75 1b		 jne	 SHORT $L187137

; 99   : 		{
; 100  : 			cText = SEARCH_HELP;

  004d9	8b f4		 mov	 esi, esp
  004db	68 00 00 00 00	 push	 OFFSET FLAT:$SG187139
  004e0	8d 4d e0	 lea	 ecx, DWORD PTR _cText$[ebp]
  004e3	ff 15 00 00 00
	00		 call	 DWORD PTR __imp_??4?$CStringT@DV?$StrTraitMFC_DLL@DV?$ChTraitsCRT@D@ATL@@@@@ATL@@QAEAAV01@PBD@Z
  004e9	3b f4		 cmp	 esi, esp
  004eb	e8 00 00 00 00	 call	 __RTC_CheckEsp

; 101  : 			bDrawTip = true;

  004f0	c6 45 eb 01	 mov	 BYTE PTR _bDrawTip$[ebp], 1
$L187137:

; 102  : 		}
; 103  : 	}
; 104  : 
; 105  : 	CPaintDC dc(this); 

  004f4	8b 4d ec	 mov	 ecx, DWORD PTR _this$[ebp]
  004f7	51		 push	 ecx
  004f8	8d 4d 84	 lea	 ecx, DWORD PTR _dc$[ebp]
  004fb	e8 00 00 00 00	 call	 ??0CPaintDC@@QAE@PAVCWnd@@@Z ; CPaintDC::CPaintDC
  00500	c6 45 fc 01	 mov	 BYTE PTR __$EHRec$[ebp+8], 1

; 106  : 	CRect rectText;

  00504	8d 8d 6c ff ff
	ff		 lea	 ecx, DWORD PTR _rectText$[ebp]
  0050a	e8 00 00 00 00	 call	 ??0CRect@@QAE@XZ	; CRect::CRect

; 107  : 	GetClientRect(&rectText); 

  0050f	8d 95 6c ff ff
	ff		 lea	 edx, DWORD PTR _rectText$[ebp]
  00515	52		 push	 edx
  00516	8b 4d ec	 mov	 ecx, DWORD PTR _this$[ebp]
  00519	e8 00 00 00 00	 call	 ?GetClientRect@CWnd@@QBEXPAUtagRECT@@@Z ; CWnd::GetClientRect

; 108  : 
; 109  : 	COLORREF clrText;
; 110  : 	if( bDrawTip )

  0051e	0f b6 45 eb	 movzx	 eax, BYTE PTR _bDrawTip$[ebp]
  00522	85 c0		 test	 eax, eax
  00524	74 52		 je	 SHORT $L187143

; 111  : 	{
; 112  : 		clrText = ::AfxGetUIManager()->UIGetSkinMgr()->GetColor("SearchInputEditTip");

  00526	e8 00 00 00 00	 call	 ?AfxGetUIManager@@YAPAVIUIManager@@XZ ; AfxGetUIManager
  0052b	89 85 58 ff ff
	ff		 mov	 DWORD PTR tv89[ebp], eax
  00531	8b f4		 mov	 esi, esp
  00533	8b 8d 58 ff ff
	ff		 mov	 ecx, DWORD PTR tv89[ebp]
  00539	8b 11		 mov	 edx, DWORD PTR [ecx]
  0053b	8b 8d 58 ff ff
	ff		 mov	 ecx, DWORD PTR tv89[ebp]
  00541	ff 52 28	 call	 DWORD PTR [edx+40]
  00544	3b f4		 cmp	 esi, esp
  00546	e8 00 00 00 00	 call	 __RTC_CheckEsp
  0054b	89 85 54 ff ff
	ff		 mov	 DWORD PTR tv94[ebp], eax
  00551	8b f4		 mov	 esi, esp
  00553	68 00 00 00 00	 push	 OFFSET FLAT:$SG187144
  00558	8b 85 54 ff ff
	ff		 mov	 eax, DWORD PTR tv94[ebp]
  0055e	8b 10		 mov	 edx, DWORD PTR [eax]
  00560	8b 8d 54 ff ff
	ff		 mov	 ecx, DWORD PTR tv94[ebp]
  00566	ff 52 08	 call	 DWORD PTR [edx+8]
  00569	3b f4		 cmp	 esi, esp
  0056b	e8 00 00 00 00	 call	 __RTC_CheckEsp
  00570	89 85 64 ff ff
	ff		 mov	 DWORD PTR _clrText$[ebp], eax

; 113  : 	}else

  00576	eb 50		 jmp	 SHORT $L187145
$L187143:

; 114  : 	{
; 115  : 		clrText	= ::AfxGetUIManager()->UIGetSkinMgr()->GetColor("SearchInputEditText");

  00578	e8 00 00 00 00	 call	 ?AfxGetUIManager@@YAPAVIUIManager@@XZ ; AfxGetUIManager
  0057d	89 85 50 ff ff
	ff		 mov	 DWORD PTR tv133[ebp], eax
  00583	8b f4		 mov	 esi, esp
  00585	8b 85 50 ff ff
	ff		 mov	 eax, DWORD PTR tv133[ebp]
  0058b	8b 10		 mov	 edx, DWORD PTR [eax]
  0058d	8b 8d 50 ff ff
	ff		 mov	 ecx, DWORD PTR tv133[ebp]
  00593	ff 52 28	 call	 DWORD PTR [edx+40]
  00596	3b f4		 cmp	 esi, esp
  00598	e8 00 00 00 00	 call	 __RTC_CheckEsp
  0059d	89 85 4c ff ff
	ff		 mov	 DWORD PTR tv138[ebp], eax
  005a3	8b f4		 mov	 esi, esp
  005a5	68 00 00 00 00	 push	 OFFSET FLAT:$SG187146
  005aa	8b 85 4c ff ff
	ff		 mov	 eax, DWORD PTR tv138[ebp]
  005b0	8b 10		 mov	 edx, DWORD PTR [eax]
  005b2	8b 8d 4c ff ff
	ff		 mov	 ecx, DWORD PTR tv138[ebp]
  005b8	ff 52 08	 call	 DWORD PTR [edx+8]
  005bb	3b f4		 cmp	 esi, esp
  005bd	e8 00 00 00 00	 call	 __RTC_CheckEsp
  005c2	89 85 64 ff ff
	ff		 mov	 DWORD PTR _clrText$[ebp], eax
$L187145:

; 116  : 	}
; 117  : 	dc.SetTextColor( clrText );

  005c8	8b 85 64 ff ff
	ff		 mov	 eax, DWORD PTR _clrText$[ebp]
  005ce	50		 push	 eax
  005cf	8d 4d 84	 lea	 ecx, DWORD PTR _dc$[ebp]
  005d2	e8 00 00 00 00	 call	 ?SetTextColor@CDC@@UAEKK@Z ; CDC::SetTextColor

; 118  : 
; 119  : 	CFont   *oldfont;   
; 120  : 	oldfont = dc.SelectObject( &m_font);

  005d7	8b 4d ec	 mov	 ecx, DWORD PTR _this$[ebp]
  005da	83 c1 58	 add	 ecx, 88			; 00000058H
  005dd	51		 push	 ecx
  005de	8d 4d 84	 lea	 ecx, DWORD PTR _dc$[ebp]
  005e1	e8 00 00 00 00	 call	 ?SelectObject@CDC@@UAEPAVCFont@@PAV2@@Z ; CDC::SelectObject
  005e6	89 85 60 ff ff
	ff		 mov	 DWORD PTR _oldfont$[ebp], eax

; 121  : 	
; 122  : 	COLORREF clrBk = ::AfxGetUIManager()->UIGetSkinMgr()->GetColor("SearchInputEditBK");

  005ec	e8 00 00 00 00	 call	 ?AfxGetUIManager@@YAPAVIUIManager@@XZ ; AfxGetUIManager
  005f1	89 85 48 ff ff
	ff		 mov	 DWORD PTR tv151[ebp], eax
  005f7	8b f4		 mov	 esi, esp
  005f9	8b 95 48 ff ff
	ff		 mov	 edx, DWORD PTR tv151[ebp]
  005ff	8b 02		 mov	 eax, DWORD PTR [edx]
  00601	8b 8d 48 ff ff
	ff		 mov	 ecx, DWORD PTR tv151[ebp]
  00607	ff 50 28	 call	 DWORD PTR [eax+40]
  0060a	3b f4		 cmp	 esi, esp
  0060c	e8 00 00 00 00	 call	 __RTC_CheckEsp
  00611	89 85 44 ff ff
	ff		 mov	 DWORD PTR tv156[ebp], eax
  00617	8b f4		 mov	 esi, esp
  00619	68 00 00 00 00	 push	 OFFSET FLAT:$SG187149
  0061e	8b 8d 44 ff ff
	ff		 mov	 ecx, DWORD PTR tv156[ebp]
  00624	8b 11		 mov	 edx, DWORD PTR [ecx]
  00626	8b 8d 44 ff ff
	ff		 mov	 ecx, DWORD PTR tv156[ebp]
  0062c	ff 52 08	 call	 DWORD PTR [edx+8]
  0062f	3b f4		 cmp	 esi, esp
  00631	e8 00 00 00 00	 call	 __RTC_CheckEsp
  00636	89 85 5c ff ff
	ff		 mov	 DWORD PTR _clrBk$[ebp], eax

; 123  : 	dc.FillSolidRect(&rectText,clrBk);

  0063c	8b 85 5c ff ff
	ff		 mov	 eax, DWORD PTR _clrBk$[ebp]
  00642	50		 push	 eax
  00643	8d 8d 6c ff ff
	ff		 lea	 ecx, DWORD PTR _rectText$[ebp]
  00649	51		 push	 ecx
  0064a	8d 4d 84	 lea	 ecx, DWORD PTR _dc$[ebp]
  0064d	e8 00 00 00 00	 call	 ?FillSolidRect@CDC@@QAEXPBUtagRECT@@K@Z ; CDC::FillSolidRect

; 124  : 
; 125  : 	rectText.left += 4;

  00652	8b 95 6c ff ff
	ff		 mov	 edx, DWORD PTR _rectText$[ebp]
  00658	83 c2 04	 add	 edx, 4
  0065b	89 95 6c ff ff
	ff		 mov	 DWORD PTR _rectText$[ebp], edx

; 126  : 	dc.DrawText( cText,rectText, DT_VCENTER|DT_LEFT|DT_SINGLELINE );

  00661	6a 24		 push	 36			; 00000024H
  00663	8d 8d 6c ff ff
	ff		 lea	 ecx, DWORD PTR _rectText$[ebp]
  00669	e8 00 00 00 00	 call	 ??BCRect@@QAEPAUtagRECT@@XZ ; CRect::operator tagRECT *
  0066e	50		 push	 eax
  0066f	8d 45 e0	 lea	 eax, DWORD PTR _cText$[ebp]
  00672	50		 push	 eax
  00673	8d 4d 84	 lea	 ecx, DWORD PTR _dc$[ebp]
  00676	e8 00 00 00 00	 call	 ?DrawTextA@CDC@@QAEHABV?$CStringT@DV?$StrTraitMFC_DLL@DV?$ChTraitsCRT@D@ATL@@@@@ATL@@PAUtagRECT@@I@Z ; CDC::DrawTextA

; 127  : 	dc.SelectObject( oldfont );

  0067b	8b 8d 60 ff ff
	ff		 mov	 ecx, DWORD PTR _oldfont$[ebp]
  00681	51		 push	 ecx
  00682	8d 4d 84	 lea	 ecx, DWORD PTR _dc$[ebp]
  00685	e8 00 00 00 00	 call	 ?SelectObject@CDC@@UAEPAVCFont@@PAV2@@Z ; CDC::SelectObject

; 128  : 	SetSel(-1, -1);

  0068a	6a 00		 push	 0
  0068c	6a ff		 push	 -1
  0068e	6a ff		 push	 -1
  00690	8b 4d ec	 mov	 ecx, DWORD PTR _this$[ebp]
  00693	e8 00 00 00 00	 call	 ?SetSel@CEdit@@QAEXHHH@Z ; CEdit::SetSel

; 129  : }

  00698	c6 45 fc 00	 mov	 BYTE PTR __$EHRec$[ebp+8], 0
  0069c	8d 4d 84	 lea	 ecx, DWORD PTR _dc$[ebp]
  0069f	e8 00 00 00 00	 call	 ??1CPaintDC@@UAE@XZ	; CPaintDC::~CPaintDC
  006a4	c7 45 fc ff ff
	ff ff		 mov	 DWORD PTR __$EHRec$[ebp+8], -1
  006ab	8b f4		 mov	 esi, esp
  006ad	8d 4d e0	 lea	 ecx, DWORD PTR _cText$[ebp]
  006b0	ff 15 00 00 00
	00		 call	 DWORD PTR __imp_??1?$CStringT@DV?$StrTraitMFC_DLL@DV?$ChTraitsCRT@D@ATL@@@@@ATL@@QAE@XZ
  006b6	3b f4		 cmp	 esi, esp
  006b8	e8 00 00 00 00	 call	 __RTC_CheckEsp
  006bd	52		 push	 edx
  006be	8b cd		 mov	 ecx, ebp
  006c0	50		 push	 eax
  006c1	8d 15 00 00 00
	00		 lea	 edx, DWORD PTR $L187740
  006c7	e8 00 00 00 00	 call	 @_RTC_CheckStackVars@8
  006cc	58		 pop	 eax
  006cd	5a		 pop	 edx
  006ce	8b 4d f4	 mov	 ecx, DWORD PTR __$EHRec$[ebp]
  006d1	64 89 0d 00 00
	00 00		 mov	 DWORD PTR fs:__except_list, ecx
  006d8	8b 4d f0	 mov	 ecx, DWORD PTR __$ArrayPad$[ebp]
  006db	e8 00 00 00 00	 call	 @__security_check_cookie@4
  006e0	5f		 pop	 edi
  006e1	5e		 pop	 esi
  006e2	81 c4 bc 00 00
	00		 add	 esp, 188		; 000000bcH
  006e8	3b ec		 cmp	 ebp, esp
  006ea	e8 00 00 00 00	 call	 __RTC_CheckEsp
  006ef	8b e5		 mov	 esp, ebp
  006f1	5d		 pop	 ebp
  006f2	c3		 ret	 0
$L187740:
  006f3	03 00 00 00	 DD	 3
  006f7	00 00 00 00	 DD	 $L187739
$L187739:
  006fb	e0 ff ff ff	 DD	 -32			; ffffffe0H
  006ff	04 00 00 00	 DD	 4
  00703	00 00 00 00	 DD	 $L187734
  00707	84 ff ff ff	 DD	 -124			; ffffff84H
  0070b	54 00 00 00	 DD	 84			; 00000054H
  0070f	00 00 00 00	 DD	 $L187735
  00713	6c ff ff ff	 DD	 -148			; ffffff6cH
  00717	10 00 00 00	 DD	 16			; 00000010H
  0071b	00 00 00 00	 DD	 $L187736
$L187736:
  0071f	72		 DB	 114			; 00000072H
  00720	65		 DB	 101			; 00000065H
  00721	63		 DB	 99			; 00000063H
  00722	74		 DB	 116			; 00000074H
  00723	54		 DB	 84			; 00000054H
  00724	65		 DB	 101			; 00000065H
  00725	78		 DB	 120			; 00000078H
  00726	74		 DB	 116			; 00000074H
  00727	00		 DB	 0
$L187735:
  00728	64		 DB	 100			; 00000064H
  00729	63		 DB	 99			; 00000063H
  0072a	00		 DB	 0
$L187734:
  0072b	63		 DB	 99			; 00000063H
  0072c	54		 DB	 84			; 00000054H
  0072d	65		 DB	 101			; 00000065H
  0072e	78		 DB	 120			; 00000078H
  0072f	74		 DB	 116			; 00000074H
  00730	00		 DB	 0
_TEXT	ENDS
text$x	SEGMENT
$L187730:
  00024	8b f4		 mov	 esi, esp
  00026	8d 4d e0	 lea	 ecx, DWORD PTR _cText$[ebp]
  00029	ff 15 00 00 00
	00		 call	 DWORD PTR __imp_??1?$CStringT@DV?$StrTraitMFC_DLL@DV?$ChTraitsCRT@D@ATL@@@@@ATL@@QAE@XZ
  0002f	3b f4		 cmp	 esi, esp
  00031	e9 00 00 00 00	 jmp	 __RTC_CheckEsp
$L187731:
  00036	8d 4d 84	 lea	 ecx, DWORD PTR _dc$[ebp]
  00039	e9 00 00 00 00	 jmp	 ??1CPaintDC@@UAE@XZ	; CPaintDC::~CPaintDC
__ehhandler$?OnPaint@CEditEx@@QAEXXZ:
  0003e	b8 00 00 00 00	 mov	 eax, OFFSET FLAT:$T187733
  00043	e9 00 00 00 00	 jmp	 ___CxxFrameHandler
text$x	ENDS
?OnPaint@CEditEx@@QAEXXZ ENDP				; CEditEx::OnPaint
EXTRN	__imp__SetBkColor@8:NEAR
EXTRN	__imp__SetTextColor@8:NEAR
EXTRN	?OnChildNotify@CWnd@@MAEHIIJPAJ@Z:NEAR		; CWnd::OnChildNotify
; Function compile flags: /Odt /RTCsu
_TEXT	SEGMENT
tv90 = -32						; size = 4
tv85 = -28						; size = 4
tv78 = -24						; size = 4
tv73 = -20						; size = 4
_clrBk$ = -16						; size = 4
_clrText$ = -12						; size = 4
_hdcChild$ = -8						; size = 4
_this$ = -4						; size = 4
_message$ = 8						; size = 4
_wParam$ = 12						; size = 4
_lParam$ = 16						; size = 4
_pLResult$ = 20						; size = 4
?OnChildNotify@CEditEx@@UAEHIIJPAJ@Z PROC NEAR		; CEditEx::OnChildNotify
; _this$ = ecx

; 132  : {

  00740	55		 push	 ebp
  00741	8b ec		 mov	 ebp, esp
  00743	83 ec 20	 sub	 esp, 32			; 00000020H
  00746	56		 push	 esi
  00747	b8 cc cc cc cc	 mov	 eax, -858993460		; ccccccccH
  0074c	89 45 e0	 mov	 DWORD PTR [ebp-32], eax
  0074f	89 45 e4	 mov	 DWORD PTR [ebp-28], eax
  00752	89 45 e8	 mov	 DWORD PTR [ebp-24], eax
  00755	89 45 ec	 mov	 DWORD PTR [ebp-20], eax
  00758	89 45 f0	 mov	 DWORD PTR [ebp-16], eax
  0075b	89 45 f4	 mov	 DWORD PTR [ebp-12], eax
  0075e	89 45 f8	 mov	 DWORD PTR [ebp-8], eax
  00761	89 45 fc	 mov	 DWORD PTR [ebp-4], eax
  00764	89 4d fc	 mov	 DWORD PTR _this$[ebp], ecx

; 133  : 	if (message != WM_CTLCOLOREDIT) 

  00767	81 7d 08 33 01
	00 00		 cmp	 DWORD PTR _message$[ebp], 307 ; 00000133H
  0076e	74 1d		 je	 SHORT $L187157

; 134  : 	{
; 135  : 		return CEdit::OnChildNotify(message, wParam, lParam, pLResult);

  00770	8b 45 14	 mov	 eax, DWORD PTR _pLResult$[ebp]
  00773	50		 push	 eax
  00774	8b 4d 10	 mov	 ecx, DWORD PTR _lParam$[ebp]
  00777	51		 push	 ecx
  00778	8b 55 0c	 mov	 edx, DWORD PTR _wParam$[ebp]
  0077b	52		 push	 edx
  0077c	8b 45 08	 mov	 eax, DWORD PTR _message$[ebp]
  0077f	50		 push	 eax
  00780	8b 4d fc	 mov	 ecx, DWORD PTR _this$[ebp]
  00783	e8 00 00 00 00	 call	 ?OnChildNotify@CWnd@@MAEHIIJPAJ@Z ; CWnd::OnChildNotify
  00788	e9 af 00 00 00	 jmp	 $L187156
$L187157:

; 136  : 	}
; 137  : 
; 138  : 	HDC hdcChild = (HDC)wParam;

  0078d	8b 4d 0c	 mov	 ecx, DWORD PTR _wParam$[ebp]
  00790	89 4d f8	 mov	 DWORD PTR _hdcChild$[ebp], ecx

; 139  : 	COLORREF clrText , clrBk;
; 140  : 	clrText	= ::AfxGetUIManager()->UIGetSkinMgr()->GetColor("SearchInputEditText");

  00793	e8 00 00 00 00	 call	 ?AfxGetUIManager@@YAPAVIUIManager@@XZ ; AfxGetUIManager
  00798	89 45 ec	 mov	 DWORD PTR tv73[ebp], eax
  0079b	8b f4		 mov	 esi, esp
  0079d	8b 55 ec	 mov	 edx, DWORD PTR tv73[ebp]
  007a0	8b 02		 mov	 eax, DWORD PTR [edx]
  007a2	8b 4d ec	 mov	 ecx, DWORD PTR tv73[ebp]
  007a5	ff 50 28	 call	 DWORD PTR [eax+40]
  007a8	3b f4		 cmp	 esi, esp
  007aa	e8 00 00 00 00	 call	 __RTC_CheckEsp
  007af	89 45 e8	 mov	 DWORD PTR tv78[ebp], eax
  007b2	8b f4		 mov	 esi, esp
  007b4	68 00 00 00 00	 push	 OFFSET FLAT:$SG187162
  007b9	8b 4d e8	 mov	 ecx, DWORD PTR tv78[ebp]
  007bc	8b 11		 mov	 edx, DWORD PTR [ecx]
  007be	8b 4d e8	 mov	 ecx, DWORD PTR tv78[ebp]
  007c1	ff 52 08	 call	 DWORD PTR [edx+8]
  007c4	3b f4		 cmp	 esi, esp
  007c6	e8 00 00 00 00	 call	 __RTC_CheckEsp
  007cb	89 45 f4	 mov	 DWORD PTR _clrText$[ebp], eax

; 141  : 	clrBk = ::AfxGetUIManager()->UIGetSkinMgr()->GetColor("SearchInputEditBK");

  007ce	e8 00 00 00 00	 call	 ?AfxGetUIManager@@YAPAVIUIManager@@XZ ; AfxGetUIManager
  007d3	89 45 e4	 mov	 DWORD PTR tv85[ebp], eax
  007d6	8b f4		 mov	 esi, esp
  007d8	8b 45 e4	 mov	 eax, DWORD PTR tv85[ebp]
  007db	8b 10		 mov	 edx, DWORD PTR [eax]
  007dd	8b 4d e4	 mov	 ecx, DWORD PTR tv85[ebp]
  007e0	ff 52 28	 call	 DWORD PTR [edx+40]
  007e3	3b f4		 cmp	 esi, esp
  007e5	e8 00 00 00 00	 call	 __RTC_CheckEsp
  007ea	89 45 e0	 mov	 DWORD PTR tv90[ebp], eax
  007ed	8b f4		 mov	 esi, esp
  007ef	68 00 00 00 00	 push	 OFFSET FLAT:$SG187163
  007f4	8b 45 e0	 mov	 eax, DWORD PTR tv90[ebp]
  007f7	8b 10		 mov	 edx, DWORD PTR [eax]
  007f9	8b 4d e0	 mov	 ecx, DWORD PTR tv90[ebp]
  007fc	ff 52 08	 call	 DWORD PTR [edx+8]
  007ff	3b f4		 cmp	 esi, esp
  00801	e8 00 00 00 00	 call	 __RTC_CheckEsp
  00806	89 45 f0	 mov	 DWORD PTR _clrBk$[ebp], eax

; 142  : 
; 143  : 	SetTextColor(hdcChild, clrText);

  00809	8b f4		 mov	 esi, esp
  0080b	8b 45 f4	 mov	 eax, DWORD PTR _clrText$[ebp]
  0080e	50		 push	 eax
  0080f	8b 4d f8	 mov	 ecx, DWORD PTR _hdcChild$[ebp]
  00812	51		 push	 ecx
  00813	ff 15 00 00 00
	00		 call	 DWORD PTR __imp__SetTextColor@8
  00819	3b f4		 cmp	 esi, esp
  0081b	e8 00 00 00 00	 call	 __RTC_CheckEsp

; 144  : 	SetBkColor(hdcChild, clrBk);

  00820	8b f4		 mov	 esi, esp
  00822	8b 55 f0	 mov	 edx, DWORD PTR _clrBk$[ebp]
  00825	52		 push	 edx
  00826	8b 45 f8	 mov	 eax, DWORD PTR _hdcChild$[ebp]
  00829	50		 push	 eax
  0082a	ff 15 00 00 00
	00		 call	 DWORD PTR __imp__SetBkColor@8
  00830	3b f4		 cmp	 esi, esp
  00832	e8 00 00 00 00	 call	 __RTC_CheckEsp

; 145  : 	return TRUE;

  00837	b8 01 00 00 00	 mov	 eax, 1
$L187156:

; 146  : }

  0083c	5e		 pop	 esi
  0083d	83 c4 20	 add	 esp, 32			; 00000020H
  00840	3b ec		 cmp	 ebp, esp
  00842	e8 00 00 00 00	 call	 __RTC_CheckEsp
  00847	8b e5		 mov	 esp, ebp
  00849	5d		 pop	 ebp
  0084a	c2 10 00	 ret	 16			; 00000010H
?OnChildNotify@CEditEx@@UAEHIIJPAJ@Z ENDP		; CEditEx::OnChildNotify
_TEXT	ENDS
END
