; Listing generated by Microsoft (R) Optimizing Compiler Version 13.10.3077 

	TITLE	.\src\LayoutMgr\ETSLayoutEx.cpp
	.386P
include listing.inc
if @Version gt 510
.model FLAT
else
_TEXT	SEGMENT PARA USE32 PUBLIC 'CODE'
_TEXT	ENDS
_DATA	SEGMENT DWORD USE32 PUBLIC 'DATA'
_DATA	ENDS
CONST	SEGMENT DWORD USE32 PUBLIC 'CONST'
CONST	ENDS
_BSS	SEGMENT DWORD USE32 PUBLIC 'BSS'
_BSS	ENDS
$$SYMBOLS	SEGMENT BYTE USE32 'DEBSYM'
$$SYMBOLS	ENDS
_TLS	SEGMENT DWORD USE32 PUBLIC 'TLS'
_TLS	ENDS
;	COMDAT ??_C@_02PGHGPEOM@?91?$AA@
CONST	SEGMENT DWORD USE32 PUBLIC 'CONST'
CONST	ENDS
;	COMDAT ??_C@_04JAADICNI@?5?$DN?1?$FL?$AA@
CONST	SEGMENT DWORD USE32 PUBLIC 'CONST'
CONST	ENDS
;	COMDAT ??_C@_0L@GJIJNDEK@ISO?98859?91?$AA@
CONST	SEGMENT DWORD USE32 PUBLIC 'CONST'
CONST	ENDS
;	COMDAT ??_C@_01JLIPDDHJ@?3?$AA@
CONST	SEGMENT DWORD USE32 PUBLIC 'CONST'
CONST	ENDS
;	COMDAT ??_C@_04LJDDIHIK@?4bmp?$AA@
CONST	SEGMENT DWORD USE32 PUBLIC 'CONST'
CONST	ENDS
;	COMDAT ??_C@_0EN@IBFBLEEG@D?3?2Program?5Files?5?$CIx86?$CJ?2Microsoft@
CONST	SEGMENT DWORD USE32 PUBLIC 'CONST'
CONST	ENDS
;	COMDAT ??_C@_0BI@GIMJKKKN@AtlIsValidString?$CI?5psz?5?$CJ?$AA@
CONST	SEGMENT DWORD USE32 PUBLIC 'CONST'
CONST	ENDS
;	COMDAT ??_C@_0BE@JONHPENG@map?1set?$DMT?$DO?5too?5long?$AA@
CONST	SEGMENT DWORD USE32 PUBLIC 'CONST'
CONST	ENDS
;	COMDAT ??_C@_0FH@BMBEKJNI@D?3?2Program?5Files?5?$CIx86?$CJ?2Microsoft@
CONST	SEGMENT DWORD USE32 PUBLIC 'CONST'
CONST	ENDS
rdata$r	SEGMENT DWORD USE32 PUBLIC 'CONST'
rdata$r	ENDS
xdata$x	SEGMENT DWORD USE32 PUBLIC 'CONST'
xdata$x	ENDS
text$AFX_COL1	SEGMENT PARA USE32 PUBLIC ''
text$AFX_COL1	ENDS
text$yc	SEGMENT PARA USE32 PUBLIC 'CODE'
text$yc	ENDS
CRT$XCA	SEGMENT DWORD USE32 PUBLIC 'DATA'
CRT$XCA	ENDS
CRT$XCU	SEGMENT DWORD USE32 PUBLIC 'DATA'
CRT$XCU	ENDS
CRT$XCL	SEGMENT DWORD USE32 PUBLIC 'DATA'
CRT$XCL	ENDS
CRT$XCC	SEGMENT DWORD USE32 PUBLIC 'DATA'
CRT$XCC	ENDS
CRT$XCZ	SEGMENT DWORD USE32 PUBLIC 'DATA'
CRT$XCZ	ENDS
text$yd	SEGMENT PARA USE32 PUBLIC 'CODE'
text$yd	ENDS
ATL$__m	SEGMENT DWORD USE32 PUBLIC ''
ATL$__m	ENDS
ATL$__z	SEGMENT DWORD USE32 PUBLIC ''
ATL$__z	ENDS
ATL$__a	SEGMENT DWORD USE32 PUBLIC ''
ATL$__a	ENDS
;	COMDAT ?GetSubPane@PaneBase@ETSLayoutMgr@@UAE?AVCPaneBase@2@V?$CStringT@DV?$StrTraitMFC_DLL@DV?$ChTraitsCRT@D@ATL@@@@@ATL@@@Z
_TEXT	SEGMENT PARA USE32 PUBLIC 'CODE'
_TEXT	ENDS
;	COMDAT ??1PaneBase@ETSLayoutMgr@@UAE@XZ
_TEXT	SEGMENT PARA USE32 PUBLIC 'CODE'
_TEXT	ENDS
;	COMDAT ?modeResize@PaneBase@ETSLayoutMgr@@QAEKXZ
_TEXT	SEGMENT PARA USE32 PUBLIC 'CODE'
_TEXT	ENDS
;	COMDAT ?getPaneRect@PaneBase@ETSLayoutMgr@@QAE?AVCRect@@XZ
_TEXT	SEGMENT PARA USE32 PUBLIC 'CODE'
_TEXT	ENDS
;	COMDAT ?GetName@PaneBase@ETSLayoutMgr@@QAE?AV?$CStringT@DV?$StrTraitMFC_DLL@DV?$ChTraitsCRT@D@ATL@@@@@ATL@@XZ
_TEXT	SEGMENT PARA USE32 PUBLIC 'CODE'
_TEXT	ENDS
;	COMDAT ?showPane@PaneBase@ETSLayoutMgr@@UAEX_N@Z
_TEXT	SEGMENT PARA USE32 PUBLIC 'CODE'
_TEXT	ENDS
;	COMDAT ?GetPaneBase@CPaneBase@ETSLayoutMgr@@QAEPAVPaneBase@2@XZ
_TEXT	SEGMENT PARA USE32 PUBLIC 'CODE'
_TEXT	ENDS
;	COMDAT ?IsValid@CPaneBase@ETSLayoutMgr@@QAE_NXZ
_TEXT	SEGMENT PARA USE32 PUBLIC 'CODE'
_TEXT	ENDS
;	COMDAT ?GetPane@CPane@ETSLayoutMgr@@QAEPAVPane@2@XZ
_TEXT	SEGMENT PARA USE32 PUBLIC 'CODE'
_TEXT	ENDS
;	COMDAT ?GetRect@ETSLayoutMgr@@UAE?AVCRect@@XZ
_TEXT	SEGMENT PARA USE32 PUBLIC 'CODE'
_TEXT	ENDS
;	COMDAT ?UpdateLayout@ETSLayoutMgr@@UAEXVCPane@1@@Z
_TEXT	SEGMENT PARA USE32 PUBLIC 'CODE'
_TEXT	ENDS
;	COMDAT ??_GPaneBase@ETSLayoutMgr@@UAEPAXI@Z
_TEXT	SEGMENT PARA USE32 PUBLIC 'CODE'
_TEXT	ENDS
;	COMDAT ??_GETSLayoutMgr@@UAEPAXI@Z
_TEXT	SEGMENT PARA USE32 PUBLIC 'CODE'
_TEXT	ENDS
;	COMDAT ??0CMarkup@@QAE@XZ
_TEXT	SEGMENT PARA USE32 PUBLIC 'CODE'
_TEXT	ENDS
;	COMDAT ??1CMarkup@@UAE@XZ
_TEXT	SEGMENT PARA USE32 PUBLIC 'CODE'
_TEXT	ENDS
;	COMDAT ?AddElem@CMarkup@@QAE_NPBD0@Z
_TEXT	SEGMENT PARA USE32 PUBLIC 'CODE'
_TEXT	ENDS
;	COMDAT ?AddChildElem@CMarkup@@QAE_NPBD0@Z
_TEXT	SEGMENT PARA USE32 PUBLIC 'CODE'
_TEXT	ENDS
;	COMDAT ??0ElemPos@CMarkup@@QAE@XZ
_TEXT	SEGMENT PARA USE32 PUBLIC 'CODE'
_TEXT	ENDS
;	COMDAT ?Clear@ElemPos@CMarkup@@QAEXXZ
_TEXT	SEGMENT PARA USE32 PUBLIC 'CODE'
_TEXT	ENDS
;	COMDAT ?Clear@TokenPos@CMarkup@@QAEXXZ
_TEXT	SEGMENT PARA USE32 PUBLIC 'CODE'
_TEXT	ENDS
;	COMDAT ?x_SetPos@CMarkup@@IAEXHHH@Z
_TEXT	SEGMENT PARA USE32 PUBLIC 'CODE'
_TEXT	ENDS
;	COMDAT ??_GCMarkup@@UAEPAXI@Z
_TEXT	SEGMENT PARA USE32 PUBLIC 'CODE'
_TEXT	ENDS
;	COMDAT ?AddElem@CMarkupArchive@@UAE_NPBD0@Z
_TEXT	SEGMENT PARA USE32 PUBLIC 'CODE'
_TEXT	ENDS
;	COMDAT ?AddChildElem@CMarkupArchive@@UAE_NPBD0@Z
_TEXT	SEGMENT PARA USE32 PUBLIC 'CODE'
_TEXT	ENDS
;	COMDAT ?FindElem@CMarkupArchive@@UAE_NPBD@Z
_TEXT	SEGMENT PARA USE32 PUBLIC 'CODE'
_TEXT	ENDS
;	COMDAT ?FindChildElem@CMarkupArchive@@UAE_NPBD@Z
_TEXT	SEGMENT PARA USE32 PUBLIC 'CODE'
_TEXT	ENDS
;	COMDAT ??_GCMarkupArchive@@UAEPAXI@Z
_TEXT	SEGMENT PARA USE32 PUBLIC 'CODE'
_TEXT	ENDS
;	COMDAT ??1?$pair@$$CBV?$CStringT@DV?$StrTraitMFC_DLL@DV?$ChTraitsCRT@D@ATL@@@@@ATL@@PAVCDibBitmap@@@std@@QAE@XZ
_TEXT	SEGMENT PARA USE32 PUBLIC 'CODE'
_TEXT	ENDS
;	COMDAT ??_GPaneSplitter@ETSLayoutMgr@@UAEPAXI@Z
_TEXT	SEGMENT PARA USE32 PUBLIC 'CODE'
_TEXT	ENDS
;	COMDAT ??1PaneSplitter@ETSLayoutMgr@@UAE@XZ
_TEXT	SEGMENT PARA USE32 PUBLIC 'CODE'
_TEXT	ENDS
;	COMDAT ??1CPaneMulti@ETSLayoutMgr@@QAE@XZ
_TEXT	SEGMENT PARA USE32 PUBLIC 'CODE'
_TEXT	ENDS
;	COMDAT ??1CPanePosition@ETSLayoutMgr@@QAE@XZ
_TEXT	SEGMENT PARA USE32 PUBLIC 'CODE'
_TEXT	ENDS
;	COMDAT ??_GPanePosition@ETSLayoutMgr@@UAEPAXI@Z
_TEXT	SEGMENT PARA USE32 PUBLIC 'CODE'
_TEXT	ENDS
;	COMDAT ??1PanePosition@ETSLayoutMgr@@UAE@XZ
_TEXT	SEGMENT PARA USE32 PUBLIC 'CODE'
_TEXT	ENDS
;	COMDAT ??HATL@@YA?AV?$CStringT@DV?$StrTraitMFC_DLL@DV?$ChTraitsCRT@D@ATL@@@@@0@ABV10@0@Z
_TEXT	SEGMENT PARA USE32 PUBLIC 'CODE'
_TEXT	ENDS
;	COMDAT ??HATL@@YA?AV?$CStringT@DV?$StrTraitMFC_DLL@DV?$ChTraitsCRT@D@ATL@@@@@0@ABV10@PBD@Z
_TEXT	SEGMENT PARA USE32 PUBLIC 'CODE'
_TEXT	ENDS
;	COMDAT ??8ATL@@YA_NABV?$CStringT@DV?$StrTraitMFC_DLL@DV?$ChTraitsCRT@D@ATL@@@@@0@PBD@Z
_TEXT	SEGMENT PARA USE32 PUBLIC 'CODE'
_TEXT	ENDS
;	COMDAT ??B?$CComPtrBase@UITypeInfo2@@@ATL@@QBEPAUITypeInfo2@@XZ
_TEXT	SEGMENT PARA USE32 PUBLIC 'CODE'
_TEXT	ENDS
;	COMDAT ?equal@?$istreambuf_iterator@DU?$char_traits@D@std@@@std@@QBE_NABV12@@Z
_TEXT	SEGMENT PARA USE32 PUBLIC 'CODE'
_TEXT	ENDS
;	COMDAT ?equal@?$istreambuf_iterator@_WU?$char_traits@_W@std@@@std@@QBE_NABV12@@Z
_TEXT	SEGMENT PARA USE32 PUBLIC 'CODE'
_TEXT	ENDS
;	COMDAT ?insert@?$_Tree@V?$_Tmap_traits@V?$CStringT@DV?$StrTraitMFC_DLL@DV?$ChTraitsCRT@D@ATL@@@@@ATL@@PAVCDibBitmap@@U?$less@V?$CStringT@DV?$StrTraitMFC_DLL@DV?$ChTraitsCRT@D@ATL@@@@@ATL@@@std@@V?$allocator@U?$pair@$$CBV?$CStringT@DV?$StrTraitMFC_DLL@DV?$ChTraitsCRT@D@ATL@@@@@ATL@@PAVCDibBitmap@@@std@@@5@$0A@@std@@@std@@QAE?AU?$pair@Viterator@?$_Tree@V?$_Tmap_traits@V?$CStringT@DV?$StrTraitMFC_DLL@DV?$ChTraitsCRT@D@ATL@@@@@ATL@@PAVCDibBitmap@@U?$less@V?$CStringT@DV?$StrTraitMFC_DLL@DV?$ChTraitsCRT@D@ATL@@@@@ATL@@@std@@V?$allocator@U?$pair@$$CBV?$CStringT@DV?$StrTraitMFC_DLL@DV?$ChTraitsCRT@D@ATL@@@@@ATL@@PAVCDibBitmap@@@std@@@5@$0A@@std@@@std@@_N@2@ABU?$pair@$$CBV?$CStringT@DV?$StrTraitMFC_DLL@DV?$ChTraitsCRT@D@ATL@@@@@ATL@@PAVCDibBitmap@@@2@@Z
_TEXT	SEGMENT PARA USE32 PUBLIC 'CODE'
_TEXT	ENDS
;	COMDAT ??0?$pair@$$CBV?$CStringT@DV?$StrTraitMFC_DLL@DV?$ChTraitsCRT@D@ATL@@@@@ATL@@PAVCDibBitmap@@@std@@QAE@ABV?$CStringT@DV?$StrTraitMFC_DLL@DV?$ChTraitsCRT@D@ATL@@@@@ATL@@ABQAVCDibBitmap@@@Z
_TEXT	SEGMENT PARA USE32 PUBLIC 'CODE'
_TEXT	ENDS
;	COMDAT ?_Isnil@?$_Tree@V?$_Tmap_traits@V?$CStringT@DV?$StrTraitMFC_DLL@DV?$ChTraitsCRT@D@ATL@@@@@ATL@@PAVCDibBitmap@@U?$less@V?$CStringT@DV?$StrTraitMFC_DLL@DV?$ChTraitsCRT@D@ATL@@@@@ATL@@@std@@V?$allocator@U?$pair@$$CBV?$CStringT@DV?$StrTraitMFC_DLL@DV?$ChTraitsCRT@D@ATL@@@@@ATL@@PAVCDibBitmap@@@std@@@5@$0A@@std@@@std@@KAAADPAU_Node@?$_Tree_nod@V?$_Tmap_traits@V?$CStringT@DV?$StrTraitMFC_DLL@DV?$ChTraitsCRT@D@ATL@@@@@ATL@@PAVCDibBitmap@@U?$less@V?$CStringT@DV?$StrTraitMFC_DLL@DV?$ChTraitsCRT@D@ATL@@@@@ATL@@@std@@V?$allocator@U?$pair@$$CBV?$CStringT@DV?$StrTraitMFC_DLL@DV?$ChTraitsCRT@D@ATL@@@@@ATL@@PAVCDibBitmap@@@std@@@5@$0A@@std@@@2@@Z
_TEXT	SEGMENT PARA USE32 PUBLIC 'CODE'
_TEXT	ENDS
;	COMDAT ?_Key@?$_Tree@V?$_Tmap_traits@V?$CStringT@DV?$StrTraitMFC_DLL@DV?$ChTraitsCRT@D@ATL@@@@@ATL@@PAVCDibBitmap@@U?$less@V?$CStringT@DV?$StrTraitMFC_DLL@DV?$ChTraitsCRT@D@ATL@@@@@ATL@@@std@@V?$allocator@U?$pair@$$CBV?$CStringT@DV?$StrTraitMFC_DLL@DV?$ChTraitsCRT@D@ATL@@@@@ATL@@PAVCDibBitmap@@@std@@@5@$0A@@std@@@std@@KAABV?$CStringT@DV?$StrTraitMFC_DLL@DV?$ChTraitsCRT@D@ATL@@@@@ATL@@PAU_Node@?$_Tree_nod@V?$_Tmap_traits@V?$CStringT@DV?$StrTraitMFC_DLL@DV?$ChTraitsCRT@D@ATL@@@@@ATL@@PAVCDibBitmap@@U?$less@V?$CStringT@DV?$StrTraitMFC_DLL@DV?$ChTraitsCRT@D@ATL@@@@@ATL@@@std@@V?$allocator@U?$pair@$$CBV?$CStringT@DV?$StrTraitMFC_DLL@DV?$ChTraitsCRT@D@ATL@@@@@ATL@@PAVCDibBitmap@@@std@@@5@$0A@@std@@@2@@Z
_TEXT	SEGMENT PARA USE32 PUBLIC 'CODE'
_TEXT	ENDS
;	COMDAT ?_Left@?$_Tree@V?$_Tmap_traits@V?$CStringT@DV?$StrTraitMFC_DLL@DV?$ChTraitsCRT@D@ATL@@@@@ATL@@PAVCDibBitmap@@U?$less@V?$CStringT@DV?$StrTraitMFC_DLL@DV?$ChTraitsCRT@D@ATL@@@@@ATL@@@std@@V?$allocator@U?$pair@$$CBV?$CStringT@DV?$StrTraitMFC_DLL@DV?$ChTraitsCRT@D@ATL@@@@@ATL@@PAVCDibBitmap@@@std@@@5@$0A@@std@@@std@@KAAAPAU_Node@?$_Tree_nod@V?$_Tmap_traits@V?$CStringT@DV?$StrTraitMFC_DLL@DV?$ChTraitsCRT@D@ATL@@@@@ATL@@PAVCDibBitmap@@U?$less@V?$CStringT@DV?$StrTraitMFC_DLL@DV?$ChTraitsCRT@D@ATL@@@@@ATL@@@std@@V?$allocator@U?$pair@$$CBV?$CStringT@DV?$StrTraitMFC_DLL@DV?$ChTraitsCRT@D@ATL@@@@@ATL@@PAVCDibBitmap@@@std@@@5@$0A@@std@@@2@PAU342@@Z
_TEXT	SEGMENT PARA USE32 PUBLIC 'CODE'
_TEXT	ENDS
;	COMDAT ?_Right@?$_Tree@V?$_Tmap_traits@V?$CStringT@DV?$StrTraitMFC_DLL@DV?$ChTraitsCRT@D@ATL@@@@@ATL@@PAVCDibBitmap@@U?$less@V?$CStringT@DV?$StrTraitMFC_DLL@DV?$ChTraitsCRT@D@ATL@@@@@ATL@@@std@@V?$allocator@U?$pair@$$CBV?$CStringT@DV?$StrTraitMFC_DLL@DV?$ChTraitsCRT@D@ATL@@@@@ATL@@PAVCDibBitmap@@@std@@@5@$0A@@std@@@std@@KAAAPAU_Node@?$_Tree_nod@V?$_Tmap_traits@V?$CStringT@DV?$StrTraitMFC_DLL@DV?$ChTraitsCRT@D@ATL@@@@@ATL@@PAVCDibBitmap@@U?$less@V?$CStringT@DV?$StrTraitMFC_DLL@DV?$ChTraitsCRT@D@ATL@@@@@ATL@@@std@@V?$allocator@U?$pair@$$CBV?$CStringT@DV?$StrTraitMFC_DLL@DV?$ChTraitsCRT@D@ATL@@@@@ATL@@PAVCDibBitmap@@@std@@@5@$0A@@std@@@2@PAU342@@Z
_TEXT	SEGMENT PARA USE32 PUBLIC 'CODE'
_TEXT	ENDS
;	COMDAT ?begin@?$_Tree@V?$_Tmap_traits@V?$CStringT@DV?$StrTraitMFC_DLL@DV?$ChTraitsCRT@D@ATL@@@@@ATL@@PAVCDibBitmap@@U?$less@V?$CStringT@DV?$StrTraitMFC_DLL@DV?$ChTraitsCRT@D@ATL@@@@@ATL@@@std@@V?$allocator@U?$pair@$$CBV?$CStringT@DV?$StrTraitMFC_DLL@DV?$ChTraitsCRT@D@ATL@@@@@ATL@@PAVCDibBitmap@@@std@@@5@$0A@@std@@@std@@QAE?AViterator@12@XZ
_TEXT	SEGMENT PARA USE32 PUBLIC 'CODE'
_TEXT	ENDS
;	COMDAT ?_Insert@?$_Tree@V?$_Tmap_traits@V?$CStringT@DV?$StrTraitMFC_DLL@DV?$ChTraitsCRT@D@ATL@@@@@ATL@@PAVCDibBitmap@@U?$less@V?$CStringT@DV?$StrTraitMFC_DLL@DV?$ChTraitsCRT@D@ATL@@@@@ATL@@@std@@V?$allocator@U?$pair@$$CBV?$CStringT@DV?$StrTraitMFC_DLL@DV?$ChTraitsCRT@D@ATL@@@@@ATL@@PAVCDibBitmap@@@std@@@5@$0A@@std@@@std@@IAE?AViterator@12@_NPAU_Node@?$_Tree_nod@V?$_Tmap_traits@V?$CStringT@DV?$StrTraitMFC_DLL@DV?$ChTraitsCRT@D@ATL@@@@@ATL@@PAVCDibBitmap@@U?$less@V?$CStringT@DV?$StrTraitMFC_DLL@DV?$ChTraitsCRT@D@ATL@@@@@ATL@@@std@@V?$allocator@U?$pair@$$CBV?$CStringT@DV?$StrTraitMFC_DLL@DV?$ChTraitsCRT@D@ATL@@@@@ATL@@PAVCDibBitmap@@@std@@@5@$0A@@std@@@2@ABU?$pair@$$CBV?$CStringT@DV?$StrTraitMFC_DLL@DV?$ChTraitsCRT@D@ATL@@@@@ATL@@PAVCDibBitmap@@@2@@Z
_TEXT	SEGMENT PARA USE32 PUBLIC 'CODE'
_TEXT	ENDS
;	COMDAT ?_Root@?$_Tree@V?$_Tmap_traits@V?$CStringT@DV?$StrTraitMFC_DLL@DV?$ChTraitsCRT@D@ATL@@@@@ATL@@PAVCDibBitmap@@U?$less@V?$CStringT@DV?$StrTraitMFC_DLL@DV?$ChTraitsCRT@D@ATL@@@@@ATL@@@std@@V?$allocator@U?$pair@$$CBV?$CStringT@DV?$StrTraitMFC_DLL@DV?$ChTraitsCRT@D@ATL@@@@@ATL@@PAVCDibBitmap@@@std@@@5@$0A@@std@@@std@@IAEAAPAU_Node@?$_Tree_nod@V?$_Tmap_traits@V?$CStringT@DV?$StrTraitMFC_DLL@DV?$ChTraitsCRT@D@ATL@@@@@ATL@@PAVCDibBitmap@@U?$less@V?$CStringT@DV?$StrTraitMFC_DLL@DV?$ChTraitsCRT@D@ATL@@@@@ATL@@@std@@V?$allocator@U?$pair@$$CBV?$CStringT@DV?$StrTraitMFC_DLL@DV?$ChTraitsCRT@D@ATL@@@@@ATL@@PAVCDibBitmap@@@std@@@5@$0A@@std@@@2@XZ
_TEXT	SEGMENT PARA USE32 PUBLIC 'CODE'
_TEXT	ENDS
;	COMDAT ?_Kfn@?$_Tmap_traits@V?$CStringT@DV?$StrTraitMFC_DLL@DV?$ChTraitsCRT@D@ATL@@@@@ATL@@PAVCDibBitmap@@U?$less@V?$CStringT@DV?$StrTraitMFC_DLL@DV?$ChTraitsCRT@D@ATL@@@@@ATL@@@std@@V?$allocator@U?$pair@$$CBV?$CStringT@DV?$StrTraitMFC_DLL@DV?$ChTraitsCRT@D@ATL@@@@@ATL@@PAVCDibBitmap@@@std@@@5@$0A@@std@@SAABV?$CStringT@DV?$StrTraitMFC_DLL@DV?$ChTraitsCRT@D@ATL@@@@@ATL@@ABU?$pair@$$CBV?$CStringT@DV?$StrTraitMFC_DLL@DV?$ChTraitsCRT@D@ATL@@@@@ATL@@PAVCDibBitmap@@@2@@Z
_TEXT	SEGMENT PARA USE32 PUBLIC 'CODE'
_TEXT	ENDS
;	COMDAT ??R?$less@V?$CStringT@DV?$StrTraitMFC_DLL@DV?$ChTraitsCRT@D@ATL@@@@@ATL@@@std@@QBE_NABV?$CStringT@DV?$StrTraitMFC_DLL@DV?$ChTraitsCRT@D@ATL@@@@@ATL@@0@Z
_TEXT	SEGMENT PARA USE32 PUBLIC 'CODE'
_TEXT	ENDS
;	COMDAT ??0?$pair@Viterator@?$_Tree@V?$_Tmap_traits@V?$CStringT@DV?$StrTraitMFC_DLL@DV?$ChTraitsCRT@D@ATL@@@@@ATL@@PAVCDibBitmap@@U?$less@V?$CStringT@DV?$StrTraitMFC_DLL@DV?$ChTraitsCRT@D@ATL@@@@@ATL@@@std@@V?$allocator@U?$pair@$$CBV?$CStringT@DV?$StrTraitMFC_DLL@DV?$ChTraitsCRT@D@ATL@@@@@ATL@@PAVCDibBitmap@@@std@@@5@$0A@@std@@@std@@_N@std@@QAE@ABViterator@?$_Tree@V?$_Tmap_traits@V?$CStringT@DV?$StrTraitMFC_DLL@DV?$ChTraitsCRT@D@ATL@@@@@ATL@@PAVCDibBitmap@@U?$less@V?$CStringT@DV?$StrTraitMFC_DLL@DV?$ChTraitsCRT@D@ATL@@@@@ATL@@@std@@V?$allocator@U?$pair@$$CBV?$CStringT@DV?$StrTraitMFC_DLL@DV?$ChTraitsCRT@D@ATL@@@@@ATL@@PAVCDibBitmap@@@std@@@5@$0A@@std@@@1@AB_N@Z
_TEXT	SEGMENT PARA USE32 PUBLIC 'CODE'
_TEXT	ENDS
;	COMDAT ??0iterator@?$_Tree@V?$_Tmap_traits@V?$CStringT@DV?$StrTraitMFC_DLL@DV?$ChTraitsCRT@D@ATL@@@@@ATL@@PAVCDibBitmap@@U?$less@V?$CStringT@DV?$StrTraitMFC_DLL@DV?$ChTraitsCRT@D@ATL@@@@@ATL@@@std@@V?$allocator@U?$pair@$$CBV?$CStringT@DV?$StrTraitMFC_DLL@DV?$ChTraitsCRT@D@ATL@@@@@ATL@@PAVCDibBitmap@@@std@@@5@$0A@@std@@@std@@QAE@PAU_Node@?$_Tree_nod@V?$_Tmap_traits@V?$CStringT@DV?$StrTraitMFC_DLL@DV?$ChTraitsCRT@D@ATL@@@@@ATL@@PAVCDibBitmap@@U?$less@V?$CStringT@DV?$StrTraitMFC_DLL@DV?$ChTraitsCRT@D@ATL@@@@@ATL@@@std@@V?$allocator@U?$pair@$$CBV?$CStringT@DV?$StrTraitMFC_DLL@DV?$ChTraitsCRT@D@ATL@@@@@ATL@@PAVCDibBitmap@@@std@@@5@$0A@@std@@@2@@Z
_TEXT	SEGMENT PARA USE32 PUBLIC 'CODE'
_TEXT	ENDS
;	COMDAT ??Fiterator@?$_Tree@V?$_Tmap_traits@V?$CStringT@DV?$StrTraitMFC_DLL@DV?$ChTraitsCRT@D@ATL@@@@@ATL@@PAVCDibBitmap@@U?$less@V?$CStringT@DV?$StrTraitMFC_DLL@DV?$ChTraitsCRT@D@ATL@@@@@ATL@@@std@@V?$allocator@U?$pair@$$CBV?$CStringT@DV?$StrTraitMFC_DLL@DV?$ChTraitsCRT@D@ATL@@@@@ATL@@PAVCDibBitmap@@@std@@@5@$0A@@std@@@std@@QAEAAV012@XZ
_TEXT	SEGMENT PARA USE32 PUBLIC 'CODE'
_TEXT	ENDS
;	COMDAT ??8const_iterator@?$_Tree@V?$_Tmap_traits@V?$CStringT@DV?$StrTraitMFC_DLL@DV?$ChTraitsCRT@D@ATL@@@@@ATL@@PAVCDibBitmap@@U?$less@V?$CStringT@DV?$StrTraitMFC_DLL@DV?$ChTraitsCRT@D@ATL@@@@@ATL@@@std@@V?$allocator@U?$pair@$$CBV?$CStringT@DV?$StrTraitMFC_DLL@DV?$ChTraitsCRT@D@ATL@@@@@ATL@@PAVCDibBitmap@@@std@@@5@$0A@@std@@@std@@QBE_NABV012@@Z
_TEXT	SEGMENT PARA USE32 PUBLIC 'CODE'
_TEXT	ENDS
;	COMDAT ?_Mynode@const_iterator@?$_Tree@V?$_Tmap_traits@V?$CStringT@DV?$StrTraitMFC_DLL@DV?$ChTraitsCRT@D@ATL@@@@@ATL@@PAVCDibBitmap@@U?$less@V?$CStringT@DV?$StrTraitMFC_DLL@DV?$ChTraitsCRT@D@ATL@@@@@ATL@@@std@@V?$allocator@U?$pair@$$CBV?$CStringT@DV?$StrTraitMFC_DLL@DV?$ChTraitsCRT@D@ATL@@@@@ATL@@PAVCDibBitmap@@@std@@@5@$0A@@std@@@std@@QBEPAU_Node@?$_Tree_nod@V?$_Tmap_traits@V?$CStringT@DV?$StrTraitMFC_DLL@DV?$ChTraitsCRT@D@ATL@@@@@ATL@@PAVCDibBitmap@@U?$less@V?$CStringT@DV?$StrTraitMFC_DLL@DV?$ChTraitsCRT@D@ATL@@@@@ATL@@@std@@V?$allocator@U?$pair@$$CBV?$CStringT@DV?$StrTraitMFC_DLL@DV?$ChTraitsCRT@D@ATL@@@@@ATL@@PAVCDibBitmap@@@std@@@5@$0A@@std@@@3@XZ
_TEXT	SEGMENT PARA USE32 PUBLIC 'CODE'
_TEXT	ENDS
;	COMDAT ??0length_error@std@@QAE@ABV01@@Z
_TEXT	SEGMENT PARA USE32 PUBLIC 'CODE'
_TEXT	ENDS
;	COMDAT ??MATL@@YA_NABV?$CStringT@DV?$StrTraitMFC_DLL@DV?$ChTraitsCRT@D@ATL@@@@@0@0@Z
_TEXT	SEGMENT PARA USE32 PUBLIC 'CODE'
_TEXT	ENDS
;	COMDAT ?StringCompare@?$ChTraitsCRT@D@ATL@@SAHPBD0@Z
_TEXT	SEGMENT PARA USE32 PUBLIC 'CODE'
_TEXT	ENDS
;	COMDAT ?_Color@?$_Tree@V?$_Tmap_traits@V?$CStringT@DV?$StrTraitMFC_DLL@DV?$ChTraitsCRT@D@ATL@@@@@ATL@@PAVCDibBitmap@@U?$less@V?$CStringT@DV?$StrTraitMFC_DLL@DV?$ChTraitsCRT@D@ATL@@@@@ATL@@@std@@V?$allocator@U?$pair@$$CBV?$CStringT@DV?$StrTraitMFC_DLL@DV?$ChTraitsCRT@D@ATL@@@@@ATL@@PAVCDibBitmap@@@std@@@5@$0A@@std@@@std@@KAAADPAU_Node@?$_Tree_nod@V?$_Tmap_traits@V?$CStringT@DV?$StrTraitMFC_DLL@DV?$ChTraitsCRT@D@ATL@@@@@ATL@@PAVCDibBitmap@@U?$less@V?$CStringT@DV?$StrTraitMFC_DLL@DV?$ChTraitsCRT@D@ATL@@@@@ATL@@@std@@V?$allocator@U?$pair@$$CBV?$CStringT@DV?$StrTraitMFC_DLL@DV?$ChTraitsCRT@D@ATL@@@@@ATL@@PAVCDibBitmap@@@std@@@5@$0A@@std@@@2@@Z
_TEXT	SEGMENT PARA USE32 PUBLIC 'CODE'
_TEXT	ENDS
;	COMDAT ?_Parent@?$_Tree@V?$_Tmap_traits@V?$CStringT@DV?$StrTraitMFC_DLL@DV?$ChTraitsCRT@D@ATL@@@@@ATL@@PAVCDibBitmap@@U?$less@V?$CStringT@DV?$StrTraitMFC_DLL@DV?$ChTraitsCRT@D@ATL@@@@@ATL@@@std@@V?$allocator@U?$pair@$$CBV?$CStringT@DV?$StrTraitMFC_DLL@DV?$ChTraitsCRT@D@ATL@@@@@ATL@@PAVCDibBitmap@@@std@@@5@$0A@@std@@@std@@KAAAPAU_Node@?$_Tree_nod@V?$_Tmap_traits@V?$CStringT@DV?$StrTraitMFC_DLL@DV?$ChTraitsCRT@D@ATL@@@@@ATL@@PAVCDibBitmap@@U?$less@V?$CStringT@DV?$StrTraitMFC_DLL@DV?$ChTraitsCRT@D@ATL@@@@@ATL@@@std@@V?$allocator@U?$pair@$$CBV?$CStringT@DV?$StrTraitMFC_DLL@DV?$ChTraitsCRT@D@ATL@@@@@ATL@@PAVCDibBitmap@@@std@@@5@$0A@@std@@@2@PAU342@@Z
_TEXT	SEGMENT PARA USE32 PUBLIC 'CODE'
_TEXT	ENDS
;	COMDAT ?_Myval@?$_Tree@V?$_Tmap_traits@V?$CStringT@DV?$StrTraitMFC_DLL@DV?$ChTraitsCRT@D@ATL@@@@@ATL@@PAVCDibBitmap@@U?$less@V?$CStringT@DV?$StrTraitMFC_DLL@DV?$ChTraitsCRT@D@ATL@@@@@ATL@@@std@@V?$allocator@U?$pair@$$CBV?$CStringT@DV?$StrTraitMFC_DLL@DV?$ChTraitsCRT@D@ATL@@@@@ATL@@PAVCDibBitmap@@@std@@@5@$0A@@std@@@std@@KAAAU?$pair@$$CBV?$CStringT@DV?$StrTraitMFC_DLL@DV?$ChTraitsCRT@D@ATL@@@@@ATL@@PAVCDibBitmap@@@2@PAU_Node@?$_Tree_nod@V?$_Tmap_traits@V?$CStringT@DV?$StrTraitMFC_DLL@DV?$ChTraitsCRT@D@ATL@@@@@ATL@@PAVCDibBitmap@@U?$less@V?$CStringT@DV?$StrTraitMFC_DLL@DV?$ChTraitsCRT@D@ATL@@@@@ATL@@@std@@V?$allocator@U?$pair@$$CBV?$CStringT@DV?$StrTraitMFC_DLL@DV?$ChTraitsCRT@D@ATL@@@@@ATL@@PAVCDibBitmap@@@std@@@5@$0A@@std@@@2@@Z
_TEXT	SEGMENT PARA USE32 PUBLIC 'CODE'
_TEXT	ENDS
;	COMDAT ?max_size@?$_Tree@V?$_Tmap_traits@V?$CStringT@DV?$StrTraitMFC_DLL@DV?$ChTraitsCRT@D@ATL@@@@@ATL@@PAVCDibBitmap@@U?$less@V?$CStringT@DV?$StrTraitMFC_DLL@DV?$ChTraitsCRT@D@ATL@@@@@ATL@@@std@@V?$allocator@U?$pair@$$CBV?$CStringT@DV?$StrTraitMFC_DLL@DV?$ChTraitsCRT@D@ATL@@@@@ATL@@PAVCDibBitmap@@@std@@@5@$0A@@std@@@std@@QBEIXZ
_TEXT	SEGMENT PARA USE32 PUBLIC 'CODE'
_TEXT	ENDS
;	COMDAT ?_Lmost@?$_Tree@V?$_Tmap_traits@V?$CStringT@DV?$StrTraitMFC_DLL@DV?$ChTraitsCRT@D@ATL@@@@@ATL@@PAVCDibBitmap@@U?$less@V?$CStringT@DV?$StrTraitMFC_DLL@DV?$ChTraitsCRT@D@ATL@@@@@ATL@@@std@@V?$allocator@U?$pair@$$CBV?$CStringT@DV?$StrTraitMFC_DLL@DV?$ChTraitsCRT@D@ATL@@@@@ATL@@PAVCDibBitmap@@@std@@@5@$0A@@std@@@std@@IAEAAPAU_Node@?$_Tree_nod@V?$_Tmap_traits@V?$CStringT@DV?$StrTraitMFC_DLL@DV?$ChTraitsCRT@D@ATL@@@@@ATL@@PAVCDibBitmap@@U?$less@V?$CStringT@DV?$StrTraitMFC_DLL@DV?$ChTraitsCRT@D@ATL@@@@@ATL@@@std@@V?$allocator@U?$pair@$$CBV?$CStringT@DV?$StrTraitMFC_DLL@DV?$ChTraitsCRT@D@ATL@@@@@ATL@@PAVCDibBitmap@@@std@@@5@$0A@@std@@@2@XZ
_TEXT	SEGMENT PARA USE32 PUBLIC 'CODE'
_TEXT	ENDS
;	COMDAT ?_Lrotate@?$_Tree@V?$_Tmap_traits@V?$CStringT@DV?$StrTraitMFC_DLL@DV?$ChTraitsCRT@D@ATL@@@@@ATL@@PAVCDibBitmap@@U?$less@V?$CStringT@DV?$StrTraitMFC_DLL@DV?$ChTraitsCRT@D@ATL@@@@@ATL@@@std@@V?$allocator@U?$pair@$$CBV?$CStringT@DV?$StrTraitMFC_DLL@DV?$ChTraitsCRT@D@ATL@@@@@ATL@@PAVCDibBitmap@@@std@@@5@$0A@@std@@@std@@IAEXPAU_Node@?$_Tree_nod@V?$_Tmap_traits@V?$CStringT@DV?$StrTraitMFC_DLL@DV?$ChTraitsCRT@D@ATL@@@@@ATL@@PAVCDibBitmap@@U?$less@V?$CStringT@DV?$StrTraitMFC_DLL@DV?$ChTraitsCRT@D@ATL@@@@@ATL@@@std@@V?$allocator@U?$pair@$$CBV?$CStringT@DV?$StrTraitMFC_DLL@DV?$ChTraitsCRT@D@ATL@@@@@ATL@@PAVCDibBitmap@@@std@@@5@$0A@@std@@@2@@Z
_TEXT	SEGMENT PARA USE32 PUBLIC 'CODE'
_TEXT	ENDS
;	COMDAT ?_Rmost@?$_Tree@V?$_Tmap_traits@V?$CStringT@DV?$StrTraitMFC_DLL@DV?$ChTraitsCRT@D@ATL@@@@@ATL@@PAVCDibBitmap@@U?$less@V?$CStringT@DV?$StrTraitMFC_DLL@DV?$ChTraitsCRT@D@ATL@@@@@ATL@@@std@@V?$allocator@U?$pair@$$CBV?$CStringT@DV?$StrTraitMFC_DLL@DV?$ChTraitsCRT@D@ATL@@@@@ATL@@PAVCDibBitmap@@@std@@@5@$0A@@std@@@std@@IAEAAPAU_Node@?$_Tree_nod@V?$_Tmap_traits@V?$CStringT@DV?$StrTraitMFC_DLL@DV?$ChTraitsCRT@D@ATL@@@@@ATL@@PAVCDibBitmap@@U?$less@V?$CStringT@DV?$StrTraitMFC_DLL@DV?$ChTraitsCRT@D@ATL@@@@@ATL@@@std@@V?$allocator@U?$pair@$$CBV?$CStringT@DV?$StrTraitMFC_DLL@DV?$ChTraitsCRT@D@ATL@@@@@ATL@@PAVCDibBitmap@@@std@@@5@$0A@@std@@@2@XZ
_TEXT	SEGMENT PARA USE32 PUBLIC 'CODE'
_TEXT	ENDS
;	COMDAT ?_Rrotate@?$_Tree@V?$_Tmap_traits@V?$CStringT@DV?$StrTraitMFC_DLL@DV?$ChTraitsCRT@D@ATL@@@@@ATL@@PAVCDibBitmap@@U?$less@V?$CStringT@DV?$StrTraitMFC_DLL@DV?$ChTraitsCRT@D@ATL@@@@@ATL@@@std@@V?$allocator@U?$pair@$$CBV?$CStringT@DV?$StrTraitMFC_DLL@DV?$ChTraitsCRT@D@ATL@@@@@ATL@@PAVCDibBitmap@@@std@@@5@$0A@@std@@@std@@IAEXPAU_Node@?$_Tree_nod@V?$_Tmap_traits@V?$CStringT@DV?$StrTraitMFC_DLL@DV?$ChTraitsCRT@D@ATL@@@@@ATL@@PAVCDibBitmap@@U?$less@V?$CStringT@DV?$StrTraitMFC_DLL@DV?$ChTraitsCRT@D@ATL@@@@@ATL@@@std@@V?$allocator@U?$pair@$$CBV?$CStringT@DV?$StrTraitMFC_DLL@DV?$ChTraitsCRT@D@ATL@@@@@ATL@@PAVCDibBitmap@@@std@@@5@$0A@@std@@@2@@Z
_TEXT	SEGMENT PARA USE32 PUBLIC 'CODE'
_TEXT	ENDS
;	COMDAT ?_Buynode@?$_Tree@V?$_Tmap_traits@V?$CStringT@DV?$StrTraitMFC_DLL@DV?$ChTraitsCRT@D@ATL@@@@@ATL@@PAVCDibBitmap@@U?$less@V?$CStringT@DV?$StrTraitMFC_DLL@DV?$ChTraitsCRT@D@ATL@@@@@ATL@@@std@@V?$allocator@U?$pair@$$CBV?$CStringT@DV?$StrTraitMFC_DLL@DV?$ChTraitsCRT@D@ATL@@@@@ATL@@PAVCDibBitmap@@@std@@@5@$0A@@std@@@std@@IAEPAU_Node@?$_Tree_nod@V?$_Tmap_traits@V?$CStringT@DV?$StrTraitMFC_DLL@DV?$ChTraitsCRT@D@ATL@@@@@ATL@@PAVCDibBitmap@@U?$less@V?$CStringT@DV?$StrTraitMFC_DLL@DV?$ChTraitsCRT@D@ATL@@@@@ATL@@@std@@V?$allocator@U?$pair@$$CBV?$CStringT@DV?$StrTraitMFC_DLL@DV?$ChTraitsCRT@D@ATL@@@@@ATL@@PAVCDibBitmap@@@std@@@5@$0A@@std@@@2@PAU342@00ABU?$pair@$$CBV?$CStringT@DV?$StrTraitMFC_DLL@DV?$ChTraitsCRT@D@ATL@@@@@ATL@@PAVCDibBitmap@@@2@D@Z
_TEXT	SEGMENT PARA USE32 PUBLIC 'CODE'
_TEXT	ENDS
;	COMDAT ??0const_iterator@?$_Tree@V?$_Tmap_traits@V?$CStringT@DV?$StrTraitMFC_DLL@DV?$ChTraitsCRT@D@ATL@@@@@ATL@@PAVCDibBitmap@@U?$less@V?$CStringT@DV?$StrTraitMFC_DLL@DV?$ChTraitsCRT@D@ATL@@@@@ATL@@@std@@V?$allocator@U?$pair@$$CBV?$CStringT@DV?$StrTraitMFC_DLL@DV?$ChTraitsCRT@D@ATL@@@@@ATL@@PAVCDibBitmap@@@std@@@5@$0A@@std@@@std@@QAE@PAU_Node@?$_Tree_nod@V?$_Tmap_traits@V?$CStringT@DV?$StrTraitMFC_DLL@DV?$ChTraitsCRT@D@ATL@@@@@ATL@@PAVCDibBitmap@@U?$less@V?$CStringT@DV?$StrTraitMFC_DLL@DV?$ChTraitsCRT@D@ATL@@@@@ATL@@@std@@V?$allocator@U?$pair@$$CBV?$CStringT@DV?$StrTraitMFC_DLL@DV?$ChTraitsCRT@D@ATL@@@@@ATL@@PAVCDibBitmap@@@std@@@5@$0A@@std@@@2@@Z
_TEXT	SEGMENT PARA USE32 PUBLIC 'CODE'
_TEXT	ENDS
;	COMDAT ??Fconst_iterator@?$_Tree@V?$_Tmap_traits@V?$CStringT@DV?$StrTraitMFC_DLL@DV?$ChTraitsCRT@D@ATL@@@@@ATL@@PAVCDibBitmap@@U?$less@V?$CStringT@DV?$StrTraitMFC_DLL@DV?$ChTraitsCRT@D@ATL@@@@@ATL@@@std@@V?$allocator@U?$pair@$$CBV?$CStringT@DV?$StrTraitMFC_DLL@DV?$ChTraitsCRT@D@ATL@@@@@ATL@@PAVCDibBitmap@@@std@@@5@$0A@@std@@@std@@QAEAAV012@XZ
_TEXT	SEGMENT PARA USE32 PUBLIC 'CODE'
_TEXT	ENDS
;	COMDAT ?max_size@?$allocator@U?$pair@$$CBV?$CStringT@DV?$StrTraitMFC_DLL@DV?$ChTraitsCRT@D@ATL@@@@@ATL@@PAVCDibBitmap@@@std@@@std@@QBEIXZ
_TEXT	SEGMENT PARA USE32 PUBLIC 'CODE'
_TEXT	ENDS
;	COMDAT ?deallocate@?$allocator@U_Node@?$_Tree_nod@V?$_Tmap_traits@V?$CStringT@DV?$StrTraitMFC_DLL@DV?$ChTraitsCRT@D@ATL@@@@@ATL@@PAVCDibBitmap@@U?$less@V?$CStringT@DV?$StrTraitMFC_DLL@DV?$ChTraitsCRT@D@ATL@@@@@ATL@@@std@@V?$allocator@U?$pair@$$CBV?$CStringT@DV?$StrTraitMFC_DLL@DV?$ChTraitsCRT@D@ATL@@@@@ATL@@PAVCDibBitmap@@@std@@@5@$0A@@std@@@std@@@std@@QAEXPAU_Node@?$_Tree_nod@V?$_Tmap_traits@V?$CStringT@DV?$StrTraitMFC_DLL@DV?$ChTraitsCRT@D@ATL@@@@@ATL@@PAVCDibBitmap@@U?$less@V?$CStringT@DV?$StrTraitMFC_DLL@DV?$ChTraitsCRT@D@ATL@@@@@ATL@@@std@@V?$allocator@U?$pair@$$CBV?$CStringT@DV?$StrTraitMFC_DLL@DV?$ChTraitsCRT@D@ATL@@@@@ATL@@PAVCDibBitmap@@@std@@@5@$0A@@std@@@2@I@Z
_TEXT	SEGMENT PARA USE32 PUBLIC 'CODE'
_TEXT	ENDS
;	COMDAT ?allocate@?$allocator@U_Node@?$_Tree_nod@V?$_Tmap_traits@V?$CStringT@DV?$StrTraitMFC_DLL@DV?$ChTraitsCRT@D@ATL@@@@@ATL@@PAVCDibBitmap@@U?$less@V?$CStringT@DV?$StrTraitMFC_DLL@DV?$ChTraitsCRT@D@ATL@@@@@ATL@@@std@@V?$allocator@U?$pair@$$CBV?$CStringT@DV?$StrTraitMFC_DLL@DV?$ChTraitsCRT@D@ATL@@@@@ATL@@PAVCDibBitmap@@@std@@@5@$0A@@std@@@std@@@std@@QAEPAU_Node@?$_Tree_nod@V?$_Tmap_traits@V?$CStringT@DV?$StrTraitMFC_DLL@DV?$ChTraitsCRT@D@ATL@@@@@ATL@@PAVCDibBitmap@@U?$less@V?$CStringT@DV?$StrTraitMFC_DLL@DV?$ChTraitsCRT@D@ATL@@@@@ATL@@@std@@V?$allocator@U?$pair@$$CBV?$CStringT@DV?$StrTraitMFC_DLL@DV?$ChTraitsCRT@D@ATL@@@@@ATL@@PAVCDibBitmap@@@std@@@5@$0A@@std@@@2@I@Z
_TEXT	SEGMENT PARA USE32 PUBLIC 'CODE'
_TEXT	ENDS
;	COMDAT ?_Dec@const_iterator@?$_Tree@V?$_Tmap_traits@V?$CStringT@DV?$StrTraitMFC_DLL@DV?$ChTraitsCRT@D@ATL@@@@@ATL@@PAVCDibBitmap@@U?$less@V?$CStringT@DV?$StrTraitMFC_DLL@DV?$ChTraitsCRT@D@ATL@@@@@ATL@@@std@@V?$allocator@U?$pair@$$CBV?$CStringT@DV?$StrTraitMFC_DLL@DV?$ChTraitsCRT@D@ATL@@@@@ATL@@PAVCDibBitmap@@@std@@@5@$0A@@std@@@std@@QAEXXZ
_TEXT	SEGMENT PARA USE32 PUBLIC 'CODE'
_TEXT	ENDS
;	COMDAT ??0_Node@?$_Tree_nod@V?$_Tmap_traits@V?$CStringT@DV?$StrTraitMFC_DLL@DV?$ChTraitsCRT@D@ATL@@@@@ATL@@PAVCDibBitmap@@U?$less@V?$CStringT@DV?$StrTraitMFC_DLL@DV?$ChTraitsCRT@D@ATL@@@@@ATL@@@std@@V?$allocator@U?$pair@$$CBV?$CStringT@DV?$StrTraitMFC_DLL@DV?$ChTraitsCRT@D@ATL@@@@@ATL@@PAVCDibBitmap@@@std@@@5@$0A@@std@@@std@@QAE@PAU012@00ABU?$pair@$$CBV?$CStringT@DV?$StrTraitMFC_DLL@DV?$ChTraitsCRT@D@ATL@@@@@ATL@@PAVCDibBitmap@@@2@D@Z
_TEXT	SEGMENT PARA USE32 PUBLIC 'CODE'
_TEXT	ENDS
;	COMDAT ??0?$pair@$$CBV?$CStringT@DV?$StrTraitMFC_DLL@DV?$ChTraitsCRT@D@ATL@@@@@ATL@@PAVCDibBitmap@@@std@@QAE@ABU01@@Z
_TEXT	SEGMENT PARA USE32 PUBLIC 'CODE'
_TEXT	ENDS
;	COMDAT ?_Max@?$_Tree@V?$_Tmap_traits@V?$CStringT@DV?$StrTraitMFC_DLL@DV?$ChTraitsCRT@D@ATL@@@@@ATL@@PAVCDibBitmap@@U?$less@V?$CStringT@DV?$StrTraitMFC_DLL@DV?$ChTraitsCRT@D@ATL@@@@@ATL@@@std@@V?$allocator@U?$pair@$$CBV?$CStringT@DV?$StrTraitMFC_DLL@DV?$ChTraitsCRT@D@ATL@@@@@ATL@@PAVCDibBitmap@@@std@@@5@$0A@@std@@@std@@KAPAU_Node@?$_Tree_nod@V?$_Tmap_traits@V?$CStringT@DV?$StrTraitMFC_DLL@DV?$ChTraitsCRT@D@ATL@@@@@ATL@@PAVCDibBitmap@@U?$less@V?$CStringT@DV?$StrTraitMFC_DLL@DV?$ChTraitsCRT@D@ATL@@@@@ATL@@@std@@V?$allocator@U?$pair@$$CBV?$CStringT@DV?$StrTraitMFC_DLL@DV?$ChTraitsCRT@D@ATL@@@@@ATL@@PAVCDibBitmap@@@std@@@5@$0A@@std@@@2@PAU342@@Z
_TEXT	SEGMENT PARA USE32 PUBLIC 'CODE'
_TEXT	ENDS
;	COMDAT ?Unlock@?$CComCritSecLock@VCComCriticalSection@ATL@@@ATL@@QAEXXZ
_TEXT	SEGMENT PARA USE32 PUBLIC 'CODE'
_TEXT	ENDS
;	COMDAT ??0?$CArray@MM@@QAE@XZ
_TEXT	SEGMENT PARA USE32 PUBLIC 'CODE'
_TEXT	ENDS
;	COMDAT ??1?$CArray@MM@@UAE@XZ
_TEXT	SEGMENT PARA USE32 PUBLIC 'CODE'
_TEXT	ENDS
;	COMDAT ?Serialize@?$CArray@MM@@UAEXAAVCArchive@@@Z
_TEXT	SEGMENT PARA USE32 PUBLIC 'CODE'
_TEXT	ENDS
;	COMDAT ?Dump@?$CArray@MM@@UBEXAAVCDumpContext@@@Z
_TEXT	SEGMENT PARA USE32 PUBLIC 'CODE'
_TEXT	ENDS
;	COMDAT ?AssertValid@?$CArray@MM@@UBEXXZ
_TEXT	SEGMENT PARA USE32 PUBLIC 'CODE'
_TEXT	ENDS
;	COMDAT ?GetSize@?$CArray@VCPaneBase@ETSLayoutMgr@@V12@@@QBEHXZ
_TEXT	SEGMENT PARA USE32 PUBLIC 'CODE'
_TEXT	ENDS
;	COMDAT ?RemoveAll@?$CArray@VCPaneBase@ETSLayoutMgr@@V12@@@QAEXXZ
_TEXT	SEGMENT PARA USE32 PUBLIC 'CODE'
_TEXT	ENDS
;	COMDAT ??A?$CArray@VCPaneBase@ETSLayoutMgr@@V12@@@QAEAAVCPaneBase@ETSLayoutMgr@@H@Z
_TEXT	SEGMENT PARA USE32 PUBLIC 'CODE'
_TEXT	ENDS
;	COMDAT ??1?$CArray@VCPaneBase@ETSLayoutMgr@@V12@@@UAE@XZ
_TEXT	SEGMENT PARA USE32 PUBLIC 'CODE'
_TEXT	ENDS
;	COMDAT ?Serialize@?$CArray@VCPaneBase@ETSLayoutMgr@@V12@@@UAEXAAVCArchive@@@Z
_TEXT	SEGMENT PARA USE32 PUBLIC 'CODE'
_TEXT	ENDS
;	COMDAT ?Dump@?$CArray@VCPaneBase@ETSLayoutMgr@@V12@@@UBEXAAVCDumpContext@@@Z
_TEXT	SEGMENT PARA USE32 PUBLIC 'CODE'
_TEXT	ENDS
;	COMDAT ?AssertValid@?$CArray@VCPaneBase@ETSLayoutMgr@@V12@@@UBEXXZ
_TEXT	SEGMENT PARA USE32 PUBLIC 'CODE'
_TEXT	ENDS
;	COMDAT ?Lookup@?$CMap@V?$CStringT@DV?$StrTraitMFC_DLL@DV?$ChTraitsCRT@D@ATL@@@@@ATL@@PBDVCPaneBase@ETSLayoutMgr@@V34@@@QBEHPBDAAVCPaneBase@ETSLayoutMgr@@@Z
_TEXT	SEGMENT PARA USE32 PUBLIC 'CODE'
_TEXT	ENDS
;	COMDAT ?SetAt@?$CMap@V?$CStringT@DV?$StrTraitMFC_DLL@DV?$ChTraitsCRT@D@ATL@@@@@ATL@@PBDVCPaneBase@ETSLayoutMgr@@V34@@@QAEXPBDVCPaneBase@ETSLayoutMgr@@@Z
_TEXT	SEGMENT PARA USE32 PUBLIC 'CODE'
_TEXT	ENDS
;	COMDAT ?GetStartPosition@?$CMap@V?$CStringT@DV?$StrTraitMFC_DLL@DV?$ChTraitsCRT@D@ATL@@@@@ATL@@PBDVCPaneBase@ETSLayoutMgr@@V34@@@QBEPAU__POSITION@@XZ
_TEXT	SEGMENT PARA USE32 PUBLIC 'CODE'
_TEXT	ENDS
;	COMDAT ?GetNextAssoc@?$CMap@V?$CStringT@DV?$StrTraitMFC_DLL@DV?$ChTraitsCRT@D@ATL@@@@@ATL@@PBDVCPaneBase@ETSLayoutMgr@@V34@@@QBEXAAPAU__POSITION@@AAV?$CStringT@DV?$StrTraitMFC_DLL@DV?$ChTraitsCRT@D@ATL@@@@@ATL@@AAVCPaneBase@ETSLayoutMgr@@@Z
_TEXT	SEGMENT PARA USE32 PUBLIC 'CODE'
_TEXT	ENDS
;	COMDAT ??1?$CMap@V?$CStringT@DV?$StrTraitMFC_DLL@DV?$ChTraitsCRT@D@ATL@@@@@ATL@@PBDVCPaneBase@ETSLayoutMgr@@V34@@@UAE@XZ
_TEXT	SEGMENT PARA USE32 PUBLIC 'CODE'
_TEXT	ENDS
;	COMDAT ?Serialize@?$CMap@V?$CStringT@DV?$StrTraitMFC_DLL@DV?$ChTraitsCRT@D@ATL@@@@@ATL@@PBDVCPaneBase@ETSLayoutMgr@@V34@@@UAEXAAVCArchive@@@Z
_TEXT	SEGMENT PARA USE32 PUBLIC 'CODE'
_TEXT	ENDS
;	COMDAT ?Dump@?$CMap@V?$CStringT@DV?$StrTraitMFC_DLL@DV?$ChTraitsCRT@D@ATL@@@@@ATL@@PBDVCPaneBase@ETSLayoutMgr@@V34@@@UBEXAAVCDumpContext@@@Z
_TEXT	SEGMENT PARA USE32 PUBLIC 'CODE'
_TEXT	ENDS
;	COMDAT ?AssertValid@?$CMap@V?$CStringT@DV?$StrTraitMFC_DLL@DV?$ChTraitsCRT@D@ATL@@@@@ATL@@PBDVCPaneBase@ETSLayoutMgr@@V34@@@UBEXXZ
_TEXT	SEGMENT PARA USE32 PUBLIC 'CODE'
_TEXT	ENDS
;	COMDAT ??0?$CArray@UElemPos@CMarkup@@AAU12@@@QAE@XZ
_TEXT	SEGMENT PARA USE32 PUBLIC 'CODE'
_TEXT	ENDS
;	COMDAT ??A?$CArray@UElemPos@CMarkup@@AAU12@@@QAEAAUElemPos@CMarkup@@H@Z
_TEXT	SEGMENT PARA USE32 PUBLIC 'CODE'
_TEXT	ENDS
;	COMDAT ??1?$CArray@UElemPos@CMarkup@@AAU12@@@UAE@XZ
_TEXT	SEGMENT PARA USE32 PUBLIC 'CODE'
_TEXT	ENDS
;	COMDAT ?Serialize@?$CArray@UElemPos@CMarkup@@AAU12@@@UAEXAAVCArchive@@@Z
_TEXT	SEGMENT PARA USE32 PUBLIC 'CODE'
_TEXT	ENDS
;	COMDAT ?Dump@?$CArray@UElemPos@CMarkup@@AAU12@@@UBEXAAVCDumpContext@@@Z
_TEXT	SEGMENT PARA USE32 PUBLIC 'CODE'
_TEXT	ENDS
;	COMDAT ?AssertValid@?$CArray@UElemPos@CMarkup@@AAU12@@@UBEXXZ
_TEXT	SEGMENT PARA USE32 PUBLIC 'CODE'
_TEXT	ENDS
;	COMDAT ??$_Maklocstr@D@std@@YAPADPBDPADABU_Cvtvec@@@Z
_TEXT	SEGMENT PARA USE32 PUBLIC 'CODE'
_TEXT	ENDS
;	COMDAT ??$_Allocate@U_Node@?$_Tree_nod@V?$_Tmap_traits@V?$CStringT@DV?$StrTraitMFC_DLL@DV?$ChTraitsCRT@D@ATL@@@@@ATL@@PAVCDibBitmap@@U?$less@V?$CStringT@DV?$StrTraitMFC_DLL@DV?$ChTraitsCRT@D@ATL@@@@@ATL@@@std@@V?$allocator@U?$pair@$$CBV?$CStringT@DV?$StrTraitMFC_DLL@DV?$ChTraitsCRT@D@ATL@@@@@ATL@@PAVCDibBitmap@@@std@@@5@$0A@@std@@@std@@@std@@YAPAU_Node@?$_Tree_nod@V?$_Tmap_traits@V?$CStringT@DV?$StrTraitMFC_DLL@DV?$ChTraitsCRT@D@ATL@@@@@ATL@@PAVCDibBitmap@@U?$less@V?$CStringT@DV?$StrTraitMFC_DLL@DV?$ChTraitsCRT@D@ATL@@@@@ATL@@@std@@V?$allocator@U?$pair@$$CBV?$CStringT@DV?$StrTraitMFC_DLL@DV?$ChTraitsCRT@D@ATL@@@@@ATL@@PAVCDibBitmap@@@std@@@5@$0A@@std@@@0@IPAU120@@Z
_TEXT	SEGMENT PARA USE32 PUBLIC 'CODE'
_TEXT	ENDS
;	COMDAT ??_G?$CArray@MM@@UAEPAXI@Z
_TEXT	SEGMENT PARA USE32 PUBLIC 'CODE'
_TEXT	ENDS
;	COMDAT ??_G?$CArray@VCPaneBase@ETSLayoutMgr@@V12@@@UAEPAXI@Z
_TEXT	SEGMENT PARA USE32 PUBLIC 'CODE'
_TEXT	ENDS
;	COMDAT ??_GCPaneBase@ETSLayoutMgr@@QAEPAXI@Z
_TEXT	SEGMENT PARA USE32 PUBLIC 'CODE'
_TEXT	ENDS
;	COMDAT ??_G?$CMap@V?$CStringT@DV?$StrTraitMFC_DLL@DV?$ChTraitsCRT@D@ATL@@@@@ATL@@PBDVCPaneBase@ETSLayoutMgr@@V34@@@UAEPAXI@Z
_TEXT	SEGMENT PARA USE32 PUBLIC 'CODE'
_TEXT	ENDS
;	COMDAT ??_G?$CArray@UElemPos@CMarkup@@AAU12@@@UAEPAXI@Z
_TEXT	SEGMENT PARA USE32 PUBLIC 'CODE'
_TEXT	ENDS
;	COMDAT ?SetSize@?$CArray@MM@@QAEXHH@Z
_TEXT	SEGMENT PARA USE32 PUBLIC 'CODE'
_TEXT	ENDS
;	COMDAT ??$SerializeElements@M@@YGXAAVCArchive@@PAMH@Z
_TEXT	SEGMENT PARA USE32 PUBLIC 'CODE'
_TEXT	ENDS
;	COMDAT ??$DumpElements@M@@YGXAAVCDumpContext@@PBMH@Z
_TEXT	SEGMENT PARA USE32 PUBLIC 'CODE'
_TEXT	ENDS
;	COMDAT ?SetSize@?$CArray@VCPaneBase@ETSLayoutMgr@@V12@@@QAEXHH@Z
_TEXT	SEGMENT PARA USE32 PUBLIC 'CODE'
_TEXT	ENDS
;	COMDAT ?ElementAt@?$CArray@VCPaneBase@ETSLayoutMgr@@V12@@@QAEAAVCPaneBase@ETSLayoutMgr@@H@Z
_TEXT	SEGMENT PARA USE32 PUBLIC 'CODE'
_TEXT	ENDS
;	COMDAT ??$SerializeElements@VCPaneBase@ETSLayoutMgr@@@@YGXAAVCArchive@@PAVCPaneBase@ETSLayoutMgr@@H@Z
_TEXT	SEGMENT PARA USE32 PUBLIC 'CODE'
_TEXT	ENDS
;	COMDAT ??$DumpElements@VCPaneBase@ETSLayoutMgr@@@@YGXAAVCDumpContext@@PBVCPaneBase@ETSLayoutMgr@@H@Z
_TEXT	SEGMENT PARA USE32 PUBLIC 'CODE'
_TEXT	ENDS
;	COMDAT ??A?$CMap@V?$CStringT@DV?$StrTraitMFC_DLL@DV?$ChTraitsCRT@D@ATL@@@@@ATL@@PBDVCPaneBase@ETSLayoutMgr@@V34@@@QAEAAVCPaneBase@ETSLayoutMgr@@PBD@Z
_TEXT	SEGMENT PARA USE32 PUBLIC 'CODE'
_TEXT	ENDS
;	COMDAT ?RemoveAll@?$CMap@V?$CStringT@DV?$StrTraitMFC_DLL@DV?$ChTraitsCRT@D@ATL@@@@@ATL@@PBDVCPaneBase@ETSLayoutMgr@@V34@@@QAEXXZ
_TEXT	SEGMENT PARA USE32 PUBLIC 'CODE'
_TEXT	ENDS
;	COMDAT ?GetAssocAt@?$CMap@V?$CStringT@DV?$StrTraitMFC_DLL@DV?$ChTraitsCRT@D@ATL@@@@@ATL@@PBDVCPaneBase@ETSLayoutMgr@@V34@@@IBEPAVCAssoc@1@PBDAAI1@Z
_TEXT	SEGMENT PARA USE32 PUBLIC 'CODE'
_TEXT	ENDS
;	COMDAT ??$DumpElements@V?$CStringT@DV?$StrTraitMFC_DLL@DV?$ChTraitsCRT@D@ATL@@@@@ATL@@@@YGXAAVCDumpContext@@PBV?$CStringT@DV?$StrTraitMFC_DLL@DV?$ChTraitsCRT@D@ATL@@@@@ATL@@H@Z
_TEXT	SEGMENT PARA USE32 PUBLIC 'CODE'
_TEXT	ENDS
;	COMDAT ?SetSize@?$CArray@UElemPos@CMarkup@@AAU12@@@QAEXHH@Z
_TEXT	SEGMENT PARA USE32 PUBLIC 'CODE'
_TEXT	ENDS
;	COMDAT ?ElementAt@?$CArray@UElemPos@CMarkup@@AAU12@@@QAEAAUElemPos@CMarkup@@H@Z
_TEXT	SEGMENT PARA USE32 PUBLIC 'CODE'
_TEXT	ENDS
;	COMDAT ??$SerializeElements@UElemPos@CMarkup@@@@YGXAAVCArchive@@PAUElemPos@CMarkup@@H@Z
_TEXT	SEGMENT PARA USE32 PUBLIC 'CODE'
_TEXT	ENDS
;	COMDAT ??$DumpElements@UElemPos@CMarkup@@@@YGXAAVCDumpContext@@PBUElemPos@CMarkup@@H@Z
_TEXT	SEGMENT PARA USE32 PUBLIC 'CODE'
_TEXT	ENDS
;	COMDAT ??1CAssoc@?$CMap@V?$CStringT@DV?$StrTraitMFC_DLL@DV?$ChTraitsCRT@D@ATL@@@@@ATL@@PBDVCPaneBase@ETSLayoutMgr@@V34@@@QAE@XZ
_TEXT	SEGMENT PARA USE32 PUBLIC 'CODE'
_TEXT	ENDS
;	COMDAT ??1CPair@?$CMap@V?$CStringT@DV?$StrTraitMFC_DLL@DV?$ChTraitsCRT@D@ATL@@@@@ATL@@PBDVCPaneBase@ETSLayoutMgr@@V34@@@QAE@XZ
_TEXT	SEGMENT PARA USE32 PUBLIC 'CODE'
_TEXT	ENDS
;	COMDAT ?InitHashTable@?$CMap@V?$CStringT@DV?$StrTraitMFC_DLL@DV?$ChTraitsCRT@D@ATL@@@@@ATL@@PBDVCPaneBase@ETSLayoutMgr@@V34@@@QAEXIH@Z
_TEXT	SEGMENT PARA USE32 PUBLIC 'CODE'
_TEXT	ENDS
;	COMDAT ?NewAssoc@?$CMap@V?$CStringT@DV?$StrTraitMFC_DLL@DV?$ChTraitsCRT@D@ATL@@@@@ATL@@PBDVCPaneBase@ETSLayoutMgr@@V34@@@IAEPAVCAssoc@1@PBD@Z
_TEXT	SEGMENT PARA USE32 PUBLIC 'CODE'
_TEXT	ENDS
;	COMDAT ??$CompareElements@V?$CStringT@DV?$StrTraitMFC_DLL@DV?$ChTraitsCRT@D@ATL@@@@@ATL@@PBD@@YGHPBV?$CStringT@DV?$StrTraitMFC_DLL@DV?$ChTraitsCRT@D@ATL@@@@@ATL@@PBQBD@Z
_TEXT	SEGMENT PARA USE32 PUBLIC 'CODE'
_TEXT	ENDS
;	COMDAT ??0CAssoc@?$CMap@V?$CStringT@DV?$StrTraitMFC_DLL@DV?$ChTraitsCRT@D@ATL@@@@@ATL@@PBDVCPaneBase@ETSLayoutMgr@@V34@@@QAE@PBD@Z
_TEXT	SEGMENT PARA USE32 PUBLIC 'CODE'
_TEXT	ENDS
;	COMDAT ??0CPair@?$CMap@V?$CStringT@DV?$StrTraitMFC_DLL@DV?$ChTraitsCRT@D@ATL@@@@@ATL@@PBDVCPaneBase@ETSLayoutMgr@@V34@@@IAE@PBD@Z
_TEXT	SEGMENT PARA USE32 PUBLIC 'CODE'
_TEXT	ENDS
;	COMDAT ??_R3CMarkupArchive@@8
rdata$r	SEGMENT DWORD USE32 PUBLIC 'CONST'
rdata$r	ENDS
;	COMDAT ??_R3?$CArray@UElemPos@CMarkup@@AAU12@@@8
rdata$r	SEGMENT DWORD USE32 PUBLIC 'CONST'
rdata$r	ENDS
;	COMDAT ??_R3ETSLayoutMgr@@8
rdata$r	SEGMENT DWORD USE32 PUBLIC 'CONST'
rdata$r	ENDS
;	COMDAT ??_R3?$CMap@V?$CStringT@DV?$StrTraitMFC_DLL@DV?$ChTraitsCRT@D@ATL@@@@@ATL@@PBDVCPaneBase@ETSLayoutMgr@@V34@@@8
rdata$r	SEGMENT DWORD USE32 PUBLIC 'CONST'
rdata$r	ENDS
;	COMDAT ??_R3?$numpunct@_W@std@@8
rdata$r	SEGMENT DWORD USE32 PUBLIC 'CONST'
rdata$r	ENDS
;	COMDAT ??_R3?$numpunct@D@std@@8
rdata$r	SEGMENT DWORD USE32 PUBLIC 'CONST'
rdata$r	ENDS
;	COMDAT ??_R3CMarkup@@8
rdata$r	SEGMENT DWORD USE32 PUBLIC 'CONST'
rdata$r	ENDS
;	COMDAT ??_R3?$CArray@VCPaneBase@ETSLayoutMgr@@V12@@@8
rdata$r	SEGMENT DWORD USE32 PUBLIC 'CONST'
rdata$r	ENDS
;	COMDAT ??_R3PaneSplitter@ETSLayoutMgr@@8
rdata$r	SEGMENT DWORD USE32 PUBLIC 'CONST'
rdata$r	ENDS
;	COMDAT ??_R3?$CArray@MM@@8
rdata$r	SEGMENT DWORD USE32 PUBLIC 'CONST'
rdata$r	ENDS
;	COMDAT ??_R3PanePosition@ETSLayoutMgr@@8
rdata$r	SEGMENT DWORD USE32 PUBLIC 'CONST'
rdata$r	ENDS
;	COMDAT ??_R3PaneBase@ETSLayoutMgr@@8
rdata$r	SEGMENT DWORD USE32 PUBLIC 'CONST'
rdata$r	ENDS
;	COMDAT ??_R2CMarkupArchive@@8
rdata$r	SEGMENT DWORD USE32 PUBLIC 'CONST'
rdata$r	ENDS
;	COMDAT ??_R2?$CArray@UElemPos@CMarkup@@AAU12@@@8
rdata$r	SEGMENT DWORD USE32 PUBLIC 'CONST'
rdata$r	ENDS
;	COMDAT ??_R2ETSLayoutMgr@@8
rdata$r	SEGMENT DWORD USE32 PUBLIC 'CONST'
rdata$r	ENDS
;	COMDAT ??_R2?$CMap@V?$CStringT@DV?$StrTraitMFC_DLL@DV?$ChTraitsCRT@D@ATL@@@@@ATL@@PBDVCPaneBase@ETSLayoutMgr@@V34@@@8
rdata$r	SEGMENT DWORD USE32 PUBLIC 'CONST'
rdata$r	ENDS
;	COMDAT ??_R2?$numpunct@_W@std@@8
rdata$r	SEGMENT DWORD USE32 PUBLIC 'CONST'
rdata$r	ENDS
;	COMDAT ??_R2?$numpunct@D@std@@8
rdata$r	SEGMENT DWORD USE32 PUBLIC 'CONST'
rdata$r	ENDS
;	COMDAT ??_R2CMarkup@@8
rdata$r	SEGMENT DWORD USE32 PUBLIC 'CONST'
rdata$r	ENDS
;	COMDAT ??_R2?$CArray@VCPaneBase@ETSLayoutMgr@@V12@@@8
rdata$r	SEGMENT DWORD USE32 PUBLIC 'CONST'
rdata$r	ENDS
;	COMDAT ??_R2PaneSplitter@ETSLayoutMgr@@8
rdata$r	SEGMENT DWORD USE32 PUBLIC 'CONST'
rdata$r	ENDS
;	COMDAT ??_R2?$CArray@MM@@8
rdata$r	SEGMENT DWORD USE32 PUBLIC 'CONST'
rdata$r	ENDS
;	COMDAT ??_R2PanePosition@ETSLayoutMgr@@8
rdata$r	SEGMENT DWORD USE32 PUBLIC 'CONST'
rdata$r	ENDS
;	COMDAT ??_R2PaneBase@ETSLayoutMgr@@8
rdata$r	SEGMENT DWORD USE32 PUBLIC 'CONST'
rdata$r	ENDS
;	COMDAT ??_R1A@?0A@A@CMarkupArchive@@8
rdata$r	SEGMENT DWORD USE32 PUBLIC 'CONST'
rdata$r	ENDS
;	COMDAT ??_R1A@?0A@A@?$CArray@UElemPos@CMarkup@@AAU12@@@8
rdata$r	SEGMENT DWORD USE32 PUBLIC 'CONST'
rdata$r	ENDS
;	COMDAT ??_R1A@?0A@A@ETSLayoutMgr@@8
rdata$r	SEGMENT DWORD USE32 PUBLIC 'CONST'
rdata$r	ENDS
;	COMDAT ??_R1A@?0A@A@?$CMap@V?$CStringT@DV?$StrTraitMFC_DLL@DV?$ChTraitsCRT@D@ATL@@@@@ATL@@PBDVCPaneBase@ETSLayoutMgr@@V34@@@8
rdata$r	SEGMENT DWORD USE32 PUBLIC 'CONST'
rdata$r	ENDS
;	COMDAT ??_R1A@?0A@A@?$numpunct@_W@std@@8
rdata$r	SEGMENT DWORD USE32 PUBLIC 'CONST'
rdata$r	ENDS
;	COMDAT ??_R1A@?0A@A@facet@locale@std@@8
rdata$r	SEGMENT DWORD USE32 PUBLIC 'CONST'
rdata$r	ENDS
;	COMDAT ??_R0?AVfacet@locale@std@@@8
_DATA	SEGMENT DWORD USE32 PUBLIC 'DATA'
_DATA	ENDS
;	COMDAT ??_R1A@?0A@A@?$numpunct@D@std@@8
rdata$r	SEGMENT DWORD USE32 PUBLIC 'CONST'
rdata$r	ENDS
;	COMDAT ??_R1A@?0A@A@CMarkup@@8
rdata$r	SEGMENT DWORD USE32 PUBLIC 'CONST'
rdata$r	ENDS
;	COMDAT ??_R1A@?0A@A@?$CArray@VCPaneBase@ETSLayoutMgr@@V12@@@8
rdata$r	SEGMENT DWORD USE32 PUBLIC 'CONST'
rdata$r	ENDS
;	COMDAT ??_R1A@?0A@A@PaneSplitter@ETSLayoutMgr@@8
rdata$r	SEGMENT DWORD USE32 PUBLIC 'CONST'
rdata$r	ENDS
;	COMDAT ??_R1A@?0A@A@CObject@@8
rdata$r	SEGMENT DWORD USE32 PUBLIC 'CONST'
rdata$r	ENDS
;	COMDAT ??_R0?AVCObject@@@8
_DATA	SEGMENT DWORD USE32 PUBLIC 'DATA'
_DATA	ENDS
;	COMDAT ??_R1A@?0A@A@?$CArray@MM@@8
rdata$r	SEGMENT DWORD USE32 PUBLIC 'CONST'
rdata$r	ENDS
;	COMDAT ??_R1A@?0A@A@Pane@ETSLayoutMgr@@8
rdata$r	SEGMENT DWORD USE32 PUBLIC 'CONST'
rdata$r	ENDS
;	COMDAT ??_R1A@?0A@A@PanePosition@ETSLayoutMgr@@8
rdata$r	SEGMENT DWORD USE32 PUBLIC 'CONST'
rdata$r	ENDS
;	COMDAT ??_R1A@?0A@A@PaneBase@ETSLayoutMgr@@8
rdata$r	SEGMENT DWORD USE32 PUBLIC 'CONST'
rdata$r	ENDS
;	COMDAT ??_R0?AVCMarkupArchive@@@8
_DATA	SEGMENT DWORD USE32 PUBLIC 'DATA'
_DATA	ENDS
;	COMDAT ??_R0?AV?$CArray@UElemPos@CMarkup@@AAU12@@@@8
_DATA	SEGMENT DWORD USE32 PUBLIC 'DATA'
_DATA	ENDS
;	COMDAT ??_R0?AVETSLayoutMgr@@@8
_DATA	SEGMENT DWORD USE32 PUBLIC 'DATA'
_DATA	ENDS
;	COMDAT ??_R0?AV?$CMap@V?$CStringT@DV?$StrTraitMFC_DLL@DV?$ChTraitsCRT@D@ATL@@@@@ATL@@PBDVCPaneBase@ETSLayoutMgr@@V34@@@@8
_DATA	SEGMENT DWORD USE32 PUBLIC 'DATA'
_DATA	ENDS
;	COMDAT ??_R0?AV?$numpunct@_W@std@@@8
_DATA	SEGMENT DWORD USE32 PUBLIC 'DATA'
_DATA	ENDS
;	COMDAT ??_R0?AV?$numpunct@D@std@@@8
_DATA	SEGMENT DWORD USE32 PUBLIC 'DATA'
_DATA	ENDS
;	COMDAT ??_R0?AVCMarkup@@@8
_DATA	SEGMENT DWORD USE32 PUBLIC 'DATA'
_DATA	ENDS
;	COMDAT ??_R0?AV?$CArray@VCPaneBase@ETSLayoutMgr@@V12@@@@8
_DATA	SEGMENT DWORD USE32 PUBLIC 'DATA'
_DATA	ENDS
;	COMDAT ??_R0?AVPaneSplitter@ETSLayoutMgr@@@8
_DATA	SEGMENT DWORD USE32 PUBLIC 'DATA'
_DATA	ENDS
;	COMDAT ??_R0?AV?$CArray@MM@@@8
_DATA	SEGMENT DWORD USE32 PUBLIC 'DATA'
_DATA	ENDS
;	COMDAT ??_R0?AVPane@ETSLayoutMgr@@@8
_DATA	SEGMENT DWORD USE32 PUBLIC 'DATA'
_DATA	ENDS
;	COMDAT ??_R0?AVPanePosition@ETSLayoutMgr@@@8
_DATA	SEGMENT DWORD USE32 PUBLIC 'DATA'
_DATA	ENDS
;	COMDAT ??_R0?AVPaneBase@ETSLayoutMgr@@@8
_DATA	SEGMENT DWORD USE32 PUBLIC 'DATA'
_DATA	ENDS
;	COMDAT ??_R4CMarkupArchive@@6B@
rdata$r	SEGMENT DWORD USE32 PUBLIC 'CONST'
rdata$r	ENDS
;	COMDAT ??_R4?$CArray@UElemPos@CMarkup@@AAU12@@@6B@
rdata$r	SEGMENT DWORD USE32 PUBLIC 'CONST'
rdata$r	ENDS
;	COMDAT ??_R4ETSLayoutMgr@@6B@
rdata$r	SEGMENT DWORD USE32 PUBLIC 'CONST'
rdata$r	ENDS
;	COMDAT ??_R4?$CMap@V?$CStringT@DV?$StrTraitMFC_DLL@DV?$ChTraitsCRT@D@ATL@@@@@ATL@@PBDVCPaneBase@ETSLayoutMgr@@V34@@@6B@
rdata$r	SEGMENT DWORD USE32 PUBLIC 'CONST'
rdata$r	ENDS
;	COMDAT ??0?$allocator@_W@std@@QAE@XZ
_TEXT	SEGMENT PARA USE32 PUBLIC 'CODE'
_TEXT	ENDS
;	COMDAT ??_G?$numpunct@_W@std@@MAEPAXI@Z
_TEXT	SEGMENT PARA USE32 PUBLIC 'CODE'
_TEXT	ENDS
;	COMDAT ??_R4?$numpunct@_W@std@@6B@
rdata$r	SEGMENT DWORD USE32 PUBLIC 'CONST'
rdata$r	ENDS
;	COMDAT ??_G?$numpunct@D@std@@MAEPAXI@Z
_TEXT	SEGMENT PARA USE32 PUBLIC 'CODE'
_TEXT	ENDS
;	COMDAT ??_R4?$numpunct@D@std@@6B@
rdata$r	SEGMENT DWORD USE32 PUBLIC 'CONST'
rdata$r	ENDS
;	COMDAT ??_R4CMarkup@@6B@
rdata$r	SEGMENT DWORD USE32 PUBLIC 'CONST'
rdata$r	ENDS
;	COMDAT ??_R4?$CArray@VCPaneBase@ETSLayoutMgr@@V12@@@6B@
rdata$r	SEGMENT DWORD USE32 PUBLIC 'CONST'
rdata$r	ENDS
;	COMDAT ??_R4PaneSplitter@ETSLayoutMgr@@6B@
rdata$r	SEGMENT DWORD USE32 PUBLIC 'CONST'
rdata$r	ENDS
;	COMDAT ??_R4?$CArray@MM@@6B@
rdata$r	SEGMENT DWORD USE32 PUBLIC 'CONST'
rdata$r	ENDS
;	COMDAT ??_R4PanePosition@ETSLayoutMgr@@6B@
rdata$r	SEGMENT DWORD USE32 PUBLIC 'CONST'
rdata$r	ENDS
;	COMDAT ??_R4PaneBase@ETSLayoutMgr@@6B@
rdata$r	SEGMENT DWORD USE32 PUBLIC 'CONST'
rdata$r	ENDS
;	COMDAT ?GetDefaultManager@?$StrTraitMFC_DLL@DV?$ChTraitsCRT@D@ATL@@@@SAPAUIAtlStringMgr@ATL@@XZ
_TEXT	SEGMENT PARA USE32 PUBLIC 'CODE'
_TEXT	ENDS
;	COMDAT ?FindStringResourceInstance@?$StrTraitMFC_DLL@DV?$ChTraitsCRT@D@ATL@@@@SAPAUHINSTANCE__@@I@Z
_TEXT	SEGMENT PARA USE32 PUBLIC 'CODE'
_TEXT	ENDS
;	COMDAT ?AtlGetStringResourceImage@ATL@@YAPBUATLSTRINGRESOURCEIMAGE@1@PAUHINSTANCE__@@I@Z
_TEXT	SEGMENT PARA USE32 PUBLIC 'CODE'
_TEXT	ENDS
;	COMDAT ?_AtlGetStringResourceImage@ATL@@YAPBUATLSTRINGRESOURCEIMAGE@1@PAUHINSTANCE__@@PAUHRSRC__@@I@Z
_TEXT	SEGMENT PARA USE32 PUBLIC 'CODE'
_TEXT	ENDS
;	COMDAT ?GetBaseTypeLength@?$ChTraitsCRT@D@ATL@@SAHPB_WH@Z
_TEXT	SEGMENT PARA USE32 PUBLIC 'CODE'
_TEXT	ENDS
;	COMDAT ?_AtlGetConversionACP@ATL@@YGIXZ
_TEXT	SEGMENT PARA USE32 PUBLIC 'CODE'
_TEXT	ENDS
;	COMDAT ?g_pfnGetThreadACP@ATL@@3P6GIXZA
_DATA	SEGMENT DWORD USE32 PUBLIC 'DATA'
_DATA	ENDS
;	COMDAT ?_AtlGetThreadACPThunk@ATL@@YGIXZ
_TEXT	SEGMENT PARA USE32 PUBLIC 'CODE'
_TEXT	ENDS
;	COMDAT ?_AtlGetThreadACPReal@ATL@@YGIXZ
_TEXT	SEGMENT PARA USE32 PUBLIC 'CODE'
_TEXT	ENDS
;	COMDAT ?_AtlGetThreadACPFake@ATL@@YGIXZ
_TEXT	SEGMENT PARA USE32 PUBLIC 'CODE'
_TEXT	ENDS
;	COMDAT ?InterlockedExchangePointer@@YGPAXPAPAXPAX@Z
_TEXT	SEGMENT PARA USE32 PUBLIC 'CODE'
_TEXT	ENDS
;	COMDAT ?ConvertToBaseType@?$ChTraitsCRT@D@ATL@@SAXPADHPB_WH@Z
_TEXT	SEGMENT PARA USE32 PUBLIC 'CODE'
_TEXT	ENDS
;	COMDAT ??RCTraceFileAndLineInfo@ATL@@QBAXKIPBDZZ
_TEXT	SEGMENT PARA USE32 PUBLIC 'CODE'
_TEXT	ENDS
;	COMDAT ?TraceV@CTrace@ATL@@QBAXPBDHKI0PAD@Z
_TEXT	SEGMENT PARA USE32 PUBLIC 'CODE'
_TEXT	ENDS
;	COMDAT ??_C@_0CJ@FJEKGMMD@Warning?3?5implicit?5LoadString?$CI?$CFu?$CJ@
CONST	SEGMENT DWORD USE32 PUBLIC 'CONST'
CONST	ENDS
;	COMDAT ??BCTraceCategory@ATL@@QBEKXZ
_TEXT	SEGMENT PARA USE32 PUBLIC 'CODE'
_TEXT	ENDS
;	COMDAT ?data@CPlex@@QAEPAXXZ
text$AFX_COL1	SEGMENT PARA USE32 PUBLIC ''
text$AFX_COL1	ENDS
;	COMDAT ??_C@_0EN@CBMLGOH@D?3?2Program?5Files?5?$CIx86?$CJ?2Microsoft@
CONST	SEGMENT DWORD USE32 PUBLIC 'CONST'
CONST	ENDS
;	COMDAT ??_7?$CArray@UElemPos@CMarkup@@AAU12@@@6B@
CONST	SEGMENT DWORD USE32 PUBLIC 'CONST'
CONST	ENDS
;	COMDAT ??_7?$CMap@V?$CStringT@DV?$StrTraitMFC_DLL@DV?$ChTraitsCRT@D@ATL@@@@@ATL@@PBDVCPaneBase@ETSLayoutMgr@@V34@@@6B@
CONST	SEGMENT DWORD USE32 PUBLIC 'CONST'
CONST	ENDS
;	COMDAT ??_7?$CArray@VCPaneBase@ETSLayoutMgr@@V12@@@6B@
CONST	SEGMENT DWORD USE32 PUBLIC 'CONST'
CONST	ENDS
;	COMDAT ??_7?$CArray@MM@@6B@
CONST	SEGMENT DWORD USE32 PUBLIC 'CONST'
CONST	ENDS
;	COMDAT ?_Psave@?$_Facetptr@V?$numpunct@_W@std@@@std@@2PBVfacet@locale@2@B
_DATA	SEGMENT DWORD USE32 PUBLIC 'DATA'
_DATA	ENDS
;	COMDAT ?_Psave@?$_Facetptr@V?$numpunct@D@std@@@std@@2PBVfacet@locale@2@B
_DATA	SEGMENT DWORD USE32 PUBLIC 'DATA'
_DATA	ENDS
;	COMDAT ?Unlock@CComCriticalSection@ATL@@QAEJXZ
_TEXT	SEGMENT PARA USE32 PUBLIC 'CODE'
_TEXT	ENDS
;	COMDAT ??_C@_0FG@LDNDNCJM@D?3?2Program?5Files?5?$CIx86?$CJ?2Microsoft@
CONST	SEGMENT DWORD USE32 PUBLIC 'CONST'
CONST	ENDS
;	COMDAT ??_C@_09HIEJFN@m_bLocked?$AA@
CONST	SEGMENT DWORD USE32 PUBLIC 'CONST'
CONST	ENDS
;	COMDAT ?_Psave@?$_Facetptr@V?$ctype@_W@std@@@std@@2PBVfacet@locale@2@B
_DATA	SEGMENT DWORD USE32 PUBLIC 'DATA'
_DATA	ENDS
;	COMDAT ?_Psave@?$_Facetptr@V?$ctype@D@std@@@std@@2PBVfacet@locale@2@B
_DATA	SEGMENT DWORD USE32 PUBLIC 'DATA'
_DATA	ENDS
;	COMDAT ??3@YAXPAX0@Z
_TEXT	SEGMENT PARA USE32 PUBLIC 'CODE'
_TEXT	ENDS
;	COMDAT ??2@YAPAXIPAX@Z
_TEXT	SEGMENT PARA USE32 PUBLIC 'CODE'
_TEXT	ENDS
;	COMDAT ??$_Maklocchr@_W@std@@YA_WDPA_WABU_Cvtvec@@@Z
_TEXT	SEGMENT PARA USE32 PUBLIC 'CODE'
_TEXT	ENDS
;	COMDAT ??$_DebugHeapDelete@X@std@@YAXPAX@Z
_TEXT	SEGMENT PARA USE32 PUBLIC 'CODE'
_TEXT	ENDS
;	COMDAT ??$_Maklocstr@_W@std@@YAPA_WPBDPA_WABU_Cvtvec@@@Z
_TEXT	SEGMENT PARA USE32 PUBLIC 'CODE'
_TEXT	ENDS
;	COMDAT ??$_Maklocchr@D@std@@YADDPADABU_Cvtvec@@@Z
_TEXT	SEGMENT PARA USE32 PUBLIC 'CODE'
_TEXT	ENDS
;	COMDAT ??_C@_04LOAJBDKD@true?$AA@
CONST	SEGMENT DWORD USE32 PUBLIC 'CONST'
CONST	ENDS
;	COMDAT ??_C@_05LAPONLG@false?$AA@
CONST	SEGMENT DWORD USE32 PUBLIC 'CONST'
CONST	ENDS
;	COMDAT _wmemcpy
_TEXT	SEGMENT PARA USE32 PUBLIC 'CODE'
_TEXT	ENDS
;	COMDAT ?max_size@?$allocator@_W@std@@QBEIXZ
_TEXT	SEGMENT PARA USE32 PUBLIC 'CODE'
_TEXT	ENDS
;	COMDAT ?allocate@?$allocator@_W@std@@QAEPA_WI@Z
_TEXT	SEGMENT PARA USE32 PUBLIC 'CODE'
_TEXT	ENDS
;	COMDAT ??$_Allocate@_W@std@@YAPA_WIPA_W@Z
_TEXT	SEGMENT PARA USE32 PUBLIC 'CODE'
_TEXT	ENDS
;	COMDAT ??_C@_0N@ILOMLJGA@nLength?5?$DO?$DN?50?$AA@
CONST	SEGMENT DWORD USE32 PUBLIC 'CONST'
CONST	ENDS
;	COMDAT ??_C@_0CD@EEFFJEGJ@nLength?5?$DM?$DN?5GetData?$CI?$CJ?9?$DOnAllocLeng@
CONST	SEGMENT DWORD USE32 PUBLIC 'CONST'
CONST	ENDS
;	COMDAT ?data@CStringData@ATL@@QAEPAXXZ
_TEXT	SEGMENT PARA USE32 PUBLIC 'CODE'
_TEXT	ENDS
;	COMDAT ?AtlThrow@ATL@@YGXJ@Z
_TEXT	SEGMENT PARA USE32 PUBLIC 'CODE'
_TEXT	ENDS
;	COMDAT ??_C@_0FI@NHHJANPC@D?3?2Program?5Files?5?$CIx86?$CJ?2Microsoft@
CONST	SEGMENT DWORD USE32 PUBLIC 'CONST'
CONST	ENDS
;	COMDAT ??_C@_0BF@IAAKIJDJ@AtlThrow?3?5hr?5?$DN?50x?$CFx?6?$AA@
CONST	SEGMENT DWORD USE32 PUBLIC 'CONST'
CONST	ENDS
;	COMDAT ??_C@_0FJ@DMHPDOJC@D?3?2Program?5Files?5?$CIx86?$CJ?2Microsoft@
CONST	SEGMENT DWORD USE32 PUBLIC 'CONST'
CONST	ENDS
;	COMDAT ??_C@_0BA@GOIMFHNK@pStringMgr?5?$CB?$DN?50?$AA@
CONST	SEGMENT DWORD USE32 PUBLIC 'CONST'
CONST	ENDS
;	COMDAT ??_7length_error@std@@6B@
CONST	SEGMENT DWORD USE32 PUBLIC 'CONST'
CONST	ENDS
;	COMDAT ??_R4length_error@std@@6B@
rdata$r	SEGMENT DWORD USE32 PUBLIC 'CONST'
rdata$r	ENDS
;	COMDAT ??_R3length_error@std@@8
rdata$r	SEGMENT DWORD USE32 PUBLIC 'CONST'
rdata$r	ENDS
;	COMDAT ??_R2length_error@std@@8
rdata$r	SEGMENT DWORD USE32 PUBLIC 'CONST'
rdata$r	ENDS
;	COMDAT ??_R1A@?0A@A@length_error@std@@8
rdata$r	SEGMENT DWORD USE32 PUBLIC 'CONST'
rdata$r	ENDS
;	COMDAT ??_R1A@?0A@A@logic_error@std@@8
rdata$r	SEGMENT DWORD USE32 PUBLIC 'CONST'
rdata$r	ENDS
;	COMDAT ??_R0?AVlogic_error@std@@@8
_DATA	SEGMENT DWORD USE32 PUBLIC 'DATA'
_DATA	ENDS
;	COMDAT ??_R1A@?0A@A@exception@@8
rdata$r	SEGMENT DWORD USE32 PUBLIC 'CONST'
rdata$r	ENDS
;	COMDAT ??_R0?AVexception@@@8
_DATA	SEGMENT DWORD USE32 PUBLIC 'DATA'
_DATA	ENDS
;	COMDAT ??_Glength_error@std@@UAEPAXI@Z
_TEXT	SEGMENT PARA USE32 PUBLIC 'CODE'
_TEXT	ENDS
;	COMDAT ?what@logic_error@std@@UBEPBDXZ
_TEXT	SEGMENT PARA USE32 PUBLIC 'CODE'
_TEXT	ENDS
;	COMDAT ??1logic_error@std@@UAE@XZ
_TEXT	SEGMENT PARA USE32 PUBLIC 'CODE'
_TEXT	ENDS
;	COMDAT ??_7logic_error@std@@6B@
CONST	SEGMENT DWORD USE32 PUBLIC 'CONST'
CONST	ENDS
;	COMDAT ??_R4logic_error@std@@6B@
rdata$r	SEGMENT DWORD USE32 PUBLIC 'CONST'
rdata$r	ENDS
;	COMDAT ??_R3logic_error@std@@8
rdata$r	SEGMENT DWORD USE32 PUBLIC 'CONST'
rdata$r	ENDS
;	COMDAT ??_R2logic_error@std@@8
rdata$r	SEGMENT DWORD USE32 PUBLIC 'CONST'
rdata$r	ENDS
;	COMDAT ??_Glogic_error@std@@UAEPAXI@Z
_TEXT	SEGMENT PARA USE32 PUBLIC 'CODE'
_TEXT	ENDS
;	COMDAT ??0logic_error@std@@QAE@ABV01@@Z
_TEXT	SEGMENT PARA USE32 PUBLIC 'CODE'
_TEXT	ENDS
;	COMDAT ??0?$allocator@D@std@@QAE@ABV01@@Z
_TEXT	SEGMENT PARA USE32 PUBLIC 'CODE'
_TEXT	ENDS
;	COMDAT ?deallocate@?$allocator@D@std@@QAEXPADI@Z
_TEXT	SEGMENT PARA USE32 PUBLIC 'CODE'
_TEXT	ENDS
;	COMDAT ?max_size@?$allocator@D@std@@QBEIXZ
_TEXT	SEGMENT PARA USE32 PUBLIC 'CODE'
_TEXT	ENDS
;	COMDAT ?allocate@?$allocator@D@std@@QAEPADI@Z
_TEXT	SEGMENT PARA USE32 PUBLIC 'CODE'
_TEXT	ENDS
;	COMDAT ??$_Allocate@D@std@@YAPADIPAD@Z
_TEXT	SEGMENT PARA USE32 PUBLIC 'CODE'
_TEXT	ENDS
;	COMDAT __CTA3?AVlength_error@std@@
xdata$x	SEGMENT DWORD USE32 PUBLIC 'CONST'
xdata$x	ENDS
;	COMDAT ??1length_error@std@@UAE@XZ
_TEXT	SEGMENT PARA USE32 PUBLIC 'CODE'
_TEXT	ENDS
;	COMDAT __CT??_R0?AVexception@@@8??0exception@@QAE@ABV0@@Z12
xdata$x	SEGMENT DWORD USE32 PUBLIC 'CONST'
xdata$x	ENDS
;	COMDAT __CT??_R0?AVlogic_error@std@@@8??0logic_error@std@@QAE@ABV01@@Z40
xdata$x	SEGMENT DWORD USE32 PUBLIC 'CONST'
xdata$x	ENDS
;	COMDAT __CT??_R0?AVlength_error@std@@@8??0length_error@std@@QAE@ABV01@@Z40
xdata$x	SEGMENT DWORD USE32 PUBLIC 'CONST'
xdata$x	ENDS
;	COMDAT ??_R0?AVlength_error@std@@@8
_DATA	SEGMENT DWORD USE32 PUBLIC 'DATA'
_DATA	ENDS
;	COMDAT __TI3?AVlength_error@std@@
xdata$x	SEGMENT DWORD USE32 PUBLIC 'CONST'
xdata$x	ENDS
;	COMDAT ??0?$allocator@D@std@@QAE@XZ
_TEXT	SEGMENT PARA USE32 PUBLIC 'CODE'
_TEXT	ENDS
;	COMDAT ??0length_error@std@@QAE@ABV?$basic_string@DU?$char_traits@D@std@@V?$allocator@D@2@@1@@Z
_TEXT	SEGMENT PARA USE32 PUBLIC 'CODE'
_TEXT	ENDS
;	COMDAT ??0logic_error@std@@QAE@ABV?$basic_string@DU?$char_traits@D@std@@V?$allocator@D@2@@1@@Z
_TEXT	SEGMENT PARA USE32 PUBLIC 'CODE'
_TEXT	ENDS
;	COMDAT ??_C@_01GFHCPBMG@C?$AA@
CONST	SEGMENT DWORD USE32 PUBLIC 'CONST'
CONST	ENDS
;	COMDAT ??_C@_0FH@KDPNIMBO@D?3?2Program?5Files?5?$CIx86?$CJ?2Microsoft@
CONST	SEGMENT DWORD USE32 PUBLIC 'CONST'
CONST	ENDS
;	COMDAT ?AtlIsValidString@ATL@@YAHPBDI@Z
_TEXT	SEGMENT PARA USE32 PUBLIC 'CODE'
_TEXT	ENDS
;	COMDAT ?Release@CStringData@ATL@@QAEXXZ
_TEXT	SEGMENT PARA USE32 PUBLIC 'CODE'
_TEXT	ENDS
;	COMDAT ??_C@_0L@OIIMFBNE@nRefs?5?$CB?$DN?50?$AA@
CONST	SEGMENT DWORD USE32 PUBLIC 'CONST'
CONST	ENDS
;	COMDAT ??_C@_0BA@GNIEOBOF@nNewLength?5?$DO?$DN?50?$AA@
CONST	SEGMENT DWORD USE32 PUBLIC 'CONST'
CONST	ENDS
;	COMDAT ?IsShared@CStringData@ATL@@QBE_NXZ
_TEXT	SEGMENT PARA USE32 PUBLIC 'CODE'
_TEXT	ENDS
;	COMDAT ??_C@_0CB@GFHAPKDK@pOldData?9?$DOnAllocLength?5?$DM?5nLength@
CONST	SEGMENT DWORD USE32 PUBLIC 'CONST'
CONST	ENDS
;	COMDAT ?_Peek@?$istreambuf_iterator@_WU?$char_traits@_W@std@@@std@@AAE_WXZ
_TEXT	SEGMENT PARA USE32 PUBLIC 'CODE'
_TEXT	ENDS
;	COMDAT ?_Peek@?$istreambuf_iterator@DU?$char_traits@D@std@@@std@@AAEDXZ
_TEXT	SEGMENT PARA USE32 PUBLIC 'CODE'
_TEXT	ENDS
;	COMDAT ??$use_facet@V?$ctype@_W@std@@@std@@YAABV?$ctype@_W@0@ABVlocale@0@@Z
_TEXT	SEGMENT PARA USE32 PUBLIC 'CODE'
_TEXT	ENDS
;	COMDAT ??_S?$ctype@_W@std@@6B@
CONST	SEGMENT DWORD USE32 PUBLIC 'CONST'
CONST	ENDS
;	COMDAT ??_R4?$ctype@_W@std@@6B@
rdata$r	SEGMENT DWORD USE32 PUBLIC 'CONST'
rdata$r	ENDS
;	COMDAT ??_R0?AV?$ctype@_W@std@@@8
_DATA	SEGMENT DWORD USE32 PUBLIC 'DATA'
_DATA	ENDS
;	COMDAT ??_R3?$ctype@_W@std@@8
rdata$r	SEGMENT DWORD USE32 PUBLIC 'CONST'
rdata$r	ENDS
;	COMDAT ??_R2?$ctype@_W@std@@8
rdata$r	SEGMENT DWORD USE32 PUBLIC 'CONST'
rdata$r	ENDS
;	COMDAT ??_R1A@?0A@A@?$ctype@_W@std@@8
rdata$r	SEGMENT DWORD USE32 PUBLIC 'CONST'
rdata$r	ENDS
;	COMDAT ??_R1A@?0A@A@ctype_base@std@@8
rdata$r	SEGMENT DWORD USE32 PUBLIC 'CONST'
rdata$r	ENDS
;	COMDAT ??_R0?AUctype_base@std@@@8
_DATA	SEGMENT DWORD USE32 PUBLIC 'DATA'
_DATA	ENDS
;	COMDAT ??_G?$ctype@_W@std@@MAEPAXI@Z
_TEXT	SEGMENT PARA USE32 PUBLIC 'CODE'
_TEXT	ENDS
;	COMDAT ??_C@_08EPJLHIJG@bad?5cast?$AA@
CONST	SEGMENT DWORD USE32 PUBLIC 'CONST'
CONST	ENDS
;	COMDAT __TI2?AVbad_cast@@
xdata$x	SEGMENT DWORD USE32 PUBLIC 'CONST'
xdata$x	ENDS
;	COMDAT __CTA2?AVbad_cast@@
xdata$x	SEGMENT DWORD USE32 PUBLIC 'CONST'
xdata$x	ENDS
;	COMDAT __CT??_R0?AVbad_cast@@@8??0bad_cast@@QAE@ABV0@@Z12
xdata$x	SEGMENT DWORD USE32 PUBLIC 'CONST'
xdata$x	ENDS
;	COMDAT ??_R0?AVbad_cast@@@8
_DATA	SEGMENT DWORD USE32 PUBLIC 'DATA'
_DATA	ENDS
;	COMDAT ??$_DebugHeapDelete@Vfacet@locale@std@@@std@@YAXPAVfacet@locale@0@@Z
_TEXT	SEGMENT PARA USE32 PUBLIC 'CODE'
_TEXT	ENDS
;	COMDAT ??$use_facet@V?$ctype@D@std@@@std@@YAABV?$ctype@D@0@ABVlocale@0@@Z
_TEXT	SEGMENT PARA USE32 PUBLIC 'CODE'
_TEXT	ENDS
;	COMDAT ??_S?$ctype@D@std@@6B@
CONST	SEGMENT DWORD USE32 PUBLIC 'CONST'
CONST	ENDS
;	COMDAT ??_R4?$ctype@D@std@@6B@
rdata$r	SEGMENT DWORD USE32 PUBLIC 'CONST'
rdata$r	ENDS
;	COMDAT ??_R0?AV?$ctype@D@std@@@8
_DATA	SEGMENT DWORD USE32 PUBLIC 'DATA'
_DATA	ENDS
;	COMDAT ??_R3?$ctype@D@std@@8
rdata$r	SEGMENT DWORD USE32 PUBLIC 'CONST'
rdata$r	ENDS
;	COMDAT ??_R2?$ctype@D@std@@8
rdata$r	SEGMENT DWORD USE32 PUBLIC 'CONST'
rdata$r	ENDS
;	COMDAT ??_R1A@?0A@A@?$ctype@D@std@@8
rdata$r	SEGMENT DWORD USE32 PUBLIC 'CONST'
rdata$r	ENDS
;	COMDAT ??_G?$ctype@D@std@@MAEPAXI@Z
_TEXT	SEGMENT PARA USE32 PUBLIC 'CODE'
_TEXT	ENDS
;	COMDAT ??_S?$numpunct@_W@std@@6B@
CONST	SEGMENT DWORD USE32 PUBLIC 'CONST'
CONST	ENDS
;	COMDAT ??_S?$numpunct@D@std@@6B@
CONST	SEGMENT DWORD USE32 PUBLIC 'CONST'
CONST	ENDS
;	COMDAT _wmemmove
_TEXT	SEGMENT PARA USE32 PUBLIC 'CODE'
_TEXT	ENDS
;	COMDAT ?deallocate@?$allocator@_W@std@@QAEXPA_WI@Z
_TEXT	SEGMENT PARA USE32 PUBLIC 'CODE'
_TEXT	ENDS
;	COMDAT ??0?$allocator@_W@std@@QAE@ABV01@@Z
_TEXT	SEGMENT PARA USE32 PUBLIC 'CODE'
_TEXT	ENDS
;	COMDAT ??1CMemDC@@UAE@XZ
_TEXT	SEGMENT PARA USE32 PUBLIC 'CODE'
_TEXT	ENDS
;	COMDAT ??_7CMemDC@@6B@
CONST	SEGMENT DWORD USE32 PUBLIC 'CONST'
CONST	ENDS
;	COMDAT ??_R4CMemDC@@6B@
rdata$r	SEGMENT DWORD USE32 PUBLIC 'CONST'
rdata$r	ENDS
;	COMDAT ??_R0?AVCMemDC@@@8
_DATA	SEGMENT DWORD USE32 PUBLIC 'DATA'
_DATA	ENDS
;	COMDAT ??_R3CMemDC@@8
rdata$r	SEGMENT DWORD USE32 PUBLIC 'CONST'
rdata$r	ENDS
;	COMDAT ??_R2CMemDC@@8
rdata$r	SEGMENT DWORD USE32 PUBLIC 'CONST'
rdata$r	ENDS
;	COMDAT ??_R1A@?0A@A@CMemDC@@8
rdata$r	SEGMENT DWORD USE32 PUBLIC 'CONST'
rdata$r	ENDS
;	COMDAT ??_R1A@?0A@A@CDC@@8
rdata$r	SEGMENT DWORD USE32 PUBLIC 'CONST'
rdata$r	ENDS
;	COMDAT ??_R0?AVCDC@@@8
_DATA	SEGMENT DWORD USE32 PUBLIC 'DATA'
_DATA	ENDS
;	COMDAT ??_GCMemDC@@UAEPAXI@Z
_TEXT	SEGMENT PARA USE32 PUBLIC 'CODE'
_TEXT	ENDS
;	COMDAT ??0CMemDC@@QAE@PAVCDC@@ABVCRect@@@Z
_TEXT	SEGMENT PARA USE32 PUBLIC 'CODE'
_TEXT	ENDS
;	COMDAT ??_7PanePosition@ETSLayoutMgr@@6B@
CONST	SEGMENT DWORD USE32 PUBLIC 'CONST'
CONST	ENDS
;	COMDAT ??0CTraceFileAndLineInfo@ATL@@QAE@PBDH@Z
_TEXT	SEGMENT PARA USE32 PUBLIC 'CODE'
_TEXT	ENDS
;	COMDAT ??RCTraceFileAndLineInfo@ATL@@QBAXPBDZZ
_TEXT	SEGMENT PARA USE32 PUBLIC 'CODE'
_TEXT	ENDS
;	COMDAT ??_7PaneSplitter@ETSLayoutMgr@@6B@
CONST	SEGMENT DWORD USE32 PUBLIC 'CONST'
CONST	ENDS
;	COMDAT ??_7CMarkupArchive@@6B@
CONST	SEGMENT DWORD USE32 PUBLIC 'CONST'
CONST	ENDS
;	COMDAT __tcschr
_TEXT	SEGMENT PARA USE32 PUBLIC 'CODE'
_TEXT	ENDS
;	COMDAT __tcsnccmp
_TEXT	SEGMENT PARA USE32 PUBLIC 'CODE'
_TEXT	ENDS
;	COMDAT ??_7CMarkup@@6B@
CONST	SEGMENT DWORD USE32 PUBLIC 'CONST'
CONST	ENDS
;	COMDAT ??_7ETSLayoutMgr@@6B@
CONST	SEGMENT DWORD USE32 PUBLIC 'CONST'
CONST	ENDS
;	COMDAT ?IsLocked@CStringData@ATL@@QBE_NXZ
_TEXT	SEGMENT PARA USE32 PUBLIC 'CODE'
_TEXT	ENDS
;	COMDAT ?AddRef@CStringData@ATL@@QAEXXZ
_TEXT	SEGMENT PARA USE32 PUBLIC 'CODE'
_TEXT	ENDS
;	COMDAT ??_C@_09EEBKLCFA@nRefs?5?$DO?50?$AA@
CONST	SEGMENT DWORD USE32 PUBLIC 'CONST'
CONST	ENDS
;	COMDAT ??_7PaneBase@ETSLayoutMgr@@6B@
CONST	SEGMENT DWORD USE32 PUBLIC 'CONST'
CONST	ENDS
sxdata	SEGMENT DWORD USE32 'SXDATA'
sxdata	ENDS
FLAT	GROUP _DATA, CONST, _BSS
	ASSUME	CS: FLAT, DS: FLAT, SS: FLAT
endif

INCLUDELIB MSVCRTD
INCLUDELIB OLDNAMES

PUBLIC	?g_pfnGetThreadACP@ATL@@3P6GIXZA		; ATL::g_pfnGetThreadACP
PUBLIC	?_AtlGetThreadACPThunk@ATL@@YGIXZ		; ATL::_AtlGetThreadACPThunk
CONST	SEGMENT
$SG190473 DB	'.\src\LayoutMgr\ETSLayoutEx.cpp', 00H
$SG190537 DB	'.\src\LayoutMgr\ETSLayoutEx.cpp', 00H
$SG190538 DB	'fff%d', 0aH, 00H
	ORG $+1
$SG190599 DB	'.\src\LayoutMgr\ETSLayoutEx.cpp', 00H
$SG190624 DB	'.\src\LayoutMgr\ETSLayoutEx.cpp', 00H
$SG190661 DB	'.\src\LayoutMgr\ETSLayoutEx.cpp', 00H
$SG190742 DB	'.\src\LayoutMgr\ETSLayoutEx.cpp', 00H
$SG190790 DB	'SearchResult', 00H
	ORG $+3
$SG190848 DB	'.\src\LayoutMgr\ETSLayoutEx.cpp', 00H
$SG191377 DB	'D:\Program Files (x86)\Microsoft Visual Studio .NET 2003'
	DB	'\Vc7\atlmfc\include\afxtempl.h', 00H
	ORG $+1
$SG191391 DB	'D:\Program Files (x86)\Microsoft Visual Studio .NET 2003'
	DB	'\Vc7\atlmfc\include\afxtempl.h', 00H
	ORG $+1
$SG191407 DB	'with ', 00H
	ORG $+2
$SG191408 DB	' elements', 00H
	ORG $+2
$SG191410 DB	0aH, 00H
	ORG $+2
$SG191417 DB	0aH, 00H
	ORG $+6
$SG191425 DB	'D:\Program Files (x86)\Microsoft Visual Studio .NET 2003'
	DB	'\Vc7\atlmfc\include\afxtempl.h', 00H
	ORG $+1
$SG191427 DB	'D:\Program Files (x86)\Microsoft Visual Studio .NET 2003'
	DB	'\Vc7\atlmfc\include\afxtempl.h', 00H
	ORG $+1
$SG191430 DB	'D:\Program Files (x86)\Microsoft Visual Studio .NET 2003'
	DB	'\Vc7\atlmfc\include\afxtempl.h', 00H
	ORG $+1
$SG191432 DB	'D:\Program Files (x86)\Microsoft Visual Studio .NET 2003'
	DB	'\Vc7\atlmfc\include\afxtempl.h', 00H
	ORG $+1
$SG191434 DB	'D:\Program Files (x86)\Microsoft Visual Studio .NET 2003'
	DB	'\Vc7\atlmfc\include\afxtempl.h', 00H
	ORG $+1
$SG191437 DB	'D:\Program Files (x86)\Microsoft Visual Studio .NET 2003'
	DB	'\Vc7\atlmfc\include\afxtempl.h', 00H
	ORG $+1
$SG191459 DB	'D:\Program Files (x86)\Microsoft Visual Studio .NET 2003'
	DB	'\Vc7\atlmfc\include\afxtempl.h', 00H
	ORG $+1
$SG191473 DB	'D:\Program Files (x86)\Microsoft Visual Studio .NET 2003'
	DB	'\Vc7\atlmfc\include\afxtempl.h', 00H
	ORG $+1
$SG191489 DB	'with ', 00H
	ORG $+2
$SG191490 DB	' elements', 00H
	ORG $+2
$SG191492 DB	0aH, 00H
	ORG $+2
$SG191499 DB	0aH, 00H
	ORG $+6
$SG191507 DB	'D:\Program Files (x86)\Microsoft Visual Studio .NET 2003'
	DB	'\Vc7\atlmfc\include\afxtempl.h', 00H
	ORG $+1
$SG191509 DB	'D:\Program Files (x86)\Microsoft Visual Studio .NET 2003'
	DB	'\Vc7\atlmfc\include\afxtempl.h', 00H
	ORG $+1
$SG191512 DB	'D:\Program Files (x86)\Microsoft Visual Studio .NET 2003'
	DB	'\Vc7\atlmfc\include\afxtempl.h', 00H
	ORG $+1
$SG191514 DB	'D:\Program Files (x86)\Microsoft Visual Studio .NET 2003'
	DB	'\Vc7\atlmfc\include\afxtempl.h', 00H
	ORG $+1
$SG191516 DB	'D:\Program Files (x86)\Microsoft Visual Studio .NET 2003'
	DB	'\Vc7\atlmfc\include\afxtempl.h', 00H
	ORG $+1
$SG191519 DB	'D:\Program Files (x86)\Microsoft Visual Studio .NET 2003'
	DB	'\Vc7\atlmfc\include\afxtempl.h', 00H
	ORG $+1
$SG191529 DB	'D:\Program Files (x86)\Microsoft Visual Studio .NET 2003'
	DB	'\Vc7\atlmfc\include\afxtempl.h', 00H
	ORG $+1
$SG191583 DB	'D:\Program Files (x86)\Microsoft Visual Studio .NET 2003'
	DB	'\Vc7\atlmfc\include\afxtempl.h', 00H
	ORG $+1
$SG191585 DB	'D:\Program Files (x86)\Microsoft Visual Studio .NET 2003'
	DB	'\Vc7\atlmfc\include\afxtempl.h', 00H
	ORG $+1
$SG191589 DB	'D:\Program Files (x86)\Microsoft Visual Studio .NET 2003'
	DB	'\Vc7\atlmfc\include\afxtempl.h', 00H
	ORG $+1
$SG191599 DB	'D:\Program Files (x86)\Microsoft Visual Studio .NET 2003'
	DB	'\Vc7\atlmfc\include\afxtempl.h', 00H
	ORG $+1
$SG191602 DB	'D:\Program Files (x86)\Microsoft Visual Studio .NET 2003'
	DB	'\Vc7\atlmfc\include\afxtempl.h', 00H
	ORG $+1
$SG191619 DB	'D:\Program Files (x86)\Microsoft Visual Studio .NET 2003'
	DB	'\Vc7\atlmfc\include\afxtempl.h', 00H
	ORG $+1
$SG191628 DB	'D:\Program Files (x86)\Microsoft Visual Studio .NET 2003'
	DB	'\Vc7\atlmfc\include\afxtempl.h', 00H
	ORG $+1
$SG191632 DB	'D:\Program Files (x86)\Microsoft Visual Studio .NET 2003'
	DB	'\Vc7\atlmfc\include\afxtempl.h', 00H
	ORG $+1
$SG191672 DB	'with ', 00H
	ORG $+2
$SG191673 DB	' elements', 00H
	ORG $+2
$SG191687 DB	0aH, 09H, '[', 00H
$SG191694 DB	'] = ', 00H
	ORG $+3
$SG191695 DB	0aH, 00H
	ORG $+6
$SG191704 DB	'D:\Program Files (x86)\Microsoft Visual Studio .NET 2003'
	DB	'\Vc7\atlmfc\include\afxtempl.h', 00H
	ORG $+1
$SG191706 DB	'D:\Program Files (x86)\Microsoft Visual Studio .NET 2003'
	DB	'\Vc7\atlmfc\include\afxtempl.h', 00H
	ORG $+1
$SG191723 DB	'D:\Program Files (x86)\Microsoft Visual Studio .NET 2003'
	DB	'\Vc7\atlmfc\include\afxtempl.h', 00H
	ORG $+1
$SG191737 DB	'D:\Program Files (x86)\Microsoft Visual Studio .NET 2003'
	DB	'\Vc7\atlmfc\include\afxtempl.h', 00H
	ORG $+1
$SG191753 DB	'with ', 00H
	ORG $+2
$SG191754 DB	' elements', 00H
	ORG $+2
$SG191756 DB	0aH, 00H
	ORG $+2
$SG191763 DB	0aH, 00H
	ORG $+6
$SG191771 DB	'D:\Program Files (x86)\Microsoft Visual Studio .NET 2003'
	DB	'\Vc7\atlmfc\include\afxtempl.h', 00H
	ORG $+1
$SG191773 DB	'D:\Program Files (x86)\Microsoft Visual Studio .NET 2003'
	DB	'\Vc7\atlmfc\include\afxtempl.h', 00H
	ORG $+1
$SG191776 DB	'D:\Program Files (x86)\Microsoft Visual Studio .NET 2003'
	DB	'\Vc7\atlmfc\include\afxtempl.h', 00H
	ORG $+1
$SG191778 DB	'D:\Program Files (x86)\Microsoft Visual Studio .NET 2003'
	DB	'\Vc7\atlmfc\include\afxtempl.h', 00H
	ORG $+1
$SG191780 DB	'D:\Program Files (x86)\Microsoft Visual Studio .NET 2003'
	DB	'\Vc7\atlmfc\include\afxtempl.h', 00H
	ORG $+1
$SG191783 DB	'D:\Program Files (x86)\Microsoft Visual Studio .NET 2003'
	DB	'\Vc7\atlmfc\include\afxtempl.h', 00H
	ORG $+1
$SG191825 DB	'D:\Program Files (x86)\Microsoft Visual Studio .NET 2003'
	DB	'\Vc7\atlmfc\include\afxtempl.h', 00H
	ORG $+1
$SG191827 DB	'D:\Program Files (x86)\Microsoft Visual Studio .NET 2003'
	DB	'\Vc7\atlmfc\include\afxtempl.h', 00H
	ORG $+1
$SG191842 DB	'D:\Program Files (x86)\Microsoft Visual Studio .NET 2003'
	DB	'\Vc7\atlmfc\include\afxtempl.h', 00H
	ORG $+1
$SG191849 DB	'D:\Program Files (x86)\Microsoft Visual Studio .NET 2003'
	DB	'\Vc7\atlmfc\include\afxtempl.h', 00H
	ORG $+1
$SG191885 DB	'D:\Program Files (x86)\Microsoft Visual Studio .NET 2003'
	DB	'\Vc7\atlmfc\include\afxtempl.h', 00H
	ORG $+1
$SG191889 DB	'D:\Program Files (x86)\Microsoft Visual Studio .NET 2003'
	DB	'\Vc7\atlmfc\include\afxtempl.h', 00H
	ORG $+1
$SG191899 DB	'D:\Program Files (x86)\Microsoft Visual Studio .NET 2003'
	DB	'\Vc7\atlmfc\include\afxtempl.h', 00H
	ORG $+1
$SG191916 DB	'D:\Program Files (x86)\Microsoft Visual Studio .NET 2003'
	DB	'\Vc7\atlmfc\include\afxtempl.h', 00H
	ORG $+1
$SG191941 DB	'D:\Program Files (x86)\Microsoft Visual Studio .NET 2003'
	DB	'\Vc7\atlmfc\include\afxtempl.h', 00H
	ORG $+1
$SG191949 DB	'D:\Program Files (x86)\Microsoft Visual Studio .NET 2003'
	DB	'\Vc7\atlmfc\include\afxtempl.h', 00H
	ORG $+1
$SG191951 DB	'D:\Program Files (x86)\Microsoft Visual Studio .NET 2003'
	DB	'\Vc7\atlmfc\include\afxtempl.h', 00H
	ORG $+1
$SG191966 DB	'D:\Program Files (x86)\Microsoft Visual Studio .NET 2003'
	DB	'\Vc7\atlmfc\include\afxtempl.h', 00H
	ORG $+1
$SG191973 DB	'D:\Program Files (x86)\Microsoft Visual Studio .NET 2003'
	DB	'\Vc7\atlmfc\include\afxtempl.h', 00H
	ORG $+1
$SG192015 DB	'D:\Program Files (x86)\Microsoft Visual Studio .NET 2003'
	DB	'\Vc7\atlmfc\include\afxtempl.h', 00H
	ORG $+1
$SG192019 DB	'D:\Program Files (x86)\Microsoft Visual Studio .NET 2003'
	DB	'\Vc7\atlmfc\include\afxtempl.h', 00H
	ORG $+1
$SG192029 DB	'D:\Program Files (x86)\Microsoft Visual Studio .NET 2003'
	DB	'\Vc7\atlmfc\include\afxtempl.h', 00H
	ORG $+1
$SG192058 DB	'D:\Program Files (x86)\Microsoft Visual Studio .NET 2003'
	DB	'\Vc7\atlmfc\include\afxtempl.h', 00H
	ORG $+1
$SG192083 DB	'D:\Program Files (x86)\Microsoft Visual Studio .NET 2003'
	DB	'\Vc7\atlmfc\include\afxtempl.h', 00H
	ORG $+1
$SG192092 DB	'D:\Program Files (x86)\Microsoft Visual Studio .NET 2003'
	DB	'\Vc7\atlmfc\include\afxtempl.h', 00H
	ORG $+1
$SG192105 DB	'D:\Program Files (x86)\Microsoft Visual Studio .NET 2003'
	DB	'\Vc7\atlmfc\include\afxtempl.h', 00H
	ORG $+1
$SG192142 DB	'D:\Program Files (x86)\Microsoft Visual Studio .NET 2003'
	DB	'\Vc7\atlmfc\include\afxtempl.h', 00H
	ORG $+1
$SG192150 DB	'D:\Program Files (x86)\Microsoft Visual Studio .NET 2003'
	DB	'\Vc7\atlmfc\include\afxtempl.h', 00H
	ORG $+1
$SG192152 DB	'D:\Program Files (x86)\Microsoft Visual Studio .NET 2003'
	DB	'\Vc7\atlmfc\include\afxtempl.h', 00H
	ORG $+1
$SG192167 DB	'D:\Program Files (x86)\Microsoft Visual Studio .NET 2003'
	DB	'\Vc7\atlmfc\include\afxtempl.h', 00H
	ORG $+1
$SG192174 DB	'D:\Program Files (x86)\Microsoft Visual Studio .NET 2003'
	DB	'\Vc7\atlmfc\include\afxtempl.h', 00H
	ORG $+1
$SG192216 DB	'D:\Program Files (x86)\Microsoft Visual Studio .NET 2003'
	DB	'\Vc7\atlmfc\include\afxtempl.h', 00H
	ORG $+1
$SG192220 DB	'D:\Program Files (x86)\Microsoft Visual Studio .NET 2003'
	DB	'\Vc7\atlmfc\include\afxtempl.h', 00H
	ORG $+1
$SG192230 DB	'D:\Program Files (x86)\Microsoft Visual Studio .NET 2003'
	DB	'\Vc7\atlmfc\include\afxtempl.h', 00H
	ORG $+1
$SG192258 DB	'D:\Program Files (x86)\Microsoft Visual Studio .NET 2003'
	DB	'\Vc7\atlmfc\include\afxtempl.h', 00H
	ORG $+1
$SG192283 DB	'D:\Program Files (x86)\Microsoft Visual Studio .NET 2003'
	DB	'\Vc7\atlmfc\include\afxtempl.h', 00H
	ORG $+1
$SG192297 DB	'D:\Program Files (x86)\Microsoft Visual Studio .NET 2003'
	DB	'\Vc7\atlmfc\include\afxtempl.h', 00H
	ORG $+1
$SG192299 DB	'D:\Program Files (x86)\Microsoft Visual Studio .NET 2003'
	DB	'\Vc7\atlmfc\include\afxtempl.h', 00H
	ORG $+1
$SG192301 DB	'D:\Program Files (x86)\Microsoft Visual Studio .NET 2003'
	DB	'\Vc7\atlmfc\include\afxtempl.h', 00H
	ORG $+1
$SG192326 DB	'D:\Program Files (x86)\Microsoft Visual Studio .NET 2003'
	DB	'\Vc7\atlmfc\include\afxtempl.h', 00H
	ORG $+1
$SG192331 DB	'D:\Program Files (x86)\Microsoft Visual Studio .NET 2003'
	DB	'\Vc7\atlmfc\include\afxtempl.h', 00H
	ORG $+1
$SG192340 DB	'D:\Program Files (x86)\Microsoft Visual Studio .NET 2003'
	DB	'\Vc7\atlmfc\include\afxtempl.h', 00H
	ORG $+1
$SG192343 DB	'D:\Program Files (x86)\Microsoft Visual Studio .NET 2003'
	DB	'\Vc7\atlmfc\include\afxtempl.h', 00H
CONST	ENDS
;	COMDAT ?g_pfnGetThreadACP@ATL@@3P6GIXZA
_DATA	SEGMENT
?g_pfnGetThreadACP@ATL@@3P6GIXZA DD FLAT:?_AtlGetThreadACPThunk@ATL@@YGIXZ ; ATL::g_pfnGetThreadACP
_DATA	ENDS
PUBLIC	?InterlockedExchangePointer@@YGPAXPAPAXPAX@Z	; InterlockedExchangePointer
PUBLIC	?_AtlGetThreadACPFake@ATL@@YGIXZ		; ATL::_AtlGetThreadACPFake
PUBLIC	?_AtlGetThreadACPReal@ATL@@YGIXZ		; ATL::_AtlGetThreadACPReal
EXTRN	__imp__GetVersionExA@4:NEAR
EXTRN	__RTC_InitBase:NEAR
EXTRN	__RTC_Shutdown:NEAR
EXTRN	__RTC_CheckEsp:NEAR
EXTRN	___security_cookie:DWORD
EXTRN	@_RTC_CheckStackVars@8:NEAR
EXTRN	@__security_check_cookie@4:NEAR
;	COMDAT rtc$IMZ
; File d:\program files (x86)\microsoft visual studio .net 2003\vc7\atlmfc\include\atlconv.h
rtc$IMZ	SEGMENT
__RTC_InitBase.rtc$IMZ DD FLAT:__RTC_InitBase
rtc$IMZ	ENDS
;	COMDAT rtc$TMZ
rtc$TMZ	SEGMENT
__RTC_Shutdown.rtc$TMZ DD FLAT:__RTC_Shutdown
; Function compile flags: /Odt /RTCsu
rtc$TMZ	ENDS
;	COMDAT ?_AtlGetThreadACPThunk@ATL@@YGIXZ
_TEXT	SEGMENT
_pfnGetThreadACP$ = -164				; size = 4
_ver$ = -156						; size = 148
__$ArrayPad$ = -4					; size = 4
__$ReturnAddr$ = 4					; size = 4
?_AtlGetThreadACPThunk@ATL@@YGIXZ PROC NEAR		; ATL::_AtlGetThreadACPThunk, COMDAT

; 134  : {

  00000	55		 push	 ebp
  00001	8b ec		 mov	 ebp, esp
  00003	81 ec a4 00 00
	00		 sub	 esp, 164		; 000000a4H
  00009	56		 push	 esi
  0000a	57		 push	 edi
  0000b	8d bd 5c ff ff
	ff		 lea	 edi, DWORD PTR [ebp-164]
  00011	b9 29 00 00 00	 mov	 ecx, 41			; 00000029H
  00016	b8 cc cc cc cc	 mov	 eax, -858993460		; ccccccccH
  0001b	f3 ab		 rep stosd
  0001d	a1 00 00 00 00	 mov	 eax, DWORD PTR ___security_cookie
  00022	89 45 fc	 mov	 DWORD PTR __$ArrayPad$[ebp], eax

; 135  : 	OSVERSIONINFO ver;
; 136  : 	ATLGETTHREADACP pfnGetThreadACP;
; 137  : 
; 138  : 	ver.dwOSVersionInfoSize = sizeof( ver );

  00025	c7 85 64 ff ff
	ff 94 00 00 00	 mov	 DWORD PTR _ver$[ebp], 148 ; 00000094H

; 139  : 	::GetVersionEx( &ver );

  0002f	8b f4		 mov	 esi, esp
  00031	8d 85 64 ff ff
	ff		 lea	 eax, DWORD PTR _ver$[ebp]
  00037	50		 push	 eax
  00038	ff 15 00 00 00
	00		 call	 DWORD PTR __imp__GetVersionExA@4
  0003e	3b f4		 cmp	 esi, esp
  00040	e8 00 00 00 00	 call	 __RTC_CheckEsp

; 140  : 	if( (ver.dwPlatformId == VER_PLATFORM_WIN32_NT) && (ver.dwMajorVersion >= 5) )

  00045	83 bd 74 ff ff
	ff 02		 cmp	 DWORD PTR _ver$[ebp+16], 2
  0004c	75 15		 jne	 SHORT $L24163
  0004e	83 bd 68 ff ff
	ff 05		 cmp	 DWORD PTR _ver$[ebp+4], 5
  00055	72 0c		 jb	 SHORT $L24163

; 141  : 	{
; 142  : 		// On Win2K, CP_THREAD_ACP is supported
; 143  : 		pfnGetThreadACP = _AtlGetThreadACPReal;

  00057	c7 85 5c ff ff
	ff 00 00 00 00	 mov	 DWORD PTR _pfnGetThreadACP$[ebp], OFFSET FLAT:?_AtlGetThreadACPReal@ATL@@YGIXZ ; ATL::_AtlGetThreadACPReal

; 144  : 	}
; 145  : 	else

  00061	eb 0a		 jmp	 SHORT $L24164
$L24163:

; 146  : 	{
; 147  : 		pfnGetThreadACP = _AtlGetThreadACPFake;

  00063	c7 85 5c ff ff
	ff 00 00 00 00	 mov	 DWORD PTR _pfnGetThreadACP$[ebp], OFFSET FLAT:?_AtlGetThreadACPFake@ATL@@YGIXZ ; ATL::_AtlGetThreadACPFake
$L24164:

; 148  : 	}
; 149  : 	InterlockedExchangePointer( reinterpret_cast< void** >(&g_pfnGetThreadACP), pfnGetThreadACP );

  0006d	8b 8d 5c ff ff
	ff		 mov	 ecx, DWORD PTR _pfnGetThreadACP$[ebp]
  00073	51		 push	 ecx
  00074	68 00 00 00 00	 push	 OFFSET FLAT:?g_pfnGetThreadACP@ATL@@3P6GIXZA ; ATL::g_pfnGetThreadACP
  00079	e8 00 00 00 00	 call	 ?InterlockedExchangePointer@@YGPAXPAPAXPAX@Z ; InterlockedExchangePointer

; 150  : 
; 151  : 	return( g_pfnGetThreadACP() );

  0007e	8b f4		 mov	 esi, esp
  00080	ff 15 00 00 00
	00		 call	 DWORD PTR ?g_pfnGetThreadACP@ATL@@3P6GIXZA ; ATL::g_pfnGetThreadACP
  00086	3b f4		 cmp	 esi, esp
  00088	e8 00 00 00 00	 call	 __RTC_CheckEsp

; 152  : }

  0008d	52		 push	 edx
  0008e	8b cd		 mov	 ecx, ebp
  00090	50		 push	 eax
  00091	8d 15 00 00 00
	00		 lea	 edx, DWORD PTR $L193033
  00097	e8 00 00 00 00	 call	 @_RTC_CheckStackVars@8
  0009c	58		 pop	 eax
  0009d	5a		 pop	 edx
  0009e	8b 4d fc	 mov	 ecx, DWORD PTR __$ArrayPad$[ebp]
  000a1	e8 00 00 00 00	 call	 @__security_check_cookie@4
  000a6	5f		 pop	 edi
  000a7	5e		 pop	 esi
  000a8	81 c4 a4 00 00
	00		 add	 esp, 164		; 000000a4H
  000ae	3b ec		 cmp	 ebp, esp
  000b0	e8 00 00 00 00	 call	 __RTC_CheckEsp
  000b5	8b e5		 mov	 esp, ebp
  000b7	5d		 pop	 ebp
  000b8	c3		 ret	 0
$L193033:
  000b9	01 00 00 00	 DD	 1
  000bd	00 00 00 00	 DD	 $L193032
$L193032:
  000c1	64 ff ff ff	 DD	 -156			; ffffff64H
  000c5	94 00 00 00	 DD	 148			; 00000094H
  000c9	00 00 00 00	 DD	 $L193029
$L193029:
  000cd	76		 DB	 118			; 00000076H
  000ce	65		 DB	 101			; 00000065H
  000cf	72		 DB	 114			; 00000072H
  000d0	00		 DB	 0
?_AtlGetThreadACPThunk@ATL@@YGIXZ ENDP			; ATL::_AtlGetThreadACPThunk
_TEXT	ENDS
EXTRN	__imp__InterlockedExchange@8:NEAR
; Function compile flags: /Odt /RTCsu
;	COMDAT ?InterlockedExchangePointer@@YGPAXPAPAXPAX@Z
_TEXT	SEGMENT
_pp$ = 8						; size = 4
_pNew$ = 12						; size = 4
?InterlockedExchangePointer@@YGPAXPAPAXPAX@Z PROC NEAR	; InterlockedExchangePointer, COMDAT

; 91   : {

  00000	55		 push	 ebp
  00001	8b ec		 mov	 ebp, esp
  00003	56		 push	 esi

; 92   : 	return( reinterpret_cast<void*>(static_cast<LONG_PTR>(::InterlockedExchange(reinterpret_cast<LONG*>(pp), static_cast<LONG>(reinterpret_cast<LONG_PTR>(pNew))))) );

  00004	8b f4		 mov	 esi, esp
  00006	8b 45 0c	 mov	 eax, DWORD PTR _pNew$[ebp]
  00009	50		 push	 eax
  0000a	8b 4d 08	 mov	 ecx, DWORD PTR _pp$[ebp]
  0000d	51		 push	 ecx
  0000e	ff 15 00 00 00
	00		 call	 DWORD PTR __imp__InterlockedExchange@8
  00014	3b f4		 cmp	 esi, esp
  00016	e8 00 00 00 00	 call	 __RTC_CheckEsp

; 93   : }

  0001b	5e		 pop	 esi
  0001c	3b ec		 cmp	 ebp, esp
  0001e	e8 00 00 00 00	 call	 __RTC_CheckEsp
  00023	5d		 pop	 ebp
  00024	c2 08 00	 ret	 8
?InterlockedExchangePointer@@YGPAXPAPAXPAX@Z ENDP	; InterlockedExchangePointer
_TEXT	ENDS
EXTRN	__imp__GetACP@0:NEAR
EXTRN	__imp__GetLocaleInfoA@16:NEAR
EXTRN	__imp__GetThreadLocale@0:NEAR
; Function compile flags: /Odt /RTCsu
;	COMDAT ?_AtlGetThreadACPFake@ATL@@YGIXZ
_TEXT	SEGMENT
_pch$24151 = -32					; size = 4
_szACP$ = -24						; size = 7
_lcidThread$ = -12					; size = 4
_nACP$ = -8						; size = 4
__$ArrayPad$ = -4					; size = 4
__$ReturnAddr$ = 4					; size = 4
?_AtlGetThreadACPFake@ATL@@YGIXZ PROC NEAR		; ATL::_AtlGetThreadACPFake, COMDAT

; 101  : {

  00000	55		 push	 ebp
  00001	8b ec		 mov	 ebp, esp
  00003	83 ec 20	 sub	 esp, 32			; 00000020H
  00006	56		 push	 esi
  00007	b8 cc cc cc cc	 mov	 eax, -858993460		; ccccccccH
  0000c	89 45 e0	 mov	 DWORD PTR [ebp-32], eax
  0000f	89 45 e4	 mov	 DWORD PTR [ebp-28], eax
  00012	89 45 e8	 mov	 DWORD PTR [ebp-24], eax
  00015	89 45 ec	 mov	 DWORD PTR [ebp-20], eax
  00018	89 45 f0	 mov	 DWORD PTR [ebp-16], eax
  0001b	89 45 f4	 mov	 DWORD PTR [ebp-12], eax
  0001e	89 45 f8	 mov	 DWORD PTR [ebp-8], eax
  00021	89 45 fc	 mov	 DWORD PTR [ebp-4], eax
  00024	a1 00 00 00 00	 mov	 eax, DWORD PTR ___security_cookie
  00029	89 45 fc	 mov	 DWORD PTR __$ArrayPad$[ebp], eax

; 102  : 	UINT nACP = 0;

  0002c	c7 45 f8 00 00
	00 00		 mov	 DWORD PTR _nACP$[ebp], 0

; 103  : 
; 104  : 	LCID lcidThread = ::GetThreadLocale();

  00033	8b f4		 mov	 esi, esp
  00035	ff 15 00 00 00
	00		 call	 DWORD PTR __imp__GetThreadLocale@0
  0003b	3b f4		 cmp	 esi, esp
  0003d	e8 00 00 00 00	 call	 __RTC_CheckEsp
  00042	89 45 f4	 mov	 DWORD PTR _lcidThread$[ebp], eax

; 105  : 
; 106  : 	char szACP[7];
; 107  : 	// GetLocaleInfoA will fail for a Unicode-only LCID, but those are only supported on 
; 108  : 	// Windows 2000.  Since Windows 2000 supports CP_THREAD_ACP, this code path is never
; 109  : 	// executed on Windows 2000.
; 110  : 	if (::GetLocaleInfoA(lcidThread, LOCALE_IDEFAULTANSICODEPAGE, szACP, 7) != 0)

  00045	8b f4		 mov	 esi, esp
  00047	6a 07		 push	 7
  00049	8d 45 e8	 lea	 eax, DWORD PTR _szACP$[ebp]
  0004c	50		 push	 eax
  0004d	68 04 10 00 00	 push	 4100			; 00001004H
  00052	8b 4d f4	 mov	 ecx, DWORD PTR _lcidThread$[ebp]
  00055	51		 push	 ecx
  00056	ff 15 00 00 00
	00		 call	 DWORD PTR __imp__GetLocaleInfoA@16
  0005c	3b f4		 cmp	 esi, esp
  0005e	e8 00 00 00 00	 call	 __RTC_CheckEsp
  00063	85 c0		 test	 eax, eax
  00065	74 34		 je	 SHORT $L24150

; 111  : 	{
; 112  : 		char* pch = szACP;

  00067	8d 55 e8	 lea	 edx, DWORD PTR _szACP$[ebp]
  0006a	89 55 e0	 mov	 DWORD PTR _pch$24151[ebp], edx
$L24153:

; 113  : 		while (*pch != '\0')

  0006d	8b 45 e0	 mov	 eax, DWORD PTR _pch$24151[ebp]
  00070	0f be 08	 movsx	 ecx, BYTE PTR [eax]
  00073	85 c9		 test	 ecx, ecx
  00075	74 24		 je	 SHORT $L24150

; 114  : 		{
; 115  : 			nACP *= 10;

  00077	8b 55 f8	 mov	 edx, DWORD PTR _nACP$[ebp]
  0007a	6b d2 0a	 imul	 edx, 10			; 0000000aH
  0007d	89 55 f8	 mov	 DWORD PTR _nACP$[ebp], edx

; 116  : 			nACP += *pch++ - '0';

  00080	8b 45 e0	 mov	 eax, DWORD PTR _pch$24151[ebp]
  00083	0f be 08	 movsx	 ecx, BYTE PTR [eax]
  00086	8b 55 f8	 mov	 edx, DWORD PTR _nACP$[ebp]
  00089	8d 44 0a d0	 lea	 eax, DWORD PTR [edx+ecx-48]
  0008d	89 45 f8	 mov	 DWORD PTR _nACP$[ebp], eax
  00090	8b 4d e0	 mov	 ecx, DWORD PTR _pch$24151[ebp]
  00093	83 c1 01	 add	 ecx, 1
  00096	89 4d e0	 mov	 DWORD PTR _pch$24151[ebp], ecx

; 117  : 		}

  00099	eb d2		 jmp	 SHORT $L24153
$L24150:

; 118  : 	}
; 119  : 	// Use the Default ANSI Code Page if we were unable to get the thread ACP or if one does not exist.
; 120  : 	if (nACP == 0)

  0009b	83 7d f8 00	 cmp	 DWORD PTR _nACP$[ebp], 0
  0009f	75 12		 jne	 SHORT $L24155

; 121  : 		nACP = ::GetACP();

  000a1	8b f4		 mov	 esi, esp
  000a3	ff 15 00 00 00
	00		 call	 DWORD PTR __imp__GetACP@0
  000a9	3b f4		 cmp	 esi, esp
  000ab	e8 00 00 00 00	 call	 __RTC_CheckEsp
  000b0	89 45 f8	 mov	 DWORD PTR _nACP$[ebp], eax
$L24155:

; 122  : 
; 123  : 	return nACP;

  000b3	8b 45 f8	 mov	 eax, DWORD PTR _nACP$[ebp]

; 124  : }

  000b6	52		 push	 edx
  000b7	8b cd		 mov	 ecx, ebp
  000b9	50		 push	 eax
  000ba	8d 15 00 00 00
	00		 lea	 edx, DWORD PTR $L193044
  000c0	e8 00 00 00 00	 call	 @_RTC_CheckStackVars@8
  000c5	58		 pop	 eax
  000c6	5a		 pop	 edx
  000c7	8b 4d fc	 mov	 ecx, DWORD PTR __$ArrayPad$[ebp]
  000ca	e8 00 00 00 00	 call	 @__security_check_cookie@4
  000cf	5e		 pop	 esi
  000d0	83 c4 20	 add	 esp, 32			; 00000020H
  000d3	3b ec		 cmp	 ebp, esp
  000d5	e8 00 00 00 00	 call	 __RTC_CheckEsp
  000da	8b e5		 mov	 esp, ebp
  000dc	5d		 pop	 ebp
  000dd	c3		 ret	 0
$L193044:
  000de	01 00 00 00	 DD	 1
  000e2	00 00 00 00	 DD	 $L193043
$L193043:
  000e6	e8 ff ff ff	 DD	 -24			; ffffffe8H
  000ea	07 00 00 00	 DD	 7
  000ee	00 00 00 00	 DD	 $L193041
$L193041:
  000f2	73		 DB	 115			; 00000073H
  000f3	7a		 DB	 122			; 0000007aH
  000f4	41		 DB	 65			; 00000041H
  000f5	43		 DB	 67			; 00000043H
  000f6	50		 DB	 80			; 00000050H
  000f7	00		 DB	 0
?_AtlGetThreadACPFake@ATL@@YGIXZ ENDP			; ATL::_AtlGetThreadACPFake
; Function compile flags: /Odt /RTCsu
_TEXT	ENDS
;	COMDAT ?_AtlGetThreadACPReal@ATL@@YGIXZ
_TEXT	SEGMENT
?_AtlGetThreadACPReal@ATL@@YGIXZ PROC NEAR		; ATL::_AtlGetThreadACPReal, COMDAT

; 127  : {

  00000	55		 push	 ebp
  00001	8b ec		 mov	 ebp, esp

; 128  : 	return( CP_THREAD_ACP );

  00003	b8 03 00 00 00	 mov	 eax, 3

; 129  : }

  00008	5d		 pop	 ebp
  00009	c3		 ret	 0
?_AtlGetThreadACPReal@ATL@@YGIXZ ENDP			; ATL::_AtlGetThreadACPReal
_TEXT	ENDS
PUBLIC	?paneSpl@ETSLayoutMgr@@QAE?AVCPane@1@PAVETSSplitter@@W4layOrientation@1@W4layResizeMode@1@HHHHHH@Z ; ETSLayoutMgr::paneSpl
PUBLIC	??0PaneSplitter@ETSLayoutMgr@@QAE@PAVETSSplitter@@PAV1@W4layOrientation@1@@Z ; ETSLayoutMgr::PaneSplitter::PaneSplitter
EXTRN	??2@YAPAXI@Z:NEAR				; operator new
EXTRN	??3@YAXPAX@Z:NEAR				; operator delete
EXTRN	__except_list:DWORD
EXTRN	___CxxFrameHandler:NEAR
EXTRN	??0CPane@ETSLayoutMgr@@QAE@PAVPane@1@@Z:NEAR	; ETSLayoutMgr::CPane::CPane
xdata$x	SEGMENT
$T193061 DD	0ffffffffH
	DD	FLAT:$L193051
$T193058 DD	019930520H
	DD	01H
	DD	FLAT:$T193061
	DD	2 DUP(00H)
	DD	2 DUP(00H)
; Function compile flags: /Odt /RTCsu
; File d:\boxgit\playbox\playbox\dev\prj\playbox\src\layoutmgr\etslayoutex.cpp
xdata$x	ENDS
_TEXT	SEGMENT
tv74 = -36						; size = 4
$T193053 = -32						; size = 4
$T193048 = -28						; size = 4
$T193047 = -24						; size = 4
_pPane$ = -20						; size = 4
_this$ = -16						; size = 4
__$EHRec$ = -12						; size = 12
___$ReturnUdt$ = 8					; size = 4
_pSpl$ = 12						; size = 4
_orientation$ = 16					; size = 4
_modeResize$ = 20					; size = 4
_nClosedPos$ = 24					; size = 4
_nClosedOri$ = 28					; size = 4
_nSize$ = 32						; size = 4
_nOpenSize$ = 36					; size = 4
_nHideCloseBtn$ = 40					; size = 4
_nSlim$ = 44						; size = 4
?paneSpl@ETSLayoutMgr@@QAE?AVCPane@1@PAVETSSplitter@@W4layOrientation@1@W4layResizeMode@1@HHHHHH@Z PROC NEAR ; ETSLayoutMgr::paneSpl
; _this$ = ecx

; 15   : {

  00000	55		 push	 ebp
  00001	8b ec		 mov	 ebp, esp
  00003	6a ff		 push	 -1
  00005	68 00 00 00 00	 push	 __ehhandler$?paneSpl@ETSLayoutMgr@@QAE?AVCPane@1@PAVETSSplitter@@W4layOrientation@1@W4layResizeMode@1@HHHHHH@Z
  0000a	64 a1 00 00 00
	00		 mov	 eax, DWORD PTR fs:__except_list
  00010	50		 push	 eax
  00011	64 89 25 00 00
	00 00		 mov	 DWORD PTR fs:__except_list, esp
  00018	83 ec 18	 sub	 esp, 24			; 00000018H
  0001b	b8 cc cc cc cc	 mov	 eax, -858993460		; ccccccccH
  00020	89 45 dc	 mov	 DWORD PTR [ebp-36], eax
  00023	89 45 e0	 mov	 DWORD PTR [ebp-32], eax
  00026	89 45 e4	 mov	 DWORD PTR [ebp-28], eax
  00029	89 45 e8	 mov	 DWORD PTR [ebp-24], eax
  0002c	89 45 ec	 mov	 DWORD PTR [ebp-20], eax
  0002f	89 45 f0	 mov	 DWORD PTR [ebp-16], eax
  00032	89 4d f0	 mov	 DWORD PTR _this$[ebp], ecx
  00035	c7 45 e0 00 00
	00 00		 mov	 DWORD PTR $T193053[ebp], 0

; 16   : 	ETSLayoutMgr::PaneSplitter* pPane = new PaneSplitter ( pSpl, this, orientation);

  0003c	68 98 00 00 00	 push	 152			; 00000098H
  00041	e8 00 00 00 00	 call	 ??2@YAPAXI@Z		; operator new
  00046	83 c4 04	 add	 esp, 4
  00049	89 45 e4	 mov	 DWORD PTR $T193048[ebp], eax
  0004c	c7 45 fc 00 00
	00 00		 mov	 DWORD PTR __$EHRec$[ebp+8], 0
  00053	83 7d e4 00	 cmp	 DWORD PTR $T193048[ebp], 0
  00057	74 19		 je	 SHORT $L193049
  00059	8b 45 10	 mov	 eax, DWORD PTR _orientation$[ebp]
  0005c	50		 push	 eax
  0005d	8b 4d f0	 mov	 ecx, DWORD PTR _this$[ebp]
  00060	51		 push	 ecx
  00061	8b 55 0c	 mov	 edx, DWORD PTR _pSpl$[ebp]
  00064	52		 push	 edx
  00065	8b 4d e4	 mov	 ecx, DWORD PTR $T193048[ebp]
  00068	e8 00 00 00 00	 call	 ??0PaneSplitter@ETSLayoutMgr@@QAE@PAVETSSplitter@@PAV1@W4layOrientation@1@@Z ; ETSLayoutMgr::PaneSplitter::PaneSplitter
  0006d	89 45 dc	 mov	 DWORD PTR tv74[ebp], eax
  00070	eb 07		 jmp	 SHORT $L193050
$L193049:
  00072	c7 45 dc 00 00
	00 00		 mov	 DWORD PTR tv74[ebp], 0
$L193050:
  00079	8b 45 dc	 mov	 eax, DWORD PTR tv74[ebp]
  0007c	89 45 e8	 mov	 DWORD PTR $T193047[ebp], eax
  0007f	c7 45 fc ff ff
	ff ff		 mov	 DWORD PTR __$EHRec$[ebp+8], -1
  00086	8b 4d e8	 mov	 ecx, DWORD PTR $T193047[ebp]
  00089	89 4d ec	 mov	 DWORD PTR _pPane$[ebp], ecx

; 17   : 
; 18   : 	//pPane->m_sizeSecondary = (isClosed)? nClosedPos:nSplOpenSize;
; 19   : 
; 20   : 	pPane->m_sizeSecondary = nSize;

  0008c	8b 55 ec	 mov	 edx, DWORD PTR _pPane$[ebp]
  0008f	8b 45 20	 mov	 eax, DWORD PTR _nSize$[ebp]
  00092	89 42 78	 mov	 DWORD PTR [edx+120], eax

; 21   : 	//if(orientation == VERTICAL)
; 22   : 	pPane->m_modeResize    = modeResize;

  00095	8b 4d ec	 mov	 ecx, DWORD PTR _pPane$[ebp]
  00098	8b 55 14	 mov	 edx, DWORD PTR _modeResize$[ebp]
  0009b	89 51 18	 mov	 DWORD PTR [ecx+24], edx

; 23   : //	pPane->SetClosed(nSize == nClosedPos);
; 24   : 
; 25   : 	if(orientation == VERTICAL)

  0009e	83 7d 10 01	 cmp	 DWORD PTR _orientation$[ebp], 1
  000a2	75 09		 jne	 SHORT $L190462

; 26   : 		pSpl->m_bHorizSplitter = true;

  000a4	8b 45 0c	 mov	 eax, DWORD PTR _pSpl$[ebp]
  000a7	c6 40 54 01	 mov	 BYTE PTR [eax+84], 1

; 27   : 	else

  000ab	eb 07		 jmp	 SHORT $L190463
$L190462:

; 28   : 		pSpl->m_bHorizSplitter   = false;

  000ad	8b 4d 0c	 mov	 ecx, DWORD PTR _pSpl$[ebp]
  000b0	c6 41 54 00	 mov	 BYTE PTR [ecx+84], 0
$L190463:

; 29   : 
; 30   : 	pSpl->m_bHideCloseBtn = (nHideCloseBtn == 1);

  000b4	33 d2		 xor	 edx, edx
  000b6	83 7d 28 01	 cmp	 DWORD PTR _nHideCloseBtn$[ebp], 1
  000ba	0f 94 c2	 sete	 dl
  000bd	8b 45 0c	 mov	 eax, DWORD PTR _pSpl$[ebp]
  000c0	88 50 60	 mov	 BYTE PTR [eax+96], dl

; 31   : 	//pSpl->SetSlim(nSlim ==1);
; 32   : 
; 33   : 	pPane->m_nClosedOri = nClosedOri;

  000c3	8b 4d ec	 mov	 ecx, DWORD PTR _pPane$[ebp]
  000c6	8b 55 1c	 mov	 edx, DWORD PTR _nClosedOri$[ebp]
  000c9	89 91 84 00 00
	00		 mov	 DWORD PTR [ecx+132], edx

; 34   : 	pPane->m_nSplClosedPos = nClosedPos;

  000cf	8b 45 ec	 mov	 eax, DWORD PTR _pPane$[ebp]
  000d2	8b 4d 18	 mov	 ecx, DWORD PTR _nClosedPos$[ebp]
  000d5	89 88 88 00 00
	00		 mov	 DWORD PTR [eax+136], ecx

; 35   : 	pPane->m_nSplOpendPos = nOpenSize;

  000db	8b 55 ec	 mov	 edx, DWORD PTR _pPane$[ebp]
  000de	8b 45 24	 mov	 eax, DWORD PTR _nOpenSize$[ebp]
  000e1	89 82 8c 00 00
	00		 mov	 DWORD PTR [edx+140], eax

; 36   : 	
; 37   : 	pSpl->m_pane = (ETSLayoutMgr::PaneSplitter *)pPane;

  000e7	8b 4d 0c	 mov	 ecx, DWORD PTR _pSpl$[ebp]
  000ea	8b 55 ec	 mov	 edx, DWORD PTR _pPane$[ebp]
  000ed	89 91 b0 00 00
	00		 mov	 DWORD PTR [ecx+176], edx

; 38   : 	pPane->m_nDeflate = -1;

  000f3	8b 45 ec	 mov	 eax, DWORD PTR _pPane$[ebp]
  000f6	c7 80 90 00 00
	00 ff ff ff ff	 mov	 DWORD PTR [eax+144], -1

; 39   : 	return CPane(pPane);

  00100	8b 4d ec	 mov	 ecx, DWORD PTR _pPane$[ebp]
  00103	51		 push	 ecx
  00104	8b 4d 08	 mov	 ecx, DWORD PTR ___$ReturnUdt$[ebp]
  00107	e8 00 00 00 00	 call	 ??0CPane@ETSLayoutMgr@@QAE@PAVPane@1@@Z ; ETSLayoutMgr::CPane::CPane
  0010c	8b 55 e0	 mov	 edx, DWORD PTR $T193053[ebp]
  0010f	83 ca 01	 or	 edx, 1
  00112	89 55 e0	 mov	 DWORD PTR $T193053[ebp], edx
  00115	8b 45 08	 mov	 eax, DWORD PTR ___$ReturnUdt$[ebp]

; 40   : }

  00118	8b 4d f4	 mov	 ecx, DWORD PTR __$EHRec$[ebp]
  0011b	64 89 0d 00 00
	00 00		 mov	 DWORD PTR fs:__except_list, ecx
  00122	83 c4 24	 add	 esp, 36			; 00000024H
  00125	3b ec		 cmp	 ebp, esp
  00127	e8 00 00 00 00	 call	 __RTC_CheckEsp
  0012c	8b e5		 mov	 esp, ebp
  0012e	5d		 pop	 ebp
  0012f	c2 28 00	 ret	 40			; 00000028H
_TEXT	ENDS
text$x	SEGMENT
$L193051:
  00000	8b 45 e4	 mov	 eax, DWORD PTR $T193048[ebp]
  00003	50		 push	 eax
  00004	e8 00 00 00 00	 call	 ??3@YAXPAX@Z		; operator delete
  00009	59		 pop	 ecx
  0000a	c3		 ret	 0
__ehhandler$?paneSpl@ETSLayoutMgr@@QAE?AVCPane@1@PAVETSSplitter@@W4layOrientation@1@W4layResizeMode@1@HHHHHH@Z:
  0000b	b8 00 00 00 00	 mov	 eax, OFFSET FLAT:$T193058
  00010	e9 00 00 00 00	 jmp	 ___CxxFrameHandler
text$x	ENDS
?paneSpl@ETSLayoutMgr@@QAE?AVCPane@1@PAVETSSplitter@@W4layOrientation@1@W4layResizeMode@1@HHHHHH@Z ENDP ; ETSLayoutMgr::paneSpl
PUBLIC	?resizeTo@PaneSplitter@ETSLayoutMgr@@UAE_NAAVCRect@@_N1@Z ; ETSLayoutMgr::PaneSplitter::resizeTo
PUBLIC	?addPane@PaneSplitter@ETSLayoutMgr@@UAE_NVCPaneBase@2@@Z ; ETSLayoutMgr::PaneSplitter::addPane
PUBLIC	?addPane@PaneSplitter@ETSLayoutMgr@@UAE_NVCPane@2@W4layResizeMode@2@H@Z ; ETSLayoutMgr::PaneSplitter::addPane
PUBLIC	?getMinConstrainHorz@PaneSplitter@ETSLayoutMgr@@UAEHXZ ; ETSLayoutMgr::PaneSplitter::getMinConstrainHorz
PUBLIC	?getMinConstrainVert@PaneSplitter@ETSLayoutMgr@@UAEHXZ ; ETSLayoutMgr::PaneSplitter::getMinConstrainVert
PUBLIC	?showPane@PaneSplitter@ETSLayoutMgr@@UAEX_N@Z	; ETSLayoutMgr::PaneSplitter::showPane
PUBLIC	??_7PaneSplitter@ETSLayoutMgr@@6B@		; ETSLayoutMgr::PaneSplitter::`vftable'
PUBLIC	??_GPaneSplitter@ETSLayoutMgr@@UAEPAXI@Z	; ETSLayoutMgr::PaneSplitter::`scalar deleting destructor'
PUBLIC	??_R0?AVPaneBase@ETSLayoutMgr@@@8		; ETSLayoutMgr::PaneBase `RTTI Type Descriptor'
PUBLIC	??_R1A@?0A@A@PaneBase@ETSLayoutMgr@@8		; ETSLayoutMgr::PaneBase::`RTTI Base Class Descriptor at (0,-1,0,0)'
PUBLIC	??_R1A@?0A@A@Pane@ETSLayoutMgr@@8		; ETSLayoutMgr::Pane::`RTTI Base Class Descriptor at (0,-1,0,0)'
PUBLIC	??_R0?AVPane@ETSLayoutMgr@@@8			; ETSLayoutMgr::Pane `RTTI Type Descriptor'
PUBLIC	??_R4PaneSplitter@ETSLayoutMgr@@6B@		; ETSLayoutMgr::PaneSplitter::`RTTI Complete Object Locator'
PUBLIC	??_R0?AVPaneSplitter@ETSLayoutMgr@@@8		; ETSLayoutMgr::PaneSplitter `RTTI Type Descriptor'
PUBLIC	??_R3PaneSplitter@ETSLayoutMgr@@8		; ETSLayoutMgr::PaneSplitter::`RTTI Class Hierarchy Descriptor'
PUBLIC	??_R2PaneSplitter@ETSLayoutMgr@@8		; ETSLayoutMgr::PaneSplitter::`RTTI Base Class Array'
PUBLIC	??_R1A@?0A@A@PaneSplitter@ETSLayoutMgr@@8	; ETSLayoutMgr::PaneSplitter::`RTTI Base Class Descriptor at (0,-1,0,0)'
EXTRN	?getConstrainHorz@Pane@ETSLayoutMgr@@UAEHH@Z:NEAR ; ETSLayoutMgr::Pane::getConstrainHorz
EXTRN	?getConstrainVert@Pane@ETSLayoutMgr@@UAEHH@Z:NEAR ; ETSLayoutMgr::Pane::getConstrainVert
EXTRN	?getMaxConstrainHorz@Pane@ETSLayoutMgr@@UAEHXZ:NEAR ; ETSLayoutMgr::Pane::getMaxConstrainHorz
EXTRN	?getMaxConstrainVert@Pane@ETSLayoutMgr@@UAEHXZ:NEAR ; ETSLayoutMgr::Pane::getMaxConstrainVert
EXTRN	??1Pane@ETSLayoutMgr@@UAE@XZ:NEAR		; ETSLayoutMgr::Pane::~Pane
EXTRN	?GetSubPane@Pane@ETSLayoutMgr@@UAE?AVCPaneBase@2@V?$CStringT@DV?$StrTraitMFC_DLL@DV?$ChTraitsCRT@D@ATL@@@@@ATL@@@Z:NEAR ; ETSLayoutMgr::Pane::GetSubPane
EXTRN	??_EPaneSplitter@ETSLayoutMgr@@UAEPAXI@Z:NEAR	; ETSLayoutMgr::PaneSplitter::`vector deleting destructor'
EXTRN	?AfxAssertFailedLine@@YGHPBDH@Z:NEAR		; AfxAssertFailedLine
EXTRN	??_7type_info@@6B@:QWORD			; type_info::`vftable'
EXTRN	??0Pane@ETSLayoutMgr@@IAE@PAV1@W4layOrientation@1@HH@Z:NEAR ; ETSLayoutMgr::Pane::Pane
xdata$x	SEGMENT
$T193069 DD	0ffffffffH
	DD	FLAT:$L193065
$T193067 DD	019930520H
	DD	01H
	DD	FLAT:$T193069
	DD	2 DUP(00H)
	DD	2 DUP(00H)
xdata$x	ENDS
;	COMDAT ??_7PaneSplitter@ETSLayoutMgr@@6B@
CONST	SEGMENT
??_7PaneSplitter@ETSLayoutMgr@@6B@ DD FLAT:??_R4PaneSplitter@ETSLayoutMgr@@6B@ ; ETSLayoutMgr::PaneSplitter::`vftable'
	DD	FLAT:?getConstrainHorz@Pane@ETSLayoutMgr@@UAEHH@Z
	DD	FLAT:?getConstrainVert@Pane@ETSLayoutMgr@@UAEHH@Z
	DD	FLAT:?getMinConstrainHorz@PaneSplitter@ETSLayoutMgr@@UAEHXZ
	DD	FLAT:?getMaxConstrainHorz@Pane@ETSLayoutMgr@@UAEHXZ
	DD	FLAT:?getMinConstrainVert@PaneSplitter@ETSLayoutMgr@@UAEHXZ
	DD	FLAT:?getMaxConstrainVert@Pane@ETSLayoutMgr@@UAEHXZ
	DD	FLAT:?resizeTo@PaneSplitter@ETSLayoutMgr@@UAE_NAAVCRect@@_N1@Z
	DD	FLAT:?GetSubPane@Pane@ETSLayoutMgr@@UAE?AVCPaneBase@2@V?$CStringT@DV?$StrTraitMFC_DLL@DV?$ChTraitsCRT@D@ATL@@@@@ATL@@@Z
	DD	FLAT:??_EPaneSplitter@ETSLayoutMgr@@UAEPAXI@Z
	DD	FLAT:?showPane@PaneSplitter@ETSLayoutMgr@@UAEX_N@Z
	DD	FLAT:?addPane@PaneSplitter@ETSLayoutMgr@@UAE_NVCPane@2@W4layResizeMode@2@H@Z
	DD	FLAT:?addPane@PaneSplitter@ETSLayoutMgr@@UAE_NVCPaneBase@2@@Z
CONST	ENDS
;	COMDAT ??_R4PaneSplitter@ETSLayoutMgr@@6B@
rdata$r	SEGMENT
??_R4PaneSplitter@ETSLayoutMgr@@6B@ DD 00H		; ETSLayoutMgr::PaneSplitter::`RTTI Complete Object Locator'
	DD	00H
	DD	00H
	DD	FLAT:??_R0?AVPaneSplitter@ETSLayoutMgr@@@8
	DD	FLAT:??_R3PaneSplitter@ETSLayoutMgr@@8
rdata$r	ENDS
;	COMDAT ??_R0?AVPaneSplitter@ETSLayoutMgr@@@8
_DATA	SEGMENT
??_R0?AVPaneSplitter@ETSLayoutMgr@@@8 DD FLAT:??_7type_info@@6B@ ; ETSLayoutMgr::PaneSplitter `RTTI Type Descriptor'
	DD	00H
	DB	'.?AVPaneSplitter@ETSLayoutMgr@@', 00H
_DATA	ENDS
;	COMDAT ??_R3PaneSplitter@ETSLayoutMgr@@8
rdata$r	SEGMENT
??_R3PaneSplitter@ETSLayoutMgr@@8 DD 00H		; ETSLayoutMgr::PaneSplitter::`RTTI Class Hierarchy Descriptor'
	DD	00H
	DD	03H
	DD	FLAT:??_R2PaneSplitter@ETSLayoutMgr@@8
rdata$r	ENDS
;	COMDAT ??_R2PaneSplitter@ETSLayoutMgr@@8
rdata$r	SEGMENT
??_R2PaneSplitter@ETSLayoutMgr@@8 DD FLAT:??_R1A@?0A@A@PaneSplitter@ETSLayoutMgr@@8 ; ETSLayoutMgr::PaneSplitter::`RTTI Base Class Array'
	DD	FLAT:??_R1A@?0A@A@Pane@ETSLayoutMgr@@8
	DD	FLAT:??_R1A@?0A@A@PaneBase@ETSLayoutMgr@@8
rdata$r	ENDS
;	COMDAT ??_R1A@?0A@A@PaneSplitter@ETSLayoutMgr@@8
rdata$r	SEGMENT
??_R1A@?0A@A@PaneSplitter@ETSLayoutMgr@@8 DD FLAT:??_R0?AVPaneSplitter@ETSLayoutMgr@@@8 ; ETSLayoutMgr::PaneSplitter::`RTTI Base Class Descriptor at (0,-1,0,0)'
	DD	02H
	DD	00H
	DD	0ffffffffH
	DD	00H
	DD	00H
rdata$r	ENDS
;	COMDAT ??_R1A@?0A@A@Pane@ETSLayoutMgr@@8
rdata$r	SEGMENT
??_R1A@?0A@A@Pane@ETSLayoutMgr@@8 DD FLAT:??_R0?AVPane@ETSLayoutMgr@@@8 ; ETSLayoutMgr::Pane::`RTTI Base Class Descriptor at (0,-1,0,0)'
	DD	01H
	DD	00H
	DD	0ffffffffH
	DD	00H
	DD	00H
rdata$r	ENDS
;	COMDAT ??_R0?AVPane@ETSLayoutMgr@@@8
_DATA	SEGMENT
??_R0?AVPane@ETSLayoutMgr@@@8 DD FLAT:??_7type_info@@6B@ ; ETSLayoutMgr::Pane `RTTI Type Descriptor'
	DD	00H
	DB	'.?AVPane@ETSLayoutMgr@@', 00H
_DATA	ENDS
;	COMDAT ??_R1A@?0A@A@PaneBase@ETSLayoutMgr@@8
rdata$r	SEGMENT
??_R1A@?0A@A@PaneBase@ETSLayoutMgr@@8 DD FLAT:??_R0?AVPaneBase@ETSLayoutMgr@@@8 ; ETSLayoutMgr::PaneBase::`RTTI Base Class Descriptor at (0,-1,0,0)'
	DD	00H
	DD	00H
	DD	0ffffffffH
	DD	00H
	DD	00H
rdata$r	ENDS
;	COMDAT ??_R0?AVPaneBase@ETSLayoutMgr@@@8
_DATA	SEGMENT
??_R0?AVPaneBase@ETSLayoutMgr@@@8 DD FLAT:??_7type_info@@6B@ ; ETSLayoutMgr::PaneBase `RTTI Type Descriptor'
	DD	00H
	DB	'.?AVPaneBase@ETSLayoutMgr@@', 00H
; Function compile flags: /Odt /RTCsu
_DATA	ENDS
_TEXT	SEGMENT
_this$ = -16						; size = 4
__$EHRec$ = -12						; size = 12
_pSpl$ = 8						; size = 4
_pMgr$ = 12						; size = 4
_orientation$ = 16					; size = 4
??0PaneSplitter@ETSLayoutMgr@@QAE@PAVETSSplitter@@PAV1@W4layOrientation@1@@Z PROC NEAR ; ETSLayoutMgr::PaneSplitter::PaneSplitter
; _this$ = ecx

; 44   : {

  00140	55		 push	 ebp
  00141	8b ec		 mov	 ebp, esp
  00143	6a ff		 push	 -1
  00145	68 00 00 00 00	 push	 __ehhandler$??0PaneSplitter@ETSLayoutMgr@@QAE@PAVETSSplitter@@PAV1@W4layOrientation@1@@Z
  0014a	64 a1 00 00 00
	00		 mov	 eax, DWORD PTR fs:__except_list
  00150	50		 push	 eax
  00151	64 89 25 00 00
	00 00		 mov	 DWORD PTR fs:__except_list, esp
  00158	51		 push	 ecx
  00159	c7 45 f0 cc cc
	cc cc		 mov	 DWORD PTR [ebp-16], -858993460 ; ccccccccH
  00160	89 4d f0	 mov	 DWORD PTR _this$[ebp], ecx
  00163	6a 00		 push	 0
  00165	6a 00		 push	 0
  00167	8b 45 10	 mov	 eax, DWORD PTR _orientation$[ebp]
  0016a	50		 push	 eax
  0016b	8b 4d 0c	 mov	 ecx, DWORD PTR _pMgr$[ebp]
  0016e	51		 push	 ecx
  0016f	8b 4d f0	 mov	 ecx, DWORD PTR _this$[ebp]
  00172	e8 00 00 00 00	 call	 ??0Pane@ETSLayoutMgr@@IAE@PAV1@W4layOrientation@1@HH@Z ; ETSLayoutMgr::Pane::Pane
  00177	c7 45 fc 00 00
	00 00		 mov	 DWORD PTR __$EHRec$[ebp+8], 0
  0017e	8b 55 f0	 mov	 edx, DWORD PTR _this$[ebp]
  00181	c7 02 00 00 00
	00		 mov	 DWORD PTR [edx], OFFSET FLAT:??_7PaneSplitter@ETSLayoutMgr@@6B@

; 45   : 	ASSERT(pSpl);

  00187	83 7d 08 00	 cmp	 DWORD PTR _pSpl$[ebp], 0
  0018b	75 11		 jne	 SHORT $L193064
  0018d	6a 2d		 push	 45			; 0000002dH
  0018f	68 00 00 00 00	 push	 OFFSET FLAT:$SG190473
  00194	e8 00 00 00 00	 call	 ?AfxAssertFailedLine@@YGHPBDH@Z ; AfxAssertFailedLine
  00199	85 c0		 test	 eax, eax
  0019b	74 01		 je	 SHORT $L193064
  0019d	cc		 int	 3
$L193064:

; 46   : 	m_pSpl = pSpl;

  0019e	8b 4d f0	 mov	 ecx, DWORD PTR _this$[ebp]
  001a1	8b 55 08	 mov	 edx, DWORD PTR _pSpl$[ebp]
  001a4	89 91 94 00 00
	00		 mov	 DWORD PTR [ecx+148], edx

; 47   : 	m_nDeflate = true;

  001aa	8b 45 f0	 mov	 eax, DWORD PTR _this$[ebp]
  001ad	c7 80 90 00 00
	00 01 00 00 00	 mov	 DWORD PTR [eax+144], 1

; 48   : }

  001b7	c7 45 fc ff ff
	ff ff		 mov	 DWORD PTR __$EHRec$[ebp+8], -1
  001be	8b 45 f0	 mov	 eax, DWORD PTR _this$[ebp]
  001c1	8b 4d f4	 mov	 ecx, DWORD PTR __$EHRec$[ebp]
  001c4	64 89 0d 00 00
	00 00		 mov	 DWORD PTR fs:__except_list, ecx
  001cb	83 c4 10	 add	 esp, 16			; 00000010H
  001ce	3b ec		 cmp	 ebp, esp
  001d0	e8 00 00 00 00	 call	 __RTC_CheckEsp
  001d5	8b e5		 mov	 esp, ebp
  001d7	5d		 pop	 ebp
  001d8	c2 0c 00	 ret	 12			; 0000000cH
_TEXT	ENDS
text$x	SEGMENT
$L193065:
  00015	8b 4d f0	 mov	 ecx, DWORD PTR _this$[ebp]
  00018	e9 00 00 00 00	 jmp	 ??1Pane@ETSLayoutMgr@@UAE@XZ ; ETSLayoutMgr::Pane::~Pane
__ehhandler$??0PaneSplitter@ETSLayoutMgr@@QAE@PAVETSSplitter@@PAV1@W4layOrientation@1@@Z:
  0001d	b8 00 00 00 00	 mov	 eax, OFFSET FLAT:$T193067
  00022	e9 00 00 00 00	 jmp	 ___CxxFrameHandler
text$x	ENDS
??0PaneSplitter@ETSLayoutMgr@@QAE@PAVETSSplitter@@PAV1@W4layOrientation@1@@Z ENDP ; ETSLayoutMgr::PaneSplitter::PaneSplitter
PUBLIC	??1PaneSplitter@ETSLayoutMgr@@UAE@XZ		; ETSLayoutMgr::PaneSplitter::~PaneSplitter
; Function compile flags: /Odt /RTCsu
;	COMDAT ??_GPaneSplitter@ETSLayoutMgr@@UAEPAXI@Z
_TEXT	SEGMENT
_this$ = -4						; size = 4
___flags$ = 8						; size = 4
??_GPaneSplitter@ETSLayoutMgr@@UAEPAXI@Z PROC NEAR	; ETSLayoutMgr::PaneSplitter::`scalar deleting destructor', COMDAT
; _this$ = ecx
  00000	55		 push	 ebp
  00001	8b ec		 mov	 ebp, esp
  00003	51		 push	 ecx
  00004	c7 45 fc cc cc
	cc cc		 mov	 DWORD PTR [ebp-4], -858993460 ; ccccccccH
  0000b	89 4d fc	 mov	 DWORD PTR _this$[ebp], ecx
  0000e	8b 4d fc	 mov	 ecx, DWORD PTR _this$[ebp]
  00011	e8 00 00 00 00	 call	 ??1PaneSplitter@ETSLayoutMgr@@UAE@XZ
  00016	8b 45 08	 mov	 eax, DWORD PTR ___flags$[ebp]
  00019	83 e0 01	 and	 eax, 1
  0001c	74 0c		 je	 SHORT $L190477
  0001e	8b 4d fc	 mov	 ecx, DWORD PTR _this$[ebp]
  00021	51		 push	 ecx
  00022	e8 00 00 00 00	 call	 ??3@YAXPAX@Z		; operator delete
  00027	83 c4 04	 add	 esp, 4
$L190477:
  0002a	8b 45 fc	 mov	 eax, DWORD PTR _this$[ebp]
  0002d	83 c4 04	 add	 esp, 4
  00030	3b ec		 cmp	 ebp, esp
  00032	e8 00 00 00 00	 call	 __RTC_CheckEsp
  00037	8b e5		 mov	 esp, ebp
  00039	5d		 pop	 ebp
  0003a	c2 04 00	 ret	 4
??_GPaneSplitter@ETSLayoutMgr@@UAEPAXI@Z ENDP		; ETSLayoutMgr::PaneSplitter::`scalar deleting destructor'
; Function compile flags: /Odt /RTCsu
_TEXT	ENDS
;	COMDAT ??1PaneSplitter@ETSLayoutMgr@@UAE@XZ
_TEXT	SEGMENT
_this$ = -4						; size = 4
??1PaneSplitter@ETSLayoutMgr@@UAE@XZ PROC NEAR		; ETSLayoutMgr::PaneSplitter::~PaneSplitter, COMDAT
; _this$ = ecx
  00000	55		 push	 ebp
  00001	8b ec		 mov	 ebp, esp
  00003	51		 push	 ecx
  00004	c7 45 fc cc cc
	cc cc		 mov	 DWORD PTR [ebp-4], -858993460 ; ccccccccH
  0000b	89 4d fc	 mov	 DWORD PTR _this$[ebp], ecx
  0000e	8b 4d fc	 mov	 ecx, DWORD PTR _this$[ebp]
  00011	e8 00 00 00 00	 call	 ??1Pane@ETSLayoutMgr@@UAE@XZ ; ETSLayoutMgr::Pane::~Pane
  00016	83 c4 04	 add	 esp, 4
  00019	3b ec		 cmp	 ebp, esp
  0001b	e8 00 00 00 00	 call	 __RTC_CheckEsp
  00020	8b e5		 mov	 esp, ebp
  00022	5d		 pop	 ebp
  00023	c3		 ret	 0
??1PaneSplitter@ETSLayoutMgr@@UAE@XZ ENDP		; ETSLayoutMgr::PaneSplitter::~PaneSplitter
_TEXT	ENDS
EXTRN	?showPane@Pane@ETSLayoutMgr@@UAEX_N@Z:NEAR	; ETSLayoutMgr::Pane::showPane
EXTRN	?ShowWindow@CWnd@@QAEHH@Z:NEAR			; CWnd::ShowWindow
; Function compile flags: /Odt /RTCsu
_TEXT	SEGMENT
_this$ = -4						; size = 4
_bShow$ = 8						; size = 1
?showPane@PaneSplitter@ETSLayoutMgr@@UAEX_N@Z PROC NEAR	; ETSLayoutMgr::PaneSplitter::showPane
; _this$ = ecx

; 51   : {

  001e0	55		 push	 ebp
  001e1	8b ec		 mov	 ebp, esp
  001e3	51		 push	 ecx
  001e4	c7 45 fc cc cc
	cc cc		 mov	 DWORD PTR [ebp-4], -858993460 ; ccccccccH
  001eb	89 4d fc	 mov	 DWORD PTR _this$[ebp], ecx

; 52   : 	this->m_bShow = bShow;

  001ee	8b 45 fc	 mov	 eax, DWORD PTR _this$[ebp]
  001f1	8a 4d 08	 mov	 cl, BYTE PTR _bShow$[ebp]
  001f4	88 48 1c	 mov	 BYTE PTR [eax+28], cl

; 53   : 	if(bShow)

  001f7	0f b6 55 08	 movzx	 edx, BYTE PTR _bShow$[ebp]
  001fb	85 d2		 test	 edx, edx
  001fd	74 12		 je	 SHORT $L190484

; 54   : 		m_pSpl->ShowWindow(SW_SHOW);

  001ff	6a 05		 push	 5
  00201	8b 45 fc	 mov	 eax, DWORD PTR _this$[ebp]
  00204	8b 88 94 00 00
	00		 mov	 ecx, DWORD PTR [eax+148]
  0020a	e8 00 00 00 00	 call	 ?ShowWindow@CWnd@@QAEHH@Z ; CWnd::ShowWindow

; 55   : 	else

  0020f	eb 10		 jmp	 SHORT $L190485
$L190484:

; 56   : 		m_pSpl->ShowWindow(SW_HIDE);

  00211	6a 00		 push	 0
  00213	8b 4d fc	 mov	 ecx, DWORD PTR _this$[ebp]
  00216	8b 89 94 00 00
	00		 mov	 ecx, DWORD PTR [ecx+148]
  0021c	e8 00 00 00 00	 call	 ?ShowWindow@CWnd@@QAEHH@Z ; CWnd::ShowWindow
$L190485:

; 57   : 
; 58   : 	ETSLayoutMgr::Pane::showPane(bShow);

  00221	8a 55 08	 mov	 dl, BYTE PTR _bShow$[ebp]
  00224	52		 push	 edx
  00225	8b 4d fc	 mov	 ecx, DWORD PTR _this$[ebp]
  00228	e8 00 00 00 00	 call	 ?showPane@Pane@ETSLayoutMgr@@UAEX_N@Z ; ETSLayoutMgr::Pane::showPane

; 59   : }

  0022d	83 c4 04	 add	 esp, 4
  00230	3b ec		 cmp	 ebp, esp
  00232	e8 00 00 00 00	 call	 __RTC_CheckEsp
  00237	8b e5		 mov	 esp, ebp
  00239	5d		 pop	 ebp
  0023a	c2 04 00	 ret	 4
?showPane@PaneSplitter@ETSLayoutMgr@@UAEX_N@Z ENDP	; ETSLayoutMgr::PaneSplitter::showPane
_TEXT	ENDS
PUBLIC	?getPaneRect@PaneBase@ETSLayoutMgr@@QAE?AVCRect@@XZ ; ETSLayoutMgr::PaneBase::getPaneRect
EXTRN	?getMinConstrainHorz@Pane@ETSLayoutMgr@@UAEHXZ:NEAR ; ETSLayoutMgr::Pane::getMinConstrainHorz
EXTRN	?Width@CRect@@QBEHXZ:NEAR			; CRect::Width
; Function compile flags: /Odt /RTCsu
_TEXT	SEGMENT
_rc$ = -24						; size = 16
_this$ = -4						; size = 4
?getMinConstrainHorz@PaneSplitter@ETSLayoutMgr@@UAEHXZ PROC NEAR ; ETSLayoutMgr::PaneSplitter::getMinConstrainHorz
; _this$ = ecx

; 62   : {

  00240	55		 push	 ebp
  00241	8b ec		 mov	 ebp, esp
  00243	83 ec 1c	 sub	 esp, 28			; 0000001cH
  00246	b8 cc cc cc cc	 mov	 eax, -858993460		; ccccccccH
  0024b	89 45 e4	 mov	 DWORD PTR [ebp-28], eax
  0024e	89 45 e8	 mov	 DWORD PTR [ebp-24], eax
  00251	89 45 ec	 mov	 DWORD PTR [ebp-20], eax
  00254	89 45 f0	 mov	 DWORD PTR [ebp-16], eax
  00257	89 45 f4	 mov	 DWORD PTR [ebp-12], eax
  0025a	89 45 f8	 mov	 DWORD PTR [ebp-8], eax
  0025d	89 45 fc	 mov	 DWORD PTR [ebp-4], eax
  00260	89 4d fc	 mov	 DWORD PTR _this$[ebp], ecx

; 63   : 	CRect rc = getPaneRect();

  00263	8d 45 e8	 lea	 eax, DWORD PTR _rc$[ebp]
  00266	50		 push	 eax
  00267	8b 4d fc	 mov	 ecx, DWORD PTR _this$[ebp]
  0026a	e8 00 00 00 00	 call	 ?getPaneRect@PaneBase@ETSLayoutMgr@@QAE?AVCRect@@XZ ; ETSLayoutMgr::PaneBase::getPaneRect

; 64   : 
; 65   : 	if(m_Orientation == VERTICAL && rc.Width() <= 0)

  0026f	8b 4d fc	 mov	 ecx, DWORD PTR _this$[ebp]
  00272	83 79 60 01	 cmp	 DWORD PTR [ecx+96], 1
  00276	75 10		 jne	 SHORT $L190491
  00278	8d 4d e8	 lea	 ecx, DWORD PTR _rc$[ebp]
  0027b	e8 00 00 00 00	 call	 ?Width@CRect@@QBEHXZ	; CRect::Width
  00280	85 c0		 test	 eax, eax
  00282	7f 04		 jg	 SHORT $L190491

; 66   : 	{
; 67   : 		return 0;

  00284	33 c0		 xor	 eax, eax
  00286	eb 08		 jmp	 SHORT $L190488
$L190491:

; 68   : 	}
; 69   : 	else
; 70   : 		return Pane::getMinConstrainHorz();

  00288	8b 4d fc	 mov	 ecx, DWORD PTR _this$[ebp]
  0028b	e8 00 00 00 00	 call	 ?getMinConstrainHorz@Pane@ETSLayoutMgr@@UAEHXZ ; ETSLayoutMgr::Pane::getMinConstrainHorz
$L190488:

; 71   : }

  00290	52		 push	 edx
  00291	8b cd		 mov	 ecx, ebp
  00293	50		 push	 eax
  00294	8d 15 00 00 00
	00		 lea	 edx, DWORD PTR $L193077
  0029a	e8 00 00 00 00	 call	 @_RTC_CheckStackVars@8
  0029f	58		 pop	 eax
  002a0	5a		 pop	 edx
  002a1	83 c4 1c	 add	 esp, 28			; 0000001cH
  002a4	3b ec		 cmp	 ebp, esp
  002a6	e8 00 00 00 00	 call	 __RTC_CheckEsp
  002ab	8b e5		 mov	 esp, ebp
  002ad	5d		 pop	 ebp
  002ae	c3		 ret	 0
$L193077:
  002af	01 00 00 00	 DD	 1
  002b3	00 00 00 00	 DD	 $L193076
$L193076:
  002b7	e8 ff ff ff	 DD	 -24			; ffffffe8H
  002bb	10 00 00 00	 DD	 16			; 00000010H
  002bf	00 00 00 00	 DD	 $L193075
$L193075:
  002c3	72		 DB	 114			; 00000072H
  002c4	63		 DB	 99			; 00000063H
  002c5	00		 DB	 0
?getMinConstrainHorz@PaneSplitter@ETSLayoutMgr@@UAEHXZ ENDP ; ETSLayoutMgr::PaneSplitter::getMinConstrainHorz
; Function compile flags: /Odt /RTCsu
; File d:\boxgit\playbox\playbox\dev\prj\playbox\src\layoutmgr\etslayout.h
_TEXT	ENDS
;	COMDAT ?getPaneRect@PaneBase@ETSLayoutMgr@@QAE?AVCRect@@XZ
_TEXT	SEGMENT
_this$ = -4						; size = 4
___$ReturnUdt$ = 8					; size = 4
?getPaneRect@PaneBase@ETSLayoutMgr@@QAE?AVCRect@@XZ PROC NEAR ; ETSLayoutMgr::PaneBase::getPaneRect, COMDAT
; _this$ = ecx

; 296  : 		CRect getPaneRect(){return m_rcRect;};

  00000	55		 push	 ebp
  00001	8b ec		 mov	 ebp, esp
  00003	51		 push	 ecx
  00004	c7 45 fc cc cc
	cc cc		 mov	 DWORD PTR [ebp-4], -858993460 ; ccccccccH
  0000b	89 4d fc	 mov	 DWORD PTR _this$[ebp], ecx
  0000e	8b 45 fc	 mov	 eax, DWORD PTR _this$[ebp]
  00011	83 c0 28	 add	 eax, 40			; 00000028H
  00014	8b 4d 08	 mov	 ecx, DWORD PTR ___$ReturnUdt$[ebp]
  00017	8b 10		 mov	 edx, DWORD PTR [eax]
  00019	89 11		 mov	 DWORD PTR [ecx], edx
  0001b	8b 50 04	 mov	 edx, DWORD PTR [eax+4]
  0001e	89 51 04	 mov	 DWORD PTR [ecx+4], edx
  00021	8b 50 08	 mov	 edx, DWORD PTR [eax+8]
  00024	89 51 08	 mov	 DWORD PTR [ecx+8], edx
  00027	8b 40 0c	 mov	 eax, DWORD PTR [eax+12]
  0002a	89 41 0c	 mov	 DWORD PTR [ecx+12], eax
  0002d	8b 45 08	 mov	 eax, DWORD PTR ___$ReturnUdt$[ebp]
  00030	8b e5		 mov	 esp, ebp
  00032	5d		 pop	 ebp
  00033	c2 04 00	 ret	 4
?getPaneRect@PaneBase@ETSLayoutMgr@@QAE?AVCRect@@XZ ENDP ; ETSLayoutMgr::PaneBase::getPaneRect
_TEXT	ENDS
EXTRN	?getMinConstrainVert@Pane@ETSLayoutMgr@@UAEHXZ:NEAR ; ETSLayoutMgr::Pane::getMinConstrainVert
EXTRN	?Height@CRect@@QBEHXZ:NEAR			; CRect::Height
; Function compile flags: /Odt /RTCsu
; File d:\boxgit\playbox\playbox\dev\prj\playbox\src\layoutmgr\etslayoutex.cpp
_TEXT	SEGMENT
_rc$ = -24						; size = 16
_this$ = -4						; size = 4
?getMinConstrainVert@PaneSplitter@ETSLayoutMgr@@UAEHXZ PROC NEAR ; ETSLayoutMgr::PaneSplitter::getMinConstrainVert
; _this$ = ecx

; 74   : {

  002d0	55		 push	 ebp
  002d1	8b ec		 mov	 ebp, esp
  002d3	83 ec 1c	 sub	 esp, 28			; 0000001cH
  002d6	b8 cc cc cc cc	 mov	 eax, -858993460		; ccccccccH
  002db	89 45 e4	 mov	 DWORD PTR [ebp-28], eax
  002de	89 45 e8	 mov	 DWORD PTR [ebp-24], eax
  002e1	89 45 ec	 mov	 DWORD PTR [ebp-20], eax
  002e4	89 45 f0	 mov	 DWORD PTR [ebp-16], eax
  002e7	89 45 f4	 mov	 DWORD PTR [ebp-12], eax
  002ea	89 45 f8	 mov	 DWORD PTR [ebp-8], eax
  002ed	89 45 fc	 mov	 DWORD PTR [ebp-4], eax
  002f0	89 4d fc	 mov	 DWORD PTR _this$[ebp], ecx

; 75   : 	CRect rc = this->getPaneRect();

  002f3	8d 45 e8	 lea	 eax, DWORD PTR _rc$[ebp]
  002f6	50		 push	 eax
  002f7	8b 4d fc	 mov	 ecx, DWORD PTR _this$[ebp]
  002fa	e8 00 00 00 00	 call	 ?getPaneRect@PaneBase@ETSLayoutMgr@@QAE?AVCRect@@XZ ; ETSLayoutMgr::PaneBase::getPaneRect

; 76   : 
; 77   : 	if(m_Orientation == HORIZONTAL && rc.Height() <= 0)

  002ff	8b 4d fc	 mov	 ecx, DWORD PTR _this$[ebp]
  00302	83 79 60 00	 cmp	 DWORD PTR [ecx+96], 0
  00306	75 10		 jne	 SHORT $L190498
  00308	8d 4d e8	 lea	 ecx, DWORD PTR _rc$[ebp]
  0030b	e8 00 00 00 00	 call	 ?Height@CRect@@QBEHXZ	; CRect::Height
  00310	85 c0		 test	 eax, eax
  00312	7f 04		 jg	 SHORT $L190498

; 78   : 	{
; 79   : 		return 0;

  00314	33 c0		 xor	 eax, eax
  00316	eb 08		 jmp	 SHORT $L190495
$L190498:

; 80   : 	}
; 81   : 	else
; 82   : 		return Pane::getMinConstrainVert();

  00318	8b 4d fc	 mov	 ecx, DWORD PTR _this$[ebp]
  0031b	e8 00 00 00 00	 call	 ?getMinConstrainVert@Pane@ETSLayoutMgr@@UAEHXZ ; ETSLayoutMgr::Pane::getMinConstrainVert
$L190495:

; 83   : }

  00320	52		 push	 edx
  00321	8b cd		 mov	 ecx, ebp
  00323	50		 push	 eax
  00324	8d 15 00 00 00
	00		 lea	 edx, DWORD PTR $L193082
  0032a	e8 00 00 00 00	 call	 @_RTC_CheckStackVars@8
  0032f	58		 pop	 eax
  00330	5a		 pop	 edx
  00331	83 c4 1c	 add	 esp, 28			; 0000001cH
  00334	3b ec		 cmp	 ebp, esp
  00336	e8 00 00 00 00	 call	 __RTC_CheckEsp
  0033b	8b e5		 mov	 esp, ebp
  0033d	5d		 pop	 ebp
  0033e	c3		 ret	 0
$L193082:
  0033f	01 00 00 00	 DD	 1
  00343	00 00 00 00	 DD	 $L193081
$L193081:
  00347	e8 ff ff ff	 DD	 -24			; ffffffe8H
  0034b	10 00 00 00	 DD	 16			; 00000010H
  0034f	00 00 00 00	 DD	 $L193080
$L193080:
  00353	72		 DB	 114			; 00000072H
  00354	63		 DB	 99			; 00000063H
  00355	00		 DB	 0
?getMinConstrainVert@PaneSplitter@ETSLayoutMgr@@UAEHXZ ENDP ; ETSLayoutMgr::PaneSplitter::getMinConstrainVert
_TEXT	ENDS
PUBLIC	??A?$CArray@VCPaneBase@ETSLayoutMgr@@V12@@@QAEAAVCPaneBase@ETSLayoutMgr@@H@Z ; CArray<ETSLayoutMgr::CPaneBase,ETSLayoutMgr::CPaneBase>::operator[]
PUBLIC	?IsClosed@PaneSplitter@ETSLayoutMgr@@QAEHXZ	; ETSLayoutMgr::PaneSplitter::IsClosed
PUBLIC	?modeResize@PaneBase@ETSLayoutMgr@@QAEKXZ	; ETSLayoutMgr::PaneBase::modeResize
EXTRN	?resizeTo@Pane@ETSLayoutMgr@@UAE_NAAVCRect@@_N1@Z:NEAR ; ETSLayoutMgr::Pane::resizeTo
EXTRN	??0CPaneBase@ETSLayoutMgr@@QAE@ABV01@@Z:NEAR	; ETSLayoutMgr::CPaneBase::CPaneBase
EXTRN	??1CPaneBase@ETSLayoutMgr@@QAE@XZ:NEAR		; ETSLayoutMgr::CPaneBase::~CPaneBase
EXTRN	??CCPaneBase@ETSLayoutMgr@@QBEPAVPaneBase@1@XZ:NEAR ; ETSLayoutMgr::CPaneBase::operator->
xdata$x	SEGMENT
$T193100 DD	0ffffffffH
	DD	FLAT:$L193089
	DD	00H
	DD	FLAT:$L193090
	DD	01H
	DD	FLAT:$L193091
$T193093 DD	019930520H
	DD	03H
	DD	FLAT:$T193100
	DD	2 DUP(00H)
	DD	2 DUP(00H)
; Function compile flags: /Odt /RTCsu
xdata$x	ENDS
_TEXT	SEGMENT
tv212 = -148						; size = 4
tv197 = -144						; size = 4
tv173 = -140						; size = 4
tv158 = -136						; size = 4
$T193088 = -129						; size = 1
$T193087 = -128						; size = 16
$T193086 = -112						; size = 16
$T193085 = -96						; size = 16
$T193084 = -80						; size = 16
_pItem2$ = -60						; size = 4
_pItem1$ = -48						; size = 4
_pItem3$ = -36						; size = 4
_modeSize2$ = -28					; size = 4
_modeSize1$ = -24					; size = 4
_ret$ = -17						; size = 1
_this$ = -16						; size = 4
__$EHRec$ = -12						; size = 12
_rcNewArea$ = 8						; size = 4
_bRedraw$ = 12						; size = 1
_bReSizeAlways$ = 16					; size = 1
?resizeTo@PaneSplitter@ETSLayoutMgr@@UAE_NAAVCRect@@_N1@Z PROC NEAR ; ETSLayoutMgr::PaneSplitter::resizeTo
; _this$ = ecx

; 87   : {

  00360	55		 push	 ebp
  00361	8b ec		 mov	 ebp, esp
  00363	6a ff		 push	 -1
  00365	68 00 00 00 00	 push	 __ehhandler$?resizeTo@PaneSplitter@ETSLayoutMgr@@UAE_NAAVCRect@@_N1@Z
  0036a	64 a1 00 00 00
	00		 mov	 eax, DWORD PTR fs:__except_list
  00370	50		 push	 eax
  00371	64 89 25 00 00
	00 00		 mov	 DWORD PTR fs:__except_list, esp
  00378	81 ec 88 00 00
	00		 sub	 esp, 136		; 00000088H
  0037e	56		 push	 esi
  0037f	57		 push	 edi
  00380	51		 push	 ecx
  00381	8d bd 6c ff ff
	ff		 lea	 edi, DWORD PTR [ebp-148]
  00387	b9 22 00 00 00	 mov	 ecx, 34			; 00000022H
  0038c	b8 cc cc cc cc	 mov	 eax, -858993460		; ccccccccH
  00391	f3 ab		 rep stosd
  00393	59		 pop	 ecx
  00394	89 4d f0	 mov	 DWORD PTR _this$[ebp], ecx

; 88   : 	bool ret;
; 89   : 
; 90   : 	int modeSize1 , modeSize2 ;
; 91   : 	modeSize1 = modeSize2 = -1;

  00397	c7 45 e4 ff ff
	ff ff		 mov	 DWORD PTR _modeSize2$[ebp], -1
  0039e	8b 45 e4	 mov	 eax, DWORD PTR _modeSize2$[ebp]
  003a1	89 45 e8	 mov	 DWORD PTR _modeSize1$[ebp], eax

; 92   : 	if(rcNewArea.left > rcNewArea.right)

  003a4	8b 4d 08	 mov	 ecx, DWORD PTR _rcNewArea$[ebp]
  003a7	8b 55 08	 mov	 edx, DWORD PTR _rcNewArea$[ebp]
  003aa	8b 01		 mov	 eax, DWORD PTR [ecx]
  003ac	3b 42 08	 cmp	 eax, DWORD PTR [edx+8]
  003af	7e 07		 jle	 SHORT $L190509

; 93   : 		return true;

  003b1	b0 01		 mov	 al, 1
  003b3	e9 f4 02 00 00	 jmp	 $L190505
$L190509:

; 94   : 
; 95   : 	if( (rcNewArea.Width() < m_rcRect.Width()	|| rcNewArea.Height() < m_rcRect.Height() || m_nDeflate == -1)
; 96   : 		&& !this->IsClosed()
; 97   : 		)

  003b8	8b 4d 08	 mov	 ecx, DWORD PTR _rcNewArea$[ebp]
  003bb	e8 00 00 00 00	 call	 ?Width@CRect@@QBEHXZ	; CRect::Width
  003c0	8b f0		 mov	 esi, eax
  003c2	8b 4d f0	 mov	 ecx, DWORD PTR _this$[ebp]
  003c5	83 c1 28	 add	 ecx, 40			; 00000028H
  003c8	e8 00 00 00 00	 call	 ?Width@CRect@@QBEHXZ	; CRect::Width
  003cd	3b f0		 cmp	 esi, eax
  003cf	7c 25		 jl	 SHORT $L190511
  003d1	8b 4d 08	 mov	 ecx, DWORD PTR _rcNewArea$[ebp]
  003d4	e8 00 00 00 00	 call	 ?Height@CRect@@QBEHXZ	; CRect::Height
  003d9	8b f0		 mov	 esi, eax
  003db	8b 4d f0	 mov	 ecx, DWORD PTR _this$[ebp]
  003de	83 c1 28	 add	 ecx, 40			; 00000028H
  003e1	e8 00 00 00 00	 call	 ?Height@CRect@@QBEHXZ	; CRect::Height
  003e6	3b f0		 cmp	 esi, eax
  003e8	7c 0c		 jl	 SHORT $L190511
  003ea	8b 4d f0	 mov	 ecx, DWORD PTR _this$[ebp]
  003ed	83 b9 90 00 00
	00 ff		 cmp	 DWORD PTR [ecx+144], -1
  003f4	75 1b		 jne	 SHORT $L190510
$L190511:
  003f6	8b 4d f0	 mov	 ecx, DWORD PTR _this$[ebp]
  003f9	e8 00 00 00 00	 call	 ?IsClosed@PaneSplitter@ETSLayoutMgr@@QAEHXZ ; ETSLayoutMgr::PaneSplitter::IsClosed
  003fe	85 c0		 test	 eax, eax
  00400	75 0f		 jne	 SHORT $L190510

; 98   : 		m_nDeflate = true;

  00402	8b 55 f0	 mov	 edx, DWORD PTR _this$[ebp]
  00405	c7 82 90 00 00
	00 01 00 00 00	 mov	 DWORD PTR [edx+144], 1

; 99   : 	else

  0040f	eb 0d		 jmp	 SHORT $L190512
$L190510:

; 100  : 		m_nDeflate = false;

  00411	8b 45 f0	 mov	 eax, DWORD PTR _this$[ebp]
  00414	c7 80 90 00 00
	00 00 00 00 00	 mov	 DWORD PTR [eax+144], 0
$L190512:

; 101  : 
; 102  : 	CPaneBase pItem3 = this->m_paneItems[0];

  0041e	6a 00		 push	 0
  00420	8b 4d f0	 mov	 ecx, DWORD PTR _this$[ebp]
  00423	83 c1 64	 add	 ecx, 100		; 00000064H
  00426	e8 00 00 00 00	 call	 ??A?$CArray@VCPaneBase@ETSLayoutMgr@@V12@@@QAEAAVCPaneBase@ETSLayoutMgr@@H@Z ; CArray<ETSLayoutMgr::CPaneBase,ETSLayoutMgr::CPaneBase>::operator[]
  0042b	50		 push	 eax
  0042c	8d 4d dc	 lea	 ecx, DWORD PTR _pItem3$[ebp]
  0042f	e8 00 00 00 00	 call	 ??0CPaneBase@ETSLayoutMgr@@QAE@ABV01@@Z ; ETSLayoutMgr::CPaneBase::CPaneBase
  00434	c7 45 fc 00 00
	00 00		 mov	 DWORD PTR __$EHRec$[ebp+8], 0

; 103  : 	ret = Pane::resizeTo(rcNewArea, bRedraw, bReSizeAlways);

  0043b	8a 4d 10	 mov	 cl, BYTE PTR _bReSizeAlways$[ebp]
  0043e	51		 push	 ecx
  0043f	8a 55 0c	 mov	 dl, BYTE PTR _bRedraw$[ebp]
  00442	52		 push	 edx
  00443	8b 45 08	 mov	 eax, DWORD PTR _rcNewArea$[ebp]
  00446	50		 push	 eax
  00447	8b 4d f0	 mov	 ecx, DWORD PTR _this$[ebp]
  0044a	e8 00 00 00 00	 call	 ?resizeTo@Pane@ETSLayoutMgr@@UAE_NAAVCRect@@_N1@Z ; ETSLayoutMgr::Pane::resizeTo
  0044f	88 45 ef	 mov	 BYTE PTR _ret$[ebp], al

; 104  : //	this->m_pSpl->ShowWindow(SW_SHOW);
; 105  : 
; 106  : 	CPaneBase pItem1 = this->m_paneItems[0];

  00452	6a 00		 push	 0
  00454	8b 4d f0	 mov	 ecx, DWORD PTR _this$[ebp]
  00457	83 c1 64	 add	 ecx, 100		; 00000064H
  0045a	e8 00 00 00 00	 call	 ??A?$CArray@VCPaneBase@ETSLayoutMgr@@V12@@@QAEAAVCPaneBase@ETSLayoutMgr@@H@Z ; CArray<ETSLayoutMgr::CPaneBase,ETSLayoutMgr::CPaneBase>::operator[]
  0045f	50		 push	 eax
  00460	8d 4d d0	 lea	 ecx, DWORD PTR _pItem1$[ebp]
  00463	e8 00 00 00 00	 call	 ??0CPaneBase@ETSLayoutMgr@@QAE@ABV01@@Z ; ETSLayoutMgr::CPaneBase::CPaneBase
  00468	c6 45 fc 01	 mov	 BYTE PTR __$EHRec$[ebp+8], 1

; 107  : 	CPaneBase pItem2 = this->m_paneItems[2];

  0046c	6a 02		 push	 2
  0046e	8b 4d f0	 mov	 ecx, DWORD PTR _this$[ebp]
  00471	83 c1 64	 add	 ecx, 100		; 00000064H
  00474	e8 00 00 00 00	 call	 ??A?$CArray@VCPaneBase@ETSLayoutMgr@@V12@@@QAEAAVCPaneBase@ETSLayoutMgr@@H@Z ; CArray<ETSLayoutMgr::CPaneBase,ETSLayoutMgr::CPaneBase>::operator[]
  00479	50		 push	 eax
  0047a	8d 4d c4	 lea	 ecx, DWORD PTR _pItem2$[ebp]
  0047d	e8 00 00 00 00	 call	 ??0CPaneBase@ETSLayoutMgr@@QAE@ABV01@@Z ; ETSLayoutMgr::CPaneBase::CPaneBase
  00482	c6 45 fc 02	 mov	 BYTE PTR __$EHRec$[ebp+8], 2

; 108  : 	if( m_nDeflate &&
; 109  : 		(pItem1->getPaneRect().Width() == pItem1->getMinConstrainHorz() 
; 110  : 		|| pItem1->getPaneRect().Height() == pItem1->getMinConstrainVert())
; 111  : 		)

  00486	8b 4d f0	 mov	 ecx, DWORD PTR _this$[ebp]
  00489	83 b9 90 00 00
	00 00		 cmp	 DWORD PTR [ecx+144], 0
  00490	0f 84 b1 00 00
	00		 je	 $L190518
  00496	8d 4d d0	 lea	 ecx, DWORD PTR _pItem1$[ebp]
  00499	e8 00 00 00 00	 call	 ??CCPaneBase@ETSLayoutMgr@@QBEPAVPaneBase@1@XZ ; ETSLayoutMgr::CPaneBase::operator->
  0049e	89 85 78 ff ff
	ff		 mov	 DWORD PTR tv158[ebp], eax
  004a4	8b f4		 mov	 esi, esp
  004a6	8b 95 78 ff ff
	ff		 mov	 edx, DWORD PTR tv158[ebp]
  004ac	8b 02		 mov	 eax, DWORD PTR [edx]
  004ae	8b 8d 78 ff ff
	ff		 mov	 ecx, DWORD PTR tv158[ebp]
  004b4	ff 50 08	 call	 DWORD PTR [eax+8]
  004b7	3b f4		 cmp	 esi, esp
  004b9	e8 00 00 00 00	 call	 __RTC_CheckEsp
  004be	8b f0		 mov	 esi, eax
  004c0	8d 4d b0	 lea	 ecx, DWORD PTR $T193084[ebp]
  004c3	51		 push	 ecx
  004c4	8d 4d d0	 lea	 ecx, DWORD PTR _pItem1$[ebp]
  004c7	e8 00 00 00 00	 call	 ??CCPaneBase@ETSLayoutMgr@@QBEPAVPaneBase@1@XZ ; ETSLayoutMgr::CPaneBase::operator->
  004cc	8b c8		 mov	 ecx, eax
  004ce	e8 00 00 00 00	 call	 ?getPaneRect@PaneBase@ETSLayoutMgr@@QAE?AVCRect@@XZ ; ETSLayoutMgr::PaneBase::getPaneRect
  004d3	8b c8		 mov	 ecx, eax
  004d5	e8 00 00 00 00	 call	 ?Width@CRect@@QBEHXZ	; CRect::Width
  004da	3b c6		 cmp	 eax, esi
  004dc	74 48		 je	 SHORT $L190519
  004de	8d 4d d0	 lea	 ecx, DWORD PTR _pItem1$[ebp]
  004e1	e8 00 00 00 00	 call	 ??CCPaneBase@ETSLayoutMgr@@QBEPAVPaneBase@1@XZ ; ETSLayoutMgr::CPaneBase::operator->
  004e6	89 85 74 ff ff
	ff		 mov	 DWORD PTR tv173[ebp], eax
  004ec	8b f4		 mov	 esi, esp
  004ee	8b 95 74 ff ff
	ff		 mov	 edx, DWORD PTR tv173[ebp]
  004f4	8b 02		 mov	 eax, DWORD PTR [edx]
  004f6	8b 8d 74 ff ff
	ff		 mov	 ecx, DWORD PTR tv173[ebp]
  004fc	ff 50 10	 call	 DWORD PTR [eax+16]
  004ff	3b f4		 cmp	 esi, esp
  00501	e8 00 00 00 00	 call	 __RTC_CheckEsp
  00506	8b f0		 mov	 esi, eax
  00508	8d 4d a0	 lea	 ecx, DWORD PTR $T193085[ebp]
  0050b	51		 push	 ecx
  0050c	8d 4d d0	 lea	 ecx, DWORD PTR _pItem1$[ebp]
  0050f	e8 00 00 00 00	 call	 ??CCPaneBase@ETSLayoutMgr@@QBEPAVPaneBase@1@XZ ; ETSLayoutMgr::CPaneBase::operator->
  00514	8b c8		 mov	 ecx, eax
  00516	e8 00 00 00 00	 call	 ?getPaneRect@PaneBase@ETSLayoutMgr@@QAE?AVCRect@@XZ ; ETSLayoutMgr::PaneBase::getPaneRect
  0051b	8b c8		 mov	 ecx, eax
  0051d	e8 00 00 00 00	 call	 ?Height@CRect@@QBEHXZ	; CRect::Height
  00522	3b c6		 cmp	 eax, esi
  00524	75 21		 jne	 SHORT $L190518
$L190519:

; 112  : 	{
; 113  : 		modeSize2 = pItem2->modeResize();

  00526	8d 4d c4	 lea	 ecx, DWORD PTR _pItem2$[ebp]
  00529	e8 00 00 00 00	 call	 ??CCPaneBase@ETSLayoutMgr@@QBEPAVPaneBase@1@XZ ; ETSLayoutMgr::CPaneBase::operator->
  0052e	8b c8		 mov	 ecx, eax
  00530	e8 00 00 00 00	 call	 ?modeResize@PaneBase@ETSLayoutMgr@@QAEKXZ ; ETSLayoutMgr::PaneBase::modeResize
  00535	89 45 e4	 mov	 DWORD PTR _modeSize2$[ebp], eax

; 114  : 		pItem2->m_modeResize = GREEDY;

  00538	8d 4d c4	 lea	 ecx, DWORD PTR _pItem2$[ebp]
  0053b	e8 00 00 00 00	 call	 ??CCPaneBase@ETSLayoutMgr@@QBEPAVPaneBase@1@XZ ; ETSLayoutMgr::CPaneBase::operator->
  00540	c7 40 18 00 00
	00 00		 mov	 DWORD PTR [eax+24], 0
$L190518:

; 115  : 
; 116  : 	}
; 117  : 	if( m_nDeflate &&
; 118  : 		(pItem2->getPaneRect().Width() == pItem2->getMinConstrainHorz() 
; 119  : 		|| pItem2->getPaneRect().Height() == pItem2->getMinConstrainVert())
; 120  : 		)

  00547	8b 55 f0	 mov	 edx, DWORD PTR _this$[ebp]
  0054a	83 ba 90 00 00
	00 00		 cmp	 DWORD PTR [edx+144], 0
  00551	0f 84 b1 00 00
	00		 je	 $L190522
  00557	8d 4d c4	 lea	 ecx, DWORD PTR _pItem2$[ebp]
  0055a	e8 00 00 00 00	 call	 ??CCPaneBase@ETSLayoutMgr@@QBEPAVPaneBase@1@XZ ; ETSLayoutMgr::CPaneBase::operator->
  0055f	89 85 70 ff ff
	ff		 mov	 DWORD PTR tv197[ebp], eax
  00565	8b f4		 mov	 esi, esp
  00567	8b 85 70 ff ff
	ff		 mov	 eax, DWORD PTR tv197[ebp]
  0056d	8b 10		 mov	 edx, DWORD PTR [eax]
  0056f	8b 8d 70 ff ff
	ff		 mov	 ecx, DWORD PTR tv197[ebp]
  00575	ff 52 08	 call	 DWORD PTR [edx+8]
  00578	3b f4		 cmp	 esi, esp
  0057a	e8 00 00 00 00	 call	 __RTC_CheckEsp
  0057f	8b f0		 mov	 esi, eax
  00581	8d 45 90	 lea	 eax, DWORD PTR $T193086[ebp]
  00584	50		 push	 eax
  00585	8d 4d c4	 lea	 ecx, DWORD PTR _pItem2$[ebp]
  00588	e8 00 00 00 00	 call	 ??CCPaneBase@ETSLayoutMgr@@QBEPAVPaneBase@1@XZ ; ETSLayoutMgr::CPaneBase::operator->
  0058d	8b c8		 mov	 ecx, eax
  0058f	e8 00 00 00 00	 call	 ?getPaneRect@PaneBase@ETSLayoutMgr@@QAE?AVCRect@@XZ ; ETSLayoutMgr::PaneBase::getPaneRect
  00594	8b c8		 mov	 ecx, eax
  00596	e8 00 00 00 00	 call	 ?Width@CRect@@QBEHXZ	; CRect::Width
  0059b	3b c6		 cmp	 eax, esi
  0059d	74 48		 je	 SHORT $L190523
  0059f	8d 4d c4	 lea	 ecx, DWORD PTR _pItem2$[ebp]
  005a2	e8 00 00 00 00	 call	 ??CCPaneBase@ETSLayoutMgr@@QBEPAVPaneBase@1@XZ ; ETSLayoutMgr::CPaneBase::operator->
  005a7	89 85 6c ff ff
	ff		 mov	 DWORD PTR tv212[ebp], eax
  005ad	8b f4		 mov	 esi, esp
  005af	8b 8d 6c ff ff
	ff		 mov	 ecx, DWORD PTR tv212[ebp]
  005b5	8b 11		 mov	 edx, DWORD PTR [ecx]
  005b7	8b 8d 6c ff ff
	ff		 mov	 ecx, DWORD PTR tv212[ebp]
  005bd	ff 52 10	 call	 DWORD PTR [edx+16]
  005c0	3b f4		 cmp	 esi, esp
  005c2	e8 00 00 00 00	 call	 __RTC_CheckEsp
  005c7	8b f0		 mov	 esi, eax
  005c9	8d 45 80	 lea	 eax, DWORD PTR $T193087[ebp]
  005cc	50		 push	 eax
  005cd	8d 4d c4	 lea	 ecx, DWORD PTR _pItem2$[ebp]
  005d0	e8 00 00 00 00	 call	 ??CCPaneBase@ETSLayoutMgr@@QBEPAVPaneBase@1@XZ ; ETSLayoutMgr::CPaneBase::operator->
  005d5	8b c8		 mov	 ecx, eax
  005d7	e8 00 00 00 00	 call	 ?getPaneRect@PaneBase@ETSLayoutMgr@@QAE?AVCRect@@XZ ; ETSLayoutMgr::PaneBase::getPaneRect
  005dc	8b c8		 mov	 ecx, eax
  005de	e8 00 00 00 00	 call	 ?Height@CRect@@QBEHXZ	; CRect::Height
  005e3	3b c6		 cmp	 eax, esi
  005e5	75 21		 jne	 SHORT $L190522
$L190523:

; 121  : 	{
; 122  : 		modeSize1 = pItem1->modeResize();

  005e7	8d 4d d0	 lea	 ecx, DWORD PTR _pItem1$[ebp]
  005ea	e8 00 00 00 00	 call	 ??CCPaneBase@ETSLayoutMgr@@QBEPAVPaneBase@1@XZ ; ETSLayoutMgr::CPaneBase::operator->
  005ef	8b c8		 mov	 ecx, eax
  005f1	e8 00 00 00 00	 call	 ?modeResize@PaneBase@ETSLayoutMgr@@QAEKXZ ; ETSLayoutMgr::PaneBase::modeResize
  005f6	89 45 e8	 mov	 DWORD PTR _modeSize1$[ebp], eax

; 123  : 		pItem1->m_modeResize = GREEDY;

  005f9	8d 4d d0	 lea	 ecx, DWORD PTR _pItem1$[ebp]
  005fc	e8 00 00 00 00	 call	 ??CCPaneBase@ETSLayoutMgr@@QBEPAVPaneBase@1@XZ ; ETSLayoutMgr::CPaneBase::operator->
  00601	c7 40 18 00 00
	00 00		 mov	 DWORD PTR [eax+24], 0
$L190522:

; 124  : 	}
; 125  : 
; 126  : 
; 127  : 	ret = Pane::resizeTo(rcNewArea, bRedraw, bReSizeAlways);

  00608	8a 4d 10	 mov	 cl, BYTE PTR _bReSizeAlways$[ebp]
  0060b	51		 push	 ecx
  0060c	8a 55 0c	 mov	 dl, BYTE PTR _bRedraw$[ebp]
  0060f	52		 push	 edx
  00610	8b 45 08	 mov	 eax, DWORD PTR _rcNewArea$[ebp]
  00613	50		 push	 eax
  00614	8b 4d f0	 mov	 ecx, DWORD PTR _this$[ebp]
  00617	e8 00 00 00 00	 call	 ?resizeTo@Pane@ETSLayoutMgr@@UAE_NAAVCRect@@_N1@Z ; ETSLayoutMgr::Pane::resizeTo
  0061c	88 45 ef	 mov	 BYTE PTR _ret$[ebp], al

; 128  : 	m_rcRect = rcNewArea;

  0061f	8b 4d 08	 mov	 ecx, DWORD PTR _rcNewArea$[ebp]
  00622	8b 55 f0	 mov	 edx, DWORD PTR _this$[ebp]
  00625	83 c2 28	 add	 edx, 40			; 00000028H
  00628	8b 01		 mov	 eax, DWORD PTR [ecx]
  0062a	89 02		 mov	 DWORD PTR [edx], eax
  0062c	8b 41 04	 mov	 eax, DWORD PTR [ecx+4]
  0062f	89 42 04	 mov	 DWORD PTR [edx+4], eax
  00632	8b 41 08	 mov	 eax, DWORD PTR [ecx+8]
  00635	89 42 08	 mov	 DWORD PTR [edx+8], eax
  00638	8b 49 0c	 mov	 ecx, DWORD PTR [ecx+12]
  0063b	89 4a 0c	 mov	 DWORD PTR [edx+12], ecx

; 129  : 	m_pSpl->ShowWindow(SW_SHOW);

  0063e	6a 05		 push	 5
  00640	8b 55 f0	 mov	 edx, DWORD PTR _this$[ebp]
  00643	8b 8a 94 00 00
	00		 mov	 ecx, DWORD PTR [edx+148]
  00649	e8 00 00 00 00	 call	 ?ShowWindow@CWnd@@QAEHH@Z ; CWnd::ShowWindow

; 130  : 
; 131  : 	if(modeSize1 != -1)

  0064e	83 7d e8 ff	 cmp	 DWORD PTR _modeSize1$[ebp], -1
  00652	74 0e		 je	 SHORT $L190524

; 132  : 		pItem1->m_modeResize = modeSize1;

  00654	8d 4d d0	 lea	 ecx, DWORD PTR _pItem1$[ebp]
  00657	e8 00 00 00 00	 call	 ??CCPaneBase@ETSLayoutMgr@@QBEPAVPaneBase@1@XZ ; ETSLayoutMgr::CPaneBase::operator->
  0065c	8b 4d e8	 mov	 ecx, DWORD PTR _modeSize1$[ebp]
  0065f	89 48 18	 mov	 DWORD PTR [eax+24], ecx
$L190524:

; 133  : 	if(modeSize2 != -1)

  00662	83 7d e4 ff	 cmp	 DWORD PTR _modeSize2$[ebp], -1
  00666	74 0e		 je	 SHORT $L190525

; 134  : 		pItem2->m_modeResize = modeSize2;

  00668	8d 4d c4	 lea	 ecx, DWORD PTR _pItem2$[ebp]
  0066b	e8 00 00 00 00	 call	 ??CCPaneBase@ETSLayoutMgr@@QBEPAVPaneBase@1@XZ ; ETSLayoutMgr::CPaneBase::operator->
  00670	8b 55 e4	 mov	 edx, DWORD PTR _modeSize2$[ebp]
  00673	89 50 18	 mov	 DWORD PTR [eax+24], edx
$L190525:

; 135  : 
; 136  : 	return ret;

  00676	8a 45 ef	 mov	 al, BYTE PTR _ret$[ebp]
  00679	88 85 7f ff ff
	ff		 mov	 BYTE PTR $T193088[ebp], al
  0067f	c6 45 fc 01	 mov	 BYTE PTR __$EHRec$[ebp+8], 1
  00683	8d 4d c4	 lea	 ecx, DWORD PTR _pItem2$[ebp]
  00686	e8 00 00 00 00	 call	 ??1CPaneBase@ETSLayoutMgr@@QAE@XZ ; ETSLayoutMgr::CPaneBase::~CPaneBase
  0068b	c6 45 fc 00	 mov	 BYTE PTR __$EHRec$[ebp+8], 0
  0068f	8d 4d d0	 lea	 ecx, DWORD PTR _pItem1$[ebp]
  00692	e8 00 00 00 00	 call	 ??1CPaneBase@ETSLayoutMgr@@QAE@XZ ; ETSLayoutMgr::CPaneBase::~CPaneBase
  00697	c7 45 fc ff ff
	ff ff		 mov	 DWORD PTR __$EHRec$[ebp+8], -1
  0069e	8d 4d dc	 lea	 ecx, DWORD PTR _pItem3$[ebp]
  006a1	e8 00 00 00 00	 call	 ??1CPaneBase@ETSLayoutMgr@@QAE@XZ ; ETSLayoutMgr::CPaneBase::~CPaneBase
  006a6	8a 85 7f ff ff
	ff		 mov	 al, BYTE PTR $T193088[ebp]
$L190505:

; 137  : }

  006ac	52		 push	 edx
  006ad	8b cd		 mov	 ecx, ebp
  006af	50		 push	 eax
  006b0	8d 15 00 00 00
	00		 lea	 edx, DWORD PTR $L193099
  006b6	e8 00 00 00 00	 call	 @_RTC_CheckStackVars@8
  006bb	58		 pop	 eax
  006bc	5a		 pop	 edx
  006bd	8b 4d f4	 mov	 ecx, DWORD PTR __$EHRec$[ebp]
  006c0	64 89 0d 00 00
	00 00		 mov	 DWORD PTR fs:__except_list, ecx
  006c7	5f		 pop	 edi
  006c8	5e		 pop	 esi
  006c9	81 c4 94 00 00
	00		 add	 esp, 148		; 00000094H
  006cf	3b ec		 cmp	 ebp, esp
  006d1	e8 00 00 00 00	 call	 __RTC_CheckEsp
  006d6	8b e5		 mov	 esp, ebp
  006d8	5d		 pop	 ebp
  006d9	c2 0c 00	 ret	 12			; 0000000cH
$L193099:
  006dc	03 00 00 00	 DD	 3
  006e0	00 00 00 00	 DD	 $L193098
$L193098:
  006e4	dc ff ff ff	 DD	 -36			; ffffffdcH
  006e8	04 00 00 00	 DD	 4
  006ec	00 00 00 00	 DD	 $L193094
  006f0	d0 ff ff ff	 DD	 -48			; ffffffd0H
  006f4	04 00 00 00	 DD	 4
  006f8	00 00 00 00	 DD	 $L193095
  006fc	c4 ff ff ff	 DD	 -60			; ffffffc4H
  00700	04 00 00 00	 DD	 4
  00704	00 00 00 00	 DD	 $L193096
$L193096:
  00708	70		 DB	 112			; 00000070H
  00709	49		 DB	 73			; 00000049H
  0070a	74		 DB	 116			; 00000074H
  0070b	65		 DB	 101			; 00000065H
  0070c	6d		 DB	 109			; 0000006dH
  0070d	32		 DB	 50			; 00000032H
  0070e	00		 DB	 0
$L193095:
  0070f	70		 DB	 112			; 00000070H
  00710	49		 DB	 73			; 00000049H
  00711	74		 DB	 116			; 00000074H
  00712	65		 DB	 101			; 00000065H
  00713	6d		 DB	 109			; 0000006dH
  00714	31		 DB	 49			; 00000031H
  00715	00		 DB	 0
$L193094:
  00716	70		 DB	 112			; 00000070H
  00717	49		 DB	 73			; 00000049H
  00718	74		 DB	 116			; 00000074H
  00719	65		 DB	 101			; 00000065H
  0071a	6d		 DB	 109			; 0000006dH
  0071b	33		 DB	 51			; 00000033H
  0071c	00		 DB	 0
_TEXT	ENDS
text$x	SEGMENT
$L193089:
  00027	8d 4d dc	 lea	 ecx, DWORD PTR _pItem3$[ebp]
  0002a	e9 00 00 00 00	 jmp	 ??1CPaneBase@ETSLayoutMgr@@QAE@XZ ; ETSLayoutMgr::CPaneBase::~CPaneBase
$L193090:
  0002f	8d 4d d0	 lea	 ecx, DWORD PTR _pItem1$[ebp]
  00032	e9 00 00 00 00	 jmp	 ??1CPaneBase@ETSLayoutMgr@@QAE@XZ ; ETSLayoutMgr::CPaneBase::~CPaneBase
$L193091:
  00037	8d 4d c4	 lea	 ecx, DWORD PTR _pItem2$[ebp]
  0003a	e9 00 00 00 00	 jmp	 ??1CPaneBase@ETSLayoutMgr@@QAE@XZ ; ETSLayoutMgr::CPaneBase::~CPaneBase
__ehhandler$?resizeTo@PaneSplitter@ETSLayoutMgr@@UAE_NAAVCRect@@_N1@Z:
  0003f	b8 00 00 00 00	 mov	 eax, OFFSET FLAT:$T193093
  00044	e9 00 00 00 00	 jmp	 ___CxxFrameHandler
text$x	ENDS
?resizeTo@PaneSplitter@ETSLayoutMgr@@UAE_NAAVCRect@@_N1@Z ENDP ; ETSLayoutMgr::PaneSplitter::resizeTo
; Function compile flags: /Odt /RTCsu
; File d:\boxgit\playbox\playbox\dev\prj\playbox\src\layoutmgr\etslayout.h
;	COMDAT ?modeResize@PaneBase@ETSLayoutMgr@@QAEKXZ
_TEXT	SEGMENT
_this$ = -4						; size = 4
?modeResize@PaneBase@ETSLayoutMgr@@QAEKXZ PROC NEAR	; ETSLayoutMgr::PaneBase::modeResize, COMDAT
; _this$ = ecx

; 294  : 		DWORD	modeResize() { return m_modeResize; };

  00000	55		 push	 ebp
  00001	8b ec		 mov	 ebp, esp
  00003	51		 push	 ecx
  00004	c7 45 fc cc cc
	cc cc		 mov	 DWORD PTR [ebp-4], -858993460 ; ccccccccH
  0000b	89 4d fc	 mov	 DWORD PTR _this$[ebp], ecx
  0000e	8b 45 fc	 mov	 eax, DWORD PTR _this$[ebp]
  00011	8b 40 18	 mov	 eax, DWORD PTR [eax+24]
  00014	8b e5		 mov	 esp, ebp
  00016	5d		 pop	 ebp
  00017	c3		 ret	 0
?modeResize@PaneBase@ETSLayoutMgr@@QAEKXZ ENDP		; ETSLayoutMgr::PaneBase::modeResize
_TEXT	ENDS
PUBLIC	?setOpenConstrain@PaneSplitter@ETSLayoutMgr@@QAEXXZ ; ETSLayoutMgr::PaneSplitter::setOpenConstrain
PUBLIC	??0CTraceFileAndLineInfo@ATL@@QAE@PBDH@Z	; ATL::CTraceFileAndLineInfo::CTraceFileAndLineInfo
PUBLIC	??RCTraceFileAndLineInfo@ATL@@QBAXPBDZZ		; ATL::CTraceFileAndLineInfo::operator()
EXTRN	??0CPaneBase@ETSLayoutMgr@@QAE@XZ:NEAR		; ETSLayoutMgr::CPaneBase::CPaneBase
EXTRN	??4CPaneBase@ETSLayoutMgr@@QAEXABV01@@Z:NEAR	; ETSLayoutMgr::CPaneBase::operator=
xdata$x	SEGMENT
$T193112 DD	0ffffffffH
	DD	FLAT:$L193104
$T193106 DD	019930520H
	DD	01H
	DD	FLAT:$T193112
	DD	2 DUP(00H)
	DD	2 DUP(00H)
; Function compile flags: /Odt /RTCsu
; File d:\boxgit\playbox\playbox\dev\prj\playbox\src\layoutmgr\etslayoutex.cpp
xdata$x	ENDS
_TEXT	SEGMENT
$T193103 = -60						; size = 8
_rc$ = -48						; size = 16
_pItem$ = -24						; size = 4
_this$ = -16						; size = 4
__$EHRec$ = -12						; size = 12
?setOpenConstrain@PaneSplitter@ETSLayoutMgr@@QAEXXZ PROC NEAR ; ETSLayoutMgr::PaneSplitter::setOpenConstrain
; _this$ = ecx

; 141  : {

  00720	55		 push	 ebp
  00721	8b ec		 mov	 ebp, esp
  00723	6a ff		 push	 -1
  00725	68 00 00 00 00	 push	 __ehhandler$?setOpenConstrain@PaneSplitter@ETSLayoutMgr@@QAEXXZ
  0072a	64 a1 00 00 00
	00		 mov	 eax, DWORD PTR fs:__except_list
  00730	50		 push	 eax
  00731	64 89 25 00 00
	00 00		 mov	 DWORD PTR fs:__except_list, esp
  00738	83 ec 30	 sub	 esp, 48			; 00000030H
  0073b	57		 push	 edi
  0073c	51		 push	 ecx
  0073d	8d 7d c4	 lea	 edi, DWORD PTR [ebp-60]
  00740	b9 0c 00 00 00	 mov	 ecx, 12			; 0000000cH
  00745	b8 cc cc cc cc	 mov	 eax, -858993460		; ccccccccH
  0074a	f3 ab		 rep stosd
  0074c	59		 pop	 ecx
  0074d	89 4d f0	 mov	 DWORD PTR _this$[ebp], ecx

; 142  : 	CPaneBase pItem;

  00750	8d 4d e8	 lea	 ecx, DWORD PTR _pItem$[ebp]
  00753	e8 00 00 00 00	 call	 ??0CPaneBase@ETSLayoutMgr@@QAE@XZ ; ETSLayoutMgr::CPaneBase::CPaneBase
  00758	c7 45 fc 00 00
	00 00		 mov	 DWORD PTR __$EHRec$[ebp+8], 0

; 143  : 	if(this->m_nClosedOri == 0)

  0075f	8b 45 f0	 mov	 eax, DWORD PTR _this$[ebp]
  00762	83 b8 84 00 00
	00 00		 cmp	 DWORD PTR [eax+132], 0
  00769	75 18		 jne	 SHORT $L190531

; 144  : 		pItem = m_paneItems[0];

  0076b	6a 00		 push	 0
  0076d	8b 4d f0	 mov	 ecx, DWORD PTR _this$[ebp]
  00770	83 c1 64	 add	 ecx, 100		; 00000064H
  00773	e8 00 00 00 00	 call	 ??A?$CArray@VCPaneBase@ETSLayoutMgr@@V12@@@QAEAAVCPaneBase@ETSLayoutMgr@@H@Z ; CArray<ETSLayoutMgr::CPaneBase,ETSLayoutMgr::CPaneBase>::operator[]
  00778	50		 push	 eax
  00779	8d 4d e8	 lea	 ecx, DWORD PTR _pItem$[ebp]
  0077c	e8 00 00 00 00	 call	 ??4CPaneBase@ETSLayoutMgr@@QAEXABV01@@Z ; ETSLayoutMgr::CPaneBase::operator=

; 145  : 	else

  00781	eb 16		 jmp	 SHORT $L190532
$L190531:

; 146  : 		pItem = m_paneItems[2];

  00783	6a 02		 push	 2
  00785	8b 4d f0	 mov	 ecx, DWORD PTR _this$[ebp]
  00788	83 c1 64	 add	 ecx, 100		; 00000064H
  0078b	e8 00 00 00 00	 call	 ??A?$CArray@VCPaneBase@ETSLayoutMgr@@V12@@@QAEAAVCPaneBase@ETSLayoutMgr@@H@Z ; CArray<ETSLayoutMgr::CPaneBase,ETSLayoutMgr::CPaneBase>::operator[]
  00790	50		 push	 eax
  00791	8d 4d e8	 lea	 ecx, DWORD PTR _pItem$[ebp]
  00794	e8 00 00 00 00	 call	 ??4CPaneBase@ETSLayoutMgr@@QAEXABV01@@Z ; ETSLayoutMgr::CPaneBase::operator=
$L190532:

; 147  : 	CRect rc = pItem->getPaneRect();

  00799	8d 4d d0	 lea	 ecx, DWORD PTR _rc$[ebp]
  0079c	51		 push	 ecx
  0079d	8d 4d e8	 lea	 ecx, DWORD PTR _pItem$[ebp]
  007a0	e8 00 00 00 00	 call	 ??CCPaneBase@ETSLayoutMgr@@QBEPAVPaneBase@1@XZ ; ETSLayoutMgr::CPaneBase::operator->
  007a5	8b c8		 mov	 ecx, eax
  007a7	e8 00 00 00 00	 call	 ?getPaneRect@PaneBase@ETSLayoutMgr@@QAE?AVCRect@@XZ ; ETSLayoutMgr::PaneBase::getPaneRect

; 148  : 	
; 149  : 	if(this->m_Orientation == ETSLayoutMgr::HORIZONTAL)

  007ac	8b 55 f0	 mov	 edx, DWORD PTR _this$[ebp]
  007af	83 7a 60 00	 cmp	 DWORD PTR [edx+96], 0
  007b3	75 3d		 jne	 SHORT $L190535

; 150  : 	{
; 151  : 		this->m_nSplOpendPos = rc.Width();

  007b5	8d 4d d0	 lea	 ecx, DWORD PTR _rc$[ebp]
  007b8	e8 00 00 00 00	 call	 ?Width@CRect@@QBEHXZ	; CRect::Width
  007bd	8b 4d f0	 mov	 ecx, DWORD PTR _this$[ebp]
  007c0	89 81 8c 00 00
	00		 mov	 DWORD PTR [ecx+140], eax

; 152  : 		TRACE("fff%d\n", m_nSplOpendPos);

  007c6	8b 55 f0	 mov	 edx, DWORD PTR _this$[ebp]
  007c9	8b 82 8c 00 00
	00		 mov	 eax, DWORD PTR [edx+140]
  007cf	50		 push	 eax
  007d0	68 00 00 00 00	 push	 OFFSET FLAT:$SG190538
  007d5	68 98 00 00 00	 push	 152			; 00000098H
  007da	68 00 00 00 00	 push	 OFFSET FLAT:$SG190537
  007df	8d 4d c4	 lea	 ecx, DWORD PTR $T193103[ebp]
  007e2	e8 00 00 00 00	 call	 ??0CTraceFileAndLineInfo@ATL@@QAE@PBDH@Z ; ATL::CTraceFileAndLineInfo::CTraceFileAndLineInfo
  007e7	50		 push	 eax
  007e8	e8 00 00 00 00	 call	 ??RCTraceFileAndLineInfo@ATL@@QBAXPBDZZ ; ATL::CTraceFileAndLineInfo::operator()
  007ed	83 c4 0c	 add	 esp, 12			; 0000000cH

; 153  : 	}
; 154  : 	else

  007f0	eb 11		 jmp	 SHORT $L190539
$L190535:

; 155  : 	{
; 156  : 		this->m_nSplOpendPos = rc.Height();

  007f2	8d 4d d0	 lea	 ecx, DWORD PTR _rc$[ebp]
  007f5	e8 00 00 00 00	 call	 ?Height@CRect@@QBEHXZ	; CRect::Height
  007fa	8b 4d f0	 mov	 ecx, DWORD PTR _this$[ebp]
  007fd	89 81 8c 00 00
	00		 mov	 DWORD PTR [ecx+140], eax
$L190539:

; 157  : 	}
; 158  : 
; 159  : 	//m_sizeSecondary = m_nSplOpendPos;
; 160  : }

  00803	c7 45 fc ff ff
	ff ff		 mov	 DWORD PTR __$EHRec$[ebp+8], -1
  0080a	8d 4d e8	 lea	 ecx, DWORD PTR _pItem$[ebp]
  0080d	e8 00 00 00 00	 call	 ??1CPaneBase@ETSLayoutMgr@@QAE@XZ ; ETSLayoutMgr::CPaneBase::~CPaneBase
  00812	52		 push	 edx
  00813	8b cd		 mov	 ecx, ebp
  00815	50		 push	 eax
  00816	8d 15 00 00 00
	00		 lea	 edx, DWORD PTR $L193111
  0081c	e8 00 00 00 00	 call	 @_RTC_CheckStackVars@8
  00821	58		 pop	 eax
  00822	5a		 pop	 edx
  00823	8b 4d f4	 mov	 ecx, DWORD PTR __$EHRec$[ebp]
  00826	64 89 0d 00 00
	00 00		 mov	 DWORD PTR fs:__except_list, ecx
  0082d	5f		 pop	 edi
  0082e	83 c4 3c	 add	 esp, 60			; 0000003cH
  00831	3b ec		 cmp	 ebp, esp
  00833	e8 00 00 00 00	 call	 __RTC_CheckEsp
  00838	8b e5		 mov	 esp, ebp
  0083a	5d		 pop	 ebp
  0083b	c3		 ret	 0
$L193111:
  0083c	02 00 00 00	 DD	 2
  00840	00 00 00 00	 DD	 $L193110
$L193110:
  00844	e8 ff ff ff	 DD	 -24			; ffffffe8H
  00848	04 00 00 00	 DD	 4
  0084c	00 00 00 00	 DD	 $L193107
  00850	d0 ff ff ff	 DD	 -48			; ffffffd0H
  00854	10 00 00 00	 DD	 16			; 00000010H
  00858	00 00 00 00	 DD	 $L193108
$L193108:
  0085c	72		 DB	 114			; 00000072H
  0085d	63		 DB	 99			; 00000063H
  0085e	00		 DB	 0
$L193107:
  0085f	70		 DB	 112			; 00000070H
  00860	49		 DB	 73			; 00000049H
  00861	74		 DB	 116			; 00000074H
  00862	65		 DB	 101			; 00000065H
  00863	6d		 DB	 109			; 0000006dH
  00864	00		 DB	 0
_TEXT	ENDS
text$x	SEGMENT
$L193104:
  00049	8d 4d e8	 lea	 ecx, DWORD PTR _pItem$[ebp]
  0004c	e9 00 00 00 00	 jmp	 ??1CPaneBase@ETSLayoutMgr@@QAE@XZ ; ETSLayoutMgr::CPaneBase::~CPaneBase
__ehhandler$?setOpenConstrain@PaneSplitter@ETSLayoutMgr@@QAEXXZ:
  00051	b8 00 00 00 00	 mov	 eax, OFFSET FLAT:$T193106
  00056	e9 00 00 00 00	 jmp	 ___CxxFrameHandler
text$x	ENDS
?setOpenConstrain@PaneSplitter@ETSLayoutMgr@@QAEXXZ ENDP ; ETSLayoutMgr::PaneSplitter::setOpenConstrain
; Function compile flags: /Odt /RTCsu
; File d:\program files (x86)\microsoft visual studio .net 2003\vc7\atlmfc\include\atltrace.h
;	COMDAT ??0CTraceFileAndLineInfo@ATL@@QAE@PBDH@Z
_TEXT	SEGMENT
_this$ = -4						; size = 4
_pszFileName$ = 8					; size = 4
_nLineNo$ = 12						; size = 4
??0CTraceFileAndLineInfo@ATL@@QAE@PBDH@Z PROC NEAR	; ATL::CTraceFileAndLineInfo::CTraceFileAndLineInfo, COMDAT
; _this$ = ecx

; 158  : 	{}

  00000	55		 push	 ebp
  00001	8b ec		 mov	 ebp, esp
  00003	51		 push	 ecx
  00004	c7 45 fc cc cc
	cc cc		 mov	 DWORD PTR [ebp-4], -858993460 ; ccccccccH
  0000b	89 4d fc	 mov	 DWORD PTR _this$[ebp], ecx
  0000e	8b 45 fc	 mov	 eax, DWORD PTR _this$[ebp]
  00011	8b 4d 08	 mov	 ecx, DWORD PTR _pszFileName$[ebp]
  00014	89 08		 mov	 DWORD PTR [eax], ecx
  00016	8b 55 fc	 mov	 edx, DWORD PTR _this$[ebp]
  00019	8b 45 0c	 mov	 eax, DWORD PTR _nLineNo$[ebp]
  0001c	89 42 04	 mov	 DWORD PTR [edx+4], eax
  0001f	8b 45 fc	 mov	 eax, DWORD PTR _this$[ebp]
  00022	8b e5		 mov	 esp, ebp
  00024	5d		 pop	 ebp
  00025	c2 08 00	 ret	 8
??0CTraceFileAndLineInfo@ATL@@QAE@PBDH@Z ENDP		; ATL::CTraceFileAndLineInfo::CTraceFileAndLineInfo
_TEXT	ENDS
PUBLIC	??BCTraceCategory@ATL@@QBEKXZ			; ATL::CTraceCategory::operator unsigned long
PUBLIC	?TraceV@CTrace@ATL@@QBAXPBDHKI0PAD@Z		; ATL::CTrace::TraceV
EXTRN	?s_trace@CTrace@ATL@@2V12@A:QWORD		; ATL::CTrace::s_trace
EXTRN	?atlTraceGeneral@ATL@@3VCTraceCategory@1@A:DWORD ; ATL::atlTraceGeneral
; Function compile flags: /Odt /RTCsu
;	COMDAT ??RCTraceFileAndLineInfo@ATL@@QBAXPBDZZ
_TEXT	SEGMENT
_ptr$ = -4						; size = 4
_this$ = 8						; size = 4
_pszFmt$ = 12						; size = 4
??RCTraceFileAndLineInfo@ATL@@QBAXPBDZZ PROC NEAR	; ATL::CTraceFileAndLineInfo::operator(), COMDAT

; 173  : 	{

  00000	55		 push	 ebp
  00001	8b ec		 mov	 ebp, esp
  00003	51		 push	 ecx
  00004	c7 45 fc cc cc
	cc cc		 mov	 DWORD PTR [ebp-4], -858993460 ; ccccccccH

; 174  : 		va_list ptr; va_start(ptr, pszFmt);

  0000b	8d 45 10	 lea	 eax, DWORD PTR _pszFmt$[ebp+4]
  0000e	89 45 fc	 mov	 DWORD PTR _ptr$[ebp], eax

; 175  : 		ATL::CTrace::s_trace.TraceV(m_pszFileName, m_nLineNo, atlTraceGeneral, 0, pszFmt, ptr);

  00011	8b 4d fc	 mov	 ecx, DWORD PTR _ptr$[ebp]
  00014	51		 push	 ecx
  00015	8b 55 0c	 mov	 edx, DWORD PTR _pszFmt$[ebp]
  00018	52		 push	 edx
  00019	6a 00		 push	 0
  0001b	b9 00 00 00 00	 mov	 ecx, OFFSET FLAT:?atlTraceGeneral@ATL@@3VCTraceCategory@1@A ; ATL::atlTraceGeneral
  00020	e8 00 00 00 00	 call	 ??BCTraceCategory@ATL@@QBEKXZ ; ATL::CTraceCategory::operator unsigned long
  00025	50		 push	 eax
  00026	8b 45 08	 mov	 eax, DWORD PTR _this$[ebp]
  00029	8b 48 04	 mov	 ecx, DWORD PTR [eax+4]
  0002c	51		 push	 ecx
  0002d	8b 55 08	 mov	 edx, DWORD PTR _this$[ebp]
  00030	8b 02		 mov	 eax, DWORD PTR [edx]
  00032	50		 push	 eax
  00033	68 00 00 00 00	 push	 OFFSET FLAT:?s_trace@CTrace@ATL@@2V12@A
  00038	e8 00 00 00 00	 call	 ?TraceV@CTrace@ATL@@QBAXPBDHKI0PAD@Z ; ATL::CTrace::TraceV
  0003d	83 c4 1c	 add	 esp, 28			; 0000001cH

; 176  : 		va_end(ptr);

  00040	c7 45 fc 00 00
	00 00		 mov	 DWORD PTR _ptr$[ebp], 0

; 177  : 	}

  00047	83 c4 04	 add	 esp, 4
  0004a	3b ec		 cmp	 ebp, esp
  0004c	e8 00 00 00 00	 call	 __RTC_CheckEsp
  00051	8b e5		 mov	 esp, ebp
  00053	5d		 pop	 ebp
  00054	c3		 ret	 0
??RCTraceFileAndLineInfo@ATL@@QBAXPBDZZ ENDP		; ATL::CTraceFileAndLineInfo::operator()
_TEXT	ENDS
EXTRN	_AtlTraceVA:NEAR
; Function compile flags: /Odt /RTCsu
;	COMDAT ?TraceV@CTrace@ATL@@QBAXPBDHKI0PAD@Z
_TEXT	SEGMENT
_this$ = 8						; size = 4
_pszFileName$ = 12					; size = 4
_nLine$ = 16						; size = 4
_dwCategory$ = 20					; size = 4
_nLevel$ = 24						; size = 4
_pszFmt$ = 28						; size = 4
_args$ = 32						; size = 4
?TraceV@CTrace@ATL@@QBAXPBDHKI0PAD@Z PROC NEAR		; ATL::CTrace::TraceV, COMDAT

; 121  : 	{

  00000	55		 push	 ebp
  00001	8b ec		 mov	 ebp, esp

; 122  : 		AtlTraceVA(m_dwModule, pszFileName, nLine, dwCategory, nLevel, pszFmt, args);

  00003	8b 45 20	 mov	 eax, DWORD PTR _args$[ebp]
  00006	50		 push	 eax
  00007	8b 4d 1c	 mov	 ecx, DWORD PTR _pszFmt$[ebp]
  0000a	51		 push	 ecx
  0000b	8b 55 18	 mov	 edx, DWORD PTR _nLevel$[ebp]
  0000e	52		 push	 edx
  0000f	8b 45 14	 mov	 eax, DWORD PTR _dwCategory$[ebp]
  00012	50		 push	 eax
  00013	8b 4d 10	 mov	 ecx, DWORD PTR _nLine$[ebp]
  00016	51		 push	 ecx
  00017	8b 55 0c	 mov	 edx, DWORD PTR _pszFileName$[ebp]
  0001a	52		 push	 edx
  0001b	8b 45 08	 mov	 eax, DWORD PTR _this$[ebp]
  0001e	8b 48 04	 mov	 ecx, DWORD PTR [eax+4]
  00021	51		 push	 ecx
  00022	e8 00 00 00 00	 call	 _AtlTraceVA
  00027	83 c4 1c	 add	 esp, 28			; 0000001cH

; 123  : 	}

  0002a	3b ec		 cmp	 ebp, esp
  0002c	e8 00 00 00 00	 call	 __RTC_CheckEsp
  00031	5d		 pop	 ebp
  00032	c3		 ret	 0
?TraceV@CTrace@ATL@@QBAXPBDHKI0PAD@Z ENDP		; ATL::CTrace::TraceV
; Function compile flags: /Odt /RTCsu
_TEXT	ENDS
;	COMDAT ??BCTraceCategory@ATL@@QBEKXZ
_TEXT	SEGMENT
_this$ = -4						; size = 4
??BCTraceCategory@ATL@@QBEKXZ PROC NEAR			; ATL::CTraceCategory::operator unsigned long, COMDAT
; _this$ = ecx

; 202  : {

  00000	55		 push	 ebp
  00001	8b ec		 mov	 ebp, esp
  00003	51		 push	 ecx
  00004	c7 45 fc cc cc
	cc cc		 mov	 DWORD PTR [ebp-4], -858993460 ; ccccccccH
  0000b	89 4d fc	 mov	 DWORD PTR _this$[ebp], ecx

; 203  : 	return( m_dwCategory );

  0000e	8b 45 fc	 mov	 eax, DWORD PTR _this$[ebp]
  00011	8b 00		 mov	 eax, DWORD PTR [eax]

; 204  : }

  00013	8b e5		 mov	 esp, ebp
  00015	5d		 pop	 ebp
  00016	c3		 ret	 0
??BCTraceCategory@ATL@@QBEKXZ ENDP			; ATL::CTraceCategory::operator unsigned long
_TEXT	ENDS
PUBLIC	?getOpenConstrain@PaneSplitter@ETSLayoutMgr@@QAEHH@Z ; ETSLayoutMgr::PaneSplitter::getOpenConstrain
xdata$x	SEGMENT
$T193127 DD	0ffffffffH
	DD	FLAT:$L193119
$T193121 DD	019930520H
	DD	01H
	DD	FLAT:$T193127
	DD	2 DUP(00H)
	DD	2 DUP(00H)
; Function compile flags: /Odt /RTCsu
; File d:\boxgit\playbox\playbox\dev\prj\playbox\src\layoutmgr\etslayoutex.cpp
xdata$x	ENDS
_TEXT	SEGMENT
$T193118 = -64						; size = 4
_rc$ = -56						; size = 16
_maxConstrain$ = -36					; size = 4
_orgValue$ = -32					; size = 4
_pItem$ = -24						; size = 4
_this$ = -16						; size = 4
__$EHRec$ = -12						; size = 12
_offset$ = 8						; size = 4
?getOpenConstrain@PaneSplitter@ETSLayoutMgr@@QAEHH@Z PROC NEAR ; ETSLayoutMgr::PaneSplitter::getOpenConstrain
; _this$ = ecx

; 163  : {

  00870	55		 push	 ebp
  00871	8b ec		 mov	 ebp, esp
  00873	6a ff		 push	 -1
  00875	68 00 00 00 00	 push	 __ehhandler$?getOpenConstrain@PaneSplitter@ETSLayoutMgr@@QAEHH@Z
  0087a	64 a1 00 00 00
	00		 mov	 eax, DWORD PTR fs:__except_list
  00880	50		 push	 eax
  00881	64 89 25 00 00
	00 00		 mov	 DWORD PTR fs:__except_list, esp
  00888	83 ec 34	 sub	 esp, 52			; 00000034H
  0088b	57		 push	 edi
  0088c	51		 push	 ecx
  0088d	8d 7d c0	 lea	 edi, DWORD PTR [ebp-64]
  00890	b9 0d 00 00 00	 mov	 ecx, 13			; 0000000dH
  00895	b8 cc cc cc cc	 mov	 eax, -858993460		; ccccccccH
  0089a	f3 ab		 rep stosd
  0089c	59		 pop	 ecx
  0089d	89 4d f0	 mov	 DWORD PTR _this$[ebp], ecx

; 164  : 	CPaneBase pItem;

  008a0	8d 4d e8	 lea	 ecx, DWORD PTR _pItem$[ebp]
  008a3	e8 00 00 00 00	 call	 ??0CPaneBase@ETSLayoutMgr@@QAE@XZ ; ETSLayoutMgr::CPaneBase::CPaneBase
  008a8	c7 45 fc 00 00
	00 00		 mov	 DWORD PTR __$EHRec$[ebp+8], 0

; 165  : 	int orgValue = 0;

  008af	c7 45 e0 00 00
	00 00		 mov	 DWORD PTR _orgValue$[ebp], 0

; 166  : 	int maxConstrain = this->m_nSplOpendPos;

  008b6	8b 45 f0	 mov	 eax, DWORD PTR _this$[ebp]
  008b9	8b 88 8c 00 00
	00		 mov	 ecx, DWORD PTR [eax+140]
  008bf	89 4d dc	 mov	 DWORD PTR _maxConstrain$[ebp], ecx

; 167  : 
; 168  : 	if(offset < 0)

  008c2	83 7d 08 00	 cmp	 DWORD PTR _offset$[ebp], 0
  008c6	7d 18		 jge	 SHORT $L190547

; 169  : 		pItem = m_paneItems[2];

  008c8	6a 02		 push	 2
  008ca	8b 4d f0	 mov	 ecx, DWORD PTR _this$[ebp]
  008cd	83 c1 64	 add	 ecx, 100		; 00000064H
  008d0	e8 00 00 00 00	 call	 ??A?$CArray@VCPaneBase@ETSLayoutMgr@@V12@@@QAEAAVCPaneBase@ETSLayoutMgr@@H@Z ; CArray<ETSLayoutMgr::CPaneBase,ETSLayoutMgr::CPaneBase>::operator[]
  008d5	50		 push	 eax
  008d6	8d 4d e8	 lea	 ecx, DWORD PTR _pItem$[ebp]
  008d9	e8 00 00 00 00	 call	 ??4CPaneBase@ETSLayoutMgr@@QAEXABV01@@Z ; ETSLayoutMgr::CPaneBase::operator=

; 170  : 	else

  008de	eb 16		 jmp	 SHORT $L190548
$L190547:

; 171  : 		pItem = m_paneItems[0];

  008e0	6a 00		 push	 0
  008e2	8b 4d f0	 mov	 ecx, DWORD PTR _this$[ebp]
  008e5	83 c1 64	 add	 ecx, 100		; 00000064H
  008e8	e8 00 00 00 00	 call	 ??A?$CArray@VCPaneBase@ETSLayoutMgr@@V12@@@QAEAAVCPaneBase@ETSLayoutMgr@@H@Z ; CArray<ETSLayoutMgr::CPaneBase,ETSLayoutMgr::CPaneBase>::operator[]
  008ed	50		 push	 eax
  008ee	8d 4d e8	 lea	 ecx, DWORD PTR _pItem$[ebp]
  008f1	e8 00 00 00 00	 call	 ??4CPaneBase@ETSLayoutMgr@@QAEXABV01@@Z ; ETSLayoutMgr::CPaneBase::operator=
$L190548:

; 172  : 
; 173  : 	CRect rc = pItem->getPaneRect();

  008f6	8d 55 c8	 lea	 edx, DWORD PTR _rc$[ebp]
  008f9	52		 push	 edx
  008fa	8d 4d e8	 lea	 ecx, DWORD PTR _pItem$[ebp]
  008fd	e8 00 00 00 00	 call	 ??CCPaneBase@ETSLayoutMgr@@QBEPAVPaneBase@1@XZ ; ETSLayoutMgr::CPaneBase::operator->
  00902	8b c8		 mov	 ecx, eax
  00904	e8 00 00 00 00	 call	 ?getPaneRect@PaneBase@ETSLayoutMgr@@QAE?AVCRect@@XZ ; ETSLayoutMgr::PaneBase::getPaneRect

; 174  : 
; 175  : 	if(m_Orientation == ETSLayoutMgr::HORIZONTAL)

  00909	8b 45 f0	 mov	 eax, DWORD PTR _this$[ebp]
  0090c	83 78 60 00	 cmp	 DWORD PTR [eax+96], 0
  00910	75 0d		 jne	 SHORT $L190551

; 176  : 	{
; 177  : 		orgValue = rc.Width();

  00912	8d 4d c8	 lea	 ecx, DWORD PTR _rc$[ebp]
  00915	e8 00 00 00 00	 call	 ?Width@CRect@@QBEHXZ	; CRect::Width
  0091a	89 45 e0	 mov	 DWORD PTR _orgValue$[ebp], eax

; 178  : 		//minConstrain = getCloseConstrainHorz();
; 179  : 	}
; 180  : 	else

  0091d	eb 0b		 jmp	 SHORT $L190552
$L190551:

; 181  : 	{
; 182  : 		orgValue = rc.Height();

  0091f	8d 4d c8	 lea	 ecx, DWORD PTR _rc$[ebp]
  00922	e8 00 00 00 00	 call	 ?Height@CRect@@QBEHXZ	; CRect::Height
  00927	89 45 e0	 mov	 DWORD PTR _orgValue$[ebp], eax
$L190552:

; 183  : 		//minConstrain = pItem->getMinConstrainVert();
; 184  : 	}
; 185  : 
; 186  : 	if(offset < 0)

  0092a	83 7d 08 00	 cmp	 DWORD PTR _offset$[ebp], 0
  0092e	7d 16		 jge	 SHORT $L190553

; 187  : 	{
; 188  : 		if(orgValue - offset > maxConstrain)

  00930	8b 4d e0	 mov	 ecx, DWORD PTR _orgValue$[ebp]
  00933	2b 4d 08	 sub	 ecx, DWORD PTR _offset$[ebp]
  00936	3b 4d dc	 cmp	 ecx, DWORD PTR _maxConstrain$[ebp]
  00939	7e 09		 jle	 SHORT $L190554

; 189  : 			offset =  orgValue - maxConstrain;

  0093b	8b 55 e0	 mov	 edx, DWORD PTR _orgValue$[ebp]
  0093e	2b 55 dc	 sub	 edx, DWORD PTR _maxConstrain$[ebp]
  00941	89 55 08	 mov	 DWORD PTR _offset$[ebp], edx
$L190554:

; 190  : 	}
; 191  : 	else

  00944	eb 14		 jmp	 SHORT $L190555
$L190553:

; 192  : 	{
; 193  : 		if(orgValue + offset > maxConstrain)

  00946	8b 45 e0	 mov	 eax, DWORD PTR _orgValue$[ebp]
  00949	03 45 08	 add	 eax, DWORD PTR _offset$[ebp]
  0094c	3b 45 dc	 cmp	 eax, DWORD PTR _maxConstrain$[ebp]
  0094f	7e 09		 jle	 SHORT $L190555

; 194  : 			offset = maxConstrain - orgValue;

  00951	8b 4d dc	 mov	 ecx, DWORD PTR _maxConstrain$[ebp]
  00954	2b 4d e0	 sub	 ecx, DWORD PTR _orgValue$[ebp]
  00957	89 4d 08	 mov	 DWORD PTR _offset$[ebp], ecx
$L190555:

; 195  : 	}
; 196  : 
; 197  : 	return offset;

  0095a	8b 55 08	 mov	 edx, DWORD PTR _offset$[ebp]
  0095d	89 55 c0	 mov	 DWORD PTR $T193118[ebp], edx
  00960	c7 45 fc ff ff
	ff ff		 mov	 DWORD PTR __$EHRec$[ebp+8], -1
  00967	8d 4d e8	 lea	 ecx, DWORD PTR _pItem$[ebp]
  0096a	e8 00 00 00 00	 call	 ??1CPaneBase@ETSLayoutMgr@@QAE@XZ ; ETSLayoutMgr::CPaneBase::~CPaneBase
  0096f	8b 45 c0	 mov	 eax, DWORD PTR $T193118[ebp]

; 198  : }

  00972	52		 push	 edx
  00973	8b cd		 mov	 ecx, ebp
  00975	50		 push	 eax
  00976	8d 15 00 00 00
	00		 lea	 edx, DWORD PTR $L193126
  0097c	e8 00 00 00 00	 call	 @_RTC_CheckStackVars@8
  00981	58		 pop	 eax
  00982	5a		 pop	 edx
  00983	8b 4d f4	 mov	 ecx, DWORD PTR __$EHRec$[ebp]
  00986	64 89 0d 00 00
	00 00		 mov	 DWORD PTR fs:__except_list, ecx
  0098d	5f		 pop	 edi
  0098e	83 c4 40	 add	 esp, 64			; 00000040H
  00991	3b ec		 cmp	 ebp, esp
  00993	e8 00 00 00 00	 call	 __RTC_CheckEsp
  00998	8b e5		 mov	 esp, ebp
  0099a	5d		 pop	 ebp
  0099b	c2 04 00	 ret	 4
$L193126:
  0099e	02 00 00 00	 DD	 2
  009a2	00 00 00 00	 DD	 $L193125
$L193125:
  009a6	e8 ff ff ff	 DD	 -24			; ffffffe8H
  009aa	04 00 00 00	 DD	 4
  009ae	00 00 00 00	 DD	 $L193122
  009b2	c8 ff ff ff	 DD	 -56			; ffffffc8H
  009b6	10 00 00 00	 DD	 16			; 00000010H
  009ba	00 00 00 00	 DD	 $L193123
$L193123:
  009be	72		 DB	 114			; 00000072H
  009bf	63		 DB	 99			; 00000063H
  009c0	00		 DB	 0
$L193122:
  009c1	70		 DB	 112			; 00000070H
  009c2	49		 DB	 73			; 00000049H
  009c3	74		 DB	 116			; 00000074H
  009c4	65		 DB	 101			; 00000065H
  009c5	6d		 DB	 109			; 0000006dH
  009c6	00		 DB	 0
_TEXT	ENDS
text$x	SEGMENT
$L193119:
  0005b	8d 4d e8	 lea	 ecx, DWORD PTR _pItem$[ebp]
  0005e	e9 00 00 00 00	 jmp	 ??1CPaneBase@ETSLayoutMgr@@QAE@XZ ; ETSLayoutMgr::CPaneBase::~CPaneBase
__ehhandler$?getOpenConstrain@PaneSplitter@ETSLayoutMgr@@QAEHH@Z:
  00063	b8 00 00 00 00	 mov	 eax, OFFSET FLAT:$T193121
  00068	e9 00 00 00 00	 jmp	 ___CxxFrameHandler
text$x	ENDS
?getOpenConstrain@PaneSplitter@ETSLayoutMgr@@QAEHH@Z ENDP ; ETSLayoutMgr::PaneSplitter::getOpenConstrain
PUBLIC	?getCloseConstrain@PaneSplitter@ETSLayoutMgr@@QAEHH@Z ; ETSLayoutMgr::PaneSplitter::getCloseConstrain
xdata$x	SEGMENT
$T193138 DD	0ffffffffH
	DD	FLAT:$L193130
$T193132 DD	019930520H
	DD	01H
	DD	FLAT:$T193138
	DD	2 DUP(00H)
	DD	2 DUP(00H)
; Function compile flags: /Odt /RTCsu
xdata$x	ENDS
_TEXT	SEGMENT
$T193129 = -64						; size = 4
_rc$ = -56						; size = 16
_minConstrain$ = -36					; size = 4
_orgValue$ = -32					; size = 4
_pItem$ = -24						; size = 4
_this$ = -16						; size = 4
__$EHRec$ = -12						; size = 12
_offset$ = 8						; size = 4
?getCloseConstrain@PaneSplitter@ETSLayoutMgr@@QAEHH@Z PROC NEAR ; ETSLayoutMgr::PaneSplitter::getCloseConstrain
; _this$ = ecx

; 201  : {

  009d0	55		 push	 ebp
  009d1	8b ec		 mov	 ebp, esp
  009d3	6a ff		 push	 -1
  009d5	68 00 00 00 00	 push	 __ehhandler$?getCloseConstrain@PaneSplitter@ETSLayoutMgr@@QAEHH@Z
  009da	64 a1 00 00 00
	00		 mov	 eax, DWORD PTR fs:__except_list
  009e0	50		 push	 eax
  009e1	64 89 25 00 00
	00 00		 mov	 DWORD PTR fs:__except_list, esp
  009e8	83 ec 34	 sub	 esp, 52			; 00000034H
  009eb	57		 push	 edi
  009ec	51		 push	 ecx
  009ed	8d 7d c0	 lea	 edi, DWORD PTR [ebp-64]
  009f0	b9 0d 00 00 00	 mov	 ecx, 13			; 0000000dH
  009f5	b8 cc cc cc cc	 mov	 eax, -858993460		; ccccccccH
  009fa	f3 ab		 rep stosd
  009fc	59		 pop	 ecx
  009fd	89 4d f0	 mov	 DWORD PTR _this$[ebp], ecx

; 202  : 	CPaneBase pItem;

  00a00	8d 4d e8	 lea	 ecx, DWORD PTR _pItem$[ebp]
  00a03	e8 00 00 00 00	 call	 ??0CPaneBase@ETSLayoutMgr@@QAE@XZ ; ETSLayoutMgr::CPaneBase::CPaneBase
  00a08	c7 45 fc 00 00
	00 00		 mov	 DWORD PTR __$EHRec$[ebp+8], 0

; 203  : 	int orgValue = 0;

  00a0f	c7 45 e0 00 00
	00 00		 mov	 DWORD PTR _orgValue$[ebp], 0

; 204  : 	int minConstrain = this->m_nSplClosedPos;

  00a16	8b 45 f0	 mov	 eax, DWORD PTR _this$[ebp]
  00a19	8b 88 88 00 00
	00		 mov	 ecx, DWORD PTR [eax+136]
  00a1f	89 4d dc	 mov	 DWORD PTR _minConstrain$[ebp], ecx

; 205  : 
; 206  : 	if(offset < 0)

  00a22	83 7d 08 00	 cmp	 DWORD PTR _offset$[ebp], 0
  00a26	7d 18		 jge	 SHORT $L190565

; 207  : 		pItem = m_paneItems[0];

  00a28	6a 00		 push	 0
  00a2a	8b 4d f0	 mov	 ecx, DWORD PTR _this$[ebp]
  00a2d	83 c1 64	 add	 ecx, 100		; 00000064H
  00a30	e8 00 00 00 00	 call	 ??A?$CArray@VCPaneBase@ETSLayoutMgr@@V12@@@QAEAAVCPaneBase@ETSLayoutMgr@@H@Z ; CArray<ETSLayoutMgr::CPaneBase,ETSLayoutMgr::CPaneBase>::operator[]
  00a35	50		 push	 eax
  00a36	8d 4d e8	 lea	 ecx, DWORD PTR _pItem$[ebp]
  00a39	e8 00 00 00 00	 call	 ??4CPaneBase@ETSLayoutMgr@@QAEXABV01@@Z ; ETSLayoutMgr::CPaneBase::operator=

; 208  : 	else

  00a3e	eb 16		 jmp	 SHORT $L190566
$L190565:

; 209  : 		pItem = m_paneItems[2];

  00a40	6a 02		 push	 2
  00a42	8b 4d f0	 mov	 ecx, DWORD PTR _this$[ebp]
  00a45	83 c1 64	 add	 ecx, 100		; 00000064H
  00a48	e8 00 00 00 00	 call	 ??A?$CArray@VCPaneBase@ETSLayoutMgr@@V12@@@QAEAAVCPaneBase@ETSLayoutMgr@@H@Z ; CArray<ETSLayoutMgr::CPaneBase,ETSLayoutMgr::CPaneBase>::operator[]
  00a4d	50		 push	 eax
  00a4e	8d 4d e8	 lea	 ecx, DWORD PTR _pItem$[ebp]
  00a51	e8 00 00 00 00	 call	 ??4CPaneBase@ETSLayoutMgr@@QAEXABV01@@Z ; ETSLayoutMgr::CPaneBase::operator=
$L190566:

; 210  : 
; 211  : 	CRect rc = pItem->getPaneRect();

  00a56	8d 55 c8	 lea	 edx, DWORD PTR _rc$[ebp]
  00a59	52		 push	 edx
  00a5a	8d 4d e8	 lea	 ecx, DWORD PTR _pItem$[ebp]
  00a5d	e8 00 00 00 00	 call	 ??CCPaneBase@ETSLayoutMgr@@QBEPAVPaneBase@1@XZ ; ETSLayoutMgr::CPaneBase::operator->
  00a62	8b c8		 mov	 ecx, eax
  00a64	e8 00 00 00 00	 call	 ?getPaneRect@PaneBase@ETSLayoutMgr@@QAE?AVCRect@@XZ ; ETSLayoutMgr::PaneBase::getPaneRect

; 212  : 
; 213  : 	if(m_Orientation == ETSLayoutMgr::HORIZONTAL)

  00a69	8b 45 f0	 mov	 eax, DWORD PTR _this$[ebp]
  00a6c	83 78 60 00	 cmp	 DWORD PTR [eax+96], 0
  00a70	75 0d		 jne	 SHORT $L190569

; 214  : 	{
; 215  : 		orgValue = rc.Width();

  00a72	8d 4d c8	 lea	 ecx, DWORD PTR _rc$[ebp]
  00a75	e8 00 00 00 00	 call	 ?Width@CRect@@QBEHXZ	; CRect::Width
  00a7a	89 45 e0	 mov	 DWORD PTR _orgValue$[ebp], eax

; 216  : 		//minConstrain = getCloseConstrainHorz();
; 217  : 	}
; 218  : 	else

  00a7d	eb 0b		 jmp	 SHORT $L190570
$L190569:

; 219  : 	{
; 220  : 		orgValue = rc.Height();

  00a7f	8d 4d c8	 lea	 ecx, DWORD PTR _rc$[ebp]
  00a82	e8 00 00 00 00	 call	 ?Height@CRect@@QBEHXZ	; CRect::Height
  00a87	89 45 e0	 mov	 DWORD PTR _orgValue$[ebp], eax
$L190570:

; 221  : 		//minConstrain = pItem->getMinConstrainVert();
; 222  : 	}
; 223  : 
; 224  : 	if(offset < 0)

  00a8a	83 7d 08 00	 cmp	 DWORD PTR _offset$[ebp], 0
  00a8e	7d 16		 jge	 SHORT $L190571

; 225  : 	{
; 226  : 		if(orgValue + offset < minConstrain)

  00a90	8b 4d e0	 mov	 ecx, DWORD PTR _orgValue$[ebp]
  00a93	03 4d 08	 add	 ecx, DWORD PTR _offset$[ebp]
  00a96	3b 4d dc	 cmp	 ecx, DWORD PTR _minConstrain$[ebp]
  00a99	7d 09		 jge	 SHORT $L190572

; 227  : 			offset =  minConstrain - orgValue;

  00a9b	8b 55 dc	 mov	 edx, DWORD PTR _minConstrain$[ebp]
  00a9e	2b 55 e0	 sub	 edx, DWORD PTR _orgValue$[ebp]
  00aa1	89 55 08	 mov	 DWORD PTR _offset$[ebp], edx
$L190572:

; 228  : 	}
; 229  : 	else

  00aa4	eb 14		 jmp	 SHORT $L190573
$L190571:

; 230  : 	{
; 231  : 		if(orgValue - offset < minConstrain)

  00aa6	8b 45 e0	 mov	 eax, DWORD PTR _orgValue$[ebp]
  00aa9	2b 45 08	 sub	 eax, DWORD PTR _offset$[ebp]
  00aac	3b 45 dc	 cmp	 eax, DWORD PTR _minConstrain$[ebp]
  00aaf	7d 09		 jge	 SHORT $L190573

; 232  : 			offset = orgValue - minConstrain;

  00ab1	8b 4d e0	 mov	 ecx, DWORD PTR _orgValue$[ebp]
  00ab4	2b 4d dc	 sub	 ecx, DWORD PTR _minConstrain$[ebp]
  00ab7	89 4d 08	 mov	 DWORD PTR _offset$[ebp], ecx
$L190573:

; 233  : 	}
; 234  : 
; 235  : 	return offset;

  00aba	8b 55 08	 mov	 edx, DWORD PTR _offset$[ebp]
  00abd	89 55 c0	 mov	 DWORD PTR $T193129[ebp], edx
  00ac0	c7 45 fc ff ff
	ff ff		 mov	 DWORD PTR __$EHRec$[ebp+8], -1
  00ac7	8d 4d e8	 lea	 ecx, DWORD PTR _pItem$[ebp]
  00aca	e8 00 00 00 00	 call	 ??1CPaneBase@ETSLayoutMgr@@QAE@XZ ; ETSLayoutMgr::CPaneBase::~CPaneBase
  00acf	8b 45 c0	 mov	 eax, DWORD PTR $T193129[ebp]

; 236  : }

  00ad2	52		 push	 edx
  00ad3	8b cd		 mov	 ecx, ebp
  00ad5	50		 push	 eax
  00ad6	8d 15 00 00 00
	00		 lea	 edx, DWORD PTR $L193137
  00adc	e8 00 00 00 00	 call	 @_RTC_CheckStackVars@8
  00ae1	58		 pop	 eax
  00ae2	5a		 pop	 edx
  00ae3	8b 4d f4	 mov	 ecx, DWORD PTR __$EHRec$[ebp]
  00ae6	64 89 0d 00 00
	00 00		 mov	 DWORD PTR fs:__except_list, ecx
  00aed	5f		 pop	 edi
  00aee	83 c4 40	 add	 esp, 64			; 00000040H
  00af1	3b ec		 cmp	 ebp, esp
  00af3	e8 00 00 00 00	 call	 __RTC_CheckEsp
  00af8	8b e5		 mov	 esp, ebp
  00afa	5d		 pop	 ebp
  00afb	c2 04 00	 ret	 4
$L193137:
  00afe	02 00 00 00	 DD	 2
  00b02	00 00 00 00	 DD	 $L193136
$L193136:
  00b06	e8 ff ff ff	 DD	 -24			; ffffffe8H
  00b0a	04 00 00 00	 DD	 4
  00b0e	00 00 00 00	 DD	 $L193133
  00b12	c8 ff ff ff	 DD	 -56			; ffffffc8H
  00b16	10 00 00 00	 DD	 16			; 00000010H
  00b1a	00 00 00 00	 DD	 $L193134
$L193134:
  00b1e	72		 DB	 114			; 00000072H
  00b1f	63		 DB	 99			; 00000063H
  00b20	00		 DB	 0
$L193133:
  00b21	70		 DB	 112			; 00000070H
  00b22	49		 DB	 73			; 00000049H
  00b23	74		 DB	 116			; 00000074H
  00b24	65		 DB	 101			; 00000065H
  00b25	6d		 DB	 109			; 0000006dH
  00b26	00		 DB	 0
_TEXT	ENDS
text$x	SEGMENT
$L193130:
  0006d	8d 4d e8	 lea	 ecx, DWORD PTR _pItem$[ebp]
  00070	e9 00 00 00 00	 jmp	 ??1CPaneBase@ETSLayoutMgr@@QAE@XZ ; ETSLayoutMgr::CPaneBase::~CPaneBase
__ehhandler$?getCloseConstrain@PaneSplitter@ETSLayoutMgr@@QAEHH@Z:
  00075	b8 00 00 00 00	 mov	 eax, OFFSET FLAT:$T193132
  0007a	e9 00 00 00 00	 jmp	 ___CxxFrameHandler
text$x	ENDS
?getCloseConstrain@PaneSplitter@ETSLayoutMgr@@QAEHH@Z ENDP ; ETSLayoutMgr::PaneSplitter::getCloseConstrain
PUBLIC	?getOffsetConstrain@PaneSplitter@ETSLayoutMgr@@QAEHH@Z ; ETSLayoutMgr::PaneSplitter::getOffsetConstrain
xdata$x	SEGMENT
$T193149 DD	0ffffffffH
	DD	FLAT:$L193141
$T193143 DD	019930520H
	DD	01H
	DD	FLAT:$T193149
	DD	2 DUP(00H)
	DD	2 DUP(00H)
; Function compile flags: /Odt /RTCsu
xdata$x	ENDS
_TEXT	SEGMENT
tv132 = -72						; size = 4
tv91 = -68						; size = 4
$T193140 = -64						; size = 4
_rc$ = -56						; size = 16
_minConstrain$ = -36					; size = 4
_orgValue$ = -32					; size = 4
_pItem$ = -24						; size = 4
_this$ = -16						; size = 4
__$EHRec$ = -12						; size = 12
_offset$ = 8						; size = 4
?getOffsetConstrain@PaneSplitter@ETSLayoutMgr@@QAEHH@Z PROC NEAR ; ETSLayoutMgr::PaneSplitter::getOffsetConstrain
; _this$ = ecx

; 239  : {

  00b30	55		 push	 ebp
  00b31	8b ec		 mov	 ebp, esp
  00b33	6a ff		 push	 -1
  00b35	68 00 00 00 00	 push	 __ehhandler$?getOffsetConstrain@PaneSplitter@ETSLayoutMgr@@QAEHH@Z
  00b3a	64 a1 00 00 00
	00		 mov	 eax, DWORD PTR fs:__except_list
  00b40	50		 push	 eax
  00b41	64 89 25 00 00
	00 00		 mov	 DWORD PTR fs:__except_list, esp
  00b48	83 ec 3c	 sub	 esp, 60			; 0000003cH
  00b4b	56		 push	 esi
  00b4c	57		 push	 edi
  00b4d	51		 push	 ecx
  00b4e	8d 7d b8	 lea	 edi, DWORD PTR [ebp-72]
  00b51	b9 0f 00 00 00	 mov	 ecx, 15			; 0000000fH
  00b56	b8 cc cc cc cc	 mov	 eax, -858993460		; ccccccccH
  00b5b	f3 ab		 rep stosd
  00b5d	59		 pop	 ecx
  00b5e	89 4d f0	 mov	 DWORD PTR _this$[ebp], ecx

; 240  : 	CPaneBase pItem;

  00b61	8d 4d e8	 lea	 ecx, DWORD PTR _pItem$[ebp]
  00b64	e8 00 00 00 00	 call	 ??0CPaneBase@ETSLayoutMgr@@QAE@XZ ; ETSLayoutMgr::CPaneBase::CPaneBase
  00b69	c7 45 fc 00 00
	00 00		 mov	 DWORD PTR __$EHRec$[ebp+8], 0

; 241  : 	int orgValue = 0;

  00b70	c7 45 e0 00 00
	00 00		 mov	 DWORD PTR _orgValue$[ebp], 0

; 242  : 	int minConstrain = 0;

  00b77	c7 45 dc 00 00
	00 00		 mov	 DWORD PTR _minConstrain$[ebp], 0

; 243  : 
; 244  : 	if(offset < 0)

  00b7e	83 7d 08 00	 cmp	 DWORD PTR _offset$[ebp], 0
  00b82	7d 18		 jge	 SHORT $L190583

; 245  : 		pItem = m_paneItems[0];

  00b84	6a 00		 push	 0
  00b86	8b 4d f0	 mov	 ecx, DWORD PTR _this$[ebp]
  00b89	83 c1 64	 add	 ecx, 100		; 00000064H
  00b8c	e8 00 00 00 00	 call	 ??A?$CArray@VCPaneBase@ETSLayoutMgr@@V12@@@QAEAAVCPaneBase@ETSLayoutMgr@@H@Z ; CArray<ETSLayoutMgr::CPaneBase,ETSLayoutMgr::CPaneBase>::operator[]
  00b91	50		 push	 eax
  00b92	8d 4d e8	 lea	 ecx, DWORD PTR _pItem$[ebp]
  00b95	e8 00 00 00 00	 call	 ??4CPaneBase@ETSLayoutMgr@@QAEXABV01@@Z ; ETSLayoutMgr::CPaneBase::operator=

; 246  : 	else

  00b9a	eb 16		 jmp	 SHORT $L190584
$L190583:

; 247  : 		pItem = m_paneItems[2];

  00b9c	6a 02		 push	 2
  00b9e	8b 4d f0	 mov	 ecx, DWORD PTR _this$[ebp]
  00ba1	83 c1 64	 add	 ecx, 100		; 00000064H
  00ba4	e8 00 00 00 00	 call	 ??A?$CArray@VCPaneBase@ETSLayoutMgr@@V12@@@QAEAAVCPaneBase@ETSLayoutMgr@@H@Z ; CArray<ETSLayoutMgr::CPaneBase,ETSLayoutMgr::CPaneBase>::operator[]
  00ba9	50		 push	 eax
  00baa	8d 4d e8	 lea	 ecx, DWORD PTR _pItem$[ebp]
  00bad	e8 00 00 00 00	 call	 ??4CPaneBase@ETSLayoutMgr@@QAEXABV01@@Z ; ETSLayoutMgr::CPaneBase::operator=
$L190584:

; 248  : 
; 249  : 	CRect rc = pItem->getPaneRect();

  00bb2	8d 45 c8	 lea	 eax, DWORD PTR _rc$[ebp]
  00bb5	50		 push	 eax
  00bb6	8d 4d e8	 lea	 ecx, DWORD PTR _pItem$[ebp]
  00bb9	e8 00 00 00 00	 call	 ??CCPaneBase@ETSLayoutMgr@@QBEPAVPaneBase@1@XZ ; ETSLayoutMgr::CPaneBase::operator->
  00bbe	8b c8		 mov	 ecx, eax
  00bc0	e8 00 00 00 00	 call	 ?getPaneRect@PaneBase@ETSLayoutMgr@@QAE?AVCRect@@XZ ; ETSLayoutMgr::PaneBase::getPaneRect

; 250  : 
; 251  : 	if(m_Orientation == ETSLayoutMgr::HORIZONTAL)

  00bc5	8b 4d f0	 mov	 ecx, DWORD PTR _this$[ebp]
  00bc8	83 79 60 00	 cmp	 DWORD PTR [ecx+96], 0
  00bcc	75 2f		 jne	 SHORT $L190587

; 252  : 	{
; 253  : 		orgValue = rc.Width();

  00bce	8d 4d c8	 lea	 ecx, DWORD PTR _rc$[ebp]
  00bd1	e8 00 00 00 00	 call	 ?Width@CRect@@QBEHXZ	; CRect::Width
  00bd6	89 45 e0	 mov	 DWORD PTR _orgValue$[ebp], eax

; 254  : 		minConstrain = pItem->getMinConstrainHorz();

  00bd9	8d 4d e8	 lea	 ecx, DWORD PTR _pItem$[ebp]
  00bdc	e8 00 00 00 00	 call	 ??CCPaneBase@ETSLayoutMgr@@QBEPAVPaneBase@1@XZ ; ETSLayoutMgr::CPaneBase::operator->
  00be1	89 45 bc	 mov	 DWORD PTR tv91[ebp], eax
  00be4	8b 55 bc	 mov	 edx, DWORD PTR tv91[ebp]
  00be7	8b 02		 mov	 eax, DWORD PTR [edx]
  00be9	8b f4		 mov	 esi, esp
  00beb	8b 4d bc	 mov	 ecx, DWORD PTR tv91[ebp]
  00bee	ff 50 08	 call	 DWORD PTR [eax+8]
  00bf1	3b f4		 cmp	 esi, esp
  00bf3	e8 00 00 00 00	 call	 __RTC_CheckEsp
  00bf8	89 45 dc	 mov	 DWORD PTR _minConstrain$[ebp], eax

; 255  : 	}
; 256  : 	else

  00bfb	eb 2d		 jmp	 SHORT $L190588
$L190587:

; 257  : 	{
; 258  : 		orgValue = rc.Height();

  00bfd	8d 4d c8	 lea	 ecx, DWORD PTR _rc$[ebp]
  00c00	e8 00 00 00 00	 call	 ?Height@CRect@@QBEHXZ	; CRect::Height
  00c05	89 45 e0	 mov	 DWORD PTR _orgValue$[ebp], eax

; 259  : 		minConstrain = pItem->getMinConstrainVert();

  00c08	8d 4d e8	 lea	 ecx, DWORD PTR _pItem$[ebp]
  00c0b	e8 00 00 00 00	 call	 ??CCPaneBase@ETSLayoutMgr@@QBEPAVPaneBase@1@XZ ; ETSLayoutMgr::CPaneBase::operator->
  00c10	89 45 b8	 mov	 DWORD PTR tv132[ebp], eax
  00c13	8b 4d b8	 mov	 ecx, DWORD PTR tv132[ebp]
  00c16	8b 11		 mov	 edx, DWORD PTR [ecx]
  00c18	8b f4		 mov	 esi, esp
  00c1a	8b 4d b8	 mov	 ecx, DWORD PTR tv132[ebp]
  00c1d	ff 52 10	 call	 DWORD PTR [edx+16]
  00c20	3b f4		 cmp	 esi, esp
  00c22	e8 00 00 00 00	 call	 __RTC_CheckEsp
  00c27	89 45 dc	 mov	 DWORD PTR _minConstrain$[ebp], eax
$L190588:

; 260  : 	}
; 261  : 
; 262  : 	if(offset < 0)

  00c2a	83 7d 08 00	 cmp	 DWORD PTR _offset$[ebp], 0
  00c2e	7d 16		 jge	 SHORT $L190589

; 263  : 	{
; 264  : 		if(orgValue + offset < minConstrain)

  00c30	8b 45 e0	 mov	 eax, DWORD PTR _orgValue$[ebp]
  00c33	03 45 08	 add	 eax, DWORD PTR _offset$[ebp]
  00c36	3b 45 dc	 cmp	 eax, DWORD PTR _minConstrain$[ebp]
  00c39	7d 09		 jge	 SHORT $L190590

; 265  : 			offset =  minConstrain - orgValue;

  00c3b	8b 4d dc	 mov	 ecx, DWORD PTR _minConstrain$[ebp]
  00c3e	2b 4d e0	 sub	 ecx, DWORD PTR _orgValue$[ebp]
  00c41	89 4d 08	 mov	 DWORD PTR _offset$[ebp], ecx
$L190590:

; 266  : 	}
; 267  : 	else

  00c44	eb 14		 jmp	 SHORT $L190591
$L190589:

; 268  : 	{
; 269  : 		if(orgValue - offset < minConstrain)

  00c46	8b 55 e0	 mov	 edx, DWORD PTR _orgValue$[ebp]
  00c49	2b 55 08	 sub	 edx, DWORD PTR _offset$[ebp]
  00c4c	3b 55 dc	 cmp	 edx, DWORD PTR _minConstrain$[ebp]
  00c4f	7d 09		 jge	 SHORT $L190591

; 270  : 			offset = orgValue - minConstrain;

  00c51	8b 45 e0	 mov	 eax, DWORD PTR _orgValue$[ebp]
  00c54	2b 45 dc	 sub	 eax, DWORD PTR _minConstrain$[ebp]
  00c57	89 45 08	 mov	 DWORD PTR _offset$[ebp], eax
$L190591:

; 271  : 	}
; 272  : 
; 273  : 	return offset;

  00c5a	8b 4d 08	 mov	 ecx, DWORD PTR _offset$[ebp]
  00c5d	89 4d c0	 mov	 DWORD PTR $T193140[ebp], ecx
  00c60	c7 45 fc ff ff
	ff ff		 mov	 DWORD PTR __$EHRec$[ebp+8], -1
  00c67	8d 4d e8	 lea	 ecx, DWORD PTR _pItem$[ebp]
  00c6a	e8 00 00 00 00	 call	 ??1CPaneBase@ETSLayoutMgr@@QAE@XZ ; ETSLayoutMgr::CPaneBase::~CPaneBase
  00c6f	8b 45 c0	 mov	 eax, DWORD PTR $T193140[ebp]

; 274  : }

  00c72	52		 push	 edx
  00c73	8b cd		 mov	 ecx, ebp
  00c75	50		 push	 eax
  00c76	8d 15 00 00 00
	00		 lea	 edx, DWORD PTR $L193148
  00c7c	e8 00 00 00 00	 call	 @_RTC_CheckStackVars@8
  00c81	58		 pop	 eax
  00c82	5a		 pop	 edx
  00c83	8b 4d f4	 mov	 ecx, DWORD PTR __$EHRec$[ebp]
  00c86	64 89 0d 00 00
	00 00		 mov	 DWORD PTR fs:__except_list, ecx
  00c8d	5f		 pop	 edi
  00c8e	5e		 pop	 esi
  00c8f	83 c4 48	 add	 esp, 72			; 00000048H
  00c92	3b ec		 cmp	 ebp, esp
  00c94	e8 00 00 00 00	 call	 __RTC_CheckEsp
  00c99	8b e5		 mov	 esp, ebp
  00c9b	5d		 pop	 ebp
  00c9c	c2 04 00	 ret	 4
$L193148:
  00c9f	02 00 00 00	 DD	 2
  00ca3	00 00 00 00	 DD	 $L193147
$L193147:
  00ca7	e8 ff ff ff	 DD	 -24			; ffffffe8H
  00cab	04 00 00 00	 DD	 4
  00caf	00 00 00 00	 DD	 $L193144
  00cb3	c8 ff ff ff	 DD	 -56			; ffffffc8H
  00cb7	10 00 00 00	 DD	 16			; 00000010H
  00cbb	00 00 00 00	 DD	 $L193145
$L193145:
  00cbf	72		 DB	 114			; 00000072H
  00cc0	63		 DB	 99			; 00000063H
  00cc1	00		 DB	 0
$L193144:
  00cc2	70		 DB	 112			; 00000070H
  00cc3	49		 DB	 73			; 00000049H
  00cc4	74		 DB	 116			; 00000074H
  00cc5	65		 DB	 101			; 00000065H
  00cc6	6d		 DB	 109			; 0000006dH
  00cc7	00		 DB	 0
_TEXT	ENDS
text$x	SEGMENT
$L193141:
  0007f	8d 4d e8	 lea	 ecx, DWORD PTR _pItem$[ebp]
  00082	e9 00 00 00 00	 jmp	 ??1CPaneBase@ETSLayoutMgr@@QAE@XZ ; ETSLayoutMgr::CPaneBase::~CPaneBase
__ehhandler$?getOffsetConstrain@PaneSplitter@ETSLayoutMgr@@QAEHH@Z:
  00087	b8 00 00 00 00	 mov	 eax, OFFSET FLAT:$T193143
  0008c	e9 00 00 00 00	 jmp	 ___CxxFrameHandler
text$x	ENDS
?getOffsetConstrain@PaneSplitter@ETSLayoutMgr@@QAEHH@Z ENDP ; ETSLayoutMgr::PaneSplitter::getOffsetConstrain
PUBLIC	?GetSize@?$CArray@VCPaneBase@ETSLayoutMgr@@V12@@@QBEHXZ ; CArray<ETSLayoutMgr::CPaneBase,ETSLayoutMgr::CPaneBase>::GetSize
PUBLIC	?SetSplPosition@PaneSplitter@ETSLayoutMgr@@QAEXH@Z ; ETSLayoutMgr::PaneSplitter::SetSplPosition
PUBLIC	?ForceResizeTo@PaneSplitter@ETSLayoutMgr@@AAEXAAVCPaneBase@2@AAVCRect@@_N@Z ; ETSLayoutMgr::PaneSplitter::ForceResizeTo
EXTRN	??0CRect@@QAE@HHHH@Z:NEAR			; CRect::CRect
xdata$x	SEGMENT
$T193168 DD	0ffffffffH
	DD	FLAT:$L193158
$T193160 DD	019930520H
	DD	01H
	DD	FLAT:$T193168
	DD	2 DUP(00H)
	DD	2 DUP(00H)
; Function compile flags: /Odt /RTCsu
xdata$x	ENDS
_TEXT	SEGMENT
$T193157 = -196						; size = 16
$T193156 = -180						; size = 16
$T193155 = -164						; size = 16
$T193154 = -148						; size = 16
$T193153 = -132						; size = 16
$T193152 = -116						; size = 16
_rcAll$ = -96						; size = 16
_rcSpl$ = -72						; size = 16
_rc$ = -48						; size = 16
_pItem$ = -24						; size = 4
_this$ = -16						; size = 4
__$EHRec$ = -12						; size = 12
_pos$ = 8						; size = 4
?SetSplPosition@PaneSplitter@ETSLayoutMgr@@QAEXH@Z PROC NEAR ; ETSLayoutMgr::PaneSplitter::SetSplPosition
; _this$ = ecx

; 276  : {

  00cd0	55		 push	 ebp
  00cd1	8b ec		 mov	 ebp, esp
  00cd3	6a ff		 push	 -1
  00cd5	68 00 00 00 00	 push	 __ehhandler$?SetSplPosition@PaneSplitter@ETSLayoutMgr@@QAEXH@Z
  00cda	64 a1 00 00 00
	00		 mov	 eax, DWORD PTR fs:__except_list
  00ce0	50		 push	 eax
  00ce1	64 89 25 00 00
	00 00		 mov	 DWORD PTR fs:__except_list, esp
  00ce8	81 ec b8 00 00
	00		 sub	 esp, 184		; 000000b8H
  00cee	56		 push	 esi
  00cef	57		 push	 edi
  00cf0	51		 push	 ecx
  00cf1	8d bd 3c ff ff
	ff		 lea	 edi, DWORD PTR [ebp-196]
  00cf7	b9 2e 00 00 00	 mov	 ecx, 46			; 0000002eH
  00cfc	b8 cc cc cc cc	 mov	 eax, -858993460		; ccccccccH
  00d01	f3 ab		 rep stosd
  00d03	59		 pop	 ecx
  00d04	89 4d f0	 mov	 DWORD PTR _this$[ebp], ecx

; 277  : 	ASSERT(m_paneItems.GetSize() == 3);

  00d07	8b 4d f0	 mov	 ecx, DWORD PTR _this$[ebp]
  00d0a	83 c1 64	 add	 ecx, 100		; 00000064H
  00d0d	e8 00 00 00 00	 call	 ?GetSize@?$CArray@VCPaneBase@ETSLayoutMgr@@V12@@@QBEHXZ ; CArray<ETSLayoutMgr::CPaneBase,ETSLayoutMgr::CPaneBase>::GetSize
  00d12	83 f8 03	 cmp	 eax, 3
  00d15	74 14		 je	 SHORT $L193151
  00d17	68 15 01 00 00	 push	 277			; 00000115H
  00d1c	68 00 00 00 00	 push	 OFFSET FLAT:$SG190599
  00d21	e8 00 00 00 00	 call	 ?AfxAssertFailedLine@@YGHPBDH@Z ; AfxAssertFailedLine
  00d26	85 c0		 test	 eax, eax
  00d28	74 01		 je	 SHORT $L193151
  00d2a	cc		 int	 3
$L193151:

; 278  : 
; 279  : 	CPaneBase pItem = m_paneItems[0];

  00d2b	6a 00		 push	 0
  00d2d	8b 4d f0	 mov	 ecx, DWORD PTR _this$[ebp]
  00d30	83 c1 64	 add	 ecx, 100		; 00000064H
  00d33	e8 00 00 00 00	 call	 ??A?$CArray@VCPaneBase@ETSLayoutMgr@@V12@@@QAEAAVCPaneBase@ETSLayoutMgr@@H@Z ; CArray<ETSLayoutMgr::CPaneBase,ETSLayoutMgr::CPaneBase>::operator[]
  00d38	50		 push	 eax
  00d39	8d 4d e8	 lea	 ecx, DWORD PTR _pItem$[ebp]
  00d3c	e8 00 00 00 00	 call	 ??0CPaneBase@ETSLayoutMgr@@QAE@ABV01@@Z ; ETSLayoutMgr::CPaneBase::CPaneBase
  00d41	c7 45 fc 00 00
	00 00		 mov	 DWORD PTR __$EHRec$[ebp+8], 0

; 280  : 	CRect rc = pItem->getPaneRect();

  00d48	8d 4d d0	 lea	 ecx, DWORD PTR _rc$[ebp]
  00d4b	51		 push	 ecx
  00d4c	8d 4d e8	 lea	 ecx, DWORD PTR _pItem$[ebp]
  00d4f	e8 00 00 00 00	 call	 ??CCPaneBase@ETSLayoutMgr@@QBEPAVPaneBase@1@XZ ; ETSLayoutMgr::CPaneBase::operator->
  00d54	8b c8		 mov	 ecx, eax
  00d56	e8 00 00 00 00	 call	 ?getPaneRect@PaneBase@ETSLayoutMgr@@QAE?AVCRect@@XZ ; ETSLayoutMgr::PaneBase::getPaneRect

; 281  : 
; 282  : 	//Resize First Pane
; 283  : 	if(this->m_Orientation == ETSLayoutMgr::HORIZONTAL)

  00d5b	8b 55 f0	 mov	 edx, DWORD PTR _this$[ebp]
  00d5e	83 7a 60 00	 cmp	 DWORD PTR [edx+96], 0
  00d62	75 34		 jne	 SHORT $L190603

; 284  : 		rc = CRect(rc.left, rc.top, rc.left + pos, rc.bottom);

  00d64	8b 45 dc	 mov	 eax, DWORD PTR _rc$[ebp+12]
  00d67	50		 push	 eax
  00d68	8b 4d d0	 mov	 ecx, DWORD PTR _rc$[ebp]
  00d6b	03 4d 08	 add	 ecx, DWORD PTR _pos$[ebp]
  00d6e	51		 push	 ecx
  00d6f	8b 55 d4	 mov	 edx, DWORD PTR _rc$[ebp+4]
  00d72	52		 push	 edx
  00d73	8b 45 d0	 mov	 eax, DWORD PTR _rc$[ebp]
  00d76	50		 push	 eax
  00d77	8d 4d 8c	 lea	 ecx, DWORD PTR $T193152[ebp]
  00d7a	e8 00 00 00 00	 call	 ??0CRect@@QAE@HHHH@Z	; CRect::CRect
  00d7f	8b 08		 mov	 ecx, DWORD PTR [eax]
  00d81	89 4d d0	 mov	 DWORD PTR _rc$[ebp], ecx
  00d84	8b 50 04	 mov	 edx, DWORD PTR [eax+4]
  00d87	89 55 d4	 mov	 DWORD PTR _rc$[ebp+4], edx
  00d8a	8b 48 08	 mov	 ecx, DWORD PTR [eax+8]
  00d8d	89 4d d8	 mov	 DWORD PTR _rc$[ebp+8], ecx
  00d90	8b 50 0c	 mov	 edx, DWORD PTR [eax+12]
  00d93	89 55 dc	 mov	 DWORD PTR _rc$[ebp+12], edx

; 285  : 	else

  00d96	eb 35		 jmp	 SHORT $L190605
$L190603:

; 286  : 		rc = CRect(rc.left, rc.top, rc.right, rc.top + pos);//rc.InflateRect(0, 0, 0, offset);

  00d98	8b 45 d4	 mov	 eax, DWORD PTR _rc$[ebp+4]
  00d9b	03 45 08	 add	 eax, DWORD PTR _pos$[ebp]
  00d9e	50		 push	 eax
  00d9f	8b 4d d8	 mov	 ecx, DWORD PTR _rc$[ebp+8]
  00da2	51		 push	 ecx
  00da3	8b 55 d4	 mov	 edx, DWORD PTR _rc$[ebp+4]
  00da6	52		 push	 edx
  00da7	8b 45 d0	 mov	 eax, DWORD PTR _rc$[ebp]
  00daa	50		 push	 eax
  00dab	8d 8d 7c ff ff
	ff		 lea	 ecx, DWORD PTR $T193153[ebp]
  00db1	e8 00 00 00 00	 call	 ??0CRect@@QAE@HHHH@Z	; CRect::CRect
  00db6	8b 08		 mov	 ecx, DWORD PTR [eax]
  00db8	89 4d d0	 mov	 DWORD PTR _rc$[ebp], ecx
  00dbb	8b 50 04	 mov	 edx, DWORD PTR [eax+4]
  00dbe	89 55 d4	 mov	 DWORD PTR _rc$[ebp+4], edx
  00dc1	8b 48 08	 mov	 ecx, DWORD PTR [eax+8]
  00dc4	89 4d d8	 mov	 DWORD PTR _rc$[ebp+8], ecx
  00dc7	8b 50 0c	 mov	 edx, DWORD PTR [eax+12]
  00dca	89 55 dc	 mov	 DWORD PTR _rc$[ebp+12], edx
$L190605:

; 287  : 	ForceResizeTo(pItem, rc);

  00dcd	6a 00		 push	 0
  00dcf	8d 45 d0	 lea	 eax, DWORD PTR _rc$[ebp]
  00dd2	50		 push	 eax
  00dd3	8d 4d e8	 lea	 ecx, DWORD PTR _pItem$[ebp]
  00dd6	51		 push	 ecx
  00dd7	8b 4d f0	 mov	 ecx, DWORD PTR _this$[ebp]
  00dda	e8 00 00 00 00	 call	 ?ForceResizeTo@PaneSplitter@ETSLayoutMgr@@AAEXAAVCPaneBase@2@AAVCRect@@_N@Z ; ETSLayoutMgr::PaneSplitter::ForceResizeTo

; 288  : 
; 289  : 	//Resize Second Pane
; 290  : 	pItem = m_paneItems[1];

  00ddf	6a 01		 push	 1
  00de1	8b 4d f0	 mov	 ecx, DWORD PTR _this$[ebp]
  00de4	83 c1 64	 add	 ecx, 100		; 00000064H
  00de7	e8 00 00 00 00	 call	 ??A?$CArray@VCPaneBase@ETSLayoutMgr@@V12@@@QAEAAVCPaneBase@ETSLayoutMgr@@H@Z ; CArray<ETSLayoutMgr::CPaneBase,ETSLayoutMgr::CPaneBase>::operator[]
  00dec	50		 push	 eax
  00ded	8d 4d e8	 lea	 ecx, DWORD PTR _pItem$[ebp]
  00df0	e8 00 00 00 00	 call	 ??4CPaneBase@ETSLayoutMgr@@QAEXABV01@@Z ; ETSLayoutMgr::CPaneBase::operator=

; 291  : 	CRect rcSpl = pItem->getPaneRect();

  00df5	8d 55 b8	 lea	 edx, DWORD PTR _rcSpl$[ebp]
  00df8	52		 push	 edx
  00df9	8d 4d e8	 lea	 ecx, DWORD PTR _pItem$[ebp]
  00dfc	e8 00 00 00 00	 call	 ??CCPaneBase@ETSLayoutMgr@@QBEPAVPaneBase@1@XZ ; ETSLayoutMgr::CPaneBase::operator->
  00e01	8b c8		 mov	 ecx, eax
  00e03	e8 00 00 00 00	 call	 ?getPaneRect@PaneBase@ETSLayoutMgr@@QAE?AVCRect@@XZ ; ETSLayoutMgr::PaneBase::getPaneRect

; 292  : 	if(this->m_Orientation == ETSLayoutMgr::HORIZONTAL)

  00e08	8b 45 f0	 mov	 eax, DWORD PTR _this$[ebp]
  00e0b	83 78 60 00	 cmp	 DWORD PTR [eax+96], 0
  00e0f	75 3c		 jne	 SHORT $L190609

; 293  : 		rc = CRect(rc.right, rcSpl.top, rc.right + rcSpl.Width(), rcSpl.bottom);//rc.InflateRect(-offset,0, 0,  0);

  00e11	8b 4d c4	 mov	 ecx, DWORD PTR _rcSpl$[ebp+12]
  00e14	51		 push	 ecx
  00e15	8d 4d b8	 lea	 ecx, DWORD PTR _rcSpl$[ebp]
  00e18	e8 00 00 00 00	 call	 ?Width@CRect@@QBEHXZ	; CRect::Width
  00e1d	03 45 d8	 add	 eax, DWORD PTR _rc$[ebp+8]
  00e20	50		 push	 eax
  00e21	8b 55 bc	 mov	 edx, DWORD PTR _rcSpl$[ebp+4]
  00e24	52		 push	 edx
  00e25	8b 45 d8	 mov	 eax, DWORD PTR _rc$[ebp+8]
  00e28	50		 push	 eax
  00e29	8d 8d 6c ff ff
	ff		 lea	 ecx, DWORD PTR $T193154[ebp]
  00e2f	e8 00 00 00 00	 call	 ??0CRect@@QAE@HHHH@Z	; CRect::CRect
  00e34	8b 08		 mov	 ecx, DWORD PTR [eax]
  00e36	89 4d d0	 mov	 DWORD PTR _rc$[ebp], ecx
  00e39	8b 50 04	 mov	 edx, DWORD PTR [eax+4]
  00e3c	89 55 d4	 mov	 DWORD PTR _rc$[ebp+4], edx
  00e3f	8b 48 08	 mov	 ecx, DWORD PTR [eax+8]
  00e42	89 4d d8	 mov	 DWORD PTR _rc$[ebp+8], ecx
  00e45	8b 50 0c	 mov	 edx, DWORD PTR [eax+12]
  00e48	89 55 dc	 mov	 DWORD PTR _rc$[ebp+12], edx

; 294  : 	else

  00e4b	eb 3a		 jmp	 SHORT $L190611
$L190609:

; 295  : 		rc = CRect(rcSpl.left, rc.bottom, rcSpl.right, rc.bottom + rcSpl.Width());//.rc.InflateRect(0, -offset, 0,0);

  00e4d	8d 4d b8	 lea	 ecx, DWORD PTR _rcSpl$[ebp]
  00e50	e8 00 00 00 00	 call	 ?Width@CRect@@QBEHXZ	; CRect::Width
  00e55	03 45 dc	 add	 eax, DWORD PTR _rc$[ebp+12]
  00e58	50		 push	 eax
  00e59	8b 45 c0	 mov	 eax, DWORD PTR _rcSpl$[ebp+8]
  00e5c	50		 push	 eax
  00e5d	8b 4d dc	 mov	 ecx, DWORD PTR _rc$[ebp+12]
  00e60	51		 push	 ecx
  00e61	8b 55 b8	 mov	 edx, DWORD PTR _rcSpl$[ebp]
  00e64	52		 push	 edx
  00e65	8d 8d 5c ff ff
	ff		 lea	 ecx, DWORD PTR $T193155[ebp]
  00e6b	e8 00 00 00 00	 call	 ??0CRect@@QAE@HHHH@Z	; CRect::CRect
  00e70	8b 08		 mov	 ecx, DWORD PTR [eax]
  00e72	89 4d d0	 mov	 DWORD PTR _rc$[ebp], ecx
  00e75	8b 50 04	 mov	 edx, DWORD PTR [eax+4]
  00e78	89 55 d4	 mov	 DWORD PTR _rc$[ebp+4], edx
  00e7b	8b 48 08	 mov	 ecx, DWORD PTR [eax+8]
  00e7e	89 4d d8	 mov	 DWORD PTR _rc$[ebp+8], ecx
  00e81	8b 50 0c	 mov	 edx, DWORD PTR [eax+12]
  00e84	89 55 dc	 mov	 DWORD PTR _rc$[ebp+12], edx
$L190611:

; 296  : 	ForceResizeTo(pItem, rc);

  00e87	6a 00		 push	 0
  00e89	8d 45 d0	 lea	 eax, DWORD PTR _rc$[ebp]
  00e8c	50		 push	 eax
  00e8d	8d 4d e8	 lea	 ecx, DWORD PTR _pItem$[ebp]
  00e90	51		 push	 ecx
  00e91	8b 4d f0	 mov	 ecx, DWORD PTR _this$[ebp]
  00e94	e8 00 00 00 00	 call	 ?ForceResizeTo@PaneSplitter@ETSLayoutMgr@@AAEXAAVCPaneBase@2@AAVCRect@@_N@Z ; ETSLayoutMgr::PaneSplitter::ForceResizeTo

; 297  : 
; 298  : 	//Resize Splitter
; 299  : 	pItem = m_paneItems[2];

  00e99	6a 02		 push	 2
  00e9b	8b 4d f0	 mov	 ecx, DWORD PTR _this$[ebp]
  00e9e	83 c1 64	 add	 ecx, 100		; 00000064H
  00ea1	e8 00 00 00 00	 call	 ??A?$CArray@VCPaneBase@ETSLayoutMgr@@V12@@@QAEAAVCPaneBase@ETSLayoutMgr@@H@Z ; CArray<ETSLayoutMgr::CPaneBase,ETSLayoutMgr::CPaneBase>::operator[]
  00ea6	50		 push	 eax
  00ea7	8d 4d e8	 lea	 ecx, DWORD PTR _pItem$[ebp]
  00eaa	e8 00 00 00 00	 call	 ??4CPaneBase@ETSLayoutMgr@@QAEXABV01@@Z ; ETSLayoutMgr::CPaneBase::operator=

; 300  : 	//CRect rcSecond = pItem->getPaneRect();
; 301  : 	CRect rcAll = this->getPaneRect();

  00eaf	8d 55 a0	 lea	 edx, DWORD PTR _rcAll$[ebp]
  00eb2	52		 push	 edx
  00eb3	8b 4d f0	 mov	 ecx, DWORD PTR _this$[ebp]
  00eb6	e8 00 00 00 00	 call	 ?getPaneRect@PaneBase@ETSLayoutMgr@@QAE?AVCRect@@XZ ; ETSLayoutMgr::PaneBase::getPaneRect

; 302  : 	if(this->m_Orientation == ETSLayoutMgr::HORIZONTAL)

  00ebb	8b 45 f0	 mov	 eax, DWORD PTR _this$[ebp]
  00ebe	83 78 60 00	 cmp	 DWORD PTR [eax+96], 0
  00ec2	75 4b		 jne	 SHORT $L190615

; 303  : 		rc = CRect(rc.right, rc.top, rc.right + rcAll.Width() - rcSpl.Width() - pos, rc.bottom);//rc.InflateRect(-offset, 0, offset, 0);

  00ec4	8b 4d dc	 mov	 ecx, DWORD PTR _rc$[ebp+12]
  00ec7	51		 push	 ecx
  00ec8	8d 4d a0	 lea	 ecx, DWORD PTR _rcAll$[ebp]
  00ecb	e8 00 00 00 00	 call	 ?Width@CRect@@QBEHXZ	; CRect::Width
  00ed0	8b f0		 mov	 esi, eax
  00ed2	03 75 d8	 add	 esi, DWORD PTR _rc$[ebp+8]
  00ed5	8d 4d b8	 lea	 ecx, DWORD PTR _rcSpl$[ebp]
  00ed8	e8 00 00 00 00	 call	 ?Width@CRect@@QBEHXZ	; CRect::Width
  00edd	2b f0		 sub	 esi, eax
  00edf	2b 75 08	 sub	 esi, DWORD PTR _pos$[ebp]
  00ee2	56		 push	 esi
  00ee3	8b 55 d4	 mov	 edx, DWORD PTR _rc$[ebp+4]
  00ee6	52		 push	 edx
  00ee7	8b 45 d8	 mov	 eax, DWORD PTR _rc$[ebp+8]
  00eea	50		 push	 eax
  00eeb	8d 8d 4c ff ff
	ff		 lea	 ecx, DWORD PTR $T193156[ebp]
  00ef1	e8 00 00 00 00	 call	 ??0CRect@@QAE@HHHH@Z	; CRect::CRect
  00ef6	8b 08		 mov	 ecx, DWORD PTR [eax]
  00ef8	89 4d d0	 mov	 DWORD PTR _rc$[ebp], ecx
  00efb	8b 50 04	 mov	 edx, DWORD PTR [eax+4]
  00efe	89 55 d4	 mov	 DWORD PTR _rc$[ebp+4], edx
  00f01	8b 48 08	 mov	 ecx, DWORD PTR [eax+8]
  00f04	89 4d d8	 mov	 DWORD PTR _rc$[ebp+8], ecx
  00f07	8b 50 0c	 mov	 edx, DWORD PTR [eax+12]
  00f0a	89 55 dc	 mov	 DWORD PTR _rc$[ebp+12], edx

; 304  : 	else

  00f0d	eb 49		 jmp	 SHORT $L190617
$L190615:

; 305  : 		rc = CRect(rc.left, rc.bottom, rc.right, rc.bottom + rcAll.Height() - rcSpl.Height() - pos); //rc.InflateRect(0, -offset,0, offset);

  00f0f	8d 4d a0	 lea	 ecx, DWORD PTR _rcAll$[ebp]
  00f12	e8 00 00 00 00	 call	 ?Height@CRect@@QBEHXZ	; CRect::Height
  00f17	8b f0		 mov	 esi, eax
  00f19	03 75 dc	 add	 esi, DWORD PTR _rc$[ebp+12]
  00f1c	8d 4d b8	 lea	 ecx, DWORD PTR _rcSpl$[ebp]
  00f1f	e8 00 00 00 00	 call	 ?Height@CRect@@QBEHXZ	; CRect::Height
  00f24	2b f0		 sub	 esi, eax
  00f26	2b 75 08	 sub	 esi, DWORD PTR _pos$[ebp]
  00f29	56		 push	 esi
  00f2a	8b 45 d8	 mov	 eax, DWORD PTR _rc$[ebp+8]
  00f2d	50		 push	 eax
  00f2e	8b 4d dc	 mov	 ecx, DWORD PTR _rc$[ebp+12]
  00f31	51		 push	 ecx
  00f32	8b 55 d0	 mov	 edx, DWORD PTR _rc$[ebp]
  00f35	52		 push	 edx
  00f36	8d 8d 3c ff ff
	ff		 lea	 ecx, DWORD PTR $T193157[ebp]
  00f3c	e8 00 00 00 00	 call	 ??0CRect@@QAE@HHHH@Z	; CRect::CRect
  00f41	8b 08		 mov	 ecx, DWORD PTR [eax]
  00f43	89 4d d0	 mov	 DWORD PTR _rc$[ebp], ecx
  00f46	8b 50 04	 mov	 edx, DWORD PTR [eax+4]
  00f49	89 55 d4	 mov	 DWORD PTR _rc$[ebp+4], edx
  00f4c	8b 48 08	 mov	 ecx, DWORD PTR [eax+8]
  00f4f	89 4d d8	 mov	 DWORD PTR _rc$[ebp+8], ecx
  00f52	8b 50 0c	 mov	 edx, DWORD PTR [eax+12]
  00f55	89 55 dc	 mov	 DWORD PTR _rc$[ebp+12], edx
$L190617:

; 306  : 	ForceResizeTo(pItem, rc);

  00f58	6a 00		 push	 0
  00f5a	8d 45 d0	 lea	 eax, DWORD PTR _rc$[ebp]
  00f5d	50		 push	 eax
  00f5e	8d 4d e8	 lea	 ecx, DWORD PTR _pItem$[ebp]
  00f61	51		 push	 ecx
  00f62	8b 4d f0	 mov	 ecx, DWORD PTR _this$[ebp]
  00f65	e8 00 00 00 00	 call	 ?ForceResizeTo@PaneSplitter@ETSLayoutMgr@@AAEXAAVCPaneBase@2@AAVCRect@@_N@Z ; ETSLayoutMgr::PaneSplitter::ForceResizeTo

; 307  : 
; 308  : 	if(!IsClosed())

  00f6a	8b 4d f0	 mov	 ecx, DWORD PTR _this$[ebp]
  00f6d	e8 00 00 00 00	 call	 ?IsClosed@PaneSplitter@ETSLayoutMgr@@QAEHXZ ; ETSLayoutMgr::PaneSplitter::IsClosed
  00f72	85 c0		 test	 eax, eax
  00f74	75 08		 jne	 SHORT $L190619

; 309  : 		setOpenConstrain();

  00f76	8b 4d f0	 mov	 ecx, DWORD PTR _this$[ebp]
  00f79	e8 00 00 00 00	 call	 ?setOpenConstrain@PaneSplitter@ETSLayoutMgr@@QAEXXZ ; ETSLayoutMgr::PaneSplitter::setOpenConstrain
$L190619:

; 310  : 
; 311  : }

  00f7e	c7 45 fc ff ff
	ff ff		 mov	 DWORD PTR __$EHRec$[ebp+8], -1
  00f85	8d 4d e8	 lea	 ecx, DWORD PTR _pItem$[ebp]
  00f88	e8 00 00 00 00	 call	 ??1CPaneBase@ETSLayoutMgr@@QAE@XZ ; ETSLayoutMgr::CPaneBase::~CPaneBase
  00f8d	52		 push	 edx
  00f8e	8b cd		 mov	 ecx, ebp
  00f90	50		 push	 eax
  00f91	8d 15 00 00 00
	00		 lea	 edx, DWORD PTR $L193167
  00f97	e8 00 00 00 00	 call	 @_RTC_CheckStackVars@8
  00f9c	58		 pop	 eax
  00f9d	5a		 pop	 edx
  00f9e	8b 4d f4	 mov	 ecx, DWORD PTR __$EHRec$[ebp]
  00fa1	64 89 0d 00 00
	00 00		 mov	 DWORD PTR fs:__except_list, ecx
  00fa8	5f		 pop	 edi
  00fa9	5e		 pop	 esi
  00faa	81 c4 c4 00 00
	00		 add	 esp, 196		; 000000c4H
  00fb0	3b ec		 cmp	 ebp, esp
  00fb2	e8 00 00 00 00	 call	 __RTC_CheckEsp
  00fb7	8b e5		 mov	 esp, ebp
  00fb9	5d		 pop	 ebp
  00fba	c2 04 00	 ret	 4
$L193167:
  00fbd	04 00 00 00	 DD	 4
  00fc1	00 00 00 00	 DD	 $L193166
$L193166:
  00fc5	e8 ff ff ff	 DD	 -24			; ffffffe8H
  00fc9	04 00 00 00	 DD	 4
  00fcd	00 00 00 00	 DD	 $L193161
  00fd1	d0 ff ff ff	 DD	 -48			; ffffffd0H
  00fd5	10 00 00 00	 DD	 16			; 00000010H
  00fd9	00 00 00 00	 DD	 $L193162
  00fdd	b8 ff ff ff	 DD	 -72			; ffffffb8H
  00fe1	10 00 00 00	 DD	 16			; 00000010H
  00fe5	00 00 00 00	 DD	 $L193163
  00fe9	a0 ff ff ff	 DD	 -96			; ffffffa0H
  00fed	10 00 00 00	 DD	 16			; 00000010H
  00ff1	00 00 00 00	 DD	 $L193164
$L193164:
  00ff5	72		 DB	 114			; 00000072H
  00ff6	63		 DB	 99			; 00000063H
  00ff7	41		 DB	 65			; 00000041H
  00ff8	6c		 DB	 108			; 0000006cH
  00ff9	6c		 DB	 108			; 0000006cH
  00ffa	00		 DB	 0
$L193163:
  00ffb	72		 DB	 114			; 00000072H
  00ffc	63		 DB	 99			; 00000063H
  00ffd	53		 DB	 83			; 00000053H
  00ffe	70		 DB	 112			; 00000070H
  00fff	6c		 DB	 108			; 0000006cH
  01000	00		 DB	 0
$L193162:
  01001	72		 DB	 114			; 00000072H
  01002	63		 DB	 99			; 00000063H
  01003	00		 DB	 0
$L193161:
  01004	70		 DB	 112			; 00000070H
  01005	49		 DB	 73			; 00000049H
  01006	74		 DB	 116			; 00000074H
  01007	65		 DB	 101			; 00000065H
  01008	6d		 DB	 109			; 0000006dH
  01009	00		 DB	 0
_TEXT	ENDS
text$x	SEGMENT
$L193158:
  00091	8d 4d e8	 lea	 ecx, DWORD PTR _pItem$[ebp]
  00094	e9 00 00 00 00	 jmp	 ??1CPaneBase@ETSLayoutMgr@@QAE@XZ ; ETSLayoutMgr::CPaneBase::~CPaneBase
__ehhandler$?SetSplPosition@PaneSplitter@ETSLayoutMgr@@QAEXH@Z:
  00099	b8 00 00 00 00	 mov	 eax, OFFSET FLAT:$T193160
  0009e	e9 00 00 00 00	 jmp	 ___CxxFrameHandler
text$x	ENDS
?SetSplPosition@PaneSplitter@ETSLayoutMgr@@QAEXH@Z ENDP	; ETSLayoutMgr::PaneSplitter::SetSplPosition
PUBLIC	?GetSplPosition@PaneSplitter@ETSLayoutMgr@@QAEHXZ ; ETSLayoutMgr::PaneSplitter::GetSplPosition
xdata$x	SEGMENT
$T193183 DD	0ffffffffH
	DD	FLAT:$L193174
$T193176 DD	019930520H
	DD	01H
	DD	FLAT:$T193183
	DD	2 DUP(00H)
	DD	2 DUP(00H)
; Function compile flags: /Odt /RTCsu
xdata$x	ENDS
_TEXT	SEGMENT
$T193173 = -88						; size = 4
$T193172 = -84						; size = 4
$T193171 = -80						; size = 4
_rc2$ = -72						; size = 16
_rc$ = -48						; size = 16
_pItem$ = -24						; size = 4
_this$ = -16						; size = 4
__$EHRec$ = -12						; size = 12
?GetSplPosition@PaneSplitter@ETSLayoutMgr@@QAEHXZ PROC NEAR ; ETSLayoutMgr::PaneSplitter::GetSplPosition
; _this$ = ecx

; 314  : {

  01010	55		 push	 ebp
  01011	8b ec		 mov	 ebp, esp
  01013	6a ff		 push	 -1
  01015	68 00 00 00 00	 push	 __ehhandler$?GetSplPosition@PaneSplitter@ETSLayoutMgr@@QAEHXZ
  0101a	64 a1 00 00 00
	00		 mov	 eax, DWORD PTR fs:__except_list
  01020	50		 push	 eax
  01021	64 89 25 00 00
	00 00		 mov	 DWORD PTR fs:__except_list, esp
  01028	83 ec 4c	 sub	 esp, 76			; 0000004cH
  0102b	57		 push	 edi
  0102c	51		 push	 ecx
  0102d	8d 7d a8	 lea	 edi, DWORD PTR [ebp-88]
  01030	b9 13 00 00 00	 mov	 ecx, 19			; 00000013H
  01035	b8 cc cc cc cc	 mov	 eax, -858993460		; ccccccccH
  0103a	f3 ab		 rep stosd
  0103c	59		 pop	 ecx
  0103d	89 4d f0	 mov	 DWORD PTR _this$[ebp], ecx

; 315  : 	ASSERT(m_paneItems.GetSize() == 3);

  01040	8b 4d f0	 mov	 ecx, DWORD PTR _this$[ebp]
  01043	83 c1 64	 add	 ecx, 100		; 00000064H
  01046	e8 00 00 00 00	 call	 ?GetSize@?$CArray@VCPaneBase@ETSLayoutMgr@@V12@@@QBEHXZ ; CArray<ETSLayoutMgr::CPaneBase,ETSLayoutMgr::CPaneBase>::GetSize
  0104b	83 f8 03	 cmp	 eax, 3
  0104e	74 14		 je	 SHORT $L193170
  01050	68 3b 01 00 00	 push	 315			; 0000013bH
  01055	68 00 00 00 00	 push	 OFFSET FLAT:$SG190624
  0105a	e8 00 00 00 00	 call	 ?AfxAssertFailedLine@@YGHPBDH@Z ; AfxAssertFailedLine
  0105f	85 c0		 test	 eax, eax
  01061	74 01		 je	 SHORT $L193170
  01063	cc		 int	 3
$L193170:

; 316  : 
; 317  : 	CPaneBase pItem = m_paneItems[0];

  01064	6a 00		 push	 0
  01066	8b 4d f0	 mov	 ecx, DWORD PTR _this$[ebp]
  01069	83 c1 64	 add	 ecx, 100		; 00000064H
  0106c	e8 00 00 00 00	 call	 ??A?$CArray@VCPaneBase@ETSLayoutMgr@@V12@@@QAEAAVCPaneBase@ETSLayoutMgr@@H@Z ; CArray<ETSLayoutMgr::CPaneBase,ETSLayoutMgr::CPaneBase>::operator[]
  01071	50		 push	 eax
  01072	8d 4d e8	 lea	 ecx, DWORD PTR _pItem$[ebp]
  01075	e8 00 00 00 00	 call	 ??0CPaneBase@ETSLayoutMgr@@QAE@ABV01@@Z ; ETSLayoutMgr::CPaneBase::CPaneBase
  0107a	c7 45 fc 00 00
	00 00		 mov	 DWORD PTR __$EHRec$[ebp+8], 0

; 318  : 	CRect rc = pItem->getPaneRect();

  01081	8d 4d d0	 lea	 ecx, DWORD PTR _rc$[ebp]
  01084	51		 push	 ecx
  01085	8d 4d e8	 lea	 ecx, DWORD PTR _pItem$[ebp]
  01088	e8 00 00 00 00	 call	 ??CCPaneBase@ETSLayoutMgr@@QBEPAVPaneBase@1@XZ ; ETSLayoutMgr::CPaneBase::operator->
  0108d	8b c8		 mov	 ecx, eax
  0108f	e8 00 00 00 00	 call	 ?getPaneRect@PaneBase@ETSLayoutMgr@@QAE?AVCRect@@XZ ; ETSLayoutMgr::PaneBase::getPaneRect

; 319  : 
; 320  : 	pItem = m_paneItems[1];

  01094	6a 01		 push	 1
  01096	8b 4d f0	 mov	 ecx, DWORD PTR _this$[ebp]
  01099	83 c1 64	 add	 ecx, 100		; 00000064H
  0109c	e8 00 00 00 00	 call	 ??A?$CArray@VCPaneBase@ETSLayoutMgr@@V12@@@QAEAAVCPaneBase@ETSLayoutMgr@@H@Z ; CArray<ETSLayoutMgr::CPaneBase,ETSLayoutMgr::CPaneBase>::operator[]
  010a1	50		 push	 eax
  010a2	8d 4d e8	 lea	 ecx, DWORD PTR _pItem$[ebp]
  010a5	e8 00 00 00 00	 call	 ??4CPaneBase@ETSLayoutMgr@@QAEXABV01@@Z ; ETSLayoutMgr::CPaneBase::operator=

; 321  : 	CRect rc2 = pItem->getPaneRect();

  010aa	8d 55 b8	 lea	 edx, DWORD PTR _rc2$[ebp]
  010ad	52		 push	 edx
  010ae	8d 4d e8	 lea	 ecx, DWORD PTR _pItem$[ebp]
  010b1	e8 00 00 00 00	 call	 ??CCPaneBase@ETSLayoutMgr@@QBEPAVPaneBase@1@XZ ; ETSLayoutMgr::CPaneBase::operator->
  010b6	8b c8		 mov	 ecx, eax
  010b8	e8 00 00 00 00	 call	 ?getPaneRect@PaneBase@ETSLayoutMgr@@QAE?AVCRect@@XZ ; ETSLayoutMgr::PaneBase::getPaneRect

; 322  : 
; 323  : 	if(rc.Width() == 0 && rc2.Width() == 0)

  010bd	8d 4d d0	 lea	 ecx, DWORD PTR _rc$[ebp]
  010c0	e8 00 00 00 00	 call	 ?Width@CRect@@QBEHXZ	; CRect::Width
  010c5	85 c0		 test	 eax, eax
  010c7	75 27		 jne	 SHORT $L190630
  010c9	8d 4d b8	 lea	 ecx, DWORD PTR _rc2$[ebp]
  010cc	e8 00 00 00 00	 call	 ?Width@CRect@@QBEHXZ	; CRect::Width
  010d1	85 c0		 test	 eax, eax
  010d3	75 1b		 jne	 SHORT $L190630

; 324  : 		return -1;

  010d5	c7 45 b0 ff ff
	ff ff		 mov	 DWORD PTR $T193171[ebp], -1
  010dc	c7 45 fc ff ff
	ff ff		 mov	 DWORD PTR __$EHRec$[ebp+8], -1
  010e3	8d 4d e8	 lea	 ecx, DWORD PTR _pItem$[ebp]
  010e6	e8 00 00 00 00	 call	 ??1CPaneBase@ETSLayoutMgr@@QAE@XZ ; ETSLayoutMgr::CPaneBase::~CPaneBase
  010eb	8b 45 b0	 mov	 eax, DWORD PTR $T193171[ebp]
  010ee	eb 45		 jmp	 SHORT $L190622
$L190630:

; 325  : 
; 326  : 	if(this->m_Orientation == ETSLayoutMgr::HORIZONTAL)

  010f0	8b 45 f0	 mov	 eax, DWORD PTR _this$[ebp]
  010f3	83 78 60 00	 cmp	 DWORD PTR [eax+96], 0
  010f7	75 1f		 jne	 SHORT $L190632

; 327  : 		return rc.Width();

  010f9	8d 4d d0	 lea	 ecx, DWORD PTR _rc$[ebp]
  010fc	e8 00 00 00 00	 call	 ?Width@CRect@@QBEHXZ	; CRect::Width
  01101	89 45 ac	 mov	 DWORD PTR $T193172[ebp], eax
  01104	c7 45 fc ff ff
	ff ff		 mov	 DWORD PTR __$EHRec$[ebp+8], -1
  0110b	8d 4d e8	 lea	 ecx, DWORD PTR _pItem$[ebp]
  0110e	e8 00 00 00 00	 call	 ??1CPaneBase@ETSLayoutMgr@@QAE@XZ ; ETSLayoutMgr::CPaneBase::~CPaneBase
  01113	8b 45 ac	 mov	 eax, DWORD PTR $T193172[ebp]
  01116	eb 1d		 jmp	 SHORT $L190622
$L190632:

; 328  : 	else
; 329  : 		return rc.Height();

  01118	8d 4d d0	 lea	 ecx, DWORD PTR _rc$[ebp]
  0111b	e8 00 00 00 00	 call	 ?Height@CRect@@QBEHXZ	; CRect::Height
  01120	89 45 a8	 mov	 DWORD PTR $T193173[ebp], eax
  01123	c7 45 fc ff ff
	ff ff		 mov	 DWORD PTR __$EHRec$[ebp+8], -1
  0112a	8d 4d e8	 lea	 ecx, DWORD PTR _pItem$[ebp]
  0112d	e8 00 00 00 00	 call	 ??1CPaneBase@ETSLayoutMgr@@QAE@XZ ; ETSLayoutMgr::CPaneBase::~CPaneBase
  01132	8b 45 a8	 mov	 eax, DWORD PTR $T193173[ebp]
$L190622:

; 330  : }

  01135	52		 push	 edx
  01136	8b cd		 mov	 ecx, ebp
  01138	50		 push	 eax
  01139	8d 15 00 00 00
	00		 lea	 edx, DWORD PTR $L193182
  0113f	e8 00 00 00 00	 call	 @_RTC_CheckStackVars@8
  01144	58		 pop	 eax
  01145	5a		 pop	 edx
  01146	8b 4d f4	 mov	 ecx, DWORD PTR __$EHRec$[ebp]
  01149	64 89 0d 00 00
	00 00		 mov	 DWORD PTR fs:__except_list, ecx
  01150	5f		 pop	 edi
  01151	83 c4 58	 add	 esp, 88			; 00000058H
  01154	3b ec		 cmp	 ebp, esp
  01156	e8 00 00 00 00	 call	 __RTC_CheckEsp
  0115b	8b e5		 mov	 esp, ebp
  0115d	5d		 pop	 ebp
  0115e	c3		 ret	 0
$L193182:
  0115f	03 00 00 00	 DD	 3
  01163	00 00 00 00	 DD	 $L193181
$L193181:
  01167	e8 ff ff ff	 DD	 -24			; ffffffe8H
  0116b	04 00 00 00	 DD	 4
  0116f	00 00 00 00	 DD	 $L193177
  01173	d0 ff ff ff	 DD	 -48			; ffffffd0H
  01177	10 00 00 00	 DD	 16			; 00000010H
  0117b	00 00 00 00	 DD	 $L193178
  0117f	b8 ff ff ff	 DD	 -72			; ffffffb8H
  01183	10 00 00 00	 DD	 16			; 00000010H
  01187	00 00 00 00	 DD	 $L193179
$L193179:
  0118b	72		 DB	 114			; 00000072H
  0118c	63		 DB	 99			; 00000063H
  0118d	32		 DB	 50			; 00000032H
  0118e	00		 DB	 0
$L193178:
  0118f	72		 DB	 114			; 00000072H
  01190	63		 DB	 99			; 00000063H
  01191	00		 DB	 0
$L193177:
  01192	70		 DB	 112			; 00000070H
  01193	49		 DB	 73			; 00000049H
  01194	74		 DB	 116			; 00000074H
  01195	65		 DB	 101			; 00000065H
  01196	6d		 DB	 109			; 0000006dH
  01197	00		 DB	 0
_TEXT	ENDS
text$x	SEGMENT
$L193174:
  000a3	8d 4d e8	 lea	 ecx, DWORD PTR _pItem$[ebp]
  000a6	e9 00 00 00 00	 jmp	 ??1CPaneBase@ETSLayoutMgr@@QAE@XZ ; ETSLayoutMgr::CPaneBase::~CPaneBase
__ehhandler$?GetSplPosition@PaneSplitter@ETSLayoutMgr@@QAEHXZ:
  000ab	b8 00 00 00 00	 mov	 eax, OFFSET FLAT:$T193176
  000b0	e9 00 00 00 00	 jmp	 ___CxxFrameHandler
text$x	ENDS
?GetSplPosition@PaneSplitter@ETSLayoutMgr@@QAEHXZ ENDP	; ETSLayoutMgr::PaneSplitter::GetSplPosition
PUBLIC	?GetOuterPaneMinPosition@PaneSplitter@ETSLayoutMgr@@QAEHXZ ; ETSLayoutMgr::PaneSplitter::GetOuterPaneMinPosition
xdata$x	SEGMENT
$T193193 DD	0ffffffffH
	DD	FLAT:$L193186
$T193188 DD	019930520H
	DD	01H
	DD	FLAT:$T193193
	DD	2 DUP(00H)
	DD	2 DUP(00H)
; Function compile flags: /Odt /RTCsu
xdata$x	ENDS
_TEXT	SEGMENT
tv75 = -40						; size = 4
$T193185 = -36						; size = 4
_min$ = -32						; size = 4
_pItem$ = -24						; size = 4
_this$ = -16						; size = 4
__$EHRec$ = -12						; size = 12
?GetOuterPaneMinPosition@PaneSplitter@ETSLayoutMgr@@QAEHXZ PROC NEAR ; ETSLayoutMgr::PaneSplitter::GetOuterPaneMinPosition
; _this$ = ecx

; 334  : {

  011a0	55		 push	 ebp
  011a1	8b ec		 mov	 ebp, esp
  011a3	6a ff		 push	 -1
  011a5	68 00 00 00 00	 push	 __ehhandler$?GetOuterPaneMinPosition@PaneSplitter@ETSLayoutMgr@@QAEHXZ
  011aa	64 a1 00 00 00
	00		 mov	 eax, DWORD PTR fs:__except_list
  011b0	50		 push	 eax
  011b1	64 89 25 00 00
	00 00		 mov	 DWORD PTR fs:__except_list, esp
  011b8	83 ec 1c	 sub	 esp, 28			; 0000001cH
  011bb	56		 push	 esi
  011bc	b8 cc cc cc cc	 mov	 eax, -858993460		; ccccccccH
  011c1	89 45 d8	 mov	 DWORD PTR [ebp-40], eax
  011c4	89 45 dc	 mov	 DWORD PTR [ebp-36], eax
  011c7	89 45 e0	 mov	 DWORD PTR [ebp-32], eax
  011ca	89 45 e4	 mov	 DWORD PTR [ebp-28], eax
  011cd	89 45 e8	 mov	 DWORD PTR [ebp-24], eax
  011d0	89 45 ec	 mov	 DWORD PTR [ebp-20], eax
  011d3	89 45 f0	 mov	 DWORD PTR [ebp-16], eax
  011d6	89 4d f0	 mov	 DWORD PTR _this$[ebp], ecx

; 335  : 	CPaneBase pItem = m_paneItems[2];

  011d9	6a 02		 push	 2
  011db	8b 4d f0	 mov	 ecx, DWORD PTR _this$[ebp]
  011de	83 c1 64	 add	 ecx, 100		; 00000064H
  011e1	e8 00 00 00 00	 call	 ??A?$CArray@VCPaneBase@ETSLayoutMgr@@V12@@@QAEAAVCPaneBase@ETSLayoutMgr@@H@Z ; CArray<ETSLayoutMgr::CPaneBase,ETSLayoutMgr::CPaneBase>::operator[]
  011e6	50		 push	 eax
  011e7	8d 4d e8	 lea	 ecx, DWORD PTR _pItem$[ebp]
  011ea	e8 00 00 00 00	 call	 ??0CPaneBase@ETSLayoutMgr@@QAE@ABV01@@Z ; ETSLayoutMgr::CPaneBase::CPaneBase
  011ef	c7 45 fc 00 00
	00 00		 mov	 DWORD PTR __$EHRec$[ebp+8], 0

; 336  : 	int min =  pItem->getMinConstrainHorz();

  011f6	8d 4d e8	 lea	 ecx, DWORD PTR _pItem$[ebp]
  011f9	e8 00 00 00 00	 call	 ??CCPaneBase@ETSLayoutMgr@@QBEPAVPaneBase@1@XZ ; ETSLayoutMgr::CPaneBase::operator->
  011fe	89 45 d8	 mov	 DWORD PTR tv75[ebp], eax
  01201	8b 45 d8	 mov	 eax, DWORD PTR tv75[ebp]
  01204	8b 10		 mov	 edx, DWORD PTR [eax]
  01206	8b f4		 mov	 esi, esp
  01208	8b 4d d8	 mov	 ecx, DWORD PTR tv75[ebp]
  0120b	ff 52 08	 call	 DWORD PTR [edx+8]
  0120e	3b f4		 cmp	 esi, esp
  01210	e8 00 00 00 00	 call	 __RTC_CheckEsp
  01215	89 45 e0	 mov	 DWORD PTR _min$[ebp], eax

; 337  : 
; 338  : 	return min;

  01218	8b 45 e0	 mov	 eax, DWORD PTR _min$[ebp]
  0121b	89 45 dc	 mov	 DWORD PTR $T193185[ebp], eax
  0121e	c7 45 fc ff ff
	ff ff		 mov	 DWORD PTR __$EHRec$[ebp+8], -1
  01225	8d 4d e8	 lea	 ecx, DWORD PTR _pItem$[ebp]
  01228	e8 00 00 00 00	 call	 ??1CPaneBase@ETSLayoutMgr@@QAE@XZ ; ETSLayoutMgr::CPaneBase::~CPaneBase
  0122d	8b 45 dc	 mov	 eax, DWORD PTR $T193185[ebp]

; 339  : }

  01230	52		 push	 edx
  01231	8b cd		 mov	 ecx, ebp
  01233	50		 push	 eax
  01234	8d 15 00 00 00
	00		 lea	 edx, DWORD PTR $L193192
  0123a	e8 00 00 00 00	 call	 @_RTC_CheckStackVars@8
  0123f	58		 pop	 eax
  01240	5a		 pop	 edx
  01241	8b 4d f4	 mov	 ecx, DWORD PTR __$EHRec$[ebp]
  01244	64 89 0d 00 00
	00 00		 mov	 DWORD PTR fs:__except_list, ecx
  0124b	5e		 pop	 esi
  0124c	83 c4 28	 add	 esp, 40			; 00000028H
  0124f	3b ec		 cmp	 ebp, esp
  01251	e8 00 00 00 00	 call	 __RTC_CheckEsp
  01256	8b e5		 mov	 esp, ebp
  01258	5d		 pop	 ebp
  01259	c3		 ret	 0
$L193192:
  0125a	01 00 00 00	 DD	 1
  0125e	00 00 00 00	 DD	 $L193191
$L193191:
  01262	e8 ff ff ff	 DD	 -24			; ffffffe8H
  01266	04 00 00 00	 DD	 4
  0126a	00 00 00 00	 DD	 $L193189
$L193189:
  0126e	70		 DB	 112			; 00000070H
  0126f	49		 DB	 73			; 00000049H
  01270	74		 DB	 116			; 00000074H
  01271	65		 DB	 101			; 00000065H
  01272	6d		 DB	 109			; 0000006dH
  01273	00		 DB	 0
_TEXT	ENDS
text$x	SEGMENT
$L193186:
  000b5	8d 4d e8	 lea	 ecx, DWORD PTR _pItem$[ebp]
  000b8	e9 00 00 00 00	 jmp	 ??1CPaneBase@ETSLayoutMgr@@QAE@XZ ; ETSLayoutMgr::CPaneBase::~CPaneBase
__ehhandler$?GetOuterPaneMinPosition@PaneSplitter@ETSLayoutMgr@@QAEHXZ:
  000bd	b8 00 00 00 00	 mov	 eax, OFFSET FLAT:$T193188
  000c2	e9 00 00 00 00	 jmp	 ___CxxFrameHandler
text$x	ENDS
?GetOuterPaneMinPosition@PaneSplitter@ETSLayoutMgr@@QAEHXZ ENDP ; ETSLayoutMgr::PaneSplitter::GetOuterPaneMinPosition
PUBLIC	?ForceResizeOuterPane@PaneSplitter@ETSLayoutMgr@@QAE_NH_N@Z ; ETSLayoutMgr::PaneSplitter::ForceResizeOuterPane
EXTRN	?InflateRect@CRect@@QAEXHHHH@Z:NEAR		; CRect::InflateRect
xdata$x	SEGMENT
$T193204 DD	0ffffffffH
	DD	FLAT:$L193196
$T193198 DD	019930520H
	DD	01H
	DD	FLAT:$T193204
	DD	2 DUP(00H)
	DD	2 DUP(00H)
; Function compile flags: /Odt /RTCsu
xdata$x	ENDS
_TEXT	SEGMENT
tv92 = -64						; size = 4
tv82 = -60						; size = 4
$T193195 = -53						; size = 1
_rc$ = -48						; size = 16
_pItem$ = -24						; size = 4
_this$ = -16						; size = 4
__$EHRec$ = -12						; size = 12
_offset$ = 8						; size = 4
_bRedraw$ = 12						; size = 1
?ForceResizeOuterPane@PaneSplitter@ETSLayoutMgr@@QAE_NH_N@Z PROC NEAR ; ETSLayoutMgr::PaneSplitter::ForceResizeOuterPane
; _this$ = ecx

; 342  : {

  01280	55		 push	 ebp
  01281	8b ec		 mov	 ebp, esp
  01283	6a ff		 push	 -1
  01285	68 00 00 00 00	 push	 __ehhandler$?ForceResizeOuterPane@PaneSplitter@ETSLayoutMgr@@QAE_NH_N@Z
  0128a	64 a1 00 00 00
	00		 mov	 eax, DWORD PTR fs:__except_list
  01290	50		 push	 eax
  01291	64 89 25 00 00
	00 00		 mov	 DWORD PTR fs:__except_list, esp
  01298	83 ec 34	 sub	 esp, 52			; 00000034H
  0129b	56		 push	 esi
  0129c	57		 push	 edi
  0129d	51		 push	 ecx
  0129e	8d 7d c0	 lea	 edi, DWORD PTR [ebp-64]
  012a1	b9 0d 00 00 00	 mov	 ecx, 13			; 0000000dH
  012a6	b8 cc cc cc cc	 mov	 eax, -858993460		; ccccccccH
  012ab	f3 ab		 rep stosd
  012ad	59		 pop	 ecx
  012ae	89 4d f0	 mov	 DWORD PTR _this$[ebp], ecx

; 343  : 	//Resize Splitter
; 344  : 	CPaneBase pItem = m_paneItems[2];

  012b1	6a 02		 push	 2
  012b3	8b 4d f0	 mov	 ecx, DWORD PTR _this$[ebp]
  012b6	83 c1 64	 add	 ecx, 100		; 00000064H
  012b9	e8 00 00 00 00	 call	 ??A?$CArray@VCPaneBase@ETSLayoutMgr@@V12@@@QAEAAVCPaneBase@ETSLayoutMgr@@H@Z ; CArray<ETSLayoutMgr::CPaneBase,ETSLayoutMgr::CPaneBase>::operator[]
  012be	50		 push	 eax
  012bf	8d 4d e8	 lea	 ecx, DWORD PTR _pItem$[ebp]
  012c2	e8 00 00 00 00	 call	 ??0CPaneBase@ETSLayoutMgr@@QAE@ABV01@@Z ; ETSLayoutMgr::CPaneBase::CPaneBase
  012c7	c7 45 fc 00 00
	00 00		 mov	 DWORD PTR __$EHRec$[ebp+8], 0

; 345  : 	CRect rc = pItem->getPaneRect();

  012ce	8d 45 d0	 lea	 eax, DWORD PTR _rc$[ebp]
  012d1	50		 push	 eax
  012d2	8d 4d e8	 lea	 ecx, DWORD PTR _pItem$[ebp]
  012d5	e8 00 00 00 00	 call	 ??CCPaneBase@ETSLayoutMgr@@QBEPAVPaneBase@1@XZ ; ETSLayoutMgr::CPaneBase::operator->
  012da	8b c8		 mov	 ecx, eax
  012dc	e8 00 00 00 00	 call	 ?getPaneRect@PaneBase@ETSLayoutMgr@@QAE?AVCRect@@XZ ; ETSLayoutMgr::PaneBase::getPaneRect

; 346  : 
; 347  : 	if(rc.Width() - offset < pItem->getMinConstrainHorz())

  012e1	8d 4d e8	 lea	 ecx, DWORD PTR _pItem$[ebp]
  012e4	e8 00 00 00 00	 call	 ??CCPaneBase@ETSLayoutMgr@@QBEPAVPaneBase@1@XZ ; ETSLayoutMgr::CPaneBase::operator->
  012e9	89 45 c4	 mov	 DWORD PTR tv82[ebp], eax
  012ec	8b f4		 mov	 esi, esp
  012ee	8b 4d c4	 mov	 ecx, DWORD PTR tv82[ebp]
  012f1	8b 11		 mov	 edx, DWORD PTR [ecx]
  012f3	8b 4d c4	 mov	 ecx, DWORD PTR tv82[ebp]
  012f6	ff 52 08	 call	 DWORD PTR [edx+8]
  012f9	3b f4		 cmp	 esi, esp
  012fb	e8 00 00 00 00	 call	 __RTC_CheckEsp
  01300	8b f0		 mov	 esi, eax
  01302	8d 4d d0	 lea	 ecx, DWORD PTR _rc$[ebp]
  01305	e8 00 00 00 00	 call	 ?Width@CRect@@QBEHXZ	; CRect::Width
  0130a	2b 45 08	 sub	 eax, DWORD PTR _offset$[ebp]
  0130d	3b c6		 cmp	 eax, esi
  0130f	7d 2e		 jge	 SHORT $L190650

; 348  : 		offset = rc.Width() - pItem->getMinConstrainHorz();

  01311	8d 4d e8	 lea	 ecx, DWORD PTR _pItem$[ebp]
  01314	e8 00 00 00 00	 call	 ??CCPaneBase@ETSLayoutMgr@@QBEPAVPaneBase@1@XZ ; ETSLayoutMgr::CPaneBase::operator->
  01319	89 45 c0	 mov	 DWORD PTR tv92[ebp], eax
  0131c	8b f4		 mov	 esi, esp
  0131e	8b 45 c0	 mov	 eax, DWORD PTR tv92[ebp]
  01321	8b 10		 mov	 edx, DWORD PTR [eax]
  01323	8b 4d c0	 mov	 ecx, DWORD PTR tv92[ebp]
  01326	ff 52 08	 call	 DWORD PTR [edx+8]
  01329	3b f4		 cmp	 esi, esp
  0132b	e8 00 00 00 00	 call	 __RTC_CheckEsp
  01330	8b f0		 mov	 esi, eax
  01332	8d 4d d0	 lea	 ecx, DWORD PTR _rc$[ebp]
  01335	e8 00 00 00 00	 call	 ?Width@CRect@@QBEHXZ	; CRect::Width
  0133a	2b c6		 sub	 eax, esi
  0133c	89 45 08	 mov	 DWORD PTR _offset$[ebp], eax
$L190650:

; 349  : 
; 350  : 	if(this->m_Orientation == ETSLayoutMgr::HORIZONTAL)

  0133f	8b 45 f0	 mov	 eax, DWORD PTR _this$[ebp]
  01342	83 78 60 00	 cmp	 DWORD PTR [eax+96], 0
  01346	75 14		 jne	 SHORT $L190652

; 351  : 		rc.InflateRect(0, 0, -offset, 0);

  01348	6a 00		 push	 0
  0134a	8b 4d 08	 mov	 ecx, DWORD PTR _offset$[ebp]
  0134d	f7 d9		 neg	 ecx
  0134f	51		 push	 ecx
  01350	6a 00		 push	 0
  01352	6a 00		 push	 0
  01354	8d 4d d0	 lea	 ecx, DWORD PTR _rc$[ebp]
  01357	e8 00 00 00 00	 call	 ?InflateRect@CRect@@QAEXHHHH@Z ; CRect::InflateRect
$L190652:

; 352  : 	else
; 353  : 		;
; 354  : 	ForceResizeTo(pItem, rc, bRedraw);

  0135c	8a 55 0c	 mov	 dl, BYTE PTR _bRedraw$[ebp]
  0135f	52		 push	 edx
  01360	8d 45 d0	 lea	 eax, DWORD PTR _rc$[ebp]
  01363	50		 push	 eax
  01364	8d 4d e8	 lea	 ecx, DWORD PTR _pItem$[ebp]
  01367	51		 push	 ecx
  01368	8b 4d f0	 mov	 ecx, DWORD PTR _this$[ebp]
  0136b	e8 00 00 00 00	 call	 ?ForceResizeTo@PaneSplitter@ETSLayoutMgr@@AAEXAAVCPaneBase@2@AAVCRect@@_N@Z ; ETSLayoutMgr::PaneSplitter::ForceResizeTo

; 355  : 
; 356  : 	this->m_pSpl->ShowWindow(SW_SHOW);

  01370	6a 05		 push	 5
  01372	8b 55 f0	 mov	 edx, DWORD PTR _this$[ebp]
  01375	8b 8a 94 00 00
	00		 mov	 ecx, DWORD PTR [edx+148]
  0137b	e8 00 00 00 00	 call	 ?ShowWindow@CWnd@@QAEHH@Z ; CWnd::ShowWindow

; 357  : 	return true;

  01380	c6 45 cb 01	 mov	 BYTE PTR $T193195[ebp], 1
  01384	c7 45 fc ff ff
	ff ff		 mov	 DWORD PTR __$EHRec$[ebp+8], -1
  0138b	8d 4d e8	 lea	 ecx, DWORD PTR _pItem$[ebp]
  0138e	e8 00 00 00 00	 call	 ??1CPaneBase@ETSLayoutMgr@@QAE@XZ ; ETSLayoutMgr::CPaneBase::~CPaneBase
  01393	8a 45 cb	 mov	 al, BYTE PTR $T193195[ebp]

; 358  : }

  01396	52		 push	 edx
  01397	8b cd		 mov	 ecx, ebp
  01399	50		 push	 eax
  0139a	8d 15 00 00 00
	00		 lea	 edx, DWORD PTR $L193203
  013a0	e8 00 00 00 00	 call	 @_RTC_CheckStackVars@8
  013a5	58		 pop	 eax
  013a6	5a		 pop	 edx
  013a7	8b 4d f4	 mov	 ecx, DWORD PTR __$EHRec$[ebp]
  013aa	64 89 0d 00 00
	00 00		 mov	 DWORD PTR fs:__except_list, ecx
  013b1	5f		 pop	 edi
  013b2	5e		 pop	 esi
  013b3	83 c4 40	 add	 esp, 64			; 00000040H
  013b6	3b ec		 cmp	 ebp, esp
  013b8	e8 00 00 00 00	 call	 __RTC_CheckEsp
  013bd	8b e5		 mov	 esp, ebp
  013bf	5d		 pop	 ebp
  013c0	c2 08 00	 ret	 8
$L193203:
  013c3	02 00 00 00	 DD	 2
  013c7	00 00 00 00	 DD	 $L193202
$L193202:
  013cb	e8 ff ff ff	 DD	 -24			; ffffffe8H
  013cf	04 00 00 00	 DD	 4
  013d3	00 00 00 00	 DD	 $L193199
  013d7	d0 ff ff ff	 DD	 -48			; ffffffd0H
  013db	10 00 00 00	 DD	 16			; 00000010H
  013df	00 00 00 00	 DD	 $L193200
$L193200:
  013e3	72		 DB	 114			; 00000072H
  013e4	63		 DB	 99			; 00000063H
  013e5	00		 DB	 0
$L193199:
  013e6	70		 DB	 112			; 00000070H
  013e7	49		 DB	 73			; 00000049H
  013e8	74		 DB	 116			; 00000074H
  013e9	65		 DB	 101			; 00000065H
  013ea	6d		 DB	 109			; 0000006dH
  013eb	00		 DB	 0
_TEXT	ENDS
text$x	SEGMENT
$L193196:
  000c7	8d 4d e8	 lea	 ecx, DWORD PTR _pItem$[ebp]
  000ca	e9 00 00 00 00	 jmp	 ??1CPaneBase@ETSLayoutMgr@@QAE@XZ ; ETSLayoutMgr::CPaneBase::~CPaneBase
__ehhandler$?ForceResizeOuterPane@PaneSplitter@ETSLayoutMgr@@QAE_NH_N@Z:
  000cf	b8 00 00 00 00	 mov	 eax, OFFSET FLAT:$T193198
  000d4	e9 00 00 00 00	 jmp	 ___CxxFrameHandler
text$x	ENDS
?ForceResizeOuterPane@PaneSplitter@ETSLayoutMgr@@QAE_NH_N@Z ENDP ; ETSLayoutMgr::PaneSplitter::ForceResizeOuterPane
PUBLIC	?resizeTo@PaneSplitter@ETSLayoutMgr@@QAE_NH_N0@Z ; ETSLayoutMgr::PaneSplitter::resizeTo
xdata$x	SEGMENT
$T193218 DD	0ffffffffH
	DD	FLAT:$L193210
$T193212 DD	019930520H
	DD	01H
	DD	FLAT:$T193218
	DD	2 DUP(00H)
	DD	2 DUP(00H)
; Function compile flags: /Odt /RTCsu
xdata$x	ENDS
_TEXT	SEGMENT
$T193209 = -85						; size = 1
$T193208 = -84						; size = 16
$T193207 = -68						; size = 16
_rc$ = -48						; size = 16
_pItem$ = -24						; size = 4
_this$ = -16						; size = 4
__$EHRec$ = -12						; size = 12
_offset$ = 8						; size = 4
_bRedraw$ = 12						; size = 1
_bReSizeAlways$ = 16					; size = 1
?resizeTo@PaneSplitter@ETSLayoutMgr@@QAE_NH_N0@Z PROC NEAR ; ETSLayoutMgr::PaneSplitter::resizeTo
; _this$ = ecx

; 361  : {

  013f0	55		 push	 ebp
  013f1	8b ec		 mov	 ebp, esp
  013f3	6a ff		 push	 -1
  013f5	68 00 00 00 00	 push	 __ehhandler$?resizeTo@PaneSplitter@ETSLayoutMgr@@QAE_NH_N0@Z
  013fa	64 a1 00 00 00
	00		 mov	 eax, DWORD PTR fs:__except_list
  01400	50		 push	 eax
  01401	64 89 25 00 00
	00 00		 mov	 DWORD PTR fs:__except_list, esp
  01408	83 ec 4c	 sub	 esp, 76			; 0000004cH
  0140b	57		 push	 edi
  0140c	51		 push	 ecx
  0140d	8d 7d a8	 lea	 edi, DWORD PTR [ebp-88]
  01410	b9 13 00 00 00	 mov	 ecx, 19			; 00000013H
  01415	b8 cc cc cc cc	 mov	 eax, -858993460		; ccccccccH
  0141a	f3 ab		 rep stosd
  0141c	59		 pop	 ecx
  0141d	89 4d f0	 mov	 DWORD PTR _this$[ebp], ecx

; 362  : 	ASSERT(m_paneItems.GetSize() == 3);

  01420	8b 4d f0	 mov	 ecx, DWORD PTR _this$[ebp]
  01423	83 c1 64	 add	 ecx, 100		; 00000064H
  01426	e8 00 00 00 00	 call	 ?GetSize@?$CArray@VCPaneBase@ETSLayoutMgr@@V12@@@QBEHXZ ; CArray<ETSLayoutMgr::CPaneBase,ETSLayoutMgr::CPaneBase>::GetSize
  0142b	83 f8 03	 cmp	 eax, 3
  0142e	74 14		 je	 SHORT $L193206
  01430	68 6a 01 00 00	 push	 362			; 0000016aH
  01435	68 00 00 00 00	 push	 OFFSET FLAT:$SG190661
  0143a	e8 00 00 00 00	 call	 ?AfxAssertFailedLine@@YGHPBDH@Z ; AfxAssertFailedLine
  0143f	85 c0		 test	 eax, eax
  01441	74 01		 je	 SHORT $L193206
  01443	cc		 int	 3
$L193206:

; 363  : 
; 364  : 	CPaneBase pItem = m_paneItems[0];

  01444	6a 00		 push	 0
  01446	8b 4d f0	 mov	 ecx, DWORD PTR _this$[ebp]
  01449	83 c1 64	 add	 ecx, 100		; 00000064H
  0144c	e8 00 00 00 00	 call	 ??A?$CArray@VCPaneBase@ETSLayoutMgr@@V12@@@QAEAAVCPaneBase@ETSLayoutMgr@@H@Z ; CArray<ETSLayoutMgr::CPaneBase,ETSLayoutMgr::CPaneBase>::operator[]
  01451	50		 push	 eax
  01452	8d 4d e8	 lea	 ecx, DWORD PTR _pItem$[ebp]
  01455	e8 00 00 00 00	 call	 ??0CPaneBase@ETSLayoutMgr@@QAE@ABV01@@Z ; ETSLayoutMgr::CPaneBase::CPaneBase
  0145a	c7 45 fc 00 00
	00 00		 mov	 DWORD PTR __$EHRec$[ebp+8], 0

; 365  : 	CRect rc = pItem->getPaneRect();

  01461	8d 4d d0	 lea	 ecx, DWORD PTR _rc$[ebp]
  01464	51		 push	 ecx
  01465	8d 4d e8	 lea	 ecx, DWORD PTR _pItem$[ebp]
  01468	e8 00 00 00 00	 call	 ??CCPaneBase@ETSLayoutMgr@@QBEPAVPaneBase@1@XZ ; ETSLayoutMgr::CPaneBase::operator->
  0146d	8b c8		 mov	 ecx, eax
  0146f	e8 00 00 00 00	 call	 ?getPaneRect@PaneBase@ETSLayoutMgr@@QAE?AVCRect@@XZ ; ETSLayoutMgr::PaneBase::getPaneRect

; 366  : 
; 367  : 	//Resize First Pane
; 368  : 	if(this->m_Orientation == ETSLayoutMgr::HORIZONTAL)

  01474	8b 55 f0	 mov	 edx, DWORD PTR _this$[ebp]
  01477	83 7a 60 00	 cmp	 DWORD PTR [edx+96], 0
  0147b	75 14		 jne	 SHORT $L190665

; 369  : 		rc.InflateRect(0,0, offset, 0);

  0147d	6a 00		 push	 0
  0147f	8b 45 08	 mov	 eax, DWORD PTR _offset$[ebp]
  01482	50		 push	 eax
  01483	6a 00		 push	 0
  01485	6a 00		 push	 0
  01487	8d 4d d0	 lea	 ecx, DWORD PTR _rc$[ebp]
  0148a	e8 00 00 00 00	 call	 ?InflateRect@CRect@@QAEXHHHH@Z ; CRect::InflateRect

; 370  : 	else

  0148f	eb 12		 jmp	 SHORT $L190666
$L190665:

; 371  : 		rc.InflateRect(0, 0, 0, offset);

  01491	8b 4d 08	 mov	 ecx, DWORD PTR _offset$[ebp]
  01494	51		 push	 ecx
  01495	6a 00		 push	 0
  01497	6a 00		 push	 0
  01499	6a 00		 push	 0
  0149b	8d 4d d0	 lea	 ecx, DWORD PTR _rc$[ebp]
  0149e	e8 00 00 00 00	 call	 ?InflateRect@CRect@@QAEXHHHH@Z ; CRect::InflateRect
$L190666:

; 372  : 	ForceResizeTo(pItem, rc, bRedraw);

  014a3	8a 55 0c	 mov	 dl, BYTE PTR _bRedraw$[ebp]
  014a6	52		 push	 edx
  014a7	8d 45 d0	 lea	 eax, DWORD PTR _rc$[ebp]
  014aa	50		 push	 eax
  014ab	8d 4d e8	 lea	 ecx, DWORD PTR _pItem$[ebp]
  014ae	51		 push	 ecx
  014af	8b 4d f0	 mov	 ecx, DWORD PTR _this$[ebp]
  014b2	e8 00 00 00 00	 call	 ?ForceResizeTo@PaneSplitter@ETSLayoutMgr@@AAEXAAVCPaneBase@2@AAVCRect@@_N@Z ; ETSLayoutMgr::PaneSplitter::ForceResizeTo

; 373  : 
; 374  : 	//Resize Second Pane
; 375  : 	pItem = m_paneItems[2];

  014b7	6a 02		 push	 2
  014b9	8b 4d f0	 mov	 ecx, DWORD PTR _this$[ebp]
  014bc	83 c1 64	 add	 ecx, 100		; 00000064H
  014bf	e8 00 00 00 00	 call	 ??A?$CArray@VCPaneBase@ETSLayoutMgr@@V12@@@QAEAAVCPaneBase@ETSLayoutMgr@@H@Z ; CArray<ETSLayoutMgr::CPaneBase,ETSLayoutMgr::CPaneBase>::operator[]
  014c4	50		 push	 eax
  014c5	8d 4d e8	 lea	 ecx, DWORD PTR _pItem$[ebp]
  014c8	e8 00 00 00 00	 call	 ??4CPaneBase@ETSLayoutMgr@@QAEXABV01@@Z ; ETSLayoutMgr::CPaneBase::operator=

; 376  : 	rc = pItem->getPaneRect();

  014cd	8d 55 bc	 lea	 edx, DWORD PTR $T193207[ebp]
  014d0	52		 push	 edx
  014d1	8d 4d e8	 lea	 ecx, DWORD PTR _pItem$[ebp]
  014d4	e8 00 00 00 00	 call	 ??CCPaneBase@ETSLayoutMgr@@QBEPAVPaneBase@1@XZ ; ETSLayoutMgr::CPaneBase::operator->
  014d9	8b c8		 mov	 ecx, eax
  014db	e8 00 00 00 00	 call	 ?getPaneRect@PaneBase@ETSLayoutMgr@@QAE?AVCRect@@XZ ; ETSLayoutMgr::PaneBase::getPaneRect
  014e0	8b 08		 mov	 ecx, DWORD PTR [eax]
  014e2	89 4d d0	 mov	 DWORD PTR _rc$[ebp], ecx
  014e5	8b 50 04	 mov	 edx, DWORD PTR [eax+4]
  014e8	89 55 d4	 mov	 DWORD PTR _rc$[ebp+4], edx
  014eb	8b 48 08	 mov	 ecx, DWORD PTR [eax+8]
  014ee	89 4d d8	 mov	 DWORD PTR _rc$[ebp+8], ecx
  014f1	8b 50 0c	 mov	 edx, DWORD PTR [eax+12]
  014f4	89 55 dc	 mov	 DWORD PTR _rc$[ebp+12], edx

; 377  : 	if(this->m_Orientation == ETSLayoutMgr::HORIZONTAL)

  014f7	8b 45 f0	 mov	 eax, DWORD PTR _this$[ebp]
  014fa	83 78 60 00	 cmp	 DWORD PTR [eax+96], 0
  014fe	75 16		 jne	 SHORT $L190668

; 378  : 		rc.InflateRect(-offset,0, 0,  0);

  01500	6a 00		 push	 0
  01502	6a 00		 push	 0
  01504	6a 00		 push	 0
  01506	8b 4d 08	 mov	 ecx, DWORD PTR _offset$[ebp]
  01509	f7 d9		 neg	 ecx
  0150b	51		 push	 ecx
  0150c	8d 4d d0	 lea	 ecx, DWORD PTR _rc$[ebp]
  0150f	e8 00 00 00 00	 call	 ?InflateRect@CRect@@QAEXHHHH@Z ; CRect::InflateRect

; 379  : 	else

  01514	eb 14		 jmp	 SHORT $L190669
$L190668:

; 380  : 		rc.InflateRect(0, -offset, 0,0);

  01516	6a 00		 push	 0
  01518	6a 00		 push	 0
  0151a	8b 55 08	 mov	 edx, DWORD PTR _offset$[ebp]
  0151d	f7 da		 neg	 edx
  0151f	52		 push	 edx
  01520	6a 00		 push	 0
  01522	8d 4d d0	 lea	 ecx, DWORD PTR _rc$[ebp]
  01525	e8 00 00 00 00	 call	 ?InflateRect@CRect@@QAEXHHHH@Z ; CRect::InflateRect
$L190669:

; 381  : 	ForceResizeTo(pItem, rc, bRedraw);

  0152a	8a 45 0c	 mov	 al, BYTE PTR _bRedraw$[ebp]
  0152d	50		 push	 eax
  0152e	8d 4d d0	 lea	 ecx, DWORD PTR _rc$[ebp]
  01531	51		 push	 ecx
  01532	8d 55 e8	 lea	 edx, DWORD PTR _pItem$[ebp]
  01535	52		 push	 edx
  01536	8b 4d f0	 mov	 ecx, DWORD PTR _this$[ebp]
  01539	e8 00 00 00 00	 call	 ?ForceResizeTo@PaneSplitter@ETSLayoutMgr@@AAEXAAVCPaneBase@2@AAVCRect@@_N@Z ; ETSLayoutMgr::PaneSplitter::ForceResizeTo

; 382  : 
; 383  : 	//Resize Splitter
; 384  : 	pItem = m_paneItems[1];

  0153e	6a 01		 push	 1
  01540	8b 4d f0	 mov	 ecx, DWORD PTR _this$[ebp]
  01543	83 c1 64	 add	 ecx, 100		; 00000064H
  01546	e8 00 00 00 00	 call	 ??A?$CArray@VCPaneBase@ETSLayoutMgr@@V12@@@QAEAAVCPaneBase@ETSLayoutMgr@@H@Z ; CArray<ETSLayoutMgr::CPaneBase,ETSLayoutMgr::CPaneBase>::operator[]
  0154b	50		 push	 eax
  0154c	8d 4d e8	 lea	 ecx, DWORD PTR _pItem$[ebp]
  0154f	e8 00 00 00 00	 call	 ??4CPaneBase@ETSLayoutMgr@@QAEXABV01@@Z ; ETSLayoutMgr::CPaneBase::operator=

; 385  : 	rc = pItem->getPaneRect();

  01554	8d 45 ac	 lea	 eax, DWORD PTR $T193208[ebp]
  01557	50		 push	 eax
  01558	8d 4d e8	 lea	 ecx, DWORD PTR _pItem$[ebp]
  0155b	e8 00 00 00 00	 call	 ??CCPaneBase@ETSLayoutMgr@@QBEPAVPaneBase@1@XZ ; ETSLayoutMgr::CPaneBase::operator->
  01560	8b c8		 mov	 ecx, eax
  01562	e8 00 00 00 00	 call	 ?getPaneRect@PaneBase@ETSLayoutMgr@@QAE?AVCRect@@XZ ; ETSLayoutMgr::PaneBase::getPaneRect
  01567	8b 08		 mov	 ecx, DWORD PTR [eax]
  01569	89 4d d0	 mov	 DWORD PTR _rc$[ebp], ecx
  0156c	8b 50 04	 mov	 edx, DWORD PTR [eax+4]
  0156f	89 55 d4	 mov	 DWORD PTR _rc$[ebp+4], edx
  01572	8b 48 08	 mov	 ecx, DWORD PTR [eax+8]
  01575	89 4d d8	 mov	 DWORD PTR _rc$[ebp+8], ecx
  01578	8b 50 0c	 mov	 edx, DWORD PTR [eax+12]
  0157b	89 55 dc	 mov	 DWORD PTR _rc$[ebp+12], edx

; 386  : 	if(this->m_Orientation == ETSLayoutMgr::HORIZONTAL)

  0157e	8b 45 f0	 mov	 eax, DWORD PTR _this$[ebp]
  01581	83 78 60 00	 cmp	 DWORD PTR [eax+96], 0
  01585	75 18		 jne	 SHORT $L190671

; 387  : 		rc.InflateRect(-offset, 0, offset, 0);

  01587	6a 00		 push	 0
  01589	8b 4d 08	 mov	 ecx, DWORD PTR _offset$[ebp]
  0158c	51		 push	 ecx
  0158d	6a 00		 push	 0
  0158f	8b 55 08	 mov	 edx, DWORD PTR _offset$[ebp]
  01592	f7 da		 neg	 edx
  01594	52		 push	 edx
  01595	8d 4d d0	 lea	 ecx, DWORD PTR _rc$[ebp]
  01598	e8 00 00 00 00	 call	 ?InflateRect@CRect@@QAEXHHHH@Z ; CRect::InflateRect

; 388  : 	else

  0159d	eb 16		 jmp	 SHORT $L190672
$L190671:

; 389  : 		rc.InflateRect(0, -offset,0, offset);

  0159f	8b 45 08	 mov	 eax, DWORD PTR _offset$[ebp]
  015a2	50		 push	 eax
  015a3	6a 00		 push	 0
  015a5	8b 4d 08	 mov	 ecx, DWORD PTR _offset$[ebp]
  015a8	f7 d9		 neg	 ecx
  015aa	51		 push	 ecx
  015ab	6a 00		 push	 0
  015ad	8d 4d d0	 lea	 ecx, DWORD PTR _rc$[ebp]
  015b0	e8 00 00 00 00	 call	 ?InflateRect@CRect@@QAEXHHHH@Z ; CRect::InflateRect
$L190672:

; 390  : 	ForceResizeTo(pItem, rc, bRedraw);

  015b5	8a 55 0c	 mov	 dl, BYTE PTR _bRedraw$[ebp]
  015b8	52		 push	 edx
  015b9	8d 45 d0	 lea	 eax, DWORD PTR _rc$[ebp]
  015bc	50		 push	 eax
  015bd	8d 4d e8	 lea	 ecx, DWORD PTR _pItem$[ebp]
  015c0	51		 push	 ecx
  015c1	8b 4d f0	 mov	 ecx, DWORD PTR _this$[ebp]
  015c4	e8 00 00 00 00	 call	 ?ForceResizeTo@PaneSplitter@ETSLayoutMgr@@AAEXAAVCPaneBase@2@AAVCRect@@_N@Z ; ETSLayoutMgr::PaneSplitter::ForceResizeTo

; 391  : 
; 392  : 	//this->m_nSplClosedPos = this->GetSplPosition();
; 393  : 	//this->m_pSpl->ShowWindow(SW_SHOW);
; 394  : 	return true;

  015c9	c6 45 ab 01	 mov	 BYTE PTR $T193209[ebp], 1
  015cd	c7 45 fc ff ff
	ff ff		 mov	 DWORD PTR __$EHRec$[ebp+8], -1
  015d4	8d 4d e8	 lea	 ecx, DWORD PTR _pItem$[ebp]
  015d7	e8 00 00 00 00	 call	 ??1CPaneBase@ETSLayoutMgr@@QAE@XZ ; ETSLayoutMgr::CPaneBase::~CPaneBase
  015dc	8a 45 ab	 mov	 al, BYTE PTR $T193209[ebp]

; 395  : }

  015df	52		 push	 edx
  015e0	8b cd		 mov	 ecx, ebp
  015e2	50		 push	 eax
  015e3	8d 15 00 00 00
	00		 lea	 edx, DWORD PTR $L193217
  015e9	e8 00 00 00 00	 call	 @_RTC_CheckStackVars@8
  015ee	58		 pop	 eax
  015ef	5a		 pop	 edx
  015f0	8b 4d f4	 mov	 ecx, DWORD PTR __$EHRec$[ebp]
  015f3	64 89 0d 00 00
	00 00		 mov	 DWORD PTR fs:__except_list, ecx
  015fa	5f		 pop	 edi
  015fb	83 c4 58	 add	 esp, 88			; 00000058H
  015fe	3b ec		 cmp	 ebp, esp
  01600	e8 00 00 00 00	 call	 __RTC_CheckEsp
  01605	8b e5		 mov	 esp, ebp
  01607	5d		 pop	 ebp
  01608	c2 0c 00	 ret	 12			; 0000000cH
$L193217:
  0160b	02 00 00 00	 DD	 2
  0160f	00 00 00 00	 DD	 $L193216
$L193216:
  01613	e8 ff ff ff	 DD	 -24			; ffffffe8H
  01617	04 00 00 00	 DD	 4
  0161b	00 00 00 00	 DD	 $L193213
  0161f	d0 ff ff ff	 DD	 -48			; ffffffd0H
  01623	10 00 00 00	 DD	 16			; 00000010H
  01627	00 00 00 00	 DD	 $L193214
$L193214:
  0162b	72		 DB	 114			; 00000072H
  0162c	63		 DB	 99			; 00000063H
  0162d	00		 DB	 0
$L193213:
  0162e	70		 DB	 112			; 00000070H
  0162f	49		 DB	 73			; 00000049H
  01630	74		 DB	 116			; 00000074H
  01631	65		 DB	 101			; 00000065H
  01632	6d		 DB	 109			; 0000006dH
  01633	00		 DB	 0
_TEXT	ENDS
text$x	SEGMENT
$L193210:
  000d9	8d 4d e8	 lea	 ecx, DWORD PTR _pItem$[ebp]
  000dc	e9 00 00 00 00	 jmp	 ??1CPaneBase@ETSLayoutMgr@@QAE@XZ ; ETSLayoutMgr::CPaneBase::~CPaneBase
__ehhandler$?resizeTo@PaneSplitter@ETSLayoutMgr@@QAE_NH_N0@Z:
  000e1	b8 00 00 00 00	 mov	 eax, OFFSET FLAT:$T193212
  000e6	e9 00 00 00 00	 jmp	 ___CxxFrameHandler
text$x	ENDS
?resizeTo@PaneSplitter@ETSLayoutMgr@@QAE_NH_N0@Z ENDP	; ETSLayoutMgr::PaneSplitter::resizeTo
PUBLIC	?getSecondSize@PaneSplitter@ETSLayoutMgr@@QAEHXZ ; ETSLayoutMgr::PaneSplitter::getSecondSize
xdata$x	SEGMENT
$T193229 DD	0ffffffffH
	DD	FLAT:$L193221
$T193223 DD	019930520H
	DD	01H
	DD	FLAT:$T193229
	DD	2 DUP(00H)
	DD	2 DUP(00H)
; Function compile flags: /Odt /RTCsu
xdata$x	ENDS
_TEXT	SEGMENT
$T193220 = -60						; size = 4
_value$ = -56						; size = 4
_rc$ = -48						; size = 16
_pItem$ = -24						; size = 4
_this$ = -16						; size = 4
__$EHRec$ = -12						; size = 12
?getSecondSize@PaneSplitter@ETSLayoutMgr@@QAEHXZ PROC NEAR ; ETSLayoutMgr::PaneSplitter::getSecondSize
; _this$ = ecx

; 397  : {

  01640	55		 push	 ebp
  01641	8b ec		 mov	 ebp, esp
  01643	6a ff		 push	 -1
  01645	68 00 00 00 00	 push	 __ehhandler$?getSecondSize@PaneSplitter@ETSLayoutMgr@@QAEHXZ
  0164a	64 a1 00 00 00
	00		 mov	 eax, DWORD PTR fs:__except_list
  01650	50		 push	 eax
  01651	64 89 25 00 00
	00 00		 mov	 DWORD PTR fs:__except_list, esp
  01658	83 ec 30	 sub	 esp, 48			; 00000030H
  0165b	57		 push	 edi
  0165c	51		 push	 ecx
  0165d	8d 7d c4	 lea	 edi, DWORD PTR [ebp-60]
  01660	b9 0c 00 00 00	 mov	 ecx, 12			; 0000000cH
  01665	b8 cc cc cc cc	 mov	 eax, -858993460		; ccccccccH
  0166a	f3 ab		 rep stosd
  0166c	59		 pop	 ecx
  0166d	89 4d f0	 mov	 DWORD PTR _this$[ebp], ecx

; 398  : 	if(m_paneItems.GetSize() != 3)

  01670	8b 4d f0	 mov	 ecx, DWORD PTR _this$[ebp]
  01673	83 c1 64	 add	 ecx, 100		; 00000064H
  01676	e8 00 00 00 00	 call	 ?GetSize@?$CArray@VCPaneBase@ETSLayoutMgr@@V12@@@QBEHXZ ; CArray<ETSLayoutMgr::CPaneBase,ETSLayoutMgr::CPaneBase>::GetSize
  0167b	83 f8 03	 cmp	 eax, 3
  0167e	74 04		 je	 SHORT $L190677

; 399  : 		return 0;

  01680	33 c0		 xor	 eax, eax
  01682	eb 69		 jmp	 SHORT $L190676
$L190677:

; 400  : 	CPaneBase pItem = m_paneItems[2];

  01684	6a 02		 push	 2
  01686	8b 4d f0	 mov	 ecx, DWORD PTR _this$[ebp]
  01689	83 c1 64	 add	 ecx, 100		; 00000064H
  0168c	e8 00 00 00 00	 call	 ??A?$CArray@VCPaneBase@ETSLayoutMgr@@V12@@@QAEAAVCPaneBase@ETSLayoutMgr@@H@Z ; CArray<ETSLayoutMgr::CPaneBase,ETSLayoutMgr::CPaneBase>::operator[]
  01691	50		 push	 eax
  01692	8d 4d e8	 lea	 ecx, DWORD PTR _pItem$[ebp]
  01695	e8 00 00 00 00	 call	 ??0CPaneBase@ETSLayoutMgr@@QAE@ABV01@@Z ; ETSLayoutMgr::CPaneBase::CPaneBase
  0169a	c7 45 fc 00 00
	00 00		 mov	 DWORD PTR __$EHRec$[ebp+8], 0

; 401  : 	CRect rc = pItem->getPaneRect();

  016a1	8d 45 d0	 lea	 eax, DWORD PTR _rc$[ebp]
  016a4	50		 push	 eax
  016a5	8d 4d e8	 lea	 ecx, DWORD PTR _pItem$[ebp]
  016a8	e8 00 00 00 00	 call	 ??CCPaneBase@ETSLayoutMgr@@QBEPAVPaneBase@1@XZ ; ETSLayoutMgr::CPaneBase::operator->
  016ad	8b c8		 mov	 ecx, eax
  016af	e8 00 00 00 00	 call	 ?getPaneRect@PaneBase@ETSLayoutMgr@@QAE?AVCRect@@XZ ; ETSLayoutMgr::PaneBase::getPaneRect

; 402  : 	int value;
; 403  : 
; 404  : 	if(this->m_Orientation == ETSLayoutMgr::HORIZONTAL)

  016b4	8b 4d f0	 mov	 ecx, DWORD PTR _this$[ebp]
  016b7	83 79 60 00	 cmp	 DWORD PTR [ecx+96], 0
  016bb	75 0d		 jne	 SHORT $L190682

; 405  : 		value= rc.Height();

  016bd	8d 4d d0	 lea	 ecx, DWORD PTR _rc$[ebp]
  016c0	e8 00 00 00 00	 call	 ?Height@CRect@@QBEHXZ	; CRect::Height
  016c5	89 45 c8	 mov	 DWORD PTR _value$[ebp], eax

; 406  : 	else

  016c8	eb 0b		 jmp	 SHORT $L190683
$L190682:

; 407  : 		value = rc.Width();

  016ca	8d 4d d0	 lea	 ecx, DWORD PTR _rc$[ebp]
  016cd	e8 00 00 00 00	 call	 ?Width@CRect@@QBEHXZ	; CRect::Width
  016d2	89 45 c8	 mov	 DWORD PTR _value$[ebp], eax
$L190683:

; 408  : 	return value;

  016d5	8b 55 c8	 mov	 edx, DWORD PTR _value$[ebp]
  016d8	89 55 c4	 mov	 DWORD PTR $T193220[ebp], edx
  016db	c7 45 fc ff ff
	ff ff		 mov	 DWORD PTR __$EHRec$[ebp+8], -1
  016e2	8d 4d e8	 lea	 ecx, DWORD PTR _pItem$[ebp]
  016e5	e8 00 00 00 00	 call	 ??1CPaneBase@ETSLayoutMgr@@QAE@XZ ; ETSLayoutMgr::CPaneBase::~CPaneBase
  016ea	8b 45 c4	 mov	 eax, DWORD PTR $T193220[ebp]
$L190676:

; 409  : }

  016ed	52		 push	 edx
  016ee	8b cd		 mov	 ecx, ebp
  016f0	50		 push	 eax
  016f1	8d 15 00 00 00
	00		 lea	 edx, DWORD PTR $L193228
  016f7	e8 00 00 00 00	 call	 @_RTC_CheckStackVars@8
  016fc	58		 pop	 eax
  016fd	5a		 pop	 edx
  016fe	8b 4d f4	 mov	 ecx, DWORD PTR __$EHRec$[ebp]
  01701	64 89 0d 00 00
	00 00		 mov	 DWORD PTR fs:__except_list, ecx
  01708	5f		 pop	 edi
  01709	83 c4 3c	 add	 esp, 60			; 0000003cH
  0170c	3b ec		 cmp	 ebp, esp
  0170e	e8 00 00 00 00	 call	 __RTC_CheckEsp
  01713	8b e5		 mov	 esp, ebp
  01715	5d		 pop	 ebp
  01716	c3		 ret	 0
$L193228:
  01717	02 00 00 00	 DD	 2
  0171b	00 00 00 00	 DD	 $L193227
$L193227:
  0171f	e8 ff ff ff	 DD	 -24			; ffffffe8H
  01723	04 00 00 00	 DD	 4
  01727	00 00 00 00	 DD	 $L193224
  0172b	d0 ff ff ff	 DD	 -48			; ffffffd0H
  0172f	10 00 00 00	 DD	 16			; 00000010H
  01733	00 00 00 00	 DD	 $L193225
$L193225:
  01737	72		 DB	 114			; 00000072H
  01738	63		 DB	 99			; 00000063H
  01739	00		 DB	 0
$L193224:
  0173a	70		 DB	 112			; 00000070H
  0173b	49		 DB	 73			; 00000049H
  0173c	74		 DB	 116			; 00000074H
  0173d	65		 DB	 101			; 00000065H
  0173e	6d		 DB	 109			; 0000006dH
  0173f	00		 DB	 0
_TEXT	ENDS
text$x	SEGMENT
$L193221:
  000eb	8d 4d e8	 lea	 ecx, DWORD PTR _pItem$[ebp]
  000ee	e9 00 00 00 00	 jmp	 ??1CPaneBase@ETSLayoutMgr@@QAE@XZ ; ETSLayoutMgr::CPaneBase::~CPaneBase
__ehhandler$?getSecondSize@PaneSplitter@ETSLayoutMgr@@QAEHXZ:
  000f3	b8 00 00 00 00	 mov	 eax, OFFSET FLAT:$T193223
  000f8	e9 00 00 00 00	 jmp	 ___CxxFrameHandler
text$x	ENDS
?getSecondSize@PaneSplitter@ETSLayoutMgr@@QAEHXZ ENDP	; ETSLayoutMgr::PaneSplitter::getSecondSize
xdata$x	SEGMENT
$T193241 DD	0ffffffffH
	DD	FLAT:$L193233
$T193235 DD	019930520H
	DD	01H
	DD	FLAT:$T193241
	DD	2 DUP(00H)
	DD	2 DUP(00H)
; Function compile flags: /Odt /RTCsu
xdata$x	ENDS
_TEXT	SEGMENT
tv92 = -68						; size = 4
$T193232 = -64						; size = 4
$T193231 = -60						; size = 4
_rc$ = -52						; size = 16
_width$ = -32						; size = 4
_pItem$ = -24						; size = 4
_this$ = -16						; size = 4
__$EHRec$ = -12						; size = 12
?IsClosed@PaneSplitter@ETSLayoutMgr@@QAEHXZ PROC NEAR	; ETSLayoutMgr::PaneSplitter::IsClosed
; _this$ = ecx

; 412  : {

  01740	55		 push	 ebp
  01741	8b ec		 mov	 ebp, esp
  01743	6a ff		 push	 -1
  01745	68 00 00 00 00	 push	 __ehhandler$?IsClosed@PaneSplitter@ETSLayoutMgr@@QAEHXZ
  0174a	64 a1 00 00 00
	00		 mov	 eax, DWORD PTR fs:__except_list
  01750	50		 push	 eax
  01751	64 89 25 00 00
	00 00		 mov	 DWORD PTR fs:__except_list, esp
  01758	83 ec 38	 sub	 esp, 56			; 00000038H
  0175b	56		 push	 esi
  0175c	57		 push	 edi
  0175d	51		 push	 ecx
  0175e	8d 7d bc	 lea	 edi, DWORD PTR [ebp-68]
  01761	b9 0e 00 00 00	 mov	 ecx, 14			; 0000000eH
  01766	b8 cc cc cc cc	 mov	 eax, -858993460		; ccccccccH
  0176b	f3 ab		 rep stosd
  0176d	59		 pop	 ecx
  0176e	89 4d f0	 mov	 DWORD PTR _this$[ebp], ecx

; 413  : 	CPaneBase pItem;

  01771	8d 4d e8	 lea	 ecx, DWORD PTR _pItem$[ebp]
  01774	e8 00 00 00 00	 call	 ??0CPaneBase@ETSLayoutMgr@@QAE@XZ ; ETSLayoutMgr::CPaneBase::CPaneBase
  01779	c7 45 fc 00 00
	00 00		 mov	 DWORD PTR __$EHRec$[ebp+8], 0

; 414  : 	int width;
; 415  : 
; 416  : 	if(this->m_nClosedOri == 0)

  01780	8b 45 f0	 mov	 eax, DWORD PTR _this$[ebp]
  01783	83 b8 84 00 00
	00 00		 cmp	 DWORD PTR [eax+132], 0
  0178a	75 18		 jne	 SHORT $L190690

; 417  : 		pItem = m_paneItems[0];

  0178c	6a 00		 push	 0
  0178e	8b 4d f0	 mov	 ecx, DWORD PTR _this$[ebp]
  01791	83 c1 64	 add	 ecx, 100		; 00000064H
  01794	e8 00 00 00 00	 call	 ??A?$CArray@VCPaneBase@ETSLayoutMgr@@V12@@@QAEAAVCPaneBase@ETSLayoutMgr@@H@Z ; CArray<ETSLayoutMgr::CPaneBase,ETSLayoutMgr::CPaneBase>::operator[]
  01799	50		 push	 eax
  0179a	8d 4d e8	 lea	 ecx, DWORD PTR _pItem$[ebp]
  0179d	e8 00 00 00 00	 call	 ??4CPaneBase@ETSLayoutMgr@@QAEXABV01@@Z ; ETSLayoutMgr::CPaneBase::operator=

; 418  : 	else

  017a2	eb 16		 jmp	 SHORT $L190691
$L190690:

; 419  : 		pItem = m_paneItems[2];

  017a4	6a 02		 push	 2
  017a6	8b 4d f0	 mov	 ecx, DWORD PTR _this$[ebp]
  017a9	83 c1 64	 add	 ecx, 100		; 00000064H
  017ac	e8 00 00 00 00	 call	 ??A?$CArray@VCPaneBase@ETSLayoutMgr@@V12@@@QAEAAVCPaneBase@ETSLayoutMgr@@H@Z ; CArray<ETSLayoutMgr::CPaneBase,ETSLayoutMgr::CPaneBase>::operator[]
  017b1	50		 push	 eax
  017b2	8d 4d e8	 lea	 ecx, DWORD PTR _pItem$[ebp]
  017b5	e8 00 00 00 00	 call	 ??4CPaneBase@ETSLayoutMgr@@QAEXABV01@@Z ; ETSLayoutMgr::CPaneBase::operator=
$L190691:

; 420  : 
; 421  : 	CRect rc = pItem->getPaneRect();

  017ba	8d 4d cc	 lea	 ecx, DWORD PTR _rc$[ebp]
  017bd	51		 push	 ecx
  017be	8d 4d e8	 lea	 ecx, DWORD PTR _pItem$[ebp]
  017c1	e8 00 00 00 00	 call	 ??CCPaneBase@ETSLayoutMgr@@QBEPAVPaneBase@1@XZ ; ETSLayoutMgr::CPaneBase::operator->
  017c6	8b c8		 mov	 ecx, eax
  017c8	e8 00 00 00 00	 call	 ?getPaneRect@PaneBase@ETSLayoutMgr@@QAE?AVCRect@@XZ ; ETSLayoutMgr::PaneBase::getPaneRect

; 422  : 
; 423  : 	if(this->m_Orientation == ETSLayoutMgr::HORIZONTAL)

  017cd	8b 55 f0	 mov	 edx, DWORD PTR _this$[ebp]
  017d0	83 7a 60 00	 cmp	 DWORD PTR [edx+96], 0
  017d4	75 0d		 jne	 SHORT $L190694

; 424  : 	{
; 425  : 		width = rc.Width();

  017d6	8d 4d cc	 lea	 ecx, DWORD PTR _rc$[ebp]
  017d9	e8 00 00 00 00	 call	 ?Width@CRect@@QBEHXZ	; CRect::Width
  017de	89 45 e0	 mov	 DWORD PTR _width$[ebp], eax

; 426  : 	}
; 427  : 	else

  017e1	eb 2f		 jmp	 SHORT $L190695
$L190694:

; 428  : 	{
; 429  : 		width = pItem->getConstrainVert(0);

  017e3	8d 4d e8	 lea	 ecx, DWORD PTR _pItem$[ebp]
  017e6	e8 00 00 00 00	 call	 ??CCPaneBase@ETSLayoutMgr@@QBEPAVPaneBase@1@XZ ; ETSLayoutMgr::CPaneBase::operator->
  017eb	89 45 bc	 mov	 DWORD PTR tv92[ebp], eax
  017ee	8b f4		 mov	 esi, esp
  017f0	6a 00		 push	 0
  017f2	8b 45 bc	 mov	 eax, DWORD PTR tv92[ebp]
  017f5	8b 10		 mov	 edx, DWORD PTR [eax]
  017f7	8b 4d bc	 mov	 ecx, DWORD PTR tv92[ebp]
  017fa	ff 52 04	 call	 DWORD PTR [edx+4]
  017fd	3b f4		 cmp	 esi, esp
  017ff	e8 00 00 00 00	 call	 __RTC_CheckEsp
  01804	89 45 e0	 mov	 DWORD PTR _width$[ebp], eax

; 430  : 		width = rc.Height();

  01807	8d 4d cc	 lea	 ecx, DWORD PTR _rc$[ebp]
  0180a	e8 00 00 00 00	 call	 ?Height@CRect@@QBEHXZ	; CRect::Height
  0180f	89 45 e0	 mov	 DWORD PTR _width$[ebp], eax
$L190695:

; 431  : 	}
; 432  : 
; 433  : 	if(width == this->m_nSplClosedPos)

  01812	8b 45 f0	 mov	 eax, DWORD PTR _this$[ebp]
  01815	8b 4d e0	 mov	 ecx, DWORD PTR _width$[ebp]
  01818	3b 88 88 00 00
	00		 cmp	 ecx, DWORD PTR [eax+136]
  0181e	75 1b		 jne	 SHORT $L190696

; 434  : 		return true;

  01820	c7 45 c4 01 00
	00 00		 mov	 DWORD PTR $T193231[ebp], 1
  01827	c7 45 fc ff ff
	ff ff		 mov	 DWORD PTR __$EHRec$[ebp+8], -1
  0182e	8d 4d e8	 lea	 ecx, DWORD PTR _pItem$[ebp]
  01831	e8 00 00 00 00	 call	 ??1CPaneBase@ETSLayoutMgr@@QAE@XZ ; ETSLayoutMgr::CPaneBase::~CPaneBase
  01836	8b 45 c4	 mov	 eax, DWORD PTR $T193231[ebp]
  01839	eb 19		 jmp	 SHORT $L190687
$L190696:

; 435  : 	return false;

  0183b	c7 45 c0 00 00
	00 00		 mov	 DWORD PTR $T193232[ebp], 0
  01842	c7 45 fc ff ff
	ff ff		 mov	 DWORD PTR __$EHRec$[ebp+8], -1
  01849	8d 4d e8	 lea	 ecx, DWORD PTR _pItem$[ebp]
  0184c	e8 00 00 00 00	 call	 ??1CPaneBase@ETSLayoutMgr@@QAE@XZ ; ETSLayoutMgr::CPaneBase::~CPaneBase
  01851	8b 45 c0	 mov	 eax, DWORD PTR $T193232[ebp]
$L190687:

; 436  : }

  01854	52		 push	 edx
  01855	8b cd		 mov	 ecx, ebp
  01857	50		 push	 eax
  01858	8d 15 00 00 00
	00		 lea	 edx, DWORD PTR $L193240
  0185e	e8 00 00 00 00	 call	 @_RTC_CheckStackVars@8
  01863	58		 pop	 eax
  01864	5a		 pop	 edx
  01865	8b 4d f4	 mov	 ecx, DWORD PTR __$EHRec$[ebp]
  01868	64 89 0d 00 00
	00 00		 mov	 DWORD PTR fs:__except_list, ecx
  0186f	5f		 pop	 edi
  01870	5e		 pop	 esi
  01871	83 c4 44	 add	 esp, 68			; 00000044H
  01874	3b ec		 cmp	 ebp, esp
  01876	e8 00 00 00 00	 call	 __RTC_CheckEsp
  0187b	8b e5		 mov	 esp, ebp
  0187d	5d		 pop	 ebp
  0187e	c3		 ret	 0
$L193240:
  0187f	02 00 00 00	 DD	 2
  01883	00 00 00 00	 DD	 $L193239
$L193239:
  01887	e8 ff ff ff	 DD	 -24			; ffffffe8H
  0188b	04 00 00 00	 DD	 4
  0188f	00 00 00 00	 DD	 $L193236
  01893	cc ff ff ff	 DD	 -52			; ffffffccH
  01897	10 00 00 00	 DD	 16			; 00000010H
  0189b	00 00 00 00	 DD	 $L193237
$L193237:
  0189f	72		 DB	 114			; 00000072H
  018a0	63		 DB	 99			; 00000063H
  018a1	00		 DB	 0
$L193236:
  018a2	70		 DB	 112			; 00000070H
  018a3	49		 DB	 73			; 00000049H
  018a4	74		 DB	 116			; 00000074H
  018a5	65		 DB	 101			; 00000065H
  018a6	6d		 DB	 109			; 0000006dH
  018a7	00		 DB	 0
_TEXT	ENDS
text$x	SEGMENT
$L193233:
  000fd	8d 4d e8	 lea	 ecx, DWORD PTR _pItem$[ebp]
  00100	e9 00 00 00 00	 jmp	 ??1CPaneBase@ETSLayoutMgr@@QAE@XZ ; ETSLayoutMgr::CPaneBase::~CPaneBase
__ehhandler$?IsClosed@PaneSplitter@ETSLayoutMgr@@QAEHXZ:
  00105	b8 00 00 00 00	 mov	 eax, OFFSET FLAT:$T193235
  0010a	e9 00 00 00 00	 jmp	 ___CxxFrameHandler
text$x	ENDS
?IsClosed@PaneSplitter@ETSLayoutMgr@@QAEHXZ ENDP	; ETSLayoutMgr::PaneSplitter::IsClosed
EXTRN	?addPane@Pane@ETSLayoutMgr@@UAE_NVCPaneBase@2@@Z:NEAR ; ETSLayoutMgr::Pane::addPane
EXTRN	?addPane@Pane@ETSLayoutMgr@@UAE_NVCPane@2@W4layResizeMode@2@H@Z:NEAR ; ETSLayoutMgr::Pane::addPane
EXTRN	?item@ETSLayoutMgr@@QAE?AVCPaneBase@1@PAVCWnd@@W4layResizeMode@1@HHHH@Z:NEAR ; ETSLayoutMgr::item
EXTRN	??0CPane@ETSLayoutMgr@@QAE@ABV01@@Z:NEAR	; ETSLayoutMgr::CPane::CPane
EXTRN	??1CPane@ETSLayoutMgr@@QAE@XZ:NEAR		; ETSLayoutMgr::CPane::~CPane
EXTRN	?GetSplSize@ETSSplitter@@QAEHXZ:NEAR		; ETSSplitter::GetSplSize
xdata$x	SEGMENT
$T193254 DD	0ffffffffH
	DD	FLAT:$L193247
$T193252 DD	019930520H
	DD	01H
	DD	FLAT:$T193254
	DD	2 DUP(00H)
	DD	2 DUP(00H)
; Function compile flags: /Odt /RTCsu
xdata$x	ENDS
_TEXT	SEGMENT
tv192 = -44						; size = 4
tv188 = -40						; size = 4
tv186 = -36						; size = 4
$T193246 = -29						; size = 1
$T193245 = -28						; size = 4
$T193244 = -24						; size = 4
$T193243 = -20						; size = 4
_this$ = -16						; size = 4
__$EHRec$ = -12						; size = 12
_pSubpane$ = 8						; size = 4
_modeResize$ = 12					; size = 4
_sizeSecondary$ = 16					; size = 4
?addPane@PaneSplitter@ETSLayoutMgr@@UAE_NVCPane@2@W4layResizeMode@2@H@Z PROC NEAR ; ETSLayoutMgr::PaneSplitter::addPane
; _this$ = ecx

; 439  : {

  018b0	55		 push	 ebp
  018b1	8b ec		 mov	 ebp, esp
  018b3	6a ff		 push	 -1
  018b5	68 00 00 00 00	 push	 __ehhandler$?addPane@PaneSplitter@ETSLayoutMgr@@UAE_NVCPane@2@W4layResizeMode@2@H@Z
  018ba	64 a1 00 00 00
	00		 mov	 eax, DWORD PTR fs:__except_list
  018c0	50		 push	 eax
  018c1	64 89 25 00 00
	00 00		 mov	 DWORD PTR fs:__except_list, esp
  018c8	83 ec 20	 sub	 esp, 32			; 00000020H
  018cb	56		 push	 esi
  018cc	b8 cc cc cc cc	 mov	 eax, -858993460		; ccccccccH
  018d1	89 45 d4	 mov	 DWORD PTR [ebp-44], eax
  018d4	89 45 d8	 mov	 DWORD PTR [ebp-40], eax
  018d7	89 45 dc	 mov	 DWORD PTR [ebp-36], eax
  018da	89 45 e0	 mov	 DWORD PTR [ebp-32], eax
  018dd	89 45 e4	 mov	 DWORD PTR [ebp-28], eax
  018e0	89 45 e8	 mov	 DWORD PTR [ebp-24], eax
  018e3	89 45 ec	 mov	 DWORD PTR [ebp-20], eax
  018e6	89 45 f0	 mov	 DWORD PTR [ebp-16], eax
  018e9	89 4d f0	 mov	 DWORD PTR _this$[ebp], ecx
  018ec	c7 45 fc 00 00
	00 00		 mov	 DWORD PTR __$EHRec$[ebp+8], 0

; 440  : 	if(this->m_paneItems.GetSize() == 1)

  018f3	8b 4d f0	 mov	 ecx, DWORD PTR _this$[ebp]
  018f6	83 c1 64	 add	 ecx, 100		; 00000064H
  018f9	e8 00 00 00 00	 call	 ?GetSize@?$CArray@VCPaneBase@ETSLayoutMgr@@V12@@@QBEHXZ ; CArray<ETSLayoutMgr::CPaneBase,ETSLayoutMgr::CPaneBase>::GetSize
  018fe	83 f8 01	 cmp	 eax, 1
  01901	0f 85 a1 00 00
	00		 jne	 $L190705

; 441  : 	{
; 442  : 		if(this->m_Orientation == ETSLayoutMgr::HORIZONTAL)

  01907	8b 45 f0	 mov	 eax, DWORD PTR _this$[ebp]
  0190a	83 78 60 00	 cmp	 DWORD PTR [eax+96], 0
  0190e	75 4d		 jne	 SHORT $L190706

; 443  : 			Pane::addPane(this->m_pMgr->item((CWnd*)this->m_pSpl, ABSOLUTE_HORZ , m_pSpl->GetSplSize(), 0,m_pSpl->GetSplSize()));

  01910	51		 push	 ecx
  01911	8b f4		 mov	 esi, esp
  01913	89 65 ec	 mov	 DWORD PTR $T193243[ebp], esp
  01916	6a ff		 push	 -1
  01918	8b 4d f0	 mov	 ecx, DWORD PTR _this$[ebp]
  0191b	8b 89 94 00 00
	00		 mov	 ecx, DWORD PTR [ecx+148]
  01921	e8 00 00 00 00	 call	 ?GetSplSize@ETSSplitter@@QAEHXZ ; ETSSplitter::GetSplSize
  01926	50		 push	 eax
  01927	6a 00		 push	 0
  01929	8b 55 f0	 mov	 edx, DWORD PTR _this$[ebp]
  0192c	8b 8a 94 00 00
	00		 mov	 ecx, DWORD PTR [edx+148]
  01932	e8 00 00 00 00	 call	 ?GetSplSize@ETSSplitter@@QAEHXZ ; ETSSplitter::GetSplSize
  01937	50		 push	 eax
  01938	6a 01		 push	 1
  0193a	8b 45 f0	 mov	 eax, DWORD PTR _this$[ebp]
  0193d	8b 88 94 00 00
	00		 mov	 ecx, DWORD PTR [eax+148]
  01943	51		 push	 ecx
  01944	56		 push	 esi
  01945	8b 55 f0	 mov	 edx, DWORD PTR _this$[ebp]
  01948	8b 4a 38	 mov	 ecx, DWORD PTR [edx+56]
  0194b	e8 00 00 00 00	 call	 ?item@ETSLayoutMgr@@QAE?AVCPaneBase@1@PAVCWnd@@W4layResizeMode@1@HHHH@Z ; ETSLayoutMgr::item
  01950	89 45 dc	 mov	 DWORD PTR tv186[ebp], eax
  01953	8b 4d f0	 mov	 ecx, DWORD PTR _this$[ebp]
  01956	e8 00 00 00 00	 call	 ?addPane@Pane@ETSLayoutMgr@@UAE_NVCPaneBase@2@@Z ; ETSLayoutMgr::Pane::addPane

; 444  : 		else

  0195b	eb 4b		 jmp	 SHORT $L190705
$L190706:

; 445  : 			Pane::addPane(this->m_pMgr->item((CWnd*)this->m_pSpl, ABSOLUTE_VERT , 0, m_pSpl->GetSplSize(),0,m_pSpl->GetSplSize()));

  0195d	8b 45 f0	 mov	 eax, DWORD PTR _this$[ebp]
  01960	8b 88 94 00 00
	00		 mov	 ecx, DWORD PTR [eax+148]
  01966	e8 00 00 00 00	 call	 ?GetSplSize@ETSSplitter@@QAEHXZ ; ETSSplitter::GetSplSize
  0196b	51		 push	 ecx
  0196c	8b f4		 mov	 esi, esp
  0196e	89 65 e8	 mov	 DWORD PTR $T193244[ebp], esp
  01971	50		 push	 eax
  01972	6a 00		 push	 0
  01974	8b 4d f0	 mov	 ecx, DWORD PTR _this$[ebp]
  01977	8b 89 94 00 00
	00		 mov	 ecx, DWORD PTR [ecx+148]
  0197d	e8 00 00 00 00	 call	 ?GetSplSize@ETSSplitter@@QAEHXZ ; ETSSplitter::GetSplSize
  01982	50		 push	 eax
  01983	6a 00		 push	 0
  01985	6a 04		 push	 4
  01987	8b 55 f0	 mov	 edx, DWORD PTR _this$[ebp]
  0198a	8b 82 94 00 00
	00		 mov	 eax, DWORD PTR [edx+148]
  01990	50		 push	 eax
  01991	56		 push	 esi
  01992	8b 4d f0	 mov	 ecx, DWORD PTR _this$[ebp]
  01995	8b 49 38	 mov	 ecx, DWORD PTR [ecx+56]
  01998	e8 00 00 00 00	 call	 ?item@ETSLayoutMgr@@QAE?AVCPaneBase@1@PAVCWnd@@W4layResizeMode@1@HHHH@Z ; ETSLayoutMgr::item
  0199d	89 45 d8	 mov	 DWORD PTR tv188[ebp], eax
  019a0	8b 4d f0	 mov	 ecx, DWORD PTR _this$[ebp]
  019a3	e8 00 00 00 00	 call	 ?addPane@Pane@ETSLayoutMgr@@UAE_NVCPaneBase@2@@Z ; ETSLayoutMgr::Pane::addPane
$L190705:

; 446  : 	}
; 447  : 	Pane::addPane(pSubpane, modeResize, sizeSecondary);	

  019a8	8b 55 10	 mov	 edx, DWORD PTR _sizeSecondary$[ebp]
  019ab	52		 push	 edx
  019ac	8b 45 0c	 mov	 eax, DWORD PTR _modeResize$[ebp]
  019af	50		 push	 eax
  019b0	51		 push	 ecx
  019b1	8b cc		 mov	 ecx, esp
  019b3	89 65 e4	 mov	 DWORD PTR $T193245[ebp], esp
  019b6	8d 55 08	 lea	 edx, DWORD PTR _pSubpane$[ebp]
  019b9	52		 push	 edx
  019ba	e8 00 00 00 00	 call	 ??0CPane@ETSLayoutMgr@@QAE@ABV01@@Z ; ETSLayoutMgr::CPane::CPane
  019bf	89 45 d4	 mov	 DWORD PTR tv192[ebp], eax
  019c2	8b 4d f0	 mov	 ecx, DWORD PTR _this$[ebp]
  019c5	e8 00 00 00 00	 call	 ?addPane@Pane@ETSLayoutMgr@@UAE_NVCPane@2@W4layResizeMode@2@H@Z ; ETSLayoutMgr::Pane::addPane

; 448  : 
; 449  : 	return true;

  019ca	c6 45 e3 01	 mov	 BYTE PTR $T193246[ebp], 1
  019ce	c7 45 fc ff ff
	ff ff		 mov	 DWORD PTR __$EHRec$[ebp+8], -1
  019d5	8d 4d 08	 lea	 ecx, DWORD PTR _pSubpane$[ebp]
  019d8	e8 00 00 00 00	 call	 ??1CPane@ETSLayoutMgr@@QAE@XZ ; ETSLayoutMgr::CPane::~CPane
  019dd	8a 45 e3	 mov	 al, BYTE PTR $T193246[ebp]

; 450  : }

  019e0	8b 4d f4	 mov	 ecx, DWORD PTR __$EHRec$[ebp]
  019e3	64 89 0d 00 00
	00 00		 mov	 DWORD PTR fs:__except_list, ecx
  019ea	5e		 pop	 esi
  019eb	83 c4 2c	 add	 esp, 44			; 0000002cH
  019ee	3b ec		 cmp	 ebp, esp
  019f0	e8 00 00 00 00	 call	 __RTC_CheckEsp
  019f5	8b e5		 mov	 esp, ebp
  019f7	5d		 pop	 ebp
  019f8	c2 0c 00	 ret	 12			; 0000000cH
_TEXT	ENDS
text$x	SEGMENT
$L193247:
  0010f	8d 4d 08	 lea	 ecx, DWORD PTR _pSubpane$[ebp]
  00112	e9 00 00 00 00	 jmp	 ??1CPane@ETSLayoutMgr@@QAE@XZ ; ETSLayoutMgr::CPane::~CPane
__ehhandler$?addPane@PaneSplitter@ETSLayoutMgr@@UAE_NVCPane@2@W4layResizeMode@2@H@Z:
  00117	b8 00 00 00 00	 mov	 eax, OFFSET FLAT:$T193252
  0011c	e9 00 00 00 00	 jmp	 ___CxxFrameHandler
text$x	ENDS
?addPane@PaneSplitter@ETSLayoutMgr@@UAE_NVCPane@2@W4layResizeMode@2@H@Z ENDP ; ETSLayoutMgr::PaneSplitter::addPane
xdata$x	SEGMENT
$T193267 DD	0ffffffffH
	DD	FLAT:$L193260
$T193265 DD	019930520H
	DD	01H
	DD	FLAT:$T193267
	DD	2 DUP(00H)
	DD	2 DUP(00H)
; Function compile flags: /Odt /RTCsu
xdata$x	ENDS
_TEXT	SEGMENT
tv188 = -44						; size = 4
tv186 = -40						; size = 4
tv184 = -36						; size = 4
$T193259 = -29						; size = 1
$T193258 = -28						; size = 4
$T193257 = -24						; size = 4
$T193256 = -20						; size = 4
_this$ = -16						; size = 4
__$EHRec$ = -12						; size = 12
_pItem$ = 8						; size = 4
?addPane@PaneSplitter@ETSLayoutMgr@@UAE_NVCPaneBase@2@@Z PROC NEAR ; ETSLayoutMgr::PaneSplitter::addPane
; _this$ = ecx

; 453  : {

  01a00	55		 push	 ebp
  01a01	8b ec		 mov	 ebp, esp
  01a03	6a ff		 push	 -1
  01a05	68 00 00 00 00	 push	 __ehhandler$?addPane@PaneSplitter@ETSLayoutMgr@@UAE_NVCPaneBase@2@@Z
  01a0a	64 a1 00 00 00
	00		 mov	 eax, DWORD PTR fs:__except_list
  01a10	50		 push	 eax
  01a11	64 89 25 00 00
	00 00		 mov	 DWORD PTR fs:__except_list, esp
  01a18	83 ec 20	 sub	 esp, 32			; 00000020H
  01a1b	56		 push	 esi
  01a1c	b8 cc cc cc cc	 mov	 eax, -858993460		; ccccccccH
  01a21	89 45 d4	 mov	 DWORD PTR [ebp-44], eax
  01a24	89 45 d8	 mov	 DWORD PTR [ebp-40], eax
  01a27	89 45 dc	 mov	 DWORD PTR [ebp-36], eax
  01a2a	89 45 e0	 mov	 DWORD PTR [ebp-32], eax
  01a2d	89 45 e4	 mov	 DWORD PTR [ebp-28], eax
  01a30	89 45 e8	 mov	 DWORD PTR [ebp-24], eax
  01a33	89 45 ec	 mov	 DWORD PTR [ebp-20], eax
  01a36	89 45 f0	 mov	 DWORD PTR [ebp-16], eax
  01a39	89 4d f0	 mov	 DWORD PTR _this$[ebp], ecx
  01a3c	c7 45 fc 00 00
	00 00		 mov	 DWORD PTR __$EHRec$[ebp+8], 0

; 454  : 	if(this->m_paneItems.GetSize() == 1)

  01a43	8b 4d f0	 mov	 ecx, DWORD PTR _this$[ebp]
  01a46	83 c1 64	 add	 ecx, 100		; 00000064H
  01a49	e8 00 00 00 00	 call	 ?GetSize@?$CArray@VCPaneBase@ETSLayoutMgr@@V12@@@QBEHXZ ; CArray<ETSLayoutMgr::CPaneBase,ETSLayoutMgr::CPaneBase>::GetSize
  01a4e	83 f8 01	 cmp	 eax, 1
  01a51	0f 85 a1 00 00
	00		 jne	 $L190720

; 455  : 	{
; 456  : 		if(this->m_Orientation == ETSLayoutMgr::HORIZONTAL)

  01a57	8b 45 f0	 mov	 eax, DWORD PTR _this$[ebp]
  01a5a	83 78 60 00	 cmp	 DWORD PTR [eax+96], 0
  01a5e	75 4d		 jne	 SHORT $L190721

; 457  : 			Pane::addPane(this->m_pMgr->item((CWnd*)this->m_pSpl, ABSOLUTE_HORZ , m_pSpl->GetSplSize(), 0,m_pSpl->GetSplSize()));

  01a60	51		 push	 ecx
  01a61	8b f4		 mov	 esi, esp
  01a63	89 65 ec	 mov	 DWORD PTR $T193256[ebp], esp
  01a66	6a ff		 push	 -1
  01a68	8b 4d f0	 mov	 ecx, DWORD PTR _this$[ebp]
  01a6b	8b 89 94 00 00
	00		 mov	 ecx, DWORD PTR [ecx+148]
  01a71	e8 00 00 00 00	 call	 ?GetSplSize@ETSSplitter@@QAEHXZ ; ETSSplitter::GetSplSize
  01a76	50		 push	 eax
  01a77	6a 00		 push	 0
  01a79	8b 55 f0	 mov	 edx, DWORD PTR _this$[ebp]
  01a7c	8b 8a 94 00 00
	00		 mov	 ecx, DWORD PTR [edx+148]
  01a82	e8 00 00 00 00	 call	 ?GetSplSize@ETSSplitter@@QAEHXZ ; ETSSplitter::GetSplSize
  01a87	50		 push	 eax
  01a88	6a 01		 push	 1
  01a8a	8b 45 f0	 mov	 eax, DWORD PTR _this$[ebp]
  01a8d	8b 88 94 00 00
	00		 mov	 ecx, DWORD PTR [eax+148]
  01a93	51		 push	 ecx
  01a94	56		 push	 esi
  01a95	8b 55 f0	 mov	 edx, DWORD PTR _this$[ebp]
  01a98	8b 4a 38	 mov	 ecx, DWORD PTR [edx+56]
  01a9b	e8 00 00 00 00	 call	 ?item@ETSLayoutMgr@@QAE?AVCPaneBase@1@PAVCWnd@@W4layResizeMode@1@HHHH@Z ; ETSLayoutMgr::item
  01aa0	89 45 dc	 mov	 DWORD PTR tv184[ebp], eax
  01aa3	8b 4d f0	 mov	 ecx, DWORD PTR _this$[ebp]
  01aa6	e8 00 00 00 00	 call	 ?addPane@Pane@ETSLayoutMgr@@UAE_NVCPaneBase@2@@Z ; ETSLayoutMgr::Pane::addPane

; 458  : 		else

  01aab	eb 4b		 jmp	 SHORT $L190720
$L190721:

; 459  : 			Pane::addPane(this->m_pMgr->item((CWnd*)this->m_pSpl, ABSOLUTE_VERT , 0,m_pSpl->GetSplSize(),0,m_pSpl->GetSplSize()));

  01aad	8b 45 f0	 mov	 eax, DWORD PTR _this$[ebp]
  01ab0	8b 88 94 00 00
	00		 mov	 ecx, DWORD PTR [eax+148]
  01ab6	e8 00 00 00 00	 call	 ?GetSplSize@ETSSplitter@@QAEHXZ ; ETSSplitter::GetSplSize
  01abb	51		 push	 ecx
  01abc	8b f4		 mov	 esi, esp
  01abe	89 65 e8	 mov	 DWORD PTR $T193257[ebp], esp
  01ac1	50		 push	 eax
  01ac2	6a 00		 push	 0
  01ac4	8b 4d f0	 mov	 ecx, DWORD PTR _this$[ebp]
  01ac7	8b 89 94 00 00
	00		 mov	 ecx, DWORD PTR [ecx+148]
  01acd	e8 00 00 00 00	 call	 ?GetSplSize@ETSSplitter@@QAEHXZ ; ETSSplitter::GetSplSize
  01ad2	50		 push	 eax
  01ad3	6a 00		 push	 0
  01ad5	6a 04		 push	 4
  01ad7	8b 55 f0	 mov	 edx, DWORD PTR _this$[ebp]
  01ada	8b 82 94 00 00
	00		 mov	 eax, DWORD PTR [edx+148]
  01ae0	50		 push	 eax
  01ae1	56		 push	 esi
  01ae2	8b 4d f0	 mov	 ecx, DWORD PTR _this$[ebp]
  01ae5	8b 49 38	 mov	 ecx, DWORD PTR [ecx+56]
  01ae8	e8 00 00 00 00	 call	 ?item@ETSLayoutMgr@@QAE?AVCPaneBase@1@PAVCWnd@@W4layResizeMode@1@HHHH@Z ; ETSLayoutMgr::item
  01aed	89 45 d8	 mov	 DWORD PTR tv186[ebp], eax
  01af0	8b 4d f0	 mov	 ecx, DWORD PTR _this$[ebp]
  01af3	e8 00 00 00 00	 call	 ?addPane@Pane@ETSLayoutMgr@@UAE_NVCPaneBase@2@@Z ; ETSLayoutMgr::Pane::addPane
$L190720:

; 460  : 	}
; 461  : 	Pane::addPane(pItem);

  01af8	51		 push	 ecx
  01af9	8b cc		 mov	 ecx, esp
  01afb	89 65 e4	 mov	 DWORD PTR $T193258[ebp], esp
  01afe	8d 55 08	 lea	 edx, DWORD PTR _pItem$[ebp]
  01b01	52		 push	 edx
  01b02	e8 00 00 00 00	 call	 ??0CPaneBase@ETSLayoutMgr@@QAE@ABV01@@Z ; ETSLayoutMgr::CPaneBase::CPaneBase
  01b07	89 45 d4	 mov	 DWORD PTR tv188[ebp], eax
  01b0a	8b 4d f0	 mov	 ecx, DWORD PTR _this$[ebp]
  01b0d	e8 00 00 00 00	 call	 ?addPane@Pane@ETSLayoutMgr@@UAE_NVCPaneBase@2@@Z ; ETSLayoutMgr::Pane::addPane

; 462  : 
; 463  : 	return true;

  01b12	c6 45 e3 01	 mov	 BYTE PTR $T193259[ebp], 1
  01b16	c7 45 fc ff ff
	ff ff		 mov	 DWORD PTR __$EHRec$[ebp+8], -1
  01b1d	8d 4d 08	 lea	 ecx, DWORD PTR _pItem$[ebp]
  01b20	e8 00 00 00 00	 call	 ??1CPaneBase@ETSLayoutMgr@@QAE@XZ ; ETSLayoutMgr::CPaneBase::~CPaneBase
  01b25	8a 45 e3	 mov	 al, BYTE PTR $T193259[ebp]

; 464  : }

  01b28	8b 4d f4	 mov	 ecx, DWORD PTR __$EHRec$[ebp]
  01b2b	64 89 0d 00 00
	00 00		 mov	 DWORD PTR fs:__except_list, ecx
  01b32	5e		 pop	 esi
  01b33	83 c4 2c	 add	 esp, 44			; 0000002cH
  01b36	3b ec		 cmp	 ebp, esp
  01b38	e8 00 00 00 00	 call	 __RTC_CheckEsp
  01b3d	8b e5		 mov	 esp, ebp
  01b3f	5d		 pop	 ebp
  01b40	c2 04 00	 ret	 4
_TEXT	ENDS
text$x	SEGMENT
$L193260:
  00121	8d 4d 08	 lea	 ecx, DWORD PTR _pItem$[ebp]
  00124	e9 00 00 00 00	 jmp	 ??1CPaneBase@ETSLayoutMgr@@QAE@XZ ; ETSLayoutMgr::CPaneBase::~CPaneBase
__ehhandler$?addPane@PaneSplitter@ETSLayoutMgr@@UAE_NVCPaneBase@2@@Z:
  00129	b8 00 00 00 00	 mov	 eax, OFFSET FLAT:$T193265
  0012e	e9 00 00 00 00	 jmp	 ___CxxFrameHandler
text$x	ENDS
?addPane@PaneSplitter@ETSLayoutMgr@@UAE_NVCPaneBase@2@@Z ENDP ; ETSLayoutMgr::PaneSplitter::addPane
; Function compile flags: /Odt /RTCsu
_TEXT	SEGMENT
tv74 = -12						; size = 4
_modeSize$ = -8						; size = 4
_this$ = -4						; size = 4
_pPane$ = 8						; size = 4
_rc$ = 12						; size = 4
_bRedraw$ = 16						; size = 1
?ForceResizeTo@PaneSplitter@ETSLayoutMgr@@AAEXAAVCPaneBase@2@AAVCRect@@_N@Z PROC NEAR ; ETSLayoutMgr::PaneSplitter::ForceResizeTo
; _this$ = ecx

; 469  : {

  01b50	55		 push	 ebp
  01b51	8b ec		 mov	 ebp, esp
  01b53	83 ec 0c	 sub	 esp, 12			; 0000000cH
  01b56	56		 push	 esi
  01b57	c7 45 f4 cc cc
	cc cc		 mov	 DWORD PTR [ebp-12], -858993460 ; ccccccccH
  01b5e	c7 45 f8 cc cc
	cc cc		 mov	 DWORD PTR [ebp-8], -858993460 ; ccccccccH
  01b65	c7 45 fc cc cc
	cc cc		 mov	 DWORD PTR [ebp-4], -858993460 ; ccccccccH
  01b6c	89 4d fc	 mov	 DWORD PTR _this$[ebp], ecx

; 470  : 	DWORD modeSize = pPane->modeResize();

  01b6f	8b 4d 08	 mov	 ecx, DWORD PTR _pPane$[ebp]
  01b72	e8 00 00 00 00	 call	 ??CCPaneBase@ETSLayoutMgr@@QBEPAVPaneBase@1@XZ ; ETSLayoutMgr::CPaneBase::operator->
  01b77	8b c8		 mov	 ecx, eax
  01b79	e8 00 00 00 00	 call	 ?modeResize@PaneBase@ETSLayoutMgr@@QAEKXZ ; ETSLayoutMgr::PaneBase::modeResize
  01b7e	89 45 f8	 mov	 DWORD PTR _modeSize$[ebp], eax

; 471  : 	pPane->m_modeResize = GREEDY;

  01b81	8b 4d 08	 mov	 ecx, DWORD PTR _pPane$[ebp]
  01b84	e8 00 00 00 00	 call	 ??CCPaneBase@ETSLayoutMgr@@QBEPAVPaneBase@1@XZ ; ETSLayoutMgr::CPaneBase::operator->
  01b89	c7 40 18 00 00
	00 00		 mov	 DWORD PTR [eax+24], 0

; 472  : 	pPane->resizeTo(rc, bRedraw );

  01b90	8b 4d 08	 mov	 ecx, DWORD PTR _pPane$[ebp]
  01b93	e8 00 00 00 00	 call	 ??CCPaneBase@ETSLayoutMgr@@QBEPAVPaneBase@1@XZ ; ETSLayoutMgr::CPaneBase::operator->
  01b98	89 45 f4	 mov	 DWORD PTR tv74[ebp], eax
  01b9b	8b f4		 mov	 esi, esp
  01b9d	6a 00		 push	 0
  01b9f	8a 45 10	 mov	 al, BYTE PTR _bRedraw$[ebp]
  01ba2	50		 push	 eax
  01ba3	8b 4d 0c	 mov	 ecx, DWORD PTR _rc$[ebp]
  01ba6	51		 push	 ecx
  01ba7	8b 55 f4	 mov	 edx, DWORD PTR tv74[ebp]
  01baa	8b 02		 mov	 eax, DWORD PTR [edx]
  01bac	8b 4d f4	 mov	 ecx, DWORD PTR tv74[ebp]
  01baf	ff 50 18	 call	 DWORD PTR [eax+24]
  01bb2	3b f4		 cmp	 esi, esp
  01bb4	e8 00 00 00 00	 call	 __RTC_CheckEsp

; 473  : 	pPane->m_modeResize = modeSize;

  01bb9	8b 4d 08	 mov	 ecx, DWORD PTR _pPane$[ebp]
  01bbc	e8 00 00 00 00	 call	 ??CCPaneBase@ETSLayoutMgr@@QBEPAVPaneBase@1@XZ ; ETSLayoutMgr::CPaneBase::operator->
  01bc1	8b 4d f8	 mov	 ecx, DWORD PTR _modeSize$[ebp]
  01bc4	89 48 18	 mov	 DWORD PTR [eax+24], ecx

; 474  : };

  01bc7	5e		 pop	 esi
  01bc8	83 c4 0c	 add	 esp, 12			; 0000000cH
  01bcb	3b ec		 cmp	 ebp, esp
  01bcd	e8 00 00 00 00	 call	 __RTC_CheckEsp
  01bd2	8b e5		 mov	 esp, ebp
  01bd4	5d		 pop	 ebp
  01bd5	c2 0c 00	 ret	 12			; 0000000cH
?ForceResizeTo@PaneSplitter@ETSLayoutMgr@@AAEXAAVCPaneBase@2@AAVCRect@@_N@Z ENDP ; ETSLayoutMgr::PaneSplitter::ForceResizeTo
_TEXT	ENDS
PUBLIC	??CCPaneMulti@ETSLayoutMgr@@QBEPAVPaneMulti@1@XZ ; ETSLayoutMgr::CPaneMulti::operator->
; Function compile flags: /Odt /RTCsu
_TEXT	SEGMENT
_this$ = -4						; size = 4
??CCPaneMulti@ETSLayoutMgr@@QBEPAVPaneMulti@1@XZ PROC NEAR ; ETSLayoutMgr::CPaneMulti::operator->
; _this$ = ecx

; 480  : {

  01be0	55		 push	 ebp
  01be1	8b ec		 mov	 ebp, esp
  01be3	51		 push	 ecx
  01be4	c7 45 fc cc cc
	cc cc		 mov	 DWORD PTR [ebp-4], -858993460 ; ccccccccH
  01beb	89 4d fc	 mov	 DWORD PTR _this$[ebp], ecx

; 481  : 	ASSERT(m_pPaneHolder);

  01bee	8b 45 fc	 mov	 eax, DWORD PTR _this$[ebp]
  01bf1	83 38 00	 cmp	 DWORD PTR [eax], 0
  01bf4	75 14		 jne	 SHORT $L193270
  01bf6	68 e1 01 00 00	 push	 481			; 000001e1H
  01bfb	68 00 00 00 00	 push	 OFFSET FLAT:$SG190742
  01c00	e8 00 00 00 00	 call	 ?AfxAssertFailedLine@@YGHPBDH@Z ; AfxAssertFailedLine
  01c05	85 c0		 test	 eax, eax
  01c07	74 01		 je	 SHORT $L193270
  01c09	cc		 int	 3
$L193270:

; 482  : 
; 483  : 	if(!m_pPaneHolder)

  01c0a	8b 55 fc	 mov	 edx, DWORD PTR _this$[ebp]
  01c0d	83 3a 00	 cmp	 DWORD PTR [edx], 0
  01c10	75 04		 jne	 SHORT $L190743

; 484  : 		return 0;

  01c12	33 c0		 xor	 eax, eax
  01c14	eb 07		 jmp	 SHORT $L190740
$L190743:

; 485  : 
; 486  : 	return reinterpret_cast<PaneMulti*>(m_pPaneHolder->m_pPane);

  01c16	8b 45 fc	 mov	 eax, DWORD PTR _this$[ebp]
  01c19	8b 08		 mov	 ecx, DWORD PTR [eax]
  01c1b	8b 01		 mov	 eax, DWORD PTR [ecx]
$L190740:

; 487  : }

  01c1d	83 c4 04	 add	 esp, 4
  01c20	3b ec		 cmp	 ebp, esp
  01c22	e8 00 00 00 00	 call	 __RTC_CheckEsp
  01c27	8b e5		 mov	 esp, ebp
  01c29	5d		 pop	 ebp
  01c2a	c3		 ret	 0
??CCPaneMulti@ETSLayoutMgr@@QBEPAVPaneMulti@1@XZ ENDP	; ETSLayoutMgr::CPaneMulti::operator->
_TEXT	ENDS
PUBLIC	?GetPane@CPane@ETSLayoutMgr@@QAEPAVPane@2@XZ	; ETSLayoutMgr::CPane::GetPane
PUBLIC	??6CPaneMulti@ETSLayoutMgr@@QAEAAV01@VCPane@1@@Z ; ETSLayoutMgr::CPaneMulti::operator<<
EXTRN	??CCPane@ETSLayoutMgr@@QBEPAVPane@1@XZ:NEAR	; ETSLayoutMgr::CPane::operator->
xdata$x	SEGMENT
$T193279 DD	0ffffffffH
	DD	FLAT:$L193274
	DD	00H
	DD	FLAT:$L193275
$T193277 DD	019930520H
	DD	02H
	DD	FLAT:$T193279
	DD	2 DUP(00H)
	DD	2 DUP(00H)
; Function compile flags: /Odt /RTCsu
xdata$x	ENDS
_TEXT	SEGMENT
tv68 = -36						; size = 4
tv129 = -32						; size = 4
tv131 = -28						; size = 4
$T193273 = -24						; size = 4
$T193272 = -20						; size = 4
_this$ = -16						; size = 4
__$EHRec$ = -12						; size = 12
_pPane$ = 8						; size = 4
??6CPaneMulti@ETSLayoutMgr@@QAEAAV01@VCPane@1@@Z PROC NEAR ; ETSLayoutMgr::CPaneMulti::operator<<
; _this$ = ecx

; 490  : {

  01c30	55		 push	 ebp
  01c31	8b ec		 mov	 ebp, esp
  01c33	6a ff		 push	 -1
  01c35	68 00 00 00 00	 push	 __ehhandler$??6CPaneMulti@ETSLayoutMgr@@QAEAAV01@VCPane@1@@Z
  01c3a	64 a1 00 00 00
	00		 mov	 eax, DWORD PTR fs:__except_list
  01c40	50		 push	 eax
  01c41	64 89 25 00 00
	00 00		 mov	 DWORD PTR fs:__except_list, esp
  01c48	83 ec 18	 sub	 esp, 24			; 00000018H
  01c4b	b8 cc cc cc cc	 mov	 eax, -858993460		; ccccccccH
  01c50	89 45 dc	 mov	 DWORD PTR [ebp-36], eax
  01c53	89 45 e0	 mov	 DWORD PTR [ebp-32], eax
  01c56	89 45 e4	 mov	 DWORD PTR [ebp-28], eax
  01c59	89 45 e8	 mov	 DWORD PTR [ebp-24], eax
  01c5c	89 45 ec	 mov	 DWORD PTR [ebp-20], eax
  01c5f	89 45 f0	 mov	 DWORD PTR [ebp-16], eax
  01c62	89 4d f0	 mov	 DWORD PTR _this$[ebp], ecx
  01c65	c7 45 fc 00 00
	00 00		 mov	 DWORD PTR __$EHRec$[ebp+8], 0

; 491  : 	GetPane()->addPane( pPane, (ETSLayoutMgr::layResizeMode)pPane->m_modeResize, pPane->m_sizeSecondary);

  01c6c	8d 4d 08	 lea	 ecx, DWORD PTR _pPane$[ebp]
  01c6f	e8 00 00 00 00	 call	 ??CCPane@ETSLayoutMgr@@QBEPAVPane@1@XZ ; ETSLayoutMgr::CPane::operator->
  01c74	8b 40 78	 mov	 eax, DWORD PTR [eax+120]
  01c77	50		 push	 eax
  01c78	8d 4d 08	 lea	 ecx, DWORD PTR _pPane$[ebp]
  01c7b	e8 00 00 00 00	 call	 ??CCPane@ETSLayoutMgr@@QBEPAVPane@1@XZ ; ETSLayoutMgr::CPane::operator->
  01c80	8b 48 18	 mov	 ecx, DWORD PTR [eax+24]
  01c83	51		 push	 ecx
  01c84	51		 push	 ecx
  01c85	8b cc		 mov	 ecx, esp
  01c87	89 65 ec	 mov	 DWORD PTR $T193272[ebp], esp
  01c8a	8d 55 08	 lea	 edx, DWORD PTR _pPane$[ebp]
  01c8d	52		 push	 edx
  01c8e	e8 00 00 00 00	 call	 ??0CPane@ETSLayoutMgr@@QAE@ABV01@@Z ; ETSLayoutMgr::CPane::CPane
  01c93	89 45 e4	 mov	 DWORD PTR tv131[ebp], eax
  01c96	8b 45 e4	 mov	 eax, DWORD PTR tv131[ebp]
  01c99	89 45 e0	 mov	 DWORD PTR tv129[ebp], eax
  01c9c	c6 45 fc 01	 mov	 BYTE PTR __$EHRec$[ebp+8], 1
  01ca0	8b 4d f0	 mov	 ecx, DWORD PTR _this$[ebp]
  01ca3	e8 00 00 00 00	 call	 ?GetPane@CPane@ETSLayoutMgr@@QAEPAVPane@2@XZ ; ETSLayoutMgr::CPane::GetPane
  01ca8	89 45 dc	 mov	 DWORD PTR tv68[ebp], eax
  01cab	8b 4d dc	 mov	 ecx, DWORD PTR tv68[ebp]
  01cae	8b 11		 mov	 edx, DWORD PTR [ecx]
  01cb0	c6 45 fc 00	 mov	 BYTE PTR __$EHRec$[ebp+8], 0
  01cb4	8b 4d dc	 mov	 ecx, DWORD PTR tv68[ebp]
  01cb7	ff 52 28	 call	 DWORD PTR [edx+40]

; 492  : 	return (*this);

  01cba	8b 45 f0	 mov	 eax, DWORD PTR _this$[ebp]
  01cbd	89 45 e8	 mov	 DWORD PTR $T193273[ebp], eax
  01cc0	c7 45 fc ff ff
	ff ff		 mov	 DWORD PTR __$EHRec$[ebp+8], -1
  01cc7	8d 4d 08	 lea	 ecx, DWORD PTR _pPane$[ebp]
  01cca	e8 00 00 00 00	 call	 ??1CPane@ETSLayoutMgr@@QAE@XZ ; ETSLayoutMgr::CPane::~CPane
  01ccf	8b 45 e8	 mov	 eax, DWORD PTR $T193273[ebp]

; 493  : }

  01cd2	8b 4d f4	 mov	 ecx, DWORD PTR __$EHRec$[ebp]
  01cd5	64 89 0d 00 00
	00 00		 mov	 DWORD PTR fs:__except_list, ecx
  01cdc	83 c4 24	 add	 esp, 36			; 00000024H
  01cdf	3b ec		 cmp	 ebp, esp
  01ce1	e8 00 00 00 00	 call	 __RTC_CheckEsp
  01ce6	8b e5		 mov	 esp, ebp
  01ce8	5d		 pop	 ebp
  01ce9	c2 04 00	 ret	 4
_TEXT	ENDS
text$x	SEGMENT
$L193274:
  00133	8d 4d 08	 lea	 ecx, DWORD PTR _pPane$[ebp]
  00136	e9 00 00 00 00	 jmp	 ??1CPane@ETSLayoutMgr@@QAE@XZ ; ETSLayoutMgr::CPane::~CPane
$L193275:
  0013b	8b 4d ec	 mov	 ecx, DWORD PTR $T193272[ebp]
  0013e	e9 00 00 00 00	 jmp	 ??1CPane@ETSLayoutMgr@@QAE@XZ ; ETSLayoutMgr::CPane::~CPane
__ehhandler$??6CPaneMulti@ETSLayoutMgr@@QAEAAV01@VCPane@1@@Z:
  00143	b8 00 00 00 00	 mov	 eax, OFFSET FLAT:$T193277
  00148	e9 00 00 00 00	 jmp	 ___CxxFrameHandler
text$x	ENDS
??6CPaneMulti@ETSLayoutMgr@@QAEAAV01@VCPane@1@@Z ENDP	; ETSLayoutMgr::CPaneMulti::operator<<
; Function compile flags: /Odt /RTCsu
; File d:\boxgit\playbox\playbox\dev\prj\playbox\src\layoutmgr\etslayout.h
;	COMDAT ?GetPane@CPane@ETSLayoutMgr@@QAEPAVPane@2@XZ
_TEXT	SEGMENT
_this$ = -4						; size = 4
?GetPane@CPane@ETSLayoutMgr@@QAEPAVPane@2@XZ PROC NEAR	; ETSLayoutMgr::CPane::GetPane, COMDAT
; _this$ = ecx

; 410  : 		Pane* GetPane()			{ return operator->(); }

  00000	55		 push	 ebp
  00001	8b ec		 mov	 ebp, esp
  00003	51		 push	 ecx
  00004	c7 45 fc cc cc
	cc cc		 mov	 DWORD PTR [ebp-4], -858993460 ; ccccccccH
