; Listing generated by Microsoft (R) Optimizing Compiler Version 13.10.3077 

	TITLE	.\src\LayoutMgr\ETSLayoutEx.cpp
	.386P
include listing.inc
if @Version gt 510
.model FLAT
else
_TEXT	SEGMENT PARA USE32 PUBLIC 'CODE'
_TEXT	ENDS
_DATA	SEGMENT DWORD USE32 PUBLIC 'DATA'
_DATA	ENDS
CONST	SEGMENT DWORD USE32 PUBLIC 'CONST'
CONST	ENDS
_BSS	SEGMENT DWORD USE32 PUBLIC 'BSS'
_BSS	ENDS
$$SYMBOLS	SEGMENT BYTE USE32 'DEBSYM'
$$SYMBOLS	ENDS
_TLS	SEGMENT DWORD USE32 PUBLIC 'TLS'
_TLS	ENDS
;	COMDAT ??_C@_02PGHGPEOM@?91?$AA@
CONST	SEGMENT DWORD USE32 PUBLIC 'CONST'
CONST	ENDS
;	COMDAT ??_C@_04JAADICNI@?5?$DN?1?$FL?$AA@
CONST	SEGMENT DWORD USE32 PUBLIC 'CONST'
CONST	ENDS
;	COMDAT ??_C@_0L@GJIJNDEK@ISO?98859?91?$AA@
CONST	SEGMENT DWORD USE32 PUBLIC 'CONST'
CONST	ENDS
;	COMDAT ??_C@_01JLIPDDHJ@?3?$AA@
CONST	SEGMENT DWORD USE32 PUBLIC 'CONST'
CONST	ENDS
;	COMDAT ??_C@_04LJDDIHIK@?4bmp?$AA@
CONST	SEGMENT DWORD USE32 PUBLIC 'CONST'
CONST	ENDS
;	COMDAT ??_C@_0EN@IBFBLEEG@D?3?2Program?5Files?5?$CIx86?$CJ?2Microsoft@
CONST	SEGMENT DWORD USE32 PUBLIC 'CONST'
CONST	ENDS
;	COMDAT ??_C@_0BI@GIMJKKKN@AtlIsValidString?$CI?5psz?5?$CJ?$AA@
CONST	SEGMENT DWORD USE32 PUBLIC 'CONST'
CONST	ENDS
;	COMDAT ??_C@_0BE@JONHPENG@map?1set?$DMT?$DO?5too?5long?$AA@
CONST	SEGMENT DWORD USE32 PUBLIC 'CONST'
CONST	ENDS
;	COMDAT ??_C@_0FH@BMBEKJNI@D?3?2Program?5Files?5?$CIx86?$CJ?2Microsoft@
CONST	SEGMENT DWORD USE32 PUBLIC 'CONST'
CONST	ENDS
rdata$r	SEGMENT DWORD USE32 PUBLIC 'CONST'
rdata$r	ENDS
xdata$x	SEGMENT DWORD USE32 PUBLIC 'CONST'
xdata$x	ENDS
text$AFX_COL1	SEGMENT PARA USE32 PUBLIC ''
text$AFX_COL1	ENDS
text$yc	SEGMENT PARA USE32 PUBLIC 'CODE'
text$yc	ENDS
CRT$XCA	SEGMENT DWORD USE32 PUBLIC 'DATA'
CRT$XCA	ENDS
CRT$XCU	SEGMENT DWORD USE32 PUBLIC 'DATA'
CRT$XCU	ENDS
CRT$XCL	SEGMENT DWORD USE32 PUBLIC 'DATA'
CRT$XCL	ENDS
CRT$XCC	SEGMENT DWORD USE32 PUBLIC 'DATA'
CRT$XCC	ENDS
CRT$XCZ	SEGMENT DWORD USE32 PUBLIC 'DATA'
CRT$XCZ	ENDS
text$yd	SEGMENT PARA USE32 PUBLIC 'CODE'
text$yd	ENDS
ATL$__m	SEGMENT DWORD USE32 PUBLIC ''
ATL$__m	ENDS
ATL$__z	SEGMENT DWORD USE32 PUBLIC ''
ATL$__z	ENDS
ATL$__a	SEGMENT DWORD USE32 PUBLIC ''
ATL$__a	ENDS
;	COMDAT ?GetSubPane@PaneBase@ETSLayoutMgr@@UAE?AVCPaneBase@2@V?$CStringT@DV?$StrTraitMFC_DLL@DV?$ChTraitsCRT@D@ATL@@@@@ATL@@@Z
_TEXT	SEGMENT PARA USE32 PUBLIC 'CODE'
_TEXT	ENDS
;	COMDAT ??1PaneBase@ETSLayoutMgr@@UAE@XZ
_TEXT	SEGMENT PARA USE32 PUBLIC 'CODE'
_TEXT	ENDS
;	COMDAT ?modeResize@PaneBase@ETSLayoutMgr@@QAEKXZ
_TEXT	SEGMENT PARA USE32 PUBLIC 'CODE'
_TEXT	ENDS
;	COMDAT ?getPaneRect@PaneBase@ETSLayoutMgr@@QAE?AVCRect@@XZ
_TEXT	SEGMENT PARA USE32 PUBLIC 'CODE'
_TEXT	ENDS
;	COMDAT ?GetName@PaneBase@ETSLayoutMgr@@QAE?AV?$CStringT@DV?$StrTraitMFC_DLL@DV?$ChTraitsCRT@D@ATL@@@@@ATL@@XZ
_TEXT	SEGMENT PARA USE32 PUBLIC 'CODE'
_TEXT	ENDS
;	COMDAT ?showPane@PaneBase@ETSLayoutMgr@@UAEX_N@Z
_TEXT	SEGMENT PARA USE32 PUBLIC 'CODE'
_TEXT	ENDS
;	COMDAT ?GetPaneBase@CPaneBase@ETSLayoutMgr@@QAEPAVPaneBase@2@XZ
_TEXT	SEGMENT PARA USE32 PUBLIC 'CODE'
_TEXT	ENDS
;	COMDAT ?IsValid@CPaneBase@ETSLayoutMgr@@QAE_NXZ
_TEXT	SEGMENT PARA USE32 PUBLIC 'CODE'
_TEXT	ENDS
;	COMDAT ?GetPane@CPane@ETSLayoutMgr@@QAEPAVPane@2@XZ
_TEXT	SEGMENT PARA USE32 PUBLIC 'CODE'
_TEXT	ENDS
;	COMDAT ?GetRect@ETSLayoutMgr@@UAE?AVCRect@@XZ
_TEXT	SEGMENT PARA USE32 PUBLIC 'CODE'
_TEXT	ENDS
;	COMDAT ?UpdateLayout@ETSLayoutMgr@@UAEXVCPane@1@@Z
_TEXT	SEGMENT PARA USE32 PUBLIC 'CODE'
_TEXT	ENDS
;	COMDAT ??_GPaneBase@ETSLayoutMgr@@UAEPAXI@Z
_TEXT	SEGMENT PARA USE32 PUBLIC 'CODE'
_TEXT	ENDS
;	COMDAT ??_GETSLayoutMgr@@UAEPAXI@Z
_TEXT	SEGMENT PARA USE32 PUBLIC 'CODE'
_TEXT	ENDS
;	COMDAT ??0CMarkup@@QAE@XZ
_TEXT	SEGMENT PARA USE32 PUBLIC 'CODE'
_TEXT	ENDS
;	COMDAT ??1CMarkup@@UAE@XZ
_TEXT	SEGMENT PARA USE32 PUBLIC 'CODE'
_TEXT	ENDS
;	COMDAT ?AddElem@CMarkup@@QAE_NPBD0@Z
_TEXT	SEGMENT PARA USE32 PUBLIC 'CODE'
_TEXT	ENDS
;	COMDAT ?AddChildElem@CMarkup@@QAE_NPBD0@Z
_TEXT	SEGMENT PARA USE32 PUBLIC 'CODE'
_TEXT	ENDS
;	COMDAT ??0ElemPos@CMarkup@@QAE@XZ
_TEXT	SEGMENT PARA USE32 PUBLIC 'CODE'
_TEXT	ENDS
;	COMDAT ?Clear@ElemPos@CMarkup@@QAEXXZ
_TEXT	SEGMENT PARA USE32 PUBLIC 'CODE'
_TEXT	ENDS
;	COMDAT ?Clear@TokenPos@CMarkup@@QAEXXZ
_TEXT	SEGMENT PARA USE32 PUBLIC 'CODE'
_TEXT	ENDS
;	COMDAT ?x_SetPos@CMarkup@@IAEXHHH@Z
_TEXT	SEGMENT PARA USE32 PUBLIC 'CODE'
_TEXT	ENDS
;	COMDAT ??_GCMarkup@@UAEPAXI@Z
_TEXT	SEGMENT PARA USE32 PUBLIC 'CODE'
_TEXT	ENDS
;	COMDAT ?AddElem@CMarkupArchive@@UAE_NPBD0@Z
_TEXT	SEGMENT PARA USE32 PUBLIC 'CODE'
_TEXT	ENDS
;	COMDAT ?AddChildElem@CMarkupArchive@@UAE_NPBD0@Z
_TEXT	SEGMENT PARA USE32 PUBLIC 'CODE'
_TEXT	ENDS
;	COMDAT ?FindElem@CMarkupArchive@@UAE_NPBD@Z
_TEXT	SEGMENT PARA USE32 PUBLIC 'CODE'
_TEXT	ENDS
;	COMDAT ?FindChildElem@CMarkupArchive@@UAE_NPBD@Z
_TEXT	SEGMENT PARA USE32 PUBLIC 'CODE'
_TEXT	ENDS
;	COMDAT ??_GCMarkupArchive@@UAEPAXI@Z
_TEXT	SEGMENT PARA USE32 PUBLIC 'CODE'
_TEXT	ENDS
;	COMDAT ??1?$pair@$$CBV?$CStringT@DV?$StrTraitMFC_DLL@DV?$ChTraitsCRT@D@ATL@@@@@ATL@@PAVCDibBitmap@@@std@@QAE@XZ
_TEXT	SEGMENT PARA USE32 PUBLIC 'CODE'
_TEXT	ENDS
;	COMDAT ??_GPaneSplitter@ETSLayoutMgr@@UAEPAXI@Z
_TEXT	SEGMENT PARA USE32 PUBLIC 'CODE'
_TEXT	ENDS
;	COMDAT ??1PaneSplitter@ETSLayoutMgr@@UAE@XZ
_TEXT	SEGMENT PARA USE32 PUBLIC 'CODE'
_TEXT	ENDS
;	COMDAT ??1CPaneMulti@ETSLayoutMgr@@QAE@XZ
_TEXT	SEGMENT PARA USE32 PUBLIC 'CODE'
_TEXT	ENDS
;	COMDAT ??1CPanePosition@ETSLayoutMgr@@QAE@XZ
_TEXT	SEGMENT PARA USE32 PUBLIC 'CODE'
_TEXT	ENDS
;	COMDAT ??_GPanePosition@ETSLayoutMgr@@UAEPAXI@Z
_TEXT	SEGMENT PARA USE32 PUBLIC 'CODE'
_TEXT	ENDS
;	COMDAT ??1PanePosition@ETSLayoutMgr@@UAE@XZ
_TEXT	SEGMENT PARA USE32 PUBLIC 'CODE'
_TEXT	ENDS
;	COMDAT ??HATL@@YA?AV?$CStringT@DV?$StrTraitMFC_DLL@DV?$ChTraitsCRT@D@ATL@@@@@0@ABV10@0@Z
_TEXT	SEGMENT PARA USE32 PUBLIC 'CODE'
_TEXT	ENDS
;	COMDAT ??HATL@@YA?AV?$CStringT@DV?$StrTraitMFC_DLL@DV?$ChTraitsCRT@D@ATL@@@@@0@ABV10@PBD@Z
_TEXT	SEGMENT PARA USE32 PUBLIC 'CODE'
_TEXT	ENDS
;	COMDAT ??8ATL@@YA_NABV?$CStringT@DV?$StrTraitMFC_DLL@DV?$ChTraitsCRT@D@ATL@@@@@0@PBD@Z
_TEXT	SEGMENT PARA USE32 PUBLIC 'CODE'
_TEXT	ENDS
;	COMDAT ??B?$CComPtrBase@UITypeInfo2@@@ATL@@QBEPAUITypeInfo2@@XZ
_TEXT	SEGMENT PARA USE32 PUBLIC 'CODE'
_TEXT	ENDS
;	COMDAT ?equal@?$istreambuf_iterator@DU?$char_traits@D@std@@@std@@QBE_NABV12@@Z
_TEXT	SEGMENT PARA USE32 PUBLIC 'CODE'
_TEXT	ENDS
;	COMDAT ?equal@?$istreambuf_iterator@_WU?$char_traits@_W@std@@@std@@QBE_NABV12@@Z
_TEXT	SEGMENT PARA USE32 PUBLIC 'CODE'
_TEXT	ENDS
;	COMDAT ?insert@?$_Tree@V?$_Tmap_traits@V?$CStringT@DV?$StrTraitMFC_DLL@DV?$ChTraitsCRT@D@ATL@@@@@ATL@@PAVCDibBitmap@@U?$less@V?$CStringT@DV?$StrTraitMFC_DLL@DV?$ChTraitsCRT@D@ATL@@@@@ATL@@@std@@V?$allocator@U?$pair@$$CBV?$CStringT@DV?$StrTraitMFC_DLL@DV?$ChTraitsCRT@D@ATL@@@@@ATL@@PAVCDibBitmap@@@std@@@5@$0A@@std@@@std@@QAE?AU?$pair@Viterator@?$_Tree@V?$_Tmap_traits@V?$CStringT@DV?$StrTraitMFC_DLL@DV?$ChTraitsCRT@D@ATL@@@@@ATL@@PAVCDibBitmap@@U?$less@V?$CStringT@DV?$StrTraitMFC_DLL@DV?$ChTraitsCRT@D@ATL@@@@@ATL@@@std@@V?$allocator@U?$pair@$$CBV?$CStringT@DV?$StrTraitMFC_DLL@DV?$ChTraitsCRT@D@ATL@@@@@ATL@@PAVCDibBitmap@@@std@@@5@$0A@@std@@@std@@_N@2@ABU?$pair@$$CBV?$CStringT@DV?$StrTraitMFC_DLL@DV?$ChTraitsCRT@D@ATL@@@@@ATL@@PAVCDibBitmap@@@2@@Z
_TEXT	SEGMENT PARA USE32 PUBLIC 'CODE'
_TEXT	ENDS
;	COMDAT ??0?$pair@$$CBV?$CStringT@DV?$StrTraitMFC_DLL@DV?$ChTraitsCRT@D@ATL@@@@@ATL@@PAVCDibBitmap@@@std@@QAE@ABV?$CStringT@DV?$StrTraitMFC_DLL@DV?$ChTraitsCRT@D@ATL@@@@@ATL@@ABQAVCDibBitmap@@@Z
_TEXT	SEGMENT PARA USE32 PUBLIC 'CODE'
_TEXT	ENDS
;	COMDAT ?_Isnil@?$_Tree@V?$_Tmap_traits@V?$CStringT@DV?$StrTraitMFC_DLL@DV?$ChTraitsCRT@D@ATL@@@@@ATL@@PAVCDibBitmap@@U?$less@V?$CStringT@DV?$StrTraitMFC_DLL@DV?$ChTraitsCRT@D@ATL@@@@@ATL@@@std@@V?$allocator@U?$pair@$$CBV?$CStringT@DV?$StrTraitMFC_DLL@DV?$ChTraitsCRT@D@ATL@@@@@ATL@@PAVCDibBitmap@@@std@@@5@$0A@@std@@@std@@KAAADPAU_Node@?$_Tree_nod@V?$_Tmap_traits@V?$CStringT@DV?$StrTraitMFC_DLL@DV?$ChTraitsCRT@D@ATL@@@@@ATL@@PAVCDibBitmap@@U?$less@V?$CStringT@DV?$StrTraitMFC_DLL@DV?$ChTraitsCRT@D@ATL@@@@@ATL@@@std@@V?$allocator@U?$pair@$$CBV?$CStringT@DV?$StrTraitMFC_DLL@DV?$ChTraitsCRT@D@ATL@@@@@ATL@@PAVCDibBitmap@@@std@@@5@$0A@@std@@@2@@Z
_TEXT	SEGMENT PARA USE32 PUBLIC 'CODE'
_TEXT	ENDS
;	COMDAT ?_Key@?$_Tree@V?$_Tmap_traits@V?$CStringT@DV?$StrTraitMFC_DLL@DV?$ChTraitsCRT@D@ATL@@@@@ATL@@PAVCDibBitmap@@U?$less@V?$CStringT@DV?$StrTraitMFC_DLL@DV?$ChTraitsCRT@D@ATL@@@@@ATL@@@std@@V?$allocator@U?$pair@$$CBV?$CStringT@DV?$StrTraitMFC_DLL@DV?$ChTraitsCRT@D@ATL@@@@@ATL@@PAVCDibBitmap@@@std@@@5@$0A@@std@@@std@@KAABV?$CStringT@DV?$StrTraitMFC_DLL@DV?$ChTraitsCRT@D@ATL@@@@@ATL@@PAU_Node@?$_Tree_nod@V?$_Tmap_traits@V?$CStringT@DV?$StrTraitMFC_DLL@DV?$ChTraitsCRT@D@ATL@@@@@ATL@@PAVCDibBitmap@@U?$less@V?$CStringT@DV?$StrTraitMFC_DLL@DV?$ChTraitsCRT@D@ATL@@@@@ATL@@@std@@V?$allocator@U?$pair@$$CBV?$CStringT@DV?$StrTraitMFC_DLL@DV?$ChTraitsCRT@D@ATL@@@@@ATL@@PAVCDibBitmap@@@std@@@5@$0A@@std@@@2@@Z
_TEXT	SEGMENT PARA USE32 PUBLIC 'CODE'
_TEXT	ENDS
;	COMDAT ?_Left@?$_Tree@V?$_Tmap_traits@V?$CStringT@DV?$StrTraitMFC_DLL@DV?$ChTraitsCRT@D@ATL@@@@@ATL@@PAVCDibBitmap@@U?$less@V?$CStringT@DV?$StrTraitMFC_DLL@DV?$ChTraitsCRT@D@ATL@@@@@ATL@@@std@@V?$allocator@U?$pair@$$CBV?$CStringT@DV?$StrTraitMFC_DLL@DV?$ChTraitsCRT@D@ATL@@@@@ATL@@PAVCDibBitmap@@@std@@@5@$0A@@std@@@std@@KAAAPAU_Node@?$_Tree_nod@V?$_Tmap_traits@V?$CStringT@DV?$StrTraitMFC_DLL@DV?$ChTraitsCRT@D@ATL@@@@@ATL@@PAVCDibBitmap@@U?$less@V?$CStringT@DV?$StrTraitMFC_DLL@DV?$ChTraitsCRT@D@ATL@@@@@ATL@@@std@@V?$allocator@U?$pair@$$CBV?$CStringT@DV?$StrTraitMFC_DLL@DV?$ChTraitsCRT@D@ATL@@@@@ATL@@PAVCDibBitmap@@@std@@@5@$0A@@std@@@2@PAU342@@Z
_TEXT	SEGMENT PARA USE32 PUBLIC 'CODE'
_TEXT	ENDS
;	COMDAT ?_Right@?$_Tree@V?$_Tmap_traits@V?$CStringT@DV?$StrTraitMFC_DLL@DV?$ChTraitsCRT@D@ATL@@@@@ATL@@PAVCDibBitmap@@U?$less@V?$CStringT@DV?$StrTraitMFC_DLL@DV?$ChTraitsCRT@D@ATL@@@@@ATL@@@std@@V?$allocator@U?$pair@$$CBV?$CStringT@DV?$StrTraitMFC_DLL@DV?$ChTraitsCRT@D@ATL@@@@@ATL@@PAVCDibBitmap@@@std@@@5@$0A@@std@@@std@@KAAAPAU_Node@?$_Tree_nod@V?$_Tmap_traits@V?$CStringT@DV?$StrTraitMFC_DLL@DV?$ChTraitsCRT@D@ATL@@@@@ATL@@PAVCDibBitmap@@U?$less@V?$CStringT@DV?$StrTraitMFC_DLL@DV?$ChTraitsCRT@D@ATL@@@@@ATL@@@std@@V?$allocator@U?$pair@$$CBV?$CStringT@DV?$StrTraitMFC_DLL@DV?$ChTraitsCRT@D@ATL@@@@@ATL@@PAVCDibBitmap@@@std@@@5@$0A@@std@@@2@PAU342@@Z
_TEXT	SEGMENT PARA USE32 PUBLIC 'CODE'
_TEXT	ENDS
;	COMDAT ?begin@?$_Tree@V?$_Tmap_traits@V?$CStringT@DV?$StrTraitMFC_DLL@DV?$ChTraitsCRT@D@ATL@@@@@ATL@@PAVCDibBitmap@@U?$less@V?$CStringT@DV?$StrTraitMFC_DLL@DV?$ChTraitsCRT@D@ATL@@@@@ATL@@@std@@V?$allocator@U?$pair@$$CBV?$CStringT@DV?$StrTraitMFC_DLL@DV?$ChTraitsCRT@D@ATL@@@@@ATL@@PAVCDibBitmap@@@std@@@5@$0A@@std@@@std@@QAE?AViterator@12@XZ
_TEXT	SEGMENT PARA USE32 PUBLIC 'CODE'
_TEXT	ENDS
;	COMDAT ?_Insert@?$_Tree@V?$_Tmap_traits@V?$CStringT@DV?$StrTraitMFC_DLL@DV?$ChTraitsCRT@D@ATL@@@@@ATL@@PAVCDibBitmap@@U?$less@V?$CStringT@DV?$StrTraitMFC_DLL@DV?$ChTraitsCRT@D@ATL@@@@@ATL@@@std@@V?$allocator@U?$pair@$$CBV?$CStringT@DV?$StrTraitMFC_DLL@DV?$ChTraitsCRT@D@ATL@@@@@ATL@@PAVCDibBitmap@@@std@@@5@$0A@@std@@@std@@IAE?AViterator@12@_NPAU_Node@?$_Tree_nod@V?$_Tmap_traits@V?$CStringT@DV?$StrTraitMFC_DLL@DV?$ChTraitsCRT@D@ATL@@@@@ATL@@PAVCDibBitmap@@U?$less@V?$CStringT@DV?$StrTraitMFC_DLL@DV?$ChTraitsCRT@D@ATL@@@@@ATL@@@std@@V?$allocator@U?$pair@$$CBV?$CStringT@DV?$StrTraitMFC_DLL@DV?$ChTraitsCRT@D@ATL@@@@@ATL@@PAVCDibBitmap@@@std@@@5@$0A@@std@@@2@ABU?$pair@$$CBV?$CStringT@DV?$StrTraitMFC_DLL@DV?$ChTraitsCRT@D@ATL@@@@@ATL@@PAVCDibBitmap@@@2@@Z
_TEXT	SEGMENT PARA USE32 PUBLIC 'CODE'
_TEXT	ENDS
;	COMDAT ?_Root@?$_Tree@V?$_Tmap_traits@V?$CStringT@DV?$StrTraitMFC_DLL@DV?$ChTraitsCRT@D@ATL@@@@@ATL@@PAVCDibBitmap@@U?$less@V?$CStringT@DV?$StrTraitMFC_DLL@DV?$ChTraitsCRT@D@ATL@@@@@ATL@@@std@@V?$allocator@U?$pair@$$CBV?$CStringT@DV?$StrTraitMFC_DLL@DV?$ChTraitsCRT@D@ATL@@@@@ATL@@PAVCDibBitmap@@@std@@@5@$0A@@std@@@std@@IAEAAPAU_Node@?$_Tree_nod@V?$_Tmap_traits@V?$CStringT@DV?$StrTraitMFC_DLL@DV?$ChTraitsCRT@D@ATL@@@@@ATL@@PAVCDibBitmap@@U?$less@V?$CStringT@DV?$StrTraitMFC_DLL@DV?$ChTraitsCRT@D@ATL@@@@@ATL@@@std@@V?$allocator@U?$pair@$$CBV?$CStringT@DV?$StrTraitMFC_DLL@DV?$ChTraitsCRT@D@ATL@@@@@ATL@@PAVCDibBitmap@@@std@@@5@$0A@@std@@@2@XZ
_TEXT	SEGMENT PARA USE32 PUBLIC 'CODE'
_TEXT	ENDS
;	COMDAT ?_Kfn@?$_Tmap_traits@V?$CStringT@DV?$StrTraitMFC_DLL@DV?$ChTraitsCRT@D@ATL@@@@@ATL@@PAVCDibBitmap@@U?$less@V?$CStringT@DV?$StrTraitMFC_DLL@DV?$ChTraitsCRT@D@ATL@@@@@ATL@@@std@@V?$allocator@U?$pair@$$CBV?$CStringT@DV?$StrTraitMFC_DLL@DV?$ChTraitsCRT@D@ATL@@@@@ATL@@PAVCDibBitmap@@@std@@@5@$0A@@std@@SAABV?$CStringT@DV?$StrTraitMFC_DLL@DV?$ChTraitsCRT@D@ATL@@@@@ATL@@ABU?$pair@$$CBV?$CStringT@DV?$StrTraitMFC_DLL@DV?$ChTraitsCRT@D@ATL@@@@@ATL@@PAVCDibBitmap@@@2@@Z
_TEXT	SEGMENT PARA USE32 PUBLIC 'CODE'
_TEXT	ENDS
;	COMDAT ??R?$less@V?$CStringT@DV?$StrTraitMFC_DLL@DV?$ChTraitsCRT@D@ATL@@@@@ATL@@@std@@QBE_NABV?$CStringT@DV?$StrTraitMFC_DLL@DV?$ChTraitsCRT@D@ATL@@@@@ATL@@0@Z
_TEXT	SEGMENT PARA USE32 PUBLIC 'CODE'
_TEXT	ENDS
;	COMDAT ??0?$pair@Viterator@?$_Tree@V?$_Tmap_traits@V?$CStringT@DV?$StrTraitMFC_DLL@DV?$ChTraitsCRT@D@ATL@@@@@ATL@@PAVCDibBitmap@@U?$less@V?$CStringT@DV?$StrTraitMFC_DLL@DV?$ChTraitsCRT@D@ATL@@@@@ATL@@@std@@V?$allocator@U?$pair@$$CBV?$CStringT@DV?$StrTraitMFC_DLL@DV?$ChTraitsCRT@D@ATL@@@@@ATL@@PAVCDibBitmap@@@std@@@5@$0A@@std@@@std@@_N@std@@QAE@ABViterator@?$_Tree@V?$_Tmap_traits@V?$CStringT@DV?$StrTraitMFC_DLL@DV?$ChTraitsCRT@D@ATL@@@@@ATL@@PAVCDibBitmap@@U?$less@V?$CStringT@DV?$StrTraitMFC_DLL@DV?$ChTraitsCRT@D@ATL@@@@@ATL@@@std@@V?$allocator@U?$pair@$$CBV?$CStringT@DV?$StrTraitMFC_DLL@DV?$ChTraitsCRT@D@ATL@@@@@ATL@@PAVCDibBitmap@@@std@@@5@$0A@@std@@@1@AB_N@Z
_TEXT	SEGMENT PARA USE32 PUBLIC 'CODE'
_TEXT	ENDS
;	COMDAT ??0iterator@?$_Tree@V?$_Tmap_traits@V?$CStringT@DV?$StrTraitMFC_DLL@DV?$ChTraitsCRT@D@ATL@@@@@ATL@@PAVCDibBitmap@@U?$less@V?$CStringT@DV?$StrTraitMFC_DLL@DV?$ChTraitsCRT@D@ATL@@@@@ATL@@@std@@V?$allocator@U?$pair@$$CBV?$CStringT@DV?$StrTraitMFC_DLL@DV?$ChTraitsCRT@D@ATL@@@@@ATL@@PAVCDibBitmap@@@std@@@5@$0A@@std@@@std@@QAE@PAU_Node@?$_Tree_nod@V?$_Tmap_traits@V?$CStringT@DV?$StrTraitMFC_DLL@DV?$ChTraitsCRT@D@ATL@@@@@ATL@@PAVCDibBitmap@@U?$less@V?$CStringT@DV?$StrTraitMFC_DLL@DV?$ChTraitsCRT@D@ATL@@@@@ATL@@@std@@V?$allocator@U?$pair@$$CBV?$CStringT@DV?$StrTraitMFC_DLL@DV?$ChTraitsCRT@D@ATL@@@@@ATL@@PAVCDibBitmap@@@std@@@5@$0A@@std@@@2@@Z
_TEXT	SEGMENT PARA USE32 PUBLIC 'CODE'
_TEXT	ENDS
;	COMDAT ??Fiterator@?$_Tree@V?$_Tmap_traits@V?$CStringT@DV?$StrTraitMFC_DLL@DV?$ChTraitsCRT@D@ATL@@@@@ATL@@PAVCDibBitmap@@U?$less@V?$CStringT@DV?$StrTraitMFC_DLL@DV?$ChTraitsCRT@D@ATL@@@@@ATL@@@std@@V?$allocator@U?$pair@$$CBV?$CStringT@DV?$StrTraitMFC_DLL@DV?$ChTraitsCRT@D@ATL@@@@@ATL@@PAVCDibBitmap@@@std@@@5@$0A@@std@@@std@@QAEAAV012@XZ
_TEXT	SEGMENT PARA USE32 PUBLIC 'CODE'
_TEXT	ENDS
;	COMDAT ??8const_iterator@?$_Tree@V?$_Tmap_traits@V?$CStringT@DV?$StrTraitMFC_DLL@DV?$ChTraitsCRT@D@ATL@@@@@ATL@@PAVCDibBitmap@@U?$less@V?$CStringT@DV?$StrTraitMFC_DLL@DV?$ChTraitsCRT@D@ATL@@@@@ATL@@@std@@V?$allocator@U?$pair@$$CBV?$CStringT@DV?$StrTraitMFC_DLL@DV?$ChTraitsCRT@D@ATL@@@@@ATL@@PAVCDibBitmap@@@std@@@5@$0A@@std@@@std@@QBE_NABV012@@Z
_TEXT	SEGMENT PARA USE32 PUBLIC 'CODE'
_TEXT	ENDS
;	COMDAT ?_Mynode@const_iterator@?$_Tree@V?$_Tmap_traits@V?$CStringT@DV?$StrTraitMFC_DLL@DV?$ChTraitsCRT@D@ATL@@@@@ATL@@PAVCDibBitmap@@U?$less@V?$CStringT@DV?$StrTraitMFC_DLL@DV?$ChTraitsCRT@D@ATL@@@@@ATL@@@std@@V?$allocator@U?$pair@$$CBV?$CStringT@DV?$StrTraitMFC_DLL@DV?$ChTraitsCRT@D@ATL@@@@@ATL@@PAVCDibBitmap@@@std@@@5@$0A@@std@@@std@@QBEPAU_Node@?$_Tree_nod@V?$_Tmap_traits@V?$CStringT@DV?$StrTraitMFC_DLL@DV?$ChTraitsCRT@D@ATL@@@@@ATL@@PAVCDibBitmap@@U?$less@V?$CStringT@DV?$StrTraitMFC_DLL@DV?$ChTraitsCRT@D@ATL@@@@@ATL@@@std@@V?$allocator@U?$pair@$$CBV?$CStringT@DV?$StrTraitMFC_DLL@DV?$ChTraitsCRT@D@ATL@@@@@ATL@@PAVCDibBitmap@@@std@@@5@$0A@@std@@@3@XZ
_TEXT	SEGMENT PARA USE32 PUBLIC 'CODE'
_TEXT	ENDS
;	COMDAT ??0length_error@std@@QAE@ABV01@@Z
_TEXT	SEGMENT PARA USE32 PUBLIC 'CODE'
_TEXT	ENDS
;	COMDAT ??MATL@@YA_NABV?$CStringT@DV?$StrTraitMFC_DLL@DV?$ChTraitsCRT@D@ATL@@@@@0@0@Z
_TEXT	SEGMENT PARA USE32 PUBLIC 'CODE'
_TEXT	ENDS
;	COMDAT ?StringCompare@?$ChTraitsCRT@D@ATL@@SAHPBD0@Z
_TEXT	SEGMENT PARA USE32 PUBLIC 'CODE'
_TEXT	ENDS
;	COMDAT ?_Color@?$_Tree@V?$_Tmap_traits@V?$CStringT@DV?$StrTraitMFC_DLL@DV?$ChTraitsCRT@D@ATL@@@@@ATL@@PAVCDibBitmap@@U?$less@V?$CStringT@DV?$StrTraitMFC_DLL@DV?$ChTraitsCRT@D@ATL@@@@@ATL@@@std@@V?$allocator@U?$pair@$$CBV?$CStringT@DV?$StrTraitMFC_DLL@DV?$ChTraitsCRT@D@ATL@@@@@ATL@@PAVCDibBitmap@@@std@@@5@$0A@@std@@@std@@KAAADPAU_Node@?$_Tree_nod@V?$_Tmap_traits@V?$CStringT@DV?$StrTraitMFC_DLL@DV?$ChTraitsCRT@D@ATL@@@@@ATL@@PAVCDibBitmap@@U?$less@V?$CStringT@DV?$StrTraitMFC_DLL@DV?$ChTraitsCRT@D@ATL@@@@@ATL@@@std@@V?$allocator@U?$pair@$$CBV?$CStringT@DV?$StrTraitMFC_DLL@DV?$ChTraitsCRT@D@ATL@@@@@ATL@@PAVCDibBitmap@@@std@@@5@$0A@@std@@@2@@Z
_TEXT	SEGMENT PARA USE32 PUBLIC 'CODE'
_TEXT	ENDS
;	COMDAT ?_Parent@?$_Tree@V?$_Tmap_traits@V?$CStringT@DV?$StrTraitMFC_DLL@DV?$ChTraitsCRT@D@ATL@@@@@ATL@@PAVCDibBitmap@@U?$less@V?$CStringT@DV?$StrTraitMFC_DLL@DV?$ChTraitsCRT@D@ATL@@@@@ATL@@@std@@V?$allocator@U?$pair@$$CBV?$CStringT@DV?$StrTraitMFC_DLL@DV?$ChTraitsCRT@D@ATL@@@@@ATL@@PAVCDibBitmap@@@std@@@5@$0A@@std@@@std@@KAAAPAU_Node@?$_Tree_nod@V?$_Tmap_traits@V?$CStringT@DV?$StrTraitMFC_DLL@DV?$ChTraitsCRT@D@ATL@@@@@ATL@@PAVCDibBitmap@@U?$less@V?$CStringT@DV?$StrTraitMFC_DLL@DV?$ChTraitsCRT@D@ATL@@@@@ATL@@@std@@V?$allocator@U?$pair@$$CBV?$CStringT@DV?$StrTraitMFC_DLL@DV?$ChTraitsCRT@D@ATL@@@@@ATL@@PAVCDibBitmap@@@std@@@5@$0A@@std@@@2@PAU342@@Z
_TEXT	SEGMENT PARA USE32 PUBLIC 'CODE'
_TEXT	ENDS
;	COMDAT ?_Myval@?$_Tree@V?$_Tmap_traits@V?$CStringT@DV?$StrTraitMFC_DLL@DV?$ChTraitsCRT@D@ATL@@@@@ATL@@PAVCDibBitmap@@U?$less@V?$CStringT@DV?$StrTraitMFC_DLL@DV?$ChTraitsCRT@D@ATL@@@@@ATL@@@std@@V?$allocator@U?$pair@$$CBV?$CStringT@DV?$StrTraitMFC_DLL@DV?$ChTraitsCRT@D@ATL@@@@@ATL@@PAVCDibBitmap@@@std@@@5@$0A@@std@@@std@@KAAAU?$pair@$$CBV?$CStringT@DV?$StrTraitMFC_DLL@DV?$ChTraitsCRT@D@ATL@@@@@ATL@@PAVCDibBitmap@@@2@PAU_Node@?$_Tree_nod@V?$_Tmap_traits@V?$CStringT@DV?$StrTraitMFC_DLL@DV?$ChTraitsCRT@D@ATL@@@@@ATL@@PAVCDibBitmap@@U?$less@V?$CStringT@DV?$StrTraitMFC_DLL@DV?$ChTraitsCRT@D@ATL@@@@@ATL@@@std@@V?$allocator@U?$pair@$$CBV?$CStringT@DV?$StrTraitMFC_DLL@DV?$ChTraitsCRT@D@ATL@@@@@ATL@@PAVCDibBitmap@@@std@@@5@$0A@@std@@@2@@Z
_TEXT	SEGMENT PARA USE32 PUBLIC 'CODE'
_TEXT	ENDS
;	COMDAT ?max_size@?$_Tree@V?$_Tmap_traits@V?$CStringT@DV?$StrTraitMFC_DLL@DV?$ChTraitsCRT@D@ATL@@@@@ATL@@PAVCDibBitmap@@U?$less@V?$CStringT@DV?$StrTraitMFC_DLL@DV?$ChTraitsCRT@D@ATL@@@@@ATL@@@std@@V?$allocator@U?$pair@$$CBV?$CStringT@DV?$StrTraitMFC_DLL@DV?$ChTraitsCRT@D@ATL@@@@@ATL@@PAVCDibBitmap@@@std@@@5@$0A@@std@@@std@@QBEIXZ
_TEXT	SEGMENT PARA USE32 PUBLIC 'CODE'
_TEXT	ENDS
;	COMDAT ?_Lmost@?$_Tree@V?$_Tmap_traits@V?$CStringT@DV?$StrTraitMFC_DLL@DV?$ChTraitsCRT@D@ATL@@@@@ATL@@PAVCDibBitmap@@U?$less@V?$CStringT@DV?$StrTraitMFC_DLL@DV?$ChTraitsCRT@D@ATL@@@@@ATL@@@std@@V?$allocator@U?$pair@$$CBV?$CStringT@DV?$StrTraitMFC_DLL@DV?$ChTraitsCRT@D@ATL@@@@@ATL@@PAVCDibBitmap@@@std@@@5@$0A@@std@@@std@@IAEAAPAU_Node@?$_Tree_nod@V?$_Tmap_traits@V?$CStringT@DV?$StrTraitMFC_DLL@DV?$ChTraitsCRT@D@ATL@@@@@ATL@@PAVCDibBitmap@@U?$less@V?$CStringT@DV?$StrTraitMFC_DLL@DV?$ChTraitsCRT@D@ATL@@@@@ATL@@@std@@V?$allocator@U?$pair@$$CBV?$CStringT@DV?$StrTraitMFC_DLL@DV?$ChTraitsCRT@D@ATL@@@@@ATL@@PAVCDibBitmap@@@std@@@5@$0A@@std@@@2@XZ
_TEXT	SEGMENT PARA USE32 PUBLIC 'CODE'
_TEXT	ENDS
;	COMDAT ?_Lrotate@?$_Tree@V?$_Tmap_traits@V?$CStringT@DV?$StrTraitMFC_DLL@DV?$ChTraitsCRT@D@ATL@@@@@ATL@@PAVCDibBitmap@@U?$less@V?$CStringT@DV?$StrTraitMFC_DLL@DV?$ChTraitsCRT@D@ATL@@@@@ATL@@@std@@V?$allocator@U?$pair@$$CBV?$CStringT@DV?$StrTraitMFC_DLL@DV?$ChTraitsCRT@D@ATL@@@@@ATL@@PAVCDibBitmap@@@std@@@5@$0A@@std@@@std@@IAEXPAU_Node@?$_Tree_nod@V?$_Tmap_traits@V?$CStringT@DV?$StrTraitMFC_DLL@DV?$ChTraitsCRT@D@ATL@@@@@ATL@@PAVCDibBitmap@@U?$less@V?$CStringT@DV?$StrTraitMFC_DLL@DV?$ChTraitsCRT@D@ATL@@@@@ATL@@@std@@V?$allocator@U?$pair@$$CBV?$CStringT@DV?$StrTraitMFC_DLL@DV?$ChTraitsCRT@D@ATL@@@@@ATL@@PAVCDibBitmap@@@std@@@5@$0A@@std@@@2@@Z
_TEXT	SEGMENT PARA USE32 PUBLIC 'CODE'
_TEXT	ENDS
;	COMDAT ?_Rmost@?$_Tree@V?$_Tmap_traits@V?$CStringT@DV?$StrTraitMFC_DLL@DV?$ChTraitsCRT@D@ATL@@@@@ATL@@PAVCDibBitmap@@U?$less@V?$CStringT@DV?$StrTraitMFC_DLL@DV?$ChTraitsCRT@D@ATL@@@@@ATL@@@std@@V?$allocator@U?$pair@$$CBV?$CStringT@DV?$StrTraitMFC_DLL@DV?$ChTraitsCRT@D@ATL@@@@@ATL@@PAVCDibBitmap@@@std@@@5@$0A@@std@@@std@@IAEAAPAU_Node@?$_Tree_nod@V?$_Tmap_traits@V?$CStringT@DV?$StrTraitMFC_DLL@DV?$ChTraitsCRT@D@ATL@@@@@ATL@@PAVCDibBitmap@@U?$less@V?$CStringT@DV?$StrTraitMFC_DLL@DV?$ChTraitsCRT@D@ATL@@@@@ATL@@@std@@V?$allocator@U?$pair@$$CBV?$CStringT@DV?$StrTraitMFC_DLL@DV?$ChTraitsCRT@D@ATL@@@@@ATL@@PAVCDibBitmap@@@std@@@5@$0A@@std@@@2@XZ
_TEXT	SEGMENT PARA USE32 PUBLIC 'CODE'
_TEXT	ENDS
;	COMDAT ?_Rrotate@?$_Tree@V?$_Tmap_traits@V?$CStringT@DV?$StrTraitMFC_DLL@DV?$ChTraitsCRT@D@ATL@@@@@ATL@@PAVCDibBitmap@@U?$less@V?$CStringT@DV?$StrTraitMFC_DLL@DV?$ChTraitsCRT@D@ATL@@@@@ATL@@@std@@V?$allocator@U?$pair@$$CBV?$CStringT@DV?$StrTraitMFC_DLL@DV?$ChTraitsCRT@D@ATL@@@@@ATL@@PAVCDibBitmap@@@std@@@5@$0A@@std@@@std@@IAEXPAU_Node@?$_Tree_nod@V?$_Tmap_traits@V?$CStringT@DV?$StrTraitMFC_DLL@DV?$ChTraitsCRT@D@ATL@@@@@ATL@@PAVCDibBitmap@@U?$less@V?$CStringT@DV?$StrTraitMFC_DLL@DV?$ChTraitsCRT@D@ATL@@@@@ATL@@@std@@V?$allocator@U?$pair@$$CBV?$CStringT@DV?$StrTraitMFC_DLL@DV?$ChTraitsCRT@D@ATL@@@@@ATL@@PAVCDibBitmap@@@std@@@5@$0A@@std@@@2@@Z
_TEXT	SEGMENT PARA USE32 PUBLIC 'CODE'
_TEXT	ENDS
;	COMDAT ?_Buynode@?$_Tree@V?$_Tmap_traits@V?$CStringT@DV?$StrTraitMFC_DLL@DV?$ChTraitsCRT@D@ATL@@@@@ATL@@PAVCDibBitmap@@U?$less@V?$CStringT@DV?$StrTraitMFC_DLL@DV?$ChTraitsCRT@D@ATL@@@@@ATL@@@std@@V?$allocator@U?$pair@$$CBV?$CStringT@DV?$StrTraitMFC_DLL@DV?$ChTraitsCRT@D@ATL@@@@@ATL@@PAVCDibBitmap@@@std@@@5@$0A@@std@@@std@@IAEPAU_Node@?$_Tree_nod@V?$_Tmap_traits@V?$CStringT@DV?$StrTraitMFC_DLL@DV?$ChTraitsCRT@D@ATL@@@@@ATL@@PAVCDibBitmap@@U?$less@V?$CStringT@DV?$StrTraitMFC_DLL@DV?$ChTraitsCRT@D@ATL@@@@@ATL@@@std@@V?$allocator@U?$pair@$$CBV?$CStringT@DV?$StrTraitMFC_DLL@DV?$ChTraitsCRT@D@ATL@@@@@ATL@@PAVCDibBitmap@@@std@@@5@$0A@@std@@@2@PAU342@00ABU?$pair@$$CBV?$CStringT@DV?$StrTraitMFC_DLL@DV?$ChTraitsCRT@D@ATL@@@@@ATL@@PAVCDibBitmap@@@2@D@Z
_TEXT	SEGMENT PARA USE32 PUBLIC 'CODE'
_TEXT	ENDS
;	COMDAT ??0const_iterator@?$_Tree@V?$_Tmap_traits@V?$CStringT@DV?$StrTraitMFC_DLL@DV?$ChTraitsCRT@D@ATL@@@@@ATL@@PAVCDibBitmap@@U?$less@V?$CStringT@DV?$StrTraitMFC_DLL@DV?$ChTraitsCRT@D@ATL@@@@@ATL@@@std@@V?$allocator@U?$pair@$$CBV?$CStringT@DV?$StrTraitMFC_DLL@DV?$ChTraitsCRT@D@ATL@@@@@ATL@@PAVCDibBitmap@@@std@@@5@$0A@@std@@@std@@QAE@PAU_Node@?$_Tree_nod@V?$_Tmap_traits@V?$CStringT@DV?$StrTraitMFC_DLL@DV?$ChTraitsCRT@D@ATL@@@@@ATL@@PAVCDibBitmap@@U?$less@V?$CStringT@DV?$StrTraitMFC_DLL@DV?$ChTraitsCRT@D@ATL@@@@@ATL@@@std@@V?$allocator@U?$pair@$$CBV?$CStringT@DV?$StrTraitMFC_DLL@DV?$ChTraitsCRT@D@ATL@@@@@ATL@@PAVCDibBitmap@@@std@@@5@$0A@@std@@@2@@Z
_TEXT	SEGMENT PARA USE32 PUBLIC 'CODE'
_TEXT	ENDS
;	COMDAT ??Fconst_iterator@?$_Tree@V?$_Tmap_traits@V?$CStringT@DV?$StrTraitMFC_DLL@DV?$ChTraitsCRT@D@ATL@@@@@ATL@@PAVCDibBitmap@@U?$less@V?$CStringT@DV?$StrTraitMFC_DLL@DV?$ChTraitsCRT@D@ATL@@@@@ATL@@@std@@V?$allocator@U?$pair@$$CBV?$CStringT@DV?$StrTraitMFC_DLL@DV?$ChTraitsCRT@D@ATL@@@@@ATL@@PAVCDibBitmap@@@std@@@5@$0A@@std@@@std@@QAEAAV012@XZ
_TEXT	SEGMENT PARA USE32 PUBLIC 'CODE'
_TEXT	ENDS
;	COMDAT ?max_size@?$allocator@U?$pair@$$CBV?$CStringT@DV?$StrTraitMFC_DLL@DV?$ChTraitsCRT@D@ATL@@@@@ATL@@PAVCDibBitmap@@@std@@@std@@QBEIXZ
_TEXT	SEGMENT PARA USE32 PUBLIC 'CODE'
_TEXT	ENDS
;	COMDAT ?deallocate@?$allocator@U_Node@?$_Tree_nod@V?$_Tmap_traits@V?$CStringT@DV?$StrTraitMFC_DLL@DV?$ChTraitsCRT@D@ATL@@@@@ATL@@PAVCDibBitmap@@U?$less@V?$CStringT@DV?$StrTraitMFC_DLL@DV?$ChTraitsCRT@D@ATL@@@@@ATL@@@std@@V?$allocator@U?$pair@$$CBV?$CStringT@DV?$StrTraitMFC_DLL@DV?$ChTraitsCRT@D@ATL@@@@@ATL@@PAVCDibBitmap@@@std@@@5@$0A@@std@@@std@@@std@@QAEXPAU_Node@?$_Tree_nod@V?$_Tmap_traits@V?$CStringT@DV?$StrTraitMFC_DLL@DV?$ChTraitsCRT@D@ATL@@@@@ATL@@PAVCDibBitmap@@U?$less@V?$CStringT@DV?$StrTraitMFC_DLL@DV?$ChTraitsCRT@D@ATL@@@@@ATL@@@std@@V?$allocator@U?$pair@$$CBV?$CStringT@DV?$StrTraitMFC_DLL@DV?$ChTraitsCRT@D@ATL@@@@@ATL@@PAVCDibBitmap@@@std@@@5@$0A@@std@@@2@I@Z
_TEXT	SEGMENT PARA USE32 PUBLIC 'CODE'
_TEXT	ENDS
;	COMDAT ?allocate@?$allocator@U_Node@?$_Tree_nod@V?$_Tmap_traits@V?$CStringT@DV?$StrTraitMFC_DLL@DV?$ChTraitsCRT@D@ATL@@@@@ATL@@PAVCDibBitmap@@U?$less@V?$CStringT@DV?$StrTraitMFC_DLL@DV?$ChTraitsCRT@D@ATL@@@@@ATL@@@std@@V?$allocator@U?$pair@$$CBV?$CStringT@DV?$StrTraitMFC_DLL@DV?$ChTraitsCRT@D@ATL@@@@@ATL@@PAVCDibBitmap@@@std@@@5@$0A@@std@@@std@@@std@@QAEPAU_Node@?$_Tree_nod@V?$_Tmap_traits@V?$CStringT@DV?$StrTraitMFC_DLL@DV?$ChTraitsCRT@D@ATL@@@@@ATL@@PAVCDibBitmap@@U?$less@V?$CStringT@DV?$StrTraitMFC_DLL@DV?$ChTraitsCRT@D@ATL@@@@@ATL@@@std@@V?$allocator@U?$pair@$$CBV?$CStringT@DV?$StrTraitMFC_DLL@DV?$ChTraitsCRT@D@ATL@@@@@ATL@@PAVCDibBitmap@@@std@@@5@$0A@@std@@@2@I@Z
_TEXT	SEGMENT PARA USE32 PUBLIC 'CODE'
_TEXT	ENDS
;	COMDAT ?_Dec@const_iterator@?$_Tree@V?$_Tmap_traits@V?$CStringT@DV?$StrTraitMFC_DLL@DV?$ChTraitsCRT@D@ATL@@@@@ATL@@PAVCDibBitmap@@U?$less@V?$CStringT@DV?$StrTraitMFC_DLL@DV?$ChTraitsCRT@D@ATL@@@@@ATL@@@std@@V?$allocator@U?$pair@$$CBV?$CStringT@DV?$StrTraitMFC_DLL@DV?$ChTraitsCRT@D@ATL@@@@@ATL@@PAVCDibBitmap@@@std@@@5@$0A@@std@@@std@@QAEXXZ
_TEXT	SEGMENT PARA USE32 PUBLIC 'CODE'
_TEXT	ENDS
;	COMDAT ??0_Node@?$_Tree_nod@V?$_Tmap_traits@V?$CStringT@DV?$StrTraitMFC_DLL@DV?$ChTraitsCRT@D@ATL@@@@@ATL@@PAVCDibBitmap@@U?$less@V?$CStringT@DV?$StrTraitMFC_DLL@DV?$ChTraitsCRT@D@ATL@@@@@ATL@@@std@@V?$allocator@U?$pair@$$CBV?$CStringT@DV?$StrTraitMFC_DLL@DV?$ChTraitsCRT@D@ATL@@@@@ATL@@PAVCDibBitmap@@@std@@@5@$0A@@std@@@std@@QAE@PAU012@00ABU?$pair@$$CBV?$CStringT@DV?$StrTraitMFC_DLL@DV?$ChTraitsCRT@D@ATL@@@@@ATL@@PAVCDibBitmap@@@2@D@Z
_TEXT	SEGMENT PARA USE32 PUBLIC 'CODE'
_TEXT	ENDS
;	COMDAT ??0?$pair@$$CBV?$CStringT@DV?$StrTraitMFC_DLL@DV?$ChTraitsCRT@D@ATL@@@@@ATL@@PAVCDibBitmap@@@std@@QAE@ABU01@@Z
_TEXT	SEGMENT PARA USE32 PUBLIC 'CODE'
_TEXT	ENDS
;	COMDAT ?_Max@?$_Tree@V?$_Tmap_traits@V?$CStringT@DV?$StrTraitMFC_DLL@DV?$ChTraitsCRT@D@ATL@@@@@ATL@@PAVCDibBitmap@@U?$less@V?$CStringT@DV?$StrTraitMFC_DLL@DV?$ChTraitsCRT@D@ATL@@@@@ATL@@@std@@V?$allocator@U?$pair@$$CBV?$CStringT@DV?$StrTraitMFC_DLL@DV?$ChTraitsCRT@D@ATL@@@@@ATL@@PAVCDibBitmap@@@std@@@5@$0A@@std@@@std@@KAPAU_Node@?$_Tree_nod@V?$_Tmap_traits@V?$CStringT@DV?$StrTraitMFC_DLL@DV?$ChTraitsCRT@D@ATL@@@@@ATL@@PAVCDibBitmap@@U?$less@V?$CStringT@DV?$StrTraitMFC_DLL@DV?$ChTraitsCRT@D@ATL@@@@@ATL@@@std@@V?$allocator@U?$pair@$$CBV?$CStringT@DV?$StrTraitMFC_DLL@DV?$ChTraitsCRT@D@ATL@@@@@ATL@@PAVCDibBitmap@@@std@@@5@$0A@@std@@@2@PAU342@@Z
_TEXT	SEGMENT PARA USE32 PUBLIC 'CODE'
_TEXT	ENDS
;	COMDAT ?Unlock@?$CComCritSecLock@VCComCriticalSection@ATL@@@ATL@@QAEXXZ
_TEXT	SEGMENT PARA USE32 PUBLIC 'CODE'
_TEXT	ENDS
;	COMDAT ??0?$CArray@MM@@QAE@XZ
_TEXT	SEGMENT PARA USE32 PUBLIC 'CODE'
_TEXT	ENDS
;	COMDAT ??1?$CArray@MM@@UAE@XZ
_TEXT	SEGMENT PARA USE32 PUBLIC 'CODE'
_TEXT	ENDS
;	COMDAT ?Serialize@?$CArray@MM@@UAEXAAVCArchive@@@Z
_TEXT	SEGMENT PARA USE32 PUBLIC 'CODE'
_TEXT	ENDS
;	COMDAT ?Dump@?$CArray@MM@@UBEXAAVCDumpContext@@@Z
_TEXT	SEGMENT PARA USE32 PUBLIC 'CODE'
_TEXT	ENDS
;	COMDAT ?AssertValid@?$CArray@MM@@UBEXXZ
_TEXT	SEGMENT PARA USE32 PUBLIC 'CODE'
_TEXT	ENDS
;	COMDAT ?GetSize@?$CArray@VCPaneBase@ETSLayoutMgr@@V12@@@QBEHXZ
_TEXT	SEGMENT PARA USE32 PUBLIC 'CODE'
_TEXT	ENDS
;	COMDAT ?RemoveAll@?$CArray@VCPaneBase@ETSLayoutMgr@@V12@@@QAEXXZ
_TEXT	SEGMENT PARA USE32 PUBLIC 'CODE'
_TEXT	ENDS
;	COMDAT ??A?$CArray@VCPaneBase@ETSLayoutMgr@@V12@@@QAEAAVCPaneBase@ETSLayoutMgr@@H@Z
_TEXT	SEGMENT PARA USE32 PUBLIC 'CODE'
_TEXT	ENDS
;	COMDAT ??1?$CArray@VCPaneBase@ETSLayoutMgr@@V12@@@UAE@XZ
_TEXT	SEGMENT PARA USE32 PUBLIC 'CODE'
_TEXT	ENDS
;	COMDAT ?Serialize@?$CArray@VCPaneBase@ETSLayoutMgr@@V12@@@UAEXAAVCArchive@@@Z
_TEXT	SEGMENT PARA USE32 PUBLIC 'CODE'
_TEXT	ENDS
;	COMDAT ?Dump@?$CArray@VCPaneBase@ETSLayoutMgr@@V12@@@UBEXAAVCDumpContext@@@Z
_TEXT	SEGMENT PARA USE32 PUBLIC 'CODE'
_TEXT	ENDS
;	COMDAT ?AssertValid@?$CArray@VCPaneBase@ETSLayoutMgr@@V12@@@UBEXXZ
_TEXT	SEGMENT PARA USE32 PUBLIC 'CODE'
_TEXT	ENDS
;	COMDAT ?Lookup@?$CMap@V?$CStringT@DV?$StrTraitMFC_DLL@DV?$ChTraitsCRT@D@ATL@@@@@ATL@@PBDVCPaneBase@ETSLayoutMgr@@V34@@@QBEHPBDAAVCPaneBase@ETSLayoutMgr@@@Z
_TEXT	SEGMENT PARA USE32 PUBLIC 'CODE'
_TEXT	ENDS
;	COMDAT ?SetAt@?$CMap@V?$CStringT@DV?$StrTraitMFC_DLL@DV?$ChTraitsCRT@D@ATL@@@@@ATL@@PBDVCPaneBase@ETSLayoutMgr@@V34@@@QAEXPBDVCPaneBase@ETSLayoutMgr@@@Z
_TEXT	SEGMENT PARA USE32 PUBLIC 'CODE'
_TEXT	ENDS
;	COMDAT ?GetStartPosition@?$CMap@V?$CStringT@DV?$StrTraitMFC_DLL@DV?$ChTraitsCRT@D@ATL@@@@@ATL@@PBDVCPaneBase@ETSLayoutMgr@@V34@@@QBEPAU__POSITION@@XZ
_TEXT	SEGMENT PARA USE32 PUBLIC 'CODE'
_TEXT	ENDS
;	COMDAT ?GetNextAssoc@?$CMap@V?$CStringT@DV?$StrTraitMFC_DLL@DV?$ChTraitsCRT@D@ATL@@@@@ATL@@PBDVCPaneBase@ETSLayoutMgr@@V34@@@QBEXAAPAU__POSITION@@AAV?$CStringT@DV?$StrTraitMFC_DLL@DV?$ChTraitsCRT@D@ATL@@@@@ATL@@AAVCPaneBase@ETSLayoutMgr@@@Z
_TEXT	SEGMENT PARA USE32 PUBLIC 'CODE'
_TEXT	ENDS
;	COMDAT ??1?$CMap@V?$CStringT@DV?$StrTraitMFC_DLL@DV?$ChTraitsCRT@D@ATL@@@@@ATL@@PBDVCPaneBase@ETSLayoutMgr@@V34@@@UAE@XZ
_TEXT	SEGMENT PARA USE32 PUBLIC 'CODE'
_TEXT	ENDS
;	COMDAT ?Serialize@?$CMap@V?$CStringT@DV?$StrTraitMFC_DLL@DV?$ChTraitsCRT@D@ATL@@@@@ATL@@PBDVCPaneBase@ETSLayoutMgr@@V34@@@UAEXAAVCArchive@@@Z
_TEXT	SEGMENT PARA USE32 PUBLIC 'CODE'
_TEXT	ENDS
;	COMDAT ?Dump@?$CMap@V?$CStringT@DV?$StrTraitMFC_DLL@DV?$ChTraitsCRT@D@ATL@@@@@ATL@@PBDVCPaneBase@ETSLayoutMgr@@V34@@@UBEXAAVCDumpContext@@@Z
_TEXT	SEGMENT PARA USE32 PUBLIC 'CODE'
_TEXT	ENDS
;	COMDAT ?AssertValid@?$CMap@V?$CStringT@DV?$StrTraitMFC_DLL@DV?$ChTraitsCRT@D@ATL@@@@@ATL@@PBDVCPaneBase@ETSLayoutMgr@@V34@@@UBEXXZ
_TEXT	SEGMENT PARA USE32 PUBLIC 'CODE'
_TEXT	ENDS
;	COMDAT ??0?$CArray@UElemPos@CMarkup@@AAU12@@@QAE@XZ
_TEXT	SEGMENT PARA USE32 PUBLIC 'CODE'
_TEXT	ENDS
;	COMDAT ??A?$CArray@UElemPos@CMarkup@@AAU12@@@QAEAAUElemPos@CMarkup@@H@Z
_TEXT	SEGMENT PARA USE32 PUBLIC 'CODE'
_TEXT	ENDS
;	COMDAT ??1?$CArray@UElemPos@CMarkup@@AAU12@@@UAE@XZ
_TEXT	SEGMENT PARA USE32 PUBLIC 'CODE'
_TEXT	ENDS
;	COMDAT ?Serialize@?$CArray@UElemPos@CMarkup@@AAU12@@@UAEXAAVCArchive@@@Z
_TEXT	SEGMENT PARA USE32 PUBLIC 'CODE'
_TEXT	ENDS
;	COMDAT ?Dump@?$CArray@UElemPos@CMarkup@@AAU12@@@UBEXAAVCDumpContext@@@Z
_TEXT	SEGMENT PARA USE32 PUBLIC 'CODE'
_TEXT	ENDS
;	COMDAT ?AssertValid@?$CArray@UElemPos@CMarkup@@AAU12@@@UBEXXZ
_TEXT	SEGMENT PARA USE32 PUBLIC 'CODE'
_TEXT	ENDS
;	COMDAT ??$_Maklocstr@D@std@@YAPADPBDPADABU_Cvtvec@@@Z
_TEXT	SEGMENT PARA USE32 PUBLIC 'CODE'
_TEXT	ENDS
;	COMDAT ??$_Allocate@U_Node@?$_Tree_nod@V?$_Tmap_traits@V?$CStringT@DV?$StrTraitMFC_DLL@DV?$ChTraitsCRT@D@ATL@@@@@ATL@@PAVCDibBitmap@@U?$less@V?$CStringT@DV?$StrTraitMFC_DLL@DV?$ChTraitsCRT@D@ATL@@@@@ATL@@@std@@V?$allocator@U?$pair@$$CBV?$CStringT@DV?$StrTraitMFC_DLL@DV?$ChTraitsCRT@D@ATL@@@@@ATL@@PAVCDibBitmap@@@std@@@5@$0A@@std@@@std@@@std@@YAPAU_Node@?$_Tree_nod@V?$_Tmap_traits@V?$CStringT@DV?$StrTraitMFC_DLL@DV?$ChTraitsCRT@D@ATL@@@@@ATL@@PAVCDibBitmap@@U?$less@V?$CStringT@DV?$StrTraitMFC_DLL@DV?$ChTraitsCRT@D@ATL@@@@@ATL@@@std@@V?$allocator@U?$pair@$$CBV?$CStringT@DV?$StrTraitMFC_DLL@DV?$ChTraitsCRT@D@ATL@@@@@ATL@@PAVCDibBitmap@@@std@@@5@$0A@@std@@@0@IPAU120@@Z
_TEXT	SEGMENT PARA USE32 PUBLIC 'CODE'
_TEXT	ENDS
;	COMDAT ??_G?$CArray@MM@@UAEPAXI@Z
_TEXT	SEGMENT PARA USE32 PUBLIC 'CODE'
_TEXT	ENDS
;	COMDAT ??_G?$CArray@VCPaneBase@ETSLayoutMgr@@V12@@@UAEPAXI@Z
_TEXT	SEGMENT PARA USE32 PUBLIC 'CODE'
_TEXT	ENDS
;	COMDAT ??_GCPaneBase@ETSLayoutMgr@@QAEPAXI@Z
_TEXT	SEGMENT PARA USE32 PUBLIC 'CODE'
_TEXT	ENDS
;	COMDAT ??_G?$CMap@V?$CStringT@DV?$StrTraitMFC_DLL@DV?$ChTraitsCRT@D@ATL@@@@@ATL@@PBDVCPaneBase@ETSLayoutMgr@@V34@@@UAEPAXI@Z
_TEXT	SEGMENT PARA USE32 PUBLIC 'CODE'
_TEXT	ENDS
;	COMDAT ??_G?$CArray@UElemPos@CMarkup@@AAU12@@@UAEPAXI@Z
_TEXT	SEGMENT PARA USE32 PUBLIC 'CODE'
_TEXT	ENDS
;	COMDAT ?SetSize@?$CArray@MM@@QAEXHH@Z
_TEXT	SEGMENT PARA USE32 PUBLIC 'CODE'
_TEXT	ENDS
;	COMDAT ??$SerializeElements@M@@YGXAAVCArchive@@PAMH@Z
_TEXT	SEGMENT PARA USE32 PUBLIC 'CODE'
_TEXT	ENDS
;	COMDAT ??$DumpElements@M@@YGXAAVCDumpContext@@PBMH@Z
_TEXT	SEGMENT PARA USE32 PUBLIC 'CODE'
_TEXT	ENDS
;	COMDAT ?SetSize@?$CArray@VCPaneBase@ETSLayoutMgr@@V12@@@QAEXHH@Z
_TEXT	SEGMENT PARA USE32 PUBLIC 'CODE'
_TEXT	ENDS
;	COMDAT ?ElementAt@?$CArray@VCPaneBase@ETSLayoutMgr@@V12@@@QAEAAVCPaneBase@ETSLayoutMgr@@H@Z
_TEXT	SEGMENT PARA USE32 PUBLIC 'CODE'
_TEXT	ENDS
;	COMDAT ??$SerializeElements@VCPaneBase@ETSLayoutMgr@@@@YGXAAVCArchive@@PAVCPaneBase@ETSLayoutMgr@@H@Z
_TEXT	SEGMENT PARA USE32 PUBLIC 'CODE'
_TEXT	ENDS
;	COMDAT ??$DumpElements@VCPaneBase@ETSLayoutMgr@@@@YGXAAVCDumpContext@@PBVCPaneBase@ETSLayoutMgr@@H@Z
_TEXT	SEGMENT PARA USE32 PUBLIC 'CODE'
_TEXT	ENDS
;	COMDAT ??A?$CMap@V?$CStringT@DV?$StrTraitMFC_DLL@DV?$ChTraitsCRT@D@ATL@@@@@ATL@@PBDVCPaneBase@ETSLayoutMgr@@V34@@@QAEAAVCPaneBase@ETSLayoutMgr@@PBD@Z
_TEXT	SEGMENT PARA USE32 PUBLIC 'CODE'
_TEXT	ENDS
;	COMDAT ?RemoveAll@?$CMap@V?$CStringT@DV?$StrTraitMFC_DLL@DV?$ChTraitsCRT@D@ATL@@@@@ATL@@PBDVCPaneBase@ETSLayoutMgr@@V34@@@QAEXXZ
_TEXT	SEGMENT PARA USE32 PUBLIC 'CODE'
_TEXT	ENDS
;	COMDAT ?GetAssocAt@?$CMap@V?$CStringT@DV?$StrTraitMFC_DLL@DV?$ChTraitsCRT@D@ATL@@@@@ATL@@PBDVCPaneBase@ETSLayoutMgr@@V34@@@IBEPAVCAssoc@1@PBDAAI1@Z
_TEXT	SEGMENT PARA USE32 PUBLIC 'CODE'
_TEXT	ENDS
;	COMDAT ??$DumpElements@V?$CStringT@DV?$StrTraitMFC_DLL@DV?$ChTraitsCRT@D@ATL@@@@@ATL@@@@YGXAAVCDumpContext@@PBV?$CStringT@DV?$StrTraitMFC_DLL@DV?$ChTraitsCRT@D@ATL@@@@@ATL@@H@Z
_TEXT	SEGMENT PARA USE32 PUBLIC 'CODE'
_TEXT	ENDS
;	COMDAT ?SetSize@?$CArray@UElemPos@CMarkup@@AAU12@@@QAEXHH@Z
_TEXT	SEGMENT PARA USE32 PUBLIC 'CODE'
_TEXT	ENDS
;	COMDAT ?ElementAt@?$CArray@UElemPos@CMarkup@@AAU12@@@QAEAAUElemPos@CMarkup@@H@Z
_TEXT	SEGMENT PARA USE32 PUBLIC 'CODE'
_TEXT	ENDS
;	COMDAT ??$SerializeElements@UElemPos@CMarkup@@@@YGXAAVCArchive@@PAUElemPos@CMarkup@@H@Z
_TEXT	SEGMENT PARA USE32 PUBLIC 'CODE'
_TEXT	ENDS
;	COMDAT ??$DumpElements@UElemPos@CMarkup@@@@YGXAAVCDumpContext@@PBUElemPos@CMarkup@@H@Z
_TEXT	SEGMENT PARA USE32 PUBLIC 'CODE'
_TEXT	ENDS
;	COMDAT ??1CAssoc@?$CMap@V?$CStringT@DV?$StrTraitMFC_DLL@DV?$ChTraitsCRT@D@ATL@@@@@ATL@@PBDVCPaneBase@ETSLayoutMgr@@V34@@@QAE@XZ
_TEXT	SEGMENT PARA USE32 PUBLIC 'CODE'
_TEXT	ENDS
;	COMDAT ??1CPair@?$CMap@V?$CStringT@DV?$StrTraitMFC_DLL@DV?$ChTraitsCRT@D@ATL@@@@@ATL@@PBDVCPaneBase@ETSLayoutMgr@@V34@@@QAE@XZ
_TEXT	SEGMENT PARA USE32 PUBLIC 'CODE'
_TEXT	ENDS
;	COMDAT ?InitHashTable@?$CMap@V?$CStringT@DV?$StrTraitMFC_DLL@DV?$ChTraitsCRT@D@ATL@@@@@ATL@@PBDVCPaneBase@ETSLayoutMgr@@V34@@@QAEXIH@Z
_TEXT	SEGMENT PARA USE32 PUBLIC 'CODE'
_TEXT	ENDS
;	COMDAT ?NewAssoc@?$CMap@V?$CStringT@DV?$StrTraitMFC_DLL@DV?$ChTraitsCRT@D@ATL@@@@@ATL@@PBDVCPaneBase@ETSLayoutMgr@@V34@@@IAEPAVCAssoc@1@PBD@Z
_TEXT	SEGMENT PARA USE32 PUBLIC 'CODE'
_TEXT	ENDS
;	COMDAT ??$CompareElements@V?$CStringT@DV?$StrTraitMFC_DLL@DV?$ChTraitsCRT@D@ATL@@@@@ATL@@PBD@@YGHPBV?$CStringT@DV?$StrTraitMFC_DLL@DV?$ChTraitsCRT@D@ATL@@@@@ATL@@PBQBD@Z
_TEXT	SEGMENT PARA USE32 PUBLIC 'CODE'
_TEXT	ENDS
;	COMDAT ??0CAssoc@?$CMap@V?$CStringT@DV?$StrTraitMFC_DLL@DV?$ChTraitsCRT@D@ATL@@@@@ATL@@PBDVCPaneBase@ETSLayoutMgr@@V34@@@QAE@PBD@Z
_TEXT	SEGMENT PARA USE32 PUBLIC 'CODE'
_TEXT	ENDS
;	COMDAT ??0CPair@?$CMap@V?$CStringT@DV?$StrTraitMFC_DLL@DV?$ChTraitsCRT@D@ATL@@@@@ATL@@PBDVCPaneBase@ETSLayoutMgr@@V34@@@IAE@PBD@Z
_TEXT	SEGMENT PARA USE32 PUBLIC 'CODE'
_TEXT	ENDS
;	COMDAT ??_R3CMarkupArchive@@8
rdata$r	SEGMENT DWORD USE32 PUBLIC 'CONST'
rdata$r	ENDS
;	COMDAT ??_R3?$CArray@UElemPos@CMarkup@@AAU12@@@8
rdata$r	SEGMENT DWORD USE32 PUBLIC 'CONST'
rdata$r	ENDS
;	COMDAT ??_R3ETSLayoutMgr@@8
rdata$r	SEGMENT DWORD USE32 PUBLIC 'CONST'
rdata$r	ENDS
;	COMDAT ??_R3?$CMap@V?$CStringT@DV?$StrTraitMFC_DLL@DV?$ChTraitsCRT@D@ATL@@@@@ATL@@PBDVCPaneBase@ETSLayoutMgr@@V34@@@8
rdata$r	SEGMENT DWORD USE32 PUBLIC 'CONST'
rdata$r	ENDS
;	COMDAT ??_R3?$numpunct@_W@std@@8
rdata$r	SEGMENT DWORD USE32 PUBLIC 'CONST'
rdata$r	ENDS
;	COMDAT ??_R3?$numpunct@D@std@@8
rdata$r	SEGMENT DWORD USE32 PUBLIC 'CONST'
rdata$r	ENDS
;	COMDAT ??_R3CMarkup@@8
rdata$r	SEGMENT DWORD USE32 PUBLIC 'CONST'
rdata$r	ENDS
;	COMDAT ??_R3?$CArray@VCPaneBase@ETSLayoutMgr@@V12@@@8
rdata$r	SEGMENT DWORD USE32 PUBLIC 'CONST'
rdata$r	ENDS
;	COMDAT ??_R3PaneSplitter@ETSLayoutMgr@@8
rdata$r	SEGMENT DWORD USE32 PUBLIC 'CONST'
rdata$r	ENDS
;	COMDAT ??_R3?$CArray@MM@@8
rdata$r	SEGMENT DWORD USE32 PUBLIC 'CONST'
rdata$r	ENDS
;	COMDAT ??_R3PanePosition@ETSLayoutMgr@@8
rdata$r	SEGMENT DWORD USE32 PUBLIC 'CONST'
rdata$r	ENDS
;	COMDAT ??_R3PaneBase@ETSLayoutMgr@@8
rdata$r	SEGMENT DWORD USE32 PUBLIC 'CONST'
rdata$r	ENDS
;	COMDAT ??_R2CMarkupArchive@@8
rdata$r	SEGMENT DWORD USE32 PUBLIC 'CONST'
rdata$r	ENDS
;	COMDAT ??_R2?$CArray@UElemPos@CMarkup@@AAU12@@@8
rdata$r	SEGMENT DWORD USE32 PUBLIC 'CONST'
rdata$r	ENDS
;	COMDAT ??_R2ETSLayoutMgr@@8
rdata$r	SEGMENT DWORD USE32 PUBLIC 'CONST'
rdata$r	ENDS
;	COMDAT ??_R2?$CMap@V?$CStringT@DV?$StrTraitMFC_DLL@DV?$ChTraitsCRT@D@ATL@@@@@ATL@@PBDVCPaneBase@ETSLayoutMgr@@V34@@@8
rdata$r	SEGMENT DWORD USE32 PUBLIC 'CONST'
rdata$r	ENDS
;	COMDAT ??_R2?$numpunct@_W@std@@8
rdata$r	SEGMENT DWORD USE32 PUBLIC 'CONST'
rdata$r	ENDS
;	COMDAT ??_R2?$numpunct@D@std@@8
rdata$r	SEGMENT DWORD USE32 PUBLIC 'CONST'
rdata$r	ENDS
;	COMDAT ??_R2CMarkup@@8
rdata$r	SEGMENT DWORD USE32 PUBLIC 'CONST'
rdata$r	ENDS
;	COMDAT ??_R2?$CArray@VCPaneBase@ETSLayoutMgr@@V12@@@8
rdata$r	SEGMENT DWORD USE32 PUBLIC 'CONST'
rdata$r	ENDS
;	COMDAT ??_R2PaneSplitter@ETSLayoutMgr@@8
rdata$r	SEGMENT DWORD USE32 PUBLIC 'CONST'
rdata$r	ENDS
;	COMDAT ??_R2?$CArray@MM@@8
rdata$r	SEGMENT DWORD USE32 PUBLIC 'CONST'
rdata$r	ENDS
;	COMDAT ??_R2PanePosition@ETSLayoutMgr@@8
rdata$r	SEGMENT DWORD USE32 PUBLIC 'CONST'
rdata$r	ENDS
;	COMDAT ??_R2PaneBase@ETSLayoutMgr@@8
rdata$r	SEGMENT DWORD USE32 PUBLIC 'CONST'
rdata$r	ENDS
;	COMDAT ??_R1A@?0A@A@CMarkupArchive@@8
rdata$r	SEGMENT DWORD USE32 PUBLIC 'CONST'
rdata$r	ENDS
;	COMDAT ??_R1A@?0A@A@?$CArray@UElemPos@CMarkup@@AAU12@@@8
rdata$r	SEGMENT DWORD USE32 PUBLIC 'CONST'
rdata$r	ENDS
;	COMDAT ??_R1A@?0A@A@ETSLayoutMgr@@8
rdata$r	SEGMENT DWORD USE32 PUBLIC 'CONST'
rdata$r	ENDS
;	COMDAT ??_R1A@?0A@A@?$CMap@V?$CStringT@DV?$StrTraitMFC_DLL@DV?$ChTraitsCRT@D@ATL@@@@@ATL@@PBDVCPaneBase@ETSLayoutMgr@@V34@@@8
rdata$r	SEGMENT DWORD USE32 PUBLIC 'CONST'
rdata$r	ENDS
;	COMDAT ??_R1A@?0A@A@?$numpunct@_W@std@@8
rdata$r	SEGMENT DWORD USE32 PUBLIC 'CONST'
rdata$r	ENDS
;	COMDAT ??_R1A@?0A@A@facet@locale@std@@8
rdata$r	SEGMENT DWORD USE32 PUBLIC 'CONST'
rdata$r	ENDS
;	COMDAT ??_R0?AVfacet@locale@std@@@8
_DATA	SEGMENT DWORD USE32 PUBLIC 'DATA'
_DATA	ENDS
;	COMDAT ??_R1A@?0A@A@?$numpunct@D@std@@8
rdata$r	SEGMENT DWORD USE32 PUBLIC 'CONST'
rdata$r	ENDS
;	COMDAT ??_R1A@?0A@A@CMarkup@@8
rdata$r	SEGMENT DWORD USE32 PUBLIC 'CONST'
rdata$r	ENDS
;	COMDAT ??_R1A@?0A@A@?$CArray@VCPaneBase@ETSLayoutMgr@@V12@@@8
rdata$r	SEGMENT DWORD USE32 PUBLIC 'CONST'
rdata$r	ENDS
;	COMDAT ??_R1A@?0A@A@PaneSplitter@ETSLayoutMgr@@8
rdata$r	SEGMENT DWORD USE32 PUBLIC 'CONST'
rdata$r	ENDS
;	COMDAT ??_R1A@?0A@A@CObject@@8
rdata$r	SEGMENT DWORD USE32 PUBLIC 'CONST'
rdata$r	ENDS
;	COMDAT ??_R0?AVCObject@@@8
_DATA	SEGMENT DWORD USE32 PUBLIC 'DATA'
_DATA	ENDS
;	COMDAT ??_R1A@?0A@A@?$CArray@MM@@8
rdata$r	SEGMENT DWORD USE32 PUBLIC 'CONST'
rdata$r	ENDS
;	COMDAT ??_R1A@?0A@A@Pane@ETSLayoutMgr@@8
rdata$r	SEGMENT DWORD USE32 PUBLIC 'CONST'
rdata$r	ENDS
;	COMDAT ??_R1A@?0A@A@PanePosition@ETSLayoutMgr@@8
rdata$r	SEGMENT DWORD USE32 PUBLIC 'CONST'
rdata$r	ENDS
;	COMDAT ??_R1A@?0A@A@PaneBase@ETSLayoutMgr@@8
rdata$r	SEGMENT DWORD USE32 PUBLIC 'CONST'
rdata$r	ENDS
;	COMDAT ??_R0?AVCMarkupArchive@@@8
_DATA	SEGMENT DWORD USE32 PUBLIC 'DATA'
_DATA	ENDS
;	COMDAT ??_R0?AV?$CArray@UElemPos@CMarkup@@AAU12@@@@8
_DATA	SEGMENT DWORD USE32 PUBLIC 'DATA'
_DATA	ENDS
;	COMDAT ??_R0?AVETSLayoutMgr@@@8
_DATA	SEGMENT DWORD USE32 PUBLIC 'DATA'
_DATA	ENDS
;	COMDAT ??_R0?AV?$CMap@V?$CStringT@DV?$StrTraitMFC_DLL@DV?$ChTraitsCRT@D@ATL@@@@@ATL@@PBDVCPaneBase@ETSLayoutMgr@@V34@@@@8
_DATA	SEGMENT DWORD USE32 PUBLIC 'DATA'
_DATA	ENDS
;	COMDAT ??_R0?AV?$numpunct@_W@std@@@8
_DATA	SEGMENT DWORD USE32 PUBLIC 'DATA'
_DATA	ENDS
;	COMDAT ??_R0?AV?$numpunct@D@std@@@8
_DATA	SEGMENT DWORD USE32 PUBLIC 'DATA'
_DATA	ENDS
;	COMDAT ??_R0?AVCMarkup@@@8
_DATA	SEGMENT DWORD USE32 PUBLIC 'DATA'
_DATA	ENDS
;	COMDAT ??_R0?AV?$CArray@VCPaneBase@ETSLayoutMgr@@V12@@@@8
_DATA	SEGMENT DWORD USE32 PUBLIC 'DATA'
_DATA	ENDS
;	COMDAT ??_R0?AVPaneSplitter@ETSLayoutMgr@@@8
_DATA	SEGMENT DWORD USE32 PUBLIC 'DATA'
_DATA	ENDS
;	COMDAT ??_R0?AV?$CArray@MM@@@8
_DATA	SEGMENT DWORD USE32 PUBLIC 'DATA'
_DATA	ENDS
;	COMDAT ??_R0?AVPane@ETSLayoutMgr@@@8
_DATA	SEGMENT DWORD USE32 PUBLIC 'DATA'
_DATA	ENDS
;	COMDAT ??_R0?AVPanePosition@ETSLayoutMgr@@@8
_DATA	SEGMENT DWORD USE32 PUBLIC 'DATA'
_DATA	ENDS
;	COMDAT ??_R0?AVPaneBase@ETSLayoutMgr@@@8
_DATA	SEGMENT DWORD USE32 PUBLIC 'DATA'
_DATA	ENDS
;	COMDAT ??_R4CMarkupArchive@@6B@
rdata$r	SEGMENT DWORD USE32 PUBLIC 'CONST'
rdata$r	ENDS
;	COMDAT ??_R4?$CArray@UElemPos@CMarkup@@AAU12@@@6B@
rdata$r	SEGMENT DWORD USE32 PUBLIC 'CONST'
rdata$r	ENDS
;	COMDAT ??_R4ETSLayoutMgr@@6B@
rdata$r	SEGMENT DWORD USE32 PUBLIC 'CONST'
rdata$r	ENDS
;	COMDAT ??_R4?$CMap@V?$CStringT@DV?$StrTraitMFC_DLL@DV?$ChTraitsCRT@D@ATL@@@@@ATL@@PBDVCPaneBase@ETSLayoutMgr@@V34@@@6B@
rdata$r	SEGMENT DWORD USE32 PUBLIC 'CONST'
rdata$r	ENDS
;	COMDAT ??0?$allocator@_W@std@@QAE@XZ
_TEXT	SEGMENT PARA USE32 PUBLIC 'CODE'
_TEXT	ENDS
;	COMDAT ??_G?$numpunct@_W@std@@MAEPAXI@Z
_TEXT	SEGMENT PARA USE32 PUBLIC 'CODE'
_TEXT	ENDS
;	COMDAT ??_R4?$numpunct@_W@std@@6B@
rdata$r	SEGMENT DWORD USE32 PUBLIC 'CONST'
rdata$r	ENDS
;	COMDAT ??_G?$numpunct@D@std@@MAEPAXI@Z
_TEXT	SEGMENT PARA USE32 PUBLIC 'CODE'
_TEXT	ENDS
;	COMDAT ??_R4?$numpunct@D@std@@6B@
rdata$r	SEGMENT DWORD USE32 PUBLIC 'CONST'
rdata$r	ENDS
;	COMDAT ??_R4CMarkup@@6B@
rdata$r	SEGMENT DWORD USE32 PUBLIC 'CONST'
rdata$r	ENDS
;	COMDAT ??_R4?$CArray@VCPaneBase@ETSLayoutMgr@@V12@@@6B@
rdata$r	SEGMENT DWORD USE32 PUBLIC 'CONST'
rdata$r	ENDS
;	COMDAT ??_R4PaneSplitter@ETSLayoutMgr@@6B@
rdata$r	SEGMENT DWORD USE32 PUBLIC 'CONST'
rdata$r	ENDS
;	COMDAT ??_R4?$CArray@MM@@6B@
rdata$r	SEGMENT DWORD USE32 PUBLIC 'CONST'
rdata$r	ENDS
;	COMDAT ??_R4PanePosition@ETSLayoutMgr@@6B@
rdata$r	SEGMENT DWORD USE32 PUBLIC 'CONST'
rdata$r	ENDS
;	COMDAT ??_R4PaneBase@ETSLayoutMgr@@6B@
rdata$r	SEGMENT DWORD USE32 PUBLIC 'CONST'
rdata$r	ENDS
;	COMDAT ?GetDefaultManager@?$StrTraitMFC_DLL@DV?$ChTraitsCRT@D@ATL@@@@SAPAUIAtlStringMgr@ATL@@XZ
_TEXT	SEGMENT PARA USE32 PUBLIC 'CODE'
_TEXT	ENDS
;	COMDAT ?FindStringResourceInstance@?$StrTraitMFC_DLL@DV?$ChTraitsCRT@D@ATL@@@@SAPAUHINSTANCE__@@I@Z
_TEXT	SEGMENT PARA USE32 PUBLIC 'CODE'
_TEXT	ENDS
;	COMDAT ?AtlGetStringResourceImage@ATL@@YAPBUATLSTRINGRESOURCEIMAGE@1@PAUHINSTANCE__@@I@Z
_TEXT	SEGMENT PARA USE32 PUBLIC 'CODE'
_TEXT	ENDS
;	COMDAT ?_AtlGetStringResourceImage@ATL@@YAPBUATLSTRINGRESOURCEIMAGE@1@PAUHINSTANCE__@@PAUHRSRC__@@I@Z
_TEXT	SEGMENT PARA USE32 PUBLIC 'CODE'
_TEXT	ENDS
;	COMDAT ?GetBaseTypeLength@?$ChTraitsCRT@D@ATL@@SAHPB_WH@Z
_TEXT	SEGMENT PARA USE32 PUBLIC 'CODE'
_TEXT	ENDS
;	COMDAT ?_AtlGetConversionACP@ATL@@YGIXZ
_TEXT	SEGMENT PARA USE32 PUBLIC 'CODE'
_TEXT	ENDS
;	COMDAT ?g_pfnGetThreadACP@ATL@@3P6GIXZA
_DATA	SEGMENT DWORD USE32 PUBLIC 'DATA'
_DATA	ENDS
;	COMDAT ?_AtlGetThreadACPThunk@ATL@@YGIXZ
_TEXT	SEGMENT PARA USE32 PUBLIC 'CODE'
_TEXT	ENDS
;	COMDAT ?_AtlGetThreadACPReal@ATL@@YGIXZ
_TEXT	SEGMENT PARA USE32 PUBLIC 'CODE'
_TEXT	ENDS
;	COMDAT ?_AtlGetThreadACPFake@ATL@@YGIXZ
_TEXT	SEGMENT PARA USE32 PUBLIC 'CODE'
_TEXT	ENDS
;	COMDAT ?InterlockedExchangePointer@@YGPAXPAPAXPAX@Z
_TEXT	SEGMENT PARA USE32 PUBLIC 'CODE'
_TEXT	ENDS
;	COMDAT ?ConvertToBaseType@?$ChTraitsCRT@D@ATL@@SAXPADHPB_WH@Z
_TEXT	SEGMENT PARA USE32 PUBLIC 'CODE'
_TEXT	ENDS
;	COMDAT ??RCTraceFileAndLineInfo@ATL@@QBAXKIPBDZZ
_TEXT	SEGMENT PARA USE32 PUBLIC 'CODE'
_TEXT	ENDS
;	COMDAT ?TraceV@CTrace@ATL@@QBAXPBDHKI0PAD@Z
_TEXT	SEGMENT PARA USE32 PUBLIC 'CODE'
_TEXT	ENDS
;	COMDAT ??_C@_0CJ@FJEKGMMD@Warning?3?5implicit?5LoadString?$CI?$CFu?$CJ@
CONST	SEGMENT DWORD USE32 PUBLIC 'CONST'
CONST	ENDS
;	COMDAT ??BCTraceCategory@ATL@@QBEKXZ
_TEXT	SEGMENT PARA USE32 PUBLIC 'CODE'
_TEXT	ENDS
;	COMDAT ?data@CPlex@@QAEPAXXZ
text$AFX_COL1	SEGMENT PARA USE32 PUBLIC ''
text$AFX_COL1	ENDS
;	COMDAT ??_C@_0EN@CBMLGOH@D?3?2Program?5Files?5?$CIx86?$CJ?2Microsoft@
CONST	SEGMENT DWORD USE32 PUBLIC 'CONST'
CONST	ENDS
;	COMDAT ??_7?$CArray@UElemPos@CMarkup@@AAU12@@@6B@
CONST	SEGMENT DWORD USE32 PUBLIC 'CONST'
CONST	ENDS
;	COMDAT ??_7?$CMap@V?$CStringT@DV?$StrTraitMFC_DLL@DV?$ChTraitsCRT@D@ATL@@@@@ATL@@PBDVCPaneBase@ETSLayoutMgr@@V34@@@6B@
CONST	SEGMENT DWORD USE32 PUBLIC 'CONST'
CONST	ENDS
;	COMDAT ??_7?$CArray@VCPaneBase@ETSLayoutMgr@@V12@@@6B@
CONST	SEGMENT DWORD USE32 PUBLIC 'CONST'
CONST	ENDS
;	COMDAT ??_7?$CArray@MM@@6B@
CONST	SEGMENT DWORD USE32 PUBLIC 'CONST'
CONST	ENDS
;	COMDAT ?_Psave@?$_Facetptr@V?$numpunct@_W@std@@@std@@2PBVfacet@locale@2@B
_DATA	SEGMENT DWORD USE32 PUBLIC 'DATA'
_DATA	ENDS
;	COMDAT ?_Psave@?$_Facetptr@V?$numpunct@D@std@@@std@@2PBVfacet@locale@2@B
_DATA	SEGMENT DWORD USE32 PUBLIC 'DATA'
_DATA	ENDS
;	COMDAT ?Unlock@CComCriticalSection@ATL@@QAEJXZ
_TEXT	SEGMENT PARA USE32 PUBLIC 'CODE'
_TEXT	ENDS
;	COMDAT ??_C@_0FG@LDNDNCJM@D?3?2Program?5Files?5?$CIx86?$CJ?2Microsoft@
CONST	SEGMENT DWORD USE32 PUBLIC 'CONST'
CONST	ENDS
;	COMDAT ??_C@_09HIEJFN@m_bLocked?$AA@
CONST	SEGMENT DWORD USE32 PUBLIC 'CONST'
CONST	ENDS
;	COMDAT ?_Psave@?$_Facetptr@V?$ctype@_W@std@@@std@@2PBVfacet@locale@2@B
_DATA	SEGMENT DWORD USE32 PUBLIC 'DATA'
_DATA	ENDS
;	COMDAT ?_Psave@?$_Facetptr@V?$ctype@D@std@@@std@@2PBVfacet@locale@2@B
_DATA	SEGMENT DWORD USE32 PUBLIC 'DATA'
_DATA	ENDS
;	COMDAT ??3@YAXPAX0@Z
_TEXT	SEGMENT PARA USE32 PUBLIC 'CODE'
_TEXT	ENDS
;	COMDAT ??2@YAPAXIPAX@Z
_TEXT	SEGMENT PARA USE32 PUBLIC 'CODE'
_TEXT	ENDS
;	COMDAT ??$_Maklocchr@_W@std@@YA_WDPA_WABU_Cvtvec@@@Z
_TEXT	SEGMENT PARA USE32 PUBLIC 'CODE'
_TEXT	ENDS
;	COMDAT ??$_DebugHeapDelete@X@std@@YAXPAX@Z
_TEXT	SEGMENT PARA USE32 PUBLIC 'CODE'
_TEXT	ENDS
;	COMDAT ??$_Maklocstr@_W@std@@YAPA_WPBDPA_WABU_Cvtvec@@@Z
_TEXT	SEGMENT PARA USE32 PUBLIC 'CODE'
_TEXT	ENDS
;	COMDAT ??$_Maklocchr@D@std@@YADDPADABU_Cvtvec@@@Z
_TEXT	SEGMENT PARA USE32 PUBLIC 'CODE'
_TEXT	ENDS
;	COMDAT ??_C@_04LOAJBDKD@true?$AA@
CONST	SEGMENT DWORD USE32 PUBLIC 'CONST'
CONST	ENDS
;	COMDAT ??_C@_05LAPONLG@false?$AA@
CONST	SEGMENT DWORD USE32 PUBLIC 'CONST'
CONST	ENDS
;	COMDAT _wmemcpy
_TEXT	SEGMENT PARA USE32 PUBLIC 'CODE'
_TEXT	ENDS
;	COMDAT ?max_size@?$allocator@_W@std@@QBEIXZ
_TEXT	SEGMENT PARA USE32 PUBLIC 'CODE'
_TEXT	ENDS
;	COMDAT ?allocate@?$allocator@_W@std@@QAEPA_WI@Z
_TEXT	SEGMENT PARA USE32 PUBLIC 'CODE'
_TEXT	ENDS
;	COMDAT ??$_Allocate@_W@std@@YAPA_WIPA_W@Z
_TEXT	SEGMENT PARA USE32 PUBLIC 'CODE'
_TEXT	ENDS
;	COMDAT ??_C@_0N@ILOMLJGA@nLength?5?$DO?$DN?50?$AA@
CONST	SEGMENT DWORD USE32 PUBLIC 'CONST'
CONST	ENDS
;	COMDAT ??_C@_0CD@EEFFJEGJ@nLength?5?$DM?$DN?5GetData?$CI?$CJ?9?$DOnAllocLeng@
CONST	SEGMENT DWORD USE32 PUBLIC 'CONST'
CONST	ENDS
;	COMDAT ?data@CStringData@ATL@@QAEPAXXZ
_TEXT	SEGMENT PARA USE32 PUBLIC 'CODE'
_TEXT	ENDS
;	COMDAT ?AtlThrow@ATL@@YGXJ@Z
_TEXT	SEGMENT PARA USE32 PUBLIC 'CODE'
_TEXT	ENDS
;	COMDAT ??_C@_0FI@NHHJANPC@D?3?2Program?5Files?5?$CIx86?$CJ?2Microsoft@
CONST	SEGMENT DWORD USE32 PUBLIC 'CONST'
CONST	ENDS
;	COMDAT ??_C@_0BF@IAAKIJDJ@AtlThrow?3?5hr?5?$DN?50x?$CFx?6?$AA@
CONST	SEGMENT DWORD USE32 PUBLIC 'CONST'
CONST	ENDS
;	COMDAT ??_C@_0FJ@DMHPDOJC@D?3?2Program?5Files?5?$CIx86?$CJ?2Microsoft@
CONST	SEGMENT DWORD USE32 PUBLIC 'CONST'
CONST	ENDS
;	COMDAT ??_C@_0BA@GOIMFHNK@pStringMgr?5?$CB?$DN?50?$AA@
CONST	SEGMENT DWORD USE32 PUBLIC 'CONST'
CONST	ENDS
;	COMDAT ??_7length_error@std@@6B@
CONST	SEGMENT DWORD USE32 PUBLIC 'CONST'
CONST	ENDS
;	COMDAT ??_R4length_error@std@@6B@
rdata$r	SEGMENT DWORD USE32 PUBLIC 'CONST'
rdata$r	ENDS
;	COMDAT ??_R3length_error@std@@8
rdata$r	SEGMENT DWORD USE32 PUBLIC 'CONST'
rdata$r	ENDS
;	COMDAT ??_R2length_error@std@@8
rdata$r	SEGMENT DWORD USE32 PUBLIC 'CONST'
rdata$r	ENDS
;	COMDAT ??_R1A@?0A@A@length_error@std@@8
rdata$r	SEGMENT DWORD USE32 PUBLIC 'CONST'
rdata$r	ENDS
;	COMDAT ??_R1A@?0A@A@logic_error@std@@8
rdata$r	SEGMENT DWORD USE32 PUBLIC 'CONST'
rdata$r	ENDS
;	COMDAT ??_R0?AVlogic_error@std@@@8
_DATA	SEGMENT DWORD USE32 PUBLIC 'DATA'
_DATA	ENDS
;	COMDAT ??_R1A@?0A@A@exception@@8
rdata$r	SEGMENT DWORD USE32 PUBLIC 'CONST'
rdata$r	ENDS
;	COMDAT ??_R0?AVexception@@@8
_DATA	SEGMENT DWORD USE32 PUBLIC 'DATA'
_DATA	ENDS
;	COMDAT ??_Glength_error@std@@UAEPAXI@Z
_TEXT	SEGMENT PARA USE32 PUBLIC 'CODE'
_TEXT	ENDS
;	COMDAT ?what@logic_error@std@@UBEPBDXZ
_TEXT	SEGMENT PARA USE32 PUBLIC 'CODE'
_TEXT	ENDS
;	COMDAT ??1logic_error@std@@UAE@XZ
_TEXT	SEGMENT PARA USE32 PUBLIC 'CODE'
_TEXT	ENDS
;	COMDAT ??_7logic_error@std@@6B@
CONST	SEGMENT DWORD USE32 PUBLIC 'CONST'
CONST	ENDS
;	COMDAT ??_R4logic_error@std@@6B@
rdata$r	SEGMENT DWORD USE32 PUBLIC 'CONST'
rdata$r	ENDS
;	COMDAT ??_R3logic_error@std@@8
rdata$r	SEGMENT DWORD USE32 PUBLIC 'CONST'
rdata$r	ENDS
;	COMDAT ??_R2logic_error@std@@8
rdata$r	SEGMENT DWORD USE32 PUBLIC 'CONST'
rdata$r	ENDS
;	COMDAT ??_Glogic_error@std@@UAEPAXI@Z
_TEXT	SEGMENT PARA USE32 PUBLIC 'CODE'
_TEXT	ENDS
;	COMDAT ??0logic_error@std@@QAE@ABV01@@Z
_TEXT	SEGMENT PARA USE32 PUBLIC 'CODE'
_TEXT	ENDS
;	COMDAT ??0?$allocator@D@std@@QAE@ABV01@@Z
_TEXT	SEGMENT PARA USE32 PUBLIC 'CODE'
_TEXT	ENDS
;	COMDAT ?deallocate@?$allocator@D@std@@QAEXPADI@Z
_TEXT	SEGMENT PARA USE32 PUBLIC 'CODE'
_TEXT	ENDS
;	COMDAT ?max_size@?$allocator@D@std@@QBEIXZ
_TEXT	SEGMENT PARA USE32 PUBLIC 'CODE'
_TEXT	ENDS
;	COMDAT ?allocate@?$allocator@D@std@@QAEPADI@Z
_TEXT	SEGMENT PARA USE32 PUBLIC 'CODE'
_TEXT	ENDS
;	COMDAT ??$_Allocate@D@std@@YAPADIPAD@Z
_TEXT	SEGMENT PARA USE32 PUBLIC 'CODE'
_TEXT	ENDS
;	COMDAT __CTA3?AVlength_error@std@@
xdata$x	SEGMENT DWORD USE32 PUBLIC 'CONST'
xdata$x	ENDS
;	COMDAT ??1length_error@std@@UAE@XZ
_TEXT	SEGMENT PARA USE32 PUBLIC 'CODE'
_TEXT	ENDS
;	COMDAT __CT??_R0?AVexception@@@8??0exception@@QAE@ABV0@@Z12
xdata$x	SEGMENT DWORD USE32 PUBLIC 'CONST'
xdata$x	ENDS
;	COMDAT __CT??_R0?AVlogic_error@std@@@8??0logic_error@std@@QAE@ABV01@@Z40
xdata$x	SEGMENT DWORD USE32 PUBLIC 'CONST'
xdata$x	ENDS
;	COMDAT __CT??_R0?AVlength_error@std@@@8??0length_error@std@@QAE@ABV01@@Z40
xdata$x	SEGMENT DWORD USE32 PUBLIC 'CONST'
xdata$x	ENDS
;	COMDAT ??_R0?AVlength_error@std@@@8
_DATA	SEGMENT DWORD USE32 PUBLIC 'DATA'
_DATA	ENDS
;	COMDAT __TI3?AVlength_error@std@@
xdata$x	SEGMENT DWORD USE32 PUBLIC 'CONST'
xdata$x	ENDS
;	COMDAT ??0?$allocator@D@std@@QAE@XZ
_TEXT	SEGMENT PARA USE32 PUBLIC 'CODE'
_TEXT	ENDS
;	COMDAT ??0length_error@std@@QAE@ABV?$basic_string@DU?$char_traits@D@std@@V?$allocator@D@2@@1@@Z
_TEXT	SEGMENT PARA USE32 PUBLIC 'CODE'
_TEXT	ENDS
;	COMDAT ??0logic_error@std@@QAE@ABV?$basic_string@DU?$char_traits@D@std@@V?$allocator@D@2@@1@@Z
_TEXT	SEGMENT PARA USE32 PUBLIC 'CODE'
_TEXT	ENDS
;	COMDAT ??_C@_01GFHCPBMG@C?$AA@
CONST	SEGMENT DWORD USE32 PUBLIC 'CONST'
CONST	ENDS
;	COMDAT ??_C@_0FH@KDPNIMBO@D?3?2Program?5Files?5?$CIx86?$CJ?2Microsoft@
CONST	SEGMENT DWORD USE32 PUBLIC 'CONST'
CONST	ENDS
;	COMDAT ?AtlIsValidString@ATL@@YAHPBDI@Z
_TEXT	SEGMENT PARA USE32 PUBLIC 'CODE'
_TEXT	ENDS
;	COMDAT ?Release@CStringData@ATL@@QAEXXZ
_TEXT	SEGMENT PARA USE32 PUBLIC 'CODE'
_TEXT	ENDS
;	COMDAT ??_C@_0L@OIIMFBNE@nRefs?5?$CB?$DN?50?$AA@
CONST	SEGMENT DWORD USE32 PUBLIC 'CONST'
CONST	ENDS
;	COMDAT ??_C@_0BA@GNIEOBOF@nNewLength?5?$DO?$DN?50?$AA@
CONST	SEGMENT DWORD USE32 PUBLIC 'CONST'
CONST	ENDS
;	COMDAT ?IsShared@CStringData@ATL@@QBE_NXZ
_TEXT	SEGMENT PARA USE32 PUBLIC 'CODE'
_TEXT	ENDS
;	COMDAT ??_C@_0CB@GFHAPKDK@pOldData?9?$DOnAllocLength?5?$DM?5nLength@
CONST	SEGMENT DWORD USE32 PUBLIC 'CONST'
CONST	ENDS
;	COMDAT ?_Peek@?$istreambuf_iterator@_WU?$char_traits@_W@std@@@std@@AAE_WXZ
_TEXT	SEGMENT PARA USE32 PUBLIC 'CODE'
_TEXT	ENDS
;	COMDAT ?_Peek@?$istreambuf_iterator@DU?$char_traits@D@std@@@std@@AAEDXZ
_TEXT	SEGMENT PARA USE32 PUBLIC 'CODE'
_TEXT	ENDS
;	COMDAT ??$use_facet@V?$ctype@_W@std@@@std@@YAABV?$ctype@_W@0@ABVlocale@0@@Z
_TEXT	SEGMENT PARA USE32 PUBLIC 'CODE'
_TEXT	ENDS
;	COMDAT ??_S?$ctype@_W@std@@6B@
CONST	SEGMENT DWORD USE32 PUBLIC 'CONST'
CONST	ENDS
;	COMDAT ??_R4?$ctype@_W@std@@6B@
rdata$r	SEGMENT DWORD USE32 PUBLIC 'CONST'
rdata$r	ENDS
;	COMDAT ??_R0?AV?$ctype@_W@std@@@8
_DATA	SEGMENT DWORD USE32 PUBLIC 'DATA'
_DATA	ENDS
;	COMDAT ??_R3?$ctype@_W@std@@8
rdata$r	SEGMENT DWORD USE32 PUBLIC 'CONST'
rdata$r	ENDS
;	COMDAT ??_R2?$ctype@_W@std@@8
rdata$r	SEGMENT DWORD USE32 PUBLIC 'CONST'
rdata$r	ENDS
;	COMDAT ??_R1A@?0A@A@?$ctype@_W@std@@8
rdata$r	SEGMENT DWORD USE32 PUBLIC 'CONST'
rdata$r	ENDS
;	COMDAT ??_R1A@?0A@A@ctype_base@std@@8
rdata$r	SEGMENT DWORD USE32 PUBLIC 'CONST'
rdata$r	ENDS
;	COMDAT ??_R0?AUctype_base@std@@@8
_DATA	SEGMENT DWORD USE32 PUBLIC 'DATA'
_DATA	ENDS
;	COMDAT ??_G?$ctype@_W@std@@MAEPAXI@Z
_TEXT	SEGMENT PARA USE32 PUBLIC 'CODE'
_TEXT	ENDS
;	COMDAT ??_C@_08EPJLHIJG@bad?5cast?$AA@
CONST	SEGMENT DWORD USE32 PUBLIC 'CONST'
CONST	ENDS
;	COMDAT __TI2?AVbad_cast@@
xdata$x	SEGMENT DWORD USE32 PUBLIC 'CONST'
xdata$x	ENDS
;	COMDAT __CTA2?AVbad_cast@@
xdata$x	SEGMENT DWORD USE32 PUBLIC 'CONST'
xdata$x	ENDS
;	COMDAT __CT??_R0?AVbad_cast@@@8??0bad_cast@@QAE@ABV0@@Z12
xdata$x	SEGMENT DWORD USE32 PUBLIC 'CONST'
xdata$x	ENDS
;	COMDAT ??_R0?AVbad_cast@@@8
_DATA	SEGMENT DWORD USE32 PUBLIC 'DATA'
_DATA	ENDS
;	COMDAT ??$_DebugHeapDelete@Vfacet@locale@std@@@std@@YAXPAVfacet@locale@0@@Z
_TEXT	SEGMENT PARA USE32 PUBLIC 'CODE'
_TEXT	ENDS
;	COMDAT ??$use_facet@V?$ctype@D@std@@@std@@YAABV?$ctype@D@0@ABVlocale@0@@Z
_TEXT	SEGMENT PARA USE32 PUBLIC 'CODE'
_TEXT	ENDS
;	COMDAT ??_S?$ctype@D@std@@6B@
CONST	SEGMENT DWORD USE32 PUBLIC 'CONST'
CONST	ENDS
;	COMDAT ??_R4?$ctype@D@std@@6B@
rdata$r	SEGMENT DWORD USE32 PUBLIC 'CONST'
rdata$r	ENDS
;	COMDAT ??_R0?AV?$ctype@D@std@@@8
_DATA	SEGMENT DWORD USE32 PUBLIC 'DATA'
_DATA	ENDS
;	COMDAT ??_R3?$ctype@D@std@@8
rdata$r	SEGMENT DWORD USE32 PUBLIC 'CONST'
rdata$r	ENDS
;	COMDAT ??_R2?$ctype@D@std@@8
rdata$r	SEGMENT DWORD USE32 PUBLIC 'CONST'
rdata$r	ENDS
;	COMDAT ??_R1A@?0A@A@?$ctype@D@std@@8
rdata$r	SEGMENT DWORD USE32 PUBLIC 'CONST'
rdata$r	ENDS
;	COMDAT ??_G?$ctype@D@std@@MAEPAXI@Z
_TEXT	SEGMENT PARA USE32 PUBLIC 'CODE'
_TEXT	ENDS
;	COMDAT ??_S?$numpunct@_W@std@@6B@
CONST	SEGMENT DWORD USE32 PUBLIC 'CONST'
CONST	ENDS
;	COMDAT ??_S?$numpunct@D@std@@6B@
CONST	SEGMENT DWORD USE32 PUBLIC 'CONST'
CONST	ENDS
;	COMDAT _wmemmove
_TEXT	SEGMENT PARA USE32 PUBLIC 'CODE'
_TEXT	ENDS
;	COMDAT ?deallocate@?$allocator@_W@std@@QAEXPA_WI@Z
_TEXT	SEGMENT PARA USE32 PUBLIC 'CODE'
_TEXT	ENDS
;	COMDAT ??0?$allocator@_W@std@@QAE@ABV01@@Z
_TEXT	SEGMENT PARA USE32 PUBLIC 'CODE'
_TEXT	ENDS
;	COMDAT ??1CMemDC@@UAE@XZ
_TEXT	SEGMENT PARA USE32 PUBLIC 'CODE'
_TEXT	ENDS
;	COMDAT ??_7CMemDC@@6B@
CONST	SEGMENT DWORD USE32 PUBLIC 'CONST'
CONST	ENDS
;	COMDAT ??_R4CMemDC@@6B@
rdata$r	SEGMENT DWORD USE32 PUBLIC 'CONST'
rdata$r	ENDS
;	COMDAT ??_R0?AVCMemDC@@@8
_DATA	SEGMENT DWORD USE32 PUBLIC 'DATA'
_DATA	ENDS
;	COMDAT ??_R3CMemDC@@8
rdata$r	SEGMENT DWORD USE32 PUBLIC 'CONST'
rdata$r	ENDS
;	COMDAT ??_R2CMemDC@@8
rdata$r	SEGMENT DWORD USE32 PUBLIC 'CONST'
rdata$r	ENDS
;	COMDAT ??_R1A@?0A@A@CMemDC@@8
rdata$r	SEGMENT DWORD USE32 PUBLIC 'CONST'
rdata$r	ENDS
;	COMDAT ??_R1A@?0A@A@CDC@@8
rdata$r	SEGMENT DWORD USE32 PUBLIC 'CONST'
rdata$r	ENDS
;	COMDAT ??_R0?AVCDC@@@8
_DATA	SEGMENT DWORD USE32 PUBLIC 'DATA'
_DATA	ENDS
;	COMDAT ??_GCMemDC@@UAEPAXI@Z
_TEXT	SEGMENT PARA USE32 PUBLIC 'CODE'
_TEXT	ENDS
;	COMDAT ??0CMemDC@@QAE@PAVCDC@@ABVCRect@@@Z
_TEXT	SEGMENT PARA USE32 PUBLIC 'CODE'
_TEXT	ENDS
;	COMDAT ??_7PanePosition@ETSLayoutMgr@@6B@
CONST	SEGMENT DWORD USE32 PUBLIC 'CONST'
CONST	ENDS
;	COMDAT ??0CTraceFileAndLineInfo@ATL@@QAE@PBDH@Z
_TEXT	SEGMENT PARA USE32 PUBLIC 'CODE'
_TEXT	ENDS
;	COMDAT ??RCTraceFileAndLineInfo@ATL@@QBAXPBDZZ
_TEXT	SEGMENT PARA USE32 PUBLIC 'CODE'
_TEXT	ENDS
;	COMDAT ??_7PaneSplitter@ETSLayoutMgr@@6B@
CONST	SEGMENT DWORD USE32 PUBLIC 'CONST'
CONST	ENDS
;	COMDAT ??_7CMarkupArchive@@6B@
CONST	SEGMENT DWORD USE32 PUBLIC 'CONST'
CONST	ENDS
;	COMDAT __tcschr
_TEXT	SEGMENT PARA USE32 PUBLIC 'CODE'
_TEXT	ENDS
;	COMDAT __tcsnccmp
_TEXT	SEGMENT PARA USE32 PUBLIC 'CODE'
_TEXT	ENDS
;	COMDAT ??_7CMarkup@@6B@
CONST	SEGMENT DWORD USE32 PUBLIC 'CONST'
CONST	ENDS
;	COMDAT ??_7ETSLayoutMgr@@6B@
CONST	SEGMENT DWORD USE32 PUBLIC 'CONST'
CONST	ENDS
;	COMDAT ?IsLocked@CStringData@ATL@@QBE_NXZ
_TEXT	SEGMENT PARA USE32 PUBLIC 'CODE'
_TEXT	ENDS
;	COMDAT ?AddRef@CStringData@ATL@@QAEXXZ
_TEXT	SEGMENT PARA USE32 PUBLIC 'CODE'
_TEXT	ENDS
;	COMDAT ??_C@_09EEBKLCFA@nRefs?5?$DO?50?$AA@
CONST	SEGMENT DWORD USE32 PUBLIC 'CONST'
CONST	ENDS
;	COMDAT ??_7PaneBase@ETSLayoutMgr@@6B@
CONST	SEGMENT DWORD USE32 PUBLIC 'CONST'
CONST	ENDS
sxdata	SEGMENT DWORD USE32 'SXDATA'
sxdata	ENDS
FLAT	GROUP _DATA, CONST, _BSS
	ASSUME	CS: FLAT, DS: FLAT, SS: FLAT
endif

INCLUDELIB MSVCRTD
INCLUDELIB OLDNAMES

PUBLIC	?g_pfnGetThreadACP@ATL@@3P6GIXZA		; ATL::g_pfnGetThreadACP
PUBLIC	?_AtlGetThreadACPThunk@ATL@@YGIXZ		; ATL::_AtlGetThreadACPThunk
CONST	SEGMENT
$SG190473 DB	'.\src\LayoutMgr\ETSLayoutEx.cpp', 00H
$SG190537 DB	'.\src\LayoutMgr\ETSLayoutEx.cpp', 00H
$SG190538 DB	'fff%d', 0aH, 00H
	ORG $+1
$SG190599 DB	'.\src\LayoutMgr\ETSLayoutEx.cpp', 00H
$SG190624 DB	'.\src\LayoutMgr\ETSLayoutEx.cpp', 00H
$SG190661 DB	'.\src\LayoutMgr\ETSLayoutEx.cpp', 00H
$SG190742 DB	'.\src\LayoutMgr\ETSLayoutEx.cpp', 00H
$SG190790 DB	'SearchResult', 00H
	ORG $+3
$SG190848 DB	'.\src\LayoutMgr\ETSLayoutEx.cpp', 00H
$SG191377 DB	'D:\Program Files (x86)\Microsoft Visual Studio .NET 2003'
	DB	'\Vc7\atlmfc\include\afxtempl.h', 00H
	ORG $+1
$SG191391 DB	'D:\Program Files (x86)\Microsoft Visual Studio .NET 2003'
	DB	'\Vc7\atlmfc\include\afxtempl.h', 00H
	ORG $+1
$SG191407 DB	'with ', 00H
	ORG $+2
$SG191408 DB	' elements', 00H
	ORG $+2
$SG191410 DB	0aH, 00H
	ORG $+2
$SG191417 DB	0aH, 00H
	ORG $+6
$SG191425 DB	'D:\Program Files (x86)\Microsoft Visual Studio .NET 2003'
	DB	'\Vc7\atlmfc\include\afxtempl.h', 00H
	ORG $+1
$SG191427 DB	'D:\Program Files (x86)\Microsoft Visual Studio .NET 2003'
	DB	'\Vc7\atlmfc\include\afxtempl.h', 00H
	ORG $+1
$SG191430 DB	'D:\Program Files (x86)\Microsoft Visual Studio .NET 2003'
	DB	'\Vc7\atlmfc\include\afxtempl.h', 00H
	ORG $+1
$SG191432 DB	'D:\Program Files (x86)\Microsoft Visual Studio .NET 2003'
	DB	'\Vc7\atlmfc\include\afxtempl.h', 00H
	ORG $+1
$SG191434 DB	'D:\Program Files (x86)\Microsoft Visual Studio .NET 2003'
	DB	'\Vc7\atlmfc\include\afxtempl.h', 00H
	ORG $+1
$SG191437 DB	'D:\Program Files (x86)\Microsoft Visual Studio .NET 2003'
	DB	'\Vc7\atlmfc\include\afxtempl.h', 00H
	ORG $+1
$SG191459 DB	'D:\Program Files (x86)\Microsoft Visual Studio .NET 2003'
	DB	'\Vc7\atlmfc\include\afxtempl.h', 00H
	ORG $+1
$SG191473 DB	'D:\Program Files (x86)\Microsoft Visual Studio .NET 2003'
	DB	'\Vc7\atlmfc\include\afxtempl.h', 00H
	ORG $+1
$SG191489 DB	'with ', 00H
	ORG $+2
$SG191490 DB	' elements', 00H
	ORG $+2
$SG191492 DB	0aH, 00H
	ORG $+2
$SG191499 DB	0aH, 00H
	ORG $+6
$SG191507 DB	'D:\Program Files (x86)\Microsoft Visual Studio .NET 2003'
	DB	'\Vc7\atlmfc\include\afxtempl.h', 00H
	ORG $+1
$SG191509 DB	'D:\Program Files (x86)\Microsoft Visual Studio .NET 2003'
	DB	'\Vc7\atlmfc\include\afxtempl.h', 00H
	ORG $+1
$SG191512 DB	'D:\Program Files (x86)\Microsoft Visual Studio .NET 2003'
	DB	'\Vc7\atlmfc\include\afxtempl.h', 00H
	ORG $+1
$SG191514 DB	'D:\Program Files (x86)\Microsoft Visual Studio .NET 2003'
	DB	'\Vc7\atlmfc\include\afxtempl.h', 00H
	ORG $+1
$SG191516 DB	'D:\Program Files (x86)\Microsoft Visual Studio .NET 2003'
	DB	'\Vc7\atlmfc\include\afxtempl.h', 00H
	ORG $+1
$SG191519 DB	'D:\Program Files (x86)\Microsoft Visual Studio .NET 2003'
	DB	'\Vc7\atlmfc\include\afxtempl.h', 00H
	ORG $+1
$SG191529 DB	'D:\Program Files (x86)\Microsoft Visual Studio .NET 2003'
	DB	'\Vc7\atlmfc\include\afxtempl.h', 00H
	ORG $+1
$SG191583 DB	'D:\Program Files (x86)\Microsoft Visual Studio .NET 2003'
	DB	'\Vc7\atlmfc\include\afxtempl.h', 00H
	ORG $+1
$SG191585 DB	'D:\Program Files (x86)\Microsoft Visual Studio .NET 2003'
	DB	'\Vc7\atlmfc\include\afxtempl.h', 00H
	ORG $+1
$SG191589 DB	'D:\Program Files (x86)\Microsoft Visual Studio .NET 2003'
	DB	'\Vc7\atlmfc\include\afxtempl.h', 00H
	ORG $+1
$SG191599 DB	'D:\Program Files (x86)\Microsoft Visual Studio .NET 2003'
	DB	'\Vc7\atlmfc\include\afxtempl.h', 00H
	ORG $+1
$SG191602 DB	'D:\Program Files (x86)\Microsoft Visual Studio .NET 2003'
	DB	'\Vc7\atlmfc\include\afxtempl.h', 00H
	ORG $+1
$SG191619 DB	'D:\Program Files (x86)\Microsoft Visual Studio .NET 2003'
	DB	'\Vc7\atlmfc\include\afxtempl.h', 00H
	ORG $+1
$SG191628 DB	'D:\Program Files (x86)\Microsoft Visual Studio .NET 2003'
	DB	'\Vc7\atlmfc\include\afxtempl.h', 00H
	ORG $+1
$SG191632 DB	'D:\Program Files (x86)\Microsoft Visual Studio .NET 2003'
	DB	'\Vc7\atlmfc\include\afxtempl.h', 00H
	ORG $+1
$SG191672 DB	'with ', 00H
	ORG $+2
$SG191673 DB	' elements', 00H
	ORG $+2
$SG191687 DB	0aH, 09H, '[', 00H
$SG191694 DB	'] = ', 00H
	ORG $+3
$SG191695 DB	0aH, 00H
	ORG $+6
$SG191704 DB	'D:\Program Files (x86)\Microsoft Visual Studio .NET 2003'
	DB	'\Vc7\atlmfc\include\afxtempl.h', 00H
	ORG $+1
$SG191706 DB	'D:\Program Files (x86)\Microsoft Visual Studio .NET 2003'
	DB	'\Vc7\atlmfc\include\afxtempl.h', 00H
	ORG $+1
$SG191723 DB	'D:\Program Files (x86)\Microsoft Visual Studio .NET 2003'
	DB	'\Vc7\atlmfc\include\afxtempl.h', 00H
	ORG $+1
$SG191737 DB	'D:\Program Files (x86)\Microsoft Visual Studio .NET 2003'
	DB	'\Vc7\atlmfc\include\afxtempl.h', 00H
	ORG $+1
$SG191753 DB	'with ', 00H
	ORG $+2
$SG191754 DB	' elements', 00H
	ORG $+2
$SG191756 DB	0aH, 00H
	ORG $+2
$SG191763 DB	0aH, 00H
	ORG $+6
$SG191771 DB	'D:\Program Files (x86)\Microsoft Visual Studio .NET 2003'
	DB	'\Vc7\atlmfc\include\afxtempl.h', 00H
	ORG $+1
$SG191773 DB	'D:\Program Files (x86)\Microsoft Visual Studio .NET 2003'
	DB	'\Vc7\atlmfc\include\afxtempl.h', 00H
	ORG $+1
$SG191776 DB	'D:\Program Files (x86)\Microsoft Visual Studio .NET 2003'
	DB	'\Vc7\atlmfc\include\afxtempl.h', 00H
	ORG $+1
$SG191778 DB	'D:\Program Files (x86)\Microsoft Visual Studio .NET 2003'
	DB	'\Vc7\atlmfc\include\afxtempl.h', 00H
	ORG $+1
$SG191780 DB	'D:\Program Files (x86)\Microsoft Visual Studio .NET 2003'
	DB	'\Vc7\atlmfc\include\afxtempl.h', 00H
	ORG $+1
$SG191783 DB	'D:\Program Files (x86)\Microsoft Visual Studio .NET 2003'
	DB	'\Vc7\atlmfc\include\afxtempl.h', 00H
	ORG $+1
$SG191825 DB	'D:\Program Files (x86)\Microsoft Visual Studio .NET 2003'
	DB	'\Vc7\atlmfc\include\afxtempl.h', 00H
	ORG $+1
$SG191827 DB	'D:\Program Files (x86)\Microsoft Visual Studio .NET 2003'
	DB	'\Vc7\atlmfc\include\afxtempl.h', 00H
	ORG $+1
$SG191842 DB	'D:\Program Files (x86)\Microsoft Visual Studio .NET 2003'
	DB	'\Vc7\atlmfc\include\afxtempl.h', 00H
	ORG $+1
$SG191849 DB	'D:\Program Files (x86)\Microsoft Visual Studio .NET 2003'
	DB	'\Vc7\atlmfc\include\afxtempl.h', 00H
	ORG $+1
$SG191885 DB	'D:\Program Files (x86)\Microsoft Visual Studio .NET 2003'
	DB	'\Vc7\atlmfc\include\afxtempl.h', 00H
	ORG $+1
$SG191889 DB	'D:\Program Files (x86)\Microsoft Visual Studio .NET 2003'
	DB	'\Vc7\atlmfc\include\afxtempl.h', 00H
	ORG $+1
$SG191899 DB	'D:\Program Files (x86)\Microsoft Visual Studio .NET 2003'
	DB	'\Vc7\atlmfc\include\afxtempl.h', 00H
	ORG $+1
$SG191916 DB	'D:\Program Files (x86)\Microsoft Visual Studio .NET 2003'
	DB	'\Vc7\atlmfc\include\afxtempl.h', 00H
	ORG $+1
$SG191941 DB	'D:\Program Files (x86)\Microsoft Visual Studio .NET 2003'
	DB	'\Vc7\atlmfc\include\afxtempl.h', 00H
	ORG $+1
$SG191949 DB	'D:\Program Files (x86)\Microsoft Visual Studio .NET 2003'
	DB	'\Vc7\atlmfc\include\afxtempl.h', 00H
	ORG $+1
$SG191951 DB	'D:\Program Files (x86)\Microsoft Visual Studio .NET 2003'
	DB	'\Vc7\atlmfc\include\afxtempl.h', 00H
	ORG $+1
$SG191966 DB	'D:\Program Files (x86)\Microsoft Visual Studio .NET 2003'
	DB	'\Vc7\atlmfc\include\afxtempl.h', 00H
	ORG $+1
$SG191973 DB	'D:\Program Files (x86)\Microsoft Visual Studio .NET 2003'
	DB	'\Vc7\atlmfc\include\afxtempl.h', 00H
	ORG $+1
$SG192015 DB	'D:\Program Files (x86)\Microsoft Visual Studio .NET 2003'
	DB	'\Vc7\atlmfc\include\afxtempl.h', 00H
	ORG $+1
$SG192019 DB	'D:\Program Files (x86)\Microsoft Visual Studio .NET 2003'
	DB	'\Vc7\atlmfc\include\afxtempl.h', 00H
	ORG $+1
$SG192029 DB	'D:\Program Files (x86)\Microsoft Visual Studio .NET 2003'
	DB	'\Vc7\atlmfc\include\afxtempl.h', 00H
	ORG $+1
$SG192058 DB	'D:\Program Files (x86)\Microsoft Visual Studio .NET 2003'
	DB	'\Vc7\atlmfc\include\afxtempl.h', 00H
	ORG $+1
$SG192083 DB	'D:\Program Files (x86)\Microsoft Visual Studio .NET 2003'
	DB	'\Vc7\atlmfc\include\afxtempl.h', 00H
	ORG $+1
$SG192092 DB	'D:\Program Files (x86)\Microsoft Visual Studio .NET 2003'
	DB	'\Vc7\atlmfc\include\afxtempl.h', 00H
	ORG $+1
$SG192105 DB	'D:\Program Files (x86)\Microsoft Visual Studio .NET 2003'
	DB	'\Vc7\atlmfc\include\afxtempl.h', 00H
	ORG $+1
$SG192142 DB	'D:\Program Files (x86)\Microsoft Visual Studio .NET 2003'
	DB	'\Vc7\atlmfc\include\afxtempl.h', 00H
	ORG $+1
$SG192150 DB	'D:\Program Files (x86)\Microsoft Visual Studio .NET 2003'
	DB	'\Vc7\atlmfc\include\afxtempl.h', 00H
	ORG $+1
$SG192152 DB	'D:\Program Files (x86)\Microsoft Visual Studio .NET 2003'
	DB	'\Vc7\atlmfc\include\afxtempl.h', 00H
	ORG $+1
$SG192167 DB	'D:\Program Files (x86)\Microsoft Visual Studio .NET 2003'
	DB	'\Vc7\atlmfc\include\afxtempl.h', 00H
	ORG $+1
$SG192174 DB	'D:\Program Files (x86)\Microsoft Visual Studio .NET 2003'
	DB	'\Vc7\atlmfc\include\afxtempl.h', 00H
	ORG $+1
$SG192216 DB	'D:\Program Files (x86)\Microsoft Visual Studio .NET 2003'
	DB	'\Vc7\atlmfc\include\afxtempl.h', 00H
	ORG $+1
$SG192220 DB	'D:\Program Files (x86)\Microsoft Visual Studio .NET 2003'
	DB	'\Vc7\atlmfc\include\afxtempl.h', 00H
	ORG $+1
$SG192230 DB	'D:\Program Files (x86)\Microsoft Visual Studio .NET 2003'
	DB	'\Vc7\atlmfc\include\afxtempl.h', 00H
	ORG $+1
$SG192258 DB	'D:\Program Files (x86)\Microsoft Visual Studio .NET 2003'
	DB	'\Vc7\atlmfc\include\afxtempl.h', 00H
	ORG $+1
$SG192283 DB	'D:\Program Files (x86)\Microsoft Visual Studio .NET 2003'
	DB	'\Vc7\atlmfc\include\afxtempl.h', 00H
	ORG $+1
$SG192297 DB	'D:\Program Files (x86)\Microsoft Visual Studio .NET 2003'
	DB	'\Vc7\atlmfc\include\afxtempl.h', 00H
	ORG $+1
$SG192299 DB	'D:\Program Files (x86)\Microsoft Visual Studio .NET 2003'
	DB	'\Vc7\atlmfc\include\afxtempl.h', 00H
	ORG $+1
$SG192301 DB	'D:\Program Files (x86)\Microsoft Visual Studio .NET 2003'
	DB	'\Vc7\atlmfc\include\afxtempl.h', 00H
	ORG $+1
$SG192326 DB	'D:\Program Files (x86)\Microsoft Visual Studio .NET 2003'
	DB	'\Vc7\atlmfc\include\afxtempl.h', 00H
	ORG $+1
$SG192331 DB	'D:\Program Files (x86)\Microsoft Visual Studio .NET 2003'
	DB	'\Vc7\atlmfc\include\afxtempl.h', 00H
	ORG $+1
$SG192340 DB	'D:\Program Files (x86)\Microsoft Visual Studio .NET 2003'
	DB	'\Vc7\atlmfc\include\afxtempl.h', 00H
	ORG $+1
$SG192343 DB	'D:\Program Files (x86)\Microsoft Visual Studio .NET 2003'
	DB	'\Vc7\atlmfc\include\afxtempl.h', 00H
CONST	ENDS
;	COMDAT ?g_pfnGetThreadACP@ATL@@3P6GIXZA
_DATA	SEGMENT
?g_pfnGetThreadACP@ATL@@3P6GIXZA DD FLAT:?_AtlGetThreadACPThunk@ATL@@YGIXZ ; ATL::g_pfnGetThreadACP
_DATA	ENDS
PUBLIC	?InterlockedExchangePointer@@YGPAXPAPAXPAX@Z	; InterlockedExchangePointer
PUBLIC	?_AtlGetThreadACPFake@ATL@@YGIXZ		; ATL::_AtlGetThreadACPFake
PUBLIC	?_AtlGetThreadACPReal@ATL@@YGIXZ		; ATL::_AtlGetThreadACPReal
EXTRN	__imp__GetVersionExA@4:NEAR
EXTRN	__RTC_InitBase:NEAR
EXTRN	__RTC_Shutdown:NEAR
EXTRN	__RTC_CheckEsp:NEAR
EXTRN	___security_cookie:DWORD
EXTRN	@_RTC_CheckStackVars@8:NEAR
EXTRN	@__security_check_cookie@4:NEAR
;	COMDAT rtc$IMZ
; File d:\program files (x86)\microsoft visual studio .net 2003\vc7\atlmfc\include\atlconv.h
rtc$IMZ	SEGMENT
__RTC_InitBase.rtc$IMZ DD FLAT:__RTC_InitBase
rtc$IMZ	ENDS
;	COMDAT rtc$TMZ
rtc$TMZ	SEGMENT
__RTC_Shutdown.rtc$TMZ DD FLAT:__RTC_Shutdown
; Function compile flags: /Odt /RTCsu
rtc$TMZ	ENDS
;	COMDAT ?_AtlGetThreadACPThunk@ATL@@YGIXZ
_TEXT	SEGMENT
_pfnGetThreadACP$ = -164				; size = 4
_ver$ = -156						; size = 148
__$ArrayPad$ = -4					; size = 4
__$ReturnAddr$ = 4					; size = 4
?_AtlGetThreadACPThunk@ATL@@YGIXZ PROC NEAR		; ATL::_AtlGetThreadACPThunk, COMDAT

; 134  : {

  00000	55		 push	 ebp
  00001	8b ec		 mov	 ebp, esp
  00003	81 ec a4 00 00
	00		 sub	 esp, 164		; 000000a4H
  00009	56		 push	 esi
  0000a	57		 push	 edi
  0000b	8d bd 5c ff ff
	ff		 lea	 edi, DWORD PTR [ebp-164]
  00011	b9 29 00 00 00	 mov	 ecx, 41			; 00000029H
  00016	b8 cc cc cc cc	 mov	 eax, -858993460		; ccccccccH
  0001b	f3 ab		 rep stosd
  0001d	a1 00 00 00 00	 mov	 eax, DWORD PTR ___security_cookie
  00022	89 45 fc	 mov	 DWORD PTR __$ArrayPad$[ebp], eax

; 135  : 	OSVERSIONINFO ver;
; 136  : 	ATLGETTHREADACP pfnGetThreadACP;
; 137  : 
; 138  : 	ver.dwOSVersionInfoSize = sizeof( ver );

  00025	c7 85 64 ff ff
	ff 94 00 00 00	 mov	 DWORD PTR _ver$[ebp], 148 ; 00000094H

; 139  : 	::GetVersionEx( &ver );

  0002f	8b f4		 mov	 esi, esp
  00031	8d 85 64 ff ff
	ff		 lea	 eax, DWORD PTR _ver$[ebp]
  00037	50		 push	 eax
  00038	ff 15 00 00 00
	00		 call	 DWORD PTR __imp__GetVersionExA@4
  0003e	3b f4		 cmp	 esi, esp
  00040	e8 00 00 00 00	 call	 __RTC_CheckEsp

; 140  : 	if( (ver.dwPlatformId == VER_PLATFORM_WIN32_NT) && (ver.dwMajorVersion >= 5) )

  00045	83 bd 74 ff ff
	ff 02		 cmp	 DWORD PTR _ver$[ebp+16], 2
  0004c	75 15		 jne	 SHORT $L24163
  0004e	83 bd 68 ff ff
	ff 05		 cmp	 DWORD PTR _ver$[ebp+4], 5
  00055	72 0c		 jb	 SHORT $L24163

; 141  : 	{
; 142  : 		// On Win2K, CP_THREAD_ACP is supported
; 143  : 		pfnGetThreadACP = _AtlGetThreadACPReal;

  00057	c7 85 5c ff ff
	ff 00 00 00 00	 mov	 DWORD PTR _pfnGetThreadACP$[ebp], OFFSET FLAT:?_AtlGetThreadACPReal@ATL@@YGIXZ ; ATL::_AtlGetThreadACPReal

; 144  : 	}
; 145  : 	else

  00061	eb 0a		 jmp	 SHORT $L24164
$L24163:

; 146  : 	{
; 147  : 		pfnGetThreadACP = _AtlGetThreadACPFake;

  00063	c7 85 5c ff ff
	ff 00 00 00 00	 mov	 DWORD PTR _pfnGetThreadACP$[ebp], OFFSET FLAT:?_AtlGetThreadACPFake@ATL@@YGIXZ ; ATL::_AtlGetThreadACPFake
$L24164:

; 148  : 	}
; 149  : 	InterlockedExchangePointer( reinterpret_cast< void** >(&g_pfnGetThreadACP), pfnGetThreadACP );

  0006d	8b 8d 5c ff ff
	ff		 mov	 ecx, DWORD PTR _pfnGetThreadACP$[ebp]
  00073	51		 push	 ecx
  00074	68 00 00 00 00	 push	 OFFSET FLAT:?g_pfnGetThreadACP@ATL@@3P6GIXZA ; ATL::g_pfnGetThreadACP
  00079	e8 00 00 00 00	 call	 ?InterlockedExchangePointer@@YGPAXPAPAXPAX@Z ; InterlockedExchangePointer

; 150  : 
; 151  : 	return( g_pfnGetThreadACP() );

  0007e	8b f4		 mov	 esi, esp
  00080	ff 15 00 00 00
	00		 call	 DWORD PTR ?g_pfnGetThreadACP@ATL@@3P6GIXZA ; ATL::g_pfnGetThreadACP
  00086	3b f4		 cmp	 esi, esp
  00088	e8 00 00 00 00	 call	 __RTC_CheckEsp

; 152  : }

  0008d	52		 push	 edx
  0008e	8b cd		 mov	 ecx, ebp
  00090	50		 push	 eax
  00091	8d 15 00 00 00
	00		 lea	 edx, DWORD PTR $L193033
  00097	e8 00 00 00 00	 call	 @_RTC_CheckStackVars@8
  0009c	58		 pop	 eax
  0009d	5a		 pop	 edx
  0009e	8b 4d fc	 mov	 ecx, DWORD PTR __$ArrayPad$[ebp]
  000a1	e8 00 00 00 00	 call	 @__security_check_cookie@4
  000a6	5f		 pop	 edi
  000a7	5e		 pop	 esi
  000a8	81 c4 a4 00 00
	00		 add	 esp, 164		; 000000a4H
  000ae	3b ec		 cmp	 ebp, esp
  000b0	e8 00 00 00 00	 call	 __RTC_CheckEsp
  000b5	8b e5		 mov	 esp, ebp
  000b7	5d		 pop	 ebp
  000b8	c3		 ret	 0
$L193033:
  000b9	01 00 00 00	 DD	 1
  000bd	00 00 00 00	 DD	 $L193032
$L193032:
  000c1	64 ff ff ff	 DD	 -156			; ffffff64H
  000c5	94 00 00 00	 DD	 148			; 00000094H
  000c9	00 00 00 00	 DD	 $L193029
$L193029:
  000cd	76		 DB	 118			; 00000076H
  000ce	65		 DB	 101			; 00000065H
  000cf	72		 DB	 114			; 00000072H
  000d0	00		 DB	 0
?_AtlGetThreadACPThunk@ATL@@YGIXZ ENDP			; ATL::_AtlGetThreadACPThunk
_TEXT	ENDS
EXTRN	__imp__InterlockedExchange@8:NEAR
; Function compile flags: /Odt /RTCsu
;	COMDAT ?InterlockedExchangePointer@@YGPAXPAPAXPAX@Z
_TEXT	SEGMENT
_pp$ = 8						; size = 4
_pNew$ = 12						; size = 4
?InterlockedExchangePointer@@YGPAXPAPAXPAX@Z PROC NEAR	; InterlockedExchangePointer, COMDAT

; 91   : {

  00000	55		 push	 ebp
  00001	8b ec		 mov	 ebp, esp
  00003	56		 push	 esi

; 92   : 	return( reinterpret_cast<void*>(static_cast<LONG_PTR>(::InterlockedExchange(reinterpret_cast<LONG*>(pp), static_cast<LONG>(reinterpret_cast<LONG_PTR>(pNew))))) );

  00004	8b f4		 mov	 esi, esp
  00006	8b 45 0c	 mov	 eax, DWORD PTR _pNew$[ebp]
  00009	50		 push	 eax
  0000a	8b 4d 08	 mov	 ecx, DWORD PTR _pp$[ebp]
  0000d	51		 push	 ecx
  0000e	ff 15 00 00 00
	00		 call	 DWORD PTR __imp__InterlockedExchange@8
  00014	3b f4		 cmp	 esi, esp
  00016	e8 00 00 00 00	 call	 __RTC_CheckEsp

; 93   : }

  0001b	5e		 pop	 esi
  0001c	3b ec		 cmp	 ebp, esp
  0001e	e8 00 00 00 00	 call	 __RTC_CheckEsp
  00023	5d		 pop	 ebp
  00024	c2 08 00	 ret	 8
?InterlockedExchangePointer@@YGPAXPAPAXPAX@Z ENDP	; InterlockedExchangePointer
_TEXT	ENDS
EXTRN	__imp__GetACP@0:NEAR
EXTRN	__imp__GetLocaleInfoA@16:NEAR
EXTRN	__imp__GetThreadLocale@0:NEAR
; Function compile flags: /Odt /RTCsu
;	COMDAT ?_AtlGetThreadACPFake@ATL@@YGIXZ
_TEXT	SEGMENT
_pch$24151 = -32					; size = 4
_szACP$ = -24						; size = 7
_lcidThread$ = -12					; size = 4
_nACP$ = -8						; size = 4
__$ArrayPad$ = -4					; size = 4
__$ReturnAddr$ = 4					; size = 4
?_AtlGetThreadACPFake@ATL@@YGIXZ PROC NEAR		; ATL::_AtlGetThreadACPFake, COMDAT

; 101  : {

  00000	55		 push	 ebp
  00001	8b ec		 mov	 ebp, esp
  00003	83 ec 20	 sub	 esp, 32			; 00000020H
  00006	56		 push	 esi
  00007	b8 cc cc cc cc	 mov	 eax, -858993460		; ccccccccH
  0000c	89 45 e0	 mov	 DWORD PTR [ebp-32], eax
  0000f	89 45 e4	 mov	 DWORD PTR [ebp-28], eax
  00012	89 45 e8	 mov	 DWORD PTR [ebp-24], eax
  00015	89 45 ec	 mov	 DWORD PTR [ebp-20], eax
  00018	89 45 f0	 mov	 DWORD PTR [ebp-16], eax
  0001b	89 45 f4	 mov	 DWORD PTR [ebp-12], eax
  0001e	89 45 f8	 mov	 DWORD PTR [ebp-8], eax
  00021	89 45 fc	 mov	 DWORD PTR [ebp-4], eax
  00024	a1 00 00 00 00	 mov	 eax, DWORD PTR ___security_cookie
  00029	89 45 fc	 mov	 DWORD PTR __$ArrayPad$[ebp], eax

; 102  : 	UINT nACP = 0;

  0002c	c7 45 f8 00 00
	00 00		 mov	 DWORD PTR _nACP$[ebp], 0

; 103  : 
; 104  : 	LCID lcidThread = ::GetThreadLocale();

  00033	8b f4		 mov	 esi, esp
  00035	ff 15 00 00 00
	00		 call	 DWORD PTR __imp__GetThreadLocale@0
  0003b	3b f4		 cmp	 esi, esp
  0003d	e8 00 00 00 00	 call	 __RTC_CheckEsp
  00042	89 45 f4	 mov	 DWORD PTR _lcidThread$[ebp], eax

; 105  : 
; 106  : 	char szACP[7];
; 107  : 	// GetLocaleInfoA will fail for a Unicode-only LCID, but those are only supported on 
; 108  : 	// Windows 2000.  Since Windows 2000 supports CP_THREAD_ACP, this code path is never
; 109  : 	// executed on Windows 2000.
; 110  : 	if (::GetLocaleInfoA(lcidThread, LOCALE_IDEFAULTANSICODEPAGE, szACP, 7) != 0)

  00045	8b f4		 mov	 esi, esp
  00047	6a 07		 push	 7
  00049	8d 45 e8	 lea	 eax, DWORD PTR _szACP$[ebp]
  0004c	50		 push	 eax
  0004d	68 04 10 00 00	 push	 4100			; 00001004H
  00052	8b 4d f4	 mov	 ecx, DWORD PTR _lcidThread$[ebp]
  00055	51		 push	 ecx
  00056	ff 15 00 00 00
	00		 call	 DWORD PTR __imp__GetLocaleInfoA@16
  0005c	3b f4		 cmp	 esi, esp
  0005e	e8 00 00 00 00	 call	 __RTC_CheckEsp
  00063	85 c0		 test	 eax, eax
  00065	74 34		 je	 SHORT $L24150

; 111  : 	{
; 112  : 		char* pch = szACP;

  00067	8d 55 e8	 lea	 edx, DWORD PTR _szACP$[ebp]
  0006a	89 55 e0	 mov	 DWORD PTR _pch$24151[ebp], edx
$L24153:

; 113  : 		while (*pch != '\0')

  0006d	8b 45 e0	 mov	 eax, DWORD PTR _pch$24151[ebp]
  00070	0f be 08	 movsx	 ecx, BYTE PTR [eax]
  00073	85 c9		 test	 ecx, ecx
  00075	74 24		 je	 SHORT $L24150

; 114  : 		{
; 115  : 			nACP *= 10;

  00077	8b 55 f8	 mov	 edx, DWORD PTR _nACP$[ebp]
  0007a	6b d2 0a	 imul	 edx, 10			; 0000000aH
  0007d	89 55 f8	 mov	 DWORD PTR _nACP$[ebp], edx

; 116  : 			nACP += *pch++ - '0';

  00080	8b 45 e0	 mov	 eax, DWORD PTR _pch$24151[ebp]
  00083	0f be 08	 movsx	 ecx, BYTE PTR [eax]
  00086	8b 55 f8	 mov	 edx, DWORD PTR _nACP$[ebp]
  00089	8d 44 0a d0	 lea	 eax, DWORD PTR [edx+ecx-48]
  0008d	89 45 f8	 mov	 DWORD PTR _nACP$[ebp], eax
  00090	8b 4d e0	 mov	 ecx, DWORD PTR _pch$24151[ebp]
  00093	83 c1 01	 add	 ecx, 1
  00096	89 4d e0	 mov	 DWORD PTR _pch$24151[ebp], ecx

; 117  : 		}

  00099	eb d2		 jmp	 SHORT $L24153
$L24150:

; 118  : 	}
; 119  : 	// Use the Default ANSI Code Page if we were unable to get the thread ACP or if one does not exist.
; 120  : 	if (nACP == 0)

  0009b	83 7d f8 00	 cmp	 DWORD PTR _nACP$[ebp], 0
  0009f	75 12		 jne	 SHORT $L24155

; 121  : 		nACP = ::GetACP();

  000a1	8b f4		 mov	 esi, esp
  000a3	ff 15 00 00 00
	00		 call	 DWORD PTR __imp__GetACP@0
  000a9	3b f4		 cmp	 esi, esp
  000ab	e8 00 00 00 00	 call	 __RTC_CheckEsp
  000b0	89 45 f8	 mov	 DWORD PTR _nACP$[ebp], eax
$L24155:

; 122  : 
; 123  : 	return nACP;

  000b3	8b 45 f8	 mov	 eax, DWORD PTR _nACP$[ebp]

; 124  : }

  000b6	52		 push	 edx
  000b7	8b cd		 mov	 ecx, ebp
  000b9	50		 push	 eax
  000ba	8d 15 00 00 00
	00		 lea	 edx, DWORD PTR $L193044
  000c0	e8 00 00 00 00	 call	 @_RTC_CheckStackVars@8
  000c5	58		 pop	 eax
  000c6	5a		 pop	 edx
  000c7	8b 4d fc	 mov	 ecx, DWORD PTR __$ArrayPad$[ebp]
  000ca	e8 00 00 00 00	 call	 @__security_check_cookie@4
  000cf	5e		 pop	 esi
  000d0	83 c4 20	 add	 esp, 32			; 00000020H
  000d3	3b ec		 cmp	 ebp, esp
  000d5	e8 00 00 00 00	 call	 __RTC_CheckEsp
  000da	8b e5		 mov	 esp, ebp
  000dc	5d		 pop	 ebp
  000dd	c3		 ret	 0
$L193044:
  000de	01 00 00 00	 DD	 1
  000e2	00 00 00 00	 DD	 $L193043
$L193043:
  000e6	e8 ff ff ff	 DD	 -24			; ffffffe8H
  000ea	07 00 00 00	 DD	 7
  000ee	00 00 00 00	 DD	 $L193041
$L193041:
  000f2	73		 DB	 115			; 00000073H
  000f3	7a		 DB	 122			; 0000007aH
  000f4	41		 DB	 65			; 00000041H
  000f5	43		 DB	 67			; 00000043H
  000f6	50		 DB	 80			; 00000050H
  000f7	00		 DB	 0
?_AtlGetThreadACPFake@ATL@@YGIXZ ENDP			; ATL::_AtlGetThreadACPFake
; Function compile flags: /Odt /RTCsu
_TEXT	ENDS
;	COMDAT ?_AtlGetThreadACPReal@ATL@@YGIXZ
_TEXT	SEGMENT
?_AtlGetThreadACPReal@ATL@@YGIXZ PROC NEAR		; ATL::_AtlGetThreadACPReal, COMDAT

; 127  : {

  00000	55		 push	 ebp
  00001	8b ec		 mov	 ebp, esp

; 128  : 	return( CP_THREAD_ACP );

  00003	b8 03 00 00 00	 mov	 eax, 3

; 129  : }

  00008	5d		 pop	 ebp
  00009	c3		 ret	 0
?_AtlGetThreadACPReal@ATL@@YGIXZ ENDP			; ATL::_AtlGetThreadACPReal
_TEXT	ENDS
PUBLIC	?paneSpl@ETSLayoutMgr@@QAE?AVCPane@1@PAVETSSplitter@@W4layOrientation@1@W4layResizeMode@1@HHHHHH@Z ; ETSLayoutMgr::paneSpl
PUBLIC	??0PaneSplitter@ETSLayoutMgr@@QAE@PAVETSSplitter@@PAV1@W4layOrientation@1@@Z ; ETSLayoutMgr::PaneSplitter::PaneSplitter
EXTRN	??2@YAPAXI@Z:NEAR				; operator new
EXTRN	??3@YAXPAX@Z:NEAR				; operator delete
EXTRN	__except_list:DWORD
EXTRN	___CxxFrameHandler:NEAR
EXTRN	??0CPane@ETSLayoutMgr@@QAE@PAVPane@1@@Z:NEAR	; ETSLayoutMgr::CPane::CPane
xdata$x	SEGMENT
$T193061 DD	0ffffffffH
	DD	FLAT:$L193051
$T193058 DD	019930520H
	DD	01H
	DD	FLAT:$T193061
	DD	2 DUP(00H)
	DD	2 DUP(00H)
; Function compile flags: /Odt /RTCsu
; File d:\boxgit\playbox\playbox\dev\prj\playbox\src\layoutmgr\etslayoutex.cpp
xdata$x	ENDS
_TEXT	SEGMENT
tv74 = -36						; size = 4
$T193053 = -32						; size = 4
$T193048 = -28						; size = 4
$T193047 = -24						; size = 4
_pPane$ = -20						; size = 4
_this$ = -16						; size = 4
__$EHRec$ = -12						; size = 12
___$ReturnUdt$ = 8					; size = 4
_pSpl$ = 12						; size = 4
_orientation$ = 16					; size = 4
_modeResize$ = 20					; size = 4
_nClosedPos$ = 24					; size = 4
_nClosedOri$ = 28					; size = 4
_nSize$ = 32						; size = 4
_nOpenSize$ = 36					; size = 4
_nHideCloseBtn$ = 40					; size = 4
_nSlim$ = 44						; size = 4
?paneSpl@ETSLayoutMgr@@QAE?AVCPane@1@PAVETSSplitter@@W4layOrientation@1@W4layResizeMode@1@HHHHHH@Z PROC NEAR ; ETSLayoutMgr::paneSpl
; _this$ = ecx

; 15   : {

  00000	55		 push	 ebp
  00001	8b ec		 mov	 ebp, esp
  00003	6a ff		 push	 -1
  00005	68 00 00 00 00	 push	 __ehhandler$?paneSpl@ETSLayoutMgr@@QAE?AVCPane@1@PAVETSSplitter@@W4layOrientation@1@W4layResizeMode@1@HHHHHH@Z
  0000a	64 a1 00 00 00
	00		 mov	 eax, DWORD PTR fs:__except_list
  00010	50		 push	 eax
  00011	64 89 25 00 00
	00 00		 mov	 DWORD PTR fs:__except_list, esp
  00018	83 ec 18	 sub	 esp, 24			; 00000018H
  0001b	b8 cc cc cc cc	 mov	 eax, -858993460		; ccccccccH
  00020	89 45 dc	 mov	 DWORD PTR [ebp-36], eax
  00023	89 45 e0	 mov	 DWORD PTR [ebp-32], eax
  00026	89 45 e4	 mov	 DWORD PTR [ebp-28], eax
  00029	89 45 e8	 mov	 DWORD PTR [ebp-24], eax
  0002c	89 45 ec	 mov	 DWORD PTR [ebp-20], eax
  0002f	89 45 f0	 mov	 DWORD PTR [ebp-16], eax
  00032	89 4d f0	 mov	 DWORD PTR _this$[ebp], ecx
  00035	c7 45 e0 00 00
	00 00		 mov	 DWORD PTR $T193053[ebp], 0

; 16   : 	ETSLayoutMgr::PaneSplitter* pPane = new PaneSplitter ( pSpl, this, orientation);

  0003c	68 98 00 00 00	 push	 152			; 00000098H
  00041	e8 00 00 00 00	 call	 ??2@YAPAXI@Z		; operator new
  00046	83 c4 04	 add	 esp, 4
  00049	89 45 e4	 mov	 DWORD PTR $T193048[ebp], eax
  0004c	c7 45 fc 00 00
	00 00		 mov	 DWORD PTR __$EHRec$[ebp+8], 0
  00053	83 7d e4 00	 cmp	 DWORD PTR $T193048[ebp], 0
  00057	74 19		 je	 SHORT $L193049
  00059	8b 45 10	 mov	 eax, DWORD PTR _orientation$[ebp]
  0005c	50		 push	 eax
  0005d	8b 4d f0	 mov	 ecx, DWORD PTR _this$[ebp]
  00060	51		 push	 ecx
  00061	8b 55 0c	 mov	 edx, DWORD PTR _pSpl$[ebp]
  00064	52		 push	 edx
  00065	8b 4d e4	 mov	 ecx, DWORD PTR $T193048[ebp]
  00068	e8 00 00 00 00	 call	 ??0PaneSplitter@ETSLayoutMgr@@QAE@PAVETSSplitter@@PAV1@W4layOrientation@1@@Z ; ETSLayoutMgr::PaneSplitter::PaneSplitter
  0006d	89 45 dc	 mov	 DWORD PTR tv74[ebp], eax
  00070	eb 07		 jmp	 SHORT $L193050
$L193049:
  00072	c7 45 dc 00 00
	00 00		 mov	 DWORD PTR tv74[ebp], 0
$L193050:
  00079	8b 45 dc	 mov	 eax, DWORD PTR tv74[ebp]
  0007c	89 45 e8	 mov	 DWORD PTR $T193047[ebp], eax
  0007f	c7 45 fc ff ff
	ff ff		 mov	 DWORD PTR __$EHRec$[ebp+8], -1
  00086	8b 4d e8	 mov	 ecx, DWORD PTR $T193047[ebp]
  00089	89 4d ec	 mov	 DWORD PTR _pPane$[ebp], ecx

; 17   : 
; 18   : 	//pPane->m_sizeSecondary = (isClosed)? nClosedPos:nSplOpenSize;
; 19   : 
; 20   : 	pPane->m_sizeSecondary = nSize;

  0008c	8b 55 ec	 mov	 edx, DWORD PTR _pPane$[ebp]
  0008f	8b 45 20	 mov	 eax, DWORD PTR _nSize$[ebp]
  00092	89 42 78	 mov	 DWORD PTR [edx+120], eax

; 21   : 	//if(orientation == VERTICAL)
; 22   : 	pPane->m_modeResize    = modeResize;

  00095	8b 4d ec	 mov	 ecx, DWORD PTR _pPane$[ebp]
  00098	8b 55 14	 mov	 edx, DWORD PTR _modeResize$[ebp]
  0009b	89 51 18	 mov	 DWORD PTR [ecx+24], edx

; 23   : //	pPane->SetClosed(nSize == nClosedPos);
; 24   : 
; 25   : 	if(orientation == VERTICAL)

  0009e	83 7d 10 01	 cmp	 DWORD PTR _orientation$[ebp], 1
  000a2	75 09		 jne	 SHORT $L190462

; 26   : 		pSpl->m_bHorizSplitter = true;

  000a4	8b 45 0c	 mov	 eax, DWORD PTR _pSpl$[ebp]
  000a7	c6 40 54 01	 mov	 BYTE PTR [eax+84], 1

; 27   : 	else

  000ab	eb 07		 jmp	 SHORT $L190463
$L190462:

; 28   : 		pSpl->m_bHorizSplitter   = false;

  000ad	8b 4d 0c	 mov	 ecx, DWORD PTR _pSpl$[ebp]
  000b0	c6 41 54 00	 mov	 BYTE PTR [ecx+84], 0
$L190463:

; 29   : 
; 30   : 	pSpl->m_bHideCloseBtn = (nHideCloseBtn == 1);

  000b4	33 d2		 xor	 edx, edx
  000b6	83 7d 28 01	 cmp	 DWORD PTR _nHideCloseBtn$[ebp], 1
  000ba	0f 94 c2	 sete	 dl
  000bd	8b 45 0c	 mov	 eax, DWORD PTR _pSpl$[ebp]
  000c0	88 50 60	 mov	 BYTE PTR [eax+96], dl

; 31   : 	//pSpl->SetSlim(nSlim ==1);
; 32   : 
; 33   : 	pPane->m_nClosedOri = nClosedOri;

  000c3	8b 4d ec	 mov	 ecx, DWORD PTR _pPane$[ebp]
  000c6	8b 55 1c	 mov	 edx, DWORD PTR _nClosedOri$[ebp]
  000c9	89 91 84 00 00
	00		 mov	 DWORD PTR [ecx+132], edx

; 34   : 	pPane->m_nSplClosedPos = nClosedPos;

  000cf	8b 45 ec	 mov	 eax, DWORD PTR _pPane$[ebp]
  000d2	8b 4d 18	 mov	 ecx, DWORD PTR _nClosedPos$[ebp]
  000d5	89 88 88 00 00
	00		 mov	 DWORD PTR [eax+136], ecx

; 35   : 	pPane->m_nSplOpendPos = nOpenSize;

  000db	8b 55 ec	 mov	 edx, DWORD PTR _pPane$[ebp]
  000de	8b 45 24	 mov	 eax, DWORD PTR _nOpenSize$[ebp]
  000e1	89 82 8c 00 00
	00		 mov	 DWORD PTR [edx+140], eax

; 36   : 	
; 37   : 	pSpl->m_pane = (ETSLayoutMgr::PaneSplitter *)pPane;

  000e7	8b 4d 0c	 mov	 ecx, DWORD PTR _pSpl$[ebp]
  000ea	8b 55 ec	 mov	 edx, DWORD PTR _pPane$[ebp]
  000ed	89 91 b0 00 00
	00		 mov	 DWORD PTR [ecx+176], edx

; 38   : 	pPane->m_nDeflate = -1;

  000f3	8b 45 ec	 mov	 eax, DWORD PTR _pPane$[ebp]
  000f6	c7 80 90 00 00
	00 ff ff ff ff	 mov	 DWORD PTR [eax+144], -1

; 39   : 	return CPane(pPane);

  00100	8b 4d ec	 mov	 ecx, DWORD PTR _pPane$[ebp]
  00103	51		 push	 ecx
  00104	8b 4d 08	 mov	 ecx, DWORD PTR ___$ReturnUdt$[ebp]
  00107	e8 00 00 00 00	 call	 ??0CPane@ETSLayoutMgr@@QAE@PAVPane@1@@Z ; ETSLayoutMgr::CPane::CPane
  0010c	8b 55 e0	 mov	 edx, DWORD PTR $T193053[ebp]
  0010f	83 ca 01	 or	 edx, 1
  00112	89 55 e0	 mov	 DWORD PTR $T193053[ebp], edx
  00115	8b 45 08	 mov	 eax, DWORD PTR ___$ReturnUdt$[ebp]

; 40   : }

  00118	8b 4d f4	 mov	 ecx, DWORD PTR __$EHRec$[ebp]
  0011b	64 89 0d 00 00
	00 00		 mov	 DWORD PTR fs:__except_list, ecx
  00122	83 c4 24	 add	 esp, 36			; 00000024H
  00125	3b ec		 cmp	 ebp, esp
  00127	e8 00 00 00 00	 call	 __RTC_CheckEsp
  0012c	8b e5		 mov	 esp, ebp
  0012e	5d		 pop	 ebp
  0012f	c2 28 00	 ret	 40			; 00000028H
_TEXT	ENDS
text$x	SEGMENT
$L193051:
  00000	8b 45 e4	 mov	 eax, DWORD PTR $T193048[ebp]
  00003	50		 push	 eax
  00004	e8 00 00 00 00	 call	 ??3@YAXPAX@Z		; operator delete
  00009	59		 pop	 ecx
  0000a	c3		 ret	 0
__ehhandler$?paneSpl@ETSLayoutMgr@@QAE?AVCPane@1@PAVETSSplitter@@W4layOrientation@1@W4layResizeMode@1@HHHHHH@Z:
  0000b	b8 00 00 00 00	 mov	 eax, OFFSET FLAT:$T193058
  00010	e9 00 00 00 00	 jmp	 ___CxxFrameHandler
text$x	ENDS
?paneSpl@ETSLayoutMgr@@QAE?AVCPane@1@PAVETSSplitter@@W4layOrientation@1@W4layResizeMode@1@HHHHHH@Z ENDP ; ETSLayoutMgr::paneSpl
PUBLIC	?resizeTo@PaneSplitter@ETSLayoutMgr@@UAE_NAAVCRect@@_N1@Z ; ETSLayoutMgr::PaneSplitter::resizeTo
PUBLIC	?addPane@PaneSplitter@ETSLayoutMgr@@UAE_NVCPaneBase@2@@Z ; ETSLayoutMgr::PaneSplitter::addPane
PUBLIC	?addPane@PaneSplitter@ETSLayoutMgr@@UAE_NVCPane@2@W4layResizeMode@2@H@Z ; ETSLayoutMgr::PaneSplitter::addPane
PUBLIC	?getMinConstrainHorz@PaneSplitter@ETSLayoutMgr@@UAEHXZ ; ETSLayoutMgr::PaneSplitter::getMinConstrainHorz
PUBLIC	?getMinConstrainVert@PaneSplitter@ETSLayoutMgr@@UAEHXZ ; ETSLayoutMgr::PaneSplitter::getMinConstrainVert
PUBLIC	?showPane@PaneSplitter@ETSLayoutMgr@@UAEX_N@Z	; ETSLayoutMgr::PaneSplitter::showPane
PUBLIC	??_7PaneSplitter@ETSLayoutMgr@@6B@		; ETSLayoutMgr::PaneSplitter::`vftable'
PUBLIC	??_GPaneSplitter@ETSLayoutMgr@@UAEPAXI@Z	; ETSLayoutMgr::PaneSplitter::`scalar deleting destructor'
PUBLIC	??_R0?AVPaneBase@ETSLayoutMgr@@@8		; ETSLayoutMgr::PaneBase `RTTI Type Descriptor'
PUBLIC	??_R1A@?0A@A@PaneBase@ETSLayoutMgr@@8		; ETSLayoutMgr::PaneBase::`RTTI Base Class Descriptor at (0,-1,0,0)'
PUBLIC	??_R1A@?0A@A@Pane@ETSLayoutMgr@@8		; ETSLayoutMgr::Pane::`RTTI Base Class Descriptor at (0,-1,0,0)'
PUBLIC	??_R0?AVPane@ETSLayoutMgr@@@8			; ETSLayoutMgr::Pane `RTTI Type Descriptor'
PUBLIC	??_R4PaneSplitter@ETSLayoutMgr@@6B@		; ETSLayoutMgr::PaneSplitter::`RTTI Complete Object Locator'
PUBLIC	??_R0?AVPaneSplitter@ETSLayoutMgr@@@8		; ETSLayoutMgr::PaneSplitter `RTTI Type Descriptor'
PUBLIC	??_R3PaneSplitter@ETSLayoutMgr@@8		; ETSLayoutMgr::PaneSplitter::`RTTI Class Hierarchy Descriptor'
PUBLIC	??_R2PaneSplitter@ETSLayoutMgr@@8		; ETSLayoutMgr::PaneSplitter::`RTTI Base Class Array'
PUBLIC	??_R1A@?0A@A@PaneSplitter@ETSLayoutMgr@@8	; ETSLayoutMgr::PaneSplitter::`RTTI Base Class Descriptor at (0,-1,0,0)'
EXTRN	?getConstrainHorz@Pane@ETSLayoutMgr@@UAEHH@Z:NEAR ; ETSLayoutMgr::Pane::getConstrainHorz
EXTRN	?getConstrainVert@Pane@ETSLayoutMgr@@UAEHH@Z:NEAR ; ETSLayoutMgr::Pane::getConstrainVert
EXTRN	?getMaxConstrainHorz@Pane@ETSLayoutMgr@@UAEHXZ:NEAR ; ETSLayoutMgr::Pane::getMaxConstrainHorz
EXTRN	?getMaxConstrainVert@Pane@ETSLayoutMgr@@UAEHXZ:NEAR ; ETSLayoutMgr::Pane::getMaxConstrainVert
EXTRN	??1Pane@ETSLayoutMgr@@UAE@XZ:NEAR		; ETSLayoutMgr::Pane::~Pane
EXTRN	?GetSubPane@Pane@ETSLayoutMgr@@UAE?AVCPaneBase@2@V?$CStringT@DV?$StrTraitMFC_DLL@DV?$ChTraitsCRT@D@ATL@@@@@ATL@@@Z:NEAR ; ETSLayoutMgr::Pane::GetSubPane
EXTRN	??_EPaneSplitter@ETSLayoutMgr@@UAEPAXI@Z:NEAR	; ETSLayoutMgr::PaneSplitter::`vector deleting destructor'
EXTRN	?AfxAssertFailedLine@@YGHPBDH@Z:NEAR		; AfxAssertFailedLine
EXTRN	??_7type_info@@6B@:QWORD			; type_info::`vftable'
EXTRN	??0Pane@ETSLayoutMgr@@IAE@PAV1@W4layOrientation@1@HH@Z:NEAR ; ETSLayoutMgr::Pane::Pane
xdata$x	SEGMENT
$T193069 DD	0ffffffffH
	DD	FLAT:$L193065
$T193067 DD	019930520H
	DD	01H
	DD	FLAT:$T193069
	DD	2 DUP(00H)
	DD	2 DUP(00H)
xdata$x	ENDS
;	COMDAT ??_7PaneSplitter@ETSLayoutMgr@@6B@
CONST	SEGMENT
??_7PaneSplitter@ETSLayoutMgr@@6B@ DD FLAT:??_R4PaneSplitter@ETSLayoutMgr@@6B@ ; ETSLayoutMgr::PaneSplitter::`vftable'
	DD	FLAT:?getConstrainHorz@Pane@ETSLayoutMgr@@UAEHH@Z
	DD	FLAT:?getConstrainVert@Pane@ETSLayoutMgr@@UAEHH@Z
	DD	FLAT:?getMinConstrainHorz@PaneSplitter@ETSLayoutMgr@@UAEHXZ
	DD	FLAT:?getMaxConstrainHorz@Pane@ETSLayoutMgr@@UAEHXZ
	DD	FLAT:?getMinConstrainVert@PaneSplitter@ETSLayoutMgr@@UAEHXZ
	DD	FLAT:?getMaxConstrainVert@Pane@ETSLayoutMgr@@UAEHXZ
	DD	FLAT:?resizeTo@PaneSplitter@ETSLayoutMgr@@UAE_NAAVCRect@@_N1@Z
	DD	FLAT:?GetSubPane@Pane@ETSLayoutMgr@@UAE?AVCPaneBase@2@V?$CStringT@DV?$StrTraitMFC_DLL@DV?$ChTraitsCRT@D@ATL@@@@@ATL@@@Z
	DD	FLAT:??_EPaneSplitter@ETSLayoutMgr@@UAEPAXI@Z
	DD	FLAT:?showPane@PaneSplitter@ETSLayoutMgr@@UAEX_N@Z
	DD	FLAT:?addPane@PaneSplitter@ETSLayoutMgr@@UAE_NVCPane@2@W4layResizeMode@2@H@Z
	DD	FLAT:?addPane@PaneSplitter@ETSLayoutMgr@@UAE_NVCPaneBase@2@@Z
CONST	ENDS
;	COMDAT ??_R4PaneSplitter@ETSLayoutMgr@@6B@
rdata$r	SEGMENT
??_R4PaneSplitter@ETSLayoutMgr@@6B@ DD 00H		; ETSLayoutMgr::PaneSplitter::`RTTI Complete Object Locator'
	DD	00H
	DD	00H
	DD	FLAT:??_R0?AVPaneSplitter@ETSLayoutMgr@@@8
	DD	FLAT:??_R3PaneSplitter@ETSLayoutMgr@@8
rdata$r	ENDS
;	COMDAT ??_R0?AVPaneSplitter@ETSLayoutMgr@@@8
_DATA	SEGMENT
??_R0?AVPaneSplitter@ETSLayoutMgr@@@8 DD FLAT:??_7type_info@@6B@ ; ETSLayoutMgr::PaneSplitter `RTTI Type Descriptor'
	DD	00H
	DB	'.?AVPaneSplitter@ETSLayoutMgr@@', 00H
_DATA	ENDS
;	COMDAT ??_R3PaneSplitter@ETSLayoutMgr@@8
rdata$r	SEGMENT
??_R3PaneSplitter@ETSLayoutMgr@@8 DD 00H		; ETSLayoutMgr::PaneSplitter::`RTTI Class Hierarchy Descriptor'
	DD	00H
	DD	03H
	DD	FLAT:??_R2PaneSplitter@ETSLayoutMgr@@8
rdata$r	ENDS
;	COMDAT ??_R2PaneSplitter@ETSLayoutMgr@@8
rdata$r	SEGMENT
??_R2PaneSplitter@ETSLayoutMgr@@8 DD FLAT:??_R1A@?0A@A@PaneSplitter@ETSLayoutMgr@@8 ; ETSLayoutMgr::PaneSplitter::`RTTI Base Class Array'
	DD	FLAT:??_R1A@?0A@A@Pane@ETSLayoutMgr@@8
	DD	FLAT:??_R1A@?0A@A@PaneBase@ETSLayoutMgr@@8
rdata$r	ENDS
;	COMDAT ??_R1A@?0A@A@PaneSplitter@ETSLayoutMgr@@8
rdata$r	SEGMENT
??_R1A@?0A@A@PaneSplitter@ETSLayoutMgr@@8 DD FLAT:??_R0?AVPaneSplitter@ETSLayoutMgr@@@8 ; ETSLayoutMgr::PaneSplitter::`RTTI Base Class Descriptor at (0,-1,0,0)'
	DD	02H
	DD	00H
	DD	0ffffffffH
	DD	00H
	DD	00H
rdata$r	ENDS
;	COMDAT ??_R1A@?0A@A@Pane@ETSLayoutMgr@@8
rdata$r	SEGMENT
??_R1A@?0A@A@Pane@ETSLayoutMgr@@8 DD FLAT:??_R0?AVPane@ETSLayoutMgr@@@8 ; ETSLayoutMgr::Pane::`RTTI Base Class Descriptor at (0,-1,0,0)'
	DD	01H
	DD	00H
	DD	0ffffffffH
	DD	00H
	DD	00H
rdata$r	ENDS
;	COMDAT ??_R0?AVPane@ETSLayoutMgr@@@8
_DATA	SEGMENT
??_R0?AVPane@ETSLayoutMgr@@@8 DD FLAT:??_7type_info@@6B@ ; ETSLayoutMgr::Pane `RTTI Type Descriptor'
	DD	00H
	DB	'.?AVPane@ETSLayoutMgr@@', 00H
_DATA	ENDS
;	COMDAT ??_R1A@?0A@A@PaneBase@ETSLayoutMgr@@8
rdata$r	SEGMENT
??_R1A@?0A@A@PaneBase@ETSLayoutMgr@@8 DD FLAT:??_R0?AVPaneBase@ETSLayoutMgr@@@8 ; ETSLayoutMgr::PaneBase::`RTTI Base Class Descriptor at (0,-1,0,0)'
	DD	00H
	DD	00H
	DD	0ffffffffH
	DD	00H
	DD	00H
rdata$r	ENDS
;	COMDAT ??_R0?AVPaneBase@ETSLayoutMgr@@@8
_DATA	SEGMENT
??_R0?AVPaneBase@ETSLayoutMgr@@@8 DD FLAT:??_7type_info@@6B@ ; ETSLayoutMgr::PaneBase `RTTI Type Descriptor'
	DD	00H
	DB	'.?AVPaneBase@ETSLayoutMgr@@', 00H
; Function compile flags: /Odt /RTCsu
_DATA	ENDS
_TEXT	SEGMENT
_this$ = -16						; size = 4
__$EHRec$ = -12						; size = 12
_pSpl$ = 8						; size = 4
_pMgr$ = 12						; size = 4
_orientation$ = 16					; size = 4
??0PaneSplitter@ETSLayoutMgr@@QAE@PAVETSSplitter@@PAV1@W4layOrientation@1@@Z PROC NEAR ; ETSLayoutMgr::PaneSplitter::PaneSplitter
; _this$ = ecx

; 44   : {

  00140	55		 push	 ebp
  00141	8b ec		 mov	 ebp, esp
  00143	6a ff		 push	 -1
  00145	68 00 00 00 00	 push	 __ehhandler$??0PaneSplitter@ETSLayoutMgr@@QAE@PAVETSSplitter@@PAV1@W4layOrientation@1@@Z
  0014a	64 a1 00 00 00
	00		 mov	 eax, DWORD PTR fs:__except_list
  00150	50		 push	 eax
  00151	64 89 25 00 00
	00 00		 mov	 DWORD PTR fs:__except_list, esp
  00158	51		 push	 ecx
  00159	c7 45 f0 cc cc
	cc cc		 mov	 DWORD PTR [ebp-16], -858993460 ; ccccccccH
  00160	89 4d f0	 mov	 DWORD PTR _this$[ebp], ecx
  00163	6a 00		 push	 0
  00165	6a 00		 push	 0
  00167	8b 45 10	 mov	 eax, DWORD PTR _orientation$[ebp]
  0016a	50		 push	 eax
  0016b	8b 4d 0c	 mov	 ecx, DWORD PTR _pMgr$[ebp]
  0016e	51		 push	 ecx
  0016f	8b 4d f0	 mov	 ecx, DWORD PTR _this$[ebp]
  00172	e8 00 00 00 00	 call	 ??0Pane@ETSLayoutMgr@@IAE@PAV1@W4layOrientation@1@HH@Z ; ETSLayoutMgr::Pane::Pane
  00177	c7 45 fc 00 00
	00 00		 mov	 DWORD PTR __$EHRec$[ebp+8], 0
  0017e	8b 55 f0	 mov	 edx, DWORD PTR _this$[ebp]
  00181	c7 02 00 00 00
	00		 mov	 DWORD PTR [edx], OFFSET FLAT:??_7PaneSplitter@ETSLayoutMgr@@6B@

; 45   : 	ASSERT(pSpl);

  00187	83 7d 08 00	 cmp	 DWORD PTR _pSpl$[ebp], 0
  0018b	75 11		 jne	 SHORT $L193064
  0018d	6a 2d		 push	 45			; 0000002dH
  0018f	68 00 00 00 00	 push	 OFFSET FLAT:$SG190473
  00194	e8 00 00 00 00	 call	 ?AfxAssertFailedLine@@YGHPBDH@Z ; AfxAssertFailedLine
  00199	85 c0		 test	 eax, eax
  0019b	74 01		 je	 SHORT $L193064
  0019d	cc		 int	 3
$L193064:

; 46   : 	m_pSpl = pSpl;

  0019e	8b 4d f0	 mov	 ecx, DWORD PTR _this$[ebp]
  001a1	8b 55 08	 mov	 edx, DWORD PTR _pSpl$[ebp]
  001a4	89 91 94 00 00
	00		 mov	 DWORD PTR [ecx+148], edx

; 47   : 	m_nDeflate = true;

  001aa	8b 45 f0	 mov	 eax, DWORD PTR _this$[ebp]
  001ad	c7 80 90 00 00
	00 01 00 00 00	 mov	 DWORD PTR [eax+144], 1

; 48   : }

  001b7	c7 45 fc ff ff
	ff ff		 mov	 DWORD PTR __$EHRec$[ebp+8], -1
  001be	8b 45 f0	 mov	 eax, DWORD PTR _this$[ebp]
  001c1	8b 4d f4	 mov	 ecx, DWORD PTR __$EHRec$[ebp]
  001c4	64 89 0d 00 00
	00 00		 mov	 DWORD PTR fs:__except_list, ecx
  001cb	83 c4 10	 add	 esp, 16			; 00000010H
  001ce	3b ec		 cmp	 ebp, esp
  001d0	e8 00 00 00 00	 call	 __RTC_CheckEsp
  001d5	8b e5		 mov	 esp, ebp
  001d7	5d		 pop	 ebp
  001d8	c2 0c 00	 ret	 12			; 0000000cH
_TEXT	ENDS
text$x	SEGMENT
$L193065:
  00015	8b 4d f0	 mov	 ecx, DWORD PTR _this$[ebp]
  00018	e9 00 00 00 00	 jmp	 ??1Pane@ETSLayoutMgr@@UAE@XZ ; ETSLayoutMgr::Pane::~Pane
__ehhandler$??0PaneSplitter@ETSLayoutMgr@@QAE@PAVETSSplitter@@PAV1@W4layOrientation@1@@Z:
  0001d	b8 00 00 00 00	 mov	 eax, OFFSET FLAT:$T193067
  00022	e9 00 00 00 00	 jmp	 ___CxxFrameHandler
text$x	ENDS
??0PaneSplitter@ETSLayoutMgr@@QAE@PAVETSSplitter@@PAV1@W4layOrientation@1@@Z ENDP ; ETSLayoutMgr::PaneSplitter::PaneSplitter
PUBLIC	??1PaneSplitter@ETSLayoutMgr@@UAE@XZ		; ETSLayoutMgr::PaneSplitter::~PaneSplitter
; Function compile flags: /Odt /RTCsu
;	COMDAT ??_GPaneSplitter@ETSLayoutMgr@@UAEPAXI@Z
_TEXT	SEGMENT
_this$ = -4						; size = 4
___flags$ = 8						; size = 4
??_GPaneSplitter@ETSLayoutMgr@@UAEPAXI@Z PROC NEAR	; ETSLayoutMgr::PaneSplitter::`scalar deleting destructor', COMDAT
; _this$ = ecx
  00000	55		 push	 ebp
  00001	8b ec		 mov	 ebp, esp
  00003	51		 push	 ecx
  00004	c7 45 fc cc cc
	cc cc		 mov	 DWORD PTR [ebp-4], -858993460 ; ccccccccH
  0000b	89 4d fc	 mov	 DWORD PTR _this$[ebp], ecx
  0000e	8b 4d fc	 mov	 ecx, DWORD PTR _this$[ebp]
  00011	e8 00 00 00 00	 call	 ??1PaneSplitter@ETSLayoutMgr@@UAE@XZ
  00016	8b 45 08	 mov	 eax, DWORD PTR ___flags$[ebp]
  00019	83 e0 01	 and	 eax, 1
  0001c	74 0c		 je	 SHORT $L190477
  0001e	8b 4d fc	 mov	 ecx, DWORD PTR _this$[ebp]
  00021	51		 push	 ecx
  00022	e8 00 00 00 00	 call	 ??3@YAXPAX@Z		; operator delete
  00027	83 c4 04	 add	 esp, 4
$L190477:
  0002a	8b 45 fc	 mov	 eax, DWORD PTR _this$[ebp]
  0002d	83 c4 04	 add	 esp, 4
  00030	3b ec		 cmp	 ebp, esp
  00032	e8 00 00 00 00	 call	 __RTC_CheckEsp
  00037	8b e5		 mov	 esp, ebp
  00039	5d		 pop	 ebp
  0003a	c2 04 00	 ret	 4
??_GPaneSplitter@ETSLayoutMgr@@UAEPAXI@Z ENDP		; ETSLayoutMgr::PaneSplitter::`scalar deleting destructor'
; Function compile flags: /Odt /RTCsu
_TEXT	ENDS
;	COMDAT ??1PaneSplitter@ETSLayoutMgr@@UAE@XZ
_TEXT	SEGMENT
_this$ = -4						; size = 4
??1PaneSplitter@ETSLayoutMgr@@UAE@XZ PROC NEAR		; ETSLayoutMgr::PaneSplitter::~PaneSplitter, COMDAT
; _this$ = ecx
  00000	55		 push	 ebp
  00001	8b ec		 mov	 ebp, esp
  00003	51		 push	 ecx
  00004	c7 45 fc cc cc
	cc cc		 mov	 DWORD PTR [ebp-4], -858993460 ; ccccccccH
  0000b	89 4d fc	 mov	 DWORD PTR _this$[ebp], ecx
  0000e	8b 4d fc	 mov	 ecx, DWORD PTR _this$[ebp]
  00011	e8 00 00 00 00	 call	 ??1Pane@ETSLayoutMgr@@UAE@XZ ; ETSLayoutMgr::Pane::~Pane
  00016	83 c4 04	 add	 esp, 4
  00019	3b ec		 cmp	 ebp, esp
  0001b	e8 00 00 00 00	 call	 __RTC_CheckEsp
  00020	8b e5		 mov	 esp, ebp
  00022	5d		 pop	 ebp
  00023	c3		 ret	 0
??1PaneSplitter@ETSLayoutMgr@@UAE@XZ ENDP		; ETSLayoutMgr::PaneSplitter::~PaneSplitter
_TEXT	ENDS
EXTRN	?showPane@Pane@ETSLayoutMgr@@UAEX_N@Z:NEAR	; ETSLayoutMgr::Pane::showPane
EXTRN	?ShowWindow@CWnd@@QAEHH@Z:NEAR			; CWnd::ShowWindow
; Function compile flags: /Odt /RTCsu
_TEXT	SEGMENT
_this$ = -4						; size = 4
_bShow$ = 8						; size = 1
?showPane@PaneSplitter@ETSLayoutMgr@@UAEX_N@Z PROC NEAR	; ETSLayoutMgr::PaneSplitter::showPane
; _this$ = ecx

; 51   : {

  001e0	55		 push	 ebp
  001e1	8b ec		 mov	 ebp, esp
  001e3	51		 push	 ecx
  001e4	c7 45 fc cc cc
	cc cc		 mov	 DWORD PTR [ebp-4], -858993460 ; ccccccccH
  001eb	89 4d fc	 mov	 DWORD PTR _this$[ebp], ecx

; 52   : 	this->m_bShow = bShow;

  001ee	8b 45 fc	 mov	 eax, DWORD PTR _this$[ebp]
  001f1	8a 4d 08	 mov	 cl, BYTE PTR _bShow$[ebp]
  001f4	88 48 1c	 mov	 BYTE PTR [eax+28], cl

; 53   : 	if(bShow)

  001f7	0f b6 55 08	 movzx	 edx, BYTE PTR _bShow$[ebp]
  001fb	85 d2		 test	 edx, edx
  001fd	74 12		 je	 SHORT $L190484

; 54   : 		m_pSpl->ShowWindow(SW_SHOW);

  001ff	6a 05		 push	 5
  00201	8b 45 fc	 mov	 eax, DWORD PTR _this$[ebp]
  00204	8b 88 94 00 00
	00		 mov	 ecx, DWORD PTR [eax+148]
  0020a	e8 00 00 00 00	 call	 ?ShowWindow@CWnd@@QAEHH@Z ; CWnd::ShowWindow

; 55   : 	else

  0020f	eb 10		 jmp	 SHORT $L190485
$L190484:

; 56   : 		m_pSpl->ShowWindow(SW_HIDE);

  00211	6a 00		 push	 0
  00213	8b 4d fc	 mov	 ecx, DWORD PTR _this$[ebp]
  00216	8b 89 94 00 00
	00		 mov	 ecx, DWORD PTR [ecx+148]
  0021c	e8 00 00 00 00	 call	 ?ShowWindow@CWnd@@QAEHH@Z ; CWnd::ShowWindow
$L190485:

; 57   : 
; 58   : 	ETSLayoutMgr::Pane::showPane(bShow);

  00221	8a 55 08	 mov	 dl, BYTE PTR _bShow$[ebp]
  00224	52		 push	 edx
  00225	8b 4d fc	 mov	 ecx, DWORD PTR _this$[ebp]
  00228	e8 00 00 00 00	 call	 ?showPane@Pane@ETSLayoutMgr@@UAEX_N@Z ; ETSLayoutMgr::Pane::showPane

; 59   : }

  0022d	83 c4 04	 add	 esp, 4
  00230	3b ec		 cmp	 ebp, esp
  00232	e8 00 00 00 00	 call	 __RTC_CheckEsp
  00237	8b e5		 mov	 esp, ebp
  00239	5d		 pop	 ebp
  0023a	c2 04 00	 ret	 4
?showPane@PaneSplitter@ETSLayoutMgr@@UAEX_N@Z ENDP	; ETSLayoutMgr::PaneSplitter::showPane
_TEXT	ENDS
PUBLIC	?getPaneRect@PaneBase@ETSLayoutMgr@@QAE?AVCRect@@XZ ; ETSLayoutMgr::PaneBase::getPaneRect
EXTRN	?getMinConstrainHorz@Pane@ETSLayoutMgr@@UAEHXZ:NEAR ; ETSLayoutMgr::Pane::getMinConstrainHorz
EXTRN	?Width@CRect@@QBEHXZ:NEAR			; CRect::Width
; Function compile flags: /Odt /RTCsu
_TEXT	SEGMENT
_rc$ = -24						; size = 16
_this$ = -4						; size = 4
?getMinConstrainHorz@PaneSplitter@ETSLayoutMgr@@UAEHXZ PROC NEAR ; ETSLayoutMgr::PaneSplitter::getMinConstrainHorz
; _this$ = ecx

; 62   : {

  00240	55		 push	 ebp
  00241	8b ec		 mov	 ebp, esp
  00243	83 ec 1c	 sub	 esp, 28			; 0000001cH
  00246	b8 cc cc cc cc	 mov	 eax, -858993460		; ccccccccH
  0024b	89 45 e4	 mov	 DWORD PTR [ebp-28], eax
  0024e	89 45 e8	 mov	 DWORD PTR [ebp-24], eax
  00251	89 45 ec	 mov	 DWORD PTR [ebp-20], eax
  00254	89 45 f0	 mov	 DWORD PTR [ebp-16], eax
  00257	89 45 f4	 mov	 DWORD PTR [ebp-12], eax
  0025a	89 45 f8	 mov	 DWORD PTR [ebp-8], eax
  0025d	89 45 fc	 mov	 DWORD PTR [ebp-4], eax
  00260	89 4d fc	 mov	 DWORD PTR _this$[ebp], ecx

; 63   : 	CRect rc = getPaneRect();

  00263	8d 45 e8	 lea	 eax, DWORD PTR _rc$[ebp]
  00266	50		 push	 eax
  00267	8b 4d fc	 mov	 ecx, DWORD PTR _this$[ebp]
  0026a	e8 00 00 00 00	 call	 ?getPaneRect@PaneBase@ETSLayoutMgr@@QAE?AVCRect@@XZ ; ETSLayoutMgr::PaneBase::getPaneRect

; 64   : 
; 65   : 	if(m_Orientation == VERTICAL && rc.Width() <= 0)

  0026f	8b 4d fc	 mov	 ecx, DWORD PTR _this$[ebp]
  00272	83 79 60 01	 cmp	 DWORD PTR [ecx+96], 1
  00276	75 10		 jne	 SHORT $L190491
  00278	8d 4d e8	 lea	 ecx, DWORD PTR _rc$[ebp]
  0027b	e8 00 00 00 00	 call	 ?Width@CRect@@QBEHXZ	; CRect::Width
  00280	85 c0		 test	 eax, eax
  00282	7f 04		 jg	 SHORT $L190491

; 66   : 	{
; 67   : 		return 0;

  00284	33 c0		 xor	 eax, eax
  00286	eb 08		 jmp	 SHORT $L190488
$L190491:

; 68   : 	}
; 69   : 	else
; 70   : 		return Pane::getMinConstrainHorz();

  00288	8b 4d fc	 mov	 ecx, DWORD PTR _this$[ebp]
  0028b	e8 00 00 00 00	 call	 ?getMinConstrainHorz@Pane@ETSLayoutMgr@@UAEHXZ ; ETSLayoutMgr::Pane::getMinConstrainHorz
$L190488:

; 71   : }

  00290	52		 push	 edx
  00291	8b cd		 mov	 ecx, ebp
  00293	50		 push	 eax
  00294	8d 15 00 00 00
	00		 lea	 edx, DWORD PTR $L193077
  0029a	e8 00 00 00 00	 call	 @_RTC_CheckStackVars@8
  0029f	58		 pop	 eax
  002a0	5a		 pop	 edx
  002a1	83 c4 1c	 add	 esp, 28			; 0000001cH
  002a4	3b ec		 cmp	 ebp, esp
  002a6	e8 00 00 00 00	 call	 __RTC_CheckEsp
  002ab	8b e5		 mov	 esp, ebp
  002ad	5d		 pop	 ebp
  002ae	c3		 ret	 0
$L193077:
  002af	01 00 00 00	 DD	 1
  002b3	00 00 00 00	 DD	 $L193076
$L193076:
  002b7	e8 ff ff ff	 DD	 -24			; ffffffe8H
  002bb	10 00 00 00	 DD	 16			; 00000010H
  002bf	00 00 00 00	 DD	 $L193075
$L193075:
  002c3	72		 DB	 114			; 00000072H
  002c4	63		 DB	 99			; 00000063H
  002c5	00		 DB	 0
?getMinConstrainHorz@PaneSplitter@ETSLayoutMgr@@UAEHXZ ENDP ; ETSLayoutMgr::PaneSplitter::getMinConstrainHorz
; Function compile flags: /Odt /RTCsu
; File d:\boxgit\playbox\playbox\dev\prj\playbox\src\layoutmgr\etslayout.h
_TEXT	ENDS
;	COMDAT ?getPaneRect@PaneBase@ETSLayoutMgr@@QAE?AVCRect@@XZ
_TEXT	SEGMENT
_this$ = -4						; size = 4
___$ReturnUdt$ = 8					; size = 4
?getPaneRect@PaneBase@ETSLayoutMgr@@QAE?AVCRect@@XZ PROC NEAR ; ETSLayoutMgr::PaneBase::getPaneRect, COMDAT
; _this$ = ecx

; 296  : 		CRect getPaneRect(){return m_rcRect;};

  00000	55		 push	 ebp
  00001	8b ec		 mov	 ebp, esp
  00003	51		 push	 ecx
  00004	c7 45 fc cc cc
	cc cc		 mov	 DWORD PTR [ebp-4], -858993460 ; ccccccccH
  0000b	89 4d fc	 mov	 DWORD PTR _this$[ebp], ecx
  0000e	8b 45 fc	 mov	 eax, DWORD PTR _this$[ebp]
  00011	83 c0 28	 add	 eax, 40			; 00000028H
  00014	8b 4d 08	 mov	 ecx, DWORD PTR ___$ReturnUdt$[ebp]
  00017	8b 10		 mov	 edx, DWORD PTR [eax]
  00019	89 11		 mov	 DWORD PTR [ecx], edx
  0001b	8b 50 04	 mov	 edx, DWORD PTR [eax+4]
  0001e	89 51 04	 mov	 DWORD PTR [ecx+4], edx
  00021	8b 50 08	 mov	 edx, DWORD PTR [eax+8]
  00024	89 51 08	 mov	 DWORD PTR [ecx+8], edx
  00027	8b 40 0c	 mov	 eax, DWORD PTR [eax+12]
  0002a	89 41 0c	 mov	 DWORD PTR [ecx+12], eax
  0002d	8b 45 08	 mov	 eax, DWORD PTR ___$ReturnUdt$[ebp]
  00030	8b e5		 mov	 esp, ebp
  00032	5d		 pop	 ebp
  00033	c2 04 00	 ret	 4
?getPaneRect@PaneBase@ETSLayoutMgr@@QAE?AVCRect@@XZ ENDP ; ETSLayoutMgr::PaneBase::getPaneRect
_TEXT	ENDS
EXTRN	?getMinConstrainVert@Pane@ETSLayoutMgr@@UAEHXZ:NEAR ; ETSLayoutMgr::Pane::getMinConstrainVert
EXTRN	?Height@CRect@@QBEHXZ:NEAR			; CRect::Height
; Function compile flags: /Odt /RTCsu
; File d:\boxgit\playbox\playbox\dev\prj\playbox\src\layoutmgr\etslayoutex.cpp
_TEXT	SEGMENT
_rc$ = -24						; size = 16
_this$ = -4						; size = 4
?getMinConstrainVert@PaneSplitter@ETSLayoutMgr@@UAEHXZ PROC NEAR ; ETSLayoutMgr::PaneSplitter::getMinConstrainVert
; _this$ = ecx

; 74   : {

  002d0	55		 push	 ebp
  002d1	8b ec		 mov	 ebp, esp
  002d3	83 ec 1c	 sub	 esp, 28			; 0000001cH
  002d6	b8 cc cc cc cc	 mov	 eax, -858993460		; ccccccccH
  002db	89 45 e4	 mov	 DWORD PTR [ebp-28], eax
  002de	89 45 e8	 mov	 DWORD PTR [ebp-24], eax
  002e1	89 45 ec	 mov	 DWORD PTR [ebp-20], eax
  002e4	89 45 f0	 mov	 DWORD PTR [ebp-16], eax
  002e7	89 45 f4	 mov	 DWORD PTR [ebp-12], eax
  002ea	89 45 f8	 mov	 DWORD PTR [ebp-8], eax
  002ed	89 45 fc	 mov	 DWORD PTR [ebp-4], eax
  002f0	89 4d fc	 mov	 DWORD PTR _this$[ebp], ecx

; 75   : 	CRect rc = this->getPaneRect();

  002f3	8d 45 e8	 lea	 eax, DWORD PTR _rc$[ebp]
  002f6	50		 push	 eax
  002f7	8b 4d fc	 mov	 ecx, DWORD PTR _this$[ebp]
  002fa	e8 00 00 00 00	 call	 ?getPaneRect@PaneBase@ETSLayoutMgr@@QAE?AVCRect@@XZ ; ETSLayoutMgr::PaneBase::getPaneRect

; 76   : 
; 77   : 	if(m_Orientation == HORIZONTAL && rc.Height() <= 0)

  002ff	8b 4d fc	 mov	 ecx, DWORD PTR _this$[ebp]
  00302	83 79 60 00	 cmp	 DWORD PTR [ecx+96], 0
  00306	75 10		 jne	 SHORT $L190498
  00308	8d 4d e8	 lea	 ecx, DWORD PTR _rc$[ebp]
  0030b	e8 00 00 00 00	 call	 ?Height@CRect@@QBEHXZ	; CRect::Height
  00310	85 c0		 test	 eax, eax
  00312	7f 04		 jg	 SHORT $L190498

; 78   : 	{
; 79   : 		return 0;

  00314	33 c0		 xor	 eax, eax
  00316	eb 08		 jmp	 SHORT $L190495
$L190498:

; 80   : 	}
; 81   : 	else
; 82   : 		return Pane::getMinConstrainVert();

  00318	8b 4d fc	 mov	 ecx, DWORD PTR _this$[ebp]
  0031b	e8 00 00 00 00	 call	 ?getMinConstrainVert@Pane@ETSLayoutMgr@@UAEHXZ ; ETSLayoutMgr::Pane::getMinConstrainVert
$L190495:

; 83   : }

  00320	52		 push	 edx
  00321	8b cd		 mov	 ecx, ebp
  00323	50		 push	 eax
  00324	8d 15 00 00 00
	00		 lea	 edx, DWORD PTR $L193082
  0032a	e8 00 00 00 00	 call	 @_RTC_CheckStackVars@8
  0032f	58		 pop	 eax
  00330	5a		 pop	 edx
  00331	83 c4 1c	 add	 esp, 28			; 0000001cH
  00334	3b ec		 cmp	 ebp, esp
  00336	e8 00 00 00 00	 call	 __RTC_CheckEsp
  0033b	8b e5		 mov	 esp, ebp
  0033d	5d		 pop	 ebp
  0033e	c3		 ret	 0
$L193082:
  0033f	01 00 00 00	 DD	 1
  00343	00 00 00 00	 DD	 $L193081
$L193081:
  00347	e8 ff ff ff	 DD	 -24			; ffffffe8H
  0034b	10 00 00 00	 DD	 16			; 00000010H
  0034f	00 00 00 00	 DD	 $L193080
$L193080:
  00353	72		 DB	 114			; 00000072H
  00354	63		 DB	 99			; 00000063H
  00355	00		 DB	 0
?getMinConstrainVert@PaneSplitter@ETSLayoutMgr@@UAEHXZ ENDP ; ETSLayoutMgr::PaneSplitter::getMinConstrainVert
_TEXT	ENDS
PUBLIC	??A?$CArray@VCPaneBase@ETSLayoutMgr@@V12@@@QAEAAVCPaneBase@ETSLayoutMgr@@H@Z ; CArray<ETSLayoutMgr::CPaneBase,ETSLayoutMgr::CPaneBase>::operator[]
PUBLIC	?IsClosed@PaneSplitter@ETSLayoutMgr@@QAEHXZ	; ETSLayoutMgr::PaneSplitter::IsClosed
PUBLIC	?modeResize@PaneBase@ETSLayoutMgr@@QAEKXZ	; ETSLayoutMgr::PaneBase::modeResize
EXTRN	?resizeTo@Pane@ETSLayoutMgr@@UAE_NAAVCRect@@_N1@Z:NEAR ; ETSLayoutMgr::Pane::resizeTo
EXTRN	??0CPaneBase@ETSLayoutMgr@@QAE@ABV01@@Z:NEAR	; ETSLayoutMgr::CPaneBase::CPaneBase
EXTRN	??1CPaneBase@ETSLayoutMgr@@QAE@XZ:NEAR		; ETSLayoutMgr::CPaneBase::~CPaneBase
EXTRN	??CCPaneBase@ETSLayoutMgr@@QBEPAVPaneBase@1@XZ:NEAR ; ETSLayoutMgr::CPaneBase::operator->
xdata$x	SEGMENT
$T193100 DD	0ffffffffH
	DD	FLAT:$L193089
	DD	00H
	DD	FLAT:$L193090
	DD	01H
	DD	FLAT:$L193091
$T193093 DD	019930520H
	DD	03H
	DD	FLAT:$T193100
	DD	2 DUP(00H)
	DD	2 DUP(00H)
; Function compile flags: /Odt /RTCsu
xdata$x	ENDS
_TEXT	SEGMENT
tv212 = -148						; size = 4
tv197 = -144						; size = 4
tv173 = -140						; size = 4
tv158 = -136						; size = 4
$T193088 = -129						; size = 1
$T193087 = -128						; size = 16
$T193086 = -112						; size = 16
$T193085 = -96						; size = 16
$T193084 = -80						; size = 16
_pItem2$ = -60						; size = 4
_pItem1$ = -48						; size = 4
_pItem3$ = -36						; size = 4
_modeSize2$ = -28					; size = 4
_modeSize1$ = -24					; size = 4
_ret$ = -17						; size = 1
_this$ = -16						; size = 4
__$EHRec$ = -12						; size = 12
_rcNewArea$ = 8						; size = 4
_bRedraw$ = 12						; size = 1
_bReSizeAlways$ = 16					; size = 1
?resizeTo@PaneSplitter@ETSLayoutMgr@@UAE_NAAVCRect@@_N1@Z PROC NEAR ; ETSLayoutMgr::PaneSplitter::resizeTo
; _this$ = ecx

; 87   : {

  00360	55		 push	 ebp
  00361	8b ec		 mov	 ebp, esp
  00363	6a ff		 push	 -1
  00365	68 00 00 00 00	 push	 __ehhandler$?resizeTo@PaneSplitter@ETSLayoutMgr@@UAE_NAAVCRect@@_N1@Z
  0036a	64 a1 00 00 00
	00		 mov	 eax, DWORD PTR fs:__except_list
  00370	50		 push	 eax
  00371	64 89 25 00 00
	00 00		 mov	 DWORD PTR fs:__except_list, esp
  00378	81 ec 88 00 00
	00		 sub	 esp, 136		; 00000088H
  0037e	56		 push	 esi
  0037f	57		 push	 edi
  00380	51		 push	 ecx
  00381	8d bd 6c ff ff
	ff		 lea	 edi, DWORD PTR [ebp-148]
  00387	b9 22 00 00 00	 mov	 ecx, 34			; 00000022H
  0038c	b8 cc cc cc cc	 mov	 eax, -858993460		; ccccccccH
  00391	f3 ab		 rep stosd
  00393	59		 pop	 ecx
  00394	89 4d f0	 mov	 DWORD PTR _this$[ebp], ecx

; 88   : 	bool ret;
; 89   : 
; 90   : 	int modeSize1 , modeSize2 ;
; 91   : 	modeSize1 = modeSize2 = -1;

  00397	c7 45 e4 ff ff
	ff ff		 mov	 DWORD PTR _modeSize2$[ebp], -1
  0039e	8b 45 e4	 mov	 eax, DWORD PTR _modeSize2$[ebp]
  003a1	89 45 e8	 mov	 DWORD PTR _modeSize1$[ebp], eax

; 92   : 	if(rcNewArea.left > rcNewArea.right)

  003a4	8b 4d 08	 mov	 ecx, DWORD PTR _rcNewArea$[ebp]
  003a7	8b 55 08	 mov	 edx, DWORD PTR _rcNewArea$[ebp]
  003aa	8b 01		 mov	 eax, DWORD PTR [ecx]
  003ac	3b 42 08	 cmp	 eax, DWORD PTR [edx+8]
  003af	7e 07		 jle	 SHORT $L190509

; 93   : 		return true;

  003b1	b0 01		 mov	 al, 1
  003b3	e9 f4 02 00 00	 jmp	 $L190505
$L190509:

; 94   : 
; 95   : 	if( (rcNewArea.Width() < m_rcRect.Width()	|| rcNewArea.Height() < m_rcRect.Height() || m_nDeflate == -1)
; 96   : 		&& !this->IsClosed()
; 97   : 		)

  003b8	8b 4d 08	 mov	 ecx, DWORD PTR _rcNewArea$[ebp]
  003bb	e8 00 00 00 00	 call	 ?Width@CRect@@QBEHXZ	; CRect::Width
  003c0	8b f0		 mov	 esi, eax
  003c2	8b 4d f0	 mov	 ecx, DWORD PTR _this$[ebp]
  003c5	83 c1 28	 add	 ecx, 40			; 00000028H
  003c8	e8 00 00 00 00	 call	 ?Width@CRect@@QBEHXZ	; CRect::Width
  003cd	3b f0		 cmp	 esi, eax
  003cf	7c 25		 jl	 SHORT $L190511
  003d1	8b 4d 08	 mov	 ecx, DWORD PTR _rcNewArea$[ebp]
  003d4	e8 00 00 00 00	 call	 ?Height@CRect@@QBEHXZ	; CRect::Height
  003d9	8b f0		 mov	 esi, eax
  003db	8b 4d f0	 mov	 ecx, DWORD PTR _this$[ebp]
  003de	83 c1 28	 add	 ecx, 40			; 00000028H
  003e1	e8 00 00 00 00	 call	 ?Height@CRect@@QBEHXZ	; CRect::Height
  003e6	3b f0		 cmp	 esi, eax
  003e8	7c 0c		 jl	 SHORT $L190511
  003ea	8b 4d f0	 mov	 ecx, DWORD PTR _this$[ebp]
  003ed	83 b9 90 00 00
	00 ff		 cmp	 DWORD PTR [ecx+144], -1
  003f4	75 1b		 jne	 SHORT $L190510
$L190511:
  003f6	8b 4d f0	 mov	 ecx, DWORD PTR _this$[ebp]
  003f9	e8 00 00 00 00	 call	 ?IsClosed@PaneSplitter@ETSLayoutMgr@@QAEHXZ ; ETSLayoutMgr::PaneSplitter::IsClosed
  003fe	85 c0		 test	 eax, eax
  00400	75 0f		 jne	 SHORT $L190510

; 98   : 		m_nDeflate = true;

  00402	8b 55 f0	 mov	 edx, DWORD PTR _this$[ebp]
  00405	c7 82 90 00 00
	00 01 00 00 00	 mov	 DWORD PTR [edx+144], 1

; 99   : 	else

  0040f	eb 0d		 jmp	 SHORT $L190512
$L190510:

; 100  : 		m_nDeflate = false;

  00411	8b 45 f0	 mov	 eax, DWORD PTR _this$[ebp]
  00414	c7 80 90 00 00
	00 00 00 00 00	 mov	 DWORD PTR [eax+144], 0
$L190512:

; 101  : 
; 102  : 	CPaneBase pItem3 = this->m_paneItems[0];

  0041e	6a 00		 push	 0
  00420	8b 4d f0	 mov	 ecx, DWORD PTR _this$[ebp]
  00423	83 c1 64	 add	 ecx, 100		; 00000064H
  00426	e8 00 00 00 00	 call	 ??A?$CArray@VCPaneBase@ETSLayoutMgr@@V12@@@QAEAAVCPaneBase@ETSLayoutMgr@@H@Z ; CArray<ETSLayoutMgr::CPaneBase,ETSLayoutMgr::CPaneBase>::operator[]
  0042b	50		 push	 eax
  0042c	8d 4d dc	 lea	 ecx, DWORD PTR _pItem3$[ebp]
  0042f	e8 00 00 00 00	 call	 ??0CPaneBase@ETSLayoutMgr@@QAE@ABV01@@Z ; ETSLayoutMgr::CPaneBase::CPaneBase
  00434	c7 45 fc 00 00
	00 00		 mov	 DWORD PTR __$EHRec$[ebp+8], 0

; 103  : 	ret = Pane::resizeTo(rcNewArea, bRedraw, bReSizeAlways);

  0043b	8a 4d 10	 mov	 cl, BYTE PTR _bReSizeAlways$[ebp]
  0043e	51		 push	 ecx
  0043f	8a 55 0c	 mov	 dl, BYTE PTR _bRedraw$[ebp]
  00442	52		 push	 edx
  00443	8b 45 08	 mov	 eax, DWORD PTR _rcNewArea$[ebp]
  00446	50		 push	 eax
  00447	8b 4d f0	 mov	 ecx, DWORD PTR _this$[ebp]
  0044a	e8 00 00 00 00	 call	 ?resizeTo@Pane@ETSLayoutMgr@@UAE_NAAVCRect@@_N1@Z ; ETSLayoutMgr::Pane::resizeTo
  0044f	88 45 ef	 mov	 BYTE PTR _ret$[ebp], al

; 104  : //	this->m_pSpl->ShowWindow(SW_SHOW);
; 105  : 
; 106  : 	CPaneBase pItem1 = this->m_paneItems[0];

  00452	6a 00		 push	 0
  00454	8b 4d f0	 mov	 ecx, DWORD PTR _this$[ebp]
  00457	83 c1 64	 add	 ecx, 100		; 00000064H
  0045a	e8 00 00 00 00	 call	 ??A?$CArray@VCPaneBase@ETSLayoutMgr@@V12@@@QAEAAVCPaneBase@ETSLayoutMgr@@H@Z ; CArray<ETSLayoutMgr::CPaneBase,ETSLayoutMgr::CPaneBase>::operator[]
  0045f	50		 push	 eax
  00460	8d 4d d0	 lea	 ecx, DWORD PTR _pItem1$[ebp]
  00463	e8 00 00 00 00	 call	 ??0CPaneBase@ETSLayoutMgr@@QAE@ABV01@@Z ; ETSLayoutMgr::CPaneBase::CPaneBase
  00468	c6 45 fc 01	 mov	 BYTE PTR __$EHRec$[ebp+8], 1

; 107  : 	CPaneBase pItem2 = this->m_paneItems[2];

  0046c	6a 02		 push	 2
  0046e	8b 4d f0	 mov	 ecx, DWORD PTR _this$[ebp]
  00471	83 c1 64	 add	 ecx, 100		; 00000064H
  00474	e8 00 00 00 00	 call	 ??A?$CArray@VCPaneBase@ETSLayoutMgr@@V12@@@QAEAAVCPaneBase@ETSLayoutMgr@@H@Z ; CArray<ETSLayoutMgr::CPaneBase,ETSLayoutMgr::CPaneBase>::operator[]
  00479	50		 push	 eax
  0047a	8d 4d c4	 lea	 ecx, DWORD PTR _pItem2$[ebp]
  0047d	e8 00 00 00 00	 call	 ??0CPaneBase@ETSLayoutMgr@@QAE@ABV01@@Z ; ETSLayoutMgr::CPaneBase::CPaneBase
  00482	c6 45 fc 02	 mov	 BYTE PTR __$EHRec$[ebp+8], 2

; 108  : 	if( m_nDeflate &&
; 109  : 		(pItem1->getPaneRect().Width() == pItem1->getMinConstrainHorz() 
; 110  : 		|| pItem1->getPaneRect().Height() == pItem1->getMinConstrainVert())
; 111  : 		)

  00486	8b 4d f0	 mov	 ecx, DWORD PTR _this$[ebp]
  00489	83 b9 90 00 00
	00 00		 cmp	 DWORD PTR [ecx+144], 0
  00490	0f 84 b1 00 00
	00		 je	 $L190518
  00496	8d 4d d0	 lea	 ecx, DWORD PTR _pItem1$[ebp]
  00499	e8 00 00 00 00	 call	 ??CCPaneBase@ETSLayoutMgr@@QBEPAVPaneBase@1@XZ ; ETSLayoutMgr::CPaneBase::operator->
  0049e	89 85 78 ff ff
	ff		 mov	 DWORD PTR tv158[ebp], eax
  004a4	8b f4		 mov	 esi, esp
  004a6	8b 95 78 ff ff
	ff		 mov	 edx, DWORD PTR tv158[ebp]
  004ac	8b 02		 mov	 eax, DWORD PTR [edx]
  004ae	8b 8d 78 ff ff
	ff		 mov	 ecx, DWORD PTR tv158[ebp]
  004b4	ff 50 08	 call	 DWORD PTR [eax+8]
  004b7	3b f4		 cmp	 esi, esp
  004b9	e8 00 00 00 00	 call	 __RTC_CheckEsp
  004be	8b f0		 mov	 esi, eax
  004c0	8d 4d b0	 lea	 ecx, DWORD PTR $T193084[ebp]
  004c3	51		 push	 ecx
  004c4	8d 4d d0	 lea	 ecx, DWORD PTR _pItem1$[ebp]
  004c7	e8 00 00 00 00	 call	 ??CCPaneBase@ETSLayoutMgr@@QBEPAVPaneBase@1@XZ ; ETSLayoutMgr::CPaneBase::operator->
  004cc	8b c8		 mov	 ecx, eax
  004ce	e8 00 00 00 00	 call	 ?getPaneRect@PaneBase@ETSLayoutMgr@@QAE?AVCRect@@XZ ; ETSLayoutMgr::PaneBase::getPaneRect
  004d3	8b c8		 mov	 ecx, eax
  004d5	e8 00 00 00 00	 call	 ?Width@CRect@@QBEHXZ	; CRect::Width
  004da	3b c6		 cmp	 eax, esi
  004dc	74 48		 je	 SHORT $L190519
  004de	8d 4d d0	 lea	 ecx, DWORD PTR _pItem1$[ebp]
  004e1	e8 00 00 00 00	 call	 ??CCPaneBase@ETSLayoutMgr@@QBEPAVPaneBase@1@XZ ; ETSLayoutMgr::CPaneBase::operator->
  004e6	89 85 74 ff ff
	ff		 mov	 DWORD PTR tv173[ebp], eax
  004ec	8b f4		 mov	 esi, esp
  004ee	8b 95 74 ff ff
	ff		 mov	 edx, DWORD PTR tv173[ebp]
  004f4	8b 02		 mov	 eax, DWORD PTR [edx]
  004f6	8b 8d 74 ff ff
	ff		 mov	 ecx, DWORD PTR tv173[ebp]
  004fc	ff 50 10	 call	 DWORD PTR [eax+16]
  004ff	3b f4		 cmp	 esi, esp
  00501	e8 00 00 00 00	 call	 __RTC_CheckEsp
  00506	8b f0		 mov	 esi, eax
  00508	8d 4d a0	 lea	 ecx, DWORD PTR $T193085[ebp]
  0050b	51		 push	 ecx
  0050c	8d 4d d0	 lea	 ecx, DWORD PTR _pItem1$[ebp]
  0050f	e8 00 00 00 00	 call	 ??CCPaneBase@ETSLayoutMgr@@QBEPAVPaneBase@1@XZ ; ETSLayoutMgr::CPaneBase::operator->
  00514	8b c8		 mov	 ecx, eax
  00516	e8 00 00 00 00	 call	 ?getPaneRect@PaneBase@ETSLayoutMgr@@QAE?AVCRect@@XZ ; ETSLayoutMgr::PaneBase::getPaneRect
  0051b	8b c8		 mov	 ecx, eax
  0051d	e8 00 00 00 00	 call	 ?Height@CRect@@QBEHXZ	; CRect::Height
  00522	3b c6		 cmp	 eax, esi
  00524	75 21		 jne	 SHORT $L190518
$L190519:

; 112  : 	{
; 113  : 		modeSize2 = pItem2->modeResize();

  00526	8d 4d c4	 lea	 ecx, DWORD PTR _pItem2$[ebp]
  00529	e8 00 00 00 00	 call	 ??CCPaneBase@ETSLayoutMgr@@QBEPAVPaneBase@1@XZ ; ETSLayoutMgr::CPaneBase::operator->
  0052e	8b c8		 mov	 ecx, eax
  00530	e8 00 00 00 00	 call	 ?modeResize@PaneBase@ETSLayoutMgr@@QAEKXZ ; ETSLayoutMgr::PaneBase::modeResize
  00535	89 45 e4	 mov	 DWORD PTR _modeSize2$[ebp], eax

; 114  : 		pItem2->m_modeResize = GREEDY;

  00538	8d 4d c4	 lea	 ecx, DWORD PTR _pItem2$[ebp]
  0053b	e8 00 00 00 00	 call	 ??CCPaneBase@ETSLayoutMgr@@QBEPAVPaneBase@1@XZ ; ETSLayoutMgr::CPaneBase::operator->
  00540	c7 40 18 00 00
	00 00		 mov	 DWORD PTR [eax+24], 0
$L190518:

; 115  : 
; 116  : 	}
; 117  : 	if( m_nDeflate &&
; 118  : 		(pItem2->getPaneRect().Width() == pItem2->getMinConstrainHorz() 
; 119  : 		|| pItem2->getPaneRect().Height() == pItem2->getMinConstrainVert())
; 120  : 		)

  00547	8b 55 f0	 mov	 edx, DWORD PTR _this$[ebp]
  0054a	83 ba 90 00 00
	00 00		 cmp	 DWORD PTR [edx+144], 0
  00551	0f 84 b1 00 00
	00		 je	 $L190522
  00557	8d 4d c4	 lea	 ecx, DWORD PTR _pItem2$[ebp]
  0055a	e8 00 00 00 00	 call	 ??CCPaneBase@ETSLayoutMgr@@QBEPAVPaneBase@1@XZ ; ETSLayoutMgr::CPaneBase::operator->
  0055f	89 85 70 ff ff
	ff		 mov	 DWORD PTR tv197[ebp], eax
  00565	8b f4		 mov	 esi, esp
  00567	8b 85 70 ff ff
	ff		 mov	 eax, DWORD PTR tv197[ebp]
  0056d	8b 10		 mov	 edx, DWORD PTR [eax]
  0056f	8b 8d 70 ff ff
	ff		 mov	 ecx, DWORD PTR tv197[ebp]
  00575	ff 52 08	 call	 DWORD PTR [edx+8]
  00578	3b f4		 cmp	 esi, esp
  0057a	e8 00 00 00 00	 call	 __RTC_CheckEsp
  0057f	8b f0		 mov	 esi, eax
  00581	8d 45 90	 lea	 eax, DWORD PTR $T193086[ebp]
  00584	50		 push	 eax
  00585	8d 4d c4	 lea	 ecx, DWORD PTR _pItem2$[ebp]
  00588	e8 00 00 00 00	 call	 ??CCPaneBase@ETSLayoutMgr@@QBEPAVPaneBase@1@XZ ; ETSLayoutMgr::CPaneBase::operator->
  0058d	8b c8		 mov	 ecx, eax
  0058f	e8 00 00 00 00	 call	 ?getPaneRect@PaneBase@ETSLayoutMgr@@QAE?AVCRect@@XZ ; ETSLayoutMgr::PaneBase::getPaneRect
  00594	8b c8		 mov	 ecx, eax
  00596	e8 00 00 00 00	 call	 ?Width@CRect@@QBEHXZ	; CRect::Width
  0059b	3b c6		 cmp	 eax, esi
  0059d	74 48		 je	 SHORT $L190523
  0059f	8d 4d c4	 lea	 ecx, DWORD PTR _pItem2$[ebp]
  005a2	e8 00 00 00 00	 call	 ??CCPaneBase@ETSLayoutMgr@@QBEPAVPaneBase@1@XZ ; ETSLayoutMgr::CPaneBase::operator->
  005a7	89 85 6c ff ff
	ff		 mov	 DWORD PTR tv212[ebp], eax
  005ad	8b f4		 mov	 esi, esp
  005af	8b 8d 6c ff ff
	ff		 mov	 ecx, DWORD PTR tv212[ebp]
  005b5	8b 11		 mov	 edx, DWORD PTR [ecx]
  005b7	8b 8d 6c ff ff
	ff		 mov	 ecx, DWORD PTR tv212[ebp]
  005bd	ff 52 10	 call	 DWORD PTR [edx+16]
  005c0	3b f4		 cmp	 esi, esp
  005c2	e8 00 00 00 00	 call	 __RTC_CheckEsp
  005c7	8b f0		 mov	 esi, eax
  005c9	8d 45 80	 lea	 eax, DWORD PTR $T193087[ebp]
  005cc	50		 push	 eax
  005cd	8d 4d c4	 lea	 ecx, DWORD PTR _pItem2$[ebp]
  005d0	e8 00 00 00 00	 call	 ??CCPaneBase@ETSLayoutMgr@@QBEPAVPaneBase@1@XZ ; ETSLayoutMgr::CPaneBase::operator->
  005d5	8b c8		 mov	 ecx, eax
  005d7	e8 00 00 00 00	 call	 ?getPaneRect@PaneBase@ETSLayoutMgr@@QAE?AVCRect@@XZ ; ETSLayoutMgr::PaneBase::getPaneRect
  005dc	8b c8		 mov	 ecx, eax
  005de	e8 00 00 00 00	 call	 ?Height@CRect@@QBEHXZ	; CRect::Height
  005e3	3b c6		 cmp	 eax, esi
  005e5	75 21		 jne	 SHORT $L190522
$L190523:

; 121  : 	{
; 122  : 		modeSize1 = pItem1->modeResize();

  005e7	8d 4d d0	 lea	 ecx, DWORD PTR _pItem1$[ebp]
  005ea	e8 00 00 00 00	 call	 ??CCPaneBase@ETSLayoutMgr@@QBEPAVPaneBase@1@XZ ; ETSLayoutMgr::CPaneBase::operator->
  005ef	8b c8		 mov	 ecx, eax
  005f1	e8 00 00 00 00	 call	 ?modeResize@PaneBase@ETSLayoutMgr@@QAEKXZ ; ETSLayoutMgr::PaneBase::modeResize
  005f6	89 45 e8	 mov	 DWORD PTR _modeSize1$[ebp], eax

; 123  : 		pItem1->m_modeResize = GREEDY;

  005f9	8d 4d d0	 lea	 ecx, DWORD PTR _pItem1$[ebp]
  005fc	e8 00 00 00 00	 call	 ??CCPaneBase@ETSLayoutMgr@@QBEPAVPaneBase@1@XZ ; ETSLayoutMgr::CPaneBase::operator->
  00601	c7 40 18 00 00
	00 00		 mov	 DWORD PTR [eax+24], 0
$L190522:

; 124  : 	}
; 125  : 
; 126  : 
; 127  : 	ret = Pane::resizeTo(rcNewArea, bRedraw, bReSizeAlways);

  00608	8a 4d 10	 mov	 cl, BYTE PTR _bReSizeAlways$[ebp]
  0060b	51		 push	 ecx
  0060c	8a 55 0c	 mov	 dl, BYTE PTR _bRedraw$[ebp]
  0060f	52		 push	 edx
  00610	8b 45 08	 mov	 eax, DWORD PTR _rcNewArea$[ebp]
  00613	50		 push	 eax
  00614	8b 4d f0	 mov	 ecx, DWORD PTR _this$[ebp]
  00617	e8 00 00 00 00	 call	 ?resizeTo@Pane@ETSLayoutMgr@@UAE_NAAVCRect@@_N1@Z ; ETSLayoutMgr::Pane::resizeTo
  0061c	88 45 ef	 mov	 BYTE PTR _ret$[ebp], al

; 128  : 	m_rcRect = rcNewArea;

  0061f	8b 4d 08	 mov	 ecx, DWORD PTR _rcNewArea$[ebp]
  00622	8b 55 f0	 mov	 edx, DWORD PTR _this$[ebp]
  00625	83 c2 28	 add	 edx, 40			; 00000028H
  00628	8b 01		 mov	 eax, DWORD PTR [ecx]
  0062a	89 02		 mov	 DWORD PTR [edx], eax
  0062c	8b 41 04	 mov	 eax, DWORD PTR [ecx+4]
  0062f	89 42 04	 mov	 DWORD PTR [edx+4], eax
  00632	8b 41 08	 mov	 eax, DWORD PTR [ecx+8]
  00635	89 42 08	 mov	 DWORD PTR [edx+8], eax
  00638	8b 49 0c	 mov	 ecx, DWORD PTR [ecx+12]
  0063b	89 4a 0c	 mov	 DWORD PTR [edx+12], ecx

; 129  : 	m_pSpl->ShowWindow(SW_SHOW);

  0063e	6a 05		 push	 5
  00640	8b 55 f0	 mov	 edx, DWORD PTR _this$[ebp]
  00643	8b 8a 94 00 00
	00		 mov	 ecx, DWORD PTR [edx+148]
  00649	e8 00 00 00 00	 call	 ?ShowWindow@CWnd@@QAEHH@Z ; CWnd::ShowWindow

; 130  : 
; 131  : 	if(modeSize1 != -1)

  0064e	83 7d e8 ff	 cmp	 DWORD PTR _modeSize1$[ebp], -1
  00652	74 0e		 je	 SHORT $L190524

; 132  : 		pItem1->m_modeResize = modeSize1;

  00654	8d 4d d0	 lea	 ecx, DWORD PTR _pItem1$[ebp]
  00657	e8 00 00 00 00	 call	 ??CCPaneBase@ETSLayoutMgr@@QBEPAVPaneBase@1@XZ ; ETSLayoutMgr::CPaneBase::operator->
  0065c	8b 4d e8	 mov	 ecx, DWORD PTR _modeSize1$[ebp]
  0065f	89 48 18	 mov	 DWORD PTR [eax+24], ecx
$L190524:

; 133  : 	if(modeSize2 != -1)

  00662	83 7d e4 ff	 cmp	 DWORD PTR _modeSize2$[ebp], -1
  00666	74 0e		 je	 SHORT $L190525

; 134  : 		pItem2->m_modeResize = modeSize2;

  00668	8d 4d c4	 lea	 ecx, DWORD PTR _pItem2$[ebp]
  0066b	e8 00 00 00 00	 call	 ??CCPaneBase@ETSLayoutMgr@@QBEPAVPaneBase@1@XZ ; ETSLayoutMgr::CPaneBase::operator->
  00670	8b 55 e4	 mov	 edx, DWORD PTR _modeSize2$[ebp]
  00673	89 50 18	 mov	 DWORD PTR [eax+24], edx
$L190525:

; 135  : 
; 136  : 	return ret;

  00676	8a 45 ef	 mov	 al, BYTE PTR _ret$[ebp]
  00679	88 85 7f ff ff
	ff		 mov	 BYTE PTR $T193088[ebp], al
  0067f	c6 45 fc 01	 mov	 BYTE PTR __$EHRec$[ebp+8], 1
  00683	8d 4d c4	 lea	 ecx, DWORD PTR _pItem2$[ebp]
  00686	e8 00 00 00 00	 call	 ??1CPaneBase@ETSLayoutMgr@@QAE@XZ ; ETSLayoutMgr::CPaneBase::~CPaneBase
  0068b	c6 45 fc 00	 mov	 BYTE PTR __$EHRec$[ebp+8], 0
  0068f	8d 4d d0	 lea	 ecx, DWORD PTR _pItem1$[ebp]
  00692	e8 00 00 00 00	 call	 ??1CPaneBase@ETSLayoutMgr@@QAE@XZ ; ETSLayoutMgr::CPaneBase::~CPaneBase
  00697	c7 45 fc ff ff
	ff ff		 mov	 DWORD PTR __$EHRec$[ebp+8], -1
  0069e	8d 4d dc	 lea	 ecx, DWORD PTR _pItem3$[ebp]
  006a1	e8 00 00 00 00	 call	 ??1CPaneBase@ETSLayoutMgr@@QAE@XZ ; ETSLayoutMgr::CPaneBase::~CPaneBase
  006a6	8a 85 7f ff ff
	ff		 mov	 al, BYTE PTR $T193088[ebp]
$L190505:

; 137  : }

  006ac	52		 push	 edx
  006ad	8b cd		 mov	 ecx, ebp
  006af	50		 push	 eax
  006b0	8d 15 00 00 00
	00		 lea	 edx, DWORD PTR $L193099
  006b6	e8 00 00 00 00	 call	 @_RTC_CheckStackVars@8
  006bb	58		 pop	 eax
  006bc	5a		 pop	 edx
  006bd	8b 4d f4	 mov	 ecx, DWORD PTR __$EHRec$[ebp]
  006c0	64 89 0d 00 00
	00 00		 mov	 DWORD PTR fs:__except_list, ecx
  006c7	5f		 pop	 edi
  006c8	5e		 pop	 esi
  006c9	81 c4 94 00 00
	00		 add	 esp, 148		; 00000094H
  006cf	3b ec		 cmp	 ebp, esp
  006d1	e8 00 00 00 00	 call	 __RTC_CheckEsp
  006d6	8b e5		 mov	 esp, ebp
  006d8	5d		 pop	 ebp
  006d9	c2 0c 00	 ret	 12			; 0000000cH
$L193099:
  006dc	03 00 00 00	 DD	 3
  006e0	00 00 00 00	 DD	 $L193098
$L193098:
  006e4	dc ff ff ff	 DD	 -36			; ffffffdcH
  006e8	04 00 00 00	 DD	 4
  006ec	00 00 00 00	 DD	 $L193094
  006f0	d0 ff ff ff	 DD	 -48			; ffffffd0H
  006f4	04 00 00 00	 DD	 4
  006f8	00 00 00 00	 DD	 $L193095
  006fc	c4 ff ff ff	 DD	 -60			; ffffffc4H
  00700	04 00 00 00	 DD	 4
  00704	00 00 00 00	 DD	 $L193096
$L193096:
  00708	70		 DB	 112			; 00000070H
  00709	49		 DB	 73			; 00000049H
  0070a	74		 DB	 116			; 00000074H
  0070b	65		 DB	 101			; 00000065H
  0070c	6d		 DB	 109			; 0000006dH
  0070d	32		 DB	 50			; 00000032H
  0070e	00		 DB	 0
$L193095:
  0070f	70		 DB	 112			; 00000070H
  00710	49		 DB	 73			; 00000049H
  00711	74		 DB	 116			; 00000074H
  00712	65		 DB	 101			; 00000065H
  00713	6d		 DB	 109			; 0000006dH
  00714	31		 DB	 49			; 00000031H
  00715	00		 DB	 0
$L193094:
  00716	70		 DB	 112			; 00000070H
  00717	49		 DB	 73			; 00000049H
  00718	74		 DB	 116			; 00000074H
  00719	65		 DB	 101			; 00000065H
  0071a	6d		 DB	 109			; 0000006dH
  0071b	33		 DB	 51			; 00000033H
  0071c	00		 DB	 0
_TEXT	ENDS
text$x	SEGMENT
$L193089:
  00027	8d 4d dc	 lea	 ecx, DWORD PTR _pItem3$[ebp]
  0002a	e9 00 00 00 00	 jmp	 ??1CPaneBase@ETSLayoutMgr@@QAE@XZ ; ETSLayoutMgr::CPaneBase::~CPaneBase
$L193090:
  0002f	8d 4d d0	 lea	 ecx, DWORD PTR _pItem1$[ebp]
  00032	e9 00 00 00 00	 jmp	 ??1CPaneBase@ETSLayoutMgr@@QAE@XZ ; ETSLayoutMgr::CPaneBase::~CPaneBase
$L193091:
  00037	8d 4d c4	 lea	 ecx, DWORD PTR _pItem2$[ebp]
  0003a	e9 00 00 00 00	 jmp	 ??1CPaneBase@ETSLayoutMgr@@QAE@XZ ; ETSLayoutMgr::CPaneBase::~CPaneBase
__ehhandler$?resizeTo@PaneSplitter@ETSLayoutMgr@@UAE_NAAVCRect@@_N1@Z:
  0003f	b8 00 00 00 00	 mov	 eax, OFFSET FLAT:$T193093
  00044	e9 00 00 00 00	 jmp	 ___CxxFrameHandler
text$x	ENDS
?resizeTo@PaneSplitter@ETSLayoutMgr@@UAE_NAAVCRect@@_N1@Z ENDP ; ETSLayoutMgr::PaneSplitter::resizeTo
; Function compile flags: /Odt /RTCsu
; File d:\boxgit\playbox\playbox\dev\prj\playbox\src\layoutmgr\etslayout.h
;	COMDAT ?modeResize@PaneBase@ETSLayoutMgr@@QAEKXZ
_TEXT	SEGMENT
_this$ = -4						; size = 4
?modeResize@PaneBase@ETSLayoutMgr@@QAEKXZ PROC NEAR	; ETSLayoutMgr::PaneBase::modeResize, COMDAT
; _this$ = ecx

; 294  : 		DWORD	modeResize() { return m_modeResize; };

  00000	55		 push	 ebp
  00001	8b ec		 mov	 ebp, esp
  00003	51		 push	 ecx
  00004	c7 45 fc cc cc
	cc cc		 mov	 DWORD PTR [ebp-4], -858993460 ; ccccccccH
  0000b	89 4d fc	 mov	 DWORD PTR _this$[ebp], ecx
  0000e	8b 45 fc	 mov	 eax, DWORD PTR _this$[ebp]
  00011	8b 40 18	 mov	 eax, DWORD PTR [eax+24]
  00014	8b e5		 mov	 esp, ebp
  00016	5d		 pop	 ebp
  00017	c3		 ret	 0
?modeResize@PaneBase@ETSLayoutMgr@@QAEKXZ ENDP		; ETSLayoutMgr::PaneBase::modeResize
_TEXT	ENDS
PUBLIC	?setOpenConstrain@PaneSplitter@ETSLayoutMgr@@QAEXXZ ; ETSLayoutMgr::PaneSplitter::setOpenConstrain
PUBLIC	??0CTraceFileAndLineInfo@ATL@@QAE@PBDH@Z	; ATL::CTraceFileAndLineInfo::CTraceFileAndLineInfo
PUBLIC	??RCTraceFileAndLineInfo@ATL@@QBAXPBDZZ		; ATL::CTraceFileAndLineInfo::operator()
EXTRN	??0CPaneBase@ETSLayoutMgr@@QAE@XZ:NEAR		; ETSLayoutMgr::CPaneBase::CPaneBase
EXTRN	??4CPaneBase@ETSLayoutMgr@@QAEXABV01@@Z:NEAR	; ETSLayoutMgr::CPaneBase::operator=
xdata$x	SEGMENT
$T193112 DD	0ffffffffH
	DD	FLAT:$L193104
$T193106 DD	019930520H
	DD	01H
	DD	FLAT:$T193112
	DD	2 DUP(00H)
	DD	2 DUP(00H)
; Function compile flags: /Odt /RTCsu
; File d:\boxgit\playbox\playbox\dev\prj\playbox\src\layoutmgr\etslayoutex.cpp
xdata$x	ENDS
_TEXT	SEGMENT
$T193103 = -60						; size = 8
_rc$ = -48						; size = 16
_pItem$ = -24						; size = 4
_this$ = -16						; size = 4
__$EHRec$ = -12						; size = 12
?setOpenConstrain@PaneSplitter@ETSLayoutMgr@@QAEXXZ PROC NEAR ; ETSLayoutMgr::PaneSplitter::setOpenConstrain
; _this$ = ecx

; 141  : {

  00720	55		 push	 ebp
  00721	8b ec		 mov	 ebp, esp
  00723	6a ff		 push	 -1
  00725	68 00 00 00 00	 push	 __ehhandler$?setOpenConstrain@PaneSplitter@ETSLayoutMgr@@QAEXXZ
  0072a	64 a1 00 00 00
	00		 mov	 eax, DWORD PTR fs:__except_list
  00730	50		 push	 eax
  00731	64 89 25 00 00
	00 00		 mov	 DWORD PTR fs:__except_list, esp
  00738	83 ec 30	 sub	 esp, 48			; 00000030H
  0073b	57		 push	 edi
  0073c	51		 push	 ecx
  0073d	8d 7d c4	 lea	 edi, DWORD PTR [ebp-60]
  00740	b9 0c 00 00 00	 mov	 ecx, 12			; 0000000cH
  00745	b8 cc cc cc cc	 mov	 eax, -858993460		; ccccccccH
  0074a	f3 ab		 rep stosd
  0074c	59		 pop	 ecx
  0074d	89 4d f0	 mov	 DWORD PTR _this$[ebp], ecx

; 142  : 	CPaneBase pItem;

  00750	8d 4d e8	 lea	 ecx, DWORD PTR _pItem$[ebp]
  00753	e8 00 00 00 00	 call	 ??0CPaneBase@ETSLayoutMgr@@QAE@XZ ; ETSLayoutMgr::CPaneBase::CPaneBase
  00758	c7 45 fc 00 00
	00 00		 mov	 DWORD PTR __$EHRec$[ebp+8], 0

; 143  : 	if(this->m_nClosedOri == 0)

  0075f	8b 45 f0	 mov	 eax, DWORD PTR _this$[ebp]
  00762	83 b8 84 00 00
	00 00		 cmp	 DWORD PTR [eax+132], 0
  00769	75 18		 jne	 SHORT $L190531

; 144  : 		pItem = m_paneItems[0];

  0076b	6a 00		 push	 0
  0076d	8b 4d f0	 mov	 ecx, DWORD PTR _this$[ebp]
  00770	83 c1 64	 add	 ecx, 100		; 00000064H
  00773	e8 00 00 00 00	 call	 ??A?$CArray@VCPaneBase@ETSLayoutMgr@@V12@@@QAEAAVCPaneBase@ETSLayoutMgr@@H@Z ; CArray<ETSLayoutMgr::CPaneBase,ETSLayoutMgr::CPaneBase>::operator[]
  00778	50		 push	 eax
  00779	8d 4d e8	 lea	 ecx, DWORD PTR _pItem$[ebp]
  0077c	e8 00 00 00 00	 call	 ??4CPaneBase@ETSLayoutMgr@@QAEXABV01@@Z ; ETSLayoutMgr::CPaneBase::operator=

; 145  : 	else

  00781	eb 16		 jmp	 SHORT $L190532
$L190531:

; 146  : 		pItem = m_paneItems[2];

  00783	6a 02		 push	 2
  00785	8b 4d f0	 mov	 ecx, DWORD PTR _this$[ebp]
  00788	83 c1 64	 add	 ecx, 100		; 00000064H
  0078b	e8 00 00 00 00	 call	 ??A?$CArray@VCPaneBase@ETSLayoutMgr@@V12@@@QAEAAVCPaneBase@ETSLayoutMgr@@H@Z ; CArray<ETSLayoutMgr::CPaneBase,ETSLayoutMgr::CPaneBase>::operator[]
  00790	50		 push	 eax
  00791	8d 4d e8	 lea	 ecx, DWORD PTR _pItem$[ebp]
  00794	e8 00 00 00 00	 call	 ??4CPaneBase@ETSLayoutMgr@@QAEXABV01@@Z ; ETSLayoutMgr::CPaneBase::operator=
$L190532:

; 147  : 	CRect rc = pItem->getPaneRect();

  00799	8d 4d d0	 lea	 ecx, DWORD PTR _rc$[ebp]
  0079c	51		 push	 ecx
  0079d	8d 4d e8	 lea	 ecx, DWORD PTR _pItem$[ebp]
  007a0	e8 00 00 00 00	 call	 ??CCPaneBase@ETSLayoutMgr@@QBEPAVPaneBase@1@XZ ; ETSLayoutMgr::CPaneBase::operator->
  007a5	8b c8		 mov	 ecx, eax
  007a7	e8 00 00 00 00	 call	 ?getPaneRect@PaneBase@ETSLayoutMgr@@QAE?AVCRect@@XZ ; ETSLayoutMgr::PaneBase::getPaneRect

; 148  : 	
; 149  : 	if(this->m_Orientation == ETSLayoutMgr::HORIZONTAL)

  007ac	8b 55 f0	 mov	 edx, DWORD PTR _this$[ebp]
  007af	83 7a 60 00	 cmp	 DWORD PTR [edx+96], 0
  007b3	75 3d		 jne	 SHORT $L190535

; 150  : 	{
; 151  : 		this->m_nSplOpendPos = rc.Width();

  007b5	8d 4d d0	 lea	 ecx, DWORD PTR _rc$[ebp]
  007b8	e8 00 00 00 00	 call	 ?Width@CRect@@QBEHXZ	; CRect::Width
  007bd	8b 4d f0	 mov	 ecx, DWORD PTR _this$[ebp]
  007c0	89 81 8c 00 00
	00		 mov	 DWORD PTR [ecx+140], eax

; 152  : 		TRACE("fff%d\n", m_nSplOpendPos);

  007c6	8b 55 f0	 mov	 edx, DWORD PTR _this$[ebp]
  007c9	8b 82 8c 00 00
	00		 mov	 eax, DWORD PTR [edx+140]
  007cf	50		 push	 eax
  007d0	68 00 00 00 00	 push	 OFFSET FLAT:$SG190538
  007d5	68 98 00 00 00	 push	 152			; 00000098H
  007da	68 00 00 00 00	 push	 OFFSET FLAT:$SG190537
  007df	8d 4d c4	 lea	 ecx, DWORD PTR $T193103[ebp]
  007e2	e8 00 00 00 00	 call	 ??0CTraceFileAndLineInfo@ATL@@QAE@PBDH@Z ; ATL::CTraceFileAndLineInfo::CTraceFileAndLineInfo
  007e7	50		 push	 eax
  007e8	e8 00 00 00 00	 call	 ??RCTraceFileAndLineInfo@ATL@@QBAXPBDZZ ; ATL::CTraceFileAndLineInfo::operator()
  007ed	83 c4 0c	 add	 esp, 12			; 0000000cH

; 153  : 	}
; 154  : 	else

  007f0	eb 11		 jmp	 SHORT $L190539
$L190535:

; 155  : 	{
; 156  : 		this->m_nSplOpendPos = rc.Height();

  007f2	8d 4d d0	 lea	 ecx, DWORD PTR _rc$[ebp]
  007f5	e8 00 00 00 00	 call	 ?Height@CRect@@QBEHXZ	; CRect::Height
  007fa	8b 4d f0	 mov	 ecx, DWORD PTR _this$[ebp]
  007fd	89 81 8c 00 00
	00		 mov	 DWORD PTR [ecx+140], eax
$L190539:

; 157  : 	}
; 158  : 
; 159  : 	//m_sizeSecondary = m_nSplOpendPos;
; 160  : }

  00803	c7 45 fc ff ff
	ff ff		 mov	 DWORD PTR __$EHRec$[ebp+8], -1
  0080a	8d 4d e8	 lea	 ecx, DWORD PTR _pItem$[ebp]
  0080d	e8 00 00 00 00	 call	 ??1CPaneBase@ETSLayoutMgr@@QAE@XZ ; ETSLayoutMgr::CPaneBase::~CPaneBase
  00812	52		 push	 edx
  00813	8b cd		 mov	 ecx, ebp
  00815	50		 push	 eax
  00816	8d 15 00 00 00
	00		 lea	 edx, DWORD PTR $L193111
  0081c	e8 00 00 00 00	 call	 @_RTC_CheckStackVars@8
  00821	58		 pop	 eax
  00822	5a		 pop	 edx
  00823	8b 4d f4	 mov	 ecx, DWORD PTR __$EHRec$[ebp]
  00826	64 89 0d 00 00
	00 00		 mov	 DWORD PTR fs:__except_list, ecx
  0082d	5f		 pop	 edi
  0082e	83 c4 3c	 add	 esp, 60			; 0000003cH
  00831	3b ec		 cmp	 ebp, esp
  00833	e8 00 00 00 00	 call	 __RTC_CheckEsp
  00838	8b e5		 mov	 esp, ebp
  0083a	5d		 pop	 ebp
  0083b	c3		 ret	 0
$L193111:
  0083c	02 00 00 00	 DD	 2
  00840	00 00 00 00	 DD	 $L193110
$L193110:
  00844	e8 ff ff ff	 DD	 -24			; ffffffe8H
  00848	04 00 00 00	 DD	 4
  0084c	00 00 00 00	 DD	 $L193107
  00850	d0 ff ff ff	 DD	 -48			; ffffffd0H
  00854	10 00 00 00	 DD	 16			; 00000010H
  00858	00 00 00 00	 DD	 $L193108
$L193108:
  0085c	72		 DB	 114			; 00000072H
  0085d	63		 DB	 99			; 00000063H
  0085e	00		 DB	 0
$L193107:
  0085f	70		 DB	 112			; 00000070H
  00860	49		 DB	 73			; 00000049H
  00861	74		 DB	 116			; 00000074H
  00862	65		 DB	 101			; 00000065H
  00863	6d		 DB	 109			; 0000006dH
  00864	00		 DB	 0
_TEXT	ENDS
text$x	SEGMENT
$L193104:
  00049	8d 4d e8	 lea	 ecx, DWORD PTR _pItem$[ebp]
  0004c	e9 00 00 00 00	 jmp	 ??1CPaneBase@ETSLayoutMgr@@QAE@XZ ; ETSLayoutMgr::CPaneBase::~CPaneBase
__ehhandler$?setOpenConstrain@PaneSplitter@ETSLayoutMgr@@QAEXXZ:
  00051	b8 00 00 00 00	 mov	 eax, OFFSET FLAT:$T193106
  00056	e9 00 00 00 00	 jmp	 ___CxxFrameHandler
text$x	ENDS
?setOpenConstrain@PaneSplitter@ETSLayoutMgr@@QAEXXZ ENDP ; ETSLayoutMgr::PaneSplitter::setOpenConstrain
; Function compile flags: /Odt /RTCsu
; File d:\program files (x86)\microsoft visual studio .net 2003\vc7\atlmfc\include\atltrace.h
;	COMDAT ??0CTraceFileAndLineInfo@ATL@@QAE@PBDH@Z
_TEXT	SEGMENT
_this$ = -4						; size = 4
_pszFileName$ = 8					; size = 4
_nLineNo$ = 12						; size = 4
??0CTraceFileAndLineInfo@ATL@@QAE@PBDH@Z PROC NEAR	; ATL::CTraceFileAndLineInfo::CTraceFileAndLineInfo, COMDAT
; _this$ = ecx

; 158  : 	{}

  00000	55		 push	 ebp
  00001	8b ec		 mov	 ebp, esp
  00003	51		 push	 ecx
  00004	c7 45 fc cc cc
	cc cc		 mov	 DWORD PTR [ebp-4], -858993460 ; ccccccccH
  0000b	89 4d fc	 mov	 DWORD PTR _this$[ebp], ecx
  0000e	8b 45 fc	 mov	 eax, DWORD PTR _this$[ebp]
  00011	8b 4d 08	 mov	 ecx, DWORD PTR _pszFileName$[ebp]
  00014	89 08		 mov	 DWORD PTR [eax], ecx
  00016	8b 55 fc	 mov	 edx, DWORD PTR _this$[ebp]
  00019	8b 45 0c	 mov	 eax, DWORD PTR _nLineNo$[ebp]
  0001c	89 42 04	 mov	 DWORD PTR [edx+4], eax
  0001f	8b 45 fc	 mov	 eax, DWORD PTR _this$[ebp]
  00022	8b e5		 mov	 esp, ebp
  00024	5d		 pop	 ebp
  00025	c2 08 00	 ret	 8
??0CTraceFileAndLineInfo@ATL@@QAE@PBDH@Z ENDP		; ATL::CTraceFileAndLineInfo::CTraceFileAndLineInfo
_TEXT	ENDS
PUBLIC	??BCTraceCategory@ATL@@QBEKXZ			; ATL::CTraceCategory::operator unsigned long
PUBLIC	?TraceV@CTrace@ATL@@QBAXPBDHKI0PAD@Z		; ATL::CTrace::TraceV
EXTRN	?s_trace@CTrace@ATL@@2V12@A:QWORD		; ATL::CTrace::s_trace
EXTRN	?atlTraceGeneral@ATL@@3VCTraceCategory@1@A:DWORD ; ATL::atlTraceGeneral
; Function compile flags: /Odt /RTCsu
;	COMDAT ??RCTraceFileAndLineInfo@ATL@@QBAXPBDZZ
_TEXT	SEGMENT
_ptr$ = -4						; size = 4
_this$ = 8						; size = 4
_pszFmt$ = 12						; size = 4
??RCTraceFileAndLineInfo@ATL@@QBAXPBDZZ PROC NEAR	; ATL::CTraceFileAndLineInfo::operator(), COMDAT

; 173  : 	{

  00000	55		 push	 ebp
  00001	8b ec		 mov	 ebp, esp
  00003	51		 push	 ecx
  00004	c7 45 fc cc cc
	cc cc		 mov	 DWORD PTR [ebp-4], -858993460 ; ccccccccH

; 174  : 		va_list ptr; va_start(ptr, pszFmt);

  0000b	8d 45 10	 lea	 eax, DWORD PTR _pszFmt$[ebp+4]
  0000e	89 45 fc	 mov	 DWORD PTR _ptr$[ebp], eax

; 175  : 		ATL::CTrace::s_trace.TraceV(m_pszFileName, m_nLineNo, atlTraceGeneral, 0, pszFmt, ptr);

  00011	8b 4d fc	 mov	 ecx, DWORD PTR _ptr$[ebp]
  00014	51		 push	 ecx
  00015	8b 55 0c	 mov	 edx, DWORD PTR _pszFmt$[ebp]
  00018	52		 push	 edx
  00019	6a 00		 push	 0
  0001b	b9 00 00 00 00	 mov	 ecx, OFFSET FLAT:?atlTraceGeneral@ATL@@3VCTraceCategory@1@A ; ATL::atlTraceGeneral
  00020	e8 00 00 00 00	 call	 ??BCTraceCategory@ATL@@QBEKXZ ; ATL::CTraceCategory::operator unsigned long
  00025	50		 push	 eax
  00026	8b 45 08	 mov	 eax, DWORD PTR _this$[ebp]
  00029	8b 48 04	 mov	 ecx, DWORD PTR [eax+4]
  0002c	51		 push	 ecx
  0002d	8b 55 08	 mov	 edx, DWORD PTR _this$[ebp]
  00030	8b 02		 mov	 eax, DWORD PTR [edx]
  00032	50		 push	 eax
  00033	68 00 00 00 00	 push	 OFFSET FLAT:?s_trace@CTrace@ATL@@2V12@A
  00038	e8 00 00 00 00	 call	 ?TraceV@CTrace@ATL@@QBAXPBDHKI0PAD@Z ; ATL::CTrace::TraceV
  0003d	83 c4 1c	 add	 esp, 28			; 0000001cH

; 176  : 		va_end(ptr);

  00040	c7 45 fc 00 00
	00 00		 mov	 DWORD PTR _ptr$[ebp], 0

; 177  : 	}

  00047	83 c4 04	 add	 esp, 4
  0004a	3b ec		 cmp	 ebp, esp
  0004c	e8 00 00 00 00	 call	 __RTC_CheckEsp
  00051	8b e5		 mov	 esp, ebp
  00053	5d		 pop	 ebp
  00054	c3		 ret	 0
??RCTraceFileAndLineInfo@ATL@@QBAXPBDZZ ENDP		; ATL::CTraceFileAndLineInfo::operator()
_TEXT	ENDS
EXTRN	_AtlTraceVA:NEAR
; Function compile flags: /Odt /RTCsu
;	COMDAT ?TraceV@CTrace@ATL@@QBAXPBDHKI0PAD@Z
_TEXT	SEGMENT
_this$ = 8						; size = 4
_pszFileName$ = 12					; size = 4
_nLine$ = 16						; size = 4
_dwCategory$ = 20					; size = 4
_nLevel$ = 24						; size = 4
_pszFmt$ = 28						; size = 4
_args$ = 32						; size = 4
?TraceV@CTrace@ATL@@QBAXPBDHKI0PAD@Z PROC NEAR		; ATL::CTrace::TraceV, COMDAT

; 121  : 	{

  00000	55		 push	 ebp
  00001	8b ec		 mov	 ebp, esp

; 122  : 		AtlTraceVA(m_dwModule, pszFileName, nLine, dwCategory, nLevel, pszFmt, args);

  00003	8b 45 20	 mov	 eax, DWORD PTR _args$[ebp]
  00006	50		 push	 eax
  00007	8b 4d 1c	 mov	 ecx, DWORD PTR _pszFmt$[ebp]
  0000a	51		 push	 ecx
  0000b	8b 55 18	 mov	 edx, DWORD PTR _nLevel$[ebp]
  0000e	52		 push	 edx
  0000f	8b 45 14	 mov	 eax, DWORD PTR _dwCategory$[ebp]
  00012	50		 push	 eax
  00013	8b 4d 10	 mov	 ecx, DWORD PTR _nLine$[ebp]
  00016	51		 push	 ecx
  00017	8b 55 0c	 mov	 edx, DWORD PTR _pszFileName$[ebp]
  0001a	52		 push	 edx
  0001b	8b 45 08	 mov	 eax, DWORD PTR _this$[ebp]
  0001e	8b 48 04	 mov	 ecx, DWORD PTR [eax+4]
  00021	51		 push	 ecx
  00022	e8 00 00 00 00	 call	 _AtlTraceVA
  00027	83 c4 1c	 add	 esp, 28			; 0000001cH

; 123  : 	}

  0002a	3b ec		 cmp	 ebp, esp
  0002c	e8 00 00 00 00	 call	 __RTC_CheckEsp
  00031	5d		 pop	 ebp
  00032	c3		 ret	 0
?TraceV@CTrace@ATL@@QBAXPBDHKI0PAD@Z ENDP		; ATL::CTrace::TraceV
; Function compile flags: /Odt /RTCsu
_TEXT	ENDS
;	COMDAT ??BCTraceCategory@ATL@@QBEKXZ
_TEXT	SEGMENT
_this$ = -4						; size = 4
??BCTraceCategory@ATL@@QBEKXZ PROC NEAR			; ATL::CTraceCategory::operator unsigned long, COMDAT
; _this$ = ecx

; 202  : {

  00000	55		 push	 ebp
  00001	8b ec		 mov	 ebp, esp
  00003	51		 push	 ecx
  00004	c7 45 fc cc cc
	cc cc		 mov	 DWORD PTR [ebp-4], -858993460 ; ccccccccH
  0000b	89 4d fc	 mov	 DWORD PTR _this$[ebp], ecx

; 203  : 	return( m_dwCategory );

  0000e	8b 45 fc	 mov	 eax, DWORD PTR _this$[ebp]
  00011	8b 00		 mov	 eax, DWORD PTR [eax]

; 204  : }

  00013	8b e5		 mov	 esp, ebp
  00015	5d		 pop	 ebp
  00016	c3		 ret	 0
??BCTraceCategory@ATL@@QBEKXZ ENDP			; ATL::CTraceCategory::operator unsigned long
_TEXT	ENDS
PUBLIC	?getOpenConstrain@PaneSplitter@ETSLayoutMgr@@QAEHH@Z ; ETSLayoutMgr::PaneSplitter::getOpenConstrain
xdata$x	SEGMENT
$T193127 DD	0ffffffffH
	DD	FLAT:$L193119
$T193121 DD	019930520H
	DD	01H
	DD	FLAT:$T193127
	DD	2 DUP(00H)
	DD	2 DUP(00H)
; Function compile flags: /Odt /RTCsu
; File d:\boxgit\playbox\playbox\dev\prj\playbox\src\layoutmgr\etslayoutex.cpp
xdata$x	ENDS
_TEXT	SEGMENT
$T193118 = -64						; size = 4
_rc$ = -56						; size = 16
_maxConstrain$ = -36					; size = 4
_orgValue$ = -32					; size = 4
_pItem$ = -24						; size = 4
_this$ = -16						; size = 4
__$EHRec$ = -12						; size = 12
_offset$ = 8						; size = 4
?getOpenConstrain@PaneSplitter@ETSLayoutMgr@@QAEHH@Z PROC NEAR ; ETSLayoutMgr::PaneSplitter::getOpenConstrain
; _this$ = ecx

; 163  : {

  00870	55		 push	 ebp
  00871	8b ec		 mov	 ebp, esp
  00873	6a ff		 push	 -1
  00875	68 00 00 00 00	 push	 __ehhandler$?getOpenConstrain@PaneSplitter@ETSLayoutMgr@@QAEHH@Z
  0087a	64 a1 00 00 00
	00		 mov	 eax, DWORD PTR fs:__except_list
  00880	50		 push	 eax
  00881	64 89 25 00 00
	00 00		 mov	 DWORD PTR fs:__except_list, esp
  00888	83 ec 34	 sub	 esp, 52			; 00000034H
  0088b	57		 push	 edi
  0088c	51		 push	 ecx
  0088d	8d 7d c0	 lea	 edi, DWORD PTR [ebp-64]
  00890	b9 0d 00 00 00	 mov	 ecx, 13			; 0000000dH
  00895	b8 cc cc cc cc	 mov	 eax, -858993460		; ccccccccH
  0089a	f3 ab		 rep stosd
  0089c	59		 pop	 ecx
  0089d	89 4d f0	 mov	 DWORD PTR _this$[ebp], ecx

; 164  : 	CPaneBase pItem;

  008a0	8d 4d e8	 lea	 ecx, DWORD PTR _pItem$[ebp]
  008a3	e8 00 00 00 00	 call	 ??0CPaneBase@ETSLayoutMgr@@QAE@XZ ; ETSLayoutMgr::CPaneBase::CPaneBase
  008a8	c7 45 fc 00 00
	00 00		 mov	 DWORD PTR __$EHRec$[ebp+8], 0

; 165  : 	int orgValue = 0;

  008af	c7 45 e0 00 00
	00 00		 mov	 DWORD PTR _orgValue$[ebp], 0

; 166  : 	int maxConstrain = this->m_nSplOpendPos;

  008b6	8b 45 f0	 mov	 eax, DWORD PTR _this$[ebp]
  008b9	8b 88 8c 00 00
	00		 mov	 ecx, DWORD PTR [eax+140]
  008bf	89 4d dc	 mov	 DWORD PTR _maxConstrain$[ebp], ecx

; 167  : 
; 168  : 	if(offset < 0)

  008c2	83 7d 08 00	 cmp	 DWORD PTR _offset$[ebp], 0
  008c6	7d 18		 jge	 SHORT $L190547

; 169  : 		pItem = m_paneItems[2];

  008c8	6a 02		 push	 2
  008ca	8b 4d f0	 mov	 ecx, DWORD PTR _this$[ebp]
  008cd	83 c1 64	 add	 ecx, 100		; 00000064H
  008d0	e8 00 00 00 00	 call	 ??A?$CArray@VCPaneBase@ETSLayoutMgr@@V12@@@QAEAAVCPaneBase@ETSLayoutMgr@@H@Z ; CArray<ETSLayoutMgr::CPaneBase,ETSLayoutMgr::CPaneBase>::operator[]
  008d5	50		 push	 eax
  008d6	8d 4d e8	 lea	 ecx, DWORD PTR _pItem$[ebp]
  008d9	e8 00 00 00 00	 call	 ??4CPaneBase@ETSLayoutMgr@@QAEXABV01@@Z ; ETSLayoutMgr::CPaneBase::operator=

; 170  : 	else

  008de	eb 16		 jmp	 SHORT $L190548
$L190547:

; 171  : 		pItem = m_paneItems[0];

  008e0	6a 00		 push	 0
  008e2	8b 4d f0	 mov	 ecx, DWORD PTR _this$[ebp]
  008e5	83 c1 64	 add	 ecx, 100		; 00000064H
  008e8	e8 00 00 00 00	 call	 ??A?$CArray@VCPaneBase@ETSLayoutMgr@@V12@@@QAEAAVCPaneBase@ETSLayoutMgr@@H@Z ; CArray<ETSLayoutMgr::CPaneBase,ETSLayoutMgr::CPaneBase>::operator[]
  008ed	50		 push	 eax
  008ee	8d 4d e8	 lea	 ecx, DWORD PTR _pItem$[ebp]
  008f1	e8 00 00 00 00	 call	 ??4CPaneBase@ETSLayoutMgr@@QAEXABV01@@Z ; ETSLayoutMgr::CPaneBase::operator=
$L190548:

; 172  : 
; 173  : 	CRect rc = pItem->getPaneRect();

  008f6	8d 55 c8	 lea	 edx, DWORD PTR _rc$[ebp]
  008f9	52		 push	 edx
  008fa	8d 4d e8	 lea	 ecx, DWORD PTR _pItem$[ebp]
  008fd	e8 00 00 00 00	 call	 ??CCPaneBase@ETSLayoutMgr@@QBEPAVPaneBase@1@XZ ; ETSLayoutMgr::CPaneBase::operator->
  00902	8b c8		 mov	 ecx, eax
  00904	e8 00 00 00 00	 call	 ?getPaneRect@PaneBase@ETSLayoutMgr@@QAE?AVCRect@@XZ ; ETSLayoutMgr::PaneBase::getPaneRect

; 174  : 
; 175  : 	if(m_Orientation == ETSLayoutMgr::HORIZONTAL)

  00909	8b 45 f0	 mov	 eax, DWORD PTR _this$[ebp]
  0090c	83 78 60 00	 cmp	 DWORD PTR [eax+96], 0
  00910	75 0d		 jne	 SHORT $L190551

; 176  : 	{
; 177  : 		orgValue = rc.Width();

  00912	8d 4d c8	 lea	 ecx, DWORD PTR _rc$[ebp]
  00915	e8 00 00 00 00	 call	 ?Width@CRect@@QBEHXZ	; CRect::Width
  0091a	89 45 e0	 mov	 DWORD PTR _orgValue$[ebp], eax

; 178  : 		//minConstrain = getCloseConstrainHorz();
; 179  : 	}
; 180  : 	else

  0091d	eb 0b		 jmp	 SHORT $L190552
$L190551:

; 181  : 	{
; 182  : 		orgValue = rc.Height();

  0091f	8d 4d c8	 lea	 ecx, DWORD PTR _rc$[ebp]
  00922	e8 00 00 00 00	 call	 ?Height@CRect@@QBEHXZ	; CRect::Height
  00927	89 45 e0	 mov	 DWORD PTR _orgValue$[ebp], eax
$L190552:

; 183  : 		//minConstrain = pItem->getMinConstrainVert();
; 184  : 	}
; 185  : 
; 186  : 	if(offset < 0)

  0092a	83 7d 08 00	 cmp	 DWORD PTR _offset$[ebp], 0
  0092e	7d 16		 jge	 SHORT $L190553

; 187  : 	{
; 188  : 		if(orgValue - offset > maxConstrain)

  00930	8b 4d e0	 mov	 ecx, DWORD PTR _orgValue$[ebp]
  00933	2b 4d 08	 sub	 ecx, DWORD PTR _offset$[ebp]
  00936	3b 4d dc	 cmp	 ecx, DWORD PTR _maxConstrain$[ebp]
  00939	7e 09		 jle	 SHORT $L190554

; 189  : 			offset =  orgValue - maxConstrain;

  0093b	8b 55 e0	 mov	 edx, DWORD PTR _orgValue$[ebp]
  0093e	2b 55 dc	 sub	 edx, DWORD PTR _maxConstrain$[ebp]
  00941	89 55 08	 mov	 DWORD PTR _offset$[ebp], edx
$L190554:

; 190  : 	}
; 191  : 	else

  00944	eb 14		 jmp	 SHORT $L190555
$L190553:

; 192  : 	{
; 193  : 		if(orgValue + offset > maxConstrain)

  00946	8b 45 e0	 mov	 eax, DWORD PTR _orgValue$[ebp]
  00949	03 45 08	 add	 eax, DWORD PTR _offset$[ebp]
  0094c	3b 45 dc	 cmp	 eax, DWORD PTR _maxConstrain$[ebp]
  0094f	7e 09		 jle	 SHORT $L190555

; 194  : 			offset = maxConstrain - orgValue;

  00951	8b 4d dc	 mov	 ecx, DWORD PTR _maxConstrain$[ebp]
  00954	2b 4d e0	 sub	 ecx, DWORD PTR _orgValue$[ebp]
  00957	89 4d 08	 mov	 DWORD PTR _offset$[ebp], ecx
$L190555:

; 195  : 	}
; 196  : 
; 197  : 	return offset;

  0095a	8b 55 08	 mov	 edx, DWORD PTR _offset$[ebp]
  0095d	89 55 c0	 mov	 DWORD PTR $T193118[ebp], edx
  00960	c7 45 fc ff ff
	ff ff		 mov	 DWORD PTR __$EHRec$[ebp+8], -1
  00967	8d 4d e8	 lea	 ecx, DWORD PTR _pItem$[ebp]
  0096a	e8 00 00 00 00	 call	 ??1CPaneBase@ETSLayoutMgr@@QAE@XZ ; ETSLayoutMgr::CPaneBase::~CPaneBase
  0096f	8b 45 c0	 mov	 eax, DWORD PTR $T193118[ebp]

; 198  : }

  00972	52		 push	 edx
  00973	8b cd		 mov	 ecx, ebp
  00975	50		 push	 eax
  00976	8d 15 00 00 00
	00		 lea	 edx, DWORD PTR $L193126
  0097c	e8 00 00 00 00	 call	 @_RTC_CheckStackVars@8
  00981	58		 pop	 eax
  00982	5a		 pop	 edx
  00983	8b 4d f4	 mov	 ecx, DWORD PTR __$EHRec$[ebp]
  00986	64 89 0d 00 00
	00 00		 mov	 DWORD PTR fs:__except_list, ecx
  0098d	5f		 pop	 edi
  0098e	83 c4 40	 add	 esp, 64			; 00000040H
  00991	3b ec		 cmp	 ebp, esp
  00993	e8 00 00 00 00	 call	 __RTC_CheckEsp
  00998	8b e5		 mov	 esp, ebp
  0099a	5d		 pop	 ebp
  0099b	c2 04 00	 ret	 4
$L193126:
  0099e	02 00 00 00	 DD	 2
  009a2	00 00 00 00	 DD	 $L193125
$L193125:
  009a6	e8 ff ff ff	 DD	 -24			; ffffffe8H
  009aa	04 00 00 00	 DD	 4
  009ae	00 00 00 00	 DD	 $L193122
  009b2	c8 ff ff ff	 DD	 -56			; ffffffc8H
  009b6	10 00 00 00	 DD	 16			; 00000010H
  009ba	00 00 00 00	 DD	 $L193123
$L193123:
  009be	72		 DB	 114			; 00000072H
  009bf	63		 DB	 99			; 00000063H
  009c0	00		 DB	 0
$L193122:
  009c1	70		 DB	 112			; 00000070H
  009c2	49		 DB	 73			; 00000049H
  009c3	74		 DB	 116			; 00000074H
  009c4	65		 DB	 101			; 00000065H
  009c5	6d		 DB	 109			; 0000006dH
  009c6	00		 DB	 0
_TEXT	ENDS
text$x	SEGMENT
$L193119:
  0005b	8d 4d e8	 lea	 ecx, DWORD PTR _pItem$[ebp]
  0005e	e9 00 00 00 00	 jmp	 ??1CPaneBase@ETSLayoutMgr@@QAE@XZ ; ETSLayoutMgr::CPaneBase::~CPaneBase
__ehhandler$?getOpenConstrain@PaneSplitter@ETSLayoutMgr@@QAEHH@Z:
  00063	b8 00 00 00 00	 mov	 eax, OFFSET FLAT:$T193121
  00068	e9 00 00 00 00	 jmp	 ___CxxFrameHandler
text$x	ENDS
?getOpenConstrain@PaneSplitter@ETSLayoutMgr@@QAEHH@Z ENDP ; ETSLayoutMgr::PaneSplitter::getOpenConstrain
PUBLIC	?getCloseConstrain@PaneSplitter@ETSLayoutMgr@@QAEHH@Z ; ETSLayoutMgr::PaneSplitter::getCloseConstrain
xdata$x	SEGMENT
$T193138 DD	0ffffffffH
	DD	FLAT:$L193130
$T193132 DD	019930520H
	DD	01H
	DD	FLAT:$T193138
	DD	2 DUP(00H)
	DD	2 DUP(00H)
; Function compile flags: /Odt /RTCsu
xdata$x	ENDS
_TEXT	SEGMENT
$T193129 = -64						; size = 4
_rc$ = -56						; size = 16
_minConstrain$ = -36					; size = 4
_orgValue$ = -32					; size = 4
_pItem$ = -24						; size = 4
_this$ = -16						; size = 4
__$EHRec$ = -12						; size = 12
_offset$ = 8						; size = 4
?getCloseConstrain@PaneSplitter@ETSLayoutMgr@@QAEHH@Z PROC NEAR ; ETSLayoutMgr::PaneSplitter::getCloseConstrain
; _this$ = ecx

; 201  : {

  009d0	55		 push	 ebp
  009d1	8b ec		 mov	 ebp, esp
  009d3	6a ff		 push	 -1
  009d5	68 00 00 00 00	 push	 __ehhandler$?getCloseConstrain@PaneSplitter@ETSLayoutMgr@@QAEHH@Z
  009da	64 a1 00 00 00
	00		 mov	 eax, DWORD PTR fs:__except_list
  009e0	50		 push	 eax
  009e1	64 89 25 00 00
	00 00		 mov	 DWORD PTR fs:__except_list, esp
  009e8	83 ec 34	 sub	 esp, 52			; 00000034H
  009eb	57		 push	 edi
  009ec	51		 push	 ecx
  009ed	8d 7d c0	 lea	 edi, DWORD PTR [ebp-64]
  009f0	b9 0d 00 00 00	 mov	 ecx, 13			; 0000000dH
  009f5	b8 cc cc cc cc	 mov	 eax, -858993460		; ccccccccH
  009fa	f3 ab		 rep stosd
  009fc	59		 pop	 ecx
  009fd	89 4d f0	 mov	 DWORD PTR _this$[ebp], ecx

; 202  : 	CPaneBase pItem;

  00a00	8d 4d e8	 lea	 ecx, DWORD PTR _pItem$[ebp]
  00a03	e8 00 00 00 00	 call	 ??0CPaneBase@ETSLayoutMgr@@QAE@XZ ; ETSLayoutMgr::CPaneBase::CPaneBase
  00a08	c7 45 fc 00 00
	00 00		 mov	 DWORD PTR __$EHRec$[ebp+8], 0

; 203  : 	int orgValue = 0;

  00a0f	c7 45 e0 00 00
	00 00		 mov	 DWORD PTR _orgValue$[ebp], 0

; 204  : 	int minConstrain = this->m_nSplClosedPos;

  00a16	8b 45 f0	 mov	 eax, DWORD PTR _this$[ebp]
  00a19	8b 88 88 00 00
	00		 mov	 ecx, DWORD PTR [eax+136]
  00a1f	89 4d dc	 mov	 DWORD PTR _minConstrain$[ebp], ecx

; 205  : 
; 206  : 	if(offset < 0)

  00a22	83 7d 08 00	 cmp	 DWORD PTR _offset$[ebp], 0
  00a26	7d 18		 jge	 SHORT $L190565

; 207  : 		pItem = m_paneItems[0];

  00a28	6a 00		 push	 0
  00a2a	8b 4d f0	 mov	 ecx, DWORD PTR _this$[ebp]
  00a2d	83 c1 64	 add	 ecx, 100		; 00000064H
  00a30	e8 00 00 00 00	 call	 ??A?$CArray@VCPaneBase@ETSLayoutMgr@@V12@@@QAEAAVCPaneBase@ETSLayoutMgr@@H@Z ; CArray<ETSLayoutMgr::CPaneBase,ETSLayoutMgr::CPaneBase>::operator[]
  00a35	50		 push	 eax
  00a36	8d 4d e8	 lea	 ecx, DWORD PTR _pItem$[ebp]
  00a39	e8 00 00 00 00	 call	 ??4CPaneBase@ETSLayoutMgr@@QAEXABV01@@Z ; ETSLayoutMgr::CPaneBase::operator=

; 208  : 	else

  00a3e	eb 16		 jmp	 SHORT $L190566
$L190565:

; 209  : 		pItem = m_paneItems[2];

  00a40	6a 02		 push	 2
  00a42	8b 4d f0	 mov	 ecx, DWORD PTR _this$[ebp]
  00a45	83 c1 64	 add	 ecx, 100		; 00000064H
  00a48	e8 00 00 00 00	 call	 ??A?$CArray@VCPaneBase@ETSLayoutMgr@@V12@@@QAEAAVCPaneBase@ETSLayoutMgr@@H@Z ; CArray<ETSLayoutMgr::CPaneBase,ETSLayoutMgr::CPaneBase>::operator[]
  00a4d	50		 push	 eax
  00a4e	8d 4d e8	 lea	 ecx, DWORD PTR _pItem$[ebp]
  00a51	e8 00 00 00 00	 call	 ??4CPaneBase@ETSLayoutMgr@@QAEXABV01@@Z ; ETSLayoutMgr::CPaneBase::operator=
$L190566:

; 210  : 
; 211  : 	CRect rc = pItem->getPaneRect();

  00a56	8d 55 c8	 lea	 edx, DWORD PTR _rc$[ebp]
  00a59	52		 push	 edx
  00a5a	8d 4d e8	 lea	 ecx, DWORD PTR _pItem$[ebp]
  00a5d	e8 00 00 00 00	 call	 ??CCPaneBase@ETSLayoutMgr@@QBEPAVPaneBase@1@XZ ; ETSLayoutMgr::CPaneBase::operator->
  00a62	8b c8		 mov	 ecx, eax
  00a64	e8 00 00 00 00	 call	 ?getPaneRect@PaneBase@ETSLayoutMgr@@QAE?AVCRect@@XZ ; ETSLayoutMgr::PaneBase::getPaneRect

; 212  : 
; 213  : 	if(m_Orientation == ETSLayoutMgr::HORIZONTAL)

  00a69	8b 45 f0	 mov	 eax, DWORD PTR _this$[ebp]
  00a6c	83 78 60 00	 cmp	 DWORD PTR [eax+96], 0
  00a70	75 0d		 jne	 SHORT $L190569

; 214  : 	{
; 215  : 		orgValue = rc.Width();

  00a72	8d 4d c8	 lea	 ecx, DWORD PTR _rc$[ebp]
  00a75	e8 00 00 00 00	 call	 ?Width@CRect@@QBEHXZ	; CRect::Width
  00a7a	89 45 e0	 mov	 DWORD PTR _orgValue$[ebp], eax

; 216  : 		//minConstrain = getCloseConstrainHorz();
; 217  : 	}
; 218  : 	else

  00a7d	eb 0b		 jmp	 SHORT $L190570
$L190569:

; 219  : 	{
; 220  : 		orgValue = rc.Height();

  00a7f	8d 4d c8	 lea	 ecx, DWORD PTR _rc$[ebp]
  00a82	e8 00 00 00 00	 call	 ?Height@CRect@@QBEHXZ	; CRect::Height
  00a87	89 45 e0	 mov	 DWORD PTR _orgValue$[ebp], eax
$L190570:

; 221  : 		//minConstrain = pItem->getMinConstrainVert();
; 222  : 	}
; 223  : 
; 224  : 	if(offset < 0)

  00a8a	83 7d 08 00	 cmp	 DWORD PTR _offset$[ebp], 0
  00a8e	7d 16		 jge	 SHORT $L190571

; 225  : 	{
; 226  : 		if(orgValue + offset < minConstrain)

  00a90	8b 4d e0	 mov	 ecx, DWORD PTR _orgValue$[ebp]
  00a93	03 4d 08	 add	 ecx, DWORD PTR _offset$[ebp]
  00a96	3b 4d dc	 cmp	 ecx, DWORD PTR _minConstrain$[ebp]
  00a99	7d 09		 jge	 SHORT $L190572

; 227  : 			offset =  minConstrain - orgValue;

  00a9b	8b 55 dc	 mov	 edx, DWORD PTR _minConstrain$[ebp]
  00a9e	2b 55 e0	 sub	 edx, DWORD PTR _orgValue$[ebp]
  00aa1	89 55 08	 mov	 DWORD PTR _offset$[ebp], edx
$L190572:

; 228  : 	}
; 229  : 	else

  00aa4	eb 14		 jmp	 SHORT $L190573
$L190571:

; 230  : 	{
; 231  : 		if(orgValue - offset < minConstrain)

  00aa6	8b 45 e0	 mov	 eax, DWORD PTR _orgValue$[ebp]
  00aa9	2b 45 08	 sub	 eax, DWORD PTR _offset$[ebp]
  00aac	3b 45 dc	 cmp	 eax, DWORD PTR _minConstrain$[ebp]
  00aaf	7d 09		 jge	 SHORT $L190573

; 232  : 			offset = orgValue - minConstrain;

  00ab1	8b 4d e0	 mov	 ecx, DWORD PTR _orgValue$[ebp]
  00ab4	2b 4d dc	 sub	 ecx, DWORD PTR _minConstrain$[ebp]
  00ab7	89 4d 08	 mov	 DWORD PTR _offset$[ebp], ecx
$L190573:

; 233  : 	}
; 234  : 
; 235  : 	return offset;

  00aba	8b 55 08	 mov	 edx, DWORD PTR _offset$[ebp]
  00abd	89 55 c0	 mov	 DWORD PTR $T193129[ebp], edx
  00ac0	c7 45 fc ff ff
	ff ff		 mov	 DWORD PTR __$EHRec$[ebp+8], -1
  00ac7	8d 4d e8	 lea	 ecx, DWORD PTR _pItem$[ebp]
  00aca	e8 00 00 00 00	 call	 ??1CPaneBase@ETSLayoutMgr@@QAE@XZ ; ETSLayoutMgr::CPaneBase::~CPaneBase
  00acf	8b 45 c0	 mov	 eax, DWORD PTR $T193129[ebp]

; 236  : }

  00ad2	52		 push	 edx
  00ad3	8b cd		 mov	 ecx, ebp
  00ad5	50		 push	 eax
  00ad6	8d 15 00 00 00
	00		 lea	 edx, DWORD PTR $L193137
  00adc	e8 00 00 00 00	 call	 @_RTC_CheckStackVars@8
  00ae1	58		 pop	 eax
  00ae2	5a		 pop	 edx
  00ae3	8b 4d f4	 mov	 ecx, DWORD PTR __$EHRec$[ebp]
  00ae6	64 89 0d 00 00
	00 00		 mov	 DWORD PTR fs:__except_list, ecx
  00aed	5f		 pop	 edi
  00aee	83 c4 40	 add	 esp, 64			; 00000040H
  00af1	3b ec		 cmp	 ebp, esp
  00af3	e8 00 00 00 00	 call	 __RTC_CheckEsp
  00af8	8b e5		 mov	 esp, ebp
  00afa	5d		 pop	 ebp
  00afb	c2 04 00	 ret	 4
$L193137:
  00afe	02 00 00 00	 DD	 2
  00b02	00 00 00 00	 DD	 $L193136
$L193136:
  00b06	e8 ff ff ff	 DD	 -24			; ffffffe8H
  00b0a	04 00 00 00	 DD	 4
  00b0e	00 00 00 00	 DD	 $L193133
  00b12	c8 ff ff ff	 DD	 -56			; ffffffc8H
  00b16	10 00 00 00	 DD	 16			; 00000010H
  00b1a	00 00 00 00	 DD	 $L193134
$L193134:
  00b1e	72		 DB	 114			; 00000072H
  00b1f	63		 DB	 99			; 00000063H
  00b20	00		 DB	 0
$L193133:
  00b21	70		 DB	 112			; 00000070H
  00b22	49		 DB	 73			; 00000049H
  00b23	74		 DB	 116			; 00000074H
  00b24	65		 DB	 101			; 00000065H
  00b25	6d		 DB	 109			; 0000006dH
  00b26	00		 DB	 0
_TEXT	ENDS
text$x	SEGMENT
$L193130:
  0006d	8d 4d e8	 lea	 ecx, DWORD PTR _pItem$[ebp]
  00070	e9 00 00 00 00	 jmp	 ??1CPaneBase@ETSLayoutMgr@@QAE@XZ ; ETSLayoutMgr::CPaneBase::~CPaneBase
__ehhandler$?getCloseConstrain@PaneSplitter@ETSLayoutMgr@@QAEHH@Z:
  00075	b8 00 00 00 00	 mov	 eax, OFFSET FLAT:$T193132
  0007a	e9 00 00 00 00	 jmp	 ___CxxFrameHandler
text$x	ENDS
?getCloseConstrain@PaneSplitter@ETSLayoutMgr@@QAEHH@Z ENDP ; ETSLayoutMgr::PaneSplitter::getCloseConstrain
PUBLIC	?getOffsetConstrain@PaneSplitter@ETSLayoutMgr@@QAEHH@Z ; ETSLayoutMgr::PaneSplitter::getOffsetConstrain
xdata$x	SEGMENT
$T193149 DD	0ffffffffH
	DD	FLAT:$L193141
$T193143 DD	019930520H
	DD	01H
	DD	FLAT:$T193149
	DD	2 DUP(00H)
	DD	2 DUP(00H)
; Function compile flags: /Odt /RTCsu
xdata$x	ENDS
_TEXT	SEGMENT
tv132 = -72						; size = 4
tv91 = -68						; size = 4
$T193140 = -64						; size = 4
_rc$ = -56						; size = 16
_minConstrain$ = -36					; size = 4
_orgValue$ = -32					; size = 4
_pItem$ = -24						; size = 4
_this$ = -16						; size = 4
__$EHRec$ = -12						; size = 12
_offset$ = 8						; size = 4
?getOffsetConstrain@PaneSplitter@ETSLayoutMgr@@QAEHH@Z PROC NEAR ; ETSLayoutMgr::PaneSplitter::getOffsetConstrain
; _this$ = ecx

; 239  : {

  00b30	55		 push	 ebp
  00b31	8b ec		 mov	 ebp, esp
  00b33	6a ff		 push	 -1
  00b35	68 00 00 00 00	 push	 __ehhandler$?getOffsetConstrain@PaneSplitter@ETSLayoutMgr@@QAEHH@Z
  00b3a	64 a1 00 00 00
	00		 mov	 eax, DWORD PTR fs:__except_list
  00b40	50		 push	 eax
  00b41	64 89 25 00 00
	00 00		 mov	 DWORD PTR fs:__except_list, esp
  00b48	83 ec 3c	 sub	 esp, 60			; 0000003cH
  00b4b	56		 push	 esi
  00b4c	57		 push	 edi
  00b4d	51		 push	 ecx
  00b4e	8d 7d b8	 lea	 edi, DWORD PTR [ebp-72]
  00b51	b9 0f 00 00 00	 mov	 ecx, 15			; 0000000fH
  00b56	b8 cc cc cc cc	 mov	 eax, -858993460		; ccccccccH
  00b5b	f3 ab		 rep stosd
  00b5d	59		 pop	 ecx
  00b5e	89 4d f0	 mov	 DWORD PTR _this$[ebp], ecx

; 240  : 	CPaneBase pItem;

  00b61	8d 4d e8	 lea	 ecx, DWORD PTR _pItem$[ebp]
  00b64	e8 00 00 00 00	 call	 ??0CPaneBase@ETSLayoutMgr@@QAE@XZ ; ETSLayoutMgr::CPaneBase::CPaneBase
  00b69	c7 45 fc 00 00
	00 00		 mov	 DWORD PTR __$EHRec$[ebp+8], 0

; 241  : 	int orgValue = 0;

  00b70	c7 45 e0 00 00
	00 00		 mov	 DWORD PTR _orgValue$[ebp], 0

; 242  : 	int minConstrain = 0;

  00b77	c7 45 dc 00 00
	00 00		 mov	 DWORD PTR _minConstrain$[ebp], 0

; 243  : 
; 244  : 	if(offset < 0)

  00b7e	83 7d 08 00	 cmp	 DWORD PTR _offset$[ebp], 0
  00b82	7d 18		 jge	 SHORT $L190583

; 245  : 		pItem = m_paneItems[0];

  00b84	6a 00		 push	 0
  00b86	8b 4d f0	 mov	 ecx, DWORD PTR _this$[ebp]
  00b89	83 c1 64	 add	 ecx, 100		; 00000064H
  00b8c	e8 00 00 00 00	 call	 ??A?$CArray@VCPaneBase@ETSLayoutMgr@@V12@@@QAEAAVCPaneBase@ETSLayoutMgr@@H@Z ; CArray<ETSLayoutMgr::CPaneBase,ETSLayoutMgr::CPaneBase>::operator[]
  00b91	50		 push	 eax
  00b92	8d 4d e8	 lea	 ecx, DWORD PTR _pItem$[ebp]
  00b95	e8 00 00 00 00	 call	 ??4CPaneBase@ETSLayoutMgr@@QAEXABV01@@Z ; ETSLayoutMgr::CPaneBase::operator=

; 246  : 	else

  00b9a	eb 16		 jmp	 SHORT $L190584
$L190583:

; 247  : 		pItem = m_paneItems[2];

  00b9c	6a 02		 push	 2
  00b9e	8b 4d f0	 mov	 ecx, DWORD PTR _this$[ebp]
  00ba1	83 c1 64	 add	 ecx, 100		; 00000064H
  00ba4	e8 00 00 00 00	 call	 ??A?$CArray@VCPaneBase@ETSLayoutMgr@@V12@@@QAEAAVCPaneBase@ETSLayoutMgr@@H@Z ; CArray<ETSLayoutMgr::CPaneBase,ETSLayoutMgr::CPaneBase>::operator[]
  00ba9	50		 push	 eax
  00baa	8d 4d e8	 lea	 ecx, DWORD PTR _pItem$[ebp]
  00bad	e8 00 00 00 00	 call	 ??4CPaneBase@ETSLayoutMgr@@QAEXABV01@@Z ; ETSLayoutMgr::CPaneBase::operator=
$L190584:

; 248  : 
; 249  : 	CRect rc = pItem->getPaneRect();

  00bb2	8d 45 c8	 lea	 eax, DWORD PTR _rc$[ebp]
  00bb5	50		 push	 eax
  00bb6	8d 4d e8	 lea	 ecx, DWORD PTR _pItem$[ebp]
  00bb9	e8 00 00 00 00	 call	 ??CCPaneBase@ETSLayoutMgr@@QBEPAVPaneBase@1@XZ ; ETSLayoutMgr::CPaneBase::operator->
  00bbe	8b c8		 mov	 ecx, eax
  00bc0	e8 00 00 00 00	 call	 ?getPaneRect@PaneBase@ETSLayoutMgr@@QAE?AVCRect@@XZ ; ETSLayoutMgr::PaneBase::getPaneRect

; 250  : 
; 251  : 	if(m_Orientation == ETSLayoutMgr::HORIZONTAL)

  00bc5	8b 4d f0	 mov	 ecx, DWORD PTR _this$[ebp]
  00bc8	83 79 60 00	 cmp	 DWORD PTR [ecx+96], 0
  00bcc	75 2f		 jne	 SHORT $L190587

; 252  : 	{
; 253  : 		orgValue = rc.Width();

  00bce	8d 4d c8	 lea	 ecx, DWORD PTR _rc$[ebp]
  00bd1	e8 00 00 00 00	 call	 ?Width@CRect@@QBEHXZ	; CRect::Width
  00bd6	89 45 e0	 mov	 DWORD PTR _orgValue$[ebp], eax

; 254  : 		minConstrain = pItem->getMinConstrainHorz();

  00bd9	8d 4d e8	 lea	 ecx, DWORD PTR _pItem$[ebp]
  00bdc	e8 00 00 00 00	 call	 ??CCPaneBase@ETSLayoutMgr@@QBEPAVPaneBase@1@XZ ; ETSLayoutMgr::CPaneBase::operator->
  00be1	89 45 bc	 mov	 DWORD PTR tv91[ebp], eax
  00be4	8b 55 bc	 mov	 edx, DWORD PTR tv91[ebp]
  00be7	8b 02		 mov	 eax, DWORD PTR [edx]
  00be9	8b f4		 mov	 esi, esp
  00beb	8b 4d bc	 mov	 ecx, DWORD PTR tv91[ebp]
  00bee	ff 50 08	 call	 DWORD PTR [eax+8]
  00bf1	3b f4		 cmp	 esi, esp
  00bf3	e8 00 00 00 00	 call	 __RTC_CheckEsp
  00bf8	89 45 dc	 mov	 DWORD PTR _minConstrain$[ebp], eax

; 255  : 	}
; 256  : 	else

  00bfb	eb 2d		 jmp	 SHORT $L190588
$L190587:

; 257  : 	{
; 258  : 		orgValue = rc.Height();

  00bfd	8d 4d c8	 lea	 ecx, DWORD PTR _rc$[ebp]
  00c00	e8 00 00 00 00	 call	 ?Height@CRect@@QBEHXZ	; CRect::Height
  00c05	89 45 e0	 mov	 DWORD PTR _orgValue$[ebp], eax

; 259  : 		minConstrain = pItem->getMinConstrainVert();

  00c08	8d 4d e8	 lea	 ecx, DWORD PTR _pItem$[ebp]
  00c0b	e8 00 00 00 00	 call	 ??CCPaneBase@ETSLayoutMgr@@QBEPAVPaneBase@1@XZ ; ETSLayoutMgr::CPaneBase::operator->
  00c10	89 45 b8	 mov	 DWORD PTR tv132[ebp], eax
  00c13	8b 4d b8	 mov	 ecx, DWORD PTR tv132[ebp]
  00c16	8b 11		 mov	 edx, DWORD PTR [ecx]
  00c18	8b f4		 mov	 esi, esp
  00c1a	8b 4d b8	 mov	 ecx, DWORD PTR tv132[ebp]
  00c1d	ff 52 10	 call	 DWORD PTR [edx+16]
  00c20	3b f4		 cmp	 esi, esp
  00c22	e8 00 00 00 00	 call	 __RTC_CheckEsp
  00c27	89 45 dc	 mov	 DWORD PTR _minConstrain$[ebp], eax
$L190588:

; 260  : 	}
; 261  : 
; 262  : 	if(offset < 0)

  00c2a	83 7d 08 00	 cmp	 DWORD PTR _offset$[ebp], 0
  00c2e	7d 16		 jge	 SHORT $L190589

; 263  : 	{
; 264  : 		if(orgValue + offset < minConstrain)

  00c30	8b 45 e0	 mov	 eax, DWORD PTR _orgValue$[ebp]
  00c33	03 45 08	 add	 eax, DWORD PTR _offset$[ebp]
  00c36	3b 45 dc	 cmp	 eax, DWORD PTR _minConstrain$[ebp]
  00c39	7d 09		 jge	 SHORT $L190590

; 265  : 			offset =  minConstrain - orgValue;

  00c3b	8b 4d dc	 mov	 ecx, DWORD PTR _minConstrain$[ebp]
  00c3e	2b 4d e0	 sub	 ecx, DWORD PTR _orgValue$[ebp]
  00c41	89 4d 08	 mov	 DWORD PTR _offset$[ebp], ecx
$L190590:

; 266  : 	}
; 267  : 	else

  00c44	eb 14		 jmp	 SHORT $L190591
$L190589:

; 268  : 	{
; 269  : 		if(orgValue - offset < minConstrain)

  00c46	8b 55 e0	 mov	 edx, DWORD PTR _orgValue$[ebp]
  00c49	2b 55 08	 sub	 edx, DWORD PTR _offset$[ebp]
  00c4c	3b 55 dc	 cmp	 edx, DWORD PTR _minConstrain$[ebp]
  00c4f	7d 09		 jge	 SHORT $L190591

; 270  : 			offset = orgValue - minConstrain;

  00c51	8b 45 e0	 mov	 eax, DWORD PTR _orgValue$[ebp]
  00c54	2b 45 dc	 sub	 eax, DWORD PTR _minConstrain$[ebp]
  00c57	89 45 08	 mov	 DWORD PTR _offset$[ebp], eax
$L190591:

; 271  : 	}
; 272  : 
; 273  : 	return offset;

  00c5a	8b 4d 08	 mov	 ecx, DWORD PTR _offset$[ebp]
  00c5d	89 4d c0	 mov	 DWORD PTR $T193140[ebp], ecx
  00c60	c7 45 fc ff ff
	ff ff		 mov	 DWORD PTR __$EHRec$[ebp+8], -1
  00c67	8d 4d e8	 lea	 ecx, DWORD PTR _pItem$[ebp]
  00c6a	e8 00 00 00 00	 call	 ??1CPaneBase@ETSLayoutMgr@@QAE@XZ ; ETSLayoutMgr::CPaneBase::~CPaneBase
  00c6f	8b 45 c0	 mov	 eax, DWORD PTR $T193140[ebp]

; 274  : }

  00c72	52		 push	 edx
  00c73	8b cd		 mov	 ecx, ebp
  00c75	50		 push	 eax
  00c76	8d 15 00 00 00
	00		 lea	 edx, DWORD PTR $L193148
  00c7c	e8 00 00 00 00	 call	 @_RTC_CheckStackVars@8
  00c81	58		 pop	 eax
  00c82	5a		 pop	 edx
  00c83	8b 4d f4	 mov	 ecx, DWORD PTR __$EHRec$[ebp]
  00c86	64 89 0d 00 00
	00 00		 mov	 DWORD PTR fs:__except_list, ecx
  00c8d	5f		 pop	 edi
  00c8e	5e		 pop	 esi
  00c8f	83 c4 48	 add	 esp, 72			; 00000048H
  00c92	3b ec		 cmp	 ebp, esp
  00c94	e8 00 00 00 00	 call	 __RTC_CheckEsp
  00c99	8b e5		 mov	 esp, ebp
  00c9b	5d		 pop	 ebp
  00c9c	c2 04 00	 ret	 4
$L193148:
  00c9f	02 00 00 00	 DD	 2
  00ca3	00 00 00 00	 DD	 $L193147
$L193147:
  00ca7	e8 ff ff ff	 DD	 -24			; ffffffe8H
  00cab	04 00 00 00	 DD	 4
  00caf	00 00 00 00	 DD	 $L193144
  00cb3	c8 ff ff ff	 DD	 -56			; ffffffc8H
  00cb7	10 00 00 00	 DD	 16			; 00000010H
  00cbb	00 00 00 00	 DD	 $L193145
$L193145:
  00cbf	72		 DB	 114			; 00000072H
  00cc0	63		 DB	 99			; 00000063H
  00cc1	00		 DB	 0
$L193144:
  00cc2	70		 DB	 112			; 00000070H
  00cc3	49		 DB	 73			; 00000049H
  00cc4	74		 DB	 116			; 00000074H
  00cc5	65		 DB	 101			; 00000065H
  00cc6	6d		 DB	 109			; 0000006dH
  00cc7	00		 DB	 0
_TEXT	ENDS
text$x	SEGMENT
$L193141:
  0007f	8d 4d e8	 lea	 ecx, DWORD PTR _pItem$[ebp]
  00082	e9 00 00 00 00	 jmp	 ??1CPaneBase@ETSLayoutMgr@@QAE@XZ ; ETSLayoutMgr::CPaneBase::~CPaneBase
__ehhandler$?getOffsetConstrain@PaneSplitter@ETSLayoutMgr@@QAEHH@Z:
  00087	b8 00 00 00 00	 mov	 eax, OFFSET FLAT:$T193143
  0008c	e9 00 00 00 00	 jmp	 ___CxxFrameHandler
text$x	ENDS
?getOffsetConstrain@PaneSplitter@ETSLayoutMgr@@QAEHH@Z ENDP ; ETSLayoutMgr::PaneSplitter::getOffsetConstrain
PUBLIC	?GetSize@?$CArray@VCPaneBase@ETSLayoutMgr@@V12@@@QBEHXZ ; CArray<ETSLayoutMgr::CPaneBase,ETSLayoutMgr::CPaneBase>::GetSize
PUBLIC	?SetSplPosition@PaneSplitter@ETSLayoutMgr@@QAEXH@Z ; ETSLayoutMgr::PaneSplitter::SetSplPosition
PUBLIC	?ForceResizeTo@PaneSplitter@ETSLayoutMgr@@AAEXAAVCPaneBase@2@AAVCRect@@_N@Z ; ETSLayoutMgr::PaneSplitter::ForceResizeTo
EXTRN	??0CRect@@QAE@HHHH@Z:NEAR			; CRect::CRect
xdata$x	SEGMENT
$T193168 DD	0ffffffffH
	DD	FLAT:$L193158
$T193160 DD	019930520H
	DD	01H
	DD	FLAT:$T193168
	DD	2 DUP(00H)
	DD	2 DUP(00H)
; Function compile flags: /Odt /RTCsu
xdata$x	ENDS
_TEXT	SEGMENT
$T193157 = -196						; size = 16
$T193156 = -180						; size = 16
$T193155 = -164						; size = 16
$T193154 = -148						; size = 16
$T193153 = -132						; size = 16
$T193152 = -116						; size = 16
_rcAll$ = -96						; size = 16
_rcSpl$ = -72						; size = 16
_rc$ = -48						; size = 16
_pItem$ = -24						; size = 4
_this$ = -16						; size = 4
__$EHRec$ = -12						; size = 12
_pos$ = 8						; size = 4
?SetSplPosition@PaneSplitter@ETSLayoutMgr@@QAEXH@Z PROC NEAR ; ETSLayoutMgr::PaneSplitter::SetSplPosition
; _this$ = ecx

; 276  : {

  00cd0	55		 push	 ebp
  00cd1	8b ec		 mov	 ebp, esp
  00cd3	6a ff		 push	 -1
  00cd5	68 00 00 00 00	 push	 __ehhandler$?SetSplPosition@PaneSplitter@ETSLayoutMgr@@QAEXH@Z
  00cda	64 a1 00 00 00
	00		 mov	 eax, DWORD PTR fs:__except_list
  00ce0	50		 push	 eax
  00ce1	64 89 25 00 00
	00 00		 mov	 DWORD PTR fs:__except_list, esp
  00ce8	81 ec b8 00 00
	00		 sub	 esp, 184		; 000000b8H
  00cee	56		 push	 esi
  00cef	57		 push	 edi
  00cf0	51		 push	 ecx
  00cf1	8d bd 3c ff ff
	ff		 lea	 edi, DWORD PTR [ebp-196]
  00cf7	b9 2e 00 00 00	 mov	 ecx, 46			; 0000002eH
  00cfc	b8 cc cc cc cc	 mov	 eax, -858993460		; ccccccccH
  00d01	f3 ab		 rep stosd
  00d03	59		 pop	 ecx
  00d04	89 4d f0	 mov	 DWORD PTR _this$[ebp], ecx

; 277  : 	ASSERT(m_paneItems.GetSize() == 3);

  00d07	8b 4d f0	 mov	 ecx, DWORD PTR _this$[ebp]
  00d0a	83 c1 64	 add	 ecx, 100		; 00000064H
  00d0d	e8 00 00 00 00	 call	 ?GetSize@?$CArray@VCPaneBase@ETSLayoutMgr@@V12@@@QBEHXZ ; CArray<ETSLayoutMgr::CPaneBase,ETSLayoutMgr::CPaneBase>::GetSize
  00d12	83 f8 03	 cmp	 eax, 3
  00d15	74 14		 je	 SHORT $L193151
  00d17	68 15 01 00 00	 push	 277			; 00000115H
  00d1c	68 00 00 00 00	 push	 OFFSET FLAT:$SG190599
  00d21	e8 00 00 00 00	 call	 ?AfxAssertFailedLine@@YGHPBDH@Z ; AfxAssertFailedLine
  00d26	85 c0		 test	 eax, eax
  00d28	74 01		 je	 SHORT $L193151
  00d2a	cc		 int	 3
$L193151:

; 278  : 
; 279  : 	CPaneBase pItem = m_paneItems[0];

  00d2b	6a 00		 push	 0
  00d2d	8b 4d f0	 mov	 ecx, DWORD PTR _this$[ebp]
  00d30	83 c1 64	 add	 ecx, 100		; 00000064H
  00d33	e8 00 00 00 00	 call	 ??A?$CArray@VCPaneBase@ETSLayoutMgr@@V12@@@QAEAAVCPaneBase@ETSLayoutMgr@@H@Z ; CArray<ETSLayoutMgr::CPaneBase,ETSLayoutMgr::CPaneBase>::operator[]
  00d38	50		 push	 eax
  00d39	8d 4d e8	 lea	 ecx, DWORD PTR _pItem$[ebp]
  00d3c	e8 00 00 00 00	 call	 ??0CPaneBase@ETSLayoutMgr@@QAE@ABV01@@Z ; ETSLayoutMgr::CPaneBase::CPaneBase
  00d41	c7 45 fc 00 00
	00 00		 mov	 DWORD PTR __$EHRec$[ebp+8], 0

; 280  : 	CRect rc = pItem->getPaneRect();

  00d48	8d 4d d0	 lea	 ecx, DWORD PTR _rc$[ebp]
  00d4b	51		 push	 ecx
  00d4c	8d 4d e8	 lea	 ecx, DWORD PTR _pItem$[ebp]
  00d4f	e8 00 00 00 00	 call	 ??CCPaneBase@ETSLayoutMgr@@QBEPAVPaneBase@1@XZ ; ETSLayoutMgr::CPaneBase::operator->
  00d54	8b c8		 mov	 ecx, eax
  00d56	e8 00 00 00 00	 call	 ?getPaneRect@PaneBase@ETSLayoutMgr@@QAE?AVCRect@@XZ ; ETSLayoutMgr::PaneBase::getPaneRect

; 281  : 
; 282  : 	//Resize First Pane
; 283  : 	if(this->m_Orientation == ETSLayoutMgr::HORIZONTAL)

  00d5b	8b 55 f0	 mov	 edx, DWORD PTR _this$[ebp]
  00d5e	83 7a 60 00	 cmp	 DWORD PTR [edx+96], 0
  00d62	75 34		 jne	 SHORT $L190603

; 284  : 		rc = CRect(rc.left, rc.top, rc.left + pos, rc.bottom);

  00d64	8b 45 dc	 mov	 eax, DWORD PTR _rc$[ebp+12]
  00d67	50		 push	 eax
  00d68	8b 4d d0	 mov	 ecx, DWORD PTR _rc$[ebp]
  00d6b	03 4d 08	 add	 ecx, DWORD PTR _pos$[ebp]
  00d6e	51		 push	 ecx
  00d6f	8b 55 d4	 mov	 edx, DWORD PTR _rc$[ebp+4]
  00d72	52		 push	 edx
  00d73	8b 45 d0	 mov	 eax, DWORD PTR _rc$[ebp]
  00d76	50		 push	 eax
  00d77	8d 4d 8c	 lea	 ecx, DWORD PTR $T193152[ebp]
  00d7a	e8 00 00 00 00	 call	 ??0CRect@@QAE@HHHH@Z	; CRect::CRect
  00d7f	8b 08		 mov	 ecx, DWORD PTR [eax]
  00d81	89 4d d0	 mov	 DWORD PTR _rc$[ebp], ecx
  00d84	8b 50 04	 mov	 edx, DWORD PTR [eax+4]
  00d87	89 55 d4	 mov	 DWORD PTR _rc$[ebp+4], edx
  00d8a	8b 48 08	 mov	 ecx, DWORD PTR [eax+8]
  00d8d	89 4d d8	 mov	 DWORD PTR _rc$[ebp+8], ecx
  00d90	8b 50 0c	 mov	 edx, DWORD PTR [eax+12]
  00d93	89 55 dc	 mov	 DWORD PTR _rc$[ebp+12], edx

; 285  : 	else

  00d96	eb 35		 jmp	 SHORT $L190605
$L190603:

; 286  : 		rc = CRect(rc.left, rc.top, rc.right, rc.top + pos);//rc.InflateRect(0, 0, 0, offset);

  00d98	8b 45 d4	 mov	 eax, DWORD PTR _rc$[ebp+4]
  00d9b	03 45 08	 add	 eax, DWORD PTR _pos$[ebp]
  00d9e	50		 push	 eax
  00d9f	8b 4d d8	 mov	 ecx, DWORD PTR _rc$[ebp+8]
  00da2	51		 push	 ecx
  00da3	8b 55 d4	 mov	 edx, DWORD PTR _rc$[ebp+4]
  00da6	52		 push	 edx
  00da7	8b 45 d0	 mov	 eax, DWORD PTR _rc$[ebp]
  00daa	50		 push	 eax
  00dab	8d 8d 7c ff ff
	ff		 lea	 ecx, DWORD PTR $T193153[ebp]
  00db1	e8 00 00 00 00	 call	 ??0CRect@@QAE@HHHH@Z	; CRect::CRect
  00db6	8b 08		 mov	 ecx, DWORD PTR [eax]
  00db8	89 4d d0	 mov	 DWORD PTR _rc$[ebp], ecx
  00dbb	8b 50 04	 mov	 edx, DWORD PTR [eax+4]
  00dbe	89 55 d4	 mov	 DWORD PTR _rc$[ebp+4], edx
  00dc1	8b 48 08	 mov	 ecx, DWORD PTR [eax+8]
  00dc4	89 4d d8	 mov	 DWORD PTR _rc$[ebp+8], ecx
  00dc7	8b 50 0c	 mov	 edx, DWORD PTR [eax+12]
  00dca	89 55 dc	 mov	 DWORD PTR _rc$[ebp+12], edx
$L190605:

; 287  : 	ForceResizeTo(pItem, rc);

  00dcd	6a 00		 push	 0
  00dcf	8d 45 d0	 lea	 eax, DWORD PTR _rc$[ebp]
  00dd2	50		 push	 eax
  00dd3	8d 4d e8	 lea	 ecx, DWORD PTR _pItem$[ebp]
  00dd6	51		 push	 ecx
  00dd7	8b 4d f0	 mov	 ecx, DWORD PTR _this$[ebp]
  00dda	e8 00 00 00 00	 call	 ?ForceResizeTo@PaneSplitter@ETSLayoutMgr@@AAEXAAVCPaneBase@2@AAVCRect@@_N@Z ; ETSLayoutMgr::PaneSplitter::ForceResizeTo

; 288  : 
; 289  : 	//Resize Second Pane
; 290  : 	pItem = m_paneItems[1];

  00ddf	6a 01		 push	 1
  00de1	8b 4d f0	 mov	 ecx, DWORD PTR _this$[ebp]
  00de4	83 c1 64	 add	 ecx, 100		; 00000064H
  00de7	e8 00 00 00 00	 call	 ??A?$CArray@VCPaneBase@ETSLayoutMgr@@V12@@@QAEAAVCPaneBase@ETSLayoutMgr@@H@Z ; CArray<ETSLayoutMgr::CPaneBase,ETSLayoutMgr::CPaneBase>::operator[]
  00dec	50		 push	 eax
  00ded	8d 4d e8	 lea	 ecx, DWORD PTR _pItem$[ebp]
  00df0	e8 00 00 00 00	 call	 ??4CPaneBase@ETSLayoutMgr@@QAEXABV01@@Z ; ETSLayoutMgr::CPaneBase::operator=

; 291  : 	CRect rcSpl = pItem->getPaneRect();

  00df5	8d 55 b8	 lea	 edx, DWORD PTR _rcSpl$[ebp]
  00df8	52		 push	 edx
  00df9	8d 4d e8	 lea	 ecx, DWORD PTR _pItem$[ebp]
  00dfc	e8 00 00 00 00	 call	 ??CCPaneBase@ETSLayoutMgr@@QBEPAVPaneBase@1@XZ ; ETSLayoutMgr::CPaneBase::operator->
  00e01	8b c8		 mov	 ecx, eax
  00e03	e8 00 00 00 00	 call	 ?getPaneRect@PaneBase@ETSLayoutMgr@@QAE?AVCRect@@XZ ; ETSLayoutMgr::PaneBase::getPaneRect

; 292  : 	if(this->m_Orientation == ETSLayoutMgr::HORIZONTAL)

  00e08	8b 45 f0	 mov	 eax, DWORD PTR _this$[ebp]
  00e0b	83 78 60 00	 cmp	 DWORD PTR [eax+96], 0
  00e0f	75 3c		 jne	 SHORT $L190609

; 293  : 		rc = CRect(rc.right, rcSpl.top, rc.right + rcSpl.Width(), rcSpl.bottom);//rc.InflateRect(-offset,0, 0,  0);

  00e11	8b 4d c4	 mov	 ecx, DWORD PTR _rcSpl$[ebp+12]
  00e14	51		 push	 ecx
  00e15	8d 4d b8	 lea	 ecx, DWORD PTR _rcSpl$[ebp]
  00e18	e8 00 00 00 00	 call	 ?Width@CRect@@QBEHXZ	; CRect::Width
  00e1d	03 45 d8	 add	 eax, DWORD PTR _rc$[ebp+8]
  00e20	50		 push	 eax
  00e21	8b 55 bc	 mov	 edx, DWORD PTR _rcSpl$[ebp+4]
  00e24	52		 push	 edx
  00e25	8b 45 d8	 mov	 eax, DWORD PTR _rc$[ebp+8]
  00e28	50		 push	 eax
  00e29	8d 8d 6c ff ff
	ff		 lea	 ecx, DWORD PTR $T193154[ebp]
  00e2f	e8 00 00 00 00	 call	 ??0CRect@@QAE@HHHH@Z	; CRect::CRect
  00e34	8b 08		 mov	 ecx, DWORD PTR [eax]
  00e36	89 4d d0	 mov	 DWORD PTR _rc$[ebp], ecx
  00e39	8b 50 04	 mov	 edx, DWORD PTR [eax+4]
  00e3c	89 55 d4	 mov	 DWORD PTR _rc$[ebp+4], edx
  00e3f	8b 48 08	 mov	 ecx, DWORD PTR [eax+8]
  00e42	89 4d d8	 mov	 DWORD PTR _rc$[ebp+8], ecx
  00e45	8b 50 0c	 mov	 edx, DWORD PTR [eax+12]
  00e48	89 55 dc	 mov	 DWORD PTR _rc$[ebp+12], edx

; 294  : 	else

  00e4b	eb 3a		 jmp	 SHORT $L190611
$L190609:

; 295  : 		rc = CRect(rcSpl.left, rc.bottom, rcSpl.right, rc.bottom + rcSpl.Width());//.rc.InflateRect(0, -offset, 0,0);

  00e4d	8d 4d b8	 lea	 ecx, DWORD PTR _rcSpl$[ebp]
  00e50	e8 00 00 00 00	 call	 ?Width@CRect@@QBEHXZ	; CRect::Width
  00e55	03 45 dc	 add	 eax, DWORD PTR _rc$[ebp+12]
  00e58	50		 push	 eax
  00e59	8b 45 c0	 mov	 eax, DWORD PTR _rcSpl$[ebp+8]
  00e5c	50		 push	 eax
  00e5d	8b 4d dc	 mov	 ecx, DWORD PTR _rc$[ebp+12]
  00e60	51		 push	 ecx
  00e61	8b 55 b8	 mov	 edx, DWORD PTR _rcSpl$[ebp]
  00e64	52		 push	 edx
  00e65	8d 8d 5c ff ff
	ff		 lea	 ecx, DWORD PTR $T193155[ebp]
  00e6b	e8 00 00 00 00	 call	 ??0CRect@@QAE@HHHH@Z	; CRect::CRect
  00e70	8b 08		 mov	 ecx, DWORD PTR [eax]
  00e72	89 4d d0	 mov	 DWORD PTR _rc$[ebp], ecx
  00e75	8b 50 04	 mov	 edx, DWORD PTR [eax+4]
  00e78	89 55 d4	 mov	 DWORD PTR _rc$[ebp+4], edx
  00e7b	8b 48 08	 mov	 ecx, DWORD PTR [eax+8]
  00e7e	89 4d d8	 mov	 DWORD PTR _rc$[ebp+8], ecx
  00e81	8b 50 0c	 mov	 edx, DWORD PTR [eax+12]
  00e84	89 55 dc	 mov	 DWORD PTR _rc$[ebp+12], edx
$L190611:

; 296  : 	ForceResizeTo(pItem, rc);

  00e87	6a 00		 push	 0
  00e89	8d 45 d0	 lea	 eax, DWORD PTR _rc$[ebp]
  00e8c	50		 push	 eax
  00e8d	8d 4d e8	 lea	 ecx, DWORD PTR _pItem$[ebp]
  00e90	51		 push	 ecx
  00e91	8b 4d f0	 mov	 ecx, DWORD PTR _this$[ebp]
  00e94	e8 00 00 00 00	 call	 ?ForceResizeTo@PaneSplitter@ETSLayoutMgr@@AAEXAAVCPaneBase@2@AAVCRect@@_N@Z ; ETSLayoutMgr::PaneSplitter::ForceResizeTo

; 297  : 
; 298  : 	//Resize Splitter
; 299  : 	pItem = m_paneItems[2];

  00e99	6a 02		 push	 2
  00e9b	8b 4d f0	 mov	 ecx, DWORD PTR _this$[ebp]
  00e9e	83 c1 64	 add	 ecx, 100		; 00000064H
  00ea1	e8 00 00 00 00	 call	 ??A?$CArray@VCPaneBase@ETSLayoutMgr@@V12@@@QAEAAVCPaneBase@ETSLayoutMgr@@H@Z ; CArray<ETSLayoutMgr::CPaneBase,ETSLayoutMgr::CPaneBase>::operator[]
  00ea6	50		 push	 eax
  00ea7	8d 4d e8	 lea	 ecx, DWORD PTR _pItem$[ebp]
  00eaa	e8 00 00 00 00	 call	 ??4CPaneBase@ETSLayoutMgr@@QAEXABV01@@Z ; ETSLayoutMgr::CPaneBase::operator=

; 300  : 	//CRect rcSecond = pItem->getPaneRect();
; 301  : 	CRect rcAll = this->getPaneRect();

  00eaf	8d 55 a0	 lea	 edx, DWORD PTR _rcAll$[ebp]
  00eb2	52		 push	 edx
  00eb3	8b 4d f0	 mov	 ecx, DWORD PTR _this$[ebp]
  00eb6	e8 00 00 00 00	 call	 ?getPaneRect@PaneBase@ETSLayoutMgr@@QAE?AVCRect@@XZ ; ETSLayoutMgr::PaneBase::getPaneRect

; 302  : 	if(this->m_Orientation == ETSLayoutMgr::HORIZONTAL)

  00ebb	8b 45 f0	 mov	 eax, DWORD PTR _this$[ebp]
  00ebe	83 78 60 00	 cmp	 DWORD PTR [eax+96], 0
  00ec2	75 4b		 jne	 SHORT $L190615

; 303  : 		rc = CRect(rc.right, rc.top, rc.right + rcAll.Width() - rcSpl.Width() - pos, rc.bottom);//rc.InflateRect(-offset, 0, offset, 0);

  00ec4	8b 4d dc	 mov	 ecx, DWORD PTR _rc$[ebp+12]
  00ec7	51		 push	 ecx
  00ec8	8d 4d a0	 lea	 ecx, DWORD PTR _rcAll$[ebp]
  00ecb	e8 00 00 00 00	 call	 ?Width@CRect@@QBEHXZ	; CRect::Width
  00ed0	8b f0		 mov	 esi, eax
  00ed2	03 75 d8	 add	 esi, DWORD PTR _rc$[ebp+8]
  00ed5	8d 4d b8	 lea	 ecx, DWORD PTR _rcSpl$[ebp]
  00ed8	e8 00 00 00 00	 call	 ?Width@CRect@@QBEHXZ	; CRect::Width
  00edd	2b f0		 sub	 esi, eax
  00edf	2b 75 08	 sub	 esi, DWORD PTR _pos$[ebp]
  00ee2	56		 push	 esi
  00ee3	8b 55 d4	 mov	 edx, DWORD PTR _rc$[ebp+4]
  00ee6	52		 push	 edx
  00ee7	8b 45 d8	 mov	 eax, DWORD PTR _rc$[ebp+8]
  00eea	50		 push	 eax
  00eeb	8d 8d 4c ff ff
	ff		 lea	 ecx, DWORD PTR $T193156[ebp]
  00ef1	e8 00 00 00 00	 call	 ??0CRect@@QAE@HHHH@Z	; CRect::CRect
  00ef6	8b 08		 mov	 ecx, DWORD PTR [eax]
  00ef8	89 4d d0	 mov	 DWORD PTR _rc$[ebp], ecx
  00efb	8b 50 04	 mov	 edx, DWORD PTR [eax+4]
  00efe	89 55 d4	 mov	 DWORD PTR _rc$[ebp+4], edx
  00f01	8b 48 08	 mov	 ecx, DWORD PTR [eax+8]
  00f04	89 4d d8	 mov	 DWORD PTR _rc$[ebp+8], ecx
  00f07	8b 50 0c	 mov	 edx, DWORD PTR [eax+12]
  00f0a	89 55 dc	 mov	 DWORD PTR _rc$[ebp+12], edx

; 304  : 	else

  00f0d	eb 49		 jmp	 SHORT $L190617
$L190615:

; 305  : 		rc = CRect(rc.left, rc.bottom, rc.right, rc.bottom + rcAll.Height() - rcSpl.Height() - pos); //rc.InflateRect(0, -offset,0, offset);

  00f0f	8d 4d a0	 lea	 ecx, DWORD PTR _rcAll$[ebp]
  00f12	e8 00 00 00 00	 call	 ?Height@CRect@@QBEHXZ	; CRect::Height
  00f17	8b f0		 mov	 esi, eax
  00f19	03 75 dc	 add	 esi, DWORD PTR _rc$[ebp+12]
  00f1c	8d 4d b8	 lea	 ecx, DWORD PTR _rcSpl$[ebp]
  00f1f	e8 00 00 00 00	 call	 ?Height@CRect@@QBEHXZ	; CRect::Height
  00f24	2b f0		 sub	 esi, eax
  00f26	2b 75 08	 sub	 esi, DWORD PTR _pos$[ebp]
  00f29	56		 push	 esi
  00f2a	8b 45 d8	 mov	 eax, DWORD PTR _rc$[ebp+8]
  00f2d	50		 push	 eax
  00f2e	8b 4d dc	 mov	 ecx, DWORD PTR _rc$[ebp+12]
  00f31	51		 push	 ecx
  00f32	8b 55 d0	 mov	 edx, DWORD PTR _rc$[ebp]
  00f35	52		 push	 edx
  00f36	8d 8d 3c ff ff
	ff		 lea	 ecx, DWORD PTR $T193157[ebp]
  00f3c	e8 00 00 00 00	 call	 ??0CRect@@QAE@HHHH@Z	; CRect::CRect
  00f41	8b 08		 mov	 ecx, DWORD PTR [eax]
  00f43	89 4d d0	 mov	 DWORD PTR _rc$[ebp], ecx
  00f46	8b 50 04	 mov	 edx, DWORD PTR [eax+4]
  00f49	89 55 d4	 mov	 DWORD PTR _rc$[ebp+4], edx
  00f4c	8b 48 08	 mov	 ecx, DWORD PTR [eax+8]
  00f4f	89 4d d8	 mov	 DWORD PTR _rc$[ebp+8], ecx
  00f52	8b 50 0c	 mov	 edx, DWORD PTR [eax+12]
  00f55	89 55 dc	 mov	 DWORD PTR _rc$[ebp+12], edx
$L190617:

; 306  : 	ForceResizeTo(pItem, rc);

  00f58	6a 00		 push	 0
  00f5a	8d 45 d0	 lea	 eax, DWORD PTR _rc$[ebp]
  00f5d	50		 push	 eax
  00f5e	8d 4d e8	 lea	 ecx, DWORD PTR _pItem$[ebp]
  00f61	51		 push	 ecx
  00f62	8b 4d f0	 mov	 ecx, DWORD PTR _this$[ebp]
  00f65	e8 00 00 00 00	 call	 ?ForceResizeTo@PaneSplitter@ETSLayoutMgr@@AAEXAAVCPaneBase@2@AAVCRect@@_N@Z ; ETSLayoutMgr::PaneSplitter::ForceResizeTo

; 307  : 
; 308  : 	if(!IsClosed())

  00f6a	8b 4d f0	 mov	 ecx, DWORD PTR _this$[ebp]
  00f6d	e8 00 00 00 00	 call	 ?IsClosed@PaneSplitter@ETSLayoutMgr@@QAEHXZ ; ETSLayoutMgr::PaneSplitter::IsClosed
  00f72	85 c0		 test	 eax, eax
  00f74	75 08		 jne	 SHORT $L190619

; 309  : 		setOpenConstrain();

  00f76	8b 4d f0	 mov	 ecx, DWORD PTR _this$[ebp]
  00f79	e8 00 00 00 00	 call	 ?setOpenConstrain@PaneSplitter@ETSLayoutMgr@@QAEXXZ ; ETSLayoutMgr::PaneSplitter::setOpenConstrain
$L190619:

; 310  : 
; 311  : }

  00f7e	c7 45 fc ff ff
	ff ff		 mov	 DWORD PTR __$EHRec$[ebp+8], -1
  00f85	8d 4d e8	 lea	 ecx, DWORD PTR _pItem$[ebp]
  00f88	e8 00 00 00 00	 call	 ??1CPaneBase@ETSLayoutMgr@@QAE@XZ ; ETSLayoutMgr::CPaneBase::~CPaneBase
  00f8d	52		 push	 edx
  00f8e	8b cd		 mov	 ecx, ebp
  00f90	50		 push	 eax
  00f91	8d 15 00 00 00
	00		 lea	 edx, DWORD PTR $L193167
  00f97	e8 00 00 00 00	 call	 @_RTC_CheckStackVars@8
  00f9c	58		 pop	 eax
  00f9d	5a		 pop	 edx
  00f9e	8b 4d f4	 mov	 ecx, DWORD PTR __$EHRec$[ebp]
  00fa1	64 89 0d 00 00
	00 00		 mov	 DWORD PTR fs:__except_list, ecx
  00fa8	5f		 pop	 edi
  00fa9	5e		 pop	 esi
  00faa	81 c4 c4 00 00
	00		 add	 esp, 196		; 000000c4H
  00fb0	3b ec		 cmp	 ebp, esp
  00fb2	e8 00 00 00 00	 call	 __RTC_CheckEsp
  00fb7	8b e5		 mov	 esp, ebp
  00fb9	5d		 pop	 ebp
  00fba	c2 04 00	 ret	 4
$L193167:
  00fbd	04 00 00 00	 DD	 4
  00fc1	00 00 00 00	 DD	 $L193166
$L193166:
  00fc5	e8 ff ff ff	 DD	 -24			; ffffffe8H
  00fc9	04 00 00 00	 DD	 4
  00fcd	00 00 00 00	 DD	 $L193161
  00fd1	d0 ff ff ff	 DD	 -48			; ffffffd0H
  00fd5	10 00 00 00	 DD	 16			; 00000010H
  00fd9	00 00 00 00	 DD	 $L193162
  00fdd	b8 ff ff ff	 DD	 -72			; ffffffb8H
  00fe1	10 00 00 00	 DD	 16			; 00000010H
  00fe5	00 00 00 00	 DD	 $L193163
  00fe9	a0 ff ff ff	 DD	 -96			; ffffffa0H
  00fed	10 00 00 00	 DD	 16			; 00000010H
  00ff1	00 00 00 00	 DD	 $L193164
$L193164:
  00ff5	72		 DB	 114			; 00000072H
  00ff6	63		 DB	 99			; 00000063H
  00ff7	41		 DB	 65			; 00000041H
  00ff8	6c		 DB	 108			; 0000006cH
  00ff9	6c		 DB	 108			; 0000006cH
  00ffa	00		 DB	 0
$L193163:
  00ffb	72		 DB	 114			; 00000072H
  00ffc	63		 DB	 99			; 00000063H
  00ffd	53		 DB	 83			; 00000053H
  00ffe	70		 DB	 112			; 00000070H
  00fff	6c		 DB	 108			; 0000006cH
  01000	00		 DB	 0
$L193162:
  01001	72		 DB	 114			; 00000072H
  01002	63		 DB	 99			; 00000063H
  01003	00		 DB	 0
$L193161:
  01004	70		 DB	 112			; 00000070H
  01005	49		 DB	 73			; 00000049H
  01006	74		 DB	 116			; 00000074H
  01007	65		 DB	 101			; 00000065H
  01008	6d		 DB	 109			; 0000006dH
  01009	00		 DB	 0
_TEXT	ENDS
text$x	SEGMENT
$L193158:
  00091	8d 4d e8	 lea	 ecx, DWORD PTR _pItem$[ebp]
  00094	e9 00 00 00 00	 jmp	 ??1CPaneBase@ETSLayoutMgr@@QAE@XZ ; ETSLayoutMgr::CPaneBase::~CPaneBase
__ehhandler$?SetSplPosition@PaneSplitter@ETSLayoutMgr@@QAEXH@Z:
  00099	b8 00 00 00 00	 mov	 eax, OFFSET FLAT:$T193160
  0009e	e9 00 00 00 00	 jmp	 ___CxxFrameHandler
text$x	ENDS
?SetSplPosition@PaneSplitter@ETSLayoutMgr@@QAEXH@Z ENDP	; ETSLayoutMgr::PaneSplitter::SetSplPosition
PUBLIC	?GetSplPosition@PaneSplitter@ETSLayoutMgr@@QAEHXZ ; ETSLayoutMgr::PaneSplitter::GetSplPosition
xdata$x	SEGMENT
$T193183 DD	0ffffffffH
	DD	FLAT:$L193174
$T193176 DD	019930520H
	DD	01H
	DD	FLAT:$T193183
	DD	2 DUP(00H)
	DD	2 DUP(00H)
; Function compile flags: /Odt /RTCsu
xdata$x	ENDS
_TEXT	SEGMENT
$T193173 = -88						; size = 4
$T193172 = -84						; size = 4
$T193171 = -80						; size = 4
_rc2$ = -72						; size = 16
_rc$ = -48						; size = 16
_pItem$ = -24						; size = 4
_this$ = -16						; size = 4
__$EHRec$ = -12						; size = 12
?GetSplPosition@PaneSplitter@ETSLayoutMgr@@QAEHXZ PROC NEAR ; ETSLayoutMgr::PaneSplitter::GetSplPosition
; _this$ = ecx

; 314  : {

  01010	55		 push	 ebp
  01011	8b ec		 mov	 ebp, esp
  01013	6a ff		 push	 -1
  01015	68 00 00 00 00	 push	 __ehhandler$?GetSplPosition@PaneSplitter@ETSLayoutMgr@@QAEHXZ
  0101a	64 a1 00 00 00
	00		 mov	 eax, DWORD PTR fs:__except_list
  01020	50		 push	 eax
  01021	64 89 25 00 00
	00 00		 mov	 DWORD PTR fs:__except_list, esp
  01028	83 ec 4c	 sub	 esp, 76			; 0000004cH
  0102b	57		 push	 edi
  0102c	51		 push	 ecx
  0102d	8d 7d a8	 lea	 edi, DWORD PTR [ebp-88]
  01030	b9 13 00 00 00	 mov	 ecx, 19			; 00000013H
  01035	b8 cc cc cc cc	 mov	 eax, -858993460		; ccccccccH
  0103a	f3 ab		 rep stosd
  0103c	59		 pop	 ecx
  0103d	89 4d f0	 mov	 DWORD PTR _this$[ebp], ecx

; 315  : 	ASSERT(m_paneItems.GetSize() == 3);

  01040	8b 4d f0	 mov	 ecx, DWORD PTR _this$[ebp]
  01043	83 c1 64	 add	 ecx, 100		; 00000064H
  01046	e8 00 00 00 00	 call	 ?GetSize@?$CArray@VCPaneBase@ETSLayoutMgr@@V12@@@QBEHXZ ; CArray<ETSLayoutMgr::CPaneBase,ETSLayoutMgr::CPaneBase>::GetSize
  0104b	83 f8 03	 cmp	 eax, 3
  0104e	74 14		 je	 SHORT $L193170
  01050	68 3b 01 00 00	 push	 315			; 0000013bH
  01055	68 00 00 00 00	 push	 OFFSET FLAT:$SG190624
  0105a	e8 00 00 00 00	 call	 ?AfxAssertFailedLine@@YGHPBDH@Z ; AfxAssertFailedLine
  0105f	85 c0		 test	 eax, eax
  01061	74 01		 je	 SHORT $L193170
  01063	cc		 int	 3
$L193170:

; 316  : 
; 317  : 	CPaneBase pItem = m_paneItems[0];

  01064	6a 00		 push	 0
  01066	8b 4d f0	 mov	 ecx, DWORD PTR _this$[ebp]
  01069	83 c1 64	 add	 ecx, 100		; 00000064H
  0106c	e8 00 00 00 00	 call	 ??A?$CArray@VCPaneBase@ETSLayoutMgr@@V12@@@QAEAAVCPaneBase@ETSLayoutMgr@@H@Z ; CArray<ETSLayoutMgr::CPaneBase,ETSLayoutMgr::CPaneBase>::operator[]
  01071	50		 push	 eax
  01072	8d 4d e8	 lea	 ecx, DWORD PTR _pItem$[ebp]
  01075	e8 00 00 00 00	 call	 ??0CPaneBase@ETSLayoutMgr@@QAE@ABV01@@Z ; ETSLayoutMgr::CPaneBase::CPaneBase
  0107a	c7 45 fc 00 00
	00 00		 mov	 DWORD PTR __$EHRec$[ebp+8], 0

; 318  : 	CRect rc = pItem->getPaneRect();

  01081	8d 4d d0	 lea	 ecx, DWORD PTR _rc$[ebp]
  01084	51		 push	 ecx
  01085	8d 4d e8	 lea	 ecx, DWORD PTR _pItem$[ebp]
  01088	e8 00 00 00 00	 call	 ??CCPaneBase@ETSLayoutMgr@@QBEPAVPaneBase@1@XZ ; ETSLayoutMgr::CPaneBase::operator->
  0108d	8b c8		 mov	 ecx, eax
  0108f	e8 00 00 00 00	 call	 ?getPaneRect@PaneBase@ETSLayoutMgr@@QAE?AVCRect@@XZ ; ETSLayoutMgr::PaneBase::getPaneRect

; 319  : 
; 320  : 	pItem = m_paneItems[1];

  01094	6a 01		 push	 1
  01096	8b 4d f0	 mov	 ecx, DWORD PTR _this$[ebp]
  01099	83 c1 64	 add	 ecx, 100		; 00000064H
  0109c	e8 00 00 00 00	 call	 ??A?$CArray@VCPaneBase@ETSLayoutMgr@@V12@@@QAEAAVCPaneBase@ETSLayoutMgr@@H@Z ; CArray<ETSLayoutMgr::CPaneBase,ETSLayoutMgr::CPaneBase>::operator[]
  010a1	50		 push	 eax
  010a2	8d 4d e8	 lea	 ecx, DWORD PTR _pItem$[ebp]
  010a5	e8 00 00 00 00	 call	 ??4CPaneBase@ETSLayoutMgr@@QAEXABV01@@Z ; ETSLayoutMgr::CPaneBase::operator=

; 321  : 	CRect rc2 = pItem->getPaneRect();

  010aa	8d 55 b8	 lea	 edx, DWORD PTR _rc2$[ebp]
  010ad	52		 push	 edx
  010ae	8d 4d e8	 lea	 ecx, DWORD PTR _pItem$[ebp]
  010b1	e8 00 00 00 00	 call	 ??CCPaneBase@ETSLayoutMgr@@QBEPAVPaneBase@1@XZ ; ETSLayoutMgr::CPaneBase::operator->
  010b6	8b c8		 mov	 ecx, eax
  010b8	e8 00 00 00 00	 call	 ?getPaneRect@PaneBase@ETSLayoutMgr@@QAE?AVCRect@@XZ ; ETSLayoutMgr::PaneBase::getPaneRect

; 322  : 
; 323  : 	if(rc.Width() == 0 && rc2.Width() == 0)

  010bd	8d 4d d0	 lea	 ecx, DWORD PTR _rc$[ebp]
  010c0	e8 00 00 00 00	 call	 ?Width@CRect@@QBEHXZ	; CRect::Width
  010c5	85 c0		 test	 eax, eax
  010c7	75 27		 jne	 SHORT $L190630
  010c9	8d 4d b8	 lea	 ecx, DWORD PTR _rc2$[ebp]
  010cc	e8 00 00 00 00	 call	 ?Width@CRect@@QBEHXZ	; CRect::Width
  010d1	85 c0		 test	 eax, eax
  010d3	75 1b		 jne	 SHORT $L190630

; 324  : 		return -1;

  010d5	c7 45 b0 ff ff
	ff ff		 mov	 DWORD PTR $T193171[ebp], -1
  010dc	c7 45 fc ff ff
	ff ff		 mov	 DWORD PTR __$EHRec$[ebp+8], -1
  010e3	8d 4d e8	 lea	 ecx, DWORD PTR _pItem$[ebp]
  010e6	e8 00 00 00 00	 call	 ??1CPaneBase@ETSLayoutMgr@@QAE@XZ ; ETSLayoutMgr::CPaneBase::~CPaneBase
  010eb	8b 45 b0	 mov	 eax, DWORD PTR $T193171[ebp]
  010ee	eb 45		 jmp	 SHORT $L190622
$L190630:

; 325  : 
; 326  : 	if(this->m_Orientation == ETSLayoutMgr::HORIZONTAL)

  010f0	8b 45 f0	 mov	 eax, DWORD PTR _this$[ebp]
  010f3	83 78 60 00	 cmp	 DWORD PTR [eax+96], 0
  010f7	75 1f		 jne	 SHORT $L190632

; 327  : 		return rc.Width();

  010f9	8d 4d d0	 lea	 ecx, DWORD PTR _rc$[ebp]
  010fc	e8 00 00 00 00	 call	 ?Width@CRect@@QBEHXZ	; CRect::Width
  01101	89 45 ac	 mov	 DWORD PTR $T193172[ebp], eax
  01104	c7 45 fc ff ff
	ff ff		 mov	 DWORD PTR __$EHRec$[ebp+8], -1
  0110b	8d 4d e8	 lea	 ecx, DWORD PTR _pItem$[ebp]
  0110e	e8 00 00 00 00	 call	 ??1CPaneBase@ETSLayoutMgr@@QAE@XZ ; ETSLayoutMgr::CPaneBase::~CPaneBase
  01113	8b 45 ac	 mov	 eax, DWORD PTR $T193172[ebp]
  01116	eb 1d		 jmp	 SHORT $L190622
$L190632:

; 328  : 	else
; 329  : 		return rc.Height();

  01118	8d 4d d0	 lea	 ecx, DWORD PTR _rc$[ebp]
  0111b	e8 00 00 00 00	 call	 ?Height@CRect@@QBEHXZ	; CRect::Height
  01120	89 45 a8	 mov	 DWORD PTR $T193173[ebp], eax
  01123	c7 45 fc ff ff
	ff ff		 mov	 DWORD PTR __$EHRec$[ebp+8], -1
  0112a	8d 4d e8	 lea	 ecx, DWORD PTR _pItem$[ebp]
  0112d	e8 00 00 00 00	 call	 ??1CPaneBase@ETSLayoutMgr@@QAE@XZ ; ETSLayoutMgr::CPaneBase::~CPaneBase
  01132	8b 45 a8	 mov	 eax, DWORD PTR $T193173[ebp]
$L190622:

; 330  : }

  01135	52		 push	 edx
  01136	8b cd		 mov	 ecx, ebp
  01138	50		 push	 eax
  01139	8d 15 00 00 00
	00		 lea	 edx, DWORD PTR $L193182
  0113f	e8 00 00 00 00	 call	 @_RTC_CheckStackVars@8
  01144	58		 pop	 eax
  01145	5a		 pop	 edx
  01146	8b 4d f4	 mov	 ecx, DWORD PTR __$EHRec$[ebp]
  01149	64 89 0d 00 00
	00 00		 mov	 DWORD PTR fs:__except_list, ecx
  01150	5f		 pop	 edi
  01151	83 c4 58	 add	 esp, 88			; 00000058H
  01154	3b ec		 cmp	 ebp, esp
  01156	e8 00 00 00 00	 call	 __RTC_CheckEsp
  0115b	8b e5		 mov	 esp, ebp
  0115d	5d		 pop	 ebp
  0115e	c3		 ret	 0
$L193182:
  0115f	03 00 00 00	 DD	 3
  01163	00 00 00 00	 DD	 $L193181
$L193181:
  01167	e8 ff ff ff	 DD	 -24			; ffffffe8H
  0116b	04 00 00 00	 DD	 4
  0116f	00 00 00 00	 DD	 $L193177
  01173	d0 ff ff ff	 DD	 -48			; ffffffd0H
  01177	10 00 00 00	 DD	 16			; 00000010H
  0117b	00 00 00 00	 DD	 $L193178
  0117f	b8 ff ff ff	 DD	 -72			; ffffffb8H
  01183	10 00 00 00	 DD	 16			; 00000010H
  01187	00 00 00 00	 DD	 $L193179
$L193179:
  0118b	72		 DB	 114			; 00000072H
  0118c	63		 DB	 99			; 00000063H
  0118d	32		 DB	 50			; 00000032H
  0118e	00		 DB	 0
$L193178:
  0118f	72		 DB	 114			; 00000072H
  01190	63		 DB	 99			; 00000063H
  01191	00		 DB	 0
$L193177:
  01192	70		 DB	 112			; 00000070H
  01193	49		 DB	 73			; 00000049H
  01194	74		 DB	 116			; 00000074H
  01195	65		 DB	 101			; 00000065H
  01196	6d		 DB	 109			; 0000006dH
  01197	00		 DB	 0
_TEXT	ENDS
text$x	SEGMENT
$L193174:
  000a3	8d 4d e8	 lea	 ecx, DWORD PTR _pItem$[ebp]
  000a6	e9 00 00 00 00	 jmp	 ??1CPaneBase@ETSLayoutMgr@@QAE@XZ ; ETSLayoutMgr::CPaneBase::~CPaneBase
__ehhandler$?GetSplPosition@PaneSplitter@ETSLayoutMgr@@QAEHXZ:
  000ab	b8 00 00 00 00	 mov	 eax, OFFSET FLAT:$T193176
  000b0	e9 00 00 00 00	 jmp	 ___CxxFrameHandler
text$x	ENDS
?GetSplPosition@PaneSplitter@ETSLayoutMgr@@QAEHXZ ENDP	; ETSLayoutMgr::PaneSplitter::GetSplPosition
PUBLIC	?GetOuterPaneMinPosition@PaneSplitter@ETSLayoutMgr@@QAEHXZ ; ETSLayoutMgr::PaneSplitter::GetOuterPaneMinPosition
xdata$x	SEGMENT
$T193193 DD	0ffffffffH
	DD	FLAT:$L193186
$T193188 DD	019930520H
	DD	01H
	DD	FLAT:$T193193
	DD	2 DUP(00H)
	DD	2 DUP(00H)
; Function compile flags: /Odt /RTCsu
xdata$x	ENDS
_TEXT	SEGMENT
tv75 = -40						; size = 4
$T193185 = -36						; size = 4
_min$ = -32						; size = 4
_pItem$ = -24						; size = 4
_this$ = -16						; size = 4
__$EHRec$ = -12						; size = 12
?GetOuterPaneMinPosition@PaneSplitter@ETSLayoutMgr@@QAEHXZ PROC NEAR ; ETSLayoutMgr::PaneSplitter::GetOuterPaneMinPosition
; _this$ = ecx

; 334  : {

  011a0	55		 push	 ebp
  011a1	8b ec		 mov	 ebp, esp
  011a3	6a ff		 push	 -1
  011a5	68 00 00 00 00	 push	 __ehhandler$?GetOuterPaneMinPosition@PaneSplitter@ETSLayoutMgr@@QAEHXZ
  011aa	64 a1 00 00 00
	00		 mov	 eax, DWORD PTR fs:__except_list
  011b0	50		 push	 eax
  011b1	64 89 25 00 00
	00 00		 mov	 DWORD PTR fs:__except_list, esp
  011b8	83 ec 1c	 sub	 esp, 28			; 0000001cH
  011bb	56		 push	 esi
  011bc	b8 cc cc cc cc	 mov	 eax, -858993460		; ccccccccH
  011c1	89 45 d8	 mov	 DWORD PTR [ebp-40], eax
  011c4	89 45 dc	 mov	 DWORD PTR [ebp-36], eax
  011c7	89 45 e0	 mov	 DWORD PTR [ebp-32], eax
  011ca	89 45 e4	 mov	 DWORD PTR [ebp-28], eax
  011cd	89 45 e8	 mov	 DWORD PTR [ebp-24], eax
  011d0	89 45 ec	 mov	 DWORD PTR [ebp-20], eax
  011d3	89 45 f0	 mov	 DWORD PTR [ebp-16], eax
  011d6	89 4d f0	 mov	 DWORD PTR _this$[ebp], ecx

; 335  : 	CPaneBase pItem = m_paneItems[2];

  011d9	6a 02		 push	 2
  011db	8b 4d f0	 mov	 ecx, DWORD PTR _this$[ebp]
  011de	83 c1 64	 add	 ecx, 100		; 00000064H
  011e1	e8 00 00 00 00	 call	 ??A?$CArray@VCPaneBase@ETSLayoutMgr@@V12@@@QAEAAVCPaneBase@ETSLayoutMgr@@H@Z ; CArray<ETSLayoutMgr::CPaneBase,ETSLayoutMgr::CPaneBase>::operator[]
  011e6	50		 push	 eax
  011e7	8d 4d e8	 lea	 ecx, DWORD PTR _pItem$[ebp]
  011ea	e8 00 00 00 00	 call	 ??0CPaneBase@ETSLayoutMgr@@QAE@ABV01@@Z ; ETSLayoutMgr::CPaneBase::CPaneBase
  011ef	c7 45 fc 00 00
	00 00		 mov	 DWORD PTR __$EHRec$[ebp+8], 0

; 336  : 	int min =  pItem->getMinConstrainHorz();

  011f6	8d 4d e8	 lea	 ecx, DWORD PTR _pItem$[ebp]
  011f9	e8 00 00 00 00	 call	 ??CCPaneBase@ETSLayoutMgr@@QBEPAVPaneBase@1@XZ ; ETSLayoutMgr::CPaneBase::operator->
  011fe	89 45 d8	 mov	 DWORD PTR tv75[ebp], eax
  01201	8b 45 d8	 mov	 eax, DWORD PTR tv75[ebp]
  01204	8b 10		 mov	 edx, DWORD PTR [eax]
  01206	8b f4		 mov	 esi, esp
  01208	8b 4d d8	 mov	 ecx, DWORD PTR tv75[ebp]
  0120b	ff 52 08	 call	 DWORD PTR [edx+8]
  0120e	3b f4		 cmp	 esi, esp
  01210	e8 00 00 00 00	 call	 __RTC_CheckEsp
  01215	89 45 e0	 mov	 DWORD PTR _min$[ebp], eax

; 337  : 
; 338  : 	return min;

  01218	8b 45 e0	 mov	 eax, DWORD PTR _min$[ebp]
  0121b	89 45 dc	 mov	 DWORD PTR $T193185[ebp], eax
  0121e	c7 45 fc ff ff
	ff ff		 mov	 DWORD PTR __$EHRec$[ebp+8], -1
  01225	8d 4d e8	 lea	 ecx, DWORD PTR _pItem$[ebp]
  01228	e8 00 00 00 00	 call	 ??1CPaneBase@ETSLayoutMgr@@QAE@XZ ; ETSLayoutMgr::CPaneBase::~CPaneBase
  0122d	8b 45 dc	 mov	 eax, DWORD PTR $T193185[ebp]

; 339  : }

  01230	52		 push	 edx
  01231	8b cd		 mov	 ecx, ebp
  01233	50		 push	 eax
  01234	8d 15 00 00 00
	00		 lea	 edx, DWORD PTR $L193192
  0123a	e8 00 00 00 00	 call	 @_RTC_CheckStackVars@8
  0123f	58		 pop	 eax
  01240	5a		 pop	 edx
  01241	8b 4d f4	 mov	 ecx, DWORD PTR __$EHRec$[ebp]
  01244	64 89 0d 00 00
	00 00		 mov	 DWORD PTR fs:__except_list, ecx
  0124b	5e		 pop	 esi
  0124c	83 c4 28	 add	 esp, 40			; 00000028H
  0124f	3b ec		 cmp	 ebp, esp
  01251	e8 00 00 00 00	 call	 __RTC_CheckEsp
  01256	8b e5		 mov	 esp, ebp
  01258	5d		 pop	 ebp
  01259	c3		 ret	 0
$L193192:
  0125a	01 00 00 00	 DD	 1
  0125e	00 00 00 00	 DD	 $L193191
$L193191:
  01262	e8 ff ff ff	 DD	 -24			; ffffffe8H
  01266	04 00 00 00	 DD	 4
  0126a	00 00 00 00	 DD	 $L193189
$L193189:
  0126e	70		 DB	 112			; 00000070H
  0126f	49		 DB	 73			; 00000049H
  01270	74		 DB	 116			; 00000074H
  01271	65		 DB	 101			; 00000065H
  01272	6d		 DB	 109			; 0000006dH
  01273	00		 DB	 0
_TEXT	ENDS
text$x	SEGMENT
$L193186:
  000b5	8d 4d e8	 lea	 ecx, DWORD PTR _pItem$[ebp]
  000b8	e9 00 00 00 00	 jmp	 ??1CPaneBase@ETSLayoutMgr@@QAE@XZ ; ETSLayoutMgr::CPaneBase::~CPaneBase
__ehhandler$?GetOuterPaneMinPosition@PaneSplitter@ETSLayoutMgr@@QAEHXZ:
  000bd	b8 00 00 00 00	 mov	 eax, OFFSET FLAT:$T193188
  000c2	e9 00 00 00 00	 jmp	 ___CxxFrameHandler
text$x	ENDS
?GetOuterPaneMinPosition@PaneSplitter@ETSLayoutMgr@@QAEHXZ ENDP ; ETSLayoutMgr::PaneSplitter::GetOuterPaneMinPosition
PUBLIC	?ForceResizeOuterPane@PaneSplitter@ETSLayoutMgr@@QAE_NH_N@Z ; ETSLayoutMgr::PaneSplitter::ForceResizeOuterPane
EXTRN	?InflateRect@CRect@@QAEXHHHH@Z:NEAR		; CRect::InflateRect
xdata$x	SEGMENT
$T193204 DD	0ffffffffH
	DD	FLAT:$L193196
$T193198 DD	019930520H
	DD	01H
	DD	FLAT:$T193204
	DD	2 DUP(00H)
	DD	2 DUP(00H)
; Function compile flags: /Odt /RTCsu
xdata$x	ENDS
_TEXT	SEGMENT
tv92 = -64						; size = 4
tv82 = -60						; size = 4
$T193195 = -53						; size = 1
_rc$ = -48						; size = 16
_pItem$ = -24						; size = 4
_this$ = -16						; size = 4
__$EHRec$ = -12						; size = 12
_offset$ = 8						; size = 4
_bRedraw$ = 12						; size = 1
?ForceResizeOuterPane@PaneSplitter@ETSLayoutMgr@@QAE_NH_N@Z PROC NEAR ; ETSLayoutMgr::PaneSplitter::ForceResizeOuterPane
; _this$ = ecx

; 342  : {

  01280	55		 push	 ebp
  01281	8b ec		 mov	 ebp, esp
  01283	6a ff		 push	 -1
  01285	68 00 00 00 00	 push	 __ehhandler$?ForceResizeOuterPane@PaneSplitter@ETSLayoutMgr@@QAE_NH_N@Z
  0128a	64 a1 00 00 00
	00		 mov	 eax, DWORD PTR fs:__except_list
  01290	50		 push	 eax
  01291	64 89 25 00 00
	00 00		 mov	 DWORD PTR fs:__except_list, esp
  01298	83 ec 34	 sub	 esp, 52			; 00000034H
  0129b	56		 push	 esi
  0129c	57		 push	 edi
  0129d	51		 push	 ecx
  0129e	8d 7d c0	 lea	 edi, DWORD PTR [ebp-64]
  012a1	b9 0d 00 00 00	 mov	 ecx, 13			; 0000000dH
  012a6	b8 cc cc cc cc	 mov	 eax, -858993460		; ccccccccH
  012ab	f3 ab		 rep stosd
  012ad	59		 pop	 ecx
  012ae	89 4d f0	 mov	 DWORD PTR _this$[ebp], ecx

; 343  : 	//Resize Splitter
; 344  : 	CPaneBase pItem = m_paneItems[2];

  012b1	6a 02		 push	 2
  012b3	8b 4d f0	 mov	 ecx, DWORD PTR _this$[ebp]
  012b6	83 c1 64	 add	 ecx, 100		; 00000064H
  012b9	e8 00 00 00 00	 call	 ??A?$CArray@VCPaneBase@ETSLayoutMgr@@V12@@@QAEAAVCPaneBase@ETSLayoutMgr@@H@Z ; CArray<ETSLayoutMgr::CPaneBase,ETSLayoutMgr::CPaneBase>::operator[]
  012be	50		 push	 eax
  012bf	8d 4d e8	 lea	 ecx, DWORD PTR _pItem$[ebp]
  012c2	e8 00 00 00 00	 call	 ??0CPaneBase@ETSLayoutMgr@@QAE@ABV01@@Z ; ETSLayoutMgr::CPaneBase::CPaneBase
  012c7	c7 45 fc 00 00
	00 00		 mov	 DWORD PTR __$EHRec$[ebp+8], 0

; 345  : 	CRect rc = pItem->getPaneRect();

  012ce	8d 45 d0	 lea	 eax, DWORD PTR _rc$[ebp]
  012d1	50		 push	 eax
  012d2	8d 4d e8	 lea	 ecx, DWORD PTR _pItem$[ebp]
  012d5	e8 00 00 00 00	 call	 ??CCPaneBase@ETSLayoutMgr@@QBEPAVPaneBase@1@XZ ; ETSLayoutMgr::CPaneBase::operator->
  012da	8b c8		 mov	 ecx, eax
  012dc	e8 00 00 00 00	 call	 ?getPaneRect@PaneBase@ETSLayoutMgr@@QAE?AVCRect@@XZ ; ETSLayoutMgr::PaneBase::getPaneRect

; 346  : 
; 347  : 	if(rc.Width() - offset < pItem->getMinConstrainHorz())

  012e1	8d 4d e8	 lea	 ecx, DWORD PTR _pItem$[ebp]
  012e4	e8 00 00 00 00	 call	 ??CCPaneBase@ETSLayoutMgr@@QBEPAVPaneBase@1@XZ ; ETSLayoutMgr::CPaneBase::operator->
  012e9	89 45 c4	 mov	 DWORD PTR tv82[ebp], eax
  012ec	8b f4		 mov	 esi, esp
  012ee	8b 4d c4	 mov	 ecx, DWORD PTR tv82[ebp]
  012f1	8b 11		 mov	 edx, DWORD PTR [ecx]
  012f3	8b 4d c4	 mov	 ecx, DWORD PTR tv82[ebp]
  012f6	ff 52 08	 call	 DWORD PTR [edx+8]
  012f9	3b f4		 cmp	 esi, esp
  012fb	e8 00 00 00 00	 call	 __RTC_CheckEsp
  01300	8b f0		 mov	 esi, eax
  01302	8d 4d d0	 lea	 ecx, DWORD PTR _rc$[ebp]
  01305	e8 00 00 00 00	 call	 ?Width@CRect@@QBEHXZ	; CRect::Width
  0130a	2b 45 08	 sub	 eax, DWORD PTR _offset$[ebp]
  0130d	3b c6		 cmp	 eax, esi
  0130f	7d 2e		 jge	 SHORT $L190650

; 348  : 		offset = rc.Width() - pItem->getMinConstrainHorz();

  01311	8d 4d e8	 lea	 ecx, DWORD PTR _pItem$[ebp]
  01314	e8 00 00 00 00	 call	 ??CCPaneBase@ETSLayoutMgr@@QBEPAVPaneBase@1@XZ ; ETSLayoutMgr::CPaneBase::operator->
  01319	89 45 c0	 mov	 DWORD PTR tv92[ebp], eax
  0131c	8b f4		 mov	 esi, esp
  0131e	8b 45 c0	 mov	 eax, DWORD PTR tv92[ebp]
  01321	8b 10		 mov	 edx, DWORD PTR [eax]
  01323	8b 4d c0	 mov	 ecx, DWORD PTR tv92[ebp]
  01326	ff 52 08	 call	 DWORD PTR [edx+8]
  01329	3b f4		 cmp	 esi, esp
  0132b	e8 00 00 00 00	 call	 __RTC_CheckEsp
  01330	8b f0		 mov	 esi, eax
  01332	8d 4d d0	 lea	 ecx, DWORD PTR _rc$[ebp]
  01335	e8 00 00 00 00	 call	 ?Width@CRect@@QBEHXZ	; CRect::Width
  0133a	2b c6		 sub	 eax, esi
  0133c	89 45 08	 mov	 DWORD PTR _offset$[ebp], eax
$L190650:

; 349  : 
; 350  : 	if(this->m_Orientation == ETSLayoutMgr::HORIZONTAL)

  0133f	8b 45 f0	 mov	 eax, DWORD PTR _this$[ebp]
  01342	83 78 60 00	 cmp	 DWORD PTR [eax+96], 0
  01346	75 14		 jne	 SHORT $L190652

; 351  : 		rc.InflateRect(0, 0, -offset, 0);

  01348	6a 00		 push	 0
  0134a	8b 4d 08	 mov	 ecx, DWORD PTR _offset$[ebp]
  0134d	f7 d9		 neg	 ecx
  0134f	51		 push	 ecx
  01350	6a 00		 push	 0
  01352	6a 00		 push	 0
  01354	8d 4d d0	 lea	 ecx, DWORD PTR _rc$[ebp]
  01357	e8 00 00 00 00	 call	 ?InflateRect@CRect@@QAEXHHHH@Z ; CRect::InflateRect
$L190652:

; 352  : 	else
; 353  : 		;
; 354  : 	ForceResizeTo(pItem, rc, bRedraw);

  0135c	8a 55 0c	 mov	 dl, BYTE PTR _bRedraw$[ebp]
  0135f	52		 push	 edx
  01360	8d 45 d0	 lea	 eax, DWORD PTR _rc$[ebp]
  01363	50		 push	 eax
  01364	8d 4d e8	 lea	 ecx, DWORD PTR _pItem$[ebp]
  01367	51		 push	 ecx
  01368	8b 4d f0	 mov	 ecx, DWORD PTR _this$[ebp]
  0136b	e8 00 00 00 00	 call	 ?ForceResizeTo@PaneSplitter@ETSLayoutMgr@@AAEXAAVCPaneBase@2@AAVCRect@@_N@Z ; ETSLayoutMgr::PaneSplitter::ForceResizeTo

; 355  : 
; 356  : 	this->m_pSpl->ShowWindow(SW_SHOW);

  01370	6a 05		 push	 5
  01372	8b 55 f0	 mov	 edx, DWORD PTR _this$[ebp]
  01375	8b 8a 94 00 00
	00		 mov	 ecx, DWORD PTR [edx+148]
  0137b	e8 00 00 00 00	 call	 ?ShowWindow@CWnd@@QAEHH@Z ; CWnd::ShowWindow

; 357  : 	return true;

  01380	c6 45 cb 01	 mov	 BYTE PTR $T193195[ebp], 1
  01384	c7 45 fc ff ff
	ff ff		 mov	 DWORD PTR __$EHRec$[ebp+8], -1
  0138b	8d 4d e8	 lea	 ecx, DWORD PTR _pItem$[ebp]
  0138e	e8 00 00 00 00	 call	 ??1CPaneBase@ETSLayoutMgr@@QAE@XZ ; ETSLayoutMgr::CPaneBase::~CPaneBase
  01393	8a 45 cb	 mov	 al, BYTE PTR $T193195[ebp]

; 358  : }

  01396	52		 push	 edx
  01397	8b cd		 mov	 ecx, ebp
  01399	50		 push	 eax
  0139a	8d 15 00 00 00
	00		 lea	 edx, DWORD PTR $L193203
  013a0	e8 00 00 00 00	 call	 @_RTC_CheckStackVars@8
  013a5	58		 pop	 eax
  013a6	5a		 pop	 edx
  013a7	8b 4d f4	 mov	 ecx, DWORD PTR __$EHRec$[ebp]
  013aa	64 89 0d 00 00
	00 00		 mov	 DWORD PTR fs:__except_list, ecx
  013b1	5f		 pop	 edi
  013b2	5e		 pop	 esi
  013b3	83 c4 40	 add	 esp, 64			; 00000040H
  013b6	3b ec		 cmp	 ebp, esp
  013b8	e8 00 00 00 00	 call	 __RTC_CheckEsp
  013bd	8b e5		 mov	 esp, ebp
  013bf	5d		 pop	 ebp
  013c0	c2 08 00	 ret	 8
$L193203:
  013c3	02 00 00 00	 DD	 2
  013c7	00 00 00 00	 DD	 $L193202
$L193202:
  013cb	e8 ff ff ff	 DD	 -24			; ffffffe8H
  013cf	04 00 00 00	 DD	 4
  013d3	00 00 00 00	 DD	 $L193199
  013d7	d0 ff ff ff	 DD	 -48			; ffffffd0H
  013db	10 00 00 00	 DD	 16			; 00000010H
  013df	00 00 00 00	 DD	 $L193200
$L193200:
  013e3	72		 DB	 114			; 00000072H
  013e4	63		 DB	 99			; 00000063H
  013e5	00		 DB	 0
$L193199:
  013e6	70		 DB	 112			; 00000070H
  013e7	49		 DB	 73			; 00000049H
  013e8	74		 DB	 116			; 00000074H
  013e9	65		 DB	 101			; 00000065H
  013ea	6d		 DB	 109			; 0000006dH
  013eb	00		 DB	 0
_TEXT	ENDS
text$x	SEGMENT
$L193196:
  000c7	8d 4d e8	 lea	 ecx, DWORD PTR _pItem$[ebp]
  000ca	e9 00 00 00 00	 jmp	 ??1CPaneBase@ETSLayoutMgr@@QAE@XZ ; ETSLayoutMgr::CPaneBase::~CPaneBase
__ehhandler$?ForceResizeOuterPane@PaneSplitter@ETSLayoutMgr@@QAE_NH_N@Z:
  000cf	b8 00 00 00 00	 mov	 eax, OFFSET FLAT:$T193198
  000d4	e9 00 00 00 00	 jmp	 ___CxxFrameHandler
text$x	ENDS
?ForceResizeOuterPane@PaneSplitter@ETSLayoutMgr@@QAE_NH_N@Z ENDP ; ETSLayoutMgr::PaneSplitter::ForceResizeOuterPane
PUBLIC	?resizeTo@PaneSplitter@ETSLayoutMgr@@QAE_NH_N0@Z ; ETSLayoutMgr::PaneSplitter::resizeTo
xdata$x	SEGMENT
$T193218 DD	0ffffffffH
	DD	FLAT:$L193210
$T193212 DD	019930520H
	DD	01H
	DD	FLAT:$T193218
	DD	2 DUP(00H)
	DD	2 DUP(00H)
; Function compile flags: /Odt /RTCsu
xdata$x	ENDS
_TEXT	SEGMENT
$T193209 = -85						; size = 1
$T193208 = -84						; size = 16
$T193207 = -68						; size = 16
_rc$ = -48						; size = 16
_pItem$ = -24						; size = 4
_this$ = -16						; size = 4
__$EHRec$ = -12						; size = 12
_offset$ = 8						; size = 4
_bRedraw$ = 12						; size = 1
_bReSizeAlways$ = 16					; size = 1
?resizeTo@PaneSplitter@ETSLayoutMgr@@QAE_NH_N0@Z PROC NEAR ; ETSLayoutMgr::PaneSplitter::resizeTo
; _this$ = ecx

; 361  : {

  013f0	55		 push	 ebp
  013f1	8b ec		 mov	 ebp, esp
  013f3	6a ff		 push	 -1
  013f5	68 00 00 00 00	 push	 __ehhandler$?resizeTo@PaneSplitter@ETSLayoutMgr@@QAE_NH_N0@Z
  013fa	64 a1 00 00 00
	00		 mov	 eax, DWORD PTR fs:__except_list
  01400	50		 push	 eax
  01401	64 89 25 00 00
	00 00		 mov	 DWORD PTR fs:__except_list, esp
  01408	83 ec 4c	 sub	 esp, 76			; 0000004cH
  0140b	57		 push	 edi
  0140c	51		 push	 ecx
  0140d	8d 7d a8	 lea	 edi, DWORD PTR [ebp-88]
  01410	b9 13 00 00 00	 mov	 ecx, 19			; 00000013H
  01415	b8 cc cc cc cc	 mov	 eax, -858993460		; ccccccccH
  0141a	f3 ab		 rep stosd
  0141c	59		 pop	 ecx
  0141d	89 4d f0	 mov	 DWORD PTR _this$[ebp], ecx

; 362  : 	ASSERT(m_paneItems.GetSize() == 3);

  01420	8b 4d f0	 mov	 ecx, DWORD PTR _this$[ebp]
  01423	83 c1 64	 add	 ecx, 100		; 00000064H
  01426	e8 00 00 00 00	 call	 ?GetSize@?$CArray@VCPaneBase@ETSLayoutMgr@@V12@@@QBEHXZ ; CArray<ETSLayoutMgr::CPaneBase,ETSLayoutMgr::CPaneBase>::GetSize
  0142b	83 f8 03	 cmp	 eax, 3
  0142e	74 14		 je	 SHORT $L193206
  01430	68 6a 01 00 00	 push	 362			; 0000016aH
  01435	68 00 00 00 00	 push	 OFFSET FLAT:$SG190661
  0143a	e8 00 00 00 00	 call	 ?AfxAssertFailedLine@@YGHPBDH@Z ; AfxAssertFailedLine
  0143f	85 c0		 test	 eax, eax
  01441	74 01		 je	 SHORT $L193206
  01443	cc		 int	 3
$L193206:

; 363  : 
; 364  : 	CPaneBase pItem = m_paneItems[0];

  01444	6a 00		 push	 0
  01446	8b 4d f0	 mov	 ecx, DWORD PTR _this$[ebp]
  01449	83 c1 64	 add	 ecx, 100		; 00000064H
  0144c	e8 00 00 00 00	 call	 ??A?$CArray@VCPaneBase@ETSLayoutMgr@@V12@@@QAEAAVCPaneBase@ETSLayoutMgr@@H@Z ; CArray<ETSLayoutMgr::CPaneBase,ETSLayoutMgr::CPaneBase>::operator[]
  01451	50		 push	 eax
  01452	8d 4d e8	 lea	 ecx, DWORD PTR _pItem$[ebp]
  01455	e8 00 00 00 00	 call	 ??0CPaneBase@ETSLayoutMgr@@QAE@ABV01@@Z ; ETSLayoutMgr::CPaneBase::CPaneBase
  0145a	c7 45 fc 00 00
	00 00		 mov	 DWORD PTR __$EHRec$[ebp+8], 0

; 365  : 	CRect rc = pItem->getPaneRect();

  01461	8d 4d d0	 lea	 ecx, DWORD PTR _rc$[ebp]
  01464	51		 push	 ecx
  01465	8d 4d e8	 lea	 ecx, DWORD PTR _pItem$[ebp]
  01468	e8 00 00 00 00	 call	 ??CCPaneBase@ETSLayoutMgr@@QBEPAVPaneBase@1@XZ ; ETSLayoutMgr::CPaneBase::operator->
  0146d	8b c8		 mov	 ecx, eax
  0146f	e8 00 00 00 00	 call	 ?getPaneRect@PaneBase@ETSLayoutMgr@@QAE?AVCRect@@XZ ; ETSLayoutMgr::PaneBase::getPaneRect

; 366  : 
; 367  : 	//Resize First Pane
; 368  : 	if(this->m_Orientation == ETSLayoutMgr::HORIZONTAL)

  01474	8b 55 f0	 mov	 edx, DWORD PTR _this$[ebp]
  01477	83 7a 60 00	 cmp	 DWORD PTR [edx+96], 0
  0147b	75 14		 jne	 SHORT $L190665

; 369  : 		rc.InflateRect(0,0, offset, 0);

  0147d	6a 00		 push	 0
  0147f	8b 45 08	 mov	 eax, DWORD PTR _offset$[ebp]
  01482	50		 push	 eax
  01483	6a 00		 push	 0
  01485	6a 00		 push	 0
  01487	8d 4d d0	 lea	 ecx, DWORD PTR _rc$[ebp]
  0148a	e8 00 00 00 00	 call	 ?InflateRect@CRect@@QAEXHHHH@Z ; CRect::InflateRect

; 370  : 	else

  0148f	eb 12		 jmp	 SHORT $L190666
$L190665:

; 371  : 		rc.InflateRect(0, 0, 0, offset);

  01491	8b 4d 08	 mov	 ecx, DWORD PTR _offset$[ebp]
  01494	51		 push	 ecx
  01495	6a 00		 push	 0
  01497	6a 00		 push	 0
  01499	6a 00		 push	 0
  0149b	8d 4d d0	 lea	 ecx, DWORD PTR _rc$[ebp]
  0149e	e8 00 00 00 00	 call	 ?InflateRect@CRect@@QAEXHHHH@Z ; CRect::InflateRect
$L190666:

; 372  : 	ForceResizeTo(pItem, rc, bRedraw);

  014a3	8a 55 0c	 mov	 dl, BYTE PTR _bRedraw$[ebp]
  014a6	52		 push	 edx
  014a7	8d 45 d0	 lea	 eax, DWORD PTR _rc$[ebp]
  014aa	50		 push	 eax
  014ab	8d 4d e8	 lea	 ecx, DWORD PTR _pItem$[ebp]
  014ae	51		 push	 ecx
  014af	8b 4d f0	 mov	 ecx, DWORD PTR _this$[ebp]
  014b2	e8 00 00 00 00	 call	 ?ForceResizeTo@PaneSplitter@ETSLayoutMgr@@AAEXAAVCPaneBase@2@AAVCRect@@_N@Z ; ETSLayoutMgr::PaneSplitter::ForceResizeTo

; 373  : 
; 374  : 	//Resize Second Pane
; 375  : 	pItem = m_paneItems[2];

  014b7	6a 02		 push	 2
  014b9	8b 4d f0	 mov	 ecx, DWORD PTR _this$[ebp]
  014bc	83 c1 64	 add	 ecx, 100		; 00000064H
  014bf	e8 00 00 00 00	 call	 ??A?$CArray@VCPaneBase@ETSLayoutMgr@@V12@@@QAEAAVCPaneBase@ETSLayoutMgr@@H@Z ; CArray<ETSLayoutMgr::CPaneBase,ETSLayoutMgr::CPaneBase>::operator[]
  014c4	50		 push	 eax
  014c5	8d 4d e8	 lea	 ecx, DWORD PTR _pItem$[ebp]
  014c8	e8 00 00 00 00	 call	 ??4CPaneBase@ETSLayoutMgr@@QAEXABV01@@Z ; ETSLayoutMgr::CPaneBase::operator=

; 376  : 	rc = pItem->getPaneRect();

  014cd	8d 55 bc	 lea	 edx, DWORD PTR $T193207[ebp]
  014d0	52		 push	 edx
  014d1	8d 4d e8	 lea	 ecx, DWORD PTR _pItem$[ebp]
  014d4	e8 00 00 00 00	 call	 ??CCPaneBase@ETSLayoutMgr@@QBEPAVPaneBase@1@XZ ; ETSLayoutMgr::CPaneBase::operator->
  014d9	8b c8		 mov	 ecx, eax
  014db	e8 00 00 00 00	 call	 ?getPaneRect@PaneBase@ETSLayoutMgr@@QAE?AVCRect@@XZ ; ETSLayoutMgr::PaneBase::getPaneRect
  014e0	8b 08		 mov	 ecx, DWORD PTR [eax]
  014e2	89 4d d0	 mov	 DWORD PTR _rc$[ebp], ecx
  014e5	8b 50 04	 mov	 edx, DWORD PTR [eax+4]
  014e8	89 55 d4	 mov	 DWORD PTR _rc$[ebp+4], edx
  014eb	8b 48 08	 mov	 ecx, DWORD PTR [eax+8]
  014ee	89 4d d8	 mov	 DWORD PTR _rc$[ebp+8], ecx
  014f1	8b 50 0c	 mov	 edx, DWORD PTR [eax+12]
  014f4	89 55 dc	 mov	 DWORD PTR _rc$[ebp+12], edx

; 377  : 	if(this->m_Orientation == ETSLayoutMgr::HORIZONTAL)

  014f7	8b 45 f0	 mov	 eax, DWORD PTR _this$[ebp]
  014fa	83 78 60 00	 cmp	 DWORD PTR [eax+96], 0
  014fe	75 16		 jne	 SHORT $L190668

; 378  : 		rc.InflateRect(-offset,0, 0,  0);

  01500	6a 00		 push	 0
  01502	6a 00		 push	 0
  01504	6a 00		 push	 0
  01506	8b 4d 08	 mov	 ecx, DWORD PTR _offset$[ebp]
  01509	f7 d9		 neg	 ecx
  0150b	51		 push	 ecx
  0150c	8d 4d d0	 lea	 ecx, DWORD PTR _rc$[ebp]
  0150f	e8 00 00 00 00	 call	 ?InflateRect@CRect@@QAEXHHHH@Z ; CRect::InflateRect

; 379  : 	else

  01514	eb 14		 jmp	 SHORT $L190669
$L190668:

; 380  : 		rc.InflateRect(0, -offset, 0,0);

  01516	6a 00		 push	 0
  01518	6a 00		 push	 0
  0151a	8b 55 08	 mov	 edx, DWORD PTR _offset$[ebp]
  0151d	f7 da		 neg	 edx
  0151f	52		 push	 edx
  01520	6a 00		 push	 0
  01522	8d 4d d0	 lea	 ecx, DWORD PTR _rc$[ebp]
  01525	e8 00 00 00 00	 call	 ?InflateRect@CRect@@QAEXHHHH@Z ; CRect::InflateRect
$L190669:

; 381  : 	ForceResizeTo(pItem, rc, bRedraw);

  0152a	8a 45 0c	 mov	 al, BYTE PTR _bRedraw$[ebp]
  0152d	50		 push	 eax
  0152e	8d 4d d0	 lea	 ecx, DWORD PTR _rc$[ebp]
  01531	51		 push	 ecx
  01532	8d 55 e8	 lea	 edx, DWORD PTR _pItem$[ebp]
  01535	52		 push	 edx
  01536	8b 4d f0	 mov	 ecx, DWORD PTR _this$[ebp]
  01539	e8 00 00 00 00	 call	 ?ForceResizeTo@PaneSplitter@ETSLayoutMgr@@AAEXAAVCPaneBase@2@AAVCRect@@_N@Z ; ETSLayoutMgr::PaneSplitter::ForceResizeTo

; 382  : 
; 383  : 	//Resize Splitter
; 384  : 	pItem = m_paneItems[1];

  0153e	6a 01		 push	 1
  01540	8b 4d f0	 mov	 ecx, DWORD PTR _this$[ebp]
  01543	83 c1 64	 add	 ecx, 100		; 00000064H
  01546	e8 00 00 00 00	 call	 ??A?$CArray@VCPaneBase@ETSLayoutMgr@@V12@@@QAEAAVCPaneBase@ETSLayoutMgr@@H@Z ; CArray<ETSLayoutMgr::CPaneBase,ETSLayoutMgr::CPaneBase>::operator[]
  0154b	50		 push	 eax
  0154c	8d 4d e8	 lea	 ecx, DWORD PTR _pItem$[ebp]
  0154f	e8 00 00 00 00	 call	 ??4CPaneBase@ETSLayoutMgr@@QAEXABV01@@Z ; ETSLayoutMgr::CPaneBase::operator=

; 385  : 	rc = pItem->getPaneRect();

  01554	8d 45 ac	 lea	 eax, DWORD PTR $T193208[ebp]
  01557	50		 push	 eax
  01558	8d 4d e8	 lea	 ecx, DWORD PTR _pItem$[ebp]
  0155b	e8 00 00 00 00	 call	 ??CCPaneBase@ETSLayoutMgr@@QBEPAVPaneBase@1@XZ ; ETSLayoutMgr::CPaneBase::operator->
  01560	8b c8		 mov	 ecx, eax
  01562	e8 00 00 00 00	 call	 ?getPaneRect@PaneBase@ETSLayoutMgr@@QAE?AVCRect@@XZ ; ETSLayoutMgr::PaneBase::getPaneRect
  01567	8b 08		 mov	 ecx, DWORD PTR [eax]
  01569	89 4d d0	 mov	 DWORD PTR _rc$[ebp], ecx
  0156c	8b 50 04	 mov	 edx, DWORD PTR [eax+4]
  0156f	89 55 d4	 mov	 DWORD PTR _rc$[ebp+4], edx
  01572	8b 48 08	 mov	 ecx, DWORD PTR [eax+8]
  01575	89 4d d8	 mov	 DWORD PTR _rc$[ebp+8], ecx
  01578	8b 50 0c	 mov	 edx, DWORD PTR [eax+12]
  0157b	89 55 dc	 mov	 DWORD PTR _rc$[ebp+12], edx

; 386  : 	if(this->m_Orientation == ETSLayoutMgr::HORIZONTAL)

  0157e	8b 45 f0	 mov	 eax, DWORD PTR _this$[ebp]
  01581	83 78 60 00	 cmp	 DWORD PTR [eax+96], 0
  01585	75 18		 jne	 SHORT $L190671

; 387  : 		rc.InflateRect(-offset, 0, offset, 0);

  01587	6a 00		 push	 0
  01589	8b 4d 08	 mov	 ecx, DWORD PTR _offset$[ebp]
  0158c	51		 push	 ecx
  0158d	6a 00		 push	 0
  0158f	8b 55 08	 mov	 edx, DWORD PTR _offset$[ebp]
  01592	f7 da		 neg	 edx
  01594	52		 push	 edx
  01595	8d 4d d0	 lea	 ecx, DWORD PTR _rc$[ebp]
  01598	e8 00 00 00 00	 call	 ?InflateRect@CRect@@QAEXHHHH@Z ; CRect::InflateRect

; 388  : 	else

  0159d	eb 16		 jmp	 SHORT $L190672
$L190671:

; 389  : 		rc.InflateRect(0, -offset,0, offset);

  0159f	8b 45 08	 mov	 eax, DWORD PTR _offset$[ebp]
  015a2	50		 push	 eax
  015a3	6a 00		 push	 0
  015a5	8b 4d 08	 mov	 ecx, DWORD PTR _offset$[ebp]
  015a8	f7 d9		 neg	 ecx
  015aa	51		 push	 ecx
  015ab	6a 00		 push	 0
  015ad	8d 4d d0	 lea	 ecx, DWORD PTR _rc$[ebp]
  015b0	e8 00 00 00 00	 call	 ?InflateRect@CRect@@QAEXHHHH@Z ; CRect::InflateRect
$L190672:

; 390  : 	ForceResizeTo(pItem, rc, bRedraw);

  015b5	8a 55 0c	 mov	 dl, BYTE PTR _bRedraw$[ebp]
  015b8	52		 push	 edx
  015b9	8d 45 d0	 lea	 eax, DWORD PTR _rc$[ebp]
  015bc	50		 push	 eax
  015bd	8d 4d e8	 lea	 ecx, DWORD PTR _pItem$[ebp]
  015c0	51		 push	 ecx
  015c1	8b 4d f0	 mov	 ecx, DWORD PTR _this$[ebp]
  015c4	e8 00 00 00 00	 call	 ?ForceResizeTo@PaneSplitter@ETSLayoutMgr@@AAEXAAVCPaneBase@2@AAVCRect@@_N@Z ; ETSLayoutMgr::PaneSplitter::ForceResizeTo

; 391  : 
; 392  : 	//this->m_nSplClosedPos = this->GetSplPosition();
; 393  : 	//this->m_pSpl->ShowWindow(SW_SHOW);
; 394  : 	return true;

  015c9	c6 45 ab 01	 mov	 BYTE PTR $T193209[ebp], 1
  015cd	c7 45 fc ff ff
	ff ff		 mov	 DWORD PTR __$EHRec$[ebp+8], -1
  015d4	8d 4d e8	 lea	 ecx, DWORD PTR _pItem$[ebp]
  015d7	e8 00 00 00 00	 call	 ??1CPaneBase@ETSLayoutMgr@@QAE@XZ ; ETSLayoutMgr::CPaneBase::~CPaneBase
  015dc	8a 45 ab	 mov	 al, BYTE PTR $T193209[ebp]

; 395  : }

  015df	52		 push	 edx
  015e0	8b cd		 mov	 ecx, ebp
  015e2	50		 push	 eax
  015e3	8d 15 00 00 00
	00		 lea	 edx, DWORD PTR $L193217
  015e9	e8 00 00 00 00	 call	 @_RTC_CheckStackVars@8
  015ee	58		 pop	 eax
  015ef	5a		 pop	 edx
  015f0	8b 4d f4	 mov	 ecx, DWORD PTR __$EHRec$[ebp]
  015f3	64 89 0d 00 00
	00 00		 mov	 DWORD PTR fs:__except_list, ecx
  015fa	5f		 pop	 edi
  015fb	83 c4 58	 add	 esp, 88			; 00000058H
  015fe	3b ec		 cmp	 ebp, esp
  01600	e8 00 00 00 00	 call	 __RTC_CheckEsp
  01605	8b e5		 mov	 esp, ebp
  01607	5d		 pop	 ebp
  01608	c2 0c 00	 ret	 12			; 0000000cH
$L193217:
  0160b	02 00 00 00	 DD	 2
  0160f	00 00 00 00	 DD	 $L193216
$L193216:
  01613	e8 ff ff ff	 DD	 -24			; ffffffe8H
  01617	04 00 00 00	 DD	 4
  0161b	00 00 00 00	 DD	 $L193213
  0161f	d0 ff ff ff	 DD	 -48			; ffffffd0H
  01623	10 00 00 00	 DD	 16			; 00000010H
  01627	00 00 00 00	 DD	 $L193214
$L193214:
  0162b	72		 DB	 114			; 00000072H
  0162c	63		 DB	 99			; 00000063H
  0162d	00		 DB	 0
$L193213:
  0162e	70		 DB	 112			; 00000070H
  0162f	49		 DB	 73			; 00000049H
  01630	74		 DB	 116			; 00000074H
  01631	65		 DB	 101			; 00000065H
  01632	6d		 DB	 109			; 0000006dH
  01633	00		 DB	 0
_TEXT	ENDS
text$x	SEGMENT
$L193210:
  000d9	8d 4d e8	 lea	 ecx, DWORD PTR _pItem$[ebp]
  000dc	e9 00 00 00 00	 jmp	 ??1CPaneBase@ETSLayoutMgr@@QAE@XZ ; ETSLayoutMgr::CPaneBase::~CPaneBase
__ehhandler$?resizeTo@PaneSplitter@ETSLayoutMgr@@QAE_NH_N0@Z:
  000e1	b8 00 00 00 00	 mov	 eax, OFFSET FLAT:$T193212
  000e6	e9 00 00 00 00	 jmp	 ___CxxFrameHandler
text$x	ENDS
?resizeTo@PaneSplitter@ETSLayoutMgr@@QAE_NH_N0@Z ENDP	; ETSLayoutMgr::PaneSplitter::resizeTo
PUBLIC	?getSecondSize@PaneSplitter@ETSLayoutMgr@@QAEHXZ ; ETSLayoutMgr::PaneSplitter::getSecondSize
xdata$x	SEGMENT
$T193229 DD	0ffffffffH
	DD	FLAT:$L193221
$T193223 DD	019930520H
	DD	01H
	DD	FLAT:$T193229
	DD	2 DUP(00H)
	DD	2 DUP(00H)
; Function compile flags: /Odt /RTCsu
xdata$x	ENDS
_TEXT	SEGMENT
$T193220 = -60						; size = 4
_value$ = -56						; size = 4
_rc$ = -48						; size = 16
_pItem$ = -24						; size = 4
_this$ = -16						; size = 4
__$EHRec$ = -12						; size = 12
?getSecondSize@PaneSplitter@ETSLayoutMgr@@QAEHXZ PROC NEAR ; ETSLayoutMgr::PaneSplitter::getSecondSize
; _this$ = ecx

; 397  : {

  01640	55		 push	 ebp
  01641	8b ec		 mov	 ebp, esp
  01643	6a ff		 push	 -1
  01645	68 00 00 00 00	 push	 __ehhandler$?getSecondSize@PaneSplitter@ETSLayoutMgr@@QAEHXZ
  0164a	64 a1 00 00 00
	00		 mov	 eax, DWORD PTR fs:__except_list
  01650	50		 push	 eax
  01651	64 89 25 00 00
	00 00		 mov	 DWORD PTR fs:__except_list, esp
  01658	83 ec 30	 sub	 esp, 48			; 00000030H
  0165b	57		 push	 edi
  0165c	51		 push	 ecx
  0165d	8d 7d c4	 lea	 edi, DWORD PTR [ebp-60]
  01660	b9 0c 00 00 00	 mov	 ecx, 12			; 0000000cH
  01665	b8 cc cc cc cc	 mov	 eax, -858993460		; ccccccccH
  0166a	f3 ab		 rep stosd
  0166c	59		 pop	 ecx
  0166d	89 4d f0	 mov	 DWORD PTR _this$[ebp], ecx

; 398  : 	if(m_paneItems.GetSize() != 3)

  01670	8b 4d f0	 mov	 ecx, DWORD PTR _this$[ebp]
  01673	83 c1 64	 add	 ecx, 100		; 00000064H
  01676	e8 00 00 00 00	 call	 ?GetSize@?$CArray@VCPaneBase@ETSLayoutMgr@@V12@@@QBEHXZ ; CArray<ETSLayoutMgr::CPaneBase,ETSLayoutMgr::CPaneBase>::GetSize
  0167b	83 f8 03	 cmp	 eax, 3
  0167e	74 04		 je	 SHORT $L190677

; 399  : 		return 0;

  01680	33 c0		 xor	 eax, eax
  01682	eb 69		 jmp	 SHORT $L190676
$L190677:

; 400  : 	CPaneBase pItem = m_paneItems[2];

  01684	6a 02		 push	 2
  01686	8b 4d f0	 mov	 ecx, DWORD PTR _this$[ebp]
  01689	83 c1 64	 add	 ecx, 100		; 00000064H
  0168c	e8 00 00 00 00	 call	 ??A?$CArray@VCPaneBase@ETSLayoutMgr@@V12@@@QAEAAVCPaneBase@ETSLayoutMgr@@H@Z ; CArray<ETSLayoutMgr::CPaneBase,ETSLayoutMgr::CPaneBase>::operator[]
  01691	50		 push	 eax
  01692	8d 4d e8	 lea	 ecx, DWORD PTR _pItem$[ebp]
  01695	e8 00 00 00 00	 call	 ??0CPaneBase@ETSLayoutMgr@@QAE@ABV01@@Z ; ETSLayoutMgr::CPaneBase::CPaneBase
  0169a	c7 45 fc 00 00
	00 00		 mov	 DWORD PTR __$EHRec$[ebp+8], 0

; 401  : 	CRect rc = pItem->getPaneRect();

  016a1	8d 45 d0	 lea	 eax, DWORD PTR _rc$[ebp]
  016a4	50		 push	 eax
  016a5	8d 4d e8	 lea	 ecx, DWORD PTR _pItem$[ebp]
  016a8	e8 00 00 00 00	 call	 ??CCPaneBase@ETSLayoutMgr@@QBEPAVPaneBase@1@XZ ; ETSLayoutMgr::CPaneBase::operator->
  016ad	8b c8		 mov	 ecx, eax
  016af	e8 00 00 00 00	 call	 ?getPaneRect@PaneBase@ETSLayoutMgr@@QAE?AVCRect@@XZ ; ETSLayoutMgr::PaneBase::getPaneRect

; 402  : 	int value;
; 403  : 
; 404  : 	if(this->m_Orientation == ETSLayoutMgr::HORIZONTAL)

  016b4	8b 4d f0	 mov	 ecx, DWORD PTR _this$[ebp]
  016b7	83 79 60 00	 cmp	 DWORD PTR [ecx+96], 0
  016bb	75 0d		 jne	 SHORT $L190682

; 405  : 		value= rc.Height();

  016bd	8d 4d d0	 lea	 ecx, DWORD PTR _rc$[ebp]
  016c0	e8 00 00 00 00	 call	 ?Height@CRect@@QBEHXZ	; CRect::Height
  016c5	89 45 c8	 mov	 DWORD PTR _value$[ebp], eax

; 406  : 	else

  016c8	eb 0b		 jmp	 SHORT $L190683
$L190682:

; 407  : 		value = rc.Width();

  016ca	8d 4d d0	 lea	 ecx, DWORD PTR _rc$[ebp]
  016cd	e8 00 00 00 00	 call	 ?Width@CRect@@QBEHXZ	; CRect::Width
  016d2	89 45 c8	 mov	 DWORD PTR _value$[ebp], eax
$L190683:

; 408  : 	return value;

  016d5	8b 55 c8	 mov	 edx, DWORD PTR _value$[ebp]
  016d8	89 55 c4	 mov	 DWORD PTR $T193220[ebp], edx
  016db	c7 45 fc ff ff
	ff ff		 mov	 DWORD PTR __$EHRec$[ebp+8], -1
  016e2	8d 4d e8	 lea	 ecx, DWORD PTR _pItem$[ebp]
  016e5	e8 00 00 00 00	 call	 ??1CPaneBase@ETSLayoutMgr@@QAE@XZ ; ETSLayoutMgr::CPaneBase::~CPaneBase
  016ea	8b 45 c4	 mov	 eax, DWORD PTR $T193220[ebp]
$L190676:

; 409  : }

  016ed	52		 push	 edx
  016ee	8b cd		 mov	 ecx, ebp
  016f0	50		 push	 eax
  016f1	8d 15 00 00 00
	00		 lea	 edx, DWORD PTR $L193228
  016f7	e8 00 00 00 00	 call	 @_RTC_CheckStackVars@8
  016fc	58		 pop	 eax
  016fd	5a		 pop	 edx
  016fe	8b 4d f4	 mov	 ecx, DWORD PTR __$EHRec$[ebp]
  01701	64 89 0d 00 00
	00 00		 mov	 DWORD PTR fs:__except_list, ecx
  01708	5f		 pop	 edi
  01709	83 c4 3c	 add	 esp, 60			; 0000003cH
  0170c	3b ec		 cmp	 ebp, esp
  0170e	e8 00 00 00 00	 call	 __RTC_CheckEsp
  01713	8b e5		 mov	 esp, ebp
  01715	5d		 pop	 ebp
  01716	c3		 ret	 0
$L193228:
  01717	02 00 00 00	 DD	 2
  0171b	00 00 00 00	 DD	 $L193227
$L193227:
  0171f	e8 ff ff ff	 DD	 -24			; ffffffe8H
  01723	04 00 00 00	 DD	 4
  01727	00 00 00 00	 DD	 $L193224
  0172b	d0 ff ff ff	 DD	 -48			; ffffffd0H
  0172f	10 00 00 00	 DD	 16			; 00000010H
  01733	00 00 00 00	 DD	 $L193225
$L193225:
  01737	72		 DB	 114			; 00000072H
  01738	63		 DB	 99			; 00000063H
  01739	00		 DB	 0
$L193224:
  0173a	70		 DB	 112			; 00000070H
  0173b	49		 DB	 73			; 00000049H
  0173c	74		 DB	 116			; 00000074H
  0173d	65		 DB	 101			; 00000065H
  0173e	6d		 DB	 109			; 0000006dH
  0173f	00		 DB	 0
_TEXT	ENDS
text$x	SEGMENT
$L193221:
  000eb	8d 4d e8	 lea	 ecx, DWORD PTR _pItem$[ebp]
  000ee	e9 00 00 00 00	 jmp	 ??1CPaneBase@ETSLayoutMgr@@QAE@XZ ; ETSLayoutMgr::CPaneBase::~CPaneBase
__ehhandler$?getSecondSize@PaneSplitter@ETSLayoutMgr@@QAEHXZ:
  000f3	b8 00 00 00 00	 mov	 eax, OFFSET FLAT:$T193223
  000f8	e9 00 00 00 00	 jmp	 ___CxxFrameHandler
text$x	ENDS
?getSecondSize@PaneSplitter@ETSLayoutMgr@@QAEHXZ ENDP	; ETSLayoutMgr::PaneSplitter::getSecondSize
xdata$x	SEGMENT
$T193241 DD	0ffffffffH
	DD	FLAT:$L193233
$T193235 DD	019930520H
	DD	01H
	DD	FLAT:$T193241
	DD	2 DUP(00H)
	DD	2 DUP(00H)
; Function compile flags: /Odt /RTCsu
xdata$x	ENDS
_TEXT	SEGMENT
tv92 = -68						; size = 4
$T193232 = -64						; size = 4
$T193231 = -60						; size = 4
_rc$ = -52						; size = 16
_width$ = -32						; size = 4
_pItem$ = -24						; size = 4
_this$ = -16						; size = 4
__$EHRec$ = -12						; size = 12
?IsClosed@PaneSplitter@ETSLayoutMgr@@QAEHXZ PROC NEAR	; ETSLayoutMgr::PaneSplitter::IsClosed
; _this$ = ecx

; 412  : {

  01740	55		 push	 ebp
  01741	8b ec		 mov	 ebp, esp
  01743	6a ff		 push	 -1
  01745	68 00 00 00 00	 push	 __ehhandler$?IsClosed@PaneSplitter@ETSLayoutMgr@@QAEHXZ
  0174a	64 a1 00 00 00
	00		 mov	 eax, DWORD PTR fs:__except_list
  01750	50		 push	 eax
  01751	64 89 25 00 00
	00 00		 mov	 DWORD PTR fs:__except_list, esp
  01758	83 ec 38	 sub	 esp, 56			; 00000038H
  0175b	56		 push	 esi
  0175c	57		 push	 edi
  0175d	51		 push	 ecx
  0175e	8d 7d bc	 lea	 edi, DWORD PTR [ebp-68]
  01761	b9 0e 00 00 00	 mov	 ecx, 14			; 0000000eH
  01766	b8 cc cc cc cc	 mov	 eax, -858993460		; ccccccccH
  0176b	f3 ab		 rep stosd
  0176d	59		 pop	 ecx
  0176e	89 4d f0	 mov	 DWORD PTR _this$[ebp], ecx

; 413  : 	CPaneBase pItem;

  01771	8d 4d e8	 lea	 ecx, DWORD PTR _pItem$[ebp]
  01774	e8 00 00 00 00	 call	 ??0CPaneBase@ETSLayoutMgr@@QAE@XZ ; ETSLayoutMgr::CPaneBase::CPaneBase
  01779	c7 45 fc 00 00
	00 00		 mov	 DWORD PTR __$EHRec$[ebp+8], 0

; 414  : 	int width;
; 415  : 
; 416  : 	if(this->m_nClosedOri == 0)

  01780	8b 45 f0	 mov	 eax, DWORD PTR _this$[ebp]
  01783	83 b8 84 00 00
	00 00		 cmp	 DWORD PTR [eax+132], 0
  0178a	75 18		 jne	 SHORT $L190690

; 417  : 		pItem = m_paneItems[0];

  0178c	6a 00		 push	 0
  0178e	8b 4d f0	 mov	 ecx, DWORD PTR _this$[ebp]
  01791	83 c1 64	 add	 ecx, 100		; 00000064H
  01794	e8 00 00 00 00	 call	 ??A?$CArray@VCPaneBase@ETSLayoutMgr@@V12@@@QAEAAVCPaneBase@ETSLayoutMgr@@H@Z ; CArray<ETSLayoutMgr::CPaneBase,ETSLayoutMgr::CPaneBase>::operator[]
  01799	50		 push	 eax
  0179a	8d 4d e8	 lea	 ecx, DWORD PTR _pItem$[ebp]
  0179d	e8 00 00 00 00	 call	 ??4CPaneBase@ETSLayoutMgr@@QAEXABV01@@Z ; ETSLayoutMgr::CPaneBase::operator=

; 418  : 	else

  017a2	eb 16		 jmp	 SHORT $L190691
$L190690:

; 419  : 		pItem = m_paneItems[2];

  017a4	6a 02		 push	 2
  017a6	8b 4d f0	 mov	 ecx, DWORD PTR _this$[ebp]
  017a9	83 c1 64	 add	 ecx, 100		; 00000064H
  017ac	e8 00 00 00 00	 call	 ??A?$CArray@VCPaneBase@ETSLayoutMgr@@V12@@@QAEAAVCPaneBase@ETSLayoutMgr@@H@Z ; CArray<ETSLayoutMgr::CPaneBase,ETSLayoutMgr::CPaneBase>::operator[]
  017b1	50		 push	 eax
  017b2	8d 4d e8	 lea	 ecx, DWORD PTR _pItem$[ebp]
  017b5	e8 00 00 00 00	 call	 ??4CPaneBase@ETSLayoutMgr@@QAEXABV01@@Z ; ETSLayoutMgr::CPaneBase::operator=
$L190691:

; 420  : 
; 421  : 	CRect rc = pItem->getPaneRect();

  017ba	8d 4d cc	 lea	 ecx, DWORD PTR _rc$[ebp]
  017bd	51		 push	 ecx
  017be	8d 4d e8	 lea	 ecx, DWORD PTR _pItem$[ebp]
  017c1	e8 00 00 00 00	 call	 ??CCPaneBase@ETSLayoutMgr@@QBEPAVPaneBase@1@XZ ; ETSLayoutMgr::CPaneBase::operator->
  017c6	8b c8		 mov	 ecx, eax
  017c8	e8 00 00 00 00	 call	 ?getPaneRect@PaneBase@ETSLayoutMgr@@QAE?AVCRect@@XZ ; ETSLayoutMgr::PaneBase::getPaneRect

; 422  : 
; 423  : 	if(this->m_Orientation == ETSLayoutMgr::HORIZONTAL)

  017cd	8b 55 f0	 mov	 edx, DWORD PTR _this$[ebp]
  017d0	83 7a 60 00	 cmp	 DWORD PTR [edx+96], 0
  017d4	75 0d		 jne	 SHORT $L190694

; 424  : 	{
; 425  : 		width = rc.Width();

  017d6	8d 4d cc	 lea	 ecx, DWORD PTR _rc$[ebp]
  017d9	e8 00 00 00 00	 call	 ?Width@CRect@@QBEHXZ	; CRect::Width
  017de	89 45 e0	 mov	 DWORD PTR _width$[ebp], eax

; 426  : 	}
; 427  : 	else

  017e1	eb 2f		 jmp	 SHORT $L190695
$L190694:

; 428  : 	{
; 429  : 		width = pItem->getConstrainVert(0);

  017e3	8d 4d e8	 lea	 ecx, DWORD PTR _pItem$[ebp]
  017e6	e8 00 00 00 00	 call	 ??CCPaneBase@ETSLayoutMgr@@QBEPAVPaneBase@1@XZ ; ETSLayoutMgr::CPaneBase::operator->
  017eb	89 45 bc	 mov	 DWORD PTR tv92[ebp], eax
  017ee	8b f4		 mov	 esi, esp
  017f0	6a 00		 push	 0
  017f2	8b 45 bc	 mov	 eax, DWORD PTR tv92[ebp]
  017f5	8b 10		 mov	 edx, DWORD PTR [eax]
  017f7	8b 4d bc	 mov	 ecx, DWORD PTR tv92[ebp]
  017fa	ff 52 04	 call	 DWORD PTR [edx+4]
  017fd	3b f4		 cmp	 esi, esp
  017ff	e8 00 00 00 00	 call	 __RTC_CheckEsp
  01804	89 45 e0	 mov	 DWORD PTR _width$[ebp], eax

; 430  : 		width = rc.Height();

  01807	8d 4d cc	 lea	 ecx, DWORD PTR _rc$[ebp]
  0180a	e8 00 00 00 00	 call	 ?Height@CRect@@QBEHXZ	; CRect::Height
  0180f	89 45 e0	 mov	 DWORD PTR _width$[ebp], eax
$L190695:

; 431  : 	}
; 432  : 
; 433  : 	if(width == this->m_nSplClosedPos)

  01812	8b 45 f0	 mov	 eax, DWORD PTR _this$[ebp]
  01815	8b 4d e0	 mov	 ecx, DWORD PTR _width$[ebp]
  01818	3b 88 88 00 00
	00		 cmp	 ecx, DWORD PTR [eax+136]
  0181e	75 1b		 jne	 SHORT $L190696

; 434  : 		return true;

  01820	c7 45 c4 01 00
	00 00		 mov	 DWORD PTR $T193231[ebp], 1
  01827	c7 45 fc ff ff
	ff ff		 mov	 DWORD PTR __$EHRec$[ebp+8], -1
  0182e	8d 4d e8	 lea	 ecx, DWORD PTR _pItem$[ebp]
  01831	e8 00 00 00 00	 call	 ??1CPaneBase@ETSLayoutMgr@@QAE@XZ ; ETSLayoutMgr::CPaneBase::~CPaneBase
  01836	8b 45 c4	 mov	 eax, DWORD PTR $T193231[ebp]
  01839	eb 19		 jmp	 SHORT $L190687
$L190696:

; 435  : 	return false;

  0183b	c7 45 c0 00 00
	00 00		 mov	 DWORD PTR $T193232[ebp], 0
  01842	c7 45 fc ff ff
	ff ff		 mov	 DWORD PTR __$EHRec$[ebp+8], -1
  01849	8d 4d e8	 lea	 ecx, DWORD PTR _pItem$[ebp]
  0184c	e8 00 00 00 00	 call	 ??1CPaneBase@ETSLayoutMgr@@QAE@XZ ; ETSLayoutMgr::CPaneBase::~CPaneBase
  01851	8b 45 c0	 mov	 eax, DWORD PTR $T193232[ebp]
$L190687:

; 436  : }

  01854	52		 push	 edx
  01855	8b cd		 mov	 ecx, ebp
  01857	50		 push	 eax
  01858	8d 15 00 00 00
	00		 lea	 edx, DWORD PTR $L193240
  0185e	e8 00 00 00 00	 call	 @_RTC_CheckStackVars@8
  01863	58		 pop	 eax
  01864	5a		 pop	 edx
  01865	8b 4d f4	 mov	 ecx, DWORD PTR __$EHRec$[ebp]
  01868	64 89 0d 00 00
	00 00		 mov	 DWORD PTR fs:__except_list, ecx
  0186f	5f		 pop	 edi
  01870	5e		 pop	 esi
  01871	83 c4 44	 add	 esp, 68			; 00000044H
  01874	3b ec		 cmp	 ebp, esp
  01876	e8 00 00 00 00	 call	 __RTC_CheckEsp
  0187b	8b e5		 mov	 esp, ebp
  0187d	5d		 pop	 ebp
  0187e	c3		 ret	 0
$L193240:
  0187f	02 00 00 00	 DD	 2
  01883	00 00 00 00	 DD	 $L193239
$L193239:
  01887	e8 ff ff ff	 DD	 -24			; ffffffe8H
  0188b	04 00 00 00	 DD	 4
  0188f	00 00 00 00	 DD	 $L193236
  01893	cc ff ff ff	 DD	 -52			; ffffffccH
  01897	10 00 00 00	 DD	 16			; 00000010H
  0189b	00 00 00 00	 DD	 $L193237
$L193237:
  0189f	72		 DB	 114			; 00000072H
  018a0	63		 DB	 99			; 00000063H
  018a1	00		 DB	 0
$L193236:
  018a2	70		 DB	 112			; 00000070H
  018a3	49		 DB	 73			; 00000049H
  018a4	74		 DB	 116			; 00000074H
  018a5	65		 DB	 101			; 00000065H
  018a6	6d		 DB	 109			; 0000006dH
  018a7	00		 DB	 0
_TEXT	ENDS
text$x	SEGMENT
$L193233:
  000fd	8d 4d e8	 lea	 ecx, DWORD PTR _pItem$[ebp]
  00100	e9 00 00 00 00	 jmp	 ??1CPaneBase@ETSLayoutMgr@@QAE@XZ ; ETSLayoutMgr::CPaneBase::~CPaneBase
__ehhandler$?IsClosed@PaneSplitter@ETSLayoutMgr@@QAEHXZ:
  00105	b8 00 00 00 00	 mov	 eax, OFFSET FLAT:$T193235
  0010a	e9 00 00 00 00	 jmp	 ___CxxFrameHandler
text$x	ENDS
?IsClosed@PaneSplitter@ETSLayoutMgr@@QAEHXZ ENDP	; ETSLayoutMgr::PaneSplitter::IsClosed
EXTRN	?addPane@Pane@ETSLayoutMgr@@UAE_NVCPaneBase@2@@Z:NEAR ; ETSLayoutMgr::Pane::addPane
EXTRN	?addPane@Pane@ETSLayoutMgr@@UAE_NVCPane@2@W4layResizeMode@2@H@Z:NEAR ; ETSLayoutMgr::Pane::addPane
EXTRN	?item@ETSLayoutMgr@@QAE?AVCPaneBase@1@PAVCWnd@@W4layResizeMode@1@HHHH@Z:NEAR ; ETSLayoutMgr::item
EXTRN	??0CPane@ETSLayoutMgr@@QAE@ABV01@@Z:NEAR	; ETSLayoutMgr::CPane::CPane
EXTRN	??1CPane@ETSLayoutMgr@@QAE@XZ:NEAR		; ETSLayoutMgr::CPane::~CPane
EXTRN	?GetSplSize@ETSSplitter@@QAEHXZ:NEAR		; ETSSplitter::GetSplSize
xdata$x	SEGMENT
$T193254 DD	0ffffffffH
	DD	FLAT:$L193247
$T193252 DD	019930520H
	DD	01H
	DD	FLAT:$T193254
	DD	2 DUP(00H)
	DD	2 DUP(00H)
; Function compile flags: /Odt /RTCsu
xdata$x	ENDS
_TEXT	SEGMENT
tv192 = -44						; size = 4
tv188 = -40						; size = 4
tv186 = -36						; size = 4
$T193246 = -29						; size = 1
$T193245 = -28						; size = 4
$T193244 = -24						; size = 4
$T193243 = -20						; size = 4
_this$ = -16						; size = 4
__$EHRec$ = -12						; size = 12
_pSubpane$ = 8						; size = 4
_modeResize$ = 12					; size = 4
_sizeSecondary$ = 16					; size = 4
?addPane@PaneSplitter@ETSLayoutMgr@@UAE_NVCPane@2@W4layResizeMode@2@H@Z PROC NEAR ; ETSLayoutMgr::PaneSplitter::addPane
; _this$ = ecx

; 439  : {

  018b0	55		 push	 ebp
  018b1	8b ec		 mov	 ebp, esp
  018b3	6a ff		 push	 -1
  018b5	68 00 00 00 00	 push	 __ehhandler$?addPane@PaneSplitter@ETSLayoutMgr@@UAE_NVCPane@2@W4layResizeMode@2@H@Z
  018ba	64 a1 00 00 00
	00		 mov	 eax, DWORD PTR fs:__except_list
  018c0	50		 push	 eax
  018c1	64 89 25 00 00
	00 00		 mov	 DWORD PTR fs:__except_list, esp
  018c8	83 ec 20	 sub	 esp, 32			; 00000020H
  018cb	56		 push	 esi
  018cc	b8 cc cc cc cc	 mov	 eax, -858993460		; ccccccccH
  018d1	89 45 d4	 mov	 DWORD PTR [ebp-44], eax
  018d4	89 45 d8	 mov	 DWORD PTR [ebp-40], eax
  018d7	89 45 dc	 mov	 DWORD PTR [ebp-36], eax
  018da	89 45 e0	 mov	 DWORD PTR [ebp-32], eax
  018dd	89 45 e4	 mov	 DWORD PTR [ebp-28], eax
  018e0	89 45 e8	 mov	 DWORD PTR [ebp-24], eax
  018e3	89 45 ec	 mov	 DWORD PTR [ebp-20], eax
  018e6	89 45 f0	 mov	 DWORD PTR [ebp-16], eax
  018e9	89 4d f0	 mov	 DWORD PTR _this$[ebp], ecx
  018ec	c7 45 fc 00 00
	00 00		 mov	 DWORD PTR __$EHRec$[ebp+8], 0

; 440  : 	if(this->m_paneItems.GetSize() == 1)

  018f3	8b 4d f0	 mov	 ecx, DWORD PTR _this$[ebp]
  018f6	83 c1 64	 add	 ecx, 100		; 00000064H
  018f9	e8 00 00 00 00	 call	 ?GetSize@?$CArray@VCPaneBase@ETSLayoutMgr@@V12@@@QBEHXZ ; CArray<ETSLayoutMgr::CPaneBase,ETSLayoutMgr::CPaneBase>::GetSize
  018fe	83 f8 01	 cmp	 eax, 1
  01901	0f 85 a1 00 00
	00		 jne	 $L190705

; 441  : 	{
; 442  : 		if(this->m_Orientation == ETSLayoutMgr::HORIZONTAL)

  01907	8b 45 f0	 mov	 eax, DWORD PTR _this$[ebp]
  0190a	83 78 60 00	 cmp	 DWORD PTR [eax+96], 0
  0190e	75 4d		 jne	 SHORT $L190706

; 443  : 			Pane::addPane(this->m_pMgr->item((CWnd*)this->m_pSpl, ABSOLUTE_HORZ , m_pSpl->GetSplSize(), 0,m_pSpl->GetSplSize()));

  01910	51		 push	 ecx
  01911	8b f4		 mov	 esi, esp
  01913	89 65 ec	 mov	 DWORD PTR $T193243[ebp], esp
  01916	6a ff		 push	 -1
  01918	8b 4d f0	 mov	 ecx, DWORD PTR _this$[ebp]
  0191b	8b 89 94 00 00
	00		 mov	 ecx, DWORD PTR [ecx+148]
  01921	e8 00 00 00 00	 call	 ?GetSplSize@ETSSplitter@@QAEHXZ ; ETSSplitter::GetSplSize
  01926	50		 push	 eax
  01927	6a 00		 push	 0
  01929	8b 55 f0	 mov	 edx, DWORD PTR _this$[ebp]
  0192c	8b 8a 94 00 00
	00		 mov	 ecx, DWORD PTR [edx+148]
  01932	e8 00 00 00 00	 call	 ?GetSplSize@ETSSplitter@@QAEHXZ ; ETSSplitter::GetSplSize
  01937	50		 push	 eax
  01938	6a 01		 push	 1
  0193a	8b 45 f0	 mov	 eax, DWORD PTR _this$[ebp]
  0193d	8b 88 94 00 00
	00		 mov	 ecx, DWORD PTR [eax+148]
  01943	51		 push	 ecx
  01944	56		 push	 esi
  01945	8b 55 f0	 mov	 edx, DWORD PTR _this$[ebp]
  01948	8b 4a 38	 mov	 ecx, DWORD PTR [edx+56]
  0194b	e8 00 00 00 00	 call	 ?item@ETSLayoutMgr@@QAE?AVCPaneBase@1@PAVCWnd@@W4layResizeMode@1@HHHH@Z ; ETSLayoutMgr::item
  01950	89 45 dc	 mov	 DWORD PTR tv186[ebp], eax
  01953	8b 4d f0	 mov	 ecx, DWORD PTR _this$[ebp]
  01956	e8 00 00 00 00	 call	 ?addPane@Pane@ETSLayoutMgr@@UAE_NVCPaneBase@2@@Z ; ETSLayoutMgr::Pane::addPane

; 444  : 		else

  0195b	eb 4b		 jmp	 SHORT $L190705
$L190706:

; 445  : 			Pane::addPane(this->m_pMgr->item((CWnd*)this->m_pSpl, ABSOLUTE_VERT , 0, m_pSpl->GetSplSize(),0,m_pSpl->GetSplSize()));

  0195d	8b 45 f0	 mov	 eax, DWORD PTR _this$[ebp]
  01960	8b 88 94 00 00
	00		 mov	 ecx, DWORD PTR [eax+148]
  01966	e8 00 00 00 00	 call	 ?GetSplSize@ETSSplitter@@QAEHXZ ; ETSSplitter::GetSplSize
  0196b	51		 push	 ecx
  0196c	8b f4		 mov	 esi, esp
  0196e	89 65 e8	 mov	 DWORD PTR $T193244[ebp], esp
  01971	50		 push	 eax
  01972	6a 00		 push	 0
  01974	8b 4d f0	 mov	 ecx, DWORD PTR _this$[ebp]
  01977	8b 89 94 00 00
	00		 mov	 ecx, DWORD PTR [ecx+148]
  0197d	e8 00 00 00 00	 call	 ?GetSplSize@ETSSplitter@@QAEHXZ ; ETSSplitter::GetSplSize
  01982	50		 push	 eax
  01983	6a 00		 push	 0
  01985	6a 04		 push	 4
  01987	8b 55 f0	 mov	 edx, DWORD PTR _this$[ebp]
  0198a	8b 82 94 00 00
	00		 mov	 eax, DWORD PTR [edx+148]
  01990	50		 push	 eax
  01991	56		 push	 esi
  01992	8b 4d f0	 mov	 ecx, DWORD PTR _this$[ebp]
  01995	8b 49 38	 mov	 ecx, DWORD PTR [ecx+56]
  01998	e8 00 00 00 00	 call	 ?item@ETSLayoutMgr@@QAE?AVCPaneBase@1@PAVCWnd@@W4layResizeMode@1@HHHH@Z ; ETSLayoutMgr::item
  0199d	89 45 d8	 mov	 DWORD PTR tv188[ebp], eax
  019a0	8b 4d f0	 mov	 ecx, DWORD PTR _this$[ebp]
  019a3	e8 00 00 00 00	 call	 ?addPane@Pane@ETSLayoutMgr@@UAE_NVCPaneBase@2@@Z ; ETSLayoutMgr::Pane::addPane
$L190705:

; 446  : 	}
; 447  : 	Pane::addPane(pSubpane, modeResize, sizeSecondary);	

  019a8	8b 55 10	 mov	 edx, DWORD PTR _sizeSecondary$[ebp]
  019ab	52		 push	 edx
  019ac	8b 45 0c	 mov	 eax, DWORD PTR _modeResize$[ebp]
  019af	50		 push	 eax
  019b0	51		 push	 ecx
  019b1	8b cc		 mov	 ecx, esp
  019b3	89 65 e4	 mov	 DWORD PTR $T193245[ebp], esp
  019b6	8d 55 08	 lea	 edx, DWORD PTR _pSubpane$[ebp]
  019b9	52		 push	 edx
  019ba	e8 00 00 00 00	 call	 ??0CPane@ETSLayoutMgr@@QAE@ABV01@@Z ; ETSLayoutMgr::CPane::CPane
  019bf	89 45 d4	 mov	 DWORD PTR tv192[ebp], eax
  019c2	8b 4d f0	 mov	 ecx, DWORD PTR _this$[ebp]
  019c5	e8 00 00 00 00	 call	 ?addPane@Pane@ETSLayoutMgr@@UAE_NVCPane@2@W4layResizeMode@2@H@Z ; ETSLayoutMgr::Pane::addPane

; 448  : 
; 449  : 	return true;

  019ca	c6 45 e3 01	 mov	 BYTE PTR $T193246[ebp], 1
  019ce	c7 45 fc ff ff
	ff ff		 mov	 DWORD PTR __$EHRec$[ebp+8], -1
  019d5	8d 4d 08	 lea	 ecx, DWORD PTR _pSubpane$[ebp]
  019d8	e8 00 00 00 00	 call	 ??1CPane@ETSLayoutMgr@@QAE@XZ ; ETSLayoutMgr::CPane::~CPane
  019dd	8a 45 e3	 mov	 al, BYTE PTR $T193246[ebp]

; 450  : }

  019e0	8b 4d f4	 mov	 ecx, DWORD PTR __$EHRec$[ebp]
  019e3	64 89 0d 00 00
	00 00		 mov	 DWORD PTR fs:__except_list, ecx
  019ea	5e		 pop	 esi
  019eb	83 c4 2c	 add	 esp, 44			; 0000002cH
  019ee	3b ec		 cmp	 ebp, esp
  019f0	e8 00 00 00 00	 call	 __RTC_CheckEsp
  019f5	8b e5		 mov	 esp, ebp
  019f7	5d		 pop	 ebp
  019f8	c2 0c 00	 ret	 12			; 0000000cH
_TEXT	ENDS
text$x	SEGMENT
$L193247:
  0010f	8d 4d 08	 lea	 ecx, DWORD PTR _pSubpane$[ebp]
  00112	e9 00 00 00 00	 jmp	 ??1CPane@ETSLayoutMgr@@QAE@XZ ; ETSLayoutMgr::CPane::~CPane
__ehhandler$?addPane@PaneSplitter@ETSLayoutMgr@@UAE_NVCPane@2@W4layResizeMode@2@H@Z:
  00117	b8 00 00 00 00	 mov	 eax, OFFSET FLAT:$T193252
  0011c	e9 00 00 00 00	 jmp	 ___CxxFrameHandler
text$x	ENDS
?addPane@PaneSplitter@ETSLayoutMgr@@UAE_NVCPane@2@W4layResizeMode@2@H@Z ENDP ; ETSLayoutMgr::PaneSplitter::addPane
xdata$x	SEGMENT
$T193267 DD	0ffffffffH
	DD	FLAT:$L193260
$T193265 DD	019930520H
	DD	01H
	DD	FLAT:$T193267
	DD	2 DUP(00H)
	DD	2 DUP(00H)
; Function compile flags: /Odt /RTCsu
xdata$x	ENDS
_TEXT	SEGMENT
tv188 = -44						; size = 4
tv186 = -40						; size = 4
tv184 = -36						; size = 4
$T193259 = -29						; size = 1
$T193258 = -28						; size = 4
$T193257 = -24						; size = 4
$T193256 = -20						; size = 4
_this$ = -16						; size = 4
__$EHRec$ = -12						; size = 12
_pItem$ = 8						; size = 4
?addPane@PaneSplitter@ETSLayoutMgr@@UAE_NVCPaneBase@2@@Z PROC NEAR ; ETSLayoutMgr::PaneSplitter::addPane
; _this$ = ecx

; 453  : {

  01a00	55		 push	 ebp
  01a01	8b ec		 mov	 ebp, esp
  01a03	6a ff		 push	 -1
  01a05	68 00 00 00 00	 push	 __ehhandler$?addPane@PaneSplitter@ETSLayoutMgr@@UAE_NVCPaneBase@2@@Z
  01a0a	64 a1 00 00 00
	00		 mov	 eax, DWORD PTR fs:__except_list
  01a10	50		 push	 eax
  01a11	64 89 25 00 00
	00 00		 mov	 DWORD PTR fs:__except_list, esp
  01a18	83 ec 20	 sub	 esp, 32			; 00000020H
  01a1b	56		 push	 esi
  01a1c	b8 cc cc cc cc	 mov	 eax, -858993460		; ccccccccH
  01a21	89 45 d4	 mov	 DWORD PTR [ebp-44], eax
  01a24	89 45 d8	 mov	 DWORD PTR [ebp-40], eax
  01a27	89 45 dc	 mov	 DWORD PTR [ebp-36], eax
  01a2a	89 45 e0	 mov	 DWORD PTR [ebp-32], eax
  01a2d	89 45 e4	 mov	 DWORD PTR [ebp-28], eax
  01a30	89 45 e8	 mov	 DWORD PTR [ebp-24], eax
  01a33	89 45 ec	 mov	 DWORD PTR [ebp-20], eax
  01a36	89 45 f0	 mov	 DWORD PTR [ebp-16], eax
  01a39	89 4d f0	 mov	 DWORD PTR _this$[ebp], ecx
  01a3c	c7 45 fc 00 00
	00 00		 mov	 DWORD PTR __$EHRec$[ebp+8], 0

; 454  : 	if(this->m_paneItems.GetSize() == 1)

  01a43	8b 4d f0	 mov	 ecx, DWORD PTR _this$[ebp]
  01a46	83 c1 64	 add	 ecx, 100		; 00000064H
  01a49	e8 00 00 00 00	 call	 ?GetSize@?$CArray@VCPaneBase@ETSLayoutMgr@@V12@@@QBEHXZ ; CArray<ETSLayoutMgr::CPaneBase,ETSLayoutMgr::CPaneBase>::GetSize
  01a4e	83 f8 01	 cmp	 eax, 1
  01a51	0f 85 a1 00 00
	00		 jne	 $L190720

; 455  : 	{
; 456  : 		if(this->m_Orientation == ETSLayoutMgr::HORIZONTAL)

  01a57	8b 45 f0	 mov	 eax, DWORD PTR _this$[ebp]
  01a5a	83 78 60 00	 cmp	 DWORD PTR [eax+96], 0
  01a5e	75 4d		 jne	 SHORT $L190721

; 457  : 			Pane::addPane(this->m_pMgr->item((CWnd*)this->m_pSpl, ABSOLUTE_HORZ , m_pSpl->GetSplSize(), 0,m_pSpl->GetSplSize()));

  01a60	51		 push	 ecx
  01a61	8b f4		 mov	 esi, esp
  01a63	89 65 ec	 mov	 DWORD PTR $T193256[ebp], esp
  01a66	6a ff		 push	 -1
  01a68	8b 4d f0	 mov	 ecx, DWORD PTR _this$[ebp]
  01a6b	8b 89 94 00 00
	00		 mov	 ecx, DWORD PTR [ecx+148]
  01a71	e8 00 00 00 00	 call	 ?GetSplSize@ETSSplitter@@QAEHXZ ; ETSSplitter::GetSplSize
  01a76	50		 push	 eax
  01a77	6a 00		 push	 0
  01a79	8b 55 f0	 mov	 edx, DWORD PTR _this$[ebp]
  01a7c	8b 8a 94 00 00
	00		 mov	 ecx, DWORD PTR [edx+148]
  01a82	e8 00 00 00 00	 call	 ?GetSplSize@ETSSplitter@@QAEHXZ ; ETSSplitter::GetSplSize
  01a87	50		 push	 eax
  01a88	6a 01		 push	 1
  01a8a	8b 45 f0	 mov	 eax, DWORD PTR _this$[ebp]
  01a8d	8b 88 94 00 00
	00		 mov	 ecx, DWORD PTR [eax+148]
  01a93	51		 push	 ecx
  01a94	56		 push	 esi
  01a95	8b 55 f0	 mov	 edx, DWORD PTR _this$[ebp]
  01a98	8b 4a 38	 mov	 ecx, DWORD PTR [edx+56]
  01a9b	e8 00 00 00 00	 call	 ?item@ETSLayoutMgr@@QAE?AVCPaneBase@1@PAVCWnd@@W4layResizeMode@1@HHHH@Z ; ETSLayoutMgr::item
  01aa0	89 45 dc	 mov	 DWORD PTR tv184[ebp], eax
  01aa3	8b 4d f0	 mov	 ecx, DWORD PTR _this$[ebp]
  01aa6	e8 00 00 00 00	 call	 ?addPane@Pane@ETSLayoutMgr@@UAE_NVCPaneBase@2@@Z ; ETSLayoutMgr::Pane::addPane

; 458  : 		else

  01aab	eb 4b		 jmp	 SHORT $L190720
$L190721:

; 459  : 			Pane::addPane(this->m_pMgr->item((CWnd*)this->m_pSpl, ABSOLUTE_VERT , 0,m_pSpl->GetSplSize(),0,m_pSpl->GetSplSize()));

  01aad	8b 45 f0	 mov	 eax, DWORD PTR _this$[ebp]
  01ab0	8b 88 94 00 00
	00		 mov	 ecx, DWORD PTR [eax+148]
  01ab6	e8 00 00 00 00	 call	 ?GetSplSize@ETSSplitter@@QAEHXZ ; ETSSplitter::GetSplSize
  01abb	51		 push	 ecx
  01abc	8b f4		 mov	 esi, esp
  01abe	89 65 e8	 mov	 DWORD PTR $T193257[ebp], esp
  01ac1	50		 push	 eax
  01ac2	6a 00		 push	 0
  01ac4	8b 4d f0	 mov	 ecx, DWORD PTR _this$[ebp]
  01ac7	8b 89 94 00 00
	00		 mov	 ecx, DWORD PTR [ecx+148]
  01acd	e8 00 00 00 00	 call	 ?GetSplSize@ETSSplitter@@QAEHXZ ; ETSSplitter::GetSplSize
  01ad2	50		 push	 eax
  01ad3	6a 00		 push	 0
  01ad5	6a 04		 push	 4
  01ad7	8b 55 f0	 mov	 edx, DWORD PTR _this$[ebp]
  01ada	8b 82 94 00 00
	00		 mov	 eax, DWORD PTR [edx+148]
  01ae0	50		 push	 eax
  01ae1	56		 push	 esi
  01ae2	8b 4d f0	 mov	 ecx, DWORD PTR _this$[ebp]
  01ae5	8b 49 38	 mov	 ecx, DWORD PTR [ecx+56]
  01ae8	e8 00 00 00 00	 call	 ?item@ETSLayoutMgr@@QAE?AVCPaneBase@1@PAVCWnd@@W4layResizeMode@1@HHHH@Z ; ETSLayoutMgr::item
  01aed	89 45 d8	 mov	 DWORD PTR tv186[ebp], eax
  01af0	8b 4d f0	 mov	 ecx, DWORD PTR _this$[ebp]
  01af3	e8 00 00 00 00	 call	 ?addPane@Pane@ETSLayoutMgr@@UAE_NVCPaneBase@2@@Z ; ETSLayoutMgr::Pane::addPane
$L190720:

; 460  : 	}
; 461  : 	Pane::addPane(pItem);

  01af8	51		 push	 ecx
  01af9	8b cc		 mov	 ecx, esp
  01afb	89 65 e4	 mov	 DWORD PTR $T193258[ebp], esp
  01afe	8d 55 08	 lea	 edx, DWORD PTR _pItem$[ebp]
  01b01	52		 push	 edx
  01b02	e8 00 00 00 00	 call	 ??0CPaneBase@ETSLayoutMgr@@QAE@ABV01@@Z ; ETSLayoutMgr::CPaneBase::CPaneBase
  01b07	89 45 d4	 mov	 DWORD PTR tv188[ebp], eax
  01b0a	8b 4d f0	 mov	 ecx, DWORD PTR _this$[ebp]
  01b0d	e8 00 00 00 00	 call	 ?addPane@Pane@ETSLayoutMgr@@UAE_NVCPaneBase@2@@Z ; ETSLayoutMgr::Pane::addPane

; 462  : 
; 463  : 	return true;

  01b12	c6 45 e3 01	 mov	 BYTE PTR $T193259[ebp], 1
  01b16	c7 45 fc ff ff
	ff ff		 mov	 DWORD PTR __$EHRec$[ebp+8], -1
  01b1d	8d 4d 08	 lea	 ecx, DWORD PTR _pItem$[ebp]
  01b20	e8 00 00 00 00	 call	 ??1CPaneBase@ETSLayoutMgr@@QAE@XZ ; ETSLayoutMgr::CPaneBase::~CPaneBase
  01b25	8a 45 e3	 mov	 al, BYTE PTR $T193259[ebp]

; 464  : }

  01b28	8b 4d f4	 mov	 ecx, DWORD PTR __$EHRec$[ebp]
  01b2b	64 89 0d 00 00
	00 00		 mov	 DWORD PTR fs:__except_list, ecx
  01b32	5e		 pop	 esi
  01b33	83 c4 2c	 add	 esp, 44			; 0000002cH
  01b36	3b ec		 cmp	 ebp, esp
  01b38	e8 00 00 00 00	 call	 __RTC_CheckEsp
  01b3d	8b e5		 mov	 esp, ebp
  01b3f	5d		 pop	 ebp
  01b40	c2 04 00	 ret	 4
_TEXT	ENDS
text$x	SEGMENT
$L193260:
  00121	8d 4d 08	 lea	 ecx, DWORD PTR _pItem$[ebp]
  00124	e9 00 00 00 00	 jmp	 ??1CPaneBase@ETSLayoutMgr@@QAE@XZ ; ETSLayoutMgr::CPaneBase::~CPaneBase
__ehhandler$?addPane@PaneSplitter@ETSLayoutMgr@@UAE_NVCPaneBase@2@@Z:
  00129	b8 00 00 00 00	 mov	 eax, OFFSET FLAT:$T193265
  0012e	e9 00 00 00 00	 jmp	 ___CxxFrameHandler
text$x	ENDS
?addPane@PaneSplitter@ETSLayoutMgr@@UAE_NVCPaneBase@2@@Z ENDP ; ETSLayoutMgr::PaneSplitter::addPane
; Function compile flags: /Odt /RTCsu
_TEXT	SEGMENT
tv74 = -12						; size = 4
_modeSize$ = -8						; size = 4
_this$ = -4						; size = 4
_pPane$ = 8						; size = 4
_rc$ = 12						; size = 4
_bRedraw$ = 16						; size = 1
?ForceResizeTo@PaneSplitter@ETSLayoutMgr@@AAEXAAVCPaneBase@2@AAVCRect@@_N@Z PROC NEAR ; ETSLayoutMgr::PaneSplitter::ForceResizeTo
; _this$ = ecx

; 469  : {

  01b50	55		 push	 ebp
  01b51	8b ec		 mov	 ebp, esp
  01b53	83 ec 0c	 sub	 esp, 12			; 0000000cH
  01b56	56		 push	 esi
  01b57	c7 45 f4 cc cc
	cc cc		 mov	 DWORD PTR [ebp-12], -858993460 ; ccccccccH
  01b5e	c7 45 f8 cc cc
	cc cc		 mov	 DWORD PTR [ebp-8], -858993460 ; ccccccccH
  01b65	c7 45 fc cc cc
	cc cc		 mov	 DWORD PTR [ebp-4], -858993460 ; ccccccccH
  01b6c	89 4d fc	 mov	 DWORD PTR _this$[ebp], ecx

; 470  : 	DWORD modeSize = pPane->modeResize();

  01b6f	8b 4d 08	 mov	 ecx, DWORD PTR _pPane$[ebp]
  01b72	e8 00 00 00 00	 call	 ??CCPaneBase@ETSLayoutMgr@@QBEPAVPaneBase@1@XZ ; ETSLayoutMgr::CPaneBase::operator->
  01b77	8b c8		 mov	 ecx, eax
  01b79	e8 00 00 00 00	 call	 ?modeResize@PaneBase@ETSLayoutMgr@@QAEKXZ ; ETSLayoutMgr::PaneBase::modeResize
  01b7e	89 45 f8	 mov	 DWORD PTR _modeSize$[ebp], eax

; 471  : 	pPane->m_modeResize = GREEDY;

  01b81	8b 4d 08	 mov	 ecx, DWORD PTR _pPane$[ebp]
  01b84	e8 00 00 00 00	 call	 ??CCPaneBase@ETSLayoutMgr@@QBEPAVPaneBase@1@XZ ; ETSLayoutMgr::CPaneBase::operator->
  01b89	c7 40 18 00 00
	00 00		 mov	 DWORD PTR [eax+24], 0

; 472  : 	pPane->resizeTo(rc, bRedraw );

  01b90	8b 4d 08	 mov	 ecx, DWORD PTR _pPane$[ebp]
  01b93	e8 00 00 00 00	 call	 ??CCPaneBase@ETSLayoutMgr@@QBEPAVPaneBase@1@XZ ; ETSLayoutMgr::CPaneBase::operator->
  01b98	89 45 f4	 mov	 DWORD PTR tv74[ebp], eax
  01b9b	8b f4		 mov	 esi, esp
  01b9d	6a 00		 push	 0
  01b9f	8a 45 10	 mov	 al, BYTE PTR _bRedraw$[ebp]
  01ba2	50		 push	 eax
  01ba3	8b 4d 0c	 mov	 ecx, DWORD PTR _rc$[ebp]
  01ba6	51		 push	 ecx
  01ba7	8b 55 f4	 mov	 edx, DWORD PTR tv74[ebp]
  01baa	8b 02		 mov	 eax, DWORD PTR [edx]
  01bac	8b 4d f4	 mov	 ecx, DWORD PTR tv74[ebp]
  01baf	ff 50 18	 call	 DWORD PTR [eax+24]
  01bb2	3b f4		 cmp	 esi, esp
  01bb4	e8 00 00 00 00	 call	 __RTC_CheckEsp

; 473  : 	pPane->m_modeResize = modeSize;

  01bb9	8b 4d 08	 mov	 ecx, DWORD PTR _pPane$[ebp]
  01bbc	e8 00 00 00 00	 call	 ??CCPaneBase@ETSLayoutMgr@@QBEPAVPaneBase@1@XZ ; ETSLayoutMgr::CPaneBase::operator->
  01bc1	8b 4d f8	 mov	 ecx, DWORD PTR _modeSize$[ebp]
  01bc4	89 48 18	 mov	 DWORD PTR [eax+24], ecx

; 474  : };

  01bc7	5e		 pop	 esi
  01bc8	83 c4 0c	 add	 esp, 12			; 0000000cH
  01bcb	3b ec		 cmp	 ebp, esp
  01bcd	e8 00 00 00 00	 call	 __RTC_CheckEsp
  01bd2	8b e5		 mov	 esp, ebp
  01bd4	5d		 pop	 ebp
  01bd5	c2 0c 00	 ret	 12			; 0000000cH
?ForceResizeTo@PaneSplitter@ETSLayoutMgr@@AAEXAAVCPaneBase@2@AAVCRect@@_N@Z ENDP ; ETSLayoutMgr::PaneSplitter::ForceResizeTo
_TEXT	ENDS
PUBLIC	??CCPaneMulti@ETSLayoutMgr@@QBEPAVPaneMulti@1@XZ ; ETSLayoutMgr::CPaneMulti::operator->
; Function compile flags: /Odt /RTCsu
_TEXT	SEGMENT
_this$ = -4						; size = 4
??CCPaneMulti@ETSLayoutMgr@@QBEPAVPaneMulti@1@XZ PROC NEAR ; ETSLayoutMgr::CPaneMulti::operator->
; _this$ = ecx

; 480  : {

  01be0	55		 push	 ebp
  01be1	8b ec		 mov	 ebp, esp
  01be3	51		 push	 ecx
  01be4	c7 45 fc cc cc
	cc cc		 mov	 DWORD PTR [ebp-4], -858993460 ; ccccccccH
  01beb	89 4d fc	 mov	 DWORD PTR _this$[ebp], ecx

; 481  : 	ASSERT(m_pPaneHolder);

  01bee	8b 45 fc	 mov	 eax, DWORD PTR _this$[ebp]
  01bf1	83 38 00	 cmp	 DWORD PTR [eax], 0
  01bf4	75 14		 jne	 SHORT $L193270
  01bf6	68 e1 01 00 00	 push	 481			; 000001e1H
  01bfb	68 00 00 00 00	 push	 OFFSET FLAT:$SG190742
  01c00	e8 00 00 00 00	 call	 ?AfxAssertFailedLine@@YGHPBDH@Z ; AfxAssertFailedLine
  01c05	85 c0		 test	 eax, eax
  01c07	74 01		 je	 SHORT $L193270
  01c09	cc		 int	 3
$L193270:

; 482  : 
; 483  : 	if(!m_pPaneHolder)

  01c0a	8b 55 fc	 mov	 edx, DWORD PTR _this$[ebp]
  01c0d	83 3a 00	 cmp	 DWORD PTR [edx], 0
  01c10	75 04		 jne	 SHORT $L190743

; 484  : 		return 0;

  01c12	33 c0		 xor	 eax, eax
  01c14	eb 07		 jmp	 SHORT $L190740
$L190743:

; 485  : 
; 486  : 	return reinterpret_cast<PaneMulti*>(m_pPaneHolder->m_pPane);

  01c16	8b 45 fc	 mov	 eax, DWORD PTR _this$[ebp]
  01c19	8b 08		 mov	 ecx, DWORD PTR [eax]
  01c1b	8b 01		 mov	 eax, DWORD PTR [ecx]
$L190740:

; 487  : }

  01c1d	83 c4 04	 add	 esp, 4
  01c20	3b ec		 cmp	 ebp, esp
  01c22	e8 00 00 00 00	 call	 __RTC_CheckEsp
  01c27	8b e5		 mov	 esp, ebp
  01c29	5d		 pop	 ebp
  01c2a	c3		 ret	 0
??CCPaneMulti@ETSLayoutMgr@@QBEPAVPaneMulti@1@XZ ENDP	; ETSLayoutMgr::CPaneMulti::operator->
_TEXT	ENDS
PUBLIC	?GetPane@CPane@ETSLayoutMgr@@QAEPAVPane@2@XZ	; ETSLayoutMgr::CPane::GetPane
PUBLIC	??6CPaneMulti@ETSLayoutMgr@@QAEAAV01@VCPane@1@@Z ; ETSLayoutMgr::CPaneMulti::operator<<
EXTRN	??CCPane@ETSLayoutMgr@@QBEPAVPane@1@XZ:NEAR	; ETSLayoutMgr::CPane::operator->
xdata$x	SEGMENT
$T193279 DD	0ffffffffH
	DD	FLAT:$L193274
	DD	00H
	DD	FLAT:$L193275
$T193277 DD	019930520H
	DD	02H
	DD	FLAT:$T193279
	DD	2 DUP(00H)
	DD	2 DUP(00H)
; Function compile flags: /Odt /RTCsu
xdata$x	ENDS
_TEXT	SEGMENT
tv68 = -36						; size = 4
tv129 = -32						; size = 4
tv131 = -28						; size = 4
$T193273 = -24						; size = 4
$T193272 = -20						; size = 4
_this$ = -16						; size = 4
__$EHRec$ = -12						; size = 12
_pPane$ = 8						; size = 4
??6CPaneMulti@ETSLayoutMgr@@QAEAAV01@VCPane@1@@Z PROC NEAR ; ETSLayoutMgr::CPaneMulti::operator<<
; _this$ = ecx

; 490  : {

  01c30	55		 push	 ebp
  01c31	8b ec		 mov	 ebp, esp
  01c33	6a ff		 push	 -1
  01c35	68 00 00 00 00	 push	 __ehhandler$??6CPaneMulti@ETSLayoutMgr@@QAEAAV01@VCPane@1@@Z
  01c3a	64 a1 00 00 00
	00		 mov	 eax, DWORD PTR fs:__except_list
  01c40	50		 push	 eax
  01c41	64 89 25 00 00
	00 00		 mov	 DWORD PTR fs:__except_list, esp
  01c48	83 ec 18	 sub	 esp, 24			; 00000018H
  01c4b	b8 cc cc cc cc	 mov	 eax, -858993460		; ccccccccH
  01c50	89 45 dc	 mov	 DWORD PTR [ebp-36], eax
  01c53	89 45 e0	 mov	 DWORD PTR [ebp-32], eax
  01c56	89 45 e4	 mov	 DWORD PTR [ebp-28], eax
  01c59	89 45 e8	 mov	 DWORD PTR [ebp-24], eax
  01c5c	89 45 ec	 mov	 DWORD PTR [ebp-20], eax
  01c5f	89 45 f0	 mov	 DWORD PTR [ebp-16], eax
  01c62	89 4d f0	 mov	 DWORD PTR _this$[ebp], ecx
  01c65	c7 45 fc 00 00
	00 00		 mov	 DWORD PTR __$EHRec$[ebp+8], 0

; 491  : 	GetPane()->addPane( pPane, (ETSLayoutMgr::layResizeMode)pPane->m_modeResize, pPane->m_sizeSecondary);

  01c6c	8d 4d 08	 lea	 ecx, DWORD PTR _pPane$[ebp]
  01c6f	e8 00 00 00 00	 call	 ??CCPane@ETSLayoutMgr@@QBEPAVPane@1@XZ ; ETSLayoutMgr::CPane::operator->
  01c74	8b 40 78	 mov	 eax, DWORD PTR [eax+120]
  01c77	50		 push	 eax
  01c78	8d 4d 08	 lea	 ecx, DWORD PTR _pPane$[ebp]
  01c7b	e8 00 00 00 00	 call	 ??CCPane@ETSLayoutMgr@@QBEPAVPane@1@XZ ; ETSLayoutMgr::CPane::operator->
  01c80	8b 48 18	 mov	 ecx, DWORD PTR [eax+24]
  01c83	51		 push	 ecx
  01c84	51		 push	 ecx
  01c85	8b cc		 mov	 ecx, esp
  01c87	89 65 ec	 mov	 DWORD PTR $T193272[ebp], esp
  01c8a	8d 55 08	 lea	 edx, DWORD PTR _pPane$[ebp]
  01c8d	52		 push	 edx
  01c8e	e8 00 00 00 00	 call	 ??0CPane@ETSLayoutMgr@@QAE@ABV01@@Z ; ETSLayoutMgr::CPane::CPane
  01c93	89 45 e4	 mov	 DWORD PTR tv131[ebp], eax
  01c96	8b 45 e4	 mov	 eax, DWORD PTR tv131[ebp]
  01c99	89 45 e0	 mov	 DWORD PTR tv129[ebp], eax
  01c9c	c6 45 fc 01	 mov	 BYTE PTR __$EHRec$[ebp+8], 1
  01ca0	8b 4d f0	 mov	 ecx, DWORD PTR _this$[ebp]
  01ca3	e8 00 00 00 00	 call	 ?GetPane@CPane@ETSLayoutMgr@@QAEPAVPane@2@XZ ; ETSLayoutMgr::CPane::GetPane
  01ca8	89 45 dc	 mov	 DWORD PTR tv68[ebp], eax
  01cab	8b 4d dc	 mov	 ecx, DWORD PTR tv68[ebp]
  01cae	8b 11		 mov	 edx, DWORD PTR [ecx]
  01cb0	c6 45 fc 00	 mov	 BYTE PTR __$EHRec$[ebp+8], 0
  01cb4	8b 4d dc	 mov	 ecx, DWORD PTR tv68[ebp]
  01cb7	ff 52 28	 call	 DWORD PTR [edx+40]

; 492  : 	return (*this);

  01cba	8b 45 f0	 mov	 eax, DWORD PTR _this$[ebp]
  01cbd	89 45 e8	 mov	 DWORD PTR $T193273[ebp], eax
  01cc0	c7 45 fc ff ff
	ff ff		 mov	 DWORD PTR __$EHRec$[ebp+8], -1
  01cc7	8d 4d 08	 lea	 ecx, DWORD PTR _pPane$[ebp]
  01cca	e8 00 00 00 00	 call	 ??1CPane@ETSLayoutMgr@@QAE@XZ ; ETSLayoutMgr::CPane::~CPane
  01ccf	8b 45 e8	 mov	 eax, DWORD PTR $T193273[ebp]

; 493  : }

  01cd2	8b 4d f4	 mov	 ecx, DWORD PTR __$EHRec$[ebp]
  01cd5	64 89 0d 00 00
	00 00		 mov	 DWORD PTR fs:__except_list, ecx
  01cdc	83 c4 24	 add	 esp, 36			; 00000024H
  01cdf	3b ec		 cmp	 ebp, esp
  01ce1	e8 00 00 00 00	 call	 __RTC_CheckEsp
  01ce6	8b e5		 mov	 esp, ebp
  01ce8	5d		 pop	 ebp
  01ce9	c2 04 00	 ret	 4
_TEXT	ENDS
text$x	SEGMENT
$L193274:
  00133	8d 4d 08	 lea	 ecx, DWORD PTR _pPane$[ebp]
  00136	e9 00 00 00 00	 jmp	 ??1CPane@ETSLayoutMgr@@QAE@XZ ; ETSLayoutMgr::CPane::~CPane
$L193275:
  0013b	8b 4d ec	 mov	 ecx, DWORD PTR $T193272[ebp]
  0013e	e9 00 00 00 00	 jmp	 ??1CPane@ETSLayoutMgr@@QAE@XZ ; ETSLayoutMgr::CPane::~CPane
__ehhandler$??6CPaneMulti@ETSLayoutMgr@@QAEAAV01@VCPane@1@@Z:
  00143	b8 00 00 00 00	 mov	 eax, OFFSET FLAT:$T193277
  00148	e9 00 00 00 00	 jmp	 ___CxxFrameHandler
text$x	ENDS
??6CPaneMulti@ETSLayoutMgr@@QAEAAV01@VCPane@1@@Z ENDP	; ETSLayoutMgr::CPaneMulti::operator<<
; Function compile flags: /Odt /RTCsu
; File d:\boxgit\playbox\playbox\dev\prj\playbox\src\layoutmgr\etslayout.h
;	COMDAT ?GetPane@CPane@ETSLayoutMgr@@QAEPAVPane@2@XZ
_TEXT	SEGMENT
_this$ = -4						; size = 4
?GetPane@CPane@ETSLayoutMgr@@QAEPAVPane@2@XZ PROC NEAR	; ETSLayoutMgr::CPane::GetPane, COMDAT
; _this$ = ecx

; 410  : 		Pane* GetPane()			{ return operator->(); }

  00000	55		 push	 ebp
  00001	8b ec		 mov	 ebp, esp
  00003	51		 push	 ecx
  00004	c7 45 fc cc cc
	cc cc		 mov	 DWORD PTR [ebp-4], -858993460 ; ccccccccH
  0000b	89 4d fc	 mov	 DWORD PTR _this$[ebp], ecx
  0000e	8b 4d fc	 mov	 ecx, DWORD PTR _this$[ebp]
  00011	e8 00 00 00 00	 call	 ??CCPane@ETSLayoutMgr@@QBEPAVPane@1@XZ ; ETSLayoutMgr::CPane::operator->
  00016	83 c4 04	 add	 esp, 4
  00019	3b ec		 cmp	 ebp, esp
  0001b	e8 00 00 00 00	 call	 __RTC_CheckEsp
  00020	8b e5		 mov	 esp, ebp
  00022	5d		 pop	 ebp
  00023	c3		 ret	 0
?GetPane@CPane@ETSLayoutMgr@@QAEPAVPane@2@XZ ENDP	; ETSLayoutMgr::CPane::GetPane
_TEXT	ENDS
PUBLIC	??6CPaneMulti@ETSLayoutMgr@@QAEAAV01@VCPaneBase@1@@Z ; ETSLayoutMgr::CPaneMulti::operator<<
xdata$x	SEGMENT
$T193289 DD	0ffffffffH
	DD	FLAT:$L193284
	DD	00H
	DD	FLAT:$L193285
$T193287 DD	019930520H
	DD	02H
	DD	FLAT:$T193289
	DD	2 DUP(00H)
	DD	2 DUP(00H)
; Function compile flags: /Odt /RTCsu
; File d:\boxgit\playbox\playbox\dev\prj\playbox\src\layoutmgr\etslayoutex.cpp
xdata$x	ENDS
_TEXT	SEGMENT
tv68 = -36						; size = 4
tv87 = -32						; size = 4
tv89 = -28						; size = 4
$T193283 = -24						; size = 4
$T193282 = -20						; size = 4
_this$ = -16						; size = 4
__$EHRec$ = -12						; size = 12
_pItem$ = 8						; size = 4
??6CPaneMulti@ETSLayoutMgr@@QAEAAV01@VCPaneBase@1@@Z PROC NEAR ; ETSLayoutMgr::CPaneMulti::operator<<
; _this$ = ecx

; 496  : {

  01cf0	55		 push	 ebp
  01cf1	8b ec		 mov	 ebp, esp
  01cf3	6a ff		 push	 -1
  01cf5	68 00 00 00 00	 push	 __ehhandler$??6CPaneMulti@ETSLayoutMgr@@QAEAAV01@VCPaneBase@1@@Z
  01cfa	64 a1 00 00 00
	00		 mov	 eax, DWORD PTR fs:__except_list
  01d00	50		 push	 eax
  01d01	64 89 25 00 00
	00 00		 mov	 DWORD PTR fs:__except_list, esp
  01d08	83 ec 18	 sub	 esp, 24			; 00000018H
  01d0b	b8 cc cc cc cc	 mov	 eax, -858993460		; ccccccccH
  01d10	89 45 dc	 mov	 DWORD PTR [ebp-36], eax
  01d13	89 45 e0	 mov	 DWORD PTR [ebp-32], eax
  01d16	89 45 e4	 mov	 DWORD PTR [ebp-28], eax
  01d19	89 45 e8	 mov	 DWORD PTR [ebp-24], eax
  01d1c	89 45 ec	 mov	 DWORD PTR [ebp-20], eax
  01d1f	89 45 f0	 mov	 DWORD PTR [ebp-16], eax
  01d22	89 4d f0	 mov	 DWORD PTR _this$[ebp], ecx
  01d25	c7 45 fc 00 00
	00 00		 mov	 DWORD PTR __$EHRec$[ebp+8], 0

; 497  : 	GetPane()->addPane( pItem );

  01d2c	51		 push	 ecx
  01d2d	8b cc		 mov	 ecx, esp
  01d2f	89 65 ec	 mov	 DWORD PTR $T193282[ebp], esp
  01d32	8d 45 08	 lea	 eax, DWORD PTR _pItem$[ebp]
  01d35	50		 push	 eax
  01d36	e8 00 00 00 00	 call	 ??0CPaneBase@ETSLayoutMgr@@QAE@ABV01@@Z ; ETSLayoutMgr::CPaneBase::CPaneBase
  01d3b	89 45 e4	 mov	 DWORD PTR tv89[ebp], eax
  01d3e	8b 4d e4	 mov	 ecx, DWORD PTR tv89[ebp]
  01d41	89 4d e0	 mov	 DWORD PTR tv87[ebp], ecx
  01d44	c6 45 fc 01	 mov	 BYTE PTR __$EHRec$[ebp+8], 1
  01d48	8b 4d f0	 mov	 ecx, DWORD PTR _this$[ebp]
  01d4b	e8 00 00 00 00	 call	 ?GetPane@CPane@ETSLayoutMgr@@QAEPAVPane@2@XZ ; ETSLayoutMgr::CPane::GetPane
  01d50	89 45 dc	 mov	 DWORD PTR tv68[ebp], eax
  01d53	8b 55 dc	 mov	 edx, DWORD PTR tv68[ebp]
  01d56	8b 02		 mov	 eax, DWORD PTR [edx]
  01d58	c6 45 fc 00	 mov	 BYTE PTR __$EHRec$[ebp+8], 0
  01d5c	8b 4d dc	 mov	 ecx, DWORD PTR tv68[ebp]
  01d5f	ff 50 2c	 call	 DWORD PTR [eax+44]

; 498  : 	return (*this);

  01d62	8b 4d f0	 mov	 ecx, DWORD PTR _this$[ebp]
  01d65	89 4d e8	 mov	 DWORD PTR $T193283[ebp], ecx
  01d68	c7 45 fc ff ff
	ff ff		 mov	 DWORD PTR __$EHRec$[ebp+8], -1
  01d6f	8d 4d 08	 lea	 ecx, DWORD PTR _pItem$[ebp]
  01d72	e8 00 00 00 00	 call	 ??1CPaneBase@ETSLayoutMgr@@QAE@XZ ; ETSLayoutMgr::CPaneBase::~CPaneBase
  01d77	8b 45 e8	 mov	 eax, DWORD PTR $T193283[ebp]

; 499  : }

  01d7a	8b 4d f4	 mov	 ecx, DWORD PTR __$EHRec$[ebp]
  01d7d	64 89 0d 00 00
	00 00		 mov	 DWORD PTR fs:__except_list, ecx
  01d84	83 c4 24	 add	 esp, 36			; 00000024H
  01d87	3b ec		 cmp	 ebp, esp
  01d89	e8 00 00 00 00	 call	 __RTC_CheckEsp
  01d8e	8b e5		 mov	 esp, ebp
  01d90	5d		 pop	 ebp
  01d91	c2 04 00	 ret	 4
_TEXT	ENDS
text$x	SEGMENT
$L193284:
  0014d	8d 4d 08	 lea	 ecx, DWORD PTR _pItem$[ebp]
  00150	e9 00 00 00 00	 jmp	 ??1CPaneBase@ETSLayoutMgr@@QAE@XZ ; ETSLayoutMgr::CPaneBase::~CPaneBase
$L193285:
  00155	8b 4d ec	 mov	 ecx, DWORD PTR $T193282[ebp]
  00158	e9 00 00 00 00	 jmp	 ??1CPaneBase@ETSLayoutMgr@@QAE@XZ ; ETSLayoutMgr::CPaneBase::~CPaneBase
__ehhandler$??6CPaneMulti@ETSLayoutMgr@@QAEAAV01@VCPaneBase@1@@Z:
  0015d	b8 00 00 00 00	 mov	 eax, OFFSET FLAT:$T193287
  00162	e9 00 00 00 00	 jmp	 ___CxxFrameHandler
text$x	ENDS
??6CPaneMulti@ETSLayoutMgr@@QAEAAV01@VCPaneBase@1@@Z ENDP ; ETSLayoutMgr::CPaneMulti::operator<<
PUBLIC	??0CPaneMulti@ETSLayoutMgr@@QAE@PAVPaneMulti@1@@Z ; ETSLayoutMgr::CPaneMulti::CPaneMulti
; Function compile flags: /Odt /RTCsu
_TEXT	SEGMENT
_this$ = -4						; size = 4
_pPane$ = 8						; size = 4
??0CPaneMulti@ETSLayoutMgr@@QAE@PAVPaneMulti@1@@Z PROC NEAR ; ETSLayoutMgr::CPaneMulti::CPaneMulti
; _this$ = ecx

; 502  : {

  01da0	55		 push	 ebp
  01da1	8b ec		 mov	 ebp, esp
  01da3	51		 push	 ecx
  01da4	c7 45 fc cc cc
	cc cc		 mov	 DWORD PTR [ebp-4], -858993460 ; ccccccccH
  01dab	89 4d fc	 mov	 DWORD PTR _this$[ebp], ecx
  01dae	8b 45 08	 mov	 eax, DWORD PTR _pPane$[ebp]
  01db1	50		 push	 eax
  01db2	8b 4d fc	 mov	 ecx, DWORD PTR _this$[ebp]
  01db5	e8 00 00 00 00	 call	 ??0CPane@ETSLayoutMgr@@QAE@PAVPane@1@@Z ; ETSLayoutMgr::CPane::CPane

; 503  : }

  01dba	8b 45 fc	 mov	 eax, DWORD PTR _this$[ebp]
  01dbd	83 c4 04	 add	 esp, 4
  01dc0	3b ec		 cmp	 ebp, esp
  01dc2	e8 00 00 00 00	 call	 __RTC_CheckEsp
  01dc7	8b e5		 mov	 esp, ebp
  01dc9	5d		 pop	 ebp
  01dca	c2 04 00	 ret	 4
??0CPaneMulti@ETSLayoutMgr@@QAE@PAVPaneMulti@1@@Z ENDP	; ETSLayoutMgr::CPaneMulti::CPaneMulti
_TEXT	ENDS
PUBLIC	??0CPaneMulti@ETSLayoutMgr@@QAE@XZ		; ETSLayoutMgr::CPaneMulti::CPaneMulti
EXTRN	??0CPane@ETSLayoutMgr@@QAE@XZ:NEAR		; ETSLayoutMgr::CPane::CPane
; Function compile flags: /Odt /RTCsu
_TEXT	SEGMENT
_this$ = -4						; size = 4
??0CPaneMulti@ETSLayoutMgr@@QAE@XZ PROC NEAR		; ETSLayoutMgr::CPaneMulti::CPaneMulti
; _this$ = ecx

; 506  : {

  01dd0	55		 push	 ebp
  01dd1	8b ec		 mov	 ebp, esp
  01dd3	51		 push	 ecx
  01dd4	c7 45 fc cc cc
	cc cc		 mov	 DWORD PTR [ebp-4], -858993460 ; ccccccccH
  01ddb	89 4d fc	 mov	 DWORD PTR _this$[ebp], ecx
  01dde	8b 4d fc	 mov	 ecx, DWORD PTR _this$[ebp]
  01de1	e8 00 00 00 00	 call	 ??0CPane@ETSLayoutMgr@@QAE@XZ ; ETSLayoutMgr::CPane::CPane

; 507  : }

  01de6	8b 45 fc	 mov	 eax, DWORD PTR _this$[ebp]
  01de9	83 c4 04	 add	 esp, 4
  01dec	3b ec		 cmp	 ebp, esp
  01dee	e8 00 00 00 00	 call	 __RTC_CheckEsp
  01df3	8b e5		 mov	 esp, ebp
  01df5	5d		 pop	 ebp
  01df6	c3		 ret	 0
??0CPaneMulti@ETSLayoutMgr@@QAE@XZ ENDP			; ETSLayoutMgr::CPaneMulti::CPaneMulti
_TEXT	ENDS
PUBLIC	?paneMulti@ETSLayoutMgr@@QAE?AVCPaneMulti@1@W4layOrientation@1@W4layResizeMode@1@HHH@Z ; ETSLayoutMgr::paneMulti
EXTRN	??0PaneMulti@ETSLayoutMgr@@QAE@PAV1@W4layOrientation@1@HH@Z:NEAR ; ETSLayoutMgr::PaneMulti::PaneMulti
xdata$x	SEGMENT
$T193306 DD	0ffffffffH
	DD	FLAT:$L193299
$T193304 DD	019930520H
	DD	01H
	DD	FLAT:$T193306
	DD	2 DUP(00H)
	DD	2 DUP(00H)
; Function compile flags: /Odt /RTCsu
xdata$x	ENDS
_TEXT	SEGMENT
tv75 = -36						; size = 4
$T193301 = -32						; size = 4
$T193296 = -28						; size = 4
$T193295 = -24						; size = 4
_pPane$ = -20						; size = 4
_this$ = -16						; size = 4
__$EHRec$ = -12						; size = 12
___$ReturnUdt$ = 8					; size = 4
_orientation$ = 12					; size = 4
_modeResize$ = 16					; size = 4
_sizeBorder$ = 20					; size = 4
_sizeExtraBorder$ = 24					; size = 4
_sizeSecondary$ = 28					; size = 4
?paneMulti@ETSLayoutMgr@@QAE?AVCPaneMulti@1@W4layOrientation@1@W4layResizeMode@1@HHH@Z PROC NEAR ; ETSLayoutMgr::paneMulti
; _this$ = ecx

; 512  : {

  01e00	55		 push	 ebp
  01e01	8b ec		 mov	 ebp, esp
  01e03	6a ff		 push	 -1
  01e05	68 00 00 00 00	 push	 __ehhandler$?paneMulti@ETSLayoutMgr@@QAE?AVCPaneMulti@1@W4layOrientation@1@W4layResizeMode@1@HHH@Z
  01e0a	64 a1 00 00 00
	00		 mov	 eax, DWORD PTR fs:__except_list
  01e10	50		 push	 eax
  01e11	64 89 25 00 00
	00 00		 mov	 DWORD PTR fs:__except_list, esp
  01e18	83 ec 18	 sub	 esp, 24			; 00000018H
  01e1b	b8 cc cc cc cc	 mov	 eax, -858993460		; ccccccccH
  01e20	89 45 dc	 mov	 DWORD PTR [ebp-36], eax
  01e23	89 45 e0	 mov	 DWORD PTR [ebp-32], eax
  01e26	89 45 e4	 mov	 DWORD PTR [ebp-28], eax
  01e29	89 45 e8	 mov	 DWORD PTR [ebp-24], eax
  01e2c	89 45 ec	 mov	 DWORD PTR [ebp-20], eax
  01e2f	89 45 f0	 mov	 DWORD PTR [ebp-16], eax
  01e32	89 4d f0	 mov	 DWORD PTR _this$[ebp], ecx
  01e35	c7 45 e0 00 00
	00 00		 mov	 DWORD PTR $T193301[ebp], 0

; 513  : 	PaneMulti* pPane = new PaneMulti ( this, orientation, sizeBorder, sizeExtraBorder );

  01e3c	68 a8 00 00 00	 push	 168			; 000000a8H
  01e41	e8 00 00 00 00	 call	 ??2@YAPAXI@Z		; operator new
  01e46	83 c4 04	 add	 esp, 4
  01e49	89 45 e4	 mov	 DWORD PTR $T193296[ebp], eax
  01e4c	c7 45 fc 00 00
	00 00		 mov	 DWORD PTR __$EHRec$[ebp+8], 0
  01e53	83 7d e4 00	 cmp	 DWORD PTR $T193296[ebp], 0
  01e57	74 1d		 je	 SHORT $L193297
  01e59	8b 45 18	 mov	 eax, DWORD PTR _sizeExtraBorder$[ebp]
  01e5c	50		 push	 eax
  01e5d	8b 4d 14	 mov	 ecx, DWORD PTR _sizeBorder$[ebp]
  01e60	51		 push	 ecx
  01e61	8b 55 0c	 mov	 edx, DWORD PTR _orientation$[ebp]
  01e64	52		 push	 edx
  01e65	8b 45 f0	 mov	 eax, DWORD PTR _this$[ebp]
  01e68	50		 push	 eax
  01e69	8b 4d e4	 mov	 ecx, DWORD PTR $T193296[ebp]
  01e6c	e8 00 00 00 00	 call	 ??0PaneMulti@ETSLayoutMgr@@QAE@PAV1@W4layOrientation@1@HH@Z ; ETSLayoutMgr::PaneMulti::PaneMulti
  01e71	89 45 dc	 mov	 DWORD PTR tv75[ebp], eax
  01e74	eb 07		 jmp	 SHORT $L193298
$L193297:
  01e76	c7 45 dc 00 00
	00 00		 mov	 DWORD PTR tv75[ebp], 0
$L193298:
  01e7d	8b 4d dc	 mov	 ecx, DWORD PTR tv75[ebp]
  01e80	89 4d e8	 mov	 DWORD PTR $T193295[ebp], ecx
  01e83	c7 45 fc ff ff
	ff ff		 mov	 DWORD PTR __$EHRec$[ebp+8], -1
  01e8a	8b 55 e8	 mov	 edx, DWORD PTR $T193295[ebp]
  01e8d	89 55 ec	 mov	 DWORD PTR _pPane$[ebp], edx

; 514  : 	pPane->m_sizeSecondary = sizeSecondary;

  01e90	8b 45 ec	 mov	 eax, DWORD PTR _pPane$[ebp]
  01e93	8b 4d 1c	 mov	 ecx, DWORD PTR _sizeSecondary$[ebp]
  01e96	89 48 78	 mov	 DWORD PTR [eax+120], ecx

; 515  : 	pPane->m_modeResize    = modeResize;

  01e99	8b 55 ec	 mov	 edx, DWORD PTR _pPane$[ebp]
  01e9c	8b 45 10	 mov	 eax, DWORD PTR _modeResize$[ebp]
  01e9f	89 42 18	 mov	 DWORD PTR [edx+24], eax

; 516  : 
; 517  : 	return CPaneMulti(pPane); 

  01ea2	8b 4d ec	 mov	 ecx, DWORD PTR _pPane$[ebp]
  01ea5	51		 push	 ecx
  01ea6	8b 4d 08	 mov	 ecx, DWORD PTR ___$ReturnUdt$[ebp]
  01ea9	e8 00 00 00 00	 call	 ??0CPaneMulti@ETSLayoutMgr@@QAE@PAVPaneMulti@1@@Z ; ETSLayoutMgr::CPaneMulti::CPaneMulti
  01eae	8b 55 e0	 mov	 edx, DWORD PTR $T193301[ebp]
  01eb1	83 ca 01	 or	 edx, 1
  01eb4	89 55 e0	 mov	 DWORD PTR $T193301[ebp], edx
  01eb7	8b 45 08	 mov	 eax, DWORD PTR ___$ReturnUdt$[ebp]

; 518  : }

  01eba	8b 4d f4	 mov	 ecx, DWORD PTR __$EHRec$[ebp]
  01ebd	64 89 0d 00 00
	00 00		 mov	 DWORD PTR fs:__except_list, ecx
  01ec4	83 c4 24	 add	 esp, 36			; 00000024H
  01ec7	3b ec		 cmp	 ebp, esp
  01ec9	e8 00 00 00 00	 call	 __RTC_CheckEsp
  01ece	8b e5		 mov	 esp, ebp
  01ed0	5d		 pop	 ebp
  01ed1	c2 18 00	 ret	 24			; 00000018H
_TEXT	ENDS
text$x	SEGMENT
$L193299:
  00167	8b 45 e4	 mov	 eax, DWORD PTR $T193296[ebp]
  0016a	50		 push	 eax
  0016b	e8 00 00 00 00	 call	 ??3@YAXPAX@Z		; operator delete
  00170	59		 pop	 ecx
  00171	c3		 ret	 0
__ehhandler$?paneMulti@ETSLayoutMgr@@QAE?AVCPaneMulti@1@W4layOrientation@1@W4layResizeMode@1@HHH@Z:
  00172	b8 00 00 00 00	 mov	 eax, OFFSET FLAT:$T193304
  00177	e9 00 00 00 00	 jmp	 ___CxxFrameHandler
text$x	ENDS
?paneMulti@ETSLayoutMgr@@QAE?AVCPaneMulti@1@W4layOrientation@1@W4layResizeMode@1@HHH@Z ENDP ; ETSLayoutMgr::paneMulti
PUBLIC	??8ATL@@YA_NABV?$CStringT@DV?$StrTraitMFC_DLL@DV?$ChTraitsCRT@D@ATL@@@@@0@PBD@Z ; ATL::operator==
PUBLIC	?GetStartPosition@?$CMap@V?$CStringT@DV?$StrTraitMFC_DLL@DV?$ChTraitsCRT@D@ATL@@@@@ATL@@PBDVCPaneBase@ETSLayoutMgr@@V34@@@QBEPAU__POSITION@@XZ ; CMap<ATL::CStringT<char,StrTraitMFC_DLL<char,ATL::ChTraitsCRT<char> > >,char const *,ETSLayoutMgr::CPaneBase,ETSLayoutMgr::CPaneBase>::GetStartPosition
PUBLIC	?GetNextAssoc@?$CMap@V?$CStringT@DV?$StrTraitMFC_DLL@DV?$ChTraitsCRT@D@ATL@@@@@ATL@@PBDVCPaneBase@ETSLayoutMgr@@V34@@@QBEXAAPAU__POSITION@@AAV?$CStringT@DV?$StrTraitMFC_DLL@DV?$ChTraitsCRT@D@ATL@@@@@ATL@@AAVCPaneBase@ETSLayoutMgr@@@Z ; CMap<ATL::CStringT<char,StrTraitMFC_DLL<char,ATL::ChTraitsCRT<char> > >,char const *,ETSLayoutMgr::CPaneBase,ETSLayoutMgr::CPaneBase>::GetNextAssoc
PUBLIC	?showPane@PaneMulti@ETSLayoutMgr@@UAEX_N@Z	; ETSLayoutMgr::PaneMulti::showPane
PUBLIC	?GetName@PaneBase@ETSLayoutMgr@@QAE?AV?$CStringT@DV?$StrTraitMFC_DLL@DV?$ChTraitsCRT@D@ATL@@@@@ATL@@XZ ; ETSLayoutMgr::PaneBase::GetName
PUBLIC	?GetPaneBase@CPaneBase@ETSLayoutMgr@@QAEPAVPaneBase@2@XZ ; ETSLayoutMgr::CPaneBase::GetPaneBase
PUBLIC	?IsValid@CPaneBase@ETSLayoutMgr@@QAE_NXZ	; ETSLayoutMgr::CPaneBase::IsValid
EXTRN	__imp_??0?$CStringT@DV?$StrTraitMFC_DLL@DV?$ChTraitsCRT@D@ATL@@@@@ATL@@QAE@XZ:NEAR
EXTRN	__imp_??1?$CStringT@DV?$StrTraitMFC_DLL@DV?$ChTraitsCRT@D@ATL@@@@@ATL@@QAE@XZ:NEAR
xdata$x	SEGMENT
$T193326 DD	0ffffffffH
	DD	FLAT:$L193316
	DD	00H
	DD	FLAT:$L193317
$T193319 DD	019930520H
	DD	02H
	DD	FLAT:$T193326
	DD	2 DUP(00H)
	DD	2 DUP(00H)
; Function compile flags: /Odt /RTCsu
xdata$x	ENDS
_TEXT	SEGMENT
tv149 = -80						; size = 4
tv93 = -76						; size = 4
tv157 = -72						; size = 4
tv74 = -68						; size = 4
$T193312 = -64						; size = 4
$T193309 = -60						; size = 4
$T193308 = -53						; size = 1
_pane$190795 = -48					; size = 4
_key$190794 = -36					; size = 4
_pos$190793 = -24					; size = 4
_this$ = -16						; size = 4
__$EHRec$ = -12						; size = 12
_bShow$ = 8						; size = 1
?showPane@PaneMulti@ETSLayoutMgr@@UAEX_N@Z PROC NEAR	; ETSLayoutMgr::PaneMulti::showPane
; _this$ = ecx

; 522  : {

  01ee0	55		 push	 ebp
  01ee1	8b ec		 mov	 ebp, esp
  01ee3	6a ff		 push	 -1
  01ee5	68 00 00 00 00	 push	 __ehhandler$?showPane@PaneMulti@ETSLayoutMgr@@UAEX_N@Z
  01eea	64 a1 00 00 00
	00		 mov	 eax, DWORD PTR fs:__except_list
  01ef0	50		 push	 eax
  01ef1	64 89 25 00 00
	00 00		 mov	 DWORD PTR fs:__except_list, esp
  01ef8	83 ec 44	 sub	 esp, 68			; 00000044H
  01efb	56		 push	 esi
  01efc	57		 push	 edi
  01efd	51		 push	 ecx
  01efe	8d 7d b0	 lea	 edi, DWORD PTR [ebp-80]
  01f01	b9 11 00 00 00	 mov	 ecx, 17			; 00000011H
  01f06	b8 cc cc cc cc	 mov	 eax, -858993460		; ccccccccH
  01f0b	f3 ab		 rep stosd
  01f0d	59		 pop	 ecx
  01f0e	89 4d f0	 mov	 DWORD PTR _this$[ebp], ecx
  01f11	c7 45 c0 00 00
	00 00		 mov	 DWORD PTR $T193312[ebp], 0

; 523  : 	m_bShow = bShow;

  01f18	8b 45 f0	 mov	 eax, DWORD PTR _this$[ebp]
  01f1b	8a 4d 08	 mov	 cl, BYTE PTR _bShow$[ebp]
  01f1e	88 48 1c	 mov	 BYTE PTR [eax+28], cl

; 524  : 
; 525  : 	if(m_paneCurrent.IsValid())

  01f21	8b 4d f0	 mov	 ecx, DWORD PTR _this$[ebp]
  01f24	81 c1 88 00 00
	00		 add	 ecx, 136		; 00000088H
  01f2a	e8 00 00 00 00	 call	 ?IsValid@CPaneBase@ETSLayoutMgr@@QAE_NXZ ; ETSLayoutMgr::CPaneBase::IsValid
  01f2f	0f b6 d0	 movzx	 edx, al
  01f32	85 d2		 test	 edx, edx
  01f34	0f 84 b3 00 00
	00		 je	 $L190786

; 526  : 	{
; 527  : 		m_paneCurrent.GetPaneBase()->showPane(bShow); 

  01f3a	8b 4d f0	 mov	 ecx, DWORD PTR _this$[ebp]
  01f3d	81 c1 88 00 00
	00		 add	 ecx, 136		; 00000088H
  01f43	e8 00 00 00 00	 call	 ?GetPaneBase@CPaneBase@ETSLayoutMgr@@QAEPAVPaneBase@2@XZ ; ETSLayoutMgr::CPaneBase::GetPaneBase
  01f48	89 45 bc	 mov	 DWORD PTR tv74[ebp], eax
  01f4b	8b f4		 mov	 esi, esp
  01f4d	8a 45 08	 mov	 al, BYTE PTR _bShow$[ebp]
  01f50	50		 push	 eax
  01f51	8b 4d bc	 mov	 ecx, DWORD PTR tv74[ebp]
  01f54	8b 11		 mov	 edx, DWORD PTR [ecx]
  01f56	8b 4d bc	 mov	 ecx, DWORD PTR tv74[ebp]
  01f59	ff 52 24	 call	 DWORD PTR [edx+36]
  01f5c	3b f4		 cmp	 esi, esp
  01f5e	e8 00 00 00 00	 call	 __RTC_CheckEsp

; 528  : 		if(m_paneCurrent.GetPaneBase()->GetName() == "SearchResult" && bShow)

  01f63	8d 45 c4	 lea	 eax, DWORD PTR $T193309[ebp]
  01f66	50		 push	 eax
  01f67	8b 4d f0	 mov	 ecx, DWORD PTR _this$[ebp]
  01f6a	81 c1 88 00 00
	00		 add	 ecx, 136		; 00000088H
  01f70	e8 00 00 00 00	 call	 ?GetPaneBase@CPaneBase@ETSLayoutMgr@@QAEPAVPaneBase@2@XZ ; ETSLayoutMgr::CPaneBase::GetPaneBase
  01f75	8b c8		 mov	 ecx, eax
  01f77	e8 00 00 00 00	 call	 ?GetName@PaneBase@ETSLayoutMgr@@QAE?AV?$CStringT@DV?$StrTraitMFC_DLL@DV?$ChTraitsCRT@D@ATL@@@@@ATL@@XZ ; ETSLayoutMgr::PaneBase::GetName
  01f7c	89 45 b8	 mov	 DWORD PTR tv157[ebp], eax
  01f7f	8b 4d c0	 mov	 ecx, DWORD PTR $T193312[ebp]
  01f82	83 c9 01	 or	 ecx, 1
  01f85	89 4d c0	 mov	 DWORD PTR $T193312[ebp], ecx
  01f88	68 00 00 00 00	 push	 OFFSET FLAT:$SG190790
  01f8d	8b 55 b8	 mov	 edx, DWORD PTR tv157[ebp]
  01f90	52		 push	 edx
  01f91	e8 00 00 00 00	 call	 ??8ATL@@YA_NABV?$CStringT@DV?$StrTraitMFC_DLL@DV?$ChTraitsCRT@D@ATL@@@@@0@PBD@Z ; ATL::operator==
  01f96	83 c4 08	 add	 esp, 8
  01f99	0f b6 c0	 movzx	 eax, al
  01f9c	85 c0		 test	 eax, eax
  01f9e	74 11		 je	 SHORT $L193310
  01fa0	0f b6 4d 08	 movzx	 ecx, BYTE PTR _bShow$[ebp]
  01fa4	85 c9		 test	 ecx, ecx
  01fa6	74 09		 je	 SHORT $L193310
  01fa8	c7 45 b4 01 00
	00 00		 mov	 DWORD PTR tv93[ebp], 1
  01faf	eb 07		 jmp	 SHORT $L193311
$L193310:
  01fb1	c7 45 b4 00 00
	00 00		 mov	 DWORD PTR tv93[ebp], 0
$L193311:
  01fb8	8a 55 b4	 mov	 dl, BYTE PTR tv93[ebp]
  01fbb	88 55 cb	 mov	 BYTE PTR $T193308[ebp], dl
  01fbe	8b 45 c0	 mov	 eax, DWORD PTR $T193312[ebp]
  01fc1	83 e0 01	 and	 eax, 1
  01fc4	74 16		 je	 SHORT $L193315
  01fc6	83 65 c0 fe	 and	 DWORD PTR $T193312[ebp], -2 ; fffffffeH
  01fca	8b f4		 mov	 esi, esp
  01fcc	8d 4d c4	 lea	 ecx, DWORD PTR $T193309[ebp]
  01fcf	ff 15 00 00 00
	00		 call	 DWORD PTR __imp_??1?$CStringT@DV?$StrTraitMFC_DLL@DV?$ChTraitsCRT@D@ATL@@@@@ATL@@QAE@XZ
  01fd5	3b f4		 cmp	 esi, esp
  01fd7	e8 00 00 00 00	 call	 __RTC_CheckEsp
$L193315:
  01fdc	0f b6 4d cb	 movzx	 ecx, BYTE PTR $T193308[ebp]
  01fe0	85 c9		 test	 ecx, ecx
  01fe2	74 04		 je	 SHORT $L190788

; 529  : 			bShow = true;

  01fe4	c6 45 08 01	 mov	 BYTE PTR _bShow$[ebp], 1
$L190788:

; 530  : 	}
; 531  : 	else if(bShow == false)

  01fe8	e9 aa 00 00 00	 jmp	 $L190785
$L190786:
  01fed	0f b6 55 08	 movzx	 edx, BYTE PTR _bShow$[ebp]
  01ff1	85 d2		 test	 edx, edx
  01ff3	0f 85 9e 00 00
	00		 jne	 $L190785

; 532  : 	{
; 533  : 		POSITION pos = m_mapLayers.GetStartPosition();

  01ff9	8b 4d f0	 mov	 ecx, DWORD PTR _this$[ebp]
  01ffc	81 c1 8c 00 00
	00		 add	 ecx, 140		; 0000008cH
  02002	e8 00 00 00 00	 call	 ?GetStartPosition@?$CMap@V?$CStringT@DV?$StrTraitMFC_DLL@DV?$ChTraitsCRT@D@ATL@@@@@ATL@@PBDVCPaneBase@ETSLayoutMgr@@V34@@@QBEPAU__POSITION@@XZ ; CMap<ATL::CStringT<char,StrTraitMFC_DLL<char,ATL::ChTraitsCRT<char> > >,char const *,ETSLayoutMgr::CPaneBase,ETSLayoutMgr::CPaneBase>::GetStartPosition
  02007	89 45 e8	 mov	 DWORD PTR _pos$190793[ebp], eax

; 534  : 		CString key;

  0200a	8b f4		 mov	 esi, esp
  0200c	8d 4d dc	 lea	 ecx, DWORD PTR _key$190794[ebp]
  0200f	ff 15 00 00 00
	00		 call	 DWORD PTR __imp_??0?$CStringT@DV?$StrTraitMFC_DLL@DV?$ChTraitsCRT@D@ATL@@@@@ATL@@QAE@XZ
  02015	3b f4		 cmp	 esi, esp
  02017	e8 00 00 00 00	 call	 __RTC_CheckEsp
  0201c	c7 45 fc 00 00
	00 00		 mov	 DWORD PTR __$EHRec$[ebp+8], 0

; 535  : 		CPaneBase	pane;

  02023	8d 4d d0	 lea	 ecx, DWORD PTR _pane$190795[ebp]
  02026	e8 00 00 00 00	 call	 ??0CPaneBase@ETSLayoutMgr@@QAE@XZ ; ETSLayoutMgr::CPaneBase::CPaneBase
  0202b	c6 45 fc 01	 mov	 BYTE PTR __$EHRec$[ebp+8], 1
$L190797:

; 536  : 		while (pos != NULL)

  0202f	83 7d e8 00	 cmp	 DWORD PTR _pos$190793[ebp], 0
  02033	74 3d		 je	 SHORT $L190798

; 537  : 		{
; 538  : 			m_mapLayers.GetNextAssoc( pos, key, pane );

  02035	8d 45 d0	 lea	 eax, DWORD PTR _pane$190795[ebp]
  02038	50		 push	 eax
  02039	8d 4d dc	 lea	 ecx, DWORD PTR _key$190794[ebp]
  0203c	51		 push	 ecx
  0203d	8d 55 e8	 lea	 edx, DWORD PTR _pos$190793[ebp]
  02040	52		 push	 edx
  02041	8b 4d f0	 mov	 ecx, DWORD PTR _this$[ebp]
  02044	81 c1 8c 00 00
	00		 add	 ecx, 140		; 0000008cH
  0204a	e8 00 00 00 00	 call	 ?GetNextAssoc@?$CMap@V?$CStringT@DV?$StrTraitMFC_DLL@DV?$ChTraitsCRT@D@ATL@@@@@ATL@@PBDVCPaneBase@ETSLayoutMgr@@V34@@@QBEXAAPAU__POSITION@@AAV?$CStringT@DV?$StrTraitMFC_DLL@DV?$ChTraitsCRT@D@ATL@@@@@ATL@@AAVCPaneBase@ETSLayoutMgr@@@Z ; CMap<ATL::CStringT<char,StrTraitMFC_DLL<char,ATL::ChTraitsCRT<char> > >,char const *,ETSLayoutMgr::CPaneBase,ETSLayoutMgr::CPaneBase>::GetNextAssoc

; 539  : 			pane.GetPaneBase()->showPane(false);

  0204f	8d 4d d0	 lea	 ecx, DWORD PTR _pane$190795[ebp]
  02052	e8 00 00 00 00	 call	 ?GetPaneBase@CPaneBase@ETSLayoutMgr@@QAEPAVPaneBase@2@XZ ; ETSLayoutMgr::CPaneBase::GetPaneBase
  02057	89 45 b0	 mov	 DWORD PTR tv149[ebp], eax
  0205a	8b f4		 mov	 esi, esp
  0205c	6a 00		 push	 0
  0205e	8b 45 b0	 mov	 eax, DWORD PTR tv149[ebp]
  02061	8b 10		 mov	 edx, DWORD PTR [eax]
  02063	8b 4d b0	 mov	 ecx, DWORD PTR tv149[ebp]
  02066	ff 52 24	 call	 DWORD PTR [edx+36]
  02069	3b f4		 cmp	 esi, esp
  0206b	e8 00 00 00 00	 call	 __RTC_CheckEsp

; 540  : 		}

  02070	eb bd		 jmp	 SHORT $L190797
$L190798:

; 541  : 	}

  02072	c6 45 fc 00	 mov	 BYTE PTR __$EHRec$[ebp+8], 0
  02076	8d 4d d0	 lea	 ecx, DWORD PTR _pane$190795[ebp]
  02079	e8 00 00 00 00	 call	 ??1CPaneBase@ETSLayoutMgr@@QAE@XZ ; ETSLayoutMgr::CPaneBase::~CPaneBase
  0207e	c7 45 fc ff ff
	ff ff		 mov	 DWORD PTR __$EHRec$[ebp+8], -1
  02085	8b f4		 mov	 esi, esp
  02087	8d 4d dc	 lea	 ecx, DWORD PTR _key$190794[ebp]
  0208a	ff 15 00 00 00
	00		 call	 DWORD PTR __imp_??1?$CStringT@DV?$StrTraitMFC_DLL@DV?$ChTraitsCRT@D@ATL@@@@@ATL@@QAE@XZ
  02090	3b f4		 cmp	 esi, esp
  02092	e8 00 00 00 00	 call	 __RTC_CheckEsp
$L190785:

; 542  : }

  02097	52		 push	 edx
  02098	8b cd		 mov	 ecx, ebp
  0209a	50		 push	 eax
  0209b	8d 15 00 00 00
	00		 lea	 edx, DWORD PTR $L193325
  020a1	e8 00 00 00 00	 call	 @_RTC_CheckStackVars@8
  020a6	58		 pop	 eax
  020a7	5a		 pop	 edx
  020a8	8b 4d f4	 mov	 ecx, DWORD PTR __$EHRec$[ebp]
  020ab	64 89 0d 00 00
	00 00		 mov	 DWORD PTR fs:__except_list, ecx
  020b2	5f		 pop	 edi
  020b3	5e		 pop	 esi
  020b4	83 c4 50	 add	 esp, 80			; 00000050H
  020b7	3b ec		 cmp	 ebp, esp
  020b9	e8 00 00 00 00	 call	 __RTC_CheckEsp
  020be	8b e5		 mov	 esp, ebp
  020c0	5d		 pop	 ebp
  020c1	c2 04 00	 ret	 4
$L193325:
  020c4	03 00 00 00	 DD	 3
  020c8	00 00 00 00	 DD	 $L193324
$L193324:
  020cc	e8 ff ff ff	 DD	 -24			; ffffffe8H
  020d0	04 00 00 00	 DD	 4
  020d4	00 00 00 00	 DD	 $L193320
  020d8	dc ff ff ff	 DD	 -36			; ffffffdcH
  020dc	04 00 00 00	 DD	 4
  020e0	00 00 00 00	 DD	 $L193321
  020e4	d0 ff ff ff	 DD	 -48			; ffffffd0H
  020e8	04 00 00 00	 DD	 4
  020ec	00 00 00 00	 DD	 $L193322
$L193322:
  020f0	70		 DB	 112			; 00000070H
  020f1	61		 DB	 97			; 00000061H
  020f2	6e		 DB	 110			; 0000006eH
  020f3	65		 DB	 101			; 00000065H
  020f4	00		 DB	 0
$L193321:
  020f5	6b		 DB	 107			; 0000006bH
  020f6	65		 DB	 101			; 00000065H
  020f7	79		 DB	 121			; 00000079H
  020f8	00		 DB	 0
$L193320:
  020f9	70		 DB	 112			; 00000070H
  020fa	6f		 DB	 111			; 0000006fH
  020fb	73		 DB	 115			; 00000073H
  020fc	00		 DB	 0
_TEXT	ENDS
text$x	SEGMENT
$L193316:
  0017c	8b f4		 mov	 esi, esp
  0017e	8d 4d dc	 lea	 ecx, DWORD PTR _key$190794[ebp]
  00181	ff 15 00 00 00
	00		 call	 DWORD PTR __imp_??1?$CStringT@DV?$StrTraitMFC_DLL@DV?$ChTraitsCRT@D@ATL@@@@@ATL@@QAE@XZ
  00187	3b f4		 cmp	 esi, esp
  00189	e9 00 00 00 00	 jmp	 __RTC_CheckEsp
$L193317:
  0018e	8d 4d d0	 lea	 ecx, DWORD PTR _pane$190795[ebp]
  00191	e9 00 00 00 00	 jmp	 ??1CPaneBase@ETSLayoutMgr@@QAE@XZ ; ETSLayoutMgr::CPaneBase::~CPaneBase
__ehhandler$?showPane@PaneMulti@ETSLayoutMgr@@UAEX_N@Z:
  00196	b8 00 00 00 00	 mov	 eax, OFFSET FLAT:$T193319
  0019b	e9 00 00 00 00	 jmp	 ___CxxFrameHandler
text$x	ENDS
?showPane@PaneMulti@ETSLayoutMgr@@UAEX_N@Z ENDP		; ETSLayoutMgr::PaneMulti::showPane
EXTRN	__imp_??0?$CStringT@DV?$StrTraitMFC_DLL@DV?$ChTraitsCRT@D@ATL@@@@@ATL@@QAE@ABV01@@Z:NEAR
; Function compile flags: /Odt /RTCsu
; File d:\boxgit\playbox\playbox\dev\prj\playbox\src\layoutmgr\etslayout.h
;	COMDAT ?GetName@PaneBase@ETSLayoutMgr@@QAE?AV?$CStringT@DV?$StrTraitMFC_DLL@DV?$ChTraitsCRT@D@ATL@@@@@ATL@@XZ
_TEXT	SEGMENT
$T193329 = -8						; size = 4
_this$ = -4						; size = 4
___$ReturnUdt$ = 8					; size = 4
?GetName@PaneBase@ETSLayoutMgr@@QAE?AV?$CStringT@DV?$StrTraitMFC_DLL@DV?$ChTraitsCRT@D@ATL@@@@@ATL@@XZ PROC NEAR ; ETSLayoutMgr::PaneBase::GetName, COMDAT
; _this$ = ecx

; 306  : 		CString GetName(){return m_strName;};

  00000	55		 push	 ebp
  00001	8b ec		 mov	 ebp, esp
  00003	83 ec 08	 sub	 esp, 8
  00006	56		 push	 esi
  00007	c7 45 f8 cc cc
	cc cc		 mov	 DWORD PTR [ebp-8], -858993460 ; ccccccccH
  0000e	c7 45 fc cc cc
	cc cc		 mov	 DWORD PTR [ebp-4], -858993460 ; ccccccccH
  00015	89 4d fc	 mov	 DWORD PTR _this$[ebp], ecx
  00018	c7 45 f8 00 00
	00 00		 mov	 DWORD PTR $T193329[ebp], 0
  0001f	8b 45 fc	 mov	 eax, DWORD PTR _this$[ebp]
  00022	83 c0 20	 add	 eax, 32			; 00000020H
  00025	8b f4		 mov	 esi, esp
  00027	50		 push	 eax
  00028	8b 4d 08	 mov	 ecx, DWORD PTR ___$ReturnUdt$[ebp]
  0002b	ff 15 00 00 00
	00		 call	 DWORD PTR __imp_??0?$CStringT@DV?$StrTraitMFC_DLL@DV?$ChTraitsCRT@D@ATL@@@@@ATL@@QAE@ABV01@@Z
  00031	3b f4		 cmp	 esi, esp
  00033	e8 00 00 00 00	 call	 __RTC_CheckEsp
  00038	8b 4d f8	 mov	 ecx, DWORD PTR $T193329[ebp]
  0003b	83 c9 01	 or	 ecx, 1
  0003e	89 4d f8	 mov	 DWORD PTR $T193329[ebp], ecx
  00041	8b 45 08	 mov	 eax, DWORD PTR ___$ReturnUdt$[ebp]
  00044	5e		 pop	 esi
  00045	83 c4 08	 add	 esp, 8
  00048	3b ec		 cmp	 ebp, esp
  0004a	e8 00 00 00 00	 call	 __RTC_CheckEsp
  0004f	8b e5		 mov	 esp, ebp
  00051	5d		 pop	 ebp
  00052	c2 04 00	 ret	 4
?GetName@PaneBase@ETSLayoutMgr@@QAE?AV?$CStringT@DV?$StrTraitMFC_DLL@DV?$ChTraitsCRT@D@ATL@@@@@ATL@@XZ ENDP ; ETSLayoutMgr::PaneBase::GetName
; Function compile flags: /Odt /RTCsu
_TEXT	ENDS
;	COMDAT ?GetPaneBase@CPaneBase@ETSLayoutMgr@@QAEPAVPaneBase@2@XZ
_TEXT	SEGMENT
_this$ = -4						; size = 4
?GetPaneBase@CPaneBase@ETSLayoutMgr@@QAEPAVPaneBase@2@XZ PROC NEAR ; ETSLayoutMgr::CPaneBase::GetPaneBase, COMDAT
; _this$ = ecx

; 388  : 		PaneBase* GetPaneBase()	{ return operator->(); }

  00000	55		 push	 ebp
  00001	8b ec		 mov	 ebp, esp
  00003	51		 push	 ecx
  00004	c7 45 fc cc cc
	cc cc		 mov	 DWORD PTR [ebp-4], -858993460 ; ccccccccH
  0000b	89 4d fc	 mov	 DWORD PTR _this$[ebp], ecx
  0000e	8b 4d fc	 mov	 ecx, DWORD PTR _this$[ebp]
  00011	e8 00 00 00 00	 call	 ??CCPaneBase@ETSLayoutMgr@@QBEPAVPaneBase@1@XZ ; ETSLayoutMgr::CPaneBase::operator->
  00016	83 c4 04	 add	 esp, 4
  00019	3b ec		 cmp	 ebp, esp
  0001b	e8 00 00 00 00	 call	 __RTC_CheckEsp
  00020	8b e5		 mov	 esp, ebp
  00022	5d		 pop	 ebp
  00023	c3		 ret	 0
?GetPaneBase@CPaneBase@ETSLayoutMgr@@QAEPAVPaneBase@2@XZ ENDP ; ETSLayoutMgr::CPaneBase::GetPaneBase
; Function compile flags: /Odt /RTCsu
_TEXT	ENDS
;	COMDAT ?IsValid@CPaneBase@ETSLayoutMgr@@QAE_NXZ
_TEXT	SEGMENT
_this$ = -4						; size = 4
?IsValid@CPaneBase@ETSLayoutMgr@@QAE_NXZ PROC NEAR	; ETSLayoutMgr::CPaneBase::IsValid, COMDAT
; _this$ = ecx

; 391  : 		bool IsValid()			{ return (m_pPaneHolder != 0); }

  00000	55		 push	 ebp
  00001	8b ec		 mov	 ebp, esp
  00003	51		 push	 ecx
  00004	c7 45 fc cc cc
	cc cc		 mov	 DWORD PTR [ebp-4], -858993460 ; ccccccccH
  0000b	89 4d fc	 mov	 DWORD PTR _this$[ebp], ecx
  0000e	8b 45 fc	 mov	 eax, DWORD PTR _this$[ebp]
  00011	33 c9		 xor	 ecx, ecx
  00013	83 38 00	 cmp	 DWORD PTR [eax], 0
  00016	0f 95 c1	 setne	 cl
  00019	8a c1		 mov	 al, cl
  0001b	8b e5		 mov	 esp, ebp
  0001d	5d		 pop	 ebp
  0001e	c3		 ret	 0
?IsValid@CPaneBase@ETSLayoutMgr@@QAE_NXZ ENDP		; ETSLayoutMgr::CPaneBase::IsValid
_TEXT	ENDS
PUBLIC	?GetSubPane@PaneMulti@ETSLayoutMgr@@UAE?AVCPaneBase@2@V?$CStringT@DV?$StrTraitMFC_DLL@DV?$ChTraitsCRT@D@ATL@@@@@ATL@@@Z ; ETSLayoutMgr::PaneMulti::GetSubPane
EXTRN	??0CPaneBase@ETSLayoutMgr@@QAE@PAVPaneBase@1@@Z:NEAR ; ETSLayoutMgr::CPaneBase::CPaneBase
xdata$x	SEGMENT
$T193352 DD	0ffffffffH
	DD	FLAT:$L193340
	DD	00H
	DD	FLAT:$L193335
	DD	01H
	DD	FLAT:$L193336
	DD	02H
	DD	FLAT:$L193337
	DD	03H
	DD	FLAT:$L193338
	DD	03H
	DD	FLAT:$L193339
$T193344 DD	019930520H
	DD	06H
	DD	FLAT:$T193352
	DD	2 DUP(00H)
	DD	2 DUP(00H)
; Function compile flags: /Odt /RTCsu
; File d:\boxgit\playbox\playbox\dev\prj\playbox\src\layoutmgr\etslayoutex.cpp
xdata$x	ENDS
_TEXT	SEGMENT
tv152 = -88						; size = 4
tv83 = -84						; size = 4
tv151 = -80						; size = 4
tv72 = -76						; size = 4
$T193341 = -72						; size = 4
$T193334 = -68						; size = 4
_pSubPane$190810 = -60					; size = 4
_pane$ = -48						; size = 4
_key$ = -36						; size = 4
_pos$ = -24						; size = 4
_this$ = -16						; size = 4
__$EHRec$ = -12						; size = 12
___$ReturnUdt$ = 8					; size = 4
_name$ = 12						; size = 4
?GetSubPane@PaneMulti@ETSLayoutMgr@@UAE?AVCPaneBase@2@V?$CStringT@DV?$StrTraitMFC_DLL@DV?$ChTraitsCRT@D@ATL@@@@@ATL@@@Z PROC NEAR ; ETSLayoutMgr::PaneMulti::GetSubPane
; _this$ = ecx

; 545  : {

  02100	55		 push	 ebp
  02101	8b ec		 mov	 ebp, esp
  02103	6a ff		 push	 -1
  02105	68 00 00 00 00	 push	 __ehhandler$?GetSubPane@PaneMulti@ETSLayoutMgr@@UAE?AVCPaneBase@2@V?$CStringT@DV?$StrTraitMFC_DLL@DV?$ChTraitsCRT@D@ATL@@@@@ATL@@@Z
  0210a	64 a1 00 00 00
	00		 mov	 eax, DWORD PTR fs:__except_list
  02110	50		 push	 eax
  02111	64 89 25 00 00
	00 00		 mov	 DWORD PTR fs:__except_list, esp
  02118	83 ec 4c	 sub	 esp, 76			; 0000004cH
  0211b	56		 push	 esi
  0211c	57		 push	 edi
  0211d	51		 push	 ecx
  0211e	8d 7d a8	 lea	 edi, DWORD PTR [ebp-88]
  02121	b9 13 00 00 00	 mov	 ecx, 19			; 00000013H
  02126	b8 cc cc cc cc	 mov	 eax, -858993460		; ccccccccH
  0212b	f3 ab		 rep stosd
  0212d	59		 pop	 ecx
  0212e	89 4d f0	 mov	 DWORD PTR _this$[ebp], ecx
  02131	c7 45 b8 00 00
	00 00		 mov	 DWORD PTR $T193341[ebp], 0
  02138	c7 45 fc 01 00
	00 00		 mov	 DWORD PTR __$EHRec$[ebp+8], 1

; 546  : 	POSITION pos = m_mapLayers.GetStartPosition();

  0213f	8b 4d f0	 mov	 ecx, DWORD PTR _this$[ebp]
  02142	81 c1 8c 00 00
	00		 add	 ecx, 140		; 0000008cH
  02148	e8 00 00 00 00	 call	 ?GetStartPosition@?$CMap@V?$CStringT@DV?$StrTraitMFC_DLL@DV?$ChTraitsCRT@D@ATL@@@@@ATL@@PBDVCPaneBase@ETSLayoutMgr@@V34@@@QBEPAU__POSITION@@XZ ; CMap<ATL::CStringT<char,StrTraitMFC_DLL<char,ATL::ChTraitsCRT<char> > >,char const *,ETSLayoutMgr::CPaneBase,ETSLayoutMgr::CPaneBase>::GetStartPosition
  0214d	89 45 e8	 mov	 DWORD PTR _pos$[ebp], eax

; 547  : 	CString key;

  02150	8b f4		 mov	 esi, esp
  02152	8d 4d dc	 lea	 ecx, DWORD PTR _key$[ebp]
  02155	ff 15 00 00 00
	00		 call	 DWORD PTR __imp_??0?$CStringT@DV?$StrTraitMFC_DLL@DV?$ChTraitsCRT@D@ATL@@@@@ATL@@QAE@XZ
  0215b	3b f4		 cmp	 esi, esp
  0215d	e8 00 00 00 00	 call	 __RTC_CheckEsp
  02162	c6 45 fc 02	 mov	 BYTE PTR __$EHRec$[ebp+8], 2

; 548  : 	CPaneBase	pane;

  02166	8d 4d d0	 lea	 ecx, DWORD PTR _pane$[ebp]
  02169	e8 00 00 00 00	 call	 ??0CPaneBase@ETSLayoutMgr@@QAE@XZ ; ETSLayoutMgr::CPaneBase::CPaneBase
  0216e	c6 45 fc 03	 mov	 BYTE PTR __$EHRec$[ebp+8], 3
$L190808:

; 549  : 	while (pos != NULL)

  02172	83 7d e8 00	 cmp	 DWORD PTR _pos$[ebp], 0
  02176	0f 84 e3 00 00
	00		 je	 $L190809

; 550  : 	{
; 551  : 		m_mapLayers.GetNextAssoc( pos, key, pane );

  0217c	8d 45 d0	 lea	 eax, DWORD PTR _pane$[ebp]
  0217f	50		 push	 eax
  02180	8d 4d dc	 lea	 ecx, DWORD PTR _key$[ebp]
  02183	51		 push	 ecx
  02184	8d 55 e8	 lea	 edx, DWORD PTR _pos$[ebp]
  02187	52		 push	 edx
  02188	8b 4d f0	 mov	 ecx, DWORD PTR _this$[ebp]
  0218b	81 c1 8c 00 00
	00		 add	 ecx, 140		; 0000008cH
  02191	e8 00 00 00 00	 call	 ?GetNextAssoc@?$CMap@V?$CStringT@DV?$StrTraitMFC_DLL@DV?$ChTraitsCRT@D@ATL@@@@@ATL@@PBDVCPaneBase@ETSLayoutMgr@@V34@@@QBEXAAPAU__POSITION@@AAV?$CStringT@DV?$StrTraitMFC_DLL@DV?$ChTraitsCRT@D@ATL@@@@@ATL@@AAVCPaneBase@ETSLayoutMgr@@@Z ; CMap<ATL::CStringT<char,StrTraitMFC_DLL<char,ATL::ChTraitsCRT<char> > >,char const *,ETSLayoutMgr::CPaneBase,ETSLayoutMgr::CPaneBase>::GetNextAssoc

; 552  : 		CPaneBase pSubPane = pane->GetSubPane(name);

  02196	51		 push	 ecx
  02197	8b cc		 mov	 ecx, esp
  02199	89 65 bc	 mov	 DWORD PTR $T193334[ebp], esp
  0219c	8b f4		 mov	 esi, esp
  0219e	8d 45 0c	 lea	 eax, DWORD PTR _name$[ebp]
  021a1	50		 push	 eax
  021a2	ff 15 00 00 00
	00		 call	 DWORD PTR __imp_??0?$CStringT@DV?$StrTraitMFC_DLL@DV?$ChTraitsCRT@D@ATL@@@@@ATL@@QAE@ABV01@@Z
  021a8	3b f4		 cmp	 esi, esp
  021aa	e8 00 00 00 00	 call	 __RTC_CheckEsp
  021af	89 45 b4	 mov	 DWORD PTR tv72[ebp], eax
  021b2	8b 4d b4	 mov	 ecx, DWORD PTR tv72[ebp]
  021b5	89 4d b0	 mov	 DWORD PTR tv151[ebp], ecx
  021b8	c6 45 fc 04	 mov	 BYTE PTR __$EHRec$[ebp+8], 4
  021bc	8d 4d d0	 lea	 ecx, DWORD PTR _pane$[ebp]
  021bf	e8 00 00 00 00	 call	 ??CCPaneBase@ETSLayoutMgr@@QBEPAVPaneBase@1@XZ ; ETSLayoutMgr::CPaneBase::operator->
  021c4	89 45 ac	 mov	 DWORD PTR tv83[ebp], eax
  021c7	8d 55 c4	 lea	 edx, DWORD PTR _pSubPane$190810[ebp]
  021ca	52		 push	 edx
  021cb	8b 45 ac	 mov	 eax, DWORD PTR tv83[ebp]
  021ce	8b 10		 mov	 edx, DWORD PTR [eax]
  021d0	c6 45 fc 03	 mov	 BYTE PTR __$EHRec$[ebp+8], 3
  021d4	8b 4d ac	 mov	 ecx, DWORD PTR tv83[ebp]
  021d7	ff 52 1c	 call	 DWORD PTR [edx+28]
  021da	89 45 a8	 mov	 DWORD PTR tv152[ebp], eax
  021dd	c6 45 fc 05	 mov	 BYTE PTR __$EHRec$[ebp+8], 5

; 553  : 		if(pSubPane.IsValid())

  021e1	8d 4d c4	 lea	 ecx, DWORD PTR _pSubPane$190810[ebp]
  021e4	e8 00 00 00 00	 call	 ?IsValid@CPaneBase@ETSLayoutMgr@@QAE_NXZ ; ETSLayoutMgr::CPaneBase::IsValid
  021e9	0f b6 c0	 movzx	 eax, al
  021ec	85 c0		 test	 eax, eax
  021ee	74 5e		 je	 SHORT $L190813

; 554  : 			return pSubPane;

  021f0	8d 4d c4	 lea	 ecx, DWORD PTR _pSubPane$190810[ebp]
  021f3	51		 push	 ecx
  021f4	8b 4d 08	 mov	 ecx, DWORD PTR ___$ReturnUdt$[ebp]
  021f7	e8 00 00 00 00	 call	 ??0CPaneBase@ETSLayoutMgr@@QAE@ABV01@@Z ; ETSLayoutMgr::CPaneBase::CPaneBase
  021fc	8b 55 b8	 mov	 edx, DWORD PTR $T193341[ebp]
  021ff	83 ca 01	 or	 edx, 1
  02202	89 55 b8	 mov	 DWORD PTR $T193341[ebp], edx
  02205	c6 45 fc 03	 mov	 BYTE PTR __$EHRec$[ebp+8], 3
  02209	8d 4d c4	 lea	 ecx, DWORD PTR _pSubPane$190810[ebp]
  0220c	e8 00 00 00 00	 call	 ??1CPaneBase@ETSLayoutMgr@@QAE@XZ ; ETSLayoutMgr::CPaneBase::~CPaneBase
  02211	c6 45 fc 02	 mov	 BYTE PTR __$EHRec$[ebp+8], 2
  02215	8d 4d d0	 lea	 ecx, DWORD PTR _pane$[ebp]
  02218	e8 00 00 00 00	 call	 ??1CPaneBase@ETSLayoutMgr@@QAE@XZ ; ETSLayoutMgr::CPaneBase::~CPaneBase
  0221d	c6 45 fc 01	 mov	 BYTE PTR __$EHRec$[ebp+8], 1
  02221	8b f4		 mov	 esi, esp
  02223	8d 4d dc	 lea	 ecx, DWORD PTR _key$[ebp]
  02226	ff 15 00 00 00
	00		 call	 DWORD PTR __imp_??1?$CStringT@DV?$StrTraitMFC_DLL@DV?$ChTraitsCRT@D@ATL@@@@@ATL@@QAE@XZ
  0222c	3b f4		 cmp	 esi, esp
  0222e	e8 00 00 00 00	 call	 __RTC_CheckEsp
  02233	c6 45 fc 00	 mov	 BYTE PTR __$EHRec$[ebp+8], 0
  02237	8b f4		 mov	 esi, esp
  02239	8d 4d 0c	 lea	 ecx, DWORD PTR _name$[ebp]
  0223c	ff 15 00 00 00
	00		 call	 DWORD PTR __imp_??1?$CStringT@DV?$StrTraitMFC_DLL@DV?$ChTraitsCRT@D@ATL@@@@@ATL@@QAE@XZ
  02242	3b f4		 cmp	 esi, esp
  02244	e8 00 00 00 00	 call	 __RTC_CheckEsp
  02249	8b 45 08	 mov	 eax, DWORD PTR ___$ReturnUdt$[ebp]
  0224c	eb 5f		 jmp	 SHORT $L190803
$L190813:

; 555  : 	}

  0224e	c6 45 fc 03	 mov	 BYTE PTR __$EHRec$[ebp+8], 3
  02252	8d 4d c4	 lea	 ecx, DWORD PTR _pSubPane$190810[ebp]
  02255	e8 00 00 00 00	 call	 ??1CPaneBase@ETSLayoutMgr@@QAE@XZ ; ETSLayoutMgr::CPaneBase::~CPaneBase
  0225a	e9 13 ff ff ff	 jmp	 $L190808
$L190809:

; 556  : 	return NULL;

  0225f	6a 00		 push	 0
  02261	8b 4d 08	 mov	 ecx, DWORD PTR ___$ReturnUdt$[ebp]
  02264	e8 00 00 00 00	 call	 ??0CPaneBase@ETSLayoutMgr@@QAE@PAVPaneBase@1@@Z ; ETSLayoutMgr::CPaneBase::CPaneBase
  02269	8b 45 b8	 mov	 eax, DWORD PTR $T193341[ebp]
  0226c	83 c8 01	 or	 eax, 1
  0226f	89 45 b8	 mov	 DWORD PTR $T193341[ebp], eax
  02272	c6 45 fc 02	 mov	 BYTE PTR __$EHRec$[ebp+8], 2
  02276	8d 4d d0	 lea	 ecx, DWORD PTR _pane$[ebp]
  02279	e8 00 00 00 00	 call	 ??1CPaneBase@ETSLayoutMgr@@QAE@XZ ; ETSLayoutMgr::CPaneBase::~CPaneBase
  0227e	c6 45 fc 01	 mov	 BYTE PTR __$EHRec$[ebp+8], 1
  02282	8b f4		 mov	 esi, esp
  02284	8d 4d dc	 lea	 ecx, DWORD PTR _key$[ebp]
  02287	ff 15 00 00 00
	00		 call	 DWORD PTR __imp_??1?$CStringT@DV?$StrTraitMFC_DLL@DV?$ChTraitsCRT@D@ATL@@@@@ATL@@QAE@XZ
  0228d	3b f4		 cmp	 esi, esp
  0228f	e8 00 00 00 00	 call	 __RTC_CheckEsp
  02294	c6 45 fc 00	 mov	 BYTE PTR __$EHRec$[ebp+8], 0
  02298	8b f4		 mov	 esi, esp
  0229a	8d 4d 0c	 lea	 ecx, DWORD PTR _name$[ebp]
  0229d	ff 15 00 00 00
	00		 call	 DWORD PTR __imp_??1?$CStringT@DV?$StrTraitMFC_DLL@DV?$ChTraitsCRT@D@ATL@@@@@ATL@@QAE@XZ
  022a3	3b f4		 cmp	 esi, esp
  022a5	e8 00 00 00 00	 call	 __RTC_CheckEsp
  022aa	8b 45 08	 mov	 eax, DWORD PTR ___$ReturnUdt$[ebp]
$L190803:

; 557  : }

  022ad	52		 push	 edx
  022ae	8b cd		 mov	 ecx, ebp
  022b0	50		 push	 eax
  022b1	8d 15 00 00 00
	00		 lea	 edx, DWORD PTR $L193351
  022b7	e8 00 00 00 00	 call	 @_RTC_CheckStackVars@8
  022bc	58		 pop	 eax
  022bd	5a		 pop	 edx
  022be	8b 4d f4	 mov	 ecx, DWORD PTR __$EHRec$[ebp]
  022c1	64 89 0d 00 00
	00 00		 mov	 DWORD PTR fs:__except_list, ecx
  022c8	5f		 pop	 edi
  022c9	5e		 pop	 esi
  022ca	83 c4 58	 add	 esp, 88			; 00000058H
  022cd	3b ec		 cmp	 ebp, esp
  022cf	e8 00 00 00 00	 call	 __RTC_CheckEsp
  022d4	8b e5		 mov	 esp, ebp
  022d6	5d		 pop	 ebp
  022d7	c2 08 00	 ret	 8
$L193351:
  022da	04 00 00 00	 DD	 4
  022de	00 00 00 00	 DD	 $L193350
$L193350:
  022e2	e8 ff ff ff	 DD	 -24			; ffffffe8H
  022e6	04 00 00 00	 DD	 4
  022ea	00 00 00 00	 DD	 $L193345
  022ee	dc ff ff ff	 DD	 -36			; ffffffdcH
  022f2	04 00 00 00	 DD	 4
  022f6	00 00 00 00	 DD	 $L193346
  022fa	d0 ff ff ff	 DD	 -48			; ffffffd0H
  022fe	04 00 00 00	 DD	 4
  02302	00 00 00 00	 DD	 $L193347
  02306	c4 ff ff ff	 DD	 -60			; ffffffc4H
  0230a	04 00 00 00	 DD	 4
  0230e	00 00 00 00	 DD	 $L193348
$L193348:
  02312	70		 DB	 112			; 00000070H
  02313	53		 DB	 83			; 00000053H
  02314	75		 DB	 117			; 00000075H
  02315	62		 DB	 98			; 00000062H
  02316	50		 DB	 80			; 00000050H
  02317	61		 DB	 97			; 00000061H
  02318	6e		 DB	 110			; 0000006eH
  02319	65		 DB	 101			; 00000065H
  0231a	00		 DB	 0
$L193347:
  0231b	70		 DB	 112			; 00000070H
  0231c	61		 DB	 97			; 00000061H
  0231d	6e		 DB	 110			; 0000006eH
  0231e	65		 DB	 101			; 00000065H
  0231f	00		 DB	 0
$L193346:
  02320	6b		 DB	 107			; 0000006bH
  02321	65		 DB	 101			; 00000065H
  02322	79		 DB	 121			; 00000079H
  02323	00		 DB	 0
$L193345:
  02324	70		 DB	 112			; 00000070H
  02325	6f		 DB	 111			; 0000006fH
  02326	73		 DB	 115			; 00000073H
  02327	00		 DB	 0
_TEXT	ENDS
text$x	SEGMENT
$L193335:
  001a0	8b f4		 mov	 esi, esp
  001a2	8d 4d 0c	 lea	 ecx, DWORD PTR _name$[ebp]
  001a5	ff 15 00 00 00
	00		 call	 DWORD PTR __imp_??1?$CStringT@DV?$StrTraitMFC_DLL@DV?$ChTraitsCRT@D@ATL@@@@@ATL@@QAE@XZ
  001ab	3b f4		 cmp	 esi, esp
  001ad	e9 00 00 00 00	 jmp	 __RTC_CheckEsp
$L193336:
  001b2	8b f4		 mov	 esi, esp
  001b4	8d 4d dc	 lea	 ecx, DWORD PTR _key$[ebp]
  001b7	ff 15 00 00 00
	00		 call	 DWORD PTR __imp_??1?$CStringT@DV?$StrTraitMFC_DLL@DV?$ChTraitsCRT@D@ATL@@@@@ATL@@QAE@XZ
  001bd	3b f4		 cmp	 esi, esp
  001bf	e9 00 00 00 00	 jmp	 __RTC_CheckEsp
$L193337:
  001c4	8d 4d d0	 lea	 ecx, DWORD PTR _pane$[ebp]
  001c7	e9 00 00 00 00	 jmp	 ??1CPaneBase@ETSLayoutMgr@@QAE@XZ ; ETSLayoutMgr::CPaneBase::~CPaneBase
$L193338:
  001cc	8b f4		 mov	 esi, esp
  001ce	8b 4d bc	 mov	 ecx, DWORD PTR $T193334[ebp]
  001d1	ff 15 00 00 00
	00		 call	 DWORD PTR __imp_??1?$CStringT@DV?$StrTraitMFC_DLL@DV?$ChTraitsCRT@D@ATL@@@@@ATL@@QAE@XZ
  001d7	3b f4		 cmp	 esi, esp
  001d9	e9 00 00 00 00	 jmp	 __RTC_CheckEsp
$L193339:
  001de	8d 4d c4	 lea	 ecx, DWORD PTR _pSubPane$190810[ebp]
  001e1	e9 00 00 00 00	 jmp	 ??1CPaneBase@ETSLayoutMgr@@QAE@XZ ; ETSLayoutMgr::CPaneBase::~CPaneBase
$L193340:
  001e6	8b 45 b8	 mov	 eax, DWORD PTR $T193341[ebp]
  001e9	83 e0 01	 and	 eax, 1
  001ec	0f 84 0c 00 00
	00		 je	 $L193342
  001f2	83 65 b8 fe	 and	 DWORD PTR $T193341[ebp], -2 ; fffffffeH
  001f6	8b 4d 08	 mov	 ecx, DWORD PTR ___$ReturnUdt$[ebp]
  001f9	e9 00 00 00 00	 jmp	 ??1CPaneBase@ETSLayoutMgr@@QAE@XZ ; ETSLayoutMgr::CPaneBase::~CPaneBase
$L193342:
  001fe	c3		 ret	 0
__ehhandler$?GetSubPane@PaneMulti@ETSLayoutMgr@@UAE?AVCPaneBase@2@V?$CStringT@DV?$StrTraitMFC_DLL@DV?$ChTraitsCRT@D@ATL@@@@@ATL@@@Z:
  001ff	b8 00 00 00 00	 mov	 eax, OFFSET FLAT:$T193344
  00204	e9 00 00 00 00	 jmp	 ___CxxFrameHandler
text$x	ENDS
?GetSubPane@PaneMulti@ETSLayoutMgr@@UAE?AVCPaneBase@2@V?$CStringT@DV?$StrTraitMFC_DLL@DV?$ChTraitsCRT@D@ATL@@@@@ATL@@@Z ENDP ; ETSLayoutMgr::PaneMulti::GetSubPane
PUBLIC	?addLayer@PaneMulti@ETSLayoutMgr@@UAEXV?$CStringT@DV?$StrTraitMFC_DLL@DV?$ChTraitsCRT@D@ATL@@@@@ATL@@VCPaneBase@2@@Z ; ETSLayoutMgr::PaneMulti::addLayer
PUBLIC	?SetAt@?$CMap@V?$CStringT@DV?$StrTraitMFC_DLL@DV?$ChTraitsCRT@D@ATL@@@@@ATL@@PBDVCPaneBase@ETSLayoutMgr@@V34@@@QAEXPBDVCPaneBase@ETSLayoutMgr@@@Z ; CMap<ATL::CStringT<char,StrTraitMFC_DLL<char,ATL::ChTraitsCRT<char> > >,char const *,ETSLayoutMgr::CPaneBase,ETSLayoutMgr::CPaneBase>::SetAt
EXTRN	__imp_??B?$CSimpleStringT@D$00@ATL@@QBEPBDXZ:NEAR
xdata$x	SEGMENT
$T193361 DD	0ffffffffH
	DD	FLAT:$L193355
	DD	00H
	DD	FLAT:$L193356
$T193359 DD	019930520H
	DD	02H
	DD	FLAT:$T193361
	DD	2 DUP(00H)
	DD	2 DUP(00H)
; Function compile flags: /Odt /RTCsu
xdata$x	ENDS
_TEXT	SEGMENT
tv95 = -28						; size = 4
tv69 = -24						; size = 4
$T193354 = -20						; size = 4
_this$ = -16						; size = 4
__$EHRec$ = -12						; size = 12
_name$ = 8						; size = 4
_pane$ = 12						; size = 4
?addLayer@PaneMulti@ETSLayoutMgr@@UAEXV?$CStringT@DV?$StrTraitMFC_DLL@DV?$ChTraitsCRT@D@ATL@@@@@ATL@@VCPaneBase@2@@Z PROC NEAR ; ETSLayoutMgr::PaneMulti::addLayer
; _this$ = ecx

; 561  : {

  02330	55		 push	 ebp
  02331	8b ec		 mov	 ebp, esp
  02333	6a ff		 push	 -1
  02335	68 00 00 00 00	 push	 __ehhandler$?addLayer@PaneMulti@ETSLayoutMgr@@UAEXV?$CStringT@DV?$StrTraitMFC_DLL@DV?$ChTraitsCRT@D@ATL@@@@@ATL@@VCPaneBase@2@@Z
  0233a	64 a1 00 00 00
	00		 mov	 eax, DWORD PTR fs:__except_list
  02340	50		 push	 eax
  02341	64 89 25 00 00
	00 00		 mov	 DWORD PTR fs:__except_list, esp
  02348	83 ec 10	 sub	 esp, 16			; 00000010H
  0234b	56		 push	 esi
  0234c	b8 cc cc cc cc	 mov	 eax, -858993460		; ccccccccH
  02351	89 45 e4	 mov	 DWORD PTR [ebp-28], eax
  02354	89 45 e8	 mov	 DWORD PTR [ebp-24], eax
  02357	89 45 ec	 mov	 DWORD PTR [ebp-20], eax
  0235a	89 45 f0	 mov	 DWORD PTR [ebp-16], eax
  0235d	89 4d f0	 mov	 DWORD PTR _this$[ebp], ecx
  02360	c7 45 fc 01 00
	00 00		 mov	 DWORD PTR __$EHRec$[ebp+8], 1

; 562  : 	pane->showPane(false);

  02367	8d 4d 0c	 lea	 ecx, DWORD PTR _pane$[ebp]
  0236a	e8 00 00 00 00	 call	 ??CCPaneBase@ETSLayoutMgr@@QBEPAVPaneBase@1@XZ ; ETSLayoutMgr::CPaneBase::operator->
  0236f	89 45 e8	 mov	 DWORD PTR tv69[ebp], eax
  02372	8b f4		 mov	 esi, esp
  02374	6a 00		 push	 0
  02376	8b 45 e8	 mov	 eax, DWORD PTR tv69[ebp]
  02379	8b 10		 mov	 edx, DWORD PTR [eax]
  0237b	8b 4d e8	 mov	 ecx, DWORD PTR tv69[ebp]
  0237e	ff 52 24	 call	 DWORD PTR [edx+36]
  02381	3b f4		 cmp	 esi, esp
  02383	e8 00 00 00 00	 call	 __RTC_CheckEsp

; 563  : 	m_mapLayers.SetAt(name, pane);

  02388	51		 push	 ecx
  02389	8b cc		 mov	 ecx, esp
  0238b	89 65 ec	 mov	 DWORD PTR $T193354[ebp], esp
  0238e	8d 45 0c	 lea	 eax, DWORD PTR _pane$[ebp]
  02391	50		 push	 eax
  02392	e8 00 00 00 00	 call	 ??0CPaneBase@ETSLayoutMgr@@QAE@ABV01@@Z ; ETSLayoutMgr::CPaneBase::CPaneBase
  02397	89 45 e4	 mov	 DWORD PTR tv95[ebp], eax
  0239a	8b f4		 mov	 esi, esp
  0239c	8d 4d 08	 lea	 ecx, DWORD PTR _name$[ebp]
  0239f	ff 15 00 00 00
	00		 call	 DWORD PTR __imp_??B?$CSimpleStringT@D$00@ATL@@QBEPBDXZ
  023a5	3b f4		 cmp	 esi, esp
  023a7	e8 00 00 00 00	 call	 __RTC_CheckEsp
  023ac	50		 push	 eax
  023ad	8b 4d f0	 mov	 ecx, DWORD PTR _this$[ebp]
  023b0	81 c1 8c 00 00
	00		 add	 ecx, 140		; 0000008cH
  023b6	e8 00 00 00 00	 call	 ?SetAt@?$CMap@V?$CStringT@DV?$StrTraitMFC_DLL@DV?$ChTraitsCRT@D@ATL@@@@@ATL@@PBDVCPaneBase@ETSLayoutMgr@@V34@@@QAEXPBDVCPaneBase@ETSLayoutMgr@@@Z ; CMap<ATL::CStringT<char,StrTraitMFC_DLL<char,ATL::ChTraitsCRT<char> > >,char const *,ETSLayoutMgr::CPaneBase,ETSLayoutMgr::CPaneBase>::SetAt

; 564  : }

  023bb	c6 45 fc 00	 mov	 BYTE PTR __$EHRec$[ebp+8], 0
  023bf	8b f4		 mov	 esi, esp
  023c1	8d 4d 08	 lea	 ecx, DWORD PTR _name$[ebp]
  023c4	ff 15 00 00 00
	00		 call	 DWORD PTR __imp_??1?$CStringT@DV?$StrTraitMFC_DLL@DV?$ChTraitsCRT@D@ATL@@@@@ATL@@QAE@XZ
  023ca	3b f4		 cmp	 esi, esp
  023cc	e8 00 00 00 00	 call	 __RTC_CheckEsp
  023d1	c7 45 fc ff ff
	ff ff		 mov	 DWORD PTR __$EHRec$[ebp+8], -1
  023d8	8d 4d 0c	 lea	 ecx, DWORD PTR _pane$[ebp]
  023db	e8 00 00 00 00	 call	 ??1CPaneBase@ETSLayoutMgr@@QAE@XZ ; ETSLayoutMgr::CPaneBase::~CPaneBase
  023e0	8b 4d f4	 mov	 ecx, DWORD PTR __$EHRec$[ebp]
  023e3	64 89 0d 00 00
	00 00		 mov	 DWORD PTR fs:__except_list, ecx
  023ea	5e		 pop	 esi
  023eb	83 c4 1c	 add	 esp, 28			; 0000001cH
  023ee	3b ec		 cmp	 ebp, esp
  023f0	e8 00 00 00 00	 call	 __RTC_CheckEsp
  023f5	8b e5		 mov	 esp, ebp
  023f7	5d		 pop	 ebp
  023f8	c2 08 00	 ret	 8
_TEXT	ENDS
text$x	SEGMENT
$L193355:
  00209	8d 4d 0c	 lea	 ecx, DWORD PTR _pane$[ebp]
  0020c	e9 00 00 00 00	 jmp	 ??1CPaneBase@ETSLayoutMgr@@QAE@XZ ; ETSLayoutMgr::CPaneBase::~CPaneBase
$L193356:
  00211	8b f4		 mov	 esi, esp
  00213	8d 4d 08	 lea	 ecx, DWORD PTR _name$[ebp]
  00216	ff 15 00 00 00
	00		 call	 DWORD PTR __imp_??1?$CStringT@DV?$StrTraitMFC_DLL@DV?$ChTraitsCRT@D@ATL@@@@@ATL@@QAE@XZ
  0021c	3b f4		 cmp	 esi, esp
  0021e	e9 00 00 00 00	 jmp	 __RTC_CheckEsp
__ehhandler$?addLayer@PaneMulti@ETSLayoutMgr@@UAEXV?$CStringT@DV?$StrTraitMFC_DLL@DV?$ChTraitsCRT@D@ATL@@@@@ATL@@VCPaneBase@2@@Z:
  00223	b8 00 00 00 00	 mov	 eax, OFFSET FLAT:$T193359
  00228	e9 00 00 00 00	 jmp	 ___CxxFrameHandler
text$x	ENDS
?addLayer@PaneMulti@ETSLayoutMgr@@UAEXV?$CStringT@DV?$StrTraitMFC_DLL@DV?$ChTraitsCRT@D@ATL@@@@@ATL@@VCPaneBase@2@@Z ENDP ; ETSLayoutMgr::PaneMulti::addLayer
PUBLIC	?getCurrent@PaneMulti@ETSLayoutMgr@@QAE?AV?$CStringT@DV?$StrTraitMFC_DLL@DV?$ChTraitsCRT@D@ATL@@@@@ATL@@XZ ; ETSLayoutMgr::PaneMulti::getCurrent
; Function compile flags: /Odt /RTCsu
_TEXT	SEGMENT
$T193364 = -8						; size = 4
_this$ = -4						; size = 4
___$ReturnUdt$ = 8					; size = 4
?getCurrent@PaneMulti@ETSLayoutMgr@@QAE?AV?$CStringT@DV?$StrTraitMFC_DLL@DV?$ChTraitsCRT@D@ATL@@@@@ATL@@XZ PROC NEAR ; ETSLayoutMgr::PaneMulti::getCurrent
; _this$ = ecx

; 567  : {

  02400	55		 push	 ebp
  02401	8b ec		 mov	 ebp, esp
  02403	83 ec 08	 sub	 esp, 8
  02406	56		 push	 esi
  02407	c7 45 f8 cc cc
	cc cc		 mov	 DWORD PTR [ebp-8], -858993460 ; ccccccccH
  0240e	c7 45 fc cc cc
	cc cc		 mov	 DWORD PTR [ebp-4], -858993460 ; ccccccccH
  02415	89 4d fc	 mov	 DWORD PTR _this$[ebp], ecx
  02418	c7 45 f8 00 00
	00 00		 mov	 DWORD PTR $T193364[ebp], 0

; 568  : 	return this->m_strCurrent;

  0241f	8b 45 fc	 mov	 eax, DWORD PTR _this$[ebp]
  02422	05 84 00 00 00	 add	 eax, 132		; 00000084H
  02427	8b f4		 mov	 esi, esp
  02429	50		 push	 eax
  0242a	8b 4d 08	 mov	 ecx, DWORD PTR ___$ReturnUdt$[ebp]
  0242d	ff 15 00 00 00
	00		 call	 DWORD PTR __imp_??0?$CStringT@DV?$StrTraitMFC_DLL@DV?$ChTraitsCRT@D@ATL@@@@@ATL@@QAE@ABV01@@Z
  02433	3b f4		 cmp	 esi, esp
  02435	e8 00 00 00 00	 call	 __RTC_CheckEsp
  0243a	8b 4d f8	 mov	 ecx, DWORD PTR $T193364[ebp]
  0243d	83 c9 01	 or	 ecx, 1
  02440	89 4d f8	 mov	 DWORD PTR $T193364[ebp], ecx
  02443	8b 45 08	 mov	 eax, DWORD PTR ___$ReturnUdt$[ebp]

; 569  : }

  02446	5e		 pop	 esi
  02447	83 c4 08	 add	 esp, 8
  0244a	3b ec		 cmp	 ebp, esp
  0244c	e8 00 00 00 00	 call	 __RTC_CheckEsp
  02451	8b e5		 mov	 esp, ebp
  02453	5d		 pop	 ebp
  02454	c2 04 00	 ret	 4
?getCurrent@PaneMulti@ETSLayoutMgr@@QAE?AV?$CStringT@DV?$StrTraitMFC_DLL@DV?$ChTraitsCRT@D@ATL@@@@@ATL@@XZ ENDP ; ETSLayoutMgr::PaneMulti::getCurrent
_TEXT	ENDS
PUBLIC	?RemoveAll@?$CArray@VCPaneBase@ETSLayoutMgr@@V12@@@QAEXXZ ; CArray<ETSLayoutMgr::CPaneBase,ETSLayoutMgr::CPaneBase>::RemoveAll
PUBLIC	?Lookup@?$CMap@V?$CStringT@DV?$StrTraitMFC_DLL@DV?$ChTraitsCRT@D@ATL@@@@@ATL@@PBDVCPaneBase@ETSLayoutMgr@@V34@@@QBEHPBDAAVCPaneBase@ETSLayoutMgr@@@Z ; CMap<ATL::CStringT<char,StrTraitMFC_DLL<char,ATL::ChTraitsCRT<char> > >,char const *,ETSLayoutMgr::CPaneBase,ETSLayoutMgr::CPaneBase>::Lookup
PUBLIC	?setCurrent@PaneMulti@ETSLayoutMgr@@QAE_NV?$CStringT@DV?$StrTraitMFC_DLL@DV?$ChTraitsCRT@D@ATL@@@@@ATL@@_N@Z ; ETSLayoutMgr::PaneMulti::setCurrent
EXTRN	?AfxGetUIManager@@YAPAVIUIManager@@XZ:NEAR	; AfxGetUIManager
EXTRN	__imp_??4?$CStringT@DV?$StrTraitMFC_DLL@DV?$ChTraitsCRT@D@ATL@@@@@ATL@@QAEAAV01@ABV01@@Z:NEAR
xdata$x	SEGMENT
$T193383 DD	0ffffffffH
	DD	FLAT:$L193371
	DD	00H
	DD	FLAT:$L193372
	DD	00H
	DD	FLAT:$L193373
$T193376 DD	019930520H
	DD	03H
	DD	FLAT:$T193383
	DD	2 DUP(00H)
	DD	2 DUP(00H)
; Function compile flags: /Odt /RTCsu
xdata$x	ENDS
_TEXT	SEGMENT
tv225 = -128						; size = 4
tv244 = -124						; size = 4
tv180 = -120						; size = 4
tv175 = -116						; size = 4
tv242 = -112						; size = 4
tv249 = -108						; size = 4
tv165 = -104						; size = 4
tv153 = -100						; size = 4
$T193370 = -93						; size = 1
$T193369 = -92						; size = 4
$T193368 = -88						; size = 4
$T193367 = -84						; size = 16
_pWnd$190838 = -68					; size = 4
_key$190835 = -60					; size = 4
_pos$190834 = -48					; size = 4
_rect$ = -36						; size = 16
_this$ = -16						; size = 4
__$EHRec$ = -12						; size = 12
_name$ = 8						; size = 4
_bRedraw$ = 12						; size = 1
?setCurrent@PaneMulti@ETSLayoutMgr@@QAE_NV?$CStringT@DV?$StrTraitMFC_DLL@DV?$ChTraitsCRT@D@ATL@@@@@ATL@@_N@Z PROC NEAR ; ETSLayoutMgr::PaneMulti::setCurrent
; _this$ = ecx

; 571  : {

  02460	55		 push	 ebp
  02461	8b ec		 mov	 ebp, esp
  02463	6a ff		 push	 -1
  02465	68 00 00 00 00	 push	 __ehhandler$?setCurrent@PaneMulti@ETSLayoutMgr@@QAE_NV?$CStringT@DV?$StrTraitMFC_DLL@DV?$ChTraitsCRT@D@ATL@@@@@ATL@@_N@Z
  0246a	64 a1 00 00 00
	00		 mov	 eax, DWORD PTR fs:__except_list
  02470	50		 push	 eax
  02471	64 89 25 00 00
	00 00		 mov	 DWORD PTR fs:__except_list, esp
  02478	83 ec 74	 sub	 esp, 116		; 00000074H
  0247b	56		 push	 esi
  0247c	57		 push	 edi
  0247d	51		 push	 ecx
  0247e	8d 7d 80	 lea	 edi, DWORD PTR [ebp-128]
  02481	b9 1d 00 00 00	 mov	 ecx, 29			; 0000001dH
  02486	b8 cc cc cc cc	 mov	 eax, -858993460		; ccccccccH
  0248b	f3 ab		 rep stosd
  0248d	59		 pop	 ecx
  0248e	89 4d f0	 mov	 DWORD PTR _this$[ebp], ecx
  02491	c7 45 fc 00 00
	00 00		 mov	 DWORD PTR __$EHRec$[ebp+8], 0

; 572  : 
; 573  : 	CRect rect = CRect(0,0,-1,-1);

  02498	6a ff		 push	 -1
  0249a	6a ff		 push	 -1
  0249c	6a 00		 push	 0
  0249e	6a 00		 push	 0
  024a0	8d 4d dc	 lea	 ecx, DWORD PTR _rect$[ebp]
  024a3	e8 00 00 00 00	 call	 ??0CRect@@QAE@HHHH@Z	; CRect::CRect

; 574  : 	showPane(false);

  024a8	8b f4		 mov	 esi, esp
  024aa	6a 00		 push	 0
  024ac	8b 45 f0	 mov	 eax, DWORD PTR _this$[ebp]
  024af	8b 10		 mov	 edx, DWORD PTR [eax]
  024b1	8b 4d f0	 mov	 ecx, DWORD PTR _this$[ebp]
  024b4	ff 52 24	 call	 DWORD PTR [edx+36]
  024b7	3b f4		 cmp	 esi, esp
  024b9	e8 00 00 00 00	 call	 __RTC_CheckEsp

; 575  : 
; 576  : 	if(m_paneCurrent.IsValid())

  024be	8b 4d f0	 mov	 ecx, DWORD PTR _this$[ebp]
  024c1	81 c1 88 00 00
	00		 add	 ecx, 136		; 00000088H
  024c7	e8 00 00 00 00	 call	 ?IsValid@CPaneBase@ETSLayoutMgr@@QAE_NXZ ; ETSLayoutMgr::CPaneBase::IsValid
  024cc	0f b6 c0	 movzx	 eax, al
  024cf	85 c0		 test	 eax, eax
  024d1	74 30		 je	 SHORT $L190831

; 577  : 	{
; 578  : 		rect = m_paneCurrent.GetPaneBase()->getPaneRect();

  024d3	8d 4d ac	 lea	 ecx, DWORD PTR $T193367[ebp]
  024d6	51		 push	 ecx
  024d7	8b 4d f0	 mov	 ecx, DWORD PTR _this$[ebp]
  024da	81 c1 88 00 00
	00		 add	 ecx, 136		; 00000088H
  024e0	e8 00 00 00 00	 call	 ?GetPaneBase@CPaneBase@ETSLayoutMgr@@QAEPAVPaneBase@2@XZ ; ETSLayoutMgr::CPaneBase::GetPaneBase
  024e5	8b c8		 mov	 ecx, eax
  024e7	e8 00 00 00 00	 call	 ?getPaneRect@PaneBase@ETSLayoutMgr@@QAE?AVCRect@@XZ ; ETSLayoutMgr::PaneBase::getPaneRect
  024ec	8b 10		 mov	 edx, DWORD PTR [eax]
  024ee	89 55 dc	 mov	 DWORD PTR _rect$[ebp], edx
  024f1	8b 48 04	 mov	 ecx, DWORD PTR [eax+4]
  024f4	89 4d e0	 mov	 DWORD PTR _rect$[ebp+4], ecx
  024f7	8b 50 08	 mov	 edx, DWORD PTR [eax+8]
  024fa	89 55 e4	 mov	 DWORD PTR _rect$[ebp+8], edx
  024fd	8b 40 0c	 mov	 eax, DWORD PTR [eax+12]
  02500	89 45 e8	 mov	 DWORD PTR _rect$[ebp+12], eax
$L190831:

; 579  : 	}
; 580  : 
; 581  : 	if(!m_mapLayers.Lookup(name, m_paneCurrent))

  02503	8b 4d f0	 mov	 ecx, DWORD PTR _this$[ebp]
  02506	81 c1 88 00 00
	00		 add	 ecx, 136		; 00000088H
  0250c	51		 push	 ecx
  0250d	8b f4		 mov	 esi, esp
  0250f	8d 4d 08	 lea	 ecx, DWORD PTR _name$[ebp]
  02512	ff 15 00 00 00
	00		 call	 DWORD PTR __imp_??B?$CSimpleStringT@D$00@ATL@@QBEPBDXZ
  02518	3b f4		 cmp	 esi, esp
  0251a	e8 00 00 00 00	 call	 __RTC_CheckEsp
  0251f	50		 push	 eax
  02520	8b 4d f0	 mov	 ecx, DWORD PTR _this$[ebp]
  02523	81 c1 8c 00 00
	00		 add	 ecx, 140		; 0000008cH
  02529	e8 00 00 00 00	 call	 ?Lookup@?$CMap@V?$CStringT@DV?$StrTraitMFC_DLL@DV?$ChTraitsCRT@D@ATL@@@@@ATL@@PBDVCPaneBase@ETSLayoutMgr@@V34@@@QBEHPBDAAVCPaneBase@ETSLayoutMgr@@@Z ; CMap<ATL::CStringT<char,StrTraitMFC_DLL<char,ATL::ChTraitsCRT<char> > >,char const *,ETSLayoutMgr::CPaneBase,ETSLayoutMgr::CPaneBase>::Lookup
  0252e	85 c0		 test	 eax, eax
  02530	75 63		 jne	 SHORT $L190833

; 582  : 	{
; 583  : 		//currentlayer
; 584  : 		POSITION pos = m_mapLayers.GetStartPosition();

  02532	8b 4d f0	 mov	 ecx, DWORD PTR _this$[ebp]
  02535	81 c1 8c 00 00
	00		 add	 ecx, 140		; 0000008cH
  0253b	e8 00 00 00 00	 call	 ?GetStartPosition@?$CMap@V?$CStringT@DV?$StrTraitMFC_DLL@DV?$ChTraitsCRT@D@ATL@@@@@ATL@@PBDVCPaneBase@ETSLayoutMgr@@V34@@@QBEPAU__POSITION@@XZ ; CMap<ATL::CStringT<char,StrTraitMFC_DLL<char,ATL::ChTraitsCRT<char> > >,char const *,ETSLayoutMgr::CPaneBase,ETSLayoutMgr::CPaneBase>::GetStartPosition
  02540	89 45 d0	 mov	 DWORD PTR _pos$190834[ebp], eax

; 585  : 		CString key;

  02543	8b f4		 mov	 esi, esp
  02545	8d 4d c4	 lea	 ecx, DWORD PTR _key$190835[ebp]
  02548	ff 15 00 00 00
	00		 call	 DWORD PTR __imp_??0?$CStringT@DV?$StrTraitMFC_DLL@DV?$ChTraitsCRT@D@ATL@@@@@ATL@@QAE@XZ
  0254e	3b f4		 cmp	 esi, esp
  02550	e8 00 00 00 00	 call	 __RTC_CheckEsp
  02555	c6 45 fc 01	 mov	 BYTE PTR __$EHRec$[ebp+8], 1

; 586  : 		if (pos != NULL)

  02559	83 7d d0 00	 cmp	 DWORD PTR _pos$190834[ebp], 0
  0255d	74 20		 je	 SHORT $L190836

; 587  : 		{
; 588  : 			m_mapLayers.GetNextAssoc( pos, key, m_paneCurrent );

  0255f	8b 55 f0	 mov	 edx, DWORD PTR _this$[ebp]
  02562	81 c2 88 00 00
	00		 add	 edx, 136		; 00000088H
  02568	52		 push	 edx
  02569	8d 45 c4	 lea	 eax, DWORD PTR _key$190835[ebp]
  0256c	50		 push	 eax
  0256d	8d 4d d0	 lea	 ecx, DWORD PTR _pos$190834[ebp]
  02570	51		 push	 ecx
  02571	8b 4d f0	 mov	 ecx, DWORD PTR _this$[ebp]
  02574	81 c1 8c 00 00
	00		 add	 ecx, 140		; 0000008cH
  0257a	e8 00 00 00 00	 call	 ?GetNextAssoc@?$CMap@V?$CStringT@DV?$StrTraitMFC_DLL@DV?$ChTraitsCRT@D@ATL@@@@@ATL@@PBDVCPaneBase@ETSLayoutMgr@@V34@@@QBEXAAPAU__POSITION@@AAV?$CStringT@DV?$StrTraitMFC_DLL@DV?$ChTraitsCRT@D@ATL@@@@@ATL@@AAVCPaneBase@ETSLayoutMgr@@@Z ; CMap<ATL::CStringT<char,StrTraitMFC_DLL<char,ATL::ChTraitsCRT<char> > >,char const *,ETSLayoutMgr::CPaneBase,ETSLayoutMgr::CPaneBase>::GetNextAssoc
$L190836:

; 589  : 		}
; 590  : 		//else
; 591  : 		//showPane(true);
; 592  : 		//return false;
; 593  : 	}

  0257f	c6 45 fc 00	 mov	 BYTE PTR __$EHRec$[ebp+8], 0
  02583	8b f4		 mov	 esi, esp
  02585	8d 4d c4	 lea	 ecx, DWORD PTR _key$190835[ebp]
  02588	ff 15 00 00 00
	00		 call	 DWORD PTR __imp_??1?$CStringT@DV?$StrTraitMFC_DLL@DV?$ChTraitsCRT@D@ATL@@@@@ATL@@QAE@XZ
  0258e	3b f4		 cmp	 esi, esp
  02590	e8 00 00 00 00	 call	 __RTC_CheckEsp
$L190833:

; 594  : 	m_paneItems.RemoveAll();

  02595	8b 4d f0	 mov	 ecx, DWORD PTR _this$[ebp]
  02598	83 c1 64	 add	 ecx, 100		; 00000064H
  0259b	e8 00 00 00 00	 call	 ?RemoveAll@?$CArray@VCPaneBase@ETSLayoutMgr@@V12@@@QAEXXZ ; CArray<ETSLayoutMgr::CPaneBase,ETSLayoutMgr::CPaneBase>::RemoveAll

; 595  : 
; 596  : 	if((m_paneCurrent->modeResize() & ABSOLUTE_VERT)
; 597  : 		&& m_paneCurrent->getConstrainVert(0) != rect.Height())

  025a0	8b 4d f0	 mov	 ecx, DWORD PTR _this$[ebp]
  025a3	81 c1 88 00 00
	00		 add	 ecx, 136		; 00000088H
  025a9	e8 00 00 00 00	 call	 ??CCPaneBase@ETSLayoutMgr@@QBEPAVPaneBase@1@XZ ; ETSLayoutMgr::CPaneBase::operator->
  025ae	8b c8		 mov	 ecx, eax
  025b0	e8 00 00 00 00	 call	 ?modeResize@PaneBase@ETSLayoutMgr@@QAEKXZ ; ETSLayoutMgr::PaneBase::modeResize
  025b5	83 e0 04	 and	 eax, 4
  025b8	0f 84 de 00 00
	00		 je	 $L190837
  025be	8b 4d f0	 mov	 ecx, DWORD PTR _this$[ebp]
  025c1	81 c1 88 00 00
	00		 add	 ecx, 136		; 00000088H
  025c7	e8 00 00 00 00	 call	 ??CCPaneBase@ETSLayoutMgr@@QBEPAVPaneBase@1@XZ ; ETSLayoutMgr::CPaneBase::operator->
  025cc	89 45 9c	 mov	 DWORD PTR tv153[ebp], eax
  025cf	8d 4d dc	 lea	 ecx, DWORD PTR _rect$[ebp]
  025d2	e8 00 00 00 00	 call	 ?Height@CRect@@QBEHXZ	; CRect::Height
  025d7	8b f0		 mov	 esi, eax
  025d9	8b fc		 mov	 edi, esp
  025db	6a 00		 push	 0
  025dd	8b 55 9c	 mov	 edx, DWORD PTR tv153[ebp]
  025e0	8b 02		 mov	 eax, DWORD PTR [edx]
  025e2	8b 4d 9c	 mov	 ecx, DWORD PTR tv153[ebp]
  025e5	ff 50 04	 call	 DWORD PTR [eax+4]
  025e8	3b fc		 cmp	 edi, esp
  025ea	e8 00 00 00 00	 call	 __RTC_CheckEsp
  025ef	3b c6		 cmp	 eax, esi
  025f1	0f 84 a5 00 00
	00		 je	 $L190837

; 598  : 	{
; 599  : 		rect.bottom = rect.top + m_paneCurrent->getConstrainVert(0);

  025f7	8b 4d f0	 mov	 ecx, DWORD PTR _this$[ebp]
  025fa	81 c1 88 00 00
	00		 add	 ecx, 136		; 00000088H
  02600	e8 00 00 00 00	 call	 ??CCPaneBase@ETSLayoutMgr@@QBEPAVPaneBase@1@XZ ; ETSLayoutMgr::CPaneBase::operator->
  02605	89 45 98	 mov	 DWORD PTR tv165[ebp], eax
  02608	8b f4		 mov	 esi, esp
  0260a	6a 00		 push	 0
  0260c	8b 4d 98	 mov	 ecx, DWORD PTR tv165[ebp]
  0260f	8b 11		 mov	 edx, DWORD PTR [ecx]
  02611	8b 4d 98	 mov	 ecx, DWORD PTR tv165[ebp]
  02614	ff 52 04	 call	 DWORD PTR [edx+4]
  02617	3b f4		 cmp	 esi, esp
  02619	e8 00 00 00 00	 call	 __RTC_CheckEsp
  0261e	03 45 e0	 add	 eax, DWORD PTR _rect$[ebp+4]
  02621	89 45 e8	 mov	 DWORD PTR _rect$[ebp+12], eax

; 600  : 		
; 601  : 		CWnd *pWnd = this->m_pMgr->m_pWnd;//->GetParent();

  02624	8b 45 f0	 mov	 eax, DWORD PTR _this$[ebp]
  02627	8b 48 38	 mov	 ecx, DWORD PTR [eax+56]
  0262a	8b 51 30	 mov	 edx, DWORD PTR [ecx+48]
  0262d	89 55 bc	 mov	 DWORD PTR _pWnd$190838[ebp], edx

; 602  : 		::AfxGetUIManager()->UIGetLayoutMgr()->SetPaneSize(pWnd, GetName() ,rect);

  02630	6a 01		 push	 1
  02632	83 ec 10	 sub	 esp, 16			; 00000010H
  02635	8b c4		 mov	 eax, esp
  02637	8b 4d dc	 mov	 ecx, DWORD PTR _rect$[ebp]
  0263a	89 08		 mov	 DWORD PTR [eax], ecx
  0263c	8b 55 e0	 mov	 edx, DWORD PTR _rect$[ebp+4]
  0263f	89 50 04	 mov	 DWORD PTR [eax+4], edx
  02642	8b 4d e4	 mov	 ecx, DWORD PTR _rect$[ebp+8]
  02645	89 48 08	 mov	 DWORD PTR [eax+8], ecx
  02648	8b 55 e8	 mov	 edx, DWORD PTR _rect$[ebp+12]
  0264b	89 50 0c	 mov	 DWORD PTR [eax+12], edx
  0264e	51		 push	 ecx
  0264f	8b c4		 mov	 eax, esp
  02651	89 65 a8	 mov	 DWORD PTR $T193368[ebp], esp
  02654	50		 push	 eax
  02655	8b 4d f0	 mov	 ecx, DWORD PTR _this$[ebp]
  02658	e8 00 00 00 00	 call	 ?GetName@PaneBase@ETSLayoutMgr@@QAE?AV?$CStringT@DV?$StrTraitMFC_DLL@DV?$ChTraitsCRT@D@ATL@@@@@ATL@@XZ ; ETSLayoutMgr::PaneBase::GetName
  0265d	89 45 94	 mov	 DWORD PTR tv249[ebp], eax
  02660	8b 4d 94	 mov	 ecx, DWORD PTR tv249[ebp]
  02663	89 4d 90	 mov	 DWORD PTR tv242[ebp], ecx
  02666	c6 45 fc 02	 mov	 BYTE PTR __$EHRec$[ebp+8], 2
  0266a	e8 00 00 00 00	 call	 ?AfxGetUIManager@@YAPAVIUIManager@@XZ ; AfxGetUIManager
  0266f	89 45 8c	 mov	 DWORD PTR tv175[ebp], eax
  02672	8b f4		 mov	 esi, esp
  02674	8b 55 8c	 mov	 edx, DWORD PTR tv175[ebp]
  02677	8b 02		 mov	 eax, DWORD PTR [edx]
  02679	8b 4d 8c	 mov	 ecx, DWORD PTR tv175[ebp]
  0267c	ff 50 24	 call	 DWORD PTR [eax+36]
  0267f	3b f4		 cmp	 esi, esp
  02681	e8 00 00 00 00	 call	 __RTC_CheckEsp
  02686	89 45 88	 mov	 DWORD PTR tv180[ebp], eax
  02689	8b 4d bc	 mov	 ecx, DWORD PTR _pWnd$190838[ebp]
  0268c	51		 push	 ecx
  0268d	8b 55 88	 mov	 edx, DWORD PTR tv180[ebp]
  02690	8b 02		 mov	 eax, DWORD PTR [edx]
  02692	c6 45 fc 00	 mov	 BYTE PTR __$EHRec$[ebp+8], 0
  02696	8b 4d 88	 mov	 ecx, DWORD PTR tv180[ebp]
  02699	ff 50 4c	 call	 DWORD PTR [eax+76]
$L190837:

; 603  : 	}
; 604  : 	addPane(m_paneCurrent);

  0269c	8b 4d f0	 mov	 ecx, DWORD PTR _this$[ebp]
  0269f	81 c1 88 00 00
	00		 add	 ecx, 136		; 00000088H
  026a5	51		 push	 ecx
  026a6	8b d4		 mov	 edx, esp
  026a8	89 65 a4	 mov	 DWORD PTR $T193369[ebp], esp
  026ab	51		 push	 ecx
  026ac	8b ca		 mov	 ecx, edx
  026ae	e8 00 00 00 00	 call	 ??0CPaneBase@ETSLayoutMgr@@QAE@ABV01@@Z ; ETSLayoutMgr::CPaneBase::CPaneBase
  026b3	89 45 84	 mov	 DWORD PTR tv244[ebp], eax
  026b6	8b 45 f0	 mov	 eax, DWORD PTR _this$[ebp]
  026b9	8b 10		 mov	 edx, DWORD PTR [eax]
  026bb	8b 4d f0	 mov	 ecx, DWORD PTR _this$[ebp]
  026be	ff 52 2c	 call	 DWORD PTR [edx+44]

; 605  : 
; 606  : 	m_strCurrent = name;

  026c1	8b f4		 mov	 esi, esp
  026c3	8d 45 08	 lea	 eax, DWORD PTR _name$[ebp]
  026c6	50		 push	 eax
  026c7	8b 4d f0	 mov	 ecx, DWORD PTR _this$[ebp]
  026ca	81 c1 84 00 00
	00		 add	 ecx, 132		; 00000084H
  026d0	ff 15 00 00 00
	00		 call	 DWORD PTR __imp_??4?$CStringT@DV?$StrTraitMFC_DLL@DV?$ChTraitsCRT@D@ATL@@@@@ATL@@QAEAAV01@ABV01@@Z
  026d6	3b f4		 cmp	 esi, esp
  026d8	e8 00 00 00 00	 call	 __RTC_CheckEsp

; 607  : 	m_paneCurrent->resizeTo(rect,true, true);

  026dd	8b 4d f0	 mov	 ecx, DWORD PTR _this$[ebp]
  026e0	81 c1 88 00 00
	00		 add	 ecx, 136		; 00000088H
  026e6	e8 00 00 00 00	 call	 ??CCPaneBase@ETSLayoutMgr@@QBEPAVPaneBase@1@XZ ; ETSLayoutMgr::CPaneBase::operator->
  026eb	89 45 80	 mov	 DWORD PTR tv225[ebp], eax
  026ee	8b f4		 mov	 esi, esp
  026f0	6a 01		 push	 1
  026f2	6a 01		 push	 1
  026f4	8d 4d dc	 lea	 ecx, DWORD PTR _rect$[ebp]
  026f7	51		 push	 ecx
  026f8	8b 55 80	 mov	 edx, DWORD PTR tv225[ebp]
  026fb	8b 02		 mov	 eax, DWORD PTR [edx]
  026fd	8b 4d 80	 mov	 ecx, DWORD PTR tv225[ebp]
  02700	ff 50 18	 call	 DWORD PTR [eax+24]
  02703	3b f4		 cmp	 esi, esp
  02705	e8 00 00 00 00	 call	 __RTC_CheckEsp

; 608  : 	if(bRedraw)

  0270a	0f b6 4d 0c	 movzx	 ecx, BYTE PTR _bRedraw$[ebp]
  0270e	85 c9		 test	 ecx, ecx
  02710	74 16		 je	 SHORT $L190842

; 609  : 		showPane(true);

  02712	8b f4		 mov	 esi, esp
  02714	6a 01		 push	 1
  02716	8b 55 f0	 mov	 edx, DWORD PTR _this$[ebp]
  02719	8b 02		 mov	 eax, DWORD PTR [edx]
  0271b	8b 4d f0	 mov	 ecx, DWORD PTR _this$[ebp]
  0271e	ff 50 24	 call	 DWORD PTR [eax+36]
  02721	3b f4		 cmp	 esi, esp
  02723	e8 00 00 00 00	 call	 __RTC_CheckEsp
$L190842:

; 610  : 
; 611  : 
; 612  : 	//if(bRedraw)
; 613  : 	//	::AfxGetMainWindow()->RedrawWindow();
; 614  : 	return true;

  02728	c6 45 a3 01	 mov	 BYTE PTR $T193370[ebp], 1
  0272c	c7 45 fc ff ff
	ff ff		 mov	 DWORD PTR __$EHRec$[ebp+8], -1
  02733	8b f4		 mov	 esi, esp
  02735	8d 4d 08	 lea	 ecx, DWORD PTR _name$[ebp]
  02738	ff 15 00 00 00
	00		 call	 DWORD PTR __imp_??1?$CStringT@DV?$StrTraitMFC_DLL@DV?$ChTraitsCRT@D@ATL@@@@@ATL@@QAE@XZ
  0273e	3b f4		 cmp	 esi, esp
  02740	e8 00 00 00 00	 call	 __RTC_CheckEsp
  02745	8a 45 a3	 mov	 al, BYTE PTR $T193370[ebp]

; 615  : }

  02748	52		 push	 edx
  02749	8b cd		 mov	 ecx, ebp
  0274b	50		 push	 eax
  0274c	8d 15 00 00 00
	00		 lea	 edx, DWORD PTR $L193382
  02752	e8 00 00 00 00	 call	 @_RTC_CheckStackVars@8
  02757	58		 pop	 eax
  02758	5a		 pop	 edx
  02759	8b 4d f4	 mov	 ecx, DWORD PTR __$EHRec$[ebp]
  0275c	64 89 0d 00 00
	00 00		 mov	 DWORD PTR fs:__except_list, ecx
  02763	5f		 pop	 edi
  02764	5e		 pop	 esi
  02765	81 c4 80 00 00
	00		 add	 esp, 128		; 00000080H
  0276b	3b ec		 cmp	 ebp, esp
  0276d	e8 00 00 00 00	 call	 __RTC_CheckEsp
  02772	8b e5		 mov	 esp, ebp
  02774	5d		 pop	 ebp
  02775	c2 08 00	 ret	 8
$L193382:
  02778	03 00 00 00	 DD	 3
  0277c	00 00 00 00	 DD	 $L193381
$L193381:
  02780	dc ff ff ff	 DD	 -36			; ffffffdcH
  02784	10 00 00 00	 DD	 16			; 00000010H
  02788	00 00 00 00	 DD	 $L193377
  0278c	d0 ff ff ff	 DD	 -48			; ffffffd0H
  02790	04 00 00 00	 DD	 4
  02794	00 00 00 00	 DD	 $L193378
  02798	c4 ff ff ff	 DD	 -60			; ffffffc4H
  0279c	04 00 00 00	 DD	 4
  027a0	00 00 00 00	 DD	 $L193379
$L193379:
  027a4	6b		 DB	 107			; 0000006bH
  027a5	65		 DB	 101			; 00000065H
  027a6	79		 DB	 121			; 00000079H
  027a7	00		 DB	 0
$L193378:
  027a8	70		 DB	 112			; 00000070H
  027a9	6f		 DB	 111			; 0000006fH
  027aa	73		 DB	 115			; 00000073H
  027ab	00		 DB	 0
$L193377:
  027ac	72		 DB	 114			; 00000072H
  027ad	65		 DB	 101			; 00000065H
  027ae	63		 DB	 99			; 00000063H
  027af	74		 DB	 116			; 00000074H
  027b0	00		 DB	 0
_TEXT	ENDS
text$x	SEGMENT
$L193371:
  0022d	8b f4		 mov	 esi, esp
  0022f	8d 4d 08	 lea	 ecx, DWORD PTR _name$[ebp]
  00232	ff 15 00 00 00
	00		 call	 DWORD PTR __imp_??1?$CStringT@DV?$StrTraitMFC_DLL@DV?$ChTraitsCRT@D@ATL@@@@@ATL@@QAE@XZ
  00238	3b f4		 cmp	 esi, esp
  0023a	e9 00 00 00 00	 jmp	 __RTC_CheckEsp
$L193372:
  0023f	8b f4		 mov	 esi, esp
  00241	8d 4d c4	 lea	 ecx, DWORD PTR _key$190835[ebp]
  00244	ff 15 00 00 00
	00		 call	 DWORD PTR __imp_??1?$CStringT@DV?$StrTraitMFC_DLL@DV?$ChTraitsCRT@D@ATL@@@@@ATL@@QAE@XZ
  0024a	3b f4		 cmp	 esi, esp
  0024c	e9 00 00 00 00	 jmp	 __RTC_CheckEsp
$L193373:
  00251	8b f4		 mov	 esi, esp
  00253	8b 4d a8	 mov	 ecx, DWORD PTR $T193368[ebp]
  00256	ff 15 00 00 00
	00		 call	 DWORD PTR __imp_??1?$CStringT@DV?$StrTraitMFC_DLL@DV?$ChTraitsCRT@D@ATL@@@@@ATL@@QAE@XZ
  0025c	3b f4		 cmp	 esi, esp
  0025e	e9 00 00 00 00	 jmp	 __RTC_CheckEsp
__ehhandler$?setCurrent@PaneMulti@ETSLayoutMgr@@QAE_NV?$CStringT@DV?$StrTraitMFC_DLL@DV?$ChTraitsCRT@D@ATL@@@@@ATL@@_N@Z:
  00263	b8 00 00 00 00	 mov	 eax, OFFSET FLAT:$T193376
  00268	e9 00 00 00 00	 jmp	 ___CxxFrameHandler
text$x	ENDS
?setCurrent@PaneMulti@ETSLayoutMgr@@QAE_NV?$CStringT@DV?$StrTraitMFC_DLL@DV?$ChTraitsCRT@D@ATL@@@@@ATL@@_N@Z ENDP ; ETSLayoutMgr::PaneMulti::setCurrent
PUBLIC	??CCPanePosition@ETSLayoutMgr@@QBEPAVPanePosition@1@XZ ; ETSLayoutMgr::CPanePosition::operator->
; Function compile flags: /Odt /RTCsu
_TEXT	SEGMENT
_this$ = -4						; size = 4
??CCPanePosition@ETSLayoutMgr@@QBEPAVPanePosition@1@XZ PROC NEAR ; ETSLayoutMgr::CPanePosition::operator->
; _this$ = ecx

; 620  : {

  027c0	55		 push	 ebp
  027c1	8b ec		 mov	 ebp, esp
  027c3	51		 push	 ecx
  027c4	c7 45 fc cc cc
	cc cc		 mov	 DWORD PTR [ebp-4], -858993460 ; ccccccccH
  027cb	89 4d fc	 mov	 DWORD PTR _this$[ebp], ecx

; 621  : 	ASSERT(m_pPaneHolder);

  027ce	8b 45 fc	 mov	 eax, DWORD PTR _this$[ebp]
  027d1	83 38 00	 cmp	 DWORD PTR [eax], 0
  027d4	75 14		 jne	 SHORT $L193385
  027d6	68 6d 02 00 00	 push	 621			; 0000026dH
  027db	68 00 00 00 00	 push	 OFFSET FLAT:$SG190848
  027e0	e8 00 00 00 00	 call	 ?AfxAssertFailedLine@@YGHPBDH@Z ; AfxAssertFailedLine
  027e5	85 c0		 test	 eax, eax
  027e7	74 01		 je	 SHORT $L193385
  027e9	cc		 int	 3
$L193385:

; 622  : 
; 623  : 	if(!m_pPaneHolder)

  027ea	8b 55 fc	 mov	 edx, DWORD PTR _this$[ebp]
  027ed	83 3a 00	 cmp	 DWORD PTR [edx], 0
  027f0	75 04		 jne	 SHORT $L190849

; 624  : 		return 0;

  027f2	33 c0		 xor	 eax, eax
  027f4	eb 07		 jmp	 SHORT $L190846
$L190849:

; 625  : 
; 626  : 	return reinterpret_cast<PanePosition*>(m_pPaneHolder->m_pPane);

  027f6	8b 45 fc	 mov	 eax, DWORD PTR _this$[ebp]
  027f9	8b 08		 mov	 ecx, DWORD PTR [eax]
  027fb	8b 01		 mov	 eax, DWORD PTR [ecx]
$L190846:

; 627  : }

  027fd	83 c4 04	 add	 esp, 4
  02800	3b ec		 cmp	 ebp, esp
  02802	e8 00 00 00 00	 call	 __RTC_CheckEsp
  02807	8b e5		 mov	 esp, ebp
  02809	5d		 pop	 ebp
  0280a	c3		 ret	 0
??CCPanePosition@ETSLayoutMgr@@QBEPAVPanePosition@1@XZ ENDP ; ETSLayoutMgr::CPanePosition::operator->
_TEXT	ENDS
PUBLIC	??6CPanePosition@ETSLayoutMgr@@QAEAAV01@VCPane@1@@Z ; ETSLayoutMgr::CPanePosition::operator<<
xdata$x	SEGMENT
$T193394 DD	0ffffffffH
	DD	FLAT:$L193389
	DD	00H
	DD	FLAT:$L193390
$T193392 DD	019930520H
	DD	02H
	DD	FLAT:$T193394
	DD	2 DUP(00H)
	DD	2 DUP(00H)
; Function compile flags: /Odt /RTCsu
xdata$x	ENDS
_TEXT	SEGMENT
tv68 = -36						; size = 4
tv129 = -32						; size = 4
tv131 = -28						; size = 4
$T193388 = -24						; size = 4
$T193387 = -20						; size = 4
_this$ = -16						; size = 4
__$EHRec$ = -12						; size = 12
_pPane$ = 8						; size = 4
??6CPanePosition@ETSLayoutMgr@@QAEAAV01@VCPane@1@@Z PROC NEAR ; ETSLayoutMgr::CPanePosition::operator<<
; _this$ = ecx

; 630  : {

  02810	55		 push	 ebp
  02811	8b ec		 mov	 ebp, esp
  02813	6a ff		 push	 -1
  02815	68 00 00 00 00	 push	 __ehhandler$??6CPanePosition@ETSLayoutMgr@@QAEAAV01@VCPane@1@@Z
  0281a	64 a1 00 00 00
	00		 mov	 eax, DWORD PTR fs:__except_list
  02820	50		 push	 eax
  02821	64 89 25 00 00
	00 00		 mov	 DWORD PTR fs:__except_list, esp
  02828	83 ec 18	 sub	 esp, 24			; 00000018H
  0282b	b8 cc cc cc cc	 mov	 eax, -858993460		; ccccccccH
  02830	89 45 dc	 mov	 DWORD PTR [ebp-36], eax
  02833	89 45 e0	 mov	 DWORD PTR [ebp-32], eax
  02836	89 45 e4	 mov	 DWORD PTR [ebp-28], eax
  02839	89 45 e8	 mov	 DWORD PTR [ebp-24], eax
  0283c	89 45 ec	 mov	 DWORD PTR [ebp-20], eax
  0283f	89 45 f0	 mov	 DWORD PTR [ebp-16], eax
  02842	89 4d f0	 mov	 DWORD PTR _this$[ebp], ecx
  02845	c7 45 fc 00 00
	00 00		 mov	 DWORD PTR __$EHRec$[ebp+8], 0

; 631  : 	GetPane()->addPane( pPane, (ETSLayoutMgr::layResizeMode)pPane->m_modeResize, pPane->m_sizeSecondary);

  0284c	8d 4d 08	 lea	 ecx, DWORD PTR _pPane$[ebp]
  0284f	e8 00 00 00 00	 call	 ??CCPane@ETSLayoutMgr@@QBEPAVPane@1@XZ ; ETSLayoutMgr::CPane::operator->
  02854	8b 40 78	 mov	 eax, DWORD PTR [eax+120]
  02857	50		 push	 eax
  02858	8d 4d 08	 lea	 ecx, DWORD PTR _pPane$[ebp]
  0285b	e8 00 00 00 00	 call	 ??CCPane@ETSLayoutMgr@@QBEPAVPane@1@XZ ; ETSLayoutMgr::CPane::operator->
  02860	8b 48 18	 mov	 ecx, DWORD PTR [eax+24]
  02863	51		 push	 ecx
  02864	51		 push	 ecx
  02865	8b cc		 mov	 ecx, esp
  02867	89 65 ec	 mov	 DWORD PTR $T193387[ebp], esp
  0286a	8d 55 08	 lea	 edx, DWORD PTR _pPane$[ebp]
  0286d	52		 push	 edx
  0286e	e8 00 00 00 00	 call	 ??0CPane@ETSLayoutMgr@@QAE@ABV01@@Z ; ETSLayoutMgr::CPane::CPane
  02873	89 45 e4	 mov	 DWORD PTR tv131[ebp], eax
  02876	8b 45 e4	 mov	 eax, DWORD PTR tv131[ebp]
  02879	89 45 e0	 mov	 DWORD PTR tv129[ebp], eax
  0287c	c6 45 fc 01	 mov	 BYTE PTR __$EHRec$[ebp+8], 1
  02880	8b 4d f0	 mov	 ecx, DWORD PTR _this$[ebp]
  02883	e8 00 00 00 00	 call	 ?GetPane@CPane@ETSLayoutMgr@@QAEPAVPane@2@XZ ; ETSLayoutMgr::CPane::GetPane
  02888	89 45 dc	 mov	 DWORD PTR tv68[ebp], eax
  0288b	8b 4d dc	 mov	 ecx, DWORD PTR tv68[ebp]
  0288e	8b 11		 mov	 edx, DWORD PTR [ecx]
  02890	c6 45 fc 00	 mov	 BYTE PTR __$EHRec$[ebp+8], 0
  02894	8b 4d dc	 mov	 ecx, DWORD PTR tv68[ebp]
  02897	ff 52 28	 call	 DWORD PTR [edx+40]

; 632  : 	return (*this);

  0289a	8b 45 f0	 mov	 eax, DWORD PTR _this$[ebp]
  0289d	89 45 e8	 mov	 DWORD PTR $T193388[ebp], eax
  028a0	c7 45 fc ff ff
	ff ff		 mov	 DWORD PTR __$EHRec$[ebp+8], -1
  028a7	8d 4d 08	 lea	 ecx, DWORD PTR _pPane$[ebp]
  028aa	e8 00 00 00 00	 call	 ??1CPane@ETSLayoutMgr@@QAE@XZ ; ETSLayoutMgr::CPane::~CPane
  028af	8b 45 e8	 mov	 eax, DWORD PTR $T193388[ebp]

; 633  : }

  028b2	8b 4d f4	 mov	 ecx, DWORD PTR __$EHRec$[ebp]
  028b5	64 89 0d 00 00
	00 00		 mov	 DWORD PTR fs:__except_list, ecx
  028bc	83 c4 24	 add	 esp, 36			; 00000024H
  028bf	3b ec		 cmp	 ebp, esp
  028c1	e8 00 00 00 00	 call	 __RTC_CheckEsp
  028c6	8b e5		 mov	 esp, ebp
  028c8	5d		 pop	 ebp
  028c9	c2 04 00	 ret	 4
_TEXT	ENDS
text$x	SEGMENT
$L193389:
  0026d	8d 4d 08	 lea	 ecx, DWORD PTR _pPane$[ebp]
  00270	e9 00 00 00 00	 jmp	 ??1CPane@ETSLayoutMgr@@QAE@XZ ; ETSLayoutMgr::CPane::~CPane
$L193390:
  00275	8b 4d ec	 mov	 ecx, DWORD PTR $T193387[ebp]
  00278	e9 00 00 00 00	 jmp	 ??1CPane@ETSLayoutMgr@@QAE@XZ ; ETSLayoutMgr::CPane::~CPane
__ehhandler$??6CPanePosition@ETSLayoutMgr@@QAEAAV01@VCPane@1@@Z:
  0027d	b8 00 00 00 00	 mov	 eax, OFFSET FLAT:$T193392
  00282	e9 00 00 00 00	 jmp	 ___CxxFrameHandler
text$x	ENDS
??6CPanePosition@ETSLayoutMgr@@QAEAAV01@VCPane@1@@Z ENDP ; ETSLayoutMgr::CPanePosition::operator<<
PUBLIC	??6CPanePosition@ETSLayoutMgr@@QAEAAV01@VCPaneBase@1@@Z ; ETSLayoutMgr::CPanePosition::operator<<
xdata$x	SEGMENT
$T193403 DD	0ffffffffH
	DD	FLAT:$L193398
	DD	00H
	DD	FLAT:$L193399
$T193401 DD	019930520H
	DD	02H
	DD	FLAT:$T193403
	DD	2 DUP(00H)
	DD	2 DUP(00H)
; Function compile flags: /Odt /RTCsu
xdata$x	ENDS
_TEXT	SEGMENT
tv68 = -36						; size = 4
tv87 = -32						; size = 4
tv89 = -28						; size = 4
$T193397 = -24						; size = 4
$T193396 = -20						; size = 4
_this$ = -16						; size = 4
__$EHRec$ = -12						; size = 12
_pItem$ = 8						; size = 4
??6CPanePosition@ETSLayoutMgr@@QAEAAV01@VCPaneBase@1@@Z PROC NEAR ; ETSLayoutMgr::CPanePosition::operator<<
; _this$ = ecx

; 636  : {

  028d0	55		 push	 ebp
  028d1	8b ec		 mov	 ebp, esp
  028d3	6a ff		 push	 -1
  028d5	68 00 00 00 00	 push	 __ehhandler$??6CPanePosition@ETSLayoutMgr@@QAEAAV01@VCPaneBase@1@@Z
  028da	64 a1 00 00 00
	00		 mov	 eax, DWORD PTR fs:__except_list
  028e0	50		 push	 eax
  028e1	64 89 25 00 00
	00 00		 mov	 DWORD PTR fs:__except_list, esp
  028e8	83 ec 18	 sub	 esp, 24			; 00000018H
  028eb	b8 cc cc cc cc	 mov	 eax, -858993460		; ccccccccH
  028f0	89 45 dc	 mov	 DWORD PTR [ebp-36], eax
  028f3	89 45 e0	 mov	 DWORD PTR [ebp-32], eax
  028f6	89 45 e4	 mov	 DWORD PTR [ebp-28], eax
  028f9	89 45 e8	 mov	 DWORD PTR [ebp-24], eax
  028fc	89 45 ec	 mov	 DWORD PTR [ebp-20], eax
  028ff	89 45 f0	 mov	 DWORD PTR [ebp-16], eax
  02902	89 4d f0	 mov	 DWORD PTR _this$[ebp], ecx
  02905	c7 45 fc 00 00
	00 00		 mov	 DWORD PTR __$EHRec$[ebp+8], 0

; 637  : 	GetPane()->addPane( pItem );

  0290c	51		 push	 ecx
  0290d	8b cc		 mov	 ecx, esp
  0290f	89 65 ec	 mov	 DWORD PTR $T193396[ebp], esp
  02912	8d 45 08	 lea	 eax, DWORD PTR _pItem$[ebp]
  02915	50		 push	 eax
  02916	e8 00 00 00 00	 call	 ??0CPaneBase@ETSLayoutMgr@@QAE@ABV01@@Z ; ETSLayoutMgr::CPaneBase::CPaneBase
  0291b	89 45 e4	 mov	 DWORD PTR tv89[ebp], eax
  0291e	8b 4d e4	 mov	 ecx, DWORD PTR tv89[ebp]
  02921	89 4d e0	 mov	 DWORD PTR tv87[ebp], ecx
  02924	c6 45 fc 01	 mov	 BYTE PTR __$EHRec$[ebp+8], 1
  02928	8b 4d f0	 mov	 ecx, DWORD PTR _this$[ebp]
  0292b	e8 00 00 00 00	 call	 ?GetPane@CPane@ETSLayoutMgr@@QAEPAVPane@2@XZ ; ETSLayoutMgr::CPane::GetPane
  02930	89 45 dc	 mov	 DWORD PTR tv68[ebp], eax
  02933	8b 55 dc	 mov	 edx, DWORD PTR tv68[ebp]
  02936	8b 02		 mov	 eax, DWORD PTR [edx]
  02938	c6 45 fc 00	 mov	 BYTE PTR __$EHRec$[ebp+8], 0
  0293c	8b 4d dc	 mov	 ecx, DWORD PTR tv68[ebp]
  0293f	ff 50 2c	 call	 DWORD PTR [eax+44]

; 638  : 	return (*this);

  02942	8b 4d f0	 mov	 ecx, DWORD PTR _this$[ebp]
  02945	89 4d e8	 mov	 DWORD PTR $T193397[ebp], ecx
  02948	c7 45 fc ff ff
	ff ff		 mov	 DWORD PTR __$EHRec$[ebp+8], -1
  0294f	8d 4d 08	 lea	 ecx, DWORD PTR _pItem$[ebp]
  02952	e8 00 00 00 00	 call	 ??1CPaneBase@ETSLayoutMgr@@QAE@XZ ; ETSLayoutMgr::CPaneBase::~CPaneBase
  02957	8b 45 e8	 mov	 eax, DWORD PTR $T193397[ebp]

; 639  : }

  0295a	8b 4d f4	 mov	 ecx, DWORD PTR __$EHRec$[ebp]
  0295d	64 89 0d 00 00
	00 00		 mov	 DWORD PTR fs:__except_list, ecx
  02964	83 c4 24	 add	 esp, 36			; 00000024H
  02967	3b ec		 cmp	 ebp, esp
  02969	e8 00 00 00 00	 call	 __RTC_CheckEsp
  0296e	8b e5		 mov	 esp, ebp
  02970	5d		 pop	 ebp
  02971	c2 04 00	 ret	 4
_TEXT	ENDS
text$x	SEGMENT
$L193398:
  00287	8d 4d 08	 lea	 ecx, DWORD PTR _pItem$[ebp]
  0028a	e9 00 00 00 00	 jmp	 ??1CPaneBase@ETSLayoutMgr@@QAE@XZ ; ETSLayoutMgr::CPaneBase::~CPaneBase
$L193399:
  0028f	8b 4d ec	 mov	 ecx, DWORD PTR $T193396[ebp]
  00292	e9 00 00 00 00	 jmp	 ??1CPaneBase@ETSLayoutMgr@@QAE@XZ ; ETSLayoutMgr::CPaneBase::~CPaneBase
__ehhandler$??6CPanePosition@ETSLayoutMgr@@QAEAAV01@VCPaneBase@1@@Z:
  00297	b8 00 00 00 00	 mov	 eax, OFFSET FLAT:$T193401
  0029c	e9 00 00 00 00	 jmp	 ___CxxFrameHandler
text$x	ENDS
??6CPanePosition@ETSLayoutMgr@@QAEAAV01@VCPaneBase@1@@Z ENDP ; ETSLayoutMgr::CPanePosition::operator<<
PUBLIC	??0CPanePosition@ETSLayoutMgr@@QAE@PAVPanePosition@1@@Z ; ETSLayoutMgr::CPanePosition::CPanePosition
; Function compile flags: /Odt /RTCsu
_TEXT	SEGMENT
_this$ = -4						; size = 4
_pPane$ = 8						; size = 4
??0CPanePosition@ETSLayoutMgr@@QAE@PAVPanePosition@1@@Z PROC NEAR ; ETSLayoutMgr::CPanePosition::CPanePosition
; _this$ = ecx

; 642  : {

  02980	55		 push	 ebp
  02981	8b ec		 mov	 ebp, esp
  02983	51		 push	 ecx
  02984	c7 45 fc cc cc
	cc cc		 mov	 DWORD PTR [ebp-4], -858993460 ; ccccccccH
  0298b	89 4d fc	 mov	 DWORD PTR _this$[ebp], ecx
  0298e	8b 45 08	 mov	 eax, DWORD PTR _pPane$[ebp]
  02991	50		 push	 eax
  02992	8b 4d fc	 mov	 ecx, DWORD PTR _this$[ebp]
  02995	e8 00 00 00 00	 call	 ??0CPane@ETSLayoutMgr@@QAE@PAVPane@1@@Z ; ETSLayoutMgr::CPane::CPane

; 643  : }

  0299a	8b 45 fc	 mov	 eax, DWORD PTR _this$[ebp]
  0299d	83 c4 04	 add	 esp, 4
  029a0	3b ec		 cmp	 ebp, esp
  029a2	e8 00 00 00 00	 call	 __RTC_CheckEsp
  029a7	8b e5		 mov	 esp, ebp
  029a9	5d		 pop	 ebp
  029aa	c2 04 00	 ret	 4
??0CPanePosition@ETSLayoutMgr@@QAE@PAVPanePosition@1@@Z ENDP ; ETSLayoutMgr::CPanePosition::CPanePosition
_TEXT	ENDS
PUBLIC	??0CPanePosition@ETSLayoutMgr@@QAE@XZ		; ETSLayoutMgr::CPanePosition::CPanePosition
; Function compile flags: /Odt /RTCsu
_TEXT	SEGMENT
_this$ = -4						; size = 4
??0CPanePosition@ETSLayoutMgr@@QAE@XZ PROC NEAR		; ETSLayoutMgr::CPanePosition::CPanePosition
; _this$ = ecx

; 646  : {

  029b0	55		 push	 ebp
  029b1	8b ec		 mov	 ebp, esp
  029b3	51		 push	 ecx
  029b4	c7 45 fc cc cc
	cc cc		 mov	 DWORD PTR [ebp-4], -858993460 ; ccccccccH
  029bb	89 4d fc	 mov	 DWORD PTR _this$[ebp], ecx
  029be	8b 4d fc	 mov	 ecx, DWORD PTR _this$[ebp]
  029c1	e8 00 00 00 00	 call	 ??0CPane@ETSLayoutMgr@@QAE@XZ ; ETSLayoutMgr::CPane::CPane

; 647  : }

  029c6	8b 45 fc	 mov	 eax, DWORD PTR _this$[ebp]
  029c9	83 c4 04	 add	 esp, 4
  029cc	3b ec		 cmp	 ebp, esp
  029ce	e8 00 00 00 00	 call	 __RTC_CheckEsp
  029d3	8b e5		 mov	 esp, ebp
  029d5	5d		 pop	 ebp
  029d6	c3		 ret	 0
??0CPanePosition@ETSLayoutMgr@@QAE@XZ ENDP		; ETSLayoutMgr::CPanePosition::CPanePosition
_TEXT	ENDS
PUBLIC	?panePosition@ETSLayoutMgr@@QAE?AVCPanePosition@1@W4layOrientation@1@W4layResizeMode@1@HHH@Z ; ETSLayoutMgr::panePosition
PUBLIC	??0PanePosition@ETSLayoutMgr@@QAE@PAV1@W4layOrientation@1@HH@Z ; ETSLayoutMgr::PanePosition::PanePosition
xdata$x	SEGMENT
$T193420 DD	0ffffffffH
	DD	FLAT:$L193413
$T193418 DD	019930520H
	DD	01H
	DD	FLAT:$T193420
	DD	2 DUP(00H)
	DD	2 DUP(00H)
; Function compile flags: /Odt /RTCsu
xdata$x	ENDS
_TEXT	SEGMENT
tv75 = -36						; size = 4
$T193415 = -32						; size = 4
$T193410 = -28						; size = 4
$T193409 = -24						; size = 4
_pPane$ = -20						; size = 4
_this$ = -16						; size = 4
__$EHRec$ = -12						; size = 12
___$ReturnUdt$ = 8					; size = 4
_orientation$ = 12					; size = 4
_modeResize$ = 16					; size = 4
_sizeBorder$ = 20					; size = 4
_sizeExtraBorder$ = 24					; size = 4
_sizeSecondary$ = 28					; size = 4
?panePosition@ETSLayoutMgr@@QAE?AVCPanePosition@1@W4layOrientation@1@W4layResizeMode@1@HHH@Z PROC NEAR ; ETSLayoutMgr::panePosition
; _this$ = ecx

; 652  : {

  029e0	55		 push	 ebp
  029e1	8b ec		 mov	 ebp, esp
  029e3	6a ff		 push	 -1
  029e5	68 00 00 00 00	 push	 __ehhandler$?panePosition@ETSLayoutMgr@@QAE?AVCPanePosition@1@W4layOrientation@1@W4layResizeMode@1@HHH@Z
  029ea	64 a1 00 00 00
	00		 mov	 eax, DWORD PTR fs:__except_list
  029f0	50		 push	 eax
  029f1	64 89 25 00 00
	00 00		 mov	 DWORD PTR fs:__except_list, esp
  029f8	83 ec 18	 sub	 esp, 24			; 00000018H
  029fb	b8 cc cc cc cc	 mov	 eax, -858993460		; ccccccccH
  02a00	89 45 dc	 mov	 DWORD PTR [ebp-36], eax
  02a03	89 45 e0	 mov	 DWORD PTR [ebp-32], eax
  02a06	89 45 e4	 mov	 DWORD PTR [ebp-28], eax
  02a09	89 45 e8	 mov	 DWORD PTR [ebp-24], eax
  02a0c	89 45 ec	 mov	 DWORD PTR [ebp-20], eax
  02a0f	89 45 f0	 mov	 DWORD PTR [ebp-16], eax
  02a12	89 4d f0	 mov	 DWORD PTR _this$[ebp], ecx
  02a15	c7 45 e0 00 00
	00 00		 mov	 DWORD PTR $T193415[ebp], 0

; 653  : 	PanePosition* pPane = new PanePosition ( this, orientation, sizeBorder, sizeExtraBorder );

  02a1c	68 84 00 00 00	 push	 132			; 00000084H
  02a21	e8 00 00 00 00	 call	 ??2@YAPAXI@Z		; operator new
  02a26	83 c4 04	 add	 esp, 4
  02a29	89 45 e4	 mov	 DWORD PTR $T193410[ebp], eax
  02a2c	c7 45 fc 00 00
	00 00		 mov	 DWORD PTR __$EHRec$[ebp+8], 0
  02a33	83 7d e4 00	 cmp	 DWORD PTR $T193410[ebp], 0
  02a37	74 1d		 je	 SHORT $L193411
  02a39	8b 45 18	 mov	 eax, DWORD PTR _sizeExtraBorder$[ebp]
  02a3c	50		 push	 eax
  02a3d	8b 4d 14	 mov	 ecx, DWORD PTR _sizeBorder$[ebp]
  02a40	51		 push	 ecx
  02a41	8b 55 0c	 mov	 edx, DWORD PTR _orientation$[ebp]
  02a44	52		 push	 edx
  02a45	8b 45 f0	 mov	 eax, DWORD PTR _this$[ebp]
  02a48	50		 push	 eax
  02a49	8b 4d e4	 mov	 ecx, DWORD PTR $T193410[ebp]
  02a4c	e8 00 00 00 00	 call	 ??0PanePosition@ETSLayoutMgr@@QAE@PAV1@W4layOrientation@1@HH@Z ; ETSLayoutMgr::PanePosition::PanePosition
  02a51	89 45 dc	 mov	 DWORD PTR tv75[ebp], eax
  02a54	eb 07		 jmp	 SHORT $L193412
$L193411:
  02a56	c7 45 dc 00 00
	00 00		 mov	 DWORD PTR tv75[ebp], 0
$L193412:
  02a5d	8b 4d dc	 mov	 ecx, DWORD PTR tv75[ebp]
  02a60	89 4d e8	 mov	 DWORD PTR $T193409[ebp], ecx
  02a63	c7 45 fc ff ff
	ff ff		 mov	 DWORD PTR __$EHRec$[ebp+8], -1
  02a6a	8b 55 e8	 mov	 edx, DWORD PTR $T193409[ebp]
  02a6d	89 55 ec	 mov	 DWORD PTR _pPane$[ebp], edx

; 654  : 	pPane->m_sizeSecondary = sizeSecondary;

  02a70	8b 45 ec	 mov	 eax, DWORD PTR _pPane$[ebp]
  02a73	8b 4d 1c	 mov	 ecx, DWORD PTR _sizeSecondary$[ebp]
  02a76	89 48 78	 mov	 DWORD PTR [eax+120], ecx

; 655  : 	pPane->m_modeResize    = modeResize;

  02a79	8b 55 ec	 mov	 edx, DWORD PTR _pPane$[ebp]
  02a7c	8b 45 10	 mov	 eax, DWORD PTR _modeResize$[ebp]
  02a7f	89 42 18	 mov	 DWORD PTR [edx+24], eax

; 656  : 
; 657  : 	return CPanePosition(pPane);

  02a82	8b 4d ec	 mov	 ecx, DWORD PTR _pPane$[ebp]
  02a85	51		 push	 ecx
  02a86	8b 4d 08	 mov	 ecx, DWORD PTR ___$ReturnUdt$[ebp]
  02a89	e8 00 00 00 00	 call	 ??0CPanePosition@ETSLayoutMgr@@QAE@PAVPanePosition@1@@Z ; ETSLayoutMgr::CPanePosition::CPanePosition
  02a8e	8b 55 e0	 mov	 edx, DWORD PTR $T193415[ebp]
  02a91	83 ca 01	 or	 edx, 1
  02a94	89 55 e0	 mov	 DWORD PTR $T193415[ebp], edx
  02a97	8b 45 08	 mov	 eax, DWORD PTR ___$ReturnUdt$[ebp]

; 658  : }

  02a9a	8b 4d f4	 mov	 ecx, DWORD PTR __$EHRec$[ebp]
  02a9d	64 89 0d 00 00
	00 00		 mov	 DWORD PTR fs:__except_list, ecx
  02aa4	83 c4 24	 add	 esp, 36			; 00000024H
  02aa7	3b ec		 cmp	 ebp, esp
  02aa9	e8 00 00 00 00	 call	 __RTC_CheckEsp
  02aae	8b e5		 mov	 esp, ebp
  02ab0	5d		 pop	 ebp
  02ab1	c2 18 00	 ret	 24			; 00000018H
_TEXT	ENDS
text$x	SEGMENT
$L193413:
  002a1	8b 45 e4	 mov	 eax, DWORD PTR $T193410[ebp]
  002a4	50		 push	 eax
  002a5	e8 00 00 00 00	 call	 ??3@YAXPAX@Z		; operator delete
  002aa	59		 pop	 ecx
  002ab	c3		 ret	 0
__ehhandler$?panePosition@ETSLayoutMgr@@QAE?AVCPanePosition@1@W4layOrientation@1@W4layResizeMode@1@HHH@Z:
  002ac	b8 00 00 00 00	 mov	 eax, OFFSET FLAT:$T193418
  002b1	e9 00 00 00 00	 jmp	 ___CxxFrameHandler
text$x	ENDS
?panePosition@ETSLayoutMgr@@QAE?AVCPanePosition@1@W4layOrientation@1@W4layResizeMode@1@HHH@Z ENDP ; ETSLayoutMgr::panePosition
PUBLIC	?resizeTo@PanePosition@ETSLayoutMgr@@UAE_NAAVCRect@@_N1@Z ; ETSLayoutMgr::PanePosition::resizeTo
PUBLIC	??_7PanePosition@ETSLayoutMgr@@6B@		; ETSLayoutMgr::PanePosition::`vftable'
PUBLIC	??_GPanePosition@ETSLayoutMgr@@UAEPAXI@Z	; ETSLayoutMgr::PanePosition::`scalar deleting destructor'
PUBLIC	??_R4PanePosition@ETSLayoutMgr@@6B@		; ETSLayoutMgr::PanePosition::`RTTI Complete Object Locator'
PUBLIC	??_R0?AVPanePosition@ETSLayoutMgr@@@8		; ETSLayoutMgr::PanePosition `RTTI Type Descriptor'
PUBLIC	??_R3PanePosition@ETSLayoutMgr@@8		; ETSLayoutMgr::PanePosition::`RTTI Class Hierarchy Descriptor'
PUBLIC	??_R2PanePosition@ETSLayoutMgr@@8		; ETSLayoutMgr::PanePosition::`RTTI Base Class Array'
PUBLIC	??_R1A@?0A@A@PanePosition@ETSLayoutMgr@@8	; ETSLayoutMgr::PanePosition::`RTTI Base Class Descriptor at (0,-1,0,0)'
EXTRN	??_EPanePosition@ETSLayoutMgr@@UAEPAXI@Z:NEAR	; ETSLayoutMgr::PanePosition::`vector deleting destructor'
;	COMDAT ??_7PanePosition@ETSLayoutMgr@@6B@
CONST	SEGMENT
??_7PanePosition@ETSLayoutMgr@@6B@ DD FLAT:??_R4PanePosition@ETSLayoutMgr@@6B@ ; ETSLayoutMgr::PanePosition::`vftable'
	DD	FLAT:?getConstrainHorz@Pane@ETSLayoutMgr@@UAEHH@Z
	DD	FLAT:?getConstrainVert@Pane@ETSLayoutMgr@@UAEHH@Z
	DD	FLAT:?getMinConstrainHorz@Pane@ETSLayoutMgr@@UAEHXZ
	DD	FLAT:?getMaxConstrainHorz@Pane@ETSLayoutMgr@@UAEHXZ
	DD	FLAT:?getMinConstrainVert@Pane@ETSLayoutMgr@@UAEHXZ
	DD	FLAT:?getMaxConstrainVert@Pane@ETSLayoutMgr@@UAEHXZ
	DD	FLAT:?resizeTo@PanePosition@ETSLayoutMgr@@UAE_NAAVCRect@@_N1@Z
	DD	FLAT:?GetSubPane@Pane@ETSLayoutMgr@@UAE?AVCPaneBase@2@V?$CStringT@DV?$StrTraitMFC_DLL@DV?$ChTraitsCRT@D@ATL@@@@@ATL@@@Z
	DD	FLAT:??_EPanePosition@ETSLayoutMgr@@UAEPAXI@Z
	DD	FLAT:?showPane@Pane@ETSLayoutMgr@@UAEX_N@Z
	DD	FLAT:?addPane@Pane@ETSLayoutMgr@@UAE_NVCPane@2@W4layResizeMode@2@H@Z
	DD	FLAT:?addPane@Pane@ETSLayoutMgr@@UAE_NVCPaneBase@2@@Z
CONST	ENDS
;	COMDAT ??_R4PanePosition@ETSLayoutMgr@@6B@
rdata$r	SEGMENT
??_R4PanePosition@ETSLayoutMgr@@6B@ DD 00H		; ETSLayoutMgr::PanePosition::`RTTI Complete Object Locator'
	DD	00H
	DD	00H
	DD	FLAT:??_R0?AVPanePosition@ETSLayoutMgr@@@8
	DD	FLAT:??_R3PanePosition@ETSLayoutMgr@@8
rdata$r	ENDS
;	COMDAT ??_R0?AVPanePosition@ETSLayoutMgr@@@8
_DATA	SEGMENT
??_R0?AVPanePosition@ETSLayoutMgr@@@8 DD FLAT:??_7type_info@@6B@ ; ETSLayoutMgr::PanePosition `RTTI Type Descriptor'
	DD	00H
	DB	'.?AVPanePosition@ETSLayoutMgr@@', 00H
_DATA	ENDS
;	COMDAT ??_R3PanePosition@ETSLayoutMgr@@8
rdata$r	SEGMENT
??_R3PanePosition@ETSLayoutMgr@@8 DD 00H		; ETSLayoutMgr::PanePosition::`RTTI Class Hierarchy Descriptor'
	DD	00H
	DD	03H
	DD	FLAT:??_R2PanePosition@ETSLayoutMgr@@8
rdata$r	ENDS
;	COMDAT ??_R2PanePosition@ETSLayoutMgr@@8
rdata$r	SEGMENT
??_R2PanePosition@ETSLayoutMgr@@8 DD FLAT:??_R1A@?0A@A@PanePosition@ETSLayoutMgr@@8 ; ETSLayoutMgr::PanePosition::`RTTI Base Class Array'
	DD	FLAT:??_R1A@?0A@A@Pane@ETSLayoutMgr@@8
	DD	FLAT:??_R1A@?0A@A@PaneBase@ETSLayoutMgr@@8
rdata$r	ENDS
;	COMDAT ??_R1A@?0A@A@PanePosition@ETSLayoutMgr@@8
rdata$r	SEGMENT
??_R1A@?0A@A@PanePosition@ETSLayoutMgr@@8 DD FLAT:??_R0?AVPanePosition@ETSLayoutMgr@@@8 ; ETSLayoutMgr::PanePosition::`RTTI Base Class Descriptor at (0,-1,0,0)'
	DD	02H
	DD	00H
	DD	0ffffffffH
	DD	00H
	DD	00H
; Function compile flags: /Odt /RTCsu
rdata$r	ENDS
_TEXT	SEGMENT
_this$ = -4						; size = 4
_pMgr$ = 8						; size = 4
_orientation$ = 12					; size = 4
_sizeBorder$ = 16					; size = 4
_sizeExtraBorder$ = 20					; size = 4
??0PanePosition@ETSLayoutMgr@@QAE@PAV1@W4layOrientation@1@HH@Z PROC NEAR ; ETSLayoutMgr::PanePosition::PanePosition
; _this$ = ecx

; 664  : {

  02ac0	55		 push	 ebp
  02ac1	8b ec		 mov	 ebp, esp
  02ac3	51		 push	 ecx
  02ac4	c7 45 fc cc cc
	cc cc		 mov	 DWORD PTR [ebp-4], -858993460 ; ccccccccH
  02acb	89 4d fc	 mov	 DWORD PTR _this$[ebp], ecx
  02ace	8b 45 14	 mov	 eax, DWORD PTR _sizeExtraBorder$[ebp]
  02ad1	50		 push	 eax
  02ad2	8b 4d 10	 mov	 ecx, DWORD PTR _sizeBorder$[ebp]
  02ad5	51		 push	 ecx
  02ad6	8b 55 0c	 mov	 edx, DWORD PTR _orientation$[ebp]
  02ad9	52		 push	 edx
  02ada	8b 45 08	 mov	 eax, DWORD PTR _pMgr$[ebp]
  02add	50		 push	 eax
  02ade	8b 4d fc	 mov	 ecx, DWORD PTR _this$[ebp]
  02ae1	e8 00 00 00 00	 call	 ??0Pane@ETSLayoutMgr@@IAE@PAV1@W4layOrientation@1@HH@Z ; ETSLayoutMgr::Pane::Pane
  02ae6	8b 4d fc	 mov	 ecx, DWORD PTR _this$[ebp]
  02ae9	c7 01 00 00 00
	00		 mov	 DWORD PTR [ecx], OFFSET FLAT:??_7PanePosition@ETSLayoutMgr@@6B@

; 665  : }

  02aef	8b 45 fc	 mov	 eax, DWORD PTR _this$[ebp]
  02af2	83 c4 04	 add	 esp, 4
  02af5	3b ec		 cmp	 ebp, esp
  02af7	e8 00 00 00 00	 call	 __RTC_CheckEsp
  02afc	8b e5		 mov	 esp, ebp
  02afe	5d		 pop	 ebp
  02aff	c2 10 00	 ret	 16			; 00000010H
??0PanePosition@ETSLayoutMgr@@QAE@PAV1@W4layOrientation@1@HH@Z ENDP ; ETSLayoutMgr::PanePosition::PanePosition
_TEXT	ENDS
PUBLIC	??1PanePosition@ETSLayoutMgr@@UAE@XZ		; ETSLayoutMgr::PanePosition::~PanePosition
; Function compile flags: /Odt /RTCsu
;	COMDAT ??_GPanePosition@ETSLayoutMgr@@UAEPAXI@Z
_TEXT	SEGMENT
_this$ = -4						; size = 4
___flags$ = 8						; size = 4
??_GPanePosition@ETSLayoutMgr@@UAEPAXI@Z PROC NEAR	; ETSLayoutMgr::PanePosition::`scalar deleting destructor', COMDAT
; _this$ = ecx
  00000	55		 push	 ebp
  00001	8b ec		 mov	 ebp, esp
  00003	51		 push	 ecx
  00004	c7 45 fc cc cc
	cc cc		 mov	 DWORD PTR [ebp-4], -858993460 ; ccccccccH
  0000b	89 4d fc	 mov	 DWORD PTR _this$[ebp], ecx
  0000e	8b 4d fc	 mov	 ecx, DWORD PTR _this$[ebp]
  00011	e8 00 00 00 00	 call	 ??1PanePosition@ETSLayoutMgr@@UAE@XZ
  00016	8b 45 08	 mov	 eax, DWORD PTR ___flags$[ebp]
  00019	83 e0 01	 and	 eax, 1
  0001c	74 0c		 je	 SHORT $L190898
  0001e	8b 4d fc	 mov	 ecx, DWORD PTR _this$[ebp]
  00021	51		 push	 ecx
  00022	e8 00 00 00 00	 call	 ??3@YAXPAX@Z		; operator delete
  00027	83 c4 04	 add	 esp, 4
$L190898:
  0002a	8b 45 fc	 mov	 eax, DWORD PTR _this$[ebp]
  0002d	83 c4 04	 add	 esp, 4
  00030	3b ec		 cmp	 ebp, esp
  00032	e8 00 00 00 00	 call	 __RTC_CheckEsp
  00037	8b e5		 mov	 esp, ebp
  00039	5d		 pop	 ebp
  0003a	c2 04 00	 ret	 4
??_GPanePosition@ETSLayoutMgr@@UAEPAXI@Z ENDP		; ETSLayoutMgr::PanePosition::`scalar deleting destructor'
; Function compile flags: /Odt /RTCsu
_TEXT	ENDS
;	COMDAT ??1PanePosition@ETSLayoutMgr@@UAE@XZ
_TEXT	SEGMENT
_this$ = -4						; size = 4
??1PanePosition@ETSLayoutMgr@@UAE@XZ PROC NEAR		; ETSLayoutMgr::PanePosition::~PanePosition, COMDAT
; _this$ = ecx
  00000	55		 push	 ebp
  00001	8b ec		 mov	 ebp, esp
  00003	51		 push	 ecx
  00004	c7 45 fc cc cc
	cc cc		 mov	 DWORD PTR [ebp-4], -858993460 ; ccccccccH
  0000b	89 4d fc	 mov	 DWORD PTR _this$[ebp], ecx
  0000e	8b 4d fc	 mov	 ecx, DWORD PTR _this$[ebp]
  00011	e8 00 00 00 00	 call	 ??1Pane@ETSLayoutMgr@@UAE@XZ ; ETSLayoutMgr::Pane::~Pane
  00016	83 c4 04	 add	 esp, 4
  00019	3b ec		 cmp	 ebp, esp
  0001b	e8 00 00 00 00	 call	 __RTC_CheckEsp
  00020	8b e5		 mov	 esp, ebp
  00022	5d		 pop	 ebp
  00023	c3		 ret	 0
??1PanePosition@ETSLayoutMgr@@UAE@XZ ENDP		; ETSLayoutMgr::PanePosition::~PanePosition
_TEXT	ENDS
PUBLIC	?GetValue@ETSLayoutMgr@@QAEHV?$CStringT@DV?$StrTraitMFC_DLL@DV?$ChTraitsCRT@D@ATL@@@@@ATL@@AAV23@@Z ; ETSLayoutMgr::GetValue
EXTRN	??0CRect@@QAE@XZ:NEAR				; CRect::CRect
EXTRN	?GetWidth@CDibBitmap@@QAEHXZ:NEAR		; CDibBitmap::GetWidth
EXTRN	?GetHeight@CDibBitmap@@QAEHXZ:NEAR		; CDibBitmap::GetHeight
EXTRN	__imp__atoi:NEAR
xdata$x	SEGMENT
$T193451 DD	0ffffffffH
	DD	FLAT:$L193433
	DD	00H
	DD	FLAT:$L193434
	DD	01H
	DD	FLAT:$L193439
	DD	01H
	DD	FLAT:$L193440
	DD	01H
	DD	FLAT:$L193441
$T193443 DD	019930520H
	DD	05H
	DD	FLAT:$T193451
	DD	2 DUP(00H)
	DD	2 DUP(00H)
; Function compile flags: /Odt /RTCsu
xdata$x	ENDS
_TEXT	SEGMENT
tv484 = -216						; size = 4
tv421 = -212						; size = 4
tv416 = -208						; size = 4
tv511 = -204						; size = 4
tv516 = -200						; size = 4
tv392 = -196						; size = 4
tv387 = -192						; size = 4
tv509 = -188						; size = 4
tv513 = -184						; size = 4
tv507 = -180						; size = 4
tv506 = -176						; size = 4
tv503 = -172						; size = 4
tv502 = -168						; size = 4
tv499 = -164						; size = 4
tv498 = -160						; size = 4
tv495 = -156						; size = 4
tv494 = -152						; size = 4
$T193432 = -148						; size = 4
$T193431 = -144						; size = 4
$T193430 = -140						; size = 4
$T193429 = -136						; size = 4
$T193428 = -132						; size = 4
$T193427 = -128						; size = 4
_name$190972 = -120					; size = 4
_pBmp$190968 = -112					; size = 4
_pBmp$190963 = -108					; size = 4
_r$190940 = -100					; size = 16
_mode$190929 = -80					; size = 4
_percent_rangex$190928 = -76				; size = 4
_percent_rangey$190927 = -72				; size = 4
_value$190918 = -64					; size = 4
_percent_end$190917 = -56				; size = 4
_percent_start$190916 = -52				; size = 4
_ey$190915 = -48					; size = 4
_ex$190914 = -44					; size = 4
_sy$190913 = -40					; size = 4
_sx$190912 = -36					; size = 4
_base$190911 = -28					; size = 4
_i$190907 = -20						; size = 4
_this$ = -16						; size = 4
__$EHRec$ = -12						; size = 12
_rcNewArea$ = 8						; size = 4
_bRedraw$ = 12						; size = 1
_bReSizeAlways$ = 16					; size = 1
?resizeTo@PanePosition@ETSLayoutMgr@@UAE_NAAVCRect@@_N1@Z PROC NEAR ; ETSLayoutMgr::PanePosition::resizeTo
; _this$ = ecx

; 670  : {

  02b10	55		 push	 ebp
  02b11	8b ec		 mov	 ebp, esp
  02b13	6a ff		 push	 -1
  02b15	68 00 00 00 00	 push	 __ehhandler$?resizeTo@PanePosition@ETSLayoutMgr@@UAE_NAAVCRect@@_N1@Z
  02b1a	64 a1 00 00 00
	00		 mov	 eax, DWORD PTR fs:__except_list
  02b20	50		 push	 eax
  02b21	64 89 25 00 00
	00 00		 mov	 DWORD PTR fs:__except_list, esp
  02b28	81 ec cc 00 00
	00		 sub	 esp, 204		; 000000ccH
  02b2e	56		 push	 esi
  02b2f	57		 push	 edi
  02b30	51		 push	 ecx
  02b31	8d bd 28 ff ff
	ff		 lea	 edi, DWORD PTR [ebp-216]
  02b37	b9 33 00 00 00	 mov	 ecx, 51			; 00000033H
  02b3c	b8 cc cc cc cc	 mov	 eax, -858993460		; ccccccccH
  02b41	f3 ab		 rep stosd
  02b43	59		 pop	 ecx
  02b44	89 4d f0	 mov	 DWORD PTR _this$[ebp], ecx

; 671  : 	m_rcRect = rcNewArea;

  02b47	8b 45 08	 mov	 eax, DWORD PTR _rcNewArea$[ebp]
  02b4a	8b 4d f0	 mov	 ecx, DWORD PTR _this$[ebp]
  02b4d	83 c1 28	 add	 ecx, 40			; 00000028H
  02b50	8b 10		 mov	 edx, DWORD PTR [eax]
  02b52	89 11		 mov	 DWORD PTR [ecx], edx
  02b54	8b 50 04	 mov	 edx, DWORD PTR [eax+4]
  02b57	89 51 04	 mov	 DWORD PTR [ecx+4], edx
  02b5a	8b 50 08	 mov	 edx, DWORD PTR [eax+8]
  02b5d	89 51 08	 mov	 DWORD PTR [ecx+8], edx
  02b60	8b 40 0c	 mov	 eax, DWORD PTR [eax+12]
  02b63	89 41 0c	 mov	 DWORD PTR [ecx+12], eax

; 672  : 	for(int i = 0 ; i<m_paneItems.GetSize(); i++)

  02b66	c7 45 ec 00 00
	00 00		 mov	 DWORD PTR _i$190907[ebp], 0
  02b6d	eb 09		 jmp	 SHORT $L190908
$L190909:
  02b6f	8b 4d ec	 mov	 ecx, DWORD PTR _i$190907[ebp]
  02b72	83 c1 01	 add	 ecx, 1
  02b75	89 4d ec	 mov	 DWORD PTR _i$190907[ebp], ecx
$L190908:
  02b78	8b 4d f0	 mov	 ecx, DWORD PTR _this$[ebp]
  02b7b	83 c1 64	 add	 ecx, 100		; 00000064H
  02b7e	e8 00 00 00 00	 call	 ?GetSize@?$CArray@VCPaneBase@ETSLayoutMgr@@V12@@@QBEHXZ ; CArray<ETSLayoutMgr::CPaneBase,ETSLayoutMgr::CPaneBase>::GetSize
  02b83	39 45 ec	 cmp	 DWORD PTR _i$190907[ebp], eax
  02b86	0f 8d 36 08 00
	00		 jge	 $L190910

; 673  : 	{
; 674  : 		CPaneBase base = m_paneItems[i];

  02b8c	8b 55 ec	 mov	 edx, DWORD PTR _i$190907[ebp]
  02b8f	52		 push	 edx
  02b90	8b 4d f0	 mov	 ecx, DWORD PTR _this$[ebp]
  02b93	83 c1 64	 add	 ecx, 100		; 00000064H
  02b96	e8 00 00 00 00	 call	 ??A?$CArray@VCPaneBase@ETSLayoutMgr@@V12@@@QAEAAVCPaneBase@ETSLayoutMgr@@H@Z ; CArray<ETSLayoutMgr::CPaneBase,ETSLayoutMgr::CPaneBase>::operator[]
  02b9b	50		 push	 eax
  02b9c	8d 4d e4	 lea	 ecx, DWORD PTR _base$190911[ebp]
  02b9f	e8 00 00 00 00	 call	 ??0CPaneBase@ETSLayoutMgr@@QAE@ABV01@@Z ; ETSLayoutMgr::CPaneBase::CPaneBase
  02ba4	c7 45 fc 00 00
	00 00		 mov	 DWORD PTR __$EHRec$[ebp+8], 0

; 675  : 		
; 676  : 		int sx = atoi(base.GetPaneBase()->m_start_x);

  02bab	8d 4d e4	 lea	 ecx, DWORD PTR _base$190911[ebp]
  02bae	e8 00 00 00 00	 call	 ?GetPaneBase@CPaneBase@ETSLayoutMgr@@QAEPAVPaneBase@2@XZ ; ETSLayoutMgr::CPaneBase::GetPaneBase
  02bb3	83 c0 3c	 add	 eax, 60			; 0000003cH
  02bb6	8b f4		 mov	 esi, esp
  02bb8	8b c8		 mov	 ecx, eax
  02bba	ff 15 00 00 00
	00		 call	 DWORD PTR __imp_??B?$CSimpleStringT@D$00@ATL@@QBEPBDXZ
  02bc0	3b f4		 cmp	 esi, esp
  02bc2	e8 00 00 00 00	 call	 __RTC_CheckEsp
  02bc7	8b f4		 mov	 esi, esp
  02bc9	50		 push	 eax
  02bca	ff 15 00 00 00
	00		 call	 DWORD PTR __imp__atoi
  02bd0	83 c4 04	 add	 esp, 4
  02bd3	3b f4		 cmp	 esi, esp
  02bd5	e8 00 00 00 00	 call	 __RTC_CheckEsp
  02bda	89 45 dc	 mov	 DWORD PTR _sx$190912[ebp], eax

; 677  : 		int sy = atoi(base.GetPaneBase()->m_start_y);

  02bdd	8d 4d e4	 lea	 ecx, DWORD PTR _base$190911[ebp]
  02be0	e8 00 00 00 00	 call	 ?GetPaneBase@CPaneBase@ETSLayoutMgr@@QAEPAVPaneBase@2@XZ ; ETSLayoutMgr::CPaneBase::GetPaneBase
  02be5	83 c0 40	 add	 eax, 64			; 00000040H
  02be8	8b f4		 mov	 esi, esp
  02bea	8b c8		 mov	 ecx, eax
  02bec	ff 15 00 00 00
	00		 call	 DWORD PTR __imp_??B?$CSimpleStringT@D$00@ATL@@QBEPBDXZ
  02bf2	3b f4		 cmp	 esi, esp
  02bf4	e8 00 00 00 00	 call	 __RTC_CheckEsp
  02bf9	8b f4		 mov	 esi, esp
  02bfb	50		 push	 eax
  02bfc	ff 15 00 00 00
	00		 call	 DWORD PTR __imp__atoi
  02c02	83 c4 04	 add	 esp, 4
  02c05	3b f4		 cmp	 esi, esp
  02c07	e8 00 00 00 00	 call	 __RTC_CheckEsp
  02c0c	89 45 d8	 mov	 DWORD PTR _sy$190913[ebp], eax

; 678  : 		int ex = atoi(base.GetPaneBase()->m_end_x);

  02c0f	8d 4d e4	 lea	 ecx, DWORD PTR _base$190911[ebp]
  02c12	e8 00 00 00 00	 call	 ?GetPaneBase@CPaneBase@ETSLayoutMgr@@QAEPAVPaneBase@2@XZ ; ETSLayoutMgr::CPaneBase::GetPaneBase
  02c17	83 c0 44	 add	 eax, 68			; 00000044H
  02c1a	8b f4		 mov	 esi, esp
  02c1c	8b c8		 mov	 ecx, eax
  02c1e	ff 15 00 00 00
	00		 call	 DWORD PTR __imp_??B?$CSimpleStringT@D$00@ATL@@QBEPBDXZ
  02c24	3b f4		 cmp	 esi, esp
  02c26	e8 00 00 00 00	 call	 __RTC_CheckEsp
  02c2b	8b f4		 mov	 esi, esp
  02c2d	50		 push	 eax
  02c2e	ff 15 00 00 00
	00		 call	 DWORD PTR __imp__atoi
  02c34	83 c4 04	 add	 esp, 4
  02c37	3b f4		 cmp	 esi, esp
  02c39	e8 00 00 00 00	 call	 __RTC_CheckEsp
  02c3e	89 45 d4	 mov	 DWORD PTR _ex$190914[ebp], eax

; 679  : 		int ey = atoi(base.GetPaneBase()->m_end_y);

  02c41	8d 4d e4	 lea	 ecx, DWORD PTR _base$190911[ebp]
  02c44	e8 00 00 00 00	 call	 ?GetPaneBase@CPaneBase@ETSLayoutMgr@@QAEPAVPaneBase@2@XZ ; ETSLayoutMgr::CPaneBase::GetPaneBase
  02c49	83 c0 48	 add	 eax, 72			; 00000048H
  02c4c	8b f4		 mov	 esi, esp
  02c4e	8b c8		 mov	 ecx, eax
  02c50	ff 15 00 00 00
	00		 call	 DWORD PTR __imp_??B?$CSimpleStringT@D$00@ATL@@QBEPBDXZ
  02c56	3b f4		 cmp	 esi, esp
  02c58	e8 00 00 00 00	 call	 __RTC_CheckEsp
  02c5d	8b f4		 mov	 esi, esp
  02c5f	50		 push	 eax
  02c60	ff 15 00 00 00
	00		 call	 DWORD PTR __imp__atoi
  02c66	83 c4 04	 add	 esp, 4
  02c69	3b f4		 cmp	 esi, esp
  02c6b	e8 00 00 00 00	 call	 __RTC_CheckEsp
  02c70	89 45 d0	 mov	 DWORD PTR _ey$190915[ebp], eax

; 680  : 
; 681  : 		int percent_start, percent_end;
; 682  : 
; 683  : 		percent_start = atoi(base.GetPaneBase()->m_percent_start);

  02c73	8d 4d e4	 lea	 ecx, DWORD PTR _base$190911[ebp]
  02c76	e8 00 00 00 00	 call	 ?GetPaneBase@CPaneBase@ETSLayoutMgr@@QAEPAVPaneBase@2@XZ ; ETSLayoutMgr::CPaneBase::GetPaneBase
  02c7b	83 c0 4c	 add	 eax, 76			; 0000004cH
  02c7e	8b f4		 mov	 esi, esp
  02c80	8b c8		 mov	 ecx, eax
  02c82	ff 15 00 00 00
	00		 call	 DWORD PTR __imp_??B?$CSimpleStringT@D$00@ATL@@QBEPBDXZ
  02c88	3b f4		 cmp	 esi, esp
  02c8a	e8 00 00 00 00	 call	 __RTC_CheckEsp
  02c8f	8b f4		 mov	 esi, esp
  02c91	50		 push	 eax
  02c92	ff 15 00 00 00
	00		 call	 DWORD PTR __imp__atoi
  02c98	83 c4 04	 add	 esp, 4
  02c9b	3b f4		 cmp	 esi, esp
  02c9d	e8 00 00 00 00	 call	 __RTC_CheckEsp
  02ca2	89 45 cc	 mov	 DWORD PTR _percent_start$190916[ebp], eax

; 684  : 		percent_end = atoi(base.GetPaneBase()->m_percent_end);

  02ca5	8d 4d e4	 lea	 ecx, DWORD PTR _base$190911[ebp]
  02ca8	e8 00 00 00 00	 call	 ?GetPaneBase@CPaneBase@ETSLayoutMgr@@QAEPAVPaneBase@2@XZ ; ETSLayoutMgr::CPaneBase::GetPaneBase
  02cad	83 c0 50	 add	 eax, 80			; 00000050H
  02cb0	8b f4		 mov	 esi, esp
  02cb2	8b c8		 mov	 ecx, eax
  02cb4	ff 15 00 00 00
	00		 call	 DWORD PTR __imp_??B?$CSimpleStringT@D$00@ATL@@QBEPBDXZ
  02cba	3b f4		 cmp	 esi, esp
  02cbc	e8 00 00 00 00	 call	 __RTC_CheckEsp
  02cc1	8b f4		 mov	 esi, esp
  02cc3	50		 push	 eax
  02cc4	ff 15 00 00 00
	00		 call	 DWORD PTR __imp__atoi
  02cca	83 c4 04	 add	 esp, 4
  02ccd	3b f4		 cmp	 esi, esp
  02ccf	e8 00 00 00 00	 call	 __RTC_CheckEsp
  02cd4	89 45 c8	 mov	 DWORD PTR _percent_end$190917[ebp], eax

; 685  : 
; 686  : 		CString value;

  02cd7	8b f4		 mov	 esi, esp
  02cd9	8d 4d c0	 lea	 ecx, DWORD PTR _value$190918[ebp]
  02cdc	ff 15 00 00 00
	00		 call	 DWORD PTR __imp_??0?$CStringT@DV?$StrTraitMFC_DLL@DV?$ChTraitsCRT@D@ATL@@@@@ATL@@QAE@XZ
  02ce2	3b f4		 cmp	 esi, esp
  02ce4	e8 00 00 00 00	 call	 __RTC_CheckEsp
  02ce9	c6 45 fc 01	 mov	 BYTE PTR __$EHRec$[ebp+8], 1

; 687  : 		if(m_pMgr->GetValue(base.GetPaneBase()->m_start_x,value))

  02ced	8d 45 c0	 lea	 eax, DWORD PTR _value$190918[ebp]
  02cf0	50		 push	 eax
  02cf1	8d 4d e4	 lea	 ecx, DWORD PTR _base$190911[ebp]
  02cf4	e8 00 00 00 00	 call	 ?GetPaneBase@CPaneBase@ETSLayoutMgr@@QAEPAVPaneBase@2@XZ ; ETSLayoutMgr::CPaneBase::GetPaneBase
  02cf9	83 c0 3c	 add	 eax, 60			; 0000003cH
  02cfc	51		 push	 ecx
  02cfd	8b cc		 mov	 ecx, esp
  02cff	89 65 80	 mov	 DWORD PTR $T193427[ebp], esp
  02d02	8b f4		 mov	 esi, esp
  02d04	50		 push	 eax
  02d05	ff 15 00 00 00
	00		 call	 DWORD PTR __imp_??0?$CStringT@DV?$StrTraitMFC_DLL@DV?$ChTraitsCRT@D@ATL@@@@@ATL@@QAE@ABV01@@Z
  02d0b	3b f4		 cmp	 esi, esp
  02d0d	e8 00 00 00 00	 call	 __RTC_CheckEsp
  02d12	89 85 68 ff ff
	ff		 mov	 DWORD PTR tv494[ebp], eax
  02d18	8b 4d f0	 mov	 ecx, DWORD PTR _this$[ebp]
  02d1b	8b 49 38	 mov	 ecx, DWORD PTR [ecx+56]
  02d1e	e8 00 00 00 00	 call	 ?GetValue@ETSLayoutMgr@@QAEHV?$CStringT@DV?$StrTraitMFC_DLL@DV?$ChTraitsCRT@D@ATL@@@@@ATL@@AAV23@@Z ; ETSLayoutMgr::GetValue
  02d23	89 85 64 ff ff
	ff		 mov	 DWORD PTR tv495[ebp], eax
  02d29	83 bd 64 ff ff
	ff 00		 cmp	 DWORD PTR tv495[ebp], 0
  02d30	74 28		 je	 SHORT $L190920

; 688  : 			sx = atoi(value);

  02d32	8b f4		 mov	 esi, esp
  02d34	8d 4d c0	 lea	 ecx, DWORD PTR _value$190918[ebp]
  02d37	ff 15 00 00 00
	00		 call	 DWORD PTR __imp_??B?$CSimpleStringT@D$00@ATL@@QBEPBDXZ
  02d3d	3b f4		 cmp	 esi, esp
  02d3f	e8 00 00 00 00	 call	 __RTC_CheckEsp
  02d44	8b f4		 mov	 esi, esp
  02d46	50		 push	 eax
  02d47	ff 15 00 00 00
	00		 call	 DWORD PTR __imp__atoi
  02d4d	83 c4 04	 add	 esp, 4
  02d50	3b f4		 cmp	 esi, esp
  02d52	e8 00 00 00 00	 call	 __RTC_CheckEsp
  02d57	89 45 dc	 mov	 DWORD PTR _sx$190912[ebp], eax
$L190920:

; 689  : 		if(m_pMgr->GetValue(base.GetPaneBase()->m_start_y,value))

  02d5a	8d 55 c0	 lea	 edx, DWORD PTR _value$190918[ebp]
  02d5d	52		 push	 edx
  02d5e	8d 4d e4	 lea	 ecx, DWORD PTR _base$190911[ebp]
  02d61	e8 00 00 00 00	 call	 ?GetPaneBase@CPaneBase@ETSLayoutMgr@@QAEPAVPaneBase@2@XZ ; ETSLayoutMgr::CPaneBase::GetPaneBase
  02d66	83 c0 40	 add	 eax, 64			; 00000040H
  02d69	51		 push	 ecx
  02d6a	8b cc		 mov	 ecx, esp
  02d6c	89 a5 7c ff ff
	ff		 mov	 DWORD PTR $T193428[ebp], esp
  02d72	8b f4		 mov	 esi, esp
  02d74	50		 push	 eax
  02d75	ff 15 00 00 00
	00		 call	 DWORD PTR __imp_??0?$CStringT@DV?$StrTraitMFC_DLL@DV?$ChTraitsCRT@D@ATL@@@@@ATL@@QAE@ABV01@@Z
  02d7b	3b f4		 cmp	 esi, esp
  02d7d	e8 00 00 00 00	 call	 __RTC_CheckEsp
  02d82	89 85 60 ff ff
	ff		 mov	 DWORD PTR tv498[ebp], eax
  02d88	8b 45 f0	 mov	 eax, DWORD PTR _this$[ebp]
  02d8b	8b 48 38	 mov	 ecx, DWORD PTR [eax+56]
  02d8e	e8 00 00 00 00	 call	 ?GetValue@ETSLayoutMgr@@QAEHV?$CStringT@DV?$StrTraitMFC_DLL@DV?$ChTraitsCRT@D@ATL@@@@@ATL@@AAV23@@Z ; ETSLayoutMgr::GetValue
  02d93	89 85 5c ff ff
	ff		 mov	 DWORD PTR tv499[ebp], eax
  02d99	83 bd 5c ff ff
	ff 00		 cmp	 DWORD PTR tv499[ebp], 0
  02da0	74 28		 je	 SHORT $L190922

; 690  : 			sy = atoi(value);

  02da2	8b f4		 mov	 esi, esp
  02da4	8d 4d c0	 lea	 ecx, DWORD PTR _value$190918[ebp]
  02da7	ff 15 00 00 00
	00		 call	 DWORD PTR __imp_??B?$CSimpleStringT@D$00@ATL@@QBEPBDXZ
  02dad	3b f4		 cmp	 esi, esp
  02daf	e8 00 00 00 00	 call	 __RTC_CheckEsp
  02db4	8b f4		 mov	 esi, esp
  02db6	50		 push	 eax
  02db7	ff 15 00 00 00
	00		 call	 DWORD PTR __imp__atoi
  02dbd	83 c4 04	 add	 esp, 4
  02dc0	3b f4		 cmp	 esi, esp
  02dc2	e8 00 00 00 00	 call	 __RTC_CheckEsp
  02dc7	89 45 d8	 mov	 DWORD PTR _sy$190913[ebp], eax
$L190922:

; 691  : 		if(m_pMgr->GetValue(base.GetPaneBase()->m_end_x,value))

  02dca	8d 4d c0	 lea	 ecx, DWORD PTR _value$190918[ebp]
  02dcd	51		 push	 ecx
  02dce	8d 4d e4	 lea	 ecx, DWORD PTR _base$190911[ebp]
  02dd1	e8 00 00 00 00	 call	 ?GetPaneBase@CPaneBase@ETSLayoutMgr@@QAEPAVPaneBase@2@XZ ; ETSLayoutMgr::CPaneBase::GetPaneBase
  02dd6	83 c0 44	 add	 eax, 68			; 00000044H
  02dd9	51		 push	 ecx
  02dda	8b cc		 mov	 ecx, esp
  02ddc	89 a5 78 ff ff
	ff		 mov	 DWORD PTR $T193429[ebp], esp
  02de2	8b f4		 mov	 esi, esp
  02de4	50		 push	 eax
  02de5	ff 15 00 00 00
	00		 call	 DWORD PTR __imp_??0?$CStringT@DV?$StrTraitMFC_DLL@DV?$ChTraitsCRT@D@ATL@@@@@ATL@@QAE@ABV01@@Z
  02deb	3b f4		 cmp	 esi, esp
  02ded	e8 00 00 00 00	 call	 __RTC_CheckEsp
  02df2	89 85 58 ff ff
	ff		 mov	 DWORD PTR tv502[ebp], eax
  02df8	8b 55 f0	 mov	 edx, DWORD PTR _this$[ebp]
  02dfb	8b 4a 38	 mov	 ecx, DWORD PTR [edx+56]
  02dfe	e8 00 00 00 00	 call	 ?GetValue@ETSLayoutMgr@@QAEHV?$CStringT@DV?$StrTraitMFC_DLL@DV?$ChTraitsCRT@D@ATL@@@@@ATL@@AAV23@@Z ; ETSLayoutMgr::GetValue
  02e03	89 85 54 ff ff
	ff		 mov	 DWORD PTR tv503[ebp], eax
  02e09	83 bd 54 ff ff
	ff 00		 cmp	 DWORD PTR tv503[ebp], 0
  02e10	74 28		 je	 SHORT $L190924

; 692  : 			ex = atoi(value);

  02e12	8b f4		 mov	 esi, esp
  02e14	8d 4d c0	 lea	 ecx, DWORD PTR _value$190918[ebp]
  02e17	ff 15 00 00 00
	00		 call	 DWORD PTR __imp_??B?$CSimpleStringT@D$00@ATL@@QBEPBDXZ
  02e1d	3b f4		 cmp	 esi, esp
  02e1f	e8 00 00 00 00	 call	 __RTC_CheckEsp
  02e24	8b f4		 mov	 esi, esp
  02e26	50		 push	 eax
  02e27	ff 15 00 00 00
	00		 call	 DWORD PTR __imp__atoi
  02e2d	83 c4 04	 add	 esp, 4
  02e30	3b f4		 cmp	 esi, esp
  02e32	e8 00 00 00 00	 call	 __RTC_CheckEsp
  02e37	89 45 d4	 mov	 DWORD PTR _ex$190914[ebp], eax
$L190924:

; 693  : 		if(m_pMgr->GetValue(base.GetPaneBase()->m_end_y,value))

  02e3a	8d 45 c0	 lea	 eax, DWORD PTR _value$190918[ebp]
  02e3d	50		 push	 eax
  02e3e	8d 4d e4	 lea	 ecx, DWORD PTR _base$190911[ebp]
  02e41	e8 00 00 00 00	 call	 ?GetPaneBase@CPaneBase@ETSLayoutMgr@@QAEPAVPaneBase@2@XZ ; ETSLayoutMgr::CPaneBase::GetPaneBase
  02e46	83 c0 48	 add	 eax, 72			; 00000048H
  02e49	51		 push	 ecx
  02e4a	8b cc		 mov	 ecx, esp
  02e4c	89 a5 74 ff ff
	ff		 mov	 DWORD PTR $T193430[ebp], esp
  02e52	8b f4		 mov	 esi, esp
  02e54	50		 push	 eax
  02e55	ff 15 00 00 00
	00		 call	 DWORD PTR __imp_??0?$CStringT@DV?$StrTraitMFC_DLL@DV?$ChTraitsCRT@D@ATL@@@@@ATL@@QAE@ABV01@@Z
  02e5b	3b f4		 cmp	 esi, esp
  02e5d	e8 00 00 00 00	 call	 __RTC_CheckEsp
  02e62	89 85 50 ff ff
	ff		 mov	 DWORD PTR tv506[ebp], eax
  02e68	8b 4d f0	 mov	 ecx, DWORD PTR _this$[ebp]
  02e6b	8b 49 38	 mov	 ecx, DWORD PTR [ecx+56]
  02e6e	e8 00 00 00 00	 call	 ?GetValue@ETSLayoutMgr@@QAEHV?$CStringT@DV?$StrTraitMFC_DLL@DV?$ChTraitsCRT@D@ATL@@@@@ATL@@AAV23@@Z ; ETSLayoutMgr::GetValue
  02e73	89 85 4c ff ff
	ff		 mov	 DWORD PTR tv507[ebp], eax
  02e79	83 bd 4c ff ff
	ff 00		 cmp	 DWORD PTR tv507[ebp], 0
  02e80	74 28		 je	 SHORT $L190926

; 694  : 			ey = atoi(value);

  02e82	8b f4		 mov	 esi, esp
  02e84	8d 4d c0	 lea	 ecx, DWORD PTR _value$190918[ebp]
  02e87	ff 15 00 00 00
	00		 call	 DWORD PTR __imp_??B?$CSimpleStringT@D$00@ATL@@QBEPBDXZ
  02e8d	3b f4		 cmp	 esi, esp
  02e8f	e8 00 00 00 00	 call	 __RTC_CheckEsp
  02e94	8b f4		 mov	 esi, esp
  02e96	50		 push	 eax
  02e97	ff 15 00 00 00
	00		 call	 DWORD PTR __imp__atoi
  02e9d	83 c4 04	 add	 esp, 4
  02ea0	3b f4		 cmp	 esi, esp
  02ea2	e8 00 00 00 00	 call	 __RTC_CheckEsp
  02ea7	89 45 d0	 mov	 DWORD PTR _ey$190915[ebp], eax
$L190926:

; 695  : 
; 696  : 		int percent_rangey = 0;

  02eaa	c7 45 b8 00 00
	00 00		 mov	 DWORD PTR _percent_rangey$190927[ebp], 0

; 697  : 		int percent_rangex = 0;

  02eb1	c7 45 b4 00 00
	00 00		 mov	 DWORD PTR _percent_rangex$190928[ebp], 0

; 698  : 		DWORD mode = base.GetPaneBase()->m_posMode;

  02eb8	8d 4d e4	 lea	 ecx, DWORD PTR _base$190911[ebp]
  02ebb	e8 00 00 00 00	 call	 ?GetPaneBase@CPaneBase@ETSLayoutMgr@@QAEPAVPaneBase@2@XZ ; ETSLayoutMgr::CPaneBase::GetPaneBase
  02ec0	8b 50 54	 mov	 edx, DWORD PTR [eax+84]
  02ec3	89 55 b0	 mov	 DWORD PTR _mode$190929[ebp], edx

; 699  : 		if(mode & ETSLayoutMgr::START_X_PERCENT | mode & ETSLayoutMgr::END_X_PERCENT)

  02ec6	8b 45 b0	 mov	 eax, DWORD PTR _mode$190929[ebp]
  02ec9	25 00 01 00 00	 and	 eax, 256		; 00000100H
  02ece	8b 4d b0	 mov	 ecx, DWORD PTR _mode$190929[ebp]
  02ed1	81 e1 00 04 00
	00		 and	 ecx, 1024		; 00000400H
  02ed7	0b c1		 or	 eax, ecx
  02ed9	74 49		 je	 SHORT $L190930

; 700  : 		{
; 701  : 			percent_rangex = rcNewArea.Width();

  02edb	8b 4d 08	 mov	 ecx, DWORD PTR _rcNewArea$[ebp]
  02ede	e8 00 00 00 00	 call	 ?Width@CRect@@QBEHXZ	; CRect::Width
  02ee3	89 45 b4	 mov	 DWORD PTR _percent_rangex$190928[ebp], eax

; 702  : 			if(percent_start > 0)

  02ee6	83 7d cc 00	 cmp	 DWORD PTR _percent_start$190916[ebp], 0
  02eea	7e 0b		 jle	 SHORT $L190931

; 703  : 				percent_rangex -= percent_start;

  02eec	8b 55 b4	 mov	 edx, DWORD PTR _percent_rangex$190928[ebp]
  02eef	2b 55 cc	 sub	 edx, DWORD PTR _percent_start$190916[ebp]
  02ef2	89 55 b4	 mov	 DWORD PTR _percent_rangex$190928[ebp], edx

; 704  : 			else

  02ef5	eb 09		 jmp	 SHORT $L190932
$L190931:

; 705  : 				percent_rangex += percent_start;

  02ef7	8b 45 b4	 mov	 eax, DWORD PTR _percent_rangex$190928[ebp]
  02efa	03 45 cc	 add	 eax, DWORD PTR _percent_start$190916[ebp]
  02efd	89 45 b4	 mov	 DWORD PTR _percent_rangex$190928[ebp], eax
$L190932:

; 706  : 
; 707  : 			if(percent_end > 0)

  02f00	83 7d c8 00	 cmp	 DWORD PTR _percent_end$190917[ebp], 0
  02f04	7e 15		 jle	 SHORT $L190933

; 708  : 				percent_rangex -= rcNewArea.Width() - percent_end;

  02f06	8b 4d 08	 mov	 ecx, DWORD PTR _rcNewArea$[ebp]
  02f09	e8 00 00 00 00	 call	 ?Width@CRect@@QBEHXZ	; CRect::Width
  02f0e	2b 45 c8	 sub	 eax, DWORD PTR _percent_end$190917[ebp]
  02f11	8b 4d b4	 mov	 ecx, DWORD PTR _percent_rangex$190928[ebp]
  02f14	2b c8		 sub	 ecx, eax
  02f16	89 4d b4	 mov	 DWORD PTR _percent_rangex$190928[ebp], ecx

; 709  : 			else

  02f19	eb 09		 jmp	 SHORT $L190930
$L190933:

; 710  : 				percent_rangex += percent_end;

  02f1b	8b 55 b4	 mov	 edx, DWORD PTR _percent_rangex$190928[ebp]
  02f1e	03 55 c8	 add	 edx, DWORD PTR _percent_end$190917[ebp]
  02f21	89 55 b4	 mov	 DWORD PTR _percent_rangex$190928[ebp], edx
$L190930:

; 711  : 		}
; 712  : 		if(mode & ETSLayoutMgr::START_Y_PERCENT | mode & ETSLayoutMgr::END_Y_PERCENT)

  02f24	8b 45 b0	 mov	 eax, DWORD PTR _mode$190929[ebp]
  02f27	25 00 02 00 00	 and	 eax, 512		; 00000200H
  02f2c	8b 4d b0	 mov	 ecx, DWORD PTR _mode$190929[ebp]
  02f2f	81 e1 00 08 00
	00		 and	 ecx, 2048		; 00000800H
  02f35	0b c1		 or	 eax, ecx
  02f37	74 49		 je	 SHORT $L190935

; 713  : 		{
; 714  : 			percent_rangey = rcNewArea.Height();

  02f39	8b 4d 08	 mov	 ecx, DWORD PTR _rcNewArea$[ebp]
  02f3c	e8 00 00 00 00	 call	 ?Height@CRect@@QBEHXZ	; CRect::Height
  02f41	89 45 b8	 mov	 DWORD PTR _percent_rangey$190927[ebp], eax

; 715  : 			if(percent_start > 0)

  02f44	83 7d cc 00	 cmp	 DWORD PTR _percent_start$190916[ebp], 0
  02f48	7e 0b		 jle	 SHORT $L190936

; 716  : 				percent_rangey -= percent_start;

  02f4a	8b 55 b8	 mov	 edx, DWORD PTR _percent_rangey$190927[ebp]
  02f4d	2b 55 cc	 sub	 edx, DWORD PTR _percent_start$190916[ebp]
  02f50	89 55 b8	 mov	 DWORD PTR _percent_rangey$190927[ebp], edx

; 717  : 			else

  02f53	eb 09		 jmp	 SHORT $L190937
$L190936:

; 718  : 				percent_rangey += percent_start;

  02f55	8b 45 b8	 mov	 eax, DWORD PTR _percent_rangey$190927[ebp]
  02f58	03 45 cc	 add	 eax, DWORD PTR _percent_start$190916[ebp]
  02f5b	89 45 b8	 mov	 DWORD PTR _percent_rangey$190927[ebp], eax
$L190937:

; 719  : 
; 720  : 			if(percent_end > 0)

  02f5e	83 7d c8 00	 cmp	 DWORD PTR _percent_end$190917[ebp], 0
  02f62	7e 15		 jle	 SHORT $L190938

; 721  : 				percent_rangey -= rcNewArea.Height() - percent_end;

  02f64	8b 4d 08	 mov	 ecx, DWORD PTR _rcNewArea$[ebp]
  02f67	e8 00 00 00 00	 call	 ?Height@CRect@@QBEHXZ	; CRect::Height
  02f6c	2b 45 c8	 sub	 eax, DWORD PTR _percent_end$190917[ebp]
  02f6f	8b 4d b8	 mov	 ecx, DWORD PTR _percent_rangey$190927[ebp]
  02f72	2b c8		 sub	 ecx, eax
  02f74	89 4d b8	 mov	 DWORD PTR _percent_rangey$190927[ebp], ecx

; 722  : 			else

  02f77	eb 09		 jmp	 SHORT $L190935
$L190938:

; 723  : 				percent_rangey += percent_end;

  02f79	8b 55 b8	 mov	 edx, DWORD PTR _percent_rangey$190927[ebp]
  02f7c	03 55 c8	 add	 edx, DWORD PTR _percent_end$190917[ebp]
  02f7f	89 55 b8	 mov	 DWORD PTR _percent_rangey$190927[ebp], edx
$L190935:

; 724  : 		}
; 725  : 
; 726  : 		CRect r;

  02f82	8d 4d 9c	 lea	 ecx, DWORD PTR _r$190940[ebp]
  02f85	e8 00 00 00 00	 call	 ??0CRect@@QAE@XZ	; CRect::CRect

; 727  : 		if(mode & ETSLayoutMgr::START_X_FROM_LEFT)

  02f8a	8b 45 b0	 mov	 eax, DWORD PTR _mode$190929[ebp]
  02f8d	83 e0 01	 and	 eax, 1
  02f90	74 0b		 je	 SHORT $L190941

; 728  : 			r.left = rcNewArea.left + sx;

  02f92	8b 4d 08	 mov	 ecx, DWORD PTR _rcNewArea$[ebp]
  02f95	8b 11		 mov	 edx, DWORD PTR [ecx]
  02f97	03 55 dc	 add	 edx, DWORD PTR _sx$190912[ebp]
  02f9a	89 55 9c	 mov	 DWORD PTR _r$190940[ebp], edx
$L190941:

; 729  : 		if(mode & ETSLayoutMgr::START_X_FROM_RIGHT)

  02f9d	8b 45 b0	 mov	 eax, DWORD PTR _mode$190929[ebp]
  02fa0	83 e0 02	 and	 eax, 2
  02fa3	74 0c		 je	 SHORT $L190942

; 730  : 			r.left = rcNewArea.right - sx;

  02fa5	8b 4d 08	 mov	 ecx, DWORD PTR _rcNewArea$[ebp]
  02fa8	8b 51 08	 mov	 edx, DWORD PTR [ecx+8]
  02fab	2b 55 dc	 sub	 edx, DWORD PTR _sx$190912[ebp]
  02fae	89 55 9c	 mov	 DWORD PTR _r$190940[ebp], edx
$L190942:

; 731  : 		if(mode & ETSLayoutMgr::START_X_PERCENT)

  02fb1	8b 45 b0	 mov	 eax, DWORD PTR _mode$190929[ebp]
  02fb4	25 00 01 00 00	 and	 eax, 256		; 00000100H
  02fb9	74 41		 je	 SHORT $L190943

; 732  : 		{
; 733  : 			if(percent_start >= 0)

  02fbb	83 7d cc 00	 cmp	 DWORD PTR _percent_start$190916[ebp], 0
  02fbf	7c 1e		 jl	 SHORT $L190944

; 734  : 				r.left = rcNewArea.left + percent_start + percent_rangex * sx / 100 ;

  02fc1	8b 4d 08	 mov	 ecx, DWORD PTR _rcNewArea$[ebp]
  02fc4	8b 09		 mov	 ecx, DWORD PTR [ecx]
  02fc6	03 4d cc	 add	 ecx, DWORD PTR _percent_start$190916[ebp]
  02fc9	8b 45 b4	 mov	 eax, DWORD PTR _percent_rangex$190928[ebp]
  02fcc	0f af 45 dc	 imul	 eax, DWORD PTR _sx$190912[ebp]
  02fd0	99		 cdq
  02fd1	be 64 00 00 00	 mov	 esi, 100		; 00000064H
  02fd6	f7 fe		 idiv	 esi
  02fd8	03 c8		 add	 ecx, eax
  02fda	89 4d 9c	 mov	 DWORD PTR _r$190940[ebp], ecx

; 735  : 			else

  02fdd	eb 1d		 jmp	 SHORT $L190943
$L190944:

; 736  : 				r.left = rcNewArea.right + percent_start + percent_rangex * sx / 100 ;

  02fdf	8b 55 08	 mov	 edx, DWORD PTR _rcNewArea$[ebp]
  02fe2	8b 4a 08	 mov	 ecx, DWORD PTR [edx+8]
  02fe5	03 4d cc	 add	 ecx, DWORD PTR _percent_start$190916[ebp]
  02fe8	8b 45 b4	 mov	 eax, DWORD PTR _percent_rangex$190928[ebp]
  02feb	0f af 45 dc	 imul	 eax, DWORD PTR _sx$190912[ebp]
  02fef	99		 cdq
  02ff0	be 64 00 00 00	 mov	 esi, 100		; 00000064H
  02ff5	f7 fe		 idiv	 esi
  02ff7	03 c8		 add	 ecx, eax
  02ff9	89 4d 9c	 mov	 DWORD PTR _r$190940[ebp], ecx
$L190943:

; 737  : 		}
; 738  : 		if(mode & ETSLayoutMgr::START_Y_FROM_TOP)

  02ffc	8b 55 b0	 mov	 edx, DWORD PTR _mode$190929[ebp]
  02fff	83 e2 04	 and	 edx, 4
  03002	74 0c		 je	 SHORT $L190946

; 739  : 			r.top = rcNewArea.top + sy;

  03004	8b 45 08	 mov	 eax, DWORD PTR _rcNewArea$[ebp]
  03007	8b 48 04	 mov	 ecx, DWORD PTR [eax+4]
  0300a	03 4d d8	 add	 ecx, DWORD PTR _sy$190913[ebp]
  0300d	89 4d a0	 mov	 DWORD PTR _r$190940[ebp+4], ecx
$L190946:

; 740  : 		if(mode & ETSLayoutMgr::START_Y_FROM_BOTTOM)

  03010	8b 55 b0	 mov	 edx, DWORD PTR _mode$190929[ebp]
  03013	83 e2 08	 and	 edx, 8
  03016	74 0c		 je	 SHORT $L190947

; 741  : 			r.top = rcNewArea.bottom - sy;

  03018	8b 45 08	 mov	 eax, DWORD PTR _rcNewArea$[ebp]
  0301b	8b 48 0c	 mov	 ecx, DWORD PTR [eax+12]
  0301e	2b 4d d8	 sub	 ecx, DWORD PTR _sy$190913[ebp]
  03021	89 4d a0	 mov	 DWORD PTR _r$190940[ebp+4], ecx
$L190947:

; 742  : 		if(mode & ETSLayoutMgr::START_Y_PERCENT)

  03024	8b 55 b0	 mov	 edx, DWORD PTR _mode$190929[ebp]
  03027	81 e2 00 02 00
	00		 and	 edx, 512		; 00000200H
  0302d	74 42		 je	 SHORT $L190948

; 743  : 		{
; 744  : 			if(percent_start >= 0)

  0302f	83 7d cc 00	 cmp	 DWORD PTR _percent_start$190916[ebp], 0
  03033	7c 1f		 jl	 SHORT $L190949

; 745  : 				r.top = rcNewArea.top + percent_start + percent_rangey * sy / 100;

  03035	8b 45 08	 mov	 eax, DWORD PTR _rcNewArea$[ebp]
  03038	8b 48 04	 mov	 ecx, DWORD PTR [eax+4]
  0303b	03 4d cc	 add	 ecx, DWORD PTR _percent_start$190916[ebp]
  0303e	8b 45 b8	 mov	 eax, DWORD PTR _percent_rangey$190927[ebp]
  03041	0f af 45 d8	 imul	 eax, DWORD PTR _sy$190913[ebp]
  03045	99		 cdq
  03046	be 64 00 00 00	 mov	 esi, 100		; 00000064H
  0304b	f7 fe		 idiv	 esi
  0304d	03 c8		 add	 ecx, eax
  0304f	89 4d a0	 mov	 DWORD PTR _r$190940[ebp+4], ecx

; 746  : 			else

  03052	eb 1d		 jmp	 SHORT $L190948
$L190949:

; 747  : 				r.top = rcNewArea.bottom + percent_start + percent_rangey * sy / 100;

  03054	8b 55 08	 mov	 edx, DWORD PTR _rcNewArea$[ebp]
  03057	8b 4a 0c	 mov	 ecx, DWORD PTR [edx+12]
  0305a	03 4d cc	 add	 ecx, DWORD PTR _percent_start$190916[ebp]
  0305d	8b 45 b8	 mov	 eax, DWORD PTR _percent_rangey$190927[ebp]
  03060	0f af 45 d8	 imul	 eax, DWORD PTR _sy$190913[ebp]
  03064	99		 cdq
  03065	be 64 00 00 00	 mov	 esi, 100		; 00000064H
  0306a	f7 fe		 idiv	 esi
  0306c	03 c8		 add	 ecx, eax
  0306e	89 4d a0	 mov	 DWORD PTR _r$190940[ebp+4], ecx
$L190948:

; 748  : 		}
; 749  : 		if(mode & ETSLayoutMgr::END_X_FROM_LEFT)

  03071	8b 55 b0	 mov	 edx, DWORD PTR _mode$190929[ebp]
  03074	83 e2 10	 and	 edx, 16			; 00000010H
  03077	74 0b		 je	 SHORT $L190951

; 750  : 			r.right = rcNewArea.left + ex;

  03079	8b 45 08	 mov	 eax, DWORD PTR _rcNewArea$[ebp]
  0307c	8b 08		 mov	 ecx, DWORD PTR [eax]
  0307e	03 4d d4	 add	 ecx, DWORD PTR _ex$190914[ebp]
  03081	89 4d a4	 mov	 DWORD PTR _r$190940[ebp+8], ecx
$L190951:

; 751  : 		if(mode & ETSLayoutMgr::END_X_FROM_RIGHT)

  03084	8b 55 b0	 mov	 edx, DWORD PTR _mode$190929[ebp]
  03087	83 e2 20	 and	 edx, 32			; 00000020H
  0308a	74 0c		 je	 SHORT $L190952

; 752  : 			r.right = rcNewArea.right - ex;

  0308c	8b 45 08	 mov	 eax, DWORD PTR _rcNewArea$[ebp]
  0308f	8b 48 08	 mov	 ecx, DWORD PTR [eax+8]
  03092	2b 4d d4	 sub	 ecx, DWORD PTR _ex$190914[ebp]
  03095	89 4d a4	 mov	 DWORD PTR _r$190940[ebp+8], ecx
$L190952:

; 753  : 		if(mode & ETSLayoutMgr::END_X_PERCENT)

  03098	8b 55 b0	 mov	 edx, DWORD PTR _mode$190929[ebp]
  0309b	81 e2 00 04 00
	00		 and	 edx, 1024		; 00000400H
  030a1	74 41		 je	 SHORT $L190953

; 754  : 		{
; 755  : 			if(percent_start >= 0)

  030a3	83 7d cc 00	 cmp	 DWORD PTR _percent_start$190916[ebp], 0
  030a7	7c 1e		 jl	 SHORT $L190954

; 756  : 				r.left = rcNewArea.left + percent_start + percent_rangex * ex / 100 ;

  030a9	8b 45 08	 mov	 eax, DWORD PTR _rcNewArea$[ebp]
  030ac	8b 08		 mov	 ecx, DWORD PTR [eax]
  030ae	03 4d cc	 add	 ecx, DWORD PTR _percent_start$190916[ebp]
  030b1	8b 45 b4	 mov	 eax, DWORD PTR _percent_rangex$190928[ebp]
  030b4	0f af 45 d4	 imul	 eax, DWORD PTR _ex$190914[ebp]
  030b8	99		 cdq
  030b9	be 64 00 00 00	 mov	 esi, 100		; 00000064H
  030be	f7 fe		 idiv	 esi
  030c0	03 c8		 add	 ecx, eax
  030c2	89 4d 9c	 mov	 DWORD PTR _r$190940[ebp], ecx

; 757  : 			else

  030c5	eb 1d		 jmp	 SHORT $L190953
$L190954:

; 758  : 				r.left = rcNewArea.right + percent_start + percent_rangex * ex / 100 ;

  030c7	8b 55 08	 mov	 edx, DWORD PTR _rcNewArea$[ebp]
  030ca	8b 4a 08	 mov	 ecx, DWORD PTR [edx+8]
  030cd	03 4d cc	 add	 ecx, DWORD PTR _percent_start$190916[ebp]
  030d0	8b 45 b4	 mov	 eax, DWORD PTR _percent_rangex$190928[ebp]
  030d3	0f af 45 d4	 imul	 eax, DWORD PTR _ex$190914[ebp]
  030d7	99		 cdq
  030d8	be 64 00 00 00	 mov	 esi, 100		; 00000064H
  030dd	f7 fe		 idiv	 esi
  030df	03 c8		 add	 ecx, eax
  030e1	89 4d 9c	 mov	 DWORD PTR _r$190940[ebp], ecx
$L190953:

; 759  : 		}
; 760  : 		if(mode & ETSLayoutMgr::END_Y_FROM_TOP)

  030e4	8b 55 b0	 mov	 edx, DWORD PTR _mode$190929[ebp]
  030e7	83 e2 40	 and	 edx, 64			; 00000040H
  030ea	74 0c		 je	 SHORT $L190956

; 761  : 			r.bottom = rcNewArea.top + ey;

  030ec	8b 45 08	 mov	 eax, DWORD PTR _rcNewArea$[ebp]
  030ef	8b 48 04	 mov	 ecx, DWORD PTR [eax+4]
  030f2	03 4d d0	 add	 ecx, DWORD PTR _ey$190915[ebp]
  030f5	89 4d a8	 mov	 DWORD PTR _r$190940[ebp+12], ecx
$L190956:

; 762  : 		if(mode & ETSLayoutMgr::END_Y_FROM_BOTTOM)

  030f8	8b 55 b0	 mov	 edx, DWORD PTR _mode$190929[ebp]
  030fb	81 e2 80 00 00
	00		 and	 edx, 128		; 00000080H
  03101	74 0c		 je	 SHORT $L190957

; 763  : 			r.bottom = rcNewArea.bottom - ey;

  03103	8b 45 08	 mov	 eax, DWORD PTR _rcNewArea$[ebp]
  03106	8b 48 0c	 mov	 ecx, DWORD PTR [eax+12]
  03109	2b 4d d0	 sub	 ecx, DWORD PTR _ey$190915[ebp]
  0310c	89 4d a8	 mov	 DWORD PTR _r$190940[ebp+12], ecx
$L190957:

; 764  : 		if(mode & ETSLayoutMgr::END_Y_PERCENT)

  0310f	8b 55 b0	 mov	 edx, DWORD PTR _mode$190929[ebp]
  03112	81 e2 00 08 00
	00		 and	 edx, 2048		; 00000800H
  03118	74 4c		 je	 SHORT $L190958

; 765  : 		{
; 766  : 			if(percent_start >= 0)

  0311a	83 7d cc 00	 cmp	 DWORD PTR _percent_start$190916[ebp], 0
  0311e	7c 24		 jl	 SHORT $L190959

; 767  : 				r.top = rcNewArea.top + percent_start + rcNewArea.Height() * ey / 100;

  03120	8b 45 08	 mov	 eax, DWORD PTR _rcNewArea$[ebp]
  03123	8b 70 04	 mov	 esi, DWORD PTR [eax+4]
  03126	03 75 cc	 add	 esi, DWORD PTR _percent_start$190916[ebp]
  03129	8b 4d 08	 mov	 ecx, DWORD PTR _rcNewArea$[ebp]
  0312c	e8 00 00 00 00	 call	 ?Height@CRect@@QBEHXZ	; CRect::Height
  03131	0f af 45 d0	 imul	 eax, DWORD PTR _ey$190915[ebp]
  03135	99		 cdq
  03136	b9 64 00 00 00	 mov	 ecx, 100		; 00000064H
  0313b	f7 f9		 idiv	 ecx
  0313d	03 f0		 add	 esi, eax
  0313f	89 75 a0	 mov	 DWORD PTR _r$190940[ebp+4], esi

; 768  : 			else

  03142	eb 22		 jmp	 SHORT $L190958
$L190959:

; 769  : 				r.top = rcNewArea.bottom + percent_start + rcNewArea.Height() * ey / 100;

  03144	8b 55 08	 mov	 edx, DWORD PTR _rcNewArea$[ebp]
  03147	8b 72 0c	 mov	 esi, DWORD PTR [edx+12]
  0314a	03 75 cc	 add	 esi, DWORD PTR _percent_start$190916[ebp]
  0314d	8b 4d 08	 mov	 ecx, DWORD PTR _rcNewArea$[ebp]
  03150	e8 00 00 00 00	 call	 ?Height@CRect@@QBEHXZ	; CRect::Height
  03155	0f af 45 d0	 imul	 eax, DWORD PTR _ey$190915[ebp]
  03159	99		 cdq
  0315a	b9 64 00 00 00	 mov	 ecx, 100		; 00000064H
  0315f	f7 f9		 idiv	 ecx
  03161	03 f0		 add	 esi, eax
  03163	89 75 a0	 mov	 DWORD PTR _r$190940[ebp+4], esi
$L190958:

; 770  : 		}
; 771  : 		if(mode & ETSLayoutMgr::X_DELTA)

  03166	8b 55 b0	 mov	 edx, DWORD PTR _mode$190929[ebp]
  03169	81 e2 00 20 00
	00		 and	 edx, 8192		; 00002000H
  0316f	0f 84 c8 00 00
	00		 je	 $L190961

; 772  : 		{
; 773  : 			if(ex == 0){

  03175	83 7d d4 00	 cmp	 DWORD PTR _ex$190914[ebp], 0
  03179	0f 85 b5 00 00
	00		 jne	 $L190962

; 774  : 				CDibBitmap *pBmp = ::AfxGetUIManager()->UIGetSkinMgr()->GetDibBmp(base.GetPaneBase()->GetName(), false);

  0317f	8d 85 70 ff ff
	ff		 lea	 eax, DWORD PTR $T193431[ebp]
  03185	50		 push	 eax
  03186	8d 4d e4	 lea	 ecx, DWORD PTR _base$190911[ebp]
  03189	e8 00 00 00 00	 call	 ?GetPaneBase@CPaneBase@ETSLayoutMgr@@QAEPAVPaneBase@2@XZ ; ETSLayoutMgr::CPaneBase::GetPaneBase
  0318e	8b c8		 mov	 ecx, eax
  03190	e8 00 00 00 00	 call	 ?GetName@PaneBase@ETSLayoutMgr@@QAE?AV?$CStringT@DV?$StrTraitMFC_DLL@DV?$ChTraitsCRT@D@ATL@@@@@ATL@@XZ ; ETSLayoutMgr::PaneBase::GetName
  03195	89 85 48 ff ff
	ff		 mov	 DWORD PTR tv513[ebp], eax
  0319b	8b 8d 48 ff ff
	ff		 mov	 ecx, DWORD PTR tv513[ebp]
  031a1	89 8d 44 ff ff
	ff		 mov	 DWORD PTR tv509[ebp], ecx
  031a7	c6 45 fc 02	 mov	 BYTE PTR __$EHRec$[ebp+8], 2
  031ab	e8 00 00 00 00	 call	 ?AfxGetUIManager@@YAPAVIUIManager@@XZ ; AfxGetUIManager
  031b0	89 85 40 ff ff
	ff		 mov	 DWORD PTR tv387[ebp], eax
  031b6	8b f4		 mov	 esi, esp
  031b8	8b 95 40 ff ff
	ff		 mov	 edx, DWORD PTR tv387[ebp]
  031be	8b 02		 mov	 eax, DWORD PTR [edx]
  031c0	8b 8d 40 ff ff
	ff		 mov	 ecx, DWORD PTR tv387[ebp]
  031c6	ff 50 28	 call	 DWORD PTR [eax+40]
  031c9	3b f4		 cmp	 esi, esp
  031cb	e8 00 00 00 00	 call	 __RTC_CheckEsp
  031d0	89 85 3c ff ff
	ff		 mov	 DWORD PTR tv392[ebp], eax
  031d6	8b f4		 mov	 esi, esp
  031d8	6a 00		 push	 0
  031da	8b fc		 mov	 edi, esp
  031dc	8b 8d 44 ff ff
	ff		 mov	 ecx, DWORD PTR tv509[ebp]
  031e2	ff 15 00 00 00
	00		 call	 DWORD PTR __imp_??B?$CSimpleStringT@D$00@ATL@@QBEPBDXZ
  031e8	3b fc		 cmp	 edi, esp
  031ea	e8 00 00 00 00	 call	 __RTC_CheckEsp
  031ef	50		 push	 eax
  031f0	8b 8d 3c ff ff
	ff		 mov	 ecx, DWORD PTR tv392[ebp]
  031f6	8b 11		 mov	 edx, DWORD PTR [ecx]
  031f8	8b 8d 3c ff ff
	ff		 mov	 ecx, DWORD PTR tv392[ebp]
  031fe	ff 12		 call	 DWORD PTR [edx]
  03200	3b f4		 cmp	 esi, esp
  03202	e8 00 00 00 00	 call	 __RTC_CheckEsp
  03207	89 45 94	 mov	 DWORD PTR _pBmp$190963[ebp], eax
  0320a	c6 45 fc 01	 mov	 BYTE PTR __$EHRec$[ebp+8], 1
  0320e	8b f4		 mov	 esi, esp
  03210	8d 8d 70 ff ff
	ff		 lea	 ecx, DWORD PTR $T193431[ebp]
  03216	ff 15 00 00 00
	00		 call	 DWORD PTR __imp_??1?$CStringT@DV?$StrTraitMFC_DLL@DV?$ChTraitsCRT@D@ATL@@@@@ATL@@QAE@XZ
  0321c	3b f4		 cmp	 esi, esp
  0321e	e8 00 00 00 00	 call	 __RTC_CheckEsp

; 775  : 				if(pBmp != NULL)

  03223	83 7d 94 00	 cmp	 DWORD PTR _pBmp$190963[ebp], 0
  03227	74 0b		 je	 SHORT $L190962

; 776  : 					ex = pBmp->GetWidth();

  03229	8b 4d 94	 mov	 ecx, DWORD PTR _pBmp$190963[ebp]
  0322c	e8 00 00 00 00	 call	 ?GetWidth@CDibBitmap@@QAEHXZ ; CDibBitmap::GetWidth
  03231	89 45 d4	 mov	 DWORD PTR _ex$190914[ebp], eax
$L190962:

; 777  : 			}
; 778  : 			r.right = r.left + ex;

  03234	8b 45 9c	 mov	 eax, DWORD PTR _r$190940[ebp]
  03237	03 45 d4	 add	 eax, DWORD PTR _ex$190914[ebp]
  0323a	89 45 a4	 mov	 DWORD PTR _r$190940[ebp+8], eax
$L190961:

; 779  : 		}
; 780  : 		if(mode & ETSLayoutMgr::Y_DELTA)

  0323d	8b 4d b0	 mov	 ecx, DWORD PTR _mode$190929[ebp]
  03240	81 e1 00 40 00
	00		 and	 ecx, 16384		; 00004000H
  03246	0f 84 c8 00 00
	00		 je	 $L190966

; 781  : 		{
; 782  : 			if(ey== 0){

  0324c	83 7d d0 00	 cmp	 DWORD PTR _ey$190915[ebp], 0
  03250	0f 85 b5 00 00
	00		 jne	 $L190967

; 783  : 				CDibBitmap *pBmp = ::AfxGetUIManager()->UIGetSkinMgr()->GetDibBmp(base.GetPaneBase()->GetName(), false);

  03256	8d 95 6c ff ff
	ff		 lea	 edx, DWORD PTR $T193432[ebp]
  0325c	52		 push	 edx
  0325d	8d 4d e4	 lea	 ecx, DWORD PTR _base$190911[ebp]
  03260	e8 00 00 00 00	 call	 ?GetPaneBase@CPaneBase@ETSLayoutMgr@@QAEPAVPaneBase@2@XZ ; ETSLayoutMgr::CPaneBase::GetPaneBase
  03265	8b c8		 mov	 ecx, eax
  03267	e8 00 00 00 00	 call	 ?GetName@PaneBase@ETSLayoutMgr@@QAE?AV?$CStringT@DV?$StrTraitMFC_DLL@DV?$ChTraitsCRT@D@ATL@@@@@ATL@@XZ ; ETSLayoutMgr::PaneBase::GetName
  0326c	89 85 38 ff ff
	ff		 mov	 DWORD PTR tv516[ebp], eax
  03272	8b 85 38 ff ff
	ff		 mov	 eax, DWORD PTR tv516[ebp]
  03278	89 85 34 ff ff
	ff		 mov	 DWORD PTR tv511[ebp], eax
  0327e	c6 45 fc 03	 mov	 BYTE PTR __$EHRec$[ebp+8], 3
  03282	e8 00 00 00 00	 call	 ?AfxGetUIManager@@YAPAVIUIManager@@XZ ; AfxGetUIManager
  03287	89 85 30 ff ff
	ff		 mov	 DWORD PTR tv416[ebp], eax
  0328d	8b f4		 mov	 esi, esp
  0328f	8b 8d 30 ff ff
	ff		 mov	 ecx, DWORD PTR tv416[ebp]
  03295	8b 11		 mov	 edx, DWORD PTR [ecx]
  03297	8b 8d 30 ff ff
	ff		 mov	 ecx, DWORD PTR tv416[ebp]
  0329d	ff 52 28	 call	 DWORD PTR [edx+40]
  032a0	3b f4		 cmp	 esi, esp
  032a2	e8 00 00 00 00	 call	 __RTC_CheckEsp
  032a7	89 85 2c ff ff
	ff		 mov	 DWORD PTR tv421[ebp], eax
  032ad	8b f4		 mov	 esi, esp
  032af	6a 00		 push	 0
  032b1	8b fc		 mov	 edi, esp
  032b3	8b 8d 34 ff ff
	ff		 mov	 ecx, DWORD PTR tv511[ebp]
  032b9	ff 15 00 00 00
	00		 call	 DWORD PTR __imp_??B?$CSimpleStringT@D$00@ATL@@QBEPBDXZ
  032bf	3b fc		 cmp	 edi, esp
  032c1	e8 00 00 00 00	 call	 __RTC_CheckEsp
  032c6	50		 push	 eax
  032c7	8b 85 2c ff ff
	ff		 mov	 eax, DWORD PTR tv421[ebp]
  032cd	8b 10		 mov	 edx, DWORD PTR [eax]
  032cf	8b 8d 2c ff ff
	ff		 mov	 ecx, DWORD PTR tv421[ebp]
  032d5	ff 12		 call	 DWORD PTR [edx]
  032d7	3b f4		 cmp	 esi, esp
  032d9	e8 00 00 00 00	 call	 __RTC_CheckEsp
  032de	89 45 90	 mov	 DWORD PTR _pBmp$190968[ebp], eax
  032e1	c6 45 fc 01	 mov	 BYTE PTR __$EHRec$[ebp+8], 1
  032e5	8b f4		 mov	 esi, esp
  032e7	8d 8d 6c ff ff
	ff		 lea	 ecx, DWORD PTR $T193432[ebp]
  032ed	ff 15 00 00 00
	00		 call	 DWORD PTR __imp_??1?$CStringT@DV?$StrTraitMFC_DLL@DV?$ChTraitsCRT@D@ATL@@@@@ATL@@QAE@XZ
  032f3	3b f4		 cmp	 esi, esp
  032f5	e8 00 00 00 00	 call	 __RTC_CheckEsp

; 784  : 				if(pBmp != NULL)

  032fa	83 7d 90 00	 cmp	 DWORD PTR _pBmp$190968[ebp], 0
  032fe	74 0b		 je	 SHORT $L190967

; 785  : 					ey = pBmp->GetHeight();

  03300	8b 4d 90	 mov	 ecx, DWORD PTR _pBmp$190968[ebp]
  03303	e8 00 00 00 00	 call	 ?GetHeight@CDibBitmap@@QAEHXZ ; CDibBitmap::GetHeight
  03308	89 45 d0	 mov	 DWORD PTR _ey$190915[ebp], eax
$L190967:

; 786  : 			}
; 787  : 			r.bottom = r.top + ey;

  0330b	8b 45 a0	 mov	 eax, DWORD PTR _r$190940[ebp+4]
  0330e	03 45 d0	 add	 eax, DWORD PTR _ey$190915[ebp]
  03311	89 45 a8	 mov	 DWORD PTR _r$190940[ebp+12], eax
$L190966:

; 788  : 
; 789  : 		}
; 790  : 		if(mode & ETSLayoutMgr::DRAW_CENTER_STRECH)

  03314	8b 4d b0	 mov	 ecx, DWORD PTR _mode$190929[ebp]
  03317	81 e1 00 00 04
	00		 and	 ecx, 262144		; 00040000H
  0331d	74 1a		 je	 SHORT $L190971

; 791  : 		{
; 792  : 			r = rcNewArea;

  0331f	8b 55 08	 mov	 edx, DWORD PTR _rcNewArea$[ebp]
  03322	8b 02		 mov	 eax, DWORD PTR [edx]
  03324	89 45 9c	 mov	 DWORD PTR _r$190940[ebp], eax
  03327	8b 4a 04	 mov	 ecx, DWORD PTR [edx+4]
  0332a	89 4d a0	 mov	 DWORD PTR _r$190940[ebp+4], ecx
  0332d	8b 42 08	 mov	 eax, DWORD PTR [edx+8]
  03330	89 45 a4	 mov	 DWORD PTR _r$190940[ebp+8], eax
  03333	8b 4a 0c	 mov	 ecx, DWORD PTR [edx+12]
  03336	89 4d a8	 mov	 DWORD PTR _r$190940[ebp+12], ecx
$L190971:

; 793  : 		}
; 794  : 
; 795  : 		CString name = base->GetName();

  03339	8d 55 88	 lea	 edx, DWORD PTR _name$190972[ebp]
  0333c	52		 push	 edx
  0333d	8d 4d e4	 lea	 ecx, DWORD PTR _base$190911[ebp]
  03340	e8 00 00 00 00	 call	 ??CCPaneBase@ETSLayoutMgr@@QBEPAVPaneBase@1@XZ ; ETSLayoutMgr::CPaneBase::operator->
  03345	8b c8		 mov	 ecx, eax
  03347	e8 00 00 00 00	 call	 ?GetName@PaneBase@ETSLayoutMgr@@QAE?AV?$CStringT@DV?$StrTraitMFC_DLL@DV?$ChTraitsCRT@D@ATL@@@@@ATL@@XZ ; ETSLayoutMgr::PaneBase::GetName
  0334c	c6 45 fc 04	 mov	 BYTE PTR __$EHRec$[ebp+8], 4

; 796  : 		base->resizeTo(r, bRedraw);

  03350	8d 4d e4	 lea	 ecx, DWORD PTR _base$190911[ebp]
  03353	e8 00 00 00 00	 call	 ??CCPaneBase@ETSLayoutMgr@@QBEPAVPaneBase@1@XZ ; ETSLayoutMgr::CPaneBase::operator->
  03358	89 85 28 ff ff
	ff		 mov	 DWORD PTR tv484[ebp], eax
  0335e	8b f4		 mov	 esi, esp
  03360	6a 00		 push	 0
  03362	8a 45 0c	 mov	 al, BYTE PTR _bRedraw$[ebp]
  03365	50		 push	 eax
  03366	8d 4d 9c	 lea	 ecx, DWORD PTR _r$190940[ebp]
  03369	51		 push	 ecx
  0336a	8b 95 28 ff ff
	ff		 mov	 edx, DWORD PTR tv484[ebp]
  03370	8b 02		 mov	 eax, DWORD PTR [edx]
  03372	8b 8d 28 ff ff
	ff		 mov	 ecx, DWORD PTR tv484[ebp]
  03378	ff 50 18	 call	 DWORD PTR [eax+24]
  0337b	3b f4		 cmp	 esi, esp
  0337d	e8 00 00 00 00	 call	 __RTC_CheckEsp

; 797  : 	}

  03382	c6 45 fc 01	 mov	 BYTE PTR __$EHRec$[ebp+8], 1
  03386	8b f4		 mov	 esi, esp
  03388	8d 4d 88	 lea	 ecx, DWORD PTR _name$190972[ebp]
  0338b	ff 15 00 00 00
	00		 call	 DWORD PTR __imp_??1?$CStringT@DV?$StrTraitMFC_DLL@DV?$ChTraitsCRT@D@ATL@@@@@ATL@@QAE@XZ
  03391	3b f4		 cmp	 esi, esp
  03393	e8 00 00 00 00	 call	 __RTC_CheckEsp
  03398	c6 45 fc 00	 mov	 BYTE PTR __$EHRec$[ebp+8], 0
  0339c	8b f4		 mov	 esi, esp
  0339e	8d 4d c0	 lea	 ecx, DWORD PTR _value$190918[ebp]
  033a1	ff 15 00 00 00
	00		 call	 DWORD PTR __imp_??1?$CStringT@DV?$StrTraitMFC_DLL@DV?$ChTraitsCRT@D@ATL@@@@@ATL@@QAE@XZ
  033a7	3b f4		 cmp	 esi, esp
  033a9	e8 00 00 00 00	 call	 __RTC_CheckEsp
  033ae	c7 45 fc ff ff
	ff ff		 mov	 DWORD PTR __$EHRec$[ebp+8], -1
  033b5	8d 4d e4	 lea	 ecx, DWORD PTR _base$190911[ebp]
  033b8	e8 00 00 00 00	 call	 ??1CPaneBase@ETSLayoutMgr@@QAE@XZ ; ETSLayoutMgr::CPaneBase::~CPaneBase
  033bd	e9 ad f7 ff ff	 jmp	 $L190909
$L190910:

; 798  : 	return true;

  033c2	b0 01		 mov	 al, 1

; 799  : }

  033c4	52		 push	 edx
  033c5	8b cd		 mov	 ecx, ebp
  033c7	50		 push	 eax
  033c8	8d 15 00 00 00
	00		 lea	 edx, DWORD PTR $L193450
  033ce	e8 00 00 00 00	 call	 @_RTC_CheckStackVars@8
  033d3	58		 pop	 eax
  033d4	5a		 pop	 edx
  033d5	8b 4d f4	 mov	 ecx, DWORD PTR __$EHRec$[ebp]
  033d8	64 89 0d 00 00
	00 00		 mov	 DWORD PTR fs:__except_list, ecx
  033df	5f		 pop	 edi
  033e0	5e		 pop	 esi
  033e1	81 c4 d8 00 00
	00		 add	 esp, 216		; 000000d8H
  033e7	3b ec		 cmp	 ebp, esp
  033e9	e8 00 00 00 00	 call	 __RTC_CheckEsp
  033ee	8b e5		 mov	 esp, ebp
  033f0	5d		 pop	 ebp
  033f1	c2 0c 00	 ret	 12			; 0000000cH
$L193450:
  033f4	04 00 00 00	 DD	 4
  033f8	00 00 00 00	 DD	 $L193449
$L193449:
  033fc	e4 ff ff ff	 DD	 -28			; ffffffe4H
  03400	04 00 00 00	 DD	 4
  03404	00 00 00 00	 DD	 $L193444
  03408	c0 ff ff ff	 DD	 -64			; ffffffc0H
  0340c	04 00 00 00	 DD	 4
  03410	00 00 00 00	 DD	 $L193445
  03414	9c ff ff ff	 DD	 -100			; ffffff9cH
  03418	10 00 00 00	 DD	 16			; 00000010H
  0341c	00 00 00 00	 DD	 $L193446
  03420	88 ff ff ff	 DD	 -120			; ffffff88H
  03424	04 00 00 00	 DD	 4
  03428	00 00 00 00	 DD	 $L193447
$L193447:
  0342c	6e		 DB	 110			; 0000006eH
  0342d	61		 DB	 97			; 00000061H
  0342e	6d		 DB	 109			; 0000006dH
  0342f	65		 DB	 101			; 00000065H
  03430	00		 DB	 0
$L193446:
  03431	72		 DB	 114			; 00000072H
  03432	00		 DB	 0
$L193445:
  03433	76		 DB	 118			; 00000076H
  03434	61		 DB	 97			; 00000061H
  03435	6c		 DB	 108			; 0000006cH
  03436	75		 DB	 117			; 00000075H
  03437	65		 DB	 101			; 00000065H
  03438	00		 DB	 0
$L193444:
  03439	62		 DB	 98			; 00000062H
  0343a	61		 DB	 97			; 00000061H
  0343b	73		 DB	 115			; 00000073H
  0343c	65		 DB	 101			; 00000065H
  0343d	00		 DB	 0
_TEXT	ENDS
text$x	SEGMENT
$L193433:
  002b6	8d 4d e4	 lea	 ecx, DWORD PTR _base$190911[ebp]
  002b9	e9 00 00 00 00	 jmp	 ??1CPaneBase@ETSLayoutMgr@@QAE@XZ ; ETSLayoutMgr::CPaneBase::~CPaneBase
$L193434:
  002be	8b f4		 mov	 esi, esp
  002c0	8d 4d c0	 lea	 ecx, DWORD PTR _value$190918[ebp]
  002c3	ff 15 00 00 00
	00		 call	 DWORD PTR __imp_??1?$CStringT@DV?$StrTraitMFC_DLL@DV?$ChTraitsCRT@D@ATL@@@@@ATL@@QAE@XZ
  002c9	3b f4		 cmp	 esi, esp
  002cb	e9 00 00 00 00	 jmp	 __RTC_CheckEsp
$L193439:
  002d0	8b f4		 mov	 esi, esp
  002d2	8d 8d 70 ff ff
	ff		 lea	 ecx, DWORD PTR $T193431[ebp]
  002d8	ff 15 00 00 00
	00		 call	 DWORD PTR __imp_??1?$CStringT@DV?$StrTraitMFC_DLL@DV?$ChTraitsCRT@D@ATL@@@@@ATL@@QAE@XZ
  002de	3b f4		 cmp	 esi, esp
  002e0	e9 00 00 00 00	 jmp	 __RTC_CheckEsp
$L193440:
  002e5	8b f4		 mov	 esi, esp
  002e7	8d 8d 6c ff ff
	ff		 lea	 ecx, DWORD PTR $T193432[ebp]
  002ed	ff 15 00 00 00
	00		 call	 DWORD PTR __imp_??1?$CStringT@DV?$StrTraitMFC_DLL@DV?$ChTraitsCRT@D@ATL@@@@@ATL@@QAE@XZ
  002f3	3b f4		 cmp	 esi, esp
  002f5	e9 00 00 00 00	 jmp	 __RTC_CheckEsp
$L193441:
  002fa	8b f4		 mov	 esi, esp
  002fc	8d 4d 88	 lea	 ecx, DWORD PTR _name$190972[ebp]
  002ff	ff 15 00 00 00
	00		 call	 DWORD PTR __imp_??1?$CStringT@DV?$StrTraitMFC_DLL@DV?$ChTraitsCRT@D@ATL@@@@@ATL@@QAE@XZ
  00305	3b f4		 cmp	 esi, esp
  00307	e9 00 00 00 00	 jmp	 __RTC_CheckEsp
__ehhandler$?resizeTo@PanePosition@ETSLayoutMgr@@UAE_NAAVCRect@@_N1@Z:
  0030c	b8 00 00 00 00	 mov	 eax, OFFSET FLAT:$T193443
  00311	e9 00 00 00 00	 jmp	 ___CxxFrameHandler
text$x	ENDS
?resizeTo@PanePosition@ETSLayoutMgr@@UAE_NAAVCRect@@_N1@Z ENDP ; ETSLayoutMgr::PanePosition::resizeTo
PUBLIC	?AddParameter@ETSLayoutMgr@@QAEXV?$CStringT@DV?$StrTraitMFC_DLL@DV?$ChTraitsCRT@D@ATL@@@@@ATL@@0@Z ; ETSLayoutMgr::AddParameter
EXTRN	?SetAt@CMapStringToString@@QAEXPBD0@Z:NEAR	; CMapStringToString::SetAt
xdata$x	SEGMENT
$T193458 DD	0ffffffffH
	DD	FLAT:$L193453
	DD	00H
	DD	FLAT:$L193454
$T193456 DD	019930520H
	DD	02H
	DD	FLAT:$T193458
	DD	2 DUP(00H)
	DD	2 DUP(00H)
; Function compile flags: /Odt /RTCsu
xdata$x	ENDS
_TEXT	SEGMENT
_this$ = -16						; size = 4
__$EHRec$ = -12						; size = 12
_name$ = 8						; size = 4
_value$ = 12						; size = 4
?AddParameter@ETSLayoutMgr@@QAEXV?$CStringT@DV?$StrTraitMFC_DLL@DV?$ChTraitsCRT@D@ATL@@@@@ATL@@0@Z PROC NEAR ; ETSLayoutMgr::AddParameter
; _this$ = ecx

; 803  : {

  03440	55		 push	 ebp
  03441	8b ec		 mov	 ebp, esp
  03443	6a ff		 push	 -1
  03445	68 00 00 00 00	 push	 __ehhandler$?AddParameter@ETSLayoutMgr@@QAEXV?$CStringT@DV?$StrTraitMFC_DLL@DV?$ChTraitsCRT@D@ATL@@@@@ATL@@0@Z
  0344a	64 a1 00 00 00
	00		 mov	 eax, DWORD PTR fs:__except_list
  03450	50		 push	 eax
  03451	64 89 25 00 00
	00 00		 mov	 DWORD PTR fs:__except_list, esp
  03458	51		 push	 ecx
  03459	56		 push	 esi
  0345a	c7 45 f0 cc cc
	cc cc		 mov	 DWORD PTR [ebp-16], -858993460 ; ccccccccH
  03461	89 4d f0	 mov	 DWORD PTR _this$[ebp], ecx
  03464	c7 45 fc 01 00
	00 00		 mov	 DWORD PTR __$EHRec$[ebp+8], 1

; 804  : 	m_mapParams.SetAt(name, value);

  0346b	8b f4		 mov	 esi, esp
  0346d	8d 4d 0c	 lea	 ecx, DWORD PTR _value$[ebp]
  03470	ff 15 00 00 00
	00		 call	 DWORD PTR __imp_??B?$CSimpleStringT@D$00@ATL@@QBEPBDXZ
  03476	3b f4		 cmp	 esi, esp
  03478	e8 00 00 00 00	 call	 __RTC_CheckEsp
  0347d	50		 push	 eax
  0347e	8b f4		 mov	 esi, esp
  03480	8d 4d 08	 lea	 ecx, DWORD PTR _name$[ebp]
  03483	ff 15 00 00 00
	00		 call	 DWORD PTR __imp_??B?$CSimpleStringT@D$00@ATL@@QBEPBDXZ
  03489	3b f4		 cmp	 esi, esp
  0348b	e8 00 00 00 00	 call	 __RTC_CheckEsp
  03490	50		 push	 eax
  03491	8b 4d f0	 mov	 ecx, DWORD PTR _this$[ebp]
  03494	83 c1 0c	 add	 ecx, 12			; 0000000cH
  03497	e8 00 00 00 00	 call	 ?SetAt@CMapStringToString@@QAEXPBD0@Z ; CMapStringToString::SetAt

; 805  : }

  0349c	c6 45 fc 00	 mov	 BYTE PTR __$EHRec$[ebp+8], 0
  034a0	8b f4		 mov	 esi, esp
  034a2	8d 4d 08	 lea	 ecx, DWORD PTR _name$[ebp]
  034a5	ff 15 00 00 00
	00		 call	 DWORD PTR __imp_??1?$CStringT@DV?$StrTraitMFC_DLL@DV?$ChTraitsCRT@D@ATL@@@@@ATL@@QAE@XZ
  034ab	3b f4		 cmp	 esi, esp
  034ad	e8 00 00 00 00	 call	 __RTC_CheckEsp
  034b2	c7 45 fc ff ff
	ff ff		 mov	 DWORD PTR __$EHRec$[ebp+8], -1
  034b9	8b f4		 mov	 esi, esp
  034bb	8d 4d 0c	 lea	 ecx, DWORD PTR _value$[ebp]
  034be	ff 15 00 00 00
	00		 call	 DWORD PTR __imp_??1?$CStringT@DV?$StrTraitMFC_DLL@DV?$ChTraitsCRT@D@ATL@@@@@ATL@@QAE@XZ
  034c4	3b f4		 cmp	 esi, esp
  034c6	e8 00 00 00 00	 call	 __RTC_CheckEsp
  034cb	8b 4d f4	 mov	 ecx, DWORD PTR __$EHRec$[ebp]
  034ce	64 89 0d 00 00
	00 00		 mov	 DWORD PTR fs:__except_list, ecx
  034d5	5e		 pop	 esi
  034d6	83 c4 10	 add	 esp, 16			; 00000010H
  034d9	3b ec		 cmp	 ebp, esp
  034db	e8 00 00 00 00	 call	 __RTC_CheckEsp
  034e0	8b e5		 mov	 esp, ebp
  034e2	5d		 pop	 ebp
  034e3	c2 08 00	 ret	 8
_TEXT	ENDS
text$x	SEGMENT
$L193453:
  00316	8b f4		 mov	 esi, esp
  00318	8d 4d 0c	 lea	 ecx, DWORD PTR _value$[ebp]
  0031b	ff 15 00 00 00
	00		 call	 DWORD PTR __imp_??1?$CStringT@DV?$StrTraitMFC_DLL@DV?$ChTraitsCRT@D@ATL@@@@@ATL@@QAE@XZ
  00321	3b f4		 cmp	 esi, esp
  00323	e9 00 00 00 00	 jmp	 __RTC_CheckEsp
$L193454:
  00328	8b f4		 mov	 esi, esp
  0032a	8d 4d 08	 lea	 ecx, DWORD PTR _name$[ebp]
  0032d	ff 15 00 00 00
	00		 call	 DWORD PTR __imp_??1?$CStringT@DV?$StrTraitMFC_DLL@DV?$ChTraitsCRT@D@ATL@@@@@ATL@@QAE@XZ
  00333	3b f4		 cmp	 esi, esp
  00335	e9 00 00 00 00	 jmp	 __RTC_CheckEsp
__ehhandler$?AddParameter@ETSLayoutMgr@@QAEXV?$CStringT@DV?$StrTraitMFC_DLL@DV?$ChTraitsCRT@D@ATL@@@@@ATL@@0@Z:
  0033a	b8 00 00 00 00	 mov	 eax, OFFSET FLAT:$T193456
  0033f	e9 00 00 00 00	 jmp	 ___CxxFrameHandler
text$x	ENDS
?AddParameter@ETSLayoutMgr@@QAEXV?$CStringT@DV?$StrTraitMFC_DLL@DV?$ChTraitsCRT@D@ATL@@@@@ATL@@0@Z ENDP ; ETSLayoutMgr::AddParameter
EXTRN	?Lookup@CMapStringToString@@QBEHPBDAAV?$CStringT@DV?$StrTraitMFC_DLL@DV?$ChTraitsCRT@D@ATL@@@@@ATL@@@Z:NEAR ; CMapStringToString::Lookup
xdata$x	SEGMENT
$T193465 DD	0ffffffffH
	DD	FLAT:$L193461
$T193463 DD	019930520H
	DD	01H
	DD	FLAT:$T193465
	DD	2 DUP(00H)
	DD	2 DUP(00H)
; Function compile flags: /Odt /RTCsu
xdata$x	ENDS
_TEXT	SEGMENT
$T193460 = -20						; size = 4
_this$ = -16						; size = 4
__$EHRec$ = -12						; size = 12
_name$ = 8						; size = 4
_value$ = 12						; size = 4
?GetValue@ETSLayoutMgr@@QAEHV?$CStringT@DV?$StrTraitMFC_DLL@DV?$ChTraitsCRT@D@ATL@@@@@ATL@@AAV23@@Z PROC NEAR ; ETSLayoutMgr::GetValue
; _this$ = ecx

; 808  : {

  034f0	55		 push	 ebp
  034f1	8b ec		 mov	 ebp, esp
  034f3	6a ff		 push	 -1
  034f5	68 00 00 00 00	 push	 __ehhandler$?GetValue@ETSLayoutMgr@@QAEHV?$CStringT@DV?$StrTraitMFC_DLL@DV?$ChTraitsCRT@D@ATL@@@@@ATL@@AAV23@@Z
  034fa	64 a1 00 00 00
	00		 mov	 eax, DWORD PTR fs:__except_list
  03500	50		 push	 eax
  03501	64 89 25 00 00
	00 00		 mov	 DWORD PTR fs:__except_list, esp
  03508	83 ec 08	 sub	 esp, 8
  0350b	56		 push	 esi
  0350c	c7 45 ec cc cc
	cc cc		 mov	 DWORD PTR [ebp-20], -858993460 ; ccccccccH
  03513	c7 45 f0 cc cc
	cc cc		 mov	 DWORD PTR [ebp-16], -858993460 ; ccccccccH
  0351a	89 4d f0	 mov	 DWORD PTR _this$[ebp], ecx
  0351d	c7 45 fc 00 00
	00 00		 mov	 DWORD PTR __$EHRec$[ebp+8], 0

; 809  : 	return m_mapParams.Lookup(name, value);

  03524	8b 45 0c	 mov	 eax, DWORD PTR _value$[ebp]
  03527	50		 push	 eax
  03528	8b f4		 mov	 esi, esp
  0352a	8d 4d 08	 lea	 ecx, DWORD PTR _name$[ebp]
  0352d	ff 15 00 00 00
	00		 call	 DWORD PTR __imp_??B?$CSimpleStringT@D$00@ATL@@QBEPBDXZ
  03533	3b f4		 cmp	 esi, esp
  03535	e8 00 00 00 00	 call	 __RTC_CheckEsp
  0353a	50		 push	 eax
  0353b	8b 4d f0	 mov	 ecx, DWORD PTR _this$[ebp]
  0353e	83 c1 0c	 add	 ecx, 12			; 0000000cH
  03541	e8 00 00 00 00	 call	 ?Lookup@CMapStringToString@@QBEHPBDAAV?$CStringT@DV?$StrTraitMFC_DLL@DV?$ChTraitsCRT@D@ATL@@@@@ATL@@@Z ; CMapStringToString::Lookup
  03546	89 45 ec	 mov	 DWORD PTR $T193460[ebp], eax
  03549	c7 45 fc ff ff
	ff ff		 mov	 DWORD PTR __$EHRec$[ebp+8], -1
  03550	8b f4		 mov	 esi, esp
  03552	8d 4d 08	 lea	 ecx, DWORD PTR _name$[ebp]
  03555	ff 15 00 00 00
	00		 call	 DWORD PTR __imp_??1?$CStringT@DV?$StrTraitMFC_DLL@DV?$ChTraitsCRT@D@ATL@@@@@ATL@@QAE@XZ
  0355b	3b f4		 cmp	 esi, esp
  0355d	e8 00 00 00 00	 call	 __RTC_CheckEsp
  03562	8b 45 ec	 mov	 eax, DWORD PTR $T193460[ebp]

; 810  : }

  03565	8b 4d f4	 mov	 ecx, DWORD PTR __$EHRec$[ebp]
  03568	64 89 0d 00 00
	00 00		 mov	 DWORD PTR fs:__except_list, ecx
  0356f	5e		 pop	 esi
  03570	83 c4 14	 add	 esp, 20			; 00000014H
  03573	3b ec		 cmp	 ebp, esp
  03575	e8 00 00 00 00	 call	 __RTC_CheckEsp
  0357a	8b e5		 mov	 esp, ebp
  0357c	5d		 pop	 ebp
  0357d	c2 08 00	 ret	 8
_TEXT	ENDS
text$x	SEGMENT
$L193461:
  00344	8b f4		 mov	 esi, esp
  00346	8d 4d 08	 lea	 ecx, DWORD PTR _name$[ebp]
  00349	ff 15 00 00 00
	00		 call	 DWORD PTR __imp_??1?$CStringT@DV?$StrTraitMFC_DLL@DV?$ChTraitsCRT@D@ATL@@@@@ATL@@QAE@XZ
  0034f	3b f4		 cmp	 esi, esp
  00351	e9 00 00 00 00	 jmp	 __RTC_CheckEsp
__ehhandler$?GetValue@ETSLayoutMgr@@QAEHV?$CStringT@DV?$StrTraitMFC_DLL@DV?$ChTraitsCRT@D@ATL@@@@@ATL@@AAV23@@Z:
  00356	b8 00 00 00 00	 mov	 eax, OFFSET FLAT:$T193463
  0035b	e9 00 00 00 00	 jmp	 ___CxxFrameHandler
text$x	ENDS
?GetValue@ETSLayoutMgr@@QAEHV?$CStringT@DV?$StrTraitMFC_DLL@DV?$ChTraitsCRT@D@ATL@@@@@ATL@@AAV23@@Z ENDP ; ETSLayoutMgr::GetValue
PUBLIC	?UpdateBkLayout@ETSLayoutMgr@@UAEXPAVCDC@@H@Z	; ETSLayoutMgr::UpdateBkLayout
PUBLIC	??0CMemDC@@QAE@PAVCDC@@ABVCRect@@@Z		; CMemDC::CMemDC
PUBLIC	??1CMemDC@@UAE@XZ				; CMemDC::~CMemDC
EXTRN	?FillSolidRect@CDC@@QAEXPBUtagRECT@@K@Z:NEAR	; CDC::FillSolidRect
EXTRN	??0CRect@@QAE@PBUtagRECT@@@Z:NEAR		; CRect::CRect
EXTRN	?GetWindowRect@CWnd@@QBEXPAUtagRECT@@@Z:NEAR	; CWnd::GetWindowRect
EXTRN	?ScreenToClient@CWnd@@QBEXPAUtagRECT@@@Z:NEAR	; CWnd::ScreenToClient
xdata$x	SEGMENT
$T193476 DD	0ffffffffH
	DD	FLAT:$L193468
$T193470 DD	019930520H
	DD	01H
	DD	FLAT:$T193476
	DD	2 DUP(00H)
	DD	2 DUP(00H)
; Function compile flags: /Odt /RTCsu
xdata$x	ENDS
_TEXT	SEGMENT
$T193467 = -108						; size = 16
_memdc$190992 = -88					; size = 44
_rc$ = -36						; size = 16
_this$ = -16						; size = 4
__$EHRec$ = -12						; size = 12
_pDC$ = 8						; size = 4
_bUseMemDC$ = 12					; size = 4
?UpdateBkLayout@ETSLayoutMgr@@UAEXPAVCDC@@H@Z PROC NEAR	; ETSLayoutMgr::UpdateBkLayout
; _this$ = ecx

; 813  : {

  03580	55		 push	 ebp
  03581	8b ec		 mov	 ebp, esp
  03583	6a ff		 push	 -1
  03585	68 00 00 00 00	 push	 __ehhandler$?UpdateBkLayout@ETSLayoutMgr@@UAEXPAVCDC@@H@Z
  0358a	64 a1 00 00 00
	00		 mov	 eax, DWORD PTR fs:__except_list
  03590	50		 push	 eax
  03591	64 89 25 00 00
	00 00		 mov	 DWORD PTR fs:__except_list, esp
  03598	83 ec 60	 sub	 esp, 96			; 00000060H
  0359b	56		 push	 esi
  0359c	57		 push	 edi
  0359d	51		 push	 ecx
  0359e	8d 7d 94	 lea	 edi, DWORD PTR [ebp-108]
  035a1	b9 18 00 00 00	 mov	 ecx, 24			; 00000018H
  035a6	b8 cc cc cc cc	 mov	 eax, -858993460		; ccccccccH
  035ab	f3 ab		 rep stosd
  035ad	59		 pop	 ecx
  035ae	89 4d f0	 mov	 DWORD PTR _this$[ebp], ecx

; 814  : 	CRect rc;

  035b1	8d 4d dc	 lea	 ecx, DWORD PTR _rc$[ebp]
  035b4	e8 00 00 00 00	 call	 ??0CRect@@QAE@XZ	; CRect::CRect

; 815  : 	
; 816  : 	m_pDC = pDC;

  035b9	8b 45 f0	 mov	 eax, DWORD PTR _this$[ebp]
  035bc	8b 4d 08	 mov	 ecx, DWORD PTR _pDC$[ebp]
  035bf	89 48 08	 mov	 DWORD PTR [eax+8], ecx

; 817  : 	m_pWnd->GetWindowRect(&rc);

  035c2	8d 55 dc	 lea	 edx, DWORD PTR _rc$[ebp]
  035c5	52		 push	 edx
  035c6	8b 45 f0	 mov	 eax, DWORD PTR _this$[ebp]
  035c9	8b 48 30	 mov	 ecx, DWORD PTR [eax+48]
  035cc	e8 00 00 00 00	 call	 ?GetWindowRect@CWnd@@QBEXPAUtagRECT@@@Z ; CWnd::GetWindowRect

; 818  : 	m_pWnd->ScreenToClient(&rc);

  035d1	8d 4d dc	 lea	 ecx, DWORD PTR _rc$[ebp]
  035d4	51		 push	 ecx
  035d5	8b 55 f0	 mov	 edx, DWORD PTR _this$[ebp]
  035d8	8b 4a 30	 mov	 ecx, DWORD PTR [edx+48]
  035db	e8 00 00 00 00	 call	 ?ScreenToClient@CWnd@@QBEXPAUtagRECT@@@Z ; CWnd::ScreenToClient

; 819  : 	if(bUseMemDC)

  035e0	83 7d 0c 00	 cmp	 DWORD PTR _bUseMemDC$[ebp], 0
  035e4	74 74		 je	 SHORT $L190991

; 820  : 	{
; 821  : 		CMemDC memdc(pDC, &rc);

  035e6	8d 45 dc	 lea	 eax, DWORD PTR _rc$[ebp]
  035e9	50		 push	 eax
  035ea	8d 4d 94	 lea	 ecx, DWORD PTR $T193467[ebp]
  035ed	e8 00 00 00 00	 call	 ??0CRect@@QAE@PBUtagRECT@@@Z ; CRect::CRect
  035f2	8d 4d 94	 lea	 ecx, DWORD PTR $T193467[ebp]
  035f5	51		 push	 ecx
  035f6	8b 55 08	 mov	 edx, DWORD PTR _pDC$[ebp]
  035f9	52		 push	 edx
  035fa	8d 4d a8	 lea	 ecx, DWORD PTR _memdc$190992[ebp]
  035fd	e8 00 00 00 00	 call	 ??0CMemDC@@QAE@PAVCDC@@ABVCRect@@@Z ; CMemDC::CMemDC
  03602	c7 45 fc 00 00
	00 00		 mov	 DWORD PTR __$EHRec$[ebp+8], 0

; 822  : 		m_pDC = &memdc;

  03609	8b 45 f0	 mov	 eax, DWORD PTR _this$[ebp]
  0360c	8d 4d a8	 lea	 ecx, DWORD PTR _memdc$190992[ebp]
  0360f	89 48 08	 mov	 DWORD PTR [eax+8], ecx

; 823  : 
; 824  : 		if(this->m_clrBackground != 0)

  03612	8b 55 f0	 mov	 edx, DWORD PTR _this$[ebp]
  03615	83 7a 54 00	 cmp	 DWORD PTR [edx+84], 0
  03619	74 16		 je	 SHORT $L190994

; 825  : 			m_pDC->FillSolidRect(&rc, m_clrBackground);

  0361b	8b 45 f0	 mov	 eax, DWORD PTR _this$[ebp]
  0361e	8b 48 54	 mov	 ecx, DWORD PTR [eax+84]
  03621	51		 push	 ecx
  03622	8d 55 dc	 lea	 edx, DWORD PTR _rc$[ebp]
  03625	52		 push	 edx
  03626	8b 45 f0	 mov	 eax, DWORD PTR _this$[ebp]
  03629	8b 48 08	 mov	 ecx, DWORD PTR [eax+8]
  0362c	e8 00 00 00 00	 call	 ?FillSolidRect@CDC@@QAEXPBUtagRECT@@K@Z ; CDC::FillSolidRect
$L190994:

; 826  : 		Layout(rc);

  03631	8b f4		 mov	 esi, esp
  03633	8d 4d dc	 lea	 ecx, DWORD PTR _rc$[ebp]
  03636	51		 push	 ecx
  03637	8b 55 f0	 mov	 edx, DWORD PTR _this$[ebp]
  0363a	8b 02		 mov	 eax, DWORD PTR [edx]
  0363c	8b 4d f0	 mov	 ecx, DWORD PTR _this$[ebp]
  0363f	ff 50 14	 call	 DWORD PTR [eax+20]
  03642	3b f4		 cmp	 esi, esp
  03644	e8 00 00 00 00	 call	 __RTC_CheckEsp

; 827  : 	}

  03649	c7 45 fc ff ff
	ff ff		 mov	 DWORD PTR __$EHRec$[ebp+8], -1
  03650	8d 4d a8	 lea	 ecx, DWORD PTR _memdc$190992[ebp]
  03653	e8 00 00 00 00	 call	 ??1CMemDC@@UAE@XZ	; CMemDC::~CMemDC

; 828  : 	else

  03658	eb 37		 jmp	 SHORT $L190995
$L190991:

; 829  : 	{
; 830  : 		if(this->m_clrBackground != 0)

  0365a	8b 4d f0	 mov	 ecx, DWORD PTR _this$[ebp]
  0365d	83 79 54 00	 cmp	 DWORD PTR [ecx+84], 0
  03661	74 16		 je	 SHORT $L190996

; 831  : 			m_pDC->FillSolidRect(&rc, m_clrBackground);

  03663	8b 55 f0	 mov	 edx, DWORD PTR _this$[ebp]
  03666	8b 42 54	 mov	 eax, DWORD PTR [edx+84]
  03669	50		 push	 eax
  0366a	8d 4d dc	 lea	 ecx, DWORD PTR _rc$[ebp]
  0366d	51		 push	 ecx
  0366e	8b 55 f0	 mov	 edx, DWORD PTR _this$[ebp]
  03671	8b 4a 08	 mov	 ecx, DWORD PTR [edx+8]
  03674	e8 00 00 00 00	 call	 ?FillSolidRect@CDC@@QAEXPBUtagRECT@@K@Z ; CDC::FillSolidRect
$L190996:

; 832  : 		Layout(rc);

  03679	8b f4		 mov	 esi, esp
  0367b	8d 45 dc	 lea	 eax, DWORD PTR _rc$[ebp]
  0367e	50		 push	 eax
  0367f	8b 4d f0	 mov	 ecx, DWORD PTR _this$[ebp]
  03682	8b 11		 mov	 edx, DWORD PTR [ecx]
  03684	8b 4d f0	 mov	 ecx, DWORD PTR _this$[ebp]
  03687	ff 52 14	 call	 DWORD PTR [edx+20]
  0368a	3b f4		 cmp	 esi, esp
  0368c	e8 00 00 00 00	 call	 __RTC_CheckEsp
$L190995:

; 833  : 	}
; 834  : 	m_pDC = NULL;

  03691	8b 45 f0	 mov	 eax, DWORD PTR _this$[ebp]
  03694	c7 40 08 00 00
	00 00		 mov	 DWORD PTR [eax+8], 0

; 835  : 	//HRGN hrgn = CreateRectRgn(0,0,0,0);
; 836  : 	//int ret = ::GetWindowRgn(m_pWnd->m_hWnd,hrgn);
; 837  : 	//if(ret == COMPLEXREGION)
; 838  : 	//	;//SelectClipRgn(pDC->m_hDC,hrgn);
; 839  : 	//::DeleteObject(hrgn);
; 840  : //
; 841  : //	NULLREGION The region is empty. 
; 842  : //SIMPLEREGION The region is a single rectangle. 
; 843  : //COMPLEXREGION The region is more than one rectangle. 
; 844  : //ERROR 
; 845  : 
; 846  : 
; 847  : }

  0369b	52		 push	 edx
  0369c	8b cd		 mov	 ecx, ebp
  0369e	50		 push	 eax
  0369f	8d 15 00 00 00
	00		 lea	 edx, DWORD PTR $L193475
  036a5	e8 00 00 00 00	 call	 @_RTC_CheckStackVars@8
  036aa	58		 pop	 eax
  036ab	5a		 pop	 edx
  036ac	8b 4d f4	 mov	 ecx, DWORD PTR __$EHRec$[ebp]
  036af	64 89 0d 00 00
	00 00		 mov	 DWORD PTR fs:__except_list, ecx
  036b6	5f		 pop	 edi
  036b7	5e		 pop	 esi
  036b8	83 c4 6c	 add	 esp, 108		; 0000006cH
  036bb	3b ec		 cmp	 ebp, esp
  036bd	e8 00 00 00 00	 call	 __RTC_CheckEsp
  036c2	8b e5		 mov	 esp, ebp
  036c4	5d		 pop	 ebp
  036c5	c2 08 00	 ret	 8
$L193475:
  036c8	02 00 00 00	 DD	 2
  036cc	00 00 00 00	 DD	 $L193474
$L193474:
  036d0	dc ff ff ff	 DD	 -36			; ffffffdcH
  036d4	10 00 00 00	 DD	 16			; 00000010H
  036d8	00 00 00 00	 DD	 $L193471
  036dc	a8 ff ff ff	 DD	 -88			; ffffffa8H
  036e0	2c 00 00 00	 DD	 44			; 0000002cH
  036e4	00 00 00 00	 DD	 $L193472
$L193472:
  036e8	6d		 DB	 109			; 0000006dH
  036e9	65		 DB	 101			; 00000065H
  036ea	6d		 DB	 109			; 0000006dH
  036eb	64		 DB	 100			; 00000064H
  036ec	63		 DB	 99			; 00000063H
  036ed	00		 DB	 0
$L193471:
  036ee	72		 DB	 114			; 00000072H
  036ef	63		 DB	 99			; 00000063H
  036f0	00		 DB	 0
_TEXT	ENDS
text$x	SEGMENT
$L193468:
  00360	8d 4d a8	 lea	 ecx, DWORD PTR _memdc$190992[ebp]
  00363	e9 00 00 00 00	 jmp	 ??1CMemDC@@UAE@XZ	; CMemDC::~CMemDC
__ehhandler$?UpdateBkLayout@ETSLayoutMgr@@UAEXPAVCDC@@H@Z:
  00368	b8 00 00 00 00	 mov	 eax, OFFSET FLAT:$T193470
  0036d	e9 00 00 00 00	 jmp	 ___CxxFrameHandler
text$x	ENDS
?UpdateBkLayout@ETSLayoutMgr@@UAEXPAVCDC@@H@Z ENDP	; ETSLayoutMgr::UpdateBkLayout
PUBLIC	?isLayerExist@PaneMulti@ETSLayoutMgr@@QAE_NV?$CStringT@DV?$StrTraitMFC_DLL@DV?$ChTraitsCRT@D@ATL@@@@@ATL@@@Z ; ETSLayoutMgr::PaneMulti::isLayerExist
xdata$x	SEGMENT
$T193488 DD	0ffffffffH
	DD	FLAT:$L193480
	DD	00H
	DD	FLAT:$L193481
$T193483 DD	019930520H
	DD	02H
	DD	FLAT:$T193488
	DD	2 DUP(00H)
	DD	2 DUP(00H)
; Function compile flags: /Odt /RTCsu
xdata$x	ENDS
_TEXT	SEGMENT
$T193479 = -30						; size = 1
$T193478 = -29						; size = 1
_panebase$ = -24					; size = 4
_this$ = -16						; size = 4
__$EHRec$ = -12						; size = 12
_name$ = 8						; size = 4
?isLayerExist@PaneMulti@ETSLayoutMgr@@QAE_NV?$CStringT@DV?$StrTraitMFC_DLL@DV?$ChTraitsCRT@D@ATL@@@@@ATL@@@Z PROC NEAR ; ETSLayoutMgr::PaneMulti::isLayerExist
; _this$ = ecx

; 852  : {

  03700	55		 push	 ebp
  03701	8b ec		 mov	 ebp, esp
  03703	6a ff		 push	 -1
  03705	68 00 00 00 00	 push	 __ehhandler$?isLayerExist@PaneMulti@ETSLayoutMgr@@QAE_NV?$CStringT@DV?$StrTraitMFC_DLL@DV?$ChTraitsCRT@D@ATL@@@@@ATL@@@Z
  0370a	64 a1 00 00 00
	00		 mov	 eax, DWORD PTR fs:__except_list
  03710	50		 push	 eax
  03711	64 89 25 00 00
	00 00		 mov	 DWORD PTR fs:__except_list, esp
  03718	83 ec 14	 sub	 esp, 20			; 00000014H
  0371b	56		 push	 esi
  0371c	b8 cc cc cc cc	 mov	 eax, -858993460		; ccccccccH
  03721	89 45 e0	 mov	 DWORD PTR [ebp-32], eax
  03724	89 45 e4	 mov	 DWORD PTR [ebp-28], eax
  03727	89 45 e8	 mov	 DWORD PTR [ebp-24], eax
  0372a	89 45 ec	 mov	 DWORD PTR [ebp-20], eax
  0372d	89 45 f0	 mov	 DWORD PTR [ebp-16], eax
  03730	89 4d f0	 mov	 DWORD PTR _this$[ebp], ecx
  03733	c7 45 fc 00 00
	00 00		 mov	 DWORD PTR __$EHRec$[ebp+8], 0

; 853  : 	CPaneBase	panebase;

  0373a	8d 4d e8	 lea	 ecx, DWORD PTR _panebase$[ebp]
  0373d	e8 00 00 00 00	 call	 ??0CPaneBase@ETSLayoutMgr@@QAE@XZ ; ETSLayoutMgr::CPaneBase::CPaneBase
  03742	c6 45 fc 01	 mov	 BYTE PTR __$EHRec$[ebp+8], 1

; 854  : 	if(!m_mapLayers.Lookup(name, panebase))

  03746	8d 45 e8	 lea	 eax, DWORD PTR _panebase$[ebp]
  03749	50		 push	 eax
  0374a	8b f4		 mov	 esi, esp
  0374c	8d 4d 08	 lea	 ecx, DWORD PTR _name$[ebp]
  0374f	ff 15 00 00 00
	00		 call	 DWORD PTR __imp_??B?$CSimpleStringT@D$00@ATL@@QBEPBDXZ
  03755	3b f4		 cmp	 esi, esp
  03757	e8 00 00 00 00	 call	 __RTC_CheckEsp
  0375c	50		 push	 eax
  0375d	8b 4d f0	 mov	 ecx, DWORD PTR _this$[ebp]
  03760	81 c1 8c 00 00
	00		 add	 ecx, 140		; 0000008cH
  03766	e8 00 00 00 00	 call	 ?Lookup@?$CMap@V?$CStringT@DV?$StrTraitMFC_DLL@DV?$ChTraitsCRT@D@ATL@@@@@ATL@@PBDVCPaneBase@ETSLayoutMgr@@V34@@@QBEHPBDAAVCPaneBase@ETSLayoutMgr@@@Z ; CMap<ATL::CStringT<char,StrTraitMFC_DLL<char,ATL::ChTraitsCRT<char> > >,char const *,ETSLayoutMgr::CPaneBase,ETSLayoutMgr::CPaneBase>::Lookup
  0376b	85 c0		 test	 eax, eax
  0376d	75 2e		 jne	 SHORT $L191002

; 855  : 	{
; 856  : 		return false;

  0376f	c6 45 e3 00	 mov	 BYTE PTR $T193478[ebp], 0
  03773	c6 45 fc 00	 mov	 BYTE PTR __$EHRec$[ebp+8], 0
  03777	8d 4d e8	 lea	 ecx, DWORD PTR _panebase$[ebp]
  0377a	e8 00 00 00 00	 call	 ??1CPaneBase@ETSLayoutMgr@@QAE@XZ ; ETSLayoutMgr::CPaneBase::~CPaneBase
  0377f	c7 45 fc ff ff
	ff ff		 mov	 DWORD PTR __$EHRec$[ebp+8], -1
  03786	8b f4		 mov	 esi, esp
  03788	8d 4d 08	 lea	 ecx, DWORD PTR _name$[ebp]
  0378b	ff 15 00 00 00
	00		 call	 DWORD PTR __imp_??1?$CStringT@DV?$StrTraitMFC_DLL@DV?$ChTraitsCRT@D@ATL@@@@@ATL@@QAE@XZ
  03791	3b f4		 cmp	 esi, esp
  03793	e8 00 00 00 00	 call	 __RTC_CheckEsp
  03798	8a 45 e3	 mov	 al, BYTE PTR $T193478[ebp]
  0379b	eb 2c		 jmp	 SHORT $L191000
$L191002:

; 857  : 	}
; 858  : 
; 859  : 	return true;

  0379d	c6 45 e2 01	 mov	 BYTE PTR $T193479[ebp], 1
  037a1	c6 45 fc 00	 mov	 BYTE PTR __$EHRec$[ebp+8], 0
  037a5	8d 4d e8	 lea	 ecx, DWORD PTR _panebase$[ebp]
  037a8	e8 00 00 00 00	 call	 ??1CPaneBase@ETSLayoutMgr@@QAE@XZ ; ETSLayoutMgr::CPaneBase::~CPaneBase
  037ad	c7 45 fc ff ff
	ff ff		 mov	 DWORD PTR __$EHRec$[ebp+8], -1
  037b4	8b f4		 mov	 esi, esp
  037b6	8d 4d 08	 lea	 ecx, DWORD PTR _name$[ebp]
  037b9	ff 15 00 00 00
	00		 call	 DWORD PTR __imp_??1?$CStringT@DV?$StrTraitMFC_DLL@DV?$ChTraitsCRT@D@ATL@@@@@ATL@@QAE@XZ
  037bf	3b f4		 cmp	 esi, esp
  037c1	e8 00 00 00 00	 call	 __RTC_CheckEsp
  037c6	8a 45 e2	 mov	 al, BYTE PTR $T193479[ebp]
$L191000:

; 860  : }

  037c9	52		 push	 edx
  037ca	8b cd		 mov	 ecx, ebp
  037cc	50		 push	 eax
  037cd	8d 15 00 00 00
	00		 lea	 edx, DWORD PTR $L193487
  037d3	e8 00 00 00 00	 call	 @_RTC_CheckStackVars@8
  037d8	58		 pop	 eax
  037d9	5a		 pop	 edx
  037da	8b 4d f4	 mov	 ecx, DWORD PTR __$EHRec$[ebp]
  037dd	64 89 0d 00 00
	00 00		 mov	 DWORD PTR fs:__except_list, ecx
  037e4	5e		 pop	 esi
  037e5	83 c4 20	 add	 esp, 32			; 00000020H
  037e8	3b ec		 cmp	 ebp, esp
  037ea	e8 00 00 00 00	 call	 __RTC_CheckEsp
  037ef	8b e5		 mov	 esp, ebp
  037f1	5d		 pop	 ebp
  037f2	c2 04 00	 ret	 4
$L193487:
  037f5	01 00 00 00	 DD	 1
  037f9	00 00 00 00	 DD	 $L193486
$L193486:
  037fd	e8 ff ff ff	 DD	 -24			; ffffffe8H
  03801	04 00 00 00	 DD	 4
  03805	00 00 00 00	 DD	 $L193484
$L193484:
  03809	70		 DB	 112			; 00000070H
  0380a	61		 DB	 97			; 00000061H
  0380b	6e		 DB	 110			; 0000006eH
  0380c	65		 DB	 101			; 00000065H
  0380d	62		 DB	 98			; 00000062H
  0380e	61		 DB	 97			; 00000061H
  0380f	73		 DB	 115			; 00000073H
  03810	65		 DB	 101			; 00000065H
  03811	00		 DB	 0
_TEXT	ENDS
text$x	SEGMENT
$L193480:
  00372	8b f4		 mov	 esi, esp
  00374	8d 4d 08	 lea	 ecx, DWORD PTR _name$[ebp]
  00377	ff 15 00 00 00
	00		 call	 DWORD PTR __imp_??1?$CStringT@DV?$StrTraitMFC_DLL@DV?$ChTraitsCRT@D@ATL@@@@@ATL@@QAE@XZ
  0037d	3b f4		 cmp	 esi, esp
  0037f	e9 00 00 00 00	 jmp	 __RTC_CheckEsp
$L193481:
  00384	8d 4d e8	 lea	 ecx, DWORD PTR _panebase$[ebp]
  00387	e9 00 00 00 00	 jmp	 ??1CPaneBase@ETSLayoutMgr@@QAE@XZ ; ETSLayoutMgr::CPaneBase::~CPaneBase
__ehhandler$?isLayerExist@PaneMulti@ETSLayoutMgr@@QAE_NV?$CStringT@DV?$StrTraitMFC_DLL@DV?$ChTraitsCRT@D@ATL@@@@@ATL@@@Z:
  0038c	b8 00 00 00 00	 mov	 eax, OFFSET FLAT:$T193483
  00391	e9 00 00 00 00	 jmp	 ___CxxFrameHandler
text$x	ENDS
?isLayerExist@PaneMulti@ETSLayoutMgr@@QAE_NV?$CStringT@DV?$StrTraitMFC_DLL@DV?$ChTraitsCRT@D@ATL@@@@@ATL@@@Z ENDP ; ETSLayoutMgr::PaneMulti::isLayerExist
EXTRN	__imp_?Compare@?$CStringT@DV?$StrTraitMFC_DLL@DV?$ChTraitsCRT@D@ATL@@@@@ATL@@QBEHPBD@Z:NEAR
; Function compile flags: /Odt /RTCsu
; File d:\program files (x86)\microsoft visual studio .net 2003\vc7\atlmfc\include\cstringt.h
;	COMDAT ??8ATL@@YA_NABV?$CStringT@DV?$StrTraitMFC_DLL@DV?$ChTraitsCRT@D@ATL@@@@@0@PBD@Z
_TEXT	SEGMENT
_str1$ = 8						; size = 4
_psz2$ = 12						; size = 4
??8ATL@@YA_NABV?$CStringT@DV?$StrTraitMFC_DLL@DV?$ChTraitsCRT@D@ATL@@@@@0@PBD@Z PROC NEAR ; ATL::operator==, COMDAT

; 2087 : 	{

  00000	55		 push	 ebp
  00001	8b ec		 mov	 ebp, esp
  00003	56		 push	 esi

; 2088 : 		return( str1.Compare( psz2 ) == 0 );

  00004	8b f4		 mov	 esi, esp
  00006	8b 45 0c	 mov	 eax, DWORD PTR _psz2$[ebp]
  00009	50		 push	 eax
  0000a	8b 4d 08	 mov	 ecx, DWORD PTR _str1$[ebp]
  0000d	ff 15 00 00 00
	00		 call	 DWORD PTR __imp_?Compare@?$CStringT@DV?$StrTraitMFC_DLL@DV?$ChTraitsCRT@D@ATL@@@@@ATL@@QBEHPBD@Z
  00013	3b f4		 cmp	 esi, esp
  00015	e8 00 00 00 00	 call	 __RTC_CheckEsp
  0001a	f7 d8		 neg	 eax
  0001c	1b c0		 sbb	 eax, eax
  0001e	40		 inc	 eax

; 2089 : 	}

  0001f	5e		 pop	 esi
  00020	3b ec		 cmp	 ebp, esp
  00022	e8 00 00 00 00	 call	 __RTC_CheckEsp
  00027	5d		 pop	 ebp
  00028	c3		 ret	 0
??8ATL@@YA_NABV?$CStringT@DV?$StrTraitMFC_DLL@DV?$ChTraitsCRT@D@ATL@@@@@0@PBD@Z ENDP ; ATL::operator==
; Function compile flags: /Odt /RTCsu
; File d:\program files (x86)\microsoft visual studio .net 2003\vc7\atlmfc\include\afxtempl.h
_TEXT	ENDS
;	COMDAT ?GetSize@?$CArray@VCPaneBase@ETSLayoutMgr@@V12@@@QBEHXZ
_TEXT	SEGMENT
_this$ = -4						; size = 4
?GetSize@?$CArray@VCPaneBase@ETSLayoutMgr@@V12@@@QBEHXZ PROC NEAR ; CArray<ETSLayoutMgr::CPaneBase,ETSLayoutMgr::CPaneBase>::GetSize, COMDAT
; _this$ = ecx

; 272  : 	{ return m_nSize; }

  00000	55		 push	 ebp
  00001	8b ec		 mov	 ebp, esp
  00003	51		 push	 ecx
  00004	c7 45 fc cc cc
	cc cc		 mov	 DWORD PTR [ebp-4], -858993460 ; ccccccccH
  0000b	89 4d fc	 mov	 DWORD PTR _this$[ebp], ecx
  0000e	8b 45 fc	 mov	 eax, DWORD PTR _this$[ebp]
  00011	8b 40 08	 mov	 eax, DWORD PTR [eax+8]
  00014	8b e5		 mov	 esp, ebp
  00016	5d		 pop	 ebp
  00017	c3		 ret	 0
?GetSize@?$CArray@VCPaneBase@ETSLayoutMgr@@V12@@@QBEHXZ ENDP ; CArray<ETSLayoutMgr::CPaneBase,ETSLayoutMgr::CPaneBase>::GetSize
_TEXT	ENDS
PUBLIC	?SetSize@?$CArray@VCPaneBase@ETSLayoutMgr@@V12@@@QAEXHH@Z ; CArray<ETSLayoutMgr::CPaneBase,ETSLayoutMgr::CPaneBase>::SetSize
; Function compile flags: /Odt /RTCsu
;	COMDAT ?RemoveAll@?$CArray@VCPaneBase@ETSLayoutMgr@@V12@@@QAEXXZ
_TEXT	SEGMENT
_this$ = -4						; size = 4
?RemoveAll@?$CArray@VCPaneBase@ETSLayoutMgr@@V12@@@QAEXXZ PROC NEAR ; CArray<ETSLayoutMgr::CPaneBase,ETSLayoutMgr::CPaneBase>::RemoveAll, COMDAT
; _this$ = ecx

; 284  : 	{ SetSize(0, -1); }

  00000	55		 push	 ebp
  00001	8b ec		 mov	 ebp, esp
  00003	51		 push	 ecx
  00004	c7 45 fc cc cc
	cc cc		 mov	 DWORD PTR [ebp-4], -858993460 ; ccccccccH
  0000b	89 4d fc	 mov	 DWORD PTR _this$[ebp], ecx
  0000e	6a ff		 push	 -1
  00010	6a 00		 push	 0
  00012	8b 4d fc	 mov	 ecx, DWORD PTR _this$[ebp]
  00015	e8 00 00 00 00	 call	 ?SetSize@?$CArray@VCPaneBase@ETSLayoutMgr@@V12@@@QAEXHH@Z ; CArray<ETSLayoutMgr::CPaneBase,ETSLayoutMgr::CPaneBase>::SetSize
  0001a	83 c4 04	 add	 esp, 4
  0001d	3b ec		 cmp	 ebp, esp
  0001f	e8 00 00 00 00	 call	 __RTC_CheckEsp
  00024	8b e5		 mov	 esp, ebp
  00026	5d		 pop	 ebp
  00027	c3		 ret	 0
?RemoveAll@?$CArray@VCPaneBase@ETSLayoutMgr@@V12@@@QAEXXZ ENDP ; CArray<ETSLayoutMgr::CPaneBase,ETSLayoutMgr::CPaneBase>::RemoveAll
_TEXT	ENDS
PUBLIC	?ElementAt@?$CArray@VCPaneBase@ETSLayoutMgr@@V12@@@QAEAAVCPaneBase@ETSLayoutMgr@@H@Z ; CArray<ETSLayoutMgr::CPaneBase,ETSLayoutMgr::CPaneBase>::ElementAt
; Function compile flags: /Odt /RTCsu
;	COMDAT ??A?$CArray@VCPaneBase@ETSLayoutMgr@@V12@@@QAEAAVCPaneBase@ETSLayoutMgr@@H@Z
_TEXT	SEGMENT
_this$ = -4						; size = 4
_nIndex$ = 8						; size = 4
??A?$CArray@VCPaneBase@ETSLayoutMgr@@V12@@@QAEAAVCPaneBase@ETSLayoutMgr@@H@Z PROC NEAR ; CArray<ETSLayoutMgr::CPaneBase,ETSLayoutMgr::CPaneBase>::operator[], COMDAT
; _this$ = ecx

; 342  : 	{ return ElementAt(nIndex); }

  00000	55		 push	 ebp
  00001	8b ec		 mov	 ebp, esp
  00003	51		 push	 ecx
  00004	c7 45 fc cc cc
	cc cc		 mov	 DWORD PTR [ebp-4], -858993460 ; ccccccccH
  0000b	89 4d fc	 mov	 DWORD PTR _this$[ebp], ecx
  0000e	8b 45 08	 mov	 eax, DWORD PTR _nIndex$[ebp]
  00011	50		 push	 eax
  00012	8b 4d fc	 mov	 ecx, DWORD PTR _this$[ebp]
  00015	e8 00 00 00 00	 call	 ?ElementAt@?$CArray@VCPaneBase@ETSLayoutMgr@@V12@@@QAEAAVCPaneBase@ETSLayoutMgr@@H@Z ; CArray<ETSLayoutMgr::CPaneBase,ETSLayoutMgr::CPaneBase>::ElementAt
  0001a	83 c4 04	 add	 esp, 4
  0001d	3b ec		 cmp	 ebp, esp
  0001f	e8 00 00 00 00	 call	 __RTC_CheckEsp
  00024	8b e5		 mov	 esp, ebp
  00026	5d		 pop	 ebp
  00027	c2 04 00	 ret	 4
??A?$CArray@VCPaneBase@ETSLayoutMgr@@V12@@@QAEAAVCPaneBase@ETSLayoutMgr@@H@Z ENDP ; CArray<ETSLayoutMgr::CPaneBase,ETSLayoutMgr::CPaneBase>::operator[]
_TEXT	ENDS
PUBLIC	?GetAssocAt@?$CMap@V?$CStringT@DV?$StrTraitMFC_DLL@DV?$ChTraitsCRT@D@ATL@@@@@ATL@@PBDVCPaneBase@ETSLayoutMgr@@V34@@@IBEPAVCAssoc@1@PBDAAI1@Z ; CMap<ATL::CStringT<char,StrTraitMFC_DLL<char,ATL::ChTraitsCRT<char> > >,char const *,ETSLayoutMgr::CPaneBase,ETSLayoutMgr::CPaneBase>::GetAssocAt
EXTRN	?AfxAssertValidObject@@YGXPBVCObject@@PBDH@Z:NEAR ; AfxAssertValidObject
; Function compile flags: /Odt /RTCsu
;	COMDAT ?Lookup@?$CMap@V?$CStringT@DV?$StrTraitMFC_DLL@DV?$ChTraitsCRT@D@ATL@@@@@ATL@@PBDVCPaneBase@ETSLayoutMgr@@V34@@@QBEHPBDAAVCPaneBase@ETSLayoutMgr@@@Z
_TEXT	SEGMENT
_pAssoc$ = -32						; size = 4
_nHashValue$ = -24					; size = 4
_nHashBucket$ = -12					; size = 4
_this$ = -4						; size = 4
_key$ = 8						; size = 4
_rValue$ = 12						; size = 4
?Lookup@?$CMap@V?$CStringT@DV?$StrTraitMFC_DLL@DV?$ChTraitsCRT@D@ATL@@@@@ATL@@PBDVCPaneBase@ETSLayoutMgr@@V34@@@QBEHPBDAAVCPaneBase@ETSLayoutMgr@@@Z PROC NEAR ; CMap<ATL::CStringT<char,StrTraitMFC_DLL<char,ATL::ChTraitsCRT<char> > >,char const *,ETSLayoutMgr::CPaneBase,ETSLayoutMgr::CPaneBase>::Lookup, COMDAT
; _this$ = ecx

; 1552 : {

  00000	55		 push	 ebp
  00001	8b ec		 mov	 ebp, esp
  00003	83 ec 20	 sub	 esp, 32			; 00000020H
  00006	b8 cc cc cc cc	 mov	 eax, -858993460		; ccccccccH
  0000b	89 45 e0	 mov	 DWORD PTR [ebp-32], eax
  0000e	89 45 e4	 mov	 DWORD PTR [ebp-28], eax
  00011	89 45 e8	 mov	 DWORD PTR [ebp-24], eax
  00014	89 45 ec	 mov	 DWORD PTR [ebp-20], eax
  00017	89 45 f0	 mov	 DWORD PTR [ebp-16], eax
  0001a	89 45 f4	 mov	 DWORD PTR [ebp-12], eax
  0001d	89 45 f8	 mov	 DWORD PTR [ebp-8], eax
  00020	89 45 fc	 mov	 DWORD PTR [ebp-4], eax
  00023	89 4d fc	 mov	 DWORD PTR _this$[ebp], ecx

; 1553 : 	ASSERT_VALID(this);

  00026	68 11 06 00 00	 push	 1553			; 00000611H
  0002b	68 00 00 00 00	 push	 OFFSET FLAT:$SG191529
  00030	8b 45 fc	 mov	 eax, DWORD PTR _this$[ebp]
  00033	50		 push	 eax
  00034	e8 00 00 00 00	 call	 ?AfxAssertValidObject@@YGXPBVCObject@@PBDH@Z ; AfxAssertValidObject

; 1554 : 
; 1555 : 	UINT nHashBucket, nHashValue;
; 1556 : 	CAssoc* pAssoc = GetAssocAt(key, nHashBucket, nHashValue);

  00039	8d 4d e8	 lea	 ecx, DWORD PTR _nHashValue$[ebp]
  0003c	51		 push	 ecx
  0003d	8d 55 f4	 lea	 edx, DWORD PTR _nHashBucket$[ebp]
  00040	52		 push	 edx
  00041	8b 45 08	 mov	 eax, DWORD PTR _key$[ebp]
  00044	50		 push	 eax
  00045	8b 4d fc	 mov	 ecx, DWORD PTR _this$[ebp]
  00048	e8 00 00 00 00	 call	 ?GetAssocAt@?$CMap@V?$CStringT@DV?$StrTraitMFC_DLL@DV?$ChTraitsCRT@D@ATL@@@@@ATL@@PBDVCPaneBase@ETSLayoutMgr@@V34@@@IBEPAVCAssoc@1@PBDAAI1@Z ; CMap<ATL::CStringT<char,StrTraitMFC_DLL<char,ATL::ChTraitsCRT<char> > >,char const *,ETSLayoutMgr::CPaneBase,ETSLayoutMgr::CPaneBase>::GetAssocAt
  0004d	89 45 e0	 mov	 DWORD PTR _pAssoc$[ebp], eax

; 1557 : 	if (pAssoc == NULL)

  00050	83 7d e0 00	 cmp	 DWORD PTR _pAssoc$[ebp], 0
  00054	75 04		 jne	 SHORT $L191533

; 1558 : 		return FALSE;  // not in map

  00056	33 c0		 xor	 eax, eax
  00058	eb 14		 jmp	 SHORT $L191528
$L191533:

; 1559 : 
; 1560 : 	rValue = pAssoc->value;

  0005a	8b 4d e0	 mov	 ecx, DWORD PTR _pAssoc$[ebp]
  0005d	83 c1 04	 add	 ecx, 4
  00060	51		 push	 ecx
  00061	8b 4d 0c	 mov	 ecx, DWORD PTR _rValue$[ebp]
  00064	e8 00 00 00 00	 call	 ??4CPaneBase@ETSLayoutMgr@@QAEXABV01@@Z ; ETSLayoutMgr::CPaneBase::operator=

; 1561 : 	return TRUE;

  00069	b8 01 00 00 00	 mov	 eax, 1
$L191528:

; 1562 : }

  0006e	52		 push	 edx
  0006f	8b cd		 mov	 ecx, ebp
  00071	50		 push	 eax
  00072	8d 15 00 00 00
	00		 lea	 edx, DWORD PTR $L193497
  00078	e8 00 00 00 00	 call	 @_RTC_CheckStackVars@8
  0007d	58		 pop	 eax
  0007e	5a		 pop	 edx
  0007f	83 c4 20	 add	 esp, 32			; 00000020H
  00082	3b ec		 cmp	 ebp, esp
  00084	e8 00 00 00 00	 call	 __RTC_CheckEsp
  00089	8b e5		 mov	 esp, ebp
  0008b	5d		 pop	 ebp
  0008c	c2 08 00	 ret	 8
$L193497:
  0008f	02 00 00 00	 DD	 2
  00093	00 00 00 00	 DD	 $L193496
$L193496:
  00097	f4 ff ff ff	 DD	 -12			; fffffff4H
  0009b	04 00 00 00	 DD	 4
  0009f	00 00 00 00	 DD	 $L193494
  000a3	e8 ff ff ff	 DD	 -24			; ffffffe8H
  000a7	04 00 00 00	 DD	 4
  000ab	00 00 00 00	 DD	 $L193495
$L193495:
  000af	6e		 DB	 110			; 0000006eH
  000b0	48		 DB	 72			; 00000048H
  000b1	61		 DB	 97			; 00000061H
  000b2	73		 DB	 115			; 00000073H
  000b3	68		 DB	 104			; 00000068H
  000b4	56		 DB	 86			; 00000056H
  000b5	61		 DB	 97			; 00000061H
  000b6	6c		 DB	 108			; 0000006cH
  000b7	75		 DB	 117			; 00000075H
  000b8	65		 DB	 101			; 00000065H
  000b9	00		 DB	 0
$L193494:
  000ba	6e		 DB	 110			; 0000006eH
  000bb	48		 DB	 72			; 00000048H
  000bc	61		 DB	 97			; 00000061H
  000bd	73		 DB	 115			; 00000073H
  000be	68		 DB	 104			; 00000068H
  000bf	42		 DB	 66			; 00000042H
  000c0	75		 DB	 117			; 00000075H
  000c1	63		 DB	 99			; 00000063H
  000c2	6b		 DB	 107			; 0000006bH
  000c3	65		 DB	 101			; 00000065H
  000c4	74		 DB	 116			; 00000074H
  000c5	00		 DB	 0
?Lookup@?$CMap@V?$CStringT@DV?$StrTraitMFC_DLL@DV?$ChTraitsCRT@D@ATL@@@@@ATL@@PBDVCPaneBase@ETSLayoutMgr@@V34@@@QBEHPBDAAVCPaneBase@ETSLayoutMgr@@@Z ENDP ; CMap<ATL::CStringT<char,StrTraitMFC_DLL<char,ATL::ChTraitsCRT<char> > >,char const *,ETSLayoutMgr::CPaneBase,ETSLayoutMgr::CPaneBase>::Lookup
_TEXT	ENDS
PUBLIC	??A?$CMap@V?$CStringT@DV?$StrTraitMFC_DLL@DV?$ChTraitsCRT@D@ATL@@@@@ATL@@PBDVCPaneBase@ETSLayoutMgr@@V34@@@QAEAAVCPaneBase@ETSLayoutMgr@@PBD@Z ; CMap<ATL::CStringT<char,StrTraitMFC_DLL<char,ATL::ChTraitsCRT<char> > >,char const *,ETSLayoutMgr::CPaneBase,ETSLayoutMgr::CPaneBase>::operator[]
;	COMDAT xdata$x
xdata$x	SEGMENT
$T193503 DD	0ffffffffH
	DD	FLAT:$L193499
$T193501 DD	019930520H
	DD	01H
	DD	FLAT:$T193503
	DD	2 DUP(00H)
	DD	2 DUP(00H)
; Function compile flags: /Odt /RTCsu
xdata$x	ENDS
;	COMDAT ?SetAt@?$CMap@V?$CStringT@DV?$StrTraitMFC_DLL@DV?$ChTraitsCRT@D@ATL@@@@@ATL@@PBDVCPaneBase@ETSLayoutMgr@@V34@@@QAEXPBDVCPaneBase@ETSLayoutMgr@@@Z
_TEXT	SEGMENT
_this$ = -16						; size = 4
__$EHRec$ = -12						; size = 12
_key$ = 8						; size = 4
_newValue$ = 12						; size = 4
?SetAt@?$CMap@V?$CStringT@DV?$StrTraitMFC_DLL@DV?$ChTraitsCRT@D@ATL@@@@@ATL@@PBDVCPaneBase@ETSLayoutMgr@@V34@@@QAEXPBDVCPaneBase@ETSLayoutMgr@@@Z PROC NEAR ; CMap<ATL::CStringT<char,StrTraitMFC_DLL<char,ATL::ChTraitsCRT<char> > >,char const *,ETSLayoutMgr::CPaneBase,ETSLayoutMgr::CPaneBase>::SetAt, COMDAT
; _this$ = ecx

; 1346 : 	{ (*this)[key] = newValue; }

  00000	55		 push	 ebp
  00001	8b ec		 mov	 ebp, esp
  00003	6a ff		 push	 -1
  00005	68 00 00 00 00	 push	 __ehhandler$?SetAt@?$CMap@V?$CStringT@DV?$StrTraitMFC_DLL@DV?$ChTraitsCRT@D@ATL@@@@@ATL@@PBDVCPaneBase@ETSLayoutMgr@@V34@@@QAEXPBDVCPaneBase@ETSLayoutMgr@@@Z
  0000a	64 a1 00 00 00
	00		 mov	 eax, DWORD PTR fs:__except_list
  00010	50		 push	 eax
  00011	64 89 25 00 00
	00 00		 mov	 DWORD PTR fs:__except_list, esp
  00018	51		 push	 ecx
  00019	c7 45 f0 cc cc
	cc cc		 mov	 DWORD PTR [ebp-16], -858993460 ; ccccccccH
  00020	89 4d f0	 mov	 DWORD PTR _this$[ebp], ecx
  00023	c7 45 fc 00 00
	00 00		 mov	 DWORD PTR __$EHRec$[ebp+8], 0
  0002a	8d 45 0c	 lea	 eax, DWORD PTR _newValue$[ebp]
  0002d	50		 push	 eax
  0002e	8b 4d 08	 mov	 ecx, DWORD PTR _key$[ebp]
  00031	51		 push	 ecx
  00032	8b 4d f0	 mov	 ecx, DWORD PTR _this$[ebp]
  00035	e8 00 00 00 00	 call	 ??A?$CMap@V?$CStringT@DV?$StrTraitMFC_DLL@DV?$ChTraitsCRT@D@ATL@@@@@ATL@@PBDVCPaneBase@ETSLayoutMgr@@V34@@@QAEAAVCPaneBase@ETSLayoutMgr@@PBD@Z ; CMap<ATL::CStringT<char,StrTraitMFC_DLL<char,ATL::ChTraitsCRT<char> > >,char const *,ETSLayoutMgr::CPaneBase,ETSLayoutMgr::CPaneBase>::operator[]
  0003a	8b c8		 mov	 ecx, eax
  0003c	e8 00 00 00 00	 call	 ??4CPaneBase@ETSLayoutMgr@@QAEXABV01@@Z ; ETSLayoutMgr::CPaneBase::operator=
  00041	c7 45 fc ff ff
	ff ff		 mov	 DWORD PTR __$EHRec$[ebp+8], -1
  00048	8d 4d 0c	 lea	 ecx, DWORD PTR _newValue$[ebp]
  0004b	e8 00 00 00 00	 call	 ??1CPaneBase@ETSLayoutMgr@@QAE@XZ ; ETSLayoutMgr::CPaneBase::~CPaneBase
  00050	8b 4d f4	 mov	 ecx, DWORD PTR __$EHRec$[ebp]
  00053	64 89 0d 00 00
	00 00		 mov	 DWORD PTR fs:__except_list, ecx
  0005a	83 c4 10	 add	 esp, 16			; 00000010H
  0005d	3b ec		 cmp	 ebp, esp
  0005f	e8 00 00 00 00	 call	 __RTC_CheckEsp
  00064	8b e5		 mov	 esp, ebp
  00066	5d		 pop	 ebp
  00067	c2 08 00	 ret	 8
_TEXT	ENDS
;	COMDAT text$x
text$x	SEGMENT
$L193499:
  00000	8d 4d 0c	 lea	 ecx, DWORD PTR _newValue$[ebp]
  00003	e9 00 00 00 00	 jmp	 ??1CPaneBase@ETSLayoutMgr@@QAE@XZ ; ETSLayoutMgr::CPaneBase::~CPaneBase
__ehhandler$?SetAt@?$CMap@V?$CStringT@DV?$StrTraitMFC_DLL@DV?$ChTraitsCRT@D@ATL@@@@@ATL@@PBDVCPaneBase@ETSLayoutMgr@@V34@@@QAEXPBDVCPaneBase@ETSLayoutMgr@@@Z:
  00008	b8 00 00 00 00	 mov	 eax, OFFSET FLAT:$T193501
  0000d	e9 00 00 00 00	 jmp	 ___CxxFrameHandler
text$x	ENDS
?SetAt@?$CMap@V?$CStringT@DV?$StrTraitMFC_DLL@DV?$ChTraitsCRT@D@ATL@@@@@ATL@@PBDVCPaneBase@ETSLayoutMgr@@V34@@@QAEXPBDVCPaneBase@ETSLayoutMgr@@@Z ENDP ; CMap<ATL::CStringT<char,StrTraitMFC_DLL<char,ATL::ChTraitsCRT<char> > >,char const *,ETSLayoutMgr::CPaneBase,ETSLayoutMgr::CPaneBase>::SetAt
; Function compile flags: /Odt /RTCsu
;	COMDAT ?GetStartPosition@?$CMap@V?$CStringT@DV?$StrTraitMFC_DLL@DV?$ChTraitsCRT@D@ATL@@@@@ATL@@PBDVCPaneBase@ETSLayoutMgr@@V34@@@QBEPAU__POSITION@@XZ
_TEXT	SEGMENT
_this$ = -4						; size = 4
?GetStartPosition@?$CMap@V?$CStringT@DV?$StrTraitMFC_DLL@DV?$ChTraitsCRT@D@ATL@@@@@ATL@@PBDVCPaneBase@ETSLayoutMgr@@V34@@@QBEPAU__POSITION@@XZ PROC NEAR ; CMap<ATL::CStringT<char,StrTraitMFC_DLL<char,ATL::ChTraitsCRT<char> > >,char const *,ETSLayoutMgr::CPaneBase,ETSLayoutMgr::CPaneBase>::GetStartPosition, COMDAT
; _this$ = ecx

; 1350 : 	{ return (m_nCount == 0) ? NULL : BEFORE_START_POSITION; }

  00000	55		 push	 ebp
  00001	8b ec		 mov	 ebp, esp
  00003	51		 push	 ecx
  00004	c7 45 fc cc cc
	cc cc		 mov	 DWORD PTR [ebp-4], -858993460 ; ccccccccH
  0000b	89 4d fc	 mov	 DWORD PTR _this$[ebp], ecx
  0000e	8b 45 fc	 mov	 eax, DWORD PTR _this$[ebp]
  00011	8b 40 0c	 mov	 eax, DWORD PTR [eax+12]
  00014	f7 d8		 neg	 eax
  00016	1b c0		 sbb	 eax, eax
  00018	8b e5		 mov	 esp, ebp
  0001a	5d		 pop	 ebp
  0001b	c3		 ret	 0
?GetStartPosition@?$CMap@V?$CStringT@DV?$StrTraitMFC_DLL@DV?$ChTraitsCRT@D@ATL@@@@@ATL@@PBDVCPaneBase@ETSLayoutMgr@@V34@@@QBEPAU__POSITION@@XZ ENDP ; CMap<ATL::CStringT<char,StrTraitMFC_DLL<char,ATL::ChTraitsCRT<char> > >,char const *,ETSLayoutMgr::CPaneBase,ETSLayoutMgr::CPaneBase>::GetStartPosition
_TEXT	ENDS
EXTRN	?AfxIsValidAddress@@YGHPBXIH@Z:NEAR		; AfxIsValidAddress
; Function compile flags: /Odt /RTCsu
;	COMDAT ?GetNextAssoc@?$CMap@V?$CStringT@DV?$StrTraitMFC_DLL@DV?$ChTraitsCRT@D@ATL@@@@@ATL@@PBDVCPaneBase@ETSLayoutMgr@@V34@@@QBEXAAPAU__POSITION@@AAV?$CStringT@DV?$StrTraitMFC_DLL@DV?$ChTraitsCRT@D@ATL@@@@@ATL@@AAVCPaneBase@ETSLayoutMgr@@@Z
_TEXT	SEGMENT
_nBucket$191605 = -20					; size = 4
_pAssocNext$ = -16					; size = 4
_nBucket$191593 = -12					; size = 4
_pAssocRet$ = -8					; size = 4
_this$ = -4						; size = 4
_rNextPosition$ = 8					; size = 4
_rKey$ = 12						; size = 4
_rValue$ = 16						; size = 4
?GetNextAssoc@?$CMap@V?$CStringT@DV?$StrTraitMFC_DLL@DV?$ChTraitsCRT@D@ATL@@@@@ATL@@PBDVCPaneBase@ETSLayoutMgr@@V34@@@QBEXAAPAU__POSITION@@AAV?$CStringT@DV?$StrTraitMFC_DLL@DV?$ChTraitsCRT@D@ATL@@@@@ATL@@AAVCPaneBase@ETSLayoutMgr@@@Z PROC NEAR ; CMap<ATL::CStringT<char,StrTraitMFC_DLL<char,ATL::ChTraitsCRT<char> > >,char const *,ETSLayoutMgr::CPaneBase,ETSLayoutMgr::CPaneBase>::GetNextAssoc, COMDAT
; _this$ = ecx

; 1640 : {

  00000	55		 push	 ebp
  00001	8b ec		 mov	 ebp, esp
  00003	83 ec 14	 sub	 esp, 20			; 00000014H
  00006	56		 push	 esi
  00007	b8 cc cc cc cc	 mov	 eax, -858993460		; ccccccccH
  0000c	89 45 ec	 mov	 DWORD PTR [ebp-20], eax
  0000f	89 45 f0	 mov	 DWORD PTR [ebp-16], eax
  00012	89 45 f4	 mov	 DWORD PTR [ebp-12], eax
  00015	89 45 f8	 mov	 DWORD PTR [ebp-8], eax
  00018	89 45 fc	 mov	 DWORD PTR [ebp-4], eax
  0001b	89 4d fc	 mov	 DWORD PTR _this$[ebp], ecx

; 1641 : 	ASSERT_VALID(this);

  0001e	68 69 06 00 00	 push	 1641			; 00000669H
  00023	68 00 00 00 00	 push	 OFFSET FLAT:$SG191583
  00028	8b 45 fc	 mov	 eax, DWORD PTR _this$[ebp]
  0002b	50		 push	 eax
  0002c	e8 00 00 00 00	 call	 ?AfxAssertValidObject@@YGXPBVCObject@@PBDH@Z ; AfxAssertValidObject

; 1642 : 	ASSERT(m_pHashTable != NULL);  // never call on empty map

  00031	8b 4d fc	 mov	 ecx, DWORD PTR _this$[ebp]
  00034	83 79 04 00	 cmp	 DWORD PTR [ecx+4], 0
  00038	75 14		 jne	 SHORT $L193508
  0003a	68 6a 06 00 00	 push	 1642			; 0000066aH
  0003f	68 00 00 00 00	 push	 OFFSET FLAT:$SG191585
  00044	e8 00 00 00 00	 call	 ?AfxAssertFailedLine@@YGHPBDH@Z ; AfxAssertFailedLine
  00049	85 c0		 test	 eax, eax
  0004b	74 01		 je	 SHORT $L193508
  0004d	cc		 int	 3
$L193508:

; 1643 : 
; 1644 : 	CAssoc* pAssocRet = (CAssoc*)rNextPosition;

  0004e	8b 45 08	 mov	 eax, DWORD PTR _rNextPosition$[ebp]
  00051	8b 08		 mov	 ecx, DWORD PTR [eax]
  00053	89 4d f8	 mov	 DWORD PTR _pAssocRet$[ebp], ecx

; 1645 : 	ASSERT(pAssocRet != NULL);

  00056	83 7d f8 00	 cmp	 DWORD PTR _pAssocRet$[ebp], 0
  0005a	75 14		 jne	 SHORT $L193509
  0005c	68 6d 06 00 00	 push	 1645			; 0000066dH
  00061	68 00 00 00 00	 push	 OFFSET FLAT:$SG191589
  00066	e8 00 00 00 00	 call	 ?AfxAssertFailedLine@@YGHPBDH@Z ; AfxAssertFailedLine
  0006b	85 c0		 test	 eax, eax
  0006d	74 01		 je	 SHORT $L193509
  0006f	cc		 int	 3
$L193509:

; 1646 : 
; 1647 : 	if (pAssocRet == (CAssoc*) BEFORE_START_POSITION)

  00070	83 7d f8 ff	 cmp	 DWORD PTR _pAssocRet$[ebp], -1
  00074	75 50		 jne	 SHORT $L191592

; 1648 : 	{
; 1649 : 		// find the first association
; 1650 : 		for (UINT nBucket = 0; nBucket < m_nHashTableSize; nBucket++)

  00076	c7 45 f4 00 00
	00 00		 mov	 DWORD PTR _nBucket$191593[ebp], 0
  0007d	eb 09		 jmp	 SHORT $L191594
$L191595:
  0007f	8b 45 f4	 mov	 eax, DWORD PTR _nBucket$191593[ebp]
  00082	83 c0 01	 add	 eax, 1
  00085	89 45 f4	 mov	 DWORD PTR _nBucket$191593[ebp], eax
$L191594:
  00088	8b 4d fc	 mov	 ecx, DWORD PTR _this$[ebp]
  0008b	8b 55 f4	 mov	 edx, DWORD PTR _nBucket$191593[ebp]
  0008e	3b 51 08	 cmp	 edx, DWORD PTR [ecx+8]
  00091	73 19		 jae	 SHORT $L191596

; 1651 : 			if ((pAssocRet = m_pHashTable[nBucket]) != NULL)

  00093	8b 45 fc	 mov	 eax, DWORD PTR _this$[ebp]
  00096	8b 48 04	 mov	 ecx, DWORD PTR [eax+4]
  00099	8b 55 f4	 mov	 edx, DWORD PTR _nBucket$191593[ebp]
  0009c	8b 04 91	 mov	 eax, DWORD PTR [ecx+edx*4]
  0009f	89 45 f8	 mov	 DWORD PTR _pAssocRet$[ebp], eax
  000a2	83 7d f8 00	 cmp	 DWORD PTR _pAssocRet$[ebp], 0
  000a6	74 02		 je	 SHORT $L191597

; 1652 : 				break;

  000a8	eb 02		 jmp	 SHORT $L191596
$L191597:

; 1653 : 		ASSERT(pAssocRet != NULL);  // must find something

  000aa	eb d3		 jmp	 SHORT $L191595
$L191596:
  000ac	83 7d f8 00	 cmp	 DWORD PTR _pAssocRet$[ebp], 0
  000b0	75 14		 jne	 SHORT $L191592
  000b2	68 75 06 00 00	 push	 1653			; 00000675H
  000b7	68 00 00 00 00	 push	 OFFSET FLAT:$SG191599
  000bc	e8 00 00 00 00	 call	 ?AfxAssertFailedLine@@YGHPBDH@Z ; AfxAssertFailedLine
  000c1	85 c0		 test	 eax, eax
  000c3	74 01		 je	 SHORT $L191592
  000c5	cc		 int	 3
$L191592:

; 1654 : 	}
; 1655 : 
; 1656 : 	// find next association
; 1657 : 	ASSERT(AfxIsValidAddress(pAssocRet, sizeof(CAssoc)));

  000c6	6a 01		 push	 1
  000c8	6a 10		 push	 16			; 00000010H
  000ca	8b 55 f8	 mov	 edx, DWORD PTR _pAssocRet$[ebp]
  000cd	52		 push	 edx
  000ce	e8 00 00 00 00	 call	 ?AfxIsValidAddress@@YGHPBXIH@Z ; AfxIsValidAddress
  000d3	85 c0		 test	 eax, eax
  000d5	75 14		 jne	 SHORT $L193511
  000d7	68 79 06 00 00	 push	 1657			; 00000679H
  000dc	68 00 00 00 00	 push	 OFFSET FLAT:$SG191602
  000e1	e8 00 00 00 00	 call	 ?AfxAssertFailedLine@@YGHPBDH@Z ; AfxAssertFailedLine
  000e6	85 c0		 test	 eax, eax
  000e8	74 01		 je	 SHORT $L193511
  000ea	cc		 int	 3
$L193511:

; 1658 : 	CAssoc* pAssocNext;
; 1659 : 	if ((pAssocNext = pAssocRet->pNext) == NULL)

  000eb	8b 4d f8	 mov	 ecx, DWORD PTR _pAssocRet$[ebp]
  000ee	8b 51 08	 mov	 edx, DWORD PTR [ecx+8]
  000f1	89 55 f0	 mov	 DWORD PTR _pAssocNext$[ebp], edx
  000f4	83 7d f0 00	 cmp	 DWORD PTR _pAssocNext$[ebp], 0
  000f8	75 43		 jne	 SHORT $L191604

; 1660 : 	{
; 1661 : 		// go to next bucket
; 1662 : 		for (UINT nBucket = (pAssocRet->nHashValue % m_nHashTableSize) + 1;

  000fa	8b 45 f8	 mov	 eax, DWORD PTR _pAssocRet$[ebp]
  000fd	8b 4d fc	 mov	 ecx, DWORD PTR _this$[ebp]
  00100	8b 40 0c	 mov	 eax, DWORD PTR [eax+12]
  00103	33 d2		 xor	 edx, edx
  00105	f7 71 08	 div	 DWORD PTR [ecx+8]
  00108	83 c2 01	 add	 edx, 1
  0010b	89 55 ec	 mov	 DWORD PTR _nBucket$191605[ebp], edx

; 1663 : 		  nBucket < m_nHashTableSize; nBucket++)

  0010e	eb 09		 jmp	 SHORT $L191606
$L191607:
  00110	8b 55 ec	 mov	 edx, DWORD PTR _nBucket$191605[ebp]
  00113	83 c2 01	 add	 edx, 1
  00116	89 55 ec	 mov	 DWORD PTR _nBucket$191605[ebp], edx
$L191606:
  00119	8b 45 fc	 mov	 eax, DWORD PTR _this$[ebp]
  0011c	8b 4d ec	 mov	 ecx, DWORD PTR _nBucket$191605[ebp]
  0011f	3b 48 08	 cmp	 ecx, DWORD PTR [eax+8]
  00122	73 19		 jae	 SHORT $L191604

; 1664 : 			if ((pAssocNext = m_pHashTable[nBucket]) != NULL)

  00124	8b 55 fc	 mov	 edx, DWORD PTR _this$[ebp]
  00127	8b 42 04	 mov	 eax, DWORD PTR [edx+4]
  0012a	8b 4d ec	 mov	 ecx, DWORD PTR _nBucket$191605[ebp]
  0012d	8b 14 88	 mov	 edx, DWORD PTR [eax+ecx*4]
  00130	89 55 f0	 mov	 DWORD PTR _pAssocNext$[ebp], edx
  00133	83 7d f0 00	 cmp	 DWORD PTR _pAssocNext$[ebp], 0
  00137	74 02		 je	 SHORT $L191609

; 1665 : 				break;

  00139	eb 02		 jmp	 SHORT $L191604
$L191609:

; 1666 : 	}

  0013b	eb d3		 jmp	 SHORT $L191607
$L191604:

; 1667 : 
; 1668 : 	rNextPosition = (POSITION) pAssocNext;

  0013d	8b 45 08	 mov	 eax, DWORD PTR _rNextPosition$[ebp]
  00140	8b 4d f0	 mov	 ecx, DWORD PTR _pAssocNext$[ebp]
  00143	89 08		 mov	 DWORD PTR [eax], ecx

; 1669 : 
; 1670 : 	// fill in return data
; 1671 : 	rKey = pAssocRet->key;

  00145	8b f4		 mov	 esi, esp
  00147	8b 55 f8	 mov	 edx, DWORD PTR _pAssocRet$[ebp]
  0014a	52		 push	 edx
  0014b	8b 4d 0c	 mov	 ecx, DWORD PTR _rKey$[ebp]
  0014e	ff 15 00 00 00
	00		 call	 DWORD PTR __imp_??4?$CStringT@DV?$StrTraitMFC_DLL@DV?$ChTraitsCRT@D@ATL@@@@@ATL@@QAEAAV01@ABV01@@Z
  00154	3b f4		 cmp	 esi, esp
  00156	e8 00 00 00 00	 call	 __RTC_CheckEsp

; 1672 : 	rValue = pAssocRet->value;

  0015b	8b 45 f8	 mov	 eax, DWORD PTR _pAssocRet$[ebp]
  0015e	83 c0 04	 add	 eax, 4
  00161	50		 push	 eax
  00162	8b 4d 10	 mov	 ecx, DWORD PTR _rValue$[ebp]
  00165	e8 00 00 00 00	 call	 ??4CPaneBase@ETSLayoutMgr@@QAEXABV01@@Z ; ETSLayoutMgr::CPaneBase::operator=

; 1673 : }

  0016a	5e		 pop	 esi
  0016b	83 c4 14	 add	 esp, 20			; 00000014H
  0016e	3b ec		 cmp	 ebp, esp
  00170	e8 00 00 00 00	 call	 __RTC_CheckEsp
  00175	8b e5		 mov	 esp, ebp
  00177	5d		 pop	 ebp
  00178	c2 0c 00	 ret	 12			; 0000000cH
?GetNextAssoc@?$CMap@V?$CStringT@DV?$StrTraitMFC_DLL@DV?$ChTraitsCRT@D@ATL@@@@@ATL@@PBDVCPaneBase@ETSLayoutMgr@@V34@@@QBEXAAPAU__POSITION@@AAV?$CStringT@DV?$StrTraitMFC_DLL@DV?$ChTraitsCRT@D@ATL@@@@@ATL@@AAVCPaneBase@ETSLayoutMgr@@@Z ENDP ; CMap<ATL::CStringT<char,StrTraitMFC_DLL<char,ATL::ChTraitsCRT<char> > >,char const *,ETSLayoutMgr::CPaneBase,ETSLayoutMgr::CPaneBase>::GetNextAssoc
_TEXT	ENDS
PUBLIC	??2@YAPAXIPAX@Z					; operator new
PUBLIC	??3@YAXPAX0@Z					; operator delete
PUBLIC	??_GCPaneBase@ETSLayoutMgr@@QAEPAXI@Z		; ETSLayoutMgr::CPaneBase::`scalar deleting destructor'
EXTRN	??_U@YAPAXI@Z:NEAR				; operator new[]
EXTRN	??_V@YAXPAX@Z:NEAR				; operator delete[]
EXTRN	?AfxThrowInvalidArgException@@YGXXZ:NEAR	; AfxThrowInvalidArgException
EXTRN	??_U@YAPAXIPBDH@Z:NEAR				; operator new[]
EXTRN	_memcpy:NEAR
EXTRN	_memset:NEAR
;	COMDAT xdata$x
xdata$x	SEGMENT
$T193546 DD	0ffffffffH
	DD	FLAT:$L193540
	DD	0ffffffffH
	DD	FLAT:$L193541
	DD	0ffffffffH
	DD	FLAT:$L193542
$T193544 DD	019930520H
	DD	03H
	DD	FLAT:$T193546
	DD	2 DUP(00H)
	DD	2 DUP(00H)
; Function compile flags: /Odt /RTCsu
xdata$x	ENDS
;	COMDAT ?SetSize@?$CArray@VCPaneBase@ETSLayoutMgr@@V12@@@QAEXHH@Z
_TEXT	SEGMENT
tv295 = -112						; size = 4
tv225 = -108						; size = 4
tv226 = -104						; size = 4
tv205 = -100						; size = 4
tv164 = -96						; size = 4
tv135 = -92						; size = 4
$T193539 = -88						; size = 4
$T193536 = -84						; size = 4
$T193535 = -80						; size = 4
$T193533 = -76						; size = 4
$T193524 = -72						; size = 4
$T193523 = -68						; size = 4
$T193520 = -64						; size = 4
$T193519 = -60						; size = 4
$T193518 = -56						; size = 4
$T193514 = -52						; size = 4
_i$192033 = -48						; size = 4
_pNewData$192020 = -44					; size = 4
_nNewMax$192011 = -40					; size = 4
_i$192005 = -36						; size = 4
_i$191993 = -32						; size = 4
_i$191977 = -28						; size = 4
_nAllocSize$191967 = -24				; size = 4
_i$191956 = -20						; size = 4
_this$ = -16						; size = 4
__$EHRec$ = -12						; size = 12
_nNewSize$ = 8						; size = 4
_nGrowBy$ = 12						; size = 4
?SetSize@?$CArray@VCPaneBase@ETSLayoutMgr@@V12@@@QAEXHH@Z PROC NEAR ; CArray<ETSLayoutMgr::CPaneBase,ETSLayoutMgr::CPaneBase>::SetSize, COMDAT
; _this$ = ecx

; 369  : {

  00000	55		 push	 ebp
  00001	8b ec		 mov	 ebp, esp
  00003	6a ff		 push	 -1
  00005	68 00 00 00 00	 push	 __ehhandler$?SetSize@?$CArray@VCPaneBase@ETSLayoutMgr@@V12@@@QAEXHH@Z
  0000a	64 a1 00 00 00
	00		 mov	 eax, DWORD PTR fs:__except_list
  00010	50		 push	 eax
  00011	64 89 25 00 00
	00 00		 mov	 DWORD PTR fs:__except_list, esp
  00018	83 ec 64	 sub	 esp, 100		; 00000064H
  0001b	57		 push	 edi
  0001c	51		 push	 ecx
  0001d	8d 7d 90	 lea	 edi, DWORD PTR [ebp-112]
  00020	b9 19 00 00 00	 mov	 ecx, 25			; 00000019H
  00025	b8 cc cc cc cc	 mov	 eax, -858993460		; ccccccccH
  0002a	f3 ab		 rep stosd
  0002c	59		 pop	 ecx
  0002d	89 4d f0	 mov	 DWORD PTR _this$[ebp], ecx

; 370  : 	ASSERT_VALID(this);

  00030	68 72 01 00 00	 push	 370			; 00000172H
  00035	68 00 00 00 00	 push	 OFFSET FLAT:$SG191949
  0003a	8b 45 f0	 mov	 eax, DWORD PTR _this$[ebp]
  0003d	50		 push	 eax
  0003e	e8 00 00 00 00	 call	 ?AfxAssertValidObject@@YGXPBVCObject@@PBDH@Z ; AfxAssertValidObject

; 371  : 	ASSERT(nNewSize >= 0);

  00043	83 7d 08 00	 cmp	 DWORD PTR _nNewSize$[ebp], 0
  00047	7d 14		 jge	 SHORT $L193513
  00049	68 73 01 00 00	 push	 371			; 00000173H
  0004e	68 00 00 00 00	 push	 OFFSET FLAT:$SG191951
  00053	e8 00 00 00 00	 call	 ?AfxAssertFailedLine@@YGHPBDH@Z ; AfxAssertFailedLine
  00058	85 c0		 test	 eax, eax
  0005a	74 01		 je	 SHORT $L193513
  0005c	cc		 int	 3
$L193513:

; 372  : 
; 373  : 	if(nNewSize < 0 )

  0005d	83 7d 08 00	 cmp	 DWORD PTR _nNewSize$[ebp], 0
  00061	7d 05		 jge	 SHORT $L191952

; 374  : 		AfxThrowInvalidArgException();

  00063	e8 00 00 00 00	 call	 ?AfxThrowInvalidArgException@@YGXXZ ; AfxThrowInvalidArgException
$L191952:

; 375  : 
; 376  : 	if (nGrowBy >= 0)

  00068	83 7d 0c 00	 cmp	 DWORD PTR _nGrowBy$[ebp], 0
  0006c	7c 09		 jl	 SHORT $L191953

; 377  : 		m_nGrowBy = nGrowBy;  // set new size

  0006e	8b 55 f0	 mov	 edx, DWORD PTR _this$[ebp]
  00071	8b 45 0c	 mov	 eax, DWORD PTR _nGrowBy$[ebp]
  00074	89 42 10	 mov	 DWORD PTR [edx+16], eax
$L191953:

; 378  : 
; 379  : 	if (nNewSize == 0)

  00077	83 7d 08 00	 cmp	 DWORD PTR _nNewSize$[ebp], 0
  0007b	75 73		 jne	 SHORT $L191954

; 380  : 	{
; 381  : 		// shrink to nothing
; 382  : 		if (m_pData != NULL)

  0007d	8b 4d f0	 mov	 ecx, DWORD PTR _this$[ebp]
  00080	83 79 04 00	 cmp	 DWORD PTR [ecx+4], 0
  00084	74 51		 je	 SHORT $L191955

; 383  : 		{
; 384  : 			for( int i = 0; i < m_nSize; i++ )

  00086	c7 45 ec 00 00
	00 00		 mov	 DWORD PTR _i$191956[ebp], 0
  0008d	eb 09		 jmp	 SHORT $L191957
$L191958:
  0008f	8b 55 ec	 mov	 edx, DWORD PTR _i$191956[ebp]
  00092	83 c2 01	 add	 edx, 1
  00095	89 55 ec	 mov	 DWORD PTR _i$191956[ebp], edx
$L191957:
  00098	8b 45 f0	 mov	 eax, DWORD PTR _this$[ebp]
  0009b	8b 4d ec	 mov	 ecx, DWORD PTR _i$191956[ebp]
  0009e	3b 48 08	 cmp	 ecx, DWORD PTR [eax+8]
  000a1	7d 15		 jge	 SHORT $L191959

; 385  : 				(m_pData + i)->~TYPE();

  000a3	6a 00		 push	 0
  000a5	8b 55 f0	 mov	 edx, DWORD PTR _this$[ebp]
  000a8	8b 42 04	 mov	 eax, DWORD PTR [edx+4]
  000ab	8b 4d ec	 mov	 ecx, DWORD PTR _i$191956[ebp]
  000ae	8d 0c 88	 lea	 ecx, DWORD PTR [eax+ecx*4]
  000b1	e8 00 00 00 00	 call	 ??_GCPaneBase@ETSLayoutMgr@@QAEPAXI@Z
  000b6	eb d7		 jmp	 SHORT $L191958
$L191959:

; 386  : 			delete[] (BYTE*)m_pData;

  000b8	8b 55 f0	 mov	 edx, DWORD PTR _this$[ebp]
  000bb	8b 42 04	 mov	 eax, DWORD PTR [edx+4]
  000be	89 45 cc	 mov	 DWORD PTR $T193514[ebp], eax
  000c1	8b 4d cc	 mov	 ecx, DWORD PTR $T193514[ebp]
  000c4	51		 push	 ecx
  000c5	e8 00 00 00 00	 call	 ??_V@YAXPAX@Z		; operator delete[]
  000ca	83 c4 04	 add	 esp, 4

; 387  : 			m_pData = NULL;

  000cd	8b 55 f0	 mov	 edx, DWORD PTR _this$[ebp]
  000d0	c7 42 04 00 00
	00 00		 mov	 DWORD PTR [edx+4], 0
$L191955:

; 388  : 		}
; 389  : 		m_nSize = m_nMaxSize = 0;

  000d7	8b 45 f0	 mov	 eax, DWORD PTR _this$[ebp]
  000da	c7 40 0c 00 00
	00 00		 mov	 DWORD PTR [eax+12], 0
  000e1	8b 4d f0	 mov	 ecx, DWORD PTR _this$[ebp]
  000e4	c7 41 08 00 00
	00 00		 mov	 DWORD PTR [ecx+8], 0

; 390  : 	}
; 391  : 	else if (m_pData == NULL)

  000eb	e9 ec 03 00 00	 jmp	 $L193512
$L191954:
  000f0	8b 55 f0	 mov	 edx, DWORD PTR _this$[ebp]
  000f3	83 7a 04 00	 cmp	 DWORD PTR [edx+4], 0
  000f7	0f 85 f7 00 00
	00		 jne	 $L191963

; 392  : 	{
; 393  : 		// create buffer big enough to hold number of requested elements or
; 394  : 		// m_nGrowBy elements, whichever is larger.
; 395  : #ifdef SIZE_T_MAX
; 396  : 		ASSERT(nNewSize <= SIZE_T_MAX/sizeof(TYPE));    // no overflow

  000fd	81 7d 08 ff ff
	ff 3f		 cmp	 DWORD PTR _nNewSize$[ebp], 1073741823 ; 3fffffffH
  00104	76 14		 jbe	 SHORT $L193515
  00106	68 8c 01 00 00	 push	 396			; 0000018cH
  0010b	68 00 00 00 00	 push	 OFFSET FLAT:$SG191966
  00110	e8 00 00 00 00	 call	 ?AfxAssertFailedLine@@YGHPBDH@Z ; AfxAssertFailedLine
  00115	85 c0		 test	 eax, eax
  00117	74 01		 je	 SHORT $L193515
  00119	cc		 int	 3
$L193515:

; 397  : #endif
; 398  : 		size_t nAllocSize = max(nNewSize, m_nGrowBy);

  0011a	8b 4d f0	 mov	 ecx, DWORD PTR _this$[ebp]
  0011d	8b 55 08	 mov	 edx, DWORD PTR _nNewSize$[ebp]
  00120	3b 51 10	 cmp	 edx, DWORD PTR [ecx+16]
  00123	7e 08		 jle	 SHORT $L193516
  00125	8b 45 08	 mov	 eax, DWORD PTR _nNewSize$[ebp]
  00128	89 45 a4	 mov	 DWORD PTR tv135[ebp], eax
  0012b	eb 09		 jmp	 SHORT $L193517
$L193516:
  0012d	8b 4d f0	 mov	 ecx, DWORD PTR _this$[ebp]
  00130	8b 51 10	 mov	 edx, DWORD PTR [ecx+16]
  00133	89 55 a4	 mov	 DWORD PTR tv135[ebp], edx
$L193517:
  00136	8b 45 a4	 mov	 eax, DWORD PTR tv135[ebp]
  00139	89 45 e8	 mov	 DWORD PTR _nAllocSize$191967[ebp], eax

; 399  : 		m_pData = (TYPE*) new BYTE[(size_t)nAllocSize * sizeof(TYPE)];

  0013c	68 8f 01 00 00	 push	 399			; 0000018fH
  00141	68 00 00 00 00	 push	 OFFSET FLAT:$SG191973
  00146	8b 4d e8	 mov	 ecx, DWORD PTR _nAllocSize$191967[ebp]
  00149	c1 e1 02	 shl	 ecx, 2
  0014c	51		 push	 ecx
  0014d	e8 00 00 00 00	 call	 ??_U@YAPAXIPBDH@Z	; operator new[]
  00152	83 c4 0c	 add	 esp, 12			; 0000000cH
  00155	89 45 c8	 mov	 DWORD PTR $T193518[ebp], eax
  00158	8b 55 f0	 mov	 edx, DWORD PTR _this$[ebp]
  0015b	8b 45 c8	 mov	 eax, DWORD PTR $T193518[ebp]
  0015e	89 42 04	 mov	 DWORD PTR [edx+4], eax

; 400  : 		memset((void*)m_pData, 0, (size_t)nAllocSize * sizeof(TYPE));

  00161	8b 4d e8	 mov	 ecx, DWORD PTR _nAllocSize$191967[ebp]
  00164	c1 e1 02	 shl	 ecx, 2
  00167	51		 push	 ecx
  00168	6a 00		 push	 0
  0016a	8b 55 f0	 mov	 edx, DWORD PTR _this$[ebp]
  0016d	8b 42 04	 mov	 eax, DWORD PTR [edx+4]
  00170	50		 push	 eax
  00171	e8 00 00 00 00	 call	 _memset
  00176	83 c4 0c	 add	 esp, 12			; 0000000cH

; 401  : 		for( int i = 0; i < nNewSize; i++ )

  00179	c7 45 e4 00 00
	00 00		 mov	 DWORD PTR _i$191977[ebp], 0
  00180	eb 09		 jmp	 SHORT $L191978
$L191979:
  00182	8b 4d e4	 mov	 ecx, DWORD PTR _i$191977[ebp]
  00185	83 c1 01	 add	 ecx, 1
  00188	89 4d e4	 mov	 DWORD PTR _i$191977[ebp], ecx
$L191978:
  0018b	8b 55 e4	 mov	 edx, DWORD PTR _i$191977[ebp]
  0018e	3b 55 08	 cmp	 edx, DWORD PTR _nNewSize$[ebp]
  00191	7d 4a		 jge	 SHORT $L191980

; 402  : #pragma push_macro("new")
; 403  : #undef new
; 404  : 			::new( (void*)( m_pData + i ) ) TYPE;

  00193	8b 45 f0	 mov	 eax, DWORD PTR _this$[ebp]
  00196	8b 48 04	 mov	 ecx, DWORD PTR [eax+4]
  00199	8b 55 e4	 mov	 edx, DWORD PTR _i$191977[ebp]
  0019c	8d 04 91	 lea	 eax, DWORD PTR [ecx+edx*4]
  0019f	50		 push	 eax
  001a0	6a 04		 push	 4
  001a2	e8 00 00 00 00	 call	 ??2@YAPAXIPAX@Z		; operator new
  001a7	83 c4 08	 add	 esp, 8
  001aa	89 45 c0	 mov	 DWORD PTR $T193520[ebp], eax
  001ad	c7 45 fc 00 00
	00 00		 mov	 DWORD PTR __$EHRec$[ebp+8], 0
  001b4	83 7d c0 00	 cmp	 DWORD PTR $T193520[ebp], 0
  001b8	74 0d		 je	 SHORT $L193521
  001ba	8b 4d c0	 mov	 ecx, DWORD PTR $T193520[ebp]
  001bd	e8 00 00 00 00	 call	 ??0CPaneBase@ETSLayoutMgr@@QAE@XZ ; ETSLayoutMgr::CPaneBase::CPaneBase
  001c2	89 45 a0	 mov	 DWORD PTR tv164[ebp], eax
  001c5	eb 07		 jmp	 SHORT $L193522
$L193521:
  001c7	c7 45 a0 00 00
	00 00		 mov	 DWORD PTR tv164[ebp], 0
$L193522:
  001ce	8b 4d a0	 mov	 ecx, DWORD PTR tv164[ebp]
  001d1	89 4d c4	 mov	 DWORD PTR $T193519[ebp], ecx
  001d4	c7 45 fc ff ff
	ff ff		 mov	 DWORD PTR __$EHRec$[ebp+8], -1
  001db	eb a5		 jmp	 SHORT $L191979
$L191980:

; 405  : #pragma pop_macro("new")
; 406  : 		m_nSize = nNewSize;

  001dd	8b 55 f0	 mov	 edx, DWORD PTR _this$[ebp]
  001e0	8b 45 08	 mov	 eax, DWORD PTR _nNewSize$[ebp]
  001e3	89 42 08	 mov	 DWORD PTR [edx+8], eax

; 407  : 		m_nMaxSize = nAllocSize;

  001e6	8b 4d f0	 mov	 ecx, DWORD PTR _this$[ebp]
  001e9	8b 55 e8	 mov	 edx, DWORD PTR _nAllocSize$191967[ebp]
  001ec	89 51 0c	 mov	 DWORD PTR [ecx+12], edx

; 408  : 	}
; 409  : 	else if (nNewSize <= m_nMaxSize)

  001ef	e9 e8 02 00 00	 jmp	 $L193512
$L191963:
  001f4	8b 45 f0	 mov	 eax, DWORD PTR _this$[ebp]
  001f7	8b 4d 08	 mov	 ecx, DWORD PTR _nNewSize$[ebp]
  001fa	3b 48 0c	 cmp	 ecx, DWORD PTR [eax+12]
  001fd	0f 8f ff 00 00
	00		 jg	 $L191988

; 410  : 	{
; 411  : 		// it fits
; 412  : 		if (nNewSize > m_nSize)

  00203	8b 55 f0	 mov	 edx, DWORD PTR _this$[ebp]
  00206	8b 45 08	 mov	 eax, DWORD PTR _nNewSize$[ebp]
  00209	3b 42 08	 cmp	 eax, DWORD PTR [edx+8]
  0020c	0f 8e 9c 00 00
	00		 jle	 $L191989

; 413  : 		{
; 414  : 			// initialize the new elements
; 415  : 			memset((void*)(m_pData + m_nSize), 0, (size_t)(nNewSize-m_nSize) * sizeof(TYPE));

  00212	8b 4d f0	 mov	 ecx, DWORD PTR _this$[ebp]
  00215	8b 55 08	 mov	 edx, DWORD PTR _nNewSize$[ebp]
  00218	2b 51 08	 sub	 edx, DWORD PTR [ecx+8]
  0021b	c1 e2 02	 shl	 edx, 2
  0021e	52		 push	 edx
  0021f	6a 00		 push	 0
  00221	8b 45 f0	 mov	 eax, DWORD PTR _this$[ebp]
  00224	8b 48 08	 mov	 ecx, DWORD PTR [eax+8]
  00227	8b 55 f0	 mov	 edx, DWORD PTR _this$[ebp]
  0022a	8b 42 04	 mov	 eax, DWORD PTR [edx+4]
  0022d	8d 0c 88	 lea	 ecx, DWORD PTR [eax+ecx*4]
  00230	51		 push	 ecx
  00231	e8 00 00 00 00	 call	 _memset
  00236	83 c4 0c	 add	 esp, 12			; 0000000cH

; 416  : 			for( int i = 0; i < nNewSize-m_nSize; i++ )

  00239	c7 45 e0 00 00
	00 00		 mov	 DWORD PTR _i$191993[ebp], 0
  00240	eb 09		 jmp	 SHORT $L191994
$L191995:
  00242	8b 55 e0	 mov	 edx, DWORD PTR _i$191993[ebp]
  00245	83 c2 01	 add	 edx, 1
  00248	89 55 e0	 mov	 DWORD PTR _i$191993[ebp], edx
$L191994:
  0024b	8b 45 f0	 mov	 eax, DWORD PTR _this$[ebp]
  0024e	8b 4d 08	 mov	 ecx, DWORD PTR _nNewSize$[ebp]
  00251	2b 48 08	 sub	 ecx, DWORD PTR [eax+8]
  00254	39 4d e0	 cmp	 DWORD PTR _i$191993[ebp], ecx
  00257	7d 53		 jge	 SHORT $L191996

; 417  : #pragma push_macro("new")
; 418  : #undef new
; 419  : 				::new( (void*)( m_pData + m_nSize + i ) ) TYPE;

  00259	8b 55 f0	 mov	 edx, DWORD PTR _this$[ebp]
  0025c	8b 42 08	 mov	 eax, DWORD PTR [edx+8]
  0025f	8b 4d f0	 mov	 ecx, DWORD PTR _this$[ebp]
  00262	8b 51 04	 mov	 edx, DWORD PTR [ecx+4]
  00265	8d 04 82	 lea	 eax, DWORD PTR [edx+eax*4]
  00268	8b 4d e0	 mov	 ecx, DWORD PTR _i$191993[ebp]
  0026b	8d 14 88	 lea	 edx, DWORD PTR [eax+ecx*4]
  0026e	52		 push	 edx
  0026f	6a 04		 push	 4
  00271	e8 00 00 00 00	 call	 ??2@YAPAXIPAX@Z		; operator new
  00276	83 c4 08	 add	 esp, 8
  00279	89 45 b8	 mov	 DWORD PTR $T193524[ebp], eax
  0027c	c7 45 fc 01 00
	00 00		 mov	 DWORD PTR __$EHRec$[ebp+8], 1
  00283	83 7d b8 00	 cmp	 DWORD PTR $T193524[ebp], 0
  00287	74 0d		 je	 SHORT $L193525
  00289	8b 4d b8	 mov	 ecx, DWORD PTR $T193524[ebp]
  0028c	e8 00 00 00 00	 call	 ??0CPaneBase@ETSLayoutMgr@@QAE@XZ ; ETSLayoutMgr::CPaneBase::CPaneBase
  00291	89 45 9c	 mov	 DWORD PTR tv205[ebp], eax
  00294	eb 07		 jmp	 SHORT $L193526
$L193525:
  00296	c7 45 9c 00 00
	00 00		 mov	 DWORD PTR tv205[ebp], 0
$L193526:
  0029d	8b 45 9c	 mov	 eax, DWORD PTR tv205[ebp]
  002a0	89 45 bc	 mov	 DWORD PTR $T193523[ebp], eax
  002a3	c7 45 fc ff ff
	ff ff		 mov	 DWORD PTR __$EHRec$[ebp+8], -1
  002aa	eb 96		 jmp	 SHORT $L191995
$L191996:

; 420  : #pragma pop_macro("new")
; 421  : 		}
; 422  : 		else if (m_nSize > nNewSize)

  002ac	eb 46		 jmp	 SHORT $L192003
$L191989:
  002ae	8b 4d f0	 mov	 ecx, DWORD PTR _this$[ebp]
  002b1	8b 51 08	 mov	 edx, DWORD PTR [ecx+8]
  002b4	3b 55 08	 cmp	 edx, DWORD PTR _nNewSize$[ebp]
  002b7	7e 3b		 jle	 SHORT $L192003

; 423  : 		{
; 424  : 			// destroy the old elements
; 425  : 			for( int i = 0; i < m_nSize-nNewSize; i++ )

  002b9	c7 45 dc 00 00
	00 00		 mov	 DWORD PTR _i$192005[ebp], 0
  002c0	eb 09		 jmp	 SHORT $L192006
$L192007:
  002c2	8b 45 dc	 mov	 eax, DWORD PTR _i$192005[ebp]
  002c5	83 c0 01	 add	 eax, 1
  002c8	89 45 dc	 mov	 DWORD PTR _i$192005[ebp], eax
$L192006:
  002cb	8b 4d f0	 mov	 ecx, DWORD PTR _this$[ebp]
  002ce	8b 51 08	 mov	 edx, DWORD PTR [ecx+8]
  002d1	2b 55 08	 sub	 edx, DWORD PTR _nNewSize$[ebp]
  002d4	39 55 dc	 cmp	 DWORD PTR _i$192005[ebp], edx
  002d7	7d 1b		 jge	 SHORT $L192003

; 426  : 				(m_pData + nNewSize + i)->~TYPE();

  002d9	6a 00		 push	 0
  002db	8b 45 f0	 mov	 eax, DWORD PTR _this$[ebp]
  002de	8b 48 04	 mov	 ecx, DWORD PTR [eax+4]
  002e1	8b 55 08	 mov	 edx, DWORD PTR _nNewSize$[ebp]
  002e4	8d 04 91	 lea	 eax, DWORD PTR [ecx+edx*4]
  002e7	8b 4d dc	 mov	 ecx, DWORD PTR _i$192005[ebp]
  002ea	8d 0c 88	 lea	 ecx, DWORD PTR [eax+ecx*4]
  002ed	e8 00 00 00 00	 call	 ??_GCPaneBase@ETSLayoutMgr@@QAEPAXI@Z
  002f2	eb ce		 jmp	 SHORT $L192007
$L192003:

; 427  : 		}
; 428  : 		m_nSize = nNewSize;

  002f4	8b 55 f0	 mov	 edx, DWORD PTR _this$[ebp]
  002f7	8b 45 08	 mov	 eax, DWORD PTR _nNewSize$[ebp]
  002fa	89 42 08	 mov	 DWORD PTR [edx+8], eax

; 429  : 	}
; 430  : 	else

  002fd	e9 da 01 00 00	 jmp	 $L193512
$L191988:

; 431  : 	{
; 432  : 		// otherwise, grow array
; 433  : 		nGrowBy = m_nGrowBy;

  00302	8b 4d f0	 mov	 ecx, DWORD PTR _this$[ebp]
  00305	8b 51 10	 mov	 edx, DWORD PTR [ecx+16]
  00308	89 55 0c	 mov	 DWORD PTR _nGrowBy$[ebp], edx

; 434  : 		if (nGrowBy == 0)

  0030b	83 7d 0c 00	 cmp	 DWORD PTR _nGrowBy$[ebp], 0
  0030f	75 45		 jne	 SHORT $L192010

; 435  : 		{
; 436  : 			// heuristically determine growth when nGrowBy == 0
; 437  : 			//  (this avoids heap fragmentation in many situations)
; 438  : 			nGrowBy = m_nSize / 8;

  00311	8b 45 f0	 mov	 eax, DWORD PTR _this$[ebp]
  00314	8b 40 08	 mov	 eax, DWORD PTR [eax+8]
  00317	99		 cdq
  00318	83 e2 07	 and	 edx, 7
  0031b	03 c2		 add	 eax, edx
  0031d	c1 f8 03	 sar	 eax, 3
  00320	89 45 0c	 mov	 DWORD PTR _nGrowBy$[ebp], eax

; 439  : 			nGrowBy = (nGrowBy < 4) ? 4 : ((nGrowBy > 1024) ? 1024 : nGrowBy);

  00323	83 7d 0c 04	 cmp	 DWORD PTR _nGrowBy$[ebp], 4
  00327	7d 09		 jge	 SHORT $L193529
  00329	c7 45 98 04 00
	00 00		 mov	 DWORD PTR tv226[ebp], 4
  00330	eb 1e		 jmp	 SHORT $L193530
$L193529:
  00332	81 7d 0c 00 04
	00 00		 cmp	 DWORD PTR _nGrowBy$[ebp], 1024 ; 00000400H
  00339	7e 09		 jle	 SHORT $L193527
  0033b	c7 45 94 00 04
	00 00		 mov	 DWORD PTR tv225[ebp], 1024 ; 00000400H
  00342	eb 06		 jmp	 SHORT $L193528
$L193527:
  00344	8b 4d 0c	 mov	 ecx, DWORD PTR _nGrowBy$[ebp]
  00347	89 4d 94	 mov	 DWORD PTR tv225[ebp], ecx
$L193528:
  0034a	8b 55 94	 mov	 edx, DWORD PTR tv225[ebp]
  0034d	89 55 98	 mov	 DWORD PTR tv226[ebp], edx
$L193530:
  00350	8b 45 98	 mov	 eax, DWORD PTR tv226[ebp]
  00353	89 45 0c	 mov	 DWORD PTR _nGrowBy$[ebp], eax
$L192010:

; 440  : 		}
; 441  : 		INT_PTR nNewMax;
; 442  : 		if (nNewSize < m_nMaxSize + nGrowBy)

  00356	8b 4d f0	 mov	 ecx, DWORD PTR _this$[ebp]
  00359	8b 51 0c	 mov	 edx, DWORD PTR [ecx+12]
  0035c	03 55 0c	 add	 edx, DWORD PTR _nGrowBy$[ebp]
  0035f	39 55 08	 cmp	 DWORD PTR _nNewSize$[ebp], edx
  00362	7d 0e		 jge	 SHORT $L192012

; 443  : 			nNewMax = m_nMaxSize + nGrowBy;  // granularity

  00364	8b 45 f0	 mov	 eax, DWORD PTR _this$[ebp]
  00367	8b 48 0c	 mov	 ecx, DWORD PTR [eax+12]
  0036a	03 4d 0c	 add	 ecx, DWORD PTR _nGrowBy$[ebp]
  0036d	89 4d d8	 mov	 DWORD PTR _nNewMax$192011[ebp], ecx

; 444  : 		else

  00370	eb 06		 jmp	 SHORT $L192013
$L192012:

; 445  : 			nNewMax = nNewSize;  // no slush

  00372	8b 55 08	 mov	 edx, DWORD PTR _nNewSize$[ebp]
  00375	89 55 d8	 mov	 DWORD PTR _nNewMax$192011[ebp], edx
$L192013:

; 446  : 
; 447  : 		ASSERT(nNewMax >= m_nMaxSize);  // no wrap around

  00378	8b 45 f0	 mov	 eax, DWORD PTR _this$[ebp]
  0037b	8b 4d d8	 mov	 ecx, DWORD PTR _nNewMax$192011[ebp]
  0037e	3b 48 0c	 cmp	 ecx, DWORD PTR [eax+12]
  00381	7d 14		 jge	 SHORT $L193531
  00383	68 bf 01 00 00	 push	 447			; 000001bfH
  00388	68 00 00 00 00	 push	 OFFSET FLAT:$SG192015
  0038d	e8 00 00 00 00	 call	 ?AfxAssertFailedLine@@YGHPBDH@Z ; AfxAssertFailedLine
  00392	85 c0		 test	 eax, eax
  00394	74 01		 je	 SHORT $L193531
  00396	cc		 int	 3
$L193531:

; 448  : 		
; 449  : 		if(nNewMax  < m_nMaxSize)

  00397	8b 45 f0	 mov	 eax, DWORD PTR _this$[ebp]
  0039a	8b 4d d8	 mov	 ecx, DWORD PTR _nNewMax$192011[ebp]
  0039d	3b 48 0c	 cmp	 ecx, DWORD PTR [eax+12]
  003a0	7d 05		 jge	 SHORT $L192016

; 450  : 			AfxThrowInvalidArgException();

  003a2	e8 00 00 00 00	 call	 ?AfxThrowInvalidArgException@@YGXXZ ; AfxThrowInvalidArgException
$L192016:

; 451  : 
; 452  : #ifdef SIZE_T_MAX
; 453  : 		ASSERT(nNewMax <= SIZE_T_MAX/sizeof(TYPE)); // no overflow

  003a7	81 7d d8 ff ff
	ff 3f		 cmp	 DWORD PTR _nNewMax$192011[ebp], 1073741823 ; 3fffffffH
  003ae	76 14		 jbe	 SHORT $L193532
  003b0	68 c5 01 00 00	 push	 453			; 000001c5H
  003b5	68 00 00 00 00	 push	 OFFSET FLAT:$SG192019
  003ba	e8 00 00 00 00	 call	 ?AfxAssertFailedLine@@YGHPBDH@Z ; AfxAssertFailedLine
  003bf	85 c0		 test	 eax, eax
  003c1	74 01		 je	 SHORT $L193532
  003c3	cc		 int	 3
$L193532:

; 454  : #endif
; 455  : 		TYPE* pNewData = (TYPE*) new BYTE[(size_t)nNewMax * sizeof(TYPE)];

  003c4	8b 45 d8	 mov	 eax, DWORD PTR _nNewMax$192011[ebp]
  003c7	c1 e0 02	 shl	 eax, 2
  003ca	50		 push	 eax
  003cb	e8 00 00 00 00	 call	 ??_U@YAPAXI@Z		; operator new[]
  003d0	83 c4 04	 add	 esp, 4
  003d3	89 45 b4	 mov	 DWORD PTR $T193533[ebp], eax
  003d6	8b 4d b4	 mov	 ecx, DWORD PTR $T193533[ebp]
  003d9	89 4d d4	 mov	 DWORD PTR _pNewData$192020[ebp], ecx

; 456  : 
; 457  : 		// copy new data from old
; 458  : 		memcpy(pNewData, m_pData, (size_t)m_nSize * sizeof(TYPE));

  003dc	8b 55 f0	 mov	 edx, DWORD PTR _this$[ebp]
  003df	8b 42 08	 mov	 eax, DWORD PTR [edx+8]
  003e2	c1 e0 02	 shl	 eax, 2
  003e5	50		 push	 eax
  003e6	8b 4d f0	 mov	 ecx, DWORD PTR _this$[ebp]
  003e9	8b 51 04	 mov	 edx, DWORD PTR [ecx+4]
  003ec	52		 push	 edx
  003ed	8b 45 d4	 mov	 eax, DWORD PTR _pNewData$192020[ebp]
  003f0	50		 push	 eax
  003f1	e8 00 00 00 00	 call	 _memcpy
  003f6	83 c4 0c	 add	 esp, 12			; 0000000cH

; 459  : 
; 460  : 		// construct remaining elements
; 461  : 		ASSERT(nNewSize > m_nSize);

  003f9	8b 4d f0	 mov	 ecx, DWORD PTR _this$[ebp]
  003fc	8b 55 08	 mov	 edx, DWORD PTR _nNewSize$[ebp]
  003ff	3b 51 08	 cmp	 edx, DWORD PTR [ecx+8]
  00402	7f 14		 jg	 SHORT $L193534
  00404	68 cd 01 00 00	 push	 461			; 000001cdH
  00409	68 00 00 00 00	 push	 OFFSET FLAT:$SG192029
  0040e	e8 00 00 00 00	 call	 ?AfxAssertFailedLine@@YGHPBDH@Z ; AfxAssertFailedLine
  00413	85 c0		 test	 eax, eax
  00415	74 01		 je	 SHORT $L193534
  00417	cc		 int	 3
$L193534:

; 462  : 		memset((void*)(pNewData + m_nSize), 0, (size_t)(nNewSize-m_nSize) * sizeof(TYPE));

  00418	8b 4d f0	 mov	 ecx, DWORD PTR _this$[ebp]
  0041b	8b 55 08	 mov	 edx, DWORD PTR _nNewSize$[ebp]
  0041e	2b 51 08	 sub	 edx, DWORD PTR [ecx+8]
  00421	c1 e2 02	 shl	 edx, 2
  00424	52		 push	 edx
  00425	6a 00		 push	 0
  00427	8b 45 f0	 mov	 eax, DWORD PTR _this$[ebp]
  0042a	8b 48 08	 mov	 ecx, DWORD PTR [eax+8]
  0042d	8b 55 d4	 mov	 edx, DWORD PTR _pNewData$192020[ebp]
  00430	8d 04 8a	 lea	 eax, DWORD PTR [edx+ecx*4]
  00433	50		 push	 eax
  00434	e8 00 00 00 00	 call	 _memset
  00439	83 c4 0c	 add	 esp, 12			; 0000000cH

; 463  : 		for( int i = 0; i < nNewSize-m_nSize; i++ )

  0043c	c7 45 d0 00 00
	00 00		 mov	 DWORD PTR _i$192033[ebp], 0
  00443	eb 09		 jmp	 SHORT $L192034
$L192035:
  00445	8b 4d d0	 mov	 ecx, DWORD PTR _i$192033[ebp]
  00448	83 c1 01	 add	 ecx, 1
  0044b	89 4d d0	 mov	 DWORD PTR _i$192033[ebp], ecx
$L192034:
  0044e	8b 55 f0	 mov	 edx, DWORD PTR _this$[ebp]
  00451	8b 45 08	 mov	 eax, DWORD PTR _nNewSize$[ebp]
  00454	2b 42 08	 sub	 eax, DWORD PTR [edx+8]
  00457	39 45 d0	 cmp	 DWORD PTR _i$192033[ebp], eax
  0045a	7d 50		 jge	 SHORT $L192036

; 464  : #pragma push_macro("new")
; 465  : #undef new
; 466  : 			::new( (void*)( pNewData + m_nSize + i ) ) TYPE;

  0045c	8b 4d f0	 mov	 ecx, DWORD PTR _this$[ebp]
  0045f	8b 51 08	 mov	 edx, DWORD PTR [ecx+8]
  00462	8b 45 d4	 mov	 eax, DWORD PTR _pNewData$192020[ebp]
  00465	8d 0c 90	 lea	 ecx, DWORD PTR [eax+edx*4]
  00468	8b 55 d0	 mov	 edx, DWORD PTR _i$192033[ebp]
  0046b	8d 04 91	 lea	 eax, DWORD PTR [ecx+edx*4]
  0046e	50		 push	 eax
  0046f	6a 04		 push	 4
  00471	e8 00 00 00 00	 call	 ??2@YAPAXIPAX@Z		; operator new
  00476	83 c4 08	 add	 esp, 8
  00479	89 45 ac	 mov	 DWORD PTR $T193536[ebp], eax
  0047c	c7 45 fc 02 00
	00 00		 mov	 DWORD PTR __$EHRec$[ebp+8], 2
  00483	83 7d ac 00	 cmp	 DWORD PTR $T193536[ebp], 0
  00487	74 0d		 je	 SHORT $L193537
  00489	8b 4d ac	 mov	 ecx, DWORD PTR $T193536[ebp]
  0048c	e8 00 00 00 00	 call	 ??0CPaneBase@ETSLayoutMgr@@QAE@XZ ; ETSLayoutMgr::CPaneBase::CPaneBase
  00491	89 45 90	 mov	 DWORD PTR tv295[ebp], eax
  00494	eb 07		 jmp	 SHORT $L193538
$L193537:
  00496	c7 45 90 00 00
	00 00		 mov	 DWORD PTR tv295[ebp], 0
$L193538:
  0049d	8b 4d 90	 mov	 ecx, DWORD PTR tv295[ebp]
  004a0	89 4d b0	 mov	 DWORD PTR $T193535[ebp], ecx
  004a3	c7 45 fc ff ff
	ff ff		 mov	 DWORD PTR __$EHRec$[ebp+8], -1
  004aa	eb 99		 jmp	 SHORT $L192035
$L192036:

; 467  : #pragma pop_macro("new")
; 468  : 
; 469  : 		// get rid of old stuff (note: no destructors called)
; 470  : 		delete[] (BYTE*)m_pData;

  004ac	8b 55 f0	 mov	 edx, DWORD PTR _this$[ebp]
  004af	8b 42 04	 mov	 eax, DWORD PTR [edx+4]
  004b2	89 45 a8	 mov	 DWORD PTR $T193539[ebp], eax
  004b5	8b 4d a8	 mov	 ecx, DWORD PTR $T193539[ebp]
  004b8	51		 push	 ecx
  004b9	e8 00 00 00 00	 call	 ??_V@YAXPAX@Z		; operator delete[]
  004be	83 c4 04	 add	 esp, 4

; 471  : 		m_pData = pNewData;

  004c1	8b 55 f0	 mov	 edx, DWORD PTR _this$[ebp]
  004c4	8b 45 d4	 mov	 eax, DWORD PTR _pNewData$192020[ebp]
  004c7	89 42 04	 mov	 DWORD PTR [edx+4], eax

; 472  : 		m_nSize = nNewSize;

  004ca	8b 4d f0	 mov	 ecx, DWORD PTR _this$[ebp]
  004cd	8b 55 08	 mov	 edx, DWORD PTR _nNewSize$[ebp]
  004d0	89 51 08	 mov	 DWORD PTR [ecx+8], edx

; 473  : 		m_nMaxSize = nNewMax;

  004d3	8b 45 f0	 mov	 eax, DWORD PTR _this$[ebp]
  004d6	8b 4d d8	 mov	 ecx, DWORD PTR _nNewMax$192011[ebp]
  004d9	89 48 0c	 mov	 DWORD PTR [eax+12], ecx
$L193512:

; 474  : 	}
; 475  : }

  004dc	8b 4d f4	 mov	 ecx, DWORD PTR __$EHRec$[ebp]
  004df	64 89 0d 00 00
	00 00		 mov	 DWORD PTR fs:__except_list, ecx
  004e6	5f		 pop	 edi
  004e7	83 c4 70	 add	 esp, 112		; 00000070H
  004ea	3b ec		 cmp	 ebp, esp
  004ec	e8 00 00 00 00	 call	 __RTC_CheckEsp
  004f1	8b e5		 mov	 esp, ebp
  004f3	5d		 pop	 ebp
  004f4	c2 08 00	 ret	 8
_TEXT	ENDS
;	COMDAT text$x
text$x	SEGMENT
$L193540:
  00000	8b 45 f0	 mov	 eax, DWORD PTR _this$[ebp]
  00003	8b 48 04	 mov	 ecx, DWORD PTR [eax+4]
  00006	8b 55 e4	 mov	 edx, DWORD PTR _i$191977[ebp]
  00009	8d 04 91	 lea	 eax, DWORD PTR [ecx+edx*4]
  0000c	50		 push	 eax
  0000d	8b 4d c0	 mov	 ecx, DWORD PTR $T193520[ebp]
  00010	51		 push	 ecx
  00011	e8 00 00 00 00	 call	 ??3@YAXPAX0@Z		; operator delete
  00016	83 c4 08	 add	 esp, 8
  00019	c3		 ret	 0
$L193541:
  0001a	8b 45 f0	 mov	 eax, DWORD PTR _this$[ebp]
  0001d	8b 48 08	 mov	 ecx, DWORD PTR [eax+8]
  00020	8b 55 f0	 mov	 edx, DWORD PTR _this$[ebp]
  00023	8b 42 04	 mov	 eax, DWORD PTR [edx+4]
  00026	8d 0c 88	 lea	 ecx, DWORD PTR [eax+ecx*4]
  00029	8b 55 e0	 mov	 edx, DWORD PTR _i$191993[ebp]
  0002c	8d 04 91	 lea	 eax, DWORD PTR [ecx+edx*4]
  0002f	50		 push	 eax
  00030	8b 4d b8	 mov	 ecx, DWORD PTR $T193524[ebp]
  00033	51		 push	 ecx
  00034	e8 00 00 00 00	 call	 ??3@YAXPAX0@Z		; operator delete
  00039	83 c4 08	 add	 esp, 8
  0003c	c3		 ret	 0
$L193542:
  0003d	8b 45 f0	 mov	 eax, DWORD PTR _this$[ebp]
  00040	8b 48 08	 mov	 ecx, DWORD PTR [eax+8]
  00043	8b 55 d4	 mov	 edx, DWORD PTR _pNewData$192020[ebp]
  00046	8d 04 8a	 lea	 eax, DWORD PTR [edx+ecx*4]
  00049	8b 4d d0	 mov	 ecx, DWORD PTR _i$192033[ebp]
  0004c	8d 14 88	 lea	 edx, DWORD PTR [eax+ecx*4]
  0004f	52		 push	 edx
  00050	8b 45 ac	 mov	 eax, DWORD PTR $T193536[ebp]
  00053	50		 push	 eax
  00054	e8 00 00 00 00	 call	 ??3@YAXPAX0@Z		; operator delete
  00059	83 c4 08	 add	 esp, 8
  0005c	c3		 ret	 0
__ehhandler$?SetSize@?$CArray@VCPaneBase@ETSLayoutMgr@@V12@@@QAEXHH@Z:
  0005d	b8 00 00 00 00	 mov	 eax, OFFSET FLAT:$T193544
  00062	e9 00 00 00 00	 jmp	 ___CxxFrameHandler
text$x	ENDS
?SetSize@?$CArray@VCPaneBase@ETSLayoutMgr@@V12@@@QAEXHH@Z ENDP ; CArray<ETSLayoutMgr::CPaneBase,ETSLayoutMgr::CPaneBase>::SetSize
; Function compile flags: /Odt /RTCsu
; File d:\program files (x86)\microsoft visual studio .net 2003\vc7\include\new.h
;	COMDAT ??2@YAPAXIPAX@Z
_TEXT	SEGMENT
___formal$ = 8						; size = 4
__P$ = 12						; size = 4
??2@YAPAXIPAX@Z PROC NEAR				; operator new, COMDAT

; 109  :         {return (_P); }

  00000	55		 push	 ebp
  00001	8b ec		 mov	 ebp, esp
  00003	8b 45 0c	 mov	 eax, DWORD PTR __P$[ebp]
  00006	5d		 pop	 ebp
  00007	c3		 ret	 0
??2@YAPAXIPAX@Z ENDP					; operator new
; Function compile flags: /Odt /RTCsu
_TEXT	ENDS
;	COMDAT ??3@YAXPAX0@Z
_TEXT	SEGMENT
___formal$ = 8						; size = 4
___formal$ = 12						; size = 4
??3@YAXPAX0@Z PROC NEAR					; operator delete, COMDAT

; 112  :         {return; }

  00000	55		 push	 ebp
  00001	8b ec		 mov	 ebp, esp
  00003	5d		 pop	 ebp
  00004	c3		 ret	 0
??3@YAXPAX0@Z ENDP					; operator delete
; Function compile flags: /Odt /RTCsu
_TEXT	ENDS
;	COMDAT ??_GCPaneBase@ETSLayoutMgr@@QAEPAXI@Z
_TEXT	SEGMENT
_this$ = -4						; size = 4
___flags$ = 8						; size = 4
??_GCPaneBase@ETSLayoutMgr@@QAEPAXI@Z PROC NEAR		; ETSLayoutMgr::CPaneBase::`scalar deleting destructor', COMDAT
; _this$ = ecx
  00000	55		 push	 ebp
  00001	8b ec		 mov	 ebp, esp
  00003	51		 push	 ecx
  00004	c7 45 fc cc cc
	cc cc		 mov	 DWORD PTR [ebp-4], -858993460 ; ccccccccH
  0000b	89 4d fc	 mov	 DWORD PTR _this$[ebp], ecx
  0000e	8b 4d fc	 mov	 ecx, DWORD PTR _this$[ebp]
  00011	e8 00 00 00 00	 call	 ??1CPaneBase@ETSLayoutMgr@@QAE@XZ ; ETSLayoutMgr::CPaneBase::~CPaneBase
  00016	8b 45 08	 mov	 eax, DWORD PTR ___flags$[ebp]
  00019	83 e0 01	 and	 eax, 1
  0001c	74 0c		 je	 SHORT $L191811
  0001e	8b 4d fc	 mov	 ecx, DWORD PTR _this$[ebp]
  00021	51		 push	 ecx
  00022	e8 00 00 00 00	 call	 ??3@YAXPAX@Z		; operator delete
  00027	83 c4 04	 add	 esp, 4
$L191811:
  0002a	8b 45 fc	 mov	 eax, DWORD PTR _this$[ebp]
  0002d	83 c4 04	 add	 esp, 4
  00030	3b ec		 cmp	 ebp, esp
  00032	e8 00 00 00 00	 call	 __RTC_CheckEsp
  00037	8b e5		 mov	 esp, ebp
  00039	5d		 pop	 ebp
  0003a	c2 04 00	 ret	 4
??_GCPaneBase@ETSLayoutMgr@@QAEPAXI@Z ENDP		; ETSLayoutMgr::CPaneBase::`scalar deleting destructor'
_TEXT	ENDS
PUBLIC	??_C@_0FH@BMBEKJNI@D?3?2Program?5Files?5?$CIx86?$CJ?2Microsoft@ ; `string'
;	COMDAT ??_C@_0FH@BMBEKJNI@D?3?2Program?5Files?5?$CIx86?$CJ?2Microsoft@
; File d:\program files (x86)\microsoft visual studio .net 2003\vc7\atlmfc\include\afxtempl.h
CONST	SEGMENT
??_C@_0FH@BMBEKJNI@D?3?2Program?5Files?5?$CIx86?$CJ?2Microsoft@ DB 'D:\Pr'
	DB	'ogram Files (x86)\Microsoft Visual Studio .NET 2003\Vc7\atlmf'
	DB	'c\include\afxtempl.h', 00H			; `string'
; Function compile flags: /Odt /RTCsu
CONST	ENDS
;	COMDAT ?ElementAt@?$CArray@VCPaneBase@ETSLayoutMgr@@V12@@@QAEAAVCPaneBase@ETSLayoutMgr@@H@Z
_TEXT	SEGMENT
_this$ = -4						; size = 4
_nIndex$ = 8						; size = 4
?ElementAt@?$CArray@VCPaneBase@ETSLayoutMgr@@V12@@@QAEAAVCPaneBase@ETSLayoutMgr@@H@Z PROC NEAR ; CArray<ETSLayoutMgr::CPaneBase,ETSLayoutMgr::CPaneBase>::ElementAt, COMDAT
; _this$ = ecx

; 320  : { 

  00000	55		 push	 ebp
  00001	8b ec		 mov	 ebp, esp
  00003	51		 push	 ecx
  00004	c7 45 fc cc cc
	cc cc		 mov	 DWORD PTR [ebp-4], -858993460 ; ccccccccH
  0000b	89 4d fc	 mov	 DWORD PTR _this$[ebp], ecx

; 321  : 	ASSERT(nIndex >= 0 && nIndex < m_nSize);

  0000e	83 7d 08 00	 cmp	 DWORD PTR _nIndex$[ebp], 0
  00012	7c 0b		 jl	 SHORT $L193553
  00014	8b 45 fc	 mov	 eax, DWORD PTR _this$[ebp]
  00017	8b 4d 08	 mov	 ecx, DWORD PTR _nIndex$[ebp]
  0001a	3b 48 08	 cmp	 ecx, DWORD PTR [eax+8]
  0001d	7c 14		 jl	 SHORT $L193554
$L193553:
  0001f	68 41 01 00 00	 push	 321			; 00000141H
  00024	68 00 00 00 00	 push	 OFFSET FLAT:??_C@_0FH@BMBEKJNI@D?3?2Program?5Files?5?$CIx86?$CJ?2Microsoft@
  00029	e8 00 00 00 00	 call	 ?AfxAssertFailedLine@@YGHPBDH@Z ; AfxAssertFailedLine
  0002e	85 c0		 test	 eax, eax
  00030	74 01		 je	 SHORT $L193554
  00032	cc		 int	 3
$L193554:

; 322  : 	if(nIndex >= 0 && nIndex < m_nSize)

  00033	83 7d 08 00	 cmp	 DWORD PTR _nIndex$[ebp], 0
  00037	7c 19		 jl	 SHORT $L192053
  00039	8b 45 fc	 mov	 eax, DWORD PTR _this$[ebp]
  0003c	8b 4d 08	 mov	 ecx, DWORD PTR _nIndex$[ebp]
  0003f	3b 48 08	 cmp	 ecx, DWORD PTR [eax+8]
  00042	7d 0e		 jge	 SHORT $L192053

; 323  : 		return m_pData[nIndex]; 

  00044	8b 55 fc	 mov	 edx, DWORD PTR _this$[ebp]
  00047	8b 42 04	 mov	 eax, DWORD PTR [edx+4]
  0004a	8b 4d 08	 mov	 ecx, DWORD PTR _nIndex$[ebp]
  0004d	8d 04 88	 lea	 eax, DWORD PTR [eax+ecx*4]
  00050	eb 05		 jmp	 SHORT $L193552
$L192053:

; 324  : 	AfxThrowInvalidArgException();		

  00052	e8 00 00 00 00	 call	 ?AfxThrowInvalidArgException@@YGXXZ ; AfxThrowInvalidArgException
$L193552:

; 325  : }

  00057	83 c4 04	 add	 esp, 4
  0005a	3b ec		 cmp	 ebp, esp
  0005c	e8 00 00 00 00	 call	 __RTC_CheckEsp
  00061	8b e5		 mov	 esp, ebp
  00063	5d		 pop	 ebp
  00064	c2 04 00	 ret	 4
?ElementAt@?$CArray@VCPaneBase@ETSLayoutMgr@@V12@@@QAEAAVCPaneBase@ETSLayoutMgr@@H@Z ENDP ; CArray<ETSLayoutMgr::CPaneBase,ETSLayoutMgr::CPaneBase>::ElementAt
_TEXT	ENDS
PUBLIC	?InitHashTable@?$CMap@V?$CStringT@DV?$StrTraitMFC_DLL@DV?$ChTraitsCRT@D@ATL@@@@@ATL@@PBDVCPaneBase@ETSLayoutMgr@@V34@@@QAEXIH@Z ; CMap<ATL::CStringT<char,StrTraitMFC_DLL<char,ATL::ChTraitsCRT<char> > >,char const *,ETSLayoutMgr::CPaneBase,ETSLayoutMgr::CPaneBase>::InitHashTable
PUBLIC	?NewAssoc@?$CMap@V?$CStringT@DV?$StrTraitMFC_DLL@DV?$ChTraitsCRT@D@ATL@@@@@ATL@@PBDVCPaneBase@ETSLayoutMgr@@V34@@@IAEPAVCAssoc@1@PBD@Z ; CMap<ATL::CStringT<char,StrTraitMFC_DLL<char,ATL::ChTraitsCRT<char> > >,char const *,ETSLayoutMgr::CPaneBase,ETSLayoutMgr::CPaneBase>::NewAssoc
; Function compile flags: /Odt /RTCsu
;	COMDAT ??A?$CMap@V?$CStringT@DV?$StrTraitMFC_DLL@DV?$ChTraitsCRT@D@ATL@@@@@ATL@@PBDVCPaneBase@ETSLayoutMgr@@V34@@@QAEAAVCPaneBase@ETSLayoutMgr@@PBD@Z
_TEXT	SEGMENT
_pAssoc$ = -32						; size = 4
_nHashValue$ = -24					; size = 4
_nHashBucket$ = -12					; size = 4
_this$ = -4						; size = 4
_key$ = 8						; size = 4
??A?$CMap@V?$CStringT@DV?$StrTraitMFC_DLL@DV?$ChTraitsCRT@D@ATL@@@@@ATL@@PBDVCPaneBase@ETSLayoutMgr@@V34@@@QAEAAVCPaneBase@ETSLayoutMgr@@PBD@Z PROC NEAR ; CMap<ATL::CStringT<char,StrTraitMFC_DLL<char,ATL::ChTraitsCRT<char> > >,char const *,ETSLayoutMgr::CPaneBase,ETSLayoutMgr::CPaneBase>::operator[], COMDAT
; _this$ = ecx

; 1586 : {

  00000	55		 push	 ebp
  00001	8b ec		 mov	 ebp, esp
  00003	83 ec 20	 sub	 esp, 32			; 00000020H
  00006	b8 cc cc cc cc	 mov	 eax, -858993460		; ccccccccH
  0000b	89 45 e0	 mov	 DWORD PTR [ebp-32], eax
  0000e	89 45 e4	 mov	 DWORD PTR [ebp-28], eax
  00011	89 45 e8	 mov	 DWORD PTR [ebp-24], eax
  00014	89 45 ec	 mov	 DWORD PTR [ebp-20], eax
  00017	89 45 f0	 mov	 DWORD PTR [ebp-16], eax
  0001a	89 45 f4	 mov	 DWORD PTR [ebp-12], eax
  0001d	89 45 f8	 mov	 DWORD PTR [ebp-8], eax
  00020	89 45 fc	 mov	 DWORD PTR [ebp-4], eax
  00023	89 4d fc	 mov	 DWORD PTR _this$[ebp], ecx

; 1587 : 	ASSERT_VALID(this);

  00026	68 33 06 00 00	 push	 1587			; 00000633H
  0002b	68 00 00 00 00	 push	 OFFSET FLAT:$SG192092
  00030	8b 45 fc	 mov	 eax, DWORD PTR _this$[ebp]
  00033	50		 push	 eax
  00034	e8 00 00 00 00	 call	 ?AfxAssertValidObject@@YGXPBVCObject@@PBDH@Z ; AfxAssertValidObject

; 1588 : 
; 1589 : 	UINT nHashBucket, nHashValue;
; 1590 : 	CAssoc* pAssoc;
; 1591 : 	if ((pAssoc = GetAssocAt(key, nHashBucket, nHashValue)) == NULL)

  00039	8d 4d e8	 lea	 ecx, DWORD PTR _nHashValue$[ebp]
  0003c	51		 push	 ecx
  0003d	8d 55 f4	 lea	 edx, DWORD PTR _nHashBucket$[ebp]
  00040	52		 push	 edx
  00041	8b 45 08	 mov	 eax, DWORD PTR _key$[ebp]
  00044	50		 push	 eax
  00045	8b 4d fc	 mov	 ecx, DWORD PTR _this$[ebp]
  00048	e8 00 00 00 00	 call	 ?GetAssocAt@?$CMap@V?$CStringT@DV?$StrTraitMFC_DLL@DV?$ChTraitsCRT@D@ATL@@@@@ATL@@PBDVCPaneBase@ETSLayoutMgr@@V34@@@IBEPAVCAssoc@1@PBDAAI1@Z ; CMap<ATL::CStringT<char,StrTraitMFC_DLL<char,ATL::ChTraitsCRT<char> > >,char const *,ETSLayoutMgr::CPaneBase,ETSLayoutMgr::CPaneBase>::GetAssocAt
  0004d	89 45 e0	 mov	 DWORD PTR _pAssoc$[ebp], eax
  00050	83 7d e0 00	 cmp	 DWORD PTR _pAssoc$[ebp], 0
  00054	75 53		 jne	 SHORT $L192096

; 1592 : 	{
; 1593 : 		if (m_pHashTable == NULL)

  00056	8b 4d fc	 mov	 ecx, DWORD PTR _this$[ebp]
  00059	83 79 04 00	 cmp	 DWORD PTR [ecx+4], 0
  0005d	75 11		 jne	 SHORT $L192097

; 1594 : 			InitHashTable(m_nHashTableSize);

  0005f	6a 01		 push	 1
  00061	8b 55 fc	 mov	 edx, DWORD PTR _this$[ebp]
  00064	8b 42 08	 mov	 eax, DWORD PTR [edx+8]
  00067	50		 push	 eax
  00068	8b 4d fc	 mov	 ecx, DWORD PTR _this$[ebp]
  0006b	e8 00 00 00 00	 call	 ?InitHashTable@?$CMap@V?$CStringT@DV?$StrTraitMFC_DLL@DV?$ChTraitsCRT@D@ATL@@@@@ATL@@PBDVCPaneBase@ETSLayoutMgr@@V34@@@QAEXIH@Z ; CMap<ATL::CStringT<char,StrTraitMFC_DLL<char,ATL::ChTraitsCRT<char> > >,char const *,ETSLayoutMgr::CPaneBase,ETSLayoutMgr::CPaneBase>::InitHashTable
$L192097:

; 1595 : 
; 1596 : 		// it doesn't exist, add a new Association
; 1597 : 		pAssoc = NewAssoc(key);

  00070	8b 4d 08	 mov	 ecx, DWORD PTR _key$[ebp]
  00073	51		 push	 ecx
  00074	8b 4d fc	 mov	 ecx, DWORD PTR _this$[ebp]
  00077	e8 00 00 00 00	 call	 ?NewAssoc@?$CMap@V?$CStringT@DV?$StrTraitMFC_DLL@DV?$ChTraitsCRT@D@ATL@@@@@ATL@@PBDVCPaneBase@ETSLayoutMgr@@V34@@@IAEPAVCAssoc@1@PBD@Z ; CMap<ATL::CStringT<char,StrTraitMFC_DLL<char,ATL::ChTraitsCRT<char> > >,char const *,ETSLayoutMgr::CPaneBase,ETSLayoutMgr::CPaneBase>::NewAssoc
  0007c	89 45 e0	 mov	 DWORD PTR _pAssoc$[ebp], eax

; 1598 : 		pAssoc->nHashValue = nHashValue;

  0007f	8b 55 e0	 mov	 edx, DWORD PTR _pAssoc$[ebp]
  00082	8b 45 e8	 mov	 eax, DWORD PTR _nHashValue$[ebp]
  00085	89 42 0c	 mov	 DWORD PTR [edx+12], eax

; 1599 : 		//'pAssoc->value' is a constructed object, nothing more
; 1600 : 
; 1601 : 		// put into hash table
; 1602 : 		pAssoc->pNext = m_pHashTable[nHashBucket];

  00088	8b 4d fc	 mov	 ecx, DWORD PTR _this$[ebp]
  0008b	8b 51 04	 mov	 edx, DWORD PTR [ecx+4]
  0008e	8b 45 e0	 mov	 eax, DWORD PTR _pAssoc$[ebp]
  00091	8b 4d f4	 mov	 ecx, DWORD PTR _nHashBucket$[ebp]
  00094	8b 14 8a	 mov	 edx, DWORD PTR [edx+ecx*4]
  00097	89 50 08	 mov	 DWORD PTR [eax+8], edx

; 1603 : 		m_pHashTable[nHashBucket] = pAssoc;

  0009a	8b 45 fc	 mov	 eax, DWORD PTR _this$[ebp]
  0009d	8b 48 04	 mov	 ecx, DWORD PTR [eax+4]
  000a0	8b 55 f4	 mov	 edx, DWORD PTR _nHashBucket$[ebp]
  000a3	8b 45 e0	 mov	 eax, DWORD PTR _pAssoc$[ebp]
  000a6	89 04 91	 mov	 DWORD PTR [ecx+edx*4], eax
$L192096:

; 1604 : 	}
; 1605 : 	return pAssoc->value;  // return new reference

  000a9	8b 45 e0	 mov	 eax, DWORD PTR _pAssoc$[ebp]
  000ac	83 c0 04	 add	 eax, 4

; 1606 : }

  000af	52		 push	 edx
  000b0	8b cd		 mov	 ecx, ebp
  000b2	50		 push	 eax
  000b3	8d 15 00 00 00
	00		 lea	 edx, DWORD PTR $L193559
  000b9	e8 00 00 00 00	 call	 @_RTC_CheckStackVars@8
  000be	58		 pop	 eax
  000bf	5a		 pop	 edx
  000c0	83 c4 20	 add	 esp, 32			; 00000020H
  000c3	3b ec		 cmp	 ebp, esp
  000c5	e8 00 00 00 00	 call	 __RTC_CheckEsp
  000ca	8b e5		 mov	 esp, ebp
  000cc	5d		 pop	 ebp
  000cd	c2 04 00	 ret	 4
$L193559:
  000d0	02 00 00 00	 DD	 2
  000d4	00 00 00 00	 DD	 $L193558
$L193558:
  000d8	f4 ff ff ff	 DD	 -12			; fffffff4H
  000dc	04 00 00 00	 DD	 4
  000e0	00 00 00 00	 DD	 $L193556
  000e4	e8 ff ff ff	 DD	 -24			; ffffffe8H
  000e8	04 00 00 00	 DD	 4
  000ec	00 00 00 00	 DD	 $L193557
$L193557:
  000f0	6e		 DB	 110			; 0000006eH
  000f1	48		 DB	 72			; 00000048H
  000f2	61		 DB	 97			; 00000061H
  000f3	73		 DB	 115			; 00000073H
  000f4	68		 DB	 104			; 00000068H
  000f5	56		 DB	 86			; 00000056H
  000f6	61		 DB	 97			; 00000061H
  000f7	6c		 DB	 108			; 0000006cH
  000f8	75		 DB	 117			; 00000075H
  000f9	65		 DB	 101			; 00000065H
  000fa	00		 DB	 0
$L193556:
  000fb	6e		 DB	 110			; 0000006eH
  000fc	48		 DB	 72			; 00000048H
  000fd	61		 DB	 97			; 00000061H
  000fe	73		 DB	 115			; 00000073H
  000ff	68		 DB	 104			; 00000068H
  00100	42		 DB	 66			; 00000042H
  00101	75		 DB	 117			; 00000075H
  00102	63		 DB	 99			; 00000063H
  00103	6b		 DB	 107			; 0000006bH
  00104	65		 DB	 101			; 00000065H
  00105	74		 DB	 116			; 00000074H
  00106	00		 DB	 0
??A?$CMap@V?$CStringT@DV?$StrTraitMFC_DLL@DV?$ChTraitsCRT@D@ATL@@@@@ATL@@PBDVCPaneBase@ETSLayoutMgr@@V34@@@QAEAAVCPaneBase@ETSLayoutMgr@@PBD@Z ENDP ; CMap<ATL::CStringT<char,StrTraitMFC_DLL<char,ATL::ChTraitsCRT<char> > >,char const *,ETSLayoutMgr::CPaneBase,ETSLayoutMgr::CPaneBase>::operator[]
_TEXT	ENDS
PUBLIC	??$CompareElements@V?$CStringT@DV?$StrTraitMFC_DLL@DV?$ChTraitsCRT@D@ATL@@@@@ATL@@PBD@@YGHPBV?$CStringT@DV?$StrTraitMFC_DLL@DV?$ChTraitsCRT@D@ATL@@@@@ATL@@PBQBD@Z ; CompareElements<ATL::CStringT<char,StrTraitMFC_DLL<char,ATL::ChTraitsCRT<char> > >,char const *>
EXTRN	??$HashKey@PBD@@YGIPBD@Z:NEAR			; HashKey<char const *>
; Function compile flags: /Odt /RTCsu
;	COMDAT ?GetAssocAt@?$CMap@V?$CStringT@DV?$StrTraitMFC_DLL@DV?$ChTraitsCRT@D@ATL@@@@@ATL@@PBDVCPaneBase@ETSLayoutMgr@@V34@@@IBEPAVCAssoc@1@PBDAAI1@Z
_TEXT	SEGMENT
_pAssoc$ = -8						; size = 4
_this$ = -4						; size = 4
_key$ = 8						; size = 4
_nHashBucket$ = 12					; size = 4
_nHashValue$ = 16					; size = 4
?GetAssocAt@?$CMap@V?$CStringT@DV?$StrTraitMFC_DLL@DV?$ChTraitsCRT@D@ATL@@@@@ATL@@PBDVCPaneBase@ETSLayoutMgr@@V34@@@IBEPAVCAssoc@1@PBDAAI1@Z PROC NEAR ; CMap<ATL::CStringT<char,StrTraitMFC_DLL<char,ATL::ChTraitsCRT<char> > >,char const *,ETSLayoutMgr::CPaneBase,ETSLayoutMgr::CPaneBase>::GetAssocAt, COMDAT
; _this$ = ecx

; 1533 : {

  00000	55		 push	 ebp
  00001	8b ec		 mov	 ebp, esp
  00003	83 ec 08	 sub	 esp, 8
  00006	c7 45 f8 cc cc
	cc cc		 mov	 DWORD PTR [ebp-8], -858993460 ; ccccccccH
  0000d	c7 45 fc cc cc
	cc cc		 mov	 DWORD PTR [ebp-4], -858993460 ; ccccccccH
  00014	89 4d fc	 mov	 DWORD PTR _this$[ebp], ecx

; 1534 : 	nHashValue = HashKey<ARG_KEY>(key);

  00017	8b 45 08	 mov	 eax, DWORD PTR _key$[ebp]
  0001a	50		 push	 eax
  0001b	e8 00 00 00 00	 call	 ??$HashKey@PBD@@YGIPBD@Z ; HashKey<char const *>
  00020	8b 4d 10	 mov	 ecx, DWORD PTR _nHashValue$[ebp]
  00023	89 01		 mov	 DWORD PTR [ecx], eax

; 1535 : 	nHashBucket = nHashValue % m_nHashTableSize;

  00025	8b 55 10	 mov	 edx, DWORD PTR _nHashValue$[ebp]
  00028	8b 4d fc	 mov	 ecx, DWORD PTR _this$[ebp]
  0002b	8b 02		 mov	 eax, DWORD PTR [edx]
  0002d	33 d2		 xor	 edx, edx
  0002f	f7 71 08	 div	 DWORD PTR [ecx+8]
  00032	8b 45 0c	 mov	 eax, DWORD PTR _nHashBucket$[ebp]
  00035	89 10		 mov	 DWORD PTR [eax], edx

; 1536 : 
; 1537 : 	if (m_pHashTable == NULL)

  00037	8b 4d fc	 mov	 ecx, DWORD PTR _this$[ebp]
  0003a	83 79 04 00	 cmp	 DWORD PTR [ecx+4], 0
  0003e	75 04		 jne	 SHORT $L192126

; 1538 : 		return NULL;

  00040	33 c0		 xor	 eax, eax
  00042	eb 49		 jmp	 SHORT $L192125
$L192126:

; 1539 : 
; 1540 : 	// see if it exists
; 1541 : 	CAssoc* pAssoc;
; 1542 : 	for (pAssoc = m_pHashTable[nHashBucket]; pAssoc != NULL; pAssoc = pAssoc->pNext)

  00044	8b 55 0c	 mov	 edx, DWORD PTR _nHashBucket$[ebp]
  00047	8b 02		 mov	 eax, DWORD PTR [edx]
  00049	8b 4d fc	 mov	 ecx, DWORD PTR _this$[ebp]
  0004c	8b 51 04	 mov	 edx, DWORD PTR [ecx+4]
  0004f	8b 04 82	 mov	 eax, DWORD PTR [edx+eax*4]
  00052	89 45 f8	 mov	 DWORD PTR _pAssoc$[ebp], eax
  00055	eb 09		 jmp	 SHORT $L192128
$L192129:
  00057	8b 4d f8	 mov	 ecx, DWORD PTR _pAssoc$[ebp]
  0005a	8b 51 08	 mov	 edx, DWORD PTR [ecx+8]
  0005d	89 55 f8	 mov	 DWORD PTR _pAssoc$[ebp], edx
$L192128:
  00060	83 7d f8 00	 cmp	 DWORD PTR _pAssoc$[ebp], 0
  00064	74 25		 je	 SHORT $L192130

; 1543 : 	{
; 1544 : 		if (pAssoc->nHashValue == nHashValue && CompareElements(&pAssoc->key, &key))

  00066	8b 45 f8	 mov	 eax, DWORD PTR _pAssoc$[ebp]
  00069	8b 4d 10	 mov	 ecx, DWORD PTR _nHashValue$[ebp]
  0006c	8b 50 0c	 mov	 edx, DWORD PTR [eax+12]
  0006f	3b 11		 cmp	 edx, DWORD PTR [ecx]
  00071	75 16		 jne	 SHORT $L192137
  00073	8d 45 08	 lea	 eax, DWORD PTR _key$[ebp]
  00076	50		 push	 eax
  00077	8b 4d f8	 mov	 ecx, DWORD PTR _pAssoc$[ebp]
  0007a	51		 push	 ecx
  0007b	e8 00 00 00 00	 call	 ??$CompareElements@V?$CStringT@DV?$StrTraitMFC_DLL@DV?$ChTraitsCRT@D@ATL@@@@@ATL@@PBD@@YGHPBV?$CStringT@DV?$StrTraitMFC_DLL@DV?$ChTraitsCRT@D@ATL@@@@@ATL@@PBQBD@Z ; CompareElements<ATL::CStringT<char,StrTraitMFC_DLL<char,ATL::ChTraitsCRT<char> > >,char const *>
  00080	85 c0		 test	 eax, eax
  00082	74 05		 je	 SHORT $L192137

; 1545 : 			return pAssoc;

  00084	8b 45 f8	 mov	 eax, DWORD PTR _pAssoc$[ebp]
  00087	eb 04		 jmp	 SHORT $L192125
$L192137:

; 1546 : 	}

  00089	eb cc		 jmp	 SHORT $L192129
$L192130:

; 1547 : 	return NULL;

  0008b	33 c0		 xor	 eax, eax
$L192125:

; 1548 : }

  0008d	83 c4 08	 add	 esp, 8
  00090	3b ec		 cmp	 ebp, esp
  00092	e8 00 00 00 00	 call	 __RTC_CheckEsp
  00097	8b e5		 mov	 esp, ebp
  00099	5d		 pop	 ebp
  0009a	c2 0c 00	 ret	 12			; 0000000cH
?GetAssocAt@?$CMap@V?$CStringT@DV?$StrTraitMFC_DLL@DV?$ChTraitsCRT@D@ATL@@@@@ATL@@PBDVCPaneBase@ETSLayoutMgr@@V34@@@IBEPAVCAssoc@1@PBDAAI1@Z ENDP ; CMap<ATL::CStringT<char,StrTraitMFC_DLL<char,ATL::ChTraitsCRT<char> > >,char const *,ETSLayoutMgr::CPaneBase,ETSLayoutMgr::CPaneBase>::GetAssocAt
; Function compile flags: /Odt /RTCsu
_TEXT	ENDS
;	COMDAT ?InitHashTable@?$CMap@V?$CStringT@DV?$StrTraitMFC_DLL@DV?$ChTraitsCRT@D@ATL@@@@@ATL@@PBDVCPaneBase@ETSLayoutMgr@@V34@@@QAEXIH@Z
_TEXT	SEGMENT
$T193565 = -12						; size = 4
$T193564 = -8						; size = 4
_this$ = -4						; size = 4
_nHashSize$ = 8						; size = 4
_bAllocNow$ = 12					; size = 4
?InitHashTable@?$CMap@V?$CStringT@DV?$StrTraitMFC_DLL@DV?$ChTraitsCRT@D@ATL@@@@@ATL@@PBDVCPaneBase@ETSLayoutMgr@@V34@@@QAEXIH@Z PROC NEAR ; CMap<ATL::CStringT<char,StrTraitMFC_DLL<char,ATL::ChTraitsCRT<char> > >,char const *,ETSLayoutMgr::CPaneBase,ETSLayoutMgr::CPaneBase>::InitHashTable, COMDAT
; _this$ = ecx

; 1416 : {

  00000	55		 push	 ebp
  00001	8b ec		 mov	 ebp, esp
  00003	83 ec 0c	 sub	 esp, 12			; 0000000cH
  00006	c7 45 f4 cc cc
	cc cc		 mov	 DWORD PTR [ebp-12], -858993460 ; ccccccccH
  0000d	c7 45 f8 cc cc
	cc cc		 mov	 DWORD PTR [ebp-8], -858993460 ; ccccccccH
  00014	c7 45 fc cc cc
	cc cc		 mov	 DWORD PTR [ebp-4], -858993460 ; ccccccccH
  0001b	89 4d fc	 mov	 DWORD PTR _this$[ebp], ecx

; 1417 : 	ASSERT_VALID(this);

  0001e	68 89 05 00 00	 push	 1417			; 00000589H
  00023	68 00 00 00 00	 push	 OFFSET FLAT:$SG192297
  00028	8b 45 fc	 mov	 eax, DWORD PTR _this$[ebp]
  0002b	50		 push	 eax
  0002c	e8 00 00 00 00	 call	 ?AfxAssertValidObject@@YGXPBVCObject@@PBDH@Z ; AfxAssertValidObject

; 1418 : 	ASSERT(m_nCount == 0);

  00031	8b 4d fc	 mov	 ecx, DWORD PTR _this$[ebp]
  00034	83 79 0c 00	 cmp	 DWORD PTR [ecx+12], 0
  00038	74 14		 je	 SHORT $L193562
  0003a	68 8a 05 00 00	 push	 1418			; 0000058aH
  0003f	68 00 00 00 00	 push	 OFFSET FLAT:$SG192299
  00044	e8 00 00 00 00	 call	 ?AfxAssertFailedLine@@YGHPBDH@Z ; AfxAssertFailedLine
  00049	85 c0		 test	 eax, eax
  0004b	74 01		 je	 SHORT $L193562
  0004d	cc		 int	 3
$L193562:

; 1419 : 	ASSERT(nHashSize > 0);

  0004e	83 7d 08 00	 cmp	 DWORD PTR _nHashSize$[ebp], 0
  00052	77 14		 ja	 SHORT $L193563
  00054	68 8b 05 00 00	 push	 1419			; 0000058bH
  00059	68 00 00 00 00	 push	 OFFSET FLAT:$SG192301
  0005e	e8 00 00 00 00	 call	 ?AfxAssertFailedLine@@YGHPBDH@Z ; AfxAssertFailedLine
  00063	85 c0		 test	 eax, eax
  00065	74 01		 je	 SHORT $L193563
  00067	cc		 int	 3
$L193563:

; 1420 : 
; 1421 : 	if (m_pHashTable != NULL)

  00068	8b 4d fc	 mov	 ecx, DWORD PTR _this$[ebp]
  0006b	83 79 04 00	 cmp	 DWORD PTR [ecx+4], 0
  0006f	74 1f		 je	 SHORT $L192302

; 1422 : 	{
; 1423 : 		// free hash table
; 1424 : 		delete[] m_pHashTable;

  00071	8b 55 fc	 mov	 edx, DWORD PTR _this$[ebp]
  00074	8b 42 04	 mov	 eax, DWORD PTR [edx+4]
  00077	89 45 f8	 mov	 DWORD PTR $T193564[ebp], eax
  0007a	8b 4d f8	 mov	 ecx, DWORD PTR $T193564[ebp]
  0007d	51		 push	 ecx
  0007e	e8 00 00 00 00	 call	 ??_V@YAXPAX@Z		; operator delete[]
  00083	83 c4 04	 add	 esp, 4

; 1425 : 		m_pHashTable = NULL;

  00086	8b 55 fc	 mov	 edx, DWORD PTR _this$[ebp]
  00089	c7 42 04 00 00
	00 00		 mov	 DWORD PTR [edx+4], 0
$L192302:

; 1426 : 	}
; 1427 : 
; 1428 : 	if (bAllocNow)

  00090	83 7d 0c 00	 cmp	 DWORD PTR _bAllocNow$[ebp], 0
  00094	74 33		 je	 SHORT $L192304

; 1429 : 	{
; 1430 : 		m_pHashTable = new CAssoc* [nHashSize];

  00096	8b 45 08	 mov	 eax, DWORD PTR _nHashSize$[ebp]
  00099	c1 e0 02	 shl	 eax, 2
  0009c	50		 push	 eax
  0009d	e8 00 00 00 00	 call	 ??_U@YAPAXI@Z		; operator new[]
  000a2	83 c4 04	 add	 esp, 4
  000a5	89 45 f4	 mov	 DWORD PTR $T193565[ebp], eax
  000a8	8b 4d fc	 mov	 ecx, DWORD PTR _this$[ebp]
  000ab	8b 55 f4	 mov	 edx, DWORD PTR $T193565[ebp]
  000ae	89 51 04	 mov	 DWORD PTR [ecx+4], edx

; 1431 : 		memset(m_pHashTable, 0, sizeof(CAssoc*) * nHashSize);

  000b1	8b 45 08	 mov	 eax, DWORD PTR _nHashSize$[ebp]
  000b4	c1 e0 02	 shl	 eax, 2
  000b7	50		 push	 eax
  000b8	6a 00		 push	 0
  000ba	8b 4d fc	 mov	 ecx, DWORD PTR _this$[ebp]
  000bd	8b 51 04	 mov	 edx, DWORD PTR [ecx+4]
  000c0	52		 push	 edx
  000c1	e8 00 00 00 00	 call	 _memset
  000c6	83 c4 0c	 add	 esp, 12			; 0000000cH
$L192304:

; 1432 : 	}
; 1433 : 	m_nHashTableSize = nHashSize;

  000c9	8b 45 fc	 mov	 eax, DWORD PTR _this$[ebp]
  000cc	8b 4d 08	 mov	 ecx, DWORD PTR _nHashSize$[ebp]
  000cf	89 48 08	 mov	 DWORD PTR [eax+8], ecx

; 1434 : }

  000d2	83 c4 0c	 add	 esp, 12			; 0000000cH
  000d5	3b ec		 cmp	 ebp, esp
  000d7	e8 00 00 00 00	 call	 __RTC_CheckEsp
  000dc	8b e5		 mov	 esp, ebp
  000de	5d		 pop	 ebp
  000df	c2 08 00	 ret	 8
?InitHashTable@?$CMap@V?$CStringT@DV?$StrTraitMFC_DLL@DV?$ChTraitsCRT@D@ATL@@@@@ATL@@PBDVCPaneBase@ETSLayoutMgr@@V34@@@QAEXIH@Z ENDP ; CMap<ATL::CStringT<char,StrTraitMFC_DLL<char,ATL::ChTraitsCRT<char> > >,char const *,ETSLayoutMgr::CPaneBase,ETSLayoutMgr::CPaneBase>::InitHashTable
_TEXT	ENDS
PUBLIC	??0CAssoc@?$CMap@V?$CStringT@DV?$StrTraitMFC_DLL@DV?$ChTraitsCRT@D@ATL@@@@@ATL@@PBDVCPaneBase@ETSLayoutMgr@@V34@@@QAE@PBD@Z ; CMap<ATL::CStringT<char,StrTraitMFC_DLL<char,ATL::ChTraitsCRT<char> > >,char const *,ETSLayoutMgr::CPaneBase,ETSLayoutMgr::CPaneBase>::CAssoc::CAssoc
PUBLIC	?data@CPlex@@QAEPAXXZ				; CPlex::data
EXTRN	?Create@CPlex@@SGPAU1@AAPAU1@II@Z:NEAR		; CPlex::Create
;	COMDAT xdata$x
xdata$x	SEGMENT
$T193577 DD	0ffffffffH
	DD	FLAT:$L193573
$T193575 DD	019930520H
	DD	01H
	DD	FLAT:$T193577
	DD	2 DUP(00H)
	DD	2 DUP(00H)
; Function compile flags: /Odt /RTCsu
xdata$x	ENDS
;	COMDAT ?NewAssoc@?$CMap@V?$CStringT@DV?$StrTraitMFC_DLL@DV?$ChTraitsCRT@D@ATL@@@@@ATL@@PBDVCPaneBase@ETSLayoutMgr@@V34@@@IAEPAVCAssoc@1@PBD@Z
_TEXT	SEGMENT
tv155 = -48						; size = 4
$T193570 = -44						; size = 4
$T193569 = -40						; size = 4
_pTemp$ = -36						; size = 4
_pAssoc$ = -32						; size = 4
_i$192321 = -28						; size = 4
_pAssoc$192319 = -24					; size = 4
_newBlock$192317 = -20					; size = 4
_this$ = -16						; size = 4
__$EHRec$ = -12						; size = 12
_key$ = 8						; size = 4
?NewAssoc@?$CMap@V?$CStringT@DV?$StrTraitMFC_DLL@DV?$ChTraitsCRT@D@ATL@@@@@ATL@@PBDVCPaneBase@ETSLayoutMgr@@V34@@@IAEPAVCAssoc@1@PBD@Z PROC NEAR ; CMap<ATL::CStringT<char,StrTraitMFC_DLL<char,ATL::ChTraitsCRT<char> > >,char const *,ETSLayoutMgr::CPaneBase,ETSLayoutMgr::CPaneBase>::NewAssoc, COMDAT
; _this$ = ecx

; 1477 : {

  00000	55		 push	 ebp
  00001	8b ec		 mov	 ebp, esp
  00003	6a ff		 push	 -1
  00005	68 00 00 00 00	 push	 __ehhandler$?NewAssoc@?$CMap@V?$CStringT@DV?$StrTraitMFC_DLL@DV?$ChTraitsCRT@D@ATL@@@@@ATL@@PBDVCPaneBase@ETSLayoutMgr@@V34@@@IAEPAVCAssoc@1@PBD@Z
  0000a	64 a1 00 00 00
	00		 mov	 eax, DWORD PTR fs:__except_list
  00010	50		 push	 eax
  00011	64 89 25 00 00
	00 00		 mov	 DWORD PTR fs:__except_list, esp
  00018	83 ec 24	 sub	 esp, 36			; 00000024H
  0001b	b8 cc cc cc cc	 mov	 eax, -858993460		; ccccccccH
  00020	89 45 d0	 mov	 DWORD PTR [ebp-48], eax
  00023	89 45 d4	 mov	 DWORD PTR [ebp-44], eax
  00026	89 45 d8	 mov	 DWORD PTR [ebp-40], eax
  00029	89 45 dc	 mov	 DWORD PTR [ebp-36], eax
  0002c	89 45 e0	 mov	 DWORD PTR [ebp-32], eax
  0002f	89 45 e4	 mov	 DWORD PTR [ebp-28], eax
  00032	89 45 e8	 mov	 DWORD PTR [ebp-24], eax
  00035	89 45 ec	 mov	 DWORD PTR [ebp-20], eax
  00038	89 45 f0	 mov	 DWORD PTR [ebp-16], eax
  0003b	89 4d f0	 mov	 DWORD PTR _this$[ebp], ecx

; 1478 : 	if (m_pFreeList == NULL)

  0003e	8b 45 f0	 mov	 eax, DWORD PTR _this$[ebp]
  00041	83 78 10 00	 cmp	 DWORD PTR [eax+16], 0
  00045	75 72		 jne	 SHORT $L192316

; 1479 : 	{
; 1480 : 		// add another block
; 1481 : 		CPlex* newBlock = CPlex::Create(m_pBlocks, m_nBlockSize, sizeof(CMap::CAssoc));

  00047	6a 10		 push	 16			; 00000010H
  00049	8b 4d f0	 mov	 ecx, DWORD PTR _this$[ebp]
  0004c	8b 51 18	 mov	 edx, DWORD PTR [ecx+24]
  0004f	52		 push	 edx
  00050	8b 45 f0	 mov	 eax, DWORD PTR _this$[ebp]
  00053	83 c0 14	 add	 eax, 20			; 00000014H
  00056	50		 push	 eax
  00057	e8 00 00 00 00	 call	 ?Create@CPlex@@SGPAU1@AAPAU1@II@Z ; CPlex::Create
  0005c	89 45 ec	 mov	 DWORD PTR _newBlock$192317[ebp], eax

; 1482 : 		// chain them into free list
; 1483 : 		CMap::CAssoc* pAssoc = (CMap::CAssoc*) newBlock->data();

  0005f	8b 4d ec	 mov	 ecx, DWORD PTR _newBlock$192317[ebp]
  00062	e8 00 00 00 00	 call	 ?data@CPlex@@QAEPAXXZ	; CPlex::data
  00067	89 45 e8	 mov	 DWORD PTR _pAssoc$192319[ebp], eax

; 1484 : 		// free in reverse order to make it easier to debug
; 1485 : 		pAssoc += m_nBlockSize - 1;

  0006a	8b 4d f0	 mov	 ecx, DWORD PTR _this$[ebp]
  0006d	8b 51 18	 mov	 edx, DWORD PTR [ecx+24]
  00070	83 ea 01	 sub	 edx, 1
  00073	c1 e2 04	 shl	 edx, 4
  00076	03 55 e8	 add	 edx, DWORD PTR _pAssoc$192319[ebp]
  00079	89 55 e8	 mov	 DWORD PTR _pAssoc$192319[ebp], edx

; 1486 : 		for (INT_PTR i = m_nBlockSize-1; i >= 0; i--, pAssoc--)

  0007c	8b 45 f0	 mov	 eax, DWORD PTR _this$[ebp]
  0007f	8b 48 18	 mov	 ecx, DWORD PTR [eax+24]
  00082	83 e9 01	 sub	 ecx, 1
  00085	89 4d e4	 mov	 DWORD PTR _i$192321[ebp], ecx
  00088	eb 12		 jmp	 SHORT $L192322
$L192323:
  0008a	8b 55 e4	 mov	 edx, DWORD PTR _i$192321[ebp]
  0008d	83 ea 01	 sub	 edx, 1
  00090	89 55 e4	 mov	 DWORD PTR _i$192321[ebp], edx
  00093	8b 45 e8	 mov	 eax, DWORD PTR _pAssoc$192319[ebp]
  00096	83 e8 10	 sub	 eax, 16			; 00000010H
  00099	89 45 e8	 mov	 DWORD PTR _pAssoc$192319[ebp], eax
$L192322:
  0009c	83 7d e4 00	 cmp	 DWORD PTR _i$192321[ebp], 0
  000a0	7c 17		 jl	 SHORT $L192316

; 1487 : 		{
; 1488 : 			pAssoc->pNext = m_pFreeList;

  000a2	8b 4d e8	 mov	 ecx, DWORD PTR _pAssoc$192319[ebp]
  000a5	8b 55 f0	 mov	 edx, DWORD PTR _this$[ebp]
  000a8	8b 42 10	 mov	 eax, DWORD PTR [edx+16]
  000ab	89 41 08	 mov	 DWORD PTR [ecx+8], eax

; 1489 : 			m_pFreeList = pAssoc;

  000ae	8b 4d f0	 mov	 ecx, DWORD PTR _this$[ebp]
  000b1	8b 55 e8	 mov	 edx, DWORD PTR _pAssoc$192319[ebp]
  000b4	89 51 10	 mov	 DWORD PTR [ecx+16], edx

; 1490 : 		}

  000b7	eb d1		 jmp	 SHORT $L192323
$L192316:

; 1491 : 	}
; 1492 : 	ASSERT(m_pFreeList != NULL);  // we must have something

  000b9	8b 45 f0	 mov	 eax, DWORD PTR _this$[ebp]
  000bc	83 78 10 00	 cmp	 DWORD PTR [eax+16], 0
  000c0	75 14		 jne	 SHORT $L193567
  000c2	68 d4 05 00 00	 push	 1492			; 000005d4H
  000c7	68 00 00 00 00	 push	 OFFSET FLAT:$SG192326
  000cc	e8 00 00 00 00	 call	 ?AfxAssertFailedLine@@YGHPBDH@Z ; AfxAssertFailedLine
  000d1	85 c0		 test	 eax, eax
  000d3	74 01		 je	 SHORT $L193567
  000d5	cc		 int	 3
$L193567:

; 1493 : 
; 1494 : 	CMap::CAssoc* pAssoc = m_pFreeList;

  000d6	8b 55 f0	 mov	 edx, DWORD PTR _this$[ebp]
  000d9	8b 42 10	 mov	 eax, DWORD PTR [edx+16]
  000dc	89 45 e0	 mov	 DWORD PTR _pAssoc$[ebp], eax

; 1495 : 
; 1496 : 	// zero the memory
; 1497 : 	CMap::CAssoc* pTemp = pAssoc->pNext;

  000df	8b 4d e0	 mov	 ecx, DWORD PTR _pAssoc$[ebp]
  000e2	8b 51 08	 mov	 edx, DWORD PTR [ecx+8]
  000e5	89 55 dc	 mov	 DWORD PTR _pTemp$[ebp], edx

; 1498 : 	memset( pAssoc, 0, sizeof(CMap::CAssoc) );

  000e8	6a 10		 push	 16			; 00000010H
  000ea	6a 00		 push	 0
  000ec	8b 45 e0	 mov	 eax, DWORD PTR _pAssoc$[ebp]
  000ef	50		 push	 eax
  000f0	e8 00 00 00 00	 call	 _memset
  000f5	83 c4 0c	 add	 esp, 12			; 0000000cH

; 1499 : 	pAssoc->pNext = pTemp;

  000f8	8b 4d e0	 mov	 ecx, DWORD PTR _pAssoc$[ebp]
  000fb	8b 55 dc	 mov	 edx, DWORD PTR _pTemp$[ebp]
  000fe	89 51 08	 mov	 DWORD PTR [ecx+8], edx

; 1500 : 
; 1501 : 	m_pFreeList = m_pFreeList->pNext;

  00101	8b 45 f0	 mov	 eax, DWORD PTR _this$[ebp]
  00104	8b 48 10	 mov	 ecx, DWORD PTR [eax+16]
  00107	8b 55 f0	 mov	 edx, DWORD PTR _this$[ebp]
  0010a	8b 41 08	 mov	 eax, DWORD PTR [ecx+8]
  0010d	89 42 10	 mov	 DWORD PTR [edx+16], eax

; 1502 : 	m_nCount++;

  00110	8b 4d f0	 mov	 ecx, DWORD PTR _this$[ebp]
  00113	8b 51 0c	 mov	 edx, DWORD PTR [ecx+12]
  00116	83 c2 01	 add	 edx, 1
  00119	8b 45 f0	 mov	 eax, DWORD PTR _this$[ebp]
  0011c	89 50 0c	 mov	 DWORD PTR [eax+12], edx

; 1503 : 	ASSERT(m_nCount > 0);  // make sure we don't overflow

  0011f	8b 4d f0	 mov	 ecx, DWORD PTR _this$[ebp]
  00122	83 79 0c 00	 cmp	 DWORD PTR [ecx+12], 0
  00126	7f 14		 jg	 SHORT $L193568
  00128	68 df 05 00 00	 push	 1503			; 000005dfH
  0012d	68 00 00 00 00	 push	 OFFSET FLAT:$SG192331
  00132	e8 00 00 00 00	 call	 ?AfxAssertFailedLine@@YGHPBDH@Z ; AfxAssertFailedLine
  00137	85 c0		 test	 eax, eax
  00139	74 01		 je	 SHORT $L193568
  0013b	cc		 int	 3
$L193568:

; 1504 : #pragma push_macro("new")
; 1505 : #undef new
; 1506 : 	::new(pAssoc) CMap::CAssoc(key);

  0013c	8b 45 e0	 mov	 eax, DWORD PTR _pAssoc$[ebp]
  0013f	50		 push	 eax
  00140	6a 10		 push	 16			; 00000010H
  00142	e8 00 00 00 00	 call	 ??2@YAPAXIPAX@Z		; operator new
  00147	83 c4 08	 add	 esp, 8
  0014a	89 45 d4	 mov	 DWORD PTR $T193570[ebp], eax
  0014d	c7 45 fc 00 00
	00 00		 mov	 DWORD PTR __$EHRec$[ebp+8], 0
  00154	83 7d d4 00	 cmp	 DWORD PTR $T193570[ebp], 0
  00158	74 11		 je	 SHORT $L193571
  0015a	8b 4d 08	 mov	 ecx, DWORD PTR _key$[ebp]
  0015d	51		 push	 ecx
  0015e	8b 4d d4	 mov	 ecx, DWORD PTR $T193570[ebp]
  00161	e8 00 00 00 00	 call	 ??0CAssoc@?$CMap@V?$CStringT@DV?$StrTraitMFC_DLL@DV?$ChTraitsCRT@D@ATL@@@@@ATL@@PBDVCPaneBase@ETSLayoutMgr@@V34@@@QAE@PBD@Z ; CMap<ATL::CStringT<char,StrTraitMFC_DLL<char,ATL::ChTraitsCRT<char> > >,char const *,ETSLayoutMgr::CPaneBase,ETSLayoutMgr::CPaneBase>::CAssoc::CAssoc
  00166	89 45 d0	 mov	 DWORD PTR tv155[ebp], eax
  00169	eb 07		 jmp	 SHORT $L193572
$L193571:
  0016b	c7 45 d0 00 00
	00 00		 mov	 DWORD PTR tv155[ebp], 0
$L193572:
  00172	8b 55 d0	 mov	 edx, DWORD PTR tv155[ebp]
  00175	89 55 d8	 mov	 DWORD PTR $T193569[ebp], edx
  00178	c7 45 fc ff ff
	ff ff		 mov	 DWORD PTR __$EHRec$[ebp+8], -1

; 1507 : #pragma pop_macro("new")
; 1508 : //	ConstructElements<KEY>(&pAssoc->key, 1);
; 1509 : //	ConstructElements<VALUE>(&pAssoc->value, 1);   // special construct values
; 1510 : 	return pAssoc;

  0017f	8b 45 e0	 mov	 eax, DWORD PTR _pAssoc$[ebp]

; 1511 : }

  00182	8b 4d f4	 mov	 ecx, DWORD PTR __$EHRec$[ebp]
  00185	64 89 0d 00 00
	00 00		 mov	 DWORD PTR fs:__except_list, ecx
  0018c	83 c4 30	 add	 esp, 48			; 00000030H
  0018f	3b ec		 cmp	 ebp, esp
  00191	e8 00 00 00 00	 call	 __RTC_CheckEsp
  00196	8b e5		 mov	 esp, ebp
  00198	5d		 pop	 ebp
  00199	c2 04 00	 ret	 4
_TEXT	ENDS
;	COMDAT text$x
text$x	SEGMENT
$L193573:
  00000	8b 45 e0	 mov	 eax, DWORD PTR _pAssoc$[ebp]
  00003	50		 push	 eax
  00004	8b 4d d4	 mov	 ecx, DWORD PTR $T193570[ebp]
  00007	51		 push	 ecx
  00008	e8 00 00 00 00	 call	 ??3@YAXPAX0@Z		; operator delete
  0000d	83 c4 08	 add	 esp, 8
  00010	c3		 ret	 0
__ehhandler$?NewAssoc@?$CMap@V?$CStringT@DV?$StrTraitMFC_DLL@DV?$ChTraitsCRT@D@ATL@@@@@ATL@@PBDVCPaneBase@ETSLayoutMgr@@V34@@@IAEPAVCAssoc@1@PBD@Z:
  00011	b8 00 00 00 00	 mov	 eax, OFFSET FLAT:$T193575
  00016	e9 00 00 00 00	 jmp	 ___CxxFrameHandler
text$x	ENDS
?NewAssoc@?$CMap@V?$CStringT@DV?$StrTraitMFC_DLL@DV?$ChTraitsCRT@D@ATL@@@@@ATL@@PBDVCPaneBase@ETSLayoutMgr@@V34@@@IAEPAVCAssoc@1@PBD@Z ENDP ; CMap<ATL::CStringT<char,StrTraitMFC_DLL<char,ATL::ChTraitsCRT<char> > >,char const *,ETSLayoutMgr::CPaneBase,ETSLayoutMgr::CPaneBase>::NewAssoc
; Function compile flags: /Odt /RTCsu
;	COMDAT ??$CompareElements@V?$CStringT@DV?$StrTraitMFC_DLL@DV?$ChTraitsCRT@D@ATL@@@@@ATL@@PBD@@YGHPBV?$CStringT@DV?$StrTraitMFC_DLL@DV?$ChTraitsCRT@D@ATL@@@@@ATL@@PBQBD@Z
_TEXT	SEGMENT
_pElement1$ = 8						; size = 4
_pElement2$ = 12					; size = 4
??$CompareElements@V?$CStringT@DV?$StrTraitMFC_DLL@DV?$ChTraitsCRT@D@ATL@@@@@ATL@@PBD@@YGHPBV?$CStringT@DV?$StrTraitMFC_DLL@DV?$ChTraitsCRT@D@ATL@@@@@ATL@@PBQBD@Z PROC NEAR ; CompareElements<ATL::CStringT<char,StrTraitMFC_DLL<char,ATL::ChTraitsCRT<char> > >,char const *>, COMDAT

; 150  : {

  00000	55		 push	 ebp
  00001	8b ec		 mov	 ebp, esp

; 151  : 	ASSERT(AfxIsValidAddress(pElement1, sizeof(TYPE), FALSE));

  00003	6a 00		 push	 0
  00005	6a 04		 push	 4
  00007	8b 45 08	 mov	 eax, DWORD PTR _pElement1$[ebp]
  0000a	50		 push	 eax
  0000b	e8 00 00 00 00	 call	 ?AfxIsValidAddress@@YGHPBXIH@Z ; AfxIsValidAddress
  00010	85 c0		 test	 eax, eax
  00012	75 14		 jne	 SHORT $L193581
  00014	68 97 00 00 00	 push	 151			; 00000097H
  00019	68 00 00 00 00	 push	 OFFSET FLAT:$SG192340
  0001e	e8 00 00 00 00	 call	 ?AfxAssertFailedLine@@YGHPBDH@Z ; AfxAssertFailedLine
  00023	85 c0		 test	 eax, eax
  00025	74 01		 je	 SHORT $L193581
  00027	cc		 int	 3
$L193581:

; 152  : 	ASSERT(AfxIsValidAddress(pElement2, sizeof(ARG_TYPE), FALSE));

  00028	6a 00		 push	 0
  0002a	6a 04		 push	 4
  0002c	8b 55 0c	 mov	 edx, DWORD PTR _pElement2$[ebp]
  0002f	52		 push	 edx
  00030	e8 00 00 00 00	 call	 ?AfxIsValidAddress@@YGHPBXIH@Z ; AfxIsValidAddress
  00035	85 c0		 test	 eax, eax
  00037	75 14		 jne	 SHORT $L193582
  00039	68 98 00 00 00	 push	 152			; 00000098H
  0003e	68 00 00 00 00	 push	 OFFSET FLAT:$SG192343
  00043	e8 00 00 00 00	 call	 ?AfxAssertFailedLine@@YGHPBDH@Z ; AfxAssertFailedLine
  00048	85 c0		 test	 eax, eax
  0004a	74 01		 je	 SHORT $L193582
  0004c	cc		 int	 3
$L193582:

; 153  : 
; 154  : 	return *pElement1 == *pElement2;

  0004d	8b 4d 0c	 mov	 ecx, DWORD PTR _pElement2$[ebp]
  00050	8b 11		 mov	 edx, DWORD PTR [ecx]
  00052	52		 push	 edx
  00053	8b 45 08	 mov	 eax, DWORD PTR _pElement1$[ebp]
  00056	50		 push	 eax
  00057	e8 00 00 00 00	 call	 ??8ATL@@YA_NABV?$CStringT@DV?$StrTraitMFC_DLL@DV?$ChTraitsCRT@D@ATL@@@@@0@PBD@Z ; ATL::operator==
  0005c	83 c4 08	 add	 esp, 8
  0005f	0f b6 c0	 movzx	 eax, al

; 155  : }

  00062	3b ec		 cmp	 ebp, esp
  00064	e8 00 00 00 00	 call	 __RTC_CheckEsp
  00069	5d		 pop	 ebp
  0006a	c2 08 00	 ret	 8
??$CompareElements@V?$CStringT@DV?$StrTraitMFC_DLL@DV?$ChTraitsCRT@D@ATL@@@@@ATL@@PBD@@YGHPBV?$CStringT@DV?$StrTraitMFC_DLL@DV?$ChTraitsCRT@D@ATL@@@@@ATL@@PBQBD@Z ENDP ; CompareElements<ATL::CStringT<char,StrTraitMFC_DLL<char,ATL::ChTraitsCRT<char> > >,char const *>
_TEXT	ENDS
PUBLIC	??0CPair@?$CMap@V?$CStringT@DV?$StrTraitMFC_DLL@DV?$ChTraitsCRT@D@ATL@@@@@ATL@@PBDVCPaneBase@ETSLayoutMgr@@V34@@@IAE@PBD@Z ; CMap<ATL::CStringT<char,StrTraitMFC_DLL<char,ATL::ChTraitsCRT<char> > >,char const *,ETSLayoutMgr::CPaneBase,ETSLayoutMgr::CPaneBase>::CPair::CPair
; Function compile flags: /Odt /RTCsu
;	COMDAT ??0CAssoc@?$CMap@V?$CStringT@DV?$StrTraitMFC_DLL@DV?$ChTraitsCRT@D@ATL@@@@@ATL@@PBDVCPaneBase@ETSLayoutMgr@@V34@@@QAE@PBD@Z
_TEXT	SEGMENT
_this$ = -4						; size = 4
_key$ = 8						; size = 4
??0CAssoc@?$CMap@V?$CStringT@DV?$StrTraitMFC_DLL@DV?$ChTraitsCRT@D@ATL@@@@@ATL@@PBDVCPaneBase@ETSLayoutMgr@@V34@@@QAE@PBD@Z PROC NEAR ; CMap<ATL::CStringT<char,StrTraitMFC_DLL<char,ATL::ChTraitsCRT<char> > >,char const *,ETSLayoutMgr::CPaneBase,ETSLayoutMgr::CPaneBase>::CAssoc::CAssoc, COMDAT
; _this$ = ecx

; 1263 : 		CAssoc( ARG_KEY key ) : CPair( key ) {}

  00000	55		 push	 ebp
  00001	8b ec		 mov	 ebp, esp
  00003	51		 push	 ecx
  00004	c7 45 fc cc cc
	cc cc		 mov	 DWORD PTR [ebp-4], -858993460 ; ccccccccH
  0000b	89 4d fc	 mov	 DWORD PTR _this$[ebp], ecx
  0000e	8b 45 08	 mov	 eax, DWORD PTR _key$[ebp]
  00011	50		 push	 eax
  00012	8b 4d fc	 mov	 ecx, DWORD PTR _this$[ebp]
  00015	e8 00 00 00 00	 call	 ??0CPair@?$CMap@V?$CStringT@DV?$StrTraitMFC_DLL@DV?$ChTraitsCRT@D@ATL@@@@@ATL@@PBDVCPaneBase@ETSLayoutMgr@@V34@@@IAE@PBD@Z ; CMap<ATL::CStringT<char,StrTraitMFC_DLL<char,ATL::ChTraitsCRT<char> > >,char const *,ETSLayoutMgr::CPaneBase,ETSLayoutMgr::CPaneBase>::CPair::CPair
  0001a	8b 45 fc	 mov	 eax, DWORD PTR _this$[ebp]
  0001d	83 c4 04	 add	 esp, 4
  00020	3b ec		 cmp	 ebp, esp
  00022	e8 00 00 00 00	 call	 __RTC_CheckEsp
  00027	8b e5		 mov	 esp, ebp
  00029	5d		 pop	 ebp
  0002a	c2 04 00	 ret	 4
??0CAssoc@?$CMap@V?$CStringT@DV?$StrTraitMFC_DLL@DV?$ChTraitsCRT@D@ATL@@@@@ATL@@PBDVCPaneBase@ETSLayoutMgr@@V34@@@QAE@PBD@Z ENDP ; CMap<ATL::CStringT<char,StrTraitMFC_DLL<char,ATL::ChTraitsCRT<char> > >,char const *,ETSLayoutMgr::CPaneBase,ETSLayoutMgr::CPaneBase>::CAssoc::CAssoc
_TEXT	ENDS
EXTRN	__imp_??0?$CStringT@DV?$StrTraitMFC_DLL@DV?$ChTraitsCRT@D@ATL@@@@@ATL@@QAE@PBD@Z:NEAR
;	COMDAT xdata$x
xdata$x	SEGMENT
$T193591 DD	0ffffffffH
	DD	FLAT:$L193586
$T193589 DD	019930520H
	DD	01H
	DD	FLAT:$T193591
	DD	2 DUP(00H)
	DD	2 DUP(00H)
; Function compile flags: /Odt /RTCsu
xdata$x	ENDS
;	COMDAT ??0CPair@?$CMap@V?$CStringT@DV?$StrTraitMFC_DLL@DV?$ChTraitsCRT@D@ATL@@@@@ATL@@PBDVCPaneBase@ETSLayoutMgr@@V34@@@IAE@PBD@Z
_TEXT	SEGMENT
_this$ = -16						; size = 4
__$EHRec$ = -12						; size = 12
_keyval$ = 8						; size = 4
??0CPair@?$CMap@V?$CStringT@DV?$StrTraitMFC_DLL@DV?$ChTraitsCRT@D@ATL@@@@@ATL@@PBDVCPaneBase@ETSLayoutMgr@@V34@@@IAE@PBD@Z PROC NEAR ; CMap<ATL::CStringT<char,StrTraitMFC_DLL<char,ATL::ChTraitsCRT<char> > >,char const *,ETSLayoutMgr::CPaneBase,ETSLayoutMgr::CPaneBase>::CPair::CPair, COMDAT
; _this$ = ecx

; 1252 : 		CPair( ARG_KEY keyval ) : key( keyval )	{}

  00000	55		 push	 ebp
  00001	8b ec		 mov	 ebp, esp
  00003	6a ff		 push	 -1
  00005	68 00 00 00 00	 push	 __ehhandler$??0CPair@?$CMap@V?$CStringT@DV?$StrTraitMFC_DLL@DV?$ChTraitsCRT@D@ATL@@@@@ATL@@PBDVCPaneBase@ETSLayoutMgr@@V34@@@IAE@PBD@Z
  0000a	64 a1 00 00 00
	00		 mov	 eax, DWORD PTR fs:__except_list
  00010	50		 push	 eax
  00011	64 89 25 00 00
	00 00		 mov	 DWORD PTR fs:__except_list, esp
  00018	51		 push	 ecx
  00019	56		 push	 esi
  0001a	c7 45 f0 cc cc
	cc cc		 mov	 DWORD PTR [ebp-16], -858993460 ; ccccccccH
  00021	89 4d f0	 mov	 DWORD PTR _this$[ebp], ecx
  00024	8b f4		 mov	 esi, esp
  00026	8b 45 08	 mov	 eax, DWORD PTR _keyval$[ebp]
  00029	50		 push	 eax
  0002a	8b 4d f0	 mov	 ecx, DWORD PTR _this$[ebp]
  0002d	ff 15 00 00 00
	00		 call	 DWORD PTR __imp_??0?$CStringT@DV?$StrTraitMFC_DLL@DV?$ChTraitsCRT@D@ATL@@@@@ATL@@QAE@PBD@Z
  00033	3b f4		 cmp	 esi, esp
  00035	e8 00 00 00 00	 call	 __RTC_CheckEsp
  0003a	c7 45 fc 00 00
	00 00		 mov	 DWORD PTR __$EHRec$[ebp+8], 0
  00041	8b 4d f0	 mov	 ecx, DWORD PTR _this$[ebp]
  00044	83 c1 04	 add	 ecx, 4
  00047	e8 00 00 00 00	 call	 ??0CPaneBase@ETSLayoutMgr@@QAE@XZ ; ETSLayoutMgr::CPaneBase::CPaneBase
  0004c	c7 45 fc ff ff
	ff ff		 mov	 DWORD PTR __$EHRec$[ebp+8], -1
  00053	8b 45 f0	 mov	 eax, DWORD PTR _this$[ebp]
  00056	8b 4d f4	 mov	 ecx, DWORD PTR __$EHRec$[ebp]
  00059	64 89 0d 00 00
	00 00		 mov	 DWORD PTR fs:__except_list, ecx
  00060	5e		 pop	 esi
  00061	83 c4 10	 add	 esp, 16			; 00000010H
  00064	3b ec		 cmp	 ebp, esp
  00066	e8 00 00 00 00	 call	 __RTC_CheckEsp
  0006b	8b e5		 mov	 esp, ebp
  0006d	5d		 pop	 ebp
  0006e	c2 04 00	 ret	 4
_TEXT	ENDS
;	COMDAT text$x
text$x	SEGMENT
$L193586:
  00000	8b f4		 mov	 esi, esp
  00002	8b 4d f0	 mov	 ecx, DWORD PTR _this$[ebp]
  00005	ff 15 00 00 00
	00		 call	 DWORD PTR __imp_??1?$CStringT@DV?$StrTraitMFC_DLL@DV?$ChTraitsCRT@D@ATL@@@@@ATL@@QAE@XZ
  0000b	3b f4		 cmp	 esi, esp
  0000d	e9 00 00 00 00	 jmp	 __RTC_CheckEsp
__ehhandler$??0CPair@?$CMap@V?$CStringT@DV?$StrTraitMFC_DLL@DV?$ChTraitsCRT@D@ATL@@@@@ATL@@PBDVCPaneBase@ETSLayoutMgr@@V34@@@IAE@PBD@Z:
  00012	b8 00 00 00 00	 mov	 eax, OFFSET FLAT:$T193589
  00017	e9 00 00 00 00	 jmp	 ___CxxFrameHandler
text$x	ENDS
??0CPair@?$CMap@V?$CStringT@DV?$StrTraitMFC_DLL@DV?$ChTraitsCRT@D@ATL@@@@@ATL@@PBDVCPaneBase@ETSLayoutMgr@@V34@@@IAE@PBD@Z ENDP ; CMap<ATL::CStringT<char,StrTraitMFC_DLL<char,ATL::ChTraitsCRT<char> > >,char const *,ETSLayoutMgr::CPaneBase,ETSLayoutMgr::CPaneBase>::CPair::CPair
PUBLIC	??_R1A@?0A@A@CObject@@8				; CObject::`RTTI Base Class Descriptor at (0,-1,0,0)'
PUBLIC	??_R0?AVCObject@@@8				; CObject `RTTI Type Descriptor'
PUBLIC	??_7CMemDC@@6B@					; CMemDC::`vftable'
PUBLIC	??_GCMemDC@@UAEPAXI@Z				; CMemDC::`scalar deleting destructor'
PUBLIC	??_R4CMemDC@@6B@				; CMemDC::`RTTI Complete Object Locator'
PUBLIC	??_R0?AVCMemDC@@@8				; CMemDC `RTTI Type Descriptor'
PUBLIC	??_R3CMemDC@@8					; CMemDC::`RTTI Class Hierarchy Descriptor'
PUBLIC	??_R2CMemDC@@8					; CMemDC::`RTTI Base Class Array'
PUBLIC	??_R1A@?0A@A@CMemDC@@8				; CMemDC::`RTTI Base Class Descriptor at (0,-1,0,0)'
PUBLIC	??_R1A@?0A@A@CDC@@8				; CDC::`RTTI Base Class Descriptor at (0,-1,0,0)'
PUBLIC	??_R0?AVCDC@@@8					; CDC `RTTI Type Descriptor'
EXTRN	?TextOutA@CDC@@UAEHHHPBDH@Z:NEAR		; CDC::TextOutA
EXTRN	?ExtTextOutA@CDC@@UAEHHHIPBUtagRECT@@PBDIPAH@Z:NEAR ; CDC::ExtTextOutA
EXTRN	?TabbedTextOutA@CDC@@UAE?AVCSize@@HHPBDHHPAHH@Z:NEAR ; CDC::TabbedTextOutA
EXTRN	?DrawTextA@CDC@@UAEHPBDHPAUtagRECT@@I@Z:NEAR	; CDC::DrawTextA
EXTRN	?DrawTextExA@CDC@@UAEHPADHPAUtagRECT@@IPAUtagDRAWTEXTPARAMS@@@Z:NEAR ; CDC::DrawTextExA
EXTRN	?GrayStringA@CDC@@UAEHPAVCBrush@@P6GHPAUHDC__@@JH@ZJHHHHH@Z:NEAR ; CDC::GrayStringA
EXTRN	?Escape@CDC@@UAEHHHPBDPAX@Z:NEAR		; CDC::Escape
EXTRN	??1CDC@@UAE@XZ:NEAR				; CDC::~CDC
EXTRN	?AssertValid@CDC@@UBEXXZ:NEAR			; CDC::AssertValid
EXTRN	?Dump@CDC@@UBEXAAVCDumpContext@@@Z:NEAR		; CDC::Dump
EXTRN	??0CBitmap@@QAE@XZ:NEAR				; CBitmap::CBitmap
EXTRN	?CreateCompatibleBitmap@CBitmap@@QAEHPAVCDC@@HH@Z:NEAR ; CBitmap::CreateCompatibleBitmap
EXTRN	??2CObject@@SGPAXI@Z:NEAR			; CObject::operator new
EXTRN	??3CObject@@SGXPAX@Z:NEAR			; CObject::operator delete
EXTRN	??_ECMemDC@@UAEPAXI@Z:NEAR			; CMemDC::`vector deleting destructor'
EXTRN	?Serialize@CObject@@UAEXAAVCArchive@@@Z:NEAR	; CObject::Serialize
EXTRN	?GetRuntimeClass@CDC@@UBEPAUCRuntimeClass@@XZ:NEAR ; CDC::GetRuntimeClass
EXTRN	?SetAttribDC@CDC@@UAEXPAUHDC__@@@Z:NEAR		; CDC::SetAttribDC
EXTRN	?SetOutputDC@CDC@@UAEXPAUHDC__@@@Z:NEAR		; CDC::SetOutputDC
EXTRN	?ReleaseAttribDC@CDC@@UAEXXZ:NEAR		; CDC::ReleaseAttribDC
EXTRN	?ReleaseOutputDC@CDC@@UAEXXZ:NEAR		; CDC::ReleaseOutputDC
EXTRN	??0CDC@@QAE@XZ:NEAR				; CDC::CDC
EXTRN	?CreateCompatibleDC@CDC@@QAEHPAV1@@Z:NEAR	; CDC::CreateCompatibleDC
EXTRN	?SaveDC@CDC@@UAEHXZ:NEAR			; CDC::SaveDC
EXTRN	?RestoreDC@CDC@@UAEHH@Z:NEAR			; CDC::RestoreDC
EXTRN	?SelectStockObject@CDC@@UAEPAVCGdiObject@@H@Z:NEAR ; CDC::SelectStockObject
EXTRN	?SelectObject@CDC@@UAEPAVCFont@@PAV2@@Z:NEAR	; CDC::SelectObject
EXTRN	?SelectObject@CDC@@QAEPAVCBitmap@@PAV2@@Z:NEAR	; CDC::SelectObject
EXTRN	?SetBkColor@CDC@@UAEKK@Z:NEAR			; CDC::SetBkColor
EXTRN	?SetTextColor@CDC@@UAEKK@Z:NEAR			; CDC::SetTextColor
EXTRN	?SetMapMode@CDC@@UAEHH@Z:NEAR			; CDC::SetMapMode
EXTRN	?SetViewportOrg@CDC@@UAE?AVCPoint@@HH@Z:NEAR	; CDC::SetViewportOrg
EXTRN	?OffsetViewportOrg@CDC@@UAE?AVCPoint@@HH@Z:NEAR	; CDC::OffsetViewportOrg
EXTRN	?SetViewportExt@CDC@@UAE?AVCSize@@HH@Z:NEAR	; CDC::SetViewportExt
EXTRN	?ScaleViewportExt@CDC@@UAE?AVCSize@@HHHH@Z:NEAR	; CDC::ScaleViewportExt
EXTRN	?SetWindowExt@CDC@@UAE?AVCSize@@HH@Z:NEAR	; CDC::SetWindowExt
EXTRN	?ScaleWindowExt@CDC@@UAE?AVCSize@@HHHH@Z:NEAR	; CDC::ScaleWindowExt
EXTRN	?GetClipBox@CDC@@UBEHPAUtagRECT@@@Z:NEAR	; CDC::GetClipBox
EXTRN	?PtVisible@CDC@@UBEHHH@Z:NEAR			; CDC::PtVisible
EXTRN	?RectVisible@CDC@@UBEHPBUtagRECT@@@Z:NEAR	; CDC::RectVisible
;	COMDAT xdata$x
; File d:\boxgit\playbox\playbox\dev\prj\playbox\src\gui\commoncontrol\listctrol\gdiex.h
xdata$x	SEGMENT
$T193604 DD	0ffffffffH
	DD	FLAT:$L193599
	DD	00H
	DD	FLAT:$L193600
$T193602 DD	019930520H
	DD	02H
	DD	FLAT:$T193604
	DD	2 DUP(00H)
	DD	2 DUP(00H)
xdata$x	ENDS
;	COMDAT ??_7CMemDC@@6B@
CONST	SEGMENT
??_7CMemDC@@6B@ DD FLAT:??_R4CMemDC@@6B@		; CMemDC::`vftable'
	DD	FLAT:?GetRuntimeClass@CDC@@UBEPAUCRuntimeClass@@XZ
	DD	FLAT:??_ECMemDC@@UAEPAXI@Z
	DD	FLAT:?Serialize@CObject@@UAEXAAVCArchive@@@Z
	DD	FLAT:?AssertValid@CDC@@UBEXXZ
	DD	FLAT:?Dump@CDC@@UBEXAAVCDumpContext@@@Z
	DD	FLAT:?SetAttribDC@CDC@@UAEXPAUHDC__@@@Z
	DD	FLAT:?SetOutputDC@CDC@@UAEXPAUHDC__@@@Z
	DD	FLAT:?ReleaseAttribDC@CDC@@UAEXXZ
	DD	FLAT:?ReleaseOutputDC@CDC@@UAEXXZ
	DD	FLAT:?SaveDC@CDC@@UAEHXZ
	DD	FLAT:?RestoreDC@CDC@@UAEHH@Z
	DD	FLAT:?SelectStockObject@CDC@@UAEPAVCGdiObject@@H@Z
	DD	FLAT:?SelectObject@CDC@@UAEPAVCFont@@PAV2@@Z
	DD	FLAT:?SetBkColor@CDC@@UAEKK@Z
	DD	FLAT:?SetTextColor@CDC@@UAEKK@Z
	DD	FLAT:?SetMapMode@CDC@@UAEHH@Z
	DD	FLAT:?SetViewportOrg@CDC@@UAE?AVCPoint@@HH@Z
	DD	FLAT:?OffsetViewportOrg@CDC@@UAE?AVCPoint@@HH@Z
	DD	FLAT:?SetViewportExt@CDC@@UAE?AVCSize@@HH@Z
	DD	FLAT:?ScaleViewportExt@CDC@@UAE?AVCSize@@HHHH@Z
	DD	FLAT:?SetWindowExt@CDC@@UAE?AVCSize@@HH@Z
	DD	FLAT:?ScaleWindowExt@CDC@@UAE?AVCSize@@HHHH@Z
	DD	FLAT:?GetClipBox@CDC@@UBEHPAUtagRECT@@@Z
	DD	FLAT:?PtVisible@CDC@@UBEHHH@Z
	DD	FLAT:?RectVisible@CDC@@UBEHPBUtagRECT@@@Z
	DD	FLAT:?TextOutA@CDC@@UAEHHHPBDH@Z
	DD	FLAT:?ExtTextOutA@CDC@@UAEHHHIPBUtagRECT@@PBDIPAH@Z
	DD	FLAT:?TabbedTextOutA@CDC@@UAE?AVCSize@@HHPBDHHPAHH@Z
	DD	FLAT:?DrawTextA@CDC@@UAEHPBDHPAUtagRECT@@I@Z
	DD	FLAT:?DrawTextExA@CDC@@UAEHPADHPAUtagRECT@@IPAUtagDRAWTEXTPARAMS@@@Z
	DD	FLAT:?GrayStringA@CDC@@UAEHPAVCBrush@@P6GHPAUHDC__@@JH@ZJHHHHH@Z
	DD	FLAT:?Escape@CDC@@UAEHHHPBDPAX@Z
CONST	ENDS
;	COMDAT ??_R4CMemDC@@6B@
rdata$r	SEGMENT
??_R4CMemDC@@6B@ DD 00H					; CMemDC::`RTTI Complete Object Locator'
	DD	00H
	DD	00H
	DD	FLAT:??_R0?AVCMemDC@@@8
	DD	FLAT:??_R3CMemDC@@8
rdata$r	ENDS
;	COMDAT ??_R0?AVCMemDC@@@8
_DATA	SEGMENT
??_R0?AVCMemDC@@@8 DD FLAT:??_7type_info@@6B@		; CMemDC `RTTI Type Descriptor'
	DD	00H
	DB	'.?AVCMemDC@@', 00H
_DATA	ENDS
;	COMDAT ??_R3CMemDC@@8
rdata$r	SEGMENT
??_R3CMemDC@@8 DD 00H					; CMemDC::`RTTI Class Hierarchy Descriptor'
	DD	00H
	DD	03H
	DD	FLAT:??_R2CMemDC@@8
rdata$r	ENDS
;	COMDAT ??_R2CMemDC@@8
rdata$r	SEGMENT
??_R2CMemDC@@8 DD FLAT:??_R1A@?0A@A@CMemDC@@8		; CMemDC::`RTTI Base Class Array'
	DD	FLAT:??_R1A@?0A@A@CDC@@8
	DD	FLAT:??_R1A@?0A@A@CObject@@8
rdata$r	ENDS
;	COMDAT ??_R1A@?0A@A@CMemDC@@8
rdata$r	SEGMENT
??_R1A@?0A@A@CMemDC@@8 DD FLAT:??_R0?AVCMemDC@@@8	; CMemDC::`RTTI Base Class Descriptor at (0,-1,0,0)'
	DD	02H
	DD	00H
	DD	0ffffffffH
	DD	00H
	DD	00H
rdata$r	ENDS
;	COMDAT ??_R1A@?0A@A@CDC@@8
rdata$r	SEGMENT
??_R1A@?0A@A@CDC@@8 DD FLAT:??_R0?AVCDC@@@8		; CDC::`RTTI Base Class Descriptor at (0,-1,0,0)'
	DD	01H
	DD	00H
	DD	0ffffffffH
	DD	00H
	DD	00H
rdata$r	ENDS
;	COMDAT ??_R0?AVCDC@@@8
_DATA	SEGMENT
??_R0?AVCDC@@@8 DD FLAT:??_7type_info@@6B@		; CDC `RTTI Type Descriptor'
	DD	00H
	DB	'.?AVCDC@@', 00H
_DATA	ENDS
;	COMDAT ??_R1A@?0A@A@CObject@@8
rdata$r	SEGMENT
??_R1A@?0A@A@CObject@@8 DD FLAT:??_R0?AVCObject@@@8	; CObject::`RTTI Base Class Descriptor at (0,-1,0,0)'
	DD	00H
	DD	00H
	DD	0ffffffffH
	DD	00H
	DD	00H
rdata$r	ENDS
;	COMDAT ??_R0?AVCObject@@@8
_DATA	SEGMENT
??_R0?AVCObject@@@8 DD FLAT:??_7type_info@@6B@		; CObject `RTTI Type Descriptor'
	DD	00H
	DB	'.?AVCObject@@', 00H
; Function compile flags: /Odt /RTCsu
_DATA	ENDS
;	COMDAT ??0CMemDC@@QAE@PAVCDC@@ABVCRect@@@Z
_TEXT	SEGMENT
tv79 = -28						; size = 4
$T193596 = -24						; size = 4
$T193595 = -20						; size = 4
_this$ = -16						; size = 4
__$EHRec$ = -12						; size = 12
_apDC$ = 8						; size = 4
_arcBounds$ = 12					; size = 4
??0CMemDC@@QAE@PAVCDC@@ABVCRect@@@Z PROC NEAR		; CMemDC::CMemDC, COMDAT
; _this$ = ecx

; 69   : 	{

  00000	55		 push	 ebp
  00001	8b ec		 mov	 ebp, esp
  00003	6a ff		 push	 -1
  00005	68 00 00 00 00	 push	 __ehhandler$??0CMemDC@@QAE@PAVCDC@@ABVCRect@@@Z
  0000a	64 a1 00 00 00
	00		 mov	 eax, DWORD PTR fs:__except_list
  00010	50		 push	 eax
  00011	64 89 25 00 00
	00 00		 mov	 DWORD PTR fs:__except_list, esp
  00018	83 ec 10	 sub	 esp, 16			; 00000010H
  0001b	b8 cc cc cc cc	 mov	 eax, -858993460		; ccccccccH
  00020	89 45 e4	 mov	 DWORD PTR [ebp-28], eax
  00023	89 45 e8	 mov	 DWORD PTR [ebp-24], eax
  00026	89 45 ec	 mov	 DWORD PTR [ebp-20], eax
  00029	89 45 f0	 mov	 DWORD PTR [ebp-16], eax
  0002c	89 4d f0	 mov	 DWORD PTR _this$[ebp], ecx
  0002f	8b 4d f0	 mov	 ecx, DWORD PTR _this$[ebp]
  00032	e8 00 00 00 00	 call	 ??0CDC@@QAE@XZ		; CDC::CDC
  00037	c7 45 fc 00 00
	00 00		 mov	 DWORD PTR __$EHRec$[ebp+8], 0
  0003e	8b 45 f0	 mov	 eax, DWORD PTR _this$[ebp]
  00041	c7 00 00 00 00
	00		 mov	 DWORD PTR [eax], OFFSET FLAT:??_7CMemDC@@6B@
  00047	8b 4d f0	 mov	 ecx, DWORD PTR _this$[ebp]
  0004a	83 c1 1c	 add	 ecx, 28			; 0000001cH
  0004d	e8 00 00 00 00	 call	 ??0CRect@@QAE@XZ	; CRect::CRect

; 70   : 		CreateCompatibleDC(apDC);

  00052	8b 4d 08	 mov	 ecx, DWORD PTR _apDC$[ebp]
  00055	51		 push	 ecx
  00056	8b 4d f0	 mov	 ecx, DWORD PTR _this$[ebp]
  00059	e8 00 00 00 00	 call	 ?CreateCompatibleDC@CDC@@QAEHPAV1@@Z ; CDC::CreateCompatibleDC

; 71   : 		mpBitmap = new CBitmap;

  0005e	6a 08		 push	 8
  00060	e8 00 00 00 00	 call	 ??2CObject@@SGPAXI@Z	; CObject::operator new
  00065	89 45 e8	 mov	 DWORD PTR $T193596[ebp], eax
  00068	c6 45 fc 01	 mov	 BYTE PTR __$EHRec$[ebp+8], 1
  0006c	83 7d e8 00	 cmp	 DWORD PTR $T193596[ebp], 0
  00070	74 0d		 je	 SHORT $L193597
  00072	8b 4d e8	 mov	 ecx, DWORD PTR $T193596[ebp]
  00075	e8 00 00 00 00	 call	 ??0CBitmap@@QAE@XZ	; CBitmap::CBitmap
  0007a	89 45 e4	 mov	 DWORD PTR tv79[ebp], eax
  0007d	eb 07		 jmp	 SHORT $L193598
$L193597:
  0007f	c7 45 e4 00 00
	00 00		 mov	 DWORD PTR tv79[ebp], 0
$L193598:
  00086	8b 55 e4	 mov	 edx, DWORD PTR tv79[ebp]
  00089	89 55 ec	 mov	 DWORD PTR $T193595[ebp], edx
  0008c	c6 45 fc 00	 mov	 BYTE PTR __$EHRec$[ebp+8], 0
  00090	8b 45 f0	 mov	 eax, DWORD PTR _this$[ebp]
  00093	8b 4d ec	 mov	 ecx, DWORD PTR $T193595[ebp]
  00096	89 48 10	 mov	 DWORD PTR [eax+16], ecx

; 72   : 		mpBitmap->CreateCompatibleBitmap(apDC, arcBounds.Width() + arcBounds.left, arcBounds.Height() + arcBounds.top);

  00099	8b 4d 0c	 mov	 ecx, DWORD PTR _arcBounds$[ebp]
  0009c	e8 00 00 00 00	 call	 ?Height@CRect@@QBEHXZ	; CRect::Height
  000a1	8b 55 0c	 mov	 edx, DWORD PTR _arcBounds$[ebp]
  000a4	03 42 04	 add	 eax, DWORD PTR [edx+4]
  000a7	50		 push	 eax
  000a8	8b 4d 0c	 mov	 ecx, DWORD PTR _arcBounds$[ebp]
  000ab	e8 00 00 00 00	 call	 ?Width@CRect@@QBEHXZ	; CRect::Width
  000b0	8b 4d 0c	 mov	 ecx, DWORD PTR _arcBounds$[ebp]
  000b3	03 01		 add	 eax, DWORD PTR [ecx]
  000b5	50		 push	 eax
  000b6	8b 55 08	 mov	 edx, DWORD PTR _apDC$[ebp]
  000b9	52		 push	 edx
  000ba	8b 45 f0	 mov	 eax, DWORD PTR _this$[ebp]
  000bd	8b 48 10	 mov	 ecx, DWORD PTR [eax+16]
  000c0	e8 00 00 00 00	 call	 ?CreateCompatibleBitmap@CBitmap@@QAEHPAVCDC@@HH@Z ; CBitmap::CreateCompatibleBitmap

; 73   : 		mpOldBitmap = SelectObject(mpBitmap);

  000c5	8b 4d f0	 mov	 ecx, DWORD PTR _this$[ebp]
  000c8	8b 51 10	 mov	 edx, DWORD PTR [ecx+16]
  000cb	52		 push	 edx
  000cc	8b 4d f0	 mov	 ecx, DWORD PTR _this$[ebp]
  000cf	e8 00 00 00 00	 call	 ?SelectObject@CDC@@QAEPAVCBitmap@@PAV2@@Z ; CDC::SelectObject
  000d4	8b 4d f0	 mov	 ecx, DWORD PTR _this$[ebp]
  000d7	89 41 14	 mov	 DWORD PTR [ecx+20], eax

; 74   : 		mpDC = apDC;

  000da	8b 55 f0	 mov	 edx, DWORD PTR _this$[ebp]
  000dd	8b 45 08	 mov	 eax, DWORD PTR _apDC$[ebp]
  000e0	89 42 18	 mov	 DWORD PTR [edx+24], eax

; 75   : 		mrcBounds = arcBounds;

  000e3	8b 4d 0c	 mov	 ecx, DWORD PTR _arcBounds$[ebp]
  000e6	8b 55 f0	 mov	 edx, DWORD PTR _this$[ebp]
  000e9	83 c2 1c	 add	 edx, 28			; 0000001cH
  000ec	8b 01		 mov	 eax, DWORD PTR [ecx]
  000ee	89 02		 mov	 DWORD PTR [edx], eax
  000f0	8b 41 04	 mov	 eax, DWORD PTR [ecx+4]
  000f3	89 42 04	 mov	 DWORD PTR [edx+4], eax
  000f6	8b 41 08	 mov	 eax, DWORD PTR [ecx+8]
  000f9	89 42 08	 mov	 DWORD PTR [edx+8], eax
  000fc	8b 49 0c	 mov	 ecx, DWORD PTR [ecx+12]
  000ff	89 4a 0c	 mov	 DWORD PTR [edx+12], ecx

; 76   : 	}

  00102	c7 45 fc ff ff
	ff ff		 mov	 DWORD PTR __$EHRec$[ebp+8], -1
  00109	8b 45 f0	 mov	 eax, DWORD PTR _this$[ebp]
  0010c	8b 4d f4	 mov	 ecx, DWORD PTR __$EHRec$[ebp]
  0010f	64 89 0d 00 00
	00 00		 mov	 DWORD PTR fs:__except_list, ecx
  00116	83 c4 1c	 add	 esp, 28			; 0000001cH
  00119	3b ec		 cmp	 ebp, esp
  0011b	e8 00 00 00 00	 call	 __RTC_CheckEsp
  00120	8b e5		 mov	 esp, ebp
  00122	5d		 pop	 ebp
  00123	c2 08 00	 ret	 8
_TEXT	ENDS
;	COMDAT text$x
text$x	SEGMENT
$L193599:
  00000	8b 4d f0	 mov	 ecx, DWORD PTR _this$[ebp]
  00003	e9 00 00 00 00	 jmp	 ??1CDC@@UAE@XZ		; CDC::~CDC
$L193600:
  00008	8b 45 e8	 mov	 eax, DWORD PTR $T193596[ebp]
  0000b	50		 push	 eax
  0000c	e8 00 00 00 00	 call	 ??3CObject@@SGXPAX@Z	; CObject::operator delete
  00011	c3		 ret	 0
__ehhandler$??0CMemDC@@QAE@PAVCDC@@ABVCRect@@@Z:
  00012	b8 00 00 00 00	 mov	 eax, OFFSET FLAT:$T193602
  00017	e9 00 00 00 00	 jmp	 ___CxxFrameHandler
text$x	ENDS
??0CMemDC@@QAE@PAVCDC@@ABVCRect@@@Z ENDP		; CMemDC::CMemDC
EXTRN	?BitBlt@CDC@@QAEHHHHHPAV1@HHK@Z:NEAR		; CDC::BitBlt
;	COMDAT xdata$x
xdata$x	SEGMENT
$T193616 DD	0ffffffffH
	DD	FLAT:$L193612
$T193614 DD	019930520H
	DD	01H
	DD	FLAT:$T193616
	DD	2 DUP(00H)
	DD	2 DUP(00H)
; Function compile flags: /Odt /RTCsu
xdata$x	ENDS
;	COMDAT ??1CMemDC@@UAE@XZ
_TEXT	SEGMENT
tv134 = -28						; size = 4
$T193609 = -24						; size = 4
$T193608 = -20						; size = 4
_this$ = -16						; size = 4
__$EHRec$ = -12						; size = 12
??1CMemDC@@UAE@XZ PROC NEAR				; CMemDC::~CMemDC, COMDAT
; _this$ = ecx

; 78   : 	{

  00000	55		 push	 ebp
  00001	8b ec		 mov	 ebp, esp
  00003	6a ff		 push	 -1
  00005	68 00 00 00 00	 push	 __ehhandler$??1CMemDC@@UAE@XZ
  0000a	64 a1 00 00 00
	00		 mov	 eax, DWORD PTR fs:__except_list
  00010	50		 push	 eax
  00011	64 89 25 00 00
	00 00		 mov	 DWORD PTR fs:__except_list, esp
  00018	83 ec 10	 sub	 esp, 16			; 00000010H
  0001b	56		 push	 esi
  0001c	b8 cc cc cc cc	 mov	 eax, -858993460		; ccccccccH
  00021	89 45 e4	 mov	 DWORD PTR [ebp-28], eax
  00024	89 45 e8	 mov	 DWORD PTR [ebp-24], eax
  00027	89 45 ec	 mov	 DWORD PTR [ebp-20], eax
  0002a	89 45 f0	 mov	 DWORD PTR [ebp-16], eax
  0002d	89 4d f0	 mov	 DWORD PTR _this$[ebp], ecx
  00030	8b 45 f0	 mov	 eax, DWORD PTR _this$[ebp]
  00033	c7 00 00 00 00
	00		 mov	 DWORD PTR [eax], OFFSET FLAT:??_7CMemDC@@6B@
  00039	c7 45 fc 00 00
	00 00		 mov	 DWORD PTR __$EHRec$[ebp+8], 0

; 79   : 		mpDC->BitBlt(mrcBounds.left, mrcBounds.top, mrcBounds.Width(), mrcBounds.Height(), 
; 80   : 					this, mrcBounds.left, mrcBounds.top, SRCCOPY);

  00040	68 20 00 cc 00	 push	 13369376		; 00cc0020H
  00045	8b 4d f0	 mov	 ecx, DWORD PTR _this$[ebp]
  00048	8b 51 20	 mov	 edx, DWORD PTR [ecx+32]
  0004b	52		 push	 edx
  0004c	8b 45 f0	 mov	 eax, DWORD PTR _this$[ebp]
  0004f	8b 48 1c	 mov	 ecx, DWORD PTR [eax+28]
  00052	51		 push	 ecx
  00053	8b 55 f0	 mov	 edx, DWORD PTR _this$[ebp]
  00056	52		 push	 edx
  00057	8b 4d f0	 mov	 ecx, DWORD PTR _this$[ebp]
  0005a	83 c1 1c	 add	 ecx, 28			; 0000001cH
  0005d	e8 00 00 00 00	 call	 ?Height@CRect@@QBEHXZ	; CRect::Height
  00062	50		 push	 eax
  00063	8b 4d f0	 mov	 ecx, DWORD PTR _this$[ebp]
  00066	83 c1 1c	 add	 ecx, 28			; 0000001cH
  00069	e8 00 00 00 00	 call	 ?Width@CRect@@QBEHXZ	; CRect::Width
  0006e	50		 push	 eax
  0006f	8b 45 f0	 mov	 eax, DWORD PTR _this$[ebp]
  00072	8b 48 20	 mov	 ecx, DWORD PTR [eax+32]
  00075	51		 push	 ecx
  00076	8b 55 f0	 mov	 edx, DWORD PTR _this$[ebp]
  00079	8b 42 1c	 mov	 eax, DWORD PTR [edx+28]
  0007c	50		 push	 eax
  0007d	8b 4d f0	 mov	 ecx, DWORD PTR _this$[ebp]
  00080	8b 49 18	 mov	 ecx, DWORD PTR [ecx+24]
  00083	e8 00 00 00 00	 call	 ?BitBlt@CDC@@QAEHHHHHPAV1@HHK@Z ; CDC::BitBlt

; 81   : 		SelectObject(mpOldBitmap);

  00088	8b 55 f0	 mov	 edx, DWORD PTR _this$[ebp]
  0008b	8b 42 14	 mov	 eax, DWORD PTR [edx+20]
  0008e	50		 push	 eax
  0008f	8b 4d f0	 mov	 ecx, DWORD PTR _this$[ebp]
  00092	e8 00 00 00 00	 call	 ?SelectObject@CDC@@QAEPAVCBitmap@@PAV2@@Z ; CDC::SelectObject

; 82   : 		if (mpBitmap != NULL)

  00097	8b 4d f0	 mov	 ecx, DWORD PTR _this$[ebp]
  0009a	83 79 10 00	 cmp	 DWORD PTR [ecx+16], 0
  0009e	74 41		 je	 SHORT $L107046

; 83   : 		{
; 84   : 			delete mpBitmap;

  000a0	8b 55 f0	 mov	 edx, DWORD PTR _this$[ebp]
  000a3	8b 42 10	 mov	 eax, DWORD PTR [edx+16]
  000a6	89 45 e8	 mov	 DWORD PTR $T193609[ebp], eax
  000a9	8b 4d e8	 mov	 ecx, DWORD PTR $T193609[ebp]
  000ac	89 4d ec	 mov	 DWORD PTR $T193608[ebp], ecx
  000af	83 7d ec 00	 cmp	 DWORD PTR $T193608[ebp], 0
  000b3	74 1b		 je	 SHORT $L193610
  000b5	8b f4		 mov	 esi, esp
  000b7	6a 01		 push	 1
  000b9	8b 55 ec	 mov	 edx, DWORD PTR $T193608[ebp]
  000bc	8b 02		 mov	 eax, DWORD PTR [edx]
  000be	8b 4d ec	 mov	 ecx, DWORD PTR $T193608[ebp]
  000c1	ff 50 04	 call	 DWORD PTR [eax+4]
  000c4	3b f4		 cmp	 esi, esp
  000c6	e8 00 00 00 00	 call	 __RTC_CheckEsp
  000cb	89 45 e4	 mov	 DWORD PTR tv134[ebp], eax
  000ce	eb 07		 jmp	 SHORT $L193611
$L193610:
  000d0	c7 45 e4 00 00
	00 00		 mov	 DWORD PTR tv134[ebp], 0
$L193611:

; 85   : 			mpBitmap = NULL;

  000d7	8b 4d f0	 mov	 ecx, DWORD PTR _this$[ebp]
  000da	c7 41 10 00 00
	00 00		 mov	 DWORD PTR [ecx+16], 0
$L107046:

; 86   : 		}
; 87   : 	}

  000e1	c7 45 fc ff ff
	ff ff		 mov	 DWORD PTR __$EHRec$[ebp+8], -1
  000e8	8b 4d f0	 mov	 ecx, DWORD PTR _this$[ebp]
  000eb	e8 00 00 00 00	 call	 ??1CDC@@UAE@XZ		; CDC::~CDC
  000f0	8b 4d f4	 mov	 ecx, DWORD PTR __$EHRec$[ebp]
  000f3	64 89 0d 00 00
	00 00		 mov	 DWORD PTR fs:__except_list, ecx
  000fa	5e		 pop	 esi
  000fb	83 c4 1c	 add	 esp, 28			; 0000001cH
  000fe	3b ec		 cmp	 ebp, esp
  00100	e8 00 00 00 00	 call	 __RTC_CheckEsp
  00105	8b e5		 mov	 esp, ebp
  00107	5d		 pop	 ebp
  00108	c3		 ret	 0
_TEXT	ENDS
;	COMDAT text$x
text$x	SEGMENT
$L193612:
  00000	8b 4d f0	 mov	 ecx, DWORD PTR _this$[ebp]
  00003	e9 00 00 00 00	 jmp	 ??1CDC@@UAE@XZ		; CDC::~CDC
__ehhandler$??1CMemDC@@UAE@XZ:
  00008	b8 00 00 00 00	 mov	 eax, OFFSET FLAT:$T193614
  0000d	e9 00 00 00 00	 jmp	 ___CxxFrameHandler
text$x	ENDS
??1CMemDC@@UAE@XZ ENDP					; CMemDC::~CMemDC
; Function compile flags: /Odt /RTCsu
;	COMDAT ??_GCMemDC@@UAEPAXI@Z
_TEXT	SEGMENT
_this$ = -4						; size = 4
___flags$ = 8						; size = 4
??_GCMemDC@@UAEPAXI@Z PROC NEAR				; CMemDC::`scalar deleting destructor', COMDAT
; _this$ = ecx
  00000	55		 push	 ebp
  00001	8b ec		 mov	 ebp, esp
  00003	51		 push	 ecx
  00004	c7 45 fc cc cc
	cc cc		 mov	 DWORD PTR [ebp-4], -858993460 ; ccccccccH
  0000b	89 4d fc	 mov	 DWORD PTR _this$[ebp], ecx
  0000e	8b 4d fc	 mov	 ecx, DWORD PTR _this$[ebp]
  00011	e8 00 00 00 00	 call	 ??1CMemDC@@UAE@XZ	; CMemDC::~CMemDC
  00016	8b 45 08	 mov	 eax, DWORD PTR ___flags$[ebp]
  00019	83 e0 01	 and	 eax, 1
  0001c	74 09		 je	 SHORT $L107056
  0001e	8b 4d fc	 mov	 ecx, DWORD PTR _this$[ebp]
  00021	51		 push	 ecx
  00022	e8 00 00 00 00	 call	 ??3CObject@@SGXPAX@Z	; CObject::operator delete
$L107056:
  00027	8b 45 fc	 mov	 eax, DWORD PTR _this$[ebp]
  0002a	83 c4 04	 add	 esp, 4
  0002d	3b ec		 cmp	 ebp, esp
  0002f	e8 00 00 00 00	 call	 __RTC_CheckEsp
  00034	8b e5		 mov	 esp, ebp
  00036	5d		 pop	 ebp
  00037	c2 04 00	 ret	 4
??_GCMemDC@@UAEPAXI@Z ENDP				; CMemDC::`scalar deleting destructor'
; Function compile flags: /Odt /RTCsu
; File d:\program files (x86)\microsoft visual studio .net 2003\vc7\atlmfc\include\afxplex_.h
_TEXT	ENDS
;	COMDAT ?data@CPlex@@QAEPAXXZ
text$AFX_COL1	SEGMENT
_this$ = -4						; size = 4
?data@CPlex@@QAEPAXXZ PROC NEAR				; CPlex::data, COMDAT
; _this$ = ecx

; 40   : 	void* data() { return this+1; }

  00000	55		 push	 ebp
  00001	8b ec		 mov	 ebp, esp
  00003	51		 push	 ecx
  00004	c7 45 fc cc cc
	cc cc		 mov	 DWORD PTR [ebp-4], -858993460 ; ccccccccH
  0000b	89 4d fc	 mov	 DWORD PTR _this$[ebp], ecx
  0000e	8b 45 fc	 mov	 eax, DWORD PTR _this$[ebp]
  00011	83 c0 04	 add	 eax, 4
  00014	8b e5		 mov	 esp, ebp
  00016	5d		 pop	 ebp
  00017	c3		 ret	 0
?data@CPlex@@QAEPAXXZ ENDP				; CPlex::data
text$AFX_COL1	ENDS
END
