; Listing generated by Microsoft (R) Optimizing Compiler Version 13.10.3077 

	TITLE	.\src\LayoutMgr\ETSPaneMulti.cpp
	.386P
include listing.inc
if @Version gt 510
.model FLAT
else
_TEXT	SEGMENT PARA USE32 PUBLIC 'CODE'
_TEXT	ENDS
_DATA	SEGMENT DWORD USE32 PUBLIC 'DATA'
_DATA	ENDS
CONST	SEGMENT DWORD USE32 PUBLIC 'CONST'
CONST	ENDS
_BSS	SEGMENT DWORD USE32 PUBLIC 'BSS'
_BSS	ENDS
$$SYMBOLS	SEGMENT BYTE USE32 'DEBSYM'
$$SYMBOLS	ENDS
_TLS	SEGMENT DWORD USE32 PUBLIC 'TLS'
_TLS	ENDS
;	COMDAT ??_C@_02PGHGPEOM@?91?$AA@
CONST	SEGMENT DWORD USE32 PUBLIC 'CONST'
CONST	ENDS
;	COMDAT ??_C@_0EN@IBFBLEEG@D?3?2Program?5Files?5?$CIx86?$CJ?2Microsoft@
CONST	SEGMENT DWORD USE32 PUBLIC 'CONST'
CONST	ENDS
;	COMDAT ??_C@_0BI@GIMJKKKN@AtlIsValidString?$CI?5psz?5?$CJ?$AA@
CONST	SEGMENT DWORD USE32 PUBLIC 'CONST'
CONST	ENDS
rdata$r	SEGMENT DWORD USE32 PUBLIC 'CONST'
rdata$r	ENDS
xdata$x	SEGMENT DWORD USE32 PUBLIC 'CONST'
xdata$x	ENDS
text$AFX_COL1	SEGMENT PARA USE32 PUBLIC ''
text$AFX_COL1	ENDS
text$yc	SEGMENT PARA USE32 PUBLIC 'CODE'
text$yc	ENDS
CRT$XCA	SEGMENT DWORD USE32 PUBLIC 'DATA'
CRT$XCA	ENDS
CRT$XCU	SEGMENT DWORD USE32 PUBLIC 'DATA'
CRT$XCU	ENDS
CRT$XCL	SEGMENT DWORD USE32 PUBLIC 'DATA'
CRT$XCL	ENDS
CRT$XCC	SEGMENT DWORD USE32 PUBLIC 'DATA'
CRT$XCC	ENDS
CRT$XCZ	SEGMENT DWORD USE32 PUBLIC 'DATA'
CRT$XCZ	ENDS
text$yd	SEGMENT PARA USE32 PUBLIC 'CODE'
text$yd	ENDS
ATL$__m	SEGMENT DWORD USE32 PUBLIC ''
ATL$__m	ENDS
ATL$__z	SEGMENT DWORD USE32 PUBLIC ''
ATL$__z	ENDS
ATL$__a	SEGMENT DWORD USE32 PUBLIC ''
ATL$__a	ENDS
;	COMDAT ?GetSubPane@PaneBase@ETSLayoutMgr@@UAE?AVCPaneBase@2@V?$CStringT@DV?$StrTraitMFC_DLL@DV?$ChTraitsCRT@D@ATL@@@@@ATL@@@Z
_TEXT	SEGMENT PARA USE32 PUBLIC 'CODE'
_TEXT	ENDS
;	COMDAT ??1PaneBase@ETSLayoutMgr@@UAE@XZ
_TEXT	SEGMENT PARA USE32 PUBLIC 'CODE'
_TEXT	ENDS
;	COMDAT ?showPane@PaneBase@ETSLayoutMgr@@UAEX_N@Z
_TEXT	SEGMENT PARA USE32 PUBLIC 'CODE'
_TEXT	ENDS
;	COMDAT ?IsValid@CPaneBase@ETSLayoutMgr@@QAE_NXZ
_TEXT	SEGMENT PARA USE32 PUBLIC 'CODE'
_TEXT	ENDS
;	COMDAT ?GetRect@ETSLayoutMgr@@UAE?AVCRect@@XZ
_TEXT	SEGMENT PARA USE32 PUBLIC 'CODE'
_TEXT	ENDS
;	COMDAT ?UpdateLayout@ETSLayoutMgr@@UAEXVCPane@1@@Z
_TEXT	SEGMENT PARA USE32 PUBLIC 'CODE'
_TEXT	ENDS
;	COMDAT ??_GPaneBase@ETSLayoutMgr@@UAEPAXI@Z
_TEXT	SEGMENT PARA USE32 PUBLIC 'CODE'
_TEXT	ENDS
;	COMDAT ??_GETSLayoutMgr@@UAEPAXI@Z
_TEXT	SEGMENT PARA USE32 PUBLIC 'CODE'
_TEXT	ENDS
;	COMDAT ??_GPaneMulti@ETSLayoutMgr@@UAEPAXI@Z
_TEXT	SEGMENT PARA USE32 PUBLIC 'CODE'
_TEXT	ENDS
;	COMDAT ??1PaneMulti@ETSLayoutMgr@@UAE@XZ
_TEXT	SEGMENT PARA USE32 PUBLIC 'CODE'
_TEXT	ENDS
;	COMDAT ??B?$CComPtrBase@UITypeInfo2@@@ATL@@QBEPAUITypeInfo2@@XZ
_TEXT	SEGMENT PARA USE32 PUBLIC 'CODE'
_TEXT	ENDS
;	COMDAT ?equal@?$istreambuf_iterator@DU?$char_traits@D@std@@@std@@QBE_NABV12@@Z
_TEXT	SEGMENT PARA USE32 PUBLIC 'CODE'
_TEXT	ENDS
;	COMDAT ?equal@?$istreambuf_iterator@_WU?$char_traits@_W@std@@@std@@QBE_NABV12@@Z
_TEXT	SEGMENT PARA USE32 PUBLIC 'CODE'
_TEXT	ENDS
;	COMDAT ?Unlock@?$CComCritSecLock@VCComCriticalSection@ATL@@@ATL@@QAEXXZ
_TEXT	SEGMENT PARA USE32 PUBLIC 'CODE'
_TEXT	ENDS
;	COMDAT ??0?$CArray@MM@@QAE@XZ
_TEXT	SEGMENT PARA USE32 PUBLIC 'CODE'
_TEXT	ENDS
;	COMDAT ??1?$CArray@MM@@UAE@XZ
_TEXT	SEGMENT PARA USE32 PUBLIC 'CODE'
_TEXT	ENDS
;	COMDAT ?Serialize@?$CArray@MM@@UAEXAAVCArchive@@@Z
_TEXT	SEGMENT PARA USE32 PUBLIC 'CODE'
_TEXT	ENDS
;	COMDAT ?Dump@?$CArray@MM@@UBEXAAVCDumpContext@@@Z
_TEXT	SEGMENT PARA USE32 PUBLIC 'CODE'
_TEXT	ENDS
;	COMDAT ?AssertValid@?$CArray@MM@@UBEXXZ
_TEXT	SEGMENT PARA USE32 PUBLIC 'CODE'
_TEXT	ENDS
;	COMDAT ??1?$CArray@VCPaneBase@ETSLayoutMgr@@V12@@@UAE@XZ
_TEXT	SEGMENT PARA USE32 PUBLIC 'CODE'
_TEXT	ENDS
;	COMDAT ?Serialize@?$CArray@VCPaneBase@ETSLayoutMgr@@V12@@@UAEXAAVCArchive@@@Z
_TEXT	SEGMENT PARA USE32 PUBLIC 'CODE'
_TEXT	ENDS
;	COMDAT ?Dump@?$CArray@VCPaneBase@ETSLayoutMgr@@V12@@@UBEXAAVCDumpContext@@@Z
_TEXT	SEGMENT PARA USE32 PUBLIC 'CODE'
_TEXT	ENDS
;	COMDAT ?AssertValid@?$CArray@VCPaneBase@ETSLayoutMgr@@V12@@@UBEXXZ
_TEXT	SEGMENT PARA USE32 PUBLIC 'CODE'
_TEXT	ENDS
;	COMDAT ??0?$CMap@V?$CStringT@DV?$StrTraitMFC_DLL@DV?$ChTraitsCRT@D@ATL@@@@@ATL@@PBDVCPaneBase@ETSLayoutMgr@@V34@@@QAE@H@Z
_TEXT	SEGMENT PARA USE32 PUBLIC 'CODE'
_TEXT	ENDS
;	COMDAT ??1?$CMap@V?$CStringT@DV?$StrTraitMFC_DLL@DV?$ChTraitsCRT@D@ATL@@@@@ATL@@PBDVCPaneBase@ETSLayoutMgr@@V34@@@UAE@XZ
_TEXT	SEGMENT PARA USE32 PUBLIC 'CODE'
_TEXT	ENDS
;	COMDAT ?Serialize@?$CMap@V?$CStringT@DV?$StrTraitMFC_DLL@DV?$ChTraitsCRT@D@ATL@@@@@ATL@@PBDVCPaneBase@ETSLayoutMgr@@V34@@@UAEXAAVCArchive@@@Z
_TEXT	SEGMENT PARA USE32 PUBLIC 'CODE'
_TEXT	ENDS
;	COMDAT ?Dump@?$CMap@V?$CStringT@DV?$StrTraitMFC_DLL@DV?$ChTraitsCRT@D@ATL@@@@@ATL@@PBDVCPaneBase@ETSLayoutMgr@@V34@@@UBEXAAVCDumpContext@@@Z
_TEXT	SEGMENT PARA USE32 PUBLIC 'CODE'
_TEXT	ENDS
;	COMDAT ?AssertValid@?$CMap@V?$CStringT@DV?$StrTraitMFC_DLL@DV?$ChTraitsCRT@D@ATL@@@@@ATL@@PBDVCPaneBase@ETSLayoutMgr@@V34@@@UBEXXZ
_TEXT	SEGMENT PARA USE32 PUBLIC 'CODE'
_TEXT	ENDS
;	COMDAT ??$_Maklocstr@D@std@@YAPADPBDPADABU_Cvtvec@@@Z
_TEXT	SEGMENT PARA USE32 PUBLIC 'CODE'
_TEXT	ENDS
;	COMDAT ??_G?$CArray@MM@@UAEPAXI@Z
_TEXT	SEGMENT PARA USE32 PUBLIC 'CODE'
_TEXT	ENDS
;	COMDAT ??_G?$CArray@VCPaneBase@ETSLayoutMgr@@V12@@@UAEPAXI@Z
_TEXT	SEGMENT PARA USE32 PUBLIC 'CODE'
_TEXT	ENDS
;	COMDAT ??_GCPaneBase@ETSLayoutMgr@@QAEPAXI@Z
_TEXT	SEGMENT PARA USE32 PUBLIC 'CODE'
_TEXT	ENDS
;	COMDAT ??_G?$CMap@V?$CStringT@DV?$StrTraitMFC_DLL@DV?$ChTraitsCRT@D@ATL@@@@@ATL@@PBDVCPaneBase@ETSLayoutMgr@@V34@@@UAEPAXI@Z
_TEXT	SEGMENT PARA USE32 PUBLIC 'CODE'
_TEXT	ENDS
;	COMDAT ?SetSize@?$CArray@MM@@QAEXHH@Z
_TEXT	SEGMENT PARA USE32 PUBLIC 'CODE'
_TEXT	ENDS
;	COMDAT ??$SerializeElements@M@@YGXAAVCArchive@@PAMH@Z
_TEXT	SEGMENT PARA USE32 PUBLIC 'CODE'
_TEXT	ENDS
;	COMDAT ??$DumpElements@M@@YGXAAVCDumpContext@@PBMH@Z
_TEXT	SEGMENT PARA USE32 PUBLIC 'CODE'
_TEXT	ENDS
;	COMDAT ?SetSize@?$CArray@VCPaneBase@ETSLayoutMgr@@V12@@@QAEXHH@Z
_TEXT	SEGMENT PARA USE32 PUBLIC 'CODE'
_TEXT	ENDS
;	COMDAT ??$SerializeElements@VCPaneBase@ETSLayoutMgr@@@@YGXAAVCArchive@@PAVCPaneBase@ETSLayoutMgr@@H@Z
_TEXT	SEGMENT PARA USE32 PUBLIC 'CODE'
_TEXT	ENDS
;	COMDAT ??$DumpElements@VCPaneBase@ETSLayoutMgr@@@@YGXAAVCDumpContext@@PBVCPaneBase@ETSLayoutMgr@@H@Z
_TEXT	SEGMENT PARA USE32 PUBLIC 'CODE'
_TEXT	ENDS
;	COMDAT ?SetAt@?$CMap@V?$CStringT@DV?$StrTraitMFC_DLL@DV?$ChTraitsCRT@D@ATL@@@@@ATL@@PBDVCPaneBase@ETSLayoutMgr@@V34@@@QAEXPBDVCPaneBase@ETSLayoutMgr@@@Z
_TEXT	SEGMENT PARA USE32 PUBLIC 'CODE'
_TEXT	ENDS
;	COMDAT ?RemoveAll@?$CMap@V?$CStringT@DV?$StrTraitMFC_DLL@DV?$ChTraitsCRT@D@ATL@@@@@ATL@@PBDVCPaneBase@ETSLayoutMgr@@V34@@@QAEXXZ
_TEXT	SEGMENT PARA USE32 PUBLIC 'CODE'
_TEXT	ENDS
;	COMDAT ?GetStartPosition@?$CMap@V?$CStringT@DV?$StrTraitMFC_DLL@DV?$ChTraitsCRT@D@ATL@@@@@ATL@@PBDVCPaneBase@ETSLayoutMgr@@V34@@@QBEPAU__POSITION@@XZ
_TEXT	SEGMENT PARA USE32 PUBLIC 'CODE'
_TEXT	ENDS
;	COMDAT ?GetNextAssoc@?$CMap@V?$CStringT@DV?$StrTraitMFC_DLL@DV?$ChTraitsCRT@D@ATL@@@@@ATL@@PBDVCPaneBase@ETSLayoutMgr@@V34@@@QBEXAAPAU__POSITION@@AAV?$CStringT@DV?$StrTraitMFC_DLL@DV?$ChTraitsCRT@D@ATL@@@@@ATL@@AAVCPaneBase@ETSLayoutMgr@@@Z
_TEXT	SEGMENT PARA USE32 PUBLIC 'CODE'
_TEXT	ENDS
;	COMDAT ??$DumpElements@V?$CStringT@DV?$StrTraitMFC_DLL@DV?$ChTraitsCRT@D@ATL@@@@@ATL@@@@YGXAAVCDumpContext@@PBV?$CStringT@DV?$StrTraitMFC_DLL@DV?$ChTraitsCRT@D@ATL@@@@@ATL@@H@Z
_TEXT	SEGMENT PARA USE32 PUBLIC 'CODE'
_TEXT	ENDS
;	COMDAT ??1CAssoc@?$CMap@V?$CStringT@DV?$StrTraitMFC_DLL@DV?$ChTraitsCRT@D@ATL@@@@@ATL@@PBDVCPaneBase@ETSLayoutMgr@@V34@@@QAE@XZ
_TEXT	SEGMENT PARA USE32 PUBLIC 'CODE'
_TEXT	ENDS
;	COMDAT ??1CPair@?$CMap@V?$CStringT@DV?$StrTraitMFC_DLL@DV?$ChTraitsCRT@D@ATL@@@@@ATL@@PBDVCPaneBase@ETSLayoutMgr@@V34@@@QAE@XZ
_TEXT	SEGMENT PARA USE32 PUBLIC 'CODE'
_TEXT	ENDS
;	COMDAT ??A?$CMap@V?$CStringT@DV?$StrTraitMFC_DLL@DV?$ChTraitsCRT@D@ATL@@@@@ATL@@PBDVCPaneBase@ETSLayoutMgr@@V34@@@QAEAAVCPaneBase@ETSLayoutMgr@@PBD@Z
_TEXT	SEGMENT PARA USE32 PUBLIC 'CODE'
_TEXT	ENDS
;	COMDAT ?InitHashTable@?$CMap@V?$CStringT@DV?$StrTraitMFC_DLL@DV?$ChTraitsCRT@D@ATL@@@@@ATL@@PBDVCPaneBase@ETSLayoutMgr@@V34@@@QAEXIH@Z
_TEXT	SEGMENT PARA USE32 PUBLIC 'CODE'
_TEXT	ENDS
;	COMDAT ?NewAssoc@?$CMap@V?$CStringT@DV?$StrTraitMFC_DLL@DV?$ChTraitsCRT@D@ATL@@@@@ATL@@PBDVCPaneBase@ETSLayoutMgr@@V34@@@IAEPAVCAssoc@1@PBD@Z
_TEXT	SEGMENT PARA USE32 PUBLIC 'CODE'
_TEXT	ENDS
;	COMDAT ?GetAssocAt@?$CMap@V?$CStringT@DV?$StrTraitMFC_DLL@DV?$ChTraitsCRT@D@ATL@@@@@ATL@@PBDVCPaneBase@ETSLayoutMgr@@V34@@@IBEPAVCAssoc@1@PBDAAI1@Z
_TEXT	SEGMENT PARA USE32 PUBLIC 'CODE'
_TEXT	ENDS
;	COMDAT ??0CAssoc@?$CMap@V?$CStringT@DV?$StrTraitMFC_DLL@DV?$ChTraitsCRT@D@ATL@@@@@ATL@@PBDVCPaneBase@ETSLayoutMgr@@V34@@@QAE@PBD@Z
_TEXT	SEGMENT PARA USE32 PUBLIC 'CODE'
_TEXT	ENDS
;	COMDAT ??0CPair@?$CMap@V?$CStringT@DV?$StrTraitMFC_DLL@DV?$ChTraitsCRT@D@ATL@@@@@ATL@@PBDVCPaneBase@ETSLayoutMgr@@V34@@@IAE@PBD@Z
_TEXT	SEGMENT PARA USE32 PUBLIC 'CODE'
_TEXT	ENDS
;	COMDAT ??$CompareElements@V?$CStringT@DV?$StrTraitMFC_DLL@DV?$ChTraitsCRT@D@ATL@@@@@ATL@@PBD@@YGHPBV?$CStringT@DV?$StrTraitMFC_DLL@DV?$ChTraitsCRT@D@ATL@@@@@ATL@@PBQBD@Z
_TEXT	SEGMENT PARA USE32 PUBLIC 'CODE'
_TEXT	ENDS
;	COMDAT ??8ATL@@YA_NABV?$CStringT@DV?$StrTraitMFC_DLL@DV?$ChTraitsCRT@D@ATL@@@@@0@PBD@Z
_TEXT	SEGMENT PARA USE32 PUBLIC 'CODE'
_TEXT	ENDS
;	COMDAT ?StringCompare@?$ChTraitsCRT@D@ATL@@SAHPBD0@Z
_TEXT	SEGMENT PARA USE32 PUBLIC 'CODE'
_TEXT	ENDS
;	COMDAT ??_R3ETSLayoutMgr@@8
rdata$r	SEGMENT DWORD USE32 PUBLIC 'CONST'
rdata$r	ENDS
;	COMDAT ??_R3?$CMap@V?$CStringT@DV?$StrTraitMFC_DLL@DV?$ChTraitsCRT@D@ATL@@@@@ATL@@PBDVCPaneBase@ETSLayoutMgr@@V34@@@8
rdata$r	SEGMENT DWORD USE32 PUBLIC 'CONST'
rdata$r	ENDS
;	COMDAT ??_R3?$numpunct@_W@std@@8
rdata$r	SEGMENT DWORD USE32 PUBLIC 'CONST'
rdata$r	ENDS
;	COMDAT ??_R3?$numpunct@D@std@@8
rdata$r	SEGMENT DWORD USE32 PUBLIC 'CONST'
rdata$r	ENDS
;	COMDAT ??_R3?$CArray@VCPaneBase@ETSLayoutMgr@@V12@@@8
rdata$r	SEGMENT DWORD USE32 PUBLIC 'CONST'
rdata$r	ENDS
;	COMDAT ??_R3?$CArray@MM@@8
rdata$r	SEGMENT DWORD USE32 PUBLIC 'CONST'
rdata$r	ENDS
;	COMDAT ??_R3PaneMulti@ETSLayoutMgr@@8
rdata$r	SEGMENT DWORD USE32 PUBLIC 'CONST'
rdata$r	ENDS
;	COMDAT ??_R3PaneBase@ETSLayoutMgr@@8
rdata$r	SEGMENT DWORD USE32 PUBLIC 'CONST'
rdata$r	ENDS
;	COMDAT ??_R2ETSLayoutMgr@@8
rdata$r	SEGMENT DWORD USE32 PUBLIC 'CONST'
rdata$r	ENDS
;	COMDAT ??_R2?$CMap@V?$CStringT@DV?$StrTraitMFC_DLL@DV?$ChTraitsCRT@D@ATL@@@@@ATL@@PBDVCPaneBase@ETSLayoutMgr@@V34@@@8
rdata$r	SEGMENT DWORD USE32 PUBLIC 'CONST'
rdata$r	ENDS
;	COMDAT ??_R2?$numpunct@_W@std@@8
rdata$r	SEGMENT DWORD USE32 PUBLIC 'CONST'
rdata$r	ENDS
;	COMDAT ??_R2?$numpunct@D@std@@8
rdata$r	SEGMENT DWORD USE32 PUBLIC 'CONST'
rdata$r	ENDS
;	COMDAT ??_R2?$CArray@VCPaneBase@ETSLayoutMgr@@V12@@@8
rdata$r	SEGMENT DWORD USE32 PUBLIC 'CONST'
rdata$r	ENDS
;	COMDAT ??_R2?$CArray@MM@@8
rdata$r	SEGMENT DWORD USE32 PUBLIC 'CONST'
rdata$r	ENDS
;	COMDAT ??_R2PaneMulti@ETSLayoutMgr@@8
rdata$r	SEGMENT DWORD USE32 PUBLIC 'CONST'
rdata$r	ENDS
;	COMDAT ??_R2PaneBase@ETSLayoutMgr@@8
rdata$r	SEGMENT DWORD USE32 PUBLIC 'CONST'
rdata$r	ENDS
;	COMDAT ??_R1A@?0A@A@ETSLayoutMgr@@8
rdata$r	SEGMENT DWORD USE32 PUBLIC 'CONST'
rdata$r	ENDS
;	COMDAT ??_R1A@?0A@A@?$CMap@V?$CStringT@DV?$StrTraitMFC_DLL@DV?$ChTraitsCRT@D@ATL@@@@@ATL@@PBDVCPaneBase@ETSLayoutMgr@@V34@@@8
rdata$r	SEGMENT DWORD USE32 PUBLIC 'CONST'
rdata$r	ENDS
;	COMDAT ??_R1A@?0A@A@?$numpunct@_W@std@@8
rdata$r	SEGMENT DWORD USE32 PUBLIC 'CONST'
rdata$r	ENDS
;	COMDAT ??_R1A@?0A@A@facet@locale@std@@8
rdata$r	SEGMENT DWORD USE32 PUBLIC 'CONST'
rdata$r	ENDS
;	COMDAT ??_R0?AVfacet@locale@std@@@8
_DATA	SEGMENT DWORD USE32 PUBLIC 'DATA'
_DATA	ENDS
;	COMDAT ??_R1A@?0A@A@?$numpunct@D@std@@8
rdata$r	SEGMENT DWORD USE32 PUBLIC 'CONST'
rdata$r	ENDS
;	COMDAT ??_R1A@?0A@A@?$CArray@VCPaneBase@ETSLayoutMgr@@V12@@@8
rdata$r	SEGMENT DWORD USE32 PUBLIC 'CONST'
rdata$r	ENDS
;	COMDAT ??_R1A@?0A@A@CObject@@8
rdata$r	SEGMENT DWORD USE32 PUBLIC 'CONST'
rdata$r	ENDS
;	COMDAT ??_R0?AVCObject@@@8
_DATA	SEGMENT DWORD USE32 PUBLIC 'DATA'
_DATA	ENDS
;	COMDAT ??_R1A@?0A@A@?$CArray@MM@@8
rdata$r	SEGMENT DWORD USE32 PUBLIC 'CONST'
rdata$r	ENDS
;	COMDAT ??_R1A@?0A@A@Pane@ETSLayoutMgr@@8
rdata$r	SEGMENT DWORD USE32 PUBLIC 'CONST'
rdata$r	ENDS
;	COMDAT ??_R1A@?0A@A@PaneMulti@ETSLayoutMgr@@8
rdata$r	SEGMENT DWORD USE32 PUBLIC 'CONST'
rdata$r	ENDS
;	COMDAT ??_R1A@?0A@A@PaneBase@ETSLayoutMgr@@8
rdata$r	SEGMENT DWORD USE32 PUBLIC 'CONST'
rdata$r	ENDS
;	COMDAT ??_R0?AVETSLayoutMgr@@@8
_DATA	SEGMENT DWORD USE32 PUBLIC 'DATA'
_DATA	ENDS
;	COMDAT ??_R0?AV?$CMap@V?$CStringT@DV?$StrTraitMFC_DLL@DV?$ChTraitsCRT@D@ATL@@@@@ATL@@PBDVCPaneBase@ETSLayoutMgr@@V34@@@@8
_DATA	SEGMENT DWORD USE32 PUBLIC 'DATA'
_DATA	ENDS
;	COMDAT ??_R0?AV?$numpunct@_W@std@@@8
_DATA	SEGMENT DWORD USE32 PUBLIC 'DATA'
_DATA	ENDS
;	COMDAT ??_R0?AV?$numpunct@D@std@@@8
_DATA	SEGMENT DWORD USE32 PUBLIC 'DATA'
_DATA	ENDS
;	COMDAT ??_R0?AV?$CArray@VCPaneBase@ETSLayoutMgr@@V12@@@@8
_DATA	SEGMENT DWORD USE32 PUBLIC 'DATA'
_DATA	ENDS
;	COMDAT ??_R0?AV?$CArray@MM@@@8
_DATA	SEGMENT DWORD USE32 PUBLIC 'DATA'
_DATA	ENDS
;	COMDAT ??_R0?AVPane@ETSLayoutMgr@@@8
_DATA	SEGMENT DWORD USE32 PUBLIC 'DATA'
_DATA	ENDS
;	COMDAT ??_R0?AVPaneMulti@ETSLayoutMgr@@@8
_DATA	SEGMENT DWORD USE32 PUBLIC 'DATA'
_DATA	ENDS
;	COMDAT ??_R0?AVPaneBase@ETSLayoutMgr@@@8
_DATA	SEGMENT DWORD USE32 PUBLIC 'DATA'
_DATA	ENDS
;	COMDAT ??_R4ETSLayoutMgr@@6B@
rdata$r	SEGMENT DWORD USE32 PUBLIC 'CONST'
rdata$r	ENDS
;	COMDAT ??_R4?$CMap@V?$CStringT@DV?$StrTraitMFC_DLL@DV?$ChTraitsCRT@D@ATL@@@@@ATL@@PBDVCPaneBase@ETSLayoutMgr@@V34@@@6B@
rdata$r	SEGMENT DWORD USE32 PUBLIC 'CONST'
rdata$r	ENDS
;	COMDAT ??0?$allocator@_W@std@@QAE@XZ
_TEXT	SEGMENT PARA USE32 PUBLIC 'CODE'
_TEXT	ENDS
;	COMDAT ??0?$allocator@D@std@@QAE@ABV01@@Z
_TEXT	SEGMENT PARA USE32 PUBLIC 'CODE'
_TEXT	ENDS
;	COMDAT ??0?$allocator@D@std@@QAE@XZ
_TEXT	SEGMENT PARA USE32 PUBLIC 'CODE'
_TEXT	ENDS
;	COMDAT ?deallocate@?$allocator@D@std@@QAEXPADI@Z
_TEXT	SEGMENT PARA USE32 PUBLIC 'CODE'
_TEXT	ENDS
;	COMDAT ?max_size@?$allocator@D@std@@QBEIXZ
_TEXT	SEGMENT PARA USE32 PUBLIC 'CODE'
_TEXT	ENDS
;	COMDAT ?allocate@?$allocator@D@std@@QAEPADI@Z
_TEXT	SEGMENT PARA USE32 PUBLIC 'CODE'
_TEXT	ENDS
;	COMDAT ??$_Allocate@D@std@@YAPADIPAD@Z
_TEXT	SEGMENT PARA USE32 PUBLIC 'CODE'
_TEXT	ENDS
;	COMDAT ??_G?$numpunct@_W@std@@MAEPAXI@Z
_TEXT	SEGMENT PARA USE32 PUBLIC 'CODE'
_TEXT	ENDS
;	COMDAT ??_R4?$numpunct@_W@std@@6B@
rdata$r	SEGMENT DWORD USE32 PUBLIC 'CONST'
rdata$r	ENDS
;	COMDAT ??_G?$numpunct@D@std@@MAEPAXI@Z
_TEXT	SEGMENT PARA USE32 PUBLIC 'CODE'
_TEXT	ENDS
;	COMDAT ??_R4?$numpunct@D@std@@6B@
rdata$r	SEGMENT DWORD USE32 PUBLIC 'CONST'
rdata$r	ENDS
;	COMDAT ??_R4?$CArray@VCPaneBase@ETSLayoutMgr@@V12@@@6B@
rdata$r	SEGMENT DWORD USE32 PUBLIC 'CONST'
rdata$r	ENDS
;	COMDAT ??_R4?$CArray@MM@@6B@
rdata$r	SEGMENT DWORD USE32 PUBLIC 'CONST'
rdata$r	ENDS
;	COMDAT ??_R4PaneMulti@ETSLayoutMgr@@6B@
rdata$r	SEGMENT DWORD USE32 PUBLIC 'CONST'
rdata$r	ENDS
;	COMDAT ??_R4PaneBase@ETSLayoutMgr@@6B@
rdata$r	SEGMENT DWORD USE32 PUBLIC 'CONST'
rdata$r	ENDS
;	COMDAT ??_C@_0FH@KDPNIMBO@D?3?2Program?5Files?5?$CIx86?$CJ?2Microsoft@
CONST	SEGMENT DWORD USE32 PUBLIC 'CONST'
CONST	ENDS
;	COMDAT ?AtlIsValidString@ATL@@YAHPBDI@Z
_TEXT	SEGMENT PARA USE32 PUBLIC 'CODE'
_TEXT	ENDS
;	COMDAT ??_C@_0BA@GOIMFHNK@pStringMgr?5?$CB?$DN?50?$AA@
CONST	SEGMENT DWORD USE32 PUBLIC 'CONST'
CONST	ENDS
;	COMDAT ??_C@_0FJ@DMHPDOJC@D?3?2Program?5Files?5?$CIx86?$CJ?2Microsoft@
CONST	SEGMENT DWORD USE32 PUBLIC 'CONST'
CONST	ENDS
;	COMDAT ?data@CStringData@ATL@@QAEPAXXZ
_TEXT	SEGMENT PARA USE32 PUBLIC 'CODE'
_TEXT	ENDS
;	COMDAT ?GetDefaultManager@?$StrTraitMFC_DLL@DV?$ChTraitsCRT@D@ATL@@@@SAPAUIAtlStringMgr@ATL@@XZ
_TEXT	SEGMENT PARA USE32 PUBLIC 'CODE'
_TEXT	ENDS
;	COMDAT ?Release@CStringData@ATL@@QAEXXZ
_TEXT	SEGMENT PARA USE32 PUBLIC 'CODE'
_TEXT	ENDS
;	COMDAT ??_C@_0L@OIIMFBNE@nRefs?5?$CB?$DN?50?$AA@
CONST	SEGMENT DWORD USE32 PUBLIC 'CONST'
CONST	ENDS
;	COMDAT ?FindStringResourceInstance@?$StrTraitMFC_DLL@DV?$ChTraitsCRT@D@ATL@@@@SAPAUHINSTANCE__@@I@Z
_TEXT	SEGMENT PARA USE32 PUBLIC 'CODE'
_TEXT	ENDS
;	COMDAT ?AtlGetStringResourceImage@ATL@@YAPBUATLSTRINGRESOURCEIMAGE@1@PAUHINSTANCE__@@I@Z
_TEXT	SEGMENT PARA USE32 PUBLIC 'CODE'
_TEXT	ENDS
;	COMDAT ?_AtlGetStringResourceImage@ATL@@YAPBUATLSTRINGRESOURCEIMAGE@1@PAUHINSTANCE__@@PAUHRSRC__@@I@Z
_TEXT	SEGMENT PARA USE32 PUBLIC 'CODE'
_TEXT	ENDS
;	COMDAT ?GetBaseTypeLength@?$ChTraitsCRT@D@ATL@@SAHPB_WH@Z
_TEXT	SEGMENT PARA USE32 PUBLIC 'CODE'
_TEXT	ENDS
;	COMDAT ?_AtlGetConversionACP@ATL@@YGIXZ
_TEXT	SEGMENT PARA USE32 PUBLIC 'CODE'
_TEXT	ENDS
;	COMDAT ?g_pfnGetThreadACP@ATL@@3P6GIXZA
_DATA	SEGMENT DWORD USE32 PUBLIC 'DATA'
_DATA	ENDS
;	COMDAT ?_AtlGetThreadACPThunk@ATL@@YGIXZ
_TEXT	SEGMENT PARA USE32 PUBLIC 'CODE'
_TEXT	ENDS
;	COMDAT ?_AtlGetThreadACPReal@ATL@@YGIXZ
_TEXT	SEGMENT PARA USE32 PUBLIC 'CODE'
_TEXT	ENDS
;	COMDAT ?_AtlGetThreadACPFake@ATL@@YGIXZ
_TEXT	SEGMENT PARA USE32 PUBLIC 'CODE'
_TEXT	ENDS
;	COMDAT ?InterlockedExchangePointer@@YGPAXPAPAXPAX@Z
_TEXT	SEGMENT PARA USE32 PUBLIC 'CODE'
_TEXT	ENDS
;	COMDAT ?IsShared@CStringData@ATL@@QBE_NXZ
_TEXT	SEGMENT PARA USE32 PUBLIC 'CODE'
_TEXT	ENDS
;	COMDAT ?AtlThrow@ATL@@YGXJ@Z
_TEXT	SEGMENT PARA USE32 PUBLIC 'CODE'
_TEXT	ENDS
;	COMDAT ??_C@_0FI@NHHJANPC@D?3?2Program?5Files?5?$CIx86?$CJ?2Microsoft@
CONST	SEGMENT DWORD USE32 PUBLIC 'CONST'
CONST	ENDS
;	COMDAT ??_C@_0BF@IAAKIJDJ@AtlThrow?3?5hr?5?$DN?50x?$CFx?6?$AA@
CONST	SEGMENT DWORD USE32 PUBLIC 'CONST'
CONST	ENDS
;	COMDAT ??_C@_0CB@GFHAPKDK@pOldData?9?$DOnAllocLength?5?$DM?5nLength@
CONST	SEGMENT DWORD USE32 PUBLIC 'CONST'
CONST	ENDS
;	COMDAT ?ConvertToBaseType@?$ChTraitsCRT@D@ATL@@SAXPADHPB_WH@Z
_TEXT	SEGMENT PARA USE32 PUBLIC 'CODE'
_TEXT	ENDS
;	COMDAT ??_C@_0BA@GNIEOBOF@nNewLength?5?$DO?$DN?50?$AA@
CONST	SEGMENT DWORD USE32 PUBLIC 'CONST'
CONST	ENDS
;	COMDAT ??_C@_0N@ILOMLJGA@nLength?5?$DO?$DN?50?$AA@
CONST	SEGMENT DWORD USE32 PUBLIC 'CONST'
CONST	ENDS
;	COMDAT ??_C@_0CD@EEFFJEGJ@nLength?5?$DM?$DN?5GetData?$CI?$CJ?9?$DOnAllocLeng@
CONST	SEGMENT DWORD USE32 PUBLIC 'CONST'
CONST	ENDS
;	COMDAT ??RCTraceFileAndLineInfo@ATL@@QBAXKIPBDZZ
_TEXT	SEGMENT PARA USE32 PUBLIC 'CODE'
_TEXT	ENDS
;	COMDAT ?TraceV@CTrace@ATL@@QBAXPBDHKI0PAD@Z
_TEXT	SEGMENT PARA USE32 PUBLIC 'CODE'
_TEXT	ENDS
;	COMDAT ??0CTraceFileAndLineInfo@ATL@@QAE@PBDH@Z
_TEXT	SEGMENT PARA USE32 PUBLIC 'CODE'
_TEXT	ENDS
;	COMDAT ??_C@_0CJ@FJEKGMMD@Warning?3?5implicit?5LoadString?$CI?$CFu?$CJ@
CONST	SEGMENT DWORD USE32 PUBLIC 'CONST'
CONST	ENDS
;	COMDAT ??BCTraceCategory@ATL@@QBEKXZ
_TEXT	SEGMENT PARA USE32 PUBLIC 'CODE'
_TEXT	ENDS
;	COMDAT ?data@CPlex@@QAEPAXXZ
text$AFX_COL1	SEGMENT PARA USE32 PUBLIC ''
text$AFX_COL1	ENDS
;	COMDAT ??3@YAXPAX0@Z
_TEXT	SEGMENT PARA USE32 PUBLIC 'CODE'
_TEXT	ENDS
;	COMDAT ??2@YAPAXIPAX@Z
_TEXT	SEGMENT PARA USE32 PUBLIC 'CODE'
_TEXT	ENDS
;	COMDAT ??_C@_0EN@CBMLGOH@D?3?2Program?5Files?5?$CIx86?$CJ?2Microsoft@
CONST	SEGMENT DWORD USE32 PUBLIC 'CONST'
CONST	ENDS
;	COMDAT ??_7?$CMap@V?$CStringT@DV?$StrTraitMFC_DLL@DV?$ChTraitsCRT@D@ATL@@@@@ATL@@PBDVCPaneBase@ETSLayoutMgr@@V34@@@6B@
CONST	SEGMENT DWORD USE32 PUBLIC 'CONST'
CONST	ENDS
;	COMDAT ??_7?$CArray@VCPaneBase@ETSLayoutMgr@@V12@@@6B@
CONST	SEGMENT DWORD USE32 PUBLIC 'CONST'
CONST	ENDS
;	COMDAT ??_7?$CArray@MM@@6B@
CONST	SEGMENT DWORD USE32 PUBLIC 'CONST'
CONST	ENDS
;	COMDAT ?_Psave@?$_Facetptr@V?$numpunct@_W@std@@@std@@2PBVfacet@locale@2@B
_DATA	SEGMENT DWORD USE32 PUBLIC 'DATA'
_DATA	ENDS
;	COMDAT ?_Psave@?$_Facetptr@V?$numpunct@D@std@@@std@@2PBVfacet@locale@2@B
_DATA	SEGMENT DWORD USE32 PUBLIC 'DATA'
_DATA	ENDS
;	COMDAT ?Unlock@CComCriticalSection@ATL@@QAEJXZ
_TEXT	SEGMENT PARA USE32 PUBLIC 'CODE'
_TEXT	ENDS
;	COMDAT ??_C@_0FG@LDNDNCJM@D?3?2Program?5Files?5?$CIx86?$CJ?2Microsoft@
CONST	SEGMENT DWORD USE32 PUBLIC 'CONST'
CONST	ENDS
;	COMDAT ??_C@_09HIEJFN@m_bLocked?$AA@
CONST	SEGMENT DWORD USE32 PUBLIC 'CONST'
CONST	ENDS
;	COMDAT ?_Psave@?$_Facetptr@V?$ctype@_W@std@@@std@@2PBVfacet@locale@2@B
_DATA	SEGMENT DWORD USE32 PUBLIC 'DATA'
_DATA	ENDS
;	COMDAT ?_Psave@?$_Facetptr@V?$ctype@D@std@@@std@@2PBVfacet@locale@2@B
_DATA	SEGMENT DWORD USE32 PUBLIC 'DATA'
_DATA	ENDS
;	COMDAT ??$_Maklocchr@_W@std@@YA_WDPA_WABU_Cvtvec@@@Z
_TEXT	SEGMENT PARA USE32 PUBLIC 'CODE'
_TEXT	ENDS
;	COMDAT ??$_DebugHeapDelete@X@std@@YAXPAX@Z
_TEXT	SEGMENT PARA USE32 PUBLIC 'CODE'
_TEXT	ENDS
;	COMDAT ??$_Maklocstr@_W@std@@YAPA_WPBDPA_WABU_Cvtvec@@@Z
_TEXT	SEGMENT PARA USE32 PUBLIC 'CODE'
_TEXT	ENDS
;	COMDAT ??$_Maklocchr@D@std@@YADDPADABU_Cvtvec@@@Z
_TEXT	SEGMENT PARA USE32 PUBLIC 'CODE'
_TEXT	ENDS
;	COMDAT ??_C@_04LOAJBDKD@true?$AA@
CONST	SEGMENT DWORD USE32 PUBLIC 'CONST'
CONST	ENDS
;	COMDAT ??_C@_05LAPONLG@false?$AA@
CONST	SEGMENT DWORD USE32 PUBLIC 'CONST'
CONST	ENDS
;	COMDAT _wmemcpy
_TEXT	SEGMENT PARA USE32 PUBLIC 'CODE'
_TEXT	ENDS
;	COMDAT ?max_size@?$allocator@_W@std@@QBEIXZ
_TEXT	SEGMENT PARA USE32 PUBLIC 'CODE'
_TEXT	ENDS
;	COMDAT ?allocate@?$allocator@_W@std@@QAEPA_WI@Z
_TEXT	SEGMENT PARA USE32 PUBLIC 'CODE'
_TEXT	ENDS
;	COMDAT ??$_Allocate@_W@std@@YAPA_WIPA_W@Z
_TEXT	SEGMENT PARA USE32 PUBLIC 'CODE'
_TEXT	ENDS
;	COMDAT ??_C@_01GFHCPBMG@C?$AA@
CONST	SEGMENT DWORD USE32 PUBLIC 'CONST'
CONST	ENDS
;	COMDAT ?_Peek@?$istreambuf_iterator@_WU?$char_traits@_W@std@@@std@@AAE_WXZ
_TEXT	SEGMENT PARA USE32 PUBLIC 'CODE'
_TEXT	ENDS
;	COMDAT ?_Peek@?$istreambuf_iterator@DU?$char_traits@D@std@@@std@@AAEDXZ
_TEXT	SEGMENT PARA USE32 PUBLIC 'CODE'
_TEXT	ENDS
;	COMDAT ??$use_facet@V?$ctype@_W@std@@@std@@YAABV?$ctype@_W@0@ABVlocale@0@@Z
_TEXT	SEGMENT PARA USE32 PUBLIC 'CODE'
_TEXT	ENDS
;	COMDAT ??_S?$ctype@_W@std@@6B@
CONST	SEGMENT DWORD USE32 PUBLIC 'CONST'
CONST	ENDS
;	COMDAT ??_R4?$ctype@_W@std@@6B@
rdata$r	SEGMENT DWORD USE32 PUBLIC 'CONST'
rdata$r	ENDS
;	COMDAT ??_R0?AV?$ctype@_W@std@@@8
_DATA	SEGMENT DWORD USE32 PUBLIC 'DATA'
_DATA	ENDS
;	COMDAT ??_R3?$ctype@_W@std@@8
rdata$r	SEGMENT DWORD USE32 PUBLIC 'CONST'
rdata$r	ENDS
;	COMDAT ??_R2?$ctype@_W@std@@8
rdata$r	SEGMENT DWORD USE32 PUBLIC 'CONST'
rdata$r	ENDS
;	COMDAT ??_R1A@?0A@A@?$ctype@_W@std@@8
rdata$r	SEGMENT DWORD USE32 PUBLIC 'CONST'
rdata$r	ENDS
;	COMDAT ??_R1A@?0A@A@ctype_base@std@@8
rdata$r	SEGMENT DWORD USE32 PUBLIC 'CONST'
rdata$r	ENDS
;	COMDAT ??_R0?AUctype_base@std@@@8
_DATA	SEGMENT DWORD USE32 PUBLIC 'DATA'
_DATA	ENDS
;	COMDAT ??_G?$ctype@_W@std@@MAEPAXI@Z
_TEXT	SEGMENT PARA USE32 PUBLIC 'CODE'
_TEXT	ENDS
;	COMDAT ??_C@_08EPJLHIJG@bad?5cast?$AA@
CONST	SEGMENT DWORD USE32 PUBLIC 'CONST'
CONST	ENDS
;	COMDAT __TI2?AVbad_cast@@
xdata$x	SEGMENT DWORD USE32 PUBLIC 'CONST'
xdata$x	ENDS
;	COMDAT __CTA2?AVbad_cast@@
xdata$x	SEGMENT DWORD USE32 PUBLIC 'CONST'
xdata$x	ENDS
;	COMDAT __CT??_R0?AVbad_cast@@@8??0bad_cast@@QAE@ABV0@@Z12
xdata$x	SEGMENT DWORD USE32 PUBLIC 'CONST'
xdata$x	ENDS
;	COMDAT ??_R0?AVbad_cast@@@8
_DATA	SEGMENT DWORD USE32 PUBLIC 'DATA'
_DATA	ENDS
;	COMDAT __CT??_R0?AVexception@@@8??0exception@@QAE@ABV0@@Z12
xdata$x	SEGMENT DWORD USE32 PUBLIC 'CONST'
xdata$x	ENDS
;	COMDAT ??_R0?AVexception@@@8
_DATA	SEGMENT DWORD USE32 PUBLIC 'DATA'
_DATA	ENDS
;	COMDAT ??$_DebugHeapDelete@Vfacet@locale@std@@@std@@YAXPAVfacet@locale@0@@Z
_TEXT	SEGMENT PARA USE32 PUBLIC 'CODE'
_TEXT	ENDS
;	COMDAT ??$use_facet@V?$ctype@D@std@@@std@@YAABV?$ctype@D@0@ABVlocale@0@@Z
_TEXT	SEGMENT PARA USE32 PUBLIC 'CODE'
_TEXT	ENDS
;	COMDAT ??_S?$ctype@D@std@@6B@
CONST	SEGMENT DWORD USE32 PUBLIC 'CONST'
CONST	ENDS
;	COMDAT ??_R4?$ctype@D@std@@6B@
rdata$r	SEGMENT DWORD USE32 PUBLIC 'CONST'
rdata$r	ENDS
;	COMDAT ??_R0?AV?$ctype@D@std@@@8
_DATA	SEGMENT DWORD USE32 PUBLIC 'DATA'
_DATA	ENDS
;	COMDAT ??_R3?$ctype@D@std@@8
rdata$r	SEGMENT DWORD USE32 PUBLIC 'CONST'
rdata$r	ENDS
;	COMDAT ??_R2?$ctype@D@std@@8
rdata$r	SEGMENT DWORD USE32 PUBLIC 'CONST'
rdata$r	ENDS
;	COMDAT ??_R1A@?0A@A@?$ctype@D@std@@8
rdata$r	SEGMENT DWORD USE32 PUBLIC 'CONST'
rdata$r	ENDS
;	COMDAT ??_G?$ctype@D@std@@MAEPAXI@Z
_TEXT	SEGMENT PARA USE32 PUBLIC 'CODE'
_TEXT	ENDS
;	COMDAT ??_S?$numpunct@_W@std@@6B@
CONST	SEGMENT DWORD USE32 PUBLIC 'CONST'
CONST	ENDS
;	COMDAT ??_S?$numpunct@D@std@@6B@
CONST	SEGMENT DWORD USE32 PUBLIC 'CONST'
CONST	ENDS
;	COMDAT _wmemmove
_TEXT	SEGMENT PARA USE32 PUBLIC 'CODE'
_TEXT	ENDS
;	COMDAT ?deallocate@?$allocator@_W@std@@QAEXPA_WI@Z
_TEXT	SEGMENT PARA USE32 PUBLIC 'CODE'
_TEXT	ENDS
;	COMDAT ??0?$allocator@_W@std@@QAE@ABV01@@Z
_TEXT	SEGMENT PARA USE32 PUBLIC 'CODE'
_TEXT	ENDS
;	COMDAT ??_7PaneMulti@ETSLayoutMgr@@6B@
CONST	SEGMENT DWORD USE32 PUBLIC 'CONST'
CONST	ENDS
;	COMDAT ??_7ETSLayoutMgr@@6B@
CONST	SEGMENT DWORD USE32 PUBLIC 'CONST'
CONST	ENDS
;	COMDAT ?IsLocked@CStringData@ATL@@QBE_NXZ
_TEXT	SEGMENT PARA USE32 PUBLIC 'CODE'
_TEXT	ENDS
;	COMDAT ?AddRef@CStringData@ATL@@QAEXXZ
_TEXT	SEGMENT PARA USE32 PUBLIC 'CODE'
_TEXT	ENDS
;	COMDAT ??_C@_09EEBKLCFA@nRefs?5?$DO?50?$AA@
CONST	SEGMENT DWORD USE32 PUBLIC 'CONST'
CONST	ENDS
;	COMDAT ??_7PaneBase@ETSLayoutMgr@@6B@
CONST	SEGMENT DWORD USE32 PUBLIC 'CONST'
CONST	ENDS
sxdata	SEGMENT DWORD USE32 'SXDATA'
sxdata	ENDS
FLAT	GROUP _DATA, CONST, _BSS
	ASSUME	CS: FLAT, DS: FLAT, SS: FLAT
endif

INCLUDELIB MSVCRTD
INCLUDELIB OLDNAMES

PUBLIC	?g_pfnGetThreadACP@ATL@@3P6GIXZA		; ATL::g_pfnGetThreadACP
PUBLIC	?_AtlGetThreadACPThunk@ATL@@YGIXZ		; ATL::_AtlGetThreadACPThunk
CONST	SEGMENT
$SG188403 DB	'D:\Program Files (x86)\Microsoft Visual Studio .NET 2003'
	DB	'\Vc7\atlmfc\include\afxtempl.h', 00H
	ORG $+1
$SG188417 DB	'D:\Program Files (x86)\Microsoft Visual Studio .NET 2003'
	DB	'\Vc7\atlmfc\include\afxtempl.h', 00H
	ORG $+1
$SG188433 DB	'with ', 00H
	ORG $+2
$SG188434 DB	' elements', 00H
	ORG $+2
$SG188436 DB	0aH, 00H
	ORG $+2
$SG188443 DB	0aH, 00H
	ORG $+6
$SG188451 DB	'D:\Program Files (x86)\Microsoft Visual Studio .NET 2003'
	DB	'\Vc7\atlmfc\include\afxtempl.h', 00H
	ORG $+1
$SG188453 DB	'D:\Program Files (x86)\Microsoft Visual Studio .NET 2003'
	DB	'\Vc7\atlmfc\include\afxtempl.h', 00H
	ORG $+1
$SG188456 DB	'D:\Program Files (x86)\Microsoft Visual Studio .NET 2003'
	DB	'\Vc7\atlmfc\include\afxtempl.h', 00H
	ORG $+1
$SG188458 DB	'D:\Program Files (x86)\Microsoft Visual Studio .NET 2003'
	DB	'\Vc7\atlmfc\include\afxtempl.h', 00H
	ORG $+1
$SG188460 DB	'D:\Program Files (x86)\Microsoft Visual Studio .NET 2003'
	DB	'\Vc7\atlmfc\include\afxtempl.h', 00H
	ORG $+1
$SG188463 DB	'D:\Program Files (x86)\Microsoft Visual Studio .NET 2003'
	DB	'\Vc7\atlmfc\include\afxtempl.h', 00H
	ORG $+1
$SG188469 DB	'D:\Program Files (x86)\Microsoft Visual Studio .NET 2003'
	DB	'\Vc7\atlmfc\include\afxtempl.h', 00H
	ORG $+1
$SG188483 DB	'D:\Program Files (x86)\Microsoft Visual Studio .NET 2003'
	DB	'\Vc7\atlmfc\include\afxtempl.h', 00H
	ORG $+1
$SG188499 DB	'with ', 00H
	ORG $+2
$SG188500 DB	' elements', 00H
	ORG $+2
$SG188502 DB	0aH, 00H
	ORG $+2
$SG188509 DB	0aH, 00H
	ORG $+6
$SG188517 DB	'D:\Program Files (x86)\Microsoft Visual Studio .NET 2003'
	DB	'\Vc7\atlmfc\include\afxtempl.h', 00H
	ORG $+1
$SG188519 DB	'D:\Program Files (x86)\Microsoft Visual Studio .NET 2003'
	DB	'\Vc7\atlmfc\include\afxtempl.h', 00H
	ORG $+1
$SG188522 DB	'D:\Program Files (x86)\Microsoft Visual Studio .NET 2003'
	DB	'\Vc7\atlmfc\include\afxtempl.h', 00H
	ORG $+1
$SG188524 DB	'D:\Program Files (x86)\Microsoft Visual Studio .NET 2003'
	DB	'\Vc7\atlmfc\include\afxtempl.h', 00H
	ORG $+1
$SG188526 DB	'D:\Program Files (x86)\Microsoft Visual Studio .NET 2003'
	DB	'\Vc7\atlmfc\include\afxtempl.h', 00H
	ORG $+1
$SG188529 DB	'D:\Program Files (x86)\Microsoft Visual Studio .NET 2003'
	DB	'\Vc7\atlmfc\include\afxtempl.h', 00H
	ORG $+1
$SG188539 DB	'D:\Program Files (x86)\Microsoft Visual Studio .NET 2003'
	DB	'\Vc7\atlmfc\include\afxtempl.h', 00H
	ORG $+1
$SG188548 DB	'D:\Program Files (x86)\Microsoft Visual Studio .NET 2003'
	DB	'\Vc7\atlmfc\include\afxtempl.h', 00H
	ORG $+1
$SG188557 DB	'D:\Program Files (x86)\Microsoft Visual Studio .NET 2003'
	DB	'\Vc7\atlmfc\include\afxtempl.h', 00H
	ORG $+1
$SG188561 DB	'D:\Program Files (x86)\Microsoft Visual Studio .NET 2003'
	DB	'\Vc7\atlmfc\include\afxtempl.h', 00H
	ORG $+1
$SG188623 DB	'with ', 00H
	ORG $+2
$SG188624 DB	' elements', 00H
	ORG $+2
$SG188638 DB	0aH, 09H, '[', 00H
$SG188645 DB	'] = ', 00H
	ORG $+3
$SG188646 DB	0aH, 00H
	ORG $+6
$SG188655 DB	'D:\Program Files (x86)\Microsoft Visual Studio .NET 2003'
	DB	'\Vc7\atlmfc\include\afxtempl.h', 00H
	ORG $+1
$SG188657 DB	'D:\Program Files (x86)\Microsoft Visual Studio .NET 2003'
	DB	'\Vc7\atlmfc\include\afxtempl.h', 00H
	ORG $+1
$SG188692 DB	'D:\Program Files (x86)\Microsoft Visual Studio .NET 2003'
	DB	'\Vc7\atlmfc\include\afxtempl.h', 00H
	ORG $+1
$SG188694 DB	'D:\Program Files (x86)\Microsoft Visual Studio .NET 2003'
	DB	'\Vc7\atlmfc\include\afxtempl.h', 00H
	ORG $+1
$SG188709 DB	'D:\Program Files (x86)\Microsoft Visual Studio .NET 2003'
	DB	'\Vc7\atlmfc\include\afxtempl.h', 00H
	ORG $+1
$SG188716 DB	'D:\Program Files (x86)\Microsoft Visual Studio .NET 2003'
	DB	'\Vc7\atlmfc\include\afxtempl.h', 00H
	ORG $+1
$SG188752 DB	'D:\Program Files (x86)\Microsoft Visual Studio .NET 2003'
	DB	'\Vc7\atlmfc\include\afxtempl.h', 00H
	ORG $+1
$SG188756 DB	'D:\Program Files (x86)\Microsoft Visual Studio .NET 2003'
	DB	'\Vc7\atlmfc\include\afxtempl.h', 00H
	ORG $+1
$SG188766 DB	'D:\Program Files (x86)\Microsoft Visual Studio .NET 2003'
	DB	'\Vc7\atlmfc\include\afxtempl.h', 00H
	ORG $+1
$SG188783 DB	'D:\Program Files (x86)\Microsoft Visual Studio .NET 2003'
	DB	'\Vc7\atlmfc\include\afxtempl.h', 00H
	ORG $+1
$SG188808 DB	'D:\Program Files (x86)\Microsoft Visual Studio .NET 2003'
	DB	'\Vc7\atlmfc\include\afxtempl.h', 00H
	ORG $+1
$SG188816 DB	'D:\Program Files (x86)\Microsoft Visual Studio .NET 2003'
	DB	'\Vc7\atlmfc\include\afxtempl.h', 00H
	ORG $+1
$SG188818 DB	'D:\Program Files (x86)\Microsoft Visual Studio .NET 2003'
	DB	'\Vc7\atlmfc\include\afxtempl.h', 00H
	ORG $+1
$SG188833 DB	'D:\Program Files (x86)\Microsoft Visual Studio .NET 2003'
	DB	'\Vc7\atlmfc\include\afxtempl.h', 00H
	ORG $+1
$SG188840 DB	'D:\Program Files (x86)\Microsoft Visual Studio .NET 2003'
	DB	'\Vc7\atlmfc\include\afxtempl.h', 00H
	ORG $+1
$SG188882 DB	'D:\Program Files (x86)\Microsoft Visual Studio .NET 2003'
	DB	'\Vc7\atlmfc\include\afxtempl.h', 00H
	ORG $+1
$SG188886 DB	'D:\Program Files (x86)\Microsoft Visual Studio .NET 2003'
	DB	'\Vc7\atlmfc\include\afxtempl.h', 00H
	ORG $+1
$SG188896 DB	'D:\Program Files (x86)\Microsoft Visual Studio .NET 2003'
	DB	'\Vc7\atlmfc\include\afxtempl.h', 00H
	ORG $+1
$SG188916 DB	'D:\Program Files (x86)\Microsoft Visual Studio .NET 2003'
	DB	'\Vc7\atlmfc\include\afxtempl.h', 00H
	ORG $+1
$SG188941 DB	'D:\Program Files (x86)\Microsoft Visual Studio .NET 2003'
	DB	'\Vc7\atlmfc\include\afxtempl.h', 00H
	ORG $+1
$SG188958 DB	'D:\Program Files (x86)\Microsoft Visual Studio .NET 2003'
	DB	'\Vc7\atlmfc\include\afxtempl.h', 00H
	ORG $+1
$SG188987 DB	'D:\Program Files (x86)\Microsoft Visual Studio .NET 2003'
	DB	'\Vc7\atlmfc\include\afxtempl.h', 00H
	ORG $+1
$SG188989 DB	'D:\Program Files (x86)\Microsoft Visual Studio .NET 2003'
	DB	'\Vc7\atlmfc\include\afxtempl.h', 00H
	ORG $+1
$SG188993 DB	'D:\Program Files (x86)\Microsoft Visual Studio .NET 2003'
	DB	'\Vc7\atlmfc\include\afxtempl.h', 00H
	ORG $+1
$SG189003 DB	'D:\Program Files (x86)\Microsoft Visual Studio .NET 2003'
	DB	'\Vc7\atlmfc\include\afxtempl.h', 00H
	ORG $+1
$SG189006 DB	'D:\Program Files (x86)\Microsoft Visual Studio .NET 2003'
	DB	'\Vc7\atlmfc\include\afxtempl.h', 00H
	ORG $+1
$SG189019 DB	'D:\Program Files (x86)\Microsoft Visual Studio .NET 2003'
	DB	'\Vc7\atlmfc\include\afxtempl.h', 00H
	ORG $+1
$SG189032 DB	'D:\Program Files (x86)\Microsoft Visual Studio .NET 2003'
	DB	'\Vc7\atlmfc\include\afxtempl.h', 00H
	ORG $+1
$SG189047 DB	'D:\Program Files (x86)\Microsoft Visual Studio .NET 2003'
	DB	'\Vc7\atlmfc\include\afxtempl.h', 00H
	ORG $+1
$SG189049 DB	'D:\Program Files (x86)\Microsoft Visual Studio .NET 2003'
	DB	'\Vc7\atlmfc\include\afxtempl.h', 00H
	ORG $+1
$SG189051 DB	'D:\Program Files (x86)\Microsoft Visual Studio .NET 2003'
	DB	'\Vc7\atlmfc\include\afxtempl.h', 00H
	ORG $+1
$SG189076 DB	'D:\Program Files (x86)\Microsoft Visual Studio .NET 2003'
	DB	'\Vc7\atlmfc\include\afxtempl.h', 00H
	ORG $+1
$SG189081 DB	'D:\Program Files (x86)\Microsoft Visual Studio .NET 2003'
	DB	'\Vc7\atlmfc\include\afxtempl.h', 00H
	ORG $+1
$SG189116 DB	'D:\Program Files (x86)\Microsoft Visual Studio .NET 2003'
	DB	'\Vc7\atlmfc\include\afxtempl.h', 00H
	ORG $+1
$SG189119 DB	'D:\Program Files (x86)\Microsoft Visual Studio .NET 2003'
	DB	'\Vc7\atlmfc\include\afxtempl.h', 00H
CONST	ENDS
;	COMDAT ?g_pfnGetThreadACP@ATL@@3P6GIXZA
_DATA	SEGMENT
?g_pfnGetThreadACP@ATL@@3P6GIXZA DD FLAT:?_AtlGetThreadACPThunk@ATL@@YGIXZ ; ATL::g_pfnGetThreadACP
_DATA	ENDS
PUBLIC	??0PaneMulti@ETSLayoutMgr@@QAE@PAV1@W4layOrientation@1@HH@Z ; ETSLayoutMgr::PaneMulti::PaneMulti
PUBLIC	??0?$CMap@V?$CStringT@DV?$StrTraitMFC_DLL@DV?$ChTraitsCRT@D@ATL@@@@@ATL@@PBDVCPaneBase@ETSLayoutMgr@@V34@@@QAE@H@Z ; CMap<ATL::CStringT<char,StrTraitMFC_DLL<char,ATL::ChTraitsCRT<char> > >,char const *,ETSLayoutMgr::CPaneBase,ETSLayoutMgr::CPaneBase>::CMap<ATL::CStringT<char,StrTraitMFC_DLL<char,ATL::ChTraitsCRT<char> > >,char const *,ETSLayoutMgr::CPaneBase,ETSLayoutMgr::CPaneBase>
PUBLIC	?getConstrainHorz@PaneMulti@ETSLayoutMgr@@UAEHH@Z ; ETSLayoutMgr::PaneMulti::getConstrainHorz
PUBLIC	?getConstrainVert@PaneMulti@ETSLayoutMgr@@UAEHH@Z ; ETSLayoutMgr::PaneMulti::getConstrainVert
PUBLIC	?getMinConstrainHorz@PaneMulti@ETSLayoutMgr@@UAEHXZ ; ETSLayoutMgr::PaneMulti::getMinConstrainHorz
PUBLIC	?getMinConstrainVert@PaneMulti@ETSLayoutMgr@@UAEHXZ ; ETSLayoutMgr::PaneMulti::getMinConstrainVert
PUBLIC	?getMaxConstrainHorz@PaneMulti@ETSLayoutMgr@@UAEHXZ ; ETSLayoutMgr::PaneMulti::getMaxConstrainHorz
PUBLIC	?getMaxConstrainVert@PaneMulti@ETSLayoutMgr@@UAEHXZ ; ETSLayoutMgr::PaneMulti::getMaxConstrainVert
PUBLIC	?resizeTo@PaneMulti@ETSLayoutMgr@@UAE_NAAVCRect@@_N1@Z ; ETSLayoutMgr::PaneMulti::resizeTo
PUBLIC	??_7PaneMulti@ETSLayoutMgr@@6B@			; ETSLayoutMgr::PaneMulti::`vftable'
PUBLIC	??_GPaneMulti@ETSLayoutMgr@@UAEPAXI@Z		; ETSLayoutMgr::PaneMulti::`scalar deleting destructor'
PUBLIC	??_R0?AVPaneBase@ETSLayoutMgr@@@8		; ETSLayoutMgr::PaneBase `RTTI Type Descriptor'
PUBLIC	??_R1A@?0A@A@PaneBase@ETSLayoutMgr@@8		; ETSLayoutMgr::PaneBase::`RTTI Base Class Descriptor at (0,-1,0,0)'
PUBLIC	??_R4PaneMulti@ETSLayoutMgr@@6B@		; ETSLayoutMgr::PaneMulti::`RTTI Complete Object Locator'
PUBLIC	??_R0?AVPaneMulti@ETSLayoutMgr@@@8		; ETSLayoutMgr::PaneMulti `RTTI Type Descriptor'
PUBLIC	??_R3PaneMulti@ETSLayoutMgr@@8			; ETSLayoutMgr::PaneMulti::`RTTI Class Hierarchy Descriptor'
PUBLIC	??_R2PaneMulti@ETSLayoutMgr@@8			; ETSLayoutMgr::PaneMulti::`RTTI Base Class Array'
PUBLIC	??_R1A@?0A@A@PaneMulti@ETSLayoutMgr@@8		; ETSLayoutMgr::PaneMulti::`RTTI Base Class Descriptor at (0,-1,0,0)'
PUBLIC	??_R1A@?0A@A@Pane@ETSLayoutMgr@@8		; ETSLayoutMgr::Pane::`RTTI Base Class Descriptor at (0,-1,0,0)'
PUBLIC	??_R0?AVPane@ETSLayoutMgr@@@8			; ETSLayoutMgr::Pane `RTTI Type Descriptor'
EXTRN	?addPane@Pane@ETSLayoutMgr@@UAE_NVCPaneBase@2@@Z:NEAR ; ETSLayoutMgr::Pane::addPane
EXTRN	?addPane@Pane@ETSLayoutMgr@@UAE_NVCPane@2@W4layResizeMode@2@H@Z:NEAR ; ETSLayoutMgr::Pane::addPane
EXTRN	??1Pane@ETSLayoutMgr@@UAE@XZ:NEAR		; ETSLayoutMgr::Pane::~Pane
EXTRN	__RTC_InitBase:NEAR
EXTRN	__RTC_Shutdown:NEAR
EXTRN	__RTC_CheckEsp:NEAR
EXTRN	__except_list:DWORD
EXTRN	___CxxFrameHandler:NEAR
EXTRN	?addLayer@PaneMulti@ETSLayoutMgr@@UAEXV?$CStringT@DV?$StrTraitMFC_DLL@DV?$ChTraitsCRT@D@ATL@@@@@ATL@@VCPaneBase@2@@Z:NEAR ; ETSLayoutMgr::PaneMulti::addLayer
EXTRN	?showPane@PaneMulti@ETSLayoutMgr@@UAEX_N@Z:NEAR	; ETSLayoutMgr::PaneMulti::showPane
EXTRN	?GetSubPane@PaneMulti@ETSLayoutMgr@@UAE?AVCPaneBase@2@V?$CStringT@DV?$StrTraitMFC_DLL@DV?$ChTraitsCRT@D@ATL@@@@@ATL@@@Z:NEAR ; ETSLayoutMgr::PaneMulti::GetSubPane
EXTRN	??_EPaneMulti@ETSLayoutMgr@@UAEPAXI@Z:NEAR	; ETSLayoutMgr::PaneMulti::`vector deleting destructor'
EXTRN	__imp_??0?$CStringT@DV?$StrTraitMFC_DLL@DV?$ChTraitsCRT@D@ATL@@@@@ATL@@QAE@XZ:NEAR
EXTRN	__imp_??1?$CStringT@DV?$StrTraitMFC_DLL@DV?$ChTraitsCRT@D@ATL@@@@@ATL@@QAE@XZ:NEAR
EXTRN	??0CPaneBase@ETSLayoutMgr@@QAE@XZ:NEAR		; ETSLayoutMgr::CPaneBase::CPaneBase
EXTRN	??1CPaneBase@ETSLayoutMgr@@QAE@XZ:NEAR		; ETSLayoutMgr::CPaneBase::~CPaneBase
EXTRN	??_7type_info@@6B@:QWORD			; type_info::`vftable'
EXTRN	??0Pane@ETSLayoutMgr@@IAE@PAV1@W4layOrientation@1@HH@Z:NEAR ; ETSLayoutMgr::Pane::Pane
;	COMDAT rtc$IMZ
; File d:\boxgit\playbox\playbox\dev\prj\playbox\src\layoutmgr\etspanemulti.cpp
rtc$IMZ	SEGMENT
__RTC_InitBase.rtc$IMZ DD FLAT:__RTC_InitBase
rtc$IMZ	ENDS
;	COMDAT rtc$TMZ
rtc$TMZ	SEGMENT
__RTC_Shutdown.rtc$TMZ DD FLAT:__RTC_Shutdown
rtc$TMZ	ENDS
xdata$x	SEGMENT
$T189630 DD	0ffffffffH
	DD	FLAT:$L189619
	DD	00H
	DD	FLAT:$L189620
	DD	01H
	DD	FLAT:$L189621
$T189626 DD	019930520H
	DD	03H
	DD	FLAT:$T189630
	DD	2 DUP(00H)
	DD	2 DUP(00H)
xdata$x	ENDS
;	COMDAT ??_7PaneMulti@ETSLayoutMgr@@6B@
CONST	SEGMENT
??_7PaneMulti@ETSLayoutMgr@@6B@ DD FLAT:??_R4PaneMulti@ETSLayoutMgr@@6B@ ; ETSLayoutMgr::PaneMulti::`vftable'
	DD	FLAT:?getConstrainHorz@PaneMulti@ETSLayoutMgr@@UAEHH@Z
	DD	FLAT:?getConstrainVert@PaneMulti@ETSLayoutMgr@@UAEHH@Z
	DD	FLAT:?getMinConstrainHorz@PaneMulti@ETSLayoutMgr@@UAEHXZ
	DD	FLAT:?getMaxConstrainHorz@PaneMulti@ETSLayoutMgr@@UAEHXZ
	DD	FLAT:?getMinConstrainVert@PaneMulti@ETSLayoutMgr@@UAEHXZ
	DD	FLAT:?getMaxConstrainVert@PaneMulti@ETSLayoutMgr@@UAEHXZ
	DD	FLAT:?resizeTo@PaneMulti@ETSLayoutMgr@@UAE_NAAVCRect@@_N1@Z
	DD	FLAT:?GetSubPane@PaneMulti@ETSLayoutMgr@@UAE?AVCPaneBase@2@V?$CStringT@DV?$StrTraitMFC_DLL@DV?$ChTraitsCRT@D@ATL@@@@@ATL@@@Z
	DD	FLAT:??_EPaneMulti@ETSLayoutMgr@@UAEPAXI@Z
	DD	FLAT:?showPane@PaneMulti@ETSLayoutMgr@@UAEX_N@Z
	DD	FLAT:?addPane@Pane@ETSLayoutMgr@@UAE_NVCPane@2@W4layResizeMode@2@H@Z
	DD	FLAT:?addPane@Pane@ETSLayoutMgr@@UAE_NVCPaneBase@2@@Z
	DD	FLAT:?addLayer@PaneMulti@ETSLayoutMgr@@UAEXV?$CStringT@DV?$StrTraitMFC_DLL@DV?$ChTraitsCRT@D@ATL@@@@@ATL@@VCPaneBase@2@@Z
CONST	ENDS
;	COMDAT ??_R4PaneMulti@ETSLayoutMgr@@6B@
rdata$r	SEGMENT
??_R4PaneMulti@ETSLayoutMgr@@6B@ DD 00H			; ETSLayoutMgr::PaneMulti::`RTTI Complete Object Locator'
	DD	00H
	DD	00H
	DD	FLAT:??_R0?AVPaneMulti@ETSLayoutMgr@@@8
	DD	FLAT:??_R3PaneMulti@ETSLayoutMgr@@8
rdata$r	ENDS
;	COMDAT ??_R0?AVPaneMulti@ETSLayoutMgr@@@8
_DATA	SEGMENT
??_R0?AVPaneMulti@ETSLayoutMgr@@@8 DD FLAT:??_7type_info@@6B@ ; ETSLayoutMgr::PaneMulti `RTTI Type Descriptor'
	DD	00H
	DB	'.?AVPaneMulti@ETSLayoutMgr@@', 00H
_DATA	ENDS
;	COMDAT ??_R3PaneMulti@ETSLayoutMgr@@8
rdata$r	SEGMENT
??_R3PaneMulti@ETSLayoutMgr@@8 DD 00H			; ETSLayoutMgr::PaneMulti::`RTTI Class Hierarchy Descriptor'
	DD	00H
	DD	03H
	DD	FLAT:??_R2PaneMulti@ETSLayoutMgr@@8
rdata$r	ENDS
;	COMDAT ??_R2PaneMulti@ETSLayoutMgr@@8
rdata$r	SEGMENT
??_R2PaneMulti@ETSLayoutMgr@@8 DD FLAT:??_R1A@?0A@A@PaneMulti@ETSLayoutMgr@@8 ; ETSLayoutMgr::PaneMulti::`RTTI Base Class Array'
	DD	FLAT:??_R1A@?0A@A@Pane@ETSLayoutMgr@@8
	DD	FLAT:??_R1A@?0A@A@PaneBase@ETSLayoutMgr@@8
rdata$r	ENDS
;	COMDAT ??_R1A@?0A@A@PaneMulti@ETSLayoutMgr@@8
rdata$r	SEGMENT
??_R1A@?0A@A@PaneMulti@ETSLayoutMgr@@8 DD FLAT:??_R0?AVPaneMulti@ETSLayoutMgr@@@8 ; ETSLayoutMgr::PaneMulti::`RTTI Base Class Descriptor at (0,-1,0,0)'
	DD	02H
	DD	00H
	DD	0ffffffffH
	DD	00H
	DD	00H
rdata$r	ENDS
;	COMDAT ??_R1A@?0A@A@Pane@ETSLayoutMgr@@8
rdata$r	SEGMENT
??_R1A@?0A@A@Pane@ETSLayoutMgr@@8 DD FLAT:??_R0?AVPane@ETSLayoutMgr@@@8 ; ETSLayoutMgr::Pane::`RTTI Base Class Descriptor at (0,-1,0,0)'
	DD	01H
	DD	00H
	DD	0ffffffffH
	DD	00H
	DD	00H
rdata$r	ENDS
;	COMDAT ??_R0?AVPane@ETSLayoutMgr@@@8
_DATA	SEGMENT
??_R0?AVPane@ETSLayoutMgr@@@8 DD FLAT:??_7type_info@@6B@ ; ETSLayoutMgr::Pane `RTTI Type Descriptor'
	DD	00H
	DB	'.?AVPane@ETSLayoutMgr@@', 00H
_DATA	ENDS
;	COMDAT ??_R1A@?0A@A@PaneBase@ETSLayoutMgr@@8
rdata$r	SEGMENT
??_R1A@?0A@A@PaneBase@ETSLayoutMgr@@8 DD FLAT:??_R0?AVPaneBase@ETSLayoutMgr@@@8 ; ETSLayoutMgr::PaneBase::`RTTI Base Class Descriptor at (0,-1,0,0)'
	DD	00H
	DD	00H
	DD	0ffffffffH
	DD	00H
	DD	00H
rdata$r	ENDS
;	COMDAT ??_R0?AVPaneBase@ETSLayoutMgr@@@8
_DATA	SEGMENT
??_R0?AVPaneBase@ETSLayoutMgr@@@8 DD FLAT:??_7type_info@@6B@ ; ETSLayoutMgr::PaneBase `RTTI Type Descriptor'
	DD	00H
	DB	'.?AVPaneBase@ETSLayoutMgr@@', 00H
; Function compile flags: /Odt /RTCsu
_DATA	ENDS
_TEXT	SEGMENT
_this$ = -16						; size = 4
__$EHRec$ = -12						; size = 12
_pMgr$ = 8						; size = 4
_orientation$ = 12					; size = 4
_sizeBorder$ = 16					; size = 4
_sizeExtraBorder$ = 20					; size = 4
??0PaneMulti@ETSLayoutMgr@@QAE@PAV1@W4layOrientation@1@HH@Z PROC NEAR ; ETSLayoutMgr::PaneMulti::PaneMulti
; _this$ = ecx

; 8    : {

  00000	55		 push	 ebp
  00001	8b ec		 mov	 ebp, esp
  00003	6a ff		 push	 -1
  00005	68 00 00 00 00	 push	 __ehhandler$??0PaneMulti@ETSLayoutMgr@@QAE@PAV1@W4layOrientation@1@HH@Z
  0000a	64 a1 00 00 00
	00		 mov	 eax, DWORD PTR fs:__except_list
  00010	50		 push	 eax
  00011	64 89 25 00 00
	00 00		 mov	 DWORD PTR fs:__except_list, esp
  00018	51		 push	 ecx
  00019	56		 push	 esi
  0001a	c7 45 f0 cc cc
	cc cc		 mov	 DWORD PTR [ebp-16], -858993460 ; ccccccccH
  00021	89 4d f0	 mov	 DWORD PTR _this$[ebp], ecx
  00024	8b 45 14	 mov	 eax, DWORD PTR _sizeExtraBorder$[ebp]
  00027	50		 push	 eax
  00028	8b 4d 10	 mov	 ecx, DWORD PTR _sizeBorder$[ebp]
  0002b	51		 push	 ecx
  0002c	8b 55 0c	 mov	 edx, DWORD PTR _orientation$[ebp]
  0002f	52		 push	 edx
  00030	8b 45 08	 mov	 eax, DWORD PTR _pMgr$[ebp]
  00033	50		 push	 eax
  00034	8b 4d f0	 mov	 ecx, DWORD PTR _this$[ebp]
  00037	e8 00 00 00 00	 call	 ??0Pane@ETSLayoutMgr@@IAE@PAV1@W4layOrientation@1@HH@Z ; ETSLayoutMgr::Pane::Pane
  0003c	c7 45 fc 00 00
	00 00		 mov	 DWORD PTR __$EHRec$[ebp+8], 0
  00043	8b 4d f0	 mov	 ecx, DWORD PTR _this$[ebp]
  00046	c7 01 00 00 00
	00		 mov	 DWORD PTR [ecx], OFFSET FLAT:??_7PaneMulti@ETSLayoutMgr@@6B@
  0004c	8b 4d f0	 mov	 ecx, DWORD PTR _this$[ebp]
  0004f	81 c1 84 00 00
	00		 add	 ecx, 132		; 00000084H
  00055	8b f4		 mov	 esi, esp
  00057	ff 15 00 00 00
	00		 call	 DWORD PTR __imp_??0?$CStringT@DV?$StrTraitMFC_DLL@DV?$ChTraitsCRT@D@ATL@@@@@ATL@@QAE@XZ
  0005d	3b f4		 cmp	 esi, esp
  0005f	e8 00 00 00 00	 call	 __RTC_CheckEsp
  00064	c6 45 fc 01	 mov	 BYTE PTR __$EHRec$[ebp+8], 1
  00068	8b 4d f0	 mov	 ecx, DWORD PTR _this$[ebp]
  0006b	81 c1 88 00 00
	00		 add	 ecx, 136		; 00000088H
  00071	e8 00 00 00 00	 call	 ??0CPaneBase@ETSLayoutMgr@@QAE@XZ ; ETSLayoutMgr::CPaneBase::CPaneBase
  00076	c6 45 fc 02	 mov	 BYTE PTR __$EHRec$[ebp+8], 2
  0007a	6a 0a		 push	 10			; 0000000aH
  0007c	8b 4d f0	 mov	 ecx, DWORD PTR _this$[ebp]
  0007f	81 c1 8c 00 00
	00		 add	 ecx, 140		; 0000008cH
  00085	e8 00 00 00 00	 call	 ??0?$CMap@V?$CStringT@DV?$StrTraitMFC_DLL@DV?$ChTraitsCRT@D@ATL@@@@@ATL@@PBDVCPaneBase@ETSLayoutMgr@@V34@@@QAE@H@Z ; CMap<ATL::CStringT<char,StrTraitMFC_DLL<char,ATL::ChTraitsCRT<char> > >,char const *,ETSLayoutMgr::CPaneBase,ETSLayoutMgr::CPaneBase>::CMap<ATL::CStringT<char,StrTraitMFC_DLL<char,ATL::ChTraitsCRT<char> > >,char const *,ETSLayoutMgr::CPaneBase,ETSLayoutMgr::CPaneBase>

; 9    : }

  0008a	c7 45 fc ff ff
	ff ff		 mov	 DWORD PTR __$EHRec$[ebp+8], -1
  00091	8b 45 f0	 mov	 eax, DWORD PTR _this$[ebp]
  00094	8b 4d f4	 mov	 ecx, DWORD PTR __$EHRec$[ebp]
  00097	64 89 0d 00 00
	00 00		 mov	 DWORD PTR fs:__except_list, ecx
  0009e	5e		 pop	 esi
  0009f	83 c4 10	 add	 esp, 16			; 00000010H
  000a2	3b ec		 cmp	 ebp, esp
  000a4	e8 00 00 00 00	 call	 __RTC_CheckEsp
  000a9	8b e5		 mov	 esp, ebp
  000ab	5d		 pop	 ebp
  000ac	c2 10 00	 ret	 16			; 00000010H
_TEXT	ENDS
text$x	SEGMENT
$L189619:
  00000	8b 4d f0	 mov	 ecx, DWORD PTR _this$[ebp]
  00003	e9 00 00 00 00	 jmp	 ??1Pane@ETSLayoutMgr@@UAE@XZ ; ETSLayoutMgr::Pane::~Pane
$L189620:
  00008	8b 4d f0	 mov	 ecx, DWORD PTR _this$[ebp]
  0000b	81 c1 84 00 00
	00		 add	 ecx, 132		; 00000084H
  00011	8b f4		 mov	 esi, esp
  00013	ff 15 00 00 00
	00		 call	 DWORD PTR __imp_??1?$CStringT@DV?$StrTraitMFC_DLL@DV?$ChTraitsCRT@D@ATL@@@@@ATL@@QAE@XZ
  00019	3b f4		 cmp	 esi, esp
  0001b	e9 00 00 00 00	 jmp	 __RTC_CheckEsp
$L189621:
  00020	8b 4d f0	 mov	 ecx, DWORD PTR _this$[ebp]
  00023	81 c1 88 00 00
	00		 add	 ecx, 136		; 00000088H
  00029	e9 00 00 00 00	 jmp	 ??1CPaneBase@ETSLayoutMgr@@QAE@XZ ; ETSLayoutMgr::CPaneBase::~CPaneBase
__ehhandler$??0PaneMulti@ETSLayoutMgr@@QAE@PAV1@W4layOrientation@1@HH@Z:
  0002e	b8 00 00 00 00	 mov	 eax, OFFSET FLAT:$T189626
  00033	e9 00 00 00 00	 jmp	 ___CxxFrameHandler
text$x	ENDS
??0PaneMulti@ETSLayoutMgr@@QAE@PAV1@W4layOrientation@1@HH@Z ENDP ; ETSLayoutMgr::PaneMulti::PaneMulti
PUBLIC	??1PaneMulti@ETSLayoutMgr@@UAE@XZ		; ETSLayoutMgr::PaneMulti::~PaneMulti
EXTRN	??3@YAXPAX@Z:NEAR				; operator delete
; Function compile flags: /Odt /RTCsu
;	COMDAT ??_GPaneMulti@ETSLayoutMgr@@UAEPAXI@Z
_TEXT	SEGMENT
_this$ = -4						; size = 4
___flags$ = 8						; size = 4
??_GPaneMulti@ETSLayoutMgr@@UAEPAXI@Z PROC NEAR		; ETSLayoutMgr::PaneMulti::`scalar deleting destructor', COMDAT
; _this$ = ecx
  00000	55		 push	 ebp
  00001	8b ec		 mov	 ebp, esp
  00003	51		 push	 ecx
  00004	c7 45 fc cc cc
	cc cc		 mov	 DWORD PTR [ebp-4], -858993460 ; ccccccccH
  0000b	89 4d fc	 mov	 DWORD PTR _this$[ebp], ecx
  0000e	8b 4d fc	 mov	 ecx, DWORD PTR _this$[ebp]
  00011	e8 00 00 00 00	 call	 ??1PaneMulti@ETSLayoutMgr@@UAE@XZ
  00016	8b 45 08	 mov	 eax, DWORD PTR ___flags$[ebp]
  00019	83 e0 01	 and	 eax, 1
  0001c	74 0c		 je	 SHORT $L188249
  0001e	8b 4d fc	 mov	 ecx, DWORD PTR _this$[ebp]
  00021	51		 push	 ecx
  00022	e8 00 00 00 00	 call	 ??3@YAXPAX@Z		; operator delete
  00027	83 c4 04	 add	 esp, 4
$L188249:
  0002a	8b 45 fc	 mov	 eax, DWORD PTR _this$[ebp]
  0002d	83 c4 04	 add	 esp, 4
  00030	3b ec		 cmp	 ebp, esp
  00032	e8 00 00 00 00	 call	 __RTC_CheckEsp
  00037	8b e5		 mov	 esp, ebp
  00039	5d		 pop	 ebp
  0003a	c2 04 00	 ret	 4
??_GPaneMulti@ETSLayoutMgr@@UAEPAXI@Z ENDP		; ETSLayoutMgr::PaneMulti::`scalar deleting destructor'
_TEXT	ENDS
PUBLIC	??1?$CMap@V?$CStringT@DV?$StrTraitMFC_DLL@DV?$ChTraitsCRT@D@ATL@@@@@ATL@@PBDVCPaneBase@ETSLayoutMgr@@V34@@@UAE@XZ ; CMap<ATL::CStringT<char,StrTraitMFC_DLL<char,ATL::ChTraitsCRT<char> > >,char const *,ETSLayoutMgr::CPaneBase,ETSLayoutMgr::CPaneBase>::~CMap<ATL::CStringT<char,StrTraitMFC_DLL<char,ATL::ChTraitsCRT<char> > >,char const *,ETSLayoutMgr::CPaneBase,ETSLayoutMgr::CPaneBase>
;	COMDAT xdata$x
xdata$x	SEGMENT
$T189641 DD	0ffffffffH
	DD	FLAT:$L189634
	DD	00H
	DD	FLAT:$L189635
	DD	01H
	DD	FLAT:$L189636
$T189639 DD	019930520H
	DD	03H
	DD	FLAT:$T189641
	DD	2 DUP(00H)
	DD	2 DUP(00H)
; Function compile flags: /Odt /RTCsu
xdata$x	ENDS
;	COMDAT ??1PaneMulti@ETSLayoutMgr@@UAE@XZ
_TEXT	SEGMENT
_this$ = -16						; size = 4
__$EHRec$ = -12						; size = 12
??1PaneMulti@ETSLayoutMgr@@UAE@XZ PROC NEAR		; ETSLayoutMgr::PaneMulti::~PaneMulti, COMDAT
; _this$ = ecx
  00000	55		 push	 ebp
  00001	8b ec		 mov	 ebp, esp
  00003	6a ff		 push	 -1
  00005	68 00 00 00 00	 push	 __ehhandler$??1PaneMulti@ETSLayoutMgr@@UAE@XZ
  0000a	64 a1 00 00 00
	00		 mov	 eax, DWORD PTR fs:__except_list
  00010	50		 push	 eax
  00011	64 89 25 00 00
	00 00		 mov	 DWORD PTR fs:__except_list, esp
  00018	51		 push	 ecx
  00019	56		 push	 esi
  0001a	c7 45 f0 cc cc
	cc cc		 mov	 DWORD PTR [ebp-16], -858993460 ; ccccccccH
  00021	89 4d f0	 mov	 DWORD PTR _this$[ebp], ecx
  00024	c7 45 fc 02 00
	00 00		 mov	 DWORD PTR __$EHRec$[ebp+8], 2
  0002b	8b 4d f0	 mov	 ecx, DWORD PTR _this$[ebp]
  0002e	81 c1 8c 00 00
	00		 add	 ecx, 140		; 0000008cH
  00034	e8 00 00 00 00	 call	 ??1?$CMap@V?$CStringT@DV?$StrTraitMFC_DLL@DV?$ChTraitsCRT@D@ATL@@@@@ATL@@PBDVCPaneBase@ETSLayoutMgr@@V34@@@UAE@XZ ; CMap<ATL::CStringT<char,StrTraitMFC_DLL<char,ATL::ChTraitsCRT<char> > >,char const *,ETSLayoutMgr::CPaneBase,ETSLayoutMgr::CPaneBase>::~CMap<ATL::CStringT<char,StrTraitMFC_DLL<char,ATL::ChTraitsCRT<char> > >,char const *,ETSLayoutMgr::CPaneBase,ETSLayoutMgr::CPaneBase>
  00039	c6 45 fc 01	 mov	 BYTE PTR __$EHRec$[ebp+8], 1
  0003d	8b 4d f0	 mov	 ecx, DWORD PTR _this$[ebp]
  00040	81 c1 88 00 00
	00		 add	 ecx, 136		; 00000088H
  00046	e8 00 00 00 00	 call	 ??1CPaneBase@ETSLayoutMgr@@QAE@XZ ; ETSLayoutMgr::CPaneBase::~CPaneBase
  0004b	c6 45 fc 00	 mov	 BYTE PTR __$EHRec$[ebp+8], 0
  0004f	8b 4d f0	 mov	 ecx, DWORD PTR _this$[ebp]
  00052	81 c1 84 00 00
	00		 add	 ecx, 132		; 00000084H
  00058	8b f4		 mov	 esi, esp
  0005a	ff 15 00 00 00
	00		 call	 DWORD PTR __imp_??1?$CStringT@DV?$StrTraitMFC_DLL@DV?$ChTraitsCRT@D@ATL@@@@@ATL@@QAE@XZ
  00060	3b f4		 cmp	 esi, esp
  00062	e8 00 00 00 00	 call	 __RTC_CheckEsp
  00067	c7 45 fc ff ff
	ff ff		 mov	 DWORD PTR __$EHRec$[ebp+8], -1
  0006e	8b 4d f0	 mov	 ecx, DWORD PTR _this$[ebp]
  00071	e8 00 00 00 00	 call	 ??1Pane@ETSLayoutMgr@@UAE@XZ ; ETSLayoutMgr::Pane::~Pane
  00076	8b 4d f4	 mov	 ecx, DWORD PTR __$EHRec$[ebp]
  00079	64 89 0d 00 00
	00 00		 mov	 DWORD PTR fs:__except_list, ecx
  00080	5e		 pop	 esi
  00081	83 c4 10	 add	 esp, 16			; 00000010H
  00084	3b ec		 cmp	 ebp, esp
  00086	e8 00 00 00 00	 call	 __RTC_CheckEsp
  0008b	8b e5		 mov	 esp, ebp
  0008d	5d		 pop	 ebp
  0008e	c3		 ret	 0
_TEXT	ENDS
;	COMDAT text$x
text$x	SEGMENT
$L189634:
  00000	8b 4d f0	 mov	 ecx, DWORD PTR _this$[ebp]
  00003	e9 00 00 00 00	 jmp	 ??1Pane@ETSLayoutMgr@@UAE@XZ ; ETSLayoutMgr::Pane::~Pane
$L189635:
  00008	8b 4d f0	 mov	 ecx, DWORD PTR _this$[ebp]
  0000b	81 c1 84 00 00
	00		 add	 ecx, 132		; 00000084H
  00011	8b f4		 mov	 esi, esp
  00013	ff 15 00 00 00
	00		 call	 DWORD PTR __imp_??1?$CStringT@DV?$StrTraitMFC_DLL@DV?$ChTraitsCRT@D@ATL@@@@@ATL@@QAE@XZ
  00019	3b f4		 cmp	 esi, esp
  0001b	e9 00 00 00 00	 jmp	 __RTC_CheckEsp
$L189636:
  00020	8b 4d f0	 mov	 ecx, DWORD PTR _this$[ebp]
  00023	81 c1 88 00 00
	00		 add	 ecx, 136		; 00000088H
  00029	e9 00 00 00 00	 jmp	 ??1CPaneBase@ETSLayoutMgr@@QAE@XZ ; ETSLayoutMgr::CPaneBase::~CPaneBase
__ehhandler$??1PaneMulti@ETSLayoutMgr@@UAE@XZ:
  0002e	b8 00 00 00 00	 mov	 eax, OFFSET FLAT:$T189639
  00033	e9 00 00 00 00	 jmp	 ___CxxFrameHandler
text$x	ENDS
??1PaneMulti@ETSLayoutMgr@@UAE@XZ ENDP			; ETSLayoutMgr::PaneMulti::~PaneMulti
EXTRN	??CCPaneBase@ETSLayoutMgr@@QBEPAVPaneBase@1@XZ:NEAR ; ETSLayoutMgr::CPaneBase::operator->
; Function compile flags: /Odt /RTCsu
_TEXT	SEGMENT
tv68 = -8						; size = 4
_this$ = -4						; size = 4
_sizeParent$ = 8					; size = 4
?getConstrainHorz@PaneMulti@ETSLayoutMgr@@UAEHH@Z PROC NEAR ; ETSLayoutMgr::PaneMulti::getConstrainHorz
; _this$ = ecx

; 12   : {

  000b0	55		 push	 ebp
  000b1	8b ec		 mov	 ebp, esp
  000b3	83 ec 08	 sub	 esp, 8
  000b6	56		 push	 esi
  000b7	c7 45 f8 cc cc
	cc cc		 mov	 DWORD PTR [ebp-8], -858993460 ; ccccccccH
  000be	c7 45 fc cc cc
	cc cc		 mov	 DWORD PTR [ebp-4], -858993460 ; ccccccccH
  000c5	89 4d fc	 mov	 DWORD PTR _this$[ebp], ecx

; 13   : 	return m_paneCurrent->getConstrainHorz(sizeParent);

  000c8	8b 4d fc	 mov	 ecx, DWORD PTR _this$[ebp]
  000cb	81 c1 88 00 00
	00		 add	 ecx, 136		; 00000088H
  000d1	e8 00 00 00 00	 call	 ??CCPaneBase@ETSLayoutMgr@@QBEPAVPaneBase@1@XZ ; ETSLayoutMgr::CPaneBase::operator->
  000d6	89 45 f8	 mov	 DWORD PTR tv68[ebp], eax
  000d9	8b f4		 mov	 esi, esp
  000db	8b 45 08	 mov	 eax, DWORD PTR _sizeParent$[ebp]
  000de	50		 push	 eax
  000df	8b 4d f8	 mov	 ecx, DWORD PTR tv68[ebp]
  000e2	8b 11		 mov	 edx, DWORD PTR [ecx]
  000e4	8b 4d f8	 mov	 ecx, DWORD PTR tv68[ebp]
  000e7	ff 12		 call	 DWORD PTR [edx]
  000e9	3b f4		 cmp	 esi, esp
  000eb	e8 00 00 00 00	 call	 __RTC_CheckEsp

; 14   : }

  000f0	5e		 pop	 esi
  000f1	83 c4 08	 add	 esp, 8
  000f4	3b ec		 cmp	 ebp, esp
  000f6	e8 00 00 00 00	 call	 __RTC_CheckEsp
  000fb	8b e5		 mov	 esp, ebp
  000fd	5d		 pop	 ebp
  000fe	c2 04 00	 ret	 4
?getConstrainHorz@PaneMulti@ETSLayoutMgr@@UAEHH@Z ENDP	; ETSLayoutMgr::PaneMulti::getConstrainHorz
; Function compile flags: /Odt /RTCsu
tv68 = -8						; size = 4
_this$ = -4						; size = 4
_sizeParent$ = 8					; size = 4
?getConstrainVert@PaneMulti@ETSLayoutMgr@@UAEHH@Z PROC NEAR ; ETSLayoutMgr::PaneMulti::getConstrainVert
; _this$ = ecx

; 17   : {

  00110	55		 push	 ebp
  00111	8b ec		 mov	 ebp, esp
  00113	83 ec 08	 sub	 esp, 8
  00116	56		 push	 esi
  00117	c7 45 f8 cc cc
	cc cc		 mov	 DWORD PTR [ebp-8], -858993460 ; ccccccccH
  0011e	c7 45 fc cc cc
	cc cc		 mov	 DWORD PTR [ebp-4], -858993460 ; ccccccccH
  00125	89 4d fc	 mov	 DWORD PTR _this$[ebp], ecx

; 18   : 	return m_paneCurrent->getConstrainVert(sizeParent);

  00128	8b 4d fc	 mov	 ecx, DWORD PTR _this$[ebp]
  0012b	81 c1 88 00 00
	00		 add	 ecx, 136		; 00000088H
  00131	e8 00 00 00 00	 call	 ??CCPaneBase@ETSLayoutMgr@@QBEPAVPaneBase@1@XZ ; ETSLayoutMgr::CPaneBase::operator->
  00136	89 45 f8	 mov	 DWORD PTR tv68[ebp], eax
  00139	8b f4		 mov	 esi, esp
  0013b	8b 45 08	 mov	 eax, DWORD PTR _sizeParent$[ebp]
  0013e	50		 push	 eax
  0013f	8b 4d f8	 mov	 ecx, DWORD PTR tv68[ebp]
  00142	8b 11		 mov	 edx, DWORD PTR [ecx]
  00144	8b 4d f8	 mov	 ecx, DWORD PTR tv68[ebp]
  00147	ff 52 04	 call	 DWORD PTR [edx+4]
  0014a	3b f4		 cmp	 esi, esp
  0014c	e8 00 00 00 00	 call	 __RTC_CheckEsp

; 19   : }

  00151	5e		 pop	 esi
  00152	83 c4 08	 add	 esp, 8
  00155	3b ec		 cmp	 ebp, esp
  00157	e8 00 00 00 00	 call	 __RTC_CheckEsp
  0015c	8b e5		 mov	 esp, ebp
  0015e	5d		 pop	 ebp
  0015f	c2 04 00	 ret	 4
?getConstrainVert@PaneMulti@ETSLayoutMgr@@UAEHH@Z ENDP	; ETSLayoutMgr::PaneMulti::getConstrainVert
; Function compile flags: /Odt /RTCsu
tv68 = -8						; size = 4
_this$ = -4						; size = 4
?getMinConstrainHorz@PaneMulti@ETSLayoutMgr@@UAEHXZ PROC NEAR ; ETSLayoutMgr::PaneMulti::getMinConstrainHorz
; _this$ = ecx

; 22   : {

  00170	55		 push	 ebp
  00171	8b ec		 mov	 ebp, esp
  00173	83 ec 08	 sub	 esp, 8
  00176	56		 push	 esi
  00177	c7 45 f8 cc cc
	cc cc		 mov	 DWORD PTR [ebp-8], -858993460 ; ccccccccH
  0017e	c7 45 fc cc cc
	cc cc		 mov	 DWORD PTR [ebp-4], -858993460 ; ccccccccH
  00185	89 4d fc	 mov	 DWORD PTR _this$[ebp], ecx

; 23   : 	return m_paneCurrent->getMinConstrainHorz();

  00188	8b 4d fc	 mov	 ecx, DWORD PTR _this$[ebp]
  0018b	81 c1 88 00 00
	00		 add	 ecx, 136		; 00000088H
  00191	e8 00 00 00 00	 call	 ??CCPaneBase@ETSLayoutMgr@@QBEPAVPaneBase@1@XZ ; ETSLayoutMgr::CPaneBase::operator->
  00196	89 45 f8	 mov	 DWORD PTR tv68[ebp], eax
  00199	8b 45 f8	 mov	 eax, DWORD PTR tv68[ebp]
  0019c	8b 10		 mov	 edx, DWORD PTR [eax]
  0019e	8b f4		 mov	 esi, esp
  001a0	8b 4d f8	 mov	 ecx, DWORD PTR tv68[ebp]
  001a3	ff 52 08	 call	 DWORD PTR [edx+8]
  001a6	3b f4		 cmp	 esi, esp
  001a8	e8 00 00 00 00	 call	 __RTC_CheckEsp

; 24   : }

  001ad	5e		 pop	 esi
  001ae	83 c4 08	 add	 esp, 8
  001b1	3b ec		 cmp	 ebp, esp
  001b3	e8 00 00 00 00	 call	 __RTC_CheckEsp
  001b8	8b e5		 mov	 esp, ebp
  001ba	5d		 pop	 ebp
  001bb	c3		 ret	 0
?getMinConstrainHorz@PaneMulti@ETSLayoutMgr@@UAEHXZ ENDP ; ETSLayoutMgr::PaneMulti::getMinConstrainHorz
; Function compile flags: /Odt /RTCsu
tv68 = -8						; size = 4
_this$ = -4						; size = 4
?getMinConstrainVert@PaneMulti@ETSLayoutMgr@@UAEHXZ PROC NEAR ; ETSLayoutMgr::PaneMulti::getMinConstrainVert
; _this$ = ecx

; 27   : {

  001c0	55		 push	 ebp
  001c1	8b ec		 mov	 ebp, esp
  001c3	83 ec 08	 sub	 esp, 8
  001c6	56		 push	 esi
  001c7	c7 45 f8 cc cc
	cc cc		 mov	 DWORD PTR [ebp-8], -858993460 ; ccccccccH
  001ce	c7 45 fc cc cc
	cc cc		 mov	 DWORD PTR [ebp-4], -858993460 ; ccccccccH
  001d5	89 4d fc	 mov	 DWORD PTR _this$[ebp], ecx

; 28   : 	return m_paneCurrent->getMinConstrainVert();

  001d8	8b 4d fc	 mov	 ecx, DWORD PTR _this$[ebp]
  001db	81 c1 88 00 00
	00		 add	 ecx, 136		; 00000088H
  001e1	e8 00 00 00 00	 call	 ??CCPaneBase@ETSLayoutMgr@@QBEPAVPaneBase@1@XZ ; ETSLayoutMgr::CPaneBase::operator->
  001e6	89 45 f8	 mov	 DWORD PTR tv68[ebp], eax
  001e9	8b 45 f8	 mov	 eax, DWORD PTR tv68[ebp]
  001ec	8b 10		 mov	 edx, DWORD PTR [eax]
  001ee	8b f4		 mov	 esi, esp
  001f0	8b 4d f8	 mov	 ecx, DWORD PTR tv68[ebp]
  001f3	ff 52 10	 call	 DWORD PTR [edx+16]
  001f6	3b f4		 cmp	 esi, esp
  001f8	e8 00 00 00 00	 call	 __RTC_CheckEsp

; 29   : }

  001fd	5e		 pop	 esi
  001fe	83 c4 08	 add	 esp, 8
  00201	3b ec		 cmp	 ebp, esp
  00203	e8 00 00 00 00	 call	 __RTC_CheckEsp
  00208	8b e5		 mov	 esp, ebp
  0020a	5d		 pop	 ebp
  0020b	c3		 ret	 0
?getMinConstrainVert@PaneMulti@ETSLayoutMgr@@UAEHXZ ENDP ; ETSLayoutMgr::PaneMulti::getMinConstrainVert
; Function compile flags: /Odt /RTCsu
tv68 = -8						; size = 4
_this$ = -4						; size = 4
?getMaxConstrainHorz@PaneMulti@ETSLayoutMgr@@UAEHXZ PROC NEAR ; ETSLayoutMgr::PaneMulti::getMaxConstrainHorz
; _this$ = ecx

; 32   : {

  00210	55		 push	 ebp
  00211	8b ec		 mov	 ebp, esp
  00213	83 ec 08	 sub	 esp, 8
  00216	56		 push	 esi
  00217	c7 45 f8 cc cc
	cc cc		 mov	 DWORD PTR [ebp-8], -858993460 ; ccccccccH
  0021e	c7 45 fc cc cc
	cc cc		 mov	 DWORD PTR [ebp-4], -858993460 ; ccccccccH
  00225	89 4d fc	 mov	 DWORD PTR _this$[ebp], ecx

; 33   : 	return m_paneCurrent->getMaxConstrainHorz();

  00228	8b 4d fc	 mov	 ecx, DWORD PTR _this$[ebp]
  0022b	81 c1 88 00 00
	00		 add	 ecx, 136		; 00000088H
  00231	e8 00 00 00 00	 call	 ??CCPaneBase@ETSLayoutMgr@@QBEPAVPaneBase@1@XZ ; ETSLayoutMgr::CPaneBase::operator->
  00236	89 45 f8	 mov	 DWORD PTR tv68[ebp], eax
  00239	8b 45 f8	 mov	 eax, DWORD PTR tv68[ebp]
  0023c	8b 10		 mov	 edx, DWORD PTR [eax]
  0023e	8b f4		 mov	 esi, esp
  00240	8b 4d f8	 mov	 ecx, DWORD PTR tv68[ebp]
  00243	ff 52 0c	 call	 DWORD PTR [edx+12]
  00246	3b f4		 cmp	 esi, esp
  00248	e8 00 00 00 00	 call	 __RTC_CheckEsp

; 34   : }

  0024d	5e		 pop	 esi
  0024e	83 c4 08	 add	 esp, 8
  00251	3b ec		 cmp	 ebp, esp
  00253	e8 00 00 00 00	 call	 __RTC_CheckEsp
  00258	8b e5		 mov	 esp, ebp
  0025a	5d		 pop	 ebp
  0025b	c3		 ret	 0
?getMaxConstrainHorz@PaneMulti@ETSLayoutMgr@@UAEHXZ ENDP ; ETSLayoutMgr::PaneMulti::getMaxConstrainHorz
; Function compile flags: /Odt /RTCsu
tv68 = -8						; size = 4
_this$ = -4						; size = 4
?getMaxConstrainVert@PaneMulti@ETSLayoutMgr@@UAEHXZ PROC NEAR ; ETSLayoutMgr::PaneMulti::getMaxConstrainVert
; _this$ = ecx

; 37   : {

  00260	55		 push	 ebp
  00261	8b ec		 mov	 ebp, esp
  00263	83 ec 08	 sub	 esp, 8
  00266	56		 push	 esi
  00267	c7 45 f8 cc cc
	cc cc		 mov	 DWORD PTR [ebp-8], -858993460 ; ccccccccH
  0026e	c7 45 fc cc cc
	cc cc		 mov	 DWORD PTR [ebp-4], -858993460 ; ccccccccH
  00275	89 4d fc	 mov	 DWORD PTR _this$[ebp], ecx

; 38   : 	return m_paneCurrent->getMaxConstrainVert();

  00278	8b 4d fc	 mov	 ecx, DWORD PTR _this$[ebp]
  0027b	81 c1 88 00 00
	00		 add	 ecx, 136		; 00000088H
  00281	e8 00 00 00 00	 call	 ??CCPaneBase@ETSLayoutMgr@@QBEPAVPaneBase@1@XZ ; ETSLayoutMgr::CPaneBase::operator->
  00286	89 45 f8	 mov	 DWORD PTR tv68[ebp], eax
  00289	8b 45 f8	 mov	 eax, DWORD PTR tv68[ebp]
  0028c	8b 10		 mov	 edx, DWORD PTR [eax]
  0028e	8b f4		 mov	 esi, esp
  00290	8b 4d f8	 mov	 ecx, DWORD PTR tv68[ebp]
  00293	ff 52 14	 call	 DWORD PTR [edx+20]
  00296	3b f4		 cmp	 esi, esp
  00298	e8 00 00 00 00	 call	 __RTC_CheckEsp

; 39   : }

  0029d	5e		 pop	 esi
  0029e	83 c4 08	 add	 esp, 8
  002a1	3b ec		 cmp	 ebp, esp
  002a3	e8 00 00 00 00	 call	 __RTC_CheckEsp
  002a8	8b e5		 mov	 esp, ebp
  002aa	5d		 pop	 ebp
  002ab	c3		 ret	 0
?getMaxConstrainVert@PaneMulti@ETSLayoutMgr@@UAEHXZ ENDP ; ETSLayoutMgr::PaneMulti::getMaxConstrainVert
; Function compile flags: /Odt /RTCsu
tv70 = -8						; size = 4
_this$ = -4						; size = 4
_rcNewArea$ = 8						; size = 4
_bRedraw$ = 12						; size = 1
_bReSizeAlways$ = 16					; size = 1
?resizeTo@PaneMulti@ETSLayoutMgr@@UAE_NAAVCRect@@_N1@Z PROC NEAR ; ETSLayoutMgr::PaneMulti::resizeTo
; _this$ = ecx

; 42   : {

  002b0	55		 push	 ebp
  002b1	8b ec		 mov	 ebp, esp
  002b3	83 ec 08	 sub	 esp, 8
  002b6	56		 push	 esi
  002b7	c7 45 f8 cc cc
	cc cc		 mov	 DWORD PTR [ebp-8], -858993460 ; ccccccccH
  002be	c7 45 fc cc cc
	cc cc		 mov	 DWORD PTR [ebp-4], -858993460 ; ccccccccH
  002c5	89 4d fc	 mov	 DWORD PTR _this$[ebp], ecx

; 43   : 	this->m_rcRect = rcNewArea;

  002c8	8b 45 08	 mov	 eax, DWORD PTR _rcNewArea$[ebp]
  002cb	8b 4d fc	 mov	 ecx, DWORD PTR _this$[ebp]
  002ce	83 c1 28	 add	 ecx, 40			; 00000028H
  002d1	8b 10		 mov	 edx, DWORD PTR [eax]
  002d3	89 11		 mov	 DWORD PTR [ecx], edx
  002d5	8b 50 04	 mov	 edx, DWORD PTR [eax+4]
  002d8	89 51 04	 mov	 DWORD PTR [ecx+4], edx
  002db	8b 50 08	 mov	 edx, DWORD PTR [eax+8]
  002de	89 51 08	 mov	 DWORD PTR [ecx+8], edx
  002e1	8b 40 0c	 mov	 eax, DWORD PTR [eax+12]
  002e4	89 41 0c	 mov	 DWORD PTR [ecx+12], eax

; 44   : 	return m_paneCurrent->resizeTo(rcNewArea,bRedraw, bReSizeAlways);

  002e7	8b 4d fc	 mov	 ecx, DWORD PTR _this$[ebp]
  002ea	81 c1 88 00 00
	00		 add	 ecx, 136		; 00000088H
  002f0	e8 00 00 00 00	 call	 ??CCPaneBase@ETSLayoutMgr@@QBEPAVPaneBase@1@XZ ; ETSLayoutMgr::CPaneBase::operator->
  002f5	89 45 f8	 mov	 DWORD PTR tv70[ebp], eax
  002f8	8b f4		 mov	 esi, esp
  002fa	8a 4d 10	 mov	 cl, BYTE PTR _bReSizeAlways$[ebp]
  002fd	51		 push	 ecx
  002fe	8a 55 0c	 mov	 dl, BYTE PTR _bRedraw$[ebp]
  00301	52		 push	 edx
  00302	8b 45 08	 mov	 eax, DWORD PTR _rcNewArea$[ebp]
  00305	50		 push	 eax
  00306	8b 4d f8	 mov	 ecx, DWORD PTR tv70[ebp]
  00309	8b 11		 mov	 edx, DWORD PTR [ecx]
  0030b	8b 4d f8	 mov	 ecx, DWORD PTR tv70[ebp]
  0030e	ff 52 18	 call	 DWORD PTR [edx+24]
  00311	3b f4		 cmp	 esi, esp
  00313	e8 00 00 00 00	 call	 __RTC_CheckEsp

; 45   : }

  00318	5e		 pop	 esi
  00319	83 c4 08	 add	 esp, 8
  0031c	3b ec		 cmp	 ebp, esp
  0031e	e8 00 00 00 00	 call	 __RTC_CheckEsp
  00323	8b e5		 mov	 esp, ebp
  00325	5d		 pop	 ebp
  00326	c2 0c 00	 ret	 12			; 0000000cH
?resizeTo@PaneMulti@ETSLayoutMgr@@UAE_NAAVCRect@@_N1@Z ENDP ; ETSLayoutMgr::PaneMulti::resizeTo
_TEXT	ENDS
PUBLIC	?InterlockedExchangePointer@@YGPAXPAPAXPAX@Z	; InterlockedExchangePointer
PUBLIC	?_AtlGetThreadACPFake@ATL@@YGIXZ		; ATL::_AtlGetThreadACPFake
PUBLIC	?_AtlGetThreadACPReal@ATL@@YGIXZ		; ATL::_AtlGetThreadACPReal
EXTRN	___security_cookie:DWORD
EXTRN	@_RTC_CheckStackVars@8:NEAR
EXTRN	@__security_check_cookie@4:NEAR
EXTRN	__imp__GetVersionExA@4:NEAR
; Function compile flags: /Odt /RTCsu
; File d:\program files (x86)\microsoft visual studio .net 2003\vc7\atlmfc\include\atlconv.h
;	COMDAT ?_AtlGetThreadACPThunk@ATL@@YGIXZ
_TEXT	SEGMENT
_pfnGetThreadACP$ = -164				; size = 4
_ver$ = -156						; size = 148
__$ArrayPad$ = -4					; size = 4
__$ReturnAddr$ = 4					; size = 4
?_AtlGetThreadACPThunk@ATL@@YGIXZ PROC NEAR		; ATL::_AtlGetThreadACPThunk, COMDAT

; 134  : {

  00000	55		 push	 ebp
  00001	8b ec		 mov	 ebp, esp
  00003	81 ec a4 00 00
	00		 sub	 esp, 164		; 000000a4H
  00009	56		 push	 esi
  0000a	57		 push	 edi
  0000b	8d bd 5c ff ff
	ff		 lea	 edi, DWORD PTR [ebp-164]
  00011	b9 29 00 00 00	 mov	 ecx, 41			; 00000029H
  00016	b8 cc cc cc cc	 mov	 eax, -858993460		; ccccccccH
  0001b	f3 ab		 rep stosd
  0001d	a1 00 00 00 00	 mov	 eax, DWORD PTR ___security_cookie
  00022	89 45 fc	 mov	 DWORD PTR __$ArrayPad$[ebp], eax

; 135  : 	OSVERSIONINFO ver;
; 136  : 	ATLGETTHREADACP pfnGetThreadACP;
; 137  : 
; 138  : 	ver.dwOSVersionInfoSize = sizeof( ver );

  00025	c7 85 64 ff ff
	ff 94 00 00 00	 mov	 DWORD PTR _ver$[ebp], 148 ; 00000094H

; 139  : 	::GetVersionEx( &ver );

  0002f	8b f4		 mov	 esi, esp
  00031	8d 85 64 ff ff
	ff		 lea	 eax, DWORD PTR _ver$[ebp]
  00037	50		 push	 eax
  00038	ff 15 00 00 00
	00		 call	 DWORD PTR __imp__GetVersionExA@4
  0003e	3b f4		 cmp	 esi, esp
  00040	e8 00 00 00 00	 call	 __RTC_CheckEsp

; 140  : 	if( (ver.dwPlatformId == VER_PLATFORM_WIN32_NT) && (ver.dwMajorVersion >= 5) )

  00045	83 bd 74 ff ff
	ff 02		 cmp	 DWORD PTR _ver$[ebp+16], 2
  0004c	75 15		 jne	 SHORT $L24163
  0004e	83 bd 68 ff ff
	ff 05		 cmp	 DWORD PTR _ver$[ebp+4], 5
  00055	72 0c		 jb	 SHORT $L24163

; 141  : 	{
; 142  : 		// On Win2K, CP_THREAD_ACP is supported
; 143  : 		pfnGetThreadACP = _AtlGetThreadACPReal;

  00057	c7 85 5c ff ff
	ff 00 00 00 00	 mov	 DWORD PTR _pfnGetThreadACP$[ebp], OFFSET FLAT:?_AtlGetThreadACPReal@ATL@@YGIXZ ; ATL::_AtlGetThreadACPReal

; 144  : 	}
; 145  : 	else

  00061	eb 0a		 jmp	 SHORT $L24164
$L24163:

; 146  : 	{
; 147  : 		pfnGetThreadACP = _AtlGetThreadACPFake;

  00063	c7 85 5c ff ff
	ff 00 00 00 00	 mov	 DWORD PTR _pfnGetThreadACP$[ebp], OFFSET FLAT:?_AtlGetThreadACPFake@ATL@@YGIXZ ; ATL::_AtlGetThreadACPFake
$L24164:

; 148  : 	}
; 149  : 	InterlockedExchangePointer( reinterpret_cast< void** >(&g_pfnGetThreadACP), pfnGetThreadACP );

  0006d	8b 8d 5c ff ff
	ff		 mov	 ecx, DWORD PTR _pfnGetThreadACP$[ebp]
  00073	51		 push	 ecx
  00074	68 00 00 00 00	 push	 OFFSET FLAT:?g_pfnGetThreadACP@ATL@@3P6GIXZA ; ATL::g_pfnGetThreadACP
  00079	e8 00 00 00 00	 call	 ?InterlockedExchangePointer@@YGPAXPAPAXPAX@Z ; InterlockedExchangePointer

; 150  : 
; 151  : 	return( g_pfnGetThreadACP() );

  0007e	8b f4		 mov	 esi, esp
  00080	ff 15 00 00 00
	00		 call	 DWORD PTR ?g_pfnGetThreadACP@ATL@@3P6GIXZA ; ATL::g_pfnGetThreadACP
  00086	3b f4		 cmp	 esi, esp
  00088	e8 00 00 00 00	 call	 __RTC_CheckEsp

; 152  : }

  0008d	52		 push	 edx
  0008e	8b cd		 mov	 ecx, ebp
  00090	50		 push	 eax
  00091	8d 15 00 00 00
	00		 lea	 edx, DWORD PTR $L189657
  00097	e8 00 00 00 00	 call	 @_RTC_CheckStackVars@8
  0009c	58		 pop	 eax
  0009d	5a		 pop	 edx
  0009e	8b 4d fc	 mov	 ecx, DWORD PTR __$ArrayPad$[ebp]
  000a1	e8 00 00 00 00	 call	 @__security_check_cookie@4
  000a6	5f		 pop	 edi
  000a7	5e		 pop	 esi
  000a8	81 c4 a4 00 00
	00		 add	 esp, 164		; 000000a4H
  000ae	3b ec		 cmp	 ebp, esp
  000b0	e8 00 00 00 00	 call	 __RTC_CheckEsp
  000b5	8b e5		 mov	 esp, ebp
  000b7	5d		 pop	 ebp
  000b8	c3		 ret	 0
$L189657:
  000b9	01 00 00 00	 DD	 1
  000bd	00 00 00 00	 DD	 $L189656
$L189656:
  000c1	64 ff ff ff	 DD	 -156			; ffffff64H
  000c5	94 00 00 00	 DD	 148			; 00000094H
  000c9	00 00 00 00	 DD	 $L189653
$L189653:
  000cd	76		 DB	 118			; 00000076H
  000ce	65		 DB	 101			; 00000065H
  000cf	72		 DB	 114			; 00000072H
  000d0	00		 DB	 0
?_AtlGetThreadACPThunk@ATL@@YGIXZ ENDP			; ATL::_AtlGetThreadACPThunk
_TEXT	ENDS
EXTRN	__imp__InterlockedExchange@8:NEAR
; Function compile flags: /Odt /RTCsu
;	COMDAT ?InterlockedExchangePointer@@YGPAXPAPAXPAX@Z
_TEXT	SEGMENT
_pp$ = 8						; size = 4
_pNew$ = 12						; size = 4
?InterlockedExchangePointer@@YGPAXPAPAXPAX@Z PROC NEAR	; InterlockedExchangePointer, COMDAT

; 91   : {

  00000	55		 push	 ebp
  00001	8b ec		 mov	 ebp, esp
  00003	56		 push	 esi

; 92   : 	return( reinterpret_cast<void*>(static_cast<LONG_PTR>(::InterlockedExchange(reinterpret_cast<LONG*>(pp), static_cast<LONG>(reinterpret_cast<LONG_PTR>(pNew))))) );

  00004	8b f4		 mov	 esi, esp
  00006	8b 45 0c	 mov	 eax, DWORD PTR _pNew$[ebp]
  00009	50		 push	 eax
  0000a	8b 4d 08	 mov	 ecx, DWORD PTR _pp$[ebp]
  0000d	51		 push	 ecx
  0000e	ff 15 00 00 00
	00		 call	 DWORD PTR __imp__InterlockedExchange@8
  00014	3b f4		 cmp	 esi, esp
  00016	e8 00 00 00 00	 call	 __RTC_CheckEsp

; 93   : }

  0001b	5e		 pop	 esi
  0001c	3b ec		 cmp	 ebp, esp
  0001e	e8 00 00 00 00	 call	 __RTC_CheckEsp
  00023	5d		 pop	 ebp
  00024	c2 08 00	 ret	 8
?InterlockedExchangePointer@@YGPAXPAPAXPAX@Z ENDP	; InterlockedExchangePointer
_TEXT	ENDS
EXTRN	__imp__GetACP@0:NEAR
EXTRN	__imp__GetLocaleInfoA@16:NEAR
EXTRN	__imp__GetThreadLocale@0:NEAR
; Function compile flags: /Odt /RTCsu
;	COMDAT ?_AtlGetThreadACPFake@ATL@@YGIXZ
_TEXT	SEGMENT
_pch$24151 = -32					; size = 4
_szACP$ = -24						; size = 7
_lcidThread$ = -12					; size = 4
_nACP$ = -8						; size = 4
__$ArrayPad$ = -4					; size = 4
__$ReturnAddr$ = 4					; size = 4
?_AtlGetThreadACPFake@ATL@@YGIXZ PROC NEAR		; ATL::_AtlGetThreadACPFake, COMDAT

; 101  : {

  00000	55		 push	 ebp
  00001	8b ec		 mov	 ebp, esp
  00003	83 ec 20	 sub	 esp, 32			; 00000020H
  00006	56		 push	 esi
  00007	b8 cc cc cc cc	 mov	 eax, -858993460		; ccccccccH
  0000c	89 45 e0	 mov	 DWORD PTR [ebp-32], eax
  0000f	89 45 e4	 mov	 DWORD PTR [ebp-28], eax
  00012	89 45 e8	 mov	 DWORD PTR [ebp-24], eax
  00015	89 45 ec	 mov	 DWORD PTR [ebp-20], eax
  00018	89 45 f0	 mov	 DWORD PTR [ebp-16], eax
  0001b	89 45 f4	 mov	 DWORD PTR [ebp-12], eax
  0001e	89 45 f8	 mov	 DWORD PTR [ebp-8], eax
  00021	89 45 fc	 mov	 DWORD PTR [ebp-4], eax
  00024	a1 00 00 00 00	 mov	 eax, DWORD PTR ___security_cookie
  00029	89 45 fc	 mov	 DWORD PTR __$ArrayPad$[ebp], eax

; 102  : 	UINT nACP = 0;

  0002c	c7 45 f8 00 00
	00 00		 mov	 DWORD PTR _nACP$[ebp], 0

; 103  : 
; 104  : 	LCID lcidThread = ::GetThreadLocale();

  00033	8b f4		 mov	 esi, esp
  00035	ff 15 00 00 00
	00		 call	 DWORD PTR __imp__GetThreadLocale@0
  0003b	3b f4		 cmp	 esi, esp
  0003d	e8 00 00 00 00	 call	 __RTC_CheckEsp
  00042	89 45 f4	 mov	 DWORD PTR _lcidThread$[ebp], eax

; 105  : 
; 106  : 	char szACP[7];
; 107  : 	// GetLocaleInfoA will fail for a Unicode-only LCID, but those are only supported on 
; 108  : 	// Windows 2000.  Since Windows 2000 supports CP_THREAD_ACP, this code path is never
; 109  : 	// executed on Windows 2000.
; 110  : 	if (::GetLocaleInfoA(lcidThread, LOCALE_IDEFAULTANSICODEPAGE, szACP, 7) != 0)

  00045	8b f4		 mov	 esi, esp
  00047	6a 07		 push	 7
  00049	8d 45 e8	 lea	 eax, DWORD PTR _szACP$[ebp]
  0004c	50		 push	 eax
  0004d	68 04 10 00 00	 push	 4100			; 00001004H
  00052	8b 4d f4	 mov	 ecx, DWORD PTR _lcidThread$[ebp]
  00055	51		 push	 ecx
  00056	ff 15 00 00 00
	00		 call	 DWORD PTR __imp__GetLocaleInfoA@16
  0005c	3b f4		 cmp	 esi, esp
  0005e	e8 00 00 00 00	 call	 __RTC_CheckEsp
  00063	85 c0		 test	 eax, eax
  00065	74 34		 je	 SHORT $L24150

; 111  : 	{
; 112  : 		char* pch = szACP;

  00067	8d 55 e8	 lea	 edx, DWORD PTR _szACP$[ebp]
  0006a	89 55 e0	 mov	 DWORD PTR _pch$24151[ebp], edx
$L24153:

; 113  : 		while (*pch != '\0')

  0006d	8b 45 e0	 mov	 eax, DWORD PTR _pch$24151[ebp]
  00070	0f be 08	 movsx	 ecx, BYTE PTR [eax]
  00073	85 c9		 test	 ecx, ecx
  00075	74 24		 je	 SHORT $L24150

; 114  : 		{
; 115  : 			nACP *= 10;

  00077	8b 55 f8	 mov	 edx, DWORD PTR _nACP$[ebp]
  0007a	6b d2 0a	 imul	 edx, 10			; 0000000aH
  0007d	89 55 f8	 mov	 DWORD PTR _nACP$[ebp], edx

; 116  : 			nACP += *pch++ - '0';

  00080	8b 45 e0	 mov	 eax, DWORD PTR _pch$24151[ebp]
  00083	0f be 08	 movsx	 ecx, BYTE PTR [eax]
  00086	8b 55 f8	 mov	 edx, DWORD PTR _nACP$[ebp]
  00089	8d 44 0a d0	 lea	 eax, DWORD PTR [edx+ecx-48]
  0008d	89 45 f8	 mov	 DWORD PTR _nACP$[ebp], eax
  00090	8b 4d e0	 mov	 ecx, DWORD PTR _pch$24151[ebp]
  00093	83 c1 01	 add	 ecx, 1
  00096	89 4d e0	 mov	 DWORD PTR _pch$24151[ebp], ecx

; 117  : 		}

  00099	eb d2		 jmp	 SHORT $L24153
$L24150:

; 118  : 	}
; 119  : 	// Use the Default ANSI Code Page if we were unable to get the thread ACP or if one does not exist.
; 120  : 	if (nACP == 0)

  0009b	83 7d f8 00	 cmp	 DWORD PTR _nACP$[ebp], 0
  0009f	75 12		 jne	 SHORT $L24155

; 121  : 		nACP = ::GetACP();

  000a1	8b f4		 mov	 esi, esp
  000a3	ff 15 00 00 00
	00		 call	 DWORD PTR __imp__GetACP@0
  000a9	3b f4		 cmp	 esi, esp
  000ab	e8 00 00 00 00	 call	 __RTC_CheckEsp
  000b0	89 45 f8	 mov	 DWORD PTR _nACP$[ebp], eax
$L24155:

; 122  : 
; 123  : 	return nACP;

  000b3	8b 45 f8	 mov	 eax, DWORD PTR _nACP$[ebp]

; 124  : }

  000b6	52		 push	 edx
  000b7	8b cd		 mov	 ecx, ebp
  000b9	50		 push	 eax
  000ba	8d 15 00 00 00
	00		 lea	 edx, DWORD PTR $L189666
  000c0	e8 00 00 00 00	 call	 @_RTC_CheckStackVars@8
  000c5	58		 pop	 eax
  000c6	5a		 pop	 edx
  000c7	8b 4d fc	 mov	 ecx, DWORD PTR __$ArrayPad$[ebp]
  000ca	e8 00 00 00 00	 call	 @__security_check_cookie@4
  000cf	5e		 pop	 esi
  000d0	83 c4 20	 add	 esp, 32			; 00000020H
  000d3	3b ec		 cmp	 ebp, esp
  000d5	e8 00 00 00 00	 call	 __RTC_CheckEsp
  000da	8b e5		 mov	 esp, ebp
  000dc	5d		 pop	 ebp
  000dd	c3		 ret	 0
$L189666:
  000de	01 00 00 00	 DD	 1
  000e2	00 00 00 00	 DD	 $L189665
$L189665:
  000e6	e8 ff ff ff	 DD	 -24			; ffffffe8H
  000ea	07 00 00 00	 DD	 7
  000ee	00 00 00 00	 DD	 $L189663
$L189663:
  000f2	73		 DB	 115			; 00000073H
  000f3	7a		 DB	 122			; 0000007aH
  000f4	41		 DB	 65			; 00000041H
  000f5	43		 DB	 67			; 00000043H
  000f6	50		 DB	 80			; 00000050H
  000f7	00		 DB	 0
?_AtlGetThreadACPFake@ATL@@YGIXZ ENDP			; ATL::_AtlGetThreadACPFake
; Function compile flags: /Odt /RTCsu
_TEXT	ENDS
;	COMDAT ?_AtlGetThreadACPReal@ATL@@YGIXZ
_TEXT	SEGMENT
?_AtlGetThreadACPReal@ATL@@YGIXZ PROC NEAR		; ATL::_AtlGetThreadACPReal, COMDAT

; 127  : {

  00000	55		 push	 ebp
  00001	8b ec		 mov	 ebp, esp

; 128  : 	return( CP_THREAD_ACP );

  00003	b8 03 00 00 00	 mov	 eax, 3

; 129  : }

  00008	5d		 pop	 ebp
  00009	c3		 ret	 0
?_AtlGetThreadACPReal@ATL@@YGIXZ ENDP			; ATL::_AtlGetThreadACPReal
_TEXT	ENDS
PUBLIC	??_R1A@?0A@A@CObject@@8				; CObject::`RTTI Base Class Descriptor at (0,-1,0,0)'
PUBLIC	??_R0?AVCObject@@@8				; CObject `RTTI Type Descriptor'
PUBLIC	?Serialize@?$CMap@V?$CStringT@DV?$StrTraitMFC_DLL@DV?$ChTraitsCRT@D@ATL@@@@@ATL@@PBDVCPaneBase@ETSLayoutMgr@@V34@@@UAEXAAVCArchive@@@Z ; CMap<ATL::CStringT<char,StrTraitMFC_DLL<char,ATL::ChTraitsCRT<char> > >,char const *,ETSLayoutMgr::CPaneBase,ETSLayoutMgr::CPaneBase>::Serialize
PUBLIC	?Dump@?$CMap@V?$CStringT@DV?$StrTraitMFC_DLL@DV?$ChTraitsCRT@D@ATL@@@@@ATL@@PBDVCPaneBase@ETSLayoutMgr@@V34@@@UBEXAAVCDumpContext@@@Z ; CMap<ATL::CStringT<char,StrTraitMFC_DLL<char,ATL::ChTraitsCRT<char> > >,char const *,ETSLayoutMgr::CPaneBase,ETSLayoutMgr::CPaneBase>::Dump
PUBLIC	?AssertValid@?$CMap@V?$CStringT@DV?$StrTraitMFC_DLL@DV?$ChTraitsCRT@D@ATL@@@@@ATL@@PBDVCPaneBase@ETSLayoutMgr@@V34@@@UBEXXZ ; CMap<ATL::CStringT<char,StrTraitMFC_DLL<char,ATL::ChTraitsCRT<char> > >,char const *,ETSLayoutMgr::CPaneBase,ETSLayoutMgr::CPaneBase>::AssertValid
PUBLIC	??_7?$CMap@V?$CStringT@DV?$StrTraitMFC_DLL@DV?$ChTraitsCRT@D@ATL@@@@@ATL@@PBDVCPaneBase@ETSLayoutMgr@@V34@@@6B@ ; CMap<ATL::CStringT<char,StrTraitMFC_DLL<char,ATL::ChTraitsCRT<char> > >,char const *,ETSLayoutMgr::CPaneBase,ETSLayoutMgr::CPaneBase>::`vftable'
PUBLIC	??_G?$CMap@V?$CStringT@DV?$StrTraitMFC_DLL@DV?$ChTraitsCRT@D@ATL@@@@@ATL@@PBDVCPaneBase@ETSLayoutMgr@@V34@@@UAEPAXI@Z ; CMap<ATL::CStringT<char,StrTraitMFC_DLL<char,ATL::ChTraitsCRT<char> > >,char const *,ETSLayoutMgr::CPaneBase,ETSLayoutMgr::CPaneBase>::`scalar deleting destructor'
PUBLIC	??_R4?$CMap@V?$CStringT@DV?$StrTraitMFC_DLL@DV?$ChTraitsCRT@D@ATL@@@@@ATL@@PBDVCPaneBase@ETSLayoutMgr@@V34@@@6B@ ; CMap<ATL::CStringT<char,StrTraitMFC_DLL<char,ATL::ChTraitsCRT<char> > >,char const *,ETSLayoutMgr::CPaneBase,ETSLayoutMgr::CPaneBase>::`RTTI Complete Object Locator'
PUBLIC	??_R0?AV?$CMap@V?$CStringT@DV?$StrTraitMFC_DLL@DV?$ChTraitsCRT@D@ATL@@@@@ATL@@PBDVCPaneBase@ETSLayoutMgr@@V34@@@@8 ; CMap<ATL::CStringT<char,StrTraitMFC_DLL<char,ATL::ChTraitsCRT<char> > >,char const *,ETSLayoutMgr::CPaneBase,ETSLayoutMgr::CPaneBase> `RTTI Type Descriptor'
PUBLIC	??_R3?$CMap@V?$CStringT@DV?$StrTraitMFC_DLL@DV?$ChTraitsCRT@D@ATL@@@@@ATL@@PBDVCPaneBase@ETSLayoutMgr@@V34@@@8 ; CMap<ATL::CStringT<char,StrTraitMFC_DLL<char,ATL::ChTraitsCRT<char> > >,char const *,ETSLayoutMgr::CPaneBase,ETSLayoutMgr::CPaneBase>::`RTTI Class Hierarchy Descriptor'
PUBLIC	??_R2?$CMap@V?$CStringT@DV?$StrTraitMFC_DLL@DV?$ChTraitsCRT@D@ATL@@@@@ATL@@PBDVCPaneBase@ETSLayoutMgr@@V34@@@8 ; CMap<ATL::CStringT<char,StrTraitMFC_DLL<char,ATL::ChTraitsCRT<char> > >,char const *,ETSLayoutMgr::CPaneBase,ETSLayoutMgr::CPaneBase>::`RTTI Base Class Array'
PUBLIC	??_R1A@?0A@A@?$CMap@V?$CStringT@DV?$StrTraitMFC_DLL@DV?$ChTraitsCRT@D@ATL@@@@@ATL@@PBDVCPaneBase@ETSLayoutMgr@@V34@@@8 ; CMap<ATL::CStringT<char,StrTraitMFC_DLL<char,ATL::ChTraitsCRT<char> > >,char const *,ETSLayoutMgr::CPaneBase,ETSLayoutMgr::CPaneBase>::`RTTI Base Class Descriptor at (0,-1,0,0)'
EXTRN	??_E?$CMap@V?$CStringT@DV?$StrTraitMFC_DLL@DV?$ChTraitsCRT@D@ATL@@@@@ATL@@PBDVCPaneBase@ETSLayoutMgr@@V34@@@UAEPAXI@Z:NEAR ; CMap<ATL::CStringT<char,StrTraitMFC_DLL<char,ATL::ChTraitsCRT<char> > >,char const *,ETSLayoutMgr::CPaneBase,ETSLayoutMgr::CPaneBase>::`vector deleting destructor'
EXTRN	?AfxAssertFailedLine@@YGHPBDH@Z:NEAR		; AfxAssertFailedLine
EXTRN	?GetRuntimeClass@CObject@@UBEPAUCRuntimeClass@@XZ:NEAR ; CObject::GetRuntimeClass
EXTRN	??1CObject@@UAE@XZ:NEAR				; CObject::~CObject
EXTRN	??0CObject@@IAE@XZ:NEAR				; CObject::CObject
;	COMDAT xdata$x
; File d:\program files (x86)\microsoft visual studio .net 2003\vc7\atlmfc\include\afxtempl.h
xdata$x	SEGMENT
$T189674 DD	0ffffffffH
	DD	FLAT:$L189670
$T189672 DD	019930520H
	DD	01H
	DD	FLAT:$T189674
	DD	2 DUP(00H)
	DD	2 DUP(00H)
xdata$x	ENDS
;	COMDAT ??_7?$CMap@V?$CStringT@DV?$StrTraitMFC_DLL@DV?$ChTraitsCRT@D@ATL@@@@@ATL@@PBDVCPaneBase@ETSLayoutMgr@@V34@@@6B@
CONST	SEGMENT
??_7?$CMap@V?$CStringT@DV?$StrTraitMFC_DLL@DV?$ChTraitsCRT@D@ATL@@@@@ATL@@PBDVCPaneBase@ETSLayoutMgr@@V34@@@6B@ DD FLAT:??_R4?$CMap@V?$CStringT@DV?$StrTraitMFC_DLL@DV?$ChTraitsCRT@D@ATL@@@@@ATL@@PBDVCPaneBase@ETSLayoutMgr@@V34@@@6B@ ; CMap<ATL::CStringT<char,StrTraitMFC_DLL<char,ATL::ChTraitsCRT<char> > >,char const *,ETSLayoutMgr::CPaneBase,ETSLayoutMgr::CPaneBase>::`vftable'
	DD	FLAT:?GetRuntimeClass@CObject@@UBEPAUCRuntimeClass@@XZ
	DD	FLAT:??_E?$CMap@V?$CStringT@DV?$StrTraitMFC_DLL@DV?$ChTraitsCRT@D@ATL@@@@@ATL@@PBDVCPaneBase@ETSLayoutMgr@@V34@@@UAEPAXI@Z
	DD	FLAT:?Serialize@?$CMap@V?$CStringT@DV?$StrTraitMFC_DLL@DV?$ChTraitsCRT@D@ATL@@@@@ATL@@PBDVCPaneBase@ETSLayoutMgr@@V34@@@UAEXAAVCArchive@@@Z
	DD	FLAT:?AssertValid@?$CMap@V?$CStringT@DV?$StrTraitMFC_DLL@DV?$ChTraitsCRT@D@ATL@@@@@ATL@@PBDVCPaneBase@ETSLayoutMgr@@V34@@@UBEXXZ
	DD	FLAT:?Dump@?$CMap@V?$CStringT@DV?$StrTraitMFC_DLL@DV?$ChTraitsCRT@D@ATL@@@@@ATL@@PBDVCPaneBase@ETSLayoutMgr@@V34@@@UBEXAAVCDumpContext@@@Z
CONST	ENDS
;	COMDAT ??_R4?$CMap@V?$CStringT@DV?$StrTraitMFC_DLL@DV?$ChTraitsCRT@D@ATL@@@@@ATL@@PBDVCPaneBase@ETSLayoutMgr@@V34@@@6B@
rdata$r	SEGMENT
??_R4?$CMap@V?$CStringT@DV?$StrTraitMFC_DLL@DV?$ChTraitsCRT@D@ATL@@@@@ATL@@PBDVCPaneBase@ETSLayoutMgr@@V34@@@6B@ DD 00H ; CMap<ATL::CStringT<char,StrTraitMFC_DLL<char,ATL::ChTraitsCRT<char> > >,char const *,ETSLayoutMgr::CPaneBase,ETSLayoutMgr::CPaneBase>::`RTTI Complete Object Locator'
	DD	00H
	DD	00H
	DD	FLAT:??_R0?AV?$CMap@V?$CStringT@DV?$StrTraitMFC_DLL@DV?$ChTraitsCRT@D@ATL@@@@@ATL@@PBDVCPaneBase@ETSLayoutMgr@@V34@@@@8
	DD	FLAT:??_R3?$CMap@V?$CStringT@DV?$StrTraitMFC_DLL@DV?$ChTraitsCRT@D@ATL@@@@@ATL@@PBDVCPaneBase@ETSLayoutMgr@@V34@@@8
rdata$r	ENDS
;	COMDAT ??_R0?AV?$CMap@V?$CStringT@DV?$StrTraitMFC_DLL@DV?$ChTraitsCRT@D@ATL@@@@@ATL@@PBDVCPaneBase@ETSLayoutMgr@@V34@@@@8
_DATA	SEGMENT
??_R0?AV?$CMap@V?$CStringT@DV?$StrTraitMFC_DLL@DV?$ChTraitsCRT@D@ATL@@@@@ATL@@PBDVCPaneBase@ETSLayoutMgr@@V34@@@@8 DD FLAT:??_7type_info@@6B@ ; CMap<ATL::CStringT<char,StrTraitMFC_DLL<char,ATL::ChTraitsCRT<char> > >,char const *,ETSLayoutMgr::CPaneBase,ETSLayoutMgr::CPaneBase> `RTTI Type Descriptor'
	DD	00H
	DB	'.?AV?$CMap@V?$CStringT@DV?$StrTraitMFC_DLL@DV?$ChTraitsC'
	DB	'RT@D@ATL@@@@@ATL@@PBDVCPaneBase@ETSLayoutMgr@@V34@@@', 00H
_DATA	ENDS
;	COMDAT ??_R3?$CMap@V?$CStringT@DV?$StrTraitMFC_DLL@DV?$ChTraitsCRT@D@ATL@@@@@ATL@@PBDVCPaneBase@ETSLayoutMgr@@V34@@@8
rdata$r	SEGMENT
??_R3?$CMap@V?$CStringT@DV?$StrTraitMFC_DLL@DV?$ChTraitsCRT@D@ATL@@@@@ATL@@PBDVCPaneBase@ETSLayoutMgr@@V34@@@8 DD 00H ; CMap<ATL::CStringT<char,StrTraitMFC_DLL<char,ATL::ChTraitsCRT<char> > >,char const *,ETSLayoutMgr::CPaneBase,ETSLayoutMgr::CPaneBase>::`RTTI Class Hierarchy Descriptor'
	DD	00H
	DD	02H
	DD	FLAT:??_R2?$CMap@V?$CStringT@DV?$StrTraitMFC_DLL@DV?$ChTraitsCRT@D@ATL@@@@@ATL@@PBDVCPaneBase@ETSLayoutMgr@@V34@@@8
rdata$r	ENDS
;	COMDAT ??_R2?$CMap@V?$CStringT@DV?$StrTraitMFC_DLL@DV?$ChTraitsCRT@D@ATL@@@@@ATL@@PBDVCPaneBase@ETSLayoutMgr@@V34@@@8
rdata$r	SEGMENT
??_R2?$CMap@V?$CStringT@DV?$StrTraitMFC_DLL@DV?$ChTraitsCRT@D@ATL@@@@@ATL@@PBDVCPaneBase@ETSLayoutMgr@@V34@@@8 DD FLAT:??_R1A@?0A@A@?$CMap@V?$CStringT@DV?$StrTraitMFC_DLL@DV?$ChTraitsCRT@D@ATL@@@@@ATL@@PBDVCPaneBase@ETSLayoutMgr@@V34@@@8 ; CMap<ATL::CStringT<char,StrTraitMFC_DLL<char,ATL::ChTraitsCRT<char> > >,char const *,ETSLayoutMgr::CPaneBase,ETSLayoutMgr::CPaneBase>::`RTTI Base Class Array'
	DD	FLAT:??_R1A@?0A@A@CObject@@8
rdata$r	ENDS
;	COMDAT ??_R1A@?0A@A@?$CMap@V?$CStringT@DV?$StrTraitMFC_DLL@DV?$ChTraitsCRT@D@ATL@@@@@ATL@@PBDVCPaneBase@ETSLayoutMgr@@V34@@@8
rdata$r	SEGMENT
??_R1A@?0A@A@?$CMap@V?$CStringT@DV?$StrTraitMFC_DLL@DV?$ChTraitsCRT@D@ATL@@@@@ATL@@PBDVCPaneBase@ETSLayoutMgr@@V34@@@8 DD FLAT:??_R0?AV?$CMap@V?$CStringT@DV?$StrTraitMFC_DLL@DV?$ChTraitsCRT@D@ATL@@@@@ATL@@PBDVCPaneBase@ETSLayoutMgr@@V34@@@@8 ; CMap<ATL::CStringT<char,StrTraitMFC_DLL<char,ATL::ChTraitsCRT<char> > >,char const *,ETSLayoutMgr::CPaneBase,ETSLayoutMgr::CPaneBase>::`RTTI Base Class Descriptor at (0,-1,0,0)'
	DD	01H
	DD	00H
	DD	0ffffffffH
	DD	00H
	DD	00H
rdata$r	ENDS
;	COMDAT ??_R1A@?0A@A@CObject@@8
rdata$r	SEGMENT
??_R1A@?0A@A@CObject@@8 DD FLAT:??_R0?AVCObject@@@8	; CObject::`RTTI Base Class Descriptor at (0,-1,0,0)'
	DD	00H
	DD	00H
	DD	0ffffffffH
	DD	00H
	DD	00H
rdata$r	ENDS
;	COMDAT ??_R0?AVCObject@@@8
_DATA	SEGMENT
??_R0?AVCObject@@@8 DD FLAT:??_7type_info@@6B@		; CObject `RTTI Type Descriptor'
	DD	00H
	DB	'.?AVCObject@@', 00H
; Function compile flags: /Odt /RTCsu
_DATA	ENDS
;	COMDAT ??0?$CMap@V?$CStringT@DV?$StrTraitMFC_DLL@DV?$ChTraitsCRT@D@ATL@@@@@ATL@@PBDVCPaneBase@ETSLayoutMgr@@V34@@@QAE@H@Z
_TEXT	SEGMENT
_this$ = -16						; size = 4
__$EHRec$ = -12						; size = 12
_nBlockSize$ = 8					; size = 4
??0?$CMap@V?$CStringT@DV?$StrTraitMFC_DLL@DV?$ChTraitsCRT@D@ATL@@@@@ATL@@PBDVCPaneBase@ETSLayoutMgr@@V34@@@QAE@H@Z PROC NEAR ; CMap<ATL::CStringT<char,StrTraitMFC_DLL<char,ATL::ChTraitsCRT<char> > >,char const *,ETSLayoutMgr::CPaneBase,ETSLayoutMgr::CPaneBase>::CMap<ATL::CStringT<char,StrTraitMFC_DLL<char,ATL::ChTraitsCRT<char> > >,char const *,ETSLayoutMgr::CPaneBase,ETSLayoutMgr::CPaneBase>, COMDAT
; _this$ = ecx

; 1399 : {

  00000	55		 push	 ebp
  00001	8b ec		 mov	 ebp, esp
  00003	6a ff		 push	 -1
  00005	68 00 00 00 00	 push	 __ehhandler$??0?$CMap@V?$CStringT@DV?$StrTraitMFC_DLL@DV?$ChTraitsCRT@D@ATL@@@@@ATL@@PBDVCPaneBase@ETSLayoutMgr@@V34@@@QAE@H@Z
  0000a	64 a1 00 00 00
	00		 mov	 eax, DWORD PTR fs:__except_list
  00010	50		 push	 eax
  00011	64 89 25 00 00
	00 00		 mov	 DWORD PTR fs:__except_list, esp
  00018	51		 push	 ecx
  00019	c7 45 f0 cc cc
	cc cc		 mov	 DWORD PTR [ebp-16], -858993460 ; ccccccccH
  00020	89 4d f0	 mov	 DWORD PTR _this$[ebp], ecx
  00023	8b 4d f0	 mov	 ecx, DWORD PTR _this$[ebp]
  00026	e8 00 00 00 00	 call	 ??0CObject@@IAE@XZ	; CObject::CObject
  0002b	c7 45 fc 00 00
	00 00		 mov	 DWORD PTR __$EHRec$[ebp+8], 0
  00032	8b 45 f0	 mov	 eax, DWORD PTR _this$[ebp]
  00035	c7 00 00 00 00
	00		 mov	 DWORD PTR [eax], OFFSET FLAT:??_7?$CMap@V?$CStringT@DV?$StrTraitMFC_DLL@DV?$ChTraitsCRT@D@ATL@@@@@ATL@@PBDVCPaneBase@ETSLayoutMgr@@V34@@@6B@

; 1400 : 	ASSERT(nBlockSize > 0);

  0003b	83 7d 08 00	 cmp	 DWORD PTR _nBlockSize$[ebp], 0
  0003f	7f 14		 jg	 SHORT $L189669
  00041	68 78 05 00 00	 push	 1400			; 00000578H
  00046	68 00 00 00 00	 push	 OFFSET FLAT:$SG188539
  0004b	e8 00 00 00 00	 call	 ?AfxAssertFailedLine@@YGHPBDH@Z ; AfxAssertFailedLine
  00050	85 c0		 test	 eax, eax
  00052	74 01		 je	 SHORT $L189669
  00054	cc		 int	 3
$L189669:

; 1401 : 
; 1402 : 	m_pHashTable = NULL;

  00055	8b 55 f0	 mov	 edx, DWORD PTR _this$[ebp]
  00058	c7 42 04 00 00
	00 00		 mov	 DWORD PTR [edx+4], 0

; 1403 : 	m_nHashTableSize = 17;  // default size

  0005f	8b 45 f0	 mov	 eax, DWORD PTR _this$[ebp]
  00062	c7 40 08 11 00
	00 00		 mov	 DWORD PTR [eax+8], 17	; 00000011H

; 1404 : 	m_nCount = 0;

  00069	8b 4d f0	 mov	 ecx, DWORD PTR _this$[ebp]
  0006c	c7 41 0c 00 00
	00 00		 mov	 DWORD PTR [ecx+12], 0

; 1405 : 	m_pFreeList = NULL;

  00073	8b 55 f0	 mov	 edx, DWORD PTR _this$[ebp]
  00076	c7 42 10 00 00
	00 00		 mov	 DWORD PTR [edx+16], 0

; 1406 : 	m_pBlocks = NULL;

  0007d	8b 45 f0	 mov	 eax, DWORD PTR _this$[ebp]
  00080	c7 40 14 00 00
	00 00		 mov	 DWORD PTR [eax+20], 0

; 1407 : 	m_nBlockSize = nBlockSize;

  00087	8b 4d f0	 mov	 ecx, DWORD PTR _this$[ebp]
  0008a	8b 55 08	 mov	 edx, DWORD PTR _nBlockSize$[ebp]
  0008d	89 51 18	 mov	 DWORD PTR [ecx+24], edx

; 1408 : }

  00090	c7 45 fc ff ff
	ff ff		 mov	 DWORD PTR __$EHRec$[ebp+8], -1
  00097	8b 45 f0	 mov	 eax, DWORD PTR _this$[ebp]
  0009a	8b 4d f4	 mov	 ecx, DWORD PTR __$EHRec$[ebp]
  0009d	64 89 0d 00 00
	00 00		 mov	 DWORD PTR fs:__except_list, ecx
  000a4	83 c4 10	 add	 esp, 16			; 00000010H
  000a7	3b ec		 cmp	 ebp, esp
  000a9	e8 00 00 00 00	 call	 __RTC_CheckEsp
  000ae	8b e5		 mov	 esp, ebp
  000b0	5d		 pop	 ebp
  000b1	c2 04 00	 ret	 4
_TEXT	ENDS
;	COMDAT text$x
text$x	SEGMENT
$L189670:
  00000	8b 4d f0	 mov	 ecx, DWORD PTR _this$[ebp]
  00003	e9 00 00 00 00	 jmp	 ??1CObject@@UAE@XZ	; CObject::~CObject
__ehhandler$??0?$CMap@V?$CStringT@DV?$StrTraitMFC_DLL@DV?$ChTraitsCRT@D@ATL@@@@@ATL@@PBDVCPaneBase@ETSLayoutMgr@@V34@@@QAE@H@Z:
  00008	b8 00 00 00 00	 mov	 eax, OFFSET FLAT:$T189672
  0000d	e9 00 00 00 00	 jmp	 ___CxxFrameHandler
text$x	ENDS
??0?$CMap@V?$CStringT@DV?$StrTraitMFC_DLL@DV?$ChTraitsCRT@D@ATL@@@@@ATL@@PBDVCPaneBase@ETSLayoutMgr@@V34@@@QAE@H@Z ENDP ; CMap<ATL::CStringT<char,StrTraitMFC_DLL<char,ATL::ChTraitsCRT<char> > >,char const *,ETSLayoutMgr::CPaneBase,ETSLayoutMgr::CPaneBase>::CMap<ATL::CStringT<char,StrTraitMFC_DLL<char,ATL::ChTraitsCRT<char> > >,char const *,ETSLayoutMgr::CPaneBase,ETSLayoutMgr::CPaneBase>
PUBLIC	?RemoveAll@?$CMap@V?$CStringT@DV?$StrTraitMFC_DLL@DV?$ChTraitsCRT@D@ATL@@@@@ATL@@PBDVCPaneBase@ETSLayoutMgr@@V34@@@QAEXXZ ; CMap<ATL::CStringT<char,StrTraitMFC_DLL<char,ATL::ChTraitsCRT<char> > >,char const *,ETSLayoutMgr::CPaneBase,ETSLayoutMgr::CPaneBase>::RemoveAll
;	COMDAT xdata$x
xdata$x	SEGMENT
$T189683 DD	0ffffffffH
	DD	FLAT:$L189679
$T189681 DD	019930520H
	DD	01H
	DD	FLAT:$T189683
	DD	2 DUP(00H)
	DD	2 DUP(00H)
; Function compile flags: /Odt /RTCsu
xdata$x	ENDS
;	COMDAT ??1?$CMap@V?$CStringT@DV?$StrTraitMFC_DLL@DV?$ChTraitsCRT@D@ATL@@@@@ATL@@PBDVCPaneBase@ETSLayoutMgr@@V34@@@UAE@XZ
_TEXT	SEGMENT
_this$ = -16						; size = 4
__$EHRec$ = -12						; size = 12
??1?$CMap@V?$CStringT@DV?$StrTraitMFC_DLL@DV?$ChTraitsCRT@D@ATL@@@@@ATL@@PBDVCPaneBase@ETSLayoutMgr@@V34@@@UAE@XZ PROC NEAR ; CMap<ATL::CStringT<char,StrTraitMFC_DLL<char,ATL::ChTraitsCRT<char> > >,char const *,ETSLayoutMgr::CPaneBase,ETSLayoutMgr::CPaneBase>::~CMap<ATL::CStringT<char,StrTraitMFC_DLL<char,ATL::ChTraitsCRT<char> > >,char const *,ETSLayoutMgr::CPaneBase,ETSLayoutMgr::CPaneBase>, COMDAT
; _this$ = ecx

; 1469 : {

  00000	55		 push	 ebp
  00001	8b ec		 mov	 ebp, esp
  00003	6a ff		 push	 -1
  00005	68 00 00 00 00	 push	 __ehhandler$??1?$CMap@V?$CStringT@DV?$StrTraitMFC_DLL@DV?$ChTraitsCRT@D@ATL@@@@@ATL@@PBDVCPaneBase@ETSLayoutMgr@@V34@@@UAE@XZ
  0000a	64 a1 00 00 00
	00		 mov	 eax, DWORD PTR fs:__except_list
  00010	50		 push	 eax
  00011	64 89 25 00 00
	00 00		 mov	 DWORD PTR fs:__except_list, esp
  00018	51		 push	 ecx
  00019	c7 45 f0 cc cc
	cc cc		 mov	 DWORD PTR [ebp-16], -858993460 ; ccccccccH
  00020	89 4d f0	 mov	 DWORD PTR _this$[ebp], ecx
  00023	8b 45 f0	 mov	 eax, DWORD PTR _this$[ebp]
  00026	c7 00 00 00 00
	00		 mov	 DWORD PTR [eax], OFFSET FLAT:??_7?$CMap@V?$CStringT@DV?$StrTraitMFC_DLL@DV?$ChTraitsCRT@D@ATL@@@@@ATL@@PBDVCPaneBase@ETSLayoutMgr@@V34@@@6B@
  0002c	c7 45 fc 00 00
	00 00		 mov	 DWORD PTR __$EHRec$[ebp+8], 0

; 1470 : 	RemoveAll();

  00033	8b 4d f0	 mov	 ecx, DWORD PTR _this$[ebp]
  00036	e8 00 00 00 00	 call	 ?RemoveAll@?$CMap@V?$CStringT@DV?$StrTraitMFC_DLL@DV?$ChTraitsCRT@D@ATL@@@@@ATL@@PBDVCPaneBase@ETSLayoutMgr@@V34@@@QAEXXZ ; CMap<ATL::CStringT<char,StrTraitMFC_DLL<char,ATL::ChTraitsCRT<char> > >,char const *,ETSLayoutMgr::CPaneBase,ETSLayoutMgr::CPaneBase>::RemoveAll

; 1471 : 	ASSERT(m_nCount == 0);

  0003b	8b 4d f0	 mov	 ecx, DWORD PTR _this$[ebp]
  0003e	83 79 0c 00	 cmp	 DWORD PTR [ecx+12], 0
  00042	74 14		 je	 SHORT $L188546
  00044	68 bf 05 00 00	 push	 1471			; 000005bfH
  00049	68 00 00 00 00	 push	 OFFSET FLAT:$SG188548
  0004e	e8 00 00 00 00	 call	 ?AfxAssertFailedLine@@YGHPBDH@Z ; AfxAssertFailedLine
  00053	85 c0		 test	 eax, eax
  00055	74 01		 je	 SHORT $L188546
  00057	cc		 int	 3
$L188546:

; 1472 : }

  00058	c7 45 fc ff ff
	ff ff		 mov	 DWORD PTR __$EHRec$[ebp+8], -1
  0005f	8b 4d f0	 mov	 ecx, DWORD PTR _this$[ebp]
  00062	e8 00 00 00 00	 call	 ??1CObject@@UAE@XZ	; CObject::~CObject
  00067	8b 4d f4	 mov	 ecx, DWORD PTR __$EHRec$[ebp]
  0006a	64 89 0d 00 00
	00 00		 mov	 DWORD PTR fs:__except_list, ecx
  00071	83 c4 10	 add	 esp, 16			; 00000010H
  00074	3b ec		 cmp	 ebp, esp
  00076	e8 00 00 00 00	 call	 __RTC_CheckEsp
  0007b	8b e5		 mov	 esp, ebp
  0007d	5d		 pop	 ebp
  0007e	c3		 ret	 0
_TEXT	ENDS
;	COMDAT text$x
text$x	SEGMENT
$L189679:
  00000	8b 4d f0	 mov	 ecx, DWORD PTR _this$[ebp]
  00003	e9 00 00 00 00	 jmp	 ??1CObject@@UAE@XZ	; CObject::~CObject
__ehhandler$??1?$CMap@V?$CStringT@DV?$StrTraitMFC_DLL@DV?$ChTraitsCRT@D@ATL@@@@@ATL@@PBDVCPaneBase@ETSLayoutMgr@@V34@@@UAE@XZ:
  00008	b8 00 00 00 00	 mov	 eax, OFFSET FLAT:$T189681
  0000d	e9 00 00 00 00	 jmp	 ___CxxFrameHandler
text$x	ENDS
??1?$CMap@V?$CStringT@DV?$StrTraitMFC_DLL@DV?$ChTraitsCRT@D@ATL@@@@@ATL@@PBDVCPaneBase@ETSLayoutMgr@@V34@@@UAE@XZ ENDP ; CMap<ATL::CStringT<char,StrTraitMFC_DLL<char,ATL::ChTraitsCRT<char> > >,char const *,ETSLayoutMgr::CPaneBase,ETSLayoutMgr::CPaneBase>::~CMap<ATL::CStringT<char,StrTraitMFC_DLL<char,ATL::ChTraitsCRT<char> > >,char const *,ETSLayoutMgr::CPaneBase,ETSLayoutMgr::CPaneBase>
PUBLIC	??$SerializeElements@VCPaneBase@ETSLayoutMgr@@@@YGXAAVCArchive@@PAVCPaneBase@ETSLayoutMgr@@H@Z ; SerializeElements<ETSLayoutMgr::CPaneBase>
PUBLIC	?SetAt@?$CMap@V?$CStringT@DV?$StrTraitMFC_DLL@DV?$ChTraitsCRT@D@ATL@@@@@ATL@@PBDVCPaneBase@ETSLayoutMgr@@V34@@@QAEXPBDVCPaneBase@ETSLayoutMgr@@@Z ; CMap<ATL::CStringT<char,StrTraitMFC_DLL<char,ATL::ChTraitsCRT<char> > >,char const *,ETSLayoutMgr::CPaneBase,ETSLayoutMgr::CPaneBase>::SetAt
EXTRN	??_L@YGXPAXIHP6EX0@Z1@Z:NEAR			; `eh vector constructor iterator'
EXTRN	??_M@YGXPAXIHP6EX0@Z@Z:NEAR			; `eh vector destructor iterator'
EXTRN	?AfxAssertValidObject@@YGXPBVCObject@@PBDH@Z:NEAR ; AfxAssertValidObject
EXTRN	?Serialize@CObject@@UAEXAAVCArchive@@@Z:NEAR	; CObject::Serialize
EXTRN	??$SerializeElements@V?$CStringT@DV?$StrTraitMFC_DLL@DV?$ChTraitsCRT@D@ATL@@@@@ATL@@@@YGXAAVCArchive@@PAV?$CStringT@DV?$StrTraitMFC_DLL@DV?$ChTraitsCRT@D@ATL@@@@@ATL@@H@Z:NEAR ; SerializeElements<ATL::CStringT<char,StrTraitMFC_DLL<char,ATL::ChTraitsCRT<char> > > >
EXTRN	__imp_??B?$CSimpleStringT@D$00@ATL@@QBEPBDXZ:NEAR
EXTRN	?IsStoring@CArchive@@QBEHXZ:NEAR		; CArchive::IsStoring
EXTRN	??0CPaneBase@ETSLayoutMgr@@QAE@ABV01@@Z:NEAR	; ETSLayoutMgr::CPaneBase::CPaneBase
EXTRN	?ReadCount@CArchive@@QAEKXZ:NEAR		; CArchive::ReadCount
EXTRN	?WriteCount@CArchive@@QAEXK@Z:NEAR		; CArchive::WriteCount
;	COMDAT xdata$x
xdata$x	SEGMENT
$T189699 DD	0ffffffffH
	DD	FLAT:$L189689
	DD	00H
	DD	FLAT:$L189690
$T189693 DD	019930520H
	DD	02H
	DD	FLAT:$T189699
	DD	2 DUP(00H)
	DD	2 DUP(00H)
; Function compile flags: /Odt /RTCsu
xdata$x	ENDS
;	COMDAT ?Serialize@?$CMap@V?$CStringT@DV?$StrTraitMFC_DLL@DV?$ChTraitsCRT@D@ATL@@@@@ATL@@PBDVCPaneBase@ETSLayoutMgr@@V34@@@UAEXAAVCArchive@@@Z
_TEXT	SEGMENT
tv187 = -72						; size = 4
tv134 = -68						; size = 4
$T189688 = -64						; size = 4
_newValue$188610 = -56					; size = 4
_newKey$188606 = -44					; size = 4
_nNewCount$188602 = -36					; size = 4
_pValue$188593 = -32					; size = 4
_pKey$188592 = -28					; size = 4
_pAssoc$188566 = -24					; size = 4
_nHash$188562 = -20					; size = 4
_this$ = -16						; size = 4
__$EHRec$ = -12						; size = 12
_ar$ = 8						; size = 4
?Serialize@?$CMap@V?$CStringT@DV?$StrTraitMFC_DLL@DV?$ChTraitsCRT@D@ATL@@@@@ATL@@PBDVCPaneBase@ETSLayoutMgr@@V34@@@UAEXAAVCArchive@@@Z PROC NEAR ; CMap<ATL::CStringT<char,StrTraitMFC_DLL<char,ATL::ChTraitsCRT<char> > >,char const *,ETSLayoutMgr::CPaneBase,ETSLayoutMgr::CPaneBase>::Serialize, COMDAT
; _this$ = ecx

; 1739 : {

  00000	55		 push	 ebp
  00001	8b ec		 mov	 ebp, esp
  00003	6a ff		 push	 -1
  00005	68 00 00 00 00	 push	 __ehhandler$?Serialize@?$CMap@V?$CStringT@DV?$StrTraitMFC_DLL@DV?$ChTraitsCRT@D@ATL@@@@@ATL@@PBDVCPaneBase@ETSLayoutMgr@@V34@@@UAEXAAVCArchive@@@Z
  0000a	64 a1 00 00 00
	00		 mov	 eax, DWORD PTR fs:__except_list
  00010	50		 push	 eax
  00011	64 89 25 00 00
	00 00		 mov	 DWORD PTR fs:__except_list, esp
  00018	83 ec 3c	 sub	 esp, 60			; 0000003cH
  0001b	56		 push	 esi
  0001c	57		 push	 edi
  0001d	51		 push	 ecx
  0001e	8d 7d b8	 lea	 edi, DWORD PTR [ebp-72]
  00021	b9 0f 00 00 00	 mov	 ecx, 15			; 0000000fH
  00026	b8 cc cc cc cc	 mov	 eax, -858993460		; ccccccccH
  0002b	f3 ab		 rep stosd
  0002d	59		 pop	 ecx
  0002e	89 4d f0	 mov	 DWORD PTR _this$[ebp], ecx

; 1740 : 	ASSERT_VALID(this);

  00031	68 cc 06 00 00	 push	 1740			; 000006ccH
  00036	68 00 00 00 00	 push	 OFFSET FLAT:$SG188557
  0003b	8b 45 f0	 mov	 eax, DWORD PTR _this$[ebp]
  0003e	50		 push	 eax
  0003f	e8 00 00 00 00	 call	 ?AfxAssertValidObject@@YGXPBVCObject@@PBDH@Z ; AfxAssertValidObject

; 1741 : 
; 1742 : 	CObject::Serialize(ar);

  00044	8b 4d 08	 mov	 ecx, DWORD PTR _ar$[ebp]
  00047	51		 push	 ecx
  00048	8b 4d f0	 mov	 ecx, DWORD PTR _this$[ebp]
  0004b	e8 00 00 00 00	 call	 ?Serialize@CObject@@UAEXAAVCArchive@@@Z ; CObject::Serialize

; 1743 : 
; 1744 : 	if (ar.IsStoring())

  00050	8b 4d 08	 mov	 ecx, DWORD PTR _ar$[ebp]
  00053	e8 00 00 00 00	 call	 ?IsStoring@CArchive@@QBEHXZ ; CArchive::IsStoring
  00058	85 c0		 test	 eax, eax
  0005a	0f 84 ad 00 00
	00		 je	 $L188558

; 1745 : 	{
; 1746 : 		ar.WriteCount(m_nCount);

  00060	8b 55 f0	 mov	 edx, DWORD PTR _this$[ebp]
  00063	8b 42 0c	 mov	 eax, DWORD PTR [edx+12]
  00066	50		 push	 eax
  00067	8b 4d 08	 mov	 ecx, DWORD PTR _ar$[ebp]
  0006a	e8 00 00 00 00	 call	 ?WriteCount@CArchive@@QAEXK@Z ; CArchive::WriteCount

; 1747 : 		if (m_nCount == 0)

  0006f	8b 4d f0	 mov	 ecx, DWORD PTR _this$[ebp]
  00072	83 79 0c 00	 cmp	 DWORD PTR [ecx+12], 0
  00076	75 05		 jne	 SHORT $L188559

; 1748 : 			return;  // nothing more to do

  00078	e9 71 01 00 00	 jmp	 $L188556
$L188559:

; 1749 : 
; 1750 : 		ASSERT(m_pHashTable != NULL);

  0007d	8b 55 f0	 mov	 edx, DWORD PTR _this$[ebp]
  00080	83 7a 04 00	 cmp	 DWORD PTR [edx+4], 0
  00084	75 14		 jne	 SHORT $L189687
  00086	68 d6 06 00 00	 push	 1750			; 000006d6H
  0008b	68 00 00 00 00	 push	 OFFSET FLAT:$SG188561
  00090	e8 00 00 00 00	 call	 ?AfxAssertFailedLine@@YGHPBDH@Z ; AfxAssertFailedLine
  00095	85 c0		 test	 eax, eax
  00097	74 01		 je	 SHORT $L189687
  00099	cc		 int	 3
$L189687:

; 1751 : 		for (UINT nHash = 0; nHash < m_nHashTableSize; nHash++)

  0009a	c7 45 ec 00 00
	00 00		 mov	 DWORD PTR _nHash$188562[ebp], 0
  000a1	eb 09		 jmp	 SHORT $L188563
$L188564:
  000a3	8b 4d ec	 mov	 ecx, DWORD PTR _nHash$188562[ebp]
  000a6	83 c1 01	 add	 ecx, 1
  000a9	89 4d ec	 mov	 DWORD PTR _nHash$188562[ebp], ecx
$L188563:
  000ac	8b 55 f0	 mov	 edx, DWORD PTR _this$[ebp]
  000af	8b 45 ec	 mov	 eax, DWORD PTR _nHash$188562[ebp]
  000b2	3b 42 08	 cmp	 eax, DWORD PTR [edx+8]
  000b5	73 51		 jae	 SHORT $L188565

; 1752 : 		{
; 1753 : 			CAssoc* pAssoc;
; 1754 : 			for (pAssoc = m_pHashTable[nHash]; pAssoc != NULL;

  000b7	8b 4d f0	 mov	 ecx, DWORD PTR _this$[ebp]
  000ba	8b 51 04	 mov	 edx, DWORD PTR [ecx+4]
  000bd	8b 45 ec	 mov	 eax, DWORD PTR _nHash$188562[ebp]
  000c0	8b 0c 82	 mov	 ecx, DWORD PTR [edx+eax*4]
  000c3	89 4d e8	 mov	 DWORD PTR _pAssoc$188566[ebp], ecx

; 1755 : 			  pAssoc = pAssoc->pNext)

  000c6	eb 09		 jmp	 SHORT $L188589
$L188590:
  000c8	8b 55 e8	 mov	 edx, DWORD PTR _pAssoc$188566[ebp]
  000cb	8b 42 08	 mov	 eax, DWORD PTR [edx+8]
  000ce	89 45 e8	 mov	 DWORD PTR _pAssoc$188566[ebp], eax
$L188589:
  000d1	83 7d e8 00	 cmp	 DWORD PTR _pAssoc$188566[ebp], 0
  000d5	74 2f		 je	 SHORT $L188591

; 1756 : 			{
; 1757 : 				KEY* pKey;
; 1758 : 				VALUE* pValue;
; 1759 : 				/* 
; 1760 : 				 * in some cases the & operator might be overloaded, and we cannot use it to 
; 1761 : 				 * obtain the address of a given object.  We then use the following trick to 
; 1762 : 				 * get the address
; 1763 : 				 */
; 1764 : 				pKey = reinterpret_cast< KEY* >( &reinterpret_cast< int& >( const_cast< KEY& > ( static_cast< const KEY& >( pAssoc->key ) ) ) );

  000d7	8b 4d e8	 mov	 ecx, DWORD PTR _pAssoc$188566[ebp]
  000da	89 4d e4	 mov	 DWORD PTR _pKey$188592[ebp], ecx

; 1765 : 				pValue = reinterpret_cast< VALUE* >( &reinterpret_cast< int& >( static_cast< VALUE& >( pAssoc->value ) ) );

  000dd	8b 55 e8	 mov	 edx, DWORD PTR _pAssoc$188566[ebp]
  000e0	83 c2 04	 add	 edx, 4
  000e3	89 55 e0	 mov	 DWORD PTR _pValue$188593[ebp], edx

; 1766 : 				SerializeElements<KEY>(ar, pKey, 1);

  000e6	6a 01		 push	 1
  000e8	8b 45 e4	 mov	 eax, DWORD PTR _pKey$188592[ebp]
  000eb	50		 push	 eax
  000ec	8b 4d 08	 mov	 ecx, DWORD PTR _ar$[ebp]
  000ef	51		 push	 ecx
  000f0	e8 00 00 00 00	 call	 ??$SerializeElements@V?$CStringT@DV?$StrTraitMFC_DLL@DV?$ChTraitsCRT@D@ATL@@@@@ATL@@@@YGXAAVCArchive@@PAV?$CStringT@DV?$StrTraitMFC_DLL@DV?$ChTraitsCRT@D@ATL@@@@@ATL@@H@Z ; SerializeElements<ATL::CStringT<char,StrTraitMFC_DLL<char,ATL::ChTraitsCRT<char> > > >

; 1767 : 				SerializeElements<VALUE>(ar, pValue, 1);

  000f5	6a 01		 push	 1
  000f7	8b 55 e0	 mov	 edx, DWORD PTR _pValue$188593[ebp]
  000fa	52		 push	 edx
  000fb	8b 45 08	 mov	 eax, DWORD PTR _ar$[ebp]
  000fe	50		 push	 eax
  000ff	e8 00 00 00 00	 call	 ??$SerializeElements@VCPaneBase@ETSLayoutMgr@@@@YGXAAVCArchive@@PAVCPaneBase@ETSLayoutMgr@@H@Z ; SerializeElements<ETSLayoutMgr::CPaneBase>

; 1768 : 			}

  00104	eb c2		 jmp	 SHORT $L188590
$L188591:

; 1769 : 		}

  00106	eb 9b		 jmp	 SHORT $L188564
$L188565:

; 1770 : 	}
; 1771 : 	else

  00108	e9 e1 00 00 00	 jmp	 $L188556
$L188558:

; 1772 : 	{
; 1773 : 		DWORD_PTR nNewCount = ar.ReadCount();

  0010d	8b 4d 08	 mov	 ecx, DWORD PTR _ar$[ebp]
  00110	e8 00 00 00 00	 call	 ?ReadCount@CArchive@@QAEKXZ ; CArchive::ReadCount
  00115	89 45 dc	 mov	 DWORD PTR _nNewCount$188602[ebp], eax
$L188604:

; 1774 : 		while (nNewCount--)

  00118	8b 4d dc	 mov	 ecx, DWORD PTR _nNewCount$188602[ebp]
  0011b	89 4d bc	 mov	 DWORD PTR tv134[ebp], ecx
  0011e	8b 55 dc	 mov	 edx, DWORD PTR _nNewCount$188602[ebp]
  00121	83 ea 01	 sub	 edx, 1
  00124	89 55 dc	 mov	 DWORD PTR _nNewCount$188602[ebp], edx
  00127	83 7d bc 00	 cmp	 DWORD PTR tv134[ebp], 0
  0012b	0f 84 bd 00 00
	00		 je	 $L188556

; 1775 : 		{
; 1776 : 			KEY newKey[1];

  00131	a1 00 00 00 00	 mov	 eax, DWORD PTR __imp_??1?$CStringT@DV?$StrTraitMFC_DLL@DV?$ChTraitsCRT@D@ATL@@@@@ATL@@QAE@XZ
  00136	50		 push	 eax
  00137	8b 0d 00 00 00
	00		 mov	 ecx, DWORD PTR __imp_??0?$CStringT@DV?$StrTraitMFC_DLL@DV?$ChTraitsCRT@D@ATL@@@@@ATL@@QAE@XZ
  0013d	51		 push	 ecx
  0013e	6a 01		 push	 1
  00140	6a 04		 push	 4
  00142	8d 55 d4	 lea	 edx, DWORD PTR _newKey$188606[ebp]
  00145	52		 push	 edx
  00146	e8 00 00 00 00	 call	 ??_L@YGXPAXIHP6EX0@Z1@Z
  0014b	c7 45 fc 00 00
	00 00		 mov	 DWORD PTR __$EHRec$[ebp+8], 0

; 1777 : 			VALUE newValue[1];

  00152	68 00 00 00 00	 push	 OFFSET FLAT:??1CPaneBase@ETSLayoutMgr@@QAE@XZ ; ETSLayoutMgr::CPaneBase::~CPaneBase
  00157	68 00 00 00 00	 push	 OFFSET FLAT:??0CPaneBase@ETSLayoutMgr@@QAE@XZ ; ETSLayoutMgr::CPaneBase::CPaneBase
  0015c	6a 01		 push	 1
  0015e	6a 04		 push	 4
  00160	8d 45 c8	 lea	 eax, DWORD PTR _newValue$188610[ebp]
  00163	50		 push	 eax
  00164	e8 00 00 00 00	 call	 ??_L@YGXPAXIHP6EX0@Z1@Z
  00169	c6 45 fc 01	 mov	 BYTE PTR __$EHRec$[ebp+8], 1

; 1778 : 			SerializeElements<KEY>(ar, newKey, 1);

  0016d	6a 01		 push	 1
  0016f	8d 4d d4	 lea	 ecx, DWORD PTR _newKey$188606[ebp]
  00172	51		 push	 ecx
  00173	8b 55 08	 mov	 edx, DWORD PTR _ar$[ebp]
  00176	52		 push	 edx
  00177	e8 00 00 00 00	 call	 ??$SerializeElements@V?$CStringT@DV?$StrTraitMFC_DLL@DV?$ChTraitsCRT@D@ATL@@@@@ATL@@@@YGXAAVCArchive@@PAV?$CStringT@DV?$StrTraitMFC_DLL@DV?$ChTraitsCRT@D@ATL@@@@@ATL@@H@Z ; SerializeElements<ATL::CStringT<char,StrTraitMFC_DLL<char,ATL::ChTraitsCRT<char> > > >

; 1779 : 			SerializeElements<VALUE>(ar, newValue, 1);

  0017c	6a 01		 push	 1
  0017e	8d 45 c8	 lea	 eax, DWORD PTR _newValue$188610[ebp]
  00181	50		 push	 eax
  00182	8b 4d 08	 mov	 ecx, DWORD PTR _ar$[ebp]
  00185	51		 push	 ecx
  00186	e8 00 00 00 00	 call	 ??$SerializeElements@VCPaneBase@ETSLayoutMgr@@@@YGXAAVCArchive@@PAVCPaneBase@ETSLayoutMgr@@H@Z ; SerializeElements<ETSLayoutMgr::CPaneBase>

; 1780 : 			SetAt(newKey[0], newValue[0]);

  0018b	51		 push	 ecx
  0018c	8b cc		 mov	 ecx, esp
  0018e	89 65 c0	 mov	 DWORD PTR $T189688[ebp], esp
  00191	8d 55 c8	 lea	 edx, DWORD PTR _newValue$188610[ebp]
  00194	52		 push	 edx
  00195	e8 00 00 00 00	 call	 ??0CPaneBase@ETSLayoutMgr@@QAE@ABV01@@Z ; ETSLayoutMgr::CPaneBase::CPaneBase
  0019a	89 45 b8	 mov	 DWORD PTR tv187[ebp], eax
  0019d	8b f4		 mov	 esi, esp
  0019f	8d 4d d4	 lea	 ecx, DWORD PTR _newKey$188606[ebp]
  001a2	ff 15 00 00 00
	00		 call	 DWORD PTR __imp_??B?$CSimpleStringT@D$00@ATL@@QBEPBDXZ
  001a8	3b f4		 cmp	 esi, esp
  001aa	e8 00 00 00 00	 call	 __RTC_CheckEsp
  001af	50		 push	 eax
  001b0	8b 4d f0	 mov	 ecx, DWORD PTR _this$[ebp]
  001b3	e8 00 00 00 00	 call	 ?SetAt@?$CMap@V?$CStringT@DV?$StrTraitMFC_DLL@DV?$ChTraitsCRT@D@ATL@@@@@ATL@@PBDVCPaneBase@ETSLayoutMgr@@V34@@@QAEXPBDVCPaneBase@ETSLayoutMgr@@@Z ; CMap<ATL::CStringT<char,StrTraitMFC_DLL<char,ATL::ChTraitsCRT<char> > >,char const *,ETSLayoutMgr::CPaneBase,ETSLayoutMgr::CPaneBase>::SetAt

; 1781 : 		}

  001b8	c6 45 fc 00	 mov	 BYTE PTR __$EHRec$[ebp+8], 0
  001bc	68 00 00 00 00	 push	 OFFSET FLAT:??1CPaneBase@ETSLayoutMgr@@QAE@XZ ; ETSLayoutMgr::CPaneBase::~CPaneBase
  001c1	6a 01		 push	 1
  001c3	6a 04		 push	 4
  001c5	8d 45 c8	 lea	 eax, DWORD PTR _newValue$188610[ebp]
  001c8	50		 push	 eax
  001c9	e8 00 00 00 00	 call	 ??_M@YGXPAXIHP6EX0@Z@Z
  001ce	c7 45 fc ff ff
	ff ff		 mov	 DWORD PTR __$EHRec$[ebp+8], -1
  001d5	8b 0d 00 00 00
	00		 mov	 ecx, DWORD PTR __imp_??1?$CStringT@DV?$StrTraitMFC_DLL@DV?$ChTraitsCRT@D@ATL@@@@@ATL@@QAE@XZ
  001db	51		 push	 ecx
  001dc	6a 01		 push	 1
  001de	6a 04		 push	 4
  001e0	8d 55 d4	 lea	 edx, DWORD PTR _newKey$188606[ebp]
  001e3	52		 push	 edx
  001e4	e8 00 00 00 00	 call	 ??_M@YGXPAXIHP6EX0@Z@Z
  001e9	e9 2a ff ff ff	 jmp	 $L188604
$L188556:

; 1782 : 	}
; 1783 : }

  001ee	52		 push	 edx
  001ef	8b cd		 mov	 ecx, ebp
  001f1	50		 push	 eax
  001f2	8d 15 00 00 00
	00		 lea	 edx, DWORD PTR $L189698
  001f8	e8 00 00 00 00	 call	 @_RTC_CheckStackVars@8
  001fd	58		 pop	 eax
  001fe	5a		 pop	 edx
  001ff	8b 4d f4	 mov	 ecx, DWORD PTR __$EHRec$[ebp]
  00202	64 89 0d 00 00
	00 00		 mov	 DWORD PTR fs:__except_list, ecx
  00209	5f		 pop	 edi
  0020a	5e		 pop	 esi
  0020b	83 c4 48	 add	 esp, 72			; 00000048H
  0020e	3b ec		 cmp	 ebp, esp
  00210	e8 00 00 00 00	 call	 __RTC_CheckEsp
  00215	8b e5		 mov	 esp, ebp
  00217	5d		 pop	 ebp
  00218	c2 04 00	 ret	 4
$L189698:
  0021b	02 00 00 00	 DD	 2
  0021f	00 00 00 00	 DD	 $L189697
$L189697:
  00223	d4 ff ff ff	 DD	 -44			; ffffffd4H
  00227	04 00 00 00	 DD	 4
  0022b	00 00 00 00	 DD	 $L189694
  0022f	c8 ff ff ff	 DD	 -56			; ffffffc8H
  00233	04 00 00 00	 DD	 4
  00237	00 00 00 00	 DD	 $L189695
$L189695:
  0023b	6e		 DB	 110			; 0000006eH
  0023c	65		 DB	 101			; 00000065H
  0023d	77		 DB	 119			; 00000077H
  0023e	56		 DB	 86			; 00000056H
  0023f	61		 DB	 97			; 00000061H
  00240	6c		 DB	 108			; 0000006cH
  00241	75		 DB	 117			; 00000075H
  00242	65		 DB	 101			; 00000065H
  00243	00		 DB	 0
$L189694:
  00244	6e		 DB	 110			; 0000006eH
  00245	65		 DB	 101			; 00000065H
  00246	77		 DB	 119			; 00000077H
  00247	4b		 DB	 75			; 0000004bH
  00248	65		 DB	 101			; 00000065H
  00249	79		 DB	 121			; 00000079H
  0024a	00		 DB	 0
_TEXT	ENDS
;	COMDAT text$x
text$x	SEGMENT
$L189689:
  00000	a1 00 00 00 00	 mov	 eax, DWORD PTR __imp_??1?$CStringT@DV?$StrTraitMFC_DLL@DV?$ChTraitsCRT@D@ATL@@@@@ATL@@QAE@XZ
  00005	50		 push	 eax
  00006	6a 01		 push	 1
  00008	6a 04		 push	 4
  0000a	8d 4d d4	 lea	 ecx, DWORD PTR _newKey$188606[ebp]
  0000d	51		 push	 ecx
  0000e	e8 00 00 00 00	 call	 ??_M@YGXPAXIHP6EX0@Z@Z
  00013	c3		 ret	 0
$L189690:
  00014	68 00 00 00 00	 push	 OFFSET FLAT:??1CPaneBase@ETSLayoutMgr@@QAE@XZ ; ETSLayoutMgr::CPaneBase::~CPaneBase
  00019	6a 01		 push	 1
  0001b	6a 04		 push	 4
  0001d	8d 45 c8	 lea	 eax, DWORD PTR _newValue$188610[ebp]
  00020	50		 push	 eax
  00021	e8 00 00 00 00	 call	 ??_M@YGXPAXIHP6EX0@Z@Z
  00026	c3		 ret	 0
__ehhandler$?Serialize@?$CMap@V?$CStringT@DV?$StrTraitMFC_DLL@DV?$ChTraitsCRT@D@ATL@@@@@ATL@@PBDVCPaneBase@ETSLayoutMgr@@V34@@@UAEXAAVCArchive@@@Z:
  00027	b8 00 00 00 00	 mov	 eax, OFFSET FLAT:$T189693
  0002c	e9 00 00 00 00	 jmp	 ___CxxFrameHandler
text$x	ENDS
?Serialize@?$CMap@V?$CStringT@DV?$StrTraitMFC_DLL@DV?$ChTraitsCRT@D@ATL@@@@@ATL@@PBDVCPaneBase@ETSLayoutMgr@@V34@@@UAEXAAVCArchive@@@Z ENDP ; CMap<ATL::CStringT<char,StrTraitMFC_DLL<char,ATL::ChTraitsCRT<char> > >,char const *,ETSLayoutMgr::CPaneBase,ETSLayoutMgr::CPaneBase>::Serialize
PUBLIC	??$DumpElements@VCPaneBase@ETSLayoutMgr@@@@YGXAAVCDumpContext@@PBVCPaneBase@ETSLayoutMgr@@H@Z ; DumpElements<ETSLayoutMgr::CPaneBase>
PUBLIC	??$DumpElements@V?$CStringT@DV?$StrTraitMFC_DLL@DV?$ChTraitsCRT@D@ATL@@@@@ATL@@@@YGXAAVCDumpContext@@PBV?$CStringT@DV?$StrTraitMFC_DLL@DV?$ChTraitsCRT@D@ATL@@@@@ATL@@H@Z ; DumpElements<ATL::CStringT<char,StrTraitMFC_DLL<char,ATL::ChTraitsCRT<char> > > >
PUBLIC	?GetStartPosition@?$CMap@V?$CStringT@DV?$StrTraitMFC_DLL@DV?$ChTraitsCRT@D@ATL@@@@@ATL@@PBDVCPaneBase@ETSLayoutMgr@@V34@@@QBEPAU__POSITION@@XZ ; CMap<ATL::CStringT<char,StrTraitMFC_DLL<char,ATL::ChTraitsCRT<char> > >,char const *,ETSLayoutMgr::CPaneBase,ETSLayoutMgr::CPaneBase>::GetStartPosition
PUBLIC	?GetNextAssoc@?$CMap@V?$CStringT@DV?$StrTraitMFC_DLL@DV?$ChTraitsCRT@D@ATL@@@@@ATL@@PBDVCPaneBase@ETSLayoutMgr@@V34@@@QBEXAAPAU__POSITION@@AAV?$CStringT@DV?$StrTraitMFC_DLL@DV?$ChTraitsCRT@D@ATL@@@@@ATL@@AAVCPaneBase@ETSLayoutMgr@@@Z ; CMap<ATL::CStringT<char,StrTraitMFC_DLL<char,ATL::ChTraitsCRT<char> > >,char const *,ETSLayoutMgr::CPaneBase,ETSLayoutMgr::CPaneBase>::GetNextAssoc
EXTRN	?Dump@CObject@@UBEXAAVCDumpContext@@@Z:NEAR	; CObject::Dump
EXTRN	?GetDepth@CDumpContext@@QBEHXZ:NEAR		; CDumpContext::GetDepth
EXTRN	??6CDumpContext@@QAEAAV0@PBD@Z:NEAR		; CDumpContext::operator<<
EXTRN	??6CDumpContext@@QAEAAV0@H@Z:NEAR		; CDumpContext::operator<<
;	COMDAT xdata$x
xdata$x	SEGMENT
$T189713 DD	0ffffffffH
	DD	FLAT:$L189703
	DD	00H
	DD	FLAT:$L189704
$T189706 DD	019930520H
	DD	02H
	DD	FLAT:$T189713
	DD	2 DUP(00H)
	DD	2 DUP(00H)
; Function compile flags: /Odt /RTCsu
xdata$x	ENDS
;	COMDAT ?Dump@?$CMap@V?$CStringT@DV?$StrTraitMFC_DLL@DV?$ChTraitsCRT@D@ATL@@@@@ATL@@PBDVCPaneBase@ETSLayoutMgr@@V34@@@UBEXAAVCDumpContext@@@Z
_TEXT	SEGMENT
_pos$188634 = -48					; size = 4
_val$188630 = -36					; size = 4
_key$188626 = -24					; size = 4
_this$ = -16						; size = 4
__$EHRec$ = -12						; size = 12
_dc$ = 8						; size = 4
?Dump@?$CMap@V?$CStringT@DV?$StrTraitMFC_DLL@DV?$ChTraitsCRT@D@ATL@@@@@ATL@@PBDVCPaneBase@ETSLayoutMgr@@V34@@@UBEXAAVCDumpContext@@@Z PROC NEAR ; CMap<ATL::CStringT<char,StrTraitMFC_DLL<char,ATL::ChTraitsCRT<char> > >,char const *,ETSLayoutMgr::CPaneBase,ETSLayoutMgr::CPaneBase>::Dump, COMDAT
; _this$ = ecx

; 1788 : {

  00000	55		 push	 ebp
  00001	8b ec		 mov	 ebp, esp
  00003	6a ff		 push	 -1
  00005	68 00 00 00 00	 push	 __ehhandler$?Dump@?$CMap@V?$CStringT@DV?$StrTraitMFC_DLL@DV?$ChTraitsCRT@D@ATL@@@@@ATL@@PBDVCPaneBase@ETSLayoutMgr@@V34@@@UBEXAAVCDumpContext@@@Z
  0000a	64 a1 00 00 00
	00		 mov	 eax, DWORD PTR fs:__except_list
  00010	50		 push	 eax
  00011	64 89 25 00 00
	00 00		 mov	 DWORD PTR fs:__except_list, esp
  00018	83 ec 28	 sub	 esp, 40			; 00000028H
  0001b	57		 push	 edi
  0001c	51		 push	 ecx
  0001d	8d 7d cc	 lea	 edi, DWORD PTR [ebp-52]
  00020	b9 0a 00 00 00	 mov	 ecx, 10			; 0000000aH
  00025	b8 cc cc cc cc	 mov	 eax, -858993460		; ccccccccH
  0002a	f3 ab		 rep stosd
  0002c	59		 pop	 ecx
  0002d	89 4d f0	 mov	 DWORD PTR _this$[ebp], ecx

; 1789 : 	CObject::Dump(dc);

  00030	8b 45 08	 mov	 eax, DWORD PTR _dc$[ebp]
  00033	50		 push	 eax
  00034	8b 4d f0	 mov	 ecx, DWORD PTR _this$[ebp]
  00037	e8 00 00 00 00	 call	 ?Dump@CObject@@UBEXAAVCDumpContext@@@Z ; CObject::Dump

; 1790 : 
; 1791 : 	dc << "with " << m_nCount << " elements";

  0003c	68 00 00 00 00	 push	 OFFSET FLAT:$SG188624
  00041	8b 4d f0	 mov	 ecx, DWORD PTR _this$[ebp]
  00044	8b 51 0c	 mov	 edx, DWORD PTR [ecx+12]
  00047	52		 push	 edx
  00048	68 00 00 00 00	 push	 OFFSET FLAT:$SG188623
  0004d	8b 4d 08	 mov	 ecx, DWORD PTR _dc$[ebp]
  00050	e8 00 00 00 00	 call	 ??6CDumpContext@@QAEAAV0@PBD@Z ; CDumpContext::operator<<
  00055	8b c8		 mov	 ecx, eax
  00057	e8 00 00 00 00	 call	 ??6CDumpContext@@QAEAAV0@H@Z ; CDumpContext::operator<<
  0005c	8b c8		 mov	 ecx, eax
  0005e	e8 00 00 00 00	 call	 ??6CDumpContext@@QAEAAV0@PBD@Z ; CDumpContext::operator<<

; 1792 : 	if (dc.GetDepth() > 0)

  00063	8b 4d 08	 mov	 ecx, DWORD PTR _dc$[ebp]
  00066	e8 00 00 00 00	 call	 ?GetDepth@CDumpContext@@QBEHXZ ; CDumpContext::GetDepth
  0006b	85 c0		 test	 eax, eax
  0006d	0f 8e cb 00 00
	00		 jle	 $L188625

; 1793 : 	{
; 1794 : 		// Dump in format "[key] -> value"
; 1795 : 		KEY key[1];

  00073	a1 00 00 00 00	 mov	 eax, DWORD PTR __imp_??1?$CStringT@DV?$StrTraitMFC_DLL@DV?$ChTraitsCRT@D@ATL@@@@@ATL@@QAE@XZ
  00078	50		 push	 eax
  00079	8b 0d 00 00 00
	00		 mov	 ecx, DWORD PTR __imp_??0?$CStringT@DV?$StrTraitMFC_DLL@DV?$ChTraitsCRT@D@ATL@@@@@ATL@@QAE@XZ
  0007f	51		 push	 ecx
  00080	6a 01		 push	 1
  00082	6a 04		 push	 4
  00084	8d 55 e8	 lea	 edx, DWORD PTR _key$188626[ebp]
  00087	52		 push	 edx
  00088	e8 00 00 00 00	 call	 ??_L@YGXPAXIHP6EX0@Z1@Z
  0008d	c7 45 fc 00 00
	00 00		 mov	 DWORD PTR __$EHRec$[ebp+8], 0

; 1796 : 		VALUE val[1];

  00094	68 00 00 00 00	 push	 OFFSET FLAT:??1CPaneBase@ETSLayoutMgr@@QAE@XZ ; ETSLayoutMgr::CPaneBase::~CPaneBase
  00099	68 00 00 00 00	 push	 OFFSET FLAT:??0CPaneBase@ETSLayoutMgr@@QAE@XZ ; ETSLayoutMgr::CPaneBase::CPaneBase
  0009e	6a 01		 push	 1
  000a0	6a 04		 push	 4
  000a2	8d 45 dc	 lea	 eax, DWORD PTR _val$188630[ebp]
  000a5	50		 push	 eax
  000a6	e8 00 00 00 00	 call	 ??_L@YGXPAXIHP6EX0@Z1@Z
  000ab	c6 45 fc 01	 mov	 BYTE PTR __$EHRec$[ebp+8], 1

; 1797 : 
; 1798 : 		POSITION pos = GetStartPosition();

  000af	8b 4d f0	 mov	 ecx, DWORD PTR _this$[ebp]
  000b2	e8 00 00 00 00	 call	 ?GetStartPosition@?$CMap@V?$CStringT@DV?$StrTraitMFC_DLL@DV?$ChTraitsCRT@D@ATL@@@@@ATL@@PBDVCPaneBase@ETSLayoutMgr@@V34@@@QBEPAU__POSITION@@XZ ; CMap<ATL::CStringT<char,StrTraitMFC_DLL<char,ATL::ChTraitsCRT<char> > >,char const *,ETSLayoutMgr::CPaneBase,ETSLayoutMgr::CPaneBase>::GetStartPosition
  000b7	89 45 d0	 mov	 DWORD PTR _pos$188634[ebp], eax
$L188636:

; 1799 : 		while (pos != NULL)

  000ba	83 7d d0 00	 cmp	 DWORD PTR _pos$188634[ebp], 0
  000be	74 4e		 je	 SHORT $L188637

; 1800 : 		{
; 1801 : 			GetNextAssoc(pos, key[0], val[0]);

  000c0	8d 4d dc	 lea	 ecx, DWORD PTR _val$188630[ebp]
  000c3	51		 push	 ecx
  000c4	8d 55 e8	 lea	 edx, DWORD PTR _key$188626[ebp]
  000c7	52		 push	 edx
  000c8	8d 45 d0	 lea	 eax, DWORD PTR _pos$188634[ebp]
  000cb	50		 push	 eax
  000cc	8b 4d f0	 mov	 ecx, DWORD PTR _this$[ebp]
  000cf	e8 00 00 00 00	 call	 ?GetNextAssoc@?$CMap@V?$CStringT@DV?$StrTraitMFC_DLL@DV?$ChTraitsCRT@D@ATL@@@@@ATL@@PBDVCPaneBase@ETSLayoutMgr@@V34@@@QBEXAAPAU__POSITION@@AAV?$CStringT@DV?$StrTraitMFC_DLL@DV?$ChTraitsCRT@D@ATL@@@@@ATL@@AAVCPaneBase@ETSLayoutMgr@@@Z ; CMap<ATL::CStringT<char,StrTraitMFC_DLL<char,ATL::ChTraitsCRT<char> > >,char const *,ETSLayoutMgr::CPaneBase,ETSLayoutMgr::CPaneBase>::GetNextAssoc

; 1802 : 			dc << "\n\t[";

  000d4	68 00 00 00 00	 push	 OFFSET FLAT:$SG188638
  000d9	8b 4d 08	 mov	 ecx, DWORD PTR _dc$[ebp]
  000dc	e8 00 00 00 00	 call	 ??6CDumpContext@@QAEAAV0@PBD@Z ; CDumpContext::operator<<

; 1803 : 			DumpElements<KEY>(dc, key, 1);

  000e1	6a 01		 push	 1
  000e3	8d 4d e8	 lea	 ecx, DWORD PTR _key$188626[ebp]
  000e6	51		 push	 ecx
  000e7	8b 55 08	 mov	 edx, DWORD PTR _dc$[ebp]
  000ea	52		 push	 edx
  000eb	e8 00 00 00 00	 call	 ??$DumpElements@V?$CStringT@DV?$StrTraitMFC_DLL@DV?$ChTraitsCRT@D@ATL@@@@@ATL@@@@YGXAAVCDumpContext@@PBV?$CStringT@DV?$StrTraitMFC_DLL@DV?$ChTraitsCRT@D@ATL@@@@@ATL@@H@Z ; DumpElements<ATL::CStringT<char,StrTraitMFC_DLL<char,ATL::ChTraitsCRT<char> > > >

; 1804 : 			dc << "] = ";

  000f0	68 00 00 00 00	 push	 OFFSET FLAT:$SG188645
  000f5	8b 4d 08	 mov	 ecx, DWORD PTR _dc$[ebp]
  000f8	e8 00 00 00 00	 call	 ??6CDumpContext@@QAEAAV0@PBD@Z ; CDumpContext::operator<<

; 1805 : 			DumpElements<VALUE>(dc, val, 1);

  000fd	6a 01		 push	 1
  000ff	8d 45 dc	 lea	 eax, DWORD PTR _val$188630[ebp]
  00102	50		 push	 eax
  00103	8b 4d 08	 mov	 ecx, DWORD PTR _dc$[ebp]
  00106	51		 push	 ecx
  00107	e8 00 00 00 00	 call	 ??$DumpElements@VCPaneBase@ETSLayoutMgr@@@@YGXAAVCDumpContext@@PBVCPaneBase@ETSLayoutMgr@@H@Z ; DumpElements<ETSLayoutMgr::CPaneBase>

; 1806 : 		}

  0010c	eb ac		 jmp	 SHORT $L188636
$L188637:

; 1807 : 	}

  0010e	c6 45 fc 00	 mov	 BYTE PTR __$EHRec$[ebp+8], 0
  00112	68 00 00 00 00	 push	 OFFSET FLAT:??1CPaneBase@ETSLayoutMgr@@QAE@XZ ; ETSLayoutMgr::CPaneBase::~CPaneBase
  00117	6a 01		 push	 1
  00119	6a 04		 push	 4
  0011b	8d 55 dc	 lea	 edx, DWORD PTR _val$188630[ebp]
  0011e	52		 push	 edx
  0011f	e8 00 00 00 00	 call	 ??_M@YGXPAXIHP6EX0@Z@Z
  00124	c7 45 fc ff ff
	ff ff		 mov	 DWORD PTR __$EHRec$[ebp+8], -1
  0012b	a1 00 00 00 00	 mov	 eax, DWORD PTR __imp_??1?$CStringT@DV?$StrTraitMFC_DLL@DV?$ChTraitsCRT@D@ATL@@@@@ATL@@QAE@XZ
  00130	50		 push	 eax
  00131	6a 01		 push	 1
  00133	6a 04		 push	 4
  00135	8d 4d e8	 lea	 ecx, DWORD PTR _key$188626[ebp]
  00138	51		 push	 ecx
  00139	e8 00 00 00 00	 call	 ??_M@YGXPAXIHP6EX0@Z@Z
$L188625:

; 1808 : 
; 1809 : 	dc << "\n";

  0013e	68 00 00 00 00	 push	 OFFSET FLAT:$SG188646
  00143	8b 4d 08	 mov	 ecx, DWORD PTR _dc$[ebp]
  00146	e8 00 00 00 00	 call	 ??6CDumpContext@@QAEAAV0@PBD@Z ; CDumpContext::operator<<

; 1810 : }

  0014b	52		 push	 edx
  0014c	8b cd		 mov	 ecx, ebp
  0014e	50		 push	 eax
  0014f	8d 15 00 00 00
	00		 lea	 edx, DWORD PTR $L189712
  00155	e8 00 00 00 00	 call	 @_RTC_CheckStackVars@8
  0015a	58		 pop	 eax
  0015b	5a		 pop	 edx
  0015c	8b 4d f4	 mov	 ecx, DWORD PTR __$EHRec$[ebp]
  0015f	64 89 0d 00 00
	00 00		 mov	 DWORD PTR fs:__except_list, ecx
  00166	5f		 pop	 edi
  00167	83 c4 34	 add	 esp, 52			; 00000034H
  0016a	3b ec		 cmp	 ebp, esp
  0016c	e8 00 00 00 00	 call	 __RTC_CheckEsp
  00171	8b e5		 mov	 esp, ebp
  00173	5d		 pop	 ebp
  00174	c2 04 00	 ret	 4
$L189712:
  00177	03 00 00 00	 DD	 3
  0017b	00 00 00 00	 DD	 $L189711
$L189711:
  0017f	e8 ff ff ff	 DD	 -24			; ffffffe8H
  00183	04 00 00 00	 DD	 4
  00187	00 00 00 00	 DD	 $L189707
  0018b	dc ff ff ff	 DD	 -36			; ffffffdcH
  0018f	04 00 00 00	 DD	 4
  00193	00 00 00 00	 DD	 $L189708
  00197	d0 ff ff ff	 DD	 -48			; ffffffd0H
  0019b	04 00 00 00	 DD	 4
  0019f	00 00 00 00	 DD	 $L189709
$L189709:
  001a3	70		 DB	 112			; 00000070H
  001a4	6f		 DB	 111			; 0000006fH
  001a5	73		 DB	 115			; 00000073H
  001a6	00		 DB	 0
$L189708:
  001a7	76		 DB	 118			; 00000076H
  001a8	61		 DB	 97			; 00000061H
  001a9	6c		 DB	 108			; 0000006cH
  001aa	00		 DB	 0
$L189707:
  001ab	6b		 DB	 107			; 0000006bH
  001ac	65		 DB	 101			; 00000065H
  001ad	79		 DB	 121			; 00000079H
  001ae	00		 DB	 0
_TEXT	ENDS
;	COMDAT text$x
text$x	SEGMENT
$L189703:
  00000	a1 00 00 00 00	 mov	 eax, DWORD PTR __imp_??1?$CStringT@DV?$StrTraitMFC_DLL@DV?$ChTraitsCRT@D@ATL@@@@@ATL@@QAE@XZ
  00005	50		 push	 eax
  00006	6a 01		 push	 1
  00008	6a 04		 push	 4
  0000a	8d 4d e8	 lea	 ecx, DWORD PTR _key$188626[ebp]
  0000d	51		 push	 ecx
  0000e	e8 00 00 00 00	 call	 ??_M@YGXPAXIHP6EX0@Z@Z
  00013	c3		 ret	 0
$L189704:
  00014	68 00 00 00 00	 push	 OFFSET FLAT:??1CPaneBase@ETSLayoutMgr@@QAE@XZ ; ETSLayoutMgr::CPaneBase::~CPaneBase
  00019	6a 01		 push	 1
  0001b	6a 04		 push	 4
  0001d	8d 45 dc	 lea	 eax, DWORD PTR _val$188630[ebp]
  00020	50		 push	 eax
  00021	e8 00 00 00 00	 call	 ??_M@YGXPAXIHP6EX0@Z@Z
  00026	c3		 ret	 0
__ehhandler$?Dump@?$CMap@V?$CStringT@DV?$StrTraitMFC_DLL@DV?$ChTraitsCRT@D@ATL@@@@@ATL@@PBDVCPaneBase@ETSLayoutMgr@@V34@@@UBEXAAVCDumpContext@@@Z:
  00027	b8 00 00 00 00	 mov	 eax, OFFSET FLAT:$T189706
  0002c	e9 00 00 00 00	 jmp	 ___CxxFrameHandler
text$x	ENDS
?Dump@?$CMap@V?$CStringT@DV?$StrTraitMFC_DLL@DV?$ChTraitsCRT@D@ATL@@@@@ATL@@PBDVCPaneBase@ETSLayoutMgr@@V34@@@UBEXAAVCDumpContext@@@Z ENDP ; CMap<ATL::CStringT<char,StrTraitMFC_DLL<char,ATL::ChTraitsCRT<char> > >,char const *,ETSLayoutMgr::CPaneBase,ETSLayoutMgr::CPaneBase>::Dump
EXTRN	?AssertValid@CObject@@UBEXXZ:NEAR		; CObject::AssertValid
; Function compile flags: /Odt /RTCsu
;	COMDAT ?AssertValid@?$CMap@V?$CStringT@DV?$StrTraitMFC_DLL@DV?$ChTraitsCRT@D@ATL@@@@@ATL@@PBDVCPaneBase@ETSLayoutMgr@@V34@@@UBEXXZ
_TEXT	SEGMENT
_this$ = -4						; size = 4
?AssertValid@?$CMap@V?$CStringT@DV?$StrTraitMFC_DLL@DV?$ChTraitsCRT@D@ATL@@@@@ATL@@PBDVCPaneBase@ETSLayoutMgr@@V34@@@UBEXXZ PROC NEAR ; CMap<ATL::CStringT<char,StrTraitMFC_DLL<char,ATL::ChTraitsCRT<char> > >,char const *,ETSLayoutMgr::CPaneBase,ETSLayoutMgr::CPaneBase>::AssertValid, COMDAT
; _this$ = ecx

; 1814 : {

  00000	55		 push	 ebp
  00001	8b ec		 mov	 ebp, esp
  00003	51		 push	 ecx
  00004	c7 45 fc cc cc
	cc cc		 mov	 DWORD PTR [ebp-4], -858993460 ; ccccccccH
  0000b	89 4d fc	 mov	 DWORD PTR _this$[ebp], ecx

; 1815 : 	CObject::AssertValid();

  0000e	8b 4d fc	 mov	 ecx, DWORD PTR _this$[ebp]
  00011	e8 00 00 00 00	 call	 ?AssertValid@CObject@@UBEXXZ ; CObject::AssertValid

; 1816 : 
; 1817 : 	ASSERT(m_nHashTableSize > 0);

  00016	8b 45 fc	 mov	 eax, DWORD PTR _this$[ebp]
  00019	83 78 08 00	 cmp	 DWORD PTR [eax+8], 0
  0001d	77 14		 ja	 SHORT $L189717
  0001f	68 19 07 00 00	 push	 1817			; 00000719H
  00024	68 00 00 00 00	 push	 OFFSET FLAT:$SG188655
  00029	e8 00 00 00 00	 call	 ?AfxAssertFailedLine@@YGHPBDH@Z ; AfxAssertFailedLine
  0002e	85 c0		 test	 eax, eax
  00030	74 01		 je	 SHORT $L189717
  00032	cc		 int	 3
$L189717:

; 1818 : 	ASSERT(m_nCount == 0 || m_pHashTable != NULL);

  00033	8b 55 fc	 mov	 edx, DWORD PTR _this$[ebp]
  00036	83 7a 0c 00	 cmp	 DWORD PTR [edx+12], 0
  0003a	74 1d		 je	 SHORT $L188653
  0003c	8b 45 fc	 mov	 eax, DWORD PTR _this$[ebp]
  0003f	83 78 04 00	 cmp	 DWORD PTR [eax+4], 0
  00043	75 14		 jne	 SHORT $L188653
  00045	68 1a 07 00 00	 push	 1818			; 0000071aH
  0004a	68 00 00 00 00	 push	 OFFSET FLAT:$SG188657
  0004f	e8 00 00 00 00	 call	 ?AfxAssertFailedLine@@YGHPBDH@Z ; AfxAssertFailedLine
  00054	85 c0		 test	 eax, eax
  00056	74 01		 je	 SHORT $L188653
  00058	cc		 int	 3
$L188653:

; 1819 : 		// non-empty map should have hash table
; 1820 : }

  00059	83 c4 04	 add	 esp, 4
  0005c	3b ec		 cmp	 ebp, esp
  0005e	e8 00 00 00 00	 call	 __RTC_CheckEsp
  00063	8b e5		 mov	 esp, ebp
  00065	5d		 pop	 ebp
  00066	c3		 ret	 0
?AssertValid@?$CMap@V?$CStringT@DV?$StrTraitMFC_DLL@DV?$ChTraitsCRT@D@ATL@@@@@ATL@@PBDVCPaneBase@ETSLayoutMgr@@V34@@@UBEXXZ ENDP ; CMap<ATL::CStringT<char,StrTraitMFC_DLL<char,ATL::ChTraitsCRT<char> > >,char const *,ETSLayoutMgr::CPaneBase,ETSLayoutMgr::CPaneBase>::AssertValid
_TEXT	ENDS
EXTRN	??3CObject@@SGXPAX@Z:NEAR			; CObject::operator delete
; Function compile flags: /Odt /RTCsu
;	COMDAT ??_G?$CMap@V?$CStringT@DV?$StrTraitMFC_DLL@DV?$ChTraitsCRT@D@ATL@@@@@ATL@@PBDVCPaneBase@ETSLayoutMgr@@V34@@@UAEPAXI@Z
_TEXT	SEGMENT
_this$ = -4						; size = 4
___flags$ = 8						; size = 4
??_G?$CMap@V?$CStringT@DV?$StrTraitMFC_DLL@DV?$ChTraitsCRT@D@ATL@@@@@ATL@@PBDVCPaneBase@ETSLayoutMgr@@V34@@@UAEPAXI@Z PROC NEAR ; CMap<ATL::CStringT<char,StrTraitMFC_DLL<char,ATL::ChTraitsCRT<char> > >,char const *,ETSLayoutMgr::CPaneBase,ETSLayoutMgr::CPaneBase>::`scalar deleting destructor', COMDAT
; _this$ = ecx
  00000	55		 push	 ebp
  00001	8b ec		 mov	 ebp, esp
  00003	51		 push	 ecx
  00004	c7 45 fc cc cc
	cc cc		 mov	 DWORD PTR [ebp-4], -858993460 ; ccccccccH
  0000b	89 4d fc	 mov	 DWORD PTR _this$[ebp], ecx
  0000e	8b 4d fc	 mov	 ecx, DWORD PTR _this$[ebp]
  00011	e8 00 00 00 00	 call	 ??1?$CMap@V?$CStringT@DV?$StrTraitMFC_DLL@DV?$ChTraitsCRT@D@ATL@@@@@ATL@@PBDVCPaneBase@ETSLayoutMgr@@V34@@@UAE@XZ ; CMap<ATL::CStringT<char,StrTraitMFC_DLL<char,ATL::ChTraitsCRT<char> > >,char const *,ETSLayoutMgr::CPaneBase,ETSLayoutMgr::CPaneBase>::~CMap<ATL::CStringT<char,StrTraitMFC_DLL<char,ATL::ChTraitsCRT<char> > >,char const *,ETSLayoutMgr::CPaneBase,ETSLayoutMgr::CPaneBase>
  00016	8b 45 08	 mov	 eax, DWORD PTR ___flags$[ebp]
  00019	83 e0 01	 and	 eax, 1
  0001c	74 09		 je	 SHORT $L188684
  0001e	8b 4d fc	 mov	 ecx, DWORD PTR _this$[ebp]
  00021	51		 push	 ecx
  00022	e8 00 00 00 00	 call	 ??3CObject@@SGXPAX@Z	; CObject::operator delete
$L188684:
  00027	8b 45 fc	 mov	 eax, DWORD PTR _this$[ebp]
  0002a	83 c4 04	 add	 esp, 4
  0002d	3b ec		 cmp	 ebp, esp
  0002f	e8 00 00 00 00	 call	 __RTC_CheckEsp
  00034	8b e5		 mov	 esp, ebp
  00036	5d		 pop	 ebp
  00037	c2 04 00	 ret	 4
??_G?$CMap@V?$CStringT@DV?$StrTraitMFC_DLL@DV?$ChTraitsCRT@D@ATL@@@@@ATL@@PBDVCPaneBase@ETSLayoutMgr@@V34@@@UAEPAXI@Z ENDP ; CMap<ATL::CStringT<char,StrTraitMFC_DLL<char,ATL::ChTraitsCRT<char> > >,char const *,ETSLayoutMgr::CPaneBase,ETSLayoutMgr::CPaneBase>::`scalar deleting destructor'
_TEXT	ENDS
EXTRN	?AfxIsValidAddress@@YGHPBXIH@Z:NEAR		; AfxIsValidAddress
EXTRN	?Read@CArchive@@QAEIPAXI@Z:NEAR			; CArchive::Read
EXTRN	?Write@CArchive@@QAEXPBXI@Z:NEAR		; CArchive::Write
; Function compile flags: /Odt /RTCsu
;	COMDAT ??$SerializeElements@VCPaneBase@ETSLayoutMgr@@@@YGXAAVCArchive@@PAVCPaneBase@ETSLayoutMgr@@H@Z
_TEXT	SEGMENT
tv91 = -32						; size = 4
tv81 = -28						; size = 4
_nElementsToRead$188933 = -24				; size = 4
_nElementsLeft$188929 = -20				; size = 4
_pData$188928 = -16					; size = 4
_nElementsToWrite$188923 = -12				; size = 4
_nElementsLeft$188919 = -8				; size = 4
_pData$188918 = -4					; size = 4
_ar$ = 8						; size = 4
_pElements$ = 12					; size = 4
_nCount$ = 16						; size = 4
??$SerializeElements@VCPaneBase@ETSLayoutMgr@@@@YGXAAVCArchive@@PAVCPaneBase@ETSLayoutMgr@@H@Z PROC NEAR ; SerializeElements<ETSLayoutMgr::CPaneBase>, COMDAT

; 69   : {

  00000	55		 push	 ebp
  00001	8b ec		 mov	 ebp, esp
  00003	83 ec 20	 sub	 esp, 32			; 00000020H
  00006	b8 cc cc cc cc	 mov	 eax, -858993460		; ccccccccH
  0000b	89 45 e0	 mov	 DWORD PTR [ebp-32], eax
  0000e	89 45 e4	 mov	 DWORD PTR [ebp-28], eax
  00011	89 45 e8	 mov	 DWORD PTR [ebp-24], eax
  00014	89 45 ec	 mov	 DWORD PTR [ebp-20], eax
  00017	89 45 f0	 mov	 DWORD PTR [ebp-16], eax
  0001a	89 45 f4	 mov	 DWORD PTR [ebp-12], eax
  0001d	89 45 f8	 mov	 DWORD PTR [ebp-8], eax
  00020	89 45 fc	 mov	 DWORD PTR [ebp-4], eax

; 70   : 	ASSERT(nCount == 0 ||

  00023	83 7d 10 00	 cmp	 DWORD PTR _nCount$[ebp], 0
  00027	74 27		 je	 SHORT $L189721
  00029	6a 01		 push	 1
  0002b	8b 45 10	 mov	 eax, DWORD PTR _nCount$[ebp]
  0002e	c1 e0 02	 shl	 eax, 2
  00031	50		 push	 eax
  00032	8b 4d 0c	 mov	 ecx, DWORD PTR _pElements$[ebp]
  00035	51		 push	 ecx
  00036	e8 00 00 00 00	 call	 ?AfxIsValidAddress@@YGHPBXIH@Z ; AfxIsValidAddress
  0003b	85 c0		 test	 eax, eax
  0003d	75 11		 jne	 SHORT $L189721
  0003f	6a 47		 push	 71			; 00000047H
  00041	68 00 00 00 00	 push	 OFFSET FLAT:$SG188916
  00046	e8 00 00 00 00	 call	 ?AfxAssertFailedLine@@YGHPBDH@Z ; AfxAssertFailedLine
  0004b	85 c0		 test	 eax, eax
  0004d	74 01		 je	 SHORT $L189721
  0004f	cc		 int	 3
$L189721:

; 71   : 		AfxIsValidAddress(pElements, (size_t)nCount * sizeof(TYPE)));
; 72   : 
; 73   : 	// default is bit-wise read/write
; 74   : 	if (ar.IsStoring())

  00050	8b 4d 08	 mov	 ecx, DWORD PTR _ar$[ebp]
  00053	e8 00 00 00 00	 call	 ?IsStoring@CArchive@@QBEHXZ ; CArchive::IsStoring
  00058	85 c0		 test	 eax, eax
  0005a	74 5c		 je	 SHORT $L188917

; 75   :    {
; 76   : 	  TYPE* pData;
; 77   : 	  UINT_PTR nElementsLeft;
; 78   : 
; 79   : 	  nElementsLeft = nCount;

  0005c	8b 45 10	 mov	 eax, DWORD PTR _nCount$[ebp]
  0005f	89 45 f8	 mov	 DWORD PTR _nElementsLeft$188919[ebp], eax

; 80   : 	  pData = pElements;

  00062	8b 4d 0c	 mov	 ecx, DWORD PTR _pElements$[ebp]
  00065	89 4d fc	 mov	 DWORD PTR _pData$188918[ebp], ecx
$L188921:

; 81   : 	  while( nElementsLeft > 0 )

  00068	83 7d f8 00	 cmp	 DWORD PTR _nElementsLeft$188919[ebp], 0
  0006c	76 48		 jbe	 SHORT $L188922

; 82   : 	  {
; 83   : 		 UINT nElementsToWrite;
; 84   : 
; 85   : 		 nElementsToWrite = UINT(min(nElementsLeft, INT_MAX/sizeof(TYPE)));

  0006e	81 7d f8 ff ff
	ff 1f		 cmp	 DWORD PTR _nElementsLeft$188919[ebp], 536870911 ; 1fffffffH
  00075	73 08		 jae	 SHORT $L189722
  00077	8b 55 f8	 mov	 edx, DWORD PTR _nElementsLeft$188919[ebp]
  0007a	89 55 e4	 mov	 DWORD PTR tv81[ebp], edx
  0007d	eb 07		 jmp	 SHORT $L189723
$L189722:
  0007f	c7 45 e4 ff ff
	ff 1f		 mov	 DWORD PTR tv81[ebp], 536870911 ; 1fffffffH
$L189723:
  00086	8b 45 e4	 mov	 eax, DWORD PTR tv81[ebp]
  00089	89 45 f4	 mov	 DWORD PTR _nElementsToWrite$188923[ebp], eax

; 86   : 		 ar.Write(pData, nElementsToWrite*sizeof(TYPE));

  0008c	8b 4d f4	 mov	 ecx, DWORD PTR _nElementsToWrite$188923[ebp]
  0008f	c1 e1 02	 shl	 ecx, 2
  00092	51		 push	 ecx
  00093	8b 55 fc	 mov	 edx, DWORD PTR _pData$188918[ebp]
  00096	52		 push	 edx
  00097	8b 4d 08	 mov	 ecx, DWORD PTR _ar$[ebp]
  0009a	e8 00 00 00 00	 call	 ?Write@CArchive@@QAEXPBXI@Z ; CArchive::Write

; 87   : 		 nElementsLeft -= nElementsToWrite;

  0009f	8b 45 f8	 mov	 eax, DWORD PTR _nElementsLeft$188919[ebp]
  000a2	2b 45 f4	 sub	 eax, DWORD PTR _nElementsToWrite$188923[ebp]
  000a5	89 45 f8	 mov	 DWORD PTR _nElementsLeft$188919[ebp], eax

; 88   : 		 pData += nElementsToWrite;

  000a8	8b 4d f4	 mov	 ecx, DWORD PTR _nElementsToWrite$188923[ebp]
  000ab	8b 55 fc	 mov	 edx, DWORD PTR _pData$188918[ebp]
  000ae	8d 04 8a	 lea	 eax, DWORD PTR [edx+ecx*4]
  000b1	89 45 fc	 mov	 DWORD PTR _pData$188918[ebp], eax

; 89   : 	  }

  000b4	eb b2		 jmp	 SHORT $L188921
$L188922:

; 90   :    }
; 91   : 	else

  000b6	eb 5a		 jmp	 SHORT $L188912
$L188917:

; 92   :    {
; 93   : 	  TYPE* pData;
; 94   : 	  UINT_PTR nElementsLeft;
; 95   : 
; 96   : 	  nElementsLeft = nCount;

  000b8	8b 4d 10	 mov	 ecx, DWORD PTR _nCount$[ebp]
  000bb	89 4d ec	 mov	 DWORD PTR _nElementsLeft$188929[ebp], ecx

; 97   : 	  pData = pElements;

  000be	8b 55 0c	 mov	 edx, DWORD PTR _pElements$[ebp]
  000c1	89 55 f0	 mov	 DWORD PTR _pData$188928[ebp], edx
$L188931:

; 98   : 	  while( nElementsLeft > 0 )

  000c4	83 7d ec 00	 cmp	 DWORD PTR _nElementsLeft$188929[ebp], 0
  000c8	76 48		 jbe	 SHORT $L188912

; 99   : 	  {
; 100  : 		 UINT nElementsToRead;
; 101  : 
; 102  : 		 nElementsToRead = UINT(min(nElementsLeft, INT_MAX/sizeof(TYPE)));

  000ca	81 7d ec ff ff
	ff 1f		 cmp	 DWORD PTR _nElementsLeft$188929[ebp], 536870911 ; 1fffffffH
  000d1	73 08		 jae	 SHORT $L189724
  000d3	8b 45 ec	 mov	 eax, DWORD PTR _nElementsLeft$188929[ebp]
  000d6	89 45 e0	 mov	 DWORD PTR tv91[ebp], eax
  000d9	eb 07		 jmp	 SHORT $L189725
$L189724:
  000db	c7 45 e0 ff ff
	ff 1f		 mov	 DWORD PTR tv91[ebp], 536870911 ; 1fffffffH
$L189725:
  000e2	8b 4d e0	 mov	 ecx, DWORD PTR tv91[ebp]
  000e5	89 4d e8	 mov	 DWORD PTR _nElementsToRead$188933[ebp], ecx

; 103  : 		 ar.Read(pData, nElementsToRead*sizeof(TYPE));

  000e8	8b 55 e8	 mov	 edx, DWORD PTR _nElementsToRead$188933[ebp]
  000eb	c1 e2 02	 shl	 edx, 2
  000ee	52		 push	 edx
  000ef	8b 45 f0	 mov	 eax, DWORD PTR _pData$188928[ebp]
  000f2	50		 push	 eax
  000f3	8b 4d 08	 mov	 ecx, DWORD PTR _ar$[ebp]
  000f6	e8 00 00 00 00	 call	 ?Read@CArchive@@QAEIPAXI@Z ; CArchive::Read

; 104  : 		 nElementsLeft -= nElementsToRead;

  000fb	8b 4d ec	 mov	 ecx, DWORD PTR _nElementsLeft$188929[ebp]
  000fe	2b 4d e8	 sub	 ecx, DWORD PTR _nElementsToRead$188933[ebp]
  00101	89 4d ec	 mov	 DWORD PTR _nElementsLeft$188929[ebp], ecx

; 105  : 		 pData += nElementsToRead;

  00104	8b 55 e8	 mov	 edx, DWORD PTR _nElementsToRead$188933[ebp]
  00107	8b 45 f0	 mov	 eax, DWORD PTR _pData$188928[ebp]
  0010a	8d 0c 90	 lea	 ecx, DWORD PTR [eax+edx*4]
  0010d	89 4d f0	 mov	 DWORD PTR _pData$188928[ebp], ecx

; 106  : 	  }

  00110	eb b2		 jmp	 SHORT $L188931
$L188912:

; 107  :    }
; 108  : }

  00112	83 c4 20	 add	 esp, 32			; 00000020H
  00115	3b ec		 cmp	 ebp, esp
  00117	e8 00 00 00 00	 call	 __RTC_CheckEsp
  0011c	8b e5		 mov	 esp, ebp
  0011e	5d		 pop	 ebp
  0011f	c2 0c 00	 ret	 12			; 0000000cH
??$SerializeElements@VCPaneBase@ETSLayoutMgr@@@@YGXAAVCArchive@@PAVCPaneBase@ETSLayoutMgr@@H@Z ENDP ; SerializeElements<ETSLayoutMgr::CPaneBase>
; Function compile flags: /Odt /RTCsu
_TEXT	ENDS
;	COMDAT ??$DumpElements@VCPaneBase@ETSLayoutMgr@@@@YGXAAVCDumpContext@@PBVCPaneBase@ETSLayoutMgr@@H@Z
_TEXT	SEGMENT
_dc$ = 8						; size = 4
_pElements$ = 12					; size = 4
_nCount$ = 16						; size = 4
??$DumpElements@VCPaneBase@ETSLayoutMgr@@@@YGXAAVCDumpContext@@PBVCPaneBase@ETSLayoutMgr@@H@Z PROC NEAR ; DumpElements<ETSLayoutMgr::CPaneBase>, COMDAT

; 137  : {

  00000	55		 push	 ebp
  00001	8b ec		 mov	 ebp, esp

; 138  : 	ASSERT(nCount == 0 ||

  00003	83 7d 10 00	 cmp	 DWORD PTR _nCount$[ebp], 0
  00007	74 2a		 je	 SHORT $L188937
  00009	6a 00		 push	 0
  0000b	8b 45 10	 mov	 eax, DWORD PTR _nCount$[ebp]
  0000e	c1 e0 02	 shl	 eax, 2
  00011	50		 push	 eax
  00012	8b 4d 0c	 mov	 ecx, DWORD PTR _pElements$[ebp]
  00015	51		 push	 ecx
  00016	e8 00 00 00 00	 call	 ?AfxIsValidAddress@@YGHPBXIH@Z ; AfxIsValidAddress
  0001b	85 c0		 test	 eax, eax
  0001d	75 14		 jne	 SHORT $L188937
  0001f	68 8b 00 00 00	 push	 139			; 0000008bH
  00024	68 00 00 00 00	 push	 OFFSET FLAT:$SG188941
  00029	e8 00 00 00 00	 call	 ?AfxAssertFailedLine@@YGHPBDH@Z ; AfxAssertFailedLine
  0002e	85 c0		 test	 eax, eax
  00030	74 01		 je	 SHORT $L188937
  00032	cc		 int	 3
$L188937:

; 139  : 		AfxIsValidAddress(pElements, (size_t)nCount * sizeof(TYPE), FALSE));
; 140  : 	&dc; // not used
; 141  : 	pElements;  // not used
; 142  : 	nCount; // not used
; 143  : 
; 144  : 	// default does nothing
; 145  : }

  00033	3b ec		 cmp	 ebp, esp
  00035	e8 00 00 00 00	 call	 __RTC_CheckEsp
  0003a	5d		 pop	 ebp
  0003b	c2 0c 00	 ret	 12			; 0000000cH
??$DumpElements@VCPaneBase@ETSLayoutMgr@@@@YGXAAVCDumpContext@@PBVCPaneBase@ETSLayoutMgr@@H@Z ENDP ; DumpElements<ETSLayoutMgr::CPaneBase>
_TEXT	ENDS
PUBLIC	??A?$CMap@V?$CStringT@DV?$StrTraitMFC_DLL@DV?$ChTraitsCRT@D@ATL@@@@@ATL@@PBDVCPaneBase@ETSLayoutMgr@@V34@@@QAEAAVCPaneBase@ETSLayoutMgr@@PBD@Z ; CMap<ATL::CStringT<char,StrTraitMFC_DLL<char,ATL::ChTraitsCRT<char> > >,char const *,ETSLayoutMgr::CPaneBase,ETSLayoutMgr::CPaneBase>::operator[]
EXTRN	??4CPaneBase@ETSLayoutMgr@@QAEXABV01@@Z:NEAR	; ETSLayoutMgr::CPaneBase::operator=
;	COMDAT xdata$x
xdata$x	SEGMENT
$T189733 DD	0ffffffffH
	DD	FLAT:$L189729
$T189731 DD	019930520H
	DD	01H
	DD	FLAT:$T189733
	DD	2 DUP(00H)
	DD	2 DUP(00H)
; Function compile flags: /Odt /RTCsu
xdata$x	ENDS
;	COMDAT ?SetAt@?$CMap@V?$CStringT@DV?$StrTraitMFC_DLL@DV?$ChTraitsCRT@D@ATL@@@@@ATL@@PBDVCPaneBase@ETSLayoutMgr@@V34@@@QAEXPBDVCPaneBase@ETSLayoutMgr@@@Z
_TEXT	SEGMENT
_this$ = -16						; size = 4
__$EHRec$ = -12						; size = 12
_key$ = 8						; size = 4
_newValue$ = 12						; size = 4
?SetAt@?$CMap@V?$CStringT@DV?$StrTraitMFC_DLL@DV?$ChTraitsCRT@D@ATL@@@@@ATL@@PBDVCPaneBase@ETSLayoutMgr@@V34@@@QAEXPBDVCPaneBase@ETSLayoutMgr@@@Z PROC NEAR ; CMap<ATL::CStringT<char,StrTraitMFC_DLL<char,ATL::ChTraitsCRT<char> > >,char const *,ETSLayoutMgr::CPaneBase,ETSLayoutMgr::CPaneBase>::SetAt, COMDAT
; _this$ = ecx

; 1346 : 	{ (*this)[key] = newValue; }

  00000	55		 push	 ebp
  00001	8b ec		 mov	 ebp, esp
  00003	6a ff		 push	 -1
  00005	68 00 00 00 00	 push	 __ehhandler$?SetAt@?$CMap@V?$CStringT@DV?$StrTraitMFC_DLL@DV?$ChTraitsCRT@D@ATL@@@@@ATL@@PBDVCPaneBase@ETSLayoutMgr@@V34@@@QAEXPBDVCPaneBase@ETSLayoutMgr@@@Z
  0000a	64 a1 00 00 00
	00		 mov	 eax, DWORD PTR fs:__except_list
  00010	50		 push	 eax
  00011	64 89 25 00 00
	00 00		 mov	 DWORD PTR fs:__except_list, esp
  00018	51		 push	 ecx
  00019	c7 45 f0 cc cc
	cc cc		 mov	 DWORD PTR [ebp-16], -858993460 ; ccccccccH
  00020	89 4d f0	 mov	 DWORD PTR _this$[ebp], ecx
  00023	c7 45 fc 00 00
	00 00		 mov	 DWORD PTR __$EHRec$[ebp+8], 0
  0002a	8d 45 0c	 lea	 eax, DWORD PTR _newValue$[ebp]
  0002d	50		 push	 eax
  0002e	8b 4d 08	 mov	 ecx, DWORD PTR _key$[ebp]
  00031	51		 push	 ecx
  00032	8b 4d f0	 mov	 ecx, DWORD PTR _this$[ebp]
  00035	e8 00 00 00 00	 call	 ??A?$CMap@V?$CStringT@DV?$StrTraitMFC_DLL@DV?$ChTraitsCRT@D@ATL@@@@@ATL@@PBDVCPaneBase@ETSLayoutMgr@@V34@@@QAEAAVCPaneBase@ETSLayoutMgr@@PBD@Z ; CMap<ATL::CStringT<char,StrTraitMFC_DLL<char,ATL::ChTraitsCRT<char> > >,char const *,ETSLayoutMgr::CPaneBase,ETSLayoutMgr::CPaneBase>::operator[]
  0003a	8b c8		 mov	 ecx, eax
  0003c	e8 00 00 00 00	 call	 ??4CPaneBase@ETSLayoutMgr@@QAEXABV01@@Z ; ETSLayoutMgr::CPaneBase::operator=
  00041	c7 45 fc ff ff
	ff ff		 mov	 DWORD PTR __$EHRec$[ebp+8], -1
  00048	8d 4d 0c	 lea	 ecx, DWORD PTR _newValue$[ebp]
  0004b	e8 00 00 00 00	 call	 ??1CPaneBase@ETSLayoutMgr@@QAE@XZ ; ETSLayoutMgr::CPaneBase::~CPaneBase
  00050	8b 4d f4	 mov	 ecx, DWORD PTR __$EHRec$[ebp]
  00053	64 89 0d 00 00
	00 00		 mov	 DWORD PTR fs:__except_list, ecx
  0005a	83 c4 10	 add	 esp, 16			; 00000010H
  0005d	3b ec		 cmp	 ebp, esp
  0005f	e8 00 00 00 00	 call	 __RTC_CheckEsp
  00064	8b e5		 mov	 esp, ebp
  00066	5d		 pop	 ebp
  00067	c2 08 00	 ret	 8
_TEXT	ENDS
;	COMDAT text$x
text$x	SEGMENT
$L189729:
  00000	8d 4d 0c	 lea	 ecx, DWORD PTR _newValue$[ebp]
  00003	e9 00 00 00 00	 jmp	 ??1CPaneBase@ETSLayoutMgr@@QAE@XZ ; ETSLayoutMgr::CPaneBase::~CPaneBase
__ehhandler$?SetAt@?$CMap@V?$CStringT@DV?$StrTraitMFC_DLL@DV?$ChTraitsCRT@D@ATL@@@@@ATL@@PBDVCPaneBase@ETSLayoutMgr@@V34@@@QAEXPBDVCPaneBase@ETSLayoutMgr@@@Z:
  00008	b8 00 00 00 00	 mov	 eax, OFFSET FLAT:$T189731
  0000d	e9 00 00 00 00	 jmp	 ___CxxFrameHandler
text$x	ENDS
?SetAt@?$CMap@V?$CStringT@DV?$StrTraitMFC_DLL@DV?$ChTraitsCRT@D@ATL@@@@@ATL@@PBDVCPaneBase@ETSLayoutMgr@@V34@@@QAEXPBDVCPaneBase@ETSLayoutMgr@@@Z ENDP ; CMap<ATL::CStringT<char,StrTraitMFC_DLL<char,ATL::ChTraitsCRT<char> > >,char const *,ETSLayoutMgr::CPaneBase,ETSLayoutMgr::CPaneBase>::SetAt
PUBLIC	??1CAssoc@?$CMap@V?$CStringT@DV?$StrTraitMFC_DLL@DV?$ChTraitsCRT@D@ATL@@@@@ATL@@PBDVCPaneBase@ETSLayoutMgr@@V34@@@QAE@XZ ; CMap<ATL::CStringT<char,StrTraitMFC_DLL<char,ATL::ChTraitsCRT<char> > >,char const *,ETSLayoutMgr::CPaneBase,ETSLayoutMgr::CPaneBase>::CAssoc::~CAssoc
EXTRN	??_V@YAXPAX@Z:NEAR				; operator delete[]
EXTRN	?FreeDataChain@CPlex@@QAEXXZ:NEAR		; CPlex::FreeDataChain
; Function compile flags: /Odt /RTCsu
;	COMDAT ?RemoveAll@?$CMap@V?$CStringT@DV?$StrTraitMFC_DLL@DV?$ChTraitsCRT@D@ATL@@@@@ATL@@PBDVCPaneBase@ETSLayoutMgr@@V34@@@QAEXXZ
_TEXT	SEGMENT
$T189737 = -16						; size = 4
_pAssoc$188964 = -12					; size = 4
_nHash$188960 = -8					; size = 4
_this$ = -4						; size = 4
?RemoveAll@?$CMap@V?$CStringT@DV?$StrTraitMFC_DLL@DV?$ChTraitsCRT@D@ATL@@@@@ATL@@PBDVCPaneBase@ETSLayoutMgr@@V34@@@QAEXXZ PROC NEAR ; CMap<ATL::CStringT<char,StrTraitMFC_DLL<char,ATL::ChTraitsCRT<char> > >,char const *,ETSLayoutMgr::CPaneBase,ETSLayoutMgr::CPaneBase>::RemoveAll, COMDAT
; _this$ = ecx

; 1438 : {

  00000	55		 push	 ebp
  00001	8b ec		 mov	 ebp, esp
  00003	83 ec 10	 sub	 esp, 16			; 00000010H
  00006	b8 cc cc cc cc	 mov	 eax, -858993460		; ccccccccH
  0000b	89 45 f0	 mov	 DWORD PTR [ebp-16], eax
  0000e	89 45 f4	 mov	 DWORD PTR [ebp-12], eax
  00011	89 45 f8	 mov	 DWORD PTR [ebp-8], eax
  00014	89 45 fc	 mov	 DWORD PTR [ebp-4], eax
  00017	89 4d fc	 mov	 DWORD PTR _this$[ebp], ecx

; 1439 : 	ASSERT_VALID(this);

  0001a	68 9f 05 00 00	 push	 1439			; 0000059fH
  0001f	68 00 00 00 00	 push	 OFFSET FLAT:$SG188958
  00024	8b 45 fc	 mov	 eax, DWORD PTR _this$[ebp]
  00027	50		 push	 eax
  00028	e8 00 00 00 00	 call	 ?AfxAssertValidObject@@YGXPBVCObject@@PBDH@Z ; AfxAssertValidObject

; 1440 : 
; 1441 : 	if (m_pHashTable != NULL)

  0002d	8b 4d fc	 mov	 ecx, DWORD PTR _this$[ebp]
  00030	83 79 04 00	 cmp	 DWORD PTR [ecx+4], 0
  00034	74 49		 je	 SHORT $L188959

; 1442 : 	{
; 1443 : 		// destroy elements (values and keys)
; 1444 : 		for (UINT nHash = 0; nHash < m_nHashTableSize; nHash++)

  00036	c7 45 f8 00 00
	00 00		 mov	 DWORD PTR _nHash$188960[ebp], 0
  0003d	eb 09		 jmp	 SHORT $L188961
$L188962:
  0003f	8b 55 f8	 mov	 edx, DWORD PTR _nHash$188960[ebp]
  00042	83 c2 01	 add	 edx, 1
  00045	89 55 f8	 mov	 DWORD PTR _nHash$188960[ebp], edx
$L188961:
  00048	8b 45 fc	 mov	 eax, DWORD PTR _this$[ebp]
  0004b	8b 4d f8	 mov	 ecx, DWORD PTR _nHash$188960[ebp]
  0004e	3b 48 08	 cmp	 ecx, DWORD PTR [eax+8]
  00051	73 2c		 jae	 SHORT $L188959

; 1445 : 		{
; 1446 : 			CAssoc* pAssoc;
; 1447 : 			for (pAssoc = m_pHashTable[nHash]; pAssoc != NULL;

  00053	8b 55 fc	 mov	 edx, DWORD PTR _this$[ebp]
  00056	8b 42 04	 mov	 eax, DWORD PTR [edx+4]
  00059	8b 4d f8	 mov	 ecx, DWORD PTR _nHash$188960[ebp]
  0005c	8b 14 88	 mov	 edx, DWORD PTR [eax+ecx*4]
  0005f	89 55 f4	 mov	 DWORD PTR _pAssoc$188964[ebp], edx

; 1448 : 			  pAssoc = pAssoc->pNext)

  00062	eb 09		 jmp	 SHORT $L188965
$L188966:
  00064	8b 45 f4	 mov	 eax, DWORD PTR _pAssoc$188964[ebp]
  00067	8b 48 08	 mov	 ecx, DWORD PTR [eax+8]
  0006a	89 4d f4	 mov	 DWORD PTR _pAssoc$188964[ebp], ecx
$L188965:
  0006d	83 7d f4 00	 cmp	 DWORD PTR _pAssoc$188964[ebp], 0
  00071	74 0a		 je	 SHORT $L188967

; 1449 : 			{
; 1450 : 				pAssoc->CAssoc::~CAssoc();

  00073	8b 4d f4	 mov	 ecx, DWORD PTR _pAssoc$188964[ebp]
  00076	e8 00 00 00 00	 call	 ??1CAssoc@?$CMap@V?$CStringT@DV?$StrTraitMFC_DLL@DV?$ChTraitsCRT@D@ATL@@@@@ATL@@PBDVCPaneBase@ETSLayoutMgr@@V34@@@QAE@XZ

; 1451 : 				//DestructElements<VALUE>(&pAssoc->value, 1);
; 1452 : 				//DestructElements<KEY>((KEY*)&pAssoc->key, 1);
; 1453 : 			}

  0007b	eb e7		 jmp	 SHORT $L188966
$L188967:

; 1454 : 		}

  0007d	eb c0		 jmp	 SHORT $L188962
$L188959:

; 1455 : 	}
; 1456 : 
; 1457 : 	// free hash table
; 1458 : 	delete[] m_pHashTable;

  0007f	8b 55 fc	 mov	 edx, DWORD PTR _this$[ebp]
  00082	8b 42 04	 mov	 eax, DWORD PTR [edx+4]
  00085	89 45 f0	 mov	 DWORD PTR $T189737[ebp], eax
  00088	8b 4d f0	 mov	 ecx, DWORD PTR $T189737[ebp]
  0008b	51		 push	 ecx
  0008c	e8 00 00 00 00	 call	 ??_V@YAXPAX@Z		; operator delete[]
  00091	83 c4 04	 add	 esp, 4

; 1459 : 	m_pHashTable = NULL;

  00094	8b 55 fc	 mov	 edx, DWORD PTR _this$[ebp]
  00097	c7 42 04 00 00
	00 00		 mov	 DWORD PTR [edx+4], 0

; 1460 : 
; 1461 : 	m_nCount = 0;

  0009e	8b 45 fc	 mov	 eax, DWORD PTR _this$[ebp]
  000a1	c7 40 0c 00 00
	00 00		 mov	 DWORD PTR [eax+12], 0

; 1462 : 	m_pFreeList = NULL;

  000a8	8b 4d fc	 mov	 ecx, DWORD PTR _this$[ebp]
  000ab	c7 41 10 00 00
	00 00		 mov	 DWORD PTR [ecx+16], 0

; 1463 : 	m_pBlocks->FreeDataChain();

  000b2	8b 55 fc	 mov	 edx, DWORD PTR _this$[ebp]
  000b5	8b 4a 14	 mov	 ecx, DWORD PTR [edx+20]
  000b8	e8 00 00 00 00	 call	 ?FreeDataChain@CPlex@@QAEXXZ ; CPlex::FreeDataChain

; 1464 : 	m_pBlocks = NULL;

  000bd	8b 45 fc	 mov	 eax, DWORD PTR _this$[ebp]
  000c0	c7 40 14 00 00
	00 00		 mov	 DWORD PTR [eax+20], 0

; 1465 : }

  000c7	83 c4 10	 add	 esp, 16			; 00000010H
  000ca	3b ec		 cmp	 ebp, esp
  000cc	e8 00 00 00 00	 call	 __RTC_CheckEsp
  000d1	8b e5		 mov	 esp, ebp
  000d3	5d		 pop	 ebp
  000d4	c3		 ret	 0
?RemoveAll@?$CMap@V?$CStringT@DV?$StrTraitMFC_DLL@DV?$ChTraitsCRT@D@ATL@@@@@ATL@@PBDVCPaneBase@ETSLayoutMgr@@V34@@@QAEXXZ ENDP ; CMap<ATL::CStringT<char,StrTraitMFC_DLL<char,ATL::ChTraitsCRT<char> > >,char const *,ETSLayoutMgr::CPaneBase,ETSLayoutMgr::CPaneBase>::RemoveAll
; Function compile flags: /Odt /RTCsu
_TEXT	ENDS
;	COMDAT ?GetStartPosition@?$CMap@V?$CStringT@DV?$StrTraitMFC_DLL@DV?$ChTraitsCRT@D@ATL@@@@@ATL@@PBDVCPaneBase@ETSLayoutMgr@@V34@@@QBEPAU__POSITION@@XZ
_TEXT	SEGMENT
_this$ = -4						; size = 4
?GetStartPosition@?$CMap@V?$CStringT@DV?$StrTraitMFC_DLL@DV?$ChTraitsCRT@D@ATL@@@@@ATL@@PBDVCPaneBase@ETSLayoutMgr@@V34@@@QBEPAU__POSITION@@XZ PROC NEAR ; CMap<ATL::CStringT<char,StrTraitMFC_DLL<char,ATL::ChTraitsCRT<char> > >,char const *,ETSLayoutMgr::CPaneBase,ETSLayoutMgr::CPaneBase>::GetStartPosition, COMDAT
; _this$ = ecx

; 1350 : 	{ return (m_nCount == 0) ? NULL : BEFORE_START_POSITION; }

  00000	55		 push	 ebp
  00001	8b ec		 mov	 ebp, esp
  00003	51		 push	 ecx
  00004	c7 45 fc cc cc
	cc cc		 mov	 DWORD PTR [ebp-4], -858993460 ; ccccccccH
  0000b	89 4d fc	 mov	 DWORD PTR _this$[ebp], ecx
  0000e	8b 45 fc	 mov	 eax, DWORD PTR _this$[ebp]
  00011	8b 40 0c	 mov	 eax, DWORD PTR [eax+12]
  00014	f7 d8		 neg	 eax
  00016	1b c0		 sbb	 eax, eax
  00018	8b e5		 mov	 esp, ebp
  0001a	5d		 pop	 ebp
  0001b	c3		 ret	 0
?GetStartPosition@?$CMap@V?$CStringT@DV?$StrTraitMFC_DLL@DV?$ChTraitsCRT@D@ATL@@@@@ATL@@PBDVCPaneBase@ETSLayoutMgr@@V34@@@QBEPAU__POSITION@@XZ ENDP ; CMap<ATL::CStringT<char,StrTraitMFC_DLL<char,ATL::ChTraitsCRT<char> > >,char const *,ETSLayoutMgr::CPaneBase,ETSLayoutMgr::CPaneBase>::GetStartPosition
_TEXT	ENDS
EXTRN	__imp_??4?$CStringT@DV?$StrTraitMFC_DLL@DV?$ChTraitsCRT@D@ATL@@@@@ATL@@QAEAAV01@ABV01@@Z:NEAR
; Function compile flags: /Odt /RTCsu
;	COMDAT ?GetNextAssoc@?$CMap@V?$CStringT@DV?$StrTraitMFC_DLL@DV?$ChTraitsCRT@D@ATL@@@@@ATL@@PBDVCPaneBase@ETSLayoutMgr@@V34@@@QBEXAAPAU__POSITION@@AAV?$CStringT@DV?$StrTraitMFC_DLL@DV?$ChTraitsCRT@D@ATL@@@@@ATL@@AAVCPaneBase@ETSLayoutMgr@@@Z
_TEXT	SEGMENT
_nBucket$189009 = -20					; size = 4
_pAssocNext$ = -16					; size = 4
_nBucket$188997 = -12					; size = 4
_pAssocRet$ = -8					; size = 4
_this$ = -4						; size = 4
_rNextPosition$ = 8					; size = 4
_rKey$ = 12						; size = 4
_rValue$ = 16						; size = 4
?GetNextAssoc@?$CMap@V?$CStringT@DV?$StrTraitMFC_DLL@DV?$ChTraitsCRT@D@ATL@@@@@ATL@@PBDVCPaneBase@ETSLayoutMgr@@V34@@@QBEXAAPAU__POSITION@@AAV?$CStringT@DV?$StrTraitMFC_DLL@DV?$ChTraitsCRT@D@ATL@@@@@ATL@@AAVCPaneBase@ETSLayoutMgr@@@Z PROC NEAR ; CMap<ATL::CStringT<char,StrTraitMFC_DLL<char,ATL::ChTraitsCRT<char> > >,char const *,ETSLayoutMgr::CPaneBase,ETSLayoutMgr::CPaneBase>::GetNextAssoc, COMDAT
; _this$ = ecx

; 1640 : {

  00000	55		 push	 ebp
  00001	8b ec		 mov	 ebp, esp
  00003	83 ec 14	 sub	 esp, 20			; 00000014H
  00006	56		 push	 esi
  00007	b8 cc cc cc cc	 mov	 eax, -858993460		; ccccccccH
  0000c	89 45 ec	 mov	 DWORD PTR [ebp-20], eax
  0000f	89 45 f0	 mov	 DWORD PTR [ebp-16], eax
  00012	89 45 f4	 mov	 DWORD PTR [ebp-12], eax
  00015	89 45 f8	 mov	 DWORD PTR [ebp-8], eax
  00018	89 45 fc	 mov	 DWORD PTR [ebp-4], eax
  0001b	89 4d fc	 mov	 DWORD PTR _this$[ebp], ecx

; 1641 : 	ASSERT_VALID(this);

  0001e	68 69 06 00 00	 push	 1641			; 00000669H
  00023	68 00 00 00 00	 push	 OFFSET FLAT:$SG188987
  00028	8b 45 fc	 mov	 eax, DWORD PTR _this$[ebp]
  0002b	50		 push	 eax
  0002c	e8 00 00 00 00	 call	 ?AfxAssertValidObject@@YGXPBVCObject@@PBDH@Z ; AfxAssertValidObject

; 1642 : 	ASSERT(m_pHashTable != NULL);  // never call on empty map

  00031	8b 4d fc	 mov	 ecx, DWORD PTR _this$[ebp]
  00034	83 79 04 00	 cmp	 DWORD PTR [ecx+4], 0
  00038	75 14		 jne	 SHORT $L189740
  0003a	68 6a 06 00 00	 push	 1642			; 0000066aH
  0003f	68 00 00 00 00	 push	 OFFSET FLAT:$SG188989
  00044	e8 00 00 00 00	 call	 ?AfxAssertFailedLine@@YGHPBDH@Z ; AfxAssertFailedLine
  00049	85 c0		 test	 eax, eax
  0004b	74 01		 je	 SHORT $L189740
  0004d	cc		 int	 3
$L189740:

; 1643 : 
; 1644 : 	CAssoc* pAssocRet = (CAssoc*)rNextPosition;

  0004e	8b 45 08	 mov	 eax, DWORD PTR _rNextPosition$[ebp]
  00051	8b 08		 mov	 ecx, DWORD PTR [eax]
  00053	89 4d f8	 mov	 DWORD PTR _pAssocRet$[ebp], ecx

; 1645 : 	ASSERT(pAssocRet != NULL);

  00056	83 7d f8 00	 cmp	 DWORD PTR _pAssocRet$[ebp], 0
  0005a	75 14		 jne	 SHORT $L189741
  0005c	68 6d 06 00 00	 push	 1645			; 0000066dH
  00061	68 00 00 00 00	 push	 OFFSET FLAT:$SG188993
  00066	e8 00 00 00 00	 call	 ?AfxAssertFailedLine@@YGHPBDH@Z ; AfxAssertFailedLine
  0006b	85 c0		 test	 eax, eax
  0006d	74 01		 je	 SHORT $L189741
  0006f	cc		 int	 3
$L189741:

; 1646 : 
; 1647 : 	if (pAssocRet == (CAssoc*) BEFORE_START_POSITION)

  00070	83 7d f8 ff	 cmp	 DWORD PTR _pAssocRet$[ebp], -1
  00074	75 50		 jne	 SHORT $L188996

; 1648 : 	{
; 1649 : 		// find the first association
; 1650 : 		for (UINT nBucket = 0; nBucket < m_nHashTableSize; nBucket++)

  00076	c7 45 f4 00 00
	00 00		 mov	 DWORD PTR _nBucket$188997[ebp], 0
  0007d	eb 09		 jmp	 SHORT $L188998
$L188999:
  0007f	8b 45 f4	 mov	 eax, DWORD PTR _nBucket$188997[ebp]
  00082	83 c0 01	 add	 eax, 1
  00085	89 45 f4	 mov	 DWORD PTR _nBucket$188997[ebp], eax
$L188998:
  00088	8b 4d fc	 mov	 ecx, DWORD PTR _this$[ebp]
  0008b	8b 55 f4	 mov	 edx, DWORD PTR _nBucket$188997[ebp]
  0008e	3b 51 08	 cmp	 edx, DWORD PTR [ecx+8]
  00091	73 19		 jae	 SHORT $L189000

; 1651 : 			if ((pAssocRet = m_pHashTable[nBucket]) != NULL)

  00093	8b 45 fc	 mov	 eax, DWORD PTR _this$[ebp]
  00096	8b 48 04	 mov	 ecx, DWORD PTR [eax+4]
  00099	8b 55 f4	 mov	 edx, DWORD PTR _nBucket$188997[ebp]
  0009c	8b 04 91	 mov	 eax, DWORD PTR [ecx+edx*4]
  0009f	89 45 f8	 mov	 DWORD PTR _pAssocRet$[ebp], eax
  000a2	83 7d f8 00	 cmp	 DWORD PTR _pAssocRet$[ebp], 0
  000a6	74 02		 je	 SHORT $L189001

; 1652 : 				break;

  000a8	eb 02		 jmp	 SHORT $L189000
$L189001:

; 1653 : 		ASSERT(pAssocRet != NULL);  // must find something

  000aa	eb d3		 jmp	 SHORT $L188999
$L189000:
  000ac	83 7d f8 00	 cmp	 DWORD PTR _pAssocRet$[ebp], 0
  000b0	75 14		 jne	 SHORT $L188996
  000b2	68 75 06 00 00	 push	 1653			; 00000675H
  000b7	68 00 00 00 00	 push	 OFFSET FLAT:$SG189003
  000bc	e8 00 00 00 00	 call	 ?AfxAssertFailedLine@@YGHPBDH@Z ; AfxAssertFailedLine
  000c1	85 c0		 test	 eax, eax
  000c3	74 01		 je	 SHORT $L188996
  000c5	cc		 int	 3
$L188996:

; 1654 : 	}
; 1655 : 
; 1656 : 	// find next association
; 1657 : 	ASSERT(AfxIsValidAddress(pAssocRet, sizeof(CAssoc)));

  000c6	6a 01		 push	 1
  000c8	6a 10		 push	 16			; 00000010H
  000ca	8b 55 f8	 mov	 edx, DWORD PTR _pAssocRet$[ebp]
  000cd	52		 push	 edx
  000ce	e8 00 00 00 00	 call	 ?AfxIsValidAddress@@YGHPBXIH@Z ; AfxIsValidAddress
  000d3	85 c0		 test	 eax, eax
  000d5	75 14		 jne	 SHORT $L189743
  000d7	68 79 06 00 00	 push	 1657			; 00000679H
  000dc	68 00 00 00 00	 push	 OFFSET FLAT:$SG189006
  000e1	e8 00 00 00 00	 call	 ?AfxAssertFailedLine@@YGHPBDH@Z ; AfxAssertFailedLine
  000e6	85 c0		 test	 eax, eax
  000e8	74 01		 je	 SHORT $L189743
  000ea	cc		 int	 3
$L189743:

; 1658 : 	CAssoc* pAssocNext;
; 1659 : 	if ((pAssocNext = pAssocRet->pNext) == NULL)

  000eb	8b 4d f8	 mov	 ecx, DWORD PTR _pAssocRet$[ebp]
  000ee	8b 51 08	 mov	 edx, DWORD PTR [ecx+8]
  000f1	89 55 f0	 mov	 DWORD PTR _pAssocNext$[ebp], edx
  000f4	83 7d f0 00	 cmp	 DWORD PTR _pAssocNext$[ebp], 0
  000f8	75 43		 jne	 SHORT $L189008

; 1660 : 	{
; 1661 : 		// go to next bucket
; 1662 : 		for (UINT nBucket = (pAssocRet->nHashValue % m_nHashTableSize) + 1;

  000fa	8b 45 f8	 mov	 eax, DWORD PTR _pAssocRet$[ebp]
  000fd	8b 4d fc	 mov	 ecx, DWORD PTR _this$[ebp]
  00100	8b 40 0c	 mov	 eax, DWORD PTR [eax+12]
  00103	33 d2		 xor	 edx, edx
  00105	f7 71 08	 div	 DWORD PTR [ecx+8]
  00108	83 c2 01	 add	 edx, 1
  0010b	89 55 ec	 mov	 DWORD PTR _nBucket$189009[ebp], edx

; 1663 : 		  nBucket < m_nHashTableSize; nBucket++)

  0010e	eb 09		 jmp	 SHORT $L189010
$L189011:
  00110	8b 55 ec	 mov	 edx, DWORD PTR _nBucket$189009[ebp]
  00113	83 c2 01	 add	 edx, 1
  00116	89 55 ec	 mov	 DWORD PTR _nBucket$189009[ebp], edx
$L189010:
  00119	8b 45 fc	 mov	 eax, DWORD PTR _this$[ebp]
  0011c	8b 4d ec	 mov	 ecx, DWORD PTR _nBucket$189009[ebp]
  0011f	3b 48 08	 cmp	 ecx, DWORD PTR [eax+8]
  00122	73 19		 jae	 SHORT $L189008

; 1664 : 			if ((pAssocNext = m_pHashTable[nBucket]) != NULL)

  00124	8b 55 fc	 mov	 edx, DWORD PTR _this$[ebp]
  00127	8b 42 04	 mov	 eax, DWORD PTR [edx+4]
  0012a	8b 4d ec	 mov	 ecx, DWORD PTR _nBucket$189009[ebp]
  0012d	8b 14 88	 mov	 edx, DWORD PTR [eax+ecx*4]
  00130	89 55 f0	 mov	 DWORD PTR _pAssocNext$[ebp], edx
  00133	83 7d f0 00	 cmp	 DWORD PTR _pAssocNext$[ebp], 0
  00137	74 02		 je	 SHORT $L189013

; 1665 : 				break;

  00139	eb 02		 jmp	 SHORT $L189008
$L189013:

; 1666 : 	}

  0013b	eb d3		 jmp	 SHORT $L189011
$L189008:

; 1667 : 
; 1668 : 	rNextPosition = (POSITION) pAssocNext;

  0013d	8b 45 08	 mov	 eax, DWORD PTR _rNextPosition$[ebp]
  00140	8b 4d f0	 mov	 ecx, DWORD PTR _pAssocNext$[ebp]
  00143	89 08		 mov	 DWORD PTR [eax], ecx

; 1669 : 
; 1670 : 	// fill in return data
; 1671 : 	rKey = pAssocRet->key;

  00145	8b f4		 mov	 esi, esp
  00147	8b 55 f8	 mov	 edx, DWORD PTR _pAssocRet$[ebp]
  0014a	52		 push	 edx
  0014b	8b 4d 0c	 mov	 ecx, DWORD PTR _rKey$[ebp]
  0014e	ff 15 00 00 00
	00		 call	 DWORD PTR __imp_??4?$CStringT@DV?$StrTraitMFC_DLL@DV?$ChTraitsCRT@D@ATL@@@@@ATL@@QAEAAV01@ABV01@@Z
  00154	3b f4		 cmp	 esi, esp
  00156	e8 00 00 00 00	 call	 __RTC_CheckEsp

; 1672 : 	rValue = pAssocRet->value;

  0015b	8b 45 f8	 mov	 eax, DWORD PTR _pAssocRet$[ebp]
  0015e	83 c0 04	 add	 eax, 4
  00161	50		 push	 eax
  00162	8b 4d 10	 mov	 ecx, DWORD PTR _rValue$[ebp]
  00165	e8 00 00 00 00	 call	 ??4CPaneBase@ETSLayoutMgr@@QAEXABV01@@Z ; ETSLayoutMgr::CPaneBase::operator=

; 1673 : }

  0016a	5e		 pop	 esi
  0016b	83 c4 14	 add	 esp, 20			; 00000014H
  0016e	3b ec		 cmp	 ebp, esp
  00170	e8 00 00 00 00	 call	 __RTC_CheckEsp
  00175	8b e5		 mov	 esp, ebp
  00177	5d		 pop	 ebp
  00178	c2 0c 00	 ret	 12			; 0000000cH
?GetNextAssoc@?$CMap@V?$CStringT@DV?$StrTraitMFC_DLL@DV?$ChTraitsCRT@D@ATL@@@@@ATL@@PBDVCPaneBase@ETSLayoutMgr@@V34@@@QBEXAAPAU__POSITION@@AAV?$CStringT@DV?$StrTraitMFC_DLL@DV?$ChTraitsCRT@D@ATL@@@@@ATL@@AAVCPaneBase@ETSLayoutMgr@@@Z ENDP ; CMap<ATL::CStringT<char,StrTraitMFC_DLL<char,ATL::ChTraitsCRT<char> > >,char const *,ETSLayoutMgr::CPaneBase,ETSLayoutMgr::CPaneBase>::GetNextAssoc
; Function compile flags: /Odt /RTCsu
_TEXT	ENDS
;	COMDAT ??$DumpElements@V?$CStringT@DV?$StrTraitMFC_DLL@DV?$ChTraitsCRT@D@ATL@@@@@ATL@@@@YGXAAVCDumpContext@@PBV?$CStringT@DV?$StrTraitMFC_DLL@DV?$ChTraitsCRT@D@ATL@@@@@ATL@@H@Z
_TEXT	SEGMENT
_dc$ = 8						; size = 4
_pElements$ = 12					; size = 4
_nCount$ = 16						; size = 4
??$DumpElements@V?$CStringT@DV?$StrTraitMFC_DLL@DV?$ChTraitsCRT@D@ATL@@@@@ATL@@@@YGXAAVCDumpContext@@PBV?$CStringT@DV?$StrTraitMFC_DLL@DV?$ChTraitsCRT@D@ATL@@@@@ATL@@H@Z PROC NEAR ; DumpElements<ATL::CStringT<char,StrTraitMFC_DLL<char,ATL::ChTraitsCRT<char> > > >, COMDAT

; 137  : {

  00000	55		 push	 ebp
  00001	8b ec		 mov	 ebp, esp

; 138  : 	ASSERT(nCount == 0 ||

  00003	83 7d 10 00	 cmp	 DWORD PTR _nCount$[ebp], 0
  00007	74 2a		 je	 SHORT $L189015
  00009	6a 00		 push	 0
  0000b	8b 45 10	 mov	 eax, DWORD PTR _nCount$[ebp]
  0000e	c1 e0 02	 shl	 eax, 2
  00011	50		 push	 eax
  00012	8b 4d 0c	 mov	 ecx, DWORD PTR _pElements$[ebp]
  00015	51		 push	 ecx
  00016	e8 00 00 00 00	 call	 ?AfxIsValidAddress@@YGHPBXIH@Z ; AfxIsValidAddress
  0001b	85 c0		 test	 eax, eax
  0001d	75 14		 jne	 SHORT $L189015
  0001f	68 8b 00 00 00	 push	 139			; 0000008bH
  00024	68 00 00 00 00	 push	 OFFSET FLAT:$SG189019
  00029	e8 00 00 00 00	 call	 ?AfxAssertFailedLine@@YGHPBDH@Z ; AfxAssertFailedLine
  0002e	85 c0		 test	 eax, eax
  00030	74 01		 je	 SHORT $L189015
  00032	cc		 int	 3
$L189015:

; 139  : 		AfxIsValidAddress(pElements, (size_t)nCount * sizeof(TYPE), FALSE));
; 140  : 	&dc; // not used
; 141  : 	pElements;  // not used
; 142  : 	nCount; // not used
; 143  : 
; 144  : 	// default does nothing
; 145  : }

  00033	3b ec		 cmp	 ebp, esp
  00035	e8 00 00 00 00	 call	 __RTC_CheckEsp
  0003a	5d		 pop	 ebp
  0003b	c2 0c 00	 ret	 12			; 0000000cH
??$DumpElements@V?$CStringT@DV?$StrTraitMFC_DLL@DV?$ChTraitsCRT@D@ATL@@@@@ATL@@@@YGXAAVCDumpContext@@PBV?$CStringT@DV?$StrTraitMFC_DLL@DV?$ChTraitsCRT@D@ATL@@@@@ATL@@H@Z ENDP ; DumpElements<ATL::CStringT<char,StrTraitMFC_DLL<char,ATL::ChTraitsCRT<char> > > >
_TEXT	ENDS
PUBLIC	??1CPair@?$CMap@V?$CStringT@DV?$StrTraitMFC_DLL@DV?$ChTraitsCRT@D@ATL@@@@@ATL@@PBDVCPaneBase@ETSLayoutMgr@@V34@@@QAE@XZ ; CMap<ATL::CStringT<char,StrTraitMFC_DLL<char,ATL::ChTraitsCRT<char> > >,char const *,ETSLayoutMgr::CPaneBase,ETSLayoutMgr::CPaneBase>::CPair::~CPair
; Function compile flags: /Odt /RTCsu
;	COMDAT ??1CAssoc@?$CMap@V?$CStringT@DV?$StrTraitMFC_DLL@DV?$ChTraitsCRT@D@ATL@@@@@ATL@@PBDVCPaneBase@ETSLayoutMgr@@V34@@@QAE@XZ
_TEXT	SEGMENT
_this$ = -4						; size = 4
??1CAssoc@?$CMap@V?$CStringT@DV?$StrTraitMFC_DLL@DV?$ChTraitsCRT@D@ATL@@@@@ATL@@PBDVCPaneBase@ETSLayoutMgr@@V34@@@QAE@XZ PROC NEAR ; CMap<ATL::CStringT<char,StrTraitMFC_DLL<char,ATL::ChTraitsCRT<char> > >,char const *,ETSLayoutMgr::CPaneBase,ETSLayoutMgr::CPaneBase>::CAssoc::~CAssoc, COMDAT
; _this$ = ecx
  00000	55		 push	 ebp
  00001	8b ec		 mov	 ebp, esp
  00003	51		 push	 ecx
  00004	c7 45 fc cc cc
	cc cc		 mov	 DWORD PTR [ebp-4], -858993460 ; ccccccccH
  0000b	89 4d fc	 mov	 DWORD PTR _this$[ebp], ecx
  0000e	8b 4d fc	 mov	 ecx, DWORD PTR _this$[ebp]
  00011	e8 00 00 00 00	 call	 ??1CPair@?$CMap@V?$CStringT@DV?$StrTraitMFC_DLL@DV?$ChTraitsCRT@D@ATL@@@@@ATL@@PBDVCPaneBase@ETSLayoutMgr@@V34@@@QAE@XZ
  00016	83 c4 04	 add	 esp, 4
  00019	3b ec		 cmp	 ebp, esp
  0001b	e8 00 00 00 00	 call	 __RTC_CheckEsp
  00020	8b e5		 mov	 esp, ebp
  00022	5d		 pop	 ebp
  00023	c3		 ret	 0
??1CAssoc@?$CMap@V?$CStringT@DV?$StrTraitMFC_DLL@DV?$ChTraitsCRT@D@ATL@@@@@ATL@@PBDVCPaneBase@ETSLayoutMgr@@V34@@@QAE@XZ ENDP ; CMap<ATL::CStringT<char,StrTraitMFC_DLL<char,ATL::ChTraitsCRT<char> > >,char const *,ETSLayoutMgr::CPaneBase,ETSLayoutMgr::CPaneBase>::CAssoc::~CAssoc
_TEXT	ENDS
;	COMDAT xdata$x
xdata$x	SEGMENT
$T189754 DD	0ffffffffH
	DD	FLAT:$L189749
$T189752 DD	019930520H
	DD	01H
	DD	FLAT:$T189754
	DD	2 DUP(00H)
	DD	2 DUP(00H)
; Function compile flags: /Odt /RTCsu
xdata$x	ENDS
;	COMDAT ??1CPair@?$CMap@V?$CStringT@DV?$StrTraitMFC_DLL@DV?$ChTraitsCRT@D@ATL@@@@@ATL@@PBDVCPaneBase@ETSLayoutMgr@@V34@@@QAE@XZ
_TEXT	SEGMENT
_this$ = -16						; size = 4
__$EHRec$ = -12						; size = 12
??1CPair@?$CMap@V?$CStringT@DV?$StrTraitMFC_DLL@DV?$ChTraitsCRT@D@ATL@@@@@ATL@@PBDVCPaneBase@ETSLayoutMgr@@V34@@@QAE@XZ PROC NEAR ; CMap<ATL::CStringT<char,StrTraitMFC_DLL<char,ATL::ChTraitsCRT<char> > >,char const *,ETSLayoutMgr::CPaneBase,ETSLayoutMgr::CPaneBase>::CPair::~CPair, COMDAT
; _this$ = ecx
  00000	55		 push	 ebp
  00001	8b ec		 mov	 ebp, esp
  00003	6a ff		 push	 -1
  00005	68 00 00 00 00	 push	 __ehhandler$??1CPair@?$CMap@V?$CStringT@DV?$StrTraitMFC_DLL@DV?$ChTraitsCRT@D@ATL@@@@@ATL@@PBDVCPaneBase@ETSLayoutMgr@@V34@@@QAE@XZ
  0000a	64 a1 00 00 00
	00		 mov	 eax, DWORD PTR fs:__except_list
  00010	50		 push	 eax
  00011	64 89 25 00 00
	00 00		 mov	 DWORD PTR fs:__except_list, esp
  00018	51		 push	 ecx
  00019	56		 push	 esi
  0001a	c7 45 f0 cc cc
	cc cc		 mov	 DWORD PTR [ebp-16], -858993460 ; ccccccccH
  00021	89 4d f0	 mov	 DWORD PTR _this$[ebp], ecx
  00024	c7 45 fc 00 00
	00 00		 mov	 DWORD PTR __$EHRec$[ebp+8], 0
  0002b	8b 4d f0	 mov	 ecx, DWORD PTR _this$[ebp]
  0002e	83 c1 04	 add	 ecx, 4
  00031	e8 00 00 00 00	 call	 ??1CPaneBase@ETSLayoutMgr@@QAE@XZ ; ETSLayoutMgr::CPaneBase::~CPaneBase
  00036	c7 45 fc ff ff
	ff ff		 mov	 DWORD PTR __$EHRec$[ebp+8], -1
  0003d	8b f4		 mov	 esi, esp
  0003f	8b 4d f0	 mov	 ecx, DWORD PTR _this$[ebp]
  00042	ff 15 00 00 00
	00		 call	 DWORD PTR __imp_??1?$CStringT@DV?$StrTraitMFC_DLL@DV?$ChTraitsCRT@D@ATL@@@@@ATL@@QAE@XZ
  00048	3b f4		 cmp	 esi, esp
  0004a	e8 00 00 00 00	 call	 __RTC_CheckEsp
  0004f	8b 4d f4	 mov	 ecx, DWORD PTR __$EHRec$[ebp]
  00052	64 89 0d 00 00
	00 00		 mov	 DWORD PTR fs:__except_list, ecx
  00059	5e		 pop	 esi
  0005a	83 c4 10	 add	 esp, 16			; 00000010H
  0005d	3b ec		 cmp	 ebp, esp
  0005f	e8 00 00 00 00	 call	 __RTC_CheckEsp
  00064	8b e5		 mov	 esp, ebp
  00066	5d		 pop	 ebp
  00067	c3		 ret	 0
_TEXT	ENDS
;	COMDAT text$x
text$x	SEGMENT
$L189749:
  00000	8b f4		 mov	 esi, esp
  00002	8b 4d f0	 mov	 ecx, DWORD PTR _this$[ebp]
  00005	ff 15 00 00 00
	00		 call	 DWORD PTR __imp_??1?$CStringT@DV?$StrTraitMFC_DLL@DV?$ChTraitsCRT@D@ATL@@@@@ATL@@QAE@XZ
  0000b	3b f4		 cmp	 esi, esp
  0000d	e9 00 00 00 00	 jmp	 __RTC_CheckEsp
__ehhandler$??1CPair@?$CMap@V?$CStringT@DV?$StrTraitMFC_DLL@DV?$ChTraitsCRT@D@ATL@@@@@ATL@@PBDVCPaneBase@ETSLayoutMgr@@V34@@@QAE@XZ:
  00012	b8 00 00 00 00	 mov	 eax, OFFSET FLAT:$T189752
  00017	e9 00 00 00 00	 jmp	 ___CxxFrameHandler
text$x	ENDS
??1CPair@?$CMap@V?$CStringT@DV?$StrTraitMFC_DLL@DV?$ChTraitsCRT@D@ATL@@@@@ATL@@PBDVCPaneBase@ETSLayoutMgr@@V34@@@QAE@XZ ENDP ; CMap<ATL::CStringT<char,StrTraitMFC_DLL<char,ATL::ChTraitsCRT<char> > >,char const *,ETSLayoutMgr::CPaneBase,ETSLayoutMgr::CPaneBase>::CPair::~CPair
PUBLIC	?InitHashTable@?$CMap@V?$CStringT@DV?$StrTraitMFC_DLL@DV?$ChTraitsCRT@D@ATL@@@@@ATL@@PBDVCPaneBase@ETSLayoutMgr@@V34@@@QAEXIH@Z ; CMap<ATL::CStringT<char,StrTraitMFC_DLL<char,ATL::ChTraitsCRT<char> > >,char const *,ETSLayoutMgr::CPaneBase,ETSLayoutMgr::CPaneBase>::InitHashTable
PUBLIC	?NewAssoc@?$CMap@V?$CStringT@DV?$StrTraitMFC_DLL@DV?$ChTraitsCRT@D@ATL@@@@@ATL@@PBDVCPaneBase@ETSLayoutMgr@@V34@@@IAEPAVCAssoc@1@PBD@Z ; CMap<ATL::CStringT<char,StrTraitMFC_DLL<char,ATL::ChTraitsCRT<char> > >,char const *,ETSLayoutMgr::CPaneBase,ETSLayoutMgr::CPaneBase>::NewAssoc
PUBLIC	?GetAssocAt@?$CMap@V?$CStringT@DV?$StrTraitMFC_DLL@DV?$ChTraitsCRT@D@ATL@@@@@ATL@@PBDVCPaneBase@ETSLayoutMgr@@V34@@@IBEPAVCAssoc@1@PBDAAI1@Z ; CMap<ATL::CStringT<char,StrTraitMFC_DLL<char,ATL::ChTraitsCRT<char> > >,char const *,ETSLayoutMgr::CPaneBase,ETSLayoutMgr::CPaneBase>::GetAssocAt
; Function compile flags: /Odt /RTCsu
;	COMDAT ??A?$CMap@V?$CStringT@DV?$StrTraitMFC_DLL@DV?$ChTraitsCRT@D@ATL@@@@@ATL@@PBDVCPaneBase@ETSLayoutMgr@@V34@@@QAEAAVCPaneBase@ETSLayoutMgr@@PBD@Z
_TEXT	SEGMENT
_pAssoc$ = -32						; size = 4
_nHashValue$ = -24					; size = 4
_nHashBucket$ = -12					; size = 4
_this$ = -4						; size = 4
_key$ = 8						; size = 4
??A?$CMap@V?$CStringT@DV?$StrTraitMFC_DLL@DV?$ChTraitsCRT@D@ATL@@@@@ATL@@PBDVCPaneBase@ETSLayoutMgr@@V34@@@QAEAAVCPaneBase@ETSLayoutMgr@@PBD@Z PROC NEAR ; CMap<ATL::CStringT<char,StrTraitMFC_DLL<char,ATL::ChTraitsCRT<char> > >,char const *,ETSLayoutMgr::CPaneBase,ETSLayoutMgr::CPaneBase>::operator[], COMDAT
; _this$ = ecx

; 1586 : {

  00000	55		 push	 ebp
  00001	8b ec		 mov	 ebp, esp
  00003	83 ec 20	 sub	 esp, 32			; 00000020H
  00006	b8 cc cc cc cc	 mov	 eax, -858993460		; ccccccccH
  0000b	89 45 e0	 mov	 DWORD PTR [ebp-32], eax
  0000e	89 45 e4	 mov	 DWORD PTR [ebp-28], eax
  00011	89 45 e8	 mov	 DWORD PTR [ebp-24], eax
  00014	89 45 ec	 mov	 DWORD PTR [ebp-20], eax
  00017	89 45 f0	 mov	 DWORD PTR [ebp-16], eax
  0001a	89 45 f4	 mov	 DWORD PTR [ebp-12], eax
  0001d	89 45 f8	 mov	 DWORD PTR [ebp-8], eax
  00020	89 45 fc	 mov	 DWORD PTR [ebp-4], eax
  00023	89 4d fc	 mov	 DWORD PTR _this$[ebp], ecx

; 1587 : 	ASSERT_VALID(this);

  00026	68 33 06 00 00	 push	 1587			; 00000633H
  0002b	68 00 00 00 00	 push	 OFFSET FLAT:$SG189032
  00030	8b 45 fc	 mov	 eax, DWORD PTR _this$[ebp]
  00033	50		 push	 eax
  00034	e8 00 00 00 00	 call	 ?AfxAssertValidObject@@YGXPBVCObject@@PBDH@Z ; AfxAssertValidObject

; 1588 : 
; 1589 : 	UINT nHashBucket, nHashValue;
; 1590 : 	CAssoc* pAssoc;
; 1591 : 	if ((pAssoc = GetAssocAt(key, nHashBucket, nHashValue)) == NULL)

  00039	8d 4d e8	 lea	 ecx, DWORD PTR _nHashValue$[ebp]
  0003c	51		 push	 ecx
  0003d	8d 55 f4	 lea	 edx, DWORD PTR _nHashBucket$[ebp]
  00040	52		 push	 edx
  00041	8b 45 08	 mov	 eax, DWORD PTR _key$[ebp]
  00044	50		 push	 eax
  00045	8b 4d fc	 mov	 ecx, DWORD PTR _this$[ebp]
  00048	e8 00 00 00 00	 call	 ?GetAssocAt@?$CMap@V?$CStringT@DV?$StrTraitMFC_DLL@DV?$ChTraitsCRT@D@ATL@@@@@ATL@@PBDVCPaneBase@ETSLayoutMgr@@V34@@@IBEPAVCAssoc@1@PBDAAI1@Z ; CMap<ATL::CStringT<char,StrTraitMFC_DLL<char,ATL::ChTraitsCRT<char> > >,char const *,ETSLayoutMgr::CPaneBase,ETSLayoutMgr::CPaneBase>::GetAssocAt
  0004d	89 45 e0	 mov	 DWORD PTR _pAssoc$[ebp], eax
  00050	83 7d e0 00	 cmp	 DWORD PTR _pAssoc$[ebp], 0
  00054	75 53		 jne	 SHORT $L189036

; 1592 : 	{
; 1593 : 		if (m_pHashTable == NULL)

  00056	8b 4d fc	 mov	 ecx, DWORD PTR _this$[ebp]
  00059	83 79 04 00	 cmp	 DWORD PTR [ecx+4], 0
  0005d	75 11		 jne	 SHORT $L189037

; 1594 : 			InitHashTable(m_nHashTableSize);

  0005f	6a 01		 push	 1
  00061	8b 55 fc	 mov	 edx, DWORD PTR _this$[ebp]
  00064	8b 42 08	 mov	 eax, DWORD PTR [edx+8]
  00067	50		 push	 eax
  00068	8b 4d fc	 mov	 ecx, DWORD PTR _this$[ebp]
  0006b	e8 00 00 00 00	 call	 ?InitHashTable@?$CMap@V?$CStringT@DV?$StrTraitMFC_DLL@DV?$ChTraitsCRT@D@ATL@@@@@ATL@@PBDVCPaneBase@ETSLayoutMgr@@V34@@@QAEXIH@Z ; CMap<ATL::CStringT<char,StrTraitMFC_DLL<char,ATL::ChTraitsCRT<char> > >,char const *,ETSLayoutMgr::CPaneBase,ETSLayoutMgr::CPaneBase>::InitHashTable
$L189037:

; 1595 : 
; 1596 : 		// it doesn't exist, add a new Association
; 1597 : 		pAssoc = NewAssoc(key);

  00070	8b 4d 08	 mov	 ecx, DWORD PTR _key$[ebp]
  00073	51		 push	 ecx
  00074	8b 4d fc	 mov	 ecx, DWORD PTR _this$[ebp]
  00077	e8 00 00 00 00	 call	 ?NewAssoc@?$CMap@V?$CStringT@DV?$StrTraitMFC_DLL@DV?$ChTraitsCRT@D@ATL@@@@@ATL@@PBDVCPaneBase@ETSLayoutMgr@@V34@@@IAEPAVCAssoc@1@PBD@Z ; CMap<ATL::CStringT<char,StrTraitMFC_DLL<char,ATL::ChTraitsCRT<char> > >,char const *,ETSLayoutMgr::CPaneBase,ETSLayoutMgr::CPaneBase>::NewAssoc
  0007c	89 45 e0	 mov	 DWORD PTR _pAssoc$[ebp], eax

; 1598 : 		pAssoc->nHashValue = nHashValue;

  0007f	8b 55 e0	 mov	 edx, DWORD PTR _pAssoc$[ebp]
  00082	8b 45 e8	 mov	 eax, DWORD PTR _nHashValue$[ebp]
  00085	89 42 0c	 mov	 DWORD PTR [edx+12], eax

; 1599 : 		//'pAssoc->value' is a constructed object, nothing more
; 1600 : 
; 1601 : 		// put into hash table
; 1602 : 		pAssoc->pNext = m_pHashTable[nHashBucket];

  00088	8b 4d fc	 mov	 ecx, DWORD PTR _this$[ebp]
  0008b	8b 51 04	 mov	 edx, DWORD PTR [ecx+4]
  0008e	8b 45 e0	 mov	 eax, DWORD PTR _pAssoc$[ebp]
  00091	8b 4d f4	 mov	 ecx, DWORD PTR _nHashBucket$[ebp]
  00094	8b 14 8a	 mov	 edx, DWORD PTR [edx+ecx*4]
  00097	89 50 08	 mov	 DWORD PTR [eax+8], edx

; 1603 : 		m_pHashTable[nHashBucket] = pAssoc;

  0009a	8b 45 fc	 mov	 eax, DWORD PTR _this$[ebp]
  0009d	8b 48 04	 mov	 ecx, DWORD PTR [eax+4]
  000a0	8b 55 f4	 mov	 edx, DWORD PTR _nHashBucket$[ebp]
  000a3	8b 45 e0	 mov	 eax, DWORD PTR _pAssoc$[ebp]
  000a6	89 04 91	 mov	 DWORD PTR [ecx+edx*4], eax
$L189036:

; 1604 : 	}
; 1605 : 	return pAssoc->value;  // return new reference

  000a9	8b 45 e0	 mov	 eax, DWORD PTR _pAssoc$[ebp]
  000ac	83 c0 04	 add	 eax, 4

; 1606 : }

  000af	52		 push	 edx
  000b0	8b cd		 mov	 ecx, ebp
  000b2	50		 push	 eax
  000b3	8d 15 00 00 00
	00		 lea	 edx, DWORD PTR $L189761
  000b9	e8 00 00 00 00	 call	 @_RTC_CheckStackVars@8
  000be	58		 pop	 eax
  000bf	5a		 pop	 edx
  000c0	83 c4 20	 add	 esp, 32			; 00000020H
  000c3	3b ec		 cmp	 ebp, esp
  000c5	e8 00 00 00 00	 call	 __RTC_CheckEsp
  000ca	8b e5		 mov	 esp, ebp
  000cc	5d		 pop	 ebp
  000cd	c2 04 00	 ret	 4
$L189761:
  000d0	02 00 00 00	 DD	 2
  000d4	00 00 00 00	 DD	 $L189760
$L189760:
  000d8	f4 ff ff ff	 DD	 -12			; fffffff4H
  000dc	04 00 00 00	 DD	 4
  000e0	00 00 00 00	 DD	 $L189758
  000e4	e8 ff ff ff	 DD	 -24			; ffffffe8H
  000e8	04 00 00 00	 DD	 4
  000ec	00 00 00 00	 DD	 $L189759
$L189759:
  000f0	6e		 DB	 110			; 0000006eH
  000f1	48		 DB	 72			; 00000048H
  000f2	61		 DB	 97			; 00000061H
  000f3	73		 DB	 115			; 00000073H
  000f4	68		 DB	 104			; 00000068H
  000f5	56		 DB	 86			; 00000056H
  000f6	61		 DB	 97			; 00000061H
  000f7	6c		 DB	 108			; 0000006cH
  000f8	75		 DB	 117			; 00000075H
  000f9	65		 DB	 101			; 00000065H
  000fa	00		 DB	 0
$L189758:
  000fb	6e		 DB	 110			; 0000006eH
  000fc	48		 DB	 72			; 00000048H
  000fd	61		 DB	 97			; 00000061H
  000fe	73		 DB	 115			; 00000073H
  000ff	68		 DB	 104			; 00000068H
  00100	42		 DB	 66			; 00000042H
  00101	75		 DB	 117			; 00000075H
  00102	63		 DB	 99			; 00000063H
  00103	6b		 DB	 107			; 0000006bH
  00104	65		 DB	 101			; 00000065H
  00105	74		 DB	 116			; 00000074H
  00106	00		 DB	 0
??A?$CMap@V?$CStringT@DV?$StrTraitMFC_DLL@DV?$ChTraitsCRT@D@ATL@@@@@ATL@@PBDVCPaneBase@ETSLayoutMgr@@V34@@@QAEAAVCPaneBase@ETSLayoutMgr@@PBD@Z ENDP ; CMap<ATL::CStringT<char,StrTraitMFC_DLL<char,ATL::ChTraitsCRT<char> > >,char const *,ETSLayoutMgr::CPaneBase,ETSLayoutMgr::CPaneBase>::operator[]
_TEXT	ENDS
EXTRN	??_U@YAPAXI@Z:NEAR				; operator new[]
EXTRN	_memset:NEAR
; Function compile flags: /Odt /RTCsu
;	COMDAT ?InitHashTable@?$CMap@V?$CStringT@DV?$StrTraitMFC_DLL@DV?$ChTraitsCRT@D@ATL@@@@@ATL@@PBDVCPaneBase@ETSLayoutMgr@@V34@@@QAEXIH@Z
_TEXT	SEGMENT
$T189766 = -12						; size = 4
$T189765 = -8						; size = 4
_this$ = -4						; size = 4
_nHashSize$ = 8						; size = 4
_bAllocNow$ = 12					; size = 4
?InitHashTable@?$CMap@V?$CStringT@DV?$StrTraitMFC_DLL@DV?$ChTraitsCRT@D@ATL@@@@@ATL@@PBDVCPaneBase@ETSLayoutMgr@@V34@@@QAEXIH@Z PROC NEAR ; CMap<ATL::CStringT<char,StrTraitMFC_DLL<char,ATL::ChTraitsCRT<char> > >,char const *,ETSLayoutMgr::CPaneBase,ETSLayoutMgr::CPaneBase>::InitHashTable, COMDAT
; _this$ = ecx

; 1416 : {

  00000	55		 push	 ebp
  00001	8b ec		 mov	 ebp, esp
  00003	83 ec 0c	 sub	 esp, 12			; 0000000cH
  00006	c7 45 f4 cc cc
	cc cc		 mov	 DWORD PTR [ebp-12], -858993460 ; ccccccccH
  0000d	c7 45 f8 cc cc
	cc cc		 mov	 DWORD PTR [ebp-8], -858993460 ; ccccccccH
  00014	c7 45 fc cc cc
	cc cc		 mov	 DWORD PTR [ebp-4], -858993460 ; ccccccccH
  0001b	89 4d fc	 mov	 DWORD PTR _this$[ebp], ecx

; 1417 : 	ASSERT_VALID(this);

  0001e	68 89 05 00 00	 push	 1417			; 00000589H
  00023	68 00 00 00 00	 push	 OFFSET FLAT:$SG189047
  00028	8b 45 fc	 mov	 eax, DWORD PTR _this$[ebp]
  0002b	50		 push	 eax
  0002c	e8 00 00 00 00	 call	 ?AfxAssertValidObject@@YGXPBVCObject@@PBDH@Z ; AfxAssertValidObject

; 1418 : 	ASSERT(m_nCount == 0);

  00031	8b 4d fc	 mov	 ecx, DWORD PTR _this$[ebp]
  00034	83 79 0c 00	 cmp	 DWORD PTR [ecx+12], 0
  00038	74 14		 je	 SHORT $L189763
  0003a	68 8a 05 00 00	 push	 1418			; 0000058aH
  0003f	68 00 00 00 00	 push	 OFFSET FLAT:$SG189049
  00044	e8 00 00 00 00	 call	 ?AfxAssertFailedLine@@YGHPBDH@Z ; AfxAssertFailedLine
  00049	85 c0		 test	 eax, eax
  0004b	74 01		 je	 SHORT $L189763
  0004d	cc		 int	 3
$L189763:

; 1419 : 	ASSERT(nHashSize > 0);

  0004e	83 7d 08 00	 cmp	 DWORD PTR _nHashSize$[ebp], 0
  00052	77 14		 ja	 SHORT $L189764
  00054	68 8b 05 00 00	 push	 1419			; 0000058bH
  00059	68 00 00 00 00	 push	 OFFSET FLAT:$SG189051
  0005e	e8 00 00 00 00	 call	 ?AfxAssertFailedLine@@YGHPBDH@Z ; AfxAssertFailedLine
  00063	85 c0		 test	 eax, eax
  00065	74 01		 je	 SHORT $L189764
  00067	cc		 int	 3
$L189764:

; 1420 : 
; 1421 : 	if (m_pHashTable != NULL)

  00068	8b 4d fc	 mov	 ecx, DWORD PTR _this$[ebp]
  0006b	83 79 04 00	 cmp	 DWORD PTR [ecx+4], 0
  0006f	74 1f		 je	 SHORT $L189052

; 1422 : 	{
; 1423 : 		// free hash table
; 1424 : 		delete[] m_pHashTable;

  00071	8b 55 fc	 mov	 edx, DWORD PTR _this$[ebp]
  00074	8b 42 04	 mov	 eax, DWORD PTR [edx+4]
  00077	89 45 f8	 mov	 DWORD PTR $T189765[ebp], eax
  0007a	8b 4d f8	 mov	 ecx, DWORD PTR $T189765[ebp]
  0007d	51		 push	 ecx
  0007e	e8 00 00 00 00	 call	 ??_V@YAXPAX@Z		; operator delete[]
  00083	83 c4 04	 add	 esp, 4

; 1425 : 		m_pHashTable = NULL;

  00086	8b 55 fc	 mov	 edx, DWORD PTR _this$[ebp]
  00089	c7 42 04 00 00
	00 00		 mov	 DWORD PTR [edx+4], 0
$L189052:

; 1426 : 	}
; 1427 : 
; 1428 : 	if (bAllocNow)

  00090	83 7d 0c 00	 cmp	 DWORD PTR _bAllocNow$[ebp], 0
  00094	74 33		 je	 SHORT $L189054

; 1429 : 	{
; 1430 : 		m_pHashTable = new CAssoc* [nHashSize];

  00096	8b 45 08	 mov	 eax, DWORD PTR _nHashSize$[ebp]
  00099	c1 e0 02	 shl	 eax, 2
  0009c	50		 push	 eax
  0009d	e8 00 00 00 00	 call	 ??_U@YAPAXI@Z		; operator new[]
  000a2	83 c4 04	 add	 esp, 4
  000a5	89 45 f4	 mov	 DWORD PTR $T189766[ebp], eax
  000a8	8b 4d fc	 mov	 ecx, DWORD PTR _this$[ebp]
  000ab	8b 55 f4	 mov	 edx, DWORD PTR $T189766[ebp]
  000ae	89 51 04	 mov	 DWORD PTR [ecx+4], edx

; 1431 : 		memset(m_pHashTable, 0, sizeof(CAssoc*) * nHashSize);

  000b1	8b 45 08	 mov	 eax, DWORD PTR _nHashSize$[ebp]
  000b4	c1 e0 02	 shl	 eax, 2
  000b7	50		 push	 eax
  000b8	6a 00		 push	 0
  000ba	8b 4d fc	 mov	 ecx, DWORD PTR _this$[ebp]
  000bd	8b 51 04	 mov	 edx, DWORD PTR [ecx+4]
  000c0	52		 push	 edx
  000c1	e8 00 00 00 00	 call	 _memset
  000c6	83 c4 0c	 add	 esp, 12			; 0000000cH
$L189054:

; 1432 : 	}
; 1433 : 	m_nHashTableSize = nHashSize;

  000c9	8b 45 fc	 mov	 eax, DWORD PTR _this$[ebp]
  000cc	8b 4d 08	 mov	 ecx, DWORD PTR _nHashSize$[ebp]
  000cf	89 48 08	 mov	 DWORD PTR [eax+8], ecx

; 1434 : }

  000d2	83 c4 0c	 add	 esp, 12			; 0000000cH
  000d5	3b ec		 cmp	 ebp, esp
  000d7	e8 00 00 00 00	 call	 __RTC_CheckEsp
  000dc	8b e5		 mov	 esp, ebp
  000de	5d		 pop	 ebp
  000df	c2 08 00	 ret	 8
?InitHashTable@?$CMap@V?$CStringT@DV?$StrTraitMFC_DLL@DV?$ChTraitsCRT@D@ATL@@@@@ATL@@PBDVCPaneBase@ETSLayoutMgr@@V34@@@QAEXIH@Z ENDP ; CMap<ATL::CStringT<char,StrTraitMFC_DLL<char,ATL::ChTraitsCRT<char> > >,char const *,ETSLayoutMgr::CPaneBase,ETSLayoutMgr::CPaneBase>::InitHashTable
_TEXT	ENDS
PUBLIC	??0CAssoc@?$CMap@V?$CStringT@DV?$StrTraitMFC_DLL@DV?$ChTraitsCRT@D@ATL@@@@@ATL@@PBDVCPaneBase@ETSLayoutMgr@@V34@@@QAE@PBD@Z ; CMap<ATL::CStringT<char,StrTraitMFC_DLL<char,ATL::ChTraitsCRT<char> > >,char const *,ETSLayoutMgr::CPaneBase,ETSLayoutMgr::CPaneBase>::CAssoc::CAssoc
PUBLIC	??2@YAPAXIPAX@Z					; operator new
PUBLIC	??3@YAXPAX0@Z					; operator delete
PUBLIC	?data@CPlex@@QAEPAXXZ				; CPlex::data
EXTRN	?Create@CPlex@@SGPAU1@AAPAU1@II@Z:NEAR		; CPlex::Create
;	COMDAT xdata$x
xdata$x	SEGMENT
$T189778 DD	0ffffffffH
	DD	FLAT:$L189774
$T189776 DD	019930520H
	DD	01H
	DD	FLAT:$T189778
	DD	2 DUP(00H)
	DD	2 DUP(00H)
; Function compile flags: /Odt /RTCsu
xdata$x	ENDS
;	COMDAT ?NewAssoc@?$CMap@V?$CStringT@DV?$StrTraitMFC_DLL@DV?$ChTraitsCRT@D@ATL@@@@@ATL@@PBDVCPaneBase@ETSLayoutMgr@@V34@@@IAEPAVCAssoc@1@PBD@Z
_TEXT	SEGMENT
tv155 = -48						; size = 4
$T189771 = -44						; size = 4
$T189770 = -40						; size = 4
_pTemp$ = -36						; size = 4
_pAssoc$ = -32						; size = 4
_i$189071 = -28						; size = 4
_pAssoc$189069 = -24					; size = 4
_newBlock$189067 = -20					; size = 4
_this$ = -16						; size = 4
__$EHRec$ = -12						; size = 12
_key$ = 8						; size = 4
?NewAssoc@?$CMap@V?$CStringT@DV?$StrTraitMFC_DLL@DV?$ChTraitsCRT@D@ATL@@@@@ATL@@PBDVCPaneBase@ETSLayoutMgr@@V34@@@IAEPAVCAssoc@1@PBD@Z PROC NEAR ; CMap<ATL::CStringT<char,StrTraitMFC_DLL<char,ATL::ChTraitsCRT<char> > >,char const *,ETSLayoutMgr::CPaneBase,ETSLayoutMgr::CPaneBase>::NewAssoc, COMDAT
; _this$ = ecx

; 1477 : {

  00000	55		 push	 ebp
  00001	8b ec		 mov	 ebp, esp
  00003	6a ff		 push	 -1
  00005	68 00 00 00 00	 push	 __ehhandler$?NewAssoc@?$CMap@V?$CStringT@DV?$StrTraitMFC_DLL@DV?$ChTraitsCRT@D@ATL@@@@@ATL@@PBDVCPaneBase@ETSLayoutMgr@@V34@@@IAEPAVCAssoc@1@PBD@Z
  0000a	64 a1 00 00 00
	00		 mov	 eax, DWORD PTR fs:__except_list
  00010	50		 push	 eax
  00011	64 89 25 00 00
	00 00		 mov	 DWORD PTR fs:__except_list, esp
  00018	83 ec 24	 sub	 esp, 36			; 00000024H
  0001b	b8 cc cc cc cc	 mov	 eax, -858993460		; ccccccccH
  00020	89 45 d0	 mov	 DWORD PTR [ebp-48], eax
  00023	89 45 d4	 mov	 DWORD PTR [ebp-44], eax
  00026	89 45 d8	 mov	 DWORD PTR [ebp-40], eax
  00029	89 45 dc	 mov	 DWORD PTR [ebp-36], eax
  0002c	89 45 e0	 mov	 DWORD PTR [ebp-32], eax
  0002f	89 45 e4	 mov	 DWORD PTR [ebp-28], eax
  00032	89 45 e8	 mov	 DWORD PTR [ebp-24], eax
  00035	89 45 ec	 mov	 DWORD PTR [ebp-20], eax
  00038	89 45 f0	 mov	 DWORD PTR [ebp-16], eax
  0003b	89 4d f0	 mov	 DWORD PTR _this$[ebp], ecx

; 1478 : 	if (m_pFreeList == NULL)

  0003e	8b 45 f0	 mov	 eax, DWORD PTR _this$[ebp]
  00041	83 78 10 00	 cmp	 DWORD PTR [eax+16], 0
  00045	75 72		 jne	 SHORT $L189066

; 1479 : 	{
; 1480 : 		// add another block
; 1481 : 		CPlex* newBlock = CPlex::Create(m_pBlocks, m_nBlockSize, sizeof(CMap::CAssoc));

  00047	6a 10		 push	 16			; 00000010H
  00049	8b 4d f0	 mov	 ecx, DWORD PTR _this$[ebp]
  0004c	8b 51 18	 mov	 edx, DWORD PTR [ecx+24]
  0004f	52		 push	 edx
  00050	8b 45 f0	 mov	 eax, DWORD PTR _this$[ebp]
  00053	83 c0 14	 add	 eax, 20			; 00000014H
  00056	50		 push	 eax
  00057	e8 00 00 00 00	 call	 ?Create@CPlex@@SGPAU1@AAPAU1@II@Z ; CPlex::Create
  0005c	89 45 ec	 mov	 DWORD PTR _newBlock$189067[ebp], eax

; 1482 : 		// chain them into free list
; 1483 : 		CMap::CAssoc* pAssoc = (CMap::CAssoc*) newBlock->data();

  0005f	8b 4d ec	 mov	 ecx, DWORD PTR _newBlock$189067[ebp]
  00062	e8 00 00 00 00	 call	 ?data@CPlex@@QAEPAXXZ	; CPlex::data
  00067	89 45 e8	 mov	 DWORD PTR _pAssoc$189069[ebp], eax

; 1484 : 		// free in reverse order to make it easier to debug
; 1485 : 		pAssoc += m_nBlockSize - 1;

  0006a	8b 4d f0	 mov	 ecx, DWORD PTR _this$[ebp]
  0006d	8b 51 18	 mov	 edx, DWORD PTR [ecx+24]
  00070	83 ea 01	 sub	 edx, 1
  00073	c1 e2 04	 shl	 edx, 4
  00076	03 55 e8	 add	 edx, DWORD PTR _pAssoc$189069[ebp]
  00079	89 55 e8	 mov	 DWORD PTR _pAssoc$189069[ebp], edx

; 1486 : 		for (INT_PTR i = m_nBlockSize-1; i >= 0; i--, pAssoc--)

  0007c	8b 45 f0	 mov	 eax, DWORD PTR _this$[ebp]
  0007f	8b 48 18	 mov	 ecx, DWORD PTR [eax+24]
  00082	83 e9 01	 sub	 ecx, 1
  00085	89 4d e4	 mov	 DWORD PTR _i$189071[ebp], ecx
  00088	eb 12		 jmp	 SHORT $L189072
$L189073:
  0008a	8b 55 e4	 mov	 edx, DWORD PTR _i$189071[ebp]
  0008d	83 ea 01	 sub	 edx, 1
  00090	89 55 e4	 mov	 DWORD PTR _i$189071[ebp], edx
  00093	8b 45 e8	 mov	 eax, DWORD PTR _pAssoc$189069[ebp]
  00096	83 e8 10	 sub	 eax, 16			; 00000010H
  00099	89 45 e8	 mov	 DWORD PTR _pAssoc$189069[ebp], eax
$L189072:
  0009c	83 7d e4 00	 cmp	 DWORD PTR _i$189071[ebp], 0
  000a0	7c 17		 jl	 SHORT $L189066

; 1487 : 		{
; 1488 : 			pAssoc->pNext = m_pFreeList;

  000a2	8b 4d e8	 mov	 ecx, DWORD PTR _pAssoc$189069[ebp]
  000a5	8b 55 f0	 mov	 edx, DWORD PTR _this$[ebp]
  000a8	8b 42 10	 mov	 eax, DWORD PTR [edx+16]
  000ab	89 41 08	 mov	 DWORD PTR [ecx+8], eax

; 1489 : 			m_pFreeList = pAssoc;

  000ae	8b 4d f0	 mov	 ecx, DWORD PTR _this$[ebp]
  000b1	8b 55 e8	 mov	 edx, DWORD PTR _pAssoc$189069[ebp]
  000b4	89 51 10	 mov	 DWORD PTR [ecx+16], edx

; 1490 : 		}

  000b7	eb d1		 jmp	 SHORT $L189073
$L189066:

; 1491 : 	}
; 1492 : 	ASSERT(m_pFreeList != NULL);  // we must have something

  000b9	8b 45 f0	 mov	 eax, DWORD PTR _this$[ebp]
  000bc	83 78 10 00	 cmp	 DWORD PTR [eax+16], 0
  000c0	75 14		 jne	 SHORT $L189768
  000c2	68 d4 05 00 00	 push	 1492			; 000005d4H
  000c7	68 00 00 00 00	 push	 OFFSET FLAT:$SG189076
  000cc	e8 00 00 00 00	 call	 ?AfxAssertFailedLine@@YGHPBDH@Z ; AfxAssertFailedLine
  000d1	85 c0		 test	 eax, eax
  000d3	74 01		 je	 SHORT $L189768
  000d5	cc		 int	 3
$L189768:

; 1493 : 
; 1494 : 	CMap::CAssoc* pAssoc = m_pFreeList;

  000d6	8b 55 f0	 mov	 edx, DWORD PTR _this$[ebp]
  000d9	8b 42 10	 mov	 eax, DWORD PTR [edx+16]
  000dc	89 45 e0	 mov	 DWORD PTR _pAssoc$[ebp], eax

; 1495 : 
; 1496 : 	// zero the memory
; 1497 : 	CMap::CAssoc* pTemp = pAssoc->pNext;

  000df	8b 4d e0	 mov	 ecx, DWORD PTR _pAssoc$[ebp]
  000e2	8b 51 08	 mov	 edx, DWORD PTR [ecx+8]
  000e5	89 55 dc	 mov	 DWORD PTR _pTemp$[ebp], edx

; 1498 : 	memset( pAssoc, 0, sizeof(CMap::CAssoc) );

  000e8	6a 10		 push	 16			; 00000010H
  000ea	6a 00		 push	 0
  000ec	8b 45 e0	 mov	 eax, DWORD PTR _pAssoc$[ebp]
  000ef	50		 push	 eax
  000f0	e8 00 00 00 00	 call	 _memset
  000f5	83 c4 0c	 add	 esp, 12			; 0000000cH

; 1499 : 	pAssoc->pNext = pTemp;

  000f8	8b 4d e0	 mov	 ecx, DWORD PTR _pAssoc$[ebp]
  000fb	8b 55 dc	 mov	 edx, DWORD PTR _pTemp$[ebp]
  000fe	89 51 08	 mov	 DWORD PTR [ecx+8], edx

; 1500 : 
; 1501 : 	m_pFreeList = m_pFreeList->pNext;

  00101	8b 45 f0	 mov	 eax, DWORD PTR _this$[ebp]
  00104	8b 48 10	 mov	 ecx, DWORD PTR [eax+16]
  00107	8b 55 f0	 mov	 edx, DWORD PTR _this$[ebp]
  0010a	8b 41 08	 mov	 eax, DWORD PTR [ecx+8]
  0010d	89 42 10	 mov	 DWORD PTR [edx+16], eax

; 1502 : 	m_nCount++;

  00110	8b 4d f0	 mov	 ecx, DWORD PTR _this$[ebp]
  00113	8b 51 0c	 mov	 edx, DWORD PTR [ecx+12]
  00116	83 c2 01	 add	 edx, 1
  00119	8b 45 f0	 mov	 eax, DWORD PTR _this$[ebp]
  0011c	89 50 0c	 mov	 DWORD PTR [eax+12], edx

; 1503 : 	ASSERT(m_nCount > 0);  // make sure we don't overflow

  0011f	8b 4d f0	 mov	 ecx, DWORD PTR _this$[ebp]
  00122	83 79 0c 00	 cmp	 DWORD PTR [ecx+12], 0
  00126	7f 14		 jg	 SHORT $L189769
  00128	68 df 05 00 00	 push	 1503			; 000005dfH
  0012d	68 00 00 00 00	 push	 OFFSET FLAT:$SG189081
  00132	e8 00 00 00 00	 call	 ?AfxAssertFailedLine@@YGHPBDH@Z ; AfxAssertFailedLine
  00137	85 c0		 test	 eax, eax
  00139	74 01		 je	 SHORT $L189769
  0013b	cc		 int	 3
$L189769:

; 1504 : #pragma push_macro("new")
; 1505 : #undef new
; 1506 : 	::new(pAssoc) CMap::CAssoc(key);

  0013c	8b 45 e0	 mov	 eax, DWORD PTR _pAssoc$[ebp]
  0013f	50		 push	 eax
  00140	6a 10		 push	 16			; 00000010H
  00142	e8 00 00 00 00	 call	 ??2@YAPAXIPAX@Z		; operator new
  00147	83 c4 08	 add	 esp, 8
  0014a	89 45 d4	 mov	 DWORD PTR $T189771[ebp], eax
  0014d	c7 45 fc 00 00
	00 00		 mov	 DWORD PTR __$EHRec$[ebp+8], 0
  00154	83 7d d4 00	 cmp	 DWORD PTR $T189771[ebp], 0
  00158	74 11		 je	 SHORT $L189772
  0015a	8b 4d 08	 mov	 ecx, DWORD PTR _key$[ebp]
  0015d	51		 push	 ecx
  0015e	8b 4d d4	 mov	 ecx, DWORD PTR $T189771[ebp]
  00161	e8 00 00 00 00	 call	 ??0CAssoc@?$CMap@V?$CStringT@DV?$StrTraitMFC_DLL@DV?$ChTraitsCRT@D@ATL@@@@@ATL@@PBDVCPaneBase@ETSLayoutMgr@@V34@@@QAE@PBD@Z ; CMap<ATL::CStringT<char,StrTraitMFC_DLL<char,ATL::ChTraitsCRT<char> > >,char const *,ETSLayoutMgr::CPaneBase,ETSLayoutMgr::CPaneBase>::CAssoc::CAssoc
  00166	89 45 d0	 mov	 DWORD PTR tv155[ebp], eax
  00169	eb 07		 jmp	 SHORT $L189773
$L189772:
  0016b	c7 45 d0 00 00
	00 00		 mov	 DWORD PTR tv155[ebp], 0
$L189773:
  00172	8b 55 d0	 mov	 edx, DWORD PTR tv155[ebp]
  00175	89 55 d8	 mov	 DWORD PTR $T189770[ebp], edx
  00178	c7 45 fc ff ff
	ff ff		 mov	 DWORD PTR __$EHRec$[ebp+8], -1

; 1507 : #pragma pop_macro("new")
; 1508 : //	ConstructElements<KEY>(&pAssoc->key, 1);
; 1509 : //	ConstructElements<VALUE>(&pAssoc->value, 1);   // special construct values
; 1510 : 	return pAssoc;

  0017f	8b 45 e0	 mov	 eax, DWORD PTR _pAssoc$[ebp]

; 1511 : }

  00182	8b 4d f4	 mov	 ecx, DWORD PTR __$EHRec$[ebp]
  00185	64 89 0d 00 00
	00 00		 mov	 DWORD PTR fs:__except_list, ecx
  0018c	83 c4 30	 add	 esp, 48			; 00000030H
  0018f	3b ec		 cmp	 ebp, esp
  00191	e8 00 00 00 00	 call	 __RTC_CheckEsp
  00196	8b e5		 mov	 esp, ebp
  00198	5d		 pop	 ebp
  00199	c2 04 00	 ret	 4
_TEXT	ENDS
;	COMDAT text$x
text$x	SEGMENT
$L189774:
  00000	8b 45 e0	 mov	 eax, DWORD PTR _pAssoc$[ebp]
  00003	50		 push	 eax
  00004	8b 4d d4	 mov	 ecx, DWORD PTR $T189771[ebp]
  00007	51		 push	 ecx
  00008	e8 00 00 00 00	 call	 ??3@YAXPAX0@Z		; operator delete
  0000d	83 c4 08	 add	 esp, 8
  00010	c3		 ret	 0
__ehhandler$?NewAssoc@?$CMap@V?$CStringT@DV?$StrTraitMFC_DLL@DV?$ChTraitsCRT@D@ATL@@@@@ATL@@PBDVCPaneBase@ETSLayoutMgr@@V34@@@IAEPAVCAssoc@1@PBD@Z:
  00011	b8 00 00 00 00	 mov	 eax, OFFSET FLAT:$T189776
  00016	e9 00 00 00 00	 jmp	 ___CxxFrameHandler
text$x	ENDS
?NewAssoc@?$CMap@V?$CStringT@DV?$StrTraitMFC_DLL@DV?$ChTraitsCRT@D@ATL@@@@@ATL@@PBDVCPaneBase@ETSLayoutMgr@@V34@@@IAEPAVCAssoc@1@PBD@Z ENDP ; CMap<ATL::CStringT<char,StrTraitMFC_DLL<char,ATL::ChTraitsCRT<char> > >,char const *,ETSLayoutMgr::CPaneBase,ETSLayoutMgr::CPaneBase>::NewAssoc
; Function compile flags: /Odt /RTCsu
; File d:\program files (x86)\microsoft visual studio .net 2003\vc7\include\new.h
;	COMDAT ??2@YAPAXIPAX@Z
_TEXT	SEGMENT
___formal$ = 8						; size = 4
__P$ = 12						; size = 4
??2@YAPAXIPAX@Z PROC NEAR				; operator new, COMDAT

; 109  :         {return (_P); }

  00000	55		 push	 ebp
  00001	8b ec		 mov	 ebp, esp
  00003	8b 45 0c	 mov	 eax, DWORD PTR __P$[ebp]
  00006	5d		 pop	 ebp
  00007	c3		 ret	 0
??2@YAPAXIPAX@Z ENDP					; operator new
; Function compile flags: /Odt /RTCsu
_TEXT	ENDS
;	COMDAT ??3@YAXPAX0@Z
_TEXT	SEGMENT
___formal$ = 8						; size = 4
___formal$ = 12						; size = 4
??3@YAXPAX0@Z PROC NEAR					; operator delete, COMDAT

; 112  :         {return; }

  00000	55		 push	 ebp
  00001	8b ec		 mov	 ebp, esp
  00003	5d		 pop	 ebp
  00004	c3		 ret	 0
??3@YAXPAX0@Z ENDP					; operator delete
_TEXT	ENDS
PUBLIC	??$CompareElements@V?$CStringT@DV?$StrTraitMFC_DLL@DV?$ChTraitsCRT@D@ATL@@@@@ATL@@PBD@@YGHPBV?$CStringT@DV?$StrTraitMFC_DLL@DV?$ChTraitsCRT@D@ATL@@@@@ATL@@PBQBD@Z ; CompareElements<ATL::CStringT<char,StrTraitMFC_DLL<char,ATL::ChTraitsCRT<char> > >,char const *>
EXTRN	??$HashKey@PBD@@YGIPBD@Z:NEAR			; HashKey<char const *>
; Function compile flags: /Odt /RTCsu
; File d:\program files (x86)\microsoft visual studio .net 2003\vc7\atlmfc\include\afxtempl.h
;	COMDAT ?GetAssocAt@?$CMap@V?$CStringT@DV?$StrTraitMFC_DLL@DV?$ChTraitsCRT@D@ATL@@@@@ATL@@PBDVCPaneBase@ETSLayoutMgr@@V34@@@IBEPAVCAssoc@1@PBDAAI1@Z
_TEXT	SEGMENT
_pAssoc$ = -8						; size = 4
_this$ = -4						; size = 4
_key$ = 8						; size = 4
_nHashBucket$ = 12					; size = 4
_nHashValue$ = 16					; size = 4
?GetAssocAt@?$CMap@V?$CStringT@DV?$StrTraitMFC_DLL@DV?$ChTraitsCRT@D@ATL@@@@@ATL@@PBDVCPaneBase@ETSLayoutMgr@@V34@@@IBEPAVCAssoc@1@PBDAAI1@Z PROC NEAR ; CMap<ATL::CStringT<char,StrTraitMFC_DLL<char,ATL::ChTraitsCRT<char> > >,char const *,ETSLayoutMgr::CPaneBase,ETSLayoutMgr::CPaneBase>::GetAssocAt, COMDAT
; _this$ = ecx

; 1533 : {

  00000	55		 push	 ebp
  00001	8b ec		 mov	 ebp, esp
  00003	83 ec 08	 sub	 esp, 8
  00006	c7 45 f8 cc cc
	cc cc		 mov	 DWORD PTR [ebp-8], -858993460 ; ccccccccH
  0000d	c7 45 fc cc cc
	cc cc		 mov	 DWORD PTR [ebp-4], -858993460 ; ccccccccH
  00014	89 4d fc	 mov	 DWORD PTR _this$[ebp], ecx

; 1534 : 	nHashValue = HashKey<ARG_KEY>(key);

  00017	8b 45 08	 mov	 eax, DWORD PTR _key$[ebp]
  0001a	50		 push	 eax
  0001b	e8 00 00 00 00	 call	 ??$HashKey@PBD@@YGIPBD@Z ; HashKey<char const *>
  00020	8b 4d 10	 mov	 ecx, DWORD PTR _nHashValue$[ebp]
  00023	89 01		 mov	 DWORD PTR [ecx], eax

; 1535 : 	nHashBucket = nHashValue % m_nHashTableSize;

  00025	8b 55 10	 mov	 edx, DWORD PTR _nHashValue$[ebp]
  00028	8b 4d fc	 mov	 ecx, DWORD PTR _this$[ebp]
  0002b	8b 02		 mov	 eax, DWORD PTR [edx]
  0002d	33 d2		 xor	 edx, edx
  0002f	f7 71 08	 div	 DWORD PTR [ecx+8]
  00032	8b 45 0c	 mov	 eax, DWORD PTR _nHashBucket$[ebp]
  00035	89 10		 mov	 DWORD PTR [eax], edx

; 1536 : 
; 1537 : 	if (m_pHashTable == NULL)

  00037	8b 4d fc	 mov	 ecx, DWORD PTR _this$[ebp]
  0003a	83 79 04 00	 cmp	 DWORD PTR [ecx+4], 0
  0003e	75 04		 jne	 SHORT $L189097

; 1538 : 		return NULL;

  00040	33 c0		 xor	 eax, eax
  00042	eb 49		 jmp	 SHORT $L189096
$L189097:

; 1539 : 
; 1540 : 	// see if it exists
; 1541 : 	CAssoc* pAssoc;
; 1542 : 	for (pAssoc = m_pHashTable[nHashBucket]; pAssoc != NULL; pAssoc = pAssoc->pNext)

  00044	8b 55 0c	 mov	 edx, DWORD PTR _nHashBucket$[ebp]
  00047	8b 02		 mov	 eax, DWORD PTR [edx]
  00049	8b 4d fc	 mov	 ecx, DWORD PTR _this$[ebp]
  0004c	8b 51 04	 mov	 edx, DWORD PTR [ecx+4]
  0004f	8b 04 82	 mov	 eax, DWORD PTR [edx+eax*4]
  00052	89 45 f8	 mov	 DWORD PTR _pAssoc$[ebp], eax
  00055	eb 09		 jmp	 SHORT $L189099
$L189100:
  00057	8b 4d f8	 mov	 ecx, DWORD PTR _pAssoc$[ebp]
  0005a	8b 51 08	 mov	 edx, DWORD PTR [ecx+8]
  0005d	89 55 f8	 mov	 DWORD PTR _pAssoc$[ebp], edx
$L189099:
  00060	83 7d f8 00	 cmp	 DWORD PTR _pAssoc$[ebp], 0
  00064	74 25		 je	 SHORT $L189101

; 1543 : 	{
; 1544 : 		if (pAssoc->nHashValue == nHashValue && CompareElements(&pAssoc->key, &key))

  00066	8b 45 f8	 mov	 eax, DWORD PTR _pAssoc$[ebp]
  00069	8b 4d 10	 mov	 ecx, DWORD PTR _nHashValue$[ebp]
  0006c	8b 50 0c	 mov	 edx, DWORD PTR [eax+12]
  0006f	3b 11		 cmp	 edx, DWORD PTR [ecx]
  00071	75 16		 jne	 SHORT $L189108
  00073	8d 45 08	 lea	 eax, DWORD PTR _key$[ebp]
  00076	50		 push	 eax
  00077	8b 4d f8	 mov	 ecx, DWORD PTR _pAssoc$[ebp]
  0007a	51		 push	 ecx
  0007b	e8 00 00 00 00	 call	 ??$CompareElements@V?$CStringT@DV?$StrTraitMFC_DLL@DV?$ChTraitsCRT@D@ATL@@@@@ATL@@PBD@@YGHPBV?$CStringT@DV?$StrTraitMFC_DLL@DV?$ChTraitsCRT@D@ATL@@@@@ATL@@PBQBD@Z ; CompareElements<ATL::CStringT<char,StrTraitMFC_DLL<char,ATL::ChTraitsCRT<char> > >,char const *>
  00080	85 c0		 test	 eax, eax
  00082	74 05		 je	 SHORT $L189108

; 1545 : 			return pAssoc;

  00084	8b 45 f8	 mov	 eax, DWORD PTR _pAssoc$[ebp]
  00087	eb 04		 jmp	 SHORT $L189096
$L189108:

; 1546 : 	}

  00089	eb cc		 jmp	 SHORT $L189100
$L189101:

; 1547 : 	return NULL;

  0008b	33 c0		 xor	 eax, eax
$L189096:

; 1548 : }

  0008d	83 c4 08	 add	 esp, 8
  00090	3b ec		 cmp	 ebp, esp
  00092	e8 00 00 00 00	 call	 __RTC_CheckEsp
  00097	8b e5		 mov	 esp, ebp
  00099	5d		 pop	 ebp
  0009a	c2 0c 00	 ret	 12			; 0000000cH
?GetAssocAt@?$CMap@V?$CStringT@DV?$StrTraitMFC_DLL@DV?$ChTraitsCRT@D@ATL@@@@@ATL@@PBDVCPaneBase@ETSLayoutMgr@@V34@@@IBEPAVCAssoc@1@PBDAAI1@Z ENDP ; CMap<ATL::CStringT<char,StrTraitMFC_DLL<char,ATL::ChTraitsCRT<char> > >,char const *,ETSLayoutMgr::CPaneBase,ETSLayoutMgr::CPaneBase>::GetAssocAt
_TEXT	ENDS
PUBLIC	??0CPair@?$CMap@V?$CStringT@DV?$StrTraitMFC_DLL@DV?$ChTraitsCRT@D@ATL@@@@@ATL@@PBDVCPaneBase@ETSLayoutMgr@@V34@@@IAE@PBD@Z ; CMap<ATL::CStringT<char,StrTraitMFC_DLL<char,ATL::ChTraitsCRT<char> > >,char const *,ETSLayoutMgr::CPaneBase,ETSLayoutMgr::CPaneBase>::CPair::CPair
; Function compile flags: /Odt /RTCsu
;	COMDAT ??0CAssoc@?$CMap@V?$CStringT@DV?$StrTraitMFC_DLL@DV?$ChTraitsCRT@D@ATL@@@@@ATL@@PBDVCPaneBase@ETSLayoutMgr@@V34@@@QAE@PBD@Z
_TEXT	SEGMENT
_this$ = -4						; size = 4
_key$ = 8						; size = 4
??0CAssoc@?$CMap@V?$CStringT@DV?$StrTraitMFC_DLL@DV?$ChTraitsCRT@D@ATL@@@@@ATL@@PBDVCPaneBase@ETSLayoutMgr@@V34@@@QAE@PBD@Z PROC NEAR ; CMap<ATL::CStringT<char,StrTraitMFC_DLL<char,ATL::ChTraitsCRT<char> > >,char const *,ETSLayoutMgr::CPaneBase,ETSLayoutMgr::CPaneBase>::CAssoc::CAssoc, COMDAT
; _this$ = ecx

; 1263 : 		CAssoc( ARG_KEY key ) : CPair( key ) {}

  00000	55		 push	 ebp
  00001	8b ec		 mov	 ebp, esp
  00003	51		 push	 ecx
  00004	c7 45 fc cc cc
	cc cc		 mov	 DWORD PTR [ebp-4], -858993460 ; ccccccccH
  0000b	89 4d fc	 mov	 DWORD PTR _this$[ebp], ecx
  0000e	8b 45 08	 mov	 eax, DWORD PTR _key$[ebp]
  00011	50		 push	 eax
  00012	8b 4d fc	 mov	 ecx, DWORD PTR _this$[ebp]
  00015	e8 00 00 00 00	 call	 ??0CPair@?$CMap@V?$CStringT@DV?$StrTraitMFC_DLL@DV?$ChTraitsCRT@D@ATL@@@@@ATL@@PBDVCPaneBase@ETSLayoutMgr@@V34@@@IAE@PBD@Z ; CMap<ATL::CStringT<char,StrTraitMFC_DLL<char,ATL::ChTraitsCRT<char> > >,char const *,ETSLayoutMgr::CPaneBase,ETSLayoutMgr::CPaneBase>::CPair::CPair
  0001a	8b 45 fc	 mov	 eax, DWORD PTR _this$[ebp]
  0001d	83 c4 04	 add	 esp, 4
  00020	3b ec		 cmp	 ebp, esp
  00022	e8 00 00 00 00	 call	 __RTC_CheckEsp
  00027	8b e5		 mov	 esp, ebp
  00029	5d		 pop	 ebp
  0002a	c2 04 00	 ret	 4
??0CAssoc@?$CMap@V?$CStringT@DV?$StrTraitMFC_DLL@DV?$ChTraitsCRT@D@ATL@@@@@ATL@@PBDVCPaneBase@ETSLayoutMgr@@V34@@@QAE@PBD@Z ENDP ; CMap<ATL::CStringT<char,StrTraitMFC_DLL<char,ATL::ChTraitsCRT<char> > >,char const *,ETSLayoutMgr::CPaneBase,ETSLayoutMgr::CPaneBase>::CAssoc::CAssoc
_TEXT	ENDS
EXTRN	__imp_??0?$CStringT@DV?$StrTraitMFC_DLL@DV?$ChTraitsCRT@D@ATL@@@@@ATL@@QAE@PBD@Z:NEAR
;	COMDAT xdata$x
xdata$x	SEGMENT
$T189792 DD	0ffffffffH
	DD	FLAT:$L189787
$T189790 DD	019930520H
	DD	01H
	DD	FLAT:$T189792
	DD	2 DUP(00H)
	DD	2 DUP(00H)
; Function compile flags: /Odt /RTCsu
xdata$x	ENDS
;	COMDAT ??0CPair@?$CMap@V?$CStringT@DV?$StrTraitMFC_DLL@DV?$ChTraitsCRT@D@ATL@@@@@ATL@@PBDVCPaneBase@ETSLayoutMgr@@V34@@@IAE@PBD@Z
_TEXT	SEGMENT
_this$ = -16						; size = 4
__$EHRec$ = -12						; size = 12
_keyval$ = 8						; size = 4
??0CPair@?$CMap@V?$CStringT@DV?$StrTraitMFC_DLL@DV?$ChTraitsCRT@D@ATL@@@@@ATL@@PBDVCPaneBase@ETSLayoutMgr@@V34@@@IAE@PBD@Z PROC NEAR ; CMap<ATL::CStringT<char,StrTraitMFC_DLL<char,ATL::ChTraitsCRT<char> > >,char const *,ETSLayoutMgr::CPaneBase,ETSLayoutMgr::CPaneBase>::CPair::CPair, COMDAT
; _this$ = ecx

; 1252 : 		CPair( ARG_KEY keyval ) : key( keyval )	{}

  00000	55		 push	 ebp
  00001	8b ec		 mov	 ebp, esp
  00003	6a ff		 push	 -1
  00005	68 00 00 00 00	 push	 __ehhandler$??0CPair@?$CMap@V?$CStringT@DV?$StrTraitMFC_DLL@DV?$ChTraitsCRT@D@ATL@@@@@ATL@@PBDVCPaneBase@ETSLayoutMgr@@V34@@@IAE@PBD@Z
  0000a	64 a1 00 00 00
	00		 mov	 eax, DWORD PTR fs:__except_list
  00010	50		 push	 eax
  00011	64 89 25 00 00
	00 00		 mov	 DWORD PTR fs:__except_list, esp
  00018	51		 push	 ecx
  00019	56		 push	 esi
  0001a	c7 45 f0 cc cc
	cc cc		 mov	 DWORD PTR [ebp-16], -858993460 ; ccccccccH
  00021	89 4d f0	 mov	 DWORD PTR _this$[ebp], ecx
  00024	8b f4		 mov	 esi, esp
  00026	8b 45 08	 mov	 eax, DWORD PTR _keyval$[ebp]
  00029	50		 push	 eax
  0002a	8b 4d f0	 mov	 ecx, DWORD PTR _this$[ebp]
  0002d	ff 15 00 00 00
	00		 call	 DWORD PTR __imp_??0?$CStringT@DV?$StrTraitMFC_DLL@DV?$ChTraitsCRT@D@ATL@@@@@ATL@@QAE@PBD@Z
  00033	3b f4		 cmp	 esi, esp
  00035	e8 00 00 00 00	 call	 __RTC_CheckEsp
  0003a	c7 45 fc 00 00
	00 00		 mov	 DWORD PTR __$EHRec$[ebp+8], 0
  00041	8b 4d f0	 mov	 ecx, DWORD PTR _this$[ebp]
  00044	83 c1 04	 add	 ecx, 4
  00047	e8 00 00 00 00	 call	 ??0CPaneBase@ETSLayoutMgr@@QAE@XZ ; ETSLayoutMgr::CPaneBase::CPaneBase
  0004c	c7 45 fc ff ff
	ff ff		 mov	 DWORD PTR __$EHRec$[ebp+8], -1
  00053	8b 45 f0	 mov	 eax, DWORD PTR _this$[ebp]
  00056	8b 4d f4	 mov	 ecx, DWORD PTR __$EHRec$[ebp]
  00059	64 89 0d 00 00
	00 00		 mov	 DWORD PTR fs:__except_list, ecx
  00060	5e		 pop	 esi
  00061	83 c4 10	 add	 esp, 16			; 00000010H
  00064	3b ec		 cmp	 ebp, esp
  00066	e8 00 00 00 00	 call	 __RTC_CheckEsp
  0006b	8b e5		 mov	 esp, ebp
  0006d	5d		 pop	 ebp
  0006e	c2 04 00	 ret	 4
_TEXT	ENDS
;	COMDAT text$x
text$x	SEGMENT
$L189787:
  00000	8b f4		 mov	 esi, esp
  00002	8b 4d f0	 mov	 ecx, DWORD PTR _this$[ebp]
  00005	ff 15 00 00 00
	00		 call	 DWORD PTR __imp_??1?$CStringT@DV?$StrTraitMFC_DLL@DV?$ChTraitsCRT@D@ATL@@@@@ATL@@QAE@XZ
  0000b	3b f4		 cmp	 esi, esp
  0000d	e9 00 00 00 00	 jmp	 __RTC_CheckEsp
__ehhandler$??0CPair@?$CMap@V?$CStringT@DV?$StrTraitMFC_DLL@DV?$ChTraitsCRT@D@ATL@@@@@ATL@@PBDVCPaneBase@ETSLayoutMgr@@V34@@@IAE@PBD@Z:
  00012	b8 00 00 00 00	 mov	 eax, OFFSET FLAT:$T189790
  00017	e9 00 00 00 00	 jmp	 ___CxxFrameHandler
text$x	ENDS
??0CPair@?$CMap@V?$CStringT@DV?$StrTraitMFC_DLL@DV?$ChTraitsCRT@D@ATL@@@@@ATL@@PBDVCPaneBase@ETSLayoutMgr@@V34@@@IAE@PBD@Z ENDP ; CMap<ATL::CStringT<char,StrTraitMFC_DLL<char,ATL::ChTraitsCRT<char> > >,char const *,ETSLayoutMgr::CPaneBase,ETSLayoutMgr::CPaneBase>::CPair::CPair
PUBLIC	??8ATL@@YA_NABV?$CStringT@DV?$StrTraitMFC_DLL@DV?$ChTraitsCRT@D@ATL@@@@@0@PBD@Z ; ATL::operator==
; Function compile flags: /Odt /RTCsu
;	COMDAT ??$CompareElements@V?$CStringT@DV?$StrTraitMFC_DLL@DV?$ChTraitsCRT@D@ATL@@@@@ATL@@PBD@@YGHPBV?$CStringT@DV?$StrTraitMFC_DLL@DV?$ChTraitsCRT@D@ATL@@@@@ATL@@PBQBD@Z
_TEXT	SEGMENT
_pElement1$ = 8						; size = 4
_pElement2$ = 12					; size = 4
??$CompareElements@V?$CStringT@DV?$StrTraitMFC_DLL@DV?$ChTraitsCRT@D@ATL@@@@@ATL@@PBD@@YGHPBV?$CStringT@DV?$StrTraitMFC_DLL@DV?$ChTraitsCRT@D@ATL@@@@@ATL@@PBQBD@Z PROC NEAR ; CompareElements<ATL::CStringT<char,StrTraitMFC_DLL<char,ATL::ChTraitsCRT<char> > >,char const *>, COMDAT

; 150  : {

  00000	55		 push	 ebp
  00001	8b ec		 mov	 ebp, esp

; 151  : 	ASSERT(AfxIsValidAddress(pElement1, sizeof(TYPE), FALSE));

  00003	6a 00		 push	 0
  00005	6a 04		 push	 4
  00007	8b 45 08	 mov	 eax, DWORD PTR _pElement1$[ebp]
  0000a	50		 push	 eax
  0000b	e8 00 00 00 00	 call	 ?AfxIsValidAddress@@YGHPBXIH@Z ; AfxIsValidAddress
  00010	85 c0		 test	 eax, eax
  00012	75 14		 jne	 SHORT $L189796
  00014	68 97 00 00 00	 push	 151			; 00000097H
  00019	68 00 00 00 00	 push	 OFFSET FLAT:$SG189116
  0001e	e8 00 00 00 00	 call	 ?AfxAssertFailedLine@@YGHPBDH@Z ; AfxAssertFailedLine
  00023	85 c0		 test	 eax, eax
  00025	74 01		 je	 SHORT $L189796
  00027	cc		 int	 3
$L189796:

; 152  : 	ASSERT(AfxIsValidAddress(pElement2, sizeof(ARG_TYPE), FALSE));

  00028	6a 00		 push	 0
  0002a	6a 04		 push	 4
  0002c	8b 55 0c	 mov	 edx, DWORD PTR _pElement2$[ebp]
  0002f	52		 push	 edx
  00030	e8 00 00 00 00	 call	 ?AfxIsValidAddress@@YGHPBXIH@Z ; AfxIsValidAddress
  00035	85 c0		 test	 eax, eax
  00037	75 14		 jne	 SHORT $L189797
  00039	68 98 00 00 00	 push	 152			; 00000098H
  0003e	68 00 00 00 00	 push	 OFFSET FLAT:$SG189119
  00043	e8 00 00 00 00	 call	 ?AfxAssertFailedLine@@YGHPBDH@Z ; AfxAssertFailedLine
  00048	85 c0		 test	 eax, eax
  0004a	74 01		 je	 SHORT $L189797
  0004c	cc		 int	 3
$L189797:

; 153  : 
; 154  : 	return *pElement1 == *pElement2;

  0004d	8b 4d 0c	 mov	 ecx, DWORD PTR _pElement2$[ebp]
  00050	8b 11		 mov	 edx, DWORD PTR [ecx]
  00052	52		 push	 edx
  00053	8b 45 08	 mov	 eax, DWORD PTR _pElement1$[ebp]
  00056	50		 push	 eax
  00057	e8 00 00 00 00	 call	 ??8ATL@@YA_NABV?$CStringT@DV?$StrTraitMFC_DLL@DV?$ChTraitsCRT@D@ATL@@@@@0@PBD@Z ; ATL::operator==
  0005c	83 c4 08	 add	 esp, 8
  0005f	0f b6 c0	 movzx	 eax, al

; 155  : }

  00062	3b ec		 cmp	 ebp, esp
  00064	e8 00 00 00 00	 call	 __RTC_CheckEsp
  00069	5d		 pop	 ebp
  0006a	c2 08 00	 ret	 8
??$CompareElements@V?$CStringT@DV?$StrTraitMFC_DLL@DV?$ChTraitsCRT@D@ATL@@@@@ATL@@PBD@@YGHPBV?$CStringT@DV?$StrTraitMFC_DLL@DV?$ChTraitsCRT@D@ATL@@@@@ATL@@PBQBD@Z ENDP ; CompareElements<ATL::CStringT<char,StrTraitMFC_DLL<char,ATL::ChTraitsCRT<char> > >,char const *>
_TEXT	ENDS
EXTRN	__imp_?Compare@?$CStringT@DV?$StrTraitMFC_DLL@DV?$ChTraitsCRT@D@ATL@@@@@ATL@@QBEHPBD@Z:NEAR
; Function compile flags: /Odt /RTCsu
; File d:\program files (x86)\microsoft visual studio .net 2003\vc7\atlmfc\include\cstringt.h
;	COMDAT ??8ATL@@YA_NABV?$CStringT@DV?$StrTraitMFC_DLL@DV?$ChTraitsCRT@D@ATL@@@@@0@PBD@Z
_TEXT	SEGMENT
_str1$ = 8						; size = 4
_psz2$ = 12						; size = 4
??8ATL@@YA_NABV?$CStringT@DV?$StrTraitMFC_DLL@DV?$ChTraitsCRT@D@ATL@@@@@0@PBD@Z PROC NEAR ; ATL::operator==, COMDAT

; 2087 : 	{

  00000	55		 push	 ebp
  00001	8b ec		 mov	 ebp, esp
  00003	56		 push	 esi

; 2088 : 		return( str1.Compare( psz2 ) == 0 );

  00004	8b f4		 mov	 esi, esp
  00006	8b 45 0c	 mov	 eax, DWORD PTR _psz2$[ebp]
  00009	50		 push	 eax
  0000a	8b 4d 08	 mov	 ecx, DWORD PTR _str1$[ebp]
  0000d	ff 15 00 00 00
	00		 call	 DWORD PTR __imp_?Compare@?$CStringT@DV?$StrTraitMFC_DLL@DV?$ChTraitsCRT@D@ATL@@@@@ATL@@QBEHPBD@Z
  00013	3b f4		 cmp	 esi, esp
  00015	e8 00 00 00 00	 call	 __RTC_CheckEsp
  0001a	f7 d8		 neg	 eax
  0001c	1b c0		 sbb	 eax, eax
  0001e	40		 inc	 eax

; 2089 : 	}

  0001f	5e		 pop	 esi
  00020	3b ec		 cmp	 ebp, esp
  00022	e8 00 00 00 00	 call	 __RTC_CheckEsp
  00027	5d		 pop	 ebp
  00028	c3		 ret	 0
??8ATL@@YA_NABV?$CStringT@DV?$StrTraitMFC_DLL@DV?$ChTraitsCRT@D@ATL@@@@@0@PBD@Z ENDP ; ATL::operator==
; Function compile flags: /Odt /RTCsu
; File d:\program files (x86)\microsoft visual studio .net 2003\vc7\atlmfc\include\afxplex_.h
_TEXT	ENDS
;	COMDAT ?data@CPlex@@QAEPAXXZ
text$AFX_COL1	SEGMENT
_this$ = -4						; size = 4
?data@CPlex@@QAEPAXXZ PROC NEAR				; CPlex::data, COMDAT
; _this$ = ecx

; 40   : 	void* data() { return this+1; }

  00000	55		 push	 ebp
  00001	8b ec		 mov	 ebp, esp
  00003	51		 push	 ecx
  00004	c7 45 fc cc cc
	cc cc		 mov	 DWORD PTR [ebp-4], -858993460 ; ccccccccH
  0000b	89 4d fc	 mov	 DWORD PTR _this$[ebp], ecx
  0000e	8b 45 fc	 mov	 eax, DWORD PTR _this$[ebp]
  00011	83 c0 04	 add	 eax, 4
  00014	8b e5		 mov	 esp, ebp
  00016	5d		 pop	 ebp
  00017	c3		 ret	 0
?data@CPlex@@QAEPAXXZ ENDP				; CPlex::data
text$AFX_COL1	ENDS
END
