; Listing generated by Microsoft (R) Optimizing Compiler Version 13.10.3077 

	TITLE	.\src\LayoutMgr\ETSSplitter.cpp
	.386P
include listing.inc
if @Version gt 510
.model FLAT
else
_TEXT	SEGMENT PARA USE32 PUBLIC 'CODE'
_TEXT	ENDS
_DATA	SEGMENT DWORD USE32 PUBLIC 'DATA'
_DATA	ENDS
CONST	SEGMENT DWORD USE32 PUBLIC 'CONST'
CONST	ENDS
_BSS	SEGMENT DWORD USE32 PUBLIC 'BSS'
_BSS	ENDS
$$SYMBOLS	SEGMENT BYTE USE32 'DEBSYM'
$$SYMBOLS	ENDS
_TLS	SEGMENT DWORD USE32 PUBLIC 'TLS'
_TLS	ENDS
;	COMDAT ??_C@_02PGHGPEOM@?91?$AA@
CONST	SEGMENT DWORD USE32 PUBLIC 'CONST'
CONST	ENDS
;	COMDAT ??_C@_04JAADICNI@?5?$DN?1?$FL?$AA@
CONST	SEGMENT DWORD USE32 PUBLIC 'CONST'
CONST	ENDS
;	COMDAT ??_C@_0L@GJIJNDEK@ISO?98859?91?$AA@
CONST	SEGMENT DWORD USE32 PUBLIC 'CONST'
CONST	ENDS
;	COMDAT ??_C@_01JLIPDDHJ@?3?$AA@
CONST	SEGMENT DWORD USE32 PUBLIC 'CONST'
CONST	ENDS
;	COMDAT ??_C@_04LJDDIHIK@?4bmp?$AA@
CONST	SEGMENT DWORD USE32 PUBLIC 'CONST'
CONST	ENDS
;	COMDAT ??_C@_0EN@IBFBLEEG@D?3?2Program?5Files?5?$CIx86?$CJ?2Microsoft@
CONST	SEGMENT DWORD USE32 PUBLIC 'CONST'
CONST	ENDS
;	COMDAT ??_C@_0BE@JONHPENG@map?1set?$DMT?$DO?5too?5long?$AA@
CONST	SEGMENT DWORD USE32 PUBLIC 'CONST'
CONST	ENDS
;	COMDAT ??_C@_0BI@GIMJKKKN@AtlIsValidString?$CI?5psz?5?$CJ?$AA@
CONST	SEGMENT DWORD USE32 PUBLIC 'CONST'
CONST	ENDS
;	COMDAT ??_C@_0FH@BMBEKJNI@D?3?2Program?5Files?5?$CIx86?$CJ?2Microsoft@
CONST	SEGMENT DWORD USE32 PUBLIC 'CONST'
CONST	ENDS
rdata$r	SEGMENT DWORD USE32 PUBLIC 'CONST'
rdata$r	ENDS
xdata$x	SEGMENT DWORD USE32 PUBLIC 'CONST'
xdata$x	ENDS
text$AFX_COL1	SEGMENT PARA USE32 PUBLIC ''
text$AFX_COL1	ENDS
text$yc	SEGMENT PARA USE32 PUBLIC 'CODE'
text$yc	ENDS
CRT$XCA	SEGMENT DWORD USE32 PUBLIC 'DATA'
CRT$XCA	ENDS
CRT$XCU	SEGMENT DWORD USE32 PUBLIC 'DATA'
CRT$XCU	ENDS
CRT$XCL	SEGMENT DWORD USE32 PUBLIC 'DATA'
CRT$XCL	ENDS
CRT$XCC	SEGMENT DWORD USE32 PUBLIC 'DATA'
CRT$XCC	ENDS
CRT$XCZ	SEGMENT DWORD USE32 PUBLIC 'DATA'
CRT$XCZ	ENDS
text$yd	SEGMENT PARA USE32 PUBLIC 'CODE'
text$yd	ENDS
ATL$__m	SEGMENT DWORD USE32 PUBLIC ''
ATL$__m	ENDS
ATL$__z	SEGMENT DWORD USE32 PUBLIC ''
ATL$__z	ENDS
ATL$__a	SEGMENT DWORD USE32 PUBLIC ''
ATL$__a	ENDS
;	COMDAT ?GetSubPane@PaneBase@ETSLayoutMgr@@UAE?AVCPaneBase@2@V?$CStringT@DV?$StrTraitMFC_DLL@DV?$ChTraitsCRT@D@ATL@@@@@ATL@@@Z
_TEXT	SEGMENT PARA USE32 PUBLIC 'CODE'
_TEXT	ENDS
;	COMDAT ??1PaneBase@ETSLayoutMgr@@UAE@XZ
_TEXT	SEGMENT PARA USE32 PUBLIC 'CODE'
_TEXT	ENDS
;	COMDAT ?SetClosed@PaneBase@ETSLayoutMgr@@QAEXH@Z
_TEXT	SEGMENT PARA USE32 PUBLIC 'CODE'
_TEXT	ENDS
;	COMDAT ?showPane@PaneBase@ETSLayoutMgr@@UAEX_N@Z
_TEXT	SEGMENT PARA USE32 PUBLIC 'CODE'
_TEXT	ENDS
;	COMDAT ?IsValid@CPaneBase@ETSLayoutMgr@@QAE_NXZ
_TEXT	SEGMENT PARA USE32 PUBLIC 'CODE'
_TEXT	ENDS
;	COMDAT ?GetRect@ETSLayoutMgr@@UAE?AVCRect@@XZ
_TEXT	SEGMENT PARA USE32 PUBLIC 'CODE'
_TEXT	ENDS
;	COMDAT ?UpdateLayout@ETSLayoutMgr@@UAEXVCPane@1@@Z
_TEXT	SEGMENT PARA USE32 PUBLIC 'CODE'
_TEXT	ENDS
;	COMDAT ??_GPaneBase@ETSLayoutMgr@@UAEPAXI@Z
_TEXT	SEGMENT PARA USE32 PUBLIC 'CODE'
_TEXT	ENDS
;	COMDAT ??_GETSLayoutMgr@@UAEPAXI@Z
_TEXT	SEGMENT PARA USE32 PUBLIC 'CODE'
_TEXT	ENDS
;	COMDAT ??0CMarkup@@QAE@XZ
_TEXT	SEGMENT PARA USE32 PUBLIC 'CODE'
_TEXT	ENDS
;	COMDAT ??1CMarkup@@UAE@XZ
_TEXT	SEGMENT PARA USE32 PUBLIC 'CODE'
_TEXT	ENDS
;	COMDAT ?AddElem@CMarkup@@QAE_NPBD0@Z
_TEXT	SEGMENT PARA USE32 PUBLIC 'CODE'
_TEXT	ENDS
;	COMDAT ?AddChildElem@CMarkup@@QAE_NPBD0@Z
_TEXT	SEGMENT PARA USE32 PUBLIC 'CODE'
_TEXT	ENDS
;	COMDAT ??0ElemPos@CMarkup@@QAE@XZ
_TEXT	SEGMENT PARA USE32 PUBLIC 'CODE'
_TEXT	ENDS
;	COMDAT ?Clear@ElemPos@CMarkup@@QAEXXZ
_TEXT	SEGMENT PARA USE32 PUBLIC 'CODE'
_TEXT	ENDS
;	COMDAT ?Clear@TokenPos@CMarkup@@QAEXXZ
_TEXT	SEGMENT PARA USE32 PUBLIC 'CODE'
_TEXT	ENDS
;	COMDAT ?x_SetPos@CMarkup@@IAEXHHH@Z
_TEXT	SEGMENT PARA USE32 PUBLIC 'CODE'
_TEXT	ENDS
;	COMDAT ??_GCMarkup@@UAEPAXI@Z
_TEXT	SEGMENT PARA USE32 PUBLIC 'CODE'
_TEXT	ENDS
;	COMDAT ?AddElem@CMarkupArchive@@UAE_NPBD0@Z
_TEXT	SEGMENT PARA USE32 PUBLIC 'CODE'
_TEXT	ENDS
;	COMDAT ?AddChildElem@CMarkupArchive@@UAE_NPBD0@Z
_TEXT	SEGMENT PARA USE32 PUBLIC 'CODE'
_TEXT	ENDS
;	COMDAT ?FindElem@CMarkupArchive@@UAE_NPBD@Z
_TEXT	SEGMENT PARA USE32 PUBLIC 'CODE'
_TEXT	ENDS
;	COMDAT ?FindChildElem@CMarkupArchive@@UAE_NPBD@Z
_TEXT	SEGMENT PARA USE32 PUBLIC 'CODE'
_TEXT	ENDS
;	COMDAT ??_GCMarkupArchive@@UAEPAXI@Z
_TEXT	SEGMENT PARA USE32 PUBLIC 'CODE'
_TEXT	ENDS
;	COMDAT ??1?$pair@$$CBV?$CStringT@DV?$StrTraitMFC_DLL@DV?$ChTraitsCRT@D@ATL@@@@@ATL@@PAVCDibBitmap@@@std@@QAE@XZ
_TEXT	SEGMENT PARA USE32 PUBLIC 'CODE'
_TEXT	ENDS
;	COMDAT ??_GETSSplitter@@UAEPAXI@Z
_TEXT	SEGMENT PARA USE32 PUBLIC 'CODE'
_TEXT	ENDS
;	COMDAT ??HATL@@YA?AV?$CStringT@DV?$StrTraitMFC_DLL@DV?$ChTraitsCRT@D@ATL@@@@@0@ABV10@0@Z
_TEXT	SEGMENT PARA USE32 PUBLIC 'CODE'
_TEXT	ENDS
;	COMDAT ??HATL@@YA?AV?$CStringT@DV?$StrTraitMFC_DLL@DV?$ChTraitsCRT@D@ATL@@@@@0@ABV10@PBD@Z
_TEXT	SEGMENT PARA USE32 PUBLIC 'CODE'
_TEXT	ENDS
;	COMDAT ??B?$CComPtrBase@UITypeInfo2@@@ATL@@QBEPAUITypeInfo2@@XZ
_TEXT	SEGMENT PARA USE32 PUBLIC 'CODE'
_TEXT	ENDS
;	COMDAT ?equal@?$istreambuf_iterator@DU?$char_traits@D@std@@@std@@QBE_NABV12@@Z
_TEXT	SEGMENT PARA USE32 PUBLIC 'CODE'
_TEXT	ENDS
;	COMDAT ?equal@?$istreambuf_iterator@_WU?$char_traits@_W@std@@@std@@QBE_NABV12@@Z
_TEXT	SEGMENT PARA USE32 PUBLIC 'CODE'
_TEXT	ENDS
;	COMDAT ?insert@?$_Tree@V?$_Tmap_traits@V?$CStringT@DV?$StrTraitMFC_DLL@DV?$ChTraitsCRT@D@ATL@@@@@ATL@@PAVCDibBitmap@@U?$less@V?$CStringT@DV?$StrTraitMFC_DLL@DV?$ChTraitsCRT@D@ATL@@@@@ATL@@@std@@V?$allocator@U?$pair@$$CBV?$CStringT@DV?$StrTraitMFC_DLL@DV?$ChTraitsCRT@D@ATL@@@@@ATL@@PAVCDibBitmap@@@std@@@5@$0A@@std@@@std@@QAE?AU?$pair@Viterator@?$_Tree@V?$_Tmap_traits@V?$CStringT@DV?$StrTraitMFC_DLL@DV?$ChTraitsCRT@D@ATL@@@@@ATL@@PAVCDibBitmap@@U?$less@V?$CStringT@DV?$StrTraitMFC_DLL@DV?$ChTraitsCRT@D@ATL@@@@@ATL@@@std@@V?$allocator@U?$pair@$$CBV?$CStringT@DV?$StrTraitMFC_DLL@DV?$ChTraitsCRT@D@ATL@@@@@ATL@@PAVCDibBitmap@@@std@@@5@$0A@@std@@@std@@_N@2@ABU?$pair@$$CBV?$CStringT@DV?$StrTraitMFC_DLL@DV?$ChTraitsCRT@D@ATL@@@@@ATL@@PAVCDibBitmap@@@2@@Z
_TEXT	SEGMENT PARA USE32 PUBLIC 'CODE'
_TEXT	ENDS
;	COMDAT ??0?$pair@$$CBV?$CStringT@DV?$StrTraitMFC_DLL@DV?$ChTraitsCRT@D@ATL@@@@@ATL@@PAVCDibBitmap@@@std@@QAE@ABV?$CStringT@DV?$StrTraitMFC_DLL@DV?$ChTraitsCRT@D@ATL@@@@@ATL@@ABQAVCDibBitmap@@@Z
_TEXT	SEGMENT PARA USE32 PUBLIC 'CODE'
_TEXT	ENDS
;	COMDAT ?_Isnil@?$_Tree@V?$_Tmap_traits@V?$CStringT@DV?$StrTraitMFC_DLL@DV?$ChTraitsCRT@D@ATL@@@@@ATL@@PAVCDibBitmap@@U?$less@V?$CStringT@DV?$StrTraitMFC_DLL@DV?$ChTraitsCRT@D@ATL@@@@@ATL@@@std@@V?$allocator@U?$pair@$$CBV?$CStringT@DV?$StrTraitMFC_DLL@DV?$ChTraitsCRT@D@ATL@@@@@ATL@@PAVCDibBitmap@@@std@@@5@$0A@@std@@@std@@KAAADPAU_Node@?$_Tree_nod@V?$_Tmap_traits@V?$CStringT@DV?$StrTraitMFC_DLL@DV?$ChTraitsCRT@D@ATL@@@@@ATL@@PAVCDibBitmap@@U?$less@V?$CStringT@DV?$StrTraitMFC_DLL@DV?$ChTraitsCRT@D@ATL@@@@@ATL@@@std@@V?$allocator@U?$pair@$$CBV?$CStringT@DV?$StrTraitMFC_DLL@DV?$ChTraitsCRT@D@ATL@@@@@ATL@@PAVCDibBitmap@@@std@@@5@$0A@@std@@@2@@Z
_TEXT	SEGMENT PARA USE32 PUBLIC 'CODE'
_TEXT	ENDS
;	COMDAT ?_Key@?$_Tree@V?$_Tmap_traits@V?$CStringT@DV?$StrTraitMFC_DLL@DV?$ChTraitsCRT@D@ATL@@@@@ATL@@PAVCDibBitmap@@U?$less@V?$CStringT@DV?$StrTraitMFC_DLL@DV?$ChTraitsCRT@D@ATL@@@@@ATL@@@std@@V?$allocator@U?$pair@$$CBV?$CStringT@DV?$StrTraitMFC_DLL@DV?$ChTraitsCRT@D@ATL@@@@@ATL@@PAVCDibBitmap@@@std@@@5@$0A@@std@@@std@@KAABV?$CStringT@DV?$StrTraitMFC_DLL@DV?$ChTraitsCRT@D@ATL@@@@@ATL@@PAU_Node@?$_Tree_nod@V?$_Tmap_traits@V?$CStringT@DV?$StrTraitMFC_DLL@DV?$ChTraitsCRT@D@ATL@@@@@ATL@@PAVCDibBitmap@@U?$less@V?$CStringT@DV?$StrTraitMFC_DLL@DV?$ChTraitsCRT@D@ATL@@@@@ATL@@@std@@V?$allocator@U?$pair@$$CBV?$CStringT@DV?$StrTraitMFC_DLL@DV?$ChTraitsCRT@D@ATL@@@@@ATL@@PAVCDibBitmap@@@std@@@5@$0A@@std@@@2@@Z
_TEXT	SEGMENT PARA USE32 PUBLIC 'CODE'
_TEXT	ENDS
;	COMDAT ?_Left@?$_Tree@V?$_Tmap_traits@V?$CStringT@DV?$StrTraitMFC_DLL@DV?$ChTraitsCRT@D@ATL@@@@@ATL@@PAVCDibBitmap@@U?$less@V?$CStringT@DV?$StrTraitMFC_DLL@DV?$ChTraitsCRT@D@ATL@@@@@ATL@@@std@@V?$allocator@U?$pair@$$CBV?$CStringT@DV?$StrTraitMFC_DLL@DV?$ChTraitsCRT@D@ATL@@@@@ATL@@PAVCDibBitmap@@@std@@@5@$0A@@std@@@std@@KAAAPAU_Node@?$_Tree_nod@V?$_Tmap_traits@V?$CStringT@DV?$StrTraitMFC_DLL@DV?$ChTraitsCRT@D@ATL@@@@@ATL@@PAVCDibBitmap@@U?$less@V?$CStringT@DV?$StrTraitMFC_DLL@DV?$ChTraitsCRT@D@ATL@@@@@ATL@@@std@@V?$allocator@U?$pair@$$CBV?$CStringT@DV?$StrTraitMFC_DLL@DV?$ChTraitsCRT@D@ATL@@@@@ATL@@PAVCDibBitmap@@@std@@@5@$0A@@std@@@2@PAU342@@Z
_TEXT	SEGMENT PARA USE32 PUBLIC 'CODE'
_TEXT	ENDS
;	COMDAT ?_Right@?$_Tree@V?$_Tmap_traits@V?$CStringT@DV?$StrTraitMFC_DLL@DV?$ChTraitsCRT@D@ATL@@@@@ATL@@PAVCDibBitmap@@U?$less@V?$CStringT@DV?$StrTraitMFC_DLL@DV?$ChTraitsCRT@D@ATL@@@@@ATL@@@std@@V?$allocator@U?$pair@$$CBV?$CStringT@DV?$StrTraitMFC_DLL@DV?$ChTraitsCRT@D@ATL@@@@@ATL@@PAVCDibBitmap@@@std@@@5@$0A@@std@@@std@@KAAAPAU_Node@?$_Tree_nod@V?$_Tmap_traits@V?$CStringT@DV?$StrTraitMFC_DLL@DV?$ChTraitsCRT@D@ATL@@@@@ATL@@PAVCDibBitmap@@U?$less@V?$CStringT@DV?$StrTraitMFC_DLL@DV?$ChTraitsCRT@D@ATL@@@@@ATL@@@std@@V?$allocator@U?$pair@$$CBV?$CStringT@DV?$StrTraitMFC_DLL@DV?$ChTraitsCRT@D@ATL@@@@@ATL@@PAVCDibBitmap@@@std@@@5@$0A@@std@@@2@PAU342@@Z
_TEXT	SEGMENT PARA USE32 PUBLIC 'CODE'
_TEXT	ENDS
;	COMDAT ?begin@?$_Tree@V?$_Tmap_traits@V?$CStringT@DV?$StrTraitMFC_DLL@DV?$ChTraitsCRT@D@ATL@@@@@ATL@@PAVCDibBitmap@@U?$less@V?$CStringT@DV?$StrTraitMFC_DLL@DV?$ChTraitsCRT@D@ATL@@@@@ATL@@@std@@V?$allocator@U?$pair@$$CBV?$CStringT@DV?$StrTraitMFC_DLL@DV?$ChTraitsCRT@D@ATL@@@@@ATL@@PAVCDibBitmap@@@std@@@5@$0A@@std@@@std@@QAE?AViterator@12@XZ
_TEXT	SEGMENT PARA USE32 PUBLIC 'CODE'
_TEXT	ENDS
;	COMDAT ?_Insert@?$_Tree@V?$_Tmap_traits@V?$CStringT@DV?$StrTraitMFC_DLL@DV?$ChTraitsCRT@D@ATL@@@@@ATL@@PAVCDibBitmap@@U?$less@V?$CStringT@DV?$StrTraitMFC_DLL@DV?$ChTraitsCRT@D@ATL@@@@@ATL@@@std@@V?$allocator@U?$pair@$$CBV?$CStringT@DV?$StrTraitMFC_DLL@DV?$ChTraitsCRT@D@ATL@@@@@ATL@@PAVCDibBitmap@@@std@@@5@$0A@@std@@@std@@IAE?AViterator@12@_NPAU_Node@?$_Tree_nod@V?$_Tmap_traits@V?$CStringT@DV?$StrTraitMFC_DLL@DV?$ChTraitsCRT@D@ATL@@@@@ATL@@PAVCDibBitmap@@U?$less@V?$CStringT@DV?$StrTraitMFC_DLL@DV?$ChTraitsCRT@D@ATL@@@@@ATL@@@std@@V?$allocator@U?$pair@$$CBV?$CStringT@DV?$StrTraitMFC_DLL@DV?$ChTraitsCRT@D@ATL@@@@@ATL@@PAVCDibBitmap@@@std@@@5@$0A@@std@@@2@ABU?$pair@$$CBV?$CStringT@DV?$StrTraitMFC_DLL@DV?$ChTraitsCRT@D@ATL@@@@@ATL@@PAVCDibBitmap@@@2@@Z
_TEXT	SEGMENT PARA USE32 PUBLIC 'CODE'
_TEXT	ENDS
;	COMDAT ?_Root@?$_Tree@V?$_Tmap_traits@V?$CStringT@DV?$StrTraitMFC_DLL@DV?$ChTraitsCRT@D@ATL@@@@@ATL@@PAVCDibBitmap@@U?$less@V?$CStringT@DV?$StrTraitMFC_DLL@DV?$ChTraitsCRT@D@ATL@@@@@ATL@@@std@@V?$allocator@U?$pair@$$CBV?$CStringT@DV?$StrTraitMFC_DLL@DV?$ChTraitsCRT@D@ATL@@@@@ATL@@PAVCDibBitmap@@@std@@@5@$0A@@std@@@std@@IAEAAPAU_Node@?$_Tree_nod@V?$_Tmap_traits@V?$CStringT@DV?$StrTraitMFC_DLL@DV?$ChTraitsCRT@D@ATL@@@@@ATL@@PAVCDibBitmap@@U?$less@V?$CStringT@DV?$StrTraitMFC_DLL@DV?$ChTraitsCRT@D@ATL@@@@@ATL@@@std@@V?$allocator@U?$pair@$$CBV?$CStringT@DV?$StrTraitMFC_DLL@DV?$ChTraitsCRT@D@ATL@@@@@ATL@@PAVCDibBitmap@@@std@@@5@$0A@@std@@@2@XZ
_TEXT	SEGMENT PARA USE32 PUBLIC 'CODE'
_TEXT	ENDS
;	COMDAT ?_Kfn@?$_Tmap_traits@V?$CStringT@DV?$StrTraitMFC_DLL@DV?$ChTraitsCRT@D@ATL@@@@@ATL@@PAVCDibBitmap@@U?$less@V?$CStringT@DV?$StrTraitMFC_DLL@DV?$ChTraitsCRT@D@ATL@@@@@ATL@@@std@@V?$allocator@U?$pair@$$CBV?$CStringT@DV?$StrTraitMFC_DLL@DV?$ChTraitsCRT@D@ATL@@@@@ATL@@PAVCDibBitmap@@@std@@@5@$0A@@std@@SAABV?$CStringT@DV?$StrTraitMFC_DLL@DV?$ChTraitsCRT@D@ATL@@@@@ATL@@ABU?$pair@$$CBV?$CStringT@DV?$StrTraitMFC_DLL@DV?$ChTraitsCRT@D@ATL@@@@@ATL@@PAVCDibBitmap@@@2@@Z
_TEXT	SEGMENT PARA USE32 PUBLIC 'CODE'
_TEXT	ENDS
;	COMDAT ??R?$less@V?$CStringT@DV?$StrTraitMFC_DLL@DV?$ChTraitsCRT@D@ATL@@@@@ATL@@@std@@QBE_NABV?$CStringT@DV?$StrTraitMFC_DLL@DV?$ChTraitsCRT@D@ATL@@@@@ATL@@0@Z
_TEXT	SEGMENT PARA USE32 PUBLIC 'CODE'
_TEXT	ENDS
;	COMDAT ??0?$pair@Viterator@?$_Tree@V?$_Tmap_traits@V?$CStringT@DV?$StrTraitMFC_DLL@DV?$ChTraitsCRT@D@ATL@@@@@ATL@@PAVCDibBitmap@@U?$less@V?$CStringT@DV?$StrTraitMFC_DLL@DV?$ChTraitsCRT@D@ATL@@@@@ATL@@@std@@V?$allocator@U?$pair@$$CBV?$CStringT@DV?$StrTraitMFC_DLL@DV?$ChTraitsCRT@D@ATL@@@@@ATL@@PAVCDibBitmap@@@std@@@5@$0A@@std@@@std@@_N@std@@QAE@ABViterator@?$_Tree@V?$_Tmap_traits@V?$CStringT@DV?$StrTraitMFC_DLL@DV?$ChTraitsCRT@D@ATL@@@@@ATL@@PAVCDibBitmap@@U?$less@V?$CStringT@DV?$StrTraitMFC_DLL@DV?$ChTraitsCRT@D@ATL@@@@@ATL@@@std@@V?$allocator@U?$pair@$$CBV?$CStringT@DV?$StrTraitMFC_DLL@DV?$ChTraitsCRT@D@ATL@@@@@ATL@@PAVCDibBitmap@@@std@@@5@$0A@@std@@@1@AB_N@Z
_TEXT	SEGMENT PARA USE32 PUBLIC 'CODE'
_TEXT	ENDS
;	COMDAT ??0iterator@?$_Tree@V?$_Tmap_traits@V?$CStringT@DV?$StrTraitMFC_DLL@DV?$ChTraitsCRT@D@ATL@@@@@ATL@@PAVCDibBitmap@@U?$less@V?$CStringT@DV?$StrTraitMFC_DLL@DV?$ChTraitsCRT@D@ATL@@@@@ATL@@@std@@V?$allocator@U?$pair@$$CBV?$CStringT@DV?$StrTraitMFC_DLL@DV?$ChTraitsCRT@D@ATL@@@@@ATL@@PAVCDibBitmap@@@std@@@5@$0A@@std@@@std@@QAE@PAU_Node@?$_Tree_nod@V?$_Tmap_traits@V?$CStringT@DV?$StrTraitMFC_DLL@DV?$ChTraitsCRT@D@ATL@@@@@ATL@@PAVCDibBitmap@@U?$less@V?$CStringT@DV?$StrTraitMFC_DLL@DV?$ChTraitsCRT@D@ATL@@@@@ATL@@@std@@V?$allocator@U?$pair@$$CBV?$CStringT@DV?$StrTraitMFC_DLL@DV?$ChTraitsCRT@D@ATL@@@@@ATL@@PAVCDibBitmap@@@std@@@5@$0A@@std@@@2@@Z
_TEXT	SEGMENT PARA USE32 PUBLIC 'CODE'
_TEXT	ENDS
;	COMDAT ??Fiterator@?$_Tree@V?$_Tmap_traits@V?$CStringT@DV?$StrTraitMFC_DLL@DV?$ChTraitsCRT@D@ATL@@@@@ATL@@PAVCDibBitmap@@U?$less@V?$CStringT@DV?$StrTraitMFC_DLL@DV?$ChTraitsCRT@D@ATL@@@@@ATL@@@std@@V?$allocator@U?$pair@$$CBV?$CStringT@DV?$StrTraitMFC_DLL@DV?$ChTraitsCRT@D@ATL@@@@@ATL@@PAVCDibBitmap@@@std@@@5@$0A@@std@@@std@@QAEAAV012@XZ
_TEXT	SEGMENT PARA USE32 PUBLIC 'CODE'
_TEXT	ENDS
;	COMDAT ??8const_iterator@?$_Tree@V?$_Tmap_traits@V?$CStringT@DV?$StrTraitMFC_DLL@DV?$ChTraitsCRT@D@ATL@@@@@ATL@@PAVCDibBitmap@@U?$less@V?$CStringT@DV?$StrTraitMFC_DLL@DV?$ChTraitsCRT@D@ATL@@@@@ATL@@@std@@V?$allocator@U?$pair@$$CBV?$CStringT@DV?$StrTraitMFC_DLL@DV?$ChTraitsCRT@D@ATL@@@@@ATL@@PAVCDibBitmap@@@std@@@5@$0A@@std@@@std@@QBE_NABV012@@Z
_TEXT	SEGMENT PARA USE32 PUBLIC 'CODE'
_TEXT	ENDS
;	COMDAT ?_Mynode@const_iterator@?$_Tree@V?$_Tmap_traits@V?$CStringT@DV?$StrTraitMFC_DLL@DV?$ChTraitsCRT@D@ATL@@@@@ATL@@PAVCDibBitmap@@U?$less@V?$CStringT@DV?$StrTraitMFC_DLL@DV?$ChTraitsCRT@D@ATL@@@@@ATL@@@std@@V?$allocator@U?$pair@$$CBV?$CStringT@DV?$StrTraitMFC_DLL@DV?$ChTraitsCRT@D@ATL@@@@@ATL@@PAVCDibBitmap@@@std@@@5@$0A@@std@@@std@@QBEPAU_Node@?$_Tree_nod@V?$_Tmap_traits@V?$CStringT@DV?$StrTraitMFC_DLL@DV?$ChTraitsCRT@D@ATL@@@@@ATL@@PAVCDibBitmap@@U?$less@V?$CStringT@DV?$StrTraitMFC_DLL@DV?$ChTraitsCRT@D@ATL@@@@@ATL@@@std@@V?$allocator@U?$pair@$$CBV?$CStringT@DV?$StrTraitMFC_DLL@DV?$ChTraitsCRT@D@ATL@@@@@ATL@@PAVCDibBitmap@@@std@@@5@$0A@@std@@@3@XZ
_TEXT	SEGMENT PARA USE32 PUBLIC 'CODE'
_TEXT	ENDS
;	COMDAT ??0length_error@std@@QAE@ABV01@@Z
_TEXT	SEGMENT PARA USE32 PUBLIC 'CODE'
_TEXT	ENDS
;	COMDAT ??MATL@@YA_NABV?$CStringT@DV?$StrTraitMFC_DLL@DV?$ChTraitsCRT@D@ATL@@@@@0@0@Z
_TEXT	SEGMENT PARA USE32 PUBLIC 'CODE'
_TEXT	ENDS
;	COMDAT ?_Color@?$_Tree@V?$_Tmap_traits@V?$CStringT@DV?$StrTraitMFC_DLL@DV?$ChTraitsCRT@D@ATL@@@@@ATL@@PAVCDibBitmap@@U?$less@V?$CStringT@DV?$StrTraitMFC_DLL@DV?$ChTraitsCRT@D@ATL@@@@@ATL@@@std@@V?$allocator@U?$pair@$$CBV?$CStringT@DV?$StrTraitMFC_DLL@DV?$ChTraitsCRT@D@ATL@@@@@ATL@@PAVCDibBitmap@@@std@@@5@$0A@@std@@@std@@KAAADPAU_Node@?$_Tree_nod@V?$_Tmap_traits@V?$CStringT@DV?$StrTraitMFC_DLL@DV?$ChTraitsCRT@D@ATL@@@@@ATL@@PAVCDibBitmap@@U?$less@V?$CStringT@DV?$StrTraitMFC_DLL@DV?$ChTraitsCRT@D@ATL@@@@@ATL@@@std@@V?$allocator@U?$pair@$$CBV?$CStringT@DV?$StrTraitMFC_DLL@DV?$ChTraitsCRT@D@ATL@@@@@ATL@@PAVCDibBitmap@@@std@@@5@$0A@@std@@@2@@Z
_TEXT	SEGMENT PARA USE32 PUBLIC 'CODE'
_TEXT	ENDS
;	COMDAT ?_Parent@?$_Tree@V?$_Tmap_traits@V?$CStringT@DV?$StrTraitMFC_DLL@DV?$ChTraitsCRT@D@ATL@@@@@ATL@@PAVCDibBitmap@@U?$less@V?$CStringT@DV?$StrTraitMFC_DLL@DV?$ChTraitsCRT@D@ATL@@@@@ATL@@@std@@V?$allocator@U?$pair@$$CBV?$CStringT@DV?$StrTraitMFC_DLL@DV?$ChTraitsCRT@D@ATL@@@@@ATL@@PAVCDibBitmap@@@std@@@5@$0A@@std@@@std@@KAAAPAU_Node@?$_Tree_nod@V?$_Tmap_traits@V?$CStringT@DV?$StrTraitMFC_DLL@DV?$ChTraitsCRT@D@ATL@@@@@ATL@@PAVCDibBitmap@@U?$less@V?$CStringT@DV?$StrTraitMFC_DLL@DV?$ChTraitsCRT@D@ATL@@@@@ATL@@@std@@V?$allocator@U?$pair@$$CBV?$CStringT@DV?$StrTraitMFC_DLL@DV?$ChTraitsCRT@D@ATL@@@@@ATL@@PAVCDibBitmap@@@std@@@5@$0A@@std@@@2@PAU342@@Z
_TEXT	SEGMENT PARA USE32 PUBLIC 'CODE'
_TEXT	ENDS
;	COMDAT ?_Myval@?$_Tree@V?$_Tmap_traits@V?$CStringT@DV?$StrTraitMFC_DLL@DV?$ChTraitsCRT@D@ATL@@@@@ATL@@PAVCDibBitmap@@U?$less@V?$CStringT@DV?$StrTraitMFC_DLL@DV?$ChTraitsCRT@D@ATL@@@@@ATL@@@std@@V?$allocator@U?$pair@$$CBV?$CStringT@DV?$StrTraitMFC_DLL@DV?$ChTraitsCRT@D@ATL@@@@@ATL@@PAVCDibBitmap@@@std@@@5@$0A@@std@@@std@@KAAAU?$pair@$$CBV?$CStringT@DV?$StrTraitMFC_DLL@DV?$ChTraitsCRT@D@ATL@@@@@ATL@@PAVCDibBitmap@@@2@PAU_Node@?$_Tree_nod@V?$_Tmap_traits@V?$CStringT@DV?$StrTraitMFC_DLL@DV?$ChTraitsCRT@D@ATL@@@@@ATL@@PAVCDibBitmap@@U?$less@V?$CStringT@DV?$StrTraitMFC_DLL@DV?$ChTraitsCRT@D@ATL@@@@@ATL@@@std@@V?$allocator@U?$pair@$$CBV?$CStringT@DV?$StrTraitMFC_DLL@DV?$ChTraitsCRT@D@ATL@@@@@ATL@@PAVCDibBitmap@@@std@@@5@$0A@@std@@@2@@Z
_TEXT	SEGMENT PARA USE32 PUBLIC 'CODE'
_TEXT	ENDS
;	COMDAT ?max_size@?$_Tree@V?$_Tmap_traits@V?$CStringT@DV?$StrTraitMFC_DLL@DV?$ChTraitsCRT@D@ATL@@@@@ATL@@PAVCDibBitmap@@U?$less@V?$CStringT@DV?$StrTraitMFC_DLL@DV?$ChTraitsCRT@D@ATL@@@@@ATL@@@std@@V?$allocator@U?$pair@$$CBV?$CStringT@DV?$StrTraitMFC_DLL@DV?$ChTraitsCRT@D@ATL@@@@@ATL@@PAVCDibBitmap@@@std@@@5@$0A@@std@@@std@@QBEIXZ
_TEXT	SEGMENT PARA USE32 PUBLIC 'CODE'
_TEXT	ENDS
;	COMDAT ?_Lmost@?$_Tree@V?$_Tmap_traits@V?$CStringT@DV?$StrTraitMFC_DLL@DV?$ChTraitsCRT@D@ATL@@@@@ATL@@PAVCDibBitmap@@U?$less@V?$CStringT@DV?$StrTraitMFC_DLL@DV?$ChTraitsCRT@D@ATL@@@@@ATL@@@std@@V?$allocator@U?$pair@$$CBV?$CStringT@DV?$StrTraitMFC_DLL@DV?$ChTraitsCRT@D@ATL@@@@@ATL@@PAVCDibBitmap@@@std@@@5@$0A@@std@@@std@@IAEAAPAU_Node@?$_Tree_nod@V?$_Tmap_traits@V?$CStringT@DV?$StrTraitMFC_DLL@DV?$ChTraitsCRT@D@ATL@@@@@ATL@@PAVCDibBitmap@@U?$less@V?$CStringT@DV?$StrTraitMFC_DLL@DV?$ChTraitsCRT@D@ATL@@@@@ATL@@@std@@V?$allocator@U?$pair@$$CBV?$CStringT@DV?$StrTraitMFC_DLL@DV?$ChTraitsCRT@D@ATL@@@@@ATL@@PAVCDibBitmap@@@std@@@5@$0A@@std@@@2@XZ
_TEXT	SEGMENT PARA USE32 PUBLIC 'CODE'
_TEXT	ENDS
;	COMDAT ?_Lrotate@?$_Tree@V?$_Tmap_traits@V?$CStringT@DV?$StrTraitMFC_DLL@DV?$ChTraitsCRT@D@ATL@@@@@ATL@@PAVCDibBitmap@@U?$less@V?$CStringT@DV?$StrTraitMFC_DLL@DV?$ChTraitsCRT@D@ATL@@@@@ATL@@@std@@V?$allocator@U?$pair@$$CBV?$CStringT@DV?$StrTraitMFC_DLL@DV?$ChTraitsCRT@D@ATL@@@@@ATL@@PAVCDibBitmap@@@std@@@5@$0A@@std@@@std@@IAEXPAU_Node@?$_Tree_nod@V?$_Tmap_traits@V?$CStringT@DV?$StrTraitMFC_DLL@DV?$ChTraitsCRT@D@ATL@@@@@ATL@@PAVCDibBitmap@@U?$less@V?$CStringT@DV?$StrTraitMFC_DLL@DV?$ChTraitsCRT@D@ATL@@@@@ATL@@@std@@V?$allocator@U?$pair@$$CBV?$CStringT@DV?$StrTraitMFC_DLL@DV?$ChTraitsCRT@D@ATL@@@@@ATL@@PAVCDibBitmap@@@std@@@5@$0A@@std@@@2@@Z
_TEXT	SEGMENT PARA USE32 PUBLIC 'CODE'
_TEXT	ENDS
;	COMDAT ?_Rmost@?$_Tree@V?$_Tmap_traits@V?$CStringT@DV?$StrTraitMFC_DLL@DV?$ChTraitsCRT@D@ATL@@@@@ATL@@PAVCDibBitmap@@U?$less@V?$CStringT@DV?$StrTraitMFC_DLL@DV?$ChTraitsCRT@D@ATL@@@@@ATL@@@std@@V?$allocator@U?$pair@$$CBV?$CStringT@DV?$StrTraitMFC_DLL@DV?$ChTraitsCRT@D@ATL@@@@@ATL@@PAVCDibBitmap@@@std@@@5@$0A@@std@@@std@@IAEAAPAU_Node@?$_Tree_nod@V?$_Tmap_traits@V?$CStringT@DV?$StrTraitMFC_DLL@DV?$ChTraitsCRT@D@ATL@@@@@ATL@@PAVCDibBitmap@@U?$less@V?$CStringT@DV?$StrTraitMFC_DLL@DV?$ChTraitsCRT@D@ATL@@@@@ATL@@@std@@V?$allocator@U?$pair@$$CBV?$CStringT@DV?$StrTraitMFC_DLL@DV?$ChTraitsCRT@D@ATL@@@@@ATL@@PAVCDibBitmap@@@std@@@5@$0A@@std@@@2@XZ
_TEXT	SEGMENT PARA USE32 PUBLIC 'CODE'
_TEXT	ENDS
;	COMDAT ?_Rrotate@?$_Tree@V?$_Tmap_traits@V?$CStringT@DV?$StrTraitMFC_DLL@DV?$ChTraitsCRT@D@ATL@@@@@ATL@@PAVCDibBitmap@@U?$less@V?$CStringT@DV?$StrTraitMFC_DLL@DV?$ChTraitsCRT@D@ATL@@@@@ATL@@@std@@V?$allocator@U?$pair@$$CBV?$CStringT@DV?$StrTraitMFC_DLL@DV?$ChTraitsCRT@D@ATL@@@@@ATL@@PAVCDibBitmap@@@std@@@5@$0A@@std@@@std@@IAEXPAU_Node@?$_Tree_nod@V?$_Tmap_traits@V?$CStringT@DV?$StrTraitMFC_DLL@DV?$ChTraitsCRT@D@ATL@@@@@ATL@@PAVCDibBitmap@@U?$less@V?$CStringT@DV?$StrTraitMFC_DLL@DV?$ChTraitsCRT@D@ATL@@@@@ATL@@@std@@V?$allocator@U?$pair@$$CBV?$CStringT@DV?$StrTraitMFC_DLL@DV?$ChTraitsCRT@D@ATL@@@@@ATL@@PAVCDibBitmap@@@std@@@5@$0A@@std@@@2@@Z
_TEXT	SEGMENT PARA USE32 PUBLIC 'CODE'
_TEXT	ENDS
;	COMDAT ?_Buynode@?$_Tree@V?$_Tmap_traits@V?$CStringT@DV?$StrTraitMFC_DLL@DV?$ChTraitsCRT@D@ATL@@@@@ATL@@PAVCDibBitmap@@U?$less@V?$CStringT@DV?$StrTraitMFC_DLL@DV?$ChTraitsCRT@D@ATL@@@@@ATL@@@std@@V?$allocator@U?$pair@$$CBV?$CStringT@DV?$StrTraitMFC_DLL@DV?$ChTraitsCRT@D@ATL@@@@@ATL@@PAVCDibBitmap@@@std@@@5@$0A@@std@@@std@@IAEPAU_Node@?$_Tree_nod@V?$_Tmap_traits@V?$CStringT@DV?$StrTraitMFC_DLL@DV?$ChTraitsCRT@D@ATL@@@@@ATL@@PAVCDibBitmap@@U?$less@V?$CStringT@DV?$StrTraitMFC_DLL@DV?$ChTraitsCRT@D@ATL@@@@@ATL@@@std@@V?$allocator@U?$pair@$$CBV?$CStringT@DV?$StrTraitMFC_DLL@DV?$ChTraitsCRT@D@ATL@@@@@ATL@@PAVCDibBitmap@@@std@@@5@$0A@@std@@@2@PAU342@00ABU?$pair@$$CBV?$CStringT@DV?$StrTraitMFC_DLL@DV?$ChTraitsCRT@D@ATL@@@@@ATL@@PAVCDibBitmap@@@2@D@Z
_TEXT	SEGMENT PARA USE32 PUBLIC 'CODE'
_TEXT	ENDS
;	COMDAT ??0const_iterator@?$_Tree@V?$_Tmap_traits@V?$CStringT@DV?$StrTraitMFC_DLL@DV?$ChTraitsCRT@D@ATL@@@@@ATL@@PAVCDibBitmap@@U?$less@V?$CStringT@DV?$StrTraitMFC_DLL@DV?$ChTraitsCRT@D@ATL@@@@@ATL@@@std@@V?$allocator@U?$pair@$$CBV?$CStringT@DV?$StrTraitMFC_DLL@DV?$ChTraitsCRT@D@ATL@@@@@ATL@@PAVCDibBitmap@@@std@@@5@$0A@@std@@@std@@QAE@PAU_Node@?$_Tree_nod@V?$_Tmap_traits@V?$CStringT@DV?$StrTraitMFC_DLL@DV?$ChTraitsCRT@D@ATL@@@@@ATL@@PAVCDibBitmap@@U?$less@V?$CStringT@DV?$StrTraitMFC_DLL@DV?$ChTraitsCRT@D@ATL@@@@@ATL@@@std@@V?$allocator@U?$pair@$$CBV?$CStringT@DV?$StrTraitMFC_DLL@DV?$ChTraitsCRT@D@ATL@@@@@ATL@@PAVCDibBitmap@@@std@@@5@$0A@@std@@@2@@Z
_TEXT	SEGMENT PARA USE32 PUBLIC 'CODE'
_TEXT	ENDS
;	COMDAT ??Fconst_iterator@?$_Tree@V?$_Tmap_traits@V?$CStringT@DV?$StrTraitMFC_DLL@DV?$ChTraitsCRT@D@ATL@@@@@ATL@@PAVCDibBitmap@@U?$less@V?$CStringT@DV?$StrTraitMFC_DLL@DV?$ChTraitsCRT@D@ATL@@@@@ATL@@@std@@V?$allocator@U?$pair@$$CBV?$CStringT@DV?$StrTraitMFC_DLL@DV?$ChTraitsCRT@D@ATL@@@@@ATL@@PAVCDibBitmap@@@std@@@5@$0A@@std@@@std@@QAEAAV012@XZ
_TEXT	SEGMENT PARA USE32 PUBLIC 'CODE'
_TEXT	ENDS
;	COMDAT ?max_size@?$allocator@U?$pair@$$CBV?$CStringT@DV?$StrTraitMFC_DLL@DV?$ChTraitsCRT@D@ATL@@@@@ATL@@PAVCDibBitmap@@@std@@@std@@QBEIXZ
_TEXT	SEGMENT PARA USE32 PUBLIC 'CODE'
_TEXT	ENDS
;	COMDAT ?deallocate@?$allocator@U_Node@?$_Tree_nod@V?$_Tmap_traits@V?$CStringT@DV?$StrTraitMFC_DLL@DV?$ChTraitsCRT@D@ATL@@@@@ATL@@PAVCDibBitmap@@U?$less@V?$CStringT@DV?$StrTraitMFC_DLL@DV?$ChTraitsCRT@D@ATL@@@@@ATL@@@std@@V?$allocator@U?$pair@$$CBV?$CStringT@DV?$StrTraitMFC_DLL@DV?$ChTraitsCRT@D@ATL@@@@@ATL@@PAVCDibBitmap@@@std@@@5@$0A@@std@@@std@@@std@@QAEXPAU_Node@?$_Tree_nod@V?$_Tmap_traits@V?$CStringT@DV?$StrTraitMFC_DLL@DV?$ChTraitsCRT@D@ATL@@@@@ATL@@PAVCDibBitmap@@U?$less@V?$CStringT@DV?$StrTraitMFC_DLL@DV?$ChTraitsCRT@D@ATL@@@@@ATL@@@std@@V?$allocator@U?$pair@$$CBV?$CStringT@DV?$StrTraitMFC_DLL@DV?$ChTraitsCRT@D@ATL@@@@@ATL@@PAVCDibBitmap@@@std@@@5@$0A@@std@@@2@I@Z
_TEXT	SEGMENT PARA USE32 PUBLIC 'CODE'
_TEXT	ENDS
;	COMDAT ?allocate@?$allocator@U_Node@?$_Tree_nod@V?$_Tmap_traits@V?$CStringT@DV?$StrTraitMFC_DLL@DV?$ChTraitsCRT@D@ATL@@@@@ATL@@PAVCDibBitmap@@U?$less@V?$CStringT@DV?$StrTraitMFC_DLL@DV?$ChTraitsCRT@D@ATL@@@@@ATL@@@std@@V?$allocator@U?$pair@$$CBV?$CStringT@DV?$StrTraitMFC_DLL@DV?$ChTraitsCRT@D@ATL@@@@@ATL@@PAVCDibBitmap@@@std@@@5@$0A@@std@@@std@@@std@@QAEPAU_Node@?$_Tree_nod@V?$_Tmap_traits@V?$CStringT@DV?$StrTraitMFC_DLL@DV?$ChTraitsCRT@D@ATL@@@@@ATL@@PAVCDibBitmap@@U?$less@V?$CStringT@DV?$StrTraitMFC_DLL@DV?$ChTraitsCRT@D@ATL@@@@@ATL@@@std@@V?$allocator@U?$pair@$$CBV?$CStringT@DV?$StrTraitMFC_DLL@DV?$ChTraitsCRT@D@ATL@@@@@ATL@@PAVCDibBitmap@@@std@@@5@$0A@@std@@@2@I@Z
_TEXT	SEGMENT PARA USE32 PUBLIC 'CODE'
_TEXT	ENDS
;	COMDAT ?_Dec@const_iterator@?$_Tree@V?$_Tmap_traits@V?$CStringT@DV?$StrTraitMFC_DLL@DV?$ChTraitsCRT@D@ATL@@@@@ATL@@PAVCDibBitmap@@U?$less@V?$CStringT@DV?$StrTraitMFC_DLL@DV?$ChTraitsCRT@D@ATL@@@@@ATL@@@std@@V?$allocator@U?$pair@$$CBV?$CStringT@DV?$StrTraitMFC_DLL@DV?$ChTraitsCRT@D@ATL@@@@@ATL@@PAVCDibBitmap@@@std@@@5@$0A@@std@@@std@@QAEXXZ
_TEXT	SEGMENT PARA USE32 PUBLIC 'CODE'
_TEXT	ENDS
;	COMDAT ??0_Node@?$_Tree_nod@V?$_Tmap_traits@V?$CStringT@DV?$StrTraitMFC_DLL@DV?$ChTraitsCRT@D@ATL@@@@@ATL@@PAVCDibBitmap@@U?$less@V?$CStringT@DV?$StrTraitMFC_DLL@DV?$ChTraitsCRT@D@ATL@@@@@ATL@@@std@@V?$allocator@U?$pair@$$CBV?$CStringT@DV?$StrTraitMFC_DLL@DV?$ChTraitsCRT@D@ATL@@@@@ATL@@PAVCDibBitmap@@@std@@@5@$0A@@std@@@std@@QAE@PAU012@00ABU?$pair@$$CBV?$CStringT@DV?$StrTraitMFC_DLL@DV?$ChTraitsCRT@D@ATL@@@@@ATL@@PAVCDibBitmap@@@2@D@Z
_TEXT	SEGMENT PARA USE32 PUBLIC 'CODE'
_TEXT	ENDS
;	COMDAT ??0?$pair@$$CBV?$CStringT@DV?$StrTraitMFC_DLL@DV?$ChTraitsCRT@D@ATL@@@@@ATL@@PAVCDibBitmap@@@std@@QAE@ABU01@@Z
_TEXT	SEGMENT PARA USE32 PUBLIC 'CODE'
_TEXT	ENDS
;	COMDAT ?StringCompare@?$ChTraitsCRT@D@ATL@@SAHPBD0@Z
_TEXT	SEGMENT PARA USE32 PUBLIC 'CODE'
_TEXT	ENDS
;	COMDAT ?_Max@?$_Tree@V?$_Tmap_traits@V?$CStringT@DV?$StrTraitMFC_DLL@DV?$ChTraitsCRT@D@ATL@@@@@ATL@@PAVCDibBitmap@@U?$less@V?$CStringT@DV?$StrTraitMFC_DLL@DV?$ChTraitsCRT@D@ATL@@@@@ATL@@@std@@V?$allocator@U?$pair@$$CBV?$CStringT@DV?$StrTraitMFC_DLL@DV?$ChTraitsCRT@D@ATL@@@@@ATL@@PAVCDibBitmap@@@std@@@5@$0A@@std@@@std@@KAPAU_Node@?$_Tree_nod@V?$_Tmap_traits@V?$CStringT@DV?$StrTraitMFC_DLL@DV?$ChTraitsCRT@D@ATL@@@@@ATL@@PAVCDibBitmap@@U?$less@V?$CStringT@DV?$StrTraitMFC_DLL@DV?$ChTraitsCRT@D@ATL@@@@@ATL@@@std@@V?$allocator@U?$pair@$$CBV?$CStringT@DV?$StrTraitMFC_DLL@DV?$ChTraitsCRT@D@ATL@@@@@ATL@@PAVCDibBitmap@@@std@@@5@$0A@@std@@@2@PAU342@@Z
_TEXT	SEGMENT PARA USE32 PUBLIC 'CODE'
_TEXT	ENDS
;	COMDAT ?Unlock@?$CComCritSecLock@VCComCriticalSection@ATL@@@ATL@@QAEXXZ
_TEXT	SEGMENT PARA USE32 PUBLIC 'CODE'
_TEXT	ENDS
;	COMDAT ??0?$CArray@MM@@QAE@XZ
_TEXT	SEGMENT PARA USE32 PUBLIC 'CODE'
_TEXT	ENDS
;	COMDAT ??1?$CArray@MM@@UAE@XZ
_TEXT	SEGMENT PARA USE32 PUBLIC 'CODE'
_TEXT	ENDS
;	COMDAT ?Serialize@?$CArray@MM@@UAEXAAVCArchive@@@Z
_TEXT	SEGMENT PARA USE32 PUBLIC 'CODE'
_TEXT	ENDS
;	COMDAT ?Dump@?$CArray@MM@@UBEXAAVCDumpContext@@@Z
_TEXT	SEGMENT PARA USE32 PUBLIC 'CODE'
_TEXT	ENDS
;	COMDAT ?AssertValid@?$CArray@MM@@UBEXXZ
_TEXT	SEGMENT PARA USE32 PUBLIC 'CODE'
_TEXT	ENDS
;	COMDAT ??1?$CArray@VCPaneBase@ETSLayoutMgr@@V12@@@UAE@XZ
_TEXT	SEGMENT PARA USE32 PUBLIC 'CODE'
_TEXT	ENDS
;	COMDAT ?Serialize@?$CArray@VCPaneBase@ETSLayoutMgr@@V12@@@UAEXAAVCArchive@@@Z
_TEXT	SEGMENT PARA USE32 PUBLIC 'CODE'
_TEXT	ENDS
;	COMDAT ?Dump@?$CArray@VCPaneBase@ETSLayoutMgr@@V12@@@UBEXAAVCDumpContext@@@Z
_TEXT	SEGMENT PARA USE32 PUBLIC 'CODE'
_TEXT	ENDS
;	COMDAT ?AssertValid@?$CArray@VCPaneBase@ETSLayoutMgr@@V12@@@UBEXXZ
_TEXT	SEGMENT PARA USE32 PUBLIC 'CODE'
_TEXT	ENDS
;	COMDAT ??1?$CMap@V?$CStringT@DV?$StrTraitMFC_DLL@DV?$ChTraitsCRT@D@ATL@@@@@ATL@@PBDVCPaneBase@ETSLayoutMgr@@V34@@@UAE@XZ
_TEXT	SEGMENT PARA USE32 PUBLIC 'CODE'
_TEXT	ENDS
;	COMDAT ?Serialize@?$CMap@V?$CStringT@DV?$StrTraitMFC_DLL@DV?$ChTraitsCRT@D@ATL@@@@@ATL@@PBDVCPaneBase@ETSLayoutMgr@@V34@@@UAEXAAVCArchive@@@Z
_TEXT	SEGMENT PARA USE32 PUBLIC 'CODE'
_TEXT	ENDS
;	COMDAT ?Dump@?$CMap@V?$CStringT@DV?$StrTraitMFC_DLL@DV?$ChTraitsCRT@D@ATL@@@@@ATL@@PBDVCPaneBase@ETSLayoutMgr@@V34@@@UBEXAAVCDumpContext@@@Z
_TEXT	SEGMENT PARA USE32 PUBLIC 'CODE'
_TEXT	ENDS
;	COMDAT ?AssertValid@?$CMap@V?$CStringT@DV?$StrTraitMFC_DLL@DV?$ChTraitsCRT@D@ATL@@@@@ATL@@PBDVCPaneBase@ETSLayoutMgr@@V34@@@UBEXXZ
_TEXT	SEGMENT PARA USE32 PUBLIC 'CODE'
_TEXT	ENDS
;	COMDAT ??0?$CArray@UElemPos@CMarkup@@AAU12@@@QAE@XZ
_TEXT	SEGMENT PARA USE32 PUBLIC 'CODE'
_TEXT	ENDS
;	COMDAT ??A?$CArray@UElemPos@CMarkup@@AAU12@@@QAEAAUElemPos@CMarkup@@H@Z
_TEXT	SEGMENT PARA USE32 PUBLIC 'CODE'
_TEXT	ENDS
;	COMDAT ??1?$CArray@UElemPos@CMarkup@@AAU12@@@UAE@XZ
_TEXT	SEGMENT PARA USE32 PUBLIC 'CODE'
_TEXT	ENDS
;	COMDAT ?Serialize@?$CArray@UElemPos@CMarkup@@AAU12@@@UAEXAAVCArchive@@@Z
_TEXT	SEGMENT PARA USE32 PUBLIC 'CODE'
_TEXT	ENDS
;	COMDAT ?Dump@?$CArray@UElemPos@CMarkup@@AAU12@@@UBEXAAVCDumpContext@@@Z
_TEXT	SEGMENT PARA USE32 PUBLIC 'CODE'
_TEXT	ENDS
;	COMDAT ?AssertValid@?$CArray@UElemPos@CMarkup@@AAU12@@@UBEXXZ
_TEXT	SEGMENT PARA USE32 PUBLIC 'CODE'
_TEXT	ENDS
;	COMDAT ??$_Maklocstr@D@std@@YAPADPBDPADABU_Cvtvec@@@Z
_TEXT	SEGMENT PARA USE32 PUBLIC 'CODE'
_TEXT	ENDS
;	COMDAT ??$_Allocate@U_Node@?$_Tree_nod@V?$_Tmap_traits@V?$CStringT@DV?$StrTraitMFC_DLL@DV?$ChTraitsCRT@D@ATL@@@@@ATL@@PAVCDibBitmap@@U?$less@V?$CStringT@DV?$StrTraitMFC_DLL@DV?$ChTraitsCRT@D@ATL@@@@@ATL@@@std@@V?$allocator@U?$pair@$$CBV?$CStringT@DV?$StrTraitMFC_DLL@DV?$ChTraitsCRT@D@ATL@@@@@ATL@@PAVCDibBitmap@@@std@@@5@$0A@@std@@@std@@@std@@YAPAU_Node@?$_Tree_nod@V?$_Tmap_traits@V?$CStringT@DV?$StrTraitMFC_DLL@DV?$ChTraitsCRT@D@ATL@@@@@ATL@@PAVCDibBitmap@@U?$less@V?$CStringT@DV?$StrTraitMFC_DLL@DV?$ChTraitsCRT@D@ATL@@@@@ATL@@@std@@V?$allocator@U?$pair@$$CBV?$CStringT@DV?$StrTraitMFC_DLL@DV?$ChTraitsCRT@D@ATL@@@@@ATL@@PAVCDibBitmap@@@std@@@5@$0A@@std@@@0@IPAU120@@Z
_TEXT	SEGMENT PARA USE32 PUBLIC 'CODE'
_TEXT	ENDS
;	COMDAT ??_G?$CArray@MM@@UAEPAXI@Z
_TEXT	SEGMENT PARA USE32 PUBLIC 'CODE'
_TEXT	ENDS
;	COMDAT ??_G?$CArray@VCPaneBase@ETSLayoutMgr@@V12@@@UAEPAXI@Z
_TEXT	SEGMENT PARA USE32 PUBLIC 'CODE'
_TEXT	ENDS
;	COMDAT ??_GCPaneBase@ETSLayoutMgr@@QAEPAXI@Z
_TEXT	SEGMENT PARA USE32 PUBLIC 'CODE'
_TEXT	ENDS
;	COMDAT ??_G?$CMap@V?$CStringT@DV?$StrTraitMFC_DLL@DV?$ChTraitsCRT@D@ATL@@@@@ATL@@PBDVCPaneBase@ETSLayoutMgr@@V34@@@UAEPAXI@Z
_TEXT	SEGMENT PARA USE32 PUBLIC 'CODE'
_TEXT	ENDS
;	COMDAT ??_G?$CArray@UElemPos@CMarkup@@AAU12@@@UAEPAXI@Z
_TEXT	SEGMENT PARA USE32 PUBLIC 'CODE'
_TEXT	ENDS
;	COMDAT ?SetSize@?$CArray@MM@@QAEXHH@Z
_TEXT	SEGMENT PARA USE32 PUBLIC 'CODE'
_TEXT	ENDS
;	COMDAT ??$SerializeElements@M@@YGXAAVCArchive@@PAMH@Z
_TEXT	SEGMENT PARA USE32 PUBLIC 'CODE'
_TEXT	ENDS
;	COMDAT ??$DumpElements@M@@YGXAAVCDumpContext@@PBMH@Z
_TEXT	SEGMENT PARA USE32 PUBLIC 'CODE'
_TEXT	ENDS
;	COMDAT ?SetSize@?$CArray@VCPaneBase@ETSLayoutMgr@@V12@@@QAEXHH@Z
_TEXT	SEGMENT PARA USE32 PUBLIC 'CODE'
_TEXT	ENDS
;	COMDAT ??$SerializeElements@VCPaneBase@ETSLayoutMgr@@@@YGXAAVCArchive@@PAVCPaneBase@ETSLayoutMgr@@H@Z
_TEXT	SEGMENT PARA USE32 PUBLIC 'CODE'
_TEXT	ENDS
;	COMDAT ??$DumpElements@VCPaneBase@ETSLayoutMgr@@@@YGXAAVCDumpContext@@PBVCPaneBase@ETSLayoutMgr@@H@Z
_TEXT	SEGMENT PARA USE32 PUBLIC 'CODE'
_TEXT	ENDS
;	COMDAT ?SetAt@?$CMap@V?$CStringT@DV?$StrTraitMFC_DLL@DV?$ChTraitsCRT@D@ATL@@@@@ATL@@PBDVCPaneBase@ETSLayoutMgr@@V34@@@QAEXPBDVCPaneBase@ETSLayoutMgr@@@Z
_TEXT	SEGMENT PARA USE32 PUBLIC 'CODE'
_TEXT	ENDS
;	COMDAT ?RemoveAll@?$CMap@V?$CStringT@DV?$StrTraitMFC_DLL@DV?$ChTraitsCRT@D@ATL@@@@@ATL@@PBDVCPaneBase@ETSLayoutMgr@@V34@@@QAEXXZ
_TEXT	SEGMENT PARA USE32 PUBLIC 'CODE'
_TEXT	ENDS
;	COMDAT ?GetStartPosition@?$CMap@V?$CStringT@DV?$StrTraitMFC_DLL@DV?$ChTraitsCRT@D@ATL@@@@@ATL@@PBDVCPaneBase@ETSLayoutMgr@@V34@@@QBEPAU__POSITION@@XZ
_TEXT	SEGMENT PARA USE32 PUBLIC 'CODE'
_TEXT	ENDS
;	COMDAT ?GetNextAssoc@?$CMap@V?$CStringT@DV?$StrTraitMFC_DLL@DV?$ChTraitsCRT@D@ATL@@@@@ATL@@PBDVCPaneBase@ETSLayoutMgr@@V34@@@QBEXAAPAU__POSITION@@AAV?$CStringT@DV?$StrTraitMFC_DLL@DV?$ChTraitsCRT@D@ATL@@@@@ATL@@AAVCPaneBase@ETSLayoutMgr@@@Z
_TEXT	SEGMENT PARA USE32 PUBLIC 'CODE'
_TEXT	ENDS
;	COMDAT ??$DumpElements@V?$CStringT@DV?$StrTraitMFC_DLL@DV?$ChTraitsCRT@D@ATL@@@@@ATL@@@@YGXAAVCDumpContext@@PBV?$CStringT@DV?$StrTraitMFC_DLL@DV?$ChTraitsCRT@D@ATL@@@@@ATL@@H@Z
_TEXT	SEGMENT PARA USE32 PUBLIC 'CODE'
_TEXT	ENDS
;	COMDAT ?SetSize@?$CArray@UElemPos@CMarkup@@AAU12@@@QAEXHH@Z
_TEXT	SEGMENT PARA USE32 PUBLIC 'CODE'
_TEXT	ENDS
;	COMDAT ?ElementAt@?$CArray@UElemPos@CMarkup@@AAU12@@@QAEAAUElemPos@CMarkup@@H@Z
_TEXT	SEGMENT PARA USE32 PUBLIC 'CODE'
_TEXT	ENDS
;	COMDAT ??$SerializeElements@UElemPos@CMarkup@@@@YGXAAVCArchive@@PAUElemPos@CMarkup@@H@Z
_TEXT	SEGMENT PARA USE32 PUBLIC 'CODE'
_TEXT	ENDS
;	COMDAT ??$DumpElements@UElemPos@CMarkup@@@@YGXAAVCDumpContext@@PBUElemPos@CMarkup@@H@Z
_TEXT	SEGMENT PARA USE32 PUBLIC 'CODE'
_TEXT	ENDS
;	COMDAT ??1CAssoc@?$CMap@V?$CStringT@DV?$StrTraitMFC_DLL@DV?$ChTraitsCRT@D@ATL@@@@@ATL@@PBDVCPaneBase@ETSLayoutMgr@@V34@@@QAE@XZ
_TEXT	SEGMENT PARA USE32 PUBLIC 'CODE'
_TEXT	ENDS
;	COMDAT ??1CPair@?$CMap@V?$CStringT@DV?$StrTraitMFC_DLL@DV?$ChTraitsCRT@D@ATL@@@@@ATL@@PBDVCPaneBase@ETSLayoutMgr@@V34@@@QAE@XZ
_TEXT	SEGMENT PARA USE32 PUBLIC 'CODE'
_TEXT	ENDS
;	COMDAT ??A?$CMap@V?$CStringT@DV?$StrTraitMFC_DLL@DV?$ChTraitsCRT@D@ATL@@@@@ATL@@PBDVCPaneBase@ETSLayoutMgr@@V34@@@QAEAAVCPaneBase@ETSLayoutMgr@@PBD@Z
_TEXT	SEGMENT PARA USE32 PUBLIC 'CODE'
_TEXT	ENDS
;	COMDAT ?InitHashTable@?$CMap@V?$CStringT@DV?$StrTraitMFC_DLL@DV?$ChTraitsCRT@D@ATL@@@@@ATL@@PBDVCPaneBase@ETSLayoutMgr@@V34@@@QAEXIH@Z
_TEXT	SEGMENT PARA USE32 PUBLIC 'CODE'
_TEXT	ENDS
;	COMDAT ?NewAssoc@?$CMap@V?$CStringT@DV?$StrTraitMFC_DLL@DV?$ChTraitsCRT@D@ATL@@@@@ATL@@PBDVCPaneBase@ETSLayoutMgr@@V34@@@IAEPAVCAssoc@1@PBD@Z
_TEXT	SEGMENT PARA USE32 PUBLIC 'CODE'
_TEXT	ENDS
;	COMDAT ?GetAssocAt@?$CMap@V?$CStringT@DV?$StrTraitMFC_DLL@DV?$ChTraitsCRT@D@ATL@@@@@ATL@@PBDVCPaneBase@ETSLayoutMgr@@V34@@@IBEPAVCAssoc@1@PBDAAI1@Z
_TEXT	SEGMENT PARA USE32 PUBLIC 'CODE'
_TEXT	ENDS
;	COMDAT ??0CAssoc@?$CMap@V?$CStringT@DV?$StrTraitMFC_DLL@DV?$ChTraitsCRT@D@ATL@@@@@ATL@@PBDVCPaneBase@ETSLayoutMgr@@V34@@@QAE@PBD@Z
_TEXT	SEGMENT PARA USE32 PUBLIC 'CODE'
_TEXT	ENDS
;	COMDAT ??0CPair@?$CMap@V?$CStringT@DV?$StrTraitMFC_DLL@DV?$ChTraitsCRT@D@ATL@@@@@ATL@@PBDVCPaneBase@ETSLayoutMgr@@V34@@@IAE@PBD@Z
_TEXT	SEGMENT PARA USE32 PUBLIC 'CODE'
_TEXT	ENDS
;	COMDAT ??$CompareElements@V?$CStringT@DV?$StrTraitMFC_DLL@DV?$ChTraitsCRT@D@ATL@@@@@ATL@@PBD@@YGHPBV?$CStringT@DV?$StrTraitMFC_DLL@DV?$ChTraitsCRT@D@ATL@@@@@ATL@@PBQBD@Z
_TEXT	SEGMENT PARA USE32 PUBLIC 'CODE'
_TEXT	ENDS
;	COMDAT ??8ATL@@YA_NABV?$CStringT@DV?$StrTraitMFC_DLL@DV?$ChTraitsCRT@D@ATL@@@@@0@PBD@Z
_TEXT	SEGMENT PARA USE32 PUBLIC 'CODE'
_TEXT	ENDS
;	COMDAT ??_R3ETSSplitter@@8
rdata$r	SEGMENT DWORD USE32 PUBLIC 'CONST'
rdata$r	ENDS
;	COMDAT ??_R3ETSLayoutMgr@@8
rdata$r	SEGMENT DWORD USE32 PUBLIC 'CONST'
rdata$r	ENDS
;	COMDAT ??_R3?$CMap@V?$CStringT@DV?$StrTraitMFC_DLL@DV?$ChTraitsCRT@D@ATL@@@@@ATL@@PBDVCPaneBase@ETSLayoutMgr@@V34@@@8
rdata$r	SEGMENT DWORD USE32 PUBLIC 'CONST'
rdata$r	ENDS
;	COMDAT ??_R3CMarkup@@8
rdata$r	SEGMENT DWORD USE32 PUBLIC 'CONST'
rdata$r	ENDS
;	COMDAT ??_R3?$numpunct@_W@std@@8
rdata$r	SEGMENT DWORD USE32 PUBLIC 'CONST'
rdata$r	ENDS
;	COMDAT ??_R3?$numpunct@D@std@@8
rdata$r	SEGMENT DWORD USE32 PUBLIC 'CONST'
rdata$r	ENDS
;	COMDAT ??_R3?$CArray@VCPaneBase@ETSLayoutMgr@@V12@@@8
rdata$r	SEGMENT DWORD USE32 PUBLIC 'CONST'
rdata$r	ENDS
;	COMDAT ??_R3?$CArray@MM@@8
rdata$r	SEGMENT DWORD USE32 PUBLIC 'CONST'
rdata$r	ENDS
;	COMDAT ??_R3PaneBase@ETSLayoutMgr@@8
rdata$r	SEGMENT DWORD USE32 PUBLIC 'CONST'
rdata$r	ENDS
;	COMDAT ??_R3CMarkupArchive@@8
rdata$r	SEGMENT DWORD USE32 PUBLIC 'CONST'
rdata$r	ENDS
;	COMDAT ??_R3?$CArray@UElemPos@CMarkup@@AAU12@@@8
rdata$r	SEGMENT DWORD USE32 PUBLIC 'CONST'
rdata$r	ENDS
;	COMDAT ??_R2ETSSplitter@@8
rdata$r	SEGMENT DWORD USE32 PUBLIC 'CONST'
rdata$r	ENDS
;	COMDAT ??_R2ETSLayoutMgr@@8
rdata$r	SEGMENT DWORD USE32 PUBLIC 'CONST'
rdata$r	ENDS
;	COMDAT ??_R2?$CMap@V?$CStringT@DV?$StrTraitMFC_DLL@DV?$ChTraitsCRT@D@ATL@@@@@ATL@@PBDVCPaneBase@ETSLayoutMgr@@V34@@@8
rdata$r	SEGMENT DWORD USE32 PUBLIC 'CONST'
rdata$r	ENDS
;	COMDAT ??_R2CMarkup@@8
rdata$r	SEGMENT DWORD USE32 PUBLIC 'CONST'
rdata$r	ENDS
;	COMDAT ??_R2?$numpunct@_W@std@@8
rdata$r	SEGMENT DWORD USE32 PUBLIC 'CONST'
rdata$r	ENDS
;	COMDAT ??_R2?$numpunct@D@std@@8
rdata$r	SEGMENT DWORD USE32 PUBLIC 'CONST'
rdata$r	ENDS
;	COMDAT ??_R2?$CArray@VCPaneBase@ETSLayoutMgr@@V12@@@8
rdata$r	SEGMENT DWORD USE32 PUBLIC 'CONST'
rdata$r	ENDS
;	COMDAT ??_R2?$CArray@MM@@8
rdata$r	SEGMENT DWORD USE32 PUBLIC 'CONST'
rdata$r	ENDS
;	COMDAT ??_R2PaneBase@ETSLayoutMgr@@8
rdata$r	SEGMENT DWORD USE32 PUBLIC 'CONST'
rdata$r	ENDS
;	COMDAT ??_R2CMarkupArchive@@8
rdata$r	SEGMENT DWORD USE32 PUBLIC 'CONST'
rdata$r	ENDS
;	COMDAT ??_R2?$CArray@UElemPos@CMarkup@@AAU12@@@8
rdata$r	SEGMENT DWORD USE32 PUBLIC 'CONST'
rdata$r	ENDS
;	COMDAT ??_R1A@?0A@A@CCmdTarget@@8
rdata$r	SEGMENT DWORD USE32 PUBLIC 'CONST'
rdata$r	ENDS
;	COMDAT ??_R0?AVCCmdTarget@@@8
_DATA	SEGMENT DWORD USE32 PUBLIC 'DATA'
_DATA	ENDS
;	COMDAT ??_R1A@?0A@A@CWnd@@8
rdata$r	SEGMENT DWORD USE32 PUBLIC 'CONST'
rdata$r	ENDS
;	COMDAT ??_R0?AVCWnd@@@8
_DATA	SEGMENT DWORD USE32 PUBLIC 'DATA'
_DATA	ENDS
;	COMDAT ??_R1A@?0A@A@CStatic@@8
rdata$r	SEGMENT DWORD USE32 PUBLIC 'CONST'
rdata$r	ENDS
;	COMDAT ??_R1A@?0A@A@ETSSplitter@@8
rdata$r	SEGMENT DWORD USE32 PUBLIC 'CONST'
rdata$r	ENDS
;	COMDAT ??_R1A@?0A@A@ETSLayoutMgr@@8
rdata$r	SEGMENT DWORD USE32 PUBLIC 'CONST'
rdata$r	ENDS
;	COMDAT ??_R1A@?0A@A@?$CMap@V?$CStringT@DV?$StrTraitMFC_DLL@DV?$ChTraitsCRT@D@ATL@@@@@ATL@@PBDVCPaneBase@ETSLayoutMgr@@V34@@@8
rdata$r	SEGMENT DWORD USE32 PUBLIC 'CONST'
rdata$r	ENDS
;	COMDAT ??_R1A@?0A@A@?$numpunct@_W@std@@8
rdata$r	SEGMENT DWORD USE32 PUBLIC 'CONST'
rdata$r	ENDS
;	COMDAT ??_R1A@?0A@A@facet@locale@std@@8
rdata$r	SEGMENT DWORD USE32 PUBLIC 'CONST'
rdata$r	ENDS
;	COMDAT ??_R0?AVfacet@locale@std@@@8
_DATA	SEGMENT DWORD USE32 PUBLIC 'DATA'
_DATA	ENDS
;	COMDAT ??_R1A@?0A@A@?$numpunct@D@std@@8
rdata$r	SEGMENT DWORD USE32 PUBLIC 'CONST'
rdata$r	ENDS
;	COMDAT ??_R1A@?0A@A@?$CArray@VCPaneBase@ETSLayoutMgr@@V12@@@8
rdata$r	SEGMENT DWORD USE32 PUBLIC 'CONST'
rdata$r	ENDS
;	COMDAT ??_R1A@?0A@A@?$CArray@MM@@8
rdata$r	SEGMENT DWORD USE32 PUBLIC 'CONST'
rdata$r	ENDS
;	COMDAT ??_R1A@?0A@A@PaneBase@ETSLayoutMgr@@8
rdata$r	SEGMENT DWORD USE32 PUBLIC 'CONST'
rdata$r	ENDS
;	COMDAT ??_R1A@?0A@A@CMarkup@@8
rdata$r	SEGMENT DWORD USE32 PUBLIC 'CONST'
rdata$r	ENDS
;	COMDAT ??_R1A@?0A@A@CMarkupArchive@@8
rdata$r	SEGMENT DWORD USE32 PUBLIC 'CONST'
rdata$r	ENDS
;	COMDAT ??_R1A@?0A@A@CObject@@8
rdata$r	SEGMENT DWORD USE32 PUBLIC 'CONST'
rdata$r	ENDS
;	COMDAT ??_R0?AVCObject@@@8
_DATA	SEGMENT DWORD USE32 PUBLIC 'DATA'
_DATA	ENDS
;	COMDAT ??_R1A@?0A@A@?$CArray@UElemPos@CMarkup@@AAU12@@@8
rdata$r	SEGMENT DWORD USE32 PUBLIC 'CONST'
rdata$r	ENDS
;	COMDAT ??_R0?AVCStatic@@@8
_DATA	SEGMENT DWORD USE32 PUBLIC 'DATA'
_DATA	ENDS
;	COMDAT ??_R0?AVETSSplitter@@@8
_DATA	SEGMENT DWORD USE32 PUBLIC 'DATA'
_DATA	ENDS
;	COMDAT ??_R0?AVETSLayoutMgr@@@8
_DATA	SEGMENT DWORD USE32 PUBLIC 'DATA'
_DATA	ENDS
;	COMDAT ??_R0?AV?$CMap@V?$CStringT@DV?$StrTraitMFC_DLL@DV?$ChTraitsCRT@D@ATL@@@@@ATL@@PBDVCPaneBase@ETSLayoutMgr@@V34@@@@8
_DATA	SEGMENT DWORD USE32 PUBLIC 'DATA'
_DATA	ENDS
;	COMDAT ??_R0?AV?$numpunct@_W@std@@@8
_DATA	SEGMENT DWORD USE32 PUBLIC 'DATA'
_DATA	ENDS
;	COMDAT ??_R0?AV?$numpunct@D@std@@@8
_DATA	SEGMENT DWORD USE32 PUBLIC 'DATA'
_DATA	ENDS
;	COMDAT ??_R0?AV?$CArray@VCPaneBase@ETSLayoutMgr@@V12@@@@8
_DATA	SEGMENT DWORD USE32 PUBLIC 'DATA'
_DATA	ENDS
;	COMDAT ??_R0?AV?$CArray@MM@@@8
_DATA	SEGMENT DWORD USE32 PUBLIC 'DATA'
_DATA	ENDS
;	COMDAT ??_R0?AVPaneBase@ETSLayoutMgr@@@8
_DATA	SEGMENT DWORD USE32 PUBLIC 'DATA'
_DATA	ENDS
;	COMDAT ??_R0?AVCMarkup@@@8
_DATA	SEGMENT DWORD USE32 PUBLIC 'DATA'
_DATA	ENDS
;	COMDAT ??_R0?AVCMarkupArchive@@@8
_DATA	SEGMENT DWORD USE32 PUBLIC 'DATA'
_DATA	ENDS
;	COMDAT ??_R0?AV?$CArray@UElemPos@CMarkup@@AAU12@@@@8
_DATA	SEGMENT DWORD USE32 PUBLIC 'DATA'
_DATA	ENDS
;	COMDAT ??_R4ETSSplitter@@6B@
rdata$r	SEGMENT DWORD USE32 PUBLIC 'CONST'
rdata$r	ENDS
;	COMDAT ??_R4ETSLayoutMgr@@6B@
rdata$r	SEGMENT DWORD USE32 PUBLIC 'CONST'
rdata$r	ENDS
;	COMDAT ??_R4?$CMap@V?$CStringT@DV?$StrTraitMFC_DLL@DV?$ChTraitsCRT@D@ATL@@@@@ATL@@PBDVCPaneBase@ETSLayoutMgr@@V34@@@6B@
rdata$r	SEGMENT DWORD USE32 PUBLIC 'CONST'
rdata$r	ENDS
;	COMDAT ??_R4CMarkup@@6B@
rdata$r	SEGMENT DWORD USE32 PUBLIC 'CONST'
rdata$r	ENDS
;	COMDAT ??0?$allocator@_W@std@@QAE@XZ
_TEXT	SEGMENT PARA USE32 PUBLIC 'CODE'
_TEXT	ENDS
;	COMDAT ??_G?$numpunct@_W@std@@MAEPAXI@Z
_TEXT	SEGMENT PARA USE32 PUBLIC 'CODE'
_TEXT	ENDS
;	COMDAT ??_R4?$numpunct@_W@std@@6B@
rdata$r	SEGMENT DWORD USE32 PUBLIC 'CONST'
rdata$r	ENDS
;	COMDAT ??_G?$numpunct@D@std@@MAEPAXI@Z
_TEXT	SEGMENT PARA USE32 PUBLIC 'CODE'
_TEXT	ENDS
;	COMDAT ??_R4?$numpunct@D@std@@6B@
rdata$r	SEGMENT DWORD USE32 PUBLIC 'CONST'
rdata$r	ENDS
;	COMDAT ??_R4?$CArray@VCPaneBase@ETSLayoutMgr@@V12@@@6B@
rdata$r	SEGMENT DWORD USE32 PUBLIC 'CONST'
rdata$r	ENDS
;	COMDAT ??_R4?$CArray@MM@@6B@
rdata$r	SEGMENT DWORD USE32 PUBLIC 'CONST'
rdata$r	ENDS
;	COMDAT ??_R4PaneBase@ETSLayoutMgr@@6B@
rdata$r	SEGMENT DWORD USE32 PUBLIC 'CONST'
rdata$r	ENDS
;	COMDAT ??_R4CMarkupArchive@@6B@
rdata$r	SEGMENT DWORD USE32 PUBLIC 'CONST'
rdata$r	ENDS
;	COMDAT ??_R4?$CArray@UElemPos@CMarkup@@AAU12@@@6B@
rdata$r	SEGMENT DWORD USE32 PUBLIC 'CONST'
rdata$r	ENDS
;	COMDAT ?GetDefaultManager@?$StrTraitMFC_DLL@DV?$ChTraitsCRT@D@ATL@@@@SAPAUIAtlStringMgr@ATL@@XZ
_TEXT	SEGMENT PARA USE32 PUBLIC 'CODE'
_TEXT	ENDS
;	COMDAT ?FindStringResourceInstance@?$StrTraitMFC_DLL@DV?$ChTraitsCRT@D@ATL@@@@SAPAUHINSTANCE__@@I@Z
_TEXT	SEGMENT PARA USE32 PUBLIC 'CODE'
_TEXT	ENDS
;	COMDAT ?AtlGetStringResourceImage@ATL@@YAPBUATLSTRINGRESOURCEIMAGE@1@PAUHINSTANCE__@@I@Z
_TEXT	SEGMENT PARA USE32 PUBLIC 'CODE'
_TEXT	ENDS
;	COMDAT ?_AtlGetStringResourceImage@ATL@@YAPBUATLSTRINGRESOURCEIMAGE@1@PAUHINSTANCE__@@PAUHRSRC__@@I@Z
_TEXT	SEGMENT PARA USE32 PUBLIC 'CODE'
_TEXT	ENDS
;	COMDAT ?GetBaseTypeLength@?$ChTraitsCRT@D@ATL@@SAHPB_WH@Z
_TEXT	SEGMENT PARA USE32 PUBLIC 'CODE'
_TEXT	ENDS
;	COMDAT ?_AtlGetConversionACP@ATL@@YGIXZ
_TEXT	SEGMENT PARA USE32 PUBLIC 'CODE'
_TEXT	ENDS
;	COMDAT ?g_pfnGetThreadACP@ATL@@3P6GIXZA
_DATA	SEGMENT DWORD USE32 PUBLIC 'DATA'
_DATA	ENDS
;	COMDAT ?_AtlGetThreadACPThunk@ATL@@YGIXZ
_TEXT	SEGMENT PARA USE32 PUBLIC 'CODE'
_TEXT	ENDS
;	COMDAT ?_AtlGetThreadACPReal@ATL@@YGIXZ
_TEXT	SEGMENT PARA USE32 PUBLIC 'CODE'
_TEXT	ENDS
;	COMDAT ?_AtlGetThreadACPFake@ATL@@YGIXZ
_TEXT	SEGMENT PARA USE32 PUBLIC 'CODE'
_TEXT	ENDS
;	COMDAT ?InterlockedExchangePointer@@YGPAXPAPAXPAX@Z
_TEXT	SEGMENT PARA USE32 PUBLIC 'CODE'
_TEXT	ENDS
;	COMDAT ?ConvertToBaseType@?$ChTraitsCRT@D@ATL@@SAXPADHPB_WH@Z
_TEXT	SEGMENT PARA USE32 PUBLIC 'CODE'
_TEXT	ENDS
;	COMDAT ??RCTraceFileAndLineInfo@ATL@@QBAXKIPBDZZ
_TEXT	SEGMENT PARA USE32 PUBLIC 'CODE'
_TEXT	ENDS
;	COMDAT ?TraceV@CTrace@ATL@@QBAXPBDHKI0PAD@Z
_TEXT	SEGMENT PARA USE32 PUBLIC 'CODE'
_TEXT	ENDS
;	COMDAT ??_C@_0CJ@FJEKGMMD@Warning?3?5implicit?5LoadString?$CI?$CFu?$CJ@
CONST	SEGMENT DWORD USE32 PUBLIC 'CONST'
CONST	ENDS
;	COMDAT ??BCTraceCategory@ATL@@QBEKXZ
_TEXT	SEGMENT PARA USE32 PUBLIC 'CODE'
_TEXT	ENDS
;	COMDAT ?data@CPlex@@QAEPAXXZ
text$AFX_COL1	SEGMENT PARA USE32 PUBLIC ''
text$AFX_COL1	ENDS
;	COMDAT ??_C@_0EN@CBMLGOH@D?3?2Program?5Files?5?$CIx86?$CJ?2Microsoft@
CONST	SEGMENT DWORD USE32 PUBLIC 'CONST'
CONST	ENDS
;	COMDAT ??_7?$CArray@UElemPos@CMarkup@@AAU12@@@6B@
CONST	SEGMENT DWORD USE32 PUBLIC 'CONST'
CONST	ENDS
;	COMDAT ??_7?$CMap@V?$CStringT@DV?$StrTraitMFC_DLL@DV?$ChTraitsCRT@D@ATL@@@@@ATL@@PBDVCPaneBase@ETSLayoutMgr@@V34@@@6B@
CONST	SEGMENT DWORD USE32 PUBLIC 'CONST'
CONST	ENDS
;	COMDAT ??_7?$CArray@VCPaneBase@ETSLayoutMgr@@V12@@@6B@
CONST	SEGMENT DWORD USE32 PUBLIC 'CONST'
CONST	ENDS
;	COMDAT ??_7?$CArray@MM@@6B@
CONST	SEGMENT DWORD USE32 PUBLIC 'CONST'
CONST	ENDS
;	COMDAT ?_Psave@?$_Facetptr@V?$numpunct@_W@std@@@std@@2PBVfacet@locale@2@B
_DATA	SEGMENT DWORD USE32 PUBLIC 'DATA'
_DATA	ENDS
;	COMDAT ?_Psave@?$_Facetptr@V?$numpunct@D@std@@@std@@2PBVfacet@locale@2@B
_DATA	SEGMENT DWORD USE32 PUBLIC 'DATA'
_DATA	ENDS
;	COMDAT ?Unlock@CComCriticalSection@ATL@@QAEJXZ
_TEXT	SEGMENT PARA USE32 PUBLIC 'CODE'
_TEXT	ENDS
;	COMDAT ??_C@_0FG@LDNDNCJM@D?3?2Program?5Files?5?$CIx86?$CJ?2Microsoft@
CONST	SEGMENT DWORD USE32 PUBLIC 'CONST'
CONST	ENDS
;	COMDAT ??_C@_09HIEJFN@m_bLocked?$AA@
CONST	SEGMENT DWORD USE32 PUBLIC 'CONST'
CONST	ENDS
;	COMDAT ?_Psave@?$_Facetptr@V?$ctype@_W@std@@@std@@2PBVfacet@locale@2@B
_DATA	SEGMENT DWORD USE32 PUBLIC 'DATA'
_DATA	ENDS
;	COMDAT ?_Psave@?$_Facetptr@V?$ctype@D@std@@@std@@2PBVfacet@locale@2@B
_DATA	SEGMENT DWORD USE32 PUBLIC 'DATA'
_DATA	ENDS
;	COMDAT ??_C@_0FH@KDPNIMBO@D?3?2Program?5Files?5?$CIx86?$CJ?2Microsoft@
CONST	SEGMENT DWORD USE32 PUBLIC 'CONST'
CONST	ENDS
;	COMDAT ?AtlIsValidString@ATL@@YAHPBDI@Z
_TEXT	SEGMENT PARA USE32 PUBLIC 'CODE'
_TEXT	ENDS
;	COMDAT ??3@YAXPAX0@Z
_TEXT	SEGMENT PARA USE32 PUBLIC 'CODE'
_TEXT	ENDS
;	COMDAT ??2@YAPAXIPAX@Z
_TEXT	SEGMENT PARA USE32 PUBLIC 'CODE'
_TEXT	ENDS
;	COMDAT ??$_Maklocchr@_W@std@@YA_WDPA_WABU_Cvtvec@@@Z
_TEXT	SEGMENT PARA USE32 PUBLIC 'CODE'
_TEXT	ENDS
;	COMDAT ??$_DebugHeapDelete@X@std@@YAXPAX@Z
_TEXT	SEGMENT PARA USE32 PUBLIC 'CODE'
_TEXT	ENDS
;	COMDAT ??$_Maklocstr@_W@std@@YAPA_WPBDPA_WABU_Cvtvec@@@Z
_TEXT	SEGMENT PARA USE32 PUBLIC 'CODE'
_TEXT	ENDS
;	COMDAT ??$_Maklocchr@D@std@@YADDPADABU_Cvtvec@@@Z
_TEXT	SEGMENT PARA USE32 PUBLIC 'CODE'
_TEXT	ENDS
;	COMDAT ??_C@_04LOAJBDKD@true?$AA@
CONST	SEGMENT DWORD USE32 PUBLIC 'CONST'
CONST	ENDS
;	COMDAT ??_C@_05LAPONLG@false?$AA@
CONST	SEGMENT DWORD USE32 PUBLIC 'CONST'
CONST	ENDS
;	COMDAT _wmemcpy
_TEXT	SEGMENT PARA USE32 PUBLIC 'CODE'
_TEXT	ENDS
;	COMDAT ?max_size@?$allocator@_W@std@@QBEIXZ
_TEXT	SEGMENT PARA USE32 PUBLIC 'CODE'
_TEXT	ENDS
;	COMDAT ?allocate@?$allocator@_W@std@@QAEPA_WI@Z
_TEXT	SEGMENT PARA USE32 PUBLIC 'CODE'
_TEXT	ENDS
;	COMDAT ??$_Allocate@_W@std@@YAPA_WIPA_W@Z
_TEXT	SEGMENT PARA USE32 PUBLIC 'CODE'
_TEXT	ENDS
;	COMDAT ??_C@_0N@ILOMLJGA@nLength?5?$DO?$DN?50?$AA@
CONST	SEGMENT DWORD USE32 PUBLIC 'CONST'
CONST	ENDS
;	COMDAT ??_C@_0CD@EEFFJEGJ@nLength?5?$DM?$DN?5GetData?$CI?$CJ?9?$DOnAllocLeng@
CONST	SEGMENT DWORD USE32 PUBLIC 'CONST'
CONST	ENDS
;	COMDAT ?data@CStringData@ATL@@QAEPAXXZ
_TEXT	SEGMENT PARA USE32 PUBLIC 'CODE'
_TEXT	ENDS
;	COMDAT ?AtlThrow@ATL@@YGXJ@Z
_TEXT	SEGMENT PARA USE32 PUBLIC 'CODE'
_TEXT	ENDS
;	COMDAT ??_C@_0FI@NHHJANPC@D?3?2Program?5Files?5?$CIx86?$CJ?2Microsoft@
CONST	SEGMENT DWORD USE32 PUBLIC 'CONST'
CONST	ENDS
;	COMDAT ??_C@_0BF@IAAKIJDJ@AtlThrow?3?5hr?5?$DN?50x?$CFx?6?$AA@
CONST	SEGMENT DWORD USE32 PUBLIC 'CONST'
CONST	ENDS
;	COMDAT ??_C@_0FJ@DMHPDOJC@D?3?2Program?5Files?5?$CIx86?$CJ?2Microsoft@
CONST	SEGMENT DWORD USE32 PUBLIC 'CONST'
CONST	ENDS
;	COMDAT ??_C@_0BA@GOIMFHNK@pStringMgr?5?$CB?$DN?50?$AA@
CONST	SEGMENT DWORD USE32 PUBLIC 'CONST'
CONST	ENDS
;	COMDAT ??_7length_error@std@@6B@
CONST	SEGMENT DWORD USE32 PUBLIC 'CONST'
CONST	ENDS
;	COMDAT ??_R4length_error@std@@6B@
rdata$r	SEGMENT DWORD USE32 PUBLIC 'CONST'
rdata$r	ENDS
;	COMDAT ??_R3length_error@std@@8
rdata$r	SEGMENT DWORD USE32 PUBLIC 'CONST'
rdata$r	ENDS
;	COMDAT ??_R2length_error@std@@8
rdata$r	SEGMENT DWORD USE32 PUBLIC 'CONST'
rdata$r	ENDS
;	COMDAT ??_R1A@?0A@A@length_error@std@@8
rdata$r	SEGMENT DWORD USE32 PUBLIC 'CONST'
rdata$r	ENDS
;	COMDAT ??_R1A@?0A@A@logic_error@std@@8
rdata$r	SEGMENT DWORD USE32 PUBLIC 'CONST'
rdata$r	ENDS
;	COMDAT ??_R0?AVlogic_error@std@@@8
_DATA	SEGMENT DWORD USE32 PUBLIC 'DATA'
_DATA	ENDS
;	COMDAT ??_R1A@?0A@A@exception@@8
rdata$r	SEGMENT DWORD USE32 PUBLIC 'CONST'
rdata$r	ENDS
;	COMDAT ??_R0?AVexception@@@8
_DATA	SEGMENT DWORD USE32 PUBLIC 'DATA'
_DATA	ENDS
;	COMDAT ??_Glength_error@std@@UAEPAXI@Z
_TEXT	SEGMENT PARA USE32 PUBLIC 'CODE'
_TEXT	ENDS
;	COMDAT ?what@logic_error@std@@UBEPBDXZ
_TEXT	SEGMENT PARA USE32 PUBLIC 'CODE'
_TEXT	ENDS
;	COMDAT ??1logic_error@std@@UAE@XZ
_TEXT	SEGMENT PARA USE32 PUBLIC 'CODE'
_TEXT	ENDS
;	COMDAT ??_7logic_error@std@@6B@
CONST	SEGMENT DWORD USE32 PUBLIC 'CONST'
CONST	ENDS
;	COMDAT ??_R4logic_error@std@@6B@
rdata$r	SEGMENT DWORD USE32 PUBLIC 'CONST'
rdata$r	ENDS
;	COMDAT ??_R3logic_error@std@@8
rdata$r	SEGMENT DWORD USE32 PUBLIC 'CONST'
rdata$r	ENDS
;	COMDAT ??_R2logic_error@std@@8
rdata$r	SEGMENT DWORD USE32 PUBLIC 'CONST'
rdata$r	ENDS
;	COMDAT ??_Glogic_error@std@@UAEPAXI@Z
_TEXT	SEGMENT PARA USE32 PUBLIC 'CODE'
_TEXT	ENDS
;	COMDAT ??0logic_error@std@@QAE@ABV01@@Z
_TEXT	SEGMENT PARA USE32 PUBLIC 'CODE'
_TEXT	ENDS
;	COMDAT ??0?$allocator@D@std@@QAE@ABV01@@Z
_TEXT	SEGMENT PARA USE32 PUBLIC 'CODE'
_TEXT	ENDS
;	COMDAT ?deallocate@?$allocator@D@std@@QAEXPADI@Z
_TEXT	SEGMENT PARA USE32 PUBLIC 'CODE'
_TEXT	ENDS
;	COMDAT ?max_size@?$allocator@D@std@@QBEIXZ
_TEXT	SEGMENT PARA USE32 PUBLIC 'CODE'
_TEXT	ENDS
;	COMDAT ?allocate@?$allocator@D@std@@QAEPADI@Z
_TEXT	SEGMENT PARA USE32 PUBLIC 'CODE'
_TEXT	ENDS
;	COMDAT ??$_Allocate@D@std@@YAPADIPAD@Z
_TEXT	SEGMENT PARA USE32 PUBLIC 'CODE'
_TEXT	ENDS
;	COMDAT __CTA3?AVlength_error@std@@
xdata$x	SEGMENT DWORD USE32 PUBLIC 'CONST'
xdata$x	ENDS
;	COMDAT ??1length_error@std@@UAE@XZ
_TEXT	SEGMENT PARA USE32 PUBLIC 'CODE'
_TEXT	ENDS
;	COMDAT __CT??_R0?AVexception@@@8??0exception@@QAE@ABV0@@Z12
xdata$x	SEGMENT DWORD USE32 PUBLIC 'CONST'
xdata$x	ENDS
;	COMDAT __CT??_R0?AVlogic_error@std@@@8??0logic_error@std@@QAE@ABV01@@Z40
xdata$x	SEGMENT DWORD USE32 PUBLIC 'CONST'
xdata$x	ENDS
;	COMDAT __CT??_R0?AVlength_error@std@@@8??0length_error@std@@QAE@ABV01@@Z40
xdata$x	SEGMENT DWORD USE32 PUBLIC 'CONST'
xdata$x	ENDS
;	COMDAT ??_R0?AVlength_error@std@@@8
_DATA	SEGMENT DWORD USE32 PUBLIC 'DATA'
_DATA	ENDS
;	COMDAT __TI3?AVlength_error@std@@
xdata$x	SEGMENT DWORD USE32 PUBLIC 'CONST'
xdata$x	ENDS
;	COMDAT ??0?$allocator@D@std@@QAE@XZ
_TEXT	SEGMENT PARA USE32 PUBLIC 'CODE'
_TEXT	ENDS
;	COMDAT ??0length_error@std@@QAE@ABV?$basic_string@DU?$char_traits@D@std@@V?$allocator@D@2@@1@@Z
_TEXT	SEGMENT PARA USE32 PUBLIC 'CODE'
_TEXT	ENDS
;	COMDAT ??0logic_error@std@@QAE@ABV?$basic_string@DU?$char_traits@D@std@@V?$allocator@D@2@@1@@Z
_TEXT	SEGMENT PARA USE32 PUBLIC 'CODE'
_TEXT	ENDS
;	COMDAT ??_C@_01GFHCPBMG@C?$AA@
CONST	SEGMENT DWORD USE32 PUBLIC 'CONST'
CONST	ENDS
;	COMDAT ?Release@CStringData@ATL@@QAEXXZ
_TEXT	SEGMENT PARA USE32 PUBLIC 'CODE'
_TEXT	ENDS
;	COMDAT ??_C@_0L@OIIMFBNE@nRefs?5?$CB?$DN?50?$AA@
CONST	SEGMENT DWORD USE32 PUBLIC 'CONST'
CONST	ENDS
;	COMDAT ??_C@_0BA@GNIEOBOF@nNewLength?5?$DO?$DN?50?$AA@
CONST	SEGMENT DWORD USE32 PUBLIC 'CONST'
CONST	ENDS
;	COMDAT ?IsShared@CStringData@ATL@@QBE_NXZ
_TEXT	SEGMENT PARA USE32 PUBLIC 'CODE'
_TEXT	ENDS
;	COMDAT ??_C@_0CB@GFHAPKDK@pOldData?9?$DOnAllocLength?5?$DM?5nLength@
CONST	SEGMENT DWORD USE32 PUBLIC 'CONST'
CONST	ENDS
;	COMDAT ?_Peek@?$istreambuf_iterator@_WU?$char_traits@_W@std@@@std@@AAE_WXZ
_TEXT	SEGMENT PARA USE32 PUBLIC 'CODE'
_TEXT	ENDS
;	COMDAT ?_Peek@?$istreambuf_iterator@DU?$char_traits@D@std@@@std@@AAEDXZ
_TEXT	SEGMENT PARA USE32 PUBLIC 'CODE'
_TEXT	ENDS
;	COMDAT ??$use_facet@V?$ctype@_W@std@@@std@@YAABV?$ctype@_W@0@ABVlocale@0@@Z
_TEXT	SEGMENT PARA USE32 PUBLIC 'CODE'
_TEXT	ENDS
;	COMDAT ??_S?$ctype@_W@std@@6B@
CONST	SEGMENT DWORD USE32 PUBLIC 'CONST'
CONST	ENDS
;	COMDAT ??_R4?$ctype@_W@std@@6B@
rdata$r	SEGMENT DWORD USE32 PUBLIC 'CONST'
rdata$r	ENDS
;	COMDAT ??_R0?AV?$ctype@_W@std@@@8
_DATA	SEGMENT DWORD USE32 PUBLIC 'DATA'
_DATA	ENDS
;	COMDAT ??_R3?$ctype@_W@std@@8
rdata$r	SEGMENT DWORD USE32 PUBLIC 'CONST'
rdata$r	ENDS
;	COMDAT ??_R2?$ctype@_W@std@@8
rdata$r	SEGMENT DWORD USE32 PUBLIC 'CONST'
rdata$r	ENDS
;	COMDAT ??_R1A@?0A@A@?$ctype@_W@std@@8
rdata$r	SEGMENT DWORD USE32 PUBLIC 'CONST'
rdata$r	ENDS
;	COMDAT ??_R1A@?0A@A@ctype_base@std@@8
rdata$r	SEGMENT DWORD USE32 PUBLIC 'CONST'
rdata$r	ENDS
;	COMDAT ??_R0?AUctype_base@std@@@8
_DATA	SEGMENT DWORD USE32 PUBLIC 'DATA'
_DATA	ENDS
;	COMDAT ??_G?$ctype@_W@std@@MAEPAXI@Z
_TEXT	SEGMENT PARA USE32 PUBLIC 'CODE'
_TEXT	ENDS
;	COMDAT ??_C@_08EPJLHIJG@bad?5cast?$AA@
CONST	SEGMENT DWORD USE32 PUBLIC 'CONST'
CONST	ENDS
;	COMDAT __TI2?AVbad_cast@@
xdata$x	SEGMENT DWORD USE32 PUBLIC 'CONST'
xdata$x	ENDS
;	COMDAT __CTA2?AVbad_cast@@
xdata$x	SEGMENT DWORD USE32 PUBLIC 'CONST'
xdata$x	ENDS
;	COMDAT __CT??_R0?AVbad_cast@@@8??0bad_cast@@QAE@ABV0@@Z12
xdata$x	SEGMENT DWORD USE32 PUBLIC 'CONST'
xdata$x	ENDS
;	COMDAT ??_R0?AVbad_cast@@@8
_DATA	SEGMENT DWORD USE32 PUBLIC 'DATA'
_DATA	ENDS
;	COMDAT ??$_DebugHeapDelete@Vfacet@locale@std@@@std@@YAXPAVfacet@locale@0@@Z
_TEXT	SEGMENT PARA USE32 PUBLIC 'CODE'
_TEXT	ENDS
;	COMDAT ??$use_facet@V?$ctype@D@std@@@std@@YAABV?$ctype@D@0@ABVlocale@0@@Z
_TEXT	SEGMENT PARA USE32 PUBLIC 'CODE'
_TEXT	ENDS
;	COMDAT ??_S?$ctype@D@std@@6B@
CONST	SEGMENT DWORD USE32 PUBLIC 'CONST'
CONST	ENDS
;	COMDAT ??_R4?$ctype@D@std@@6B@
rdata$r	SEGMENT DWORD USE32 PUBLIC 'CONST'
rdata$r	ENDS
;	COMDAT ??_R0?AV?$ctype@D@std@@@8
_DATA	SEGMENT DWORD USE32 PUBLIC 'DATA'
_DATA	ENDS
;	COMDAT ??_R3?$ctype@D@std@@8
rdata$r	SEGMENT DWORD USE32 PUBLIC 'CONST'
rdata$r	ENDS
;	COMDAT ??_R2?$ctype@D@std@@8
rdata$r	SEGMENT DWORD USE32 PUBLIC 'CONST'
rdata$r	ENDS
;	COMDAT ??_R1A@?0A@A@?$ctype@D@std@@8
rdata$r	SEGMENT DWORD USE32 PUBLIC 'CONST'
rdata$r	ENDS
;	COMDAT ??_G?$ctype@D@std@@MAEPAXI@Z
_TEXT	SEGMENT PARA USE32 PUBLIC 'CODE'
_TEXT	ENDS
;	COMDAT ??_S?$numpunct@_W@std@@6B@
CONST	SEGMENT DWORD USE32 PUBLIC 'CONST'
CONST	ENDS
;	COMDAT ??_S?$numpunct@D@std@@6B@
CONST	SEGMENT DWORD USE32 PUBLIC 'CONST'
CONST	ENDS
;	COMDAT _wmemmove
_TEXT	SEGMENT PARA USE32 PUBLIC 'CODE'
_TEXT	ENDS
;	COMDAT ?deallocate@?$allocator@_W@std@@QAEXPA_WI@Z
_TEXT	SEGMENT PARA USE32 PUBLIC 'CODE'
_TEXT	ENDS
;	COMDAT ??0?$allocator@_W@std@@QAE@ABV01@@Z
_TEXT	SEGMENT PARA USE32 PUBLIC 'CODE'
_TEXT	ENDS
;	COMDAT ??0CTraceFileAndLineInfo@ATL@@QAE@PBDH@Z
_TEXT	SEGMENT PARA USE32 PUBLIC 'CODE'
_TEXT	ENDS
;	COMDAT ??RCTraceFileAndLineInfo@ATL@@QBAXPBDZZ
_TEXT	SEGMENT PARA USE32 PUBLIC 'CODE'
_TEXT	ENDS
;	COMDAT ?_messageEntries@ETSSplitter@@0QBUAFX_MSGMAP_ENTRY@@B
CONST	SEGMENT DWORD USE32 PUBLIC 'CONST'
CONST	ENDS
;	COMDAT ?messageMap@ETSSplitter@@1UAFX_MSGMAP@@B
CONST	SEGMENT DWORD USE32 PUBLIC 'CONST'
CONST	ENDS
;	COMDAT ??_7ETSSplitter@@6B@
CONST	SEGMENT DWORD USE32 PUBLIC 'CONST'
CONST	ENDS
;	COMDAT ?classETSSplitter@ETSSplitter@@2UCRuntimeClass@@B
CONST	SEGMENT DWORD USE32 PUBLIC 'CONST'
CONST	ENDS
;	COMDAT ??_7CMarkupArchive@@6B@
CONST	SEGMENT DWORD USE32 PUBLIC 'CONST'
CONST	ENDS
;	COMDAT __tcschr
_TEXT	SEGMENT PARA USE32 PUBLIC 'CODE'
_TEXT	ENDS
;	COMDAT __tcsnccmp
_TEXT	SEGMENT PARA USE32 PUBLIC 'CODE'
_TEXT	ENDS
;	COMDAT ??_7CMarkup@@6B@
CONST	SEGMENT DWORD USE32 PUBLIC 'CONST'
CONST	ENDS
;	COMDAT ??_7ETSLayoutMgr@@6B@
CONST	SEGMENT DWORD USE32 PUBLIC 'CONST'
CONST	ENDS
;	COMDAT ?IsLocked@CStringData@ATL@@QBE_NXZ
_TEXT	SEGMENT PARA USE32 PUBLIC 'CODE'
_TEXT	ENDS
;	COMDAT ?AddRef@CStringData@ATL@@QAEXXZ
_TEXT	SEGMENT PARA USE32 PUBLIC 'CODE'
_TEXT	ENDS
;	COMDAT ??_C@_09EEBKLCFA@nRefs?5?$DO?50?$AA@
CONST	SEGMENT DWORD USE32 PUBLIC 'CONST'
CONST	ENDS
;	COMDAT ??_7PaneBase@ETSLayoutMgr@@6B@
CONST	SEGMENT DWORD USE32 PUBLIC 'CONST'
CONST	ENDS
sxdata	SEGMENT DWORD USE32 'SXDATA'
sxdata	ENDS
FLAT	GROUP _DATA, CONST, _BSS
	ASSUME	CS: FLAT, DS: FLAT, SS: FLAT
endif

INCLUDELIB MSVCRTD
INCLUDELIB OLDNAMES

PUBLIC	?classETSSplitter@ETSSplitter@@2UCRuntimeClass@@B ; ETSSplitter::classETSSplitter
PUBLIC	?OnTimer@ETSSplitter@@IAEXI@Z			; ETSSplitter::OnTimer
PUBLIC	?OnLButtonDown@ETSSplitter@@IAEXIVCPoint@@@Z	; ETSSplitter::OnLButtonDown
PUBLIC	?OnLButtonUp@ETSSplitter@@IAEXIVCPoint@@@Z	; ETSSplitter::OnLButtonUp
PUBLIC	?OnMouseMove@ETSSplitter@@IAEXIVCPoint@@@Z	; ETSSplitter::OnMouseMove
PUBLIC	?OnMouseLeave@ETSSplitter@@IAEJIJ@Z		; ETSSplitter::OnMouseLeave
PUBLIC	?OnShowWindow@ETSSplitter@@IAEXHI@Z		; ETSSplitter::OnShowWindow
PUBLIC	?OnEraseBkgnd@ETSSplitter@@IAEHPAVCDC@@@Z	; ETSSplitter::OnEraseBkgnd
PUBLIC	?OnPaint@ETSSplitter@@IAEXXZ			; ETSSplitter::OnPaint
PUBLIC	?_messageEntries@ETSSplitter@@0QBUAFX_MSGMAP_ENTRY@@B ; ETSSplitter::_messageEntries
PUBLIC	?messageMap@ETSSplitter@@1UAFX_MSGMAP@@B	; ETSSplitter::messageMap
PUBLIC	?g_pfnGetThreadACP@ATL@@3P6GIXZA		; ATL::g_pfnGetThreadACP
PUBLIC	?_AtlGetThreadACPThunk@ATL@@YGIXZ		; ATL::_AtlGetThreadACPThunk
EXTRN	?OnDestroy@CWnd@@IAEXXZ:NEAR			; CWnd::OnDestroy
EXTRN	?OnGetMinMaxInfo@CWnd@@IAEXPAUtagMINMAXINFO@@@Z:NEAR ; CWnd::OnGetMinMaxInfo
EXTRN	?GetThisMessageMap@CWnd@@KGPBUAFX_MSGMAP@@XZ:NEAR ; CWnd::GetThisMessageMap
EXTRN	?GetThisClass@CStatic@@SGPAUCRuntimeClass@@XZ:NEAR ; CStatic::GetThisClass
_DATA	SEGMENT
_THIS_FILE DB	'.\src\LayoutMgr\ETSSplitter.cpp', 00H
_DATA	ENDS
CONST	SEGMENT
$SG190445 DB	'ETSSplitter', 00H
CONST	ENDS
;	COMDAT ?classETSSplitter@ETSSplitter@@2UCRuntimeClass@@B
CONST	SEGMENT
?classETSSplitter@ETSSplitter@@2UCRuntimeClass@@B DD FLAT:$SG190445 ; ETSSplitter::classETSSplitter
	DD	0c0H
	DD	0ffffH
	DD	00H
	DD	FLAT:?GetThisClass@CStatic@@SGPAUCRuntimeClass@@XZ
	DD	00H
	DD	00H
CONST	ENDS
;	COMDAT ?_messageEntries@ETSSplitter@@0QBUAFX_MSGMAP_ENTRY@@B
CONST	SEGMENT
?_messageEntries@ETSSplitter@@0QBUAFX_MSGMAP_ENTRY@@B DD 024H ; ETSSplitter::_messageEntries
	DD	00H
	DD	00H
	DD	00H
	DD	029H
	DD	FLAT:?OnGetMinMaxInfo@CWnd@@IAEXPAUtagMINMAXINFO@@@Z
	DD	014H
	DD	00H
	DD	00H
	DD	00H
	DD	01H
	DD	FLAT:?OnEraseBkgnd@ETSSplitter@@IAEHPAVCDC@@@Z
	DD	0201H
	DD	00H
	DD	00H
	DD	00H
	DD	032H
	DD	FLAT:?OnLButtonDown@ETSSplitter@@IAEXIVCPoint@@@Z
	DD	0202H
	DD	00H
	DD	00H
	DD	00H
	DD	032H
	DD	FLAT:?OnLButtonUp@ETSSplitter@@IAEXIVCPoint@@@Z
	DD	0200H
	DD	00H
	DD	00H
	DD	00H
	DD	032H
	DD	FLAT:?OnMouseMove@ETSSplitter@@IAEXIVCPoint@@@Z
	DD	018H
	DD	00H
	DD	00H
	DD	00H
	DD	012H
	DD	FLAT:?OnShowWindow@ETSSplitter@@IAEXHI@Z
	DD	02H
	DD	00H
	DD	00H
	DD	00H
	DD	010H
	DD	FLAT:?OnDestroy@CWnd@@IAEXXZ
	DD	018H
	DD	00H
	DD	00H
	DD	00H
	DD	012H
	DD	FLAT:?OnShowWindow@ETSSplitter@@IAEXHI@Z
	DD	0113H
	DD	00H
	DD	00H
	DD	00H
	DD	011H
	DD	FLAT:?OnTimer@ETSSplitter@@IAEXI@Z
	DD	0fH
	DD	00H
	DD	00H
	DD	00H
	DD	010H
	DD	FLAT:?OnPaint@ETSSplitter@@IAEXXZ
	DD	02a3H
	DD	00H
	DD	00H
	DD	00H
	DD	0eH
	DD	FLAT:?OnMouseLeave@ETSSplitter@@IAEJIJ@Z
	DD	00H
	DD	00H
	DD	00H
	DD	00H
	DD	00H
	DD	00H
CONST	ENDS
;	COMDAT ?messageMap@ETSSplitter@@1UAFX_MSGMAP@@B
CONST	SEGMENT
?messageMap@ETSSplitter@@1UAFX_MSGMAP@@B DD FLAT:?GetThisMessageMap@CWnd@@KGPBUAFX_MSGMAP@@XZ ; ETSSplitter::messageMap
	DD	FLAT:?_messageEntries@ETSSplitter@@0QBUAFX_MSGMAP_ENTRY@@B
CONST	ENDS
CONST	SEGMENT
$SG190649 DB	'.\src\LayoutMgr\ETSSplitter.cpp', 00H
$SG190650 DB	'resize time eclipse %d ', 0aH, 00H
	ORG $+3
$SG191155 DB	'D:\Program Files (x86)\Microsoft Visual Studio .NET 2003'
	DB	'\Vc7\atlmfc\include\afxtempl.h', 00H
	ORG $+1
$SG191169 DB	'D:\Program Files (x86)\Microsoft Visual Studio .NET 2003'
	DB	'\Vc7\atlmfc\include\afxtempl.h', 00H
	ORG $+1
$SG191185 DB	'with ', 00H
	ORG $+2
$SG191186 DB	' elements', 00H
	ORG $+2
$SG191188 DB	0aH, 00H
	ORG $+2
$SG191195 DB	0aH, 00H
	ORG $+6
$SG191203 DB	'D:\Program Files (x86)\Microsoft Visual Studio .NET 2003'
	DB	'\Vc7\atlmfc\include\afxtempl.h', 00H
	ORG $+1
$SG191205 DB	'D:\Program Files (x86)\Microsoft Visual Studio .NET 2003'
	DB	'\Vc7\atlmfc\include\afxtempl.h', 00H
	ORG $+1
$SG191208 DB	'D:\Program Files (x86)\Microsoft Visual Studio .NET 2003'
	DB	'\Vc7\atlmfc\include\afxtempl.h', 00H
	ORG $+1
$SG191210 DB	'D:\Program Files (x86)\Microsoft Visual Studio .NET 2003'
	DB	'\Vc7\atlmfc\include\afxtempl.h', 00H
	ORG $+1
$SG191212 DB	'D:\Program Files (x86)\Microsoft Visual Studio .NET 2003'
	DB	'\Vc7\atlmfc\include\afxtempl.h', 00H
	ORG $+1
$SG191215 DB	'D:\Program Files (x86)\Microsoft Visual Studio .NET 2003'
	DB	'\Vc7\atlmfc\include\afxtempl.h', 00H
	ORG $+1
$SG191221 DB	'D:\Program Files (x86)\Microsoft Visual Studio .NET 2003'
	DB	'\Vc7\atlmfc\include\afxtempl.h', 00H
	ORG $+1
$SG191235 DB	'D:\Program Files (x86)\Microsoft Visual Studio .NET 2003'
	DB	'\Vc7\atlmfc\include\afxtempl.h', 00H
	ORG $+1
$SG191251 DB	'with ', 00H
	ORG $+2
$SG191252 DB	' elements', 00H
	ORG $+2
$SG191254 DB	0aH, 00H
	ORG $+2
$SG191261 DB	0aH, 00H
	ORG $+6
$SG191269 DB	'D:\Program Files (x86)\Microsoft Visual Studio .NET 2003'
	DB	'\Vc7\atlmfc\include\afxtempl.h', 00H
	ORG $+1
$SG191271 DB	'D:\Program Files (x86)\Microsoft Visual Studio .NET 2003'
	DB	'\Vc7\atlmfc\include\afxtempl.h', 00H
	ORG $+1
$SG191274 DB	'D:\Program Files (x86)\Microsoft Visual Studio .NET 2003'
	DB	'\Vc7\atlmfc\include\afxtempl.h', 00H
	ORG $+1
$SG191276 DB	'D:\Program Files (x86)\Microsoft Visual Studio .NET 2003'
	DB	'\Vc7\atlmfc\include\afxtempl.h', 00H
	ORG $+1
$SG191278 DB	'D:\Program Files (x86)\Microsoft Visual Studio .NET 2003'
	DB	'\Vc7\atlmfc\include\afxtempl.h', 00H
	ORG $+1
$SG191281 DB	'D:\Program Files (x86)\Microsoft Visual Studio .NET 2003'
	DB	'\Vc7\atlmfc\include\afxtempl.h', 00H
	ORG $+1
$SG191290 DB	'D:\Program Files (x86)\Microsoft Visual Studio .NET 2003'
	DB	'\Vc7\atlmfc\include\afxtempl.h', 00H
	ORG $+1
$SG191299 DB	'D:\Program Files (x86)\Microsoft Visual Studio .NET 2003'
	DB	'\Vc7\atlmfc\include\afxtempl.h', 00H
	ORG $+1
$SG191303 DB	'D:\Program Files (x86)\Microsoft Visual Studio .NET 2003'
	DB	'\Vc7\atlmfc\include\afxtempl.h', 00H
	ORG $+1
$SG191365 DB	'with ', 00H
	ORG $+2
$SG191366 DB	' elements', 00H
	ORG $+2
$SG191380 DB	0aH, 09H, '[', 00H
$SG191387 DB	'] = ', 00H
	ORG $+3
$SG191388 DB	0aH, 00H
	ORG $+6
$SG191397 DB	'D:\Program Files (x86)\Microsoft Visual Studio .NET 2003'
	DB	'\Vc7\atlmfc\include\afxtempl.h', 00H
	ORG $+1
$SG191399 DB	'D:\Program Files (x86)\Microsoft Visual Studio .NET 2003'
	DB	'\Vc7\atlmfc\include\afxtempl.h', 00H
	ORG $+1
$SG191416 DB	'D:\Program Files (x86)\Microsoft Visual Studio .NET 2003'
	DB	'\Vc7\atlmfc\include\afxtempl.h', 00H
	ORG $+1
$SG191430 DB	'D:\Program Files (x86)\Microsoft Visual Studio .NET 2003'
	DB	'\Vc7\atlmfc\include\afxtempl.h', 00H
	ORG $+1
$SG191446 DB	'with ', 00H
	ORG $+2
$SG191447 DB	' elements', 00H
	ORG $+2
$SG191449 DB	0aH, 00H
	ORG $+2
$SG191456 DB	0aH, 00H
	ORG $+6
$SG191464 DB	'D:\Program Files (x86)\Microsoft Visual Studio .NET 2003'
	DB	'\Vc7\atlmfc\include\afxtempl.h', 00H
	ORG $+1
$SG191466 DB	'D:\Program Files (x86)\Microsoft Visual Studio .NET 2003'
	DB	'\Vc7\atlmfc\include\afxtempl.h', 00H
	ORG $+1
$SG191469 DB	'D:\Program Files (x86)\Microsoft Visual Studio .NET 2003'
	DB	'\Vc7\atlmfc\include\afxtempl.h', 00H
	ORG $+1
$SG191471 DB	'D:\Program Files (x86)\Microsoft Visual Studio .NET 2003'
	DB	'\Vc7\atlmfc\include\afxtempl.h', 00H
	ORG $+1
$SG191473 DB	'D:\Program Files (x86)\Microsoft Visual Studio .NET 2003'
	DB	'\Vc7\atlmfc\include\afxtempl.h', 00H
	ORG $+1
$SG191476 DB	'D:\Program Files (x86)\Microsoft Visual Studio .NET 2003'
	DB	'\Vc7\atlmfc\include\afxtempl.h', 00H
	ORG $+1
$SG191518 DB	'D:\Program Files (x86)\Microsoft Visual Studio .NET 2003'
	DB	'\Vc7\atlmfc\include\afxtempl.h', 00H
	ORG $+1
$SG191520 DB	'D:\Program Files (x86)\Microsoft Visual Studio .NET 2003'
	DB	'\Vc7\atlmfc\include\afxtempl.h', 00H
	ORG $+1
$SG191535 DB	'D:\Program Files (x86)\Microsoft Visual Studio .NET 2003'
	DB	'\Vc7\atlmfc\include\afxtempl.h', 00H
	ORG $+1
$SG191542 DB	'D:\Program Files (x86)\Microsoft Visual Studio .NET 2003'
	DB	'\Vc7\atlmfc\include\afxtempl.h', 00H
	ORG $+1
$SG191578 DB	'D:\Program Files (x86)\Microsoft Visual Studio .NET 2003'
	DB	'\Vc7\atlmfc\include\afxtempl.h', 00H
	ORG $+1
$SG191582 DB	'D:\Program Files (x86)\Microsoft Visual Studio .NET 2003'
	DB	'\Vc7\atlmfc\include\afxtempl.h', 00H
	ORG $+1
$SG191592 DB	'D:\Program Files (x86)\Microsoft Visual Studio .NET 2003'
	DB	'\Vc7\atlmfc\include\afxtempl.h', 00H
	ORG $+1
$SG191609 DB	'D:\Program Files (x86)\Microsoft Visual Studio .NET 2003'
	DB	'\Vc7\atlmfc\include\afxtempl.h', 00H
	ORG $+1
$SG191634 DB	'D:\Program Files (x86)\Microsoft Visual Studio .NET 2003'
	DB	'\Vc7\atlmfc\include\afxtempl.h', 00H
	ORG $+1
$SG191642 DB	'D:\Program Files (x86)\Microsoft Visual Studio .NET 2003'
	DB	'\Vc7\atlmfc\include\afxtempl.h', 00H
	ORG $+1
$SG191644 DB	'D:\Program Files (x86)\Microsoft Visual Studio .NET 2003'
	DB	'\Vc7\atlmfc\include\afxtempl.h', 00H
	ORG $+1
$SG191659 DB	'D:\Program Files (x86)\Microsoft Visual Studio .NET 2003'
	DB	'\Vc7\atlmfc\include\afxtempl.h', 00H
	ORG $+1
$SG191666 DB	'D:\Program Files (x86)\Microsoft Visual Studio .NET 2003'
	DB	'\Vc7\atlmfc\include\afxtempl.h', 00H
	ORG $+1
$SG191708 DB	'D:\Program Files (x86)\Microsoft Visual Studio .NET 2003'
	DB	'\Vc7\atlmfc\include\afxtempl.h', 00H
	ORG $+1
$SG191712 DB	'D:\Program Files (x86)\Microsoft Visual Studio .NET 2003'
	DB	'\Vc7\atlmfc\include\afxtempl.h', 00H
	ORG $+1
$SG191722 DB	'D:\Program Files (x86)\Microsoft Visual Studio .NET 2003'
	DB	'\Vc7\atlmfc\include\afxtempl.h', 00H
	ORG $+1
$SG191742 DB	'D:\Program Files (x86)\Microsoft Visual Studio .NET 2003'
	DB	'\Vc7\atlmfc\include\afxtempl.h', 00H
	ORG $+1
$SG191767 DB	'D:\Program Files (x86)\Microsoft Visual Studio .NET 2003'
	DB	'\Vc7\atlmfc\include\afxtempl.h', 00H
	ORG $+1
$SG191784 DB	'D:\Program Files (x86)\Microsoft Visual Studio .NET 2003'
	DB	'\Vc7\atlmfc\include\afxtempl.h', 00H
	ORG $+1
$SG191813 DB	'D:\Program Files (x86)\Microsoft Visual Studio .NET 2003'
	DB	'\Vc7\atlmfc\include\afxtempl.h', 00H
	ORG $+1
$SG191815 DB	'D:\Program Files (x86)\Microsoft Visual Studio .NET 2003'
	DB	'\Vc7\atlmfc\include\afxtempl.h', 00H
	ORG $+1
$SG191819 DB	'D:\Program Files (x86)\Microsoft Visual Studio .NET 2003'
	DB	'\Vc7\atlmfc\include\afxtempl.h', 00H
	ORG $+1
$SG191829 DB	'D:\Program Files (x86)\Microsoft Visual Studio .NET 2003'
	DB	'\Vc7\atlmfc\include\afxtempl.h', 00H
	ORG $+1
$SG191832 DB	'D:\Program Files (x86)\Microsoft Visual Studio .NET 2003'
	DB	'\Vc7\atlmfc\include\afxtempl.h', 00H
	ORG $+1
$SG191845 DB	'D:\Program Files (x86)\Microsoft Visual Studio .NET 2003'
	DB	'\Vc7\atlmfc\include\afxtempl.h', 00H
	ORG $+1
$SG191853 DB	'D:\Program Files (x86)\Microsoft Visual Studio .NET 2003'
	DB	'\Vc7\atlmfc\include\afxtempl.h', 00H
	ORG $+1
$SG191855 DB	'D:\Program Files (x86)\Microsoft Visual Studio .NET 2003'
	DB	'\Vc7\atlmfc\include\afxtempl.h', 00H
	ORG $+1
$SG191870 DB	'D:\Program Files (x86)\Microsoft Visual Studio .NET 2003'
	DB	'\Vc7\atlmfc\include\afxtempl.h', 00H
	ORG $+1
$SG191877 DB	'D:\Program Files (x86)\Microsoft Visual Studio .NET 2003'
	DB	'\Vc7\atlmfc\include\afxtempl.h', 00H
	ORG $+1
$SG191919 DB	'D:\Program Files (x86)\Microsoft Visual Studio .NET 2003'
	DB	'\Vc7\atlmfc\include\afxtempl.h', 00H
	ORG $+1
$SG191923 DB	'D:\Program Files (x86)\Microsoft Visual Studio .NET 2003'
	DB	'\Vc7\atlmfc\include\afxtempl.h', 00H
	ORG $+1
$SG191933 DB	'D:\Program Files (x86)\Microsoft Visual Studio .NET 2003'
	DB	'\Vc7\atlmfc\include\afxtempl.h', 00H
	ORG $+1
$SG191962 DB	'D:\Program Files (x86)\Microsoft Visual Studio .NET 2003'
	DB	'\Vc7\atlmfc\include\afxtempl.h', 00H
	ORG $+1
$SG191987 DB	'D:\Program Files (x86)\Microsoft Visual Studio .NET 2003'
	DB	'\Vc7\atlmfc\include\afxtempl.h', 00H
	ORG $+1
$SG192000 DB	'D:\Program Files (x86)\Microsoft Visual Studio .NET 2003'
	DB	'\Vc7\atlmfc\include\afxtempl.h', 00H
	ORG $+1
$SG192015 DB	'D:\Program Files (x86)\Microsoft Visual Studio .NET 2003'
	DB	'\Vc7\atlmfc\include\afxtempl.h', 00H
	ORG $+1
$SG192017 DB	'D:\Program Files (x86)\Microsoft Visual Studio .NET 2003'
	DB	'\Vc7\atlmfc\include\afxtempl.h', 00H
	ORG $+1
$SG192019 DB	'D:\Program Files (x86)\Microsoft Visual Studio .NET 2003'
	DB	'\Vc7\atlmfc\include\afxtempl.h', 00H
	ORG $+1
$SG192044 DB	'D:\Program Files (x86)\Microsoft Visual Studio .NET 2003'
	DB	'\Vc7\atlmfc\include\afxtempl.h', 00H
	ORG $+1
$SG192049 DB	'D:\Program Files (x86)\Microsoft Visual Studio .NET 2003'
	DB	'\Vc7\atlmfc\include\afxtempl.h', 00H
	ORG $+1
$SG192084 DB	'D:\Program Files (x86)\Microsoft Visual Studio .NET 2003'
	DB	'\Vc7\atlmfc\include\afxtempl.h', 00H
	ORG $+1
$SG192087 DB	'D:\Program Files (x86)\Microsoft Visual Studio .NET 2003'
	DB	'\Vc7\atlmfc\include\afxtempl.h', 00H
CONST	ENDS
;	COMDAT ?g_pfnGetThreadACP@ATL@@3P6GIXZA
_DATA	SEGMENT
?g_pfnGetThreadACP@ATL@@3P6GIXZA DD FLAT:?_AtlGetThreadACPThunk@ATL@@YGIXZ ; ATL::g_pfnGetThreadACP
_DATA	ENDS
PUBLIC	?InterlockedExchangePointer@@YGPAXPAPAXPAX@Z	; InterlockedExchangePointer
PUBLIC	?_AtlGetThreadACPFake@ATL@@YGIXZ		; ATL::_AtlGetThreadACPFake
PUBLIC	?_AtlGetThreadACPReal@ATL@@YGIXZ		; ATL::_AtlGetThreadACPReal
EXTRN	__RTC_InitBase:NEAR
EXTRN	__RTC_Shutdown:NEAR
EXTRN	__RTC_CheckEsp:NEAR
EXTRN	___security_cookie:DWORD
EXTRN	@_RTC_CheckStackVars@8:NEAR
EXTRN	@__security_check_cookie@4:NEAR
EXTRN	__imp__GetVersionExA@4:NEAR
;	COMDAT rtc$IMZ
; File d:\program files (x86)\microsoft visual studio .net 2003\vc7\atlmfc\include\atlconv.h
rtc$IMZ	SEGMENT
__RTC_InitBase.rtc$IMZ DD FLAT:__RTC_InitBase
rtc$IMZ	ENDS
;	COMDAT rtc$TMZ
rtc$TMZ	SEGMENT
__RTC_Shutdown.rtc$TMZ DD FLAT:__RTC_Shutdown
; Function compile flags: /Odt /RTCsu
rtc$TMZ	ENDS
;	COMDAT ?_AtlGetThreadACPThunk@ATL@@YGIXZ
_TEXT	SEGMENT
_pfnGetThreadACP$ = -164				; size = 4
_ver$ = -156						; size = 148
__$ArrayPad$ = -4					; size = 4
__$ReturnAddr$ = 4					; size = 4
?_AtlGetThreadACPThunk@ATL@@YGIXZ PROC NEAR		; ATL::_AtlGetThreadACPThunk, COMDAT

; 134  : {

  00000	55		 push	 ebp
  00001	8b ec		 mov	 ebp, esp
  00003	81 ec a4 00 00
	00		 sub	 esp, 164		; 000000a4H
  00009	56		 push	 esi
  0000a	57		 push	 edi
  0000b	8d bd 5c ff ff
	ff		 lea	 edi, DWORD PTR [ebp-164]
  00011	b9 29 00 00 00	 mov	 ecx, 41			; 00000029H
  00016	b8 cc cc cc cc	 mov	 eax, -858993460		; ccccccccH
  0001b	f3 ab		 rep stosd
  0001d	a1 00 00 00 00	 mov	 eax, DWORD PTR ___security_cookie
  00022	89 45 fc	 mov	 DWORD PTR __$ArrayPad$[ebp], eax

; 135  : 	OSVERSIONINFO ver;
; 136  : 	ATLGETTHREADACP pfnGetThreadACP;
; 137  : 
; 138  : 	ver.dwOSVersionInfoSize = sizeof( ver );

  00025	c7 85 64 ff ff
	ff 94 00 00 00	 mov	 DWORD PTR _ver$[ebp], 148 ; 00000094H

; 139  : 	::GetVersionEx( &ver );

  0002f	8b f4		 mov	 esi, esp
  00031	8d 85 64 ff ff
	ff		 lea	 eax, DWORD PTR _ver$[ebp]
  00037	50		 push	 eax
  00038	ff 15 00 00 00
	00		 call	 DWORD PTR __imp__GetVersionExA@4
  0003e	3b f4		 cmp	 esi, esp
  00040	e8 00 00 00 00	 call	 __RTC_CheckEsp

; 140  : 	if( (ver.dwPlatformId == VER_PLATFORM_WIN32_NT) && (ver.dwMajorVersion >= 5) )

  00045	83 bd 74 ff ff
	ff 02		 cmp	 DWORD PTR _ver$[ebp+16], 2
  0004c	75 15		 jne	 SHORT $L24163
  0004e	83 bd 68 ff ff
	ff 05		 cmp	 DWORD PTR _ver$[ebp+4], 5
  00055	72 0c		 jb	 SHORT $L24163

; 141  : 	{
; 142  : 		// On Win2K, CP_THREAD_ACP is supported
; 143  : 		pfnGetThreadACP = _AtlGetThreadACPReal;

  00057	c7 85 5c ff ff
	ff 00 00 00 00	 mov	 DWORD PTR _pfnGetThreadACP$[ebp], OFFSET FLAT:?_AtlGetThreadACPReal@ATL@@YGIXZ ; ATL::_AtlGetThreadACPReal

; 144  : 	}
; 145  : 	else

  00061	eb 0a		 jmp	 SHORT $L24164
$L24163:

; 146  : 	{
; 147  : 		pfnGetThreadACP = _AtlGetThreadACPFake;

  00063	c7 85 5c ff ff
	ff 00 00 00 00	 mov	 DWORD PTR _pfnGetThreadACP$[ebp], OFFSET FLAT:?_AtlGetThreadACPFake@ATL@@YGIXZ ; ATL::_AtlGetThreadACPFake
$L24164:

; 148  : 	}
; 149  : 	InterlockedExchangePointer( reinterpret_cast< void** >(&g_pfnGetThreadACP), pfnGetThreadACP );

  0006d	8b 8d 5c ff ff
	ff		 mov	 ecx, DWORD PTR _pfnGetThreadACP$[ebp]
  00073	51		 push	 ecx
  00074	68 00 00 00 00	 push	 OFFSET FLAT:?g_pfnGetThreadACP@ATL@@3P6GIXZA ; ATL::g_pfnGetThreadACP
  00079	e8 00 00 00 00	 call	 ?InterlockedExchangePointer@@YGPAXPAPAXPAX@Z ; InterlockedExchangePointer

; 150  : 
; 151  : 	return( g_pfnGetThreadACP() );

  0007e	8b f4		 mov	 esi, esp
  00080	ff 15 00 00 00
	00		 call	 DWORD PTR ?g_pfnGetThreadACP@ATL@@3P6GIXZA ; ATL::g_pfnGetThreadACP
  00086	3b f4		 cmp	 esi, esp
  00088	e8 00 00 00 00	 call	 __RTC_CheckEsp

; 152  : }

  0008d	52		 push	 edx
  0008e	8b cd		 mov	 ecx, ebp
  00090	50		 push	 eax
  00091	8d 15 00 00 00
	00		 lea	 edx, DWORD PTR $L192749
  00097	e8 00 00 00 00	 call	 @_RTC_CheckStackVars@8
  0009c	58		 pop	 eax
  0009d	5a		 pop	 edx
  0009e	8b 4d fc	 mov	 ecx, DWORD PTR __$ArrayPad$[ebp]
  000a1	e8 00 00 00 00	 call	 @__security_check_cookie@4
  000a6	5f		 pop	 edi
  000a7	5e		 pop	 esi
  000a8	81 c4 a4 00 00
	00		 add	 esp, 164		; 000000a4H
  000ae	3b ec		 cmp	 ebp, esp
  000b0	e8 00 00 00 00	 call	 __RTC_CheckEsp
  000b5	8b e5		 mov	 esp, ebp
  000b7	5d		 pop	 ebp
  000b8	c3		 ret	 0
$L192749:
  000b9	01 00 00 00	 DD	 1
  000bd	00 00 00 00	 DD	 $L192748
$L192748:
  000c1	64 ff ff ff	 DD	 -156			; ffffff64H
  000c5	94 00 00 00	 DD	 148			; 00000094H
  000c9	00 00 00 00	 DD	 $L192745
$L192745:
  000cd	76		 DB	 118			; 00000076H
  000ce	65		 DB	 101			; 00000065H
  000cf	72		 DB	 114			; 00000072H
  000d0	00		 DB	 0
?_AtlGetThreadACPThunk@ATL@@YGIXZ ENDP			; ATL::_AtlGetThreadACPThunk
_TEXT	ENDS
EXTRN	__imp__InterlockedExchange@8:NEAR
; Function compile flags: /Odt /RTCsu
;	COMDAT ?InterlockedExchangePointer@@YGPAXPAPAXPAX@Z
_TEXT	SEGMENT
_pp$ = 8						; size = 4
_pNew$ = 12						; size = 4
?InterlockedExchangePointer@@YGPAXPAPAXPAX@Z PROC NEAR	; InterlockedExchangePointer, COMDAT

; 91   : {

  00000	55		 push	 ebp
  00001	8b ec		 mov	 ebp, esp
  00003	56		 push	 esi

; 92   : 	return( reinterpret_cast<void*>(static_cast<LONG_PTR>(::InterlockedExchange(reinterpret_cast<LONG*>(pp), static_cast<LONG>(reinterpret_cast<LONG_PTR>(pNew))))) );

  00004	8b f4		 mov	 esi, esp
  00006	8b 45 0c	 mov	 eax, DWORD PTR _pNew$[ebp]
  00009	50		 push	 eax
  0000a	8b 4d 08	 mov	 ecx, DWORD PTR _pp$[ebp]
  0000d	51		 push	 ecx
  0000e	ff 15 00 00 00
	00		 call	 DWORD PTR __imp__InterlockedExchange@8
  00014	3b f4		 cmp	 esi, esp
  00016	e8 00 00 00 00	 call	 __RTC_CheckEsp

; 93   : }

  0001b	5e		 pop	 esi
  0001c	3b ec		 cmp	 ebp, esp
  0001e	e8 00 00 00 00	 call	 __RTC_CheckEsp
  00023	5d		 pop	 ebp
  00024	c2 08 00	 ret	 8
?InterlockedExchangePointer@@YGPAXPAPAXPAX@Z ENDP	; InterlockedExchangePointer
_TEXT	ENDS
EXTRN	__imp__GetACP@0:NEAR
EXTRN	__imp__GetLocaleInfoA@16:NEAR
EXTRN	__imp__GetThreadLocale@0:NEAR
; Function compile flags: /Odt /RTCsu
;	COMDAT ?_AtlGetThreadACPFake@ATL@@YGIXZ
_TEXT	SEGMENT
_pch$24151 = -32					; size = 4
_szACP$ = -24						; size = 7
_lcidThread$ = -12					; size = 4
_nACP$ = -8						; size = 4
__$ArrayPad$ = -4					; size = 4
__$ReturnAddr$ = 4					; size = 4
?_AtlGetThreadACPFake@ATL@@YGIXZ PROC NEAR		; ATL::_AtlGetThreadACPFake, COMDAT

; 101  : {

  00000	55		 push	 ebp
  00001	8b ec		 mov	 ebp, esp
  00003	83 ec 20	 sub	 esp, 32			; 00000020H
  00006	56		 push	 esi
  00007	b8 cc cc cc cc	 mov	 eax, -858993460		; ccccccccH
  0000c	89 45 e0	 mov	 DWORD PTR [ebp-32], eax
  0000f	89 45 e4	 mov	 DWORD PTR [ebp-28], eax
  00012	89 45 e8	 mov	 DWORD PTR [ebp-24], eax
  00015	89 45 ec	 mov	 DWORD PTR [ebp-20], eax
  00018	89 45 f0	 mov	 DWORD PTR [ebp-16], eax
  0001b	89 45 f4	 mov	 DWORD PTR [ebp-12], eax
  0001e	89 45 f8	 mov	 DWORD PTR [ebp-8], eax
  00021	89 45 fc	 mov	 DWORD PTR [ebp-4], eax
  00024	a1 00 00 00 00	 mov	 eax, DWORD PTR ___security_cookie
  00029	89 45 fc	 mov	 DWORD PTR __$ArrayPad$[ebp], eax

; 102  : 	UINT nACP = 0;

  0002c	c7 45 f8 00 00
	00 00		 mov	 DWORD PTR _nACP$[ebp], 0

; 103  : 
; 104  : 	LCID lcidThread = ::GetThreadLocale();

  00033	8b f4		 mov	 esi, esp
  00035	ff 15 00 00 00
	00		 call	 DWORD PTR __imp__GetThreadLocale@0
  0003b	3b f4		 cmp	 esi, esp
  0003d	e8 00 00 00 00	 call	 __RTC_CheckEsp
  00042	89 45 f4	 mov	 DWORD PTR _lcidThread$[ebp], eax

; 105  : 
; 106  : 	char szACP[7];
; 107  : 	// GetLocaleInfoA will fail for a Unicode-only LCID, but those are only supported on 
; 108  : 	// Windows 2000.  Since Windows 2000 supports CP_THREAD_ACP, this code path is never
; 109  : 	// executed on Windows 2000.
; 110  : 	if (::GetLocaleInfoA(lcidThread, LOCALE_IDEFAULTANSICODEPAGE, szACP, 7) != 0)

  00045	8b f4		 mov	 esi, esp
  00047	6a 07		 push	 7
  00049	8d 45 e8	 lea	 eax, DWORD PTR _szACP$[ebp]
  0004c	50		 push	 eax
  0004d	68 04 10 00 00	 push	 4100			; 00001004H
  00052	8b 4d f4	 mov	 ecx, DWORD PTR _lcidThread$[ebp]
  00055	51		 push	 ecx
  00056	ff 15 00 00 00
	00		 call	 DWORD PTR __imp__GetLocaleInfoA@16
  0005c	3b f4		 cmp	 esi, esp
  0005e	e8 00 00 00 00	 call	 __RTC_CheckEsp
  00063	85 c0		 test	 eax, eax
  00065	74 34		 je	 SHORT $L24150

; 111  : 	{
; 112  : 		char* pch = szACP;

  00067	8d 55 e8	 lea	 edx, DWORD PTR _szACP$[ebp]
  0006a	89 55 e0	 mov	 DWORD PTR _pch$24151[ebp], edx
$L24153:

; 113  : 		while (*pch != '\0')

  0006d	8b 45 e0	 mov	 eax, DWORD PTR _pch$24151[ebp]
  00070	0f be 08	 movsx	 ecx, BYTE PTR [eax]
  00073	85 c9		 test	 ecx, ecx
  00075	74 24		 je	 SHORT $L24150

; 114  : 		{
; 115  : 			nACP *= 10;

  00077	8b 55 f8	 mov	 edx, DWORD PTR _nACP$[ebp]
  0007a	6b d2 0a	 imul	 edx, 10			; 0000000aH
  0007d	89 55 f8	 mov	 DWORD PTR _nACP$[ebp], edx

; 116  : 			nACP += *pch++ - '0';

  00080	8b 45 e0	 mov	 eax, DWORD PTR _pch$24151[ebp]
  00083	0f be 08	 movsx	 ecx, BYTE PTR [eax]
  00086	8b 55 f8	 mov	 edx, DWORD PTR _nACP$[ebp]
  00089	8d 44 0a d0	 lea	 eax, DWORD PTR [edx+ecx-48]
  0008d	89 45 f8	 mov	 DWORD PTR _nACP$[ebp], eax
  00090	8b 4d e0	 mov	 ecx, DWORD PTR _pch$24151[ebp]
  00093	83 c1 01	 add	 ecx, 1
  00096	89 4d e0	 mov	 DWORD PTR _pch$24151[ebp], ecx

; 117  : 		}

  00099	eb d2		 jmp	 SHORT $L24153
$L24150:

; 118  : 	}
; 119  : 	// Use the Default ANSI Code Page if we were unable to get the thread ACP or if one does not exist.
; 120  : 	if (nACP == 0)

  0009b	83 7d f8 00	 cmp	 DWORD PTR _nACP$[ebp], 0
  0009f	75 12		 jne	 SHORT $L24155

; 121  : 		nACP = ::GetACP();

  000a1	8b f4		 mov	 esi, esp
  000a3	ff 15 00 00 00
	00		 call	 DWORD PTR __imp__GetACP@0
  000a9	3b f4		 cmp	 esi, esp
  000ab	e8 00 00 00 00	 call	 __RTC_CheckEsp
  000b0	89 45 f8	 mov	 DWORD PTR _nACP$[ebp], eax
$L24155:

; 122  : 
; 123  : 	return nACP;

  000b3	8b 45 f8	 mov	 eax, DWORD PTR _nACP$[ebp]

; 124  : }

  000b6	52		 push	 edx
  000b7	8b cd		 mov	 ecx, ebp
  000b9	50		 push	 eax
  000ba	8d 15 00 00 00
	00		 lea	 edx, DWORD PTR $L192760
  000c0	e8 00 00 00 00	 call	 @_RTC_CheckStackVars@8
  000c5	58		 pop	 eax
  000c6	5a		 pop	 edx
  000c7	8b 4d fc	 mov	 ecx, DWORD PTR __$ArrayPad$[ebp]
  000ca	e8 00 00 00 00	 call	 @__security_check_cookie@4
  000cf	5e		 pop	 esi
  000d0	83 c4 20	 add	 esp, 32			; 00000020H
  000d3	3b ec		 cmp	 ebp, esp
  000d5	e8 00 00 00 00	 call	 __RTC_CheckEsp
  000da	8b e5		 mov	 esp, ebp
  000dc	5d		 pop	 ebp
  000dd	c3		 ret	 0
$L192760:
  000de	01 00 00 00	 DD	 1
  000e2	00 00 00 00	 DD	 $L192759
$L192759:
  000e6	e8 ff ff ff	 DD	 -24			; ffffffe8H
  000ea	07 00 00 00	 DD	 7
  000ee	00 00 00 00	 DD	 $L192757
$L192757:
  000f2	73		 DB	 115			; 00000073H
  000f3	7a		 DB	 122			; 0000007aH
  000f4	41		 DB	 65			; 00000041H
  000f5	43		 DB	 67			; 00000043H
  000f6	50		 DB	 80			; 00000050H
  000f7	00		 DB	 0
?_AtlGetThreadACPFake@ATL@@YGIXZ ENDP			; ATL::_AtlGetThreadACPFake
; Function compile flags: /Odt /RTCsu
_TEXT	ENDS
;	COMDAT ?_AtlGetThreadACPReal@ATL@@YGIXZ
_TEXT	SEGMENT
?_AtlGetThreadACPReal@ATL@@YGIXZ PROC NEAR		; ATL::_AtlGetThreadACPReal, COMDAT

; 127  : {

  00000	55		 push	 ebp
  00001	8b ec		 mov	 ebp, esp

; 128  : 	return( CP_THREAD_ACP );

  00003	b8 03 00 00 00	 mov	 eax, 3

; 129  : }

  00008	5d		 pop	 ebp
  00009	c3		 ret	 0
?_AtlGetThreadACPReal@ATL@@YGIXZ ENDP			; ATL::_AtlGetThreadACPReal
_TEXT	ENDS
PUBLIC	?GetThisClass@ETSSplitter@@SGPAUCRuntimeClass@@XZ ; ETSSplitter::GetThisClass
; Function compile flags: /Odt /RTCsu
; File d:\boxgit\playbox\playbox\dev\prj\playbox\src\layoutmgr\etssplitter.cpp
_TEXT	SEGMENT
?GetThisClass@ETSSplitter@@SGPAUCRuntimeClass@@XZ PROC NEAR ; ETSSplitter::GetThisClass

; 40   : IMPLEMENT_DYNAMIC(ETSSplitter, CStatic)

  00000	55		 push	 ebp
  00001	8b ec		 mov	 ebp, esp
  00003	b8 00 00 00 00	 mov	 eax, OFFSET FLAT:?classETSSplitter@ETSSplitter@@2UCRuntimeClass@@B ; ETSSplitter::classETSSplitter
  00008	5d		 pop	 ebp
  00009	c3		 ret	 0
?GetThisClass@ETSSplitter@@SGPAUCRuntimeClass@@XZ ENDP	; ETSSplitter::GetThisClass
_TEXT	ENDS
PUBLIC	?GetRuntimeClass@ETSSplitter@@UBEPAUCRuntimeClass@@XZ ; ETSSplitter::GetRuntimeClass
; Function compile flags: /Odt /RTCsu
_TEXT	SEGMENT
_this$ = -4						; size = 4
?GetRuntimeClass@ETSSplitter@@UBEPAUCRuntimeClass@@XZ PROC NEAR ; ETSSplitter::GetRuntimeClass
; _this$ = ecx

; 40   : IMPLEMENT_DYNAMIC(ETSSplitter, CStatic)

  00010	55		 push	 ebp
  00011	8b ec		 mov	 ebp, esp
  00013	51		 push	 ecx
  00014	c7 45 fc cc cc
	cc cc		 mov	 DWORD PTR [ebp-4], -858993460 ; ccccccccH
  0001b	89 4d fc	 mov	 DWORD PTR _this$[ebp], ecx
  0001e	b8 00 00 00 00	 mov	 eax, OFFSET FLAT:?classETSSplitter@ETSSplitter@@2UCRuntimeClass@@B ; ETSSplitter::classETSSplitter
  00023	8b e5		 mov	 esp, ebp
  00025	5d		 pop	 ebp
  00026	c3		 ret	 0
?GetRuntimeClass@ETSSplitter@@UBEPAUCRuntimeClass@@XZ ENDP ; ETSSplitter::GetRuntimeClass
_TEXT	ENDS
PUBLIC	??_R1A@?0A@A@CWnd@@8				; CWnd::`RTTI Base Class Descriptor at (0,-1,0,0)'
PUBLIC	??_R0?AVCWnd@@@8				; CWnd `RTTI Type Descriptor'
PUBLIC	??_R1A@?0A@A@CCmdTarget@@8			; CCmdTarget::`RTTI Base Class Descriptor at (0,-1,0,0)'
PUBLIC	??_R0?AVCCmdTarget@@@8				; CCmdTarget `RTTI Type Descriptor'
PUBLIC	??_R1A@?0A@A@CObject@@8				; CObject::`RTTI Base Class Descriptor at (0,-1,0,0)'
PUBLIC	??_R0?AVCObject@@@8				; CObject `RTTI Type Descriptor'
PUBLIC	??0ETSSplitter@@QAE@PBD@Z			; ETSSplitter::ETSSplitter
PUBLIC	?CloseSplitter@ETSSplitter@@UAEXXZ		; ETSSplitter::CloseSplitter
PUBLIC	?PreCreateWindow@ETSSplitter@@MAEHAAUtagCREATESTRUCTA@@@Z ; ETSSplitter::PreCreateWindow
PUBLIC	?DrawVertBar@ETSSplitter@@MAEXH@Z		; ETSSplitter::DrawVertBar
PUBLIC	?DrawHorizBar@ETSSplitter@@MAEXH@Z		; ETSSplitter::DrawHorizBar
PUBLIC	?ConstrainOffset@ETSSplitter@@MAEXXZ		; ETSSplitter::ConstrainOffset
PUBLIC	?GetMessageMap@ETSSplitter@@MBEPBUAFX_MSGMAP@@XZ ; ETSSplitter::GetMessageMap
PUBLIC	??_7ETSSplitter@@6B@				; ETSSplitter::`vftable'
PUBLIC	??_GETSSplitter@@UAEPAXI@Z			; ETSSplitter::`scalar deleting destructor'
PUBLIC	??_R4ETSSplitter@@6B@				; ETSSplitter::`RTTI Complete Object Locator'
PUBLIC	??_R0?AVETSSplitter@@@8				; ETSSplitter `RTTI Type Descriptor'
PUBLIC	??_R3ETSSplitter@@8				; ETSSplitter::`RTTI Class Hierarchy Descriptor'
PUBLIC	??_R2ETSSplitter@@8				; ETSSplitter::`RTTI Base Class Array'
PUBLIC	??_R1A@?0A@A@ETSSplitter@@8			; ETSSplitter::`RTTI Base Class Descriptor at (0,-1,0,0)'
PUBLIC	??_R1A@?0A@A@CStatic@@8				; CStatic::`RTTI Base Class Descriptor at (0,-1,0,0)'
PUBLIC	??_R0?AVCStatic@@@8				; CStatic `RTTI Type Descriptor'
EXTRN	?GetInterfaceMap@CWnd@@MBEPBUAFX_INTERFACEMAP@@XZ:NEAR ; CWnd::GetInterfaceMap
EXTRN	?EnsureStdObj@CWnd@@UAEJXZ:NEAR			; CWnd::EnsureStdObj
EXTRN	?get_accParent@CWnd@@UAEJPAPAUIDispatch@@@Z:NEAR ; CWnd::get_accParent
EXTRN	?OnCmdMsg@CCmdTarget@@UAEHIHPAXPAUAFX_CMDHANDLERINFO@@@Z:NEAR ; CCmdTarget::OnCmdMsg
EXTRN	?get_accChildCount@CWnd@@UAEJPAJ@Z:NEAR		; CWnd::get_accChildCount
EXTRN	?IsInvokeAllowed@CCmdTarget@@UAEHJ@Z:NEAR	; CCmdTarget::IsInvokeAllowed
EXTRN	?get_accChild@CWnd@@UAEJUtagVARIANT@@PAPAUIDispatch@@@Z:NEAR ; CWnd::get_accChild
EXTRN	?get_accName@CWnd@@UAEJUtagVARIANT@@PAPA_W@Z:NEAR ; CWnd::get_accName
EXTRN	?get_accValue@CWnd@@UAEJUtagVARIANT@@PAPA_W@Z:NEAR ; CWnd::get_accValue
EXTRN	?GetDispatchIID@CCmdTarget@@UAEHPAU_GUID@@@Z:NEAR ; CCmdTarget::GetDispatchIID
EXTRN	?GetTypeInfoCount@CCmdTarget@@UAEIXZ:NEAR	; CCmdTarget::GetTypeInfoCount
EXTRN	?GetTypeLibCache@CCmdTarget@@UAEPAVCTypeLibCache@@XZ:NEAR ; CCmdTarget::GetTypeLibCache
EXTRN	?get_accDescription@CWnd@@UAEJUtagVARIANT@@PAPA_W@Z:NEAR ; CWnd::get_accDescription
EXTRN	?GetTypeLib@CCmdTarget@@UAEJKPAPAUITypeLib@@@Z:NEAR ; CCmdTarget::GetTypeLib
EXTRN	?get_accRole@CWnd@@UAEJUtagVARIANT@@PAU2@@Z:NEAR ; CWnd::get_accRole
EXTRN	?get_accState@CWnd@@UAEJUtagVARIANT@@PAU2@@Z:NEAR ; CWnd::get_accState
EXTRN	?get_accHelp@CWnd@@UAEJUtagVARIANT@@PAPA_W@Z:NEAR ; CWnd::get_accHelp
EXTRN	?get_accHelpTopic@CWnd@@UAEJPAPA_WUtagVARIANT@@PAJ@Z:NEAR ; CWnd::get_accHelpTopic
EXTRN	?get_accKeyboardShortcut@CWnd@@UAEJUtagVARIANT@@PAPA_W@Z:NEAR ; CWnd::get_accKeyboardShortcut
EXTRN	?get_accFocus@CWnd@@UAEJPAUtagVARIANT@@@Z:NEAR	; CWnd::get_accFocus
EXTRN	?get_accSelection@CWnd@@UAEJPAUtagVARIANT@@@Z:NEAR ; CWnd::get_accSelection
EXTRN	?get_accDefaultAction@CWnd@@UAEJUtagVARIANT@@PAPA_W@Z:NEAR ; CWnd::get_accDefaultAction
EXTRN	?GetCommandMap@CCmdTarget@@MBEPBUAFX_OLECMDMAP@@XZ:NEAR ; CCmdTarget::GetCommandMap
EXTRN	?accSelect@CWnd@@UAEJJUtagVARIANT@@@Z:NEAR	; CWnd::accSelect
EXTRN	?accLocation@CWnd@@UAEJPAJ000UtagVARIANT@@@Z:NEAR ; CWnd::accLocation
EXTRN	?GetDispatchMap@CCmdTarget@@MBEPBUAFX_DISPMAP@@XZ:NEAR ; CCmdTarget::GetDispatchMap
EXTRN	?accNavigate@CWnd@@UAEJJUtagVARIANT@@PAU2@@Z:NEAR ; CWnd::accNavigate
EXTRN	?accHitTest@CWnd@@UAEJJJPAUtagVARIANT@@@Z:NEAR	; CWnd::accHitTest
EXTRN	?GetConnectionMap@CCmdTarget@@MBEPBUAFX_CONNECTIONMAP@@XZ:NEAR ; CCmdTarget::GetConnectionMap
EXTRN	?accDoDefaultAction@CWnd@@UAEJUtagVARIANT@@@Z:NEAR ; CWnd::accDoDefaultAction
EXTRN	?put_accName@CWnd@@UAEJUtagVARIANT@@PA_W@Z:NEAR	; CWnd::put_accName
EXTRN	?put_accValue@CWnd@@UAEJUtagVARIANT@@PA_W@Z:NEAR ; CWnd::put_accValue
EXTRN	?SetProxy@CWnd@@UAEJPAUIAccessibleProxy@@@Z:NEAR ; CWnd::SetProxy
EXTRN	?CreateAccessibleProxy@CWnd@@UAEJIJPAJ@Z:NEAR	; CWnd::CreateAccessibleProxy
EXTRN	?GetEventSinkMap@CCmdTarget@@MBEPBUAFX_EVENTSINKMAP@@XZ:NEAR ; CCmdTarget::GetEventSinkMap
EXTRN	?OnCreateAggregates@CCmdTarget@@UAEHXZ:NEAR	; CCmdTarget::OnCreateAggregates
EXTRN	?OnCommand@CWnd@@MAEHIJ@Z:NEAR			; CWnd::OnCommand
EXTRN	?GetInterfaceHook@CCmdTarget@@UAEPAUIUnknown@@PBX@Z:NEAR ; CCmdTarget::GetInterfaceHook
EXTRN	?OnNotify@CWnd@@MAEHIJPAJ@Z:NEAR		; CWnd::OnNotify
EXTRN	?GetExtraConnectionPoints@CCmdTarget@@MAEHPAVCPtrArray@@@Z:NEAR ; CCmdTarget::GetExtraConnectionPoints
EXTRN	?GetConnectionHook@CCmdTarget@@MAEPAUIConnectionPoint@@ABU_GUID@@@Z:NEAR ; CCmdTarget::GetConnectionHook
EXTRN	?PreSubclassWindow@CWnd@@UAEXXZ:NEAR		; CWnd::PreSubclassWindow
EXTRN	?Create@CWnd@@UAEHPBD0KABUtagRECT@@PAV1@IPAUCCreateContext@@@Z:NEAR ; CWnd::Create
EXTRN	?CreateEx@CWnd@@UAEHKPBD0KHHHHPAUHWND__@@PAUHMENU__@@PAX@Z:NEAR ; CWnd::CreateEx
EXTRN	?CreateEx@CWnd@@UAEHKPBD0KABUtagRECT@@PAV1@IPAX@Z:NEAR ; CWnd::CreateEx
EXTRN	?Serialize@CObject@@UAEXAAVCArchive@@@Z:NEAR	; CObject::Serialize
EXTRN	?DestroyWindow@CWnd@@UAEHXZ:NEAR		; CWnd::DestroyWindow
EXTRN	?CalcWindowRect@CWnd@@UAEXPAUtagRECT@@I@Z:NEAR	; CWnd::CalcWindowRect
EXTRN	?GetSuperWndProcAddr@CWnd@@MAEPAP6GJPAUHWND__@@IIJ@ZXZ:NEAR ; CWnd::GetSuperWndProcAddr
EXTRN	?DoDataExchange@CWnd@@MAEXPAVCDataExchange@@@Z:NEAR ; CWnd::DoDataExchange
EXTRN	?BeginModalState@CWnd@@UAEXXZ:NEAR		; CWnd::BeginModalState
EXTRN	?EndModalState@CWnd@@UAEXXZ:NEAR		; CWnd::EndModalState
EXTRN	?PreTranslateMessage@CWnd@@UAEHPAUtagMSG@@@Z:NEAR ; CWnd::PreTranslateMessage
EXTRN	?OnAmbientProperty@CWnd@@UAEHPAVCOleControlSite@@JPAUtagVARIANT@@@Z:NEAR ; CWnd::OnAmbientProperty
EXTRN	?WindowProc@CWnd@@MAEJIIJ@Z:NEAR		; CWnd::WindowProc
EXTRN	?OnWndMsg@CWnd@@MAEHIIJPAJ@Z:NEAR		; CWnd::OnWndMsg
EXTRN	?DefWindowProcA@CWnd@@MAEJIIJ@Z:NEAR		; CWnd::DefWindowProcA
EXTRN	?PostNcDestroy@CWnd@@MAEXXZ:NEAR		; CWnd::PostNcDestroy
EXTRN	??_EETSSplitter@@UAEPAXI@Z:NEAR			; ETSSplitter::`vector deleting destructor'
EXTRN	?CheckAutoCenter@CWnd@@UAEHXZ:NEAR		; CWnd::CheckAutoCenter
EXTRN	?AssertValid@CWnd@@UBEXXZ:NEAR			; CWnd::AssertValid
EXTRN	?Dump@CWnd@@UBEXAAVCDumpContext@@@Z:NEAR	; CWnd::Dump
EXTRN	?IsFrameWnd@CWnd@@UBEHXZ:NEAR			; CWnd::IsFrameWnd
EXTRN	?OnFinalRelease@CWnd@@UAEXXZ:NEAR		; CWnd::OnFinalRelease
EXTRN	?CreateControlContainer@CWnd@@MAEHPAPAVCOleControlContainer@@@Z:NEAR ; CWnd::CreateControlContainer
EXTRN	?CreateControlSite@CWnd@@MAEHPAVCOleControlContainer@@PAPAVCOleControlSite@@IABU_GUID@@@Z:NEAR ; CWnd::CreateControlSite
EXTRN	?SetOccDialogInfo@CWnd@@MAEHPAU_AFX_OCC_DIALOG_INFO@@@Z:NEAR ; CWnd::SetOccDialogInfo
EXTRN	__imp_??0?$CStringT@DV?$StrTraitMFC_DLL@DV?$ChTraitsCRT@D@ATL@@@@@ATL@@QAE@XZ:NEAR
EXTRN	?OnToolHitTest@CWnd@@UBEHVCPoint@@PAUtagTOOLINFOA@@@Z:NEAR ; CWnd::OnToolHitTest
EXTRN	??0CStatic@@QAE@XZ:NEAR				; CStatic::CStatic
EXTRN	?Create@CStatic@@UAEHPBDKABUtagRECT@@PAVCWnd@@I@Z:NEAR ; CStatic::Create
EXTRN	?GetScrollBarCtrl@CWnd@@UBEPAVCScrollBar@@H@Z:NEAR ; CWnd::GetScrollBarCtrl
EXTRN	?DrawItem@CStatic@@UAEXPAUtagDRAWITEMSTRUCT@@@Z:NEAR ; CStatic::DrawItem
EXTRN	?OnChildNotify@CStatic@@MAEHIIJPAJ@Z:NEAR	; CStatic::OnChildNotify
EXTRN	?WinHelpA@CWnd@@UAEXKI@Z:NEAR			; CWnd::WinHelpA
EXTRN	?HtmlHelpA@CWnd@@UAEXKI@Z:NEAR			; CWnd::HtmlHelpA
EXTRN	??_7type_info@@6B@:QWORD			; type_info::`vftable'
EXTRN	?WinHelpInternal@CWnd@@UAEXKI@Z:NEAR		; CWnd::WinHelpInternal
EXTRN	?ContinueModal@CWnd@@UAEHXZ:NEAR		; CWnd::ContinueModal
EXTRN	?EndModalLoop@CWnd@@UAEXH@Z:NEAR		; CWnd::EndModalLoop
;	COMDAT ??_7ETSSplitter@@6B@
CONST	SEGMENT
??_7ETSSplitter@@6B@ DD FLAT:??_R4ETSSplitter@@6B@	; ETSSplitter::`vftable'
	DD	FLAT:?GetRuntimeClass@ETSSplitter@@UBEPAUCRuntimeClass@@XZ
	DD	FLAT:??_EETSSplitter@@UAEPAXI@Z
	DD	FLAT:?Serialize@CObject@@UAEXAAVCArchive@@@Z
	DD	FLAT:?AssertValid@CWnd@@UBEXXZ
	DD	FLAT:?Dump@CWnd@@UBEXAAVCDumpContext@@@Z
	DD	FLAT:?OnCmdMsg@CCmdTarget@@UAEHIHPAXPAUAFX_CMDHANDLERINFO@@@Z
	DD	FLAT:?OnFinalRelease@CWnd@@UAEXXZ
	DD	FLAT:?IsInvokeAllowed@CCmdTarget@@UAEHJ@Z
	DD	FLAT:?GetDispatchIID@CCmdTarget@@UAEHPAU_GUID@@@Z
	DD	FLAT:?GetTypeInfoCount@CCmdTarget@@UAEIXZ
	DD	FLAT:?GetTypeLibCache@CCmdTarget@@UAEPAVCTypeLibCache@@XZ
	DD	FLAT:?GetTypeLib@CCmdTarget@@UAEJKPAPAUITypeLib@@@Z
	DD	FLAT:?GetMessageMap@ETSSplitter@@MBEPBUAFX_MSGMAP@@XZ
	DD	FLAT:?GetCommandMap@CCmdTarget@@MBEPBUAFX_OLECMDMAP@@XZ
	DD	FLAT:?GetDispatchMap@CCmdTarget@@MBEPBUAFX_DISPMAP@@XZ
	DD	FLAT:?GetConnectionMap@CCmdTarget@@MBEPBUAFX_CONNECTIONMAP@@XZ
	DD	FLAT:?GetInterfaceMap@CWnd@@MBEPBUAFX_INTERFACEMAP@@XZ
	DD	FLAT:?GetEventSinkMap@CCmdTarget@@MBEPBUAFX_EVENTSINKMAP@@XZ
	DD	FLAT:?OnCreateAggregates@CCmdTarget@@UAEHXZ
	DD	FLAT:?GetInterfaceHook@CCmdTarget@@UAEPAUIUnknown@@PBX@Z
	DD	FLAT:?GetExtraConnectionPoints@CCmdTarget@@MAEHPAVCPtrArray@@@Z
	DD	FLAT:?GetConnectionHook@CCmdTarget@@MAEPAUIConnectionPoint@@ABU_GUID@@@Z
	DD	FLAT:?PreSubclassWindow@CWnd@@UAEXXZ
	DD	FLAT:?Create@CWnd@@UAEHPBD0KABUtagRECT@@PAV1@IPAUCCreateContext@@@Z
	DD	FLAT:?CreateEx@CWnd@@UAEHKPBD0KABUtagRECT@@PAV1@IPAX@Z
	DD	FLAT:?CreateEx@CWnd@@UAEHKPBD0KHHHHPAUHWND__@@PAUHMENU__@@PAX@Z
	DD	FLAT:?DestroyWindow@CWnd@@UAEHXZ
	DD	FLAT:?PreCreateWindow@ETSSplitter@@MAEHAAUtagCREATESTRUCTA@@@Z
	DD	FLAT:?CalcWindowRect@CWnd@@UAEXPAUtagRECT@@I@Z
	DD	FLAT:?OnToolHitTest@CWnd@@UBEHVCPoint@@PAUtagTOOLINFOA@@@Z
	DD	FLAT:?GetScrollBarCtrl@CWnd@@UBEPAVCScrollBar@@H@Z
	DD	FLAT:?WinHelpA@CWnd@@UAEXKI@Z
	DD	FLAT:?HtmlHelpA@CWnd@@UAEXKI@Z
	DD	FLAT:?WinHelpInternal@CWnd@@UAEXKI@Z
	DD	FLAT:?ContinueModal@CWnd@@UAEHXZ
	DD	FLAT:?EndModalLoop@CWnd@@UAEXH@Z
	DD	FLAT:?EnsureStdObj@CWnd@@UAEJXZ
	DD	FLAT:?get_accParent@CWnd@@UAEJPAPAUIDispatch@@@Z
	DD	FLAT:?get_accChildCount@CWnd@@UAEJPAJ@Z
	DD	FLAT:?get_accChild@CWnd@@UAEJUtagVARIANT@@PAPAUIDispatch@@@Z
	DD	FLAT:?get_accName@CWnd@@UAEJUtagVARIANT@@PAPA_W@Z
	DD	FLAT:?get_accValue@CWnd@@UAEJUtagVARIANT@@PAPA_W@Z
	DD	FLAT:?get_accDescription@CWnd@@UAEJUtagVARIANT@@PAPA_W@Z
	DD	FLAT:?get_accRole@CWnd@@UAEJUtagVARIANT@@PAU2@@Z
	DD	FLAT:?get_accState@CWnd@@UAEJUtagVARIANT@@PAU2@@Z
	DD	FLAT:?get_accHelp@CWnd@@UAEJUtagVARIANT@@PAPA_W@Z
	DD	FLAT:?get_accHelpTopic@CWnd@@UAEJPAPA_WUtagVARIANT@@PAJ@Z
	DD	FLAT:?get_accKeyboardShortcut@CWnd@@UAEJUtagVARIANT@@PAPA_W@Z
	DD	FLAT:?get_accFocus@CWnd@@UAEJPAUtagVARIANT@@@Z
	DD	FLAT:?get_accSelection@CWnd@@UAEJPAUtagVARIANT@@@Z
	DD	FLAT:?get_accDefaultAction@CWnd@@UAEJUtagVARIANT@@PAPA_W@Z
	DD	FLAT:?accSelect@CWnd@@UAEJJUtagVARIANT@@@Z
	DD	FLAT:?accLocation@CWnd@@UAEJPAJ000UtagVARIANT@@@Z
	DD	FLAT:?accNavigate@CWnd@@UAEJJUtagVARIANT@@PAU2@@Z
	DD	FLAT:?accHitTest@CWnd@@UAEJJJPAUtagVARIANT@@@Z
	DD	FLAT:?accDoDefaultAction@CWnd@@UAEJUtagVARIANT@@@Z
	DD	FLAT:?put_accName@CWnd@@UAEJUtagVARIANT@@PA_W@Z
	DD	FLAT:?put_accValue@CWnd@@UAEJUtagVARIANT@@PA_W@Z
	DD	FLAT:?SetProxy@CWnd@@UAEJPAUIAccessibleProxy@@@Z
	DD	FLAT:?CreateAccessibleProxy@CWnd@@UAEJIJPAJ@Z
	DD	FLAT:?OnCommand@CWnd@@MAEHIJ@Z
	DD	FLAT:?OnNotify@CWnd@@MAEHIJPAJ@Z
	DD	FLAT:?GetSuperWndProcAddr@CWnd@@MAEPAP6GJPAUHWND__@@IIJ@ZXZ
	DD	FLAT:?DoDataExchange@CWnd@@MAEXPAVCDataExchange@@@Z
	DD	FLAT:?BeginModalState@CWnd@@UAEXXZ
	DD	FLAT:?EndModalState@CWnd@@UAEXXZ
	DD	FLAT:?PreTranslateMessage@CWnd@@UAEHPAUtagMSG@@@Z
	DD	FLAT:?OnAmbientProperty@CWnd@@UAEHPAVCOleControlSite@@JPAUtagVARIANT@@@Z
	DD	FLAT:?WindowProc@CWnd@@MAEJIIJ@Z
	DD	FLAT:?OnWndMsg@CWnd@@MAEHIIJPAJ@Z
	DD	FLAT:?DefWindowProcA@CWnd@@MAEJIIJ@Z
	DD	FLAT:?PostNcDestroy@CWnd@@MAEXXZ
	DD	FLAT:?OnChildNotify@CStatic@@MAEHIIJPAJ@Z
	DD	FLAT:?CheckAutoCenter@CWnd@@UAEHXZ
	DD	FLAT:?IsFrameWnd@CWnd@@UBEHXZ
	DD	FLAT:?CreateControlContainer@CWnd@@MAEHPAPAVCOleControlContainer@@@Z
	DD	FLAT:?CreateControlSite@CWnd@@MAEHPAVCOleControlContainer@@PAPAVCOleControlSite@@IABU_GUID@@@Z
	DD	FLAT:?SetOccDialogInfo@CWnd@@MAEHPAU_AFX_OCC_DIALOG_INFO@@@Z
	DD	FLAT:?Create@CStatic@@UAEHPBDKABUtagRECT@@PAVCWnd@@I@Z
	DD	FLAT:?DrawItem@CStatic@@UAEXPAUtagDRAWITEMSTRUCT@@@Z
	DD	FLAT:?CloseSplitter@ETSSplitter@@UAEXXZ
	DD	FLAT:?DrawVertBar@ETSSplitter@@MAEXH@Z
	DD	FLAT:?DrawHorizBar@ETSSplitter@@MAEXH@Z
	DD	FLAT:?ConstrainOffset@ETSSplitter@@MAEXXZ
CONST	ENDS
;	COMDAT ??_R4ETSSplitter@@6B@
rdata$r	SEGMENT
??_R4ETSSplitter@@6B@ DD 00H				; ETSSplitter::`RTTI Complete Object Locator'
	DD	00H
	DD	00H
	DD	FLAT:??_R0?AVETSSplitter@@@8
	DD	FLAT:??_R3ETSSplitter@@8
rdata$r	ENDS
;	COMDAT ??_R0?AVETSSplitter@@@8
_DATA	SEGMENT
??_R0?AVETSSplitter@@@8 DD FLAT:??_7type_info@@6B@	; ETSSplitter `RTTI Type Descriptor'
	DD	00H
	DB	'.?AVETSSplitter@@', 00H
_DATA	ENDS
;	COMDAT ??_R3ETSSplitter@@8
rdata$r	SEGMENT
??_R3ETSSplitter@@8 DD 00H				; ETSSplitter::`RTTI Class Hierarchy Descriptor'
	DD	00H
	DD	05H
	DD	FLAT:??_R2ETSSplitter@@8
rdata$r	ENDS
;	COMDAT ??_R2ETSSplitter@@8
rdata$r	SEGMENT
??_R2ETSSplitter@@8 DD FLAT:??_R1A@?0A@A@ETSSplitter@@8	; ETSSplitter::`RTTI Base Class Array'
	DD	FLAT:??_R1A@?0A@A@CStatic@@8
	DD	FLAT:??_R1A@?0A@A@CWnd@@8
	DD	FLAT:??_R1A@?0A@A@CCmdTarget@@8
	DD	FLAT:??_R1A@?0A@A@CObject@@8
rdata$r	ENDS
;	COMDAT ??_R1A@?0A@A@ETSSplitter@@8
rdata$r	SEGMENT
??_R1A@?0A@A@ETSSplitter@@8 DD FLAT:??_R0?AVETSSplitter@@@8 ; ETSSplitter::`RTTI Base Class Descriptor at (0,-1,0,0)'
	DD	04H
	DD	00H
	DD	0ffffffffH
	DD	00H
	DD	00H
rdata$r	ENDS
;	COMDAT ??_R1A@?0A@A@CStatic@@8
rdata$r	SEGMENT
??_R1A@?0A@A@CStatic@@8 DD FLAT:??_R0?AVCStatic@@@8	; CStatic::`RTTI Base Class Descriptor at (0,-1,0,0)'
	DD	03H
	DD	00H
	DD	0ffffffffH
	DD	00H
	DD	00H
rdata$r	ENDS
;	COMDAT ??_R0?AVCStatic@@@8
_DATA	SEGMENT
??_R0?AVCStatic@@@8 DD FLAT:??_7type_info@@6B@		; CStatic `RTTI Type Descriptor'
	DD	00H
	DB	'.?AVCStatic@@', 00H
_DATA	ENDS
;	COMDAT ??_R1A@?0A@A@CWnd@@8
rdata$r	SEGMENT
??_R1A@?0A@A@CWnd@@8 DD FLAT:??_R0?AVCWnd@@@8		; CWnd::`RTTI Base Class Descriptor at (0,-1,0,0)'
	DD	02H
	DD	00H
	DD	0ffffffffH
	DD	00H
	DD	00H
rdata$r	ENDS
;	COMDAT ??_R0?AVCWnd@@@8
_DATA	SEGMENT
??_R0?AVCWnd@@@8 DD FLAT:??_7type_info@@6B@		; CWnd `RTTI Type Descriptor'
	DD	00H
	DB	'.?AVCWnd@@', 00H
_DATA	ENDS
;	COMDAT ??_R1A@?0A@A@CCmdTarget@@8
rdata$r	SEGMENT
??_R1A@?0A@A@CCmdTarget@@8 DD FLAT:??_R0?AVCCmdTarget@@@8 ; CCmdTarget::`RTTI Base Class Descriptor at (0,-1,0,0)'
	DD	01H
	DD	00H
	DD	0ffffffffH
	DD	00H
	DD	00H
rdata$r	ENDS
;	COMDAT ??_R0?AVCCmdTarget@@@8
_DATA	SEGMENT
??_R0?AVCCmdTarget@@@8 DD FLAT:??_7type_info@@6B@	; CCmdTarget `RTTI Type Descriptor'
	DD	00H
	DB	'.?AVCCmdTarget@@', 00H
_DATA	ENDS
;	COMDAT ??_R1A@?0A@A@CObject@@8
rdata$r	SEGMENT
??_R1A@?0A@A@CObject@@8 DD FLAT:??_R0?AVCObject@@@8	; CObject::`RTTI Base Class Descriptor at (0,-1,0,0)'
	DD	00H
	DD	00H
	DD	0ffffffffH
	DD	00H
	DD	00H
rdata$r	ENDS
;	COMDAT ??_R0?AVCObject@@@8
_DATA	SEGMENT
??_R0?AVCObject@@@8 DD FLAT:??_7type_info@@6B@		; CObject `RTTI Type Descriptor'
	DD	00H
	DB	'.?AVCObject@@', 00H
; Function compile flags: /Odt /RTCsu
_DATA	ENDS
_TEXT	SEGMENT
_this$ = -4						; size = 4
_strName$ = 8						; size = 4
??0ETSSplitter@@QAE@PBD@Z PROC NEAR			; ETSSplitter::ETSSplitter
; _this$ = ecx

; 45   : {

  00030	55		 push	 ebp
  00031	8b ec		 mov	 ebp, esp
  00033	51		 push	 ecx
  00034	56		 push	 esi
  00035	c7 45 fc cc cc
	cc cc		 mov	 DWORD PTR [ebp-4], -858993460 ; ccccccccH
  0003c	89 4d fc	 mov	 DWORD PTR _this$[ebp], ecx
  0003f	8b 4d fc	 mov	 ecx, DWORD PTR _this$[ebp]
  00042	e8 00 00 00 00	 call	 ??0CStatic@@QAE@XZ	; CStatic::CStatic
  00047	8b 45 fc	 mov	 eax, DWORD PTR _this$[ebp]
  0004a	c7 00 00 00 00
	00		 mov	 DWORD PTR [eax], OFFSET FLAT:??_7ETSSplitter@@6B@
  00050	8b 4d fc	 mov	 ecx, DWORD PTR _this$[ebp]
  00053	81 c1 bc 00 00
	00		 add	 ecx, 188		; 000000bcH
  00059	8b f4		 mov	 esi, esp
  0005b	ff 15 00 00 00
	00		 call	 DWORD PTR __imp_??0?$CStringT@DV?$StrTraitMFC_DLL@DV?$ChTraitsCRT@D@ATL@@@@@ATL@@QAE@XZ
  00061	3b f4		 cmp	 esi, esp
  00063	e8 00 00 00 00	 call	 __RTC_CheckEsp

; 46   : 	m_bHorizSplitter = true;

  00068	8b 4d fc	 mov	 ecx, DWORD PTR _this$[ebp]
  0006b	c6 41 54 01	 mov	 BYTE PTR [ecx+84], 1

; 47   : 	m_bMouseButtonDownOnTheBar = false;

  0006f	8b 55 fc	 mov	 edx, DWORD PTR _this$[ebp]
  00072	c6 42 55 00	 mov	 BYTE PTR [edx+85], 0

; 48   : 	m_bSlim = false;

  00076	8b 45 fc	 mov	 eax, DWORD PTR _this$[ebp]
  00079	c6 40 61 00	 mov	 BYTE PTR [eax+97], 0

; 49   : 	bTrackLeave = FALSE;

  0007d	8b 4d fc	 mov	 ecx, DWORD PTR _this$[ebp]
  00080	c7 81 b8 00 00
	00 00 00 00 00	 mov	 DWORD PTR [ecx+184], 0

; 50   : 	m_pane = NULL;

  0008a	8b 55 fc	 mov	 edx, DWORD PTR _this$[ebp]
  0008d	c7 82 b0 00 00
	00 00 00 00 00	 mov	 DWORD PTR [edx+176], 0

; 51   : 	//m_nSplAbsolutePos = 0;
; 52   : }

  00097	8b 45 fc	 mov	 eax, DWORD PTR _this$[ebp]
  0009a	5e		 pop	 esi
  0009b	83 c4 04	 add	 esp, 4
  0009e	3b ec		 cmp	 ebp, esp
  000a0	e8 00 00 00 00	 call	 __RTC_CheckEsp
  000a5	8b e5		 mov	 esp, ebp
  000a7	5d		 pop	 ebp
  000a8	c2 04 00	 ret	 4
??0ETSSplitter@@QAE@PBD@Z ENDP				; ETSSplitter::ETSSplitter
_TEXT	ENDS
PUBLIC	??1ETSSplitter@@UAE@XZ				; ETSSplitter::~ETSSplitter
EXTRN	??3CObject@@SGXPAX@Z:NEAR			; CObject::operator delete
; Function compile flags: /Odt /RTCsu
;	COMDAT ??_GETSSplitter@@UAEPAXI@Z
_TEXT	SEGMENT
_this$ = -4						; size = 4
___flags$ = 8						; size = 4
??_GETSSplitter@@UAEPAXI@Z PROC NEAR			; ETSSplitter::`scalar deleting destructor', COMDAT
; _this$ = ecx
  00000	55		 push	 ebp
  00001	8b ec		 mov	 ebp, esp
  00003	51		 push	 ecx
  00004	c7 45 fc cc cc
	cc cc		 mov	 DWORD PTR [ebp-4], -858993460 ; ccccccccH
  0000b	89 4d fc	 mov	 DWORD PTR _this$[ebp], ecx
  0000e	8b 4d fc	 mov	 ecx, DWORD PTR _this$[ebp]
  00011	e8 00 00 00 00	 call	 ??1ETSSplitter@@UAE@XZ	; ETSSplitter::~ETSSplitter
  00016	8b 45 08	 mov	 eax, DWORD PTR ___flags$[ebp]
  00019	83 e0 01	 and	 eax, 1
  0001c	74 09		 je	 SHORT $L190461
  0001e	8b 4d fc	 mov	 ecx, DWORD PTR _this$[ebp]
  00021	51		 push	 ecx
  00022	e8 00 00 00 00	 call	 ??3CObject@@SGXPAX@Z	; CObject::operator delete
$L190461:
  00027	8b 45 fc	 mov	 eax, DWORD PTR _this$[ebp]
  0002a	83 c4 04	 add	 esp, 4
  0002d	3b ec		 cmp	 ebp, esp
  0002f	e8 00 00 00 00	 call	 __RTC_CheckEsp
  00034	8b e5		 mov	 esp, ebp
  00036	5d		 pop	 ebp
  00037	c2 04 00	 ret	 4
??_GETSSplitter@@UAEPAXI@Z ENDP				; ETSSplitter::`scalar deleting destructor'
_TEXT	ENDS
PUBLIC	?GetThisMessageMap@ETSSplitter@@KGPBUAFX_MSGMAP@@XZ ; ETSSplitter::GetThisMessageMap
; Function compile flags: /Odt /RTCsu
_TEXT	SEGMENT
?GetThisMessageMap@ETSSplitter@@KGPBUAFX_MSGMAP@@XZ PROC NEAR ; ETSSplitter::GetThisMessageMap

; 55   : BEGIN_MESSAGE_MAP(ETSSplitter, CStatic)

  000b0	55		 push	 ebp
  000b1	8b ec		 mov	 ebp, esp
  000b3	b8 00 00 00 00	 mov	 eax, OFFSET FLAT:?messageMap@ETSSplitter@@1UAFX_MSGMAP@@B ; ETSSplitter::messageMap
  000b8	5d		 pop	 ebp
  000b9	c3		 ret	 0
?GetThisMessageMap@ETSSplitter@@KGPBUAFX_MSGMAP@@XZ ENDP ; ETSSplitter::GetThisMessageMap
; Function compile flags: /Odt /RTCsu
_this$ = -4						; size = 4
?GetMessageMap@ETSSplitter@@MBEPBUAFX_MSGMAP@@XZ PROC NEAR ; ETSSplitter::GetMessageMap
; _this$ = ecx

; 55   : BEGIN_MESSAGE_MAP(ETSSplitter, CStatic)

  000c0	55		 push	 ebp
  000c1	8b ec		 mov	 ebp, esp
  000c3	51		 push	 ecx
  000c4	c7 45 fc cc cc
	cc cc		 mov	 DWORD PTR [ebp-4], -858993460 ; ccccccccH
  000cb	89 4d fc	 mov	 DWORD PTR _this$[ebp], ecx
  000ce	b8 00 00 00 00	 mov	 eax, OFFSET FLAT:?messageMap@ETSSplitter@@1UAFX_MSGMAP@@B ; ETSSplitter::messageMap
  000d3	8b e5		 mov	 esp, ebp
  000d5	5d		 pop	 ebp
  000d6	c3		 ret	 0
?GetMessageMap@ETSSplitter@@MBEPBUAFX_MSGMAP@@XZ ENDP	; ETSSplitter::GetMessageMap
_TEXT	ENDS
PUBLIC	?SetSlim@ETSSplitter@@QAEX_N@Z			; ETSSplitter::SetSlim
; Function compile flags: /Odt /RTCsu
_TEXT	SEGMENT
_this$ = -4						; size = 4
_bSlim$ = 8						; size = 1
?SetSlim@ETSSplitter@@QAEX_N@Z PROC NEAR		; ETSSplitter::SetSlim
; _this$ = ecx

; 74   : {

  000e0	55		 push	 ebp
  000e1	8b ec		 mov	 ebp, esp
  000e3	51		 push	 ecx
  000e4	c7 45 fc cc cc
	cc cc		 mov	 DWORD PTR [ebp-4], -858993460 ; ccccccccH
  000eb	89 4d fc	 mov	 DWORD PTR _this$[ebp], ecx

; 75   : 	m_bSlim = bSlim;

  000ee	8b 45 fc	 mov	 eax, DWORD PTR _this$[ebp]
  000f1	8a 4d 08	 mov	 cl, BYTE PTR _bSlim$[ebp]
  000f4	88 48 61	 mov	 BYTE PTR [eax+97], cl

; 76   : }

  000f7	8b e5		 mov	 esp, ebp
  000f9	5d		 pop	 ebp
  000fa	c2 04 00	 ret	 4
?SetSlim@ETSSplitter@@QAEX_N@Z ENDP			; ETSSplitter::SetSlim
_TEXT	ENDS
PUBLIC	?SetBitmap@ETSSplitter@@QAEXPAVCDibBitmap@@000000000@Z ; ETSSplitter::SetBitmap
; Function compile flags: /Odt /RTCsu
_TEXT	SEGMENT
_this$ = -4						; size = 4
_vert$ = 8						; size = 4
_horz$ = 12						; size = 4
_right$ = 16						; size = 4
_left$ = 20						; size = 4
_up$ = 24						; size = 4
_down$ = 28						; size = 4
_right_over$ = 32					; size = 4
_left_over$ = 36					; size = 4
_up_over$ = 40						; size = 4
_down_over$ = 44					; size = 4
?SetBitmap@ETSSplitter@@QAEXPAVCDibBitmap@@000000000@Z PROC NEAR ; ETSSplitter::SetBitmap
; _this$ = ecx

; 103  : {

  00100	55		 push	 ebp
  00101	8b ec		 mov	 ebp, esp
  00103	51		 push	 ecx
  00104	c7 45 fc cc cc
	cc cc		 mov	 DWORD PTR [ebp-4], -858993460 ; ccccccccH
  0010b	89 4d fc	 mov	 DWORD PTR _this$[ebp], ecx

; 104  : 	m_bVert = vert;

  0010e	8b 45 fc	 mov	 eax, DWORD PTR _this$[ebp]
  00111	8b 4d 08	 mov	 ecx, DWORD PTR _vert$[ebp]
  00114	89 88 94 00 00
	00		 mov	 DWORD PTR [eax+148], ecx

; 105  : 	m_bHorz= horz;

  0011a	8b 55 fc	 mov	 edx, DWORD PTR _this$[ebp]
  0011d	8b 45 0c	 mov	 eax, DWORD PTR _horz$[ebp]
  00120	89 82 98 00 00
	00		 mov	 DWORD PTR [edx+152], eax

; 106  : 	m_bBarRight = right;

  00126	8b 4d fc	 mov	 ecx, DWORD PTR _this$[ebp]
  00129	8b 55 10	 mov	 edx, DWORD PTR _right$[ebp]
  0012c	89 91 9c 00 00
	00		 mov	 DWORD PTR [ecx+156], edx

; 107  : 	m_bBarLeft = left;

  00132	8b 45 fc	 mov	 eax, DWORD PTR _this$[ebp]
  00135	8b 4d 14	 mov	 ecx, DWORD PTR _left$[ebp]
  00138	89 88 a0 00 00
	00		 mov	 DWORD PTR [eax+160], ecx

; 108  : 	m_bBarUp = up;

  0013e	8b 55 fc	 mov	 edx, DWORD PTR _this$[ebp]
  00141	8b 45 18	 mov	 eax, DWORD PTR _up$[ebp]
  00144	89 82 a4 00 00
	00		 mov	 DWORD PTR [edx+164], eax

; 109  : 	m_bBarDown = down;

  0014a	8b 4d fc	 mov	 ecx, DWORD PTR _this$[ebp]
  0014d	8b 55 1c	 mov	 edx, DWORD PTR _down$[ebp]
  00150	89 91 a8 00 00
	00		 mov	 DWORD PTR [ecx+168], edx

; 110  : 
; 111  : 	m_bSpliterBarDown = down;

  00156	8b 45 fc	 mov	 eax, DWORD PTR _this$[ebp]
  00159	8b 4d 1c	 mov	 ecx, DWORD PTR _down$[ebp]
  0015c	89 48 78	 mov	 DWORD PTR [eax+120], ecx

; 112  : 	m_bSpliterBarUp = up;

  0015f	8b 55 fc	 mov	 edx, DWORD PTR _this$[ebp]
  00162	8b 45 18	 mov	 eax, DWORD PTR _up$[ebp]
  00165	89 42 74	 mov	 DWORD PTR [edx+116], eax

; 113  : 	m_bSpliterBarRight = right;

  00168	8b 4d fc	 mov	 ecx, DWORD PTR _this$[ebp]
  0016b	8b 55 10	 mov	 edx, DWORD PTR _right$[ebp]
  0016e	89 51 6c	 mov	 DWORD PTR [ecx+108], edx

; 114  : 	m_bSpliterBarLeft = left;

  00171	8b 45 fc	 mov	 eax, DWORD PTR _this$[ebp]
  00174	8b 4d 14	 mov	 ecx, DWORD PTR _left$[ebp]
  00177	89 48 70	 mov	 DWORD PTR [eax+112], ecx

; 115  : 
; 116  : 	m_bSpliterBarDownOver = down_over;

  0017a	8b 55 fc	 mov	 edx, DWORD PTR _this$[ebp]
  0017d	8b 45 2c	 mov	 eax, DWORD PTR _down_over$[ebp]
  00180	89 82 90 00 00
	00		 mov	 DWORD PTR [edx+144], eax

; 117  : 	m_bSpliterBarUpOver = up_over;

  00186	8b 4d fc	 mov	 ecx, DWORD PTR _this$[ebp]
  00189	8b 55 28	 mov	 edx, DWORD PTR _up_over$[ebp]
  0018c	89 91 8c 00 00
	00		 mov	 DWORD PTR [ecx+140], edx

; 118  : 	m_bSpliterBarRightOver = right_over;

  00192	8b 45 fc	 mov	 eax, DWORD PTR _this$[ebp]
  00195	8b 4d 20	 mov	 ecx, DWORD PTR _right_over$[ebp]
  00198	89 88 84 00 00
	00		 mov	 DWORD PTR [eax+132], ecx

; 119  : 	m_bSpliterBarLeftOver = left_over;

  0019e	8b 55 fc	 mov	 edx, DWORD PTR _this$[ebp]
  001a1	8b 45 24	 mov	 eax, DWORD PTR _left_over$[ebp]
  001a4	89 82 88 00 00
	00		 mov	 DWORD PTR [edx+136], eax

; 120  : }

  001aa	8b e5		 mov	 esp, ebp
  001ac	5d		 pop	 ebp
  001ad	c2 28 00	 ret	 40			; 00000028H
?SetBitmap@ETSSplitter@@QAEXPAVCDibBitmap@@000000000@Z ENDP ; ETSSplitter::SetBitmap
_TEXT	ENDS
EXTRN	?OnEraseBkgnd@CWnd@@IAEHPAVCDC@@@Z:NEAR		; CWnd::OnEraseBkgnd
; Function compile flags: /Odt /RTCsu
_TEXT	SEGMENT
_this$ = -4						; size = 4
_pDC$ = 8						; size = 4
?OnEraseBkgnd@ETSSplitter@@IAEHPAVCDC@@@Z PROC NEAR	; ETSSplitter::OnEraseBkgnd
; _this$ = ecx

; 148  : {

  001b0	55		 push	 ebp
  001b1	8b ec		 mov	 ebp, esp
  001b3	51		 push	 ecx
  001b4	c7 45 fc cc cc
	cc cc		 mov	 DWORD PTR [ebp-4], -858993460 ; ccccccccH
  001bb	89 4d fc	 mov	 DWORD PTR _this$[ebp], ecx

; 149  : 	CWnd::OnEraseBkgnd(pDC);

  001be	8b 45 08	 mov	 eax, DWORD PTR _pDC$[ebp]
  001c1	50		 push	 eax
  001c2	8b 4d fc	 mov	 ecx, DWORD PTR _this$[ebp]
  001c5	e8 00 00 00 00	 call	 ?OnEraseBkgnd@CWnd@@IAEHPAVCDC@@@Z ; CWnd::OnEraseBkgnd

; 150  : 	return true;

  001ca	b8 01 00 00 00	 mov	 eax, 1

; 151  : }

  001cf	83 c4 04	 add	 esp, 4
  001d2	3b ec		 cmp	 ebp, esp
  001d4	e8 00 00 00 00	 call	 __RTC_CheckEsp
  001d9	8b e5		 mov	 esp, ebp
  001db	5d		 pop	 ebp
  001dc	c2 04 00	 ret	 4
?OnEraseBkgnd@ETSSplitter@@IAEHPAVCDC@@@Z ENDP		; ETSSplitter::OnEraseBkgnd
_TEXT	ENDS
PUBLIC	?GetSplSize@ETSSplitter@@QAEHXZ			; ETSSplitter::GetSplSize
EXTRN	?GetDimensions@CDib@@QAE?AVCSize@@XZ:NEAR	; CDib::GetDimensions
EXTRN	??0CSize@@QAE@XZ:NEAR				; CSize::CSize
; Function compile flags: /Odt /RTCsu
_TEXT	SEGMENT
$T192775 = -40						; size = 8
$T192774 = -32						; size = 8
_size$ = -20						; size = 8
_nSize$ = -8						; size = 4
_this$ = -4						; size = 4
?GetSplSize@ETSSplitter@@QAEHXZ PROC NEAR		; ETSSplitter::GetSplSize
; _this$ = ecx

; 154  : {

  001e0	55		 push	 ebp
  001e1	8b ec		 mov	 ebp, esp
  001e3	83 ec 28	 sub	 esp, 40			; 00000028H
  001e6	57		 push	 edi
  001e7	51		 push	 ecx
  001e8	8d 7d d8	 lea	 edi, DWORD PTR [ebp-40]
  001eb	b9 0a 00 00 00	 mov	 ecx, 10			; 0000000aH
  001f0	b8 cc cc cc cc	 mov	 eax, -858993460		; ccccccccH
  001f5	f3 ab		 rep stosd
  001f7	59		 pop	 ecx
  001f8	89 4d fc	 mov	 DWORD PTR _this$[ebp], ecx

; 155  : 	int nSize = 0;

  001fb	c7 45 f8 00 00
	00 00		 mov	 DWORD PTR _nSize$[ebp], 0

; 156  : 	//CSize size = m_bVert->GetDimensions();
; 157  : 
; 158  : 	CSize size;

  00202	8d 4d ec	 lea	 ecx, DWORD PTR _size$[ebp]
  00205	e8 00 00 00 00	 call	 ??0CSize@@QAE@XZ	; CSize::CSize

; 159  : 	if(!m_bHorizSplitter)

  0020a	8b 45 fc	 mov	 eax, DWORD PTR _this$[ebp]
  0020d	0f b6 48 54	 movzx	 ecx, BYTE PTR [eax+84]
  00211	85 c9		 test	 ecx, ecx
  00213	75 25		 jne	 SHORT $L190544

; 160  : 	{
; 161  : 		size = m_bVert->GetDimensions();

  00215	8d 55 e0	 lea	 edx, DWORD PTR $T192774[ebp]
  00218	52		 push	 edx
  00219	8b 45 fc	 mov	 eax, DWORD PTR _this$[ebp]
  0021c	8b 88 94 00 00
	00		 mov	 ecx, DWORD PTR [eax+148]
  00222	e8 00 00 00 00	 call	 ?GetDimensions@CDib@@QAE?AVCSize@@XZ ; CDib::GetDimensions
  00227	8b 08		 mov	 ecx, DWORD PTR [eax]
  00229	8b 50 04	 mov	 edx, DWORD PTR [eax+4]
  0022c	89 4d ec	 mov	 DWORD PTR _size$[ebp], ecx
  0022f	89 55 f0	 mov	 DWORD PTR _size$[ebp+4], edx

; 162  : 		nSize = size.cx;

  00232	8b 45 ec	 mov	 eax, DWORD PTR _size$[ebp]
  00235	89 45 f8	 mov	 DWORD PTR _nSize$[ebp], eax

; 163  : 	}
; 164  : 	else

  00238	eb 23		 jmp	 SHORT $L190546
$L190544:

; 165  : 	{
; 166  : 		size = m_bHorz->GetDimensions();

  0023a	8d 4d d8	 lea	 ecx, DWORD PTR $T192775[ebp]
  0023d	51		 push	 ecx
  0023e	8b 55 fc	 mov	 edx, DWORD PTR _this$[ebp]
  00241	8b 8a 98 00 00
	00		 mov	 ecx, DWORD PTR [edx+152]
  00247	e8 00 00 00 00	 call	 ?GetDimensions@CDib@@QAE?AVCSize@@XZ ; CDib::GetDimensions
  0024c	8b 08		 mov	 ecx, DWORD PTR [eax]
  0024e	8b 50 04	 mov	 edx, DWORD PTR [eax+4]
  00251	89 4d ec	 mov	 DWORD PTR _size$[ebp], ecx
  00254	89 55 f0	 mov	 DWORD PTR _size$[ebp+4], edx

; 167  : 		nSize = size.cy;

  00257	8b 45 f0	 mov	 eax, DWORD PTR _size$[ebp+4]
  0025a	89 45 f8	 mov	 DWORD PTR _nSize$[ebp], eax
$L190546:

; 168  : 	}
; 169  : 
; 170  : 	return nSize;

  0025d	8b 45 f8	 mov	 eax, DWORD PTR _nSize$[ebp]

; 171  : }

  00260	52		 push	 edx
  00261	8b cd		 mov	 ecx, ebp
  00263	50		 push	 eax
  00264	8d 15 00 00 00
	00		 lea	 edx, DWORD PTR $L192778
  0026a	e8 00 00 00 00	 call	 @_RTC_CheckStackVars@8
  0026f	58		 pop	 eax
  00270	5a		 pop	 edx
  00271	5f		 pop	 edi
  00272	83 c4 28	 add	 esp, 40			; 00000028H
  00275	3b ec		 cmp	 ebp, esp
  00277	e8 00 00 00 00	 call	 __RTC_CheckEsp
  0027c	8b e5		 mov	 esp, ebp
  0027e	5d		 pop	 ebp
  0027f	c3		 ret	 0
$L192778:
  00280	01 00 00 00	 DD	 1
  00284	00 00 00 00	 DD	 $L192777
$L192777:
  00288	ec ff ff ff	 DD	 -20			; ffffffecH
  0028c	08 00 00 00	 DD	 8
  00290	00 00 00 00	 DD	 $L192776
$L192776:
  00294	73		 DB	 115			; 00000073H
  00295	69		 DB	 105			; 00000069H
  00296	7a		 DB	 122			; 0000007aH
  00297	65		 DB	 101			; 00000065H
  00298	00		 DB	 0
?GetSplSize@ETSSplitter@@QAEHXZ ENDP			; ETSSplitter::GetSplSize
_TEXT	ENDS
EXTRN	?IsClosed@PaneSplitter@ETSLayoutMgr@@QAEHXZ:NEAR ; ETSLayoutMgr::PaneSplitter::IsClosed
EXTRN	__except_list:DWORD
EXTRN	___CxxFrameHandler:NEAR
EXTRN	??0CPaintDC@@QAE@PAVCWnd@@@Z:NEAR		; CPaintDC::CPaintDC
EXTRN	??1CPaintDC@@UAE@XZ:NEAR			; CPaintDC::~CPaintDC
EXTRN	??0CRect@@QAE@XZ:NEAR				; CRect::CRect
EXTRN	??0CRect@@QAE@HHHH@Z:NEAR			; CRect::CRect
EXTRN	?CenterPoint@CRect@@QBE?AVCPoint@@XZ:NEAR	; CRect::CenterPoint
EXTRN	?Draw@CDibBitmap@@QAEHPAVCDC@@HKH@Z:NEAR	; CDibBitmap::Draw
EXTRN	??BCRect@@QAEPAUtagRECT@@XZ:NEAR		; CRect::operator tagRECT *
EXTRN	?SetCDibRect@CDibBitmap@@QAEXVCRect@@@Z:NEAR	; CDibBitmap::SetCDibRect
EXTRN	?GetWidth@CDibBitmap@@QAEHXZ:NEAR		; CDibBitmap::GetWidth
EXTRN	?GetHeight@CDibBitmap@@QAEHXZ:NEAR		; CDibBitmap::GetHeight
EXTRN	?GetClientRect@CWnd@@QBEXPAUtagRECT@@@Z:NEAR	; CWnd::GetClientRect
xdata$x	SEGMENT
$T192798 DD	0ffffffffH
	DD	FLAT:$L192781
$T192785 DD	019930520H
	DD	01H
	DD	FLAT:$T192798
	DD	2 DUP(00H)
	DD	2 DUP(00H)
; Function compile flags: /Odt /RTCsu
xdata$x	ENDS
_TEXT	SEGMENT
_r$190570 = -212					; size = 16
_w$190569 = -192					; size = 4
_r$190564 = -184					; size = 16
_w$190563 = -164					; size = 4
_h$190562 = -160					; size = 4
_bSplOri$ = -153					; size = 1
_p$ = -148						; size = 8
_rect$ = -132						; size = 16
_dc$ = -108						; size = 84
_this$ = -20						; size = 4
__$ArrayPad$ = -16					; size = 4
__$EHRec$ = -12						; size = 12
__$ReturnAddr$ = 4					; size = 4
?OnPaint@ETSSplitter@@IAEXXZ PROC NEAR			; ETSSplitter::OnPaint
; _this$ = ecx

; 173  : {

  002a0	55		 push	 ebp
  002a1	8b ec		 mov	 ebp, esp
  002a3	6a ff		 push	 -1
  002a5	68 00 00 00 00	 push	 __ehhandler$?OnPaint@ETSSplitter@@IAEXXZ
  002aa	64 a1 00 00 00
	00		 mov	 eax, DWORD PTR fs:__except_list
  002b0	50		 push	 eax
  002b1	64 89 25 00 00
	00 00		 mov	 DWORD PTR fs:__except_list, esp
  002b8	81 ec cc 00 00
	00		 sub	 esp, 204		; 000000ccH
  002be	57		 push	 edi
  002bf	51		 push	 ecx
  002c0	8d bd 28 ff ff
	ff		 lea	 edi, DWORD PTR [ebp-216]
  002c6	b9 33 00 00 00	 mov	 ecx, 51			; 00000033H
  002cb	b8 cc cc cc cc	 mov	 eax, -858993460		; ccccccccH
  002d0	f3 ab		 rep stosd
  002d2	59		 pop	 ecx
  002d3	a1 00 00 00 00	 mov	 eax, DWORD PTR ___security_cookie
  002d8	89 45 f0	 mov	 DWORD PTR __$ArrayPad$[ebp], eax
  002db	89 4d ec	 mov	 DWORD PTR _this$[ebp], ecx

; 174  : 	
; 175  : 	CPaintDC dc(this); 

  002de	8b 45 ec	 mov	 eax, DWORD PTR _this$[ebp]
  002e1	50		 push	 eax
  002e2	8d 4d 94	 lea	 ecx, DWORD PTR _dc$[ebp]
  002e5	e8 00 00 00 00	 call	 ??0CPaintDC@@QAE@PAVCWnd@@@Z ; CPaintDC::CPaintDC
  002ea	c7 45 fc 00 00
	00 00		 mov	 DWORD PTR __$EHRec$[ebp+8], 0

; 176  : 
; 177  : 	CRect rect;

  002f1	8d 8d 7c ff ff
	ff		 lea	 ecx, DWORD PTR _rect$[ebp]
  002f7	e8 00 00 00 00	 call	 ??0CRect@@QAE@XZ	; CRect::CRect

; 178  : 	GetClientRect(rect);	

  002fc	8d 8d 7c ff ff
	ff		 lea	 ecx, DWORD PTR _rect$[ebp]
  00302	e8 00 00 00 00	 call	 ??BCRect@@QAEPAUtagRECT@@XZ ; CRect::operator tagRECT *
  00307	50		 push	 eax
  00308	8b 4d ec	 mov	 ecx, DWORD PTR _this$[ebp]
  0030b	e8 00 00 00 00	 call	 ?GetClientRect@CWnd@@QBEXPAUtagRECT@@@Z ; CWnd::GetClientRect

; 179  : 	CPoint p = rect.CenterPoint();

  00310	8d 8d 6c ff ff
	ff		 lea	 ecx, DWORD PTR _p$[ebp]
  00316	51		 push	 ecx
  00317	8d 8d 7c ff ff
	ff		 lea	 ecx, DWORD PTR _rect$[ebp]
  0031d	e8 00 00 00 00	 call	 ?CenterPoint@CRect@@QBE?AVCPoint@@XZ ; CRect::CenterPoint

; 180  : 	bool bSplOri = 0;

  00322	c6 85 67 ff ff
	ff 00		 mov	 BYTE PTR _bSplOri$[ebp], 0

; 181  : 
; 182  : 	if( (!m_pane->IsClosed() && m_pane->m_nClosedOri == 0)
; 183  : 		||(m_pane->IsClosed() && m_pane->m_nClosedOri == 1))

  00329	8b 55 ec	 mov	 edx, DWORD PTR _this$[ebp]
  0032c	8b 8a b0 00 00
	00		 mov	 ecx, DWORD PTR [edx+176]
  00332	e8 00 00 00 00	 call	 ?IsClosed@PaneSplitter@ETSLayoutMgr@@QAEHXZ ; ETSLayoutMgr::PaneSplitter::IsClosed
  00337	85 c0		 test	 eax, eax
  00339	75 12		 jne	 SHORT $L190558
  0033b	8b 45 ec	 mov	 eax, DWORD PTR _this$[ebp]
  0033e	8b 88 b0 00 00
	00		 mov	 ecx, DWORD PTR [eax+176]
  00344	83 b9 84 00 00
	00 00		 cmp	 DWORD PTR [ecx+132], 0
  0034b	74 24		 je	 SHORT $L190557
$L190558:
  0034d	8b 55 ec	 mov	 edx, DWORD PTR _this$[ebp]
  00350	8b 8a b0 00 00
	00		 mov	 ecx, DWORD PTR [edx+176]
  00356	e8 00 00 00 00	 call	 ?IsClosed@PaneSplitter@ETSLayoutMgr@@QAEHXZ ; ETSLayoutMgr::PaneSplitter::IsClosed
  0035b	85 c0		 test	 eax, eax
  0035d	74 1b		 je	 SHORT $L190556
  0035f	8b 45 ec	 mov	 eax, DWORD PTR _this$[ebp]
  00362	8b 88 b0 00 00
	00		 mov	 ecx, DWORD PTR [eax+176]
  00368	83 b9 84 00 00
	00 01		 cmp	 DWORD PTR [ecx+132], 1
  0036f	75 09		 jne	 SHORT $L190556
$L190557:

; 184  : 		bSplOri = 0;

  00371	c6 85 67 ff ff
	ff 00		 mov	 BYTE PTR _bSplOri$[ebp], 0

; 185  : 	else

  00378	eb 07		 jmp	 SHORT $L190559
$L190556:

; 186  : 		bSplOri = 1;

  0037a	c6 85 67 ff ff
	ff 01		 mov	 BYTE PTR _bSplOri$[ebp], 1
$L190559:

; 187  : 	//
; 188  : 	if(!m_bHorizSplitter)

  00381	8b 55 ec	 mov	 edx, DWORD PTR _this$[ebp]
  00384	0f b6 42 54	 movzx	 eax, BYTE PTR [edx+84]
  00388	85 c0		 test	 eax, eax
  0038a	0f 85 ab 01 00
	00		 jne	 $L190560

; 189  : 	{
; 190  : 		m_bVert->SetCDibRect(rect);

  00390	83 ec 10	 sub	 esp, 16			; 00000010H
  00393	8b cc		 mov	 ecx, esp
  00395	8b 95 7c ff ff
	ff		 mov	 edx, DWORD PTR _rect$[ebp]
  0039b	89 11		 mov	 DWORD PTR [ecx], edx
  0039d	8b 45 80	 mov	 eax, DWORD PTR _rect$[ebp+4]
  003a0	89 41 04	 mov	 DWORD PTR [ecx+4], eax
  003a3	8b 55 84	 mov	 edx, DWORD PTR _rect$[ebp+8]
  003a6	89 51 08	 mov	 DWORD PTR [ecx+8], edx
  003a9	8b 45 88	 mov	 eax, DWORD PTR _rect$[ebp+12]
  003ac	89 41 0c	 mov	 DWORD PTR [ecx+12], eax
  003af	8b 4d ec	 mov	 ecx, DWORD PTR _this$[ebp]
  003b2	8b 89 94 00 00
	00		 mov	 ecx, DWORD PTR [ecx+148]
  003b8	e8 00 00 00 00	 call	 ?SetCDibRect@CDibBitmap@@QAEXVCRect@@@Z ; CDibBitmap::SetCDibRect

; 191  : 		m_bVert->Draw(&dc, false);

  003bd	6a 01		 push	 1
  003bf	6a 00		 push	 0
  003c1	6a 00		 push	 0
  003c3	8d 55 94	 lea	 edx, DWORD PTR _dc$[ebp]
  003c6	52		 push	 edx
  003c7	8b 45 ec	 mov	 eax, DWORD PTR _this$[ebp]
  003ca	8b 88 94 00 00
	00		 mov	 ecx, DWORD PTR [eax+148]
  003d0	e8 00 00 00 00	 call	 ?Draw@CDibBitmap@@QAEHPAVCDC@@HKH@Z ; CDibBitmap::Draw

; 192  : 
; 193  : 		if(!m_bHideCloseBtn)

  003d5	8b 4d ec	 mov	 ecx, DWORD PTR _this$[ebp]
  003d8	0f b6 51 60	 movzx	 edx, BYTE PTR [ecx+96]
  003dc	85 d2		 test	 edx, edx
  003de	0f 85 52 01 00
	00		 jne	 $L190561

; 194  : 		{
; 195  : 			int h = this->m_bBarLeft->GetHeight();

  003e4	8b 45 ec	 mov	 eax, DWORD PTR _this$[ebp]
  003e7	8b 88 a0 00 00
	00		 mov	 ecx, DWORD PTR [eax+160]
  003ed	e8 00 00 00 00	 call	 ?GetHeight@CDibBitmap@@QAEHXZ ; CDibBitmap::GetHeight
  003f2	89 85 60 ff ff
	ff		 mov	 DWORD PTR _h$190562[ebp], eax

; 196  : 			int w = this->m_bBarLeft->GetWidth();

  003f8	8b 4d ec	 mov	 ecx, DWORD PTR _this$[ebp]
  003fb	8b 89 a0 00 00
	00		 mov	 ecx, DWORD PTR [ecx+160]
  00401	e8 00 00 00 00	 call	 ?GetWidth@CDibBitmap@@QAEHXZ ; CDibBitmap::GetWidth
  00406	89 85 5c ff ff
	ff		 mov	 DWORD PTR _w$190563[ebp], eax

; 197  : 
; 198  : 			CRect r(p.x - w/2, p.y - h/2, p.x + w/2 + w%2 , p.y + h/2 + h%2);

  0040c	8b 85 60 ff ff
	ff		 mov	 eax, DWORD PTR _h$190562[ebp]
  00412	99		 cdq
  00413	2b c2		 sub	 eax, edx
  00415	d1 f8		 sar	 eax, 1
  00417	03 85 70 ff ff
	ff		 add	 eax, DWORD PTR _p$[ebp+4]
  0041d	8b 95 60 ff ff
	ff		 mov	 edx, DWORD PTR _h$190562[ebp]
  00423	81 e2 01 00 00
	80		 and	 edx, -2147483647	; 80000001H
  00429	79 05		 jns	 SHORT $L192796
  0042b	4a		 dec	 edx
  0042c	83 ca fe	 or	 edx, -2			; fffffffeH
  0042f	42		 inc	 edx
$L192796:
  00430	03 c2		 add	 eax, edx
  00432	50		 push	 eax
  00433	8b 85 5c ff ff
	ff		 mov	 eax, DWORD PTR _w$190563[ebp]
  00439	99		 cdq
  0043a	2b c2		 sub	 eax, edx
  0043c	d1 f8		 sar	 eax, 1
  0043e	03 85 6c ff ff
	ff		 add	 eax, DWORD PTR _p$[ebp]
  00444	8b 8d 5c ff ff
	ff		 mov	 ecx, DWORD PTR _w$190563[ebp]
  0044a	81 e1 01 00 00
	80		 and	 ecx, -2147483647	; 80000001H
  00450	79 05		 jns	 SHORT $L192797
  00452	49		 dec	 ecx
  00453	83 c9 fe	 or	 ecx, -2			; fffffffeH
  00456	41		 inc	 ecx
$L192797:
  00457	03 c1		 add	 eax, ecx
  00459	50		 push	 eax
  0045a	8b 85 60 ff ff
	ff		 mov	 eax, DWORD PTR _h$190562[ebp]
  00460	99		 cdq
  00461	2b c2		 sub	 eax, edx
  00463	d1 f8		 sar	 eax, 1
  00465	8b 95 70 ff ff
	ff		 mov	 edx, DWORD PTR _p$[ebp+4]
  0046b	2b d0		 sub	 edx, eax
  0046d	52		 push	 edx
  0046e	8b 85 5c ff ff
	ff		 mov	 eax, DWORD PTR _w$190563[ebp]
  00474	99		 cdq
  00475	2b c2		 sub	 eax, edx
  00477	d1 f8		 sar	 eax, 1
  00479	8b 8d 6c ff ff
	ff		 mov	 ecx, DWORD PTR _p$[ebp]
  0047f	2b c8		 sub	 ecx, eax
  00481	51		 push	 ecx
  00482	8d 8d 48 ff ff
	ff		 lea	 ecx, DWORD PTR _r$190564[ebp]
  00488	e8 00 00 00 00	 call	 ??0CRect@@QAE@HHHH@Z	; CRect::CRect

; 199  : 
; 200  : 			if(bSplOri == 0)

  0048d	0f b6 95 67 ff
	ff ff		 movzx	 edx, BYTE PTR _bSplOri$[ebp]
  00494	85 d2		 test	 edx, edx
  00496	75 50		 jne	 SHORT $L190565

; 201  : 			{
; 202  : 				m_bBarLeft->SetCDibRect(r);

  00498	83 ec 10	 sub	 esp, 16			; 00000010H
  0049b	8b c4		 mov	 eax, esp
  0049d	8b 8d 48 ff ff
	ff		 mov	 ecx, DWORD PTR _r$190564[ebp]
  004a3	89 08		 mov	 DWORD PTR [eax], ecx
  004a5	8b 95 4c ff ff
	ff		 mov	 edx, DWORD PTR _r$190564[ebp+4]
  004ab	89 50 04	 mov	 DWORD PTR [eax+4], edx
  004ae	8b 8d 50 ff ff
	ff		 mov	 ecx, DWORD PTR _r$190564[ebp+8]
  004b4	89 48 08	 mov	 DWORD PTR [eax+8], ecx
  004b7	8b 95 54 ff ff
	ff		 mov	 edx, DWORD PTR _r$190564[ebp+12]
  004bd	89 50 0c	 mov	 DWORD PTR [eax+12], edx
  004c0	8b 45 ec	 mov	 eax, DWORD PTR _this$[ebp]
  004c3	8b 88 a0 00 00
	00		 mov	 ecx, DWORD PTR [eax+160]
  004c9	e8 00 00 00 00	 call	 ?SetCDibRect@CDibBitmap@@QAEXVCRect@@@Z ; CDibBitmap::SetCDibRect

; 203  : 				m_bBarLeft->Draw(&dc, false);

  004ce	6a 01		 push	 1
  004d0	6a 00		 push	 0
  004d2	6a 00		 push	 0
  004d4	8d 4d 94	 lea	 ecx, DWORD PTR _dc$[ebp]
  004d7	51		 push	 ecx
  004d8	8b 55 ec	 mov	 edx, DWORD PTR _this$[ebp]
  004db	8b 8a a0 00 00
	00		 mov	 ecx, DWORD PTR [edx+160]
  004e1	e8 00 00 00 00	 call	 ?Draw@CDibBitmap@@QAEHPAVCDC@@HKH@Z ; CDibBitmap::Draw

; 204  : 			}
; 205  : 			else

  004e6	eb 4e		 jmp	 SHORT $L190561
$L190565:

; 206  : 			{
; 207  : 				m_bBarRight->SetCDibRect(r);

  004e8	83 ec 10	 sub	 esp, 16			; 00000010H
  004eb	8b c4		 mov	 eax, esp
  004ed	8b 8d 48 ff ff
	ff		 mov	 ecx, DWORD PTR _r$190564[ebp]
  004f3	89 08		 mov	 DWORD PTR [eax], ecx
  004f5	8b 95 4c ff ff
	ff		 mov	 edx, DWORD PTR _r$190564[ebp+4]
  004fb	89 50 04	 mov	 DWORD PTR [eax+4], edx
  004fe	8b 8d 50 ff ff
	ff		 mov	 ecx, DWORD PTR _r$190564[ebp+8]
  00504	89 48 08	 mov	 DWORD PTR [eax+8], ecx
  00507	8b 95 54 ff ff
	ff		 mov	 edx, DWORD PTR _r$190564[ebp+12]
  0050d	89 50 0c	 mov	 DWORD PTR [eax+12], edx
  00510	8b 45 ec	 mov	 eax, DWORD PTR _this$[ebp]
  00513	8b 88 9c 00 00
	00		 mov	 ecx, DWORD PTR [eax+156]
  00519	e8 00 00 00 00	 call	 ?SetCDibRect@CDibBitmap@@QAEXVCRect@@@Z ; CDibBitmap::SetCDibRect

; 208  : 				m_bBarRight->Draw(&dc, false);

  0051e	6a 01		 push	 1
  00520	6a 00		 push	 0
  00522	6a 00		 push	 0
  00524	8d 4d 94	 lea	 ecx, DWORD PTR _dc$[ebp]
  00527	51		 push	 ecx
  00528	8b 55 ec	 mov	 edx, DWORD PTR _this$[ebp]
  0052b	8b 8a 9c 00 00
	00		 mov	 ecx, DWORD PTR [edx+156]
  00531	e8 00 00 00 00	 call	 ?Draw@CDibBitmap@@QAEHPAVCDC@@HKH@Z ; CDibBitmap::Draw
$L190561:

; 209  : 			}
; 210  : 		}
; 211  : 	}
; 212  : 	else

  00536	e9 4e 01 00 00	 jmp	 $L190567
$L190560:

; 213  : 	{
; 214  : 		m_bHorz->SetCDibRect(rect);

  0053b	83 ec 10	 sub	 esp, 16			; 00000010H
  0053e	8b c4		 mov	 eax, esp
  00540	8b 8d 7c ff ff
	ff		 mov	 ecx, DWORD PTR _rect$[ebp]
  00546	89 08		 mov	 DWORD PTR [eax], ecx
  00548	8b 55 80	 mov	 edx, DWORD PTR _rect$[ebp+4]
  0054b	89 50 04	 mov	 DWORD PTR [eax+4], edx
  0054e	8b 4d 84	 mov	 ecx, DWORD PTR _rect$[ebp+8]
  00551	89 48 08	 mov	 DWORD PTR [eax+8], ecx
  00554	8b 55 88	 mov	 edx, DWORD PTR _rect$[ebp+12]
  00557	89 50 0c	 mov	 DWORD PTR [eax+12], edx
  0055a	8b 45 ec	 mov	 eax, DWORD PTR _this$[ebp]
  0055d	8b 88 98 00 00
	00		 mov	 ecx, DWORD PTR [eax+152]
  00563	e8 00 00 00 00	 call	 ?SetCDibRect@CDibBitmap@@QAEXVCRect@@@Z ; CDibBitmap::SetCDibRect

; 215  : 		m_bHorz->Draw(&dc, false);

  00568	6a 01		 push	 1
  0056a	6a 00		 push	 0
  0056c	6a 00		 push	 0
  0056e	8d 4d 94	 lea	 ecx, DWORD PTR _dc$[ebp]
  00571	51		 push	 ecx
  00572	8b 55 ec	 mov	 edx, DWORD PTR _this$[ebp]
  00575	8b 8a 98 00 00
	00		 mov	 ecx, DWORD PTR [edx+152]
  0057b	e8 00 00 00 00	 call	 ?Draw@CDibBitmap@@QAEHPAVCDC@@HKH@Z ; CDibBitmap::Draw

; 216  : 
; 217  : 		if(!m_bHideCloseBtn)

  00580	8b 45 ec	 mov	 eax, DWORD PTR _this$[ebp]
  00583	0f b6 48 60	 movzx	 ecx, BYTE PTR [eax+96]
  00587	85 c9		 test	 ecx, ecx
  00589	0f 85 fa 00 00
	00		 jne	 $L190567

; 218  : 		{
; 219  : 			int w = m_bBarDown->GetWidth();

  0058f	8b 55 ec	 mov	 edx, DWORD PTR _this$[ebp]
  00592	8b 8a a8 00 00
	00		 mov	 ecx, DWORD PTR [edx+168]
  00598	e8 00 00 00 00	 call	 ?GetWidth@CDibBitmap@@QAEHXZ ; CDibBitmap::GetWidth
  0059d	89 85 40 ff ff
	ff		 mov	 DWORD PTR _w$190569[ebp], eax

; 220  : 			CRect r(p.x - w/2, rect.top, p.x + w/2 + 1, rect.bottom);

  005a3	8b 45 88	 mov	 eax, DWORD PTR _rect$[ebp+12]
  005a6	50		 push	 eax
  005a7	8b 85 40 ff ff
	ff		 mov	 eax, DWORD PTR _w$190569[ebp]
  005ad	99		 cdq
  005ae	2b c2		 sub	 eax, edx
  005b0	d1 f8		 sar	 eax, 1
  005b2	8b 8d 6c ff ff
	ff		 mov	 ecx, DWORD PTR _p$[ebp]
  005b8	8d 54 01 01	 lea	 edx, DWORD PTR [ecx+eax+1]
  005bc	52		 push	 edx
  005bd	8b 45 80	 mov	 eax, DWORD PTR _rect$[ebp+4]
  005c0	50		 push	 eax
  005c1	8b 85 40 ff ff
	ff		 mov	 eax, DWORD PTR _w$190569[ebp]
  005c7	99		 cdq
  005c8	2b c2		 sub	 eax, edx
  005ca	d1 f8		 sar	 eax, 1
  005cc	8b 8d 6c ff ff
	ff		 mov	 ecx, DWORD PTR _p$[ebp]
  005d2	2b c8		 sub	 ecx, eax
  005d4	51		 push	 ecx
  005d5	8d 8d 2c ff ff
	ff		 lea	 ecx, DWORD PTR _r$190570[ebp]
  005db	e8 00 00 00 00	 call	 ??0CRect@@QAE@HHHH@Z	; CRect::CRect

; 221  : 
; 222  : 			if(bSplOri == 0)

  005e0	0f b6 95 67 ff
	ff ff		 movzx	 edx, BYTE PTR _bSplOri$[ebp]
  005e7	85 d2		 test	 edx, edx
  005e9	75 50		 jne	 SHORT $L190571

; 223  : 			{
; 224  : 				m_bBarUp->SetCDibRect(r);

  005eb	83 ec 10	 sub	 esp, 16			; 00000010H
  005ee	8b c4		 mov	 eax, esp
  005f0	8b 8d 2c ff ff
	ff		 mov	 ecx, DWORD PTR _r$190570[ebp]
  005f6	89 08		 mov	 DWORD PTR [eax], ecx
  005f8	8b 95 30 ff ff
	ff		 mov	 edx, DWORD PTR _r$190570[ebp+4]
  005fe	89 50 04	 mov	 DWORD PTR [eax+4], edx
  00601	8b 8d 34 ff ff
	ff		 mov	 ecx, DWORD PTR _r$190570[ebp+8]
  00607	89 48 08	 mov	 DWORD PTR [eax+8], ecx
  0060a	8b 95 38 ff ff
	ff		 mov	 edx, DWORD PTR _r$190570[ebp+12]
  00610	89 50 0c	 mov	 DWORD PTR [eax+12], edx
  00613	8b 45 ec	 mov	 eax, DWORD PTR _this$[ebp]
  00616	8b 88 a4 00 00
	00		 mov	 ecx, DWORD PTR [eax+164]
  0061c	e8 00 00 00 00	 call	 ?SetCDibRect@CDibBitmap@@QAEXVCRect@@@Z ; CDibBitmap::SetCDibRect

; 225  : 				m_bBarUp->Draw(&dc, false);

  00621	6a 01		 push	 1
  00623	6a 00		 push	 0
  00625	6a 00		 push	 0
  00627	8d 4d 94	 lea	 ecx, DWORD PTR _dc$[ebp]
  0062a	51		 push	 ecx
  0062b	8b 55 ec	 mov	 edx, DWORD PTR _this$[ebp]
  0062e	8b 8a a4 00 00
	00		 mov	 ecx, DWORD PTR [edx+164]
  00634	e8 00 00 00 00	 call	 ?Draw@CDibBitmap@@QAEHPAVCDC@@HKH@Z ; CDibBitmap::Draw

; 226  : 			}
; 227  : 			else

  00639	eb 4e		 jmp	 SHORT $L190567
$L190571:

; 228  : 			{
; 229  : 				m_bBarDown->SetCDibRect(r);

  0063b	83 ec 10	 sub	 esp, 16			; 00000010H
  0063e	8b c4		 mov	 eax, esp
  00640	8b 8d 2c ff ff
	ff		 mov	 ecx, DWORD PTR _r$190570[ebp]
  00646	89 08		 mov	 DWORD PTR [eax], ecx
  00648	8b 95 30 ff ff
	ff		 mov	 edx, DWORD PTR _r$190570[ebp+4]
  0064e	89 50 04	 mov	 DWORD PTR [eax+4], edx
  00651	8b 8d 34 ff ff
	ff		 mov	 ecx, DWORD PTR _r$190570[ebp+8]
  00657	89 48 08	 mov	 DWORD PTR [eax+8], ecx
  0065a	8b 95 38 ff ff
	ff		 mov	 edx, DWORD PTR _r$190570[ebp+12]
  00660	89 50 0c	 mov	 DWORD PTR [eax+12], edx
  00663	8b 45 ec	 mov	 eax, DWORD PTR _this$[ebp]
  00666	8b 88 a8 00 00
	00		 mov	 ecx, DWORD PTR [eax+168]
  0066c	e8 00 00 00 00	 call	 ?SetCDibRect@CDibBitmap@@QAEXVCRect@@@Z ; CDibBitmap::SetCDibRect

; 230  : 				m_bBarDown->Draw(&dc, false);

  00671	6a 01		 push	 1
  00673	6a 00		 push	 0
  00675	6a 00		 push	 0
  00677	8d 4d 94	 lea	 ecx, DWORD PTR _dc$[ebp]
  0067a	51		 push	 ecx
  0067b	8b 55 ec	 mov	 edx, DWORD PTR _this$[ebp]
  0067e	8b 8a a8 00 00
	00		 mov	 ecx, DWORD PTR [edx+168]
  00684	e8 00 00 00 00	 call	 ?Draw@CDibBitmap@@QAEHPAVCDC@@HKH@Z ; CDibBitmap::Draw
$L190567:

; 231  : 			}
; 232  : 		}
; 233  : 	}
; 234  : }

  00689	c7 45 fc ff ff
	ff ff		 mov	 DWORD PTR __$EHRec$[ebp+8], -1
  00690	8d 4d 94	 lea	 ecx, DWORD PTR _dc$[ebp]
  00693	e8 00 00 00 00	 call	 ??1CPaintDC@@UAE@XZ	; CPaintDC::~CPaintDC
  00698	52		 push	 edx
  00699	8b cd		 mov	 ecx, ebp
  0069b	50		 push	 eax
  0069c	8d 15 00 00 00
	00		 lea	 edx, DWORD PTR $L192795
  006a2	e8 00 00 00 00	 call	 @_RTC_CheckStackVars@8
  006a7	58		 pop	 eax
  006a8	5a		 pop	 edx
  006a9	8b 4d f4	 mov	 ecx, DWORD PTR __$EHRec$[ebp]
  006ac	64 89 0d 00 00
	00 00		 mov	 DWORD PTR fs:__except_list, ecx
  006b3	8b 4d f0	 mov	 ecx, DWORD PTR __$ArrayPad$[ebp]
  006b6	e8 00 00 00 00	 call	 @__security_check_cookie@4
  006bb	5f		 pop	 edi
  006bc	81 c4 d8 00 00
	00		 add	 esp, 216		; 000000d8H
  006c2	3b ec		 cmp	 ebp, esp
  006c4	e8 00 00 00 00	 call	 __RTC_CheckEsp
  006c9	8b e5		 mov	 esp, ebp
  006cb	5d		 pop	 ebp
  006cc	c3		 ret	 0
$L192795:
  006cd	05 00 00 00	 DD	 5
  006d1	00 00 00 00	 DD	 $L192794
$L192794:
  006d5	94 ff ff ff	 DD	 -108			; ffffff94H
  006d9	54 00 00 00	 DD	 84			; 00000054H
  006dd	00 00 00 00	 DD	 $L192786
  006e1	7c ff ff ff	 DD	 -132			; ffffff7cH
  006e5	10 00 00 00	 DD	 16			; 00000010H
  006e9	00 00 00 00	 DD	 $L192787
  006ed	6c ff ff ff	 DD	 -148			; ffffff6cH
  006f1	08 00 00 00	 DD	 8
  006f5	00 00 00 00	 DD	 $L192788
  006f9	48 ff ff ff	 DD	 -184			; ffffff48H
  006fd	10 00 00 00	 DD	 16			; 00000010H
  00701	00 00 00 00	 DD	 $L192789
  00705	2c ff ff ff	 DD	 -212			; ffffff2cH
  00709	10 00 00 00	 DD	 16			; 00000010H
  0070d	00 00 00 00	 DD	 $L192790
$L192790:
  00711	72		 DB	 114			; 00000072H
  00712	00		 DB	 0
$L192789:
  00713	72		 DB	 114			; 00000072H
  00714	00		 DB	 0
$L192788:
  00715	70		 DB	 112			; 00000070H
  00716	00		 DB	 0
$L192787:
  00717	72		 DB	 114			; 00000072H
  00718	65		 DB	 101			; 00000065H
  00719	63		 DB	 99			; 00000063H
  0071a	74		 DB	 116			; 00000074H
  0071b	00		 DB	 0
$L192786:
  0071c	64		 DB	 100			; 00000064H
  0071d	63		 DB	 99			; 00000063H
  0071e	00		 DB	 0
_TEXT	ENDS
text$x	SEGMENT
$L192781:
  00000	8d 4d 94	 lea	 ecx, DWORD PTR _dc$[ebp]
  00003	e9 00 00 00 00	 jmp	 ??1CPaintDC@@UAE@XZ	; CPaintDC::~CPaintDC
__ehhandler$?OnPaint@ETSSplitter@@IAEXXZ:
  00008	b8 00 00 00 00	 mov	 eax, OFFSET FLAT:$T192785
  0000d	e9 00 00 00 00	 jmp	 ___CxxFrameHandler
text$x	ENDS
?OnPaint@ETSSplitter@@IAEXXZ ENDP			; ETSSplitter::OnPaint
EXTRN	__imp_??1?$CStringT@DV?$StrTraitMFC_DLL@DV?$ChTraitsCRT@D@ATL@@@@@ATL@@QAE@XZ:NEAR
EXTRN	??1CStatic@@UAE@XZ:NEAR				; CStatic::~CStatic
; Function compile flags: /Odt /RTCsu
_TEXT	SEGMENT
_this$ = -4						; size = 4
??1ETSSplitter@@UAE@XZ PROC NEAR			; ETSSplitter::~ETSSplitter
; _this$ = ecx

; 238  : {

  00720	55		 push	 ebp
  00721	8b ec		 mov	 ebp, esp
  00723	51		 push	 ecx
  00724	56		 push	 esi
  00725	c7 45 fc cc cc
	cc cc		 mov	 DWORD PTR [ebp-4], -858993460 ; ccccccccH
  0072c	89 4d fc	 mov	 DWORD PTR _this$[ebp], ecx
  0072f	8b 45 fc	 mov	 eax, DWORD PTR _this$[ebp]
  00732	c7 00 00 00 00
	00		 mov	 DWORD PTR [eax], OFFSET FLAT:??_7ETSSplitter@@6B@

; 239  : 	// Cleanup
; 240  : }

  00738	8b 4d fc	 mov	 ecx, DWORD PTR _this$[ebp]
  0073b	81 c1 bc 00 00
	00		 add	 ecx, 188		; 000000bcH
  00741	8b f4		 mov	 esi, esp
  00743	ff 15 00 00 00
	00		 call	 DWORD PTR __imp_??1?$CStringT@DV?$StrTraitMFC_DLL@DV?$ChTraitsCRT@D@ATL@@@@@ATL@@QAE@XZ
  00749	3b f4		 cmp	 esi, esp
  0074b	e8 00 00 00 00	 call	 __RTC_CheckEsp
  00750	8b 4d fc	 mov	 ecx, DWORD PTR _this$[ebp]
  00753	e8 00 00 00 00	 call	 ??1CStatic@@UAE@XZ	; CStatic::~CStatic
  00758	5e		 pop	 esi
  00759	83 c4 04	 add	 esp, 4
  0075c	3b ec		 cmp	 ebp, esp
  0075e	e8 00 00 00 00	 call	 __RTC_CheckEsp
  00763	8b e5		 mov	 esp, ebp
  00765	5d		 pop	 ebp
  00766	c3		 ret	 0
??1ETSSplitter@@UAE@XZ ENDP				; ETSSplitter::~ETSSplitter
_TEXT	ENDS
PUBLIC	?IsMouseInCenterBar@ETSSplitter@@QAEHVCPoint@@@Z ; ETSSplitter::IsMouseInCenterBar
; Function compile flags: /Odt /RTCsu
_TEXT	SEGMENT
_w$190588 = -52						; size = 4
_h$190585 = -48						; size = 4
_p$ = -40						; size = 8
_rc$ = -24						; size = 16
_this$ = -4						; size = 4
_point$ = 8						; size = 8
?IsMouseInCenterBar@ETSSplitter@@QAEHVCPoint@@@Z PROC NEAR ; ETSSplitter::IsMouseInCenterBar
; _this$ = ecx

; 242  : {

  00770	55		 push	 ebp
  00771	8b ec		 mov	 ebp, esp
  00773	83 ec 34	 sub	 esp, 52			; 00000034H
  00776	57		 push	 edi
  00777	51		 push	 ecx
  00778	8d 7d cc	 lea	 edi, DWORD PTR [ebp-52]
  0077b	b9 0d 00 00 00	 mov	 ecx, 13			; 0000000dH
  00780	b8 cc cc cc cc	 mov	 eax, -858993460		; ccccccccH
  00785	f3 ab		 rep stosd
  00787	59		 pop	 ecx
  00788	89 4d fc	 mov	 DWORD PTR _this$[ebp], ecx

; 243  : 	CRect rc;

  0078b	8d 4d e8	 lea	 ecx, DWORD PTR _rc$[ebp]
  0078e	e8 00 00 00 00	 call	 ??0CRect@@QAE@XZ	; CRect::CRect

; 244  : 	this->GetClientRect(&rc);

  00793	8d 45 e8	 lea	 eax, DWORD PTR _rc$[ebp]
  00796	50		 push	 eax
  00797	8b 4d fc	 mov	 ecx, DWORD PTR _this$[ebp]
  0079a	e8 00 00 00 00	 call	 ?GetClientRect@CWnd@@QBEXPAUtagRECT@@@Z ; CWnd::GetClientRect

; 245  : 	CPoint p = rc.CenterPoint();

  0079f	8d 4d d8	 lea	 ecx, DWORD PTR _p$[ebp]
  007a2	51		 push	 ecx
  007a3	8d 4d e8	 lea	 ecx, DWORD PTR _rc$[ebp]
  007a6	e8 00 00 00 00	 call	 ?CenterPoint@CRect@@QBE?AVCPoint@@XZ ; CRect::CenterPoint

; 246  : 
; 247  : 	if(this->m_bHideCloseBtn)

  007ab	8b 55 fc	 mov	 edx, DWORD PTR _this$[ebp]
  007ae	0f b6 42 60	 movzx	 eax, BYTE PTR [edx+96]
  007b2	85 c0		 test	 eax, eax
  007b4	74 07		 je	 SHORT $L190583

; 248  : 		return false;

  007b6	33 c0		 xor	 eax, eax
  007b8	e9 8c 00 00 00	 jmp	 $L190579
$L190583:

; 249  : 
; 250  : 	if(!m_bHorizSplitter)

  007bd	8b 4d fc	 mov	 ecx, DWORD PTR _this$[ebp]
  007c0	0f b6 51 54	 movzx	 edx, BYTE PTR [ecx+84]
  007c4	85 d2		 test	 edx, edx
  007c6	75 3a		 jne	 SHORT $L190584

; 251  : 	{
; 252  : 		int h = this->m_bBarLeft->GetHeight();

  007c8	8b 45 fc	 mov	 eax, DWORD PTR _this$[ebp]
  007cb	8b 88 a0 00 00
	00		 mov	 ecx, DWORD PTR [eax+160]
  007d1	e8 00 00 00 00	 call	 ?GetHeight@CDibBitmap@@QAEHXZ ; CDibBitmap::GetHeight
  007d6	89 45 d0	 mov	 DWORD PTR _h$190585[ebp], eax

; 253  : 		if(p.y - h/2 < point.y && p.y + h/2 > point.y)

  007d9	8b 45 d0	 mov	 eax, DWORD PTR _h$190585[ebp]
  007dc	99		 cdq
  007dd	2b c2		 sub	 eax, edx
  007df	d1 f8		 sar	 eax, 1
  007e1	8b 4d dc	 mov	 ecx, DWORD PTR _p$[ebp+4]
  007e4	2b c8		 sub	 ecx, eax
  007e6	3b 4d 0c	 cmp	 ecx, DWORD PTR _point$[ebp+4]
  007e9	7d 17		 jge	 SHORT $L190584
  007eb	8b 45 d0	 mov	 eax, DWORD PTR _h$190585[ebp]
  007ee	99		 cdq
  007ef	2b c2		 sub	 eax, edx
  007f1	d1 f8		 sar	 eax, 1
  007f3	03 45 dc	 add	 eax, DWORD PTR _p$[ebp+4]
  007f6	3b 45 0c	 cmp	 eax, DWORD PTR _point$[ebp+4]
  007f9	7e 07		 jle	 SHORT $L190584

; 254  : 			return true;

  007fb	b8 01 00 00 00	 mov	 eax, 1
  00800	eb 47		 jmp	 SHORT $L190579
$L190584:

; 255  : 	}
; 256  : 	if(m_bHorizSplitter)

  00802	8b 55 fc	 mov	 edx, DWORD PTR _this$[ebp]
  00805	0f b6 42 54	 movzx	 eax, BYTE PTR [edx+84]
  00809	85 c0		 test	 eax, eax
  0080b	74 3a		 je	 SHORT $L190587

; 257  : 	{
; 258  : 		int w = this->m_bBarDown->GetWidth();

  0080d	8b 4d fc	 mov	 ecx, DWORD PTR _this$[ebp]
  00810	8b 89 a8 00 00
	00		 mov	 ecx, DWORD PTR [ecx+168]
  00816	e8 00 00 00 00	 call	 ?GetWidth@CDibBitmap@@QAEHXZ ; CDibBitmap::GetWidth
  0081b	89 45 cc	 mov	 DWORD PTR _w$190588[ebp], eax

; 259  : 		if(p.x - w/2 < point.x && p.x + w/2 > point.x)

  0081e	8b 45 cc	 mov	 eax, DWORD PTR _w$190588[ebp]
  00821	99		 cdq
  00822	2b c2		 sub	 eax, edx
  00824	d1 f8		 sar	 eax, 1
  00826	8b 55 d8	 mov	 edx, DWORD PTR _p$[ebp]
  00829	2b d0		 sub	 edx, eax
  0082b	3b 55 08	 cmp	 edx, DWORD PTR _point$[ebp]
  0082e	7d 17		 jge	 SHORT $L190587
  00830	8b 45 cc	 mov	 eax, DWORD PTR _w$190588[ebp]
  00833	99		 cdq
  00834	2b c2		 sub	 eax, edx
  00836	d1 f8		 sar	 eax, 1
  00838	03 45 d8	 add	 eax, DWORD PTR _p$[ebp]
  0083b	3b 45 08	 cmp	 eax, DWORD PTR _point$[ebp]
  0083e	7e 07		 jle	 SHORT $L190587

; 260  : 			return true;

  00840	b8 01 00 00 00	 mov	 eax, 1
  00845	eb 02		 jmp	 SHORT $L190579
$L190587:

; 261  : 	}
; 262  : 	return false;

  00847	33 c0		 xor	 eax, eax
$L190579:

; 263  : }

  00849	52		 push	 edx
  0084a	8b cd		 mov	 ecx, ebp
  0084c	50		 push	 eax
  0084d	8d 15 00 00 00
	00		 lea	 edx, DWORD PTR $L192807
  00853	e8 00 00 00 00	 call	 @_RTC_CheckStackVars@8
  00858	58		 pop	 eax
  00859	5a		 pop	 edx
  0085a	5f		 pop	 edi
  0085b	83 c4 34	 add	 esp, 52			; 00000034H
  0085e	3b ec		 cmp	 ebp, esp
  00860	e8 00 00 00 00	 call	 __RTC_CheckEsp
  00865	8b e5		 mov	 esp, ebp
  00867	5d		 pop	 ebp
  00868	c2 08 00	 ret	 8
$L192807:
  0086b	02 00 00 00	 DD	 2
  0086f	00 00 00 00	 DD	 $L192806
$L192806:
  00873	e8 ff ff ff	 DD	 -24			; ffffffe8H
  00877	10 00 00 00	 DD	 16			; 00000010H
  0087b	00 00 00 00	 DD	 $L192804
  0087f	d8 ff ff ff	 DD	 -40			; ffffffd8H
  00883	08 00 00 00	 DD	 8
  00887	00 00 00 00	 DD	 $L192805
$L192805:
  0088b	70		 DB	 112			; 00000070H
  0088c	00		 DB	 0
$L192804:
  0088d	72		 DB	 114			; 00000072H
  0088e	63		 DB	 99			; 00000063H
  0088f	00		 DB	 0
?IsMouseInCenterBar@ETSSplitter@@QAEHVCPoint@@@Z ENDP	; ETSSplitter::IsMouseInCenterBar
_TEXT	ENDS
PUBLIC	?IsClosed@ETSSplitter@@QAE_NXZ			; ETSSplitter::IsClosed
EXTRN	?AfxGetApp@@YGPAVCWinApp@@XZ:NEAR		; AfxGetApp
EXTRN	?OnLButtonDown@CWnd@@IAEXIVCPoint@@@Z:NEAR	; CWnd::OnLButtonDown
EXTRN	?LoadStandardCursor@CWinApp@@QBEPAUHICON__@@PBD@Z:NEAR ; CWinApp::LoadStandardCursor
EXTRN	__imp__SetCursor@4:NEAR
EXTRN	?SetCapture@CWnd@@QAEPAV1@XZ:NEAR		; CWnd::SetCapture
; Function compile flags: /Odt /RTCsu
_TEXT	SEGMENT
_this$ = -4						; size = 4
_nFlags$ = 8						; size = 4
_point$ = 12						; size = 8
?OnLButtonDown@ETSSplitter@@IAEXIVCPoint@@@Z PROC NEAR	; ETSSplitter::OnLButtonDown
; _this$ = ecx

; 266  : {

  00890	55		 push	 ebp
  00891	8b ec		 mov	 ebp, esp
  00893	51		 push	 ecx
  00894	56		 push	 esi
  00895	c7 45 fc cc cc
	cc cc		 mov	 DWORD PTR [ebp-4], -858993460 ; ccccccccH
  0089c	89 4d fc	 mov	 DWORD PTR _this$[ebp], ecx

; 267  : 	if(m_bSlim && this->IsClosed())

  0089f	8b 45 fc	 mov	 eax, DWORD PTR _this$[ebp]
  008a2	0f b6 48 61	 movzx	 ecx, BYTE PTR [eax+97]
  008a6	85 c9		 test	 ecx, ecx
  008a8	74 14		 je	 SHORT $L190595
  008aa	8b 4d fc	 mov	 ecx, DWORD PTR _this$[ebp]
  008ad	e8 00 00 00 00	 call	 ?IsClosed@ETSSplitter@@QAE_NXZ ; ETSSplitter::IsClosed
  008b2	0f b6 d0	 movzx	 edx, al
  008b5	85 d2		 test	 edx, edx
  008b7	74 05		 je	 SHORT $L190595

; 268  : 		return;

  008b9	e9 dc 00 00 00	 jmp	 $L190594
$L190595:

; 269  : 
; 270  : 	if(IsMouseInCenterBar(point))

  008be	8b 45 10	 mov	 eax, DWORD PTR _point$[ebp+4]
  008c1	50		 push	 eax
  008c2	8b 4d 0c	 mov	 ecx, DWORD PTR _point$[ebp]
  008c5	51		 push	 ecx
  008c6	8b 4d fc	 mov	 ecx, DWORD PTR _this$[ebp]
  008c9	e8 00 00 00 00	 call	 ?IsMouseInCenterBar@ETSSplitter@@QAEHVCPoint@@@Z ; ETSSplitter::IsMouseInCenterBar
  008ce	85 c0		 test	 eax, eax
  008d0	74 26		 je	 SHORT $L190596

; 271  : 	{
; 272  : 		::SetCursor( AfxGetApp()->LoadStandardCursor ((LPCTSTR)MAKEINTRESOURCE(32649)));

  008d2	68 89 7f 00 00	 push	 32649			; 00007f89H
  008d7	e8 00 00 00 00	 call	 ?AfxGetApp@@YGPAVCWinApp@@XZ ; AfxGetApp
  008dc	8b c8		 mov	 ecx, eax
  008de	e8 00 00 00 00	 call	 ?LoadStandardCursor@CWinApp@@QBEPAUHICON__@@PBD@Z ; CWinApp::LoadStandardCursor
  008e3	8b f4		 mov	 esi, esp
  008e5	50		 push	 eax
  008e6	ff 15 00 00 00
	00		 call	 DWORD PTR __imp__SetCursor@4
  008ec	3b f4		 cmp	 esi, esp
  008ee	e8 00 00 00 00	 call	 __RTC_CheckEsp

; 273  : 		return;

  008f3	e9 a2 00 00 00	 jmp	 $L190594
$L190596:

; 274  : 	}
; 275  : 	if(IsClosed())

  008f8	8b 4d fc	 mov	 ecx, DWORD PTR _this$[ebp]
  008fb	e8 00 00 00 00	 call	 ?IsClosed@ETSSplitter@@QAE_NXZ ; ETSSplitter::IsClosed
  00900	0f b6 d0	 movzx	 edx, al
  00903	85 d2		 test	 edx, edx
  00905	74 05		 je	 SHORT $L190601

; 276  : 	{
; 277  : 	//	m_pane->setOpenConstrain();
; 278  : 	//	if(m_pane->m_nSplOpendPos == 0 && IsClosed())
; 279  : 		return;

  00907	e9 8e 00 00 00	 jmp	 $L190594
$L190601:

; 280  : 	}
; 281  : 	if(!m_bHorizSplitter)

  0090c	8b 45 fc	 mov	 eax, DWORD PTR _this$[ebp]
  0090f	0f b6 48 54	 movzx	 ecx, BYTE PTR [eax+84]
  00913	85 c9		 test	 ecx, ecx
  00915	75 2c		 jne	 SHORT $L190602

; 282  : 	{
; 283  : 		::SetCursor( AfxGetApp()->LoadStandardCursor ((LPCTSTR)IDC_SIZEWE));

  00917	68 84 7f 00 00	 push	 32644			; 00007f84H
  0091c	e8 00 00 00 00	 call	 ?AfxGetApp@@YGPAVCWinApp@@XZ ; AfxGetApp
  00921	8b c8		 mov	 ecx, eax
  00923	e8 00 00 00 00	 call	 ?LoadStandardCursor@CWinApp@@QBEPAUHICON__@@PBD@Z ; CWinApp::LoadStandardCursor
  00928	8b f4		 mov	 esi, esp
  0092a	50		 push	 eax
  0092b	ff 15 00 00 00
	00		 call	 DWORD PTR __imp__SetCursor@4
  00931	3b f4		 cmp	 esi, esp
  00933	e8 00 00 00 00	 call	 __RTC_CheckEsp

; 284  : 		m_nMouseOrgPosition = point.x;

  00938	8b 55 fc	 mov	 edx, DWORD PTR _this$[ebp]
  0093b	8b 45 0c	 mov	 eax, DWORD PTR _point$[ebp]
  0093e	89 42 58	 mov	 DWORD PTR [edx+88], eax

; 285  : 	}
; 286  : 	else

  00941	eb 2a		 jmp	 SHORT $L190607
$L190602:

; 287  : 	{
; 288  : 		::SetCursor( AfxGetApp()->LoadStandardCursor ((LPCTSTR)IDC_SIZENS));

  00943	68 85 7f 00 00	 push	 32645			; 00007f85H
  00948	e8 00 00 00 00	 call	 ?AfxGetApp@@YGPAVCWinApp@@XZ ; AfxGetApp
  0094d	8b c8		 mov	 ecx, eax
  0094f	e8 00 00 00 00	 call	 ?LoadStandardCursor@CWinApp@@QBEPAUHICON__@@PBD@Z ; CWinApp::LoadStandardCursor
  00954	8b f4		 mov	 esi, esp
  00956	50		 push	 eax
  00957	ff 15 00 00 00
	00		 call	 DWORD PTR __imp__SetCursor@4
  0095d	3b f4		 cmp	 esi, esp
  0095f	e8 00 00 00 00	 call	 __RTC_CheckEsp

; 289  : 		m_nMouseOrgPosition = point.y;

  00964	8b 4d fc	 mov	 ecx, DWORD PTR _this$[ebp]
  00967	8b 55 10	 mov	 edx, DWORD PTR _point$[ebp+4]
  0096a	89 51 58	 mov	 DWORD PTR [ecx+88], edx
$L190607:

; 290  : 	}
; 291  : 
; 292  : 	m_nMouseOffset = 0;

  0096d	8b 45 fc	 mov	 eax, DWORD PTR _this$[ebp]
  00970	c7 40 5c 00 00
	00 00		 mov	 DWORD PTR [eax+92], 0

; 293  : 	SetCapture();

  00977	8b 4d fc	 mov	 ecx, DWORD PTR _this$[ebp]
  0097a	e8 00 00 00 00	 call	 ?SetCapture@CWnd@@QAEPAV1@XZ ; CWnd::SetCapture

; 294  : //	::SetCursor( AfxGetApp()->LoadStandardCursor ((LPCTSTR)IDC_SIZEWE));
; 295  : 	m_bMouseButtonDownOnTheBar = true;

  0097f	8b 4d fc	 mov	 ecx, DWORD PTR _this$[ebp]
  00982	c6 41 55 01	 mov	 BYTE PTR [ecx+85], 1

; 296  : 	CStatic::OnLButtonDown(nFlags, point);

  00986	8b 55 10	 mov	 edx, DWORD PTR _point$[ebp+4]
  00989	52		 push	 edx
  0098a	8b 45 0c	 mov	 eax, DWORD PTR _point$[ebp]
  0098d	50		 push	 eax
  0098e	8b 4d 08	 mov	 ecx, DWORD PTR _nFlags$[ebp]
  00991	51		 push	 ecx
  00992	8b 4d fc	 mov	 ecx, DWORD PTR _this$[ebp]
  00995	e8 00 00 00 00	 call	 ?OnLButtonDown@CWnd@@IAEXIVCPoint@@@Z ; CWnd::OnLButtonDown
$L190594:

; 297  : }

  0099a	5e		 pop	 esi
  0099b	83 c4 04	 add	 esp, 4
  0099e	3b ec		 cmp	 ebp, esp
  009a0	e8 00 00 00 00	 call	 __RTC_CheckEsp
  009a5	8b e5		 mov	 esp, ebp
  009a7	5d		 pop	 ebp
  009a8	c2 0c 00	 ret	 12			; 0000000cH
?OnLButtonDown@ETSSplitter@@IAEXIVCPoint@@@Z ENDP	; ETSSplitter::OnLButtonDown
; Function compile flags: /Odt /RTCsu
_this$ = -4						; size = 4
?IsClosed@ETSSplitter@@QAE_NXZ PROC NEAR		; ETSSplitter::IsClosed
; _this$ = ecx

; 300  : {

  009b0	55		 push	 ebp
  009b1	8b ec		 mov	 ebp, esp
  009b3	51		 push	 ecx
  009b4	c7 45 fc cc cc
	cc cc		 mov	 DWORD PTR [ebp-4], -858993460 ; ccccccccH
  009bb	89 4d fc	 mov	 DWORD PTR _this$[ebp], ecx

; 301  : 	if(m_pane == NULL)

  009be	8b 45 fc	 mov	 eax, DWORD PTR _this$[ebp]
  009c1	83 b8 b0 00 00
	00 00		 cmp	 DWORD PTR [eax+176], 0
  009c8	75 04		 jne	 SHORT $L190615

; 302  : 		return true;

  009ca	b0 01		 mov	 al, 1
  009cc	eb 16		 jmp	 SHORT $L190614
$L190615:

; 303  : 	return (m_pane->IsClosed() == TRUE);

  009ce	8b 4d fc	 mov	 ecx, DWORD PTR _this$[ebp]
  009d1	8b 89 b0 00 00
	00		 mov	 ecx, DWORD PTR [ecx+176]
  009d7	e8 00 00 00 00	 call	 ?IsClosed@PaneSplitter@ETSLayoutMgr@@QAEHXZ ; ETSLayoutMgr::PaneSplitter::IsClosed
  009dc	83 e8 01	 sub	 eax, 1
  009df	f7 d8		 neg	 eax
  009e1	1b c0		 sbb	 eax, eax
  009e3	40		 inc	 eax
$L190614:

; 304  : }

  009e4	83 c4 04	 add	 esp, 4
  009e7	3b ec		 cmp	 ebp, esp
  009e9	e8 00 00 00 00	 call	 __RTC_CheckEsp
  009ee	8b e5		 mov	 esp, ebp
  009f0	5d		 pop	 ebp
  009f1	c3		 ret	 0
?IsClosed@ETSSplitter@@QAE_NXZ ENDP			; ETSSplitter::IsClosed
_TEXT	ENDS
EXTRN	?setOpenConstrain@PaneSplitter@ETSLayoutMgr@@QAEXXZ:NEAR ; ETSLayoutMgr::PaneSplitter::setOpenConstrain
EXTRN	?SetTimer@CWnd@@QAEIIIP6GXPAUHWND__@@IIK@Z@Z:NEAR ; CWnd::SetTimer
; Function compile flags: /Odt /RTCsu
_TEXT	SEGMENT
_this$ = -4						; size = 4
?CloseSplitter@ETSSplitter@@UAEXXZ PROC NEAR		; ETSSplitter::CloseSplitter
; _this$ = ecx

; 306  : {

  00a00	55		 push	 ebp
  00a01	8b ec		 mov	 ebp, esp
  00a03	51		 push	 ecx
  00a04	c7 45 fc cc cc
	cc cc		 mov	 DWORD PTR [ebp-4], -858993460 ; ccccccccH
  00a0b	89 4d fc	 mov	 DWORD PTR _this$[ebp], ecx

; 307  : 	if(m_pane == NULL)

  00a0e	8b 45 fc	 mov	 eax, DWORD PTR _this$[ebp]
  00a11	83 b8 b0 00 00
	00 00		 cmp	 DWORD PTR [eax+176], 0
  00a18	75 02		 jne	 SHORT $L190619

; 308  : 		return;

  00a1a	eb 44		 jmp	 SHORT $L190618
$L190619:

; 309  : 	if(!m_pane->IsClosed())

  00a1c	8b 4d fc	 mov	 ecx, DWORD PTR _this$[ebp]
  00a1f	8b 89 b0 00 00
	00		 mov	 ecx, DWORD PTR [ecx+176]
  00a25	e8 00 00 00 00	 call	 ?IsClosed@PaneSplitter@ETSLayoutMgr@@QAEHXZ ; ETSLayoutMgr::PaneSplitter::IsClosed
  00a2a	85 c0		 test	 eax, eax
  00a2c	75 21		 jne	 SHORT $L190620

; 310  : 	{
; 311  : 		m_pane->setOpenConstrain();

  00a2e	8b 55 fc	 mov	 edx, DWORD PTR _this$[ebp]
  00a31	8b 8a b0 00 00
	00		 mov	 ecx, DWORD PTR [edx+176]
  00a37	e8 00 00 00 00	 call	 ?setOpenConstrain@PaneSplitter@ETSLayoutMgr@@QAEXXZ ; ETSLayoutMgr::PaneSplitter::setOpenConstrain

; 312  : 		SetTimer(10010, 20,NULL);

  00a3c	6a 00		 push	 0
  00a3e	6a 14		 push	 20			; 00000014H
  00a40	68 1a 27 00 00	 push	 10010			; 0000271aH
  00a45	8b 4d fc	 mov	 ecx, DWORD PTR _this$[ebp]
  00a48	e8 00 00 00 00	 call	 ?SetTimer@CWnd@@QAEIIIP6GXPAUHWND__@@IIK@Z@Z ; CWnd::SetTimer

; 313  : 	}
; 314  : 	else

  00a4d	eb 11		 jmp	 SHORT $L190618
$L190620:

; 315  : 	{
; 316  : 		SetTimer(10011, 20, NULL);

  00a4f	6a 00		 push	 0
  00a51	6a 14		 push	 20			; 00000014H
  00a53	68 1b 27 00 00	 push	 10011			; 0000271bH
  00a58	8b 4d fc	 mov	 ecx, DWORD PTR _this$[ebp]
  00a5b	e8 00 00 00 00	 call	 ?SetTimer@CWnd@@QAEIIIP6GXPAUHWND__@@IIK@Z@Z ; CWnd::SetTimer
$L190618:

; 317  : 	}
; 318  : 
; 319  : }

  00a60	83 c4 04	 add	 esp, 4
  00a63	3b ec		 cmp	 ebp, esp
  00a65	e8 00 00 00 00	 call	 __RTC_CheckEsp
  00a6a	8b e5		 mov	 esp, ebp
  00a6c	5d		 pop	 ebp
  00a6d	c3		 ret	 0
?CloseSplitter@ETSSplitter@@UAEXXZ ENDP			; ETSSplitter::CloseSplitter
_TEXT	ENDS
EXTRN	?resizeTo@PaneSplitter@ETSLayoutMgr@@QAE_NH_N0@Z:NEAR ; ETSLayoutMgr::PaneSplitter::resizeTo
EXTRN	?OnLButtonUp@CWnd@@IAEXIVCPoint@@@Z:NEAR	; CWnd::OnLButtonUp
EXTRN	__imp__ReleaseCapture@0:NEAR
; Function compile flags: /Odt /RTCsu
_TEXT	SEGMENT
_this$ = -4						; size = 4
_nFlags$ = 8						; size = 4
_point$ = 12						; size = 8
?OnLButtonUp@ETSSplitter@@IAEXIVCPoint@@@Z PROC NEAR	; ETSSplitter::OnLButtonUp
; _this$ = ecx

; 321  : {

  00a70	55		 push	 ebp
  00a71	8b ec		 mov	 ebp, esp
  00a73	51		 push	 ecx
  00a74	56		 push	 esi
  00a75	c7 45 fc cc cc
	cc cc		 mov	 DWORD PTR [ebp-4], -858993460 ; ccccccccH
  00a7c	89 4d fc	 mov	 DWORD PTR _this$[ebp], ecx

; 322  : 
; 323  : 	if(!m_bMouseButtonDownOnTheBar && IsMouseInCenterBar(point))

  00a7f	8b 45 fc	 mov	 eax, DWORD PTR _this$[ebp]
  00a82	0f b6 48 55	 movzx	 ecx, BYTE PTR [eax+85]
  00a86	85 c9		 test	 ecx, ecx
  00a88	75 51		 jne	 SHORT $L190627
  00a8a	8b 55 10	 mov	 edx, DWORD PTR _point$[ebp+4]
  00a8d	52		 push	 edx
  00a8e	8b 45 0c	 mov	 eax, DWORD PTR _point$[ebp]
  00a91	50		 push	 eax
  00a92	8b 4d fc	 mov	 ecx, DWORD PTR _this$[ebp]
  00a95	e8 00 00 00 00	 call	 ?IsMouseInCenterBar@ETSSplitter@@QAEHVCPoint@@@Z ; ETSSplitter::IsMouseInCenterBar
  00a9a	85 c0		 test	 eax, eax
  00a9c	74 3d		 je	 SHORT $L190627

; 324  : 	{
; 325  : 		::SetCursor( AfxGetApp()->LoadStandardCursor ((LPCTSTR)MAKEINTRESOURCE(32649)));

  00a9e	68 89 7f 00 00	 push	 32649			; 00007f89H
  00aa3	e8 00 00 00 00	 call	 ?AfxGetApp@@YGPAVCWinApp@@XZ ; AfxGetApp
  00aa8	8b c8		 mov	 ecx, eax
  00aaa	e8 00 00 00 00	 call	 ?LoadStandardCursor@CWinApp@@QBEPAUHICON__@@PBD@Z ; CWinApp::LoadStandardCursor
  00aaf	8b f4		 mov	 esi, esp
  00ab1	50		 push	 eax
  00ab2	ff 15 00 00 00
	00		 call	 DWORD PTR __imp__SetCursor@4
  00ab8	3b f4		 cmp	 esi, esp
  00aba	e8 00 00 00 00	 call	 __RTC_CheckEsp

; 326  : 		CloseSplitter();

  00abf	8b 4d fc	 mov	 ecx, DWORD PTR _this$[ebp]
  00ac2	8b 11		 mov	 edx, DWORD PTR [ecx]
  00ac4	8b f4		 mov	 esi, esp
  00ac6	8b 4d fc	 mov	 ecx, DWORD PTR _this$[ebp]
  00ac9	ff 92 40 01 00
	00		 call	 DWORD PTR [edx+320]
  00acf	3b f4		 cmp	 esi, esp
  00ad1	e8 00 00 00 00	 call	 __RTC_CheckEsp

; 327  : 		return;

  00ad6	e9 de 00 00 00	 jmp	 $L190626
$L190627:

; 328  : 	}
; 329  : 	m_bMouseButtonDownOnTheBar = false;

  00adb	8b 45 fc	 mov	 eax, DWORD PTR _this$[ebp]
  00ade	c6 40 55 00	 mov	 BYTE PTR [eax+85], 0

; 330  : 	if(IsClosed())

  00ae2	8b 4d fc	 mov	 ecx, DWORD PTR _this$[ebp]
  00ae5	e8 00 00 00 00	 call	 ?IsClosed@ETSSplitter@@QAE_NXZ ; ETSSplitter::IsClosed
  00aea	0f b6 c8	 movzx	 ecx, al
  00aed	85 c9		 test	 ecx, ecx
  00aef	74 05		 je	 SHORT $L190632

; 331  : 	{
; 332  : 	//	m_pane->setOpenConstrain();
; 333  : 	//	if(m_pane->m_nSplOpendPos == 0 && IsClosed())
; 334  : 		return;

  00af1	e9 c3 00 00 00	 jmp	 $L190626
$L190632:

; 335  : 	}
; 336  : 	if(!m_bHorizSplitter)

  00af6	8b 55 fc	 mov	 edx, DWORD PTR _this$[ebp]
  00af9	0f b6 42 54	 movzx	 eax, BYTE PTR [edx+84]
  00afd	85 c0		 test	 eax, eax
  00aff	75 2f		 jne	 SHORT $L190633

; 337  : 	{
; 338  : 		DrawVertBar(m_nMouseOffset);

  00b01	8b f4		 mov	 esi, esp
  00b03	8b 4d fc	 mov	 ecx, DWORD PTR _this$[ebp]
  00b06	8b 51 5c	 mov	 edx, DWORD PTR [ecx+92]
  00b09	52		 push	 edx
  00b0a	8b 45 fc	 mov	 eax, DWORD PTR _this$[ebp]
  00b0d	8b 10		 mov	 edx, DWORD PTR [eax]
  00b0f	8b 4d fc	 mov	 ecx, DWORD PTR _this$[ebp]
  00b12	ff 92 44 01 00
	00		 call	 DWORD PTR [edx+324]
  00b18	3b f4		 cmp	 esi, esp
  00b1a	e8 00 00 00 00	 call	 __RTC_CheckEsp

; 339  : 		m_nMouseOffset = point.x - this->m_nMouseOrgPosition;

  00b1f	8b 45 fc	 mov	 eax, DWORD PTR _this$[ebp]
  00b22	8b 4d 0c	 mov	 ecx, DWORD PTR _point$[ebp]
  00b25	2b 48 58	 sub	 ecx, DWORD PTR [eax+88]
  00b28	8b 55 fc	 mov	 edx, DWORD PTR _this$[ebp]
  00b2b	89 4a 5c	 mov	 DWORD PTR [edx+92], ecx

; 340  : 	}
; 341  : 	else

  00b2e	eb 2d		 jmp	 SHORT $L190634
$L190633:

; 342  : 	{
; 343  : 		DrawHorizBar(m_nMouseOffset);

  00b30	8b f4		 mov	 esi, esp
  00b32	8b 45 fc	 mov	 eax, DWORD PTR _this$[ebp]
  00b35	8b 48 5c	 mov	 ecx, DWORD PTR [eax+92]
  00b38	51		 push	 ecx
  00b39	8b 55 fc	 mov	 edx, DWORD PTR _this$[ebp]
  00b3c	8b 02		 mov	 eax, DWORD PTR [edx]
  00b3e	8b 4d fc	 mov	 ecx, DWORD PTR _this$[ebp]
  00b41	ff 90 48 01 00
	00		 call	 DWORD PTR [eax+328]
  00b47	3b f4		 cmp	 esi, esp
  00b49	e8 00 00 00 00	 call	 __RTC_CheckEsp

; 344  : 		m_nMouseOffset = point.y - this->m_nMouseOrgPosition;

  00b4e	8b 4d fc	 mov	 ecx, DWORD PTR _this$[ebp]
  00b51	8b 55 10	 mov	 edx, DWORD PTR _point$[ebp+4]
  00b54	2b 51 58	 sub	 edx, DWORD PTR [ecx+88]
  00b57	8b 45 fc	 mov	 eax, DWORD PTR _this$[ebp]
  00b5a	89 50 5c	 mov	 DWORD PTR [eax+92], edx
$L190634:

; 345  : 	}
; 346  : 
; 347  : 	if(m_nMouseOffset != 0)

  00b5d	8b 4d fc	 mov	 ecx, DWORD PTR _this$[ebp]
  00b60	83 79 5c 00	 cmp	 DWORD PTR [ecx+92], 0
  00b64	74 17		 je	 SHORT $L190635

; 348  : 		ConstrainOffset();

  00b66	8b 55 fc	 mov	 edx, DWORD PTR _this$[ebp]
  00b69	8b 02		 mov	 eax, DWORD PTR [edx]
  00b6b	8b f4		 mov	 esi, esp
  00b6d	8b 4d fc	 mov	 ecx, DWORD PTR _this$[ebp]
  00b70	ff 90 4c 01 00
	00		 call	 DWORD PTR [eax+332]
  00b76	3b f4		 cmp	 esi, esp
  00b78	e8 00 00 00 00	 call	 __RTC_CheckEsp
$L190635:

; 349  : 
; 350  : 	ReleaseCapture();

  00b7d	8b f4		 mov	 esi, esp
  00b7f	ff 15 00 00 00
	00		 call	 DWORD PTR __imp__ReleaseCapture@0
  00b85	3b f4		 cmp	 esi, esp
  00b87	e8 00 00 00 00	 call	 __RTC_CheckEsp

; 351  : 
; 352  : 	this->m_pane->resizeTo(m_nMouseOffset, true);

  00b8c	6a 00		 push	 0
  00b8e	6a 01		 push	 1
  00b90	8b 4d fc	 mov	 ecx, DWORD PTR _this$[ebp]
  00b93	8b 51 5c	 mov	 edx, DWORD PTR [ecx+92]
  00b96	52		 push	 edx
  00b97	8b 45 fc	 mov	 eax, DWORD PTR _this$[ebp]
  00b9a	8b 88 b0 00 00
	00		 mov	 ecx, DWORD PTR [eax+176]
  00ba0	e8 00 00 00 00	 call	 ?resizeTo@PaneSplitter@ETSLayoutMgr@@QAE_NH_N0@Z ; ETSLayoutMgr::PaneSplitter::resizeTo

; 353  : 
; 354  : 	CStatic::OnLButtonUp(nFlags, point);

  00ba5	8b 4d 10	 mov	 ecx, DWORD PTR _point$[ebp+4]
  00ba8	51		 push	 ecx
  00ba9	8b 55 0c	 mov	 edx, DWORD PTR _point$[ebp]
  00bac	52		 push	 edx
  00bad	8b 45 08	 mov	 eax, DWORD PTR _nFlags$[ebp]
  00bb0	50		 push	 eax
  00bb1	8b 4d fc	 mov	 ecx, DWORD PTR _this$[ebp]
  00bb4	e8 00 00 00 00	 call	 ?OnLButtonUp@CWnd@@IAEXIVCPoint@@@Z ; CWnd::OnLButtonUp
$L190626:

; 355  : }

  00bb9	5e		 pop	 esi
  00bba	83 c4 04	 add	 esp, 4
  00bbd	3b ec		 cmp	 ebp, esp
  00bbf	e8 00 00 00 00	 call	 __RTC_CheckEsp
  00bc4	8b e5		 mov	 esp, ebp
  00bc6	5d		 pop	 ebp
  00bc7	c2 0c 00	 ret	 12			; 0000000cH
?OnLButtonUp@ETSSplitter@@IAEXIVCPoint@@@Z ENDP		; ETSSplitter::OnLButtonUp
_TEXT	ENDS
PUBLIC	??0CTraceFileAndLineInfo@ATL@@QAE@PBDH@Z	; ATL::CTraceFileAndLineInfo::CTraceFileAndLineInfo
PUBLIC	??RCTraceFileAndLineInfo@ATL@@QBAXPBDZZ		; ATL::CTraceFileAndLineInfo::operator()
PUBLIC	?SetClosed@PaneBase@ETSLayoutMgr@@QAEXH@Z	; ETSLayoutMgr::PaneBase::SetClosed
EXTRN	?getCloseConstrain@PaneSplitter@ETSLayoutMgr@@QAEHH@Z:NEAR ; ETSLayoutMgr::PaneSplitter::getCloseConstrain
EXTRN	?getOpenConstrain@PaneSplitter@ETSLayoutMgr@@QAEHH@Z:NEAR ; ETSLayoutMgr::PaneSplitter::getOpenConstrain
EXTRN	?OnTimer@CWnd@@IAEXI@Z:NEAR			; CWnd::OnTimer
EXTRN	?KillTimer@CWnd@@QAEHI@Z:NEAR			; CWnd::KillTimer
EXTRN	_abs:NEAR
EXTRN	__imp__GetTickCount@0:NEAR
; Function compile flags: /Odt /RTCsu
_TEXT	SEGMENT
$T192813 = -32						; size = 8
_step$190653 = -24					; size = 4
_offset$190652 = -20					; size = 4
_offset$190643 = -16					; size = 4
_step$190642 = -12					; size = 4
_count$ = -8						; size = 4
_this$ = -4						; size = 4
_nIDEvent$ = 8						; size = 4
?OnTimer@ETSSplitter@@IAEXI@Z PROC NEAR			; ETSSplitter::OnTimer
; _this$ = ecx

; 359  : {	

  00bd0	55		 push	 ebp
  00bd1	8b ec		 mov	 ebp, esp
  00bd3	83 ec 20	 sub	 esp, 32			; 00000020H
  00bd6	56		 push	 esi
  00bd7	b8 cc cc cc cc	 mov	 eax, -858993460		; ccccccccH
  00bdc	89 45 e0	 mov	 DWORD PTR [ebp-32], eax
  00bdf	89 45 e4	 mov	 DWORD PTR [ebp-28], eax
  00be2	89 45 e8	 mov	 DWORD PTR [ebp-24], eax
  00be5	89 45 ec	 mov	 DWORD PTR [ebp-20], eax
  00be8	89 45 f0	 mov	 DWORD PTR [ebp-16], eax
  00beb	89 45 f4	 mov	 DWORD PTR [ebp-12], eax
  00bee	89 45 f8	 mov	 DWORD PTR [ebp-8], eax
  00bf1	89 45 fc	 mov	 DWORD PTR [ebp-4], eax
  00bf4	89 4d fc	 mov	 DWORD PTR _this$[ebp], ecx

; 360  : 	DWORD count = ::GetTickCount();

  00bf7	8b f4		 mov	 esi, esp
  00bf9	ff 15 00 00 00
	00		 call	 DWORD PTR __imp__GetTickCount@0
  00bff	3b f4		 cmp	 esi, esp
  00c01	e8 00 00 00 00	 call	 __RTC_CheckEsp
  00c06	89 45 f8	 mov	 DWORD PTR _count$[ebp], eax

; 361  : 
; 362  : 	if(nIDEvent == 10010)

  00c09	81 7d 08 1a 27
	00 00		 cmp	 DWORD PTR _nIDEvent$[ebp], 10010 ; 0000271aH
  00c10	0f 85 f1 00 00
	00		 jne	 $L190641

; 363  : 	{
; 364  : 		int step = m_pane->m_nSplOpendPos / CLOSE_STEP;

  00c16	8b 45 fc	 mov	 eax, DWORD PTR _this$[ebp]
  00c19	8b 88 b0 00 00
	00		 mov	 ecx, DWORD PTR [eax+176]
  00c1f	8b 91 8c 00 00
	00		 mov	 edx, DWORD PTR [ecx+140]
  00c25	89 55 f4	 mov	 DWORD PTR _step$190642[ebp], edx

; 365  : 		int offset = 0;

  00c28	c7 45 f0 00 00
	00 00		 mov	 DWORD PTR _offset$190643[ebp], 0

; 366  : 		if(m_pane->m_nClosedOri == 0)

  00c2f	8b 45 fc	 mov	 eax, DWORD PTR _this$[ebp]
  00c32	8b 88 b0 00 00
	00		 mov	 ecx, DWORD PTR [eax+176]
  00c38	83 b9 84 00 00
	00 00		 cmp	 DWORD PTR [ecx+132], 0
  00c3f	75 19		 jne	 SHORT $L190644

; 367  : 			offset = m_pane->getCloseConstrain(-step);

  00c41	8b 55 f4	 mov	 edx, DWORD PTR _step$190642[ebp]
  00c44	f7 da		 neg	 edx
  00c46	52		 push	 edx
  00c47	8b 45 fc	 mov	 eax, DWORD PTR _this$[ebp]
  00c4a	8b 88 b0 00 00
	00		 mov	 ecx, DWORD PTR [eax+176]
  00c50	e8 00 00 00 00	 call	 ?getCloseConstrain@PaneSplitter@ETSLayoutMgr@@QAEHH@Z ; ETSLayoutMgr::PaneSplitter::getCloseConstrain
  00c55	89 45 f0	 mov	 DWORD PTR _offset$190643[ebp], eax

; 368  : 		else

  00c58	eb 15		 jmp	 SHORT $L190645
$L190644:

; 369  : 			offset = m_pane->getCloseConstrain(step);

  00c5a	8b 4d f4	 mov	 ecx, DWORD PTR _step$190642[ebp]
  00c5d	51		 push	 ecx
  00c5e	8b 55 fc	 mov	 edx, DWORD PTR _this$[ebp]
  00c61	8b 8a b0 00 00
	00		 mov	 ecx, DWORD PTR [edx+176]
  00c67	e8 00 00 00 00	 call	 ?getCloseConstrain@PaneSplitter@ETSLayoutMgr@@QAEHH@Z ; ETSLayoutMgr::PaneSplitter::getCloseConstrain
  00c6c	89 45 f0	 mov	 DWORD PTR _offset$190643[ebp], eax
$L190645:

; 370  : 		if(abs(offset) <= step)

  00c6f	8b 45 f0	 mov	 eax, DWORD PTR _offset$190643[ebp]
  00c72	50		 push	 eax
  00c73	e8 00 00 00 00	 call	 _abs
  00c78	83 c4 04	 add	 esp, 4
  00c7b	3b 45 f4	 cmp	 eax, DWORD PTR _step$190642[ebp]
  00c7e	7f 34		 jg	 SHORT $L190646

; 371  : 		{
; 372  : 			m_pane->SetClosed(true);

  00c80	6a 01		 push	 1
  00c82	8b 4d fc	 mov	 ecx, DWORD PTR _this$[ebp]
  00c85	8b 89 b0 00 00
	00		 mov	 ecx, DWORD PTR [ecx+176]
  00c8b	e8 00 00 00 00	 call	 ?SetClosed@PaneBase@ETSLayoutMgr@@QAEXH@Z ; ETSLayoutMgr::PaneBase::SetClosed

; 373  : 			KillTimer(nIDEvent);

  00c90	8b 55 08	 mov	 edx, DWORD PTR _nIDEvent$[ebp]
  00c93	52		 push	 edx
  00c94	8b 4d fc	 mov	 ecx, DWORD PTR _this$[ebp]
  00c97	e8 00 00 00 00	 call	 ?KillTimer@CWnd@@QAEHI@Z ; CWnd::KillTimer

; 374  : 			this->m_pane->resizeTo(offset, true);

  00c9c	6a 00		 push	 0
  00c9e	6a 01		 push	 1
  00ca0	8b 45 f0	 mov	 eax, DWORD PTR _offset$190643[ebp]
  00ca3	50		 push	 eax
  00ca4	8b 4d fc	 mov	 ecx, DWORD PTR _this$[ebp]
  00ca7	8b 89 b0 00 00
	00		 mov	 ecx, DWORD PTR [ecx+176]
  00cad	e8 00 00 00 00	 call	 ?resizeTo@PaneSplitter@ETSLayoutMgr@@QAE_NH_N0@Z ; ETSLayoutMgr::PaneSplitter::resizeTo

; 375  : 		}
; 376  : 		else

  00cb2	eb 16		 jmp	 SHORT $L190647
$L190646:

; 377  : 			m_pane->resizeTo(offset);

  00cb4	6a 00		 push	 0
  00cb6	6a 00		 push	 0
  00cb8	8b 55 f0	 mov	 edx, DWORD PTR _offset$190643[ebp]
  00cbb	52		 push	 edx
  00cbc	8b 45 fc	 mov	 eax, DWORD PTR _this$[ebp]
  00cbf	8b 88 b0 00 00
	00		 mov	 ecx, DWORD PTR [eax+176]
  00cc5	e8 00 00 00 00	 call	 ?resizeTo@PaneSplitter@ETSLayoutMgr@@QAE_NH_N0@Z ; ETSLayoutMgr::PaneSplitter::resizeTo
$L190647:

; 378  : 		m_nMouseOffset = 0;

  00cca	8b 4d fc	 mov	 ecx, DWORD PTR _this$[ebp]
  00ccd	c7 41 5c 00 00
	00 00		 mov	 DWORD PTR [ecx+92], 0

; 379  : 		TRACE("resize time eclipse %d \n", ::GetTickCount() - count);

  00cd4	8b f4		 mov	 esi, esp
  00cd6	ff 15 00 00 00
	00		 call	 DWORD PTR __imp__GetTickCount@0
  00cdc	3b f4		 cmp	 esi, esp
  00cde	e8 00 00 00 00	 call	 __RTC_CheckEsp
  00ce3	2b 45 f8	 sub	 eax, DWORD PTR _count$[ebp]
  00ce6	50		 push	 eax
  00ce7	68 00 00 00 00	 push	 OFFSET FLAT:$SG190650
  00cec	68 7b 01 00 00	 push	 379			; 0000017bH
  00cf1	68 00 00 00 00	 push	 OFFSET FLAT:$SG190649
  00cf6	8d 4d e0	 lea	 ecx, DWORD PTR $T192813[ebp]
  00cf9	e8 00 00 00 00	 call	 ??0CTraceFileAndLineInfo@ATL@@QAE@PBDH@Z ; ATL::CTraceFileAndLineInfo::CTraceFileAndLineInfo
  00cfe	50		 push	 eax
  00cff	e8 00 00 00 00	 call	 ??RCTraceFileAndLineInfo@ATL@@QBAXPBDZZ ; ATL::CTraceFileAndLineInfo::operator()
  00d04	83 c4 0c	 add	 esp, 12			; 0000000cH
$L190641:

; 380  : 
; 381  : 	}
; 382  : 	if(nIDEvent == 10011)

  00d07	81 7d 08 1b 27
	00 00		 cmp	 DWORD PTR _nIDEvent$[ebp], 10011 ; 0000271bH
  00d0e	0f 85 be 00 00
	00		 jne	 $L190651

; 383  : 	{
; 384  : 		int offset = 0;

  00d14	c7 45 ec 00 00
	00 00		 mov	 DWORD PTR _offset$190652[ebp], 0

; 385  : 		int step = m_pane->m_nSplOpendPos / CLOSE_STEP;

  00d1b	8b 55 fc	 mov	 edx, DWORD PTR _this$[ebp]
  00d1e	8b 82 b0 00 00
	00		 mov	 eax, DWORD PTR [edx+176]
  00d24	8b 88 8c 00 00
	00		 mov	 ecx, DWORD PTR [eax+140]
  00d2a	89 4d e8	 mov	 DWORD PTR _step$190653[ebp], ecx

; 386  : 		if(m_pane->m_nClosedOri == 0)

  00d2d	8b 55 fc	 mov	 edx, DWORD PTR _this$[ebp]
  00d30	8b 82 b0 00 00
	00		 mov	 eax, DWORD PTR [edx+176]
  00d36	83 b8 84 00 00
	00 00		 cmp	 DWORD PTR [eax+132], 0
  00d3d	75 17		 jne	 SHORT $L190654

; 387  : 			offset = m_pane->getOpenConstrain(step);

  00d3f	8b 4d e8	 mov	 ecx, DWORD PTR _step$190653[ebp]
  00d42	51		 push	 ecx
  00d43	8b 55 fc	 mov	 edx, DWORD PTR _this$[ebp]
  00d46	8b 8a b0 00 00
	00		 mov	 ecx, DWORD PTR [edx+176]
  00d4c	e8 00 00 00 00	 call	 ?getOpenConstrain@PaneSplitter@ETSLayoutMgr@@QAEHH@Z ; ETSLayoutMgr::PaneSplitter::getOpenConstrain
  00d51	89 45 ec	 mov	 DWORD PTR _offset$190652[ebp], eax

; 388  : 		else

  00d54	eb 17		 jmp	 SHORT $L190655
$L190654:

; 389  : 			offset = m_pane->getOpenConstrain(-step);

  00d56	8b 45 e8	 mov	 eax, DWORD PTR _step$190653[ebp]
  00d59	f7 d8		 neg	 eax
  00d5b	50		 push	 eax
  00d5c	8b 4d fc	 mov	 ecx, DWORD PTR _this$[ebp]
  00d5f	8b 89 b0 00 00
	00		 mov	 ecx, DWORD PTR [ecx+176]
  00d65	e8 00 00 00 00	 call	 ?getOpenConstrain@PaneSplitter@ETSLayoutMgr@@QAEHH@Z ; ETSLayoutMgr::PaneSplitter::getOpenConstrain
  00d6a	89 45 ec	 mov	 DWORD PTR _offset$190652[ebp], eax
$L190655:

; 390  : 		if(abs(offset) <= step)

  00d6d	8b 55 ec	 mov	 edx, DWORD PTR _offset$190652[ebp]
  00d70	52		 push	 edx
  00d71	e8 00 00 00 00	 call	 _abs
  00d76	83 c4 04	 add	 esp, 4
  00d79	3b 45 e8	 cmp	 eax, DWORD PTR _step$190653[ebp]
  00d7c	7f 34		 jg	 SHORT $L190656

; 391  : 		{
; 392  : 			m_pane->SetClosed(false);

  00d7e	6a 00		 push	 0
  00d80	8b 45 fc	 mov	 eax, DWORD PTR _this$[ebp]
  00d83	8b 88 b0 00 00
	00		 mov	 ecx, DWORD PTR [eax+176]
  00d89	e8 00 00 00 00	 call	 ?SetClosed@PaneBase@ETSLayoutMgr@@QAEXH@Z ; ETSLayoutMgr::PaneBase::SetClosed

; 393  : 			KillTimer(nIDEvent);

  00d8e	8b 4d 08	 mov	 ecx, DWORD PTR _nIDEvent$[ebp]
  00d91	51		 push	 ecx
  00d92	8b 4d fc	 mov	 ecx, DWORD PTR _this$[ebp]
  00d95	e8 00 00 00 00	 call	 ?KillTimer@CWnd@@QAEHI@Z ; CWnd::KillTimer

; 394  : 			this->m_pane->resizeTo(offset, true);

  00d9a	6a 00		 push	 0
  00d9c	6a 01		 push	 1
  00d9e	8b 55 ec	 mov	 edx, DWORD PTR _offset$190652[ebp]
  00da1	52		 push	 edx
  00da2	8b 45 fc	 mov	 eax, DWORD PTR _this$[ebp]
  00da5	8b 88 b0 00 00
	00		 mov	 ecx, DWORD PTR [eax+176]
  00dab	e8 00 00 00 00	 call	 ?resizeTo@PaneSplitter@ETSLayoutMgr@@QAE_NH_N0@Z ; ETSLayoutMgr::PaneSplitter::resizeTo

; 395  : 		}
; 396  : 		else

  00db0	eb 16		 jmp	 SHORT $L190657
$L190656:

; 397  : 			m_pane->resizeTo(offset);

  00db2	6a 00		 push	 0
  00db4	6a 00		 push	 0
  00db6	8b 4d ec	 mov	 ecx, DWORD PTR _offset$190652[ebp]
  00db9	51		 push	 ecx
  00dba	8b 55 fc	 mov	 edx, DWORD PTR _this$[ebp]
  00dbd	8b 8a b0 00 00
	00		 mov	 ecx, DWORD PTR [edx+176]
  00dc3	e8 00 00 00 00	 call	 ?resizeTo@PaneSplitter@ETSLayoutMgr@@QAE_NH_N0@Z ; ETSLayoutMgr::PaneSplitter::resizeTo
$L190657:

; 398  : 
; 399  : 		m_nMouseOffset = 0;

  00dc8	8b 45 fc	 mov	 eax, DWORD PTR _this$[ebp]
  00dcb	c7 40 5c 00 00
	00 00		 mov	 DWORD PTR [eax+92], 0
$L190651:

; 400  : 
; 401  : 	}
; 402  : 	CWnd::OnTimer(nIDEvent);

  00dd2	8b 4d 08	 mov	 ecx, DWORD PTR _nIDEvent$[ebp]
  00dd5	51		 push	 ecx
  00dd6	8b 4d fc	 mov	 ecx, DWORD PTR _this$[ebp]
  00dd9	e8 00 00 00 00	 call	 ?OnTimer@CWnd@@IAEXI@Z	; CWnd::OnTimer

; 403  : 
; 404  : }

  00dde	5e		 pop	 esi
  00ddf	83 c4 20	 add	 esp, 32			; 00000020H
  00de2	3b ec		 cmp	 ebp, esp
  00de4	e8 00 00 00 00	 call	 __RTC_CheckEsp
  00de9	8b e5		 mov	 esp, ebp
  00deb	5d		 pop	 ebp
  00dec	c2 04 00	 ret	 4
?OnTimer@ETSSplitter@@IAEXI@Z ENDP			; ETSSplitter::OnTimer
; Function compile flags: /Odt /RTCsu
; File d:\boxgit\playbox\playbox\dev\prj\playbox\src\layoutmgr\etslayout.h
_TEXT	ENDS
;	COMDAT ?SetClosed@PaneBase@ETSLayoutMgr@@QAEXH@Z
_TEXT	SEGMENT
_this$ = -4						; size = 4
_closed$ = 8						; size = 4
?SetClosed@PaneBase@ETSLayoutMgr@@QAEXH@Z PROC NEAR	; ETSLayoutMgr::PaneBase::SetClosed, COMDAT
; _this$ = ecx

; 302  : 		VOID SetClosed(BOOL closed){m_bClosed = closed;};

  00000	55		 push	 ebp
  00001	8b ec		 mov	 ebp, esp
  00003	51		 push	 ecx
  00004	c7 45 fc cc cc
	cc cc		 mov	 DWORD PTR [ebp-4], -858993460 ; ccccccccH
  0000b	89 4d fc	 mov	 DWORD PTR _this$[ebp], ecx
  0000e	8b 45 fc	 mov	 eax, DWORD PTR _this$[ebp]
  00011	8b 4d 08	 mov	 ecx, DWORD PTR _closed$[ebp]
  00014	89 48 24	 mov	 DWORD PTR [eax+36], ecx
  00017	8b e5		 mov	 esp, ebp
  00019	5d		 pop	 ebp
  0001a	c2 04 00	 ret	 4
?SetClosed@PaneBase@ETSLayoutMgr@@QAEXH@Z ENDP		; ETSLayoutMgr::PaneBase::SetClosed
; Function compile flags: /Odt /RTCsu
; File d:\program files (x86)\microsoft visual studio .net 2003\vc7\atlmfc\include\atltrace.h
_TEXT	ENDS
;	COMDAT ??0CTraceFileAndLineInfo@ATL@@QAE@PBDH@Z
_TEXT	SEGMENT
_this$ = -4						; size = 4
_pszFileName$ = 8					; size = 4
_nLineNo$ = 12						; size = 4
??0CTraceFileAndLineInfo@ATL@@QAE@PBDH@Z PROC NEAR	; ATL::CTraceFileAndLineInfo::CTraceFileAndLineInfo, COMDAT
; _this$ = ecx

; 158  : 	{}

  00000	55		 push	 ebp
  00001	8b ec		 mov	 ebp, esp
  00003	51		 push	 ecx
  00004	c7 45 fc cc cc
	cc cc		 mov	 DWORD PTR [ebp-4], -858993460 ; ccccccccH
  0000b	89 4d fc	 mov	 DWORD PTR _this$[ebp], ecx
  0000e	8b 45 fc	 mov	 eax, DWORD PTR _this$[ebp]
  00011	8b 4d 08	 mov	 ecx, DWORD PTR _pszFileName$[ebp]
  00014	89 08		 mov	 DWORD PTR [eax], ecx
  00016	8b 55 fc	 mov	 edx, DWORD PTR _this$[ebp]
  00019	8b 45 0c	 mov	 eax, DWORD PTR _nLineNo$[ebp]
  0001c	89 42 04	 mov	 DWORD PTR [edx+4], eax
  0001f	8b 45 fc	 mov	 eax, DWORD PTR _this$[ebp]
  00022	8b e5		 mov	 esp, ebp
  00024	5d		 pop	 ebp
  00025	c2 08 00	 ret	 8
??0CTraceFileAndLineInfo@ATL@@QAE@PBDH@Z ENDP		; ATL::CTraceFileAndLineInfo::CTraceFileAndLineInfo
_TEXT	ENDS
PUBLIC	??BCTraceCategory@ATL@@QBEKXZ			; ATL::CTraceCategory::operator unsigned long
PUBLIC	?TraceV@CTrace@ATL@@QBAXPBDHKI0PAD@Z		; ATL::CTrace::TraceV
EXTRN	?s_trace@CTrace@ATL@@2V12@A:QWORD		; ATL::CTrace::s_trace
EXTRN	?atlTraceGeneral@ATL@@3VCTraceCategory@1@A:DWORD ; ATL::atlTraceGeneral
; Function compile flags: /Odt /RTCsu
;	COMDAT ??RCTraceFileAndLineInfo@ATL@@QBAXPBDZZ
_TEXT	SEGMENT
_ptr$ = -4						; size = 4
_this$ = 8						; size = 4
_pszFmt$ = 12						; size = 4
??RCTraceFileAndLineInfo@ATL@@QBAXPBDZZ PROC NEAR	; ATL::CTraceFileAndLineInfo::operator(), COMDAT

; 173  : 	{

  00000	55		 push	 ebp
  00001	8b ec		 mov	 ebp, esp
  00003	51		 push	 ecx
  00004	c7 45 fc cc cc
	cc cc		 mov	 DWORD PTR [ebp-4], -858993460 ; ccccccccH

; 174  : 		va_list ptr; va_start(ptr, pszFmt);

  0000b	8d 45 10	 lea	 eax, DWORD PTR _pszFmt$[ebp+4]
  0000e	89 45 fc	 mov	 DWORD PTR _ptr$[ebp], eax

; 175  : 		ATL::CTrace::s_trace.TraceV(m_pszFileName, m_nLineNo, atlTraceGeneral, 0, pszFmt, ptr);

  00011	8b 4d fc	 mov	 ecx, DWORD PTR _ptr$[ebp]
  00014	51		 push	 ecx
  00015	8b 55 0c	 mov	 edx, DWORD PTR _pszFmt$[ebp]
  00018	52		 push	 edx
  00019	6a 00		 push	 0
  0001b	b9 00 00 00 00	 mov	 ecx, OFFSET FLAT:?atlTraceGeneral@ATL@@3VCTraceCategory@1@A ; ATL::atlTraceGeneral
  00020	e8 00 00 00 00	 call	 ??BCTraceCategory@ATL@@QBEKXZ ; ATL::CTraceCategory::operator unsigned long
  00025	50		 push	 eax
  00026	8b 45 08	 mov	 eax, DWORD PTR _this$[ebp]
  00029	8b 48 04	 mov	 ecx, DWORD PTR [eax+4]
  0002c	51		 push	 ecx
  0002d	8b 55 08	 mov	 edx, DWORD PTR _this$[ebp]
  00030	8b 02		 mov	 eax, DWORD PTR [edx]
  00032	50		 push	 eax
  00033	68 00 00 00 00	 push	 OFFSET FLAT:?s_trace@CTrace@ATL@@2V12@A
  00038	e8 00 00 00 00	 call	 ?TraceV@CTrace@ATL@@QBAXPBDHKI0PAD@Z ; ATL::CTrace::TraceV
  0003d	83 c4 1c	 add	 esp, 28			; 0000001cH

; 176  : 		va_end(ptr);

  00040	c7 45 fc 00 00
	00 00		 mov	 DWORD PTR _ptr$[ebp], 0

; 177  : 	}

  00047	83 c4 04	 add	 esp, 4
  0004a	3b ec		 cmp	 ebp, esp
  0004c	e8 00 00 00 00	 call	 __RTC_CheckEsp
  00051	8b e5		 mov	 esp, ebp
  00053	5d		 pop	 ebp
  00054	c3		 ret	 0
??RCTraceFileAndLineInfo@ATL@@QBAXPBDZZ ENDP		; ATL::CTraceFileAndLineInfo::operator()
_TEXT	ENDS
EXTRN	_AtlTraceVA:NEAR
; Function compile flags: /Odt /RTCsu
;	COMDAT ?TraceV@CTrace@ATL@@QBAXPBDHKI0PAD@Z
_TEXT	SEGMENT
_this$ = 8						; size = 4
_pszFileName$ = 12					; size = 4
_nLine$ = 16						; size = 4
_dwCategory$ = 20					; size = 4
_nLevel$ = 24						; size = 4
_pszFmt$ = 28						; size = 4
_args$ = 32						; size = 4
?TraceV@CTrace@ATL@@QBAXPBDHKI0PAD@Z PROC NEAR		; ATL::CTrace::TraceV, COMDAT

; 121  : 	{

  00000	55		 push	 ebp
  00001	8b ec		 mov	 ebp, esp

; 122  : 		AtlTraceVA(m_dwModule, pszFileName, nLine, dwCategory, nLevel, pszFmt, args);

  00003	8b 45 20	 mov	 eax, DWORD PTR _args$[ebp]
  00006	50		 push	 eax
  00007	8b 4d 1c	 mov	 ecx, DWORD PTR _pszFmt$[ebp]
  0000a	51		 push	 ecx
  0000b	8b 55 18	 mov	 edx, DWORD PTR _nLevel$[ebp]
  0000e	52		 push	 edx
  0000f	8b 45 14	 mov	 eax, DWORD PTR _dwCategory$[ebp]
  00012	50		 push	 eax
  00013	8b 4d 10	 mov	 ecx, DWORD PTR _nLine$[ebp]
  00016	51		 push	 ecx
  00017	8b 55 0c	 mov	 edx, DWORD PTR _pszFileName$[ebp]
  0001a	52		 push	 edx
  0001b	8b 45 08	 mov	 eax, DWORD PTR _this$[ebp]
  0001e	8b 48 04	 mov	 ecx, DWORD PTR [eax+4]
  00021	51		 push	 ecx
  00022	e8 00 00 00 00	 call	 _AtlTraceVA
  00027	83 c4 1c	 add	 esp, 28			; 0000001cH

; 123  : 	}

  0002a	3b ec		 cmp	 ebp, esp
  0002c	e8 00 00 00 00	 call	 __RTC_CheckEsp
  00031	5d		 pop	 ebp
  00032	c3		 ret	 0
?TraceV@CTrace@ATL@@QBAXPBDHKI0PAD@Z ENDP		; ATL::CTrace::TraceV
; Function compile flags: /Odt /RTCsu
_TEXT	ENDS
;	COMDAT ??BCTraceCategory@ATL@@QBEKXZ
_TEXT	SEGMENT
_this$ = -4						; size = 4
??BCTraceCategory@ATL@@QBEKXZ PROC NEAR			; ATL::CTraceCategory::operator unsigned long, COMDAT
; _this$ = ecx

; 202  : {

  00000	55		 push	 ebp
  00001	8b ec		 mov	 ebp, esp
  00003	51		 push	 ecx
  00004	c7 45 fc cc cc
	cc cc		 mov	 DWORD PTR [ebp-4], -858993460 ; ccccccccH
  0000b	89 4d fc	 mov	 DWORD PTR _this$[ebp], ecx

; 203  : 	return( m_dwCategory );

  0000e	8b 45 fc	 mov	 eax, DWORD PTR _this$[ebp]
  00011	8b 00		 mov	 eax, DWORD PTR [eax]

; 204  : }

  00013	8b e5		 mov	 esp, ebp
  00015	5d		 pop	 ebp
  00016	c3		 ret	 0
??BCTraceCategory@ATL@@QBEKXZ ENDP			; ATL::CTraceCategory::operator unsigned long
_TEXT	ENDS
PUBLIC	?ChangeBarBtn@ETSSplitter@@AAEXH@Z		; ETSSplitter::ChangeBarBtn
EXTRN	?Invalidate@CWnd@@QAEXH@Z:NEAR			; CWnd::Invalidate
; Function compile flags: /Odt /RTCsu
; File d:\boxgit\playbox\playbox\dev\prj\playbox\src\layoutmgr\etssplitter.cpp
_TEXT	SEGMENT
_this$ = -4						; size = 4
_bOver$ = 8						; size = 4
?ChangeBarBtn@ETSSplitter@@AAEXH@Z PROC NEAR		; ETSSplitter::ChangeBarBtn
; _this$ = ecx

; 407  : {

  00df0	55		 push	 ebp
  00df1	8b ec		 mov	 ebp, esp
  00df3	51		 push	 ecx
  00df4	c7 45 fc cc cc
	cc cc		 mov	 DWORD PTR [ebp-4], -858993460 ; ccccccccH
  00dfb	89 4d fc	 mov	 DWORD PTR _this$[ebp], ecx

; 408  : 	if(m_bHorizSplitter)

  00dfe	8b 45 fc	 mov	 eax, DWORD PTR _this$[ebp]
  00e01	0f b6 48 54	 movzx	 ecx, BYTE PTR [eax+84]
  00e05	85 c9		 test	 ecx, ecx
  00e07	74 4c		 je	 SHORT $L190662

; 409  : 	{
; 410  : 		if(bOver)

  00e09	83 7d 08 00	 cmp	 DWORD PTR _bOver$[ebp], 0
  00e0d	74 26		 je	 SHORT $L190663

; 411  : 		{
; 412  : 			this->m_bBarDown = m_bSpliterBarDownOver;

  00e0f	8b 55 fc	 mov	 edx, DWORD PTR _this$[ebp]
  00e12	8b 45 fc	 mov	 eax, DWORD PTR _this$[ebp]
  00e15	8b 88 90 00 00
	00		 mov	 ecx, DWORD PTR [eax+144]
  00e1b	89 8a a8 00 00
	00		 mov	 DWORD PTR [edx+168], ecx

; 413  : 			this->m_bBarUp = m_bSpliterBarUpOver;

  00e21	8b 55 fc	 mov	 edx, DWORD PTR _this$[ebp]
  00e24	8b 45 fc	 mov	 eax, DWORD PTR _this$[ebp]
  00e27	8b 88 8c 00 00
	00		 mov	 ecx, DWORD PTR [eax+140]
  00e2d	89 8a a4 00 00
	00		 mov	 DWORD PTR [edx+164], ecx

; 414  : 		}
; 415  : 		else

  00e33	eb 1e		 jmp	 SHORT $L190664
$L190663:

; 416  : 		{
; 417  : 			this->m_bBarDown = m_bSpliterBarDown;

  00e35	8b 55 fc	 mov	 edx, DWORD PTR _this$[ebp]
  00e38	8b 45 fc	 mov	 eax, DWORD PTR _this$[ebp]
  00e3b	8b 48 78	 mov	 ecx, DWORD PTR [eax+120]
  00e3e	89 8a a8 00 00
	00		 mov	 DWORD PTR [edx+168], ecx

; 418  : 			this->m_bBarUp = m_bSpliterBarUp;

  00e44	8b 55 fc	 mov	 edx, DWORD PTR _this$[ebp]
  00e47	8b 45 fc	 mov	 eax, DWORD PTR _this$[ebp]
  00e4a	8b 48 74	 mov	 ecx, DWORD PTR [eax+116]
  00e4d	89 8a a4 00 00
	00		 mov	 DWORD PTR [edx+164], ecx
$L190664:

; 419  : 		}
; 420  : 	}
; 421  : 	else

  00e53	eb 4a		 jmp	 SHORT $L190665
$L190662:

; 422  : 	{
; 423  : 		if(bOver)

  00e55	83 7d 08 00	 cmp	 DWORD PTR _bOver$[ebp], 0
  00e59	74 26		 je	 SHORT $L190666

; 424  : 		{
; 425  : 			this->m_bBarLeft = m_bSpliterBarLeftOver;

  00e5b	8b 55 fc	 mov	 edx, DWORD PTR _this$[ebp]
  00e5e	8b 45 fc	 mov	 eax, DWORD PTR _this$[ebp]
  00e61	8b 88 88 00 00
	00		 mov	 ecx, DWORD PTR [eax+136]
  00e67	89 8a a0 00 00
	00		 mov	 DWORD PTR [edx+160], ecx

; 426  : 			this->m_bBarRight = m_bSpliterBarRightOver;

  00e6d	8b 55 fc	 mov	 edx, DWORD PTR _this$[ebp]
  00e70	8b 45 fc	 mov	 eax, DWORD PTR _this$[ebp]
  00e73	8b 88 84 00 00
	00		 mov	 ecx, DWORD PTR [eax+132]
  00e79	89 8a 9c 00 00
	00		 mov	 DWORD PTR [edx+156], ecx

; 427  : 		}
; 428  : 		else

  00e7f	eb 1e		 jmp	 SHORT $L190665
$L190666:

; 429  : 		{
; 430  : 			this->m_bBarLeft = m_bSpliterBarLeft;

  00e81	8b 55 fc	 mov	 edx, DWORD PTR _this$[ebp]
  00e84	8b 45 fc	 mov	 eax, DWORD PTR _this$[ebp]
  00e87	8b 48 70	 mov	 ecx, DWORD PTR [eax+112]
  00e8a	89 8a a0 00 00
	00		 mov	 DWORD PTR [edx+160], ecx

; 431  : 			this->m_bBarRight = m_bSpliterBarRight;

  00e90	8b 55 fc	 mov	 edx, DWORD PTR _this$[ebp]
  00e93	8b 45 fc	 mov	 eax, DWORD PTR _this$[ebp]
  00e96	8b 48 6c	 mov	 ecx, DWORD PTR [eax+108]
  00e99	89 8a 9c 00 00
	00		 mov	 DWORD PTR [edx+156], ecx
$L190665:

; 432  : 		}
; 433  : 	}
; 434  : 	this->Invalidate(true);

  00e9f	6a 01		 push	 1
  00ea1	8b 4d fc	 mov	 ecx, DWORD PTR _this$[ebp]
  00ea4	e8 00 00 00 00	 call	 ?Invalidate@CWnd@@QAEXH@Z ; CWnd::Invalidate

; 435  : }

  00ea9	83 c4 04	 add	 esp, 4
  00eac	3b ec		 cmp	 ebp, esp
  00eae	e8 00 00 00 00	 call	 __RTC_CheckEsp
  00eb3	8b e5		 mov	 esp, ebp
  00eb5	5d		 pop	 ebp
  00eb6	c2 04 00	 ret	 4
?ChangeBarBtn@ETSSplitter@@AAEXH@Z ENDP			; ETSSplitter::ChangeBarBtn
_TEXT	ENDS
EXTRN	?OnMouseMove@CWnd@@IAEXIVCPoint@@@Z:NEAR	; CWnd::OnMouseMove
EXTRN	__imp___TrackMouseEvent@4:NEAR
; Function compile flags: /Odt /RTCsu
_TEXT	SEGMENT
_tme$190675 = -24					; size = 16
_this$ = -4						; size = 4
_nFlags$ = 8						; size = 4
_point$ = 12						; size = 8
?OnMouseMove@ETSSplitter@@IAEXIVCPoint@@@Z PROC NEAR	; ETSSplitter::OnMouseMove
; _this$ = ecx

; 437  : {

  00ec0	55		 push	 ebp
  00ec1	8b ec		 mov	 ebp, esp
  00ec3	83 ec 1c	 sub	 esp, 28			; 0000001cH
  00ec6	56		 push	 esi
  00ec7	b8 cc cc cc cc	 mov	 eax, -858993460		; ccccccccH
  00ecc	89 45 e4	 mov	 DWORD PTR [ebp-28], eax
  00ecf	89 45 e8	 mov	 DWORD PTR [ebp-24], eax
  00ed2	89 45 ec	 mov	 DWORD PTR [ebp-20], eax
  00ed5	89 45 f0	 mov	 DWORD PTR [ebp-16], eax
  00ed8	89 45 f4	 mov	 DWORD PTR [ebp-12], eax
  00edb	89 45 f8	 mov	 DWORD PTR [ebp-8], eax
  00ede	89 45 fc	 mov	 DWORD PTR [ebp-4], eax
  00ee1	89 4d fc	 mov	 DWORD PTR _this$[ebp], ecx

; 438  : 	if(m_bSlim && this->IsClosed())

  00ee4	8b 45 fc	 mov	 eax, DWORD PTR _this$[ebp]
  00ee7	0f b6 48 61	 movzx	 ecx, BYTE PTR [eax+97]
  00eeb	85 c9		 test	 ecx, ecx
  00eed	74 14		 je	 SHORT $L190673
  00eef	8b 4d fc	 mov	 ecx, DWORD PTR _this$[ebp]
  00ef2	e8 00 00 00 00	 call	 ?IsClosed@ETSSplitter@@QAE_NXZ ; ETSSplitter::IsClosed
  00ef7	0f b6 d0	 movzx	 edx, al
  00efa	85 d2		 test	 edx, edx
  00efc	74 05		 je	 SHORT $L190673

; 439  : 		return;

  00efe	e9 17 02 00 00	 jmp	 $L190672
$L190673:

; 440  : 
; 441  : 	if (!bTrackLeave)

  00f03	8b 45 fc	 mov	 eax, DWORD PTR _this$[ebp]
  00f06	83 b8 b8 00 00
	00 00		 cmp	 DWORD PTR [eax+184], 0
  00f0d	75 37		 jne	 SHORT $L190674

; 442  : 	{
; 443  :         TRACKMOUSEEVENT tme;
; 444  :         tme.cbSize = sizeof(tme);

  00f0f	c7 45 e8 10 00
	00 00		 mov	 DWORD PTR _tme$190675[ebp], 16 ; 00000010H

; 445  :         tme.hwndTrack = m_hWnd;

  00f16	8b 4d fc	 mov	 ecx, DWORD PTR _this$[ebp]
  00f19	8b 51 20	 mov	 edx, DWORD PTR [ecx+32]
  00f1c	89 55 f0	 mov	 DWORD PTR _tme$190675[ebp+8], edx

; 446  :         tme.dwFlags = TME_LEAVE;

  00f1f	c7 45 ec 02 00
	00 00		 mov	 DWORD PTR _tme$190675[ebp+4], 2

; 447  :         _TrackMouseEvent(&tme);

  00f26	8b f4		 mov	 esi, esp
  00f28	8d 45 e8	 lea	 eax, DWORD PTR _tme$190675[ebp]
  00f2b	50		 push	 eax
  00f2c	ff 15 00 00 00
	00		 call	 DWORD PTR __imp___TrackMouseEvent@4
  00f32	3b f4		 cmp	 esi, esp
  00f34	e8 00 00 00 00	 call	 __RTC_CheckEsp

; 448  :         bTrackLeave = TRUE;

  00f39	8b 4d fc	 mov	 ecx, DWORD PTR _this$[ebp]
  00f3c	c7 81 b8 00 00
	00 01 00 00 00	 mov	 DWORD PTR [ecx+184], 1
$L190674:

; 449  :     }
; 450  : 
; 451  : 
; 452  : 	if(nFlags != 1 && IsMouseInCenterBar(point))

  00f46	83 7d 08 01	 cmp	 DWORD PTR _nFlags$[ebp], 1
  00f4a	74 44		 je	 SHORT $L190676
  00f4c	8b 55 10	 mov	 edx, DWORD PTR _point$[ebp+4]
  00f4f	52		 push	 edx
  00f50	8b 45 0c	 mov	 eax, DWORD PTR _point$[ebp]
  00f53	50		 push	 eax
  00f54	8b 4d fc	 mov	 ecx, DWORD PTR _this$[ebp]
  00f57	e8 00 00 00 00	 call	 ?IsMouseInCenterBar@ETSSplitter@@QAEHVCPoint@@@Z ; ETSSplitter::IsMouseInCenterBar
  00f5c	85 c0		 test	 eax, eax
  00f5e	74 30		 je	 SHORT $L190676

; 453  : 	{
; 454  : 		::SetCursor( AfxGetApp()->LoadStandardCursor ((LPCTSTR)MAKEINTRESOURCE(32649)));

  00f60	68 89 7f 00 00	 push	 32649			; 00007f89H
  00f65	e8 00 00 00 00	 call	 ?AfxGetApp@@YGPAVCWinApp@@XZ ; AfxGetApp
  00f6a	8b c8		 mov	 ecx, eax
  00f6c	e8 00 00 00 00	 call	 ?LoadStandardCursor@CWinApp@@QBEPAUHICON__@@PBD@Z ; CWinApp::LoadStandardCursor
  00f71	8b f4		 mov	 esi, esp
  00f73	50		 push	 eax
  00f74	ff 15 00 00 00
	00		 call	 DWORD PTR __imp__SetCursor@4
  00f7a	3b f4		 cmp	 esi, esp
  00f7c	e8 00 00 00 00	 call	 __RTC_CheckEsp

; 455  : 		ChangeBarBtn(true);

  00f81	6a 01		 push	 1
  00f83	8b 4d fc	 mov	 ecx, DWORD PTR _this$[ebp]
  00f86	e8 00 00 00 00	 call	 ?ChangeBarBtn@ETSSplitter@@AAEXH@Z ; ETSSplitter::ChangeBarBtn

; 456  : 		return;

  00f8b	e9 8a 01 00 00	 jmp	 $L190672
$L190676:

; 457  : 	}
; 458  : 
; 459  : 	if(IsClosed())

  00f90	8b 4d fc	 mov	 ecx, DWORD PTR _this$[ebp]
  00f93	e8 00 00 00 00	 call	 ?IsClosed@ETSSplitter@@QAE_NXZ ; ETSSplitter::IsClosed
  00f98	0f b6 c8	 movzx	 ecx, al
  00f9b	85 c9		 test	 ecx, ecx
  00f9d	74 05		 je	 SHORT $L190681

; 460  : 	{
; 461  : 	//	m_pane->setOpenConstrain();
; 462  : 	//	if(m_pane->m_nSplOpendPos == 0 && IsClosed())
; 463  : 		return;

  00f9f	e9 76 01 00 00	 jmp	 $L190672
$L190681:

; 464  : 	}
; 465  : 	ChangeBarBtn(false);

  00fa4	6a 00		 push	 0
  00fa6	8b 4d fc	 mov	 ecx, DWORD PTR _this$[ebp]
  00fa9	e8 00 00 00 00	 call	 ?ChangeBarBtn@ETSSplitter@@AAEXH@Z ; ETSSplitter::ChangeBarBtn

; 466  : 	if(!this->m_bHorizSplitter)

  00fae	8b 55 fc	 mov	 edx, DWORD PTR _this$[ebp]
  00fb1	0f b6 42 54	 movzx	 eax, BYTE PTR [edx+84]
  00fb5	85 c0		 test	 eax, eax
  00fb7	0f 85 9d 00 00
	00		 jne	 $L190682

; 467  : 	{
; 468  : 		::SetCursor( AfxGetApp()->LoadStandardCursor ((LPCTSTR)IDC_SIZEWE));

  00fbd	68 84 7f 00 00	 push	 32644			; 00007f84H
  00fc2	e8 00 00 00 00	 call	 ?AfxGetApp@@YGPAVCWinApp@@XZ ; AfxGetApp
  00fc7	8b c8		 mov	 ecx, eax
  00fc9	e8 00 00 00 00	 call	 ?LoadStandardCursor@CWinApp@@QBEPAUHICON__@@PBD@Z ; CWinApp::LoadStandardCursor
  00fce	8b f4		 mov	 esi, esp
  00fd0	50		 push	 eax
  00fd1	ff 15 00 00 00
	00		 call	 DWORD PTR __imp__SetCursor@4
  00fd7	3b f4		 cmp	 esi, esp
  00fd9	e8 00 00 00 00	 call	 __RTC_CheckEsp

; 469  : 		if(nFlags == 1 && m_bMouseButtonDownOnTheBar)

  00fde	83 7d 08 01	 cmp	 DWORD PTR _nFlags$[ebp], 1
  00fe2	75 76		 jne	 SHORT $L190682
  00fe4	8b 4d fc	 mov	 ecx, DWORD PTR _this$[ebp]
  00fe7	0f b6 51 55	 movzx	 edx, BYTE PTR [ecx+85]
  00feb	85 d2		 test	 edx, edx
  00fed	74 6b		 je	 SHORT $L190682

; 470  : 		{
; 471  : 			DrawVertBar(m_nMouseOffset);

  00fef	8b f4		 mov	 esi, esp
  00ff1	8b 45 fc	 mov	 eax, DWORD PTR _this$[ebp]
  00ff4	8b 48 5c	 mov	 ecx, DWORD PTR [eax+92]
  00ff7	51		 push	 ecx
  00ff8	8b 55 fc	 mov	 edx, DWORD PTR _this$[ebp]
  00ffb	8b 02		 mov	 eax, DWORD PTR [edx]
  00ffd	8b 4d fc	 mov	 ecx, DWORD PTR _this$[ebp]
  01000	ff 90 44 01 00
	00		 call	 DWORD PTR [eax+324]
  01006	3b f4		 cmp	 esi, esp
  01008	e8 00 00 00 00	 call	 __RTC_CheckEsp

; 472  : 			m_nMouseOffset = point.x - m_nMouseOrgPosition;

  0100d	8b 4d fc	 mov	 ecx, DWORD PTR _this$[ebp]
  01010	8b 55 0c	 mov	 edx, DWORD PTR _point$[ebp]
  01013	2b 51 58	 sub	 edx, DWORD PTR [ecx+88]
  01016	8b 45 fc	 mov	 eax, DWORD PTR _this$[ebp]
  01019	89 50 5c	 mov	 DWORD PTR [eax+92], edx

; 473  : 
; 474  : 			if(m_nMouseOffset != 0)

  0101c	8b 4d fc	 mov	 ecx, DWORD PTR _this$[ebp]
  0101f	83 79 5c 00	 cmp	 DWORD PTR [ecx+92], 0
  01023	74 17		 je	 SHORT $L190688

; 475  : 				ConstrainOffset();

  01025	8b 55 fc	 mov	 edx, DWORD PTR _this$[ebp]
  01028	8b 02		 mov	 eax, DWORD PTR [edx]
  0102a	8b f4		 mov	 esi, esp
  0102c	8b 4d fc	 mov	 ecx, DWORD PTR _this$[ebp]
  0102f	ff 90 4c 01 00
	00		 call	 DWORD PTR [eax+332]
  01035	3b f4		 cmp	 esi, esp
  01037	e8 00 00 00 00	 call	 __RTC_CheckEsp
$L190688:

; 476  : 
; 477  : 			DrawVertBar(m_nMouseOffset);

  0103c	8b f4		 mov	 esi, esp
  0103e	8b 4d fc	 mov	 ecx, DWORD PTR _this$[ebp]
  01041	8b 51 5c	 mov	 edx, DWORD PTR [ecx+92]
  01044	52		 push	 edx
  01045	8b 45 fc	 mov	 eax, DWORD PTR _this$[ebp]
  01048	8b 10		 mov	 edx, DWORD PTR [eax]
  0104a	8b 4d fc	 mov	 ecx, DWORD PTR _this$[ebp]
  0104d	ff 92 44 01 00
	00		 call	 DWORD PTR [edx+324]
  01053	3b f4		 cmp	 esi, esp
  01055	e8 00 00 00 00	 call	 __RTC_CheckEsp
$L190682:

; 478  : 		}
; 479  :  	}
; 480  : 
; 481  : 	if(m_bHorizSplitter)

  0105a	8b 45 fc	 mov	 eax, DWORD PTR _this$[ebp]
  0105d	0f b6 48 54	 movzx	 ecx, BYTE PTR [eax+84]
  01061	85 c9		 test	 ecx, ecx
  01063	0f 84 9d 00 00
	00		 je	 $L190689

; 482  : 	{
; 483  : 		::SetCursor( AfxGetApp()->LoadStandardCursor ((LPCTSTR)IDC_SIZENS));

  01069	68 85 7f 00 00	 push	 32645			; 00007f85H
  0106e	e8 00 00 00 00	 call	 ?AfxGetApp@@YGPAVCWinApp@@XZ ; AfxGetApp
  01073	8b c8		 mov	 ecx, eax
  01075	e8 00 00 00 00	 call	 ?LoadStandardCursor@CWinApp@@QBEPAUHICON__@@PBD@Z ; CWinApp::LoadStandardCursor
  0107a	8b f4		 mov	 esi, esp
  0107c	50		 push	 eax
  0107d	ff 15 00 00 00
	00		 call	 DWORD PTR __imp__SetCursor@4
  01083	3b f4		 cmp	 esi, esp
  01085	e8 00 00 00 00	 call	 __RTC_CheckEsp

; 484  : 		if(nFlags == 1 && m_bMouseButtonDownOnTheBar)

  0108a	83 7d 08 01	 cmp	 DWORD PTR _nFlags$[ebp], 1
  0108e	75 76		 jne	 SHORT $L190689
  01090	8b 55 fc	 mov	 edx, DWORD PTR _this$[ebp]
  01093	0f b6 42 55	 movzx	 eax, BYTE PTR [edx+85]
  01097	85 c0		 test	 eax, eax
  01099	74 6b		 je	 SHORT $L190689

; 485  : 		{
; 486  : 			DrawHorizBar(m_nMouseOffset);

  0109b	8b f4		 mov	 esi, esp
  0109d	8b 4d fc	 mov	 ecx, DWORD PTR _this$[ebp]
  010a0	8b 51 5c	 mov	 edx, DWORD PTR [ecx+92]
  010a3	52		 push	 edx
  010a4	8b 45 fc	 mov	 eax, DWORD PTR _this$[ebp]
  010a7	8b 10		 mov	 edx, DWORD PTR [eax]
  010a9	8b 4d fc	 mov	 ecx, DWORD PTR _this$[ebp]
  010ac	ff 92 48 01 00
	00		 call	 DWORD PTR [edx+328]
  010b2	3b f4		 cmp	 esi, esp
  010b4	e8 00 00 00 00	 call	 __RTC_CheckEsp

; 487  : 			m_nMouseOffset = point.y - m_nMouseOrgPosition;

  010b9	8b 45 fc	 mov	 eax, DWORD PTR _this$[ebp]
  010bc	8b 4d 10	 mov	 ecx, DWORD PTR _point$[ebp+4]
  010bf	2b 48 58	 sub	 ecx, DWORD PTR [eax+88]
  010c2	8b 55 fc	 mov	 edx, DWORD PTR _this$[ebp]
  010c5	89 4a 5c	 mov	 DWORD PTR [edx+92], ecx

; 488  : 			if(m_nMouseOffset != 0)

  010c8	8b 45 fc	 mov	 eax, DWORD PTR _this$[ebp]
  010cb	83 78 5c 00	 cmp	 DWORD PTR [eax+92], 0
  010cf	74 17		 je	 SHORT $L190695

; 489  : 				ConstrainOffset();

  010d1	8b 4d fc	 mov	 ecx, DWORD PTR _this$[ebp]
  010d4	8b 11		 mov	 edx, DWORD PTR [ecx]
  010d6	8b f4		 mov	 esi, esp
  010d8	8b 4d fc	 mov	 ecx, DWORD PTR _this$[ebp]
  010db	ff 92 4c 01 00
	00		 call	 DWORD PTR [edx+332]
  010e1	3b f4		 cmp	 esi, esp
  010e3	e8 00 00 00 00	 call	 __RTC_CheckEsp
$L190695:

; 490  : 
; 491  : 			DrawHorizBar(m_nMouseOffset);

  010e8	8b f4		 mov	 esi, esp
  010ea	8b 45 fc	 mov	 eax, DWORD PTR _this$[ebp]
  010ed	8b 48 5c	 mov	 ecx, DWORD PTR [eax+92]
  010f0	51		 push	 ecx
  010f1	8b 55 fc	 mov	 edx, DWORD PTR _this$[ebp]
  010f4	8b 02		 mov	 eax, DWORD PTR [edx]
  010f6	8b 4d fc	 mov	 ecx, DWORD PTR _this$[ebp]
  010f9	ff 90 48 01 00
	00		 call	 DWORD PTR [eax+328]
  010ff	3b f4		 cmp	 esi, esp
  01101	e8 00 00 00 00	 call	 __RTC_CheckEsp
$L190689:

; 492  :  		}
; 493  : 	}
; 494  : 	
; 495  : 	CStatic::OnMouseMove(nFlags, point);

  01106	8b 4d 10	 mov	 ecx, DWORD PTR _point$[ebp+4]
  01109	51		 push	 ecx
  0110a	8b 55 0c	 mov	 edx, DWORD PTR _point$[ebp]
  0110d	52		 push	 edx
  0110e	8b 45 08	 mov	 eax, DWORD PTR _nFlags$[ebp]
  01111	50		 push	 eax
  01112	8b 4d fc	 mov	 ecx, DWORD PTR _this$[ebp]
  01115	e8 00 00 00 00	 call	 ?OnMouseMove@CWnd@@IAEXIVCPoint@@@Z ; CWnd::OnMouseMove
$L190672:

; 496  : }

  0111a	52		 push	 edx
  0111b	8b cd		 mov	 ecx, ebp
  0111d	50		 push	 eax
  0111e	8d 15 00 00 00
	00		 lea	 edx, DWORD PTR $L192823
  01124	e8 00 00 00 00	 call	 @_RTC_CheckStackVars@8
  01129	58		 pop	 eax
  0112a	5a		 pop	 edx
  0112b	5e		 pop	 esi
  0112c	83 c4 1c	 add	 esp, 28			; 0000001cH
  0112f	3b ec		 cmp	 ebp, esp
  01131	e8 00 00 00 00	 call	 __RTC_CheckEsp
  01136	8b e5		 mov	 esp, ebp
  01138	5d		 pop	 ebp
  01139	c2 0c 00	 ret	 12			; 0000000cH
$L192823:
  0113c	01 00 00 00	 DD	 1
  01140	00 00 00 00	 DD	 $L192822
$L192822:
  01144	e8 ff ff ff	 DD	 -24			; ffffffe8H
  01148	10 00 00 00	 DD	 16			; 00000010H
  0114c	00 00 00 00	 DD	 $L192821
$L192821:
  01150	74		 DB	 116			; 00000074H
  01151	6d		 DB	 109			; 0000006dH
  01152	65		 DB	 101			; 00000065H
  01153	00		 DB	 0
?OnMouseMove@ETSSplitter@@IAEXIVCPoint@@@Z ENDP		; ETSSplitter::OnMouseMove
_TEXT	ENDS
EXTRN	?PatBlt@CDC@@QAEHHHHHK@Z:NEAR			; CDC::PatBlt
EXTRN	??0CBrush@@QAE@K@Z:NEAR				; CBrush::CBrush
EXTRN	??1CBrush@@UAE@XZ:NEAR				; CBrush::~CBrush
EXTRN	?Width@CRect@@QBEHXZ:NEAR			; CRect::Width
EXTRN	?Height@CRect@@QBEHXZ:NEAR			; CRect::Height
EXTRN	?TopLeft@CRect@@QAEAAVCPoint@@XZ:NEAR		; CRect::TopLeft
EXTRN	??0CWindowDC@@QAE@PAVCWnd@@@Z:NEAR		; CWindowDC::CWindowDC
EXTRN	??1CWindowDC@@UAE@XZ:NEAR			; CWindowDC::~CWindowDC
EXTRN	??ZCRect@@QAEXUtagPOINT@@@Z:NEAR		; CRect::operator-=
EXTRN	?GetWindowRect@CWnd@@QBEXPAUtagRECT@@@Z:NEAR	; CWnd::GetWindowRect
EXTRN	__imp__GetSysColor@4:NEAR
EXTRN	?SelectObject@CDC@@QAEPAVCBrush@@PAV2@@Z:NEAR	; CDC::SelectObject
EXTRN	?GetParent@CWnd@@QBEPAV1@XZ:NEAR		; CWnd::GetParent
xdata$x	SEGMENT
$T192837 DD	0ffffffffH
	DD	FLAT:$L192826
	DD	00H
	DD	FLAT:$L192827
$T192829 DD	019930520H
	DD	02H
	DD	FLAT:$T192837
	DD	2 DUP(00H)
	DD	2 DUP(00H)
; Function compile flags: /Odt /RTCsu
xdata$x	ENDS
_TEXT	SEGMENT
$T192825 = -124						; size = 8
_pOldBrush$ = -116					; size = 4
_brush$ = -108						; size = 8
_rc$ = -92						; size = 16
_rcWin$ = -68						; size = 16
_dc$ = -44						; size = 20
_pParentWnd$ = -20					; size = 4
_this$ = -16						; size = 4
__$EHRec$ = -12						; size = 12
_offset$ = 8						; size = 4
?DrawVertBar@ETSSplitter@@MAEXH@Z PROC NEAR		; ETSSplitter::DrawVertBar
; _this$ = ecx

; 499  : {

  01160	55		 push	 ebp
  01161	8b ec		 mov	 ebp, esp
  01163	6a ff		 push	 -1
  01165	68 00 00 00 00	 push	 __ehhandler$?DrawVertBar@ETSSplitter@@MAEXH@Z
  0116a	64 a1 00 00 00
	00		 mov	 eax, DWORD PTR fs:__except_list
  01170	50		 push	 eax
  01171	64 89 25 00 00
	00 00		 mov	 DWORD PTR fs:__except_list, esp
  01178	83 ec 70	 sub	 esp, 112		; 00000070H
  0117b	56		 push	 esi
  0117c	57		 push	 edi
  0117d	51		 push	 ecx
  0117e	8d 7d 84	 lea	 edi, DWORD PTR [ebp-124]
  01181	b9 1c 00 00 00	 mov	 ecx, 28			; 0000001cH
  01186	b8 cc cc cc cc	 mov	 eax, -858993460		; ccccccccH
  0118b	f3 ab		 rep stosd
  0118d	59		 pop	 ecx
  0118e	89 4d f0	 mov	 DWORD PTR _this$[ebp], ecx

; 500  : 	if(offset == 0)

  01191	83 7d 08 00	 cmp	 DWORD PTR _offset$[ebp], 0
  01195	75 05		 jne	 SHORT $L190700

; 501  : 		return;

  01197	e9 e7 00 00 00	 jmp	 $L190699
$L190700:

; 502  : 	CWnd* pParentWnd = GetParent();

  0119c	8b 4d f0	 mov	 ecx, DWORD PTR _this$[ebp]
  0119f	e8 00 00 00 00	 call	 ?GetParent@CWnd@@QBEPAV1@XZ ; CWnd::GetParent
  011a4	89 45 ec	 mov	 DWORD PTR _pParentWnd$[ebp], eax

; 503  : 	CWindowDC dc(pParentWnd);

  011a7	8b 45 ec	 mov	 eax, DWORD PTR _pParentWnd$[ebp]
  011aa	50		 push	 eax
  011ab	8d 4d d4	 lea	 ecx, DWORD PTR _dc$[ebp]
  011ae	e8 00 00 00 00	 call	 ??0CWindowDC@@QAE@PAVCWnd@@@Z ; CWindowDC::CWindowDC
  011b3	c7 45 fc 00 00
	00 00		 mov	 DWORD PTR __$EHRec$[ebp+8], 0

; 504  : 	CRect rcWin;

  011ba	8d 4d bc	 lea	 ecx, DWORD PTR _rcWin$[ebp]
  011bd	e8 00 00 00 00	 call	 ??0CRect@@QAE@XZ	; CRect::CRect

; 505  : 	pParentWnd->GetWindowRect(&rcWin);	 

  011c2	8d 4d bc	 lea	 ecx, DWORD PTR _rcWin$[ebp]
  011c5	51		 push	 ecx
  011c6	8b 4d ec	 mov	 ecx, DWORD PTR _pParentWnd$[ebp]
  011c9	e8 00 00 00 00	 call	 ?GetWindowRect@CWnd@@QBEXPAUtagRECT@@@Z ; CWnd::GetWindowRect

; 506  : 	
; 507  : 	CRect rc;

  011ce	8d 4d a4	 lea	 ecx, DWORD PTR _rc$[ebp]
  011d1	e8 00 00 00 00	 call	 ??0CRect@@QAE@XZ	; CRect::CRect

; 508  : 	this->GetWindowRect(&rc);

  011d6	8d 55 a4	 lea	 edx, DWORD PTR _rc$[ebp]
  011d9	52		 push	 edx
  011da	8b 4d f0	 mov	 ecx, DWORD PTR _this$[ebp]
  011dd	e8 00 00 00 00	 call	 ?GetWindowRect@CWnd@@QBEXPAUtagRECT@@@Z ; CWnd::GetWindowRect

; 509  : 	rc -= rcWin.TopLeft();					 

  011e2	8d 4d bc	 lea	 ecx, DWORD PTR _rcWin$[ebp]
  011e5	e8 00 00 00 00	 call	 ?TopLeft@CRect@@QAEAAVCPoint@@XZ ; CRect::TopLeft
  011ea	8b 08		 mov	 ecx, DWORD PTR [eax]
  011ec	8b 50 04	 mov	 edx, DWORD PTR [eax+4]
  011ef	89 4d 84	 mov	 DWORD PTR $T192825[ebp], ecx
  011f2	89 55 88	 mov	 DWORD PTR $T192825[ebp+4], edx
  011f5	8b 45 88	 mov	 eax, DWORD PTR $T192825[ebp+4]
  011f8	50		 push	 eax
  011f9	8b 4d 84	 mov	 ecx, DWORD PTR $T192825[ebp]
  011fc	51		 push	 ecx
  011fd	8d 4d a4	 lea	 ecx, DWORD PTR _rc$[ebp]
  01200	e8 00 00 00 00	 call	 ??ZCRect@@QAEXUtagPOINT@@@Z ; CRect::operator-=

; 510  : 
; 511  : 	CBrush brush(GetSysColor(COLOR_3DFACE));

  01205	8b f4		 mov	 esi, esp
  01207	6a 0f		 push	 15			; 0000000fH
  01209	ff 15 00 00 00
	00		 call	 DWORD PTR __imp__GetSysColor@4
  0120f	3b f4		 cmp	 esi, esp
  01211	e8 00 00 00 00	 call	 __RTC_CheckEsp
  01216	50		 push	 eax
  01217	8d 4d 94	 lea	 ecx, DWORD PTR _brush$[ebp]
  0121a	e8 00 00 00 00	 call	 ??0CBrush@@QAE@K@Z	; CBrush::CBrush
  0121f	c6 45 fc 01	 mov	 BYTE PTR __$EHRec$[ebp+8], 1

; 512  : 	CBrush* pOldBrush = dc.SelectObject(&brush);

  01223	8d 55 94	 lea	 edx, DWORD PTR _brush$[ebp]
  01226	52		 push	 edx
  01227	8d 4d d4	 lea	 ecx, DWORD PTR _dc$[ebp]
  0122a	e8 00 00 00 00	 call	 ?SelectObject@CDC@@QAEPAVCBrush@@PAV2@@Z ; CDC::SelectObject
  0122f	89 45 8c	 mov	 DWORD PTR _pOldBrush$[ebp], eax

; 513  : 
; 514  : 	dc.PatBlt(
; 515  : 		rc.left + offset, 
; 516  : 		rc.top, 
; 517  : 		rc.Width(), 
; 518  : 		rc.Height(), 
; 519  : 		PATINVERT);

  01232	68 49 00 5a 00	 push	 5898313			; 005a0049H
  01237	8d 4d a4	 lea	 ecx, DWORD PTR _rc$[ebp]
  0123a	e8 00 00 00 00	 call	 ?Height@CRect@@QBEHXZ	; CRect::Height
  0123f	50		 push	 eax
  01240	8d 4d a4	 lea	 ecx, DWORD PTR _rc$[ebp]
  01243	e8 00 00 00 00	 call	 ?Width@CRect@@QBEHXZ	; CRect::Width
  01248	50		 push	 eax
  01249	8b 45 a8	 mov	 eax, DWORD PTR _rc$[ebp+4]
  0124c	50		 push	 eax
  0124d	8b 4d a4	 mov	 ecx, DWORD PTR _rc$[ebp]
  01250	03 4d 08	 add	 ecx, DWORD PTR _offset$[ebp]
  01253	51		 push	 ecx
  01254	8d 4d d4	 lea	 ecx, DWORD PTR _dc$[ebp]
  01257	e8 00 00 00 00	 call	 ?PatBlt@CDC@@QAEHHHHHK@Z ; CDC::PatBlt

; 520  : 
; 521  : 	dc.SelectObject(pOldBrush);

  0125c	8b 55 8c	 mov	 edx, DWORD PTR _pOldBrush$[ebp]
  0125f	52		 push	 edx
  01260	8d 4d d4	 lea	 ecx, DWORD PTR _dc$[ebp]
  01263	e8 00 00 00 00	 call	 ?SelectObject@CDC@@QAEPAVCBrush@@PAV2@@Z ; CDC::SelectObject

; 522  : }

  01268	c6 45 fc 00	 mov	 BYTE PTR __$EHRec$[ebp+8], 0
  0126c	8d 4d 94	 lea	 ecx, DWORD PTR _brush$[ebp]
  0126f	e8 00 00 00 00	 call	 ??1CBrush@@UAE@XZ	; CBrush::~CBrush
  01274	c7 45 fc ff ff
	ff ff		 mov	 DWORD PTR __$EHRec$[ebp+8], -1
  0127b	8d 4d d4	 lea	 ecx, DWORD PTR _dc$[ebp]
  0127e	e8 00 00 00 00	 call	 ??1CWindowDC@@UAE@XZ	; CWindowDC::~CWindowDC
$L190699:
  01283	52		 push	 edx
  01284	8b cd		 mov	 ecx, ebp
  01286	50		 push	 eax
  01287	8d 15 00 00 00
	00		 lea	 edx, DWORD PTR $L192836
  0128d	e8 00 00 00 00	 call	 @_RTC_CheckStackVars@8
  01292	58		 pop	 eax
  01293	5a		 pop	 edx
  01294	8b 4d f4	 mov	 ecx, DWORD PTR __$EHRec$[ebp]
  01297	64 89 0d 00 00
	00 00		 mov	 DWORD PTR fs:__except_list, ecx
  0129e	5f		 pop	 edi
  0129f	5e		 pop	 esi
  012a0	83 c4 7c	 add	 esp, 124		; 0000007cH
  012a3	3b ec		 cmp	 ebp, esp
  012a5	e8 00 00 00 00	 call	 __RTC_CheckEsp
  012aa	8b e5		 mov	 esp, ebp
  012ac	5d		 pop	 ebp
  012ad	c2 04 00	 ret	 4
$L192836:
  012b0	04 00 00 00	 DD	 4
  012b4	00 00 00 00	 DD	 $L192835
$L192835:
  012b8	d4 ff ff ff	 DD	 -44			; ffffffd4H
  012bc	14 00 00 00	 DD	 20			; 00000014H
  012c0	00 00 00 00	 DD	 $L192830
  012c4	bc ff ff ff	 DD	 -68			; ffffffbcH
  012c8	10 00 00 00	 DD	 16			; 00000010H
  012cc	00 00 00 00	 DD	 $L192831
  012d0	a4 ff ff ff	 DD	 -92			; ffffffa4H
  012d4	10 00 00 00	 DD	 16			; 00000010H
  012d8	00 00 00 00	 DD	 $L192832
  012dc	94 ff ff ff	 DD	 -108			; ffffff94H
  012e0	08 00 00 00	 DD	 8
  012e4	00 00 00 00	 DD	 $L192833
$L192833:
  012e8	62		 DB	 98			; 00000062H
  012e9	72		 DB	 114			; 00000072H
  012ea	75		 DB	 117			; 00000075H
  012eb	73		 DB	 115			; 00000073H
  012ec	68		 DB	 104			; 00000068H
  012ed	00		 DB	 0
$L192832:
  012ee	72		 DB	 114			; 00000072H
  012ef	63		 DB	 99			; 00000063H
  012f0	00		 DB	 0
$L192831:
  012f1	72		 DB	 114			; 00000072H
  012f2	63		 DB	 99			; 00000063H
  012f3	57		 DB	 87			; 00000057H
  012f4	69		 DB	 105			; 00000069H
  012f5	6e		 DB	 110			; 0000006eH
  012f6	00		 DB	 0
$L192830:
  012f7	64		 DB	 100			; 00000064H
  012f8	63		 DB	 99			; 00000063H
  012f9	00		 DB	 0
_TEXT	ENDS
text$x	SEGMENT
$L192826:
  00012	8d 4d d4	 lea	 ecx, DWORD PTR _dc$[ebp]
  00015	e9 00 00 00 00	 jmp	 ??1CWindowDC@@UAE@XZ	; CWindowDC::~CWindowDC
$L192827:
  0001a	8d 4d 94	 lea	 ecx, DWORD PTR _brush$[ebp]
  0001d	e9 00 00 00 00	 jmp	 ??1CBrush@@UAE@XZ	; CBrush::~CBrush
__ehhandler$?DrawVertBar@ETSSplitter@@MAEXH@Z:
  00022	b8 00 00 00 00	 mov	 eax, OFFSET FLAT:$T192829
  00027	e9 00 00 00 00	 jmp	 ___CxxFrameHandler
text$x	ENDS
?DrawVertBar@ETSSplitter@@MAEXH@Z ENDP			; ETSSplitter::DrawVertBar
xdata$x	SEGMENT
$T192851 DD	0ffffffffH
	DD	FLAT:$L192840
	DD	00H
	DD	FLAT:$L192841
$T192843 DD	019930520H
	DD	02H
	DD	FLAT:$T192851
	DD	2 DUP(00H)
	DD	2 DUP(00H)
; Function compile flags: /Odt /RTCsu
xdata$x	ENDS
_TEXT	SEGMENT
$T192839 = -124						; size = 8
_pOldBrush$ = -116					; size = 4
_brush$ = -108						; size = 8
_rc$ = -92						; size = 16
_rcWin$ = -68						; size = 16
_dc$ = -44						; size = 20
_pParentWnd$ = -20					; size = 4
_this$ = -16						; size = 4
__$EHRec$ = -12						; size = 12
_offset$ = 8						; size = 4
?DrawHorizBar@ETSSplitter@@MAEXH@Z PROC NEAR		; ETSSplitter::DrawHorizBar
; _this$ = ecx

; 526  : {

  01300	55		 push	 ebp
  01301	8b ec		 mov	 ebp, esp
  01303	6a ff		 push	 -1
  01305	68 00 00 00 00	 push	 __ehhandler$?DrawHorizBar@ETSSplitter@@MAEXH@Z
  0130a	64 a1 00 00 00
	00		 mov	 eax, DWORD PTR fs:__except_list
  01310	50		 push	 eax
  01311	64 89 25 00 00
	00 00		 mov	 DWORD PTR fs:__except_list, esp
  01318	83 ec 70	 sub	 esp, 112		; 00000070H
  0131b	56		 push	 esi
  0131c	57		 push	 edi
  0131d	51		 push	 ecx
  0131e	8d 7d 84	 lea	 edi, DWORD PTR [ebp-124]
  01321	b9 1c 00 00 00	 mov	 ecx, 28			; 0000001cH
  01326	b8 cc cc cc cc	 mov	 eax, -858993460		; ccccccccH
  0132b	f3 ab		 rep stosd
  0132d	59		 pop	 ecx
  0132e	89 4d f0	 mov	 DWORD PTR _this$[ebp], ecx

; 527  : 	if(offset == 0)

  01331	83 7d 08 00	 cmp	 DWORD PTR _offset$[ebp], 0
  01335	75 05		 jne	 SHORT $L190713

; 528  : 		return;

  01337	e9 e7 00 00 00	 jmp	 $L190712
$L190713:

; 529  : 
; 530  : 	CWnd* pParentWnd = GetParent();

  0133c	8b 4d f0	 mov	 ecx, DWORD PTR _this$[ebp]
  0133f	e8 00 00 00 00	 call	 ?GetParent@CWnd@@QBEPAV1@XZ ; CWnd::GetParent
  01344	89 45 ec	 mov	 DWORD PTR _pParentWnd$[ebp], eax

; 531  : 	CWindowDC dc(pParentWnd);

  01347	8b 45 ec	 mov	 eax, DWORD PTR _pParentWnd$[ebp]
  0134a	50		 push	 eax
  0134b	8d 4d d4	 lea	 ecx, DWORD PTR _dc$[ebp]
  0134e	e8 00 00 00 00	 call	 ??0CWindowDC@@QAE@PAVCWnd@@@Z ; CWindowDC::CWindowDC
  01353	c7 45 fc 00 00
	00 00		 mov	 DWORD PTR __$EHRec$[ebp+8], 0

; 532  : 	CRect rcWin;

  0135a	8d 4d bc	 lea	 ecx, DWORD PTR _rcWin$[ebp]
  0135d	e8 00 00 00 00	 call	 ??0CRect@@QAE@XZ	; CRect::CRect

; 533  : 	pParentWnd->GetWindowRect(&rcWin);	 

  01362	8d 4d bc	 lea	 ecx, DWORD PTR _rcWin$[ebp]
  01365	51		 push	 ecx
  01366	8b 4d ec	 mov	 ecx, DWORD PTR _pParentWnd$[ebp]
  01369	e8 00 00 00 00	 call	 ?GetWindowRect@CWnd@@QBEXPAUtagRECT@@@Z ; CWnd::GetWindowRect

; 534  : 
; 535  : 	CRect rc;

  0136e	8d 4d a4	 lea	 ecx, DWORD PTR _rc$[ebp]
  01371	e8 00 00 00 00	 call	 ??0CRect@@QAE@XZ	; CRect::CRect

; 536  : 	this->GetWindowRect(&rc);

  01376	8d 55 a4	 lea	 edx, DWORD PTR _rc$[ebp]
  01379	52		 push	 edx
  0137a	8b 4d f0	 mov	 ecx, DWORD PTR _this$[ebp]
  0137d	e8 00 00 00 00	 call	 ?GetWindowRect@CWnd@@QBEXPAUtagRECT@@@Z ; CWnd::GetWindowRect

; 537  : 	rc -= rcWin.TopLeft();	

  01382	8d 4d bc	 lea	 ecx, DWORD PTR _rcWin$[ebp]
  01385	e8 00 00 00 00	 call	 ?TopLeft@CRect@@QAEAAVCPoint@@XZ ; CRect::TopLeft
  0138a	8b 08		 mov	 ecx, DWORD PTR [eax]
  0138c	8b 50 04	 mov	 edx, DWORD PTR [eax+4]
  0138f	89 4d 84	 mov	 DWORD PTR $T192839[ebp], ecx
  01392	89 55 88	 mov	 DWORD PTR $T192839[ebp+4], edx
  01395	8b 45 88	 mov	 eax, DWORD PTR $T192839[ebp+4]
  01398	50		 push	 eax
  01399	8b 4d 84	 mov	 ecx, DWORD PTR $T192839[ebp]
  0139c	51		 push	 ecx
  0139d	8d 4d a4	 lea	 ecx, DWORD PTR _rc$[ebp]
  013a0	e8 00 00 00 00	 call	 ??ZCRect@@QAEXUtagPOINT@@@Z ; CRect::operator-=

; 538  : 
; 539  : 	CBrush brush(GetSysColor(COLOR_3DFACE));

  013a5	8b f4		 mov	 esi, esp
  013a7	6a 0f		 push	 15			; 0000000fH
  013a9	ff 15 00 00 00
	00		 call	 DWORD PTR __imp__GetSysColor@4
  013af	3b f4		 cmp	 esi, esp
  013b1	e8 00 00 00 00	 call	 __RTC_CheckEsp
  013b6	50		 push	 eax
  013b7	8d 4d 94	 lea	 ecx, DWORD PTR _brush$[ebp]
  013ba	e8 00 00 00 00	 call	 ??0CBrush@@QAE@K@Z	; CBrush::CBrush
  013bf	c6 45 fc 01	 mov	 BYTE PTR __$EHRec$[ebp+8], 1

; 540  : 	CBrush* pOldBrush = dc.SelectObject(&brush);

  013c3	8d 55 94	 lea	 edx, DWORD PTR _brush$[ebp]
  013c6	52		 push	 edx
  013c7	8d 4d d4	 lea	 ecx, DWORD PTR _dc$[ebp]
  013ca	e8 00 00 00 00	 call	 ?SelectObject@CDC@@QAEPAVCBrush@@PAV2@@Z ; CDC::SelectObject
  013cf	89 45 8c	 mov	 DWORD PTR _pOldBrush$[ebp], eax

; 541  : 
; 542  : 	dc.PatBlt(
; 543  : 		rc.left, 
; 544  : 		rc.top + offset, 
; 545  : 		rc.Width(), 
; 546  : 		rc.Height(), 
; 547  : 		PATINVERT
; 548  : 	);

  013d2	68 49 00 5a 00	 push	 5898313			; 005a0049H
  013d7	8d 4d a4	 lea	 ecx, DWORD PTR _rc$[ebp]
  013da	e8 00 00 00 00	 call	 ?Height@CRect@@QBEHXZ	; CRect::Height
  013df	50		 push	 eax
  013e0	8d 4d a4	 lea	 ecx, DWORD PTR _rc$[ebp]
  013e3	e8 00 00 00 00	 call	 ?Width@CRect@@QBEHXZ	; CRect::Width
  013e8	50		 push	 eax
  013e9	8b 45 a8	 mov	 eax, DWORD PTR _rc$[ebp+4]
  013ec	03 45 08	 add	 eax, DWORD PTR _offset$[ebp]
  013ef	50		 push	 eax
  013f0	8b 4d a4	 mov	 ecx, DWORD PTR _rc$[ebp]
  013f3	51		 push	 ecx
  013f4	8d 4d d4	 lea	 ecx, DWORD PTR _dc$[ebp]
  013f7	e8 00 00 00 00	 call	 ?PatBlt@CDC@@QAEHHHHHK@Z ; CDC::PatBlt

; 549  : 
; 550  : 	dc.SelectObject(pOldBrush);

  013fc	8b 55 8c	 mov	 edx, DWORD PTR _pOldBrush$[ebp]
  013ff	52		 push	 edx
  01400	8d 4d d4	 lea	 ecx, DWORD PTR _dc$[ebp]
  01403	e8 00 00 00 00	 call	 ?SelectObject@CDC@@QAEPAVCBrush@@PAV2@@Z ; CDC::SelectObject

; 551  : }

  01408	c6 45 fc 00	 mov	 BYTE PTR __$EHRec$[ebp+8], 0
  0140c	8d 4d 94	 lea	 ecx, DWORD PTR _brush$[ebp]
  0140f	e8 00 00 00 00	 call	 ??1CBrush@@UAE@XZ	; CBrush::~CBrush
  01414	c7 45 fc ff ff
	ff ff		 mov	 DWORD PTR __$EHRec$[ebp+8], -1
  0141b	8d 4d d4	 lea	 ecx, DWORD PTR _dc$[ebp]
  0141e	e8 00 00 00 00	 call	 ??1CWindowDC@@UAE@XZ	; CWindowDC::~CWindowDC
$L190712:
  01423	52		 push	 edx
  01424	8b cd		 mov	 ecx, ebp
  01426	50		 push	 eax
  01427	8d 15 00 00 00
	00		 lea	 edx, DWORD PTR $L192850
  0142d	e8 00 00 00 00	 call	 @_RTC_CheckStackVars@8
  01432	58		 pop	 eax
  01433	5a		 pop	 edx
  01434	8b 4d f4	 mov	 ecx, DWORD PTR __$EHRec$[ebp]
  01437	64 89 0d 00 00
	00 00		 mov	 DWORD PTR fs:__except_list, ecx
  0143e	5f		 pop	 edi
  0143f	5e		 pop	 esi
  01440	83 c4 7c	 add	 esp, 124		; 0000007cH
  01443	3b ec		 cmp	 ebp, esp
  01445	e8 00 00 00 00	 call	 __RTC_CheckEsp
  0144a	8b e5		 mov	 esp, ebp
  0144c	5d		 pop	 ebp
  0144d	c2 04 00	 ret	 4
$L192850:
  01450	04 00 00 00	 DD	 4
  01454	00 00 00 00	 DD	 $L192849
$L192849:
  01458	d4 ff ff ff	 DD	 -44			; ffffffd4H
  0145c	14 00 00 00	 DD	 20			; 00000014H
  01460	00 00 00 00	 DD	 $L192844
  01464	bc ff ff ff	 DD	 -68			; ffffffbcH
  01468	10 00 00 00	 DD	 16			; 00000010H
  0146c	00 00 00 00	 DD	 $L192845
  01470	a4 ff ff ff	 DD	 -92			; ffffffa4H
  01474	10 00 00 00	 DD	 16			; 00000010H
  01478	00 00 00 00	 DD	 $L192846
  0147c	94 ff ff ff	 DD	 -108			; ffffff94H
  01480	08 00 00 00	 DD	 8
  01484	00 00 00 00	 DD	 $L192847
$L192847:
  01488	62		 DB	 98			; 00000062H
  01489	72		 DB	 114			; 00000072H
  0148a	75		 DB	 117			; 00000075H
  0148b	73		 DB	 115			; 00000073H
  0148c	68		 DB	 104			; 00000068H
  0148d	00		 DB	 0
$L192846:
  0148e	72		 DB	 114			; 00000072H
  0148f	63		 DB	 99			; 00000063H
  01490	00		 DB	 0
$L192845:
  01491	72		 DB	 114			; 00000072H
  01492	63		 DB	 99			; 00000063H
  01493	57		 DB	 87			; 00000057H
  01494	69		 DB	 105			; 00000069H
  01495	6e		 DB	 110			; 0000006eH
  01496	00		 DB	 0
$L192844:
  01497	64		 DB	 100			; 00000064H
  01498	63		 DB	 99			; 00000063H
  01499	00		 DB	 0
_TEXT	ENDS
text$x	SEGMENT
$L192840:
  0002c	8d 4d d4	 lea	 ecx, DWORD PTR _dc$[ebp]
  0002f	e9 00 00 00 00	 jmp	 ??1CWindowDC@@UAE@XZ	; CWindowDC::~CWindowDC
$L192841:
  00034	8d 4d 94	 lea	 ecx, DWORD PTR _brush$[ebp]
  00037	e9 00 00 00 00	 jmp	 ??1CBrush@@UAE@XZ	; CBrush::~CBrush
__ehhandler$?DrawHorizBar@ETSSplitter@@MAEXH@Z:
  0003c	b8 00 00 00 00	 mov	 eax, OFFSET FLAT:$T192843
  00041	e9 00 00 00 00	 jmp	 ___CxxFrameHandler
text$x	ENDS
?DrawHorizBar@ETSSplitter@@MAEXH@Z ENDP			; ETSSplitter::DrawHorizBar
EXTRN	?PreCreateWindow@CWnd@@UAEHAAUtagCREATESTRUCTA@@@Z:NEAR ; CWnd::PreCreateWindow
; Function compile flags: /Odt /RTCsu
_TEXT	SEGMENT
_this$ = -4						; size = 4
_cs$ = 8						; size = 4
?PreCreateWindow@ETSSplitter@@MAEHAAUtagCREATESTRUCTA@@@Z PROC NEAR ; ETSSplitter::PreCreateWindow
; _this$ = ecx

; 554  : {

  014a0	55		 push	 ebp
  014a1	8b ec		 mov	 ebp, esp
  014a3	51		 push	 ecx
  014a4	c7 45 fc cc cc
	cc cc		 mov	 DWORD PTR [ebp-4], -858993460 ; ccccccccH
  014ab	89 4d fc	 mov	 DWORD PTR _this$[ebp], ecx

; 555  : 	cs.style |= SS_NOTIFY; // to notify its parent of mouse events	

  014ae	8b 45 08	 mov	 eax, DWORD PTR _cs$[ebp]
  014b1	8b 48 20	 mov	 ecx, DWORD PTR [eax+32]
  014b4	81 c9 00 01 00
	00		 or	 ecx, 256		; 00000100H
  014ba	8b 55 08	 mov	 edx, DWORD PTR _cs$[ebp]
  014bd	89 4a 20	 mov	 DWORD PTR [edx+32], ecx

; 556  : 	return CStatic::PreCreateWindow(cs);

  014c0	8b 45 08	 mov	 eax, DWORD PTR _cs$[ebp]
  014c3	50		 push	 eax
  014c4	8b 4d fc	 mov	 ecx, DWORD PTR _this$[ebp]
  014c7	e8 00 00 00 00	 call	 ?PreCreateWindow@CWnd@@UAEHAAUtagCREATESTRUCTA@@@Z ; CWnd::PreCreateWindow

; 557  : }

  014cc	83 c4 04	 add	 esp, 4
  014cf	3b ec		 cmp	 ebp, esp
  014d1	e8 00 00 00 00	 call	 __RTC_CheckEsp
  014d6	8b e5		 mov	 esp, ebp
  014d8	5d		 pop	 ebp
  014d9	c2 04 00	 ret	 4
?PreCreateWindow@ETSSplitter@@MAEHAAUtagCREATESTRUCTA@@@Z ENDP ; ETSSplitter::PreCreateWindow
_TEXT	ENDS
EXTRN	?getOffsetConstrain@PaneSplitter@ETSLayoutMgr@@QAEHH@Z:NEAR ; ETSLayoutMgr::PaneSplitter::getOffsetConstrain
; Function compile flags: /Odt /RTCsu
_TEXT	SEGMENT
_this$ = -4						; size = 4
?ConstrainOffset@ETSSplitter@@MAEXXZ PROC NEAR		; ETSSplitter::ConstrainOffset
; _this$ = ecx

; 560  : {

  014e0	55		 push	 ebp
  014e1	8b ec		 mov	 ebp, esp
  014e3	51		 push	 ecx
  014e4	c7 45 fc cc cc
	cc cc		 mov	 DWORD PTR [ebp-4], -858993460 ; ccccccccH
  014eb	89 4d fc	 mov	 DWORD PTR _this$[ebp], ecx

; 561  : 	m_nMouseOffset = m_pane->getOffsetConstrain(this->m_nMouseOffset);

  014ee	8b 45 fc	 mov	 eax, DWORD PTR _this$[ebp]
  014f1	8b 48 5c	 mov	 ecx, DWORD PTR [eax+92]
  014f4	51		 push	 ecx
  014f5	8b 55 fc	 mov	 edx, DWORD PTR _this$[ebp]
  014f8	8b 8a b0 00 00
	00		 mov	 ecx, DWORD PTR [edx+176]
  014fe	e8 00 00 00 00	 call	 ?getOffsetConstrain@PaneSplitter@ETSLayoutMgr@@QAEHH@Z ; ETSLayoutMgr::PaneSplitter::getOffsetConstrain
  01503	8b 4d fc	 mov	 ecx, DWORD PTR _this$[ebp]
  01506	89 41 5c	 mov	 DWORD PTR [ecx+92], eax

; 562  : }

  01509	83 c4 04	 add	 esp, 4
  0150c	3b ec		 cmp	 ebp, esp
  0150e	e8 00 00 00 00	 call	 __RTC_CheckEsp
  01513	8b e5		 mov	 esp, ebp
  01515	5d		 pop	 ebp
  01516	c3		 ret	 0
?ConstrainOffset@ETSSplitter@@MAEXXZ ENDP		; ETSSplitter::ConstrainOffset
; Function compile flags: /Odt /RTCsu
_this$ = -4						; size = 4
_wp$ = 8						; size = 4
_lp$ = 12						; size = 4
?OnMouseLeave@ETSSplitter@@IAEJIJ@Z PROC NEAR		; ETSSplitter::OnMouseLeave
; _this$ = ecx

; 565  : {

  01520	55		 push	 ebp
  01521	8b ec		 mov	 ebp, esp
  01523	51		 push	 ecx
  01524	c7 45 fc cc cc
	cc cc		 mov	 DWORD PTR [ebp-4], -858993460 ; ccccccccH
  0152b	89 4d fc	 mov	 DWORD PTR _this$[ebp], ecx

; 566  : 	bTrackLeave = FALSE;

  0152e	8b 45 fc	 mov	 eax, DWORD PTR _this$[ebp]
  01531	c7 80 b8 00 00
	00 00 00 00 00	 mov	 DWORD PTR [eax+184], 0

; 567  : 	this->ChangeBarBtn(false);

  0153b	6a 00		 push	 0
  0153d	8b 4d fc	 mov	 ecx, DWORD PTR _this$[ebp]
  01540	e8 00 00 00 00	 call	 ?ChangeBarBtn@ETSSplitter@@AAEXH@Z ; ETSSplitter::ChangeBarBtn

; 568  :     return 0;

  01545	33 c0		 xor	 eax, eax

; 569  : }

  01547	83 c4 04	 add	 esp, 4
  0154a	3b ec		 cmp	 ebp, esp
  0154c	e8 00 00 00 00	 call	 __RTC_CheckEsp
  01551	8b e5		 mov	 esp, ebp
  01553	5d		 pop	 ebp
  01554	c2 08 00	 ret	 8
?OnMouseLeave@ETSSplitter@@IAEJIJ@Z ENDP		; ETSSplitter::OnMouseLeave
_TEXT	ENDS
PUBLIC	?CloseSplitter@ETSOuterSplitter@@UAEXXZ		; ETSOuterSplitter::CloseSplitter
EXTRN	?AfxGetUIManager@@YAPAVIUIManager@@XZ:NEAR	; AfxGetUIManager
EXTRN	?AfxGetMainWindow@@YAPAVCWnd@@XZ:NEAR		; AfxGetMainWindow
EXTRN	?GetOuterPaneMinPosition@PaneSplitter@ETSLayoutMgr@@QAEHXZ:NEAR ; ETSLayoutMgr::PaneSplitter::GetOuterPaneMinPosition
EXTRN	?SetWindowPos@CWnd@@QAEHPBV1@HHHHI@Z:NEAR	; CWnd::SetWindowPos
EXTRN	?SetRedraw@CWnd@@QAEXH@Z:NEAR			; CWnd::SetRedraw
; Function compile flags: /Odt /RTCsu
_TEXT	SEGMENT
tv167 = -80						; size = 4
tv162 = -76						; size = 4
_r$190755 = -68						; size = 16
_step$190749 = -48					; size = 4
_offset$190748 = -44					; size = 4
_r$190746 = -36						; size = 16
_offset$190741 = -16					; size = 4
_step$190740 = -12					; size = 4
_pWnd$ = -8						; size = 4
_this$ = -4						; size = 4
?CloseSplitter@ETSOuterSplitter@@UAEXXZ PROC NEAR	; ETSOuterSplitter::CloseSplitter
; _this$ = ecx

; 573  : {

  01560	55		 push	 ebp
  01561	8b ec		 mov	 ebp, esp
  01563	83 ec 50	 sub	 esp, 80			; 00000050H
  01566	56		 push	 esi
  01567	57		 push	 edi
  01568	51		 push	 ecx
  01569	8d 7d b0	 lea	 edi, DWORD PTR [ebp-80]
  0156c	b9 14 00 00 00	 mov	 ecx, 20			; 00000014H
  01571	b8 cc cc cc cc	 mov	 eax, -858993460		; ccccccccH
  01576	f3 ab		 rep stosd
  01578	59		 pop	 ecx
  01579	89 4d fc	 mov	 DWORD PTR _this$[ebp], ecx

; 574  : 	CWnd *pWnd = (CWnd*)this->GetParent();

  0157c	8b 4d fc	 mov	 ecx, DWORD PTR _this$[ebp]
  0157f	e8 00 00 00 00	 call	 ?GetParent@CWnd@@QBEPAV1@XZ ; CWnd::GetParent
  01584	89 45 f8	 mov	 DWORD PTR _pWnd$[ebp], eax

; 575  : 	pWnd->SetRedraw(false);

  01587	6a 00		 push	 0
  01589	8b 4d f8	 mov	 ecx, DWORD PTR _pWnd$[ebp]
  0158c	e8 00 00 00 00	 call	 ?SetRedraw@CWnd@@QAEXH@Z ; CWnd::SetRedraw

; 576  : 
; 577  : 	//int min = m_pane->GetOuterPaneMinPosition();
; 578  : 	//m_nMinConstrainHorz = (min == 0) ? m_nMinConstrainHorz : min;
; 579  : 
; 580  : 
; 581  : 	if(!m_pane->IsClosed())

  01591	8b 45 fc	 mov	 eax, DWORD PTR _this$[ebp]
  01594	8b 88 b0 00 00
	00		 mov	 ecx, DWORD PTR [eax+176]
  0159a	e8 00 00 00 00	 call	 ?IsClosed@PaneSplitter@ETSLayoutMgr@@QAEHXZ ; ETSLayoutMgr::PaneSplitter::IsClosed
  0159f	85 c0		 test	 eax, eax
  015a1	0f 85 4e 01 00
	00		 jne	 $L190739

; 582  : 	{
; 583  : 		m_pane->setOpenConstrain();

  015a7	8b 4d fc	 mov	 ecx, DWORD PTR _this$[ebp]
  015aa	8b 89 b0 00 00
	00		 mov	 ecx, DWORD PTR [ecx+176]
  015b0	e8 00 00 00 00	 call	 ?setOpenConstrain@PaneSplitter@ETSLayoutMgr@@QAEXXZ ; ETSLayoutMgr::PaneSplitter::setOpenConstrain

; 584  : 		int step = m_pane->m_nSplOpendPos / CLOSE_STEP;

  015b5	8b 55 fc	 mov	 edx, DWORD PTR _this$[ebp]
  015b8	8b 82 b0 00 00
	00		 mov	 eax, DWORD PTR [edx+176]
  015be	8b 88 8c 00 00
	00		 mov	 ecx, DWORD PTR [eax+140]
  015c4	89 4d f4	 mov	 DWORD PTR _step$190740[ebp], ecx

; 585  : 		//TRACE("dd%d\n", step);
; 586  : 		int offset = 0;

  015c7	c7 45 f0 00 00
	00 00		 mov	 DWORD PTR _offset$190741[ebp], 0

; 587  : 		if(m_pane->m_nClosedOri == 0)

  015ce	8b 55 fc	 mov	 edx, DWORD PTR _this$[ebp]
  015d1	8b 82 b0 00 00
	00		 mov	 eax, DWORD PTR [edx+176]
  015d7	83 b8 84 00 00
	00 00		 cmp	 DWORD PTR [eax+132], 0
  015de	75 19		 jne	 SHORT $L190742

; 588  : 			offset = m_pane->getCloseConstrain(-step);

  015e0	8b 4d f4	 mov	 ecx, DWORD PTR _step$190740[ebp]
  015e3	f7 d9		 neg	 ecx
  015e5	51		 push	 ecx
  015e6	8b 55 fc	 mov	 edx, DWORD PTR _this$[ebp]
  015e9	8b 8a b0 00 00
	00		 mov	 ecx, DWORD PTR [edx+176]
  015ef	e8 00 00 00 00	 call	 ?getCloseConstrain@PaneSplitter@ETSLayoutMgr@@QAEHH@Z ; ETSLayoutMgr::PaneSplitter::getCloseConstrain
  015f4	89 45 f0	 mov	 DWORD PTR _offset$190741[ebp], eax

; 589  : 		else

  015f7	eb 15		 jmp	 SHORT $L190743
$L190742:

; 590  : 			offset = m_pane->getCloseConstrain(step);

  015f9	8b 45 f4	 mov	 eax, DWORD PTR _step$190740[ebp]
  015fc	50		 push	 eax
  015fd	8b 4d fc	 mov	 ecx, DWORD PTR _this$[ebp]
  01600	8b 89 b0 00 00
	00		 mov	 ecx, DWORD PTR [ecx+176]
  01606	e8 00 00 00 00	 call	 ?getCloseConstrain@PaneSplitter@ETSLayoutMgr@@QAEHH@Z ; ETSLayoutMgr::PaneSplitter::getCloseConstrain
  0160b	89 45 f0	 mov	 DWORD PTR _offset$190741[ebp], eax
$L190743:

; 591  : 		if(abs(offset) <= step)

  0160e	8b 55 f0	 mov	 edx, DWORD PTR _offset$190741[ebp]
  01611	52		 push	 edx
  01612	e8 00 00 00 00	 call	 _abs
  01617	83 c4 04	 add	 esp, 4
  0161a	3b 45 f4	 cmp	 eax, DWORD PTR _step$190740[ebp]
  0161d	7f 28		 jg	 SHORT $L190744

; 592  : 		{
; 593  : 			m_pane->SetClosed(true);

  0161f	6a 01		 push	 1
  01621	8b 45 fc	 mov	 eax, DWORD PTR _this$[ebp]
  01624	8b 88 b0 00 00
	00		 mov	 ecx, DWORD PTR [eax+176]
  0162a	e8 00 00 00 00	 call	 ?SetClosed@PaneBase@ETSLayoutMgr@@QAEXH@Z ; ETSLayoutMgr::PaneBase::SetClosed

; 594  : 			m_pane->resizeTo(offset, true);

  0162f	6a 00		 push	 0
  01631	6a 01		 push	 1
  01633	8b 4d f0	 mov	 ecx, DWORD PTR _offset$190741[ebp]
  01636	51		 push	 ecx
  01637	8b 55 fc	 mov	 edx, DWORD PTR _this$[ebp]
  0163a	8b 8a b0 00 00
	00		 mov	 ecx, DWORD PTR [edx+176]
  01640	e8 00 00 00 00	 call	 ?resizeTo@PaneSplitter@ETSLayoutMgr@@QAE_NH_N0@Z ; ETSLayoutMgr::PaneSplitter::resizeTo

; 595  : 		}
; 596  : 		else

  01645	eb 16		 jmp	 SHORT $L190745
$L190744:

; 597  : 			m_pane->resizeTo(offset);

  01647	6a 00		 push	 0
  01649	6a 00		 push	 0
  0164b	8b 45 f0	 mov	 eax, DWORD PTR _offset$190741[ebp]
  0164e	50		 push	 eax
  0164f	8b 4d fc	 mov	 ecx, DWORD PTR _this$[ebp]
  01652	8b 89 b0 00 00
	00		 mov	 ecx, DWORD PTR [ecx+176]
  01658	e8 00 00 00 00	 call	 ?resizeTo@PaneSplitter@ETSLayoutMgr@@QAE_NH_N0@Z ; ETSLayoutMgr::PaneSplitter::resizeTo
$L190745:

; 598  : 	////	LoadSkin(m_pSkin);
; 599  : 		pWnd->SetRedraw(true);

  0165d	6a 01		 push	 1
  0165f	8b 4d f8	 mov	 ecx, DWORD PTR _pWnd$[ebp]
  01662	e8 00 00 00 00	 call	 ?SetRedraw@CWnd@@QAEXH@Z ; CWnd::SetRedraw

; 600  : 		CRect r;

  01667	8d 4d dc	 lea	 ecx, DWORD PTR _r$190746[ebp]
  0166a	e8 00 00 00 00	 call	 ??0CRect@@QAE@XZ	; CRect::CRect

; 601  : 		pWnd->GetWindowRect(&r);

  0166f	8d 55 dc	 lea	 edx, DWORD PTR _r$190746[ebp]
  01672	52		 push	 edx
  01673	8b 4d f8	 mov	 ecx, DWORD PTR _pWnd$[ebp]
  01676	e8 00 00 00 00	 call	 ?GetWindowRect@CWnd@@QBEXPAUtagRECT@@@Z ; CWnd::GetWindowRect

; 602  : 		r.right -= offset;

  0167b	8b 45 e4	 mov	 eax, DWORD PTR _r$190746[ebp+8]
  0167e	2b 45 f0	 sub	 eax, DWORD PTR _offset$190741[ebp]
  01681	89 45 e4	 mov	 DWORD PTR _r$190746[ebp+8], eax

; 603  : 		pWnd->SetWindowPos(NULL, r.left, r.top , r.Width(), r.Height(), NULL);

  01684	6a 00		 push	 0
  01686	8d 4d dc	 lea	 ecx, DWORD PTR _r$190746[ebp]
  01689	e8 00 00 00 00	 call	 ?Height@CRect@@QBEHXZ	; CRect::Height
  0168e	50		 push	 eax
  0168f	8d 4d dc	 lea	 ecx, DWORD PTR _r$190746[ebp]
  01692	e8 00 00 00 00	 call	 ?Width@CRect@@QBEHXZ	; CRect::Width
  01697	50		 push	 eax
  01698	8b 4d e0	 mov	 ecx, DWORD PTR _r$190746[ebp+4]
  0169b	51		 push	 ecx
  0169c	8b 55 dc	 mov	 edx, DWORD PTR _r$190746[ebp]
  0169f	52		 push	 edx
  016a0	6a 00		 push	 0
  016a2	8b 4d f8	 mov	 ecx, DWORD PTR _pWnd$[ebp]
  016a5	e8 00 00 00 00	 call	 ?SetWindowPos@CWnd@@QAEHPBV1@HHHHI@Z ; CWnd::SetWindowPos

; 604  : 		::AfxGetUIManager()->UIGetLayoutMgr()->UpdateLayout(::AfxGetMainWindow()->m_hWnd);

  016aa	e8 00 00 00 00	 call	 ?AfxGetUIManager@@YAPAVIUIManager@@XZ ; AfxGetUIManager
  016af	89 45 b4	 mov	 DWORD PTR tv162[ebp], eax
  016b2	8b f4		 mov	 esi, esp
  016b4	8b 45 b4	 mov	 eax, DWORD PTR tv162[ebp]
  016b7	8b 10		 mov	 edx, DWORD PTR [eax]
  016b9	8b 4d b4	 mov	 ecx, DWORD PTR tv162[ebp]
  016bc	ff 52 24	 call	 DWORD PTR [edx+36]
  016bf	3b f4		 cmp	 esi, esp
  016c1	e8 00 00 00 00	 call	 __RTC_CheckEsp
  016c6	89 45 b0	 mov	 DWORD PTR tv167[ebp], eax
  016c9	e8 00 00 00 00	 call	 ?AfxGetMainWindow@@YAPAVCWnd@@XZ ; AfxGetMainWindow
  016ce	8b f4		 mov	 esi, esp
  016d0	8b 40 20	 mov	 eax, DWORD PTR [eax+32]
  016d3	50		 push	 eax
  016d4	8b 4d b0	 mov	 ecx, DWORD PTR tv167[ebp]
  016d7	8b 11		 mov	 edx, DWORD PTR [ecx]
  016d9	8b 4d b0	 mov	 ecx, DWORD PTR tv167[ebp]
  016dc	ff 52 14	 call	 DWORD PTR [edx+20]
  016df	3b f4		 cmp	 esi, esp
  016e1	e8 00 00 00 00	 call	 __RTC_CheckEsp

; 605  : 		//m_rootPanel->UpdateLayout(this->GetParent()->m_hWnd);
; 606  : 		m_nMouseOffset = 0;

  016e6	8b 45 fc	 mov	 eax, DWORD PTR _this$[ebp]
  016e9	c7 40 5c 00 00
	00 00		 mov	 DWORD PTR [eax+92], 0

; 607  : 
; 608  : 	}
; 609  : 	else

  016f0	e9 16 01 00 00	 jmp	 $L190736
$L190739:

; 610  : 	{
; 611  : 		int offset = 0;

  016f5	c7 45 d4 00 00
	00 00		 mov	 DWORD PTR _offset$190748[ebp], 0

; 612  : 		int step = m_pane->m_nSplOpendPos / CLOSE_STEP;

  016fc	8b 4d fc	 mov	 ecx, DWORD PTR _this$[ebp]
  016ff	8b 91 b0 00 00
	00		 mov	 edx, DWORD PTR [ecx+176]
  01705	8b 82 8c 00 00
	00		 mov	 eax, DWORD PTR [edx+140]
  0170b	89 45 d0	 mov	 DWORD PTR _step$190749[ebp], eax

; 613  : 		if(step == 0)

  0170e	83 7d d0 00	 cmp	 DWORD PTR _step$190749[ebp], 0
  01712	75 11		 jne	 SHORT $L190750

; 614  : 			step = m_pane->GetOuterPaneMinPosition();

  01714	8b 4d fc	 mov	 ecx, DWORD PTR _this$[ebp]
  01717	8b 89 b0 00 00
	00		 mov	 ecx, DWORD PTR [ecx+176]
  0171d	e8 00 00 00 00	 call	 ?GetOuterPaneMinPosition@PaneSplitter@ETSLayoutMgr@@QAEHXZ ; ETSLayoutMgr::PaneSplitter::GetOuterPaneMinPosition
  01722	89 45 d0	 mov	 DWORD PTR _step$190749[ebp], eax
$L190750:

; 615  : 
; 616  : 		if(m_pane->m_nClosedOri == 0)

  01725	8b 55 fc	 mov	 edx, DWORD PTR _this$[ebp]
  01728	8b 82 b0 00 00
	00		 mov	 eax, DWORD PTR [edx+176]
  0172e	83 b8 84 00 00
	00 00		 cmp	 DWORD PTR [eax+132], 0
  01735	75 17		 jne	 SHORT $L190751

; 617  : 			offset = m_pane->getOpenConstrain(step);

  01737	8b 4d d0	 mov	 ecx, DWORD PTR _step$190749[ebp]
  0173a	51		 push	 ecx
  0173b	8b 55 fc	 mov	 edx, DWORD PTR _this$[ebp]
  0173e	8b 8a b0 00 00
	00		 mov	 ecx, DWORD PTR [edx+176]
  01744	e8 00 00 00 00	 call	 ?getOpenConstrain@PaneSplitter@ETSLayoutMgr@@QAEHH@Z ; ETSLayoutMgr::PaneSplitter::getOpenConstrain
  01749	89 45 d4	 mov	 DWORD PTR _offset$190748[ebp], eax

; 618  : 		else

  0174c	eb 17		 jmp	 SHORT $L190752
$L190751:

; 619  : 			offset = m_pane->getOpenConstrain(-step);

  0174e	8b 45 d0	 mov	 eax, DWORD PTR _step$190749[ebp]
  01751	f7 d8		 neg	 eax
  01753	50		 push	 eax
  01754	8b 4d fc	 mov	 ecx, DWORD PTR _this$[ebp]
  01757	8b 89 b0 00 00
	00		 mov	 ecx, DWORD PTR [ecx+176]
  0175d	e8 00 00 00 00	 call	 ?getOpenConstrain@PaneSplitter@ETSLayoutMgr@@QAEHH@Z ; ETSLayoutMgr::PaneSplitter::getOpenConstrain
  01762	89 45 d4	 mov	 DWORD PTR _offset$190748[ebp], eax
$L190752:

; 620  : 		if(abs(offset) <= step)

  01765	8b 55 d4	 mov	 edx, DWORD PTR _offset$190748[ebp]
  01768	52		 push	 edx
  01769	e8 00 00 00 00	 call	 _abs
  0176e	83 c4 04	 add	 esp, 4
  01771	3b 45 d0	 cmp	 eax, DWORD PTR _step$190749[ebp]
  01774	7f 28		 jg	 SHORT $L190753

; 621  : 		{
; 622  : 			m_pane->SetClosed(false);

  01776	6a 00		 push	 0
  01778	8b 45 fc	 mov	 eax, DWORD PTR _this$[ebp]
  0177b	8b 88 b0 00 00
	00		 mov	 ecx, DWORD PTR [eax+176]
  01781	e8 00 00 00 00	 call	 ?SetClosed@PaneBase@ETSLayoutMgr@@QAEXH@Z ; ETSLayoutMgr::PaneBase::SetClosed

; 623  : 			m_pane->resizeTo(offset, true);

  01786	6a 00		 push	 0
  01788	6a 01		 push	 1
  0178a	8b 4d d4	 mov	 ecx, DWORD PTR _offset$190748[ebp]
  0178d	51		 push	 ecx
  0178e	8b 55 fc	 mov	 edx, DWORD PTR _this$[ebp]
  01791	8b 8a b0 00 00
	00		 mov	 ecx, DWORD PTR [edx+176]
  01797	e8 00 00 00 00	 call	 ?resizeTo@PaneSplitter@ETSLayoutMgr@@QAE_NH_N0@Z ; ETSLayoutMgr::PaneSplitter::resizeTo

; 624  : 		}
; 625  : 		else

  0179c	eb 16		 jmp	 SHORT $L190754
$L190753:

; 626  : 			m_pane->resizeTo(offset);

  0179e	6a 00		 push	 0
  017a0	6a 00		 push	 0
  017a2	8b 45 d4	 mov	 eax, DWORD PTR _offset$190748[ebp]
  017a5	50		 push	 eax
  017a6	8b 4d fc	 mov	 ecx, DWORD PTR _this$[ebp]
  017a9	8b 89 b0 00 00
	00		 mov	 ecx, DWORD PTR [ecx+176]
  017af	e8 00 00 00 00	 call	 ?resizeTo@PaneSplitter@ETSLayoutMgr@@QAE_NH_N0@Z ; ETSLayoutMgr::PaneSplitter::resizeTo
$L190754:

; 627  : 
; 628  : ////		LoadSkin(this->m_pSkin);
; 629  : 		pWnd->SetRedraw(true);

  017b4	6a 01		 push	 1
  017b6	8b 4d f8	 mov	 ecx, DWORD PTR _pWnd$[ebp]
  017b9	e8 00 00 00 00	 call	 ?SetRedraw@CWnd@@QAEXH@Z ; CWnd::SetRedraw

; 630  : 		m_nMouseOffset = 0;

  017be	8b 55 fc	 mov	 edx, DWORD PTR _this$[ebp]
  017c1	c7 42 5c 00 00
	00 00		 mov	 DWORD PTR [edx+92], 0

; 631  : 		CRect r;

  017c8	8d 4d bc	 lea	 ecx, DWORD PTR _r$190755[ebp]
  017cb	e8 00 00 00 00	 call	 ??0CRect@@QAE@XZ	; CRect::CRect

; 632  : 		pWnd->GetWindowRect(&r);

  017d0	8d 45 bc	 lea	 eax, DWORD PTR _r$190755[ebp]
  017d3	50		 push	 eax
  017d4	8b 4d f8	 mov	 ecx, DWORD PTR _pWnd$[ebp]
  017d7	e8 00 00 00 00	 call	 ?GetWindowRect@CWnd@@QBEXPAUtagRECT@@@Z ; CWnd::GetWindowRect

; 633  : 		r.right -= offset;

  017dc	8b 4d c4	 mov	 ecx, DWORD PTR _r$190755[ebp+8]
  017df	2b 4d d4	 sub	 ecx, DWORD PTR _offset$190748[ebp]
  017e2	89 4d c4	 mov	 DWORD PTR _r$190755[ebp+8], ecx

; 634  : 		pWnd->SetWindowPos(NULL, r.left, r.top , r.Width(), r.Height(), NULL);

  017e5	6a 00		 push	 0
  017e7	8d 4d bc	 lea	 ecx, DWORD PTR _r$190755[ebp]
  017ea	e8 00 00 00 00	 call	 ?Height@CRect@@QBEHXZ	; CRect::Height
  017ef	50		 push	 eax
  017f0	8d 4d bc	 lea	 ecx, DWORD PTR _r$190755[ebp]
  017f3	e8 00 00 00 00	 call	 ?Width@CRect@@QBEHXZ	; CRect::Width
  017f8	50		 push	 eax
  017f9	8b 55 c0	 mov	 edx, DWORD PTR _r$190755[ebp+4]
  017fc	52		 push	 edx
  017fd	8b 45 bc	 mov	 eax, DWORD PTR _r$190755[ebp]
  01800	50		 push	 eax
  01801	6a 00		 push	 0
  01803	8b 4d f8	 mov	 ecx, DWORD PTR _pWnd$[ebp]
  01806	e8 00 00 00 00	 call	 ?SetWindowPos@CWnd@@QAEHPBV1@HHHHI@Z ; CWnd::SetWindowPos
$L190736:

; 635  : 
; 636  : 	}
; 637  : }

  0180b	52		 push	 edx
  0180c	8b cd		 mov	 ecx, ebp
  0180e	50		 push	 eax
  0180f	8d 15 00 00 00
	00		 lea	 edx, DWORD PTR $L192859
  01815	e8 00 00 00 00	 call	 @_RTC_CheckStackVars@8
  0181a	58		 pop	 eax
  0181b	5a		 pop	 edx
  0181c	5f		 pop	 edi
  0181d	5e		 pop	 esi
  0181e	83 c4 50	 add	 esp, 80			; 00000050H
  01821	3b ec		 cmp	 ebp, esp
  01823	e8 00 00 00 00	 call	 __RTC_CheckEsp
  01828	8b e5		 mov	 esp, ebp
  0182a	5d		 pop	 ebp
  0182b	c3		 ret	 0
$L192859:
  0182c	02 00 00 00	 DD	 2
  01830	00 00 00 00	 DD	 $L192858
$L192858:
  01834	dc ff ff ff	 DD	 -36			; ffffffdcH
  01838	10 00 00 00	 DD	 16			; 00000010H
  0183c	00 00 00 00	 DD	 $L192856
  01840	bc ff ff ff	 DD	 -68			; ffffffbcH
  01844	10 00 00 00	 DD	 16			; 00000010H
  01848	00 00 00 00	 DD	 $L192857
$L192857:
  0184c	72		 DB	 114			; 00000072H
  0184d	00		 DB	 0
$L192856:
  0184e	72		 DB	 114			; 00000072H
  0184f	00		 DB	 0
?CloseSplitter@ETSOuterSplitter@@UAEXXZ ENDP		; ETSOuterSplitter::CloseSplitter
_TEXT	ENDS
PUBLIC	?ConstrainOffset@ETSOuterSplitter@@MAEXXZ	; ETSOuterSplitter::ConstrainOffset
; Function compile flags: /Odt /RTCsu
_TEXT	SEGMENT
_pWnd$ = -32						; size = 4
_r$ = -24						; size = 16
_this$ = -4						; size = 4
?ConstrainOffset@ETSOuterSplitter@@MAEXXZ PROC NEAR	; ETSOuterSplitter::ConstrainOffset
; _this$ = ecx

; 640  : {

  01850	55		 push	 ebp
  01851	8b ec		 mov	 ebp, esp
  01853	83 ec 20	 sub	 esp, 32			; 00000020H
  01856	56		 push	 esi
  01857	b8 cc cc cc cc	 mov	 eax, -858993460		; ccccccccH
  0185c	89 45 e0	 mov	 DWORD PTR [ebp-32], eax
  0185f	89 45 e4	 mov	 DWORD PTR [ebp-28], eax
  01862	89 45 e8	 mov	 DWORD PTR [ebp-24], eax
  01865	89 45 ec	 mov	 DWORD PTR [ebp-20], eax
  01868	89 45 f0	 mov	 DWORD PTR [ebp-16], eax
  0186b	89 45 f4	 mov	 DWORD PTR [ebp-12], eax
  0186e	89 45 f8	 mov	 DWORD PTR [ebp-8], eax
  01871	89 45 fc	 mov	 DWORD PTR [ebp-4], eax
  01874	89 4d fc	 mov	 DWORD PTR _this$[ebp], ecx

; 641  : 	//
; 642  : 	m_nMouseOffset = m_pane->getOffsetConstrain(this->m_nMouseOffset);

  01877	8b 45 fc	 mov	 eax, DWORD PTR _this$[ebp]
  0187a	8b 48 5c	 mov	 ecx, DWORD PTR [eax+92]
  0187d	51		 push	 ecx
  0187e	8b 55 fc	 mov	 edx, DWORD PTR _this$[ebp]
  01881	8b 8a b0 00 00
	00		 mov	 ecx, DWORD PTR [edx+176]
  01887	e8 00 00 00 00	 call	 ?getOffsetConstrain@PaneSplitter@ETSLayoutMgr@@QAEHH@Z ; ETSLayoutMgr::PaneSplitter::getOffsetConstrain
  0188c	8b 4d fc	 mov	 ecx, DWORD PTR _this$[ebp]
  0188f	89 41 5c	 mov	 DWORD PTR [ecx+92], eax

; 643  : 	
; 644  : 	//
; 645  : 	CRect r;

  01892	8d 4d e8	 lea	 ecx, DWORD PTR _r$[ebp]
  01895	e8 00 00 00 00	 call	 ??0CRect@@QAE@XZ	; CRect::CRect

; 646  : 	CWnd *pWnd = (CWnd*)this->GetParent();

  0189a	8b 4d fc	 mov	 ecx, DWORD PTR _this$[ebp]
  0189d	e8 00 00 00 00	 call	 ?GetParent@CWnd@@QBEPAV1@XZ ; CWnd::GetParent
  018a2	89 45 e0	 mov	 DWORD PTR _pWnd$[ebp], eax

; 647  : 	pWnd->GetWindowRect(&r);

  018a5	8d 55 e8	 lea	 edx, DWORD PTR _r$[ebp]
  018a8	52		 push	 edx
  018a9	8b 4d e0	 mov	 ecx, DWORD PTR _pWnd$[ebp]
  018ac	e8 00 00 00 00	 call	 ?GetWindowRect@CWnd@@QBEXPAUtagRECT@@@Z ; CWnd::GetWindowRect

; 648  : 
; 649  : 	m_pane->setOpenConstrain();

  018b1	8b 45 fc	 mov	 eax, DWORD PTR _this$[ebp]
  018b4	8b 88 b0 00 00
	00		 mov	 ecx, DWORD PTR [eax+176]
  018ba	e8 00 00 00 00	 call	 ?setOpenConstrain@PaneSplitter@ETSLayoutMgr@@QAEXXZ ; ETSLayoutMgr::PaneSplitter::setOpenConstrain

; 650  : 
; 651  : 	if(r.Width() - m_pane->m_nSplOpendPos + m_nMouseOffset < MIN_MAINWND_X)

  018bf	8d 4d e8	 lea	 ecx, DWORD PTR _r$[ebp]
  018c2	e8 00 00 00 00	 call	 ?Width@CRect@@QBEHXZ	; CRect::Width
  018c7	8b 4d fc	 mov	 ecx, DWORD PTR _this$[ebp]
  018ca	8b 91 b0 00 00
	00		 mov	 edx, DWORD PTR [ecx+176]
  018d0	2b 82 8c 00 00
	00		 sub	 eax, DWORD PTR [edx+140]
  018d6	8b 4d fc	 mov	 ecx, DWORD PTR _this$[ebp]
  018d9	03 41 5c	 add	 eax, DWORD PTR [ecx+92]
  018dc	3d 60 02 00 00	 cmp	 eax, 608		; 00000260H
  018e1	7d 25		 jge	 SHORT $L190758

; 652  : 		m_nMouseOffset = MIN_MAINWND_X + m_pane->m_nSplOpendPos - r.Width();

  018e3	8b 55 fc	 mov	 edx, DWORD PTR _this$[ebp]
  018e6	8b 82 b0 00 00
	00		 mov	 eax, DWORD PTR [edx+176]
  018ec	8b b0 8c 00 00
	00		 mov	 esi, DWORD PTR [eax+140]
  018f2	81 c6 60 02 00
	00		 add	 esi, 608		; 00000260H
  018f8	8d 4d e8	 lea	 ecx, DWORD PTR _r$[ebp]
  018fb	e8 00 00 00 00	 call	 ?Width@CRect@@QBEHXZ	; CRect::Width
  01900	2b f0		 sub	 esi, eax
  01902	8b 4d fc	 mov	 ecx, DWORD PTR _this$[ebp]
  01905	89 71 5c	 mov	 DWORD PTR [ecx+92], esi
$L190758:

; 653  : }

  01908	52		 push	 edx
  01909	8b cd		 mov	 ecx, ebp
  0190b	50		 push	 eax
  0190c	8d 15 00 00 00
	00		 lea	 edx, DWORD PTR $L192863
  01912	e8 00 00 00 00	 call	 @_RTC_CheckStackVars@8
  01917	58		 pop	 eax
  01918	5a		 pop	 edx
  01919	5e		 pop	 esi
  0191a	83 c4 20	 add	 esp, 32			; 00000020H
  0191d	3b ec		 cmp	 ebp, esp
  0191f	e8 00 00 00 00	 call	 __RTC_CheckEsp
  01924	8b e5		 mov	 esp, ebp
  01926	5d		 pop	 ebp
  01927	c3		 ret	 0
$L192863:
  01928	01 00 00 00	 DD	 1
  0192c	00 00 00 00	 DD	 $L192862
$L192862:
  01930	e8 ff ff ff	 DD	 -24			; ffffffe8H
  01934	10 00 00 00	 DD	 16			; 00000010H
  01938	00 00 00 00	 DD	 $L192861
$L192861:
  0193c	72		 DB	 114			; 00000072H
  0193d	00		 DB	 0
?ConstrainOffset@ETSOuterSplitter@@MAEXXZ ENDP		; ETSOuterSplitter::ConstrainOffset
_TEXT	ENDS
PUBLIC	?SetMainWndConstrain@ETSOuterSplitter@@QAEXAAH0PAUtagRECT@@_N@Z ; ETSOuterSplitter::SetMainWndConstrain
EXTRN	?ForceResizeOuterPane@PaneSplitter@ETSLayoutMgr@@QAE_NH_N@Z:NEAR ; ETSLayoutMgr::PaneSplitter::ForceResizeOuterPane
; Function compile flags: /Odt /RTCsu
_TEXT	SEGMENT
_delta$190774 = -36					; size = 4
_pWnd$190772 = -32					; size = 4
_r$190771 = -24						; size = 16
_this$ = -4						; size = 4
_minX$ = 8						; size = 4
_minY$ = 12						; size = 4
_lpRect$ = 16						; size = 4
_redraw$ = 20						; size = 1
?SetMainWndConstrain@ETSOuterSplitter@@QAEXAAH0PAUtagRECT@@_N@Z PROC NEAR ; ETSOuterSplitter::SetMainWndConstrain
; _this$ = ecx

; 657  : {

  01940	55		 push	 ebp
  01941	8b ec		 mov	 ebp, esp
  01943	83 ec 24	 sub	 esp, 36			; 00000024H
  01946	b8 cc cc cc cc	 mov	 eax, -858993460		; ccccccccH
  0194b	89 45 dc	 mov	 DWORD PTR [ebp-36], eax
  0194e	89 45 e0	 mov	 DWORD PTR [ebp-32], eax
  01951	89 45 e4	 mov	 DWORD PTR [ebp-28], eax
  01954	89 45 e8	 mov	 DWORD PTR [ebp-24], eax
  01957	89 45 ec	 mov	 DWORD PTR [ebp-20], eax
  0195a	89 45 f0	 mov	 DWORD PTR [ebp-16], eax
  0195d	89 45 f4	 mov	 DWORD PTR [ebp-12], eax
  01960	89 45 f8	 mov	 DWORD PTR [ebp-8], eax
  01963	89 45 fc	 mov	 DWORD PTR [ebp-4], eax
  01966	89 4d fc	 mov	 DWORD PTR _this$[ebp], ecx

; 658  : 	if(m_pane != NULL && !m_pane->IsClosed())

  01969	8b 45 fc	 mov	 eax, DWORD PTR _this$[ebp]
  0196c	83 b8 b0 00 00
	00 00		 cmp	 DWORD PTR [eax+176], 0
  01973	0f 84 ef 00 00
	00		 je	 $L190770
  01979	8b 4d fc	 mov	 ecx, DWORD PTR _this$[ebp]
  0197c	8b 89 b0 00 00
	00		 mov	 ecx, DWORD PTR [ecx+176]
  01982	e8 00 00 00 00	 call	 ?IsClosed@PaneSplitter@ETSLayoutMgr@@QAEHXZ ; ETSLayoutMgr::PaneSplitter::IsClosed
  01987	85 c0		 test	 eax, eax
  01989	0f 85 d9 00 00
	00		 jne	 $L190770

; 659  : 	{
; 660  : 		m_pane->setOpenConstrain();

  0198f	8b 55 fc	 mov	 edx, DWORD PTR _this$[ebp]
  01992	8b 8a b0 00 00
	00		 mov	 ecx, DWORD PTR [edx+176]
  01998	e8 00 00 00 00	 call	 ?setOpenConstrain@PaneSplitter@ETSLayoutMgr@@QAEXXZ ; ETSLayoutMgr::PaneSplitter::setOpenConstrain

; 661  : 
; 662  : 		CRect r;

  0199d	8d 4d e8	 lea	 ecx, DWORD PTR _r$190771[ebp]
  019a0	e8 00 00 00 00	 call	 ??0CRect@@QAE@XZ	; CRect::CRect

; 663  : 		CWnd *pWnd = (CWnd*)this->GetParent();

  019a5	8b 4d fc	 mov	 ecx, DWORD PTR _this$[ebp]
  019a8	e8 00 00 00 00	 call	 ?GetParent@CWnd@@QBEPAV1@XZ ; CWnd::GetParent
  019ad	89 45 e0	 mov	 DWORD PTR _pWnd$190772[ebp], eax

; 664  : 		pWnd->GetWindowRect(&r);

  019b0	8d 45 e8	 lea	 eax, DWORD PTR _r$190771[ebp]
  019b3	50		 push	 eax
  019b4	8b 4d e0	 mov	 ecx, DWORD PTR _pWnd$190772[ebp]
  019b7	e8 00 00 00 00	 call	 ?GetWindowRect@CWnd@@QBEXPAUtagRECT@@@Z ; CWnd::GetWindowRect

; 665  : 
; 666  : 		int delta = MIN_MAINWND_X - (lpRect->right - lpRect->left - m_pane->m_nSplOpendPos);

  019bc	8b 4d 10	 mov	 ecx, DWORD PTR _lpRect$[ebp]
  019bf	8b 55 10	 mov	 edx, DWORD PTR _lpRect$[ebp]
  019c2	8b 41 08	 mov	 eax, DWORD PTR [ecx+8]
  019c5	2b 02		 sub	 eax, DWORD PTR [edx]
  019c7	8b 4d fc	 mov	 ecx, DWORD PTR _this$[ebp]
  019ca	8b 91 b0 00 00
	00		 mov	 edx, DWORD PTR [ecx+176]
  019d0	2b 82 8c 00 00
	00		 sub	 eax, DWORD PTR [edx+140]
  019d6	b9 60 02 00 00	 mov	 ecx, 608		; 00000260H
  019db	2b c8		 sub	 ecx, eax
  019dd	89 4d dc	 mov	 DWORD PTR _delta$190774[ebp], ecx

; 667  : 				
; 668  : 		minX = m_pane->m_nSplOpendPos + MIN_MAINWND_X;

  019e0	8b 55 fc	 mov	 edx, DWORD PTR _this$[ebp]
  019e3	8b 82 b0 00 00
	00		 mov	 eax, DWORD PTR [edx+176]
  019e9	8b 88 8c 00 00
	00		 mov	 ecx, DWORD PTR [eax+140]
  019ef	81 c1 60 02 00
	00		 add	 ecx, 608		; 00000260H
  019f5	8b 55 08	 mov	 edx, DWORD PTR _minX$[ebp]
  019f8	89 0a		 mov	 DWORD PTR [edx], ecx

; 669  : 		if(delta > 0)

  019fa	83 7d dc 00	 cmp	 DWORD PTR _delta$190774[ebp], 0
  019fe	7e 5d		 jle	 SHORT $L190775

; 670  : 		{
; 671  : 			if(redraw)

  01a00	0f b6 45 14	 movzx	 eax, BYTE PTR _redraw$[ebp]
  01a04	85 c0		 test	 eax, eax
  01a06	74 3d		 je	 SHORT $L190776

; 672  : 			{
; 673  : 				m_pane->ForceResizeOuterPane(delta , false);

  01a08	6a 00		 push	 0
  01a0a	8b 4d dc	 mov	 ecx, DWORD PTR _delta$190774[ebp]
  01a0d	51		 push	 ecx
  01a0e	8b 55 fc	 mov	 edx, DWORD PTR _this$[ebp]
  01a11	8b 8a b0 00 00
	00		 mov	 ecx, DWORD PTR [edx+176]
  01a17	e8 00 00 00 00	 call	 ?ForceResizeOuterPane@PaneSplitter@ETSLayoutMgr@@QAE_NH_N@Z ; ETSLayoutMgr::PaneSplitter::ForceResizeOuterPane

; 674  : 				m_pane->setOpenConstrain();	

  01a1c	8b 45 fc	 mov	 eax, DWORD PTR _this$[ebp]
  01a1f	8b 88 b0 00 00
	00		 mov	 ecx, DWORD PTR [eax+176]
  01a25	e8 00 00 00 00	 call	 ?setOpenConstrain@PaneSplitter@ETSLayoutMgr@@QAEXXZ ; ETSLayoutMgr::PaneSplitter::setOpenConstrain

; 675  : 				minX = m_pane->m_nSplOpendPos + MIN_MAINWND_X;

  01a2a	8b 4d fc	 mov	 ecx, DWORD PTR _this$[ebp]
  01a2d	8b 91 b0 00 00
	00		 mov	 edx, DWORD PTR [ecx+176]
  01a33	8b 82 8c 00 00
	00		 mov	 eax, DWORD PTR [edx+140]
  01a39	05 60 02 00 00	 add	 eax, 608		; 00000260H
  01a3e	8b 4d 08	 mov	 ecx, DWORD PTR _minX$[ebp]
  01a41	89 01		 mov	 DWORD PTR [ecx], eax

; 676  : 			}
; 677  : 			else

  01a43	eb 18		 jmp	 SHORT $L190775
$L190776:

; 678  : 			{
; 679  : 				minX = m_pane->GetOuterPaneMinPosition() + MIN_MAINWND_X;

  01a45	8b 55 fc	 mov	 edx, DWORD PTR _this$[ebp]
  01a48	8b 8a b0 00 00
	00		 mov	 ecx, DWORD PTR [edx+176]
  01a4e	e8 00 00 00 00	 call	 ?GetOuterPaneMinPosition@PaneSplitter@ETSLayoutMgr@@QAEHXZ ; ETSLayoutMgr::PaneSplitter::GetOuterPaneMinPosition
  01a53	05 60 02 00 00	 add	 eax, 608		; 00000260H
  01a58	8b 4d 08	 mov	 ecx, DWORD PTR _minX$[ebp]
  01a5b	89 01		 mov	 DWORD PTR [ecx], eax
$L190775:

; 680  : 			}
; 681  : 		}
; 682  : 		minY = MIN_MAINWND_Y;

  01a5d	8b 55 0c	 mov	 edx, DWORD PTR _minY$[ebp]
  01a60	c7 02 a0 01 00
	00		 mov	 DWORD PTR [edx], 416	; 000001a0H

; 683  : 	}
; 684  : 	else

  01a66	eb 12		 jmp	 SHORT $L190769
$L190770:

; 685  : 	{
; 686  : 		minX = MIN_MAINWND_X;

  01a68	8b 45 08	 mov	 eax, DWORD PTR _minX$[ebp]
  01a6b	c7 00 60 02 00
	00		 mov	 DWORD PTR [eax], 608	; 00000260H

; 687  : 		minY = MIN_MAINWND_Y;

  01a71	8b 4d 0c	 mov	 ecx, DWORD PTR _minY$[ebp]
  01a74	c7 01 a0 01 00
	00		 mov	 DWORD PTR [ecx], 416	; 000001a0H
$L190769:

; 688  : 	}
; 689  : }

  01a7a	52		 push	 edx
  01a7b	8b cd		 mov	 ecx, ebp
  01a7d	50		 push	 eax
  01a7e	8d 15 00 00 00
	00		 lea	 edx, DWORD PTR $L192867
  01a84	e8 00 00 00 00	 call	 @_RTC_CheckStackVars@8
  01a89	58		 pop	 eax
  01a8a	5a		 pop	 edx
  01a8b	83 c4 24	 add	 esp, 36			; 00000024H
  01a8e	3b ec		 cmp	 ebp, esp
  01a90	e8 00 00 00 00	 call	 __RTC_CheckEsp
  01a95	8b e5		 mov	 esp, ebp
  01a97	5d		 pop	 ebp
  01a98	c2 10 00	 ret	 16			; 00000010H
$L192867:
  01a9b	01 00 00 00	 DD	 1
  01a9f	00 00 00 00	 DD	 $L192866
$L192866:
  01aa3	e8 ff ff ff	 DD	 -24			; ffffffe8H
  01aa7	10 00 00 00	 DD	 16			; 00000010H
  01aab	00 00 00 00	 DD	 $L192865
$L192865:
  01aaf	72		 DB	 114			; 00000072H
  01ab0	00		 DB	 0
?SetMainWndConstrain@ETSOuterSplitter@@QAEXAAH0PAUtagRECT@@_N@Z ENDP ; ETSOuterSplitter::SetMainWndConstrain
_TEXT	ENDS
EXTRN	?OnShowWindow@CWnd@@IAEXHI@Z:NEAR		; CWnd::OnShowWindow
; Function compile flags: /Odt /RTCsu
_TEXT	SEGMENT
_this$ = -4						; size = 4
_bShow$ = 8						; size = 4
_nStatus$ = 12						; size = 4
?OnShowWindow@ETSSplitter@@IAEXHI@Z PROC NEAR		; ETSSplitter::OnShowWindow
; _this$ = ecx

; 725  : {

  01ac0	55		 push	 ebp
  01ac1	8b ec		 mov	 ebp, esp
  01ac3	51		 push	 ecx
  01ac4	c7 45 fc cc cc
	cc cc		 mov	 DWORD PTR [ebp-4], -858993460 ; ccccccccH
  01acb	89 4d fc	 mov	 DWORD PTR _this$[ebp], ecx

; 726  : 	CWnd::OnShowWindow(bShow, nStatus);

  01ace	8b 45 0c	 mov	 eax, DWORD PTR _nStatus$[ebp]
  01ad1	50		 push	 eax
  01ad2	8b 4d 08	 mov	 ecx, DWORD PTR _bShow$[ebp]
  01ad5	51		 push	 ecx
  01ad6	8b 4d fc	 mov	 ecx, DWORD PTR _this$[ebp]
  01ad9	e8 00 00 00 00	 call	 ?OnShowWindow@CWnd@@IAEXHI@Z ; CWnd::OnShowWindow

; 727  : }

  01ade	83 c4 04	 add	 esp, 4
  01ae1	3b ec		 cmp	 ebp, esp
  01ae3	e8 00 00 00 00	 call	 __RTC_CheckEsp
  01ae8	8b e5		 mov	 esp, ebp
  01aea	5d		 pop	 ebp
  01aeb	c2 08 00	 ret	 8
?OnShowWindow@ETSSplitter@@IAEXHI@Z ENDP		; ETSSplitter::OnShowWindow
_TEXT	ENDS
END
