; Listing generated by Microsoft (R) Optimizing Compiler Version 13.10.3077 

	TITLE	.\src\Gui\CommonControl\FlashLoadingWnd.cpp
	.386P
include listing.inc
if @Version gt 510
.model FLAT
else
_TEXT	SEGMENT PARA USE32 PUBLIC 'CODE'
_TEXT	ENDS
_DATA	SEGMENT DWORD USE32 PUBLIC 'DATA'
_DATA	ENDS
CONST	SEGMENT DWORD USE32 PUBLIC 'CONST'
CONST	ENDS
_BSS	SEGMENT DWORD USE32 PUBLIC 'BSS'
_BSS	ENDS
$$SYMBOLS	SEGMENT BYTE USE32 'DEBSYM'
$$SYMBOLS	ENDS
_TLS	SEGMENT DWORD USE32 PUBLIC 'TLS'
_TLS	ENDS
;	COMDAT ??_C@_08OLHMJGAF@stop?4swf?$AA@
CONST	SEGMENT DWORD USE32 PUBLIC 'CONST'
CONST	ENDS
;	COMDAT ??_C@_0M@DBEKFKCI@loading?4swf?$AA@
CONST	SEGMENT DWORD USE32 PUBLIC 'CONST'
CONST	ENDS
;	COMDAT ??_C@_0BH@PCLJNBEP@?2Resources?2StandardUI?2?$AA@
CONST	SEGMENT DWORD USE32 PUBLIC 'CONST'
CONST	ENDS
;	COMDAT ??_C@_0EN@IBFBLEEG@D?3?2Program?5Files?5?$CIx86?$CJ?2Microsoft@
CONST	SEGMENT DWORD USE32 PUBLIC 'CONST'
CONST	ENDS
rdata$r	SEGMENT DWORD USE32 PUBLIC 'CONST'
rdata$r	ENDS
xdata$x	SEGMENT DWORD USE32 PUBLIC 'CONST'
xdata$x	ENDS
text$AFX_COL1	SEGMENT PARA USE32 PUBLIC ''
text$AFX_COL1	ENDS
text$yc	SEGMENT PARA USE32 PUBLIC 'CODE'
text$yc	ENDS
CRT$XCA	SEGMENT DWORD USE32 PUBLIC 'DATA'
CRT$XCA	ENDS
CRT$XCU	SEGMENT DWORD USE32 PUBLIC 'DATA'
CRT$XCU	ENDS
CRT$XCL	SEGMENT DWORD USE32 PUBLIC 'DATA'
CRT$XCL	ENDS
CRT$XCC	SEGMENT DWORD USE32 PUBLIC 'DATA'
CRT$XCC	ENDS
CRT$XCZ	SEGMENT DWORD USE32 PUBLIC 'DATA'
CRT$XCZ	ENDS
text$yd	SEGMENT PARA USE32 PUBLIC 'CODE'
text$yd	ENDS
ATL$__m	SEGMENT DWORD USE32 PUBLIC ''
ATL$__m	ENDS
ATL$__z	SEGMENT DWORD USE32 PUBLIC ''
ATL$__z	ENDS
ATL$__a	SEGMENT DWORD USE32 PUBLIC ''
ATL$__a	ENDS
;	COMDAT ?GetClsid@CShockwaveFlash@@QAEABU_GUID@@XZ
_TEXT	SEGMENT PARA USE32 PUBLIC 'CODE'
_TEXT	ENDS
;	COMDAT ?Create@CShockwaveFlash@@UAEHPBD0KABUtagRECT@@PAVCWnd@@IPAUCCreateContext@@@Z
_TEXT	SEGMENT PARA USE32 PUBLIC 'CODE'
_TEXT	ENDS
;	COMDAT ?Create@CShockwaveFlash@@QAEHPBDKABUtagRECT@@PAVCWnd@@IPAVCFile@@HPA_W@Z
_TEXT	SEGMENT PARA USE32 PUBLIC 'CODE'
_TEXT	ENDS
;	COMDAT ?Net_Loading@GlobalSwfPath@@SA?AV?$CStringT@DV?$StrTraitMFC_DLL@DV?$ChTraitsCRT@D@ATL@@@@@ATL@@XZ
_TEXT	SEGMENT PARA USE32 PUBLIC 'CODE'
_TEXT	ENDS
;	COMDAT ?GetSwfPath@GlobalSwfPath@@SA?AV?$CStringT@DV?$StrTraitMFC_DLL@DV?$ChTraitsCRT@D@ATL@@@@@ATL@@XZ
_TEXT	SEGMENT PARA USE32 PUBLIC 'CODE'
_TEXT	ENDS
;	COMDAT ??_GCFlashWnd@@UAEPAXI@Z
_TEXT	SEGMENT PARA USE32 PUBLIC 'CODE'
_TEXT	ENDS
;	COMDAT ??0CShockwaveFlash@@QAE@XZ
_TEXT	SEGMENT PARA USE32 PUBLIC 'CODE'
_TEXT	ENDS
;	COMDAT ??1CShockwaveFlash@@UAE@XZ
_TEXT	SEGMENT PARA USE32 PUBLIC 'CODE'
_TEXT	ENDS
;	COMDAT ??_GCShockwaveFlash@@UAEPAXI@Z
_TEXT	SEGMENT PARA USE32 PUBLIC 'CODE'
_TEXT	ENDS
;	COMDAT ??HATL@@YA?AV?$CStringT@DV?$StrTraitMFC_DLL@DV?$ChTraitsCRT@D@ATL@@@@@0@ABV10@PBD@Z
_TEXT	SEGMENT PARA USE32 PUBLIC 'CODE'
_TEXT	ENDS
;	COMDAT ??B?$CComPtrBase@UITypeInfo2@@@ATL@@QBEPAUITypeInfo2@@XZ
_TEXT	SEGMENT PARA USE32 PUBLIC 'CODE'
_TEXT	ENDS
;	COMDAT ?equal@?$istreambuf_iterator@DU?$char_traits@D@std@@@std@@QBE_NABV12@@Z
_TEXT	SEGMENT PARA USE32 PUBLIC 'CODE'
_TEXT	ENDS
;	COMDAT ?equal@?$istreambuf_iterator@_WU?$char_traits@_W@std@@@std@@QBE_NABV12@@Z
_TEXT	SEGMENT PARA USE32 PUBLIC 'CODE'
_TEXT	ENDS
;	COMDAT ?Unlock@?$CComCritSecLock@VCComCriticalSection@ATL@@@ATL@@QAEXXZ
_TEXT	SEGMENT PARA USE32 PUBLIC 'CODE'
_TEXT	ENDS
;	COMDAT ??$_Maklocstr@D@std@@YAPADPBDPADABU_Cvtvec@@@Z
_TEXT	SEGMENT PARA USE32 PUBLIC 'CODE'
_TEXT	ENDS
;	COMDAT ??_R3CShockwaveFlash@@8
rdata$r	SEGMENT DWORD USE32 PUBLIC 'CONST'
rdata$r	ENDS
;	COMDAT ??_R3?$numpunct@_W@std@@8
rdata$r	SEGMENT DWORD USE32 PUBLIC 'CONST'
rdata$r	ENDS
;	COMDAT ??_R3?$numpunct@D@std@@8
rdata$r	SEGMENT DWORD USE32 PUBLIC 'CONST'
rdata$r	ENDS
;	COMDAT ??_R3CFlashWnd@@8
rdata$r	SEGMENT DWORD USE32 PUBLIC 'CONST'
rdata$r	ENDS
;	COMDAT ??_R2CShockwaveFlash@@8
rdata$r	SEGMENT DWORD USE32 PUBLIC 'CONST'
rdata$r	ENDS
;	COMDAT ??_R2?$numpunct@_W@std@@8
rdata$r	SEGMENT DWORD USE32 PUBLIC 'CONST'
rdata$r	ENDS
;	COMDAT ??_R2?$numpunct@D@std@@8
rdata$r	SEGMENT DWORD USE32 PUBLIC 'CONST'
rdata$r	ENDS
;	COMDAT ??_R2CFlashWnd@@8
rdata$r	SEGMENT DWORD USE32 PUBLIC 'CONST'
rdata$r	ENDS
;	COMDAT ??_R1A@?0A@A@CShockwaveFlash@@8
rdata$r	SEGMENT DWORD USE32 PUBLIC 'CONST'
rdata$r	ENDS
;	COMDAT ??_R1A@?0A@A@?$numpunct@_W@std@@8
rdata$r	SEGMENT DWORD USE32 PUBLIC 'CONST'
rdata$r	ENDS
;	COMDAT ??_R1A@?0A@A@facet@locale@std@@8
rdata$r	SEGMENT DWORD USE32 PUBLIC 'CONST'
rdata$r	ENDS
;	COMDAT ??_R0?AVfacet@locale@std@@@8
_DATA	SEGMENT DWORD USE32 PUBLIC 'DATA'
_DATA	ENDS
;	COMDAT ??_R1A@?0A@A@?$numpunct@D@std@@8
rdata$r	SEGMENT DWORD USE32 PUBLIC 'CONST'
rdata$r	ENDS
;	COMDAT ??_R1A@?0A@A@CObject@@8
rdata$r	SEGMENT DWORD USE32 PUBLIC 'CONST'
rdata$r	ENDS
;	COMDAT ??_R0?AVCObject@@@8
_DATA	SEGMENT DWORD USE32 PUBLIC 'DATA'
_DATA	ENDS
;	COMDAT ??_R1A@?0A@A@CCmdTarget@@8
rdata$r	SEGMENT DWORD USE32 PUBLIC 'CONST'
rdata$r	ENDS
;	COMDAT ??_R0?AVCCmdTarget@@@8
_DATA	SEGMENT DWORD USE32 PUBLIC 'DATA'
_DATA	ENDS
;	COMDAT ??_R1A@?0A@A@CWnd@@8
rdata$r	SEGMENT DWORD USE32 PUBLIC 'CONST'
rdata$r	ENDS
;	COMDAT ??_R0?AVCWnd@@@8
_DATA	SEGMENT DWORD USE32 PUBLIC 'DATA'
_DATA	ENDS
;	COMDAT ??_R1A@?0A@A@CFlashWnd@@8
rdata$r	SEGMENT DWORD USE32 PUBLIC 'CONST'
rdata$r	ENDS
;	COMDAT ??_R0?AVCShockwaveFlash@@@8
_DATA	SEGMENT DWORD USE32 PUBLIC 'DATA'
_DATA	ENDS
;	COMDAT ??_R0?AV?$numpunct@_W@std@@@8
_DATA	SEGMENT DWORD USE32 PUBLIC 'DATA'
_DATA	ENDS
;	COMDAT ??_R0?AV?$numpunct@D@std@@@8
_DATA	SEGMENT DWORD USE32 PUBLIC 'DATA'
_DATA	ENDS
;	COMDAT ??_R0?AVCFlashWnd@@@8
_DATA	SEGMENT DWORD USE32 PUBLIC 'DATA'
_DATA	ENDS
;	COMDAT ??_R4CShockwaveFlash@@6B@
rdata$r	SEGMENT DWORD USE32 PUBLIC 'CONST'
rdata$r	ENDS
;	COMDAT ??0?$allocator@_W@std@@QAE@XZ
_TEXT	SEGMENT PARA USE32 PUBLIC 'CODE'
_TEXT	ENDS
;	COMDAT ??0?$allocator@D@std@@QAE@ABV01@@Z
_TEXT	SEGMENT PARA USE32 PUBLIC 'CODE'
_TEXT	ENDS
;	COMDAT ??0?$allocator@D@std@@QAE@XZ
_TEXT	SEGMENT PARA USE32 PUBLIC 'CODE'
_TEXT	ENDS
;	COMDAT ?deallocate@?$allocator@D@std@@QAEXPADI@Z
_TEXT	SEGMENT PARA USE32 PUBLIC 'CODE'
_TEXT	ENDS
;	COMDAT ?max_size@?$allocator@D@std@@QBEIXZ
_TEXT	SEGMENT PARA USE32 PUBLIC 'CODE'
_TEXT	ENDS
;	COMDAT ?allocate@?$allocator@D@std@@QAEPADI@Z
_TEXT	SEGMENT PARA USE32 PUBLIC 'CODE'
_TEXT	ENDS
;	COMDAT ??$_Allocate@D@std@@YAPADIPAD@Z
_TEXT	SEGMENT PARA USE32 PUBLIC 'CODE'
_TEXT	ENDS
;	COMDAT ??_G?$numpunct@_W@std@@MAEPAXI@Z
_TEXT	SEGMENT PARA USE32 PUBLIC 'CODE'
_TEXT	ENDS
;	COMDAT ??_R4?$numpunct@_W@std@@6B@
rdata$r	SEGMENT DWORD USE32 PUBLIC 'CONST'
rdata$r	ENDS
;	COMDAT ??_G?$numpunct@D@std@@MAEPAXI@Z
_TEXT	SEGMENT PARA USE32 PUBLIC 'CODE'
_TEXT	ENDS
;	COMDAT ??_R4?$numpunct@D@std@@6B@
rdata$r	SEGMENT DWORD USE32 PUBLIC 'CONST'
rdata$r	ENDS
;	COMDAT ??_R4CFlashWnd@@6B@
rdata$r	SEGMENT DWORD USE32 PUBLIC 'CONST'
rdata$r	ENDS
;	COMDAT ??_C@_0EN@CBMLGOH@D?3?2Program?5Files?5?$CIx86?$CJ?2Microsoft@
CONST	SEGMENT DWORD USE32 PUBLIC 'CONST'
CONST	ENDS
;	COMDAT ?_Psave@?$_Facetptr@V?$numpunct@_W@std@@@std@@2PBVfacet@locale@2@B
_DATA	SEGMENT DWORD USE32 PUBLIC 'DATA'
_DATA	ENDS
;	COMDAT ?_Psave@?$_Facetptr@V?$numpunct@D@std@@@std@@2PBVfacet@locale@2@B
_DATA	SEGMENT DWORD USE32 PUBLIC 'DATA'
_DATA	ENDS
;	COMDAT ?Unlock@CComCriticalSection@ATL@@QAEJXZ
_TEXT	SEGMENT PARA USE32 PUBLIC 'CODE'
_TEXT	ENDS
;	COMDAT ??_C@_0FG@LDNDNCJM@D?3?2Program?5Files?5?$CIx86?$CJ?2Microsoft@
CONST	SEGMENT DWORD USE32 PUBLIC 'CONST'
CONST	ENDS
;	COMDAT ??_C@_09HIEJFN@m_bLocked?$AA@
CONST	SEGMENT DWORD USE32 PUBLIC 'CONST'
CONST	ENDS
;	COMDAT ?_Psave@?$_Facetptr@V?$ctype@_W@std@@@std@@2PBVfacet@locale@2@B
_DATA	SEGMENT DWORD USE32 PUBLIC 'DATA'
_DATA	ENDS
;	COMDAT ?_Psave@?$_Facetptr@V?$ctype@D@std@@@std@@2PBVfacet@locale@2@B
_DATA	SEGMENT DWORD USE32 PUBLIC 'DATA'
_DATA	ENDS
;	COMDAT ??$_Maklocchr@_W@std@@YA_WDPA_WABU_Cvtvec@@@Z
_TEXT	SEGMENT PARA USE32 PUBLIC 'CODE'
_TEXT	ENDS
;	COMDAT ??$_DebugHeapDelete@X@std@@YAXPAX@Z
_TEXT	SEGMENT PARA USE32 PUBLIC 'CODE'
_TEXT	ENDS
;	COMDAT ??$_Maklocstr@_W@std@@YAPA_WPBDPA_WABU_Cvtvec@@@Z
_TEXT	SEGMENT PARA USE32 PUBLIC 'CODE'
_TEXT	ENDS
;	COMDAT ??$_Maklocchr@D@std@@YADDPADABU_Cvtvec@@@Z
_TEXT	SEGMENT PARA USE32 PUBLIC 'CODE'
_TEXT	ENDS
;	COMDAT ??_C@_04LOAJBDKD@true?$AA@
CONST	SEGMENT DWORD USE32 PUBLIC 'CONST'
CONST	ENDS
;	COMDAT ??_C@_05LAPONLG@false?$AA@
CONST	SEGMENT DWORD USE32 PUBLIC 'CONST'
CONST	ENDS
;	COMDAT _wmemcpy
_TEXT	SEGMENT PARA USE32 PUBLIC 'CODE'
_TEXT	ENDS
;	COMDAT ?max_size@?$allocator@_W@std@@QBEIXZ
_TEXT	SEGMENT PARA USE32 PUBLIC 'CODE'
_TEXT	ENDS
;	COMDAT ?allocate@?$allocator@_W@std@@QAEPA_WI@Z
_TEXT	SEGMENT PARA USE32 PUBLIC 'CODE'
_TEXT	ENDS
;	COMDAT ??$_Allocate@_W@std@@YAPA_WIPA_W@Z
_TEXT	SEGMENT PARA USE32 PUBLIC 'CODE'
_TEXT	ENDS
;	COMDAT ??_C@_01GFHCPBMG@C?$AA@
CONST	SEGMENT DWORD USE32 PUBLIC 'CONST'
CONST	ENDS
;	COMDAT ?Release@CStringData@ATL@@QAEXXZ
_TEXT	SEGMENT PARA USE32 PUBLIC 'CODE'
_TEXT	ENDS
;	COMDAT ??_C@_0L@OIIMFBNE@nRefs?5?$CB?$DN?50?$AA@
CONST	SEGMENT DWORD USE32 PUBLIC 'CONST'
CONST	ENDS
;	COMDAT ??_C@_0FJ@DMHPDOJC@D?3?2Program?5Files?5?$CIx86?$CJ?2Microsoft@
CONST	SEGMENT DWORD USE32 PUBLIC 'CONST'
CONST	ENDS
;	COMDAT ??_C@_0BA@GOIMFHNK@pStringMgr?5?$CB?$DN?50?$AA@
CONST	SEGMENT DWORD USE32 PUBLIC 'CONST'
CONST	ENDS
;	COMDAT ?data@CStringData@ATL@@QAEPAXXZ
_TEXT	SEGMENT PARA USE32 PUBLIC 'CODE'
_TEXT	ENDS
;	COMDAT ??_C@_0BA@GNIEOBOF@nNewLength?5?$DO?$DN?50?$AA@
CONST	SEGMENT DWORD USE32 PUBLIC 'CONST'
CONST	ENDS
;	COMDAT ??_C@_0N@ILOMLJGA@nLength?5?$DO?$DN?50?$AA@
CONST	SEGMENT DWORD USE32 PUBLIC 'CONST'
CONST	ENDS
;	COMDAT ??_C@_0CD@EEFFJEGJ@nLength?5?$DM?$DN?5GetData?$CI?$CJ?9?$DOnAllocLeng@
CONST	SEGMENT DWORD USE32 PUBLIC 'CONST'
CONST	ENDS
;	COMDAT ?AtlThrow@ATL@@YGXJ@Z
_TEXT	SEGMENT PARA USE32 PUBLIC 'CODE'
_TEXT	ENDS
;	COMDAT ??RCTraceFileAndLineInfo@ATL@@QBAXKIPBDZZ
_TEXT	SEGMENT PARA USE32 PUBLIC 'CODE'
_TEXT	ENDS
;	COMDAT ?TraceV@CTrace@ATL@@QBAXPBDHKI0PAD@Z
_TEXT	SEGMENT PARA USE32 PUBLIC 'CODE'
_TEXT	ENDS
;	COMDAT ??0CTraceFileAndLineInfo@ATL@@QAE@PBDH@Z
_TEXT	SEGMENT PARA USE32 PUBLIC 'CODE'
_TEXT	ENDS
;	COMDAT ??_C@_0FI@NHHJANPC@D?3?2Program?5Files?5?$CIx86?$CJ?2Microsoft@
CONST	SEGMENT DWORD USE32 PUBLIC 'CONST'
CONST	ENDS
;	COMDAT ??_C@_0BF@IAAKIJDJ@AtlThrow?3?5hr?5?$DN?50x?$CFx?6?$AA@
CONST	SEGMENT DWORD USE32 PUBLIC 'CONST'
CONST	ENDS
;	COMDAT ??BCTraceCategory@ATL@@QBEKXZ
_TEXT	SEGMENT PARA USE32 PUBLIC 'CODE'
_TEXT	ENDS
;	COMDAT ?IsShared@CStringData@ATL@@QBE_NXZ
_TEXT	SEGMENT PARA USE32 PUBLIC 'CODE'
_TEXT	ENDS
;	COMDAT ??_C@_0CB@GFHAPKDK@pOldData?9?$DOnAllocLength?5?$DM?5nLength@
CONST	SEGMENT DWORD USE32 PUBLIC 'CONST'
CONST	ENDS
;	COMDAT ?_Peek@?$istreambuf_iterator@_WU?$char_traits@_W@std@@@std@@AAE_WXZ
_TEXT	SEGMENT PARA USE32 PUBLIC 'CODE'
_TEXT	ENDS
;	COMDAT ?_Peek@?$istreambuf_iterator@DU?$char_traits@D@std@@@std@@AAEDXZ
_TEXT	SEGMENT PARA USE32 PUBLIC 'CODE'
_TEXT	ENDS
;	COMDAT ??$use_facet@V?$ctype@_W@std@@@std@@YAABV?$ctype@_W@0@ABVlocale@0@@Z
_TEXT	SEGMENT PARA USE32 PUBLIC 'CODE'
_TEXT	ENDS
;	COMDAT ??_S?$ctype@_W@std@@6B@
CONST	SEGMENT DWORD USE32 PUBLIC 'CONST'
CONST	ENDS
;	COMDAT ??_R4?$ctype@_W@std@@6B@
rdata$r	SEGMENT DWORD USE32 PUBLIC 'CONST'
rdata$r	ENDS
;	COMDAT ??_R0?AV?$ctype@_W@std@@@8
_DATA	SEGMENT DWORD USE32 PUBLIC 'DATA'
_DATA	ENDS
;	COMDAT ??_R3?$ctype@_W@std@@8
rdata$r	SEGMENT DWORD USE32 PUBLIC 'CONST'
rdata$r	ENDS
;	COMDAT ??_R2?$ctype@_W@std@@8
rdata$r	SEGMENT DWORD USE32 PUBLIC 'CONST'
rdata$r	ENDS
;	COMDAT ??_R1A@?0A@A@?$ctype@_W@std@@8
rdata$r	SEGMENT DWORD USE32 PUBLIC 'CONST'
rdata$r	ENDS
;	COMDAT ??_R1A@?0A@A@ctype_base@std@@8
rdata$r	SEGMENT DWORD USE32 PUBLIC 'CONST'
rdata$r	ENDS
;	COMDAT ??_R0?AUctype_base@std@@@8
_DATA	SEGMENT DWORD USE32 PUBLIC 'DATA'
_DATA	ENDS
;	COMDAT ??_G?$ctype@_W@std@@MAEPAXI@Z
_TEXT	SEGMENT PARA USE32 PUBLIC 'CODE'
_TEXT	ENDS
;	COMDAT ??_C@_08EPJLHIJG@bad?5cast?$AA@
CONST	SEGMENT DWORD USE32 PUBLIC 'CONST'
CONST	ENDS
;	COMDAT __TI2?AVbad_cast@@
xdata$x	SEGMENT DWORD USE32 PUBLIC 'CONST'
xdata$x	ENDS
;	COMDAT __CTA2?AVbad_cast@@
xdata$x	SEGMENT DWORD USE32 PUBLIC 'CONST'
xdata$x	ENDS
;	COMDAT __CT??_R0?AVbad_cast@@@8??0bad_cast@@QAE@ABV0@@Z12
xdata$x	SEGMENT DWORD USE32 PUBLIC 'CONST'
xdata$x	ENDS
;	COMDAT ??_R0?AVbad_cast@@@8
_DATA	SEGMENT DWORD USE32 PUBLIC 'DATA'
_DATA	ENDS
;	COMDAT __CT??_R0?AVexception@@@8??0exception@@QAE@ABV0@@Z12
xdata$x	SEGMENT DWORD USE32 PUBLIC 'CONST'
xdata$x	ENDS
;	COMDAT ??_R0?AVexception@@@8
_DATA	SEGMENT DWORD USE32 PUBLIC 'DATA'
_DATA	ENDS
;	COMDAT ??$_DebugHeapDelete@Vfacet@locale@std@@@std@@YAXPAVfacet@locale@0@@Z
_TEXT	SEGMENT PARA USE32 PUBLIC 'CODE'
_TEXT	ENDS
;	COMDAT ??$use_facet@V?$ctype@D@std@@@std@@YAABV?$ctype@D@0@ABVlocale@0@@Z
_TEXT	SEGMENT PARA USE32 PUBLIC 'CODE'
_TEXT	ENDS
;	COMDAT ??_S?$ctype@D@std@@6B@
CONST	SEGMENT DWORD USE32 PUBLIC 'CONST'
CONST	ENDS
;	COMDAT ??_R4?$ctype@D@std@@6B@
rdata$r	SEGMENT DWORD USE32 PUBLIC 'CONST'
rdata$r	ENDS
;	COMDAT ??_R0?AV?$ctype@D@std@@@8
_DATA	SEGMENT DWORD USE32 PUBLIC 'DATA'
_DATA	ENDS
;	COMDAT ??_R3?$ctype@D@std@@8
rdata$r	SEGMENT DWORD USE32 PUBLIC 'CONST'
rdata$r	ENDS
;	COMDAT ??_R2?$ctype@D@std@@8
rdata$r	SEGMENT DWORD USE32 PUBLIC 'CONST'
rdata$r	ENDS
;	COMDAT ??_R1A@?0A@A@?$ctype@D@std@@8
rdata$r	SEGMENT DWORD USE32 PUBLIC 'CONST'
rdata$r	ENDS
;	COMDAT ??_G?$ctype@D@std@@MAEPAXI@Z
_TEXT	SEGMENT PARA USE32 PUBLIC 'CODE'
_TEXT	ENDS
;	COMDAT ??_S?$numpunct@_W@std@@6B@
CONST	SEGMENT DWORD USE32 PUBLIC 'CONST'
CONST	ENDS
;	COMDAT ??_S?$numpunct@D@std@@6B@
CONST	SEGMENT DWORD USE32 PUBLIC 'CONST'
CONST	ENDS
;	COMDAT _wmemmove
_TEXT	SEGMENT PARA USE32 PUBLIC 'CODE'
_TEXT	ENDS
;	COMDAT ?deallocate@?$allocator@_W@std@@QAEXPA_WI@Z
_TEXT	SEGMENT PARA USE32 PUBLIC 'CODE'
_TEXT	ENDS
;	COMDAT ??0?$allocator@_W@std@@QAE@ABV01@@Z
_TEXT	SEGMENT PARA USE32 PUBLIC 'CODE'
_TEXT	ENDS
;	COMDAT ?IsLocked@CStringData@ATL@@QBE_NXZ
_TEXT	SEGMENT PARA USE32 PUBLIC 'CODE'
_TEXT	ENDS
;	COMDAT ?AddRef@CStringData@ATL@@QAEXXZ
_TEXT	SEGMENT PARA USE32 PUBLIC 'CODE'
_TEXT	ENDS
;	COMDAT ??_C@_09EEBKLCFA@nRefs?5?$DO?50?$AA@
CONST	SEGMENT DWORD USE32 PUBLIC 'CONST'
CONST	ENDS
;	COMDAT ?_messageEntries@CFlashWnd@@0QBUAFX_MSGMAP_ENTRY@@B
CONST	SEGMENT DWORD USE32 PUBLIC 'CONST'
CONST	ENDS
;	COMDAT ?messageMap@CFlashWnd@@1UAFX_MSGMAP@@B
CONST	SEGMENT DWORD USE32 PUBLIC 'CONST'
CONST	ENDS
;	COMDAT ??_7CShockwaveFlash@@6B@
CONST	SEGMENT DWORD USE32 PUBLIC 'CONST'
CONST	ENDS
;	COMDAT ??_7CFlashWnd@@6B@
CONST	SEGMENT DWORD USE32 PUBLIC 'CONST'
CONST	ENDS
;	COMDAT ?classCFlashWnd@CFlashWnd@@2UCRuntimeClass@@B
CONST	SEGMENT DWORD USE32 PUBLIC 'CONST'
CONST	ENDS
;	COMDAT ??_C@_00CNPNBAHC@?$AA@
CONST	SEGMENT DWORD USE32 PUBLIC 'CONST'
CONST	ENDS
;	COMDAT ?GetDefaultManager@?$StrTraitMFC_DLL@DV?$ChTraitsCRT@D@ATL@@@@SAPAUIAtlStringMgr@ATL@@XZ
_TEXT	SEGMENT PARA USE32 PUBLIC 'CODE'
_TEXT	ENDS
;	COMDAT ?FindStringResourceInstance@?$StrTraitMFC_DLL@DV?$ChTraitsCRT@D@ATL@@@@SAPAUHINSTANCE__@@I@Z
_TEXT	SEGMENT PARA USE32 PUBLIC 'CODE'
_TEXT	ENDS
;	COMDAT ?AtlGetStringResourceImage@ATL@@YAPBUATLSTRINGRESOURCEIMAGE@1@PAUHINSTANCE__@@I@Z
_TEXT	SEGMENT PARA USE32 PUBLIC 'CODE'
_TEXT	ENDS
;	COMDAT ?_AtlGetStringResourceImage@ATL@@YAPBUATLSTRINGRESOURCEIMAGE@1@PAUHINSTANCE__@@PAUHRSRC__@@I@Z
_TEXT	SEGMENT PARA USE32 PUBLIC 'CODE'
_TEXT	ENDS
;	COMDAT ?GetBaseTypeLength@?$ChTraitsCRT@D@ATL@@SAHPB_WH@Z
_TEXT	SEGMENT PARA USE32 PUBLIC 'CODE'
_TEXT	ENDS
;	COMDAT ?_AtlGetConversionACP@ATL@@YGIXZ
_TEXT	SEGMENT PARA USE32 PUBLIC 'CODE'
_TEXT	ENDS
;	COMDAT ?g_pfnGetThreadACP@ATL@@3P6GIXZA
_DATA	SEGMENT DWORD USE32 PUBLIC 'DATA'
_DATA	ENDS
;	COMDAT ?_AtlGetThreadACPThunk@ATL@@YGIXZ
_TEXT	SEGMENT PARA USE32 PUBLIC 'CODE'
_TEXT	ENDS
;	COMDAT ?_AtlGetThreadACPReal@ATL@@YGIXZ
_TEXT	SEGMENT PARA USE32 PUBLIC 'CODE'
_TEXT	ENDS
;	COMDAT ?_AtlGetThreadACPFake@ATL@@YGIXZ
_TEXT	SEGMENT PARA USE32 PUBLIC 'CODE'
_TEXT	ENDS
;	COMDAT ?InterlockedExchangePointer@@YGPAXPAPAXPAX@Z
_TEXT	SEGMENT PARA USE32 PUBLIC 'CODE'
_TEXT	ENDS
;	COMDAT ?ConvertToBaseType@?$ChTraitsCRT@D@ATL@@SAXPADHPB_WH@Z
_TEXT	SEGMENT PARA USE32 PUBLIC 'CODE'
_TEXT	ENDS
;	COMDAT ??_C@_0FH@KDPNIMBO@D?3?2Program?5Files?5?$CIx86?$CJ?2Microsoft@
CONST	SEGMENT DWORD USE32 PUBLIC 'CONST'
CONST	ENDS
;	COMDAT ??_C@_0CJ@FJEKGMMD@Warning?3?5implicit?5LoadString?$CI?$CFu?$CJ@
CONST	SEGMENT DWORD USE32 PUBLIC 'CONST'
CONST	ENDS
;	COMDAT ?clsid@?1??GetClsid@CShockwaveFlash@@QAEABU_GUID@@XZ@4U3@B
CONST	SEGMENT DWORD USE32 PUBLIC 'CONST'
CONST	ENDS
sxdata	SEGMENT DWORD USE32 'SXDATA'
sxdata	ENDS
FLAT	GROUP _DATA, CONST, _BSS
	ASSUME	CS: FLAT, DS: FLAT, SS: FLAT
endif

INCLUDELIB MSVCRTD
INCLUDELIB OLDNAMES

PUBLIC	?g_pfnGetThreadACP@ATL@@3P6GIXZA		; ATL::g_pfnGetThreadACP
PUBLIC	?_AtlGetThreadACPThunk@ATL@@YGIXZ		; ATL::_AtlGetThreadACPThunk
PUBLIC	?classCFlashWnd@CFlashWnd@@2UCRuntimeClass@@B	; CFlashWnd::classCFlashWnd
PUBLIC	?OnCreate@CFlashWnd@@QAEHPAUtagCREATESTRUCTA@@@Z ; CFlashWnd::OnCreate
PUBLIC	?OnPaint@CFlashWnd@@QAEXXZ			; CFlashWnd::OnPaint
PUBLIC	?OnSize@CFlashWnd@@QAEXIHH@Z			; CFlashWnd::OnSize
PUBLIC	?_messageEntries@CFlashWnd@@0QBUAFX_MSGMAP_ENTRY@@B ; CFlashWnd::_messageEntries
PUBLIC	?messageMap@CFlashWnd@@1UAFX_MSGMAP@@B		; CFlashWnd::messageMap
PUBLIC	?OnEraseBkgnd@CFlashWnd@@IAEHPAVCDC@@@Z		; CFlashWnd::OnEraseBkgnd
EXTRN	?GetThisClass@CWnd@@SGPAUCRuntimeClass@@XZ:NEAR	; CWnd::GetThisClass
EXTRN	?GetThisMessageMap@CWnd@@KGPBUAFX_MSGMAP@@XZ:NEAR ; CWnd::GetThisMessageMap
CONST	SEGMENT
$SG187275 DB	'CFlashWnd', 00H
CONST	ENDS
;	COMDAT ?classCFlashWnd@CFlashWnd@@2UCRuntimeClass@@B
CONST	SEGMENT
?classCFlashWnd@CFlashWnd@@2UCRuntimeClass@@B DD FLAT:$SG187275 ; CFlashWnd::classCFlashWnd
	DD	0bcH
	DD	0ffffH
	DD	00H
	DD	FLAT:?GetThisClass@CWnd@@SGPAUCRuntimeClass@@XZ
	DD	00H
	DD	00H
CONST	ENDS
;	COMDAT ?_messageEntries@CFlashWnd@@0QBUAFX_MSGMAP_ENTRY@@B
CONST	SEGMENT
?_messageEntries@CFlashWnd@@0QBUAFX_MSGMAP_ENTRY@@B DD 01H ; CFlashWnd::_messageEntries
	DD	00H
	DD	00H
	DD	00H
	DD	0dH
	DD	FLAT:?OnCreate@CFlashWnd@@QAEHPAUtagCREATESTRUCTA@@@Z
	DD	0fH
	DD	00H
	DD	00H
	DD	00H
	DD	010H
	DD	FLAT:?OnPaint@CFlashWnd@@QAEXXZ
	DD	014H
	DD	00H
	DD	00H
	DD	00H
	DD	01H
	DD	FLAT:?OnEraseBkgnd@CFlashWnd@@IAEHPAVCDC@@@Z
	DD	05H
	DD	00H
	DD	00H
	DD	00H
	DD	016H
	DD	FLAT:?OnSize@CFlashWnd@@QAEXIHH@Z
	DD	00H
	DD	00H
	DD	00H
	DD	00H
	DD	00H
	DD	00H
CONST	ENDS
;	COMDAT ?messageMap@CFlashWnd@@1UAFX_MSGMAP@@B
CONST	SEGMENT
?messageMap@CFlashWnd@@1UAFX_MSGMAP@@B DD FLAT:?GetThisMessageMap@CWnd@@KGPBUAFX_MSGMAP@@XZ ; CFlashWnd::messageMap
	DD	FLAT:?_messageEntries@CFlashWnd@@0QBUAFX_MSGMAP_ENTRY@@B
CONST	ENDS
CONST	SEGMENT
	ORG $+2
$SG187339 DB	'WebInfo', 00H
CONST	ENDS
;	COMDAT ?g_pfnGetThreadACP@ATL@@3P6GIXZA
_DATA	SEGMENT
?g_pfnGetThreadACP@ATL@@3P6GIXZA DD FLAT:?_AtlGetThreadACPThunk@ATL@@YGIXZ ; ATL::g_pfnGetThreadACP
_DATA	ENDS
PUBLIC	?GetThisClass@CFlashWnd@@SGPAUCRuntimeClass@@XZ	; CFlashWnd::GetThisClass
EXTRN	__RTC_InitBase:NEAR
EXTRN	__RTC_Shutdown:NEAR
;	COMDAT rtc$IMZ
; File d:\boxgit\playbox\playbox\dev\prj\playbox\src\gui\commoncontrol\flashloadingwnd.cpp
rtc$IMZ	SEGMENT
__RTC_InitBase.rtc$IMZ DD FLAT:__RTC_InitBase
rtc$IMZ	ENDS
;	COMDAT rtc$TMZ
rtc$TMZ	SEGMENT
__RTC_Shutdown.rtc$TMZ DD FLAT:__RTC_Shutdown
; Function compile flags: /Odt /RTCsu
rtc$TMZ	ENDS
_TEXT	SEGMENT
?GetThisClass@CFlashWnd@@SGPAUCRuntimeClass@@XZ PROC NEAR ; CFlashWnd::GetThisClass

; 6    : IMPLEMENT_DYNAMIC(CFlashWnd, CWnd)

  00000	55		 push	 ebp
  00001	8b ec		 mov	 ebp, esp
  00003	b8 00 00 00 00	 mov	 eax, OFFSET FLAT:?classCFlashWnd@CFlashWnd@@2UCRuntimeClass@@B ; CFlashWnd::classCFlashWnd
  00008	5d		 pop	 ebp
  00009	c3		 ret	 0
?GetThisClass@CFlashWnd@@SGPAUCRuntimeClass@@XZ ENDP	; CFlashWnd::GetThisClass
_TEXT	ENDS
PUBLIC	?GetRuntimeClass@CFlashWnd@@UBEPAUCRuntimeClass@@XZ ; CFlashWnd::GetRuntimeClass
; Function compile flags: /Odt /RTCsu
_TEXT	SEGMENT
_this$ = -4						; size = 4
?GetRuntimeClass@CFlashWnd@@UBEPAUCRuntimeClass@@XZ PROC NEAR ; CFlashWnd::GetRuntimeClass
; _this$ = ecx

; 6    : IMPLEMENT_DYNAMIC(CFlashWnd, CWnd)

  00010	55		 push	 ebp
  00011	8b ec		 mov	 ebp, esp
  00013	51		 push	 ecx
  00014	c7 45 fc cc cc
	cc cc		 mov	 DWORD PTR [ebp-4], -858993460 ; ccccccccH
  0001b	89 4d fc	 mov	 DWORD PTR _this$[ebp], ecx
  0001e	b8 00 00 00 00	 mov	 eax, OFFSET FLAT:?classCFlashWnd@CFlashWnd@@2UCRuntimeClass@@B ; CFlashWnd::classCFlashWnd
  00023	8b e5		 mov	 esp, ebp
  00025	5d		 pop	 ebp
  00026	c3		 ret	 0
?GetRuntimeClass@CFlashWnd@@UBEPAUCRuntimeClass@@XZ ENDP ; CFlashWnd::GetRuntimeClass
_TEXT	ENDS
PUBLIC	??_R4CFlashWnd@@6B@				; CFlashWnd::`RTTI Complete Object Locator'
PUBLIC	??_R0?AVCFlashWnd@@@8				; CFlashWnd `RTTI Type Descriptor'
PUBLIC	??_R3CFlashWnd@@8				; CFlashWnd::`RTTI Class Hierarchy Descriptor'
PUBLIC	??_R2CFlashWnd@@8				; CFlashWnd::`RTTI Base Class Array'
PUBLIC	??_R1A@?0A@A@CFlashWnd@@8			; CFlashWnd::`RTTI Base Class Descriptor at (0,-1,0,0)'
PUBLIC	??_R1A@?0A@A@CWnd@@8				; CWnd::`RTTI Base Class Descriptor at (0,-1,0,0)'
PUBLIC	??_R0?AVCWnd@@@8				; CWnd `RTTI Type Descriptor'
PUBLIC	??_R1A@?0A@A@CCmdTarget@@8			; CCmdTarget::`RTTI Base Class Descriptor at (0,-1,0,0)'
PUBLIC	??_R0?AVCCmdTarget@@@8				; CCmdTarget `RTTI Type Descriptor'
PUBLIC	??_R1A@?0A@A@CObject@@8				; CObject::`RTTI Base Class Descriptor at (0,-1,0,0)'
PUBLIC	??_R0?AVCObject@@@8				; CObject `RTTI Type Descriptor'
PUBLIC	??0CShockwaveFlash@@QAE@XZ			; CShockwaveFlash::CShockwaveFlash
PUBLIC	??0CFlashWnd@@QAE@XZ				; CFlashWnd::CFlashWnd
PUBLIC	?GetMessageMap@CFlashWnd@@MBEPBUAFX_MSGMAP@@XZ	; CFlashWnd::GetMessageMap
PUBLIC	??_7CFlashWnd@@6B@				; CFlashWnd::`vftable'
PUBLIC	??_GCFlashWnd@@UAEPAXI@Z			; CFlashWnd::`scalar deleting destructor'
EXTRN	?GetInterfaceMap@CWnd@@MBEPBUAFX_INTERFACEMAP@@XZ:NEAR ; CWnd::GetInterfaceMap
EXTRN	?EnsureStdObj@CWnd@@UAEJXZ:NEAR			; CWnd::EnsureStdObj
EXTRN	?get_accParent@CWnd@@UAEJPAPAUIDispatch@@@Z:NEAR ; CWnd::get_accParent
EXTRN	?OnCmdMsg@CCmdTarget@@UAEHIHPAXPAUAFX_CMDHANDLERINFO@@@Z:NEAR ; CCmdTarget::OnCmdMsg
EXTRN	?get_accChildCount@CWnd@@UAEJPAJ@Z:NEAR		; CWnd::get_accChildCount
EXTRN	?IsInvokeAllowed@CCmdTarget@@UAEHJ@Z:NEAR	; CCmdTarget::IsInvokeAllowed
EXTRN	?get_accChild@CWnd@@UAEJUtagVARIANT@@PAPAUIDispatch@@@Z:NEAR ; CWnd::get_accChild
EXTRN	?get_accName@CWnd@@UAEJUtagVARIANT@@PAPA_W@Z:NEAR ; CWnd::get_accName
EXTRN	?get_accValue@CWnd@@UAEJUtagVARIANT@@PAPA_W@Z:NEAR ; CWnd::get_accValue
EXTRN	?GetDispatchIID@CCmdTarget@@UAEHPAU_GUID@@@Z:NEAR ; CCmdTarget::GetDispatchIID
EXTRN	?GetTypeInfoCount@CCmdTarget@@UAEIXZ:NEAR	; CCmdTarget::GetTypeInfoCount
EXTRN	?GetTypeLibCache@CCmdTarget@@UAEPAVCTypeLibCache@@XZ:NEAR ; CCmdTarget::GetTypeLibCache
EXTRN	?get_accDescription@CWnd@@UAEJUtagVARIANT@@PAPA_W@Z:NEAR ; CWnd::get_accDescription
EXTRN	?GetTypeLib@CCmdTarget@@UAEJKPAPAUITypeLib@@@Z:NEAR ; CCmdTarget::GetTypeLib
EXTRN	?get_accRole@CWnd@@UAEJUtagVARIANT@@PAU2@@Z:NEAR ; CWnd::get_accRole
EXTRN	?get_accState@CWnd@@UAEJUtagVARIANT@@PAU2@@Z:NEAR ; CWnd::get_accState
EXTRN	?get_accHelp@CWnd@@UAEJUtagVARIANT@@PAPA_W@Z:NEAR ; CWnd::get_accHelp
EXTRN	?get_accHelpTopic@CWnd@@UAEJPAPA_WUtagVARIANT@@PAJ@Z:NEAR ; CWnd::get_accHelpTopic
EXTRN	?get_accKeyboardShortcut@CWnd@@UAEJUtagVARIANT@@PAPA_W@Z:NEAR ; CWnd::get_accKeyboardShortcut
EXTRN	?get_accFocus@CWnd@@UAEJPAUtagVARIANT@@@Z:NEAR	; CWnd::get_accFocus
EXTRN	?get_accSelection@CWnd@@UAEJPAUtagVARIANT@@@Z:NEAR ; CWnd::get_accSelection
EXTRN	?get_accDefaultAction@CWnd@@UAEJUtagVARIANT@@PAPA_W@Z:NEAR ; CWnd::get_accDefaultAction
EXTRN	?GetCommandMap@CCmdTarget@@MBEPBUAFX_OLECMDMAP@@XZ:NEAR ; CCmdTarget::GetCommandMap
EXTRN	?accSelect@CWnd@@UAEJJUtagVARIANT@@@Z:NEAR	; CWnd::accSelect
EXTRN	?accLocation@CWnd@@UAEJPAJ000UtagVARIANT@@@Z:NEAR ; CWnd::accLocation
EXTRN	?GetDispatchMap@CCmdTarget@@MBEPBUAFX_DISPMAP@@XZ:NEAR ; CCmdTarget::GetDispatchMap
EXTRN	?accNavigate@CWnd@@UAEJJUtagVARIANT@@PAU2@@Z:NEAR ; CWnd::accNavigate
EXTRN	?accHitTest@CWnd@@UAEJJJPAUtagVARIANT@@@Z:NEAR	; CWnd::accHitTest
EXTRN	?GetConnectionMap@CCmdTarget@@MBEPBUAFX_CONNECTIONMAP@@XZ:NEAR ; CCmdTarget::GetConnectionMap
EXTRN	?accDoDefaultAction@CWnd@@UAEJUtagVARIANT@@@Z:NEAR ; CWnd::accDoDefaultAction
EXTRN	?put_accName@CWnd@@UAEJUtagVARIANT@@PA_W@Z:NEAR	; CWnd::put_accName
EXTRN	?put_accValue@CWnd@@UAEJUtagVARIANT@@PA_W@Z:NEAR ; CWnd::put_accValue
EXTRN	?SetProxy@CWnd@@UAEJPAUIAccessibleProxy@@@Z:NEAR ; CWnd::SetProxy
EXTRN	?CreateAccessibleProxy@CWnd@@UAEJIJPAJ@Z:NEAR	; CWnd::CreateAccessibleProxy
EXTRN	?GetEventSinkMap@CCmdTarget@@MBEPBUAFX_EVENTSINKMAP@@XZ:NEAR ; CCmdTarget::GetEventSinkMap
EXTRN	?OnCreateAggregates@CCmdTarget@@UAEHXZ:NEAR	; CCmdTarget::OnCreateAggregates
EXTRN	?OnCommand@CWnd@@MAEHIJ@Z:NEAR			; CWnd::OnCommand
EXTRN	?GetInterfaceHook@CCmdTarget@@UAEPAUIUnknown@@PBX@Z:NEAR ; CCmdTarget::GetInterfaceHook
EXTRN	?OnNotify@CWnd@@MAEHIJPAJ@Z:NEAR		; CWnd::OnNotify
EXTRN	?GetExtraConnectionPoints@CCmdTarget@@MAEHPAVCPtrArray@@@Z:NEAR ; CCmdTarget::GetExtraConnectionPoints
EXTRN	?GetConnectionHook@CCmdTarget@@MAEPAUIConnectionPoint@@ABU_GUID@@@Z:NEAR ; CCmdTarget::GetConnectionHook
EXTRN	??0CRect@@QAE@XZ:NEAR				; CRect::CRect
EXTRN	??0CWnd@@QAE@XZ:NEAR				; CWnd::CWnd
EXTRN	??0CRect@@QAE@HHHH@Z:NEAR			; CRect::CRect
EXTRN	?PreSubclassWindow@CWnd@@UAEXXZ:NEAR		; CWnd::PreSubclassWindow
EXTRN	?Create@CWnd@@UAEHPBD0KABUtagRECT@@PAV1@IPAUCCreateContext@@@Z:NEAR ; CWnd::Create
EXTRN	?CreateEx@CWnd@@UAEHKPBD0KHHHHPAUHWND__@@PAUHMENU__@@PAX@Z:NEAR ; CWnd::CreateEx
EXTRN	?CreateEx@CWnd@@UAEHKPBD0KABUtagRECT@@PAV1@IPAX@Z:NEAR ; CWnd::CreateEx
EXTRN	__except_list:DWORD
EXTRN	__RTC_CheckEsp:NEAR
EXTRN	___CxxFrameHandler:NEAR
EXTRN	?Serialize@CObject@@UAEXAAVCArchive@@@Z:NEAR	; CObject::Serialize
EXTRN	?DestroyWindow@CWnd@@UAEHXZ:NEAR		; CWnd::DestroyWindow
EXTRN	?PreCreateWindow@CWnd@@UAEHAAUtagCREATESTRUCTA@@@Z:NEAR ; CWnd::PreCreateWindow
EXTRN	?CalcWindowRect@CWnd@@UAEXPAUtagRECT@@I@Z:NEAR	; CWnd::CalcWindowRect
EXTRN	?GetSuperWndProcAddr@CWnd@@MAEPAP6GJPAUHWND__@@IIJ@ZXZ:NEAR ; CWnd::GetSuperWndProcAddr
EXTRN	?DoDataExchange@CWnd@@MAEXPAVCDataExchange@@@Z:NEAR ; CWnd::DoDataExchange
EXTRN	?BeginModalState@CWnd@@UAEXXZ:NEAR		; CWnd::BeginModalState
EXTRN	?EndModalState@CWnd@@UAEXXZ:NEAR		; CWnd::EndModalState
EXTRN	?PreTranslateMessage@CWnd@@UAEHPAUtagMSG@@@Z:NEAR ; CWnd::PreTranslateMessage
EXTRN	?OnAmbientProperty@CWnd@@UAEHPAVCOleControlSite@@JPAUtagVARIANT@@@Z:NEAR ; CWnd::OnAmbientProperty
EXTRN	?WindowProc@CWnd@@MAEJIIJ@Z:NEAR		; CWnd::WindowProc
EXTRN	?OnWndMsg@CWnd@@MAEHIIJPAJ@Z:NEAR		; CWnd::OnWndMsg
EXTRN	?DefWindowProcA@CWnd@@MAEJIIJ@Z:NEAR		; CWnd::DefWindowProcA
EXTRN	?PostNcDestroy@CWnd@@MAEXXZ:NEAR		; CWnd::PostNcDestroy
EXTRN	?OnChildNotify@CWnd@@MAEHIIJPAJ@Z:NEAR		; CWnd::OnChildNotify
EXTRN	??1CWnd@@UAE@XZ:NEAR				; CWnd::~CWnd
EXTRN	?CheckAutoCenter@CWnd@@UAEHXZ:NEAR		; CWnd::CheckAutoCenter
EXTRN	?AssertValid@CWnd@@UBEXXZ:NEAR			; CWnd::AssertValid
EXTRN	?Dump@CWnd@@UBEXAAVCDumpContext@@@Z:NEAR	; CWnd::Dump
EXTRN	?IsFrameWnd@CWnd@@UBEHXZ:NEAR			; CWnd::IsFrameWnd
EXTRN	?OnFinalRelease@CWnd@@UAEXXZ:NEAR		; CWnd::OnFinalRelease
EXTRN	?CreateControlContainer@CWnd@@MAEHPAPAVCOleControlContainer@@@Z:NEAR ; CWnd::CreateControlContainer
EXTRN	?CreateControlSite@CWnd@@MAEHPAVCOleControlContainer@@PAPAVCOleControlSite@@IABU_GUID@@@Z:NEAR ; CWnd::CreateControlSite
EXTRN	?SetOccDialogInfo@CWnd@@MAEHPAU_AFX_OCC_DIALOG_INFO@@@Z:NEAR ; CWnd::SetOccDialogInfo
EXTRN	?OnToolHitTest@CWnd@@UBEHVCPoint@@PAUtagTOOLINFOA@@@Z:NEAR ; CWnd::OnToolHitTest
EXTRN	??_ECFlashWnd@@UAEPAXI@Z:NEAR			; CFlashWnd::`vector deleting destructor'
EXTRN	?GetScrollBarCtrl@CWnd@@UBEPAVCScrollBar@@H@Z:NEAR ; CWnd::GetScrollBarCtrl
EXTRN	?WinHelpA@CWnd@@UAEXKI@Z:NEAR			; CWnd::WinHelpA
EXTRN	?HtmlHelpA@CWnd@@UAEXKI@Z:NEAR			; CWnd::HtmlHelpA
EXTRN	??_7type_info@@6B@:QWORD			; type_info::`vftable'
EXTRN	?WinHelpInternal@CWnd@@UAEXKI@Z:NEAR		; CWnd::WinHelpInternal
EXTRN	?ContinueModal@CWnd@@UAEHXZ:NEAR		; CWnd::ContinueModal
EXTRN	?EndModalLoop@CWnd@@UAEXH@Z:NEAR		; CWnd::EndModalLoop
xdata$x	SEGMENT
$T187914 DD	0ffffffffH
	DD	FLAT:$L187905
$T187910 DD	019930520H
	DD	01H
	DD	FLAT:$T187914
	DD	2 DUP(00H)
	DD	2 DUP(00H)
xdata$x	ENDS
;	COMDAT ??_7CFlashWnd@@6B@
CONST	SEGMENT
??_7CFlashWnd@@6B@ DD FLAT:??_R4CFlashWnd@@6B@		; CFlashWnd::`vftable'
	DD	FLAT:?GetRuntimeClass@CFlashWnd@@UBEPAUCRuntimeClass@@XZ
	DD	FLAT:??_ECFlashWnd@@UAEPAXI@Z
	DD	FLAT:?Serialize@CObject@@UAEXAAVCArchive@@@Z
	DD	FLAT:?AssertValid@CWnd@@UBEXXZ
	DD	FLAT:?Dump@CWnd@@UBEXAAVCDumpContext@@@Z
	DD	FLAT:?OnCmdMsg@CCmdTarget@@UAEHIHPAXPAUAFX_CMDHANDLERINFO@@@Z
	DD	FLAT:?OnFinalRelease@CWnd@@UAEXXZ
	DD	FLAT:?IsInvokeAllowed@CCmdTarget@@UAEHJ@Z
	DD	FLAT:?GetDispatchIID@CCmdTarget@@UAEHPAU_GUID@@@Z
	DD	FLAT:?GetTypeInfoCount@CCmdTarget@@UAEIXZ
	DD	FLAT:?GetTypeLibCache@CCmdTarget@@UAEPAVCTypeLibCache@@XZ
	DD	FLAT:?GetTypeLib@CCmdTarget@@UAEJKPAPAUITypeLib@@@Z
	DD	FLAT:?GetMessageMap@CFlashWnd@@MBEPBUAFX_MSGMAP@@XZ
	DD	FLAT:?GetCommandMap@CCmdTarget@@MBEPBUAFX_OLECMDMAP@@XZ
	DD	FLAT:?GetDispatchMap@CCmdTarget@@MBEPBUAFX_DISPMAP@@XZ
	DD	FLAT:?GetConnectionMap@CCmdTarget@@MBEPBUAFX_CONNECTIONMAP@@XZ
	DD	FLAT:?GetInterfaceMap@CWnd@@MBEPBUAFX_INTERFACEMAP@@XZ
	DD	FLAT:?GetEventSinkMap@CCmdTarget@@MBEPBUAFX_EVENTSINKMAP@@XZ
	DD	FLAT:?OnCreateAggregates@CCmdTarget@@UAEHXZ
	DD	FLAT:?GetInterfaceHook@CCmdTarget@@UAEPAUIUnknown@@PBX@Z
	DD	FLAT:?GetExtraConnectionPoints@CCmdTarget@@MAEHPAVCPtrArray@@@Z
	DD	FLAT:?GetConnectionHook@CCmdTarget@@MAEPAUIConnectionPoint@@ABU_GUID@@@Z
	DD	FLAT:?PreSubclassWindow@CWnd@@UAEXXZ
	DD	FLAT:?Create@CWnd@@UAEHPBD0KABUtagRECT@@PAV1@IPAUCCreateContext@@@Z
	DD	FLAT:?CreateEx@CWnd@@UAEHKPBD0KABUtagRECT@@PAV1@IPAX@Z
	DD	FLAT:?CreateEx@CWnd@@UAEHKPBD0KHHHHPAUHWND__@@PAUHMENU__@@PAX@Z
	DD	FLAT:?DestroyWindow@CWnd@@UAEHXZ
	DD	FLAT:?PreCreateWindow@CWnd@@UAEHAAUtagCREATESTRUCTA@@@Z
	DD	FLAT:?CalcWindowRect@CWnd@@UAEXPAUtagRECT@@I@Z
	DD	FLAT:?OnToolHitTest@CWnd@@UBEHVCPoint@@PAUtagTOOLINFOA@@@Z
	DD	FLAT:?GetScrollBarCtrl@CWnd@@UBEPAVCScrollBar@@H@Z
	DD	FLAT:?WinHelpA@CWnd@@UAEXKI@Z
	DD	FLAT:?HtmlHelpA@CWnd@@UAEXKI@Z
	DD	FLAT:?WinHelpInternal@CWnd@@UAEXKI@Z
	DD	FLAT:?ContinueModal@CWnd@@UAEHXZ
	DD	FLAT:?EndModalLoop@CWnd@@UAEXH@Z
	DD	FLAT:?EnsureStdObj@CWnd@@UAEJXZ
	DD	FLAT:?get_accParent@CWnd@@UAEJPAPAUIDispatch@@@Z
	DD	FLAT:?get_accChildCount@CWnd@@UAEJPAJ@Z
	DD	FLAT:?get_accChild@CWnd@@UAEJUtagVARIANT@@PAPAUIDispatch@@@Z
	DD	FLAT:?get_accName@CWnd@@UAEJUtagVARIANT@@PAPA_W@Z
	DD	FLAT:?get_accValue@CWnd@@UAEJUtagVARIANT@@PAPA_W@Z
	DD	FLAT:?get_accDescription@CWnd@@UAEJUtagVARIANT@@PAPA_W@Z
	DD	FLAT:?get_accRole@CWnd@@UAEJUtagVARIANT@@PAU2@@Z
	DD	FLAT:?get_accState@CWnd@@UAEJUtagVARIANT@@PAU2@@Z
	DD	FLAT:?get_accHelp@CWnd@@UAEJUtagVARIANT@@PAPA_W@Z
	DD	FLAT:?get_accHelpTopic@CWnd@@UAEJPAPA_WUtagVARIANT@@PAJ@Z
	DD	FLAT:?get_accKeyboardShortcut@CWnd@@UAEJUtagVARIANT@@PAPA_W@Z
	DD	FLAT:?get_accFocus@CWnd@@UAEJPAUtagVARIANT@@@Z
	DD	FLAT:?get_accSelection@CWnd@@UAEJPAUtagVARIANT@@@Z
	DD	FLAT:?get_accDefaultAction@CWnd@@UAEJUtagVARIANT@@PAPA_W@Z
	DD	FLAT:?accSelect@CWnd@@UAEJJUtagVARIANT@@@Z
	DD	FLAT:?accLocation@CWnd@@UAEJPAJ000UtagVARIANT@@@Z
	DD	FLAT:?accNavigate@CWnd@@UAEJJUtagVARIANT@@PAU2@@Z
	DD	FLAT:?accHitTest@CWnd@@UAEJJJPAUtagVARIANT@@@Z
	DD	FLAT:?accDoDefaultAction@CWnd@@UAEJUtagVARIANT@@@Z
	DD	FLAT:?put_accName@CWnd@@UAEJUtagVARIANT@@PA_W@Z
	DD	FLAT:?put_accValue@CWnd@@UAEJUtagVARIANT@@PA_W@Z
	DD	FLAT:?SetProxy@CWnd@@UAEJPAUIAccessibleProxy@@@Z
	DD	FLAT:?CreateAccessibleProxy@CWnd@@UAEJIJPAJ@Z
	DD	FLAT:?OnCommand@CWnd@@MAEHIJ@Z
	DD	FLAT:?OnNotify@CWnd@@MAEHIJPAJ@Z
	DD	FLAT:?GetSuperWndProcAddr@CWnd@@MAEPAP6GJPAUHWND__@@IIJ@ZXZ
	DD	FLAT:?DoDataExchange@CWnd@@MAEXPAVCDataExchange@@@Z
	DD	FLAT:?BeginModalState@CWnd@@UAEXXZ
	DD	FLAT:?EndModalState@CWnd@@UAEXXZ
	DD	FLAT:?PreTranslateMessage@CWnd@@UAEHPAUtagMSG@@@Z
	DD	FLAT:?OnAmbientProperty@CWnd@@UAEHPAVCOleControlSite@@JPAUtagVARIANT@@@Z
	DD	FLAT:?WindowProc@CWnd@@MAEJIIJ@Z
	DD	FLAT:?OnWndMsg@CWnd@@MAEHIIJPAJ@Z
	DD	FLAT:?DefWindowProcA@CWnd@@MAEJIIJ@Z
	DD	FLAT:?PostNcDestroy@CWnd@@MAEXXZ
	DD	FLAT:?OnChildNotify@CWnd@@MAEHIIJPAJ@Z
	DD	FLAT:?CheckAutoCenter@CWnd@@UAEHXZ
	DD	FLAT:?IsFrameWnd@CWnd@@UBEHXZ
	DD	FLAT:?CreateControlContainer@CWnd@@MAEHPAPAVCOleControlContainer@@@Z
	DD	FLAT:?CreateControlSite@CWnd@@MAEHPAVCOleControlContainer@@PAPAVCOleControlSite@@IABU_GUID@@@Z
	DD	FLAT:?SetOccDialogInfo@CWnd@@MAEHPAU_AFX_OCC_DIALOG_INFO@@@Z
CONST	ENDS
;	COMDAT ??_R4CFlashWnd@@6B@
rdata$r	SEGMENT
??_R4CFlashWnd@@6B@ DD 00H				; CFlashWnd::`RTTI Complete Object Locator'
	DD	00H
	DD	00H
	DD	FLAT:??_R0?AVCFlashWnd@@@8
	DD	FLAT:??_R3CFlashWnd@@8
rdata$r	ENDS
;	COMDAT ??_R0?AVCFlashWnd@@@8
_DATA	SEGMENT
??_R0?AVCFlashWnd@@@8 DD FLAT:??_7type_info@@6B@	; CFlashWnd `RTTI Type Descriptor'
	DD	00H
	DB	'.?AVCFlashWnd@@', 00H
_DATA	ENDS
;	COMDAT ??_R3CFlashWnd@@8
rdata$r	SEGMENT
??_R3CFlashWnd@@8 DD 00H				; CFlashWnd::`RTTI Class Hierarchy Descriptor'
	DD	00H
	DD	04H
	DD	FLAT:??_R2CFlashWnd@@8
rdata$r	ENDS
;	COMDAT ??_R2CFlashWnd@@8
rdata$r	SEGMENT
??_R2CFlashWnd@@8 DD FLAT:??_R1A@?0A@A@CFlashWnd@@8	; CFlashWnd::`RTTI Base Class Array'
	DD	FLAT:??_R1A@?0A@A@CWnd@@8
	DD	FLAT:??_R1A@?0A@A@CCmdTarget@@8
	DD	FLAT:??_R1A@?0A@A@CObject@@8
rdata$r	ENDS
;	COMDAT ??_R1A@?0A@A@CFlashWnd@@8
rdata$r	SEGMENT
??_R1A@?0A@A@CFlashWnd@@8 DD FLAT:??_R0?AVCFlashWnd@@@8	; CFlashWnd::`RTTI Base Class Descriptor at (0,-1,0,0)'
	DD	03H
	DD	00H
	DD	0ffffffffH
	DD	00H
	DD	00H
rdata$r	ENDS
;	COMDAT ??_R1A@?0A@A@CWnd@@8
rdata$r	SEGMENT
??_R1A@?0A@A@CWnd@@8 DD FLAT:??_R0?AVCWnd@@@8		; CWnd::`RTTI Base Class Descriptor at (0,-1,0,0)'
	DD	02H
	DD	00H
	DD	0ffffffffH
	DD	00H
	DD	00H
rdata$r	ENDS
;	COMDAT ??_R0?AVCWnd@@@8
_DATA	SEGMENT
??_R0?AVCWnd@@@8 DD FLAT:??_7type_info@@6B@		; CWnd `RTTI Type Descriptor'
	DD	00H
	DB	'.?AVCWnd@@', 00H
_DATA	ENDS
;	COMDAT ??_R1A@?0A@A@CCmdTarget@@8
rdata$r	SEGMENT
??_R1A@?0A@A@CCmdTarget@@8 DD FLAT:??_R0?AVCCmdTarget@@@8 ; CCmdTarget::`RTTI Base Class Descriptor at (0,-1,0,0)'
	DD	01H
	DD	00H
	DD	0ffffffffH
	DD	00H
	DD	00H
rdata$r	ENDS
;	COMDAT ??_R0?AVCCmdTarget@@@8
_DATA	SEGMENT
??_R0?AVCCmdTarget@@@8 DD FLAT:??_7type_info@@6B@	; CCmdTarget `RTTI Type Descriptor'
	DD	00H
	DB	'.?AVCCmdTarget@@', 00H
_DATA	ENDS
;	COMDAT ??_R1A@?0A@A@CObject@@8
rdata$r	SEGMENT
??_R1A@?0A@A@CObject@@8 DD FLAT:??_R0?AVCObject@@@8	; CObject::`RTTI Base Class Descriptor at (0,-1,0,0)'
	DD	00H
	DD	00H
	DD	0ffffffffH
	DD	00H
	DD	00H
rdata$r	ENDS
;	COMDAT ??_R0?AVCObject@@@8
_DATA	SEGMENT
??_R0?AVCObject@@@8 DD FLAT:??_7type_info@@6B@		; CObject `RTTI Type Descriptor'
	DD	00H
	DB	'.?AVCObject@@', 00H
; Function compile flags: /Odt /RTCsu
_DATA	ENDS
_TEXT	SEGMENT
$T187904 = -32						; size = 16
_this$ = -16						; size = 4
__$EHRec$ = -12						; size = 12
??0CFlashWnd@@QAE@XZ PROC NEAR				; CFlashWnd::CFlashWnd
; _this$ = ecx

; 8    : {

  00030	55		 push	 ebp
  00031	8b ec		 mov	 ebp, esp
  00033	6a ff		 push	 -1
  00035	68 00 00 00 00	 push	 __ehhandler$??0CFlashWnd@@QAE@XZ
  0003a	64 a1 00 00 00
	00		 mov	 eax, DWORD PTR fs:__except_list
  00040	50		 push	 eax
  00041	64 89 25 00 00
	00 00		 mov	 DWORD PTR fs:__except_list, esp
  00048	83 ec 14	 sub	 esp, 20			; 00000014H
  0004b	b8 cc cc cc cc	 mov	 eax, -858993460		; ccccccccH
  00050	89 45 e0	 mov	 DWORD PTR [ebp-32], eax
  00053	89 45 e4	 mov	 DWORD PTR [ebp-28], eax
  00056	89 45 e8	 mov	 DWORD PTR [ebp-24], eax
  00059	89 45 ec	 mov	 DWORD PTR [ebp-20], eax
  0005c	89 45 f0	 mov	 DWORD PTR [ebp-16], eax
  0005f	89 4d f0	 mov	 DWORD PTR _this$[ebp], ecx
  00062	8b 4d f0	 mov	 ecx, DWORD PTR _this$[ebp]
  00065	e8 00 00 00 00	 call	 ??0CWnd@@QAE@XZ		; CWnd::CWnd
  0006a	c7 45 fc 00 00
	00 00		 mov	 DWORD PTR __$EHRec$[ebp+8], 0
  00071	8b 45 f0	 mov	 eax, DWORD PTR _this$[ebp]
  00074	c7 00 00 00 00
	00		 mov	 DWORD PTR [eax], OFFSET FLAT:??_7CFlashWnd@@6B@
  0007a	8b 4d f0	 mov	 ecx, DWORD PTR _this$[ebp]
  0007d	83 c1 58	 add	 ecx, 88			; 00000058H
  00080	e8 00 00 00 00	 call	 ??0CRect@@QAE@XZ	; CRect::CRect
  00085	8b 4d f0	 mov	 ecx, DWORD PTR _this$[ebp]
  00088	83 c1 68	 add	 ecx, 104		; 00000068H
  0008b	e8 00 00 00 00	 call	 ??0CShockwaveFlash@@QAE@XZ

; 9    : 	m_colBk = RGB( 39, 39, 39 );

  00090	8b 4d f0	 mov	 ecx, DWORD PTR _this$[ebp]
  00093	c7 41 54 27 27
	27 00		 mov	 DWORD PTR [ecx+84], 2565927 ; 00272727H

; 10   : 	//netloadflash大小为134*120，可等比例放大缩小
; 11   : 	m_rcFlash = CRect (0, 0, 558, 283);

  0009a	68 1b 01 00 00	 push	 283			; 0000011bH
  0009f	68 2e 02 00 00	 push	 558			; 0000022eH
  000a4	6a 00		 push	 0
  000a6	6a 00		 push	 0
  000a8	8d 4d e0	 lea	 ecx, DWORD PTR $T187904[ebp]
  000ab	e8 00 00 00 00	 call	 ??0CRect@@QAE@HHHH@Z	; CRect::CRect
  000b0	8b 55 f0	 mov	 edx, DWORD PTR _this$[ebp]
  000b3	83 c2 58	 add	 edx, 88			; 00000058H
  000b6	8b 08		 mov	 ecx, DWORD PTR [eax]
  000b8	89 0a		 mov	 DWORD PTR [edx], ecx
  000ba	8b 48 04	 mov	 ecx, DWORD PTR [eax+4]
  000bd	89 4a 04	 mov	 DWORD PTR [edx+4], ecx
  000c0	8b 48 08	 mov	 ecx, DWORD PTR [eax+8]
  000c3	89 4a 08	 mov	 DWORD PTR [edx+8], ecx
  000c6	8b 40 0c	 mov	 eax, DWORD PTR [eax+12]
  000c9	89 42 0c	 mov	 DWORD PTR [edx+12], eax

; 12   : }

  000cc	c7 45 fc ff ff
	ff ff		 mov	 DWORD PTR __$EHRec$[ebp+8], -1
  000d3	8b 45 f0	 mov	 eax, DWORD PTR _this$[ebp]
  000d6	8b 4d f4	 mov	 ecx, DWORD PTR __$EHRec$[ebp]
  000d9	64 89 0d 00 00
	00 00		 mov	 DWORD PTR fs:__except_list, ecx
  000e0	83 c4 20	 add	 esp, 32			; 00000020H
  000e3	3b ec		 cmp	 ebp, esp
  000e5	e8 00 00 00 00	 call	 __RTC_CheckEsp
  000ea	8b e5		 mov	 esp, ebp
  000ec	5d		 pop	 ebp
  000ed	c3		 ret	 0
_TEXT	ENDS
text$x	SEGMENT
$L187905:
  00000	8b 4d f0	 mov	 ecx, DWORD PTR _this$[ebp]
  00003	e9 00 00 00 00	 jmp	 ??1CWnd@@UAE@XZ		; CWnd::~CWnd
__ehhandler$??0CFlashWnd@@QAE@XZ:
  00008	b8 00 00 00 00	 mov	 eax, OFFSET FLAT:$T187910
  0000d	e9 00 00 00 00	 jmp	 ___CxxFrameHandler
text$x	ENDS
??0CFlashWnd@@QAE@XZ ENDP				; CFlashWnd::CFlashWnd
PUBLIC	??1CFlashWnd@@UAE@XZ				; CFlashWnd::~CFlashWnd
EXTRN	??3CObject@@SGXPAX@Z:NEAR			; CObject::operator delete
; Function compile flags: /Odt /RTCsu
;	COMDAT ??_GCFlashWnd@@UAEPAXI@Z
_TEXT	SEGMENT
_this$ = -4						; size = 4
___flags$ = 8						; size = 4
??_GCFlashWnd@@UAEPAXI@Z PROC NEAR			; CFlashWnd::`scalar deleting destructor', COMDAT
; _this$ = ecx
  00000	55		 push	 ebp
  00001	8b ec		 mov	 ebp, esp
  00003	51		 push	 ecx
  00004	c7 45 fc cc cc
	cc cc		 mov	 DWORD PTR [ebp-4], -858993460 ; ccccccccH
  0000b	89 4d fc	 mov	 DWORD PTR _this$[ebp], ecx
  0000e	8b 4d fc	 mov	 ecx, DWORD PTR _this$[ebp]
  00011	e8 00 00 00 00	 call	 ??1CFlashWnd@@UAE@XZ	; CFlashWnd::~CFlashWnd
  00016	8b 45 08	 mov	 eax, DWORD PTR ___flags$[ebp]
  00019	83 e0 01	 and	 eax, 1
  0001c	74 09		 je	 SHORT $L187297
  0001e	8b 4d fc	 mov	 ecx, DWORD PTR _this$[ebp]
  00021	51		 push	 ecx
  00022	e8 00 00 00 00	 call	 ??3CObject@@SGXPAX@Z	; CObject::operator delete
$L187297:
  00027	8b 45 fc	 mov	 eax, DWORD PTR _this$[ebp]
  0002a	83 c4 04	 add	 esp, 4
  0002d	3b ec		 cmp	 ebp, esp
  0002f	e8 00 00 00 00	 call	 __RTC_CheckEsp
  00034	8b e5		 mov	 esp, ebp
  00036	5d		 pop	 ebp
  00037	c2 04 00	 ret	 4
??_GCFlashWnd@@UAEPAXI@Z ENDP				; CFlashWnd::`scalar deleting destructor'
_TEXT	ENDS
PUBLIC	??_R4CShockwaveFlash@@6B@			; CShockwaveFlash::`RTTI Complete Object Locator'
PUBLIC	??_R0?AVCShockwaveFlash@@@8			; CShockwaveFlash `RTTI Type Descriptor'
PUBLIC	??_R3CShockwaveFlash@@8				; CShockwaveFlash::`RTTI Class Hierarchy Descriptor'
PUBLIC	??_R2CShockwaveFlash@@8				; CShockwaveFlash::`RTTI Base Class Array'
PUBLIC	??_R1A@?0A@A@CShockwaveFlash@@8			; CShockwaveFlash::`RTTI Base Class Descriptor at (0,-1,0,0)'
PUBLIC	?Create@CShockwaveFlash@@UAEHPBD0KABUtagRECT@@PAVCWnd@@IPAUCCreateContext@@@Z ; CShockwaveFlash::Create
PUBLIC	??_7CShockwaveFlash@@6B@			; CShockwaveFlash::`vftable'
PUBLIC	??_GCShockwaveFlash@@UAEPAXI@Z			; CShockwaveFlash::`scalar deleting destructor'
EXTRN	?GetRuntimeClass@CShockwaveFlash@@UBEPAUCRuntimeClass@@XZ:NEAR ; CShockwaveFlash::GetRuntimeClass
EXTRN	?GetMessageMap@CWnd@@MBEPBUAFX_MSGMAP@@XZ:NEAR	; CWnd::GetMessageMap
EXTRN	??_ECShockwaveFlash@@UAEPAXI@Z:NEAR		; CShockwaveFlash::`vector deleting destructor'
;	COMDAT ??_7CShockwaveFlash@@6B@
CONST	SEGMENT
??_7CShockwaveFlash@@6B@ DD FLAT:??_R4CShockwaveFlash@@6B@ ; CShockwaveFlash::`vftable'
	DD	FLAT:?GetRuntimeClass@CShockwaveFlash@@UBEPAUCRuntimeClass@@XZ
	DD	FLAT:??_ECShockwaveFlash@@UAEPAXI@Z
	DD	FLAT:?Serialize@CObject@@UAEXAAVCArchive@@@Z
	DD	FLAT:?AssertValid@CWnd@@UBEXXZ
	DD	FLAT:?Dump@CWnd@@UBEXAAVCDumpContext@@@Z
	DD	FLAT:?OnCmdMsg@CCmdTarget@@UAEHIHPAXPAUAFX_CMDHANDLERINFO@@@Z
	DD	FLAT:?OnFinalRelease@CWnd@@UAEXXZ
	DD	FLAT:?IsInvokeAllowed@CCmdTarget@@UAEHJ@Z
	DD	FLAT:?GetDispatchIID@CCmdTarget@@UAEHPAU_GUID@@@Z
	DD	FLAT:?GetTypeInfoCount@CCmdTarget@@UAEIXZ
	DD	FLAT:?GetTypeLibCache@CCmdTarget@@UAEPAVCTypeLibCache@@XZ
	DD	FLAT:?GetTypeLib@CCmdTarget@@UAEJKPAPAUITypeLib@@@Z
	DD	FLAT:?GetMessageMap@CWnd@@MBEPBUAFX_MSGMAP@@XZ
	DD	FLAT:?GetCommandMap@CCmdTarget@@MBEPBUAFX_OLECMDMAP@@XZ
	DD	FLAT:?GetDispatchMap@CCmdTarget@@MBEPBUAFX_DISPMAP@@XZ
	DD	FLAT:?GetConnectionMap@CCmdTarget@@MBEPBUAFX_CONNECTIONMAP@@XZ
	DD	FLAT:?GetInterfaceMap@CWnd@@MBEPBUAFX_INTERFACEMAP@@XZ
	DD	FLAT:?GetEventSinkMap@CCmdTarget@@MBEPBUAFX_EVENTSINKMAP@@XZ
	DD	FLAT:?OnCreateAggregates@CCmdTarget@@UAEHXZ
	DD	FLAT:?GetInterfaceHook@CCmdTarget@@UAEPAUIUnknown@@PBX@Z
	DD	FLAT:?GetExtraConnectionPoints@CCmdTarget@@MAEHPAVCPtrArray@@@Z
	DD	FLAT:?GetConnectionHook@CCmdTarget@@MAEPAUIConnectionPoint@@ABU_GUID@@@Z
	DD	FLAT:?PreSubclassWindow@CWnd@@UAEXXZ
	DD	FLAT:?Create@CShockwaveFlash@@UAEHPBD0KABUtagRECT@@PAVCWnd@@IPAUCCreateContext@@@Z
	DD	FLAT:?CreateEx@CWnd@@UAEHKPBD0KABUtagRECT@@PAV1@IPAX@Z
	DD	FLAT:?CreateEx@CWnd@@UAEHKPBD0KHHHHPAUHWND__@@PAUHMENU__@@PAX@Z
	DD	FLAT:?DestroyWindow@CWnd@@UAEHXZ
	DD	FLAT:?PreCreateWindow@CWnd@@UAEHAAUtagCREATESTRUCTA@@@Z
	DD	FLAT:?CalcWindowRect@CWnd@@UAEXPAUtagRECT@@I@Z
	DD	FLAT:?OnToolHitTest@CWnd@@UBEHVCPoint@@PAUtagTOOLINFOA@@@Z
	DD	FLAT:?GetScrollBarCtrl@CWnd@@UBEPAVCScrollBar@@H@Z
	DD	FLAT:?WinHelpA@CWnd@@UAEXKI@Z
	DD	FLAT:?HtmlHelpA@CWnd@@UAEXKI@Z
	DD	FLAT:?WinHelpInternal@CWnd@@UAEXKI@Z
	DD	FLAT:?ContinueModal@CWnd@@UAEHXZ
	DD	FLAT:?EndModalLoop@CWnd@@UAEXH@Z
	DD	FLAT:?EnsureStdObj@CWnd@@UAEJXZ
	DD	FLAT:?get_accParent@CWnd@@UAEJPAPAUIDispatch@@@Z
	DD	FLAT:?get_accChildCount@CWnd@@UAEJPAJ@Z
	DD	FLAT:?get_accChild@CWnd@@UAEJUtagVARIANT@@PAPAUIDispatch@@@Z
	DD	FLAT:?get_accName@CWnd@@UAEJUtagVARIANT@@PAPA_W@Z
	DD	FLAT:?get_accValue@CWnd@@UAEJUtagVARIANT@@PAPA_W@Z
	DD	FLAT:?get_accDescription@CWnd@@UAEJUtagVARIANT@@PAPA_W@Z
	DD	FLAT:?get_accRole@CWnd@@UAEJUtagVARIANT@@PAU2@@Z
	DD	FLAT:?get_accState@CWnd@@UAEJUtagVARIANT@@PAU2@@Z
	DD	FLAT:?get_accHelp@CWnd@@UAEJUtagVARIANT@@PAPA_W@Z
	DD	FLAT:?get_accHelpTopic@CWnd@@UAEJPAPA_WUtagVARIANT@@PAJ@Z
	DD	FLAT:?get_accKeyboardShortcut@CWnd@@UAEJUtagVARIANT@@PAPA_W@Z
	DD	FLAT:?get_accFocus@CWnd@@UAEJPAUtagVARIANT@@@Z
	DD	FLAT:?get_accSelection@CWnd@@UAEJPAUtagVARIANT@@@Z
	DD	FLAT:?get_accDefaultAction@CWnd@@UAEJUtagVARIANT@@PAPA_W@Z
	DD	FLAT:?accSelect@CWnd@@UAEJJUtagVARIANT@@@Z
	DD	FLAT:?accLocation@CWnd@@UAEJPAJ000UtagVARIANT@@@Z
	DD	FLAT:?accNavigate@CWnd@@UAEJJUtagVARIANT@@PAU2@@Z
	DD	FLAT:?accHitTest@CWnd@@UAEJJJPAUtagVARIANT@@@Z
	DD	FLAT:?accDoDefaultAction@CWnd@@UAEJUtagVARIANT@@@Z
	DD	FLAT:?put_accName@CWnd@@UAEJUtagVARIANT@@PA_W@Z
	DD	FLAT:?put_accValue@CWnd@@UAEJUtagVARIANT@@PA_W@Z
	DD	FLAT:?SetProxy@CWnd@@UAEJPAUIAccessibleProxy@@@Z
	DD	FLAT:?CreateAccessibleProxy@CWnd@@UAEJIJPAJ@Z
	DD	FLAT:?OnCommand@CWnd@@MAEHIJ@Z
	DD	FLAT:?OnNotify@CWnd@@MAEHIJPAJ@Z
	DD	FLAT:?GetSuperWndProcAddr@CWnd@@MAEPAP6GJPAUHWND__@@IIJ@ZXZ
	DD	FLAT:?DoDataExchange@CWnd@@MAEXPAVCDataExchange@@@Z
	DD	FLAT:?BeginModalState@CWnd@@UAEXXZ
	DD	FLAT:?EndModalState@CWnd@@UAEXXZ
	DD	FLAT:?PreTranslateMessage@CWnd@@UAEHPAUtagMSG@@@Z
	DD	FLAT:?OnAmbientProperty@CWnd@@UAEHPAVCOleControlSite@@JPAUtagVARIANT@@@Z
	DD	FLAT:?WindowProc@CWnd@@MAEJIIJ@Z
	DD	FLAT:?OnWndMsg@CWnd@@MAEHIIJPAJ@Z
	DD	FLAT:?DefWindowProcA@CWnd@@MAEJIIJ@Z
	DD	FLAT:?PostNcDestroy@CWnd@@MAEXXZ
	DD	FLAT:?OnChildNotify@CWnd@@MAEHIIJPAJ@Z
	DD	FLAT:?CheckAutoCenter@CWnd@@UAEHXZ
	DD	FLAT:?IsFrameWnd@CWnd@@UBEHXZ
	DD	FLAT:?CreateControlContainer@CWnd@@MAEHPAPAVCOleControlContainer@@@Z
	DD	FLAT:?CreateControlSite@CWnd@@MAEHPAVCOleControlContainer@@PAPAVCOleControlSite@@IABU_GUID@@@Z
	DD	FLAT:?SetOccDialogInfo@CWnd@@MAEHPAU_AFX_OCC_DIALOG_INFO@@@Z
CONST	ENDS
;	COMDAT ??_R4CShockwaveFlash@@6B@
rdata$r	SEGMENT
??_R4CShockwaveFlash@@6B@ DD 00H			; CShockwaveFlash::`RTTI Complete Object Locator'
	DD	00H
	DD	00H
	DD	FLAT:??_R0?AVCShockwaveFlash@@@8
	DD	FLAT:??_R3CShockwaveFlash@@8
rdata$r	ENDS
;	COMDAT ??_R0?AVCShockwaveFlash@@@8
_DATA	SEGMENT
??_R0?AVCShockwaveFlash@@@8 DD FLAT:??_7type_info@@6B@	; CShockwaveFlash `RTTI Type Descriptor'
	DD	00H
	DB	'.?AVCShockwaveFlash@@', 00H
_DATA	ENDS
;	COMDAT ??_R3CShockwaveFlash@@8
rdata$r	SEGMENT
??_R3CShockwaveFlash@@8 DD 00H				; CShockwaveFlash::`RTTI Class Hierarchy Descriptor'
	DD	00H
	DD	04H
	DD	FLAT:??_R2CShockwaveFlash@@8
rdata$r	ENDS
;	COMDAT ??_R2CShockwaveFlash@@8
rdata$r	SEGMENT
??_R2CShockwaveFlash@@8 DD FLAT:??_R1A@?0A@A@CShockwaveFlash@@8 ; CShockwaveFlash::`RTTI Base Class Array'
	DD	FLAT:??_R1A@?0A@A@CWnd@@8
	DD	FLAT:??_R1A@?0A@A@CCmdTarget@@8
	DD	FLAT:??_R1A@?0A@A@CObject@@8
rdata$r	ENDS
;	COMDAT ??_R1A@?0A@A@CShockwaveFlash@@8
rdata$r	SEGMENT
??_R1A@?0A@A@CShockwaveFlash@@8 DD FLAT:??_R0?AVCShockwaveFlash@@@8 ; CShockwaveFlash::`RTTI Base Class Descriptor at (0,-1,0,0)'
	DD	03H
	DD	00H
	DD	0ffffffffH
	DD	00H
	DD	00H
; Function compile flags: /Odt /RTCsu
rdata$r	ENDS
;	COMDAT ??0CShockwaveFlash@@QAE@XZ
_TEXT	SEGMENT
_this$ = -4						; size = 4
??0CShockwaveFlash@@QAE@XZ PROC NEAR			; CShockwaveFlash::CShockwaveFlash, COMDAT
; _this$ = ecx
  00000	55		 push	 ebp
  00001	8b ec		 mov	 ebp, esp
  00003	51		 push	 ecx
  00004	c7 45 fc cc cc
	cc cc		 mov	 DWORD PTR [ebp-4], -858993460 ; ccccccccH
  0000b	89 4d fc	 mov	 DWORD PTR _this$[ebp], ecx
  0000e	8b 4d fc	 mov	 ecx, DWORD PTR _this$[ebp]
  00011	e8 00 00 00 00	 call	 ??0CWnd@@QAE@XZ		; CWnd::CWnd
  00016	8b 45 fc	 mov	 eax, DWORD PTR _this$[ebp]
  00019	c7 00 00 00 00
	00		 mov	 DWORD PTR [eax], OFFSET FLAT:??_7CShockwaveFlash@@6B@
  0001f	8b 45 fc	 mov	 eax, DWORD PTR _this$[ebp]
  00022	83 c4 04	 add	 esp, 4
  00025	3b ec		 cmp	 ebp, esp
  00027	e8 00 00 00 00	 call	 __RTC_CheckEsp
  0002c	8b e5		 mov	 esp, ebp
  0002e	5d		 pop	 ebp
  0002f	c3		 ret	 0
??0CShockwaveFlash@@QAE@XZ ENDP				; CShockwaveFlash::CShockwaveFlash
_TEXT	ENDS
PUBLIC	?GetClsid@CShockwaveFlash@@QAEABU_GUID@@XZ	; CShockwaveFlash::GetClsid
EXTRN	?CreateControl@CWnd@@QAEHABU_GUID@@PBDKABUtagRECT@@PAV1@IPAVCFile@@HPA_W@Z:NEAR ; CWnd::CreateControl
; Function compile flags: /Odt /RTCsu
; File d:\boxgit\playbox\playbox\dev\prj\playbox\src\gui\commoncontrol\shockwaveflash.h
;	COMDAT ?Create@CShockwaveFlash@@UAEHPBD0KABUtagRECT@@PAVCWnd@@IPAUCCreateContext@@@Z
_TEXT	SEGMENT
_this$ = -4						; size = 4
_lpszClassName$ = 8					; size = 4
_lpszWindowName$ = 12					; size = 4
_dwStyle$ = 16						; size = 4
_rect$ = 20						; size = 4
_pParentWnd$ = 24					; size = 4
_nID$ = 28						; size = 4
_pContext$ = 32						; size = 4
?Create@CShockwaveFlash@@UAEHPBD0KABUtagRECT@@PAVCWnd@@IPAUCCreateContext@@@Z PROC NEAR ; CShockwaveFlash::Create, COMDAT
; _this$ = ecx

; 33   : 	{ return CreateControl(GetClsid(), lpszWindowName, dwStyle, rect, pParentWnd, nID); }

  00000	55		 push	 ebp
  00001	8b ec		 mov	 ebp, esp
  00003	51		 push	 ecx
  00004	c7 45 fc cc cc
	cc cc		 mov	 DWORD PTR [ebp-4], -858993460 ; ccccccccH
  0000b	89 4d fc	 mov	 DWORD PTR _this$[ebp], ecx
  0000e	6a 00		 push	 0
  00010	6a 00		 push	 0
  00012	6a 00		 push	 0
  00014	8b 45 1c	 mov	 eax, DWORD PTR _nID$[ebp]
  00017	50		 push	 eax
  00018	8b 4d 18	 mov	 ecx, DWORD PTR _pParentWnd$[ebp]
  0001b	51		 push	 ecx
  0001c	8b 55 14	 mov	 edx, DWORD PTR _rect$[ebp]
  0001f	52		 push	 edx
  00020	8b 45 10	 mov	 eax, DWORD PTR _dwStyle$[ebp]
  00023	50		 push	 eax
  00024	8b 4d 0c	 mov	 ecx, DWORD PTR _lpszWindowName$[ebp]
  00027	51		 push	 ecx
  00028	8b 4d fc	 mov	 ecx, DWORD PTR _this$[ebp]
  0002b	e8 00 00 00 00	 call	 ?GetClsid@CShockwaveFlash@@QAEABU_GUID@@XZ ; CShockwaveFlash::GetClsid
  00030	50		 push	 eax
  00031	8b 4d fc	 mov	 ecx, DWORD PTR _this$[ebp]
  00034	e8 00 00 00 00	 call	 ?CreateControl@CWnd@@QAEHABU_GUID@@PBDKABUtagRECT@@PAV1@IPAVCFile@@HPA_W@Z ; CWnd::CreateControl
  00039	83 c4 04	 add	 esp, 4
  0003c	3b ec		 cmp	 ebp, esp
  0003e	e8 00 00 00 00	 call	 __RTC_CheckEsp
  00043	8b e5		 mov	 esp, ebp
  00045	5d		 pop	 ebp
  00046	c2 1c 00	 ret	 28			; 0000001cH
?Create@CShockwaveFlash@@UAEHPBD0KABUtagRECT@@PAVCWnd@@IPAUCCreateContext@@@Z ENDP ; CShockwaveFlash::Create
_TEXT	ENDS
PUBLIC	?clsid@?1??GetClsid@CShockwaveFlash@@QAEABU_GUID@@XZ@4U3@B ; `CShockwaveFlash::GetClsid'::`2'::clsid
;	COMDAT ?clsid@?1??GetClsid@CShockwaveFlash@@QAEABU_GUID@@XZ@4U3@B
CONST	SEGMENT
?clsid@?1??GetClsid@CShockwaveFlash@@QAEABU_GUID@@XZ@4U3@B DD 0d27cdb6eH ; `CShockwaveFlash::GetClsid'::`2'::clsid
	DW	0ae6dH
	DW	011cfH
	DB	096H
	DB	0b8H
	DB	044H
	DB	045H
	DB	053H
	DB	054H
	DB	00H
	DB	00H
; Function compile flags: /Odt /RTCsu
CONST	ENDS
;	COMDAT ?GetClsid@CShockwaveFlash@@QAEABU_GUID@@XZ
_TEXT	SEGMENT
_this$ = -4						; size = 4
?GetClsid@CShockwaveFlash@@QAEABU_GUID@@XZ PROC NEAR	; CShockwaveFlash::GetClsid, COMDAT
; _this$ = ecx

; 23   : 	{

  00000	55		 push	 ebp
  00001	8b ec		 mov	 ebp, esp
  00003	51		 push	 ecx
  00004	c7 45 fc cc cc
	cc cc		 mov	 DWORD PTR [ebp-4], -858993460 ; ccccccccH
  0000b	89 4d fc	 mov	 DWORD PTR _this$[ebp], ecx

; 24   : 		static CLSID const clsid
; 25   : 			= { 0xd27cdb6e, 0xae6d, 0x11cf, { 0x96, 0xb8, 0x44, 0x45, 0x53, 0x54, 0x0, 0x0 } };
; 26   : 		return clsid;

  0000e	b8 00 00 00 00	 mov	 eax, OFFSET FLAT:?clsid@?1??GetClsid@CShockwaveFlash@@QAEABU_GUID@@XZ@4U3@B ; `CShockwaveFlash::GetClsid'::`2'::clsid

; 27   : 	}

  00013	8b e5		 mov	 esp, ebp
  00015	5d		 pop	 ebp
  00016	c3		 ret	 0
?GetClsid@CShockwaveFlash@@QAEABU_GUID@@XZ ENDP		; CShockwaveFlash::GetClsid
_TEXT	ENDS
PUBLIC	??1CShockwaveFlash@@UAE@XZ			; CShockwaveFlash::~CShockwaveFlash
; Function compile flags: /Odt /RTCsu
;	COMDAT ??_GCShockwaveFlash@@UAEPAXI@Z
_TEXT	SEGMENT
_this$ = -4						; size = 4
___flags$ = 8						; size = 4
??_GCShockwaveFlash@@UAEPAXI@Z PROC NEAR		; CShockwaveFlash::`scalar deleting destructor', COMDAT
; _this$ = ecx
  00000	55		 push	 ebp
  00001	8b ec		 mov	 ebp, esp
  00003	51		 push	 ecx
  00004	c7 45 fc cc cc
	cc cc		 mov	 DWORD PTR [ebp-4], -858993460 ; ccccccccH
  0000b	89 4d fc	 mov	 DWORD PTR _this$[ebp], ecx
  0000e	8b 4d fc	 mov	 ecx, DWORD PTR _this$[ebp]
  00011	e8 00 00 00 00	 call	 ??1CShockwaveFlash@@UAE@XZ
  00016	8b 45 08	 mov	 eax, DWORD PTR ___flags$[ebp]
  00019	83 e0 01	 and	 eax, 1
  0001c	74 09		 je	 SHORT $L187305
  0001e	8b 4d fc	 mov	 ecx, DWORD PTR _this$[ebp]
  00021	51		 push	 ecx
  00022	e8 00 00 00 00	 call	 ??3CObject@@SGXPAX@Z	; CObject::operator delete
$L187305:
  00027	8b 45 fc	 mov	 eax, DWORD PTR _this$[ebp]
  0002a	83 c4 04	 add	 esp, 4
  0002d	3b ec		 cmp	 ebp, esp
  0002f	e8 00 00 00 00	 call	 __RTC_CheckEsp
  00034	8b e5		 mov	 esp, ebp
  00036	5d		 pop	 ebp
  00037	c2 04 00	 ret	 4
??_GCShockwaveFlash@@UAEPAXI@Z ENDP			; CShockwaveFlash::`scalar deleting destructor'
; Function compile flags: /Odt /RTCsu
_TEXT	ENDS
;	COMDAT ??1CShockwaveFlash@@UAE@XZ
_TEXT	SEGMENT
_this$ = -4						; size = 4
??1CShockwaveFlash@@UAE@XZ PROC NEAR			; CShockwaveFlash::~CShockwaveFlash, COMDAT
; _this$ = ecx
  00000	55		 push	 ebp
  00001	8b ec		 mov	 ebp, esp
  00003	51		 push	 ecx
  00004	c7 45 fc cc cc
	cc cc		 mov	 DWORD PTR [ebp-4], -858993460 ; ccccccccH
  0000b	89 4d fc	 mov	 DWORD PTR _this$[ebp], ecx
  0000e	8b 4d fc	 mov	 ecx, DWORD PTR _this$[ebp]
  00011	e8 00 00 00 00	 call	 ??1CWnd@@UAE@XZ		; CWnd::~CWnd
  00016	83 c4 04	 add	 esp, 4
  00019	3b ec		 cmp	 ebp, esp
  0001b	e8 00 00 00 00	 call	 __RTC_CheckEsp
  00020	8b e5		 mov	 esp, ebp
  00022	5d		 pop	 ebp
  00023	c3		 ret	 0
??1CShockwaveFlash@@UAE@XZ ENDP				; CShockwaveFlash::~CShockwaveFlash
_TEXT	ENDS
xdata$x	SEGMENT
$T187930 DD	0ffffffffH
	DD	FLAT:$L187925
$T187928 DD	019930520H
	DD	01H
	DD	FLAT:$T187930
	DD	2 DUP(00H)
	DD	2 DUP(00H)
; Function compile flags: /Odt /RTCsu
; File d:\boxgit\playbox\playbox\dev\prj\playbox\src\gui\commoncontrol\flashloadingwnd.cpp
xdata$x	ENDS
_TEXT	SEGMENT
_this$ = -16						; size = 4
__$EHRec$ = -12						; size = 12
??1CFlashWnd@@UAE@XZ PROC NEAR				; CFlashWnd::~CFlashWnd
; _this$ = ecx

; 15   : {

  000f0	55		 push	 ebp
  000f1	8b ec		 mov	 ebp, esp
  000f3	6a ff		 push	 -1
  000f5	68 00 00 00 00	 push	 __ehhandler$??1CFlashWnd@@UAE@XZ
  000fa	64 a1 00 00 00
	00		 mov	 eax, DWORD PTR fs:__except_list
  00100	50		 push	 eax
  00101	64 89 25 00 00
	00 00		 mov	 DWORD PTR fs:__except_list, esp
  00108	51		 push	 ecx
  00109	c7 45 f0 cc cc
	cc cc		 mov	 DWORD PTR [ebp-16], -858993460 ; ccccccccH
  00110	89 4d f0	 mov	 DWORD PTR _this$[ebp], ecx
  00113	8b 45 f0	 mov	 eax, DWORD PTR _this$[ebp]
  00116	c7 00 00 00 00
	00		 mov	 DWORD PTR [eax], OFFSET FLAT:??_7CFlashWnd@@6B@
  0011c	c7 45 fc 00 00
	00 00		 mov	 DWORD PTR __$EHRec$[ebp+8], 0

; 16   : }

  00123	8b 4d f0	 mov	 ecx, DWORD PTR _this$[ebp]
  00126	83 c1 68	 add	 ecx, 104		; 00000068H
  00129	e8 00 00 00 00	 call	 ??1CShockwaveFlash@@UAE@XZ
  0012e	c7 45 fc ff ff
	ff ff		 mov	 DWORD PTR __$EHRec$[ebp+8], -1
  00135	8b 4d f0	 mov	 ecx, DWORD PTR _this$[ebp]
  00138	e8 00 00 00 00	 call	 ??1CWnd@@UAE@XZ		; CWnd::~CWnd
  0013d	8b 4d f4	 mov	 ecx, DWORD PTR __$EHRec$[ebp]
  00140	64 89 0d 00 00
	00 00		 mov	 DWORD PTR fs:__except_list, ecx
  00147	83 c4 10	 add	 esp, 16			; 00000010H
  0014a	3b ec		 cmp	 ebp, esp
  0014c	e8 00 00 00 00	 call	 __RTC_CheckEsp
  00151	8b e5		 mov	 esp, ebp
  00153	5d		 pop	 ebp
  00154	c3		 ret	 0
_TEXT	ENDS
text$x	SEGMENT
$L187925:
  00012	8b 4d f0	 mov	 ecx, DWORD PTR _this$[ebp]
  00015	e9 00 00 00 00	 jmp	 ??1CWnd@@UAE@XZ		; CWnd::~CWnd
__ehhandler$??1CFlashWnd@@UAE@XZ:
  0001a	b8 00 00 00 00	 mov	 eax, OFFSET FLAT:$T187928
  0001f	e9 00 00 00 00	 jmp	 ___CxxFrameHandler
text$x	ENDS
??1CFlashWnd@@UAE@XZ ENDP				; CFlashWnd::~CFlashWnd
PUBLIC	?GetThisMessageMap@CFlashWnd@@KGPBUAFX_MSGMAP@@XZ ; CFlashWnd::GetThisMessageMap
; Function compile flags: /Odt /RTCsu
_TEXT	SEGMENT
?GetThisMessageMap@CFlashWnd@@KGPBUAFX_MSGMAP@@XZ PROC NEAR ; CFlashWnd::GetThisMessageMap

; 18   : BEGIN_MESSAGE_MAP(CFlashWnd, CWnd)

  00160	55		 push	 ebp
  00161	8b ec		 mov	 ebp, esp
  00163	b8 00 00 00 00	 mov	 eax, OFFSET FLAT:?messageMap@CFlashWnd@@1UAFX_MSGMAP@@B ; CFlashWnd::messageMap
  00168	5d		 pop	 ebp
  00169	c3		 ret	 0
?GetThisMessageMap@CFlashWnd@@KGPBUAFX_MSGMAP@@XZ ENDP	; CFlashWnd::GetThisMessageMap
; Function compile flags: /Odt /RTCsu
_this$ = -4						; size = 4
?GetMessageMap@CFlashWnd@@MBEPBUAFX_MSGMAP@@XZ PROC NEAR ; CFlashWnd::GetMessageMap
; _this$ = ecx

; 18   : BEGIN_MESSAGE_MAP(CFlashWnd, CWnd)

  00170	55		 push	 ebp
  00171	8b ec		 mov	 ebp, esp
  00173	51		 push	 ecx
  00174	c7 45 fc cc cc
	cc cc		 mov	 DWORD PTR [ebp-4], -858993460 ; ccccccccH
  0017b	89 4d fc	 mov	 DWORD PTR _this$[ebp], ecx
  0017e	b8 00 00 00 00	 mov	 eax, OFFSET FLAT:?messageMap@CFlashWnd@@1UAFX_MSGMAP@@B ; CFlashWnd::messageMap
  00183	8b e5		 mov	 esp, ebp
  00185	5d		 pop	 ebp
  00186	c3		 ret	 0
?GetMessageMap@CFlashWnd@@MBEPBUAFX_MSGMAP@@XZ ENDP	; CFlashWnd::GetMessageMap
_TEXT	ENDS
PUBLIC	?Create@CShockwaveFlash@@QAEHPBDKABUtagRECT@@PAVCWnd@@IPAVCFile@@HPA_W@Z ; CShockwaveFlash::Create
PUBLIC	?Net_Loading@GlobalSwfPath@@SA?AV?$CStringT@DV?$StrTraitMFC_DLL@DV?$ChTraitsCRT@D@ATL@@@@@ATL@@XZ ; GlobalSwfPath::Net_Loading
EXTRN	?OnCreate@CWnd@@IAEHPAUtagCREATESTRUCTA@@@Z:NEAR ; CWnd::OnCreate
EXTRN	__imp_??B?$CSimpleStringT@D$00@ATL@@QBEPBDXZ:NEAR
EXTRN	?SetMovie@CShockwaveFlash@@QAEXPBD@Z:NEAR	; CShockwaveFlash::SetMovie
EXTRN	?ShowWindow@CWnd@@QAEHH@Z:NEAR			; CWnd::ShowWindow
EXTRN	?SetBGColor@CShockwaveFlash@@QAEXPBD@Z:NEAR	; CShockwaveFlash::SetBGColor
EXTRN	__imp_??1?$CStringT@DV?$StrTraitMFC_DLL@DV?$ChTraitsCRT@D@ATL@@@@@ATL@@QAE@XZ:NEAR
xdata$x	SEGMENT
$T187940 DD	0ffffffffH
	DD	FLAT:$L187936
$T187938 DD	019930520H
	DD	01H
	DD	FLAT:$T187940
	DD	2 DUP(00H)
	DD	2 DUP(00H)
; Function compile flags: /Odt /RTCsu
xdata$x	ENDS
_TEXT	SEGMENT
tv133 = -44						; size = 4
tv134 = -40						; size = 4
$T187935 = -36						; size = 4
$T187934 = -32						; size = 16
_this$ = -16						; size = 4
__$EHRec$ = -12						; size = 12
_lpCreateStruct$ = 8					; size = 4
?OnCreate@CFlashWnd@@QAEHPAUtagCREATESTRUCTA@@@Z PROC NEAR ; CFlashWnd::OnCreate
; _this$ = ecx

; 26   : {

  00190	55		 push	 ebp
  00191	8b ec		 mov	 ebp, esp
  00193	6a ff		 push	 -1
  00195	68 00 00 00 00	 push	 __ehhandler$?OnCreate@CFlashWnd@@QAEHPAUtagCREATESTRUCTA@@@Z
  0019a	64 a1 00 00 00
	00		 mov	 eax, DWORD PTR fs:__except_list
  001a0	50		 push	 eax
  001a1	64 89 25 00 00
	00 00		 mov	 DWORD PTR fs:__except_list, esp
  001a8	83 ec 20	 sub	 esp, 32			; 00000020H
  001ab	56		 push	 esi
  001ac	b8 cc cc cc cc	 mov	 eax, -858993460		; ccccccccH
  001b1	89 45 d4	 mov	 DWORD PTR [ebp-44], eax
  001b4	89 45 d8	 mov	 DWORD PTR [ebp-40], eax
  001b7	89 45 dc	 mov	 DWORD PTR [ebp-36], eax
  001ba	89 45 e0	 mov	 DWORD PTR [ebp-32], eax
  001bd	89 45 e4	 mov	 DWORD PTR [ebp-28], eax
  001c0	89 45 e8	 mov	 DWORD PTR [ebp-24], eax
  001c3	89 45 ec	 mov	 DWORD PTR [ebp-20], eax
  001c6	89 45 f0	 mov	 DWORD PTR [ebp-16], eax
  001c9	89 4d f0	 mov	 DWORD PTR _this$[ebp], ecx

; 27   : 	if( __super::OnCreate( lpCreateStruct) == -1 )

  001cc	8b 45 08	 mov	 eax, DWORD PTR _lpCreateStruct$[ebp]
  001cf	50		 push	 eax
  001d0	8b 4d f0	 mov	 ecx, DWORD PTR _this$[ebp]
  001d3	e8 00 00 00 00	 call	 ?OnCreate@CWnd@@IAEHPAUtagCREATESTRUCTA@@@Z ; CWnd::OnCreate
  001d8	83 f8 ff	 cmp	 eax, -1
  001db	75 08		 jne	 SHORT $L187337

; 28   : 	{
; 29   : 		return -1;

  001dd	83 c8 ff	 or	 eax, -1
  001e0	e9 a7 00 00 00	 jmp	 $L187336
$L187337:

; 30   : 	}
; 31   : 	m_flash.Create("WebInfo", WS_CHILD, CRect(0,0,0,0), this, 12456);

  001e5	6a 00		 push	 0
  001e7	6a 00		 push	 0
  001e9	6a 00		 push	 0
  001eb	68 a8 30 00 00	 push	 12456			; 000030a8H
  001f0	8b 4d f0	 mov	 ecx, DWORD PTR _this$[ebp]
  001f3	51		 push	 ecx
  001f4	6a 00		 push	 0
  001f6	6a 00		 push	 0
  001f8	6a 00		 push	 0
  001fa	6a 00		 push	 0
  001fc	8d 4d e0	 lea	 ecx, DWORD PTR $T187934[ebp]
  001ff	e8 00 00 00 00	 call	 ??0CRect@@QAE@HHHH@Z	; CRect::CRect
  00204	50		 push	 eax
  00205	68 00 00 00 40	 push	 1073741824		; 40000000H
  0020a	68 00 00 00 00	 push	 OFFSET FLAT:$SG187339
  0020f	8b 4d f0	 mov	 ecx, DWORD PTR _this$[ebp]
  00212	83 c1 68	 add	 ecx, 104		; 00000068H
  00215	e8 00 00 00 00	 call	 ?Create@CShockwaveFlash@@QAEHPBDKABUtagRECT@@PAVCWnd@@IPAVCFile@@HPA_W@Z ; CShockwaveFlash::Create

; 32   : 	m_flash.ShowWindow(SW_SHOW);

  0021a	6a 05		 push	 5
  0021c	8b 4d f0	 mov	 ecx, DWORD PTR _this$[ebp]
  0021f	83 c1 68	 add	 ecx, 104		; 00000068H
  00222	e8 00 00 00 00	 call	 ?ShowWindow@CWnd@@QAEHH@Z ; CWnd::ShowWindow

; 33   : 	m_flash.SetBGColor( 0 );

  00227	6a 00		 push	 0
  00229	8b 4d f0	 mov	 ecx, DWORD PTR _this$[ebp]
  0022c	83 c1 68	 add	 ecx, 104		; 00000068H
  0022f	e8 00 00 00 00	 call	 ?SetBGColor@CShockwaveFlash@@QAEXPBD@Z ; CShockwaveFlash::SetBGColor

; 34   : 	m_flash.SetMovie(GlobalSwfPath::Net_Loading());

  00234	8d 55 dc	 lea	 edx, DWORD PTR $T187935[ebp]
  00237	52		 push	 edx
  00238	e8 00 00 00 00	 call	 ?Net_Loading@GlobalSwfPath@@SA?AV?$CStringT@DV?$StrTraitMFC_DLL@DV?$ChTraitsCRT@D@ATL@@@@@ATL@@XZ ; GlobalSwfPath::Net_Loading
  0023d	83 c4 04	 add	 esp, 4
  00240	89 45 d8	 mov	 DWORD PTR tv134[ebp], eax
  00243	8b 45 d8	 mov	 eax, DWORD PTR tv134[ebp]
  00246	89 45 d4	 mov	 DWORD PTR tv133[ebp], eax
  00249	c7 45 fc 00 00
	00 00		 mov	 DWORD PTR __$EHRec$[ebp+8], 0
  00250	8b f4		 mov	 esi, esp
  00252	8b 4d d4	 mov	 ecx, DWORD PTR tv133[ebp]
  00255	ff 15 00 00 00
	00		 call	 DWORD PTR __imp_??B?$CSimpleStringT@D$00@ATL@@QBEPBDXZ
  0025b	3b f4		 cmp	 esi, esp
  0025d	e8 00 00 00 00	 call	 __RTC_CheckEsp
  00262	50		 push	 eax
  00263	8b 4d f0	 mov	 ecx, DWORD PTR _this$[ebp]
  00266	83 c1 68	 add	 ecx, 104		; 00000068H
  00269	e8 00 00 00 00	 call	 ?SetMovie@CShockwaveFlash@@QAEXPBD@Z ; CShockwaveFlash::SetMovie
  0026e	c7 45 fc ff ff
	ff ff		 mov	 DWORD PTR __$EHRec$[ebp+8], -1
  00275	8b f4		 mov	 esi, esp
  00277	8d 4d dc	 lea	 ecx, DWORD PTR $T187935[ebp]
  0027a	ff 15 00 00 00
	00		 call	 DWORD PTR __imp_??1?$CStringT@DV?$StrTraitMFC_DLL@DV?$ChTraitsCRT@D@ATL@@@@@ATL@@QAE@XZ
  00280	3b f4		 cmp	 esi, esp
  00282	e8 00 00 00 00	 call	 __RTC_CheckEsp

; 35   : 	return 1;

  00287	b8 01 00 00 00	 mov	 eax, 1
$L187336:

; 36   : }

  0028c	8b 4d f4	 mov	 ecx, DWORD PTR __$EHRec$[ebp]
  0028f	64 89 0d 00 00
	00 00		 mov	 DWORD PTR fs:__except_list, ecx
  00296	5e		 pop	 esi
  00297	83 c4 2c	 add	 esp, 44			; 0000002cH
  0029a	3b ec		 cmp	 ebp, esp
  0029c	e8 00 00 00 00	 call	 __RTC_CheckEsp
  002a1	8b e5		 mov	 esp, ebp
  002a3	5d		 pop	 ebp
  002a4	c2 04 00	 ret	 4
_TEXT	ENDS
text$x	SEGMENT
$L187936:
  00024	8b f4		 mov	 esi, esp
  00026	8d 4d dc	 lea	 ecx, DWORD PTR $T187935[ebp]
  00029	ff 15 00 00 00
	00		 call	 DWORD PTR __imp_??1?$CStringT@DV?$StrTraitMFC_DLL@DV?$ChTraitsCRT@D@ATL@@@@@ATL@@QAE@XZ
  0002f	3b f4		 cmp	 esi, esp
  00031	e9 00 00 00 00	 jmp	 __RTC_CheckEsp
__ehhandler$?OnCreate@CFlashWnd@@QAEHPAUtagCREATESTRUCTA@@@Z:
  00036	b8 00 00 00 00	 mov	 eax, OFFSET FLAT:$T187938
  0003b	e9 00 00 00 00	 jmp	 ___CxxFrameHandler
text$x	ENDS
?OnCreate@CFlashWnd@@QAEHPAUtagCREATESTRUCTA@@@Z ENDP	; CFlashWnd::OnCreate
; Function compile flags: /Odt /RTCsu
; File d:\boxgit\playbox\playbox\dev\prj\playbox\src\gui\commoncontrol\shockwaveflash.h
;	COMDAT ?Create@CShockwaveFlash@@QAEHPBDKABUtagRECT@@PAVCWnd@@IPAVCFile@@HPA_W@Z
_TEXT	SEGMENT
_this$ = -4						; size = 4
_lpszWindowName$ = 8					; size = 4
_dwStyle$ = 12						; size = 4
_rect$ = 16						; size = 4
_pParentWnd$ = 20					; size = 4
_nID$ = 24						; size = 4
_pPersist$ = 28						; size = 4
_bStorage$ = 32						; size = 4
_bstrLicKey$ = 36					; size = 4
?Create@CShockwaveFlash@@QAEHPBDKABUtagRECT@@PAVCWnd@@IPAVCFile@@HPA_W@Z PROC NEAR ; CShockwaveFlash::Create, COMDAT
; _this$ = ecx

; 39   : 	{ return CreateControl(GetClsid(), lpszWindowName, dwStyle, rect, pParentWnd, nID,

  00000	55		 push	 ebp
  00001	8b ec		 mov	 ebp, esp
  00003	51		 push	 ecx
  00004	c7 45 fc cc cc
	cc cc		 mov	 DWORD PTR [ebp-4], -858993460 ; ccccccccH
  0000b	89 4d fc	 mov	 DWORD PTR _this$[ebp], ecx

; 40   : 		pPersist, bStorage, bstrLicKey); }

  0000e	8b 45 24	 mov	 eax, DWORD PTR _bstrLicKey$[ebp]
  00011	50		 push	 eax
  00012	8b 4d 20	 mov	 ecx, DWORD PTR _bStorage$[ebp]
  00015	51		 push	 ecx
  00016	8b 55 1c	 mov	 edx, DWORD PTR _pPersist$[ebp]
  00019	52		 push	 edx
  0001a	8b 45 18	 mov	 eax, DWORD PTR _nID$[ebp]
  0001d	50		 push	 eax
  0001e	8b 4d 14	 mov	 ecx, DWORD PTR _pParentWnd$[ebp]
  00021	51		 push	 ecx
  00022	8b 55 10	 mov	 edx, DWORD PTR _rect$[ebp]
  00025	52		 push	 edx
  00026	8b 45 0c	 mov	 eax, DWORD PTR _dwStyle$[ebp]
  00029	50		 push	 eax
  0002a	8b 4d 08	 mov	 ecx, DWORD PTR _lpszWindowName$[ebp]
  0002d	51		 push	 ecx
  0002e	8b 4d fc	 mov	 ecx, DWORD PTR _this$[ebp]
  00031	e8 00 00 00 00	 call	 ?GetClsid@CShockwaveFlash@@QAEABU_GUID@@XZ ; CShockwaveFlash::GetClsid
  00036	50		 push	 eax
  00037	8b 4d fc	 mov	 ecx, DWORD PTR _this$[ebp]
  0003a	e8 00 00 00 00	 call	 ?CreateControl@CWnd@@QAEHABU_GUID@@PBDKABUtagRECT@@PAV1@IPAVCFile@@HPA_W@Z ; CWnd::CreateControl
  0003f	83 c4 04	 add	 esp, 4
  00042	3b ec		 cmp	 ebp, esp
  00044	e8 00 00 00 00	 call	 __RTC_CheckEsp
  00049	8b e5		 mov	 esp, ebp
  0004b	5d		 pop	 ebp
  0004c	c2 20 00	 ret	 32			; 00000020H
?Create@CShockwaveFlash@@QAEHPBDKABUtagRECT@@PAVCWnd@@IPAVCFile@@HPA_W@Z ENDP ; CShockwaveFlash::Create
_TEXT	ENDS
PUBLIC	??HATL@@YA?AV?$CStringT@DV?$StrTraitMFC_DLL@DV?$ChTraitsCRT@D@ATL@@@@@0@ABV10@PBD@Z ; ATL::operator+
PUBLIC	?GetSwfPath@GlobalSwfPath@@SA?AV?$CStringT@DV?$StrTraitMFC_DLL@DV?$ChTraitsCRT@D@ATL@@@@@ATL@@XZ ; GlobalSwfPath::GetSwfPath
PUBLIC	??_C@_0M@DBEKFKCI@loading?4swf?$AA@		; `string'
;	COMDAT xdata$x
; File d:\boxgit\playbox\playbox\dev\prj\playbox\src\global\globalswfpath.h
xdata$x	SEGMENT
$T187951 DD	0ffffffffH
	DD	FLAT:$L187944
$T187949 DD	019930520H
	DD	01H
	DD	FLAT:$T187951
	DD	2 DUP(00H)
	DD	2 DUP(00H)
xdata$x	ENDS
;	COMDAT ??_C@_0M@DBEKFKCI@loading?4swf?$AA@
CONST	SEGMENT
??_C@_0M@DBEKFKCI@loading?4swf?$AA@ DB 'loading.swf', 00H ; `string'
; Function compile flags: /Odt /RTCsu
CONST	ENDS
;	COMDAT ?Net_Loading@GlobalSwfPath@@SA?AV?$CStringT@DV?$StrTraitMFC_DLL@DV?$ChTraitsCRT@D@ATL@@@@@ATL@@XZ
_TEXT	SEGMENT
tv74 = -28						; size = 4
tv64 = -24						; size = 4
$T187946 = -20						; size = 4
$T187943 = -16						; size = 4
__$EHRec$ = -12						; size = 12
___$ReturnUdt$ = 8					; size = 4
?Net_Loading@GlobalSwfPath@@SA?AV?$CStringT@DV?$StrTraitMFC_DLL@DV?$ChTraitsCRT@D@ATL@@@@@ATL@@XZ PROC NEAR ; GlobalSwfPath::Net_Loading, COMDAT

; 15   : 	{

  00000	55		 push	 ebp
  00001	8b ec		 mov	 ebp, esp
  00003	6a ff		 push	 -1
  00005	68 00 00 00 00	 push	 __ehhandler$?Net_Loading@GlobalSwfPath@@SA?AV?$CStringT@DV?$StrTraitMFC_DLL@DV?$ChTraitsCRT@D@ATL@@@@@ATL@@XZ
  0000a	64 a1 00 00 00
	00		 mov	 eax, DWORD PTR fs:__except_list
  00010	50		 push	 eax
  00011	64 89 25 00 00
	00 00		 mov	 DWORD PTR fs:__except_list, esp
  00018	83 ec 10	 sub	 esp, 16			; 00000010H
  0001b	56		 push	 esi
  0001c	b8 cc cc cc cc	 mov	 eax, -858993460		; ccccccccH
  00021	89 45 e4	 mov	 DWORD PTR [ebp-28], eax
  00024	89 45 e8	 mov	 DWORD PTR [ebp-24], eax
  00027	89 45 ec	 mov	 DWORD PTR [ebp-20], eax
  0002a	89 45 f0	 mov	 DWORD PTR [ebp-16], eax
  0002d	c7 45 ec 00 00
	00 00		 mov	 DWORD PTR $T187946[ebp], 0

; 16   : 		return GetSwfPath() + "loading.swf";

  00034	8d 45 f0	 lea	 eax, DWORD PTR $T187943[ebp]
  00037	50		 push	 eax
  00038	e8 00 00 00 00	 call	 ?GetSwfPath@GlobalSwfPath@@SA?AV?$CStringT@DV?$StrTraitMFC_DLL@DV?$ChTraitsCRT@D@ATL@@@@@ATL@@XZ ; GlobalSwfPath::GetSwfPath
  0003d	83 c4 04	 add	 esp, 4
  00040	89 45 e8	 mov	 DWORD PTR tv64[ebp], eax
  00043	8b 4d e8	 mov	 ecx, DWORD PTR tv64[ebp]
  00046	89 4d e4	 mov	 DWORD PTR tv74[ebp], ecx
  00049	c7 45 fc 00 00
	00 00		 mov	 DWORD PTR __$EHRec$[ebp+8], 0
  00050	68 00 00 00 00	 push	 OFFSET FLAT:??_C@_0M@DBEKFKCI@loading?4swf?$AA@
  00055	8b 55 e4	 mov	 edx, DWORD PTR tv74[ebp]
  00058	52		 push	 edx
  00059	8b 45 08	 mov	 eax, DWORD PTR ___$ReturnUdt$[ebp]
  0005c	50		 push	 eax
  0005d	e8 00 00 00 00	 call	 ??HATL@@YA?AV?$CStringT@DV?$StrTraitMFC_DLL@DV?$ChTraitsCRT@D@ATL@@@@@0@ABV10@PBD@Z ; ATL::operator+
  00062	83 c4 0c	 add	 esp, 12			; 0000000cH
  00065	8b 4d ec	 mov	 ecx, DWORD PTR $T187946[ebp]
  00068	83 c9 01	 or	 ecx, 1
  0006b	89 4d ec	 mov	 DWORD PTR $T187946[ebp], ecx
  0006e	c7 45 fc ff ff
	ff ff		 mov	 DWORD PTR __$EHRec$[ebp+8], -1
  00075	8b f4		 mov	 esi, esp
  00077	8d 4d f0	 lea	 ecx, DWORD PTR $T187943[ebp]
  0007a	ff 15 00 00 00
	00		 call	 DWORD PTR __imp_??1?$CStringT@DV?$StrTraitMFC_DLL@DV?$ChTraitsCRT@D@ATL@@@@@ATL@@QAE@XZ
  00080	3b f4		 cmp	 esi, esp
  00082	e8 00 00 00 00	 call	 __RTC_CheckEsp
  00087	8b 45 08	 mov	 eax, DWORD PTR ___$ReturnUdt$[ebp]

; 17   : 	}

  0008a	8b 4d f4	 mov	 ecx, DWORD PTR __$EHRec$[ebp]
  0008d	64 89 0d 00 00
	00 00		 mov	 DWORD PTR fs:__except_list, ecx
  00094	5e		 pop	 esi
  00095	83 c4 1c	 add	 esp, 28			; 0000001cH
  00098	3b ec		 cmp	 ebp, esp
  0009a	e8 00 00 00 00	 call	 __RTC_CheckEsp
  0009f	8b e5		 mov	 esp, ebp
  000a1	5d		 pop	 ebp
  000a2	c3		 ret	 0
_TEXT	ENDS
;	COMDAT text$x
text$x	SEGMENT
$L187944:
  00000	8b f4		 mov	 esi, esp
  00002	8d 4d f0	 lea	 ecx, DWORD PTR $T187943[ebp]
  00005	ff 15 00 00 00
	00		 call	 DWORD PTR __imp_??1?$CStringT@DV?$StrTraitMFC_DLL@DV?$ChTraitsCRT@D@ATL@@@@@ATL@@QAE@XZ
  0000b	3b f4		 cmp	 esi, esp
  0000d	e9 00 00 00 00	 jmp	 __RTC_CheckEsp
__ehhandler$?Net_Loading@GlobalSwfPath@@SA?AV?$CStringT@DV?$StrTraitMFC_DLL@DV?$ChTraitsCRT@D@ATL@@@@@ATL@@XZ:
  00012	b8 00 00 00 00	 mov	 eax, OFFSET FLAT:$T187949
  00017	e9 00 00 00 00	 jmp	 ___CxxFrameHandler
text$x	ENDS
?Net_Loading@GlobalSwfPath@@SA?AV?$CStringT@DV?$StrTraitMFC_DLL@DV?$ChTraitsCRT@D@ATL@@@@@ATL@@XZ ENDP ; GlobalSwfPath::Net_Loading
PUBLIC	??_C@_00CNPNBAHC@?$AA@				; `string'
PUBLIC	??_C@_0BH@PCLJNBEP@?2Resources?2StandardUI?2?$AA@ ; `string'
EXTRN	?GetHomePath@CLhcImg@@SA_NQADH@Z:NEAR		; CLhcImg::GetHomePath
EXTRN	___security_cookie:DWORD
EXTRN	@_RTC_CheckStackVars@8:NEAR
EXTRN	@__security_check_cookie@4:NEAR
EXTRN	__imp_??0?$CStringT@DV?$StrTraitMFC_DLL@DV?$ChTraitsCRT@D@ATL@@@@@ATL@@QAE@PBD@Z:NEAR
;	COMDAT xdata$x
xdata$x	SEGMENT
$T187971 DD	0ffffffffH
	DD	FLAT:$L187957
$T187962 DD	019930520H
	DD	01H
	DD	FLAT:$T187971
	DD	2 DUP(00H)
	DD	2 DUP(00H)
xdata$x	ENDS
;	COMDAT ??_C@_0BH@PCLJNBEP@?2Resources?2StandardUI?2?$AA@
CONST	SEGMENT
??_C@_0BH@PCLJNBEP@?2Resources?2StandardUI?2?$AA@ DB '\Resources\Standard'
	DB	'UI\', 00H					; `string'
CONST	ENDS
;	COMDAT ??_C@_00CNPNBAHC@?$AA@
CONST	SEGMENT
??_C@_00CNPNBAHC@?$AA@ DB 00H				; `string'
; Function compile flags: /Odt /RTCsu
CONST	ENDS
;	COMDAT ?GetSwfPath@GlobalSwfPath@@SA?AV?$CStringT@DV?$StrTraitMFC_DLL@DV?$ChTraitsCRT@D@ATL@@@@@ATL@@XZ
_TEXT	SEGMENT
tv84 = -552						; size = 4
tv80 = -548						; size = 4
$T187959 = -544						; size = 4
$T187956 = -540						; size = 4
_szBuffer$ = -532					; size = 512
__$ArrayPad$ = -16					; size = 4
__$EHRec$ = -12						; size = 12
__$ReturnAddr$ = 4					; size = 4
___$ReturnUdt$ = 8					; size = 4
?GetSwfPath@GlobalSwfPath@@SA?AV?$CStringT@DV?$StrTraitMFC_DLL@DV?$ChTraitsCRT@D@ATL@@@@@ATL@@XZ PROC NEAR ; GlobalSwfPath::GetSwfPath, COMDAT

; 20   : 	{

  00000	55		 push	 ebp
  00001	8b ec		 mov	 ebp, esp
  00003	6a ff		 push	 -1
  00005	68 00 00 00 00	 push	 __ehhandler$?GetSwfPath@GlobalSwfPath@@SA?AV?$CStringT@DV?$StrTraitMFC_DLL@DV?$ChTraitsCRT@D@ATL@@@@@ATL@@XZ
  0000a	64 a1 00 00 00
	00		 mov	 eax, DWORD PTR fs:__except_list
  00010	50		 push	 eax
  00011	64 89 25 00 00
	00 00		 mov	 DWORD PTR fs:__except_list, esp
  00018	81 ec 1c 02 00
	00		 sub	 esp, 540		; 0000021cH
  0001e	56		 push	 esi
  0001f	57		 push	 edi
  00020	8d bd d8 fd ff
	ff		 lea	 edi, DWORD PTR [ebp-552]
  00026	b9 87 00 00 00	 mov	 ecx, 135		; 00000087H
  0002b	b8 cc cc cc cc	 mov	 eax, -858993460		; ccccccccH
  00030	f3 ab		 rep stosd
  00032	a1 00 00 00 00	 mov	 eax, DWORD PTR ___security_cookie
  00037	89 45 f0	 mov	 DWORD PTR __$ArrayPad$[ebp], eax
  0003a	c7 85 e0 fd ff
	ff 00 00 00 00	 mov	 DWORD PTR $T187959[ebp], 0

; 21   : 		char szBuffer[512];
; 22   : 		if( CLhcImg::GetHomePath( szBuffer,512) )

  00044	68 00 02 00 00	 push	 512			; 00000200H
  00049	8d 85 ec fd ff
	ff		 lea	 eax, DWORD PTR _szBuffer$[ebp]
  0004f	50		 push	 eax
  00050	e8 00 00 00 00	 call	 ?GetHomePath@CLhcImg@@SA_NQADH@Z ; CLhcImg::GetHomePath
  00055	83 c4 08	 add	 esp, 8
  00058	0f b6 c8	 movzx	 ecx, al
  0005b	85 c9		 test	 ecx, ecx
  0005d	74 7d		 je	 SHORT $L187270

; 23   : 		{
; 24   : 			return CString( szBuffer ) + "\\Resources\\StandardUI\\";

  0005f	8b f4		 mov	 esi, esp
  00061	8d 95 ec fd ff
	ff		 lea	 edx, DWORD PTR _szBuffer$[ebp]
  00067	52		 push	 edx
  00068	8d 8d e4 fd ff
	ff		 lea	 ecx, DWORD PTR $T187956[ebp]
  0006e	ff 15 00 00 00
	00		 call	 DWORD PTR __imp_??0?$CStringT@DV?$StrTraitMFC_DLL@DV?$ChTraitsCRT@D@ATL@@@@@ATL@@QAE@PBD@Z
  00074	3b f4		 cmp	 esi, esp
  00076	e8 00 00 00 00	 call	 __RTC_CheckEsp
  0007b	89 85 dc fd ff
	ff		 mov	 DWORD PTR tv80[ebp], eax
  00081	8b 85 dc fd ff
	ff		 mov	 eax, DWORD PTR tv80[ebp]
  00087	89 85 d8 fd ff
	ff		 mov	 DWORD PTR tv84[ebp], eax
  0008d	c7 45 fc 00 00
	00 00		 mov	 DWORD PTR __$EHRec$[ebp+8], 0
  00094	68 00 00 00 00	 push	 OFFSET FLAT:??_C@_0BH@PCLJNBEP@?2Resources?2StandardUI?2?$AA@
  00099	8b 8d d8 fd ff
	ff		 mov	 ecx, DWORD PTR tv84[ebp]
  0009f	51		 push	 ecx
  000a0	8b 55 08	 mov	 edx, DWORD PTR ___$ReturnUdt$[ebp]
  000a3	52		 push	 edx
  000a4	e8 00 00 00 00	 call	 ??HATL@@YA?AV?$CStringT@DV?$StrTraitMFC_DLL@DV?$ChTraitsCRT@D@ATL@@@@@0@ABV10@PBD@Z ; ATL::operator+
  000a9	83 c4 0c	 add	 esp, 12			; 0000000cH
  000ac	8b 85 e0 fd ff
	ff		 mov	 eax, DWORD PTR $T187959[ebp]
  000b2	83 c8 01	 or	 eax, 1
  000b5	89 85 e0 fd ff
	ff		 mov	 DWORD PTR $T187959[ebp], eax
  000bb	c7 45 fc ff ff
	ff ff		 mov	 DWORD PTR __$EHRec$[ebp+8], -1
  000c2	8b f4		 mov	 esi, esp
  000c4	8d 8d e4 fd ff
	ff		 lea	 ecx, DWORD PTR $T187956[ebp]
  000ca	ff 15 00 00 00
	00		 call	 DWORD PTR __imp_??1?$CStringT@DV?$StrTraitMFC_DLL@DV?$ChTraitsCRT@D@ATL@@@@@ATL@@QAE@XZ
  000d0	3b f4		 cmp	 esi, esp
  000d2	e8 00 00 00 00	 call	 __RTC_CheckEsp
  000d7	8b 45 08	 mov	 eax, DWORD PTR ___$ReturnUdt$[ebp]
  000da	eb 29		 jmp	 SHORT $L187268
$L187270:

; 25   : 		}else
; 26   : 		{
; 27   : 			return "";

  000dc	8b f4		 mov	 esi, esp
  000de	68 00 00 00 00	 push	 OFFSET FLAT:??_C@_00CNPNBAHC@?$AA@
  000e3	8b 4d 08	 mov	 ecx, DWORD PTR ___$ReturnUdt$[ebp]
  000e6	ff 15 00 00 00
	00		 call	 DWORD PTR __imp_??0?$CStringT@DV?$StrTraitMFC_DLL@DV?$ChTraitsCRT@D@ATL@@@@@ATL@@QAE@PBD@Z
  000ec	3b f4		 cmp	 esi, esp
  000ee	e8 00 00 00 00	 call	 __RTC_CheckEsp
  000f3	8b 8d e0 fd ff
	ff		 mov	 ecx, DWORD PTR $T187959[ebp]
  000f9	83 c9 01	 or	 ecx, 1
  000fc	89 8d e0 fd ff
	ff		 mov	 DWORD PTR $T187959[ebp], ecx
  00102	8b 45 08	 mov	 eax, DWORD PTR ___$ReturnUdt$[ebp]
$L187268:

; 28   : 		}
; 29   : 	}

  00105	52		 push	 edx
  00106	8b cd		 mov	 ecx, ebp
  00108	50		 push	 eax
  00109	8d 15 00 00 00
	00		 lea	 edx, DWORD PTR $L187968
  0010f	e8 00 00 00 00	 call	 @_RTC_CheckStackVars@8
  00114	58		 pop	 eax
  00115	5a		 pop	 edx
  00116	8b 4d f4	 mov	 ecx, DWORD PTR __$EHRec$[ebp]
  00119	64 89 0d 00 00
	00 00		 mov	 DWORD PTR fs:__except_list, ecx
  00120	8b 4d f0	 mov	 ecx, DWORD PTR __$ArrayPad$[ebp]
  00123	e8 00 00 00 00	 call	 @__security_check_cookie@4
  00128	5f		 pop	 edi
  00129	5e		 pop	 esi
  0012a	81 c4 28 02 00
	00		 add	 esp, 552		; 00000228H
  00130	3b ec		 cmp	 ebp, esp
  00132	e8 00 00 00 00	 call	 __RTC_CheckEsp
  00137	8b e5		 mov	 esp, ebp
  00139	5d		 pop	 ebp
  0013a	c3		 ret	 0
$L187968:
  0013b	01 00 00 00	 DD	 1
  0013f	00 00 00 00	 DD	 $L187967
$L187967:
  00143	ec fd ff ff	 DD	 -532			; fffffdecH
  00147	00 02 00 00	 DD	 512			; 00000200H
  0014b	00 00 00 00	 DD	 $L187963
$L187963:
  0014f	73		 DB	 115			; 00000073H
  00150	7a		 DB	 122			; 0000007aH
  00151	42		 DB	 66			; 00000042H
  00152	75		 DB	 117			; 00000075H
  00153	66		 DB	 102			; 00000066H
  00154	66		 DB	 102			; 00000066H
  00155	65		 DB	 101			; 00000065H
  00156	72		 DB	 114			; 00000072H
  00157	00		 DB	 0
_TEXT	ENDS
;	COMDAT text$x
text$x	SEGMENT
$L187957:
  00000	8b f4		 mov	 esi, esp
  00002	8d 8d e4 fd ff
	ff		 lea	 ecx, DWORD PTR $T187956[ebp]
  00008	ff 15 00 00 00
	00		 call	 DWORD PTR __imp_??1?$CStringT@DV?$StrTraitMFC_DLL@DV?$ChTraitsCRT@D@ATL@@@@@ATL@@QAE@XZ
  0000e	3b f4		 cmp	 esi, esp
  00010	e9 00 00 00 00	 jmp	 __RTC_CheckEsp
__ehhandler$?GetSwfPath@GlobalSwfPath@@SA?AV?$CStringT@DV?$StrTraitMFC_DLL@DV?$ChTraitsCRT@D@ATL@@@@@ATL@@XZ:
  00015	b8 00 00 00 00	 mov	 eax, OFFSET FLAT:$T187962
  0001a	e9 00 00 00 00	 jmp	 ___CxxFrameHandler
text$x	ENDS
?GetSwfPath@GlobalSwfPath@@SA?AV?$CStringT@DV?$StrTraitMFC_DLL@DV?$ChTraitsCRT@D@ATL@@@@@ATL@@XZ ENDP ; GlobalSwfPath::GetSwfPath
EXTRN	?OnPaint@CWnd@@IAEXXZ:NEAR			; CWnd::OnPaint
EXTRN	??0CBrush@@QAE@K@Z:NEAR				; CBrush::CBrush
EXTRN	??1CBrush@@UAE@XZ:NEAR				; CBrush::~CBrush
EXTRN	??0CPaintDC@@QAE@PAVCWnd@@@Z:NEAR		; CPaintDC::CPaintDC
EXTRN	??1CPaintDC@@UAE@XZ:NEAR			; CPaintDC::~CPaintDC
EXTRN	??BCRect@@QAEPAUtagRECT@@XZ:NEAR		; CRect::operator tagRECT *
EXTRN	?GetClientRect@CWnd@@QBEXPAUtagRECT@@@Z:NEAR	; CWnd::GetClientRect
EXTRN	?SelectObject@CDC@@QAEPAVCBrush@@PAV2@@Z:NEAR	; CDC::SelectObject
EXTRN	?FillRect@CDC@@QAEXPBUtagRECT@@PAVCBrush@@@Z:NEAR ; CDC::FillRect
xdata$x	SEGMENT
$T187987 DD	0ffffffffH
	DD	FLAT:$L187976
	DD	00H
	DD	FLAT:$L187977
$T187979 DD	019930520H
	DD	02H
	DD	FLAT:$T187987
	DD	2 DUP(00H)
	DD	2 DUP(00H)
; Function compile flags: /Odt /RTCsu
; File d:\boxgit\playbox\playbox\dev\prj\playbox\src\gui\commoncontrol\flashloadingwnd.cpp
xdata$x	ENDS
_TEXT	SEGMENT
_pOldBrush$ = -156					; size = 4
_brush$ = -148						; size = 8
_rect$ = -132						; size = 16
_dc$ = -108						; size = 84
_this$ = -20						; size = 4
__$ArrayPad$ = -16					; size = 4
__$EHRec$ = -12						; size = 12
__$ReturnAddr$ = 4					; size = 4
?OnPaint@CFlashWnd@@QAEXXZ PROC NEAR			; CFlashWnd::OnPaint
; _this$ = ecx

; 39   : {

  002b0	55		 push	 ebp
  002b1	8b ec		 mov	 ebp, esp
  002b3	6a ff		 push	 -1
  002b5	68 00 00 00 00	 push	 __ehhandler$?OnPaint@CFlashWnd@@QAEXXZ
  002ba	64 a1 00 00 00
	00		 mov	 eax, DWORD PTR fs:__except_list
  002c0	50		 push	 eax
  002c1	64 89 25 00 00
	00 00		 mov	 DWORD PTR fs:__except_list, esp
  002c8	81 ec 90 00 00
	00		 sub	 esp, 144		; 00000090H
  002ce	57		 push	 edi
  002cf	51		 push	 ecx
  002d0	8d bd 64 ff ff
	ff		 lea	 edi, DWORD PTR [ebp-156]
  002d6	b9 24 00 00 00	 mov	 ecx, 36			; 00000024H
  002db	b8 cc cc cc cc	 mov	 eax, -858993460		; ccccccccH
  002e0	f3 ab		 rep stosd
  002e2	59		 pop	 ecx
  002e3	a1 00 00 00 00	 mov	 eax, DWORD PTR ___security_cookie
  002e8	89 45 f0	 mov	 DWORD PTR __$ArrayPad$[ebp], eax
  002eb	89 4d ec	 mov	 DWORD PTR _this$[ebp], ecx

; 40   : 	CPaintDC dc(this); // device context for painting

  002ee	8b 45 ec	 mov	 eax, DWORD PTR _this$[ebp]
  002f1	50		 push	 eax
  002f2	8d 4d 94	 lea	 ecx, DWORD PTR _dc$[ebp]
  002f5	e8 00 00 00 00	 call	 ??0CPaintDC@@QAE@PAVCWnd@@@Z ; CPaintDC::CPaintDC
  002fa	c7 45 fc 00 00
	00 00		 mov	 DWORD PTR __$EHRec$[ebp+8], 0

; 41   : 	CRect rect;

  00301	8d 8d 7c ff ff
	ff		 lea	 ecx, DWORD PTR _rect$[ebp]
  00307	e8 00 00 00 00	 call	 ??0CRect@@QAE@XZ	; CRect::CRect

; 42   : 	GetClientRect(rect);	

  0030c	8d 8d 7c ff ff
	ff		 lea	 ecx, DWORD PTR _rect$[ebp]
  00312	e8 00 00 00 00	 call	 ??BCRect@@QAEPAUtagRECT@@XZ ; CRect::operator tagRECT *
  00317	50		 push	 eax
  00318	8b 4d ec	 mov	 ecx, DWORD PTR _this$[ebp]
  0031b	e8 00 00 00 00	 call	 ?GetClientRect@CWnd@@QBEXPAUtagRECT@@@Z ; CWnd::GetClientRect

; 43   : 	CBrush brush( m_colBk );

  00320	8b 4d ec	 mov	 ecx, DWORD PTR _this$[ebp]
  00323	8b 51 54	 mov	 edx, DWORD PTR [ecx+84]
  00326	52		 push	 edx
  00327	8d 8d 6c ff ff
	ff		 lea	 ecx, DWORD PTR _brush$[ebp]
  0032d	e8 00 00 00 00	 call	 ??0CBrush@@QAE@K@Z	; CBrush::CBrush
  00332	c6 45 fc 01	 mov	 BYTE PTR __$EHRec$[ebp+8], 1

; 44   : 	CBrush* pOldBrush = dc.SelectObject(&brush);

  00336	8d 85 6c ff ff
	ff		 lea	 eax, DWORD PTR _brush$[ebp]
  0033c	50		 push	 eax
  0033d	8d 4d 94	 lea	 ecx, DWORD PTR _dc$[ebp]
  00340	e8 00 00 00 00	 call	 ?SelectObject@CDC@@QAEPAVCBrush@@PAV2@@Z ; CDC::SelectObject
  00345	89 85 64 ff ff
	ff		 mov	 DWORD PTR _pOldBrush$[ebp], eax

; 45   : 	dc.FillRect(rect,&brush);

  0034b	8d 8d 6c ff ff
	ff		 lea	 ecx, DWORD PTR _brush$[ebp]
  00351	51		 push	 ecx
  00352	8d 8d 7c ff ff
	ff		 lea	 ecx, DWORD PTR _rect$[ebp]
  00358	e8 00 00 00 00	 call	 ??BCRect@@QAEPAUtagRECT@@XZ ; CRect::operator tagRECT *
  0035d	50		 push	 eax
  0035e	8d 4d 94	 lea	 ecx, DWORD PTR _dc$[ebp]
  00361	e8 00 00 00 00	 call	 ?FillRect@CDC@@QAEXPBUtagRECT@@PAVCBrush@@@Z ; CDC::FillRect

; 46   : 	dc.SelectObject(pOldBrush);

  00366	8b 95 64 ff ff
	ff		 mov	 edx, DWORD PTR _pOldBrush$[ebp]
  0036c	52		 push	 edx
  0036d	8d 4d 94	 lea	 ecx, DWORD PTR _dc$[ebp]
  00370	e8 00 00 00 00	 call	 ?SelectObject@CDC@@QAEPAVCBrush@@PAV2@@Z ; CDC::SelectObject

; 47   : 	__super::OnPaint();

  00375	8b 4d ec	 mov	 ecx, DWORD PTR _this$[ebp]
  00378	e8 00 00 00 00	 call	 ?OnPaint@CWnd@@IAEXXZ	; CWnd::OnPaint

; 48   : }

  0037d	c6 45 fc 00	 mov	 BYTE PTR __$EHRec$[ebp+8], 0
  00381	8d 8d 6c ff ff
	ff		 lea	 ecx, DWORD PTR _brush$[ebp]
  00387	e8 00 00 00 00	 call	 ??1CBrush@@UAE@XZ	; CBrush::~CBrush
  0038c	c7 45 fc ff ff
	ff ff		 mov	 DWORD PTR __$EHRec$[ebp+8], -1
  00393	8d 4d 94	 lea	 ecx, DWORD PTR _dc$[ebp]
  00396	e8 00 00 00 00	 call	 ??1CPaintDC@@UAE@XZ	; CPaintDC::~CPaintDC
  0039b	52		 push	 edx
  0039c	8b cd		 mov	 ecx, ebp
  0039e	50		 push	 eax
  0039f	8d 15 00 00 00
	00		 lea	 edx, DWORD PTR $L187986
  003a5	e8 00 00 00 00	 call	 @_RTC_CheckStackVars@8
  003aa	58		 pop	 eax
  003ab	5a		 pop	 edx
  003ac	8b 4d f4	 mov	 ecx, DWORD PTR __$EHRec$[ebp]
  003af	64 89 0d 00 00
	00 00		 mov	 DWORD PTR fs:__except_list, ecx
  003b6	8b 4d f0	 mov	 ecx, DWORD PTR __$ArrayPad$[ebp]
  003b9	e8 00 00 00 00	 call	 @__security_check_cookie@4
  003be	5f		 pop	 edi
  003bf	81 c4 9c 00 00
	00		 add	 esp, 156		; 0000009cH
  003c5	3b ec		 cmp	 ebp, esp
  003c7	e8 00 00 00 00	 call	 __RTC_CheckEsp
  003cc	8b e5		 mov	 esp, ebp
  003ce	5d		 pop	 ebp
  003cf	c3		 ret	 0
$L187986:
  003d0	03 00 00 00	 DD	 3
  003d4	00 00 00 00	 DD	 $L187985
$L187985:
  003d8	94 ff ff ff	 DD	 -108			; ffffff94H
  003dc	54 00 00 00	 DD	 84			; 00000054H
  003e0	00 00 00 00	 DD	 $L187980
  003e4	7c ff ff ff	 DD	 -132			; ffffff7cH
  003e8	10 00 00 00	 DD	 16			; 00000010H
  003ec	00 00 00 00	 DD	 $L187981
  003f0	6c ff ff ff	 DD	 -148			; ffffff6cH
  003f4	08 00 00 00	 DD	 8
  003f8	00 00 00 00	 DD	 $L187982
$L187982:
  003fc	62		 DB	 98			; 00000062H
  003fd	72		 DB	 114			; 00000072H
  003fe	75		 DB	 117			; 00000075H
  003ff	73		 DB	 115			; 00000073H
  00400	68		 DB	 104			; 00000068H
  00401	00		 DB	 0
$L187981:
  00402	72		 DB	 114			; 00000072H
  00403	65		 DB	 101			; 00000065H
  00404	63		 DB	 99			; 00000063H
  00405	74		 DB	 116			; 00000074H
  00406	00		 DB	 0
$L187980:
  00407	64		 DB	 100			; 00000064H
  00408	63		 DB	 99			; 00000063H
  00409	00		 DB	 0
_TEXT	ENDS
text$x	SEGMENT
$L187976:
  00040	8d 4d 94	 lea	 ecx, DWORD PTR _dc$[ebp]
  00043	e9 00 00 00 00	 jmp	 ??1CPaintDC@@UAE@XZ	; CPaintDC::~CPaintDC
$L187977:
  00048	8d 8d 6c ff ff
	ff		 lea	 ecx, DWORD PTR _brush$[ebp]
  0004e	e9 00 00 00 00	 jmp	 ??1CBrush@@UAE@XZ	; CBrush::~CBrush
__ehhandler$?OnPaint@CFlashWnd@@QAEXXZ:
  00053	b8 00 00 00 00	 mov	 eax, OFFSET FLAT:$T187979
  00058	e9 00 00 00 00	 jmp	 ___CxxFrameHandler
text$x	ENDS
?OnPaint@CFlashWnd@@QAEXXZ ENDP				; CFlashWnd::OnPaint
; Function compile flags: /Odt /RTCsu
_TEXT	SEGMENT
_this$ = -4						; size = 4
_pDC$ = 8						; size = 4
?OnEraseBkgnd@CFlashWnd@@IAEHPAVCDC@@@Z PROC NEAR	; CFlashWnd::OnEraseBkgnd
; _this$ = ecx

; 51   : {

  00410	55		 push	 ebp
  00411	8b ec		 mov	 ebp, esp
  00413	51		 push	 ecx
  00414	c7 45 fc cc cc
	cc cc		 mov	 DWORD PTR [ebp-4], -858993460 ; ccccccccH
  0041b	89 4d fc	 mov	 DWORD PTR _this$[ebp], ecx

; 52   : 	return TRUE;

  0041e	b8 01 00 00 00	 mov	 eax, 1

; 53   : }

  00423	8b e5		 mov	 esp, ebp
  00425	5d		 pop	 ebp
  00426	c2 04 00	 ret	 4
?OnEraseBkgnd@CFlashWnd@@IAEHPAVCDC@@@Z ENDP		; CFlashWnd::OnEraseBkgnd
_TEXT	ENDS
EXTRN	?OnSize@CWnd@@IAEXIHH@Z:NEAR			; CWnd::OnSize
EXTRN	?Width@CRect@@QBEHXZ:NEAR			; CRect::Width
EXTRN	?Height@CRect@@QBEHXZ:NEAR			; CRect::Height
EXTRN	?MoveWindow@CWnd@@QAEXHHHHH@Z:NEAR		; CWnd::MoveWindow
; Function compile flags: /Odt /RTCsu
_TEXT	SEGMENT
_iy$ = -12						; size = 4
_ix$ = -8						; size = 4
_this$ = -4						; size = 4
_nType$ = 8						; size = 4
_cx$ = 12						; size = 4
_cy$ = 16						; size = 4
?OnSize@CFlashWnd@@QAEXIHH@Z PROC NEAR			; CFlashWnd::OnSize
; _this$ = ecx

; 56   : {	

  00430	55		 push	 ebp
  00431	8b ec		 mov	 ebp, esp
  00433	83 ec 0c	 sub	 esp, 12			; 0000000cH
  00436	56		 push	 esi
  00437	c7 45 f4 cc cc
	cc cc		 mov	 DWORD PTR [ebp-12], -858993460 ; ccccccccH
  0043e	c7 45 f8 cc cc
	cc cc		 mov	 DWORD PTR [ebp-8], -858993460 ; ccccccccH
  00445	c7 45 fc cc cc
	cc cc		 mov	 DWORD PTR [ebp-4], -858993460 ; ccccccccH
  0044c	89 4d fc	 mov	 DWORD PTR _this$[ebp], ecx

; 57   : 	int ix = cx/2-m_rcFlash.Width()/2;

  0044f	8b 45 0c	 mov	 eax, DWORD PTR _cx$[ebp]
  00452	99		 cdq
  00453	2b c2		 sub	 eax, edx
  00455	8b f0		 mov	 esi, eax
  00457	d1 fe		 sar	 esi, 1
  00459	8b 4d fc	 mov	 ecx, DWORD PTR _this$[ebp]
  0045c	83 c1 58	 add	 ecx, 88			; 00000058H
  0045f	e8 00 00 00 00	 call	 ?Width@CRect@@QBEHXZ	; CRect::Width
  00464	99		 cdq
  00465	2b c2		 sub	 eax, edx
  00467	d1 f8		 sar	 eax, 1
  00469	2b f0		 sub	 esi, eax
  0046b	89 75 f8	 mov	 DWORD PTR _ix$[ebp], esi

; 58   : 	int iy = cy/2-m_rcFlash.Height()/2;

  0046e	8b 45 10	 mov	 eax, DWORD PTR _cy$[ebp]
  00471	99		 cdq
  00472	2b c2		 sub	 eax, edx
  00474	8b f0		 mov	 esi, eax
  00476	d1 fe		 sar	 esi, 1
  00478	8b 4d fc	 mov	 ecx, DWORD PTR _this$[ebp]
  0047b	83 c1 58	 add	 ecx, 88			; 00000058H
  0047e	e8 00 00 00 00	 call	 ?Height@CRect@@QBEHXZ	; CRect::Height
  00483	99		 cdq
  00484	2b c2		 sub	 eax, edx
  00486	d1 f8		 sar	 eax, 1
  00488	2b f0		 sub	 esi, eax
  0048a	89 75 f4	 mov	 DWORD PTR _iy$[ebp], esi

; 59   : 
; 60   : 	m_flash.MoveWindow( ix, iy, m_rcFlash.Width(), m_rcFlash.Height());

  0048d	6a 01		 push	 1
  0048f	8b 4d fc	 mov	 ecx, DWORD PTR _this$[ebp]
  00492	83 c1 58	 add	 ecx, 88			; 00000058H
  00495	e8 00 00 00 00	 call	 ?Height@CRect@@QBEHXZ	; CRect::Height
  0049a	50		 push	 eax
  0049b	8b 4d fc	 mov	 ecx, DWORD PTR _this$[ebp]
  0049e	83 c1 58	 add	 ecx, 88			; 00000058H
  004a1	e8 00 00 00 00	 call	 ?Width@CRect@@QBEHXZ	; CRect::Width
  004a6	50		 push	 eax
  004a7	8b 45 f4	 mov	 eax, DWORD PTR _iy$[ebp]
  004aa	50		 push	 eax
  004ab	8b 4d f8	 mov	 ecx, DWORD PTR _ix$[ebp]
  004ae	51		 push	 ecx
  004af	8b 4d fc	 mov	 ecx, DWORD PTR _this$[ebp]
  004b2	83 c1 68	 add	 ecx, 104		; 00000068H
  004b5	e8 00 00 00 00	 call	 ?MoveWindow@CWnd@@QAEXHHHHH@Z ; CWnd::MoveWindow

; 61   : 	__super::OnSize(nType,cx,cy);

  004ba	8b 55 10	 mov	 edx, DWORD PTR _cy$[ebp]
  004bd	52		 push	 edx
  004be	8b 45 0c	 mov	 eax, DWORD PTR _cx$[ebp]
  004c1	50		 push	 eax
  004c2	8b 4d 08	 mov	 ecx, DWORD PTR _nType$[ebp]
  004c5	51		 push	 ecx
  004c6	8b 4d fc	 mov	 ecx, DWORD PTR _this$[ebp]
  004c9	e8 00 00 00 00	 call	 ?OnSize@CWnd@@IAEXIHH@Z	; CWnd::OnSize

; 62   : }

  004ce	5e		 pop	 esi
  004cf	83 c4 0c	 add	 esp, 12			; 0000000cH
  004d2	3b ec		 cmp	 ebp, esp
  004d4	e8 00 00 00 00	 call	 __RTC_CheckEsp
  004d9	8b e5		 mov	 esp, ebp
  004db	5d		 pop	 ebp
  004dc	c2 0c 00	 ret	 12			; 0000000cH
?OnSize@CFlashWnd@@QAEXIHH@Z ENDP			; CFlashWnd::OnSize
_TEXT	ENDS
EXTRN	__imp_?GetLength@?$CSimpleStringT@D$00@ATL@@QBEHXZ:NEAR
EXTRN	__imp_?GetManager@?$CSimpleStringT@D$00@ATL@@QBEPAUIAtlStringMgr@2@XZ:NEAR
EXTRN	__imp_?StringLength@?$CSimpleStringT@D$00@ATL@@SAHPBD@Z:NEAR
EXTRN	__imp_?Concatenate@?$CSimpleStringT@D$00@ATL@@KAXAAV12@PBDH1H@Z:NEAR
EXTRN	__imp_??0?$CStringT@DV?$StrTraitMFC_DLL@DV?$ChTraitsCRT@D@ATL@@@@@ATL@@QAE@PAUIAtlStringMgr@1@@Z:NEAR
EXTRN	__imp_??0?$CStringT@DV?$StrTraitMFC_DLL@DV?$ChTraitsCRT@D@ATL@@@@@ATL@@QAE@ABV01@@Z:NEAR
;	COMDAT xdata$x
; File d:\program files (x86)\microsoft visual studio .net 2003\vc7\atlmfc\include\cstringt.h
xdata$x	SEGMENT
$T188001 DD	0ffffffffH
	DD	FLAT:$L187991
$T187996 DD	019930520H
	DD	01H
	DD	FLAT:$T188001
	DD	2 DUP(00H)
	DD	2 DUP(00H)
; Function compile flags: /Odt /RTCsu
xdata$x	ENDS
;	COMDAT ??HATL@@YA?AV?$CStringT@DV?$StrTraitMFC_DLL@DV?$ChTraitsCRT@D@ATL@@@@@0@ABV10@PBD@Z
_TEXT	SEGMENT
$T187993 = -28						; size = 4
_strResult$ = -20					; size = 4
__$EHRec$ = -12						; size = 12
___$ReturnUdt$ = 8					; size = 4
_str1$ = 12						; size = 4
_psz2$ = 16						; size = 4
??HATL@@YA?AV?$CStringT@DV?$StrTraitMFC_DLL@DV?$ChTraitsCRT@D@ATL@@@@@0@ABV10@PBD@Z PROC NEAR ; ATL::operator+, COMDAT

; 2023 : 	{

  00000	55		 push	 ebp
  00001	8b ec		 mov	 ebp, esp
  00003	6a ff		 push	 -1
  00005	68 00 00 00 00	 push	 __ehhandler$??HATL@@YA?AV?$CStringT@DV?$StrTraitMFC_DLL@DV?$ChTraitsCRT@D@ATL@@@@@0@ABV10@PBD@Z
  0000a	64 a1 00 00 00
	00		 mov	 eax, DWORD PTR fs:__except_list
  00010	50		 push	 eax
  00011	64 89 25 00 00
	00 00		 mov	 DWORD PTR fs:__except_list, esp
  00018	83 ec 10	 sub	 esp, 16			; 00000010H
  0001b	56		 push	 esi
  0001c	57		 push	 edi
  0001d	b8 cc cc cc cc	 mov	 eax, -858993460		; ccccccccH
  00022	89 45 e4	 mov	 DWORD PTR [ebp-28], eax
  00025	89 45 e8	 mov	 DWORD PTR [ebp-24], eax
  00028	89 45 ec	 mov	 DWORD PTR [ebp-20], eax
  0002b	89 45 f0	 mov	 DWORD PTR [ebp-16], eax
  0002e	c7 45 e4 00 00
	00 00		 mov	 DWORD PTR $T187993[ebp], 0

; 2024 : 		CStringT strResult( str1.GetManager() );

  00035	8b f4		 mov	 esi, esp
  00037	8b 4d 0c	 mov	 ecx, DWORD PTR _str1$[ebp]
  0003a	ff 15 00 00 00
	00		 call	 DWORD PTR __imp_?GetManager@?$CSimpleStringT@D$00@ATL@@QBEPAUIAtlStringMgr@2@XZ
  00040	3b f4		 cmp	 esi, esp
  00042	e8 00 00 00 00	 call	 __RTC_CheckEsp
  00047	8b f4		 mov	 esi, esp
  00049	50		 push	 eax
  0004a	8d 4d ec	 lea	 ecx, DWORD PTR _strResult$[ebp]
  0004d	ff 15 00 00 00
	00		 call	 DWORD PTR __imp_??0?$CStringT@DV?$StrTraitMFC_DLL@DV?$ChTraitsCRT@D@ATL@@@@@ATL@@QAE@PAUIAtlStringMgr@1@@Z
  00053	3b f4		 cmp	 esi, esp
  00055	e8 00 00 00 00	 call	 __RTC_CheckEsp
  0005a	c7 45 fc 00 00
	00 00		 mov	 DWORD PTR __$EHRec$[ebp+8], 0

; 2025 : 
; 2026 : 		Concatenate( strResult, str1, str1.GetLength(), psz2, StringLength( psz2 ) );

  00061	8b f4		 mov	 esi, esp
  00063	8b 45 10	 mov	 eax, DWORD PTR _psz2$[ebp]
  00066	50		 push	 eax
  00067	ff 15 00 00 00
	00		 call	 DWORD PTR __imp_?StringLength@?$CSimpleStringT@D$00@ATL@@SAHPBD@Z
  0006d	83 c4 04	 add	 esp, 4
  00070	3b f4		 cmp	 esi, esp
  00072	e8 00 00 00 00	 call	 __RTC_CheckEsp
  00077	8b f4		 mov	 esi, esp
  00079	50		 push	 eax
  0007a	8b 4d 10	 mov	 ecx, DWORD PTR _psz2$[ebp]
  0007d	51		 push	 ecx
  0007e	8b fc		 mov	 edi, esp
  00080	8b 4d 0c	 mov	 ecx, DWORD PTR _str1$[ebp]
  00083	ff 15 00 00 00
	00		 call	 DWORD PTR __imp_?GetLength@?$CSimpleStringT@D$00@ATL@@QBEHXZ
  00089	3b fc		 cmp	 edi, esp
  0008b	e8 00 00 00 00	 call	 __RTC_CheckEsp
  00090	50		 push	 eax
  00091	8b fc		 mov	 edi, esp
  00093	8b 4d 0c	 mov	 ecx, DWORD PTR _str1$[ebp]
  00096	ff 15 00 00 00
	00		 call	 DWORD PTR __imp_??B?$CSimpleStringT@D$00@ATL@@QBEPBDXZ
  0009c	3b fc		 cmp	 edi, esp
  0009e	e8 00 00 00 00	 call	 __RTC_CheckEsp
  000a3	50		 push	 eax
  000a4	8d 55 ec	 lea	 edx, DWORD PTR _strResult$[ebp]
  000a7	52		 push	 edx
  000a8	ff 15 00 00 00
	00		 call	 DWORD PTR __imp_?Concatenate@?$CSimpleStringT@D$00@ATL@@KAXAAV12@PBDH1H@Z
  000ae	83 c4 14	 add	 esp, 20			; 00000014H
  000b1	3b f4		 cmp	 esi, esp
  000b3	e8 00 00 00 00	 call	 __RTC_CheckEsp

; 2027 : 
; 2028 : 		return( strResult );

  000b8	8b f4		 mov	 esi, esp
  000ba	8d 45 ec	 lea	 eax, DWORD PTR _strResult$[ebp]
  000bd	50		 push	 eax
  000be	8b 4d 08	 mov	 ecx, DWORD PTR ___$ReturnUdt$[ebp]
  000c1	ff 15 00 00 00
	00		 call	 DWORD PTR __imp_??0?$CStringT@DV?$StrTraitMFC_DLL@DV?$ChTraitsCRT@D@ATL@@@@@ATL@@QAE@ABV01@@Z
  000c7	3b f4		 cmp	 esi, esp
  000c9	e8 00 00 00 00	 call	 __RTC_CheckEsp
  000ce	8b 4d e4	 mov	 ecx, DWORD PTR $T187993[ebp]
  000d1	83 c9 01	 or	 ecx, 1
  000d4	89 4d e4	 mov	 DWORD PTR $T187993[ebp], ecx
  000d7	c7 45 fc ff ff
	ff ff		 mov	 DWORD PTR __$EHRec$[ebp+8], -1
  000de	8b f4		 mov	 esi, esp
  000e0	8d 4d ec	 lea	 ecx, DWORD PTR _strResult$[ebp]
  000e3	ff 15 00 00 00
	00		 call	 DWORD PTR __imp_??1?$CStringT@DV?$StrTraitMFC_DLL@DV?$ChTraitsCRT@D@ATL@@@@@ATL@@QAE@XZ
  000e9	3b f4		 cmp	 esi, esp
  000eb	e8 00 00 00 00	 call	 __RTC_CheckEsp
  000f0	8b 45 08	 mov	 eax, DWORD PTR ___$ReturnUdt$[ebp]

; 2029 : 	}

  000f3	52		 push	 edx
  000f4	8b cd		 mov	 ecx, ebp
  000f6	50		 push	 eax
  000f7	8d 15 00 00 00
	00		 lea	 edx, DWORD PTR $L188000
  000fd	e8 00 00 00 00	 call	 @_RTC_CheckStackVars@8
  00102	58		 pop	 eax
  00103	5a		 pop	 edx
  00104	8b 4d f4	 mov	 ecx, DWORD PTR __$EHRec$[ebp]
  00107	64 89 0d 00 00
	00 00		 mov	 DWORD PTR fs:__except_list, ecx
  0010e	5f		 pop	 edi
  0010f	5e		 pop	 esi
  00110	83 c4 1c	 add	 esp, 28			; 0000001cH
  00113	3b ec		 cmp	 ebp, esp
  00115	e8 00 00 00 00	 call	 __RTC_CheckEsp
  0011a	8b e5		 mov	 esp, ebp
  0011c	5d		 pop	 ebp
  0011d	c3		 ret	 0
$L188000:
  0011e	01 00 00 00	 DD	 1
  00122	00 00 00 00	 DD	 $L187999
$L187999:
  00126	ec ff ff ff	 DD	 -20			; ffffffecH
  0012a	04 00 00 00	 DD	 4
  0012e	00 00 00 00	 DD	 $L187997
$L187997:
  00132	73		 DB	 115			; 00000073H
  00133	74		 DB	 116			; 00000074H
  00134	72		 DB	 114			; 00000072H
  00135	52		 DB	 82			; 00000052H
  00136	65		 DB	 101			; 00000065H
  00137	73		 DB	 115			; 00000073H
  00138	75		 DB	 117			; 00000075H
  00139	6c		 DB	 108			; 0000006cH
  0013a	74		 DB	 116			; 00000074H
  0013b	00		 DB	 0
_TEXT	ENDS
;	COMDAT text$x
text$x	SEGMENT
$L187991:
  00000	8b f4		 mov	 esi, esp
  00002	8d 4d ec	 lea	 ecx, DWORD PTR _strResult$[ebp]
  00005	ff 15 00 00 00
	00		 call	 DWORD PTR __imp_??1?$CStringT@DV?$StrTraitMFC_DLL@DV?$ChTraitsCRT@D@ATL@@@@@ATL@@QAE@XZ
  0000b	3b f4		 cmp	 esi, esp
  0000d	e9 00 00 00 00	 jmp	 __RTC_CheckEsp
__ehhandler$??HATL@@YA?AV?$CStringT@DV?$StrTraitMFC_DLL@DV?$ChTraitsCRT@D@ATL@@@@@0@ABV10@PBD@Z:
  00012	b8 00 00 00 00	 mov	 eax, OFFSET FLAT:$T187996
  00017	e9 00 00 00 00	 jmp	 ___CxxFrameHandler
text$x	ENDS
??HATL@@YA?AV?$CStringT@DV?$StrTraitMFC_DLL@DV?$ChTraitsCRT@D@ATL@@@@@0@ABV10@PBD@Z ENDP ; ATL::operator+
PUBLIC	?InterlockedExchangePointer@@YGPAXPAPAXPAX@Z	; InterlockedExchangePointer
PUBLIC	?_AtlGetThreadACPFake@ATL@@YGIXZ		; ATL::_AtlGetThreadACPFake
PUBLIC	?_AtlGetThreadACPReal@ATL@@YGIXZ		; ATL::_AtlGetThreadACPReal
EXTRN	__imp__GetVersionExA@4:NEAR
; Function compile flags: /Odt /RTCsu
; File d:\program files (x86)\microsoft visual studio .net 2003\vc7\atlmfc\include\atlconv.h
;	COMDAT ?_AtlGetThreadACPThunk@ATL@@YGIXZ
_TEXT	SEGMENT
_pfnGetThreadACP$ = -164				; size = 4
_ver$ = -156						; size = 148
__$ArrayPad$ = -4					; size = 4
__$ReturnAddr$ = 4					; size = 4
?_AtlGetThreadACPThunk@ATL@@YGIXZ PROC NEAR		; ATL::_AtlGetThreadACPThunk, COMDAT

; 134  : {

  00000	55		 push	 ebp
  00001	8b ec		 mov	 ebp, esp
  00003	81 ec a4 00 00
	00		 sub	 esp, 164		; 000000a4H
  00009	56		 push	 esi
  0000a	57		 push	 edi
  0000b	8d bd 5c ff ff
	ff		 lea	 edi, DWORD PTR [ebp-164]
  00011	b9 29 00 00 00	 mov	 ecx, 41			; 00000029H
  00016	b8 cc cc cc cc	 mov	 eax, -858993460		; ccccccccH
  0001b	f3 ab		 rep stosd
  0001d	a1 00 00 00 00	 mov	 eax, DWORD PTR ___security_cookie
  00022	89 45 fc	 mov	 DWORD PTR __$ArrayPad$[ebp], eax

; 135  : 	OSVERSIONINFO ver;
; 136  : 	ATLGETTHREADACP pfnGetThreadACP;
; 137  : 
; 138  : 	ver.dwOSVersionInfoSize = sizeof( ver );

  00025	c7 85 64 ff ff
	ff 94 00 00 00	 mov	 DWORD PTR _ver$[ebp], 148 ; 00000094H

; 139  : 	::GetVersionEx( &ver );

  0002f	8b f4		 mov	 esi, esp
  00031	8d 85 64 ff ff
	ff		 lea	 eax, DWORD PTR _ver$[ebp]
  00037	50		 push	 eax
  00038	ff 15 00 00 00
	00		 call	 DWORD PTR __imp__GetVersionExA@4
  0003e	3b f4		 cmp	 esi, esp
  00040	e8 00 00 00 00	 call	 __RTC_CheckEsp

; 140  : 	if( (ver.dwPlatformId == VER_PLATFORM_WIN32_NT) && (ver.dwMajorVersion >= 5) )

  00045	83 bd 74 ff ff
	ff 02		 cmp	 DWORD PTR _ver$[ebp+16], 2
  0004c	75 15		 jne	 SHORT $L24163
  0004e	83 bd 68 ff ff
	ff 05		 cmp	 DWORD PTR _ver$[ebp+4], 5
  00055	72 0c		 jb	 SHORT $L24163

; 141  : 	{
; 142  : 		// On Win2K, CP_THREAD_ACP is supported
; 143  : 		pfnGetThreadACP = _AtlGetThreadACPReal;

  00057	c7 85 5c ff ff
	ff 00 00 00 00	 mov	 DWORD PTR _pfnGetThreadACP$[ebp], OFFSET FLAT:?_AtlGetThreadACPReal@ATL@@YGIXZ ; ATL::_AtlGetThreadACPReal

; 144  : 	}
; 145  : 	else

  00061	eb 0a		 jmp	 SHORT $L24164
$L24163:

; 146  : 	{
; 147  : 		pfnGetThreadACP = _AtlGetThreadACPFake;

  00063	c7 85 5c ff ff
	ff 00 00 00 00	 mov	 DWORD PTR _pfnGetThreadACP$[ebp], OFFSET FLAT:?_AtlGetThreadACPFake@ATL@@YGIXZ ; ATL::_AtlGetThreadACPFake
$L24164:

; 148  : 	}
; 149  : 	InterlockedExchangePointer( reinterpret_cast< void** >(&g_pfnGetThreadACP), pfnGetThreadACP );

  0006d	8b 8d 5c ff ff
	ff		 mov	 ecx, DWORD PTR _pfnGetThreadACP$[ebp]
  00073	51		 push	 ecx
  00074	68 00 00 00 00	 push	 OFFSET FLAT:?g_pfnGetThreadACP@ATL@@3P6GIXZA ; ATL::g_pfnGetThreadACP
  00079	e8 00 00 00 00	 call	 ?InterlockedExchangePointer@@YGPAXPAPAXPAX@Z ; InterlockedExchangePointer

; 150  : 
; 151  : 	return( g_pfnGetThreadACP() );

  0007e	8b f4		 mov	 esi, esp
  00080	ff 15 00 00 00
	00		 call	 DWORD PTR ?g_pfnGetThreadACP@ATL@@3P6GIXZA ; ATL::g_pfnGetThreadACP
  00086	3b f4		 cmp	 esi, esp
  00088	e8 00 00 00 00	 call	 __RTC_CheckEsp

; 152  : }

  0008d	52		 push	 edx
  0008e	8b cd		 mov	 ecx, ebp
  00090	50		 push	 eax
  00091	8d 15 00 00 00
	00		 lea	 edx, DWORD PTR $L188009
  00097	e8 00 00 00 00	 call	 @_RTC_CheckStackVars@8
  0009c	58		 pop	 eax
  0009d	5a		 pop	 edx
  0009e	8b 4d fc	 mov	 ecx, DWORD PTR __$ArrayPad$[ebp]
  000a1	e8 00 00 00 00	 call	 @__security_check_cookie@4
  000a6	5f		 pop	 edi
  000a7	5e		 pop	 esi
  000a8	81 c4 a4 00 00
	00		 add	 esp, 164		; 000000a4H
  000ae	3b ec		 cmp	 ebp, esp
  000b0	e8 00 00 00 00	 call	 __RTC_CheckEsp
  000b5	8b e5		 mov	 esp, ebp
  000b7	5d		 pop	 ebp
  000b8	c3		 ret	 0
$L188009:
  000b9	01 00 00 00	 DD	 1
  000bd	00 00 00 00	 DD	 $L188008
$L188008:
  000c1	64 ff ff ff	 DD	 -156			; ffffff64H
  000c5	94 00 00 00	 DD	 148			; 00000094H
  000c9	00 00 00 00	 DD	 $L188006
$L188006:
  000cd	76		 DB	 118			; 00000076H
  000ce	65		 DB	 101			; 00000065H
  000cf	72		 DB	 114			; 00000072H
  000d0	00		 DB	 0
?_AtlGetThreadACPThunk@ATL@@YGIXZ ENDP			; ATL::_AtlGetThreadACPThunk
_TEXT	ENDS
EXTRN	__imp__InterlockedExchange@8:NEAR
; Function compile flags: /Odt /RTCsu
;	COMDAT ?InterlockedExchangePointer@@YGPAXPAPAXPAX@Z
_TEXT	SEGMENT
_pp$ = 8						; size = 4
_pNew$ = 12						; size = 4
?InterlockedExchangePointer@@YGPAXPAPAXPAX@Z PROC NEAR	; InterlockedExchangePointer, COMDAT

; 91   : {

  00000	55		 push	 ebp
  00001	8b ec		 mov	 ebp, esp
  00003	56		 push	 esi

; 92   : 	return( reinterpret_cast<void*>(static_cast<LONG_PTR>(::InterlockedExchange(reinterpret_cast<LONG*>(pp), static_cast<LONG>(reinterpret_cast<LONG_PTR>(pNew))))) );

  00004	8b f4		 mov	 esi, esp
  00006	8b 45 0c	 mov	 eax, DWORD PTR _pNew$[ebp]
  00009	50		 push	 eax
  0000a	8b 4d 08	 mov	 ecx, DWORD PTR _pp$[ebp]
  0000d	51		 push	 ecx
  0000e	ff 15 00 00 00
	00		 call	 DWORD PTR __imp__InterlockedExchange@8
  00014	3b f4		 cmp	 esi, esp
  00016	e8 00 00 00 00	 call	 __RTC_CheckEsp

; 93   : }

  0001b	5e		 pop	 esi
  0001c	3b ec		 cmp	 ebp, esp
  0001e	e8 00 00 00 00	 call	 __RTC_CheckEsp
  00023	5d		 pop	 ebp
  00024	c2 08 00	 ret	 8
?InterlockedExchangePointer@@YGPAXPAPAXPAX@Z ENDP	; InterlockedExchangePointer
_TEXT	ENDS
EXTRN	__imp__GetACP@0:NEAR
EXTRN	__imp__GetLocaleInfoA@16:NEAR
EXTRN	__imp__GetThreadLocale@0:NEAR
; Function compile flags: /Odt /RTCsu
;	COMDAT ?_AtlGetThreadACPFake@ATL@@YGIXZ
_TEXT	SEGMENT
_pch$24151 = -32					; size = 4
_szACP$ = -24						; size = 7
_lcidThread$ = -12					; size = 4
_nACP$ = -8						; size = 4
__$ArrayPad$ = -4					; size = 4
__$ReturnAddr$ = 4					; size = 4
?_AtlGetThreadACPFake@ATL@@YGIXZ PROC NEAR		; ATL::_AtlGetThreadACPFake, COMDAT

; 101  : {

  00000	55		 push	 ebp
  00001	8b ec		 mov	 ebp, esp
  00003	83 ec 20	 sub	 esp, 32			; 00000020H
  00006	56		 push	 esi
  00007	b8 cc cc cc cc	 mov	 eax, -858993460		; ccccccccH
  0000c	89 45 e0	 mov	 DWORD PTR [ebp-32], eax
  0000f	89 45 e4	 mov	 DWORD PTR [ebp-28], eax
  00012	89 45 e8	 mov	 DWORD PTR [ebp-24], eax
  00015	89 45 ec	 mov	 DWORD PTR [ebp-20], eax
  00018	89 45 f0	 mov	 DWORD PTR [ebp-16], eax
  0001b	89 45 f4	 mov	 DWORD PTR [ebp-12], eax
  0001e	89 45 f8	 mov	 DWORD PTR [ebp-8], eax
  00021	89 45 fc	 mov	 DWORD PTR [ebp-4], eax
  00024	a1 00 00 00 00	 mov	 eax, DWORD PTR ___security_cookie
  00029	89 45 fc	 mov	 DWORD PTR __$ArrayPad$[ebp], eax

; 102  : 	UINT nACP = 0;

  0002c	c7 45 f8 00 00
	00 00		 mov	 DWORD PTR _nACP$[ebp], 0

; 103  : 
; 104  : 	LCID lcidThread = ::GetThreadLocale();

  00033	8b f4		 mov	 esi, esp
  00035	ff 15 00 00 00
	00		 call	 DWORD PTR __imp__GetThreadLocale@0
  0003b	3b f4		 cmp	 esi, esp
  0003d	e8 00 00 00 00	 call	 __RTC_CheckEsp
  00042	89 45 f4	 mov	 DWORD PTR _lcidThread$[ebp], eax

; 105  : 
; 106  : 	char szACP[7];
; 107  : 	// GetLocaleInfoA will fail for a Unicode-only LCID, but those are only supported on 
; 108  : 	// Windows 2000.  Since Windows 2000 supports CP_THREAD_ACP, this code path is never
; 109  : 	// executed on Windows 2000.
; 110  : 	if (::GetLocaleInfoA(lcidThread, LOCALE_IDEFAULTANSICODEPAGE, szACP, 7) != 0)

  00045	8b f4		 mov	 esi, esp
  00047	6a 07		 push	 7
  00049	8d 45 e8	 lea	 eax, DWORD PTR _szACP$[ebp]
  0004c	50		 push	 eax
  0004d	68 04 10 00 00	 push	 4100			; 00001004H
  00052	8b 4d f4	 mov	 ecx, DWORD PTR _lcidThread$[ebp]
  00055	51		 push	 ecx
  00056	ff 15 00 00 00
	00		 call	 DWORD PTR __imp__GetLocaleInfoA@16
  0005c	3b f4		 cmp	 esi, esp
  0005e	e8 00 00 00 00	 call	 __RTC_CheckEsp
  00063	85 c0		 test	 eax, eax
  00065	74 34		 je	 SHORT $L24150

; 111  : 	{
; 112  : 		char* pch = szACP;

  00067	8d 55 e8	 lea	 edx, DWORD PTR _szACP$[ebp]
  0006a	89 55 e0	 mov	 DWORD PTR _pch$24151[ebp], edx
$L24153:

; 113  : 		while (*pch != '\0')

  0006d	8b 45 e0	 mov	 eax, DWORD PTR _pch$24151[ebp]
  00070	0f be 08	 movsx	 ecx, BYTE PTR [eax]
  00073	85 c9		 test	 ecx, ecx
  00075	74 24		 je	 SHORT $L24150

; 114  : 		{
; 115  : 			nACP *= 10;

  00077	8b 55 f8	 mov	 edx, DWORD PTR _nACP$[ebp]
  0007a	6b d2 0a	 imul	 edx, 10			; 0000000aH
  0007d	89 55 f8	 mov	 DWORD PTR _nACP$[ebp], edx

; 116  : 			nACP += *pch++ - '0';

  00080	8b 45 e0	 mov	 eax, DWORD PTR _pch$24151[ebp]
  00083	0f be 08	 movsx	 ecx, BYTE PTR [eax]
  00086	8b 55 f8	 mov	 edx, DWORD PTR _nACP$[ebp]
  00089	8d 44 0a d0	 lea	 eax, DWORD PTR [edx+ecx-48]
  0008d	89 45 f8	 mov	 DWORD PTR _nACP$[ebp], eax
  00090	8b 4d e0	 mov	 ecx, DWORD PTR _pch$24151[ebp]
  00093	83 c1 01	 add	 ecx, 1
  00096	89 4d e0	 mov	 DWORD PTR _pch$24151[ebp], ecx

; 117  : 		}

  00099	eb d2		 jmp	 SHORT $L24153
$L24150:

; 118  : 	}
; 119  : 	// Use the Default ANSI Code Page if we were unable to get the thread ACP or if one does not exist.
; 120  : 	if (nACP == 0)

  0009b	83 7d f8 00	 cmp	 DWORD PTR _nACP$[ebp], 0
  0009f	75 12		 jne	 SHORT $L24155

; 121  : 		nACP = ::GetACP();

  000a1	8b f4		 mov	 esi, esp
  000a3	ff 15 00 00 00
	00		 call	 DWORD PTR __imp__GetACP@0
  000a9	3b f4		 cmp	 esi, esp
  000ab	e8 00 00 00 00	 call	 __RTC_CheckEsp
  000b0	89 45 f8	 mov	 DWORD PTR _nACP$[ebp], eax
$L24155:

; 122  : 
; 123  : 	return nACP;

  000b3	8b 45 f8	 mov	 eax, DWORD PTR _nACP$[ebp]

; 124  : }

  000b6	52		 push	 edx
  000b7	8b cd		 mov	 ecx, ebp
  000b9	50		 push	 eax
  000ba	8d 15 00 00 00
	00		 lea	 edx, DWORD PTR $L188016
  000c0	e8 00 00 00 00	 call	 @_RTC_CheckStackVars@8
  000c5	58		 pop	 eax
  000c6	5a		 pop	 edx
  000c7	8b 4d fc	 mov	 ecx, DWORD PTR __$ArrayPad$[ebp]
  000ca	e8 00 00 00 00	 call	 @__security_check_cookie@4
  000cf	5e		 pop	 esi
  000d0	83 c4 20	 add	 esp, 32			; 00000020H
  000d3	3b ec		 cmp	 ebp, esp
  000d5	e8 00 00 00 00	 call	 __RTC_CheckEsp
  000da	8b e5		 mov	 esp, ebp
  000dc	5d		 pop	 ebp
  000dd	c3		 ret	 0
$L188016:
  000de	01 00 00 00	 DD	 1
  000e2	00 00 00 00	 DD	 $L188015
$L188015:
  000e6	e8 ff ff ff	 DD	 -24			; ffffffe8H
  000ea	07 00 00 00	 DD	 7
  000ee	00 00 00 00	 DD	 $L188013
$L188013:
  000f2	73		 DB	 115			; 00000073H
  000f3	7a		 DB	 122			; 0000007aH
  000f4	41		 DB	 65			; 00000041H
  000f5	43		 DB	 67			; 00000043H
  000f6	50		 DB	 80			; 00000050H
  000f7	00		 DB	 0
?_AtlGetThreadACPFake@ATL@@YGIXZ ENDP			; ATL::_AtlGetThreadACPFake
; Function compile flags: /Odt /RTCsu
_TEXT	ENDS
;	COMDAT ?_AtlGetThreadACPReal@ATL@@YGIXZ
_TEXT	SEGMENT
?_AtlGetThreadACPReal@ATL@@YGIXZ PROC NEAR		; ATL::_AtlGetThreadACPReal, COMDAT

; 127  : {

  00000	55		 push	 ebp
  00001	8b ec		 mov	 ebp, esp

; 128  : 	return( CP_THREAD_ACP );

  00003	b8 03 00 00 00	 mov	 eax, 3

; 129  : }

  00008	5d		 pop	 ebp
  00009	c3		 ret	 0
?_AtlGetThreadACPReal@ATL@@YGIXZ ENDP			; ATL::_AtlGetThreadACPReal
_TEXT	ENDS
END
