; Listing generated by Microsoft (R) Optimizing Compiler Version 13.10.3077 

	TITLE	.\src\module\GamePanel\GameCtrlWnd.cpp
	.386P
include listing.inc
if @Version gt 510
.model FLAT
else
_TEXT	SEGMENT PARA USE32 PUBLIC 'CODE'
_TEXT	ENDS
_DATA	SEGMENT DWORD USE32 PUBLIC 'DATA'
_DATA	ENDS
CONST	SEGMENT DWORD USE32 PUBLIC 'CONST'
CONST	ENDS
_BSS	SEGMENT DWORD USE32 PUBLIC 'BSS'
_BSS	ENDS
$$SYMBOLS	SEGMENT BYTE USE32 'DEBSYM'
$$SYMBOLS	ENDS
_TLS	SEGMENT DWORD USE32 PUBLIC 'TLS'
_TLS	ENDS
;	COMDAT ??_C@_0P@MDHCGOCC@m_pMemMgr?5?$DN?$DN?50?$AA@
CONST	SEGMENT DWORD USE32 PUBLIC 'CONST'
CONST	ENDS
;	COMDAT ??_C@_0FF@PEBLHPJJ@D?3?2Program?5Files?5?$CIx86?$CJ?2Microsoft@
CONST	SEGMENT DWORD USE32 PUBLIC 'CONST'
CONST	ENDS
;	COMDAT ??_C@_0BK@KICONMKH@pData?9?$DOpStringMgr?5?$DN?$DN?5this?$AA@
CONST	SEGMENT DWORD USE32 PUBLIC 'CONST'
CONST	ENDS
;	COMDAT ??_C@_0CG@HPMMCKHL@?$CI?$CIWORD?$CJ?$CI?$CIDWORD_PTR?$CJ?$CIpsz?$CJ?5?$DO?$DO?516?$CJ?$CJ@
CONST	SEGMENT DWORD USE32 PUBLIC 'CONST'
CONST	ENDS
;	COMDAT ??_C@_0P@CLMBAKJD@JSCall?5Error?3?6?$AA@
CONST	SEGMENT DWORD USE32 PUBLIC 'CONST'
CONST	ENDS
;	COMDAT ??_C@_0EN@IBFBLEEG@D?3?2Program?5Files?5?$CIx86?$CJ?2Microsoft@
CONST	SEGMENT DWORD USE32 PUBLIC 'CONST'
CONST	ENDS
rdata$r	SEGMENT DWORD USE32 PUBLIC 'CONST'
rdata$r	ENDS
xdata$x	SEGMENT DWORD USE32 PUBLIC 'CONST'
xdata$x	ENDS
text$AFX_COL1	SEGMENT PARA USE32 PUBLIC ''
text$AFX_COL1	ENDS
text$yc	SEGMENT PARA USE32 PUBLIC 'CODE'
text$yc	ENDS
CRT$XCA	SEGMENT DWORD USE32 PUBLIC 'DATA'
CRT$XCA	ENDS
CRT$XCU	SEGMENT DWORD USE32 PUBLIC 'DATA'
CRT$XCU	ENDS
CRT$XCL	SEGMENT DWORD USE32 PUBLIC 'DATA'
CRT$XCL	ENDS
CRT$XCC	SEGMENT DWORD USE32 PUBLIC 'DATA'
CRT$XCC	ENDS
CRT$XCZ	SEGMENT DWORD USE32 PUBLIC 'DATA'
CRT$XCZ	ENDS
text$yd	SEGMENT PARA USE32 PUBLIC 'CODE'
text$yd	ENDS
ATL$__m	SEGMENT DWORD USE32 PUBLIC ''
ATL$__m	ENDS
ATL$__z	SEGMENT DWORD USE32 PUBLIC ''
ATL$__z	ENDS
ATL$__a	SEGMENT DWORD USE32 PUBLIC ''
ATL$__a	ENDS
;	COMDAT ??1HTTPObserver@@UAE@XZ
_TEXT	SEGMENT PARA USE32 PUBLIC 'CODE'
_TEXT	ENDS
;	COMDAT ?HTTPOb_DownStart@HTTPObserver@@UAEXPBD0I@Z
_TEXT	SEGMENT PARA USE32 PUBLIC 'CODE'
_TEXT	ENDS
;	COMDAT ?HTTPOb_DownFinish@HTTPObserver@@UAEXPBD@Z
_TEXT	SEGMENT PARA USE32 PUBLIC 'CODE'
_TEXT	ENDS
;	COMDAT ?HTTPOb_DownFailed@HTTPObserver@@UAEXPBDW4HTTP_DOWN_FAILED_REASON@@@Z
_TEXT	SEGMENT PARA USE32 PUBLIC 'CODE'
_TEXT	ENDS
;	COMDAT ?HTTPOb_DownProgress@HTTPObserver@@UAEXPBDII@Z
_TEXT	SEGMENT PARA USE32 PUBLIC 'CODE'
_TEXT	ENDS
;	COMDAT ?HTTPOb_DownloadPause@HTTPObserver@@UAEXPBD@Z
_TEXT	SEGMENT PARA USE32 PUBLIC 'CODE'
_TEXT	ENDS
;	COMDAT ??_GHTTPObserver@@UAEPAXI@Z
_TEXT	SEGMENT PARA USE32 PUBLIC 'CODE'
_TEXT	ENDS
;	COMDAT ?GetClsid@CShockwaveFlash@@QAEABU_GUID@@XZ
_TEXT	SEGMENT PARA USE32 PUBLIC 'CODE'
_TEXT	ENDS
;	COMDAT ??1IData@@MAE@XZ
_TEXT	SEGMENT PARA USE32 PUBLIC 'CODE'
_TEXT	ENDS
;	COMDAT ?DataAppStart@IData@@UAEXXZ
_TEXT	SEGMENT PARA USE32 PUBLIC 'CODE'
_TEXT	ENDS
;	COMDAT ?DataAppExit@IData@@UAEXXZ
_TEXT	SEGMENT PARA USE32 PUBLIC 'CODE'
_TEXT	ENDS
;	COMDAT ??_GIData@@MAEPAXI@Z
_TEXT	SEGMENT PARA USE32 PUBLIC 'CODE'
_TEXT	ENDS
;	COMDAT ??1IAdData@@MAE@XZ
_TEXT	SEGMENT PARA USE32 PUBLIC 'CODE'
_TEXT	ENDS
;	COMDAT ??_GIAdData@@MAEPAXI@Z
_TEXT	SEGMENT PARA USE32 PUBLIC 'CODE'
_TEXT	ENDS
;	COMDAT ??1CAtlStringMgr@ATL@@UAE@XZ
_TEXT	SEGMENT PARA USE32 PUBLIC 'CODE'
_TEXT	ENDS
;	COMDAT ?Allocate@CAtlStringMgr@ATL@@UAEPAUCStringData@2@HH@Z
_TEXT	SEGMENT PARA USE32 PUBLIC 'CODE'
_TEXT	ENDS
;	COMDAT ?Free@CAtlStringMgr@ATL@@UAEXPAUCStringData@2@@Z
_TEXT	SEGMENT PARA USE32 PUBLIC 'CODE'
_TEXT	ENDS
;	COMDAT ?Reallocate@CAtlStringMgr@ATL@@UAEPAUCStringData@2@PAU32@HH@Z
_TEXT	SEGMENT PARA USE32 PUBLIC 'CODE'
_TEXT	ENDS
;	COMDAT ?GetNilString@CAtlStringMgr@ATL@@UAEPAUCStringData@2@XZ
_TEXT	SEGMENT PARA USE32 PUBLIC 'CODE'
_TEXT	ENDS
;	COMDAT ?Clone@CAtlStringMgr@ATL@@UAEPAUIAtlStringMgr@2@XZ
_TEXT	SEGMENT PARA USE32 PUBLIC 'CODE'
_TEXT	ENDS
;	COMDAT ??_GCAtlStringMgr@ATL@@UAEPAXI@Z
_TEXT	SEGMENT PARA USE32 PUBLIC 'CODE'
_TEXT	ENDS
;	COMDAT ?CompareStringW@?$ChTraitsOS@_W@ATL@@KGHKKPB_WH0H@Z
_TEXT	SEGMENT PARA USE32 PUBLIC 'CODE'
_TEXT	ENDS
;	COMDAT ?GetStringTypeExW@?$ChTraitsOS@_W@ATL@@KGHKKPB_WHPAG@Z
_TEXT	SEGMENT PARA USE32 PUBLIC 'CODE'
_TEXT	ENDS
;	COMDAT ?lstrcmpiW@?$ChTraitsOS@_W@ATL@@KGHPB_W0@Z
_TEXT	SEGMENT PARA USE32 PUBLIC 'CODE'
_TEXT	ENDS
;	COMDAT ?CharLowerW@?$ChTraitsOS@_W@ATL@@KGPA_WPA_W@Z
_TEXT	SEGMENT PARA USE32 PUBLIC 'CODE'
_TEXT	ENDS
;	COMDAT ?CharUpperW@?$ChTraitsOS@_W@ATL@@KGPA_WPA_W@Z
_TEXT	SEGMENT PARA USE32 PUBLIC 'CODE'
_TEXT	ENDS
;	COMDAT ?strchr@?$ChTraitsOS@_W@ATL@@SAPB_WPB_W_W@Z
_TEXT	SEGMENT PARA USE32 PUBLIC 'CODE'
_TEXT	ENDS
;	COMDAT ?strrchr@?$ChTraitsOS@_W@ATL@@SAPB_WPB_W_W@Z
_TEXT	SEGMENT PARA USE32 PUBLIC 'CODE'
_TEXT	ENDS
;	COMDAT ?_strrev@?$ChTraitsOS@_W@ATL@@SAPA_WPA_W@Z
_TEXT	SEGMENT PARA USE32 PUBLIC 'CODE'
_TEXT	ENDS
;	COMDAT ?strstr@?$ChTraitsOS@_W@ATL@@SAPB_WPB_W0@Z
_TEXT	SEGMENT PARA USE32 PUBLIC 'CODE'
_TEXT	ENDS
;	COMDAT ?strspn@?$ChTraitsOS@_W@ATL@@SAHPB_W0@Z
_TEXT	SEGMENT PARA USE32 PUBLIC 'CODE'
_TEXT	ENDS
;	COMDAT ?strcspn@?$ChTraitsOS@_W@ATL@@SAHPB_W0@Z
_TEXT	SEGMENT PARA USE32 PUBLIC 'CODE'
_TEXT	ENDS
;	COMDAT ?strpbrk@?$ChTraitsOS@_W@ATL@@SAPB_WPB_W0@Z
_TEXT	SEGMENT PARA USE32 PUBLIC 'CODE'
_TEXT	ENDS
;	COMDAT ?StringFindString@?$ChTraitsOS@_W@ATL@@SAPB_WPB_W0@Z
_TEXT	SEGMENT PARA USE32 PUBLIC 'CODE'
_TEXT	ENDS
;	COMDAT ?clear@OneLocalGame@@QAEXXZ
_TEXT	SEGMENT PARA USE32 PUBLIC 'CODE'
_TEXT	ENDS
;	COMDAT ??0CCustomControlSite@@QAE@PAVCOleControlContainer@@@Z
_TEXT	SEGMENT PARA USE32 PUBLIC 'CODE'
_TEXT	ENDS
;	COMDAT ??_GCCustomControlSite@@UAEPAXI@Z
_TEXT	SEGMENT PARA USE32 PUBLIC 'CODE'
_TEXT	ENDS
;	COMDAT ??0XDocHostShowUI@CCustomControlSite@@QAE@XZ
_TEXT	SEGMENT PARA USE32 PUBLIC 'CODE'
_TEXT	ENDS
;	COMDAT ??0XDocHostUIHandler@CCustomControlSite@@QAE@XZ
_TEXT	SEGMENT PARA USE32 PUBLIC 'CODE'
_TEXT	ENDS
;	COMDAT ??1CCustomControlSite@@UAE@XZ
_TEXT	SEGMENT PARA USE32 PUBLIC 'CODE'
_TEXT	ENDS
;	COMDAT ??0IDocHostShowUI@@QAE@XZ
_TEXT	SEGMENT PARA USE32 PUBLIC 'CODE'
_TEXT	ENDS
;	COMDAT ??0IDocHostUIHandler@@QAE@XZ
_TEXT	SEGMENT PARA USE32 PUBLIC 'CODE'
_TEXT	ENDS
;	COMDAT ?CreateSite@CCustomOccManager@@UAEPAVCOleControlSite@@PAVCOleControlContainer@@@Z
_TEXT	SEGMENT PARA USE32 PUBLIC 'CODE'
_TEXT	ENDS
;	COMDAT ??_GCCustomOccManager@@UAEPAXI@Z
_TEXT	SEGMENT PARA USE32 PUBLIC 'CODE'
_TEXT	ENDS
;	COMDAT ??0COccManager@@QAE@XZ
_TEXT	SEGMENT PARA USE32 PUBLIC 'CODE'
_TEXT	ENDS
;	COMDAT ??1COccManager@@UAE@XZ
_TEXT	SEGMENT PARA USE32 PUBLIC 'CODE'
_TEXT	ENDS
;	COMDAT ??1CCustomOccManager@@UAE@XZ
_TEXT	SEGMENT PARA USE32 PUBLIC 'CODE'
_TEXT	ENDS
;	COMDAT ??_GCOccManager@@UAEPAXI@Z
_TEXT	SEGMENT PARA USE32 PUBLIC 'CODE'
_TEXT	ENDS
;	COMDAT ??0CNoTrackObject@@QAE@XZ
_TEXT	SEGMENT PARA USE32 PUBLIC 'CODE'
_TEXT	ENDS
;	COMDAT _$E5
text$yc	SEGMENT PARA USE32 PUBLIC 'CODE'
text$yc	ENDS
;	COMDAT ??_GCGameCtrlWnd@@UAEPAXI@Z
_TEXT	SEGMENT PARA USE32 PUBLIC 'CODE'
_TEXT	ENDS
;	COMDAT ??0SWF_GAME@@QAE@XZ
_TEXT	SEGMENT PARA USE32 PUBLIC 'CODE'
_TEXT	ENDS
;	COMDAT ??1SWF_GAME@@QAE@XZ
_TEXT	SEGMENT PARA USE32 PUBLIC 'CODE'
_TEXT	ENDS
;	COMDAT ??HATL@@YA?AV?$CStringT@DV?$StrTraitMFC_DLL@DV?$ChTraitsCRT@D@ATL@@@@@0@PBDABV10@@Z
_TEXT	SEGMENT PARA USE32 PUBLIC 'CODE'
_TEXT	ENDS
;	COMDAT ??B?$CComPtrBase@UITypeInfo2@@@ATL@@QBEPAUITypeInfo2@@XZ
_TEXT	SEGMENT PARA USE32 PUBLIC 'CODE'
_TEXT	ENDS
;	COMDAT ??B?$CComPtrBase@UIHTMLDocument2@@@ATL@@QBEPAUIHTMLDocument2@@XZ
_TEXT	SEGMENT PARA USE32 PUBLIC 'CODE'
_TEXT	ENDS
;	COMDAT ?equal@?$istreambuf_iterator@DU?$char_traits@D@std@@@std@@QBE_NABV12@@Z
_TEXT	SEGMENT PARA USE32 PUBLIC 'CODE'
_TEXT	ENDS
;	COMDAT ?equal@?$istreambuf_iterator@_WU?$char_traits@_W@std@@@std@@QBE_NABV12@@Z
_TEXT	SEGMENT PARA USE32 PUBLIC 'CODE'
_TEXT	ENDS
;	COMDAT ??0iterator@?$basic_string@DU?$char_traits@D@std@@V?$allocator@D@2@@std@@QAE@PAD@Z
_TEXT	SEGMENT PARA USE32 PUBLIC 'CODE'
_TEXT	ENDS
;	COMDAT ??0const_iterator@?$basic_string@DU?$char_traits@D@std@@V?$allocator@D@2@@std@@QAE@PBD@Z
_TEXT	SEGMENT PARA USE32 PUBLIC 'CODE'
_TEXT	ENDS
;	COMDAT ??Gconst_iterator@?$basic_string@DU?$char_traits@D@std@@V?$allocator@D@2@@std@@QBEHABV012@@Z
_TEXT	SEGMENT PARA USE32 PUBLIC 'CODE'
_TEXT	ENDS
;	COMDAT ?Unlock@?$CComCritSecLock@VCComCriticalSection@ATL@@@ATL@@QAEXXZ
_TEXT	SEGMENT PARA USE32 PUBLIC 'CODE'
_TEXT	ENDS
;	COMDAT ??$AtlAlignUp@H@ATL@@YGHHK@Z
_TEXT	SEGMENT PARA USE32 PUBLIC 'CODE'
_TEXT	ENDS
;	COMDAT ??$_Maklocstr@D@std@@YAPADPBDPADABU_Cvtvec@@@Z
_TEXT	SEGMENT PARA USE32 PUBLIC 'CODE'
_TEXT	ENDS
;	COMDAT ??_R3XDocHostUIHandler@CCustomControlSite@@8
rdata$r	SEGMENT DWORD USE32 PUBLIC 'CONST'
rdata$r	ENDS
;	COMDAT ??_R3IDocHostShowUI@@8
rdata$r	SEGMENT DWORD USE32 PUBLIC 'CONST'
rdata$r	ENDS
;	COMDAT ??_R3COccManager@@8
rdata$r	SEGMENT DWORD USE32 PUBLIC 'CONST'
rdata$r	ENDS
;	COMDAT ??_R3IDocHostUIHandler@@8
rdata$r	SEGMENT DWORD USE32 PUBLIC 'CONST'
rdata$r	ENDS
;	COMDAT ??_R3XDocHostShowUI@CCustomControlSite@@8
rdata$r	SEGMENT DWORD USE32 PUBLIC 'CONST'
rdata$r	ENDS
;	COMDAT ??_R3CCustomControlSite@@8
rdata$r	SEGMENT DWORD USE32 PUBLIC 'CONST'
rdata$r	ENDS
;	COMDAT ??_R3CCustomOccManager@@8
rdata$r	SEGMENT DWORD USE32 PUBLIC 'CONST'
rdata$r	ENDS
;	COMDAT ??_R3?$numpunct@_W@std@@8
rdata$r	SEGMENT DWORD USE32 PUBLIC 'CONST'
rdata$r	ENDS
;	COMDAT ??_R3?$numpunct@D@std@@8
rdata$r	SEGMENT DWORD USE32 PUBLIC 'CONST'
rdata$r	ENDS
;	COMDAT ??_R3IAdData@@8
rdata$r	SEGMENT DWORD USE32 PUBLIC 'CONST'
rdata$r	ENDS
;	COMDAT ??_R3IData@@8
rdata$r	SEGMENT DWORD USE32 PUBLIC 'CONST'
rdata$r	ENDS
;	COMDAT ??_R3CAtlStringMgr@ATL@@8
rdata$r	SEGMENT DWORD USE32 PUBLIC 'CONST'
rdata$r	ENDS
;	COMDAT ??_R3HTTPObserver@@8
rdata$r	SEGMENT DWORD USE32 PUBLIC 'CONST'
rdata$r	ENDS
;	COMDAT ??_R3CGameCtrlWnd@@8
rdata$r	SEGMENT DWORD USE32 PUBLIC 'CONST'
rdata$r	ENDS
;	COMDAT ??_R2XDocHostUIHandler@CCustomControlSite@@8
rdata$r	SEGMENT DWORD USE32 PUBLIC 'CONST'
rdata$r	ENDS
;	COMDAT ??_R2IDocHostShowUI@@8
rdata$r	SEGMENT DWORD USE32 PUBLIC 'CONST'
rdata$r	ENDS
;	COMDAT ??_R2COccManager@@8
rdata$r	SEGMENT DWORD USE32 PUBLIC 'CONST'
rdata$r	ENDS
;	COMDAT ??_R2IDocHostUIHandler@@8
rdata$r	SEGMENT DWORD USE32 PUBLIC 'CONST'
rdata$r	ENDS
;	COMDAT ??_R2XDocHostShowUI@CCustomControlSite@@8
rdata$r	SEGMENT DWORD USE32 PUBLIC 'CONST'
rdata$r	ENDS
;	COMDAT ??_R2CCustomControlSite@@8
rdata$r	SEGMENT DWORD USE32 PUBLIC 'CONST'
rdata$r	ENDS
;	COMDAT ??_R2CCustomOccManager@@8
rdata$r	SEGMENT DWORD USE32 PUBLIC 'CONST'
rdata$r	ENDS
;	COMDAT ??_R2?$numpunct@_W@std@@8
rdata$r	SEGMENT DWORD USE32 PUBLIC 'CONST'
rdata$r	ENDS
;	COMDAT ??_R2?$numpunct@D@std@@8
rdata$r	SEGMENT DWORD USE32 PUBLIC 'CONST'
rdata$r	ENDS
;	COMDAT ??_R2IAdData@@8
rdata$r	SEGMENT DWORD USE32 PUBLIC 'CONST'
rdata$r	ENDS
;	COMDAT ??_R2IData@@8
rdata$r	SEGMENT DWORD USE32 PUBLIC 'CONST'
rdata$r	ENDS
;	COMDAT ??_R2CAtlStringMgr@ATL@@8
rdata$r	SEGMENT DWORD USE32 PUBLIC 'CONST'
rdata$r	ENDS
;	COMDAT ??_R2HTTPObserver@@8
rdata$r	SEGMENT DWORD USE32 PUBLIC 'CONST'
rdata$r	ENDS
;	COMDAT ??_R2CGameCtrlWnd@@8
rdata$r	SEGMENT DWORD USE32 PUBLIC 'CONST'
rdata$r	ENDS
;	COMDAT ??_R1A@?0A@A@XDocHostUIHandler@CCustomControlSite@@8
rdata$r	SEGMENT DWORD USE32 PUBLIC 'CONST'
rdata$r	ENDS
;	COMDAT ??_R1A@?0A@A@IDocHostUIHandler@@8
rdata$r	SEGMENT DWORD USE32 PUBLIC 'CONST'
rdata$r	ENDS
;	COMDAT ??_R1A@?0A@A@IUnknown@@8
rdata$r	SEGMENT DWORD USE32 PUBLIC 'CONST'
rdata$r	ENDS
;	COMDAT ??_R0?AUIUnknown@@@8
_DATA	SEGMENT DWORD USE32 PUBLIC 'DATA'
_DATA	ENDS
;	COMDAT ??_R1A@?0A@A@IDocHostShowUI@@8
rdata$r	SEGMENT DWORD USE32 PUBLIC 'CONST'
rdata$r	ENDS
;	COMDAT ??_R1A@?0A@A@XDocHostShowUI@CCustomControlSite@@8
rdata$r	SEGMENT DWORD USE32 PUBLIC 'CONST'
rdata$r	ENDS
;	COMDAT ??_R1A@?0A@A@COleControlSite@@8
rdata$r	SEGMENT DWORD USE32 PUBLIC 'CONST'
rdata$r	ENDS
;	COMDAT ??_R1A@?0A@A@CCustomControlSite@@8
rdata$r	SEGMENT DWORD USE32 PUBLIC 'CONST'
rdata$r	ENDS
;	COMDAT ??_R1A@?0A@A@CNoTrackObject@@8
rdata$r	SEGMENT DWORD USE32 PUBLIC 'CONST'
rdata$r	ENDS
;	COMDAT ??_R0?AVCNoTrackObject@@@8
_DATA	SEGMENT DWORD USE32 PUBLIC 'DATA'
_DATA	ENDS
;	COMDAT ??_R1A@?0A@A@COccManager@@8
rdata$r	SEGMENT DWORD USE32 PUBLIC 'CONST'
rdata$r	ENDS
;	COMDAT ??_R1A@?0A@A@CCustomOccManager@@8
rdata$r	SEGMENT DWORD USE32 PUBLIC 'CONST'
rdata$r	ENDS
;	COMDAT ??_R1A@?0A@A@?$numpunct@_W@std@@8
rdata$r	SEGMENT DWORD USE32 PUBLIC 'CONST'
rdata$r	ENDS
;	COMDAT ??_R1A@?0A@A@facet@locale@std@@8
rdata$r	SEGMENT DWORD USE32 PUBLIC 'CONST'
rdata$r	ENDS
;	COMDAT ??_R0?AVfacet@locale@std@@@8
_DATA	SEGMENT DWORD USE32 PUBLIC 'DATA'
_DATA	ENDS
;	COMDAT ??_R1A@?0A@A@?$numpunct@D@std@@8
rdata$r	SEGMENT DWORD USE32 PUBLIC 'CONST'
rdata$r	ENDS
;	COMDAT ??_R1A@?0A@A@IAdData@@8
rdata$r	SEGMENT DWORD USE32 PUBLIC 'CONST'
rdata$r	ENDS
;	COMDAT ??_R1A@?0A@A@IData@@8
rdata$r	SEGMENT DWORD USE32 PUBLIC 'CONST'
rdata$r	ENDS
;	COMDAT ??_R1A@?0A@A@IAtlStringMgr@ATL@@8
rdata$r	SEGMENT DWORD USE32 PUBLIC 'CONST'
rdata$r	ENDS
;	COMDAT ??_R0?AUIAtlStringMgr@ATL@@@8
_DATA	SEGMENT DWORD USE32 PUBLIC 'DATA'
_DATA	ENDS
;	COMDAT ??_R1A@?0A@A@CAtlStringMgr@ATL@@8
rdata$r	SEGMENT DWORD USE32 PUBLIC 'CONST'
rdata$r	ENDS
;	COMDAT ??_R1A@?0A@A@HTTPObserver@@8
rdata$r	SEGMENT DWORD USE32 PUBLIC 'CONST'
rdata$r	ENDS
;	COMDAT ??_R1A@?0A@A@CObject@@8
rdata$r	SEGMENT DWORD USE32 PUBLIC 'CONST'
rdata$r	ENDS
;	COMDAT ??_R0?AVCObject@@@8
_DATA	SEGMENT DWORD USE32 PUBLIC 'DATA'
_DATA	ENDS
;	COMDAT ??_R1A@?0A@A@CCmdTarget@@8
rdata$r	SEGMENT DWORD USE32 PUBLIC 'CONST'
rdata$r	ENDS
;	COMDAT ??_R0?AVCCmdTarget@@@8
_DATA	SEGMENT DWORD USE32 PUBLIC 'DATA'
_DATA	ENDS
;	COMDAT ??_R1A@?0A@A@CWnd@@8
rdata$r	SEGMENT DWORD USE32 PUBLIC 'CONST'
rdata$r	ENDS
;	COMDAT ??_R0?AVCWnd@@@8
_DATA	SEGMENT DWORD USE32 PUBLIC 'DATA'
_DATA	ENDS
;	COMDAT ??_R1A@?0A@A@CBasicWnd@@8
rdata$r	SEGMENT DWORD USE32 PUBLIC 'CONST'
rdata$r	ENDS
;	COMDAT ??_R1A@?0A@A@CGameCtrlWnd@@8
rdata$r	SEGMENT DWORD USE32 PUBLIC 'CONST'
rdata$r	ENDS
;	COMDAT ??_R0?AVXDocHostUIHandler@CCustomControlSite@@@8
_DATA	SEGMENT DWORD USE32 PUBLIC 'DATA'
_DATA	ENDS
;	COMDAT ??_R0?AUIDocHostUIHandler@@@8
_DATA	SEGMENT DWORD USE32 PUBLIC 'DATA'
_DATA	ENDS
;	COMDAT ??_R0?AUIDocHostShowUI@@@8
_DATA	SEGMENT DWORD USE32 PUBLIC 'DATA'
_DATA	ENDS
;	COMDAT ??_R0?AVXDocHostShowUI@CCustomControlSite@@@8
_DATA	SEGMENT DWORD USE32 PUBLIC 'DATA'
_DATA	ENDS
;	COMDAT ??_R0?AVCOleControlSite@@@8
_DATA	SEGMENT DWORD USE32 PUBLIC 'DATA'
_DATA	ENDS
;	COMDAT ??_R0?AVCCustomControlSite@@@8
_DATA	SEGMENT DWORD USE32 PUBLIC 'DATA'
_DATA	ENDS
;	COMDAT ??_R0?AVCOccManager@@@8
_DATA	SEGMENT DWORD USE32 PUBLIC 'DATA'
_DATA	ENDS
;	COMDAT ??_R0?AVCCustomOccManager@@@8
_DATA	SEGMENT DWORD USE32 PUBLIC 'DATA'
_DATA	ENDS
;	COMDAT ??_R0?AV?$numpunct@_W@std@@@8
_DATA	SEGMENT DWORD USE32 PUBLIC 'DATA'
_DATA	ENDS
;	COMDAT ??_R0?AV?$numpunct@D@std@@@8
_DATA	SEGMENT DWORD USE32 PUBLIC 'DATA'
_DATA	ENDS
;	COMDAT ??_R0?AVIAdData@@@8
_DATA	SEGMENT DWORD USE32 PUBLIC 'DATA'
_DATA	ENDS
;	COMDAT ??_R0?AVIData@@@8
_DATA	SEGMENT DWORD USE32 PUBLIC 'DATA'
_DATA	ENDS
;	COMDAT ??_R0?AVCAtlStringMgr@ATL@@@8
_DATA	SEGMENT DWORD USE32 PUBLIC 'DATA'
_DATA	ENDS
;	COMDAT ??_R0?AVHTTPObserver@@@8
_DATA	SEGMENT DWORD USE32 PUBLIC 'DATA'
_DATA	ENDS
;	COMDAT ??_R0?AVCBasicWnd@@@8
_DATA	SEGMENT DWORD USE32 PUBLIC 'DATA'
_DATA	ENDS
;	COMDAT ??_R0?AVCGameCtrlWnd@@@8
_DATA	SEGMENT DWORD USE32 PUBLIC 'DATA'
_DATA	ENDS
;	COMDAT ??_R4XDocHostUIHandler@CCustomControlSite@@6B@
rdata$r	SEGMENT DWORD USE32 PUBLIC 'CONST'
rdata$r	ENDS
;	COMDAT ??_R4IDocHostShowUI@@6B@
rdata$r	SEGMENT DWORD USE32 PUBLIC 'CONST'
rdata$r	ENDS
;	COMDAT ??_R4COccManager@@6B@
rdata$r	SEGMENT DWORD USE32 PUBLIC 'CONST'
rdata$r	ENDS
;	COMDAT ??_R4IDocHostUIHandler@@6B@
rdata$r	SEGMENT DWORD USE32 PUBLIC 'CONST'
rdata$r	ENDS
;	COMDAT ??_R4XDocHostShowUI@CCustomControlSite@@6B@
rdata$r	SEGMENT DWORD USE32 PUBLIC 'CONST'
rdata$r	ENDS
;	COMDAT ??_R4CCustomControlSite@@6B@
rdata$r	SEGMENT DWORD USE32 PUBLIC 'CONST'
rdata$r	ENDS
;	COMDAT ??_R4CCustomOccManager@@6B@
rdata$r	SEGMENT DWORD USE32 PUBLIC 'CONST'
rdata$r	ENDS
;	COMDAT ??0?$allocator@_W@std@@QAE@XZ
_TEXT	SEGMENT PARA USE32 PUBLIC 'CODE'
_TEXT	ENDS
;	COMDAT ??_G?$numpunct@_W@std@@MAEPAXI@Z
_TEXT	SEGMENT PARA USE32 PUBLIC 'CODE'
_TEXT	ENDS
;	COMDAT ??_R4?$numpunct@_W@std@@6B@
rdata$r	SEGMENT DWORD USE32 PUBLIC 'CONST'
rdata$r	ENDS
;	COMDAT ??_G?$numpunct@D@std@@MAEPAXI@Z
_TEXT	SEGMENT PARA USE32 PUBLIC 'CODE'
_TEXT	ENDS
;	COMDAT ??_R4?$numpunct@D@std@@6B@
rdata$r	SEGMENT DWORD USE32 PUBLIC 'CONST'
rdata$r	ENDS
;	COMDAT ??_R4IAdData@@6B@
rdata$r	SEGMENT DWORD USE32 PUBLIC 'CONST'
rdata$r	ENDS
;	COMDAT ??_R4IData@@6B@
rdata$r	SEGMENT DWORD USE32 PUBLIC 'CONST'
rdata$r	ENDS
;	COMDAT ??_R4CAtlStringMgr@ATL@@6B@
rdata$r	SEGMENT DWORD USE32 PUBLIC 'CONST'
rdata$r	ENDS
;	COMDAT ??_R4HTTPObserver@@6B@
rdata$r	SEGMENT DWORD USE32 PUBLIC 'CONST'
rdata$r	ENDS
;	COMDAT ??_R4CGameCtrlWnd@@6B@
rdata$r	SEGMENT DWORD USE32 PUBLIC 'CONST'
rdata$r	ENDS
;	COMDAT ??_C@_0EN@CBMLGOH@D?3?2Program?5Files?5?$CIx86?$CJ?2Microsoft@
CONST	SEGMENT DWORD USE32 PUBLIC 'CONST'
CONST	ENDS
;	COMDAT ?_Psave@?$_Facetptr@V?$numpunct@_W@std@@@std@@2PBVfacet@locale@2@B
_DATA	SEGMENT DWORD USE32 PUBLIC 'DATA'
_DATA	ENDS
;	COMDAT ?_Psave@?$_Facetptr@V?$numpunct@D@std@@@std@@2PBVfacet@locale@2@B
_DATA	SEGMENT DWORD USE32 PUBLIC 'DATA'
_DATA	ENDS
;	COMDAT ?Unlock@CComCriticalSection@ATL@@QAEJXZ
_TEXT	SEGMENT PARA USE32 PUBLIC 'CODE'
_TEXT	ENDS
;	COMDAT ??_C@_0FG@LDNDNCJM@D?3?2Program?5Files?5?$CIx86?$CJ?2Microsoft@
CONST	SEGMENT DWORD USE32 PUBLIC 'CONST'
CONST	ENDS
;	COMDAT ??_C@_09HIEJFN@m_bLocked?$AA@
CONST	SEGMENT DWORD USE32 PUBLIC 'CONST'
CONST	ENDS
;	COMDAT ?_Psave@?$_Facetptr@V?$ctype@_W@std@@@std@@2PBVfacet@locale@2@B
_DATA	SEGMENT DWORD USE32 PUBLIC 'DATA'
_DATA	ENDS
;	COMDAT ?_Psave@?$_Facetptr@V?$ctype@D@std@@@std@@2PBVfacet@locale@2@B
_DATA	SEGMENT DWORD USE32 PUBLIC 'DATA'
_DATA	ENDS
;	COMDAT ??$_Maklocchr@_W@std@@YA_WDPA_WABU_Cvtvec@@@Z
_TEXT	SEGMENT PARA USE32 PUBLIC 'CODE'
_TEXT	ENDS
;	COMDAT ??$_DebugHeapDelete@X@std@@YAXPAX@Z
_TEXT	SEGMENT PARA USE32 PUBLIC 'CODE'
_TEXT	ENDS
;	COMDAT ??$_Maklocstr@_W@std@@YAPA_WPBDPA_WABU_Cvtvec@@@Z
_TEXT	SEGMENT PARA USE32 PUBLIC 'CODE'
_TEXT	ENDS
;	COMDAT ??$_Maklocchr@D@std@@YADDPADABU_Cvtvec@@@Z
_TEXT	SEGMENT PARA USE32 PUBLIC 'CODE'
_TEXT	ENDS
;	COMDAT ??_C@_04LOAJBDKD@true?$AA@
CONST	SEGMENT DWORD USE32 PUBLIC 'CONST'
CONST	ENDS
;	COMDAT ??_C@_05LAPONLG@false?$AA@
CONST	SEGMENT DWORD USE32 PUBLIC 'CONST'
CONST	ENDS
;	COMDAT _wmemcpy
_TEXT	SEGMENT PARA USE32 PUBLIC 'CODE'
_TEXT	ENDS
;	COMDAT ?max_size@?$allocator@_W@std@@QBEIXZ
_TEXT	SEGMENT PARA USE32 PUBLIC 'CODE'
_TEXT	ENDS
;	COMDAT ?allocate@?$allocator@_W@std@@QAEPA_WI@Z
_TEXT	SEGMENT PARA USE32 PUBLIC 'CODE'
_TEXT	ENDS
;	COMDAT ??$_Allocate@_W@std@@YAPA_WIPA_W@Z
_TEXT	SEGMENT PARA USE32 PUBLIC 'CODE'
_TEXT	ENDS
;	COMDAT ??_C@_01GFHCPBMG@C?$AA@
CONST	SEGMENT DWORD USE32 PUBLIC 'CONST'
CONST	ENDS
;	COMDAT ?max_size@?$allocator@D@std@@QBEIXZ
_TEXT	SEGMENT PARA USE32 PUBLIC 'CODE'
_TEXT	ENDS
;	COMDAT ?allocate@?$allocator@D@std@@QAEPADI@Z
_TEXT	SEGMENT PARA USE32 PUBLIC 'CODE'
_TEXT	ENDS
;	COMDAT ??$_Allocate@D@std@@YAPADIPAD@Z
_TEXT	SEGMENT PARA USE32 PUBLIC 'CODE'
_TEXT	ENDS
;	COMDAT ?deallocate@?$allocator@D@std@@QAEXPADI@Z
_TEXT	SEGMENT PARA USE32 PUBLIC 'CODE'
_TEXT	ENDS
;	COMDAT ?Release@CStringData@ATL@@QAEXXZ
_TEXT	SEGMENT PARA USE32 PUBLIC 'CODE'
_TEXT	ENDS
;	COMDAT ??_C@_0L@OIIMFBNE@nRefs?5?$CB?$DN?50?$AA@
CONST	SEGMENT DWORD USE32 PUBLIC 'CONST'
CONST	ENDS
;	COMDAT ??_C@_0FJ@DMHPDOJC@D?3?2Program?5Files?5?$CIx86?$CJ?2Microsoft@
CONST	SEGMENT DWORD USE32 PUBLIC 'CONST'
CONST	ENDS
;	COMDAT ??_C@_0BA@GOIMFHNK@pStringMgr?5?$CB?$DN?50?$AA@
CONST	SEGMENT DWORD USE32 PUBLIC 'CONST'
CONST	ENDS
;	COMDAT ?data@CStringData@ATL@@QAEPAXXZ
_TEXT	SEGMENT PARA USE32 PUBLIC 'CODE'
_TEXT	ENDS
;	COMDAT ??_C@_0BA@GNIEOBOF@nNewLength?5?$DO?$DN?50?$AA@
CONST	SEGMENT DWORD USE32 PUBLIC 'CONST'
CONST	ENDS
;	COMDAT ??_C@_0N@ILOMLJGA@nLength?5?$DO?$DN?50?$AA@
CONST	SEGMENT DWORD USE32 PUBLIC 'CONST'
CONST	ENDS
;	COMDAT ??_C@_0CD@EEFFJEGJ@nLength?5?$DM?$DN?5GetData?$CI?$CJ?9?$DOnAllocLeng@
CONST	SEGMENT DWORD USE32 PUBLIC 'CONST'
CONST	ENDS
;	COMDAT ?AtlThrow@ATL@@YGXJ@Z
_TEXT	SEGMENT PARA USE32 PUBLIC 'CODE'
_TEXT	ENDS
;	COMDAT ??RCTraceFileAndLineInfo@ATL@@QBAXKIPBDZZ
_TEXT	SEGMENT PARA USE32 PUBLIC 'CODE'
_TEXT	ENDS
;	COMDAT ?TraceV@CTrace@ATL@@QBAXPBDHKI0PAD@Z
_TEXT	SEGMENT PARA USE32 PUBLIC 'CODE'
_TEXT	ENDS
;	COMDAT ??0CTraceFileAndLineInfo@ATL@@QAE@PBDH@Z
_TEXT	SEGMENT PARA USE32 PUBLIC 'CODE'
_TEXT	ENDS
;	COMDAT ??_C@_0FI@NHHJANPC@D?3?2Program?5Files?5?$CIx86?$CJ?2Microsoft@
CONST	SEGMENT DWORD USE32 PUBLIC 'CONST'
CONST	ENDS
;	COMDAT ??_C@_0BF@IAAKIJDJ@AtlThrow?3?5hr?5?$DN?50x?$CFx?6?$AA@
CONST	SEGMENT DWORD USE32 PUBLIC 'CONST'
CONST	ENDS
;	COMDAT ??BCTraceCategory@ATL@@QBEKXZ
_TEXT	SEGMENT PARA USE32 PUBLIC 'CODE'
_TEXT	ENDS
;	COMDAT ?IsShared@CStringData@ATL@@QBE_NXZ
_TEXT	SEGMENT PARA USE32 PUBLIC 'CODE'
_TEXT	ENDS
;	COMDAT ??_C@_0CB@GFHAPKDK@pOldData?9?$DOnAllocLength?5?$DM?5nLength@
CONST	SEGMENT DWORD USE32 PUBLIC 'CONST'
CONST	ENDS
;	COMDAT ?_Peek@?$istreambuf_iterator@_WU?$char_traits@_W@std@@@std@@AAE_WXZ
_TEXT	SEGMENT PARA USE32 PUBLIC 'CODE'
_TEXT	ENDS
;	COMDAT ?_Peek@?$istreambuf_iterator@DU?$char_traits@D@std@@@std@@AAEDXZ
_TEXT	SEGMENT PARA USE32 PUBLIC 'CODE'
_TEXT	ENDS
;	COMDAT ??$use_facet@V?$ctype@_W@std@@@std@@YAABV?$ctype@_W@0@ABVlocale@0@@Z
_TEXT	SEGMENT PARA USE32 PUBLIC 'CODE'
_TEXT	ENDS
;	COMDAT ??_S?$ctype@_W@std@@6B@
CONST	SEGMENT DWORD USE32 PUBLIC 'CONST'
CONST	ENDS
;	COMDAT ??_R4?$ctype@_W@std@@6B@
rdata$r	SEGMENT DWORD USE32 PUBLIC 'CONST'
rdata$r	ENDS
;	COMDAT ??_R0?AV?$ctype@_W@std@@@8
_DATA	SEGMENT DWORD USE32 PUBLIC 'DATA'
_DATA	ENDS
;	COMDAT ??_R3?$ctype@_W@std@@8
rdata$r	SEGMENT DWORD USE32 PUBLIC 'CONST'
rdata$r	ENDS
;	COMDAT ??_R2?$ctype@_W@std@@8
rdata$r	SEGMENT DWORD USE32 PUBLIC 'CONST'
rdata$r	ENDS
;	COMDAT ??_R1A@?0A@A@?$ctype@_W@std@@8
rdata$r	SEGMENT DWORD USE32 PUBLIC 'CONST'
rdata$r	ENDS
;	COMDAT ??_R1A@?0A@A@ctype_base@std@@8
rdata$r	SEGMENT DWORD USE32 PUBLIC 'CONST'
rdata$r	ENDS
;	COMDAT ??_R0?AUctype_base@std@@@8
_DATA	SEGMENT DWORD USE32 PUBLIC 'DATA'
_DATA	ENDS
;	COMDAT ??_G?$ctype@_W@std@@MAEPAXI@Z
_TEXT	SEGMENT PARA USE32 PUBLIC 'CODE'
_TEXT	ENDS
;	COMDAT ??_C@_08EPJLHIJG@bad?5cast?$AA@
CONST	SEGMENT DWORD USE32 PUBLIC 'CONST'
CONST	ENDS
;	COMDAT __TI2?AVbad_cast@@
xdata$x	SEGMENT DWORD USE32 PUBLIC 'CONST'
xdata$x	ENDS
;	COMDAT __CTA2?AVbad_cast@@
xdata$x	SEGMENT DWORD USE32 PUBLIC 'CONST'
xdata$x	ENDS
;	COMDAT __CT??_R0?AVbad_cast@@@8??0bad_cast@@QAE@ABV0@@Z12
xdata$x	SEGMENT DWORD USE32 PUBLIC 'CONST'
xdata$x	ENDS
;	COMDAT ??_R0?AVbad_cast@@@8
_DATA	SEGMENT DWORD USE32 PUBLIC 'DATA'
_DATA	ENDS
;	COMDAT __CT??_R0?AVexception@@@8??0exception@@QAE@ABV0@@Z12
xdata$x	SEGMENT DWORD USE32 PUBLIC 'CONST'
xdata$x	ENDS
;	COMDAT ??_R0?AVexception@@@8
_DATA	SEGMENT DWORD USE32 PUBLIC 'DATA'
_DATA	ENDS
;	COMDAT ??$_DebugHeapDelete@Vfacet@locale@std@@@std@@YAXPAVfacet@locale@0@@Z
_TEXT	SEGMENT PARA USE32 PUBLIC 'CODE'
_TEXT	ENDS
;	COMDAT ??$use_facet@V?$ctype@D@std@@@std@@YAABV?$ctype@D@0@ABVlocale@0@@Z
_TEXT	SEGMENT PARA USE32 PUBLIC 'CODE'
_TEXT	ENDS
;	COMDAT ??_S?$ctype@D@std@@6B@
CONST	SEGMENT DWORD USE32 PUBLIC 'CONST'
CONST	ENDS
;	COMDAT ??_R4?$ctype@D@std@@6B@
rdata$r	SEGMENT DWORD USE32 PUBLIC 'CONST'
rdata$r	ENDS
;	COMDAT ??_R0?AV?$ctype@D@std@@@8
_DATA	SEGMENT DWORD USE32 PUBLIC 'DATA'
_DATA	ENDS
;	COMDAT ??_R3?$ctype@D@std@@8
rdata$r	SEGMENT DWORD USE32 PUBLIC 'CONST'
rdata$r	ENDS
;	COMDAT ??_R2?$ctype@D@std@@8
rdata$r	SEGMENT DWORD USE32 PUBLIC 'CONST'
rdata$r	ENDS
;	COMDAT ??_R1A@?0A@A@?$ctype@D@std@@8
rdata$r	SEGMENT DWORD USE32 PUBLIC 'CONST'
rdata$r	ENDS
;	COMDAT ??_G?$ctype@D@std@@MAEPAXI@Z
_TEXT	SEGMENT PARA USE32 PUBLIC 'CODE'
_TEXT	ENDS
;	COMDAT ??_S?$numpunct@_W@std@@6B@
CONST	SEGMENT DWORD USE32 PUBLIC 'CONST'
CONST	ENDS
;	COMDAT ??_S?$numpunct@D@std@@6B@
CONST	SEGMENT DWORD USE32 PUBLIC 'CONST'
CONST	ENDS
;	COMDAT _wmemmove
_TEXT	SEGMENT PARA USE32 PUBLIC 'CODE'
_TEXT	ENDS
;	COMDAT ?deallocate@?$allocator@_W@std@@QAEXPA_WI@Z
_TEXT	SEGMENT PARA USE32 PUBLIC 'CODE'
_TEXT	ENDS
;	COMDAT ??0?$allocator@_W@std@@QAE@ABV01@@Z
_TEXT	SEGMENT PARA USE32 PUBLIC 'CODE'
_TEXT	ENDS
;	COMDAT ??0?$allocator@D@std@@QAE@ABV01@@Z
_TEXT	SEGMENT PARA USE32 PUBLIC 'CODE'
_TEXT	ENDS
;	COMDAT ??0?$allocator@D@std@@QAE@XZ
_TEXT	SEGMENT PARA USE32 PUBLIC 'CODE'
_TEXT	ENDS
;	COMDAT ?_messageEntries@CGameCtrlWnd@@0QBUAFX_MSGMAP_ENTRY@@B
CONST	SEGMENT DWORD USE32 PUBLIC 'CONST'
CONST	ENDS
;	COMDAT ?messageMap@CGameCtrlWnd@@1UAFX_MSGMAP@@B
CONST	SEGMENT DWORD USE32 PUBLIC 'CONST'
CONST	ENDS
;	COMDAT ??_7CGameCtrlWnd@@6B@
CONST	SEGMENT DWORD USE32 PUBLIC 'CONST'
CONST	ENDS
;	COMDAT ?classCGameCtrlWnd@CGameCtrlWnd@@2UCRuntimeClass@@B
CONST	SEGMENT DWORD USE32 PUBLIC 'CONST'
CONST	ENDS
;	COMDAT ?IsLocked@CStringData@ATL@@QBE_NXZ
_TEXT	SEGMENT PARA USE32 PUBLIC 'CODE'
_TEXT	ENDS
;	COMDAT ?GetDefaultManager@?$StrTraitMFC_DLL@DV?$ChTraitsCRT@D@ATL@@@@SAPAUIAtlStringMgr@ATL@@XZ
_TEXT	SEGMENT PARA USE32 PUBLIC 'CODE'
_TEXT	ENDS
;	COMDAT ?FindStringResourceInstance@?$StrTraitMFC_DLL@DV?$ChTraitsCRT@D@ATL@@@@SAPAUHINSTANCE__@@I@Z
_TEXT	SEGMENT PARA USE32 PUBLIC 'CODE'
_TEXT	ENDS
;	COMDAT ?AtlGetStringResourceImage@ATL@@YAPBUATLSTRINGRESOURCEIMAGE@1@PAUHINSTANCE__@@I@Z
_TEXT	SEGMENT PARA USE32 PUBLIC 'CODE'
_TEXT	ENDS
;	COMDAT ?_AtlGetStringResourceImage@ATL@@YAPBUATLSTRINGRESOURCEIMAGE@1@PAUHINSTANCE__@@PAUHRSRC__@@I@Z
_TEXT	SEGMENT PARA USE32 PUBLIC 'CODE'
_TEXT	ENDS
;	COMDAT ?GetBaseTypeLength@?$ChTraitsCRT@D@ATL@@SAHPB_WH@Z
_TEXT	SEGMENT PARA USE32 PUBLIC 'CODE'
_TEXT	ENDS
;	COMDAT ?ConvertToBaseType@?$ChTraitsCRT@D@ATL@@SAXPADHPB_WH@Z
_TEXT	SEGMENT PARA USE32 PUBLIC 'CODE'
_TEXT	ENDS
;	COMDAT ??_C@_0FH@KDPNIMBO@D?3?2Program?5Files?5?$CIx86?$CJ?2Microsoft@
CONST	SEGMENT DWORD USE32 PUBLIC 'CONST'
CONST	ENDS
;	COMDAT ??_C@_0CJ@FJEKGMMD@Warning?3?5implicit?5LoadString?$CI?$CFu?$CJ@
CONST	SEGMENT DWORD USE32 PUBLIC 'CONST'
CONST	ENDS
;	COMDAT ??_7CNoTrackObject@@6B@
CONST	SEGMENT DWORD USE32 PUBLIC 'CONST'
CONST	ENDS
;	COMDAT ??_R4CNoTrackObject@@6B@
rdata$r	SEGMENT DWORD USE32 PUBLIC 'CONST'
rdata$r	ENDS
;	COMDAT ??_R3CNoTrackObject@@8
rdata$r	SEGMENT DWORD USE32 PUBLIC 'CONST'
rdata$r	ENDS
;	COMDAT ??_R2CNoTrackObject@@8
rdata$r	SEGMENT DWORD USE32 PUBLIC 'CONST'
rdata$r	ENDS
;	COMDAT ??_7COccManager@@6B@
CONST	SEGMENT DWORD USE32 PUBLIC 'CONST'
CONST	ENDS
;	COMDAT ??1CNoTrackObject@@UAE@XZ
_TEXT	SEGMENT PARA USE32 PUBLIC 'CODE'
_TEXT	ENDS
;	COMDAT ??_7CCustomOccManager@@6B@
CONST	SEGMENT DWORD USE32 PUBLIC 'CONST'
CONST	ENDS
;	COMDAT ??0IUnknown@@QAE@XZ
_TEXT	SEGMENT PARA USE32 PUBLIC 'CODE'
_TEXT	ENDS
;	COMDAT ??_7XDocHostUIHandler@CCustomControlSite@@6B@
CONST	SEGMENT DWORD USE32 PUBLIC 'CONST'
CONST	ENDS
;	COMDAT ??_7XDocHostShowUI@CCustomControlSite@@6B@
CONST	SEGMENT DWORD USE32 PUBLIC 'CONST'
CONST	ENDS
;	COMDAT ??_7CCustomControlSite@@6B@
CONST	SEGMENT DWORD USE32 PUBLIC 'CONST'
CONST	ENDS
;	COMDAT ?c_bIsMFCDLLTraits@?$_MFCDLLTraitsCheck@_WV?$StrTraitATL@_WV?$ChTraitsCRT@_W@ATL@@@ATL@@@_CSTRING_IMPL_@ATL@@2_NB
CONST	SEGMENT DWORD USE32 PUBLIC 'CONST'
CONST	ENDS
;	COMDAT ?c_bIsMFCDLLTraits@?$_MFCDLLTraitsCheck@DV?$StrTraitATL@DV?$ChTraitsCRT@D@ATL@@@ATL@@@_CSTRING_IMPL_@ATL@@2_NB
CONST	SEGMENT DWORD USE32 PUBLIC 'CONST'
CONST	ENDS
;	COMDAT ?_AtlGetConversionACP@ATL@@YGIXZ
_TEXT	SEGMENT PARA USE32 PUBLIC 'CODE'
_TEXT	ENDS
;	COMDAT ?g_pfnGetThreadACP@ATL@@3P6GIXZA
_DATA	SEGMENT DWORD USE32 PUBLIC 'DATA'
_DATA	ENDS
;	COMDAT ?_AtlGetThreadACPThunk@ATL@@YGIXZ
_TEXT	SEGMENT PARA USE32 PUBLIC 'CODE'
_TEXT	ENDS
;	COMDAT ?_AtlGetThreadACPReal@ATL@@YGIXZ
_TEXT	SEGMENT PARA USE32 PUBLIC 'CODE'
_TEXT	ENDS
;	COMDAT ?_AtlGetThreadACPFake@ATL@@YGIXZ
_TEXT	SEGMENT PARA USE32 PUBLIC 'CODE'
_TEXT	ENDS
;	COMDAT ?InterlockedExchangePointer@@YGPAXPAPAXPAX@Z
_TEXT	SEGMENT PARA USE32 PUBLIC 'CODE'
_TEXT	ENDS
;	COMDAT ??_C@_09BBJEMDLA@nRet?5?$CB?$DN?50?$AA@
CONST	SEGMENT DWORD USE32 PUBLIC 'CONST'
CONST	ENDS
;	COMDAT ?_strthunks@ATL@@3U_AtlStringThunks@1@A
_DATA	SEGMENT DWORD USE32 PUBLIC 'DATA'
_DATA	ENDS
;	COMDAT ?CompareStringWThunk@ATL@@YGHKKPB_WH0H@Z
_TEXT	SEGMENT PARA USE32 PUBLIC 'CODE'
_TEXT	ENDS
;	COMDAT ?_AtlInstallStringThunk@ATL@@YAXPAPAXPAX1@Z
_TEXT	SEGMENT PARA USE32 PUBLIC 'CODE'
_TEXT	ENDS
;	COMDAT ??_B?1??_AtlInstallStringThunk@ATL@@YAXPAPAXPAX1@Z@51
_BSS	SEGMENT DWORD USE32 PUBLIC 'BSS'
_BSS	ENDS
;	COMDAT ?s_bWin9x@?1??_AtlInstallStringThunk@ATL@@YAXPAPAXPAX1@Z@4_NA
_BSS	SEGMENT DWORD USE32 PUBLIC 'BSS'
_BSS	ENDS
;	COMDAT ?CompareStringWFake@ATL@@YGHKKPB_WH0H@Z
_TEXT	SEGMENT PARA USE32 PUBLIC 'CODE'
_TEXT	ENDS
;	COMDAT ??0?$CAtlSafeAllocBufferManager@VCCRTAllocator@ATL@@@_ATL_SAFE_ALLOCA_IMPL@ATL@@QAE@XZ
_TEXT	SEGMENT PARA USE32 PUBLIC 'CODE'
_TEXT	ENDS
;	COMDAT ??1?$CAtlSafeAllocBufferManager@VCCRTAllocator@ATL@@@_ATL_SAFE_ALLOCA_IMPL@ATL@@QAE@XZ
_TEXT	SEGMENT PARA USE32 PUBLIC 'CODE'
_TEXT	ENDS
;	COMDAT ?Free@CCRTAllocator@ATL@@SAXPAX@Z
_TEXT	SEGMENT PARA USE32 PUBLIC 'CODE'
_TEXT	ENDS
;	COMDAT ?AtlW2AHelper@@YGPADPADPB_WHI@Z
_TEXT	SEGMENT PARA USE32 PUBLIC 'CODE'
_TEXT	ENDS
;	COMDAT ??_C@_08DIHJLFDJ@lpw?5?$CB?$DN?50?$AA@
CONST	SEGMENT DWORD USE32 PUBLIC 'CONST'
CONST	ENDS
;	COMDAT ??_C@_08DMHHBMMN@lpa?5?$CB?$DN?50?$AA@
CONST	SEGMENT DWORD USE32 PUBLIC 'CONST'
CONST	ENDS
;	COMDAT ??_C@_01GBGANLPD@0?$AA@
CONST	SEGMENT DWORD USE32 PUBLIC 'CONST'
CONST	ENDS
;	COMDAT ??_C@_0FG@PFHCBDBK@D?3?2Program?5Files?5?$CIx86?$CJ?2Microsoft@
CONST	SEGMENT DWORD USE32 PUBLIC 'CONST'
CONST	ENDS
;	COMDAT ?_AtlVerifyStackAvailable@_ATL_SAFE_ALLOCA_IMPL@ATL@@YA_NK@Z
_TEXT	SEGMENT PARA USE32 PUBLIC 'CODE'
_TEXT	ENDS
;	COMDAT ?Allocate@?$CAtlSafeAllocBufferManager@VCCRTAllocator@ATL@@@_ATL_SAFE_ALLOCA_IMPL@ATL@@QAEPAXK@Z
_TEXT	SEGMENT PARA USE32 PUBLIC 'CODE'
_TEXT	ENDS
;	COMDAT ?Allocate@CCRTAllocator@ATL@@SAPAXI@Z
_TEXT	SEGMENT PARA USE32 PUBLIC 'CODE'
_TEXT	ENDS
;	COMDAT ?GetData@CAtlSafeAllocBufferNode@?$CAtlSafeAllocBufferManager@VCCRTAllocator@ATL@@@_ATL_SAFE_ALLOCA_IMPL@ATL@@QAEPAXXZ
_TEXT	SEGMENT PARA USE32 PUBLIC 'CODE'
_TEXT	ENDS
;	COMDAT ?GetStringTypeExWThunk@ATL@@YGHKKPB_WHPAG@Z
_TEXT	SEGMENT PARA USE32 PUBLIC 'CODE'
_TEXT	ENDS
;	COMDAT ?GetStringTypeExWFake@ATL@@YGHKKPB_WHPAG@Z
_TEXT	SEGMENT PARA USE32 PUBLIC 'CODE'
_TEXT	ENDS
;	COMDAT ??0?$CTempBuffer@D$0IA@VCCRTAllocator@ATL@@@ATL@@QAE@XZ
_TEXT	SEGMENT PARA USE32 PUBLIC 'CODE'
_TEXT	ENDS
;	COMDAT ??1?$CTempBuffer@D$0IA@VCCRTAllocator@ATL@@@ATL@@QAE@XZ
_TEXT	SEGMENT PARA USE32 PUBLIC 'CODE'
_TEXT	ENDS
;	COMDAT ?FreeHeap@?$CTempBuffer@D$0IA@VCCRTAllocator@ATL@@@ATL@@AAEXXZ
_TEXT	SEGMENT PARA USE32 PUBLIC 'CODE'
_TEXT	ENDS
;	COMDAT ?Allocate@?$CTempBuffer@D$0IA@VCCRTAllocator@ATL@@@ATL@@QAEPADI@Z
_TEXT	SEGMENT PARA USE32 PUBLIC 'CODE'
_TEXT	ENDS
;	COMDAT ?AllocateBytes@?$CTempBuffer@D$0IA@VCCRTAllocator@ATL@@@ATL@@QAEPADI@Z
_TEXT	SEGMENT PARA USE32 PUBLIC 'CODE'
_TEXT	ENDS
;	COMDAT ??_C@_08GPODJFIN@m_p?5?$DN?$DN?50?$AA@
CONST	SEGMENT DWORD USE32 PUBLIC 'CONST'
CONST	ENDS
;	COMDAT ??_C@_0FH@BOCPFCEM@D?3?2Program?5Files?5?$CIx86?$CJ?2Microsoft@
CONST	SEGMENT DWORD USE32 PUBLIC 'CONST'
CONST	ENDS
;	COMDAT ?AllocateHeap@?$CTempBuffer@D$0IA@VCCRTAllocator@ATL@@@ATL@@AAEXI@Z
_TEXT	SEGMENT PARA USE32 PUBLIC 'CODE'
_TEXT	ENDS
;	COMDAT ??B?$CTempBuffer@D$0IA@VCCRTAllocator@ATL@@@ATL@@QBEPADXZ
_TEXT	SEGMENT PARA USE32 PUBLIC 'CODE'
_TEXT	ENDS
;	COMDAT ?lstrcmpiWThunk@ATL@@YGHPB_W0@Z
_TEXT	SEGMENT PARA USE32 PUBLIC 'CODE'
_TEXT	ENDS
;	COMDAT ?lstrcmpiWFake@ATL@@YGHPB_W0@Z
_TEXT	SEGMENT PARA USE32 PUBLIC 'CODE'
_TEXT	ENDS
;	COMDAT ?CharLowerWThunk@ATL@@YGPA_WPA_W@Z
_TEXT	SEGMENT PARA USE32 PUBLIC 'CODE'
_TEXT	ENDS
;	COMDAT ?CharLowerWFake@ATL@@YGPA_WPA_W@Z
_TEXT	SEGMENT PARA USE32 PUBLIC 'CODE'
_TEXT	ENDS
;	COMDAT ?AtlA2WHelper@@YGPA_WPA_WPBDHI@Z
_TEXT	SEGMENT PARA USE32 PUBLIC 'CODE'
_TEXT	ENDS
;	COMDAT ?CharUpperWThunk@ATL@@YGPA_WPA_W@Z
_TEXT	SEGMENT PARA USE32 PUBLIC 'CODE'
_TEXT	ENDS
;	COMDAT ?CharUpperWFake@ATL@@YGPA_WPA_W@Z
_TEXT	SEGMENT PARA USE32 PUBLIC 'CODE'
_TEXT	ENDS
;	COMDAT ?GetEnvironmentVariableWThunk@ATL@@YGKPB_WPA_WK@Z
_TEXT	SEGMENT PARA USE32 PUBLIC 'CODE'
_TEXT	ENDS
;	COMDAT ?GetEnvironmentVariableWFake@ATL@@YGKPB_WPA_WK@Z
_TEXT	SEGMENT PARA USE32 PUBLIC 'CODE'
_TEXT	ENDS
;	COMDAT ??0?$CW2AEX@$0IA@@ATL@@QAE@PB_W@Z
_TEXT	SEGMENT PARA USE32 PUBLIC 'CODE'
_TEXT	ENDS
;	COMDAT ?Init@?$CW2AEX@$0IA@@ATL@@AAEXPB_WI@Z
_TEXT	SEGMENT PARA USE32 PUBLIC 'CODE'
_TEXT	ENDS
;	COMDAT ?AtlThrowLastWin32@ATL@@YGXXZ
_TEXT	SEGMENT PARA USE32 PUBLIC 'CODE'
_TEXT	ENDS
;	COMDAT ??1?$CW2AEX@$0IA@@ATL@@QAE@XZ
_TEXT	SEGMENT PARA USE32 PUBLIC 'CODE'
_TEXT	ENDS
;	COMDAT ??B?$CW2AEX@$0IA@@ATL@@QBEPADXZ
_TEXT	SEGMENT PARA USE32 PUBLIC 'CODE'
_TEXT	ENDS
;	COMDAT ??_C@_0BA@CLMJJCOM@nSize?5?$DO?$DN?5nSizeW?$AA@
CONST	SEGMENT DWORD USE32 PUBLIC 'CONST'
CONST	ENDS
;	COMDAT ?AddRef@CStringData@ATL@@QAEXXZ
_TEXT	SEGMENT PARA USE32 PUBLIC 'CODE'
_TEXT	ENDS
;	COMDAT ??_C@_09EEBKLCFA@nRefs?5?$DO?50?$AA@
CONST	SEGMENT DWORD USE32 PUBLIC 'CONST'
CONST	ENDS
;	COMDAT ?SetManager@CNilStringData@ATL@@QAEXPAUIAtlStringMgr@2@@Z
_TEXT	SEGMENT PARA USE32 PUBLIC 'CODE'
_TEXT	ENDS
;	COMDAT ??_C@_0BA@MLJMCNFJ@pStringMgr?5?$DN?$DN?50?$AA@
CONST	SEGMENT DWORD USE32 PUBLIC 'CONST'
CONST	ENDS
;	COMDAT ??0CNilStringData@ATL@@QAE@XZ
_TEXT	SEGMENT PARA USE32 PUBLIC 'CODE'
_TEXT	ENDS
;	COMDAT ??_7CAtlStringMgr@ATL@@6B@
CONST	SEGMENT DWORD USE32 PUBLIC 'CONST'
CONST	ENDS
;	COMDAT ??_7IAdData@@6B@
CONST	SEGMENT DWORD USE32 PUBLIC 'CONST'
CONST	ENDS
;	COMDAT ??_7IData@@6B@
CONST	SEGMENT DWORD USE32 PUBLIC 'CONST'
CONST	ENDS
;	COMDAT ?clsid@?1??GetClsid@CShockwaveFlash@@QAEABU_GUID@@XZ@4U3@B
CONST	SEGMENT DWORD USE32 PUBLIC 'CONST'
CONST	ENDS
;	COMDAT ??_7HTTPObserver@@6B@
CONST	SEGMENT DWORD USE32 PUBLIC 'CONST'
CONST	ENDS
sxdata	SEGMENT DWORD USE32 'SXDATA'
sxdata	ENDS
FLAT	GROUP _DATA, CONST, _BSS
	ASSUME	CS: FLAT, DS: FLAT, SS: FLAT
endif

INCLUDELIB MSVCRTD
INCLUDELIB OLDNAMES

PUBLIC	?c_bIsMFCDLLTraits@?$_MFCDLLTraitsCheck@DV?$StrTraitATL@DV?$ChTraitsCRT@D@ATL@@@ATL@@@_CSTRING_IMPL_@ATL@@2_NB ; ATL::_CSTRING_IMPL_::_MFCDLLTraitsCheck<char,ATL::StrTraitATL<char,ATL::ChTraitsCRT<char> > >::c_bIsMFCDLLTraits
PUBLIC	?c_bIsMFCDLLTraits@?$_MFCDLLTraitsCheck@_WV?$StrTraitATL@_WV?$ChTraitsCRT@_W@ATL@@@ATL@@@_CSTRING_IMPL_@ATL@@2_NB ; ATL::_CSTRING_IMPL_::_MFCDLLTraitsCheck<wchar_t,ATL::StrTraitATL<wchar_t,ATL::ChTraitsCRT<wchar_t> > >::c_bIsMFCDLLTraits
PUBLIC	?g_pfnGetThreadACP@ATL@@3P6GIXZA		; ATL::g_pfnGetThreadACP
PUBLIC	?_AtlGetThreadACPThunk@ATL@@YGIXZ		; ATL::_AtlGetThreadACPThunk
PUBLIC	?_strthunks@ATL@@3U_AtlStringThunks@1@A		; ATL::_strthunks
PUBLIC	?GetEnvironmentVariableWThunk@ATL@@YGKPB_WPA_WK@Z ; ATL::GetEnvironmentVariableWThunk
PUBLIC	?CompareStringWThunk@ATL@@YGHKKPB_WH0H@Z	; ATL::CompareStringWThunk
PUBLIC	?GetStringTypeExWThunk@ATL@@YGHKKPB_WHPAG@Z	; ATL::GetStringTypeExWThunk
PUBLIC	?lstrcmpiWThunk@ATL@@YGHPB_W0@Z			; ATL::lstrcmpiWThunk
PUBLIC	?CharLowerWThunk@ATL@@YGPA_WPA_W@Z		; ATL::CharLowerWThunk
PUBLIC	?CharUpperWThunk@ATL@@YGPA_WPA_W@Z		; ATL::CharUpperWThunk
PUBLIC	?classCGameCtrlWnd@CGameCtrlWnd@@2UCRuntimeClass@@B ; CGameCtrlWnd::classCGameCtrlWnd
PUBLIC	?_messageEntries@CGameCtrlWnd@@0QBUAFX_MSGMAP_ENTRY@@B ; CGameCtrlWnd::_messageEntries
PUBLIC	?messageMap@CGameCtrlWnd@@1UAFX_MSGMAP@@B	; CGameCtrlWnd::messageMap
PUBLIC	?OnCreate@CGameCtrlWnd@@IAEHPAUtagCREATESTRUCTA@@@Z ; CGameCtrlWnd::OnCreate
PUBLIC	?OnClickedReplay@CGameCtrlWnd@@IAEXXZ		; CGameCtrlWnd::OnClickedReplay
PUBLIC	?OnClickedFullScreen@CGameCtrlWnd@@IAEXXZ	; CGameCtrlWnd::OnClickedFullScreen
PUBLIC	?OnClickedExitFullScreen@CGameCtrlWnd@@IAEXXZ	; CGameCtrlWnd::OnClickedExitFullScreen
PUBLIC	?OnClickedMute@CGameCtrlWnd@@IAEXXZ		; CGameCtrlWnd::OnClickedMute
PUBLIC	?OnClickedUnMute@CGameCtrlWnd@@IAEXXZ		; CGameCtrlWnd::OnClickedUnMute
PUBLIC	?OnClickedCut@CGameCtrlWnd@@IAEXXZ		; CGameCtrlWnd::OnClickedCut
PUBLIC	?OnShowWindow@CGameCtrlWnd@@IAEXHI@Z		; CGameCtrlWnd::OnShowWindow
EXTRN	?GetThisClass@CBasicWnd@@SGPAUCRuntimeClass@@XZ:NEAR ; CBasicWnd::GetThisClass
EXTRN	?GetThisMessageMap@CBasicWnd@@KGPBUAFX_MSGMAP@@XZ:NEAR ; CBasicWnd::GetThisMessageMap
;	COMDAT ?c_bIsMFCDLLTraits@?$_MFCDLLTraitsCheck@DV?$StrTraitATL@DV?$ChTraitsCRT@D@ATL@@@ATL@@@_CSTRING_IMPL_@ATL@@2_NB
CONST	SEGMENT
?c_bIsMFCDLLTraits@?$_MFCDLLTraitsCheck@DV?$StrTraitATL@DV?$ChTraitsCRT@D@ATL@@@ATL@@@_CSTRING_IMPL_@ATL@@2_NB DB 00H ; ATL::_CSTRING_IMPL_::_MFCDLLTraitsCheck<char,ATL::StrTraitATL<char,ATL::ChTraitsCRT<char> > >::c_bIsMFCDLLTraits
CONST	ENDS
;	COMDAT ?c_bIsMFCDLLTraits@?$_MFCDLLTraitsCheck@_WV?$StrTraitATL@_WV?$ChTraitsCRT@_W@ATL@@@ATL@@@_CSTRING_IMPL_@ATL@@2_NB
CONST	SEGMENT
?c_bIsMFCDLLTraits@?$_MFCDLLTraitsCheck@_WV?$StrTraitATL@_WV?$ChTraitsCRT@_W@ATL@@@ATL@@@_CSTRING_IMPL_@ATL@@2_NB DB 00H ; ATL::_CSTRING_IMPL_::_MFCDLLTraitsCheck<wchar_t,ATL::StrTraitATL<wchar_t,ATL::ChTraitsCRT<wchar_t> > >::c_bIsMFCDLLTraits
CONST	ENDS
CONST	SEGMENT
$SG194152 DB	'int', 00H
CONST	ENDS
_DATA	SEGMENT
_TYPE_CONFIG_INT DD FLAT:$SG194152
_DATA	ENDS
CONST	SEGMENT
$SG194154 DB	'str', 00H
CONST	ENDS
_DATA	SEGMENT
_TYPE_CONFIG_STR DD FLAT:$SG194154
_DATA	ENDS
CONST	SEGMENT
$SG194156 DB	'double', 00H
CONST	ENDS
_DATA	SEGMENT
_TYPE_CONFIG_DOUBLE DD FLAT:$SG194156
_DATA	ENDS
CONST	SEGMENT
	ORG $+1
$SG194158 DB	'bool', 00H
CONST	ENDS
_DATA	SEGMENT
_TYPE_CONFIG_BOOL DD FLAT:$SG194158
_DATA	ENDS
CONST	SEGMENT
	ORG $+3
$SG194160 DB	'sepint', 00H
CONST	ENDS
_DATA	SEGMENT
_TYPE_CONFIG_INT_HASSEP DD FLAT:$SG194160
_DATA	ENDS
CONST	SEGMENT
	ORG $+1
$SG194162 DB	'sepstr', 00H
CONST	ENDS
_DATA	SEGMENT
_TYPE_CONFIG_STR_HASSEP DD FLAT:$SG194162
_DATA	ENDS
CONST	SEGMENT
	ORG $+1
$SG194164 DB	'sepdouble', 00H
CONST	ENDS
_DATA	SEGMENT
_TYPE_CONFIG_DOUBLE_HASSEP DD FLAT:$SG194164
_DATA	ENDS
CONST	SEGMENT
	ORG $+2
$SG194166 DB	'sepbool', 00H
CONST	ENDS
_DATA	SEGMENT
_TYPE_CONFIG_BOOL_HASSEP DD FLAT:$SG194166
_DATA	ENDS
CONST	SEGMENT
$SG194168 DB	'App', 00H
CONST	ENDS
_DATA	SEGMENT
_CONF_APP_MODULE_NAME DD FLAT:$SG194168
_DATA	ENDS
CONST	SEGMENT
$SG194170 DB	'SwfPath', 00H
CONST	ENDS
_DATA	SEGMENT
_CONF_APP_SWF_PATH DD FLAT:$SG194170
_DATA	ENDS
CONST	SEGMENT
$SG194172 DB	'MainWndHold', 00H
CONST	ENDS
_DATA	SEGMENT
_CONF_APP_MAINWND_HOLD DD FLAT:$SG194172
_DATA	ENDS
CONST	SEGMENT
$SG194174 DB	'RunCount', 00H
CONST	ENDS
_DATA	SEGMENT
_CONF_APP_RUN_COUNT DD FLAT:$SG194174
_DATA	ENDS
CONST	SEGMENT
	ORG $+3
$SG194176 DB	'PlayedGame', 00H
CONST	ENDS
_DATA	SEGMENT
_CONF_APP_PLAYED_GAME DD FLAT:$SG194176
_DATA	ENDS
CONST	SEGMENT
	ORG $+1
$SG194178 DB	'playedPcGame', 00H
CONST	ENDS
_DATA	SEGMENT
_CONF_APP_PLAYED_PC_GAME DD FLAT:$SG194178
_DATA	ENDS
CONST	SEGMENT
	ORG $+3
$SG194180 DB	'PlayedIconSize', 00H
CONST	ENDS
_DATA	SEGMENT
_CONF_APP_PLAYED_ICON_SIZE DD FLAT:$SG194180
_DATA	ENDS
CONST	SEGMENT
	ORG $+1
$SG194182 DB	'PictureSavePath', 00H
CONST	ENDS
_DATA	SEGMENT
_CONF_APP_PIC_SAVE_PATH DD FLAT:$SG194182
_DATA	ENDS
CONST	SEGMENT
$SG194187 DB	'CGameCtrlWnd', 00H
CONST	ENDS
;	COMDAT ?classCGameCtrlWnd@CGameCtrlWnd@@2UCRuntimeClass@@B
CONST	SEGMENT
?classCGameCtrlWnd@CGameCtrlWnd@@2UCRuntimeClass@@B DD FLAT:$SG194187 ; CGameCtrlWnd::classCGameCtrlWnd
	DD	0118H
	DD	0ffffH
	DD	00H
	DD	FLAT:?GetThisClass@CBasicWnd@@SGPAUCRuntimeClass@@XZ
	DD	00H
	DD	00H
CONST	ENDS
;	COMDAT ?_messageEntries@CGameCtrlWnd@@0QBUAFX_MSGMAP_ENTRY@@B
CONST	SEGMENT
?_messageEntries@CGameCtrlWnd@@0QBUAFX_MSGMAP_ENTRY@@B DD 01H ; CGameCtrlWnd::_messageEntries
	DD	00H
	DD	00H
	DD	00H
	DD	0dH
	DD	FLAT:?OnCreate@CGameCtrlWnd@@IAEHPAUtagCREATESTRUCTA@@@Z
	DD	0111H
	DD	00H
	DD	076H
	DD	076H
	DD	035H
	DD	FLAT:?OnClickedReplay@CGameCtrlWnd@@IAEXXZ
	DD	0111H
	DD	00H
	DD	077H
	DD	077H
	DD	035H
	DD	FLAT:?OnClickedFullScreen@CGameCtrlWnd@@IAEXXZ
	DD	0111H
	DD	00H
	DD	081H
	DD	081H
	DD	035H
	DD	FLAT:?OnClickedExitFullScreen@CGameCtrlWnd@@IAEXXZ
	DD	0111H
	DD	00H
	DD	07fH
	DD	07fH
	DD	035H
	DD	FLAT:?OnClickedMute@CGameCtrlWnd@@IAEXXZ
	DD	0111H
	DD	00H
	DD	085H
	DD	085H
	DD	035H
	DD	FLAT:?OnClickedUnMute@CGameCtrlWnd@@IAEXXZ
	DD	0111H
	DD	00H
	DD	0fcH
	DD	0fcH
	DD	035H
	DD	FLAT:?OnClickedCut@CGameCtrlWnd@@IAEXXZ
	DD	018H
	DD	00H
	DD	00H
	DD	00H
	DD	012H
	DD	FLAT:?OnShowWindow@CGameCtrlWnd@@IAEXHI@Z
	DD	00H
	DD	00H
	DD	00H
	DD	00H
	DD	00H
	DD	00H
CONST	ENDS
;	COMDAT ?messageMap@CGameCtrlWnd@@1UAFX_MSGMAP@@B
CONST	SEGMENT
?messageMap@CGameCtrlWnd@@1UAFX_MSGMAP@@B DD FLAT:?GetThisMessageMap@CBasicWnd@@KGPBUAFX_MSGMAP@@XZ ; CGameCtrlWnd::messageMap
	DD	FLAT:?_messageEntries@CGameCtrlWnd@@0QBUAFX_MSGMAP_ENTRY@@B
CONST	ENDS
CONST	SEGMENT
	ORG $+3
$SG194291 DB	'===IN', 00H
	ORG $+2
$SG194292 DB	'CGameCtrlWnd::OnCreate', 00H
	ORG $+1
$SG194293 DB	'CGameCtrlWnd.txt', 00H
	ORG $+3
$SG194298 DB	'GameRePlay', 00H
	ORG $+1
$SG194300 DB	'ToFull', 00H
	ORG $+1
$SG194302 DB	'ExitFull', 00H
	ORG $+3
$SG194304 DB	'Mute', 00H
	ORG $+3
$SG194306 DB	'UnMute', 00H
	ORG $+1
$SG194308 DB	'Cut', 00H
$SG194311 DB	'normal', 00H
	ORG $+1
$SG194312 DB	'GameCtrl', 00H
	ORG $+3
$SG194315 DB	'normal', 00H
	ORG $+1
$SG194316 DB	'GameCtrl', 00H
	ORG $+3
$SG194319 DB	'===OUT', 00H
	ORG $+1
$SG194320 DB	'CGameCtrlWnd::OnCreate', 00H
	ORG $+1
$SG194321 DB	'CGameCtrlWnd.txt', 00H
	ORG $+3
$SG194327 DB	'===IN', 00H
	ORG $+2
$SG194328 DB	'CGameCtrlWnd::OnClickedReplay', 00H
	ORG $+2
$SG194329 DB	'CGameCtrlWnd.txt', 00H
	ORG $+3
$SG194332 DB	'===OUT', 00H
	ORG $+1
$SG194333 DB	'CGameCtrlWnd::OnClickedReplay', 00H
	ORG $+2
$SG194334 DB	'CGameCtrlWnd.txt', 00H
	ORG $+3
$SG194340 DB	'===IN', 00H
	ORG $+2
$SG194341 DB	'CGameCtrlWnd::OnClickedFullScreen', 00H
	ORG $+2
$SG194342 DB	'CGameCtrlWnd.txt', 00H
	ORG $+3
$SG194350 DB	'===OUT', 00H
	ORG $+1
$SG194351 DB	'CGameCtrlWnd::OnClickedFullScreen', 00H
	ORG $+2
$SG194352 DB	'CGameCtrlWnd.txt', 00H
	ORG $+3
$SG194358 DB	'===IN', 00H
	ORG $+2
$SG194359 DB	'CGameCtrlWnd::OnClickedFullScreen', 00H
	ORG $+2
$SG194360 DB	'CGameCtrlWnd.txt', 00H
	ORG $+3
$SG194368 DB	'===OUT', 00H
	ORG $+1
$SG194369 DB	'CGameCtrlWnd::OnClickedFullScreen', 00H
	ORG $+2
$SG194370 DB	'CGameCtrlWnd.txt', 00H
	ORG $+3
$SG194376 DB	'===IN', 00H
	ORG $+2
$SG194377 DB	'CGameCtrlWnd::UpdateAllWnd', 00H
	ORG $+1
$SG194378 DB	'CGameCtrlWnd.txt', 00H
	ORG $+3
$SG194386 DB	'===OUT', 00H
	ORG $+1
$SG194387 DB	'CGameCtrlWnd::UpdateAllWnd', 00H
	ORG $+1
$SG194388 DB	'CGameCtrlWnd.txt', 00H
	ORG $+3
$SG194394 DB	'===IN', 00H
	ORG $+2
$SG194395 DB	'CGameCtrlWnd::OnClickedMute', 00H
$SG194396 DB	'CGameCtrlWnd.txt', 00H
	ORG $+3
$SG194401 DB	'===OUT', 00H
	ORG $+1
$SG194402 DB	'CGameCtrlWnd::OnClickedMute', 00H
$SG194403 DB	'CGameCtrlWnd.txt', 00H
	ORG $+3
$SG194409 DB	'===IN', 00H
	ORG $+2
$SG194410 DB	'CGameCtrlWnd::OnClickedMute', 00H
$SG194411 DB	'CGameCtrlWnd.txt', 00H
	ORG $+3
$SG194416 DB	'===OUT', 00H
	ORG $+1
$SG194417 DB	'CGameCtrlWnd::OnClickedMute', 00H
$SG194418 DB	'CGameCtrlWnd.txt', 00H
CONST	ENDS
;	COMDAT ?g_pfnGetThreadACP@ATL@@3P6GIXZA
_DATA	SEGMENT
?g_pfnGetThreadACP@ATL@@3P6GIXZA DD FLAT:?_AtlGetThreadACPThunk@ATL@@YGIXZ ; ATL::g_pfnGetThreadACP
_DATA	ENDS
;	COMDAT ?_strthunks@ATL@@3U_AtlStringThunks@1@A
_DATA	SEGMENT
?_strthunks@ATL@@3U_AtlStringThunks@1@A DD FLAT:?CompareStringWThunk@ATL@@YGHKKPB_WH0H@Z ; ATL::_strthunks
	DD	FLAT:?GetStringTypeExWThunk@ATL@@YGHKKPB_WHPAG@Z
	DD	FLAT:?lstrcmpiWThunk@ATL@@YGHPB_W0@Z
	DD	FLAT:?CharLowerWThunk@ATL@@YGPA_WPA_W@Z
	DD	FLAT:?CharUpperWThunk@ATL@@YGPA_WPA_W@Z
	DD	FLAT:?GetEnvironmentVariableWThunk@ATL@@YGKPB_WPA_WK@Z
_DATA	ENDS
CONST	SEGMENT
	ORG $+3
_ID_DATA_PANELCHANGE DD 05H
CONST	ENDS
PUBLIC	?InterlockedExchangePointer@@YGPAXPAPAXPAX@Z	; InterlockedExchangePointer
PUBLIC	?_AtlGetThreadACPFake@ATL@@YGIXZ		; ATL::_AtlGetThreadACPFake
PUBLIC	?_AtlGetThreadACPReal@ATL@@YGIXZ		; ATL::_AtlGetThreadACPReal
EXTRN	__imp__GetVersionExA@4:NEAR
EXTRN	__RTC_InitBase:NEAR
EXTRN	__RTC_Shutdown:NEAR
EXTRN	__RTC_CheckEsp:NEAR
EXTRN	___security_cookie:DWORD
EXTRN	@_RTC_CheckStackVars@8:NEAR
EXTRN	@__security_check_cookie@4:NEAR
;	COMDAT rtc$IMZ
; File d:\program files (x86)\microsoft visual studio .net 2003\vc7\atlmfc\include\atlconv.h
rtc$IMZ	SEGMENT
__RTC_InitBase.rtc$IMZ DD FLAT:__RTC_InitBase
rtc$IMZ	ENDS
;	COMDAT rtc$TMZ
rtc$TMZ	SEGMENT
__RTC_Shutdown.rtc$TMZ DD FLAT:__RTC_Shutdown
; Function compile flags: /Odt /RTCsu
rtc$TMZ	ENDS
;	COMDAT ?_AtlGetThreadACPThunk@ATL@@YGIXZ
_TEXT	SEGMENT
_pfnGetThreadACP$ = -164				; size = 4
_ver$ = -156						; size = 148
__$ArrayPad$ = -4					; size = 4
__$ReturnAddr$ = 4					; size = 4
?_AtlGetThreadACPThunk@ATL@@YGIXZ PROC NEAR		; ATL::_AtlGetThreadACPThunk, COMDAT

; 134  : {

  00000	55		 push	 ebp
  00001	8b ec		 mov	 ebp, esp
  00003	81 ec a4 00 00
	00		 sub	 esp, 164		; 000000a4H
  00009	56		 push	 esi
  0000a	57		 push	 edi
  0000b	8d bd 5c ff ff
	ff		 lea	 edi, DWORD PTR [ebp-164]
  00011	b9 29 00 00 00	 mov	 ecx, 41			; 00000029H
  00016	b8 cc cc cc cc	 mov	 eax, -858993460		; ccccccccH
  0001b	f3 ab		 rep stosd
  0001d	a1 00 00 00 00	 mov	 eax, DWORD PTR ___security_cookie
  00022	89 45 fc	 mov	 DWORD PTR __$ArrayPad$[ebp], eax

; 135  : 	OSVERSIONINFO ver;
; 136  : 	ATLGETTHREADACP pfnGetThreadACP;
; 137  : 
; 138  : 	ver.dwOSVersionInfoSize = sizeof( ver );

  00025	c7 85 64 ff ff
	ff 94 00 00 00	 mov	 DWORD PTR _ver$[ebp], 148 ; 00000094H

; 139  : 	::GetVersionEx( &ver );

  0002f	8b f4		 mov	 esi, esp
  00031	8d 85 64 ff ff
	ff		 lea	 eax, DWORD PTR _ver$[ebp]
  00037	50		 push	 eax
  00038	ff 15 00 00 00
	00		 call	 DWORD PTR __imp__GetVersionExA@4
  0003e	3b f4		 cmp	 esi, esp
  00040	e8 00 00 00 00	 call	 __RTC_CheckEsp

; 140  : 	if( (ver.dwPlatformId == VER_PLATFORM_WIN32_NT) && (ver.dwMajorVersion >= 5) )

  00045	83 bd 74 ff ff
	ff 02		 cmp	 DWORD PTR _ver$[ebp+16], 2
  0004c	75 15		 jne	 SHORT $L24163
  0004e	83 bd 68 ff ff
	ff 05		 cmp	 DWORD PTR _ver$[ebp+4], 5
  00055	72 0c		 jb	 SHORT $L24163

; 141  : 	{
; 142  : 		// On Win2K, CP_THREAD_ACP is supported
; 143  : 		pfnGetThreadACP = _AtlGetThreadACPReal;

  00057	c7 85 5c ff ff
	ff 00 00 00 00	 mov	 DWORD PTR _pfnGetThreadACP$[ebp], OFFSET FLAT:?_AtlGetThreadACPReal@ATL@@YGIXZ ; ATL::_AtlGetThreadACPReal

; 144  : 	}
; 145  : 	else

  00061	eb 0a		 jmp	 SHORT $L24164
$L24163:

; 146  : 	{
; 147  : 		pfnGetThreadACP = _AtlGetThreadACPFake;

  00063	c7 85 5c ff ff
	ff 00 00 00 00	 mov	 DWORD PTR _pfnGetThreadACP$[ebp], OFFSET FLAT:?_AtlGetThreadACPFake@ATL@@YGIXZ ; ATL::_AtlGetThreadACPFake
$L24164:

; 148  : 	}
; 149  : 	InterlockedExchangePointer( reinterpret_cast< void** >(&g_pfnGetThreadACP), pfnGetThreadACP );

  0006d	8b 8d 5c ff ff
	ff		 mov	 ecx, DWORD PTR _pfnGetThreadACP$[ebp]
  00073	51		 push	 ecx
  00074	68 00 00 00 00	 push	 OFFSET FLAT:?g_pfnGetThreadACP@ATL@@3P6GIXZA ; ATL::g_pfnGetThreadACP
  00079	e8 00 00 00 00	 call	 ?InterlockedExchangePointer@@YGPAXPAPAXPAX@Z ; InterlockedExchangePointer

; 150  : 
; 151  : 	return( g_pfnGetThreadACP() );

  0007e	8b f4		 mov	 esi, esp
  00080	ff 15 00 00 00
	00		 call	 DWORD PTR ?g_pfnGetThreadACP@ATL@@3P6GIXZA ; ATL::g_pfnGetThreadACP
  00086	3b f4		 cmp	 esi, esp
  00088	e8 00 00 00 00	 call	 __RTC_CheckEsp

; 152  : }

  0008d	52		 push	 edx
  0008e	8b cd		 mov	 ecx, ebp
  00090	50		 push	 eax
  00091	8d 15 00 00 00
	00		 lea	 edx, DWORD PTR $L195270
  00097	e8 00 00 00 00	 call	 @_RTC_CheckStackVars@8
  0009c	58		 pop	 eax
  0009d	5a		 pop	 edx
  0009e	8b 4d fc	 mov	 ecx, DWORD PTR __$ArrayPad$[ebp]
  000a1	e8 00 00 00 00	 call	 @__security_check_cookie@4
  000a6	5f		 pop	 edi
  000a7	5e		 pop	 esi
  000a8	81 c4 a4 00 00
	00		 add	 esp, 164		; 000000a4H
  000ae	3b ec		 cmp	 ebp, esp
  000b0	e8 00 00 00 00	 call	 __RTC_CheckEsp
  000b5	8b e5		 mov	 esp, ebp
  000b7	5d		 pop	 ebp
  000b8	c3		 ret	 0
$L195270:
  000b9	01 00 00 00	 DD	 1
  000bd	00 00 00 00	 DD	 $L195269
$L195269:
  000c1	64 ff ff ff	 DD	 -156			; ffffff64H
  000c5	94 00 00 00	 DD	 148			; 00000094H
  000c9	00 00 00 00	 DD	 $L195266
$L195266:
  000cd	76		 DB	 118			; 00000076H
  000ce	65		 DB	 101			; 00000065H
  000cf	72		 DB	 114			; 00000072H
  000d0	00		 DB	 0
?_AtlGetThreadACPThunk@ATL@@YGIXZ ENDP			; ATL::_AtlGetThreadACPThunk
_TEXT	ENDS
EXTRN	__imp__InterlockedExchange@8:NEAR
; Function compile flags: /Odt /RTCsu
;	COMDAT ?InterlockedExchangePointer@@YGPAXPAPAXPAX@Z
_TEXT	SEGMENT
_pp$ = 8						; size = 4
_pNew$ = 12						; size = 4
?InterlockedExchangePointer@@YGPAXPAPAXPAX@Z PROC NEAR	; InterlockedExchangePointer, COMDAT

; 91   : {

  00000	55		 push	 ebp
  00001	8b ec		 mov	 ebp, esp
  00003	56		 push	 esi

; 92   : 	return( reinterpret_cast<void*>(static_cast<LONG_PTR>(::InterlockedExchange(reinterpret_cast<LONG*>(pp), static_cast<LONG>(reinterpret_cast<LONG_PTR>(pNew))))) );

  00004	8b f4		 mov	 esi, esp
  00006	8b 45 0c	 mov	 eax, DWORD PTR _pNew$[ebp]
  00009	50		 push	 eax
  0000a	8b 4d 08	 mov	 ecx, DWORD PTR _pp$[ebp]
  0000d	51		 push	 ecx
  0000e	ff 15 00 00 00
	00		 call	 DWORD PTR __imp__InterlockedExchange@8
  00014	3b f4		 cmp	 esi, esp
  00016	e8 00 00 00 00	 call	 __RTC_CheckEsp

; 93   : }

  0001b	5e		 pop	 esi
  0001c	3b ec		 cmp	 ebp, esp
  0001e	e8 00 00 00 00	 call	 __RTC_CheckEsp
  00023	5d		 pop	 ebp
  00024	c2 08 00	 ret	 8
?InterlockedExchangePointer@@YGPAXPAPAXPAX@Z ENDP	; InterlockedExchangePointer
_TEXT	ENDS
EXTRN	__imp__GetACP@0:NEAR
EXTRN	__imp__GetLocaleInfoA@16:NEAR
EXTRN	__imp__GetThreadLocale@0:NEAR
; Function compile flags: /Odt /RTCsu
;	COMDAT ?_AtlGetThreadACPFake@ATL@@YGIXZ
_TEXT	SEGMENT
_pch$24151 = -32					; size = 4
_szACP$ = -24						; size = 7
_lcidThread$ = -12					; size = 4
_nACP$ = -8						; size = 4
__$ArrayPad$ = -4					; size = 4
__$ReturnAddr$ = 4					; size = 4
?_AtlGetThreadACPFake@ATL@@YGIXZ PROC NEAR		; ATL::_AtlGetThreadACPFake, COMDAT

; 101  : {

  00000	55		 push	 ebp
  00001	8b ec		 mov	 ebp, esp
  00003	83 ec 20	 sub	 esp, 32			; 00000020H
  00006	56		 push	 esi
  00007	b8 cc cc cc cc	 mov	 eax, -858993460		; ccccccccH
  0000c	89 45 e0	 mov	 DWORD PTR [ebp-32], eax
  0000f	89 45 e4	 mov	 DWORD PTR [ebp-28], eax
  00012	89 45 e8	 mov	 DWORD PTR [ebp-24], eax
  00015	89 45 ec	 mov	 DWORD PTR [ebp-20], eax
  00018	89 45 f0	 mov	 DWORD PTR [ebp-16], eax
  0001b	89 45 f4	 mov	 DWORD PTR [ebp-12], eax
  0001e	89 45 f8	 mov	 DWORD PTR [ebp-8], eax
  00021	89 45 fc	 mov	 DWORD PTR [ebp-4], eax
  00024	a1 00 00 00 00	 mov	 eax, DWORD PTR ___security_cookie
  00029	89 45 fc	 mov	 DWORD PTR __$ArrayPad$[ebp], eax

; 102  : 	UINT nACP = 0;

  0002c	c7 45 f8 00 00
	00 00		 mov	 DWORD PTR _nACP$[ebp], 0

; 103  : 
; 104  : 	LCID lcidThread = ::GetThreadLocale();

  00033	8b f4		 mov	 esi, esp
  00035	ff 15 00 00 00
	00		 call	 DWORD PTR __imp__GetThreadLocale@0
  0003b	3b f4		 cmp	 esi, esp
  0003d	e8 00 00 00 00	 call	 __RTC_CheckEsp
  00042	89 45 f4	 mov	 DWORD PTR _lcidThread$[ebp], eax

; 105  : 
; 106  : 	char szACP[7];
; 107  : 	// GetLocaleInfoA will fail for a Unicode-only LCID, but those are only supported on 
; 108  : 	// Windows 2000.  Since Windows 2000 supports CP_THREAD_ACP, this code path is never
; 109  : 	// executed on Windows 2000.
; 110  : 	if (::GetLocaleInfoA(lcidThread, LOCALE_IDEFAULTANSICODEPAGE, szACP, 7) != 0)

  00045	8b f4		 mov	 esi, esp
  00047	6a 07		 push	 7
  00049	8d 45 e8	 lea	 eax, DWORD PTR _szACP$[ebp]
  0004c	50		 push	 eax
  0004d	68 04 10 00 00	 push	 4100			; 00001004H
  00052	8b 4d f4	 mov	 ecx, DWORD PTR _lcidThread$[ebp]
  00055	51		 push	 ecx
  00056	ff 15 00 00 00
	00		 call	 DWORD PTR __imp__GetLocaleInfoA@16
  0005c	3b f4		 cmp	 esi, esp
  0005e	e8 00 00 00 00	 call	 __RTC_CheckEsp
  00063	85 c0		 test	 eax, eax
  00065	74 34		 je	 SHORT $L24150

; 111  : 	{
; 112  : 		char* pch = szACP;

  00067	8d 55 e8	 lea	 edx, DWORD PTR _szACP$[ebp]
  0006a	89 55 e0	 mov	 DWORD PTR _pch$24151[ebp], edx
$L24153:

; 113  : 		while (*pch != '\0')

  0006d	8b 45 e0	 mov	 eax, DWORD PTR _pch$24151[ebp]
  00070	0f be 08	 movsx	 ecx, BYTE PTR [eax]
  00073	85 c9		 test	 ecx, ecx
  00075	74 24		 je	 SHORT $L24150

; 114  : 		{
; 115  : 			nACP *= 10;

  00077	8b 55 f8	 mov	 edx, DWORD PTR _nACP$[ebp]
  0007a	6b d2 0a	 imul	 edx, 10			; 0000000aH
  0007d	89 55 f8	 mov	 DWORD PTR _nACP$[ebp], edx

; 116  : 			nACP += *pch++ - '0';

  00080	8b 45 e0	 mov	 eax, DWORD PTR _pch$24151[ebp]
  00083	0f be 08	 movsx	 ecx, BYTE PTR [eax]
  00086	8b 55 f8	 mov	 edx, DWORD PTR _nACP$[ebp]
  00089	8d 44 0a d0	 lea	 eax, DWORD PTR [edx+ecx-48]
  0008d	89 45 f8	 mov	 DWORD PTR _nACP$[ebp], eax
  00090	8b 4d e0	 mov	 ecx, DWORD PTR _pch$24151[ebp]
  00093	83 c1 01	 add	 ecx, 1
  00096	89 4d e0	 mov	 DWORD PTR _pch$24151[ebp], ecx

; 117  : 		}

  00099	eb d2		 jmp	 SHORT $L24153
$L24150:

; 118  : 	}
; 119  : 	// Use the Default ANSI Code Page if we were unable to get the thread ACP or if one does not exist.
; 120  : 	if (nACP == 0)

  0009b	83 7d f8 00	 cmp	 DWORD PTR _nACP$[ebp], 0
  0009f	75 12		 jne	 SHORT $L24155

; 121  : 		nACP = ::GetACP();

  000a1	8b f4		 mov	 esi, esp
  000a3	ff 15 00 00 00
	00		 call	 DWORD PTR __imp__GetACP@0
  000a9	3b f4		 cmp	 esi, esp
  000ab	e8 00 00 00 00	 call	 __RTC_CheckEsp
  000b0	89 45 f8	 mov	 DWORD PTR _nACP$[ebp], eax
$L24155:

; 122  : 
; 123  : 	return nACP;

  000b3	8b 45 f8	 mov	 eax, DWORD PTR _nACP$[ebp]

; 124  : }

  000b6	52		 push	 edx
  000b7	8b cd		 mov	 ecx, ebp
  000b9	50		 push	 eax
  000ba	8d 15 00 00 00
	00		 lea	 edx, DWORD PTR $L195281
  000c0	e8 00 00 00 00	 call	 @_RTC_CheckStackVars@8
  000c5	58		 pop	 eax
  000c6	5a		 pop	 edx
  000c7	8b 4d fc	 mov	 ecx, DWORD PTR __$ArrayPad$[ebp]
  000ca	e8 00 00 00 00	 call	 @__security_check_cookie@4
  000cf	5e		 pop	 esi
  000d0	83 c4 20	 add	 esp, 32			; 00000020H
  000d3	3b ec		 cmp	 ebp, esp
  000d5	e8 00 00 00 00	 call	 __RTC_CheckEsp
  000da	8b e5		 mov	 esp, ebp
  000dc	5d		 pop	 ebp
  000dd	c3		 ret	 0
$L195281:
  000de	01 00 00 00	 DD	 1
  000e2	00 00 00 00	 DD	 $L195280
$L195280:
  000e6	e8 ff ff ff	 DD	 -24			; ffffffe8H
  000ea	07 00 00 00	 DD	 7
  000ee	00 00 00 00	 DD	 $L195278
$L195278:
  000f2	73		 DB	 115			; 00000073H
  000f3	7a		 DB	 122			; 0000007aH
  000f4	41		 DB	 65			; 00000041H
  000f5	43		 DB	 67			; 00000043H
  000f6	50		 DB	 80			; 00000050H
  000f7	00		 DB	 0
?_AtlGetThreadACPFake@ATL@@YGIXZ ENDP			; ATL::_AtlGetThreadACPFake
; Function compile flags: /Odt /RTCsu
_TEXT	ENDS
;	COMDAT ?_AtlGetThreadACPReal@ATL@@YGIXZ
_TEXT	SEGMENT
?_AtlGetThreadACPReal@ATL@@YGIXZ PROC NEAR		; ATL::_AtlGetThreadACPReal, COMDAT

; 127  : {

  00000	55		 push	 ebp
  00001	8b ec		 mov	 ebp, esp

; 128  : 	return( CP_THREAD_ACP );

  00003	b8 03 00 00 00	 mov	 eax, 3

; 129  : }

  00008	5d		 pop	 ebp
  00009	c3		 ret	 0
?_AtlGetThreadACPReal@ATL@@YGIXZ ENDP			; ATL::_AtlGetThreadACPReal
_TEXT	ENDS
PUBLIC	?GetThisClass@CGameCtrlWnd@@SGPAUCRuntimeClass@@XZ ; CGameCtrlWnd::GetThisClass
; Function compile flags: /Odt /RTCsu
; File d:\boxgit\playbox\playbox\dev\prj\playbox\src\module\gamepanel\gamectrlwnd.cpp
_TEXT	SEGMENT
?GetThisClass@CGameCtrlWnd@@SGPAUCRuntimeClass@@XZ PROC NEAR ; CGameCtrlWnd::GetThisClass

; 15   : IMPLEMENT_DYNAMIC(CGameCtrlWnd, CBasicWnd)

  00000	55		 push	 ebp
  00001	8b ec		 mov	 ebp, esp
  00003	b8 00 00 00 00	 mov	 eax, OFFSET FLAT:?classCGameCtrlWnd@CGameCtrlWnd@@2UCRuntimeClass@@B ; CGameCtrlWnd::classCGameCtrlWnd
  00008	5d		 pop	 ebp
  00009	c3		 ret	 0
?GetThisClass@CGameCtrlWnd@@SGPAUCRuntimeClass@@XZ ENDP	; CGameCtrlWnd::GetThisClass
_TEXT	ENDS
PUBLIC	?GetRuntimeClass@CGameCtrlWnd@@UBEPAUCRuntimeClass@@XZ ; CGameCtrlWnd::GetRuntimeClass
; Function compile flags: /Odt /RTCsu
_TEXT	SEGMENT
_this$ = -4						; size = 4
?GetRuntimeClass@CGameCtrlWnd@@UBEPAUCRuntimeClass@@XZ PROC NEAR ; CGameCtrlWnd::GetRuntimeClass
; _this$ = ecx

; 15   : IMPLEMENT_DYNAMIC(CGameCtrlWnd, CBasicWnd)

  00010	55		 push	 ebp
  00011	8b ec		 mov	 ebp, esp
  00013	51		 push	 ecx
  00014	c7 45 fc cc cc
	cc cc		 mov	 DWORD PTR [ebp-4], -858993460 ; ccccccccH
  0001b	89 4d fc	 mov	 DWORD PTR _this$[ebp], ecx
  0001e	b8 00 00 00 00	 mov	 eax, OFFSET FLAT:?classCGameCtrlWnd@CGameCtrlWnd@@2UCRuntimeClass@@B ; CGameCtrlWnd::classCGameCtrlWnd
  00023	8b e5		 mov	 esp, ebp
  00025	5d		 pop	 ebp
  00026	c3		 ret	 0
?GetRuntimeClass@CGameCtrlWnd@@UBEPAUCRuntimeClass@@XZ ENDP ; CGameCtrlWnd::GetRuntimeClass
_TEXT	ENDS
PUBLIC	??_R4CGameCtrlWnd@@6B@				; CGameCtrlWnd::`RTTI Complete Object Locator'
PUBLIC	??_R0?AVCGameCtrlWnd@@@8			; CGameCtrlWnd `RTTI Type Descriptor'
PUBLIC	??_R3CGameCtrlWnd@@8				; CGameCtrlWnd::`RTTI Class Hierarchy Descriptor'
PUBLIC	??_R2CGameCtrlWnd@@8				; CGameCtrlWnd::`RTTI Base Class Array'
PUBLIC	??_R1A@?0A@A@CGameCtrlWnd@@8			; CGameCtrlWnd::`RTTI Base Class Descriptor at (0,-1,0,0)'
PUBLIC	??_R1A@?0A@A@CBasicWnd@@8			; CBasicWnd::`RTTI Base Class Descriptor at (0,-1,0,0)'
PUBLIC	??_R0?AVCBasicWnd@@@8				; CBasicWnd `RTTI Type Descriptor'
PUBLIC	??0SWF_GAME@@QAE@XZ				; SWF_GAME::SWF_GAME
PUBLIC	??1SWF_GAME@@QAE@XZ				; SWF_GAME::~SWF_GAME
PUBLIC	??_R1A@?0A@A@CWnd@@8				; CWnd::`RTTI Base Class Descriptor at (0,-1,0,0)'
PUBLIC	??_R0?AVCWnd@@@8				; CWnd `RTTI Type Descriptor'
PUBLIC	??_R1A@?0A@A@CCmdTarget@@8			; CCmdTarget::`RTTI Base Class Descriptor at (0,-1,0,0)'
PUBLIC	??_R0?AVCCmdTarget@@@8				; CCmdTarget `RTTI Type Descriptor'
PUBLIC	??_R1A@?0A@A@CObject@@8				; CObject::`RTTI Base Class Descriptor at (0,-1,0,0)'
PUBLIC	??_R0?AVCObject@@@8				; CObject `RTTI Type Descriptor'
PUBLIC	??0CGameCtrlWnd@@QAE@XZ				; CGameCtrlWnd::CGameCtrlWnd
PUBLIC	?GetMessageMap@CGameCtrlWnd@@MBEPBUAFX_MSGMAP@@XZ ; CGameCtrlWnd::GetMessageMap
PUBLIC	??_7CGameCtrlWnd@@6B@				; CGameCtrlWnd::`vftable'
PUBLIC	??_GCGameCtrlWnd@@UAEPAXI@Z			; CGameCtrlWnd::`scalar deleting destructor'
EXTRN	?GetInterfaceMap@CWnd@@MBEPBUAFX_INTERFACEMAP@@XZ:NEAR ; CWnd::GetInterfaceMap
EXTRN	??0CxSkinButton@@QAE@XZ:NEAR			; CxSkinButton::CxSkinButton
EXTRN	?EnsureStdObj@CWnd@@UAEJXZ:NEAR			; CWnd::EnsureStdObj
EXTRN	?get_accParent@CWnd@@UAEJPAPAUIDispatch@@@Z:NEAR ; CWnd::get_accParent
EXTRN	?OnCmdMsg@CCmdTarget@@UAEHIHPAXPAUAFX_CMDHANDLERINFO@@@Z:NEAR ; CCmdTarget::OnCmdMsg
EXTRN	?get_accChildCount@CWnd@@UAEJPAJ@Z:NEAR		; CWnd::get_accChildCount
EXTRN	?IsInvokeAllowed@CCmdTarget@@UAEHJ@Z:NEAR	; CCmdTarget::IsInvokeAllowed
EXTRN	?get_accChild@CWnd@@UAEJUtagVARIANT@@PAPAUIDispatch@@@Z:NEAR ; CWnd::get_accChild
EXTRN	?get_accName@CWnd@@UAEJUtagVARIANT@@PAPA_W@Z:NEAR ; CWnd::get_accName
EXTRN	?get_accValue@CWnd@@UAEJUtagVARIANT@@PAPA_W@Z:NEAR ; CWnd::get_accValue
EXTRN	?GetDispatchIID@CCmdTarget@@UAEHPAU_GUID@@@Z:NEAR ; CCmdTarget::GetDispatchIID
EXTRN	?GetTypeInfoCount@CCmdTarget@@UAEIXZ:NEAR	; CCmdTarget::GetTypeInfoCount
EXTRN	?GetTypeLibCache@CCmdTarget@@UAEPAVCTypeLibCache@@XZ:NEAR ; CCmdTarget::GetTypeLibCache
EXTRN	?get_accDescription@CWnd@@UAEJUtagVARIANT@@PAPA_W@Z:NEAR ; CWnd::get_accDescription
EXTRN	?GetTypeLib@CCmdTarget@@UAEJKPAPAUITypeLib@@@Z:NEAR ; CCmdTarget::GetTypeLib
EXTRN	?get_accRole@CWnd@@UAEJUtagVARIANT@@PAU2@@Z:NEAR ; CWnd::get_accRole
EXTRN	?get_accState@CWnd@@UAEJUtagVARIANT@@PAU2@@Z:NEAR ; CWnd::get_accState
EXTRN	?get_accHelp@CWnd@@UAEJUtagVARIANT@@PAPA_W@Z:NEAR ; CWnd::get_accHelp
EXTRN	?get_accHelpTopic@CWnd@@UAEJPAPA_WUtagVARIANT@@PAJ@Z:NEAR ; CWnd::get_accHelpTopic
EXTRN	?get_accKeyboardShortcut@CWnd@@UAEJUtagVARIANT@@PAPA_W@Z:NEAR ; CWnd::get_accKeyboardShortcut
EXTRN	?get_accFocus@CWnd@@UAEJPAUtagVARIANT@@@Z:NEAR	; CWnd::get_accFocus
EXTRN	?get_accSelection@CWnd@@UAEJPAUtagVARIANT@@@Z:NEAR ; CWnd::get_accSelection
EXTRN	?get_accDefaultAction@CWnd@@UAEJUtagVARIANT@@PAPA_W@Z:NEAR ; CWnd::get_accDefaultAction
EXTRN	?GetCommandMap@CCmdTarget@@MBEPBUAFX_OLECMDMAP@@XZ:NEAR ; CCmdTarget::GetCommandMap
EXTRN	?accSelect@CWnd@@UAEJJUtagVARIANT@@@Z:NEAR	; CWnd::accSelect
EXTRN	?accLocation@CWnd@@UAEJPAJ000UtagVARIANT@@@Z:NEAR ; CWnd::accLocation
EXTRN	?GetDispatchMap@CCmdTarget@@MBEPBUAFX_DISPMAP@@XZ:NEAR ; CCmdTarget::GetDispatchMap
EXTRN	?accNavigate@CWnd@@UAEJJUtagVARIANT@@PAU2@@Z:NEAR ; CWnd::accNavigate
EXTRN	?accHitTest@CWnd@@UAEJJJPAUtagVARIANT@@@Z:NEAR	; CWnd::accHitTest
EXTRN	?GetConnectionMap@CCmdTarget@@MBEPBUAFX_CONNECTIONMAP@@XZ:NEAR ; CCmdTarget::GetConnectionMap
EXTRN	?accDoDefaultAction@CWnd@@UAEJUtagVARIANT@@@Z:NEAR ; CWnd::accDoDefaultAction
EXTRN	?put_accName@CWnd@@UAEJUtagVARIANT@@PA_W@Z:NEAR	; CWnd::put_accName
EXTRN	?put_accValue@CWnd@@UAEJUtagVARIANT@@PA_W@Z:NEAR ; CWnd::put_accValue
EXTRN	?SetProxy@CWnd@@UAEJPAUIAccessibleProxy@@@Z:NEAR ; CWnd::SetProxy
EXTRN	?CreateAccessibleProxy@CWnd@@UAEJIJPAJ@Z:NEAR	; CWnd::CreateAccessibleProxy
EXTRN	?GetEventSinkMap@CCmdTarget@@MBEPBUAFX_EVENTSINKMAP@@XZ:NEAR ; CCmdTarget::GetEventSinkMap
EXTRN	?OnCreateAggregates@CCmdTarget@@UAEHXZ:NEAR	; CCmdTarget::OnCreateAggregates
EXTRN	?OnCommand@CWnd@@MAEHIJ@Z:NEAR			; CWnd::OnCommand
EXTRN	?GetInterfaceHook@CCmdTarget@@UAEPAUIUnknown@@PBX@Z:NEAR ; CCmdTarget::GetInterfaceHook
EXTRN	?OnNotify@CWnd@@MAEHIJPAJ@Z:NEAR		; CWnd::OnNotify
EXTRN	?GetExtraConnectionPoints@CCmdTarget@@MAEHPAVCPtrArray@@@Z:NEAR ; CCmdTarget::GetExtraConnectionPoints
EXTRN	?GetConnectionHook@CCmdTarget@@MAEPAUIConnectionPoint@@ABU_GUID@@@Z:NEAR ; CCmdTarget::GetConnectionHook
EXTRN	?PreSubclassWindow@CWnd@@UAEXXZ:NEAR		; CWnd::PreSubclassWindow
EXTRN	__imp_??0?$basic_string@DU?$char_traits@D@std@@V?$allocator@D@2@@std@@QAE@XZ:NEAR
EXTRN	?Create@CWnd@@UAEHPBD0KABUtagRECT@@PAV1@IPAUCCreateContext@@@Z:NEAR ; CWnd::Create
EXTRN	?CreateEx@CWnd@@UAEHKPBD0KHHHHPAUHWND__@@PAUHMENU__@@PAX@Z:NEAR ; CWnd::CreateEx
EXTRN	?CreateEx@CWnd@@UAEHKPBD0KABUtagRECT@@PAV1@IPAX@Z:NEAR ; CWnd::CreateEx
EXTRN	??2CObject@@SGPAXI@Z:NEAR			; CObject::operator new
EXTRN	??3CObject@@SGXPAX@Z:NEAR			; CObject::operator delete
EXTRN	__imp_??1?$basic_string@DU?$char_traits@D@std@@V?$allocator@D@2@@std@@QAE@XZ:NEAR
EXTRN	?Serialize@CObject@@UAEXAAVCArchive@@@Z:NEAR	; CObject::Serialize
EXTRN	?DestroyWindow@CWnd@@UAEHXZ:NEAR		; CWnd::DestroyWindow
EXTRN	?PreCreateWindow@CWnd@@UAEHAAUtagCREATESTRUCTA@@@Z:NEAR ; CWnd::PreCreateWindow
EXTRN	?CalcWindowRect@CWnd@@UAEXPAUtagRECT@@I@Z:NEAR	; CWnd::CalcWindowRect
EXTRN	?GetSuperWndProcAddr@CWnd@@MAEPAP6GJPAUHWND__@@IIJ@ZXZ:NEAR ; CWnd::GetSuperWndProcAddr
EXTRN	?DoDataExchange@CWnd@@MAEXPAVCDataExchange@@@Z:NEAR ; CWnd::DoDataExchange
EXTRN	?BeginModalState@CWnd@@UAEXXZ:NEAR		; CWnd::BeginModalState
EXTRN	?EndModalState@CWnd@@UAEXXZ:NEAR		; CWnd::EndModalState
EXTRN	?PreTranslateMessage@CWnd@@UAEHPAUtagMSG@@@Z:NEAR ; CWnd::PreTranslateMessage
EXTRN	?OnAmbientProperty@CWnd@@UAEHPAVCOleControlSite@@JPAUtagVARIANT@@@Z:NEAR ; CWnd::OnAmbientProperty
EXTRN	?WindowProc@CWnd@@MAEJIIJ@Z:NEAR		; CWnd::WindowProc
EXTRN	?OnWndMsg@CWnd@@MAEHIIJPAJ@Z:NEAR		; CWnd::OnWndMsg
EXTRN	?DefWindowProcA@CWnd@@MAEJIIJ@Z:NEAR		; CWnd::DefWindowProcA
EXTRN	?PostNcDestroy@CWnd@@MAEXXZ:NEAR		; CWnd::PostNcDestroy
EXTRN	?OnChildNotify@CWnd@@MAEHIIJPAJ@Z:NEAR		; CWnd::OnChildNotify
EXTRN	?CheckAutoCenter@CWnd@@UAEHXZ:NEAR		; CWnd::CheckAutoCenter
EXTRN	?AssertValid@CWnd@@UBEXXZ:NEAR			; CWnd::AssertValid
EXTRN	?Dump@CWnd@@UBEXAAVCDumpContext@@@Z:NEAR	; CWnd::Dump
EXTRN	??0CBasicWnd@@QAE@XZ:NEAR			; CBasicWnd::CBasicWnd
EXTRN	??1CBasicWnd@@UAE@XZ:NEAR			; CBasicWnd::~CBasicWnd
EXTRN	?IsFrameWnd@CWnd@@UBEHXZ:NEAR			; CWnd::IsFrameWnd
EXTRN	?OnFinalRelease@CWnd@@UAEXXZ:NEAR		; CWnd::OnFinalRelease
EXTRN	?CreateControlContainer@CWnd@@MAEHPAPAVCOleControlContainer@@@Z:NEAR ; CWnd::CreateControlContainer
EXTRN	?CreateControlSite@CWnd@@MAEHPAVCOleControlContainer@@PAPAVCOleControlSite@@IABU_GUID@@@Z:NEAR ; CWnd::CreateControlSite
EXTRN	?SetOccDialogInfo@CWnd@@MAEHPAU_AFX_OCC_DIALOG_INFO@@@Z:NEAR ; CWnd::SetOccDialogInfo
EXTRN	__except_list:DWORD
EXTRN	___CxxFrameHandler:NEAR
EXTRN	?OnToolHitTest@CWnd@@UBEHVCPoint@@PAUtagTOOLINFOA@@@Z:NEAR ; CWnd::OnToolHitTest
EXTRN	?GetScrollBarCtrl@CWnd@@UBEPAVCScrollBar@@H@Z:NEAR ; CWnd::GetScrollBarCtrl
EXTRN	??_ECGameCtrlWnd@@UAEPAXI@Z:NEAR		; CGameCtrlWnd::`vector deleting destructor'
EXTRN	?WinHelpA@CWnd@@UAEXKI@Z:NEAR			; CWnd::WinHelpA
EXTRN	?HtmlHelpA@CWnd@@UAEXKI@Z:NEAR			; CWnd::HtmlHelpA
EXTRN	??_7type_info@@6B@:QWORD			; type_info::`vftable'
EXTRN	?WinHelpInternal@CWnd@@UAEXKI@Z:NEAR		; CWnd::WinHelpInternal
EXTRN	?ContinueModal@CWnd@@UAEHXZ:NEAR		; CWnd::ContinueModal
EXTRN	?EndModalLoop@CWnd@@UAEXH@Z:NEAR		; CWnd::EndModalLoop
xdata$x	SEGMENT
$T195325 DD	0ffffffffH
	DD	FLAT:$L195310
	DD	00H
	DD	FLAT:$L195311
	DD	01H
	DD	FLAT:$L195312
	DD	02H
	DD	FLAT:$L195313
	DD	02H
	DD	FLAT:$L195314
	DD	02H
	DD	FLAT:$L195315
	DD	02H
	DD	FLAT:$L195316
	DD	02H
	DD	FLAT:$L195317
	DD	02H
	DD	FLAT:$L195318
$T195322 DD	019930520H
	DD	09H
	DD	FLAT:$T195325
	DD	2 DUP(00H)
	DD	2 DUP(00H)
xdata$x	ENDS
;	COMDAT ??_7CGameCtrlWnd@@6B@
CONST	SEGMENT
??_7CGameCtrlWnd@@6B@ DD FLAT:??_R4CGameCtrlWnd@@6B@	; CGameCtrlWnd::`vftable'
	DD	FLAT:?GetRuntimeClass@CGameCtrlWnd@@UBEPAUCRuntimeClass@@XZ
	DD	FLAT:??_ECGameCtrlWnd@@UAEPAXI@Z
	DD	FLAT:?Serialize@CObject@@UAEXAAVCArchive@@@Z
	DD	FLAT:?AssertValid@CWnd@@UBEXXZ
	DD	FLAT:?Dump@CWnd@@UBEXAAVCDumpContext@@@Z
	DD	FLAT:?OnCmdMsg@CCmdTarget@@UAEHIHPAXPAUAFX_CMDHANDLERINFO@@@Z
	DD	FLAT:?OnFinalRelease@CWnd@@UAEXXZ
	DD	FLAT:?IsInvokeAllowed@CCmdTarget@@UAEHJ@Z
	DD	FLAT:?GetDispatchIID@CCmdTarget@@UAEHPAU_GUID@@@Z
	DD	FLAT:?GetTypeInfoCount@CCmdTarget@@UAEIXZ
	DD	FLAT:?GetTypeLibCache@CCmdTarget@@UAEPAVCTypeLibCache@@XZ
	DD	FLAT:?GetTypeLib@CCmdTarget@@UAEJKPAPAUITypeLib@@@Z
	DD	FLAT:?GetMessageMap@CGameCtrlWnd@@MBEPBUAFX_MSGMAP@@XZ
	DD	FLAT:?GetCommandMap@CCmdTarget@@MBEPBUAFX_OLECMDMAP@@XZ
	DD	FLAT:?GetDispatchMap@CCmdTarget@@MBEPBUAFX_DISPMAP@@XZ
	DD	FLAT:?GetConnectionMap@CCmdTarget@@MBEPBUAFX_CONNECTIONMAP@@XZ
	DD	FLAT:?GetInterfaceMap@CWnd@@MBEPBUAFX_INTERFACEMAP@@XZ
	DD	FLAT:?GetEventSinkMap@CCmdTarget@@MBEPBUAFX_EVENTSINKMAP@@XZ
	DD	FLAT:?OnCreateAggregates@CCmdTarget@@UAEHXZ
	DD	FLAT:?GetInterfaceHook@CCmdTarget@@UAEPAUIUnknown@@PBX@Z
	DD	FLAT:?GetExtraConnectionPoints@CCmdTarget@@MAEHPAVCPtrArray@@@Z
	DD	FLAT:?GetConnectionHook@CCmdTarget@@MAEPAUIConnectionPoint@@ABU_GUID@@@Z
	DD	FLAT:?PreSubclassWindow@CWnd@@UAEXXZ
	DD	FLAT:?Create@CWnd@@UAEHPBD0KABUtagRECT@@PAV1@IPAUCCreateContext@@@Z
	DD	FLAT:?CreateEx@CWnd@@UAEHKPBD0KABUtagRECT@@PAV1@IPAX@Z
	DD	FLAT:?CreateEx@CWnd@@UAEHKPBD0KHHHHPAUHWND__@@PAUHMENU__@@PAX@Z
	DD	FLAT:?DestroyWindow@CWnd@@UAEHXZ
	DD	FLAT:?PreCreateWindow@CWnd@@UAEHAAUtagCREATESTRUCTA@@@Z
	DD	FLAT:?CalcWindowRect@CWnd@@UAEXPAUtagRECT@@I@Z
	DD	FLAT:?OnToolHitTest@CWnd@@UBEHVCPoint@@PAUtagTOOLINFOA@@@Z
	DD	FLAT:?GetScrollBarCtrl@CWnd@@UBEPAVCScrollBar@@H@Z
	DD	FLAT:?WinHelpA@CWnd@@UAEXKI@Z
	DD	FLAT:?HtmlHelpA@CWnd@@UAEXKI@Z
	DD	FLAT:?WinHelpInternal@CWnd@@UAEXKI@Z
	DD	FLAT:?ContinueModal@CWnd@@UAEHXZ
	DD	FLAT:?EndModalLoop@CWnd@@UAEXH@Z
	DD	FLAT:?EnsureStdObj@CWnd@@UAEJXZ
	DD	FLAT:?get_accParent@CWnd@@UAEJPAPAUIDispatch@@@Z
	DD	FLAT:?get_accChildCount@CWnd@@UAEJPAJ@Z
	DD	FLAT:?get_accChild@CWnd@@UAEJUtagVARIANT@@PAPAUIDispatch@@@Z
	DD	FLAT:?get_accName@CWnd@@UAEJUtagVARIANT@@PAPA_W@Z
	DD	FLAT:?get_accValue@CWnd@@UAEJUtagVARIANT@@PAPA_W@Z
	DD	FLAT:?get_accDescription@CWnd@@UAEJUtagVARIANT@@PAPA_W@Z
	DD	FLAT:?get_accRole@CWnd@@UAEJUtagVARIANT@@PAU2@@Z
	DD	FLAT:?get_accState@CWnd@@UAEJUtagVARIANT@@PAU2@@Z
	DD	FLAT:?get_accHelp@CWnd@@UAEJUtagVARIANT@@PAPA_W@Z
	DD	FLAT:?get_accHelpTopic@CWnd@@UAEJPAPA_WUtagVARIANT@@PAJ@Z
	DD	FLAT:?get_accKeyboardShortcut@CWnd@@UAEJUtagVARIANT@@PAPA_W@Z
	DD	FLAT:?get_accFocus@CWnd@@UAEJPAUtagVARIANT@@@Z
	DD	FLAT:?get_accSelection@CWnd@@UAEJPAUtagVARIANT@@@Z
	DD	FLAT:?get_accDefaultAction@CWnd@@UAEJUtagVARIANT@@PAPA_W@Z
	DD	FLAT:?accSelect@CWnd@@UAEJJUtagVARIANT@@@Z
	DD	FLAT:?accLocation@CWnd@@UAEJPAJ000UtagVARIANT@@@Z
	DD	FLAT:?accNavigate@CWnd@@UAEJJUtagVARIANT@@PAU2@@Z
	DD	FLAT:?accHitTest@CWnd@@UAEJJJPAUtagVARIANT@@@Z
	DD	FLAT:?accDoDefaultAction@CWnd@@UAEJUtagVARIANT@@@Z
	DD	FLAT:?put_accName@CWnd@@UAEJUtagVARIANT@@PA_W@Z
	DD	FLAT:?put_accValue@CWnd@@UAEJUtagVARIANT@@PA_W@Z
	DD	FLAT:?SetProxy@CWnd@@UAEJPAUIAccessibleProxy@@@Z
	DD	FLAT:?CreateAccessibleProxy@CWnd@@UAEJIJPAJ@Z
	DD	FLAT:?OnCommand@CWnd@@MAEHIJ@Z
	DD	FLAT:?OnNotify@CWnd@@MAEHIJPAJ@Z
	DD	FLAT:?GetSuperWndProcAddr@CWnd@@MAEPAP6GJPAUHWND__@@IIJ@ZXZ
	DD	FLAT:?DoDataExchange@CWnd@@MAEXPAVCDataExchange@@@Z
	DD	FLAT:?BeginModalState@CWnd@@UAEXXZ
	DD	FLAT:?EndModalState@CWnd@@UAEXXZ
	DD	FLAT:?PreTranslateMessage@CWnd@@UAEHPAUtagMSG@@@Z
	DD	FLAT:?OnAmbientProperty@CWnd@@UAEHPAVCOleControlSite@@JPAUtagVARIANT@@@Z
	DD	FLAT:?WindowProc@CWnd@@MAEJIIJ@Z
	DD	FLAT:?OnWndMsg@CWnd@@MAEHIIJPAJ@Z
	DD	FLAT:?DefWindowProcA@CWnd@@MAEJIIJ@Z
	DD	FLAT:?PostNcDestroy@CWnd@@MAEXXZ
	DD	FLAT:?OnChildNotify@CWnd@@MAEHIIJPAJ@Z
	DD	FLAT:?CheckAutoCenter@CWnd@@UAEHXZ
	DD	FLAT:?IsFrameWnd@CWnd@@UBEHXZ
	DD	FLAT:?CreateControlContainer@CWnd@@MAEHPAPAVCOleControlContainer@@@Z
	DD	FLAT:?CreateControlSite@CWnd@@MAEHPAVCOleControlContainer@@PAPAVCOleControlSite@@IABU_GUID@@@Z
	DD	FLAT:?SetOccDialogInfo@CWnd@@MAEHPAU_AFX_OCC_DIALOG_INFO@@@Z
CONST	ENDS
;	COMDAT ??_R4CGameCtrlWnd@@6B@
rdata$r	SEGMENT
??_R4CGameCtrlWnd@@6B@ DD 00H				; CGameCtrlWnd::`RTTI Complete Object Locator'
	DD	00H
	DD	00H
	DD	FLAT:??_R0?AVCGameCtrlWnd@@@8
	DD	FLAT:??_R3CGameCtrlWnd@@8
rdata$r	ENDS
;	COMDAT ??_R0?AVCGameCtrlWnd@@@8
_DATA	SEGMENT
??_R0?AVCGameCtrlWnd@@@8 DD FLAT:??_7type_info@@6B@	; CGameCtrlWnd `RTTI Type Descriptor'
	DD	00H
	DB	'.?AVCGameCtrlWnd@@', 00H
_DATA	ENDS
;	COMDAT ??_R3CGameCtrlWnd@@8
rdata$r	SEGMENT
??_R3CGameCtrlWnd@@8 DD 00H				; CGameCtrlWnd::`RTTI Class Hierarchy Descriptor'
	DD	00H
	DD	05H
	DD	FLAT:??_R2CGameCtrlWnd@@8
rdata$r	ENDS
;	COMDAT ??_R2CGameCtrlWnd@@8
rdata$r	SEGMENT
??_R2CGameCtrlWnd@@8 DD FLAT:??_R1A@?0A@A@CGameCtrlWnd@@8 ; CGameCtrlWnd::`RTTI Base Class Array'
	DD	FLAT:??_R1A@?0A@A@CBasicWnd@@8
	DD	FLAT:??_R1A@?0A@A@CWnd@@8
	DD	FLAT:??_R1A@?0A@A@CCmdTarget@@8
	DD	FLAT:??_R1A@?0A@A@CObject@@8
rdata$r	ENDS
;	COMDAT ??_R1A@?0A@A@CGameCtrlWnd@@8
rdata$r	SEGMENT
??_R1A@?0A@A@CGameCtrlWnd@@8 DD FLAT:??_R0?AVCGameCtrlWnd@@@8 ; CGameCtrlWnd::`RTTI Base Class Descriptor at (0,-1,0,0)'
	DD	04H
	DD	00H
	DD	0ffffffffH
	DD	00H
	DD	00H
rdata$r	ENDS
;	COMDAT ??_R1A@?0A@A@CBasicWnd@@8
rdata$r	SEGMENT
??_R1A@?0A@A@CBasicWnd@@8 DD FLAT:??_R0?AVCBasicWnd@@@8	; CBasicWnd::`RTTI Base Class Descriptor at (0,-1,0,0)'
	DD	03H
	DD	00H
	DD	0ffffffffH
	DD	00H
	DD	00H
rdata$r	ENDS
;	COMDAT ??_R0?AVCBasicWnd@@@8
_DATA	SEGMENT
??_R0?AVCBasicWnd@@@8 DD FLAT:??_7type_info@@6B@	; CBasicWnd `RTTI Type Descriptor'
	DD	00H
	DB	'.?AVCBasicWnd@@', 00H
_DATA	ENDS
;	COMDAT ??_R1A@?0A@A@CWnd@@8
rdata$r	SEGMENT
??_R1A@?0A@A@CWnd@@8 DD FLAT:??_R0?AVCWnd@@@8		; CWnd::`RTTI Base Class Descriptor at (0,-1,0,0)'
	DD	02H
	DD	00H
	DD	0ffffffffH
	DD	00H
	DD	00H
rdata$r	ENDS
;	COMDAT ??_R0?AVCWnd@@@8
_DATA	SEGMENT
??_R0?AVCWnd@@@8 DD FLAT:??_7type_info@@6B@		; CWnd `RTTI Type Descriptor'
	DD	00H
	DB	'.?AVCWnd@@', 00H
_DATA	ENDS
;	COMDAT ??_R1A@?0A@A@CCmdTarget@@8
rdata$r	SEGMENT
??_R1A@?0A@A@CCmdTarget@@8 DD FLAT:??_R0?AVCCmdTarget@@@8 ; CCmdTarget::`RTTI Base Class Descriptor at (0,-1,0,0)'
	DD	01H
	DD	00H
	DD	0ffffffffH
	DD	00H
	DD	00H
rdata$r	ENDS
;	COMDAT ??_R0?AVCCmdTarget@@@8
_DATA	SEGMENT
??_R0?AVCCmdTarget@@@8 DD FLAT:??_7type_info@@6B@	; CCmdTarget `RTTI Type Descriptor'
	DD	00H
	DB	'.?AVCCmdTarget@@', 00H
_DATA	ENDS
;	COMDAT ??_R1A@?0A@A@CObject@@8
rdata$r	SEGMENT
??_R1A@?0A@A@CObject@@8 DD FLAT:??_R0?AVCObject@@@8	; CObject::`RTTI Base Class Descriptor at (0,-1,0,0)'
	DD	00H
	DD	00H
	DD	0ffffffffH
	DD	00H
	DD	00H
rdata$r	ENDS
;	COMDAT ??_R0?AVCObject@@@8
_DATA	SEGMENT
??_R0?AVCObject@@@8 DD FLAT:??_7type_info@@6B@		; CObject `RTTI Type Descriptor'
	DD	00H
	DB	'.?AVCObject@@', 00H
; Function compile flags: /Odt /RTCsu
_DATA	ENDS
_TEXT	SEGMENT
tv161 = -88						; size = 4
tv153 = -84						; size = 4
tv145 = -80						; size = 4
tv137 = -76						; size = 4
tv129 = -72						; size = 4
tv89 = -68						; size = 4
$T195307 = -64						; size = 4
$T195306 = -60						; size = 4
$T195303 = -56						; size = 4
$T195302 = -52						; size = 4
$T195299 = -48						; size = 4
$T195298 = -44						; size = 4
$T195295 = -40						; size = 4
$T195294 = -36						; size = 4
$T195291 = -32						; size = 4
$T195290 = -28						; size = 4
$T195287 = -24						; size = 4
$T195286 = -20						; size = 4
_this$ = -16						; size = 4
__$EHRec$ = -12						; size = 12
??0CGameCtrlWnd@@QAE@XZ PROC NEAR			; CGameCtrlWnd::CGameCtrlWnd
; _this$ = ecx

; 17   : {

  00030	55		 push	 ebp
  00031	8b ec		 mov	 ebp, esp
  00033	6a ff		 push	 -1
  00035	68 00 00 00 00	 push	 __ehhandler$??0CGameCtrlWnd@@QAE@XZ
  0003a	64 a1 00 00 00
	00		 mov	 eax, DWORD PTR fs:__except_list
  00040	50		 push	 eax
  00041	64 89 25 00 00
	00 00		 mov	 DWORD PTR fs:__except_list, esp
  00048	83 ec 4c	 sub	 esp, 76			; 0000004cH
  0004b	56		 push	 esi
  0004c	57		 push	 edi
  0004d	51		 push	 ecx
  0004e	8d 7d a8	 lea	 edi, DWORD PTR [ebp-88]
  00051	b9 13 00 00 00	 mov	 ecx, 19			; 00000013H
  00056	b8 cc cc cc cc	 mov	 eax, -858993460		; ccccccccH
  0005b	f3 ab		 rep stosd
  0005d	59		 pop	 ecx
  0005e	89 4d f0	 mov	 DWORD PTR _this$[ebp], ecx
  00061	8b 4d f0	 mov	 ecx, DWORD PTR _this$[ebp]
  00064	e8 00 00 00 00	 call	 ??0CBasicWnd@@QAE@XZ	; CBasicWnd::CBasicWnd
  00069	c7 45 fc 00 00
	00 00		 mov	 DWORD PTR __$EHRec$[ebp+8], 0
  00070	8b 45 f0	 mov	 eax, DWORD PTR _this$[ebp]
  00073	c7 00 00 00 00
	00		 mov	 DWORD PTR [eax], OFFSET FLAT:??_7CGameCtrlWnd@@6B@
  00079	8b 4d f0	 mov	 ecx, DWORD PTR _this$[ebp]
  0007c	83 c1 54	 add	 ecx, 84			; 00000054H
  0007f	8b f4		 mov	 esi, esp
  00081	ff 15 00 00 00
	00		 call	 DWORD PTR __imp_??0?$basic_string@DU?$char_traits@D@std@@V?$allocator@D@2@@std@@QAE@XZ
  00087	3b f4		 cmp	 esi, esp
  00089	e8 00 00 00 00	 call	 __RTC_CheckEsp
  0008e	c6 45 fc 01	 mov	 BYTE PTR __$EHRec$[ebp+8], 1
  00092	8b 4d f0	 mov	 ecx, DWORD PTR _this$[ebp]
  00095	81 c1 88 00 00
	00		 add	 ecx, 136		; 00000088H
  0009b	e8 00 00 00 00	 call	 ??0SWF_GAME@@QAE@XZ
  000a0	c6 45 fc 02	 mov	 BYTE PTR __$EHRec$[ebp+8], 2

; 18   : 	m_pBtnRePlay		    = new CxSkinButton();

  000a4	68 24 01 00 00	 push	 292			; 00000124H
  000a9	e8 00 00 00 00	 call	 ??2CObject@@SGPAXI@Z	; CObject::operator new
  000ae	89 45 e8	 mov	 DWORD PTR $T195287[ebp], eax
  000b1	c6 45 fc 03	 mov	 BYTE PTR __$EHRec$[ebp+8], 3
  000b5	83 7d e8 00	 cmp	 DWORD PTR $T195287[ebp], 0
  000b9	74 0d		 je	 SHORT $L195288
  000bb	8b 4d e8	 mov	 ecx, DWORD PTR $T195287[ebp]
  000be	e8 00 00 00 00	 call	 ??0CxSkinButton@@QAE@XZ	; CxSkinButton::CxSkinButton
  000c3	89 45 bc	 mov	 DWORD PTR tv89[ebp], eax
  000c6	eb 07		 jmp	 SHORT $L195289
$L195288:
  000c8	c7 45 bc 00 00
	00 00		 mov	 DWORD PTR tv89[ebp], 0
$L195289:
  000cf	8b 4d bc	 mov	 ecx, DWORD PTR tv89[ebp]
  000d2	89 4d ec	 mov	 DWORD PTR $T195286[ebp], ecx
  000d5	c6 45 fc 02	 mov	 BYTE PTR __$EHRec$[ebp+8], 2
  000d9	8b 55 f0	 mov	 edx, DWORD PTR _this$[ebp]
  000dc	8b 45 ec	 mov	 eax, DWORD PTR $T195286[ebp]
  000df	89 42 70	 mov	 DWORD PTR [edx+112], eax

; 19   : 	m_pBtnToFullScreen		= new CxSkinButton();

  000e2	68 24 01 00 00	 push	 292			; 00000124H
  000e7	e8 00 00 00 00	 call	 ??2CObject@@SGPAXI@Z	; CObject::operator new
  000ec	89 45 e0	 mov	 DWORD PTR $T195291[ebp], eax
  000ef	c6 45 fc 04	 mov	 BYTE PTR __$EHRec$[ebp+8], 4
  000f3	83 7d e0 00	 cmp	 DWORD PTR $T195291[ebp], 0
  000f7	74 0d		 je	 SHORT $L195292
  000f9	8b 4d e0	 mov	 ecx, DWORD PTR $T195291[ebp]
  000fc	e8 00 00 00 00	 call	 ??0CxSkinButton@@QAE@XZ	; CxSkinButton::CxSkinButton
  00101	89 45 b8	 mov	 DWORD PTR tv129[ebp], eax
  00104	eb 07		 jmp	 SHORT $L195293
$L195292:
  00106	c7 45 b8 00 00
	00 00		 mov	 DWORD PTR tv129[ebp], 0
$L195293:
  0010d	8b 4d b8	 mov	 ecx, DWORD PTR tv129[ebp]
  00110	89 4d e4	 mov	 DWORD PTR $T195290[ebp], ecx
  00113	c6 45 fc 02	 mov	 BYTE PTR __$EHRec$[ebp+8], 2
  00117	8b 55 f0	 mov	 edx, DWORD PTR _this$[ebp]
  0011a	8b 45 e4	 mov	 eax, DWORD PTR $T195290[ebp]
  0011d	89 42 7c	 mov	 DWORD PTR [edx+124], eax

; 20   : 	m_pBtnExitFullScreen	= new CxSkinButton();

  00120	68 24 01 00 00	 push	 292			; 00000124H
  00125	e8 00 00 00 00	 call	 ??2CObject@@SGPAXI@Z	; CObject::operator new
  0012a	89 45 d8	 mov	 DWORD PTR $T195295[ebp], eax
  0012d	c6 45 fc 05	 mov	 BYTE PTR __$EHRec$[ebp+8], 5
  00131	83 7d d8 00	 cmp	 DWORD PTR $T195295[ebp], 0
  00135	74 0d		 je	 SHORT $L195296
  00137	8b 4d d8	 mov	 ecx, DWORD PTR $T195295[ebp]
  0013a	e8 00 00 00 00	 call	 ??0CxSkinButton@@QAE@XZ	; CxSkinButton::CxSkinButton
  0013f	89 45 b4	 mov	 DWORD PTR tv137[ebp], eax
  00142	eb 07		 jmp	 SHORT $L195297
$L195296:
  00144	c7 45 b4 00 00
	00 00		 mov	 DWORD PTR tv137[ebp], 0
$L195297:
  0014b	8b 4d b4	 mov	 ecx, DWORD PTR tv137[ebp]
  0014e	89 4d dc	 mov	 DWORD PTR $T195294[ebp], ecx
  00151	c6 45 fc 02	 mov	 BYTE PTR __$EHRec$[ebp+8], 2
  00155	8b 55 f0	 mov	 edx, DWORD PTR _this$[ebp]
  00158	8b 45 dc	 mov	 eax, DWORD PTR $T195294[ebp]
  0015b	89 82 80 00 00
	00		 mov	 DWORD PTR [edx+128], eax

; 21   : 	m_pBtnMute				= new CxSkinButton();

  00161	68 24 01 00 00	 push	 292			; 00000124H
  00166	e8 00 00 00 00	 call	 ??2CObject@@SGPAXI@Z	; CObject::operator new
  0016b	89 45 d0	 mov	 DWORD PTR $T195299[ebp], eax
  0016e	c6 45 fc 06	 mov	 BYTE PTR __$EHRec$[ebp+8], 6
  00172	83 7d d0 00	 cmp	 DWORD PTR $T195299[ebp], 0
  00176	74 0d		 je	 SHORT $L195300
  00178	8b 4d d0	 mov	 ecx, DWORD PTR $T195299[ebp]
  0017b	e8 00 00 00 00	 call	 ??0CxSkinButton@@QAE@XZ	; CxSkinButton::CxSkinButton
  00180	89 45 b0	 mov	 DWORD PTR tv145[ebp], eax
  00183	eb 07		 jmp	 SHORT $L195301
$L195300:
  00185	c7 45 b0 00 00
	00 00		 mov	 DWORD PTR tv145[ebp], 0
$L195301:
  0018c	8b 4d b0	 mov	 ecx, DWORD PTR tv145[ebp]
  0018f	89 4d d4	 mov	 DWORD PTR $T195298[ebp], ecx
  00192	c6 45 fc 02	 mov	 BYTE PTR __$EHRec$[ebp+8], 2
  00196	8b 55 f0	 mov	 edx, DWORD PTR _this$[ebp]
  00199	8b 45 d4	 mov	 eax, DWORD PTR $T195298[ebp]
  0019c	89 42 74	 mov	 DWORD PTR [edx+116], eax

; 22   : 	m_pBtnUnMute			= new CxSkinButton();

  0019f	68 24 01 00 00	 push	 292			; 00000124H
  001a4	e8 00 00 00 00	 call	 ??2CObject@@SGPAXI@Z	; CObject::operator new
  001a9	89 45 c8	 mov	 DWORD PTR $T195303[ebp], eax
  001ac	c6 45 fc 07	 mov	 BYTE PTR __$EHRec$[ebp+8], 7
  001b0	83 7d c8 00	 cmp	 DWORD PTR $T195303[ebp], 0
  001b4	74 0d		 je	 SHORT $L195304
  001b6	8b 4d c8	 mov	 ecx, DWORD PTR $T195303[ebp]
  001b9	e8 00 00 00 00	 call	 ??0CxSkinButton@@QAE@XZ	; CxSkinButton::CxSkinButton
  001be	89 45 ac	 mov	 DWORD PTR tv153[ebp], eax
  001c1	eb 07		 jmp	 SHORT $L195305
$L195304:
  001c3	c7 45 ac 00 00
	00 00		 mov	 DWORD PTR tv153[ebp], 0
$L195305:
  001ca	8b 4d ac	 mov	 ecx, DWORD PTR tv153[ebp]
  001cd	89 4d cc	 mov	 DWORD PTR $T195302[ebp], ecx
  001d0	c6 45 fc 02	 mov	 BYTE PTR __$EHRec$[ebp+8], 2
  001d4	8b 55 f0	 mov	 edx, DWORD PTR _this$[ebp]
  001d7	8b 45 cc	 mov	 eax, DWORD PTR $T195302[ebp]
  001da	89 42 78	 mov	 DWORD PTR [edx+120], eax

; 23   : 	m_pBtnCut		        = new CxSkinButton();	

  001dd	68 24 01 00 00	 push	 292			; 00000124H
  001e2	e8 00 00 00 00	 call	 ??2CObject@@SGPAXI@Z	; CObject::operator new
  001e7	89 45 c0	 mov	 DWORD PTR $T195307[ebp], eax
  001ea	c6 45 fc 08	 mov	 BYTE PTR __$EHRec$[ebp+8], 8
  001ee	83 7d c0 00	 cmp	 DWORD PTR $T195307[ebp], 0
  001f2	74 0d		 je	 SHORT $L195308
  001f4	8b 4d c0	 mov	 ecx, DWORD PTR $T195307[ebp]
  001f7	e8 00 00 00 00	 call	 ??0CxSkinButton@@QAE@XZ	; CxSkinButton::CxSkinButton
  001fc	89 45 a8	 mov	 DWORD PTR tv161[ebp], eax
  001ff	eb 07		 jmp	 SHORT $L195309
$L195308:
  00201	c7 45 a8 00 00
	00 00		 mov	 DWORD PTR tv161[ebp], 0
$L195309:
  00208	8b 4d a8	 mov	 ecx, DWORD PTR tv161[ebp]
  0020b	89 4d c4	 mov	 DWORD PTR $T195306[ebp], ecx
  0020e	c6 45 fc 02	 mov	 BYTE PTR __$EHRec$[ebp+8], 2
  00212	8b 55 f0	 mov	 edx, DWORD PTR _this$[ebp]
  00215	8b 45 c4	 mov	 eax, DWORD PTR $T195306[ebp]
  00218	89 82 84 00 00
	00		 mov	 DWORD PTR [edx+132], eax

; 24   : }

  0021e	c7 45 fc ff ff
	ff ff		 mov	 DWORD PTR __$EHRec$[ebp+8], -1
  00225	8b 45 f0	 mov	 eax, DWORD PTR _this$[ebp]
  00228	8b 4d f4	 mov	 ecx, DWORD PTR __$EHRec$[ebp]
  0022b	64 89 0d 00 00
	00 00		 mov	 DWORD PTR fs:__except_list, ecx
  00232	5f		 pop	 edi
  00233	5e		 pop	 esi
  00234	83 c4 58	 add	 esp, 88			; 00000058H
  00237	3b ec		 cmp	 ebp, esp
  00239	e8 00 00 00 00	 call	 __RTC_CheckEsp
  0023e	8b e5		 mov	 esp, ebp
  00240	5d		 pop	 ebp
  00241	c3		 ret	 0
_TEXT	ENDS
text$x	SEGMENT
$L195310:
  00000	8b 4d f0	 mov	 ecx, DWORD PTR _this$[ebp]
  00003	e9 00 00 00 00	 jmp	 ??1CBasicWnd@@UAE@XZ	; CBasicWnd::~CBasicWnd
$L195311:
  00008	8b 4d f0	 mov	 ecx, DWORD PTR _this$[ebp]
  0000b	83 c1 54	 add	 ecx, 84			; 00000054H
  0000e	8b f4		 mov	 esi, esp
  00010	ff 15 00 00 00
	00		 call	 DWORD PTR __imp_??1?$basic_string@DU?$char_traits@D@std@@V?$allocator@D@2@@std@@QAE@XZ
  00016	3b f4		 cmp	 esi, esp
  00018	e9 00 00 00 00	 jmp	 __RTC_CheckEsp
$L195312:
  0001d	8b 4d f0	 mov	 ecx, DWORD PTR _this$[ebp]
  00020	81 c1 88 00 00
	00		 add	 ecx, 136		; 00000088H
  00026	e9 00 00 00 00	 jmp	 ??1SWF_GAME@@QAE@XZ
$L195313:
  0002b	8b 45 e8	 mov	 eax, DWORD PTR $T195287[ebp]
  0002e	50		 push	 eax
  0002f	e8 00 00 00 00	 call	 ??3CObject@@SGXPAX@Z	; CObject::operator delete
  00034	c3		 ret	 0
$L195314:
  00035	8b 45 e0	 mov	 eax, DWORD PTR $T195291[ebp]
  00038	50		 push	 eax
  00039	e8 00 00 00 00	 call	 ??3CObject@@SGXPAX@Z	; CObject::operator delete
  0003e	c3		 ret	 0
$L195315:
  0003f	8b 45 d8	 mov	 eax, DWORD PTR $T195295[ebp]
  00042	50		 push	 eax
  00043	e8 00 00 00 00	 call	 ??3CObject@@SGXPAX@Z	; CObject::operator delete
  00048	c3		 ret	 0
$L195316:
  00049	8b 45 d0	 mov	 eax, DWORD PTR $T195299[ebp]
  0004c	50		 push	 eax
  0004d	e8 00 00 00 00	 call	 ??3CObject@@SGXPAX@Z	; CObject::operator delete
  00052	c3		 ret	 0
$L195317:
  00053	8b 45 c8	 mov	 eax, DWORD PTR $T195303[ebp]
  00056	50		 push	 eax
  00057	e8 00 00 00 00	 call	 ??3CObject@@SGXPAX@Z	; CObject::operator delete
  0005c	c3		 ret	 0
$L195318:
  0005d	8b 45 c0	 mov	 eax, DWORD PTR $T195307[ebp]
  00060	50		 push	 eax
  00061	e8 00 00 00 00	 call	 ??3CObject@@SGXPAX@Z	; CObject::operator delete
  00066	c3		 ret	 0
__ehhandler$??0CGameCtrlWnd@@QAE@XZ:
  00067	b8 00 00 00 00	 mov	 eax, OFFSET FLAT:$T195322
  0006c	e9 00 00 00 00	 jmp	 ___CxxFrameHandler
text$x	ENDS
??0CGameCtrlWnd@@QAE@XZ ENDP				; CGameCtrlWnd::CGameCtrlWnd
PUBLIC	??1CGameCtrlWnd@@UAE@XZ				; CGameCtrlWnd::~CGameCtrlWnd
; Function compile flags: /Odt /RTCsu
;	COMDAT ??_GCGameCtrlWnd@@UAEPAXI@Z
_TEXT	SEGMENT
_this$ = -4						; size = 4
___flags$ = 8						; size = 4
??_GCGameCtrlWnd@@UAEPAXI@Z PROC NEAR			; CGameCtrlWnd::`scalar deleting destructor', COMDAT
; _this$ = ecx
  00000	55		 push	 ebp
  00001	8b ec		 mov	 ebp, esp
  00003	51		 push	 ecx
  00004	c7 45 fc cc cc
	cc cc		 mov	 DWORD PTR [ebp-4], -858993460 ; ccccccccH
  0000b	89 4d fc	 mov	 DWORD PTR _this$[ebp], ecx
  0000e	8b 4d fc	 mov	 ecx, DWORD PTR _this$[ebp]
  00011	e8 00 00 00 00	 call	 ??1CGameCtrlWnd@@UAE@XZ	; CGameCtrlWnd::~CGameCtrlWnd
  00016	8b 45 08	 mov	 eax, DWORD PTR ___flags$[ebp]
  00019	83 e0 01	 and	 eax, 1
  0001c	74 09		 je	 SHORT $L194226
  0001e	8b 4d fc	 mov	 ecx, DWORD PTR _this$[ebp]
  00021	51		 push	 ecx
  00022	e8 00 00 00 00	 call	 ??3CObject@@SGXPAX@Z	; CObject::operator delete
$L194226:
  00027	8b 45 fc	 mov	 eax, DWORD PTR _this$[ebp]
  0002a	83 c4 04	 add	 esp, 4
  0002d	3b ec		 cmp	 ebp, esp
  0002f	e8 00 00 00 00	 call	 __RTC_CheckEsp
  00034	8b e5		 mov	 esp, ebp
  00036	5d		 pop	 ebp
  00037	c2 04 00	 ret	 4
??_GCGameCtrlWnd@@UAEPAXI@Z ENDP			; CGameCtrlWnd::`scalar deleting destructor'
_TEXT	ENDS
;	COMDAT xdata$x
xdata$x	SEGMENT
$T195337 DD	0ffffffffH
	DD	FLAT:$L195329
	DD	00H
	DD	FLAT:$L195330
	DD	01H
	DD	FLAT:$L195331
	DD	02H
	DD	FLAT:$L195332
$T195335 DD	019930520H
	DD	04H
	DD	FLAT:$T195337
	DD	2 DUP(00H)
	DD	2 DUP(00H)
; Function compile flags: /Odt /RTCsu
xdata$x	ENDS
;	COMDAT ??0SWF_GAME@@QAE@XZ
_TEXT	SEGMENT
_this$ = -16						; size = 4
__$EHRec$ = -12						; size = 12
??0SWF_GAME@@QAE@XZ PROC NEAR				; SWF_GAME::SWF_GAME, COMDAT
; _this$ = ecx
  00000	55		 push	 ebp
  00001	8b ec		 mov	 ebp, esp
  00003	6a ff		 push	 -1
  00005	68 00 00 00 00	 push	 __ehhandler$??0SWF_GAME@@QAE@XZ
  0000a	64 a1 00 00 00
	00		 mov	 eax, DWORD PTR fs:__except_list
  00010	50		 push	 eax
  00011	64 89 25 00 00
	00 00		 mov	 DWORD PTR fs:__except_list, esp
  00018	51		 push	 ecx
  00019	56		 push	 esi
  0001a	c7 45 f0 cc cc
	cc cc		 mov	 DWORD PTR [ebp-16], -858993460 ; ccccccccH
  00021	89 4d f0	 mov	 DWORD PTR _this$[ebp], ecx
  00024	8b f4		 mov	 esi, esp
  00026	8b 4d f0	 mov	 ecx, DWORD PTR _this$[ebp]
  00029	ff 15 00 00 00
	00		 call	 DWORD PTR __imp_??0?$basic_string@DU?$char_traits@D@std@@V?$allocator@D@2@@std@@QAE@XZ
  0002f	3b f4		 cmp	 esi, esp
  00031	e8 00 00 00 00	 call	 __RTC_CheckEsp
  00036	c7 45 fc 00 00
	00 00		 mov	 DWORD PTR __$EHRec$[ebp+8], 0
  0003d	8b 4d f0	 mov	 ecx, DWORD PTR _this$[ebp]
  00040	83 c1 1c	 add	 ecx, 28			; 0000001cH
  00043	8b f4		 mov	 esi, esp
  00045	ff 15 00 00 00
	00		 call	 DWORD PTR __imp_??0?$basic_string@DU?$char_traits@D@std@@V?$allocator@D@2@@std@@QAE@XZ
  0004b	3b f4		 cmp	 esi, esp
  0004d	e8 00 00 00 00	 call	 __RTC_CheckEsp
  00052	c6 45 fc 01	 mov	 BYTE PTR __$EHRec$[ebp+8], 1
  00056	8b 4d f0	 mov	 ecx, DWORD PTR _this$[ebp]
  00059	83 c1 38	 add	 ecx, 56			; 00000038H
  0005c	8b f4		 mov	 esi, esp
  0005e	ff 15 00 00 00
	00		 call	 DWORD PTR __imp_??0?$basic_string@DU?$char_traits@D@std@@V?$allocator@D@2@@std@@QAE@XZ
  00064	3b f4		 cmp	 esi, esp
  00066	e8 00 00 00 00	 call	 __RTC_CheckEsp
  0006b	c6 45 fc 02	 mov	 BYTE PTR __$EHRec$[ebp+8], 2
  0006f	8b 4d f0	 mov	 ecx, DWORD PTR _this$[ebp]
  00072	83 c1 54	 add	 ecx, 84			; 00000054H
  00075	8b f4		 mov	 esi, esp
  00077	ff 15 00 00 00
	00		 call	 DWORD PTR __imp_??0?$basic_string@DU?$char_traits@D@std@@V?$allocator@D@2@@std@@QAE@XZ
  0007d	3b f4		 cmp	 esi, esp
  0007f	e8 00 00 00 00	 call	 __RTC_CheckEsp
  00084	c6 45 fc 03	 mov	 BYTE PTR __$EHRec$[ebp+8], 3
  00088	8b 4d f0	 mov	 ecx, DWORD PTR _this$[ebp]
  0008b	83 c1 70	 add	 ecx, 112		; 00000070H
  0008e	8b f4		 mov	 esi, esp
  00090	ff 15 00 00 00
	00		 call	 DWORD PTR __imp_??0?$basic_string@DU?$char_traits@D@std@@V?$allocator@D@2@@std@@QAE@XZ
  00096	3b f4		 cmp	 esi, esp
  00098	e8 00 00 00 00	 call	 __RTC_CheckEsp
  0009d	c7 45 fc ff ff
	ff ff		 mov	 DWORD PTR __$EHRec$[ebp+8], -1
  000a4	8b 45 f0	 mov	 eax, DWORD PTR _this$[ebp]
  000a7	8b 4d f4	 mov	 ecx, DWORD PTR __$EHRec$[ebp]
  000aa	64 89 0d 00 00
	00 00		 mov	 DWORD PTR fs:__except_list, ecx
  000b1	5e		 pop	 esi
  000b2	83 c4 10	 add	 esp, 16			; 00000010H
  000b5	3b ec		 cmp	 ebp, esp
  000b7	e8 00 00 00 00	 call	 __RTC_CheckEsp
  000bc	8b e5		 mov	 esp, ebp
  000be	5d		 pop	 ebp
  000bf	c3		 ret	 0
_TEXT	ENDS
;	COMDAT text$x
text$x	SEGMENT
$L195329:
  00000	8b f4		 mov	 esi, esp
  00002	8b 4d f0	 mov	 ecx, DWORD PTR _this$[ebp]
  00005	ff 15 00 00 00
	00		 call	 DWORD PTR __imp_??1?$basic_string@DU?$char_traits@D@std@@V?$allocator@D@2@@std@@QAE@XZ
  0000b	3b f4		 cmp	 esi, esp
  0000d	e9 00 00 00 00	 jmp	 __RTC_CheckEsp
$L195330:
  00012	8b 4d f0	 mov	 ecx, DWORD PTR _this$[ebp]
  00015	83 c1 1c	 add	 ecx, 28			; 0000001cH
  00018	8b f4		 mov	 esi, esp
  0001a	ff 15 00 00 00
	00		 call	 DWORD PTR __imp_??1?$basic_string@DU?$char_traits@D@std@@V?$allocator@D@2@@std@@QAE@XZ
  00020	3b f4		 cmp	 esi, esp
  00022	e9 00 00 00 00	 jmp	 __RTC_CheckEsp
$L195331:
  00027	8b 4d f0	 mov	 ecx, DWORD PTR _this$[ebp]
  0002a	83 c1 38	 add	 ecx, 56			; 00000038H
  0002d	8b f4		 mov	 esi, esp
  0002f	ff 15 00 00 00
	00		 call	 DWORD PTR __imp_??1?$basic_string@DU?$char_traits@D@std@@V?$allocator@D@2@@std@@QAE@XZ
  00035	3b f4		 cmp	 esi, esp
  00037	e9 00 00 00 00	 jmp	 __RTC_CheckEsp
$L195332:
  0003c	8b 4d f0	 mov	 ecx, DWORD PTR _this$[ebp]
  0003f	83 c1 54	 add	 ecx, 84			; 00000054H
  00042	8b f4		 mov	 esi, esp
  00044	ff 15 00 00 00
	00		 call	 DWORD PTR __imp_??1?$basic_string@DU?$char_traits@D@std@@V?$allocator@D@2@@std@@QAE@XZ
  0004a	3b f4		 cmp	 esi, esp
  0004c	e9 00 00 00 00	 jmp	 __RTC_CheckEsp
__ehhandler$??0SWF_GAME@@QAE@XZ:
  00051	b8 00 00 00 00	 mov	 eax, OFFSET FLAT:$T195335
  00056	e9 00 00 00 00	 jmp	 ___CxxFrameHandler
text$x	ENDS
??0SWF_GAME@@QAE@XZ ENDP				; SWF_GAME::SWF_GAME
;	COMDAT xdata$x
xdata$x	SEGMENT
$T195349 DD	0ffffffffH
	DD	FLAT:$L195341
	DD	00H
	DD	FLAT:$L195342
	DD	01H
	DD	FLAT:$L195343
	DD	02H
	DD	FLAT:$L195344
$T195347 DD	019930520H
	DD	04H
	DD	FLAT:$T195349
	DD	2 DUP(00H)
	DD	2 DUP(00H)
; Function compile flags: /Odt /RTCsu
xdata$x	ENDS
;	COMDAT ??1SWF_GAME@@QAE@XZ
_TEXT	SEGMENT
_this$ = -16						; size = 4
__$EHRec$ = -12						; size = 12
??1SWF_GAME@@QAE@XZ PROC NEAR				; SWF_GAME::~SWF_GAME, COMDAT
; _this$ = ecx
  00000	55		 push	 ebp
  00001	8b ec		 mov	 ebp, esp
  00003	6a ff		 push	 -1
  00005	68 00 00 00 00	 push	 __ehhandler$??1SWF_GAME@@QAE@XZ
  0000a	64 a1 00 00 00
	00		 mov	 eax, DWORD PTR fs:__except_list
  00010	50		 push	 eax
  00011	64 89 25 00 00
	00 00		 mov	 DWORD PTR fs:__except_list, esp
  00018	51		 push	 ecx
  00019	56		 push	 esi
  0001a	c7 45 f0 cc cc
	cc cc		 mov	 DWORD PTR [ebp-16], -858993460 ; ccccccccH
  00021	89 4d f0	 mov	 DWORD PTR _this$[ebp], ecx
  00024	c7 45 fc 03 00
	00 00		 mov	 DWORD PTR __$EHRec$[ebp+8], 3
  0002b	8b 4d f0	 mov	 ecx, DWORD PTR _this$[ebp]
  0002e	83 c1 70	 add	 ecx, 112		; 00000070H
  00031	8b f4		 mov	 esi, esp
  00033	ff 15 00 00 00
	00		 call	 DWORD PTR __imp_??1?$basic_string@DU?$char_traits@D@std@@V?$allocator@D@2@@std@@QAE@XZ
  00039	3b f4		 cmp	 esi, esp
  0003b	e8 00 00 00 00	 call	 __RTC_CheckEsp
  00040	c6 45 fc 02	 mov	 BYTE PTR __$EHRec$[ebp+8], 2
  00044	8b 4d f0	 mov	 ecx, DWORD PTR _this$[ebp]
  00047	83 c1 54	 add	 ecx, 84			; 00000054H
  0004a	8b f4		 mov	 esi, esp
  0004c	ff 15 00 00 00
	00		 call	 DWORD PTR __imp_??1?$basic_string@DU?$char_traits@D@std@@V?$allocator@D@2@@std@@QAE@XZ
  00052	3b f4		 cmp	 esi, esp
  00054	e8 00 00 00 00	 call	 __RTC_CheckEsp
  00059	c6 45 fc 01	 mov	 BYTE PTR __$EHRec$[ebp+8], 1
  0005d	8b 4d f0	 mov	 ecx, DWORD PTR _this$[ebp]
  00060	83 c1 38	 add	 ecx, 56			; 00000038H
  00063	8b f4		 mov	 esi, esp
  00065	ff 15 00 00 00
	00		 call	 DWORD PTR __imp_??1?$basic_string@DU?$char_traits@D@std@@V?$allocator@D@2@@std@@QAE@XZ
  0006b	3b f4		 cmp	 esi, esp
  0006d	e8 00 00 00 00	 call	 __RTC_CheckEsp
  00072	c6 45 fc 00	 mov	 BYTE PTR __$EHRec$[ebp+8], 0
  00076	8b 4d f0	 mov	 ecx, DWORD PTR _this$[ebp]
  00079	83 c1 1c	 add	 ecx, 28			; 0000001cH
  0007c	8b f4		 mov	 esi, esp
  0007e	ff 15 00 00 00
	00		 call	 DWORD PTR __imp_??1?$basic_string@DU?$char_traits@D@std@@V?$allocator@D@2@@std@@QAE@XZ
  00084	3b f4		 cmp	 esi, esp
  00086	e8 00 00 00 00	 call	 __RTC_CheckEsp
  0008b	c7 45 fc ff ff
	ff ff		 mov	 DWORD PTR __$EHRec$[ebp+8], -1
  00092	8b f4		 mov	 esi, esp
  00094	8b 4d f0	 mov	 ecx, DWORD PTR _this$[ebp]
  00097	ff 15 00 00 00
	00		 call	 DWORD PTR __imp_??1?$basic_string@DU?$char_traits@D@std@@V?$allocator@D@2@@std@@QAE@XZ
  0009d	3b f4		 cmp	 esi, esp
  0009f	e8 00 00 00 00	 call	 __RTC_CheckEsp
  000a4	8b 4d f4	 mov	 ecx, DWORD PTR __$EHRec$[ebp]
  000a7	64 89 0d 00 00
	00 00		 mov	 DWORD PTR fs:__except_list, ecx
  000ae	5e		 pop	 esi
  000af	83 c4 10	 add	 esp, 16			; 00000010H
  000b2	3b ec		 cmp	 ebp, esp
  000b4	e8 00 00 00 00	 call	 __RTC_CheckEsp
  000b9	8b e5		 mov	 esp, ebp
  000bb	5d		 pop	 ebp
  000bc	c3		 ret	 0
_TEXT	ENDS
;	COMDAT text$x
text$x	SEGMENT
$L195341:
  00000	8b f4		 mov	 esi, esp
  00002	8b 4d f0	 mov	 ecx, DWORD PTR _this$[ebp]
  00005	ff 15 00 00 00
	00		 call	 DWORD PTR __imp_??1?$basic_string@DU?$char_traits@D@std@@V?$allocator@D@2@@std@@QAE@XZ
  0000b	3b f4		 cmp	 esi, esp
  0000d	e9 00 00 00 00	 jmp	 __RTC_CheckEsp
$L195342:
  00012	8b 4d f0	 mov	 ecx, DWORD PTR _this$[ebp]
  00015	83 c1 1c	 add	 ecx, 28			; 0000001cH
  00018	8b f4		 mov	 esi, esp
  0001a	ff 15 00 00 00
	00		 call	 DWORD PTR __imp_??1?$basic_string@DU?$char_traits@D@std@@V?$allocator@D@2@@std@@QAE@XZ
  00020	3b f4		 cmp	 esi, esp
  00022	e9 00 00 00 00	 jmp	 __RTC_CheckEsp
$L195343:
  00027	8b 4d f0	 mov	 ecx, DWORD PTR _this$[ebp]
  0002a	83 c1 38	 add	 ecx, 56			; 00000038H
  0002d	8b f4		 mov	 esi, esp
  0002f	ff 15 00 00 00
	00		 call	 DWORD PTR __imp_??1?$basic_string@DU?$char_traits@D@std@@V?$allocator@D@2@@std@@QAE@XZ
  00035	3b f4		 cmp	 esi, esp
  00037	e9 00 00 00 00	 jmp	 __RTC_CheckEsp
$L195344:
  0003c	8b 4d f0	 mov	 ecx, DWORD PTR _this$[ebp]
  0003f	83 c1 54	 add	 ecx, 84			; 00000054H
  00042	8b f4		 mov	 esi, esp
  00044	ff 15 00 00 00
	00		 call	 DWORD PTR __imp_??1?$basic_string@DU?$char_traits@D@std@@V?$allocator@D@2@@std@@QAE@XZ
  0004a	3b f4		 cmp	 esi, esp
  0004c	e9 00 00 00 00	 jmp	 __RTC_CheckEsp
__ehhandler$??1SWF_GAME@@QAE@XZ:
  00051	b8 00 00 00 00	 mov	 eax, OFFSET FLAT:$T195347
  00056	e9 00 00 00 00	 jmp	 ___CxxFrameHandler
text$x	ENDS
??1SWF_GAME@@QAE@XZ ENDP				; SWF_GAME::~SWF_GAME
xdata$x	SEGMENT
$T195383 DD	0ffffffffH
	DD	FLAT:$L195377
	DD	00H
	DD	FLAT:$L195378
	DD	01H
	DD	FLAT:$L195379
$T195381 DD	019930520H
	DD	03H
	DD	FLAT:$T195383
	DD	2 DUP(00H)
	DD	2 DUP(00H)
; Function compile flags: /Odt /RTCsu
xdata$x	ENDS
_TEXT	SEGMENT
tv152 = -88						; size = 4
tv144 = -84						; size = 4
tv136 = -80						; size = 4
tv128 = -76						; size = 4
tv88 = -72						; size = 4
tv80 = -68						; size = 4
$T195374 = -64						; size = 4
$T195373 = -60						; size = 4
$T195370 = -56						; size = 4
$T195369 = -52						; size = 4
$T195366 = -48						; size = 4
$T195365 = -44						; size = 4
$T195362 = -40						; size = 4
$T195361 = -36						; size = 4
$T195358 = -32						; size = 4
$T195357 = -28						; size = 4
$T195354 = -24						; size = 4
$T195353 = -20						; size = 4
_this$ = -16						; size = 4
__$EHRec$ = -12						; size = 12
??1CGameCtrlWnd@@UAE@XZ PROC NEAR			; CGameCtrlWnd::~CGameCtrlWnd
; _this$ = ecx

; 27   : {

  00250	55		 push	 ebp
  00251	8b ec		 mov	 ebp, esp
  00253	6a ff		 push	 -1
  00255	68 00 00 00 00	 push	 __ehhandler$??1CGameCtrlWnd@@UAE@XZ
  0025a	64 a1 00 00 00
	00		 mov	 eax, DWORD PTR fs:__except_list
  00260	50		 push	 eax
  00261	64 89 25 00 00
	00 00		 mov	 DWORD PTR fs:__except_list, esp
  00268	83 ec 4c	 sub	 esp, 76			; 0000004cH
  0026b	56		 push	 esi
  0026c	57		 push	 edi
  0026d	51		 push	 ecx
  0026e	8d 7d a8	 lea	 edi, DWORD PTR [ebp-88]
  00271	b9 13 00 00 00	 mov	 ecx, 19			; 00000013H
  00276	b8 cc cc cc cc	 mov	 eax, -858993460		; ccccccccH
  0027b	f3 ab		 rep stosd
  0027d	59		 pop	 ecx
  0027e	89 4d f0	 mov	 DWORD PTR _this$[ebp], ecx
  00281	8b 45 f0	 mov	 eax, DWORD PTR _this$[ebp]
  00284	c7 00 00 00 00
	00		 mov	 DWORD PTR [eax], OFFSET FLAT:??_7CGameCtrlWnd@@6B@
  0028a	c7 45 fc 02 00
	00 00		 mov	 DWORD PTR __$EHRec$[ebp+8], 2

; 28   : 	delete m_pBtnRePlay;

  00291	8b 4d f0	 mov	 ecx, DWORD PTR _this$[ebp]
  00294	8b 51 70	 mov	 edx, DWORD PTR [ecx+112]
  00297	89 55 e8	 mov	 DWORD PTR $T195354[ebp], edx
  0029a	8b 45 e8	 mov	 eax, DWORD PTR $T195354[ebp]
  0029d	89 45 ec	 mov	 DWORD PTR $T195353[ebp], eax
  002a0	83 7d ec 00	 cmp	 DWORD PTR $T195353[ebp], 0
  002a4	74 1b		 je	 SHORT $L195355
  002a6	8b f4		 mov	 esi, esp
  002a8	6a 01		 push	 1
  002aa	8b 4d ec	 mov	 ecx, DWORD PTR $T195353[ebp]
  002ad	8b 11		 mov	 edx, DWORD PTR [ecx]
  002af	8b 4d ec	 mov	 ecx, DWORD PTR $T195353[ebp]
  002b2	ff 52 04	 call	 DWORD PTR [edx+4]
  002b5	3b f4		 cmp	 esi, esp
  002b7	e8 00 00 00 00	 call	 __RTC_CheckEsp
  002bc	89 45 bc	 mov	 DWORD PTR tv80[ebp], eax
  002bf	eb 07		 jmp	 SHORT $L195356
$L195355:
  002c1	c7 45 bc 00 00
	00 00		 mov	 DWORD PTR tv80[ebp], 0
$L195356:

; 29   : 	delete m_pBtnToFullScreen;

  002c8	8b 45 f0	 mov	 eax, DWORD PTR _this$[ebp]
  002cb	8b 48 7c	 mov	 ecx, DWORD PTR [eax+124]
  002ce	89 4d e0	 mov	 DWORD PTR $T195358[ebp], ecx
  002d1	8b 55 e0	 mov	 edx, DWORD PTR $T195358[ebp]
  002d4	89 55 e4	 mov	 DWORD PTR $T195357[ebp], edx
  002d7	83 7d e4 00	 cmp	 DWORD PTR $T195357[ebp], 0
  002db	74 1b		 je	 SHORT $L195359
  002dd	8b f4		 mov	 esi, esp
  002df	6a 01		 push	 1
  002e1	8b 45 e4	 mov	 eax, DWORD PTR $T195357[ebp]
  002e4	8b 10		 mov	 edx, DWORD PTR [eax]
  002e6	8b 4d e4	 mov	 ecx, DWORD PTR $T195357[ebp]
  002e9	ff 52 04	 call	 DWORD PTR [edx+4]
  002ec	3b f4		 cmp	 esi, esp
  002ee	e8 00 00 00 00	 call	 __RTC_CheckEsp
  002f3	89 45 b8	 mov	 DWORD PTR tv88[ebp], eax
  002f6	eb 07		 jmp	 SHORT $L195360
$L195359:
  002f8	c7 45 b8 00 00
	00 00		 mov	 DWORD PTR tv88[ebp], 0
$L195360:

; 30   : 	delete m_pBtnExitFullScreen;

  002ff	8b 45 f0	 mov	 eax, DWORD PTR _this$[ebp]
  00302	8b 88 80 00 00
	00		 mov	 ecx, DWORD PTR [eax+128]
  00308	89 4d d8	 mov	 DWORD PTR $T195362[ebp], ecx
  0030b	8b 55 d8	 mov	 edx, DWORD PTR $T195362[ebp]
  0030e	89 55 dc	 mov	 DWORD PTR $T195361[ebp], edx
  00311	83 7d dc 00	 cmp	 DWORD PTR $T195361[ebp], 0
  00315	74 1b		 je	 SHORT $L195363
  00317	8b f4		 mov	 esi, esp
  00319	6a 01		 push	 1
  0031b	8b 45 dc	 mov	 eax, DWORD PTR $T195361[ebp]
  0031e	8b 10		 mov	 edx, DWORD PTR [eax]
  00320	8b 4d dc	 mov	 ecx, DWORD PTR $T195361[ebp]
  00323	ff 52 04	 call	 DWORD PTR [edx+4]
  00326	3b f4		 cmp	 esi, esp
  00328	e8 00 00 00 00	 call	 __RTC_CheckEsp
  0032d	89 45 b4	 mov	 DWORD PTR tv128[ebp], eax
  00330	eb 07		 jmp	 SHORT $L195364
$L195363:
  00332	c7 45 b4 00 00
	00 00		 mov	 DWORD PTR tv128[ebp], 0
$L195364:

; 31   : 	delete m_pBtnMute;

  00339	8b 45 f0	 mov	 eax, DWORD PTR _this$[ebp]
  0033c	8b 48 74	 mov	 ecx, DWORD PTR [eax+116]
  0033f	89 4d d0	 mov	 DWORD PTR $T195366[ebp], ecx
  00342	8b 55 d0	 mov	 edx, DWORD PTR $T195366[ebp]
  00345	89 55 d4	 mov	 DWORD PTR $T195365[ebp], edx
  00348	83 7d d4 00	 cmp	 DWORD PTR $T195365[ebp], 0
  0034c	74 1b		 je	 SHORT $L195367
  0034e	8b f4		 mov	 esi, esp
  00350	6a 01		 push	 1
  00352	8b 45 d4	 mov	 eax, DWORD PTR $T195365[ebp]
  00355	8b 10		 mov	 edx, DWORD PTR [eax]
  00357	8b 4d d4	 mov	 ecx, DWORD PTR $T195365[ebp]
  0035a	ff 52 04	 call	 DWORD PTR [edx+4]
  0035d	3b f4		 cmp	 esi, esp
  0035f	e8 00 00 00 00	 call	 __RTC_CheckEsp
  00364	89 45 b0	 mov	 DWORD PTR tv136[ebp], eax
  00367	eb 07		 jmp	 SHORT $L195368
$L195367:
  00369	c7 45 b0 00 00
	00 00		 mov	 DWORD PTR tv136[ebp], 0
$L195368:

; 32   : 	delete m_pBtnUnMute;

  00370	8b 45 f0	 mov	 eax, DWORD PTR _this$[ebp]
  00373	8b 48 78	 mov	 ecx, DWORD PTR [eax+120]
  00376	89 4d c8	 mov	 DWORD PTR $T195370[ebp], ecx
  00379	8b 55 c8	 mov	 edx, DWORD PTR $T195370[ebp]
  0037c	89 55 cc	 mov	 DWORD PTR $T195369[ebp], edx
  0037f	83 7d cc 00	 cmp	 DWORD PTR $T195369[ebp], 0
  00383	74 1b		 je	 SHORT $L195371
  00385	8b f4		 mov	 esi, esp
  00387	6a 01		 push	 1
  00389	8b 45 cc	 mov	 eax, DWORD PTR $T195369[ebp]
  0038c	8b 10		 mov	 edx, DWORD PTR [eax]
  0038e	8b 4d cc	 mov	 ecx, DWORD PTR $T195369[ebp]
  00391	ff 52 04	 call	 DWORD PTR [edx+4]
  00394	3b f4		 cmp	 esi, esp
  00396	e8 00 00 00 00	 call	 __RTC_CheckEsp
  0039b	89 45 ac	 mov	 DWORD PTR tv144[ebp], eax
  0039e	eb 07		 jmp	 SHORT $L195372
$L195371:
  003a0	c7 45 ac 00 00
	00 00		 mov	 DWORD PTR tv144[ebp], 0
$L195372:

; 33   : 	delete m_pBtnCut;

  003a7	8b 45 f0	 mov	 eax, DWORD PTR _this$[ebp]
  003aa	8b 88 84 00 00
	00		 mov	 ecx, DWORD PTR [eax+132]
  003b0	89 4d c0	 mov	 DWORD PTR $T195374[ebp], ecx
  003b3	8b 55 c0	 mov	 edx, DWORD PTR $T195374[ebp]
  003b6	89 55 c4	 mov	 DWORD PTR $T195373[ebp], edx
  003b9	83 7d c4 00	 cmp	 DWORD PTR $T195373[ebp], 0
  003bd	74 1b		 je	 SHORT $L195375
  003bf	8b f4		 mov	 esi, esp
  003c1	6a 01		 push	 1
  003c3	8b 45 c4	 mov	 eax, DWORD PTR $T195373[ebp]
  003c6	8b 10		 mov	 edx, DWORD PTR [eax]
  003c8	8b 4d c4	 mov	 ecx, DWORD PTR $T195373[ebp]
  003cb	ff 52 04	 call	 DWORD PTR [edx+4]
  003ce	3b f4		 cmp	 esi, esp
  003d0	e8 00 00 00 00	 call	 __RTC_CheckEsp
  003d5	89 45 a8	 mov	 DWORD PTR tv152[ebp], eax
  003d8	eb 07		 jmp	 SHORT $L194233
$L195375:
  003da	c7 45 a8 00 00
	00 00		 mov	 DWORD PTR tv152[ebp], 0
$L194233:

; 34   : }

  003e1	c6 45 fc 01	 mov	 BYTE PTR __$EHRec$[ebp+8], 1
  003e5	8b 4d f0	 mov	 ecx, DWORD PTR _this$[ebp]
  003e8	81 c1 88 00 00
	00		 add	 ecx, 136		; 00000088H
  003ee	e8 00 00 00 00	 call	 ??1SWF_GAME@@QAE@XZ
  003f3	c6 45 fc 00	 mov	 BYTE PTR __$EHRec$[ebp+8], 0
  003f7	8b 4d f0	 mov	 ecx, DWORD PTR _this$[ebp]
  003fa	83 c1 54	 add	 ecx, 84			; 00000054H
  003fd	8b f4		 mov	 esi, esp
  003ff	ff 15 00 00 00
	00		 call	 DWORD PTR __imp_??1?$basic_string@DU?$char_traits@D@std@@V?$allocator@D@2@@std@@QAE@XZ
  00405	3b f4		 cmp	 esi, esp
  00407	e8 00 00 00 00	 call	 __RTC_CheckEsp
  0040c	c7 45 fc ff ff
	ff ff		 mov	 DWORD PTR __$EHRec$[ebp+8], -1
  00413	8b 4d f0	 mov	 ecx, DWORD PTR _this$[ebp]
  00416	e8 00 00 00 00	 call	 ??1CBasicWnd@@UAE@XZ	; CBasicWnd::~CBasicWnd
  0041b	8b 4d f4	 mov	 ecx, DWORD PTR __$EHRec$[ebp]
  0041e	64 89 0d 00 00
	00 00		 mov	 DWORD PTR fs:__except_list, ecx
  00425	5f		 pop	 edi
  00426	5e		 pop	 esi
  00427	83 c4 58	 add	 esp, 88			; 00000058H
  0042a	3b ec		 cmp	 ebp, esp
  0042c	e8 00 00 00 00	 call	 __RTC_CheckEsp
  00431	8b e5		 mov	 esp, ebp
  00433	5d		 pop	 ebp
  00434	c3		 ret	 0
_TEXT	ENDS
text$x	SEGMENT
$L195377:
  00071	8b 4d f0	 mov	 ecx, DWORD PTR _this$[ebp]
  00074	e9 00 00 00 00	 jmp	 ??1CBasicWnd@@UAE@XZ	; CBasicWnd::~CBasicWnd
$L195378:
  00079	8b 4d f0	 mov	 ecx, DWORD PTR _this$[ebp]
  0007c	83 c1 54	 add	 ecx, 84			; 00000054H
  0007f	8b f4		 mov	 esi, esp
  00081	ff 15 00 00 00
	00		 call	 DWORD PTR __imp_??1?$basic_string@DU?$char_traits@D@std@@V?$allocator@D@2@@std@@QAE@XZ
  00087	3b f4		 cmp	 esi, esp
  00089	e9 00 00 00 00	 jmp	 __RTC_CheckEsp
$L195379:
  0008e	8b 4d f0	 mov	 ecx, DWORD PTR _this$[ebp]
  00091	81 c1 88 00 00
	00		 add	 ecx, 136		; 00000088H
  00097	e9 00 00 00 00	 jmp	 ??1SWF_GAME@@QAE@XZ
__ehhandler$??1CGameCtrlWnd@@UAE@XZ:
  0009c	b8 00 00 00 00	 mov	 eax, OFFSET FLAT:$T195381
  000a1	e9 00 00 00 00	 jmp	 ___CxxFrameHandler
text$x	ENDS
??1CGameCtrlWnd@@UAE@XZ ENDP				; CGameCtrlWnd::~CGameCtrlWnd
PUBLIC	?GetThisMessageMap@CGameCtrlWnd@@KGPBUAFX_MSGMAP@@XZ ; CGameCtrlWnd::GetThisMessageMap
; Function compile flags: /Odt /RTCsu
_TEXT	SEGMENT
?GetThisMessageMap@CGameCtrlWnd@@KGPBUAFX_MSGMAP@@XZ PROC NEAR ; CGameCtrlWnd::GetThisMessageMap

; 36   : BEGIN_MESSAGE_MAP(CGameCtrlWnd, CBasicWnd)

  00440	55		 push	 ebp
  00441	8b ec		 mov	 ebp, esp
  00443	b8 00 00 00 00	 mov	 eax, OFFSET FLAT:?messageMap@CGameCtrlWnd@@1UAFX_MSGMAP@@B ; CGameCtrlWnd::messageMap
  00448	5d		 pop	 ebp
  00449	c3		 ret	 0
?GetThisMessageMap@CGameCtrlWnd@@KGPBUAFX_MSGMAP@@XZ ENDP ; CGameCtrlWnd::GetThisMessageMap
; Function compile flags: /Odt /RTCsu
_this$ = -4						; size = 4
?GetMessageMap@CGameCtrlWnd@@MBEPBUAFX_MSGMAP@@XZ PROC NEAR ; CGameCtrlWnd::GetMessageMap
; _this$ = ecx

; 36   : BEGIN_MESSAGE_MAP(CGameCtrlWnd, CBasicWnd)

  00450	55		 push	 ebp
  00451	8b ec		 mov	 ebp, esp
  00453	51		 push	 ecx
  00454	c7 45 fc cc cc
	cc cc		 mov	 DWORD PTR [ebp-4], -858993460 ; ccccccccH
  0045b	89 4d fc	 mov	 DWORD PTR _this$[ebp], ecx
  0045e	b8 00 00 00 00	 mov	 eax, OFFSET FLAT:?messageMap@CGameCtrlWnd@@1UAFX_MSGMAP@@B ; CGameCtrlWnd::messageMap
  00463	8b e5		 mov	 esp, ebp
  00465	5d		 pop	 ebp
  00466	c3		 ret	 0
?GetMessageMap@CGameCtrlWnd@@MBEPBUAFX_MSGMAP@@XZ ENDP	; CGameCtrlWnd::GetMessageMap
_TEXT	ENDS
PUBLIC	?UpdateAllWnd@CGameCtrlWnd@@QAEXXZ		; CGameCtrlWnd::UpdateAllWnd
EXTRN	?AfxGetUIManager@@YAPAVIUIManager@@XZ:NEAR	; AfxGetUIManager
EXTRN	?OnCreate@CWnd@@IAEHPAUtagCREATESTRUCTA@@@Z:NEAR ; CWnd::OnCreate
EXTRN	??0CRect@@QAE@HHHH@Z:NEAR			; CRect::CRect
EXTRN	__imp_??0?$basic_string@DU?$char_traits@D@std@@V?$allocator@D@2@@std@@QAE@PBD@Z:NEAR
EXTRN	__imp_?YL_Log@@YAXABV?$basic_string@DU?$char_traits@D@std@@V?$allocator@D@2@@std@@H0PBDZZ:NEAR
EXTRN	__imp_??0?$CStringT@DV?$StrTraitMFC_DLL@DV?$ChTraitsCRT@D@ATL@@@@@ATL@@QAE@PBD@Z:NEAR
EXTRN	__imp_??1?$CStringT@DV?$StrTraitMFC_DLL@DV?$ChTraitsCRT@D@ATL@@@@@ATL@@QAE@XZ:NEAR
xdata$x	SEGMENT
$T195421 DD	0ffffffffH
	DD	FLAT:$L195401
	DD	00H
	DD	FLAT:$L195402
	DD	0ffffffffH
	DD	FLAT:$L195409
	DD	0ffffffffH
	DD	FLAT:$L195411
	DD	0ffffffffH
	DD	FLAT:$L195413
	DD	04H
	DD	FLAT:$L195414
$T195416 DD	019930520H
	DD	06H
	DD	FLAT:$T195421
	DD	2 DUP(00H)
	DD	2 DUP(00H)
; Function compile flags: /Odt /RTCsu
xdata$x	ENDS
_TEXT	SEGMENT
tv419 = -248						; size = 4
tv416 = -244						; size = 4
tv427 = -240						; size = 4
tv414 = -236						; size = 4
tv411 = -232						; size = 4
tv424 = -228						; size = 4
tv409 = -224						; size = 4
tv406 = -220						; size = 4
tv403 = -216						; size = 4
tv400 = -212						; size = 4
tv397 = -208						; size = 4
tv394 = -204						; size = 4
tv191 = -200						; size = 4
$T195400 = -196						; size = 28
$T195399 = -168						; size = 28
$T195398 = -140						; size = 4
$T195397 = -136						; size = 4
$T195396 = -132						; size = 4
$T195395 = -128						; size = 4
$T195394 = -124						; size = 4
$T195393 = -120						; size = 4
$T195392 = -116						; size = 4
$T195391 = -112						; size = 4
$T195390 = -108						; size = 4
$T195389 = -104						; size = 4
$T195388 = -100						; size = 28
$T195387 = -72						; size = 28
_pLayoutMgr$ = -44					; size = 4
_rectNull$ = -36					; size = 16
_this$ = -16						; size = 4
__$EHRec$ = -12						; size = 12
_lpCreateStruct$ = 8					; size = 4
?OnCreate@CGameCtrlWnd@@IAEHPAUtagCREATESTRUCTA@@@Z PROC NEAR ; CGameCtrlWnd::OnCreate
; _this$ = ecx

; 49   : {

  00470	55		 push	 ebp
  00471	8b ec		 mov	 ebp, esp
  00473	6a ff		 push	 -1
  00475	68 00 00 00 00	 push	 __ehhandler$?OnCreate@CGameCtrlWnd@@IAEHPAUtagCREATESTRUCTA@@@Z
  0047a	64 a1 00 00 00
	00		 mov	 eax, DWORD PTR fs:__except_list
  00480	50		 push	 eax
  00481	64 89 25 00 00
	00 00		 mov	 DWORD PTR fs:__except_list, esp
  00488	81 ec ec 00 00
	00		 sub	 esp, 236		; 000000ecH
  0048e	56		 push	 esi
  0048f	57		 push	 edi
  00490	51		 push	 ecx
  00491	8d bd 08 ff ff
	ff		 lea	 edi, DWORD PTR [ebp-248]
  00497	b9 3b 00 00 00	 mov	 ecx, 59			; 0000003bH
  0049c	b8 cc cc cc cc	 mov	 eax, -858993460		; ccccccccH
  004a1	f3 ab		 rep stosd
  004a3	59		 pop	 ecx
  004a4	89 4d f0	 mov	 DWORD PTR _this$[ebp], ecx

; 50   : 	YL_Log("CGameCtrlWnd.txt", LOG_DEBUG, "CGameCtrlWnd::OnCreate", "===IN");

  004a7	8b f4		 mov	 esi, esp
  004a9	68 00 00 00 00	 push	 OFFSET FLAT:$SG194292
  004ae	8d 4d b8	 lea	 ecx, DWORD PTR $T195387[ebp]
  004b1	ff 15 00 00 00
	00		 call	 DWORD PTR __imp_??0?$basic_string@DU?$char_traits@D@std@@V?$allocator@D@2@@std@@QAE@PBD@Z
  004b7	3b f4		 cmp	 esi, esp
  004b9	e8 00 00 00 00	 call	 __RTC_CheckEsp
  004be	c7 45 fc 00 00
	00 00		 mov	 DWORD PTR __$EHRec$[ebp+8], 0
  004c5	8b f4		 mov	 esi, esp
  004c7	68 00 00 00 00	 push	 OFFSET FLAT:$SG194293
  004cc	8d 4d 9c	 lea	 ecx, DWORD PTR $T195388[ebp]
  004cf	ff 15 00 00 00
	00		 call	 DWORD PTR __imp_??0?$basic_string@DU?$char_traits@D@std@@V?$allocator@D@2@@std@@QAE@PBD@Z
  004d5	3b f4		 cmp	 esi, esp
  004d7	e8 00 00 00 00	 call	 __RTC_CheckEsp
  004dc	c6 45 fc 01	 mov	 BYTE PTR __$EHRec$[ebp+8], 1
  004e0	8b f4		 mov	 esi, esp
  004e2	68 00 00 00 00	 push	 OFFSET FLAT:$SG194291
  004e7	8d 45 b8	 lea	 eax, DWORD PTR $T195387[ebp]
  004ea	50		 push	 eax
  004eb	6a 00		 push	 0
  004ed	8d 4d 9c	 lea	 ecx, DWORD PTR $T195388[ebp]
  004f0	51		 push	 ecx
  004f1	ff 15 00 00 00
	00		 call	 DWORD PTR __imp_?YL_Log@@YAXABV?$basic_string@DU?$char_traits@D@std@@V?$allocator@D@2@@std@@H0PBDZZ
  004f7	83 c4 10	 add	 esp, 16			; 00000010H
  004fa	3b f4		 cmp	 esi, esp
  004fc	e8 00 00 00 00	 call	 __RTC_CheckEsp
  00501	c6 45 fc 00	 mov	 BYTE PTR __$EHRec$[ebp+8], 0
  00505	8b f4		 mov	 esi, esp
  00507	8d 4d 9c	 lea	 ecx, DWORD PTR $T195388[ebp]
  0050a	ff 15 00 00 00
	00		 call	 DWORD PTR __imp_??1?$basic_string@DU?$char_traits@D@std@@V?$allocator@D@2@@std@@QAE@XZ
  00510	3b f4		 cmp	 esi, esp
  00512	e8 00 00 00 00	 call	 __RTC_CheckEsp
  00517	c7 45 fc ff ff
	ff ff		 mov	 DWORD PTR __$EHRec$[ebp+8], -1
  0051e	8b f4		 mov	 esi, esp
  00520	8d 4d b8	 lea	 ecx, DWORD PTR $T195387[ebp]
  00523	ff 15 00 00 00
	00		 call	 DWORD PTR __imp_??1?$basic_string@DU?$char_traits@D@std@@V?$allocator@D@2@@std@@QAE@XZ
  00529	3b f4		 cmp	 esi, esp
  0052b	e8 00 00 00 00	 call	 __RTC_CheckEsp

; 51   : 	if(__super::OnCreate(lpCreateStruct) == -1)

  00530	8b 55 08	 mov	 edx, DWORD PTR _lpCreateStruct$[ebp]
  00533	52		 push	 edx
  00534	8b 4d f0	 mov	 ecx, DWORD PTR _this$[ebp]
  00537	e8 00 00 00 00	 call	 ?OnCreate@CWnd@@IAEHPAUtagCREATESTRUCTA@@@Z ; CWnd::OnCreate
  0053c	83 f8 ff	 cmp	 eax, -1
  0053f	75 08		 jne	 SHORT $L194294

; 52   : 	{
; 53   : 		return -1;

  00541	83 c8 ff	 or	 eax, -1
  00544	e9 2b 04 00 00	 jmp	 $L194288
$L194294:

; 54   : 	}
; 55   : 	CRect rectNull(0,0,0,0);

  00549	6a 00		 push	 0
  0054b	6a 00		 push	 0
  0054d	6a 00		 push	 0
  0054f	6a 00		 push	 0
  00551	8d 4d dc	 lea	 ecx, DWORD PTR _rectNull$[ebp]
  00554	e8 00 00 00 00	 call	 ??0CRect@@QAE@HHHH@Z	; CRect::CRect

; 56   : 
; 57   : 	m_pBtnRePlay->Create(NULL,WS_VISIBLE,rectNull,this,IDC_BTN_REPLAY);

  00559	8b f4		 mov	 esi, esp
  0055b	6a 76		 push	 118			; 00000076H
  0055d	8b 45 f0	 mov	 eax, DWORD PTR _this$[ebp]
  00560	50		 push	 eax
  00561	8d 4d dc	 lea	 ecx, DWORD PTR _rectNull$[ebp]
  00564	51		 push	 ecx
  00565	68 00 00 00 10	 push	 268435456		; 10000000H
  0056a	6a 00		 push	 0
  0056c	8b 55 f0	 mov	 edx, DWORD PTR _this$[ebp]
  0056f	8b 42 70	 mov	 eax, DWORD PTR [edx+112]
  00572	8b 4d f0	 mov	 ecx, DWORD PTR _this$[ebp]
  00575	8b 49 70	 mov	 ecx, DWORD PTR [ecx+112]
  00578	8b 10		 mov	 edx, DWORD PTR [eax]
  0057a	ff 92 38 01 00
	00		 call	 DWORD PTR [edx+312]
  00580	3b f4		 cmp	 esi, esp
  00582	e8 00 00 00 00	 call	 __RTC_CheckEsp

; 58   : 	m_pBtnToFullScreen->Create(NULL,WS_VISIBLE,rectNull,this,IDC_BTN_FULL_SCREEN);

  00587	8b f4		 mov	 esi, esp
  00589	6a 77		 push	 119			; 00000077H
  0058b	8b 45 f0	 mov	 eax, DWORD PTR _this$[ebp]
  0058e	50		 push	 eax
  0058f	8d 4d dc	 lea	 ecx, DWORD PTR _rectNull$[ebp]
  00592	51		 push	 ecx
  00593	68 00 00 00 10	 push	 268435456		; 10000000H
  00598	6a 00		 push	 0
  0059a	8b 55 f0	 mov	 edx, DWORD PTR _this$[ebp]
  0059d	8b 42 7c	 mov	 eax, DWORD PTR [edx+124]
  005a0	8b 4d f0	 mov	 ecx, DWORD PTR _this$[ebp]
  005a3	8b 49 7c	 mov	 ecx, DWORD PTR [ecx+124]
  005a6	8b 10		 mov	 edx, DWORD PTR [eax]
  005a8	ff 92 38 01 00
	00		 call	 DWORD PTR [edx+312]
  005ae	3b f4		 cmp	 esi, esp
  005b0	e8 00 00 00 00	 call	 __RTC_CheckEsp

; 59   : 	m_pBtnExitFullScreen->Create(NULL,WS_VISIBLE,rectNull,this,IDC_BTN_EXIT_FULL_SCREEN);

  005b5	8b f4		 mov	 esi, esp
  005b7	68 81 00 00 00	 push	 129			; 00000081H
  005bc	8b 45 f0	 mov	 eax, DWORD PTR _this$[ebp]
  005bf	50		 push	 eax
  005c0	8d 4d dc	 lea	 ecx, DWORD PTR _rectNull$[ebp]
  005c3	51		 push	 ecx
  005c4	68 00 00 00 10	 push	 268435456		; 10000000H
  005c9	6a 00		 push	 0
  005cb	8b 55 f0	 mov	 edx, DWORD PTR _this$[ebp]
  005ce	8b 82 80 00 00
	00		 mov	 eax, DWORD PTR [edx+128]
  005d4	8b 4d f0	 mov	 ecx, DWORD PTR _this$[ebp]
  005d7	8b 89 80 00 00
	00		 mov	 ecx, DWORD PTR [ecx+128]
  005dd	8b 10		 mov	 edx, DWORD PTR [eax]
  005df	ff 92 38 01 00
	00		 call	 DWORD PTR [edx+312]
  005e5	3b f4		 cmp	 esi, esp
  005e7	e8 00 00 00 00	 call	 __RTC_CheckEsp

; 60   : 	m_pBtnMute->Create(NULL,WS_VISIBLE,rectNull,this,IDC_BTN_MUTE);

  005ec	8b f4		 mov	 esi, esp
  005ee	6a 7f		 push	 127			; 0000007fH
  005f0	8b 45 f0	 mov	 eax, DWORD PTR _this$[ebp]
  005f3	50		 push	 eax
  005f4	8d 4d dc	 lea	 ecx, DWORD PTR _rectNull$[ebp]
  005f7	51		 push	 ecx
  005f8	68 00 00 00 10	 push	 268435456		; 10000000H
  005fd	6a 00		 push	 0
  005ff	8b 55 f0	 mov	 edx, DWORD PTR _this$[ebp]
  00602	8b 42 74	 mov	 eax, DWORD PTR [edx+116]
  00605	8b 4d f0	 mov	 ecx, DWORD PTR _this$[ebp]
  00608	8b 49 74	 mov	 ecx, DWORD PTR [ecx+116]
  0060b	8b 10		 mov	 edx, DWORD PTR [eax]
  0060d	ff 92 38 01 00
	00		 call	 DWORD PTR [edx+312]
  00613	3b f4		 cmp	 esi, esp
  00615	e8 00 00 00 00	 call	 __RTC_CheckEsp

; 61   : 	m_pBtnUnMute->Create(NULL,WS_VISIBLE,rectNull,this,IDC_BTN_UN_MUTE);

  0061a	8b f4		 mov	 esi, esp
  0061c	68 85 00 00 00	 push	 133			; 00000085H
  00621	8b 45 f0	 mov	 eax, DWORD PTR _this$[ebp]
  00624	50		 push	 eax
  00625	8d 4d dc	 lea	 ecx, DWORD PTR _rectNull$[ebp]
  00628	51		 push	 ecx
  00629	68 00 00 00 10	 push	 268435456		; 10000000H
  0062e	6a 00		 push	 0
  00630	8b 55 f0	 mov	 edx, DWORD PTR _this$[ebp]
  00633	8b 42 78	 mov	 eax, DWORD PTR [edx+120]
  00636	8b 4d f0	 mov	 ecx, DWORD PTR _this$[ebp]
  00639	8b 49 78	 mov	 ecx, DWORD PTR [ecx+120]
  0063c	8b 10		 mov	 edx, DWORD PTR [eax]
  0063e	ff 92 38 01 00
	00		 call	 DWORD PTR [edx+312]
  00644	3b f4		 cmp	 esi, esp
  00646	e8 00 00 00 00	 call	 __RTC_CheckEsp

; 62   : 	m_pBtnCut->Create (NULL, WS_VISIBLE, rectNull, this, IDC_BTN_CUT);

  0064b	8b f4		 mov	 esi, esp
  0064d	68 fc 00 00 00	 push	 252			; 000000fcH
  00652	8b 45 f0	 mov	 eax, DWORD PTR _this$[ebp]
  00655	50		 push	 eax
  00656	8d 4d dc	 lea	 ecx, DWORD PTR _rectNull$[ebp]
  00659	51		 push	 ecx
  0065a	68 00 00 00 10	 push	 268435456		; 10000000H
  0065f	6a 00		 push	 0
  00661	8b 55 f0	 mov	 edx, DWORD PTR _this$[ebp]
  00664	8b 82 84 00 00
	00		 mov	 eax, DWORD PTR [edx+132]
  0066a	8b 4d f0	 mov	 ecx, DWORD PTR _this$[ebp]
  0066d	8b 89 84 00 00
	00		 mov	 ecx, DWORD PTR [ecx+132]
  00673	8b 10		 mov	 edx, DWORD PTR [eax]
  00675	ff 92 38 01 00
	00		 call	 DWORD PTR [edx+312]
  0067b	3b f4		 cmp	 esi, esp
  0067d	e8 00 00 00 00	 call	 __RTC_CheckEsp

; 63   : 
; 64   : 	ILayoutMgr* pLayoutMgr =  AfxGetUIManager()->UIGetLayoutMgr();

  00682	e8 00 00 00 00	 call	 ?AfxGetUIManager@@YAPAVIUIManager@@XZ ; AfxGetUIManager
  00687	89 85 38 ff ff
	ff		 mov	 DWORD PTR tv191[ebp], eax
  0068d	8b 85 38 ff ff
	ff		 mov	 eax, DWORD PTR tv191[ebp]
  00693	8b 10		 mov	 edx, DWORD PTR [eax]
  00695	8b f4		 mov	 esi, esp
  00697	8b 8d 38 ff ff
	ff		 mov	 ecx, DWORD PTR tv191[ebp]
  0069d	ff 52 24	 call	 DWORD PTR [edx+36]
  006a0	3b f4		 cmp	 esi, esp
  006a2	e8 00 00 00 00	 call	 __RTC_CheckEsp
  006a7	89 45 d4	 mov	 DWORD PTR _pLayoutMgr$[ebp], eax

; 65   : 	
; 66   : 	pLayoutMgr->RegisterCtrl( this, "GameRePlay", m_pBtnRePlay );

  006aa	8b 45 f0	 mov	 eax, DWORD PTR _this$[ebp]
  006ad	8b 48 70	 mov	 ecx, DWORD PTR [eax+112]
  006b0	51		 push	 ecx
  006b1	51		 push	 ecx
  006b2	8b cc		 mov	 ecx, esp
  006b4	89 65 98	 mov	 DWORD PTR $T195389[ebp], esp
  006b7	8b f4		 mov	 esi, esp
  006b9	68 00 00 00 00	 push	 OFFSET FLAT:$SG194298
  006be	ff 15 00 00 00
	00		 call	 DWORD PTR __imp_??0?$CStringT@DV?$StrTraitMFC_DLL@DV?$ChTraitsCRT@D@ATL@@@@@ATL@@QAE@PBD@Z
  006c4	3b f4		 cmp	 esi, esp
  006c6	e8 00 00 00 00	 call	 __RTC_CheckEsp
  006cb	89 85 34 ff ff
	ff		 mov	 DWORD PTR tv394[ebp], eax
  006d1	8b 55 f0	 mov	 edx, DWORD PTR _this$[ebp]
  006d4	52		 push	 edx
  006d5	8b 45 d4	 mov	 eax, DWORD PTR _pLayoutMgr$[ebp]
  006d8	8b 10		 mov	 edx, DWORD PTR [eax]
  006da	8b 4d d4	 mov	 ecx, DWORD PTR _pLayoutMgr$[ebp]
  006dd	ff 52 34	 call	 DWORD PTR [edx+52]

; 67   : 	pLayoutMgr->RegisterCtrl( this, "ToFull", m_pBtnToFullScreen );

  006e0	8b 45 f0	 mov	 eax, DWORD PTR _this$[ebp]
  006e3	8b 48 7c	 mov	 ecx, DWORD PTR [eax+124]
  006e6	51		 push	 ecx
  006e7	51		 push	 ecx
  006e8	8b cc		 mov	 ecx, esp
  006ea	89 65 94	 mov	 DWORD PTR $T195390[ebp], esp
  006ed	8b f4		 mov	 esi, esp
  006ef	68 00 00 00 00	 push	 OFFSET FLAT:$SG194300
  006f4	ff 15 00 00 00
	00		 call	 DWORD PTR __imp_??0?$CStringT@DV?$StrTraitMFC_DLL@DV?$ChTraitsCRT@D@ATL@@@@@ATL@@QAE@PBD@Z
  006fa	3b f4		 cmp	 esi, esp
  006fc	e8 00 00 00 00	 call	 __RTC_CheckEsp
  00701	89 85 30 ff ff
	ff		 mov	 DWORD PTR tv397[ebp], eax
  00707	8b 55 f0	 mov	 edx, DWORD PTR _this$[ebp]
  0070a	52		 push	 edx
  0070b	8b 45 d4	 mov	 eax, DWORD PTR _pLayoutMgr$[ebp]
  0070e	8b 10		 mov	 edx, DWORD PTR [eax]
  00710	8b 4d d4	 mov	 ecx, DWORD PTR _pLayoutMgr$[ebp]
  00713	ff 52 34	 call	 DWORD PTR [edx+52]

; 68   : 	pLayoutMgr->RegisterCtrl( this, "ExitFull", m_pBtnExitFullScreen );

  00716	8b 45 f0	 mov	 eax, DWORD PTR _this$[ebp]
  00719	8b 88 80 00 00
	00		 mov	 ecx, DWORD PTR [eax+128]
  0071f	51		 push	 ecx
  00720	51		 push	 ecx
  00721	8b cc		 mov	 ecx, esp
  00723	89 65 90	 mov	 DWORD PTR $T195391[ebp], esp
  00726	8b f4		 mov	 esi, esp
  00728	68 00 00 00 00	 push	 OFFSET FLAT:$SG194302
  0072d	ff 15 00 00 00
	00		 call	 DWORD PTR __imp_??0?$CStringT@DV?$StrTraitMFC_DLL@DV?$ChTraitsCRT@D@ATL@@@@@ATL@@QAE@PBD@Z
  00733	3b f4		 cmp	 esi, esp
  00735	e8 00 00 00 00	 call	 __RTC_CheckEsp
  0073a	89 85 2c ff ff
	ff		 mov	 DWORD PTR tv400[ebp], eax
  00740	8b 55 f0	 mov	 edx, DWORD PTR _this$[ebp]
  00743	52		 push	 edx
  00744	8b 45 d4	 mov	 eax, DWORD PTR _pLayoutMgr$[ebp]
  00747	8b 10		 mov	 edx, DWORD PTR [eax]
  00749	8b 4d d4	 mov	 ecx, DWORD PTR _pLayoutMgr$[ebp]
  0074c	ff 52 34	 call	 DWORD PTR [edx+52]

; 69   : 	pLayoutMgr->RegisterCtrl( this, "Mute", m_pBtnMute );

  0074f	8b 45 f0	 mov	 eax, DWORD PTR _this$[ebp]
  00752	8b 48 74	 mov	 ecx, DWORD PTR [eax+116]
  00755	51		 push	 ecx
  00756	51		 push	 ecx
  00757	8b cc		 mov	 ecx, esp
  00759	89 65 8c	 mov	 DWORD PTR $T195392[ebp], esp
  0075c	8b f4		 mov	 esi, esp
  0075e	68 00 00 00 00	 push	 OFFSET FLAT:$SG194304
  00763	ff 15 00 00 00
	00		 call	 DWORD PTR __imp_??0?$CStringT@DV?$StrTraitMFC_DLL@DV?$ChTraitsCRT@D@ATL@@@@@ATL@@QAE@PBD@Z
  00769	3b f4		 cmp	 esi, esp
  0076b	e8 00 00 00 00	 call	 __RTC_CheckEsp
  00770	89 85 28 ff ff
	ff		 mov	 DWORD PTR tv403[ebp], eax
  00776	8b 55 f0	 mov	 edx, DWORD PTR _this$[ebp]
  00779	52		 push	 edx
  0077a	8b 45 d4	 mov	 eax, DWORD PTR _pLayoutMgr$[ebp]
  0077d	8b 10		 mov	 edx, DWORD PTR [eax]
  0077f	8b 4d d4	 mov	 ecx, DWORD PTR _pLayoutMgr$[ebp]
  00782	ff 52 34	 call	 DWORD PTR [edx+52]

; 70   : 	pLayoutMgr->RegisterCtrl( this, "UnMute", m_pBtnUnMute );

  00785	8b 45 f0	 mov	 eax, DWORD PTR _this$[ebp]
  00788	8b 48 78	 mov	 ecx, DWORD PTR [eax+120]
  0078b	51		 push	 ecx
  0078c	51		 push	 ecx
  0078d	8b cc		 mov	 ecx, esp
  0078f	89 65 88	 mov	 DWORD PTR $T195393[ebp], esp
  00792	8b f4		 mov	 esi, esp
  00794	68 00 00 00 00	 push	 OFFSET FLAT:$SG194306
  00799	ff 15 00 00 00
	00		 call	 DWORD PTR __imp_??0?$CStringT@DV?$StrTraitMFC_DLL@DV?$ChTraitsCRT@D@ATL@@@@@ATL@@QAE@PBD@Z
  0079f	3b f4		 cmp	 esi, esp
  007a1	e8 00 00 00 00	 call	 __RTC_CheckEsp
  007a6	89 85 24 ff ff
	ff		 mov	 DWORD PTR tv406[ebp], eax
  007ac	8b 55 f0	 mov	 edx, DWORD PTR _this$[ebp]
  007af	52		 push	 edx
  007b0	8b 45 d4	 mov	 eax, DWORD PTR _pLayoutMgr$[ebp]
  007b3	8b 10		 mov	 edx, DWORD PTR [eax]
  007b5	8b 4d d4	 mov	 ecx, DWORD PTR _pLayoutMgr$[ebp]
  007b8	ff 52 34	 call	 DWORD PTR [edx+52]

; 71   : 	pLayoutMgr->RegisterCtrl (this, "Cut", m_pBtnCut);

  007bb	8b 45 f0	 mov	 eax, DWORD PTR _this$[ebp]
  007be	8b 88 84 00 00
	00		 mov	 ecx, DWORD PTR [eax+132]
  007c4	51		 push	 ecx
  007c5	51		 push	 ecx
  007c6	8b cc		 mov	 ecx, esp
  007c8	89 65 84	 mov	 DWORD PTR $T195394[ebp], esp
  007cb	8b f4		 mov	 esi, esp
  007cd	68 00 00 00 00	 push	 OFFSET FLAT:$SG194308
  007d2	ff 15 00 00 00
	00		 call	 DWORD PTR __imp_??0?$CStringT@DV?$StrTraitMFC_DLL@DV?$ChTraitsCRT@D@ATL@@@@@ATL@@QAE@PBD@Z
  007d8	3b f4		 cmp	 esi, esp
  007da	e8 00 00 00 00	 call	 __RTC_CheckEsp
  007df	89 85 20 ff ff
	ff		 mov	 DWORD PTR tv409[ebp], eax
  007e5	8b 55 f0	 mov	 edx, DWORD PTR _this$[ebp]
  007e8	52		 push	 edx
  007e9	8b 45 d4	 mov	 eax, DWORD PTR _pLayoutMgr$[ebp]
  007ec	8b 10		 mov	 edx, DWORD PTR [eax]
  007ee	8b 4d d4	 mov	 ecx, DWORD PTR _pLayoutMgr$[ebp]
  007f1	ff 52 34	 call	 DWORD PTR [edx+52]

; 72   : 	
; 73   : 	pLayoutMgr->CreateControlPane( this, "GameCtrl", "normal" );

  007f4	51		 push	 ecx
  007f5	8b cc		 mov	 ecx, esp
  007f7	89 65 80	 mov	 DWORD PTR $T195395[ebp], esp
  007fa	8b f4		 mov	 esi, esp
  007fc	68 00 00 00 00	 push	 OFFSET FLAT:$SG194311
  00801	ff 15 00 00 00
	00		 call	 DWORD PTR __imp_??0?$CStringT@DV?$StrTraitMFC_DLL@DV?$ChTraitsCRT@D@ATL@@@@@ATL@@QAE@PBD@Z
  00807	3b f4		 cmp	 esi, esp
  00809	e8 00 00 00 00	 call	 __RTC_CheckEsp
  0080e	89 85 1c ff ff
	ff		 mov	 DWORD PTR tv424[ebp], eax
  00814	8b 85 1c ff ff
	ff		 mov	 eax, DWORD PTR tv424[ebp]
  0081a	89 85 18 ff ff
	ff		 mov	 DWORD PTR tv411[ebp], eax
  00820	c7 45 fc 02 00
	00 00		 mov	 DWORD PTR __$EHRec$[ebp+8], 2
  00827	51		 push	 ecx
  00828	8b cc		 mov	 ecx, esp
  0082a	89 a5 7c ff ff
	ff		 mov	 DWORD PTR $T195396[ebp], esp
  00830	8b f4		 mov	 esi, esp
  00832	68 00 00 00 00	 push	 OFFSET FLAT:$SG194312
  00837	ff 15 00 00 00
	00		 call	 DWORD PTR __imp_??0?$CStringT@DV?$StrTraitMFC_DLL@DV?$ChTraitsCRT@D@ATL@@@@@ATL@@QAE@PBD@Z
  0083d	3b f4		 cmp	 esi, esp
  0083f	e8 00 00 00 00	 call	 __RTC_CheckEsp
  00844	89 85 14 ff ff
	ff		 mov	 DWORD PTR tv414[ebp], eax
  0084a	8b 4d f0	 mov	 ecx, DWORD PTR _this$[ebp]
  0084d	51		 push	 ecx
  0084e	8b 55 d4	 mov	 edx, DWORD PTR _pLayoutMgr$[ebp]
  00851	8b 02		 mov	 eax, DWORD PTR [edx]
  00853	c7 45 fc ff ff
	ff ff		 mov	 DWORD PTR __$EHRec$[ebp+8], -1
  0085a	8b 4d d4	 mov	 ecx, DWORD PTR _pLayoutMgr$[ebp]
  0085d	ff 50 38	 call	 DWORD PTR [eax+56]

; 74   : 	pLayoutMgr->CreateBmpPane( this,"GameCtrl","normal" );

  00860	51		 push	 ecx
  00861	8b cc		 mov	 ecx, esp
  00863	89 a5 78 ff ff
	ff		 mov	 DWORD PTR $T195397[ebp], esp
  00869	8b f4		 mov	 esi, esp
  0086b	68 00 00 00 00	 push	 OFFSET FLAT:$SG194315
  00870	ff 15 00 00 00
	00		 call	 DWORD PTR __imp_??0?$CStringT@DV?$StrTraitMFC_DLL@DV?$ChTraitsCRT@D@ATL@@@@@ATL@@QAE@PBD@Z
  00876	3b f4		 cmp	 esi, esp
  00878	e8 00 00 00 00	 call	 __RTC_CheckEsp
  0087d	89 85 10 ff ff
	ff		 mov	 DWORD PTR tv427[ebp], eax
  00883	8b 8d 10 ff ff
	ff		 mov	 ecx, DWORD PTR tv427[ebp]
  00889	89 8d 0c ff ff
	ff		 mov	 DWORD PTR tv416[ebp], ecx
  0088f	c7 45 fc 03 00
	00 00		 mov	 DWORD PTR __$EHRec$[ebp+8], 3
  00896	51		 push	 ecx
  00897	8b cc		 mov	 ecx, esp
  00899	89 a5 74 ff ff
	ff		 mov	 DWORD PTR $T195398[ebp], esp
  0089f	8b f4		 mov	 esi, esp
  008a1	68 00 00 00 00	 push	 OFFSET FLAT:$SG194316
  008a6	ff 15 00 00 00
	00		 call	 DWORD PTR __imp_??0?$CStringT@DV?$StrTraitMFC_DLL@DV?$ChTraitsCRT@D@ATL@@@@@ATL@@QAE@PBD@Z
  008ac	3b f4		 cmp	 esi, esp
  008ae	e8 00 00 00 00	 call	 __RTC_CheckEsp
  008b3	89 85 08 ff ff
	ff		 mov	 DWORD PTR tv419[ebp], eax
  008b9	8b 55 f0	 mov	 edx, DWORD PTR _this$[ebp]
  008bc	52		 push	 edx
  008bd	8b 45 d4	 mov	 eax, DWORD PTR _pLayoutMgr$[ebp]
  008c0	8b 10		 mov	 edx, DWORD PTR [eax]
  008c2	c7 45 fc ff ff
	ff ff		 mov	 DWORD PTR __$EHRec$[ebp+8], -1
  008c9	8b 4d d4	 mov	 ecx, DWORD PTR _pLayoutMgr$[ebp]
  008cc	ff 52 58	 call	 DWORD PTR [edx+88]

; 75   : 
; 76   : 	UpdateAllWnd();

  008cf	8b 4d f0	 mov	 ecx, DWORD PTR _this$[ebp]
  008d2	e8 00 00 00 00	 call	 ?UpdateAllWnd@CGameCtrlWnd@@QAEXXZ ; CGameCtrlWnd::UpdateAllWnd

; 77   : 	YL_Log("CGameCtrlWnd.txt", LOG_DEBUG, "CGameCtrlWnd::OnCreate", "===OUT");

  008d7	8b f4		 mov	 esi, esp
  008d9	68 00 00 00 00	 push	 OFFSET FLAT:$SG194320
  008de	8d 8d 58 ff ff
	ff		 lea	 ecx, DWORD PTR $T195399[ebp]
  008e4	ff 15 00 00 00
	00		 call	 DWORD PTR __imp_??0?$basic_string@DU?$char_traits@D@std@@V?$allocator@D@2@@std@@QAE@PBD@Z
  008ea	3b f4		 cmp	 esi, esp
  008ec	e8 00 00 00 00	 call	 __RTC_CheckEsp
  008f1	c7 45 fc 04 00
	00 00		 mov	 DWORD PTR __$EHRec$[ebp+8], 4
  008f8	8b f4		 mov	 esi, esp
  008fa	68 00 00 00 00	 push	 OFFSET FLAT:$SG194321
  008ff	8d 8d 3c ff ff
	ff		 lea	 ecx, DWORD PTR $T195400[ebp]
  00905	ff 15 00 00 00
	00		 call	 DWORD PTR __imp_??0?$basic_string@DU?$char_traits@D@std@@V?$allocator@D@2@@std@@QAE@PBD@Z
  0090b	3b f4		 cmp	 esi, esp
  0090d	e8 00 00 00 00	 call	 __RTC_CheckEsp
  00912	c6 45 fc 05	 mov	 BYTE PTR __$EHRec$[ebp+8], 5
  00916	8b f4		 mov	 esi, esp
  00918	68 00 00 00 00	 push	 OFFSET FLAT:$SG194319
  0091d	8d 85 58 ff ff
	ff		 lea	 eax, DWORD PTR $T195399[ebp]
  00923	50		 push	 eax
  00924	6a 00		 push	 0
  00926	8d 8d 3c ff ff
	ff		 lea	 ecx, DWORD PTR $T195400[ebp]
  0092c	51		 push	 ecx
  0092d	ff 15 00 00 00
	00		 call	 DWORD PTR __imp_?YL_Log@@YAXABV?$basic_string@DU?$char_traits@D@std@@V?$allocator@D@2@@std@@H0PBDZZ
  00933	83 c4 10	 add	 esp, 16			; 00000010H
  00936	3b f4		 cmp	 esi, esp
  00938	e8 00 00 00 00	 call	 __RTC_CheckEsp
  0093d	c6 45 fc 04	 mov	 BYTE PTR __$EHRec$[ebp+8], 4
  00941	8b f4		 mov	 esi, esp
  00943	8d 8d 3c ff ff
	ff		 lea	 ecx, DWORD PTR $T195400[ebp]
  00949	ff 15 00 00 00
	00		 call	 DWORD PTR __imp_??1?$basic_string@DU?$char_traits@D@std@@V?$allocator@D@2@@std@@QAE@XZ
  0094f	3b f4		 cmp	 esi, esp
  00951	e8 00 00 00 00	 call	 __RTC_CheckEsp
  00956	c7 45 fc ff ff
	ff ff		 mov	 DWORD PTR __$EHRec$[ebp+8], -1
  0095d	8b f4		 mov	 esi, esp
  0095f	8d 8d 58 ff ff
	ff		 lea	 ecx, DWORD PTR $T195399[ebp]
  00965	ff 15 00 00 00
	00		 call	 DWORD PTR __imp_??1?$basic_string@DU?$char_traits@D@std@@V?$allocator@D@2@@std@@QAE@XZ
  0096b	3b f4		 cmp	 esi, esp
  0096d	e8 00 00 00 00	 call	 __RTC_CheckEsp

; 78   : 	return 0;

  00972	33 c0		 xor	 eax, eax
$L194288:

; 79   : }

  00974	52		 push	 edx
  00975	8b cd		 mov	 ecx, ebp
  00977	50		 push	 eax
  00978	8d 15 00 00 00
	00		 lea	 edx, DWORD PTR $L195420
  0097e	e8 00 00 00 00	 call	 @_RTC_CheckStackVars@8
  00983	58		 pop	 eax
  00984	5a		 pop	 edx
  00985	8b 4d f4	 mov	 ecx, DWORD PTR __$EHRec$[ebp]
  00988	64 89 0d 00 00
	00 00		 mov	 DWORD PTR fs:__except_list, ecx
  0098f	5f		 pop	 edi
  00990	5e		 pop	 esi
  00991	81 c4 f8 00 00
	00		 add	 esp, 248		; 000000f8H
  00997	3b ec		 cmp	 ebp, esp
  00999	e8 00 00 00 00	 call	 __RTC_CheckEsp
  0099e	8b e5		 mov	 esp, ebp
  009a0	5d		 pop	 ebp
  009a1	c2 04 00	 ret	 4
$L195420:
  009a4	01 00 00 00	 DD	 1
  009a8	00 00 00 00	 DD	 $L195419
$L195419:
  009ac	dc ff ff ff	 DD	 -36			; ffffffdcH
  009b0	10 00 00 00	 DD	 16			; 00000010H
  009b4	00 00 00 00	 DD	 $L195417
$L195417:
  009b8	72		 DB	 114			; 00000072H
  009b9	65		 DB	 101			; 00000065H
  009ba	63		 DB	 99			; 00000063H
  009bb	74		 DB	 116			; 00000074H
  009bc	4e		 DB	 78			; 0000004eH
  009bd	75		 DB	 117			; 00000075H
  009be	6c		 DB	 108			; 0000006cH
  009bf	6c		 DB	 108			; 0000006cH
  009c0	00		 DB	 0
_TEXT	ENDS
text$x	SEGMENT
$L195401:
  000a6	8b f4		 mov	 esi, esp
  000a8	8d 4d b8	 lea	 ecx, DWORD PTR $T195387[ebp]
  000ab	ff 15 00 00 00
	00		 call	 DWORD PTR __imp_??1?$basic_string@DU?$char_traits@D@std@@V?$allocator@D@2@@std@@QAE@XZ
  000b1	3b f4		 cmp	 esi, esp
  000b3	e9 00 00 00 00	 jmp	 __RTC_CheckEsp
$L195402:
  000b8	8b f4		 mov	 esi, esp
  000ba	8d 4d 9c	 lea	 ecx, DWORD PTR $T195388[ebp]
  000bd	ff 15 00 00 00
	00		 call	 DWORD PTR __imp_??1?$basic_string@DU?$char_traits@D@std@@V?$allocator@D@2@@std@@QAE@XZ
  000c3	3b f4		 cmp	 esi, esp
  000c5	e9 00 00 00 00	 jmp	 __RTC_CheckEsp
$L195409:
  000ca	8b f4		 mov	 esi, esp
  000cc	8b 4d 80	 mov	 ecx, DWORD PTR $T195395[ebp]
  000cf	ff 15 00 00 00
	00		 call	 DWORD PTR __imp_??1?$CStringT@DV?$StrTraitMFC_DLL@DV?$ChTraitsCRT@D@ATL@@@@@ATL@@QAE@XZ
  000d5	3b f4		 cmp	 esi, esp
  000d7	e9 00 00 00 00	 jmp	 __RTC_CheckEsp
$L195411:
  000dc	8b f4		 mov	 esi, esp
  000de	8b 8d 78 ff ff
	ff		 mov	 ecx, DWORD PTR $T195397[ebp]
  000e4	ff 15 00 00 00
	00		 call	 DWORD PTR __imp_??1?$CStringT@DV?$StrTraitMFC_DLL@DV?$ChTraitsCRT@D@ATL@@@@@ATL@@QAE@XZ
  000ea	3b f4		 cmp	 esi, esp
  000ec	e9 00 00 00 00	 jmp	 __RTC_CheckEsp
$L195413:
  000f1	8b f4		 mov	 esi, esp
  000f3	8d 8d 58 ff ff
	ff		 lea	 ecx, DWORD PTR $T195399[ebp]
  000f9	ff 15 00 00 00
	00		 call	 DWORD PTR __imp_??1?$basic_string@DU?$char_traits@D@std@@V?$allocator@D@2@@std@@QAE@XZ
  000ff	3b f4		 cmp	 esi, esp
  00101	e9 00 00 00 00	 jmp	 __RTC_CheckEsp
$L195414:
  00106	8b f4		 mov	 esi, esp
  00108	8d 8d 3c ff ff
	ff		 lea	 ecx, DWORD PTR $T195400[ebp]
  0010e	ff 15 00 00 00
	00		 call	 DWORD PTR __imp_??1?$basic_string@DU?$char_traits@D@std@@V?$allocator@D@2@@std@@QAE@XZ
  00114	3b f4		 cmp	 esi, esp
  00116	e9 00 00 00 00	 jmp	 __RTC_CheckEsp
__ehhandler$?OnCreate@CGameCtrlWnd@@IAEHPAUtagCREATESTRUCTA@@@Z:
  0011b	b8 00 00 00 00	 mov	 eax, OFFSET FLAT:$T195416
  00120	e9 00 00 00 00	 jmp	 ___CxxFrameHandler
text$x	ENDS
?OnCreate@CGameCtrlWnd@@IAEHPAUtagCREATESTRUCTA@@@Z ENDP ; CGameCtrlWnd::OnCreate
EXTRN	?PostMessageA@CWnd@@QAEHIIJ@Z:NEAR		; CWnd::PostMessageA
EXTRN	?GetParent@CWnd@@QBEPAV1@XZ:NEAR		; CWnd::GetParent
xdata$x	SEGMENT
$T195434 DD	0ffffffffH
	DD	FLAT:$L195427
	DD	00H
	DD	FLAT:$L195428
	DD	0ffffffffH
	DD	FLAT:$L195429
	DD	02H
	DD	FLAT:$L195430
$T195432 DD	019930520H
	DD	04H
	DD	FLAT:$T195434
	DD	2 DUP(00H)
	DD	2 DUP(00H)
; Function compile flags: /Odt /RTCsu
xdata$x	ENDS
_TEXT	SEGMENT
$T195426 = -128						; size = 28
$T195425 = -100						; size = 28
$T195424 = -72						; size = 28
$T195423 = -44						; size = 28
_this$ = -16						; size = 4
__$EHRec$ = -12						; size = 12
?OnClickedReplay@CGameCtrlWnd@@IAEXXZ PROC NEAR		; CGameCtrlWnd::OnClickedReplay
; _this$ = ecx

; 82   : {

  009d0	55		 push	 ebp
  009d1	8b ec		 mov	 ebp, esp
  009d3	6a ff		 push	 -1
  009d5	68 00 00 00 00	 push	 __ehhandler$?OnClickedReplay@CGameCtrlWnd@@IAEXXZ
  009da	64 a1 00 00 00
	00		 mov	 eax, DWORD PTR fs:__except_list
  009e0	50		 push	 eax
  009e1	64 89 25 00 00
	00 00		 mov	 DWORD PTR fs:__except_list, esp
  009e8	83 ec 74	 sub	 esp, 116		; 00000074H
  009eb	56		 push	 esi
  009ec	57		 push	 edi
  009ed	51		 push	 ecx
  009ee	8d 7d 80	 lea	 edi, DWORD PTR [ebp-128]
  009f1	b9 1d 00 00 00	 mov	 ecx, 29			; 0000001dH
  009f6	b8 cc cc cc cc	 mov	 eax, -858993460		; ccccccccH
  009fb	f3 ab		 rep stosd
  009fd	59		 pop	 ecx
  009fe	89 4d f0	 mov	 DWORD PTR _this$[ebp], ecx

; 83   : 	YL_Log("CGameCtrlWnd.txt", LOG_DEBUG, "CGameCtrlWnd::OnClickedReplay", "===IN");

  00a01	8b f4		 mov	 esi, esp
  00a03	68 00 00 00 00	 push	 OFFSET FLAT:$SG194328
  00a08	8d 4d d4	 lea	 ecx, DWORD PTR $T195423[ebp]
  00a0b	ff 15 00 00 00
	00		 call	 DWORD PTR __imp_??0?$basic_string@DU?$char_traits@D@std@@V?$allocator@D@2@@std@@QAE@PBD@Z
  00a11	3b f4		 cmp	 esi, esp
  00a13	e8 00 00 00 00	 call	 __RTC_CheckEsp
  00a18	c7 45 fc 00 00
	00 00		 mov	 DWORD PTR __$EHRec$[ebp+8], 0
  00a1f	8b f4		 mov	 esi, esp
  00a21	68 00 00 00 00	 push	 OFFSET FLAT:$SG194329
  00a26	8d 4d b8	 lea	 ecx, DWORD PTR $T195424[ebp]
  00a29	ff 15 00 00 00
	00		 call	 DWORD PTR __imp_??0?$basic_string@DU?$char_traits@D@std@@V?$allocator@D@2@@std@@QAE@PBD@Z
  00a2f	3b f4		 cmp	 esi, esp
  00a31	e8 00 00 00 00	 call	 __RTC_CheckEsp
  00a36	c6 45 fc 01	 mov	 BYTE PTR __$EHRec$[ebp+8], 1
  00a3a	8b f4		 mov	 esi, esp
  00a3c	68 00 00 00 00	 push	 OFFSET FLAT:$SG194327
  00a41	8d 45 d4	 lea	 eax, DWORD PTR $T195423[ebp]
  00a44	50		 push	 eax
  00a45	6a 00		 push	 0
  00a47	8d 4d b8	 lea	 ecx, DWORD PTR $T195424[ebp]
  00a4a	51		 push	 ecx
  00a4b	ff 15 00 00 00
	00		 call	 DWORD PTR __imp_?YL_Log@@YAXABV?$basic_string@DU?$char_traits@D@std@@V?$allocator@D@2@@std@@H0PBDZZ
  00a51	83 c4 10	 add	 esp, 16			; 00000010H
  00a54	3b f4		 cmp	 esi, esp
  00a56	e8 00 00 00 00	 call	 __RTC_CheckEsp
  00a5b	c6 45 fc 00	 mov	 BYTE PTR __$EHRec$[ebp+8], 0
  00a5f	8b f4		 mov	 esi, esp
  00a61	8d 4d b8	 lea	 ecx, DWORD PTR $T195424[ebp]
  00a64	ff 15 00 00 00
	00		 call	 DWORD PTR __imp_??1?$basic_string@DU?$char_traits@D@std@@V?$allocator@D@2@@std@@QAE@XZ
  00a6a	3b f4		 cmp	 esi, esp
  00a6c	e8 00 00 00 00	 call	 __RTC_CheckEsp
  00a71	c7 45 fc ff ff
	ff ff		 mov	 DWORD PTR __$EHRec$[ebp+8], -1
  00a78	8b f4		 mov	 esi, esp
  00a7a	8d 4d d4	 lea	 ecx, DWORD PTR $T195423[ebp]
  00a7d	ff 15 00 00 00
	00		 call	 DWORD PTR __imp_??1?$basic_string@DU?$char_traits@D@std@@V?$allocator@D@2@@std@@QAE@XZ
  00a83	3b f4		 cmp	 esi, esp
  00a85	e8 00 00 00 00	 call	 __RTC_CheckEsp

; 84   : 	GetParent()->PostMessage( WM_REPLAY );

  00a8a	6a 00		 push	 0
  00a8c	6a 00		 push	 0
  00a8e	68 03 04 00 00	 push	 1027			; 00000403H
  00a93	8b 4d f0	 mov	 ecx, DWORD PTR _this$[ebp]
  00a96	e8 00 00 00 00	 call	 ?GetParent@CWnd@@QBEPAV1@XZ ; CWnd::GetParent
  00a9b	8b c8		 mov	 ecx, eax
  00a9d	e8 00 00 00 00	 call	 ?PostMessageA@CWnd@@QAEHIIJ@Z ; CWnd::PostMessageA

; 85   : 	//SetGameEntry( m_swfGame );
; 86   : 	YL_Log("CGameCtrlWnd.txt", LOG_DEBUG, "CGameCtrlWnd::OnClickedReplay", "===OUT");

  00aa2	8b f4		 mov	 esi, esp
  00aa4	68 00 00 00 00	 push	 OFFSET FLAT:$SG194333
  00aa9	8d 4d 9c	 lea	 ecx, DWORD PTR $T195425[ebp]
  00aac	ff 15 00 00 00
	00		 call	 DWORD PTR __imp_??0?$basic_string@DU?$char_traits@D@std@@V?$allocator@D@2@@std@@QAE@PBD@Z
  00ab2	3b f4		 cmp	 esi, esp
  00ab4	e8 00 00 00 00	 call	 __RTC_CheckEsp
  00ab9	c7 45 fc 02 00
	00 00		 mov	 DWORD PTR __$EHRec$[ebp+8], 2
  00ac0	8b f4		 mov	 esi, esp
  00ac2	68 00 00 00 00	 push	 OFFSET FLAT:$SG194334
  00ac7	8d 4d 80	 lea	 ecx, DWORD PTR $T195426[ebp]
  00aca	ff 15 00 00 00
	00		 call	 DWORD PTR __imp_??0?$basic_string@DU?$char_traits@D@std@@V?$allocator@D@2@@std@@QAE@PBD@Z
  00ad0	3b f4		 cmp	 esi, esp
  00ad2	e8 00 00 00 00	 call	 __RTC_CheckEsp
  00ad7	c6 45 fc 03	 mov	 BYTE PTR __$EHRec$[ebp+8], 3
  00adb	8b f4		 mov	 esi, esp
  00add	68 00 00 00 00	 push	 OFFSET FLAT:$SG194332
  00ae2	8d 55 9c	 lea	 edx, DWORD PTR $T195425[ebp]
  00ae5	52		 push	 edx
  00ae6	6a 00		 push	 0
  00ae8	8d 45 80	 lea	 eax, DWORD PTR $T195426[ebp]
  00aeb	50		 push	 eax
  00aec	ff 15 00 00 00
	00		 call	 DWORD PTR __imp_?YL_Log@@YAXABV?$basic_string@DU?$char_traits@D@std@@V?$allocator@D@2@@std@@H0PBDZZ
  00af2	83 c4 10	 add	 esp, 16			; 00000010H
  00af5	3b f4		 cmp	 esi, esp
  00af7	e8 00 00 00 00	 call	 __RTC_CheckEsp
  00afc	c6 45 fc 02	 mov	 BYTE PTR __$EHRec$[ebp+8], 2
  00b00	8b f4		 mov	 esi, esp
  00b02	8d 4d 80	 lea	 ecx, DWORD PTR $T195426[ebp]
  00b05	ff 15 00 00 00
	00		 call	 DWORD PTR __imp_??1?$basic_string@DU?$char_traits@D@std@@V?$allocator@D@2@@std@@QAE@XZ
  00b0b	3b f4		 cmp	 esi, esp
  00b0d	e8 00 00 00 00	 call	 __RTC_CheckEsp
  00b12	c7 45 fc ff ff
	ff ff		 mov	 DWORD PTR __$EHRec$[ebp+8], -1
  00b19	8b f4		 mov	 esi, esp
  00b1b	8d 4d 9c	 lea	 ecx, DWORD PTR $T195425[ebp]
  00b1e	ff 15 00 00 00
	00		 call	 DWORD PTR __imp_??1?$basic_string@DU?$char_traits@D@std@@V?$allocator@D@2@@std@@QAE@XZ
  00b24	3b f4		 cmp	 esi, esp
  00b26	e8 00 00 00 00	 call	 __RTC_CheckEsp

; 87   : }

  00b2b	8b 4d f4	 mov	 ecx, DWORD PTR __$EHRec$[ebp]
  00b2e	64 89 0d 00 00
	00 00		 mov	 DWORD PTR fs:__except_list, ecx
  00b35	5f		 pop	 edi
  00b36	5e		 pop	 esi
  00b37	81 c4 80 00 00
	00		 add	 esp, 128		; 00000080H
  00b3d	3b ec		 cmp	 ebp, esp
  00b3f	e8 00 00 00 00	 call	 __RTC_CheckEsp
  00b44	8b e5		 mov	 esp, ebp
  00b46	5d		 pop	 ebp
  00b47	c3		 ret	 0
_TEXT	ENDS
text$x	SEGMENT
$L195427:
  00125	8b f4		 mov	 esi, esp
  00127	8d 4d d4	 lea	 ecx, DWORD PTR $T195423[ebp]
  0012a	ff 15 00 00 00
	00		 call	 DWORD PTR __imp_??1?$basic_string@DU?$char_traits@D@std@@V?$allocator@D@2@@std@@QAE@XZ
  00130	3b f4		 cmp	 esi, esp
  00132	e9 00 00 00 00	 jmp	 __RTC_CheckEsp
$L195428:
  00137	8b f4		 mov	 esi, esp
  00139	8d 4d b8	 lea	 ecx, DWORD PTR $T195424[ebp]
  0013c	ff 15 00 00 00
	00		 call	 DWORD PTR __imp_??1?$basic_string@DU?$char_traits@D@std@@V?$allocator@D@2@@std@@QAE@XZ
  00142	3b f4		 cmp	 esi, esp
  00144	e9 00 00 00 00	 jmp	 __RTC_CheckEsp
$L195429:
  00149	8b f4		 mov	 esi, esp
  0014b	8d 4d 9c	 lea	 ecx, DWORD PTR $T195425[ebp]
  0014e	ff 15 00 00 00
	00		 call	 DWORD PTR __imp_??1?$basic_string@DU?$char_traits@D@std@@V?$allocator@D@2@@std@@QAE@XZ
  00154	3b f4		 cmp	 esi, esp
  00156	e9 00 00 00 00	 jmp	 __RTC_CheckEsp
$L195430:
  0015b	8b f4		 mov	 esi, esp
  0015d	8d 4d 80	 lea	 ecx, DWORD PTR $T195426[ebp]
  00160	ff 15 00 00 00
	00		 call	 DWORD PTR __imp_??1?$basic_string@DU?$char_traits@D@std@@V?$allocator@D@2@@std@@QAE@XZ
  00166	3b f4		 cmp	 esi, esp
  00168	e9 00 00 00 00	 jmp	 __RTC_CheckEsp
__ehhandler$?OnClickedReplay@CGameCtrlWnd@@IAEXXZ:
  0016d	b8 00 00 00 00	 mov	 eax, OFFSET FLAT:$T195432
  00172	e9 00 00 00 00	 jmp	 ___CxxFrameHandler
text$x	ENDS
?OnClickedReplay@CGameCtrlWnd@@IAEXXZ ENDP		; CGameCtrlWnd::OnClickedReplay
EXTRN	?AfxGetDataManager2@@YAPAVIDataManager@@XZ:NEAR	; AfxGetDataManager2
xdata$x	SEGMENT
$T195447 DD	0ffffffffH
	DD	FLAT:$L195440
	DD	00H
	DD	FLAT:$L195441
	DD	0ffffffffH
	DD	FLAT:$L195442
	DD	02H
	DD	FLAT:$L195443
$T195445 DD	019930520H
	DD	04H
	DD	FLAT:$T195447
	DD	2 DUP(00H)
	DD	2 DUP(00H)
; Function compile flags: /Odt /RTCsu
xdata$x	ENDS
_TEXT	SEGMENT
tv141 = -152						; size = 4
tv135 = -148						; size = 4
tv130 = -144						; size = 4
tv92 = -140						; size = 4
tv84 = -136						; size = 4
tv78 = -132						; size = 4
$T195439 = -128						; size = 28
$T195438 = -100						; size = 28
$T195437 = -72						; size = 28
$T195436 = -44						; size = 28
_this$ = -16						; size = 4
__$EHRec$ = -12						; size = 12
?OnClickedFullScreen@CGameCtrlWnd@@IAEXXZ PROC NEAR	; CGameCtrlWnd::OnClickedFullScreen
; _this$ = ecx

; 90   : {

  00b50	55		 push	 ebp
  00b51	8b ec		 mov	 ebp, esp
  00b53	6a ff		 push	 -1
  00b55	68 00 00 00 00	 push	 __ehhandler$?OnClickedFullScreen@CGameCtrlWnd@@IAEXXZ
  00b5a	64 a1 00 00 00
	00		 mov	 eax, DWORD PTR fs:__except_list
  00b60	50		 push	 eax
  00b61	64 89 25 00 00
	00 00		 mov	 DWORD PTR fs:__except_list, esp
  00b68	81 ec 8c 00 00
	00		 sub	 esp, 140		; 0000008cH
  00b6e	56		 push	 esi
  00b6f	57		 push	 edi
  00b70	51		 push	 ecx
  00b71	8d bd 68 ff ff
	ff		 lea	 edi, DWORD PTR [ebp-152]
  00b77	b9 23 00 00 00	 mov	 ecx, 35			; 00000023H
  00b7c	b8 cc cc cc cc	 mov	 eax, -858993460		; ccccccccH
  00b81	f3 ab		 rep stosd
  00b83	59		 pop	 ecx
  00b84	89 4d f0	 mov	 DWORD PTR _this$[ebp], ecx

; 91   : 	YL_Log("CGameCtrlWnd.txt", LOG_DEBUG, "CGameCtrlWnd::OnClickedFullScreen", "===IN");

  00b87	8b f4		 mov	 esi, esp
  00b89	68 00 00 00 00	 push	 OFFSET FLAT:$SG194341
  00b8e	8d 4d d4	 lea	 ecx, DWORD PTR $T195436[ebp]
  00b91	ff 15 00 00 00
	00		 call	 DWORD PTR __imp_??0?$basic_string@DU?$char_traits@D@std@@V?$allocator@D@2@@std@@QAE@PBD@Z
  00b97	3b f4		 cmp	 esi, esp
  00b99	e8 00 00 00 00	 call	 __RTC_CheckEsp
  00b9e	c7 45 fc 00 00
	00 00		 mov	 DWORD PTR __$EHRec$[ebp+8], 0
  00ba5	8b f4		 mov	 esi, esp
  00ba7	68 00 00 00 00	 push	 OFFSET FLAT:$SG194342
  00bac	8d 4d b8	 lea	 ecx, DWORD PTR $T195437[ebp]
  00baf	ff 15 00 00 00
	00		 call	 DWORD PTR __imp_??0?$basic_string@DU?$char_traits@D@std@@V?$allocator@D@2@@std@@QAE@PBD@Z
  00bb5	3b f4		 cmp	 esi, esp
  00bb7	e8 00 00 00 00	 call	 __RTC_CheckEsp
  00bbc	c6 45 fc 01	 mov	 BYTE PTR __$EHRec$[ebp+8], 1
  00bc0	8b f4		 mov	 esi, esp
  00bc2	68 00 00 00 00	 push	 OFFSET FLAT:$SG194340
  00bc7	8d 45 d4	 lea	 eax, DWORD PTR $T195436[ebp]
  00bca	50		 push	 eax
  00bcb	6a 00		 push	 0
  00bcd	8d 4d b8	 lea	 ecx, DWORD PTR $T195437[ebp]
  00bd0	51		 push	 ecx
  00bd1	ff 15 00 00 00
	00		 call	 DWORD PTR __imp_?YL_Log@@YAXABV?$basic_string@DU?$char_traits@D@std@@V?$allocator@D@2@@std@@H0PBDZZ
  00bd7	83 c4 10	 add	 esp, 16			; 00000010H
  00bda	3b f4		 cmp	 esi, esp
  00bdc	e8 00 00 00 00	 call	 __RTC_CheckEsp
  00be1	c6 45 fc 00	 mov	 BYTE PTR __$EHRec$[ebp+8], 0
  00be5	8b f4		 mov	 esi, esp
  00be7	8d 4d b8	 lea	 ecx, DWORD PTR $T195437[ebp]
  00bea	ff 15 00 00 00
	00		 call	 DWORD PTR __imp_??1?$basic_string@DU?$char_traits@D@std@@V?$allocator@D@2@@std@@QAE@XZ
  00bf0	3b f4		 cmp	 esi, esp
  00bf2	e8 00 00 00 00	 call	 __RTC_CheckEsp
  00bf7	c7 45 fc ff ff
	ff ff		 mov	 DWORD PTR __$EHRec$[ebp+8], -1
  00bfe	8b f4		 mov	 esi, esp
  00c00	8d 4d d4	 lea	 ecx, DWORD PTR $T195436[ebp]
  00c03	ff 15 00 00 00
	00		 call	 DWORD PTR __imp_??1?$basic_string@DU?$char_traits@D@std@@V?$allocator@D@2@@std@@QAE@XZ
  00c09	3b f4		 cmp	 esi, esp
  00c0b	e8 00 00 00 00	 call	 __RTC_CheckEsp

; 92   : 
; 93   : 	if( GLOBAL_PANELCHANGEDATA->IPanelChange_IsFullScreen() )

  00c10	e8 00 00 00 00	 call	 ?AfxGetDataManager2@@YAPAVIDataManager@@XZ ; AfxGetDataManager2
  00c15	89 85 7c ff ff
	ff		 mov	 DWORD PTR tv78[ebp], eax
  00c1b	8b f4		 mov	 esi, esp
  00c1d	68 00 00 00 00	 push	 OFFSET FLAT:_ID_DATA_PANELCHANGE
  00c22	8b 95 7c ff ff
	ff		 mov	 edx, DWORD PTR tv78[ebp]
  00c28	8b 02		 mov	 eax, DWORD PTR [edx]
  00c2a	8b 8d 7c ff ff
	ff		 mov	 ecx, DWORD PTR tv78[ebp]
  00c30	ff 50 0c	 call	 DWORD PTR [eax+12]
  00c33	3b f4		 cmp	 esi, esp
  00c35	e8 00 00 00 00	 call	 __RTC_CheckEsp
  00c3a	89 85 78 ff ff
	ff		 mov	 DWORD PTR tv84[ebp], eax
  00c40	8b 8d 78 ff ff
	ff		 mov	 ecx, DWORD PTR tv84[ebp]
  00c46	8b 11		 mov	 edx, DWORD PTR [ecx]
  00c48	8b f4		 mov	 esi, esp
  00c4a	8b 8d 78 ff ff
	ff		 mov	 ecx, DWORD PTR tv84[ebp]
  00c50	ff 52 14	 call	 DWORD PTR [edx+20]
  00c53	3b f4		 cmp	 esi, esp
  00c55	e8 00 00 00 00	 call	 __RTC_CheckEsp
  00c5a	0f b6 c0	 movzx	 eax, al
  00c5d	85 c0		 test	 eax, eax
  00c5f	74 4c		 je	 SHORT $L194344

; 94   : 	{
; 95   : 		GLOBAL_PANELCHANGEDATA->IPanelChange_ExitFullScreen();

  00c61	e8 00 00 00 00	 call	 ?AfxGetDataManager2@@YAPAVIDataManager@@XZ ; AfxGetDataManager2
  00c66	89 85 74 ff ff
	ff		 mov	 DWORD PTR tv92[ebp], eax
  00c6c	8b f4		 mov	 esi, esp
  00c6e	68 00 00 00 00	 push	 OFFSET FLAT:_ID_DATA_PANELCHANGE
  00c73	8b 8d 74 ff ff
	ff		 mov	 ecx, DWORD PTR tv92[ebp]
  00c79	8b 11		 mov	 edx, DWORD PTR [ecx]
  00c7b	8b 8d 74 ff ff
	ff		 mov	 ecx, DWORD PTR tv92[ebp]
  00c81	ff 52 0c	 call	 DWORD PTR [edx+12]
  00c84	3b f4		 cmp	 esi, esp
  00c86	e8 00 00 00 00	 call	 __RTC_CheckEsp
  00c8b	89 85 70 ff ff
	ff		 mov	 DWORD PTR tv130[ebp], eax
  00c91	8b 85 70 ff ff
	ff		 mov	 eax, DWORD PTR tv130[ebp]
  00c97	8b 10		 mov	 edx, DWORD PTR [eax]
  00c99	8b f4		 mov	 esi, esp
  00c9b	8b 8d 70 ff ff
	ff		 mov	 ecx, DWORD PTR tv130[ebp]
  00ca1	ff 52 10	 call	 DWORD PTR [edx+16]
  00ca4	3b f4		 cmp	 esi, esp
  00ca6	e8 00 00 00 00	 call	 __RTC_CheckEsp

; 96   : 	}else

  00cab	eb 53		 jmp	 SHORT $L194346
$L194344:

; 97   : 	{
; 98   : 		GLOBAL_PANELCHANGEDATA->IPanelChange_ToFullScreen( GetParent() );

  00cad	e8 00 00 00 00	 call	 ?AfxGetDataManager2@@YAPAVIDataManager@@XZ ; AfxGetDataManager2
  00cb2	89 85 6c ff ff
	ff		 mov	 DWORD PTR tv135[ebp], eax
  00cb8	8b f4		 mov	 esi, esp
  00cba	68 00 00 00 00	 push	 OFFSET FLAT:_ID_DATA_PANELCHANGE
  00cbf	8b 85 6c ff ff
	ff		 mov	 eax, DWORD PTR tv135[ebp]
  00cc5	8b 10		 mov	 edx, DWORD PTR [eax]
  00cc7	8b 8d 6c ff ff
	ff		 mov	 ecx, DWORD PTR tv135[ebp]
  00ccd	ff 52 0c	 call	 DWORD PTR [edx+12]
  00cd0	3b f4		 cmp	 esi, esp
  00cd2	e8 00 00 00 00	 call	 __RTC_CheckEsp
  00cd7	89 85 68 ff ff
	ff		 mov	 DWORD PTR tv141[ebp], eax
  00cdd	8b 4d f0	 mov	 ecx, DWORD PTR _this$[ebp]
  00ce0	e8 00 00 00 00	 call	 ?GetParent@CWnd@@QBEPAV1@XZ ; CWnd::GetParent
  00ce5	8b f4		 mov	 esi, esp
  00ce7	50		 push	 eax
  00ce8	8b 85 68 ff ff
	ff		 mov	 eax, DWORD PTR tv141[ebp]
  00cee	8b 10		 mov	 edx, DWORD PTR [eax]
  00cf0	8b 8d 68 ff ff
	ff		 mov	 ecx, DWORD PTR tv141[ebp]
  00cf6	ff 52 0c	 call	 DWORD PTR [edx+12]
  00cf9	3b f4		 cmp	 esi, esp
  00cfb	e8 00 00 00 00	 call	 __RTC_CheckEsp
$L194346:

; 99   : 	}	
; 100  : 	YL_Log("CGameCtrlWnd.txt", LOG_DEBUG, "CGameCtrlWnd::OnClickedFullScreen", "===OUT");

  00d00	8b f4		 mov	 esi, esp
  00d02	68 00 00 00 00	 push	 OFFSET FLAT:$SG194351
  00d07	8d 4d 9c	 lea	 ecx, DWORD PTR $T195438[ebp]
  00d0a	ff 15 00 00 00
	00		 call	 DWORD PTR __imp_??0?$basic_string@DU?$char_traits@D@std@@V?$allocator@D@2@@std@@QAE@PBD@Z
  00d10	3b f4		 cmp	 esi, esp
  00d12	e8 00 00 00 00	 call	 __RTC_CheckEsp
  00d17	c7 45 fc 02 00
	00 00		 mov	 DWORD PTR __$EHRec$[ebp+8], 2
  00d1e	8b f4		 mov	 esi, esp
  00d20	68 00 00 00 00	 push	 OFFSET FLAT:$SG194352
  00d25	8d 4d 80	 lea	 ecx, DWORD PTR $T195439[ebp]
  00d28	ff 15 00 00 00
	00		 call	 DWORD PTR __imp_??0?$basic_string@DU?$char_traits@D@std@@V?$allocator@D@2@@std@@QAE@PBD@Z
  00d2e	3b f4		 cmp	 esi, esp
  00d30	e8 00 00 00 00	 call	 __RTC_CheckEsp
  00d35	c6 45 fc 03	 mov	 BYTE PTR __$EHRec$[ebp+8], 3
  00d39	8b f4		 mov	 esi, esp
  00d3b	68 00 00 00 00	 push	 OFFSET FLAT:$SG194350
  00d40	8d 45 9c	 lea	 eax, DWORD PTR $T195438[ebp]
  00d43	50		 push	 eax
  00d44	6a 00		 push	 0
  00d46	8d 4d 80	 lea	 ecx, DWORD PTR $T195439[ebp]
  00d49	51		 push	 ecx
  00d4a	ff 15 00 00 00
	00		 call	 DWORD PTR __imp_?YL_Log@@YAXABV?$basic_string@DU?$char_traits@D@std@@V?$allocator@D@2@@std@@H0PBDZZ
  00d50	83 c4 10	 add	 esp, 16			; 00000010H
  00d53	3b f4		 cmp	 esi, esp
  00d55	e8 00 00 00 00	 call	 __RTC_CheckEsp
  00d5a	c6 45 fc 02	 mov	 BYTE PTR __$EHRec$[ebp+8], 2
  00d5e	8b f4		 mov	 esi, esp
  00d60	8d 4d 80	 lea	 ecx, DWORD PTR $T195439[ebp]
  00d63	ff 15 00 00 00
	00		 call	 DWORD PTR __imp_??1?$basic_string@DU?$char_traits@D@std@@V?$allocator@D@2@@std@@QAE@XZ
  00d69	3b f4		 cmp	 esi, esp
  00d6b	e8 00 00 00 00	 call	 __RTC_CheckEsp
  00d70	c7 45 fc ff ff
	ff ff		 mov	 DWORD PTR __$EHRec$[ebp+8], -1
  00d77	8b f4		 mov	 esi, esp
  00d79	8d 4d 9c	 lea	 ecx, DWORD PTR $T195438[ebp]
  00d7c	ff 15 00 00 00
	00		 call	 DWORD PTR __imp_??1?$basic_string@DU?$char_traits@D@std@@V?$allocator@D@2@@std@@QAE@XZ
  00d82	3b f4		 cmp	 esi, esp
  00d84	e8 00 00 00 00	 call	 __RTC_CheckEsp

; 101  : }

  00d89	8b 4d f4	 mov	 ecx, DWORD PTR __$EHRec$[ebp]
  00d8c	64 89 0d 00 00
	00 00		 mov	 DWORD PTR fs:__except_list, ecx
  00d93	5f		 pop	 edi
  00d94	5e		 pop	 esi
  00d95	81 c4 98 00 00
	00		 add	 esp, 152		; 00000098H
  00d9b	3b ec		 cmp	 ebp, esp
  00d9d	e8 00 00 00 00	 call	 __RTC_CheckEsp
  00da2	8b e5		 mov	 esp, ebp
  00da4	5d		 pop	 ebp
  00da5	c3		 ret	 0
_TEXT	ENDS
text$x	SEGMENT
$L195440:
  00177	8b f4		 mov	 esi, esp
  00179	8d 4d d4	 lea	 ecx, DWORD PTR $T195436[ebp]
  0017c	ff 15 00 00 00
	00		 call	 DWORD PTR __imp_??1?$basic_string@DU?$char_traits@D@std@@V?$allocator@D@2@@std@@QAE@XZ
  00182	3b f4		 cmp	 esi, esp
  00184	e9 00 00 00 00	 jmp	 __RTC_CheckEsp
$L195441:
  00189	8b f4		 mov	 esi, esp
  0018b	8d 4d b8	 lea	 ecx, DWORD PTR $T195437[ebp]
  0018e	ff 15 00 00 00
	00		 call	 DWORD PTR __imp_??1?$basic_string@DU?$char_traits@D@std@@V?$allocator@D@2@@std@@QAE@XZ
  00194	3b f4		 cmp	 esi, esp
  00196	e9 00 00 00 00	 jmp	 __RTC_CheckEsp
$L195442:
  0019b	8b f4		 mov	 esi, esp
  0019d	8d 4d 9c	 lea	 ecx, DWORD PTR $T195438[ebp]
  001a0	ff 15 00 00 00
	00		 call	 DWORD PTR __imp_??1?$basic_string@DU?$char_traits@D@std@@V?$allocator@D@2@@std@@QAE@XZ
  001a6	3b f4		 cmp	 esi, esp
  001a8	e9 00 00 00 00	 jmp	 __RTC_CheckEsp
$L195443:
  001ad	8b f4		 mov	 esi, esp
  001af	8d 4d 80	 lea	 ecx, DWORD PTR $T195439[ebp]
  001b2	ff 15 00 00 00
	00		 call	 DWORD PTR __imp_??1?$basic_string@DU?$char_traits@D@std@@V?$allocator@D@2@@std@@QAE@XZ
  001b8	3b f4		 cmp	 esi, esp
  001ba	e9 00 00 00 00	 jmp	 __RTC_CheckEsp
__ehhandler$?OnClickedFullScreen@CGameCtrlWnd@@IAEXXZ:
  001bf	b8 00 00 00 00	 mov	 eax, OFFSET FLAT:$T195445
  001c4	e9 00 00 00 00	 jmp	 ___CxxFrameHandler
text$x	ENDS
?OnClickedFullScreen@CGameCtrlWnd@@IAEXXZ ENDP		; CGameCtrlWnd::OnClickedFullScreen
xdata$x	SEGMENT
$T195460 DD	0ffffffffH
	DD	FLAT:$L195453
	DD	00H
	DD	FLAT:$L195454
	DD	0ffffffffH
	DD	FLAT:$L195455
	DD	02H
	DD	FLAT:$L195456
$T195458 DD	019930520H
	DD	04H
	DD	FLAT:$T195460
	DD	2 DUP(00H)
	DD	2 DUP(00H)
; Function compile flags: /Odt /RTCsu
xdata$x	ENDS
_TEXT	SEGMENT
tv141 = -152						; size = 4
tv135 = -148						; size = 4
tv130 = -144						; size = 4
tv92 = -140						; size = 4
tv84 = -136						; size = 4
tv78 = -132						; size = 4
$T195452 = -128						; size = 28
$T195451 = -100						; size = 28
$T195450 = -72						; size = 28
$T195449 = -44						; size = 28
_this$ = -16						; size = 4
__$EHRec$ = -12						; size = 12
?OnClickedExitFullScreen@CGameCtrlWnd@@IAEXXZ PROC NEAR	; CGameCtrlWnd::OnClickedExitFullScreen
; _this$ = ecx

; 104  : {

  00db0	55		 push	 ebp
  00db1	8b ec		 mov	 ebp, esp
  00db3	6a ff		 push	 -1
  00db5	68 00 00 00 00	 push	 __ehhandler$?OnClickedExitFullScreen@CGameCtrlWnd@@IAEXXZ
  00dba	64 a1 00 00 00
	00		 mov	 eax, DWORD PTR fs:__except_list
  00dc0	50		 push	 eax
  00dc1	64 89 25 00 00
	00 00		 mov	 DWORD PTR fs:__except_list, esp
  00dc8	81 ec 8c 00 00
	00		 sub	 esp, 140		; 0000008cH
  00dce	56		 push	 esi
  00dcf	57		 push	 edi
  00dd0	51		 push	 ecx
  00dd1	8d bd 68 ff ff
	ff		 lea	 edi, DWORD PTR [ebp-152]
  00dd7	b9 23 00 00 00	 mov	 ecx, 35			; 00000023H
  00ddc	b8 cc cc cc cc	 mov	 eax, -858993460		; ccccccccH
  00de1	f3 ab		 rep stosd
  00de3	59		 pop	 ecx
  00de4	89 4d f0	 mov	 DWORD PTR _this$[ebp], ecx

; 105  : 	YL_Log("CGameCtrlWnd.txt", LOG_DEBUG, "CGameCtrlWnd::OnClickedFullScreen", "===IN");

  00de7	8b f4		 mov	 esi, esp
  00de9	68 00 00 00 00	 push	 OFFSET FLAT:$SG194359
  00dee	8d 4d d4	 lea	 ecx, DWORD PTR $T195449[ebp]
  00df1	ff 15 00 00 00
	00		 call	 DWORD PTR __imp_??0?$basic_string@DU?$char_traits@D@std@@V?$allocator@D@2@@std@@QAE@PBD@Z
  00df7	3b f4		 cmp	 esi, esp
  00df9	e8 00 00 00 00	 call	 __RTC_CheckEsp
  00dfe	c7 45 fc 00 00
	00 00		 mov	 DWORD PTR __$EHRec$[ebp+8], 0
  00e05	8b f4		 mov	 esi, esp
  00e07	68 00 00 00 00	 push	 OFFSET FLAT:$SG194360
  00e0c	8d 4d b8	 lea	 ecx, DWORD PTR $T195450[ebp]
  00e0f	ff 15 00 00 00
	00		 call	 DWORD PTR __imp_??0?$basic_string@DU?$char_traits@D@std@@V?$allocator@D@2@@std@@QAE@PBD@Z
  00e15	3b f4		 cmp	 esi, esp
  00e17	e8 00 00 00 00	 call	 __RTC_CheckEsp
  00e1c	c6 45 fc 01	 mov	 BYTE PTR __$EHRec$[ebp+8], 1
  00e20	8b f4		 mov	 esi, esp
  00e22	68 00 00 00 00	 push	 OFFSET FLAT:$SG194358
  00e27	8d 45 d4	 lea	 eax, DWORD PTR $T195449[ebp]
  00e2a	50		 push	 eax
  00e2b	6a 00		 push	 0
  00e2d	8d 4d b8	 lea	 ecx, DWORD PTR $T195450[ebp]
  00e30	51		 push	 ecx
  00e31	ff 15 00 00 00
	00		 call	 DWORD PTR __imp_?YL_Log@@YAXABV?$basic_string@DU?$char_traits@D@std@@V?$allocator@D@2@@std@@H0PBDZZ
  00e37	83 c4 10	 add	 esp, 16			; 00000010H
  00e3a	3b f4		 cmp	 esi, esp
  00e3c	e8 00 00 00 00	 call	 __RTC_CheckEsp
  00e41	c6 45 fc 00	 mov	 BYTE PTR __$EHRec$[ebp+8], 0
  00e45	8b f4		 mov	 esi, esp
  00e47	8d 4d b8	 lea	 ecx, DWORD PTR $T195450[ebp]
  00e4a	ff 15 00 00 00
	00		 call	 DWORD PTR __imp_??1?$basic_string@DU?$char_traits@D@std@@V?$allocator@D@2@@std@@QAE@XZ
  00e50	3b f4		 cmp	 esi, esp
  00e52	e8 00 00 00 00	 call	 __RTC_CheckEsp
  00e57	c7 45 fc ff ff
	ff ff		 mov	 DWORD PTR __$EHRec$[ebp+8], -1
  00e5e	8b f4		 mov	 esi, esp
  00e60	8d 4d d4	 lea	 ecx, DWORD PTR $T195449[ebp]
  00e63	ff 15 00 00 00
	00		 call	 DWORD PTR __imp_??1?$basic_string@DU?$char_traits@D@std@@V?$allocator@D@2@@std@@QAE@XZ
  00e69	3b f4		 cmp	 esi, esp
  00e6b	e8 00 00 00 00	 call	 __RTC_CheckEsp

; 106  : 
; 107  : 	if( GLOBAL_PANELCHANGEDATA->IPanelChange_IsFullScreen() )

  00e70	e8 00 00 00 00	 call	 ?AfxGetDataManager2@@YAPAVIDataManager@@XZ ; AfxGetDataManager2
  00e75	89 85 7c ff ff
	ff		 mov	 DWORD PTR tv78[ebp], eax
  00e7b	8b f4		 mov	 esi, esp
  00e7d	68 00 00 00 00	 push	 OFFSET FLAT:_ID_DATA_PANELCHANGE
  00e82	8b 95 7c ff ff
	ff		 mov	 edx, DWORD PTR tv78[ebp]
  00e88	8b 02		 mov	 eax, DWORD PTR [edx]
  00e8a	8b 8d 7c ff ff
	ff		 mov	 ecx, DWORD PTR tv78[ebp]
  00e90	ff 50 0c	 call	 DWORD PTR [eax+12]
  00e93	3b f4		 cmp	 esi, esp
  00e95	e8 00 00 00 00	 call	 __RTC_CheckEsp
  00e9a	89 85 78 ff ff
	ff		 mov	 DWORD PTR tv84[ebp], eax
  00ea0	8b 8d 78 ff ff
	ff		 mov	 ecx, DWORD PTR tv84[ebp]
  00ea6	8b 11		 mov	 edx, DWORD PTR [ecx]
  00ea8	8b f4		 mov	 esi, esp
  00eaa	8b 8d 78 ff ff
	ff		 mov	 ecx, DWORD PTR tv84[ebp]
  00eb0	ff 52 14	 call	 DWORD PTR [edx+20]
  00eb3	3b f4		 cmp	 esi, esp
  00eb5	e8 00 00 00 00	 call	 __RTC_CheckEsp
  00eba	0f b6 c0	 movzx	 eax, al
  00ebd	85 c0		 test	 eax, eax
  00ebf	74 4c		 je	 SHORT $L194362

; 108  : 	{
; 109  : 		GLOBAL_PANELCHANGEDATA->IPanelChange_ExitFullScreen();

  00ec1	e8 00 00 00 00	 call	 ?AfxGetDataManager2@@YAPAVIDataManager@@XZ ; AfxGetDataManager2
  00ec6	89 85 74 ff ff
	ff		 mov	 DWORD PTR tv92[ebp], eax
  00ecc	8b f4		 mov	 esi, esp
  00ece	68 00 00 00 00	 push	 OFFSET FLAT:_ID_DATA_PANELCHANGE
  00ed3	8b 8d 74 ff ff
	ff		 mov	 ecx, DWORD PTR tv92[ebp]
  00ed9	8b 11		 mov	 edx, DWORD PTR [ecx]
  00edb	8b 8d 74 ff ff
	ff		 mov	 ecx, DWORD PTR tv92[ebp]
  00ee1	ff 52 0c	 call	 DWORD PTR [edx+12]
  00ee4	3b f4		 cmp	 esi, esp
  00ee6	e8 00 00 00 00	 call	 __RTC_CheckEsp
  00eeb	89 85 70 ff ff
	ff		 mov	 DWORD PTR tv130[ebp], eax
  00ef1	8b 85 70 ff ff
	ff		 mov	 eax, DWORD PTR tv130[ebp]
  00ef7	8b 10		 mov	 edx, DWORD PTR [eax]
  00ef9	8b f4		 mov	 esi, esp
  00efb	8b 8d 70 ff ff
	ff		 mov	 ecx, DWORD PTR tv130[ebp]
  00f01	ff 52 10	 call	 DWORD PTR [edx+16]
  00f04	3b f4		 cmp	 esi, esp
  00f06	e8 00 00 00 00	 call	 __RTC_CheckEsp

; 110  : 	}else

  00f0b	eb 53		 jmp	 SHORT $L194364
$L194362:

; 111  : 	{
; 112  : 		GLOBAL_PANELCHANGEDATA->IPanelChange_ToFullScreen( GetParent() );

  00f0d	e8 00 00 00 00	 call	 ?AfxGetDataManager2@@YAPAVIDataManager@@XZ ; AfxGetDataManager2
  00f12	89 85 6c ff ff
	ff		 mov	 DWORD PTR tv135[ebp], eax
  00f18	8b f4		 mov	 esi, esp
  00f1a	68 00 00 00 00	 push	 OFFSET FLAT:_ID_DATA_PANELCHANGE
  00f1f	8b 85 6c ff ff
	ff		 mov	 eax, DWORD PTR tv135[ebp]
  00f25	8b 10		 mov	 edx, DWORD PTR [eax]
  00f27	8b 8d 6c ff ff
	ff		 mov	 ecx, DWORD PTR tv135[ebp]
  00f2d	ff 52 0c	 call	 DWORD PTR [edx+12]
  00f30	3b f4		 cmp	 esi, esp
  00f32	e8 00 00 00 00	 call	 __RTC_CheckEsp
  00f37	89 85 68 ff ff
	ff		 mov	 DWORD PTR tv141[ebp], eax
  00f3d	8b 4d f0	 mov	 ecx, DWORD PTR _this$[ebp]
  00f40	e8 00 00 00 00	 call	 ?GetParent@CWnd@@QBEPAV1@XZ ; CWnd::GetParent
  00f45	8b f4		 mov	 esi, esp
  00f47	50		 push	 eax
  00f48	8b 85 68 ff ff
	ff		 mov	 eax, DWORD PTR tv141[ebp]
  00f4e	8b 10		 mov	 edx, DWORD PTR [eax]
  00f50	8b 8d 68 ff ff
	ff		 mov	 ecx, DWORD PTR tv141[ebp]
  00f56	ff 52 0c	 call	 DWORD PTR [edx+12]
  00f59	3b f4		 cmp	 esi, esp
  00f5b	e8 00 00 00 00	 call	 __RTC_CheckEsp
$L194364:

; 113  : 	}	
; 114  : 	YL_Log("CGameCtrlWnd.txt", LOG_DEBUG, "CGameCtrlWnd::OnClickedFullScreen", "===OUT");

  00f60	8b f4		 mov	 esi, esp
  00f62	68 00 00 00 00	 push	 OFFSET FLAT:$SG194369
  00f67	8d 4d 9c	 lea	 ecx, DWORD PTR $T195451[ebp]
  00f6a	ff 15 00 00 00
	00		 call	 DWORD PTR __imp_??0?$basic_string@DU?$char_traits@D@std@@V?$allocator@D@2@@std@@QAE@PBD@Z
  00f70	3b f4		 cmp	 esi, esp
  00f72	e8 00 00 00 00	 call	 __RTC_CheckEsp
  00f77	c7 45 fc 02 00
	00 00		 mov	 DWORD PTR __$EHRec$[ebp+8], 2
  00f7e	8b f4		 mov	 esi, esp
  00f80	68 00 00 00 00	 push	 OFFSET FLAT:$SG194370
  00f85	8d 4d 80	 lea	 ecx, DWORD PTR $T195452[ebp]
  00f88	ff 15 00 00 00
	00		 call	 DWORD PTR __imp_??0?$basic_string@DU?$char_traits@D@std@@V?$allocator@D@2@@std@@QAE@PBD@Z
  00f8e	3b f4		 cmp	 esi, esp
  00f90	e8 00 00 00 00	 call	 __RTC_CheckEsp
  00f95	c6 45 fc 03	 mov	 BYTE PTR __$EHRec$[ebp+8], 3
  00f99	8b f4		 mov	 esi, esp
  00f9b	68 00 00 00 00	 push	 OFFSET FLAT:$SG194368
  00fa0	8d 45 9c	 lea	 eax, DWORD PTR $T195451[ebp]
  00fa3	50		 push	 eax
  00fa4	6a 00		 push	 0
  00fa6	8d 4d 80	 lea	 ecx, DWORD PTR $T195452[ebp]
  00fa9	51		 push	 ecx
  00faa	ff 15 00 00 00
	00		 call	 DWORD PTR __imp_?YL_Log@@YAXABV?$basic_string@DU?$char_traits@D@std@@V?$allocator@D@2@@std@@H0PBDZZ
  00fb0	83 c4 10	 add	 esp, 16			; 00000010H
  00fb3	3b f4		 cmp	 esi, esp
  00fb5	e8 00 00 00 00	 call	 __RTC_CheckEsp
  00fba	c6 45 fc 02	 mov	 BYTE PTR __$EHRec$[ebp+8], 2
  00fbe	8b f4		 mov	 esi, esp
  00fc0	8d 4d 80	 lea	 ecx, DWORD PTR $T195452[ebp]
  00fc3	ff 15 00 00 00
	00		 call	 DWORD PTR __imp_??1?$basic_string@DU?$char_traits@D@std@@V?$allocator@D@2@@std@@QAE@XZ
  00fc9	3b f4		 cmp	 esi, esp
  00fcb	e8 00 00 00 00	 call	 __RTC_CheckEsp
  00fd0	c7 45 fc ff ff
	ff ff		 mov	 DWORD PTR __$EHRec$[ebp+8], -1
  00fd7	8b f4		 mov	 esi, esp
  00fd9	8d 4d 9c	 lea	 ecx, DWORD PTR $T195451[ebp]
  00fdc	ff 15 00 00 00
	00		 call	 DWORD PTR __imp_??1?$basic_string@DU?$char_traits@D@std@@V?$allocator@D@2@@std@@QAE@XZ
  00fe2	3b f4		 cmp	 esi, esp
  00fe4	e8 00 00 00 00	 call	 __RTC_CheckEsp

; 115  : }

  00fe9	8b 4d f4	 mov	 ecx, DWORD PTR __$EHRec$[ebp]
  00fec	64 89 0d 00 00
	00 00		 mov	 DWORD PTR fs:__except_list, ecx
  00ff3	5f		 pop	 edi
  00ff4	5e		 pop	 esi
  00ff5	81 c4 98 00 00
	00		 add	 esp, 152		; 00000098H
  00ffb	3b ec		 cmp	 ebp, esp
  00ffd	e8 00 00 00 00	 call	 __RTC_CheckEsp
  01002	8b e5		 mov	 esp, ebp
  01004	5d		 pop	 ebp
  01005	c3		 ret	 0
_TEXT	ENDS
text$x	SEGMENT
$L195453:
  001c9	8b f4		 mov	 esi, esp
  001cb	8d 4d d4	 lea	 ecx, DWORD PTR $T195449[ebp]
  001ce	ff 15 00 00 00
	00		 call	 DWORD PTR __imp_??1?$basic_string@DU?$char_traits@D@std@@V?$allocator@D@2@@std@@QAE@XZ
  001d4	3b f4		 cmp	 esi, esp
  001d6	e9 00 00 00 00	 jmp	 __RTC_CheckEsp
$L195454:
  001db	8b f4		 mov	 esi, esp
  001dd	8d 4d b8	 lea	 ecx, DWORD PTR $T195450[ebp]
  001e0	ff 15 00 00 00
	00		 call	 DWORD PTR __imp_??1?$basic_string@DU?$char_traits@D@std@@V?$allocator@D@2@@std@@QAE@XZ
  001e6	3b f4		 cmp	 esi, esp
  001e8	e9 00 00 00 00	 jmp	 __RTC_CheckEsp
$L195455:
  001ed	8b f4		 mov	 esi, esp
  001ef	8d 4d 9c	 lea	 ecx, DWORD PTR $T195451[ebp]
  001f2	ff 15 00 00 00
	00		 call	 DWORD PTR __imp_??1?$basic_string@DU?$char_traits@D@std@@V?$allocator@D@2@@std@@QAE@XZ
  001f8	3b f4		 cmp	 esi, esp
  001fa	e9 00 00 00 00	 jmp	 __RTC_CheckEsp
$L195456:
  001ff	8b f4		 mov	 esi, esp
  00201	8d 4d 80	 lea	 ecx, DWORD PTR $T195452[ebp]
  00204	ff 15 00 00 00
	00		 call	 DWORD PTR __imp_??1?$basic_string@DU?$char_traits@D@std@@V?$allocator@D@2@@std@@QAE@XZ
  0020a	3b f4		 cmp	 esi, esp
  0020c	e9 00 00 00 00	 jmp	 __RTC_CheckEsp
__ehhandler$?OnClickedExitFullScreen@CGameCtrlWnd@@IAEXXZ:
  00211	b8 00 00 00 00	 mov	 eax, OFFSET FLAT:$T195458
  00216	e9 00 00 00 00	 jmp	 ___CxxFrameHandler
text$x	ENDS
?OnClickedExitFullScreen@CGameCtrlWnd@@IAEXXZ ENDP	; CGameCtrlWnd::OnClickedExitFullScreen
EXTRN	?GetMute@CSound@@QAE_NJ@Z:NEAR			; CSound::GetMute
EXTRN	?GetInstance@CSound@@SAPAV1@XZ:NEAR		; CSound::GetInstance
EXTRN	?Invalidate@CWnd@@QAEXH@Z:NEAR			; CWnd::Invalidate
EXTRN	?ShowWindow@CWnd@@QAEHH@Z:NEAR			; CWnd::ShowWindow
xdata$x	SEGMENT
$T195473 DD	0ffffffffH
	DD	FLAT:$L195466
	DD	00H
	DD	FLAT:$L195467
	DD	0ffffffffH
	DD	FLAT:$L195468
	DD	02H
	DD	FLAT:$L195469
$T195471 DD	019930520H
	DD	04H
	DD	FLAT:$T195473
	DD	2 DUP(00H)
	DD	2 DUP(00H)
; Function compile flags: /Odt /RTCsu
xdata$x	ENDS
_TEXT	SEGMENT
tv146 = -136						; size = 4
tv140 = -132						; size = 4
$T195465 = -128						; size = 28
$T195464 = -100						; size = 28
$T195463 = -72						; size = 28
$T195462 = -44						; size = 28
_this$ = -16						; size = 4
__$EHRec$ = -12						; size = 12
?UpdateAllWnd@CGameCtrlWnd@@QAEXXZ PROC NEAR		; CGameCtrlWnd::UpdateAllWnd
; _this$ = ecx

; 118  : {

  01010	55		 push	 ebp
  01011	8b ec		 mov	 ebp, esp
  01013	6a ff		 push	 -1
  01015	68 00 00 00 00	 push	 __ehhandler$?UpdateAllWnd@CGameCtrlWnd@@QAEXXZ
  0101a	64 a1 00 00 00
	00		 mov	 eax, DWORD PTR fs:__except_list
  01020	50		 push	 eax
  01021	64 89 25 00 00
	00 00		 mov	 DWORD PTR fs:__except_list, esp
  01028	83 ec 7c	 sub	 esp, 124		; 0000007cH
  0102b	56		 push	 esi
  0102c	57		 push	 edi
  0102d	51		 push	 ecx
  0102e	8d bd 78 ff ff
	ff		 lea	 edi, DWORD PTR [ebp-136]
  01034	b9 1f 00 00 00	 mov	 ecx, 31			; 0000001fH
  01039	b8 cc cc cc cc	 mov	 eax, -858993460		; ccccccccH
  0103e	f3 ab		 rep stosd
  01040	59		 pop	 ecx
  01041	89 4d f0	 mov	 DWORD PTR _this$[ebp], ecx

; 119  : 	YL_Log("CGameCtrlWnd.txt", LOG_DEBUG, "CGameCtrlWnd::UpdateAllWnd", "===IN");

  01044	8b f4		 mov	 esi, esp
  01046	68 00 00 00 00	 push	 OFFSET FLAT:$SG194377
  0104b	8d 4d d4	 lea	 ecx, DWORD PTR $T195462[ebp]
  0104e	ff 15 00 00 00
	00		 call	 DWORD PTR __imp_??0?$basic_string@DU?$char_traits@D@std@@V?$allocator@D@2@@std@@QAE@PBD@Z
  01054	3b f4		 cmp	 esi, esp
  01056	e8 00 00 00 00	 call	 __RTC_CheckEsp
  0105b	c7 45 fc 00 00
	00 00		 mov	 DWORD PTR __$EHRec$[ebp+8], 0
  01062	8b f4		 mov	 esi, esp
  01064	68 00 00 00 00	 push	 OFFSET FLAT:$SG194378
  01069	8d 4d b8	 lea	 ecx, DWORD PTR $T195463[ebp]
  0106c	ff 15 00 00 00
	00		 call	 DWORD PTR __imp_??0?$basic_string@DU?$char_traits@D@std@@V?$allocator@D@2@@std@@QAE@PBD@Z
  01072	3b f4		 cmp	 esi, esp
  01074	e8 00 00 00 00	 call	 __RTC_CheckEsp
  01079	c6 45 fc 01	 mov	 BYTE PTR __$EHRec$[ebp+8], 1
  0107d	8b f4		 mov	 esi, esp
  0107f	68 00 00 00 00	 push	 OFFSET FLAT:$SG194376
  01084	8d 45 d4	 lea	 eax, DWORD PTR $T195462[ebp]
  01087	50		 push	 eax
  01088	6a 00		 push	 0
  0108a	8d 4d b8	 lea	 ecx, DWORD PTR $T195463[ebp]
  0108d	51		 push	 ecx
  0108e	ff 15 00 00 00
	00		 call	 DWORD PTR __imp_?YL_Log@@YAXABV?$basic_string@DU?$char_traits@D@std@@V?$allocator@D@2@@std@@H0PBDZZ
  01094	83 c4 10	 add	 esp, 16			; 00000010H
  01097	3b f4		 cmp	 esi, esp
  01099	e8 00 00 00 00	 call	 __RTC_CheckEsp
  0109e	c6 45 fc 00	 mov	 BYTE PTR __$EHRec$[ebp+8], 0
  010a2	8b f4		 mov	 esi, esp
  010a4	8d 4d b8	 lea	 ecx, DWORD PTR $T195463[ebp]
  010a7	ff 15 00 00 00
	00		 call	 DWORD PTR __imp_??1?$basic_string@DU?$char_traits@D@std@@V?$allocator@D@2@@std@@QAE@XZ
  010ad	3b f4		 cmp	 esi, esp
  010af	e8 00 00 00 00	 call	 __RTC_CheckEsp
  010b4	c7 45 fc ff ff
	ff ff		 mov	 DWORD PTR __$EHRec$[ebp+8], -1
  010bb	8b f4		 mov	 esi, esp
  010bd	8d 4d d4	 lea	 ecx, DWORD PTR $T195462[ebp]
  010c0	ff 15 00 00 00
	00		 call	 DWORD PTR __imp_??1?$basic_string@DU?$char_traits@D@std@@V?$allocator@D@2@@std@@QAE@XZ
  010c6	3b f4		 cmp	 esi, esp
  010c8	e8 00 00 00 00	 call	 __RTC_CheckEsp

; 120  : 	//
; 121  : 	m_pBtnRePlay->ShowWindow( SW_SHOW );

  010cd	6a 05		 push	 5
  010cf	8b 55 f0	 mov	 edx, DWORD PTR _this$[ebp]
  010d2	8b 4a 70	 mov	 ecx, DWORD PTR [edx+112]
  010d5	e8 00 00 00 00	 call	 ?ShowWindow@CWnd@@QAEHH@Z ; CWnd::ShowWindow

; 122  : 	m_pBtnRePlay->Invalidate();

  010da	6a 01		 push	 1
  010dc	8b 45 f0	 mov	 eax, DWORD PTR _this$[ebp]
  010df	8b 48 70	 mov	 ecx, DWORD PTR [eax+112]
  010e2	e8 00 00 00 00	 call	 ?Invalidate@CWnd@@QAEXH@Z ; CWnd::Invalidate

; 123  : 	//
; 124  : 	if( CSound::GetInstance()->GetMute( 1 ) )

  010e7	6a 01		 push	 1
  010e9	e8 00 00 00 00	 call	 ?GetInstance@CSound@@SAPAV1@XZ ; CSound::GetInstance
  010ee	8b c8		 mov	 ecx, eax
  010f0	e8 00 00 00 00	 call	 ?GetMute@CSound@@QAE_NJ@Z ; CSound::GetMute
  010f5	0f b6 c8	 movzx	 ecx, al
  010f8	85 c9		 test	 ecx, ecx
  010fa	74 1c		 je	 SHORT $L194379

; 125  : 	{
; 126  : 		m_pBtnMute->ShowWindow( SW_HIDE );

  010fc	6a 00		 push	 0
  010fe	8b 55 f0	 mov	 edx, DWORD PTR _this$[ebp]
  01101	8b 4a 74	 mov	 ecx, DWORD PTR [edx+116]
  01104	e8 00 00 00 00	 call	 ?ShowWindow@CWnd@@QAEHH@Z ; CWnd::ShowWindow

; 127  : 		m_pBtnUnMute->ShowWindow( SW_SHOW );

  01109	6a 05		 push	 5
  0110b	8b 45 f0	 mov	 eax, DWORD PTR _this$[ebp]
  0110e	8b 48 78	 mov	 ecx, DWORD PTR [eax+120]
  01111	e8 00 00 00 00	 call	 ?ShowWindow@CWnd@@QAEHH@Z ; CWnd::ShowWindow

; 128  : 	}else

  01116	eb 1a		 jmp	 SHORT $L194380
$L194379:

; 129  : 	{
; 130  : 		m_pBtnMute->ShowWindow( SW_SHOW );

  01118	6a 05		 push	 5
  0111a	8b 4d f0	 mov	 ecx, DWORD PTR _this$[ebp]
  0111d	8b 49 74	 mov	 ecx, DWORD PTR [ecx+116]
  01120	e8 00 00 00 00	 call	 ?ShowWindow@CWnd@@QAEHH@Z ; CWnd::ShowWindow

; 131  : 		m_pBtnUnMute->ShowWindow( SW_HIDE );

  01125	6a 00		 push	 0
  01127	8b 55 f0	 mov	 edx, DWORD PTR _this$[ebp]
  0112a	8b 4a 78	 mov	 ecx, DWORD PTR [edx+120]
  0112d	e8 00 00 00 00	 call	 ?ShowWindow@CWnd@@QAEHH@Z ; CWnd::ShowWindow
$L194380:

; 132  : 	}
; 133  : 	//
; 134  : 	if( GLOBAL_PANELCHANGEDATA->IPanelChange_IsFullScreen() )

  01132	e8 00 00 00 00	 call	 ?AfxGetDataManager2@@YAPAVIDataManager@@XZ ; AfxGetDataManager2
  01137	89 85 7c ff ff
	ff		 mov	 DWORD PTR tv140[ebp], eax
  0113d	8b f4		 mov	 esi, esp
  0113f	68 00 00 00 00	 push	 OFFSET FLAT:_ID_DATA_PANELCHANGE
  01144	8b 85 7c ff ff
	ff		 mov	 eax, DWORD PTR tv140[ebp]
  0114a	8b 10		 mov	 edx, DWORD PTR [eax]
  0114c	8b 8d 7c ff ff
	ff		 mov	 ecx, DWORD PTR tv140[ebp]
  01152	ff 52 0c	 call	 DWORD PTR [edx+12]
  01155	3b f4		 cmp	 esi, esp
  01157	e8 00 00 00 00	 call	 __RTC_CheckEsp
  0115c	89 85 78 ff ff
	ff		 mov	 DWORD PTR tv146[ebp], eax
  01162	8b 85 78 ff ff
	ff		 mov	 eax, DWORD PTR tv146[ebp]
  01168	8b 10		 mov	 edx, DWORD PTR [eax]
  0116a	8b f4		 mov	 esi, esp
  0116c	8b 8d 78 ff ff
	ff		 mov	 ecx, DWORD PTR tv146[ebp]
  01172	ff 52 14	 call	 DWORD PTR [edx+20]
  01175	3b f4		 cmp	 esi, esp
  01177	e8 00 00 00 00	 call	 __RTC_CheckEsp
  0117c	0f b6 c0	 movzx	 eax, al
  0117f	85 c0		 test	 eax, eax
  01181	74 1f		 je	 SHORT $L194382

; 135  : 	{
; 136  : 		m_pBtnToFullScreen->ShowWindow( SW_HIDE );

  01183	6a 00		 push	 0
  01185	8b 4d f0	 mov	 ecx, DWORD PTR _this$[ebp]
  01188	8b 49 7c	 mov	 ecx, DWORD PTR [ecx+124]
  0118b	e8 00 00 00 00	 call	 ?ShowWindow@CWnd@@QAEHH@Z ; CWnd::ShowWindow

; 137  : 		m_pBtnExitFullScreen->ShowWindow( SW_SHOW );

  01190	6a 05		 push	 5
  01192	8b 55 f0	 mov	 edx, DWORD PTR _this$[ebp]
  01195	8b 8a 80 00 00
	00		 mov	 ecx, DWORD PTR [edx+128]
  0119b	e8 00 00 00 00	 call	 ?ShowWindow@CWnd@@QAEHH@Z ; CWnd::ShowWindow

; 138  : 	}else

  011a0	eb 1d		 jmp	 SHORT $L194383
$L194382:

; 139  : 	{
; 140  : 		m_pBtnToFullScreen->ShowWindow( SW_SHOW );

  011a2	6a 05		 push	 5
  011a4	8b 45 f0	 mov	 eax, DWORD PTR _this$[ebp]
  011a7	8b 48 7c	 mov	 ecx, DWORD PTR [eax+124]
  011aa	e8 00 00 00 00	 call	 ?ShowWindow@CWnd@@QAEHH@Z ; CWnd::ShowWindow

; 141  : 		m_pBtnExitFullScreen->ShowWindow( SW_HIDE );

  011af	6a 00		 push	 0
  011b1	8b 4d f0	 mov	 ecx, DWORD PTR _this$[ebp]
  011b4	8b 89 80 00 00
	00		 mov	 ecx, DWORD PTR [ecx+128]
  011ba	e8 00 00 00 00	 call	 ?ShowWindow@CWnd@@QAEHH@Z ; CWnd::ShowWindow
$L194383:

; 142  : 	}
; 143  : 	
; 144  : 	YL_Log("CGameCtrlWnd.txt", LOG_DEBUG, "CGameCtrlWnd::UpdateAllWnd", "===OUT");

  011bf	8b f4		 mov	 esi, esp
  011c1	68 00 00 00 00	 push	 OFFSET FLAT:$SG194387
  011c6	8d 4d 9c	 lea	 ecx, DWORD PTR $T195464[ebp]
  011c9	ff 15 00 00 00
	00		 call	 DWORD PTR __imp_??0?$basic_string@DU?$char_traits@D@std@@V?$allocator@D@2@@std@@QAE@PBD@Z
  011cf	3b f4		 cmp	 esi, esp
  011d1	e8 00 00 00 00	 call	 __RTC_CheckEsp
  011d6	c7 45 fc 02 00
	00 00		 mov	 DWORD PTR __$EHRec$[ebp+8], 2
  011dd	8b f4		 mov	 esi, esp
  011df	68 00 00 00 00	 push	 OFFSET FLAT:$SG194388
  011e4	8d 4d 80	 lea	 ecx, DWORD PTR $T195465[ebp]
  011e7	ff 15 00 00 00
	00		 call	 DWORD PTR __imp_??0?$basic_string@DU?$char_traits@D@std@@V?$allocator@D@2@@std@@QAE@PBD@Z
  011ed	3b f4		 cmp	 esi, esp
  011ef	e8 00 00 00 00	 call	 __RTC_CheckEsp
  011f4	c6 45 fc 03	 mov	 BYTE PTR __$EHRec$[ebp+8], 3
  011f8	8b f4		 mov	 esi, esp
  011fa	68 00 00 00 00	 push	 OFFSET FLAT:$SG194386
  011ff	8d 55 9c	 lea	 edx, DWORD PTR $T195464[ebp]
  01202	52		 push	 edx
  01203	6a 00		 push	 0
  01205	8d 45 80	 lea	 eax, DWORD PTR $T195465[ebp]
  01208	50		 push	 eax
  01209	ff 15 00 00 00
	00		 call	 DWORD PTR __imp_?YL_Log@@YAXABV?$basic_string@DU?$char_traits@D@std@@V?$allocator@D@2@@std@@H0PBDZZ
  0120f	83 c4 10	 add	 esp, 16			; 00000010H
  01212	3b f4		 cmp	 esi, esp
  01214	e8 00 00 00 00	 call	 __RTC_CheckEsp
  01219	c6 45 fc 02	 mov	 BYTE PTR __$EHRec$[ebp+8], 2
  0121d	8b f4		 mov	 esi, esp
  0121f	8d 4d 80	 lea	 ecx, DWORD PTR $T195465[ebp]
  01222	ff 15 00 00 00
	00		 call	 DWORD PTR __imp_??1?$basic_string@DU?$char_traits@D@std@@V?$allocator@D@2@@std@@QAE@XZ
  01228	3b f4		 cmp	 esi, esp
  0122a	e8 00 00 00 00	 call	 __RTC_CheckEsp
  0122f	c7 45 fc ff ff
	ff ff		 mov	 DWORD PTR __$EHRec$[ebp+8], -1
  01236	8b f4		 mov	 esi, esp
  01238	8d 4d 9c	 lea	 ecx, DWORD PTR $T195464[ebp]
  0123b	ff 15 00 00 00
	00		 call	 DWORD PTR __imp_??1?$basic_string@DU?$char_traits@D@std@@V?$allocator@D@2@@std@@QAE@XZ
  01241	3b f4		 cmp	 esi, esp
  01243	e8 00 00 00 00	 call	 __RTC_CheckEsp

; 145  : }

  01248	8b 4d f4	 mov	 ecx, DWORD PTR __$EHRec$[ebp]
  0124b	64 89 0d 00 00
	00 00		 mov	 DWORD PTR fs:__except_list, ecx
  01252	5f		 pop	 edi
  01253	5e		 pop	 esi
  01254	81 c4 88 00 00
	00		 add	 esp, 136		; 00000088H
  0125a	3b ec		 cmp	 ebp, esp
  0125c	e8 00 00 00 00	 call	 __RTC_CheckEsp
  01261	8b e5		 mov	 esp, ebp
  01263	5d		 pop	 ebp
  01264	c3		 ret	 0
_TEXT	ENDS
text$x	SEGMENT
$L195466:
  0021b	8b f4		 mov	 esi, esp
  0021d	8d 4d d4	 lea	 ecx, DWORD PTR $T195462[ebp]
  00220	ff 15 00 00 00
	00		 call	 DWORD PTR __imp_??1?$basic_string@DU?$char_traits@D@std@@V?$allocator@D@2@@std@@QAE@XZ
  00226	3b f4		 cmp	 esi, esp
  00228	e9 00 00 00 00	 jmp	 __RTC_CheckEsp
$L195467:
  0022d	8b f4		 mov	 esi, esp
  0022f	8d 4d b8	 lea	 ecx, DWORD PTR $T195463[ebp]
  00232	ff 15 00 00 00
	00		 call	 DWORD PTR __imp_??1?$basic_string@DU?$char_traits@D@std@@V?$allocator@D@2@@std@@QAE@XZ
  00238	3b f4		 cmp	 esi, esp
  0023a	e9 00 00 00 00	 jmp	 __RTC_CheckEsp
$L195468:
  0023f	8b f4		 mov	 esi, esp
  00241	8d 4d 9c	 lea	 ecx, DWORD PTR $T195464[ebp]
  00244	ff 15 00 00 00
	00		 call	 DWORD PTR __imp_??1?$basic_string@DU?$char_traits@D@std@@V?$allocator@D@2@@std@@QAE@XZ
  0024a	3b f4		 cmp	 esi, esp
  0024c	e9 00 00 00 00	 jmp	 __RTC_CheckEsp
$L195469:
  00251	8b f4		 mov	 esi, esp
  00253	8d 4d 80	 lea	 ecx, DWORD PTR $T195465[ebp]
  00256	ff 15 00 00 00
	00		 call	 DWORD PTR __imp_??1?$basic_string@DU?$char_traits@D@std@@V?$allocator@D@2@@std@@QAE@XZ
  0025c	3b f4		 cmp	 esi, esp
  0025e	e9 00 00 00 00	 jmp	 __RTC_CheckEsp
__ehhandler$?UpdateAllWnd@CGameCtrlWnd@@QAEXXZ:
  00263	b8 00 00 00 00	 mov	 eax, OFFSET FLAT:$T195471
  00268	e9 00 00 00 00	 jmp	 ___CxxFrameHandler
text$x	ENDS
?UpdateAllWnd@CGameCtrlWnd@@QAEXXZ ENDP			; CGameCtrlWnd::UpdateAllWnd
EXTRN	?SetMute@CSound@@QAE_NJ_N@Z:NEAR		; CSound::SetMute
xdata$x	SEGMENT
$T195486 DD	0ffffffffH
	DD	FLAT:$L195479
	DD	00H
	DD	FLAT:$L195480
	DD	0ffffffffH
	DD	FLAT:$L195481
	DD	02H
	DD	FLAT:$L195482
$T195484 DD	019930520H
	DD	04H
	DD	FLAT:$T195486
	DD	2 DUP(00H)
	DD	2 DUP(00H)
; Function compile flags: /Odt /RTCsu
xdata$x	ENDS
_TEXT	SEGMENT
$T195478 = -128						; size = 28
$T195477 = -100						; size = 28
$T195476 = -72						; size = 28
$T195475 = -44						; size = 28
_this$ = -16						; size = 4
__$EHRec$ = -12						; size = 12
?OnClickedMute@CGameCtrlWnd@@IAEXXZ PROC NEAR		; CGameCtrlWnd::OnClickedMute
; _this$ = ecx

; 148  : {

  01270	55		 push	 ebp
  01271	8b ec		 mov	 ebp, esp
  01273	6a ff		 push	 -1
  01275	68 00 00 00 00	 push	 __ehhandler$?OnClickedMute@CGameCtrlWnd@@IAEXXZ
  0127a	64 a1 00 00 00
	00		 mov	 eax, DWORD PTR fs:__except_list
  01280	50		 push	 eax
  01281	64 89 25 00 00
	00 00		 mov	 DWORD PTR fs:__except_list, esp
  01288	83 ec 74	 sub	 esp, 116		; 00000074H
  0128b	56		 push	 esi
  0128c	57		 push	 edi
  0128d	51		 push	 ecx
  0128e	8d 7d 80	 lea	 edi, DWORD PTR [ebp-128]
  01291	b9 1d 00 00 00	 mov	 ecx, 29			; 0000001dH
  01296	b8 cc cc cc cc	 mov	 eax, -858993460		; ccccccccH
  0129b	f3 ab		 rep stosd
  0129d	59		 pop	 ecx
  0129e	89 4d f0	 mov	 DWORD PTR _this$[ebp], ecx

; 149  : 	YL_Log("CGameCtrlWnd.txt", LOG_DEBUG, "CGameCtrlWnd::OnClickedMute", "===IN");

  012a1	8b f4		 mov	 esi, esp
  012a3	68 00 00 00 00	 push	 OFFSET FLAT:$SG194395
  012a8	8d 4d d4	 lea	 ecx, DWORD PTR $T195475[ebp]
  012ab	ff 15 00 00 00
	00		 call	 DWORD PTR __imp_??0?$basic_string@DU?$char_traits@D@std@@V?$allocator@D@2@@std@@QAE@PBD@Z
  012b1	3b f4		 cmp	 esi, esp
  012b3	e8 00 00 00 00	 call	 __RTC_CheckEsp
  012b8	c7 45 fc 00 00
	00 00		 mov	 DWORD PTR __$EHRec$[ebp+8], 0
  012bf	8b f4		 mov	 esi, esp
  012c1	68 00 00 00 00	 push	 OFFSET FLAT:$SG194396
  012c6	8d 4d b8	 lea	 ecx, DWORD PTR $T195476[ebp]
  012c9	ff 15 00 00 00
	00		 call	 DWORD PTR __imp_??0?$basic_string@DU?$char_traits@D@std@@V?$allocator@D@2@@std@@QAE@PBD@Z
  012cf	3b f4		 cmp	 esi, esp
  012d1	e8 00 00 00 00	 call	 __RTC_CheckEsp
  012d6	c6 45 fc 01	 mov	 BYTE PTR __$EHRec$[ebp+8], 1
  012da	8b f4		 mov	 esi, esp
  012dc	68 00 00 00 00	 push	 OFFSET FLAT:$SG194394
  012e1	8d 45 d4	 lea	 eax, DWORD PTR $T195475[ebp]
  012e4	50		 push	 eax
  012e5	6a 00		 push	 0
  012e7	8d 4d b8	 lea	 ecx, DWORD PTR $T195476[ebp]
  012ea	51		 push	 ecx
  012eb	ff 15 00 00 00
	00		 call	 DWORD PTR __imp_?YL_Log@@YAXABV?$basic_string@DU?$char_traits@D@std@@V?$allocator@D@2@@std@@H0PBDZZ
  012f1	83 c4 10	 add	 esp, 16			; 00000010H
  012f4	3b f4		 cmp	 esi, esp
  012f6	e8 00 00 00 00	 call	 __RTC_CheckEsp
  012fb	c6 45 fc 00	 mov	 BYTE PTR __$EHRec$[ebp+8], 0
  012ff	8b f4		 mov	 esi, esp
  01301	8d 4d b8	 lea	 ecx, DWORD PTR $T195476[ebp]
  01304	ff 15 00 00 00
	00		 call	 DWORD PTR __imp_??1?$basic_string@DU?$char_traits@D@std@@V?$allocator@D@2@@std@@QAE@XZ
  0130a	3b f4		 cmp	 esi, esp
  0130c	e8 00 00 00 00	 call	 __RTC_CheckEsp
  01311	c7 45 fc ff ff
	ff ff		 mov	 DWORD PTR __$EHRec$[ebp+8], -1
  01318	8b f4		 mov	 esi, esp
  0131a	8d 4d d4	 lea	 ecx, DWORD PTR $T195475[ebp]
  0131d	ff 15 00 00 00
	00		 call	 DWORD PTR __imp_??1?$basic_string@DU?$char_traits@D@std@@V?$allocator@D@2@@std@@QAE@XZ
  01323	3b f4		 cmp	 esi, esp
  01325	e8 00 00 00 00	 call	 __RTC_CheckEsp

; 150  : 	if( CSound::GetInstance()->GetMute( 1 ) )

  0132a	6a 01		 push	 1
  0132c	e8 00 00 00 00	 call	 ?GetInstance@CSound@@SAPAV1@XZ ; CSound::GetInstance
  01331	8b c8		 mov	 ecx, eax
  01333	e8 00 00 00 00	 call	 ?GetMute@CSound@@QAE_NJ@Z ; CSound::GetMute
  01338	0f b6 d0	 movzx	 edx, al
  0133b	85 d2		 test	 edx, edx
  0133d	74 12		 je	 SHORT $L194397

; 151  : 	{
; 152  : 		CSound::GetInstance()->SetMute( 1, false );

  0133f	6a 00		 push	 0
  01341	6a 01		 push	 1
  01343	e8 00 00 00 00	 call	 ?GetInstance@CSound@@SAPAV1@XZ ; CSound::GetInstance
  01348	8b c8		 mov	 ecx, eax
  0134a	e8 00 00 00 00	 call	 ?SetMute@CSound@@QAE_NJ_N@Z ; CSound::SetMute

; 153  : 	}else

  0134f	eb 10		 jmp	 SHORT $L194398
$L194397:

; 154  : 	{
; 155  : 		CSound::GetInstance()->SetMute( 1, true );

  01351	6a 01		 push	 1
  01353	6a 01		 push	 1
  01355	e8 00 00 00 00	 call	 ?GetInstance@CSound@@SAPAV1@XZ ; CSound::GetInstance
  0135a	8b c8		 mov	 ecx, eax
  0135c	e8 00 00 00 00	 call	 ?SetMute@CSound@@QAE_NJ_N@Z ; CSound::SetMute
$L194398:

; 156  : 	}
; 157  : 	UpdateAllWnd();

  01361	8b 4d f0	 mov	 ecx, DWORD PTR _this$[ebp]
  01364	e8 00 00 00 00	 call	 ?UpdateAllWnd@CGameCtrlWnd@@QAEXXZ ; CGameCtrlWnd::UpdateAllWnd

; 158  : 	YL_Log("CGameCtrlWnd.txt", LOG_DEBUG, "CGameCtrlWnd::OnClickedMute", "===OUT");

  01369	8b f4		 mov	 esi, esp
  0136b	68 00 00 00 00	 push	 OFFSET FLAT:$SG194402
  01370	8d 4d 9c	 lea	 ecx, DWORD PTR $T195477[ebp]
  01373	ff 15 00 00 00
	00		 call	 DWORD PTR __imp_??0?$basic_string@DU?$char_traits@D@std@@V?$allocator@D@2@@std@@QAE@PBD@Z
  01379	3b f4		 cmp	 esi, esp
  0137b	e8 00 00 00 00	 call	 __RTC_CheckEsp
  01380	c7 45 fc 02 00
	00 00		 mov	 DWORD PTR __$EHRec$[ebp+8], 2
  01387	8b f4		 mov	 esi, esp
  01389	68 00 00 00 00	 push	 OFFSET FLAT:$SG194403
  0138e	8d 4d 80	 lea	 ecx, DWORD PTR $T195478[ebp]
  01391	ff 15 00 00 00
	00		 call	 DWORD PTR __imp_??0?$basic_string@DU?$char_traits@D@std@@V?$allocator@D@2@@std@@QAE@PBD@Z
  01397	3b f4		 cmp	 esi, esp
  01399	e8 00 00 00 00	 call	 __RTC_CheckEsp
  0139e	c6 45 fc 03	 mov	 BYTE PTR __$EHRec$[ebp+8], 3
  013a2	8b f4		 mov	 esi, esp
  013a4	68 00 00 00 00	 push	 OFFSET FLAT:$SG194401
  013a9	8d 45 9c	 lea	 eax, DWORD PTR $T195477[ebp]
  013ac	50		 push	 eax
  013ad	6a 00		 push	 0
  013af	8d 4d 80	 lea	 ecx, DWORD PTR $T195478[ebp]
  013b2	51		 push	 ecx
  013b3	ff 15 00 00 00
	00		 call	 DWORD PTR __imp_?YL_Log@@YAXABV?$basic_string@DU?$char_traits@D@std@@V?$allocator@D@2@@std@@H0PBDZZ
  013b9	83 c4 10	 add	 esp, 16			; 00000010H
  013bc	3b f4		 cmp	 esi, esp
  013be	e8 00 00 00 00	 call	 __RTC_CheckEsp
  013c3	c6 45 fc 02	 mov	 BYTE PTR __$EHRec$[ebp+8], 2
  013c7	8b f4		 mov	 esi, esp
  013c9	8d 4d 80	 lea	 ecx, DWORD PTR $T195478[ebp]
  013cc	ff 15 00 00 00
	00		 call	 DWORD PTR __imp_??1?$basic_string@DU?$char_traits@D@std@@V?$allocator@D@2@@std@@QAE@XZ
  013d2	3b f4		 cmp	 esi, esp
  013d4	e8 00 00 00 00	 call	 __RTC_CheckEsp
  013d9	c7 45 fc ff ff
	ff ff		 mov	 DWORD PTR __$EHRec$[ebp+8], -1
  013e0	8b f4		 mov	 esi, esp
  013e2	8d 4d 9c	 lea	 ecx, DWORD PTR $T195477[ebp]
  013e5	ff 15 00 00 00
	00		 call	 DWORD PTR __imp_??1?$basic_string@DU?$char_traits@D@std@@V?$allocator@D@2@@std@@QAE@XZ
  013eb	3b f4		 cmp	 esi, esp
  013ed	e8 00 00 00 00	 call	 __RTC_CheckEsp

; 159  : }

  013f2	8b 4d f4	 mov	 ecx, DWORD PTR __$EHRec$[ebp]
  013f5	64 89 0d 00 00
	00 00		 mov	 DWORD PTR fs:__except_list, ecx
  013fc	5f		 pop	 edi
  013fd	5e		 pop	 esi
  013fe	81 c4 80 00 00
	00		 add	 esp, 128		; 00000080H
  01404	3b ec		 cmp	 ebp, esp
  01406	e8 00 00 00 00	 call	 __RTC_CheckEsp
  0140b	8b e5		 mov	 esp, ebp
  0140d	5d		 pop	 ebp
  0140e	c3		 ret	 0
_TEXT	ENDS
text$x	SEGMENT
$L195479:
  0026d	8b f4		 mov	 esi, esp
  0026f	8d 4d d4	 lea	 ecx, DWORD PTR $T195475[ebp]
  00272	ff 15 00 00 00
	00		 call	 DWORD PTR __imp_??1?$basic_string@DU?$char_traits@D@std@@V?$allocator@D@2@@std@@QAE@XZ
  00278	3b f4		 cmp	 esi, esp
  0027a	e9 00 00 00 00	 jmp	 __RTC_CheckEsp
$L195480:
  0027f	8b f4		 mov	 esi, esp
  00281	8d 4d b8	 lea	 ecx, DWORD PTR $T195476[ebp]
  00284	ff 15 00 00 00
	00		 call	 DWORD PTR __imp_??1?$basic_string@DU?$char_traits@D@std@@V?$allocator@D@2@@std@@QAE@XZ
  0028a	3b f4		 cmp	 esi, esp
  0028c	e9 00 00 00 00	 jmp	 __RTC_CheckEsp
$L195481:
  00291	8b f4		 mov	 esi, esp
  00293	8d 4d 9c	 lea	 ecx, DWORD PTR $T195477[ebp]
  00296	ff 15 00 00 00
	00		 call	 DWORD PTR __imp_??1?$basic_string@DU?$char_traits@D@std@@V?$allocator@D@2@@std@@QAE@XZ
  0029c	3b f4		 cmp	 esi, esp
  0029e	e9 00 00 00 00	 jmp	 __RTC_CheckEsp
$L195482:
  002a3	8b f4		 mov	 esi, esp
  002a5	8d 4d 80	 lea	 ecx, DWORD PTR $T195478[ebp]
  002a8	ff 15 00 00 00
	00		 call	 DWORD PTR __imp_??1?$basic_string@DU?$char_traits@D@std@@V?$allocator@D@2@@std@@QAE@XZ
  002ae	3b f4		 cmp	 esi, esp
  002b0	e9 00 00 00 00	 jmp	 __RTC_CheckEsp
__ehhandler$?OnClickedMute@CGameCtrlWnd@@IAEXXZ:
  002b5	b8 00 00 00 00	 mov	 eax, OFFSET FLAT:$T195484
  002ba	e9 00 00 00 00	 jmp	 ___CxxFrameHandler
text$x	ENDS
?OnClickedMute@CGameCtrlWnd@@IAEXXZ ENDP		; CGameCtrlWnd::OnClickedMute
xdata$x	SEGMENT
$T195499 DD	0ffffffffH
	DD	FLAT:$L195492
	DD	00H
	DD	FLAT:$L195493
	DD	0ffffffffH
	DD	FLAT:$L195494
	DD	02H
	DD	FLAT:$L195495
$T195497 DD	019930520H
	DD	04H
	DD	FLAT:$T195499
	DD	2 DUP(00H)
	DD	2 DUP(00H)
; Function compile flags: /Odt /RTCsu
xdata$x	ENDS
_TEXT	SEGMENT
$T195491 = -128						; size = 28
$T195490 = -100						; size = 28
$T195489 = -72						; size = 28
$T195488 = -44						; size = 28
_this$ = -16						; size = 4
__$EHRec$ = -12						; size = 12
?OnClickedUnMute@CGameCtrlWnd@@IAEXXZ PROC NEAR		; CGameCtrlWnd::OnClickedUnMute
; _this$ = ecx

; 163  : {

  01410	55		 push	 ebp
  01411	8b ec		 mov	 ebp, esp
  01413	6a ff		 push	 -1
  01415	68 00 00 00 00	 push	 __ehhandler$?OnClickedUnMute@CGameCtrlWnd@@IAEXXZ
  0141a	64 a1 00 00 00
	00		 mov	 eax, DWORD PTR fs:__except_list
  01420	50		 push	 eax
  01421	64 89 25 00 00
	00 00		 mov	 DWORD PTR fs:__except_list, esp
  01428	83 ec 74	 sub	 esp, 116		; 00000074H
  0142b	56		 push	 esi
  0142c	57		 push	 edi
  0142d	51		 push	 ecx
  0142e	8d 7d 80	 lea	 edi, DWORD PTR [ebp-128]
  01431	b9 1d 00 00 00	 mov	 ecx, 29			; 0000001dH
  01436	b8 cc cc cc cc	 mov	 eax, -858993460		; ccccccccH
  0143b	f3 ab		 rep stosd
  0143d	59		 pop	 ecx
  0143e	89 4d f0	 mov	 DWORD PTR _this$[ebp], ecx

; 164  : 	YL_Log("CGameCtrlWnd.txt", LOG_DEBUG, "CGameCtrlWnd::OnClickedMute", "===IN");

  01441	8b f4		 mov	 esi, esp
  01443	68 00 00 00 00	 push	 OFFSET FLAT:$SG194410
  01448	8d 4d d4	 lea	 ecx, DWORD PTR $T195488[ebp]
  0144b	ff 15 00 00 00
	00		 call	 DWORD PTR __imp_??0?$basic_string@DU?$char_traits@D@std@@V?$allocator@D@2@@std@@QAE@PBD@Z
  01451	3b f4		 cmp	 esi, esp
  01453	e8 00 00 00 00	 call	 __RTC_CheckEsp
  01458	c7 45 fc 00 00
	00 00		 mov	 DWORD PTR __$EHRec$[ebp+8], 0
  0145f	8b f4		 mov	 esi, esp
  01461	68 00 00 00 00	 push	 OFFSET FLAT:$SG194411
  01466	8d 4d b8	 lea	 ecx, DWORD PTR $T195489[ebp]
  01469	ff 15 00 00 00
	00		 call	 DWORD PTR __imp_??0?$basic_string@DU?$char_traits@D@std@@V?$allocator@D@2@@std@@QAE@PBD@Z
  0146f	3b f4		 cmp	 esi, esp
  01471	e8 00 00 00 00	 call	 __RTC_CheckEsp
  01476	c6 45 fc 01	 mov	 BYTE PTR __$EHRec$[ebp+8], 1
  0147a	8b f4		 mov	 esi, esp
  0147c	68 00 00 00 00	 push	 OFFSET FLAT:$SG194409
  01481	8d 45 d4	 lea	 eax, DWORD PTR $T195488[ebp]
  01484	50		 push	 eax
  01485	6a 00		 push	 0
  01487	8d 4d b8	 lea	 ecx, DWORD PTR $T195489[ebp]
  0148a	51		 push	 ecx
  0148b	ff 15 00 00 00
	00		 call	 DWORD PTR __imp_?YL_Log@@YAXABV?$basic_string@DU?$char_traits@D@std@@V?$allocator@D@2@@std@@H0PBDZZ
  01491	83 c4 10	 add	 esp, 16			; 00000010H
  01494	3b f4		 cmp	 esi, esp
  01496	e8 00 00 00 00	 call	 __RTC_CheckEsp
  0149b	c6 45 fc 00	 mov	 BYTE PTR __$EHRec$[ebp+8], 0
  0149f	8b f4		 mov	 esi, esp
  014a1	8d 4d b8	 lea	 ecx, DWORD PTR $T195489[ebp]
  014a4	ff 15 00 00 00
	00		 call	 DWORD PTR __imp_??1?$basic_string@DU?$char_traits@D@std@@V?$allocator@D@2@@std@@QAE@XZ
  014aa	3b f4		 cmp	 esi, esp
  014ac	e8 00 00 00 00	 call	 __RTC_CheckEsp
  014b1	c7 45 fc ff ff
	ff ff		 mov	 DWORD PTR __$EHRec$[ebp+8], -1
  014b8	8b f4		 mov	 esi, esp
  014ba	8d 4d d4	 lea	 ecx, DWORD PTR $T195488[ebp]
  014bd	ff 15 00 00 00
	00		 call	 DWORD PTR __imp_??1?$basic_string@DU?$char_traits@D@std@@V?$allocator@D@2@@std@@QAE@XZ
  014c3	3b f4		 cmp	 esi, esp
  014c5	e8 00 00 00 00	 call	 __RTC_CheckEsp

; 165  : 	if( CSound::GetInstance()->GetMute( 1 ) )

  014ca	6a 01		 push	 1
  014cc	e8 00 00 00 00	 call	 ?GetInstance@CSound@@SAPAV1@XZ ; CSound::GetInstance
  014d1	8b c8		 mov	 ecx, eax
  014d3	e8 00 00 00 00	 call	 ?GetMute@CSound@@QAE_NJ@Z ; CSound::GetMute
  014d8	0f b6 d0	 movzx	 edx, al
  014db	85 d2		 test	 edx, edx
  014dd	74 12		 je	 SHORT $L194412

; 166  : 	{
; 167  : 		CSound::GetInstance()->SetMute( 1, false );

  014df	6a 00		 push	 0
  014e1	6a 01		 push	 1
  014e3	e8 00 00 00 00	 call	 ?GetInstance@CSound@@SAPAV1@XZ ; CSound::GetInstance
  014e8	8b c8		 mov	 ecx, eax
  014ea	e8 00 00 00 00	 call	 ?SetMute@CSound@@QAE_NJ_N@Z ; CSound::SetMute

; 168  : 	}else

  014ef	eb 10		 jmp	 SHORT $L194413
$L194412:

; 169  : 	{
; 170  : 		CSound::GetInstance()->SetMute( 1, true );

  014f1	6a 01		 push	 1
  014f3	6a 01		 push	 1
  014f5	e8 00 00 00 00	 call	 ?GetInstance@CSound@@SAPAV1@XZ ; CSound::GetInstance
  014fa	8b c8		 mov	 ecx, eax
  014fc	e8 00 00 00 00	 call	 ?SetMute@CSound@@QAE_NJ_N@Z ; CSound::SetMute
$L194413:

; 171  : 	}
; 172  : 	UpdateAllWnd();

  01501	8b 4d f0	 mov	 ecx, DWORD PTR _this$[ebp]
  01504	e8 00 00 00 00	 call	 ?UpdateAllWnd@CGameCtrlWnd@@QAEXXZ ; CGameCtrlWnd::UpdateAllWnd

; 173  : 	YL_Log("CGameCtrlWnd.txt", LOG_DEBUG, "CGameCtrlWnd::OnClickedMute", "===OUT");

  01509	8b f4		 mov	 esi, esp
  0150b	68 00 00 00 00	 push	 OFFSET FLAT:$SG194417
  01510	8d 4d 9c	 lea	 ecx, DWORD PTR $T195490[ebp]
  01513	ff 15 00 00 00
	00		 call	 DWORD PTR __imp_??0?$basic_string@DU?$char_traits@D@std@@V?$allocator@D@2@@std@@QAE@PBD@Z
  01519	3b f4		 cmp	 esi, esp
  0151b	e8 00 00 00 00	 call	 __RTC_CheckEsp
  01520	c7 45 fc 02 00
	00 00		 mov	 DWORD PTR __$EHRec$[ebp+8], 2
  01527	8b f4		 mov	 esi, esp
  01529	68 00 00 00 00	 push	 OFFSET FLAT:$SG194418
  0152e	8d 4d 80	 lea	 ecx, DWORD PTR $T195491[ebp]
  01531	ff 15 00 00 00
	00		 call	 DWORD PTR __imp_??0?$basic_string@DU?$char_traits@D@std@@V?$allocator@D@2@@std@@QAE@PBD@Z
  01537	3b f4		 cmp	 esi, esp
  01539	e8 00 00 00 00	 call	 __RTC_CheckEsp
  0153e	c6 45 fc 03	 mov	 BYTE PTR __$EHRec$[ebp+8], 3
  01542	8b f4		 mov	 esi, esp
  01544	68 00 00 00 00	 push	 OFFSET FLAT:$SG194416
  01549	8d 45 9c	 lea	 eax, DWORD PTR $T195490[ebp]
  0154c	50		 push	 eax
  0154d	6a 00		 push	 0
  0154f	8d 4d 80	 lea	 ecx, DWORD PTR $T195491[ebp]
  01552	51		 push	 ecx
  01553	ff 15 00 00 00
	00		 call	 DWORD PTR __imp_?YL_Log@@YAXABV?$basic_string@DU?$char_traits@D@std@@V?$allocator@D@2@@std@@H0PBDZZ
  01559	83 c4 10	 add	 esp, 16			; 00000010H
  0155c	3b f4		 cmp	 esi, esp
  0155e	e8 00 00 00 00	 call	 __RTC_CheckEsp
  01563	c6 45 fc 02	 mov	 BYTE PTR __$EHRec$[ebp+8], 2
  01567	8b f4		 mov	 esi, esp
  01569	8d 4d 80	 lea	 ecx, DWORD PTR $T195491[ebp]
  0156c	ff 15 00 00 00
	00		 call	 DWORD PTR __imp_??1?$basic_string@DU?$char_traits@D@std@@V?$allocator@D@2@@std@@QAE@XZ
  01572	3b f4		 cmp	 esi, esp
  01574	e8 00 00 00 00	 call	 __RTC_CheckEsp
  01579	c7 45 fc ff ff
	ff ff		 mov	 DWORD PTR __$EHRec$[ebp+8], -1
  01580	8b f4		 mov	 esi, esp
  01582	8d 4d 9c	 lea	 ecx, DWORD PTR $T195490[ebp]
  01585	ff 15 00 00 00
	00		 call	 DWORD PTR __imp_??1?$basic_string@DU?$char_traits@D@std@@V?$allocator@D@2@@std@@QAE@XZ
  0158b	3b f4		 cmp	 esi, esp
  0158d	e8 00 00 00 00	 call	 __RTC_CheckEsp

; 174  : }

  01592	8b 4d f4	 mov	 ecx, DWORD PTR __$EHRec$[ebp]
  01595	64 89 0d 00 00
	00 00		 mov	 DWORD PTR fs:__except_list, ecx
  0159c	5f		 pop	 edi
  0159d	5e		 pop	 esi
  0159e	81 c4 80 00 00
	00		 add	 esp, 128		; 00000080H
  015a4	3b ec		 cmp	 ebp, esp
  015a6	e8 00 00 00 00	 call	 __RTC_CheckEsp
  015ab	8b e5		 mov	 esp, ebp
  015ad	5d		 pop	 ebp
  015ae	c3		 ret	 0
_TEXT	ENDS
text$x	SEGMENT
$L195492:
  002bf	8b f4		 mov	 esi, esp
  002c1	8d 4d d4	 lea	 ecx, DWORD PTR $T195488[ebp]
  002c4	ff 15 00 00 00
	00		 call	 DWORD PTR __imp_??1?$basic_string@DU?$char_traits@D@std@@V?$allocator@D@2@@std@@QAE@XZ
  002ca	3b f4		 cmp	 esi, esp
  002cc	e9 00 00 00 00	 jmp	 __RTC_CheckEsp
$L195493:
  002d1	8b f4		 mov	 esi, esp
  002d3	8d 4d b8	 lea	 ecx, DWORD PTR $T195489[ebp]
  002d6	ff 15 00 00 00
	00		 call	 DWORD PTR __imp_??1?$basic_string@DU?$char_traits@D@std@@V?$allocator@D@2@@std@@QAE@XZ
  002dc	3b f4		 cmp	 esi, esp
  002de	e9 00 00 00 00	 jmp	 __RTC_CheckEsp
$L195494:
  002e3	8b f4		 mov	 esi, esp
  002e5	8d 4d 9c	 lea	 ecx, DWORD PTR $T195490[ebp]
  002e8	ff 15 00 00 00
	00		 call	 DWORD PTR __imp_??1?$basic_string@DU?$char_traits@D@std@@V?$allocator@D@2@@std@@QAE@XZ
  002ee	3b f4		 cmp	 esi, esp
  002f0	e9 00 00 00 00	 jmp	 __RTC_CheckEsp
$L195495:
  002f5	8b f4		 mov	 esi, esp
  002f7	8d 4d 80	 lea	 ecx, DWORD PTR $T195491[ebp]
  002fa	ff 15 00 00 00
	00		 call	 DWORD PTR __imp_??1?$basic_string@DU?$char_traits@D@std@@V?$allocator@D@2@@std@@QAE@XZ
  00300	3b f4		 cmp	 esi, esp
  00302	e9 00 00 00 00	 jmp	 __RTC_CheckEsp
__ehhandler$?OnClickedUnMute@CGameCtrlWnd@@IAEXXZ:
  00307	b8 00 00 00 00	 mov	 eax, OFFSET FLAT:$T195497
  0030c	e9 00 00 00 00	 jmp	 ___CxxFrameHandler
text$x	ENDS
?OnClickedUnMute@CGameCtrlWnd@@IAEXXZ ENDP		; CGameCtrlWnd::OnClickedUnMute
EXTRN	?OnShowWindow@CWnd@@IAEXHI@Z:NEAR		; CWnd::OnShowWindow
; Function compile flags: /Odt /RTCsu
_TEXT	SEGMENT
_this$ = -4						; size = 4
_bShow$ = 8						; size = 4
_nStatus$ = 12						; size = 4
?OnShowWindow@CGameCtrlWnd@@IAEXHI@Z PROC NEAR		; CGameCtrlWnd::OnShowWindow
; _this$ = ecx

; 177  : {

  015b0	55		 push	 ebp
  015b1	8b ec		 mov	 ebp, esp
  015b3	51		 push	 ecx
  015b4	c7 45 fc cc cc
	cc cc		 mov	 DWORD PTR [ebp-4], -858993460 ; ccccccccH
  015bb	89 4d fc	 mov	 DWORD PTR _this$[ebp], ecx

; 178  : 	__super::OnShowWindow(bShow, nStatus);

  015be	8b 45 0c	 mov	 eax, DWORD PTR _nStatus$[ebp]
  015c1	50		 push	 eax
  015c2	8b 4d 08	 mov	 ecx, DWORD PTR _bShow$[ebp]
  015c5	51		 push	 ecx
  015c6	8b 4d fc	 mov	 ecx, DWORD PTR _this$[ebp]
  015c9	e8 00 00 00 00	 call	 ?OnShowWindow@CWnd@@IAEXHI@Z ; CWnd::OnShowWindow

; 179  : 	UpdateAllWnd();

  015ce	8b 4d fc	 mov	 ecx, DWORD PTR _this$[ebp]
  015d1	e8 00 00 00 00	 call	 ?UpdateAllWnd@CGameCtrlWnd@@QAEXXZ ; CGameCtrlWnd::UpdateAllWnd

; 180  : }

  015d6	83 c4 04	 add	 esp, 4
  015d9	3b ec		 cmp	 ebp, esp
  015db	e8 00 00 00 00	 call	 __RTC_CheckEsp
  015e0	8b e5		 mov	 esp, ebp
  015e2	5d		 pop	 ebp
  015e3	c2 08 00	 ret	 8
?OnShowWindow@CGameCtrlWnd@@IAEXHI@Z ENDP		; CGameCtrlWnd::OnShowWindow
; Function compile flags: /Odt /RTCsu
_this$ = -4						; size = 4
?OnClickedCut@CGameCtrlWnd@@IAEXXZ PROC NEAR		; CGameCtrlWnd::OnClickedCut
; _this$ = ecx

; 183  : {

  015f0	55		 push	 ebp
  015f1	8b ec		 mov	 ebp, esp
  015f3	51		 push	 ecx
  015f4	c7 45 fc cc cc
	cc cc		 mov	 DWORD PTR [ebp-4], -858993460 ; ccccccccH
  015fb	89 4d fc	 mov	 DWORD PTR _this$[ebp], ecx

; 184  : 	GetParent()->PostMessage( WM_CUT_SCREEN );

  015fe	6a 00		 push	 0
  01600	6a 00		 push	 0
  01602	68 04 04 00 00	 push	 1028			; 00000404H
  01607	8b 4d fc	 mov	 ecx, DWORD PTR _this$[ebp]
  0160a	e8 00 00 00 00	 call	 ?GetParent@CWnd@@QBEPAV1@XZ ; CWnd::GetParent
  0160f	8b c8		 mov	 ecx, eax
  01611	e8 00 00 00 00	 call	 ?PostMessageA@CWnd@@QAEHIIJ@Z ; CWnd::PostMessageA

; 185  : }

  01616	83 c4 04	 add	 esp, 4
  01619	3b ec		 cmp	 ebp, esp
  0161b	e8 00 00 00 00	 call	 __RTC_CheckEsp
  01620	8b e5		 mov	 esp, ebp
  01622	5d		 pop	 ebp
  01623	c3		 ret	 0
?OnClickedCut@CGameCtrlWnd@@IAEXXZ ENDP			; CGameCtrlWnd::OnClickedCut
_TEXT	ENDS
PUBLIC	?_AtlInstallStringThunk@ATL@@YAXPAPAXPAX1@Z	; ATL::_AtlInstallStringThunk
PUBLIC	?GetEnvironmentVariableWFake@ATL@@YGKPB_WPA_WK@Z ; ATL::GetEnvironmentVariableWFake
EXTRN	__imp__GetEnvironmentVariableW@12:NEAR
; Function compile flags: /Odt /RTCsu
; File d:\program files (x86)\microsoft visual studio .net 2003\vc7\atlmfc\include\cstringt.h
;	COMDAT ?GetEnvironmentVariableWThunk@ATL@@YGKPB_WPA_WK@Z
_TEXT	SEGMENT
_pszName$ = 8						; size = 4
_pszBuffer$ = 12					; size = 4
_nSize$ = 16						; size = 4
?GetEnvironmentVariableWThunk@ATL@@YGKPB_WPA_WK@Z PROC NEAR ; ATL::GetEnvironmentVariableWThunk, COMDAT

; 183  : {

  00000	55		 push	 ebp
  00001	8b ec		 mov	 ebp, esp
  00003	56		 push	 esi

; 184  : 	_AtlInstallStringThunk(reinterpret_cast<void**>(&_strthunks.pfnGetEnvironmentVariableW), 
; 185  : 		GetEnvironmentVariableWFake, ::GetEnvironmentVariableW);

  00004	a1 00 00 00 00	 mov	 eax, DWORD PTR __imp__GetEnvironmentVariableW@12
  00009	50		 push	 eax
  0000a	68 00 00 00 00	 push	 OFFSET FLAT:?GetEnvironmentVariableWFake@ATL@@YGKPB_WPA_WK@Z ; ATL::GetEnvironmentVariableWFake
  0000f	68 14 00 00 00	 push	 OFFSET FLAT:?_strthunks@ATL@@3U_AtlStringThunks@1@A+20
  00014	e8 00 00 00 00	 call	 ?_AtlInstallStringThunk@ATL@@YAXPAPAXPAX1@Z ; ATL::_AtlInstallStringThunk
  00019	83 c4 0c	 add	 esp, 12			; 0000000cH

; 186  : 
; 187  : 	return _strthunks.pfnGetEnvironmentVariableW(pszName, pszBuffer, nSize);

  0001c	8b f4		 mov	 esi, esp
  0001e	8b 4d 10	 mov	 ecx, DWORD PTR _nSize$[ebp]
  00021	51		 push	 ecx
  00022	8b 55 0c	 mov	 edx, DWORD PTR _pszBuffer$[ebp]
  00025	52		 push	 edx
  00026	8b 45 08	 mov	 eax, DWORD PTR _pszName$[ebp]
  00029	50		 push	 eax
  0002a	ff 15 14 00 00
	00		 call	 DWORD PTR ?_strthunks@ATL@@3U_AtlStringThunks@1@A+20
  00030	3b f4		 cmp	 esi, esp
  00032	e8 00 00 00 00	 call	 __RTC_CheckEsp

; 188  : }

  00037	5e		 pop	 esi
  00038	3b ec		 cmp	 ebp, esp
  0003a	e8 00 00 00 00	 call	 __RTC_CheckEsp
  0003f	5d		 pop	 ebp
  00040	c2 0c 00	 ret	 12			; 0000000cH
?GetEnvironmentVariableWThunk@ATL@@YGKPB_WPA_WK@Z ENDP	; ATL::GetEnvironmentVariableWThunk
_TEXT	ENDS
PUBLIC	?s_bWin9x@?1??_AtlInstallStringThunk@ATL@@YAXPAPAXPAX1@Z@4_NA ; `ATL::_AtlInstallStringThunk'::`2'::s_bWin9x
PUBLIC	??_B?1??_AtlInstallStringThunk@ATL@@YAXPAPAXPAX1@Z@51 ; `ATL::_AtlInstallStringThunk'::`2'::`local static guard'
EXTRN	__imp__GetVersion@0:NEAR
;	COMDAT ?s_bWin9x@?1??_AtlInstallStringThunk@ATL@@YAXPAPAXPAX1@Z@4_NA
_BSS	SEGMENT
?s_bWin9x@?1??_AtlInstallStringThunk@ATL@@YAXPAPAXPAX1@Z@4_NA DB 01H DUP (?) ; `ATL::_AtlInstallStringThunk'::`2'::s_bWin9x
_BSS	ENDS
;	COMDAT ??_B?1??_AtlInstallStringThunk@ATL@@YAXPAPAXPAX1@Z@51
_BSS	SEGMENT
??_B?1??_AtlInstallStringThunk@ATL@@YAXPAPAXPAX1@Z@51 DD 01H DUP (?) ; `ATL::_AtlInstallStringThunk'::`2'::`local static guard'
; Function compile flags: /Odt /RTCsu
_BSS	ENDS
;	COMDAT ?_AtlInstallStringThunk@ATL@@YAXPAPAXPAX1@Z
_TEXT	SEGMENT
_pfn$ = -4						; size = 4
_ppThunk$ = 8						; size = 4
_pfnWin9x$ = 12						; size = 4
_pfnNT$ = 16						; size = 4
?_AtlInstallStringThunk@ATL@@YAXPAPAXPAX1@Z PROC NEAR	; ATL::_AtlInstallStringThunk, COMDAT

; 115  : {

  00000	55		 push	 ebp
  00001	8b ec		 mov	 ebp, esp
  00003	51		 push	 ecx
  00004	56		 push	 esi
  00005	c7 45 fc cc cc
	cc cc		 mov	 DWORD PTR [ebp-4], -858993460 ; ccccccccH

; 116  : #pragma warning (push)
; 117  : #pragma warning (disable : 4640)	// construction of local static object is not thread-safe
; 118  : 
; 119  : 	static bool s_bWin9x = (::GetVersion()&0x80000000) != 0;

  0000c	a1 00 00 00 00	 mov	 eax, DWORD PTR ??_B?1??_AtlInstallStringThunk@ATL@@YAXPAPAXPAX1@Z@51
  00011	83 e0 01	 and	 eax, 1
  00014	75 2e		 jne	 SHORT $L26217
  00016	8b 0d 00 00 00
	00		 mov	 ecx, DWORD PTR ??_B?1??_AtlInstallStringThunk@ATL@@YAXPAPAXPAX1@Z@51
  0001c	83 c9 01	 or	 ecx, 1
  0001f	89 0d 00 00 00
	00		 mov	 DWORD PTR ??_B?1??_AtlInstallStringThunk@ATL@@YAXPAPAXPAX1@Z@51, ecx
  00025	8b f4		 mov	 esi, esp
  00027	ff 15 00 00 00
	00		 call	 DWORD PTR __imp__GetVersion@0
  0002d	3b f4		 cmp	 esi, esp
  0002f	e8 00 00 00 00	 call	 __RTC_CheckEsp
  00034	25 00 00 00 80	 and	 eax, -2147483648	; 80000000H
  00039	f7 d8		 neg	 eax
  0003b	1b c0		 sbb	 eax, eax
  0003d	f7 d8		 neg	 eax
  0003f	a2 00 00 00 00	 mov	 BYTE PTR ?s_bWin9x@?1??_AtlInstallStringThunk@ATL@@YAXPAPAXPAX1@Z@4_NA, al ; `ATL::_AtlInstallStringThunk'::`2'::s_bWin9x
$L26217:

; 120  : 	
; 121  : #pragma warning (pop)
; 122  : 
; 123  : 	void* pfn;
; 124  : 	if (s_bWin9x)

  00044	0f b6 15 00 00
	00 00		 movzx	 edx, BYTE PTR ?s_bWin9x@?1??_AtlInstallStringThunk@ATL@@YAXPAPAXPAX1@Z@4_NA ; `ATL::_AtlInstallStringThunk'::`2'::s_bWin9x
  0004b	85 d2		 test	 edx, edx
  0004d	74 08		 je	 SHORT $L26219

; 125  : 		pfn = pfnWin9x;

  0004f	8b 45 0c	 mov	 eax, DWORD PTR _pfnWin9x$[ebp]
  00052	89 45 fc	 mov	 DWORD PTR _pfn$[ebp], eax

; 126  : 	else

  00055	eb 06		 jmp	 SHORT $L26220
$L26219:

; 127  : 	{
; 128  : #ifdef _CSTRING_ALWAYS_THUNK
; 129  : 		pfn = pfnWin9x;
; 130  : 		(void)pfnNT;
; 131  : #else
; 132  : 		pfn = pfnNT;

  00057	8b 4d 10	 mov	 ecx, DWORD PTR _pfnNT$[ebp]
  0005a	89 4d fc	 mov	 DWORD PTR _pfn$[ebp], ecx
$L26220:

; 133  : #endif
; 134  : 	}
; 135  : 	InterlockedExchangePointer(ppThunk, pfn);

  0005d	8b 55 fc	 mov	 edx, DWORD PTR _pfn$[ebp]
  00060	52		 push	 edx
  00061	8b 45 08	 mov	 eax, DWORD PTR _ppThunk$[ebp]
  00064	50		 push	 eax
  00065	e8 00 00 00 00	 call	 ?InterlockedExchangePointer@@YGPAXPAPAXPAX@Z ; InterlockedExchangePointer

; 136  : }

  0006a	5e		 pop	 esi
  0006b	83 c4 04	 add	 esp, 4
  0006e	3b ec		 cmp	 ebp, esp
  00070	e8 00 00 00 00	 call	 __RTC_CheckEsp
  00075	8b e5		 mov	 esp, ebp
  00077	5d		 pop	 ebp
  00078	c3		 ret	 0
?_AtlInstallStringThunk@ATL@@YAXPAPAXPAX1@Z ENDP	; ATL::_AtlInstallStringThunk
_TEXT	ENDS
PUBLIC	??_C@_0FH@KDPNIMBO@D?3?2Program?5Files?5?$CIx86?$CJ?2Microsoft@ ; `string'
PUBLIC	?_AtlGetConversionACP@ATL@@YGIXZ		; ATL::_AtlGetConversionACP
PUBLIC	??0?$CTempBuffer@D$0IA@VCCRTAllocator@ATL@@@ATL@@QAE@XZ ; ATL::CTempBuffer<char,128,ATL::CCRTAllocator>::CTempBuffer<char,128,ATL::CCRTAllocator>
PUBLIC	??1?$CTempBuffer@D$0IA@VCCRTAllocator@ATL@@@ATL@@QAE@XZ ; ATL::CTempBuffer<char,128,ATL::CCRTAllocator>::~CTempBuffer<char,128,ATL::CCRTAllocator>
PUBLIC	??B?$CTempBuffer@D$0IA@VCCRTAllocator@ATL@@@ATL@@QBEPADXZ ; ATL::CTempBuffer<char,128,ATL::CCRTAllocator>::operator char *
PUBLIC	?Allocate@?$CTempBuffer@D$0IA@VCCRTAllocator@ATL@@@ATL@@QAEPADI@Z ; ATL::CTempBuffer<char,128,ATL::CCRTAllocator>::Allocate
PUBLIC	??0?$CW2AEX@$0IA@@ATL@@QAE@PB_W@Z		; ATL::CW2AEX<128>::CW2AEX<128>
PUBLIC	??1?$CW2AEX@$0IA@@ATL@@QAE@XZ			; ATL::CW2AEX<128>::~CW2AEX<128>
PUBLIC	??B?$CW2AEX@$0IA@@ATL@@QBEPADXZ			; ATL::CW2AEX<128>::operator char *
PUBLIC	??_C@_0BA@CLMJJCOM@nSize?5?$DO?$DN?5nSizeW?$AA@	; `string'
EXTRN	__imp___CrtDbgReport:NEAR
EXTRN	__imp__MultiByteToWideChar@24:NEAR
EXTRN	__imp__GetEnvironmentVariableA@12:NEAR
;	COMDAT xdata$x
xdata$x	SEGMENT
$T195520 DD	0ffffffffH
	DD	FLAT:$L195510
	DD	00H
	DD	FLAT:$L195511
$T195513 DD	019930520H
	DD	02H
	DD	FLAT:$T195520
	DD	2 DUP(00H)
	DD	2 DUP(00H)
xdata$x	ENDS
;	COMDAT ??_C@_0BA@CLMJJCOM@nSize?5?$DO?$DN?5nSizeW?$AA@
CONST	SEGMENT
??_C@_0BA@CLMJJCOM@nSize?5?$DO?$DN?5nSizeW?$AA@ DB 'nSize >= nSizeW', 00H ; `string'
CONST	ENDS
;	COMDAT ??_C@_0FH@KDPNIMBO@D?3?2Program?5Files?5?$CIx86?$CJ?2Microsoft@
CONST	SEGMENT
??_C@_0FH@KDPNIMBO@D?3?2Program?5Files?5?$CIx86?$CJ?2Microsoft@ DB 'D:\Pr'
	DB	'ogram Files (x86)\Microsoft Visual Studio .NET 2003\Vc7\atlmf'
	DB	'c\include\cstringt.h', 00H			; `string'
; Function compile flags: /Odt /RTCsu
CONST	ENDS
;	COMDAT ?GetEnvironmentVariableWFake@ATL@@YGKPB_WPA_WK@Z
_TEXT	SEGMENT
$T195509 = -316						; size = 4
$T195507 = -312						; size = 4
$T195506 = -308						; size = 4
_pszNameA$ = -300					; size = 132
_pszBufferA$ = -160					; size = 132
_nSizeW$ = -24						; size = 4
_nSizeA$ = -20						; size = 4
__$ArrayPad$ = -16					; size = 4
__$EHRec$ = -12						; size = 12
__$ReturnAddr$ = 4					; size = 4
_pszName$ = 8						; size = 4
_pszBuffer$ = 12					; size = 4
_nSize$ = 16						; size = 4
?GetEnvironmentVariableWFake@ATL@@YGKPB_WPA_WK@Z PROC NEAR ; ATL::GetEnvironmentVariableWFake, COMDAT

; 159  : {

  00000	55		 push	 ebp
  00001	8b ec		 mov	 ebp, esp
  00003	6a ff		 push	 -1
  00005	68 00 00 00 00	 push	 __ehhandler$?GetEnvironmentVariableWFake@ATL@@YGKPB_WPA_WK@Z
  0000a	64 a1 00 00 00
	00		 mov	 eax, DWORD PTR fs:__except_list
  00010	50		 push	 eax
  00011	64 89 25 00 00
	00 00		 mov	 DWORD PTR fs:__except_list, esp
  00018	81 ec 30 01 00
	00		 sub	 esp, 304		; 00000130H
  0001e	56		 push	 esi
  0001f	57		 push	 edi
  00020	8d bd c4 fe ff
	ff		 lea	 edi, DWORD PTR [ebp-316]
  00026	b9 4c 00 00 00	 mov	 ecx, 76			; 0000004cH
  0002b	b8 cc cc cc cc	 mov	 eax, -858993460		; ccccccccH
  00030	f3 ab		 rep stosd
  00032	a1 00 00 00 00	 mov	 eax, DWORD PTR ___security_cookie
  00037	89 45 f0	 mov	 DWORD PTR __$ArrayPad$[ebp], eax

; 160  : 	ULONG nSizeA;
; 161  : 	ULONG nSizeW;
; 162  : 	CTempBuffer<char> pszBufferA;

  0003a	8d 8d 60 ff ff
	ff		 lea	 ecx, DWORD PTR _pszBufferA$[ebp]
  00040	e8 00 00 00 00	 call	 ??0?$CTempBuffer@D$0IA@VCCRTAllocator@ATL@@@ATL@@QAE@XZ ; ATL::CTempBuffer<char,128,ATL::CCRTAllocator>::CTempBuffer<char,128,ATL::CCRTAllocator>
  00045	c7 45 fc 00 00
	00 00		 mov	 DWORD PTR __$EHRec$[ebp+8], 0

; 163  : 	CW2A pszNameA(pszName);

  0004c	8b 45 08	 mov	 eax, DWORD PTR _pszName$[ebp]
  0004f	50		 push	 eax
  00050	8d 8d d4 fe ff
	ff		 lea	 ecx, DWORD PTR _pszNameA$[ebp]
  00056	e8 00 00 00 00	 call	 ??0?$CW2AEX@$0IA@@ATL@@QAE@PB_W@Z ; ATL::CW2AEX<128>::CW2AEX<128>
  0005b	c6 45 fc 01	 mov	 BYTE PTR __$EHRec$[ebp+8], 1

; 164  : 
; 165  : 	nSizeA = ::GetEnvironmentVariableA(pszNameA, NULL, 0);

  0005f	8b f4		 mov	 esi, esp
  00061	6a 00		 push	 0
  00063	6a 00		 push	 0
  00065	8d 8d d4 fe ff
	ff		 lea	 ecx, DWORD PTR _pszNameA$[ebp]
  0006b	e8 00 00 00 00	 call	 ??B?$CW2AEX@$0IA@@ATL@@QBEPADXZ ; ATL::CW2AEX<128>::operator char *
  00070	50		 push	 eax
  00071	ff 15 00 00 00
	00		 call	 DWORD PTR __imp__GetEnvironmentVariableA@12
  00077	3b f4		 cmp	 esi, esp
  00079	e8 00 00 00 00	 call	 __RTC_CheckEsp
  0007e	89 45 ec	 mov	 DWORD PTR _nSizeA$[ebp], eax

; 166  : 	if (nSizeA == 0)

  00081	83 7d ec 00	 cmp	 DWORD PTR _nSizeA$[ebp], 0
  00085	75 36		 jne	 SHORT $L26322

; 167  : 		return 0;

  00087	c7 85 cc fe ff
	ff 00 00 00 00	 mov	 DWORD PTR $T195506[ebp], 0
  00091	c6 45 fc 00	 mov	 BYTE PTR __$EHRec$[ebp+8], 0
  00095	8d 8d d4 fe ff
	ff		 lea	 ecx, DWORD PTR _pszNameA$[ebp]
  0009b	e8 00 00 00 00	 call	 ??1?$CW2AEX@$0IA@@ATL@@QAE@XZ ; ATL::CW2AEX<128>::~CW2AEX<128>
  000a0	c7 45 fc ff ff
	ff ff		 mov	 DWORD PTR __$EHRec$[ebp+8], -1
  000a7	8d 8d 60 ff ff
	ff		 lea	 ecx, DWORD PTR _pszBufferA$[ebp]
  000ad	e8 00 00 00 00	 call	 ??1?$CTempBuffer@D$0IA@VCCRTAllocator@ATL@@@ATL@@QAE@XZ ; ATL::CTempBuffer<char,128,ATL::CCRTAllocator>::~CTempBuffer<char,128,ATL::CCRTAllocator>
  000b2	8b 85 cc fe ff
	ff		 mov	 eax, DWORD PTR $T195506[ebp]
  000b8	e9 33 01 00 00	 jmp	 $L26263
$L26322:

; 168  : 
; 169  : 	pszBufferA.Allocate(nSizeA*2);

  000bd	8b 4d ec	 mov	 ecx, DWORD PTR _nSizeA$[ebp]
  000c0	d1 e1		 shl	 ecx, 1
  000c2	51		 push	 ecx
  000c3	8d 8d 60 ff ff
	ff		 lea	 ecx, DWORD PTR _pszBufferA$[ebp]
  000c9	e8 00 00 00 00	 call	 ?Allocate@?$CTempBuffer@D$0IA@VCCRTAllocator@ATL@@@ATL@@QAEPADI@Z ; ATL::CTempBuffer<char,128,ATL::CCRTAllocator>::Allocate

; 170  : 	::GetEnvironmentVariableA(pszNameA, pszBufferA, nSizeA);

  000ce	8b f4		 mov	 esi, esp
  000d0	8b 55 ec	 mov	 edx, DWORD PTR _nSizeA$[ebp]
  000d3	52		 push	 edx
  000d4	8d 8d 60 ff ff
	ff		 lea	 ecx, DWORD PTR _pszBufferA$[ebp]
  000da	e8 00 00 00 00	 call	 ??B?$CTempBuffer@D$0IA@VCCRTAllocator@ATL@@@ATL@@QBEPADXZ ; ATL::CTempBuffer<char,128,ATL::CCRTAllocator>::operator char *
  000df	50		 push	 eax
  000e0	8d 8d d4 fe ff
	ff		 lea	 ecx, DWORD PTR _pszNameA$[ebp]
  000e6	e8 00 00 00 00	 call	 ??B?$CW2AEX@$0IA@@ATL@@QBEPADXZ ; ATL::CW2AEX<128>::operator char *
  000eb	50		 push	 eax
  000ec	ff 15 00 00 00
	00		 call	 DWORD PTR __imp__GetEnvironmentVariableA@12
  000f2	3b f4		 cmp	 esi, esp
  000f4	e8 00 00 00 00	 call	 __RTC_CheckEsp

; 171  : 
; 172  : 	nSizeW = ::MultiByteToWideChar(_AtlGetConversionACP(), 0, pszBufferA, -1, NULL, 0);

  000f9	8b f4		 mov	 esi, esp
  000fb	6a 00		 push	 0
  000fd	6a 00		 push	 0
  000ff	6a ff		 push	 -1
  00101	8d 8d 60 ff ff
	ff		 lea	 ecx, DWORD PTR _pszBufferA$[ebp]
  00107	e8 00 00 00 00	 call	 ??B?$CTempBuffer@D$0IA@VCCRTAllocator@ATL@@@ATL@@QBEPADXZ ; ATL::CTempBuffer<char,128,ATL::CCRTAllocator>::operator char *
  0010c	50		 push	 eax
  0010d	6a 00		 push	 0
  0010f	e8 00 00 00 00	 call	 ?_AtlGetConversionACP@ATL@@YGIXZ ; ATL::_AtlGetConversionACP
  00114	50		 push	 eax
  00115	ff 15 00 00 00
	00		 call	 DWORD PTR __imp__MultiByteToWideChar@24
  0011b	3b f4		 cmp	 esi, esp
  0011d	e8 00 00 00 00	 call	 __RTC_CheckEsp
  00122	89 45 e8	 mov	 DWORD PTR _nSizeW$[ebp], eax

; 173  : 	if (nSize == 0)

  00125	83 7d 10 00	 cmp	 DWORD PTR _nSize$[ebp], 0
  00129	75 35		 jne	 SHORT $L26324

; 174  : 		return nSizeW;

  0012b	8b 45 e8	 mov	 eax, DWORD PTR _nSizeW$[ebp]
  0012e	89 85 c8 fe ff
	ff		 mov	 DWORD PTR $T195507[ebp], eax
  00134	c6 45 fc 00	 mov	 BYTE PTR __$EHRec$[ebp+8], 0
  00138	8d 8d d4 fe ff
	ff		 lea	 ecx, DWORD PTR _pszNameA$[ebp]
  0013e	e8 00 00 00 00	 call	 ??1?$CW2AEX@$0IA@@ATL@@QAE@XZ ; ATL::CW2AEX<128>::~CW2AEX<128>
  00143	c7 45 fc ff ff
	ff ff		 mov	 DWORD PTR __$EHRec$[ebp+8], -1
  0014a	8d 8d 60 ff ff
	ff		 lea	 ecx, DWORD PTR _pszBufferA$[ebp]
  00150	e8 00 00 00 00	 call	 ??1?$CTempBuffer@D$0IA@VCCRTAllocator@ATL@@@ATL@@QAE@XZ ; ATL::CTempBuffer<char,128,ATL::CCRTAllocator>::~CTempBuffer<char,128,ATL::CCRTAllocator>
  00155	8b 85 c8 fe ff
	ff		 mov	 eax, DWORD PTR $T195507[ebp]
  0015b	e9 90 00 00 00	 jmp	 $L26263
$L26324:

; 175  : 	ATLASSERT(nSize >= nSizeW);

  00160	8b 4d 10	 mov	 ecx, DWORD PTR _nSize$[ebp]
  00163	3b 4d e8	 cmp	 ecx, DWORD PTR _nSizeW$[ebp]
  00166	73 2b		 jae	 SHORT $L195508
  00168	8b f4		 mov	 esi, esp
  0016a	68 00 00 00 00	 push	 OFFSET FLAT:??_C@_0BA@CLMJJCOM@nSize?5?$DO?$DN?5nSizeW?$AA@
  0016f	6a 00		 push	 0
  00171	68 af 00 00 00	 push	 175			; 000000afH
  00176	68 00 00 00 00	 push	 OFFSET FLAT:??_C@_0FH@KDPNIMBO@D?3?2Program?5Files?5?$CIx86?$CJ?2Microsoft@
  0017b	6a 02		 push	 2
  0017d	ff 15 00 00 00
	00		 call	 DWORD PTR __imp___CrtDbgReport
  00183	83 c4 14	 add	 esp, 20			; 00000014H
  00186	3b f4		 cmp	 esi, esp
  00188	e8 00 00 00 00	 call	 __RTC_CheckEsp
  0018d	83 f8 01	 cmp	 eax, 1
  00190	75 01		 jne	 SHORT $L195508
  00192	cc		 int	 3
$L195508:

; 176  : 	::MultiByteToWideChar(_AtlGetConversionACP(), 0, pszBufferA, -1, pszBuffer, nSizeW);

  00193	8b f4		 mov	 esi, esp
  00195	8b 45 e8	 mov	 eax, DWORD PTR _nSizeW$[ebp]
  00198	50		 push	 eax
  00199	8b 4d 0c	 mov	 ecx, DWORD PTR _pszBuffer$[ebp]
  0019c	51		 push	 ecx
  0019d	6a ff		 push	 -1
  0019f	8d 8d 60 ff ff
	ff		 lea	 ecx, DWORD PTR _pszBufferA$[ebp]
  001a5	e8 00 00 00 00	 call	 ??B?$CTempBuffer@D$0IA@VCCRTAllocator@ATL@@@ATL@@QBEPADXZ ; ATL::CTempBuffer<char,128,ATL::CCRTAllocator>::operator char *
  001aa	50		 push	 eax
  001ab	6a 00		 push	 0
  001ad	e8 00 00 00 00	 call	 ?_AtlGetConversionACP@ATL@@YGIXZ ; ATL::_AtlGetConversionACP
  001b2	50		 push	 eax
  001b3	ff 15 00 00 00
	00		 call	 DWORD PTR __imp__MultiByteToWideChar@24
  001b9	3b f4		 cmp	 esi, esp
  001bb	e8 00 00 00 00	 call	 __RTC_CheckEsp

; 177  : 
; 178  : 	return nSizeW;

  001c0	8b 55 e8	 mov	 edx, DWORD PTR _nSizeW$[ebp]
  001c3	89 95 c4 fe ff
	ff		 mov	 DWORD PTR $T195509[ebp], edx
  001c9	c6 45 fc 00	 mov	 BYTE PTR __$EHRec$[ebp+8], 0
  001cd	8d 8d d4 fe ff
	ff		 lea	 ecx, DWORD PTR _pszNameA$[ebp]
  001d3	e8 00 00 00 00	 call	 ??1?$CW2AEX@$0IA@@ATL@@QAE@XZ ; ATL::CW2AEX<128>::~CW2AEX<128>
  001d8	c7 45 fc ff ff
	ff ff		 mov	 DWORD PTR __$EHRec$[ebp+8], -1
  001df	8d 8d 60 ff ff
	ff		 lea	 ecx, DWORD PTR _pszBufferA$[ebp]
  001e5	e8 00 00 00 00	 call	 ??1?$CTempBuffer@D$0IA@VCCRTAllocator@ATL@@@ATL@@QAE@XZ ; ATL::CTempBuffer<char,128,ATL::CCRTAllocator>::~CTempBuffer<char,128,ATL::CCRTAllocator>
  001ea	8b 85 c4 fe ff
	ff		 mov	 eax, DWORD PTR $T195509[ebp]
$L26263:

; 179  : }

  001f0	52		 push	 edx
  001f1	8b cd		 mov	 ecx, ebp
  001f3	50		 push	 eax
  001f4	8d 15 00 00 00
	00		 lea	 edx, DWORD PTR $L195519
  001fa	e8 00 00 00 00	 call	 @_RTC_CheckStackVars@8
  001ff	58		 pop	 eax
  00200	5a		 pop	 edx
  00201	8b 4d f4	 mov	 ecx, DWORD PTR __$EHRec$[ebp]
  00204	64 89 0d 00 00
	00 00		 mov	 DWORD PTR fs:__except_list, ecx
  0020b	8b 4d f0	 mov	 ecx, DWORD PTR __$ArrayPad$[ebp]
  0020e	e8 00 00 00 00	 call	 @__security_check_cookie@4
  00213	5f		 pop	 edi
  00214	5e		 pop	 esi
  00215	81 c4 3c 01 00
	00		 add	 esp, 316		; 0000013cH
  0021b	3b ec		 cmp	 ebp, esp
  0021d	e8 00 00 00 00	 call	 __RTC_CheckEsp
  00222	8b e5		 mov	 esp, ebp
  00224	5d		 pop	 ebp
  00225	c2 0c 00	 ret	 12			; 0000000cH
$L195519:
  00228	02 00 00 00	 DD	 2
  0022c	00 00 00 00	 DD	 $L195518
$L195518:
  00230	60 ff ff ff	 DD	 -160			; ffffff60H
  00234	84 00 00 00	 DD	 132			; 00000084H
  00238	00 00 00 00	 DD	 $L195514
  0023c	d4 fe ff ff	 DD	 -300			; fffffed4H
  00240	84 00 00 00	 DD	 132			; 00000084H
  00244	00 00 00 00	 DD	 $L195515
$L195515:
  00248	70		 DB	 112			; 00000070H
  00249	73		 DB	 115			; 00000073H
  0024a	7a		 DB	 122			; 0000007aH
  0024b	4e		 DB	 78			; 0000004eH
  0024c	61		 DB	 97			; 00000061H
  0024d	6d		 DB	 109			; 0000006dH
  0024e	65		 DB	 101			; 00000065H
  0024f	41		 DB	 65			; 00000041H
  00250	00		 DB	 0
$L195514:
  00251	70		 DB	 112			; 00000070H
  00252	73		 DB	 115			; 00000073H
  00253	7a		 DB	 122			; 0000007aH
  00254	42		 DB	 66			; 00000042H
  00255	75		 DB	 117			; 00000075H
  00256	66		 DB	 102			; 00000066H
  00257	66		 DB	 102			; 00000066H
  00258	65		 DB	 101			; 00000065H
  00259	72		 DB	 114			; 00000072H
  0025a	41		 DB	 65			; 00000041H
  0025b	00		 DB	 0
_TEXT	ENDS
;	COMDAT text$x
text$x	SEGMENT
$L195510:
  00000	8d 8d 60 ff ff
	ff		 lea	 ecx, DWORD PTR _pszBufferA$[ebp]
  00006	e9 00 00 00 00	 jmp	 ??1?$CTempBuffer@D$0IA@VCCRTAllocator@ATL@@@ATL@@QAE@XZ ; ATL::CTempBuffer<char,128,ATL::CCRTAllocator>::~CTempBuffer<char,128,ATL::CCRTAllocator>
$L195511:
  0000b	8d 8d d4 fe ff
	ff		 lea	 ecx, DWORD PTR _pszNameA$[ebp]
  00011	e9 00 00 00 00	 jmp	 ??1?$CW2AEX@$0IA@@ATL@@QAE@XZ ; ATL::CW2AEX<128>::~CW2AEX<128>
__ehhandler$?GetEnvironmentVariableWFake@ATL@@YGKPB_WPA_WK@Z:
  00016	b8 00 00 00 00	 mov	 eax, OFFSET FLAT:$T195513
  0001b	e9 00 00 00 00	 jmp	 ___CxxFrameHandler
text$x	ENDS
?GetEnvironmentVariableWFake@ATL@@YGKPB_WPA_WK@Z ENDP	; ATL::GetEnvironmentVariableWFake
; Function compile flags: /Odt /RTCsu
; File d:\program files (x86)\microsoft visual studio .net 2003\vc7\atlmfc\include\atlconv.h
;	COMDAT ?_AtlGetConversionACP@ATL@@YGIXZ
_TEXT	SEGMENT
?_AtlGetConversionACP@ATL@@YGIXZ PROC NEAR		; ATL::_AtlGetConversionACP, COMDAT

; 157  : {

  00000	55		 push	 ebp
  00001	8b ec		 mov	 ebp, esp
  00003	56		 push	 esi

; 158  : 	return( g_pfnGetThreadACP() );

  00004	8b f4		 mov	 esi, esp
  00006	ff 15 00 00 00
	00		 call	 DWORD PTR ?g_pfnGetThreadACP@ATL@@3P6GIXZA ; ATL::g_pfnGetThreadACP
  0000c	3b f4		 cmp	 esi, esp
  0000e	e8 00 00 00 00	 call	 __RTC_CheckEsp

; 159  : }

  00013	5e		 pop	 esi
  00014	3b ec		 cmp	 ebp, esp
  00016	e8 00 00 00 00	 call	 __RTC_CheckEsp
  0001b	5d		 pop	 ebp
  0001c	c3		 ret	 0
?_AtlGetConversionACP@ATL@@YGIXZ ENDP			; ATL::_AtlGetConversionACP
_TEXT	ENDS
PUBLIC	?CompareStringWFake@ATL@@YGHKKPB_WH0H@Z		; ATL::CompareStringWFake
EXTRN	__imp__CompareStringW@24:NEAR
; Function compile flags: /Odt /RTCsu
; File d:\program files (x86)\microsoft visual studio .net 2003\vc7\atlmfc\include\cstringt.h
;	COMDAT ?CompareStringWThunk@ATL@@YGHKKPB_WH0H@Z
_TEXT	SEGMENT
_lcid$ = 8						; size = 4
_dwFlags$ = 12						; size = 4
_pszString1$ = 16					; size = 4
_nLength1$ = 20						; size = 4
_pszString2$ = 24					; size = 4
_nLength2$ = 28						; size = 4
?CompareStringWThunk@ATL@@YGHKKPB_WH0H@Z PROC NEAR	; ATL::CompareStringWThunk, COMDAT

; 216  : {

  00000	55		 push	 ebp
  00001	8b ec		 mov	 ebp, esp
  00003	56		 push	 esi

; 217  : 	_AtlInstallStringThunk(reinterpret_cast<void**>(&_strthunks.pfnCompareStringW), CompareStringWFake, ::CompareStringW);

  00004	a1 00 00 00 00	 mov	 eax, DWORD PTR __imp__CompareStringW@24
  00009	50		 push	 eax
  0000a	68 00 00 00 00	 push	 OFFSET FLAT:?CompareStringWFake@ATL@@YGHKKPB_WH0H@Z ; ATL::CompareStringWFake
  0000f	68 00 00 00 00	 push	 OFFSET FLAT:?_strthunks@ATL@@3U_AtlStringThunks@1@A ; ATL::_strthunks
  00014	e8 00 00 00 00	 call	 ?_AtlInstallStringThunk@ATL@@YAXPAPAXPAX1@Z ; ATL::_AtlInstallStringThunk
  00019	83 c4 0c	 add	 esp, 12			; 0000000cH

; 218  : 
; 219  : 	return _strthunks.pfnCompareStringW(lcid, dwFlags, pszString1, nLength1, pszString2, nLength2);

  0001c	8b f4		 mov	 esi, esp
  0001e	8b 4d 1c	 mov	 ecx, DWORD PTR _nLength2$[ebp]
  00021	51		 push	 ecx
  00022	8b 55 18	 mov	 edx, DWORD PTR _pszString2$[ebp]
  00025	52		 push	 edx
  00026	8b 45 14	 mov	 eax, DWORD PTR _nLength1$[ebp]
  00029	50		 push	 eax
  0002a	8b 4d 10	 mov	 ecx, DWORD PTR _pszString1$[ebp]
  0002d	51		 push	 ecx
  0002e	8b 55 0c	 mov	 edx, DWORD PTR _dwFlags$[ebp]
  00031	52		 push	 edx
  00032	8b 45 08	 mov	 eax, DWORD PTR _lcid$[ebp]
  00035	50		 push	 eax
  00036	ff 15 00 00 00
	00		 call	 DWORD PTR ?_strthunks@ATL@@3U_AtlStringThunks@1@A
  0003c	3b f4		 cmp	 esi, esp
  0003e	e8 00 00 00 00	 call	 __RTC_CheckEsp

; 220  : }

  00043	5e		 pop	 esi
  00044	3b ec		 cmp	 ebp, esp
  00046	e8 00 00 00 00	 call	 __RTC_CheckEsp
  0004b	5d		 pop	 ebp
  0004c	c2 18 00	 ret	 24			; 00000018H
?CompareStringWThunk@ATL@@YGHKKPB_WH0H@Z ENDP		; ATL::CompareStringWThunk
_TEXT	ENDS
PUBLIC	?_AtlVerifyStackAvailable@_ATL_SAFE_ALLOCA_IMPL@ATL@@YA_NK@Z ; ATL::_ATL_SAFE_ALLOCA_IMPL::_AtlVerifyStackAvailable
PUBLIC	?AtlThrow@ATL@@YGXJ@Z				; ATL::AtlThrow
PUBLIC	?AtlW2AHelper@@YGPADPADPB_WHI@Z			; AtlW2AHelper
PUBLIC	??0?$CAtlSafeAllocBufferManager@VCCRTAllocator@ATL@@@_ATL_SAFE_ALLOCA_IMPL@ATL@@QAE@XZ ; ATL::_ATL_SAFE_ALLOCA_IMPL::CAtlSafeAllocBufferManager<ATL::CCRTAllocator>::CAtlSafeAllocBufferManager<ATL::CCRTAllocator>
PUBLIC	?Allocate@?$CAtlSafeAllocBufferManager@VCCRTAllocator@ATL@@@_ATL_SAFE_ALLOCA_IMPL@ATL@@QAEPAXK@Z ; ATL::_ATL_SAFE_ALLOCA_IMPL::CAtlSafeAllocBufferManager<ATL::CCRTAllocator>::Allocate
PUBLIC	??1?$CAtlSafeAllocBufferManager@VCCRTAllocator@ATL@@@_ATL_SAFE_ALLOCA_IMPL@ATL@@QAE@XZ ; ATL::_ATL_SAFE_ALLOCA_IMPL::CAtlSafeAllocBufferManager<ATL::CCRTAllocator>::~CAtlSafeAllocBufferManager<ATL::CCRTAllocator>
EXTRN	__imp__lstrlenW@4:NEAR
EXTRN	__imp__CompareStringA@24:NEAR
EXTRN	__alloca_probe:NEAR
;	COMDAT xdata$x
xdata$x	SEGMENT
$T195543 DD	0ffffffffH
	DD	FLAT:$L195535
$T195537 DD	019930520H
	DD	01H
	DD	FLAT:$T195543
	DD	2 DUP(00H)
	DD	2 DUP(00H)
; Function compile flags: /Odt /RTCsu
xdata$x	ENDS
;	COMDAT ?CompareStringWFake@ATL@@YGHKKPB_WH0H@Z
_TEXT	SEGMENT
tv147 = -76						; size = 4
tv142 = -72						; size = 4
tv149 = -68						; size = 4
tv89 = -64						; size = 4
tv84 = -60						; size = 4
tv91 = -56						; size = 4
$T195534 = -52						; size = 4
_pszAString2$ = -48					; size = 4
_pszAString1$ = -44					; size = 4
__AtlSafeAllocaManager$ = -36				; size = 4
__lpa_ex$ = -28						; size = 4
__lpw_ex$ = -24						; size = 4
__acp_ex$ = -20						; size = 4
__convert_ex$ = -16					; size = 4
__$EHRec$ = -12						; size = 12
_lcid$ = 8						; size = 4
_dwFlags$ = 12						; size = 4
_pszString1$ = 16					; size = 4
_nLength1$ = 20						; size = 4
_pszString2$ = 24					; size = 4
_nLength2$ = 28						; size = 4
?CompareStringWFake@ATL@@YGHKKPB_WH0H@Z PROC NEAR	; ATL::CompareStringWFake, COMDAT

; 192  : {

  00000	55		 push	 ebp
  00001	8b ec		 mov	 ebp, esp
  00003	6a ff		 push	 -1
  00005	68 00 00 00 00	 push	 __ehhandler$?CompareStringWFake@ATL@@YGHKKPB_WH0H@Z
  0000a	64 a1 00 00 00
	00		 mov	 eax, DWORD PTR fs:__except_list
  00010	50		 push	 eax
  00011	64 89 25 00 00
	00 00		 mov	 DWORD PTR fs:__except_list, esp
  00018	83 ec 40	 sub	 esp, 64			; 00000040H
  0001b	56		 push	 esi
  0001c	57		 push	 edi
  0001d	8d 7d b4	 lea	 edi, DWORD PTR [ebp-76]
  00020	b9 10 00 00 00	 mov	 ecx, 16			; 00000010H
  00025	b8 cc cc cc cc	 mov	 eax, -858993460		; ccccccccH
  0002a	f3 ab		 rep stosd

; 193  : 	USES_CONVERSION_EX;

  0002c	c7 45 f0 00 00
	00 00		 mov	 DWORD PTR __convert_ex$[ebp], 0
  00033	e8 00 00 00 00	 call	 ?_AtlGetConversionACP@ATL@@YGIXZ ; ATL::_AtlGetConversionACP
  00038	89 45 ec	 mov	 DWORD PTR __acp_ex$[ebp], eax
  0003b	c7 45 e8 00 00
	00 00		 mov	 DWORD PTR __lpw_ex$[ebp], 0
  00042	c7 45 e4 00 00
	00 00		 mov	 DWORD PTR __lpa_ex$[ebp], 0
  00049	8d 4d dc	 lea	 ecx, DWORD PTR __AtlSafeAllocaManager$[ebp]
  0004c	e8 00 00 00 00	 call	 ??0?$CAtlSafeAllocBufferManager@VCCRTAllocator@ATL@@@_ATL_SAFE_ALLOCA_IMPL@ATL@@QAE@XZ ; ATL::_ATL_SAFE_ALLOCA_IMPL::CAtlSafeAllocBufferManager<ATL::CCRTAllocator>::CAtlSafeAllocBufferManager<ATL::CCRTAllocator>
  00051	c7 45 fc 00 00
	00 00		 mov	 DWORD PTR __$EHRec$[ebp+8], 0

; 194  : 	
; 195  : 	LPCSTR pszAString1 = NULL;

  00058	c7 45 d4 00 00
	00 00		 mov	 DWORD PTR _pszAString1$[ebp], 0

; 196  : 	if(pszString1 != NULL)

  0005f	83 7d 10 00	 cmp	 DWORD PTR _pszString1$[ebp], 0
  00063	0f 84 a1 00 00
	00		 je	 $L26349

; 197  : 	{
; 198  : 		pszAString1 = W2A_EX(pszString1,_ATL_SAFE_ALLOCA_DEF_THRESHOLD);

  00069	8b 45 10	 mov	 eax, DWORD PTR _pszString1$[ebp]
  0006c	89 45 e8	 mov	 DWORD PTR __lpw_ex$[ebp], eax
  0006f	83 7d e8 00	 cmp	 DWORD PTR __lpw_ex$[ebp], 0
  00073	75 09		 jne	 SHORT $L195528
  00075	c7 45 c8 00 00
	00 00		 mov	 DWORD PTR tv91[ebp], 0
  0007c	eb 76		 jmp	 SHORT $L195529
$L195528:
  0007e	8b f4		 mov	 esi, esp
  00080	8b 4d e8	 mov	 ecx, DWORD PTR __lpw_ex$[ebp]
  00083	51		 push	 ecx
  00084	ff 15 00 00 00
	00		 call	 DWORD PTR __imp__lstrlenW@4
  0008a	3b f4		 cmp	 esi, esp
  0008c	e8 00 00 00 00	 call	 __RTC_CheckEsp
  00091	8d 54 00 02	 lea	 edx, DWORD PTR [eax+eax+2]
  00095	89 55 f0	 mov	 DWORD PTR __convert_ex$[ebp], edx
  00098	81 7d f0 00 04
	00 00		 cmp	 DWORD PTR __convert_ex$[ebp], 1024 ; 00000400H
  0009f	7f 2c		 jg	 SHORT $L195526
  000a1	8b 45 f0	 mov	 eax, DWORD PTR __convert_ex$[ebp]
  000a4	50		 push	 eax
  000a5	e8 00 00 00 00	 call	 ?_AtlVerifyStackAvailable@_ATL_SAFE_ALLOCA_IMPL@ATL@@YA_NK@Z ; ATL::_ATL_SAFE_ALLOCA_IMPL::_AtlVerifyStackAvailable
  000aa	83 c4 04	 add	 esp, 4
  000ad	0f b6 c8	 movzx	 ecx, al
  000b0	85 c9		 test	 ecx, ecx
  000b2	74 19		 je	 SHORT $L195526
  000b4	8b 45 f0	 mov	 eax, DWORD PTR __convert_ex$[ebp]
  000b7	83 c0 03	 add	 eax, 3
  000ba	83 e0 fc	 and	 eax, -4			; fffffffcH
  000bd	e8 00 00 00 00	 call	 __alloca_probe
  000c2	89 65 c4	 mov	 DWORD PTR tv84[ebp], esp
  000c5	8b 55 c4	 mov	 edx, DWORD PTR tv84[ebp]
  000c8	89 55 c0	 mov	 DWORD PTR tv89[ebp], edx
  000cb	eb 0f		 jmp	 SHORT $L195527
$L195526:
  000cd	8b 45 f0	 mov	 eax, DWORD PTR __convert_ex$[ebp]
  000d0	50		 push	 eax
  000d1	8d 4d dc	 lea	 ecx, DWORD PTR __AtlSafeAllocaManager$[ebp]
  000d4	e8 00 00 00 00	 call	 ?Allocate@?$CAtlSafeAllocBufferManager@VCCRTAllocator@ATL@@@_ATL_SAFE_ALLOCA_IMPL@ATL@@QAEPAXK@Z ; ATL::_ATL_SAFE_ALLOCA_IMPL::CAtlSafeAllocBufferManager<ATL::CCRTAllocator>::Allocate
  000d9	89 45 c0	 mov	 DWORD PTR tv89[ebp], eax
$L195527:
  000dc	8b 4d ec	 mov	 ecx, DWORD PTR __acp_ex$[ebp]
  000df	51		 push	 ecx
  000e0	8b 55 f0	 mov	 edx, DWORD PTR __convert_ex$[ebp]
  000e3	52		 push	 edx
  000e4	8b 45 e8	 mov	 eax, DWORD PTR __lpw_ex$[ebp]
  000e7	50		 push	 eax
  000e8	8b 4d c0	 mov	 ecx, DWORD PTR tv89[ebp]
  000eb	51		 push	 ecx
  000ec	e8 00 00 00 00	 call	 ?AtlW2AHelper@@YGPADPADPB_WHI@Z ; AtlW2AHelper
  000f1	89 45 c8	 mov	 DWORD PTR tv91[ebp], eax
$L195529:
  000f4	8b 55 c8	 mov	 edx, DWORD PTR tv91[ebp]
  000f7	89 55 d4	 mov	 DWORD PTR _pszAString1$[ebp], edx

; 199  : 		if(pszAString1 == NULL)

  000fa	83 7d d4 00	 cmp	 DWORD PTR _pszAString1$[ebp], 0
  000fe	75 0a		 jne	 SHORT $L26349

; 200  : 			AtlThrow(E_OUTOFMEMORY);

  00100	68 0e 00 07 80	 push	 -2147024882		; 8007000eH
  00105	e8 00 00 00 00	 call	 ?AtlThrow@ATL@@YGXJ@Z	; ATL::AtlThrow
$L26349:

; 201  : 	}
; 202  : 
; 203  : 	LPCSTR pszAString2 = NULL;

  0010a	c7 45 d0 00 00
	00 00		 mov	 DWORD PTR _pszAString2$[ebp], 0

; 204  : 	if(pszString2 != NULL)

  00111	83 7d 18 00	 cmp	 DWORD PTR _pszString2$[ebp], 0
  00115	0f 84 a1 00 00
	00		 je	 $L26355

; 205  : 	{
; 206  : 		pszAString2 = W2A_EX(pszString2,_ATL_SAFE_ALLOCA_DEF_THRESHOLD);

  0011b	8b 45 18	 mov	 eax, DWORD PTR _pszString2$[ebp]
  0011e	89 45 e8	 mov	 DWORD PTR __lpw_ex$[ebp], eax
  00121	83 7d e8 00	 cmp	 DWORD PTR __lpw_ex$[ebp], 0
  00125	75 09		 jne	 SHORT $L195532
  00127	c7 45 bc 00 00
	00 00		 mov	 DWORD PTR tv149[ebp], 0
  0012e	eb 76		 jmp	 SHORT $L195533
$L195532:
  00130	8b f4		 mov	 esi, esp
  00132	8b 4d e8	 mov	 ecx, DWORD PTR __lpw_ex$[ebp]
  00135	51		 push	 ecx
  00136	ff 15 00 00 00
	00		 call	 DWORD PTR __imp__lstrlenW@4
  0013c	3b f4		 cmp	 esi, esp
  0013e	e8 00 00 00 00	 call	 __RTC_CheckEsp
  00143	8d 54 00 02	 lea	 edx, DWORD PTR [eax+eax+2]
  00147	89 55 f0	 mov	 DWORD PTR __convert_ex$[ebp], edx
  0014a	81 7d f0 00 04
	00 00		 cmp	 DWORD PTR __convert_ex$[ebp], 1024 ; 00000400H
  00151	7f 2c		 jg	 SHORT $L195530
  00153	8b 45 f0	 mov	 eax, DWORD PTR __convert_ex$[ebp]
  00156	50		 push	 eax
  00157	e8 00 00 00 00	 call	 ?_AtlVerifyStackAvailable@_ATL_SAFE_ALLOCA_IMPL@ATL@@YA_NK@Z ; ATL::_ATL_SAFE_ALLOCA_IMPL::_AtlVerifyStackAvailable
  0015c	83 c4 04	 add	 esp, 4
  0015f	0f b6 c8	 movzx	 ecx, al
  00162	85 c9		 test	 ecx, ecx
  00164	74 19		 je	 SHORT $L195530
  00166	8b 45 f0	 mov	 eax, DWORD PTR __convert_ex$[ebp]
  00169	83 c0 03	 add	 eax, 3
  0016c	83 e0 fc	 and	 eax, -4			; fffffffcH
  0016f	e8 00 00 00 00	 call	 __alloca_probe
  00174	89 65 b8	 mov	 DWORD PTR tv142[ebp], esp
  00177	8b 55 b8	 mov	 edx, DWORD PTR tv142[ebp]
  0017a	89 55 b4	 mov	 DWORD PTR tv147[ebp], edx
  0017d	eb 0f		 jmp	 SHORT $L195531
$L195530:
  0017f	8b 45 f0	 mov	 eax, DWORD PTR __convert_ex$[ebp]
  00182	50		 push	 eax
  00183	8d 4d dc	 lea	 ecx, DWORD PTR __AtlSafeAllocaManager$[ebp]
  00186	e8 00 00 00 00	 call	 ?Allocate@?$CAtlSafeAllocBufferManager@VCCRTAllocator@ATL@@@_ATL_SAFE_ALLOCA_IMPL@ATL@@QAEPAXK@Z ; ATL::_ATL_SAFE_ALLOCA_IMPL::CAtlSafeAllocBufferManager<ATL::CCRTAllocator>::Allocate
  0018b	89 45 b4	 mov	 DWORD PTR tv147[ebp], eax
$L195531:
  0018e	8b 4d ec	 mov	 ecx, DWORD PTR __acp_ex$[ebp]
  00191	51		 push	 ecx
  00192	8b 55 f0	 mov	 edx, DWORD PTR __convert_ex$[ebp]
  00195	52		 push	 edx
  00196	8b 45 e8	 mov	 eax, DWORD PTR __lpw_ex$[ebp]
  00199	50		 push	 eax
  0019a	8b 4d b4	 mov	 ecx, DWORD PTR tv147[ebp]
  0019d	51		 push	 ecx
  0019e	e8 00 00 00 00	 call	 ?AtlW2AHelper@@YGPADPADPB_WHI@Z ; AtlW2AHelper
  001a3	89 45 bc	 mov	 DWORD PTR tv149[ebp], eax
$L195533:
  001a6	8b 55 bc	 mov	 edx, DWORD PTR tv149[ebp]
  001a9	89 55 d0	 mov	 DWORD PTR _pszAString2$[ebp], edx

; 207  : 		if(pszAString2 == NULL)

  001ac	83 7d d0 00	 cmp	 DWORD PTR _pszAString2$[ebp], 0
  001b0	75 0a		 jne	 SHORT $L26355

; 208  : 			AtlThrow(E_OUTOFMEMORY);

  001b2	68 0e 00 07 80	 push	 -2147024882		; 8007000eH
  001b7	e8 00 00 00 00	 call	 ?AtlThrow@ATL@@YGXJ@Z	; ATL::AtlThrow
$L26355:

; 209  : 	}
; 210  : 
; 211  : 	return ::CompareStringA(lcid, dwFlags, pszAString1, nLength1, pszAString2, nLength2);

  001bc	8b f4		 mov	 esi, esp
  001be	8b 45 1c	 mov	 eax, DWORD PTR _nLength2$[ebp]
  001c1	50		 push	 eax
  001c2	8b 4d d0	 mov	 ecx, DWORD PTR _pszAString2$[ebp]
  001c5	51		 push	 ecx
  001c6	8b 55 14	 mov	 edx, DWORD PTR _nLength1$[ebp]
  001c9	52		 push	 edx
  001ca	8b 45 d4	 mov	 eax, DWORD PTR _pszAString1$[ebp]
  001cd	50		 push	 eax
  001ce	8b 4d 0c	 mov	 ecx, DWORD PTR _dwFlags$[ebp]
  001d1	51		 push	 ecx
  001d2	8b 55 08	 mov	 edx, DWORD PTR _lcid$[ebp]
  001d5	52		 push	 edx
  001d6	ff 15 00 00 00
	00		 call	 DWORD PTR __imp__CompareStringA@24
  001dc	3b f4		 cmp	 esi, esp
  001de	e8 00 00 00 00	 call	 __RTC_CheckEsp
  001e3	89 45 cc	 mov	 DWORD PTR $T195534[ebp], eax
  001e6	c7 45 fc ff ff
	ff ff		 mov	 DWORD PTR __$EHRec$[ebp+8], -1
  001ed	8d 4d dc	 lea	 ecx, DWORD PTR __AtlSafeAllocaManager$[ebp]
  001f0	e8 00 00 00 00	 call	 ??1?$CAtlSafeAllocBufferManager@VCCRTAllocator@ATL@@@_ATL_SAFE_ALLOCA_IMPL@ATL@@QAE@XZ ; ATL::_ATL_SAFE_ALLOCA_IMPL::CAtlSafeAllocBufferManager<ATL::CCRTAllocator>::~CAtlSafeAllocBufferManager<ATL::CCRTAllocator>
  001f5	8b 45 cc	 mov	 eax, DWORD PTR $T195534[ebp]
$L195525:

; 212  : }

  001f8	8d 65 ac	 lea	 esp, DWORD PTR [ebp-84]
  001fb	52		 push	 edx
  001fc	8b cd		 mov	 ecx, ebp
  001fe	50		 push	 eax
  001ff	8d 15 00 00 00
	00		 lea	 edx, DWORD PTR $L195542
  00205	e8 00 00 00 00	 call	 @_RTC_CheckStackVars@8
  0020a	58		 pop	 eax
  0020b	5a		 pop	 edx
  0020c	8b 4d f4	 mov	 ecx, DWORD PTR __$EHRec$[ebp]
  0020f	64 89 0d 00 00
	00 00		 mov	 DWORD PTR fs:__except_list, ecx
  00216	5f		 pop	 edi
  00217	5e		 pop	 esi
  00218	8b e5		 mov	 esp, ebp
  0021a	5d		 pop	 ebp
  0021b	c2 18 00	 ret	 24			; 00000018H
$L195542:
  0021e	01 00 00 00	 DD	 1
  00222	00 00 00 00	 DD	 $L195541
$L195541:
  00226	dc ff ff ff	 DD	 -36			; ffffffdcH
  0022a	04 00 00 00	 DD	 4
  0022e	00 00 00 00	 DD	 $L195539
$L195539:
  00232	5f		 DB	 95			; 0000005fH
  00233	41		 DB	 65			; 00000041H
  00234	74		 DB	 116			; 00000074H
  00235	6c		 DB	 108			; 0000006cH
  00236	53		 DB	 83			; 00000053H
  00237	61		 DB	 97			; 00000061H
  00238	66		 DB	 102			; 00000066H
  00239	65		 DB	 101			; 00000065H
  0023a	41		 DB	 65			; 00000041H
  0023b	6c		 DB	 108			; 0000006cH
  0023c	6c		 DB	 108			; 0000006cH
  0023d	6f		 DB	 111			; 0000006fH
  0023e	63		 DB	 99			; 00000063H
  0023f	61		 DB	 97			; 00000061H
  00240	4d		 DB	 77			; 0000004dH
  00241	61		 DB	 97			; 00000061H
  00242	6e		 DB	 110			; 0000006eH
  00243	61		 DB	 97			; 00000061H
  00244	67		 DB	 103			; 00000067H
  00245	65		 DB	 101			; 00000065H
  00246	72		 DB	 114			; 00000072H
  00247	00		 DB	 0
_TEXT	ENDS
;	COMDAT text$x
text$x	SEGMENT
$L195535:
  00000	8d 4d dc	 lea	 ecx, DWORD PTR __AtlSafeAllocaManager$[ebp]
  00003	e9 00 00 00 00	 jmp	 ??1?$CAtlSafeAllocBufferManager@VCCRTAllocator@ATL@@@_ATL_SAFE_ALLOCA_IMPL@ATL@@QAE@XZ ; ATL::_ATL_SAFE_ALLOCA_IMPL::CAtlSafeAllocBufferManager<ATL::CCRTAllocator>::~CAtlSafeAllocBufferManager<ATL::CCRTAllocator>
__ehhandler$?CompareStringWFake@ATL@@YGHKKPB_WH0H@Z:
  00008	b8 00 00 00 00	 mov	 eax, OFFSET FLAT:$T195537
  0000d	e9 00 00 00 00	 jmp	 ___CxxFrameHandler
text$x	ENDS
?CompareStringWFake@ATL@@YGHKKPB_WH0H@Z ENDP		; ATL::CompareStringWFake
EXTRN	__imp___resetstkoflw:NEAR
EXTRN	__except_handler3:NEAR
;	COMDAT CONST
; File d:\program files (x86)\microsoft visual studio .net 2003\vc7\atlmfc\include\atlalloc.h
CONST	SEGMENT
$T195553 DD	0ffffffffH
	DD	FLAT:$L195548
	DD	FLAT:$L195549
; Function compile flags: /Odt /RTCsu
CONST	ENDS
;	COMDAT ?_AtlVerifyStackAvailable@_ATL_SAFE_ALLOCA_IMPL@ATL@@YA_NK@Z
_TEXT	SEGMENT
tv65 = -48						; size = 4
$T195552 = -44						; size = 4
_p$24107 = -36						; size = 4
_bStackAvailable$ = -25					; size = 1
__$SEHRec$ = -24					; size = 24
_Size$ = 8						; size = 4
?_AtlVerifyStackAvailable@_ATL_SAFE_ALLOCA_IMPL@ATL@@YA_NK@Z PROC NEAR ; ATL::_ATL_SAFE_ALLOCA_IMPL::_AtlVerifyStackAvailable, COMDAT

; 331  : {

  00000	55		 push	 ebp
  00001	8b ec		 mov	 ebp, esp
  00003	6a ff		 push	 -1
  00005	68 00 00 00 00	 push	 OFFSET FLAT:$T195553
  0000a	68 00 00 00 00	 push	 OFFSET FLAT:__except_handler3
  0000f	64 a1 00 00 00
	00		 mov	 eax, DWORD PTR fs:__except_list
  00015	50		 push	 eax
  00016	64 89 25 00 00
	00 00		 mov	 DWORD PTR fs:__except_list, esp
  0001d	83 c4 e0	 add	 esp, -32		; ffffffe0H
  00020	53		 push	 ebx
  00021	56		 push	 esi
  00022	57		 push	 edi
  00023	b8 cc cc cc cc	 mov	 eax, -858993460		; ccccccccH
  00028	89 45 d0	 mov	 DWORD PTR [ebp-48], eax
  0002b	89 45 d4	 mov	 DWORD PTR [ebp-44], eax
  0002e	89 45 d8	 mov	 DWORD PTR [ebp-40], eax
  00031	89 45 dc	 mov	 DWORD PTR [ebp-36], eax
  00034	89 45 e0	 mov	 DWORD PTR [ebp-32], eax
  00037	89 45 e4	 mov	 DWORD PTR [ebp-28], eax
  0003a	89 65 e8	 mov	 DWORD PTR __$SEHRec$[ebp], esp

; 332  :     bool bStackAvailable = true;

  0003d	c6 45 e7 01	 mov	 BYTE PTR _bStackAvailable$[ebp], 1

; 333  : 
; 334  :     __try

  00041	c7 45 fc 00 00
	00 00		 mov	 DWORD PTR __$SEHRec$[ebp+20], 0

; 335  :     {
; 336  :         PVOID p = _alloca(Size + _ATL_STACK_MARGIN);

  00048	8b 45 08	 mov	 eax, DWORD PTR _Size$[ebp]
  0004b	05 03 20 00 00	 add	 eax, 8195		; 00002003H
  00050	83 e0 fc	 and	 eax, -4			; fffffffcH
  00053	e8 00 00 00 00	 call	 __alloca_probe
  00058	89 65 d0	 mov	 DWORD PTR tv65[ebp], esp
  0005b	89 65 e8	 mov	 DWORD PTR __$SEHRec$[ebp], esp
  0005e	8b 45 d0	 mov	 eax, DWORD PTR tv65[ebp]
  00061	89 45 dc	 mov	 DWORD PTR _p$24107[ebp], eax
  00064	c7 45 fc ff ff
	ff ff		 mov	 DWORD PTR __$SEHRec$[ebp+20], -1
  0006b	eb 35		 jmp	 SHORT $L195551
$L195548:

; 337  :         (p);
; 338  :     }
; 339  :     __except ((EXCEPTION_STACK_OVERFLOW == GetExceptionCode()) ?
; 340  :                    EXCEPTION_EXECUTE_HANDLER :
; 341  :                    EXCEPTION_CONTINUE_SEARCH)

  0006d	8b 4d ec	 mov	 ecx, DWORD PTR __$SEHRec$[ebp+4]
  00070	8b 11		 mov	 edx, DWORD PTR [ecx]
  00072	8b 02		 mov	 eax, DWORD PTR [edx]
  00074	89 45 d4	 mov	 DWORD PTR $T195552[ebp], eax
  00077	8b 45 d4	 mov	 eax, DWORD PTR $T195552[ebp]
  0007a	2d fd 00 00 c0	 sub	 eax, -1073741571	; c00000fdH
  0007f	f7 d8		 neg	 eax
  00081	1b c0		 sbb	 eax, eax
  00083	40		 inc	 eax
$L195550:
  00084	c3		 ret	 0
$L195549:
  00085	8b 65 e8	 mov	 esp, DWORD PTR __$SEHRec$[ebp]

; 342  :     {
; 343  :         bStackAvailable = false;

  00088	c6 45 e7 00	 mov	 BYTE PTR _bStackAvailable$[ebp], 0

; 344  :         _resetstkoflw();

  0008c	8b f4		 mov	 esi, esp
  0008e	ff 15 00 00 00
	00		 call	 DWORD PTR __imp___resetstkoflw
  00094	3b f4		 cmp	 esi, esp
  00096	e8 00 00 00 00	 call	 __RTC_CheckEsp
  0009b	c7 45 fc ff ff
	ff ff		 mov	 DWORD PTR __$SEHRec$[ebp+20], -1
$L195551:

; 345  :     }
; 346  :     return bStackAvailable;

  000a2	8a 45 e7	 mov	 al, BYTE PTR _bStackAvailable$[ebp]
$L195547:

; 347  : }

  000a5	8d 65 c4	 lea	 esp, DWORD PTR [ebp-60]
  000a8	52		 push	 edx
  000a9	8b cd		 mov	 ecx, ebp
  000ab	50		 push	 eax
  000ac	8d 15 00 00 00
	00		 lea	 edx, DWORD PTR $L195558
  000b2	e8 00 00 00 00	 call	 @_RTC_CheckStackVars@8
  000b7	58		 pop	 eax
  000b8	5a		 pop	 edx
  000b9	8b 4d f0	 mov	 ecx, DWORD PTR __$SEHRec$[ebp+8]
  000bc	64 89 0d 00 00
	00 00		 mov	 DWORD PTR fs:__except_list, ecx
  000c3	5f		 pop	 edi
  000c4	5e		 pop	 esi
  000c5	5b		 pop	 ebx
  000c6	8b e5		 mov	 esp, ebp
  000c8	5d		 pop	 ebp
  000c9	c3		 ret	 0
$L195558:
  000ca	01 00 00 00	 DD	 1
  000ce	00 00 00 00	 DD	 $L195557
$L195557:
  000d2	dc ff ff ff	 DD	 -36			; ffffffdcH
  000d6	04 00 00 00	 DD	 4
  000da	00 00 00 00	 DD	 $L195555
$L195555:
  000de	70		 DB	 112			; 00000070H
  000df	00		 DB	 0
?_AtlVerifyStackAvailable@_ATL_SAFE_ALLOCA_IMPL@ATL@@YA_NK@Z ENDP ; ATL::_ATL_SAFE_ALLOCA_IMPL::_AtlVerifyStackAvailable
_TEXT	ENDS
PUBLIC	??_C@_08DMHHBMMN@lpa?5?$CB?$DN?50?$AA@		; `string'
PUBLIC	??_C@_0FG@PFHCBDBK@D?3?2Program?5Files?5?$CIx86?$CJ?2Microsoft@ ; `string'
PUBLIC	??_C@_08DIHJLFDJ@lpw?5?$CB?$DN?50?$AA@		; `string'
PUBLIC	??_C@_01GBGANLPD@0?$AA@				; `string'
EXTRN	__imp__WideCharToMultiByte@32:NEAR
;	COMDAT ??_C@_08DIHJLFDJ@lpw?5?$CB?$DN?50?$AA@
; File d:\program files (x86)\microsoft visual studio .net 2003\vc7\atlmfc\include\atlconv.h
CONST	SEGMENT
??_C@_08DIHJLFDJ@lpw?5?$CB?$DN?50?$AA@ DB 'lpw != 0', 00H ; `string'
CONST	ENDS
;	COMDAT ??_C@_0FG@PFHCBDBK@D?3?2Program?5Files?5?$CIx86?$CJ?2Microsoft@
CONST	SEGMENT
??_C@_0FG@PFHCBDBK@D?3?2Program?5Files?5?$CIx86?$CJ?2Microsoft@ DB 'D:\Pr'
	DB	'ogram Files (x86)\Microsoft Visual Studio .NET 2003\Vc7\atlmf'
	DB	'c\include\atlconv.h', 00H			; `string'
CONST	ENDS
;	COMDAT ??_C@_08DMHHBMMN@lpa?5?$CB?$DN?50?$AA@
CONST	SEGMENT
??_C@_08DMHHBMMN@lpa?5?$CB?$DN?50?$AA@ DB 'lpa != 0', 00H ; `string'
CONST	ENDS
;	COMDAT ??_C@_01GBGANLPD@0?$AA@
CONST	SEGMENT
??_C@_01GBGANLPD@0?$AA@ DB '0', 00H			; `string'
; Function compile flags: /Odt /RTCsu
CONST	ENDS
;	COMDAT ?AtlW2AHelper@@YGPADPADPB_WHI@Z
_TEXT	SEGMENT
_ret$ = -4						; size = 4
_lpa$ = 8						; size = 4
_lpw$ = 12						; size = 4
_nChars$ = 16						; size = 4
_acp$ = 20						; size = 4
?AtlW2AHelper@@YGPADPADPB_WHI@Z PROC NEAR		; AtlW2AHelper, COMDAT

; 573  : {

  00000	55		 push	 ebp
  00001	8b ec		 mov	 ebp, esp
  00003	51		 push	 ecx
  00004	56		 push	 esi
  00005	c7 45 fc cc cc
	cc cc		 mov	 DWORD PTR [ebp-4], -858993460 ; ccccccccH

; 574  : 	ATLASSERT(lpw != NULL);

  0000c	83 7d 0c 00	 cmp	 DWORD PTR _lpw$[ebp], 0
  00010	75 2b		 jne	 SHORT $L195562
  00012	8b f4		 mov	 esi, esp
  00014	68 00 00 00 00	 push	 OFFSET FLAT:??_C@_08DIHJLFDJ@lpw?5?$CB?$DN?50?$AA@
  00019	6a 00		 push	 0
  0001b	68 3e 02 00 00	 push	 574			; 0000023eH
  00020	68 00 00 00 00	 push	 OFFSET FLAT:??_C@_0FG@PFHCBDBK@D?3?2Program?5Files?5?$CIx86?$CJ?2Microsoft@
  00025	6a 02		 push	 2
  00027	ff 15 00 00 00
	00		 call	 DWORD PTR __imp___CrtDbgReport
  0002d	83 c4 14	 add	 esp, 20			; 00000014H
  00030	3b f4		 cmp	 esi, esp
  00032	e8 00 00 00 00	 call	 __RTC_CheckEsp
  00037	83 f8 01	 cmp	 eax, 1
  0003a	75 01		 jne	 SHORT $L195562
  0003c	cc		 int	 3
$L195562:

; 575  : 	ATLASSERT(lpa != NULL);

  0003d	83 7d 08 00	 cmp	 DWORD PTR _lpa$[ebp], 0
  00041	75 2b		 jne	 SHORT $L195563
  00043	8b f4		 mov	 esi, esp
  00045	68 00 00 00 00	 push	 OFFSET FLAT:??_C@_08DMHHBMMN@lpa?5?$CB?$DN?50?$AA@
  0004a	6a 00		 push	 0
  0004c	68 3f 02 00 00	 push	 575			; 0000023fH
  00051	68 00 00 00 00	 push	 OFFSET FLAT:??_C@_0FG@PFHCBDBK@D?3?2Program?5Files?5?$CIx86?$CJ?2Microsoft@
  00056	6a 02		 push	 2
  00058	ff 15 00 00 00
	00		 call	 DWORD PTR __imp___CrtDbgReport
  0005e	83 c4 14	 add	 esp, 20			; 00000014H
  00061	3b f4		 cmp	 esi, esp
  00063	e8 00 00 00 00	 call	 __RTC_CheckEsp
  00068	83 f8 01	 cmp	 eax, 1
  0006b	75 01		 jne	 SHORT $L195563
  0006d	cc		 int	 3
$L195563:

; 576  : 	if (lpa == NULL || lpw == NULL)

  0006e	83 7d 08 00	 cmp	 DWORD PTR _lpa$[ebp], 0
  00072	74 06		 je	 SHORT $L24313
  00074	83 7d 0c 00	 cmp	 DWORD PTR _lpw$[ebp], 0
  00078	75 04		 jne	 SHORT $L24312
$L24313:

; 577  : 		return NULL;

  0007a	33 c0		 xor	 eax, eax
  0007c	eb 6c		 jmp	 SHORT $L24309
$L24312:

; 578  : 	// verify that no illegal character present
; 579  : 	// since lpa was allocated based on the size of lpw
; 580  : 	// don't worry about the number of chars
; 581  : 	lpa[0] = '\0';

  0007e	8b 55 08	 mov	 edx, DWORD PTR _lpa$[ebp]
  00081	c6 02 00	 mov	 BYTE PTR [edx], 0

; 582  : 	int ret = WideCharToMultiByte(acp, 0, lpw, -1, lpa, nChars, NULL, NULL);

  00084	8b f4		 mov	 esi, esp
  00086	6a 00		 push	 0
  00088	6a 00		 push	 0
  0008a	8b 45 10	 mov	 eax, DWORD PTR _nChars$[ebp]
  0008d	50		 push	 eax
  0008e	8b 4d 08	 mov	 ecx, DWORD PTR _lpa$[ebp]
  00091	51		 push	 ecx
  00092	6a ff		 push	 -1
  00094	8b 55 0c	 mov	 edx, DWORD PTR _lpw$[ebp]
  00097	52		 push	 edx
  00098	6a 00		 push	 0
  0009a	8b 45 14	 mov	 eax, DWORD PTR _acp$[ebp]
  0009d	50		 push	 eax
  0009e	ff 15 00 00 00
	00		 call	 DWORD PTR __imp__WideCharToMultiByte@32
  000a4	3b f4		 cmp	 esi, esp
  000a6	e8 00 00 00 00	 call	 __RTC_CheckEsp
  000ab	89 45 fc	 mov	 DWORD PTR _ret$[ebp], eax

; 583  : 	if(ret == 0)

  000ae	83 7d fc 00	 cmp	 DWORD PTR _ret$[ebp], 0
  000b2	75 33		 jne	 SHORT $L24315

; 584  : 	{
; 585  : 		ATLASSERT(FALSE);

  000b4	33 c9		 xor	 ecx, ecx
  000b6	75 2b		 jne	 SHORT $L195564
  000b8	8b f4		 mov	 esi, esp
  000ba	68 00 00 00 00	 push	 OFFSET FLAT:??_C@_01GBGANLPD@0?$AA@
  000bf	6a 00		 push	 0
  000c1	68 49 02 00 00	 push	 585			; 00000249H
  000c6	68 00 00 00 00	 push	 OFFSET FLAT:??_C@_0FG@PFHCBDBK@D?3?2Program?5Files?5?$CIx86?$CJ?2Microsoft@
  000cb	6a 02		 push	 2
  000cd	ff 15 00 00 00
	00		 call	 DWORD PTR __imp___CrtDbgReport
  000d3	83 c4 14	 add	 esp, 20			; 00000014H
  000d6	3b f4		 cmp	 esi, esp
  000d8	e8 00 00 00 00	 call	 __RTC_CheckEsp
  000dd	83 f8 01	 cmp	 eax, 1
  000e0	75 01		 jne	 SHORT $L195564
  000e2	cc		 int	 3
$L195564:

; 586  : 		return NULL;

  000e3	33 c0		 xor	 eax, eax
  000e5	eb 03		 jmp	 SHORT $L24309
$L24315:

; 587  : 	}
; 588  : 	return lpa;

  000e7	8b 45 08	 mov	 eax, DWORD PTR _lpa$[ebp]
$L24309:

; 589  : }

  000ea	5e		 pop	 esi
  000eb	83 c4 04	 add	 esp, 4
  000ee	3b ec		 cmp	 ebp, esp
  000f0	e8 00 00 00 00	 call	 __RTC_CheckEsp
  000f5	8b e5		 mov	 esp, ebp
  000f7	5d		 pop	 ebp
  000f8	c2 10 00	 ret	 16			; 00000010H
?AtlW2AHelper@@YGPADPADPB_WHI@Z ENDP			; AtlW2AHelper
_TEXT	ENDS
PUBLIC	??BCTraceCategory@ATL@@QBEKXZ			; ATL::CTraceCategory::operator unsigned long
PUBLIC	??0CTraceFileAndLineInfo@ATL@@QAE@PBDH@Z	; ATL::CTraceFileAndLineInfo::CTraceFileAndLineInfo
PUBLIC	??RCTraceFileAndLineInfo@ATL@@QBAXKIPBDZZ	; ATL::CTraceFileAndLineInfo::operator()
PUBLIC	??_C@_0FI@NHHJANPC@D?3?2Program?5Files?5?$CIx86?$CJ?2Microsoft@ ; `string'
PUBLIC	??_C@_0BF@IAAKIJDJ@AtlThrow?3?5hr?5?$DN?50x?$CFx?6?$AA@ ; `string'
EXTRN	?atlTraceException@ATL@@3VCTraceCategory@1@A:DWORD ; ATL::atlTraceException
EXTRN	?AfxThrowMemoryException@@YGXXZ:NEAR		; AfxThrowMemoryException
EXTRN	?AfxThrowOleException@@YGXJ@Z:NEAR		; AfxThrowOleException
;	COMDAT ??_C@_0BF@IAAKIJDJ@AtlThrow?3?5hr?5?$DN?50x?$CFx?6?$AA@
; File d:\program files (x86)\microsoft visual studio .net 2003\vc7\atlmfc\include\atlexcept.h
CONST	SEGMENT
??_C@_0BF@IAAKIJDJ@AtlThrow?3?5hr?5?$DN?50x?$CFx?6?$AA@ DB 'AtlThrow: hr '
	DB	'= 0x%x', 0aH, 00H				; `string'
CONST	ENDS
;	COMDAT ??_C@_0FI@NHHJANPC@D?3?2Program?5Files?5?$CIx86?$CJ?2Microsoft@
CONST	SEGMENT
??_C@_0FI@NHHJANPC@D?3?2Program?5Files?5?$CIx86?$CJ?2Microsoft@ DB 'D:\Pr'
	DB	'ogram Files (x86)\Microsoft Visual Studio .NET 2003\Vc7\atlmf'
	DB	'c\include\atlexcept.h', 00H			; `string'
; Function compile flags: /Odt /RTCsu
CONST	ENDS
;	COMDAT ?AtlThrow@ATL@@YGXJ@Z
_TEXT	SEGMENT
$T195566 = -8						; size = 8
_hr$ = 8						; size = 4
?AtlThrow@ATL@@YGXJ@Z PROC NEAR				; ATL::AtlThrow, COMDAT

; 61   : {

  00000	55		 push	 ebp
  00001	8b ec		 mov	 ebp, esp
  00003	83 ec 08	 sub	 esp, 8
  00006	c7 45 f8 cc cc
	cc cc		 mov	 DWORD PTR [ebp-8], -858993460 ; ccccccccH
  0000d	c7 45 fc cc cc
	cc cc		 mov	 DWORD PTR [ebp-4], -858993460 ; ccccccccH

; 62   : 	ATLTRACE(atlTraceException, 0, _T("AtlThrow: hr = 0x%x\n"), hr );

  00014	8b 45 08	 mov	 eax, DWORD PTR _hr$[ebp]
  00017	50		 push	 eax
  00018	68 00 00 00 00	 push	 OFFSET FLAT:??_C@_0BF@IAAKIJDJ@AtlThrow?3?5hr?5?$DN?50x?$CFx?6?$AA@
  0001d	6a 00		 push	 0
  0001f	b9 00 00 00 00	 mov	 ecx, OFFSET FLAT:?atlTraceException@ATL@@3VCTraceCategory@1@A ; ATL::atlTraceException
  00024	e8 00 00 00 00	 call	 ??BCTraceCategory@ATL@@QBEKXZ ; ATL::CTraceCategory::operator unsigned long
  00029	50		 push	 eax
  0002a	6a 3e		 push	 62			; 0000003eH
  0002c	68 00 00 00 00	 push	 OFFSET FLAT:??_C@_0FI@NHHJANPC@D?3?2Program?5Files?5?$CIx86?$CJ?2Microsoft@
  00031	8d 4d f8	 lea	 ecx, DWORD PTR $T195566[ebp]
  00034	e8 00 00 00 00	 call	 ??0CTraceFileAndLineInfo@ATL@@QAE@PBDH@Z ; ATL::CTraceFileAndLineInfo::CTraceFileAndLineInfo
  00039	50		 push	 eax
  0003a	e8 00 00 00 00	 call	 ??RCTraceFileAndLineInfo@ATL@@QBAXKIPBDZZ ; ATL::CTraceFileAndLineInfo::operator()
  0003f	83 c4 14	 add	 esp, 20			; 00000014H

; 63   : #ifdef _AFX
; 64   : 	if( hr == E_OUTOFMEMORY )

  00042	81 7d 08 0e 00
	07 80		 cmp	 DWORD PTR _hr$[ebp], -2147024882 ; 8007000eH
  00049	75 05		 jne	 SHORT $L25222

; 65   : 	{
; 66   : 		AfxThrowMemoryException();

  0004b	e8 00 00 00 00	 call	 ?AfxThrowMemoryException@@YGXXZ ; AfxThrowMemoryException
$L25222:

; 67   : 	}
; 68   : 	else
; 69   : 	{
; 70   : 		AfxThrowOleException( hr );

  00050	8b 4d 08	 mov	 ecx, DWORD PTR _hr$[ebp]
  00053	51		 push	 ecx
  00054	e8 00 00 00 00	 call	 ?AfxThrowOleException@@YGXJ@Z ; AfxThrowOleException
$L195565:

; 71   : 	}
; 72   : #else
; 73   : 	throw CAtlException( hr );
; 74   : #endif
; 75   : };

  00059	83 c4 08	 add	 esp, 8
  0005c	3b ec		 cmp	 ebp, esp
  0005e	e8 00 00 00 00	 call	 __RTC_CheckEsp
  00063	8b e5		 mov	 esp, ebp
  00065	5d		 pop	 ebp
  00066	c2 04 00	 ret	 4
?AtlThrow@ATL@@YGXJ@Z ENDP				; ATL::AtlThrow
; Function compile flags: /Odt /RTCsu
; File d:\program files (x86)\microsoft visual studio .net 2003\vc7\atlmfc\include\atltrace.h
_TEXT	ENDS
;	COMDAT ??0CTraceFileAndLineInfo@ATL@@QAE@PBDH@Z
_TEXT	SEGMENT
_this$ = -4						; size = 4
_pszFileName$ = 8					; size = 4
_nLineNo$ = 12						; size = 4
??0CTraceFileAndLineInfo@ATL@@QAE@PBDH@Z PROC NEAR	; ATL::CTraceFileAndLineInfo::CTraceFileAndLineInfo, COMDAT
; _this$ = ecx

; 158  : 	{}

  00000	55		 push	 ebp
  00001	8b ec		 mov	 ebp, esp
  00003	51		 push	 ecx
  00004	c7 45 fc cc cc
	cc cc		 mov	 DWORD PTR [ebp-4], -858993460 ; ccccccccH
  0000b	89 4d fc	 mov	 DWORD PTR _this$[ebp], ecx
  0000e	8b 45 fc	 mov	 eax, DWORD PTR _this$[ebp]
  00011	8b 4d 08	 mov	 ecx, DWORD PTR _pszFileName$[ebp]
  00014	89 08		 mov	 DWORD PTR [eax], ecx
  00016	8b 55 fc	 mov	 edx, DWORD PTR _this$[ebp]
  00019	8b 45 0c	 mov	 eax, DWORD PTR _nLineNo$[ebp]
  0001c	89 42 04	 mov	 DWORD PTR [edx+4], eax
  0001f	8b 45 fc	 mov	 eax, DWORD PTR _this$[ebp]
  00022	8b e5		 mov	 esp, ebp
  00024	5d		 pop	 ebp
  00025	c2 08 00	 ret	 8
??0CTraceFileAndLineInfo@ATL@@QAE@PBDH@Z ENDP		; ATL::CTraceFileAndLineInfo::CTraceFileAndLineInfo
_TEXT	ENDS
PUBLIC	?TraceV@CTrace@ATL@@QBAXPBDHKI0PAD@Z		; ATL::CTrace::TraceV
EXTRN	?s_trace@CTrace@ATL@@2V12@A:QWORD		; ATL::CTrace::s_trace
; Function compile flags: /Odt /RTCsu
;	COMDAT ??RCTraceFileAndLineInfo@ATL@@QBAXKIPBDZZ
_TEXT	SEGMENT
_ptr$ = -4						; size = 4
_this$ = 8						; size = 4
_dwCategory$ = 12					; size = 4
_nLevel$ = 16						; size = 4
_pszFmt$ = 20						; size = 4
??RCTraceFileAndLineInfo@ATL@@QBAXKIPBDZZ PROC NEAR	; ATL::CTraceFileAndLineInfo::operator(), COMDAT

; 161  : 	{

  00000	55		 push	 ebp
  00001	8b ec		 mov	 ebp, esp
  00003	51		 push	 ecx
  00004	c7 45 fc cc cc
	cc cc		 mov	 DWORD PTR [ebp-4], -858993460 ; ccccccccH

; 162  : 		va_list ptr; va_start(ptr, pszFmt);

  0000b	8d 45 18	 lea	 eax, DWORD PTR _pszFmt$[ebp+4]
  0000e	89 45 fc	 mov	 DWORD PTR _ptr$[ebp], eax

; 163  : 		ATL::CTrace::s_trace.TraceV(m_pszFileName, m_nLineNo, dwCategory, nLevel, pszFmt, ptr);

  00011	8b 4d fc	 mov	 ecx, DWORD PTR _ptr$[ebp]
  00014	51		 push	 ecx
  00015	8b 55 14	 mov	 edx, DWORD PTR _pszFmt$[ebp]
  00018	52		 push	 edx
  00019	8b 45 10	 mov	 eax, DWORD PTR _nLevel$[ebp]
  0001c	50		 push	 eax
  0001d	8b 4d 0c	 mov	 ecx, DWORD PTR _dwCategory$[ebp]
  00020	51		 push	 ecx
  00021	8b 55 08	 mov	 edx, DWORD PTR _this$[ebp]
  00024	8b 42 04	 mov	 eax, DWORD PTR [edx+4]
  00027	50		 push	 eax
  00028	8b 4d 08	 mov	 ecx, DWORD PTR _this$[ebp]
  0002b	8b 11		 mov	 edx, DWORD PTR [ecx]
  0002d	52		 push	 edx
  0002e	68 00 00 00 00	 push	 OFFSET FLAT:?s_trace@CTrace@ATL@@2V12@A
  00033	e8 00 00 00 00	 call	 ?TraceV@CTrace@ATL@@QBAXPBDHKI0PAD@Z ; ATL::CTrace::TraceV
  00038	83 c4 1c	 add	 esp, 28			; 0000001cH

; 164  : 		va_end(ptr);

  0003b	c7 45 fc 00 00
	00 00		 mov	 DWORD PTR _ptr$[ebp], 0

; 165  : 	}

  00042	83 c4 04	 add	 esp, 4
  00045	3b ec		 cmp	 ebp, esp
  00047	e8 00 00 00 00	 call	 __RTC_CheckEsp
  0004c	8b e5		 mov	 esp, ebp
  0004e	5d		 pop	 ebp
  0004f	c3		 ret	 0
??RCTraceFileAndLineInfo@ATL@@QBAXKIPBDZZ ENDP		; ATL::CTraceFileAndLineInfo::operator()
_TEXT	ENDS
EXTRN	_AtlTraceVA:NEAR
; Function compile flags: /Odt /RTCsu
;	COMDAT ?TraceV@CTrace@ATL@@QBAXPBDHKI0PAD@Z
_TEXT	SEGMENT
_this$ = 8						; size = 4
_pszFileName$ = 12					; size = 4
_nLine$ = 16						; size = 4
_dwCategory$ = 20					; size = 4
_nLevel$ = 24						; size = 4
_pszFmt$ = 28						; size = 4
_args$ = 32						; size = 4
?TraceV@CTrace@ATL@@QBAXPBDHKI0PAD@Z PROC NEAR		; ATL::CTrace::TraceV, COMDAT

; 121  : 	{

  00000	55		 push	 ebp
  00001	8b ec		 mov	 ebp, esp

; 122  : 		AtlTraceVA(m_dwModule, pszFileName, nLine, dwCategory, nLevel, pszFmt, args);

  00003	8b 45 20	 mov	 eax, DWORD PTR _args$[ebp]
  00006	50		 push	 eax
  00007	8b 4d 1c	 mov	 ecx, DWORD PTR _pszFmt$[ebp]
  0000a	51		 push	 ecx
  0000b	8b 55 18	 mov	 edx, DWORD PTR _nLevel$[ebp]
  0000e	52		 push	 edx
  0000f	8b 45 14	 mov	 eax, DWORD PTR _dwCategory$[ebp]
  00012	50		 push	 eax
  00013	8b 4d 10	 mov	 ecx, DWORD PTR _nLine$[ebp]
  00016	51		 push	 ecx
  00017	8b 55 0c	 mov	 edx, DWORD PTR _pszFileName$[ebp]
  0001a	52		 push	 edx
  0001b	8b 45 08	 mov	 eax, DWORD PTR _this$[ebp]
  0001e	8b 48 04	 mov	 ecx, DWORD PTR [eax+4]
  00021	51		 push	 ecx
  00022	e8 00 00 00 00	 call	 _AtlTraceVA
  00027	83 c4 1c	 add	 esp, 28			; 0000001cH

; 123  : 	}

  0002a	3b ec		 cmp	 ebp, esp
  0002c	e8 00 00 00 00	 call	 __RTC_CheckEsp
  00031	5d		 pop	 ebp
  00032	c3		 ret	 0
?TraceV@CTrace@ATL@@QBAXPBDHKI0PAD@Z ENDP		; ATL::CTrace::TraceV
; Function compile flags: /Odt /RTCsu
_TEXT	ENDS
;	COMDAT ??BCTraceCategory@ATL@@QBEKXZ
_TEXT	SEGMENT
_this$ = -4						; size = 4
??BCTraceCategory@ATL@@QBEKXZ PROC NEAR			; ATL::CTraceCategory::operator unsigned long, COMDAT
; _this$ = ecx

; 202  : {

  00000	55		 push	 ebp
  00001	8b ec		 mov	 ebp, esp
  00003	51		 push	 ecx
  00004	c7 45 fc cc cc
	cc cc		 mov	 DWORD PTR [ebp-4], -858993460 ; ccccccccH
  0000b	89 4d fc	 mov	 DWORD PTR _this$[ebp], ecx

; 203  : 	return( m_dwCategory );

  0000e	8b 45 fc	 mov	 eax, DWORD PTR _this$[ebp]
  00011	8b 00		 mov	 eax, DWORD PTR [eax]

; 204  : }

  00013	8b e5		 mov	 esp, ebp
  00015	5d		 pop	 ebp
  00016	c3		 ret	 0
??BCTraceCategory@ATL@@QBEKXZ ENDP			; ATL::CTraceCategory::operator unsigned long
_TEXT	ENDS
PUBLIC	?GetStringTypeExWFake@ATL@@YGHKKPB_WHPAG@Z	; ATL::GetStringTypeExWFake
EXTRN	__imp__GetStringTypeExW@20:NEAR
; Function compile flags: /Odt /RTCsu
; File d:\program files (x86)\microsoft visual studio .net 2003\vc7\atlmfc\include\cstringt.h
;	COMDAT ?GetStringTypeExWThunk@ATL@@YGHKKPB_WHPAG@Z
_TEXT	SEGMENT
_lcid$ = 8						; size = 4
_dwInfoType$ = 12					; size = 4
_pszSrc$ = 16						; size = 4
_nLength$ = 20						; size = 4
_pwCharType$ = 24					; size = 4
?GetStringTypeExWThunk@ATL@@YGHKKPB_WHPAG@Z PROC NEAR	; ATL::GetStringTypeExWThunk, COMDAT

; 240  : {

  00000	55		 push	 ebp
  00001	8b ec		 mov	 ebp, esp
  00003	56		 push	 esi

; 241  : 	_AtlInstallStringThunk(reinterpret_cast<void**>(&_strthunks.pfnGetStringTypeExW), GetStringTypeExWFake, ::GetStringTypeExW);

  00004	a1 00 00 00 00	 mov	 eax, DWORD PTR __imp__GetStringTypeExW@20
  00009	50		 push	 eax
  0000a	68 00 00 00 00	 push	 OFFSET FLAT:?GetStringTypeExWFake@ATL@@YGHKKPB_WHPAG@Z ; ATL::GetStringTypeExWFake
  0000f	68 04 00 00 00	 push	 OFFSET FLAT:?_strthunks@ATL@@3U_AtlStringThunks@1@A+4
  00014	e8 00 00 00 00	 call	 ?_AtlInstallStringThunk@ATL@@YAXPAPAXPAX1@Z ; ATL::_AtlInstallStringThunk
  00019	83 c4 0c	 add	 esp, 12			; 0000000cH

; 242  : 
; 243  : 	return _strthunks.pfnGetStringTypeExW(lcid, dwInfoType, pszSrc, nLength, pwCharType);

  0001c	8b f4		 mov	 esi, esp
  0001e	8b 4d 18	 mov	 ecx, DWORD PTR _pwCharType$[ebp]
  00021	51		 push	 ecx
  00022	8b 55 14	 mov	 edx, DWORD PTR _nLength$[ebp]
  00025	52		 push	 edx
  00026	8b 45 10	 mov	 eax, DWORD PTR _pszSrc$[ebp]
  00029	50		 push	 eax
  0002a	8b 4d 0c	 mov	 ecx, DWORD PTR _dwInfoType$[ebp]
  0002d	51		 push	 ecx
  0002e	8b 55 08	 mov	 edx, DWORD PTR _lcid$[ebp]
  00031	52		 push	 edx
  00032	ff 15 04 00 00
	00		 call	 DWORD PTR ?_strthunks@ATL@@3U_AtlStringThunks@1@A+4
  00038	3b f4		 cmp	 esi, esp
  0003a	e8 00 00 00 00	 call	 __RTC_CheckEsp

; 244  : }

  0003f	5e		 pop	 esi
  00040	3b ec		 cmp	 ebp, esp
  00042	e8 00 00 00 00	 call	 __RTC_CheckEsp
  00047	5d		 pop	 ebp
  00048	c2 14 00	 ret	 20			; 00000014H
?GetStringTypeExWThunk@ATL@@YGHKKPB_WHPAG@Z ENDP	; ATL::GetStringTypeExWThunk
_TEXT	ENDS
EXTRN	__imp__GetStringTypeExA@20:NEAR
;	COMDAT xdata$x
xdata$x	SEGMENT
$T195583 DD	0ffffffffH
	DD	FLAT:$L195575
$T195577 DD	019930520H
	DD	01H
	DD	FLAT:$T195583
	DD	2 DUP(00H)
	DD	2 DUP(00H)
; Function compile flags: /Odt /RTCsu
xdata$x	ENDS
;	COMDAT ?GetStringTypeExWFake@ATL@@YGHKKPB_WHPAG@Z
_TEXT	SEGMENT
$T195574 = -164						; size = 4
_pszA$ = -156						; size = 132
_nLengthA$ = -20					; size = 4
__$ArrayPad$ = -16					; size = 4
__$EHRec$ = -12						; size = 12
__$ReturnAddr$ = 4					; size = 4
_lcid$ = 8						; size = 4
_dwInfoType$ = 12					; size = 4
_pszSrc$ = 16						; size = 4
_nLength$ = 20						; size = 4
_pwCharType$ = 24					; size = 4
?GetStringTypeExWFake@ATL@@YGHKKPB_WHPAG@Z PROC NEAR	; ATL::GetStringTypeExWFake, COMDAT

; 224  : {

  00000	55		 push	 ebp
  00001	8b ec		 mov	 ebp, esp
  00003	6a ff		 push	 -1
  00005	68 00 00 00 00	 push	 __ehhandler$?GetStringTypeExWFake@ATL@@YGHKKPB_WHPAG@Z
  0000a	64 a1 00 00 00
	00		 mov	 eax, DWORD PTR fs:__except_list
  00010	50		 push	 eax
  00011	64 89 25 00 00
	00 00		 mov	 DWORD PTR fs:__except_list, esp
  00018	81 ec 98 00 00
	00		 sub	 esp, 152		; 00000098H
  0001e	56		 push	 esi
  0001f	57		 push	 edi
  00020	8d bd 5c ff ff
	ff		 lea	 edi, DWORD PTR [ebp-164]
  00026	b9 26 00 00 00	 mov	 ecx, 38			; 00000026H
  0002b	b8 cc cc cc cc	 mov	 eax, -858993460		; ccccccccH
  00030	f3 ab		 rep stosd
  00032	a1 00 00 00 00	 mov	 eax, DWORD PTR ___security_cookie
  00037	89 45 f0	 mov	 DWORD PTR __$ArrayPad$[ebp], eax

; 225  : 	int nLengthA;
; 226  : 	CTempBuffer<char> pszA;

  0003a	8d 8d 64 ff ff
	ff		 lea	 ecx, DWORD PTR _pszA$[ebp]
  00040	e8 00 00 00 00	 call	 ??0?$CTempBuffer@D$0IA@VCCRTAllocator@ATL@@@ATL@@QAE@XZ ; ATL::CTempBuffer<char,128,ATL::CCRTAllocator>::CTempBuffer<char,128,ATL::CCRTAllocator>
  00045	c7 45 fc 00 00
	00 00		 mov	 DWORD PTR __$EHRec$[ebp+8], 0

; 227  : 
; 228  : 	nLengthA = ::WideCharToMultiByte(_AtlGetConversionACP(), 0, pszSrc, nLength, NULL, 0, NULL, NULL);

  0004c	8b f4		 mov	 esi, esp
  0004e	6a 00		 push	 0
  00050	6a 00		 push	 0
  00052	6a 00		 push	 0
  00054	6a 00		 push	 0
  00056	8b 45 14	 mov	 eax, DWORD PTR _nLength$[ebp]
  00059	50		 push	 eax
  0005a	8b 4d 10	 mov	 ecx, DWORD PTR _pszSrc$[ebp]
  0005d	51		 push	 ecx
  0005e	6a 00		 push	 0
  00060	e8 00 00 00 00	 call	 ?_AtlGetConversionACP@ATL@@YGIXZ ; ATL::_AtlGetConversionACP
  00065	50		 push	 eax
  00066	ff 15 00 00 00
	00		 call	 DWORD PTR __imp__WideCharToMultiByte@32
  0006c	3b f4		 cmp	 esi, esp
  0006e	e8 00 00 00 00	 call	 __RTC_CheckEsp
  00073	89 45 ec	 mov	 DWORD PTR _nLengthA$[ebp], eax

; 229  : 	pszA.Allocate(nLengthA);

  00076	8b 55 ec	 mov	 edx, DWORD PTR _nLengthA$[ebp]
  00079	52		 push	 edx
  0007a	8d 8d 64 ff ff
	ff		 lea	 ecx, DWORD PTR _pszA$[ebp]
  00080	e8 00 00 00 00	 call	 ?Allocate@?$CTempBuffer@D$0IA@VCCRTAllocator@ATL@@@ATL@@QAEPADI@Z ; ATL::CTempBuffer<char,128,ATL::CCRTAllocator>::Allocate

; 230  : 	::WideCharToMultiByte(_AtlGetConversionACP(), 0, pszSrc, nLength, pszA, nLengthA, NULL, NULL);

  00085	8b f4		 mov	 esi, esp
  00087	6a 00		 push	 0
  00089	6a 00		 push	 0
  0008b	8b 45 ec	 mov	 eax, DWORD PTR _nLengthA$[ebp]
  0008e	50		 push	 eax
  0008f	8d 8d 64 ff ff
	ff		 lea	 ecx, DWORD PTR _pszA$[ebp]
  00095	e8 00 00 00 00	 call	 ??B?$CTempBuffer@D$0IA@VCCRTAllocator@ATL@@@ATL@@QBEPADXZ ; ATL::CTempBuffer<char,128,ATL::CCRTAllocator>::operator char *
  0009a	50		 push	 eax
  0009b	8b 4d 14	 mov	 ecx, DWORD PTR _nLength$[ebp]
  0009e	51		 push	 ecx
  0009f	8b 55 10	 mov	 edx, DWORD PTR _pszSrc$[ebp]
  000a2	52		 push	 edx
  000a3	6a 00		 push	 0
  000a5	e8 00 00 00 00	 call	 ?_AtlGetConversionACP@ATL@@YGIXZ ; ATL::_AtlGetConversionACP
  000aa	50		 push	 eax
  000ab	ff 15 00 00 00
	00		 call	 DWORD PTR __imp__WideCharToMultiByte@32
  000b1	3b f4		 cmp	 esi, esp
  000b3	e8 00 00 00 00	 call	 __RTC_CheckEsp

; 231  : 
; 232  : 	if (nLength == -1)

  000b8	83 7d 14 ff	 cmp	 DWORD PTR _nLength$[ebp], -1
  000bc	75 07		 jne	 SHORT $L26381

; 233  : 		nLengthA = -1;

  000be	c7 45 ec ff ff
	ff ff		 mov	 DWORD PTR _nLengthA$[ebp], -1
$L26381:

; 234  : 
; 235  : 	return ::GetStringTypeExA(lcid, dwInfoType, pszA, nLengthA, pwCharType);

  000c5	8b f4		 mov	 esi, esp
  000c7	8b 45 18	 mov	 eax, DWORD PTR _pwCharType$[ebp]
  000ca	50		 push	 eax
  000cb	8b 4d ec	 mov	 ecx, DWORD PTR _nLengthA$[ebp]
  000ce	51		 push	 ecx
  000cf	8d 8d 64 ff ff
	ff		 lea	 ecx, DWORD PTR _pszA$[ebp]
  000d5	e8 00 00 00 00	 call	 ??B?$CTempBuffer@D$0IA@VCCRTAllocator@ATL@@@ATL@@QBEPADXZ ; ATL::CTempBuffer<char,128,ATL::CCRTAllocator>::operator char *
  000da	50		 push	 eax
  000db	8b 55 0c	 mov	 edx, DWORD PTR _dwInfoType$[ebp]
  000de	52		 push	 edx
  000df	8b 45 08	 mov	 eax, DWORD PTR _lcid$[ebp]
  000e2	50		 push	 eax
  000e3	ff 15 00 00 00
	00		 call	 DWORD PTR __imp__GetStringTypeExA@20
  000e9	3b f4		 cmp	 esi, esp
  000eb	e8 00 00 00 00	 call	 __RTC_CheckEsp
  000f0	89 85 5c ff ff
	ff		 mov	 DWORD PTR $T195574[ebp], eax
  000f6	c7 45 fc ff ff
	ff ff		 mov	 DWORD PTR __$EHRec$[ebp+8], -1
  000fd	8d 8d 64 ff ff
	ff		 lea	 ecx, DWORD PTR _pszA$[ebp]
  00103	e8 00 00 00 00	 call	 ??1?$CTempBuffer@D$0IA@VCCRTAllocator@ATL@@@ATL@@QAE@XZ ; ATL::CTempBuffer<char,128,ATL::CCRTAllocator>::~CTempBuffer<char,128,ATL::CCRTAllocator>
  00108	8b 85 5c ff ff
	ff		 mov	 eax, DWORD PTR $T195574[ebp]

; 236  : }

  0010e	52		 push	 edx
  0010f	8b cd		 mov	 ecx, ebp
  00111	50		 push	 eax
  00112	8d 15 00 00 00
	00		 lea	 edx, DWORD PTR $L195582
  00118	e8 00 00 00 00	 call	 @_RTC_CheckStackVars@8
  0011d	58		 pop	 eax
  0011e	5a		 pop	 edx
  0011f	8b 4d f4	 mov	 ecx, DWORD PTR __$EHRec$[ebp]
  00122	64 89 0d 00 00
	00 00		 mov	 DWORD PTR fs:__except_list, ecx
  00129	8b 4d f0	 mov	 ecx, DWORD PTR __$ArrayPad$[ebp]
  0012c	e8 00 00 00 00	 call	 @__security_check_cookie@4
  00131	5f		 pop	 edi
  00132	5e		 pop	 esi
  00133	81 c4 a4 00 00
	00		 add	 esp, 164		; 000000a4H
  00139	3b ec		 cmp	 ebp, esp
  0013b	e8 00 00 00 00	 call	 __RTC_CheckEsp
