; Listing generated by Microsoft (R) Optimizing Compiler Version 13.10.3077 

	TITLE	.\src\Gui\CommonControl\ListCtrol\GdiEx.cpp
	.386P
include listing.inc
if @Version gt 510
.model FLAT
else
_TEXT	SEGMENT PARA USE32 PUBLIC 'CODE'
_TEXT	ENDS
_DATA	SEGMENT DWORD USE32 PUBLIC 'DATA'
_DATA	ENDS
CONST	SEGMENT DWORD USE32 PUBLIC 'CONST'
CONST	ENDS
_BSS	SEGMENT DWORD USE32 PUBLIC 'BSS'
_BSS	ENDS
$$SYMBOLS	SEGMENT BYTE USE32 'DEBSYM'
$$SYMBOLS	ENDS
_TLS	SEGMENT DWORD USE32 PUBLIC 'TLS'
_TLS	ENDS
;	COMDAT ??_C@_0EN@IBFBLEEG@D?3?2Program?5Files?5?$CIx86?$CJ?2Microsoft@
CONST	SEGMENT DWORD USE32 PUBLIC 'CONST'
CONST	ENDS
rdata$r	SEGMENT DWORD USE32 PUBLIC 'CONST'
rdata$r	ENDS
xdata$x	SEGMENT DWORD USE32 PUBLIC 'CONST'
xdata$x	ENDS
text$AFX_COL1	SEGMENT PARA USE32 PUBLIC ''
text$AFX_COL1	ENDS
text$yc	SEGMENT PARA USE32 PUBLIC 'CODE'
text$yc	ENDS
CRT$XCA	SEGMENT DWORD USE32 PUBLIC 'DATA'
CRT$XCA	ENDS
CRT$XCU	SEGMENT DWORD USE32 PUBLIC 'DATA'
CRT$XCU	ENDS
CRT$XCL	SEGMENT DWORD USE32 PUBLIC 'DATA'
CRT$XCL	ENDS
CRT$XCC	SEGMENT DWORD USE32 PUBLIC 'DATA'
CRT$XCC	ENDS
CRT$XCZ	SEGMENT DWORD USE32 PUBLIC 'DATA'
CRT$XCZ	ENDS
text$yd	SEGMENT PARA USE32 PUBLIC 'CODE'
text$yd	ENDS
ATL$__m	SEGMENT DWORD USE32 PUBLIC ''
ATL$__m	ENDS
ATL$__z	SEGMENT DWORD USE32 PUBLIC ''
ATL$__z	ENDS
ATL$__a	SEGMENT DWORD USE32 PUBLIC ''
ATL$__a	ENDS
;	COMDAT ?ToRGB1@CGdiEx@@QAEMMMM@Z
_TEXT	SEGMENT PARA USE32 PUBLIC 'CODE'
_TEXT	ENDS
;	COMDAT ?RGBtoHSL@CGdiEx@@QAEXKPAN00@Z
_TEXT	SEGMENT PARA USE32 PUBLIC 'CODE'
_TEXT	ENDS
;	COMDAT ?HLStoRGB@CGdiEx@@QAEKABN00@Z
_TEXT	SEGMENT PARA USE32 PUBLIC 'CODE'
_TEXT	ENDS
;	COMDAT ?HuetoRGB@CGdiEx@@QAENNNN@Z
_TEXT	SEGMENT PARA USE32 PUBLIC 'CODE'
_TEXT	ENDS
;	COMDAT _$E5
text$yc	SEGMENT PARA USE32 PUBLIC 'CODE'
text$yc	ENDS
;	COMDAT _$E6
text$yd	SEGMENT PARA USE32 PUBLIC 'CODE'
text$yd	ENDS
;	COMDAT ??B?$CComPtrBase@UITypeInfo2@@@ATL@@QBEPAUITypeInfo2@@XZ
_TEXT	SEGMENT PARA USE32 PUBLIC 'CODE'
_TEXT	ENDS
;	COMDAT ?equal@?$istreambuf_iterator@DU?$char_traits@D@std@@@std@@QBE_NABV12@@Z
_TEXT	SEGMENT PARA USE32 PUBLIC 'CODE'
_TEXT	ENDS
;	COMDAT ?equal@?$istreambuf_iterator@_WU?$char_traits@_W@std@@@std@@QBE_NABV12@@Z
_TEXT	SEGMENT PARA USE32 PUBLIC 'CODE'
_TEXT	ENDS
;	COMDAT ?Unlock@?$CComCritSecLock@VCComCriticalSection@ATL@@@ATL@@QAEXXZ
_TEXT	SEGMENT PARA USE32 PUBLIC 'CODE'
_TEXT	ENDS
;	COMDAT ??$_Maklocstr@D@std@@YAPADPBDPADABU_Cvtvec@@@Z
_TEXT	SEGMENT PARA USE32 PUBLIC 'CODE'
_TEXT	ENDS
;	COMDAT ??_R3?$numpunct@_W@std@@8
rdata$r	SEGMENT DWORD USE32 PUBLIC 'CONST'
rdata$r	ENDS
;	COMDAT ??_R3?$numpunct@D@std@@8
rdata$r	SEGMENT DWORD USE32 PUBLIC 'CONST'
rdata$r	ENDS
;	COMDAT ??_R3CGdiEx@@8
rdata$r	SEGMENT DWORD USE32 PUBLIC 'CONST'
rdata$r	ENDS
;	COMDAT ??_R2?$numpunct@_W@std@@8
rdata$r	SEGMENT DWORD USE32 PUBLIC 'CONST'
rdata$r	ENDS
;	COMDAT ??_R2?$numpunct@D@std@@8
rdata$r	SEGMENT DWORD USE32 PUBLIC 'CONST'
rdata$r	ENDS
;	COMDAT ??_R2CGdiEx@@8
rdata$r	SEGMENT DWORD USE32 PUBLIC 'CONST'
rdata$r	ENDS
;	COMDAT ??_R1A@?0A@A@?$numpunct@_W@std@@8
rdata$r	SEGMENT DWORD USE32 PUBLIC 'CONST'
rdata$r	ENDS
;	COMDAT ??_R1A@?0A@A@facet@locale@std@@8
rdata$r	SEGMENT DWORD USE32 PUBLIC 'CONST'
rdata$r	ENDS
;	COMDAT ??_R0?AVfacet@locale@std@@@8
_DATA	SEGMENT DWORD USE32 PUBLIC 'DATA'
_DATA	ENDS
;	COMDAT ??_R1A@?0A@A@?$numpunct@D@std@@8
rdata$r	SEGMENT DWORD USE32 PUBLIC 'CONST'
rdata$r	ENDS
;	COMDAT ??_R1A@?0A@A@CGdiEx@@8
rdata$r	SEGMENT DWORD USE32 PUBLIC 'CONST'
rdata$r	ENDS
;	COMDAT ??_R0?AV?$numpunct@_W@std@@@8
_DATA	SEGMENT DWORD USE32 PUBLIC 'DATA'
_DATA	ENDS
;	COMDAT ??_R0?AV?$numpunct@D@std@@@8
_DATA	SEGMENT DWORD USE32 PUBLIC 'DATA'
_DATA	ENDS
;	COMDAT ??_R0?AVCGdiEx@@@8
_DATA	SEGMENT DWORD USE32 PUBLIC 'DATA'
_DATA	ENDS
;	COMDAT ??0?$allocator@_W@std@@QAE@XZ
_TEXT	SEGMENT PARA USE32 PUBLIC 'CODE'
_TEXT	ENDS
;	COMDAT ??0?$allocator@D@std@@QAE@ABV01@@Z
_TEXT	SEGMENT PARA USE32 PUBLIC 'CODE'
_TEXT	ENDS
;	COMDAT ??0?$allocator@D@std@@QAE@XZ
_TEXT	SEGMENT PARA USE32 PUBLIC 'CODE'
_TEXT	ENDS
;	COMDAT ?deallocate@?$allocator@D@std@@QAEXPADI@Z
_TEXT	SEGMENT PARA USE32 PUBLIC 'CODE'
_TEXT	ENDS
;	COMDAT ?max_size@?$allocator@D@std@@QBEIXZ
_TEXT	SEGMENT PARA USE32 PUBLIC 'CODE'
_TEXT	ENDS
;	COMDAT ?allocate@?$allocator@D@std@@QAEPADI@Z
_TEXT	SEGMENT PARA USE32 PUBLIC 'CODE'
_TEXT	ENDS
;	COMDAT ??$_Allocate@D@std@@YAPADIPAD@Z
_TEXT	SEGMENT PARA USE32 PUBLIC 'CODE'
_TEXT	ENDS
;	COMDAT ??_G?$numpunct@_W@std@@MAEPAXI@Z
_TEXT	SEGMENT PARA USE32 PUBLIC 'CODE'
_TEXT	ENDS
;	COMDAT ??_R4?$numpunct@_W@std@@6B@
rdata$r	SEGMENT DWORD USE32 PUBLIC 'CONST'
rdata$r	ENDS
;	COMDAT ??_G?$numpunct@D@std@@MAEPAXI@Z
_TEXT	SEGMENT PARA USE32 PUBLIC 'CODE'
_TEXT	ENDS
;	COMDAT ??_R4?$numpunct@D@std@@6B@
rdata$r	SEGMENT DWORD USE32 PUBLIC 'CONST'
rdata$r	ENDS
;	COMDAT ??_R4CGdiEx@@6B@
rdata$r	SEGMENT DWORD USE32 PUBLIC 'CONST'
rdata$r	ENDS
;	COMDAT ??_C@_0EN@CBMLGOH@D?3?2Program?5Files?5?$CIx86?$CJ?2Microsoft@
CONST	SEGMENT DWORD USE32 PUBLIC 'CONST'
CONST	ENDS
;	COMDAT ?_Psave@?$_Facetptr@V?$numpunct@_W@std@@@std@@2PBVfacet@locale@2@B
_DATA	SEGMENT DWORD USE32 PUBLIC 'DATA'
_DATA	ENDS
;	COMDAT ?_Psave@?$_Facetptr@V?$numpunct@D@std@@@std@@2PBVfacet@locale@2@B
_DATA	SEGMENT DWORD USE32 PUBLIC 'DATA'
_DATA	ENDS
;	COMDAT ?Unlock@CComCriticalSection@ATL@@QAEJXZ
_TEXT	SEGMENT PARA USE32 PUBLIC 'CODE'
_TEXT	ENDS
;	COMDAT ??_C@_0FG@LDNDNCJM@D?3?2Program?5Files?5?$CIx86?$CJ?2Microsoft@
CONST	SEGMENT DWORD USE32 PUBLIC 'CONST'
CONST	ENDS
;	COMDAT ??_C@_09HIEJFN@m_bLocked?$AA@
CONST	SEGMENT DWORD USE32 PUBLIC 'CONST'
CONST	ENDS
;	COMDAT ?_Psave@?$_Facetptr@V?$ctype@_W@std@@@std@@2PBVfacet@locale@2@B
_DATA	SEGMENT DWORD USE32 PUBLIC 'DATA'
_DATA	ENDS
;	COMDAT ?_Psave@?$_Facetptr@V?$ctype@D@std@@@std@@2PBVfacet@locale@2@B
_DATA	SEGMENT DWORD USE32 PUBLIC 'DATA'
_DATA	ENDS
;	COMDAT ??$_Maklocchr@_W@std@@YA_WDPA_WABU_Cvtvec@@@Z
_TEXT	SEGMENT PARA USE32 PUBLIC 'CODE'
_TEXT	ENDS
;	COMDAT ??$_DebugHeapDelete@X@std@@YAXPAX@Z
_TEXT	SEGMENT PARA USE32 PUBLIC 'CODE'
_TEXT	ENDS
;	COMDAT ??$_Maklocstr@_W@std@@YAPA_WPBDPA_WABU_Cvtvec@@@Z
_TEXT	SEGMENT PARA USE32 PUBLIC 'CODE'
_TEXT	ENDS
;	COMDAT ??$_Maklocchr@D@std@@YADDPADABU_Cvtvec@@@Z
_TEXT	SEGMENT PARA USE32 PUBLIC 'CODE'
_TEXT	ENDS
;	COMDAT ??_C@_04LOAJBDKD@true?$AA@
CONST	SEGMENT DWORD USE32 PUBLIC 'CONST'
CONST	ENDS
;	COMDAT ??_C@_05LAPONLG@false?$AA@
CONST	SEGMENT DWORD USE32 PUBLIC 'CONST'
CONST	ENDS
;	COMDAT _wmemcpy
_TEXT	SEGMENT PARA USE32 PUBLIC 'CODE'
_TEXT	ENDS
;	COMDAT ?max_size@?$allocator@_W@std@@QBEIXZ
_TEXT	SEGMENT PARA USE32 PUBLIC 'CODE'
_TEXT	ENDS
;	COMDAT ?allocate@?$allocator@_W@std@@QAEPA_WI@Z
_TEXT	SEGMENT PARA USE32 PUBLIC 'CODE'
_TEXT	ENDS
;	COMDAT ??$_Allocate@_W@std@@YAPA_WIPA_W@Z
_TEXT	SEGMENT PARA USE32 PUBLIC 'CODE'
_TEXT	ENDS
;	COMDAT ?IsShared@CStringData@ATL@@QBE_NXZ
_TEXT	SEGMENT PARA USE32 PUBLIC 'CODE'
_TEXT	ENDS
;	COMDAT ?AtlThrow@ATL@@YGXJ@Z
_TEXT	SEGMENT PARA USE32 PUBLIC 'CODE'
_TEXT	ENDS
;	COMDAT ??RCTraceFileAndLineInfo@ATL@@QBAXKIPBDZZ
_TEXT	SEGMENT PARA USE32 PUBLIC 'CODE'
_TEXT	ENDS
;	COMDAT ?TraceV@CTrace@ATL@@QBAXPBDHKI0PAD@Z
_TEXT	SEGMENT PARA USE32 PUBLIC 'CODE'
_TEXT	ENDS
;	COMDAT ??0CTraceFileAndLineInfo@ATL@@QAE@PBDH@Z
_TEXT	SEGMENT PARA USE32 PUBLIC 'CODE'
_TEXT	ENDS
;	COMDAT ??_C@_0FI@NHHJANPC@D?3?2Program?5Files?5?$CIx86?$CJ?2Microsoft@
CONST	SEGMENT DWORD USE32 PUBLIC 'CONST'
CONST	ENDS
;	COMDAT ??_C@_0BF@IAAKIJDJ@AtlThrow?3?5hr?5?$DN?50x?$CFx?6?$AA@
CONST	SEGMENT DWORD USE32 PUBLIC 'CONST'
CONST	ENDS
;	COMDAT ??BCTraceCategory@ATL@@QBEKXZ
_TEXT	SEGMENT PARA USE32 PUBLIC 'CODE'
_TEXT	ENDS
;	COMDAT ?data@CStringData@ATL@@QAEPAXXZ
_TEXT	SEGMENT PARA USE32 PUBLIC 'CODE'
_TEXT	ENDS
;	COMDAT ?Release@CStringData@ATL@@QAEXXZ
_TEXT	SEGMENT PARA USE32 PUBLIC 'CODE'
_TEXT	ENDS
;	COMDAT ??_C@_0L@OIIMFBNE@nRefs?5?$CB?$DN?50?$AA@
CONST	SEGMENT DWORD USE32 PUBLIC 'CONST'
CONST	ENDS
;	COMDAT ??_C@_0FJ@DMHPDOJC@D?3?2Program?5Files?5?$CIx86?$CJ?2Microsoft@
CONST	SEGMENT DWORD USE32 PUBLIC 'CONST'
CONST	ENDS
;	COMDAT ??_C@_0CB@GFHAPKDK@pOldData?9?$DOnAllocLength?5?$DM?5nLength@
CONST	SEGMENT DWORD USE32 PUBLIC 'CONST'
CONST	ENDS
;	COMDAT ??_C@_0BA@GNIEOBOF@nNewLength?5?$DO?$DN?50?$AA@
CONST	SEGMENT DWORD USE32 PUBLIC 'CONST'
CONST	ENDS
;	COMDAT ??_C@_0N@ILOMLJGA@nLength?5?$DO?$DN?50?$AA@
CONST	SEGMENT DWORD USE32 PUBLIC 'CONST'
CONST	ENDS
;	COMDAT ??_C@_0CD@EEFFJEGJ@nLength?5?$DM?$DN?5GetData?$CI?$CJ?9?$DOnAllocLeng@
CONST	SEGMENT DWORD USE32 PUBLIC 'CONST'
CONST	ENDS
;	COMDAT ??_C@_01GFHCPBMG@C?$AA@
CONST	SEGMENT DWORD USE32 PUBLIC 'CONST'
CONST	ENDS
;	COMDAT ?_Peek@?$istreambuf_iterator@_WU?$char_traits@_W@std@@@std@@AAE_WXZ
_TEXT	SEGMENT PARA USE32 PUBLIC 'CODE'
_TEXT	ENDS
;	COMDAT ?_Peek@?$istreambuf_iterator@DU?$char_traits@D@std@@@std@@AAEDXZ
_TEXT	SEGMENT PARA USE32 PUBLIC 'CODE'
_TEXT	ENDS
;	COMDAT ??$use_facet@V?$ctype@_W@std@@@std@@YAABV?$ctype@_W@0@ABVlocale@0@@Z
_TEXT	SEGMENT PARA USE32 PUBLIC 'CODE'
_TEXT	ENDS
;	COMDAT ??_S?$ctype@_W@std@@6B@
CONST	SEGMENT DWORD USE32 PUBLIC 'CONST'
CONST	ENDS
;	COMDAT ??_R4?$ctype@_W@std@@6B@
rdata$r	SEGMENT DWORD USE32 PUBLIC 'CONST'
rdata$r	ENDS
;	COMDAT ??_R0?AV?$ctype@_W@std@@@8
_DATA	SEGMENT DWORD USE32 PUBLIC 'DATA'
_DATA	ENDS
;	COMDAT ??_R3?$ctype@_W@std@@8
rdata$r	SEGMENT DWORD USE32 PUBLIC 'CONST'
rdata$r	ENDS
;	COMDAT ??_R2?$ctype@_W@std@@8
rdata$r	SEGMENT DWORD USE32 PUBLIC 'CONST'
rdata$r	ENDS
;	COMDAT ??_R1A@?0A@A@?$ctype@_W@std@@8
rdata$r	SEGMENT DWORD USE32 PUBLIC 'CONST'
rdata$r	ENDS
;	COMDAT ??_R1A@?0A@A@ctype_base@std@@8
rdata$r	SEGMENT DWORD USE32 PUBLIC 'CONST'
rdata$r	ENDS
;	COMDAT ??_R0?AUctype_base@std@@@8
_DATA	SEGMENT DWORD USE32 PUBLIC 'DATA'
_DATA	ENDS
;	COMDAT ??_G?$ctype@_W@std@@MAEPAXI@Z
_TEXT	SEGMENT PARA USE32 PUBLIC 'CODE'
_TEXT	ENDS
;	COMDAT ??_C@_08EPJLHIJG@bad?5cast?$AA@
CONST	SEGMENT DWORD USE32 PUBLIC 'CONST'
CONST	ENDS
;	COMDAT __TI2?AVbad_cast@@
xdata$x	SEGMENT DWORD USE32 PUBLIC 'CONST'
xdata$x	ENDS
;	COMDAT __CTA2?AVbad_cast@@
xdata$x	SEGMENT DWORD USE32 PUBLIC 'CONST'
xdata$x	ENDS
;	COMDAT __CT??_R0?AVbad_cast@@@8??0bad_cast@@QAE@ABV0@@Z12
xdata$x	SEGMENT DWORD USE32 PUBLIC 'CONST'
xdata$x	ENDS
;	COMDAT ??_R0?AVbad_cast@@@8
_DATA	SEGMENT DWORD USE32 PUBLIC 'DATA'
_DATA	ENDS
;	COMDAT __CT??_R0?AVexception@@@8??0exception@@QAE@ABV0@@Z12
xdata$x	SEGMENT DWORD USE32 PUBLIC 'CONST'
xdata$x	ENDS
;	COMDAT ??_R0?AVexception@@@8
_DATA	SEGMENT DWORD USE32 PUBLIC 'DATA'
_DATA	ENDS
;	COMDAT ??$_DebugHeapDelete@Vfacet@locale@std@@@std@@YAXPAVfacet@locale@0@@Z
_TEXT	SEGMENT PARA USE32 PUBLIC 'CODE'
_TEXT	ENDS
;	COMDAT ??$use_facet@V?$ctype@D@std@@@std@@YAABV?$ctype@D@0@ABVlocale@0@@Z
_TEXT	SEGMENT PARA USE32 PUBLIC 'CODE'
_TEXT	ENDS
;	COMDAT ??_S?$ctype@D@std@@6B@
CONST	SEGMENT DWORD USE32 PUBLIC 'CONST'
CONST	ENDS
;	COMDAT ??_R4?$ctype@D@std@@6B@
rdata$r	SEGMENT DWORD USE32 PUBLIC 'CONST'
rdata$r	ENDS
;	COMDAT ??_R0?AV?$ctype@D@std@@@8
_DATA	SEGMENT DWORD USE32 PUBLIC 'DATA'
_DATA	ENDS
;	COMDAT ??_R3?$ctype@D@std@@8
rdata$r	SEGMENT DWORD USE32 PUBLIC 'CONST'
rdata$r	ENDS
;	COMDAT ??_R2?$ctype@D@std@@8
rdata$r	SEGMENT DWORD USE32 PUBLIC 'CONST'
rdata$r	ENDS
;	COMDAT ??_R1A@?0A@A@?$ctype@D@std@@8
rdata$r	SEGMENT DWORD USE32 PUBLIC 'CONST'
rdata$r	ENDS
;	COMDAT ??_G?$ctype@D@std@@MAEPAXI@Z
_TEXT	SEGMENT PARA USE32 PUBLIC 'CODE'
_TEXT	ENDS
;	COMDAT ??_S?$numpunct@_W@std@@6B@
CONST	SEGMENT DWORD USE32 PUBLIC 'CONST'
CONST	ENDS
;	COMDAT ??_S?$numpunct@D@std@@6B@
CONST	SEGMENT DWORD USE32 PUBLIC 'CONST'
CONST	ENDS
;	COMDAT _wmemmove
_TEXT	SEGMENT PARA USE32 PUBLIC 'CODE'
_TEXT	ENDS
;	COMDAT ?deallocate@?$allocator@_W@std@@QAEXPA_WI@Z
_TEXT	SEGMENT PARA USE32 PUBLIC 'CODE'
_TEXT	ENDS
;	COMDAT ??0?$allocator@_W@std@@QAE@ABV01@@Z
_TEXT	SEGMENT PARA USE32 PUBLIC 'CODE'
_TEXT	ENDS
;	COMDAT ??_C@_0BA@GOIMFHNK@pStringMgr?5?$CB?$DN?50?$AA@
CONST	SEGMENT DWORD USE32 PUBLIC 'CONST'
CONST	ENDS
;	COMDAT ?GetDefaultManager@?$StrTraitMFC_DLL@DV?$ChTraitsCRT@D@ATL@@@@SAPAUIAtlStringMgr@ATL@@XZ
_TEXT	SEGMENT PARA USE32 PUBLIC 'CODE'
_TEXT	ENDS
;	COMDAT ?FindStringResourceInstance@?$StrTraitMFC_DLL@DV?$ChTraitsCRT@D@ATL@@@@SAPAUHINSTANCE__@@I@Z
_TEXT	SEGMENT PARA USE32 PUBLIC 'CODE'
_TEXT	ENDS
;	COMDAT ?AtlGetStringResourceImage@ATL@@YAPBUATLSTRINGRESOURCEIMAGE@1@PAUHINSTANCE__@@I@Z
_TEXT	SEGMENT PARA USE32 PUBLIC 'CODE'
_TEXT	ENDS
;	COMDAT ?_AtlGetStringResourceImage@ATL@@YAPBUATLSTRINGRESOURCEIMAGE@1@PAUHINSTANCE__@@PAUHRSRC__@@I@Z
_TEXT	SEGMENT PARA USE32 PUBLIC 'CODE'
_TEXT	ENDS
;	COMDAT ?GetBaseTypeLength@?$ChTraitsCRT@D@ATL@@SAHPB_WH@Z
_TEXT	SEGMENT PARA USE32 PUBLIC 'CODE'
_TEXT	ENDS
;	COMDAT ?_AtlGetConversionACP@ATL@@YGIXZ
_TEXT	SEGMENT PARA USE32 PUBLIC 'CODE'
_TEXT	ENDS
;	COMDAT ?g_pfnGetThreadACP@ATL@@3P6GIXZA
_DATA	SEGMENT DWORD USE32 PUBLIC 'DATA'
_DATA	ENDS
;	COMDAT ?_AtlGetThreadACPThunk@ATL@@YGIXZ
_TEXT	SEGMENT PARA USE32 PUBLIC 'CODE'
_TEXT	ENDS
;	COMDAT ?_AtlGetThreadACPReal@ATL@@YGIXZ
_TEXT	SEGMENT PARA USE32 PUBLIC 'CODE'
_TEXT	ENDS
;	COMDAT ?_AtlGetThreadACPFake@ATL@@YGIXZ
_TEXT	SEGMENT PARA USE32 PUBLIC 'CODE'
_TEXT	ENDS
;	COMDAT ?InterlockedExchangePointer@@YGPAXPAPAXPAX@Z
_TEXT	SEGMENT PARA USE32 PUBLIC 'CODE'
_TEXT	ENDS
;	COMDAT ?ConvertToBaseType@?$ChTraitsCRT@D@ATL@@SAXPADHPB_WH@Z
_TEXT	SEGMENT PARA USE32 PUBLIC 'CODE'
_TEXT	ENDS
;	COMDAT ??_C@_0FH@KDPNIMBO@D?3?2Program?5Files?5?$CIx86?$CJ?2Microsoft@
CONST	SEGMENT DWORD USE32 PUBLIC 'CONST'
CONST	ENDS
;	COMDAT ??_C@_0CJ@FJEKGMMD@Warning?3?5implicit?5LoadString?$CI?$CFu?$CJ@
CONST	SEGMENT DWORD USE32 PUBLIC 'CONST'
CONST	ENDS
;	COMDAT ?IsLocked@CStringData@ATL@@QBE_NXZ
_TEXT	SEGMENT PARA USE32 PUBLIC 'CODE'
_TEXT	ENDS
;	COMDAT ??_7CGdiEx@@6B@
CONST	SEGMENT DWORD USE32 PUBLIC 'CONST'
CONST	ENDS
sxdata	SEGMENT DWORD USE32 'SXDATA'
sxdata	ENDS
FLAT	GROUP _DATA, CONST, _BSS
	ASSUME	CS: FLAT, DS: FLAT, SS: FLAT
endif

INCLUDELIB MSVCRTD
INCLUDELIB OLDNAMES

PUBLIC	?g_pfnGetThreadACP@ATL@@3P6GIXZA		; ATL::g_pfnGetThreadACP
PUBLIC	?_AtlGetThreadACPThunk@ATL@@YGIXZ		; ATL::_AtlGetThreadACPThunk
_DATA	SEGMENT
_THIS_FILE DB	'.\src\Gui\CommonControl\ListCtrol\GdiEx.cpp', 00H
_DATA	ENDS
CONST	SEGMENT
$SG187714 DB	0c1H, 0a5H, 0caH, 0e9H, 00H
	ORG $+3
$SG187806 DB	'\skin\', 00H
	ORG $+1
$SG187829 DB	'\skin\', 00H
CONST	ENDS
;	COMDAT ?g_pfnGetThreadACP@ATL@@3P6GIXZA
_DATA	SEGMENT
?g_pfnGetThreadACP@ATL@@3P6GIXZA DD FLAT:?_AtlGetThreadACPThunk@ATL@@YGIXZ ; ATL::g_pfnGetThreadACP
_DATA	ENDS
PUBLIC	??0CGdiEx@@QAE@XZ				; CGdiEx::CGdiEx
PUBLIC	?FrameRect@CGdiEx@@UAEXPAUHDC__@@AAUtagRECT@@PAVCBrush@@@Z ; CGdiEx::FrameRect
PUBLIC	?FillRectangle@CGdiEx@@UAEXPAUHDC__@@AAUtagRECT@@K@Z ; CGdiEx::FillRectangle
PUBLIC	?FillRectangle@CGdiEx@@UAEXPAUHDC__@@UtagRECT@@KH@Z ; CGdiEx::FillRectangle
PUBLIC	?FillRectangle@CGdiEx@@UAEXPAUHDC__@@UtagRECT@@KKW4ENUM_DrawOrientation@@HI@Z ; CGdiEx::FillRectangle
PUBLIC	?FillRectangleHue@CGdiEx@@UAEXPAUHDC__@@UtagRECT@@KKW4ENUM_DrawOrientation@@HI@Z ; CGdiEx::FillRectangleHue
PUBLIC	?FillRectangleLight@CGdiEx@@UAEXPAUHDC__@@UtagRECT@@KKIW4ENUM_DrawOrientation@@HI@Z ; CGdiEx::FillRectangleLight
PUBLIC	?FillRectangle@CGdiEx@@UAEXPAUHDC__@@UtagRECT@@KHHH@Z ; CGdiEx::FillRectangle
PUBLIC	?DrawLine@CGdiEx@@UAEXPAUHDC__@@KMHHHHH@Z	; CGdiEx::DrawLine
PUBLIC	?DrawArrow@CGdiEx@@UAEXPAUHDC__@@KHHHHHHH@Z	; CGdiEx::DrawArrow
PUBLIC	?DrawPointFrameXOR@CGdiEx@@UAEXPAUHDC__@@AAUtagRECT@@@Z ; CGdiEx::DrawPointFrameXOR
PUBLIC	?SetDrawTextFont@CGdiEx@@UAEXPAVCDC@@AAVCFont@@_N@Z ; CGdiEx::SetDrawTextFont
PUBLIC	?SetDrawTextFont@CGdiEx@@UAEPAVCFont@@PAVCDC@@PAV2@@Z ; CGdiEx::SetDrawTextFont
PUBLIC	?DrawTextA@CGdiEx@@UAEXPAVCDC@@V?$CStringT@DV?$StrTraitMFC_DLL@DV?$ChTraitsCRT@D@ATL@@@@@ATL@@KAAUtagRECT@@@Z ; CGdiEx::DrawTextA
PUBLIC	?DrawTextQuick@CGdiEx@@UAEXPAVCDC@@AAV?$CStringT@DV?$StrTraitMFC_DLL@DV?$ChTraitsCRT@D@ATL@@@@@ATL@@KAAUtagRECT@@AAVCFont@@HHH@Z ; CGdiEx::DrawTextQuick
PUBLIC	?DrawTextQuick@CGdiEx@@UAEXPAVCDC@@AAV?$CStringT@DV?$StrTraitMFC_DLL@DV?$ChTraitsCRT@D@ATL@@@@@ATL@@KAAUtagRECT@@AAVCFont@@H@Z ; CGdiEx::DrawTextQuick
PUBLIC	?DrawTextQuick@CGdiEx@@UAEXPAVCDC@@AAV?$CStringT@DV?$StrTraitMFC_DLL@DV?$ChTraitsCRT@D@ATL@@@@@ATL@@KAAUtagRECT@@H@Z ; CGdiEx::DrawTextQuick
PUBLIC	?DrawTextA@CGdiEx@@UAEXPAVCDC@@V?$CStringT@DV?$StrTraitMFC_DLL@DV?$ChTraitsCRT@D@ATL@@@@@ATL@@KAAUtagRECT@@I_NIIIV?$basic_string@DU?$char_traits@D@std@@V?$allocator@D@2@@std@@@Z ; CGdiEx::DrawTextA
PUBLIC	?DrawBitmap@CGdiEx@@UAEXPAVCDC@@AAVCBitmap@@AAVCRect@@I@Z ; CGdiEx::DrawBitmap
PUBLIC	?DrawBitmap@CGdiEx@@UAEXPAVCDC@@AAVCBitmap@@AAVCRect@@@Z ; CGdiEx::DrawBitmap
PUBLIC	?DrawStretchBitmap@CGdiEx@@UAEXPAVCDC@@AAVCBitmap@@AAVCRect@@@Z ; CGdiEx::DrawStretchBitmap
PUBLIC	?DrawStretchBitmap@CGdiEx@@UAEXPAVCDC@@AAVCBitmap@@AAVCRect@@2@Z ; CGdiEx::DrawStretchBitmap
PUBLIC	?DrawStretchBitmap2@CGdiEx@@UAEXPAVCDC@@AAVCBitmap@@AAVCRect@@2@Z ; CGdiEx::DrawStretchBitmap2
PUBLIC	?AttachBmpFromFile@CGdiEx@@UAEHPAVCBitmap@@V?$CStringT@DV?$StrTraitMFC_DLL@DV?$ChTraitsCRT@D@ATL@@@@@ATL@@II@Z ; CGdiEx::AttachBmpFromFile
PUBLIC	?GetImageListFromFile@CGdiEx@@UAEHPAVCImageList@@V?$CStringT@DV?$StrTraitMFC_DLL@DV?$ChTraitsCRT@D@ATL@@@@@ATL@@III@Z ; CGdiEx::GetImageListFromFile
PUBLIC	??_7CGdiEx@@6B@					; CGdiEx::`vftable'
PUBLIC	??_R4CGdiEx@@6B@				; CGdiEx::`RTTI Complete Object Locator'
PUBLIC	??_R0?AVCGdiEx@@@8				; CGdiEx `RTTI Type Descriptor'
PUBLIC	??_R3CGdiEx@@8					; CGdiEx::`RTTI Class Hierarchy Descriptor'
PUBLIC	??_R2CGdiEx@@8					; CGdiEx::`RTTI Base Class Array'
PUBLIC	??_R1A@?0A@A@CGdiEx@@8				; CGdiEx::`RTTI Base Class Descriptor at (0,-1,0,0)'
EXTRN	__RTC_InitBase:NEAR
EXTRN	??_7type_info@@6B@:QWORD			; type_info::`vftable'
EXTRN	__RTC_Shutdown:NEAR
;	COMDAT rtc$IMZ
; File d:\boxgit\playbox\playbox\dev\prj\playbox\src\gui\commoncontrol\listctrol\gdiex.cpp
rtc$IMZ	SEGMENT
__RTC_InitBase.rtc$IMZ DD FLAT:__RTC_InitBase
rtc$IMZ	ENDS
;	COMDAT rtc$TMZ
rtc$TMZ	SEGMENT
__RTC_Shutdown.rtc$TMZ DD FLAT:__RTC_Shutdown
rtc$TMZ	ENDS
;	COMDAT ??_7CGdiEx@@6B@
CONST	SEGMENT
??_7CGdiEx@@6B@ DD FLAT:??_R4CGdiEx@@6B@		; CGdiEx::`vftable'
	DD	FLAT:?FrameRect@CGdiEx@@UAEXPAUHDC__@@AAUtagRECT@@PAVCBrush@@@Z
	DD	FLAT:?FillRectangle@CGdiEx@@UAEXPAUHDC__@@UtagRECT@@KHHH@Z
	DD	FLAT:?FillRectangle@CGdiEx@@UAEXPAUHDC__@@UtagRECT@@KKW4ENUM_DrawOrientation@@HI@Z
	DD	FLAT:?FillRectangle@CGdiEx@@UAEXPAUHDC__@@UtagRECT@@KH@Z
	DD	FLAT:?FillRectangle@CGdiEx@@UAEXPAUHDC__@@AAUtagRECT@@K@Z
	DD	FLAT:?FillRectangleHue@CGdiEx@@UAEXPAUHDC__@@UtagRECT@@KKW4ENUM_DrawOrientation@@HI@Z
	DD	FLAT:?FillRectangleLight@CGdiEx@@UAEXPAUHDC__@@UtagRECT@@KKIW4ENUM_DrawOrientation@@HI@Z
	DD	FLAT:?DrawLine@CGdiEx@@UAEXPAUHDC__@@KMHHHHH@Z
	DD	FLAT:?DrawArrow@CGdiEx@@UAEXPAUHDC__@@KHHHHHHH@Z
	DD	FLAT:?DrawPointFrameXOR@CGdiEx@@UAEXPAUHDC__@@AAUtagRECT@@@Z
	DD	FLAT:?SetDrawTextFont@CGdiEx@@UAEPAVCFont@@PAVCDC@@PAV2@@Z
	DD	FLAT:?SetDrawTextFont@CGdiEx@@UAEXPAVCDC@@AAVCFont@@_N@Z
	DD	FLAT:?DrawTextA@CGdiEx@@UAEXPAVCDC@@V?$CStringT@DV?$StrTraitMFC_DLL@DV?$ChTraitsCRT@D@ATL@@@@@ATL@@KAAUtagRECT@@I_NIIIV?$basic_string@DU?$char_traits@D@std@@V?$allocator@D@2@@std@@@Z
	DD	FLAT:?DrawTextA@CGdiEx@@UAEXPAVCDC@@V?$CStringT@DV?$StrTraitMFC_DLL@DV?$ChTraitsCRT@D@ATL@@@@@ATL@@KAAUtagRECT@@@Z
	DD	FLAT:?DrawTextQuick@CGdiEx@@UAEXPAVCDC@@AAV?$CStringT@DV?$StrTraitMFC_DLL@DV?$ChTraitsCRT@D@ATL@@@@@ATL@@KAAUtagRECT@@H@Z
	DD	FLAT:?DrawTextQuick@CGdiEx@@UAEXPAVCDC@@AAV?$CStringT@DV?$StrTraitMFC_DLL@DV?$ChTraitsCRT@D@ATL@@@@@ATL@@KAAUtagRECT@@AAVCFont@@H@Z
	DD	FLAT:?DrawTextQuick@CGdiEx@@UAEXPAVCDC@@AAV?$CStringT@DV?$StrTraitMFC_DLL@DV?$ChTraitsCRT@D@ATL@@@@@ATL@@KAAUtagRECT@@AAVCFont@@HHH@Z
	DD	FLAT:?DrawBitmap@CGdiEx@@UAEXPAVCDC@@AAVCBitmap@@AAVCRect@@@Z
	DD	FLAT:?DrawBitmap@CGdiEx@@UAEXPAVCDC@@AAVCBitmap@@AAVCRect@@I@Z
	DD	FLAT:?DrawStretchBitmap@CGdiEx@@UAEXPAVCDC@@AAVCBitmap@@AAVCRect@@2@Z
	DD	FLAT:?DrawStretchBitmap@CGdiEx@@UAEXPAVCDC@@AAVCBitmap@@AAVCRect@@@Z
	DD	FLAT:?DrawStretchBitmap2@CGdiEx@@UAEXPAVCDC@@AAVCBitmap@@AAVCRect@@2@Z
	DD	FLAT:?AttachBmpFromFile@CGdiEx@@UAEHPAVCBitmap@@V?$CStringT@DV?$StrTraitMFC_DLL@DV?$ChTraitsCRT@D@ATL@@@@@ATL@@II@Z
	DD	FLAT:?GetImageListFromFile@CGdiEx@@UAEHPAVCImageList@@V?$CStringT@DV?$StrTraitMFC_DLL@DV?$ChTraitsCRT@D@ATL@@@@@ATL@@III@Z
CONST	ENDS
;	COMDAT ??_R4CGdiEx@@6B@
rdata$r	SEGMENT
??_R4CGdiEx@@6B@ DD 00H					; CGdiEx::`RTTI Complete Object Locator'
	DD	00H
	DD	00H
	DD	FLAT:??_R0?AVCGdiEx@@@8
	DD	FLAT:??_R3CGdiEx@@8
rdata$r	ENDS
;	COMDAT ??_R0?AVCGdiEx@@@8
_DATA	SEGMENT
??_R0?AVCGdiEx@@@8 DD FLAT:??_7type_info@@6B@		; CGdiEx `RTTI Type Descriptor'
	DD	00H
	DB	'.?AVCGdiEx@@', 00H
_DATA	ENDS
;	COMDAT ??_R3CGdiEx@@8
rdata$r	SEGMENT
??_R3CGdiEx@@8 DD 00H					; CGdiEx::`RTTI Class Hierarchy Descriptor'
	DD	00H
	DD	01H
	DD	FLAT:??_R2CGdiEx@@8
rdata$r	ENDS
;	COMDAT ??_R2CGdiEx@@8
rdata$r	SEGMENT
??_R2CGdiEx@@8 DD FLAT:??_R1A@?0A@A@CGdiEx@@8		; CGdiEx::`RTTI Base Class Array'
rdata$r	ENDS
;	COMDAT ??_R1A@?0A@A@CGdiEx@@8
rdata$r	SEGMENT
??_R1A@?0A@A@CGdiEx@@8 DD FLAT:??_R0?AVCGdiEx@@@8	; CGdiEx::`RTTI Base Class Descriptor at (0,-1,0,0)'
	DD	00H
	DD	00H
	DD	0ffffffffH
	DD	00H
	DD	00H
; Function compile flags: /Odt /RTCsu
rdata$r	ENDS
_TEXT	SEGMENT
_this$ = -4						; size = 4
??0CGdiEx@@QAE@XZ PROC NEAR				; CGdiEx::CGdiEx
; _this$ = ecx

; 15   : {

  00000	55		 push	 ebp
  00001	8b ec		 mov	 ebp, esp
  00003	51		 push	 ecx
  00004	c7 45 fc cc cc
	cc cc		 mov	 DWORD PTR [ebp-4], -858993460 ; ccccccccH
  0000b	89 4d fc	 mov	 DWORD PTR _this$[ebp], ecx
  0000e	8b 45 fc	 mov	 eax, DWORD PTR _this$[ebp]
  00011	c7 00 00 00 00
	00		 mov	 DWORD PTR [eax], OFFSET FLAT:??_7CGdiEx@@6B@

; 16   : }

  00017	8b 45 fc	 mov	 eax, DWORD PTR _this$[ebp]
  0001a	8b e5		 mov	 esp, ebp
  0001c	5d		 pop	 ebp
  0001d	c3		 ret	 0
??0CGdiEx@@QAE@XZ ENDP					; CGdiEx::CGdiEx
_TEXT	ENDS
PUBLIC	??1CGdiEx@@QAE@XZ				; CGdiEx::~CGdiEx
; Function compile flags: /Odt /RTCsu
_TEXT	SEGMENT
_this$ = -4						; size = 4
??1CGdiEx@@QAE@XZ PROC NEAR				; CGdiEx::~CGdiEx
; _this$ = ecx

; 19   : {

  00020	55		 push	 ebp
  00021	8b ec		 mov	 ebp, esp
  00023	51		 push	 ecx
  00024	c7 45 fc cc cc
	cc cc		 mov	 DWORD PTR [ebp-4], -858993460 ; ccccccccH
  0002b	89 4d fc	 mov	 DWORD PTR _this$[ebp], ecx
  0002e	8b 45 fc	 mov	 eax, DWORD PTR _this$[ebp]
  00031	c7 00 00 00 00
	00		 mov	 DWORD PTR [eax], OFFSET FLAT:??_7CGdiEx@@6B@

; 20   : }

  00037	8b e5		 mov	 esp, ebp
  00039	5d		 pop	 ebp
  0003a	c3		 ret	 0
??1CGdiEx@@QAE@XZ ENDP					; CGdiEx::~CGdiEx
_TEXT	ENDS
PUBLIC	?ToRGB1@CGdiEx@@QAEMMMM@Z			; CGdiEx::ToRGB1
PUBLIC	?SetRGB@CGdiEx@@QAEXAAKMMM@Z			; CGdiEx::SetRGB
PUBLIC	__real@00000000
PUBLIC	__real@437f0000
PUBLIC	__real@3f000000
PUBLIC	__real@40000000
PUBLIC	__real@42f00000
EXTRN	__ftol2:NEAR
EXTRN	__RTC_CheckEsp:NEAR
EXTRN	__fltused:NEAR
;	COMDAT __real@00000000
CONST	SEGMENT
__real@00000000 DD 000000000r			; 0
CONST	ENDS
;	COMDAT __real@437f0000
CONST	SEGMENT
__real@437f0000 DD 0437f0000r			; 255
CONST	ENDS
;	COMDAT __real@3f000000
CONST	SEGMENT
__real@3f000000 DD 03f000000r			; 0.5
CONST	ENDS
;	COMDAT __real@40000000
CONST	SEGMENT
__real@40000000 DD 040000000r			; 2
CONST	ENDS
;	COMDAT __real@42f00000
CONST	SEGMENT
__real@42f00000 DD 042f00000r			; 120
; Function compile flags: /Odt /RTCsu
CONST	ENDS
_TEXT	SEGMENT
tv150 = -36						; size = 4
tv147 = -32						; size = 4
tv145 = -28						; size = 4
_lfValue2$187052 = -24					; size = 4
_lfValue1$187051 = -20					; size = 4
_lfBlue$ = -16						; size = 4
_lfGreen$ = -12						; size = 4
_lfRed$ = -8						; size = 4
_this$ = -4						; size = 4
_aSourceColor$ = 8					; size = 4
_afHue$ = 12						; size = 4
_afBrightness$ = 16					; size = 4
_afSaturation$ = 20					; size = 4
?SetRGB@CGdiEx@@QAEXAAKMMM@Z PROC NEAR			; CGdiEx::SetRGB
; _this$ = ecx

; 38   : {

  00040	55		 push	 ebp
  00041	8b ec		 mov	 ebp, esp
  00043	83 ec 24	 sub	 esp, 36			; 00000024H
  00046	56		 push	 esi
  00047	b8 cc cc cc cc	 mov	 eax, -858993460		; ccccccccH
  0004c	89 45 dc	 mov	 DWORD PTR [ebp-36], eax
  0004f	89 45 e0	 mov	 DWORD PTR [ebp-32], eax
  00052	89 45 e4	 mov	 DWORD PTR [ebp-28], eax
  00055	89 45 e8	 mov	 DWORD PTR [ebp-24], eax
  00058	89 45 ec	 mov	 DWORD PTR [ebp-20], eax
  0005b	89 45 f0	 mov	 DWORD PTR [ebp-16], eax
  0005e	89 45 f4	 mov	 DWORD PTR [ebp-12], eax
  00061	89 45 f8	 mov	 DWORD PTR [ebp-8], eax
  00064	89 45 fc	 mov	 DWORD PTR [ebp-4], eax
  00067	89 4d fc	 mov	 DWORD PTR _this$[ebp], ecx

; 39   : 	FLOAT lfRed = GetRValue(aSourceColor);

  0006a	8b 45 08	 mov	 eax, DWORD PTR _aSourceColor$[ebp]
  0006d	0f b6 08	 movzx	 ecx, BYTE PTR [eax]
  00070	89 4d e4	 mov	 DWORD PTR tv145[ebp], ecx
  00073	db 45 e4	 fild	 DWORD PTR tv145[ebp]
  00076	d9 5d f8	 fstp	 DWORD PTR _lfRed$[ebp]

; 40   : 	FLOAT lfGreen = GetGValue(aSourceColor);

  00079	8b 55 08	 mov	 edx, DWORD PTR _aSourceColor$[ebp]
  0007c	0f b7 02	 movzx	 eax, WORD PTR [edx]
  0007f	c1 f8 08	 sar	 eax, 8
  00082	0f b6 c8	 movzx	 ecx, al
  00085	89 4d e0	 mov	 DWORD PTR tv147[ebp], ecx
  00088	db 45 e0	 fild	 DWORD PTR tv147[ebp]
  0008b	d9 5d f4	 fstp	 DWORD PTR _lfGreen$[ebp]

; 41   : 	FLOAT lfBlue = GetBValue(aSourceColor);

  0008e	8b 55 08	 mov	 edx, DWORD PTR _aSourceColor$[ebp]
  00091	8b 02		 mov	 eax, DWORD PTR [edx]
  00093	c1 e8 10	 shr	 eax, 16			; 00000010H
  00096	0f b6 c8	 movzx	 ecx, al
  00099	89 4d dc	 mov	 DWORD PTR tv150[ebp], ecx
  0009c	db 45 dc	 fild	 DWORD PTR tv150[ebp]
  0009f	d9 5d f0	 fstp	 DWORD PTR _lfBlue$[ebp]

; 42   : 
; 43   : 	if (afSaturation == 0.0f)

  000a2	d9 05 00 00 00
	00		 fld	 DWORD PTR __real@00000000
  000a8	d9 45 14	 fld	 DWORD PTR _afSaturation$[ebp]
  000ab	da e9		 fucompp
  000ad	df e0		 fnstsw	 ax
  000af	f6 c4 44	 test	 ah, 68			; 00000044H
  000b2	7a 1d		 jp	 SHORT $L187049

; 44   : 	{
; 45   : 		lfRed = lfGreen = lfBlue = afBrightness * 255.0f;

  000b4	d9 45 10	 fld	 DWORD PTR _afBrightness$[ebp]
  000b7	d8 0d 00 00 00
	00		 fmul	 DWORD PTR __real@437f0000
  000bd	d9 5d f0	 fstp	 DWORD PTR _lfBlue$[ebp]
  000c0	8b 55 f0	 mov	 edx, DWORD PTR _lfBlue$[ebp]
  000c3	89 55 f4	 mov	 DWORD PTR _lfGreen$[ebp], edx
  000c6	8b 45 f4	 mov	 eax, DWORD PTR _lfGreen$[ebp]
  000c9	89 45 f8	 mov	 DWORD PTR _lfRed$[ebp], eax

; 46   : 	}
; 47   : 	else

  000cc	e9 95 00 00 00	 jmp	 $L187050
$L187049:

; 48   : 	{
; 49   : 		FLOAT lfValue1, lfValue2;
; 50   : 
; 51   : 		if (afBrightness <= 0.5f)

  000d1	d9 45 10	 fld	 DWORD PTR _afBrightness$[ebp]
  000d4	d8 1d 00 00 00
	00		 fcomp	 DWORD PTR __real@3f000000
  000da	df e0		 fnstsw	 ax
  000dc	f6 c4 41	 test	 ah, 65			; 00000041H
  000df	7a 0e		 jp	 SHORT $L187053

; 52   : 			lfValue2 = afBrightness + afBrightness * afSaturation;

  000e1	d9 45 10	 fld	 DWORD PTR _afBrightness$[ebp]
  000e4	d8 4d 14	 fmul	 DWORD PTR _afSaturation$[ebp]
  000e7	d8 45 10	 fadd	 DWORD PTR _afBrightness$[ebp]
  000ea	d9 5d e8	 fstp	 DWORD PTR _lfValue2$187052[ebp]

; 53   : 		else

  000ed	eb 11		 jmp	 SHORT $L187054
$L187053:

; 54   : 			lfValue2 = afBrightness + afSaturation - afBrightness * afSaturation;

  000ef	d9 45 10	 fld	 DWORD PTR _afBrightness$[ebp]
  000f2	d8 45 14	 fadd	 DWORD PTR _afSaturation$[ebp]
  000f5	d9 45 10	 fld	 DWORD PTR _afBrightness$[ebp]
  000f8	d8 4d 14	 fmul	 DWORD PTR _afSaturation$[ebp]
  000fb	de e9		 fsubp	 ST(1), ST(0)
  000fd	d9 5d e8	 fstp	 DWORD PTR _lfValue2$187052[ebp]
$L187054:

; 55   : 
; 56   : 		lfValue1 = 2.0f * afBrightness - lfValue2;

  00100	d9 05 00 00 00
	00		 fld	 DWORD PTR __real@40000000
  00106	d8 4d 10	 fmul	 DWORD PTR _afBrightness$[ebp]
  00109	d8 65 e8	 fsub	 DWORD PTR _lfValue2$187052[ebp]
  0010c	d9 5d ec	 fstp	 DWORD PTR _lfValue1$187051[ebp]

; 57   : 		lfRed = ToRGB1(lfValue1, lfValue2, afHue + 120.0f);

  0010f	d9 45 0c	 fld	 DWORD PTR _afHue$[ebp]
  00112	d8 05 00 00 00
	00		 fadd	 DWORD PTR __real@42f00000
  00118	51		 push	 ecx
  00119	d9 1c 24	 fstp	 DWORD PTR [esp]
  0011c	8b 4d e8	 mov	 ecx, DWORD PTR _lfValue2$187052[ebp]
  0011f	51		 push	 ecx
  00120	8b 55 ec	 mov	 edx, DWORD PTR _lfValue1$187051[ebp]
  00123	52		 push	 edx
  00124	8b 4d fc	 mov	 ecx, DWORD PTR _this$[ebp]
  00127	e8 00 00 00 00	 call	 ?ToRGB1@CGdiEx@@QAEMMMM@Z ; CGdiEx::ToRGB1
  0012c	d9 5d f8	 fstp	 DWORD PTR _lfRed$[ebp]

; 58   : 		lfGreen = ToRGB1(lfValue1, lfValue2, afHue);

  0012f	8b 45 0c	 mov	 eax, DWORD PTR _afHue$[ebp]
  00132	50		 push	 eax
  00133	8b 4d e8	 mov	 ecx, DWORD PTR _lfValue2$187052[ebp]
  00136	51		 push	 ecx
  00137	8b 55 ec	 mov	 edx, DWORD PTR _lfValue1$187051[ebp]
  0013a	52		 push	 edx
  0013b	8b 4d fc	 mov	 ecx, DWORD PTR _this$[ebp]
  0013e	e8 00 00 00 00	 call	 ?ToRGB1@CGdiEx@@QAEMMMM@Z ; CGdiEx::ToRGB1
  00143	d9 5d f4	 fstp	 DWORD PTR _lfGreen$[ebp]

; 59   : 		lfBlue = ToRGB1(lfValue1, lfValue2, afHue - 120.0f);

  00146	d9 45 0c	 fld	 DWORD PTR _afHue$[ebp]
  00149	d8 25 00 00 00
	00		 fsub	 DWORD PTR __real@42f00000
  0014f	51		 push	 ecx
  00150	d9 1c 24	 fstp	 DWORD PTR [esp]
  00153	8b 45 e8	 mov	 eax, DWORD PTR _lfValue2$187052[ebp]
  00156	50		 push	 eax
  00157	8b 4d ec	 mov	 ecx, DWORD PTR _lfValue1$187051[ebp]
  0015a	51		 push	 ecx
  0015b	8b 4d fc	 mov	 ecx, DWORD PTR _this$[ebp]
  0015e	e8 00 00 00 00	 call	 ?ToRGB1@CGdiEx@@QAEMMMM@Z ; CGdiEx::ToRGB1
  00163	d9 5d f0	 fstp	 DWORD PTR _lfBlue$[ebp]
$L187050:

; 60   : 	}
; 61   : 
; 62   : 	aSourceColor = RGB(lfRed, lfGreen, lfBlue);

  00166	d9 45 f8	 fld	 DWORD PTR _lfRed$[ebp]
  00169	e8 00 00 00 00	 call	 __ftol2
  0016e	0f b6 f0	 movzx	 esi, al
  00171	d9 45 f4	 fld	 DWORD PTR _lfGreen$[ebp]
  00174	e8 00 00 00 00	 call	 __ftol2
  00179	0f b6 d0	 movzx	 edx, al
  0017c	c1 e2 08	 shl	 edx, 8
  0017f	0b f2		 or	 esi, edx
  00181	d9 45 f0	 fld	 DWORD PTR _lfBlue$[ebp]
  00184	e8 00 00 00 00	 call	 __ftol2
  00189	0f b6 c0	 movzx	 eax, al
  0018c	c1 e0 10	 shl	 eax, 16			; 00000010H
  0018f	0b f0		 or	 esi, eax
  00191	8b 4d 08	 mov	 ecx, DWORD PTR _aSourceColor$[ebp]
  00194	89 31		 mov	 DWORD PTR [ecx], esi

; 63   : }

  00196	5e		 pop	 esi
  00197	83 c4 24	 add	 esp, 36			; 00000024H
  0019a	3b ec		 cmp	 ebp, esp
  0019c	e8 00 00 00 00	 call	 __RTC_CheckEsp
  001a1	8b e5		 mov	 esp, ebp
  001a3	5d		 pop	 ebp
  001a4	c2 10 00	 ret	 16			; 00000010H
?SetRGB@CGdiEx@@QAEXAAKMMM@Z ENDP			; CGdiEx::SetRGB
_TEXT	ENDS
PUBLIC	__real@43b40000
PUBLIC	__real@42700000
PUBLIC	__real@43340000
PUBLIC	__real@43700000
;	COMDAT __real@43b40000
CONST	SEGMENT
__real@43b40000 DD 043b40000r			; 360
CONST	ENDS
;	COMDAT __real@42700000
CONST	SEGMENT
__real@42700000 DD 042700000r			; 60
CONST	ENDS
;	COMDAT __real@43340000
CONST	SEGMENT
__real@43340000 DD 043340000r			; 180
CONST	ENDS
;	COMDAT __real@43700000
CONST	SEGMENT
__real@43700000 DD 043700000r			; 240
; Function compile flags: /Odt /RTCsu
CONST	ENDS
;	COMDAT ?ToRGB1@CGdiEx@@QAEMMMM@Z
_TEXT	SEGMENT
_this$ = -4						; size = 4
_afValue1$ = 8						; size = 4
_afValue2$ = 12						; size = 4
_afValue3$ = 16						; size = 4
?ToRGB1@CGdiEx@@QAEMMMM@Z PROC NEAR			; CGdiEx::ToRGB1, COMDAT
; _this$ = ecx

; 22   : {

  00000	55		 push	 ebp
  00001	8b ec		 mov	 ebp, esp
  00003	51		 push	 ecx
  00004	c7 45 fc cc cc
	cc cc		 mov	 DWORD PTR [ebp-4], -858993460 ; ccccccccH
  0000b	89 4d fc	 mov	 DWORD PTR _this$[ebp], ecx

; 23   : 	if (afValue3 > 360.0f)

  0000e	d9 45 10	 fld	 DWORD PTR _afValue3$[ebp]
  00011	d8 1d 00 00 00
	00		 fcomp	 DWORD PTR __real@43b40000
  00017	df e0		 fnstsw	 ax
  00019	f6 c4 41	 test	 ah, 65			; 00000041H
  0001c	75 0e		 jne	 SHORT $L187027

; 24   : 		afValue3 -= 360.0f;

  0001e	d9 45 10	 fld	 DWORD PTR _afValue3$[ebp]
  00021	d8 25 00 00 00
	00		 fsub	 DWORD PTR __real@43b40000
  00027	d9 5d 10	 fstp	 DWORD PTR _afValue3$[ebp]

; 25   : 	else if (afValue3 < 0.0f)

  0002a	eb 1c		 jmp	 SHORT $L187028
$L187027:
  0002c	d9 45 10	 fld	 DWORD PTR _afValue3$[ebp]
  0002f	d8 1d 00 00 00
	00		 fcomp	 DWORD PTR __real@00000000
  00035	df e0		 fnstsw	 ax
  00037	f6 c4 05	 test	 ah, 5
  0003a	7a 0c		 jp	 SHORT $L187028

; 26   : 		afValue3 += 360.0f;

  0003c	d9 45 10	 fld	 DWORD PTR _afValue3$[ebp]
  0003f	d8 05 00 00 00
	00		 fadd	 DWORD PTR __real@43b40000
  00045	d9 5d 10	 fstp	 DWORD PTR _afValue3$[ebp]
$L187028:

; 27   : 
; 28   : 	if (afValue3 < 60.0f)

  00048	d9 45 10	 fld	 DWORD PTR _afValue3$[ebp]
  0004b	d8 1d 00 00 00
	00		 fcomp	 DWORD PTR __real@42700000
  00051	df e0		 fnstsw	 ax
  00053	f6 c4 05	 test	 ah, 5
  00056	7a 17		 jp	 SHORT $L187030

; 29   : 		afValue1 = afValue1 + (afValue2 - afValue1) * afValue3 / 60.0f;

  00058	d9 45 0c	 fld	 DWORD PTR _afValue2$[ebp]
  0005b	d8 65 08	 fsub	 DWORD PTR _afValue1$[ebp]
  0005e	d8 4d 10	 fmul	 DWORD PTR _afValue3$[ebp]
  00061	d8 35 00 00 00
	00		 fdiv	 DWORD PTR __real@42700000
  00067	d8 45 08	 fadd	 DWORD PTR _afValue1$[ebp]
  0006a	d9 5d 08	 fstp	 DWORD PTR _afValue1$[ebp]

; 30   : 	else if (afValue3 < 180.0f)

  0006d	eb 45		 jmp	 SHORT $L187031
$L187030:
  0006f	d9 45 10	 fld	 DWORD PTR _afValue3$[ebp]
  00072	d8 1d 00 00 00
	00		 fcomp	 DWORD PTR __real@43340000
  00078	df e0		 fnstsw	 ax
  0007a	f6 c4 05	 test	 ah, 5
  0007d	7a 08		 jp	 SHORT $L187032

; 31   : 		afValue1 = afValue2;

  0007f	8b 45 0c	 mov	 eax, DWORD PTR _afValue2$[ebp]
  00082	89 45 08	 mov	 DWORD PTR _afValue1$[ebp], eax

; 32   : 	else if (afValue3 < 240.0f)

  00085	eb 2d		 jmp	 SHORT $L187031
$L187032:
  00087	d9 45 10	 fld	 DWORD PTR _afValue3$[ebp]
  0008a	d8 1d 00 00 00
	00		 fcomp	 DWORD PTR __real@43700000
  00090	df e0		 fnstsw	 ax
  00092	f6 c4 05	 test	 ah, 5
  00095	7a 1d		 jp	 SHORT $L187031

; 33   : 		afValue1 = afValue1 + (afValue2 - afValue1) * (240.0f - afValue3) / 60.0f;

  00097	d9 45 0c	 fld	 DWORD PTR _afValue2$[ebp]
  0009a	d8 65 08	 fsub	 DWORD PTR _afValue1$[ebp]
  0009d	d9 05 00 00 00
	00		 fld	 DWORD PTR __real@43700000
  000a3	d8 65 10	 fsub	 DWORD PTR _afValue3$[ebp]
  000a6	de c9		 fmulp	 ST(1), ST(0)
  000a8	d8 35 00 00 00
	00		 fdiv	 DWORD PTR __real@42700000
  000ae	d8 45 08	 fadd	 DWORD PTR _afValue1$[ebp]
  000b1	d9 5d 08	 fstp	 DWORD PTR _afValue1$[ebp]
$L187031:

; 34   : 
; 35   : 	return afValue1 * 255;

  000b4	d9 45 08	 fld	 DWORD PTR _afValue1$[ebp]
  000b7	d8 0d 00 00 00
	00		 fmul	 DWORD PTR __real@437f0000

; 36   : }

  000bd	8b e5		 mov	 esp, ebp
  000bf	5d		 pop	 ebp
  000c0	c2 0c 00	 ret	 12			; 0000000cH
?ToRGB1@CGdiEx@@QAEMMMM@Z ENDP				; CGdiEx::ToRGB1
_TEXT	ENDS
PUBLIC	__real@43ff0000
PUBLIC	__real@40c00000
PUBLIC	__real@40800000
PUBLIC	?SetHBS@CGdiEx@@QAEXKAAM00@Z			; CGdiEx::SetHBS
;	COMDAT __real@43ff0000
CONST	SEGMENT
__real@43ff0000 DD 043ff0000r			; 510
CONST	ENDS
;	COMDAT __real@40c00000
CONST	SEGMENT
__real@40c00000 DD 040c00000r			; 6
CONST	ENDS
;	COMDAT __real@40800000
CONST	SEGMENT
__real@40800000 DD 040800000r			; 4
; Function compile flags: /Odt /RTCsu
CONST	ENDS
_TEXT	SEGMENT
tv85 = -80						; size = 4
tv86 = -76						; size = 4
tv82 = -72						; size = 4
tv79 = -68						; size = 4
tv80 = -64						; size = 4
tv76 = -60						; size = 4
tv157 = -56						; size = 4
tv155 = -52						; size = 4
tv154 = -48						; size = 4
_lfBlueTarget$ = -44					; size = 4
_lfGreenTarget$ = -40					; size = 4
_lfRedTarget$ = -36					; size = 4
_lfSum$ = -32						; size = 4
_lfDiff$ = -28						; size = 4
_lfMinValue$ = -24					; size = 4
_lfMaxValue$ = -20					; size = 4
_lfBlue$ = -16						; size = 4
_lfGreen$ = -12						; size = 4
_lfRed$ = -8						; size = 4
_this$ = -4						; size = 4
_aSourceColor$ = 8					; size = 4
_afHue$ = 12						; size = 4
_afBrightness$ = 16					; size = 4
_afSaturation$ = 20					; size = 4
?SetHBS@CGdiEx@@QAEXKAAM00@Z PROC NEAR			; CGdiEx::SetHBS
; _this$ = ecx

; 65   : {

  001b0	55		 push	 ebp
  001b1	8b ec		 mov	 ebp, esp
  001b3	83 ec 50	 sub	 esp, 80			; 00000050H
  001b6	57		 push	 edi
  001b7	51		 push	 ecx
  001b8	8d 7d b0	 lea	 edi, DWORD PTR [ebp-80]
  001bb	b9 14 00 00 00	 mov	 ecx, 20			; 00000014H
  001c0	b8 cc cc cc cc	 mov	 eax, -858993460		; ccccccccH
  001c5	f3 ab		 rep stosd
  001c7	59		 pop	 ecx
  001c8	89 4d fc	 mov	 DWORD PTR _this$[ebp], ecx

; 66   : 	FLOAT lfRed   = GetRValue(aSourceColor);

  001cb	0f b6 45 08	 movzx	 eax, BYTE PTR _aSourceColor$[ebp]
  001cf	89 45 d0	 mov	 DWORD PTR tv154[ebp], eax
  001d2	db 45 d0	 fild	 DWORD PTR tv154[ebp]
  001d5	d9 5d f8	 fstp	 DWORD PTR _lfRed$[ebp]

; 67   : 	FLOAT lfGreen = GetGValue(aSourceColor);

  001d8	0f b7 4d 08	 movzx	 ecx, WORD PTR _aSourceColor$[ebp]
  001dc	c1 f9 08	 sar	 ecx, 8
  001df	0f b6 d1	 movzx	 edx, cl
  001e2	89 55 cc	 mov	 DWORD PTR tv155[ebp], edx
  001e5	db 45 cc	 fild	 DWORD PTR tv155[ebp]
  001e8	d9 5d f4	 fstp	 DWORD PTR _lfGreen$[ebp]

; 68   : 	FLOAT lfBlue  = GetBValue(aSourceColor);

  001eb	8b 45 08	 mov	 eax, DWORD PTR _aSourceColor$[ebp]
  001ee	c1 e8 10	 shr	 eax, 16			; 00000010H
  001f1	0f b6 c8	 movzx	 ecx, al
  001f4	89 4d c8	 mov	 DWORD PTR tv157[ebp], ecx
  001f7	db 45 c8	 fild	 DWORD PTR tv157[ebp]
  001fa	d9 5d f0	 fstp	 DWORD PTR _lfBlue$[ebp]

; 69   : 
; 70   : 	FLOAT lfMaxValue = max(lfRed, max(lfGreen, lfBlue));

  001fd	d9 45 f4	 fld	 DWORD PTR _lfGreen$[ebp]
  00200	d8 5d f0	 fcomp	 DWORD PTR _lfBlue$[ebp]
  00203	df e0		 fnstsw	 ax
  00205	f6 c4 41	 test	 ah, 65			; 00000041H
  00208	75 08		 jne	 SHORT $L188416
  0020a	8b 55 f4	 mov	 edx, DWORD PTR _lfGreen$[ebp]
  0020d	89 55 c4	 mov	 DWORD PTR tv76[ebp], edx
  00210	eb 06		 jmp	 SHORT $L188417
$L188416:
  00212	8b 45 f0	 mov	 eax, DWORD PTR _lfBlue$[ebp]
  00215	89 45 c4	 mov	 DWORD PTR tv76[ebp], eax
$L188417:
  00218	d9 45 f8	 fld	 DWORD PTR _lfRed$[ebp]
  0021b	d8 5d c4	 fcomp	 DWORD PTR tv76[ebp]
  0021e	df e0		 fnstsw	 ax
  00220	f6 c4 41	 test	 ah, 65			; 00000041H
  00223	75 08		 jne	 SHORT $L188420
  00225	8b 4d f8	 mov	 ecx, DWORD PTR _lfRed$[ebp]
  00228	89 4d c0	 mov	 DWORD PTR tv80[ebp], ecx
  0022b	eb 21		 jmp	 SHORT $L188421
$L188420:
  0022d	d9 45 f4	 fld	 DWORD PTR _lfGreen$[ebp]
  00230	d8 5d f0	 fcomp	 DWORD PTR _lfBlue$[ebp]
  00233	df e0		 fnstsw	 ax
  00235	f6 c4 41	 test	 ah, 65			; 00000041H
  00238	75 08		 jne	 SHORT $L188418
  0023a	8b 55 f4	 mov	 edx, DWORD PTR _lfGreen$[ebp]
  0023d	89 55 bc	 mov	 DWORD PTR tv79[ebp], edx
  00240	eb 06		 jmp	 SHORT $L188419
$L188418:
  00242	8b 45 f0	 mov	 eax, DWORD PTR _lfBlue$[ebp]
  00245	89 45 bc	 mov	 DWORD PTR tv79[ebp], eax
$L188419:
  00248	8b 4d bc	 mov	 ecx, DWORD PTR tv79[ebp]
  0024b	89 4d c0	 mov	 DWORD PTR tv80[ebp], ecx
$L188421:
  0024e	8b 55 c0	 mov	 edx, DWORD PTR tv80[ebp]
  00251	89 55 ec	 mov	 DWORD PTR _lfMaxValue$[ebp], edx

; 71   : 	FLOAT lfMinValue = min(lfRed, min(lfGreen, lfBlue));

  00254	d9 45 f4	 fld	 DWORD PTR _lfGreen$[ebp]
  00257	d8 5d f0	 fcomp	 DWORD PTR _lfBlue$[ebp]
  0025a	df e0		 fnstsw	 ax
  0025c	f6 c4 05	 test	 ah, 5
  0025f	7a 08		 jp	 SHORT $L188422
  00261	8b 45 f4	 mov	 eax, DWORD PTR _lfGreen$[ebp]
  00264	89 45 b8	 mov	 DWORD PTR tv82[ebp], eax
  00267	eb 06		 jmp	 SHORT $L188423
$L188422:
  00269	8b 4d f0	 mov	 ecx, DWORD PTR _lfBlue$[ebp]
  0026c	89 4d b8	 mov	 DWORD PTR tv82[ebp], ecx
$L188423:
  0026f	d9 45 f8	 fld	 DWORD PTR _lfRed$[ebp]
  00272	d8 5d b8	 fcomp	 DWORD PTR tv82[ebp]
  00275	df e0		 fnstsw	 ax
  00277	f6 c4 05	 test	 ah, 5
  0027a	7a 08		 jp	 SHORT $L188426
  0027c	8b 55 f8	 mov	 edx, DWORD PTR _lfRed$[ebp]
  0027f	89 55 b4	 mov	 DWORD PTR tv86[ebp], edx
  00282	eb 21		 jmp	 SHORT $L188427
$L188426:
  00284	d9 45 f4	 fld	 DWORD PTR _lfGreen$[ebp]
  00287	d8 5d f0	 fcomp	 DWORD PTR _lfBlue$[ebp]
  0028a	df e0		 fnstsw	 ax
  0028c	f6 c4 05	 test	 ah, 5
  0028f	7a 08		 jp	 SHORT $L188424
  00291	8b 45 f4	 mov	 eax, DWORD PTR _lfGreen$[ebp]
  00294	89 45 b0	 mov	 DWORD PTR tv85[ebp], eax
  00297	eb 06		 jmp	 SHORT $L188425
$L188424:
  00299	8b 4d f0	 mov	 ecx, DWORD PTR _lfBlue$[ebp]
  0029c	89 4d b0	 mov	 DWORD PTR tv85[ebp], ecx
$L188425:
  0029f	8b 55 b0	 mov	 edx, DWORD PTR tv85[ebp]
  002a2	89 55 b4	 mov	 DWORD PTR tv86[ebp], edx
$L188427:
  002a5	8b 45 b4	 mov	 eax, DWORD PTR tv86[ebp]
  002a8	89 45 e8	 mov	 DWORD PTR _lfMinValue$[ebp], eax

; 72   : 
; 73   : 	FLOAT lfDiff, lfSum, lfRedTarget, lfGreenTarget, lfBlueTarget;
; 74   : 
; 75   : 	lfDiff = lfMaxValue - lfMinValue;

  002ab	d9 45 ec	 fld	 DWORD PTR _lfMaxValue$[ebp]
  002ae	d8 65 e8	 fsub	 DWORD PTR _lfMinValue$[ebp]
  002b1	d9 5d e4	 fstp	 DWORD PTR _lfDiff$[ebp]

; 76   : 	lfSum  = lfMaxValue + lfMinValue;

  002b4	d9 45 ec	 fld	 DWORD PTR _lfMaxValue$[ebp]
  002b7	d8 45 e8	 fadd	 DWORD PTR _lfMinValue$[ebp]
  002ba	d9 55 e0	 fst	 DWORD PTR _lfSum$[ebp]

; 77   : 	afBrightness = lfSum / 510.0f;

  002bd	d8 35 00 00 00
	00		 fdiv	 DWORD PTR __real@43ff0000
  002c3	8b 4d 10	 mov	 ecx, DWORD PTR _afBrightness$[ebp]
  002c6	d9 19		 fstp	 DWORD PTR [ecx]

; 78   : 
; 79   : 	if (lfMaxValue == lfMinValue)

  002c8	d9 45 e8	 fld	 DWORD PTR _lfMinValue$[ebp]
  002cb	d9 45 ec	 fld	 DWORD PTR _lfMaxValue$[ebp]
  002ce	da e9		 fucompp
  002d0	df e0		 fnstsw	 ax
  002d2	f6 c4 44	 test	 ah, 68			; 00000044H
  002d5	7a 17		 jp	 SHORT $L187082

; 80   : 	{
; 81   : 		afSaturation = 0.0f;

  002d7	8b 55 14	 mov	 edx, DWORD PTR _afSaturation$[ebp]
  002da	c7 02 00 00 00
	00		 mov	 DWORD PTR [edx], 0

; 82   : 		afHue = 0.0f;

  002e0	8b 45 0c	 mov	 eax, DWORD PTR _afHue$[ebp]
  002e3	c7 00 00 00 00
	00		 mov	 DWORD PTR [eax], 0

; 83   : 	}
; 84   : 	else

  002e9	e9 e8 00 00 00	 jmp	 $L187067
$L187082:

; 85   : 	{
; 86   : 		lfRedTarget = (lfMaxValue - lfRed) / lfDiff;

  002ee	d9 45 ec	 fld	 DWORD PTR _lfMaxValue$[ebp]
  002f1	d8 65 f8	 fsub	 DWORD PTR _lfRed$[ebp]
  002f4	d8 75 e4	 fdiv	 DWORD PTR _lfDiff$[ebp]
  002f7	d9 5d dc	 fstp	 DWORD PTR _lfRedTarget$[ebp]

; 87   : 		lfGreenTarget = (lfMaxValue - lfGreen) / lfDiff;

  002fa	d9 45 ec	 fld	 DWORD PTR _lfMaxValue$[ebp]
  002fd	d8 65 f4	 fsub	 DWORD PTR _lfGreen$[ebp]
  00300	d8 75 e4	 fdiv	 DWORD PTR _lfDiff$[ebp]
  00303	d9 5d d8	 fstp	 DWORD PTR _lfGreenTarget$[ebp]

; 88   : 		lfBlueTarget = (lfMaxValue - lfBlue) / lfDiff;

  00306	d9 45 ec	 fld	 DWORD PTR _lfMaxValue$[ebp]
  00309	d8 65 f0	 fsub	 DWORD PTR _lfBlue$[ebp]
  0030c	d8 75 e4	 fdiv	 DWORD PTR _lfDiff$[ebp]
  0030f	d9 5d d4	 fstp	 DWORD PTR _lfBlueTarget$[ebp]

; 89   : 
; 90   : 		if (afBrightness <= 0.5f)

  00312	8b 4d 10	 mov	 ecx, DWORD PTR _afBrightness$[ebp]
  00315	d9 01		 fld	 DWORD PTR [ecx]
  00317	d8 1d 00 00 00
	00		 fcomp	 DWORD PTR __real@3f000000
  0031d	df e0		 fnstsw	 ax
  0031f	f6 c4 41	 test	 ah, 65			; 00000041H
  00322	7a 0d		 jp	 SHORT $L187084

; 91   : 			afSaturation = lfDiff / lfSum;

  00324	d9 45 e4	 fld	 DWORD PTR _lfDiff$[ebp]
  00327	d8 75 e0	 fdiv	 DWORD PTR _lfSum$[ebp]
  0032a	8b 55 14	 mov	 edx, DWORD PTR _afSaturation$[ebp]
  0032d	d9 1a		 fstp	 DWORD PTR [edx]

; 92   : 		else

  0032f	eb 11		 jmp	 SHORT $L187085
$L187084:

; 93   : 			afSaturation = lfDiff / (510.0f - lfSum);

  00331	d9 05 00 00 00
	00		 fld	 DWORD PTR __real@43ff0000
  00337	d8 65 e0	 fsub	 DWORD PTR _lfSum$[ebp]
  0033a	d8 7d e4	 fdivr	 DWORD PTR _lfDiff$[ebp]
  0033d	8b 45 14	 mov	 eax, DWORD PTR _afSaturation$[ebp]
  00340	d9 18		 fstp	 DWORD PTR [eax]
$L187085:

; 94   : 
; 95   : 		if (lfRed == lfMaxValue)

  00342	d9 45 ec	 fld	 DWORD PTR _lfMaxValue$[ebp]
  00345	d9 45 f8	 fld	 DWORD PTR _lfRed$[ebp]
  00348	da e9		 fucompp
  0034a	df e0		 fnstsw	 ax
  0034c	f6 c4 44	 test	 ah, 68			; 00000044H
  0034f	7a 17		 jp	 SHORT $L187086

; 96   : 			afHue = 60.0f * (6.0f + lfBlueTarget - lfGreenTarget);

  00351	d9 05 00 00 00
	00		 fld	 DWORD PTR __real@40c00000
  00357	d8 45 d4	 fadd	 DWORD PTR _lfBlueTarget$[ebp]
  0035a	d8 65 d8	 fsub	 DWORD PTR _lfGreenTarget$[ebp]
  0035d	d8 0d 00 00 00
	00		 fmul	 DWORD PTR __real@42700000
  00363	8b 4d 0c	 mov	 ecx, DWORD PTR _afHue$[ebp]
  00366	d9 19		 fstp	 DWORD PTR [ecx]
$L187086:

; 97   : 		if (lfGreen == lfMaxValue)

  00368	d9 45 ec	 fld	 DWORD PTR _lfMaxValue$[ebp]
  0036b	d9 45 f4	 fld	 DWORD PTR _lfGreen$[ebp]
  0036e	da e9		 fucompp
  00370	df e0		 fnstsw	 ax
  00372	f6 c4 44	 test	 ah, 68			; 00000044H
  00375	7a 17		 jp	 SHORT $L187087

; 98   : 			afHue = 60.0f * (2.0f + lfRedTarget - lfBlueTarget);

  00377	d9 05 00 00 00
	00		 fld	 DWORD PTR __real@40000000
  0037d	d8 45 dc	 fadd	 DWORD PTR _lfRedTarget$[ebp]
  00380	d8 65 d4	 fsub	 DWORD PTR _lfBlueTarget$[ebp]
  00383	d8 0d 00 00 00
	00		 fmul	 DWORD PTR __real@42700000
  00389	8b 55 0c	 mov	 edx, DWORD PTR _afHue$[ebp]
  0038c	d9 1a		 fstp	 DWORD PTR [edx]
$L187087:

; 99   : 		if (lfBlue == lfMaxValue)

  0038e	d9 45 ec	 fld	 DWORD PTR _lfMaxValue$[ebp]
  00391	d9 45 f0	 fld	 DWORD PTR _lfBlue$[ebp]
  00394	da e9		 fucompp
  00396	df e0		 fnstsw	 ax
  00398	f6 c4 44	 test	 ah, 68			; 00000044H
  0039b	7a 17		 jp	 SHORT $L187088

; 100  : 			afHue = 60.0f * (4.0f + lfGreenTarget - lfRedTarget);

  0039d	d9 05 00 00 00
	00		 fld	 DWORD PTR __real@40800000
  003a3	d8 45 d8	 fadd	 DWORD PTR _lfGreenTarget$[ebp]
  003a6	d8 65 dc	 fsub	 DWORD PTR _lfRedTarget$[ebp]
  003a9	d8 0d 00 00 00
	00		 fmul	 DWORD PTR __real@42700000
  003af	8b 45 0c	 mov	 eax, DWORD PTR _afHue$[ebp]
  003b2	d9 18		 fstp	 DWORD PTR [eax]
$L187088:

; 101  : 		if (afHue > 360.0f)

  003b4	8b 4d 0c	 mov	 ecx, DWORD PTR _afHue$[ebp]
  003b7	d9 01		 fld	 DWORD PTR [ecx]
  003b9	d8 1d 00 00 00
	00		 fcomp	 DWORD PTR __real@43b40000
  003bf	df e0		 fnstsw	 ax
  003c1	f6 c4 41	 test	 ah, 65			; 00000041H
  003c4	75 10		 jne	 SHORT $L187067

; 102  : 			afHue = afHue - 360.0f;

  003c6	8b 55 0c	 mov	 edx, DWORD PTR _afHue$[ebp]
  003c9	d9 02		 fld	 DWORD PTR [edx]
  003cb	d8 25 00 00 00
	00		 fsub	 DWORD PTR __real@43b40000
  003d1	8b 45 0c	 mov	 eax, DWORD PTR _afHue$[ebp]
  003d4	d9 18		 fstp	 DWORD PTR [eax]
$L187067:

; 103  : 	}
; 104  : }

  003d6	5f		 pop	 edi
  003d7	8b e5		 mov	 esp, ebp
  003d9	5d		 pop	 ebp
  003da	c2 10 00	 ret	 16			; 00000010H
?SetHBS@CGdiEx@@QAEXKAAM00@Z ENDP			; CGdiEx::SetHBS
_TEXT	ENDS
PUBLIC	?CreateRgnFromBitmap@CGdiEx@@QAEPAUHRGN__@@PAUHBITMAP__@@KK@Z ; CGdiEx::CreateRgnFromBitmap
EXTRN	@_RTC_CheckStackVars@8:NEAR
EXTRN	__imp__GlobalAlloc@8:NEAR
EXTRN	__imp__GlobalReAlloc@12:NEAR
EXTRN	__imp__GlobalLock@4:NEAR
EXTRN	__imp__SelectObject@8:NEAR
EXTRN	__imp__GlobalUnlock@4:NEAR
EXTRN	__imp__GlobalFree@4:NEAR
EXTRN	__imp__BitBlt@36:NEAR
EXTRN	__imp__CombineRgn@16:NEAR
EXTRN	__imp__CreateCompatibleDC@4:NEAR
EXTRN	__imp__DeleteDC@4:NEAR
EXTRN	__imp__DeleteObject@4:NEAR
EXTRN	__imp__ExtCreateRegion@12:NEAR
EXTRN	__imp__CreateDIBSection@24:NEAR
EXTRN	__imp__GetObjectA@12:NEAR
EXTRN	__imp__SetRect@20:NEAR
; Function compile flags: /Odt /RTCsu
_TEXT	SEGMENT
tv223 = -220						; size = 4
tv210 = -216						; size = 4
tv195 = -212						; size = 4
_h$187184 = -208					; size = 4
_h$187179 = -204					; size = 4
_pr$187172 = -200					; size = 4
_b$187159 = -193					; size = 1
_p$187154 = -192					; size = 4
_x0$187153 = -188					; size = 4
_x$187149 = -184					; size = 4
_y$187145 = -180					; size = 4
_p32$187143 = -176					; size = 4
_hb$187140 = -170					; size = 1
_hg$187135 = -169					; size = 1
_hr$187132 = -168					; size = 1
_lb$187130 = -167					; size = 1
_lg$187127 = -166					; size = 1
_lr$187125 = -165					; size = 1
_pData$187122 = -164					; size = 4
_hData$187119 = -160					; size = 4
_maxRects$187118 = -156					; size = 4
_holdBmp$187115 = -152					; size = 4
_bm32$187111 = -144					; size = 24
_hDC$187109 = -116					; size = 4
_holdBmp$187107 = -112					; size = 4
_hbm32$187104 = -108					; size = 4
_pbits32$187103 = -100					; size = 4
_RGB32BITSBITMAPINFO$187101 = -88			; size = 40
_bm$187100 = -40					; size = 24
_hMemDC$187098 = -12					; size = 4
_hRgn$ = -8						; size = 4
_this$ = -4						; size = 4
_hBmp$ = 8						; size = 4
_cTransparentColor$ = 12				; size = 4
_cTolerance$ = 16					; size = 4
?CreateRgnFromBitmap@CGdiEx@@QAEPAUHRGN__@@PAUHBITMAP__@@KK@Z PROC NEAR ; CGdiEx::CreateRgnFromBitmap
; _this$ = ecx

; 107  : {

  003e0	55		 push	 ebp
  003e1	8b ec		 mov	 ebp, esp
  003e3	81 ec dc 00 00
	00		 sub	 esp, 220		; 000000dcH
  003e9	56		 push	 esi
  003ea	57		 push	 edi
  003eb	51		 push	 ecx
  003ec	8d bd 24 ff ff
	ff		 lea	 edi, DWORD PTR [ebp-220]
  003f2	b9 37 00 00 00	 mov	 ecx, 55			; 00000037H
  003f7	b8 cc cc cc cc	 mov	 eax, -858993460		; ccccccccH
  003fc	f3 ab		 rep stosd
  003fe	59		 pop	 ecx
  003ff	89 4d fc	 mov	 DWORD PTR _this$[ebp], ecx

; 108  : 	/*if (!hBmp) return NULL;
; 109  : 
; 110  : 
; 111  : 
; 112  : 	BITMAP bm;
; 113  : 	GetObject( hBmp, sizeof(BITMAP), &bm );	
; 114  : 
; 115  : 	CDC dcBmp;
; 116  : 	CDC* lpdc = CWnd::FromHandle(handle)->GetDC();
; 117  : 	dcBmp.CreateCompatibleDC(lpdc );
; 118  : 	dcBmp.SelectObject(hBmp);			
; 119  : 
; 120  : 	const DWORD RDHDR = sizeof(RGNDATAHEADER);
; 121  : 	const DWORD MAXBUF = 40;		
; 122  : 	LPRECT	pRects;								
; 123  : 	DWORD	cBlocks = 0;		
; 124  : 
; 125  : 	INT		i, j;
; 126  : 	INT		first = 0;		
; 127  : 	bool	wasfirst = false;	
; 128  : 	bool	ismask;		
; 129  : 	RGNDATAHEADER* pRgnData = (RGNDATAHEADER*)new BYTE[ RDHDR + ++cBlocks * MAXBUF * sizeof(RECT) ];
; 130  : 	memset( pRgnData, 0, RDHDR + cBlocks * MAXBUF * sizeof(RECT) );
; 131  : 	pRgnData->dwSize	= RDHDR;
; 132  : 	pRgnData->iType		= RDH_RECTANGLES;
; 133  : 	pRgnData->nCount	= 0;
; 134  : 	for ( i = 0; i < bm.bmHeight; i++ )
; 135  : 	for ( j = 0; j < bm.bmWidth; j++ ){
; 136  : 	ismask=(dcBmp.GetPixel(j,bm.bmHeight-i-1)!=color);
; 137  : 	if (wasfirst && ((ismask && (j==(bm.bmWidth-1)))||(ismask ^ (j<bm.bmWidth)))){
; 138  : 	pRects = (LPRECT)((LPBYTE)pRgnData + RDHDR);
; 139  : 	pRects[ pRgnData->nCount++ ] = CRect( first, bm.bmHeight - i - 1, j+(j==(bm.bmWidth-1)), bm.bmHeight - i );
; 140  : 	if ( pRgnData->nCount >= cBlocks * MAXBUF ){
; 141  : 	LPBYTE pRgnDataNew = new BYTE[ RDHDR + ++cBlocks * MAXBUF * sizeof(RECT) ];
; 142  : 	memcpy( pRgnDataNew, pRgnData, RDHDR + (cBlocks - 1) * MAXBUF * sizeof(RECT) );
; 143  : 	delete pRgnData;
; 144  : 	pRgnData = (RGNDATAHEADER*)pRgnDataNew;
; 145  : 	}
; 146  : 	wasfirst = false;
; 147  : 	} else if ( !wasfirst && ismask ){
; 148  : 	first = j;
; 149  : 	wasfirst = true;
; 150  : 	}
; 151  : 	}
; 152  : 	dcBmp.DeleteDC();	
; 153  : 	HRGN hRgn=CreateRectRgn(0, 0, 0, 0);
; 154  : 	ASSERT( hRgn!=NULL );
; 155  : 	pRects = (LPRECT)((LPBYTE)pRgnData + RDHDR);
; 156  : 	for(i=0;i<(int)pRgnData->nCount;i++)
; 157  : 	{
; 158  : 	HRGN hr=CreateRectRgn(pRects[i].left, pRects[i].top, pRects[i].right, pRects[i].bottom);
; 159  : 	VERIFY(CombineRgn(hRgn, hRgn, hr, RGN_OR)!=ERROR);
; 160  : 	if (hr) DeleteObject(hr);
; 161  : 	}
; 162  : 	ASSERT( hRgn!=NULL );
; 163  : 	ReleaseDC(handle,lpdc->m_hDC);
; 164  : 	delete pRgnData;
; 165  : 	return hRgn;*/
; 166  : 
; 167  : 
; 168  : 	 HRGN hRgn = NULL;

  00402	c7 45 f8 00 00
	00 00		 mov	 DWORD PTR _hRgn$[ebp], 0

; 169  : 
; 170  :     if (hBmp)

  00409	83 7d 08 00	 cmp	 DWORD PTR _hBmp$[ebp], 0
  0040d	0f 84 ab 07 00
	00		 je	 $L187097

; 171  :    {
; 172  :         // Create a memory DC inside which we will scan the bitmap content
; 173  :         HDC hMemDC = CreateCompatibleDC(NULL);

  00413	8b f4		 mov	 esi, esp
  00415	6a 00		 push	 0
  00417	ff 15 00 00 00
	00		 call	 DWORD PTR __imp__CreateCompatibleDC@4
  0041d	3b f4		 cmp	 esi, esp
  0041f	e8 00 00 00 00	 call	 __RTC_CheckEsp
  00424	89 45 f4	 mov	 DWORD PTR _hMemDC$187098[ebp], eax

; 174  :         if (hMemDC)

  00427	83 7d f4 00	 cmp	 DWORD PTR _hMemDC$187098[ebp], 0
  0042b	0f 84 8d 07 00
	00		 je	 $L187097

; 175  :         {
; 176  :             // Get bitmap size
; 177  :             BITMAP bm;
; 178  :             GetObject(hBmp, sizeof(bm), &bm);

  00431	8b f4		 mov	 esi, esp
  00433	8d 45 d8	 lea	 eax, DWORD PTR _bm$187100[ebp]
  00436	50		 push	 eax
  00437	6a 18		 push	 24			; 00000018H
  00439	8b 4d 08	 mov	 ecx, DWORD PTR _hBmp$[ebp]
  0043c	51		 push	 ecx
  0043d	ff 15 00 00 00
	00		 call	 DWORD PTR __imp__GetObjectA@12
  00443	3b f4		 cmp	 esi, esp
  00445	e8 00 00 00 00	 call	 __RTC_CheckEsp

; 179  : 
; 180  :             // Create a 32 bits depth bitmap and select it into the memory DC 
; 181  :             BITMAPINFOHEADER RGB32BITSBITMAPINFO = {    
; 182  :                     sizeof(BITMAPINFOHEADER),    // biSize 

  0044a	c7 45 a8 28 00
	00 00		 mov	 DWORD PTR _RGB32BITSBITMAPINFO$187101[ebp], 40 ; 00000028H

; 183  :                     bm.bmWidth,                    // biWidth; 

  00451	8b 55 dc	 mov	 edx, DWORD PTR _bm$187100[ebp+4]
  00454	89 55 ac	 mov	 DWORD PTR _RGB32BITSBITMAPINFO$187101[ebp+4], edx

; 184  :                     bm.bmHeight,                // biHeight; 

  00457	8b 45 e0	 mov	 eax, DWORD PTR _bm$187100[ebp+8]
  0045a	89 45 b0	 mov	 DWORD PTR _RGB32BITSBITMAPINFO$187101[ebp+8], eax

; 185  :                     1,                            // biPlanes; 

  0045d	66 c7 45 b4 01
	00		 mov	 WORD PTR _RGB32BITSBITMAPINFO$187101[ebp+12], 1

; 186  :                     32,                            // biBitCount 

  00463	66 c7 45 b6 20
	00		 mov	 WORD PTR _RGB32BITSBITMAPINFO$187101[ebp+14], 32 ; 00000020H

; 187  :                     BI_RGB,                        // biCompression; 

  00469	c7 45 b8 00 00
	00 00		 mov	 DWORD PTR _RGB32BITSBITMAPINFO$187101[ebp+16], 0

; 188  :                     0,                            // biSizeImage; 

  00470	c7 45 bc 00 00
	00 00		 mov	 DWORD PTR _RGB32BITSBITMAPINFO$187101[ebp+20], 0

; 189  :                     0,                            // biXPelsPerMeter; 

  00477	c7 45 c0 00 00
	00 00		 mov	 DWORD PTR _RGB32BITSBITMAPINFO$187101[ebp+24], 0

; 190  :                     0,                            // biYPelsPerMeter; 

  0047e	c7 45 c4 00 00
	00 00		 mov	 DWORD PTR _RGB32BITSBITMAPINFO$187101[ebp+28], 0

; 191  :                     0,                            // biClrUsed; 

  00485	c7 45 c8 00 00
	00 00		 mov	 DWORD PTR _RGB32BITSBITMAPINFO$187101[ebp+32], 0

; 192  :                     0                            // biClrImportant; 
; 193  :             };

  0048c	c7 45 cc 00 00
	00 00		 mov	 DWORD PTR _RGB32BITSBITMAPINFO$187101[ebp+36], 0

; 194  :             VOID * pbits32; 
; 195  :             HBITMAP hbm32 = CreateDIBSection(hMemDC, (BITMAPINFO *)&RGB32BITSBITMAPINFO, DIB_RGB_COLORS, &pbits32, NULL, 0);

  00493	8b f4		 mov	 esi, esp
  00495	6a 00		 push	 0
  00497	6a 00		 push	 0
  00499	8d 4d 9c	 lea	 ecx, DWORD PTR _pbits32$187103[ebp]
  0049c	51		 push	 ecx
  0049d	6a 00		 push	 0
  0049f	8d 55 a8	 lea	 edx, DWORD PTR _RGB32BITSBITMAPINFO$187101[ebp]
  004a2	52		 push	 edx
  004a3	8b 45 f4	 mov	 eax, DWORD PTR _hMemDC$187098[ebp]
  004a6	50		 push	 eax
  004a7	ff 15 00 00 00
	00		 call	 DWORD PTR __imp__CreateDIBSection@24
  004ad	3b f4		 cmp	 esi, esp
  004af	e8 00 00 00 00	 call	 __RTC_CheckEsp
  004b4	89 45 94	 mov	 DWORD PTR _hbm32$187104[ebp], eax

; 196  :             if (hbm32)

  004b7	83 7d 94 00	 cmp	 DWORD PTR _hbm32$187104[ebp], 0
  004bb	0f 84 ea 06 00
	00		 je	 $L187106

; 197  :             {
; 198  :                 HBITMAP holdBmp = (HBITMAP)SelectObject(hMemDC, hbm32);

  004c1	8b f4		 mov	 esi, esp
  004c3	8b 4d 94	 mov	 ecx, DWORD PTR _hbm32$187104[ebp]
  004c6	51		 push	 ecx
  004c7	8b 55 f4	 mov	 edx, DWORD PTR _hMemDC$187098[ebp]
  004ca	52		 push	 edx
  004cb	ff 15 00 00 00
	00		 call	 DWORD PTR __imp__SelectObject@8
  004d1	3b f4		 cmp	 esi, esp
  004d3	e8 00 00 00 00	 call	 __RTC_CheckEsp
  004d8	89 45 90	 mov	 DWORD PTR _holdBmp$187107[ebp], eax

; 199  : 
; 200  :                 // Create a DC just to copy the bitmap into the memory DC
; 201  :                 HDC hDC = CreateCompatibleDC(hMemDC);

  004db	8b f4		 mov	 esi, esp
  004dd	8b 45 f4	 mov	 eax, DWORD PTR _hMemDC$187098[ebp]
  004e0	50		 push	 eax
  004e1	ff 15 00 00 00
	00		 call	 DWORD PTR __imp__CreateCompatibleDC@4
  004e7	3b f4		 cmp	 esi, esp
  004e9	e8 00 00 00 00	 call	 __RTC_CheckEsp
  004ee	89 45 8c	 mov	 DWORD PTR _hDC$187109[ebp], eax

; 202  :                 if (hDC)

  004f1	83 7d 8c 00	 cmp	 DWORD PTR _hDC$187109[ebp], 0
  004f5	0f 84 89 06 00
	00		 je	 $L187110

; 203  :                 {
; 204  :                     // Get how many bytes per row we have for the bitmap bits (rounded up to 32 bits)
; 205  :                     BITMAP bm32;
; 206  :                     GetObject(hbm32, sizeof(bm32), &bm32);

  004fb	8b f4		 mov	 esi, esp
  004fd	8d 8d 70 ff ff
	ff		 lea	 ecx, DWORD PTR _bm32$187111[ebp]
  00503	51		 push	 ecx
  00504	6a 18		 push	 24			; 00000018H
  00506	8b 55 94	 mov	 edx, DWORD PTR _hbm32$187104[ebp]
  00509	52		 push	 edx
  0050a	ff 15 00 00 00
	00		 call	 DWORD PTR __imp__GetObjectA@12
  00510	3b f4		 cmp	 esi, esp
  00512	e8 00 00 00 00	 call	 __RTC_CheckEsp
$L187113:

; 207  :                     while (bm32.bmWidthBytes % 4)

  00517	8b 85 7c ff ff
	ff		 mov	 eax, DWORD PTR _bm32$187111[ebp+12]
  0051d	25 03 00 00 80	 and	 eax, -2147483645	; 80000003H
  00522	79 05		 jns	 SHORT $L188448
  00524	48		 dec	 eax
  00525	83 c8 fc	 or	 eax, -4			; fffffffcH
  00528	40		 inc	 eax
$L188448:
  00529	85 c0		 test	 eax, eax
  0052b	74 11		 je	 SHORT $L187114

; 208  :                         bm32.bmWidthBytes++;

  0052d	8b 8d 7c ff ff
	ff		 mov	 ecx, DWORD PTR _bm32$187111[ebp+12]
  00533	83 c1 01	 add	 ecx, 1
  00536	89 8d 7c ff ff
	ff		 mov	 DWORD PTR _bm32$187111[ebp+12], ecx
  0053c	eb d9		 jmp	 SHORT $L187113
$L187114:

; 209  : 
; 210  :                     // Copy the bitmap into the memory DC
; 211  :                     HBITMAP holdBmp = (HBITMAP)SelectObject(hDC, hBmp);

  0053e	8b f4		 mov	 esi, esp
  00540	8b 55 08	 mov	 edx, DWORD PTR _hBmp$[ebp]
  00543	52		 push	 edx
  00544	8b 45 8c	 mov	 eax, DWORD PTR _hDC$187109[ebp]
  00547	50		 push	 eax
  00548	ff 15 00 00 00
	00		 call	 DWORD PTR __imp__SelectObject@8
  0054e	3b f4		 cmp	 esi, esp
  00550	e8 00 00 00 00	 call	 __RTC_CheckEsp
  00555	89 85 68 ff ff
	ff		 mov	 DWORD PTR _holdBmp$187115[ebp], eax

; 212  :                     BitBlt(hMemDC, 0, 0, bm.bmWidth, bm.bmHeight, hDC, 0, 0, SRCCOPY);

  0055b	8b f4		 mov	 esi, esp
  0055d	68 20 00 cc 00	 push	 13369376		; 00cc0020H
  00562	6a 00		 push	 0
  00564	6a 00		 push	 0
  00566	8b 4d 8c	 mov	 ecx, DWORD PTR _hDC$187109[ebp]
  00569	51		 push	 ecx
  0056a	8b 55 e0	 mov	 edx, DWORD PTR _bm$187100[ebp+8]
  0056d	52		 push	 edx
  0056e	8b 45 dc	 mov	 eax, DWORD PTR _bm$187100[ebp+4]
  00571	50		 push	 eax
  00572	6a 00		 push	 0
  00574	6a 00		 push	 0
  00576	8b 4d f4	 mov	 ecx, DWORD PTR _hMemDC$187098[ebp]
  00579	51		 push	 ecx
  0057a	ff 15 00 00 00
	00		 call	 DWORD PTR __imp__BitBlt@36
  00580	3b f4		 cmp	 esi, esp
  00582	e8 00 00 00 00	 call	 __RTC_CheckEsp

; 213  : 
; 214  :                     // For better performances, we will use the ExtCreateRegion() function to create the
; 215  :                     // region. This function take a RGNDATA structure on entry. We will add rectangles by
; 216  :                     // amount of ALLOC_UNIT number in this structure.
; 217  :                     #define ALLOC_UNIT    100
; 218  :                     DWORD maxRects = ALLOC_UNIT;

  00587	c7 85 64 ff ff
	ff 64 00 00 00	 mov	 DWORD PTR _maxRects$187118[ebp], 100 ; 00000064H

; 219  :                     HANDLE hData = GlobalAlloc(GMEM_MOVEABLE, sizeof(RGNDATAHEADER) + (sizeof(RECT) * maxRects));

  00591	8b 95 64 ff ff
	ff		 mov	 edx, DWORD PTR _maxRects$187118[ebp]
  00597	c1 e2 04	 shl	 edx, 4
  0059a	83 c2 20	 add	 edx, 32			; 00000020H
  0059d	8b f4		 mov	 esi, esp
  0059f	52		 push	 edx
  005a0	6a 02		 push	 2
  005a2	ff 15 00 00 00
	00		 call	 DWORD PTR __imp__GlobalAlloc@8
  005a8	3b f4		 cmp	 esi, esp
  005aa	e8 00 00 00 00	 call	 __RTC_CheckEsp
  005af	89 85 60 ff ff
	ff		 mov	 DWORD PTR _hData$187119[ebp], eax

; 220  :                     RGNDATA *pData = (RGNDATA *)GlobalLock(hData);

  005b5	8b f4		 mov	 esi, esp
  005b7	8b 85 60 ff ff
	ff		 mov	 eax, DWORD PTR _hData$187119[ebp]
  005bd	50		 push	 eax
  005be	ff 15 00 00 00
	00		 call	 DWORD PTR __imp__GlobalLock@4
  005c4	3b f4		 cmp	 esi, esp
  005c6	e8 00 00 00 00	 call	 __RTC_CheckEsp
  005cb	89 85 5c ff ff
	ff		 mov	 DWORD PTR _pData$187122[ebp], eax

; 221  :                     pData->rdh.dwSize = sizeof(RGNDATAHEADER);

  005d1	8b 8d 5c ff ff
	ff		 mov	 ecx, DWORD PTR _pData$187122[ebp]
  005d7	c7 01 20 00 00
	00		 mov	 DWORD PTR [ecx], 32	; 00000020H

; 222  :                     pData->rdh.iType = RDH_RECTANGLES;

  005dd	8b 95 5c ff ff
	ff		 mov	 edx, DWORD PTR _pData$187122[ebp]
  005e3	c7 42 04 01 00
	00 00		 mov	 DWORD PTR [edx+4], 1

; 223  :                     pData->rdh.nCount = pData->rdh.nRgnSize = 0;

  005ea	8b 85 5c ff ff
	ff		 mov	 eax, DWORD PTR _pData$187122[ebp]
  005f0	c7 40 0c 00 00
	00 00		 mov	 DWORD PTR [eax+12], 0
  005f7	8b 8d 5c ff ff
	ff		 mov	 ecx, DWORD PTR _pData$187122[ebp]
  005fd	c7 41 08 00 00
	00 00		 mov	 DWORD PTR [ecx+8], 0

; 224  :                     SetRect(&pData->rdh.rcBound, MAXLONG, MAXLONG, 0, 0);

  00604	8b f4		 mov	 esi, esp
  00606	6a 00		 push	 0
  00608	6a 00		 push	 0
  0060a	68 ff ff ff 7f	 push	 2147483647		; 7fffffffH
  0060f	68 ff ff ff 7f	 push	 2147483647		; 7fffffffH
  00614	8b 95 5c ff ff
	ff		 mov	 edx, DWORD PTR _pData$187122[ebp]
  0061a	83 c2 10	 add	 edx, 16			; 00000010H
  0061d	52		 push	 edx
  0061e	ff 15 00 00 00
	00		 call	 DWORD PTR __imp__SetRect@20
  00624	3b f4		 cmp	 esi, esp
  00626	e8 00 00 00 00	 call	 __RTC_CheckEsp

; 225  : 
; 226  :                     // Keep on hand highest and lowest values for the "transparent" pixels
; 227  :                     BYTE lr = GetRValue(cTransparentColor);

  0062b	8a 45 0c	 mov	 al, BYTE PTR _cTransparentColor$[ebp]
  0062e	88 85 5b ff ff
	ff		 mov	 BYTE PTR _lr$187125[ebp], al

; 228  :                     BYTE lg = GetGValue(cTransparentColor);

  00634	0f b7 4d 0c	 movzx	 ecx, WORD PTR _cTransparentColor$[ebp]
  00638	c1 f9 08	 sar	 ecx, 8
  0063b	88 8d 5a ff ff
	ff		 mov	 BYTE PTR _lg$187127[ebp], cl

; 229  :                     BYTE lb = GetBValue(cTransparentColor);

  00641	8b 55 0c	 mov	 edx, DWORD PTR _cTransparentColor$[ebp]
  00644	c1 ea 10	 shr	 edx, 16			; 00000010H
  00647	88 95 59 ff ff
	ff		 mov	 BYTE PTR _lb$187130[ebp], dl

; 230  :                     BYTE hr = min(0xff, lr + GetRValue(cTolerance));

  0064d	0f b6 85 5b ff
	ff ff		 movzx	 eax, BYTE PTR _lr$187125[ebp]
  00654	0f b6 4d 10	 movzx	 ecx, BYTE PTR _cTolerance$[ebp]
  00658	03 c1		 add	 eax, ecx
  0065a	3d ff 00 00 00	 cmp	 eax, 255		; 000000ffH
  0065f	7e 0c		 jle	 SHORT $L188435
  00661	c7 85 2c ff ff
	ff ff 00 00 00	 mov	 DWORD PTR tv195[ebp], 255 ; 000000ffH
  0066b	eb 13		 jmp	 SHORT $L188436
$L188435:
  0066d	0f b6 95 5b ff
	ff ff		 movzx	 edx, BYTE PTR _lr$187125[ebp]
  00674	0f b6 45 10	 movzx	 eax, BYTE PTR _cTolerance$[ebp]
  00678	03 d0		 add	 edx, eax
  0067a	89 95 2c ff ff
	ff		 mov	 DWORD PTR tv195[ebp], edx
$L188436:
  00680	8a 8d 2c ff ff
	ff		 mov	 cl, BYTE PTR tv195[ebp]
  00686	88 8d 58 ff ff
	ff		 mov	 BYTE PTR _hr$187132[ebp], cl

; 231  :                     BYTE hg = min(0xff, lg + GetGValue(cTolerance));

  0068c	0f b6 95 5a ff
	ff ff		 movzx	 edx, BYTE PTR _lg$187127[ebp]
  00693	0f b7 45 10	 movzx	 eax, WORD PTR _cTolerance$[ebp]
  00697	c1 f8 08	 sar	 eax, 8
  0069a	0f b6 c8	 movzx	 ecx, al
  0069d	03 d1		 add	 edx, ecx
  0069f	81 fa ff 00 00
	00		 cmp	 edx, 255		; 000000ffH
  006a5	7e 0c		 jle	 SHORT $L188437
  006a7	c7 85 28 ff ff
	ff ff 00 00 00	 mov	 DWORD PTR tv210[ebp], 255 ; 000000ffH
  006b1	eb 19		 jmp	 SHORT $L188438
$L188437:
  006b3	0f b6 95 5a ff
	ff ff		 movzx	 edx, BYTE PTR _lg$187127[ebp]
  006ba	0f b7 45 10	 movzx	 eax, WORD PTR _cTolerance$[ebp]
  006be	c1 f8 08	 sar	 eax, 8
  006c1	0f b6 c8	 movzx	 ecx, al
  006c4	03 d1		 add	 edx, ecx
  006c6	89 95 28 ff ff
	ff		 mov	 DWORD PTR tv210[ebp], edx
$L188438:
  006cc	8a 95 28 ff ff
	ff		 mov	 dl, BYTE PTR tv210[ebp]
  006d2	88 95 57 ff ff
	ff		 mov	 BYTE PTR _hg$187135[ebp], dl

; 232  :                     BYTE hb = min(0xff, lb + GetBValue(cTolerance));

  006d8	0f b6 85 59 ff
	ff ff		 movzx	 eax, BYTE PTR _lb$187130[ebp]
  006df	8b 4d 10	 mov	 ecx, DWORD PTR _cTolerance$[ebp]
  006e2	c1 e9 10	 shr	 ecx, 16			; 00000010H
  006e5	0f b6 d1	 movzx	 edx, cl
  006e8	03 c2		 add	 eax, edx
  006ea	3d ff 00 00 00	 cmp	 eax, 255		; 000000ffH
  006ef	7e 0c		 jle	 SHORT $L188439
  006f1	c7 85 24 ff ff
	ff ff 00 00 00	 mov	 DWORD PTR tv223[ebp], 255 ; 000000ffH
  006fb	eb 18		 jmp	 SHORT $L188440
$L188439:
  006fd	0f b6 85 59 ff
	ff ff		 movzx	 eax, BYTE PTR _lb$187130[ebp]
  00704	8b 4d 10	 mov	 ecx, DWORD PTR _cTolerance$[ebp]
  00707	c1 e9 10	 shr	 ecx, 16			; 00000010H
  0070a	0f b6 d1	 movzx	 edx, cl
  0070d	03 c2		 add	 eax, edx
  0070f	89 85 24 ff ff
	ff		 mov	 DWORD PTR tv223[ebp], eax
$L188440:
  00715	8a 85 24 ff ff
	ff		 mov	 al, BYTE PTR tv223[ebp]
  0071b	88 85 56 ff ff
	ff		 mov	 BYTE PTR _hb$187140[ebp], al

; 233  : 
; 234  :                     // Scan each bitmap row from bottom to top (the bitmap is inverted vertically)
; 235  :                     BYTE *p32 = (BYTE *)bm32.bmBits + (bm32.bmHeight - 1) * bm32.bmWidthBytes;

  00721	8b 8d 78 ff ff
	ff		 mov	 ecx, DWORD PTR _bm32$187111[ebp+8]
  00727	83 e9 01	 sub	 ecx, 1
  0072a	0f af 8d 7c ff
	ff ff		 imul	 ecx, DWORD PTR _bm32$187111[ebp+12]
  00731	03 4d 84	 add	 ecx, DWORD PTR _bm32$187111[ebp+20]
  00734	89 8d 50 ff ff
	ff		 mov	 DWORD PTR _p32$187143[ebp], ecx

; 236  :                     for (int y = 0; y < bm.bmHeight; y++)

  0073a	c7 85 4c ff ff
	ff 00 00 00 00	 mov	 DWORD PTR _y$187145[ebp], 0
  00744	eb 0f		 jmp	 SHORT $L187146
$L187147:
  00746	8b 95 4c ff ff
	ff		 mov	 edx, DWORD PTR _y$187145[ebp]
  0074c	83 c2 01	 add	 edx, 1
  0074f	89 95 4c ff ff
	ff		 mov	 DWORD PTR _y$187145[ebp], edx
$L187146:
  00755	8b 85 4c ff ff
	ff		 mov	 eax, DWORD PTR _y$187145[ebp]
  0075b	3b 45 e0	 cmp	 eax, DWORD PTR _bm$187100[ebp+8]
  0075e	0f 8d 6b 03 00
	00		 jge	 $L187148

; 237  :                     {
; 238  :                         // Scan each bitmap pixel from left to right
; 239  :                         for (int x = 0; x < bm.bmWidth; x++)

  00764	c7 85 48 ff ff
	ff 00 00 00 00	 mov	 DWORD PTR _x$187149[ebp], 0
  0076e	eb 0f		 jmp	 SHORT $L187150
$L187151:
  00770	8b 8d 48 ff ff
	ff		 mov	 ecx, DWORD PTR _x$187149[ebp]
  00776	83 c1 01	 add	 ecx, 1
  00779	89 8d 48 ff ff
	ff		 mov	 DWORD PTR _x$187149[ebp], ecx
$L187150:
  0077f	8b 95 48 ff ff
	ff		 mov	 edx, DWORD PTR _x$187149[ebp]
  00785	3b 55 dc	 cmp	 edx, DWORD PTR _bm$187100[ebp+4]
  00788	0f 8d 2a 03 00
	00		 jge	 $L187152

; 240  :                         {
; 241  :                             // Search for a continuous range of "non transparent pixels"
; 242  :                             int x0 = x;

  0078e	8b 85 48 ff ff
	ff		 mov	 eax, DWORD PTR _x$187149[ebp]
  00794	89 85 44 ff ff
	ff		 mov	 DWORD PTR _x0$187153[ebp], eax

; 243  :                             LONG *p = (LONG *)p32 + x;

  0079a	8b 8d 48 ff ff
	ff		 mov	 ecx, DWORD PTR _x$187149[ebp]
  007a0	8b 95 50 ff ff
	ff		 mov	 edx, DWORD PTR _p32$187143[ebp]
  007a6	8d 04 8a	 lea	 eax, DWORD PTR [edx+ecx*4]
  007a9	89 85 40 ff ff
	ff		 mov	 DWORD PTR _p$187154[ebp], eax
$L187157:

; 244  :                             while (x < bm.bmWidth)

  007af	8b 8d 48 ff ff
	ff		 mov	 ecx, DWORD PTR _x$187149[ebp]
  007b5	3b 4d dc	 cmp	 ecx, DWORD PTR _bm$187100[ebp+4]
  007b8	0f 8d c2 00 00
	00		 jge	 $L187158

; 245  :                             {
; 246  :                                 BYTE b = GetRValue(*p);

  007be	8b 95 40 ff ff
	ff		 mov	 edx, DWORD PTR _p$187154[ebp]
  007c4	8a 02		 mov	 al, BYTE PTR [edx]
  007c6	88 85 3f ff ff
	ff		 mov	 BYTE PTR _b$187159[ebp], al

; 247  :                                 if (b >= lr && b <= hr)

  007cc	0f b6 8d 3f ff
	ff ff		 movzx	 ecx, BYTE PTR _b$187159[ebp]
  007d3	0f b6 95 5b ff
	ff ff		 movzx	 edx, BYTE PTR _lr$187125[ebp]
  007da	3b ca		 cmp	 ecx, edx
  007dc	7c 7f		 jl	 SHORT $L187161
  007de	0f b6 85 3f ff
	ff ff		 movzx	 eax, BYTE PTR _b$187159[ebp]
  007e5	0f b6 8d 58 ff
	ff ff		 movzx	 ecx, BYTE PTR _hr$187132[ebp]
  007ec	3b c1		 cmp	 eax, ecx
  007ee	7f 6d		 jg	 SHORT $L187161

; 248  :                                 {
; 249  :                                     b = GetGValue(*p);

  007f0	8b 95 40 ff ff
	ff		 mov	 edx, DWORD PTR _p$187154[ebp]
  007f6	0f b7 02	 movzx	 eax, WORD PTR [edx]
  007f9	c1 f8 08	 sar	 eax, 8
  007fc	88 85 3f ff ff
	ff		 mov	 BYTE PTR _b$187159[ebp], al

; 250  :                                     if (b >= lg && b <= hg)

  00802	0f b6 8d 3f ff
	ff ff		 movzx	 ecx, BYTE PTR _b$187159[ebp]
  00809	0f b6 95 5a ff
	ff ff		 movzx	 edx, BYTE PTR _lg$187127[ebp]
  00810	3b ca		 cmp	 ecx, edx
  00812	7c 49		 jl	 SHORT $L187161
  00814	0f b6 85 3f ff
	ff ff		 movzx	 eax, BYTE PTR _b$187159[ebp]
  0081b	0f b6 8d 57 ff
	ff ff		 movzx	 ecx, BYTE PTR _hg$187135[ebp]
  00822	3b c1		 cmp	 eax, ecx
  00824	7f 37		 jg	 SHORT $L187161

; 251  :                                     {
; 252  :                                         b = GetBValue(*p);

  00826	8b 95 40 ff ff
	ff		 mov	 edx, DWORD PTR _p$187154[ebp]
  0082c	8b 02		 mov	 eax, DWORD PTR [edx]
  0082e	c1 f8 10	 sar	 eax, 16			; 00000010H
  00831	88 85 3f ff ff
	ff		 mov	 BYTE PTR _b$187159[ebp], al

; 253  :                                         if (b >= lb && b <= hb)

  00837	0f b6 8d 3f ff
	ff ff		 movzx	 ecx, BYTE PTR _b$187159[ebp]
  0083e	0f b6 95 59 ff
	ff ff		 movzx	 edx, BYTE PTR _lb$187130[ebp]
  00845	3b ca		 cmp	 ecx, edx
  00847	7c 14		 jl	 SHORT $L187161
  00849	0f b6 85 3f ff
	ff ff		 movzx	 eax, BYTE PTR _b$187159[ebp]
  00850	0f b6 8d 56 ff
	ff ff		 movzx	 ecx, BYTE PTR _hb$187140[ebp]
  00857	3b c1		 cmp	 eax, ecx
  00859	7f 02		 jg	 SHORT $L187161

; 254  :                                             // This pixel is "transparent"
; 255  :                                             break;

  0085b	eb 23		 jmp	 SHORT $L187158
$L187161:

; 256  :                                     }
; 257  :                                 }
; 258  :                                 p++;

  0085d	8b 95 40 ff ff
	ff		 mov	 edx, DWORD PTR _p$187154[ebp]
  00863	83 c2 04	 add	 edx, 4
  00866	89 95 40 ff ff
	ff		 mov	 DWORD PTR _p$187154[ebp], edx

; 259  :                                 x++;

  0086c	8b 85 48 ff ff
	ff		 mov	 eax, DWORD PTR _x$187149[ebp]
  00872	83 c0 01	 add	 eax, 1
  00875	89 85 48 ff ff
	ff		 mov	 DWORD PTR _x$187149[ebp], eax

; 260  :                             }

  0087b	e9 2f ff ff ff	 jmp	 $L187157
$L187158:

; 261  : 
; 262  :                             if (x > x0)

  00880	8b 8d 48 ff ff
	ff		 mov	 ecx, DWORD PTR _x$187149[ebp]
  00886	3b 8d 44 ff ff
	ff		 cmp	 ecx, DWORD PTR _x0$187153[ebp]
  0088c	0f 8e 21 02 00
	00		 jle	 $L187167

; 263  :                             {
; 264  :                                 // Add the pixels (x0, y) to (x, y+1) as a new rectangle in the region
; 265  :                                 if (pData->rdh.nCount >= maxRects)

  00892	8b 95 5c ff ff
	ff		 mov	 edx, DWORD PTR _pData$187122[ebp]
  00898	8b 42 08	 mov	 eax, DWORD PTR [edx+8]
  0089b	3b 85 64 ff ff
	ff		 cmp	 eax, DWORD PTR _maxRects$187118[ebp]
  008a1	72 6c		 jb	 SHORT $L187168

; 266  :                                 {
; 267  :                                     GlobalUnlock(hData);

  008a3	8b f4		 mov	 esi, esp
  008a5	8b 8d 60 ff ff
	ff		 mov	 ecx, DWORD PTR _hData$187119[ebp]
  008ab	51		 push	 ecx
  008ac	ff 15 00 00 00
	00		 call	 DWORD PTR __imp__GlobalUnlock@4
  008b2	3b f4		 cmp	 esi, esp
  008b4	e8 00 00 00 00	 call	 __RTC_CheckEsp

; 268  :                                     maxRects += ALLOC_UNIT;

  008b9	8b 95 64 ff ff
	ff		 mov	 edx, DWORD PTR _maxRects$187118[ebp]
  008bf	83 c2 64	 add	 edx, 100		; 00000064H
  008c2	89 95 64 ff ff
	ff		 mov	 DWORD PTR _maxRects$187118[ebp], edx

; 269  :                                     hData = GlobalReAlloc(hData, sizeof(RGNDATAHEADER) + (sizeof(RECT) * maxRects), GMEM_MOVEABLE);

  008c8	8b f4		 mov	 esi, esp
  008ca	6a 02		 push	 2
  008cc	8b 85 64 ff ff
	ff		 mov	 eax, DWORD PTR _maxRects$187118[ebp]
  008d2	c1 e0 04	 shl	 eax, 4
  008d5	83 c0 20	 add	 eax, 32			; 00000020H
  008d8	50		 push	 eax
  008d9	8b 8d 60 ff ff
	ff		 mov	 ecx, DWORD PTR _hData$187119[ebp]
  008df	51		 push	 ecx
  008e0	ff 15 00 00 00
	00		 call	 DWORD PTR __imp__GlobalReAlloc@12
  008e6	3b f4		 cmp	 esi, esp
  008e8	e8 00 00 00 00	 call	 __RTC_CheckEsp
  008ed	89 85 60 ff ff
	ff		 mov	 DWORD PTR _hData$187119[ebp], eax

; 270  :                                     pData = (RGNDATA *)GlobalLock(hData);

  008f3	8b f4		 mov	 esi, esp
  008f5	8b 95 60 ff ff
	ff		 mov	 edx, DWORD PTR _hData$187119[ebp]
  008fb	52		 push	 edx
  008fc	ff 15 00 00 00
	00		 call	 DWORD PTR __imp__GlobalLock@4
  00902	3b f4		 cmp	 esi, esp
  00904	e8 00 00 00 00	 call	 __RTC_CheckEsp
  00909	89 85 5c ff ff
	ff		 mov	 DWORD PTR _pData$187122[ebp], eax
$L187168:

; 271  :                                 }
; 272  :                                 RECT *pr = (RECT *)&pData->Buffer;

  0090f	8b 85 5c ff ff
	ff		 mov	 eax, DWORD PTR _pData$187122[ebp]
  00915	83 c0 20	 add	 eax, 32			; 00000020H
  00918	89 85 38 ff ff
	ff		 mov	 DWORD PTR _pr$187172[ebp], eax

; 273  :                                 SetRect(&pr[pData->rdh.nCount], x0, y, x, y+1);

  0091e	8b 8d 4c ff ff
	ff		 mov	 ecx, DWORD PTR _y$187145[ebp]
  00924	83 c1 01	 add	 ecx, 1
  00927	8b f4		 mov	 esi, esp
  00929	51		 push	 ecx
  0092a	8b 95 48 ff ff
	ff		 mov	 edx, DWORD PTR _x$187149[ebp]
  00930	52		 push	 edx
  00931	8b 85 4c ff ff
	ff		 mov	 eax, DWORD PTR _y$187145[ebp]
  00937	50		 push	 eax
  00938	8b 8d 44 ff ff
	ff		 mov	 ecx, DWORD PTR _x0$187153[ebp]
  0093e	51		 push	 ecx
  0093f	8b 95 5c ff ff
	ff		 mov	 edx, DWORD PTR _pData$187122[ebp]
  00945	8b 42 08	 mov	 eax, DWORD PTR [edx+8]
  00948	c1 e0 04	 shl	 eax, 4
  0094b	03 85 38 ff ff
	ff		 add	 eax, DWORD PTR _pr$187172[ebp]
  00951	50		 push	 eax
  00952	ff 15 00 00 00
	00		 call	 DWORD PTR __imp__SetRect@20
  00958	3b f4		 cmp	 esi, esp
  0095a	e8 00 00 00 00	 call	 __RTC_CheckEsp

; 274  :                                 if (x0 < pData->rdh.rcBound.left)

  0095f	8b 8d 5c ff ff
	ff		 mov	 ecx, DWORD PTR _pData$187122[ebp]
  00965	8b 95 44 ff ff
	ff		 mov	 edx, DWORD PTR _x0$187153[ebp]
  0096b	3b 51 10	 cmp	 edx, DWORD PTR [ecx+16]
  0096e	7d 0f		 jge	 SHORT $L187174

; 275  :                                     pData->rdh.rcBound.left = x0;

  00970	8b 85 5c ff ff
	ff		 mov	 eax, DWORD PTR _pData$187122[ebp]
  00976	8b 8d 44 ff ff
	ff		 mov	 ecx, DWORD PTR _x0$187153[ebp]
  0097c	89 48 10	 mov	 DWORD PTR [eax+16], ecx
$L187174:

; 276  :                                 if (y < pData->rdh.rcBound.top)

  0097f	8b 95 5c ff ff
	ff		 mov	 edx, DWORD PTR _pData$187122[ebp]
  00985	8b 85 4c ff ff
	ff		 mov	 eax, DWORD PTR _y$187145[ebp]
  0098b	3b 42 14	 cmp	 eax, DWORD PTR [edx+20]
  0098e	7d 0f		 jge	 SHORT $L187175

; 277  :                                     pData->rdh.rcBound.top = y;

  00990	8b 8d 5c ff ff
	ff		 mov	 ecx, DWORD PTR _pData$187122[ebp]
  00996	8b 95 4c ff ff
	ff		 mov	 edx, DWORD PTR _y$187145[ebp]
  0099c	89 51 14	 mov	 DWORD PTR [ecx+20], edx
$L187175:

; 278  :                                 if (x > pData->rdh.rcBound.right)

  0099f	8b 85 5c ff ff
	ff		 mov	 eax, DWORD PTR _pData$187122[ebp]
  009a5	8b 8d 48 ff ff
	ff		 mov	 ecx, DWORD PTR _x$187149[ebp]
  009ab	3b 48 18	 cmp	 ecx, DWORD PTR [eax+24]
  009ae	7e 0f		 jle	 SHORT $L187176

; 279  :                                     pData->rdh.rcBound.right = x;

  009b0	8b 95 5c ff ff
	ff		 mov	 edx, DWORD PTR _pData$187122[ebp]
  009b6	8b 85 48 ff ff
	ff		 mov	 eax, DWORD PTR _x$187149[ebp]
  009bc	89 42 18	 mov	 DWORD PTR [edx+24], eax
$L187176:

; 280  :                                 if (y+1 > pData->rdh.rcBound.bottom)

  009bf	8b 8d 4c ff ff
	ff		 mov	 ecx, DWORD PTR _y$187145[ebp]
  009c5	83 c1 01	 add	 ecx, 1
  009c8	8b 95 5c ff ff
	ff		 mov	 edx, DWORD PTR _pData$187122[ebp]
  009ce	3b 4a 1c	 cmp	 ecx, DWORD PTR [edx+28]
  009d1	7e 12		 jle	 SHORT $L187177

; 281  :                                     pData->rdh.rcBound.bottom = y+1;

  009d3	8b 85 4c ff ff
	ff		 mov	 eax, DWORD PTR _y$187145[ebp]
  009d9	83 c0 01	 add	 eax, 1
  009dc	8b 8d 5c ff ff
	ff		 mov	 ecx, DWORD PTR _pData$187122[ebp]
  009e2	89 41 1c	 mov	 DWORD PTR [ecx+28], eax
$L187177:

; 282  :                                 pData->rdh.nCount++;

  009e5	8b 95 5c ff ff
	ff		 mov	 edx, DWORD PTR _pData$187122[ebp]
  009eb	8b 42 08	 mov	 eax, DWORD PTR [edx+8]
  009ee	83 c0 01	 add	 eax, 1
  009f1	8b 8d 5c ff ff
	ff		 mov	 ecx, DWORD PTR _pData$187122[ebp]
  009f7	89 41 08	 mov	 DWORD PTR [ecx+8], eax

; 283  : 
; 284  :                                 // On Windows98, ExtCreateRegion() may fail if the number of rectangles is too
; 285  :                                 // large (ie: > 4000). Therefore, we have to create the region by multiple steps.
; 286  :                                 if (pData->rdh.nCount == 2000)

  009fa	8b 95 5c ff ff
	ff		 mov	 edx, DWORD PTR _pData$187122[ebp]
  00a00	81 7a 08 d0 07
	00 00		 cmp	 DWORD PTR [edx+8], 2000	; 000007d0H
  00a07	0f 85 a6 00 00
	00		 jne	 $L187167

; 287  :                                 {
; 288  :                                     HRGN h = ExtCreateRegion(NULL, sizeof(RGNDATAHEADER) + (sizeof(RECT) * maxRects), pData);

  00a0d	8b f4		 mov	 esi, esp
  00a0f	8b 85 5c ff ff
	ff		 mov	 eax, DWORD PTR _pData$187122[ebp]
  00a15	50		 push	 eax
  00a16	8b 8d 64 ff ff
	ff		 mov	 ecx, DWORD PTR _maxRects$187118[ebp]
  00a1c	c1 e1 04	 shl	 ecx, 4
  00a1f	83 c1 20	 add	 ecx, 32			; 00000020H
  00a22	51		 push	 ecx
  00a23	6a 00		 push	 0
  00a25	ff 15 00 00 00
	00		 call	 DWORD PTR __imp__ExtCreateRegion@12
  00a2b	3b f4		 cmp	 esi, esp
  00a2d	e8 00 00 00 00	 call	 __RTC_CheckEsp
  00a32	89 85 34 ff ff
	ff		 mov	 DWORD PTR _h$187179[ebp], eax

; 289  :                                     if (hRgn)

  00a38	83 7d f8 00	 cmp	 DWORD PTR _hRgn$[ebp], 0
  00a3c	74 38		 je	 SHORT $L187182

; 290  :                                     {
; 291  :                                         CombineRgn(hRgn, hRgn, h, RGN_OR);

  00a3e	8b f4		 mov	 esi, esp
  00a40	6a 02		 push	 2
  00a42	8b 95 34 ff ff
	ff		 mov	 edx, DWORD PTR _h$187179[ebp]
  00a48	52		 push	 edx
  00a49	8b 45 f8	 mov	 eax, DWORD PTR _hRgn$[ebp]
  00a4c	50		 push	 eax
  00a4d	8b 4d f8	 mov	 ecx, DWORD PTR _hRgn$[ebp]
  00a50	51		 push	 ecx
  00a51	ff 15 00 00 00
	00		 call	 DWORD PTR __imp__CombineRgn@16
  00a57	3b f4		 cmp	 esi, esp
  00a59	e8 00 00 00 00	 call	 __RTC_CheckEsp

; 292  :                                         DeleteObject(h);

  00a5e	8b f4		 mov	 esi, esp
  00a60	8b 95 34 ff ff
	ff		 mov	 edx, DWORD PTR _h$187179[ebp]
  00a66	52		 push	 edx
  00a67	ff 15 00 00 00
	00		 call	 DWORD PTR __imp__DeleteObject@4
  00a6d	3b f4		 cmp	 esi, esp
  00a6f	e8 00 00 00 00	 call	 __RTC_CheckEsp

; 293  :                                     }
; 294  :                                     else

  00a74	eb 09		 jmp	 SHORT $L187183
$L187182:

; 295  :                                         hRgn = h;

  00a76	8b 85 34 ff ff
	ff		 mov	 eax, DWORD PTR _h$187179[ebp]
  00a7c	89 45 f8	 mov	 DWORD PTR _hRgn$[ebp], eax
$L187183:

; 296  :                                     pData->rdh.nCount = 0;

  00a7f	8b 8d 5c ff ff
	ff		 mov	 ecx, DWORD PTR _pData$187122[ebp]
  00a85	c7 41 08 00 00
	00 00		 mov	 DWORD PTR [ecx+8], 0

; 297  :                                     SetRect(&pData->rdh.rcBound, MAXLONG, MAXLONG, 0, 0);

  00a8c	8b f4		 mov	 esi, esp
  00a8e	6a 00		 push	 0
  00a90	6a 00		 push	 0
  00a92	68 ff ff ff 7f	 push	 2147483647		; 7fffffffH
  00a97	68 ff ff ff 7f	 push	 2147483647		; 7fffffffH
  00a9c	8b 95 5c ff ff
	ff		 mov	 edx, DWORD PTR _pData$187122[ebp]
  00aa2	83 c2 10	 add	 edx, 16			; 00000010H
  00aa5	52		 push	 edx
  00aa6	ff 15 00 00 00
	00		 call	 DWORD PTR __imp__SetRect@20
  00aac	3b f4		 cmp	 esi, esp
  00aae	e8 00 00 00 00	 call	 __RTC_CheckEsp
$L187167:

; 298  :                                 }
; 299  :                             }
; 300  :                         }

  00ab3	e9 b8 fc ff ff	 jmp	 $L187151
$L187152:

; 301  : 
; 302  :                         // Go to next row (remember, the bitmap is inverted vertically)
; 303  :                         p32 -= bm32.bmWidthBytes;

  00ab8	8b 85 50 ff ff
	ff		 mov	 eax, DWORD PTR _p32$187143[ebp]
  00abe	2b 85 7c ff ff
	ff		 sub	 eax, DWORD PTR _bm32$187111[ebp+12]
  00ac4	89 85 50 ff ff
	ff		 mov	 DWORD PTR _p32$187143[ebp], eax

; 304  :                     }

  00aca	e9 77 fc ff ff	 jmp	 $L187147
$L187148:

; 305  : 
; 306  :                     // Create or extend the region with the remaining rectangles
; 307  :                     HRGN h = ExtCreateRegion(NULL, sizeof(RGNDATAHEADER) + (sizeof(RECT) * maxRects), pData);

  00acf	8b f4		 mov	 esi, esp
  00ad1	8b 8d 5c ff ff
	ff		 mov	 ecx, DWORD PTR _pData$187122[ebp]
  00ad7	51		 push	 ecx
  00ad8	8b 95 64 ff ff
	ff		 mov	 edx, DWORD PTR _maxRects$187118[ebp]
  00ade	c1 e2 04	 shl	 edx, 4
  00ae1	83 c2 20	 add	 edx, 32			; 00000020H
  00ae4	52		 push	 edx
  00ae5	6a 00		 push	 0
  00ae7	ff 15 00 00 00
	00		 call	 DWORD PTR __imp__ExtCreateRegion@12
  00aed	3b f4		 cmp	 esi, esp
  00aef	e8 00 00 00 00	 call	 __RTC_CheckEsp
  00af4	89 85 30 ff ff
	ff		 mov	 DWORD PTR _h$187184[ebp], eax

; 308  :                     if (hRgn)

  00afa	83 7d f8 00	 cmp	 DWORD PTR _hRgn$[ebp], 0
  00afe	74 38		 je	 SHORT $L187187

; 309  :                     {
; 310  :                         CombineRgn(hRgn, hRgn, h, RGN_OR);

  00b00	8b f4		 mov	 esi, esp
  00b02	6a 02		 push	 2
  00b04	8b 85 30 ff ff
	ff		 mov	 eax, DWORD PTR _h$187184[ebp]
  00b0a	50		 push	 eax
  00b0b	8b 4d f8	 mov	 ecx, DWORD PTR _hRgn$[ebp]
  00b0e	51		 push	 ecx
  00b0f	8b 55 f8	 mov	 edx, DWORD PTR _hRgn$[ebp]
  00b12	52		 push	 edx
  00b13	ff 15 00 00 00
	00		 call	 DWORD PTR __imp__CombineRgn@16
  00b19	3b f4		 cmp	 esi, esp
  00b1b	e8 00 00 00 00	 call	 __RTC_CheckEsp

; 311  :                         DeleteObject(h);

  00b20	8b f4		 mov	 esi, esp
  00b22	8b 85 30 ff ff
	ff		 mov	 eax, DWORD PTR _h$187184[ebp]
  00b28	50		 push	 eax
  00b29	ff 15 00 00 00
	00		 call	 DWORD PTR __imp__DeleteObject@4
  00b2f	3b f4		 cmp	 esi, esp
  00b31	e8 00 00 00 00	 call	 __RTC_CheckEsp

; 312  :                     }
; 313  :                     else

  00b36	eb 09		 jmp	 SHORT $L187188
$L187187:

; 314  :                         hRgn = h;

  00b38	8b 8d 30 ff ff
	ff		 mov	 ecx, DWORD PTR _h$187184[ebp]
  00b3e	89 4d f8	 mov	 DWORD PTR _hRgn$[ebp], ecx
$L187188:

; 315  : 
; 316  :                     // Clean up
; 317  :                     GlobalFree(hData);

  00b41	8b f4		 mov	 esi, esp
  00b43	8b 95 60 ff ff
	ff		 mov	 edx, DWORD PTR _hData$187119[ebp]
  00b49	52		 push	 edx
  00b4a	ff 15 00 00 00
	00		 call	 DWORD PTR __imp__GlobalFree@4
  00b50	3b f4		 cmp	 esi, esp
  00b52	e8 00 00 00 00	 call	 __RTC_CheckEsp

; 318  :                     SelectObject(hDC, holdBmp);

  00b57	8b f4		 mov	 esi, esp
  00b59	8b 85 68 ff ff
	ff		 mov	 eax, DWORD PTR _holdBmp$187115[ebp]
  00b5f	50		 push	 eax
  00b60	8b 4d 8c	 mov	 ecx, DWORD PTR _hDC$187109[ebp]
  00b63	51		 push	 ecx
  00b64	ff 15 00 00 00
	00		 call	 DWORD PTR __imp__SelectObject@8
  00b6a	3b f4		 cmp	 esi, esp
  00b6c	e8 00 00 00 00	 call	 __RTC_CheckEsp

; 319  :                     DeleteDC(hDC);

  00b71	8b f4		 mov	 esi, esp
  00b73	8b 55 8c	 mov	 edx, DWORD PTR _hDC$187109[ebp]
  00b76	52		 push	 edx
  00b77	ff 15 00 00 00
	00		 call	 DWORD PTR __imp__DeleteDC@4
  00b7d	3b f4		 cmp	 esi, esp
  00b7f	e8 00 00 00 00	 call	 __RTC_CheckEsp
$L187110:

; 320  :                 }
; 321  : 
; 322  :                 DeleteObject(SelectObject(hMemDC, holdBmp));

  00b84	8b f4		 mov	 esi, esp
  00b86	8b 45 90	 mov	 eax, DWORD PTR _holdBmp$187107[ebp]
  00b89	50		 push	 eax
  00b8a	8b 4d f4	 mov	 ecx, DWORD PTR _hMemDC$187098[ebp]
  00b8d	51		 push	 ecx
  00b8e	ff 15 00 00 00
	00		 call	 DWORD PTR __imp__SelectObject@8
  00b94	3b f4		 cmp	 esi, esp
  00b96	e8 00 00 00 00	 call	 __RTC_CheckEsp
  00b9b	8b f4		 mov	 esi, esp
  00b9d	50		 push	 eax
  00b9e	ff 15 00 00 00
	00		 call	 DWORD PTR __imp__DeleteObject@4
  00ba4	3b f4		 cmp	 esi, esp
  00ba6	e8 00 00 00 00	 call	 __RTC_CheckEsp
$L187106:

; 323  :             }
; 324  : 
; 325  :             DeleteDC(hMemDC);

  00bab	8b f4		 mov	 esi, esp
  00bad	8b 55 f4	 mov	 edx, DWORD PTR _hMemDC$187098[ebp]
  00bb0	52		 push	 edx
  00bb1	ff 15 00 00 00
	00		 call	 DWORD PTR __imp__DeleteDC@4
  00bb7	3b f4		 cmp	 esi, esp
  00bb9	e8 00 00 00 00	 call	 __RTC_CheckEsp
$L187097:

; 326  :         }    
; 327  :     }
; 328  : 
; 329  :     return hRgn;

  00bbe	8b 45 f8	 mov	 eax, DWORD PTR _hRgn$[ebp]

; 330  : 
; 331  : }

  00bc1	52		 push	 edx
  00bc2	8b cd		 mov	 ecx, ebp
  00bc4	50		 push	 eax
  00bc5	8d 15 00 00 00
	00		 lea	 edx, DWORD PTR $L188446
  00bcb	e8 00 00 00 00	 call	 @_RTC_CheckStackVars@8
  00bd0	58		 pop	 eax
  00bd1	5a		 pop	 edx
  00bd2	5f		 pop	 edi
  00bd3	5e		 pop	 esi
  00bd4	81 c4 dc 00 00
	00		 add	 esp, 220		; 000000dcH
  00bda	3b ec		 cmp	 ebp, esp
  00bdc	e8 00 00 00 00	 call	 __RTC_CheckEsp
  00be1	8b e5		 mov	 esp, ebp
  00be3	5d		 pop	 ebp
  00be4	c2 0c 00	 ret	 12			; 0000000cH
$L188446:
  00be7	04 00 00 00	 DD	 4
  00beb	00 00 00 00	 DD	 $L188445
$L188445:
  00bef	d8 ff ff ff	 DD	 -40			; ffffffd8H
  00bf3	18 00 00 00	 DD	 24			; 00000018H
  00bf7	00 00 00 00	 DD	 $L188441
  00bfb	a8 ff ff ff	 DD	 -88			; ffffffa8H
  00bff	28 00 00 00	 DD	 40			; 00000028H
  00c03	00 00 00 00	 DD	 $L188442
  00c07	9c ff ff ff	 DD	 -100			; ffffff9cH
  00c0b	04 00 00 00	 DD	 4
  00c0f	00 00 00 00	 DD	 $L188443
  00c13	70 ff ff ff	 DD	 -144			; ffffff70H
  00c17	18 00 00 00	 DD	 24			; 00000018H
  00c1b	00 00 00 00	 DD	 $L188444
$L188444:
  00c1f	62		 DB	 98			; 00000062H
  00c20	6d		 DB	 109			; 0000006dH
  00c21	33		 DB	 51			; 00000033H
  00c22	32		 DB	 50			; 00000032H
  00c23	00		 DB	 0
$L188443:
  00c24	70		 DB	 112			; 00000070H
  00c25	62		 DB	 98			; 00000062H
  00c26	69		 DB	 105			; 00000069H
  00c27	74		 DB	 116			; 00000074H
  00c28	73		 DB	 115			; 00000073H
  00c29	33		 DB	 51			; 00000033H
  00c2a	32		 DB	 50			; 00000032H
  00c2b	00		 DB	 0
$L188442:
  00c2c	52		 DB	 82			; 00000052H
  00c2d	47		 DB	 71			; 00000047H
  00c2e	42		 DB	 66			; 00000042H
  00c2f	33		 DB	 51			; 00000033H
  00c30	32		 DB	 50			; 00000032H
  00c31	42		 DB	 66			; 00000042H
  00c32	49		 DB	 73			; 00000049H
  00c33	54		 DB	 84			; 00000054H
  00c34	53		 DB	 83			; 00000053H
  00c35	42		 DB	 66			; 00000042H
  00c36	49		 DB	 73			; 00000049H
  00c37	54		 DB	 84			; 00000054H
  00c38	4d		 DB	 77			; 0000004dH
  00c39	41		 DB	 65			; 00000041H
  00c3a	50		 DB	 80			; 00000050H
  00c3b	49		 DB	 73			; 00000049H
  00c3c	4e		 DB	 78			; 0000004eH
  00c3d	46		 DB	 70			; 00000046H
  00c3e	4f		 DB	 79			; 0000004fH
  00c3f	00		 DB	 0
$L188441:
  00c40	62		 DB	 98			; 00000062H
  00c41	6d		 DB	 109			; 0000006dH
  00c42	00		 DB	 0
?CreateRgnFromBitmap@CGdiEx@@QAEPAUHRGN__@@PAUHBITMAP__@@KK@Z ENDP ; CGdiEx::CreateRgnFromBitmap
_TEXT	ENDS
PUBLIC	__real@3f800000
PUBLIC	?BrightColor@CGdiEx@@QAEKKM@Z			; CGdiEx::BrightColor
;	COMDAT __real@3f800000
CONST	SEGMENT
__real@3f800000 DD 03f800000r			; 1
; Function compile flags: /Odt /RTCsu
CONST	ENDS
_TEXT	SEGMENT
_lColor$ = -48						; size = 4
_lfSaturation$ = -36					; size = 4
_lfBrightness$ = -24					; size = 4
_lfHue$ = -12						; size = 4
_this$ = -4						; size = 4
_aSourceColor$ = 8					; size = 4
_afAmount$ = 12						; size = 4
?BrightColor@CGdiEx@@QAEKKM@Z PROC NEAR			; CGdiEx::BrightColor
; _this$ = ecx

; 334  : {

  00c50	55		 push	 ebp
  00c51	8b ec		 mov	 ebp, esp
  00c53	83 ec 34	 sub	 esp, 52			; 00000034H
  00c56	57		 push	 edi
  00c57	51		 push	 ecx
  00c58	8d 7d cc	 lea	 edi, DWORD PTR [ebp-52]
  00c5b	b9 0d 00 00 00	 mov	 ecx, 13			; 0000000dH
  00c60	b8 cc cc cc cc	 mov	 eax, -858993460		; ccccccccH
  00c65	f3 ab		 rep stosd
  00c67	59		 pop	 ecx
  00c68	89 4d fc	 mov	 DWORD PTR _this$[ebp], ecx

; 335  : 	FLOAT lfHue, lfBrightness, lfSaturation;
; 336  : 	COLORREF lColor = aSourceColor;

  00c6b	8b 45 08	 mov	 eax, DWORD PTR _aSourceColor$[ebp]
  00c6e	89 45 d0	 mov	 DWORD PTR _lColor$[ebp], eax

; 337  : 
; 338  : 	SetHBS(lColor, lfHue, lfBrightness, lfSaturation);

  00c71	8d 4d dc	 lea	 ecx, DWORD PTR _lfSaturation$[ebp]
  00c74	51		 push	 ecx
  00c75	8d 55 e8	 lea	 edx, DWORD PTR _lfBrightness$[ebp]
  00c78	52		 push	 edx
  00c79	8d 45 f4	 lea	 eax, DWORD PTR _lfHue$[ebp]
  00c7c	50		 push	 eax
  00c7d	8b 4d d0	 mov	 ecx, DWORD PTR _lColor$[ebp]
  00c80	51		 push	 ecx
  00c81	8b 4d fc	 mov	 ecx, DWORD PTR _this$[ebp]
  00c84	e8 00 00 00 00	 call	 ?SetHBS@CGdiEx@@QAEXKAAM00@Z ; CGdiEx::SetHBS

; 339  : 	if (afAmount > 0 && afAmount < 1)

  00c89	d9 45 0c	 fld	 DWORD PTR _afAmount$[ebp]
  00c8c	d8 1d 00 00 00
	00		 fcomp	 DWORD PTR __real@00000000
  00c92	df e0		 fnstsw	 ax
  00c94	f6 c4 41	 test	 ah, 65			; 00000041H
  00c97	75 2e		 jne	 SHORT $L187198
  00c99	d9 45 0c	 fld	 DWORD PTR _afAmount$[ebp]
  00c9c	d8 1d 00 00 00
	00		 fcomp	 DWORD PTR __real@3f800000
  00ca2	df e0		 fnstsw	 ax
  00ca4	f6 c4 05	 test	 ah, 5
  00ca7	7a 1e		 jp	 SHORT $L187198

; 340  : 	{
; 341  : 		lfBrightness = afAmount;

  00ca9	8b 55 0c	 mov	 edx, DWORD PTR _afAmount$[ebp]
  00cac	89 55 e8	 mov	 DWORD PTR _lfBrightness$[ebp], edx

; 342  : 		SetRGB(lColor, lfHue, lfBrightness, lfSaturation);

  00caf	8b 45 dc	 mov	 eax, DWORD PTR _lfSaturation$[ebp]
  00cb2	50		 push	 eax
  00cb3	8b 4d e8	 mov	 ecx, DWORD PTR _lfBrightness$[ebp]
  00cb6	51		 push	 ecx
  00cb7	8b 55 f4	 mov	 edx, DWORD PTR _lfHue$[ebp]
  00cba	52		 push	 edx
  00cbb	8d 45 d0	 lea	 eax, DWORD PTR _lColor$[ebp]
  00cbe	50		 push	 eax
  00cbf	8b 4d fc	 mov	 ecx, DWORD PTR _this$[ebp]
  00cc2	e8 00 00 00 00	 call	 ?SetRGB@CGdiEx@@QAEXAAKMMM@Z ; CGdiEx::SetRGB
$L187198:

; 343  : 	}
; 344  : 
; 345  : 	return lColor;

  00cc7	8b 45 d0	 mov	 eax, DWORD PTR _lColor$[ebp]

; 346  : }

  00cca	52		 push	 edx
  00ccb	8b cd		 mov	 ecx, ebp
  00ccd	50		 push	 eax
  00cce	8d 15 00 00 00
	00		 lea	 edx, DWORD PTR $L188457
  00cd4	e8 00 00 00 00	 call	 @_RTC_CheckStackVars@8
  00cd9	58		 pop	 eax
  00cda	5a		 pop	 edx
  00cdb	5f		 pop	 edi
  00cdc	83 c4 34	 add	 esp, 52			; 00000034H
  00cdf	3b ec		 cmp	 ebp, esp
  00ce1	e8 00 00 00 00	 call	 __RTC_CheckEsp
  00ce6	8b e5		 mov	 esp, ebp
  00ce8	5d		 pop	 ebp
  00ce9	c2 08 00	 ret	 8
$L188457:
  00cec	04 00 00 00	 DD	 4
  00cf0	00 00 00 00	 DD	 $L188456
$L188456:
  00cf4	f4 ff ff ff	 DD	 -12			; fffffff4H
  00cf8	04 00 00 00	 DD	 4
  00cfc	00 00 00 00	 DD	 $L188452
  00d00	e8 ff ff ff	 DD	 -24			; ffffffe8H
  00d04	04 00 00 00	 DD	 4
  00d08	00 00 00 00	 DD	 $L188453
  00d0c	dc ff ff ff	 DD	 -36			; ffffffdcH
  00d10	04 00 00 00	 DD	 4
  00d14	00 00 00 00	 DD	 $L188454
  00d18	d0 ff ff ff	 DD	 -48			; ffffffd0H
  00d1c	04 00 00 00	 DD	 4
  00d20	00 00 00 00	 DD	 $L188455
$L188455:
  00d24	6c		 DB	 108			; 0000006cH
  00d25	43		 DB	 67			; 00000043H
  00d26	6f		 DB	 111			; 0000006fH
  00d27	6c		 DB	 108			; 0000006cH
  00d28	6f		 DB	 111			; 0000006fH
  00d29	72		 DB	 114			; 00000072H
  00d2a	00		 DB	 0
$L188454:
  00d2b	6c		 DB	 108			; 0000006cH
  00d2c	66		 DB	 102			; 00000066H
  00d2d	53		 DB	 83			; 00000053H
  00d2e	61		 DB	 97			; 00000061H
  00d2f	74		 DB	 116			; 00000074H
  00d30	75		 DB	 117			; 00000075H
  00d31	72		 DB	 114			; 00000072H
  00d32	61		 DB	 97			; 00000061H
  00d33	74		 DB	 116			; 00000074H
  00d34	69		 DB	 105			; 00000069H
  00d35	6f		 DB	 111			; 0000006fH
  00d36	6e		 DB	 110			; 0000006eH
  00d37	00		 DB	 0
$L188453:
  00d38	6c		 DB	 108			; 0000006cH
  00d39	66		 DB	 102			; 00000066H
  00d3a	42		 DB	 66			; 00000042H
  00d3b	72		 DB	 114			; 00000072H
  00d3c	69		 DB	 105			; 00000069H
  00d3d	67		 DB	 103			; 00000067H
  00d3e	68		 DB	 104			; 00000068H
  00d3f	74		 DB	 116			; 00000074H
  00d40	6e		 DB	 110			; 0000006eH
  00d41	65		 DB	 101			; 00000065H
  00d42	73		 DB	 115			; 00000073H
  00d43	73		 DB	 115			; 00000073H
  00d44	00		 DB	 0
$L188452:
  00d45	6c		 DB	 108			; 0000006cH
  00d46	66		 DB	 102			; 00000066H
  00d47	48		 DB	 72			; 00000048H
  00d48	75		 DB	 117			; 00000075H
  00d49	65		 DB	 101			; 00000065H
  00d4a	00		 DB	 0
?BrightColor@CGdiEx@@QAEKKM@Z ENDP			; CGdiEx::BrightColor
_TEXT	ENDS
EXTRN	__imp__CreateCompatibleBitmap@12:NEAR
EXTRN	__imp__CreateSolidBrush@4:NEAR
EXTRN	__imp__FillRect@12:NEAR
; Function compile flags: /Odt /RTCsu
_TEXT	SEGMENT
tv387 = -160						; size = 4
tv381 = -156						; size = 8
tv358 = -148						; size = 4
tv352 = -144						; size = 8
tv331 = -136						; size = 8
tv329 = -128						; size = 4
tv324 = -124						; size = 8
tv322 = -116						; size = 4
tv319 = -112						; size = 8
tv317 = -104						; size = 4
tv83 = -100						; size = 4
tv81 = -96						; size = 4
tv77 = -92						; size = 4
_nCount$187328 = -88					; size = 4
_nCount$187314 = -84					; size = 4
_hobjOld$187310 = -80					; size = 4
_hbmpMem$187309 = -76					; size = 4
_hdcMem$187308 = -72					; size = 4
_fBStep$187304 = -68					; size = 4
_fGStep$187298 = -64					; size = 4
_fRStep$187294 = -60					; size = 4
_nB$187292 = -56					; size = 4
_nG$187289 = -52					; size = 4
_nR$187287 = -48					; size = 4
_hbrFill$187283 = -44					; size = 4
_rect$187282 = -36					; size = 16
_fStep$187281 = -16					; size = 4
_nHeight$187279 = -12					; size = 4
_nWidth$187278 = -8					; size = 4
_this$ = -4						; size = 4
_DC$ = 8						; size = 4
_aRect$ = 12						; size = 16
_aBeginColor$ = 28					; size = 4
_aEndColor$ = 32					; size = 4
_Orientation$ = 36					; size = 4
_abEclosion$ = 40					; size = 4
_anStep$ = 44						; size = 4
?FillRectangle@CGdiEx@@UAEXPAUHDC__@@UtagRECT@@KKW4ENUM_DrawOrientation@@HI@Z PROC NEAR ; CGdiEx::FillRectangle
; _this$ = ecx

; 420  : {

  00d50	55		 push	 ebp
  00d51	8b ec		 mov	 ebp, esp
  00d53	81 ec a0 00 00
	00		 sub	 esp, 160		; 000000a0H
  00d59	56		 push	 esi
  00d5a	57		 push	 edi
  00d5b	51		 push	 ecx
  00d5c	8d bd 60 ff ff
	ff		 lea	 edi, DWORD PTR [ebp-160]
  00d62	b9 28 00 00 00	 mov	 ecx, 40			; 00000028H
  00d67	b8 cc cc cc cc	 mov	 eax, -858993460		; ccccccccH
  00d6c	f3 ab		 rep stosd
  00d6e	59		 pop	 ecx
  00d6f	89 4d fc	 mov	 DWORD PTR _this$[ebp], ecx

; 421  : 	if(aBeginColor == aEndColor)

  00d72	8b 45 1c	 mov	 eax, DWORD PTR _aBeginColor$[ebp]
  00d75	3b 45 20	 cmp	 eax, DWORD PTR _aEndColor$[ebp]
  00d78	75 41		 jne	 SHORT $L187276

; 422  : 	{
; 423  : 		FillRectangle(DC, aRect, aBeginColor,  abEclosion);

  00d7a	8b f4		 mov	 esi, esp
  00d7c	8b 4d 28	 mov	 ecx, DWORD PTR _abEclosion$[ebp]
  00d7f	51		 push	 ecx
  00d80	8b 55 1c	 mov	 edx, DWORD PTR _aBeginColor$[ebp]
  00d83	52		 push	 edx
  00d84	83 ec 10	 sub	 esp, 16			; 00000010H
  00d87	8b c4		 mov	 eax, esp
  00d89	8b 4d 0c	 mov	 ecx, DWORD PTR _aRect$[ebp]
  00d8c	89 08		 mov	 DWORD PTR [eax], ecx
  00d8e	8b 55 10	 mov	 edx, DWORD PTR _aRect$[ebp+4]
  00d91	89 50 04	 mov	 DWORD PTR [eax+4], edx
  00d94	8b 4d 14	 mov	 ecx, DWORD PTR _aRect$[ebp+8]
  00d97	89 48 08	 mov	 DWORD PTR [eax+8], ecx
  00d9a	8b 55 18	 mov	 edx, DWORD PTR _aRect$[ebp+12]
  00d9d	89 50 0c	 mov	 DWORD PTR [eax+12], edx
  00da0	8b 45 08	 mov	 eax, DWORD PTR _DC$[ebp]
  00da3	50		 push	 eax
  00da4	8b 4d fc	 mov	 ecx, DWORD PTR _this$[ebp]
  00da7	8b 11		 mov	 edx, DWORD PTR [ecx]
  00da9	8b 4d fc	 mov	 ecx, DWORD PTR _this$[ebp]
  00dac	ff 52 0c	 call	 DWORD PTR [edx+12]
  00daf	3b f4		 cmp	 esi, esp
  00db1	e8 00 00 00 00	 call	 __RTC_CheckEsp

; 424  : 	}
; 425  : 	else

  00db6	e9 ec 03 00 00	 jmp	 $L187275
$L187276:

; 426  : 	{
; 427  : 		int nWidth  = aRect.right  - aRect.left;

  00dbb	8b 45 14	 mov	 eax, DWORD PTR _aRect$[ebp+8]
  00dbe	2b 45 0c	 sub	 eax, DWORD PTR _aRect$[ebp]
  00dc1	89 45 f8	 mov	 DWORD PTR _nWidth$187278[ebp], eax

; 428  : 		int nHeight = aRect.bottom - aRect.top;  

  00dc4	8b 4d 18	 mov	 ecx, DWORD PTR _aRect$[ebp+12]
  00dc7	2b 4d 10	 sub	 ecx, DWORD PTR _aRect$[ebp+4]
  00dca	89 4d f4	 mov	 DWORD PTR _nHeight$187279[ebp], ecx

; 429  : 		if(!(nWidth<=0|| nHeight<= 0))

  00dcd	83 7d f8 00	 cmp	 DWORD PTR _nWidth$187278[ebp], 0
  00dd1	0f 8e d0 03 00
	00		 jle	 $L187275
  00dd7	83 7d f4 00	 cmp	 DWORD PTR _nHeight$187279[ebp], 0
  00ddb	0f 8e c6 03 00
	00		 jle	 $L187275

; 430  : 		{
; 431  : 			float fStep;
; 432  : 			RECT rect;
; 433  : 			HBRUSH hbrFill;
; 434  : 			anStep = anStep == 1 ?  10:anStep;

  00de1	83 7d 2c 01	 cmp	 DWORD PTR _anStep$[ebp], 1
  00de5	75 09		 jne	 SHORT $L188459
  00de7	c7 45 a4 0a 00
	00 00		 mov	 DWORD PTR tv77[ebp], 10	; 0000000aH
  00dee	eb 06		 jmp	 SHORT $L188460
$L188459:
  00df0	8b 55 2c	 mov	 edx, DWORD PTR _anStep$[ebp]
  00df3	89 55 a4	 mov	 DWORD PTR tv77[ebp], edx
$L188460:
  00df6	8b 45 a4	 mov	 eax, DWORD PTR tv77[ebp]
  00df9	89 45 2c	 mov	 DWORD PTR _anStep$[ebp], eax

; 435  : 			if( -1 == anStep)

  00dfc	83 7d 2c ff	 cmp	 DWORD PTR _anStep$[ebp], -1
  00e00	75 3e		 jne	 SHORT $L187284

; 436  : 			{
; 437  : 				if(true == Orientation)

  00e02	83 7d 24 01	 cmp	 DWORD PTR _Orientation$[ebp], 1
  00e06	75 1d		 jne	 SHORT $L187285

; 438  : 				{
; 439  : 					anStep = nHeight > 10 ? 10 : nHeight;

  00e08	83 7d f4 0a	 cmp	 DWORD PTR _nHeight$187279[ebp], 10 ; 0000000aH
  00e0c	7e 09		 jle	 SHORT $L188461
  00e0e	c7 45 a0 0a 00
	00 00		 mov	 DWORD PTR tv81[ebp], 10	; 0000000aH
  00e15	eb 06		 jmp	 SHORT $L188462
$L188461:
  00e17	8b 4d f4	 mov	 ecx, DWORD PTR _nHeight$187279[ebp]
  00e1a	89 4d a0	 mov	 DWORD PTR tv81[ebp], ecx
$L188462:
  00e1d	8b 55 a0	 mov	 edx, DWORD PTR tv81[ebp]
  00e20	89 55 2c	 mov	 DWORD PTR _anStep$[ebp], edx

; 440  : 
; 441  : 				}
; 442  : 				else

  00e23	eb 1b		 jmp	 SHORT $L187284
$L187285:

; 443  : 				{
; 444  : 					anStep = nWidth >= 10 ? 10: nWidth;

  00e25	83 7d f8 0a	 cmp	 DWORD PTR _nWidth$187278[ebp], 10 ; 0000000aH
  00e29	7c 09		 jl	 SHORT $L188463
  00e2b	c7 45 9c 0a 00
	00 00		 mov	 DWORD PTR tv83[ebp], 10	; 0000000aH
  00e32	eb 06		 jmp	 SHORT $L188464
$L188463:
  00e34	8b 45 f8	 mov	 eax, DWORD PTR _nWidth$187278[ebp]
  00e37	89 45 9c	 mov	 DWORD PTR tv83[ebp], eax
$L188464:
  00e3a	8b 4d 9c	 mov	 ecx, DWORD PTR tv83[ebp]
  00e3d	89 4d 2c	 mov	 DWORD PTR _anStep$[ebp], ecx
$L187284:

; 445  : 				}
; 446  : 			}
; 447  : 
; 448  : 			int nR = GetRValue( aBeginColor );

  00e40	0f b6 55 1c	 movzx	 edx, BYTE PTR _aBeginColor$[ebp]
  00e44	89 55 d0	 mov	 DWORD PTR _nR$187287[ebp], edx

; 449  : 			int nG = GetGValue( aBeginColor );

  00e47	0f b7 45 1c	 movzx	 eax, WORD PTR _aBeginColor$[ebp]
  00e4b	c1 f8 08	 sar	 eax, 8
  00e4e	0f b6 c8	 movzx	 ecx, al
  00e51	89 4d cc	 mov	 DWORD PTR _nG$187289[ebp], ecx

; 450  : 			int nB = GetBValue( aBeginColor );

  00e54	8b 55 1c	 mov	 edx, DWORD PTR _aBeginColor$[ebp]
  00e57	c1 ea 10	 shr	 edx, 16			; 00000010H
  00e5a	0f b6 c2	 movzx	 eax, dl
  00e5d	89 45 c8	 mov	 DWORD PTR _nB$187292[ebp], eax

; 451  : 
; 452  : 			float fRStep = ( GetRValue( aEndColor ) - GetRValue( aBeginColor ) ) / (float)anStep;

  00e60	0f b6 4d 20	 movzx	 ecx, BYTE PTR _aEndColor$[ebp]
  00e64	0f b6 55 1c	 movzx	 edx, BYTE PTR _aBeginColor$[ebp]
  00e68	2b ca		 sub	 ecx, edx
  00e6a	89 4d 98	 mov	 DWORD PTR tv317[ebp], ecx
  00e6d	db 45 98	 fild	 DWORD PTR tv317[ebp]
  00e70	8b 45 2c	 mov	 eax, DWORD PTR _anStep$[ebp]
  00e73	89 45 90	 mov	 DWORD PTR tv319[ebp], eax
  00e76	c7 45 94 00 00
	00 00		 mov	 DWORD PTR tv319[ebp+4], 0
  00e7d	df 6d 90	 fild	 QWORD PTR tv319[ebp]
  00e80	de f9		 fdivp	 ST(1), ST(0)
  00e82	d9 5d c4	 fstp	 DWORD PTR _fRStep$187294[ebp]

; 453  : 			float fGStep = ( GetGValue( aEndColor ) - GetGValue( aBeginColor ) ) / (float)anStep;

  00e85	0f b7 4d 20	 movzx	 ecx, WORD PTR _aEndColor$[ebp]
  00e89	c1 f9 08	 sar	 ecx, 8
  00e8c	0f b6 d1	 movzx	 edx, cl
  00e8f	0f b7 45 1c	 movzx	 eax, WORD PTR _aBeginColor$[ebp]
  00e93	c1 f8 08	 sar	 eax, 8
  00e96	0f b6 c8	 movzx	 ecx, al
  00e99	2b d1		 sub	 edx, ecx
  00e9b	89 55 8c	 mov	 DWORD PTR tv322[ebp], edx
  00e9e	db 45 8c	 fild	 DWORD PTR tv322[ebp]
  00ea1	8b 55 2c	 mov	 edx, DWORD PTR _anStep$[ebp]
  00ea4	89 55 84	 mov	 DWORD PTR tv324[ebp], edx
  00ea7	c7 45 88 00 00
	00 00		 mov	 DWORD PTR tv324[ebp+4], 0
  00eae	df 6d 84	 fild	 QWORD PTR tv324[ebp]
  00eb1	de f9		 fdivp	 ST(1), ST(0)
  00eb3	d9 5d c0	 fstp	 DWORD PTR _fGStep$187298[ebp]

; 454  : 			float fBStep = ( GetBValue( aEndColor ) - GetBValue( aBeginColor ) ) / (float)anStep;

  00eb6	8b 45 20	 mov	 eax, DWORD PTR _aEndColor$[ebp]
  00eb9	c1 e8 10	 shr	 eax, 16			; 00000010H
  00ebc	0f b6 c8	 movzx	 ecx, al
  00ebf	8b 55 1c	 mov	 edx, DWORD PTR _aBeginColor$[ebp]
  00ec2	c1 ea 10	 shr	 edx, 16			; 00000010H
  00ec5	0f b6 c2	 movzx	 eax, dl
  00ec8	2b c8		 sub	 ecx, eax
  00eca	89 4d 80	 mov	 DWORD PTR tv329[ebp], ecx
  00ecd	db 45 80	 fild	 DWORD PTR tv329[ebp]
  00ed0	8b 4d 2c	 mov	 ecx, DWORD PTR _anStep$[ebp]
  00ed3	89 8d 78 ff ff
	ff		 mov	 DWORD PTR tv331[ebp], ecx
  00ed9	c7 85 7c ff ff
	ff 00 00 00 00	 mov	 DWORD PTR tv331[ebp+4], 0
  00ee3	df ad 78 ff ff
	ff		 fild	 QWORD PTR tv331[ebp]
  00ee9	de f9		 fdivp	 ST(1), ST(0)
  00eeb	d9 5d bc	 fstp	 DWORD PTR _fBStep$187304[ebp]

; 455  : 
; 456  : 			HDC hdcMem   = ::CreateCompatibleDC( DC );

  00eee	8b f4		 mov	 esi, esp
  00ef0	8b 55 08	 mov	 edx, DWORD PTR _DC$[ebp]
  00ef3	52		 push	 edx
  00ef4	ff 15 00 00 00
	00		 call	 DWORD PTR __imp__CreateCompatibleDC@4
  00efa	3b f4		 cmp	 esi, esp
  00efc	e8 00 00 00 00	 call	 __RTC_CheckEsp
  00f01	89 45 b8	 mov	 DWORD PTR _hdcMem$187308[ebp], eax

; 457  : 			HBITMAP hbmpMem  = ::CreateCompatibleBitmap( DC, nWidth, nHeight );

  00f04	8b f4		 mov	 esi, esp
  00f06	8b 45 f4	 mov	 eax, DWORD PTR _nHeight$187279[ebp]
  00f09	50		 push	 eax
  00f0a	8b 4d f8	 mov	 ecx, DWORD PTR _nWidth$187278[ebp]
  00f0d	51		 push	 ecx
  00f0e	8b 55 08	 mov	 edx, DWORD PTR _DC$[ebp]
  00f11	52		 push	 edx
  00f12	ff 15 00 00 00
	00		 call	 DWORD PTR __imp__CreateCompatibleBitmap@12
  00f18	3b f4		 cmp	 esi, esp
  00f1a	e8 00 00 00 00	 call	 __RTC_CheckEsp
  00f1f	89 45 b4	 mov	 DWORD PTR _hbmpMem$187309[ebp], eax

; 458  : 			HGDIOBJ hobjOld  = ::SelectObject( hdcMem, hbmpMem );

  00f22	8b f4		 mov	 esi, esp
  00f24	8b 45 b4	 mov	 eax, DWORD PTR _hbmpMem$187309[ebp]
  00f27	50		 push	 eax
  00f28	8b 4d b8	 mov	 ecx, DWORD PTR _hdcMem$187308[ebp]
  00f2b	51		 push	 ecx
  00f2c	ff 15 00 00 00
	00		 call	 DWORD PTR __imp__SelectObject@8
  00f32	3b f4		 cmp	 esi, esp
  00f34	e8 00 00 00 00	 call	 __RTC_CheckEsp
  00f39	89 45 b0	 mov	 DWORD PTR _hobjOld$187310[ebp], eax

; 459  : 
; 460  : 			rect.top = rect.left = 0;

  00f3c	c7 45 dc 00 00
	00 00		 mov	 DWORD PTR _rect$187282[ebp], 0
  00f43	8b 55 dc	 mov	 edx, DWORD PTR _rect$187282[ebp]
  00f46	89 55 e0	 mov	 DWORD PTR _rect$187282[ebp+4], edx

; 461  : 
; 462  : 			if ( Orientation )

  00f49	83 7d 24 00	 cmp	 DWORD PTR _Orientation$[ebp], 0
  00f4d	0f 84 f6 00 00
	00		 je	 $L187311

; 463  : 			{
; 464  : 				rect.right= nWidth;

  00f53	8b 45 f8	 mov	 eax, DWORD PTR _nWidth$187278[ebp]
  00f56	89 45 e4	 mov	 DWORD PTR _rect$187282[ebp+8], eax

; 465  : 				fStep= (float)nHeight / (float)anStep;

  00f59	db 45 f4	 fild	 DWORD PTR _nHeight$187279[ebp]
  00f5c	8b 4d 2c	 mov	 ecx, DWORD PTR _anStep$[ebp]
  00f5f	89 8d 70 ff ff
	ff		 mov	 DWORD PTR tv352[ebp], ecx
  00f65	c7 85 74 ff ff
	ff 00 00 00 00	 mov	 DWORD PTR tv352[ebp+4], 0
  00f6f	df ad 70 ff ff
	ff		 fild	 QWORD PTR tv352[ebp]
  00f75	de f9		 fdivp	 ST(1), ST(0)
  00f77	d9 5d f0	 fstp	 DWORD PTR _fStep$187281[ebp]

; 466  : 
; 467  : 				for ( int nCount=0; nCount<=anStep; nCount++ )

  00f7a	c7 45 ac 00 00
	00 00		 mov	 DWORD PTR _nCount$187314[ebp], 0
  00f81	eb 09		 jmp	 SHORT $L187315
$L187316:
  00f83	8b 55 ac	 mov	 edx, DWORD PTR _nCount$187314[ebp]
  00f86	83 c2 01	 add	 edx, 1
  00f89	89 55 ac	 mov	 DWORD PTR _nCount$187314[ebp], edx
$L187315:
  00f8c	8b 45 ac	 mov	 eax, DWORD PTR _nCount$187314[ebp]
  00f8f	3b 45 2c	 cmp	 eax, DWORD PTR _anStep$[ebp]
  00f92	0f 87 ac 00 00
	00		 ja	 $L187317

; 468  : 				{
; 469  : 					rect.bottom = (int)( (nCount+1) * fStep );

  00f98	8b 4d ac	 mov	 ecx, DWORD PTR _nCount$187314[ebp]
  00f9b	83 c1 01	 add	 ecx, 1
  00f9e	89 8d 6c ff ff
	ff		 mov	 DWORD PTR tv358[ebp], ecx
  00fa4	db 85 6c ff ff
	ff		 fild	 DWORD PTR tv358[ebp]
  00faa	d8 4d f0	 fmul	 DWORD PTR _fStep$187281[ebp]
  00fad	e8 00 00 00 00	 call	 __ftol2
  00fb2	89 45 e8	 mov	 DWORD PTR _rect$187282[ebp+12], eax

; 470  : 
; 471  : 					hbrFill = ::CreateSolidBrush( RGB( nR+fRStep*nCount, nG+fGStep*nCount, nB+fBStep*nCount ) );

  00fb5	db 45 d0	 fild	 DWORD PTR _nR$187287[ebp]
  00fb8	db 45 ac	 fild	 DWORD PTR _nCount$187314[ebp]
  00fbb	d8 4d c4	 fmul	 DWORD PTR _fRStep$187294[ebp]
  00fbe	de c1		 faddp	 ST(1), ST(0)
  00fc0	e8 00 00 00 00	 call	 __ftol2
  00fc5	0f b6 f0	 movzx	 esi, al
  00fc8	db 45 cc	 fild	 DWORD PTR _nG$187289[ebp]
  00fcb	db 45 ac	 fild	 DWORD PTR _nCount$187314[ebp]
  00fce	d8 4d c0	 fmul	 DWORD PTR _fGStep$187298[ebp]
  00fd1	de c1		 faddp	 ST(1), ST(0)
  00fd3	e8 00 00 00 00	 call	 __ftol2
  00fd8	0f b6 d0	 movzx	 edx, al
  00fdb	c1 e2 08	 shl	 edx, 8
  00fde	0b f2		 or	 esi, edx
  00fe0	db 45 c8	 fild	 DWORD PTR _nB$187292[ebp]
  00fe3	db 45 ac	 fild	 DWORD PTR _nCount$187314[ebp]
  00fe6	d8 4d bc	 fmul	 DWORD PTR _fBStep$187304[ebp]
  00fe9	de c1		 faddp	 ST(1), ST(0)
  00feb	e8 00 00 00 00	 call	 __ftol2
  00ff0	0f b6 c0	 movzx	 eax, al
  00ff3	c1 e0 10	 shl	 eax, 16			; 00000010H
  00ff6	0b f0		 or	 esi, eax
  00ff8	8b fc		 mov	 edi, esp
  00ffa	56		 push	 esi
  00ffb	ff 15 00 00 00
	00		 call	 DWORD PTR __imp__CreateSolidBrush@4
  01001	3b fc		 cmp	 edi, esp
  01003	e8 00 00 00 00	 call	 __RTC_CheckEsp
  01008	89 45 d4	 mov	 DWORD PTR _hbrFill$187283[ebp], eax

; 472  : 					::FillRect( hdcMem, &rect, hbrFill );

  0100b	8b f4		 mov	 esi, esp
  0100d	8b 4d d4	 mov	 ecx, DWORD PTR _hbrFill$187283[ebp]
  01010	51		 push	 ecx
  01011	8d 55 dc	 lea	 edx, DWORD PTR _rect$187282[ebp]
  01014	52		 push	 edx
  01015	8b 45 b8	 mov	 eax, DWORD PTR _hdcMem$187308[ebp]
  01018	50		 push	 eax
  01019	ff 15 00 00 00
	00		 call	 DWORD PTR __imp__FillRect@12
  0101f	3b f4		 cmp	 esi, esp
  01021	e8 00 00 00 00	 call	 __RTC_CheckEsp

; 473  : 					::DeleteObject( hbrFill );

  01026	8b f4		 mov	 esi, esp
  01028	8b 4d d4	 mov	 ecx, DWORD PTR _hbrFill$187283[ebp]
  0102b	51		 push	 ecx
  0102c	ff 15 00 00 00
	00		 call	 DWORD PTR __imp__DeleteObject@4
  01032	3b f4		 cmp	 esi, esp
  01034	e8 00 00 00 00	 call	 __RTC_CheckEsp

; 474  : 
; 475  : 					rect.top = rect.bottom;

  01039	8b 55 e8	 mov	 edx, DWORD PTR _rect$187282[ebp+12]
  0103c	89 55 e0	 mov	 DWORD PTR _rect$187282[ebp+4], edx

; 476  : 				}

  0103f	e9 3f ff ff ff	 jmp	 $L187316
$L187317:

; 477  : 			}
; 478  : 			else

  01044	e9 f1 00 00 00	 jmp	 $L187325
$L187311:

; 479  : 			{
; 480  : 				rect.bottom = nHeight;

  01049	8b 45 f4	 mov	 eax, DWORD PTR _nHeight$187279[ebp]
  0104c	89 45 e8	 mov	 DWORD PTR _rect$187282[ebp+12], eax

; 481  : 				fStep= (float)nWidth / (float)anStep;

  0104f	db 45 f8	 fild	 DWORD PTR _nWidth$187278[ebp]
  01052	8b 4d 2c	 mov	 ecx, DWORD PTR _anStep$[ebp]
  01055	89 8d 64 ff ff
	ff		 mov	 DWORD PTR tv381[ebp], ecx
  0105b	c7 85 68 ff ff
	ff 00 00 00 00	 mov	 DWORD PTR tv381[ebp+4], 0
  01065	df ad 64 ff ff
	ff		 fild	 QWORD PTR tv381[ebp]
  0106b	de f9		 fdivp	 ST(1), ST(0)
  0106d	d9 5d f0	 fstp	 DWORD PTR _fStep$187281[ebp]

; 482  : 
; 483  : 				for ( int nCount=0; nCount<=anStep; nCount++ )

  01070	c7 45 a8 00 00
	00 00		 mov	 DWORD PTR _nCount$187328[ebp], 0
  01077	eb 09		 jmp	 SHORT $L187329
$L187330:
  01079	8b 55 a8	 mov	 edx, DWORD PTR _nCount$187328[ebp]
  0107c	83 c2 01	 add	 edx, 1
  0107f	89 55 a8	 mov	 DWORD PTR _nCount$187328[ebp], edx
$L187329:
  01082	8b 45 a8	 mov	 eax, DWORD PTR _nCount$187328[ebp]
  01085	3b 45 2c	 cmp	 eax, DWORD PTR _anStep$[ebp]
  01088	0f 87 ac 00 00
	00		 ja	 $L187325

; 484  : 				{
; 485  : 					rect.right= (int)( (nCount+1) * fStep );

  0108e	8b 4d a8	 mov	 ecx, DWORD PTR _nCount$187328[ebp]
  01091	83 c1 01	 add	 ecx, 1
  01094	89 8d 60 ff ff
	ff		 mov	 DWORD PTR tv387[ebp], ecx
  0109a	db 85 60 ff ff
	ff		 fild	 DWORD PTR tv387[ebp]
  010a0	d8 4d f0	 fmul	 DWORD PTR _fStep$187281[ebp]
  010a3	e8 00 00 00 00	 call	 __ftol2
  010a8	89 45 e4	 mov	 DWORD PTR _rect$187282[ebp+8], eax

; 486  : 
; 487  : 					hbrFill = ::CreateSolidBrush( RGB( nR+fRStep*nCount, nG+fGStep*nCount, nB+fBStep*nCount ) );

  010ab	db 45 d0	 fild	 DWORD PTR _nR$187287[ebp]
  010ae	db 45 a8	 fild	 DWORD PTR _nCount$187328[ebp]
  010b1	d8 4d c4	 fmul	 DWORD PTR _fRStep$187294[ebp]
  010b4	de c1		 faddp	 ST(1), ST(0)
  010b6	e8 00 00 00 00	 call	 __ftol2
  010bb	0f b6 f0	 movzx	 esi, al
  010be	db 45 cc	 fild	 DWORD PTR _nG$187289[ebp]
  010c1	db 45 a8	 fild	 DWORD PTR _nCount$187328[ebp]
  010c4	d8 4d c0	 fmul	 DWORD PTR _fGStep$187298[ebp]
  010c7	de c1		 faddp	 ST(1), ST(0)
  010c9	e8 00 00 00 00	 call	 __ftol2
  010ce	0f b6 d0	 movzx	 edx, al
  010d1	c1 e2 08	 shl	 edx, 8
  010d4	0b f2		 or	 esi, edx
  010d6	db 45 c8	 fild	 DWORD PTR _nB$187292[ebp]
  010d9	db 45 a8	 fild	 DWORD PTR _nCount$187328[ebp]
  010dc	d8 4d bc	 fmul	 DWORD PTR _fBStep$187304[ebp]
  010df	de c1		 faddp	 ST(1), ST(0)
  010e1	e8 00 00 00 00	 call	 __ftol2
  010e6	0f b6 c0	 movzx	 eax, al
  010e9	c1 e0 10	 shl	 eax, 16			; 00000010H
  010ec	0b f0		 or	 esi, eax
  010ee	8b fc		 mov	 edi, esp
  010f0	56		 push	 esi
  010f1	ff 15 00 00 00
	00		 call	 DWORD PTR __imp__CreateSolidBrush@4
  010f7	3b fc		 cmp	 edi, esp
  010f9	e8 00 00 00 00	 call	 __RTC_CheckEsp
  010fe	89 45 d4	 mov	 DWORD PTR _hbrFill$187283[ebp], eax

; 488  : 					::FillRect( hdcMem, &rect, hbrFill );

  01101	8b f4		 mov	 esi, esp
  01103	8b 4d d4	 mov	 ecx, DWORD PTR _hbrFill$187283[ebp]
  01106	51		 push	 ecx
  01107	8d 55 dc	 lea	 edx, DWORD PTR _rect$187282[ebp]
  0110a	52		 push	 edx
  0110b	8b 45 b8	 mov	 eax, DWORD PTR _hdcMem$187308[ebp]
  0110e	50		 push	 eax
  0110f	ff 15 00 00 00
	00		 call	 DWORD PTR __imp__FillRect@12
  01115	3b f4		 cmp	 esi, esp
  01117	e8 00 00 00 00	 call	 __RTC_CheckEsp

; 489  : 					::DeleteObject( hbrFill );

  0111c	8b f4		 mov	 esi, esp
  0111e	8b 4d d4	 mov	 ecx, DWORD PTR _hbrFill$187283[ebp]
  01121	51		 push	 ecx
  01122	ff 15 00 00 00
	00		 call	 DWORD PTR __imp__DeleteObject@4
  01128	3b f4		 cmp	 esi, esp
  0112a	e8 00 00 00 00	 call	 __RTC_CheckEsp

; 490  : 
; 491  : 					rect.left = rect.right;

  0112f	8b 55 e4	 mov	 edx, DWORD PTR _rect$187282[ebp+8]
  01132	89 55 dc	 mov	 DWORD PTR _rect$187282[ebp], edx

; 492  : 				}

  01135	e9 3f ff ff ff	 jmp	 $L187330
$L187325:

; 493  : 			}
; 494  : 
; 495  : 			::BitBlt( DC, aRect.left, aRect.top, nWidth, nHeight, hdcMem, 0, 0, SRCCOPY );

  0113a	8b f4		 mov	 esi, esp
  0113c	68 20 00 cc 00	 push	 13369376		; 00cc0020H
  01141	6a 00		 push	 0
  01143	6a 00		 push	 0
  01145	8b 45 b8	 mov	 eax, DWORD PTR _hdcMem$187308[ebp]
  01148	50		 push	 eax
  01149	8b 4d f4	 mov	 ecx, DWORD PTR _nHeight$187279[ebp]
  0114c	51		 push	 ecx
  0114d	8b 55 f8	 mov	 edx, DWORD PTR _nWidth$187278[ebp]
  01150	52		 push	 edx
  01151	8b 45 10	 mov	 eax, DWORD PTR _aRect$[ebp+4]
  01154	50		 push	 eax
  01155	8b 4d 0c	 mov	 ecx, DWORD PTR _aRect$[ebp]
  01158	51		 push	 ecx
  01159	8b 55 08	 mov	 edx, DWORD PTR _DC$[ebp]
  0115c	52		 push	 edx
  0115d	ff 15 00 00 00
	00		 call	 DWORD PTR __imp__BitBlt@36
  01163	3b f4		 cmp	 esi, esp
  01165	e8 00 00 00 00	 call	 __RTC_CheckEsp

; 496  : 
; 497  : 			::SelectObject( hdcMem, hobjOld );

  0116a	8b f4		 mov	 esi, esp
  0116c	8b 45 b0	 mov	 eax, DWORD PTR _hobjOld$187310[ebp]
  0116f	50		 push	 eax
  01170	8b 4d b8	 mov	 ecx, DWORD PTR _hdcMem$187308[ebp]
  01173	51		 push	 ecx
  01174	ff 15 00 00 00
	00		 call	 DWORD PTR __imp__SelectObject@8
  0117a	3b f4		 cmp	 esi, esp
  0117c	e8 00 00 00 00	 call	 __RTC_CheckEsp

; 498  : 			::DeleteObject( hbmpMem );

  01181	8b f4		 mov	 esi, esp
  01183	8b 55 b4	 mov	 edx, DWORD PTR _hbmpMem$187309[ebp]
  01186	52		 push	 edx
  01187	ff 15 00 00 00
	00		 call	 DWORD PTR __imp__DeleteObject@4
  0118d	3b f4		 cmp	 esi, esp
  0118f	e8 00 00 00 00	 call	 __RTC_CheckEsp

; 499  : 			::DeleteDC( hdcMem );

  01194	8b f4		 mov	 esi, esp
  01196	8b 45 b8	 mov	 eax, DWORD PTR _hdcMem$187308[ebp]
  01199	50		 push	 eax
  0119a	ff 15 00 00 00
	00		 call	 DWORD PTR __imp__DeleteDC@4
  011a0	3b f4		 cmp	 esi, esp
  011a2	e8 00 00 00 00	 call	 __RTC_CheckEsp
$L187275:

; 500  : 		}
; 501  : 	}
; 502  : }

  011a7	52		 push	 edx
  011a8	8b cd		 mov	 ecx, ebp
  011aa	50		 push	 eax
  011ab	8d 15 00 00 00
	00		 lea	 edx, DWORD PTR $L188467
  011b1	e8 00 00 00 00	 call	 @_RTC_CheckStackVars@8
  011b6	58		 pop	 eax
  011b7	5a		 pop	 edx
  011b8	5f		 pop	 edi
  011b9	5e		 pop	 esi
  011ba	81 c4 a0 00 00
	00		 add	 esp, 160		; 000000a0H
  011c0	3b ec		 cmp	 ebp, esp
  011c2	e8 00 00 00 00	 call	 __RTC_CheckEsp
  011c7	8b e5		 mov	 esp, ebp
  011c9	5d		 pop	 ebp
  011ca	c2 28 00	 ret	 40			; 00000028H
$L188467:
  011cd	01 00 00 00	 DD	 1
  011d1	00 00 00 00	 DD	 $L188466
$L188466:
  011d5	dc ff ff ff	 DD	 -36			; ffffffdcH
  011d9	10 00 00 00	 DD	 16			; 00000010H
  011dd	00 00 00 00	 DD	 $L188465
$L188465:
  011e1	72		 DB	 114			; 00000072H
  011e2	65		 DB	 101			; 00000065H
  011e3	63		 DB	 99			; 00000063H
  011e4	74		 DB	 116			; 00000074H
  011e5	00		 DB	 0
?FillRectangle@CGdiEx@@UAEXPAUHDC__@@UtagRECT@@KKW4ENUM_DrawOrientation@@HI@Z ENDP ; CGdiEx::FillRectangle
_TEXT	ENDS
PUBLIC	__real@406e000000000000
PUBLIC	__real@3ff0000000000000
PUBLIC	__real@3fe0000000000000
PUBLIC	?RGBtoHSL@CGdiEx@@QAEXKPAN00@Z			; CGdiEx::RGBtoHSL
PUBLIC	?HLStoRGB@CGdiEx@@QAEKABN00@Z			; CGdiEx::HLStoRGB
;	COMDAT __real@406e000000000000
CONST	SEGMENT
__real@406e000000000000 DQ 0406e000000000000r	; 240
CONST	ENDS
;	COMDAT __real@3ff0000000000000
CONST	SEGMENT
__real@3ff0000000000000 DQ 03ff0000000000000r	; 1
CONST	ENDS
;	COMDAT __real@3fe0000000000000
CONST	SEGMENT
__real@3fe0000000000000 DQ 03fe0000000000000r	; 0.5
; Function compile flags: /Odt /RTCsu
CONST	ENDS
_TEXT	SEGMENT
tv366 = -280						; size = 4
tv360 = -276						; size = 8
tv336 = -268						; size = 4
tv330 = -264						; size = 8
tv307 = -256						; size = 8
tv83 = -248						; size = 4
tv81 = -244						; size = 4
tv77 = -240						; size = 4
$T188480 = -236						; size = 8
$T188479 = -228						; size = 8
$T188478 = -220						; size = 8
$T188477 = -212						; size = 8
$T188476 = -204						; size = 8
$T188475 = -196						; size = 8
_nCount$187413 = -188					; size = 4
_nCount$187401 = -184					; size = 4
_hobjOld$187397 = -180					; size = 4
_hbmpMem$187396 = -176					; size = 4
_hdcMem$187395 = -172					; size = 4
_fHStep$187393 = -168					; size = 4
_lL2$187382 = -160					; size = 8
_lS2$187381 = -144					; size = 8
_lH2$187380 = -128					; size = 8
_lB2$187379 = -116					; size = 4
_lG2$187378 = -112					; size = 4
_lR2$187377 = -108					; size = 4
_lL1$187366 = -100					; size = 8
_lS1$187365 = -84					; size = 8
_lH1$187364 = -68					; size = 8
_lB1$187363 = -56					; size = 4
_lG1$187362 = -52					; size = 4
_lR1$187361 = -48					; size = 4
_hbrFill$187357 = -44					; size = 4
_rect$187356 = -36					; size = 16
_fStep$187355 = -16					; size = 4
_nHeight$187353 = -12					; size = 4
_nWidth$187352 = -8					; size = 4
_this$ = -4						; size = 4
_DC$ = 8						; size = 4
_aRect$ = 12						; size = 16
_aBeginColor$ = 28					; size = 4
_aEndColor$ = 32					; size = 4
_Orientation$ = 36					; size = 4
_abEclosion$ = 40					; size = 4
_anStep$ = 44						; size = 4
?FillRectangleHue@CGdiEx@@UAEXPAUHDC__@@UtagRECT@@KKW4ENUM_DrawOrientation@@HI@Z PROC NEAR ; CGdiEx::FillRectangleHue
; _this$ = ecx

; 504  : {

  011f0	55		 push	 ebp
  011f1	8b ec		 mov	 ebp, esp
  011f3	81 ec 18 01 00
	00		 sub	 esp, 280		; 00000118H
  011f9	56		 push	 esi
  011fa	57		 push	 edi
  011fb	51		 push	 ecx
  011fc	8d bd e8 fe ff
	ff		 lea	 edi, DWORD PTR [ebp-280]
  01202	b9 46 00 00 00	 mov	 ecx, 70			; 00000046H
  01207	b8 cc cc cc cc	 mov	 eax, -858993460		; ccccccccH
  0120c	f3 ab		 rep stosd
  0120e	59		 pop	 ecx
  0120f	89 4d fc	 mov	 DWORD PTR _this$[ebp], ecx

; 505  : 	if(aBeginColor == aEndColor)

  01212	8b 45 1c	 mov	 eax, DWORD PTR _aBeginColor$[ebp]
  01215	3b 45 20	 cmp	 eax, DWORD PTR _aEndColor$[ebp]
  01218	75 41		 jne	 SHORT $L187350

; 506  : 	{
; 507  : 		FillRectangle(DC, aRect, aBeginColor,  abEclosion);

  0121a	8b f4		 mov	 esi, esp
  0121c	8b 4d 28	 mov	 ecx, DWORD PTR _abEclosion$[ebp]
  0121f	51		 push	 ecx
  01220	8b 55 1c	 mov	 edx, DWORD PTR _aBeginColor$[ebp]
  01223	52		 push	 edx
  01224	83 ec 10	 sub	 esp, 16			; 00000010H
  01227	8b c4		 mov	 eax, esp
  01229	8b 4d 0c	 mov	 ecx, DWORD PTR _aRect$[ebp]
  0122c	89 08		 mov	 DWORD PTR [eax], ecx
  0122e	8b 55 10	 mov	 edx, DWORD PTR _aRect$[ebp+4]
  01231	89 50 04	 mov	 DWORD PTR [eax+4], edx
  01234	8b 4d 14	 mov	 ecx, DWORD PTR _aRect$[ebp+8]
  01237	89 48 08	 mov	 DWORD PTR [eax+8], ecx
  0123a	8b 55 18	 mov	 edx, DWORD PTR _aRect$[ebp+12]
  0123d	89 50 0c	 mov	 DWORD PTR [eax+12], edx
  01240	8b 45 08	 mov	 eax, DWORD PTR _DC$[ebp]
  01243	50		 push	 eax
  01244	8b 4d fc	 mov	 ecx, DWORD PTR _this$[ebp]
  01247	8b 11		 mov	 edx, DWORD PTR [ecx]
  01249	8b 4d fc	 mov	 ecx, DWORD PTR _this$[ebp]
  0124c	ff 52 0c	 call	 DWORD PTR [edx+12]
  0124f	3b f4		 cmp	 esi, esp
  01251	e8 00 00 00 00	 call	 __RTC_CheckEsp

; 508  : 	}
; 509  : 	else

  01256	e9 7e 04 00 00	 jmp	 $L187349
$L187350:

; 510  : 	{
; 511  : 		int nWidth  = aRect.right  - aRect.left;

  0125b	8b 45 14	 mov	 eax, DWORD PTR _aRect$[ebp+8]
  0125e	2b 45 0c	 sub	 eax, DWORD PTR _aRect$[ebp]
  01261	89 45 f8	 mov	 DWORD PTR _nWidth$187352[ebp], eax

; 512  : 		int nHeight = aRect.bottom - aRect.top;  

  01264	8b 4d 18	 mov	 ecx, DWORD PTR _aRect$[ebp+12]
  01267	2b 4d 10	 sub	 ecx, DWORD PTR _aRect$[ebp+4]
  0126a	89 4d f4	 mov	 DWORD PTR _nHeight$187353[ebp], ecx

; 513  : 		if(!(nWidth<=0|| nHeight<= 0))

  0126d	83 7d f8 00	 cmp	 DWORD PTR _nWidth$187352[ebp], 0
  01271	0f 8e 62 04 00
	00		 jle	 $L187349
  01277	83 7d f4 00	 cmp	 DWORD PTR _nHeight$187353[ebp], 0
  0127b	0f 8e 58 04 00
	00		 jle	 $L187349

; 514  : 		{
; 515  : 			float fStep;
; 516  : 			RECT rect;
; 517  : 			HBRUSH hbrFill;
; 518  : 			anStep = anStep == 1 ?  10:anStep;

  01281	83 7d 2c 01	 cmp	 DWORD PTR _anStep$[ebp], 1
  01285	75 0c		 jne	 SHORT $L188469
  01287	c7 85 10 ff ff
	ff 0a 00 00 00	 mov	 DWORD PTR tv77[ebp], 10	; 0000000aH
  01291	eb 09		 jmp	 SHORT $L188470
$L188469:
  01293	8b 55 2c	 mov	 edx, DWORD PTR _anStep$[ebp]
  01296	89 95 10 ff ff
	ff		 mov	 DWORD PTR tv77[ebp], edx
$L188470:
  0129c	8b 85 10 ff ff
	ff		 mov	 eax, DWORD PTR tv77[ebp]
  012a2	89 45 2c	 mov	 DWORD PTR _anStep$[ebp], eax

; 519  : 			if( -1 == anStep)

  012a5	83 7d 2c ff	 cmp	 DWORD PTR _anStep$[ebp], -1
  012a9	75 50		 jne	 SHORT $L187358

; 520  : 			{
; 521  : 				if(true == Orientation)

  012ab	83 7d 24 01	 cmp	 DWORD PTR _Orientation$[ebp], 1
  012af	75 26		 jne	 SHORT $L187359

; 522  : 				{
; 523  : 					anStep = nHeight > 10 ? 10 : nHeight;

  012b1	83 7d f4 0a	 cmp	 DWORD PTR _nHeight$187353[ebp], 10 ; 0000000aH
  012b5	7e 0c		 jle	 SHORT $L188471
  012b7	c7 85 0c ff ff
	ff 0a 00 00 00	 mov	 DWORD PTR tv81[ebp], 10	; 0000000aH
  012c1	eb 09		 jmp	 SHORT $L188472
$L188471:
  012c3	8b 4d f4	 mov	 ecx, DWORD PTR _nHeight$187353[ebp]
  012c6	89 8d 0c ff ff
	ff		 mov	 DWORD PTR tv81[ebp], ecx
$L188472:
  012cc	8b 95 0c ff ff
	ff		 mov	 edx, DWORD PTR tv81[ebp]
  012d2	89 55 2c	 mov	 DWORD PTR _anStep$[ebp], edx

; 524  : 
; 525  : 				}
; 526  : 				else

  012d5	eb 24		 jmp	 SHORT $L187358
$L187359:

; 527  : 				{
; 528  : 					anStep = nWidth >= 10 ? 10: nWidth;

  012d7	83 7d f8 0a	 cmp	 DWORD PTR _nWidth$187352[ebp], 10 ; 0000000aH
  012db	7c 0c		 jl	 SHORT $L188473
  012dd	c7 85 08 ff ff
	ff 0a 00 00 00	 mov	 DWORD PTR tv83[ebp], 10	; 0000000aH
  012e7	eb 09		 jmp	 SHORT $L188474
$L188473:
  012e9	8b 45 f8	 mov	 eax, DWORD PTR _nWidth$187352[ebp]
  012ec	89 85 08 ff ff
	ff		 mov	 DWORD PTR tv83[ebp], eax
$L188474:
  012f2	8b 8d 08 ff ff
	ff		 mov	 ecx, DWORD PTR tv83[ebp]
  012f8	89 4d 2c	 mov	 DWORD PTR _anStep$[ebp], ecx
$L187358:

; 529  : 				}
; 530  : 			}
; 531  : 
; 532  : 			int    lR1,lG1,lB1;
; 533  : 			double lH1,lS1,lL1;
; 534  : 			lR1 = GetRValue( aBeginColor );

  012fb	0f b6 55 1c	 movzx	 edx, BYTE PTR _aBeginColor$[ebp]
  012ff	89 55 d0	 mov	 DWORD PTR _lR1$187361[ebp], edx

; 535  : 			lG1 = GetGValue( aBeginColor );

  01302	0f b7 45 1c	 movzx	 eax, WORD PTR _aBeginColor$[ebp]
  01306	c1 f8 08	 sar	 eax, 8
  01309	0f b6 c8	 movzx	 ecx, al
  0130c	89 4d cc	 mov	 DWORD PTR _lG1$187362[ebp], ecx

; 536  : 			lB1 = GetBValue( aBeginColor );

  0130f	8b 55 1c	 mov	 edx, DWORD PTR _aBeginColor$[ebp]
  01312	c1 ea 10	 shr	 edx, 16			; 00000010H
  01315	0f b6 c2	 movzx	 eax, dl
  01318	89 45 c8	 mov	 DWORD PTR _lB1$187363[ebp], eax

; 537  : 			RGBtoHSL(RGB(lR1,lG1,lB1),&lH1,&lS1,&lL1);

  0131b	8d 4d 9c	 lea	 ecx, DWORD PTR _lL1$187366[ebp]
  0131e	51		 push	 ecx
  0131f	8d 55 ac	 lea	 edx, DWORD PTR _lS1$187365[ebp]
  01322	52		 push	 edx
  01323	8d 45 bc	 lea	 eax, DWORD PTR _lH1$187364[ebp]
  01326	50		 push	 eax
  01327	0f b6 4d d0	 movzx	 ecx, BYTE PTR _lR1$187361[ebp]
  0132b	0f b6 55 cc	 movzx	 edx, BYTE PTR _lG1$187362[ebp]
  0132f	c1 e2 08	 shl	 edx, 8
  01332	0b ca		 or	 ecx, edx
  01334	0f b6 45 c8	 movzx	 eax, BYTE PTR _lB1$187363[ebp]
  01338	c1 e0 10	 shl	 eax, 16			; 00000010H
  0133b	0b c8		 or	 ecx, eax
  0133d	51		 push	 ecx
  0133e	8b 4d fc	 mov	 ecx, DWORD PTR _this$[ebp]
  01341	e8 00 00 00 00	 call	 ?RGBtoHSL@CGdiEx@@QAEXKPAN00@Z ; CGdiEx::RGBtoHSL

; 538  : 
; 539  : 			int    lR2,lG2,lB2;
; 540  : 			double lH2,lS2,lL2;
; 541  : 			lR2 = GetRValue( aEndColor );

  01346	0f b6 4d 20	 movzx	 ecx, BYTE PTR _aEndColor$[ebp]
  0134a	89 4d 94	 mov	 DWORD PTR _lR2$187377[ebp], ecx

; 542  : 			lG2 = GetGValue( aEndColor );

  0134d	0f b7 55 20	 movzx	 edx, WORD PTR _aEndColor$[ebp]
  01351	c1 fa 08	 sar	 edx, 8
  01354	0f b6 c2	 movzx	 eax, dl
  01357	89 45 90	 mov	 DWORD PTR _lG2$187378[ebp], eax

; 543  : 			lB2 = GetBValue( aEndColor );

  0135a	8b 4d 20	 mov	 ecx, DWORD PTR _aEndColor$[ebp]
  0135d	c1 e9 10	 shr	 ecx, 16			; 00000010H
  01360	0f b6 d1	 movzx	 edx, cl
  01363	89 55 8c	 mov	 DWORD PTR _lB2$187379[ebp], edx

; 544  : 			RGBtoHSL(RGB(lR2,lG2,lB2),&lH2,&lS2,&lL2);

  01366	8d 85 60 ff ff
	ff		 lea	 eax, DWORD PTR _lL2$187382[ebp]
  0136c	50		 push	 eax
  0136d	8d 8d 70 ff ff
	ff		 lea	 ecx, DWORD PTR _lS2$187381[ebp]
  01373	51		 push	 ecx
  01374	8d 55 80	 lea	 edx, DWORD PTR _lH2$187380[ebp]
  01377	52		 push	 edx
  01378	0f b6 45 94	 movzx	 eax, BYTE PTR _lR2$187377[ebp]
  0137c	0f b6 4d 90	 movzx	 ecx, BYTE PTR _lG2$187378[ebp]
  01380	c1 e1 08	 shl	 ecx, 8
  01383	0b c1		 or	 eax, ecx
  01385	0f b6 55 8c	 movzx	 edx, BYTE PTR _lB2$187379[ebp]
  01389	c1 e2 10	 shl	 edx, 16			; 00000010H
  0138c	0b c2		 or	 eax, edx
  0138e	50		 push	 eax
  0138f	8b 4d fc	 mov	 ecx, DWORD PTR _this$[ebp]
  01392	e8 00 00 00 00	 call	 ?RGBtoHSL@CGdiEx@@QAEXKPAN00@Z ; CGdiEx::RGBtoHSL

; 545  : 
; 546  : 			float fHStep = ( lH2 - lH1 )*240 / (float)anStep;

  01397	dd 45 80	 fld	 QWORD PTR _lH2$187380[ebp]
  0139a	dc 65 bc	 fsub	 QWORD PTR _lH1$187364[ebp]
  0139d	dc 0d 00 00 00
	00		 fmul	 QWORD PTR __real@406e000000000000
  013a3	8b 45 2c	 mov	 eax, DWORD PTR _anStep$[ebp]
  013a6	89 85 00 ff ff
	ff		 mov	 DWORD PTR tv307[ebp], eax
  013ac	c7 85 04 ff ff
	ff 00 00 00 00	 mov	 DWORD PTR tv307[ebp+4], 0
  013b6	df ad 00 ff ff
	ff		 fild	 QWORD PTR tv307[ebp]
  013bc	de f9		 fdivp	 ST(1), ST(0)
  013be	d9 9d 58 ff ff
	ff		 fstp	 DWORD PTR _fHStep$187393[ebp]

; 547  : 			HDC hdcMem   = ::CreateCompatibleDC( DC );

  013c4	8b f4		 mov	 esi, esp
  013c6	8b 4d 08	 mov	 ecx, DWORD PTR _DC$[ebp]
  013c9	51		 push	 ecx
  013ca	ff 15 00 00 00
	00		 call	 DWORD PTR __imp__CreateCompatibleDC@4
  013d0	3b f4		 cmp	 esi, esp
  013d2	e8 00 00 00 00	 call	 __RTC_CheckEsp
  013d7	89 85 54 ff ff
	ff		 mov	 DWORD PTR _hdcMem$187395[ebp], eax

; 548  : 			HBITMAP hbmpMem  = ::CreateCompatibleBitmap( DC, nWidth, nHeight );

  013dd	8b f4		 mov	 esi, esp
  013df	8b 55 f4	 mov	 edx, DWORD PTR _nHeight$187353[ebp]
  013e2	52		 push	 edx
  013e3	8b 45 f8	 mov	 eax, DWORD PTR _nWidth$187352[ebp]
  013e6	50		 push	 eax
  013e7	8b 4d 08	 mov	 ecx, DWORD PTR _DC$[ebp]
  013ea	51		 push	 ecx
  013eb	ff 15 00 00 00
	00		 call	 DWORD PTR __imp__CreateCompatibleBitmap@12
  013f1	3b f4		 cmp	 esi, esp
  013f3	e8 00 00 00 00	 call	 __RTC_CheckEsp
  013f8	89 85 50 ff ff
	ff		 mov	 DWORD PTR _hbmpMem$187396[ebp], eax

; 549  : 			HGDIOBJ hobjOld  = ::SelectObject( hdcMem, hbmpMem );

  013fe	8b f4		 mov	 esi, esp
  01400	8b 95 50 ff ff
	ff		 mov	 edx, DWORD PTR _hbmpMem$187396[ebp]
  01406	52		 push	 edx
  01407	8b 85 54 ff ff
	ff		 mov	 eax, DWORD PTR _hdcMem$187395[ebp]
  0140d	50		 push	 eax
  0140e	ff 15 00 00 00
	00		 call	 DWORD PTR __imp__SelectObject@8
  01414	3b f4		 cmp	 esi, esp
  01416	e8 00 00 00 00	 call	 __RTC_CheckEsp
  0141b	89 85 4c ff ff
	ff		 mov	 DWORD PTR _hobjOld$187397[ebp], eax

; 550  : 
; 551  : 			rect.top = rect.left = 0;

  01421	c7 45 dc 00 00
	00 00		 mov	 DWORD PTR _rect$187356[ebp], 0
  01428	8b 4d dc	 mov	 ecx, DWORD PTR _rect$187356[ebp]
  0142b	89 4d e0	 mov	 DWORD PTR _rect$187356[ebp+4], ecx

; 552  : 
; 553  : 			if ( Orientation )

  0142e	83 7d 24 00	 cmp	 DWORD PTR _Orientation$[ebp], 0
  01432	0f 84 15 01 00
	00		 je	 $L187398

; 554  : 			{
; 555  : 				rect.right= nWidth;

  01438	8b 55 f8	 mov	 edx, DWORD PTR _nWidth$187352[ebp]
  0143b	89 55 e4	 mov	 DWORD PTR _rect$187356[ebp+8], edx

; 556  : 				fStep= (float)nHeight / (float)anStep;

  0143e	db 45 f4	 fild	 DWORD PTR _nHeight$187353[ebp]
  01441	8b 45 2c	 mov	 eax, DWORD PTR _anStep$[ebp]
  01444	89 85 f8 fe ff
	ff		 mov	 DWORD PTR tv330[ebp], eax
  0144a	c7 85 fc fe ff
	ff 00 00 00 00	 mov	 DWORD PTR tv330[ebp+4], 0
  01454	df ad f8 fe ff
	ff		 fild	 QWORD PTR tv330[ebp]
  0145a	de f9		 fdivp	 ST(1), ST(0)
  0145c	d9 5d f0	 fstp	 DWORD PTR _fStep$187355[ebp]

; 557  : 
; 558  : 				for ( int nCount=0; nCount<=anStep; nCount++ )

  0145f	c7 85 48 ff ff
	ff 00 00 00 00	 mov	 DWORD PTR _nCount$187401[ebp], 0
  01469	eb 0f		 jmp	 SHORT $L187402
$L187403:
  0146b	8b 8d 48 ff ff
	ff		 mov	 ecx, DWORD PTR _nCount$187401[ebp]
  01471	83 c1 01	 add	 ecx, 1
  01474	89 8d 48 ff ff
	ff		 mov	 DWORD PTR _nCount$187401[ebp], ecx
$L187402:
  0147a	8b 95 48 ff ff
	ff		 mov	 edx, DWORD PTR _nCount$187401[ebp]
  01480	3b 55 2c	 cmp	 edx, DWORD PTR _anStep$[ebp]
  01483	0f 87 bf 00 00
	00		 ja	 $L187404

; 559  : 				{
; 560  : 					rect.bottom = (int)( (nCount+1) * fStep );

  01489	8b 85 48 ff ff
	ff		 mov	 eax, DWORD PTR _nCount$187401[ebp]
  0148f	83 c0 01	 add	 eax, 1
  01492	89 85 f4 fe ff
	ff		 mov	 DWORD PTR tv336[ebp], eax
  01498	db 85 f4 fe ff
	ff		 fild	 DWORD PTR tv336[ebp]
  0149e	d8 4d f0	 fmul	 DWORD PTR _fStep$187355[ebp]
  014a1	e8 00 00 00 00	 call	 __ftol2
  014a6	89 45 e8	 mov	 DWORD PTR _rect$187356[ebp+12], eax

; 561  : 
; 562  : 					hbrFill = ::CreateSolidBrush( HLStoRGB(lH1+fHStep*nCount/(float)(240) ,0.5,1.0 )  );

  014a9	dd 05 00 00 00
	00		 fld	 QWORD PTR __real@3ff0000000000000
  014af	dd 9d 3c ff ff
	ff		 fstp	 QWORD PTR $T188475[ebp]
  014b5	dd 05 00 00 00
	00		 fld	 QWORD PTR __real@3fe0000000000000
  014bb	dd 9d 34 ff ff
	ff		 fstp	 QWORD PTR $T188476[ebp]
  014c1	db 85 48 ff ff
	ff		 fild	 DWORD PTR _nCount$187401[ebp]
  014c7	d8 8d 58 ff ff
	ff		 fmul	 DWORD PTR _fHStep$187393[ebp]
  014cd	d8 35 00 00 00
	00		 fdiv	 DWORD PTR __real@43700000
  014d3	dc 45 bc	 fadd	 QWORD PTR _lH1$187364[ebp]
  014d6	dd 9d 2c ff ff
	ff		 fstp	 QWORD PTR $T188477[ebp]
  014dc	8d 8d 3c ff ff
	ff		 lea	 ecx, DWORD PTR $T188475[ebp]
  014e2	51		 push	 ecx
  014e3	8d 95 34 ff ff
	ff		 lea	 edx, DWORD PTR $T188476[ebp]
  014e9	52		 push	 edx
  014ea	8d 85 2c ff ff
	ff		 lea	 eax, DWORD PTR $T188477[ebp]
  014f0	50		 push	 eax
  014f1	8b 4d fc	 mov	 ecx, DWORD PTR _this$[ebp]
  014f4	e8 00 00 00 00	 call	 ?HLStoRGB@CGdiEx@@QAEKABN00@Z ; CGdiEx::HLStoRGB
  014f9	8b f4		 mov	 esi, esp
  014fb	50		 push	 eax
  014fc	ff 15 00 00 00
	00		 call	 DWORD PTR __imp__CreateSolidBrush@4
  01502	3b f4		 cmp	 esi, esp
  01504	e8 00 00 00 00	 call	 __RTC_CheckEsp
  01509	89 45 d4	 mov	 DWORD PTR _hbrFill$187357[ebp], eax

; 563  : 					::FillRect( hdcMem, &rect, hbrFill );

  0150c	8b f4		 mov	 esi, esp
  0150e	8b 4d d4	 mov	 ecx, DWORD PTR _hbrFill$187357[ebp]
  01511	51		 push	 ecx
  01512	8d 55 dc	 lea	 edx, DWORD PTR _rect$187356[ebp]
  01515	52		 push	 edx
  01516	8b 85 54 ff ff
	ff		 mov	 eax, DWORD PTR _hdcMem$187395[ebp]
  0151c	50		 push	 eax
  0151d	ff 15 00 00 00
	00		 call	 DWORD PTR __imp__FillRect@12
  01523	3b f4		 cmp	 esi, esp
  01525	e8 00 00 00 00	 call	 __RTC_CheckEsp

; 564  : 					::DeleteObject( hbrFill );

  0152a	8b f4		 mov	 esi, esp
  0152c	8b 4d d4	 mov	 ecx, DWORD PTR _hbrFill$187357[ebp]
  0152f	51		 push	 ecx
  01530	ff 15 00 00 00
	00		 call	 DWORD PTR __imp__DeleteObject@4
  01536	3b f4		 cmp	 esi, esp
  01538	e8 00 00 00 00	 call	 __RTC_CheckEsp

; 565  : 
; 566  : 					rect.top = rect.bottom;

  0153d	8b 55 e8	 mov	 edx, DWORD PTR _rect$187356[ebp+12]
  01540	89 55 e0	 mov	 DWORD PTR _rect$187356[ebp+4], edx

; 567  : 				}

  01543	e9 23 ff ff ff	 jmp	 $L187403
$L187404:

; 568  : 			}
; 569  : 			else

  01548	e9 10 01 00 00	 jmp	 $L187410
$L187398:

; 570  : 			{
; 571  : 				rect.bottom = nHeight;

  0154d	8b 45 f4	 mov	 eax, DWORD PTR _nHeight$187353[ebp]
  01550	89 45 e8	 mov	 DWORD PTR _rect$187356[ebp+12], eax

; 572  : 				fStep= (float)nWidth / (float)anStep;

  01553	db 45 f8	 fild	 DWORD PTR _nWidth$187352[ebp]
  01556	8b 4d 2c	 mov	 ecx, DWORD PTR _anStep$[ebp]
  01559	89 8d ec fe ff
	ff		 mov	 DWORD PTR tv360[ebp], ecx
  0155f	c7 85 f0 fe ff
	ff 00 00 00 00	 mov	 DWORD PTR tv360[ebp+4], 0
  01569	df ad ec fe ff
	ff		 fild	 QWORD PTR tv360[ebp]
  0156f	de f9		 fdivp	 ST(1), ST(0)
  01571	d9 5d f0	 fstp	 DWORD PTR _fStep$187355[ebp]

; 573  : 
; 574  : 				for ( int nCount=0; nCount<=anStep; nCount++ )

  01574	c7 85 44 ff ff
	ff 00 00 00 00	 mov	 DWORD PTR _nCount$187413[ebp], 0
  0157e	eb 0f		 jmp	 SHORT $L187414
$L187415:
  01580	8b 95 44 ff ff
	ff		 mov	 edx, DWORD PTR _nCount$187413[ebp]
  01586	83 c2 01	 add	 edx, 1
  01589	89 95 44 ff ff
	ff		 mov	 DWORD PTR _nCount$187413[ebp], edx
$L187414:
  0158f	8b 85 44 ff ff
	ff		 mov	 eax, DWORD PTR _nCount$187413[ebp]
  01595	3b 45 2c	 cmp	 eax, DWORD PTR _anStep$[ebp]
  01598	0f 87 bf 00 00
	00		 ja	 $L187410

; 575  : 				{
; 576  : 					rect.right= (int)( (nCount+1) * fStep );

  0159e	8b 8d 44 ff ff
	ff		 mov	 ecx, DWORD PTR _nCount$187413[ebp]
  015a4	83 c1 01	 add	 ecx, 1
  015a7	89 8d e8 fe ff
	ff		 mov	 DWORD PTR tv366[ebp], ecx
  015ad	db 85 e8 fe ff
	ff		 fild	 DWORD PTR tv366[ebp]
  015b3	d8 4d f0	 fmul	 DWORD PTR _fStep$187355[ebp]
  015b6	e8 00 00 00 00	 call	 __ftol2
  015bb	89 45 e4	 mov	 DWORD PTR _rect$187356[ebp+8], eax

; 577  : 					hbrFill = ::CreateSolidBrush( HLStoRGB(lH1+fHStep*nCount/(float)(240) ,0.5,1.0 )  );

  015be	dd 05 00 00 00
	00		 fld	 QWORD PTR __real@3ff0000000000000
  015c4	dd 9d 24 ff ff
	ff		 fstp	 QWORD PTR $T188478[ebp]
  015ca	dd 05 00 00 00
	00		 fld	 QWORD PTR __real@3fe0000000000000
  015d0	dd 9d 1c ff ff
	ff		 fstp	 QWORD PTR $T188479[ebp]
  015d6	db 85 44 ff ff
	ff		 fild	 DWORD PTR _nCount$187413[ebp]
  015dc	d8 8d 58 ff ff
	ff		 fmul	 DWORD PTR _fHStep$187393[ebp]
  015e2	d8 35 00 00 00
	00		 fdiv	 DWORD PTR __real@43700000
  015e8	dc 45 bc	 fadd	 QWORD PTR _lH1$187364[ebp]
  015eb	dd 9d 14 ff ff
	ff		 fstp	 QWORD PTR $T188480[ebp]
  015f1	8d 95 24 ff ff
	ff		 lea	 edx, DWORD PTR $T188478[ebp]
  015f7	52		 push	 edx
  015f8	8d 85 1c ff ff
	ff		 lea	 eax, DWORD PTR $T188479[ebp]
  015fe	50		 push	 eax
  015ff	8d 8d 14 ff ff
	ff		 lea	 ecx, DWORD PTR $T188480[ebp]
  01605	51		 push	 ecx
  01606	8b 4d fc	 mov	 ecx, DWORD PTR _this$[ebp]
  01609	e8 00 00 00 00	 call	 ?HLStoRGB@CGdiEx@@QAEKABN00@Z ; CGdiEx::HLStoRGB
  0160e	8b f4		 mov	 esi, esp
  01610	50		 push	 eax
  01611	ff 15 00 00 00
	00		 call	 DWORD PTR __imp__CreateSolidBrush@4
  01617	3b f4		 cmp	 esi, esp
  01619	e8 00 00 00 00	 call	 __RTC_CheckEsp
  0161e	89 45 d4	 mov	 DWORD PTR _hbrFill$187357[ebp], eax

; 578  : 					::FillRect( hdcMem, &rect, hbrFill );

  01621	8b f4		 mov	 esi, esp
  01623	8b 55 d4	 mov	 edx, DWORD PTR _hbrFill$187357[ebp]
  01626	52		 push	 edx
  01627	8d 45 dc	 lea	 eax, DWORD PTR _rect$187356[ebp]
  0162a	50		 push	 eax
  0162b	8b 8d 54 ff ff
	ff		 mov	 ecx, DWORD PTR _hdcMem$187395[ebp]
  01631	51		 push	 ecx
  01632	ff 15 00 00 00
	00		 call	 DWORD PTR __imp__FillRect@12
  01638	3b f4		 cmp	 esi, esp
  0163a	e8 00 00 00 00	 call	 __RTC_CheckEsp

; 579  : 					::DeleteObject( hbrFill );

  0163f	8b f4		 mov	 esi, esp
  01641	8b 55 d4	 mov	 edx, DWORD PTR _hbrFill$187357[ebp]
  01644	52		 push	 edx
  01645	ff 15 00 00 00
	00		 call	 DWORD PTR __imp__DeleteObject@4
  0164b	3b f4		 cmp	 esi, esp
  0164d	e8 00 00 00 00	 call	 __RTC_CheckEsp

; 580  : 
; 581  : 					rect.left = rect.right;

  01652	8b 45 e4	 mov	 eax, DWORD PTR _rect$187356[ebp+8]
  01655	89 45 dc	 mov	 DWORD PTR _rect$187356[ebp], eax

; 582  : 				}

  01658	e9 23 ff ff ff	 jmp	 $L187415
$L187410:

; 583  : 			}
; 584  : 
; 585  : 			::BitBlt( DC, aRect.left, aRect.top, nWidth, nHeight, hdcMem, 0, 0, SRCCOPY );

  0165d	8b f4		 mov	 esi, esp
  0165f	68 20 00 cc 00	 push	 13369376		; 00cc0020H
  01664	6a 00		 push	 0
  01666	6a 00		 push	 0
  01668	8b 8d 54 ff ff
	ff		 mov	 ecx, DWORD PTR _hdcMem$187395[ebp]
  0166e	51		 push	 ecx
  0166f	8b 55 f4	 mov	 edx, DWORD PTR _nHeight$187353[ebp]
  01672	52		 push	 edx
  01673	8b 45 f8	 mov	 eax, DWORD PTR _nWidth$187352[ebp]
  01676	50		 push	 eax
  01677	8b 4d 10	 mov	 ecx, DWORD PTR _aRect$[ebp+4]
  0167a	51		 push	 ecx
  0167b	8b 55 0c	 mov	 edx, DWORD PTR _aRect$[ebp]
  0167e	52		 push	 edx
  0167f	8b 45 08	 mov	 eax, DWORD PTR _DC$[ebp]
  01682	50		 push	 eax
  01683	ff 15 00 00 00
	00		 call	 DWORD PTR __imp__BitBlt@36
  01689	3b f4		 cmp	 esi, esp
  0168b	e8 00 00 00 00	 call	 __RTC_CheckEsp

; 586  : 
; 587  : 			::SelectObject( hdcMem, hobjOld );

  01690	8b f4		 mov	 esi, esp
  01692	8b 8d 4c ff ff
	ff		 mov	 ecx, DWORD PTR _hobjOld$187397[ebp]
  01698	51		 push	 ecx
  01699	8b 95 54 ff ff
	ff		 mov	 edx, DWORD PTR _hdcMem$187395[ebp]
  0169f	52		 push	 edx
  016a0	ff 15 00 00 00
	00		 call	 DWORD PTR __imp__SelectObject@8
  016a6	3b f4		 cmp	 esi, esp
  016a8	e8 00 00 00 00	 call	 __RTC_CheckEsp

; 588  : 			::DeleteObject( hbmpMem );

  016ad	8b f4		 mov	 esi, esp
  016af	8b 85 50 ff ff
	ff		 mov	 eax, DWORD PTR _hbmpMem$187396[ebp]
  016b5	50		 push	 eax
  016b6	ff 15 00 00 00
	00		 call	 DWORD PTR __imp__DeleteObject@4
  016bc	3b f4		 cmp	 esi, esp
  016be	e8 00 00 00 00	 call	 __RTC_CheckEsp

; 589  : 			::DeleteDC( hdcMem );

  016c3	8b f4		 mov	 esi, esp
  016c5	8b 8d 54 ff ff
	ff		 mov	 ecx, DWORD PTR _hdcMem$187395[ebp]
  016cb	51		 push	 ecx
  016cc	ff 15 00 00 00
	00		 call	 DWORD PTR __imp__DeleteDC@4
  016d2	3b f4		 cmp	 esi, esp
  016d4	e8 00 00 00 00	 call	 __RTC_CheckEsp
$L187349:

; 590  : 		}
; 591  : 	}
; 592  : }

  016d9	52		 push	 edx
  016da	8b cd		 mov	 ecx, ebp
  016dc	50		 push	 eax
  016dd	8d 15 00 00 00
	00		 lea	 edx, DWORD PTR $L188495
  016e3	e8 00 00 00 00	 call	 @_RTC_CheckStackVars@8
  016e8	58		 pop	 eax
  016e9	5a		 pop	 edx
  016ea	5f		 pop	 edi
  016eb	5e		 pop	 esi
  016ec	81 c4 18 01 00
	00		 add	 esp, 280		; 00000118H
  016f2	3b ec		 cmp	 ebp, esp
  016f4	e8 00 00 00 00	 call	 __RTC_CheckEsp
  016f9	8b e5		 mov	 esp, ebp
  016fb	5d		 pop	 ebp
  016fc	c2 28 00	 ret	 40			; 00000028H
$L188495:
  016ff	07 00 00 00	 DD	 7
  01703	00 00 00 00	 DD	 $L188494
$L188494:
  01707	dc ff ff ff	 DD	 -36			; ffffffdcH
  0170b	10 00 00 00	 DD	 16			; 00000010H
  0170f	00 00 00 00	 DD	 $L188487
  01713	bc ff ff ff	 DD	 -68			; ffffffbcH
  01717	08 00 00 00	 DD	 8
  0171b	00 00 00 00	 DD	 $L188488
  0171f	ac ff ff ff	 DD	 -84			; ffffffacH
  01723	08 00 00 00	 DD	 8
  01727	00 00 00 00	 DD	 $L188489
  0172b	9c ff ff ff	 DD	 -100			; ffffff9cH
  0172f	08 00 00 00	 DD	 8
  01733	00 00 00 00	 DD	 $L188490
  01737	80 ff ff ff	 DD	 -128			; ffffff80H
  0173b	08 00 00 00	 DD	 8
  0173f	00 00 00 00	 DD	 $L188491
  01743	70 ff ff ff	 DD	 -144			; ffffff70H
  01747	08 00 00 00	 DD	 8
  0174b	00 00 00 00	 DD	 $L188492
  0174f	60 ff ff ff	 DD	 -160			; ffffff60H
  01753	08 00 00 00	 DD	 8
  01757	00 00 00 00	 DD	 $L188493
$L188493:
  0175b	6c		 DB	 108			; 0000006cH
  0175c	4c		 DB	 76			; 0000004cH
  0175d	32		 DB	 50			; 00000032H
  0175e	00		 DB	 0
$L188492:
  0175f	6c		 DB	 108			; 0000006cH
  01760	53		 DB	 83			; 00000053H
  01761	32		 DB	 50			; 00000032H
  01762	00		 DB	 0
$L188491:
  01763	6c		 DB	 108			; 0000006cH
  01764	48		 DB	 72			; 00000048H
  01765	32		 DB	 50			; 00000032H
  01766	00		 DB	 0
$L188490:
  01767	6c		 DB	 108			; 0000006cH
  01768	4c		 DB	 76			; 0000004cH
  01769	31		 DB	 49			; 00000031H
  0176a	00		 DB	 0
$L188489:
  0176b	6c		 DB	 108			; 0000006cH
  0176c	53		 DB	 83			; 00000053H
  0176d	31		 DB	 49			; 00000031H
  0176e	00		 DB	 0
$L188488:
  0176f	6c		 DB	 108			; 0000006cH
  01770	48		 DB	 72			; 00000048H
  01771	31		 DB	 49			; 00000031H
  01772	00		 DB	 0
$L188487:
  01773	72		 DB	 114			; 00000072H
  01774	65		 DB	 101			; 00000065H
  01775	63		 DB	 99			; 00000063H
  01776	74		 DB	 116			; 00000074H
  01777	00		 DB	 0
?FillRectangleHue@CGdiEx@@UAEXPAUHDC__@@UtagRECT@@KKW4ENUM_DrawOrientation@@HI@Z ENDP ; CGdiEx::FillRectangleHue
_TEXT	ENDS
PUBLIC	__real@406fe00000000000
PUBLIC	__real@4000000000000000
PUBLIC	__real@0000000000000000
PUBLIC	__real@4010000000000000
PUBLIC	__real@4018000000000000
;	COMDAT __real@406fe00000000000
CONST	SEGMENT
__real@406fe00000000000 DQ 0406fe00000000000r	; 255
CONST	ENDS
;	COMDAT __real@4000000000000000
CONST	SEGMENT
__real@4000000000000000 DQ 04000000000000000r	; 2
CONST	ENDS
;	COMDAT __real@0000000000000000
CONST	SEGMENT
__real@0000000000000000 DQ 00000000000000000r	; 0
CONST	ENDS
;	COMDAT __real@4010000000000000
CONST	SEGMENT
__real@4010000000000000 DQ 04010000000000000r	; 4
CONST	ENDS
;	COMDAT __real@4018000000000000
CONST	SEGMENT
__real@4018000000000000 DQ 04018000000000000r	; 6
; Function compile flags: /Odt /RTCsu
CONST	ENDS
;	COMDAT ?RGBtoHSL@CGdiEx@@QAEXKPAN00@Z
_TEXT	SEGMENT
tv88 = -112						; size = 8
tv89 = -104						; size = 8
tv85 = -96						; size = 8
tv82 = -88						; size = 8
tv83 = -80						; size = 8
tv79 = -72						; size = 8
tv158 = -64						; size = 4
tv156 = -60						; size = 4
tv155 = -56						; size = 4
_cmin$ = -52						; size = 8
_cmax$ = -44						; size = 8
_b$ = -36						; size = 8
_g$ = -28						; size = 8
_r$ = -20						; size = 8
_delta$ = -12						; size = 8
_this$ = -4						; size = 4
_rgb$ = 8						; size = 4
_H$ = 12						; size = 4
_S$ = 16						; size = 4
_L$ = 20						; size = 4
?RGBtoHSL@CGdiEx@@QAEXKPAN00@Z PROC NEAR		; CGdiEx::RGBtoHSL, COMDAT
; _this$ = ecx

; 349  : {

  00000	55		 push	 ebp
  00001	8b ec		 mov	 ebp, esp
  00003	83 ec 70	 sub	 esp, 112		; 00000070H
  00006	57		 push	 edi
  00007	51		 push	 ecx
  00008	8d 7d 90	 lea	 edi, DWORD PTR [ebp-112]
  0000b	b9 1c 00 00 00	 mov	 ecx, 28			; 0000001cH
  00010	b8 cc cc cc cc	 mov	 eax, -858993460		; ccccccccH
  00015	f3 ab		 rep stosd
  00017	59		 pop	 ecx
  00018	89 4d fc	 mov	 DWORD PTR _this$[ebp], ecx

; 350  : 	double delta;
; 351  : 	double r = (double)GetRValue(rgb)/255;

  0001b	0f b6 45 08	 movzx	 eax, BYTE PTR _rgb$[ebp]
  0001f	89 45 c8	 mov	 DWORD PTR tv155[ebp], eax
  00022	db 45 c8	 fild	 DWORD PTR tv155[ebp]
  00025	dc 35 00 00 00
	00		 fdiv	 QWORD PTR __real@406fe00000000000
  0002b	dd 5d ec	 fstp	 QWORD PTR _r$[ebp]

; 352  : 	double g = (double)GetGValue(rgb)/255;

  0002e	0f b7 4d 08	 movzx	 ecx, WORD PTR _rgb$[ebp]
  00032	c1 f9 08	 sar	 ecx, 8
  00035	0f b6 d1	 movzx	 edx, cl
  00038	89 55 c4	 mov	 DWORD PTR tv156[ebp], edx
  0003b	db 45 c4	 fild	 DWORD PTR tv156[ebp]
  0003e	dc 35 00 00 00
	00		 fdiv	 QWORD PTR __real@406fe00000000000
  00044	dd 5d e4	 fstp	 QWORD PTR _g$[ebp]

; 353  : 	double b = (double)GetBValue(rgb)/255;

  00047	8b 45 08	 mov	 eax, DWORD PTR _rgb$[ebp]
  0004a	c1 e8 10	 shr	 eax, 16			; 00000010H
  0004d	0f b6 c8	 movzx	 ecx, al
  00050	89 4d c0	 mov	 DWORD PTR tv158[ebp], ecx
  00053	db 45 c0	 fild	 DWORD PTR tv158[ebp]
  00056	dc 35 00 00 00
	00		 fdiv	 QWORD PTR __real@406fe00000000000
  0005c	dd 5d dc	 fstp	 QWORD PTR _b$[ebp]

; 354  : 	double cmax = max(r,max(g,b));

  0005f	dd 45 e4	 fld	 QWORD PTR _g$[ebp]
  00062	dc 5d dc	 fcomp	 QWORD PTR _b$[ebp]
  00065	df e0		 fnstsw	 ax
  00067	f6 c4 41	 test	 ah, 65			; 00000041H
  0006a	75 08		 jne	 SHORT $L188497
  0006c	dd 45 e4	 fld	 QWORD PTR _g$[ebp]
  0006f	dd 5d b8	 fstp	 QWORD PTR tv79[ebp]
  00072	eb 06		 jmp	 SHORT $L188498
$L188497:
  00074	dd 45 dc	 fld	 QWORD PTR _b$[ebp]
  00077	dd 5d b8	 fstp	 QWORD PTR tv79[ebp]
$L188498:
  0007a	dd 45 ec	 fld	 QWORD PTR _r$[ebp]
  0007d	dc 5d b8	 fcomp	 QWORD PTR tv79[ebp]
  00080	df e0		 fnstsw	 ax
  00082	f6 c4 41	 test	 ah, 65			; 00000041H
  00085	75 08		 jne	 SHORT $L188501
  00087	dd 45 ec	 fld	 QWORD PTR _r$[ebp]
  0008a	dd 5d b0	 fstp	 QWORD PTR tv83[ebp]
  0008d	eb 21		 jmp	 SHORT $L188502
$L188501:
  0008f	dd 45 e4	 fld	 QWORD PTR _g$[ebp]
  00092	dc 5d dc	 fcomp	 QWORD PTR _b$[ebp]
  00095	df e0		 fnstsw	 ax
  00097	f6 c4 41	 test	 ah, 65			; 00000041H
  0009a	75 08		 jne	 SHORT $L188499
  0009c	dd 45 e4	 fld	 QWORD PTR _g$[ebp]
  0009f	dd 5d a8	 fstp	 QWORD PTR tv82[ebp]
  000a2	eb 06		 jmp	 SHORT $L188500
$L188499:
  000a4	dd 45 dc	 fld	 QWORD PTR _b$[ebp]
  000a7	dd 5d a8	 fstp	 QWORD PTR tv82[ebp]
$L188500:
  000aa	dd 45 a8	 fld	 QWORD PTR tv82[ebp]
  000ad	dd 5d b0	 fstp	 QWORD PTR tv83[ebp]
$L188502:
  000b0	dd 45 b0	 fld	 QWORD PTR tv83[ebp]
  000b3	dd 5d d4	 fstp	 QWORD PTR _cmax$[ebp]

; 355  : 	double cmin = min(r,min(g,b));

  000b6	dd 45 e4	 fld	 QWORD PTR _g$[ebp]
  000b9	dc 5d dc	 fcomp	 QWORD PTR _b$[ebp]
  000bc	df e0		 fnstsw	 ax
  000be	f6 c4 05	 test	 ah, 5
  000c1	7a 08		 jp	 SHORT $L188503
  000c3	dd 45 e4	 fld	 QWORD PTR _g$[ebp]
  000c6	dd 5d a0	 fstp	 QWORD PTR tv85[ebp]
  000c9	eb 06		 jmp	 SHORT $L188504
$L188503:
  000cb	dd 45 dc	 fld	 QWORD PTR _b$[ebp]
  000ce	dd 5d a0	 fstp	 QWORD PTR tv85[ebp]
$L188504:
  000d1	dd 45 ec	 fld	 QWORD PTR _r$[ebp]
  000d4	dc 5d a0	 fcomp	 QWORD PTR tv85[ebp]
  000d7	df e0		 fnstsw	 ax
  000d9	f6 c4 05	 test	 ah, 5
  000dc	7a 08		 jp	 SHORT $L188507
  000de	dd 45 ec	 fld	 QWORD PTR _r$[ebp]
  000e1	dd 5d 98	 fstp	 QWORD PTR tv89[ebp]
  000e4	eb 21		 jmp	 SHORT $L188508
$L188507:
  000e6	dd 45 e4	 fld	 QWORD PTR _g$[ebp]
  000e9	dc 5d dc	 fcomp	 QWORD PTR _b$[ebp]
  000ec	df e0		 fnstsw	 ax
  000ee	f6 c4 05	 test	 ah, 5
  000f1	7a 08		 jp	 SHORT $L188505
  000f3	dd 45 e4	 fld	 QWORD PTR _g$[ebp]
  000f6	dd 5d 90	 fstp	 QWORD PTR tv88[ebp]
  000f9	eb 06		 jmp	 SHORT $L188506
$L188505:
  000fb	dd 45 dc	 fld	 QWORD PTR _b$[ebp]
  000fe	dd 5d 90	 fstp	 QWORD PTR tv88[ebp]
$L188506:
  00101	dd 45 90	 fld	 QWORD PTR tv88[ebp]
  00104	dd 5d 98	 fstp	 QWORD PTR tv89[ebp]
$L188508:
  00107	dd 45 98	 fld	 QWORD PTR tv89[ebp]
  0010a	dd 5d cc	 fstp	 QWORD PTR _cmin$[ebp]

; 356  : 	*L = (cmax+cmin)/2.0;

  0010d	dd 45 d4	 fld	 QWORD PTR _cmax$[ebp]
  00110	dc 45 cc	 fadd	 QWORD PTR _cmin$[ebp]
  00113	dc 35 00 00 00
	00		 fdiv	 QWORD PTR __real@4000000000000000
  00119	8b 55 14	 mov	 edx, DWORD PTR _L$[ebp]
  0011c	dd 1a		 fstp	 QWORD PTR [edx]

; 357  : 	if (cmax == cmin)

  0011e	dd 45 cc	 fld	 QWORD PTR _cmin$[ebp]
  00121	dd 45 d4	 fld	 QWORD PTR _cmax$[ebp]
  00124	da e9		 fucompp
  00126	df e0		 fnstsw	 ax
  00128	f6 c4 44	 test	 ah, 68			; 00000044H
  0012b	7a 1b		 jp	 SHORT $L187219

; 358  : 	{
; 359  : 		*S = 0;

  0012d	8b 45 10	 mov	 eax, DWORD PTR _S$[ebp]
  00130	dd 05 00 00 00
	00		 fld	 QWORD PTR __real@0000000000000000
  00136	dd 18		 fstp	 QWORD PTR [eax]

; 360  : 		*H = 0; // it's really undefined

  00138	8b 4d 0c	 mov	 ecx, DWORD PTR _H$[ebp]
  0013b	dd 05 00 00 00
	00		 fld	 QWORD PTR __real@0000000000000000
  00141	dd 19		 fstp	 QWORD PTR [ecx]

; 361  : 	}
; 362  : 	else

  00143	e9 d3 00 00 00	 jmp	 $L187205
$L187219:

; 363  : 	{
; 364  : 		if (*L < 0.5)

  00148	8b 55 14	 mov	 edx, DWORD PTR _L$[ebp]
  0014b	dd 02		 fld	 QWORD PTR [edx]
  0014d	dc 1d 00 00 00
	00		 fcomp	 QWORD PTR __real@3fe0000000000000
  00153	df e0		 fnstsw	 ax
  00155	f6 c4 05	 test	 ah, 5
  00158	7a 15		 jp	 SHORT $L187221

; 365  : 			*S = (cmax-cmin)/(cmax+cmin);

  0015a	dd 45 d4	 fld	 QWORD PTR _cmax$[ebp]
  0015d	dc 65 cc	 fsub	 QWORD PTR _cmin$[ebp]
  00160	dd 45 d4	 fld	 QWORD PTR _cmax$[ebp]
  00163	dc 45 cc	 fadd	 QWORD PTR _cmin$[ebp]
  00166	de f9		 fdivp	 ST(1), ST(0)
  00168	8b 45 10	 mov	 eax, DWORD PTR _S$[ebp]
  0016b	dd 18		 fstp	 QWORD PTR [eax]

; 366  : 		else

  0016d	eb 19		 jmp	 SHORT $L187222
$L187221:

; 367  : 			*S = (cmax-cmin)/(2.0-cmax-cmin);

  0016f	dd 45 d4	 fld	 QWORD PTR _cmax$[ebp]
  00172	dc 65 cc	 fsub	 QWORD PTR _cmin$[ebp]
  00175	dd 05 00 00 00
	00		 fld	 QWORD PTR __real@4000000000000000
  0017b	dc 65 d4	 fsub	 QWORD PTR _cmax$[ebp]
  0017e	dc 65 cc	 fsub	 QWORD PTR _cmin$[ebp]
  00181	de f9		 fdivp	 ST(1), ST(0)
  00183	8b 4d 10	 mov	 ecx, DWORD PTR _S$[ebp]
  00186	dd 19		 fstp	 QWORD PTR [ecx]
$L187222:

; 368  : 		delta = cmax - cmin;

  00188	dd 45 d4	 fld	 QWORD PTR _cmax$[ebp]
  0018b	dc 65 cc	 fsub	 QWORD PTR _cmin$[ebp]
  0018e	dd 5d f4	 fstp	 QWORD PTR _delta$[ebp]

; 369  : 		if (r==cmax)

  00191	dd 45 d4	 fld	 QWORD PTR _cmax$[ebp]
  00194	dd 45 ec	 fld	 QWORD PTR _r$[ebp]
  00197	da e9		 fucompp
  00199	df e0		 fnstsw	 ax
  0019b	f6 c4 44	 test	 ah, 68			; 00000044H
  0019e	7a 10		 jp	 SHORT $L187223

; 370  : 			*H = (g-b)/delta;

  001a0	dd 45 e4	 fld	 QWORD PTR _g$[ebp]
  001a3	dc 65 dc	 fsub	 QWORD PTR _b$[ebp]
  001a6	dc 75 f4	 fdiv	 QWORD PTR _delta$[ebp]
  001a9	8b 55 0c	 mov	 edx, DWORD PTR _H$[ebp]
  001ac	dd 1a		 fstp	 QWORD PTR [edx]

; 371  : 		else if (g==cmax)

  001ae	eb 39		 jmp	 SHORT $L187224
$L187223:
  001b0	dd 45 d4	 fld	 QWORD PTR _cmax$[ebp]
  001b3	dd 45 e4	 fld	 QWORD PTR _g$[ebp]
  001b6	da e9		 fucompp
  001b8	df e0		 fnstsw	 ax
  001ba	f6 c4 44	 test	 ah, 68			; 00000044H
  001bd	7a 16		 jp	 SHORT $L187225

; 372  : 			*H = 2.0 +(b-r)/delta;

  001bf	dd 45 dc	 fld	 QWORD PTR _b$[ebp]
  001c2	dc 65 ec	 fsub	 QWORD PTR _r$[ebp]
  001c5	dc 75 f4	 fdiv	 QWORD PTR _delta$[ebp]
  001c8	dc 05 00 00 00
	00		 fadd	 QWORD PTR __real@4000000000000000
  001ce	8b 45 0c	 mov	 eax, DWORD PTR _H$[ebp]
  001d1	dd 18		 fstp	 QWORD PTR [eax]

; 373  : 		else

  001d3	eb 14		 jmp	 SHORT $L187224
$L187225:

; 374  : 			*H = 4.0+(r-g)/delta;

  001d5	dd 45 ec	 fld	 QWORD PTR _r$[ebp]
  001d8	dc 65 e4	 fsub	 QWORD PTR _g$[ebp]
  001db	dc 75 f4	 fdiv	 QWORD PTR _delta$[ebp]
  001de	dc 05 00 00 00
	00		 fadd	 QWORD PTR __real@4010000000000000
  001e4	8b 4d 0c	 mov	 ecx, DWORD PTR _H$[ebp]
  001e7	dd 19		 fstp	 QWORD PTR [ecx]
$L187224:

; 375  : 		*H /= 6.0;

  001e9	8b 55 0c	 mov	 edx, DWORD PTR _H$[ebp]
  001ec	dd 02		 fld	 QWORD PTR [edx]
  001ee	dc 35 00 00 00
	00		 fdiv	 QWORD PTR __real@4018000000000000
  001f4	8b 45 0c	 mov	 eax, DWORD PTR _H$[ebp]
  001f7	dd 18		 fstp	 QWORD PTR [eax]

; 376  : 		if (*H < 0.0)

  001f9	8b 4d 0c	 mov	 ecx, DWORD PTR _H$[ebp]
  001fc	dd 01		 fld	 QWORD PTR [ecx]
  001fe	dc 1d 00 00 00
	00		 fcomp	 QWORD PTR __real@0000000000000000
  00204	df e0		 fnstsw	 ax
  00206	f6 c4 05	 test	 ah, 5
  00209	7a 10		 jp	 SHORT $L187205

; 377  : 			*H += 1;

  0020b	8b 55 0c	 mov	 edx, DWORD PTR _H$[ebp]
  0020e	dd 02		 fld	 QWORD PTR [edx]
  00210	dc 05 00 00 00
	00		 fadd	 QWORD PTR __real@3ff0000000000000
  00216	8b 45 0c	 mov	 eax, DWORD PTR _H$[ebp]
  00219	dd 18		 fstp	 QWORD PTR [eax]
$L187205:

; 378  : 	}
; 379  : }

  0021b	5f		 pop	 edi
  0021c	8b e5		 mov	 esp, ebp
  0021e	5d		 pop	 ebp
  0021f	c2 10 00	 ret	 16			; 00000010H
?RGBtoHSL@CGdiEx@@QAEXKPAN00@Z ENDP			; CGdiEx::RGBtoHSL
_TEXT	ENDS
PUBLIC	__real@3fd5555555555555
PUBLIC	?HuetoRGB@CGdiEx@@QAENNNN@Z			; CGdiEx::HuetoRGB
;	COMDAT __real@3fd5555555555555
CONST	SEGMENT
__real@3fd5555555555555 DQ 03fd5555555555555r	; 0.333333
; Function compile flags: /Odt /RTCsu
CONST	ENDS
;	COMDAT ?HLStoRGB@CGdiEx@@QAEKABN00@Z
_TEXT	SEGMENT
_m2$ = -44						; size = 8
_m1$ = -36						; size = 8
_b$ = -28						; size = 8
_g$ = -20						; size = 8
_r$ = -12						; size = 8
_this$ = -4						; size = 4
_H$ = 8							; size = 4
_L$ = 12						; size = 4
_S$ = 16						; size = 4
?HLStoRGB@CGdiEx@@QAEKABN00@Z PROC NEAR			; CGdiEx::HLStoRGB, COMDAT
; _this$ = ecx

; 381  : {

  00000	55		 push	 ebp
  00001	8b ec		 mov	 ebp, esp
  00003	83 ec 2c	 sub	 esp, 44			; 0000002cH
  00006	56		 push	 esi
  00007	57		 push	 edi
  00008	51		 push	 ecx
  00009	8d 7d d4	 lea	 edi, DWORD PTR [ebp-44]
  0000c	b9 0b 00 00 00	 mov	 ecx, 11			; 0000000bH
  00011	b8 cc cc cc cc	 mov	 eax, -858993460		; ccccccccH
  00016	f3 ab		 rep stosd
  00018	59		 pop	 ecx
  00019	89 4d fc	 mov	 DWORD PTR _this$[ebp], ecx

; 382  : 	double r,g,b;
; 383  : 	double m1, m2;
; 384  : 
; 385  : 	if (S==0)

  0001c	8b 45 10	 mov	 eax, DWORD PTR _S$[ebp]
  0001f	dd 05 00 00 00
	00		 fld	 QWORD PTR __real@0000000000000000
  00025	dd 00		 fld	 QWORD PTR [eax]
  00027	da e9		 fucompp
  00029	df e0		 fnstsw	 ax
  0002b	f6 c4 44	 test	 ah, 68			; 00000044H
  0002e	7a 13		 jp	 SHORT $L187239

; 386  : 	{
; 387  : 		r=g=b=L;

  00030	8b 4d 0c	 mov	 ecx, DWORD PTR _L$[ebp]
  00033	dd 01		 fld	 QWORD PTR [ecx]
  00035	dd 55 e4	 fst	 QWORD PTR _b$[ebp]
  00038	dd 55 ec	 fst	 QWORD PTR _g$[ebp]
  0003b	dd 5d f4	 fstp	 QWORD PTR _r$[ebp]

; 388  : 	}
; 389  : 	else

  0003e	e9 d5 00 00 00	 jmp	 $L187240
$L187239:

; 390  : 	{
; 391  : 		if (L <= 0.5)

  00043	8b 55 0c	 mov	 edx, DWORD PTR _L$[ebp]
  00046	dd 02		 fld	 QWORD PTR [edx]
  00048	dc 1d 00 00 00
	00		 fcomp	 QWORD PTR __real@3fe0000000000000
  0004e	df e0		 fnstsw	 ax
  00050	f6 c4 41	 test	 ah, 65			; 00000041H
  00053	7a 15		 jp	 SHORT $L187241

; 392  : 			m2 = L*(1.0+S);

  00055	8b 45 10	 mov	 eax, DWORD PTR _S$[ebp]
  00058	dd 05 00 00 00
	00		 fld	 QWORD PTR __real@3ff0000000000000
  0005e	dc 00		 fadd	 QWORD PTR [eax]
  00060	8b 4d 0c	 mov	 ecx, DWORD PTR _L$[ebp]
  00063	dc 09		 fmul	 QWORD PTR [ecx]
  00065	dd 5d d4	 fstp	 QWORD PTR _m2$[ebp]

; 393  : 		else

  00068	eb 19		 jmp	 SHORT $L187242
$L187241:

; 394  : 			m2 = L+S-L*S;

  0006a	8b 55 0c	 mov	 edx, DWORD PTR _L$[ebp]
  0006d	8b 45 10	 mov	 eax, DWORD PTR _S$[ebp]
  00070	dd 02		 fld	 QWORD PTR [edx]
  00072	dc 00		 fadd	 QWORD PTR [eax]
  00074	8b 4d 0c	 mov	 ecx, DWORD PTR _L$[ebp]
  00077	8b 55 10	 mov	 edx, DWORD PTR _S$[ebp]
  0007a	dd 01		 fld	 QWORD PTR [ecx]
  0007c	dc 0a		 fmul	 QWORD PTR [edx]
  0007e	de e9		 fsubp	 ST(1), ST(0)
  00080	dd 5d d4	 fstp	 QWORD PTR _m2$[ebp]
$L187242:

; 395  : 		m1 = 2.0*L-m2;

  00083	8b 45 0c	 mov	 eax, DWORD PTR _L$[ebp]
  00086	dd 05 00 00 00
	00		 fld	 QWORD PTR __real@4000000000000000
  0008c	dc 08		 fmul	 QWORD PTR [eax]
  0008e	dc 65 d4	 fsub	 QWORD PTR _m2$[ebp]
  00091	dd 5d dc	 fstp	 QWORD PTR _m1$[ebp]

; 396  : 		r = HuetoRGB(m1, m2, H+1.0/3.0);

  00094	8b 4d 08	 mov	 ecx, DWORD PTR _H$[ebp]
  00097	dd 01		 fld	 QWORD PTR [ecx]
  00099	dc 05 00 00 00
	00		 fadd	 QWORD PTR __real@3fd5555555555555
  0009f	83 ec 08	 sub	 esp, 8
  000a2	dd 1c 24	 fstp	 QWORD PTR [esp]
  000a5	dd 45 d4	 fld	 QWORD PTR _m2$[ebp]
  000a8	83 ec 08	 sub	 esp, 8
  000ab	dd 1c 24	 fstp	 QWORD PTR [esp]
  000ae	dd 45 dc	 fld	 QWORD PTR _m1$[ebp]
  000b1	83 ec 08	 sub	 esp, 8
  000b4	dd 1c 24	 fstp	 QWORD PTR [esp]
  000b7	8b 4d fc	 mov	 ecx, DWORD PTR _this$[ebp]
  000ba	e8 00 00 00 00	 call	 ?HuetoRGB@CGdiEx@@QAENNNN@Z ; CGdiEx::HuetoRGB
  000bf	dd 5d f4	 fstp	 QWORD PTR _r$[ebp]

; 397  : 		g = HuetoRGB(m1, m2, H);

  000c2	8b 55 08	 mov	 edx, DWORD PTR _H$[ebp]
  000c5	dd 02		 fld	 QWORD PTR [edx]
  000c7	83 ec 08	 sub	 esp, 8
  000ca	dd 1c 24	 fstp	 QWORD PTR [esp]
  000cd	dd 45 d4	 fld	 QWORD PTR _m2$[ebp]
  000d0	83 ec 08	 sub	 esp, 8
  000d3	dd 1c 24	 fstp	 QWORD PTR [esp]
  000d6	dd 45 dc	 fld	 QWORD PTR _m1$[ebp]
  000d9	83 ec 08	 sub	 esp, 8
  000dc	dd 1c 24	 fstp	 QWORD PTR [esp]
  000df	8b 4d fc	 mov	 ecx, DWORD PTR _this$[ebp]
  000e2	e8 00 00 00 00	 call	 ?HuetoRGB@CGdiEx@@QAENNNN@Z ; CGdiEx::HuetoRGB
  000e7	dd 5d ec	 fstp	 QWORD PTR _g$[ebp]

; 398  : 		b = HuetoRGB(m1, m2, H-1.0/3.0);

  000ea	8b 45 08	 mov	 eax, DWORD PTR _H$[ebp]
  000ed	dd 00		 fld	 QWORD PTR [eax]
  000ef	dc 25 00 00 00
	00		 fsub	 QWORD PTR __real@3fd5555555555555
  000f5	83 ec 08	 sub	 esp, 8
  000f8	dd 1c 24	 fstp	 QWORD PTR [esp]
  000fb	dd 45 d4	 fld	 QWORD PTR _m2$[ebp]
  000fe	83 ec 08	 sub	 esp, 8
  00101	dd 1c 24	 fstp	 QWORD PTR [esp]
  00104	dd 45 dc	 fld	 QWORD PTR _m1$[ebp]
  00107	83 ec 08	 sub	 esp, 8
  0010a	dd 1c 24	 fstp	 QWORD PTR [esp]
  0010d	8b 4d fc	 mov	 ecx, DWORD PTR _this$[ebp]
  00110	e8 00 00 00 00	 call	 ?HuetoRGB@CGdiEx@@QAENNNN@Z ; CGdiEx::HuetoRGB
  00115	dd 5d e4	 fstp	 QWORD PTR _b$[ebp]
$L187240:

; 399  : 	}
; 400  : 	return RGB((BYTE)(r*255),(BYTE)(g*255),(BYTE)(b*255));

  00118	dd 45 f4	 fld	 QWORD PTR _r$[ebp]
  0011b	dc 0d 00 00 00
	00		 fmul	 QWORD PTR __real@406fe00000000000
  00121	e8 00 00 00 00	 call	 __ftol2
  00126	0f b6 f0	 movzx	 esi, al
  00129	dd 45 ec	 fld	 QWORD PTR _g$[ebp]
  0012c	dc 0d 00 00 00
	00		 fmul	 QWORD PTR __real@406fe00000000000
  00132	e8 00 00 00 00	 call	 __ftol2
  00137	0f b6 c8	 movzx	 ecx, al
  0013a	c1 e1 08	 shl	 ecx, 8
  0013d	0b f1		 or	 esi, ecx
  0013f	dd 45 e4	 fld	 QWORD PTR _b$[ebp]
  00142	dc 0d 00 00 00
	00		 fmul	 QWORD PTR __real@406fe00000000000
  00148	e8 00 00 00 00	 call	 __ftol2
  0014d	0f b6 d0	 movzx	 edx, al
  00150	c1 e2 10	 shl	 edx, 16			; 00000010H
  00153	0b f2		 or	 esi, edx
  00155	8b c6		 mov	 eax, esi

; 401  : }

  00157	5f		 pop	 edi
  00158	5e		 pop	 esi
  00159	83 c4 2c	 add	 esp, 44			; 0000002cH
  0015c	3b ec		 cmp	 ebp, esp
  0015e	e8 00 00 00 00	 call	 __RTC_CheckEsp
  00163	8b e5		 mov	 esp, ebp
  00165	5d		 pop	 ebp
  00166	c2 0c 00	 ret	 12			; 0000000cH
?HLStoRGB@CGdiEx@@QAEKABN00@Z ENDP			; CGdiEx::HLStoRGB
_TEXT	ENDS
PUBLIC	__real@4008000000000000
PUBLIC	__real@3fe5555555555555
;	COMDAT __real@4008000000000000
CONST	SEGMENT
__real@4008000000000000 DQ 04008000000000000r	; 3
CONST	ENDS
;	COMDAT __real@3fe5555555555555
CONST	SEGMENT
__real@3fe5555555555555 DQ 03fe5555555555555r	; 0.666667
; Function compile flags: /Odt /RTCsu
CONST	ENDS
;	COMDAT ?HuetoRGB@CGdiEx@@QAENNNN@Z
_TEXT	SEGMENT
_this$ = -4						; size = 4
_m1$ = 8						; size = 8
_m2$ = 16						; size = 8
_h$ = 24						; size = 8
?HuetoRGB@CGdiEx@@QAENNNN@Z PROC NEAR			; CGdiEx::HuetoRGB, COMDAT
; _this$ = ecx

; 405  : {

  00000	55		 push	 ebp
  00001	8b ec		 mov	 ebp, esp
  00003	51		 push	 ecx
  00004	c7 45 fc cc cc
	cc cc		 mov	 DWORD PTR [ebp-4], -858993460 ; ccccccccH
  0000b	89 4d fc	 mov	 DWORD PTR _this$[ebp], ecx

; 406  : 	if (h < 0)

  0000e	dd 45 18	 fld	 QWORD PTR _h$[ebp]
  00011	dc 1d 00 00 00
	00		 fcomp	 QWORD PTR __real@0000000000000000
  00017	df e0		 fnstsw	 ax
  00019	f6 c4 05	 test	 ah, 5
  0001c	7a 0e		 jp	 SHORT $L187258

; 407  : 		h += 1.0;

  0001e	dd 45 18	 fld	 QWORD PTR _h$[ebp]
  00021	dc 05 00 00 00
	00		 fadd	 QWORD PTR __real@3ff0000000000000
  00027	dd 5d 18	 fstp	 QWORD PTR _h$[ebp]

; 408  : 	else if (h > 1)

  0002a	eb 1c		 jmp	 SHORT $L187259
$L187258:
  0002c	dd 45 18	 fld	 QWORD PTR _h$[ebp]
  0002f	dc 1d 00 00 00
	00		 fcomp	 QWORD PTR __real@3ff0000000000000
  00035	df e0		 fnstsw	 ax
  00037	f6 c4 41	 test	 ah, 65			; 00000041H
  0003a	75 0c		 jne	 SHORT $L187259

; 409  : 		h -= 1.0;

  0003c	dd 45 18	 fld	 QWORD PTR _h$[ebp]
  0003f	dc 25 00 00 00
	00		 fsub	 QWORD PTR __real@3ff0000000000000
  00045	dd 5d 18	 fstp	 QWORD PTR _h$[ebp]
$L187259:

; 410  : 
; 411  : 	if (6.0*h < 1)

  00048	dd 05 00 00 00
	00		 fld	 QWORD PTR __real@4018000000000000
  0004e	dc 4d 18	 fmul	 QWORD PTR _h$[ebp]
  00051	dc 1d 00 00 00
	00		 fcomp	 QWORD PTR __real@3ff0000000000000
  00057	df e0		 fnstsw	 ax
  00059	f6 c4 05	 test	 ah, 5
  0005c	7a 14		 jp	 SHORT $L187261

; 412  : 		return (m1+(m2-m1)*h*6.0);

  0005e	dd 45 10	 fld	 QWORD PTR _m2$[ebp]
  00061	dc 65 08	 fsub	 QWORD PTR _m1$[ebp]
  00064	dc 4d 18	 fmul	 QWORD PTR _h$[ebp]
  00067	dc 0d 00 00 00
	00		 fmul	 QWORD PTR __real@4018000000000000
  0006d	dc 45 08	 fadd	 QWORD PTR _m1$[ebp]
  00070	eb 50		 jmp	 SHORT $L187257
$L187261:

; 413  : 	else if (2.0*h < 1)

  00072	dd 05 00 00 00
	00		 fld	 QWORD PTR __real@4000000000000000
  00078	dc 4d 18	 fmul	 QWORD PTR _h$[ebp]
  0007b	dc 1d 00 00 00
	00		 fcomp	 QWORD PTR __real@3ff0000000000000
  00081	df e0		 fnstsw	 ax
  00083	f6 c4 05	 test	 ah, 5
  00086	7a 05		 jp	 SHORT $L187263

; 414  : 		return m2;

  00088	dd 45 10	 fld	 QWORD PTR _m2$[ebp]
  0008b	eb 35		 jmp	 SHORT $L187257
$L187263:

; 415  : 	else if (3.0*h < 2.0)

  0008d	dd 05 00 00 00
	00		 fld	 QWORD PTR __real@4008000000000000
  00093	dc 4d 18	 fmul	 QWORD PTR _h$[ebp]
  00096	dc 1d 00 00 00
	00		 fcomp	 QWORD PTR __real@4000000000000000
  0009c	df e0		 fnstsw	 ax
  0009e	f6 c4 05	 test	 ah, 5
  000a1	7a 1c		 jp	 SHORT $L187262

; 416  : 		return (m1+(m2-m1)*((2.0/3.0)-h)*6.0);

  000a3	dd 45 10	 fld	 QWORD PTR _m2$[ebp]
  000a6	dc 65 08	 fsub	 QWORD PTR _m1$[ebp]
  000a9	dd 05 00 00 00
	00		 fld	 QWORD PTR __real@3fe5555555555555
  000af	dc 65 18	 fsub	 QWORD PTR _h$[ebp]
  000b2	de c9		 fmulp	 ST(1), ST(0)
  000b4	dc 0d 00 00 00
	00		 fmul	 QWORD PTR __real@4018000000000000
  000ba	dc 45 08	 fadd	 QWORD PTR _m1$[ebp]
  000bd	eb 03		 jmp	 SHORT $L187257
$L187262:

; 417  : 	return m1;

  000bf	dd 45 08	 fld	 QWORD PTR _m1$[ebp]
$L187257:

; 418  : }

  000c2	8b e5		 mov	 esp, ebp
  000c4	5d		 pop	 ebp
  000c5	c2 18 00	 ret	 24			; 00000018H
?HuetoRGB@CGdiEx@@QAENNNN@Z ENDP			; CGdiEx::HuetoRGB
_TEXT	ENDS
PUBLIC	?InterlockedExchangePointer@@YGPAXPAPAXPAX@Z	; InterlockedExchangePointer
PUBLIC	?_AtlGetThreadACPFake@ATL@@YGIXZ		; ATL::_AtlGetThreadACPFake
PUBLIC	?_AtlGetThreadACPReal@ATL@@YGIXZ		; ATL::_AtlGetThreadACPReal
EXTRN	___security_cookie:DWORD
EXTRN	@__security_check_cookie@4:NEAR
EXTRN	__imp__GetVersionExA@4:NEAR
; Function compile flags: /Odt /RTCsu
; File d:\program files (x86)\microsoft visual studio .net 2003\vc7\atlmfc\include\atlconv.h
;	COMDAT ?_AtlGetThreadACPThunk@ATL@@YGIXZ
_TEXT	SEGMENT
_pfnGetThreadACP$ = -164				; size = 4
_ver$ = -156						; size = 148
__$ArrayPad$ = -4					; size = 4
__$ReturnAddr$ = 4					; size = 4
?_AtlGetThreadACPThunk@ATL@@YGIXZ PROC NEAR		; ATL::_AtlGetThreadACPThunk, COMDAT

; 134  : {

  00000	55		 push	 ebp
  00001	8b ec		 mov	 ebp, esp
  00003	81 ec a4 00 00
	00		 sub	 esp, 164		; 000000a4H
  00009	56		 push	 esi
  0000a	57		 push	 edi
  0000b	8d bd 5c ff ff
	ff		 lea	 edi, DWORD PTR [ebp-164]
  00011	b9 29 00 00 00	 mov	 ecx, 41			; 00000029H
  00016	b8 cc cc cc cc	 mov	 eax, -858993460		; ccccccccH
  0001b	f3 ab		 rep stosd
  0001d	a1 00 00 00 00	 mov	 eax, DWORD PTR ___security_cookie
  00022	89 45 fc	 mov	 DWORD PTR __$ArrayPad$[ebp], eax

; 135  : 	OSVERSIONINFO ver;
; 136  : 	ATLGETTHREADACP pfnGetThreadACP;
; 137  : 
; 138  : 	ver.dwOSVersionInfoSize = sizeof( ver );

  00025	c7 85 64 ff ff
	ff 94 00 00 00	 mov	 DWORD PTR _ver$[ebp], 148 ; 00000094H

; 139  : 	::GetVersionEx( &ver );

  0002f	8b f4		 mov	 esi, esp
  00031	8d 85 64 ff ff
	ff		 lea	 eax, DWORD PTR _ver$[ebp]
  00037	50		 push	 eax
  00038	ff 15 00 00 00
	00		 call	 DWORD PTR __imp__GetVersionExA@4
  0003e	3b f4		 cmp	 esi, esp
  00040	e8 00 00 00 00	 call	 __RTC_CheckEsp

; 140  : 	if( (ver.dwPlatformId == VER_PLATFORM_WIN32_NT) && (ver.dwMajorVersion >= 5) )

  00045	83 bd 74 ff ff
	ff 02		 cmp	 DWORD PTR _ver$[ebp+16], 2
  0004c	75 15		 jne	 SHORT $L24163
  0004e	83 bd 68 ff ff
	ff 05		 cmp	 DWORD PTR _ver$[ebp+4], 5
  00055	72 0c		 jb	 SHORT $L24163

; 141  : 	{
; 142  : 		// On Win2K, CP_THREAD_ACP is supported
; 143  : 		pfnGetThreadACP = _AtlGetThreadACPReal;

  00057	c7 85 5c ff ff
	ff 00 00 00 00	 mov	 DWORD PTR _pfnGetThreadACP$[ebp], OFFSET FLAT:?_AtlGetThreadACPReal@ATL@@YGIXZ ; ATL::_AtlGetThreadACPReal

; 144  : 	}
; 145  : 	else

  00061	eb 0a		 jmp	 SHORT $L24164
$L24163:

; 146  : 	{
; 147  : 		pfnGetThreadACP = _AtlGetThreadACPFake;

  00063	c7 85 5c ff ff
	ff 00 00 00 00	 mov	 DWORD PTR _pfnGetThreadACP$[ebp], OFFSET FLAT:?_AtlGetThreadACPFake@ATL@@YGIXZ ; ATL::_AtlGetThreadACPFake
$L24164:

; 148  : 	}
; 149  : 	InterlockedExchangePointer( reinterpret_cast< void** >(&g_pfnGetThreadACP), pfnGetThreadACP );

  0006d	8b 8d 5c ff ff
	ff		 mov	 ecx, DWORD PTR _pfnGetThreadACP$[ebp]
  00073	51		 push	 ecx
  00074	68 00 00 00 00	 push	 OFFSET FLAT:?g_pfnGetThreadACP@ATL@@3P6GIXZA ; ATL::g_pfnGetThreadACP
  00079	e8 00 00 00 00	 call	 ?InterlockedExchangePointer@@YGPAXPAPAXPAX@Z ; InterlockedExchangePointer

; 150  : 
; 151  : 	return( g_pfnGetThreadACP() );

  0007e	8b f4		 mov	 esi, esp
  00080	ff 15 00 00 00
	00		 call	 DWORD PTR ?g_pfnGetThreadACP@ATL@@3P6GIXZA ; ATL::g_pfnGetThreadACP
  00086	3b f4		 cmp	 esi, esp
  00088	e8 00 00 00 00	 call	 __RTC_CheckEsp

; 152  : }

  0008d	52		 push	 edx
  0008e	8b cd		 mov	 ecx, ebp
  00090	50		 push	 eax
  00091	8d 15 00 00 00
	00		 lea	 edx, DWORD PTR $L188533
  00097	e8 00 00 00 00	 call	 @_RTC_CheckStackVars@8
  0009c	58		 pop	 eax
  0009d	5a		 pop	 edx
  0009e	8b 4d fc	 mov	 ecx, DWORD PTR __$ArrayPad$[ebp]
  000a1	e8 00 00 00 00	 call	 @__security_check_cookie@4
  000a6	5f		 pop	 edi
  000a7	5e		 pop	 esi
  000a8	81 c4 a4 00 00
	00		 add	 esp, 164		; 000000a4H
  000ae	3b ec		 cmp	 ebp, esp
  000b0	e8 00 00 00 00	 call	 __RTC_CheckEsp
  000b5	8b e5		 mov	 esp, ebp
  000b7	5d		 pop	 ebp
  000b8	c3		 ret	 0
$L188533:
  000b9	01 00 00 00	 DD	 1
  000bd	00 00 00 00	 DD	 $L188532
$L188532:
  000c1	64 ff ff ff	 DD	 -156			; ffffff64H
  000c5	94 00 00 00	 DD	 148			; 00000094H
  000c9	00 00 00 00	 DD	 $L188529
$L188529:
  000cd	76		 DB	 118			; 00000076H
  000ce	65		 DB	 101			; 00000065H
  000cf	72		 DB	 114			; 00000072H
  000d0	00		 DB	 0
?_AtlGetThreadACPThunk@ATL@@YGIXZ ENDP			; ATL::_AtlGetThreadACPThunk
_TEXT	ENDS
EXTRN	__imp__InterlockedExchange@8:NEAR
; Function compile flags: /Odt /RTCsu
;	COMDAT ?InterlockedExchangePointer@@YGPAXPAPAXPAX@Z
_TEXT	SEGMENT
_pp$ = 8						; size = 4
_pNew$ = 12						; size = 4
?InterlockedExchangePointer@@YGPAXPAPAXPAX@Z PROC NEAR	; InterlockedExchangePointer, COMDAT

; 91   : {

  00000	55		 push	 ebp
  00001	8b ec		 mov	 ebp, esp
  00003	56		 push	 esi

; 92   : 	return( reinterpret_cast<void*>(static_cast<LONG_PTR>(::InterlockedExchange(reinterpret_cast<LONG*>(pp), static_cast<LONG>(reinterpret_cast<LONG_PTR>(pNew))))) );

  00004	8b f4		 mov	 esi, esp
  00006	8b 45 0c	 mov	 eax, DWORD PTR _pNew$[ebp]
  00009	50		 push	 eax
  0000a	8b 4d 08	 mov	 ecx, DWORD PTR _pp$[ebp]
  0000d	51		 push	 ecx
  0000e	ff 15 00 00 00
	00		 call	 DWORD PTR __imp__InterlockedExchange@8
  00014	3b f4		 cmp	 esi, esp
  00016	e8 00 00 00 00	 call	 __RTC_CheckEsp

; 93   : }

  0001b	5e		 pop	 esi
  0001c	3b ec		 cmp	 ebp, esp
  0001e	e8 00 00 00 00	 call	 __RTC_CheckEsp
  00023	5d		 pop	 ebp
  00024	c2 08 00	 ret	 8
?InterlockedExchangePointer@@YGPAXPAPAXPAX@Z ENDP	; InterlockedExchangePointer
_TEXT	ENDS
EXTRN	__imp__GetACP@0:NEAR
EXTRN	__imp__GetLocaleInfoA@16:NEAR
EXTRN	__imp__GetThreadLocale@0:NEAR
; Function compile flags: /Odt /RTCsu
;	COMDAT ?_AtlGetThreadACPFake@ATL@@YGIXZ
_TEXT	SEGMENT
_pch$24151 = -32					; size = 4
_szACP$ = -24						; size = 7
_lcidThread$ = -12					; size = 4
_nACP$ = -8						; size = 4
__$ArrayPad$ = -4					; size = 4
__$ReturnAddr$ = 4					; size = 4
?_AtlGetThreadACPFake@ATL@@YGIXZ PROC NEAR		; ATL::_AtlGetThreadACPFake, COMDAT

; 101  : {

  00000	55		 push	 ebp
  00001	8b ec		 mov	 ebp, esp
  00003	83 ec 20	 sub	 esp, 32			; 00000020H
  00006	56		 push	 esi
  00007	b8 cc cc cc cc	 mov	 eax, -858993460		; ccccccccH
  0000c	89 45 e0	 mov	 DWORD PTR [ebp-32], eax
  0000f	89 45 e4	 mov	 DWORD PTR [ebp-28], eax
  00012	89 45 e8	 mov	 DWORD PTR [ebp-24], eax
  00015	89 45 ec	 mov	 DWORD PTR [ebp-20], eax
  00018	89 45 f0	 mov	 DWORD PTR [ebp-16], eax
  0001b	89 45 f4	 mov	 DWORD PTR [ebp-12], eax
  0001e	89 45 f8	 mov	 DWORD PTR [ebp-8], eax
  00021	89 45 fc	 mov	 DWORD PTR [ebp-4], eax
  00024	a1 00 00 00 00	 mov	 eax, DWORD PTR ___security_cookie
  00029	89 45 fc	 mov	 DWORD PTR __$ArrayPad$[ebp], eax

; 102  : 	UINT nACP = 0;

  0002c	c7 45 f8 00 00
	00 00		 mov	 DWORD PTR _nACP$[ebp], 0

; 103  : 
; 104  : 	LCID lcidThread = ::GetThreadLocale();

  00033	8b f4		 mov	 esi, esp
  00035	ff 15 00 00 00
	00		 call	 DWORD PTR __imp__GetThreadLocale@0
  0003b	3b f4		 cmp	 esi, esp
  0003d	e8 00 00 00 00	 call	 __RTC_CheckEsp
  00042	89 45 f4	 mov	 DWORD PTR _lcidThread$[ebp], eax

; 105  : 
; 106  : 	char szACP[7];
; 107  : 	// GetLocaleInfoA will fail for a Unicode-only LCID, but those are only supported on 
; 108  : 	// Windows 2000.  Since Windows 2000 supports CP_THREAD_ACP, this code path is never
; 109  : 	// executed on Windows 2000.
; 110  : 	if (::GetLocaleInfoA(lcidThread, LOCALE_IDEFAULTANSICODEPAGE, szACP, 7) != 0)

  00045	8b f4		 mov	 esi, esp
  00047	6a 07		 push	 7
  00049	8d 45 e8	 lea	 eax, DWORD PTR _szACP$[ebp]
  0004c	50		 push	 eax
  0004d	68 04 10 00 00	 push	 4100			; 00001004H
  00052	8b 4d f4	 mov	 ecx, DWORD PTR _lcidThread$[ebp]
  00055	51		 push	 ecx
  00056	ff 15 00 00 00
	00		 call	 DWORD PTR __imp__GetLocaleInfoA@16
  0005c	3b f4		 cmp	 esi, esp
  0005e	e8 00 00 00 00	 call	 __RTC_CheckEsp
  00063	85 c0		 test	 eax, eax
  00065	74 34		 je	 SHORT $L24150

; 111  : 	{
; 112  : 		char* pch = szACP;

  00067	8d 55 e8	 lea	 edx, DWORD PTR _szACP$[ebp]
  0006a	89 55 e0	 mov	 DWORD PTR _pch$24151[ebp], edx
$L24153:

; 113  : 		while (*pch != '\0')

  0006d	8b 45 e0	 mov	 eax, DWORD PTR _pch$24151[ebp]
  00070	0f be 08	 movsx	 ecx, BYTE PTR [eax]
  00073	85 c9		 test	 ecx, ecx
  00075	74 24		 je	 SHORT $L24150

; 114  : 		{
; 115  : 			nACP *= 10;

  00077	8b 55 f8	 mov	 edx, DWORD PTR _nACP$[ebp]
  0007a	6b d2 0a	 imul	 edx, 10			; 0000000aH
  0007d	89 55 f8	 mov	 DWORD PTR _nACP$[ebp], edx

; 116  : 			nACP += *pch++ - '0';

  00080	8b 45 e0	 mov	 eax, DWORD PTR _pch$24151[ebp]
  00083	0f be 08	 movsx	 ecx, BYTE PTR [eax]
  00086	8b 55 f8	 mov	 edx, DWORD PTR _nACP$[ebp]
  00089	8d 44 0a d0	 lea	 eax, DWORD PTR [edx+ecx-48]
  0008d	89 45 f8	 mov	 DWORD PTR _nACP$[ebp], eax
  00090	8b 4d e0	 mov	 ecx, DWORD PTR _pch$24151[ebp]
  00093	83 c1 01	 add	 ecx, 1
  00096	89 4d e0	 mov	 DWORD PTR _pch$24151[ebp], ecx

; 117  : 		}

  00099	eb d2		 jmp	 SHORT $L24153
$L24150:

; 118  : 	}
; 119  : 	// Use the Default ANSI Code Page if we were unable to get the thread ACP or if one does not exist.
; 120  : 	if (nACP == 0)

  0009b	83 7d f8 00	 cmp	 DWORD PTR _nACP$[ebp], 0
  0009f	75 12		 jne	 SHORT $L24155

; 121  : 		nACP = ::GetACP();

  000a1	8b f4		 mov	 esi, esp
  000a3	ff 15 00 00 00
	00		 call	 DWORD PTR __imp__GetACP@0
  000a9	3b f4		 cmp	 esi, esp
  000ab	e8 00 00 00 00	 call	 __RTC_CheckEsp
  000b0	89 45 f8	 mov	 DWORD PTR _nACP$[ebp], eax
$L24155:

; 122  : 
; 123  : 	return nACP;

  000b3	8b 45 f8	 mov	 eax, DWORD PTR _nACP$[ebp]

; 124  : }

  000b6	52		 push	 edx
  000b7	8b cd		 mov	 ecx, ebp
  000b9	50		 push	 eax
  000ba	8d 15 00 00 00
	00		 lea	 edx, DWORD PTR $L188541
  000c0	e8 00 00 00 00	 call	 @_RTC_CheckStackVars@8
  000c5	58		 pop	 eax
  000c6	5a		 pop	 edx
  000c7	8b 4d fc	 mov	 ecx, DWORD PTR __$ArrayPad$[ebp]
  000ca	e8 00 00 00 00	 call	 @__security_check_cookie@4
  000cf	5e		 pop	 esi
  000d0	83 c4 20	 add	 esp, 32			; 00000020H
  000d3	3b ec		 cmp	 ebp, esp
  000d5	e8 00 00 00 00	 call	 __RTC_CheckEsp
  000da	8b e5		 mov	 esp, ebp
  000dc	5d		 pop	 ebp
  000dd	c3		 ret	 0
$L188541:
  000de	01 00 00 00	 DD	 1
  000e2	00 00 00 00	 DD	 $L188540
$L188540:
  000e6	e8 ff ff ff	 DD	 -24			; ffffffe8H
  000ea	07 00 00 00	 DD	 7
  000ee	00 00 00 00	 DD	 $L188538
$L188538:
  000f2	73		 DB	 115			; 00000073H
  000f3	7a		 DB	 122			; 0000007aH
  000f4	41		 DB	 65			; 00000041H
  000f5	43		 DB	 67			; 00000043H
  000f6	50		 DB	 80			; 00000050H
  000f7	00		 DB	 0
?_AtlGetThreadACPFake@ATL@@YGIXZ ENDP			; ATL::_AtlGetThreadACPFake
; Function compile flags: /Odt /RTCsu
_TEXT	ENDS
;	COMDAT ?_AtlGetThreadACPReal@ATL@@YGIXZ
_TEXT	SEGMENT
?_AtlGetThreadACPReal@ATL@@YGIXZ PROC NEAR		; ATL::_AtlGetThreadACPReal, COMDAT

; 127  : {

  00000	55		 push	 ebp
  00001	8b ec		 mov	 ebp, esp

; 128  : 	return( CP_THREAD_ACP );

  00003	b8 03 00 00 00	 mov	 eax, 3

; 129  : }

  00008	5d		 pop	 ebp
  00009	c3		 ret	 0
?_AtlGetThreadACPReal@ATL@@YGIXZ ENDP			; ATL::_AtlGetThreadACPReal
_TEXT	ENDS
PUBLIC	__real@436f0000
;	COMDAT __real@436f0000
; File d:\boxgit\playbox\playbox\dev\prj\playbox\src\gui\commoncontrol\listctrol\gdiex.cpp
CONST	SEGMENT
__real@436f0000 DD 0436f0000r			; 239
; Function compile flags: /Odt /RTCsu
CONST	ENDS
_TEXT	SEGMENT
tv388 = -300						; size = 8
tv382 = -292						; size = 4
tv376 = -288						; size = 8
tv354 = -280						; size = 8
tv348 = -272						; size = 4
tv342 = -268						; size = 8
tv319 = -260						; size = 8
tv85 = -252						; size = 4
tv83 = -248						; size = 4
tv79 = -244						; size = 4
tv65 = -240						; size = 4
$T188557 = -236						; size = 8
$T188556 = -228						; size = 8
$T188555 = -220						; size = 8
$T188554 = -212						; size = 8
$T188553 = -204						; size = 8
$T188552 = -196						; size = 8
_nCount$187499 = -188					; size = 4
_nCount$187485 = -184					; size = 4
_hobjOld$187481 = -180					; size = 4
_hbmpMem$187480 = -176					; size = 4
_hdcMem$187479 = -172					; size = 4
_fLStep$187477 = -168					; size = 4
_lL2$187466 = -160					; size = 8
_lS2$187465 = -144					; size = 8
_lH2$187464 = -128					; size = 8
_lB2$187463 = -116					; size = 4
_lG2$187462 = -112					; size = 4
_lR2$187461 = -108					; size = 4
_lL1$187450 = -100					; size = 8
_lS1$187449 = -84					; size = 8
_lH1$187448 = -68					; size = 8
_lB1$187447 = -56					; size = 4
_lG1$187446 = -52					; size = 4
_lR1$187445 = -48					; size = 4
_hbrFill$187441 = -44					; size = 4
_rect$187440 = -36					; size = 16
_fStep$187439 = -16					; size = 4
_nHeight$187437 = -12					; size = 4
_nWidth$187436 = -8					; size = 4
_this$ = -4						; size = 4
_DC$ = 8						; size = 4
_aRect$ = 12						; size = 16
_aBeginColor$ = 28					; size = 4
_aEndColor$ = 32					; size = 4
_aHue$ = 36						; size = 4
_Orientation$ = 40					; size = 4
_abEclosion$ = 44					; size = 4
_anStep$ = 48						; size = 4
?FillRectangleLight@CGdiEx@@UAEXPAUHDC__@@UtagRECT@@KKIW4ENUM_DrawOrientation@@HI@Z PROC NEAR ; CGdiEx::FillRectangleLight
; _this$ = ecx

; 594  : {

  01780	55		 push	 ebp
  01781	8b ec		 mov	 ebp, esp
  01783	81 ec 2c 01 00
	00		 sub	 esp, 300		; 0000012cH
  01789	56		 push	 esi
  0178a	57		 push	 edi
  0178b	51		 push	 ecx
  0178c	8d bd d4 fe ff
	ff		 lea	 edi, DWORD PTR [ebp-300]
  01792	b9 4b 00 00 00	 mov	 ecx, 75			; 0000004bH
  01797	b8 cc cc cc cc	 mov	 eax, -858993460		; ccccccccH
  0179c	f3 ab		 rep stosd
  0179e	59		 pop	 ecx
  0179f	89 4d fc	 mov	 DWORD PTR _this$[ebp], ecx

; 595  : 	aHue = aHue > 239 ? 239 : aHue;

  017a2	81 7d 24 ef 00
	00 00		 cmp	 DWORD PTR _aHue$[ebp], 239 ; 000000efH
  017a9	76 0c		 jbe	 SHORT $L188544
  017ab	c7 85 10 ff ff
	ff ef 00 00 00	 mov	 DWORD PTR tv65[ebp], 239 ; 000000efH
  017b5	eb 09		 jmp	 SHORT $L188545
$L188544:
  017b7	8b 45 24	 mov	 eax, DWORD PTR _aHue$[ebp]
  017ba	89 85 10 ff ff
	ff		 mov	 DWORD PTR tv65[ebp], eax
$L188545:
  017c0	8b 8d 10 ff ff
	ff		 mov	 ecx, DWORD PTR tv65[ebp]
  017c6	89 4d 24	 mov	 DWORD PTR _aHue$[ebp], ecx

; 596  : 	if(aBeginColor == aEndColor)

  017c9	8b 55 1c	 mov	 edx, DWORD PTR _aBeginColor$[ebp]
  017cc	3b 55 20	 cmp	 edx, DWORD PTR _aEndColor$[ebp]
  017cf	75 41		 jne	 SHORT $L187434

; 597  : 	{
; 598  : 		FillRectangle(DC, aRect, aBeginColor,  abEclosion);

  017d1	8b f4		 mov	 esi, esp
  017d3	8b 45 2c	 mov	 eax, DWORD PTR _abEclosion$[ebp]
  017d6	50		 push	 eax
  017d7	8b 4d 1c	 mov	 ecx, DWORD PTR _aBeginColor$[ebp]
  017da	51		 push	 ecx
  017db	83 ec 10	 sub	 esp, 16			; 00000010H
  017de	8b d4		 mov	 edx, esp
  017e0	8b 45 0c	 mov	 eax, DWORD PTR _aRect$[ebp]
  017e3	89 02		 mov	 DWORD PTR [edx], eax
  017e5	8b 4d 10	 mov	 ecx, DWORD PTR _aRect$[ebp+4]
  017e8	89 4a 04	 mov	 DWORD PTR [edx+4], ecx
  017eb	8b 45 14	 mov	 eax, DWORD PTR _aRect$[ebp+8]
  017ee	89 42 08	 mov	 DWORD PTR [edx+8], eax
  017f1	8b 4d 18	 mov	 ecx, DWORD PTR _aRect$[ebp+12]
  017f4	89 4a 0c	 mov	 DWORD PTR [edx+12], ecx
  017f7	8b 55 08	 mov	 edx, DWORD PTR _DC$[ebp]
  017fa	52		 push	 edx
  017fb	8b 45 fc	 mov	 eax, DWORD PTR _this$[ebp]
  017fe	8b 10		 mov	 edx, DWORD PTR [eax]
  01800	8b 4d fc	 mov	 ecx, DWORD PTR _this$[ebp]
  01803	ff 52 0c	 call	 DWORD PTR [edx+12]
  01806	3b f4		 cmp	 esi, esp
  01808	e8 00 00 00 00	 call	 __RTC_CheckEsp

; 599  : 	}
; 600  : 	else

  0180d	e9 b3 04 00 00	 jmp	 $L187433
$L187434:

; 601  : 	{
; 602  : 		int nWidth  = aRect.right  - aRect.left;

  01812	8b 45 14	 mov	 eax, DWORD PTR _aRect$[ebp+8]
  01815	2b 45 0c	 sub	 eax, DWORD PTR _aRect$[ebp]
  01818	89 45 f8	 mov	 DWORD PTR _nWidth$187436[ebp], eax

; 603  : 		int nHeight = aRect.bottom - aRect.top;  

  0181b	8b 4d 18	 mov	 ecx, DWORD PTR _aRect$[ebp+12]
  0181e	2b 4d 10	 sub	 ecx, DWORD PTR _aRect$[ebp+4]
  01821	89 4d f4	 mov	 DWORD PTR _nHeight$187437[ebp], ecx

; 604  : 		if(!(nWidth<=0|| nHeight<= 0))

  01824	83 7d f8 00	 cmp	 DWORD PTR _nWidth$187436[ebp], 0
  01828	0f 8e 97 04 00
	00		 jle	 $L187433
  0182e	83 7d f4 00	 cmp	 DWORD PTR _nHeight$187437[ebp], 0
  01832	0f 8e 8d 04 00
	00		 jle	 $L187433

; 605  : 		{
; 606  : 			float fStep;
; 607  : 			RECT rect;
; 608  : 			HBRUSH hbrFill;
; 609  : 			anStep = anStep == 1 ?  10:anStep;

  01838	83 7d 30 01	 cmp	 DWORD PTR _anStep$[ebp], 1
  0183c	75 0c		 jne	 SHORT $L188546
  0183e	c7 85 0c ff ff
	ff 0a 00 00 00	 mov	 DWORD PTR tv79[ebp], 10	; 0000000aH
  01848	eb 09		 jmp	 SHORT $L188547
$L188546:
  0184a	8b 55 30	 mov	 edx, DWORD PTR _anStep$[ebp]
  0184d	89 95 0c ff ff
	ff		 mov	 DWORD PTR tv79[ebp], edx
$L188547:
  01853	8b 85 0c ff ff
	ff		 mov	 eax, DWORD PTR tv79[ebp]
  01859	89 45 30	 mov	 DWORD PTR _anStep$[ebp], eax

; 610  : 			if( -1 == anStep)

  0185c	83 7d 30 ff	 cmp	 DWORD PTR _anStep$[ebp], -1
  01860	75 50		 jne	 SHORT $L187442

; 611  : 			{
; 612  : 				if(true == Orientation)

  01862	83 7d 28 01	 cmp	 DWORD PTR _Orientation$[ebp], 1
  01866	75 26		 jne	 SHORT $L187443

; 613  : 				{
; 614  : 					anStep = nHeight > 10 ? 10 : nHeight;

  01868	83 7d f4 0a	 cmp	 DWORD PTR _nHeight$187437[ebp], 10 ; 0000000aH
  0186c	7e 0c		 jle	 SHORT $L188548
  0186e	c7 85 08 ff ff
	ff 0a 00 00 00	 mov	 DWORD PTR tv83[ebp], 10	; 0000000aH
  01878	eb 09		 jmp	 SHORT $L188549
$L188548:
  0187a	8b 4d f4	 mov	 ecx, DWORD PTR _nHeight$187437[ebp]
  0187d	89 8d 08 ff ff
	ff		 mov	 DWORD PTR tv83[ebp], ecx
$L188549:
  01883	8b 95 08 ff ff
	ff		 mov	 edx, DWORD PTR tv83[ebp]
  01889	89 55 30	 mov	 DWORD PTR _anStep$[ebp], edx

; 615  : 
; 616  : 				}
; 617  : 				else

  0188c	eb 24		 jmp	 SHORT $L187442
$L187443:

; 618  : 				{
; 619  : 					anStep = nWidth >= 10 ? 10: nWidth;

  0188e	83 7d f8 0a	 cmp	 DWORD PTR _nWidth$187436[ebp], 10 ; 0000000aH
  01892	7c 0c		 jl	 SHORT $L188550
  01894	c7 85 04 ff ff
	ff 0a 00 00 00	 mov	 DWORD PTR tv85[ebp], 10	; 0000000aH
  0189e	eb 09		 jmp	 SHORT $L188551
$L188550:
  018a0	8b 45 f8	 mov	 eax, DWORD PTR _nWidth$187436[ebp]
  018a3	89 85 04 ff ff
	ff		 mov	 DWORD PTR tv85[ebp], eax
$L188551:
  018a9	8b 8d 04 ff ff
	ff		 mov	 ecx, DWORD PTR tv85[ebp]
  018af	89 4d 30	 mov	 DWORD PTR _anStep$[ebp], ecx
$L187442:

; 620  : 				}
; 621  : 			}
; 622  : 
; 623  : 			int    lR1,lG1,lB1;
; 624  : 			double lH1,lS1,lL1;
; 625  : 			lR1 = GetRValue( aBeginColor );

  018b2	0f b6 55 1c	 movzx	 edx, BYTE PTR _aBeginColor$[ebp]
  018b6	89 55 d0	 mov	 DWORD PTR _lR1$187445[ebp], edx

; 626  : 			lG1 = GetGValue( aBeginColor );

  018b9	0f b7 45 1c	 movzx	 eax, WORD PTR _aBeginColor$[ebp]
  018bd	c1 f8 08	 sar	 eax, 8
  018c0	0f b6 c8	 movzx	 ecx, al
  018c3	89 4d cc	 mov	 DWORD PTR _lG1$187446[ebp], ecx

; 627  : 			lB1 = GetBValue( aBeginColor );

  018c6	8b 55 1c	 mov	 edx, DWORD PTR _aBeginColor$[ebp]
  018c9	c1 ea 10	 shr	 edx, 16			; 00000010H
  018cc	0f b6 c2	 movzx	 eax, dl
  018cf	89 45 c8	 mov	 DWORD PTR _lB1$187447[ebp], eax

; 628  : 			RGBtoHSL(RGB(lR1,lG1,lB1),&lH1,&lS1,&lL1);

  018d2	8d 4d 9c	 lea	 ecx, DWORD PTR _lL1$187450[ebp]
  018d5	51		 push	 ecx
  018d6	8d 55 ac	 lea	 edx, DWORD PTR _lS1$187449[ebp]
  018d9	52		 push	 edx
  018da	8d 45 bc	 lea	 eax, DWORD PTR _lH1$187448[ebp]
  018dd	50		 push	 eax
  018de	0f b6 4d d0	 movzx	 ecx, BYTE PTR _lR1$187445[ebp]
  018e2	0f b6 55 cc	 movzx	 edx, BYTE PTR _lG1$187446[ebp]
  018e6	c1 e2 08	 shl	 edx, 8
  018e9	0b ca		 or	 ecx, edx
  018eb	0f b6 45 c8	 movzx	 eax, BYTE PTR _lB1$187447[ebp]
  018ef	c1 e0 10	 shl	 eax, 16			; 00000010H
  018f2	0b c8		 or	 ecx, eax
  018f4	51		 push	 ecx
  018f5	8b 4d fc	 mov	 ecx, DWORD PTR _this$[ebp]
  018f8	e8 00 00 00 00	 call	 ?RGBtoHSL@CGdiEx@@QAEXKPAN00@Z ; CGdiEx::RGBtoHSL

; 629  : 
; 630  : 			int    lR2,lG2,lB2;
; 631  : 			double lH2,lS2,lL2;
; 632  : 			lR2 = GetRValue( aEndColor );

  018fd	0f b6 4d 20	 movzx	 ecx, BYTE PTR _aEndColor$[ebp]
  01901	89 4d 94	 mov	 DWORD PTR _lR2$187461[ebp], ecx

; 633  : 			lG2 = GetGValue( aEndColor );

  01904	0f b7 55 20	 movzx	 edx, WORD PTR _aEndColor$[ebp]
  01908	c1 fa 08	 sar	 edx, 8
  0190b	0f b6 c2	 movzx	 eax, dl
  0190e	89 45 90	 mov	 DWORD PTR _lG2$187462[ebp], eax

; 634  : 			lB2 = GetBValue( aEndColor );

  01911	8b 4d 20	 mov	 ecx, DWORD PTR _aEndColor$[ebp]
  01914	c1 e9 10	 shr	 ecx, 16			; 00000010H
  01917	0f b6 d1	 movzx	 edx, cl
  0191a	89 55 8c	 mov	 DWORD PTR _lB2$187463[ebp], edx

; 635  : 			RGBtoHSL(RGB(lR2,lG2,lB2),&lH2,&lS2,&lL2);

  0191d	8d 85 60 ff ff
	ff		 lea	 eax, DWORD PTR _lL2$187466[ebp]
  01923	50		 push	 eax
  01924	8d 8d 70 ff ff
	ff		 lea	 ecx, DWORD PTR _lS2$187465[ebp]
  0192a	51		 push	 ecx
  0192b	8d 55 80	 lea	 edx, DWORD PTR _lH2$187464[ebp]
  0192e	52		 push	 edx
  0192f	0f b6 45 94	 movzx	 eax, BYTE PTR _lR2$187461[ebp]
  01933	0f b6 4d 90	 movzx	 ecx, BYTE PTR _lG2$187462[ebp]
  01937	c1 e1 08	 shl	 ecx, 8
  0193a	0b c1		 or	 eax, ecx
  0193c	0f b6 55 8c	 movzx	 edx, BYTE PTR _lB2$187463[ebp]
  01940	c1 e2 10	 shl	 edx, 16			; 00000010H
  01943	0b c2		 or	 eax, edx
  01945	50		 push	 eax
  01946	8b 4d fc	 mov	 ecx, DWORD PTR _this$[ebp]
  01949	e8 00 00 00 00	 call	 ?RGBtoHSL@CGdiEx@@QAEXKPAN00@Z ; CGdiEx::RGBtoHSL

; 636  : 
; 637  : 			float fLStep = ( lL2 - lL1 )*240 / (float)anStep;

  0194e	dd 85 60 ff ff
	ff		 fld	 QWORD PTR _lL2$187466[ebp]
  01954	dc 65 9c	 fsub	 QWORD PTR _lL1$187450[ebp]
  01957	dc 0d 00 00 00
	00		 fmul	 QWORD PTR __real@406e000000000000
  0195d	8b 45 30	 mov	 eax, DWORD PTR _anStep$[ebp]
  01960	89 85 fc fe ff
	ff		 mov	 DWORD PTR tv319[ebp], eax
  01966	c7 85 00 ff ff
	ff 00 00 00 00	 mov	 DWORD PTR tv319[ebp+4], 0
  01970	df ad fc fe ff
	ff		 fild	 QWORD PTR tv319[ebp]
  01976	de f9		 fdivp	 ST(1), ST(0)
  01978	d9 9d 58 ff ff
	ff		 fstp	 DWORD PTR _fLStep$187477[ebp]

; 638  : 			HDC hdcMem   = ::CreateCompatibleDC( DC );

  0197e	8b f4		 mov	 esi, esp
  01980	8b 4d 08	 mov	 ecx, DWORD PTR _DC$[ebp]
  01983	51		 push	 ecx
  01984	ff 15 00 00 00
	00		 call	 DWORD PTR __imp__CreateCompatibleDC@4
  0198a	3b f4		 cmp	 esi, esp
  0198c	e8 00 00 00 00	 call	 __RTC_CheckEsp
  01991	89 85 54 ff ff
	ff		 mov	 DWORD PTR _hdcMem$187479[ebp], eax

; 639  : 			HBITMAP hbmpMem  = ::CreateCompatibleBitmap( DC, nWidth, nHeight );

  01997	8b f4		 mov	 esi, esp
  01999	8b 55 f4	 mov	 edx, DWORD PTR _nHeight$187437[ebp]
  0199c	52		 push	 edx
  0199d	8b 45 f8	 mov	 eax, DWORD PTR _nWidth$187436[ebp]
  019a0	50		 push	 eax
  019a1	8b 4d 08	 mov	 ecx, DWORD PTR _DC$[ebp]
  019a4	51		 push	 ecx
  019a5	ff 15 00 00 00
	00		 call	 DWORD PTR __imp__CreateCompatibleBitmap@12
  019ab	3b f4		 cmp	 esi, esp
  019ad	e8 00 00 00 00	 call	 __RTC_CheckEsp
  019b2	89 85 50 ff ff
	ff		 mov	 DWORD PTR _hbmpMem$187480[ebp], eax

; 640  : 			HGDIOBJ hobjOld  = ::SelectObject( hdcMem, hbmpMem );

  019b8	8b f4		 mov	 esi, esp
  019ba	8b 95 50 ff ff
	ff		 mov	 edx, DWORD PTR _hbmpMem$187480[ebp]
  019c0	52		 push	 edx
  019c1	8b 85 54 ff ff
	ff		 mov	 eax, DWORD PTR _hdcMem$187479[ebp]
  019c7	50		 push	 eax
  019c8	ff 15 00 00 00
	00		 call	 DWORD PTR __imp__SelectObject@8
  019ce	3b f4		 cmp	 esi, esp
  019d0	e8 00 00 00 00	 call	 __RTC_CheckEsp
  019d5	89 85 4c ff ff
	ff		 mov	 DWORD PTR _hobjOld$187481[ebp], eax

; 641  : 
; 642  : 			rect.top = rect.left = 0;

  019db	c7 45 dc 00 00
	00 00		 mov	 DWORD PTR _rect$187440[ebp], 0
  019e2	8b 4d dc	 mov	 ecx, DWORD PTR _rect$187440[ebp]
  019e5	89 4d e0	 mov	 DWORD PTR _rect$187440[ebp+4], ecx

; 643  : 
; 644  : 			if ( Orientation )

  019e8	83 7d 28 00	 cmp	 DWORD PTR _Orientation$[ebp], 0
  019ec	0f 84 2e 01 00
	00		 je	 $L187482

; 645  : 			{
; 646  : 				rect.right= nWidth;

  019f2	8b 55 f8	 mov	 edx, DWORD PTR _nWidth$187436[ebp]
  019f5	89 55 e4	 mov	 DWORD PTR _rect$187440[ebp+8], edx

; 647  : 				fStep= (float)nHeight / (float)anStep;

  019f8	db 45 f4	 fild	 DWORD PTR _nHeight$187437[ebp]
  019fb	8b 45 30	 mov	 eax, DWORD PTR _anStep$[ebp]
  019fe	89 85 f4 fe ff
	ff		 mov	 DWORD PTR tv342[ebp], eax
  01a04	c7 85 f8 fe ff
	ff 00 00 00 00	 mov	 DWORD PTR tv342[ebp+4], 0
  01a0e	df ad f4 fe ff
	ff		 fild	 QWORD PTR tv342[ebp]
  01a14	de f9		 fdivp	 ST(1), ST(0)
  01a16	d9 5d f0	 fstp	 DWORD PTR _fStep$187439[ebp]

; 648  : 
; 649  : 				for ( int nCount=0; nCount<=anStep; nCount++ )

  01a19	c7 85 48 ff ff
	ff 00 00 00 00	 mov	 DWORD PTR _nCount$187485[ebp], 0
  01a23	eb 0f		 jmp	 SHORT $L187486
$L187487:
  01a25	8b 8d 48 ff ff
	ff		 mov	 ecx, DWORD PTR _nCount$187485[ebp]
  01a2b	83 c1 01	 add	 ecx, 1
  01a2e	89 8d 48 ff ff
	ff		 mov	 DWORD PTR _nCount$187485[ebp], ecx
$L187486:
  01a34	8b 95 48 ff ff
	ff		 mov	 edx, DWORD PTR _nCount$187485[ebp]
  01a3a	3b 55 30	 cmp	 edx, DWORD PTR _anStep$[ebp]
  01a3d	0f 87 d8 00 00
	00		 ja	 $L187488

; 650  : 				{
; 651  : 					rect.bottom = (int)( (nCount+1) * fStep );

  01a43	8b 85 48 ff ff
	ff		 mov	 eax, DWORD PTR _nCount$187485[ebp]
  01a49	83 c0 01	 add	 eax, 1
  01a4c	89 85 f0 fe ff
	ff		 mov	 DWORD PTR tv348[ebp], eax
  01a52	db 85 f0 fe ff
	ff		 fild	 DWORD PTR tv348[ebp]
  01a58	d8 4d f0	 fmul	 DWORD PTR _fStep$187439[ebp]
  01a5b	e8 00 00 00 00	 call	 __ftol2
  01a60	89 45 e8	 mov	 DWORD PTR _rect$187440[ebp+12], eax

; 652  : 
; 653  : 					hbrFill = ::CreateSolidBrush( HLStoRGB((double)(aHue/(float)(239) ) ,lL1+fLStep*nCount/(float)(240),1.0 )  );

  01a63	dd 05 00 00 00
	00		 fld	 QWORD PTR __real@3ff0000000000000
  01a69	dd 9d 3c ff ff
	ff		 fstp	 QWORD PTR $T188552[ebp]
  01a6f	db 85 48 ff ff
	ff		 fild	 DWORD PTR _nCount$187485[ebp]
  01a75	d8 8d 58 ff ff
	ff		 fmul	 DWORD PTR _fLStep$187477[ebp]
  01a7b	d8 35 00 00 00
	00		 fdiv	 DWORD PTR __real@43700000
  01a81	dc 45 9c	 fadd	 QWORD PTR _lL1$187450[ebp]
  01a84	dd 9d 34 ff ff
	ff		 fstp	 QWORD PTR $T188553[ebp]
  01a8a	8b 4d 24	 mov	 ecx, DWORD PTR _aHue$[ebp]
  01a8d	89 8d e8 fe ff
	ff		 mov	 DWORD PTR tv354[ebp], ecx
  01a93	c7 85 ec fe ff
	ff 00 00 00 00	 mov	 DWORD PTR tv354[ebp+4], 0
  01a9d	df ad e8 fe ff
	ff		 fild	 QWORD PTR tv354[ebp]
  01aa3	d8 35 00 00 00
	00		 fdiv	 DWORD PTR __real@436f0000
  01aa9	dd 9d 2c ff ff
	ff		 fstp	 QWORD PTR $T188554[ebp]
  01aaf	8d 95 3c ff ff
	ff		 lea	 edx, DWORD PTR $T188552[ebp]
  01ab5	52		 push	 edx
  01ab6	8d 85 34 ff ff
	ff		 lea	 eax, DWORD PTR $T188553[ebp]
  01abc	50		 push	 eax
  01abd	8d 8d 2c ff ff
	ff		 lea	 ecx, DWORD PTR $T188554[ebp]
  01ac3	51		 push	 ecx
  01ac4	8b 4d fc	 mov	 ecx, DWORD PTR _this$[ebp]
  01ac7	e8 00 00 00 00	 call	 ?HLStoRGB@CGdiEx@@QAEKABN00@Z ; CGdiEx::HLStoRGB
  01acc	8b f4		 mov	 esi, esp
  01ace	50		 push	 eax
  01acf	ff 15 00 00 00
	00		 call	 DWORD PTR __imp__CreateSolidBrush@4
  01ad5	3b f4		 cmp	 esi, esp
  01ad7	e8 00 00 00 00	 call	 __RTC_CheckEsp
  01adc	89 45 d4	 mov	 DWORD PTR _hbrFill$187441[ebp], eax

; 654  : 					::FillRect( hdcMem, &rect, hbrFill );

  01adf	8b f4		 mov	 esi, esp
  01ae1	8b 55 d4	 mov	 edx, DWORD PTR _hbrFill$187441[ebp]
  01ae4	52		 push	 edx
  01ae5	8d 45 dc	 lea	 eax, DWORD PTR _rect$187440[ebp]
  01ae8	50		 push	 eax
  01ae9	8b 8d 54 ff ff
	ff		 mov	 ecx, DWORD PTR _hdcMem$187479[ebp]
  01aef	51		 push	 ecx
  01af0	ff 15 00 00 00
	00		 call	 DWORD PTR __imp__FillRect@12
  01af6	3b f4		 cmp	 esi, esp
  01af8	e8 00 00 00 00	 call	 __RTC_CheckEsp

; 655  : 					::DeleteObject( hbrFill );

  01afd	8b f4		 mov	 esi, esp
  01aff	8b 55 d4	 mov	 edx, DWORD PTR _hbrFill$187441[ebp]
  01b02	52		 push	 edx
  01b03	ff 15 00 00 00
	00		 call	 DWORD PTR __imp__DeleteObject@4
  01b09	3b f4		 cmp	 esi, esp
  01b0b	e8 00 00 00 00	 call	 __RTC_CheckEsp

; 656  : 
; 657  : 					rect.top = rect.bottom;

  01b10	8b 45 e8	 mov	 eax, DWORD PTR _rect$187440[ebp+12]
  01b13	89 45 e0	 mov	 DWORD PTR _rect$187440[ebp+4], eax

; 658  : 				}

  01b16	e9 0a ff ff ff	 jmp	 $L187487
$L187488:

; 659  : 			}
; 660  : 			else

  01b1b	e9 29 01 00 00	 jmp	 $L187496
$L187482:

; 661  : 			{
; 662  : 				rect.bottom = nHeight;

  01b20	8b 4d f4	 mov	 ecx, DWORD PTR _nHeight$187437[ebp]
  01b23	89 4d e8	 mov	 DWORD PTR _rect$187440[ebp+12], ecx

; 663  : 				fStep= (float)nWidth / (float)anStep;

  01b26	db 45 f8	 fild	 DWORD PTR _nWidth$187436[ebp]
  01b29	8b 55 30	 mov	 edx, DWORD PTR _anStep$[ebp]
  01b2c	89 95 e0 fe ff
	ff		 mov	 DWORD PTR tv376[ebp], edx
  01b32	c7 85 e4 fe ff
	ff 00 00 00 00	 mov	 DWORD PTR tv376[ebp+4], 0
  01b3c	df ad e0 fe ff
	ff		 fild	 QWORD PTR tv376[ebp]
  01b42	de f9		 fdivp	 ST(1), ST(0)
  01b44	d9 5d f0	 fstp	 DWORD PTR _fStep$187439[ebp]

; 664  : 
; 665  : 				for ( int nCount=0; nCount<=anStep; nCount++ )

  01b47	c7 85 44 ff ff
	ff 00 00 00 00	 mov	 DWORD PTR _nCount$187499[ebp], 0
  01b51	eb 0f		 jmp	 SHORT $L187500
$L187501:
  01b53	8b 85 44 ff ff
	ff		 mov	 eax, DWORD PTR _nCount$187499[ebp]
  01b59	83 c0 01	 add	 eax, 1
  01b5c	89 85 44 ff ff
	ff		 mov	 DWORD PTR _nCount$187499[ebp], eax
$L187500:
  01b62	8b 8d 44 ff ff
	ff		 mov	 ecx, DWORD PTR _nCount$187499[ebp]
  01b68	3b 4d 30	 cmp	 ecx, DWORD PTR _anStep$[ebp]
  01b6b	0f 87 d8 00 00
	00		 ja	 $L187496

; 666  : 				{
; 667  : 					rect.right= (int)( (nCount+1) * fStep );

  01b71	8b 95 44 ff ff
	ff		 mov	 edx, DWORD PTR _nCount$187499[ebp]
  01b77	83 c2 01	 add	 edx, 1
  01b7a	89 95 dc fe ff
	ff		 mov	 DWORD PTR tv382[ebp], edx
  01b80	db 85 dc fe ff
	ff		 fild	 DWORD PTR tv382[ebp]
  01b86	d8 4d f0	 fmul	 DWORD PTR _fStep$187439[ebp]
  01b89	e8 00 00 00 00	 call	 __ftol2
  01b8e	89 45 e4	 mov	 DWORD PTR _rect$187440[ebp+8], eax

; 668  : 					hbrFill = ::CreateSolidBrush( HLStoRGB((double)(aHue/(float)(239)) ,lL1+fLStep*nCount/(float)(240),1.0 )  );

  01b91	dd 05 00 00 00
	00		 fld	 QWORD PTR __real@3ff0000000000000
  01b97	dd 9d 24 ff ff
	ff		 fstp	 QWORD PTR $T188555[ebp]
  01b9d	db 85 44 ff ff
	ff		 fild	 DWORD PTR _nCount$187499[ebp]
  01ba3	d8 8d 58 ff ff
	ff		 fmul	 DWORD PTR _fLStep$187477[ebp]
  01ba9	d8 35 00 00 00
	00		 fdiv	 DWORD PTR __real@43700000
  01baf	dc 45 9c	 fadd	 QWORD PTR _lL1$187450[ebp]
  01bb2	dd 9d 1c ff ff
	ff		 fstp	 QWORD PTR $T188556[ebp]
  01bb8	8b 45 24	 mov	 eax, DWORD PTR _aHue$[ebp]
  01bbb	89 85 d4 fe ff
	ff		 mov	 DWORD PTR tv388[ebp], eax
  01bc1	c7 85 d8 fe ff
	ff 00 00 00 00	 mov	 DWORD PTR tv388[ebp+4], 0
  01bcb	df ad d4 fe ff
	ff		 fild	 QWORD PTR tv388[ebp]
  01bd1	d8 35 00 00 00
	00		 fdiv	 DWORD PTR __real@436f0000
  01bd7	dd 9d 14 ff ff
	ff		 fstp	 QWORD PTR $T188557[ebp]
  01bdd	8d 8d 24 ff ff
	ff		 lea	 ecx, DWORD PTR $T188555[ebp]
  01be3	51		 push	 ecx
  01be4	8d 95 1c ff ff
	ff		 lea	 edx, DWORD PTR $T188556[ebp]
  01bea	52		 push	 edx
  01beb	8d 85 14 ff ff
	ff		 lea	 eax, DWORD PTR $T188557[ebp]
  01bf1	50		 push	 eax
  01bf2	8b 4d fc	 mov	 ecx, DWORD PTR _this$[ebp]
  01bf5	e8 00 00 00 00	 call	 ?HLStoRGB@CGdiEx@@QAEKABN00@Z ; CGdiEx::HLStoRGB
  01bfa	8b f4		 mov	 esi, esp
  01bfc	50		 push	 eax
  01bfd	ff 15 00 00 00
	00		 call	 DWORD PTR __imp__CreateSolidBrush@4
  01c03	3b f4		 cmp	 esi, esp
  01c05	e8 00 00 00 00	 call	 __RTC_CheckEsp
  01c0a	89 45 d4	 mov	 DWORD PTR _hbrFill$187441[ebp], eax

; 669  : 					::FillRect( hdcMem, &rect, hbrFill );

  01c0d	8b f4		 mov	 esi, esp
  01c0f	8b 4d d4	 mov	 ecx, DWORD PTR _hbrFill$187441[ebp]
  01c12	51		 push	 ecx
  01c13	8d 55 dc	 lea	 edx, DWORD PTR _rect$187440[ebp]
  01c16	52		 push	 edx
  01c17	8b 85 54 ff ff
	ff		 mov	 eax, DWORD PTR _hdcMem$187479[ebp]
  01c1d	50		 push	 eax
  01c1e	ff 15 00 00 00
	00		 call	 DWORD PTR __imp__FillRect@12
  01c24	3b f4		 cmp	 esi, esp
  01c26	e8 00 00 00 00	 call	 __RTC_CheckEsp

; 670  : 					::DeleteObject( hbrFill );

  01c2b	8b f4		 mov	 esi, esp
  01c2d	8b 4d d4	 mov	 ecx, DWORD PTR _hbrFill$187441[ebp]
  01c30	51		 push	 ecx
  01c31	ff 15 00 00 00
	00		 call	 DWORD PTR __imp__DeleteObject@4
  01c37	3b f4		 cmp	 esi, esp
  01c39	e8 00 00 00 00	 call	 __RTC_CheckEsp

; 671  : 
; 672  : 					rect.left = rect.right;

  01c3e	8b 55 e4	 mov	 edx, DWORD PTR _rect$187440[ebp+8]
  01c41	89 55 dc	 mov	 DWORD PTR _rect$187440[ebp], edx

; 673  : 				}

  01c44	e9 0a ff ff ff	 jmp	 $L187501
$L187496:

; 674  : 			}
; 675  : 
; 676  : 			::BitBlt( DC, aRect.left, aRect.top, nWidth, nHeight, hdcMem, 0, 0, SRCCOPY );

  01c49	8b f4		 mov	 esi, esp
  01c4b	68 20 00 cc 00	 push	 13369376		; 00cc0020H
  01c50	6a 00		 push	 0
  01c52	6a 00		 push	 0
  01c54	8b 85 54 ff ff
	ff		 mov	 eax, DWORD PTR _hdcMem$187479[ebp]
  01c5a	50		 push	 eax
  01c5b	8b 4d f4	 mov	 ecx, DWORD PTR _nHeight$187437[ebp]
  01c5e	51		 push	 ecx
  01c5f	8b 55 f8	 mov	 edx, DWORD PTR _nWidth$187436[ebp]
  01c62	52		 push	 edx
  01c63	8b 45 10	 mov	 eax, DWORD PTR _aRect$[ebp+4]
  01c66	50		 push	 eax
  01c67	8b 4d 0c	 mov	 ecx, DWORD PTR _aRect$[ebp]
  01c6a	51		 push	 ecx
  01c6b	8b 55 08	 mov	 edx, DWORD PTR _DC$[ebp]
  01c6e	52		 push	 edx
  01c6f	ff 15 00 00 00
	00		 call	 DWORD PTR __imp__BitBlt@36
  01c75	3b f4		 cmp	 esi, esp
  01c77	e8 00 00 00 00	 call	 __RTC_CheckEsp

; 677  : 
; 678  : 			::SelectObject( hdcMem, hobjOld );

  01c7c	8b f4		 mov	 esi, esp
  01c7e	8b 85 4c ff ff
	ff		 mov	 eax, DWORD PTR _hobjOld$187481[ebp]
  01c84	50		 push	 eax
  01c85	8b 8d 54 ff ff
	ff		 mov	 ecx, DWORD PTR _hdcMem$187479[ebp]
  01c8b	51		 push	 ecx
  01c8c	ff 15 00 00 00
	00		 call	 DWORD PTR __imp__SelectObject@8
  01c92	3b f4		 cmp	 esi, esp
  01c94	e8 00 00 00 00	 call	 __RTC_CheckEsp

; 679  : 			::DeleteObject( hbmpMem );

  01c99	8b f4		 mov	 esi, esp
  01c9b	8b 95 50 ff ff
	ff		 mov	 edx, DWORD PTR _hbmpMem$187480[ebp]
  01ca1	52		 push	 edx
  01ca2	ff 15 00 00 00
	00		 call	 DWORD PTR __imp__DeleteObject@4
  01ca8	3b f4		 cmp	 esi, esp
  01caa	e8 00 00 00 00	 call	 __RTC_CheckEsp

; 680  : 			::DeleteDC( hdcMem );

  01caf	8b f4		 mov	 esi, esp
  01cb1	8b 85 54 ff ff
	ff		 mov	 eax, DWORD PTR _hdcMem$187479[ebp]
  01cb7	50		 push	 eax
  01cb8	ff 15 00 00 00
	00		 call	 DWORD PTR __imp__DeleteDC@4
  01cbe	3b f4		 cmp	 esi, esp
  01cc0	e8 00 00 00 00	 call	 __RTC_CheckEsp
$L187433:

; 681  : 		}
; 682  : 	}
; 683  : }

  01cc5	52		 push	 edx
  01cc6	8b cd		 mov	 ecx, ebp
  01cc8	50		 push	 eax
  01cc9	8d 15 00 00 00
	00		 lea	 edx, DWORD PTR $L188568
  01ccf	e8 00 00 00 00	 call	 @_RTC_CheckStackVars@8
  01cd4	58		 pop	 eax
  01cd5	5a		 pop	 edx
  01cd6	5f		 pop	 edi
  01cd7	5e		 pop	 esi
  01cd8	81 c4 2c 01 00
	00		 add	 esp, 300		; 0000012cH
  01cde	3b ec		 cmp	 ebp, esp
  01ce0	e8 00 00 00 00	 call	 __RTC_CheckEsp
  01ce5	8b e5		 mov	 esp, ebp
  01ce7	5d		 pop	 ebp
  01ce8	c2 2c 00	 ret	 44			; 0000002cH
$L188568:
  01ceb	07 00 00 00	 DD	 7
  01cef	00 00 00 00	 DD	 $L188567
$L188567:
  01cf3	dc ff ff ff	 DD	 -36			; ffffffdcH
  01cf7	10 00 00 00	 DD	 16			; 00000010H
  01cfb	00 00 00 00	 DD	 $L188560
  01cff	bc ff ff ff	 DD	 -68			; ffffffbcH
  01d03	08 00 00 00	 DD	 8
  01d07	00 00 00 00	 DD	 $L188561
  01d0b	ac ff ff ff	 DD	 -84			; ffffffacH
  01d0f	08 00 00 00	 DD	 8
  01d13	00 00 00 00	 DD	 $L188562
  01d17	9c ff ff ff	 DD	 -100			; ffffff9cH
  01d1b	08 00 00 00	 DD	 8
  01d1f	00 00 00 00	 DD	 $L188563
  01d23	80 ff ff ff	 DD	 -128			; ffffff80H
  01d27	08 00 00 00	 DD	 8
  01d2b	00 00 00 00	 DD	 $L188564
  01d2f	70 ff ff ff	 DD	 -144			; ffffff70H
  01d33	08 00 00 00	 DD	 8
  01d37	00 00 00 00	 DD	 $L188565
  01d3b	60 ff ff ff	 DD	 -160			; ffffff60H
  01d3f	08 00 00 00	 DD	 8
  01d43	00 00 00 00	 DD	 $L188566
$L188566:
  01d47	6c		 DB	 108			; 0000006cH
  01d48	4c		 DB	 76			; 0000004cH
  01d49	32		 DB	 50			; 00000032H
  01d4a	00		 DB	 0
$L188565:
  01d4b	6c		 DB	 108			; 0000006cH
  01d4c	53		 DB	 83			; 00000053H
  01d4d	32		 DB	 50			; 00000032H
  01d4e	00		 DB	 0
$L188564:
  01d4f	6c		 DB	 108			; 0000006cH
  01d50	48		 DB	 72			; 00000048H
  01d51	32		 DB	 50			; 00000032H
  01d52	00		 DB	 0
$L188563:
  01d53	6c		 DB	 108			; 0000006cH
  01d54	4c		 DB	 76			; 0000004cH
  01d55	31		 DB	 49			; 00000031H
  01d56	00		 DB	 0
$L188562:
  01d57	6c		 DB	 108			; 0000006cH
  01d58	53		 DB	 83			; 00000053H
  01d59	31		 DB	 49			; 00000031H
  01d5a	00		 DB	 0
$L188561:
  01d5b	6c		 DB	 108			; 0000006cH
  01d5c	48		 DB	 72			; 00000048H
  01d5d	31		 DB	 49			; 00000031H
  01d5e	00		 DB	 0
$L188560:
  01d5f	72		 DB	 114			; 00000072H
  01d60	65		 DB	 101			; 00000065H
  01d61	63		 DB	 99			; 00000063H
  01d62	74		 DB	 116			; 00000074H
  01d63	00		 DB	 0
?FillRectangleLight@CGdiEx@@UAEXPAUHDC__@@UtagRECT@@KKIW4ENUM_DrawOrientation@@HI@Z ENDP ; CGdiEx::FillRectangleLight
_TEXT	ENDS
EXTRN	?FromHandle@CDC@@SGPAV1@PAUHDC__@@@Z:NEAR	; CDC::FromHandle
EXTRN	?FrameRect@CDC@@QAEXPBUtagRECT@@PAVCBrush@@@Z:NEAR ; CDC::FrameRect
; Function compile flags: /Odt /RTCsu
_TEXT	SEGMENT
_pDC$ = -8						; size = 4
_this$ = -4						; size = 4
_DC$ = 8						; size = 4
_aRect$ = 12						; size = 4
_pBrush$ = 16						; size = 4
?FrameRect@CGdiEx@@UAEXPAUHDC__@@AAUtagRECT@@PAVCBrush@@@Z PROC NEAR ; CGdiEx::FrameRect
; _this$ = ecx

; 685  : {

  01d70	55		 push	 ebp
  01d71	8b ec		 mov	 ebp, esp
  01d73	83 ec 08	 sub	 esp, 8
  01d76	c7 45 f8 cc cc
	cc cc		 mov	 DWORD PTR [ebp-8], -858993460 ; ccccccccH
  01d7d	c7 45 fc cc cc
	cc cc		 mov	 DWORD PTR [ebp-4], -858993460 ; ccccccccH
  01d84	89 4d fc	 mov	 DWORD PTR _this$[ebp], ecx

; 686  : 	CDC * pDC = CDC::FromHandle(DC);

  01d87	8b 45 08	 mov	 eax, DWORD PTR _DC$[ebp]
  01d8a	50		 push	 eax
  01d8b	e8 00 00 00 00	 call	 ?FromHandle@CDC@@SGPAV1@PAUHDC__@@@Z ; CDC::FromHandle
  01d90	89 45 f8	 mov	 DWORD PTR _pDC$[ebp], eax

; 687  : 	pDC->FrameRect( &aRect,pBrush );

  01d93	8b 4d 10	 mov	 ecx, DWORD PTR _pBrush$[ebp]
  01d96	51		 push	 ecx
  01d97	8b 55 0c	 mov	 edx, DWORD PTR _aRect$[ebp]
  01d9a	52		 push	 edx
  01d9b	8b 4d f8	 mov	 ecx, DWORD PTR _pDC$[ebp]
  01d9e	e8 00 00 00 00	 call	 ?FrameRect@CDC@@QAEXPBUtagRECT@@PAVCBrush@@@Z ; CDC::FrameRect

; 688  : }

  01da3	83 c4 08	 add	 esp, 8
  01da6	3b ec		 cmp	 ebp, esp
  01da8	e8 00 00 00 00	 call	 __RTC_CheckEsp
  01dad	8b e5		 mov	 esp, ebp
  01daf	5d		 pop	 ebp
  01db0	c2 0c 00	 ret	 12			; 0000000cH
?FrameRect@CGdiEx@@UAEXPAUHDC__@@AAUtagRECT@@PAVCBrush@@@Z ENDP ; CGdiEx::FrameRect
_TEXT	ENDS
EXTRN	?FillSolidRect@CDC@@QAEXHHHHK@Z:NEAR		; CDC::FillSolidRect
; Function compile flags: /Odt /RTCsu
_TEXT	SEGMENT
_pDC$ = -8						; size = 4
_this$ = -4						; size = 4
_DC$ = 8						; size = 4
_aRect$ = 12						; size = 4
_aColor$ = 16						; size = 4
?FillRectangle@CGdiEx@@UAEXPAUHDC__@@AAUtagRECT@@K@Z PROC NEAR ; CGdiEx::FillRectangle
; _this$ = ecx

; 690  : {

  01dc0	55		 push	 ebp
  01dc1	8b ec		 mov	 ebp, esp
  01dc3	83 ec 08	 sub	 esp, 8
  01dc6	c7 45 f8 cc cc
	cc cc		 mov	 DWORD PTR [ebp-8], -858993460 ; ccccccccH
  01dcd	c7 45 fc cc cc
	cc cc		 mov	 DWORD PTR [ebp-4], -858993460 ; ccccccccH
  01dd4	89 4d fc	 mov	 DWORD PTR _this$[ebp], ecx

; 691  : 	CDC * pDC = CDC::FromHandle(DC);

  01dd7	8b 45 08	 mov	 eax, DWORD PTR _DC$[ebp]
  01dda	50		 push	 eax
  01ddb	e8 00 00 00 00	 call	 ?FromHandle@CDC@@SGPAV1@PAUHDC__@@@Z ; CDC::FromHandle
  01de0	89 45 f8	 mov	 DWORD PTR _pDC$[ebp], eax

; 692  : 	pDC->FillSolidRect(aRect.left, aRect.top, aRect.right - aRect.left, aRect.bottom - aRect.top,aColor);

  01de3	8b 4d 10	 mov	 ecx, DWORD PTR _aColor$[ebp]
  01de6	51		 push	 ecx
  01de7	8b 55 0c	 mov	 edx, DWORD PTR _aRect$[ebp]
  01dea	8b 45 0c	 mov	 eax, DWORD PTR _aRect$[ebp]
  01ded	8b 4a 0c	 mov	 ecx, DWORD PTR [edx+12]
  01df0	2b 48 04	 sub	 ecx, DWORD PTR [eax+4]
  01df3	51		 push	 ecx
  01df4	8b 55 0c	 mov	 edx, DWORD PTR _aRect$[ebp]
  01df7	8b 45 0c	 mov	 eax, DWORD PTR _aRect$[ebp]
  01dfa	8b 4a 08	 mov	 ecx, DWORD PTR [edx+8]
  01dfd	2b 08		 sub	 ecx, DWORD PTR [eax]
  01dff	51		 push	 ecx
  01e00	8b 55 0c	 mov	 edx, DWORD PTR _aRect$[ebp]
  01e03	8b 42 04	 mov	 eax, DWORD PTR [edx+4]
  01e06	50		 push	 eax
  01e07	8b 4d 0c	 mov	 ecx, DWORD PTR _aRect$[ebp]
  01e0a	8b 11		 mov	 edx, DWORD PTR [ecx]
  01e0c	52		 push	 edx
  01e0d	8b 4d f8	 mov	 ecx, DWORD PTR _pDC$[ebp]
  01e10	e8 00 00 00 00	 call	 ?FillSolidRect@CDC@@QAEXHHHHK@Z ; CDC::FillSolidRect

; 693  : }

  01e15	83 c4 08	 add	 esp, 8
  01e18	3b ec		 cmp	 ebp, esp
  01e1a	e8 00 00 00 00	 call	 __RTC_CheckEsp
  01e1f	8b e5		 mov	 esp, ebp
  01e21	5d		 pop	 ebp
  01e22	c2 0c 00	 ret	 12			; 0000000cH
?FillRectangle@CGdiEx@@UAEXPAUHDC__@@AAUtagRECT@@K@Z ENDP ; CGdiEx::FillRectangle
_TEXT	ENDS
EXTRN	__except_list:DWORD
EXTRN	___CxxFrameHandler:NEAR
EXTRN	?DeleteObject@CGdiObject@@QAEHXZ:NEAR		; CGdiObject::DeleteObject
EXTRN	??0CBrush@@QAE@XZ:NEAR				; CBrush::CBrush
EXTRN	?CreateSolidBrush@CBrush@@QAEHK@Z:NEAR		; CBrush::CreateSolidBrush
EXTRN	??1CBrush@@UAE@XZ:NEAR				; CBrush::~CBrush
EXTRN	?SelectObject@CDC@@QAEPAVCBrush@@PAV2@@Z:NEAR	; CDC::SelectObject
xdata$x	SEGMENT
$T188582 DD	0ffffffffH
	DD	FLAT:$L188572
$T188576 DD	019930520H
	DD	01H
	DD	FLAT:$T188582
	DD	2 DUP(00H)
	DD	2 DUP(00H)
; Function compile flags: /Odt /RTCsu
xdata$x	ENDS
_TEXT	SEGMENT
_pOldBrush$ = -40					; size = 4
_Brush$ = -32						; size = 8
_pDC$ = -20						; size = 4
_this$ = -16						; size = 4
__$EHRec$ = -12						; size = 12
_DC$ = 8						; size = 4
_aRect$ = 12						; size = 16
_aColor$ = 28						; size = 4
_abEclosion$ = 32					; size = 4
?FillRectangle@CGdiEx@@UAEXPAUHDC__@@UtagRECT@@KH@Z PROC NEAR ; CGdiEx::FillRectangle
; _this$ = ecx

; 695  : {

  01e30	55		 push	 ebp
  01e31	8b ec		 mov	 ebp, esp
  01e33	6a ff		 push	 -1
  01e35	68 00 00 00 00	 push	 __ehhandler$?FillRectangle@CGdiEx@@UAEXPAUHDC__@@UtagRECT@@KH@Z
  01e3a	64 a1 00 00 00
	00		 mov	 eax, DWORD PTR fs:__except_list
  01e40	50		 push	 eax
  01e41	64 89 25 00 00
	00 00		 mov	 DWORD PTR fs:__except_list, esp
  01e48	83 ec 1c	 sub	 esp, 28			; 0000001cH
  01e4b	b8 cc cc cc cc	 mov	 eax, -858993460		; ccccccccH
  01e50	89 45 d8	 mov	 DWORD PTR [ebp-40], eax
  01e53	89 45 dc	 mov	 DWORD PTR [ebp-36], eax
  01e56	89 45 e0	 mov	 DWORD PTR [ebp-32], eax
  01e59	89 45 e4	 mov	 DWORD PTR [ebp-28], eax
  01e5c	89 45 e8	 mov	 DWORD PTR [ebp-24], eax
  01e5f	89 45 ec	 mov	 DWORD PTR [ebp-20], eax
  01e62	89 45 f0	 mov	 DWORD PTR [ebp-16], eax
  01e65	89 4d f0	 mov	 DWORD PTR _this$[ebp], ecx

; 696  : 	CDC * pDC = CDC::FromHandle(DC);

  01e68	8b 45 08	 mov	 eax, DWORD PTR _DC$[ebp]
  01e6b	50		 push	 eax
  01e6c	e8 00 00 00 00	 call	 ?FromHandle@CDC@@SGPAV1@PAUHDC__@@@Z ; CDC::FromHandle
  01e71	89 45 ec	 mov	 DWORD PTR _pDC$[ebp], eax

; 697  : 	CBrush Brush, *pOldBrush;

  01e74	8d 4d e0	 lea	 ecx, DWORD PTR _Brush$[ebp]
  01e77	e8 00 00 00 00	 call	 ??0CBrush@@QAE@XZ	; CBrush::CBrush
  01e7c	c7 45 fc 00 00
	00 00		 mov	 DWORD PTR __$EHRec$[ebp+8], 0

; 698  : 	Brush.CreateSolidBrush(aColor);

  01e83	8b 4d 1c	 mov	 ecx, DWORD PTR _aColor$[ebp]
  01e86	51		 push	 ecx
  01e87	8d 4d e0	 lea	 ecx, DWORD PTR _Brush$[ebp]
  01e8a	e8 00 00 00 00	 call	 ?CreateSolidBrush@CBrush@@QAEHK@Z ; CBrush::CreateSolidBrush

; 699  : 	pOldBrush = pDC->SelectObject(&Brush);

  01e8f	8d 55 e0	 lea	 edx, DWORD PTR _Brush$[ebp]
  01e92	52		 push	 edx
  01e93	8b 4d ec	 mov	 ecx, DWORD PTR _pDC$[ebp]
  01e96	e8 00 00 00 00	 call	 ?SelectObject@CDC@@QAEPAVCBrush@@PAV2@@Z ; CDC::SelectObject
  01e9b	89 45 d8	 mov	 DWORD PTR _pOldBrush$[ebp], eax

; 700  : 	pDC->FillSolidRect(aRect.left, aRect.top, aRect.right - aRect.left, aRect.bottom - aRect.top,aColor);

  01e9e	8b 45 1c	 mov	 eax, DWORD PTR _aColor$[ebp]
  01ea1	50		 push	 eax
  01ea2	8b 4d 18	 mov	 ecx, DWORD PTR _aRect$[ebp+12]
  01ea5	2b 4d 10	 sub	 ecx, DWORD PTR _aRect$[ebp+4]
  01ea8	51		 push	 ecx
  01ea9	8b 55 14	 mov	 edx, DWORD PTR _aRect$[ebp+8]
  01eac	2b 55 0c	 sub	 edx, DWORD PTR _aRect$[ebp]
  01eaf	52		 push	 edx
  01eb0	8b 45 10	 mov	 eax, DWORD PTR _aRect$[ebp+4]
  01eb3	50		 push	 eax
  01eb4	8b 4d 0c	 mov	 ecx, DWORD PTR _aRect$[ebp]
  01eb7	51		 push	 ecx
  01eb8	8b 4d ec	 mov	 ecx, DWORD PTR _pDC$[ebp]
  01ebb	e8 00 00 00 00	 call	 ?FillSolidRect@CDC@@QAEXHHHHK@Z ; CDC::FillSolidRect

; 701  : 	pDC->SelectObject(pOldBrush);

  01ec0	8b 55 d8	 mov	 edx, DWORD PTR _pOldBrush$[ebp]
  01ec3	52		 push	 edx
  01ec4	8b 4d ec	 mov	 ecx, DWORD PTR _pDC$[ebp]
  01ec7	e8 00 00 00 00	 call	 ?SelectObject@CDC@@QAEPAVCBrush@@PAV2@@Z ; CDC::SelectObject

; 702  : 	Brush.DeleteObject();

  01ecc	8d 4d e0	 lea	 ecx, DWORD PTR _Brush$[ebp]
  01ecf	e8 00 00 00 00	 call	 ?DeleteObject@CGdiObject@@QAEHXZ ; CGdiObject::DeleteObject

; 703  : 
; 704  : }

  01ed4	c7 45 fc ff ff
	ff ff		 mov	 DWORD PTR __$EHRec$[ebp+8], -1
  01edb	8d 4d e0	 lea	 ecx, DWORD PTR _Brush$[ebp]
  01ede	e8 00 00 00 00	 call	 ??1CBrush@@UAE@XZ	; CBrush::~CBrush
  01ee3	52		 push	 edx
  01ee4	8b cd		 mov	 ecx, ebp
  01ee6	50		 push	 eax
  01ee7	8d 15 00 00 00
	00		 lea	 edx, DWORD PTR $L188581
  01eed	e8 00 00 00 00	 call	 @_RTC_CheckStackVars@8
  01ef2	58		 pop	 eax
  01ef3	5a		 pop	 edx
  01ef4	8b 4d f4	 mov	 ecx, DWORD PTR __$EHRec$[ebp]
  01ef7	64 89 0d 00 00
	00 00		 mov	 DWORD PTR fs:__except_list, ecx
  01efe	83 c4 28	 add	 esp, 40			; 00000028H
  01f01	3b ec		 cmp	 ebp, esp
  01f03	e8 00 00 00 00	 call	 __RTC_CheckEsp
  01f08	8b e5		 mov	 esp, ebp
  01f0a	5d		 pop	 ebp
  01f0b	c2 1c 00	 ret	 28			; 0000001cH
$L188581:
  01f0e	01 00 00 00	 DD	 1
  01f12	00 00 00 00	 DD	 $L188580
$L188580:
  01f16	e0 ff ff ff	 DD	 -32			; ffffffe0H
  01f1a	08 00 00 00	 DD	 8
  01f1e	00 00 00 00	 DD	 $L188577
$L188577:
  01f22	42		 DB	 66			; 00000042H
  01f23	72		 DB	 114			; 00000072H
  01f24	75		 DB	 117			; 00000075H
  01f25	73		 DB	 115			; 00000073H
  01f26	68		 DB	 104			; 00000068H
  01f27	00		 DB	 0
_TEXT	ENDS
text$x	SEGMENT
$L188572:
  00000	8d 4d e0	 lea	 ecx, DWORD PTR _Brush$[ebp]
  00003	e9 00 00 00 00	 jmp	 ??1CBrush@@UAE@XZ	; CBrush::~CBrush
__ehhandler$?FillRectangle@CGdiEx@@UAEXPAUHDC__@@UtagRECT@@KH@Z:
  00008	b8 00 00 00 00	 mov	 eax, OFFSET FLAT:$T188576
  0000d	e9 00 00 00 00	 jmp	 ___CxxFrameHandler
text$x	ENDS
?FillRectangle@CGdiEx@@UAEXPAUHDC__@@UtagRECT@@KH@Z ENDP ; CGdiEx::FillRectangle
EXTRN	??0CBrush@@QAE@K@Z:NEAR				; CBrush::CBrush
EXTRN	?FillRect@CDC@@QAEXPBUtagRECT@@PAVCBrush@@@Z:NEAR ; CDC::FillRect
xdata$x	SEGMENT
$T188590 DD	0ffffffffH
	DD	FLAT:$L188586
$T188588 DD	019930520H
	DD	01H
	DD	FLAT:$T188590
	DD	2 DUP(00H)
	DD	2 DUP(00H)
; Function compile flags: /Odt /RTCsu
xdata$x	ENDS
_TEXT	SEGMENT
tv83 = -36						; size = 4
tv84 = -32						; size = 4
$T188585 = -28						; size = 8
_pDC$ = -20						; size = 4
_this$ = -16						; size = 4
__$EHRec$ = -12						; size = 12
_DC$ = 8						; size = 4
_aRect$ = 12						; size = 16
_aColor$ = 28						; size = 4
_abEclosion$ = 32					; size = 4
_maxX$ = 36						; size = 4
_maxY$ = 40						; size = 4
?FillRectangle@CGdiEx@@UAEXPAUHDC__@@UtagRECT@@KHHH@Z PROC NEAR ; CGdiEx::FillRectangle
; _this$ = ecx

; 706  : {

  01f30	55		 push	 ebp
  01f31	8b ec		 mov	 ebp, esp
  01f33	6a ff		 push	 -1
  01f35	68 00 00 00 00	 push	 __ehhandler$?FillRectangle@CGdiEx@@UAEXPAUHDC__@@UtagRECT@@KHHH@Z
  01f3a	64 a1 00 00 00
	00		 mov	 eax, DWORD PTR fs:__except_list
  01f40	50		 push	 eax
  01f41	64 89 25 00 00
	00 00		 mov	 DWORD PTR fs:__except_list, esp
  01f48	83 ec 18	 sub	 esp, 24			; 00000018H
  01f4b	b8 cc cc cc cc	 mov	 eax, -858993460		; ccccccccH
  01f50	89 45 dc	 mov	 DWORD PTR [ebp-36], eax
  01f53	89 45 e0	 mov	 DWORD PTR [ebp-32], eax
  01f56	89 45 e4	 mov	 DWORD PTR [ebp-28], eax
  01f59	89 45 e8	 mov	 DWORD PTR [ebp-24], eax
  01f5c	89 45 ec	 mov	 DWORD PTR [ebp-20], eax
  01f5f	89 45 f0	 mov	 DWORD PTR [ebp-16], eax
  01f62	89 4d f0	 mov	 DWORD PTR _this$[ebp], ecx

; 707  : 	if( aRect.bottom < 0) return;

  01f65	83 7d 18 00	 cmp	 DWORD PTR _aRect$[ebp+12], 0
  01f69	7d 05		 jge	 SHORT $L187544
  01f6b	e9 9f 00 00 00	 jmp	 $L187543
$L187544:

; 708  : 	if( aRect.right < 0)  return;

  01f70	83 7d 14 00	 cmp	 DWORD PTR _aRect$[ebp+8], 0
  01f74	7d 05		 jge	 SHORT $L187545
  01f76	e9 94 00 00 00	 jmp	 $L187543
$L187545:

; 709  : 	if( aRect.left>maxX)  return;

  01f7b	8b 45 0c	 mov	 eax, DWORD PTR _aRect$[ebp]
  01f7e	3b 45 24	 cmp	 eax, DWORD PTR _maxX$[ebp]
  01f81	7e 05		 jle	 SHORT $L187546
  01f83	e9 87 00 00 00	 jmp	 $L187543
$L187546:

; 710  : 	if( aRect.top> maxY)  return;

  01f88	8b 4d 10	 mov	 ecx, DWORD PTR _aRect$[ebp+4]
  01f8b	3b 4d 28	 cmp	 ecx, DWORD PTR _maxY$[ebp]
  01f8e	7e 02		 jle	 SHORT $L187547
  01f90	eb 7d		 jmp	 SHORT $L187543
$L187547:

; 711  : 	
; 712  : 	
; 713  : 	if( aRect.top < 0) aRect.top = 0;

  01f92	83 7d 10 00	 cmp	 DWORD PTR _aRect$[ebp+4], 0
  01f96	7d 07		 jge	 SHORT $L187548
  01f98	c7 45 10 00 00
	00 00		 mov	 DWORD PTR _aRect$[ebp+4], 0
$L187548:

; 714  : 	if( aRect.left < 0) aRect.left = 0;

  01f9f	83 7d 0c 00	 cmp	 DWORD PTR _aRect$[ebp], 0
  01fa3	7d 07		 jge	 SHORT $L187549
  01fa5	c7 45 0c 00 00
	00 00		 mov	 DWORD PTR _aRect$[ebp], 0
$L187549:

; 715  : 	if( aRect.right>maxX)   aRect.right = maxX;

  01fac	8b 55 14	 mov	 edx, DWORD PTR _aRect$[ebp+8]
  01faf	3b 55 24	 cmp	 edx, DWORD PTR _maxX$[ebp]
  01fb2	7e 06		 jle	 SHORT $L187550
  01fb4	8b 45 24	 mov	 eax, DWORD PTR _maxX$[ebp]
  01fb7	89 45 14	 mov	 DWORD PTR _aRect$[ebp+8], eax
$L187550:

; 716  : 	if( aRect.bottom>maxY ) aRect.bottom = maxY;

  01fba	8b 4d 18	 mov	 ecx, DWORD PTR _aRect$[ebp+12]
  01fbd	3b 4d 28	 cmp	 ecx, DWORD PTR _maxY$[ebp]
  01fc0	7e 06		 jle	 SHORT $L187551
  01fc2	8b 55 28	 mov	 edx, DWORD PTR _maxY$[ebp]
  01fc5	89 55 18	 mov	 DWORD PTR _aRect$[ebp+12], edx
$L187551:

; 717  : 
; 718  : 	CDC * pDC = CDC::FromHandle(DC);

  01fc8	8b 45 08	 mov	 eax, DWORD PTR _DC$[ebp]
  01fcb	50		 push	 eax
  01fcc	e8 00 00 00 00	 call	 ?FromHandle@CDC@@SGPAV1@PAUHDC__@@@Z ; CDC::FromHandle
  01fd1	89 45 ec	 mov	 DWORD PTR _pDC$[ebp], eax

; 719  : 	/*CBrush Brush, *pOldBrush;
; 720  : 	Brush.CreateSolidBrush(aColor);
; 721  : 	pOldBrush = pDC->SelectObject(&Brush);*/
; 722  : 	pDC->FillRect(&aRect,&CBrush(aColor) );

  01fd4	8b 4d 1c	 mov	 ecx, DWORD PTR _aColor$[ebp]
  01fd7	51		 push	 ecx
  01fd8	8d 4d e4	 lea	 ecx, DWORD PTR $T188585[ebp]
  01fdb	e8 00 00 00 00	 call	 ??0CBrush@@QAE@K@Z	; CBrush::CBrush
  01fe0	89 45 e0	 mov	 DWORD PTR tv84[ebp], eax
  01fe3	8b 55 e0	 mov	 edx, DWORD PTR tv84[ebp]
  01fe6	89 55 dc	 mov	 DWORD PTR tv83[ebp], edx
  01fe9	c7 45 fc 00 00
	00 00		 mov	 DWORD PTR __$EHRec$[ebp+8], 0
  01ff0	8b 45 dc	 mov	 eax, DWORD PTR tv83[ebp]
  01ff3	50		 push	 eax
  01ff4	8d 4d 0c	 lea	 ecx, DWORD PTR _aRect$[ebp]
  01ff7	51		 push	 ecx
  01ff8	8b 4d ec	 mov	 ecx, DWORD PTR _pDC$[ebp]
  01ffb	e8 00 00 00 00	 call	 ?FillRect@CDC@@QAEXPBUtagRECT@@PAVCBrush@@@Z ; CDC::FillRect
  02000	c7 45 fc ff ff
	ff ff		 mov	 DWORD PTR __$EHRec$[ebp+8], -1
  02007	8d 4d e4	 lea	 ecx, DWORD PTR $T188585[ebp]
  0200a	e8 00 00 00 00	 call	 ??1CBrush@@UAE@XZ	; CBrush::~CBrush
$L187543:

; 723  : 	/*pDC->SelectObject(pOldBrush);
; 724  : 	Brush.DeleteObject();*/
; 725  : 
; 726  : }

  0200f	8b 4d f4	 mov	 ecx, DWORD PTR __$EHRec$[ebp]
  02012	64 89 0d 00 00
	00 00		 mov	 DWORD PTR fs:__except_list, ecx
  02019	83 c4 24	 add	 esp, 36			; 00000024H
  0201c	3b ec		 cmp	 ebp, esp
  0201e	e8 00 00 00 00	 call	 __RTC_CheckEsp
  02023	8b e5		 mov	 esp, ebp
  02025	5d		 pop	 ebp
  02026	c2 24 00	 ret	 36			; 00000024H
_TEXT	ENDS
text$x	SEGMENT
$L188586:
  00012	8d 4d e4	 lea	 ecx, DWORD PTR $T188585[ebp]
  00015	e9 00 00 00 00	 jmp	 ??1CBrush@@UAE@XZ	; CBrush::~CBrush
__ehhandler$?FillRectangle@CGdiEx@@UAEXPAUHDC__@@UtagRECT@@KHHH@Z:
  0001a	b8 00 00 00 00	 mov	 eax, OFFSET FLAT:$T188588
  0001f	e9 00 00 00 00	 jmp	 ___CxxFrameHandler
text$x	ENDS
?FillRectangle@CGdiEx@@UAEXPAUHDC__@@UtagRECT@@KHHH@Z ENDP ; CGdiEx::FillRectangle
EXTRN	??0CPen@@QAE@XZ:NEAR				; CPen::CPen
EXTRN	?CreatePen@CPen@@QAEHHHK@Z:NEAR			; CPen::CreatePen
EXTRN	??1CPen@@UAE@XZ:NEAR				; CPen::~CPen
EXTRN	?SelectObject@CDC@@QAEPAVCPen@@PAV2@@Z:NEAR	; CDC::SelectObject
EXTRN	?MoveTo@CDC@@QAE?AVCPoint@@HH@Z:NEAR		; CDC::MoveTo
EXTRN	?LineTo@CDC@@QAEHHH@Z:NEAR			; CDC::LineTo
xdata$x	SEGMENT
$T188600 DD	0ffffffffH
	DD	FLAT:$L188593
$T188595 DD	019930520H
	DD	01H
	DD	FLAT:$T188600
	DD	2 DUP(00H)
	DD	2 DUP(00H)
; Function compile flags: /Odt /RTCsu
xdata$x	ENDS
_TEXT	SEGMENT
$T188592 = -48						; size = 8
_pOldPen$ = -40						; size = 4
_Pen$ = -32						; size = 8
_pDC$ = -20						; size = 4
_this$ = -16						; size = 4
__$EHRec$ = -12						; size = 12
_DC$ = 8						; size = 4
_aColor$ = 12						; size = 4
_afPenWidth$ = 16					; size = 4
_aiBeginLeft$ = 20					; size = 4
_aiBeginTop$ = 24					; size = 4
_aiEndLeft$ = 28					; size = 4
_aiEndTop$ = 32						; size = 4
_abEclosion$ = 36					; size = 4
?DrawLine@CGdiEx@@UAEXPAUHDC__@@KMHHHHH@Z PROC NEAR	; CGdiEx::DrawLine
; _this$ = ecx

; 728  : {

  02030	55		 push	 ebp
  02031	8b ec		 mov	 ebp, esp
  02033	6a ff		 push	 -1
  02035	68 00 00 00 00	 push	 __ehhandler$?DrawLine@CGdiEx@@UAEXPAUHDC__@@KMHHHHH@Z
  0203a	64 a1 00 00 00
	00		 mov	 eax, DWORD PTR fs:__except_list
  02040	50		 push	 eax
  02041	64 89 25 00 00
	00 00		 mov	 DWORD PTR fs:__except_list, esp
  02048	83 ec 24	 sub	 esp, 36			; 00000024H
  0204b	b8 cc cc cc cc	 mov	 eax, -858993460		; ccccccccH
  02050	89 45 d0	 mov	 DWORD PTR [ebp-48], eax
  02053	89 45 d4	 mov	 DWORD PTR [ebp-44], eax
  02056	89 45 d8	 mov	 DWORD PTR [ebp-40], eax
  02059	89 45 dc	 mov	 DWORD PTR [ebp-36], eax
  0205c	89 45 e0	 mov	 DWORD PTR [ebp-32], eax
  0205f	89 45 e4	 mov	 DWORD PTR [ebp-28], eax
  02062	89 45 e8	 mov	 DWORD PTR [ebp-24], eax
  02065	89 45 ec	 mov	 DWORD PTR [ebp-20], eax
  02068	89 45 f0	 mov	 DWORD PTR [ebp-16], eax
  0206b	89 4d f0	 mov	 DWORD PTR _this$[ebp], ecx

; 729  : 	CDC * pDC = CDC::FromHandle(DC);

  0206e	8b 45 08	 mov	 eax, DWORD PTR _DC$[ebp]
  02071	50		 push	 eax
  02072	e8 00 00 00 00	 call	 ?FromHandle@CDC@@SGPAV1@PAUHDC__@@@Z ; CDC::FromHandle
  02077	89 45 ec	 mov	 DWORD PTR _pDC$[ebp], eax

; 730  : 	CPen Pen, *pOldPen;

  0207a	8d 4d e0	 lea	 ecx, DWORD PTR _Pen$[ebp]
  0207d	e8 00 00 00 00	 call	 ??0CPen@@QAE@XZ		; CPen::CPen
  02082	c7 45 fc 00 00
	00 00		 mov	 DWORD PTR __$EHRec$[ebp+8], 0

; 731  : 	Pen.CreatePen(PS_SOLID, afPenWidth, aColor);	

  02089	8b 4d 0c	 mov	 ecx, DWORD PTR _aColor$[ebp]
  0208c	51		 push	 ecx
  0208d	d9 45 10	 fld	 DWORD PTR _afPenWidth$[ebp]
  02090	e8 00 00 00 00	 call	 __ftol2
  02095	50		 push	 eax
  02096	6a 00		 push	 0
  02098	8d 4d e0	 lea	 ecx, DWORD PTR _Pen$[ebp]
  0209b	e8 00 00 00 00	 call	 ?CreatePen@CPen@@QAEHHHK@Z ; CPen::CreatePen

; 732  : 	pOldPen = pDC->SelectObject(&Pen);

  020a0	8d 55 e0	 lea	 edx, DWORD PTR _Pen$[ebp]
  020a3	52		 push	 edx
  020a4	8b 4d ec	 mov	 ecx, DWORD PTR _pDC$[ebp]
  020a7	e8 00 00 00 00	 call	 ?SelectObject@CDC@@QAEPAVCPen@@PAV2@@Z ; CDC::SelectObject
  020ac	89 45 d8	 mov	 DWORD PTR _pOldPen$[ebp], eax

; 733  : 
; 734  : 	pDC->MoveTo(aiBeginLeft, aiBeginTop);

  020af	8b 45 18	 mov	 eax, DWORD PTR _aiBeginTop$[ebp]
  020b2	50		 push	 eax
  020b3	8b 4d 14	 mov	 ecx, DWORD PTR _aiBeginLeft$[ebp]
  020b6	51		 push	 ecx
  020b7	8d 55 d0	 lea	 edx, DWORD PTR $T188592[ebp]
  020ba	52		 push	 edx
  020bb	8b 4d ec	 mov	 ecx, DWORD PTR _pDC$[ebp]
  020be	e8 00 00 00 00	 call	 ?MoveTo@CDC@@QAE?AVCPoint@@HH@Z ; CDC::MoveTo

; 735  : 	pDC->LineTo(aiEndLeft, aiEndTop);

  020c3	8b 45 20	 mov	 eax, DWORD PTR _aiEndTop$[ebp]
  020c6	50		 push	 eax
  020c7	8b 4d 1c	 mov	 ecx, DWORD PTR _aiEndLeft$[ebp]
  020ca	51		 push	 ecx
  020cb	8b 4d ec	 mov	 ecx, DWORD PTR _pDC$[ebp]
  020ce	e8 00 00 00 00	 call	 ?LineTo@CDC@@QAEHHH@Z	; CDC::LineTo

; 736  : 	pDC->SelectObject(pOldPen);

  020d3	8b 55 d8	 mov	 edx, DWORD PTR _pOldPen$[ebp]
  020d6	52		 push	 edx
  020d7	8b 4d ec	 mov	 ecx, DWORD PTR _pDC$[ebp]
  020da	e8 00 00 00 00	 call	 ?SelectObject@CDC@@QAEPAVCPen@@PAV2@@Z ; CDC::SelectObject

; 737  : 	Pen.DeleteObject();

  020df	8d 4d e0	 lea	 ecx, DWORD PTR _Pen$[ebp]
  020e2	e8 00 00 00 00	 call	 ?DeleteObject@CGdiObject@@QAEHXZ ; CGdiObject::DeleteObject

; 738  : }

  020e7	c7 45 fc ff ff
	ff ff		 mov	 DWORD PTR __$EHRec$[ebp+8], -1
  020ee	8d 4d e0	 lea	 ecx, DWORD PTR _Pen$[ebp]
  020f1	e8 00 00 00 00	 call	 ??1CPen@@UAE@XZ		; CPen::~CPen
  020f6	52		 push	 edx
  020f7	8b cd		 mov	 ecx, ebp
  020f9	50		 push	 eax
  020fa	8d 15 00 00 00
	00		 lea	 edx, DWORD PTR $L188599
  02100	e8 00 00 00 00	 call	 @_RTC_CheckStackVars@8
  02105	58		 pop	 eax
  02106	5a		 pop	 edx
  02107	8b 4d f4	 mov	 ecx, DWORD PTR __$EHRec$[ebp]
  0210a	64 89 0d 00 00
	00 00		 mov	 DWORD PTR fs:__except_list, ecx
  02111	83 c4 30	 add	 esp, 48			; 00000030H
  02114	3b ec		 cmp	 ebp, esp
  02116	e8 00 00 00 00	 call	 __RTC_CheckEsp
  0211b	8b e5		 mov	 esp, ebp
  0211d	5d		 pop	 ebp
  0211e	c2 20 00	 ret	 32			; 00000020H
$L188599:
  02121	01 00 00 00	 DD	 1
  02125	00 00 00 00	 DD	 $L188598
$L188598:
  02129	e0 ff ff ff	 DD	 -32			; ffffffe0H
  0212d	08 00 00 00	 DD	 8
  02131	00 00 00 00	 DD	 $L188596
$L188596:
  02135	50		 DB	 80			; 00000050H
  02136	65		 DB	 101			; 00000065H
  02137	6e		 DB	 110			; 0000006eH
  02138	00		 DB	 0
_TEXT	ENDS
text$x	SEGMENT
$L188593:
  00024	8d 4d e0	 lea	 ecx, DWORD PTR _Pen$[ebp]
  00027	e9 00 00 00 00	 jmp	 ??1CPen@@UAE@XZ		; CPen::~CPen
__ehhandler$?DrawLine@CGdiEx@@UAEXPAUHDC__@@KMHHHHH@Z:
  0002c	b8 00 00 00 00	 mov	 eax, OFFSET FLAT:$T188595
  00031	e9 00 00 00 00	 jmp	 ___CxxFrameHandler
text$x	ENDS
?DrawLine@CGdiEx@@UAEXPAUHDC__@@KMHHHHH@Z ENDP		; CGdiEx::DrawLine
EXTRN	?Polygon@CDC@@QAEHPAUtagPOINT@@H@Z:NEAR		; CDC::Polygon
EXTRN	??0CPoint@@QAE@HH@Z:NEAR			; CPoint::CPoint
xdata$x	SEGMENT
$T188612 DD	0ffffffffH
	DD	FLAT:$L188602
	DD	00H
	DD	FLAT:$L188603
$T188605 DD	019930520H
	DD	02H
	DD	FLAT:$T188612
	DD	2 DUP(00H)
	DD	2 DUP(00H)
; Function compile flags: /Odt /RTCsu
xdata$x	ENDS
_TEXT	SEGMENT
_pOldPen$ = -92						; size = 4
_Pen$ = -84						; size = 8
_pOldBrush$ = -72					; size = 4
_Brush$ = -64						; size = 8
_pDC$ = -52						; size = 4
_Points$ = -44						; size = 24
_this$ = -16						; size = 4
__$EHRec$ = -12						; size = 12
_DC$ = 8						; size = 4
_aColor$ = 12						; size = 4
_aiFirstLeft$ = 16					; size = 4
_aiFirstTop$ = 20					; size = 4
_aiSecondLeft$ = 24					; size = 4
_aiSecondTop$ = 28					; size = 4
_aiThirdLeft$ = 32					; size = 4
_aiThirdTop$ = 36					; size = 4
_aEclosion$ = 40					; size = 4
?DrawArrow@CGdiEx@@UAEXPAUHDC__@@KHHHHHHH@Z PROC NEAR	; CGdiEx::DrawArrow
; _this$ = ecx

; 741  : {

  02140	55		 push	 ebp
  02141	8b ec		 mov	 ebp, esp
  02143	6a ff		 push	 -1
  02145	68 00 00 00 00	 push	 __ehhandler$?DrawArrow@CGdiEx@@UAEXPAUHDC__@@KHHHHHHH@Z
  0214a	64 a1 00 00 00
	00		 mov	 eax, DWORD PTR fs:__except_list
  02150	50		 push	 eax
  02151	64 89 25 00 00
	00 00		 mov	 DWORD PTR fs:__except_list, esp
  02158	83 ec 50	 sub	 esp, 80			; 00000050H
  0215b	57		 push	 edi
  0215c	51		 push	 ecx
  0215d	8d 7d a4	 lea	 edi, DWORD PTR [ebp-92]
  02160	b9 14 00 00 00	 mov	 ecx, 20			; 00000014H
  02165	b8 cc cc cc cc	 mov	 eax, -858993460		; ccccccccH
  0216a	f3 ab		 rep stosd
  0216c	59		 pop	 ecx
  0216d	89 4d f0	 mov	 DWORD PTR _this$[ebp], ecx

; 742  : 	CPoint Points[] = {CPoint(aiFirstLeft, aiFirstTop),

  02170	8b 45 14	 mov	 eax, DWORD PTR _aiFirstTop$[ebp]
  02173	50		 push	 eax
  02174	8b 4d 10	 mov	 ecx, DWORD PTR _aiFirstLeft$[ebp]
  02177	51		 push	 ecx
  02178	8d 4d d4	 lea	 ecx, DWORD PTR _Points$[ebp]
  0217b	e8 00 00 00 00	 call	 ??0CPoint@@QAE@HH@Z	; CPoint::CPoint

; 743  : 		CPoint(aiSecondLeft, aiSecondTop),

  02180	8b 55 1c	 mov	 edx, DWORD PTR _aiSecondTop$[ebp]
  02183	52		 push	 edx
  02184	8b 45 18	 mov	 eax, DWORD PTR _aiSecondLeft$[ebp]
  02187	50		 push	 eax
  02188	8d 4d dc	 lea	 ecx, DWORD PTR _Points$[ebp+8]
  0218b	e8 00 00 00 00	 call	 ??0CPoint@@QAE@HH@Z	; CPoint::CPoint

; 744  : 		CPoint(aiThirdLeft, aiThirdTop),

  02190	8b 4d 24	 mov	 ecx, DWORD PTR _aiThirdTop$[ebp]
  02193	51		 push	 ecx
  02194	8b 55 20	 mov	 edx, DWORD PTR _aiThirdLeft$[ebp]
  02197	52		 push	 edx
  02198	8d 4d e4	 lea	 ecx, DWORD PTR _Points$[ebp+16]
  0219b	e8 00 00 00 00	 call	 ??0CPoint@@QAE@HH@Z	; CPoint::CPoint

; 745  : 	};
; 746  : 
; 747  : 	CDC * pDC = CDC::FromHandle(DC);

  021a0	8b 45 08	 mov	 eax, DWORD PTR _DC$[ebp]
  021a3	50		 push	 eax
  021a4	e8 00 00 00 00	 call	 ?FromHandle@CDC@@SGPAV1@PAUHDC__@@@Z ; CDC::FromHandle
  021a9	89 45 cc	 mov	 DWORD PTR _pDC$[ebp], eax

; 748  : 	CBrush Brush, *pOldBrush;

  021ac	8d 4d c0	 lea	 ecx, DWORD PTR _Brush$[ebp]
  021af	e8 00 00 00 00	 call	 ??0CBrush@@QAE@XZ	; CBrush::CBrush
  021b4	c7 45 fc 00 00
	00 00		 mov	 DWORD PTR __$EHRec$[ebp+8], 0

; 749  : 	Brush.CreateSolidBrush(aColor);

  021bb	8b 4d 0c	 mov	 ecx, DWORD PTR _aColor$[ebp]
  021be	51		 push	 ecx
  021bf	8d 4d c0	 lea	 ecx, DWORD PTR _Brush$[ebp]
  021c2	e8 00 00 00 00	 call	 ?CreateSolidBrush@CBrush@@QAEHK@Z ; CBrush::CreateSolidBrush

; 750  : 	pOldBrush = pDC->SelectObject(&Brush);

  021c7	8d 55 c0	 lea	 edx, DWORD PTR _Brush$[ebp]
  021ca	52		 push	 edx
  021cb	8b 4d cc	 mov	 ecx, DWORD PTR _pDC$[ebp]
  021ce	e8 00 00 00 00	 call	 ?SelectObject@CDC@@QAEPAVCBrush@@PAV2@@Z ; CDC::SelectObject
  021d3	89 45 b8	 mov	 DWORD PTR _pOldBrush$[ebp], eax

; 751  : 	CPen Pen, *pOldPen;

  021d6	8d 4d ac	 lea	 ecx, DWORD PTR _Pen$[ebp]
  021d9	e8 00 00 00 00	 call	 ??0CPen@@QAE@XZ		; CPen::CPen
  021de	c6 45 fc 01	 mov	 BYTE PTR __$EHRec$[ebp+8], 1

; 752  : 	Pen.CreatePen(PS_SOLID, 1, aColor);	

  021e2	8b 45 0c	 mov	 eax, DWORD PTR _aColor$[ebp]
  021e5	50		 push	 eax
  021e6	6a 01		 push	 1
  021e8	6a 00		 push	 0
  021ea	8d 4d ac	 lea	 ecx, DWORD PTR _Pen$[ebp]
  021ed	e8 00 00 00 00	 call	 ?CreatePen@CPen@@QAEHHHK@Z ; CPen::CreatePen

; 753  : 	pOldPen = pDC->SelectObject(&Pen);

  021f2	8d 4d ac	 lea	 ecx, DWORD PTR _Pen$[ebp]
  021f5	51		 push	 ecx
  021f6	8b 4d cc	 mov	 ecx, DWORD PTR _pDC$[ebp]
  021f9	e8 00 00 00 00	 call	 ?SelectObject@CDC@@QAEPAVCPen@@PAV2@@Z ; CDC::SelectObject
  021fe	89 45 a4	 mov	 DWORD PTR _pOldPen$[ebp], eax

; 754  : 
; 755  : 	pDC->Polygon(Points, 3);

  02201	6a 03		 push	 3
  02203	8d 55 d4	 lea	 edx, DWORD PTR _Points$[ebp]
  02206	52		 push	 edx
  02207	8b 4d cc	 mov	 ecx, DWORD PTR _pDC$[ebp]
  0220a	e8 00 00 00 00	 call	 ?Polygon@CDC@@QAEHPAUtagPOINT@@H@Z ; CDC::Polygon

; 756  : 	pDC->SelectObject(pOldBrush);

  0220f	8b 45 b8	 mov	 eax, DWORD PTR _pOldBrush$[ebp]
  02212	50		 push	 eax
  02213	8b 4d cc	 mov	 ecx, DWORD PTR _pDC$[ebp]
  02216	e8 00 00 00 00	 call	 ?SelectObject@CDC@@QAEPAVCBrush@@PAV2@@Z ; CDC::SelectObject

; 757  : 	pDC->SelectObject(pOldPen);

  0221b	8b 4d a4	 mov	 ecx, DWORD PTR _pOldPen$[ebp]
  0221e	51		 push	 ecx
  0221f	8b 4d cc	 mov	 ecx, DWORD PTR _pDC$[ebp]
  02222	e8 00 00 00 00	 call	 ?SelectObject@CDC@@QAEPAVCPen@@PAV2@@Z ; CDC::SelectObject

; 758  : 
; 759  : 	Pen.DeleteObject();

  02227	8d 4d ac	 lea	 ecx, DWORD PTR _Pen$[ebp]
  0222a	e8 00 00 00 00	 call	 ?DeleteObject@CGdiObject@@QAEHXZ ; CGdiObject::DeleteObject

; 760  : 	Brush.DeleteObject();

  0222f	8d 4d c0	 lea	 ecx, DWORD PTR _Brush$[ebp]
  02232	e8 00 00 00 00	 call	 ?DeleteObject@CGdiObject@@QAEHXZ ; CGdiObject::DeleteObject

; 761  : }

  02237	c6 45 fc 00	 mov	 BYTE PTR __$EHRec$[ebp+8], 0
  0223b	8d 4d ac	 lea	 ecx, DWORD PTR _Pen$[ebp]
  0223e	e8 00 00 00 00	 call	 ??1CPen@@UAE@XZ		; CPen::~CPen
  02243	c7 45 fc ff ff
	ff ff		 mov	 DWORD PTR __$EHRec$[ebp+8], -1
  0224a	8d 4d c0	 lea	 ecx, DWORD PTR _Brush$[ebp]
  0224d	e8 00 00 00 00	 call	 ??1CBrush@@UAE@XZ	; CBrush::~CBrush
  02252	52		 push	 edx
  02253	8b cd		 mov	 ecx, ebp
  02255	50		 push	 eax
  02256	8d 15 00 00 00
	00		 lea	 edx, DWORD PTR $L188611
  0225c	e8 00 00 00 00	 call	 @_RTC_CheckStackVars@8
  02261	58		 pop	 eax
  02262	5a		 pop	 edx
  02263	8b 4d f4	 mov	 ecx, DWORD PTR __$EHRec$[ebp]
  02266	64 89 0d 00 00
	00 00		 mov	 DWORD PTR fs:__except_list, ecx
  0226d	5f		 pop	 edi
  0226e	83 c4 5c	 add	 esp, 92			; 0000005cH
  02271	3b ec		 cmp	 ebp, esp
  02273	e8 00 00 00 00	 call	 __RTC_CheckEsp
  02278	8b e5		 mov	 esp, ebp
  0227a	5d		 pop	 ebp
  0227b	c2 24 00	 ret	 36			; 00000024H
$L188611:
  0227e	03 00 00 00	 DD	 3
  02282	00 00 00 00	 DD	 $L188610
$L188610:
  02286	d4 ff ff ff	 DD	 -44			; ffffffd4H
  0228a	18 00 00 00	 DD	 24			; 00000018H
  0228e	00 00 00 00	 DD	 $L188606
  02292	c0 ff ff ff	 DD	 -64			; ffffffc0H
  02296	08 00 00 00	 DD	 8
  0229a	00 00 00 00	 DD	 $L188607
  0229e	ac ff ff ff	 DD	 -84			; ffffffacH
  022a2	08 00 00 00	 DD	 8
  022a6	00 00 00 00	 DD	 $L188608
$L188608:
  022aa	50		 DB	 80			; 00000050H
  022ab	65		 DB	 101			; 00000065H
  022ac	6e		 DB	 110			; 0000006eH
  022ad	00		 DB	 0
$L188607:
  022ae	42		 DB	 66			; 00000042H
  022af	72		 DB	 114			; 00000072H
  022b0	75		 DB	 117			; 00000075H
  022b1	73		 DB	 115			; 00000073H
  022b2	68		 DB	 104			; 00000068H
  022b3	00		 DB	 0
$L188606:
  022b4	50		 DB	 80			; 00000050H
  022b5	6f		 DB	 111			; 0000006fH
  022b6	69		 DB	 105			; 00000069H
  022b7	6e		 DB	 110			; 0000006eH
  022b8	74		 DB	 116			; 00000074H
  022b9	73		 DB	 115			; 00000073H
  022ba	00		 DB	 0
_TEXT	ENDS
text$x	SEGMENT
$L188602:
  00036	8d 4d c0	 lea	 ecx, DWORD PTR _Brush$[ebp]
  00039	e9 00 00 00 00	 jmp	 ??1CBrush@@UAE@XZ	; CBrush::~CBrush
$L188603:
  0003e	8d 4d ac	 lea	 ecx, DWORD PTR _Pen$[ebp]
  00041	e9 00 00 00 00	 jmp	 ??1CPen@@UAE@XZ		; CPen::~CPen
__ehhandler$?DrawArrow@CGdiEx@@UAEXPAUHDC__@@KHHHHHHH@Z:
  00046	b8 00 00 00 00	 mov	 eax, OFFSET FLAT:$T188605
  0004b	e9 00 00 00 00	 jmp	 ___CxxFrameHandler
text$x	ENDS
?DrawArrow@CGdiEx@@UAEXPAUHDC__@@KHHHHHHH@Z ENDP	; CGdiEx::DrawArrow
EXTRN	?SetPixel@CDC@@QAEKHHK@Z:NEAR			; CDC::SetPixel
EXTRN	?SetROP2@CDC@@QAEHH@Z:NEAR			; CDC::SetROP2
xdata$x	SEGMENT
$T188621 DD	0ffffffffH
	DD	FLAT:$L188614
$T188616 DD	019930520H
	DD	01H
	DD	FLAT:$T188621
	DD	2 DUP(00H)
	DD	2 DUP(00H)
; Function compile flags: /Odt /RTCsu
xdata$x	ENDS
_TEXT	SEGMENT
_j$187621 = -76						; size = 4
_i$187620 = -72						; size = 4
_j$187616 = -68						; size = 4
_i$187615 = -64						; size = 4
_j$187611 = -60						; size = 4
_i$187610 = -56						; size = 4
_j$187606 = -52						; size = 4
_i$187605 = -48						; size = 4
_pOldPen$ = -44						; size = 4
_Pen$ = -36						; size = 8
_nRop$ = -24						; size = 4
_pDC$ = -20						; size = 4
_this$ = -16						; size = 4
__$EHRec$ = -12						; size = 12
_DC$ = 8						; size = 4
_aRect$ = 12						; size = 4
?DrawPointFrameXOR@CGdiEx@@UAEXPAUHDC__@@AAUtagRECT@@@Z PROC NEAR ; CGdiEx::DrawPointFrameXOR
; _this$ = ecx

; 763  : {

  022c0	55		 push	 ebp
  022c1	8b ec		 mov	 ebp, esp
  022c3	6a ff		 push	 -1
  022c5	68 00 00 00 00	 push	 __ehhandler$?DrawPointFrameXOR@CGdiEx@@UAEXPAUHDC__@@AAUtagRECT@@@Z
  022ca	64 a1 00 00 00
	00		 mov	 eax, DWORD PTR fs:__except_list
  022d0	50		 push	 eax
  022d1	64 89 25 00 00
	00 00		 mov	 DWORD PTR fs:__except_list, esp
  022d8	83 ec 40	 sub	 esp, 64			; 00000040H
  022db	57		 push	 edi
  022dc	51		 push	 ecx
  022dd	8d 7d b4	 lea	 edi, DWORD PTR [ebp-76]
  022e0	b9 10 00 00 00	 mov	 ecx, 16			; 00000010H
  022e5	b8 cc cc cc cc	 mov	 eax, -858993460		; ccccccccH
  022ea	f3 ab		 rep stosd
  022ec	59		 pop	 ecx
  022ed	89 4d f0	 mov	 DWORD PTR _this$[ebp], ecx

; 764  : 	CDC * pDC = CDC::FromHandle(DC);

  022f0	8b 45 08	 mov	 eax, DWORD PTR _DC$[ebp]
  022f3	50		 push	 eax
  022f4	e8 00 00 00 00	 call	 ?FromHandle@CDC@@SGPAV1@PAUHDC__@@@Z ; CDC::FromHandle
  022f9	89 45 ec	 mov	 DWORD PTR _pDC$[ebp], eax

; 765  : 
; 766  : 	int nRop = pDC->SetROP2(R2_NOTXORPEN);

  022fc	6a 0a		 push	 10			; 0000000aH
  022fe	8b 4d ec	 mov	 ecx, DWORD PTR _pDC$[ebp]
  02301	e8 00 00 00 00	 call	 ?SetROP2@CDC@@QAEHH@Z	; CDC::SetROP2
  02306	89 45 e8	 mov	 DWORD PTR _nRop$[ebp], eax

; 767  : 	CPen Pen, *pOldPen;

  02309	8d 4d dc	 lea	 ecx, DWORD PTR _Pen$[ebp]
  0230c	e8 00 00 00 00	 call	 ??0CPen@@QAE@XZ		; CPen::CPen
  02311	c7 45 fc 00 00
	00 00		 mov	 DWORD PTR __$EHRec$[ebp+8], 0

; 768  : 	Pen.CreatePen(0, 1, RGB(0, 0, 0));

  02318	6a 00		 push	 0
  0231a	6a 01		 push	 1
  0231c	6a 00		 push	 0
  0231e	8d 4d dc	 lea	 ecx, DWORD PTR _Pen$[ebp]
  02321	e8 00 00 00 00	 call	 ?CreatePen@CPen@@QAEHHHK@Z ; CPen::CreatePen

; 769  : 	pOldPen = pDC->SelectObject(&Pen);

  02326	8d 4d dc	 lea	 ecx, DWORD PTR _Pen$[ebp]
  02329	51		 push	 ecx
  0232a	8b 4d ec	 mov	 ecx, DWORD PTR _pDC$[ebp]
  0232d	e8 00 00 00 00	 call	 ?SelectObject@CDC@@QAEPAVCPen@@PAV2@@Z ; CDC::SelectObject
  02332	89 45 d4	 mov	 DWORD PTR _pOldPen$[ebp], eax

; 770  : 
; 771  : 	for( int i= aRect.left+1, int j=aRect.top; i<aRect.right; i++ )

  02335	8b 55 0c	 mov	 edx, DWORD PTR _aRect$[ebp]
  02338	8b 02		 mov	 eax, DWORD PTR [edx]
  0233a	83 c0 01	 add	 eax, 1
  0233d	89 45 d0	 mov	 DWORD PTR _i$187605[ebp], eax
  02340	8b 4d 0c	 mov	 ecx, DWORD PTR _aRect$[ebp]
  02343	8b 51 04	 mov	 edx, DWORD PTR [ecx+4]
  02346	89 55 cc	 mov	 DWORD PTR _j$187606[ebp], edx
  02349	eb 09		 jmp	 SHORT $L187607
$L187608:
  0234b	8b 45 d0	 mov	 eax, DWORD PTR _i$187605[ebp]
  0234e	83 c0 01	 add	 eax, 1
  02351	89 45 d0	 mov	 DWORD PTR _i$187605[ebp], eax
$L187607:
  02354	8b 4d 0c	 mov	 ecx, DWORD PTR _aRect$[ebp]
  02357	8b 55 d0	 mov	 edx, DWORD PTR _i$187605[ebp]
  0235a	3b 51 08	 cmp	 edx, DWORD PTR [ecx+8]
  0235d	7d 1d		 jge	 SHORT $L187609

; 772  : 	{
; 773  : 		pDC->SetPixel(i,j,0);

  0235f	6a 00		 push	 0
  02361	8b 45 cc	 mov	 eax, DWORD PTR _j$187606[ebp]
  02364	50		 push	 eax
  02365	8b 4d d0	 mov	 ecx, DWORD PTR _i$187605[ebp]
  02368	51		 push	 ecx
  02369	8b 4d ec	 mov	 ecx, DWORD PTR _pDC$[ebp]
  0236c	e8 00 00 00 00	 call	 ?SetPixel@CDC@@QAEKHHK@Z ; CDC::SetPixel

; 774  : 		i++;

  02371	8b 55 d0	 mov	 edx, DWORD PTR _i$187605[ebp]
  02374	83 c2 01	 add	 edx, 1
  02377	89 55 d0	 mov	 DWORD PTR _i$187605[ebp], edx

; 775  : 	}

  0237a	eb cf		 jmp	 SHORT $L187608
$L187609:

; 776  : 	for( int i= aRect.right, int j=aRect.top+1; j<aRect.bottom; j++ )

  0237c	8b 45 0c	 mov	 eax, DWORD PTR _aRect$[ebp]
  0237f	8b 48 08	 mov	 ecx, DWORD PTR [eax+8]
  02382	89 4d c8	 mov	 DWORD PTR _i$187610[ebp], ecx
  02385	8b 55 0c	 mov	 edx, DWORD PTR _aRect$[ebp]
  02388	8b 42 04	 mov	 eax, DWORD PTR [edx+4]
  0238b	83 c0 01	 add	 eax, 1
  0238e	89 45 c4	 mov	 DWORD PTR _j$187611[ebp], eax
  02391	eb 09		 jmp	 SHORT $L187612
$L187613:
  02393	8b 4d c4	 mov	 ecx, DWORD PTR _j$187611[ebp]
  02396	83 c1 01	 add	 ecx, 1
  02399	89 4d c4	 mov	 DWORD PTR _j$187611[ebp], ecx
$L187612:
  0239c	8b 55 0c	 mov	 edx, DWORD PTR _aRect$[ebp]
  0239f	8b 45 c4	 mov	 eax, DWORD PTR _j$187611[ebp]
  023a2	3b 42 0c	 cmp	 eax, DWORD PTR [edx+12]
  023a5	7d 1d		 jge	 SHORT $L187614

; 777  : 	{
; 778  : 		pDC->SetPixel(i,j,0 );

  023a7	6a 00		 push	 0
  023a9	8b 4d c4	 mov	 ecx, DWORD PTR _j$187611[ebp]
  023ac	51		 push	 ecx
  023ad	8b 55 c8	 mov	 edx, DWORD PTR _i$187610[ebp]
  023b0	52		 push	 edx
  023b1	8b 4d ec	 mov	 ecx, DWORD PTR _pDC$[ebp]
  023b4	e8 00 00 00 00	 call	 ?SetPixel@CDC@@QAEKHHK@Z ; CDC::SetPixel

; 779  : 		j++;

  023b9	8b 45 c4	 mov	 eax, DWORD PTR _j$187611[ebp]
  023bc	83 c0 01	 add	 eax, 1
  023bf	89 45 c4	 mov	 DWORD PTR _j$187611[ebp], eax

; 780  : 	}

  023c2	eb cf		 jmp	 SHORT $L187613
$L187614:

; 781  : 	for( int i= aRect.right-1, int j=aRect.bottom; i>aRect.left; i-- )

  023c4	8b 4d 0c	 mov	 ecx, DWORD PTR _aRect$[ebp]
  023c7	8b 51 08	 mov	 edx, DWORD PTR [ecx+8]
  023ca	83 ea 01	 sub	 edx, 1
  023cd	89 55 c0	 mov	 DWORD PTR _i$187615[ebp], edx
  023d0	8b 45 0c	 mov	 eax, DWORD PTR _aRect$[ebp]
  023d3	8b 48 0c	 mov	 ecx, DWORD PTR [eax+12]
  023d6	89 4d bc	 mov	 DWORD PTR _j$187616[ebp], ecx
  023d9	eb 09		 jmp	 SHORT $L187617
$L187618:
  023db	8b 55 c0	 mov	 edx, DWORD PTR _i$187615[ebp]
  023de	83 ea 01	 sub	 edx, 1
  023e1	89 55 c0	 mov	 DWORD PTR _i$187615[ebp], edx
$L187617:
  023e4	8b 45 0c	 mov	 eax, DWORD PTR _aRect$[ebp]
  023e7	8b 4d c0	 mov	 ecx, DWORD PTR _i$187615[ebp]
  023ea	3b 08		 cmp	 ecx, DWORD PTR [eax]
  023ec	7e 1d		 jle	 SHORT $L187619

; 782  : 	{
; 783  : 		pDC->SetPixel(i,j,0);

  023ee	6a 00		 push	 0
  023f0	8b 55 bc	 mov	 edx, DWORD PTR _j$187616[ebp]
  023f3	52		 push	 edx
  023f4	8b 45 c0	 mov	 eax, DWORD PTR _i$187615[ebp]
  023f7	50		 push	 eax
  023f8	8b 4d ec	 mov	 ecx, DWORD PTR _pDC$[ebp]
  023fb	e8 00 00 00 00	 call	 ?SetPixel@CDC@@QAEKHHK@Z ; CDC::SetPixel

; 784  : 		i--;

  02400	8b 4d c0	 mov	 ecx, DWORD PTR _i$187615[ebp]
  02403	83 e9 01	 sub	 ecx, 1
  02406	89 4d c0	 mov	 DWORD PTR _i$187615[ebp], ecx

; 785  : 	}

  02409	eb d0		 jmp	 SHORT $L187618
$L187619:

; 786  : 	for( int i= aRect.left, int j=aRect.bottom-1; j>aRect.top; j-- )

  0240b	8b 55 0c	 mov	 edx, DWORD PTR _aRect$[ebp]
  0240e	8b 02		 mov	 eax, DWORD PTR [edx]
  02410	89 45 b8	 mov	 DWORD PTR _i$187620[ebp], eax
  02413	8b 4d 0c	 mov	 ecx, DWORD PTR _aRect$[ebp]
  02416	8b 51 0c	 mov	 edx, DWORD PTR [ecx+12]
  02419	83 ea 01	 sub	 edx, 1
  0241c	89 55 b4	 mov	 DWORD PTR _j$187621[ebp], edx
  0241f	eb 09		 jmp	 SHORT $L187622
$L187623:
  02421	8b 45 b4	 mov	 eax, DWORD PTR _j$187621[ebp]
  02424	83 e8 01	 sub	 eax, 1
  02427	89 45 b4	 mov	 DWORD PTR _j$187621[ebp], eax
$L187622:
  0242a	8b 4d 0c	 mov	 ecx, DWORD PTR _aRect$[ebp]
  0242d	8b 55 b4	 mov	 edx, DWORD PTR _j$187621[ebp]
  02430	3b 51 04	 cmp	 edx, DWORD PTR [ecx+4]
  02433	7e 1d		 jle	 SHORT $L187624

; 787  : 	{
; 788  : 		pDC->SetPixel(i,j,0);

  02435	6a 00		 push	 0
  02437	8b 45 b4	 mov	 eax, DWORD PTR _j$187621[ebp]
  0243a	50		 push	 eax
  0243b	8b 4d b8	 mov	 ecx, DWORD PTR _i$187620[ebp]
  0243e	51		 push	 ecx
  0243f	8b 4d ec	 mov	 ecx, DWORD PTR _pDC$[ebp]
  02442	e8 00 00 00 00	 call	 ?SetPixel@CDC@@QAEKHHK@Z ; CDC::SetPixel

; 789  : 		j--;

  02447	8b 55 b4	 mov	 edx, DWORD PTR _j$187621[ebp]
  0244a	83 ea 01	 sub	 edx, 1
  0244d	89 55 b4	 mov	 DWORD PTR _j$187621[ebp], edx

; 790  : 	}

  02450	eb cf		 jmp	 SHORT $L187623
$L187624:

; 791  : 	pDC->SetROP2(nRop);

  02452	8b 45 e8	 mov	 eax, DWORD PTR _nRop$[ebp]
  02455	50		 push	 eax
  02456	8b 4d ec	 mov	 ecx, DWORD PTR _pDC$[ebp]
  02459	e8 00 00 00 00	 call	 ?SetROP2@CDC@@QAEHH@Z	; CDC::SetROP2

; 792  : 	pDC->SelectObject(pOldPen);

  0245e	8b 4d d4	 mov	 ecx, DWORD PTR _pOldPen$[ebp]
  02461	51		 push	 ecx
  02462	8b 4d ec	 mov	 ecx, DWORD PTR _pDC$[ebp]
  02465	e8 00 00 00 00	 call	 ?SelectObject@CDC@@QAEPAVCPen@@PAV2@@Z ; CDC::SelectObject

; 793  : 	Pen.DeleteObject();

  0246a	8d 4d dc	 lea	 ecx, DWORD PTR _Pen$[ebp]
  0246d	e8 00 00 00 00	 call	 ?DeleteObject@CGdiObject@@QAEHXZ ; CGdiObject::DeleteObject

; 794  : }

  02472	c7 45 fc ff ff
	ff ff		 mov	 DWORD PTR __$EHRec$[ebp+8], -1
  02479	8d 4d dc	 lea	 ecx, DWORD PTR _Pen$[ebp]
  0247c	e8 00 00 00 00	 call	 ??1CPen@@UAE@XZ		; CPen::~CPen
  02481	52		 push	 edx
  02482	8b cd		 mov	 ecx, ebp
  02484	50		 push	 eax
  02485	8d 15 00 00 00
	00		 lea	 edx, DWORD PTR $L188620
  0248b	e8 00 00 00 00	 call	 @_RTC_CheckStackVars@8
  02490	58		 pop	 eax
  02491	5a		 pop	 edx
  02492	8b 4d f4	 mov	 ecx, DWORD PTR __$EHRec$[ebp]
  02495	64 89 0d 00 00
	00 00		 mov	 DWORD PTR fs:__except_list, ecx
  0249c	5f		 pop	 edi
  0249d	83 c4 4c	 add	 esp, 76			; 0000004cH
  024a0	3b ec		 cmp	 ebp, esp
  024a2	e8 00 00 00 00	 call	 __RTC_CheckEsp
  024a7	8b e5		 mov	 esp, ebp
  024a9	5d		 pop	 ebp
  024aa	c2 08 00	 ret	 8
$L188620:
  024ad	01 00 00 00	 DD	 1
  024b1	00 00 00 00	 DD	 $L188619
$L188619:
  024b5	dc ff ff ff	 DD	 -36			; ffffffdcH
  024b9	08 00 00 00	 DD	 8
  024bd	00 00 00 00	 DD	 $L188617
$L188617:
  024c1	50		 DB	 80			; 00000050H
  024c2	65		 DB	 101			; 00000065H
  024c3	6e		 DB	 110			; 0000006eH
  024c4	00		 DB	 0
_TEXT	ENDS
text$x	SEGMENT
$L188614:
  00050	8d 4d dc	 lea	 ecx, DWORD PTR _Pen$[ebp]
  00053	e9 00 00 00 00	 jmp	 ??1CPen@@UAE@XZ		; CPen::~CPen
__ehhandler$?DrawPointFrameXOR@CGdiEx@@UAEXPAUHDC__@@AAUtagRECT@@@Z:
  00058	b8 00 00 00 00	 mov	 eax, OFFSET FLAT:$T188616
  0005d	e9 00 00 00 00	 jmp	 ___CxxFrameHandler
text$x	ENDS
?DrawPointFrameXOR@CGdiEx@@UAEXPAUHDC__@@AAUtagRECT@@@Z ENDP ; CGdiEx::DrawPointFrameXOR
EXTRN	__imp__SetBkMode@8:NEAR
EXTRN	__imp__DrawTextA@20:NEAR
EXTRN	??0CFont@@QAE@XZ:NEAR				; CFont::CFont
EXTRN	?CreateFontIndirectA@CFont@@QAEHPBUtagLOGFONTA@@@Z:NEAR ; CFont::CreateFontIndirectA
EXTRN	??1CFont@@UAE@XZ:NEAR				; CFont::~CFont
EXTRN	__imp__GetDeviceCaps@8:NEAR
EXTRN	__imp_??B?$CSimpleStringT@D$00@ATL@@QBEPBDXZ:NEAR
EXTRN	__imp_?GetLength@?$CSimpleStringT@D$00@ATL@@QBEHXZ:NEAR
EXTRN	?GetTextColor@CDC@@QBEKXZ:NEAR			; CDC::GetTextColor
EXTRN	_memset:NEAR
EXTRN	__imp_??1?$CStringT@DV?$StrTraitMFC_DLL@DV?$ChTraitsCRT@D@ATL@@@@@ATL@@QAE@XZ:NEAR
EXTRN	__imp__MulDiv@12:NEAR
xdata$x	SEGMENT
$T188634 DD	0ffffffffH
	DD	FLAT:$L188624
	DD	00H
	DD	FLAT:$L188625
$T188627 DD	019930520H
	DD	02H
	DD	FLAT:$T188634
	DD	2 DUP(00H)
	DD	2 DUP(00H)
; Function compile flags: /Odt /RTCsu
xdata$x	ENDS
_TEXT	SEGMENT
_oldFont$ = -112					; size = 4
_font$ = -104						; size = 8
_lf$ = -88						; size = 60
_ltempColor$ = -24					; size = 4
_this$ = -20						; size = 4
__$ArrayPad$ = -16					; size = 4
__$EHRec$ = -12						; size = 12
__$ReturnAddr$ = 4					; size = 4
_apDC$ = 8						; size = 4
_astrText$ = 12						; size = 4
_acolText$ = 16						; size = 4
_lrectText$ = 20					; size = 4
?DrawTextA@CGdiEx@@UAEXPAVCDC@@V?$CStringT@DV?$StrTraitMFC_DLL@DV?$ChTraitsCRT@D@ATL@@@@@ATL@@KAAUtagRECT@@@Z PROC NEAR ; CGdiEx::DrawTextA
; _this$ = ecx

; 796  : {

  024d0	55		 push	 ebp
  024d1	8b ec		 mov	 ebp, esp
  024d3	6a ff		 push	 -1
  024d5	68 00 00 00 00	 push	 __ehhandler$?DrawTextA@CGdiEx@@UAEXPAVCDC@@V?$CStringT@DV?$StrTraitMFC_DLL@DV?$ChTraitsCRT@D@ATL@@@@@ATL@@KAAUtagRECT@@@Z
  024da	64 a1 00 00 00
	00		 mov	 eax, DWORD PTR fs:__except_list
  024e0	50		 push	 eax
  024e1	64 89 25 00 00
	00 00		 mov	 DWORD PTR fs:__except_list, esp
  024e8	83 ec 64	 sub	 esp, 100		; 00000064H
  024eb	56		 push	 esi
  024ec	57		 push	 edi
  024ed	51		 push	 ecx
  024ee	8d 7d 90	 lea	 edi, DWORD PTR [ebp-112]
  024f1	b9 19 00 00 00	 mov	 ecx, 25			; 00000019H
  024f6	b8 cc cc cc cc	 mov	 eax, -858993460		; ccccccccH
  024fb	f3 ab		 rep stosd
  024fd	59		 pop	 ecx
  024fe	a1 00 00 00 00	 mov	 eax, DWORD PTR ___security_cookie
  02503	89 45 f0	 mov	 DWORD PTR __$ArrayPad$[ebp], eax
  02506	89 4d ec	 mov	 DWORD PTR _this$[ebp], ecx
  02509	c7 45 fc 00 00
	00 00		 mov	 DWORD PTR __$EHRec$[ebp+8], 0

; 797  : 	
; 798  : 	if( !(apDC->m_hDC) ) return; 

  02510	8b 45 08	 mov	 eax, DWORD PTR _apDC$[ebp]
  02513	83 78 04 00	 cmp	 DWORD PTR [eax+4], 0
  02517	75 1e		 jne	 SHORT $L187632
  02519	c7 45 fc ff ff
	ff ff		 mov	 DWORD PTR __$EHRec$[ebp+8], -1
  02520	8b f4		 mov	 esi, esp
  02522	8d 4d 0c	 lea	 ecx, DWORD PTR _astrText$[ebp]
  02525	ff 15 00 00 00
	00		 call	 DWORD PTR __imp_??1?$CStringT@DV?$StrTraitMFC_DLL@DV?$ChTraitsCRT@D@ATL@@@@@ATL@@QAE@XZ
  0252b	3b f4		 cmp	 esi, esp
  0252d	e8 00 00 00 00	 call	 __RTC_CheckEsp
  02532	e9 6c 01 00 00	 jmp	 $L187631
$L187632:

; 799  : 	apDC->SetTextColor(acolText);

  02537	8b f4		 mov	 esi, esp
  02539	8b 4d 10	 mov	 ecx, DWORD PTR _acolText$[ebp]
  0253c	51		 push	 ecx
  0253d	8b 55 08	 mov	 edx, DWORD PTR _apDC$[ebp]
  02540	8b 02		 mov	 eax, DWORD PTR [edx]
  02542	8b 4d 08	 mov	 ecx, DWORD PTR _apDC$[ebp]
  02545	ff 50 38	 call	 DWORD PTR [eax+56]
  02548	3b f4		 cmp	 esi, esp
  0254a	e8 00 00 00 00	 call	 __RTC_CheckEsp

; 800  : 	SetBkMode(apDC->m_hDC, TRANSPARENT);

  0254f	8b f4		 mov	 esi, esp
  02551	6a 01		 push	 1
  02553	8b 4d 08	 mov	 ecx, DWORD PTR _apDC$[ebp]
  02556	8b 51 04	 mov	 edx, DWORD PTR [ecx+4]
  02559	52		 push	 edx
  0255a	ff 15 00 00 00
	00		 call	 DWORD PTR __imp__SetBkMode@8
  02560	3b f4		 cmp	 esi, esp
  02562	e8 00 00 00 00	 call	 __RTC_CheckEsp

; 801  : 	COLORREF ltempColor = apDC->GetTextColor();

  02567	8b 4d 08	 mov	 ecx, DWORD PTR _apDC$[ebp]
  0256a	e8 00 00 00 00	 call	 ?GetTextColor@CDC@@QBEKXZ ; CDC::GetTextColor
  0256f	89 45 e8	 mov	 DWORD PTR _ltempColor$[ebp], eax

; 802  : 	LOGFONT  lf;
; 803  : 	ZeroMemory(&lf,sizeof(lf));

  02572	6a 3c		 push	 60			; 0000003cH
  02574	6a 00		 push	 0
  02576	8d 45 a8	 lea	 eax, DWORD PTR _lf$[ebp]
  02579	50		 push	 eax
  0257a	e8 00 00 00 00	 call	 _memset
  0257f	83 c4 0c	 add	 esp, 12			; 0000000cH

; 804  : 	lf.lfHeight=-MulDiv(9,GetDeviceCaps(apDC->m_hDC,LOGPIXELSY),72);

  02582	8b f4		 mov	 esi, esp
  02584	6a 48		 push	 72			; 00000048H
  02586	8b fc		 mov	 edi, esp
  02588	6a 5a		 push	 90			; 0000005aH
  0258a	8b 4d 08	 mov	 ecx, DWORD PTR _apDC$[ebp]
  0258d	8b 51 04	 mov	 edx, DWORD PTR [ecx+4]
  02590	52		 push	 edx
  02591	ff 15 00 00 00
	00		 call	 DWORD PTR __imp__GetDeviceCaps@8
  02597	3b fc		 cmp	 edi, esp
  02599	e8 00 00 00 00	 call	 __RTC_CheckEsp
  0259e	50		 push	 eax
  0259f	6a 09		 push	 9
  025a1	ff 15 00 00 00
	00		 call	 DWORD PTR __imp__MulDiv@12
  025a7	3b f4		 cmp	 esi, esp
  025a9	e8 00 00 00 00	 call	 __RTC_CheckEsp
  025ae	f7 d8		 neg	 eax
  025b0	89 45 a8	 mov	 DWORD PTR _lf$[ebp], eax

; 805  : 	lf.lfWeight=FW_MEDIUM;

  025b3	c7 45 b8 f4 01
	00 00		 mov	 DWORD PTR _lf$[ebp+16], 500 ; 000001f4H

; 806  : 	lf.lfCharSet=GB2312_CHARSET;

  025ba	c6 45 bf 86	 mov	 BYTE PTR _lf$[ebp+23], 134 ; 00000086H

; 807  : 	lf.lfOutPrecision=OUT_DEFAULT_PRECIS;

  025be	c6 45 c0 00	 mov	 BYTE PTR _lf$[ebp+24], 0

; 808  : 	lf.lfClipPrecision=CLIP_DEFAULT_PRECIS;

  025c2	c6 45 c1 00	 mov	 BYTE PTR _lf$[ebp+25], 0

; 809  : 	lf.lfQuality=PROOF_QUALITY;

  025c6	c6 45 c2 02	 mov	 BYTE PTR _lf$[ebp+26], 2

; 810  : 	lf.lfPitchAndFamily=FF_DONTCARE | DEFAULT_PITCH;

  025ca	c6 45 c3 00	 mov	 BYTE PTR _lf$[ebp+27], 0

; 811  : 	CFont font;

  025ce	8d 4d 98	 lea	 ecx, DWORD PTR _font$[ebp]
  025d1	e8 00 00 00 00	 call	 ??0CFont@@QAE@XZ	; CFont::CFont
  025d6	c6 45 fc 01	 mov	 BYTE PTR __$EHRec$[ebp+8], 1

; 812  : 	font.CreateFontIndirect(&lf);

  025da	8d 45 a8	 lea	 eax, DWORD PTR _lf$[ebp]
  025dd	50		 push	 eax
  025de	8d 4d 98	 lea	 ecx, DWORD PTR _font$[ebp]
  025e1	e8 00 00 00 00	 call	 ?CreateFontIndirectA@CFont@@QAEHPBUtagLOGFONTA@@@Z ; CFont::CreateFontIndirectA

; 813  : 	CFont* oldFont = (CFont*)apDC->SelectObject(&font);

  025e6	8b f4		 mov	 esi, esp
  025e8	8d 4d 98	 lea	 ecx, DWORD PTR _font$[ebp]
  025eb	51		 push	 ecx
  025ec	8b 55 08	 mov	 edx, DWORD PTR _apDC$[ebp]
  025ef	8b 02		 mov	 eax, DWORD PTR [edx]
  025f1	8b 4d 08	 mov	 ecx, DWORD PTR _apDC$[ebp]
  025f4	ff 50 30	 call	 DWORD PTR [eax+48]
  025f7	3b f4		 cmp	 esi, esp
  025f9	e8 00 00 00 00	 call	 __RTC_CheckEsp
  025fe	89 45 90	 mov	 DWORD PTR _oldFont$[ebp], eax

; 814  : 	::DrawText(
; 815  : 		apDC->m_hDC,
; 816  : 		astrText,
; 817  : 		astrText.GetLength(),
; 818  : 		&lrectText,
; 819  : 		DT_LEFT | DT_VCENTER | DT_SINGLELINE | DT_END_ELLIPSIS
; 820  : 		);

  02601	8b f4		 mov	 esi, esp
  02603	68 24 80 00 00	 push	 32804			; 00008024H
  02608	8b 4d 14	 mov	 ecx, DWORD PTR _lrectText$[ebp]
  0260b	51		 push	 ecx
  0260c	8b fc		 mov	 edi, esp
  0260e	8d 4d 0c	 lea	 ecx, DWORD PTR _astrText$[ebp]
  02611	ff 15 00 00 00
	00		 call	 DWORD PTR __imp_?GetLength@?$CSimpleStringT@D$00@ATL@@QBEHXZ
  02617	3b fc		 cmp	 edi, esp
  02619	e8 00 00 00 00	 call	 __RTC_CheckEsp
  0261e	50		 push	 eax
  0261f	8b fc		 mov	 edi, esp
  02621	8d 4d 0c	 lea	 ecx, DWORD PTR _astrText$[ebp]
  02624	ff 15 00 00 00
	00		 call	 DWORD PTR __imp_??B?$CSimpleStringT@D$00@ATL@@QBEPBDXZ
  0262a	3b fc		 cmp	 edi, esp
  0262c	e8 00 00 00 00	 call	 __RTC_CheckEsp
  02631	50		 push	 eax
  02632	8b 55 08	 mov	 edx, DWORD PTR _apDC$[ebp]
  02635	8b 42 04	 mov	 eax, DWORD PTR [edx+4]
  02638	50		 push	 eax
  02639	ff 15 00 00 00
	00		 call	 DWORD PTR __imp__DrawTextA@20
  0263f	3b f4		 cmp	 esi, esp
  02641	e8 00 00 00 00	 call	 __RTC_CheckEsp

; 821  : 	apDC->SetTextColor(ltempColor);

  02646	8b f4		 mov	 esi, esp
  02648	8b 4d e8	 mov	 ecx, DWORD PTR _ltempColor$[ebp]
  0264b	51		 push	 ecx
  0264c	8b 55 08	 mov	 edx, DWORD PTR _apDC$[ebp]
  0264f	8b 02		 mov	 eax, DWORD PTR [edx]
  02651	8b 4d 08	 mov	 ecx, DWORD PTR _apDC$[ebp]
  02654	ff 50 38	 call	 DWORD PTR [eax+56]
  02657	3b f4		 cmp	 esi, esp
  02659	e8 00 00 00 00	 call	 __RTC_CheckEsp

; 822  : 	apDC->SelectObject(oldFont);

  0265e	8b f4		 mov	 esi, esp
  02660	8b 4d 90	 mov	 ecx, DWORD PTR _oldFont$[ebp]
  02663	51		 push	 ecx
  02664	8b 55 08	 mov	 edx, DWORD PTR _apDC$[ebp]
  02667	8b 02		 mov	 eax, DWORD PTR [edx]
  02669	8b 4d 08	 mov	 ecx, DWORD PTR _apDC$[ebp]
  0266c	ff 50 30	 call	 DWORD PTR [eax+48]
  0266f	3b f4		 cmp	 esi, esp
  02671	e8 00 00 00 00	 call	 __RTC_CheckEsp

; 823  : 	font.DeleteObject();

  02676	8d 4d 98	 lea	 ecx, DWORD PTR _font$[ebp]
  02679	e8 00 00 00 00	 call	 ?DeleteObject@CGdiObject@@QAEHXZ ; CGdiObject::DeleteObject

; 824  : }

  0267e	c6 45 fc 00	 mov	 BYTE PTR __$EHRec$[ebp+8], 0
  02682	8d 4d 98	 lea	 ecx, DWORD PTR _font$[ebp]
  02685	e8 00 00 00 00	 call	 ??1CFont@@UAE@XZ	; CFont::~CFont
  0268a	c7 45 fc ff ff
	ff ff		 mov	 DWORD PTR __$EHRec$[ebp+8], -1
  02691	8b f4		 mov	 esi, esp
  02693	8d 4d 0c	 lea	 ecx, DWORD PTR _astrText$[ebp]
  02696	ff 15 00 00 00
	00		 call	 DWORD PTR __imp_??1?$CStringT@DV?$StrTraitMFC_DLL@DV?$ChTraitsCRT@D@ATL@@@@@ATL@@QAE@XZ
  0269c	3b f4		 cmp	 esi, esp
  0269e	e8 00 00 00 00	 call	 __RTC_CheckEsp
$L187631:
  026a3	52		 push	 edx
  026a4	8b cd		 mov	 ecx, ebp
  026a6	50		 push	 eax
  026a7	8d 15 00 00 00
	00		 lea	 edx, DWORD PTR $L188633
  026ad	e8 00 00 00 00	 call	 @_RTC_CheckStackVars@8
  026b2	58		 pop	 eax
  026b3	5a		 pop	 edx
  026b4	8b 4d f4	 mov	 ecx, DWORD PTR __$EHRec$[ebp]
  026b7	64 89 0d 00 00
	00 00		 mov	 DWORD PTR fs:__except_list, ecx
  026be	8b 4d f0	 mov	 ecx, DWORD PTR __$ArrayPad$[ebp]
  026c1	e8 00 00 00 00	 call	 @__security_check_cookie@4
  026c6	5f		 pop	 edi
  026c7	5e		 pop	 esi
  026c8	83 c4 70	 add	 esp, 112		; 00000070H
  026cb	3b ec		 cmp	 ebp, esp
  026cd	e8 00 00 00 00	 call	 __RTC_CheckEsp
  026d2	8b e5		 mov	 esp, ebp
  026d4	5d		 pop	 ebp
  026d5	c2 10 00	 ret	 16			; 00000010H
$L188633:
  026d8	02 00 00 00	 DD	 2
  026dc	00 00 00 00	 DD	 $L188632
$L188632:
  026e0	a8 ff ff ff	 DD	 -88			; ffffffa8H
  026e4	3c 00 00 00	 DD	 60			; 0000003cH
  026e8	00 00 00 00	 DD	 $L188628
  026ec	98 ff ff ff	 DD	 -104			; ffffff98H
  026f0	08 00 00 00	 DD	 8
  026f4	00 00 00 00	 DD	 $L188629
$L188629:
  026f8	66		 DB	 102			; 00000066H
  026f9	6f		 DB	 111			; 0000006fH
  026fa	6e		 DB	 110			; 0000006eH
  026fb	74		 DB	 116			; 00000074H
  026fc	00		 DB	 0
$L188628:
  026fd	6c		 DB	 108			; 0000006cH
  026fe	66		 DB	 102			; 00000066H
  026ff	00		 DB	 0
_TEXT	ENDS
text$x	SEGMENT
$L188624:
  00062	8b f4		 mov	 esi, esp
  00064	8d 4d 0c	 lea	 ecx, DWORD PTR _astrText$[ebp]
  00067	ff 15 00 00 00
	00		 call	 DWORD PTR __imp_??1?$CStringT@DV?$StrTraitMFC_DLL@DV?$ChTraitsCRT@D@ATL@@@@@ATL@@QAE@XZ
  0006d	3b f4		 cmp	 esi, esp
  0006f	e9 00 00 00 00	 jmp	 __RTC_CheckEsp
$L188625:
  00074	8d 4d 98	 lea	 ecx, DWORD PTR _font$[ebp]
  00077	e9 00 00 00 00	 jmp	 ??1CFont@@UAE@XZ	; CFont::~CFont
__ehhandler$?DrawTextA@CGdiEx@@UAEXPAVCDC@@V?$CStringT@DV?$StrTraitMFC_DLL@DV?$ChTraitsCRT@D@ATL@@@@@ATL@@KAAUtagRECT@@@Z:
  0007c	b8 00 00 00 00	 mov	 eax, OFFSET FLAT:$T188627
  00081	e9 00 00 00 00	 jmp	 ___CxxFrameHandler
text$x	ENDS
?DrawTextA@CGdiEx@@UAEXPAVCDC@@V?$CStringT@DV?$StrTraitMFC_DLL@DV?$ChTraitsCRT@D@ATL@@@@@ATL@@KAAUtagRECT@@@Z ENDP ; CGdiEx::DrawTextA
; Function compile flags: /Odt /RTCsu
_TEXT	SEGMENT
_oldFont$ = -12						; size = 4
_ltempColor$ = -8					; size = 4
_this$ = -4						; size = 4
_apDC$ = 8						; size = 4
_astrText$ = 12						; size = 4
_acolText$ = 16						; size = 4
_lrectText$ = 20					; size = 4
_font$ = 24						; size = 4
_maxX$ = 28						; size = 4
_maxY$ = 32						; size = 4
_anFormat$ = 36						; size = 4
?DrawTextQuick@CGdiEx@@UAEXPAVCDC@@AAV?$CStringT@DV?$StrTraitMFC_DLL@DV?$ChTraitsCRT@D@ATL@@@@@ATL@@KAAUtagRECT@@AAVCFont@@HHH@Z PROC NEAR ; CGdiEx::DrawTextQuick
; _this$ = ecx

; 826  : {

  02700	55		 push	 ebp
  02701	8b ec		 mov	 ebp, esp
  02703	83 ec 0c	 sub	 esp, 12			; 0000000cH
  02706	56		 push	 esi
  02707	57		 push	 edi
  02708	c7 45 f4 cc cc
	cc cc		 mov	 DWORD PTR [ebp-12], -858993460 ; ccccccccH
  0270f	c7 45 f8 cc cc
	cc cc		 mov	 DWORD PTR [ebp-8], -858993460 ; ccccccccH
  02716	c7 45 fc cc cc
	cc cc		 mov	 DWORD PTR [ebp-4], -858993460 ; ccccccccH
  0271d	89 4d fc	 mov	 DWORD PTR _this$[ebp], ecx

; 827  : 	
; 828  : 	if( !(apDC->m_hDC) ) return; 

  02720	8b 45 08	 mov	 eax, DWORD PTR _apDC$[ebp]
  02723	83 78 04 00	 cmp	 DWORD PTR [eax+4], 0
  02727	75 05		 jne	 SHORT $L187649
  02729	e9 0a 01 00 00	 jmp	 $L187648
$L187649:

; 829  : 
; 830  : 	if( lrectText.bottom < 0) return;

  0272e	8b 4d 14	 mov	 ecx, DWORD PTR _lrectText$[ebp]
  02731	83 79 0c 00	 cmp	 DWORD PTR [ecx+12], 0
  02735	7d 05		 jge	 SHORT $L187650
  02737	e9 fc 00 00 00	 jmp	 $L187648
$L187650:

; 831  : 	if( lrectText.right < 0)  return;

  0273c	8b 55 14	 mov	 edx, DWORD PTR _lrectText$[ebp]
  0273f	83 7a 08 00	 cmp	 DWORD PTR [edx+8], 0
  02743	7d 05		 jge	 SHORT $L187651
  02745	e9 ee 00 00 00	 jmp	 $L187648
$L187651:

; 832  : 	if( lrectText.left>maxX)  return;

  0274a	8b 45 14	 mov	 eax, DWORD PTR _lrectText$[ebp]
  0274d	8b 08		 mov	 ecx, DWORD PTR [eax]
  0274f	3b 4d 1c	 cmp	 ecx, DWORD PTR _maxX$[ebp]
  02752	7e 05		 jle	 SHORT $L187652
  02754	e9 df 00 00 00	 jmp	 $L187648
$L187652:

; 833  : 	if( lrectText.top> maxY)  return;

  02759	8b 55 14	 mov	 edx, DWORD PTR _lrectText$[ebp]
  0275c	8b 42 04	 mov	 eax, DWORD PTR [edx+4]
  0275f	3b 45 20	 cmp	 eax, DWORD PTR _maxY$[ebp]
  02762	7e 05		 jle	 SHORT $L187653
  02764	e9 cf 00 00 00	 jmp	 $L187648
$L187653:

; 834  : 
; 835  : 	
; 836  : 	
; 837  : 	apDC->SetTextColor(acolText);

  02769	8b f4		 mov	 esi, esp
  0276b	8b 4d 10	 mov	 ecx, DWORD PTR _acolText$[ebp]
  0276e	51		 push	 ecx
  0276f	8b 55 08	 mov	 edx, DWORD PTR _apDC$[ebp]
  02772	8b 02		 mov	 eax, DWORD PTR [edx]
  02774	8b 4d 08	 mov	 ecx, DWORD PTR _apDC$[ebp]
  02777	ff 50 38	 call	 DWORD PTR [eax+56]
  0277a	3b f4		 cmp	 esi, esp
  0277c	e8 00 00 00 00	 call	 __RTC_CheckEsp

; 838  : 	SetBkMode(apDC->m_hDC, TRANSPARENT);

  02781	8b f4		 mov	 esi, esp
  02783	6a 01		 push	 1
  02785	8b 4d 08	 mov	 ecx, DWORD PTR _apDC$[ebp]
  02788	8b 51 04	 mov	 edx, DWORD PTR [ecx+4]
  0278b	52		 push	 edx
  0278c	ff 15 00 00 00
	00		 call	 DWORD PTR __imp__SetBkMode@8
  02792	3b f4		 cmp	 esi, esp
  02794	e8 00 00 00 00	 call	 __RTC_CheckEsp

; 839  : 	COLORREF ltempColor = apDC->GetTextColor();

  02799	8b 4d 08	 mov	 ecx, DWORD PTR _apDC$[ebp]
  0279c	e8 00 00 00 00	 call	 ?GetTextColor@CDC@@QBEKXZ ; CDC::GetTextColor
  027a1	89 45 f8	 mov	 DWORD PTR _ltempColor$[ebp], eax

; 840  : 	CFont* oldFont = (CFont*)apDC->SelectObject(&font);

  027a4	8b f4		 mov	 esi, esp
  027a6	8b 45 18	 mov	 eax, DWORD PTR _font$[ebp]
  027a9	50		 push	 eax
  027aa	8b 4d 08	 mov	 ecx, DWORD PTR _apDC$[ebp]
  027ad	8b 11		 mov	 edx, DWORD PTR [ecx]
  027af	8b 4d 08	 mov	 ecx, DWORD PTR _apDC$[ebp]
  027b2	ff 52 30	 call	 DWORD PTR [edx+48]
  027b5	3b f4		 cmp	 esi, esp
  027b7	e8 00 00 00 00	 call	 __RTC_CheckEsp
  027bc	89 45 f4	 mov	 DWORD PTR _oldFont$[ebp], eax

; 841  : 	::DrawText(
; 842  : 		apDC->m_hDC,
; 843  : 		astrText,
; 844  : 		astrText.GetLength(),
; 845  : 		&lrectText,
; 846  : 		anFormat|DT_NOPREFIX
; 847  : 		);

  027bf	8b 45 24	 mov	 eax, DWORD PTR _anFormat$[ebp]
  027c2	0d 00 08 00 00	 or	 eax, 2048		; 00000800H
  027c7	8b f4		 mov	 esi, esp
  027c9	50		 push	 eax
  027ca	8b 4d 14	 mov	 ecx, DWORD PTR _lrectText$[ebp]
  027cd	51		 push	 ecx
  027ce	8b fc		 mov	 edi, esp
  027d0	8b 4d 0c	 mov	 ecx, DWORD PTR _astrText$[ebp]
  027d3	ff 15 00 00 00
	00		 call	 DWORD PTR __imp_?GetLength@?$CSimpleStringT@D$00@ATL@@QBEHXZ
  027d9	3b fc		 cmp	 edi, esp
  027db	e8 00 00 00 00	 call	 __RTC_CheckEsp
  027e0	50		 push	 eax
  027e1	8b fc		 mov	 edi, esp
  027e3	8b 4d 0c	 mov	 ecx, DWORD PTR _astrText$[ebp]
  027e6	ff 15 00 00 00
	00		 call	 DWORD PTR __imp_??B?$CSimpleStringT@D$00@ATL@@QBEPBDXZ
  027ec	3b fc		 cmp	 edi, esp
  027ee	e8 00 00 00 00	 call	 __RTC_CheckEsp
  027f3	50		 push	 eax
  027f4	8b 55 08	 mov	 edx, DWORD PTR _apDC$[ebp]
  027f7	8b 42 04	 mov	 eax, DWORD PTR [edx+4]
  027fa	50		 push	 eax
  027fb	ff 15 00 00 00
	00		 call	 DWORD PTR __imp__DrawTextA@20
  02801	3b f4		 cmp	 esi, esp
  02803	e8 00 00 00 00	 call	 __RTC_CheckEsp

; 848  : 	apDC->SetTextColor(ltempColor);	

  02808	8b f4		 mov	 esi, esp
  0280a	8b 4d f8	 mov	 ecx, DWORD PTR _ltempColor$[ebp]
  0280d	51		 push	 ecx
  0280e	8b 55 08	 mov	 edx, DWORD PTR _apDC$[ebp]
  02811	8b 02		 mov	 eax, DWORD PTR [edx]
  02813	8b 4d 08	 mov	 ecx, DWORD PTR _apDC$[ebp]
  02816	ff 50 38	 call	 DWORD PTR [eax+56]
  02819	3b f4		 cmp	 esi, esp
  0281b	e8 00 00 00 00	 call	 __RTC_CheckEsp

; 849  : 	apDC->SelectObject(oldFont);

  02820	8b f4		 mov	 esi, esp
  02822	8b 4d f4	 mov	 ecx, DWORD PTR _oldFont$[ebp]
  02825	51		 push	 ecx
  02826	8b 55 08	 mov	 edx, DWORD PTR _apDC$[ebp]
  02829	8b 02		 mov	 eax, DWORD PTR [edx]
  0282b	8b 4d 08	 mov	 ecx, DWORD PTR _apDC$[ebp]
  0282e	ff 50 30	 call	 DWORD PTR [eax+48]
  02831	3b f4		 cmp	 esi, esp
