; Listing generated by Microsoft (R) Optimizing Compiler Version 13.10.3077 

	TITLE	.\src\Global\GlobalFunction.cpp
	.386P
include listing.inc
if @Version gt 510
.model FLAT
else
_TEXT	SEGMENT PARA USE32 PUBLIC 'CODE'
_TEXT	ENDS
_DATA	SEGMENT DWORD USE32 PUBLIC 'DATA'
_DATA	ENDS
CONST	SEGMENT DWORD USE32 PUBLIC 'CONST'
CONST	ENDS
_BSS	SEGMENT DWORD USE32 PUBLIC 'BSS'
_BSS	ENDS
$$SYMBOLS	SEGMENT BYTE USE32 'DEBSYM'
$$SYMBOLS	ENDS
_TLS	SEGMENT DWORD USE32 PUBLIC 'TLS'
_TLS	ENDS
;	COMDAT ??_C@_0EN@IBFBLEEG@D?3?2Program?5Files?5?$CIx86?$CJ?2Microsoft@
CONST	SEGMENT DWORD USE32 PUBLIC 'CONST'
CONST	ENDS
;	COMDAT ??_C@_0BD@OLBABOEK@vector?$DMT?$DO?5too?5long?$AA@
CONST	SEGMENT DWORD USE32 PUBLIC 'CONST'
CONST	ENDS
rdata$r	SEGMENT DWORD USE32 PUBLIC 'CONST'
rdata$r	ENDS
xdata$x	SEGMENT DWORD USE32 PUBLIC 'CONST'
xdata$x	ENDS
text$AFX_COL1	SEGMENT PARA USE32 PUBLIC ''
text$AFX_COL1	ENDS
text$yc	SEGMENT PARA USE32 PUBLIC 'CODE'
text$yc	ENDS
CRT$XCA	SEGMENT DWORD USE32 PUBLIC 'DATA'
CRT$XCA	ENDS
CRT$XCU	SEGMENT DWORD USE32 PUBLIC 'DATA'
CRT$XCU	ENDS
CRT$XCL	SEGMENT DWORD USE32 PUBLIC 'DATA'
CRT$XCL	ENDS
CRT$XCC	SEGMENT DWORD USE32 PUBLIC 'DATA'
CRT$XCC	ENDS
CRT$XCZ	SEGMENT DWORD USE32 PUBLIC 'DATA'
CRT$XCZ	ENDS
text$yd	SEGMENT PARA USE32 PUBLIC 'CODE'
text$yd	ENDS
ATL$__m	SEGMENT DWORD USE32 PUBLIC ''
ATL$__m	ENDS
ATL$__z	SEGMENT DWORD USE32 PUBLIC ''
ATL$__z	ENDS
ATL$__a	SEGMENT DWORD USE32 PUBLIC ''
ATL$__a	ENDS
;	COMDAT ??B?$CComPtrBase@UITypeInfo2@@@ATL@@QBEPAUITypeInfo2@@XZ
_TEXT	SEGMENT PARA USE32 PUBLIC 'CODE'
_TEXT	ENDS
;	COMDAT ?equal@?$istreambuf_iterator@DU?$char_traits@D@std@@@std@@QBE_NABV12@@Z
_TEXT	SEGMENT PARA USE32 PUBLIC 'CODE'
_TEXT	ENDS
;	COMDAT ?equal@?$istreambuf_iterator@_WU?$char_traits@_W@std@@@std@@QBE_NABV12@@Z
_TEXT	SEGMENT PARA USE32 PUBLIC 'CODE'
_TEXT	ENDS
;	COMDAT ??0?$vector@V?$basic_string@DU?$char_traits@D@std@@V?$allocator@D@2@@std@@V?$allocator@V?$basic_string@DU?$char_traits@D@std@@V?$allocator@D@2@@std@@@2@@std@@QAE@XZ
_TEXT	SEGMENT PARA USE32 PUBLIC 'CODE'
_TEXT	ENDS
;	COMDAT ??1?$vector@V?$basic_string@DU?$char_traits@D@std@@V?$allocator@D@2@@std@@V?$allocator@V?$basic_string@DU?$char_traits@D@std@@V?$allocator@D@2@@std@@@2@@std@@QAE@XZ
_TEXT	SEGMENT PARA USE32 PUBLIC 'CODE'
_TEXT	ENDS
;	COMDAT ??0?$allocator@V?$basic_string@DU?$char_traits@D@std@@V?$allocator@D@2@@std@@@std@@QAE@XZ
_TEXT	SEGMENT PARA USE32 PUBLIC 'CODE'
_TEXT	ENDS
;	COMDAT ?_Buy@?$vector@V?$basic_string@DU?$char_traits@D@std@@V?$allocator@D@2@@std@@V?$allocator@V?$basic_string@DU?$char_traits@D@std@@V?$allocator@D@2@@std@@@2@@std@@IAE_NI@Z
_TEXT	SEGMENT PARA USE32 PUBLIC 'CODE'
_TEXT	ENDS
;	COMDAT ?_Tidy@?$vector@V?$basic_string@DU?$char_traits@D@std@@V?$allocator@D@2@@std@@V?$allocator@V?$basic_string@DU?$char_traits@D@std@@V?$allocator@D@2@@std@@@2@@std@@IAEXXZ
_TEXT	SEGMENT PARA USE32 PUBLIC 'CODE'
_TEXT	ENDS
;	COMDAT ??0?$_Vector_val@V?$basic_string@DU?$char_traits@D@std@@V?$allocator@D@2@@std@@V?$allocator@V?$basic_string@DU?$char_traits@D@std@@V?$allocator@D@2@@std@@@2@@std@@IAE@V?$allocator@V?$basic_string@DU?$char_traits@D@std@@V?$allocator@D@2@@std@@@1@@Z
_TEXT	SEGMENT PARA USE32 PUBLIC 'CODE'
_TEXT	ENDS
;	COMDAT ??0?$allocator@V?$basic_string@DU?$char_traits@D@std@@V?$allocator@D@2@@std@@@std@@QAE@ABV01@@Z
_TEXT	SEGMENT PARA USE32 PUBLIC 'CODE'
_TEXT	ENDS
;	COMDAT ?deallocate@?$allocator@V?$basic_string@DU?$char_traits@D@std@@V?$allocator@D@2@@std@@@std@@QAEXPAV?$basic_string@DU?$char_traits@D@std@@V?$allocator@D@2@@2@I@Z
_TEXT	SEGMENT PARA USE32 PUBLIC 'CODE'
_TEXT	ENDS
;	COMDAT ?allocate@?$allocator@V?$basic_string@DU?$char_traits@D@std@@V?$allocator@D@2@@std@@@std@@QAEPAV?$basic_string@DU?$char_traits@D@std@@V?$allocator@D@2@@2@I@Z
_TEXT	SEGMENT PARA USE32 PUBLIC 'CODE'
_TEXT	ENDS
;	COMDAT ?max_size@?$vector@V?$basic_string@DU?$char_traits@D@std@@V?$allocator@D@2@@std@@V?$allocator@V?$basic_string@DU?$char_traits@D@std@@V?$allocator@D@2@@std@@@2@@std@@QBEIXZ
_TEXT	SEGMENT PARA USE32 PUBLIC 'CODE'
_TEXT	ENDS
;	COMDAT ?_Destroy@?$vector@V?$basic_string@DU?$char_traits@D@std@@V?$allocator@D@2@@std@@V?$allocator@V?$basic_string@DU?$char_traits@D@std@@V?$allocator@D@2@@std@@@2@@std@@IAEXPAV?$basic_string@DU?$char_traits@D@std@@V?$allocator@D@2@@2@0@Z
_TEXT	SEGMENT PARA USE32 PUBLIC 'CODE'
_TEXT	ENDS
;	COMDAT ?_Xlen@?$vector@V?$basic_string@DU?$char_traits@D@std@@V?$allocator@D@2@@std@@V?$allocator@V?$basic_string@DU?$char_traits@D@std@@V?$allocator@D@2@@std@@@2@@std@@IBEXXZ
_TEXT	SEGMENT PARA USE32 PUBLIC 'CODE'
_TEXT	ENDS
;	COMDAT ??0length_error@std@@QAE@ABV01@@Z
_TEXT	SEGMENT PARA USE32 PUBLIC 'CODE'
_TEXT	ENDS
;	COMDAT ?max_size@?$allocator@V?$basic_string@DU?$char_traits@D@std@@V?$allocator@D@2@@std@@@std@@QBEIXZ
_TEXT	SEGMENT PARA USE32 PUBLIC 'CODE'
_TEXT	ENDS
;	COMDAT ?Unlock@?$CComCritSecLock@VCComCriticalSection@ATL@@@ATL@@QAEXXZ
_TEXT	SEGMENT PARA USE32 PUBLIC 'CODE'
_TEXT	ENDS
;	COMDAT ??$_Maklocstr@D@std@@YAPADPBDPADABU_Cvtvec@@@Z
_TEXT	SEGMENT PARA USE32 PUBLIC 'CODE'
_TEXT	ENDS
;	COMDAT ??$_Allocate@V?$basic_string@DU?$char_traits@D@std@@V?$allocator@D@2@@std@@@std@@YAPAV?$basic_string@DU?$char_traits@D@std@@V?$allocator@D@2@@0@IPAV10@@Z
_TEXT	SEGMENT PARA USE32 PUBLIC 'CODE'
_TEXT	ENDS
;	COMDAT ??$_Destroy_range@V?$basic_string@DU?$char_traits@D@std@@V?$allocator@D@2@@std@@V?$allocator@V?$basic_string@DU?$char_traits@D@std@@V?$allocator@D@2@@std@@@2@@std@@YAXPAV?$basic_string@DU?$char_traits@D@std@@V?$allocator@D@2@@0@0AAV?$allocator@V?$basic_string@DU?$char_traits@D@std@@V?$allocator@D@2@@std@@@0@@Z
_TEXT	SEGMENT PARA USE32 PUBLIC 'CODE'
_TEXT	ENDS
;	COMDAT ??$_Ptr_cat@PAV?$basic_string@DU?$char_traits@D@std@@V?$allocator@D@2@@std@@PAV12@@std@@YA?AU_Nonscalar_ptr_iterator_tag@0@AAPAV?$basic_string@DU?$char_traits@D@std@@V?$allocator@D@2@@0@0@Z
_TEXT	SEGMENT PARA USE32 PUBLIC 'CODE'
_TEXT	ENDS
;	COMDAT ??$_Destroy_range@V?$basic_string@DU?$char_traits@D@std@@V?$allocator@D@2@@std@@V?$allocator@V?$basic_string@DU?$char_traits@D@std@@V?$allocator@D@2@@std@@@2@@std@@YAXPAV?$basic_string@DU?$char_traits@D@std@@V?$allocator@D@2@@0@0AAV?$allocator@V?$basic_string@DU?$char_traits@D@std@@V?$allocator@D@2@@std@@@0@U_Nonscalar_ptr_iterator_tag@0@@Z
_TEXT	SEGMENT PARA USE32 PUBLIC 'CODE'
_TEXT	ENDS
;	COMDAT ?destroy@?$allocator@V?$basic_string@DU?$char_traits@D@std@@V?$allocator@D@2@@std@@@std@@QAEXPAV?$basic_string@DU?$char_traits@D@std@@V?$allocator@D@2@@2@@Z
_TEXT	SEGMENT PARA USE32 PUBLIC 'CODE'
_TEXT	ENDS
;	COMDAT ??$_Destroy@V?$basic_string@DU?$char_traits@D@std@@V?$allocator@D@2@@std@@@std@@YAXPAV?$basic_string@DU?$char_traits@D@std@@V?$allocator@D@2@@0@@Z
_TEXT	SEGMENT PARA USE32 PUBLIC 'CODE'
_TEXT	ENDS
;	COMDAT ??_G?$basic_string@DU?$char_traits@D@std@@V?$allocator@D@2@@std@@QAEPAXI@Z
_TEXT	SEGMENT PARA USE32 PUBLIC 'CODE'
_TEXT	ENDS
;	COMDAT ??_R3?$numpunct@_W@std@@8
rdata$r	SEGMENT DWORD USE32 PUBLIC 'CONST'
rdata$r	ENDS
;	COMDAT ??_R3?$numpunct@D@std@@8
rdata$r	SEGMENT DWORD USE32 PUBLIC 'CONST'
rdata$r	ENDS
;	COMDAT ??_R2?$numpunct@_W@std@@8
rdata$r	SEGMENT DWORD USE32 PUBLIC 'CONST'
rdata$r	ENDS
;	COMDAT ??_R2?$numpunct@D@std@@8
rdata$r	SEGMENT DWORD USE32 PUBLIC 'CONST'
rdata$r	ENDS
;	COMDAT ??_R1A@?0A@A@?$numpunct@_W@std@@8
rdata$r	SEGMENT DWORD USE32 PUBLIC 'CONST'
rdata$r	ENDS
;	COMDAT ??_R1A@?0A@A@facet@locale@std@@8
rdata$r	SEGMENT DWORD USE32 PUBLIC 'CONST'
rdata$r	ENDS
;	COMDAT ??_R0?AVfacet@locale@std@@@8
_DATA	SEGMENT DWORD USE32 PUBLIC 'DATA'
_DATA	ENDS
;	COMDAT ??_R1A@?0A@A@?$numpunct@D@std@@8
rdata$r	SEGMENT DWORD USE32 PUBLIC 'CONST'
rdata$r	ENDS
;	COMDAT ??_R0?AV?$numpunct@_W@std@@@8
_DATA	SEGMENT DWORD USE32 PUBLIC 'DATA'
_DATA	ENDS
;	COMDAT ??_R0?AV?$numpunct@D@std@@@8
_DATA	SEGMENT DWORD USE32 PUBLIC 'DATA'
_DATA	ENDS
;	COMDAT ??0?$allocator@_W@std@@QAE@XZ
_TEXT	SEGMENT PARA USE32 PUBLIC 'CODE'
_TEXT	ENDS
;	COMDAT ??_G?$numpunct@_W@std@@MAEPAXI@Z
_TEXT	SEGMENT PARA USE32 PUBLIC 'CODE'
_TEXT	ENDS
;	COMDAT ??_R4?$numpunct@_W@std@@6B@
rdata$r	SEGMENT DWORD USE32 PUBLIC 'CONST'
rdata$r	ENDS
;	COMDAT ??_G?$numpunct@D@std@@MAEPAXI@Z
_TEXT	SEGMENT PARA USE32 PUBLIC 'CODE'
_TEXT	ENDS
;	COMDAT ??_R4?$numpunct@D@std@@6B@
rdata$r	SEGMENT DWORD USE32 PUBLIC 'CONST'
rdata$r	ENDS
;	COMDAT ??_C@_0EN@CBMLGOH@D?3?2Program?5Files?5?$CIx86?$CJ?2Microsoft@
CONST	SEGMENT DWORD USE32 PUBLIC 'CONST'
CONST	ENDS
;	COMDAT ?_Psave@?$_Facetptr@V?$numpunct@_W@std@@@std@@2PBVfacet@locale@2@B
_DATA	SEGMENT DWORD USE32 PUBLIC 'DATA'
_DATA	ENDS
;	COMDAT ?_Psave@?$_Facetptr@V?$numpunct@D@std@@@std@@2PBVfacet@locale@2@B
_DATA	SEGMENT DWORD USE32 PUBLIC 'DATA'
_DATA	ENDS
;	COMDAT ?Unlock@CComCriticalSection@ATL@@QAEJXZ
_TEXT	SEGMENT PARA USE32 PUBLIC 'CODE'
_TEXT	ENDS
;	COMDAT ??_C@_0FG@LDNDNCJM@D?3?2Program?5Files?5?$CIx86?$CJ?2Microsoft@
CONST	SEGMENT DWORD USE32 PUBLIC 'CONST'
CONST	ENDS
;	COMDAT ??_C@_09HIEJFN@m_bLocked?$AA@
CONST	SEGMENT DWORD USE32 PUBLIC 'CONST'
CONST	ENDS
;	COMDAT ?_Psave@?$_Facetptr@V?$ctype@_W@std@@@std@@2PBVfacet@locale@2@B
_DATA	SEGMENT DWORD USE32 PUBLIC 'DATA'
_DATA	ENDS
;	COMDAT ?_Psave@?$_Facetptr@V?$ctype@D@std@@@std@@2PBVfacet@locale@2@B
_DATA	SEGMENT DWORD USE32 PUBLIC 'DATA'
_DATA	ENDS
;	COMDAT ??_7length_error@std@@6B@
CONST	SEGMENT DWORD USE32 PUBLIC 'CONST'
CONST	ENDS
;	COMDAT ??_R4length_error@std@@6B@
rdata$r	SEGMENT DWORD USE32 PUBLIC 'CONST'
rdata$r	ENDS
;	COMDAT ??_R3length_error@std@@8
rdata$r	SEGMENT DWORD USE32 PUBLIC 'CONST'
rdata$r	ENDS
;	COMDAT ??_R2length_error@std@@8
rdata$r	SEGMENT DWORD USE32 PUBLIC 'CONST'
rdata$r	ENDS
;	COMDAT ??_R1A@?0A@A@length_error@std@@8
rdata$r	SEGMENT DWORD USE32 PUBLIC 'CONST'
rdata$r	ENDS
;	COMDAT ??_R1A@?0A@A@logic_error@std@@8
rdata$r	SEGMENT DWORD USE32 PUBLIC 'CONST'
rdata$r	ENDS
;	COMDAT ??_R0?AVlogic_error@std@@@8
_DATA	SEGMENT DWORD USE32 PUBLIC 'DATA'
_DATA	ENDS
;	COMDAT ??_R1A@?0A@A@exception@@8
rdata$r	SEGMENT DWORD USE32 PUBLIC 'CONST'
rdata$r	ENDS
;	COMDAT ??_R0?AVexception@@@8
_DATA	SEGMENT DWORD USE32 PUBLIC 'DATA'
_DATA	ENDS
;	COMDAT ??_Glength_error@std@@UAEPAXI@Z
_TEXT	SEGMENT PARA USE32 PUBLIC 'CODE'
_TEXT	ENDS
;	COMDAT ?what@logic_error@std@@UBEPBDXZ
_TEXT	SEGMENT PARA USE32 PUBLIC 'CODE'
_TEXT	ENDS
;	COMDAT ??1logic_error@std@@UAE@XZ
_TEXT	SEGMENT PARA USE32 PUBLIC 'CODE'
_TEXT	ENDS
;	COMDAT ??_7logic_error@std@@6B@
CONST	SEGMENT DWORD USE32 PUBLIC 'CONST'
CONST	ENDS
;	COMDAT ??_R4logic_error@std@@6B@
rdata$r	SEGMENT DWORD USE32 PUBLIC 'CONST'
rdata$r	ENDS
;	COMDAT ??_R3logic_error@std@@8
rdata$r	SEGMENT DWORD USE32 PUBLIC 'CONST'
rdata$r	ENDS
;	COMDAT ??_R2logic_error@std@@8
rdata$r	SEGMENT DWORD USE32 PUBLIC 'CONST'
rdata$r	ENDS
;	COMDAT ??_Glogic_error@std@@UAEPAXI@Z
_TEXT	SEGMENT PARA USE32 PUBLIC 'CODE'
_TEXT	ENDS
;	COMDAT ??0logic_error@std@@QAE@ABV01@@Z
_TEXT	SEGMENT PARA USE32 PUBLIC 'CODE'
_TEXT	ENDS
;	COMDAT ??0?$allocator@D@std@@QAE@ABV01@@Z
_TEXT	SEGMENT PARA USE32 PUBLIC 'CODE'
_TEXT	ENDS
;	COMDAT ?deallocate@?$allocator@D@std@@QAEXPADI@Z
_TEXT	SEGMENT PARA USE32 PUBLIC 'CODE'
_TEXT	ENDS
;	COMDAT ?max_size@?$allocator@D@std@@QBEIXZ
_TEXT	SEGMENT PARA USE32 PUBLIC 'CODE'
_TEXT	ENDS
;	COMDAT ?allocate@?$allocator@D@std@@QAEPADI@Z
_TEXT	SEGMENT PARA USE32 PUBLIC 'CODE'
_TEXT	ENDS
;	COMDAT ??$_Allocate@D@std@@YAPADIPAD@Z
_TEXT	SEGMENT PARA USE32 PUBLIC 'CODE'
_TEXT	ENDS
;	COMDAT __CTA3?AVlength_error@std@@
xdata$x	SEGMENT DWORD USE32 PUBLIC 'CONST'
xdata$x	ENDS
;	COMDAT ??1length_error@std@@UAE@XZ
_TEXT	SEGMENT PARA USE32 PUBLIC 'CODE'
_TEXT	ENDS
;	COMDAT __CT??_R0?AVexception@@@8??0exception@@QAE@ABV0@@Z12
xdata$x	SEGMENT DWORD USE32 PUBLIC 'CONST'
xdata$x	ENDS
;	COMDAT __CT??_R0?AVlogic_error@std@@@8??0logic_error@std@@QAE@ABV01@@Z40
xdata$x	SEGMENT DWORD USE32 PUBLIC 'CONST'
xdata$x	ENDS
;	COMDAT __CT??_R0?AVlength_error@std@@@8??0length_error@std@@QAE@ABV01@@Z40
xdata$x	SEGMENT DWORD USE32 PUBLIC 'CONST'
xdata$x	ENDS
;	COMDAT ??_R0?AVlength_error@std@@@8
_DATA	SEGMENT DWORD USE32 PUBLIC 'DATA'
_DATA	ENDS
;	COMDAT __TI3?AVlength_error@std@@
xdata$x	SEGMENT DWORD USE32 PUBLIC 'CONST'
xdata$x	ENDS
;	COMDAT ??0length_error@std@@QAE@ABV?$basic_string@DU?$char_traits@D@std@@V?$allocator@D@2@@1@@Z
_TEXT	SEGMENT PARA USE32 PUBLIC 'CODE'
_TEXT	ENDS
;	COMDAT ??0logic_error@std@@QAE@ABV?$basic_string@DU?$char_traits@D@std@@V?$allocator@D@2@@1@@Z
_TEXT	SEGMENT PARA USE32 PUBLIC 'CODE'
_TEXT	ENDS
;	COMDAT ??$_Maklocchr@_W@std@@YA_WDPA_WABU_Cvtvec@@@Z
_TEXT	SEGMENT PARA USE32 PUBLIC 'CODE'
_TEXT	ENDS
;	COMDAT ??$_DebugHeapDelete@X@std@@YAXPAX@Z
_TEXT	SEGMENT PARA USE32 PUBLIC 'CODE'
_TEXT	ENDS
;	COMDAT ??$_Maklocstr@_W@std@@YAPA_WPBDPA_WABU_Cvtvec@@@Z
_TEXT	SEGMENT PARA USE32 PUBLIC 'CODE'
_TEXT	ENDS
;	COMDAT ??$_Maklocchr@D@std@@YADDPADABU_Cvtvec@@@Z
_TEXT	SEGMENT PARA USE32 PUBLIC 'CODE'
_TEXT	ENDS
;	COMDAT ??_C@_04LOAJBDKD@true?$AA@
CONST	SEGMENT DWORD USE32 PUBLIC 'CONST'
CONST	ENDS
;	COMDAT ??_C@_05LAPONLG@false?$AA@
CONST	SEGMENT DWORD USE32 PUBLIC 'CONST'
CONST	ENDS
;	COMDAT _wmemcpy
_TEXT	SEGMENT PARA USE32 PUBLIC 'CODE'
_TEXT	ENDS
;	COMDAT ?max_size@?$allocator@_W@std@@QBEIXZ
_TEXT	SEGMENT PARA USE32 PUBLIC 'CODE'
_TEXT	ENDS
;	COMDAT ?allocate@?$allocator@_W@std@@QAEPA_WI@Z
_TEXT	SEGMENT PARA USE32 PUBLIC 'CODE'
_TEXT	ENDS
;	COMDAT ??$_Allocate@_W@std@@YAPA_WIPA_W@Z
_TEXT	SEGMENT PARA USE32 PUBLIC 'CODE'
_TEXT	ENDS
;	COMDAT ??_C@_01GFHCPBMG@C?$AA@
CONST	SEGMENT DWORD USE32 PUBLIC 'CONST'
CONST	ENDS
;	COMDAT ?_Peek@?$istreambuf_iterator@_WU?$char_traits@_W@std@@@std@@AAE_WXZ
_TEXT	SEGMENT PARA USE32 PUBLIC 'CODE'
_TEXT	ENDS
;	COMDAT ?_Peek@?$istreambuf_iterator@DU?$char_traits@D@std@@@std@@AAEDXZ
_TEXT	SEGMENT PARA USE32 PUBLIC 'CODE'
_TEXT	ENDS
;	COMDAT ??$use_facet@V?$ctype@_W@std@@@std@@YAABV?$ctype@_W@0@ABVlocale@0@@Z
_TEXT	SEGMENT PARA USE32 PUBLIC 'CODE'
_TEXT	ENDS
;	COMDAT ??_S?$ctype@_W@std@@6B@
CONST	SEGMENT DWORD USE32 PUBLIC 'CONST'
CONST	ENDS
;	COMDAT ??_R4?$ctype@_W@std@@6B@
rdata$r	SEGMENT DWORD USE32 PUBLIC 'CONST'
rdata$r	ENDS
;	COMDAT ??_R0?AV?$ctype@_W@std@@@8
_DATA	SEGMENT DWORD USE32 PUBLIC 'DATA'
_DATA	ENDS
;	COMDAT ??_R3?$ctype@_W@std@@8
rdata$r	SEGMENT DWORD USE32 PUBLIC 'CONST'
rdata$r	ENDS
;	COMDAT ??_R2?$ctype@_W@std@@8
rdata$r	SEGMENT DWORD USE32 PUBLIC 'CONST'
rdata$r	ENDS
;	COMDAT ??_R1A@?0A@A@?$ctype@_W@std@@8
rdata$r	SEGMENT DWORD USE32 PUBLIC 'CONST'
rdata$r	ENDS
;	COMDAT ??_R1A@?0A@A@ctype_base@std@@8
rdata$r	SEGMENT DWORD USE32 PUBLIC 'CONST'
rdata$r	ENDS
;	COMDAT ??_R0?AUctype_base@std@@@8
_DATA	SEGMENT DWORD USE32 PUBLIC 'DATA'
_DATA	ENDS
;	COMDAT ??_G?$ctype@_W@std@@MAEPAXI@Z
_TEXT	SEGMENT PARA USE32 PUBLIC 'CODE'
_TEXT	ENDS
;	COMDAT ??_C@_08EPJLHIJG@bad?5cast?$AA@
CONST	SEGMENT DWORD USE32 PUBLIC 'CONST'
CONST	ENDS
;	COMDAT __TI2?AVbad_cast@@
xdata$x	SEGMENT DWORD USE32 PUBLIC 'CONST'
xdata$x	ENDS
;	COMDAT __CTA2?AVbad_cast@@
xdata$x	SEGMENT DWORD USE32 PUBLIC 'CONST'
xdata$x	ENDS
;	COMDAT __CT??_R0?AVbad_cast@@@8??0bad_cast@@QAE@ABV0@@Z12
xdata$x	SEGMENT DWORD USE32 PUBLIC 'CONST'
xdata$x	ENDS
;	COMDAT ??_R0?AVbad_cast@@@8
_DATA	SEGMENT DWORD USE32 PUBLIC 'DATA'
_DATA	ENDS
;	COMDAT ??$_DebugHeapDelete@Vfacet@locale@std@@@std@@YAXPAVfacet@locale@0@@Z
_TEXT	SEGMENT PARA USE32 PUBLIC 'CODE'
_TEXT	ENDS
;	COMDAT ??$use_facet@V?$ctype@D@std@@@std@@YAABV?$ctype@D@0@ABVlocale@0@@Z
_TEXT	SEGMENT PARA USE32 PUBLIC 'CODE'
_TEXT	ENDS
;	COMDAT ??_S?$ctype@D@std@@6B@
CONST	SEGMENT DWORD USE32 PUBLIC 'CONST'
CONST	ENDS
;	COMDAT ??_R4?$ctype@D@std@@6B@
rdata$r	SEGMENT DWORD USE32 PUBLIC 'CONST'
rdata$r	ENDS
;	COMDAT ??_R0?AV?$ctype@D@std@@@8
_DATA	SEGMENT DWORD USE32 PUBLIC 'DATA'
_DATA	ENDS
;	COMDAT ??_R3?$ctype@D@std@@8
rdata$r	SEGMENT DWORD USE32 PUBLIC 'CONST'
rdata$r	ENDS
;	COMDAT ??_R2?$ctype@D@std@@8
rdata$r	SEGMENT DWORD USE32 PUBLIC 'CONST'
rdata$r	ENDS
;	COMDAT ??_R1A@?0A@A@?$ctype@D@std@@8
rdata$r	SEGMENT DWORD USE32 PUBLIC 'CONST'
rdata$r	ENDS
;	COMDAT ??_G?$ctype@D@std@@MAEPAXI@Z
_TEXT	SEGMENT PARA USE32 PUBLIC 'CODE'
_TEXT	ENDS
;	COMDAT ??_S?$numpunct@_W@std@@6B@
CONST	SEGMENT DWORD USE32 PUBLIC 'CONST'
CONST	ENDS
;	COMDAT ??_S?$numpunct@D@std@@6B@
CONST	SEGMENT DWORD USE32 PUBLIC 'CONST'
CONST	ENDS
;	COMDAT _wmemmove
_TEXT	SEGMENT PARA USE32 PUBLIC 'CODE'
_TEXT	ENDS
;	COMDAT ?deallocate@?$allocator@_W@std@@QAEXPA_WI@Z
_TEXT	SEGMENT PARA USE32 PUBLIC 'CODE'
_TEXT	ENDS
;	COMDAT ??0?$allocator@_W@std@@QAE@ABV01@@Z
_TEXT	SEGMENT PARA USE32 PUBLIC 'CODE'
_TEXT	ENDS
;	COMDAT ??0?$allocator@D@std@@QAE@XZ
_TEXT	SEGMENT PARA USE32 PUBLIC 'CODE'
_TEXT	ENDS
;	COMDAT ??$?HDU?$char_traits@D@std@@V?$allocator@D@1@@std@@YA?AV?$basic_string@DU?$char_traits@D@std@@V?$allocator@D@2@@0@ABV10@PBD@Z
_TEXT	SEGMENT PARA USE32 PUBLIC 'CODE'
_TEXT	ENDS
;	COMDAT ?s_iFileNum@?1??GetTempFilePath@GlobalFunc@@SA_NABV?$basic_string@DU?$char_traits@D@std@@V?$allocator@D@2@@std@@AAV34@@Z@4JA
_DATA	SEGMENT DWORD USE32 PUBLIC 'DATA'
_DATA	ENDS
sxdata	SEGMENT DWORD USE32 'SXDATA'
sxdata	ENDS
FLAT	GROUP _DATA, CONST, _BSS
	ASSUME	CS: FLAT, DS: FLAT, SS: FLAT
endif

INCLUDELIB MSVCRTD
INCLUDELIB OLDNAMES

CONST	SEGMENT
$SG187230 DB	'\', 00H
	ORG $+2
$SG187231 DB	'PlayBox', 00H
$SG187238 DB	'%s\%d.%s', 00H
	ORG $+3
$SG187244 DB	0d0H, 0a1H, 0b1H, 0a6H, 0b1H, 0b4H, 0d3H, 0ceH, 0cfH, 0b7H
	DB	0baH, 0d0H, '.exe', 00H
	ORG $+3
$SG187245 DB	'%s\%s', 00H
	ORG $+2
$SG187248 DB	'\run.exe', 00H
	ORG $+3
$SG187253 DB	'\', 00H
	ORG $+2
$SG187254 DB	0d0H, 0a1H, 0b1H, 0a6H, 0b1H, 0b4H, 0d3H, 0ceH, 0cfH, 0b7H
	DB	0baH, 0d0H, '.exe', 00H
	ORG $+3
$SG187261 DB	'\Resources\skin\', 00H
	ORG $+3
$SG187267 DB	'\PP\', 00H
	ORG $+3
$SG187271 DB	'\Resources\skin\MainSkin.dat', 00H
	ORG $+3
$SG187275 DB	'MainSkin.xml', 00H
	ORG $+3
$SG187474 DB	'!@#$%^&*()', 00H
	ORG $+1
$SG187482 DB	'\PP\MainSkin.xml', 00H
	ORG $+3
$SG187486 DB	'\PP\MainSkin.xml.temp', 00H
CONST	ENDS
PUBLIC	?GetTempFilePath@GlobalFunc@@SA_NABV?$basic_string@DU?$char_traits@D@std@@V?$allocator@D@2@@std@@AAV23@@Z ; GlobalFunc::GetTempFilePath
EXTRN	__imp__InterlockedIncrement@4:NEAR
EXTRN	__imp__lstrcatA@8:NEAR
EXTRN	__imp_??0?$basic_string@DU?$char_traits@D@std@@V?$allocator@D@2@@std@@QAE@XZ:NEAR
EXTRN	__imp_??1?$basic_string@DU?$char_traits@D@std@@V?$allocator@D@2@@std@@QAE@XZ:NEAR
EXTRN	__imp__sprintf:NEAR
EXTRN	__imp_??4?$basic_string@DU?$char_traits@D@std@@V?$allocator@D@2@@std@@QAEAAV01@PBD@Z:NEAR
EXTRN	__RTC_InitBase:NEAR
EXTRN	__RTC_Shutdown:NEAR
EXTRN	__RTC_CheckEsp:NEAR
EXTRN	__except_list:DWORD
EXTRN	___security_cookie:DWORD
EXTRN	@_RTC_CheckStackVars@8:NEAR
EXTRN	@__security_check_cookie@4:NEAR
EXTRN	___CxxFrameHandler:NEAR
EXTRN	?GetFileNameSuffix@YL_FileInfo@@SA_NABV?$basic_string@DU?$char_traits@D@std@@V?$allocator@D@2@@std@@AAV23@@Z:NEAR ; YL_FileInfo::GetFileNameSuffix
EXTRN	?GetTempDir@YL_DirInfo@@SA_NQADI@Z:NEAR		; YL_DirInfo::GetTempDir
EXTRN	?MakeDir@YL_DirInfo@@SA_NPBD@Z:NEAR		; YL_DirInfo::MakeDir
EXTRN	_strcpy:NEAR
EXTRN	_strcat:NEAR
EXTRN	__imp_?c_str@?$basic_string@DU?$char_traits@D@std@@V?$allocator@D@2@@std@@QBEPBDXZ:NEAR
EXTRN	__imp__PathFileExistsA@4:NEAR
;	COMDAT ?s_iFileNum@?1??GetTempFilePath@GlobalFunc@@SA_NABV?$basic_string@DU?$char_traits@D@std@@V?$allocator@D@2@@std@@AAV34@@Z@4JA
; File d:\boxgit\playbox\playbox\dev\prj\playbox\src\global\globalfunction.cpp
_BSS	SEGMENT
?s_iFileNum@?1??GetTempFilePath@GlobalFunc@@SA_NABV?$basic_string@DU?$char_traits@D@std@@V?$allocator@D@2@@std@@AAV34@@Z@4JA DD 01H DUP (?) ; `GlobalFunc::GetTempFilePath'::`2'::s_iFileNum
_BSS	ENDS
;	COMDAT rtc$IMZ
rtc$IMZ	SEGMENT
__RTC_InitBase.rtc$IMZ DD FLAT:__RTC_InitBase
rtc$IMZ	ENDS
;	COMDAT rtc$TMZ
rtc$TMZ	SEGMENT
__RTC_Shutdown.rtc$TMZ DD FLAT:__RTC_Shutdown
rtc$TMZ	ENDS
xdata$x	SEGMENT
$T188088 DD	0ffffffffH
	DD	FLAT:$L188071
$T188075 DD	019930520H
	DD	01H
	DD	FLAT:$T188088
	DD	2 DUP(00H)
	DD	2 DUP(00H)
; Function compile flags: /Odt /RTCsu
xdata$x	ENDS
_TEXT	SEGMENT
_strSuffix$187237 = -1088				; size = 28
_szDir$ = -1052						; size = 512
_szDesFilePath$ = -532					; size = 512
__$ArrayPad$ = -16					; size = 4
__$EHRec$ = -12						; size = 12
__$ReturnAddr$ = 4					; size = 4
_strSrcFile$ = 8					; size = 4
_strDesFile$ = 12					; size = 4
?GetTempFilePath@GlobalFunc@@SA_NABV?$basic_string@DU?$char_traits@D@std@@V?$allocator@D@2@@std@@AAV23@@Z PROC NEAR ; GlobalFunc::GetTempFilePath

; 12   : {

  00000	55		 push	 ebp
  00001	8b ec		 mov	 ebp, esp
  00003	6a ff		 push	 -1
  00005	68 00 00 00 00	 push	 __ehhandler$?GetTempFilePath@GlobalFunc@@SA_NABV?$basic_string@DU?$char_traits@D@std@@V?$allocator@D@2@@std@@AAV23@@Z
  0000a	64 a1 00 00 00
	00		 mov	 eax, DWORD PTR fs:__except_list
  00010	50		 push	 eax
  00011	64 89 25 00 00
	00 00		 mov	 DWORD PTR fs:__except_list, esp
  00018	81 ec 38 04 00
	00		 sub	 esp, 1080		; 00000438H
  0001e	56		 push	 esi
  0001f	57		 push	 edi
  00020	8d bd bc fb ff
	ff		 lea	 edi, DWORD PTR [ebp-1092]
  00026	b9 0e 01 00 00	 mov	 ecx, 270		; 0000010eH
  0002b	b8 cc cc cc cc	 mov	 eax, -858993460		; ccccccccH
  00030	f3 ab		 rep stosd
  00032	a1 00 00 00 00	 mov	 eax, DWORD PTR ___security_cookie
  00037	89 45 f0	 mov	 DWORD PTR __$ArrayPad$[ebp], eax

; 13   : 	static LONG s_iFileNum = 0;
; 14   : 
; 15   : 	char szDesFilePath[512];
; 16   : 	if( YL_DirInfo::GetTempDir(szDesFilePath,512 ) == 0 )

  0003a	68 00 02 00 00	 push	 512			; 00000200H
  0003f	8d 85 ec fd ff
	ff		 lea	 eax, DWORD PTR _szDesFilePath$[ebp]
  00045	50		 push	 eax
  00046	e8 00 00 00 00	 call	 ?GetTempDir@YL_DirInfo@@SA_NQADI@Z ; YL_DirInfo::GetTempDir
  0004b	83 c4 08	 add	 esp, 8
  0004e	0f b6 c8	 movzx	 ecx, al
  00051	85 c9		 test	 ecx, ecx
  00053	75 07		 jne	 SHORT $L187229

; 17   : 	{		
; 18   : 		return false;

  00055	32 c0		 xor	 al, al
  00057	e9 3c 01 00 00	 jmp	 $L187225
$L187229:

; 19   : 	}
; 20   : 	strcat( szDesFilePath,"\\" );

  0005c	68 00 00 00 00	 push	 OFFSET FLAT:$SG187230
  00061	8d 95 ec fd ff
	ff		 lea	 edx, DWORD PTR _szDesFilePath$[ebp]
  00067	52		 push	 edx
  00068	e8 00 00 00 00	 call	 _strcat
  0006d	83 c4 08	 add	 esp, 8

; 21   : 
; 22   : 	lstrcat(szDesFilePath,TEXT(STR_TEMP_MEDIA_FOLDER));

  00070	8b f4		 mov	 esi, esp
  00072	68 00 00 00 00	 push	 OFFSET FLAT:$SG187231
  00077	8d 85 ec fd ff
	ff		 lea	 eax, DWORD PTR _szDesFilePath$[ebp]
  0007d	50		 push	 eax
  0007e	ff 15 00 00 00
	00		 call	 DWORD PTR __imp__lstrcatA@8
  00084	3b f4		 cmp	 esi, esp
  00086	e8 00 00 00 00	 call	 __RTC_CheckEsp

; 23   : 
; 24   : 	if( !YL_DirInfo::MakeDir( szDesFilePath ) )

  0008b	8d 8d ec fd ff
	ff		 lea	 ecx, DWORD PTR _szDesFilePath$[ebp]
  00091	51		 push	 ecx
  00092	e8 00 00 00 00	 call	 ?MakeDir@YL_DirInfo@@SA_NPBD@Z ; YL_DirInfo::MakeDir
  00097	83 c4 04	 add	 esp, 4
  0009a	0f b6 d0	 movzx	 edx, al
  0009d	85 d2		 test	 edx, edx
  0009f	75 07		 jne	 SHORT $L187232

; 25   : 	{		
; 26   : 		return false;

  000a1	32 c0		 xor	 al, al
  000a3	e9 f0 00 00 00	 jmp	 $L187225
$L187232:

; 27   : 	}
; 28   : 
; 29   : 	char szDir[512];
; 30   : 	strcpy( szDir,szDesFilePath );

  000a8	8d 85 ec fd ff
	ff		 lea	 eax, DWORD PTR _szDesFilePath$[ebp]
  000ae	50		 push	 eax
  000af	8d 8d e4 fb ff
	ff		 lea	 ecx, DWORD PTR _szDir$[ebp]
  000b5	51		 push	 ecx
  000b6	e8 00 00 00 00	 call	 _strcpy
  000bb	83 c4 08	 add	 esp, 8
$L187234:

; 31   : 
; 32   : 	do
; 33   : 	{
; 34   : 		InterlockedIncrement( &s_iFileNum );

  000be	8b f4		 mov	 esi, esp
  000c0	68 00 00 00 00	 push	 OFFSET FLAT:?s_iFileNum@?1??GetTempFilePath@GlobalFunc@@SA_NABV?$basic_string@DU?$char_traits@D@std@@V?$allocator@D@2@@std@@AAV34@@Z@4JA
  000c5	ff 15 00 00 00
	00		 call	 DWORD PTR __imp__InterlockedIncrement@4
  000cb	3b f4		 cmp	 esi, esp
  000cd	e8 00 00 00 00	 call	 __RTC_CheckEsp

; 35   : 		string strSuffix;

  000d2	8b f4		 mov	 esi, esp
  000d4	8d 8d c0 fb ff
	ff		 lea	 ecx, DWORD PTR _strSuffix$187237[ebp]
  000da	ff 15 00 00 00
	00		 call	 DWORD PTR __imp_??0?$basic_string@DU?$char_traits@D@std@@V?$allocator@D@2@@std@@QAE@XZ
  000e0	3b f4		 cmp	 esi, esp
  000e2	e8 00 00 00 00	 call	 __RTC_CheckEsp
  000e7	c7 45 fc 00 00
	00 00		 mov	 DWORD PTR __$EHRec$[ebp+8], 0

; 36   : 		YL_FileInfo::GetFileNameSuffix( strSrcFile,strSuffix);

  000ee	8d 95 c0 fb ff
	ff		 lea	 edx, DWORD PTR _strSuffix$187237[ebp]
  000f4	52		 push	 edx
  000f5	8b 45 08	 mov	 eax, DWORD PTR _strSrcFile$[ebp]
  000f8	50		 push	 eax
  000f9	e8 00 00 00 00	 call	 ?GetFileNameSuffix@YL_FileInfo@@SA_NABV?$basic_string@DU?$char_traits@D@std@@V?$allocator@D@2@@std@@AAV23@@Z ; YL_FileInfo::GetFileNameSuffix
  000fe	83 c4 08	 add	 esp, 8

; 37   : 		sprintf(szDesFilePath,"%s\\%d.%s",szDir,s_iFileNum,strSuffix.c_str());

  00101	8b f4		 mov	 esi, esp
  00103	8d 8d c0 fb ff
	ff		 lea	 ecx, DWORD PTR _strSuffix$187237[ebp]
  00109	ff 15 00 00 00
	00		 call	 DWORD PTR __imp_?c_str@?$basic_string@DU?$char_traits@D@std@@V?$allocator@D@2@@std@@QBEPBDXZ
  0010f	3b f4		 cmp	 esi, esp
  00111	e8 00 00 00 00	 call	 __RTC_CheckEsp
  00116	8b f4		 mov	 esi, esp
  00118	50		 push	 eax
  00119	8b 0d 00 00 00
	00		 mov	 ecx, DWORD PTR ?s_iFileNum@?1??GetTempFilePath@GlobalFunc@@SA_NABV?$basic_string@DU?$char_traits@D@std@@V?$allocator@D@2@@std@@AAV34@@Z@4JA
  0011f	51		 push	 ecx
  00120	8d 95 e4 fb ff
	ff		 lea	 edx, DWORD PTR _szDir$[ebp]
  00126	52		 push	 edx
  00127	68 00 00 00 00	 push	 OFFSET FLAT:$SG187238
  0012c	8d 85 ec fd ff
	ff		 lea	 eax, DWORD PTR _szDesFilePath$[ebp]
  00132	50		 push	 eax
  00133	ff 15 00 00 00
	00		 call	 DWORD PTR __imp__sprintf
  00139	83 c4 14	 add	 esp, 20			; 00000014H
  0013c	3b f4		 cmp	 esi, esp
  0013e	e8 00 00 00 00	 call	 __RTC_CheckEsp

; 38   : 
; 39   : 	}while( PathFileExists( szDesFilePath) );

  00143	c7 45 fc ff ff
	ff ff		 mov	 DWORD PTR __$EHRec$[ebp+8], -1
  0014a	8b f4		 mov	 esi, esp
  0014c	8d 8d c0 fb ff
	ff		 lea	 ecx, DWORD PTR _strSuffix$187237[ebp]
  00152	ff 15 00 00 00
	00		 call	 DWORD PTR __imp_??1?$basic_string@DU?$char_traits@D@std@@V?$allocator@D@2@@std@@QAE@XZ
  00158	3b f4		 cmp	 esi, esp
  0015a	e8 00 00 00 00	 call	 __RTC_CheckEsp
  0015f	8b f4		 mov	 esi, esp
  00161	8d 8d ec fd ff
	ff		 lea	 ecx, DWORD PTR _szDesFilePath$[ebp]
  00167	51		 push	 ecx
  00168	ff 15 00 00 00
	00		 call	 DWORD PTR __imp__PathFileExistsA@4
  0016e	3b f4		 cmp	 esi, esp
  00170	e8 00 00 00 00	 call	 __RTC_CheckEsp
  00175	85 c0		 test	 eax, eax
  00177	0f 85 41 ff ff
	ff		 jne	 $L187234

; 40   : 	
; 41   : 	strDesFile = szDesFilePath;

  0017d	8b f4		 mov	 esi, esp
  0017f	8d 95 ec fd ff
	ff		 lea	 edx, DWORD PTR _szDesFilePath$[ebp]
  00185	52		 push	 edx
  00186	8b 4d 0c	 mov	 ecx, DWORD PTR _strDesFile$[ebp]
  00189	ff 15 00 00 00
	00		 call	 DWORD PTR __imp_??4?$basic_string@DU?$char_traits@D@std@@V?$allocator@D@2@@std@@QAEAAV01@PBD@Z
  0018f	3b f4		 cmp	 esi, esp
  00191	e8 00 00 00 00	 call	 __RTC_CheckEsp

; 42   : 
; 43   : 	return true;

  00196	b0 01		 mov	 al, 1
$L187225:

; 44   : }

  00198	52		 push	 edx
  00199	8b cd		 mov	 ecx, ebp
  0019b	50		 push	 eax
  0019c	8d 15 00 00 00
	00		 lea	 edx, DWORD PTR $L188085
  001a2	e8 00 00 00 00	 call	 @_RTC_CheckStackVars@8
  001a7	58		 pop	 eax
  001a8	5a		 pop	 edx
  001a9	8b 4d f4	 mov	 ecx, DWORD PTR __$EHRec$[ebp]
  001ac	64 89 0d 00 00
	00 00		 mov	 DWORD PTR fs:__except_list, ecx
  001b3	8b 4d f0	 mov	 ecx, DWORD PTR __$ArrayPad$[ebp]
  001b6	e8 00 00 00 00	 call	 @__security_check_cookie@4
  001bb	5f		 pop	 edi
  001bc	5e		 pop	 esi
  001bd	81 c4 44 04 00
	00		 add	 esp, 1092		; 00000444H
  001c3	3b ec		 cmp	 ebp, esp
  001c5	e8 00 00 00 00	 call	 __RTC_CheckEsp
  001ca	8b e5		 mov	 esp, ebp
  001cc	5d		 pop	 ebp
  001cd	c3		 ret	 0
$L188085:
  001ce	03 00 00 00	 DD	 3
  001d2	00 00 00 00	 DD	 $L188084
$L188084:
  001d6	ec fd ff ff	 DD	 -532			; fffffdecH
  001da	00 02 00 00	 DD	 512			; 00000200H
  001de	00 00 00 00	 DD	 $L188077
  001e2	e4 fb ff ff	 DD	 -1052			; fffffbe4H
  001e6	00 02 00 00	 DD	 512			; 00000200H
  001ea	00 00 00 00	 DD	 $L188078
  001ee	c0 fb ff ff	 DD	 -1088			; fffffbc0H
  001f2	1c 00 00 00	 DD	 28			; 0000001cH
  001f6	00 00 00 00	 DD	 $L188079
$L188079:
  001fa	73		 DB	 115			; 00000073H
  001fb	74		 DB	 116			; 00000074H
  001fc	72		 DB	 114			; 00000072H
  001fd	53		 DB	 83			; 00000053H
  001fe	75		 DB	 117			; 00000075H
  001ff	66		 DB	 102			; 00000066H
  00200	66		 DB	 102			; 00000066H
  00201	69		 DB	 105			; 00000069H
  00202	78		 DB	 120			; 00000078H
  00203	00		 DB	 0
$L188078:
  00204	73		 DB	 115			; 00000073H
  00205	7a		 DB	 122			; 0000007aH
  00206	44		 DB	 68			; 00000044H
  00207	69		 DB	 105			; 00000069H
  00208	72		 DB	 114			; 00000072H
  00209	00		 DB	 0
$L188077:
  0020a	73		 DB	 115			; 00000073H
  0020b	7a		 DB	 122			; 0000007aH
  0020c	44		 DB	 68			; 00000044H
  0020d	65		 DB	 101			; 00000065H
  0020e	73		 DB	 115			; 00000073H
  0020f	46		 DB	 70			; 00000046H
  00210	69		 DB	 105			; 00000069H
  00211	6c		 DB	 108			; 0000006cH
  00212	65		 DB	 101			; 00000065H
  00213	50		 DB	 80			; 00000050H
  00214	61		 DB	 97			; 00000061H
  00215	74		 DB	 116			; 00000074H
  00216	68		 DB	 104			; 00000068H
  00217	00		 DB	 0
_TEXT	ENDS
text$x	SEGMENT
$L188071:
  00000	8b f4		 mov	 esi, esp
  00002	8d 8d c0 fb ff
	ff		 lea	 ecx, DWORD PTR _strSuffix$187237[ebp]
  00008	ff 15 00 00 00
	00		 call	 DWORD PTR __imp_??1?$basic_string@DU?$char_traits@D@std@@V?$allocator@D@2@@std@@QAE@XZ
  0000e	3b f4		 cmp	 esi, esp
  00010	e9 00 00 00 00	 jmp	 __RTC_CheckEsp
__ehhandler$?GetTempFilePath@GlobalFunc@@SA_NABV?$basic_string@DU?$char_traits@D@std@@V?$allocator@D@2@@std@@AAV23@@Z:
  00015	b8 00 00 00 00	 mov	 eax, OFFSET FLAT:$T188075
  0001a	e9 00 00 00 00	 jmp	 ___CxxFrameHandler
text$x	ENDS
?GetTempFilePath@GlobalFunc@@SA_NABV?$basic_string@DU?$char_traits@D@std@@V?$allocator@D@2@@std@@AAV23@@Z ENDP ; GlobalFunc::GetTempFilePath
PUBLIC	?CreateGBoxRunInStartUp@GlobalFunc@@SAX_N@Z	; GlobalFunc::CreateGBoxRunInStartUp
EXTRN	__imp__DeleteFileA@4:NEAR
EXTRN	__imp__SHGetSpecialFolderPathA@16:NEAR
EXTRN	__imp__CopyFileA@12:NEAR
EXTRN	?GetHomePath@CLhcImg@@SA_NQADH@Z:NEAR		; CLhcImg::GetHomePath
EXTRN	_memset:NEAR
EXTRN	?Format@YL_StringUtil@@SA_NAAV?$basic_string@DU?$char_traits@D@std@@V?$allocator@D@2@@std@@PBDZZ:NEAR ; YL_StringUtil::Format
xdata$x	SEGMENT
$T188103 DD	0ffffffffH
	DD	FLAT:$L188093
$T188095 DD	019930520H
	DD	01H
	DD	FLAT:$T188103
	DD	2 DUP(00H)
	DD	2 DUP(00H)
; Function compile flags: /Odt /RTCsu
xdata$x	ENDS
_TEXT	SEGMENT
_szHome$187247 = -1088					; size = 512
_strRunPath$ = -568					; size = 28
_szPath$ = -532						; size = 512
__$ArrayPad$ = -16					; size = 4
__$EHRec$ = -12						; size = 12
__$ReturnAddr$ = 4					; size = 4
_bAutoRun$ = 8						; size = 1
?CreateGBoxRunInStartUp@GlobalFunc@@SAX_N@Z PROC NEAR	; GlobalFunc::CreateGBoxRunInStartUp

; 47   : {

  00220	55		 push	 ebp
  00221	8b ec		 mov	 ebp, esp
  00223	6a ff		 push	 -1
  00225	68 00 00 00 00	 push	 __ehhandler$?CreateGBoxRunInStartUp@GlobalFunc@@SAX_N@Z
  0022a	64 a1 00 00 00
	00		 mov	 eax, DWORD PTR fs:__except_list
  00230	50		 push	 eax
  00231	64 89 25 00 00
	00 00		 mov	 DWORD PTR fs:__except_list, esp
  00238	81 ec 38 04 00
	00		 sub	 esp, 1080		; 00000438H
  0023e	56		 push	 esi
  0023f	57		 push	 edi
  00240	8d bd bc fb ff
	ff		 lea	 edi, DWORD PTR [ebp-1092]
  00246	b9 0e 01 00 00	 mov	 ecx, 270		; 0000010eH
  0024b	b8 cc cc cc cc	 mov	 eax, -858993460		; ccccccccH
  00250	f3 ab		 rep stosd
  00252	a1 00 00 00 00	 mov	 eax, DWORD PTR ___security_cookie
  00257	89 45 f0	 mov	 DWORD PTR __$ArrayPad$[ebp], eax

; 48   : 	char szPath[512];
; 49   : 	memset(szPath,0,512);

  0025a	68 00 02 00 00	 push	 512			; 00000200H
  0025f	6a 00		 push	 0
  00261	8d 85 ec fd ff
	ff		 lea	 eax, DWORD PTR _szPath$[ebp]
  00267	50		 push	 eax
  00268	e8 00 00 00 00	 call	 _memset
  0026d	83 c4 0c	 add	 esp, 12			; 0000000cH

; 50   : 	SHGetSpecialFolderPath(NULL,szPath,CSIDL_STARTUP,FALSE);

  00270	8b f4		 mov	 esi, esp
  00272	6a 00		 push	 0
  00274	6a 07		 push	 7
  00276	8d 8d ec fd ff
	ff		 lea	 ecx, DWORD PTR _szPath$[ebp]
  0027c	51		 push	 ecx
  0027d	6a 00		 push	 0
  0027f	ff 15 00 00 00
	00		 call	 DWORD PTR __imp__SHGetSpecialFolderPathA@16
  00285	3b f4		 cmp	 esi, esp
  00287	e8 00 00 00 00	 call	 __RTC_CheckEsp

; 51   : 
; 52   : 	string strRunPath;

  0028c	8b f4		 mov	 esi, esp
  0028e	8d 8d c8 fd ff
	ff		 lea	 ecx, DWORD PTR _strRunPath$[ebp]
  00294	ff 15 00 00 00
	00		 call	 DWORD PTR __imp_??0?$basic_string@DU?$char_traits@D@std@@V?$allocator@D@2@@std@@QAE@XZ
  0029a	3b f4		 cmp	 esi, esp
  0029c	e8 00 00 00 00	 call	 __RTC_CheckEsp
  002a1	c7 45 fc 00 00
	00 00		 mov	 DWORD PTR __$EHRec$[ebp+8], 0

; 53   : 	YL_StringUtil::Format( strRunPath, "%s\\%s", szPath, RUN_MAINEXE );

  002a8	68 00 00 00 00	 push	 OFFSET FLAT:$SG187244
  002ad	8d 95 ec fd ff
	ff		 lea	 edx, DWORD PTR _szPath$[ebp]
  002b3	52		 push	 edx
  002b4	68 00 00 00 00	 push	 OFFSET FLAT:$SG187245
  002b9	8d 85 c8 fd ff
	ff		 lea	 eax, DWORD PTR _strRunPath$[ebp]
  002bf	50		 push	 eax
  002c0	e8 00 00 00 00	 call	 ?Format@YL_StringUtil@@SA_NAAV?$basic_string@DU?$char_traits@D@std@@V?$allocator@D@2@@std@@PBDZZ ; YL_StringUtil::Format
  002c5	83 c4 10	 add	 esp, 16			; 00000010H

; 54   : 	
; 55   : 	if ( bAutoRun )

  002c8	0f b6 4d 08	 movzx	 ecx, BYTE PTR _bAutoRun$[ebp]
  002cc	85 c9		 test	 ecx, ecx
  002ce	74 58		 je	 SHORT $L187246

; 56   : 	{
; 57   : 		char szHome[512];
; 58   : 		CLhcImg::GetHomePath(szHome, 512);

  002d0	68 00 02 00 00	 push	 512			; 00000200H
  002d5	8d 95 c0 fb ff
	ff		 lea	 edx, DWORD PTR _szHome$187247[ebp]
  002db	52		 push	 edx
  002dc	e8 00 00 00 00	 call	 ?GetHomePath@CLhcImg@@SA_NQADH@Z ; CLhcImg::GetHomePath
  002e1	83 c4 08	 add	 esp, 8

; 59   : 		strcat(szHome,"\\run.exe");

  002e4	68 00 00 00 00	 push	 OFFSET FLAT:$SG187248
  002e9	8d 85 c0 fb ff
	ff		 lea	 eax, DWORD PTR _szHome$187247[ebp]
  002ef	50		 push	 eax
  002f0	e8 00 00 00 00	 call	 _strcat
  002f5	83 c4 08	 add	 esp, 8

; 60   : 		::CopyFile(szHome,strRunPath.c_str(),1);

  002f8	8b f4		 mov	 esi, esp
  002fa	6a 01		 push	 1
  002fc	8b fc		 mov	 edi, esp
  002fe	8d 8d c8 fd ff
	ff		 lea	 ecx, DWORD PTR _strRunPath$[ebp]
  00304	ff 15 00 00 00
	00		 call	 DWORD PTR __imp_?c_str@?$basic_string@DU?$char_traits@D@std@@V?$allocator@D@2@@std@@QBEPBDXZ
  0030a	3b fc		 cmp	 edi, esp
  0030c	e8 00 00 00 00	 call	 __RTC_CheckEsp
  00311	50		 push	 eax
  00312	8d 8d c0 fb ff
	ff		 lea	 ecx, DWORD PTR _szHome$187247[ebp]
  00318	51		 push	 ecx
  00319	ff 15 00 00 00
	00		 call	 DWORD PTR __imp__CopyFileA@12
  0031f	3b f4		 cmp	 esi, esp
  00321	e8 00 00 00 00	 call	 __RTC_CheckEsp

; 61   : 	}
; 62   : 	else

  00326	eb 25		 jmp	 SHORT $L187249
$L187246:

; 63   : 	{
; 64   : 		::DeleteFile(strRunPath.c_str());

  00328	8b f4		 mov	 esi, esp
  0032a	8d 8d c8 fd ff
	ff		 lea	 ecx, DWORD PTR _strRunPath$[ebp]
  00330	ff 15 00 00 00
	00		 call	 DWORD PTR __imp_?c_str@?$basic_string@DU?$char_traits@D@std@@V?$allocator@D@2@@std@@QBEPBDXZ
  00336	3b f4		 cmp	 esi, esp
  00338	e8 00 00 00 00	 call	 __RTC_CheckEsp
  0033d	8b f4		 mov	 esi, esp
  0033f	50		 push	 eax
  00340	ff 15 00 00 00
	00		 call	 DWORD PTR __imp__DeleteFileA@4
  00346	3b f4		 cmp	 esi, esp
  00348	e8 00 00 00 00	 call	 __RTC_CheckEsp
$L187249:

; 65   : 	}
; 66   : }

  0034d	c7 45 fc ff ff
	ff ff		 mov	 DWORD PTR __$EHRec$[ebp+8], -1
  00354	8b f4		 mov	 esi, esp
  00356	8d 8d c8 fd ff
	ff		 lea	 ecx, DWORD PTR _strRunPath$[ebp]
  0035c	ff 15 00 00 00
	00		 call	 DWORD PTR __imp_??1?$basic_string@DU?$char_traits@D@std@@V?$allocator@D@2@@std@@QAE@XZ
  00362	3b f4		 cmp	 esi, esp
  00364	e8 00 00 00 00	 call	 __RTC_CheckEsp
  00369	52		 push	 edx
  0036a	8b cd		 mov	 ecx, ebp
  0036c	50		 push	 eax
  0036d	8d 15 00 00 00
	00		 lea	 edx, DWORD PTR $L188102
  00373	e8 00 00 00 00	 call	 @_RTC_CheckStackVars@8
  00378	58		 pop	 eax
  00379	5a		 pop	 edx
  0037a	8b 4d f4	 mov	 ecx, DWORD PTR __$EHRec$[ebp]
  0037d	64 89 0d 00 00
	00 00		 mov	 DWORD PTR fs:__except_list, ecx
  00384	8b 4d f0	 mov	 ecx, DWORD PTR __$ArrayPad$[ebp]
  00387	e8 00 00 00 00	 call	 @__security_check_cookie@4
  0038c	5f		 pop	 edi
  0038d	5e		 pop	 esi
  0038e	81 c4 44 04 00
	00		 add	 esp, 1092		; 00000444H
  00394	3b ec		 cmp	 ebp, esp
  00396	e8 00 00 00 00	 call	 __RTC_CheckEsp
  0039b	8b e5		 mov	 esp, ebp
  0039d	5d		 pop	 ebp
  0039e	c3		 ret	 0
$L188102:
  0039f	03 00 00 00	 DD	 3
  003a3	00 00 00 00	 DD	 $L188101
$L188101:
  003a7	ec fd ff ff	 DD	 -532			; fffffdecH
  003ab	00 02 00 00	 DD	 512			; 00000200H
  003af	00 00 00 00	 DD	 $L188096
  003b3	c8 fd ff ff	 DD	 -568			; fffffdc8H
  003b7	1c 00 00 00	 DD	 28			; 0000001cH
  003bb	00 00 00 00	 DD	 $L188097
  003bf	c0 fb ff ff	 DD	 -1088			; fffffbc0H
  003c3	00 02 00 00	 DD	 512			; 00000200H
  003c7	00 00 00 00	 DD	 $L188098
$L188098:
  003cb	73		 DB	 115			; 00000073H
  003cc	7a		 DB	 122			; 0000007aH
  003cd	48		 DB	 72			; 00000048H
  003ce	6f		 DB	 111			; 0000006fH
  003cf	6d		 DB	 109			; 0000006dH
  003d0	65		 DB	 101			; 00000065H
  003d1	00		 DB	 0
$L188097:
  003d2	73		 DB	 115			; 00000073H
  003d3	74		 DB	 116			; 00000074H
  003d4	72		 DB	 114			; 00000072H
  003d5	52		 DB	 82			; 00000052H
  003d6	75		 DB	 117			; 00000075H
  003d7	6e		 DB	 110			; 0000006eH
  003d8	50		 DB	 80			; 00000050H
  003d9	61		 DB	 97			; 00000061H
  003da	74		 DB	 116			; 00000074H
  003db	68		 DB	 104			; 00000068H
  003dc	00		 DB	 0
$L188096:
  003dd	73		 DB	 115			; 00000073H
  003de	7a		 DB	 122			; 0000007aH
  003df	50		 DB	 80			; 00000050H
  003e0	61		 DB	 97			; 00000061H
  003e1	74		 DB	 116			; 00000074H
  003e2	68		 DB	 104			; 00000068H
  003e3	00		 DB	 0
_TEXT	ENDS
text$x	SEGMENT
$L188093:
  0001f	8b f4		 mov	 esi, esp
  00021	8d 8d c8 fd ff
	ff		 lea	 ecx, DWORD PTR _strRunPath$[ebp]
  00027	ff 15 00 00 00
	00		 call	 DWORD PTR __imp_??1?$basic_string@DU?$char_traits@D@std@@V?$allocator@D@2@@std@@QAE@XZ
  0002d	3b f4		 cmp	 esi, esp
  0002f	e9 00 00 00 00	 jmp	 __RTC_CheckEsp
__ehhandler$?CreateGBoxRunInStartUp@GlobalFunc@@SAX_N@Z:
  00034	b8 00 00 00 00	 mov	 eax, OFFSET FLAT:$T188095
  00039	e9 00 00 00 00	 jmp	 ___CxxFrameHandler
text$x	ENDS
?CreateGBoxRunInStartUp@GlobalFunc@@SAX_N@Z ENDP	; GlobalFunc::CreateGBoxRunInStartUp
PUBLIC	?IsAutoRun@GlobalFunc@@SA_NXZ			; GlobalFunc::IsAutoRun
EXTRN	?IsValid@YL_FileInfo@@SA_NPBD@Z:NEAR		; YL_FileInfo::IsValid
; Function compile flags: /Odt /RTCsu
_TEXT	SEGMENT
_szPath$ = -520						; size = 512
__$ArrayPad$ = -4					; size = 4
__$ReturnAddr$ = 4					; size = 4
?IsAutoRun@GlobalFunc@@SA_NXZ PROC NEAR			; GlobalFunc::IsAutoRun

; 69   : {

  003f0	55		 push	 ebp
  003f1	8b ec		 mov	 ebp, esp
  003f3	81 ec 0c 02 00
	00		 sub	 esp, 524		; 0000020cH
  003f9	56		 push	 esi
  003fa	57		 push	 edi
  003fb	8d bd f4 fd ff
	ff		 lea	 edi, DWORD PTR [ebp-524]
  00401	b9 83 00 00 00	 mov	 ecx, 131		; 00000083H
  00406	b8 cc cc cc cc	 mov	 eax, -858993460		; ccccccccH
  0040b	f3 ab		 rep stosd
  0040d	a1 00 00 00 00	 mov	 eax, DWORD PTR ___security_cookie
  00412	89 45 fc	 mov	 DWORD PTR __$ArrayPad$[ebp], eax

; 70   : 	char szPath[512];
; 71   : 	memset(szPath,0,512);

  00415	68 00 02 00 00	 push	 512			; 00000200H
  0041a	6a 00		 push	 0
  0041c	8d 85 f8 fd ff
	ff		 lea	 eax, DWORD PTR _szPath$[ebp]
  00422	50		 push	 eax
  00423	e8 00 00 00 00	 call	 _memset
  00428	83 c4 0c	 add	 esp, 12			; 0000000cH

; 72   : 	SHGetSpecialFolderPath(NULL,szPath,CSIDL_STARTUP,FALSE);

  0042b	8b f4		 mov	 esi, esp
  0042d	6a 00		 push	 0
  0042f	6a 07		 push	 7
  00431	8d 8d f8 fd ff
	ff		 lea	 ecx, DWORD PTR _szPath$[ebp]
  00437	51		 push	 ecx
  00438	6a 00		 push	 0
  0043a	ff 15 00 00 00
	00		 call	 DWORD PTR __imp__SHGetSpecialFolderPathA@16
  00440	3b f4		 cmp	 esi, esp
  00442	e8 00 00 00 00	 call	 __RTC_CheckEsp

; 73   : 	strcat(szPath,"\\");

  00447	68 00 00 00 00	 push	 OFFSET FLAT:$SG187253
  0044c	8d 95 f8 fd ff
	ff		 lea	 edx, DWORD PTR _szPath$[ebp]
  00452	52		 push	 edx
  00453	e8 00 00 00 00	 call	 _strcat
  00458	83 c4 08	 add	 esp, 8

; 74   : 	strcat(szPath,RUN_MAINEXE);

  0045b	68 00 00 00 00	 push	 OFFSET FLAT:$SG187254
  00460	8d 85 f8 fd ff
	ff		 lea	 eax, DWORD PTR _szPath$[ebp]
  00466	50		 push	 eax
  00467	e8 00 00 00 00	 call	 _strcat
  0046c	83 c4 08	 add	 esp, 8

; 75   : 	return YL_FileInfo::IsValid(szPath);

  0046f	8d 8d f8 fd ff
	ff		 lea	 ecx, DWORD PTR _szPath$[ebp]
  00475	51		 push	 ecx
  00476	e8 00 00 00 00	 call	 ?IsValid@YL_FileInfo@@SA_NPBD@Z ; YL_FileInfo::IsValid
  0047b	83 c4 04	 add	 esp, 4

; 76   : }

  0047e	52		 push	 edx
  0047f	8b cd		 mov	 ecx, ebp
  00481	50		 push	 eax
  00482	8d 15 00 00 00
	00		 lea	 edx, DWORD PTR $L188109
  00488	e8 00 00 00 00	 call	 @_RTC_CheckStackVars@8
  0048d	58		 pop	 eax
  0048e	5a		 pop	 edx
  0048f	8b 4d fc	 mov	 ecx, DWORD PTR __$ArrayPad$[ebp]
  00492	e8 00 00 00 00	 call	 @__security_check_cookie@4
  00497	5f		 pop	 edi
  00498	5e		 pop	 esi
  00499	81 c4 0c 02 00
	00		 add	 esp, 524		; 0000020cH
  0049f	3b ec		 cmp	 ebp, esp
  004a1	e8 00 00 00 00	 call	 __RTC_CheckEsp
  004a6	8b e5		 mov	 esp, ebp
  004a8	5d		 pop	 ebp
  004a9	c3		 ret	 0
$L188109:
  004aa	01 00 00 00	 DD	 1
  004ae	00 00 00 00	 DD	 $L188108
$L188108:
  004b2	f8 fd ff ff	 DD	 -520			; fffffdf8H
  004b6	00 02 00 00	 DD	 512			; 00000200H
  004ba	00 00 00 00	 DD	 $L188106
$L188106:
  004be	73		 DB	 115			; 00000073H
  004bf	7a		 DB	 122			; 0000007aH
  004c0	50		 DB	 80			; 00000050H
  004c1	61		 DB	 97			; 00000061H
  004c2	74		 DB	 116			; 00000074H
  004c3	68		 DB	 104			; 00000068H
  004c4	00		 DB	 0
?IsAutoRun@GlobalFunc@@SA_NXZ ENDP			; GlobalFunc::IsAutoRun
_TEXT	ENDS
PUBLIC	??$?HDU?$char_traits@D@std@@V?$allocator@D@1@@std@@YA?AV?$basic_string@DU?$char_traits@D@std@@V?$allocator@D@2@@0@ABV10@PBD@Z ; std::operator+<char,std::char_traits<char>,std::allocator<char> >
PUBLIC	?GetSkinPath@GlobalFunc@@SA_NAAV?$basic_string@DU?$char_traits@D@std@@V?$allocator@D@2@@std@@@Z ; GlobalFunc::GetSkinPath
EXTRN	__imp_??0?$basic_string@DU?$char_traits@D@std@@V?$allocator@D@2@@std@@QAE@PBD@Z:NEAR
EXTRN	__imp_??4?$basic_string@DU?$char_traits@D@std@@V?$allocator@D@2@@std@@QAEAAV01@ABV01@@Z:NEAR
xdata$x	SEGMENT
$T188123 DD	0ffffffffH
	DD	FLAT:$L188114
	DD	00H
	DD	FLAT:$L188115
$T188117 DD	019930520H
	DD	02H
	DD	FLAT:$T188123
	DD	2 DUP(00H)
	DD	2 DUP(00H)
; Function compile flags: /Odt /RTCsu
xdata$x	ENDS
_TEXT	SEGMENT
tv82 = -608						; size = 4
tv86 = -604						; size = 4
tv80 = -600						; size = 4
tv83 = -596						; size = 4
$T188113 = -592						; size = 28
$T188112 = -564						; size = 28
_szHome$ = -532						; size = 512
__$ArrayPad$ = -16					; size = 4
__$EHRec$ = -12						; size = 12
__$ReturnAddr$ = 4					; size = 4
_strPath$ = 8						; size = 4
?GetSkinPath@GlobalFunc@@SA_NAAV?$basic_string@DU?$char_traits@D@std@@V?$allocator@D@2@@std@@@Z PROC NEAR ; GlobalFunc::GetSkinPath

; 79   : {

  004d0	55		 push	 ebp
  004d1	8b ec		 mov	 ebp, esp
  004d3	6a ff		 push	 -1
  004d5	68 00 00 00 00	 push	 __ehhandler$?GetSkinPath@GlobalFunc@@SA_NAAV?$basic_string@DU?$char_traits@D@std@@V?$allocator@D@2@@std@@@Z
  004da	64 a1 00 00 00
	00		 mov	 eax, DWORD PTR fs:__except_list
  004e0	50		 push	 eax
  004e1	64 89 25 00 00
	00 00		 mov	 DWORD PTR fs:__except_list, esp
  004e8	81 ec 54 02 00
	00		 sub	 esp, 596		; 00000254H
  004ee	56		 push	 esi
  004ef	57		 push	 edi
  004f0	8d bd a0 fd ff
	ff		 lea	 edi, DWORD PTR [ebp-608]
  004f6	b9 95 00 00 00	 mov	 ecx, 149		; 00000095H
  004fb	b8 cc cc cc cc	 mov	 eax, -858993460		; ccccccccH
  00500	f3 ab		 rep stosd
  00502	a1 00 00 00 00	 mov	 eax, DWORD PTR ___security_cookie
  00507	89 45 f0	 mov	 DWORD PTR __$ArrayPad$[ebp], eax

; 80   : 	//homepath
; 81   : 	char szHome[512];
; 82   : 	CLhcImg::GetHomePath(szHome, 512);

  0050a	68 00 02 00 00	 push	 512			; 00000200H
  0050f	8d 85 ec fd ff
	ff		 lea	 eax, DWORD PTR _szHome$[ebp]
  00515	50		 push	 eax
  00516	e8 00 00 00 00	 call	 ?GetHomePath@CLhcImg@@SA_NQADH@Z ; CLhcImg::GetHomePath
  0051b	83 c4 08	 add	 esp, 8

; 83   : 	strPath = string( szHome ) + "\\Resources\\skin\\";

  0051e	8b f4		 mov	 esi, esp
  00520	8d 8d ec fd ff
	ff		 lea	 ecx, DWORD PTR _szHome$[ebp]
  00526	51		 push	 ecx
  00527	8d 8d cc fd ff
	ff		 lea	 ecx, DWORD PTR $T188112[ebp]
  0052d	ff 15 00 00 00
	00		 call	 DWORD PTR __imp_??0?$basic_string@DU?$char_traits@D@std@@V?$allocator@D@2@@std@@QAE@PBD@Z
  00533	3b f4		 cmp	 esi, esp
  00535	e8 00 00 00 00	 call	 __RTC_CheckEsp
  0053a	89 85 ac fd ff
	ff		 mov	 DWORD PTR tv83[ebp], eax
  00540	8b 95 ac fd ff
	ff		 mov	 edx, DWORD PTR tv83[ebp]
  00546	89 95 a8 fd ff
	ff		 mov	 DWORD PTR tv80[ebp], edx
  0054c	c7 45 fc 00 00
	00 00		 mov	 DWORD PTR __$EHRec$[ebp+8], 0
  00553	68 00 00 00 00	 push	 OFFSET FLAT:$SG187261
  00558	8b 85 a8 fd ff
	ff		 mov	 eax, DWORD PTR tv80[ebp]
  0055e	50		 push	 eax
  0055f	8d 8d b0 fd ff
	ff		 lea	 ecx, DWORD PTR $T188113[ebp]
  00565	51		 push	 ecx
  00566	e8 00 00 00 00	 call	 ??$?HDU?$char_traits@D@std@@V?$allocator@D@1@@std@@YA?AV?$basic_string@DU?$char_traits@D@std@@V?$allocator@D@2@@0@ABV10@PBD@Z ; std::operator+<char,std::char_traits<char>,std::allocator<char> >
  0056b	83 c4 0c	 add	 esp, 12			; 0000000cH
  0056e	89 85 a4 fd ff
	ff		 mov	 DWORD PTR tv86[ebp], eax
  00574	8b 95 a4 fd ff
	ff		 mov	 edx, DWORD PTR tv86[ebp]
  0057a	89 95 a0 fd ff
	ff		 mov	 DWORD PTR tv82[ebp], edx
  00580	c6 45 fc 01	 mov	 BYTE PTR __$EHRec$[ebp+8], 1
  00584	8b f4		 mov	 esi, esp
  00586	8b 85 a0 fd ff
	ff		 mov	 eax, DWORD PTR tv82[ebp]
  0058c	50		 push	 eax
  0058d	8b 4d 08	 mov	 ecx, DWORD PTR _strPath$[ebp]
  00590	ff 15 00 00 00
	00		 call	 DWORD PTR __imp_??4?$basic_string@DU?$char_traits@D@std@@V?$allocator@D@2@@std@@QAEAAV01@ABV01@@Z
  00596	3b f4		 cmp	 esi, esp
  00598	e8 00 00 00 00	 call	 __RTC_CheckEsp
  0059d	c6 45 fc 00	 mov	 BYTE PTR __$EHRec$[ebp+8], 0
  005a1	8b f4		 mov	 esi, esp
  005a3	8d 8d b0 fd ff
	ff		 lea	 ecx, DWORD PTR $T188113[ebp]
  005a9	ff 15 00 00 00
	00		 call	 DWORD PTR __imp_??1?$basic_string@DU?$char_traits@D@std@@V?$allocator@D@2@@std@@QAE@XZ
  005af	3b f4		 cmp	 esi, esp
  005b1	e8 00 00 00 00	 call	 __RTC_CheckEsp
  005b6	c7 45 fc ff ff
	ff ff		 mov	 DWORD PTR __$EHRec$[ebp+8], -1
  005bd	8b f4		 mov	 esi, esp
  005bf	8d 8d cc fd ff
	ff		 lea	 ecx, DWORD PTR $T188112[ebp]
  005c5	ff 15 00 00 00
	00		 call	 DWORD PTR __imp_??1?$basic_string@DU?$char_traits@D@std@@V?$allocator@D@2@@std@@QAE@XZ
  005cb	3b f4		 cmp	 esi, esp
  005cd	e8 00 00 00 00	 call	 __RTC_CheckEsp

; 84   : 	return true;

  005d2	b0 01		 mov	 al, 1

; 85   : }

  005d4	52		 push	 edx
  005d5	8b cd		 mov	 ecx, ebp
  005d7	50		 push	 eax
  005d8	8d 15 00 00 00
	00		 lea	 edx, DWORD PTR $L188122
  005de	e8 00 00 00 00	 call	 @_RTC_CheckStackVars@8
  005e3	58		 pop	 eax
  005e4	5a		 pop	 edx
  005e5	8b 4d f4	 mov	 ecx, DWORD PTR __$EHRec$[ebp]
  005e8	64 89 0d 00 00
	00 00		 mov	 DWORD PTR fs:__except_list, ecx
  005ef	8b 4d f0	 mov	 ecx, DWORD PTR __$ArrayPad$[ebp]
  005f2	e8 00 00 00 00	 call	 @__security_check_cookie@4
  005f7	5f		 pop	 edi
  005f8	5e		 pop	 esi
  005f9	81 c4 60 02 00
	00		 add	 esp, 608		; 00000260H
  005ff	3b ec		 cmp	 ebp, esp
  00601	e8 00 00 00 00	 call	 __RTC_CheckEsp
  00606	8b e5		 mov	 esp, ebp
  00608	5d		 pop	 ebp
  00609	c3		 ret	 0
$L188122:
  0060a	01 00 00 00	 DD	 1
  0060e	00 00 00 00	 DD	 $L188121
$L188121:
  00612	ec fd ff ff	 DD	 -532			; fffffdecH
  00616	00 02 00 00	 DD	 512			; 00000200H
  0061a	00 00 00 00	 DD	 $L188118
$L188118:
  0061e	73		 DB	 115			; 00000073H
  0061f	7a		 DB	 122			; 0000007aH
  00620	48		 DB	 72			; 00000048H
  00621	6f		 DB	 111			; 0000006fH
  00622	6d		 DB	 109			; 0000006dH
  00623	65		 DB	 101			; 00000065H
  00624	00		 DB	 0
_TEXT	ENDS
text$x	SEGMENT
$L188114:
  0003e	8b f4		 mov	 esi, esp
  00040	8d 8d cc fd ff
	ff		 lea	 ecx, DWORD PTR $T188112[ebp]
  00046	ff 15 00 00 00
	00		 call	 DWORD PTR __imp_??1?$basic_string@DU?$char_traits@D@std@@V?$allocator@D@2@@std@@QAE@XZ
  0004c	3b f4		 cmp	 esi, esp
  0004e	e9 00 00 00 00	 jmp	 __RTC_CheckEsp
$L188115:
  00053	8b f4		 mov	 esi, esp
  00055	8d 8d b0 fd ff
	ff		 lea	 ecx, DWORD PTR $T188113[ebp]
  0005b	ff 15 00 00 00
	00		 call	 DWORD PTR __imp_??1?$basic_string@DU?$char_traits@D@std@@V?$allocator@D@2@@std@@QAE@XZ
  00061	3b f4		 cmp	 esi, esp
  00063	e9 00 00 00 00	 jmp	 __RTC_CheckEsp
__ehhandler$?GetSkinPath@GlobalFunc@@SA_NAAV?$basic_string@DU?$char_traits@D@std@@V?$allocator@D@2@@std@@@Z:
  00068	b8 00 00 00 00	 mov	 eax, OFFSET FLAT:$T188117
  0006d	e9 00 00 00 00	 jmp	 ___CxxFrameHandler
text$x	ENDS
?GetSkinPath@GlobalFunc@@SA_NAAV?$basic_string@DU?$char_traits@D@std@@V?$allocator@D@2@@std@@@Z ENDP ; GlobalFunc::GetSkinPath
PUBLIC	?GetSkinConfPath@GlobalFunc@@SA_NAAV?$basic_string@DU?$char_traits@D@std@@V?$allocator@D@2@@std@@@Z ; GlobalFunc::GetSkinConfPath
PUBLIC	??0?$vector@V?$basic_string@DU?$char_traits@D@std@@V?$allocator@D@2@@std@@V?$allocator@V?$basic_string@DU?$char_traits@D@std@@V?$allocator@D@2@@std@@@2@@std@@QAE@XZ ; std::vector<std::basic_string<char,std::char_traits<char>,std::allocator<char> >,std::allocator<std::basic_string<char,std::char_traits<char>,std::allocator<char> > > >::vector<std::basic_string<char,std::char_traits<char>,std::allocator<char> >,std::allocator<std::basic_string<char,std::char_traits<char>,std::allocator<char> > > >
PUBLIC	??1?$vector@V?$basic_string@DU?$char_traits@D@std@@V?$allocator@D@2@@std@@V?$allocator@V?$basic_string@DU?$char_traits@D@std@@V?$allocator@D@2@@std@@@2@@std@@QAE@XZ ; std::vector<std::basic_string<char,std::char_traits<char>,std::allocator<char> >,std::allocator<std::basic_string<char,std::char_traits<char>,std::allocator<char> > > >::~vector<std::basic_string<char,std::char_traits<char>,std::allocator<char> >,std::allocator<std::basic_string<char,std::char_traits<char>,std::allocator<char> > > >
EXTRN	?IsValid@YL_FileInfo@@SA_NABV?$basic_string@DU?$char_traits@D@std@@V?$allocator@D@2@@std@@@Z:NEAR ; YL_FileInfo::IsValid
EXTRN	__imp_?UnCompress@YL_CFileZip@@SA_NABV?$basic_string@DU?$char_traits@D@std@@V?$allocator@D@2@@std@@0AAV?$vector@V?$basic_string@DU?$char_traits@D@std@@V?$allocator@D@2@@std@@V?$allocator@V?$basic_string@DU?$char_traits@D@std@@V?$allocator@D@2@@std@@@2@@3@_NV23@@Z:NEAR
xdata$x	SEGMENT
$T188149 DD	0ffffffffH
	DD	FLAT:$L188131
	DD	00H
	DD	FLAT:$L188132
	DD	0ffffffffH
	DD	FLAT:$L188132
	DD	02H
	DD	FLAT:$L188133
	DD	03H
	DD	FLAT:$L188134
	DD	02H
	DD	FLAT:$L188134
	DD	05H
	DD	FLAT:$L188135
	DD	06H
	DD	FLAT:$L188136
$T188139 DD	019930520H
	DD	08H
	DD	FLAT:$T188149
	DD	2 DUP(00H)
	DD	2 DUP(00H)
; Function compile flags: /Odt /RTCsu
xdata$x	ENDS
_TEXT	SEGMENT
tv168 = -1012						; size = 4
tv163 = -1008						; size = 4
tv175 = -1004						; size = 4
tv160 = -1000						; size = 4
tv171 = -996						; size = 4
$T188130 = -989						; size = 1
$T188129 = -988						; size = 28
$T188128 = -960						; size = 4
$T188127 = -956						; size = 28
$T188126 = -928						; size = 28
_vec$187471 = -896					; size = 16
_strDes$ = -872						; size = 28
_strSrc$ = -836						; size = 28
_szTempPath$ = -800					; size = 260
_szHome$ = -532						; size = 512
__$ArrayPad$ = -16					; size = 4
__$EHRec$ = -12						; size = 12
__$ReturnAddr$ = 4					; size = 4
_strPath$ = 8						; size = 4
?GetSkinConfPath@GlobalFunc@@SA_NAAV?$basic_string@DU?$char_traits@D@std@@V?$allocator@D@2@@std@@@Z PROC NEAR ; GlobalFunc::GetSkinConfPath

; 88   : {

  00630	55		 push	 ebp
  00631	8b ec		 mov	 ebp, esp
  00633	6a ff		 push	 -1
  00635	68 00 00 00 00	 push	 __ehhandler$?GetSkinConfPath@GlobalFunc@@SA_NAAV?$basic_string@DU?$char_traits@D@std@@V?$allocator@D@2@@std@@@Z
  0063a	64 a1 00 00 00
	00		 mov	 eax, DWORD PTR fs:__except_list
  00640	50		 push	 eax
  00641	64 89 25 00 00
	00 00		 mov	 DWORD PTR fs:__except_list, esp
  00648	81 ec e8 03 00
	00		 sub	 esp, 1000		; 000003e8H
  0064e	56		 push	 esi
  0064f	57		 push	 edi
  00650	8d bd 0c fc ff
	ff		 lea	 edi, DWORD PTR [ebp-1012]
  00656	b9 fa 00 00 00	 mov	 ecx, 250		; 000000faH
  0065b	b8 cc cc cc cc	 mov	 eax, -858993460		; ccccccccH
  00660	f3 ab		 rep stosd
  00662	a1 00 00 00 00	 mov	 eax, DWORD PTR ___security_cookie
  00667	89 45 f0	 mov	 DWORD PTR __$ArrayPad$[ebp], eax

; 89   : 	//homepath
; 90   : 	char szHome[512];
; 91   : 	CLhcImg::GetHomePath(szHome, 512);

  0066a	68 00 02 00 00	 push	 512			; 00000200H
  0066f	8d 85 ec fd ff
	ff		 lea	 eax, DWORD PTR _szHome$[ebp]
  00675	50		 push	 eax
  00676	e8 00 00 00 00	 call	 ?GetHomePath@CLhcImg@@SA_NQADH@Z ; CLhcImg::GetHomePath
  0067b	83 c4 08	 add	 esp, 8

; 92   : 	//temppath
; 93   : 	char szTempPath[MAX_PATH];
; 94   : 	memset(szTempPath, 0, MAX_PATH);

  0067e	68 04 01 00 00	 push	 260			; 00000104H
  00683	6a 00		 push	 0
  00685	8d 8d e0 fc ff
	ff		 lea	 ecx, DWORD PTR _szTempPath$[ebp]
  0068b	51		 push	 ecx
  0068c	e8 00 00 00 00	 call	 _memset
  00691	83 c4 0c	 add	 esp, 12			; 0000000cH

; 95   : 	//::GetTempPath(MAX_PATH, szTempPath);  //
; 96   : 	//_snprintf( szTempPath, MAX_PATH, "%s\\Resources\\skin\\", szHome );  //MainSkin.dat
; 97   : 	SHGetSpecialFolderPath(NULL,szTempPath,CSIDL_APPDATA,FALSE);

  00694	8b f4		 mov	 esi, esp
  00696	6a 00		 push	 0
  00698	6a 1a		 push	 26			; 0000001aH
  0069a	8d 95 e0 fc ff
	ff		 lea	 edx, DWORD PTR _szTempPath$[ebp]
  006a0	52		 push	 edx
  006a1	6a 00		 push	 0
  006a3	ff 15 00 00 00
	00		 call	 DWORD PTR __imp__SHGetSpecialFolderPathA@16
  006a9	3b f4		 cmp	 esi, esp
  006ab	e8 00 00 00 00	 call	 __RTC_CheckEsp

; 98   : 	strcat( szTempPath, "\\PP\\" );

  006b0	68 00 00 00 00	 push	 OFFSET FLAT:$SG187267
  006b5	8d 85 e0 fc ff
	ff		 lea	 eax, DWORD PTR _szTempPath$[ebp]
  006bb	50		 push	 eax
  006bc	e8 00 00 00 00	 call	 _strcat
  006c1	83 c4 08	 add	 esp, 8

; 99   : 	YL_DirInfo::MakeDir( szTempPath );

  006c4	8d 8d e0 fc ff
	ff		 lea	 ecx, DWORD PTR _szTempPath$[ebp]
  006ca	51		 push	 ecx
  006cb	e8 00 00 00 00	 call	 ?MakeDir@YL_DirInfo@@SA_NPBD@Z ; YL_DirInfo::MakeDir
  006d0	83 c4 04	 add	 esp, 4

; 100  : 
; 101  : 	//mainskin.dat path
; 102  : 	string strSrc = string( szHome ) + "\\Resources\\skin\\MainSkin.dat";

  006d3	8b f4		 mov	 esi, esp
  006d5	8d 95 ec fd ff
	ff		 lea	 edx, DWORD PTR _szHome$[ebp]
  006db	52		 push	 edx
  006dc	8d 8d 60 fc ff
	ff		 lea	 ecx, DWORD PTR $T188126[ebp]
  006e2	ff 15 00 00 00
	00		 call	 DWORD PTR __imp_??0?$basic_string@DU?$char_traits@D@std@@V?$allocator@D@2@@std@@QAE@PBD@Z
  006e8	3b f4		 cmp	 esi, esp
  006ea	e8 00 00 00 00	 call	 __RTC_CheckEsp
  006ef	89 85 1c fc ff
	ff		 mov	 DWORD PTR tv171[ebp], eax
  006f5	8b 85 1c fc ff
	ff		 mov	 eax, DWORD PTR tv171[ebp]
  006fb	89 85 18 fc ff
	ff		 mov	 DWORD PTR tv160[ebp], eax
  00701	c7 45 fc 00 00
	00 00		 mov	 DWORD PTR __$EHRec$[ebp+8], 0
  00708	68 00 00 00 00	 push	 OFFSET FLAT:$SG187271
  0070d	8b 8d 18 fc ff
	ff		 mov	 ecx, DWORD PTR tv160[ebp]
  00713	51		 push	 ecx
  00714	8d 95 bc fc ff
	ff		 lea	 edx, DWORD PTR _strSrc$[ebp]
  0071a	52		 push	 edx
  0071b	e8 00 00 00 00	 call	 ??$?HDU?$char_traits@D@std@@V?$allocator@D@1@@std@@YA?AV?$basic_string@DU?$char_traits@D@std@@V?$allocator@D@2@@0@ABV10@PBD@Z ; std::operator+<char,std::char_traits<char>,std::allocator<char> >
  00720	83 c4 0c	 add	 esp, 12			; 0000000cH
  00723	c6 45 fc 02	 mov	 BYTE PTR __$EHRec$[ebp+8], 2
  00727	8b f4		 mov	 esi, esp
  00729	8d 8d 60 fc ff
	ff		 lea	 ecx, DWORD PTR $T188126[ebp]
  0072f	ff 15 00 00 00
	00		 call	 DWORD PTR __imp_??1?$basic_string@DU?$char_traits@D@std@@V?$allocator@D@2@@std@@QAE@XZ
  00735	3b f4		 cmp	 esi, esp
  00737	e8 00 00 00 00	 call	 __RTC_CheckEsp

; 103  : 	//mainskin.xml path
; 104  : 	string strDes = string( szTempPath ) + "MainSkin.xml";

  0073c	8b f4		 mov	 esi, esp
  0073e	8d 85 e0 fc ff
	ff		 lea	 eax, DWORD PTR _szTempPath$[ebp]
  00744	50		 push	 eax
  00745	8d 8d 44 fc ff
	ff		 lea	 ecx, DWORD PTR $T188127[ebp]
  0074b	ff 15 00 00 00
	00		 call	 DWORD PTR __imp_??0?$basic_string@DU?$char_traits@D@std@@V?$allocator@D@2@@std@@QAE@PBD@Z
  00751	3b f4		 cmp	 esi, esp
  00753	e8 00 00 00 00	 call	 __RTC_CheckEsp
  00758	89 85 14 fc ff
	ff		 mov	 DWORD PTR tv175[ebp], eax
  0075e	8b 8d 14 fc ff
	ff		 mov	 ecx, DWORD PTR tv175[ebp]
  00764	89 8d 10 fc ff
	ff		 mov	 DWORD PTR tv163[ebp], ecx
  0076a	c6 45 fc 03	 mov	 BYTE PTR __$EHRec$[ebp+8], 3
  0076e	68 00 00 00 00	 push	 OFFSET FLAT:$SG187275
  00773	8b 95 10 fc ff
	ff		 mov	 edx, DWORD PTR tv163[ebp]
  00779	52		 push	 edx
  0077a	8d 85 98 fc ff
	ff		 lea	 eax, DWORD PTR _strDes$[ebp]
  00780	50		 push	 eax
  00781	e8 00 00 00 00	 call	 ??$?HDU?$char_traits@D@std@@V?$allocator@D@1@@std@@YA?AV?$basic_string@DU?$char_traits@D@std@@V?$allocator@D@2@@0@ABV10@PBD@Z ; std::operator+<char,std::char_traits<char>,std::allocator<char> >
  00786	83 c4 0c	 add	 esp, 12			; 0000000cH
  00789	c6 45 fc 05	 mov	 BYTE PTR __$EHRec$[ebp+8], 5
  0078d	8b f4		 mov	 esi, esp
  0078f	8d 8d 44 fc ff
	ff		 lea	 ecx, DWORD PTR $T188127[ebp]
  00795	ff 15 00 00 00
	00		 call	 DWORD PTR __imp_??1?$basic_string@DU?$char_traits@D@std@@V?$allocator@D@2@@std@@QAE@XZ
  0079b	3b f4		 cmp	 esi, esp
  0079d	e8 00 00 00 00	 call	 __RTC_CheckEsp

; 105  : 	//////
; 106  : 	if( !YL_FileInfo::IsValid( strDes ) )

  007a2	8d 8d 98 fc ff
	ff		 lea	 ecx, DWORD PTR _strDes$[ebp]
  007a8	51		 push	 ecx
  007a9	e8 00 00 00 00	 call	 ?IsValid@YL_FileInfo@@SA_NABV?$basic_string@DU?$char_traits@D@std@@V?$allocator@D@2@@std@@@Z ; YL_FileInfo::IsValid
  007ae	83 c4 04	 add	 esp, 4
  007b1	0f b6 d0	 movzx	 edx, al
  007b4	85 d2		 test	 edx, edx
  007b6	0f 85 9c 00 00
	00		 jne	 $L187276

; 107  : 	{
; 108  : 		vector<string> vec;

  007bc	8d 8d 80 fc ff
	ff		 lea	 ecx, DWORD PTR _vec$187471[ebp]
  007c2	e8 00 00 00 00	 call	 ??0?$vector@V?$basic_string@DU?$char_traits@D@std@@V?$allocator@D@2@@std@@V?$allocator@V?$basic_string@DU?$char_traits@D@std@@V?$allocator@D@2@@std@@@2@@std@@QAE@XZ ; std::vector<std::basic_string<char,std::char_traits<char>,std::allocator<char> >,std::allocator<std::basic_string<char,std::char_traits<char>,std::allocator<char> > > >::vector<std::basic_string<char,std::char_traits<char>,std::allocator<char> >,std::allocator<std::basic_string<char,std::char_traits<char>,std::allocator<char> > > >
  007c7	c6 45 fc 06	 mov	 BYTE PTR __$EHRec$[ebp+8], 6

; 109  : 		YL_CFileZip::UnCompress( strSrc, szTempPath, vec, true, "!@#$%^&*()" );	

  007cb	8b f4		 mov	 esi, esp
  007cd	8d 85 e0 fc ff
	ff		 lea	 eax, DWORD PTR _szTempPath$[ebp]
  007d3	50		 push	 eax
  007d4	8d 8d 24 fc ff
	ff		 lea	 ecx, DWORD PTR $T188129[ebp]
  007da	ff 15 00 00 00
	00		 call	 DWORD PTR __imp_??0?$basic_string@DU?$char_traits@D@std@@V?$allocator@D@2@@std@@QAE@PBD@Z
  007e0	3b f4		 cmp	 esi, esp
  007e2	e8 00 00 00 00	 call	 __RTC_CheckEsp
  007e7	c6 45 fc 07	 mov	 BYTE PTR __$EHRec$[ebp+8], 7
  007eb	83 ec 1c	 sub	 esp, 28			; 0000001cH
  007ee	8b cc		 mov	 ecx, esp
  007f0	89 a5 40 fc ff
	ff		 mov	 DWORD PTR $T188128[ebp], esp
  007f6	8b f4		 mov	 esi, esp
  007f8	68 00 00 00 00	 push	 OFFSET FLAT:$SG187474
  007fd	ff 15 00 00 00
	00		 call	 DWORD PTR __imp_??0?$basic_string@DU?$char_traits@D@std@@V?$allocator@D@2@@std@@QAE@PBD@Z
  00803	3b f4		 cmp	 esi, esp
  00805	e8 00 00 00 00	 call	 __RTC_CheckEsp
  0080a	89 85 0c fc ff
	ff		 mov	 DWORD PTR tv168[ebp], eax
  00810	6a 01		 push	 1
  00812	8d 8d 80 fc ff
	ff		 lea	 ecx, DWORD PTR _vec$187471[ebp]
  00818	51		 push	 ecx
  00819	8d 95 24 fc ff
	ff		 lea	 edx, DWORD PTR $T188129[ebp]
  0081f	52		 push	 edx
  00820	8d 85 bc fc ff
	ff		 lea	 eax, DWORD PTR _strSrc$[ebp]
  00826	50		 push	 eax
  00827	ff 15 00 00 00
	00		 call	 DWORD PTR __imp_?UnCompress@YL_CFileZip@@SA_NABV?$basic_string@DU?$char_traits@D@std@@V?$allocator@D@2@@std@@0AAV?$vector@V?$basic_string@DU?$char_traits@D@std@@V?$allocator@D@2@@std@@V?$allocator@V?$basic_string@DU?$char_traits@D@std@@V?$allocator@D@2@@std@@@2@@3@_NV23@@Z
  0082d	83 c4 2c	 add	 esp, 44			; 0000002cH
  00830	c6 45 fc 06	 mov	 BYTE PTR __$EHRec$[ebp+8], 6
  00834	8b f4		 mov	 esi, esp
  00836	8d 8d 24 fc ff
	ff		 lea	 ecx, DWORD PTR $T188129[ebp]
  0083c	ff 15 00 00 00
	00		 call	 DWORD PTR __imp_??1?$basic_string@DU?$char_traits@D@std@@V?$allocator@D@2@@std@@QAE@XZ
  00842	3b f4		 cmp	 esi, esp
  00844	e8 00 00 00 00	 call	 __RTC_CheckEsp

; 110  : 	}

  00849	c6 45 fc 05	 mov	 BYTE PTR __$EHRec$[ebp+8], 5
  0084d	8d 8d 80 fc ff
	ff		 lea	 ecx, DWORD PTR _vec$187471[ebp]
  00853	e8 00 00 00 00	 call	 ??1?$vector@V?$basic_string@DU?$char_traits@D@std@@V?$allocator@D@2@@std@@V?$allocator@V?$basic_string@DU?$char_traits@D@std@@V?$allocator@D@2@@std@@@2@@std@@QAE@XZ ; std::vector<std::basic_string<char,std::char_traits<char>,std::allocator<char> >,std::allocator<std::basic_string<char,std::char_traits<char>,std::allocator<char> > > >::~vector<std::basic_string<char,std::char_traits<char>,std::allocator<char> >,std::allocator<std::basic_string<char,std::char_traits<char>,std::allocator<char> > > >
$L187276:

; 111  : 	strPath = strDes;

  00858	8b f4		 mov	 esi, esp
  0085a	8d 8d 98 fc ff
	ff		 lea	 ecx, DWORD PTR _strDes$[ebp]
  00860	51		 push	 ecx
  00861	8b 4d 08	 mov	 ecx, DWORD PTR _strPath$[ebp]
  00864	ff 15 00 00 00
	00		 call	 DWORD PTR __imp_??4?$basic_string@DU?$char_traits@D@std@@V?$allocator@D@2@@std@@QAEAAV01@ABV01@@Z
  0086a	3b f4		 cmp	 esi, esp
  0086c	e8 00 00 00 00	 call	 __RTC_CheckEsp

; 112  : 	return true;

  00871	c6 85 23 fc ff
	ff 01		 mov	 BYTE PTR $T188130[ebp], 1
  00878	c6 45 fc 02	 mov	 BYTE PTR __$EHRec$[ebp+8], 2
  0087c	8b f4		 mov	 esi, esp
  0087e	8d 8d 98 fc ff
	ff		 lea	 ecx, DWORD PTR _strDes$[ebp]
  00884	ff 15 00 00 00
	00		 call	 DWORD PTR __imp_??1?$basic_string@DU?$char_traits@D@std@@V?$allocator@D@2@@std@@QAE@XZ
  0088a	3b f4		 cmp	 esi, esp
  0088c	e8 00 00 00 00	 call	 __RTC_CheckEsp
  00891	c7 45 fc ff ff
	ff ff		 mov	 DWORD PTR __$EHRec$[ebp+8], -1
  00898	8b f4		 mov	 esi, esp
  0089a	8d 8d bc fc ff
	ff		 lea	 ecx, DWORD PTR _strSrc$[ebp]
  008a0	ff 15 00 00 00
	00		 call	 DWORD PTR __imp_??1?$basic_string@DU?$char_traits@D@std@@V?$allocator@D@2@@std@@QAE@XZ
  008a6	3b f4		 cmp	 esi, esp
  008a8	e8 00 00 00 00	 call	 __RTC_CheckEsp
  008ad	8a 85 23 fc ff
	ff		 mov	 al, BYTE PTR $T188130[ebp]

; 113  : }

  008b3	52		 push	 edx
  008b4	8b cd		 mov	 ecx, ebp
  008b6	50		 push	 eax
  008b7	8d 15 00 00 00
	00		 lea	 edx, DWORD PTR $L188148
  008bd	e8 00 00 00 00	 call	 @_RTC_CheckStackVars@8
  008c2	58		 pop	 eax
  008c3	5a		 pop	 edx
  008c4	8b 4d f4	 mov	 ecx, DWORD PTR __$EHRec$[ebp]
  008c7	64 89 0d 00 00
	00 00		 mov	 DWORD PTR fs:__except_list, ecx
  008ce	8b 4d f0	 mov	 ecx, DWORD PTR __$ArrayPad$[ebp]
  008d1	e8 00 00 00 00	 call	 @__security_check_cookie@4
  008d6	5f		 pop	 edi
  008d7	5e		 pop	 esi
  008d8	81 c4 f4 03 00
	00		 add	 esp, 1012		; 000003f4H
  008de	3b ec		 cmp	 ebp, esp
  008e0	e8 00 00 00 00	 call	 __RTC_CheckEsp
  008e5	8b e5		 mov	 esp, ebp
  008e7	5d		 pop	 ebp
  008e8	c3		 ret	 0
$L188148:
  008e9	05 00 00 00	 DD	 5
  008ed	00 00 00 00	 DD	 $L188147
$L188147:
  008f1	ec fd ff ff	 DD	 -532			; fffffdecH
  008f5	00 02 00 00	 DD	 512			; 00000200H
  008f9	00 00 00 00	 DD	 $L188140
  008fd	e0 fc ff ff	 DD	 -800			; fffffce0H
  00901	04 01 00 00	 DD	 260			; 00000104H
  00905	00 00 00 00	 DD	 $L188141
  00909	bc fc ff ff	 DD	 -836			; fffffcbcH
  0090d	1c 00 00 00	 DD	 28			; 0000001cH
  00911	00 00 00 00	 DD	 $L188142
  00915	98 fc ff ff	 DD	 -872			; fffffc98H
  00919	1c 00 00 00	 DD	 28			; 0000001cH
  0091d	00 00 00 00	 DD	 $L188143
  00921	80 fc ff ff	 DD	 -896			; fffffc80H
  00925	10 00 00 00	 DD	 16			; 00000010H
  00929	00 00 00 00	 DD	 $L188144
$L188144:
  0092d	76		 DB	 118			; 00000076H
  0092e	65		 DB	 101			; 00000065H
  0092f	63		 DB	 99			; 00000063H
  00930	00		 DB	 0
$L188143:
  00931	73		 DB	 115			; 00000073H
  00932	74		 DB	 116			; 00000074H
  00933	72		 DB	 114			; 00000072H
  00934	44		 DB	 68			; 00000044H
  00935	65		 DB	 101			; 00000065H
  00936	73		 DB	 115			; 00000073H
  00937	00		 DB	 0
$L188142:
  00938	73		 DB	 115			; 00000073H
  00939	74		 DB	 116			; 00000074H
  0093a	72		 DB	 114			; 00000072H
  0093b	53		 DB	 83			; 00000053H
  0093c	72		 DB	 114			; 00000072H
  0093d	63		 DB	 99			; 00000063H
  0093e	00		 DB	 0
$L188141:
  0093f	73		 DB	 115			; 00000073H
  00940	7a		 DB	 122			; 0000007aH
  00941	54		 DB	 84			; 00000054H
  00942	65		 DB	 101			; 00000065H
  00943	6d		 DB	 109			; 0000006dH
  00944	70		 DB	 112			; 00000070H
  00945	50		 DB	 80			; 00000050H
  00946	61		 DB	 97			; 00000061H
  00947	74		 DB	 116			; 00000074H
  00948	68		 DB	 104			; 00000068H
  00949	00		 DB	 0
$L188140:
  0094a	73		 DB	 115			; 00000073H
  0094b	7a		 DB	 122			; 0000007aH
  0094c	48		 DB	 72			; 00000048H
  0094d	6f		 DB	 111			; 0000006fH
  0094e	6d		 DB	 109			; 0000006dH
  0094f	65		 DB	 101			; 00000065H
  00950	00		 DB	 0
_TEXT	ENDS
text$x	SEGMENT
$L188131:
  00072	8b f4		 mov	 esi, esp
  00074	8d 8d 60 fc ff
	ff		 lea	 ecx, DWORD PTR $T188126[ebp]
  0007a	ff 15 00 00 00
	00		 call	 DWORD PTR __imp_??1?$basic_string@DU?$char_traits@D@std@@V?$allocator@D@2@@std@@QAE@XZ
  00080	3b f4		 cmp	 esi, esp
  00082	e9 00 00 00 00	 jmp	 __RTC_CheckEsp
$L188132:
  00087	8b f4		 mov	 esi, esp
  00089	8d 8d bc fc ff
	ff		 lea	 ecx, DWORD PTR _strSrc$[ebp]
  0008f	ff 15 00 00 00
	00		 call	 DWORD PTR __imp_??1?$basic_string@DU?$char_traits@D@std@@V?$allocator@D@2@@std@@QAE@XZ
  00095	3b f4		 cmp	 esi, esp
  00097	e9 00 00 00 00	 jmp	 __RTC_CheckEsp
$L188133:
  0009c	8b f4		 mov	 esi, esp
  0009e	8d 8d 44 fc ff
	ff		 lea	 ecx, DWORD PTR $T188127[ebp]
  000a4	ff 15 00 00 00
	00		 call	 DWORD PTR __imp_??1?$basic_string@DU?$char_traits@D@std@@V?$allocator@D@2@@std@@QAE@XZ
  000aa	3b f4		 cmp	 esi, esp
  000ac	e9 00 00 00 00	 jmp	 __RTC_CheckEsp
$L188134:
  000b1	8b f4		 mov	 esi, esp
  000b3	8d 8d 98 fc ff
	ff		 lea	 ecx, DWORD PTR _strDes$[ebp]
  000b9	ff 15 00 00 00
	00		 call	 DWORD PTR __imp_??1?$basic_string@DU?$char_traits@D@std@@V?$allocator@D@2@@std@@QAE@XZ
  000bf	3b f4		 cmp	 esi, esp
  000c1	e9 00 00 00 00	 jmp	 __RTC_CheckEsp
$L188135:
  000c6	8d 8d 80 fc ff
	ff		 lea	 ecx, DWORD PTR _vec$187471[ebp]
  000cc	e9 00 00 00 00	 jmp	 ??1?$vector@V?$basic_string@DU?$char_traits@D@std@@V?$allocator@D@2@@std@@V?$allocator@V?$basic_string@DU?$char_traits@D@std@@V?$allocator@D@2@@std@@@2@@std@@QAE@XZ ; std::vector<std::basic_string<char,std::char_traits<char>,std::allocator<char> >,std::allocator<std::basic_string<char,std::char_traits<char>,std::allocator<char> > > >::~vector<std::basic_string<char,std::char_traits<char>,std::allocator<char> >,std::allocator<std::basic_string<char,std::char_traits<char>,std::allocator<char> > > >
$L188136:
  000d1	8b f4		 mov	 esi, esp
  000d3	8d 8d 24 fc ff
	ff		 lea	 ecx, DWORD PTR $T188129[ebp]
  000d9	ff 15 00 00 00
	00		 call	 DWORD PTR __imp_??1?$basic_string@DU?$char_traits@D@std@@V?$allocator@D@2@@std@@QAE@XZ
  000df	3b f4		 cmp	 esi, esp
  000e1	e9 00 00 00 00	 jmp	 __RTC_CheckEsp
__ehhandler$?GetSkinConfPath@GlobalFunc@@SA_NAAV?$basic_string@DU?$char_traits@D@std@@V?$allocator@D@2@@std@@@Z:
  000e6	b8 00 00 00 00	 mov	 eax, OFFSET FLAT:$T188139
  000eb	e9 00 00 00 00	 jmp	 ___CxxFrameHandler
text$x	ENDS
?GetSkinConfPath@GlobalFunc@@SA_NAAV?$basic_string@DU?$char_traits@D@std@@V?$allocator@D@2@@std@@@Z ENDP ; GlobalFunc::GetSkinConfPath
PUBLIC	?DelSkinXml@GlobalFunc@@SA_NXZ			; GlobalFunc::DelSkinXml
xdata$x	SEGMENT
$T188168 DD	0ffffffffH
	DD	FLAT:$L188155
	DD	00H
	DD	FLAT:$L188156
	DD	0ffffffffH
	DD	FLAT:$L188156
	DD	02H
	DD	FLAT:$L188157
	DD	03H
	DD	FLAT:$L188158
	DD	02H
	DD	FLAT:$L188158
$T188160 DD	019930520H
	DD	06H
	DD	FLAT:$T188168
	DD	2 DUP(00H)
	DD	2 DUP(00H)
; Function compile flags: /Odt /RTCsu
xdata$x	ENDS
_TEXT	SEGMENT
tv133 = -432						; size = 4
tv141 = -428						; size = 4
tv130 = -424						; size = 4
tv137 = -420						; size = 4
$T188154 = -413						; size = 1
$T188153 = -412						; size = 28
$T188152 = -384						; size = 28
_strDes1$ = -352					; size = 28
_strDes$ = -316						; size = 28
_szTempPath$ = -280					; size = 260
__$ArrayPad$ = -16					; size = 4
__$EHRec$ = -12						; size = 12
__$ReturnAddr$ = 4					; size = 4
?DelSkinXml@GlobalFunc@@SA_NXZ PROC NEAR		; GlobalFunc::DelSkinXml

; 116  : {

  00960	55		 push	 ebp
  00961	8b ec		 mov	 ebp, esp
  00963	6a ff		 push	 -1
  00965	68 00 00 00 00	 push	 __ehhandler$?DelSkinXml@GlobalFunc@@SA_NXZ
  0096a	64 a1 00 00 00
	00		 mov	 eax, DWORD PTR fs:__except_list
  00970	50		 push	 eax
  00971	64 89 25 00 00
	00 00		 mov	 DWORD PTR fs:__except_list, esp
  00978	81 ec a4 01 00
	00		 sub	 esp, 420		; 000001a4H
  0097e	56		 push	 esi
  0097f	57		 push	 edi
  00980	8d bd 50 fe ff
	ff		 lea	 edi, DWORD PTR [ebp-432]
  00986	b9 69 00 00 00	 mov	 ecx, 105		; 00000069H
  0098b	b8 cc cc cc cc	 mov	 eax, -858993460		; ccccccccH
  00990	f3 ab		 rep stosd
  00992	a1 00 00 00 00	 mov	 eax, DWORD PTR ___security_cookie
  00997	89 45 f0	 mov	 DWORD PTR __$ArrayPad$[ebp], eax

; 117  : 	//temppath
; 118  : 	char szTempPath[MAX_PATH];
; 119  : 	memset(szTempPath, 0, MAX_PATH);

  0099a	68 04 01 00 00	 push	 260			; 00000104H
  0099f	6a 00		 push	 0
  009a1	8d 85 e8 fe ff
	ff		 lea	 eax, DWORD PTR _szTempPath$[ebp]
  009a7	50		 push	 eax
  009a8	e8 00 00 00 00	 call	 _memset
  009ad	83 c4 0c	 add	 esp, 12			; 0000000cH

; 120  : 	SHGetSpecialFolderPath(NULL,szTempPath,CSIDL_APPDATA,FALSE);

  009b0	8b f4		 mov	 esi, esp
  009b2	6a 00		 push	 0
  009b4	6a 1a		 push	 26			; 0000001aH
  009b6	8d 8d e8 fe ff
	ff		 lea	 ecx, DWORD PTR _szTempPath$[ebp]
  009bc	51		 push	 ecx
  009bd	6a 00		 push	 0
  009bf	ff 15 00 00 00
	00		 call	 DWORD PTR __imp__SHGetSpecialFolderPathA@16
  009c5	3b f4		 cmp	 esi, esp
  009c7	e8 00 00 00 00	 call	 __RTC_CheckEsp

; 121  : 	//mainskin.xml path
; 122  : 	string strDes = string( szTempPath ) + "\\PP\\MainSkin.xml";

  009cc	8b f4		 mov	 esi, esp
  009ce	8d 95 e8 fe ff
	ff		 lea	 edx, DWORD PTR _szTempPath$[ebp]
  009d4	52		 push	 edx
  009d5	8d 8d 80 fe ff
	ff		 lea	 ecx, DWORD PTR $T188152[ebp]
  009db	ff 15 00 00 00
	00		 call	 DWORD PTR __imp_??0?$basic_string@DU?$char_traits@D@std@@V?$allocator@D@2@@std@@QAE@PBD@Z
  009e1	3b f4		 cmp	 esi, esp
  009e3	e8 00 00 00 00	 call	 __RTC_CheckEsp
  009e8	89 85 5c fe ff
	ff		 mov	 DWORD PTR tv137[ebp], eax
  009ee	8b 85 5c fe ff
	ff		 mov	 eax, DWORD PTR tv137[ebp]
  009f4	89 85 58 fe ff
	ff		 mov	 DWORD PTR tv130[ebp], eax
  009fa	c7 45 fc 00 00
	00 00		 mov	 DWORD PTR __$EHRec$[ebp+8], 0
  00a01	68 00 00 00 00	 push	 OFFSET FLAT:$SG187482
  00a06	8b 8d 58 fe ff
	ff		 mov	 ecx, DWORD PTR tv130[ebp]
  00a0c	51		 push	 ecx
  00a0d	8d 95 c4 fe ff
	ff		 lea	 edx, DWORD PTR _strDes$[ebp]
  00a13	52		 push	 edx
  00a14	e8 00 00 00 00	 call	 ??$?HDU?$char_traits@D@std@@V?$allocator@D@1@@std@@YA?AV?$basic_string@DU?$char_traits@D@std@@V?$allocator@D@2@@0@ABV10@PBD@Z ; std::operator+<char,std::char_traits<char>,std::allocator<char> >
  00a19	83 c4 0c	 add	 esp, 12			; 0000000cH
  00a1c	c6 45 fc 02	 mov	 BYTE PTR __$EHRec$[ebp+8], 2
  00a20	8b f4		 mov	 esi, esp
  00a22	8d 8d 80 fe ff
	ff		 lea	 ecx, DWORD PTR $T188152[ebp]
  00a28	ff 15 00 00 00
	00		 call	 DWORD PTR __imp_??1?$basic_string@DU?$char_traits@D@std@@V?$allocator@D@2@@std@@QAE@XZ
  00a2e	3b f4		 cmp	 esi, esp
  00a30	e8 00 00 00 00	 call	 __RTC_CheckEsp

; 123  : 	string strDes1 = string( szTempPath ) + "\\PP\\MainSkin.xml.temp";

  00a35	8b f4		 mov	 esi, esp
  00a37	8d 85 e8 fe ff
	ff		 lea	 eax, DWORD PTR _szTempPath$[ebp]
  00a3d	50		 push	 eax
  00a3e	8d 8d 64 fe ff
	ff		 lea	 ecx, DWORD PTR $T188153[ebp]
  00a44	ff 15 00 00 00
	00		 call	 DWORD PTR __imp_??0?$basic_string@DU?$char_traits@D@std@@V?$allocator@D@2@@std@@QAE@PBD@Z
  00a4a	3b f4		 cmp	 esi, esp
  00a4c	e8 00 00 00 00	 call	 __RTC_CheckEsp
  00a51	89 85 54 fe ff
	ff		 mov	 DWORD PTR tv141[ebp], eax
  00a57	8b 8d 54 fe ff
	ff		 mov	 ecx, DWORD PTR tv141[ebp]
  00a5d	89 8d 50 fe ff
	ff		 mov	 DWORD PTR tv133[ebp], ecx
  00a63	c6 45 fc 03	 mov	 BYTE PTR __$EHRec$[ebp+8], 3
  00a67	68 00 00 00 00	 push	 OFFSET FLAT:$SG187486
  00a6c	8b 95 50 fe ff
	ff		 mov	 edx, DWORD PTR tv133[ebp]
  00a72	52		 push	 edx
  00a73	8d 85 a0 fe ff
	ff		 lea	 eax, DWORD PTR _strDes1$[ebp]
  00a79	50		 push	 eax
  00a7a	e8 00 00 00 00	 call	 ??$?HDU?$char_traits@D@std@@V?$allocator@D@1@@std@@YA?AV?$basic_string@DU?$char_traits@D@std@@V?$allocator@D@2@@0@ABV10@PBD@Z ; std::operator+<char,std::char_traits<char>,std::allocator<char> >
  00a7f	83 c4 0c	 add	 esp, 12			; 0000000cH
  00a82	c6 45 fc 05	 mov	 BYTE PTR __$EHRec$[ebp+8], 5
  00a86	8b f4		 mov	 esi, esp
  00a88	8d 8d 64 fe ff
	ff		 lea	 ecx, DWORD PTR $T188153[ebp]
  00a8e	ff 15 00 00 00
	00		 call	 DWORD PTR __imp_??1?$basic_string@DU?$char_traits@D@std@@V?$allocator@D@2@@std@@QAE@XZ
  00a94	3b f4		 cmp	 esi, esp
  00a96	e8 00 00 00 00	 call	 __RTC_CheckEsp

; 124  : 
; 125  : 	::DeleteFile( strDes.c_str() );

  00a9b	8b f4		 mov	 esi, esp
  00a9d	8d 8d c4 fe ff
	ff		 lea	 ecx, DWORD PTR _strDes$[ebp]
  00aa3	ff 15 00 00 00
	00		 call	 DWORD PTR __imp_?c_str@?$basic_string@DU?$char_traits@D@std@@V?$allocator@D@2@@std@@QBEPBDXZ
  00aa9	3b f4		 cmp	 esi, esp
  00aab	e8 00 00 00 00	 call	 __RTC_CheckEsp
  00ab0	8b f4		 mov	 esi, esp
  00ab2	50		 push	 eax
  00ab3	ff 15 00 00 00
	00		 call	 DWORD PTR __imp__DeleteFileA@4
  00ab9	3b f4		 cmp	 esi, esp
  00abb	e8 00 00 00 00	 call	 __RTC_CheckEsp

; 126  : 	::DeleteFile( strDes1.c_str() );

  00ac0	8b f4		 mov	 esi, esp
  00ac2	8d 8d a0 fe ff
	ff		 lea	 ecx, DWORD PTR _strDes1$[ebp]
  00ac8	ff 15 00 00 00
	00		 call	 DWORD PTR __imp_?c_str@?$basic_string@DU?$char_traits@D@std@@V?$allocator@D@2@@std@@QBEPBDXZ
  00ace	3b f4		 cmp	 esi, esp
  00ad0	e8 00 00 00 00	 call	 __RTC_CheckEsp
  00ad5	8b f4		 mov	 esi, esp
  00ad7	50		 push	 eax
  00ad8	ff 15 00 00 00
	00		 call	 DWORD PTR __imp__DeleteFileA@4
  00ade	3b f4		 cmp	 esi, esp
  00ae0	e8 00 00 00 00	 call	 __RTC_CheckEsp

; 127  : 	return true;

  00ae5	c6 85 63 fe ff
	ff 01		 mov	 BYTE PTR $T188154[ebp], 1
  00aec	c6 45 fc 02	 mov	 BYTE PTR __$EHRec$[ebp+8], 2
  00af0	8b f4		 mov	 esi, esp
  00af2	8d 8d a0 fe ff
	ff		 lea	 ecx, DWORD PTR _strDes1$[ebp]
  00af8	ff 15 00 00 00
	00		 call	 DWORD PTR __imp_??1?$basic_string@DU?$char_traits@D@std@@V?$allocator@D@2@@std@@QAE@XZ
  00afe	3b f4		 cmp	 esi, esp
  00b00	e8 00 00 00 00	 call	 __RTC_CheckEsp
  00b05	c7 45 fc ff ff
	ff ff		 mov	 DWORD PTR __$EHRec$[ebp+8], -1
  00b0c	8b f4		 mov	 esi, esp
  00b0e	8d 8d c4 fe ff
	ff		 lea	 ecx, DWORD PTR _strDes$[ebp]
  00b14	ff 15 00 00 00
	00		 call	 DWORD PTR __imp_??1?$basic_string@DU?$char_traits@D@std@@V?$allocator@D@2@@std@@QAE@XZ
  00b1a	3b f4		 cmp	 esi, esp
  00b1c	e8 00 00 00 00	 call	 __RTC_CheckEsp
  00b21	8a 85 63 fe ff
	ff		 mov	 al, BYTE PTR $T188154[ebp]

; 128  : }

  00b27	52		 push	 edx
  00b28	8b cd		 mov	 ecx, ebp
  00b2a	50		 push	 eax
  00b2b	8d 15 00 00 00
	00		 lea	 edx, DWORD PTR $L188167
  00b31	e8 00 00 00 00	 call	 @_RTC_CheckStackVars@8
  00b36	58		 pop	 eax
  00b37	5a		 pop	 edx
  00b38	8b 4d f4	 mov	 ecx, DWORD PTR __$EHRec$[ebp]
  00b3b	64 89 0d 00 00
	00 00		 mov	 DWORD PTR fs:__except_list, ecx
  00b42	8b 4d f0	 mov	 ecx, DWORD PTR __$ArrayPad$[ebp]
  00b45	e8 00 00 00 00	 call	 @__security_check_cookie@4
  00b4a	5f		 pop	 edi
  00b4b	5e		 pop	 esi
  00b4c	81 c4 b0 01 00
	00		 add	 esp, 432		; 000001b0H
  00b52	3b ec		 cmp	 ebp, esp
  00b54	e8 00 00 00 00	 call	 __RTC_CheckEsp
  00b59	8b e5		 mov	 esp, ebp
  00b5b	5d		 pop	 ebp
  00b5c	c3		 ret	 0
$L188167:
  00b5d	03 00 00 00	 DD	 3
  00b61	00 00 00 00	 DD	 $L188166
$L188166:
  00b65	e8 fe ff ff	 DD	 -280			; fffffee8H
  00b69	04 01 00 00	 DD	 260			; 00000104H
  00b6d	00 00 00 00	 DD	 $L188161
  00b71	c4 fe ff ff	 DD	 -316			; fffffec4H
  00b75	1c 00 00 00	 DD	 28			; 0000001cH
  00b79	00 00 00 00	 DD	 $L188162
  00b7d	a0 fe ff ff	 DD	 -352			; fffffea0H
  00b81	1c 00 00 00	 DD	 28			; 0000001cH
  00b85	00 00 00 00	 DD	 $L188163
$L188163:
  00b89	73		 DB	 115			; 00000073H
  00b8a	74		 DB	 116			; 00000074H
  00b8b	72		 DB	 114			; 00000072H
  00b8c	44		 DB	 68			; 00000044H
  00b8d	65		 DB	 101			; 00000065H
  00b8e	73		 DB	 115			; 00000073H
  00b8f	31		 DB	 49			; 00000031H
  00b90	00		 DB	 0
$L188162:
  00b91	73		 DB	 115			; 00000073H
  00b92	74		 DB	 116			; 00000074H
  00b93	72		 DB	 114			; 00000072H
  00b94	44		 DB	 68			; 00000044H
  00b95	65		 DB	 101			; 00000065H
  00b96	73		 DB	 115			; 00000073H
  00b97	00		 DB	 0
$L188161:
  00b98	73		 DB	 115			; 00000073H
  00b99	7a		 DB	 122			; 0000007aH
  00b9a	54		 DB	 84			; 00000054H
  00b9b	65		 DB	 101			; 00000065H
  00b9c	6d		 DB	 109			; 0000006dH
  00b9d	70		 DB	 112			; 00000070H
  00b9e	50		 DB	 80			; 00000050H
  00b9f	61		 DB	 97			; 00000061H
  00ba0	74		 DB	 116			; 00000074H
  00ba1	68		 DB	 104			; 00000068H
  00ba2	00		 DB	 0
_TEXT	ENDS
text$x	SEGMENT
$L188155:
  000f0	8b f4		 mov	 esi, esp
  000f2	8d 8d 80 fe ff
	ff		 lea	 ecx, DWORD PTR $T188152[ebp]
  000f8	ff 15 00 00 00
	00		 call	 DWORD PTR __imp_??1?$basic_string@DU?$char_traits@D@std@@V?$allocator@D@2@@std@@QAE@XZ
  000fe	3b f4		 cmp	 esi, esp
  00100	e9 00 00 00 00	 jmp	 __RTC_CheckEsp
$L188156:
  00105	8b f4		 mov	 esi, esp
  00107	8d 8d c4 fe ff
	ff		 lea	 ecx, DWORD PTR _strDes$[ebp]
  0010d	ff 15 00 00 00
	00		 call	 DWORD PTR __imp_??1?$basic_string@DU?$char_traits@D@std@@V?$allocator@D@2@@std@@QAE@XZ
  00113	3b f4		 cmp	 esi, esp
  00115	e9 00 00 00 00	 jmp	 __RTC_CheckEsp
$L188157:
  0011a	8b f4		 mov	 esi, esp
  0011c	8d 8d 64 fe ff
	ff		 lea	 ecx, DWORD PTR $T188153[ebp]
  00122	ff 15 00 00 00
	00		 call	 DWORD PTR __imp_??1?$basic_string@DU?$char_traits@D@std@@V?$allocator@D@2@@std@@QAE@XZ
  00128	3b f4		 cmp	 esi, esp
  0012a	e9 00 00 00 00	 jmp	 __RTC_CheckEsp
$L188158:
  0012f	8b f4		 mov	 esi, esp
  00131	8d 8d a0 fe ff
	ff		 lea	 ecx, DWORD PTR _strDes1$[ebp]
  00137	ff 15 00 00 00
	00		 call	 DWORD PTR __imp_??1?$basic_string@DU?$char_traits@D@std@@V?$allocator@D@2@@std@@QAE@XZ
  0013d	3b f4		 cmp	 esi, esp
  0013f	e9 00 00 00 00	 jmp	 __RTC_CheckEsp
__ehhandler$?DelSkinXml@GlobalFunc@@SA_NXZ:
  00144	b8 00 00 00 00	 mov	 eax, OFFSET FLAT:$T188160
  00149	e9 00 00 00 00	 jmp	 ___CxxFrameHandler
text$x	ENDS
?DelSkinXml@GlobalFunc@@SA_NXZ ENDP			; GlobalFunc::DelSkinXml
PUBLIC	?_Buy@?$vector@V?$basic_string@DU?$char_traits@D@std@@V?$allocator@D@2@@std@@V?$allocator@V?$basic_string@DU?$char_traits@D@std@@V?$allocator@D@2@@std@@@2@@std@@IAE_NI@Z ; std::vector<std::basic_string<char,std::char_traits<char>,std::allocator<char> >,std::allocator<std::basic_string<char,std::char_traits<char>,std::allocator<char> > > >::_Buy
PUBLIC	??0?$allocator@V?$basic_string@DU?$char_traits@D@std@@V?$allocator@D@2@@std@@@std@@QAE@XZ ; std::allocator<std::basic_string<char,std::char_traits<char>,std::allocator<char> > >::allocator<std::basic_string<char,std::char_traits<char>,std::allocator<char> > >
PUBLIC	??0?$_Vector_val@V?$basic_string@DU?$char_traits@D@std@@V?$allocator@D@2@@std@@V?$allocator@V?$basic_string@DU?$char_traits@D@std@@V?$allocator@D@2@@std@@@2@@std@@IAE@V?$allocator@V?$basic_string@DU?$char_traits@D@std@@V?$allocator@D@2@@std@@@1@@Z ; std::_Vector_val<std::basic_string<char,std::char_traits<char>,std::allocator<char> >,std::allocator<std::basic_string<char,std::char_traits<char>,std::allocator<char> > > >::_Vector_val<std::basic_string<char,std::char_traits<char>,std::allocator<char> >,std::allocator<std::basic_string<char,std::char_traits<char>,std::allocator<char> > > >
; Function compile flags: /Odt /RTCsu
; File d:\program files (x86)\microsoft visual studio .net 2003\vc7\include\vector
;	COMDAT ??0?$vector@V?$basic_string@DU?$char_traits@D@std@@V?$allocator@D@2@@std@@V?$allocator@V?$basic_string@DU?$char_traits@D@std@@V?$allocator@D@2@@std@@@2@@std@@QAE@XZ
_TEXT	SEGMENT
_this$ = -4						; size = 4
??0?$vector@V?$basic_string@DU?$char_traits@D@std@@V?$allocator@D@2@@std@@V?$allocator@V?$basic_string@DU?$char_traits@D@std@@V?$allocator@D@2@@std@@@2@@std@@QAE@XZ PROC NEAR ; std::vector<std::basic_string<char,std::char_traits<char>,std::allocator<char> >,std::allocator<std::basic_string<char,std::char_traits<char>,std::allocator<char> > > >::vector<std::basic_string<char,std::char_traits<char>,std::allocator<char> >,std::allocator<std::basic_string<char,std::char_traits<char>,std::allocator<char> > > >, COMDAT
; _this$ = ecx

; 299  : 		{	// construct empty vector

  00000	55		 push	 ebp
  00001	8b ec		 mov	 ebp, esp
  00003	83 ec 08	 sub	 esp, 8
  00006	c7 45 f8 cc cc
	cc cc		 mov	 DWORD PTR [ebp-8], -858993460 ; ccccccccH
  0000d	c7 45 fc cc cc
	cc cc		 mov	 DWORD PTR [ebp-4], -858993460 ; ccccccccH
  00014	89 4d fc	 mov	 DWORD PTR _this$[ebp], ecx
  00017	51		 push	 ecx
  00018	8b cc		 mov	 ecx, esp
  0001a	e8 00 00 00 00	 call	 ??0?$allocator@V?$basic_string@DU?$char_traits@D@std@@V?$allocator@D@2@@std@@@std@@QAE@XZ ; std::allocator<std::basic_string<char,std::char_traits<char>,std::allocator<char> > >::allocator<std::basic_string<char,std::char_traits<char>,std::allocator<char> > >
  0001f	8b 4d fc	 mov	 ecx, DWORD PTR _this$[ebp]
  00022	e8 00 00 00 00	 call	 ??0?$_Vector_val@V?$basic_string@DU?$char_traits@D@std@@V?$allocator@D@2@@std@@V?$allocator@V?$basic_string@DU?$char_traits@D@std@@V?$allocator@D@2@@std@@@2@@std@@IAE@V?$allocator@V?$basic_string@DU?$char_traits@D@std@@V?$allocator@D@2@@std@@@1@@Z ; std::_Vector_val<std::basic_string<char,std::char_traits<char>,std::allocator<char> >,std::allocator<std::basic_string<char,std::char_traits<char>,std::allocator<char> > > >::_Vector_val<std::basic_string<char,std::char_traits<char>,std::allocator<char> >,std::allocator<std::basic_string<char,std::char_traits<char>,std::allocator<char> > > >

; 300  : 		_Buy(0);

  00027	6a 00		 push	 0
  00029	8b 4d fc	 mov	 ecx, DWORD PTR _this$[ebp]
  0002c	e8 00 00 00 00	 call	 ?_Buy@?$vector@V?$basic_string@DU?$char_traits@D@std@@V?$allocator@D@2@@std@@V?$allocator@V?$basic_string@DU?$char_traits@D@std@@V?$allocator@D@2@@std@@@2@@std@@IAE_NI@Z ; std::vector<std::basic_string<char,std::char_traits<char>,std::allocator<char> >,std::allocator<std::basic_string<char,std::char_traits<char>,std::allocator<char> > > >::_Buy

; 301  : 		}

  00031	8b 45 fc	 mov	 eax, DWORD PTR _this$[ebp]
  00034	83 c4 08	 add	 esp, 8
  00037	3b ec		 cmp	 ebp, esp
  00039	e8 00 00 00 00	 call	 __RTC_CheckEsp
  0003e	8b e5		 mov	 esp, ebp
  00040	5d		 pop	 ebp
  00041	c3		 ret	 0
??0?$vector@V?$basic_string@DU?$char_traits@D@std@@V?$allocator@D@2@@std@@V?$allocator@V?$basic_string@DU?$char_traits@D@std@@V?$allocator@D@2@@std@@@2@@std@@QAE@XZ ENDP ; std::vector<std::basic_string<char,std::char_traits<char>,std::allocator<char> >,std::allocator<std::basic_string<char,std::char_traits<char>,std::allocator<char> > > >::vector<std::basic_string<char,std::char_traits<char>,std::allocator<char> >,std::allocator<std::basic_string<char,std::char_traits<char>,std::allocator<char> > > >
_TEXT	ENDS
PUBLIC	?_Tidy@?$vector@V?$basic_string@DU?$char_traits@D@std@@V?$allocator@D@2@@std@@V?$allocator@V?$basic_string@DU?$char_traits@D@std@@V?$allocator@D@2@@std@@@2@@std@@IAEXXZ ; std::vector<std::basic_string<char,std::char_traits<char>,std::allocator<char> >,std::allocator<std::basic_string<char,std::char_traits<char>,std::allocator<char> > > >::_Tidy
; Function compile flags: /Odt /RTCsu
;	COMDAT ??1?$vector@V?$basic_string@DU?$char_traits@D@std@@V?$allocator@D@2@@std@@V?$allocator@V?$basic_string@DU?$char_traits@D@std@@V?$allocator@D@2@@std@@@2@@std@@QAE@XZ
_TEXT	SEGMENT
_this$ = -4						; size = 4
??1?$vector@V?$basic_string@DU?$char_traits@D@std@@V?$allocator@D@2@@std@@V?$allocator@V?$basic_string@DU?$char_traits@D@std@@V?$allocator@D@2@@std@@@2@@std@@QAE@XZ PROC NEAR ; std::vector<std::basic_string<char,std::char_traits<char>,std::allocator<char> >,std::allocator<std::basic_string<char,std::char_traits<char>,std::allocator<char> > > >::~vector<std::basic_string<char,std::char_traits<char>,std::allocator<char> >,std::allocator<std::basic_string<char,std::char_traits<char>,std::allocator<char> > > >, COMDAT
; _this$ = ecx

; 387  : 		{	// destroy the object

  00000	55		 push	 ebp
  00001	8b ec		 mov	 ebp, esp
  00003	51		 push	 ecx
  00004	c7 45 fc cc cc
	cc cc		 mov	 DWORD PTR [ebp-4], -858993460 ; ccccccccH
  0000b	89 4d fc	 mov	 DWORD PTR _this$[ebp], ecx

; 388  : 		_Tidy();

  0000e	8b 4d fc	 mov	 ecx, DWORD PTR _this$[ebp]
  00011	e8 00 00 00 00	 call	 ?_Tidy@?$vector@V?$basic_string@DU?$char_traits@D@std@@V?$allocator@D@2@@std@@V?$allocator@V?$basic_string@DU?$char_traits@D@std@@V?$allocator@D@2@@std@@@2@@std@@IAEXXZ ; std::vector<std::basic_string<char,std::char_traits<char>,std::allocator<char> >,std::allocator<std::basic_string<char,std::char_traits<char>,std::allocator<char> > > >::_Tidy

; 389  : 		}

  00016	83 c4 04	 add	 esp, 4
  00019	3b ec		 cmp	 ebp, esp
  0001b	e8 00 00 00 00	 call	 __RTC_CheckEsp
  00020	8b e5		 mov	 esp, ebp
  00022	5d		 pop	 ebp
  00023	c3		 ret	 0
??1?$vector@V?$basic_string@DU?$char_traits@D@std@@V?$allocator@D@2@@std@@V?$allocator@V?$basic_string@DU?$char_traits@D@std@@V?$allocator@D@2@@std@@@2@@std@@QAE@XZ ENDP ; std::vector<std::basic_string<char,std::char_traits<char>,std::allocator<char> >,std::allocator<std::basic_string<char,std::char_traits<char>,std::allocator<char> > > >::~vector<std::basic_string<char,std::char_traits<char>,std::allocator<char> >,std::allocator<std::basic_string<char,std::char_traits<char>,std::allocator<char> > > >
; Function compile flags: /Odt /RTCsu
; File d:\program files (x86)\microsoft visual studio .net 2003\vc7\include\xmemory
_TEXT	ENDS
;	COMDAT ??0?$allocator@V?$basic_string@DU?$char_traits@D@std@@V?$allocator@D@2@@std@@@std@@QAE@XZ
_TEXT	SEGMENT
_this$ = -4						; size = 4
??0?$allocator@V?$basic_string@DU?$char_traits@D@std@@V?$allocator@D@2@@std@@@std@@QAE@XZ PROC NEAR ; std::allocator<std::basic_string<char,std::char_traits<char>,std::allocator<char> > >::allocator<std::basic_string<char,std::char_traits<char>,std::allocator<char> > >, COMDAT
; _this$ = ecx

; 111  : 	allocator()

  00000	55		 push	 ebp
  00001	8b ec		 mov	 ebp, esp
  00003	51		 push	 ecx
  00004	c7 45 fc cc cc
	cc cc		 mov	 DWORD PTR [ebp-4], -858993460 ; ccccccccH
  0000b	89 4d fc	 mov	 DWORD PTR _this$[ebp], ecx

; 112  : 		{	// construct default allocator (do nothing)
; 113  : 		}

  0000e	8b 45 fc	 mov	 eax, DWORD PTR _this$[ebp]
  00011	8b e5		 mov	 esp, ebp
  00013	5d		 pop	 ebp
  00014	c3		 ret	 0
??0?$allocator@V?$basic_string@DU?$char_traits@D@std@@V?$allocator@D@2@@std@@@std@@QAE@XZ ENDP ; std::allocator<std::basic_string<char,std::char_traits<char>,std::allocator<char> > >::allocator<std::basic_string<char,std::char_traits<char>,std::allocator<char> > >
_TEXT	ENDS
PUBLIC	?_Xlen@?$vector@V?$basic_string@DU?$char_traits@D@std@@V?$allocator@D@2@@std@@V?$allocator@V?$basic_string@DU?$char_traits@D@std@@V?$allocator@D@2@@std@@@2@@std@@IBEXXZ ; std::vector<std::basic_string<char,std::char_traits<char>,std::allocator<char> >,std::allocator<std::basic_string<char,std::char_traits<char>,std::allocator<char> > > >::_Xlen
PUBLIC	?allocate@?$allocator@V?$basic_string@DU?$char_traits@D@std@@V?$allocator@D@2@@std@@@std@@QAEPAV?$basic_string@DU?$char_traits@D@std@@V?$allocator@D@2@@2@I@Z ; std::allocator<std::basic_string<char,std::char_traits<char>,std::allocator<char> > >::allocate
PUBLIC	?max_size@?$vector@V?$basic_string@DU?$char_traits@D@std@@V?$allocator@D@2@@std@@V?$allocator@V?$basic_string@DU?$char_traits@D@std@@V?$allocator@D@2@@std@@@2@@std@@QBEIXZ ; std::vector<std::basic_string<char,std::char_traits<char>,std::allocator<char> >,std::allocator<std::basic_string<char,std::char_traits<char>,std::allocator<char> > > >::max_size
; Function compile flags: /Odt /RTCsu
; File d:\program files (x86)\microsoft visual studio .net 2003\vc7\include\vector
;	COMDAT ?_Buy@?$vector@V?$basic_string@DU?$char_traits@D@std@@V?$allocator@D@2@@std@@V?$allocator@V?$basic_string@DU?$char_traits@D@std@@V?$allocator@D@2@@std@@@2@@std@@IAE_NI@Z
_TEXT	SEGMENT
_this$ = -4						; size = 4
__Capacity$ = 8						; size = 4
?_Buy@?$vector@V?$basic_string@DU?$char_traits@D@std@@V?$allocator@D@2@@std@@V?$allocator@V?$basic_string@DU?$char_traits@D@std@@V?$allocator@D@2@@std@@@2@@std@@IAE_NI@Z PROC NEAR ; std::vector<std::basic_string<char,std::char_traits<char>,std::allocator<char> >,std::allocator<std::basic_string<char,std::char_traits<char>,std::allocator<char> > > >::_Buy, COMDAT
; _this$ = ecx

; 770  : 		{	// allocate array with _Capacity elements

  00000	55		 push	 ebp
  00001	8b ec		 mov	 ebp, esp
  00003	51		 push	 ecx
  00004	c7 45 fc cc cc
	cc cc		 mov	 DWORD PTR [ebp-4], -858993460 ; ccccccccH
  0000b	89 4d fc	 mov	 DWORD PTR _this$[ebp], ecx

; 771  : 		_Myfirst = 0, _Mylast = 0, _Myend = 0;

  0000e	8b 45 fc	 mov	 eax, DWORD PTR _this$[ebp]
  00011	c7 40 04 00 00
	00 00		 mov	 DWORD PTR [eax+4], 0
  00018	8b 4d fc	 mov	 ecx, DWORD PTR _this$[ebp]
  0001b	c7 41 08 00 00
	00 00		 mov	 DWORD PTR [ecx+8], 0
  00022	8b 55 fc	 mov	 edx, DWORD PTR _this$[ebp]
  00025	c7 42 0c 00 00
	00 00		 mov	 DWORD PTR [edx+12], 0

; 772  : 		if (_Capacity == 0)

  0002c	83 7d 08 00	 cmp	 DWORD PTR __Capacity$[ebp], 0
  00030	75 04		 jne	 SHORT $L187570

; 773  : 			return (false);

  00032	32 c0		 xor	 al, al
  00034	eb 49		 jmp	 SHORT $L187569
$L187570:

; 774  : 		else if (max_size() < _Capacity)

  00036	8b 4d fc	 mov	 ecx, DWORD PTR _this$[ebp]
  00039	e8 00 00 00 00	 call	 ?max_size@?$vector@V?$basic_string@DU?$char_traits@D@std@@V?$allocator@D@2@@std@@V?$allocator@V?$basic_string@DU?$char_traits@D@std@@V?$allocator@D@2@@std@@@2@@std@@QBEIXZ ; std::vector<std::basic_string<char,std::char_traits<char>,std::allocator<char> >,std::allocator<std::basic_string<char,std::char_traits<char>,std::allocator<char> > > >::max_size
  0003e	3b 45 08	 cmp	 eax, DWORD PTR __Capacity$[ebp]
  00041	73 0a		 jae	 SHORT $L187572

; 775  : 			_Xlen();	// result too long

  00043	8b 4d fc	 mov	 ecx, DWORD PTR _this$[ebp]
  00046	e8 00 00 00 00	 call	 ?_Xlen@?$vector@V?$basic_string@DU?$char_traits@D@std@@V?$allocator@D@2@@std@@V?$allocator@V?$basic_string@DU?$char_traits@D@std@@V?$allocator@D@2@@std@@@2@@std@@IBEXXZ ; std::vector<std::basic_string<char,std::char_traits<char>,std::allocator<char> >,std::allocator<std::basic_string<char,std::char_traits<char>,std::allocator<char> > > >::_Xlen

; 776  : 		else

  0004b	eb 30		 jmp	 SHORT $L187571
$L187572:

; 777  : 			{	// nonempty array, allocate storage
; 778  : 			_Myfirst = this->_Alval.allocate(_Capacity);

  0004d	8b 45 08	 mov	 eax, DWORD PTR __Capacity$[ebp]
  00050	50		 push	 eax
  00051	8b 4d fc	 mov	 ecx, DWORD PTR _this$[ebp]
  00054	e8 00 00 00 00	 call	 ?allocate@?$allocator@V?$basic_string@DU?$char_traits@D@std@@V?$allocator@D@2@@std@@@std@@QAEPAV?$basic_string@DU?$char_traits@D@std@@V?$allocator@D@2@@2@I@Z ; std::allocator<std::basic_string<char,std::char_traits<char>,std::allocator<char> > >::allocate
  00059	8b 4d fc	 mov	 ecx, DWORD PTR _this$[ebp]
  0005c	89 41 04	 mov	 DWORD PTR [ecx+4], eax

; 779  : 			_Mylast = _Myfirst;

  0005f	8b 55 fc	 mov	 edx, DWORD PTR _this$[ebp]
  00062	8b 45 fc	 mov	 eax, DWORD PTR _this$[ebp]
  00065	8b 48 04	 mov	 ecx, DWORD PTR [eax+4]
  00068	89 4a 08	 mov	 DWORD PTR [edx+8], ecx

; 780  : 			_Myend = _Myfirst + _Capacity;

  0006b	8b 55 08	 mov	 edx, DWORD PTR __Capacity$[ebp]
  0006e	6b d2 1c	 imul	 edx, 28			; 0000001cH
  00071	8b 45 fc	 mov	 eax, DWORD PTR _this$[ebp]
  00074	03 50 04	 add	 edx, DWORD PTR [eax+4]
  00077	8b 4d fc	 mov	 ecx, DWORD PTR _this$[ebp]
  0007a	89 51 0c	 mov	 DWORD PTR [ecx+12], edx
$L187571:

; 781  : 			}
; 782  : 		return (true);

  0007d	b0 01		 mov	 al, 1
$L187569:

; 783  : 		}

  0007f	83 c4 04	 add	 esp, 4
  00082	3b ec		 cmp	 ebp, esp
  00084	e8 00 00 00 00	 call	 __RTC_CheckEsp
  00089	8b e5		 mov	 esp, ebp
  0008b	5d		 pop	 ebp
  0008c	c2 04 00	 ret	 4
?_Buy@?$vector@V?$basic_string@DU?$char_traits@D@std@@V?$allocator@D@2@@std@@V?$allocator@V?$basic_string@DU?$char_traits@D@std@@V?$allocator@D@2@@std@@@2@@std@@IAE_NI@Z ENDP ; std::vector<std::basic_string<char,std::char_traits<char>,std::allocator<char> >,std::allocator<std::basic_string<char,std::char_traits<char>,std::allocator<char> > > >::_Buy
_TEXT	ENDS
PUBLIC	?_Destroy@?$vector@V?$basic_string@DU?$char_traits@D@std@@V?$allocator@D@2@@std@@V?$allocator@V?$basic_string@DU?$char_traits@D@std@@V?$allocator@D@2@@std@@@2@@std@@IAEXPAV?$basic_string@DU?$char_traits@D@std@@V?$allocator@D@2@@2@0@Z ; std::vector<std::basic_string<char,std::char_traits<char>,std::allocator<char> >,std::allocator<std::basic_string<char,std::char_traits<char>,std::allocator<char> > > >::_Destroy
PUBLIC	?deallocate@?$allocator@V?$basic_string@DU?$char_traits@D@std@@V?$allocator@D@2@@std@@@std@@QAEXPAV?$basic_string@DU?$char_traits@D@std@@V?$allocator@D@2@@2@I@Z ; std::allocator<std::basic_string<char,std::char_traits<char>,std::allocator<char> > >::deallocate
; Function compile flags: /Odt /RTCsu
;	COMDAT ?_Tidy@?$vector@V?$basic_string@DU?$char_traits@D@std@@V?$allocator@D@2@@std@@V?$allocator@V?$basic_string@DU?$char_traits@D@std@@V?$allocator@D@2@@std@@@2@@std@@IAEXXZ
_TEXT	SEGMENT
_this$ = -4						; size = 4
?_Tidy@?$vector@V?$basic_string@DU?$char_traits@D@std@@V?$allocator@D@2@@std@@V?$allocator@V?$basic_string@DU?$char_traits@D@std@@V?$allocator@D@2@@std@@@2@@std@@IAEXXZ PROC NEAR ; std::vector<std::basic_string<char,std::char_traits<char>,std::allocator<char> >,std::allocator<std::basic_string<char,std::char_traits<char>,std::allocator<char> > > >::_Tidy, COMDAT
; _this$ = ecx

; 791  : 		{	// free all storage

  00000	55		 push	 ebp
  00001	8b ec		 mov	 ebp, esp
  00003	51		 push	 ecx
  00004	c7 45 fc cc cc
	cc cc		 mov	 DWORD PTR [ebp-4], -858993460 ; ccccccccH
  0000b	89 4d fc	 mov	 DWORD PTR _this$[ebp], ecx

; 792  : 		if (_Myfirst != 0)

  0000e	8b 45 fc	 mov	 eax, DWORD PTR _this$[ebp]
  00011	83 78 04 00	 cmp	 DWORD PTR [eax+4], 0
  00015	74 3c		 je	 SHORT $L187576

; 793  : 			{	// something to free, destroy and deallocate it
; 794  : 			_Destroy(_Myfirst, _Mylast);

  00017	8b 4d fc	 mov	 ecx, DWORD PTR _this$[ebp]
  0001a	8b 51 08	 mov	 edx, DWORD PTR [ecx+8]
  0001d	52		 push	 edx
  0001e	8b 45 fc	 mov	 eax, DWORD PTR _this$[ebp]
  00021	8b 48 04	 mov	 ecx, DWORD PTR [eax+4]
  00024	51		 push	 ecx
  00025	8b 4d fc	 mov	 ecx, DWORD PTR _this$[ebp]
  00028	e8 00 00 00 00	 call	 ?_Destroy@?$vector@V?$basic_string@DU?$char_traits@D@std@@V?$allocator@D@2@@std@@V?$allocator@V?$basic_string@DU?$char_traits@D@std@@V?$allocator@D@2@@std@@@2@@std@@IAEXPAV?$basic_string@DU?$char_traits@D@std@@V?$allocator@D@2@@2@0@Z ; std::vector<std::basic_string<char,std::char_traits<char>,std::allocator<char> >,std::allocator<std::basic_string<char,std::char_traits<char>,std::allocator<char> > > >::_Destroy

; 795  : 			this->_Alval.deallocate(_Myfirst, _Myend - _Myfirst);

  0002d	8b 55 fc	 mov	 edx, DWORD PTR _this$[ebp]
  00030	8b 45 fc	 mov	 eax, DWORD PTR _this$[ebp]
  00033	8b 4a 0c	 mov	 ecx, DWORD PTR [edx+12]
  00036	2b 48 04	 sub	 ecx, DWORD PTR [eax+4]
  00039	8b c1		 mov	 eax, ecx
  0003b	99		 cdq
  0003c	b9 1c 00 00 00	 mov	 ecx, 28			; 0000001cH
  00041	f7 f9		 idiv	 ecx
  00043	50		 push	 eax
  00044	8b 55 fc	 mov	 edx, DWORD PTR _this$[ebp]
  00047	8b 42 04	 mov	 eax, DWORD PTR [edx+4]
  0004a	50		 push	 eax
  0004b	8b 4d fc	 mov	 ecx, DWORD PTR _this$[ebp]
  0004e	e8 00 00 00 00	 call	 ?deallocate@?$allocator@V?$basic_string@DU?$char_traits@D@std@@V?$allocator@D@2@@std@@@std@@QAEXPAV?$basic_string@DU?$char_traits@D@std@@V?$allocator@D@2@@2@I@Z ; std::allocator<std::basic_string<char,std::char_traits<char>,std::allocator<char> > >::deallocate
$L187576:

; 796  : 			}
; 797  : 		_Myfirst = 0, _Mylast = 0, _Myend = 0;

  00053	8b 4d fc	 mov	 ecx, DWORD PTR _this$[ebp]
  00056	c7 41 04 00 00
	00 00		 mov	 DWORD PTR [ecx+4], 0
  0005d	8b 55 fc	 mov	 edx, DWORD PTR _this$[ebp]
  00060	c7 42 08 00 00
	00 00		 mov	 DWORD PTR [edx+8], 0
  00067	8b 45 fc	 mov	 eax, DWORD PTR _this$[ebp]
  0006a	c7 40 0c 00 00
	00 00		 mov	 DWORD PTR [eax+12], 0

; 798  : 		}

  00071	83 c4 04	 add	 esp, 4
  00074	3b ec		 cmp	 ebp, esp
  00076	e8 00 00 00 00	 call	 __RTC_CheckEsp
  0007b	8b e5		 mov	 esp, ebp
  0007d	5d		 pop	 ebp
  0007e	c3		 ret	 0
?_Tidy@?$vector@V?$basic_string@DU?$char_traits@D@std@@V?$allocator@D@2@@std@@V?$allocator@V?$basic_string@DU?$char_traits@D@std@@V?$allocator@D@2@@std@@@2@@std@@IAEXXZ ENDP ; std::vector<std::basic_string<char,std::char_traits<char>,std::allocator<char> >,std::allocator<std::basic_string<char,std::char_traits<char>,std::allocator<char> > > >::_Tidy
_TEXT	ENDS
PUBLIC	??0?$allocator@V?$basic_string@DU?$char_traits@D@std@@V?$allocator@D@2@@std@@@std@@QAE@ABV01@@Z ; std::allocator<std::basic_string<char,std::char_traits<char>,std::allocator<char> > >::allocator<std::basic_string<char,std::char_traits<char>,std::allocator<char> > >
; Function compile flags: /Odt /RTCsu
;	COMDAT ??0?$_Vector_val@V?$basic_string@DU?$char_traits@D@std@@V?$allocator@D@2@@std@@V?$allocator@V?$basic_string@DU?$char_traits@D@std@@V?$allocator@D@2@@std@@@2@@std@@IAE@V?$allocator@V?$basic_string@DU?$char_traits@D@std@@V?$allocator@D@2@@std@@@1@@Z
_TEXT	SEGMENT
_this$ = -4						; size = 4
__Al$ = 8						; size = 1
??0?$_Vector_val@V?$basic_string@DU?$char_traits@D@std@@V?$allocator@D@2@@std@@V?$allocator@V?$basic_string@DU?$char_traits@D@std@@V?$allocator@D@2@@std@@@2@@std@@IAE@V?$allocator@V?$basic_string@DU?$char_traits@D@std@@V?$allocator@D@2@@std@@@1@@Z PROC NEAR ; std::_Vector_val<std::basic_string<char,std::char_traits<char>,std::allocator<char> >,std::allocator<std::basic_string<char,std::char_traits<char>,std::allocator<char> > > >::_Vector_val<std::basic_string<char,std::char_traits<char>,std::allocator<char> >,std::allocator<std::basic_string<char,std::char_traits<char>,std::allocator<char> > > >, COMDAT
; _this$ = ecx

; 21   : 		{	// construct allocator from _Al

  00000	55		 push	 ebp
  00001	8b ec		 mov	 ebp, esp
  00003	51		 push	 ecx
  00004	c7 45 fc cc cc
	cc cc		 mov	 DWORD PTR [ebp-4], -858993460 ; ccccccccH
  0000b	89 4d fc	 mov	 DWORD PTR _this$[ebp], ecx
  0000e	8d 45 08	 lea	 eax, DWORD PTR __Al$[ebp]
  00011	50		 push	 eax
  00012	8b 4d fc	 mov	 ecx, DWORD PTR _this$[ebp]
  00015	e8 00 00 00 00	 call	 ??0?$allocator@V?$basic_string@DU?$char_traits@D@std@@V?$allocator@D@2@@std@@@std@@QAE@ABV01@@Z ; std::allocator<std::basic_string<char,std::char_traits<char>,std::allocator<char> > >::allocator<std::basic_string<char,std::char_traits<char>,std::allocator<char> > >

; 22   : 		}

  0001a	8b 45 fc	 mov	 eax, DWORD PTR _this$[ebp]
  0001d	83 c4 04	 add	 esp, 4
  00020	3b ec		 cmp	 ebp, esp
  00022	e8 00 00 00 00	 call	 __RTC_CheckEsp
  00027	8b e5		 mov	 esp, ebp
  00029	5d		 pop	 ebp
  0002a	c2 04 00	 ret	 4
??0?$_Vector_val@V?$basic_string@DU?$char_traits@D@std@@V?$allocator@D@2@@std@@V?$allocator@V?$basic_string@DU?$char_traits@D@std@@V?$allocator@D@2@@std@@@2@@std@@IAE@V?$allocator@V?$basic_string@DU?$char_traits@D@std@@V?$allocator@D@2@@std@@@1@@Z ENDP ; std::_Vector_val<std::basic_string<char,std::char_traits<char>,std::allocator<char> >,std::allocator<std::basic_string<char,std::char_traits<char>,std::allocator<char> > > >::_Vector_val<std::basic_string<char,std::char_traits<char>,std::allocator<char> >,std::allocator<std::basic_string<char,std::char_traits<char>,std::allocator<char> > > >
; Function compile flags: /Odt /RTCsu
; File d:\program files (x86)\microsoft visual studio .net 2003\vc7\include\xmemory
_TEXT	ENDS
;	COMDAT ??0?$allocator@V?$basic_string@DU?$char_traits@D@std@@V?$allocator@D@2@@std@@@std@@QAE@ABV01@@Z
_TEXT	SEGMENT
_this$ = -4						; size = 4
___formal$ = 8						; size = 4
??0?$allocator@V?$basic_string@DU?$char_traits@D@std@@V?$allocator@D@2@@std@@@std@@QAE@ABV01@@Z PROC NEAR ; std::allocator<std::basic_string<char,std::char_traits<char>,std::allocator<char> > >::allocator<std::basic_string<char,std::char_traits<char>,std::allocator<char> > >, COMDAT
; _this$ = ecx

; 115  : 	allocator(const allocator<_Ty>&)

  00000	55		 push	 ebp
  00001	8b ec		 mov	 ebp, esp
  00003	51		 push	 ecx
  00004	c7 45 fc cc cc
	cc cc		 mov	 DWORD PTR [ebp-4], -858993460 ; ccccccccH
  0000b	89 4d fc	 mov	 DWORD PTR _this$[ebp], ecx

; 116  : 		{	// construct by copying (do nothing)
; 117  : 		}

  0000e	8b 45 fc	 mov	 eax, DWORD PTR _this$[ebp]
  00011	8b e5		 mov	 esp, ebp
  00013	5d		 pop	 ebp
  00014	c2 04 00	 ret	 4
??0?$allocator@V?$basic_string@DU?$char_traits@D@std@@V?$allocator@D@2@@std@@@std@@QAE@ABV01@@Z ENDP ; std::allocator<std::basic_string<char,std::char_traits<char>,std::allocator<char> > >::allocator<std::basic_string<char,std::char_traits<char>,std::allocator<char> > >
_TEXT	ENDS
EXTRN	??3@YAXPAX@Z:NEAR				; operator delete
; Function compile flags: /Odt /RTCsu
;	COMDAT ?deallocate@?$allocator@V?$basic_string@DU?$char_traits@D@std@@V?$allocator@D@2@@std@@@std@@QAEXPAV?$basic_string@DU?$char_traits@D@std@@V?$allocator@D@2@@2@I@Z
_TEXT	SEGMENT
_this$ = -4						; size = 4
__Ptr$ = 8						; size = 4
___formal$ = 12						; size = 4
?deallocate@?$allocator@V?$basic_string@DU?$char_traits@D@std@@V?$allocator@D@2@@std@@@std@@QAEXPAV?$basic_string@DU?$char_traits@D@std@@V?$allocator@D@2@@2@I@Z PROC NEAR ; std::allocator<std::basic_string<char,std::char_traits<char>,std::allocator<char> > >::deallocate, COMDAT
; _this$ = ecx

; 131  : 		{	// deallocate object at _Ptr, ignore size

  00000	55		 push	 ebp
  00001	8b ec		 mov	 ebp, esp
  00003	51		 push	 ecx
  00004	c7 45 fc cc cc
	cc cc		 mov	 DWORD PTR [ebp-4], -858993460 ; ccccccccH
  0000b	89 4d fc	 mov	 DWORD PTR _this$[ebp], ecx

; 132  : 		operator delete(_Ptr);

  0000e	8b 45 08	 mov	 eax, DWORD PTR __Ptr$[ebp]
  00011	50		 push	 eax
  00012	e8 00 00 00 00	 call	 ??3@YAXPAX@Z		; operator delete
  00017	83 c4 04	 add	 esp, 4

; 133  : 		}

  0001a	83 c4 04	 add	 esp, 4
  0001d	3b ec		 cmp	 ebp, esp
  0001f	e8 00 00 00 00	 call	 __RTC_CheckEsp
  00024	8b e5		 mov	 esp, ebp
  00026	5d		 pop	 ebp
  00027	c2 08 00	 ret	 8
?deallocate@?$allocator@V?$basic_string@DU?$char_traits@D@std@@V?$allocator@D@2@@std@@@std@@QAEXPAV?$basic_string@DU?$char_traits@D@std@@V?$allocator@D@2@@2@I@Z ENDP ; std::allocator<std::basic_string<char,std::char_traits<char>,std::allocator<char> > >::deallocate
_TEXT	ENDS
PUBLIC	??$_Allocate@V?$basic_string@DU?$char_traits@D@std@@V?$allocator@D@2@@std@@@std@@YAPAV?$basic_string@DU?$char_traits@D@std@@V?$allocator@D@2@@0@IPAV10@@Z ; std::_Allocate<std::basic_string<char,std::char_traits<char>,std::allocator<char> > >
; Function compile flags: /Odt /RTCsu
;	COMDAT ?allocate@?$allocator@V?$basic_string@DU?$char_traits@D@std@@V?$allocator@D@2@@std@@@std@@QAEPAV?$basic_string@DU?$char_traits@D@std@@V?$allocator@D@2@@2@I@Z
_TEXT	SEGMENT
_this$ = -4						; size = 4
__Count$ = 8						; size = 4
?allocate@?$allocator@V?$basic_string@DU?$char_traits@D@std@@V?$allocator@D@2@@std@@@std@@QAEPAV?$basic_string@DU?$char_traits@D@std@@V?$allocator@D@2@@2@I@Z PROC NEAR ; std::allocator<std::basic_string<char,std::char_traits<char>,std::allocator<char> > >::allocate, COMDAT
; _this$ = ecx

; 136  : 		{	// allocate array of _Count elements

  00000	55		 push	 ebp
  00001	8b ec		 mov	 ebp, esp
  00003	51		 push	 ecx
  00004	c7 45 fc cc cc
	cc cc		 mov	 DWORD PTR [ebp-4], -858993460 ; ccccccccH
  0000b	89 4d fc	 mov	 DWORD PTR _this$[ebp], ecx

; 137  : 		return (_Allocate(_Count, (pointer)0));

  0000e	6a 00		 push	 0
  00010	8b 45 08	 mov	 eax, DWORD PTR __Count$[ebp]
  00013	50		 push	 eax
  00014	e8 00 00 00 00	 call	 ??$_Allocate@V?$basic_string@DU?$char_traits@D@std@@V?$allocator@D@2@@std@@@std@@YAPAV?$basic_string@DU?$char_traits@D@std@@V?$allocator@D@2@@0@IPAV10@@Z ; std::_Allocate<std::basic_string<char,std::char_traits<char>,std::allocator<char> > >
  00019	83 c4 08	 add	 esp, 8

; 138  : 		}

  0001c	83 c4 04	 add	 esp, 4
  0001f	3b ec		 cmp	 ebp, esp
  00021	e8 00 00 00 00	 call	 __RTC_CheckEsp
  00026	8b e5		 mov	 esp, ebp
  00028	5d		 pop	 ebp
  00029	c2 04 00	 ret	 4
?allocate@?$allocator@V?$basic_string@DU?$char_traits@D@std@@V?$allocator@D@2@@std@@@std@@QAEPAV?$basic_string@DU?$char_traits@D@std@@V?$allocator@D@2@@2@I@Z ENDP ; std::allocator<std::basic_string<char,std::char_traits<char>,std::allocator<char> > >::allocate
_TEXT	ENDS
PUBLIC	?max_size@?$allocator@V?$basic_string@DU?$char_traits@D@std@@V?$allocator@D@2@@std@@@std@@QBEIXZ ; std::allocator<std::basic_string<char,std::char_traits<char>,std::allocator<char> > >::max_size
; Function compile flags: /Odt /RTCsu
; File d:\program files (x86)\microsoft visual studio .net 2003\vc7\include\vector
;	COMDAT ?max_size@?$vector@V?$basic_string@DU?$char_traits@D@std@@V?$allocator@D@2@@std@@V?$allocator@V?$basic_string@DU?$char_traits@D@std@@V?$allocator@D@2@@std@@@2@@std@@QBEIXZ
_TEXT	SEGMENT
_this$ = -4						; size = 4
?max_size@?$vector@V?$basic_string@DU?$char_traits@D@std@@V?$allocator@D@2@@std@@V?$allocator@V?$basic_string@DU?$char_traits@D@std@@V?$allocator@D@2@@std@@@2@@std@@QBEIXZ PROC NEAR ; std::vector<std::basic_string<char,std::char_traits<char>,std::allocator<char> >,std::allocator<std::basic_string<char,std::char_traits<char>,std::allocator<char> > > >::max_size, COMDAT
; _this$ = ecx

; 520  : 		{	// return maximum possible length of sequence

  00000	55		 push	 ebp
  00001	8b ec		 mov	 ebp, esp
  00003	51		 push	 ecx
  00004	c7 45 fc cc cc
	cc cc		 mov	 DWORD PTR [ebp-4], -858993460 ; ccccccccH
  0000b	89 4d fc	 mov	 DWORD PTR _this$[ebp], ecx

; 521  : 		return (this->_Alval.max_size());

  0000e	8b 4d fc	 mov	 ecx, DWORD PTR _this$[ebp]
  00011	e8 00 00 00 00	 call	 ?max_size@?$allocator@V?$basic_string@DU?$char_traits@D@std@@V?$allocator@D@2@@std@@@std@@QBEIXZ ; std::allocator<std::basic_string<char,std::char_traits<char>,std::allocator<char> > >::max_size

; 522  : 		}

  00016	83 c4 04	 add	 esp, 4
  00019	3b ec		 cmp	 ebp, esp
  0001b	e8 00 00 00 00	 call	 __RTC_CheckEsp
  00020	8b e5		 mov	 esp, ebp
  00022	5d		 pop	 ebp
  00023	c3		 ret	 0
?max_size@?$vector@V?$basic_string@DU?$char_traits@D@std@@V?$allocator@D@2@@std@@V?$allocator@V?$basic_string@DU?$char_traits@D@std@@V?$allocator@D@2@@std@@@2@@std@@QBEIXZ ENDP ; std::vector<std::basic_string<char,std::char_traits<char>,std::allocator<char> >,std::allocator<std::basic_string<char,std::char_traits<char>,std::allocator<char> > > >::max_size
_TEXT	ENDS
PUBLIC	??$_Destroy_range@V?$basic_string@DU?$char_traits@D@std@@V?$allocator@D@2@@std@@V?$allocator@V?$basic_string@DU?$char_traits@D@std@@V?$allocator@D@2@@std@@@2@@std@@YAXPAV?$basic_string@DU?$char_traits@D@std@@V?$allocator@D@2@@0@0AAV?$allocator@V?$basic_string@DU?$char_traits@D@std@@V?$allocator@D@2@@std@@@0@@Z ; std::_Destroy_range<std::basic_string<char,std::char_traits<char>,std::allocator<char> >,std::allocator<std::basic_string<char,std::char_traits<char>,std::allocator<char> > > >
; Function compile flags: /Odt /RTCsu
;	COMDAT ?_Destroy@?$vector@V?$basic_string@DU?$char_traits@D@std@@V?$allocator@D@2@@std@@V?$allocator@V?$basic_string@DU?$char_traits@D@std@@V?$allocator@D@2@@std@@@2@@std@@IAEXPAV?$basic_string@DU?$char_traits@D@std@@V?$allocator@D@2@@2@0@Z
_TEXT	SEGMENT
_this$ = -4						; size = 4
__First$ = 8						; size = 4
__Last$ = 12						; size = 4
?_Destroy@?$vector@V?$basic_string@DU?$char_traits@D@std@@V?$allocator@D@2@@std@@V?$allocator@V?$basic_string@DU?$char_traits@D@std@@V?$allocator@D@2@@std@@@2@@std@@IAEXPAV?$basic_string@DU?$char_traits@D@std@@V?$allocator@D@2@@2@0@Z PROC NEAR ; std::vector<std::basic_string<char,std::char_traits<char>,std::allocator<char> >,std::allocator<std::basic_string<char,std::char_traits<char>,std::allocator<char> > > >::_Destroy, COMDAT
; _this$ = ecx

; 786  : 		{	// destroy [_First, _Last) using allocator

  00000	55		 push	 ebp
  00001	8b ec		 mov	 ebp, esp
  00003	51		 push	 ecx
  00004	c7 45 fc cc cc
	cc cc		 mov	 DWORD PTR [ebp-4], -858993460 ; ccccccccH
  0000b	89 4d fc	 mov	 DWORD PTR _this$[ebp], ecx

; 787  : 		_Destroy_range(_First, _Last, this->_Alval);

  0000e	8b 45 fc	 mov	 eax, DWORD PTR _this$[ebp]
  00011	50		 push	 eax
  00012	8b 4d 0c	 mov	 ecx, DWORD PTR __Last$[ebp]
  00015	51		 push	 ecx
  00016	8b 55 08	 mov	 edx, DWORD PTR __First$[ebp]
  00019	52		 push	 edx
  0001a	e8 00 00 00 00	 call	 ??$_Destroy_range@V?$basic_string@DU?$char_traits@D@std@@V?$allocator@D@2@@std@@V?$allocator@V?$basic_string@DU?$char_traits@D@std@@V?$allocator@D@2@@std@@@2@@std@@YAXPAV?$basic_string@DU?$char_traits@D@std@@V?$allocator@D@2@@0@0AAV?$allocator@V?$basic_string@DU?$char_traits@D@std@@V?$allocator@D@2@@std@@@0@@Z ; std::_Destroy_range<std::basic_string<char,std::char_traits<char>,std::allocator<char> >,std::allocator<std::basic_string<char,std::char_traits<char>,std::allocator<char> > > >
  0001f	83 c4 0c	 add	 esp, 12			; 0000000cH

; 788  : 		}

  00022	83 c4 04	 add	 esp, 4
  00025	3b ec		 cmp	 ebp, esp
  00027	e8 00 00 00 00	 call	 __RTC_CheckEsp
  0002c	8b e5		 mov	 esp, ebp
  0002e	5d		 pop	 ebp
  0002f	c2 08 00	 ret	 8
?_Destroy@?$vector@V?$basic_string@DU?$char_traits@D@std@@V?$allocator@D@2@@std@@V?$allocator@V?$basic_string@DU?$char_traits@D@std@@V?$allocator@D@2@@std@@@2@@std@@IAEXPAV?$basic_string@DU?$char_traits@D@std@@V?$allocator@D@2@@2@0@Z ENDP ; std::vector<std::basic_string<char,std::char_traits<char>,std::allocator<char> >,std::allocator<std::basic_string<char,std::char_traits<char>,std::allocator<char> > > >::_Destroy
_TEXT	ENDS
PUBLIC	??_R0?AVlogic_error@std@@@8			; std::logic_error `RTTI Type Descriptor'
PUBLIC	__CT??_R0?AVlogic_error@std@@@8??0logic_error@std@@QAE@ABV01@@Z40
PUBLIC	??_R0?AVexception@@@8				; exception `RTTI Type Descriptor'
PUBLIC	__CT??_R0?AVexception@@@8??0exception@@QAE@ABV0@@Z12
PUBLIC	__TI3?AVlength_error@std@@
PUBLIC	__CTA3?AVlength_error@std@@
PUBLIC	__CT??_R0?AVlength_error@std@@@8??0length_error@std@@QAE@ABV01@@Z40
PUBLIC	??_C@_0BD@OLBABOEK@vector?$DMT?$DO?5too?5long?$AA@ ; `string'
PUBLIC	??_R0?AVlength_error@std@@@8			; std::length_error `RTTI Type Descriptor'
PUBLIC	??0logic_error@std@@QAE@ABV01@@Z		; std::logic_error::logic_error
PUBLIC	??0length_error@std@@QAE@ABV?$basic_string@DU?$char_traits@D@std@@V?$allocator@D@2@@1@@Z ; std::length_error::length_error
PUBLIC	??1length_error@std@@UAE@XZ			; std::length_error::~length_error
PUBLIC	??0length_error@std@@QAE@ABV01@@Z		; std::length_error::length_error
EXTRN	??0exception@@QAE@ABV0@@Z:NEAR			; exception::exception
EXTRN	__CxxThrowException@8:NEAR
EXTRN	??_7type_info@@6B@:QWORD			; type_info::`vftable'
;	COMDAT xdata$x
xdata$x	SEGMENT
$T188189 DD	0ffffffffH
	DD	FLAT:$L188185
$T188187 DD	019930520H
	DD	01H
	DD	FLAT:$T188189
	DD	2 DUP(00H)
	DD	2 DUP(00H)
xdata$x	ENDS
;	COMDAT ??_C@_0BD@OLBABOEK@vector?$DMT?$DO?5too?5long?$AA@
CONST	SEGMENT
??_C@_0BD@OLBABOEK@vector?$DMT?$DO?5too?5long?$AA@ DB 'vector<T> too long'
	DB	00H						; `string'
CONST	ENDS
;	COMDAT __TI3?AVlength_error@std@@
xdata$x	SEGMENT
__TI3?AVlength_error@std@@ DD 00H
	DD	FLAT:??1length_error@std@@UAE@XZ
	DD	00H
	DD	FLAT:__CTA3?AVlength_error@std@@
xdata$x	ENDS
;	COMDAT __CTA3?AVlength_error@std@@
xdata$x	SEGMENT
__CTA3?AVlength_error@std@@ DD 03H
	DD	FLAT:__CT??_R0?AVlength_error@std@@@8??0length_error@std@@QAE@ABV01@@Z40
	DD	FLAT:__CT??_R0?AVlogic_error@std@@@8??0logic_error@std@@QAE@ABV01@@Z40
	DD	FLAT:__CT??_R0?AVexception@@@8??0exception@@QAE@ABV0@@Z12
xdata$x	ENDS
;	COMDAT __CT??_R0?AVlength_error@std@@@8??0length_error@std@@QAE@ABV01@@Z40
xdata$x	SEGMENT
__CT??_R0?AVlength_error@std@@@8??0length_error@std@@QAE@ABV01@@Z40 DD 00H
	DD	FLAT:??_R0?AVlength_error@std@@@8
	DD	00H
	DD	0ffffffffH
	ORG $+4
	DD	028H
	DD	FLAT:??0length_error@std@@QAE@ABV01@@Z
xdata$x	ENDS
;	COMDAT ??_R0?AVlength_error@std@@@8
_DATA	SEGMENT
??_R0?AVlength_error@std@@@8 DD FLAT:??_7type_info@@6B@	; std::length_error `RTTI Type Descriptor'
	DD	00H
	DB	'.?AVlength_error@std@@', 00H
	ORG $-31
	DD	FLAT:??_7type_info@@6B@
	DD	00H
	DB	'.?AVlength_error@std@@', 00H
_DATA	ENDS
;	COMDAT __CT??_R0?AVlogic_error@std@@@8??0logic_error@std@@QAE@ABV01@@Z40
xdata$x	SEGMENT
__CT??_R0?AVlogic_error@std@@@8??0logic_error@std@@QAE@ABV01@@Z40 DD 00H
	DD	FLAT:??_R0?AVlogic_error@std@@@8
	DD	00H
	DD	0ffffffffH
	ORG $+4
	DD	028H
	DD	FLAT:??0logic_error@std@@QAE@ABV01@@Z
xdata$x	ENDS
;	COMDAT ??_R0?AVlogic_error@std@@@8
_DATA	SEGMENT
??_R0?AVlogic_error@std@@@8 DD FLAT:??_7type_info@@6B@	; std::logic_error `RTTI Type Descriptor'
	DD	00H
	DB	'.?AVlogic_error@std@@', 00H
	ORG $-30
	DD	FLAT:??_7type_info@@6B@
	DD	00H
	DB	'.?AVlogic_error@std@@', 00H
_DATA	ENDS
;	COMDAT __CT??_R0?AVexception@@@8??0exception@@QAE@ABV0@@Z12
xdata$x	SEGMENT
__CT??_R0?AVexception@@@8??0exception@@QAE@ABV0@@Z12 DD 00H
	DD	FLAT:??_R0?AVexception@@@8
	DD	00H
	DD	0ffffffffH
	ORG $+4
	DD	0cH
	DD	FLAT:??0exception@@QAE@ABV0@@Z
xdata$x	ENDS
;	COMDAT ??_R0?AVexception@@@8
_DATA	SEGMENT
??_R0?AVexception@@@8 DD FLAT:??_7type_info@@6B@	; exception `RTTI Type Descriptor'
	DD	00H
	DB	'.?AVexception@@', 00H
	ORG $-24
	DD	FLAT:??_7type_info@@6B@
	DD	00H
	DB	'.?AVexception@@', 00H
; Function compile flags: /Odt /RTCsu
_DATA	ENDS
;	COMDAT ?_Xlen@?$vector@V?$basic_string@DU?$char_traits@D@std@@V?$allocator@D@2@@std@@V?$allocator@V?$basic_string@DU?$char_traits@D@std@@V?$allocator@D@2@@std@@@2@@std@@IBEXXZ
_TEXT	SEGMENT
$T188183 = -84						; size = 28
$T188182 = -56						; size = 40
_this$ = -16						; size = 4
__$EHRec$ = -12						; size = 12
?_Xlen@?$vector@V?$basic_string@DU?$char_traits@D@std@@V?$allocator@D@2@@std@@V?$allocator@V?$basic_string@DU?$char_traits@D@std@@V?$allocator@D@2@@std@@@2@@std@@IBEXXZ PROC NEAR ; std::vector<std::basic_string<char,std::char_traits<char>,std::allocator<char> >,std::allocator<std::basic_string<char,std::char_traits<char>,std::allocator<char> > > >::_Xlen, COMDAT
; _this$ = ecx

; 883  : 		{	// report a length_error

  00000	55		 push	 ebp
  00001	8b ec		 mov	 ebp, esp
  00003	6a ff		 push	 -1
  00005	68 00 00 00 00	 push	 __ehhandler$?_Xlen@?$vector@V?$basic_string@DU?$char_traits@D@std@@V?$allocator@D@2@@std@@V?$allocator@V?$basic_string@DU?$char_traits@D@std@@V?$allocator@D@2@@std@@@2@@std@@IBEXXZ
  0000a	64 a1 00 00 00
	00		 mov	 eax, DWORD PTR fs:__except_list
  00010	50		 push	 eax
  00011	64 89 25 00 00
	00 00		 mov	 DWORD PTR fs:__except_list, esp
  00018	83 ec 48	 sub	 esp, 72			; 00000048H
  0001b	56		 push	 esi
  0001c	57		 push	 edi
  0001d	51		 push	 ecx
  0001e	8d 7d ac	 lea	 edi, DWORD PTR [ebp-84]
  00021	b9 12 00 00 00	 mov	 ecx, 18			; 00000012H
  00026	b8 cc cc cc cc	 mov	 eax, -858993460		; ccccccccH
  0002b	f3 ab		 rep stosd
  0002d	59		 pop	 ecx
  0002e	89 4d f0	 mov	 DWORD PTR _this$[ebp], ecx

; 884  : 		_THROW(length_error, "vector<T> too long");

  00031	8b f4		 mov	 esi, esp
  00033	68 00 00 00 00	 push	 OFFSET FLAT:??_C@_0BD@OLBABOEK@vector?$DMT?$DO?5too?5long?$AA@
  00038	8d 4d ac	 lea	 ecx, DWORD PTR $T188183[ebp]
  0003b	ff 15 00 00 00
	00		 call	 DWORD PTR __imp_??0?$basic_string@DU?$char_traits@D@std@@V?$allocator@D@2@@std@@QAE@PBD@Z
  00041	3b f4		 cmp	 esi, esp
  00043	e8 00 00 00 00	 call	 __RTC_CheckEsp
  00048	c7 45 fc 00 00
	00 00		 mov	 DWORD PTR __$EHRec$[ebp+8], 0
  0004f	8d 45 ac	 lea	 eax, DWORD PTR $T188183[ebp]
  00052	50		 push	 eax
  00053	8d 4d c8	 lea	 ecx, DWORD PTR $T188182[ebp]
  00056	e8 00 00 00 00	 call	 ??0length_error@std@@QAE@ABV?$basic_string@DU?$char_traits@D@std@@V?$allocator@D@2@@1@@Z ; std::length_error::length_error
  0005b	68 00 00 00 00	 push	 OFFSET FLAT:__TI3?AVlength_error@std@@
  00060	8d 4d c8	 lea	 ecx, DWORD PTR $T188182[ebp]
  00063	51		 push	 ecx
  00064	e8 00 00 00 00	 call	 __CxxThrowException@8
$L188181:

; 885  : 		}

  00069	8b 4d f4	 mov	 ecx, DWORD PTR __$EHRec$[ebp]
  0006c	64 89 0d 00 00
	00 00		 mov	 DWORD PTR fs:__except_list, ecx
  00073	5f		 pop	 edi
  00074	5e		 pop	 esi
  00075	83 c4 54	 add	 esp, 84			; 00000054H
  00078	3b ec		 cmp	 ebp, esp
  0007a	e8 00 00 00 00	 call	 __RTC_CheckEsp
  0007f	8b e5		 mov	 esp, ebp
  00081	5d		 pop	 ebp
  00082	c3		 ret	 0
_TEXT	ENDS
;	COMDAT text$x
text$x	SEGMENT
$L188185:
  00000	8b f4		 mov	 esi, esp
  00002	8d 4d ac	 lea	 ecx, DWORD PTR $T188183[ebp]
  00005	ff 15 00 00 00
	00		 call	 DWORD PTR __imp_??1?$basic_string@DU?$char_traits@D@std@@V?$allocator@D@2@@std@@QAE@XZ
  0000b	3b f4		 cmp	 esi, esp
  0000d	e9 00 00 00 00	 jmp	 __RTC_CheckEsp
__ehhandler$?_Xlen@?$vector@V?$basic_string@DU?$char_traits@D@std@@V?$allocator@D@2@@std@@V?$allocator@V?$basic_string@DU?$char_traits@D@std@@V?$allocator@D@2@@std@@@2@@std@@IBEXXZ:
  00012	b8 00 00 00 00	 mov	 eax, OFFSET FLAT:$T188187
  00017	e9 00 00 00 00	 jmp	 ___CxxFrameHandler
text$x	ENDS
?_Xlen@?$vector@V?$basic_string@DU?$char_traits@D@std@@V?$allocator@D@2@@std@@V?$allocator@V?$basic_string@DU?$char_traits@D@std@@V?$allocator@D@2@@std@@@2@@std@@IBEXXZ ENDP ; std::vector<std::basic_string<char,std::char_traits<char>,std::allocator<char> >,std::allocator<std::basic_string<char,std::char_traits<char>,std::allocator<char> > > >::_Xlen
PUBLIC	??_R1A@?0A@A@exception@@8			; exception::`RTTI Base Class Descriptor at (0,-1,0,0)'
PUBLIC	??_R1A@?0A@A@logic_error@std@@8			; std::logic_error::`RTTI Base Class Descriptor at (0,-1,0,0)'
PUBLIC	??_R4length_error@std@@6B@			; std::length_error::`RTTI Complete Object Locator'
PUBLIC	??_R3length_error@std@@8			; std::length_error::`RTTI Class Hierarchy Descriptor'
PUBLIC	??_R2length_error@std@@8			; std::length_error::`RTTI Base Class Array'
PUBLIC	??_R1A@?0A@A@length_error@std@@8		; std::length_error::`RTTI Base Class Descriptor at (0,-1,0,0)'
PUBLIC	?what@logic_error@std@@UBEPBDXZ			; std::logic_error::what
PUBLIC	??_7length_error@std@@6B@			; std::length_error::`vftable'
PUBLIC	??_Glength_error@std@@UAEPAXI@Z			; std::length_error::`scalar deleting destructor'
EXTRN	??_Elength_error@std@@UAEPAXI@Z:NEAR		; std::length_error::`vector deleting destructor'
;	COMDAT ??_7length_error@std@@6B@
CONST	SEGMENT
??_7length_error@std@@6B@ DD FLAT:??_R4length_error@std@@6B@ ; std::length_error::`vftable'
	DD	FLAT:??_Elength_error@std@@UAEPAXI@Z
	DD	FLAT:?what@logic_error@std@@UBEPBDXZ
CONST	ENDS
;	COMDAT ??_R4length_error@std@@6B@
rdata$r	SEGMENT
??_R4length_error@std@@6B@ DD 00H			; std::length_error::`RTTI Complete Object Locator'
	DD	00H
	DD	00H
	DD	FLAT:??_R0?AVlength_error@std@@@8
	DD	FLAT:??_R3length_error@std@@8
rdata$r	ENDS
;	COMDAT ??_R3length_error@std@@8
rdata$r	SEGMENT
??_R3length_error@std@@8 DD 00H				; std::length_error::`RTTI Class Hierarchy Descriptor'
	DD	00H
	DD	03H
	DD	FLAT:??_R2length_error@std@@8
rdata$r	ENDS
;	COMDAT ??_R2length_error@std@@8
rdata$r	SEGMENT
??_R2length_error@std@@8 DD FLAT:??_R1A@?0A@A@length_error@std@@8 ; std::length_error::`RTTI Base Class Array'
	DD	FLAT:??_R1A@?0A@A@logic_error@std@@8
	DD	FLAT:??_R1A@?0A@A@exception@@8
rdata$r	ENDS
;	COMDAT ??_R1A@?0A@A@length_error@std@@8
rdata$r	SEGMENT
??_R1A@?0A@A@length_error@std@@8 DD FLAT:??_R0?AVlength_error@std@@@8 ; std::length_error::`RTTI Base Class Descriptor at (0,-1,0,0)'
	DD	02H
	DD	00H
	DD	0ffffffffH
	DD	00H
	DD	00H
rdata$r	ENDS
;	COMDAT ??_R1A@?0A@A@logic_error@std@@8
rdata$r	SEGMENT
??_R1A@?0A@A@logic_error@std@@8 DD FLAT:??_R0?AVlogic_error@std@@@8 ; std::logic_error::`RTTI Base Class Descriptor at (0,-1,0,0)'
	DD	01H
	DD	00H
	DD	0ffffffffH
	DD	00H
	DD	00H
rdata$r	ENDS
;	COMDAT ??_R1A@?0A@A@exception@@8
rdata$r	SEGMENT
??_R1A@?0A@A@exception@@8 DD FLAT:??_R0?AVexception@@@8	; exception::`RTTI Base Class Descriptor at (0,-1,0,0)'
	DD	00H
	DD	00H
	DD	0ffffffffH
	DD	00H
	DD	00H
; Function compile flags: /Odt /RTCsu
rdata$r	ENDS
;	COMDAT ??0length_error@std@@QAE@ABV01@@Z
_TEXT	SEGMENT
_this$ = -4						; size = 4
___that$ = 8						; size = 4
??0length_error@std@@QAE@ABV01@@Z PROC NEAR		; std::length_error::length_error, COMDAT
; _this$ = ecx
  00000	55		 push	 ebp
  00001	8b ec		 mov	 ebp, esp
  00003	51		 push	 ecx
  00004	c7 45 fc cc cc
	cc cc		 mov	 DWORD PTR [ebp-4], -858993460 ; ccccccccH
  0000b	89 4d fc	 mov	 DWORD PTR _this$[ebp], ecx
  0000e	8b 45 08	 mov	 eax, DWORD PTR ___that$[ebp]
  00011	50		 push	 eax
  00012	8b 4d fc	 mov	 ecx, DWORD PTR _this$[ebp]
  00015	e8 00 00 00 00	 call	 ??0logic_error@std@@QAE@ABV01@@Z
  0001a	8b 4d fc	 mov	 ecx, DWORD PTR _this$[ebp]
  0001d	c7 01 00 00 00
	00		 mov	 DWORD PTR [ecx], OFFSET FLAT:??_7length_error@std@@6B@
  00023	8b 45 fc	 mov	 eax, DWORD PTR _this$[ebp]
  00026	83 c4 04	 add	 esp, 4
  00029	3b ec		 cmp	 ebp, esp
  0002b	e8 00 00 00 00	 call	 __RTC_CheckEsp
  00030	8b e5		 mov	 esp, ebp
  00032	5d		 pop	 ebp
  00033	c2 04 00	 ret	 4
??0length_error@std@@QAE@ABV01@@Z ENDP			; std::length_error::length_error
; Function compile flags: /Odt /RTCsu
; File d:\program files (x86)\microsoft visual studio .net 2003\vc7\include\xmemory
_TEXT	ENDS
;	COMDAT ?max_size@?$allocator@V?$basic_string@DU?$char_traits@D@std@@V?$allocator@D@2@@std@@@std@@QBEIXZ
_TEXT	SEGMENT
tv65 = -12						; size = 4
__Count$ = -8						; size = 4
_this$ = -4						; size = 4
?max_size@?$allocator@V?$basic_string@DU?$char_traits@D@std@@V?$allocator@D@2@@std@@@std@@QBEIXZ PROC NEAR ; std::allocator<std::basic_string<char,std::char_traits<char>,std::allocator<char> > >::max_size, COMDAT
; _this$ = ecx

; 156  : 		{	// estimate maximum array size

  00000	55		 push	 ebp
  00001	8b ec		 mov	 ebp, esp
  00003	83 ec 0c	 sub	 esp, 12			; 0000000cH
  00006	c7 45 f4 cc cc
	cc cc		 mov	 DWORD PTR [ebp-12], -858993460 ; ccccccccH
  0000d	c7 45 f8 cc cc
	cc cc		 mov	 DWORD PTR [ebp-8], -858993460 ; ccccccccH
  00014	c7 45 fc cc cc
	cc cc		 mov	 DWORD PTR [ebp-4], -858993460 ; ccccccccH
  0001b	89 4d fc	 mov	 DWORD PTR _this$[ebp], ecx

; 157  : 		_SIZT _Count = (_SIZT)(-1) / sizeof (_Ty);

  0001e	c7 45 f8 49 92
	24 09		 mov	 DWORD PTR __Count$[ebp], 153391689 ; 09249249H

; 158  : 		return (0 < _Count ? _Count : 1);

  00025	83 7d f8 00	 cmp	 DWORD PTR __Count$[ebp], 0
  00029	76 08		 jbe	 SHORT $L188195
  0002b	8b 45 f8	 mov	 eax, DWORD PTR __Count$[ebp]
  0002e	89 45 f4	 mov	 DWORD PTR tv65[ebp], eax
  00031	eb 07		 jmp	 SHORT $L188196
$L188195:
  00033	c7 45 f4 01 00
	00 00		 mov	 DWORD PTR tv65[ebp], 1
$L188196:
  0003a	8b 45 f4	 mov	 eax, DWORD PTR tv65[ebp]

; 159  : 		}

  0003d	8b e5		 mov	 esp, ebp
  0003f	5d		 pop	 ebp
  00040	c3		 ret	 0
?max_size@?$allocator@V?$basic_string@DU?$char_traits@D@std@@V?$allocator@D@2@@std@@@std@@QBEIXZ ENDP ; std::allocator<std::basic_string<char,std::char_traits<char>,std::allocator<char> > >::max_size
_TEXT	ENDS
EXTRN	??2@YAPAXI@Z:NEAR				; operator new
; Function compile flags: /Odt /RTCsu
;	COMDAT ??$_Allocate@V?$basic_string@DU?$char_traits@D@std@@V?$allocator@D@2@@std@@@std@@YAPAV?$basic_string@DU?$char_traits@D@std@@V?$allocator@D@2@@0@IPAV10@@Z
_TEXT	SEGMENT
__Count$ = 8						; size = 4
___formal$ = 12						; size = 4
??$_Allocate@V?$basic_string@DU?$char_traits@D@std@@V?$allocator@D@2@@std@@@std@@YAPAV?$basic_string@DU?$char_traits@D@std@@V?$allocator@D@2@@0@IPAV10@@Z PROC NEAR ; std::_Allocate<std::basic_string<char,std::char_traits<char>,std::allocator<char> > >, COMDAT

; 33   : 	{	// allocate storage for _Count elements of type _Ty

  00000	55		 push	 ebp
  00001	8b ec		 mov	 ebp, esp

; 34   : 	return ((_Ty _FARQ *)operator new(_Count * sizeof (_Ty)));

  00003	8b 45 08	 mov	 eax, DWORD PTR __Count$[ebp]
  00006	6b c0 1c	 imul	 eax, 28			; 0000001cH
  00009	50		 push	 eax
  0000a	e8 00 00 00 00	 call	 ??2@YAPAXI@Z		; operator new
  0000f	83 c4 04	 add	 esp, 4

; 35   : 	}

  00012	3b ec		 cmp	 ebp, esp
  00014	e8 00 00 00 00	 call	 __RTC_CheckEsp
  00019	5d		 pop	 ebp
  0001a	c3		 ret	 0
??$_Allocate@V?$basic_string@DU?$char_traits@D@std@@V?$allocator@D@2@@std@@@std@@YAPAV?$basic_string@DU?$char_traits@D@std@@V?$allocator@D@2@@0@IPAV10@@Z ENDP ; std::_Allocate<std::basic_string<char,std::char_traits<char>,std::allocator<char> > >
_TEXT	ENDS
PUBLIC	??$_Ptr_cat@PAV?$basic_string@DU?$char_traits@D@std@@V?$allocator@D@2@@std@@PAV12@@std@@YA?AU_Nonscalar_ptr_iterator_tag@0@AAPAV?$basic_string@DU?$char_traits@D@std@@V?$allocator@D@2@@0@0@Z ; std::_Ptr_cat<std::basic_string<char,std::char_traits<char>,std::allocator<char> > *,std::basic_string<char,std::char_traits<char>,std::allocator<char> > *>
PUBLIC	??$_Destroy_range@V?$basic_string@DU?$char_traits@D@std@@V?$allocator@D@2@@std@@V?$allocator@V?$basic_string@DU?$char_traits@D@std@@V?$allocator@D@2@@std@@@2@@std@@YAXPAV?$basic_string@DU?$char_traits@D@std@@V?$allocator@D@2@@0@0AAV?$allocator@V?$basic_string@DU?$char_traits@D@std@@V?$allocator@D@2@@std@@@0@U_Nonscalar_ptr_iterator_tag@0@@Z ; std::_Destroy_range<std::basic_string<char,std::char_traits<char>,std::allocator<char> >,std::allocator<std::basic_string<char,std::char_traits<char>,std::allocator<char> > > >
; Function compile flags: /Odt /RTCsu
;	COMDAT ??$_Destroy_range@V?$basic_string@DU?$char_traits@D@std@@V?$allocator@D@2@@std@@V?$allocator@V?$basic_string@DU?$char_traits@D@std@@V?$allocator@D@2@@std@@@2@@std@@YAXPAV?$basic_string@DU?$char_traits@D@std@@V?$allocator@D@2@@0@0AAV?$allocator@V?$basic_string@DU?$char_traits@D@std@@V?$allocator@D@2@@std@@@0@@Z
_TEXT	SEGMENT
$T188199 = -1						; size = 1
__First$ = 8						; size = 4
__Last$ = 12						; size = 4
__Al$ = 16						; size = 4
??$_Destroy_range@V?$basic_string@DU?$char_traits@D@std@@V?$allocator@D@2@@std@@V?$allocator@V?$basic_string@DU?$char_traits@D@std@@V?$allocator@D@2@@std@@@2@@std@@YAXPAV?$basic_string@DU?$char_traits@D@std@@V?$allocator@D@2@@0@0AAV?$allocator@V?$basic_string@DU?$char_traits@D@std@@V?$allocator@D@2@@std@@@0@@Z PROC NEAR ; std::_Destroy_range<std::basic_string<char,std::char_traits<char>,std::allocator<char> >,std::allocator<std::basic_string<char,std::char_traits<char>,std::allocator<char> > > >, COMDAT

; 216  : 	{	// destroy [_First, _Last)

  00000	55		 push	 ebp
  00001	8b ec		 mov	 ebp, esp
  00003	51		 push	 ecx
  00004	c7 45 fc cc cc
	cc cc		 mov	 DWORD PTR [ebp-4], -858993460 ; ccccccccH

; 217  : 	_Destroy_range(_First, _Last, _Al, _Ptr_cat(_First, _Last));

  0000b	8d 45 0c	 lea	 eax, DWORD PTR __Last$[ebp]
  0000e	50		 push	 eax
  0000f	8d 4d 08	 lea	 ecx, DWORD PTR __First$[ebp]
  00012	51		 push	 ecx
  00013	e8 00 00 00 00	 call	 ??$_Ptr_cat@PAV?$basic_string@DU?$char_traits@D@std@@V?$allocator@D@2@@std@@PAV12@@std@@YA?AU_Nonscalar_ptr_iterator_tag@0@AAPAV?$basic_string@DU?$char_traits@D@std@@V?$allocator@D@2@@0@0@Z ; std::_Ptr_cat<std::basic_string<char,std::char_traits<char>,std::allocator<char> > *,std::basic_string<char,std::char_traits<char>,std::allocator<char> > *>
  00018	83 c4 08	 add	 esp, 8
  0001b	88 45 ff	 mov	 BYTE PTR $T188199[ebp], al
  0001e	8a 55 ff	 mov	 dl, BYTE PTR $T188199[ebp]
  00021	52		 push	 edx
  00022	8b 45 10	 mov	 eax, DWORD PTR __Al$[ebp]
  00025	50		 push	 eax
  00026	8b 4d 0c	 mov	 ecx, DWORD PTR __Last$[ebp]
  00029	51		 push	 ecx
  0002a	8b 55 08	 mov	 edx, DWORD PTR __First$[ebp]
  0002d	52		 push	 edx
  0002e	e8 00 00 00 00	 call	 ??$_Destroy_range@V?$basic_string@DU?$char_traits@D@std@@V?$allocator@D@2@@std@@V?$allocator@V?$basic_string@DU?$char_traits@D@std@@V?$allocator@D@2@@std@@@2@@std@@YAXPAV?$basic_string@DU?$char_traits@D@std@@V?$allocator@D@2@@0@0AAV?$allocator@V?$basic_string@DU?$char_traits@D@std@@V?$allocator@D@2@@std@@@0@U_Nonscalar_ptr_iterator_tag@0@@Z ; std::_Destroy_range<std::basic_string<char,std::char_traits<char>,std::allocator<char> >,std::allocator<std::basic_string<char,std::char_traits<char>,std::allocator<char> > > >
  00033	83 c4 10	 add	 esp, 16			; 00000010H

; 218  : 	}

  00036	83 c4 04	 add	 esp, 4
  00039	3b ec		 cmp	 ebp, esp
  0003b	e8 00 00 00 00	 call	 __RTC_CheckEsp
  00040	8b e5		 mov	 esp, ebp
  00042	5d		 pop	 ebp
  00043	c3		 ret	 0
??$_Destroy_range@V?$basic_string@DU?$char_traits@D@std@@V?$allocator@D@2@@std@@V?$allocator@V?$basic_string@DU?$char_traits@D@std@@V?$allocator@D@2@@std@@@2@@std@@YAXPAV?$basic_string@DU?$char_traits@D@std@@V?$allocator@D@2@@0@0AAV?$allocator@V?$basic_string@DU?$char_traits@D@std@@V?$allocator@D@2@@std@@@0@@Z ENDP ; std::_Destroy_range<std::basic_string<char,std::char_traits<char>,std::allocator<char> >,std::allocator<std::basic_string<char,std::char_traits<char>,std::allocator<char> > > >
; Function compile flags: /Odt /RTCsu
; File d:\program files (x86)\microsoft visual studio .net 2003\vc7\include\xutility
_TEXT	ENDS
;	COMDAT ??$_Ptr_cat@PAV?$basic_string@DU?$char_traits@D@std@@V?$allocator@D@2@@std@@PAV12@@std@@YA?AU_Nonscalar_ptr_iterator_tag@0@AAPAV?$basic_string@DU?$char_traits@D@std@@V?$allocator@D@2@@0@0@Z
_TEXT	SEGMENT
__Cat$ = -5						; size = 1
___formal$ = 8						; size = 4
___formal$ = 12						; size = 4
??$_Ptr_cat@PAV?$basic_string@DU?$char_traits@D@std@@V?$allocator@D@2@@std@@PAV12@@std@@YA?AU_Nonscalar_ptr_iterator_tag@0@AAPAV?$basic_string@DU?$char_traits@D@std@@V?$allocator@D@2@@0@0@Z PROC NEAR ; std::_Ptr_cat<std::basic_string<char,std::char_traits<char>,std::allocator<char> > *,std::basic_string<char,std::char_traits<char>,std::allocator<char> > *>, COMDAT

; 211  : 	{	// return pointer category from arbitrary arguments

  00000	55		 push	 ebp
  00001	8b ec		 mov	 ebp, esp
  00003	83 ec 0c	 sub	 esp, 12			; 0000000cH
  00006	c7 45 f4 cc cc
	cc cc		 mov	 DWORD PTR [ebp-12], -858993460 ; ccccccccH
  0000d	c7 45 f8 cc cc
	cc cc		 mov	 DWORD PTR [ebp-8], -858993460 ; ccccccccH
  00014	c7 45 fc cc cc
	cc cc		 mov	 DWORD PTR [ebp-4], -858993460 ; ccccccccH

; 212  : 	_Nonscalar_ptr_iterator_tag _Cat;
; 213  : 	return (_Cat);

  0001b	8a 45 fb	 mov	 al, BYTE PTR __Cat$[ebp]

; 214  : 	}

  0001e	52		 push	 edx
  0001f	8b cd		 mov	 ecx, ebp
  00021	50		 push	 eax
  00022	8d 15 00 00 00
	00		 lea	 edx, DWORD PTR $L188203
  00028	e8 00 00 00 00	 call	 @_RTC_CheckStackVars@8
  0002d	58		 pop	 eax
  0002e	5a		 pop	 edx
  0002f	8b e5		 mov	 esp, ebp
  00031	5d		 pop	 ebp
  00032	c3		 ret	 0
$L188203:
  00033	01 00 00 00	 DD	 1
  00037	00 00 00 00	 DD	 $L188202
$L188202:
  0003b	fb ff ff ff	 DD	 -5			; fffffffbH
  0003f	01 00 00 00	 DD	 1
  00043	00 00 00 00	 DD	 $L188201
$L188201:
  00047	5f		 DB	 95			; 0000005fH
  00048	43		 DB	 67			; 00000043H
  00049	61		 DB	 97			; 00000061H
  0004a	74		 DB	 116			; 00000074H
  0004b	00		 DB	 0
??$_Ptr_cat@PAV?$basic_string@DU?$char_traits@D@std@@V?$allocator@D@2@@std@@PAV12@@std@@YA?AU_Nonscalar_ptr_iterator_tag@0@AAPAV?$basic_string@DU?$char_traits@D@std@@V?$allocator@D@2@@0@0@Z ENDP ; std::_Ptr_cat<std::basic_string<char,std::char_traits<char>,std::allocator<char> > *,std::basic_string<char,std::char_traits<char>,std::allocator<char> > *>
_TEXT	ENDS
PUBLIC	?destroy@?$allocator@V?$basic_string@DU?$char_traits@D@std@@V?$allocator@D@2@@std@@@std@@QAEXPAV?$basic_string@DU?$char_traits@D@std@@V?$allocator@D@2@@2@@Z ; std::allocator<std::basic_string<char,std::char_traits<char>,std::allocator<char> > >::destroy
; Function compile flags: /Odt /RTCsu
; File d:\program files (x86)\microsoft visual studio .net 2003\vc7\include\xmemory
;	COMDAT ??$_Destroy_range@V?$basic_string@DU?$char_traits@D@std@@V?$allocator@D@2@@std@@V?$allocator@V?$basic_string@DU?$char_traits@D@std@@V?$allocator@D@2@@std@@@2@@std@@YAXPAV?$basic_string@DU?$char_traits@D@std@@V?$allocator@D@2@@0@0AAV?$allocator@V?$basic_string@DU?$char_traits@D@std@@V?$allocator@D@2@@std@@@0@U_Nonscalar_ptr_iterator_tag@0@@Z
_TEXT	SEGMENT
__First$ = 8						; size = 4
__Last$ = 12						; size = 4
__Al$ = 16						; size = 4
___formal$ = 20						; size = 1
??$_Destroy_range@V?$basic_string@DU?$char_traits@D@std@@V?$allocator@D@2@@std@@V?$allocator@V?$basic_string@DU?$char_traits@D@std@@V?$allocator@D@2@@std@@@2@@std@@YAXPAV?$basic_string@DU?$char_traits@D@std@@V?$allocator@D@2@@0@0AAV?$allocator@V?$basic_string@DU?$char_traits@D@std@@V?$allocator@D@2@@std@@@0@U_Nonscalar_ptr_iterator_tag@0@@Z PROC NEAR ; std::_Destroy_range<std::basic_string<char,std::char_traits<char>,std::allocator<char> >,std::allocator<std::basic_string<char,std::char_traits<char>,std::allocator<char> > > >, COMDAT

; 224  : 	{	// destroy [_First, _Last), arbitrary type

  00000	55		 push	 ebp
  00001	8b ec		 mov	 ebp, esp

; 225  : 	for (; _First != _Last; ++_First)

  00003	eb 09		 jmp	 SHORT $L187709
$L187710:
  00005	8b 45 08	 mov	 eax, DWORD PTR __First$[ebp]
  00008	83 c0 1c	 add	 eax, 28			; 0000001cH
  0000b	89 45 08	 mov	 DWORD PTR __First$[ebp], eax
$L187709:
  0000e	8b 4d 08	 mov	 ecx, DWORD PTR __First$[ebp]
  00011	3b 4d 0c	 cmp	 ecx, DWORD PTR __Last$[ebp]
  00014	74 0e		 je	 SHORT $L187708

; 226  : 		_Al.destroy(_First);

  00016	8b 55 08	 mov	 edx, DWORD PTR __First$[ebp]
  00019	52		 push	 edx
  0001a	8b 4d 10	 mov	 ecx, DWORD PTR __Al$[ebp]
  0001d	e8 00 00 00 00	 call	 ?destroy@?$allocator@V?$basic_string@DU?$char_traits@D@std@@V?$allocator@D@2@@std@@@std@@QAEXPAV?$basic_string@DU?$char_traits@D@std@@V?$allocator@D@2@@2@@Z ; std::allocator<std::basic_string<char,std::char_traits<char>,std::allocator<char> > >::destroy
  00022	eb e1		 jmp	 SHORT $L187710
$L187708:

; 227  : 	}

  00024	3b ec		 cmp	 ebp, esp
  00026	e8 00 00 00 00	 call	 __RTC_CheckEsp
  0002b	5d		 pop	 ebp
  0002c	c3		 ret	 0
??$_Destroy_range@V?$basic_string@DU?$char_traits@D@std@@V?$allocator@D@2@@std@@V?$allocator@V?$basic_string@DU?$char_traits@D@std@@V?$allocator@D@2@@std@@@2@@std@@YAXPAV?$basic_string@DU?$char_traits@D@std@@V?$allocator@D@2@@0@0AAV?$allocator@V?$basic_string@DU?$char_traits@D@std@@V?$allocator@D@2@@std@@@0@U_Nonscalar_ptr_iterator_tag@0@@Z ENDP ; std::_Destroy_range<std::basic_string<char,std::char_traits<char>,std::allocator<char> >,std::allocator<std::basic_string<char,std::char_traits<char>,std::allocator<char> > > >
_TEXT	ENDS
PUBLIC	??$_Destroy@V?$basic_string@DU?$char_traits@D@std@@V?$allocator@D@2@@std@@@std@@YAXPAV?$basic_string@DU?$char_traits@D@std@@V?$allocator@D@2@@0@@Z ; std::_Destroy<std::basic_string<char,std::char_traits<char>,std::allocator<char> > >
; Function compile flags: /Odt /RTCsu
;	COMDAT ?destroy@?$allocator@V?$basic_string@DU?$char_traits@D@std@@V?$allocator@D@2@@std@@@std@@QAEXPAV?$basic_string@DU?$char_traits@D@std@@V?$allocator@D@2@@2@@Z
_TEXT	SEGMENT
_this$ = -4						; size = 4
__Ptr$ = 8						; size = 4
?destroy@?$allocator@V?$basic_string@DU?$char_traits@D@std@@V?$allocator@D@2@@std@@@std@@QAEXPAV?$basic_string@DU?$char_traits@D@std@@V?$allocator@D@2@@2@@Z PROC NEAR ; std::allocator<std::basic_string<char,std::char_traits<char>,std::allocator<char> > >::destroy, COMDAT
; _this$ = ecx

; 151  : 		{	// destroy object at _Ptr

  00000	55		 push	 ebp
  00001	8b ec		 mov	 ebp, esp
  00003	51		 push	 ecx
  00004	c7 45 fc cc cc
	cc cc		 mov	 DWORD PTR [ebp-4], -858993460 ; ccccccccH
  0000b	89 4d fc	 mov	 DWORD PTR _this$[ebp], ecx

; 152  : 		_Destroy(_Ptr);

  0000e	8b 45 08	 mov	 eax, DWORD PTR __Ptr$[ebp]
  00011	50		 push	 eax
  00012	e8 00 00 00 00	 call	 ??$_Destroy@V?$basic_string@DU?$char_traits@D@std@@V?$allocator@D@2@@std@@@std@@YAXPAV?$basic_string@DU?$char_traits@D@std@@V?$allocator@D@2@@0@@Z ; std::_Destroy<std::basic_string<char,std::char_traits<char>,std::allocator<char> > >
  00017	83 c4 04	 add	 esp, 4

; 153  : 		}

  0001a	83 c4 04	 add	 esp, 4
  0001d	3b ec		 cmp	 ebp, esp
  0001f	e8 00 00 00 00	 call	 __RTC_CheckEsp
  00024	8b e5		 mov	 esp, ebp
  00026	5d		 pop	 ebp
  00027	c2 04 00	 ret	 4
?destroy@?$allocator@V?$basic_string@DU?$char_traits@D@std@@V?$allocator@D@2@@std@@@std@@QAEXPAV?$basic_string@DU?$char_traits@D@std@@V?$allocator@D@2@@2@@Z ENDP ; std::allocator<std::basic_string<char,std::char_traits<char>,std::allocator<char> > >::destroy
_TEXT	ENDS
PUBLIC	??_G?$basic_string@DU?$char_traits@D@std@@V?$allocator@D@2@@std@@QAEPAXI@Z ; std::basic_string<char,std::char_traits<char>,std::allocator<char> >::`scalar deleting destructor'
; Function compile flags: /Odt /RTCsu
;	COMDAT ??$_Destroy@V?$basic_string@DU?$char_traits@D@std@@V?$allocator@D@2@@std@@@std@@YAXPAV?$basic_string@DU?$char_traits@D@std@@V?$allocator@D@2@@0@@Z
_TEXT	SEGMENT
__Ptr$ = 8						; size = 4
??$_Destroy@V?$basic_string@DU?$char_traits@D@std@@V?$allocator@D@2@@std@@@std@@YAXPAV?$basic_string@DU?$char_traits@D@std@@V?$allocator@D@2@@0@@Z PROC NEAR ; std::_Destroy<std::basic_string<char,std::char_traits<char>,std::allocator<char> > >, COMDAT

; 48   : 	{	// destroy object at _Ptr

  00000	55		 push	 ebp
  00001	8b ec		 mov	 ebp, esp

; 49   : 	_DESTRUCTOR(_Ty, _Ptr);

  00003	6a 00		 push	 0
  00005	8b 4d 08	 mov	 ecx, DWORD PTR __Ptr$[ebp]
  00008	e8 00 00 00 00	 call	 ??_G?$basic_string@DU?$char_traits@D@std@@V?$allocator@D@2@@std@@QAEPAXI@Z

; 50   : 	}

  0000d	3b ec		 cmp	 ebp, esp
  0000f	e8 00 00 00 00	 call	 __RTC_CheckEsp
  00014	5d		 pop	 ebp
  00015	c3		 ret	 0
??$_Destroy@V?$basic_string@DU?$char_traits@D@std@@V?$allocator@D@2@@std@@@std@@YAXPAV?$basic_string@DU?$char_traits@D@std@@V?$allocator@D@2@@0@@Z ENDP ; std::_Destroy<std::basic_string<char,std::char_traits<char>,std::allocator<char> > >
; Function compile flags: /Odt /RTCsu
_TEXT	ENDS
;	COMDAT ??_G?$basic_string@DU?$char_traits@D@std@@V?$allocator@D@2@@std@@QAEPAXI@Z
_TEXT	SEGMENT
_this$ = -4						; size = 4
___flags$ = 8						; size = 4
??_G?$basic_string@DU?$char_traits@D@std@@V?$allocator@D@2@@std@@QAEPAXI@Z PROC NEAR ; std::basic_string<char,std::char_traits<char>,std::allocator<char> >::`scalar deleting destructor', COMDAT
; _this$ = ecx
  00000	55		 push	 ebp
  00001	8b ec		 mov	 ebp, esp
  00003	51		 push	 ecx
  00004	56		 push	 esi
  00005	c7 45 fc cc cc
	cc cc		 mov	 DWORD PTR [ebp-4], -858993460 ; ccccccccH
  0000c	89 4d fc	 mov	 DWORD PTR _this$[ebp], ecx
  0000f	8b f4		 mov	 esi, esp
  00011	8b 4d fc	 mov	 ecx, DWORD PTR _this$[ebp]
  00014	ff 15 00 00 00
	00		 call	 DWORD PTR __imp_??1?$basic_string@DU?$char_traits@D@std@@V?$allocator@D@2@@std@@QAE@XZ
  0001a	3b f4		 cmp	 esi, esp
  0001c	e8 00 00 00 00	 call	 __RTC_CheckEsp
  00021	8b 45 08	 mov	 eax, DWORD PTR ___flags$[ebp]
  00024	83 e0 01	 and	 eax, 1
  00027	74 0c		 je	 SHORT $L187722
  00029	8b 4d fc	 mov	 ecx, DWORD PTR _this$[ebp]
  0002c	51		 push	 ecx
  0002d	e8 00 00 00 00	 call	 ??3@YAXPAX@Z		; operator delete
  00032	83 c4 04	 add	 esp, 4
$L187722:
  00035	8b 45 fc	 mov	 eax, DWORD PTR _this$[ebp]
  00038	5e		 pop	 esi
  00039	83 c4 04	 add	 esp, 4
  0003c	3b ec		 cmp	 ebp, esp
  0003e	e8 00 00 00 00	 call	 __RTC_CheckEsp
  00043	8b e5		 mov	 esp, ebp
  00045	5d		 pop	 ebp
  00046	c2 04 00	 ret	 4
??_G?$basic_string@DU?$char_traits@D@std@@V?$allocator@D@2@@std@@QAEPAXI@Z ENDP ; std::basic_string<char,std::char_traits<char>,std::allocator<char> >::`scalar deleting destructor'
; Function compile flags: /Odt /RTCsu
; File d:\program files (x86)\microsoft visual studio .net 2003\vc7\include\stdexcept
_TEXT	ENDS
;	COMDAT ?what@logic_error@std@@UBEPBDXZ
_TEXT	SEGMENT
_this$ = -4						; size = 4
?what@logic_error@std@@UBEPBDXZ PROC NEAR		; std::logic_error::what, COMDAT
; _this$ = ecx

; 26   : 		{	// return pointer to message string

  00000	55		 push	 ebp
  00001	8b ec		 mov	 ebp, esp
  00003	51		 push	 ecx
  00004	56		 push	 esi
  00005	c7 45 fc cc cc
	cc cc		 mov	 DWORD PTR [ebp-4], -858993460 ; ccccccccH
  0000c	89 4d fc	 mov	 DWORD PTR _this$[ebp], ecx

; 27   : 		return (_Str.c_str());

  0000f	8b 4d fc	 mov	 ecx, DWORD PTR _this$[ebp]
  00012	83 c1 0c	 add	 ecx, 12			; 0000000cH
  00015	8b f4		 mov	 esi, esp
  00017	ff 15 00 00 00
	00		 call	 DWORD PTR __imp_?c_str@?$basic_string@DU?$char_traits@D@std@@V?$allocator@D@2@@std@@QBEPBDXZ
  0001d	3b f4		 cmp	 esi, esp
  0001f	e8 00 00 00 00	 call	 __RTC_CheckEsp

; 28   : 		}

  00024	5e		 pop	 esi
  00025	83 c4 04	 add	 esp, 4
  00028	3b ec		 cmp	 ebp, esp
  0002a	e8 00 00 00 00	 call	 __RTC_CheckEsp
  0002f	8b e5		 mov	 esp, ebp
  00031	5d		 pop	 ebp
  00032	c3		 ret	 0
?what@logic_error@std@@UBEPBDXZ ENDP			; std::logic_error::what
_TEXT	ENDS
PUBLIC	??0logic_error@std@@QAE@ABV?$basic_string@DU?$char_traits@D@std@@V?$allocator@D@2@@1@@Z ; std::logic_error::logic_error
; Function compile flags: /Odt /RTCsu
;	COMDAT ??0length_error@std@@QAE@ABV?$basic_string@DU?$char_traits@D@std@@V?$allocator@D@2@@1@@Z
_TEXT	SEGMENT
_this$ = -4						; size = 4
__Message$ = 8						; size = 4
??0length_error@std@@QAE@ABV?$basic_string@DU?$char_traits@D@std@@V?$allocator@D@2@@1@@Z PROC NEAR ; std::length_error::length_error, COMDAT
; _this$ = ecx

; 95   : 		{	// construct from message string

  00000	55		 push	 ebp
  00001	8b ec		 mov	 ebp, esp
  00003	51		 push	 ecx
  00004	c7 45 fc cc cc
	cc cc		 mov	 DWORD PTR [ebp-4], -858993460 ; ccccccccH
  0000b	89 4d fc	 mov	 DWORD PTR _this$[ebp], ecx
  0000e	8b 45 08	 mov	 eax, DWORD PTR __Message$[ebp]
  00011	50		 push	 eax
  00012	8b 4d fc	 mov	 ecx, DWORD PTR _this$[ebp]
  00015	e8 00 00 00 00	 call	 ??0logic_error@std@@QAE@ABV?$basic_string@DU?$char_traits@D@std@@V?$allocator@D@2@@1@@Z ; std::logic_error::logic_error
  0001a	8b 4d fc	 mov	 ecx, DWORD PTR _this$[ebp]
  0001d	c7 01 00 00 00
	00		 mov	 DWORD PTR [ecx], OFFSET FLAT:??_7length_error@std@@6B@

; 96   : 		}

  00023	8b 45 fc	 mov	 eax, DWORD PTR _this$[ebp]
  00026	83 c4 04	 add	 esp, 4
  00029	3b ec		 cmp	 ebp, esp
  0002b	e8 00 00 00 00	 call	 __RTC_CheckEsp
  00030	8b e5		 mov	 esp, ebp
  00032	5d		 pop	 ebp
  00033	c2 04 00	 ret	 4
??0length_error@std@@QAE@ABV?$basic_string@DU?$char_traits@D@std@@V?$allocator@D@2@@1@@Z ENDP ; std::length_error::length_error
_TEXT	ENDS
PUBLIC	??_7logic_error@std@@6B@			; std::logic_error::`vftable'
PUBLIC	??_Glogic_error@std@@UAEPAXI@Z			; std::logic_error::`scalar deleting destructor'
PUBLIC	??_R4logic_error@std@@6B@			; std::logic_error::`RTTI Complete Object Locator'
PUBLIC	??_R3logic_error@std@@8				; std::logic_error::`RTTI Class Hierarchy Descriptor'
PUBLIC	??_R2logic_error@std@@8				; std::logic_error::`RTTI Base Class Array'
EXTRN	__imp_??0exception@@QAE@XZ:NEAR
EXTRN	__imp_??1exception@@UAE@XZ:NEAR
EXTRN	__imp_??0?$basic_string@DU?$char_traits@D@std@@V?$allocator@D@2@@std@@QAE@ABV01@@Z:NEAR
EXTRN	??_Elogic_error@std@@UAEPAXI@Z:NEAR		; std::logic_error::`vector deleting destructor'
;	COMDAT xdata$x
xdata$x	SEGMENT
$T188217 DD	0ffffffffH
	DD	FLAT:$L188212
$T188215 DD	019930520H
	DD	01H
	DD	FLAT:$T188217
	DD	2 DUP(00H)
	DD	2 DUP(00H)
xdata$x	ENDS
;	COMDAT ??_7logic_error@std@@6B@
CONST	SEGMENT
??_7logic_error@std@@6B@ DD FLAT:??_R4logic_error@std@@6B@ ; std::logic_error::`vftable'
	DD	FLAT:??_Elogic_error@std@@UAEPAXI@Z
	DD	FLAT:?what@logic_error@std@@UBEPBDXZ
CONST	ENDS
;	COMDAT ??_R4logic_error@std@@6B@
rdata$r	SEGMENT
??_R4logic_error@std@@6B@ DD 00H			; std::logic_error::`RTTI Complete Object Locator'
	DD	00H
	DD	00H
	DD	FLAT:??_R0?AVlogic_error@std@@@8
	DD	FLAT:??_R3logic_error@std@@8
rdata$r	ENDS
;	COMDAT ??_R3logic_error@std@@8
rdata$r	SEGMENT
??_R3logic_error@std@@8 DD 00H				; std::logic_error::`RTTI Class Hierarchy Descriptor'
	DD	00H
	DD	02H
	DD	FLAT:??_R2logic_error@std@@8
rdata$r	ENDS
;	COMDAT ??_R2logic_error@std@@8
rdata$r	SEGMENT
??_R2logic_error@std@@8 DD FLAT:??_R1A@?0A@A@logic_error@std@@8 ; std::logic_error::`RTTI Base Class Array'
	DD	FLAT:??_R1A@?0A@A@exception@@8
; Function compile flags: /Odt /RTCsu
rdata$r	ENDS
;	COMDAT ??0logic_error@std@@QAE@ABV?$basic_string@DU?$char_traits@D@std@@V?$allocator@D@2@@1@@Z
_TEXT	SEGMENT
_this$ = -16						; size = 4
__$EHRec$ = -12						; size = 12
__Message$ = 8						; size = 4
??0logic_error@std@@QAE@ABV?$basic_string@DU?$char_traits@D@std@@V?$allocator@D@2@@1@@Z PROC NEAR ; std::logic_error::logic_error, COMDAT
; _this$ = ecx

; 19   : 		{	// construct from message string

  00000	55		 push	 ebp
  00001	8b ec		 mov	 ebp, esp
  00003	6a ff		 push	 -1
  00005	68 00 00 00 00	 push	 __ehhandler$??0logic_error@std@@QAE@ABV?$basic_string@DU?$char_traits@D@std@@V?$allocator@D@2@@1@@Z
  0000a	64 a1 00 00 00
	00		 mov	 eax, DWORD PTR fs:__except_list
  00010	50		 push	 eax
  00011	64 89 25 00 00
	00 00		 mov	 DWORD PTR fs:__except_list, esp
  00018	51		 push	 ecx
  00019	56		 push	 esi
  0001a	c7 45 f0 cc cc
	cc cc		 mov	 DWORD PTR [ebp-16], -858993460 ; ccccccccH
  00021	89 4d f0	 mov	 DWORD PTR _this$[ebp], ecx
  00024	8b f4		 mov	 esi, esp
  00026	8b 4d f0	 mov	 ecx, DWORD PTR _this$[ebp]
  00029	ff 15 00 00 00
	00		 call	 DWORD PTR __imp_??0exception@@QAE@XZ
  0002f	3b f4		 cmp	 esi, esp
  00031	e8 00 00 00 00	 call	 __RTC_CheckEsp
  00036	c7 45 fc 00 00
	00 00		 mov	 DWORD PTR __$EHRec$[ebp+8], 0
  0003d	8b 45 f0	 mov	 eax, DWORD PTR _this$[ebp]
  00040	c7 00 00 00 00
	00		 mov	 DWORD PTR [eax], OFFSET FLAT:??_7logic_error@std@@6B@
  00046	8b f4		 mov	 esi, esp
  00048	8b 4d 08	 mov	 ecx, DWORD PTR __Message$[ebp]
  0004b	51		 push	 ecx
  0004c	8b 4d f0	 mov	 ecx, DWORD PTR _this$[ebp]
  0004f	83 c1 0c	 add	 ecx, 12			; 0000000cH
  00052	ff 15 00 00 00
	00		 call	 DWORD PTR __imp_??0?$basic_string@DU?$char_traits@D@std@@V?$allocator@D@2@@std@@QAE@ABV01@@Z
  00058	3b f4		 cmp	 esi, esp
  0005a	e8 00 00 00 00	 call	 __RTC_CheckEsp

; 20   : 		}

  0005f	c7 45 fc ff ff
	ff ff		 mov	 DWORD PTR __$EHRec$[ebp+8], -1
  00066	8b 45 f0	 mov	 eax, DWORD PTR _this$[ebp]
  00069	8b 4d f4	 mov	 ecx, DWORD PTR __$EHRec$[ebp]
  0006c	64 89 0d 00 00
	00 00		 mov	 DWORD PTR fs:__except_list, ecx
  00073	5e		 pop	 esi
  00074	83 c4 10	 add	 esp, 16			; 00000010H
  00077	3b ec		 cmp	 ebp, esp
  00079	e8 00 00 00 00	 call	 __RTC_CheckEsp
  0007e	8b e5		 mov	 esp, ebp
  00080	5d		 pop	 ebp
  00081	c2 04 00	 ret	 4
_TEXT	ENDS
;	COMDAT text$x
text$x	SEGMENT
$L188212:
  00000	8b f4		 mov	 esi, esp
  00002	8b 4d f0	 mov	 ecx, DWORD PTR _this$[ebp]
  00005	ff 15 00 00 00
	00		 call	 DWORD PTR __imp_??1exception@@UAE@XZ
  0000b	3b f4		 cmp	 esi, esp
  0000d	e9 00 00 00 00	 jmp	 __RTC_CheckEsp
__ehhandler$??0logic_error@std@@QAE@ABV?$basic_string@DU?$char_traits@D@std@@V?$allocator@D@2@@1@@Z:
  00012	b8 00 00 00 00	 mov	 eax, OFFSET FLAT:$T188215
  00017	e9 00 00 00 00	 jmp	 ___CxxFrameHandler
text$x	ENDS
??0logic_error@std@@QAE@ABV?$basic_string@DU?$char_traits@D@std@@V?$allocator@D@2@@1@@Z ENDP ; std::logic_error::logic_error
PUBLIC	??1logic_error@std@@UAE@XZ			; std::logic_error::~logic_error
; Function compile flags: /Odt /RTCsu
;	COMDAT ??_Glogic_error@std@@UAEPAXI@Z
_TEXT	SEGMENT
_this$ = -4						; size = 4
___flags$ = 8						; size = 4
??_Glogic_error@std@@UAEPAXI@Z PROC NEAR		; std::logic_error::`scalar deleting destructor', COMDAT
; _this$ = ecx
  00000	55		 push	 ebp
  00001	8b ec		 mov	 ebp, esp
  00003	51		 push	 ecx
  00004	c7 45 fc cc cc
	cc cc		 mov	 DWORD PTR [ebp-4], -858993460 ; ccccccccH
  0000b	89 4d fc	 mov	 DWORD PTR _this$[ebp], ecx
  0000e	8b 4d fc	 mov	 ecx, DWORD PTR _this$[ebp]
  00011	e8 00 00 00 00	 call	 ??1logic_error@std@@UAE@XZ ; std::logic_error::~logic_error
  00016	8b 45 08	 mov	 eax, DWORD PTR ___flags$[ebp]
  00019	83 e0 01	 and	 eax, 1
  0001c	74 0c		 je	 SHORT $L91647
  0001e	8b 4d fc	 mov	 ecx, DWORD PTR _this$[ebp]
  00021	51		 push	 ecx
  00022	e8 00 00 00 00	 call	 ??3@YAXPAX@Z		; operator delete
  00027	83 c4 04	 add	 esp, 4
$L91647:
  0002a	8b 45 fc	 mov	 eax, DWORD PTR _this$[ebp]
  0002d	83 c4 04	 add	 esp, 4
  00030	3b ec		 cmp	 ebp, esp
  00032	e8 00 00 00 00	 call	 __RTC_CheckEsp
  00037	8b e5		 mov	 esp, ebp
  00039	5d		 pop	 ebp
  0003a	c2 04 00	 ret	 4
??_Glogic_error@std@@UAEPAXI@Z ENDP			; std::logic_error::`scalar deleting destructor'
_TEXT	ENDS
;	COMDAT xdata$x
xdata$x	SEGMENT
$T188227 DD	0ffffffffH
	DD	FLAT:$L188222
$T188225 DD	019930520H
	DD	01H
	DD	FLAT:$T188227
	DD	2 DUP(00H)
	DD	2 DUP(00H)
; Function compile flags: /Odt /RTCsu
xdata$x	ENDS
;	COMDAT ??1logic_error@std@@UAE@XZ
_TEXT	SEGMENT
_this$ = -16						; size = 4
__$EHRec$ = -12						; size = 12
??1logic_error@std@@UAE@XZ PROC NEAR			; std::logic_error::~logic_error, COMDAT
; _this$ = ecx

; 23   : 		{}	// destroy the object

  00000	55		 push	 ebp
  00001	8b ec		 mov	 ebp, esp
  00003	6a ff		 push	 -1
  00005	68 00 00 00 00	 push	 __ehhandler$??1logic_error@std@@UAE@XZ
  0000a	64 a1 00 00 00
	00		 mov	 eax, DWORD PTR fs:__except_list
  00010	50		 push	 eax
  00011	64 89 25 00 00
	00 00		 mov	 DWORD PTR fs:__except_list, esp
  00018	51		 push	 ecx
  00019	56		 push	 esi
  0001a	c7 45 f0 cc cc
	cc cc		 mov	 DWORD PTR [ebp-16], -858993460 ; ccccccccH
  00021	89 4d f0	 mov	 DWORD PTR _this$[ebp], ecx
  00024	8b 45 f0	 mov	 eax, DWORD PTR _this$[ebp]
  00027	c7 00 00 00 00
	00		 mov	 DWORD PTR [eax], OFFSET FLAT:??_7logic_error@std@@6B@
  0002d	c7 45 fc 00 00
	00 00		 mov	 DWORD PTR __$EHRec$[ebp+8], 0
  00034	8b 4d f0	 mov	 ecx, DWORD PTR _this$[ebp]
  00037	83 c1 0c	 add	 ecx, 12			; 0000000cH
  0003a	8b f4		 mov	 esi, esp
  0003c	ff 15 00 00 00
	00		 call	 DWORD PTR __imp_??1?$basic_string@DU?$char_traits@D@std@@V?$allocator@D@2@@std@@QAE@XZ
  00042	3b f4		 cmp	 esi, esp
  00044	e8 00 00 00 00	 call	 __RTC_CheckEsp
  00049	c7 45 fc ff ff
	ff ff		 mov	 DWORD PTR __$EHRec$[ebp+8], -1
  00050	8b f4		 mov	 esi, esp
  00052	8b 4d f0	 mov	 ecx, DWORD PTR _this$[ebp]
  00055	ff 15 00 00 00
	00		 call	 DWORD PTR __imp_??1exception@@UAE@XZ
  0005b	3b f4		 cmp	 esi, esp
  0005d	e8 00 00 00 00	 call	 __RTC_CheckEsp
  00062	8b 4d f4	 mov	 ecx, DWORD PTR __$EHRec$[ebp]
  00065	64 89 0d 00 00
	00 00		 mov	 DWORD PTR fs:__except_list, ecx
  0006c	5e		 pop	 esi
  0006d	83 c4 10	 add	 esp, 16			; 00000010H
  00070	3b ec		 cmp	 ebp, esp
  00072	e8 00 00 00 00	 call	 __RTC_CheckEsp
  00077	8b e5		 mov	 esp, ebp
  00079	5d		 pop	 ebp
  0007a	c3		 ret	 0
_TEXT	ENDS
;	COMDAT text$x
text$x	SEGMENT
$L188222:
  00000	8b f4		 mov	 esi, esp
  00002	8b 4d f0	 mov	 ecx, DWORD PTR _this$[ebp]
  00005	ff 15 00 00 00
	00		 call	 DWORD PTR __imp_??1exception@@UAE@XZ
  0000b	3b f4		 cmp	 esi, esp
  0000d	e9 00 00 00 00	 jmp	 __RTC_CheckEsp
__ehhandler$??1logic_error@std@@UAE@XZ:
  00012	b8 00 00 00 00	 mov	 eax, OFFSET FLAT:$T188225
  00017	e9 00 00 00 00	 jmp	 ___CxxFrameHandler
text$x	ENDS
??1logic_error@std@@UAE@XZ ENDP				; std::logic_error::~logic_error
; Function compile flags: /Odt /RTCsu
;	COMDAT ??1length_error@std@@UAE@XZ
_TEXT	SEGMENT
_this$ = -4						; size = 4
??1length_error@std@@UAE@XZ PROC NEAR			; std::length_error::~length_error, COMDAT
; _this$ = ecx

; 99   : 		{}	// destroy the object

  00000	55		 push	 ebp
  00001	8b ec		 mov	 ebp, esp
  00003	51		 push	 ecx
  00004	c7 45 fc cc cc
	cc cc		 mov	 DWORD PTR [ebp-4], -858993460 ; ccccccccH
  0000b	89 4d fc	 mov	 DWORD PTR _this$[ebp], ecx
  0000e	8b 45 fc	 mov	 eax, DWORD PTR _this$[ebp]
  00011	c7 00 00 00 00
	00		 mov	 DWORD PTR [eax], OFFSET FLAT:??_7length_error@std@@6B@
  00017	8b 4d fc	 mov	 ecx, DWORD PTR _this$[ebp]
  0001a	e8 00 00 00 00	 call	 ??1logic_error@std@@UAE@XZ ; std::logic_error::~logic_error
  0001f	83 c4 04	 add	 esp, 4
  00022	3b ec		 cmp	 ebp, esp
  00024	e8 00 00 00 00	 call	 __RTC_CheckEsp
  00029	8b e5		 mov	 esp, ebp
  0002b	5d		 pop	 ebp
  0002c	c3		 ret	 0
??1length_error@std@@UAE@XZ ENDP			; std::length_error::~length_error
; Function compile flags: /Odt /RTCsu
_TEXT	ENDS
;	COMDAT ??_Glength_error@std@@UAEPAXI@Z
_TEXT	SEGMENT
_this$ = -4						; size = 4
___flags$ = 8						; size = 4
??_Glength_error@std@@UAEPAXI@Z PROC NEAR		; std::length_error::`scalar deleting destructor', COMDAT
; _this$ = ecx
  00000	55		 push	 ebp
  00001	8b ec		 mov	 ebp, esp
  00003	51		 push	 ecx
  00004	c7 45 fc cc cc
	cc cc		 mov	 DWORD PTR [ebp-4], -858993460 ; ccccccccH
  0000b	89 4d fc	 mov	 DWORD PTR _this$[ebp], ecx
  0000e	8b 4d fc	 mov	 ecx, DWORD PTR _this$[ebp]
  00011	e8 00 00 00 00	 call	 ??1length_error@std@@UAE@XZ ; std::length_error::~length_error
  00016	8b 45 08	 mov	 eax, DWORD PTR ___flags$[ebp]
  00019	83 e0 01	 and	 eax, 1
  0001c	74 0c		 je	 SHORT $L91713
  0001e	8b 4d fc	 mov	 ecx, DWORD PTR _this$[ebp]
  00021	51		 push	 ecx
  00022	e8 00 00 00 00	 call	 ??3@YAXPAX@Z		; operator delete
  00027	83 c4 04	 add	 esp, 4
$L91713:
  0002a	8b 45 fc	 mov	 eax, DWORD PTR _this$[ebp]
  0002d	83 c4 04	 add	 esp, 4
  00030	3b ec		 cmp	 ebp, esp
  00032	e8 00 00 00 00	 call	 __RTC_CheckEsp
  00037	8b e5		 mov	 esp, ebp
  00039	5d		 pop	 ebp
  0003a	c2 04 00	 ret	 4
??_Glength_error@std@@UAEPAXI@Z ENDP			; std::length_error::`scalar deleting destructor'
_TEXT	ENDS
EXTRN	__imp_??0exception@@QAE@ABV0@@Z:NEAR
;	COMDAT xdata$x
xdata$x	SEGMENT
$T188239 DD	0ffffffffH
	DD	FLAT:$L188234
$T188237 DD	019930520H
	DD	01H
	DD	FLAT:$T188239
	DD	2 DUP(00H)
	DD	2 DUP(00H)
; Function compile flags: /Odt /RTCsu
xdata$x	ENDS
;	COMDAT ??0logic_error@std@@QAE@ABV01@@Z
_TEXT	SEGMENT
_this$ = -16						; size = 4
__$EHRec$ = -12						; size = 12
___that$ = 8						; size = 4
??0logic_error@std@@QAE@ABV01@@Z PROC NEAR		; std::logic_error::logic_error, COMDAT
; _this$ = ecx
  00000	55		 push	 ebp
  00001	8b ec		 mov	 ebp, esp
  00003	6a ff		 push	 -1
  00005	68 00 00 00 00	 push	 __ehhandler$??0logic_error@std@@QAE@ABV01@@Z
  0000a	64 a1 00 00 00
	00		 mov	 eax, DWORD PTR fs:__except_list
  00010	50		 push	 eax
  00011	64 89 25 00 00
	00 00		 mov	 DWORD PTR fs:__except_list, esp
  00018	51		 push	 ecx
  00019	56		 push	 esi
  0001a	c7 45 f0 cc cc
	cc cc		 mov	 DWORD PTR [ebp-16], -858993460 ; ccccccccH
  00021	89 4d f0	 mov	 DWORD PTR _this$[ebp], ecx
  00024	8b f4		 mov	 esi, esp
  00026	8b 45 08	 mov	 eax, DWORD PTR ___that$[ebp]
  00029	50		 push	 eax
  0002a	8b 4d f0	 mov	 ecx, DWORD PTR _this$[ebp]
  0002d	ff 15 00 00 00
	00		 call	 DWORD PTR __imp_??0exception@@QAE@ABV0@@Z
  00033	3b f4		 cmp	 esi, esp
  00035	e8 00 00 00 00	 call	 __RTC_CheckEsp
  0003a	c7 45 fc 00 00
	00 00		 mov	 DWORD PTR __$EHRec$[ebp+8], 0
  00041	8b 4d f0	 mov	 ecx, DWORD PTR _this$[ebp]
  00044	c7 01 00 00 00
	00		 mov	 DWORD PTR [ecx], OFFSET FLAT:??_7logic_error@std@@6B@
  0004a	8b 55 08	 mov	 edx, DWORD PTR ___that$[ebp]
  0004d	83 c2 0c	 add	 edx, 12			; 0000000cH
  00050	8b f4		 mov	 esi, esp
  00052	52		 push	 edx
  00053	8b 4d f0	 mov	 ecx, DWORD PTR _this$[ebp]
  00056	83 c1 0c	 add	 ecx, 12			; 0000000cH
  00059	ff 15 00 00 00
	00		 call	 DWORD PTR __imp_??0?$basic_string@DU?$char_traits@D@std@@V?$allocator@D@2@@std@@QAE@ABV01@@Z
  0005f	3b f4		 cmp	 esi, esp
  00061	e8 00 00 00 00	 call	 __RTC_CheckEsp
  00066	c7 45 fc ff ff
	ff ff		 mov	 DWORD PTR __$EHRec$[ebp+8], -1
  0006d	8b 45 f0	 mov	 eax, DWORD PTR _this$[ebp]
  00070	8b 4d f4	 mov	 ecx, DWORD PTR __$EHRec$[ebp]
  00073	64 89 0d 00 00
	00 00		 mov	 DWORD PTR fs:__except_list, ecx
  0007a	5e		 pop	 esi
  0007b	83 c4 10	 add	 esp, 16			; 00000010H
  0007e	3b ec		 cmp	 ebp, esp
  00080	e8 00 00 00 00	 call	 __RTC_CheckEsp
  00085	8b e5		 mov	 esp, ebp
  00087	5d		 pop	 ebp
  00088	c2 04 00	 ret	 4
_TEXT	ENDS
;	COMDAT text$x
text$x	SEGMENT
$L188234:
  00000	8b f4		 mov	 esi, esp
  00002	8b 4d f0	 mov	 ecx, DWORD PTR _this$[ebp]
  00005	ff 15 00 00 00
	00		 call	 DWORD PTR __imp_??1exception@@UAE@XZ
  0000b	3b f4		 cmp	 esi, esp
  0000d	e9 00 00 00 00	 jmp	 __RTC_CheckEsp
__ehhandler$??0logic_error@std@@QAE@ABV01@@Z:
  00012	b8 00 00 00 00	 mov	 eax, OFFSET FLAT:$T188237
  00017	e9 00 00 00 00	 jmp	 ___CxxFrameHandler
text$x	ENDS
??0logic_error@std@@QAE@ABV01@@Z ENDP			; std::logic_error::logic_error
EXTRN	__imp_??Y?$basic_string@DU?$char_traits@D@std@@V?$allocator@D@2@@std@@QAEAAV01@PBD@Z:NEAR
;	COMDAT xdata$x
; File d:\program files (x86)\microsoft visual studio .net 2003\vc7\include\string
xdata$x	SEGMENT
$T188251 DD	0ffffffffH
	DD	FLAT:$L188245
	DD	00H
	DD	FLAT:$L188244
$T188249 DD	019930520H
	DD	02H
	DD	FLAT:$T188251
	DD	2 DUP(00H)
	DD	2 DUP(00H)
; Function compile flags: /Odt /RTCsu
xdata$x	ENDS
;	COMDAT ??$?HDU?$char_traits@D@std@@V?$allocator@D@1@@std@@YA?AV?$basic_string@DU?$char_traits@D@std@@V?$allocator@D@2@@0@ABV10@PBD@Z
_TEXT	SEGMENT
tv77 = -52						; size = 4
tv82 = -48						; size = 4
$T188246 = -44						; size = 4
$T188243 = -40						; size = 28
__$EHRec$ = -12						; size = 12
___$ReturnUdt$ = 8					; size = 4
__Left$ = 12						; size = 4
__Right$ = 16						; size = 4
??$?HDU?$char_traits@D@std@@V?$allocator@D@1@@std@@YA?AV?$basic_string@DU?$char_traits@D@std@@V?$allocator@D@2@@0@ABV10@PBD@Z PROC NEAR ; std::operator+<char,std::char_traits<char>,std::allocator<char> >, COMDAT

; 51   : 	{	// return string + NTCS

  00000	55		 push	 ebp
  00001	8b ec		 mov	 ebp, esp
  00003	6a ff		 push	 -1
  00005	68 00 00 00 00	 push	 __ehhandler$??$?HDU?$char_traits@D@std@@V?$allocator@D@1@@std@@YA?AV?$basic_string@DU?$char_traits@D@std@@V?$allocator@D@2@@0@ABV10@PBD@Z
  0000a	64 a1 00 00 00
	00		 mov	 eax, DWORD PTR fs:__except_list
  00010	50		 push	 eax
  00011	64 89 25 00 00
	00 00		 mov	 DWORD PTR fs:__except_list, esp
  00018	83 ec 28	 sub	 esp, 40			; 00000028H
  0001b	56		 push	 esi
  0001c	57		 push	 edi
  0001d	8d 7d cc	 lea	 edi, DWORD PTR [ebp-52]
  00020	b9 0a 00 00 00	 mov	 ecx, 10			; 0000000aH
  00025	b8 cc cc cc cc	 mov	 eax, -858993460		; ccccccccH
  0002a	f3 ab		 rep stosd
  0002c	c7 45 d4 00 00
	00 00		 mov	 DWORD PTR $T188246[ebp], 0

; 52   : 	return (basic_string<_Elem, _Traits, _Alloc>(_Left) += _Right);

  00033	8b f4		 mov	 esi, esp
  00035	8b 45 0c	 mov	 eax, DWORD PTR __Left$[ebp]
  00038	50		 push	 eax
  00039	8d 4d d8	 lea	 ecx, DWORD PTR $T188243[ebp]
  0003c	ff 15 00 00 00
	00		 call	 DWORD PTR __imp_??0?$basic_string@DU?$char_traits@D@std@@V?$allocator@D@2@@std@@QAE@ABV01@@Z
  00042	3b f4		 cmp	 esi, esp
  00044	e8 00 00 00 00	 call	 __RTC_CheckEsp
  00049	89 45 d0	 mov	 DWORD PTR tv82[ebp], eax
  0004c	8b 4d d0	 mov	 ecx, DWORD PTR tv82[ebp]
  0004f	89 4d cc	 mov	 DWORD PTR tv77[ebp], ecx
  00052	c7 45 fc 01 00
	00 00		 mov	 DWORD PTR __$EHRec$[ebp+8], 1
  00059	8b f4		 mov	 esi, esp
  0005b	8b 55 10	 mov	 edx, DWORD PTR __Right$[ebp]
  0005e	52		 push	 edx
  0005f	8b 4d cc	 mov	 ecx, DWORD PTR tv77[ebp]
  00062	ff 15 00 00 00
	00		 call	 DWORD PTR __imp_??Y?$basic_string@DU?$char_traits@D@std@@V?$allocator@D@2@@std@@QAEAAV01@PBD@Z
  00068	3b f4		 cmp	 esi, esp
  0006a	e8 00 00 00 00	 call	 __RTC_CheckEsp
  0006f	8b f4		 mov	 esi, esp
  00071	50		 push	 eax
  00072	8b 4d 08	 mov	 ecx, DWORD PTR ___$ReturnUdt$[ebp]
  00075	ff 15 00 00 00
	00		 call	 DWORD PTR __imp_??0?$basic_string@DU?$char_traits@D@std@@V?$allocator@D@2@@std@@QAE@ABV01@@Z
  0007b	3b f4		 cmp	 esi, esp
  0007d	e8 00 00 00 00	 call	 __RTC_CheckEsp
  00082	8b 45 d4	 mov	 eax, DWORD PTR $T188246[ebp]
  00085	83 c8 01	 or	 eax, 1
  00088	89 45 d4	 mov	 DWORD PTR $T188246[ebp], eax
  0008b	c6 45 fc 00	 mov	 BYTE PTR __$EHRec$[ebp+8], 0
  0008f	8b f4		 mov	 esi, esp
  00091	8d 4d d8	 lea	 ecx, DWORD PTR $T188243[ebp]
  00094	ff 15 00 00 00
	00		 call	 DWORD PTR __imp_??1?$basic_string@DU?$char_traits@D@std@@V?$allocator@D@2@@std@@QAE@XZ
  0009a	3b f4		 cmp	 esi, esp
  0009c	e8 00 00 00 00	 call	 __RTC_CheckEsp
  000a1	8b 45 08	 mov	 eax, DWORD PTR ___$ReturnUdt$[ebp]

; 53   : 	}

  000a4	8b 4d f4	 mov	 ecx, DWORD PTR __$EHRec$[ebp]
  000a7	64 89 0d 00 00
	00 00		 mov	 DWORD PTR fs:__except_list, ecx
  000ae	5f		 pop	 edi
  000af	5e		 pop	 esi
  000b0	83 c4 34	 add	 esp, 52			; 00000034H
  000b3	3b ec		 cmp	 ebp, esp
  000b5	e8 00 00 00 00	 call	 __RTC_CheckEsp
  000ba	8b e5		 mov	 esp, ebp
  000bc	5d		 pop	 ebp
  000bd	c3		 ret	 0
_TEXT	ENDS
;	COMDAT text$x
text$x	SEGMENT
$L188244:
  00000	8b f4		 mov	 esi, esp
  00002	8d 4d d8	 lea	 ecx, DWORD PTR $T188243[ebp]
  00005	ff 15 00 00 00
	00		 call	 DWORD PTR __imp_??1?$basic_string@DU?$char_traits@D@std@@V?$allocator@D@2@@std@@QAE@XZ
  0000b	3b f4		 cmp	 esi, esp
  0000d	e9 00 00 00 00	 jmp	 __RTC_CheckEsp
$L188245:
  00012	8b 45 d4	 mov	 eax, DWORD PTR $T188246[ebp]
  00015	83 e0 01	 and	 eax, 1
  00018	0f 84 16 00 00
	00		 je	 $L188247
  0001e	83 65 d4 fe	 and	 DWORD PTR $T188246[ebp], -2 ; fffffffeH
  00022	8b f4		 mov	 esi, esp
  00024	8b 4d 08	 mov	 ecx, DWORD PTR ___$ReturnUdt$[ebp]
  00027	ff 15 00 00 00
	00		 call	 DWORD PTR __imp_??1?$basic_string@DU?$char_traits@D@std@@V?$allocator@D@2@@std@@QAE@XZ
  0002d	3b f4		 cmp	 esi, esp
  0002f	e9 00 00 00 00	 jmp	 __RTC_CheckEsp
$L188247:
  00034	c3		 ret	 0
__ehhandler$??$?HDU?$char_traits@D@std@@V?$allocator@D@1@@std@@YA?AV?$basic_string@DU?$char_traits@D@std@@V?$allocator@D@2@@0@ABV10@PBD@Z:
  00035	b8 00 00 00 00	 mov	 eax, OFFSET FLAT:$T188249
  0003a	e9 00 00 00 00	 jmp	 ___CxxFrameHandler
text$x	ENDS
??$?HDU?$char_traits@D@std@@V?$allocator@D@1@@std@@YA?AV?$basic_string@DU?$char_traits@D@std@@V?$allocator@D@2@@0@ABV10@PBD@Z ENDP ; std::operator+<char,std::char_traits<char>,std::allocator<char> >
END
