; Listing generated by Microsoft (R) Optimizing Compiler Version 13.10.3077 

	TITLE	.\src\LayoutMgr\SeperateMode\HostWndMgr.cpp
	.386P
include listing.inc
if @Version gt 510
.model FLAT
else
_TEXT	SEGMENT PARA USE32 PUBLIC 'CODE'
_TEXT	ENDS
_DATA	SEGMENT DWORD USE32 PUBLIC 'DATA'
_DATA	ENDS
CONST	SEGMENT DWORD USE32 PUBLIC 'CONST'
CONST	ENDS
_BSS	SEGMENT DWORD USE32 PUBLIC 'BSS'
_BSS	ENDS
$$SYMBOLS	SEGMENT BYTE USE32 'DEBSYM'
$$SYMBOLS	ENDS
_TLS	SEGMENT DWORD USE32 PUBLIC 'TLS'
_TLS	ENDS
;	COMDAT ??_C@_0EN@IBFBLEEG@D?3?2Program?5Files?5?$CIx86?$CJ?2Microsoft@
CONST	SEGMENT DWORD USE32 PUBLIC 'CONST'
CONST	ENDS
;	COMDAT ??_C@_0BE@JONHPENG@map?1set?$DMT?$DO?5too?5long?$AA@
CONST	SEGMENT DWORD USE32 PUBLIC 'CONST'
CONST	ENDS
;	COMDAT ??_C@_0BD@OLBABOEK@vector?$DMT?$DO?5too?5long?$AA@
CONST	SEGMENT DWORD USE32 PUBLIC 'CONST'
CONST	ENDS
rdata$r	SEGMENT DWORD USE32 PUBLIC 'CONST'
rdata$r	ENDS
xdata$x	SEGMENT DWORD USE32 PUBLIC 'CONST'
xdata$x	ENDS
text$AFX_COL1	SEGMENT PARA USE32 PUBLIC ''
text$AFX_COL1	ENDS
text$yc	SEGMENT PARA USE32 PUBLIC 'CODE'
text$yc	ENDS
CRT$XCA	SEGMENT DWORD USE32 PUBLIC 'DATA'
CRT$XCA	ENDS
CRT$XCU	SEGMENT DWORD USE32 PUBLIC 'DATA'
CRT$XCU	ENDS
CRT$XCL	SEGMENT DWORD USE32 PUBLIC 'DATA'
CRT$XCL	ENDS
CRT$XCC	SEGMENT DWORD USE32 PUBLIC 'DATA'
CRT$XCC	ENDS
CRT$XCZ	SEGMENT DWORD USE32 PUBLIC 'DATA'
CRT$XCZ	ENDS
text$yd	SEGMENT PARA USE32 PUBLIC 'CODE'
text$yd	ENDS
ATL$__m	SEGMENT DWORD USE32 PUBLIC ''
ATL$__m	ENDS
ATL$__z	SEGMENT DWORD USE32 PUBLIC ''
ATL$__z	ENDS
ATL$__a	SEGMENT DWORD USE32 PUBLIC ''
ATL$__a	ENDS
;	COMDAT ??1IData@@MAE@XZ
_TEXT	SEGMENT PARA USE32 PUBLIC 'CODE'
_TEXT	ENDS
;	COMDAT ?DataAppStart@IData@@UAEXXZ
_TEXT	SEGMENT PARA USE32 PUBLIC 'CODE'
_TEXT	ENDS
;	COMDAT ?DataAppExit@IData@@UAEXXZ
_TEXT	SEGMENT PARA USE32 PUBLIC 'CODE'
_TEXT	ENDS
;	COMDAT ??_GIData@@MAEPAXI@Z
_TEXT	SEGMENT PARA USE32 PUBLIC 'CODE'
_TEXT	ENDS
;	COMDAT ?SetMinConstrant@CHostWnd@@QAEXHH@Z
_TEXT	SEGMENT PARA USE32 PUBLIC 'CODE'
_TEXT	ENDS
;	COMDAT ?SetMainWnd@CHostWnd@@QAEXH@Z
_TEXT	SEGMENT PARA USE32 PUBLIC 'CODE'
_TEXT	ENDS
;	COMDAT ?SetName@CHostWnd@@QAEXV?$basic_string@DU?$char_traits@D@std@@V?$allocator@D@2@@std@@@Z
_TEXT	SEGMENT PARA USE32 PUBLIC 'CODE'
_TEXT	ENDS
;	COMDAT ?GetName@CHostWnd@@QAE?AV?$basic_string@DU?$char_traits@D@std@@V?$allocator@D@2@@std@@XZ
_TEXT	SEGMENT PARA USE32 PUBLIC 'CODE'
_TEXT	ENDS
;	COMDAT ?SetResizable@CHostWnd@@QAEX_N@Z
_TEXT	SEGMENT PARA USE32 PUBLIC 'CODE'
_TEXT	ENDS
;	COMDAT ?SetContent@CHostWnd@@QAEXV?$CStringT@DV?$StrTraitMFC_DLL@DV?$ChTraitsCRT@D@ATL@@@@@ATL@@@Z
_TEXT	SEGMENT PARA USE32 PUBLIC 'CODE'
_TEXT	ENDS
;	COMDAT ?GetContentWnd@CHostWnd@@QAEPAVCWnd@@XZ
_TEXT	SEGMENT PARA USE32 PUBLIC 'CODE'
_TEXT	ENDS
;	COMDAT ??_GCHostWndMgr@@AAEPAXI@Z
_TEXT	SEGMENT PARA USE32 PUBLIC 'CODE'
_TEXT	ENDS
;	COMDAT ??1?$map@PAUHWND__@@UCWndData@@U?$less@PAUHWND__@@@std@@V?$allocator@U?$pair@QAUHWND__@@UCWndData@@@std@@@4@@std@@QAE@XZ
_TEXT	SEGMENT PARA USE32 PUBLIC 'CODE'
_TEXT	ENDS
;	COMDAT ??0SepWindowData@@QAE@ABU0@@Z
_TEXT	SEGMENT PARA USE32 PUBLIC 'CODE'
_TEXT	ENDS
;	COMDAT ??1SepWindowData@@QAE@XZ
_TEXT	SEGMENT PARA USE32 PUBLIC 'CODE'
_TEXT	ENDS
;	COMDAT ??B?$CComPtrBase@UITypeInfo2@@@ATL@@QBEPAUITypeInfo2@@XZ
_TEXT	SEGMENT PARA USE32 PUBLIC 'CODE'
_TEXT	ENDS
;	COMDAT ?equal@?$istreambuf_iterator@DU?$char_traits@D@std@@@std@@QBE_NABV12@@Z
_TEXT	SEGMENT PARA USE32 PUBLIC 'CODE'
_TEXT	ENDS
;	COMDAT ?equal@?$istreambuf_iterator@_WU?$char_traits@_W@std@@@std@@QBE_NABV12@@Z
_TEXT	SEGMENT PARA USE32 PUBLIC 'CODE'
_TEXT	ENDS
;	COMDAT ??0?$map@PAUHWND__@@UCWndData@@U?$less@PAUHWND__@@@std@@V?$allocator@U?$pair@QAUHWND__@@UCWndData@@@std@@@4@@std@@QAE@XZ
_TEXT	SEGMENT PARA USE32 PUBLIC 'CODE'
_TEXT	ENDS
;	COMDAT ??A?$map@PAUHWND__@@UCWndData@@U?$less@PAUHWND__@@@std@@V?$allocator@U?$pair@QAUHWND__@@UCWndData@@@std@@@4@@std@@QAEAAUCWndData@@ABQAUHWND__@@@Z
_TEXT	SEGMENT PARA USE32 PUBLIC 'CODE'
_TEXT	ENDS
;	COMDAT ??1?$_Tree@V?$_Tmap_traits@PAUHWND__@@UCWndData@@U?$less@PAUHWND__@@@std@@V?$allocator@U?$pair@QAUHWND__@@UCWndData@@@std@@@4@$0A@@std@@@std@@QAE@XZ
_TEXT	SEGMENT PARA USE32 PUBLIC 'CODE'
_TEXT	ENDS
;	COMDAT ?begin@?$_Tree@V?$_Tmap_traits@PAUHWND__@@UCWndData@@U?$less@PAUHWND__@@@std@@V?$allocator@U?$pair@QAUHWND__@@UCWndData@@@std@@@4@$0A@@std@@@std@@QAE?AViterator@12@XZ
_TEXT	SEGMENT PARA USE32 PUBLIC 'CODE'
_TEXT	ENDS
;	COMDAT ?end@?$_Tree@V?$_Tmap_traits@PAUHWND__@@UCWndData@@U?$less@PAUHWND__@@@std@@V?$allocator@U?$pair@QAUHWND__@@UCWndData@@@std@@@4@$0A@@std@@@std@@QAE?AViterator@12@XZ
_TEXT	SEGMENT PARA USE32 PUBLIC 'CODE'
_TEXT	ENDS
;	COMDAT ??0?$vector@PAVCHostWnd@@V?$allocator@PAVCHostWnd@@@std@@@std@@QAE@XZ
_TEXT	SEGMENT PARA USE32 PUBLIC 'CODE'
_TEXT	ENDS
;	COMDAT ??1?$vector@PAVCHostWnd@@V?$allocator@PAVCHostWnd@@@std@@@std@@QAE@XZ
_TEXT	SEGMENT PARA USE32 PUBLIC 'CODE'
_TEXT	ENDS
;	COMDAT ?size@?$vector@PAVCHostWnd@@V?$allocator@PAVCHostWnd@@@std@@@std@@QBEIXZ
_TEXT	SEGMENT PARA USE32 PUBLIC 'CODE'
_TEXT	ENDS
;	COMDAT ??A?$vector@PAVCHostWnd@@V?$allocator@PAVCHostWnd@@@std@@@std@@QAEAAPAVCHostWnd@@I@Z
_TEXT	SEGMENT PARA USE32 PUBLIC 'CODE'
_TEXT	ENDS
;	COMDAT ?push_back@?$vector@PAVCHostWnd@@V?$allocator@PAVCHostWnd@@@std@@@std@@QAEXABQAVCHostWnd@@@Z
_TEXT	SEGMENT PARA USE32 PUBLIC 'CODE'
_TEXT	ENDS
;	COMDAT ?clear@?$vector@PAVCHostWnd@@V?$allocator@PAVCHostWnd@@@std@@@std@@QAEXXZ
_TEXT	SEGMENT PARA USE32 PUBLIC 'CODE'
_TEXT	ENDS
;	COMDAT ??0?$vector@PAVILyricPopupWndShowObserver@@V?$allocator@PAVILyricPopupWndShowObserver@@@std@@@std@@QAE@XZ
_TEXT	SEGMENT PARA USE32 PUBLIC 'CODE'
_TEXT	ENDS
;	COMDAT ??1?$vector@PAVILyricPopupWndShowObserver@@V?$allocator@PAVILyricPopupWndShowObserver@@@std@@@std@@QAE@XZ
_TEXT	SEGMENT PARA USE32 PUBLIC 'CODE'
_TEXT	ENDS
;	COMDAT ?push_back@?$vector@PAVILyricPopupWndShowObserver@@V?$allocator@PAVILyricPopupWndShowObserver@@@std@@@std@@QAEXABQAVILyricPopupWndShowObserver@@@Z
_TEXT	SEGMENT PARA USE32 PUBLIC 'CODE'
_TEXT	ENDS
;	COMDAT ?size@?$vector@USepWindowData@@V?$allocator@USepWindowData@@@std@@@std@@QBEIXZ
_TEXT	SEGMENT PARA USE32 PUBLIC 'CODE'
_TEXT	ENDS
;	COMDAT ??A?$vector@USepWindowData@@V?$allocator@USepWindowData@@@std@@@std@@QAEAAUSepWindowData@@I@Z
_TEXT	SEGMENT PARA USE32 PUBLIC 'CODE'
_TEXT	ENDS
;	COMDAT ??Citerator@?$_Tree@V?$_Tmap_traits@PAUHWND__@@UCWndData@@U?$less@PAUHWND__@@@std@@V?$allocator@U?$pair@QAUHWND__@@UCWndData@@@std@@@4@$0A@@std@@@std@@QBEPAU?$pair@QAUHWND__@@UCWndData@@@2@XZ
_TEXT	SEGMENT PARA USE32 PUBLIC 'CODE'
_TEXT	ENDS
;	COMDAT ??Eiterator@?$_Tree@V?$_Tmap_traits@PAUHWND__@@UCWndData@@U?$less@PAUHWND__@@@std@@V?$allocator@U?$pair@QAUHWND__@@UCWndData@@@std@@@4@$0A@@std@@@std@@QAE?AV012@H@Z
_TEXT	SEGMENT PARA USE32 PUBLIC 'CODE'
_TEXT	ENDS
;	COMDAT ??9const_iterator@?$_Tree@V?$_Tmap_traits@PAUHWND__@@UCWndData@@U?$less@PAUHWND__@@@std@@V?$allocator@U?$pair@QAUHWND__@@UCWndData@@@std@@@4@$0A@@std@@@std@@QBE_NABV012@@Z
_TEXT	SEGMENT PARA USE32 PUBLIC 'CODE'
_TEXT	ENDS
;	COMDAT ?_Key@?$_Tree@V?$_Tmap_traits@PAUHWND__@@UCWndData@@U?$less@PAUHWND__@@@std@@V?$allocator@U?$pair@QAUHWND__@@UCWndData@@@std@@@4@$0A@@std@@@std@@KAABQAUHWND__@@PAU_Node@?$_Tree_nod@V?$_Tmap_traits@PAUHWND__@@UCWndData@@U?$less@PAUHWND__@@@std@@V?$allocator@U?$pair@QAUHWND__@@UCWndData@@@std@@@4@$0A@@std@@@2@@Z
_TEXT	SEGMENT PARA USE32 PUBLIC 'CODE'
_TEXT	ENDS
;	COMDAT ??0?$_Tree@V?$_Tmap_traits@PAUHWND__@@UCWndData@@U?$less@PAUHWND__@@@std@@V?$allocator@U?$pair@QAUHWND__@@UCWndData@@@std@@@4@$0A@@std@@@std@@QAE@ABU?$less@PAUHWND__@@@1@ABV?$allocator@U?$pair@QAUHWND__@@UCWndData@@@std@@@1@@Z
_TEXT	SEGMENT PARA USE32 PUBLIC 'CODE'
_TEXT	ENDS
;	COMDAT ?insert@?$_Tree@V?$_Tmap_traits@PAUHWND__@@UCWndData@@U?$less@PAUHWND__@@@std@@V?$allocator@U?$pair@QAUHWND__@@UCWndData@@@std@@@4@$0A@@std@@@std@@QAE?AViterator@12@V312@ABU?$pair@QAUHWND__@@UCWndData@@@2@@Z
_TEXT	SEGMENT PARA USE32 PUBLIC 'CODE'
_TEXT	ENDS
;	COMDAT ?lower_bound@?$_Tree@V?$_Tmap_traits@PAUHWND__@@UCWndData@@U?$less@PAUHWND__@@@std@@V?$allocator@U?$pair@QAUHWND__@@UCWndData@@@std@@@4@$0A@@std@@@std@@QAE?AViterator@12@ABQAUHWND__@@@Z
_TEXT	SEGMENT PARA USE32 PUBLIC 'CODE'
_TEXT	ENDS
;	COMDAT ?_Lmost@?$_Tree@V?$_Tmap_traits@PAUHWND__@@UCWndData@@U?$less@PAUHWND__@@@std@@V?$allocator@U?$pair@QAUHWND__@@UCWndData@@@std@@@4@$0A@@std@@@std@@IAEAAPAU_Node@?$_Tree_nod@V?$_Tmap_traits@PAUHWND__@@UCWndData@@U?$less@PAUHWND__@@@std@@V?$allocator@U?$pair@QAUHWND__@@UCWndData@@@std@@@4@$0A@@std@@@2@XZ
_TEXT	SEGMENT PARA USE32 PUBLIC 'CODE'
_TEXT	ENDS
;	COMDAT ?_Tidy@?$_Tree@V?$_Tmap_traits@PAUHWND__@@UCWndData@@U?$less@PAUHWND__@@@std@@V?$allocator@U?$pair@QAUHWND__@@UCWndData@@@std@@@4@$0A@@std@@@std@@IAEXXZ
_TEXT	SEGMENT PARA USE32 PUBLIC 'CODE'
_TEXT	ENDS
;	COMDAT ??0?$allocator@U?$pair@QAUHWND__@@UCWndData@@@std@@@std@@QAE@XZ
_TEXT	SEGMENT PARA USE32 PUBLIC 'CODE'
_TEXT	ENDS
;	COMDAT ??R?$less@PAUHWND__@@@std@@QBE_NABQAUHWND__@@0@Z
_TEXT	SEGMENT PARA USE32 PUBLIC 'CODE'
_TEXT	ENDS
;	COMDAT ?capacity@?$vector@PAVCHostWnd@@V?$allocator@PAVCHostWnd@@@std@@@std@@QBEIXZ
_TEXT	SEGMENT PARA USE32 PUBLIC 'CODE'
_TEXT	ENDS
;	COMDAT ?begin@?$vector@PAVCHostWnd@@V?$allocator@PAVCHostWnd@@@std@@@std@@QAE?AViterator@12@XZ
_TEXT	SEGMENT PARA USE32 PUBLIC 'CODE'
_TEXT	ENDS
;	COMDAT ?end@?$vector@PAVCHostWnd@@V?$allocator@PAVCHostWnd@@@std@@@std@@QAE?AViterator@12@XZ
_TEXT	SEGMENT PARA USE32 PUBLIC 'CODE'
_TEXT	ENDS
;	COMDAT ?insert@?$vector@PAVCHostWnd@@V?$allocator@PAVCHostWnd@@@std@@@std@@QAE?AViterator@12@V312@ABQAVCHostWnd@@@Z
_TEXT	SEGMENT PARA USE32 PUBLIC 'CODE'
_TEXT	ENDS
;	COMDAT ?_Buy@?$vector@PAVCHostWnd@@V?$allocator@PAVCHostWnd@@@std@@@std@@IAE_NI@Z
_TEXT	SEGMENT PARA USE32 PUBLIC 'CODE'
_TEXT	ENDS
;	COMDAT ?_Tidy@?$vector@PAVCHostWnd@@V?$allocator@PAVCHostWnd@@@std@@@std@@IAEXXZ
_TEXT	SEGMENT PARA USE32 PUBLIC 'CODE'
_TEXT	ENDS
;	COMDAT ?_Ufill@?$vector@PAVCHostWnd@@V?$allocator@PAVCHostWnd@@@std@@@std@@IAEPAPAVCHostWnd@@PAPAV3@IABQAV3@@Z
_TEXT	SEGMENT PARA USE32 PUBLIC 'CODE'
_TEXT	ENDS
;	COMDAT ??0?$_Vector_val@PAVCHostWnd@@V?$allocator@PAVCHostWnd@@@std@@@std@@IAE@V?$allocator@PAVCHostWnd@@@1@@Z
_TEXT	SEGMENT PARA USE32 PUBLIC 'CODE'
_TEXT	ENDS
;	COMDAT ??0?$allocator@PAVCHostWnd@@@std@@QAE@XZ
_TEXT	SEGMENT PARA USE32 PUBLIC 'CODE'
_TEXT	ENDS
;	COMDAT ?capacity@?$vector@PAVILyricPopupWndShowObserver@@V?$allocator@PAVILyricPopupWndShowObserver@@@std@@@std@@QBEIXZ
_TEXT	SEGMENT PARA USE32 PUBLIC 'CODE'
_TEXT	ENDS
;	COMDAT ?end@?$vector@PAVILyricPopupWndShowObserver@@V?$allocator@PAVILyricPopupWndShowObserver@@@std@@@std@@QAE?AViterator@12@XZ
_TEXT	SEGMENT PARA USE32 PUBLIC 'CODE'
_TEXT	ENDS
;	COMDAT ?size@?$vector@PAVILyricPopupWndShowObserver@@V?$allocator@PAVILyricPopupWndShowObserver@@@std@@@std@@QBEIXZ
_TEXT	SEGMENT PARA USE32 PUBLIC 'CODE'
_TEXT	ENDS
;	COMDAT ?insert@?$vector@PAVILyricPopupWndShowObserver@@V?$allocator@PAVILyricPopupWndShowObserver@@@std@@@std@@QAE?AViterator@12@V312@ABQAVILyricPopupWndShowObserver@@@Z
_TEXT	SEGMENT PARA USE32 PUBLIC 'CODE'
_TEXT	ENDS
;	COMDAT ?_Buy@?$vector@PAVILyricPopupWndShowObserver@@V?$allocator@PAVILyricPopupWndShowObserver@@@std@@@std@@IAE_NI@Z
_TEXT	SEGMENT PARA USE32 PUBLIC 'CODE'
_TEXT	ENDS
;	COMDAT ?_Tidy@?$vector@PAVILyricPopupWndShowObserver@@V?$allocator@PAVILyricPopupWndShowObserver@@@std@@@std@@IAEXXZ
_TEXT	SEGMENT PARA USE32 PUBLIC 'CODE'
_TEXT	ENDS
;	COMDAT ?_Ufill@?$vector@PAVILyricPopupWndShowObserver@@V?$allocator@PAVILyricPopupWndShowObserver@@@std@@@std@@IAEPAPAVILyricPopupWndShowObserver@@PAPAV3@IABQAV3@@Z
_TEXT	SEGMENT PARA USE32 PUBLIC 'CODE'
_TEXT	ENDS
;	COMDAT ??0?$_Vector_val@PAVILyricPopupWndShowObserver@@V?$allocator@PAVILyricPopupWndShowObserver@@@std@@@std@@IAE@V?$allocator@PAVILyricPopupWndShowObserver@@@1@@Z
_TEXT	SEGMENT PARA USE32 PUBLIC 'CODE'
_TEXT	ENDS
;	COMDAT ??0?$allocator@PAVILyricPopupWndShowObserver@@@std@@QAE@XZ
_TEXT	SEGMENT PARA USE32 PUBLIC 'CODE'
_TEXT	ENDS
;	COMDAT ?begin@?$vector@USepWindowData@@V?$allocator@USepWindowData@@@std@@@std@@QAE?AViterator@12@XZ
_TEXT	SEGMENT PARA USE32 PUBLIC 'CODE'
_TEXT	ENDS
;	COMDAT ??0iterator@?$_Tree@V?$_Tmap_traits@PAUHWND__@@UCWndData@@U?$less@PAUHWND__@@@std@@V?$allocator@U?$pair@QAUHWND__@@UCWndData@@@std@@@4@$0A@@std@@@std@@QAE@PAU_Node@?$_Tree_nod@V?$_Tmap_traits@PAUHWND__@@UCWndData@@U?$less@PAUHWND__@@@std@@V?$allocator@U?$pair@QAUHWND__@@UCWndData@@@std@@@4@$0A@@std@@@2@@Z
_TEXT	SEGMENT PARA USE32 PUBLIC 'CODE'
_TEXT	ENDS
;	COMDAT ??Diterator@?$_Tree@V?$_Tmap_traits@PAUHWND__@@UCWndData@@U?$less@PAUHWND__@@@std@@V?$allocator@U?$pair@QAUHWND__@@UCWndData@@@std@@@4@$0A@@std@@@std@@QBEAAU?$pair@QAUHWND__@@UCWndData@@@2@XZ
_TEXT	SEGMENT PARA USE32 PUBLIC 'CODE'
_TEXT	ENDS
;	COMDAT ??Eiterator@?$_Tree@V?$_Tmap_traits@PAUHWND__@@UCWndData@@U?$less@PAUHWND__@@@std@@V?$allocator@U?$pair@QAUHWND__@@UCWndData@@@std@@@4@$0A@@std@@@std@@QAEAAV012@XZ
_TEXT	SEGMENT PARA USE32 PUBLIC 'CODE'
_TEXT	ENDS
;	COMDAT ??8const_iterator@?$_Tree@V?$_Tmap_traits@PAUHWND__@@UCWndData@@U?$less@PAUHWND__@@@std@@V?$allocator@U?$pair@QAUHWND__@@UCWndData@@@std@@@4@$0A@@std@@@std@@QBE_NABV012@@Z
_TEXT	SEGMENT PARA USE32 PUBLIC 'CODE'
_TEXT	ENDS
;	COMDAT ?_Mynode@const_iterator@?$_Tree@V?$_Tmap_traits@PAUHWND__@@UCWndData@@U?$less@PAUHWND__@@@std@@V?$allocator@U?$pair@QAUHWND__@@UCWndData@@@std@@@4@$0A@@std@@@std@@QBEPAU_Node@?$_Tree_nod@V?$_Tmap_traits@PAUHWND__@@UCWndData@@U?$less@PAUHWND__@@@std@@V?$allocator@U?$pair@QAUHWND__@@UCWndData@@@std@@@4@$0A@@std@@@3@XZ
_TEXT	SEGMENT PARA USE32 PUBLIC 'CODE'
_TEXT	ENDS
;	COMDAT ??0?$pair@QAUHWND__@@UCWndData@@@std@@QAE@ABQAUHWND__@@ABUCWndData@@@Z
_TEXT	SEGMENT PARA USE32 PUBLIC 'CODE'
_TEXT	ENDS
;	COMDAT ??Diterator@?$vector@PAVCHostWnd@@V?$allocator@PAVCHostWnd@@@std@@@std@@QBEAAPAVCHostWnd@@XZ
_TEXT	SEGMENT PARA USE32 PUBLIC 'CODE'
_TEXT	ENDS
;	COMDAT ??Hiterator@?$vector@PAVCHostWnd@@V?$allocator@PAVCHostWnd@@@std@@@std@@QBE?AV012@H@Z
_TEXT	SEGMENT PARA USE32 PUBLIC 'CODE'
_TEXT	ENDS
;	COMDAT ??Diterator@?$vector@USepWindowData@@V?$allocator@USepWindowData@@@std@@@std@@QBEAAUSepWindowData@@XZ
_TEXT	SEGMENT PARA USE32 PUBLIC 'CODE'
_TEXT	ENDS
;	COMDAT ??Hiterator@?$vector@USepWindowData@@V?$allocator@USepWindowData@@@std@@@std@@QBE?AV012@H@Z
_TEXT	SEGMENT PARA USE32 PUBLIC 'CODE'
_TEXT	ENDS
;	COMDAT ?_Isnil@?$_Tree@V?$_Tmap_traits@PAUHWND__@@UCWndData@@U?$less@PAUHWND__@@@std@@V?$allocator@U?$pair@QAUHWND__@@UCWndData@@@std@@@4@$0A@@std@@@std@@KAAADPAU_Node@?$_Tree_nod@V?$_Tmap_traits@PAUHWND__@@UCWndData@@U?$less@PAUHWND__@@@std@@V?$allocator@U?$pair@QAUHWND__@@UCWndData@@@std@@@4@$0A@@std@@@2@@Z
_TEXT	SEGMENT PARA USE32 PUBLIC 'CODE'
_TEXT	ENDS
;	COMDAT ?_Left@?$_Tree@V?$_Tmap_traits@PAUHWND__@@UCWndData@@U?$less@PAUHWND__@@@std@@V?$allocator@U?$pair@QAUHWND__@@UCWndData@@@std@@@4@$0A@@std@@@std@@KAAAPAU_Node@?$_Tree_nod@V?$_Tmap_traits@PAUHWND__@@UCWndData@@U?$less@PAUHWND__@@@std@@V?$allocator@U?$pair@QAUHWND__@@UCWndData@@@std@@@4@$0A@@std@@@2@PAU342@@Z
_TEXT	SEGMENT PARA USE32 PUBLIC 'CODE'
_TEXT	ENDS
;	COMDAT ?_Parent@?$_Tree@V?$_Tmap_traits@PAUHWND__@@UCWndData@@U?$less@PAUHWND__@@@std@@V?$allocator@U?$pair@QAUHWND__@@UCWndData@@@std@@@4@$0A@@std@@@std@@KAAAPAU_Node@?$_Tree_nod@V?$_Tmap_traits@PAUHWND__@@UCWndData@@U?$less@PAUHWND__@@@std@@V?$allocator@U?$pair@QAUHWND__@@UCWndData@@@std@@@4@$0A@@std@@@2@PAU342@@Z
_TEXT	SEGMENT PARA USE32 PUBLIC 'CODE'
_TEXT	ENDS
;	COMDAT ?_Right@?$_Tree@V?$_Tmap_traits@PAUHWND__@@UCWndData@@U?$less@PAUHWND__@@@std@@V?$allocator@U?$pair@QAUHWND__@@UCWndData@@@std@@@4@$0A@@std@@@std@@KAAAPAU_Node@?$_Tree_nod@V?$_Tmap_traits@PAUHWND__@@UCWndData@@U?$less@PAUHWND__@@@std@@V?$allocator@U?$pair@QAUHWND__@@UCWndData@@@std@@@4@$0A@@std@@@2@PAU342@@Z
_TEXT	SEGMENT PARA USE32 PUBLIC 'CODE'
_TEXT	ENDS
;	COMDAT ?_Myval@?$_Tree@V?$_Tmap_traits@PAUHWND__@@UCWndData@@U?$less@PAUHWND__@@@std@@V?$allocator@U?$pair@QAUHWND__@@UCWndData@@@std@@@4@$0A@@std@@@std@@KAAAU?$pair@QAUHWND__@@UCWndData@@@2@PAU_Node@?$_Tree_nod@V?$_Tmap_traits@PAUHWND__@@UCWndData@@U?$less@PAUHWND__@@@std@@V?$allocator@U?$pair@QAUHWND__@@UCWndData@@@std@@@4@$0A@@std@@@2@@Z
_TEXT	SEGMENT PARA USE32 PUBLIC 'CODE'
_TEXT	ENDS
;	COMDAT ?size@?$_Tree@V?$_Tmap_traits@PAUHWND__@@UCWndData@@U?$less@PAUHWND__@@@std@@V?$allocator@U?$pair@QAUHWND__@@UCWndData@@@std@@@4@$0A@@std@@@std@@QBEIXZ
_TEXT	SEGMENT PARA USE32 PUBLIC 'CODE'
_TEXT	ENDS
;	COMDAT ?insert@?$_Tree@V?$_Tmap_traits@PAUHWND__@@UCWndData@@U?$less@PAUHWND__@@@std@@V?$allocator@U?$pair@QAUHWND__@@UCWndData@@@std@@@4@$0A@@std@@@std@@QAE?AU?$pair@Viterator@?$_Tree@V?$_Tmap_traits@PAUHWND__@@UCWndData@@U?$less@PAUHWND__@@@std@@V?$allocator@U?$pair@QAUHWND__@@UCWndData@@@std@@@4@$0A@@std@@@std@@_N@2@ABU?$pair@QAUHWND__@@UCWndData@@@2@@Z
_TEXT	SEGMENT PARA USE32 PUBLIC 'CODE'
_TEXT	ENDS
;	COMDAT ?erase@?$_Tree@V?$_Tmap_traits@PAUHWND__@@UCWndData@@U?$less@PAUHWND__@@@std@@V?$allocator@U?$pair@QAUHWND__@@UCWndData@@@std@@@4@$0A@@std@@@std@@QAE?AViterator@12@V312@0@Z
_TEXT	SEGMENT PARA USE32 PUBLIC 'CODE'
_TEXT	ENDS
;	COMDAT ?_Init@?$_Tree@V?$_Tmap_traits@PAUHWND__@@UCWndData@@U?$less@PAUHWND__@@@std@@V?$allocator@U?$pair@QAUHWND__@@UCWndData@@@std@@@4@$0A@@std@@@std@@IAEXXZ
_TEXT	SEGMENT PARA USE32 PUBLIC 'CODE'
_TEXT	ENDS
;	COMDAT ?_Insert@?$_Tree@V?$_Tmap_traits@PAUHWND__@@UCWndData@@U?$less@PAUHWND__@@@std@@V?$allocator@U?$pair@QAUHWND__@@UCWndData@@@std@@@4@$0A@@std@@@std@@IAE?AViterator@12@_NPAU_Node@?$_Tree_nod@V?$_Tmap_traits@PAUHWND__@@UCWndData@@U?$less@PAUHWND__@@@std@@V?$allocator@U?$pair@QAUHWND__@@UCWndData@@@std@@@4@$0A@@std@@@2@ABU?$pair@QAUHWND__@@UCWndData@@@2@@Z
_TEXT	SEGMENT PARA USE32 PUBLIC 'CODE'
_TEXT	ENDS
;	COMDAT ?_Lbound@?$_Tree@V?$_Tmap_traits@PAUHWND__@@UCWndData@@U?$less@PAUHWND__@@@std@@V?$allocator@U?$pair@QAUHWND__@@UCWndData@@@std@@@4@$0A@@std@@@std@@IBEPAU_Node@?$_Tree_nod@V?$_Tmap_traits@PAUHWND__@@UCWndData@@U?$less@PAUHWND__@@@std@@V?$allocator@U?$pair@QAUHWND__@@UCWndData@@@std@@@4@$0A@@std@@@2@ABQAUHWND__@@@Z
_TEXT	SEGMENT PARA USE32 PUBLIC 'CODE'
_TEXT	ENDS
;	COMDAT ?_Rmost@?$_Tree@V?$_Tmap_traits@PAUHWND__@@UCWndData@@U?$less@PAUHWND__@@@std@@V?$allocator@U?$pair@QAUHWND__@@UCWndData@@@std@@@4@$0A@@std@@@std@@IAEAAPAU_Node@?$_Tree_nod@V?$_Tmap_traits@PAUHWND__@@UCWndData@@U?$less@PAUHWND__@@@std@@V?$allocator@U?$pair@QAUHWND__@@UCWndData@@@std@@@4@$0A@@std@@@2@XZ
_TEXT	SEGMENT PARA USE32 PUBLIC 'CODE'
_TEXT	ENDS
;	COMDAT ??0?$_Tree_val@V?$_Tmap_traits@PAUHWND__@@UCWndData@@U?$less@PAUHWND__@@@std@@V?$allocator@U?$pair@QAUHWND__@@UCWndData@@@std@@@4@$0A@@std@@@std@@IAE@ABU?$less@PAUHWND__@@@1@V?$allocator@U?$pair@QAUHWND__@@UCWndData@@@std@@@1@@Z
_TEXT	SEGMENT PARA USE32 PUBLIC 'CODE'
_TEXT	ENDS
;	COMDAT ?_Kfn@?$_Tmap_traits@PAUHWND__@@UCWndData@@U?$less@PAUHWND__@@@std@@V?$allocator@U?$pair@QAUHWND__@@UCWndData@@@std@@@4@$0A@@std@@SAABQAUHWND__@@ABU?$pair@QAUHWND__@@UCWndData@@@2@@Z
_TEXT	SEGMENT PARA USE32 PUBLIC 'CODE'
_TEXT	ENDS
;	COMDAT ??0?$allocator@U?$pair@QAUHWND__@@UCWndData@@@std@@@std@@QAE@ABV01@@Z
_TEXT	SEGMENT PARA USE32 PUBLIC 'CODE'
_TEXT	ENDS
;	COMDAT ?deallocate@?$allocator@U_Node@?$_Tree_nod@V?$_Tmap_traits@PAUHWND__@@UCWndData@@U?$less@PAUHWND__@@@std@@V?$allocator@U?$pair@QAUHWND__@@UCWndData@@@std@@@4@$0A@@std@@@std@@@std@@QAEXPAU_Node@?$_Tree_nod@V?$_Tmap_traits@PAUHWND__@@UCWndData@@U?$less@PAUHWND__@@@std@@V?$allocator@U?$pair@QAUHWND__@@UCWndData@@@std@@@4@$0A@@std@@@2@I@Z
_TEXT	SEGMENT PARA USE32 PUBLIC 'CODE'
_TEXT	ENDS
;	COMDAT ?destroy@?$allocator@PAU_Node@?$_Tree_nod@V?$_Tmap_traits@PAUHWND__@@UCWndData@@U?$less@PAUHWND__@@@std@@V?$allocator@U?$pair@QAUHWND__@@UCWndData@@@std@@@4@$0A@@std@@@std@@@std@@QAEXPAPAU_Node@?$_Tree_nod@V?$_Tmap_traits@PAUHWND__@@UCWndData@@U?$less@PAUHWND__@@@std@@V?$allocator@U?$pair@QAUHWND__@@UCWndData@@@std@@@4@$0A@@std@@@2@@Z
_TEXT	SEGMENT PARA USE32 PUBLIC 'CODE'
_TEXT	ENDS
;	COMDAT ?max_size@?$vector@PAVCHostWnd@@V?$allocator@PAVCHostWnd@@@std@@@std@@QBEIXZ
_TEXT	SEGMENT PARA USE32 PUBLIC 'CODE'
_TEXT	ENDS
;	COMDAT ?_Destroy@?$vector@PAVCHostWnd@@V?$allocator@PAVCHostWnd@@@std@@@std@@IAEXPAPAVCHostWnd@@0@Z
_TEXT	SEGMENT PARA USE32 PUBLIC 'CODE'
_TEXT	ENDS
;	COMDAT ?_Insert_n@?$vector@PAVCHostWnd@@V?$allocator@PAVCHostWnd@@@std@@@std@@IAEXViterator@12@IABQAVCHostWnd@@@Z
_TEXT	SEGMENT PARA USE32 PUBLIC 'CODE'
_TEXT	ENDS
;	COMDAT ?_Xlen@?$vector@PAVCHostWnd@@V?$allocator@PAVCHostWnd@@@std@@@std@@IBEXXZ
_TEXT	SEGMENT PARA USE32 PUBLIC 'CODE'
_TEXT	ENDS
;	COMDAT ??0?$allocator@PAVCHostWnd@@@std@@QAE@ABV01@@Z
_TEXT	SEGMENT PARA USE32 PUBLIC 'CODE'
_TEXT	ENDS
;	COMDAT ?deallocate@?$allocator@PAVCHostWnd@@@std@@QAEXPAPAVCHostWnd@@I@Z
_TEXT	SEGMENT PARA USE32 PUBLIC 'CODE'
_TEXT	ENDS
;	COMDAT ?allocate@?$allocator@PAVCHostWnd@@@std@@QAEPAPAVCHostWnd@@I@Z
_TEXT	SEGMENT PARA USE32 PUBLIC 'CODE'
_TEXT	ENDS
;	COMDAT ?begin@?$vector@PAVILyricPopupWndShowObserver@@V?$allocator@PAVILyricPopupWndShowObserver@@@std@@@std@@QAE?AViterator@12@XZ
_TEXT	SEGMENT PARA USE32 PUBLIC 'CODE'
_TEXT	ENDS
;	COMDAT ?max_size@?$vector@PAVILyricPopupWndShowObserver@@V?$allocator@PAVILyricPopupWndShowObserver@@@std@@@std@@QBEIXZ
_TEXT	SEGMENT PARA USE32 PUBLIC 'CODE'
_TEXT	ENDS
;	COMDAT ?_Destroy@?$vector@PAVILyricPopupWndShowObserver@@V?$allocator@PAVILyricPopupWndShowObserver@@@std@@@std@@IAEXPAPAVILyricPopupWndShowObserver@@0@Z
_TEXT	SEGMENT PARA USE32 PUBLIC 'CODE'
_TEXT	ENDS
;	COMDAT ?_Insert_n@?$vector@PAVILyricPopupWndShowObserver@@V?$allocator@PAVILyricPopupWndShowObserver@@@std@@@std@@IAEXViterator@12@IABQAVILyricPopupWndShowObserver@@@Z
_TEXT	SEGMENT PARA USE32 PUBLIC 'CODE'
_TEXT	ENDS
;	COMDAT ?_Xlen@?$vector@PAVILyricPopupWndShowObserver@@V?$allocator@PAVILyricPopupWndShowObserver@@@std@@@std@@IBEXXZ
_TEXT	SEGMENT PARA USE32 PUBLIC 'CODE'
_TEXT	ENDS
;	COMDAT ??0?$allocator@PAVILyricPopupWndShowObserver@@@std@@QAE@ABV01@@Z
_TEXT	SEGMENT PARA USE32 PUBLIC 'CODE'
_TEXT	ENDS
;	COMDAT ?deallocate@?$allocator@PAVILyricPopupWndShowObserver@@@std@@QAEXPAPAVILyricPopupWndShowObserver@@I@Z
_TEXT	SEGMENT PARA USE32 PUBLIC 'CODE'
_TEXT	ENDS
;	COMDAT ?allocate@?$allocator@PAVILyricPopupWndShowObserver@@@std@@QAEPAPAVILyricPopupWndShowObserver@@I@Z
_TEXT	SEGMENT PARA USE32 PUBLIC 'CODE'
_TEXT	ENDS
;	COMDAT ??0iterator@?$_Tree@V?$_Tmap_traits@PAUHWND__@@UCWndData@@U?$less@PAUHWND__@@@std@@V?$allocator@U?$pair@QAUHWND__@@UCWndData@@@std@@@4@$0A@@std@@@std@@QAE@XZ
_TEXT	SEGMENT PARA USE32 PUBLIC 'CODE'
_TEXT	ENDS
;	COMDAT ??Fiterator@?$_Tree@V?$_Tmap_traits@PAUHWND__@@UCWndData@@U?$less@PAUHWND__@@@std@@V?$allocator@U?$pair@QAUHWND__@@UCWndData@@@std@@@4@$0A@@std@@@std@@QAEAAV012@XZ
_TEXT	SEGMENT PARA USE32 PUBLIC 'CODE'
_TEXT	ENDS
;	COMDAT ??0const_iterator@?$_Tree@V?$_Tmap_traits@PAUHWND__@@UCWndData@@U?$less@PAUHWND__@@@std@@V?$allocator@U?$pair@QAUHWND__@@UCWndData@@@std@@@4@$0A@@std@@@std@@QAE@PAU_Node@?$_Tree_nod@V?$_Tmap_traits@PAUHWND__@@UCWndData@@U?$less@PAUHWND__@@@std@@V?$allocator@U?$pair@QAUHWND__@@UCWndData@@@std@@@4@$0A@@std@@@2@@Z
_TEXT	SEGMENT PARA USE32 PUBLIC 'CODE'
_TEXT	ENDS
;	COMDAT ??Dconst_iterator@?$_Tree@V?$_Tmap_traits@PAUHWND__@@UCWndData@@U?$less@PAUHWND__@@@std@@V?$allocator@U?$pair@QAUHWND__@@UCWndData@@@std@@@4@$0A@@std@@@std@@QBEABU?$pair@QAUHWND__@@UCWndData@@@2@XZ
_TEXT	SEGMENT PARA USE32 PUBLIC 'CODE'
_TEXT	ENDS
;	COMDAT ??Econst_iterator@?$_Tree@V?$_Tmap_traits@PAUHWND__@@UCWndData@@U?$less@PAUHWND__@@@std@@V?$allocator@U?$pair@QAUHWND__@@UCWndData@@@std@@@4@$0A@@std@@@std@@QAEAAV012@XZ
_TEXT	SEGMENT PARA USE32 PUBLIC 'CODE'
_TEXT	ENDS
;	COMDAT ??0iterator@?$vector@PAVCHostWnd@@V?$allocator@PAVCHostWnd@@@std@@@std@@QAE@PAPAVCHostWnd@@@Z
_TEXT	SEGMENT PARA USE32 PUBLIC 'CODE'
_TEXT	ENDS
;	COMDAT ??Yiterator@?$vector@PAVCHostWnd@@V?$allocator@PAVCHostWnd@@@std@@@std@@QAEAAV012@H@Z
_TEXT	SEGMENT PARA USE32 PUBLIC 'CODE'
_TEXT	ENDS
;	COMDAT ??Giterator@?$vector@PAVCHostWnd@@V?$allocator@PAVCHostWnd@@@std@@@std@@QBEHABVconst_iterator@12@@Z
_TEXT	SEGMENT PARA USE32 PUBLIC 'CODE'
_TEXT	ENDS
;	COMDAT ??Dconst_iterator@?$vector@PAVCHostWnd@@V?$allocator@PAVCHostWnd@@@std@@@std@@QBEABQAVCHostWnd@@XZ
_TEXT	SEGMENT PARA USE32 PUBLIC 'CODE'
_TEXT	ENDS
;	COMDAT ??0iterator@?$vector@PAVILyricPopupWndShowObserver@@V?$allocator@PAVILyricPopupWndShowObserver@@@std@@@std@@QAE@PAPAVILyricPopupWndShowObserver@@@Z
_TEXT	SEGMENT PARA USE32 PUBLIC 'CODE'
_TEXT	ENDS
;	COMDAT ??Hiterator@?$vector@PAVILyricPopupWndShowObserver@@V?$allocator@PAVILyricPopupWndShowObserver@@@std@@@std@@QBE?AV012@H@Z
_TEXT	SEGMENT PARA USE32 PUBLIC 'CODE'
_TEXT	ENDS
;	COMDAT ??Giterator@?$vector@PAVILyricPopupWndShowObserver@@V?$allocator@PAVILyricPopupWndShowObserver@@@std@@@std@@QBEHABVconst_iterator@12@@Z
_TEXT	SEGMENT PARA USE32 PUBLIC 'CODE'
_TEXT	ENDS
;	COMDAT ??0iterator@?$vector@USepWindowData@@V?$allocator@USepWindowData@@@std@@@std@@QAE@PAUSepWindowData@@@Z
_TEXT	SEGMENT PARA USE32 PUBLIC 'CODE'
_TEXT	ENDS
;	COMDAT ??Yiterator@?$vector@USepWindowData@@V?$allocator@USepWindowData@@@std@@@std@@QAEAAV012@H@Z
_TEXT	SEGMENT PARA USE32 PUBLIC 'CODE'
_TEXT	ENDS
;	COMDAT ??Dconst_iterator@?$vector@USepWindowData@@V?$allocator@USepWindowData@@@std@@@std@@QBEABUSepWindowData@@XZ
_TEXT	SEGMENT PARA USE32 PUBLIC 'CODE'
_TEXT	ENDS
;	COMDAT ??0length_error@std@@QAE@ABV01@@Z
_TEXT	SEGMENT PARA USE32 PUBLIC 'CODE'
_TEXT	ENDS
;	COMDAT ?_Color@?$_Tree@V?$_Tmap_traits@PAUHWND__@@UCWndData@@U?$less@PAUHWND__@@@std@@V?$allocator@U?$pair@QAUHWND__@@UCWndData@@@std@@@4@$0A@@std@@@std@@KAAADPAU_Node@?$_Tree_nod@V?$_Tmap_traits@PAUHWND__@@UCWndData@@U?$less@PAUHWND__@@@std@@V?$allocator@U?$pair@QAUHWND__@@UCWndData@@@std@@@4@$0A@@std@@@2@@Z
_TEXT	SEGMENT PARA USE32 PUBLIC 'CODE'
_TEXT	ENDS
;	COMDAT ?max_size@?$_Tree@V?$_Tmap_traits@PAUHWND__@@UCWndData@@U?$less@PAUHWND__@@@std@@V?$allocator@U?$pair@QAUHWND__@@UCWndData@@@std@@@4@$0A@@std@@@std@@QBEIXZ
_TEXT	SEGMENT PARA USE32 PUBLIC 'CODE'
_TEXT	ENDS
;	COMDAT ?erase@?$_Tree@V?$_Tmap_traits@PAUHWND__@@UCWndData@@U?$less@PAUHWND__@@@std@@V?$allocator@U?$pair@QAUHWND__@@UCWndData@@@std@@@4@$0A@@std@@@std@@QAE?AViterator@12@V312@@Z
_TEXT	SEGMENT PARA USE32 PUBLIC 'CODE'
_TEXT	ENDS
;	COMDAT ?clear@?$_Tree@V?$_Tmap_traits@PAUHWND__@@UCWndData@@U?$less@PAUHWND__@@@std@@V?$allocator@U?$pair@QAUHWND__@@UCWndData@@@std@@@4@$0A@@std@@@std@@QAEXXZ
_TEXT	SEGMENT PARA USE32 PUBLIC 'CODE'
_TEXT	ENDS
;	COMDAT ?_Lrotate@?$_Tree@V?$_Tmap_traits@PAUHWND__@@UCWndData@@U?$less@PAUHWND__@@@std@@V?$allocator@U?$pair@QAUHWND__@@UCWndData@@@std@@@4@$0A@@std@@@std@@IAEXPAU_Node@?$_Tree_nod@V?$_Tmap_traits@PAUHWND__@@UCWndData@@U?$less@PAUHWND__@@@std@@V?$allocator@U?$pair@QAUHWND__@@UCWndData@@@std@@@4@$0A@@std@@@2@@Z
_TEXT	SEGMENT PARA USE32 PUBLIC 'CODE'
_TEXT	ENDS
;	COMDAT ?_Root@?$_Tree@V?$_Tmap_traits@PAUHWND__@@UCWndData@@U?$less@PAUHWND__@@@std@@V?$allocator@U?$pair@QAUHWND__@@UCWndData@@@std@@@4@$0A@@std@@@std@@IAEAAPAU_Node@?$_Tree_nod@V?$_Tmap_traits@PAUHWND__@@UCWndData@@U?$less@PAUHWND__@@@std@@V?$allocator@U?$pair@QAUHWND__@@UCWndData@@@std@@@4@$0A@@std@@@2@XZ
_TEXT	SEGMENT PARA USE32 PUBLIC 'CODE'
_TEXT	ENDS
;	COMDAT ?_Root@?$_Tree@V?$_Tmap_traits@PAUHWND__@@UCWndData@@U?$less@PAUHWND__@@@std@@V?$allocator@U?$pair@QAUHWND__@@UCWndData@@@std@@@4@$0A@@std@@@std@@IBEAAPAU_Node@?$_Tree_nod@V?$_Tmap_traits@PAUHWND__@@UCWndData@@U?$less@PAUHWND__@@@std@@V?$allocator@U?$pair@QAUHWND__@@UCWndData@@@std@@@4@$0A@@std@@@2@XZ
_TEXT	SEGMENT PARA USE32 PUBLIC 'CODE'
_TEXT	ENDS
;	COMDAT ?_Rrotate@?$_Tree@V?$_Tmap_traits@PAUHWND__@@UCWndData@@U?$less@PAUHWND__@@@std@@V?$allocator@U?$pair@QAUHWND__@@UCWndData@@@std@@@4@$0A@@std@@@std@@IAEXPAU_Node@?$_Tree_nod@V?$_Tmap_traits@PAUHWND__@@UCWndData@@U?$less@PAUHWND__@@@std@@V?$allocator@U?$pair@QAUHWND__@@UCWndData@@@std@@@4@$0A@@std@@@2@@Z
_TEXT	SEGMENT PARA USE32 PUBLIC 'CODE'
_TEXT	ENDS
;	COMDAT ?_Buynode@?$_Tree@V?$_Tmap_traits@PAUHWND__@@UCWndData@@U?$less@PAUHWND__@@@std@@V?$allocator@U?$pair@QAUHWND__@@UCWndData@@@std@@@4@$0A@@std@@@std@@IAEPAU_Node@?$_Tree_nod@V?$_Tmap_traits@PAUHWND__@@UCWndData@@U?$less@PAUHWND__@@@std@@V?$allocator@U?$pair@QAUHWND__@@UCWndData@@@std@@@4@$0A@@std@@@2@XZ
_TEXT	SEGMENT PARA USE32 PUBLIC 'CODE'
_TEXT	ENDS
;	COMDAT ?_Buynode@?$_Tree@V?$_Tmap_traits@PAUHWND__@@UCWndData@@U?$less@PAUHWND__@@@std@@V?$allocator@U?$pair@QAUHWND__@@UCWndData@@@std@@@4@$0A@@std@@@std@@IAEPAU_Node@?$_Tree_nod@V?$_Tmap_traits@PAUHWND__@@UCWndData@@U?$less@PAUHWND__@@@std@@V?$allocator@U?$pair@QAUHWND__@@UCWndData@@@std@@@4@$0A@@std@@@2@PAU342@00ABU?$pair@QAUHWND__@@UCWndData@@@2@D@Z
_TEXT	SEGMENT PARA USE32 PUBLIC 'CODE'
_TEXT	ENDS
;	COMDAT ??0?$_Tree_ptr@V?$_Tmap_traits@PAUHWND__@@UCWndData@@U?$less@PAUHWND__@@@std@@V?$allocator@U?$pair@QAUHWND__@@UCWndData@@@std@@@4@$0A@@std@@@std@@IAE@ABU?$less@PAUHWND__@@@1@V?$allocator@U?$pair@QAUHWND__@@UCWndData@@@std@@@1@@Z
_TEXT	SEGMENT PARA USE32 PUBLIC 'CODE'
_TEXT	ENDS
;	COMDAT ?max_size@?$allocator@PAVCHostWnd@@@std@@QBEIXZ
_TEXT	SEGMENT PARA USE32 PUBLIC 'CODE'
_TEXT	ENDS
;	COMDAT ?max_size@?$allocator@PAVILyricPopupWndShowObserver@@@std@@QBEIXZ
_TEXT	SEGMENT PARA USE32 PUBLIC 'CODE'
_TEXT	ENDS
;	COMDAT ??0const_iterator@?$_Tree@V?$_Tmap_traits@PAUHWND__@@UCWndData@@U?$less@PAUHWND__@@@std@@V?$allocator@U?$pair@QAUHWND__@@UCWndData@@@std@@@4@$0A@@std@@@std@@QAE@XZ
_TEXT	SEGMENT PARA USE32 PUBLIC 'CODE'
_TEXT	ENDS
;	COMDAT ??Fconst_iterator@?$_Tree@V?$_Tmap_traits@PAUHWND__@@UCWndData@@U?$less@PAUHWND__@@@std@@V?$allocator@U?$pair@QAUHWND__@@UCWndData@@@std@@@4@$0A@@std@@@std@@QAEAAV012@XZ
_TEXT	SEGMENT PARA USE32 PUBLIC 'CODE'
_TEXT	ENDS
;	COMDAT ?_Inc@const_iterator@?$_Tree@V?$_Tmap_traits@PAUHWND__@@UCWndData@@U?$less@PAUHWND__@@@std@@V?$allocator@U?$pair@QAUHWND__@@UCWndData@@@std@@@4@$0A@@std@@@std@@QAEXXZ
_TEXT	SEGMENT PARA USE32 PUBLIC 'CODE'
_TEXT	ENDS
;	COMDAT ??0const_iterator@?$vector@PAVCHostWnd@@V?$allocator@PAVCHostWnd@@@std@@@std@@QAE@PAPAVCHostWnd@@@Z
_TEXT	SEGMENT PARA USE32 PUBLIC 'CODE'
_TEXT	ENDS
;	COMDAT ??Gconst_iterator@?$vector@PAVCHostWnd@@V?$allocator@PAVCHostWnd@@@std@@@std@@QBEHABV012@@Z
_TEXT	SEGMENT PARA USE32 PUBLIC 'CODE'
_TEXT	ENDS
;	COMDAT ??Yiterator@?$vector@PAVILyricPopupWndShowObserver@@V?$allocator@PAVILyricPopupWndShowObserver@@@std@@@std@@QAEAAV012@H@Z
_TEXT	SEGMENT PARA USE32 PUBLIC 'CODE'
_TEXT	ENDS
;	COMDAT ??0const_iterator@?$vector@PAVILyricPopupWndShowObserver@@V?$allocator@PAVILyricPopupWndShowObserver@@@std@@@std@@QAE@PAPAVILyricPopupWndShowObserver@@@Z
_TEXT	SEGMENT PARA USE32 PUBLIC 'CODE'
_TEXT	ENDS
;	COMDAT ??Gconst_iterator@?$vector@PAVILyricPopupWndShowObserver@@V?$allocator@PAVILyricPopupWndShowObserver@@@std@@@std@@QBEHABV012@@Z
_TEXT	SEGMENT PARA USE32 PUBLIC 'CODE'
_TEXT	ENDS
;	COMDAT ??0const_iterator@?$vector@USepWindowData@@V?$allocator@USepWindowData@@@std@@@std@@QAE@PAUSepWindowData@@@Z
_TEXT	SEGMENT PARA USE32 PUBLIC 'CODE'
_TEXT	ENDS
;	COMDAT ??0?$pair@Viterator@?$_Tree@V?$_Tmap_traits@PAUHWND__@@UCWndData@@U?$less@PAUHWND__@@@std@@V?$allocator@U?$pair@QAUHWND__@@UCWndData@@@std@@@4@$0A@@std@@@std@@_N@std@@QAE@ABViterator@?$_Tree@V?$_Tmap_traits@PAUHWND__@@UCWndData@@U?$less@PAUHWND__@@@std@@V?$allocator@U?$pair@QAUHWND__@@UCWndData@@@std@@@4@$0A@@std@@@1@AB_N@Z
_TEXT	SEGMENT PARA USE32 PUBLIC 'CODE'
_TEXT	ENDS
;	COMDAT ?_Erase@?$_Tree@V?$_Tmap_traits@PAUHWND__@@UCWndData@@U?$less@PAUHWND__@@@std@@V?$allocator@U?$pair@QAUHWND__@@UCWndData@@@std@@@4@$0A@@std@@@std@@IAEXPAU_Node@?$_Tree_nod@V?$_Tmap_traits@PAUHWND__@@UCWndData@@U?$less@PAUHWND__@@@std@@V?$allocator@U?$pair@QAUHWND__@@UCWndData@@@std@@@4@$0A@@std@@@2@@Z
_TEXT	SEGMENT PARA USE32 PUBLIC 'CODE'
_TEXT	ENDS
;	COMDAT ?_Max@?$_Tree@V?$_Tmap_traits@PAUHWND__@@UCWndData@@U?$less@PAUHWND__@@@std@@V?$allocator@U?$pair@QAUHWND__@@UCWndData@@@std@@@4@$0A@@std@@@std@@KAPAU_Node@?$_Tree_nod@V?$_Tmap_traits@PAUHWND__@@UCWndData@@U?$less@PAUHWND__@@@std@@V?$allocator@U?$pair@QAUHWND__@@UCWndData@@@std@@@4@$0A@@std@@@2@PAU342@@Z
_TEXT	SEGMENT PARA USE32 PUBLIC 'CODE'
_TEXT	ENDS
;	COMDAT ?_Min@?$_Tree@V?$_Tmap_traits@PAUHWND__@@UCWndData@@U?$less@PAUHWND__@@@std@@V?$allocator@U?$pair@QAUHWND__@@UCWndData@@@std@@@4@$0A@@std@@@std@@KAPAU_Node@?$_Tree_nod@V?$_Tmap_traits@PAUHWND__@@UCWndData@@U?$less@PAUHWND__@@@std@@V?$allocator@U?$pair@QAUHWND__@@UCWndData@@@std@@@4@$0A@@std@@@2@PAU342@@Z
_TEXT	SEGMENT PARA USE32 PUBLIC 'CODE'
_TEXT	ENDS
;	COMDAT ??0?$_Tree_nod@V?$_Tmap_traits@PAUHWND__@@UCWndData@@U?$less@PAUHWND__@@@std@@V?$allocator@U?$pair@QAUHWND__@@UCWndData@@@std@@@4@$0A@@std@@@std@@IAE@ABU?$less@PAUHWND__@@@1@V?$allocator@U?$pair@QAUHWND__@@UCWndData@@@std@@@1@@Z
_TEXT	SEGMENT PARA USE32 PUBLIC 'CODE'
_TEXT	ENDS
;	COMDAT ?max_size@?$allocator@U?$pair@QAUHWND__@@UCWndData@@@std@@@std@@QBEIXZ
_TEXT	SEGMENT PARA USE32 PUBLIC 'CODE'
_TEXT	ENDS
;	COMDAT ?allocate@?$allocator@U_Node@?$_Tree_nod@V?$_Tmap_traits@PAUHWND__@@UCWndData@@U?$less@PAUHWND__@@@std@@V?$allocator@U?$pair@QAUHWND__@@UCWndData@@@std@@@4@$0A@@std@@@std@@@std@@QAEPAU_Node@?$_Tree_nod@V?$_Tmap_traits@PAUHWND__@@UCWndData@@U?$less@PAUHWND__@@@std@@V?$allocator@U?$pair@QAUHWND__@@UCWndData@@@std@@@4@$0A@@std@@@2@I@Z
_TEXT	SEGMENT PARA USE32 PUBLIC 'CODE'
_TEXT	ENDS
;	COMDAT ?destroy@?$allocator@U_Node@?$_Tree_nod@V?$_Tmap_traits@PAUHWND__@@UCWndData@@U?$less@PAUHWND__@@@std@@V?$allocator@U?$pair@QAUHWND__@@UCWndData@@@std@@@4@$0A@@std@@@std@@@std@@QAEXPAU_Node@?$_Tree_nod@V?$_Tmap_traits@PAUHWND__@@UCWndData@@U?$less@PAUHWND__@@@std@@V?$allocator@U?$pair@QAUHWND__@@UCWndData@@@std@@@4@$0A@@std@@@2@@Z
_TEXT	SEGMENT PARA USE32 PUBLIC 'CODE'
_TEXT	ENDS
;	COMDAT ?construct@?$allocator@PAU_Node@?$_Tree_nod@V?$_Tmap_traits@PAUHWND__@@UCWndData@@U?$less@PAUHWND__@@@std@@V?$allocator@U?$pair@QAUHWND__@@UCWndData@@@std@@@4@$0A@@std@@@std@@@std@@QAEXPAPAU_Node@?$_Tree_nod@V?$_Tmap_traits@PAUHWND__@@UCWndData@@U?$less@PAUHWND__@@@std@@V?$allocator@U?$pair@QAUHWND__@@UCWndData@@@std@@@4@$0A@@std@@@2@ABQAU342@@Z
_TEXT	SEGMENT PARA USE32 PUBLIC 'CODE'
_TEXT	ENDS
;	COMDAT ?_Dec@const_iterator@?$_Tree@V?$_Tmap_traits@PAUHWND__@@UCWndData@@U?$less@PAUHWND__@@@std@@V?$allocator@U?$pair@QAUHWND__@@UCWndData@@@std@@@4@$0A@@std@@@std@@QAEXXZ
_TEXT	SEGMENT PARA USE32 PUBLIC 'CODE'
_TEXT	ENDS
;	COMDAT ??0_Node@?$_Tree_nod@V?$_Tmap_traits@PAUHWND__@@UCWndData@@U?$less@PAUHWND__@@@std@@V?$allocator@U?$pair@QAUHWND__@@UCWndData@@@std@@@4@$0A@@std@@@std@@QAE@PAU012@00ABU?$pair@QAUHWND__@@UCWndData@@@2@D@Z
_TEXT	SEGMENT PARA USE32 PUBLIC 'CODE'
_TEXT	ENDS
;	COMDAT ??0?$_Tmap_traits@PAUHWND__@@UCWndData@@U?$less@PAUHWND__@@@std@@V?$allocator@U?$pair@QAUHWND__@@UCWndData@@@std@@@4@$0A@@std@@QAE@U?$less@PAUHWND__@@@1@@Z
_TEXT	SEGMENT PARA USE32 PUBLIC 'CODE'
_TEXT	ENDS
;	COMDAT ?Unlock@?$CComCritSecLock@VCComCriticalSection@ATL@@@ATL@@QAEXXZ
_TEXT	SEGMENT PARA USE32 PUBLIC 'CODE'
_TEXT	ENDS
;	COMDAT ??$_Uninitialized_fill_n@PAPAVCHostWnd@@IPAV1@V?$allocator@PAVCHostWnd@@@std@@@std@@YAXPAPAVCHostWnd@@IABQAV1@AAV?$allocator@PAVCHostWnd@@@0@@Z
_TEXT	SEGMENT PARA USE32 PUBLIC 'CODE'
_TEXT	ENDS
;	COMDAT ??$_Uninitialized_fill_n@PAPAVILyricPopupWndShowObserver@@IPAV1@V?$allocator@PAVILyricPopupWndShowObserver@@@std@@@std@@YAXPAPAVILyricPopupWndShowObserver@@IABQAV1@AAV?$allocator@PAVILyricPopupWndShowObserver@@@0@@Z
_TEXT	SEGMENT PARA USE32 PUBLIC 'CODE'
_TEXT	ENDS
;	COMDAT ??$_Maklocstr@D@std@@YAPADPBDPADABU_Cvtvec@@@Z
_TEXT	SEGMENT PARA USE32 PUBLIC 'CODE'
_TEXT	ENDS
;	COMDAT ??$_Destroy@PAU_Node@?$_Tree_nod@V?$_Tmap_traits@PAUHWND__@@UCWndData@@U?$less@PAUHWND__@@@std@@V?$allocator@U?$pair@QAUHWND__@@UCWndData@@@std@@@4@$0A@@std@@@std@@@std@@YAXPAPAU_Node@?$_Tree_nod@V?$_Tmap_traits@PAUHWND__@@UCWndData@@U?$less@PAUHWND__@@@std@@V?$allocator@U?$pair@QAUHWND__@@UCWndData@@@std@@@4@$0A@@std@@@0@@Z
_TEXT	SEGMENT PARA USE32 PUBLIC 'CODE'
_TEXT	ENDS
;	COMDAT ??$_Destroy_range@PAVCHostWnd@@V?$allocator@PAVCHostWnd@@@std@@@std@@YAXPAPAVCHostWnd@@0AAV?$allocator@PAVCHostWnd@@@0@@Z
_TEXT	SEGMENT PARA USE32 PUBLIC 'CODE'
_TEXT	ENDS
;	COMDAT ??$_Ucopy@PAPAVCHostWnd@@@?$vector@PAVCHostWnd@@V?$allocator@PAVCHostWnd@@@std@@@std@@IAEPAPAVCHostWnd@@PAPAV2@00@Z
_TEXT	SEGMENT PARA USE32 PUBLIC 'CODE'
_TEXT	ENDS
;	COMDAT ??$fill@PAPAVCHostWnd@@PAV1@@std@@YAXPAPAVCHostWnd@@0ABQAV1@@Z
_TEXT	SEGMENT PARA USE32 PUBLIC 'CODE'
_TEXT	ENDS
;	COMDAT ??$copy_backward@PAPAVCHostWnd@@PAPAV1@@std@@YAPAPAVCHostWnd@@PAPAV1@00@Z
_TEXT	SEGMENT PARA USE32 PUBLIC 'CODE'
_TEXT	ENDS
;	COMDAT ??$_Allocate@PAVCHostWnd@@@std@@YAPAPAVCHostWnd@@IPAPAV1@@Z
_TEXT	SEGMENT PARA USE32 PUBLIC 'CODE'
_TEXT	ENDS
;	COMDAT ??$_Destroy_range@PAVILyricPopupWndShowObserver@@V?$allocator@PAVILyricPopupWndShowObserver@@@std@@@std@@YAXPAPAVILyricPopupWndShowObserver@@0AAV?$allocator@PAVILyricPopupWndShowObserver@@@0@@Z
_TEXT	SEGMENT PARA USE32 PUBLIC 'CODE'
_TEXT	ENDS
;	COMDAT ??$_Ucopy@PAPAVILyricPopupWndShowObserver@@@?$vector@PAVILyricPopupWndShowObserver@@V?$allocator@PAVILyricPopupWndShowObserver@@@std@@@std@@IAEPAPAVILyricPopupWndShowObserver@@PAPAV2@00@Z
_TEXT	SEGMENT PARA USE32 PUBLIC 'CODE'
_TEXT	ENDS
;	COMDAT ??$fill@PAPAVILyricPopupWndShowObserver@@PAV1@@std@@YAXPAPAVILyricPopupWndShowObserver@@0ABQAV1@@Z
_TEXT	SEGMENT PARA USE32 PUBLIC 'CODE'
_TEXT	ENDS
;	COMDAT ??$copy_backward@PAPAVILyricPopupWndShowObserver@@PAPAV1@@std@@YAPAPAVILyricPopupWndShowObserver@@PAPAV1@00@Z
_TEXT	SEGMENT PARA USE32 PUBLIC 'CODE'
_TEXT	ENDS
;	COMDAT ??$_Allocate@PAVILyricPopupWndShowObserver@@@std@@YAPAPAVILyricPopupWndShowObserver@@IPAPAV1@@Z
_TEXT	SEGMENT PARA USE32 PUBLIC 'CODE'
_TEXT	ENDS
;	COMDAT ??$?0U?$pair@QAUHWND__@@UCWndData@@@std@@@?$allocator@PAU_Node@?$_Tree_nod@V?$_Tmap_traits@PAUHWND__@@UCWndData@@U?$less@PAUHWND__@@@std@@V?$allocator@U?$pair@QAUHWND__@@UCWndData@@@std@@@4@$0A@@std@@@std@@@std@@QAE@ABV?$allocator@U?$pair@QAUHWND__@@UCWndData@@@std@@@1@@Z
_TEXT	SEGMENT PARA USE32 PUBLIC 'CODE'
_TEXT	ENDS
;	COMDAT ??$?0U?$pair@QAUHWND__@@UCWndData@@@std@@@?$allocator@U_Node@?$_Tree_nod@V?$_Tmap_traits@PAUHWND__@@UCWndData@@U?$less@PAUHWND__@@@std@@V?$allocator@U?$pair@QAUHWND__@@UCWndData@@@std@@@4@$0A@@std@@@std@@@std@@QAE@ABV?$allocator@U?$pair@QAUHWND__@@UCWndData@@@std@@@1@@Z
_TEXT	SEGMENT PARA USE32 PUBLIC 'CODE'
_TEXT	ENDS
;	COMDAT ??$_Allocate@U_Node@?$_Tree_nod@V?$_Tmap_traits@PAUHWND__@@UCWndData@@U?$less@PAUHWND__@@@std@@V?$allocator@U?$pair@QAUHWND__@@UCWndData@@@std@@@4@$0A@@std@@@std@@@std@@YAPAU_Node@?$_Tree_nod@V?$_Tmap_traits@PAUHWND__@@UCWndData@@U?$less@PAUHWND__@@@std@@V?$allocator@U?$pair@QAUHWND__@@UCWndData@@@std@@@4@$0A@@std@@@0@IPAU120@@Z
_TEXT	SEGMENT PARA USE32 PUBLIC 'CODE'
_TEXT	ENDS
;	COMDAT ??$_Destroy@U_Node@?$_Tree_nod@V?$_Tmap_traits@PAUHWND__@@UCWndData@@U?$less@PAUHWND__@@@std@@V?$allocator@U?$pair@QAUHWND__@@UCWndData@@@std@@@4@$0A@@std@@@std@@@std@@YAXPAU_Node@?$_Tree_nod@V?$_Tmap_traits@PAUHWND__@@UCWndData@@U?$less@PAUHWND__@@@std@@V?$allocator@U?$pair@QAUHWND__@@UCWndData@@@std@@@4@$0A@@std@@@0@@Z
_TEXT	SEGMENT PARA USE32 PUBLIC 'CODE'
_TEXT	ENDS
;	COMDAT ??$_Construct@PAU_Node@?$_Tree_nod@V?$_Tmap_traits@PAUHWND__@@UCWndData@@U?$less@PAUHWND__@@@std@@V?$allocator@U?$pair@QAUHWND__@@UCWndData@@@std@@@4@$0A@@std@@@std@@PAU123@@std@@YAXPAPAU_Node@?$_Tree_nod@V?$_Tmap_traits@PAUHWND__@@UCWndData@@U?$less@PAUHWND__@@@std@@V?$allocator@U?$pair@QAUHWND__@@UCWndData@@@std@@@4@$0A@@std@@@0@ABQAU120@@Z
_TEXT	SEGMENT PARA USE32 PUBLIC 'CODE'
_TEXT	ENDS
;	COMDAT ??$_Ptr_cat@VCHostWnd@@@std@@YA?AU_Scalar_ptr_iterator_tag@0@PAPAVCHostWnd@@0@Z
_TEXT	SEGMENT PARA USE32 PUBLIC 'CODE'
_TEXT	ENDS
;	COMDAT ??$_Uninit_fill_n@PAVCHostWnd@@IPAV1@@std@@YAXPAPAVCHostWnd@@IABQAV1@AAV?$allocator@PAVCHostWnd@@@0@U_Scalar_ptr_iterator_tag@0@@Z
_TEXT	SEGMENT PARA USE32 PUBLIC 'CODE'
_TEXT	ENDS
;	COMDAT ??$_Ptr_cat@VILyricPopupWndShowObserver@@@std@@YA?AU_Scalar_ptr_iterator_tag@0@PAPAVILyricPopupWndShowObserver@@0@Z
_TEXT	SEGMENT PARA USE32 PUBLIC 'CODE'
_TEXT	ENDS
;	COMDAT ??$_Uninit_fill_n@PAVILyricPopupWndShowObserver@@IPAV1@@std@@YAXPAPAVILyricPopupWndShowObserver@@IABQAV1@AAV?$allocator@PAVILyricPopupWndShowObserver@@@0@U_Scalar_ptr_iterator_tag@0@@Z
_TEXT	SEGMENT PARA USE32 PUBLIC 'CODE'
_TEXT	ENDS
;	COMDAT ??$_Destroy_range@PAVCHostWnd@@V?$allocator@PAVCHostWnd@@@std@@@std@@YAXPAPAVCHostWnd@@0AAV?$allocator@PAVCHostWnd@@@0@U_Scalar_ptr_iterator_tag@0@@Z
_TEXT	SEGMENT PARA USE32 PUBLIC 'CODE'
_TEXT	ENDS
;	COMDAT ??$_Uninitialized_copy@PAPAVCHostWnd@@PAPAV1@V?$allocator@PAVCHostWnd@@@std@@@std@@YAPAPAVCHostWnd@@PAPAV1@00AAV?$allocator@PAVCHostWnd@@@0@@Z
_TEXT	SEGMENT PARA USE32 PUBLIC 'CODE'
_TEXT	ENDS
;	COMDAT ??$_Copy_backward_opt@PAPAVCHostWnd@@PAPAV1@@std@@YAPAPAVCHostWnd@@PAPAV1@00U_Scalar_ptr_iterator_tag@0@@Z
_TEXT	SEGMENT PARA USE32 PUBLIC 'CODE'
_TEXT	ENDS
;	COMDAT ??$_Destroy_range@PAVILyricPopupWndShowObserver@@V?$allocator@PAVILyricPopupWndShowObserver@@@std@@@std@@YAXPAPAVILyricPopupWndShowObserver@@0AAV?$allocator@PAVILyricPopupWndShowObserver@@@0@U_Scalar_ptr_iterator_tag@0@@Z
_TEXT	SEGMENT PARA USE32 PUBLIC 'CODE'
_TEXT	ENDS
;	COMDAT ??$_Uninitialized_copy@PAPAVILyricPopupWndShowObserver@@PAPAV1@V?$allocator@PAVILyricPopupWndShowObserver@@@std@@@std@@YAPAPAVILyricPopupWndShowObserver@@PAPAV1@00AAV?$allocator@PAVILyricPopupWndShowObserver@@@0@@Z
_TEXT	SEGMENT PARA USE32 PUBLIC 'CODE'
_TEXT	ENDS
;	COMDAT ??$_Copy_backward_opt@PAPAVILyricPopupWndShowObserver@@PAPAV1@@std@@YAPAPAVILyricPopupWndShowObserver@@PAPAV1@00U_Scalar_ptr_iterator_tag@0@@Z
_TEXT	SEGMENT PARA USE32 PUBLIC 'CODE'
_TEXT	ENDS
;	COMDAT ??$fill_n@PAPAVCHostWnd@@IPAV1@@std@@YAXPAPAVCHostWnd@@IABQAV1@@Z
_TEXT	SEGMENT PARA USE32 PUBLIC 'CODE'
_TEXT	ENDS
;	COMDAT ??$fill_n@PAPAVILyricPopupWndShowObserver@@IPAV1@@std@@YAXPAPAVILyricPopupWndShowObserver@@IABQAV1@@Z
_TEXT	SEGMENT PARA USE32 PUBLIC 'CODE'
_TEXT	ENDS
;	COMDAT ??$_Uninit_copy@PAVCHostWnd@@PAV1@@std@@YAPAPAVCHostWnd@@PAPAV1@00AAV?$allocator@PAVCHostWnd@@@0@U_Scalar_ptr_iterator_tag@0@@Z
_TEXT	SEGMENT PARA USE32 PUBLIC 'CODE'
_TEXT	ENDS
;	COMDAT ??$_Uninit_copy@PAVILyricPopupWndShowObserver@@PAV1@@std@@YAPAPAVILyricPopupWndShowObserver@@PAPAV1@00AAV?$allocator@PAVILyricPopupWndShowObserver@@@0@U_Scalar_ptr_iterator_tag@0@@Z
_TEXT	SEGMENT PARA USE32 PUBLIC 'CODE'
_TEXT	ENDS
;	COMDAT ??_R3?$numpunct@_W@std@@8
rdata$r	SEGMENT DWORD USE32 PUBLIC 'CONST'
rdata$r	ENDS
;	COMDAT ??_R3?$numpunct@D@std@@8
rdata$r	SEGMENT DWORD USE32 PUBLIC 'CONST'
rdata$r	ENDS
;	COMDAT ??_R3IData@@8
rdata$r	SEGMENT DWORD USE32 PUBLIC 'CONST'
rdata$r	ENDS
;	COMDAT ??_R2?$numpunct@_W@std@@8
rdata$r	SEGMENT DWORD USE32 PUBLIC 'CONST'
rdata$r	ENDS
;	COMDAT ??_R2?$numpunct@D@std@@8
rdata$r	SEGMENT DWORD USE32 PUBLIC 'CONST'
rdata$r	ENDS
;	COMDAT ??_R2IData@@8
rdata$r	SEGMENT DWORD USE32 PUBLIC 'CONST'
rdata$r	ENDS
;	COMDAT ??_R1A@?0A@A@?$numpunct@_W@std@@8
rdata$r	SEGMENT DWORD USE32 PUBLIC 'CONST'
rdata$r	ENDS
;	COMDAT ??_R1A@?0A@A@facet@locale@std@@8
rdata$r	SEGMENT DWORD USE32 PUBLIC 'CONST'
rdata$r	ENDS
;	COMDAT ??_R0?AVfacet@locale@std@@@8
_DATA	SEGMENT DWORD USE32 PUBLIC 'DATA'
_DATA	ENDS
;	COMDAT ??_R1A@?0A@A@?$numpunct@D@std@@8
rdata$r	SEGMENT DWORD USE32 PUBLIC 'CONST'
rdata$r	ENDS
;	COMDAT ??_R1A@?0A@A@IData@@8
rdata$r	SEGMENT DWORD USE32 PUBLIC 'CONST'
rdata$r	ENDS
;	COMDAT ??_R0?AV?$numpunct@_W@std@@@8
_DATA	SEGMENT DWORD USE32 PUBLIC 'DATA'
_DATA	ENDS
;	COMDAT ??_R0?AV?$numpunct@D@std@@@8
_DATA	SEGMENT DWORD USE32 PUBLIC 'DATA'
_DATA	ENDS
;	COMDAT ??_R0?AVIData@@@8
_DATA	SEGMENT DWORD USE32 PUBLIC 'DATA'
_DATA	ENDS
;	COMDAT ??0?$allocator@_W@std@@QAE@XZ
_TEXT	SEGMENT PARA USE32 PUBLIC 'CODE'
_TEXT	ENDS
;	COMDAT ??_G?$numpunct@_W@std@@MAEPAXI@Z
_TEXT	SEGMENT PARA USE32 PUBLIC 'CODE'
_TEXT	ENDS
;	COMDAT ??_R4?$numpunct@_W@std@@6B@
rdata$r	SEGMENT DWORD USE32 PUBLIC 'CONST'
rdata$r	ENDS
;	COMDAT ??_G?$numpunct@D@std@@MAEPAXI@Z
_TEXT	SEGMENT PARA USE32 PUBLIC 'CODE'
_TEXT	ENDS
;	COMDAT ??_R4?$numpunct@D@std@@6B@
rdata$r	SEGMENT DWORD USE32 PUBLIC 'CONST'
rdata$r	ENDS
;	COMDAT ??_R4IData@@6B@
rdata$r	SEGMENT DWORD USE32 PUBLIC 'CONST'
rdata$r	ENDS
;	COMDAT ??_C@_0EN@CBMLGOH@D?3?2Program?5Files?5?$CIx86?$CJ?2Microsoft@
CONST	SEGMENT DWORD USE32 PUBLIC 'CONST'
CONST	ENDS
;	COMDAT ?_Psave@?$_Facetptr@V?$numpunct@_W@std@@@std@@2PBVfacet@locale@2@B
_DATA	SEGMENT DWORD USE32 PUBLIC 'DATA'
_DATA	ENDS
;	COMDAT ?_Psave@?$_Facetptr@V?$numpunct@D@std@@@std@@2PBVfacet@locale@2@B
_DATA	SEGMENT DWORD USE32 PUBLIC 'DATA'
_DATA	ENDS
;	COMDAT ?Unlock@CComCriticalSection@ATL@@QAEJXZ
_TEXT	SEGMENT PARA USE32 PUBLIC 'CODE'
_TEXT	ENDS
;	COMDAT ??_C@_0FG@LDNDNCJM@D?3?2Program?5Files?5?$CIx86?$CJ?2Microsoft@
CONST	SEGMENT DWORD USE32 PUBLIC 'CONST'
CONST	ENDS
;	COMDAT ??_C@_09HIEJFN@m_bLocked?$AA@
CONST	SEGMENT DWORD USE32 PUBLIC 'CONST'
CONST	ENDS
;	COMDAT ?_Psave@?$_Facetptr@V?$ctype@_W@std@@@std@@2PBVfacet@locale@2@B
_DATA	SEGMENT DWORD USE32 PUBLIC 'DATA'
_DATA	ENDS
;	COMDAT ?_Psave@?$_Facetptr@V?$ctype@D@std@@@std@@2PBVfacet@locale@2@B
_DATA	SEGMENT DWORD USE32 PUBLIC 'DATA'
_DATA	ENDS
;	COMDAT ??3@YAXPAX0@Z
_TEXT	SEGMENT PARA USE32 PUBLIC 'CODE'
_TEXT	ENDS
;	COMDAT ??2@YAPAXIPAX@Z
_TEXT	SEGMENT PARA USE32 PUBLIC 'CODE'
_TEXT	ENDS
;	COMDAT ??$swap@D@std@@YAXAAD0@Z
_TEXT	SEGMENT PARA USE32 PUBLIC 'CODE'
_TEXT	ENDS
;	COMDAT __TI3?AVout_of_range@std@@
xdata$x	SEGMENT DWORD USE32 PUBLIC 'CONST'
xdata$x	ENDS
;	COMDAT ??1out_of_range@std@@UAE@XZ
_TEXT	SEGMENT PARA USE32 PUBLIC 'CODE'
_TEXT	ENDS
;	COMDAT ??_7out_of_range@std@@6B@
CONST	SEGMENT DWORD USE32 PUBLIC 'CONST'
CONST	ENDS
;	COMDAT ??_R4out_of_range@std@@6B@
rdata$r	SEGMENT DWORD USE32 PUBLIC 'CONST'
rdata$r	ENDS
;	COMDAT ??_R0?AVout_of_range@std@@@8
_DATA	SEGMENT DWORD USE32 PUBLIC 'DATA'
_DATA	ENDS
;	COMDAT ??_R3out_of_range@std@@8
rdata$r	SEGMENT DWORD USE32 PUBLIC 'CONST'
rdata$r	ENDS
;	COMDAT ??_R2out_of_range@std@@8
rdata$r	SEGMENT DWORD USE32 PUBLIC 'CONST'
rdata$r	ENDS
;	COMDAT ??_R1A@?0A@A@out_of_range@std@@8
rdata$r	SEGMENT DWORD USE32 PUBLIC 'CONST'
rdata$r	ENDS
;	COMDAT ??_R1A@?0A@A@logic_error@std@@8
rdata$r	SEGMENT DWORD USE32 PUBLIC 'CONST'
rdata$r	ENDS
;	COMDAT ??_R0?AVlogic_error@std@@@8
_DATA	SEGMENT DWORD USE32 PUBLIC 'DATA'
_DATA	ENDS
;	COMDAT ??_R1A@?0A@A@exception@@8
rdata$r	SEGMENT DWORD USE32 PUBLIC 'CONST'
rdata$r	ENDS
;	COMDAT ??_R0?AVexception@@@8
_DATA	SEGMENT DWORD USE32 PUBLIC 'DATA'
_DATA	ENDS
;	COMDAT ??_Gout_of_range@std@@UAEPAXI@Z
_TEXT	SEGMENT PARA USE32 PUBLIC 'CODE'
_TEXT	ENDS
;	COMDAT ?what@logic_error@std@@UBEPBDXZ
_TEXT	SEGMENT PARA USE32 PUBLIC 'CODE'
_TEXT	ENDS
;	COMDAT __CTA3?AVout_of_range@std@@
xdata$x	SEGMENT DWORD USE32 PUBLIC 'CONST'
xdata$x	ENDS
;	COMDAT __CT??_R0?AVout_of_range@std@@@8??0out_of_range@std@@QAE@ABV01@@Z40
xdata$x	SEGMENT DWORD USE32 PUBLIC 'CONST'
xdata$x	ENDS
;	COMDAT ??0out_of_range@std@@QAE@ABV01@@Z
_TEXT	SEGMENT PARA USE32 PUBLIC 'CODE'
_TEXT	ENDS
;	COMDAT ??_C@_0BM@PAPJHAGI@invalid?5map?1set?$DMT?$DO?5iterator?$AA@
CONST	SEGMENT DWORD USE32 PUBLIC 'CONST'
CONST	ENDS
;	COMDAT ??0out_of_range@std@@QAE@ABV?$basic_string@DU?$char_traits@D@std@@V?$allocator@D@2@@1@@Z
_TEXT	SEGMENT PARA USE32 PUBLIC 'CODE'
_TEXT	ENDS
;	COMDAT ??0logic_error@std@@QAE@ABV?$basic_string@DU?$char_traits@D@std@@V?$allocator@D@2@@1@@Z
_TEXT	SEGMENT PARA USE32 PUBLIC 'CODE'
_TEXT	ENDS
;	COMDAT ??_7logic_error@std@@6B@
CONST	SEGMENT DWORD USE32 PUBLIC 'CONST'
CONST	ENDS
;	COMDAT ??_R4logic_error@std@@6B@
rdata$r	SEGMENT DWORD USE32 PUBLIC 'CONST'
rdata$r	ENDS
;	COMDAT ??_R3logic_error@std@@8
rdata$r	SEGMENT DWORD USE32 PUBLIC 'CONST'
rdata$r	ENDS
;	COMDAT ??_R2logic_error@std@@8
rdata$r	SEGMENT DWORD USE32 PUBLIC 'CONST'
rdata$r	ENDS
;	COMDAT ??_Glogic_error@std@@UAEPAXI@Z
_TEXT	SEGMENT PARA USE32 PUBLIC 'CODE'
_TEXT	ENDS
;	COMDAT ??_7length_error@std@@6B@
CONST	SEGMENT DWORD USE32 PUBLIC 'CONST'
CONST	ENDS
;	COMDAT ??_R4length_error@std@@6B@
rdata$r	SEGMENT DWORD USE32 PUBLIC 'CONST'
rdata$r	ENDS
;	COMDAT ??_R3length_error@std@@8
rdata$r	SEGMENT DWORD USE32 PUBLIC 'CONST'
rdata$r	ENDS
;	COMDAT ??_R2length_error@std@@8
rdata$r	SEGMENT DWORD USE32 PUBLIC 'CONST'
rdata$r	ENDS
;	COMDAT ??_R1A@?0A@A@length_error@std@@8
rdata$r	SEGMENT DWORD USE32 PUBLIC 'CONST'
rdata$r	ENDS
;	COMDAT ??_Glength_error@std@@UAEPAXI@Z
_TEXT	SEGMENT PARA USE32 PUBLIC 'CODE'
_TEXT	ENDS
;	COMDAT ??1logic_error@std@@UAE@XZ
_TEXT	SEGMENT PARA USE32 PUBLIC 'CODE'
_TEXT	ENDS
;	COMDAT ??0logic_error@std@@QAE@ABV01@@Z
_TEXT	SEGMENT PARA USE32 PUBLIC 'CODE'
_TEXT	ENDS
;	COMDAT __CTA3?AVlength_error@std@@
xdata$x	SEGMENT DWORD USE32 PUBLIC 'CONST'
xdata$x	ENDS
;	COMDAT ??1length_error@std@@UAE@XZ
_TEXT	SEGMENT PARA USE32 PUBLIC 'CODE'
_TEXT	ENDS
;	COMDAT __CT??_R0?AVexception@@@8??0exception@@QAE@ABV0@@Z12
xdata$x	SEGMENT DWORD USE32 PUBLIC 'CONST'
xdata$x	ENDS
;	COMDAT __CT??_R0?AVlogic_error@std@@@8??0logic_error@std@@QAE@ABV01@@Z40
xdata$x	SEGMENT DWORD USE32 PUBLIC 'CONST'
xdata$x	ENDS
;	COMDAT __CT??_R0?AVlength_error@std@@@8??0length_error@std@@QAE@ABV01@@Z40
xdata$x	SEGMENT DWORD USE32 PUBLIC 'CONST'
xdata$x	ENDS
;	COMDAT ??_R0?AVlength_error@std@@@8
_DATA	SEGMENT DWORD USE32 PUBLIC 'DATA'
_DATA	ENDS
;	COMDAT __TI3?AVlength_error@std@@
xdata$x	SEGMENT DWORD USE32 PUBLIC 'CONST'
xdata$x	ENDS
;	COMDAT ??0length_error@std@@QAE@ABV?$basic_string@DU?$char_traits@D@std@@V?$allocator@D@2@@1@@Z
_TEXT	SEGMENT PARA USE32 PUBLIC 'CODE'
_TEXT	ENDS
;	COMDAT ??$_Maklocchr@_W@std@@YA_WDPA_WABU_Cvtvec@@@Z
_TEXT	SEGMENT PARA USE32 PUBLIC 'CODE'
_TEXT	ENDS
;	COMDAT ??$_DebugHeapDelete@X@std@@YAXPAX@Z
_TEXT	SEGMENT PARA USE32 PUBLIC 'CODE'
_TEXT	ENDS
;	COMDAT ??$_Maklocstr@_W@std@@YAPA_WPBDPA_WABU_Cvtvec@@@Z
_TEXT	SEGMENT PARA USE32 PUBLIC 'CODE'
_TEXT	ENDS
;	COMDAT ??$_Maklocchr@D@std@@YADDPADABU_Cvtvec@@@Z
_TEXT	SEGMENT PARA USE32 PUBLIC 'CODE'
_TEXT	ENDS
;	COMDAT ??_C@_04LOAJBDKD@true?$AA@
CONST	SEGMENT DWORD USE32 PUBLIC 'CONST'
CONST	ENDS
;	COMDAT ??_C@_05LAPONLG@false?$AA@
CONST	SEGMENT DWORD USE32 PUBLIC 'CONST'
CONST	ENDS
;	COMDAT _wmemcpy
_TEXT	SEGMENT PARA USE32 PUBLIC 'CODE'
_TEXT	ENDS
;	COMDAT ?max_size@?$allocator@_W@std@@QBEIXZ
_TEXT	SEGMENT PARA USE32 PUBLIC 'CODE'
_TEXT	ENDS
;	COMDAT ?allocate@?$allocator@_W@std@@QAEPA_WI@Z
_TEXT	SEGMENT PARA USE32 PUBLIC 'CODE'
_TEXT	ENDS
;	COMDAT ??$_Allocate@_W@std@@YAPA_WIPA_W@Z
_TEXT	SEGMENT PARA USE32 PUBLIC 'CODE'
_TEXT	ENDS
;	COMDAT ??_C@_01GFHCPBMG@C?$AA@
CONST	SEGMENT DWORD USE32 PUBLIC 'CONST'
CONST	ENDS
;	COMDAT ?max_size@?$allocator@D@std@@QBEIXZ
_TEXT	SEGMENT PARA USE32 PUBLIC 'CODE'
_TEXT	ENDS
;	COMDAT ?allocate@?$allocator@D@std@@QAEPADI@Z
_TEXT	SEGMENT PARA USE32 PUBLIC 'CODE'
_TEXT	ENDS
;	COMDAT ??$_Allocate@D@std@@YAPADIPAD@Z
_TEXT	SEGMENT PARA USE32 PUBLIC 'CODE'
_TEXT	ENDS
;	COMDAT ?deallocate@?$allocator@D@std@@QAEXPADI@Z
_TEXT	SEGMENT PARA USE32 PUBLIC 'CODE'
_TEXT	ENDS
;	COMDAT ??_C@_0BA@GNIEOBOF@nNewLength?5?$DO?$DN?50?$AA@
CONST	SEGMENT DWORD USE32 PUBLIC 'CONST'
CONST	ENDS
;	COMDAT ??_C@_0FJ@DMHPDOJC@D?3?2Program?5Files?5?$CIx86?$CJ?2Microsoft@
CONST	SEGMENT DWORD USE32 PUBLIC 'CONST'
CONST	ENDS
;	COMDAT ??_C@_0N@ILOMLJGA@nLength?5?$DO?$DN?50?$AA@
CONST	SEGMENT DWORD USE32 PUBLIC 'CONST'
CONST	ENDS
;	COMDAT ??_C@_0CD@EEFFJEGJ@nLength?5?$DM?$DN?5GetData?$CI?$CJ?9?$DOnAllocLeng@
CONST	SEGMENT DWORD USE32 PUBLIC 'CONST'
CONST	ENDS
;	COMDAT ?Format@?$ChTraitsCRT@D@ATL@@SAHPADPBD0@Z
_TEXT	SEGMENT PARA USE32 PUBLIC 'CODE'
_TEXT	ENDS
;	COMDAT ?IsShared@CStringData@ATL@@QBE_NXZ
_TEXT	SEGMENT PARA USE32 PUBLIC 'CODE'
_TEXT	ENDS
;	COMDAT ?data@CStringData@ATL@@QAEPAXXZ
_TEXT	SEGMENT PARA USE32 PUBLIC 'CODE'
_TEXT	ENDS
;	COMDAT ?Release@CStringData@ATL@@QAEXXZ
_TEXT	SEGMENT PARA USE32 PUBLIC 'CODE'
_TEXT	ENDS
;	COMDAT ??_C@_0L@OIIMFBNE@nRefs?5?$CB?$DN?50?$AA@
CONST	SEGMENT DWORD USE32 PUBLIC 'CONST'
CONST	ENDS
;	COMDAT ??_C@_0CB@GFHAPKDK@pOldData?9?$DOnAllocLength?5?$DM?5nLength@
CONST	SEGMENT DWORD USE32 PUBLIC 'CONST'
CONST	ENDS
;	COMDAT ?GetFormattedLength@?$ChTraitsCRT@D@ATL@@SAHPBDPAD@Z
_TEXT	SEGMENT PARA USE32 PUBLIC 'CODE'
_TEXT	ENDS
;	COMDAT ?AtlThrow@ATL@@YGXJ@Z
_TEXT	SEGMENT PARA USE32 PUBLIC 'CODE'
_TEXT	ENDS
;	COMDAT ??RCTraceFileAndLineInfo@ATL@@QBAXKIPBDZZ
_TEXT	SEGMENT PARA USE32 PUBLIC 'CODE'
_TEXT	ENDS
;	COMDAT ?TraceV@CTrace@ATL@@QBAXPBDHKI0PAD@Z
_TEXT	SEGMENT PARA USE32 PUBLIC 'CODE'
_TEXT	ENDS
;	COMDAT ??0CTraceFileAndLineInfo@ATL@@QAE@PBDH@Z
_TEXT	SEGMENT PARA USE32 PUBLIC 'CODE'
_TEXT	ENDS
;	COMDAT ??_C@_0FI@NHHJANPC@D?3?2Program?5Files?5?$CIx86?$CJ?2Microsoft@
CONST	SEGMENT DWORD USE32 PUBLIC 'CONST'
CONST	ENDS
;	COMDAT ??_C@_0BF@IAAKIJDJ@AtlThrow?3?5hr?5?$DN?50x?$CFx?6?$AA@
CONST	SEGMENT DWORD USE32 PUBLIC 'CONST'
CONST	ENDS
;	COMDAT ??BCTraceCategory@ATL@@QBEKXZ
_TEXT	SEGMENT PARA USE32 PUBLIC 'CODE'
_TEXT	ENDS
;	COMDAT ?_Peek@?$istreambuf_iterator@_WU?$char_traits@_W@std@@@std@@AAE_WXZ
_TEXT	SEGMENT PARA USE32 PUBLIC 'CODE'
_TEXT	ENDS
;	COMDAT ?_Peek@?$istreambuf_iterator@DU?$char_traits@D@std@@@std@@AAEDXZ
_TEXT	SEGMENT PARA USE32 PUBLIC 'CODE'
_TEXT	ENDS
;	COMDAT ??$use_facet@V?$ctype@_W@std@@@std@@YAABV?$ctype@_W@0@ABVlocale@0@@Z
_TEXT	SEGMENT PARA USE32 PUBLIC 'CODE'
_TEXT	ENDS
;	COMDAT ??_S?$ctype@_W@std@@6B@
CONST	SEGMENT DWORD USE32 PUBLIC 'CONST'
CONST	ENDS
;	COMDAT ??_R4?$ctype@_W@std@@6B@
rdata$r	SEGMENT DWORD USE32 PUBLIC 'CONST'
rdata$r	ENDS
;	COMDAT ??_R0?AV?$ctype@_W@std@@@8
_DATA	SEGMENT DWORD USE32 PUBLIC 'DATA'
_DATA	ENDS
;	COMDAT ??_R3?$ctype@_W@std@@8
rdata$r	SEGMENT DWORD USE32 PUBLIC 'CONST'
rdata$r	ENDS
;	COMDAT ??_R2?$ctype@_W@std@@8
rdata$r	SEGMENT DWORD USE32 PUBLIC 'CONST'
rdata$r	ENDS
;	COMDAT ??_R1A@?0A@A@?$ctype@_W@std@@8
rdata$r	SEGMENT DWORD USE32 PUBLIC 'CONST'
rdata$r	ENDS
;	COMDAT ??_R1A@?0A@A@ctype_base@std@@8
rdata$r	SEGMENT DWORD USE32 PUBLIC 'CONST'
rdata$r	ENDS
;	COMDAT ??_R0?AUctype_base@std@@@8
_DATA	SEGMENT DWORD USE32 PUBLIC 'DATA'
_DATA	ENDS
;	COMDAT ??_G?$ctype@_W@std@@MAEPAXI@Z
_TEXT	SEGMENT PARA USE32 PUBLIC 'CODE'
_TEXT	ENDS
;	COMDAT ??_C@_08EPJLHIJG@bad?5cast?$AA@
CONST	SEGMENT DWORD USE32 PUBLIC 'CONST'
CONST	ENDS
;	COMDAT __TI2?AVbad_cast@@
xdata$x	SEGMENT DWORD USE32 PUBLIC 'CONST'
xdata$x	ENDS
;	COMDAT __CTA2?AVbad_cast@@
xdata$x	SEGMENT DWORD USE32 PUBLIC 'CONST'
xdata$x	ENDS
;	COMDAT __CT??_R0?AVbad_cast@@@8??0bad_cast@@QAE@ABV0@@Z12
xdata$x	SEGMENT DWORD USE32 PUBLIC 'CONST'
xdata$x	ENDS
;	COMDAT ??_R0?AVbad_cast@@@8
_DATA	SEGMENT DWORD USE32 PUBLIC 'DATA'
_DATA	ENDS
;	COMDAT ??$_DebugHeapDelete@Vfacet@locale@std@@@std@@YAXPAVfacet@locale@0@@Z
_TEXT	SEGMENT PARA USE32 PUBLIC 'CODE'
_TEXT	ENDS
;	COMDAT ??$use_facet@V?$ctype@D@std@@@std@@YAABV?$ctype@D@0@ABVlocale@0@@Z
_TEXT	SEGMENT PARA USE32 PUBLIC 'CODE'
_TEXT	ENDS
;	COMDAT ??_S?$ctype@D@std@@6B@
CONST	SEGMENT DWORD USE32 PUBLIC 'CONST'
CONST	ENDS
;	COMDAT ??_R4?$ctype@D@std@@6B@
rdata$r	SEGMENT DWORD USE32 PUBLIC 'CONST'
rdata$r	ENDS
;	COMDAT ??_R0?AV?$ctype@D@std@@@8
_DATA	SEGMENT DWORD USE32 PUBLIC 'DATA'
_DATA	ENDS
;	COMDAT ??_R3?$ctype@D@std@@8
rdata$r	SEGMENT DWORD USE32 PUBLIC 'CONST'
rdata$r	ENDS
;	COMDAT ??_R2?$ctype@D@std@@8
rdata$r	SEGMENT DWORD USE32 PUBLIC 'CONST'
rdata$r	ENDS
;	COMDAT ??_R1A@?0A@A@?$ctype@D@std@@8
rdata$r	SEGMENT DWORD USE32 PUBLIC 'CONST'
rdata$r	ENDS
;	COMDAT ??_G?$ctype@D@std@@MAEPAXI@Z
_TEXT	SEGMENT PARA USE32 PUBLIC 'CODE'
_TEXT	ENDS
;	COMDAT ??_S?$numpunct@_W@std@@6B@
CONST	SEGMENT DWORD USE32 PUBLIC 'CONST'
CONST	ENDS
;	COMDAT ??_S?$numpunct@D@std@@6B@
CONST	SEGMENT DWORD USE32 PUBLIC 'CONST'
CONST	ENDS
;	COMDAT _wmemmove
_TEXT	SEGMENT PARA USE32 PUBLIC 'CODE'
_TEXT	ENDS
;	COMDAT ?deallocate@?$allocator@_W@std@@QAEXPA_WI@Z
_TEXT	SEGMENT PARA USE32 PUBLIC 'CODE'
_TEXT	ENDS
;	COMDAT ??0?$allocator@_W@std@@QAE@ABV01@@Z
_TEXT	SEGMENT PARA USE32 PUBLIC 'CODE'
_TEXT	ENDS
;	COMDAT ??_C@_0FH@KDPNIMBO@D?3?2Program?5Files?5?$CIx86?$CJ?2Microsoft@
CONST	SEGMENT DWORD USE32 PUBLIC 'CONST'
CONST	ENDS
;	COMDAT ??_C@_0BO@OBIGOAOM@AtlIsValidString?$CI?5pszFormat?5?$CJ?$AA@
CONST	SEGMENT DWORD USE32 PUBLIC 'CONST'
CONST	ENDS
;	COMDAT ?AtlIsValidString@ATL@@YAHPBDI@Z
_TEXT	SEGMENT PARA USE32 PUBLIC 'CODE'
_TEXT	ENDS
;	COMDAT ??_C@_0BA@GOIMFHNK@pStringMgr?5?$CB?$DN?50?$AA@
CONST	SEGMENT DWORD USE32 PUBLIC 'CONST'
CONST	ENDS
;	COMDAT ?GetDefaultManager@?$StrTraitMFC_DLL@DV?$ChTraitsCRT@D@ATL@@@@SAPAUIAtlStringMgr@ATL@@XZ
_TEXT	SEGMENT PARA USE32 PUBLIC 'CODE'
_TEXT	ENDS
;	COMDAT ??0?$allocator@D@std@@QAE@ABV01@@Z
_TEXT	SEGMENT PARA USE32 PUBLIC 'CODE'
_TEXT	ENDS
;	COMDAT ??0?$allocator@D@std@@QAE@XZ
_TEXT	SEGMENT PARA USE32 PUBLIC 'CODE'
_TEXT	ENDS
;	COMDAT ?IsLocked@CStringData@ATL@@QBE_NXZ
_TEXT	SEGMENT PARA USE32 PUBLIC 'CODE'
_TEXT	ENDS
;	COMDAT ?AddRef@CStringData@ATL@@QAEXXZ
_TEXT	SEGMENT PARA USE32 PUBLIC 'CODE'
_TEXT	ENDS
;	COMDAT ??_C@_09EEBKLCFA@nRefs?5?$DO?50?$AA@
CONST	SEGMENT DWORD USE32 PUBLIC 'CONST'
CONST	ENDS
;	COMDAT ??_7IData@@6B@
CONST	SEGMENT DWORD USE32 PUBLIC 'CONST'
CONST	ENDS
sxdata	SEGMENT DWORD USE32 'SXDATA'
sxdata	ENDS
FLAT	GROUP _DATA, CONST, _BSS
	ASSUME	CS: FLAT, DS: FLAT, SS: FLAT
endif

INCLUDELIB MSVCRTD
INCLUDELIB OLDNAMES

PUBLIC	?m_pHostMgr@CHostWndMgr@@0PAV1@A		; CHostWndMgr::m_pHostMgr
_BSS	SEGMENT
?m_pHostMgr@CHostWndMgr@@0PAV1@A DD 01H DUP (?)		; CHostWndMgr::m_pHostMgr
_BSS	ENDS
CONST	SEGMENT
$SG189472 DB	'%d,%d', 00H
	ORG $+2
$SG189483 DB	'3', 00H
	ORG $+2
$SG189484 DB	'CUIManager', 00H
	ORG $+1
$SG189485 DB	'main.txt', 00H
	ORG $+3
$SG189494 DB	'31', 00H
	ORG $+1
$SG189495 DB	'CUIManager', 00H
	ORG $+1
$SG189496 DB	'main.txt', 00H
	ORG $+3
$SG189607 DB	'32', 00H
	ORG $+1
$SG189608 DB	'CUIManager', 00H
	ORG $+1
$SG189609 DB	'main.txt', 00H
	ORG $+3
$SG189620 DB	'33', 00H
	ORG $+1
$SG189621 DB	'CUIManager', 00H
	ORG $+1
$SG189622 DB	'main.txt', 00H
	ORG $+3
$SG189625 DB	'34', 00H
	ORG $+1
$SG189626 DB	'CUIManager', 00H
	ORG $+1
$SG189627 DB	'main.txt', 00H
CONST	ENDS
PUBLIC	??0CHostWndMgr@@AAE@XZ				; CHostWndMgr::CHostWndMgr
PUBLIC	?GetInstance@CHostWndMgr@@SAPAV1@XZ		; CHostWndMgr::GetInstance
EXTRN	??2@YAPAXI@Z:NEAR				; operator new
EXTRN	??3@YAXPAX@Z:NEAR				; operator delete
EXTRN	__RTC_InitBase:NEAR
EXTRN	__RTC_Shutdown:NEAR
EXTRN	__except_list:DWORD
EXTRN	__RTC_CheckEsp:NEAR
EXTRN	___CxxFrameHandler:NEAR
;	COMDAT rtc$IMZ
; File d:\boxgit\playbox\playbox\dev\prj\playbox\src\layoutmgr\seperatemode\hostwndmgr.cpp
rtc$IMZ	SEGMENT
__RTC_InitBase.rtc$IMZ DD FLAT:__RTC_InitBase
rtc$IMZ	ENDS
;	COMDAT rtc$TMZ
rtc$TMZ	SEGMENT
__RTC_Shutdown.rtc$TMZ DD FLAT:__RTC_Shutdown
rtc$TMZ	ENDS
xdata$x	SEGMENT
$T192126 DD	0ffffffffH
	DD	FLAT:$L192118
$T192122 DD	019930520H
	DD	01H
	DD	FLAT:$T192126
	DD	2 DUP(00H)
	DD	2 DUP(00H)
; Function compile flags: /Odt /RTCsu
xdata$x	ENDS
_TEXT	SEGMENT
tv72 = -24						; size = 4
$T192109 = -20						; size = 4
$T192108 = -16						; size = 4
__$EHRec$ = -12						; size = 12
?GetInstance@CHostWndMgr@@SAPAV1@XZ PROC NEAR		; CHostWndMgr::GetInstance

; 11   : {

  00000	55		 push	 ebp
  00001	8b ec		 mov	 ebp, esp
  00003	6a ff		 push	 -1
  00005	68 00 00 00 00	 push	 __ehhandler$?GetInstance@CHostWndMgr@@SAPAV1@XZ
  0000a	64 a1 00 00 00
	00		 mov	 eax, DWORD PTR fs:__except_list
  00010	50		 push	 eax
  00011	64 89 25 00 00
	00 00		 mov	 DWORD PTR fs:__except_list, esp
  00018	83 ec 0c	 sub	 esp, 12			; 0000000cH
  0001b	c7 45 e8 cc cc
	cc cc		 mov	 DWORD PTR [ebp-24], -858993460 ; ccccccccH
  00022	c7 45 ec cc cc
	cc cc		 mov	 DWORD PTR [ebp-20], -858993460 ; ccccccccH
  00029	c7 45 f0 cc cc
	cc cc		 mov	 DWORD PTR [ebp-16], -858993460 ; ccccccccH

; 12   : 	if(m_pHostMgr == NULL)

  00030	83 3d 00 00 00
	00 00		 cmp	 DWORD PTR ?m_pHostMgr@CHostWndMgr@@0PAV1@A, 0 ; CHostWndMgr::m_pHostMgr
  00037	75 44		 jne	 SHORT $L189165

; 13   : 	{
; 14   : 		m_pHostMgr = new CHostWndMgr();

  00039	6a 44		 push	 68			; 00000044H
  0003b	e8 00 00 00 00	 call	 ??2@YAPAXI@Z		; operator new
  00040	83 c4 04	 add	 esp, 4
  00043	89 45 ec	 mov	 DWORD PTR $T192109[ebp], eax
  00046	c7 45 fc 00 00
	00 00		 mov	 DWORD PTR __$EHRec$[ebp+8], 0
  0004d	83 7d ec 00	 cmp	 DWORD PTR $T192109[ebp], 0
  00051	74 0d		 je	 SHORT $L192110
  00053	8b 4d ec	 mov	 ecx, DWORD PTR $T192109[ebp]
  00056	e8 00 00 00 00	 call	 ??0CHostWndMgr@@AAE@XZ	; CHostWndMgr::CHostWndMgr
  0005b	89 45 e8	 mov	 DWORD PTR tv72[ebp], eax
  0005e	eb 07		 jmp	 SHORT $L192111
$L192110:
  00060	c7 45 e8 00 00
	00 00		 mov	 DWORD PTR tv72[ebp], 0
$L192111:
  00067	8b 45 e8	 mov	 eax, DWORD PTR tv72[ebp]
  0006a	89 45 f0	 mov	 DWORD PTR $T192108[ebp], eax
  0006d	c7 45 fc ff ff
	ff ff		 mov	 DWORD PTR __$EHRec$[ebp+8], -1
  00074	8b 4d f0	 mov	 ecx, DWORD PTR $T192108[ebp]
  00077	89 0d 00 00 00
	00		 mov	 DWORD PTR ?m_pHostMgr@CHostWndMgr@@0PAV1@A, ecx ; CHostWndMgr::m_pHostMgr
$L189165:

; 15   : 
; 16   : 	}
; 17   : 
; 18   : 	return m_pHostMgr;

  0007d	a1 00 00 00 00	 mov	 eax, DWORD PTR ?m_pHostMgr@CHostWndMgr@@0PAV1@A ; CHostWndMgr::m_pHostMgr

; 19   : }

  00082	8b 4d f4	 mov	 ecx, DWORD PTR __$EHRec$[ebp]
  00085	64 89 0d 00 00
	00 00		 mov	 DWORD PTR fs:__except_list, ecx
  0008c	83 c4 18	 add	 esp, 24			; 00000018H
  0008f	3b ec		 cmp	 ebp, esp
  00091	e8 00 00 00 00	 call	 __RTC_CheckEsp
  00096	8b e5		 mov	 esp, ebp
  00098	5d		 pop	 ebp
  00099	c3		 ret	 0
_TEXT	ENDS
text$x	SEGMENT
$L192118:
  00000	8b 45 ec	 mov	 eax, DWORD PTR $T192109[ebp]
  00003	50		 push	 eax
  00004	e8 00 00 00 00	 call	 ??3@YAXPAX@Z		; operator delete
  00009	59		 pop	 ecx
  0000a	c3		 ret	 0
__ehhandler$?GetInstance@CHostWndMgr@@SAPAV1@XZ:
  0000b	b8 00 00 00 00	 mov	 eax, OFFSET FLAT:$T192122
  00010	e9 00 00 00 00	 jmp	 ___CxxFrameHandler
text$x	ENDS
?GetInstance@CHostWndMgr@@SAPAV1@XZ ENDP		; CHostWndMgr::GetInstance
PUBLIC	?DelInstance@CHostWndMgr@@SAXXZ			; CHostWndMgr::DelInstance
PUBLIC	??_GCHostWndMgr@@AAEPAXI@Z			; CHostWndMgr::`scalar deleting destructor'
; Function compile flags: /Odt /RTCsu
_TEXT	SEGMENT
tv68 = -12						; size = 4
$T192130 = -8						; size = 4
$T192129 = -4						; size = 4
?DelInstance@CHostWndMgr@@SAXXZ PROC NEAR		; CHostWndMgr::DelInstance

; 22   : {

  000a0	55		 push	 ebp
  000a1	8b ec		 mov	 ebp, esp
  000a3	83 ec 0c	 sub	 esp, 12			; 0000000cH
  000a6	c7 45 f4 cc cc
	cc cc		 mov	 DWORD PTR [ebp-12], -858993460 ; ccccccccH
  000ad	c7 45 f8 cc cc
	cc cc		 mov	 DWORD PTR [ebp-8], -858993460 ; ccccccccH
  000b4	c7 45 fc cc cc
	cc cc		 mov	 DWORD PTR [ebp-4], -858993460 ; ccccccccH

; 23   : 	delete m_pHostMgr;

  000bb	a1 00 00 00 00	 mov	 eax, DWORD PTR ?m_pHostMgr@CHostWndMgr@@0PAV1@A ; CHostWndMgr::m_pHostMgr
  000c0	89 45 f8	 mov	 DWORD PTR $T192130[ebp], eax
  000c3	8b 4d f8	 mov	 ecx, DWORD PTR $T192130[ebp]
  000c6	89 4d fc	 mov	 DWORD PTR $T192129[ebp], ecx
  000c9	83 7d fc 00	 cmp	 DWORD PTR $T192129[ebp], 0
  000cd	74 0f		 je	 SHORT $L192131
  000cf	6a 01		 push	 1
  000d1	8b 4d fc	 mov	 ecx, DWORD PTR $T192129[ebp]
  000d4	e8 00 00 00 00	 call	 ??_GCHostWndMgr@@AAEPAXI@Z
  000d9	89 45 f4	 mov	 DWORD PTR tv68[ebp], eax
  000dc	eb 07		 jmp	 SHORT $L189171
$L192131:
  000de	c7 45 f4 00 00
	00 00		 mov	 DWORD PTR tv68[ebp], 0
$L189171:

; 24   : }

  000e5	83 c4 0c	 add	 esp, 12			; 0000000cH
  000e8	3b ec		 cmp	 ebp, esp
  000ea	e8 00 00 00 00	 call	 __RTC_CheckEsp
  000ef	8b e5		 mov	 esp, ebp
  000f1	5d		 pop	 ebp
  000f2	c3		 ret	 0
?DelInstance@CHostWndMgr@@SAXXZ ENDP			; CHostWndMgr::DelInstance
_TEXT	ENDS
PUBLIC	??1CHostWndMgr@@AAE@XZ				; CHostWndMgr::~CHostWndMgr
; Function compile flags: /Odt /RTCsu
;	COMDAT ??_GCHostWndMgr@@AAEPAXI@Z
_TEXT	SEGMENT
_this$ = -4						; size = 4
___flags$ = 8						; size = 4
??_GCHostWndMgr@@AAEPAXI@Z PROC NEAR			; CHostWndMgr::`scalar deleting destructor', COMDAT
; _this$ = ecx
  00000	55		 push	 ebp
  00001	8b ec		 mov	 ebp, esp
  00003	51		 push	 ecx
  00004	c7 45 fc cc cc
	cc cc		 mov	 DWORD PTR [ebp-4], -858993460 ; ccccccccH
  0000b	89 4d fc	 mov	 DWORD PTR _this$[ebp], ecx
  0000e	8b 4d fc	 mov	 ecx, DWORD PTR _this$[ebp]
  00011	e8 00 00 00 00	 call	 ??1CHostWndMgr@@AAE@XZ	; CHostWndMgr::~CHostWndMgr
  00016	8b 45 08	 mov	 eax, DWORD PTR ___flags$[ebp]
  00019	83 e0 01	 and	 eax, 1
  0001c	74 0c		 je	 SHORT $L189177
  0001e	8b 4d fc	 mov	 ecx, DWORD PTR _this$[ebp]
  00021	51		 push	 ecx
  00022	e8 00 00 00 00	 call	 ??3@YAXPAX@Z		; operator delete
  00027	83 c4 04	 add	 esp, 4
$L189177:
  0002a	8b 45 fc	 mov	 eax, DWORD PTR _this$[ebp]
  0002d	83 c4 04	 add	 esp, 4
  00030	3b ec		 cmp	 ebp, esp
  00032	e8 00 00 00 00	 call	 __RTC_CheckEsp
  00037	8b e5		 mov	 esp, ebp
  00039	5d		 pop	 ebp
  0003a	c2 04 00	 ret	 4
??_GCHostWndMgr@@AAEPAXI@Z ENDP				; CHostWndMgr::`scalar deleting destructor'
_TEXT	ENDS
PUBLIC	??0?$map@PAUHWND__@@UCWndData@@U?$less@PAUHWND__@@@std@@V?$allocator@U?$pair@QAUHWND__@@UCWndData@@@std@@@4@@std@@QAE@XZ ; std::map<HWND__ *,CWndData,std::less<HWND__ *>,std::allocator<std::pair<HWND__ * const,CWndData> > >::map<HWND__ *,CWndData,std::less<HWND__ *>,std::allocator<std::pair<HWND__ * const,CWndData> > >
PUBLIC	??1?$map@PAUHWND__@@UCWndData@@U?$less@PAUHWND__@@@std@@V?$allocator@U?$pair@QAUHWND__@@UCWndData@@@std@@@4@@std@@QAE@XZ ; std::map<HWND__ *,CWndData,std::less<HWND__ *>,std::allocator<std::pair<HWND__ * const,CWndData> > >::~map<HWND__ *,CWndData,std::less<HWND__ *>,std::allocator<std::pair<HWND__ * const,CWndData> > >
PUBLIC	??0?$vector@PAVCHostWnd@@V?$allocator@PAVCHostWnd@@@std@@@std@@QAE@XZ ; std::vector<CHostWnd *,std::allocator<CHostWnd *> >::vector<CHostWnd *,std::allocator<CHostWnd *> >
PUBLIC	??1?$vector@PAVCHostWnd@@V?$allocator@PAVCHostWnd@@@std@@@std@@QAE@XZ ; std::vector<CHostWnd *,std::allocator<CHostWnd *> >::~vector<CHostWnd *,std::allocator<CHostWnd *> >
PUBLIC	??0?$vector@PAVILyricPopupWndShowObserver@@V?$allocator@PAVILyricPopupWndShowObserver@@@std@@@std@@QAE@XZ ; std::vector<ILyricPopupWndShowObserver *,std::allocator<ILyricPopupWndShowObserver *> >::vector<ILyricPopupWndShowObserver *,std::allocator<ILyricPopupWndShowObserver *> >
xdata$x	SEGMENT
$T192142 DD	0ffffffffH
	DD	FLAT:$L192135
	DD	00H
	DD	FLAT:$L192136
	DD	01H
	DD	FLAT:$L192137
$T192140 DD	019930520H
	DD	03H
	DD	FLAT:$T192142
	DD	2 DUP(00H)
	DD	2 DUP(00H)
; Function compile flags: /Odt /RTCsu
xdata$x	ENDS
_TEXT	SEGMENT
_this$ = -16						; size = 4
__$EHRec$ = -12						; size = 12
??0CHostWndMgr@@AAE@XZ PROC NEAR			; CHostWndMgr::CHostWndMgr
; _this$ = ecx

; 27   : {

  00100	55		 push	 ebp
  00101	8b ec		 mov	 ebp, esp
  00103	6a ff		 push	 -1
  00105	68 00 00 00 00	 push	 __ehhandler$??0CHostWndMgr@@AAE@XZ
  0010a	64 a1 00 00 00
	00		 mov	 eax, DWORD PTR fs:__except_list
  00110	50		 push	 eax
  00111	64 89 25 00 00
	00 00		 mov	 DWORD PTR fs:__except_list, esp
  00118	51		 push	 ecx
  00119	c7 45 f0 cc cc
	cc cc		 mov	 DWORD PTR [ebp-16], -858993460 ; ccccccccH
  00120	89 4d f0	 mov	 DWORD PTR _this$[ebp], ecx
  00123	8b 4d f0	 mov	 ecx, DWORD PTR _this$[ebp]
  00126	e8 00 00 00 00	 call	 ??0?$map@PAUHWND__@@UCWndData@@U?$less@PAUHWND__@@@std@@V?$allocator@U?$pair@QAUHWND__@@UCWndData@@@std@@@4@@std@@QAE@XZ ; std::map<HWND__ *,CWndData,std::less<HWND__ *>,std::allocator<std::pair<HWND__ * const,CWndData> > >::map<HWND__ *,CWndData,std::less<HWND__ *>,std::allocator<std::pair<HWND__ * const,CWndData> > >
  0012b	c7 45 fc 00 00
	00 00		 mov	 DWORD PTR __$EHRec$[ebp+8], 0
  00132	8b 4d f0	 mov	 ecx, DWORD PTR _this$[ebp]
  00135	83 c1 0c	 add	 ecx, 12			; 0000000cH
  00138	e8 00 00 00 00	 call	 ??0?$vector@PAVCHostWnd@@V?$allocator@PAVCHostWnd@@@std@@@std@@QAE@XZ ; std::vector<CHostWnd *,std::allocator<CHostWnd *> >::vector<CHostWnd *,std::allocator<CHostWnd *> >
  0013d	c6 45 fc 01	 mov	 BYTE PTR __$EHRec$[ebp+8], 1
  00141	8b 4d f0	 mov	 ecx, DWORD PTR _this$[ebp]
  00144	83 c1 1c	 add	 ecx, 28			; 0000001cH
  00147	e8 00 00 00 00	 call	 ??0?$vector@PAVCHostWnd@@V?$allocator@PAVCHostWnd@@@std@@@std@@QAE@XZ ; std::vector<CHostWnd *,std::allocator<CHostWnd *> >::vector<CHostWnd *,std::allocator<CHostWnd *> >
  0014c	c6 45 fc 02	 mov	 BYTE PTR __$EHRec$[ebp+8], 2
  00150	8b 4d f0	 mov	 ecx, DWORD PTR _this$[ebp]
  00153	83 c1 2c	 add	 ecx, 44			; 0000002cH
  00156	e8 00 00 00 00	 call	 ??0?$vector@PAVILyricPopupWndShowObserver@@V?$allocator@PAVILyricPopupWndShowObserver@@@std@@@std@@QAE@XZ ; std::vector<ILyricPopupWndShowObserver *,std::allocator<ILyricPopupWndShowObserver *> >::vector<ILyricPopupWndShowObserver *,std::allocator<ILyricPopupWndShowObserver *> >
  0015b	8b 45 f0	 mov	 eax, DWORD PTR _this$[ebp]
  0015e	c6 40 40 00	 mov	 BYTE PTR [eax+64], 0

; 28   : 	m_pMainWnd = NULL;

  00162	8b 4d f0	 mov	 ecx, DWORD PTR _this$[ebp]
  00165	c7 41 3c 00 00
	00 00		 mov	 DWORD PTR [ecx+60], 0

; 29   : }

  0016c	c7 45 fc ff ff
	ff ff		 mov	 DWORD PTR __$EHRec$[ebp+8], -1
  00173	8b 45 f0	 mov	 eax, DWORD PTR _this$[ebp]
  00176	8b 4d f4	 mov	 ecx, DWORD PTR __$EHRec$[ebp]
  00179	64 89 0d 00 00
	00 00		 mov	 DWORD PTR fs:__except_list, ecx
  00180	83 c4 10	 add	 esp, 16			; 00000010H
  00183	3b ec		 cmp	 ebp, esp
  00185	e8 00 00 00 00	 call	 __RTC_CheckEsp
  0018a	8b e5		 mov	 esp, ebp
  0018c	5d		 pop	 ebp
  0018d	c3		 ret	 0
_TEXT	ENDS
text$x	SEGMENT
$L192135:
  00015	8b 4d f0	 mov	 ecx, DWORD PTR _this$[ebp]
  00018	e9 00 00 00 00	 jmp	 ??1?$map@PAUHWND__@@UCWndData@@U?$less@PAUHWND__@@@std@@V?$allocator@U?$pair@QAUHWND__@@UCWndData@@@std@@@4@@std@@QAE@XZ
$L192136:
  0001d	8b 4d f0	 mov	 ecx, DWORD PTR _this$[ebp]
  00020	83 c1 0c	 add	 ecx, 12			; 0000000cH
  00023	e9 00 00 00 00	 jmp	 ??1?$vector@PAVCHostWnd@@V?$allocator@PAVCHostWnd@@@std@@@std@@QAE@XZ ; std::vector<CHostWnd *,std::allocator<CHostWnd *> >::~vector<CHostWnd *,std::allocator<CHostWnd *> >
$L192137:
  00028	8b 4d f0	 mov	 ecx, DWORD PTR _this$[ebp]
  0002b	83 c1 1c	 add	 ecx, 28			; 0000001cH
  0002e	e9 00 00 00 00	 jmp	 ??1?$vector@PAVCHostWnd@@V?$allocator@PAVCHostWnd@@@std@@@std@@QAE@XZ ; std::vector<CHostWnd *,std::allocator<CHostWnd *> >::~vector<CHostWnd *,std::allocator<CHostWnd *> >
__ehhandler$??0CHostWndMgr@@AAE@XZ:
  00033	b8 00 00 00 00	 mov	 eax, OFFSET FLAT:$T192140
  00038	e9 00 00 00 00	 jmp	 ___CxxFrameHandler
text$x	ENDS
??0CHostWndMgr@@AAE@XZ ENDP				; CHostWndMgr::CHostWndMgr
PUBLIC	??1?$_Tree@V?$_Tmap_traits@PAUHWND__@@UCWndData@@U?$less@PAUHWND__@@@std@@V?$allocator@U?$pair@QAUHWND__@@UCWndData@@@std@@@4@$0A@@std@@@std@@QAE@XZ ; std::_Tree<std::_Tmap_traits<HWND__ *,CWndData,std::less<HWND__ *>,std::allocator<std::pair<HWND__ * const,CWndData> >,0> >::~_Tree<std::_Tmap_traits<HWND__ *,CWndData,std::less<HWND__ *>,std::allocator<std::pair<HWND__ * const,CWndData> >,0> >
; Function compile flags: /Odt /RTCsu
;	COMDAT ??1?$map@PAUHWND__@@UCWndData@@U?$less@PAUHWND__@@@std@@V?$allocator@U?$pair@QAUHWND__@@UCWndData@@@std@@@4@@std@@QAE@XZ
_TEXT	SEGMENT
_this$ = -4						; size = 4
??1?$map@PAUHWND__@@UCWndData@@U?$less@PAUHWND__@@@std@@V?$allocator@U?$pair@QAUHWND__@@UCWndData@@@std@@@4@@std@@QAE@XZ PROC NEAR ; std::map<HWND__ *,CWndData,std::less<HWND__ *>,std::allocator<std::pair<HWND__ * const,CWndData> > >::~map<HWND__ *,CWndData,std::less<HWND__ *>,std::allocator<std::pair<HWND__ * const,CWndData> > >, COMDAT
; _this$ = ecx
  00000	55		 push	 ebp
  00001	8b ec		 mov	 ebp, esp
  00003	51		 push	 ecx
  00004	c7 45 fc cc cc
	cc cc		 mov	 DWORD PTR [ebp-4], -858993460 ; ccccccccH
  0000b	89 4d fc	 mov	 DWORD PTR _this$[ebp], ecx
  0000e	8b 4d fc	 mov	 ecx, DWORD PTR _this$[ebp]
  00011	e8 00 00 00 00	 call	 ??1?$_Tree@V?$_Tmap_traits@PAUHWND__@@UCWndData@@U?$less@PAUHWND__@@@std@@V?$allocator@U?$pair@QAUHWND__@@UCWndData@@@std@@@4@$0A@@std@@@std@@QAE@XZ ; std::_Tree<std::_Tmap_traits<HWND__ *,CWndData,std::less<HWND__ *>,std::allocator<std::pair<HWND__ * const,CWndData> >,0> >::~_Tree<std::_Tmap_traits<HWND__ *,CWndData,std::less<HWND__ *>,std::allocator<std::pair<HWND__ * const,CWndData> >,0> >
  00016	83 c4 04	 add	 esp, 4
  00019	3b ec		 cmp	 ebp, esp
  0001b	e8 00 00 00 00	 call	 __RTC_CheckEsp
  00020	8b e5		 mov	 esp, ebp
  00022	5d		 pop	 ebp
  00023	c3		 ret	 0
??1?$map@PAUHWND__@@UCWndData@@U?$less@PAUHWND__@@@std@@V?$allocator@U?$pair@QAUHWND__@@UCWndData@@@std@@@4@@std@@QAE@XZ ENDP ; std::map<HWND__ *,CWndData,std::less<HWND__ *>,std::allocator<std::pair<HWND__ * const,CWndData> > >::~map<HWND__ *,CWndData,std::less<HWND__ *>,std::allocator<std::pair<HWND__ * const,CWndData> > >
_TEXT	ENDS
PUBLIC	??1?$vector@PAVILyricPopupWndShowObserver@@V?$allocator@PAVILyricPopupWndShowObserver@@@std@@@std@@QAE@XZ ; std::vector<ILyricPopupWndShowObserver *,std::allocator<ILyricPopupWndShowObserver *> >::~vector<ILyricPopupWndShowObserver *,std::allocator<ILyricPopupWndShowObserver *> >
xdata$x	SEGMENT
$T192153 DD	0ffffffffH
	DD	FLAT:$L192146
	DD	00H
	DD	FLAT:$L192147
	DD	01H
	DD	FLAT:$L192148
$T192151 DD	019930520H
	DD	03H
	DD	FLAT:$T192153
	DD	2 DUP(00H)
	DD	2 DUP(00H)
; Function compile flags: /Odt /RTCsu
xdata$x	ENDS
_TEXT	SEGMENT
_this$ = -16						; size = 4
__$EHRec$ = -12						; size = 12
??1CHostWndMgr@@AAE@XZ PROC NEAR			; CHostWndMgr::~CHostWndMgr
; _this$ = ecx

; 32   : {

  00190	55		 push	 ebp
  00191	8b ec		 mov	 ebp, esp
  00193	6a ff		 push	 -1
  00195	68 00 00 00 00	 push	 __ehhandler$??1CHostWndMgr@@AAE@XZ
  0019a	64 a1 00 00 00
	00		 mov	 eax, DWORD PTR fs:__except_list
  001a0	50		 push	 eax
  001a1	64 89 25 00 00
	00 00		 mov	 DWORD PTR fs:__except_list, esp
  001a8	51		 push	 ecx
  001a9	c7 45 f0 cc cc
	cc cc		 mov	 DWORD PTR [ebp-16], -858993460 ; ccccccccH
  001b0	89 4d f0	 mov	 DWORD PTR _this$[ebp], ecx
  001b3	c7 45 fc 02 00
	00 00		 mov	 DWORD PTR __$EHRec$[ebp+8], 2

; 33   : }

  001ba	8b 4d f0	 mov	 ecx, DWORD PTR _this$[ebp]
  001bd	83 c1 2c	 add	 ecx, 44			; 0000002cH
  001c0	e8 00 00 00 00	 call	 ??1?$vector@PAVILyricPopupWndShowObserver@@V?$allocator@PAVILyricPopupWndShowObserver@@@std@@@std@@QAE@XZ ; std::vector<ILyricPopupWndShowObserver *,std::allocator<ILyricPopupWndShowObserver *> >::~vector<ILyricPopupWndShowObserver *,std::allocator<ILyricPopupWndShowObserver *> >
  001c5	c6 45 fc 01	 mov	 BYTE PTR __$EHRec$[ebp+8], 1
  001c9	8b 4d f0	 mov	 ecx, DWORD PTR _this$[ebp]
  001cc	83 c1 1c	 add	 ecx, 28			; 0000001cH
  001cf	e8 00 00 00 00	 call	 ??1?$vector@PAVCHostWnd@@V?$allocator@PAVCHostWnd@@@std@@@std@@QAE@XZ ; std::vector<CHostWnd *,std::allocator<CHostWnd *> >::~vector<CHostWnd *,std::allocator<CHostWnd *> >
  001d4	c6 45 fc 00	 mov	 BYTE PTR __$EHRec$[ebp+8], 0
  001d8	8b 4d f0	 mov	 ecx, DWORD PTR _this$[ebp]
  001db	83 c1 0c	 add	 ecx, 12			; 0000000cH
  001de	e8 00 00 00 00	 call	 ??1?$vector@PAVCHostWnd@@V?$allocator@PAVCHostWnd@@@std@@@std@@QAE@XZ ; std::vector<CHostWnd *,std::allocator<CHostWnd *> >::~vector<CHostWnd *,std::allocator<CHostWnd *> >
  001e3	c7 45 fc ff ff
	ff ff		 mov	 DWORD PTR __$EHRec$[ebp+8], -1
  001ea	8b 4d f0	 mov	 ecx, DWORD PTR _this$[ebp]
  001ed	e8 00 00 00 00	 call	 ??1?$map@PAUHWND__@@UCWndData@@U?$less@PAUHWND__@@@std@@V?$allocator@U?$pair@QAUHWND__@@UCWndData@@@std@@@4@@std@@QAE@XZ
  001f2	8b 4d f4	 mov	 ecx, DWORD PTR __$EHRec$[ebp]
  001f5	64 89 0d 00 00
	00 00		 mov	 DWORD PTR fs:__except_list, ecx
  001fc	83 c4 10	 add	 esp, 16			; 00000010H
  001ff	3b ec		 cmp	 ebp, esp
  00201	e8 00 00 00 00	 call	 __RTC_CheckEsp
  00206	8b e5		 mov	 esp, ebp
  00208	5d		 pop	 ebp
  00209	c3		 ret	 0
_TEXT	ENDS
text$x	SEGMENT
$L192146:
  0003d	8b 4d f0	 mov	 ecx, DWORD PTR _this$[ebp]
  00040	e9 00 00 00 00	 jmp	 ??1?$map@PAUHWND__@@UCWndData@@U?$less@PAUHWND__@@@std@@V?$allocator@U?$pair@QAUHWND__@@UCWndData@@@std@@@4@@std@@QAE@XZ
$L192147:
  00045	8b 4d f0	 mov	 ecx, DWORD PTR _this$[ebp]
  00048	83 c1 0c	 add	 ecx, 12			; 0000000cH
  0004b	e9 00 00 00 00	 jmp	 ??1?$vector@PAVCHostWnd@@V?$allocator@PAVCHostWnd@@@std@@@std@@QAE@XZ ; std::vector<CHostWnd *,std::allocator<CHostWnd *> >::~vector<CHostWnd *,std::allocator<CHostWnd *> >
$L192148:
  00050	8b 4d f0	 mov	 ecx, DWORD PTR _this$[ebp]
  00053	83 c1 1c	 add	 ecx, 28			; 0000001cH
  00056	e9 00 00 00 00	 jmp	 ??1?$vector@PAVCHostWnd@@V?$allocator@PAVCHostWnd@@@std@@@std@@QAE@XZ ; std::vector<CHostWnd *,std::allocator<CHostWnd *> >::~vector<CHostWnd *,std::allocator<CHostWnd *> >
__ehhandler$??1CHostWndMgr@@AAE@XZ:
  0005b	b8 00 00 00 00	 mov	 eax, OFFSET FLAT:$T192151
  00060	e9 00 00 00 00	 jmp	 ___CxxFrameHandler
text$x	ENDS
??1CHostWndMgr@@AAE@XZ ENDP				; CHostWndMgr::~CHostWndMgr
PUBLIC	?KeepOriParent@CHostWndMgr@@QAEXPAVCWnd@@@Z	; CHostWndMgr::KeepOriParent
PUBLIC	??A?$map@PAUHWND__@@UCWndData@@U?$less@PAUHWND__@@@std@@V?$allocator@U?$pair@QAUHWND__@@UCWndData@@@std@@@4@@std@@QAEAAUCWndData@@ABQAUHWND__@@@Z ; std::map<HWND__ *,CWndData,std::less<HWND__ *>,std::allocator<std::pair<HWND__ * const,CWndData> > >::operator[]
EXTRN	@_RTC_CheckStackVars@8:NEAR
EXTRN	?GetParent@CWnd@@QBEPAV1@XZ:NEAR		; CWnd::GetParent
; Function compile flags: /Odt /RTCsu
_TEXT	SEGMENT
_data$ = -16						; size = 8
_this$ = -4						; size = 4
_pWndContent$ = 8					; size = 4
?KeepOriParent@CHostWndMgr@@QAEXPAVCWnd@@@Z PROC NEAR	; CHostWndMgr::KeepOriParent
; _this$ = ecx

; 36   : {

  00210	55		 push	 ebp
  00211	8b ec		 mov	 ebp, esp
  00213	83 ec 14	 sub	 esp, 20			; 00000014H
  00216	b8 cc cc cc cc	 mov	 eax, -858993460		; ccccccccH
  0021b	89 45 ec	 mov	 DWORD PTR [ebp-20], eax
  0021e	89 45 f0	 mov	 DWORD PTR [ebp-16], eax
  00221	89 45 f4	 mov	 DWORD PTR [ebp-12], eax
  00224	89 45 f8	 mov	 DWORD PTR [ebp-8], eax
  00227	89 45 fc	 mov	 DWORD PTR [ebp-4], eax
  0022a	89 4d fc	 mov	 DWORD PTR _this$[ebp], ecx

; 37   : 	//;//pHostWnd->HostWindow(pWndContent);
; 38   : 	CWndData data;
; 39   : 	data.pWnd = pWndContent;

  0022d	8b 45 08	 mov	 eax, DWORD PTR _pWndContent$[ebp]
  00230	89 45 f0	 mov	 DWORD PTR _data$[ebp], eax

; 40   : 	data.pParentWnd = pWndContent->GetParent();

  00233	8b 4d 08	 mov	 ecx, DWORD PTR _pWndContent$[ebp]
  00236	e8 00 00 00 00	 call	 ?GetParent@CWnd@@QBEPAV1@XZ ; CWnd::GetParent
  0023b	89 45 f4	 mov	 DWORD PTR _data$[ebp+4], eax

; 41   : 	//pWnd->SetParent(this);
; 42   : 	m_mapContentWnd[pWndContent->m_hWnd] = data;

  0023e	8b 4d 08	 mov	 ecx, DWORD PTR _pWndContent$[ebp]
  00241	83 c1 20	 add	 ecx, 32			; 00000020H
  00244	51		 push	 ecx
  00245	8b 4d fc	 mov	 ecx, DWORD PTR _this$[ebp]
  00248	e8 00 00 00 00	 call	 ??A?$map@PAUHWND__@@UCWndData@@U?$less@PAUHWND__@@@std@@V?$allocator@U?$pair@QAUHWND__@@UCWndData@@@std@@@4@@std@@QAEAAUCWndData@@ABQAUHWND__@@@Z ; std::map<HWND__ *,CWndData,std::less<HWND__ *>,std::allocator<std::pair<HWND__ * const,CWndData> > >::operator[]
  0024d	8b 55 f0	 mov	 edx, DWORD PTR _data$[ebp]
  00250	89 10		 mov	 DWORD PTR [eax], edx
  00252	8b 4d f4	 mov	 ecx, DWORD PTR _data$[ebp+4]
  00255	89 48 04	 mov	 DWORD PTR [eax+4], ecx

; 43   : }

  00258	52		 push	 edx
  00259	8b cd		 mov	 ecx, ebp
  0025b	50		 push	 eax
  0025c	8d 15 00 00 00
	00		 lea	 edx, DWORD PTR $L192157
  00262	e8 00 00 00 00	 call	 @_RTC_CheckStackVars@8
  00267	58		 pop	 eax
  00268	5a		 pop	 edx
  00269	83 c4 14	 add	 esp, 20			; 00000014H
  0026c	3b ec		 cmp	 ebp, esp
  0026e	e8 00 00 00 00	 call	 __RTC_CheckEsp
  00273	8b e5		 mov	 esp, ebp
  00275	5d		 pop	 ebp
  00276	c2 04 00	 ret	 4
$L192157:
  00279	01 00 00 00	 DD	 1
  0027d	00 00 00 00	 DD	 $L192156
$L192156:
  00281	f0 ff ff ff	 DD	 -16			; fffffff0H
  00285	08 00 00 00	 DD	 8
  00289	00 00 00 00	 DD	 $L192155
$L192155:
  0028d	64		 DB	 100			; 00000064H
  0028e	61		 DB	 97			; 00000061H
  0028f	74		 DB	 116			; 00000074H
  00290	61		 DB	 97			; 00000061H
  00291	00		 DB	 0
?KeepOriParent@CHostWndMgr@@QAEXPAVCWnd@@@Z ENDP	; CHostWndMgr::KeepOriParent
_TEXT	ENDS
PUBLIC	??0SepWindowData@@QAE@ABU0@@Z			; SepWindowData::SepWindowData
PUBLIC	?AttachMovingWnd@CHostWndMgr@@QAEXUSepWindowData@@@Z ; CHostWndMgr::AttachMovingWnd
PUBLIC	?AttachMovingWnds@CHostWndMgr@@QAEXAAV?$vector@USepWindowData@@V?$allocator@USepWindowData@@@std@@@std@@@Z ; CHostWndMgr::AttachMovingWnds
PUBLIC	?size@?$vector@USepWindowData@@V?$allocator@USepWindowData@@@std@@@std@@QBEIXZ ; std::vector<SepWindowData,std::allocator<SepWindowData> >::size
PUBLIC	??A?$vector@USepWindowData@@V?$allocator@USepWindowData@@@std@@@std@@QAEAAUSepWindowData@@I@Z ; std::vector<SepWindowData,std::allocator<SepWindowData> >::operator[]
; Function compile flags: /Odt /RTCsu
_TEXT	SEGMENT
tv87 = -16						; size = 4
$T192160 = -12						; size = 4
_i$189196 = -8						; size = 4
_this$ = -4						; size = 4
_vecSepData$ = 8					; size = 4
?AttachMovingWnds@CHostWndMgr@@QAEXAAV?$vector@USepWindowData@@V?$allocator@USepWindowData@@@std@@@std@@@Z PROC NEAR ; CHostWndMgr::AttachMovingWnds
; _this$ = ecx

; 46   : {

  002a0	55		 push	 ebp
  002a1	8b ec		 mov	 ebp, esp
  002a3	83 ec 10	 sub	 esp, 16			; 00000010H
  002a6	b8 cc cc cc cc	 mov	 eax, -858993460		; ccccccccH
  002ab	89 45 f0	 mov	 DWORD PTR [ebp-16], eax
  002ae	89 45 f4	 mov	 DWORD PTR [ebp-12], eax
  002b1	89 45 f8	 mov	 DWORD PTR [ebp-8], eax
  002b4	89 45 fc	 mov	 DWORD PTR [ebp-4], eax
  002b7	89 4d fc	 mov	 DWORD PTR _this$[ebp], ecx

; 47   : 	for(int i = 0; i<vecSepData.size(); i++)

  002ba	c7 45 f8 00 00
	00 00		 mov	 DWORD PTR _i$189196[ebp], 0
  002c1	eb 09		 jmp	 SHORT $L189438
$L189439:
  002c3	8b 45 f8	 mov	 eax, DWORD PTR _i$189196[ebp]
  002c6	83 c0 01	 add	 eax, 1
  002c9	89 45 f8	 mov	 DWORD PTR _i$189196[ebp], eax
$L189438:
  002cc	8b 4d 08	 mov	 ecx, DWORD PTR _vecSepData$[ebp]
  002cf	e8 00 00 00 00	 call	 ?size@?$vector@USepWindowData@@V?$allocator@USepWindowData@@@std@@@std@@QBEIXZ ; std::vector<SepWindowData,std::allocator<SepWindowData> >::size
  002d4	39 45 f8	 cmp	 DWORD PTR _i$189196[ebp], eax
  002d7	73 27		 jae	 SHORT $L189195

; 48   : 		AttachMovingWnd(vecSepData[i]);

  002d9	8b 4d f8	 mov	 ecx, DWORD PTR _i$189196[ebp]
  002dc	51		 push	 ecx
  002dd	8b 4d 08	 mov	 ecx, DWORD PTR _vecSepData$[ebp]
  002e0	e8 00 00 00 00	 call	 ??A?$vector@USepWindowData@@V?$allocator@USepWindowData@@@std@@@std@@QAEAAUSepWindowData@@I@Z ; std::vector<SepWindowData,std::allocator<SepWindowData> >::operator[]
  002e5	83 ec 30	 sub	 esp, 48			; 00000030H
  002e8	8b cc		 mov	 ecx, esp
  002ea	89 65 f4	 mov	 DWORD PTR $T192160[ebp], esp
  002ed	50		 push	 eax
  002ee	e8 00 00 00 00	 call	 ??0SepWindowData@@QAE@ABU0@@Z
  002f3	89 45 f0	 mov	 DWORD PTR tv87[ebp], eax
  002f6	8b 4d fc	 mov	 ecx, DWORD PTR _this$[ebp]
  002f9	e8 00 00 00 00	 call	 ?AttachMovingWnd@CHostWndMgr@@QAEXUSepWindowData@@@Z ; CHostWndMgr::AttachMovingWnd
  002fe	eb c3		 jmp	 SHORT $L189439
$L189195:

; 49   : }

  00300	83 c4 10	 add	 esp, 16			; 00000010H
  00303	3b ec		 cmp	 ebp, esp
  00305	e8 00 00 00 00	 call	 __RTC_CheckEsp
  0030a	8b e5		 mov	 esp, ebp
  0030c	5d		 pop	 ebp
  0030d	c2 04 00	 ret	 4
?AttachMovingWnds@CHostWndMgr@@QAEXAAV?$vector@USepWindowData@@V?$allocator@USepWindowData@@@std@@@std@@@Z ENDP ; CHostWndMgr::AttachMovingWnds
_TEXT	ENDS
EXTRN	__imp_??0?$CStringT@DV?$StrTraitMFC_DLL@DV?$ChTraitsCRT@D@ATL@@@@@ATL@@QAE@ABV01@@Z:NEAR
EXTRN	__imp_??1?$CStringT@DV?$StrTraitMFC_DLL@DV?$ChTraitsCRT@D@ATL@@@@@ATL@@QAE@XZ:NEAR
;	COMDAT xdata$x
xdata$x	SEGMENT
$T192168 DD	0ffffffffH
	DD	FLAT:$L192163
$T192166 DD	019930520H
	DD	01H
	DD	FLAT:$T192168
	DD	2 DUP(00H)
	DD	2 DUP(00H)
; Function compile flags: /Odt /RTCsu
xdata$x	ENDS
;	COMDAT ??0SepWindowData@@QAE@ABU0@@Z
_TEXT	SEGMENT
_this$ = -16						; size = 4
__$EHRec$ = -12						; size = 12
___that$ = 8						; size = 4
??0SepWindowData@@QAE@ABU0@@Z PROC NEAR			; SepWindowData::SepWindowData, COMDAT
; _this$ = ecx
  00000	55		 push	 ebp
  00001	8b ec		 mov	 ebp, esp
  00003	6a ff		 push	 -1
  00005	68 00 00 00 00	 push	 __ehhandler$??0SepWindowData@@QAE@ABU0@@Z
  0000a	64 a1 00 00 00
	00		 mov	 eax, DWORD PTR fs:__except_list
  00010	50		 push	 eax
  00011	64 89 25 00 00
	00 00		 mov	 DWORD PTR fs:__except_list, esp
  00018	51		 push	 ecx
  00019	56		 push	 esi
  0001a	c7 45 f0 cc cc
	cc cc		 mov	 DWORD PTR [ebp-16], -858993460 ; ccccccccH
  00021	89 4d f0	 mov	 DWORD PTR _this$[ebp], ecx
  00024	8b 45 f0	 mov	 eax, DWORD PTR _this$[ebp]
  00027	8b 4d 08	 mov	 ecx, DWORD PTR ___that$[ebp]
  0002a	8b 11		 mov	 edx, DWORD PTR [ecx]
  0002c	89 10		 mov	 DWORD PTR [eax], edx
  0002e	8b 45 f0	 mov	 eax, DWORD PTR _this$[ebp]
  00031	8b 4d 08	 mov	 ecx, DWORD PTR ___that$[ebp]
  00034	8b 51 04	 mov	 edx, DWORD PTR [ecx+4]
  00037	89 50 04	 mov	 DWORD PTR [eax+4], edx
  0003a	8b 45 f0	 mov	 eax, DWORD PTR _this$[ebp]
  0003d	8b 4d 08	 mov	 ecx, DWORD PTR ___that$[ebp]
  00040	8b 51 08	 mov	 edx, DWORD PTR [ecx+8]
  00043	89 50 08	 mov	 DWORD PTR [eax+8], edx
  00046	8b 45 08	 mov	 eax, DWORD PTR ___that$[ebp]
  00049	83 c0 0c	 add	 eax, 12			; 0000000cH
  0004c	8b 4d f0	 mov	 ecx, DWORD PTR _this$[ebp]
  0004f	83 c1 0c	 add	 ecx, 12			; 0000000cH
  00052	8b 10		 mov	 edx, DWORD PTR [eax]
  00054	89 11		 mov	 DWORD PTR [ecx], edx
  00056	8b 50 04	 mov	 edx, DWORD PTR [eax+4]
  00059	89 51 04	 mov	 DWORD PTR [ecx+4], edx
  0005c	8b 50 08	 mov	 edx, DWORD PTR [eax+8]
  0005f	89 51 08	 mov	 DWORD PTR [ecx+8], edx
  00062	8b 40 0c	 mov	 eax, DWORD PTR [eax+12]
  00065	89 41 0c	 mov	 DWORD PTR [ecx+12], eax
  00068	8b 4d 08	 mov	 ecx, DWORD PTR ___that$[ebp]
  0006b	83 c1 1c	 add	 ecx, 28			; 0000001cH
  0006e	8b f4		 mov	 esi, esp
  00070	51		 push	 ecx
  00071	8b 4d f0	 mov	 ecx, DWORD PTR _this$[ebp]
  00074	83 c1 1c	 add	 ecx, 28			; 0000001cH
  00077	ff 15 00 00 00
	00		 call	 DWORD PTR __imp_??0?$CStringT@DV?$StrTraitMFC_DLL@DV?$ChTraitsCRT@D@ATL@@@@@ATL@@QAE@ABV01@@Z
  0007d	3b f4		 cmp	 esi, esp
  0007f	e8 00 00 00 00	 call	 __RTC_CheckEsp
  00084	c7 45 fc 00 00
	00 00		 mov	 DWORD PTR __$EHRec$[ebp+8], 0
  0008b	8b 55 08	 mov	 edx, DWORD PTR ___that$[ebp]
  0008e	83 c2 20	 add	 edx, 32			; 00000020H
  00091	8b f4		 mov	 esi, esp
  00093	52		 push	 edx
  00094	8b 4d f0	 mov	 ecx, DWORD PTR _this$[ebp]
  00097	83 c1 20	 add	 ecx, 32			; 00000020H
  0009a	ff 15 00 00 00
	00		 call	 DWORD PTR __imp_??0?$CStringT@DV?$StrTraitMFC_DLL@DV?$ChTraitsCRT@D@ATL@@@@@ATL@@QAE@ABV01@@Z
  000a0	3b f4		 cmp	 esi, esp
  000a2	e8 00 00 00 00	 call	 __RTC_CheckEsp
  000a7	8b 45 f0	 mov	 eax, DWORD PTR _this$[ebp]
  000aa	8b 4d 08	 mov	 ecx, DWORD PTR ___that$[ebp]
  000ad	8b 51 24	 mov	 edx, DWORD PTR [ecx+36]
  000b0	89 50 24	 mov	 DWORD PTR [eax+36], edx
  000b3	8b 45 f0	 mov	 eax, DWORD PTR _this$[ebp]
  000b6	8b 4d 08	 mov	 ecx, DWORD PTR ___that$[ebp]
  000b9	8b 51 28	 mov	 edx, DWORD PTR [ecx+40]
  000bc	89 50 28	 mov	 DWORD PTR [eax+40], edx
  000bf	8b 45 f0	 mov	 eax, DWORD PTR _this$[ebp]
  000c2	8b 4d 08	 mov	 ecx, DWORD PTR ___that$[ebp]
  000c5	8b 51 2c	 mov	 edx, DWORD PTR [ecx+44]
  000c8	89 50 2c	 mov	 DWORD PTR [eax+44], edx
  000cb	c7 45 fc ff ff
	ff ff		 mov	 DWORD PTR __$EHRec$[ebp+8], -1
  000d2	8b 45 f0	 mov	 eax, DWORD PTR _this$[ebp]
  000d5	8b 4d f4	 mov	 ecx, DWORD PTR __$EHRec$[ebp]
  000d8	64 89 0d 00 00
	00 00		 mov	 DWORD PTR fs:__except_list, ecx
  000df	5e		 pop	 esi
  000e0	83 c4 10	 add	 esp, 16			; 00000010H
  000e3	3b ec		 cmp	 ebp, esp
  000e5	e8 00 00 00 00	 call	 __RTC_CheckEsp
  000ea	8b e5		 mov	 esp, ebp
  000ec	5d		 pop	 ebp
  000ed	c2 04 00	 ret	 4
_TEXT	ENDS
;	COMDAT text$x
text$x	SEGMENT
$L192163:
  00000	8b 4d f0	 mov	 ecx, DWORD PTR _this$[ebp]
  00003	83 c1 1c	 add	 ecx, 28			; 0000001cH
  00006	8b f4		 mov	 esi, esp
  00008	ff 15 00 00 00
	00		 call	 DWORD PTR __imp_??1?$CStringT@DV?$StrTraitMFC_DLL@DV?$ChTraitsCRT@D@ATL@@@@@ATL@@QAE@XZ
  0000e	3b f4		 cmp	 esi, esp
  00010	e9 00 00 00 00	 jmp	 __RTC_CheckEsp
__ehhandler$??0SepWindowData@@QAE@ABU0@@Z:
  00015	b8 00 00 00 00	 mov	 eax, OFFSET FLAT:$T192166
  0001a	e9 00 00 00 00	 jmp	 ___CxxFrameHandler
text$x	ENDS
??0SepWindowData@@QAE@ABU0@@Z ENDP			; SepWindowData::SepWindowData
PUBLIC	??1SepWindowData@@QAE@XZ			; SepWindowData::~SepWindowData
PUBLIC	?push_back@?$vector@PAVCHostWnd@@V?$allocator@PAVCHostWnd@@@std@@@std@@QAEXABQAVCHostWnd@@@Z ; std::vector<CHostWnd *,std::allocator<CHostWnd *> >::push_back
PUBLIC	?SetMinConstrant@CHostWnd@@QAEXHH@Z		; CHostWnd::SetMinConstrant
PUBLIC	?SetMainWnd@CHostWnd@@QAEXH@Z			; CHostWnd::SetMainWnd
PUBLIC	?SetName@CHostWnd@@QAEXV?$basic_string@DU?$char_traits@D@std@@V?$allocator@D@2@@std@@@Z ; CHostWnd::SetName
PUBLIC	?SetResizable@CHostWnd@@QAEX_N@Z		; CHostWnd::SetResizable
PUBLIC	?SetContent@CHostWnd@@QAEXV?$CStringT@DV?$StrTraitMFC_DLL@DV?$ChTraitsCRT@D@ATL@@@@@ATL@@@Z ; CHostWnd::SetContent
EXTRN	__imp_?Format@?$CStringT@DV?$StrTraitMFC_DLL@DV?$ChTraitsCRT@D@ATL@@@@@ATL@@QAAXPBDZZ:NEAR
EXTRN	??0CMainHostWnd@@QAE@PAVCWnd@@@Z:NEAR		; CMainHostWnd::CMainHostWnd
EXTRN	?AfxGetMainWindow@@YAPAVCWnd@@XZ:NEAR		; AfxGetMainWindow
EXTRN	??BCRect@@QAEPAUtagRECT@@XZ:NEAR		; CRect::operator tagRECT *
EXTRN	__imp_??0?$basic_string@DU?$char_traits@D@std@@V?$allocator@D@2@@std@@QAE@PBD@Z:NEAR
EXTRN	??2CObject@@SGPAXI@Z:NEAR			; CObject::operator new
EXTRN	??3CObject@@SGXPAX@Z:NEAR			; CObject::operator delete
EXTRN	?MoveWindow@CWnd@@QAEXHHHHH@Z:NEAR		; CWnd::MoveWindow
EXTRN	?MoveWindow@CWnd@@QAEXPBUtagRECT@@H@Z:NEAR	; CWnd::MoveWindow
EXTRN	__imp_??B?$CSimpleStringT@D$00@ATL@@QBEPBDXZ:NEAR
EXTRN	?GetWindowRect@CWnd@@QBEXPAUtagRECT@@@Z:NEAR	; CWnd::GetWindowRect
EXTRN	?ShowWindow@CWnd@@QAEHH@Z:NEAR			; CWnd::ShowWindow
EXTRN	__imp_??0?$CStringT@DV?$StrTraitMFC_DLL@DV?$ChTraitsCRT@D@ATL@@@@@ATL@@QAE@XZ:NEAR
EXTRN	??0CHostWnd@@QAE@PAVCWnd@@@Z:NEAR		; CHostWnd::CHostWnd
EXTRN	?HostWindow@CHostWnd@@QAEXPAVCWnd@@_N@Z:NEAR	; CHostWnd::HostWindow
xdata$x	SEGMENT
$T192195 DD	0ffffffffH
	DD	FLAT:$L192182
	DD	00H
	DD	FLAT:$L192183
	DD	00H
	DD	FLAT:$L192184
	DD	00H
	DD	FLAT:$L192187
$T192189 DD	019930520H
	DD	04H
	DD	FLAT:$T192195
	DD	2 DUP(00H)
	DD	2 DUP(00H)
; Function compile flags: /Odt /RTCsu
xdata$x	ENDS
_TEXT	SEGMENT
tv218 = -80						; size = 4
tv216 = -76						; size = 4
tv83 = -72						; size = 4
tv74 = -68						; size = 4
$T192181 = -64						; size = 4
$T192180 = -60						; size = 4
$T192177 = -56						; size = 4
$T192176 = -52						; size = 4
$T192173 = -48						; size = 4
$T192172 = -44						; size = 4
_str$189471 = -36					; size = 4
_pHostWnd$ = -24					; size = 4
_this$ = -16						; size = 4
__$EHRec$ = -12						; size = 12
_data$ = 8						; size = 48
?AttachMovingWnd@CHostWndMgr@@QAEXUSepWindowData@@@Z PROC NEAR ; CHostWndMgr::AttachMovingWnd
; _this$ = ecx

; 53   : {

  00310	55		 push	 ebp
  00311	8b ec		 mov	 ebp, esp
  00313	6a ff		 push	 -1
  00315	68 00 00 00 00	 push	 __ehhandler$?AttachMovingWnd@CHostWndMgr@@QAEXUSepWindowData@@@Z
  0031a	64 a1 00 00 00
	00		 mov	 eax, DWORD PTR fs:__except_list
  00320	50		 push	 eax
  00321	64 89 25 00 00
	00 00		 mov	 DWORD PTR fs:__except_list, esp
  00328	83 ec 44	 sub	 esp, 68			; 00000044H
  0032b	56		 push	 esi
  0032c	57		 push	 edi
  0032d	51		 push	 ecx
  0032e	8d 7d b0	 lea	 edi, DWORD PTR [ebp-80]
  00331	b9 11 00 00 00	 mov	 ecx, 17			; 00000011H
  00336	b8 cc cc cc cc	 mov	 eax, -858993460		; ccccccccH
  0033b	f3 ab		 rep stosd
  0033d	59		 pop	 ecx
  0033e	89 4d f0	 mov	 DWORD PTR _this$[ebp], ecx
  00341	c7 45 fc 00 00
	00 00		 mov	 DWORD PTR __$EHRec$[ebp+8], 0

; 54   : 	CHostWnd *pHostWnd = NULL;

  00348	c7 45 e8 00 00
	00 00		 mov	 DWORD PTR _pHostWnd$[ebp], 0

; 55   : 
; 56   : 	if(data.isMain)

  0034f	83 7d 0c 00	 cmp	 DWORD PTR _data$[ebp+4], 0
  00353	74 48		 je	 SHORT $L189452

; 57   : 	{
; 58   : 		pHostWnd = new CMainHostWnd();

  00355	68 50 02 00 00	 push	 592			; 00000250H
  0035a	e8 00 00 00 00	 call	 ??2CObject@@SGPAXI@Z	; CObject::operator new
  0035f	89 45 d0	 mov	 DWORD PTR $T192173[ebp], eax
  00362	c6 45 fc 01	 mov	 BYTE PTR __$EHRec$[ebp+8], 1
  00366	83 7d d0 00	 cmp	 DWORD PTR $T192173[ebp], 0
  0036a	74 0f		 je	 SHORT $L192174
  0036c	6a 00		 push	 0
  0036e	8b 4d d0	 mov	 ecx, DWORD PTR $T192173[ebp]
  00371	e8 00 00 00 00	 call	 ??0CMainHostWnd@@QAE@PAVCWnd@@@Z ; CMainHostWnd::CMainHostWnd
  00376	89 45 bc	 mov	 DWORD PTR tv74[ebp], eax
  00379	eb 07		 jmp	 SHORT $L192175
$L192174:
  0037b	c7 45 bc 00 00
	00 00		 mov	 DWORD PTR tv74[ebp], 0
$L192175:
  00382	8b 45 bc	 mov	 eax, DWORD PTR tv74[ebp]
  00385	89 45 d4	 mov	 DWORD PTR $T192172[ebp], eax
  00388	c6 45 fc 00	 mov	 BYTE PTR __$EHRec$[ebp+8], 0
  0038c	8b 4d d4	 mov	 ecx, DWORD PTR $T192172[ebp]
  0038f	89 4d e8	 mov	 DWORD PTR _pHostWnd$[ebp], ecx

; 59   : 		m_pMainWnd = pHostWnd;//data.pWnd;

  00392	8b 55 f0	 mov	 edx, DWORD PTR _this$[ebp]
  00395	8b 45 e8	 mov	 eax, DWORD PTR _pHostWnd$[ebp]
  00398	89 42 3c	 mov	 DWORD PTR [edx+60], eax

; 60   : 	}
; 61   : 	else

  0039b	eb 3d		 jmp	 SHORT $L189457
$L189452:

; 62   : 		pHostWnd = new CHostWnd();

  0039d	68 34 02 00 00	 push	 564			; 00000234H
  003a2	e8 00 00 00 00	 call	 ??2CObject@@SGPAXI@Z	; CObject::operator new
  003a7	89 45 c8	 mov	 DWORD PTR $T192177[ebp], eax
  003aa	c6 45 fc 02	 mov	 BYTE PTR __$EHRec$[ebp+8], 2
  003ae	83 7d c8 00	 cmp	 DWORD PTR $T192177[ebp], 0
  003b2	74 0f		 je	 SHORT $L192178
  003b4	6a 00		 push	 0
  003b6	8b 4d c8	 mov	 ecx, DWORD PTR $T192177[ebp]
  003b9	e8 00 00 00 00	 call	 ??0CHostWnd@@QAE@PAVCWnd@@@Z ; CHostWnd::CHostWnd
  003be	89 45 b8	 mov	 DWORD PTR tv83[ebp], eax
  003c1	eb 07		 jmp	 SHORT $L192179
$L192178:
  003c3	c7 45 b8 00 00
	00 00		 mov	 DWORD PTR tv83[ebp], 0
$L192179:
  003ca	8b 4d b8	 mov	 ecx, DWORD PTR tv83[ebp]
  003cd	89 4d cc	 mov	 DWORD PTR $T192176[ebp], ecx
  003d0	c6 45 fc 00	 mov	 BYTE PTR __$EHRec$[ebp+8], 0
  003d4	8b 55 cc	 mov	 edx, DWORD PTR $T192176[ebp]
  003d7	89 55 e8	 mov	 DWORD PTR _pHostWnd$[ebp], edx
$L189457:

; 63   : 
; 64   : 	pHostWnd->SetMainWnd(data.isMain);

  003da	8b 45 0c	 mov	 eax, DWORD PTR _data$[ebp+4]
  003dd	50		 push	 eax
  003de	8b 4d e8	 mov	 ecx, DWORD PTR _pHostWnd$[ebp]
  003e1	e8 00 00 00 00	 call	 ?SetMainWnd@CHostWnd@@QAEXH@Z ; CHostWnd::SetMainWnd

; 65   : //	pHostWnd->SetBackGround(strBorder);
; 66   : 	pHostWnd->SetResizable(data.isResizable);

  003e6	83 7d 10 00	 cmp	 DWORD PTR _data$[ebp+8], 0
  003ea	0f 95 c1	 setne	 cl
  003ed	51		 push	 ecx
  003ee	8b 4d e8	 mov	 ecx, DWORD PTR _pHostWnd$[ebp]
  003f1	e8 00 00 00 00	 call	 ?SetResizable@CHostWnd@@QAEX_N@Z ; CHostWnd::SetResizable

; 67   : 	pHostWnd->SetContent(data.strContent);

  003f6	51		 push	 ecx
  003f7	8b cc		 mov	 ecx, esp
  003f9	89 65 c4	 mov	 DWORD PTR $T192180[ebp], esp
  003fc	8b f4		 mov	 esi, esp
  003fe	8d 55 28	 lea	 edx, DWORD PTR _data$[ebp+32]
  00401	52		 push	 edx
  00402	ff 15 00 00 00
	00		 call	 DWORD PTR __imp_??0?$CStringT@DV?$StrTraitMFC_DLL@DV?$ChTraitsCRT@D@ATL@@@@@ATL@@QAE@ABV01@@Z
  00408	3b f4		 cmp	 esi, esp
  0040a	e8 00 00 00 00	 call	 __RTC_CheckEsp
  0040f	89 45 b4	 mov	 DWORD PTR tv216[ebp], eax
  00412	8b 4d e8	 mov	 ecx, DWORD PTR _pHostWnd$[ebp]
  00415	e8 00 00 00 00	 call	 ?SetContent@CHostWnd@@QAEXV?$CStringT@DV?$StrTraitMFC_DLL@DV?$ChTraitsCRT@D@ATL@@@@@ATL@@@Z ; CHostWnd::SetContent

; 68   : 	pHostWnd->SetMinConstrant(data.nMinX, data.nMinY);

  0041a	8b 45 30	 mov	 eax, DWORD PTR _data$[ebp+40]
  0041d	50		 push	 eax
  0041e	8b 4d 2c	 mov	 ecx, DWORD PTR _data$[ebp+36]
  00421	51		 push	 ecx
  00422	8b 4d e8	 mov	 ecx, DWORD PTR _pHostWnd$[ebp]
  00425	e8 00 00 00 00	 call	 ?SetMinConstrant@CHostWnd@@QAEXHH@Z ; CHostWnd::SetMinConstrant

; 69   : 
; 70   :     //pHostWnd->Create(IDD_HOST,NULL);
; 71   : 	if(!data.isMain)

  0042a	83 7d 0c 00	 cmp	 DWORD PTR _data$[ebp+4], 0
  0042e	75 21		 jne	 SHORT $L189463

; 72   : 		pHostWnd->Create(IDD_HOST,::AfxGetMainWindow());//pHostWnd->SetParent(m_pMainWnd);//::AfxGetMainWindow());

  00430	e8 00 00 00 00	 call	 ?AfxGetMainWindow@@YAPAVCWnd@@XZ ; AfxGetMainWindow
  00435	8b f4		 mov	 esi, esp
  00437	50		 push	 eax
  00438	6a 6d		 push	 109			; 0000006dH
  0043a	8b 55 e8	 mov	 edx, DWORD PTR _pHostWnd$[ebp]
  0043d	8b 02		 mov	 eax, DWORD PTR [edx]
  0043f	8b 4d e8	 mov	 ecx, DWORD PTR _pHostWnd$[ebp]
  00442	ff 90 38 01 00
	00		 call	 DWORD PTR [eax+312]
  00448	3b f4		 cmp	 esi, esp
  0044a	e8 00 00 00 00	 call	 __RTC_CheckEsp

; 73   : 	else

  0044f	eb 1f		 jmp	 SHORT $L189464
$L189463:

; 74   : 		pHostWnd->Create(IDD_HOST,::AfxGetMainWindow());

  00451	e8 00 00 00 00	 call	 ?AfxGetMainWindow@@YAPAVCWnd@@XZ ; AfxGetMainWindow
  00456	8b f4		 mov	 esi, esp
  00458	50		 push	 eax
  00459	6a 6d		 push	 109			; 0000006dH
  0045b	8b 4d e8	 mov	 ecx, DWORD PTR _pHostWnd$[ebp]
  0045e	8b 11		 mov	 edx, DWORD PTR [ecx]
  00460	8b 4d e8	 mov	 ecx, DWORD PTR _pHostWnd$[ebp]
  00463	ff 92 38 01 00
	00		 call	 DWORD PTR [edx+312]
  00469	3b f4		 cmp	 esi, esp
  0046b	e8 00 00 00 00	 call	 __RTC_CheckEsp
$L189464:

; 75   : 
; 76   : 	pHostWnd->SetName(string(data.strName));

  00470	8b f4		 mov	 esi, esp
  00472	8d 4d 24	 lea	 ecx, DWORD PTR _data$[ebp+28]
  00475	ff 15 00 00 00
	00		 call	 DWORD PTR __imp_??B?$CSimpleStringT@D$00@ATL@@QBEPBDXZ
  0047b	3b f4		 cmp	 esi, esp
  0047d	e8 00 00 00 00	 call	 __RTC_CheckEsp
  00482	83 ec 1c	 sub	 esp, 28			; 0000001cH
  00485	8b cc		 mov	 ecx, esp
  00487	89 65 c0	 mov	 DWORD PTR $T192181[ebp], esp
  0048a	8b f4		 mov	 esi, esp
  0048c	50		 push	 eax
  0048d	ff 15 00 00 00
	00		 call	 DWORD PTR __imp_??0?$basic_string@DU?$char_traits@D@std@@V?$allocator@D@2@@std@@QAE@PBD@Z
  00493	3b f4		 cmp	 esi, esp
  00495	e8 00 00 00 00	 call	 __RTC_CheckEsp
  0049a	89 45 b0	 mov	 DWORD PTR tv218[ebp], eax
  0049d	8b 4d e8	 mov	 ecx, DWORD PTR _pHostWnd$[ebp]
  004a0	e8 00 00 00 00	 call	 ?SetName@CHostWnd@@QAEXV?$basic_string@DU?$char_traits@D@std@@V?$allocator@D@2@@std@@@Z ; CHostWnd::SetName

; 77   : 	m_vecHostWnds.push_back(pHostWnd);

  004a5	8d 45 e8	 lea	 eax, DWORD PTR _pHostWnd$[ebp]
  004a8	50		 push	 eax
  004a9	8b 4d f0	 mov	 ecx, DWORD PTR _this$[ebp]
  004ac	83 c1 0c	 add	 ecx, 12			; 0000000cH
  004af	e8 00 00 00 00	 call	 ?push_back@?$vector@PAVCHostWnd@@V?$allocator@PAVCHostWnd@@@std@@@std@@QAEXABQAVCHostWnd@@@Z ; std::vector<CHostWnd *,std::allocator<CHostWnd *> >::push_back

; 78   : 
; 79   : 	m_vecVisibleWnds.push_back(pHostWnd);

  004b4	8d 4d e8	 lea	 ecx, DWORD PTR _pHostWnd$[ebp]
  004b7	51		 push	 ecx
  004b8	8b 4d f0	 mov	 ecx, DWORD PTR _this$[ebp]
  004bb	83 c1 1c	 add	 ecx, 28			; 0000001cH
  004be	e8 00 00 00 00	 call	 ?push_back@?$vector@PAVCHostWnd@@V?$allocator@PAVCHostWnd@@@std@@@std@@QAEXABQAVCHostWnd@@@Z ; std::vector<CHostWnd *,std::allocator<CHostWnd *> >::push_back

; 80   : 	if(data.bHide && !data.isMain)

  004c3	83 7d 34 00	 cmp	 DWORD PTR _data$[ebp+44], 0
  004c7	74 12		 je	 SHORT $L189467
  004c9	83 7d 0c 00	 cmp	 DWORD PTR _data$[ebp+4], 0
  004cd	75 0c		 jne	 SHORT $L189467

; 81   : 		pHostWnd->ShowWindow(SW_HIDE);

  004cf	6a 00		 push	 0
  004d1	8b 4d e8	 mov	 ecx, DWORD PTR _pHostWnd$[ebp]
  004d4	e8 00 00 00 00	 call	 ?ShowWindow@CWnd@@QAEHH@Z ; CWnd::ShowWindow

; 82   : 	else

  004d9	eb 15		 jmp	 SHORT $L189468
$L189467:

; 83   : 	{
; 84   : 		if (!m_bHideWindow)

  004db	8b 55 f0	 mov	 edx, DWORD PTR _this$[ebp]
  004de	0f b6 42 40	 movzx	 eax, BYTE PTR [edx+64]
  004e2	85 c0		 test	 eax, eax
  004e4	75 0a		 jne	 SHORT $L189468

; 85   : 		{
; 86   : 			pHostWnd->ShowWindow(SW_SHOW);

  004e6	6a 05		 push	 5
  004e8	8b 4d e8	 mov	 ecx, DWORD PTR _pHostWnd$[ebp]
  004eb	e8 00 00 00 00	 call	 ?ShowWindow@CWnd@@QAEHH@Z ; CWnd::ShowWindow
$L189468:

; 87   : 		}
; 88   : 	}
; 89   : 
; 90   : 	pHostWnd->HostWindow(data.pWnd, data.isMain);

  004f0	83 7d 0c 00	 cmp	 DWORD PTR _data$[ebp+4], 0
  004f4	0f 95 c1	 setne	 cl
  004f7	51		 push	 ecx
  004f8	8b 55 08	 mov	 edx, DWORD PTR _data$[ebp]
  004fb	52		 push	 edx
  004fc	8b 4d e8	 mov	 ecx, DWORD PTR _pHostWnd$[ebp]
  004ff	e8 00 00 00 00	 call	 ?HostWindow@CHostWnd@@QAEXPAVCWnd@@_N@Z ; CHostWnd::HostWindow

; 91   : 	pHostWnd->MoveWindow(data.rc);

  00504	6a 01		 push	 1
  00506	8d 4d 14	 lea	 ecx, DWORD PTR _data$[ebp+12]
  00509	e8 00 00 00 00	 call	 ??BCRect@@QAEPAUtagRECT@@XZ ; CRect::operator tagRECT *
  0050e	50		 push	 eax
  0050f	8b 4d e8	 mov	 ecx, DWORD PTR _pHostWnd$[ebp]
  00512	e8 00 00 00 00	 call	 ?MoveWindow@CWnd@@QAEXPBUtagRECT@@H@Z ; CWnd::MoveWindow

; 92   : 
; 93   : 
; 94   : 	if(data.isMain)

  00517	83 7d 0c 00	 cmp	 DWORD PTR _data$[ebp+4], 0
  0051b	74 79		 je	 SHORT $L189470

; 95   : 	{
; 96   : 		AfxGetMainWindow()->MoveWindow(data.rc.left, data.rc.top, 0,0);

  0051d	6a 01		 push	 1
  0051f	6a 00		 push	 0
  00521	6a 00		 push	 0
  00523	8b 45 18	 mov	 eax, DWORD PTR _data$[ebp+16]
  00526	50		 push	 eax
  00527	8b 4d 14	 mov	 ecx, DWORD PTR _data$[ebp+12]
  0052a	51		 push	 ecx
  0052b	e8 00 00 00 00	 call	 ?AfxGetMainWindow@@YAPAVCWnd@@XZ ; AfxGetMainWindow
  00530	8b c8		 mov	 ecx, eax
  00532	e8 00 00 00 00	 call	 ?MoveWindow@CWnd@@QAEXHHHHH@Z ; CWnd::MoveWindow

; 97   : 		CString str;

  00537	8b f4		 mov	 esi, esp
  00539	8d 4d dc	 lea	 ecx, DWORD PTR _str$189471[ebp]
  0053c	ff 15 00 00 00
	00		 call	 DWORD PTR __imp_??0?$CStringT@DV?$StrTraitMFC_DLL@DV?$ChTraitsCRT@D@ATL@@@@@ATL@@QAE@XZ
  00542	3b f4		 cmp	 esi, esp
  00544	e8 00 00 00 00	 call	 __RTC_CheckEsp
  00549	c6 45 fc 03	 mov	 BYTE PTR __$EHRec$[ebp+8], 3

; 98   : 		str.Format("%d,%d", data.rc.left, data.rc.top);

  0054d	8b f4		 mov	 esi, esp
  0054f	8b 55 18	 mov	 edx, DWORD PTR _data$[ebp+16]
  00552	52		 push	 edx
  00553	8b 45 14	 mov	 eax, DWORD PTR _data$[ebp+12]
  00556	50		 push	 eax
  00557	68 00 00 00 00	 push	 OFFSET FLAT:$SG189472
  0055c	8d 4d dc	 lea	 ecx, DWORD PTR _str$189471[ebp]
  0055f	51		 push	 ecx
  00560	ff 15 00 00 00
	00		 call	 DWORD PTR __imp_?Format@?$CStringT@DV?$StrTraitMFC_DLL@DV?$ChTraitsCRT@D@ATL@@@@@ATL@@QAAXPBDZZ
  00566	83 c4 10	 add	 esp, 16			; 00000010H
  00569	3b f4		 cmp	 esi, esp
  0056b	e8 00 00 00 00	 call	 __RTC_CheckEsp

; 99   : 		AfxGetMainWindow()->GetWindowRect(&data.rc);

  00570	8d 55 14	 lea	 edx, DWORD PTR _data$[ebp+12]
  00573	52		 push	 edx
  00574	e8 00 00 00 00	 call	 ?AfxGetMainWindow@@YAPAVCWnd@@XZ ; AfxGetMainWindow
  00579	8b c8		 mov	 ecx, eax
  0057b	e8 00 00 00 00	 call	 ?GetWindowRect@CWnd@@QBEXPAUtagRECT@@@Z ; CWnd::GetWindowRect

; 100  : 		//if(AfxGetMainWindow()->IsWindowVisible())
; 101  : 		//AfxMessageBox(str);
; 102  : 	}

  00580	c6 45 fc 00	 mov	 BYTE PTR __$EHRec$[ebp+8], 0
  00584	8b f4		 mov	 esi, esp
  00586	8d 4d dc	 lea	 ecx, DWORD PTR _str$189471[ebp]
  00589	ff 15 00 00 00
	00		 call	 DWORD PTR __imp_??1?$CStringT@DV?$StrTraitMFC_DLL@DV?$ChTraitsCRT@D@ATL@@@@@ATL@@QAE@XZ
  0058f	3b f4		 cmp	 esi, esp
  00591	e8 00 00 00 00	 call	 __RTC_CheckEsp
$L189470:

; 103  : }

  00596	c7 45 fc ff ff
	ff ff		 mov	 DWORD PTR __$EHRec$[ebp+8], -1
  0059d	8d 4d 08	 lea	 ecx, DWORD PTR _data$[ebp]
  005a0	e8 00 00 00 00	 call	 ??1SepWindowData@@QAE@XZ
  005a5	52		 push	 edx
  005a6	8b cd		 mov	 ecx, ebp
  005a8	50		 push	 eax
  005a9	8d 15 00 00 00
	00		 lea	 edx, DWORD PTR $L192194
  005af	e8 00 00 00 00	 call	 @_RTC_CheckStackVars@8
  005b4	58		 pop	 eax
  005b5	5a		 pop	 edx
  005b6	8b 4d f4	 mov	 ecx, DWORD PTR __$EHRec$[ebp]
  005b9	64 89 0d 00 00
	00 00		 mov	 DWORD PTR fs:__except_list, ecx
  005c0	5f		 pop	 edi
  005c1	5e		 pop	 esi
  005c2	83 c4 50	 add	 esp, 80			; 00000050H
  005c5	3b ec		 cmp	 ebp, esp
  005c7	e8 00 00 00 00	 call	 __RTC_CheckEsp
  005cc	8b e5		 mov	 esp, ebp
  005ce	5d		 pop	 ebp
  005cf	c2 30 00	 ret	 48			; 00000030H
$L192194:
  005d2	02 00 00 00	 DD	 2
  005d6	00 00 00 00	 DD	 $L192193
$L192193:
  005da	e8 ff ff ff	 DD	 -24			; ffffffe8H
  005de	04 00 00 00	 DD	 4
  005e2	00 00 00 00	 DD	 $L192190
  005e6	dc ff ff ff	 DD	 -36			; ffffffdcH
  005ea	04 00 00 00	 DD	 4
  005ee	00 00 00 00	 DD	 $L192191
$L192191:
  005f2	73		 DB	 115			; 00000073H
  005f3	74		 DB	 116			; 00000074H
  005f4	72		 DB	 114			; 00000072H
  005f5	00		 DB	 0
$L192190:
  005f6	70		 DB	 112			; 00000070H
  005f7	48		 DB	 72			; 00000048H
  005f8	6f		 DB	 111			; 0000006fH
  005f9	73		 DB	 115			; 00000073H
  005fa	74		 DB	 116			; 00000074H
  005fb	57		 DB	 87			; 00000057H
  005fc	6e		 DB	 110			; 0000006eH
  005fd	64		 DB	 100			; 00000064H
  005fe	00		 DB	 0
_TEXT	ENDS
text$x	SEGMENT
$L192182:
  00065	8d 4d 08	 lea	 ecx, DWORD PTR _data$[ebp]
  00068	e9 00 00 00 00	 jmp	 ??1SepWindowData@@QAE@XZ
$L192183:
  0006d	8b 45 d0	 mov	 eax, DWORD PTR $T192173[ebp]
  00070	50		 push	 eax
  00071	e8 00 00 00 00	 call	 ??3CObject@@SGXPAX@Z	; CObject::operator delete
  00076	c3		 ret	 0
$L192184:
  00077	8b 45 c8	 mov	 eax, DWORD PTR $T192177[ebp]
  0007a	50		 push	 eax
  0007b	e8 00 00 00 00	 call	 ??3CObject@@SGXPAX@Z	; CObject::operator delete
  00080	c3		 ret	 0
$L192187:
  00081	8b f4		 mov	 esi, esp
  00083	8d 4d dc	 lea	 ecx, DWORD PTR _str$189471[ebp]
  00086	ff 15 00 00 00
	00		 call	 DWORD PTR __imp_??1?$CStringT@DV?$StrTraitMFC_DLL@DV?$ChTraitsCRT@D@ATL@@@@@ATL@@QAE@XZ
  0008c	3b f4		 cmp	 esi, esp
  0008e	e9 00 00 00 00	 jmp	 __RTC_CheckEsp
__ehhandler$?AttachMovingWnd@CHostWndMgr@@QAEXUSepWindowData@@@Z:
  00093	b8 00 00 00 00	 mov	 eax, OFFSET FLAT:$T192189
  00098	e9 00 00 00 00	 jmp	 ___CxxFrameHandler
text$x	ENDS
?AttachMovingWnd@CHostWndMgr@@QAEXUSepWindowData@@@Z ENDP ; CHostWndMgr::AttachMovingWnd
; Function compile flags: /Odt /RTCsu
; File d:\boxgit\playbox\playbox\dev\prj\playbox\src\layoutmgr\seperatemode\hostwnd.h
;	COMDAT ?SetMinConstrant@CHostWnd@@QAEXHH@Z
_TEXT	SEGMENT
_this$ = -4						; size = 4
_nx$ = 8						; size = 4
_ny$ = 12						; size = 4
?SetMinConstrant@CHostWnd@@QAEXHH@Z PROC NEAR		; CHostWnd::SetMinConstrant, COMDAT
; _this$ = ecx

; 64   : 	void	SetMinConstrant(int nx, int ny){m_nMinCx = nx; m_nMinCy = ny;};

  00000	55		 push	 ebp
  00001	8b ec		 mov	 ebp, esp
  00003	51		 push	 ecx
  00004	c7 45 fc cc cc
	cc cc		 mov	 DWORD PTR [ebp-4], -858993460 ; ccccccccH
  0000b	89 4d fc	 mov	 DWORD PTR _this$[ebp], ecx
  0000e	8b 45 fc	 mov	 eax, DWORD PTR _this$[ebp]
  00011	8b 4d 08	 mov	 ecx, DWORD PTR _nx$[ebp]
  00014	89 88 08 01 00
	00		 mov	 DWORD PTR [eax+264], ecx
  0001a	8b 55 fc	 mov	 edx, DWORD PTR _this$[ebp]
  0001d	8b 45 0c	 mov	 eax, DWORD PTR _ny$[ebp]
  00020	89 82 0c 01 00
	00		 mov	 DWORD PTR [edx+268], eax
  00026	8b e5		 mov	 esp, ebp
  00028	5d		 pop	 ebp
  00029	c2 08 00	 ret	 8
?SetMinConstrant@CHostWnd@@QAEXHH@Z ENDP		; CHostWnd::SetMinConstrant
; Function compile flags: /Odt /RTCsu
_TEXT	ENDS
;	COMDAT ?SetMainWnd@CHostWnd@@QAEXH@Z
_TEXT	SEGMENT
_this$ = -4						; size = 4
_isMain$ = 8						; size = 4
?SetMainWnd@CHostWnd@@QAEXH@Z PROC NEAR			; CHostWnd::SetMainWnd, COMDAT
; _this$ = ecx

; 68   : 	void	SetMainWnd(BOOL isMain){m_isMainWnd = isMain;};

  00000	55		 push	 ebp
  00001	8b ec		 mov	 ebp, esp
  00003	51		 push	 ecx
  00004	c7 45 fc cc cc
	cc cc		 mov	 DWORD PTR [ebp-4], -858993460 ; ccccccccH
  0000b	89 4d fc	 mov	 DWORD PTR _this$[ebp], ecx
  0000e	8b 45 fc	 mov	 eax, DWORD PTR _this$[ebp]
  00011	8b 4d 08	 mov	 ecx, DWORD PTR _isMain$[ebp]
  00014	89 88 80 00 00
	00		 mov	 DWORD PTR [eax+128], ecx
  0001a	8b e5		 mov	 esp, ebp
  0001c	5d		 pop	 ebp
  0001d	c2 04 00	 ret	 4
?SetMainWnd@CHostWnd@@QAEXH@Z ENDP			; CHostWnd::SetMainWnd
_TEXT	ENDS
EXTRN	__imp_??1?$basic_string@DU?$char_traits@D@std@@V?$allocator@D@2@@std@@QAE@XZ:NEAR
EXTRN	__imp_??4?$basic_string@DU?$char_traits@D@std@@V?$allocator@D@2@@std@@QAEAAV01@ABV01@@Z:NEAR
;	COMDAT xdata$x
xdata$x	SEGMENT
$T192203 DD	0ffffffffH
	DD	FLAT:$L192199
$T192201 DD	019930520H
	DD	01H
	DD	FLAT:$T192203
	DD	2 DUP(00H)
	DD	2 DUP(00H)
; Function compile flags: /Odt /RTCsu
xdata$x	ENDS
;	COMDAT ?SetName@CHostWnd@@QAEXV?$basic_string@DU?$char_traits@D@std@@V?$allocator@D@2@@std@@@Z
_TEXT	SEGMENT
_this$ = -16						; size = 4
__$EHRec$ = -12						; size = 12
_name$ = 8						; size = 28
?SetName@CHostWnd@@QAEXV?$basic_string@DU?$char_traits@D@std@@V?$allocator@D@2@@std@@@Z PROC NEAR ; CHostWnd::SetName, COMDAT
; _this$ = ecx

; 69   : 	void	SetName(string name){m_strName = name;};

  00000	55		 push	 ebp
  00001	8b ec		 mov	 ebp, esp
  00003	6a ff		 push	 -1
  00005	68 00 00 00 00	 push	 __ehhandler$?SetName@CHostWnd@@QAEXV?$basic_string@DU?$char_traits@D@std@@V?$allocator@D@2@@std@@@Z
  0000a	64 a1 00 00 00
	00		 mov	 eax, DWORD PTR fs:__except_list
  00010	50		 push	 eax
  00011	64 89 25 00 00
	00 00		 mov	 DWORD PTR fs:__except_list, esp
  00018	51		 push	 ecx
  00019	56		 push	 esi
  0001a	c7 45 f0 cc cc
	cc cc		 mov	 DWORD PTR [ebp-16], -858993460 ; ccccccccH
  00021	89 4d f0	 mov	 DWORD PTR _this$[ebp], ecx
  00024	c7 45 fc 00 00
	00 00		 mov	 DWORD PTR __$EHRec$[ebp+8], 0
  0002b	8b f4		 mov	 esi, esp
  0002d	8d 45 08	 lea	 eax, DWORD PTR _name$[ebp]
  00030	50		 push	 eax
  00031	8b 4d f0	 mov	 ecx, DWORD PTR _this$[ebp]
  00034	81 c1 cc 00 00
	00		 add	 ecx, 204		; 000000ccH
  0003a	ff 15 00 00 00
	00		 call	 DWORD PTR __imp_??4?$basic_string@DU?$char_traits@D@std@@V?$allocator@D@2@@std@@QAEAAV01@ABV01@@Z
  00040	3b f4		 cmp	 esi, esp
  00042	e8 00 00 00 00	 call	 __RTC_CheckEsp
  00047	c7 45 fc ff ff
	ff ff		 mov	 DWORD PTR __$EHRec$[ebp+8], -1
  0004e	8b f4		 mov	 esi, esp
  00050	8d 4d 08	 lea	 ecx, DWORD PTR _name$[ebp]
  00053	ff 15 00 00 00
	00		 call	 DWORD PTR __imp_??1?$basic_string@DU?$char_traits@D@std@@V?$allocator@D@2@@std@@QAE@XZ
  00059	3b f4		 cmp	 esi, esp
  0005b	e8 00 00 00 00	 call	 __RTC_CheckEsp
  00060	8b 4d f4	 mov	 ecx, DWORD PTR __$EHRec$[ebp]
  00063	64 89 0d 00 00
	00 00		 mov	 DWORD PTR fs:__except_list, ecx
  0006a	5e		 pop	 esi
  0006b	83 c4 10	 add	 esp, 16			; 00000010H
  0006e	3b ec		 cmp	 ebp, esp
  00070	e8 00 00 00 00	 call	 __RTC_CheckEsp
  00075	8b e5		 mov	 esp, ebp
  00077	5d		 pop	 ebp
  00078	c2 1c 00	 ret	 28			; 0000001cH
_TEXT	ENDS
;	COMDAT text$x
text$x	SEGMENT
$L192199:
  00000	8b f4		 mov	 esi, esp
  00002	8d 4d 08	 lea	 ecx, DWORD PTR _name$[ebp]
  00005	ff 15 00 00 00
	00		 call	 DWORD PTR __imp_??1?$basic_string@DU?$char_traits@D@std@@V?$allocator@D@2@@std@@QAE@XZ
  0000b	3b f4		 cmp	 esi, esp
  0000d	e9 00 00 00 00	 jmp	 __RTC_CheckEsp
__ehhandler$?SetName@CHostWnd@@QAEXV?$basic_string@DU?$char_traits@D@std@@V?$allocator@D@2@@std@@@Z:
  00012	b8 00 00 00 00	 mov	 eax, OFFSET FLAT:$T192201
  00017	e9 00 00 00 00	 jmp	 ___CxxFrameHandler
text$x	ENDS
?SetName@CHostWnd@@QAEXV?$basic_string@DU?$char_traits@D@std@@V?$allocator@D@2@@std@@@Z ENDP ; CHostWnd::SetName
; Function compile flags: /Odt /RTCsu
;	COMDAT ?SetResizable@CHostWnd@@QAEX_N@Z
_TEXT	SEGMENT
_this$ = -4						; size = 4
_b$ = 8							; size = 1
?SetResizable@CHostWnd@@QAEX_N@Z PROC NEAR		; CHostWnd::SetResizable, COMDAT
; _this$ = ecx

; 71   : 	void	SetResizable(bool b){m_bMovable = b;};

  00000	55		 push	 ebp
  00001	8b ec		 mov	 ebp, esp
  00003	51		 push	 ecx
  00004	c7 45 fc cc cc
	cc cc		 mov	 DWORD PTR [ebp-4], -858993460 ; ccccccccH
  0000b	89 4d fc	 mov	 DWORD PTR _this$[ebp], ecx
  0000e	0f b6 45 08	 movzx	 eax, BYTE PTR _b$[ebp]
  00012	8b 4d fc	 mov	 ecx, DWORD PTR _this$[ebp]
  00015	89 41 7c	 mov	 DWORD PTR [ecx+124], eax
  00018	8b e5		 mov	 esp, ebp
  0001a	5d		 pop	 ebp
  0001b	c2 04 00	 ret	 4
?SetResizable@CHostWnd@@QAEX_N@Z ENDP			; CHostWnd::SetResizable
_TEXT	ENDS
EXTRN	__imp_??4?$CStringT@DV?$StrTraitMFC_DLL@DV?$ChTraitsCRT@D@ATL@@@@@ATL@@QAEAAV01@ABV01@@Z:NEAR
;	COMDAT xdata$x
xdata$x	SEGMENT
$T192212 DD	0ffffffffH
	DD	FLAT:$L192208
$T192210 DD	019930520H
	DD	01H
	DD	FLAT:$T192212
	DD	2 DUP(00H)
	DD	2 DUP(00H)
; Function compile flags: /Odt /RTCsu
xdata$x	ENDS
;	COMDAT ?SetContent@CHostWnd@@QAEXV?$CStringT@DV?$StrTraitMFC_DLL@DV?$ChTraitsCRT@D@ATL@@@@@ATL@@@Z
_TEXT	SEGMENT
_this$ = -16						; size = 4
__$EHRec$ = -12						; size = 12
_strContent$ = 8					; size = 4
?SetContent@CHostWnd@@QAEXV?$CStringT@DV?$StrTraitMFC_DLL@DV?$ChTraitsCRT@D@ATL@@@@@ATL@@@Z PROC NEAR ; CHostWnd::SetContent, COMDAT
; _this$ = ecx

; 74   : 	void	SetContent(CString strContent){m_strContent = strContent;};

  00000	55		 push	 ebp
  00001	8b ec		 mov	 ebp, esp
  00003	6a ff		 push	 -1
  00005	68 00 00 00 00	 push	 __ehhandler$?SetContent@CHostWnd@@QAEXV?$CStringT@DV?$StrTraitMFC_DLL@DV?$ChTraitsCRT@D@ATL@@@@@ATL@@@Z
  0000a	64 a1 00 00 00
	00		 mov	 eax, DWORD PTR fs:__except_list
  00010	50		 push	 eax
  00011	64 89 25 00 00
	00 00		 mov	 DWORD PTR fs:__except_list, esp
  00018	51		 push	 ecx
  00019	56		 push	 esi
  0001a	c7 45 f0 cc cc
	cc cc		 mov	 DWORD PTR [ebp-16], -858993460 ; ccccccccH
  00021	89 4d f0	 mov	 DWORD PTR _this$[ebp], ecx
  00024	c7 45 fc 00 00
	00 00		 mov	 DWORD PTR __$EHRec$[ebp+8], 0
  0002b	8b f4		 mov	 esi, esp
  0002d	8d 45 08	 lea	 eax, DWORD PTR _strContent$[ebp]
  00030	50		 push	 eax
  00031	8b 4d f0	 mov	 ecx, DWORD PTR _this$[ebp]
  00034	81 c1 04 01 00
	00		 add	 ecx, 260		; 00000104H
  0003a	ff 15 00 00 00
	00		 call	 DWORD PTR __imp_??4?$CStringT@DV?$StrTraitMFC_DLL@DV?$ChTraitsCRT@D@ATL@@@@@ATL@@QAEAAV01@ABV01@@Z
  00040	3b f4		 cmp	 esi, esp
  00042	e8 00 00 00 00	 call	 __RTC_CheckEsp
  00047	c7 45 fc ff ff
	ff ff		 mov	 DWORD PTR __$EHRec$[ebp+8], -1
  0004e	8b f4		 mov	 esi, esp
  00050	8d 4d 08	 lea	 ecx, DWORD PTR _strContent$[ebp]
  00053	ff 15 00 00 00
	00		 call	 DWORD PTR __imp_??1?$CStringT@DV?$StrTraitMFC_DLL@DV?$ChTraitsCRT@D@ATL@@@@@ATL@@QAE@XZ
  00059	3b f4		 cmp	 esi, esp
  0005b	e8 00 00 00 00	 call	 __RTC_CheckEsp
  00060	8b 4d f4	 mov	 ecx, DWORD PTR __$EHRec$[ebp]
  00063	64 89 0d 00 00
	00 00		 mov	 DWORD PTR fs:__except_list, ecx
  0006a	5e		 pop	 esi
  0006b	83 c4 10	 add	 esp, 16			; 00000010H
  0006e	3b ec		 cmp	 ebp, esp
  00070	e8 00 00 00 00	 call	 __RTC_CheckEsp
  00075	8b e5		 mov	 esp, ebp
  00077	5d		 pop	 ebp
  00078	c2 04 00	 ret	 4
_TEXT	ENDS
;	COMDAT text$x
text$x	SEGMENT
$L192208:
  00000	8b f4		 mov	 esi, esp
  00002	8d 4d 08	 lea	 ecx, DWORD PTR _strContent$[ebp]
  00005	ff 15 00 00 00
	00		 call	 DWORD PTR __imp_??1?$CStringT@DV?$StrTraitMFC_DLL@DV?$ChTraitsCRT@D@ATL@@@@@ATL@@QAE@XZ
  0000b	3b f4		 cmp	 esi, esp
  0000d	e9 00 00 00 00	 jmp	 __RTC_CheckEsp
__ehhandler$?SetContent@CHostWnd@@QAEXV?$CStringT@DV?$StrTraitMFC_DLL@DV?$ChTraitsCRT@D@ATL@@@@@ATL@@@Z:
  00012	b8 00 00 00 00	 mov	 eax, OFFSET FLAT:$T192210
  00017	e9 00 00 00 00	 jmp	 ___CxxFrameHandler
text$x	ENDS
?SetContent@CHostWnd@@QAEXV?$CStringT@DV?$StrTraitMFC_DLL@DV?$ChTraitsCRT@D@ATL@@@@@ATL@@@Z ENDP ; CHostWnd::SetContent
; Function compile flags: /Odt /RTCsu
;	COMDAT ??1SepWindowData@@QAE@XZ
_TEXT	SEGMENT
_this$ = -4						; size = 4
??1SepWindowData@@QAE@XZ PROC NEAR			; SepWindowData::~SepWindowData, COMDAT
; _this$ = ecx
  00000	55		 push	 ebp
  00001	8b ec		 mov	 ebp, esp
  00003	51		 push	 ecx
  00004	56		 push	 esi
  00005	c7 45 fc cc cc
	cc cc		 mov	 DWORD PTR [ebp-4], -858993460 ; ccccccccH
  0000c	89 4d fc	 mov	 DWORD PTR _this$[ebp], ecx
  0000f	8b 4d fc	 mov	 ecx, DWORD PTR _this$[ebp]
  00012	83 c1 20	 add	 ecx, 32			; 00000020H
  00015	8b f4		 mov	 esi, esp
  00017	ff 15 00 00 00
	00		 call	 DWORD PTR __imp_??1?$CStringT@DV?$StrTraitMFC_DLL@DV?$ChTraitsCRT@D@ATL@@@@@ATL@@QAE@XZ
  0001d	3b f4		 cmp	 esi, esp
  0001f	e8 00 00 00 00	 call	 __RTC_CheckEsp
  00024	8b 4d fc	 mov	 ecx, DWORD PTR _this$[ebp]
  00027	83 c1 1c	 add	 ecx, 28			; 0000001cH
  0002a	8b f4		 mov	 esi, esp
  0002c	ff 15 00 00 00
	00		 call	 DWORD PTR __imp_??1?$CStringT@DV?$StrTraitMFC_DLL@DV?$ChTraitsCRT@D@ATL@@@@@ATL@@QAE@XZ
  00032	3b f4		 cmp	 esi, esp
  00034	e8 00 00 00 00	 call	 __RTC_CheckEsp
  00039	5e		 pop	 esi
  0003a	83 c4 04	 add	 esp, 4
  0003d	3b ec		 cmp	 ebp, esp
  0003f	e8 00 00 00 00	 call	 __RTC_CheckEsp
  00044	8b e5		 mov	 esp, ebp
  00046	5d		 pop	 ebp
  00047	c3		 ret	 0
??1SepWindowData@@QAE@XZ ENDP				; SepWindowData::~SepWindowData
_TEXT	ENDS
PUBLIC	?GetHostWnds@CHostWndMgr@@QAEPAV?$vector@PAVCHostWnd@@V?$allocator@PAVCHostWnd@@@std@@@std@@XZ ; CHostWndMgr::GetHostWnds
; Function compile flags: /Odt /RTCsu
; File d:\boxgit\playbox\playbox\dev\prj\playbox\src\layoutmgr\seperatemode\hostwndmgr.cpp
_TEXT	SEGMENT
_this$ = -4						; size = 4
?GetHostWnds@CHostWndMgr@@QAEPAV?$vector@PAVCHostWnd@@V?$allocator@PAVCHostWnd@@@std@@@std@@XZ PROC NEAR ; CHostWndMgr::GetHostWnds
; _this$ = ecx

; 106  : {

  00600	55		 push	 ebp
  00601	8b ec		 mov	 ebp, esp
  00603	51		 push	 ecx
  00604	c7 45 fc cc cc
	cc cc		 mov	 DWORD PTR [ebp-4], -858993460 ; ccccccccH
  0060b	89 4d fc	 mov	 DWORD PTR _this$[ebp], ecx

; 107  : 	return &m_vecHostWnds;

  0060e	8b 45 fc	 mov	 eax, DWORD PTR _this$[ebp]
  00611	83 c0 0c	 add	 eax, 12			; 0000000cH

; 108  : 	/*for(int i = 0 ; i<m_vecHostWnds.size(); i++)
; 109  : 	{
; 110  : 		vecNames.push_back(m_vecHostWnds[i]->GetName());
; 111  : 	}
; 112  : 	*/
; 113  : }

  00614	8b e5		 mov	 esp, ebp
  00616	5d		 pop	 ebp
  00617	c3		 ret	 0
?GetHostWnds@CHostWndMgr@@QAEPAV?$vector@PAVCHostWnd@@V?$allocator@PAVCHostWnd@@@std@@@std@@XZ ENDP ; CHostWndMgr::GetHostWnds
_TEXT	ENDS
PUBLIC	?DetachAllMovingWnd@CHostWndMgr@@QAEXXZ		; CHostWndMgr::DetachAllMovingWnd
PUBLIC	??9const_iterator@?$_Tree@V?$_Tmap_traits@PAUHWND__@@UCWndData@@U?$less@PAUHWND__@@@std@@V?$allocator@U?$pair@QAUHWND__@@UCWndData@@@std@@@4@$0A@@std@@@std@@QBE_NABV012@@Z ; std::_Tree<std::_Tmap_traits<HWND__ *,CWndData,std::less<HWND__ *>,std::allocator<std::pair<HWND__ * const,CWndData> >,0> >::const_iterator::operator!=
PUBLIC	??Citerator@?$_Tree@V?$_Tmap_traits@PAUHWND__@@UCWndData@@U?$less@PAUHWND__@@@std@@V?$allocator@U?$pair@QAUHWND__@@UCWndData@@@std@@@4@$0A@@std@@@std@@QBEPAU?$pair@QAUHWND__@@UCWndData@@@2@XZ ; std::_Tree<std::_Tmap_traits<HWND__ *,CWndData,std::less<HWND__ *>,std::allocator<std::pair<HWND__ * const,CWndData> >,0> >::iterator::operator->
PUBLIC	??Eiterator@?$_Tree@V?$_Tmap_traits@PAUHWND__@@UCWndData@@U?$less@PAUHWND__@@@std@@V?$allocator@U?$pair@QAUHWND__@@UCWndData@@@std@@@4@$0A@@std@@@std@@QAE?AV012@H@Z ; std::_Tree<std::_Tmap_traits<HWND__ *,CWndData,std::less<HWND__ *>,std::allocator<std::pair<HWND__ * const,CWndData> >,0> >::iterator::operator++
PUBLIC	?begin@?$_Tree@V?$_Tmap_traits@PAUHWND__@@UCWndData@@U?$less@PAUHWND__@@@std@@V?$allocator@U?$pair@QAUHWND__@@UCWndData@@@std@@@4@$0A@@std@@@std@@QAE?AViterator@12@XZ ; std::_Tree<std::_Tmap_traits<HWND__ *,CWndData,std::less<HWND__ *>,std::allocator<std::pair<HWND__ * const,CWndData> >,0> >::begin
PUBLIC	?end@?$_Tree@V?$_Tmap_traits@PAUHWND__@@UCWndData@@U?$less@PAUHWND__@@@std@@V?$allocator@U?$pair@QAUHWND__@@UCWndData@@@std@@@4@$0A@@std@@@std@@QAE?AViterator@12@XZ ; std::_Tree<std::_Tmap_traits<HWND__ *,CWndData,std::less<HWND__ *>,std::allocator<std::pair<HWND__ * const,CWndData> >,0> >::end
PUBLIC	?size@?$vector@PAVCHostWnd@@V?$allocator@PAVCHostWnd@@@std@@@std@@QBEIXZ ; std::vector<CHostWnd *,std::allocator<CHostWnd *> >::size
PUBLIC	??A?$vector@PAVCHostWnd@@V?$allocator@PAVCHostWnd@@@std@@@std@@QAEAAPAVCHostWnd@@I@Z ; std::vector<CHostWnd *,std::allocator<CHostWnd *> >::operator[]
PUBLIC	?clear@?$vector@PAVCHostWnd@@V?$allocator@PAVCHostWnd@@@std@@@std@@QAEXXZ ; std::vector<CHostWnd *,std::allocator<CHostWnd *> >::clear
EXTRN	__imp_?YL_Log@@YAXABV?$basic_string@DU?$char_traits@D@std@@V?$allocator@D@2@@std@@H0PBDZZ:NEAR
EXTRN	?GetInstance@CWindowsMover@@SAPAV1@XZ:NEAR	; CWindowsMover::GetInstance
EXTRN	?Clear@CWindowsMover@@QAEXXZ:NEAR		; CWindowsMover::Clear
EXTRN	?SetParent@CWnd@@QAEPAV1@PAV1@@Z:NEAR		; CWnd::SetParent
EXTRN	?DetachWindow@CHostWnd@@QAEXXZ:NEAR		; CHostWnd::DetachWindow
xdata$x	SEGMENT
$T192251 DD	0ffffffffH
	DD	FLAT:$L192234
	DD	00H
	DD	FLAT:$L192235
	DD	0ffffffffH
	DD	FLAT:$L192236
	DD	02H
	DD	FLAT:$L192237
	DD	0ffffffffH
	DD	FLAT:$L192238
	DD	04H
	DD	FLAT:$L192239
	DD	0ffffffffH
	DD	FLAT:$L192240
	DD	06H
	DD	FLAT:$L192241
	DD	0ffffffffH
	DD	FLAT:$L192242
	DD	08H
	DD	FLAT:$L192243
$T192245 DD	019930520H
	DD	0aH
	DD	FLAT:$T192251
	DD	2 DUP(00H)
	DD	2 DUP(00H)
; Function compile flags: /Odt /RTCsu
xdata$x	ENDS
_TEXT	SEGMENT
tv192 = -360						; size = 4
$T192233 = -356						; size = 28
$T192232 = -328						; size = 28
$T192231 = -300						; size = 28
$T192230 = -272						; size = 28
$T192227 = -244						; size = 4
$T192226 = -240						; size = 4
$T192225 = -236						; size = 28
$T192224 = -208						; size = 28
$T192223 = -180						; size = 4
$T192222 = -176						; size = 4
$T192221 = -172						; size = 28
$T192220 = -144						; size = 28
$T192219 = -116						; size = 28
$T192218 = -88						; size = 28
_pHost$189614 = -60					; size = 4
_i$189610 = -56						; size = 4
_d$189585 = -48						; size = 8
_it$ = -32						; size = 4
_pHost$189490 = -24					; size = 4
_i$189486 = -20						; size = 4
_this$ = -16						; size = 4
__$EHRec$ = -12						; size = 12
?DetachAllMovingWnd@CHostWndMgr@@QAEXXZ PROC NEAR	; CHostWndMgr::DetachAllMovingWnd
; _this$ = ecx

; 116  : {

  00620	55		 push	 ebp
  00621	8b ec		 mov	 ebp, esp
  00623	6a ff		 push	 -1
  00625	68 00 00 00 00	 push	 __ehhandler$?DetachAllMovingWnd@CHostWndMgr@@QAEXXZ
  0062a	64 a1 00 00 00
	00		 mov	 eax, DWORD PTR fs:__except_list
  00630	50		 push	 eax
  00631	64 89 25 00 00
	00 00		 mov	 DWORD PTR fs:__except_list, esp
  00638	81 ec 5c 01 00
	00		 sub	 esp, 348		; 0000015cH
  0063e	56		 push	 esi
  0063f	57		 push	 edi
  00640	51		 push	 ecx
  00641	8d bd 98 fe ff
	ff		 lea	 edi, DWORD PTR [ebp-360]
  00647	b9 57 00 00 00	 mov	 ecx, 87			; 00000057H
  0064c	b8 cc cc cc cc	 mov	 eax, -858993460		; ccccccccH
  00651	f3 ab		 rep stosd
  00653	59		 pop	 ecx
  00654	89 4d f0	 mov	 DWORD PTR _this$[ebp], ecx

; 117  : 	if(m_vecHostWnds.size() == 0)

  00657	8b 4d f0	 mov	 ecx, DWORD PTR _this$[ebp]
  0065a	83 c1 0c	 add	 ecx, 12			; 0000000cH
  0065d	e8 00 00 00 00	 call	 ?size@?$vector@PAVCHostWnd@@V?$allocator@PAVCHostWnd@@@std@@@std@@QBEIXZ ; std::vector<CHostWnd *,std::allocator<CHostWnd *> >::size
  00662	85 c0		 test	 eax, eax
  00664	75 05		 jne	 SHORT $L189480

; 118  : 		return ;

  00666	e9 55 04 00 00	 jmp	 $L189479
$L189480:

; 119  : 
; 120  : 	YL_Log(STR_LOG_FILE,LOG_DEBUG,"CUIManager","3");	

  0066b	8b f4		 mov	 esi, esp
  0066d	68 00 00 00 00	 push	 OFFSET FLAT:$SG189484
  00672	8d 4d a8	 lea	 ecx, DWORD PTR $T192218[ebp]
  00675	ff 15 00 00 00
	00		 call	 DWORD PTR __imp_??0?$basic_string@DU?$char_traits@D@std@@V?$allocator@D@2@@std@@QAE@PBD@Z
  0067b	3b f4		 cmp	 esi, esp
  0067d	e8 00 00 00 00	 call	 __RTC_CheckEsp
  00682	c7 45 fc 00 00
	00 00		 mov	 DWORD PTR __$EHRec$[ebp+8], 0
  00689	8b f4		 mov	 esi, esp
  0068b	68 00 00 00 00	 push	 OFFSET FLAT:$SG189485
  00690	8d 4d 8c	 lea	 ecx, DWORD PTR $T192219[ebp]
  00693	ff 15 00 00 00
	00		 call	 DWORD PTR __imp_??0?$basic_string@DU?$char_traits@D@std@@V?$allocator@D@2@@std@@QAE@PBD@Z
  00699	3b f4		 cmp	 esi, esp
  0069b	e8 00 00 00 00	 call	 __RTC_CheckEsp
  006a0	c6 45 fc 01	 mov	 BYTE PTR __$EHRec$[ebp+8], 1
  006a4	8b f4		 mov	 esi, esp
  006a6	68 00 00 00 00	 push	 OFFSET FLAT:$SG189483
  006ab	8d 45 a8	 lea	 eax, DWORD PTR $T192218[ebp]
  006ae	50		 push	 eax
  006af	6a 00		 push	 0
  006b1	8d 4d 8c	 lea	 ecx, DWORD PTR $T192219[ebp]
  006b4	51		 push	 ecx
  006b5	ff 15 00 00 00
	00		 call	 DWORD PTR __imp_?YL_Log@@YAXABV?$basic_string@DU?$char_traits@D@std@@V?$allocator@D@2@@std@@H0PBDZZ
  006bb	83 c4 10	 add	 esp, 16			; 00000010H
  006be	3b f4		 cmp	 esi, esp
  006c0	e8 00 00 00 00	 call	 __RTC_CheckEsp
  006c5	c6 45 fc 00	 mov	 BYTE PTR __$EHRec$[ebp+8], 0
  006c9	8b f4		 mov	 esi, esp
  006cb	8d 4d 8c	 lea	 ecx, DWORD PTR $T192219[ebp]
  006ce	ff 15 00 00 00
	00		 call	 DWORD PTR __imp_??1?$basic_string@DU?$char_traits@D@std@@V?$allocator@D@2@@std@@QAE@XZ
  006d4	3b f4		 cmp	 esi, esp
  006d6	e8 00 00 00 00	 call	 __RTC_CheckEsp
  006db	c7 45 fc ff ff
	ff ff		 mov	 DWORD PTR __$EHRec$[ebp+8], -1
  006e2	8b f4		 mov	 esi, esp
  006e4	8d 4d a8	 lea	 ecx, DWORD PTR $T192218[ebp]
  006e7	ff 15 00 00 00
	00		 call	 DWORD PTR __imp_??1?$basic_string@DU?$char_traits@D@std@@V?$allocator@D@2@@std@@QAE@XZ
  006ed	3b f4		 cmp	 esi, esp
  006ef	e8 00 00 00 00	 call	 __RTC_CheckEsp

; 121  : 	for(int i = 0 ; i<m_vecHostWnds.size(); i++)

  006f4	c7 45 ec 00 00
	00 00		 mov	 DWORD PTR _i$189486[ebp], 0
  006fb	eb 09		 jmp	 SHORT $L189487
$L189488:
  006fd	8b 55 ec	 mov	 edx, DWORD PTR _i$189486[ebp]
  00700	83 c2 01	 add	 edx, 1
  00703	89 55 ec	 mov	 DWORD PTR _i$189486[ebp], edx
$L189487:
  00706	8b 4d f0	 mov	 ecx, DWORD PTR _this$[ebp]
  00709	83 c1 0c	 add	 ecx, 12			; 0000000cH
  0070c	e8 00 00 00 00	 call	 ?size@?$vector@PAVCHostWnd@@V?$allocator@PAVCHostWnd@@@std@@@std@@QBEIXZ ; std::vector<CHostWnd *,std::allocator<CHostWnd *> >::size
  00711	39 45 ec	 cmp	 DWORD PTR _i$189486[ebp], eax
  00714	73 1e		 jae	 SHORT $L189489

; 122  : 	{
; 123  : 		CHostWnd* pHost = (CHostWnd*)m_vecHostWnds[i];

  00716	8b 45 ec	 mov	 eax, DWORD PTR _i$189486[ebp]
  00719	50		 push	 eax
  0071a	8b 4d f0	 mov	 ecx, DWORD PTR _this$[ebp]
  0071d	83 c1 0c	 add	 ecx, 12			; 0000000cH
  00720	e8 00 00 00 00	 call	 ??A?$vector@PAVCHostWnd@@V?$allocator@PAVCHostWnd@@@std@@@std@@QAEAAPAVCHostWnd@@I@Z ; std::vector<CHostWnd *,std::allocator<CHostWnd *> >::operator[]
  00725	8b 08		 mov	 ecx, DWORD PTR [eax]
  00727	89 4d e8	 mov	 DWORD PTR _pHost$189490[ebp], ecx

; 124  : 		pHost->DetachWindow();

  0072a	8b 4d e8	 mov	 ecx, DWORD PTR _pHost$189490[ebp]
  0072d	e8 00 00 00 00	 call	 ?DetachWindow@CHostWnd@@QAEXXZ ; CHostWnd::DetachWindow

; 125  : 	}

  00732	eb c9		 jmp	 SHORT $L189488
$L189489:

; 126  : 
; 127  : 	YL_Log(STR_LOG_FILE,LOG_DEBUG,"CUIManager","31");	

  00734	8b f4		 mov	 esi, esp
  00736	68 00 00 00 00	 push	 OFFSET FLAT:$SG189495
  0073b	8d 8d 70 ff ff
	ff		 lea	 ecx, DWORD PTR $T192220[ebp]
  00741	ff 15 00 00 00
	00		 call	 DWORD PTR __imp_??0?$basic_string@DU?$char_traits@D@std@@V?$allocator@D@2@@std@@QAE@PBD@Z
  00747	3b f4		 cmp	 esi, esp
  00749	e8 00 00 00 00	 call	 __RTC_CheckEsp
  0074e	c7 45 fc 02 00
	00 00		 mov	 DWORD PTR __$EHRec$[ebp+8], 2
  00755	8b f4		 mov	 esi, esp
  00757	68 00 00 00 00	 push	 OFFSET FLAT:$SG189496
  0075c	8d 8d 54 ff ff
	ff		 lea	 ecx, DWORD PTR $T192221[ebp]
  00762	ff 15 00 00 00
	00		 call	 DWORD PTR __imp_??0?$basic_string@DU?$char_traits@D@std@@V?$allocator@D@2@@std@@QAE@PBD@Z
  00768	3b f4		 cmp	 esi, esp
  0076a	e8 00 00 00 00	 call	 __RTC_CheckEsp
  0076f	c6 45 fc 03	 mov	 BYTE PTR __$EHRec$[ebp+8], 3
  00773	8b f4		 mov	 esi, esp
  00775	68 00 00 00 00	 push	 OFFSET FLAT:$SG189494
  0077a	8d 95 70 ff ff
	ff		 lea	 edx, DWORD PTR $T192220[ebp]
  00780	52		 push	 edx
  00781	6a 00		 push	 0
  00783	8d 85 54 ff ff
	ff		 lea	 eax, DWORD PTR $T192221[ebp]
  00789	50		 push	 eax
  0078a	ff 15 00 00 00
	00		 call	 DWORD PTR __imp_?YL_Log@@YAXABV?$basic_string@DU?$char_traits@D@std@@V?$allocator@D@2@@std@@H0PBDZZ
  00790	83 c4 10	 add	 esp, 16			; 00000010H
  00793	3b f4		 cmp	 esi, esp
  00795	e8 00 00 00 00	 call	 __RTC_CheckEsp
  0079a	c6 45 fc 02	 mov	 BYTE PTR __$EHRec$[ebp+8], 2
  0079e	8b f4		 mov	 esi, esp
  007a0	8d 8d 54 ff ff
	ff		 lea	 ecx, DWORD PTR $T192221[ebp]
  007a6	ff 15 00 00 00
	00		 call	 DWORD PTR __imp_??1?$basic_string@DU?$char_traits@D@std@@V?$allocator@D@2@@std@@QAE@XZ
  007ac	3b f4		 cmp	 esi, esp
  007ae	e8 00 00 00 00	 call	 __RTC_CheckEsp
  007b3	c7 45 fc ff ff
	ff ff		 mov	 DWORD PTR __$EHRec$[ebp+8], -1
  007ba	8b f4		 mov	 esi, esp
  007bc	8d 8d 70 ff ff
	ff		 lea	 ecx, DWORD PTR $T192220[ebp]
  007c2	ff 15 00 00 00
	00		 call	 DWORD PTR __imp_??1?$basic_string@DU?$char_traits@D@std@@V?$allocator@D@2@@std@@QAE@XZ
  007c8	3b f4		 cmp	 esi, esp
  007ca	e8 00 00 00 00	 call	 __RTC_CheckEsp

; 128  : 	map<HWND, CWndData>::iterator it = m_mapContentWnd.begin();

  007cf	8d 4d e0	 lea	 ecx, DWORD PTR _it$[ebp]
  007d2	51		 push	 ecx
  007d3	8b 4d f0	 mov	 ecx, DWORD PTR _this$[ebp]
  007d6	e8 00 00 00 00	 call	 ?begin@?$_Tree@V?$_Tmap_traits@PAUHWND__@@UCWndData@@U?$less@PAUHWND__@@@std@@V?$allocator@U?$pair@QAUHWND__@@UCWndData@@@std@@@4@$0A@@std@@@std@@QAE?AViterator@12@XZ ; std::_Tree<std::_Tmap_traits<HWND__ *,CWndData,std::less<HWND__ *>,std::allocator<std::pair<HWND__ * const,CWndData> >,0> >::begin
$L189582:

; 129  : 	while(it != m_mapContentWnd.end())

  007db	8d 95 50 ff ff
	ff		 lea	 edx, DWORD PTR $T192222[ebp]
  007e1	52		 push	 edx
  007e2	8b 4d f0	 mov	 ecx, DWORD PTR _this$[ebp]
  007e5	e8 00 00 00 00	 call	 ?end@?$_Tree@V?$_Tmap_traits@PAUHWND__@@UCWndData@@U?$less@PAUHWND__@@@std@@V?$allocator@U?$pair@QAUHWND__@@UCWndData@@@std@@@4@$0A@@std@@@std@@QAE?AViterator@12@XZ ; std::_Tree<std::_Tmap_traits<HWND__ *,CWndData,std::less<HWND__ *>,std::allocator<std::pair<HWND__ * const,CWndData> >,0> >::end
  007ea	50		 push	 eax
  007eb	8d 4d e0	 lea	 ecx, DWORD PTR _it$[ebp]
  007ee	e8 00 00 00 00	 call	 ??9const_iterator@?$_Tree@V?$_Tmap_traits@PAUHWND__@@UCWndData@@U?$less@PAUHWND__@@@std@@V?$allocator@U?$pair@QAUHWND__@@UCWndData@@@std@@@4@$0A@@std@@@std@@QBE_NABV012@@Z ; std::_Tree<std::_Tmap_traits<HWND__ *,CWndData,std::less<HWND__ *>,std::allocator<std::pair<HWND__ * const,CWndData> >,0> >::const_iterator::operator!=
  007f3	0f b6 c0	 movzx	 eax, al
  007f6	85 c0		 test	 eax, eax
  007f8	74 43		 je	 SHORT $L189583

; 130  : 	{
; 131  : 		CWndData d = it->second;

  007fa	8d 4d e0	 lea	 ecx, DWORD PTR _it$[ebp]
  007fd	e8 00 00 00 00	 call	 ??Citerator@?$_Tree@V?$_Tmap_traits@PAUHWND__@@UCWndData@@U?$less@PAUHWND__@@@std@@V?$allocator@U?$pair@QAUHWND__@@UCWndData@@@std@@@4@$0A@@std@@@std@@QBEPAU?$pair@QAUHWND__@@UCWndData@@@2@XZ ; std::_Tree<std::_Tmap_traits<HWND__ *,CWndData,std::less<HWND__ *>,std::allocator<std::pair<HWND__ * const,CWndData> >,0> >::iterator::operator->
  00802	8b 48 04	 mov	 ecx, DWORD PTR [eax+4]
  00805	8b 50 08	 mov	 edx, DWORD PTR [eax+8]
  00808	89 4d d0	 mov	 DWORD PTR _d$189585[ebp], ecx
  0080b	89 55 d4	 mov	 DWORD PTR _d$189585[ebp+4], edx

; 132  : 		it->second.pWnd->SetParent(it->second.pParentWnd);

  0080e	8d 4d e0	 lea	 ecx, DWORD PTR _it$[ebp]
  00811	e8 00 00 00 00	 call	 ??Citerator@?$_Tree@V?$_Tmap_traits@PAUHWND__@@UCWndData@@U?$less@PAUHWND__@@@std@@V?$allocator@U?$pair@QAUHWND__@@UCWndData@@@std@@@4@$0A@@std@@@std@@QBEPAU?$pair@QAUHWND__@@UCWndData@@@2@XZ ; std::_Tree<std::_Tmap_traits<HWND__ *,CWndData,std::less<HWND__ *>,std::allocator<std::pair<HWND__ * const,CWndData> >,0> >::iterator::operator->
  00816	8b 40 08	 mov	 eax, DWORD PTR [eax+8]
  00819	50		 push	 eax
  0081a	8d 4d e0	 lea	 ecx, DWORD PTR _it$[ebp]
  0081d	e8 00 00 00 00	 call	 ??Citerator@?$_Tree@V?$_Tmap_traits@PAUHWND__@@UCWndData@@U?$less@PAUHWND__@@@std@@V?$allocator@U?$pair@QAUHWND__@@UCWndData@@@std@@@4@$0A@@std@@@std@@QBEPAU?$pair@QAUHWND__@@UCWndData@@@2@XZ ; std::_Tree<std::_Tmap_traits<HWND__ *,CWndData,std::less<HWND__ *>,std::allocator<std::pair<HWND__ * const,CWndData> >,0> >::iterator::operator->
  00822	8b 48 04	 mov	 ecx, DWORD PTR [eax+4]
  00825	e8 00 00 00 00	 call	 ?SetParent@CWnd@@QAEPAV1@PAV1@@Z ; CWnd::SetParent

; 133  : 		//it->second.pWnd->SetParent(::AfxGetMainWindow());
; 134  : 		it++;

  0082a	6a 00		 push	 0
  0082c	8d 8d 4c ff ff
	ff		 lea	 ecx, DWORD PTR $T192223[ebp]
  00832	51		 push	 ecx
  00833	8d 4d e0	 lea	 ecx, DWORD PTR _it$[ebp]
  00836	e8 00 00 00 00	 call	 ??Eiterator@?$_Tree@V?$_Tmap_traits@PAUHWND__@@UCWndData@@U?$less@PAUHWND__@@@std@@V?$allocator@U?$pair@QAUHWND__@@UCWndData@@@std@@@4@$0A@@std@@@std@@QAE?AV012@H@Z ; std::_Tree<std::_Tmap_traits<HWND__ *,CWndData,std::less<HWND__ *>,std::allocator<std::pair<HWND__ * const,CWndData> >,0> >::iterator::operator++

; 135  : 	}

  0083b	eb 9e		 jmp	 SHORT $L189582
$L189583:

; 136  : 
; 137  : 	YL_Log(STR_LOG_FILE,LOG_DEBUG,"CUIManager","32");	

  0083d	8b f4		 mov	 esi, esp
  0083f	68 00 00 00 00	 push	 OFFSET FLAT:$SG189608
  00844	8d 8d 30 ff ff
	ff		 lea	 ecx, DWORD PTR $T192224[ebp]
  0084a	ff 15 00 00 00
	00		 call	 DWORD PTR __imp_??0?$basic_string@DU?$char_traits@D@std@@V?$allocator@D@2@@std@@QAE@PBD@Z
  00850	3b f4		 cmp	 esi, esp
  00852	e8 00 00 00 00	 call	 __RTC_CheckEsp
  00857	c7 45 fc 04 00
	00 00		 mov	 DWORD PTR __$EHRec$[ebp+8], 4
  0085e	8b f4		 mov	 esi, esp
  00860	68 00 00 00 00	 push	 OFFSET FLAT:$SG189609
  00865	8d 8d 14 ff ff
	ff		 lea	 ecx, DWORD PTR $T192225[ebp]
  0086b	ff 15 00 00 00
	00		 call	 DWORD PTR __imp_??0?$basic_string@DU?$char_traits@D@std@@V?$allocator@D@2@@std@@QAE@PBD@Z
  00871	3b f4		 cmp	 esi, esp
  00873	e8 00 00 00 00	 call	 __RTC_CheckEsp
  00878	c6 45 fc 05	 mov	 BYTE PTR __$EHRec$[ebp+8], 5
  0087c	8b f4		 mov	 esi, esp
  0087e	68 00 00 00 00	 push	 OFFSET FLAT:$SG189607
  00883	8d 95 30 ff ff
	ff		 lea	 edx, DWORD PTR $T192224[ebp]
  00889	52		 push	 edx
  0088a	6a 00		 push	 0
  0088c	8d 85 14 ff ff
	ff		 lea	 eax, DWORD PTR $T192225[ebp]
  00892	50		 push	 eax
  00893	ff 15 00 00 00
	00		 call	 DWORD PTR __imp_?YL_Log@@YAXABV?$basic_string@DU?$char_traits@D@std@@V?$allocator@D@2@@std@@H0PBDZZ
  00899	83 c4 10	 add	 esp, 16			; 00000010H
  0089c	3b f4		 cmp	 esi, esp
  0089e	e8 00 00 00 00	 call	 __RTC_CheckEsp
  008a3	c6 45 fc 04	 mov	 BYTE PTR __$EHRec$[ebp+8], 4
  008a7	8b f4		 mov	 esi, esp
  008a9	8d 8d 14 ff ff
	ff		 lea	 ecx, DWORD PTR $T192225[ebp]
  008af	ff 15 00 00 00
	00		 call	 DWORD PTR __imp_??1?$basic_string@DU?$char_traits@D@std@@V?$allocator@D@2@@std@@QAE@XZ
  008b5	3b f4		 cmp	 esi, esp
  008b7	e8 00 00 00 00	 call	 __RTC_CheckEsp
  008bc	c7 45 fc ff ff
	ff ff		 mov	 DWORD PTR __$EHRec$[ebp+8], -1
  008c3	8b f4		 mov	 esi, esp
  008c5	8d 8d 30 ff ff
	ff		 lea	 ecx, DWORD PTR $T192224[ebp]
  008cb	ff 15 00 00 00
	00		 call	 DWORD PTR __imp_??1?$basic_string@DU?$char_traits@D@std@@V?$allocator@D@2@@std@@QAE@XZ
  008d1	3b f4		 cmp	 esi, esp
  008d3	e8 00 00 00 00	 call	 __RTC_CheckEsp

; 138  : 	for(int i = 0 ; i<m_vecHostWnds.size(); i++)

  008d8	c7 45 c8 00 00
	00 00		 mov	 DWORD PTR _i$189610[ebp], 0
  008df	eb 09		 jmp	 SHORT $L189611
$L189612:
  008e1	8b 4d c8	 mov	 ecx, DWORD PTR _i$189610[ebp]
  008e4	83 c1 01	 add	 ecx, 1
  008e7	89 4d c8	 mov	 DWORD PTR _i$189610[ebp], ecx
$L189611:
  008ea	8b 4d f0	 mov	 ecx, DWORD PTR _this$[ebp]
  008ed	83 c1 0c	 add	 ecx, 12			; 0000000cH
  008f0	e8 00 00 00 00	 call	 ?size@?$vector@PAVCHostWnd@@V?$allocator@PAVCHostWnd@@@std@@@std@@QBEIXZ ; std::vector<CHostWnd *,std::allocator<CHostWnd *> >::size
  008f5	39 45 c8	 cmp	 DWORD PTR _i$189610[ebp], eax
  008f8	73 79		 jae	 SHORT $L189613

; 139  : 	{
; 140  : 		CHostWnd* pHost = (CHostWnd*)m_vecHostWnds[i];

  008fa	8b 55 c8	 mov	 edx, DWORD PTR _i$189610[ebp]
  008fd	52		 push	 edx
  008fe	8b 4d f0	 mov	 ecx, DWORD PTR _this$[ebp]
  00901	83 c1 0c	 add	 ecx, 12			; 0000000cH
  00904	e8 00 00 00 00	 call	 ??A?$vector@PAVCHostWnd@@V?$allocator@PAVCHostWnd@@@std@@@std@@QAEAAPAVCHostWnd@@I@Z ; std::vector<CHostWnd *,std::allocator<CHostWnd *> >::operator[]
  00909	8b 00		 mov	 eax, DWORD PTR [eax]
  0090b	89 45 c4	 mov	 DWORD PTR _pHost$189614[ebp], eax

; 141  : 		pHost->DestroyWindow();

  0090e	8b 4d c4	 mov	 ecx, DWORD PTR _pHost$189614[ebp]
  00911	8b 11		 mov	 edx, DWORD PTR [ecx]
  00913	8b f4		 mov	 esi, esp
  00915	8b 4d c4	 mov	 ecx, DWORD PTR _pHost$189614[ebp]
  00918	ff 52 68	 call	 DWORD PTR [edx+104]
  0091b	3b f4		 cmp	 esi, esp
  0091d	e8 00 00 00 00	 call	 __RTC_CheckEsp

; 142  : 		delete pHost;

  00922	8b 45 c4	 mov	 eax, DWORD PTR _pHost$189614[ebp]
  00925	89 85 0c ff ff
	ff		 mov	 DWORD PTR $T192227[ebp], eax
  0092b	8b 8d 0c ff ff
	ff		 mov	 ecx, DWORD PTR $T192227[ebp]
  00931	89 8d 10 ff ff
	ff		 mov	 DWORD PTR $T192226[ebp], ecx
  00937	83 bd 10 ff ff
	ff 00		 cmp	 DWORD PTR $T192226[ebp], 0
  0093e	74 24		 je	 SHORT $L192228
  00940	8b f4		 mov	 esi, esp
  00942	6a 01		 push	 1
  00944	8b 95 10 ff ff
	ff		 mov	 edx, DWORD PTR $T192226[ebp]
  0094a	8b 02		 mov	 eax, DWORD PTR [edx]
  0094c	8b 8d 10 ff ff
	ff		 mov	 ecx, DWORD PTR $T192226[ebp]
  00952	ff 50 04	 call	 DWORD PTR [eax+4]
  00955	3b f4		 cmp	 esi, esp
  00957	e8 00 00 00 00	 call	 __RTC_CheckEsp
  0095c	89 85 98 fe ff
	ff		 mov	 DWORD PTR tv192[ebp], eax
  00962	eb 0a		 jmp	 SHORT $L192229
$L192228:
  00964	c7 85 98 fe ff
	ff 00 00 00 00	 mov	 DWORD PTR tv192[ebp], 0
$L192229:

; 143  : 	}

  0096e	e9 6e ff ff ff	 jmp	 $L189612
$L189613:

; 144  : 	m_vecHostWnds.clear();

  00973	8b 4d f0	 mov	 ecx, DWORD PTR _this$[ebp]
  00976	83 c1 0c	 add	 ecx, 12			; 0000000cH
  00979	e8 00 00 00 00	 call	 ?clear@?$vector@PAVCHostWnd@@V?$allocator@PAVCHostWnd@@@std@@@std@@QAEXXZ ; std::vector<CHostWnd *,std::allocator<CHostWnd *> >::clear

; 145  : 	YL_Log(STR_LOG_FILE,LOG_DEBUG,"CUIManager","33");	

  0097e	8b f4		 mov	 esi, esp
  00980	68 00 00 00 00	 push	 OFFSET FLAT:$SG189621
  00985	8d 8d f0 fe ff
	ff		 lea	 ecx, DWORD PTR $T192230[ebp]
  0098b	ff 15 00 00 00
	00		 call	 DWORD PTR __imp_??0?$basic_string@DU?$char_traits@D@std@@V?$allocator@D@2@@std@@QAE@PBD@Z
  00991	3b f4		 cmp	 esi, esp
  00993	e8 00 00 00 00	 call	 __RTC_CheckEsp
  00998	c7 45 fc 06 00
	00 00		 mov	 DWORD PTR __$EHRec$[ebp+8], 6
  0099f	8b f4		 mov	 esi, esp
  009a1	68 00 00 00 00	 push	 OFFSET FLAT:$SG189622
  009a6	8d 8d d4 fe ff
	ff		 lea	 ecx, DWORD PTR $T192231[ebp]
  009ac	ff 15 00 00 00
	00		 call	 DWORD PTR __imp_??0?$basic_string@DU?$char_traits@D@std@@V?$allocator@D@2@@std@@QAE@PBD@Z
  009b2	3b f4		 cmp	 esi, esp
  009b4	e8 00 00 00 00	 call	 __RTC_CheckEsp
  009b9	c6 45 fc 07	 mov	 BYTE PTR __$EHRec$[ebp+8], 7
  009bd	8b f4		 mov	 esi, esp
  009bf	68 00 00 00 00	 push	 OFFSET FLAT:$SG189620
  009c4	8d 8d f0 fe ff
	ff		 lea	 ecx, DWORD PTR $T192230[ebp]
  009ca	51		 push	 ecx
  009cb	6a 00		 push	 0
  009cd	8d 95 d4 fe ff
	ff		 lea	 edx, DWORD PTR $T192231[ebp]
  009d3	52		 push	 edx
  009d4	ff 15 00 00 00
	00		 call	 DWORD PTR __imp_?YL_Log@@YAXABV?$basic_string@DU?$char_traits@D@std@@V?$allocator@D@2@@std@@H0PBDZZ
  009da	83 c4 10	 add	 esp, 16			; 00000010H
  009dd	3b f4		 cmp	 esi, esp
  009df	e8 00 00 00 00	 call	 __RTC_CheckEsp
  009e4	c6 45 fc 06	 mov	 BYTE PTR __$EHRec$[ebp+8], 6
  009e8	8b f4		 mov	 esi, esp
  009ea	8d 8d d4 fe ff
	ff		 lea	 ecx, DWORD PTR $T192231[ebp]
  009f0	ff 15 00 00 00
	00		 call	 DWORD PTR __imp_??1?$basic_string@DU?$char_traits@D@std@@V?$allocator@D@2@@std@@QAE@XZ
  009f6	3b f4		 cmp	 esi, esp
  009f8	e8 00 00 00 00	 call	 __RTC_CheckEsp
  009fd	c7 45 fc ff ff
	ff ff		 mov	 DWORD PTR __$EHRec$[ebp+8], -1
  00a04	8b f4		 mov	 esi, esp
  00a06	8d 8d f0 fe ff
	ff		 lea	 ecx, DWORD PTR $T192230[ebp]
  00a0c	ff 15 00 00 00
	00		 call	 DWORD PTR __imp_??1?$basic_string@DU?$char_traits@D@std@@V?$allocator@D@2@@std@@QAE@XZ
  00a12	3b f4		 cmp	 esi, esp
  00a14	e8 00 00 00 00	 call	 __RTC_CheckEsp

; 146  : 	CWindowsMover::GetInstance()->Clear();

  00a19	e8 00 00 00 00	 call	 ?GetInstance@CWindowsMover@@SAPAV1@XZ ; CWindowsMover::GetInstance
  00a1e	8b c8		 mov	 ecx, eax
  00a20	e8 00 00 00 00	 call	 ?Clear@CWindowsMover@@QAEXXZ ; CWindowsMover::Clear

; 147  : 
; 148  : 	YL_Log(STR_LOG_FILE,LOG_DEBUG,"CUIManager","34");	

  00a25	8b f4		 mov	 esi, esp
  00a27	68 00 00 00 00	 push	 OFFSET FLAT:$SG189626
  00a2c	8d 8d b8 fe ff
	ff		 lea	 ecx, DWORD PTR $T192232[ebp]
  00a32	ff 15 00 00 00
	00		 call	 DWORD PTR __imp_??0?$basic_string@DU?$char_traits@D@std@@V?$allocator@D@2@@std@@QAE@PBD@Z
  00a38	3b f4		 cmp	 esi, esp
  00a3a	e8 00 00 00 00	 call	 __RTC_CheckEsp
  00a3f	c7 45 fc 08 00
	00 00		 mov	 DWORD PTR __$EHRec$[ebp+8], 8
  00a46	8b f4		 mov	 esi, esp
  00a48	68 00 00 00 00	 push	 OFFSET FLAT:$SG189627
  00a4d	8d 8d 9c fe ff
	ff		 lea	 ecx, DWORD PTR $T192233[ebp]
  00a53	ff 15 00 00 00
	00		 call	 DWORD PTR __imp_??0?$basic_string@DU?$char_traits@D@std@@V?$allocator@D@2@@std@@QAE@PBD@Z
  00a59	3b f4		 cmp	 esi, esp
  00a5b	e8 00 00 00 00	 call	 __RTC_CheckEsp
  00a60	c6 45 fc 09	 mov	 BYTE PTR __$EHRec$[ebp+8], 9
  00a64	8b f4		 mov	 esi, esp
  00a66	68 00 00 00 00	 push	 OFFSET FLAT:$SG189625
  00a6b	8d 85 b8 fe ff
	ff		 lea	 eax, DWORD PTR $T192232[ebp]
  00a71	50		 push	 eax
  00a72	6a 00		 push	 0
  00a74	8d 8d 9c fe ff
	ff		 lea	 ecx, DWORD PTR $T192233[ebp]
  00a7a	51		 push	 ecx
  00a7b	ff 15 00 00 00
	00		 call	 DWORD PTR __imp_?YL_Log@@YAXABV?$basic_string@DU?$char_traits@D@std@@V?$allocator@D@2@@std@@H0PBDZZ
  00a81	83 c4 10	 add	 esp, 16			; 00000010H
  00a84	3b f4		 cmp	 esi, esp
  00a86	e8 00 00 00 00	 call	 __RTC_CheckEsp
  00a8b	c6 45 fc 08	 mov	 BYTE PTR __$EHRec$[ebp+8], 8
  00a8f	8b f4		 mov	 esi, esp
  00a91	8d 8d 9c fe ff
	ff		 lea	 ecx, DWORD PTR $T192233[ebp]
  00a97	ff 15 00 00 00
	00		 call	 DWORD PTR __imp_??1?$basic_string@DU?$char_traits@D@std@@V?$allocator@D@2@@std@@QAE@XZ
  00a9d	3b f4		 cmp	 esi, esp
  00a9f	e8 00 00 00 00	 call	 __RTC_CheckEsp
  00aa4	c7 45 fc ff ff
	ff ff		 mov	 DWORD PTR __$EHRec$[ebp+8], -1
  00aab	8b f4		 mov	 esi, esp
  00aad	8d 8d b8 fe ff
	ff		 lea	 ecx, DWORD PTR $T192232[ebp]
  00ab3	ff 15 00 00 00
	00		 call	 DWORD PTR __imp_??1?$basic_string@DU?$char_traits@D@std@@V?$allocator@D@2@@std@@QAE@XZ
  00ab9	3b f4		 cmp	 esi, esp
  00abb	e8 00 00 00 00	 call	 __RTC_CheckEsp
$L189479:

; 149  : }

  00ac0	52		 push	 edx
  00ac1	8b cd		 mov	 ecx, ebp
  00ac3	50		 push	 eax
  00ac4	8d 15 00 00 00
	00		 lea	 edx, DWORD PTR $L192250
  00aca	e8 00 00 00 00	 call	 @_RTC_CheckStackVars@8
  00acf	58		 pop	 eax
  00ad0	5a		 pop	 edx
  00ad1	8b 4d f4	 mov	 ecx, DWORD PTR __$EHRec$[ebp]
  00ad4	64 89 0d 00 00
	00 00		 mov	 DWORD PTR fs:__except_list, ecx
  00adb	5f		 pop	 edi
  00adc	5e		 pop	 esi
  00add	81 c4 68 01 00
	00		 add	 esp, 360		; 00000168H
  00ae3	3b ec		 cmp	 ebp, esp
  00ae5	e8 00 00 00 00	 call	 __RTC_CheckEsp
  00aea	8b e5		 mov	 esp, ebp
  00aec	5d		 pop	 ebp
  00aed	c3		 ret	 0
$L192250:
  00aee	02 00 00 00	 DD	 2
  00af2	00 00 00 00	 DD	 $L192249
$L192249:
  00af6	e0 ff ff ff	 DD	 -32			; ffffffe0H
  00afa	04 00 00 00	 DD	 4
  00afe	00 00 00 00	 DD	 $L192246
  00b02	d0 ff ff ff	 DD	 -48			; ffffffd0H
  00b06	08 00 00 00	 DD	 8
  00b0a	00 00 00 00	 DD	 $L192247
$L192247:
  00b0e	64		 DB	 100			; 00000064H
  00b0f	00		 DB	 0
$L192246:
  00b10	69		 DB	 105			; 00000069H
  00b11	74		 DB	 116			; 00000074H
  00b12	00		 DB	 0
_TEXT	ENDS
text$x	SEGMENT
$L192234:
  0009d	8b f4		 mov	 esi, esp
  0009f	8d 4d a8	 lea	 ecx, DWORD PTR $T192218[ebp]
  000a2	ff 15 00 00 00
	00		 call	 DWORD PTR __imp_??1?$basic_string@DU?$char_traits@D@std@@V?$allocator@D@2@@std@@QAE@XZ
  000a8	3b f4		 cmp	 esi, esp
  000aa	e9 00 00 00 00	 jmp	 __RTC_CheckEsp
$L192235:
  000af	8b f4		 mov	 esi, esp
  000b1	8d 4d 8c	 lea	 ecx, DWORD PTR $T192219[ebp]
  000b4	ff 15 00 00 00
	00		 call	 DWORD PTR __imp_??1?$basic_string@DU?$char_traits@D@std@@V?$allocator@D@2@@std@@QAE@XZ
  000ba	3b f4		 cmp	 esi, esp
  000bc	e9 00 00 00 00	 jmp	 __RTC_CheckEsp
$L192236:
  000c1	8b f4		 mov	 esi, esp
  000c3	8d 8d 70 ff ff
	ff		 lea	 ecx, DWORD PTR $T192220[ebp]
  000c9	ff 15 00 00 00
	00		 call	 DWORD PTR __imp_??1?$basic_string@DU?$char_traits@D@std@@V?$allocator@D@2@@std@@QAE@XZ
  000cf	3b f4		 cmp	 esi, esp
  000d1	e9 00 00 00 00	 jmp	 __RTC_CheckEsp
$L192237:
  000d6	8b f4		 mov	 esi, esp
  000d8	8d 8d 54 ff ff
	ff		 lea	 ecx, DWORD PTR $T192221[ebp]
  000de	ff 15 00 00 00
	00		 call	 DWORD PTR __imp_??1?$basic_string@DU?$char_traits@D@std@@V?$allocator@D@2@@std@@QAE@XZ
  000e4	3b f4		 cmp	 esi, esp
  000e6	e9 00 00 00 00	 jmp	 __RTC_CheckEsp
$L192238:
  000eb	8b f4		 mov	 esi, esp
  000ed	8d 8d 30 ff ff
	ff		 lea	 ecx, DWORD PTR $T192224[ebp]
  000f3	ff 15 00 00 00
	00		 call	 DWORD PTR __imp_??1?$basic_string@DU?$char_traits@D@std@@V?$allocator@D@2@@std@@QAE@XZ
  000f9	3b f4		 cmp	 esi, esp
  000fb	e9 00 00 00 00	 jmp	 __RTC_CheckEsp
$L192239:
  00100	8b f4		 mov	 esi, esp
  00102	8d 8d 14 ff ff
	ff		 lea	 ecx, DWORD PTR $T192225[ebp]
  00108	ff 15 00 00 00
	00		 call	 DWORD PTR __imp_??1?$basic_string@DU?$char_traits@D@std@@V?$allocator@D@2@@std@@QAE@XZ
  0010e	3b f4		 cmp	 esi, esp
  00110	e9 00 00 00 00	 jmp	 __RTC_CheckEsp
$L192240:
  00115	8b f4		 mov	 esi, esp
  00117	8d 8d f0 fe ff
	ff		 lea	 ecx, DWORD PTR $T192230[ebp]
  0011d	ff 15 00 00 00
	00		 call	 DWORD PTR __imp_??1?$basic_string@DU?$char_traits@D@std@@V?$allocator@D@2@@std@@QAE@XZ
  00123	3b f4		 cmp	 esi, esp
  00125	e9 00 00 00 00	 jmp	 __RTC_CheckEsp
$L192241:
  0012a	8b f4		 mov	 esi, esp
  0012c	8d 8d d4 fe ff
	ff		 lea	 ecx, DWORD PTR $T192231[ebp]
  00132	ff 15 00 00 00
	00		 call	 DWORD PTR __imp_??1?$basic_string@DU?$char_traits@D@std@@V?$allocator@D@2@@std@@QAE@XZ
  00138	3b f4		 cmp	 esi, esp
  0013a	e9 00 00 00 00	 jmp	 __RTC_CheckEsp
$L192242:
  0013f	8b f4		 mov	 esi, esp
  00141	8d 8d b8 fe ff
	ff		 lea	 ecx, DWORD PTR $T192232[ebp]
  00147	ff 15 00 00 00
	00		 call	 DWORD PTR __imp_??1?$basic_string@DU?$char_traits@D@std@@V?$allocator@D@2@@std@@QAE@XZ
  0014d	3b f4		 cmp	 esi, esp
  0014f	e9 00 00 00 00	 jmp	 __RTC_CheckEsp
$L192243:
  00154	8b f4		 mov	 esi, esp
  00156	8d 8d 9c fe ff
	ff		 lea	 ecx, DWORD PTR $T192233[ebp]
  0015c	ff 15 00 00 00
	00		 call	 DWORD PTR __imp_??1?$basic_string@DU?$char_traits@D@std@@V?$allocator@D@2@@std@@QAE@XZ
  00162	3b f4		 cmp	 esi, esp
  00164	e9 00 00 00 00	 jmp	 __RTC_CheckEsp
__ehhandler$?DetachAllMovingWnd@CHostWndMgr@@QAEXXZ:
  00169	b8 00 00 00 00	 mov	 eax, OFFSET FLAT:$T192245
  0016e	e9 00 00 00 00	 jmp	 ___CxxFrameHandler
text$x	ENDS
?DetachAllMovingWnd@CHostWndMgr@@QAEXXZ ENDP		; CHostWndMgr::DetachAllMovingWnd
PUBLIC	?MoveMainWindow@CHostWndMgr@@QAEXVCRect@@@Z	; CHostWndMgr::MoveMainWindow
; Function compile flags: /Odt /RTCsu
_TEXT	SEGMENT
_this$ = -4						; size = 4
_rcNew$ = 8						; size = 16
?MoveMainWindow@CHostWndMgr@@QAEXVCRect@@@Z PROC NEAR	; CHostWndMgr::MoveMainWindow
; _this$ = ecx

; 156  : {

  00b20	55		 push	 ebp
  00b21	8b ec		 mov	 ebp, esp
  00b23	51		 push	 ecx
  00b24	c7 45 fc cc cc
	cc cc		 mov	 DWORD PTR [ebp-4], -858993460 ; ccccccccH
  00b2b	89 4d fc	 mov	 DWORD PTR _this$[ebp], ecx

; 157  : 
; 158  : }

  00b2e	8b e5		 mov	 esp, ebp
  00b30	5d		 pop	 ebp
  00b31	c2 10 00	 ret	 16			; 00000010H
?MoveMainWindow@CHostWndMgr@@QAEXVCRect@@@Z ENDP	; CHostWndMgr::MoveMainWindow
_TEXT	ENDS
PUBLIC	?test@CHostWndMgr@@QAEXXZ			; CHostWndMgr::test
EXTRN	__imp__TranslateMessage@4:NEAR
EXTRN	__imp__DispatchMessageA@4:NEAR
EXTRN	__imp__PeekMessageA@20:NEAR
EXTRN	??0CRect@@QAE@HHHH@Z:NEAR			; CRect::CRect
EXTRN	__RTC_UninitUse:NEAR
EXTRN	__imp__GetMessageA@16:NEAR
xdata$x	SEGMENT
$T192270 DD	0ffffffffH
	DD	FLAT:$L192259
$T192261 DD	019930520H
	DD	01H
	DD	FLAT:$T192270
	DD	2 DUP(00H)
	DD	2 DUP(00H)
; Function compile flags: /Odt /RTCsu
xdata$x	ENDS
_TEXT	SEGMENT
tv74 = -100						; size = 4
$T192262 = -93						; size = 1
$T192258 = -92						; size = 16
$T192255 = -76						; size = 4
$T192254 = -72						; size = 4
_msg$ = -64						; size = 28
_x$189646 = -32						; size = 4
_i$189637 = -28						; size = 4
_pMain$ = -24						; size = 4
_pWnd$ = -20						; size = 4
_this$ = -16						; size = 4
__$EHRec$ = -12						; size = 12
?test@CHostWndMgr@@QAEXXZ PROC NEAR			; CHostWndMgr::test
; _this$ = ecx

; 161  : {

  00b40	55		 push	 ebp
  00b41	8b ec		 mov	 ebp, esp
  00b43	6a ff		 push	 -1
  00b45	68 00 00 00 00	 push	 __ehhandler$?test@CHostWndMgr@@QAEXXZ
  00b4a	64 a1 00 00 00
	00		 mov	 eax, DWORD PTR fs:__except_list
  00b50	50		 push	 eax
  00b51	64 89 25 00 00
	00 00		 mov	 DWORD PTR fs:__except_list, esp
  00b58	83 ec 58	 sub	 esp, 88			; 00000058H
  00b5b	56		 push	 esi
  00b5c	57		 push	 edi
  00b5d	51		 push	 ecx
  00b5e	8d 7d 9c	 lea	 edi, DWORD PTR [ebp-100]
  00b61	b9 16 00 00 00	 mov	 ecx, 22			; 00000016H
  00b66	b8 cc cc cc cc	 mov	 eax, -858993460		; ccccccccH
  00b6b	f3 ab		 rep stosd
  00b6d	59		 pop	 ecx
  00b6e	89 4d f0	 mov	 DWORD PTR _this$[ebp], ecx
  00b71	c6 45 a3 00	 mov	 BYTE PTR $T192262[ebp], 0

; 162  : 	CHostWnd *pWnd;
; 163  : 	CWnd * pMain;
; 164  : 	for(int i = 0 ; i<10; i++)

  00b75	c7 45 e4 00 00
	00 00		 mov	 DWORD PTR _i$189637[ebp], 0
  00b7c	eb 09		 jmp	 SHORT $L189638
$L189639:
  00b7e	8b 45 e4	 mov	 eax, DWORD PTR _i$189637[ebp]
  00b81	83 c0 01	 add	 eax, 1
  00b84	89 45 e4	 mov	 DWORD PTR _i$189637[ebp], eax
$L189638:
  00b87	83 7d e4 0a	 cmp	 DWORD PTR _i$189637[ebp], 10 ; 0000000aH
  00b8b	0f 8d 02 01 00
	00		 jge	 $L189655

; 165  : 	{
; 166  : 		pWnd = new CHostWnd();

  00b91	68 34 02 00 00	 push	 564			; 00000234H
  00b96	e8 00 00 00 00	 call	 ??2CObject@@SGPAXI@Z	; CObject::operator new
  00b9b	89 45 b4	 mov	 DWORD PTR $T192255[ebp], eax
  00b9e	c7 45 fc 00 00
	00 00		 mov	 DWORD PTR __$EHRec$[ebp+8], 0
  00ba5	83 7d b4 00	 cmp	 DWORD PTR $T192255[ebp], 0
  00ba9	74 0f		 je	 SHORT $L192256
  00bab	6a 00		 push	 0
  00bad	8b 4d b4	 mov	 ecx, DWORD PTR $T192255[ebp]
  00bb0	e8 00 00 00 00	 call	 ??0CHostWnd@@QAE@PAVCWnd@@@Z ; CHostWnd::CHostWnd
  00bb5	89 45 9c	 mov	 DWORD PTR tv74[ebp], eax
  00bb8	eb 07		 jmp	 SHORT $L192257
$L192256:
  00bba	c7 45 9c 00 00
	00 00		 mov	 DWORD PTR tv74[ebp], 0
$L192257:
  00bc1	8b 4d 9c	 mov	 ecx, DWORD PTR tv74[ebp]
  00bc4	89 4d b8	 mov	 DWORD PTR $T192254[ebp], ecx
  00bc7	c7 45 fc ff ff
	ff ff		 mov	 DWORD PTR __$EHRec$[ebp+8], -1
  00bce	8b 55 b8	 mov	 edx, DWORD PTR $T192254[ebp]
  00bd1	89 55 ec	 mov	 DWORD PTR _pWnd$[ebp], edx

; 167  : 		if(i == 0)

  00bd4	83 7d e4 00	 cmp	 DWORD PTR _i$189637[ebp], 0
  00bd8	75 14		 jne	 SHORT $L189645

; 168  : 		{
; 169  : 			pWnd->SetMainWnd(true);

  00bda	6a 01		 push	 1
  00bdc	8b 4d ec	 mov	 ecx, DWORD PTR _pWnd$[ebp]
  00bdf	e8 00 00 00 00	 call	 ?SetMainWnd@CHostWnd@@QAEXH@Z ; CHostWnd::SetMainWnd

; 170  : 			pMain = pWnd;

  00be4	c6 45 a3 01	 mov	 BYTE PTR $T192262[ebp], 1
  00be8	8b 45 ec	 mov	 eax, DWORD PTR _pWnd$[ebp]
  00beb	89 45 e8	 mov	 DWORD PTR _pMain$[ebp], eax
$L189645:

; 171  : 		}
; 172  : 		int x = i*150;

  00bee	8b 4d e4	 mov	 ecx, DWORD PTR _i$189637[ebp]
  00bf1	69 c9 96 00 00
	00		 imul	 ecx, 150		; 00000096H
  00bf7	89 4d e0	 mov	 DWORD PTR _x$189646[ebp], ecx

; 173  : 		if(i == 0)

  00bfa	83 7d e4 00	 cmp	 DWORD PTR _i$189637[ebp], 0
  00bfe	75 21		 jne	 SHORT $L189647

; 174  : 			pWnd->Create(IDD_HOST, ::AfxGetMainWindow());

  00c00	e8 00 00 00 00	 call	 ?AfxGetMainWindow@@YAPAVCWnd@@XZ ; AfxGetMainWindow
  00c05	8b f4		 mov	 esi, esp
  00c07	50		 push	 eax
  00c08	6a 6d		 push	 109			; 0000006dH
  00c0a	8b 55 ec	 mov	 edx, DWORD PTR _pWnd$[ebp]
  00c0d	8b 02		 mov	 eax, DWORD PTR [edx]
  00c0f	8b 4d ec	 mov	 ecx, DWORD PTR _pWnd$[ebp]
  00c12	ff 90 38 01 00
	00		 call	 DWORD PTR [eax+312]
  00c18	3b f4		 cmp	 esi, esp
  00c1a	e8 00 00 00 00	 call	 __RTC_CheckEsp

; 175  : 		else

  00c1f	eb 30		 jmp	 SHORT $L189648
$L189647:

; 176  : 			pWnd->Create(IDD_HOST, pMain);

  00c21	80 7d a3 00	 cmp	 BYTE PTR $T192262[ebp], 0
  00c25	75 0d		 jne	 SHORT $L192263
  00c27	68 00 00 00 00	 push	 OFFSET FLAT:$L192264
  00c2c	e8 00 00 00 00	 call	 __RTC_UninitUse
  00c31	83 c4 04	 add	 esp, 4
$L192263:
  00c34	8b f4		 mov	 esi, esp
  00c36	8b 4d e8	 mov	 ecx, DWORD PTR _pMain$[ebp]
  00c39	51		 push	 ecx
  00c3a	6a 6d		 push	 109			; 0000006dH
  00c3c	8b 55 ec	 mov	 edx, DWORD PTR _pWnd$[ebp]
  00c3f	8b 02		 mov	 eax, DWORD PTR [edx]
  00c41	8b 4d ec	 mov	 ecx, DWORD PTR _pWnd$[ebp]
  00c44	ff 90 38 01 00
	00		 call	 DWORD PTR [eax+312]
  00c4a	3b f4		 cmp	 esi, esp
  00c4c	e8 00 00 00 00	 call	 __RTC_CheckEsp
$L189648:

; 177  : 		pWnd->ShowWindow(SW_SHOW);

  00c51	6a 05		 push	 5
  00c53	8b 4d ec	 mov	 ecx, DWORD PTR _pWnd$[ebp]
  00c56	e8 00 00 00 00	 call	 ?ShowWindow@CWnd@@QAEHH@Z ; CWnd::ShowWindow

; 178  : 		pWnd->MoveWindow(CRect(x, x, x + 200 , x+ 100));

  00c5b	6a 01		 push	 1
  00c5d	8b 4d e0	 mov	 ecx, DWORD PTR _x$189646[ebp]
  00c60	83 c1 64	 add	 ecx, 100		; 00000064H
  00c63	51		 push	 ecx
  00c64	8b 55 e0	 mov	 edx, DWORD PTR _x$189646[ebp]
  00c67	81 c2 c8 00 00
	00		 add	 edx, 200		; 000000c8H
  00c6d	52		 push	 edx
  00c6e	8b 45 e0	 mov	 eax, DWORD PTR _x$189646[ebp]
  00c71	50		 push	 eax
  00c72	8b 4d e0	 mov	 ecx, DWORD PTR _x$189646[ebp]
  00c75	51		 push	 ecx
  00c76	8d 4d a4	 lea	 ecx, DWORD PTR $T192258[ebp]
  00c79	e8 00 00 00 00	 call	 ??0CRect@@QAE@HHHH@Z	; CRect::CRect
  00c7e	8b c8		 mov	 ecx, eax
  00c80	e8 00 00 00 00	 call	 ??BCRect@@QAEPAUtagRECT@@XZ ; CRect::operator tagRECT *
  00c85	50		 push	 eax
  00c86	8b 4d ec	 mov	 ecx, DWORD PTR _pWnd$[ebp]
  00c89	e8 00 00 00 00	 call	 ?MoveWindow@CWnd@@QAEXPBUtagRECT@@H@Z ; CWnd::MoveWindow

; 179  : 	}

  00c8e	e9 eb fe ff ff	 jmp	 $L189639
$L189655:

; 180  : 
; 181  : 	// Another improved PeekMessage() loop
; 182  : 	MSG msg;
; 183  : 	for (;;)   
; 184  : 	{
; 185  : 		for (;;)    
; 186  : 		{        
; 187  : 			if (false)//IfBackgroundProcessingRequired())  

  00c93	33 d2		 xor	 edx, edx
  00c95	74 23		 je	 SHORT $L189657

; 188  : 			{          
; 189  : 				if (!PeekMessage(&msg, NULL, 0, 0, PM_REMOVE))           

  00c97	8b f4		 mov	 esi, esp
  00c99	6a 01		 push	 1
  00c9b	6a 00		 push	 0
  00c9d	6a 00		 push	 0
  00c9f	6a 00		 push	 0
  00ca1	8d 45 c0	 lea	 eax, DWORD PTR _msg$[ebp]
  00ca4	50		 push	 eax
  00ca5	ff 15 00 00 00
	00		 call	 DWORD PTR __imp__PeekMessageA@20
  00cab	3b f4		 cmp	 esi, esp
  00cad	e8 00 00 00 00	 call	 __RTC_CheckEsp
  00cb2	85 c0		 test	 eax, eax
  00cb4	75 02		 jne	 SHORT $L189658

; 190  : 					break;     

  00cb6	eb 4b		 jmp	 SHORT $L189656
$L189658:

; 191  : 			}       
; 192  : 			else      

  00cb8	eb 19		 jmp	 SHORT $L189659
$L189657:

; 193  : 				GetMessage(&msg, NULL, 0, 0);

  00cba	8b f4		 mov	 esi, esp
  00cbc	6a 00		 push	 0
  00cbe	6a 00		 push	 0
  00cc0	6a 00		 push	 0
  00cc2	8d 4d c0	 lea	 ecx, DWORD PTR _msg$[ebp]
  00cc5	51		 push	 ecx
  00cc6	ff 15 00 00 00
	00		 call	 DWORD PTR __imp__GetMessageA@16
  00ccc	3b f4		 cmp	 esi, esp
  00cce	e8 00 00 00 00	 call	 __RTC_CheckEsp
$L189659:

; 194  : 
; 195  :             if (msg.message == WM_QUIT)    

  00cd3	83 7d c4 12	 cmp	 DWORD PTR _msg$[ebp+4], 18 ; 00000012H
  00cd7	75 02		 jne	 SHORT $L189660

; 196  : 				return;

  00cd9	eb 2a		 jmp	 SHORT $L189634
$L189660:

; 197  : 			TranslateMessage(&msg);      

  00cdb	8b f4		 mov	 esi, esp
  00cdd	8d 55 c0	 lea	 edx, DWORD PTR _msg$[ebp]
  00ce0	52		 push	 edx
  00ce1	ff 15 00 00 00
	00		 call	 DWORD PTR __imp__TranslateMessage@4
  00ce7	3b f4		 cmp	 esi, esp
  00ce9	e8 00 00 00 00	 call	 __RTC_CheckEsp

; 198  : 			DispatchMessage(&msg);      

  00cee	8b f4		 mov	 esi, esp
  00cf0	8d 45 c0	 lea	 eax, DWORD PTR _msg$[ebp]
  00cf3	50		 push	 eax
  00cf4	ff 15 00 00 00
	00		 call	 DWORD PTR __imp__DispatchMessageA@4
  00cfa	3b f4		 cmp	 esi, esp
  00cfc	e8 00 00 00 00	 call	 __RTC_CheckEsp

; 199  : 		}     

  00d01	eb 90		 jmp	 SHORT $L189655
$L189656:

; 200  : 		//BackgroundProcessing();
; 201  : 	}	

  00d03	eb 8e		 jmp	 SHORT $L189655
$L189634:

; 202  : 
; 203  : }

  00d05	52		 push	 edx
  00d06	8b cd		 mov	 ecx, ebp
  00d08	50		 push	 eax
  00d09	8d 15 00 00 00
	00		 lea	 edx, DWORD PTR $L192269
  00d0f	e8 00 00 00 00	 call	 @_RTC_CheckStackVars@8
  00d14	58		 pop	 eax
  00d15	5a		 pop	 edx
  00d16	8b 4d f4	 mov	 ecx, DWORD PTR __$EHRec$[ebp]
  00d19	64 89 0d 00 00
	00 00		 mov	 DWORD PTR fs:__except_list, ecx
  00d20	5f		 pop	 edi
  00d21	5e		 pop	 esi
  00d22	83 c4 64	 add	 esp, 100		; 00000064H
  00d25	3b ec		 cmp	 ebp, esp
  00d27	e8 00 00 00 00	 call	 __RTC_CheckEsp
  00d2c	8b e5		 mov	 esp, ebp
  00d2e	5d		 pop	 ebp
  00d2f	c3		 ret	 0
$L192269:
  00d30	01 00 00 00	 DD	 1
  00d34	00 00 00 00	 DD	 $L192268
$L192268:
  00d38	c0 ff ff ff	 DD	 -64			; ffffffc0H
  00d3c	1c 00 00 00	 DD	 28			; 0000001cH
  00d40	00 00 00 00	 DD	 $L192266
$L192266:
  00d44	6d		 DB	 109			; 0000006dH
  00d45	73		 DB	 115			; 00000073H
  00d46	67		 DB	 103			; 00000067H
  00d47	00		 DB	 0
$L192264:
  00d48	70		 DB	 112			; 00000070H
  00d49	4d		 DB	 77			; 0000004dH
  00d4a	61		 DB	 97			; 00000061H
  00d4b	69		 DB	 105			; 00000069H
  00d4c	6e		 DB	 110			; 0000006eH
  00d4d	00		 DB	 0
_TEXT	ENDS
text$x	SEGMENT
$L192259:
  00173	8b 45 b4	 mov	 eax, DWORD PTR $T192255[ebp]
  00176	50		 push	 eax
  00177	e8 00 00 00 00	 call	 ??3CObject@@SGXPAX@Z	; CObject::operator delete
  0017c	c3		 ret	 0
__ehhandler$?test@CHostWndMgr@@QAEXXZ:
  0017d	b8 00 00 00 00	 mov	 eax, OFFSET FLAT:$T192261
  00182	e9 00 00 00 00	 jmp	 ___CxxFrameHandler
text$x	ENDS
?test@CHostWndMgr@@QAEXXZ ENDP				; CHostWndMgr::test
PUBLIC	?GetHostWnd@CHostWndMgr@@QAEPAVCHostWnd@@V?$basic_string@DU?$char_traits@D@std@@V?$allocator@D@2@@std@@@Z ; CHostWndMgr::GetHostWnd
PUBLIC	?GetName@CHostWnd@@QAE?AV?$basic_string@DU?$char_traits@D@std@@V?$allocator@D@2@@std@@XZ ; CHostWnd::GetName
EXTRN	__imp_??$?8DU?$char_traits@D@std@@V?$allocator@D@1@@std@@YA_NABV?$basic_string@DU?$char_traits@D@std@@V?$allocator@D@2@@0@0@Z:NEAR
xdata$x	SEGMENT
$T192281 DD	0ffffffffH
	DD	FLAT:$L192276
	DD	00H
	DD	FLAT:$L192277
$T192279 DD	019930520H
	DD	02H
	DD	FLAT:$T192281
	DD	2 DUP(00H)
	DD	2 DUP(00H)
; Function compile flags: /Odt /RTCsu
xdata$x	ENDS
_TEXT	SEGMENT
tv86 = -72						; size = 4
tv91 = -68						; size = 4
$T192275 = -64						; size = 4
$T192274 = -60						; size = 4
$T192273 = -56						; size = 28
$T192272 = -25						; size = 1
_wnd$189669 = -24					; size = 4
_i$189665 = -20						; size = 4
_this$ = -16						; size = 4
__$EHRec$ = -12						; size = 12
_strName$ = 8						; size = 28
?GetHostWnd@CHostWndMgr@@QAEPAVCHostWnd@@V?$basic_string@DU?$char_traits@D@std@@V?$allocator@D@2@@std@@@Z PROC NEAR ; CHostWndMgr::GetHostWnd
; _this$ = ecx

; 206  : {

  00d50	55		 push	 ebp
  00d51	8b ec		 mov	 ebp, esp
  00d53	6a ff		 push	 -1
  00d55	68 00 00 00 00	 push	 __ehhandler$?GetHostWnd@CHostWndMgr@@QAEPAVCHostWnd@@V?$basic_string@DU?$char_traits@D@std@@V?$allocator@D@2@@std@@@Z
  00d5a	64 a1 00 00 00
	00		 mov	 eax, DWORD PTR fs:__except_list
  00d60	50		 push	 eax
  00d61	64 89 25 00 00
	00 00		 mov	 DWORD PTR fs:__except_list, esp
  00d68	83 ec 3c	 sub	 esp, 60			; 0000003cH
  00d6b	56		 push	 esi
  00d6c	57		 push	 edi
  00d6d	51		 push	 ecx
  00d6e	8d 7d b8	 lea	 edi, DWORD PTR [ebp-72]
  00d71	b9 0f 00 00 00	 mov	 ecx, 15			; 0000000fH
  00d76	b8 cc cc cc cc	 mov	 eax, -858993460		; ccccccccH
  00d7b	f3 ab		 rep stosd
  00d7d	59		 pop	 ecx
  00d7e	89 4d f0	 mov	 DWORD PTR _this$[ebp], ecx
  00d81	c7 45 fc 00 00
	00 00		 mov	 DWORD PTR __$EHRec$[ebp+8], 0

; 207  : 	for(int i = 0; i<m_vecHostWnds.size(); i++)

  00d88	c7 45 ec 00 00
	00 00		 mov	 DWORD PTR _i$189665[ebp], 0
  00d8f	eb 09		 jmp	 SHORT $L189666
$L189667:
  00d91	8b 45 ec	 mov	 eax, DWORD PTR _i$189665[ebp]
  00d94	83 c0 01	 add	 eax, 1
  00d97	89 45 ec	 mov	 DWORD PTR _i$189665[ebp], eax
$L189666:
  00d9a	8b 4d f0	 mov	 ecx, DWORD PTR _this$[ebp]
  00d9d	83 c1 0c	 add	 ecx, 12			; 0000000cH
  00da0	e8 00 00 00 00	 call	 ?size@?$vector@PAVCHostWnd@@V?$allocator@PAVCHostWnd@@@std@@@std@@QBEIXZ ; std::vector<CHostWnd *,std::allocator<CHostWnd *> >::size
  00da5	39 45 ec	 cmp	 DWORD PTR _i$189665[ebp], eax
  00da8	0f 83 91 00 00
	00		 jae	 $L189668

; 208  : 	{
; 209  : 		CHostWnd * wnd = m_vecHostWnds[i]; 

  00dae	8b 4d ec	 mov	 ecx, DWORD PTR _i$189665[ebp]
  00db1	51		 push	 ecx
  00db2	8b 4d f0	 mov	 ecx, DWORD PTR _this$[ebp]
  00db5	83 c1 0c	 add	 ecx, 12			; 0000000cH
  00db8	e8 00 00 00 00	 call	 ??A?$vector@PAVCHostWnd@@V?$allocator@PAVCHostWnd@@@std@@@std@@QAEAAPAVCHostWnd@@I@Z ; std::vector<CHostWnd *,std::allocator<CHostWnd *> >::operator[]
  00dbd	8b 10		 mov	 edx, DWORD PTR [eax]
  00dbf	89 55 e8	 mov	 DWORD PTR _wnd$189669[ebp], edx

; 210  : 
; 211  : 		if(wnd->GetName() == strName)

  00dc2	8d 45 c8	 lea	 eax, DWORD PTR $T192273[ebp]
  00dc5	50		 push	 eax
  00dc6	8b 4d e8	 mov	 ecx, DWORD PTR _wnd$189669[ebp]
  00dc9	e8 00 00 00 00	 call	 ?GetName@CHostWnd@@QAE?AV?$basic_string@DU?$char_traits@D@std@@V?$allocator@D@2@@std@@XZ ; CHostWnd::GetName
  00dce	89 45 bc	 mov	 DWORD PTR tv91[ebp], eax
  00dd1	8b 4d bc	 mov	 ecx, DWORD PTR tv91[ebp]
  00dd4	89 4d b8	 mov	 DWORD PTR tv86[ebp], ecx
  00dd7	c6 45 fc 01	 mov	 BYTE PTR __$EHRec$[ebp+8], 1
  00ddb	8b f4		 mov	 esi, esp
  00ddd	8d 55 08	 lea	 edx, DWORD PTR _strName$[ebp]
  00de0	52		 push	 edx
  00de1	8b 45 b8	 mov	 eax, DWORD PTR tv86[ebp]
  00de4	50		 push	 eax
  00de5	ff 15 00 00 00
	00		 call	 DWORD PTR __imp_??$?8DU?$char_traits@D@std@@V?$allocator@D@1@@std@@YA_NABV?$basic_string@DU?$char_traits@D@std@@V?$allocator@D@2@@0@0@Z
  00deb	83 c4 08	 add	 esp, 8
  00dee	3b f4		 cmp	 esi, esp
  00df0	e8 00 00 00 00	 call	 __RTC_CheckEsp
  00df5	88 45 e7	 mov	 BYTE PTR $T192272[ebp], al
  00df8	c6 45 fc 00	 mov	 BYTE PTR __$EHRec$[ebp+8], 0
  00dfc	8b f4		 mov	 esi, esp
  00dfe	8d 4d c8	 lea	 ecx, DWORD PTR $T192273[ebp]
  00e01	ff 15 00 00 00
	00		 call	 DWORD PTR __imp_??1?$basic_string@DU?$char_traits@D@std@@V?$allocator@D@2@@std@@QAE@XZ
  00e07	3b f4		 cmp	 esi, esp
  00e09	e8 00 00 00 00	 call	 __RTC_CheckEsp
  00e0e	0f b6 4d e7	 movzx	 ecx, BYTE PTR $T192272[ebp]
  00e12	85 c9		 test	 ecx, ecx
  00e14	74 24		 je	 SHORT $L189671

; 212  : 			return wnd;

  00e16	8b 55 e8	 mov	 edx, DWORD PTR _wnd$189669[ebp]
  00e19	89 55 c4	 mov	 DWORD PTR $T192274[ebp], edx
  00e1c	c7 45 fc ff ff
	ff ff		 mov	 DWORD PTR __$EHRec$[ebp+8], -1
  00e23	8b f4		 mov	 esi, esp
  00e25	8d 4d 08	 lea	 ecx, DWORD PTR _strName$[ebp]
  00e28	ff 15 00 00 00
	00		 call	 DWORD PTR __imp_??1?$basic_string@DU?$char_traits@D@std@@V?$allocator@D@2@@std@@QAE@XZ
  00e2e	3b f4		 cmp	 esi, esp
  00e30	e8 00 00 00 00	 call	 __RTC_CheckEsp
  00e35	8b 45 c4	 mov	 eax, DWORD PTR $T192274[ebp]
  00e38	eb 28		 jmp	 SHORT $L189664
$L189671:

; 213  : 	}

  00e3a	e9 52 ff ff ff	 jmp	 $L189667
$L189668:

; 214  : 	return NULL;

  00e3f	c7 45 c0 00 00
	00 00		 mov	 DWORD PTR $T192275[ebp], 0
  00e46	c7 45 fc ff ff
	ff ff		 mov	 DWORD PTR __$EHRec$[ebp+8], -1
  00e4d	8b f4		 mov	 esi, esp
  00e4f	8d 4d 08	 lea	 ecx, DWORD PTR _strName$[ebp]
  00e52	ff 15 00 00 00
	00		 call	 DWORD PTR __imp_??1?$basic_string@DU?$char_traits@D@std@@V?$allocator@D@2@@std@@QAE@XZ
  00e58	3b f4		 cmp	 esi, esp
  00e5a	e8 00 00 00 00	 call	 __RTC_CheckEsp
  00e5f	8b 45 c0	 mov	 eax, DWORD PTR $T192275[ebp]
$L189664:

; 215  : }

  00e62	8b 4d f4	 mov	 ecx, DWORD PTR __$EHRec$[ebp]
  00e65	64 89 0d 00 00
	00 00		 mov	 DWORD PTR fs:__except_list, ecx
  00e6c	5f		 pop	 edi
  00e6d	5e		 pop	 esi
  00e6e	83 c4 48	 add	 esp, 72			; 00000048H
  00e71	3b ec		 cmp	 ebp, esp
  00e73	e8 00 00 00 00	 call	 __RTC_CheckEsp
  00e78	8b e5		 mov	 esp, ebp
  00e7a	5d		 pop	 ebp
  00e7b	c2 1c 00	 ret	 28			; 0000001cH
_TEXT	ENDS
text$x	SEGMENT
$L192276:
  00187	8b f4		 mov	 esi, esp
  00189	8d 4d 08	 lea	 ecx, DWORD PTR _strName$[ebp]
  0018c	ff 15 00 00 00
	00		 call	 DWORD PTR __imp_??1?$basic_string@DU?$char_traits@D@std@@V?$allocator@D@2@@std@@QAE@XZ
  00192	3b f4		 cmp	 esi, esp
  00194	e9 00 00 00 00	 jmp	 __RTC_CheckEsp
$L192277:
  00199	8b f4		 mov	 esi, esp
  0019b	8d 4d c8	 lea	 ecx, DWORD PTR $T192273[ebp]
  0019e	ff 15 00 00 00
	00		 call	 DWORD PTR __imp_??1?$basic_string@DU?$char_traits@D@std@@V?$allocator@D@2@@std@@QAE@XZ
  001a4	3b f4		 cmp	 esi, esp
  001a6	e9 00 00 00 00	 jmp	 __RTC_CheckEsp
__ehhandler$?GetHostWnd@CHostWndMgr@@QAEPAVCHostWnd@@V?$basic_string@DU?$char_traits@D@std@@V?$allocator@D@2@@std@@@Z:
  001ab	b8 00 00 00 00	 mov	 eax, OFFSET FLAT:$T192279
  001b0	e9 00 00 00 00	 jmp	 ___CxxFrameHandler
text$x	ENDS
?GetHostWnd@CHostWndMgr@@QAEPAVCHostWnd@@V?$basic_string@DU?$char_traits@D@std@@V?$allocator@D@2@@std@@@Z ENDP ; CHostWndMgr::GetHostWnd
EXTRN	__imp_??0?$basic_string@DU?$char_traits@D@std@@V?$allocator@D@2@@std@@QAE@ABV01@@Z:NEAR
; Function compile flags: /Odt /RTCsu
; File d:\boxgit\playbox\playbox\dev\prj\playbox\src\layoutmgr\seperatemode\hostwnd.h
;	COMDAT ?GetName@CHostWnd@@QAE?AV?$basic_string@DU?$char_traits@D@std@@V?$allocator@D@2@@std@@XZ
_TEXT	SEGMENT
$T192284 = -8						; size = 4
_this$ = -4						; size = 4
___$ReturnUdt$ = 8					; size = 4
?GetName@CHostWnd@@QAE?AV?$basic_string@DU?$char_traits@D@std@@V?$allocator@D@2@@std@@XZ PROC NEAR ; CHostWnd::GetName, COMDAT
; _this$ = ecx

; 70   : 	string	GetName(){return m_strName;};

  00000	55		 push	 ebp
  00001	8b ec		 mov	 ebp, esp
  00003	83 ec 08	 sub	 esp, 8
  00006	56		 push	 esi
  00007	c7 45 f8 cc cc
	cc cc		 mov	 DWORD PTR [ebp-8], -858993460 ; ccccccccH
  0000e	c7 45 fc cc cc
	cc cc		 mov	 DWORD PTR [ebp-4], -858993460 ; ccccccccH
  00015	89 4d fc	 mov	 DWORD PTR _this$[ebp], ecx
  00018	c7 45 f8 00 00
	00 00		 mov	 DWORD PTR $T192284[ebp], 0
  0001f	8b 45 fc	 mov	 eax, DWORD PTR _this$[ebp]
  00022	05 cc 00 00 00	 add	 eax, 204		; 000000ccH
  00027	8b f4		 mov	 esi, esp
  00029	50		 push	 eax
  0002a	8b 4d 08	 mov	 ecx, DWORD PTR ___$ReturnUdt$[ebp]
  0002d	ff 15 00 00 00
	00		 call	 DWORD PTR __imp_??0?$basic_string@DU?$char_traits@D@std@@V?$allocator@D@2@@std@@QAE@ABV01@@Z
  00033	3b f4		 cmp	 esi, esp
  00035	e8 00 00 00 00	 call	 __RTC_CheckEsp
  0003a	8b 4d f8	 mov	 ecx, DWORD PTR $T192284[ebp]
  0003d	83 c9 01	 or	 ecx, 1
  00040	89 4d f8	 mov	 DWORD PTR $T192284[ebp], ecx
  00043	8b 45 08	 mov	 eax, DWORD PTR ___$ReturnUdt$[ebp]
  00046	5e		 pop	 esi
  00047	83 c4 08	 add	 esp, 8
  0004a	3b ec		 cmp	 ebp, esp
  0004c	e8 00 00 00 00	 call	 __RTC_CheckEsp
  00051	8b e5		 mov	 esp, ebp
  00053	5d		 pop	 ebp
  00054	c2 04 00	 ret	 4
?GetName@CHostWnd@@QAE?AV?$basic_string@DU?$char_traits@D@std@@V?$allocator@D@2@@std@@XZ ENDP ; CHostWnd::GetName
_TEXT	ENDS
PUBLIC	?GetHostWnd@CHostWndMgr@@QAEPAVCHostWnd@@PAVCWnd@@@Z ; CHostWndMgr::GetHostWnd
PUBLIC	?GetContentWnd@CHostWnd@@QAEPAVCWnd@@XZ		; CHostWnd::GetContentWnd
; Function compile flags: /Odt /RTCsu
; File d:\boxgit\playbox\playbox\dev\prj\playbox\src\layoutmgr\seperatemode\hostwndmgr.cpp
_TEXT	SEGMENT
_wnd$189683 = -12					; size = 4
_i$189679 = -8						; size = 4
_this$ = -4						; size = 4
_pWnd$ = 8						; size = 4
?GetHostWnd@CHostWndMgr@@QAEPAVCHostWnd@@PAVCWnd@@@Z PROC NEAR ; CHostWndMgr::GetHostWnd
; _this$ = ecx

; 218  : {

  00e80	55		 push	 ebp
  00e81	8b ec		 mov	 ebp, esp
  00e83	83 ec 0c	 sub	 esp, 12			; 0000000cH
  00e86	c7 45 f4 cc cc
	cc cc		 mov	 DWORD PTR [ebp-12], -858993460 ; ccccccccH
  00e8d	c7 45 f8 cc cc
	cc cc		 mov	 DWORD PTR [ebp-8], -858993460 ; ccccccccH
  00e94	c7 45 fc cc cc
	cc cc		 mov	 DWORD PTR [ebp-4], -858993460 ; ccccccccH
  00e9b	89 4d fc	 mov	 DWORD PTR _this$[ebp], ecx

; 219  : 	for(int i = 0; i<m_vecHostWnds.size(); i++)

  00e9e	c7 45 f8 00 00
	00 00		 mov	 DWORD PTR _i$189679[ebp], 0
  00ea5	eb 09		 jmp	 SHORT $L189680
$L189681:
  00ea7	8b 45 f8	 mov	 eax, DWORD PTR _i$189679[ebp]
  00eaa	83 c0 01	 add	 eax, 1
  00ead	89 45 f8	 mov	 DWORD PTR _i$189679[ebp], eax
$L189680:
  00eb0	8b 4d fc	 mov	 ecx, DWORD PTR _this$[ebp]
  00eb3	83 c1 0c	 add	 ecx, 12			; 0000000cH
  00eb6	e8 00 00 00 00	 call	 ?size@?$vector@PAVCHostWnd@@V?$allocator@PAVCHostWnd@@@std@@@std@@QBEIXZ ; std::vector<CHostWnd *,std::allocator<CHostWnd *> >::size
  00ebb	39 45 f8	 cmp	 DWORD PTR _i$189679[ebp], eax
  00ebe	73 28		 jae	 SHORT $L189682

; 220  : 	{
; 221  : 		CHostWnd * wnd = m_vecHostWnds[i]; 

  00ec0	8b 4d f8	 mov	 ecx, DWORD PTR _i$189679[ebp]
  00ec3	51		 push	 ecx
  00ec4	8b 4d fc	 mov	 ecx, DWORD PTR _this$[ebp]
  00ec7	83 c1 0c	 add	 ecx, 12			; 0000000cH
  00eca	e8 00 00 00 00	 call	 ??A?$vector@PAVCHostWnd@@V?$allocator@PAVCHostWnd@@@std@@@std@@QAEAAPAVCHostWnd@@I@Z ; std::vector<CHostWnd *,std::allocator<CHostWnd *> >::operator[]
  00ecf	8b 10		 mov	 edx, DWORD PTR [eax]
  00ed1	89 55 f4	 mov	 DWORD PTR _wnd$189683[ebp], edx

; 222  : 
; 223  : 		if(wnd->GetContentWnd() == pWnd)

  00ed4	8b 4d f4	 mov	 ecx, DWORD PTR _wnd$189683[ebp]
  00ed7	e8 00 00 00 00	 call	 ?GetContentWnd@CHostWnd@@QAEPAVCWnd@@XZ ; CHostWnd::GetContentWnd
  00edc	3b 45 08	 cmp	 eax, DWORD PTR _pWnd$[ebp]
  00edf	75 05		 jne	 SHORT $L189684

; 224  : 			return wnd;

  00ee1	8b 45 f4	 mov	 eax, DWORD PTR _wnd$189683[ebp]
  00ee4	eb 04		 jmp	 SHORT $L189678
$L189684:

; 225  : 	}

  00ee6	eb bf		 jmp	 SHORT $L189681
$L189682:

; 226  : 	return NULL;

  00ee8	33 c0		 xor	 eax, eax
$L189678:

; 227  : }

  00eea	83 c4 0c	 add	 esp, 12			; 0000000cH
  00eed	3b ec		 cmp	 ebp, esp
  00eef	e8 00 00 00 00	 call	 __RTC_CheckEsp
  00ef4	8b e5		 mov	 esp, ebp
  00ef6	5d		 pop	 ebp
  00ef7	c2 04 00	 ret	 4
?GetHostWnd@CHostWndMgr@@QAEPAVCHostWnd@@PAVCWnd@@@Z ENDP ; CHostWndMgr::GetHostWnd
; Function compile flags: /Odt /RTCsu
; File d:\boxgit\playbox\playbox\dev\prj\playbox\src\layoutmgr\seperatemode\hostwnd.h
_TEXT	ENDS
;	COMDAT ?GetContentWnd@CHostWnd@@QAEPAVCWnd@@XZ
_TEXT	SEGMENT
_this$ = -4						; size = 4
?GetContentWnd@CHostWnd@@QAEPAVCWnd@@XZ PROC NEAR	; CHostWnd::GetContentWnd, COMDAT
; _this$ = ecx

; 75   : 	CWnd*	GetContentWnd(){return m_pWnd;};

  00000	55		 push	 ebp
  00001	8b ec		 mov	 ebp, esp
  00003	51		 push	 ecx
  00004	c7 45 fc cc cc
	cc cc		 mov	 DWORD PTR [ebp-4], -858993460 ; ccccccccH
  0000b	89 4d fc	 mov	 DWORD PTR _this$[ebp], ecx
  0000e	8b 45 fc	 mov	 eax, DWORD PTR _this$[ebp]
  00011	8b 80 88 00 00
	00		 mov	 eax, DWORD PTR [eax+136]
  00017	8b e5		 mov	 esp, ebp
  00019	5d		 pop	 ebp
  0001a	c3		 ret	 0
?GetContentWnd@CHostWnd@@QAEPAVCWnd@@XZ ENDP		; CHostWnd::GetContentWnd
_TEXT	ENDS
PUBLIC	?ShowHostWindows@CHostWndMgr@@QAEXH@Z		; CHostWndMgr::ShowHostWindows
PUBLIC	?ShowPopupWndsBeforeMainChange@CHostWndMgr@@QAEXH@Z ; CHostWndMgr::ShowPopupWndsBeforeMainChange
PUBLIC	?ShowPopupWndsAfterMainChange@CHostWndMgr@@QAEXH@Z ; CHostWndMgr::ShowPopupWndsAfterMainChange
EXTRN	?AfxGetUIManager@@YAPAVIUIManager@@XZ:NEAR	; AfxGetUIManager
EXTRN	??0CRect@@QAE@XZ:NEAR				; CRect::CRect
EXTRN	?IsWindowVisible@CWnd@@QBEHXZ:NEAR		; CWnd::IsWindowVisible
xdata$x	SEGMENT
$T192297 DD	0ffffffffH
	DD	FLAT:$L192289
$T192291 DD	019930520H
	DD	01H
	DD	FLAT:$T192297
	DD	2 DUP(00H)
	DD	2 DUP(00H)
; Function compile flags: /Odt /RTCsu
; File d:\boxgit\playbox\playbox\dev\prj\playbox\src\layoutmgr\seperatemode\hostwndmgr.cpp
xdata$x	ENDS
_TEXT	SEGMENT
tv71 = -76						; size = 4
tv66 = -72						; size = 4
_i$189712 = -68						; size = 4
_rc$189710 = -60					; size = 16
_str$189709 = -36					; size = 4
_i$189704 = -28						; size = 4
_i$189698 = -24						; size = 4
_i$189691 = -20						; size = 4
_this$ = -16						; size = 4
__$EHRec$ = -12						; size = 12
_bShow$ = 8						; size = 4
?ShowHostWindows@CHostWndMgr@@QAEXH@Z PROC NEAR		; CHostWndMgr::ShowHostWindows
; _this$ = ecx

; 229  : {

  00f00	55		 push	 ebp
  00f01	8b ec		 mov	 ebp, esp
  00f03	6a ff		 push	 -1
  00f05	68 00 00 00 00	 push	 __ehhandler$?ShowHostWindows@CHostWndMgr@@QAEXH@Z
  00f0a	64 a1 00 00 00
	00		 mov	 eax, DWORD PTR fs:__except_list
  00f10	50		 push	 eax
  00f11	64 89 25 00 00
	00 00		 mov	 DWORD PTR fs:__except_list, esp
  00f18	83 ec 40	 sub	 esp, 64			; 00000040H
  00f1b	56		 push	 esi
  00f1c	57		 push	 edi
  00f1d	51		 push	 ecx
  00f1e	8d 7d b4	 lea	 edi, DWORD PTR [ebp-76]
  00f21	b9 10 00 00 00	 mov	 ecx, 16			; 00000010H
  00f26	b8 cc cc cc cc	 mov	 eax, -858993460		; ccccccccH
  00f2b	f3 ab		 rep stosd
  00f2d	59		 pop	 ecx
  00f2e	89 4d f0	 mov	 DWORD PTR _this$[ebp], ecx

; 230  : 	if(::AfxGetUIManager()->UIGetLayoutMgr()->GetDisplayMode() != DISPLAY_SEPERATE_MODE)

  00f31	e8 00 00 00 00	 call	 ?AfxGetUIManager@@YAPAVIUIManager@@XZ ; AfxGetUIManager
  00f36	89 45 b8	 mov	 DWORD PTR tv66[ebp], eax
  00f39	8b 45 b8	 mov	 eax, DWORD PTR tv66[ebp]
  00f3c	8b 10		 mov	 edx, DWORD PTR [eax]
  00f3e	8b f4		 mov	 esi, esp
  00f40	8b 4d b8	 mov	 ecx, DWORD PTR tv66[ebp]
  00f43	ff 52 24	 call	 DWORD PTR [edx+36]
  00f46	3b f4		 cmp	 esi, esp
  00f48	e8 00 00 00 00	 call	 __RTC_CheckEsp
  00f4d	89 45 b4	 mov	 DWORD PTR tv71[ebp], eax
  00f50	8b 45 b4	 mov	 eax, DWORD PTR tv71[ebp]
  00f53	8b 10		 mov	 edx, DWORD PTR [eax]
  00f55	8b f4		 mov	 esi, esp
  00f57	8b 4d b4	 mov	 ecx, DWORD PTR tv71[ebp]
  00f5a	ff 52 7c	 call	 DWORD PTR [edx+124]
  00f5d	3b f4		 cmp	 esi, esp
  00f5f	e8 00 00 00 00	 call	 __RTC_CheckEsp
  00f64	85 c0		 test	 eax, eax
  00f66	74 05		 je	 SHORT $L189689

; 231  : 		return;

  00f68	e9 e0 01 00 00	 jmp	 $L189688
$L189689:

; 232  : 
; 233  : 	if(!bShow)

  00f6d	83 7d 08 00	 cmp	 DWORD PTR _bShow$[ebp], 0
  00f71	75 55		 jne	 SHORT $L189690

; 234  : 	{
; 235  : 		for(int i = 0 ; i<m_vecHostWnds.size(); i++)

  00f73	c7 45 ec 00 00
	00 00		 mov	 DWORD PTR _i$189691[ebp], 0
  00f7a	eb 09		 jmp	 SHORT $L189692
$L189693:
  00f7c	8b 45 ec	 mov	 eax, DWORD PTR _i$189691[ebp]
  00f7f	83 c0 01	 add	 eax, 1
  00f82	89 45 ec	 mov	 DWORD PTR _i$189691[ebp], eax
$L189692:
  00f85	8b 4d f0	 mov	 ecx, DWORD PTR _this$[ebp]
  00f88	83 c1 0c	 add	 ecx, 12			; 0000000cH
  00f8b	e8 00 00 00 00	 call	 ?size@?$vector@PAVCHostWnd@@V?$allocator@PAVCHostWnd@@@std@@@std@@QBEIXZ ; std::vector<CHostWnd *,std::allocator<CHostWnd *> >::size
  00f90	39 45 ec	 cmp	 DWORD PTR _i$189691[ebp], eax
  00f93	73 1e		 jae	 SHORT $L189694

; 236  : 		{
; 237  : 			if(m_vecHostWnds[i]->IsWindowVisible())

  00f95	8b 4d ec	 mov	 ecx, DWORD PTR _i$189691[ebp]
  00f98	51		 push	 ecx
  00f99	8b 4d f0	 mov	 ecx, DWORD PTR _this$[ebp]
  00f9c	83 c1 0c	 add	 ecx, 12			; 0000000cH
  00f9f	e8 00 00 00 00	 call	 ??A?$vector@PAVCHostWnd@@V?$allocator@PAVCHostWnd@@@std@@@std@@QAEAAPAVCHostWnd@@I@Z ; std::vector<CHostWnd *,std::allocator<CHostWnd *> >::operator[]
  00fa4	8b 08		 mov	 ecx, DWORD PTR [eax]
  00fa6	e8 00 00 00 00	 call	 ?IsWindowVisible@CWnd@@QBEHXZ ; CWnd::IsWindowVisible
  00fab	85 c0		 test	 eax, eax
  00fad	74 02		 je	 SHORT $L189695

; 238  : 			{
; 239  : 				break;

  00faf	eb 02		 jmp	 SHORT $L189694
$L189695:

; 240  : 			}
; 241  : 		}

  00fb1	eb c9		 jmp	 SHORT $L189693
$L189694:

; 242  : 		//
; 243  : 		if(i == m_vecHostWnds.size())

  00fb3	8b 4d f0	 mov	 ecx, DWORD PTR _this$[ebp]
  00fb6	83 c1 0c	 add	 ecx, 12			; 0000000cH
  00fb9	e8 00 00 00 00	 call	 ?size@?$vector@PAVCHostWnd@@V?$allocator@PAVCHostWnd@@@std@@@std@@QBEIXZ ; std::vector<CHostWnd *,std::allocator<CHostWnd *> >::size
  00fbe	39 45 ec	 cmp	 DWORD PTR _i$189691[ebp], eax
  00fc1	75 05		 jne	 SHORT $L189690

; 244  : 		{
; 245  : 			return;

  00fc3	e9 85 01 00 00	 jmp	 $L189688
$L189690:

; 246  : 		}
; 247  : 	}
; 248  : 
; 249  : 	if(bShow)

  00fc8	83 7d 08 00	 cmp	 DWORD PTR _bShow$[ebp], 0
  00fcc	74 43		 je	 SHORT $L189697

; 250  : 	{
; 251  : 		for(int i = 0 ; i<m_vecHostWnds.size(); i++)

  00fce	c7 45 e8 00 00
	00 00		 mov	 DWORD PTR _i$189698[ebp], 0
  00fd5	eb 09		 jmp	 SHORT $L189699
$L189700:
  00fd7	8b 55 e8	 mov	 edx, DWORD PTR _i$189698[ebp]
  00fda	83 c2 01	 add	 edx, 1
  00fdd	89 55 e8	 mov	 DWORD PTR _i$189698[ebp], edx
$L189699:
  00fe0	8b 4d f0	 mov	 ecx, DWORD PTR _this$[ebp]
  00fe3	83 c1 0c	 add	 ecx, 12			; 0000000cH
  00fe6	e8 00 00 00 00	 call	 ?size@?$vector@PAVCHostWnd@@V?$allocator@PAVCHostWnd@@@std@@@std@@QBEIXZ ; std::vector<CHostWnd *,std::allocator<CHostWnd *> >::size
  00feb	39 45 e8	 cmp	 DWORD PTR _i$189698[ebp], eax
  00fee	73 21		 jae	 SHORT $L189697

; 252  : 		{
; 253  : 			//
; 254  : 			if(m_vecHostWnds[i]->IsWindowVisible())

  00ff0	8b 45 e8	 mov	 eax, DWORD PTR _i$189698[ebp]
  00ff3	50		 push	 eax
  00ff4	8b 4d f0	 mov	 ecx, DWORD PTR _this$[ebp]
  00ff7	83 c1 0c	 add	 ecx, 12			; 0000000cH
  00ffa	e8 00 00 00 00	 call	 ??A?$vector@PAVCHostWnd@@V?$allocator@PAVCHostWnd@@@std@@@std@@QAEAAPAVCHostWnd@@I@Z ; std::vector<CHostWnd *,std::allocator<CHostWnd *> >::operator[]
  00fff	8b 08		 mov	 ecx, DWORD PTR [eax]
  01001	e8 00 00 00 00	 call	 ?IsWindowVisible@CWnd@@QBEHXZ ; CWnd::IsWindowVisible
  01006	85 c0		 test	 eax, eax
  01008	74 05		 je	 SHORT $L189702

; 255  : 			{
; 256  : 				return;

  0100a	e9 3e 01 00 00	 jmp	 $L189688
$L189702:

; 257  : 			}
; 258  : 		}

  0100f	eb c6		 jmp	 SHORT $L189700
$L189697:

; 259  : 	}
; 260  : 
; 261  : 	if(bShow)

  01011	83 7d 08 00	 cmp	 DWORD PTR _bShow$[ebp], 0
  01015	0f 84 a2 00 00
	00		 je	 $L189703

; 262  : 	{
; 263  : 		ShowPopupWndsBeforeMainChange(true);

  0101b	6a 01		 push	 1
  0101d	8b 4d f0	 mov	 ecx, DWORD PTR _this$[ebp]
  01020	e8 00 00 00 00	 call	 ?ShowPopupWndsBeforeMainChange@CHostWndMgr@@QAEXH@Z ; CHostWndMgr::ShowPopupWndsBeforeMainChange

; 264  : 		for(int i = 0 ; i<m_vecVisibleWnds.size(); i++)

  01025	c7 45 e4 00 00
	00 00		 mov	 DWORD PTR _i$189704[ebp], 0
  0102c	eb 09		 jmp	 SHORT $L189705
$L189706:
  0102e	8b 4d e4	 mov	 ecx, DWORD PTR _i$189704[ebp]
  01031	83 c1 01	 add	 ecx, 1
  01034	89 4d e4	 mov	 DWORD PTR _i$189704[ebp], ecx
$L189705:
  01037	8b 4d f0	 mov	 ecx, DWORD PTR _this$[ebp]
  0103a	83 c1 1c	 add	 ecx, 28			; 0000001cH
  0103d	e8 00 00 00 00	 call	 ?size@?$vector@PAVCHostWnd@@V?$allocator@PAVCHostWnd@@@std@@@std@@QBEIXZ ; std::vector<CHostWnd *,std::allocator<CHostWnd *> >::size
  01042	39 45 e4	 cmp	 DWORD PTR _i$189704[ebp], eax
  01045	73 1a		 jae	 SHORT $L189707

; 265  : 			m_vecVisibleWnds[i]->ShowWindow(SW_SHOW);

  01047	6a 05		 push	 5
  01049	8b 55 e4	 mov	 edx, DWORD PTR _i$189704[ebp]
  0104c	52		 push	 edx
  0104d	8b 4d f0	 mov	 ecx, DWORD PTR _this$[ebp]
  01050	83 c1 1c	 add	 ecx, 28			; 0000001cH
  01053	e8 00 00 00 00	 call	 ??A?$vector@PAVCHostWnd@@V?$allocator@PAVCHostWnd@@@std@@@std@@QAEAAPAVCHostWnd@@I@Z ; std::vector<CHostWnd *,std::allocator<CHostWnd *> >::operator[]
  01058	8b 08		 mov	 ecx, DWORD PTR [eax]
  0105a	e8 00 00 00 00	 call	 ?ShowWindow@CWnd@@QAEHH@Z ; CWnd::ShowWindow
  0105f	eb cd		 jmp	 SHORT $L189706
$L189707:

; 266  : 
; 267  : 		if( i == 0)

  01061	83 7d e4 00	 cmp	 DWORD PTR _i$189704[ebp], 0
  01065	75 47		 jne	 SHORT $L189708

; 268  : 		{
; 269  : 			CString str;

  01067	8b f4		 mov	 esi, esp
  01069	8d 4d dc	 lea	 ecx, DWORD PTR _str$189709[ebp]
  0106c	ff 15 00 00 00
	00		 call	 DWORD PTR __imp_??0?$CStringT@DV?$StrTraitMFC_DLL@DV?$ChTraitsCRT@D@ATL@@@@@ATL@@QAE@XZ
  01072	3b f4		 cmp	 esi, esp
  01074	e8 00 00 00 00	 call	 __RTC_CheckEsp
  01079	c7 45 fc 00 00
	00 00		 mov	 DWORD PTR __$EHRec$[ebp+8], 0

; 270  : 			CRect rc;

  01080	8d 4d c4	 lea	 ecx, DWORD PTR _rc$189710[ebp]
  01083	e8 00 00 00 00	 call	 ??0CRect@@QAE@XZ	; CRect::CRect

; 271  : 			m_pMainWnd->ShowWindow(SW_SHOW);

  01088	6a 05		 push	 5
  0108a	8b 45 f0	 mov	 eax, DWORD PTR _this$[ebp]
  0108d	8b 48 3c	 mov	 ecx, DWORD PTR [eax+60]
  01090	e8 00 00 00 00	 call	 ?ShowWindow@CWnd@@QAEHH@Z ; CWnd::ShowWindow

; 272  : 		}

  01095	c7 45 fc ff ff
	ff ff		 mov	 DWORD PTR __$EHRec$[ebp+8], -1
  0109c	8b f4		 mov	 esi, esp
  0109e	8d 4d dc	 lea	 ecx, DWORD PTR _str$189709[ebp]
  010a1	ff 15 00 00 00
	00		 call	 DWORD PTR __imp_??1?$CStringT@DV?$StrTraitMFC_DLL@DV?$ChTraitsCRT@D@ATL@@@@@ATL@@QAE@XZ
  010a7	3b f4		 cmp	 esi, esp
  010a9	e8 00 00 00 00	 call	 __RTC_CheckEsp
$L189708:

; 273  : 		ShowPopupWndsAfterMainChange(true);

  010ae	6a 01		 push	 1
  010b0	8b 4d f0	 mov	 ecx, DWORD PTR _this$[ebp]
  010b3	e8 00 00 00 00	 call	 ?ShowPopupWndsAfterMainChange@CHostWndMgr@@QAEXH@Z ; CHostWndMgr::ShowPopupWndsAfterMainChange

; 274  : 	}
; 275  : 	else

  010b8	e9 90 00 00 00	 jmp	 $L189688
$L189703:

; 276  : 	{
; 277  : 		ShowPopupWndsBeforeMainChange(false);

  010bd	6a 00		 push	 0
  010bf	8b 4d f0	 mov	 ecx, DWORD PTR _this$[ebp]
  010c2	e8 00 00 00 00	 call	 ?ShowPopupWndsBeforeMainChange@CHostWndMgr@@QAEXH@Z ; CHostWndMgr::ShowPopupWndsBeforeMainChange

; 278  : 		m_vecVisibleWnds.clear();

  010c7	8b 4d f0	 mov	 ecx, DWORD PTR _this$[ebp]
  010ca	83 c1 1c	 add	 ecx, 28			; 0000001cH
  010cd	e8 00 00 00 00	 call	 ?clear@?$vector@PAVCHostWnd@@V?$allocator@PAVCHostWnd@@@std@@@std@@QAEXXZ ; std::vector<CHostWnd *,std::allocator<CHostWnd *> >::clear

; 279  : 		for(int i = 0 ; i<m_vecHostWnds.size(); i++)

  010d2	c7 45 bc 00 00
	00 00		 mov	 DWORD PTR _i$189712[ebp], 0
  010d9	eb 09		 jmp	 SHORT $L189713
$L189714:
  010db	8b 4d bc	 mov	 ecx, DWORD PTR _i$189712[ebp]
  010de	83 c1 01	 add	 ecx, 1
  010e1	89 4d bc	 mov	 DWORD PTR _i$189712[ebp], ecx
$L189713:
  010e4	8b 4d f0	 mov	 ecx, DWORD PTR _this$[ebp]
  010e7	83 c1 0c	 add	 ecx, 12			; 0000000cH
  010ea	e8 00 00 00 00	 call	 ?size@?$vector@PAVCHostWnd@@V?$allocator@PAVCHostWnd@@@std@@@std@@QBEIXZ ; std::vector<CHostWnd *,std::allocator<CHostWnd *> >::size
  010ef	39 45 bc	 cmp	 DWORD PTR _i$189712[ebp], eax
  010f2	73 4f		 jae	 SHORT $L189715

; 280  : 		{
; 281  : 			if(m_vecHostWnds[i]->IsWindowVisible())

  010f4	8b 55 bc	 mov	 edx, DWORD PTR _i$189712[ebp]
  010f7	52		 push	 edx
  010f8	8b 4d f0	 mov	 ecx, DWORD PTR _this$[ebp]
  010fb	83 c1 0c	 add	 ecx, 12			; 0000000cH
  010fe	e8 00 00 00 00	 call	 ??A?$vector@PAVCHostWnd@@V?$allocator@PAVCHostWnd@@@std@@@std@@QAEAAPAVCHostWnd@@I@Z ; std::vector<CHostWnd *,std::allocator<CHostWnd *> >::operator[]
  01103	8b 08		 mov	 ecx, DWORD PTR [eax]
  01105	e8 00 00 00 00	 call	 ?IsWindowVisible@CWnd@@QBEHXZ ; CWnd::IsWindowVisible
  0110a	85 c0		 test	 eax, eax
  0110c	74 33		 je	 SHORT $L189716

; 282  : 			{
; 283  : 				m_vecVisibleWnds.push_back(m_vecHostWnds[i]);

  0110e	8b 45 bc	 mov	 eax, DWORD PTR _i$189712[ebp]
  01111	50		 push	 eax
  01112	8b 4d f0	 mov	 ecx, DWORD PTR _this$[ebp]
  01115	83 c1 0c	 add	 ecx, 12			; 0000000cH
  01118	e8 00 00 00 00	 call	 ??A?$vector@PAVCHostWnd@@V?$allocator@PAVCHostWnd@@@std@@@std@@QAEAAPAVCHostWnd@@I@Z ; std::vector<CHostWnd *,std::allocator<CHostWnd *> >::operator[]
  0111d	50		 push	 eax
  0111e	8b 4d f0	 mov	 ecx, DWORD PTR _this$[ebp]
  01121	83 c1 1c	 add	 ecx, 28			; 0000001cH
  01124	e8 00 00 00 00	 call	 ?push_back@?$vector@PAVCHostWnd@@V?$allocator@PAVCHostWnd@@@std@@@std@@QAEXABQAVCHostWnd@@@Z ; std::vector<CHostWnd *,std::allocator<CHostWnd *> >::push_back

; 284  : 				m_vecHostWnds[i]->ShowWindow(SW_HIDE);

  01129	6a 00		 push	 0
  0112b	8b 4d bc	 mov	 ecx, DWORD PTR _i$189712[ebp]
  0112e	51		 push	 ecx
  0112f	8b 4d f0	 mov	 ecx, DWORD PTR _this$[ebp]
  01132	83 c1 0c	 add	 ecx, 12			; 0000000cH
  01135	e8 00 00 00 00	 call	 ??A?$vector@PAVCHostWnd@@V?$allocator@PAVCHostWnd@@@std@@@std@@QAEAAPAVCHostWnd@@I@Z ; std::vector<CHostWnd *,std::allocator<CHostWnd *> >::operator[]
  0113a	8b 08		 mov	 ecx, DWORD PTR [eax]
  0113c	e8 00 00 00 00	 call	 ?ShowWindow@CWnd@@QAEHH@Z ; CWnd::ShowWindow
$L189716:

; 285  : 			}
; 286  : 		}

  01141	eb 98		 jmp	 SHORT $L189714
$L189715:

; 287  : 		ShowPopupWndsAfterMainChange(false);

  01143	6a 00		 push	 0
  01145	8b 4d f0	 mov	 ecx, DWORD PTR _this$[ebp]
  01148	e8 00 00 00 00	 call	 ?ShowPopupWndsAfterMainChange@CHostWndMgr@@QAEXH@Z ; CHostWndMgr::ShowPopupWndsAfterMainChange
$L189688:

; 288  : 	}
; 289  : }

  0114d	52		 push	 edx
  0114e	8b cd		 mov	 ecx, ebp
  01150	50		 push	 eax
  01151	8d 15 00 00 00
	00		 lea	 edx, DWORD PTR $L192296
  01157	e8 00 00 00 00	 call	 @_RTC_CheckStackVars@8
  0115c	58		 pop	 eax
  0115d	5a		 pop	 edx
  0115e	8b 4d f4	 mov	 ecx, DWORD PTR __$EHRec$[ebp]
  01161	64 89 0d 00 00
	00 00		 mov	 DWORD PTR fs:__except_list, ecx
  01168	5f		 pop	 edi
  01169	5e		 pop	 esi
  0116a	83 c4 4c	 add	 esp, 76			; 0000004cH
  0116d	3b ec		 cmp	 ebp, esp
  0116f	e8 00 00 00 00	 call	 __RTC_CheckEsp
  01174	8b e5		 mov	 esp, ebp
  01176	5d		 pop	 ebp
  01177	c2 04 00	 ret	 4
$L192296:
  0117a	02 00 00 00	 DD	 2
  0117e	00 00 00 00	 DD	 $L192295
$L192295:
  01182	dc ff ff ff	 DD	 -36			; ffffffdcH
  01186	04 00 00 00	 DD	 4
  0118a	00 00 00 00	 DD	 $L192292
  0118e	c4 ff ff ff	 DD	 -60			; ffffffc4H
  01192	10 00 00 00	 DD	 16			; 00000010H
  01196	00 00 00 00	 DD	 $L192293
$L192293:
  0119a	72		 DB	 114			; 00000072H
  0119b	63		 DB	 99			; 00000063H
  0119c	00		 DB	 0
$L192292:
  0119d	73		 DB	 115			; 00000073H
  0119e	74		 DB	 116			; 00000074H
  0119f	72		 DB	 114			; 00000072H
  011a0	00		 DB	 0
_TEXT	ENDS
text$x	SEGMENT
$L192289:
  001b5	8b f4		 mov	 esi, esp
  001b7	8d 4d dc	 lea	 ecx, DWORD PTR _str$189709[ebp]
  001ba	ff 15 00 00 00
	00		 call	 DWORD PTR __imp_??1?$CStringT@DV?$StrTraitMFC_DLL@DV?$ChTraitsCRT@D@ATL@@@@@ATL@@QAE@XZ
  001c0	3b f4		 cmp	 esi, esp
  001c2	e9 00 00 00 00	 jmp	 __RTC_CheckEsp
__ehhandler$?ShowHostWindows@CHostWndMgr@@QAEXH@Z:
  001c7	b8 00 00 00 00	 mov	 eax, OFFSET FLAT:$T192291
  001cc	e9 00 00 00 00	 jmp	 ___CxxFrameHandler
text$x	ENDS
?ShowHostWindows@CHostWndMgr@@QAEXH@Z ENDP		; CHostWndMgr::ShowHostWindows
; Function compile flags: /Odt /RTCsu
_TEXT	SEGMENT
_this$ = -4						; size = 4
_bShow$ = 8						; size = 4
?ShowPopupWndsBeforeMainChange@CHostWndMgr@@QAEXH@Z PROC NEAR ; CHostWndMgr::ShowPopupWndsBeforeMainChange
; _this$ = ecx

; 292  : {

  011b0	55		 push	 ebp
  011b1	8b ec		 mov	 ebp, esp
  011b3	51		 push	 ecx
  011b4	c7 45 fc cc cc
	cc cc		 mov	 DWORD PTR [ebp-4], -858993460 ; ccccccccH
  011bb	89 4d fc	 mov	 DWORD PTR _this$[ebp], ecx

; 293  : }

  011be	8b e5		 mov	 esp, ebp
  011c0	5d		 pop	 ebp
  011c1	c2 04 00	 ret	 4
?ShowPopupWndsBeforeMainChange@CHostWndMgr@@QAEXH@Z ENDP ; CHostWndMgr::ShowPopupWndsBeforeMainChange
; Function compile flags: /Odt /RTCsu
_this$ = -4						; size = 4
_bShow$ = 8						; size = 4
?ShowPopupWndsAfterMainChange@CHostWndMgr@@QAEXH@Z PROC NEAR ; CHostWndMgr::ShowPopupWndsAfterMainChange
; _this$ = ecx

; 295  : {

  011d0	55		 push	 ebp
  011d1	8b ec		 mov	 ebp, esp
  011d3	51		 push	 ecx
  011d4	c7 45 fc cc cc
	cc cc		 mov	 DWORD PTR [ebp-4], -858993460 ; ccccccccH
  011db	89 4d fc	 mov	 DWORD PTR _this$[ebp], ecx

; 296  : 
; 297  : }

  011de	8b e5		 mov	 esp, ebp
  011e0	5d		 pop	 ebp
  011e1	c2 04 00	 ret	 4
?ShowPopupWndsAfterMainChange@CHostWndMgr@@QAEXH@Z ENDP	; CHostWndMgr::ShowPopupWndsAfterMainChange
_TEXT	ENDS
PUBLIC	?PopupWndsChangeTo1x@CHostWndMgr@@QAEXXZ	; CHostWndMgr::PopupWndsChangeTo1x
; Function compile flags: /Odt /RTCsu
_TEXT	SEGMENT
_this$ = -4						; size = 4
?PopupWndsChangeTo1x@CHostWndMgr@@QAEXXZ PROC NEAR	; CHostWndMgr::PopupWndsChangeTo1x
; _this$ = ecx

; 299  : {

  011f0	55		 push	 ebp
  011f1	8b ec		 mov	 ebp, esp
  011f3	51		 push	 ecx
  011f4	c7 45 fc cc cc
	cc cc		 mov	 DWORD PTR [ebp-4], -858993460 ; ccccccccH
  011fb	89 4d fc	 mov	 DWORD PTR _this$[ebp], ecx

; 300  : 
; 301  : }

  011fe	8b e5		 mov	 esp, ebp
  01200	5d		 pop	 ebp
  01201	c3		 ret	 0
?PopupWndsChangeTo1x@CHostWndMgr@@QAEXXZ ENDP		; CHostWndMgr::PopupWndsChangeTo1x
_TEXT	ENDS
PUBLIC	?PopupWndsChangeTo2x@CHostWndMgr@@QAEXXZ	; CHostWndMgr::PopupWndsChangeTo2x
; Function compile flags: /Odt /RTCsu
_TEXT	SEGMENT
_this$ = -4						; size = 4
?PopupWndsChangeTo2x@CHostWndMgr@@QAEXXZ PROC NEAR	; CHostWndMgr::PopupWndsChangeTo2x
; _this$ = ecx

; 303  : {

  01210	55		 push	 ebp
  01211	8b ec		 mov	 ebp, esp
  01213	51		 push	 ecx
  01214	c7 45 fc cc cc
	cc cc		 mov	 DWORD PTR [ebp-4], -858993460 ; ccccccccH
  0121b	89 4d fc	 mov	 DWORD PTR _this$[ebp], ecx

; 304  : }

  0121e	8b e5		 mov	 esp, ebp
  01220	5d		 pop	 ebp
  01221	c3		 ret	 0
?PopupWndsChangeTo2x@CHostWndMgr@@QAEXXZ ENDP		; CHostWndMgr::PopupWndsChangeTo2x
_TEXT	ENDS
PUBLIC	??0?$allocator@U?$pair@QAUHWND__@@UCWndData@@@std@@@std@@QAE@XZ ; std::allocator<std::pair<HWND__ * const,CWndData> >::allocator<std::pair<HWND__ * const,CWndData> >
PUBLIC	??0?$_Tree@V?$_Tmap_traits@PAUHWND__@@UCWndData@@U?$less@PAUHWND__@@@std@@V?$allocator@U?$pair@QAUHWND__@@UCWndData@@@std@@@4@$0A@@std@@@std@@QAE@ABU?$less@PAUHWND__@@@1@ABV?$allocator@U?$pair@QAUHWND__@@UCWndData@@@std@@@1@@Z ; std::_Tree<std::_Tmap_traits<HWND__ *,CWndData,std::less<HWND__ *>,std::allocator<std::pair<HWND__ * const,CWndData> >,0> >::_Tree<std::_Tmap_traits<HWND__ *,CWndData,std::less<HWND__ *>,std::allocator<std::pair<HWND__ * const,CWndData> >,0> >
; Function compile flags: /Odt /RTCsu
; File d:\program files (x86)\microsoft visual studio .net 2003\vc7\include\map
;	COMDAT ??0?$map@PAUHWND__@@UCWndData@@U?$less@PAUHWND__@@@std@@V?$allocator@U?$pair@QAUHWND__@@UCWndData@@@std@@@4@@std@@QAE@XZ
_TEXT	SEGMENT
$T192304 = -6						; size = 1
$T192303 = -5						; size = 1
_this$ = -4						; size = 4
??0?$map@PAUHWND__@@UCWndData@@U?$less@PAUHWND__@@@std@@V?$allocator@U?$pair@QAUHWND__@@UCWndData@@@std@@@4@@std@@QAE@XZ PROC NEAR ; std::map<HWND__ *,CWndData,std::less<HWND__ *>,std::allocator<std::pair<HWND__ * const,CWndData> > >::map<HWND__ *,CWndData,std::less<HWND__ *>,std::allocator<std::pair<HWND__ * const,CWndData> > >, COMDAT
; _this$ = ecx

; 102  : 		{	// construct empty map from defaults

  00000	55		 push	 ebp
  00001	8b ec		 mov	 ebp, esp
  00003	83 ec 08	 sub	 esp, 8
  00006	c7 45 f8 cc cc
	cc cc		 mov	 DWORD PTR [ebp-8], -858993460 ; ccccccccH
  0000d	c7 45 fc cc cc
	cc cc		 mov	 DWORD PTR [ebp-4], -858993460 ; ccccccccH
  00014	89 4d fc	 mov	 DWORD PTR _this$[ebp], ecx
  00017	8d 4d fb	 lea	 ecx, DWORD PTR $T192303[ebp]
  0001a	e8 00 00 00 00	 call	 ??0?$allocator@U?$pair@QAUHWND__@@UCWndData@@@std@@@std@@QAE@XZ ; std::allocator<std::pair<HWND__ * const,CWndData> >::allocator<std::pair<HWND__ * const,CWndData> >
  0001f	50		 push	 eax
  00020	8d 45 fa	 lea	 eax, DWORD PTR $T192304[ebp]
  00023	50		 push	 eax
  00024	8b 4d fc	 mov	 ecx, DWORD PTR _this$[ebp]
  00027	e8 00 00 00 00	 call	 ??0?$_Tree@V?$_Tmap_traits@PAUHWND__@@UCWndData@@U?$less@PAUHWND__@@@std@@V?$allocator@U?$pair@QAUHWND__@@UCWndData@@@std@@@4@$0A@@std@@@std@@QAE@ABU?$less@PAUHWND__@@@1@ABV?$allocator@U?$pair@QAUHWND__@@UCWndData@@@std@@@1@@Z ; std::_Tree<std::_Tmap_traits<HWND__ *,CWndData,std::less<HWND__ *>,std::allocator<std::pair<HWND__ * const,CWndData> >,0> >::_Tree<std::_Tmap_traits<HWND__ *,CWndData,std::less<HWND__ *>,std::allocator<std::pair<HWND__ * const,CWndData> >,0> >

; 103  : 		}

  0002c	8b 45 fc	 mov	 eax, DWORD PTR _this$[ebp]
  0002f	83 c4 08	 add	 esp, 8
  00032	3b ec		 cmp	 ebp, esp
  00034	e8 00 00 00 00	 call	 __RTC_CheckEsp
  00039	8b e5		 mov	 esp, ebp
  0003b	5d		 pop	 ebp
  0003c	c3		 ret	 0
??0?$map@PAUHWND__@@UCWndData@@U?$less@PAUHWND__@@@std@@V?$allocator@U?$pair@QAUHWND__@@UCWndData@@@std@@@4@@std@@QAE@XZ ENDP ; std::map<HWND__ *,CWndData,std::less<HWND__ *>,std::allocator<std::pair<HWND__ * const,CWndData> > >::map<HWND__ *,CWndData,std::less<HWND__ *>,std::allocator<std::pair<HWND__ * const,CWndData> > >
_TEXT	ENDS
PUBLIC	??8const_iterator@?$_Tree@V?$_Tmap_traits@PAUHWND__@@UCWndData@@U?$less@PAUHWND__@@@std@@V?$allocator@U?$pair@QAUHWND__@@UCWndData@@@std@@@4@$0A@@std@@@std@@QBE_NABV012@@Z ; std::_Tree<std::_Tmap_traits<HWND__ *,CWndData,std::less<HWND__ *>,std::allocator<std::pair<HWND__ * const,CWndData> >,0> >::const_iterator::operator==
PUBLIC	?_Mynode@const_iterator@?$_Tree@V?$_Tmap_traits@PAUHWND__@@UCWndData@@U?$less@PAUHWND__@@@std@@V?$allocator@U?$pair@QAUHWND__@@UCWndData@@@std@@@4@$0A@@std@@@std@@QBEPAU_Node@?$_Tree_nod@V?$_Tmap_traits@PAUHWND__@@UCWndData@@U?$less@PAUHWND__@@@std@@V?$allocator@U?$pair@QAUHWND__@@UCWndData@@@std@@@4@$0A@@std@@@3@XZ ; std::_Tree<std::_Tmap_traits<HWND__ *,CWndData,std::less<HWND__ *>,std::allocator<std::pair<HWND__ * const,CWndData> >,0> >::const_iterator::_Mynode
PUBLIC	??Diterator@?$_Tree@V?$_Tmap_traits@PAUHWND__@@UCWndData@@U?$less@PAUHWND__@@@std@@V?$allocator@U?$pair@QAUHWND__@@UCWndData@@@std@@@4@$0A@@std@@@std@@QBEAAU?$pair@QAUHWND__@@UCWndData@@@2@XZ ; std::_Tree<std::_Tmap_traits<HWND__ *,CWndData,std::less<HWND__ *>,std::allocator<std::pair<HWND__ * const,CWndData> >,0> >::iterator::operator*
PUBLIC	??R?$less@PAUHWND__@@@std@@QBE_NABQAUHWND__@@0@Z ; std::less<HWND__ *>::operator()
PUBLIC	??0?$pair@QAUHWND__@@UCWndData@@@std@@QAE@ABQAUHWND__@@ABUCWndData@@@Z ; std::pair<HWND__ * const,CWndData>::pair<HWND__ * const,CWndData>
PUBLIC	?_Key@?$_Tree@V?$_Tmap_traits@PAUHWND__@@UCWndData@@U?$less@PAUHWND__@@@std@@V?$allocator@U?$pair@QAUHWND__@@UCWndData@@@std@@@4@$0A@@std@@@std@@KAABQAUHWND__@@PAU_Node@?$_Tree_nod@V?$_Tmap_traits@PAUHWND__@@UCWndData@@U?$less@PAUHWND__@@@std@@V?$allocator@U?$pair@QAUHWND__@@UCWndData@@@std@@@4@$0A@@std@@@2@@Z ; std::_Tree<std::_Tmap_traits<HWND__ *,CWndData,std::less<HWND__ *>,std::allocator<std::pair<HWND__ * const,CWndData> >,0> >::_Key
PUBLIC	?insert@?$_Tree@V?$_Tmap_traits@PAUHWND__@@UCWndData@@U?$less@PAUHWND__@@@std@@V?$allocator@U?$pair@QAUHWND__@@UCWndData@@@std@@@4@$0A@@std@@@std@@QAE?AViterator@12@V312@ABU?$pair@QAUHWND__@@UCWndData@@@2@@Z ; std::_Tree<std::_Tmap_traits<HWND__ *,CWndData,std::less<HWND__ *>,std::allocator<std::pair<HWND__ * const,CWndData> >,0> >::insert
PUBLIC	?lower_bound@?$_Tree@V?$_Tmap_traits@PAUHWND__@@UCWndData@@U?$less@PAUHWND__@@@std@@V?$allocator@U?$pair@QAUHWND__@@UCWndData@@@std@@@4@$0A@@std@@@std@@QAE?AViterator@12@ABQAUHWND__@@@Z ; std::_Tree<std::_Tmap_traits<HWND__ *,CWndData,std::less<HWND__ *>,std::allocator<std::pair<HWND__ * const,CWndData> >,0> >::lower_bound
; Function compile flags: /Odt /RTCsu
;	COMDAT ??A?$map@PAUHWND__@@UCWndData@@U?$less@PAUHWND__@@@std@@V?$allocator@U?$pair@QAUHWND__@@UCWndData@@@std@@@4@@std@@QAEAAUCWndData@@ABQAUHWND__@@@Z
_TEXT	SEGMENT
$T192310 = -44						; size = 4
$T192309 = -40						; size = 8
$T192308 = -32						; size = 12
$T192307 = -20						; size = 4
__Where$ = -12						; size = 4
_this$ = -4						; size = 4
__Keyval$ = 8						; size = 4
??A?$map@PAUHWND__@@UCWndData@@U?$less@PAUHWND__@@@std@@V?$allocator@U?$pair@QAUHWND__@@UCWndData@@@std@@@4@@std@@QAEAAUCWndData@@ABQAUHWND__@@@Z PROC NEAR ; std::map<HWND__ *,CWndData,std::less<HWND__ *>,std::allocator<std::pair<HWND__ * const,CWndData> > >::operator[], COMDAT
; _this$ = ecx

; 142  : 		{	// find element matching _Keyval or insert with default mapped

  00000	55		 push	 ebp
  00001	8b ec		 mov	 ebp, esp
  00003	83 ec 2c	 sub	 esp, 44			; 0000002cH
  00006	57		 push	 edi
  00007	51		 push	 ecx
  00008	8d 7d d4	 lea	 edi, DWORD PTR [ebp-44]
  0000b	b9 0b 00 00 00	 mov	 ecx, 11			; 0000000bH
  00010	b8 cc cc cc cc	 mov	 eax, -858993460		; ccccccccH
  00015	f3 ab		 rep stosd
  00017	59		 pop	 ecx
  00018	89 4d fc	 mov	 DWORD PTR _this$[ebp], ecx

; 143  : 		iterator _Where = this->lower_bound(_Keyval);

  0001b	8b 45 08	 mov	 eax, DWORD PTR __Keyval$[ebp]
  0001e	50		 push	 eax
  0001f	8d 4d f4	 lea	 ecx, DWORD PTR __Where$[ebp]
  00022	51		 push	 ecx
  00023	8b 4d fc	 mov	 ecx, DWORD PTR _this$[ebp]
  00026	e8 00 00 00 00	 call	 ?lower_bound@?$_Tree@V?$_Tmap_traits@PAUHWND__@@UCWndData@@U?$less@PAUHWND__@@@std@@V?$allocator@U?$pair@QAUHWND__@@UCWndData@@@std@@@4@$0A@@std@@@std@@QAE?AViterator@12@ABQAUHWND__@@@Z ; std::_Tree<std::_Tmap_traits<HWND__ *,CWndData,std::less<HWND__ *>,std::allocator<std::pair<HWND__ * const,CWndData> >,0> >::lower_bound

; 144  : 		if (_Where == this->end() || this->comp(_Keyval, this->_Key(_Where._Mynode())))

  0002b	8d 55 ec	 lea	 edx, DWORD PTR $T192307[ebp]
  0002e	52		 push	 edx
  0002f	8b 4d fc	 mov	 ecx, DWORD PTR _this$[ebp]
  00032	e8 00 00 00 00	 call	 ?end@?$_Tree@V?$_Tmap_traits@PAUHWND__@@UCWndData@@U?$less@PAUHWND__@@@std@@V?$allocator@U?$pair@QAUHWND__@@UCWndData@@@std@@@4@$0A@@std@@@std@@QAE?AViterator@12@XZ ; std::_Tree<std::_Tmap_traits<HWND__ *,CWndData,std::less<HWND__ *>,std::allocator<std::pair<HWND__ * const,CWndData> >,0> >::end
  00037	50		 push	 eax
  00038	8d 4d f4	 lea	 ecx, DWORD PTR __Where$[ebp]
  0003b	e8 00 00 00 00	 call	 ??8const_iterator@?$_Tree@V?$_Tmap_traits@PAUHWND__@@UCWndData@@U?$less@PAUHWND__@@@std@@V?$allocator@U?$pair@QAUHWND__@@UCWndData@@@std@@@4@$0A@@std@@@std@@QBE_NABV012@@Z ; std::_Tree<std::_Tmap_traits<HWND__ *,CWndData,std::less<HWND__ *>,std::allocator<std::pair<HWND__ * const,CWndData> >,0> >::const_iterator::operator==
  00040	0f b6 c0	 movzx	 eax, al
  00043	85 c0		 test	 eax, eax
  00045	75 25		 jne	 SHORT $L189808
  00047	8d 4d f4	 lea	 ecx, DWORD PTR __Where$[ebp]
  0004a	e8 00 00 00 00	 call	 ?_Mynode@const_iterator@?$_Tree@V?$_Tmap_traits@PAUHWND__@@UCWndData@@U?$less@PAUHWND__@@@std@@V?$allocator@U?$pair@QAUHWND__@@UCWndData@@@std@@@4@$0A@@std@@@std@@QBEPAU_Node@?$_Tree_nod@V?$_Tmap_traits@PAUHWND__@@UCWndData@@U?$less@PAUHWND__@@@std@@V?$allocator@U?$pair@QAUHWND__@@UCWndData@@@std@@@4@$0A@@std@@@3@XZ ; std::_Tree<std::_Tmap_traits<HWND__ *,CWndData,std::less<HWND__ *>,std::allocator<std::pair<HWND__ * const,CWndData> >,0> >::const_iterator::_Mynode
  0004f	50		 push	 eax
  00050	e8 00 00 00 00	 call	 ?_Key@?$_Tree@V?$_Tmap_traits@PAUHWND__@@UCWndData@@U?$less@PAUHWND__@@@std@@V?$allocator@U?$pair@QAUHWND__@@UCWndData@@@std@@@4@$0A@@std@@@std@@KAABQAUHWND__@@PAU_Node@?$_Tree_nod@V?$_Tmap_traits@PAUHWND__@@UCWndData@@U?$less@PAUHWND__@@@std@@V?$allocator@U?$pair@QAUHWND__@@UCWndData@@@std@@@4@$0A@@std@@@2@@Z ; std::_Tree<std::_Tmap_traits<HWND__ *,CWndData,std::less<HWND__ *>,std::allocator<std::pair<HWND__ * const,CWndData> >,0> >::_Key
  00055	83 c4 04	 add	 esp, 4
  00058	50		 push	 eax
  00059	8b 4d 08	 mov	 ecx, DWORD PTR __Keyval$[ebp]
  0005c	51		 push	 ecx
  0005d	8b 4d fc	 mov	 ecx, DWORD PTR _this$[ebp]
  00060	e8 00 00 00 00	 call	 ??R?$less@PAUHWND__@@@std@@QBE_NABQAUHWND__@@0@Z ; std::less<HWND__ *>::operator()
  00065	0f b6 d0	 movzx	 edx, al
  00068	85 d2		 test	 edx, edx
  0006a	74 2e		 je	 SHORT $L189807
$L189808:

; 145  : 			_Where = this->insert(_Where,
; 146  : 				value_type(_Keyval, mapped_type()));

  0006c	33 c0		 xor	 eax, eax
  0006e	89 45 d8	 mov	 DWORD PTR $T192309[ebp], eax
  00071	89 45 dc	 mov	 DWORD PTR $T192309[ebp+4], eax
  00074	8d 4d d8	 lea	 ecx, DWORD PTR $T192309[ebp]
  00077	51		 push	 ecx
  00078	8b 55 08	 mov	 edx, DWORD PTR __Keyval$[ebp]
  0007b	52		 push	 edx
  0007c	8d 4d e0	 lea	 ecx, DWORD PTR $T192308[ebp]
  0007f	e8 00 00 00 00	 call	 ??0?$pair@QAUHWND__@@UCWndData@@@std@@QAE@ABQAUHWND__@@ABUCWndData@@@Z ; std::pair<HWND__ * const,CWndData>::pair<HWND__ * const,CWndData>
  00084	50		 push	 eax
  00085	8b 45 f4	 mov	 eax, DWORD PTR __Where$[ebp]
  00088	50		 push	 eax
  00089	8d 4d d4	 lea	 ecx, DWORD PTR $T192310[ebp]
  0008c	51		 push	 ecx
  0008d	8b 4d fc	 mov	 ecx, DWORD PTR _this$[ebp]
  00090	e8 00 00 00 00	 call	 ?insert@?$_Tree@V?$_Tmap_traits@PAUHWND__@@UCWndData@@U?$less@PAUHWND__@@@std@@V?$allocator@U?$pair@QAUHWND__@@UCWndData@@@std@@@4@$0A@@std@@@std@@QAE?AViterator@12@V312@ABU?$pair@QAUHWND__@@UCWndData@@@2@@Z ; std::_Tree<std::_Tmap_traits<HWND__ *,CWndData,std::less<HWND__ *>,std::allocator<std::pair<HWND__ * const,CWndData> >,0> >::insert
  00095	8b 10		 mov	 edx, DWORD PTR [eax]
  00097	89 55 f4	 mov	 DWORD PTR __Where$[ebp], edx
$L189807:

; 147  : 		return ((*_Where).second);

  0009a	8d 4d f4	 lea	 ecx, DWORD PTR __Where$[ebp]
  0009d	e8 00 00 00 00	 call	 ??Diterator@?$_Tree@V?$_Tmap_traits@PAUHWND__@@UCWndData@@U?$less@PAUHWND__@@@std@@V?$allocator@U?$pair@QAUHWND__@@UCWndData@@@std@@@4@$0A@@std@@@std@@QBEAAU?$pair@QAUHWND__@@UCWndData@@@2@XZ ; std::_Tree<std::_Tmap_traits<HWND__ *,CWndData,std::less<HWND__ *>,std::allocator<std::pair<HWND__ * const,CWndData> >,0> >::iterator::operator*
  000a2	83 c0 04	 add	 eax, 4

; 148  : 		}

  000a5	52		 push	 edx
  000a6	8b cd		 mov	 ecx, ebp
  000a8	50		 push	 eax
  000a9	8d 15 00 00 00
	00		 lea	 edx, DWORD PTR $L192313
  000af	e8 00 00 00 00	 call	 @_RTC_CheckStackVars@8
  000b4	58		 pop	 eax
  000b5	5a		 pop	 edx
  000b6	5f		 pop	 edi
  000b7	83 c4 2c	 add	 esp, 44			; 0000002cH
  000ba	3b ec		 cmp	 ebp, esp
  000bc	e8 00 00 00 00	 call	 __RTC_CheckEsp
  000c1	8b e5		 mov	 esp, ebp
  000c3	5d		 pop	 ebp
  000c4	c2 04 00	 ret	 4
$L192313:
  000c7	01 00 00 00	 DD	 1
  000cb	00 00 00 00	 DD	 $L192312
$L192312:
  000cf	f4 ff ff ff	 DD	 -12			; fffffff4H
  000d3	04 00 00 00	 DD	 4
  000d7	00 00 00 00	 DD	 $L192311
$L192311:
  000db	5f		 DB	 95			; 0000005fH
  000dc	57		 DB	 87			; 00000057H
  000dd	68		 DB	 104			; 00000068H
  000de	65		 DB	 101			; 00000065H
  000df	72		 DB	 114			; 00000072H
  000e0	65		 DB	 101			; 00000065H
  000e1	00		 DB	 0
??A?$map@PAUHWND__@@UCWndData@@U?$less@PAUHWND__@@@std@@V?$allocator@U?$pair@QAUHWND__@@UCWndData@@@std@@@4@@std@@QAEAAUCWndData@@ABQAUHWND__@@@Z ENDP ; std::map<HWND__ *,CWndData,std::less<HWND__ *>,std::allocator<std::pair<HWND__ * const,CWndData> > >::operator[]
_TEXT	ENDS
PUBLIC	?_Tidy@?$_Tree@V?$_Tmap_traits@PAUHWND__@@UCWndData@@U?$less@PAUHWND__@@@std@@V?$allocator@U?$pair@QAUHWND__@@UCWndData@@@std@@@4@$0A@@std@@@std@@IAEXXZ ; std::_Tree<std::_Tmap_traits<HWND__ *,CWndData,std::less<HWND__ *>,std::allocator<std::pair<HWND__ * const,CWndData> >,0> >::_Tidy
; Function compile flags: /Odt /RTCsu
; File d:\program files (x86)\microsoft visual studio .net 2003\vc7\include\xtree
;	COMDAT ??1?$_Tree@V?$_Tmap_traits@PAUHWND__@@UCWndData@@U?$less@PAUHWND__@@@std@@V?$allocator@U?$pair@QAUHWND__@@UCWndData@@@std@@@4@$0A@@std@@@std@@QAE@XZ
_TEXT	SEGMENT
_this$ = -4						; size = 4
??1?$_Tree@V?$_Tmap_traits@PAUHWND__@@UCWndData@@U?$less@PAUHWND__@@@std@@V?$allocator@U?$pair@QAUHWND__@@UCWndData@@@std@@@4@$0A@@std@@@std@@QAE@XZ PROC NEAR ; std::_Tree<std::_Tmap_traits<HWND__ *,CWndData,std::less<HWND__ *>,std::allocator<std::pair<HWND__ * const,CWndData> >,0> >::~_Tree<std::_Tmap_traits<HWND__ *,CWndData,std::less<HWND__ *>,std::allocator<std::pair<HWND__ * const,CWndData> >,0> >, COMDAT
; _this$ = ecx

; 391  : 		{	// destroy tree

  00000	55		 push	 ebp
  00001	8b ec		 mov	 ebp, esp
  00003	51		 push	 ecx
  00004	c7 45 fc cc cc
	cc cc		 mov	 DWORD PTR [ebp-4], -858993460 ; ccccccccH
  0000b	89 4d fc	 mov	 DWORD PTR _this$[ebp], ecx

; 392  : 		_Tidy();

  0000e	8b 4d fc	 mov	 ecx, DWORD PTR _this$[ebp]
  00011	e8 00 00 00 00	 call	 ?_Tidy@?$_Tree@V?$_Tmap_traits@PAUHWND__@@UCWndData@@U?$less@PAUHWND__@@@std@@V?$allocator@U?$pair@QAUHWND__@@UCWndData@@@std@@@4@$0A@@std@@@std@@IAEXXZ ; std::_Tree<std::_Tmap_traits<HWND__ *,CWndData,std::less<HWND__ *>,std::allocator<std::pair<HWND__ * const,CWndData> >,0> >::_Tidy

; 393  : 		}

  00016	83 c4 04	 add	 esp, 4
  00019	3b ec		 cmp	 ebp, esp
  0001b	e8 00 00 00 00	 call	 __RTC_CheckEsp
  00020	8b e5		 mov	 esp, ebp
  00022	5d		 pop	 ebp
  00023	c3		 ret	 0
??1?$_Tree@V?$_Tmap_traits@PAUHWND__@@UCWndData@@U?$less@PAUHWND__@@@std@@V?$allocator@U?$pair@QAUHWND__@@UCWndData@@@std@@@4@$0A@@std@@@std@@QAE@XZ ENDP ; std::_Tree<std::_Tmap_traits<HWND__ *,CWndData,std::less<HWND__ *>,std::allocator<std::pair<HWND__ * const,CWndData> >,0> >::~_Tree<std::_Tmap_traits<HWND__ *,CWndData,std::less<HWND__ *>,std::allocator<std::pair<HWND__ * const,CWndData> >,0> >
_TEXT	ENDS
PUBLIC	??0iterator@?$_Tree@V?$_Tmap_traits@PAUHWND__@@UCWndData@@U?$less@PAUHWND__@@@std@@V?$allocator@U?$pair@QAUHWND__@@UCWndData@@@std@@@4@$0A@@std@@@std@@QAE@PAU_Node@?$_Tree_nod@V?$_Tmap_traits@PAUHWND__@@UCWndData@@U?$less@PAUHWND__@@@std@@V?$allocator@U?$pair@QAUHWND__@@UCWndData@@@std@@@4@$0A@@std@@@2@@Z ; std::_Tree<std::_Tmap_traits<HWND__ *,CWndData,std::less<HWND__ *>,std::allocator<std::pair<HWND__ * const,CWndData> >,0> >::iterator::iterator
PUBLIC	?_Lmost@?$_Tree@V?$_Tmap_traits@PAUHWND__@@UCWndData@@U?$less@PAUHWND__@@@std@@V?$allocator@U?$pair@QAUHWND__@@UCWndData@@@std@@@4@$0A@@std@@@std@@IAEAAPAU_Node@?$_Tree_nod@V?$_Tmap_traits@PAUHWND__@@UCWndData@@U?$less@PAUHWND__@@@std@@V?$allocator@U?$pair@QAUHWND__@@UCWndData@@@std@@@4@$0A@@std@@@2@XZ ; std::_Tree<std::_Tmap_traits<HWND__ *,CWndData,std::less<HWND__ *>,std::allocator<std::pair<HWND__ * const,CWndData> >,0> >::_Lmost
; Function compile flags: /Odt /RTCsu
;	COMDAT ?begin@?$_Tree@V?$_Tmap_traits@PAUHWND__@@UCWndData@@U?$less@PAUHWND__@@@std@@V?$allocator@U?$pair@QAUHWND__@@UCWndData@@@std@@@4@$0A@@std@@@std@@QAE?AViterator@12@XZ
_TEXT	SEGMENT
_this$ = -4						; size = 4
___$ReturnUdt$ = 8					; size = 4
?begin@?$_Tree@V?$_Tmap_traits@PAUHWND__@@UCWndData@@U?$less@PAUHWND__@@@std@@V?$allocator@U?$pair@QAUHWND__@@UCWndData@@@std@@@4@$0A@@std@@@std@@QAE?AViterator@12@XZ PROC NEAR ; std::_Tree<std::_Tmap_traits<HWND__ *,CWndData,std::less<HWND__ *>,std::allocator<std::pair<HWND__ * const,CWndData> >,0> >::begin, COMDAT
; _this$ = ecx

; 407  : 		{	// return iterator for beginning of mutable sequence

  00000	55		 push	 ebp
  00001	8b ec		 mov	 ebp, esp
  00003	51		 push	 ecx
  00004	c7 45 fc cc cc
	cc cc		 mov	 DWORD PTR [ebp-4], -858993460 ; ccccccccH
  0000b	89 4d fc	 mov	 DWORD PTR _this$[ebp], ecx

; 408  : 		return (_TREE_ITERATOR(_Lmost()));

  0000e	8b 4d fc	 mov	 ecx, DWORD PTR _this$[ebp]
  00011	e8 00 00 00 00	 call	 ?_Lmost@?$_Tree@V?$_Tmap_traits@PAUHWND__@@UCWndData@@U?$less@PAUHWND__@@@std@@V?$allocator@U?$pair@QAUHWND__@@UCWndData@@@std@@@4@$0A@@std@@@std@@IAEAAPAU_Node@?$_Tree_nod@V?$_Tmap_traits@PAUHWND__@@UCWndData@@U?$less@PAUHWND__@@@std@@V?$allocator@U?$pair@QAUHWND__@@UCWndData@@@std@@@4@$0A@@std@@@2@XZ ; std::_Tree<std::_Tmap_traits<HWND__ *,CWndData,std::less<HWND__ *>,std::allocator<std::pair<HWND__ * const,CWndData> >,0> >::_Lmost
  00016	8b 00		 mov	 eax, DWORD PTR [eax]
  00018	50		 push	 eax
  00019	8b 4d 08	 mov	 ecx, DWORD PTR ___$ReturnUdt$[ebp]
  0001c	e8 00 00 00 00	 call	 ??0iterator@?$_Tree@V?$_Tmap_traits@PAUHWND__@@UCWndData@@U?$less@PAUHWND__@@@std@@V?$allocator@U?$pair@QAUHWND__@@UCWndData@@@std@@@4@$0A@@std@@@std@@QAE@PAU_Node@?$_Tree_nod@V?$_Tmap_traits@PAUHWND__@@UCWndData@@U?$less@PAUHWND__@@@std@@V?$allocator@U?$pair@QAUHWND__@@UCWndData@@@std@@@4@$0A@@std@@@2@@Z ; std::_Tree<std::_Tmap_traits<HWND__ *,CWndData,std::less<HWND__ *>,std::allocator<std::pair<HWND__ * const,CWndData> >,0> >::iterator::iterator
  00021	8b 45 08	 mov	 eax, DWORD PTR ___$ReturnUdt$[ebp]

; 409  : 		}

  00024	83 c4 04	 add	 esp, 4
  00027	3b ec		 cmp	 ebp, esp
  00029	e8 00 00 00 00	 call	 __RTC_CheckEsp
  0002e	8b e5		 mov	 esp, ebp
  00030	5d		 pop	 ebp
  00031	c2 04 00	 ret	 4
?begin@?$_Tree@V?$_Tmap_traits@PAUHWND__@@UCWndData@@U?$less@PAUHWND__@@@std@@V?$allocator@U?$pair@QAUHWND__@@UCWndData@@@std@@@4@$0A@@std@@@std@@QAE?AViterator@12@XZ ENDP ; std::_Tree<std::_Tmap_traits<HWND__ *,CWndData,std::less<HWND__ *>,std::allocator<std::pair<HWND__ * const,CWndData> >,0> >::begin
; Function compile flags: /Odt /RTCsu
_TEXT	ENDS
;	COMDAT ?end@?$_Tree@V?$_Tmap_traits@PAUHWND__@@UCWndData@@U?$less@PAUHWND__@@@std@@V?$allocator@U?$pair@QAUHWND__@@UCWndData@@@std@@@4@$0A@@std@@@std@@QAE?AViterator@12@XZ
_TEXT	SEGMENT
_this$ = -4						; size = 4
___$ReturnUdt$ = 8					; size = 4
?end@?$_Tree@V?$_Tmap_traits@PAUHWND__@@UCWndData@@U?$less@PAUHWND__@@@std@@V?$allocator@U?$pair@QAUHWND__@@UCWndData@@@std@@@4@$0A@@std@@@std@@QAE?AViterator@12@XZ PROC NEAR ; std::_Tree<std::_Tmap_traits<HWND__ *,CWndData,std::less<HWND__ *>,std::allocator<std::pair<HWND__ * const,CWndData> >,0> >::end, COMDAT
; _this$ = ecx

; 417  : 		{	// return iterator for end of mutable sequence

  00000	55		 push	 ebp
  00001	8b ec		 mov	 ebp, esp
  00003	51		 push	 ecx
  00004	c7 45 fc cc cc
	cc cc		 mov	 DWORD PTR [ebp-4], -858993460 ; ccccccccH
  0000b	89 4d fc	 mov	 DWORD PTR _this$[ebp], ecx

; 418  : 		return (_TREE_ITERATOR(_Myhead));

  0000e	8b 45 fc	 mov	 eax, DWORD PTR _this$[ebp]
  00011	8b 48 04	 mov	 ecx, DWORD PTR [eax+4]
  00014	51		 push	 ecx
  00015	8b 4d 08	 mov	 ecx, DWORD PTR ___$ReturnUdt$[ebp]
  00018	e8 00 00 00 00	 call	 ??0iterator@?$_Tree@V?$_Tmap_traits@PAUHWND__@@UCWndData@@U?$less@PAUHWND__@@@std@@V?$allocator@U?$pair@QAUHWND__@@UCWndData@@@std@@@4@$0A@@std@@@std@@QAE@PAU_Node@?$_Tree_nod@V?$_Tmap_traits@PAUHWND__@@UCWndData@@U?$less@PAUHWND__@@@std@@V?$allocator@U?$pair@QAUHWND__@@UCWndData@@@std@@@4@$0A@@std@@@2@@Z ; std::_Tree<std::_Tmap_traits<HWND__ *,CWndData,std::less<HWND__ *>,std::allocator<std::pair<HWND__ * const,CWndData> >,0> >::iterator::iterator
  0001d	8b 45 08	 mov	 eax, DWORD PTR ___$ReturnUdt$[ebp]

; 419  : 		}

  00020	83 c4 04	 add	 esp, 4
  00023	3b ec		 cmp	 ebp, esp
  00025	e8 00 00 00 00	 call	 __RTC_CheckEsp
  0002a	8b e5		 mov	 esp, ebp
  0002c	5d		 pop	 ebp
  0002d	c2 04 00	 ret	 4
?end@?$_Tree@V?$_Tmap_traits@PAUHWND__@@UCWndData@@U?$less@PAUHWND__@@@std@@V?$allocator@U?$pair@QAUHWND__@@UCWndData@@@std@@@4@$0A@@std@@@std@@QAE?AViterator@12@XZ ENDP ; std::_Tree<std::_Tmap_traits<HWND__ *,CWndData,std::less<HWND__ *>,std::allocator<std::pair<HWND__ * const,CWndData> >,0> >::end
_TEXT	ENDS
PUBLIC	??0?$_Vector_val@PAVCHostWnd@@V?$allocator@PAVCHostWnd@@@std@@@std@@IAE@V?$allocator@PAVCHostWnd@@@1@@Z ; std::_Vector_val<CHostWnd *,std::allocator<CHostWnd *> >::_Vector_val<CHostWnd *,std::allocator<CHostWnd *> >
PUBLIC	??0?$allocator@PAVCHostWnd@@@std@@QAE@XZ	; std::allocator<CHostWnd *>::allocator<CHostWnd *>
PUBLIC	?_Buy@?$vector@PAVCHostWnd@@V?$allocator@PAVCHostWnd@@@std@@@std@@IAE_NI@Z ; std::vector<CHostWnd *,std::allocator<CHostWnd *> >::_Buy
; Function compile flags: /Odt /RTCsu
; File d:\program files (x86)\microsoft visual studio .net 2003\vc7\include\vector
;	COMDAT ??0?$vector@PAVCHostWnd@@V?$allocator@PAVCHostWnd@@@std@@@std@@QAE@XZ
_TEXT	SEGMENT
_this$ = -4						; size = 4
??0?$vector@PAVCHostWnd@@V?$allocator@PAVCHostWnd@@@std@@@std@@QAE@XZ PROC NEAR ; std::vector<CHostWnd *,std::allocator<CHostWnd *> >::vector<CHostWnd *,std::allocator<CHostWnd *> >, COMDAT
; _this$ = ecx

; 299  : 		{	// construct empty vector

  00000	55		 push	 ebp
  00001	8b ec		 mov	 ebp, esp
  00003	83 ec 08	 sub	 esp, 8
  00006	c7 45 f8 cc cc
	cc cc		 mov	 DWORD PTR [ebp-8], -858993460 ; ccccccccH
  0000d	c7 45 fc cc cc
	cc cc		 mov	 DWORD PTR [ebp-4], -858993460 ; ccccccccH
  00014	89 4d fc	 mov	 DWORD PTR _this$[ebp], ecx
  00017	51		 push	 ecx
  00018	8b cc		 mov	 ecx, esp
  0001a	e8 00 00 00 00	 call	 ??0?$allocator@PAVCHostWnd@@@std@@QAE@XZ ; std::allocator<CHostWnd *>::allocator<CHostWnd *>
  0001f	8b 4d fc	 mov	 ecx, DWORD PTR _this$[ebp]
  00022	e8 00 00 00 00	 call	 ??0?$_Vector_val@PAVCHostWnd@@V?$allocator@PAVCHostWnd@@@std@@@std@@IAE@V?$allocator@PAVCHostWnd@@@1@@Z ; std::_Vector_val<CHostWnd *,std::allocator<CHostWnd *> >::_Vector_val<CHostWnd *,std::allocator<CHostWnd *> >

; 300  : 		_Buy(0);

  00027	6a 00		 push	 0
  00029	8b 4d fc	 mov	 ecx, DWORD PTR _this$[ebp]
  0002c	e8 00 00 00 00	 call	 ?_Buy@?$vector@PAVCHostWnd@@V?$allocator@PAVCHostWnd@@@std@@@std@@IAE_NI@Z ; std::vector<CHostWnd *,std::allocator<CHostWnd *> >::_Buy

; 301  : 		}

  00031	8b 45 fc	 mov	 eax, DWORD PTR _this$[ebp]
  00034	83 c4 08	 add	 esp, 8
  00037	3b ec		 cmp	 ebp, esp
  00039	e8 00 00 00 00	 call	 __RTC_CheckEsp
  0003e	8b e5		 mov	 esp, ebp
  00040	5d		 pop	 ebp
  00041	c3		 ret	 0
??0?$vector@PAVCHostWnd@@V?$allocator@PAVCHostWnd@@@std@@@std@@QAE@XZ ENDP ; std::vector<CHostWnd *,std::allocator<CHostWnd *> >::vector<CHostWnd *,std::allocator<CHostWnd *> >
_TEXT	ENDS
PUBLIC	?_Tidy@?$vector@PAVCHostWnd@@V?$allocator@PAVCHostWnd@@@std@@@std@@IAEXXZ ; std::vector<CHostWnd *,std::allocator<CHostWnd *> >::_Tidy
; Function compile flags: /Odt /RTCsu
;	COMDAT ??1?$vector@PAVCHostWnd@@V?$allocator@PAVCHostWnd@@@std@@@std@@QAE@XZ
_TEXT	SEGMENT
_this$ = -4						; size = 4
??1?$vector@PAVCHostWnd@@V?$allocator@PAVCHostWnd@@@std@@@std@@QAE@XZ PROC NEAR ; std::vector<CHostWnd *,std::allocator<CHostWnd *> >::~vector<CHostWnd *,std::allocator<CHostWnd *> >, COMDAT
; _this$ = ecx

; 387  : 		{	// destroy the object

  00000	55		 push	 ebp
  00001	8b ec		 mov	 ebp, esp
  00003	51		 push	 ecx
  00004	c7 45 fc cc cc
	cc cc		 mov	 DWORD PTR [ebp-4], -858993460 ; ccccccccH
  0000b	89 4d fc	 mov	 DWORD PTR _this$[ebp], ecx

; 388  : 		_Tidy();

  0000e	8b 4d fc	 mov	 ecx, DWORD PTR _this$[ebp]
  00011	e8 00 00 00 00	 call	 ?_Tidy@?$vector@PAVCHostWnd@@V?$allocator@PAVCHostWnd@@@std@@@std@@IAEXXZ ; std::vector<CHostWnd *,std::allocator<CHostWnd *> >::_Tidy

; 389  : 		}

  00016	83 c4 04	 add	 esp, 4
  00019	3b ec		 cmp	 ebp, esp
  0001b	e8 00 00 00 00	 call	 __RTC_CheckEsp
  00020	8b e5		 mov	 esp, ebp
  00022	5d		 pop	 ebp
  00023	c3		 ret	 0
??1?$vector@PAVCHostWnd@@V?$allocator@PAVCHostWnd@@@std@@@std@@QAE@XZ ENDP ; std::vector<CHostWnd *,std::allocator<CHostWnd *> >::~vector<CHostWnd *,std::allocator<CHostWnd *> >
; Function compile flags: /Odt /RTCsu
_TEXT	ENDS
;	COMDAT ?size@?$vector@PAVCHostWnd@@V?$allocator@PAVCHostWnd@@@std@@@std@@QBEIXZ
_TEXT	SEGMENT
tv70 = -8						; size = 4
_this$ = -4						; size = 4
?size@?$vector@PAVCHostWnd@@V?$allocator@PAVCHostWnd@@@std@@@std@@QBEIXZ PROC NEAR ; std::vector<CHostWnd *,std::allocator<CHostWnd *> >::size, COMDAT
; _this$ = ecx

; 515  : 		{	// return length of sequence

  00000	55		 push	 ebp
  00001	8b ec		 mov	 ebp, esp
  00003	83 ec 08	 sub	 esp, 8
  00006	c7 45 f8 cc cc
	cc cc		 mov	 DWORD PTR [ebp-8], -858993460 ; ccccccccH
  0000d	c7 45 fc cc cc
	cc cc		 mov	 DWORD PTR [ebp-4], -858993460 ; ccccccccH
  00014	89 4d fc	 mov	 DWORD PTR _this$[ebp], ecx

; 516  : 		return (_Myfirst == 0 ? 0 : _Mylast - _Myfirst);

  00017	8b 45 fc	 mov	 eax, DWORD PTR _this$[ebp]
  0001a	83 78 04 00	 cmp	 DWORD PTR [eax+4], 0
  0001e	75 09		 jne	 SHORT $L192321
  00020	c7 45 f8 00 00
	00 00		 mov	 DWORD PTR tv70[ebp], 0
  00027	eb 12		 jmp	 SHORT $L192322
$L192321:
  00029	8b 4d fc	 mov	 ecx, DWORD PTR _this$[ebp]
  0002c	8b 55 fc	 mov	 edx, DWORD PTR _this$[ebp]
  0002f	8b 41 08	 mov	 eax, DWORD PTR [ecx+8]
  00032	2b 42 04	 sub	 eax, DWORD PTR [edx+4]
  00035	c1 f8 02	 sar	 eax, 2
  00038	89 45 f8	 mov	 DWORD PTR tv70[ebp], eax
$L192322:
  0003b	8b 45 f8	 mov	 eax, DWORD PTR tv70[ebp]

; 517  : 		}

  0003e	8b e5		 mov	 esp, ebp
  00040	5d		 pop	 ebp
  00041	c3		 ret	 0
?size@?$vector@PAVCHostWnd@@V?$allocator@PAVCHostWnd@@@std@@@std@@QBEIXZ ENDP ; std::vector<CHostWnd *,std::allocator<CHostWnd *> >::size
_TEXT	ENDS
PUBLIC	??Diterator@?$vector@PAVCHostWnd@@V?$allocator@PAVCHostWnd@@@std@@@std@@QBEAAPAVCHostWnd@@XZ ; std::vector<CHostWnd *,std::allocator<CHostWnd *> >::iterator::operator*
PUBLIC	??Hiterator@?$vector@PAVCHostWnd@@V?$allocator@PAVCHostWnd@@@std@@@std@@QBE?AV012@H@Z ; std::vector<CHostWnd *,std::allocator<CHostWnd *> >::iterator::operator+
PUBLIC	?begin@?$vector@PAVCHostWnd@@V?$allocator@PAVCHostWnd@@@std@@@std@@QAE?AViterator@12@XZ ; std::vector<CHostWnd *,std::allocator<CHostWnd *> >::begin
; Function compile flags: /Odt /RTCsu
;	COMDAT ??A?$vector@PAVCHostWnd@@V?$allocator@PAVCHostWnd@@@std@@@std@@QAEAAPAVCHostWnd@@I@Z
_TEXT	SEGMENT
$T192325 = -12						; size = 4
$T192324 = -8						; size = 4
_this$ = -4						; size = 4
__Pos$ = 8						; size = 4
??A?$vector@PAVCHostWnd@@V?$allocator@PAVCHostWnd@@@std@@@std@@QAEAAPAVCHostWnd@@I@Z PROC NEAR ; std::vector<CHostWnd *,std::allocator<CHostWnd *> >::operator[], COMDAT
; _this$ = ecx

; 554  : 		{	// subscript mutable sequence

  00000	55		 push	 ebp
  00001	8b ec		 mov	 ebp, esp
  00003	83 ec 0c	 sub	 esp, 12			; 0000000cH
  00006	c7 45 f4 cc cc
	cc cc		 mov	 DWORD PTR [ebp-12], -858993460 ; ccccccccH
  0000d	c7 45 f8 cc cc
	cc cc		 mov	 DWORD PTR [ebp-8], -858993460 ; ccccccccH
  00014	c7 45 fc cc cc
	cc cc		 mov	 DWORD PTR [ebp-4], -858993460 ; ccccccccH
  0001b	89 4d fc	 mov	 DWORD PTR _this$[ebp], ecx

; 555  : 		return (*(begin() + _Pos));

  0001e	8b 45 08	 mov	 eax, DWORD PTR __Pos$[ebp]
  00021	50		 push	 eax
  00022	8d 4d f4	 lea	 ecx, DWORD PTR $T192325[ebp]
  00025	51		 push	 ecx
  00026	8d 55 f8	 lea	 edx, DWORD PTR $T192324[ebp]
  00029	52		 push	 edx
  0002a	8b 4d fc	 mov	 ecx, DWORD PTR _this$[ebp]
  0002d	e8 00 00 00 00	 call	 ?begin@?$vector@PAVCHostWnd@@V?$allocator@PAVCHostWnd@@@std@@@std@@QAE?AViterator@12@XZ ; std::vector<CHostWnd *,std::allocator<CHostWnd *> >::begin
  00032	8b c8		 mov	 ecx, eax
  00034	e8 00 00 00 00	 call	 ??Hiterator@?$vector@PAVCHostWnd@@V?$allocator@PAVCHostWnd@@@std@@@std@@QBE?AV012@H@Z ; std::vector<CHostWnd *,std::allocator<CHostWnd *> >::iterator::operator+
  00039	8b c8		 mov	 ecx, eax
  0003b	e8 00 00 00 00	 call	 ??Diterator@?$vector@PAVCHostWnd@@V?$allocator@PAVCHostWnd@@@std@@@std@@QBEAAPAVCHostWnd@@XZ ; std::vector<CHostWnd *,std::allocator<CHostWnd *> >::iterator::operator*

; 556  : 		}

  00040	83 c4 0c	 add	 esp, 12			; 0000000cH
  00043	3b ec		 cmp	 ebp, esp
  00045	e8 00 00 00 00	 call	 __RTC_CheckEsp
  0004a	8b e5		 mov	 esp, ebp
  0004c	5d		 pop	 ebp
  0004d	c2 04 00	 ret	 4
??A?$vector@PAVCHostWnd@@V?$allocator@PAVCHostWnd@@@std@@@std@@QAEAAPAVCHostWnd@@I@Z ENDP ; std::vector<CHostWnd *,std::allocator<CHostWnd *> >::operator[]
_TEXT	ENDS
PUBLIC	?capacity@?$vector@PAVCHostWnd@@V?$allocator@PAVCHostWnd@@@std@@@std@@QBEIXZ ; std::vector<CHostWnd *,std::allocator<CHostWnd *> >::capacity
PUBLIC	?end@?$vector@PAVCHostWnd@@V?$allocator@PAVCHostWnd@@@std@@@std@@QAE?AViterator@12@XZ ; std::vector<CHostWnd *,std::allocator<CHostWnd *> >::end
PUBLIC	?insert@?$vector@PAVCHostWnd@@V?$allocator@PAVCHostWnd@@@std@@@std@@QAE?AViterator@12@V312@ABQAVCHostWnd@@@Z ; std::vector<CHostWnd *,std::allocator<CHostWnd *> >::insert
PUBLIC	?_Ufill@?$vector@PAVCHostWnd@@V?$allocator@PAVCHostWnd@@@std@@@std@@IAEPAPAVCHostWnd@@PAPAV3@IABQAV3@@Z ; std::vector<CHostWnd *,std::allocator<CHostWnd *> >::_Ufill
; Function compile flags: /Odt /RTCsu
;	COMDAT ?push_back@?$vector@PAVCHostWnd@@V?$allocator@PAVCHostWnd@@@std@@@std@@QAEXABQAVCHostWnd@@@Z
_TEXT	SEGMENT
$T192328 = -12						; size = 4
$T192327 = -8						; size = 4
_this$ = -4						; size = 4
__Val$ = 8						; size = 4
?push_back@?$vector@PAVCHostWnd@@V?$allocator@PAVCHostWnd@@@std@@@std@@QAEXABQAVCHostWnd@@@Z PROC NEAR ; std::vector<CHostWnd *,std::allocator<CHostWnd *> >::push_back, COMDAT
; _this$ = ecx

; 579  : 		{	// insert element at end

  00000	55		 push	 ebp
  00001	8b ec		 mov	 ebp, esp
  00003	83 ec 0c	 sub	 esp, 12			; 0000000cH
  00006	56		 push	 esi
  00007	c7 45 f4 cc cc
	cc cc		 mov	 DWORD PTR [ebp-12], -858993460 ; ccccccccH
  0000e	c7 45 f8 cc cc
	cc cc		 mov	 DWORD PTR [ebp-8], -858993460 ; ccccccccH
  00015	c7 45 fc cc cc
	cc cc		 mov	 DWORD PTR [ebp-4], -858993460 ; ccccccccH
  0001c	89 4d fc	 mov	 DWORD PTR _this$[ebp], ecx

; 580  : 		if (size() < capacity())

  0001f	8b 4d fc	 mov	 ecx, DWORD PTR _this$[ebp]
  00022	e8 00 00 00 00	 call	 ?size@?$vector@PAVCHostWnd@@V?$allocator@PAVCHostWnd@@@std@@@std@@QBEIXZ ; std::vector<CHostWnd *,std::allocator<CHostWnd *> >::size
  00027	8b f0		 mov	 esi, eax
  00029	8b 4d fc	 mov	 ecx, DWORD PTR _this$[ebp]
  0002c	e8 00 00 00 00	 call	 ?capacity@?$vector@PAVCHostWnd@@V?$allocator@PAVCHostWnd@@@std@@@std@@QBEIXZ ; std::vector<CHostWnd *,std::allocator<CHostWnd *> >::capacity
  00031	3b f0		 cmp	 esi, eax
  00033	73 1d		 jae	 SHORT $L189956

; 581  : 			_Mylast = _Ufill(_Mylast, 1, _Val);

  00035	8b 45 08	 mov	 eax, DWORD PTR __Val$[ebp]
  00038	50		 push	 eax
  00039	6a 01		 push	 1
  0003b	8b 4d fc	 mov	 ecx, DWORD PTR _this$[ebp]
  0003e	8b 51 08	 mov	 edx, DWORD PTR [ecx+8]
  00041	52		 push	 edx
  00042	8b 4d fc	 mov	 ecx, DWORD PTR _this$[ebp]
  00045	e8 00 00 00 00	 call	 ?_Ufill@?$vector@PAVCHostWnd@@V?$allocator@PAVCHostWnd@@@std@@@std@@IAEPAPAVCHostWnd@@PAPAV3@IABQAV3@@Z ; std::vector<CHostWnd *,std::allocator<CHostWnd *> >::_Ufill
  0004a	8b 4d fc	 mov	 ecx, DWORD PTR _this$[ebp]
  0004d	89 41 08	 mov	 DWORD PTR [ecx+8], eax

; 582  : 		else

  00050	eb 1f		 jmp	 SHORT $L189955
$L189956:

; 583  : 			insert(end(), _Val);

  00052	8b 55 08	 mov	 edx, DWORD PTR __Val$[ebp]
  00055	52		 push	 edx
  00056	8d 45 f8	 lea	 eax, DWORD PTR $T192327[ebp]
  00059	50		 push	 eax
  0005a	8b 4d fc	 mov	 ecx, DWORD PTR _this$[ebp]
  0005d	e8 00 00 00 00	 call	 ?end@?$vector@PAVCHostWnd@@V?$allocator@PAVCHostWnd@@@std@@@std@@QAE?AViterator@12@XZ ; std::vector<CHostWnd *,std::allocator<CHostWnd *> >::end
  00062	8b 08		 mov	 ecx, DWORD PTR [eax]
  00064	51		 push	 ecx
  00065	8d 55 f4	 lea	 edx, DWORD PTR $T192328[ebp]
  00068	52		 push	 edx
  00069	8b 4d fc	 mov	 ecx, DWORD PTR _this$[ebp]
  0006c	e8 00 00 00 00	 call	 ?insert@?$vector@PAVCHostWnd@@V?$allocator@PAVCHostWnd@@@std@@@std@@QAE?AViterator@12@V312@ABQAVCHostWnd@@@Z ; std::vector<CHostWnd *,std::allocator<CHostWnd *> >::insert
$L189955:

; 584  : 		}

  00071	5e		 pop	 esi
  00072	83 c4 0c	 add	 esp, 12			; 0000000cH
  00075	3b ec		 cmp	 ebp, esp
  00077	e8 00 00 00 00	 call	 __RTC_CheckEsp
  0007c	8b e5		 mov	 esp, ebp
  0007e	5d		 pop	 ebp
  0007f	c2 04 00	 ret	 4
?push_back@?$vector@PAVCHostWnd@@V?$allocator@PAVCHostWnd@@@std@@@std@@QAEXABQAVCHostWnd@@@Z ENDP ; std::vector<CHostWnd *,std::allocator<CHostWnd *> >::push_back
; Function compile flags: /Odt /RTCsu
_TEXT	ENDS
;	COMDAT ?clear@?$vector@PAVCHostWnd@@V?$allocator@PAVCHostWnd@@@std@@@std@@QAEXXZ
_TEXT	SEGMENT
_this$ = -4						; size = 4
?clear@?$vector@PAVCHostWnd@@V?$allocator@PAVCHostWnd@@@std@@@std@@QAEXXZ PROC NEAR ; std::vector<CHostWnd *,std::allocator<CHostWnd *> >::clear, COMDAT
; _this$ = ecx

; 743  : 		{	// erase all

  00000	55		 push	 ebp
  00001	8b ec		 mov	 ebp, esp
  00003	51		 push	 ecx
  00004	c7 45 fc cc cc
	cc cc		 mov	 DWORD PTR [ebp-4], -858993460 ; ccccccccH
  0000b	89 4d fc	 mov	 DWORD PTR _this$[ebp], ecx

; 744  : 		_Tidy();

  0000e	8b 4d fc	 mov	 ecx, DWORD PTR _this$[ebp]
  00011	e8 00 00 00 00	 call	 ?_Tidy@?$vector@PAVCHostWnd@@V?$allocator@PAVCHostWnd@@@std@@@std@@IAEXXZ ; std::vector<CHostWnd *,std::allocator<CHostWnd *> >::_Tidy

; 745  : 		}

  00016	83 c4 04	 add	 esp, 4
  00019	3b ec		 cmp	 ebp, esp
  0001b	e8 00 00 00 00	 call	 __RTC_CheckEsp
  00020	8b e5		 mov	 esp, ebp
  00022	5d		 pop	 ebp
  00023	c3		 ret	 0
?clear@?$vector@PAVCHostWnd@@V?$allocator@PAVCHostWnd@@@std@@@std@@QAEXXZ ENDP ; std::vector<CHostWnd *,std::allocator<CHostWnd *> >::clear
_TEXT	ENDS
PUBLIC	?_Buy@?$vector@PAVILyricPopupWndShowObserver@@V?$allocator@PAVILyricPopupWndShowObserver@@@std@@@std@@IAE_NI@Z ; std::vector<ILyricPopupWndShowObserver *,std::allocator<ILyricPopupWndShowObserver *> >::_Buy
PUBLIC	??0?$_Vector_val@PAVILyricPopupWndShowObserver@@V?$allocator@PAVILyricPopupWndShowObserver@@@std@@@std@@IAE@V?$allocator@PAVILyricPopupWndShowObserver@@@1@@Z ; std::_Vector_val<ILyricPopupWndShowObserver *,std::allocator<ILyricPopupWndShowObserver *> >::_Vector_val<ILyricPopupWndShowObserver *,std::allocator<ILyricPopupWndShowObserver *> >
PUBLIC	??0?$allocator@PAVILyricPopupWndShowObserver@@@std@@QAE@XZ ; std::allocator<ILyricPopupWndShowObserver *>::allocator<ILyricPopupWndShowObserver *>
; Function compile flags: /Odt /RTCsu
;	COMDAT ??0?$vector@PAVILyricPopupWndShowObserver@@V?$allocator@PAVILyricPopupWndShowObserver@@@std@@@std@@QAE@XZ
_TEXT	SEGMENT
_this$ = -4						; size = 4
??0?$vector@PAVILyricPopupWndShowObserver@@V?$allocator@PAVILyricPopupWndShowObserver@@@std@@@std@@QAE@XZ PROC NEAR ; std::vector<ILyricPopupWndShowObserver *,std::allocator<ILyricPopupWndShowObserver *> >::vector<ILyricPopupWndShowObserver *,std::allocator<ILyricPopupWndShowObserver *> >, COMDAT
; _this$ = ecx

; 299  : 		{	// construct empty vector

  00000	55		 push	 ebp
  00001	8b ec		 mov	 ebp, esp
  00003	83 ec 08	 sub	 esp, 8
  00006	c7 45 f8 cc cc
	cc cc		 mov	 DWORD PTR [ebp-8], -858993460 ; ccccccccH
  0000d	c7 45 fc cc cc
	cc cc		 mov	 DWORD PTR [ebp-4], -858993460 ; ccccccccH
  00014	89 4d fc	 mov	 DWORD PTR _this$[ebp], ecx
  00017	51		 push	 ecx
  00018	8b cc		 mov	 ecx, esp
  0001a	e8 00 00 00 00	 call	 ??0?$allocator@PAVILyricPopupWndShowObserver@@@std@@QAE@XZ ; std::allocator<ILyricPopupWndShowObserver *>::allocator<ILyricPopupWndShowObserver *>
  0001f	8b 4d fc	 mov	 ecx, DWORD PTR _this$[ebp]
  00022	e8 00 00 00 00	 call	 ??0?$_Vector_val@PAVILyricPopupWndShowObserver@@V?$allocator@PAVILyricPopupWndShowObserver@@@std@@@std@@IAE@V?$allocator@PAVILyricPopupWndShowObserver@@@1@@Z ; std::_Vector_val<ILyricPopupWndShowObserver *,std::allocator<ILyricPopupWndShowObserver *> >::_Vector_val<ILyricPopupWndShowObserver *,std::allocator<ILyricPopupWndShowObserver *> >

; 300  : 		_Buy(0);

  00027	6a 00		 push	 0
  00029	8b 4d fc	 mov	 ecx, DWORD PTR _this$[ebp]
  0002c	e8 00 00 00 00	 call	 ?_Buy@?$vector@PAVILyricPopupWndShowObserver@@V?$allocator@PAVILyricPopupWndShowObserver@@@std@@@std@@IAE_NI@Z ; std::vector<ILyricPopupWndShowObserver *,std::allocator<ILyricPopupWndShowObserver *> >::_Buy

; 301  : 		}

  00031	8b 45 fc	 mov	 eax, DWORD PTR _this$[ebp]
  00034	83 c4 08	 add	 esp, 8
  00037	3b ec		 cmp	 ebp, esp
  00039	e8 00 00 00 00	 call	 __RTC_CheckEsp
  0003e	8b e5		 mov	 esp, ebp
  00040	5d		 pop	 ebp
  00041	c3		 ret	 0
??0?$vector@PAVILyricPopupWndShowObserver@@V?$allocator@PAVILyricPopupWndShowObserver@@@std@@@std@@QAE@XZ ENDP ; std::vector<ILyricPopupWndShowObserver *,std::allocator<ILyricPopupWndShowObserver *> >::vector<ILyricPopupWndShowObserver *,std::allocator<ILyricPopupWndShowObserver *> >
_TEXT	ENDS
PUBLIC	?_Tidy@?$vector@PAVILyricPopupWndShowObserver@@V?$allocator@PAVILyricPopupWndShowObserver@@@std@@@std@@IAEXXZ ; std::vector<ILyricPopupWndShowObserver *,std::allocator<ILyricPopupWndShowObserver *> >::_Tidy
; Function compile flags: /Odt /RTCsu
;	COMDAT ??1?$vector@PAVILyricPopupWndShowObserver@@V?$allocator@PAVILyricPopupWndShowObserver@@@std@@@std@@QAE@XZ
_TEXT	SEGMENT
_this$ = -4						; size = 4
??1?$vector@PAVILyricPopupWndShowObserver@@V?$allocator@PAVILyricPopupWndShowObserver@@@std@@@std@@QAE@XZ PROC NEAR ; std::vector<ILyricPopupWndShowObserver *,std::allocator<ILyricPopupWndShowObserver *> >::~vector<ILyricPopupWndShowObserver *,std::allocator<ILyricPopupWndShowObserver *> >, COMDAT
; _this$ = ecx

; 387  : 		{	// destroy the object

  00000	55		 push	 ebp
  00001	8b ec		 mov	 ebp, esp
  00003	51		 push	 ecx
  00004	c7 45 fc cc cc
	cc cc		 mov	 DWORD PTR [ebp-4], -858993460 ; ccccccccH
  0000b	89 4d fc	 mov	 DWORD PTR _this$[ebp], ecx

; 388  : 		_Tidy();

  0000e	8b 4d fc	 mov	 ecx, DWORD PTR _this$[ebp]
  00011	e8 00 00 00 00	 call	 ?_Tidy@?$vector@PAVILyricPopupWndShowObserver@@V?$allocator@PAVILyricPopupWndShowObserver@@@std@@@std@@IAEXXZ ; std::vector<ILyricPopupWndShowObserver *,std::allocator<ILyricPopupWndShowObserver *> >::_Tidy

; 389  : 		}

  00016	83 c4 04	 add	 esp, 4
  00019	3b ec		 cmp	 ebp, esp
  0001b	e8 00 00 00 00	 call	 __RTC_CheckEsp
  00020	8b e5		 mov	 esp, ebp
  00022	5d		 pop	 ebp
  00023	c3		 ret	 0
??1?$vector@PAVILyricPopupWndShowObserver@@V?$allocator@PAVILyricPopupWndShowObserver@@@std@@@std@@QAE@XZ ENDP ; std::vector<ILyricPopupWndShowObserver *,std::allocator<ILyricPopupWndShowObserver *> >::~vector<ILyricPopupWndShowObserver *,std::allocator<ILyricPopupWndShowObserver *> >
; Function compile flags: /Odt /RTCsu
_TEXT	ENDS
;	COMDAT ?size@?$vector@USepWindowData@@V?$allocator@USepWindowData@@@std@@@std@@QBEIXZ
_TEXT	SEGMENT
tv70 = -8						; size = 4
_this$ = -4						; size = 4
?size@?$vector@USepWindowData@@V?$allocator@USepWindowData@@@std@@@std@@QBEIXZ PROC NEAR ; std::vector<SepWindowData,std::allocator<SepWindowData> >::size, COMDAT
; _this$ = ecx

; 515  : 		{	// return length of sequence

  00000	55		 push	 ebp
  00001	8b ec		 mov	 ebp, esp
  00003	83 ec 08	 sub	 esp, 8
  00006	c7 45 f8 cc cc
	cc cc		 mov	 DWORD PTR [ebp-8], -858993460 ; ccccccccH
  0000d	c7 45 fc cc cc
	cc cc		 mov	 DWORD PTR [ebp-4], -858993460 ; ccccccccH
  00014	89 4d fc	 mov	 DWORD PTR _this$[ebp], ecx

; 516  : 		return (_Myfirst == 0 ? 0 : _Mylast - _Myfirst);

  00017	8b 45 fc	 mov	 eax, DWORD PTR _this$[ebp]
  0001a	83 78 04 00	 cmp	 DWORD PTR [eax+4], 0
  0001e	75 09		 jne	 SHORT $L192334
  00020	c7 45 f8 00 00
	00 00		 mov	 DWORD PTR tv70[ebp], 0
  00027	eb 17		 jmp	 SHORT $L192335
$L192334:
  00029	8b 4d fc	 mov	 ecx, DWORD PTR _this$[ebp]
  0002c	8b 55 fc	 mov	 edx, DWORD PTR _this$[ebp]
  0002f	8b 41 08	 mov	 eax, DWORD PTR [ecx+8]
  00032	2b 42 04	 sub	 eax, DWORD PTR [edx+4]
  00035	99		 cdq
  00036	b9 30 00 00 00	 mov	 ecx, 48			; 00000030H
  0003b	f7 f9		 idiv	 ecx
  0003d	89 45 f8	 mov	 DWORD PTR tv70[ebp], eax
$L192335:
  00040	8b 45 f8	 mov	 eax, DWORD PTR tv70[ebp]

; 517  : 		}

  00043	8b e5		 mov	 esp, ebp
  00045	5d		 pop	 ebp
  00046	c3		 ret	 0
?size@?$vector@USepWindowData@@V?$allocator@USepWindowData@@@std@@@std@@QBEIXZ ENDP ; std::vector<SepWindowData,std::allocator<SepWindowData> >::size
_TEXT	ENDS
PUBLIC	??Diterator@?$vector@USepWindowData@@V?$allocator@USepWindowData@@@std@@@std@@QBEAAUSepWindowData@@XZ ; std::vector<SepWindowData,std::allocator<SepWindowData> >::iterator::operator*
PUBLIC	??Hiterator@?$vector@USepWindowData@@V?$allocator@USepWindowData@@@std@@@std@@QBE?AV012@H@Z ; std::vector<SepWindowData,std::allocator<SepWindowData> >::iterator::operator+
PUBLIC	?begin@?$vector@USepWindowData@@V?$allocator@USepWindowData@@@std@@@std@@QAE?AViterator@12@XZ ; std::vector<SepWindowData,std::allocator<SepWindowData> >::begin
; Function compile flags: /Odt /RTCsu
;	COMDAT ??A?$vector@USepWindowData@@V?$allocator@USepWindowData@@@std@@@std@@QAEAAUSepWindowData@@I@Z
_TEXT	SEGMENT
$T192338 = -12						; size = 4
$T192337 = -8						; size = 4
_this$ = -4						; size = 4
__Pos$ = 8						; size = 4
??A?$vector@USepWindowData@@V?$allocator@USepWindowData@@@std@@@std@@QAEAAUSepWindowData@@I@Z PROC NEAR ; std::vector<SepWindowData,std::allocator<SepWindowData> >::operator[], COMDAT
; _this$ = ecx

; 554  : 		{	// subscript mutable sequence

  00000	55		 push	 ebp
  00001	8b ec		 mov	 ebp, esp
  00003	83 ec 0c	 sub	 esp, 12			; 0000000cH
  00006	c7 45 f4 cc cc
	cc cc		 mov	 DWORD PTR [ebp-12], -858993460 ; ccccccccH
  0000d	c7 45 f8 cc cc
	cc cc		 mov	 DWORD PTR [ebp-8], -858993460 ; ccccccccH
  00014	c7 45 fc cc cc
	cc cc		 mov	 DWORD PTR [ebp-4], -858993460 ; ccccccccH
  0001b	89 4d fc	 mov	 DWORD PTR _this$[ebp], ecx

; 555  : 		return (*(begin() + _Pos));

  0001e	8b 45 08	 mov	 eax, DWORD PTR __Pos$[ebp]
  00021	50		 push	 eax
  00022	8d 4d f4	 lea	 ecx, DWORD PTR $T192338[ebp]
  00025	51		 push	 ecx
  00026	8d 55 f8	 lea	 edx, DWORD PTR $T192337[ebp]
  00029	52		 push	 edx
  0002a	8b 4d fc	 mov	 ecx, DWORD PTR _this$[ebp]
  0002d	e8 00 00 00 00	 call	 ?begin@?$vector@USepWindowData@@V?$allocator@USepWindowData@@@std@@@std@@QAE?AViterator@12@XZ ; std::vector<SepWindowData,std::allocator<SepWindowData> >::begin
  00032	8b c8		 mov	 ecx, eax
  00034	e8 00 00 00 00	 call	 ??Hiterator@?$vector@USepWindowData@@V?$allocator@USepWindowData@@@std@@@std@@QBE?AV012@H@Z ; std::vector<SepWindowData,std::allocator<SepWindowData> >::iterator::operator+
  00039	8b c8		 mov	 ecx, eax
  0003b	e8 00 00 00 00	 call	 ??Diterator@?$vector@USepWindowData@@V?$allocator@USepWindowData@@@std@@@std@@QBEAAUSepWindowData@@XZ ; std::vector<SepWindowData,std::allocator<SepWindowData> >::iterator::operator*

; 556  : 		}

  00040	83 c4 0c	 add	 esp, 12			; 0000000cH
  00043	3b ec		 cmp	 ebp, esp
  00045	e8 00 00 00 00	 call	 __RTC_CheckEsp
  0004a	8b e5		 mov	 esp, ebp
  0004c	5d		 pop	 ebp
  0004d	c2 04 00	 ret	 4
??A?$vector@USepWindowData@@V?$allocator@USepWindowData@@@std@@@std@@QAEAAUSepWindowData@@I@Z ENDP ; std::vector<SepWindowData,std::allocator<SepWindowData> >::operator[]
; Function compile flags: /Odt /RTCsu
; File d:\program files (x86)\microsoft visual studio .net 2003\vc7\include\xtree
_TEXT	ENDS
;	COMDAT ??Citerator@?$_Tree@V?$_Tmap_traits@PAUHWND__@@UCWndData@@U?$less@PAUHWND__@@@std@@V?$allocator@U?$pair@QAUHWND__@@UCWndData@@@std@@@4@$0A@@std@@@std@@QBEPAU?$pair@QAUHWND__@@UCWndData@@@2@XZ
_TEXT	SEGMENT
_this$ = -4						; size = 4
??Citerator@?$_Tree@V?$_Tmap_traits@PAUHWND__@@UCWndData@@U?$less@PAUHWND__@@@std@@V?$allocator@U?$pair@QAUHWND__@@UCWndData@@@std@@@4@$0A@@std@@@std@@QBEPAU?$pair@QAUHWND__@@UCWndData@@@2@XZ PROC NEAR ; std::_Tree<std::_Tmap_traits<HWND__ *,CWndData,std::less<HWND__ *>,std::allocator<std::pair<HWND__ * const,CWndData> >,0> >::iterator::operator->, COMDAT
; _this$ = ecx

; 321  : 			{	// return pointer to class object

  00000	55		 push	 ebp
  00001	8b ec		 mov	 ebp, esp
  00003	51		 push	 ecx
  00004	c7 45 fc cc cc
	cc cc		 mov	 DWORD PTR [ebp-4], -858993460 ; ccccccccH
  0000b	89 4d fc	 mov	 DWORD PTR _this$[ebp], ecx

; 322  : 			return (&**this);

  0000e	8b 4d fc	 mov	 ecx, DWORD PTR _this$[ebp]
  00011	e8 00 00 00 00	 call	 ??Diterator@?$_Tree@V?$_Tmap_traits@PAUHWND__@@UCWndData@@U?$less@PAUHWND__@@@std@@V?$allocator@U?$pair@QAUHWND__@@UCWndData@@@std@@@4@$0A@@std@@@std@@QBEAAU?$pair@QAUHWND__@@UCWndData@@@2@XZ ; std::_Tree<std::_Tmap_traits<HWND__ *,CWndData,std::less<HWND__ *>,std::allocator<std::pair<HWND__ * const,CWndData> >,0> >::iterator::operator*

; 323  : 			}

  00016	83 c4 04	 add	 esp, 4
  00019	3b ec		 cmp	 ebp, esp
  0001b	e8 00 00 00 00	 call	 __RTC_CheckEsp
  00020	8b e5		 mov	 esp, ebp
  00022	5d		 pop	 ebp
  00023	c3		 ret	 0
??Citerator@?$_Tree@V?$_Tmap_traits@PAUHWND__@@UCWndData@@U?$less@PAUHWND__@@@std@@V?$allocator@U?$pair@QAUHWND__@@UCWndData@@@std@@@4@$0A@@std@@@std@@QBEPAU?$pair@QAUHWND__@@UCWndData@@@2@XZ ENDP ; std::_Tree<std::_Tmap_traits<HWND__ *,CWndData,std::less<HWND__ *>,std::allocator<std::pair<HWND__ * const,CWndData> >,0> >::iterator::operator->
_TEXT	ENDS
PUBLIC	??Eiterator@?$_Tree@V?$_Tmap_traits@PAUHWND__@@UCWndData@@U?$less@PAUHWND__@@@std@@V?$allocator@U?$pair@QAUHWND__@@UCWndData@@@std@@@4@$0A@@std@@@std@@QAEAAV012@XZ ; std::_Tree<std::_Tmap_traits<HWND__ *,CWndData,std::less<HWND__ *>,std::allocator<std::pair<HWND__ * const,CWndData> >,0> >::iterator::operator++
; Function compile flags: /Odt /RTCsu
;	COMDAT ??Eiterator@?$_Tree@V?$_Tmap_traits@PAUHWND__@@UCWndData@@U?$less@PAUHWND__@@@std@@V?$allocator@U?$pair@QAUHWND__@@UCWndData@@@std@@@4@$0A@@std@@@std@@QAE?AV012@H@Z
_TEXT	SEGMENT
__Tmp$ = -12						; size = 4
_this$ = -4						; size = 4
___$ReturnUdt$ = 8					; size = 4
___formal$ = 12						; size = 4
??Eiterator@?$_Tree@V?$_Tmap_traits@PAUHWND__@@UCWndData@@U?$less@PAUHWND__@@@std@@V?$allocator@U?$pair@QAUHWND__@@UCWndData@@@std@@@4@$0A@@std@@@std@@QAE?AV012@H@Z PROC NEAR ; std::_Tree<std::_Tmap_traits<HWND__ *,CWndData,std::less<HWND__ *>,std::allocator<std::pair<HWND__ * const,CWndData> >,0> >::iterator::operator++, COMDAT
; _this$ = ecx

; 332  : 			{	// postincrement

  00000	55		 push	 ebp
  00001	8b ec		 mov	 ebp, esp
  00003	83 ec 10	 sub	 esp, 16			; 00000010H
  00006	b8 cc cc cc cc	 mov	 eax, -858993460		; ccccccccH
  0000b	89 45 f0	 mov	 DWORD PTR [ebp-16], eax
  0000e	89 45 f4	 mov	 DWORD PTR [ebp-12], eax
  00011	89 45 f8	 mov	 DWORD PTR [ebp-8], eax
  00014	89 45 fc	 mov	 DWORD PTR [ebp-4], eax
  00017	89 4d fc	 mov	 DWORD PTR _this$[ebp], ecx

; 333  : 			iterator _Tmp = *this;

  0001a	8b 45 fc	 mov	 eax, DWORD PTR _this$[ebp]
  0001d	8b 08		 mov	 ecx, DWORD PTR [eax]
  0001f	89 4d f4	 mov	 DWORD PTR __Tmp$[ebp], ecx

; 334  : 			++*this;

  00022	8b 4d fc	 mov	 ecx, DWORD PTR _this$[ebp]
  00025	e8 00 00 00 00	 call	 ??Eiterator@?$_Tree@V?$_Tmap_traits@PAUHWND__@@UCWndData@@U?$less@PAUHWND__@@@std@@V?$allocator@U?$pair@QAUHWND__@@UCWndData@@@std@@@4@$0A@@std@@@std@@QAEAAV012@XZ ; std::_Tree<std::_Tmap_traits<HWND__ *,CWndData,std::less<HWND__ *>,std::allocator<std::pair<HWND__ * const,CWndData> >,0> >::iterator::operator++

; 335  : 			return (_Tmp);

  0002a	8b 55 08	 mov	 edx, DWORD PTR ___$ReturnUdt$[ebp]
  0002d	8b 45 f4	 mov	 eax, DWORD PTR __Tmp$[ebp]
  00030	89 02		 mov	 DWORD PTR [edx], eax
  00032	8b 45 08	 mov	 eax, DWORD PTR ___$ReturnUdt$[ebp]

; 336  : 			}

  00035	52		 push	 edx
  00036	8b cd		 mov	 ecx, ebp
  00038	50		 push	 eax
  00039	8d 15 00 00 00
	00		 lea	 edx, DWORD PTR $L192343
  0003f	e8 00 00 00 00	 call	 @_RTC_CheckStackVars@8
  00044	58		 pop	 eax
  00045	5a		 pop	 edx
  00046	83 c4 10	 add	 esp, 16			; 00000010H
  00049	3b ec		 cmp	 ebp, esp
  0004b	e8 00 00 00 00	 call	 __RTC_CheckEsp
  00050	8b e5		 mov	 esp, ebp
  00052	5d		 pop	 ebp
  00053	c2 08 00	 ret	 8
$L192343:
  00056	01 00 00 00	 DD	 1
  0005a	00 00 00 00	 DD	 $L192342
$L192342:
  0005e	f4 ff ff ff	 DD	 -12			; fffffff4H
  00062	04 00 00 00	 DD	 4
  00066	00 00 00 00	 DD	 $L192341
$L192341:
  0006a	5f		 DB	 95			; 0000005fH
  0006b	54		 DB	 84			; 00000054H
  0006c	6d		 DB	 109			; 0000006dH
  0006d	70		 DB	 112			; 00000070H
  0006e	00		 DB	 0
??Eiterator@?$_Tree@V?$_Tmap_traits@PAUHWND__@@UCWndData@@U?$less@PAUHWND__@@@std@@V?$allocator@U?$pair@QAUHWND__@@UCWndData@@@std@@@4@$0A@@std@@@std@@QAE?AV012@H@Z ENDP ; std::_Tree<std::_Tmap_traits<HWND__ *,CWndData,std::less<HWND__ *>,std::allocator<std::pair<HWND__ * const,CWndData> >,0> >::iterator::operator++
; Function compile flags: /Odt /RTCsu
_TEXT	ENDS
;	COMDAT ??9const_iterator@?$_Tree@V?$_Tmap_traits@PAUHWND__@@UCWndData@@U?$less@PAUHWND__@@@std@@V?$allocator@U?$pair@QAUHWND__@@UCWndData@@@std@@@4@$0A@@std@@@std@@QBE_NABV012@@Z
_TEXT	SEGMENT
_this$ = -4						; size = 4
__Right$ = 8						; size = 4
??9const_iterator@?$_Tree@V?$_Tmap_traits@PAUHWND__@@UCWndData@@U?$less@PAUHWND__@@@std@@V?$allocator@U?$pair@QAUHWND__@@UCWndData@@@std@@@4@$0A@@std@@@std@@QBE_NABV012@@Z PROC NEAR ; std::_Tree<std::_Tmap_traits<HWND__ *,CWndData,std::less<HWND__ *>,std::allocator<std::pair<HWND__ * const,CWndData> >,0> >::const_iterator::operator!=, COMDAT
; _this$ = ecx

; 245  : 			{	// test for iterator inequality

  00000	55		 push	 ebp
  00001	8b ec		 mov	 ebp, esp
  00003	51		 push	 ecx
  00004	c7 45 fc cc cc
	cc cc		 mov	 DWORD PTR [ebp-4], -858993460 ; ccccccccH
  0000b	89 4d fc	 mov	 DWORD PTR _this$[ebp], ecx

; 246  : 			return (!(*this == _Right));

  0000e	8b 45 08	 mov	 eax, DWORD PTR __Right$[ebp]
  00011	50		 push	 eax
  00012	8b 4d fc	 mov	 ecx, DWORD PTR _this$[ebp]
  00015	e8 00 00 00 00	 call	 ??8const_iterator@?$_Tree@V?$_Tmap_traits@PAUHWND__@@UCWndData@@U?$less@PAUHWND__@@@std@@V?$allocator@U?$pair@QAUHWND__@@UCWndData@@@std@@@4@$0A@@std@@@std@@QBE_NABV012@@Z ; std::_Tree<std::_Tmap_traits<HWND__ *,CWndData,std::less<HWND__ *>,std::allocator<std::pair<HWND__ * const,CWndData> >,0> >::const_iterator::operator==
  0001a	0f b6 c0	 movzx	 eax, al
  0001d	f7 d8		 neg	 eax
  0001f	1b c0		 sbb	 eax, eax
  00021	40		 inc	 eax

; 247  : 			}

  00022	83 c4 04	 add	 esp, 4
  00025	3b ec		 cmp	 ebp, esp
  00027	e8 00 00 00 00	 call	 __RTC_CheckEsp
  0002c	8b e5		 mov	 esp, ebp
  0002e	5d		 pop	 ebp
  0002f	c2 04 00	 ret	 4
??9const_iterator@?$_Tree@V?$_Tmap_traits@PAUHWND__@@UCWndData@@U?$less@PAUHWND__@@@std@@V?$allocator@U?$pair@QAUHWND__@@UCWndData@@@std@@@4@$0A@@std@@@std@@QBE_NABV012@@Z ENDP ; std::_Tree<std::_Tmap_traits<HWND__ *,CWndData,std::less<HWND__ *>,std::allocator<std::pair<HWND__ * const,CWndData> >,0> >::const_iterator::operator!=
_TEXT	ENDS
PUBLIC	?_Kfn@?$_Tmap_traits@PAUHWND__@@UCWndData@@U?$less@PAUHWND__@@@std@@V?$allocator@U?$pair@QAUHWND__@@UCWndData@@@std@@@4@$0A@@std@@SAABQAUHWND__@@ABU?$pair@QAUHWND__@@UCWndData@@@2@@Z ; std::_Tmap_traits<HWND__ *,CWndData,std::less<HWND__ *>,std::allocator<std::pair<HWND__ * const,CWndData> >,0>::_Kfn
PUBLIC	?_Myval@?$_Tree@V?$_Tmap_traits@PAUHWND__@@UCWndData@@U?$less@PAUHWND__@@@std@@V?$allocator@U?$pair@QAUHWND__@@UCWndData@@@std@@@4@$0A@@std@@@std@@KAAAU?$pair@QAUHWND__@@UCWndData@@@2@PAU_Node@?$_Tree_nod@V?$_Tmap_traits@PAUHWND__@@UCWndData@@U?$less@PAUHWND__@@@std@@V?$allocator@U?$pair@QAUHWND__@@UCWndData@@@std@@@4@$0A@@std@@@2@@Z ; std::_Tree<std::_Tmap_traits<HWND__ *,CWndData,std::less<HWND__ *>,std::allocator<std::pair<HWND__ * const,CWndData> >,0> >::_Myval
; Function compile flags: /Odt /RTCsu
;	COMDAT ?_Key@?$_Tree@V?$_Tmap_traits@PAUHWND__@@UCWndData@@U?$less@PAUHWND__@@@std@@V?$allocator@U?$pair@QAUHWND__@@UCWndData@@@std@@@4@$0A@@std@@@std@@KAABQAUHWND__@@PAU_Node@?$_Tree_nod@V?$_Tmap_traits@PAUHWND__@@UCWndData@@U?$less@PAUHWND__@@@std@@V?$allocator@U?$pair@QAUHWND__@@UCWndData@@@std@@@4@$0A@@std@@@2@@Z
_TEXT	SEGMENT
__Pnode$ = 8						; size = 4
?_Key@?$_Tree@V?$_Tmap_traits@PAUHWND__@@UCWndData@@U?$less@PAUHWND__@@@std@@V?$allocator@U?$pair@QAUHWND__@@UCWndData@@@std@@@4@$0A@@std@@@std@@KAABQAUHWND__@@PAU_Node@?$_Tree_nod@V?$_Tmap_traits@PAUHWND__@@UCWndData@@U?$less@PAUHWND__@@@std@@V?$allocator@U?$pair@QAUHWND__@@UCWndData@@@std@@@4@$0A@@std@@@2@@Z PROC NEAR ; std::_Tree<std::_Tmap_traits<HWND__ *,CWndData,std::less<HWND__ *>,std::allocator<std::pair<HWND__ * const,CWndData> >,0> >::_Key, COMDAT

; 141  : 		{	// return reference to key in node

  00000	55		 push	 ebp
  00001	8b ec		 mov	 ebp, esp

; 142  : 		return (_Mybase::_Kfn(_Myval(_Pnode)));

  00003	8b 45 08	 mov	 eax, DWORD PTR __Pnode$[ebp]
  00006	50		 push	 eax
  00007	e8 00 00 00 00	 call	 ?_Myval@?$_Tree@V?$_Tmap_traits@PAUHWND__@@UCWndData@@U?$less@PAUHWND__@@@std@@V?$allocator@U?$pair@QAUHWND__@@UCWndData@@@std@@@4@$0A@@std@@@std@@KAAAU?$pair@QAUHWND__@@UCWndData@@@2@PAU_Node@?$_Tree_nod@V?$_Tmap_traits@PAUHWND__@@UCWndData@@U?$less@PAUHWND__@@@std@@V?$allocator@U?$pair@QAUHWND__@@UCWndData@@@std@@@4@$0A@@std@@@2@@Z ; std::_Tree<std::_Tmap_traits<HWND__ *,CWndData,std::less<HWND__ *>,std::allocator<std::pair<HWND__ * const,CWndData> >,0> >::_Myval
  0000c	83 c4 04	 add	 esp, 4
  0000f	50		 push	 eax
  00010	e8 00 00 00 00	 call	 ?_Kfn@?$_Tmap_traits@PAUHWND__@@UCWndData@@U?$less@PAUHWND__@@@std@@V?$allocator@U?$pair@QAUHWND__@@UCWndData@@@std@@@4@$0A@@std@@SAABQAUHWND__@@ABU?$pair@QAUHWND__@@UCWndData@@@2@@Z ; std::_Tmap_traits<HWND__ *,CWndData,std::less<HWND__ *>,std::allocator<std::pair<HWND__ * const,CWndData> >,0>::_Kfn
  00015	83 c4 04	 add	 esp, 4

; 143  : 		}

  00018	3b ec		 cmp	 ebp, esp
  0001a	e8 00 00 00 00	 call	 __RTC_CheckEsp
  0001f	5d		 pop	 ebp
  00020	c3		 ret	 0
?_Key@?$_Tree@V?$_Tmap_traits@PAUHWND__@@UCWndData@@U?$less@PAUHWND__@@@std@@V?$allocator@U?$pair@QAUHWND__@@UCWndData@@@std@@@4@$0A@@std@@@std@@KAABQAUHWND__@@PAU_Node@?$_Tree_nod@V?$_Tmap_traits@PAUHWND__@@UCWndData@@U?$less@PAUHWND__@@@std@@V?$allocator@U?$pair@QAUHWND__@@UCWndData@@@std@@@4@$0A@@std@@@2@@Z ENDP ; std::_Tree<std::_Tmap_traits<HWND__ *,CWndData,std::less<HWND__ *>,std::allocator<std::pair<HWND__ * const,CWndData> >,0> >::_Key
_TEXT	ENDS
PUBLIC	??0?$allocator@U?$pair@QAUHWND__@@UCWndData@@@std@@@std@@QAE@ABV01@@Z ; std::allocator<std::pair<HWND__ * const,CWndData> >::allocator<std::pair<HWND__ * const,CWndData> >
PUBLIC	??0?$_Tree_val@V?$_Tmap_traits@PAUHWND__@@UCWndData@@U?$less@PAUHWND__@@@std@@V?$allocator@U?$pair@QAUHWND__@@UCWndData@@@std@@@4@$0A@@std@@@std@@IAE@ABU?$less@PAUHWND__@@@1@V?$allocator@U?$pair@QAUHWND__@@UCWndData@@@std@@@1@@Z ; std::_Tree_val<std::_Tmap_traits<HWND__ *,CWndData,std::less<HWND__ *>,std::allocator<std::pair<HWND__ * const,CWndData> >,0> >::_Tree_val<std::_Tmap_traits<HWND__ *,CWndData,std::less<HWND__ *>,std::allocator<std::pair<HWND__ * const,CWndData> >,0> >
PUBLIC	?_Init@?$_Tree@V?$_Tmap_traits@PAUHWND__@@UCWndData@@U?$less@PAUHWND__@@@std@@V?$allocator@U?$pair@QAUHWND__@@UCWndData@@@std@@@4@$0A@@std@@@std@@IAEXXZ ; std::_Tree<std::_Tmap_traits<HWND__ *,CWndData,std::less<HWND__ *>,std::allocator<std::pair<HWND__ * const,CWndData> >,0> >::_Init
; Function compile flags: /Odt /RTCsu
;	COMDAT ??0?$_Tree@V?$_Tmap_traits@PAUHWND__@@UCWndData@@U?$less@PAUHWND__@@@std@@V?$allocator@U?$pair@QAUHWND__@@UCWndData@@@std@@@4@$0A@@std@@@std@@QAE@ABU?$less@PAUHWND__@@@1@ABV?$allocator@U?$pair@QAUHWND__@@UCWndData@@@std@@@1@@Z
_TEXT	SEGMENT
_this$ = -4						; size = 4
__Parg$ = 8						; size = 4
__Al$ = 12						; size = 4
??0?$_Tree@V?$_Tmap_traits@PAUHWND__@@UCWndData@@U?$less@PAUHWND__@@@std@@V?$allocator@U?$pair@QAUHWND__@@UCWndData@@@std@@@4@$0A@@std@@@std@@QAE@ABU?$less@PAUHWND__@@@1@ABV?$allocator@U?$pair@QAUHWND__@@UCWndData@@@std@@@1@@Z PROC NEAR ; std::_Tree<std::_Tmap_traits<HWND__ *,CWndData,std::less<HWND__ *>,std::allocator<std::pair<HWND__ * const,CWndData> >,0> >::_Tree<std::_Tmap_traits<HWND__ *,CWndData,std::less<HWND__ *>,std::allocator<std::pair<HWND__ * const,CWndData> >,0> >, COMDAT
; _this$ = ecx

; 361  : 		{	// construct empty tree

  00000	55		 push	 ebp
  00001	8b ec		 mov	 ebp, esp
  00003	83 ec 08	 sub	 esp, 8
  00006	c7 45 f8 cc cc
	cc cc		 mov	 DWORD PTR [ebp-8], -858993460 ; ccccccccH
  0000d	c7 45 fc cc cc
	cc cc		 mov	 DWORD PTR [ebp-4], -858993460 ; ccccccccH
  00014	89 4d fc	 mov	 DWORD PTR _this$[ebp], ecx
  00017	51		 push	 ecx
  00018	8b cc		 mov	 ecx, esp
  0001a	8b 45 0c	 mov	 eax, DWORD PTR __Al$[ebp]
  0001d	50		 push	 eax
  0001e	e8 00 00 00 00	 call	 ??0?$allocator@U?$pair@QAUHWND__@@UCWndData@@@std@@@std@@QAE@ABV01@@Z ; std::allocator<std::pair<HWND__ * const,CWndData> >::allocator<std::pair<HWND__ * const,CWndData> >
  00023	8b 4d 08	 mov	 ecx, DWORD PTR __Parg$[ebp]
  00026	51		 push	 ecx
  00027	8b 4d fc	 mov	 ecx, DWORD PTR _this$[ebp]
  0002a	e8 00 00 00 00	 call	 ??0?$_Tree_val@V?$_Tmap_traits@PAUHWND__@@UCWndData@@U?$less@PAUHWND__@@@std@@V?$allocator@U?$pair@QAUHWND__@@UCWndData@@@std@@@4@$0A@@std@@@std@@IAE@ABU?$less@PAUHWND__@@@1@V?$allocator@U?$pair@QAUHWND__@@UCWndData@@@std@@@1@@Z ; std::_Tree_val<std::_Tmap_traits<HWND__ *,CWndData,std::less<HWND__ *>,std::allocator<std::pair<HWND__ * const,CWndData> >,0> >::_Tree_val<std::_Tmap_traits<HWND__ *,CWndData,std::less<HWND__ *>,std::allocator<std::pair<HWND__ * const,CWndData> >,0> >

; 362  : 		_Init();

  0002f	8b 4d fc	 mov	 ecx, DWORD PTR _this$[ebp]
  00032	e8 00 00 00 00	 call	 ?_Init@?$_Tree@V?$_Tmap_traits@PAUHWND__@@UCWndData@@U?$less@PAUHWND__@@@std@@V?$allocator@U?$pair@QAUHWND__@@UCWndData@@@std@@@4@$0A@@std@@@std@@IAEXXZ ; std::_Tree<std::_Tmap_traits<HWND__ *,CWndData,std::less<HWND__ *>,std::allocator<std::pair<HWND__ * const,CWndData> >,0> >::_Init

; 363  : 		}

  00037	8b 45 fc	 mov	 eax, DWORD PTR _this$[ebp]
  0003a	83 c4 08	 add	 esp, 8
  0003d	3b ec		 cmp	 ebp, esp
  0003f	e8 00 00 00 00	 call	 __RTC_CheckEsp
  00044	8b e5		 mov	 esp, ebp
  00046	5d		 pop	 ebp
  00047	c2 08 00	 ret	 8
??0?$_Tree@V?$_Tmap_traits@PAUHWND__@@UCWndData@@U?$less@PAUHWND__@@@std@@V?$allocator@U?$pair@QAUHWND__@@UCWndData@@@std@@@4@$0A@@std@@@std@@QAE@ABU?$less@PAUHWND__@@@1@ABV?$allocator@U?$pair@QAUHWND__@@UCWndData@@@std@@@1@@Z ENDP ; std::_Tree<std::_Tmap_traits<HWND__ *,CWndData,std::less<HWND__ *>,std::allocator<std::pair<HWND__ * const,CWndData> >,0> >::_Tree<std::_Tmap_traits<HWND__ *,CWndData,std::less<HWND__ *>,std::allocator<std::pair<HWND__ * const,CWndData> >,0> >
_TEXT	ENDS
PUBLIC	??0iterator@?$_Tree@V?$_Tmap_traits@PAUHWND__@@UCWndData@@U?$less@PAUHWND__@@@std@@V?$allocator@U?$pair@QAUHWND__@@UCWndData@@@std@@@4@$0A@@std@@@std@@QAE@XZ ; std::_Tree<std::_Tmap_traits<HWND__ *,CWndData,std::less<HWND__ *>,std::allocator<std::pair<HWND__ * const,CWndData> >,0> >::iterator::iterator
PUBLIC	??Fiterator@?$_Tree@V?$_Tmap_traits@PAUHWND__@@UCWndData@@U?$less@PAUHWND__@@@std@@V?$allocator@U?$pair@QAUHWND__@@UCWndData@@@std@@@4@$0A@@std@@@std@@QAEAAV012@XZ ; std::_Tree<std::_Tmap_traits<HWND__ *,CWndData,std::less<HWND__ *>,std::allocator<std::pair<HWND__ * const,CWndData> >,0> >::iterator::operator--
PUBLIC	?_Isnil@?$_Tree@V?$_Tmap_traits@PAUHWND__@@UCWndData@@U?$less@PAUHWND__@@@std@@V?$allocator@U?$pair@QAUHWND__@@UCWndData@@@std@@@4@$0A@@std@@@std@@KAAADPAU_Node@?$_Tree_nod@V?$_Tmap_traits@PAUHWND__@@UCWndData@@U?$less@PAUHWND__@@@std@@V?$allocator@U?$pair@QAUHWND__@@UCWndData@@@std@@@4@$0A@@std@@@2@@Z ; std::_Tree<std::_Tmap_traits<HWND__ *,CWndData,std::less<HWND__ *>,std::allocator<std::pair<HWND__ * const,CWndData> >,0> >::_Isnil
PUBLIC	?_Right@?$_Tree@V?$_Tmap_traits@PAUHWND__@@UCWndData@@U?$less@PAUHWND__@@@std@@V?$allocator@U?$pair@QAUHWND__@@UCWndData@@@std@@@4@$0A@@std@@@std@@KAAAPAU_Node@?$_Tree_nod@V?$_Tmap_traits@PAUHWND__@@UCWndData@@U?$less@PAUHWND__@@@std@@V?$allocator@U?$pair@QAUHWND__@@UCWndData@@@std@@@4@$0A@@std@@@2@PAU342@@Z ; std::_Tree<std::_Tmap_traits<HWND__ *,CWndData,std::less<HWND__ *>,std::allocator<std::pair<HWND__ * const,CWndData> >,0> >::_Right
PUBLIC	?size@?$_Tree@V?$_Tmap_traits@PAUHWND__@@UCWndData@@U?$less@PAUHWND__@@@std@@V?$allocator@U?$pair@QAUHWND__@@UCWndData@@@std@@@4@$0A@@std@@@std@@QBEIXZ ; std::_Tree<std::_Tmap_traits<HWND__ *,CWndData,std::less<HWND__ *>,std::allocator<std::pair<HWND__ * const,CWndData> >,0> >::size
PUBLIC	?insert@?$_Tree@V?$_Tmap_traits@PAUHWND__@@UCWndData@@U?$less@PAUHWND__@@@std@@V?$allocator@U?$pair@QAUHWND__@@UCWndData@@@std@@@4@$0A@@std@@@std@@QAE?AU?$pair@Viterator@?$_Tree@V?$_Tmap_traits@PAUHWND__@@UCWndData@@U?$less@PAUHWND__@@@std@@V?$allocator@U?$pair@QAUHWND__@@UCWndData@@@std@@@4@$0A@@std@@@std@@_N@2@ABU?$pair@QAUHWND__@@UCWndData@@@2@@Z ; std::_Tree<std::_Tmap_traits<HWND__ *,CWndData,std::less<HWND__ *>,std::allocator<std::pair<HWND__ * const,CWndData> >,0> >::insert
PUBLIC	?_Insert@?$_Tree@V?$_Tmap_traits@PAUHWND__@@UCWndData@@U?$less@PAUHWND__@@@std@@V?$allocator@U?$pair@QAUHWND__@@UCWndData@@@std@@@4@$0A@@std@@@std@@IAE?AViterator@12@_NPAU_Node@?$_Tree_nod@V?$_Tmap_traits@PAUHWND__@@UCWndData@@U?$less@PAUHWND__@@@std@@V?$allocator@U?$pair@QAUHWND__@@UCWndData@@@std@@@4@$0A@@std@@@2@ABU?$pair@QAUHWND__@@UCWndData@@@2@@Z ; std::_Tree<std::_Tmap_traits<HWND__ *,CWndData,std::less<HWND__ *>,std::allocator<std::pair<HWND__ * const,CWndData> >,0> >::_Insert
PUBLIC	?_Rmost@?$_Tree@V?$_Tmap_traits@PAUHWND__@@UCWndData@@U?$less@PAUHWND__@@@std@@V?$allocator@U?$pair@QAUHWND__@@UCWndData@@@std@@@4@$0A@@std@@@std@@IAEAAPAU_Node@?$_Tree_nod@V?$_Tmap_traits@PAUHWND__@@UCWndData@@U?$less@PAUHWND__@@@std@@V?$allocator@U?$pair@QAUHWND__@@UCWndData@@@std@@@4@$0A@@std@@@2@XZ ; std::_Tree<std::_Tmap_traits<HWND__ *,CWndData,std::less<HWND__ *>,std::allocator<std::pair<HWND__ * const,CWndData> >,0> >::_Rmost
; Function compile flags: /Odt /RTCsu
;	COMDAT ?insert@?$_Tree@V?$_Tmap_traits@PAUHWND__@@UCWndData@@U?$less@PAUHWND__@@@std@@V?$allocator@U?$pair@QAUHWND__@@UCWndData@@@std@@@4@$0A@@std@@@std@@QAE?AViterator@12@V312@ABU?$pair@QAUHWND__@@UCWndData@@@2@@Z
_TEXT	SEGMENT
$T192355 = -48						; size = 8
$T192354 = -40						; size = 4
$T192353 = -36						; size = 4
$T192352 = -32						; size = 4
$T192351 = -28						; size = 4
$T192350 = -24						; size = 4
$T192349 = -20						; size = 4
__Next$ = -12						; size = 4
_this$ = -4						; size = 4
___$ReturnUdt$ = 8					; size = 4
__Where$ = 12						; size = 4
__Val$ = 16						; size = 4
?insert@?$_Tree@V?$_Tmap_traits@PAUHWND__@@UCWndData@@U?$less@PAUHWND__@@@std@@V?$allocator@U?$pair@QAUHWND__@@UCWndData@@@std@@@4@$0A@@std@@@std@@QAE?AViterator@12@V312@ABU?$pair@QAUHWND__@@UCWndData@@@2@@Z PROC NEAR ; std::_Tree<std::_Tmap_traits<HWND__ *,CWndData,std::less<HWND__ *>,std::allocator<std::pair<HWND__ * const,CWndData> >,0> >::insert, COMDAT
; _this$ = ecx

; 509  : 		{	// try to insert node with value _Val using _Where as a hint

  00000	55		 push	 ebp
  00001	8b ec		 mov	 ebp, esp
  00003	83 ec 30	 sub	 esp, 48			; 00000030H
  00006	57		 push	 edi
  00007	51		 push	 ecx
  00008	8d 7d d0	 lea	 edi, DWORD PTR [ebp-48]
  0000b	b9 0c 00 00 00	 mov	 ecx, 12			; 0000000cH
  00010	b8 cc cc cc cc	 mov	 eax, -858993460		; ccccccccH
  00015	f3 ab		 rep stosd
  00017	59		 pop	 ecx
  00018	89 4d fc	 mov	 DWORD PTR _this$[ebp], ecx

; 510  : 		iterator _Next;

  0001b	8d 4d f4	 lea	 ecx, DWORD PTR __Next$[ebp]
  0001e	e8 00 00 00 00	 call	 ??0iterator@?$_Tree@V?$_Tmap_traits@PAUHWND__@@UCWndData@@U?$less@PAUHWND__@@@std@@V?$allocator@U?$pair@QAUHWND__@@UCWndData@@@std@@@4@$0A@@std@@@std@@QAE@XZ ; std::_Tree<std::_Tmap_traits<HWND__ *,CWndData,std::less<HWND__ *>,std::allocator<std::pair<HWND__ * const,CWndData> >,0> >::iterator::iterator

; 511  : 
; 512  : 		if (size() == 0)

  00023	8b 4d fc	 mov	 ecx, DWORD PTR _this$[ebp]
  00026	e8 00 00 00 00	 call	 ?size@?$_Tree@V?$_Tmap_traits@PAUHWND__@@UCWndData@@U?$less@PAUHWND__@@@std@@V?$allocator@U?$pair@QAUHWND__@@UCWndData@@@std@@@4@$0A@@std@@@std@@QBEIXZ ; std::_Tree<std::_Tmap_traits<HWND__ *,CWndData,std::less<HWND__ *>,std::allocator<std::pair<HWND__ * const,CWndData> >,0> >::size
  0002b	85 c0		 test	 eax, eax
  0002d	75 21		 jne	 SHORT $L190252

; 513  : 			return (_Insert(true, _Myhead, _Val));	// insert into empty tree

  0002f	8b 45 10	 mov	 eax, DWORD PTR __Val$[ebp]
  00032	50		 push	 eax
  00033	8b 4d fc	 mov	 ecx, DWORD PTR _this$[ebp]
  00036	8b 51 04	 mov	 edx, DWORD PTR [ecx+4]
  00039	52		 push	 edx
  0003a	6a 01		 push	 1
  0003c	8b 45 08	 mov	 eax, DWORD PTR ___$ReturnUdt$[ebp]
  0003f	50		 push	 eax
  00040	8b 4d fc	 mov	 ecx, DWORD PTR _this$[ebp]
  00043	e8 00 00 00 00	 call	 ?_Insert@?$_Tree@V?$_Tmap_traits@PAUHWND__@@UCWndData@@U?$less@PAUHWND__@@@std@@V?$allocator@U?$pair@QAUHWND__@@UCWndData@@@std@@@4@$0A@@std@@@std@@IAE?AViterator@12@_NPAU_Node@?$_Tree_nod@V?$_Tmap_traits@PAUHWND__@@UCWndData@@U?$less@PAUHWND__@@@std@@V?$allocator@U?$pair@QAUHWND__@@UCWndData@@@std@@@4@$0A@@std@@@2@ABU?$pair@QAUHWND__@@UCWndData@@@2@@Z ; std::_Tree<std::_Tmap_traits<HWND__ *,CWndData,std::less<HWND__ *>,std::allocator<std::pair<HWND__ * const,CWndData> >,0> >::_Insert
  00048	8b 45 08	 mov	 eax, DWORD PTR ___$ReturnUdt$[ebp]
  0004b	e9 81 05 00 00	 jmp	 $L190250
$L190252:

; 514  : 		else if (this->_Multi)

  00050	33 c9		 xor	 ecx, ecx
  00052	0f 84 b5 02 00
	00		 je	 $L190255

; 515  : 			{	// insert even if duplicate
; 516  : 			if (_Where == begin())

  00058	8d 55 ec	 lea	 edx, DWORD PTR $T192349[ebp]
  0005b	52		 push	 edx
  0005c	8b 4d fc	 mov	 ecx, DWORD PTR _this$[ebp]
  0005f	e8 00 00 00 00	 call	 ?begin@?$_Tree@V?$_Tmap_traits@PAUHWND__@@UCWndData@@U?$less@PAUHWND__@@@std@@V?$allocator@U?$pair@QAUHWND__@@UCWndData@@@std@@@4@$0A@@std@@@std@@QAE?AViterator@12@XZ ; std::_Tree<std::_Tmap_traits<HWND__ *,CWndData,std::less<HWND__ *>,std::allocator<std::pair<HWND__ * const,CWndData> >,0> >::begin
  00064	50		 push	 eax
  00065	8d 4d 0c	 lea	 ecx, DWORD PTR __Where$[ebp]
  00068	e8 00 00 00 00	 call	 ??8const_iterator@?$_Tree@V?$_Tmap_traits@PAUHWND__@@UCWndData@@U?$less@PAUHWND__@@@std@@V?$allocator@U?$pair@QAUHWND__@@UCWndData@@@std@@@4@$0A@@std@@@std@@QBE_NABV012@@Z ; std::_Tree<std::_Tmap_traits<HWND__ *,CWndData,std::less<HWND__ *>,std::allocator<std::pair<HWND__ * const,CWndData> >,0> >::const_iterator::operator==
  0006d	0f b6 c0	 movzx	 eax, al
  00070	85 c0		 test	 eax, eax
  00072	74 56		 je	 SHORT $L190257

; 517  : 				{	// insert at beginning if before first element
; 518  : 				if (!this->comp(_Key(_Where._Mynode()), this->_Kfn(_Val)))

  00074	8b 4d 10	 mov	 ecx, DWORD PTR __Val$[ebp]
  00077	51		 push	 ecx
  00078	e8 00 00 00 00	 call	 ?_Kfn@?$_Tmap_traits@PAUHWND__@@UCWndData@@U?$less@PAUHWND__@@@std@@V?$allocator@U?$pair@QAUHWND__@@UCWndData@@@std@@@4@$0A@@std@@SAABQAUHWND__@@ABU?$pair@QAUHWND__@@UCWndData@@@2@@Z ; std::_Tmap_traits<HWND__ *,CWndData,std::less<HWND__ *>,std::allocator<std::pair<HWND__ * const,CWndData> >,0>::_Kfn
  0007d	83 c4 04	 add	 esp, 4
  00080	50		 push	 eax
  00081	8d 4d 0c	 lea	 ecx, DWORD PTR __Where$[ebp]
  00084	e8 00 00 00 00	 call	 ?_Mynode@const_iterator@?$_Tree@V?$_Tmap_traits@PAUHWND__@@UCWndData@@U?$less@PAUHWND__@@@std@@V?$allocator@U?$pair@QAUHWND__@@UCWndData@@@std@@@4@$0A@@std@@@std@@QBEPAU_Node@?$_Tree_nod@V?$_Tmap_traits@PAUHWND__@@UCWndData@@U?$less@PAUHWND__@@@std@@V?$allocator@U?$pair@QAUHWND__@@UCWndData@@@std@@@4@$0A@@std@@@3@XZ ; std::_Tree<std::_Tmap_traits<HWND__ *,CWndData,std::less<HWND__ *>,std::allocator<std::pair<HWND__ * const,CWndData> >,0> >::const_iterator::_Mynode
  00089	50		 push	 eax
  0008a	e8 00 00 00 00	 call	 ?_Key@?$_Tree@V?$_Tmap_traits@PAUHWND__@@UCWndData@@U?$less@PAUHWND__@@@std@@V?$allocator@U?$pair@QAUHWND__@@UCWndData@@@std@@@4@$0A@@std@@@std@@KAABQAUHWND__@@PAU_Node@?$_Tree_nod@V?$_Tmap_traits@PAUHWND__@@UCWndData@@U?$less@PAUHWND__@@@std@@V?$allocator@U?$pair@QAUHWND__@@UCWndData@@@std@@@4@$0A@@std@@@2@@Z ; std::_Tree<std::_Tmap_traits<HWND__ *,CWndData,std::less<HWND__ *>,std::allocator<std::pair<HWND__ * const,CWndData> >,0> >::_Key
  0008f	83 c4 04	 add	 esp, 4
  00092	50		 push	 eax
  00093	8b 4d fc	 mov	 ecx, DWORD PTR _this$[ebp]
  00096	e8 00 00 00 00	 call	 ??R?$less@PAUHWND__@@@std@@QBE_NABQAUHWND__@@0@Z ; std::less<HWND__ *>::operator()
  0009b	0f b6 d0	 movzx	 edx, al
  0009e	85 d2		 test	 edx, edx
  000a0	75 23		 jne	 SHORT $L190258

; 519  : 					return (_Insert(true, _Where._Mynode(), _Val));

  000a2	8b 45 10	 mov	 eax, DWORD PTR __Val$[ebp]
  000a5	50		 push	 eax
  000a6	8d 4d 0c	 lea	 ecx, DWORD PTR __Where$[ebp]
  000a9	e8 00 00 00 00	 call	 ?_Mynode@const_iterator@?$_Tree@V?$_Tmap_traits@PAUHWND__@@UCWndData@@U?$less@PAUHWND__@@@std@@V?$allocator@U?$pair@QAUHWND__@@UCWndData@@@std@@@4@$0A@@std@@@std@@QBEPAU_Node@?$_Tree_nod@V?$_Tmap_traits@PAUHWND__@@UCWndData@@U?$less@PAUHWND__@@@std@@V?$allocator@U?$pair@QAUHWND__@@UCWndData@@@std@@@4@$0A@@std@@@3@XZ ; std::_Tree<std::_Tmap_traits<HWND__ *,CWndData,std::less<HWND__ *>,std::allocator<std::pair<HWND__ * const,CWndData> >,0> >::const_iterator::_Mynode
  000ae	50		 push	 eax
  000af	6a 01		 push	 1
  000b1	8b 4d 08	 mov	 ecx, DWORD PTR ___$ReturnUdt$[ebp]
  000b4	51		 push	 ecx
  000b5	8b 4d fc	 mov	 ecx, DWORD PTR _this$[ebp]
  000b8	e8 00 00 00 00	 call	 ?_Insert@?$_Tree@V?$_Tmap_traits@PAUHWND__@@UCWndData@@U?$less@PAUHWND__@@@std@@V?$allocator@U?$pair@QAUHWND__@@UCWndData@@@std@@@4@$0A@@std@@@std@@IAE?AViterator@12@_NPAU_Node@?$_Tree_nod@V?$_Tmap_traits@PAUHWND__@@UCWndData@@U?$less@PAUHWND__@@@std@@V?$allocator@U?$pair@QAUHWND__@@UCWndData@@@std@@@4@$0A@@std@@@2@ABU?$pair@QAUHWND__@@UCWndData@@@2@@Z ; std::_Tree<std::_Tmap_traits<HWND__ *,CWndData,std::less<HWND__ *>,std::allocator<std::pair<HWND__ * const,CWndData> >,0> >::_Insert
  000bd	8b 45 08	 mov	 eax, DWORD PTR ___$ReturnUdt$[ebp]
  000c0	e9 0c 05 00 00	 jmp	 $L190250
$L190258:

; 520  : 				}
; 521  : 			else if (_Where == end())

  000c5	e9 3e 02 00 00	 jmp	 $L190260
$L190257:
  000ca	8d 55 e8	 lea	 edx, DWORD PTR $T192350[ebp]
  000cd	52		 push	 edx
  000ce	8b 4d fc	 mov	 ecx, DWORD PTR _this$[ebp]
  000d1	e8 00 00 00 00	 call	 ?end@?$_Tree@V?$_Tmap_traits@PAUHWND__@@UCWndData@@U?$less@PAUHWND__@@@std@@V?$allocator@U?$pair@QAUHWND__@@UCWndData@@@std@@@4@$0A@@std@@@std@@QAE?AViterator@12@XZ ; std::_Tree<std::_Tmap_traits<HWND__ *,CWndData,std::less<HWND__ *>,std::allocator<std::pair<HWND__ * const,CWndData> >,0> >::end
  000d6	50		 push	 eax
  000d7	8d 4d 0c	 lea	 ecx, DWORD PTR __Where$[ebp]
  000da	e8 00 00 00 00	 call	 ??8const_iterator@?$_Tree@V?$_Tmap_traits@PAUHWND__@@UCWndData@@U?$less@PAUHWND__@@@std@@V?$allocator@U?$pair@QAUHWND__@@UCWndData@@@std@@@4@$0A@@std@@@std@@QBE_NABV012@@Z ; std::_Tree<std::_Tmap_traits<HWND__ *,CWndData,std::less<HWND__ *>,std::allocator<std::pair<HWND__ * const,CWndData> >,0> >::const_iterator::operator==
  000df	0f b6 c0	 movzx	 eax, al
  000e2	85 c0		 test	 eax, eax
  000e4	74 5a		 je	 SHORT $L190262

; 522  : 				{	// insert at end if after last element
; 523  : 				if (!this->comp(this->_Kfn(_Val), _Key(_Rmost())))

  000e6	8b 4d fc	 mov	 ecx, DWORD PTR _this$[ebp]
  000e9	e8 00 00 00 00	 call	 ?_Rmost@?$_Tree@V?$_Tmap_traits@PAUHWND__@@UCWndData@@U?$less@PAUHWND__@@@std@@V?$allocator@U?$pair@QAUHWND__@@UCWndData@@@std@@@4@$0A@@std@@@std@@IAEAAPAU_Node@?$_Tree_nod@V?$_Tmap_traits@PAUHWND__@@UCWndData@@U?$less@PAUHWND__@@@std@@V?$allocator@U?$pair@QAUHWND__@@UCWndData@@@std@@@4@$0A@@std@@@2@XZ ; std::_Tree<std::_Tmap_traits<HWND__ *,CWndData,std::less<HWND__ *>,std::allocator<std::pair<HWND__ * const,CWndData> >,0> >::_Rmost
  000ee	8b 08		 mov	 ecx, DWORD PTR [eax]
  000f0	51		 push	 ecx
  000f1	e8 00 00 00 00	 call	 ?_Key@?$_Tree@V?$_Tmap_traits@PAUHWND__@@UCWndData@@U?$less@PAUHWND__@@@std@@V?$allocator@U?$pair@QAUHWND__@@UCWndData@@@std@@@4@$0A@@std@@@std@@KAABQAUHWND__@@PAU_Node@?$_Tree_nod@V?$_Tmap_traits@PAUHWND__@@UCWndData@@U?$less@PAUHWND__@@@std@@V?$allocator@U?$pair@QAUHWND__@@UCWndData@@@std@@@4@$0A@@std@@@2@@Z ; std::_Tree<std::_Tmap_traits<HWND__ *,CWndData,std::less<HWND__ *>,std::allocator<std::pair<HWND__ * const,CWndData> >,0> >::_Key
  000f6	83 c4 04	 add	 esp, 4
  000f9	50		 push	 eax
  000fa	8b 55 10	 mov	 edx, DWORD PTR __Val$[ebp]
  000fd	52		 push	 edx
  000fe	e8 00 00 00 00	 call	 ?_Kfn@?$_Tmap_traits@PAUHWND__@@UCWndData@@U?$less@PAUHWND__@@@std@@V?$allocator@U?$pair@QAUHWND__@@UCWndData@@@std@@@4@$0A@@std@@SAABQAUHWND__@@ABU?$pair@QAUHWND__@@UCWndData@@@2@@Z ; std::_Tmap_traits<HWND__ *,CWndData,std::less<HWND__ *>,std::allocator<std::pair<HWND__ * const,CWndData> >,0>::_Kfn
  00103	83 c4 04	 add	 esp, 4
  00106	50		 push	 eax
  00107	8b 4d fc	 mov	 ecx, DWORD PTR _this$[ebp]
  0010a	e8 00 00 00 00	 call	 ??R?$less@PAUHWND__@@@std@@QBE_NABQAUHWND__@@0@Z ; std::less<HWND__ *>::operator()
  0010f	0f b6 c0	 movzx	 eax, al
  00112	85 c0		 test	 eax, eax
  00114	75 25		 jne	 SHORT $L190263

; 524  : 					return (_Insert(false, _Rmost(), _Val));

  00116	8b 4d 10	 mov	 ecx, DWORD PTR __Val$[ebp]
  00119	51		 push	 ecx
  0011a	8b 4d fc	 mov	 ecx, DWORD PTR _this$[ebp]
  0011d	e8 00 00 00 00	 call	 ?_Rmost@?$_Tree@V?$_Tmap_traits@PAUHWND__@@UCWndData@@U?$less@PAUHWND__@@@std@@V?$allocator@U?$pair@QAUHWND__@@UCWndData@@@std@@@4@$0A@@std@@@std@@IAEAAPAU_Node@?$_Tree_nod@V?$_Tmap_traits@PAUHWND__@@UCWndData@@U?$less@PAUHWND__@@@std@@V?$allocator@U?$pair@QAUHWND__@@UCWndData@@@std@@@4@$0A@@std@@@2@XZ ; std::_Tree<std::_Tmap_traits<HWND__ *,CWndData,std::less<HWND__ *>,std::allocator<std::pair<HWND__ * const,CWndData> >,0> >::_Rmost
  00122	8b 10		 mov	 edx, DWORD PTR [eax]
  00124	52		 push	 edx
  00125	6a 00		 push	 0
  00127	8b 45 08	 mov	 eax, DWORD PTR ___$ReturnUdt$[ebp]
  0012a	50		 push	 eax
  0012b	8b 4d fc	 mov	 ecx, DWORD PTR _this$[ebp]
  0012e	e8 00 00 00 00	 call	 ?_Insert@?$_Tree@V?$_Tmap_traits@PAUHWND__@@UCWndData@@U?$less@PAUHWND__@@@std@@V?$allocator@U?$pair@QAUHWND__@@UCWndData@@@std@@@4@$0A@@std@@@std@@IAE?AViterator@12@_NPAU_Node@?$_Tree_nod@V?$_Tmap_traits@PAUHWND__@@UCWndData@@U?$less@PAUHWND__@@@std@@V?$allocator@U?$pair@QAUHWND__@@UCWndData@@@std@@@4@$0A@@std@@@2@ABU?$pair@QAUHWND__@@UCWndData@@@2@@Z ; std::_Tree<std::_Tmap_traits<HWND__ *,CWndData,std::less<HWND__ *>,std::allocator<std::pair<HWND__ * const,CWndData> >,0> >::_Insert
  00133	8b 45 08	 mov	 eax, DWORD PTR ___$ReturnUdt$[ebp]
  00136	e9 96 04 00 00	 jmp	 $L190250
$L190263:

; 525  : 				}
; 526  : 			else if (!this->comp(_Key(_Where._Mynode()), this->_Kfn(_Val))

  0013b	e9 c8 01 00 00	 jmp	 $L190260
$L190262:

; 527  : 				&& !this->comp(this->_Kfn(_Val),
; 528  : 					_Key((--(_Next = _Where))._Mynode())))

  00140	8b 4d 10	 mov	 ecx, DWORD PTR __Val$[ebp]
  00143	51		 push	 ecx
  00144	e8 00 00 00 00	 call	 ?_Kfn@?$_Tmap_traits@PAUHWND__@@UCWndData@@U?$less@PAUHWND__@@@std@@V?$allocator@U?$pair@QAUHWND__@@UCWndData@@@std@@@4@$0A@@std@@SAABQAUHWND__@@ABU?$pair@QAUHWND__@@UCWndData@@@2@@Z ; std::_Tmap_traits<HWND__ *,CWndData,std::less<HWND__ *>,std::allocator<std::pair<HWND__ * const,CWndData> >,0>::_Kfn
  00149	83 c4 04	 add	 esp, 4
  0014c	50		 push	 eax
  0014d	8d 4d 0c	 lea	 ecx, DWORD PTR __Where$[ebp]
  00150	e8 00 00 00 00	 call	 ?_Mynode@const_iterator@?$_Tree@V?$_Tmap_traits@PAUHWND__@@UCWndData@@U?$less@PAUHWND__@@@std@@V?$allocator@U?$pair@QAUHWND__@@UCWndData@@@std@@@4@$0A@@std@@@std@@QBEPAU_Node@?$_Tree_nod@V?$_Tmap_traits@PAUHWND__@@UCWndData@@U?$less@PAUHWND__@@@std@@V?$allocator@U?$pair@QAUHWND__@@UCWndData@@@std@@@4@$0A@@std@@@3@XZ ; std::_Tree<std::_Tmap_traits<HWND__ *,CWndData,std::less<HWND__ *>,std::allocator<std::pair<HWND__ * const,CWndData> >,0> >::const_iterator::_Mynode
  00155	50		 push	 eax
  00156	e8 00 00 00 00	 call	 ?_Key@?$_Tree@V?$_Tmap_traits@PAUHWND__@@UCWndData@@U?$less@PAUHWND__@@@std@@V?$allocator@U?$pair@QAUHWND__@@UCWndData@@@std@@@4@$0A@@std@@@std@@KAABQAUHWND__@@PAU_Node@?$_Tree_nod@V?$_Tmap_traits@PAUHWND__@@UCWndData@@U?$less@PAUHWND__@@@std@@V?$allocator@U?$pair@QAUHWND__@@UCWndData@@@std@@@4@$0A@@std@@@2@@Z ; std::_Tree<std::_Tmap_traits<HWND__ *,CWndData,std::less<HWND__ *>,std::allocator<std::pair<HWND__ * const,CWndData> >,0> >::_Key
  0015b	83 c4 04	 add	 esp, 4
  0015e	50		 push	 eax
  0015f	8b 4d fc	 mov	 ecx, DWORD PTR _this$[ebp]
  00162	e8 00 00 00 00	 call	 ??R?$less@PAUHWND__@@@std@@QBE_NABQAUHWND__@@0@Z ; std::less<HWND__ *>::operator()
  00167	0f b6 d0	 movzx	 edx, al
  0016a	85 d2		 test	 edx, edx
  0016c	0f 85 a4 00 00
	00		 jne	 $L190266
  00172	8b 45 0c	 mov	 eax, DWORD PTR __Where$[ebp]
  00175	89 45 f4	 mov	 DWORD PTR __Next$[ebp], eax
  00178	8d 4d f4	 lea	 ecx, DWORD PTR __Next$[ebp]
  0017b	e8 00 00 00 00	 call	 ??Fiterator@?$_Tree@V?$_Tmap_traits@PAUHWND__@@UCWndData@@U?$less@PAUHWND__@@@std@@V?$allocator@U?$pair@QAUHWND__@@UCWndData@@@std@@@4@$0A@@std@@@std@@QAEAAV012@XZ ; std::_Tree<std::_Tmap_traits<HWND__ *,CWndData,std::less<HWND__ *>,std::allocator<std::pair<HWND__ * const,CWndData> >,0> >::iterator::operator--
  00180	8b c8		 mov	 ecx, eax
  00182	e8 00 00 00 00	 call	 ?_Mynode@const_iterator@?$_Tree@V?$_Tmap_traits@PAUHWND__@@UCWndData@@U?$less@PAUHWND__@@@std@@V?$allocator@U?$pair@QAUHWND__@@UCWndData@@@std@@@4@$0A@@std@@@std@@QBEPAU_Node@?$_Tree_nod@V?$_Tmap_traits@PAUHWND__@@UCWndData@@U?$less@PAUHWND__@@@std@@V?$allocator@U?$pair@QAUHWND__@@UCWndData@@@std@@@4@$0A@@std@@@3@XZ ; std::_Tree<std::_Tmap_traits<HWND__ *,CWndData,std::less<HWND__ *>,std::allocator<std::pair<HWND__ * const,CWndData> >,0> >::const_iterator::_Mynode
  00187	50		 push	 eax
  00188	e8 00 00 00 00	 call	 ?_Key@?$_Tree@V?$_Tmap_traits@PAUHWND__@@UCWndData@@U?$less@PAUHWND__@@@std@@V?$allocator@U?$pair@QAUHWND__@@UCWndData@@@std@@@4@$0A@@std@@@std@@KAABQAUHWND__@@PAU_Node@?$_Tree_nod@V?$_Tmap_traits@PAUHWND__@@UCWndData@@U?$less@PAUHWND__@@@std@@V?$allocator@U?$pair@QAUHWND__@@UCWndData@@@std@@@4@$0A@@std@@@2@@Z ; std::_Tree<std::_Tmap_traits<HWND__ *,CWndData,std::less<HWND__ *>,std::allocator<std::pair<HWND__ * const,CWndData> >,0> >::_Key
  0018d	83 c4 04	 add	 esp, 4
  00190	50		 push	 eax
  00191	8b 4d 10	 mov	 ecx, DWORD PTR __Val$[ebp]
  00194	51		 push	 ecx
  00195	e8 00 00 00 00	 call	 ?_Kfn@?$_Tmap_traits@PAUHWND__@@UCWndData@@U?$less@PAUHWND__@@@std@@V?$allocator@U?$pair@QAUHWND__@@UCWndData@@@std@@@4@$0A@@std@@SAABQAUHWND__@@ABU?$pair@QAUHWND__@@UCWndData@@@2@@Z ; std::_Tmap_traits<HWND__ *,CWndData,std::less<HWND__ *>,std::allocator<std::pair<HWND__ * const,CWndData> >,0>::_Kfn
  0019a	83 c4 04	 add	 esp, 4
  0019d	50		 push	 eax
  0019e	8b 4d fc	 mov	 ecx, DWORD PTR _this$[ebp]
  001a1	e8 00 00 00 00	 call	 ??R?$less@PAUHWND__@@@std@@QBE_NABQAUHWND__@@0@Z ; std::less<HWND__ *>::operator()
  001a6	0f b6 d0	 movzx	 edx, al
  001a9	85 d2		 test	 edx, edx
  001ab	75 69		 jne	 SHORT $L190266

; 529  : 				{	// insert before _Where
; 530  : 				if (_Isnil(_Right(_Next._Mynode())))

  001ad	8d 4d f4	 lea	 ecx, DWORD PTR __Next$[ebp]
  001b0	e8 00 00 00 00	 call	 ?_Mynode@const_iterator@?$_Tree@V?$_Tmap_traits@PAUHWND__@@UCWndData@@U?$less@PAUHWND__@@@std@@V?$allocator@U?$pair@QAUHWND__@@UCWndData@@@std@@@4@$0A@@std@@@std@@QBEPAU_Node@?$_Tree_nod@V?$_Tmap_traits@PAUHWND__@@UCWndData@@U?$less@PAUHWND__@@@std@@V?$allocator@U?$pair@QAUHWND__@@UCWndData@@@std@@@4@$0A@@std@@@3@XZ ; std::_Tree<std::_Tmap_traits<HWND__ *,CWndData,std::less<HWND__ *>,std::allocator<std::pair<HWND__ * const,CWndData> >,0> >::const_iterator::_Mynode
  001b5	50		 push	 eax
  001b6	e8 00 00 00 00	 call	 ?_Right@?$_Tree@V?$_Tmap_traits@PAUHWND__@@UCWndData@@U?$less@PAUHWND__@@@std@@V?$allocator@U?$pair@QAUHWND__@@UCWndData@@@std@@@4@$0A@@std@@@std@@KAAAPAU_Node@?$_Tree_nod@V?$_Tmap_traits@PAUHWND__@@UCWndData@@U?$less@PAUHWND__@@@std@@V?$allocator@U?$pair@QAUHWND__@@UCWndData@@@std@@@4@$0A@@std@@@2@PAU342@@Z ; std::_Tree<std::_Tmap_traits<HWND__ *,CWndData,std::less<HWND__ *>,std::allocator<std::pair<HWND__ * const,CWndData> >,0> >::_Right
  001bb	83 c4 04	 add	 esp, 4
  001be	8b 00		 mov	 eax, DWORD PTR [eax]
  001c0	50		 push	 eax
  001c1	e8 00 00 00 00	 call	 ?_Isnil@?$_Tree@V?$_Tmap_traits@PAUHWND__@@UCWndData@@U?$less@PAUHWND__@@@std@@V?$allocator@U?$pair@QAUHWND__@@UCWndData@@@std@@@4@$0A@@std@@@std@@KAAADPAU_Node@?$_Tree_nod@V?$_Tmap_traits@PAUHWND__@@UCWndData@@U?$less@PAUHWND__@@@std@@V?$allocator@U?$pair@QAUHWND__@@UCWndData@@@std@@@4@$0A@@std@@@2@@Z ; std::_Tree<std::_Tmap_traits<HWND__ *,CWndData,std::less<HWND__ *>,std::allocator<std::pair<HWND__ * const,CWndData> >,0> >::_Isnil
  001c6	83 c4 04	 add	 esp, 4
  001c9	0f be 08	 movsx	 ecx, BYTE PTR [eax]
  001cc	85 c9		 test	 ecx, ecx
  001ce	74 23		 je	 SHORT $L190267

; 531  : 					return (_Insert(false, _Next._Mynode(), _Val));

  001d0	8b 55 10	 mov	 edx, DWORD PTR __Val$[ebp]
  001d3	52		 push	 edx
  001d4	8d 4d f4	 lea	 ecx, DWORD PTR __Next$[ebp]
  001d7	e8 00 00 00 00	 call	 ?_Mynode@const_iterator@?$_Tree@V?$_Tmap_traits@PAUHWND__@@UCWndData@@U?$less@PAUHWND__@@@std@@V?$allocator@U?$pair@QAUHWND__@@UCWndData@@@std@@@4@$0A@@std@@@std@@QBEPAU_Node@?$_Tree_nod@V?$_Tmap_traits@PAUHWND__@@UCWndData@@U?$less@PAUHWND__@@@std@@V?$allocator@U?$pair@QAUHWND__@@UCWndData@@@std@@@4@$0A@@std@@@3@XZ ; std::_Tree<std::_Tmap_traits<HWND__ *,CWndData,std::less<HWND__ *>,std::allocator<std::pair<HWND__ * const,CWndData> >,0> >::const_iterator::_Mynode
  001dc	50		 push	 eax
  001dd	6a 00		 push	 0
  001df	8b 45 08	 mov	 eax, DWORD PTR ___$ReturnUdt$[ebp]
  001e2	50		 push	 eax
  001e3	8b 4d fc	 mov	 ecx, DWORD PTR _this$[ebp]
  001e6	e8 00 00 00 00	 call	 ?_Insert@?$_Tree@V?$_Tmap_traits@PAUHWND__@@UCWndData@@U?$less@PAUHWND__@@@std@@V?$allocator@U?$pair@QAUHWND__@@UCWndData@@@std@@@4@$0A@@std@@@std@@IAE?AViterator@12@_NPAU_Node@?$_Tree_nod@V?$_Tmap_traits@PAUHWND__@@UCWndData@@U?$less@PAUHWND__@@@std@@V?$allocator@U?$pair@QAUHWND__@@UCWndData@@@std@@@4@$0A@@std@@@2@ABU?$pair@QAUHWND__@@UCWndData@@@2@@Z ; std::_Tree<std::_Tmap_traits<HWND__ *,CWndData,std::less<HWND__ *>,std::allocator<std::pair<HWND__ * const,CWndData> >,0> >::_Insert
  001eb	8b 45 08	 mov	 eax, DWORD PTR ___$ReturnUdt$[ebp]
  001ee	e9 de 03 00 00	 jmp	 $L190250
$L190267:

; 532  : 				else
; 533  : 					return (_Insert(true, _Where._Mynode(), _Val));

  001f3	8b 4d 10	 mov	 ecx, DWORD PTR __Val$[ebp]
  001f6	51		 push	 ecx
  001f7	8d 4d 0c	 lea	 ecx, DWORD PTR __Where$[ebp]
  001fa	e8 00 00 00 00	 call	 ?_Mynode@const_iterator@?$_Tree@V?$_Tmap_traits@PAUHWND__@@UCWndData@@U?$less@PAUHWND__@@@std@@V?$allocator@U?$pair@QAUHWND__@@UCWndData@@@std@@@4@$0A@@std@@@std@@QBEPAU_Node@?$_Tree_nod@V?$_Tmap_traits@PAUHWND__@@UCWndData@@U?$less@PAUHWND__@@@std@@V?$allocator@U?$pair@QAUHWND__@@UCWndData@@@std@@@4@$0A@@std@@@3@XZ ; std::_Tree<std::_Tmap_traits<HWND__ *,CWndData,std::less<HWND__ *>,std::allocator<std::pair<HWND__ * const,CWndData> >,0> >::const_iterator::_Mynode
  001ff	50		 push	 eax
  00200	6a 01		 push	 1
  00202	8b 55 08	 mov	 edx, DWORD PTR ___$ReturnUdt$[ebp]
  00205	52		 push	 edx
  00206	8b 4d fc	 mov	 ecx, DWORD PTR _this$[ebp]
  00209	e8 00 00 00 00	 call	 ?_Insert@?$_Tree@V?$_Tmap_traits@PAUHWND__@@UCWndData@@U?$less@PAUHWND__@@@std@@V?$allocator@U?$pair@QAUHWND__@@UCWndData@@@std@@@4@$0A@@std@@@std@@IAE?AViterator@12@_NPAU_Node@?$_Tree_nod@V?$_Tmap_traits@PAUHWND__@@UCWndData@@U?$less@PAUHWND__@@@std@@V?$allocator@U?$pair@QAUHWND__@@UCWndData@@@std@@@4@$0A@@std@@@2@ABU?$pair@QAUHWND__@@UCWndData@@@2@@Z ; std::_Tree<std::_Tmap_traits<HWND__ *,CWndData,std::less<HWND__ *>,std::allocator<std::pair<HWND__ * const,CWndData> >,0> >::_Insert
  0020e	8b 45 08	 mov	 eax, DWORD PTR ___$ReturnUdt$[ebp]
  00211	e9 bb 03 00 00	 jmp	 $L190250
$L190266:

; 534  : 				}
; 535  : 			else if (!this->comp(this->_Kfn(_Val), _Key(_Where._Mynode()))
; 536  : 				&& (++(_Next = _Where) == end()
; 537  : 					|| !this->comp(_Key(_Next._Mynode()),
; 538  : 						this->_Kfn(_Val))))

  00216	8d 4d 0c	 lea	 ecx, DWORD PTR __Where$[ebp]
  00219	e8 00 00 00 00	 call	 ?_Mynode@const_iterator@?$_Tree@V?$_Tmap_traits@PAUHWND__@@UCWndData@@U?$less@PAUHWND__@@@std@@V?$allocator@U?$pair@QAUHWND__@@UCWndData@@@std@@@4@$0A@@std@@@std@@QBEPAU_Node@?$_Tree_nod@V?$_Tmap_traits@PAUHWND__@@UCWndData@@U?$less@PAUHWND__@@@std@@V?$allocator@U?$pair@QAUHWND__@@UCWndData@@@std@@@4@$0A@@std@@@3@XZ ; std::_Tree<std::_Tmap_traits<HWND__ *,CWndData,std::less<HWND__ *>,std::allocator<std::pair<HWND__ * const,CWndData> >,0> >::const_iterator::_Mynode
  0021e	50		 push	 eax
  0021f	e8 00 00 00 00	 call	 ?_Key@?$_Tree@V?$_Tmap_traits@PAUHWND__@@UCWndData@@U?$less@PAUHWND__@@@std@@V?$allocator@U?$pair@QAUHWND__@@UCWndData@@@std@@@4@$0A@@std@@@std@@KAABQAUHWND__@@PAU_Node@?$_Tree_nod@V?$_Tmap_traits@PAUHWND__@@UCWndData@@U?$less@PAUHWND__@@@std@@V?$allocator@U?$pair@QAUHWND__@@UCWndData@@@std@@@4@$0A@@std@@@2@@Z ; std::_Tree<std::_Tmap_traits<HWND__ *,CWndData,std::less<HWND__ *>,std::allocator<std::pair<HWND__ * const,CWndData> >,0> >::_Key
  00224	83 c4 04	 add	 esp, 4
  00227	50		 push	 eax
  00228	8b 45 10	 mov	 eax, DWORD PTR __Val$[ebp]
  0022b	50		 push	 eax
  0022c	e8 00 00 00 00	 call	 ?_Kfn@?$_Tmap_traits@PAUHWND__@@UCWndData@@U?$less@PAUHWND__@@@std@@V?$allocator@U?$pair@QAUHWND__@@UCWndData@@@std@@@4@$0A@@std@@SAABQAUHWND__@@ABU?$pair@QAUHWND__@@UCWndData@@@2@@Z ; std::_Tmap_traits<HWND__ *,CWndData,std::less<HWND__ *>,std::allocator<std::pair<HWND__ * const,CWndData> >,0>::_Kfn
  00231	83 c4 04	 add	 esp, 4
  00234	50		 push	 eax
  00235	8b 4d fc	 mov	 ecx, DWORD PTR _this$[ebp]
  00238	e8 00 00 00 00	 call	 ??R?$less@PAUHWND__@@@std@@QBE_NABQAUHWND__@@0@Z ; std::less<HWND__ *>::operator()
  0023d	0f b6 c8	 movzx	 ecx, al
  00240	85 c9		 test	 ecx, ecx
  00242	0f 85 c0 00 00
	00		 jne	 $L190260
  00248	8b 55 0c	 mov	 edx, DWORD PTR __Where$[ebp]
  0024b	89 55 f4	 mov	 DWORD PTR __Next$[ebp], edx
  0024e	8d 45 e4	 lea	 eax, DWORD PTR $T192351[ebp]
  00251	50		 push	 eax
  00252	8b 4d fc	 mov	 ecx, DWORD PTR _this$[ebp]
  00255	e8 00 00 00 00	 call	 ?end@?$_Tree@V?$_Tmap_traits@PAUHWND__@@UCWndData@@U?$less@PAUHWND__@@@std@@V?$allocator@U?$pair@QAUHWND__@@UCWndData@@@std@@@4@$0A@@std@@@std@@QAE?AViterator@12@XZ ; std::_Tree<std::_Tmap_traits<HWND__ *,CWndData,std::less<HWND__ *>,std::allocator<std::pair<HWND__ * const,CWndData> >,0> >::end
  0025a	50		 push	 eax
  0025b	8d 4d f4	 lea	 ecx, DWORD PTR __Next$[ebp]
  0025e	e8 00 00 00 00	 call	 ??Eiterator@?$_Tree@V?$_Tmap_traits@PAUHWND__@@UCWndData@@U?$less@PAUHWND__@@@std@@V?$allocator@U?$pair@QAUHWND__@@UCWndData@@@std@@@4@$0A@@std@@@std@@QAEAAV012@XZ ; std::_Tree<std::_Tmap_traits<HWND__ *,CWndData,std::less<HWND__ *>,std::allocator<std::pair<HWND__ * const,CWndData> >,0> >::iterator::operator++
  00263	8b c8		 mov	 ecx, eax
  00265	e8 00 00 00 00	 call	 ??8const_iterator@?$_Tree@V?$_Tmap_traits@PAUHWND__@@UCWndData@@U?$less@PAUHWND__@@@std@@V?$allocator@U?$pair@QAUHWND__@@UCWndData@@@std@@@4@$0A@@std@@@std@@QBE_NABV012@@Z ; std::_Tree<std::_Tmap_traits<HWND__ *,CWndData,std::less<HWND__ *>,std::allocator<std::pair<HWND__ * const,CWndData> >,0> >::const_iterator::operator==
  0026a	0f b6 c8	 movzx	 ecx, al
  0026d	85 c9		 test	 ecx, ecx
  0026f	75 2e		 jne	 SHORT $L190274
  00271	8b 55 10	 mov	 edx, DWORD PTR __Val$[ebp]
  00274	52		 push	 edx
  00275	e8 00 00 00 00	 call	 ?_Kfn@?$_Tmap_traits@PAUHWND__@@UCWndData@@U?$less@PAUHWND__@@@std@@V?$allocator@U?$pair@QAUHWND__@@UCWndData@@@std@@@4@$0A@@std@@SAABQAUHWND__@@ABU?$pair@QAUHWND__@@UCWndData@@@2@@Z ; std::_Tmap_traits<HWND__ *,CWndData,std::less<HWND__ *>,std::allocator<std::pair<HWND__ * const,CWndData> >,0>::_Kfn
  0027a	83 c4 04	 add	 esp, 4
  0027d	50		 push	 eax
  0027e	8d 4d f4	 lea	 ecx, DWORD PTR __Next$[ebp]
  00281	e8 00 00 00 00	 call	 ?_Mynode@const_iterator@?$_Tree@V?$_Tmap_traits@PAUHWND__@@UCWndData@@U?$less@PAUHWND__@@@std@@V?$allocator@U?$pair@QAUHWND__@@UCWndData@@@std@@@4@$0A@@std@@@std@@QBEPAU_Node@?$_Tree_nod@V?$_Tmap_traits@PAUHWND__@@UCWndData@@U?$less@PAUHWND__@@@std@@V?$allocator@U?$pair@QAUHWND__@@UCWndData@@@std@@@4@$0A@@std@@@3@XZ ; std::_Tree<std::_Tmap_traits<HWND__ *,CWndData,std::less<HWND__ *>,std::allocator<std::pair<HWND__ * const,CWndData> >,0> >::const_iterator::_Mynode
  00286	50		 push	 eax
  00287	e8 00 00 00 00	 call	 ?_Key@?$_Tree@V?$_Tmap_traits@PAUHWND__@@UCWndData@@U?$less@PAUHWND__@@@std@@V?$allocator@U?$pair@QAUHWND__@@UCWndData@@@std@@@4@$0A@@std@@@std@@KAABQAUHWND__@@PAU_Node@?$_Tree_nod@V?$_Tmap_traits@PAUHWND__@@UCWndData@@U?$less@PAUHWND__@@@std@@V?$allocator@U?$pair@QAUHWND__@@UCWndData@@@std@@@4@$0A@@std@@@2@@Z ; std::_Tree<std::_Tmap_traits<HWND__ *,CWndData,std::less<HWND__ *>,std::allocator<std::pair<HWND__ * const,CWndData> >,0> >::_Key
  0028c	83 c4 04	 add	 esp, 4
  0028f	50		 push	 eax
  00290	8b 4d fc	 mov	 ecx, DWORD PTR _this$[ebp]
  00293	e8 00 00 00 00	 call	 ??R?$less@PAUHWND__@@@std@@QBE_NABQAUHWND__@@0@Z ; std::less<HWND__ *>::operator()
  00298	0f b6 c0	 movzx	 eax, al
  0029b	85 c0		 test	 eax, eax
  0029d	75 69		 jne	 SHORT $L190260
$L190274:

; 539  : 				{	// insert after _Where
; 540  : 				if (_Isnil(_Right(_Where._Mynode())))

  0029f	8d 4d 0c	 lea	 ecx, DWORD PTR __Where$[ebp]
  002a2	e8 00 00 00 00	 call	 ?_Mynode@const_iterator@?$_Tree@V?$_Tmap_traits@PAUHWND__@@UCWndData@@U?$less@PAUHWND__@@@std@@V?$allocator@U?$pair@QAUHWND__@@UCWndData@@@std@@@4@$0A@@std@@@std@@QBEPAU_Node@?$_Tree_nod@V?$_Tmap_traits@PAUHWND__@@UCWndData@@U?$less@PAUHWND__@@@std@@V?$allocator@U?$pair@QAUHWND__@@UCWndData@@@std@@@4@$0A@@std@@@3@XZ ; std::_Tree<std::_Tmap_traits<HWND__ *,CWndData,std::less<HWND__ *>,std::allocator<std::pair<HWND__ * const,CWndData> >,0> >::const_iterator::_Mynode
  002a7	50		 push	 eax
  002a8	e8 00 00 00 00	 call	 ?_Right@?$_Tree@V?$_Tmap_traits@PAUHWND__@@UCWndData@@U?$less@PAUHWND__@@@std@@V?$allocator@U?$pair@QAUHWND__@@UCWndData@@@std@@@4@$0A@@std@@@std@@KAAAPAU_Node@?$_Tree_nod@V?$_Tmap_traits@PAUHWND__@@UCWndData@@U?$less@PAUHWND__@@@std@@V?$allocator@U?$pair@QAUHWND__@@UCWndData@@@std@@@4@$0A@@std@@@2@PAU342@@Z ; std::_Tree<std::_Tmap_traits<HWND__ *,CWndData,std::less<HWND__ *>,std::allocator<std::pair<HWND__ * const,CWndData> >,0> >::_Right
  002ad	83 c4 04	 add	 esp, 4
  002b0	8b 08		 mov	 ecx, DWORD PTR [eax]
  002b2	51		 push	 ecx
  002b3	e8 00 00 00 00	 call	 ?_Isnil@?$_Tree@V?$_Tmap_traits@PAUHWND__@@UCWndData@@U?$less@PAUHWND__@@@std@@V?$allocator@U?$pair@QAUHWND__@@UCWndData@@@std@@@4@$0A@@std@@@std@@KAAADPAU_Node@?$_Tree_nod@V?$_Tmap_traits@PAUHWND__@@UCWndData@@U?$less@PAUHWND__@@@std@@V?$allocator@U?$pair@QAUHWND__@@UCWndData@@@std@@@4@$0A@@std@@@2@@Z ; std::_Tree<std::_Tmap_traits<HWND__ *,CWndData,std::less<HWND__ *>,std::allocator<std::pair<HWND__ * const,CWndData> >,0> >::_Isnil
  002b8	83 c4 04	 add	 esp, 4
  002bb	0f be 10	 movsx	 edx, BYTE PTR [eax]
  002be	85 d2		 test	 edx, edx
  002c0	74 23		 je	 SHORT $L190275

; 541  : 					return (_Insert(false, _Where._Mynode(), _Val));

  002c2	8b 45 10	 mov	 eax, DWORD PTR __Val$[ebp]
  002c5	50		 push	 eax
  002c6	8d 4d 0c	 lea	 ecx, DWORD PTR __Where$[ebp]
  002c9	e8 00 00 00 00	 call	 ?_Mynode@const_iterator@?$_Tree@V?$_Tmap_traits@PAUHWND__@@UCWndData@@U?$less@PAUHWND__@@@std@@V?$allocator@U?$pair@QAUHWND__@@UCWndData@@@std@@@4@$0A@@std@@@std@@QBEPAU_Node@?$_Tree_nod@V?$_Tmap_traits@PAUHWND__@@UCWndData@@U?$less@PAUHWND__@@@std@@V?$allocator@U?$pair@QAUHWND__@@UCWndData@@@std@@@4@$0A@@std@@@3@XZ ; std::_Tree<std::_Tmap_traits<HWND__ *,CWndData,std::less<HWND__ *>,std::allocator<std::pair<HWND__ * const,CWndData> >,0> >::const_iterator::_Mynode
  002ce	50		 push	 eax
  002cf	6a 00		 push	 0
  002d1	8b 4d 08	 mov	 ecx, DWORD PTR ___$ReturnUdt$[ebp]
  002d4	51		 push	 ecx
  002d5	8b 4d fc	 mov	 ecx, DWORD PTR _this$[ebp]
  002d8	e8 00 00 00 00	 call	 ?_Insert@?$_Tree@V?$_Tmap_traits@PAUHWND__@@UCWndData@@U?$less@PAUHWND__@@@std@@V?$allocator@U?$pair@QAUHWND__@@UCWndData@@@std@@@4@$0A@@std@@@std@@IAE?AViterator@12@_NPAU_Node@?$_Tree_nod@V?$_Tmap_traits@PAUHWND__@@UCWndData@@U?$less@PAUHWND__@@@std@@V?$allocator@U?$pair@QAUHWND__@@UCWndData@@@std@@@4@$0A@@std@@@2@ABU?$pair@QAUHWND__@@UCWndData@@@2@@Z ; std::_Tree<std::_Tmap_traits<HWND__ *,CWndData,std::less<HWND__ *>,std::allocator<std::pair<HWND__ * const,CWndData> >,0> >::_Insert
  002dd	8b 45 08	 mov	 eax, DWORD PTR ___$ReturnUdt$[ebp]
  002e0	e9 ec 02 00 00	 jmp	 $L190250
$L190275:

; 542  : 				else
; 543  : 					return (_Insert(true, _Next._Mynode(), _Val));

  002e5	8b 55 10	 mov	 edx, DWORD PTR __Val$[ebp]
  002e8	52		 push	 edx
  002e9	8d 4d f4	 lea	 ecx, DWORD PTR __Next$[ebp]
  002ec	e8 00 00 00 00	 call	 ?_Mynode@const_iterator@?$_Tree@V?$_Tmap_traits@PAUHWND__@@UCWndData@@U?$less@PAUHWND__@@@std@@V?$allocator@U?$pair@QAUHWND__@@UCWndData@@@std@@@4@$0A@@std@@@std@@QBEPAU_Node@?$_Tree_nod@V?$_Tmap_traits@PAUHWND__@@UCWndData@@U?$less@PAUHWND__@@@std@@V?$allocator@U?$pair@QAUHWND__@@UCWndData@@@std@@@4@$0A@@std@@@3@XZ ; std::_Tree<std::_Tmap_traits<HWND__ *,CWndData,std::less<HWND__ *>,std::allocator<std::pair<HWND__ * const,CWndData> >,0> >::const_iterator::_Mynode
  002f1	50		 push	 eax
  002f2	6a 01		 push	 1
  002f4	8b 45 08	 mov	 eax, DWORD PTR ___$ReturnUdt$[ebp]
  002f7	50		 push	 eax
  002f8	8b 4d fc	 mov	 ecx, DWORD PTR _this$[ebp]
  002fb	e8 00 00 00 00	 call	 ?_Insert@?$_Tree@V?$_Tmap_traits@PAUHWND__@@UCWndData@@U?$less@PAUHWND__@@@std@@V?$allocator@U?$pair@QAUHWND__@@UCWndData@@@std@@@4@$0A@@std@@@std@@IAE?AViterator@12@_NPAU_Node@?$_Tree_nod@V?$_Tmap_traits@PAUHWND__@@UCWndData@@U?$less@PAUHWND__@@@std@@V?$allocator@U?$pair@QAUHWND__@@UCWndData@@@std@@@4@$0A@@std@@@2@ABU?$pair@QAUHWND__@@UCWndData@@@2@@Z ; std::_Tree<std::_Tmap_traits<HWND__ *,CWndData,std::less<HWND__ *>,std::allocator<std::pair<HWND__ * const,CWndData> >,0> >::_Insert
  00300	8b 45 08	 mov	 eax, DWORD PTR ___$ReturnUdt$[ebp]
  00303	e9 c9 02 00 00	 jmp	 $L190250
$L190260:

; 544  : 				}
; 545  : 			}
; 546  : 		else

  00308	e9 aa 02 00 00	 jmp	 $L190254
$L190255:

; 547  : 			{	// insert only if unique
; 548  : 			if (_Where == begin())

  0030d	8d 4d e0	 lea	 ecx, DWORD PTR $T192352[ebp]
  00310	51		 push	 ecx
  00311	8b 4d fc	 mov	 ecx, DWORD PTR _this$[ebp]
  00314	e8 00 00 00 00	 call	 ?begin@?$_Tree@V?$_Tmap_traits@PAUHWND__@@UCWndData@@U?$less@PAUHWND__@@@std@@V?$allocator@U?$pair@QAUHWND__@@UCWndData@@@std@@@4@$0A@@std@@@std@@QAE?AViterator@12@XZ ; std::_Tree<std::_Tmap_traits<HWND__ *,CWndData,std::less<HWND__ *>,std::allocator<std::pair<HWND__ * const,CWndData> >,0> >::begin
  00319	50		 push	 eax
  0031a	8d 4d 0c	 lea	 ecx, DWORD PTR __Where$[ebp]
  0031d	e8 00 00 00 00	 call	 ??8const_iterator@?$_Tree@V?$_Tmap_traits@PAUHWND__@@UCWndData@@U?$less@PAUHWND__@@@std@@V?$allocator@U?$pair@QAUHWND__@@UCWndData@@@std@@@4@$0A@@std@@@std@@QBE_NABV012@@Z ; std::_Tree<std::_Tmap_traits<HWND__ *,CWndData,std::less<HWND__ *>,std::allocator<std::pair<HWND__ * const,CWndData> >,0> >::const_iterator::operator==
  00322	0f b6 d0	 movzx	 edx, al
  00325	85 d2		 test	 edx, edx
  00327	74 56		 je	 SHORT $L190281

; 549  : 				{	// insert at beginning if before first element
; 550  : 				if (this->comp(this->_Kfn(_Val), _Key(_Where._Mynode())))

  00329	8d 4d 0c	 lea	 ecx, DWORD PTR __Where$[ebp]
  0032c	e8 00 00 00 00	 call	 ?_Mynode@const_iterator@?$_Tree@V?$_Tmap_traits@PAUHWND__@@UCWndData@@U?$less@PAUHWND__@@@std@@V?$allocator@U?$pair@QAUHWND__@@UCWndData@@@std@@@4@$0A@@std@@@std@@QBEPAU_Node@?$_Tree_nod@V?$_Tmap_traits@PAUHWND__@@UCWndData@@U?$less@PAUHWND__@@@std@@V?$allocator@U?$pair@QAUHWND__@@UCWndData@@@std@@@4@$0A@@std@@@3@XZ ; std::_Tree<std::_Tmap_traits<HWND__ *,CWndData,std::less<HWND__ *>,std::allocator<std::pair<HWND__ * const,CWndData> >,0> >::const_iterator::_Mynode
  00331	50		 push	 eax
  00332	e8 00 00 00 00	 call	 ?_Key@?$_Tree@V?$_Tmap_traits@PAUHWND__@@UCWndData@@U?$less@PAUHWND__@@@std@@V?$allocator@U?$pair@QAUHWND__@@UCWndData@@@std@@@4@$0A@@std@@@std@@KAABQAUHWND__@@PAU_Node@?$_Tree_nod@V?$_Tmap_traits@PAUHWND__@@UCWndData@@U?$less@PAUHWND__@@@std@@V?$allocator@U?$pair@QAUHWND__@@UCWndData@@@std@@@4@$0A@@std@@@2@@Z ; std::_Tree<std::_Tmap_traits<HWND__ *,CWndData,std::less<HWND__ *>,std::allocator<std::pair<HWND__ * const,CWndData> >,0> >::_Key
  00337	83 c4 04	 add	 esp, 4
  0033a	50		 push	 eax
  0033b	8b 45 10	 mov	 eax, DWORD PTR __Val$[ebp]
  0033e	50		 push	 eax
  0033f	e8 00 00 00 00	 call	 ?_Kfn@?$_Tmap_traits@PAUHWND__@@UCWndData@@U?$less@PAUHWND__@@@std@@V?$allocator@U?$pair@QAUHWND__@@UCWndData@@@std@@@4@$0A@@std@@SAABQAUHWND__@@ABU?$pair@QAUHWND__@@UCWndData@@@2@@Z ; std::_Tmap_traits<HWND__ *,CWndData,std::less<HWND__ *>,std::allocator<std::pair<HWND__ * const,CWndData> >,0>::_Kfn
  00344	83 c4 04	 add	 esp, 4
  00347	50		 push	 eax
  00348	8b 4d fc	 mov	 ecx, DWORD PTR _this$[ebp]
  0034b	e8 00 00 00 00	 call	 ??R?$less@PAUHWND__@@@std@@QBE_NABQAUHWND__@@0@Z ; std::less<HWND__ *>::operator()
  00350	0f b6 c8	 movzx	 ecx, al
  00353	85 c9		 test	 ecx, ecx
  00355	74 23		 je	 SHORT $L190282

; 551  : 					return (_Insert(true, _Where._Mynode(), _Val));

  00357	8b 55 10	 mov	 edx, DWORD PTR __Val$[ebp]
  0035a	52		 push	 edx
  0035b	8d 4d 0c	 lea	 ecx, DWORD PTR __Where$[ebp]
  0035e	e8 00 00 00 00	 call	 ?_Mynode@const_iterator@?$_Tree@V?$_Tmap_traits@PAUHWND__@@UCWndData@@U?$less@PAUHWND__@@@std@@V?$allocator@U?$pair@QAUHWND__@@UCWndData@@@std@@@4@$0A@@std@@@std@@QBEPAU_Node@?$_Tree_nod@V?$_Tmap_traits@PAUHWND__@@UCWndData@@U?$less@PAUHWND__@@@std@@V?$allocator@U?$pair@QAUHWND__@@UCWndData@@@std@@@4@$0A@@std@@@3@XZ ; std::_Tree<std::_Tmap_traits<HWND__ *,CWndData,std::less<HWND__ *>,std::allocator<std::pair<HWND__ * const,CWndData> >,0> >::const_iterator::_Mynode
  00363	50		 push	 eax
  00364	6a 01		 push	 1
  00366	8b 45 08	 mov	 eax, DWORD PTR ___$ReturnUdt$[ebp]
  00369	50		 push	 eax
  0036a	8b 4d fc	 mov	 ecx, DWORD PTR _this$[ebp]
  0036d	e8 00 00 00 00	 call	 ?_Insert@?$_Tree@V?$_Tmap_traits@PAUHWND__@@UCWndData@@U?$less@PAUHWND__@@@std@@V?$allocator@U?$pair@QAUHWND__@@UCWndData@@@std@@@4@$0A@@std@@@std@@IAE?AViterator@12@_NPAU_Node@?$_Tree_nod@V?$_Tmap_traits@PAUHWND__@@UCWndData@@U?$less@PAUHWND__@@@std@@V?$allocator@U?$pair@QAUHWND__@@UCWndData@@@std@@@4@$0A@@std@@@2@ABU?$pair@QAUHWND__@@UCWndData@@@2@@Z ; std::_Tree<std::_Tmap_traits<HWND__ *,CWndData,std::less<HWND__ *>,std::allocator<std::pair<HWND__ * const,CWndData> >,0> >::_Insert
  00372	8b 45 08	 mov	 eax, DWORD PTR ___$ReturnUdt$[ebp]
  00375	e9 57 02 00 00	 jmp	 $L190250
$L190282:

; 552  : 				}
; 553  : 			else if (_Where == end())

  0037a	e9 38 02 00 00	 jmp	 $L190254
$L190281:
  0037f	8d 4d dc	 lea	 ecx, DWORD PTR $T192353[ebp]
  00382	51		 push	 ecx
  00383	8b 4d fc	 mov	 ecx, DWORD PTR _this$[ebp]
  00386	e8 00 00 00 00	 call	 ?end@?$_Tree@V?$_Tmap_traits@PAUHWND__@@UCWndData@@U?$less@PAUHWND__@@@std@@V?$allocator@U?$pair@QAUHWND__@@UCWndData@@@std@@@4@$0A@@std@@@std@@QAE?AViterator@12@XZ ; std::_Tree<std::_Tmap_traits<HWND__ *,CWndData,std::less<HWND__ *>,std::allocator<std::pair<HWND__ * const,CWndData> >,0> >::end
  0038b	50		 push	 eax
  0038c	8d 4d 0c	 lea	 ecx, DWORD PTR __Where$[ebp]
  0038f	e8 00 00 00 00	 call	 ??8const_iterator@?$_Tree@V?$_Tmap_traits@PAUHWND__@@UCWndData@@U?$less@PAUHWND__@@@std@@V?$allocator@U?$pair@QAUHWND__@@UCWndData@@@std@@@4@$0A@@std@@@std@@QBE_NABV012@@Z ; std::_Tree<std::_Tmap_traits<HWND__ *,CWndData,std::less<HWND__ *>,std::allocator<std::pair<HWND__ * const,CWndData> >,0> >::const_iterator::operator==
  00394	0f b6 d0	 movzx	 edx, al
  00397	85 d2		 test	 edx, edx
  00399	74 5a		 je	 SHORT $L190286

; 554  : 				{	// insert at end if after last element
; 555  : 				if (this->comp(_Key(_Rmost()), this->_Kfn(_Val)))

  0039b	8b 45 10	 mov	 eax, DWORD PTR __Val$[ebp]
  0039e	50		 push	 eax
  0039f	e8 00 00 00 00	 call	 ?_Kfn@?$_Tmap_traits@PAUHWND__@@UCWndData@@U?$less@PAUHWND__@@@std@@V?$allocator@U?$pair@QAUHWND__@@UCWndData@@@std@@@4@$0A@@std@@SAABQAUHWND__@@ABU?$pair@QAUHWND__@@UCWndData@@@2@@Z ; std::_Tmap_traits<HWND__ *,CWndData,std::less<HWND__ *>,std::allocator<std::pair<HWND__ * const,CWndData> >,0>::_Kfn
  003a4	83 c4 04	 add	 esp, 4
  003a7	50		 push	 eax
  003a8	8b 4d fc	 mov	 ecx, DWORD PTR _this$[ebp]
  003ab	e8 00 00 00 00	 call	 ?_Rmost@?$_Tree@V?$_Tmap_traits@PAUHWND__@@UCWndData@@U?$less@PAUHWND__@@@std@@V?$allocator@U?$pair@QAUHWND__@@UCWndData@@@std@@@4@$0A@@std@@@std@@IAEAAPAU_Node@?$_Tree_nod@V?$_Tmap_traits@PAUHWND__@@UCWndData@@U?$less@PAUHWND__@@@std@@V?$allocator@U?$pair@QAUHWND__@@UCWndData@@@std@@@4@$0A@@std@@@2@XZ ; std::_Tree<std::_Tmap_traits<HWND__ *,CWndData,std::less<HWND__ *>,std::allocator<std::pair<HWND__ * const,CWndData> >,0> >::_Rmost
  003b0	8b 08		 mov	 ecx, DWORD PTR [eax]
  003b2	51		 push	 ecx
  003b3	e8 00 00 00 00	 call	 ?_Key@?$_Tree@V?$_Tmap_traits@PAUHWND__@@UCWndData@@U?$less@PAUHWND__@@@std@@V?$allocator@U?$pair@QAUHWND__@@UCWndData@@@std@@@4@$0A@@std@@@std@@KAABQAUHWND__@@PAU_Node@?$_Tree_nod@V?$_Tmap_traits@PAUHWND__@@UCWndData@@U?$less@PAUHWND__@@@std@@V?$allocator@U?$pair@QAUHWND__@@UCWndData@@@std@@@4@$0A@@std@@@2@@Z ; std::_Tree<std::_Tmap_traits<HWND__ *,CWndData,std::less<HWND__ *>,std::allocator<std::pair<HWND__ * const,CWndData> >,0> >::_Key
  003b8	83 c4 04	 add	 esp, 4
  003bb	50		 push	 eax
  003bc	8b 4d fc	 mov	 ecx, DWORD PTR _this$[ebp]
  003bf	e8 00 00 00 00	 call	 ??R?$less@PAUHWND__@@@std@@QBE_NABQAUHWND__@@0@Z ; std::less<HWND__ *>::operator()
  003c4	0f b6 d0	 movzx	 edx, al
  003c7	85 d2		 test	 edx, edx
  003c9	74 25		 je	 SHORT $L190287

; 556  : 					return (_Insert(false, _Rmost(), _Val));

  003cb	8b 45 10	 mov	 eax, DWORD PTR __Val$[ebp]
  003ce	50		 push	 eax
  003cf	8b 4d fc	 mov	 ecx, DWORD PTR _this$[ebp]
  003d2	e8 00 00 00 00	 call	 ?_Rmost@?$_Tree@V?$_Tmap_traits@PAUHWND__@@UCWndData@@U?$less@PAUHWND__@@@std@@V?$allocator@U?$pair@QAUHWND__@@UCWndData@@@std@@@4@$0A@@std@@@std@@IAEAAPAU_Node@?$_Tree_nod@V?$_Tmap_traits@PAUHWND__@@UCWndData@@U?$less@PAUHWND__@@@std@@V?$allocator@U?$pair@QAUHWND__@@UCWndData@@@std@@@4@$0A@@std@@@2@XZ ; std::_Tree<std::_Tmap_traits<HWND__ *,CWndData,std::less<HWND__ *>,std::allocator<std::pair<HWND__ * const,CWndData> >,0> >::_Rmost
  003d7	8b 08		 mov	 ecx, DWORD PTR [eax]
  003d9	51		 push	 ecx
  003da	6a 00		 push	 0
  003dc	8b 55 08	 mov	 edx, DWORD PTR ___$ReturnUdt$[ebp]
  003df	52		 push	 edx
  003e0	8b 4d fc	 mov	 ecx, DWORD PTR _this$[ebp]
  003e3	e8 00 00 00 00	 call	 ?_Insert@?$_Tree@V?$_Tmap_traits@PAUHWND__@@UCWndData@@U?$less@PAUHWND__@@@std@@V?$allocator@U?$pair@QAUHWND__@@UCWndData@@@std@@@4@$0A@@std@@@std@@IAE?AViterator@12@_NPAU_Node@?$_Tree_nod@V?$_Tmap_traits@PAUHWND__@@UCWndData@@U?$less@PAUHWND__@@@std@@V?$allocator@U?$pair@QAUHWND__@@UCWndData@@@std@@@4@$0A@@std@@@2@ABU?$pair@QAUHWND__@@UCWndData@@@2@@Z ; std::_Tree<std::_Tmap_traits<HWND__ *,CWndData,std::less<HWND__ *>,std::allocator<std::pair<HWND__ * const,CWndData> >,0> >::_Insert
  003e8	8b 45 08	 mov	 eax, DWORD PTR ___$ReturnUdt$[ebp]
  003eb	e9 e1 01 00 00	 jmp	 $L190250
$L190287:

; 557  : 				}
; 558  : 			else if (this->comp(this->_Kfn(_Val), _Key(_Where._Mynode()))

  003f0	e9 c2 01 00 00	 jmp	 $L190254
$L190286:

; 559  : 				&& this->comp(_Key((--(_Next = _Where))._Mynode()),
; 560  : 					this->_Kfn(_Val)))

  003f5	8d 4d 0c	 lea	 ecx, DWORD PTR __Where$[ebp]
  003f8	e8 00 00 00 00	 call	 ?_Mynode@const_iterator@?$_Tree@V?$_Tmap_traits@PAUHWND__@@UCWndData@@U?$less@PAUHWND__@@@std@@V?$allocator@U?$pair@QAUHWND__@@UCWndData@@@std@@@4@$0A@@std@@@std@@QBEPAU_Node@?$_Tree_nod@V?$_Tmap_traits@PAUHWND__@@UCWndData@@U?$less@PAUHWND__@@@std@@V?$allocator@U?$pair@QAUHWND__@@UCWndData@@@std@@@4@$0A@@std@@@3@XZ ; std::_Tree<std::_Tmap_traits<HWND__ *,CWndData,std::less<HWND__ *>,std::allocator<std::pair<HWND__ * const,CWndData> >,0> >::const_iterator::_Mynode
  003fd	50		 push	 eax
  003fe	e8 00 00 00 00	 call	 ?_Key@?$_Tree@V?$_Tmap_traits@PAUHWND__@@UCWndData@@U?$less@PAUHWND__@@@std@@V?$allocator@U?$pair@QAUHWND__@@UCWndData@@@std@@@4@$0A@@std@@@std@@KAABQAUHWND__@@PAU_Node@?$_Tree_nod@V?$_Tmap_traits@PAUHWND__@@UCWndData@@U?$less@PAUHWND__@@@std@@V?$allocator@U?$pair@QAUHWND__@@UCWndData@@@std@@@4@$0A@@std@@@2@@Z ; std::_Tree<std::_Tmap_traits<HWND__ *,CWndData,std::less<HWND__ *>,std::allocator<std::pair<HWND__ * const,CWndData> >,0> >::_Key
  00403	83 c4 04	 add	 esp, 4
  00406	50		 push	 eax
  00407	8b 45 10	 mov	 eax, DWORD PTR __Val$[ebp]
  0040a	50		 push	 eax
  0040b	e8 00 00 00 00	 call	 ?_Kfn@?$_Tmap_traits@PAUHWND__@@UCWndData@@U?$less@PAUHWND__@@@std@@V?$allocator@U?$pair@QAUHWND__@@UCWndData@@@std@@@4@$0A@@std@@SAABQAUHWND__@@ABU?$pair@QAUHWND__@@UCWndData@@@2@@Z ; std::_Tmap_traits<HWND__ *,CWndData,std::less<HWND__ *>,std::allocator<std::pair<HWND__ * const,CWndData> >,0>::_Kfn
  00410	83 c4 04	 add	 esp, 4
  00413	50		 push	 eax
  00414	8b 4d fc	 mov	 ecx, DWORD PTR _this$[ebp]
  00417	e8 00 00 00 00	 call	 ??R?$less@PAUHWND__@@@std@@QBE_NABQAUHWND__@@0@Z ; std::less<HWND__ *>::operator()
  0041c	0f b6 c8	 movzx	 ecx, al
  0041f	85 c9		 test	 ecx, ecx
  00421	0f 84 a4 00 00
	00		 je	 $L190290
  00427	8b 55 0c	 mov	 edx, DWORD PTR __Where$[ebp]
  0042a	89 55 f4	 mov	 DWORD PTR __Next$[ebp], edx
  0042d	8b 45 10	 mov	 eax, DWORD PTR __Val$[ebp]
  00430	50		 push	 eax
  00431	e8 00 00 00 00	 call	 ?_Kfn@?$_Tmap_traits@PAUHWND__@@UCWndData@@U?$less@PAUHWND__@@@std@@V?$allocator@U?$pair@QAUHWND__@@UCWndData@@@std@@@4@$0A@@std@@SAABQAUHWND__@@ABU?$pair@QAUHWND__@@UCWndData@@@2@@Z ; std::_Tmap_traits<HWND__ *,CWndData,std::less<HWND__ *>,std::allocator<std::pair<HWND__ * const,CWndData> >,0>::_Kfn
  00436	83 c4 04	 add	 esp, 4
  00439	50		 push	 eax
  0043a	8d 4d f4	 lea	 ecx, DWORD PTR __Next$[ebp]
  0043d	e8 00 00 00 00	 call	 ??Fiterator@?$_Tree@V?$_Tmap_traits@PAUHWND__@@UCWndData@@U?$less@PAUHWND__@@@std@@V?$allocator@U?$pair@QAUHWND__@@UCWndData@@@std@@@4@$0A@@std@@@std@@QAEAAV012@XZ ; std::_Tree<std::_Tmap_traits<HWND__ *,CWndData,std::less<HWND__ *>,std::allocator<std::pair<HWND__ * const,CWndData> >,0> >::iterator::operator--
  00442	8b c8		 mov	 ecx, eax
  00444	e8 00 00 00 00	 call	 ?_Mynode@const_iterator@?$_Tree@V?$_Tmap_traits@PAUHWND__@@UCWndData@@U?$less@PAUHWND__@@@std@@V?$allocator@U?$pair@QAUHWND__@@UCWndData@@@std@@@4@$0A@@std@@@std@@QBEPAU_Node@?$_Tree_nod@V?$_Tmap_traits@PAUHWND__@@UCWndData@@U?$less@PAUHWND__@@@std@@V?$allocator@U?$pair@QAUHWND__@@UCWndData@@@std@@@4@$0A@@std@@@3@XZ ; std::_Tree<std::_Tmap_traits<HWND__ *,CWndData,std::less<HWND__ *>,std::allocator<std::pair<HWND__ * const,CWndData> >,0> >::const_iterator::_Mynode
  00449	50		 push	 eax
  0044a	e8 00 00 00 00	 call	 ?_Key@?$_Tree@V?$_Tmap_traits@PAUHWND__@@UCWndData@@U?$less@PAUHWND__@@@std@@V?$allocator@U?$pair@QAUHWND__@@UCWndData@@@std@@@4@$0A@@std@@@std@@KAABQAUHWND__@@PAU_Node@?$_Tree_nod@V?$_Tmap_traits@PAUHWND__@@UCWndData@@U?$less@PAUHWND__@@@std@@V?$allocator@U?$pair@QAUHWND__@@UCWndData@@@std@@@4@$0A@@std@@@2@@Z ; std::_Tree<std::_Tmap_traits<HWND__ *,CWndData,std::less<HWND__ *>,std::allocator<std::pair<HWND__ * const,CWndData> >,0> >::_Key
  0044f	83 c4 04	 add	 esp, 4
  00452	50		 push	 eax
  00453	8b 4d fc	 mov	 ecx, DWORD PTR _this$[ebp]
  00456	e8 00 00 00 00	 call	 ??R?$less@PAUHWND__@@@std@@QBE_NABQAUHWND__@@0@Z ; std::less<HWND__ *>::operator()
  0045b	0f b6 c8	 movzx	 ecx, al
  0045e	85 c9		 test	 ecx, ecx
  00460	74 69		 je	 SHORT $L190290

; 561  : 				{	// insert before _Where
; 562  : 				if (_Isnil(_Right(_Next._Mynode())))

  00462	8d 4d f4	 lea	 ecx, DWORD PTR __Next$[ebp]
  00465	e8 00 00 00 00	 call	 ?_Mynode@const_iterator@?$_Tree@V?$_Tmap_traits@PAUHWND__@@UCWndData@@U?$less@PAUHWND__@@@std@@V?$allocator@U?$pair@QAUHWND__@@UCWndData@@@std@@@4@$0A@@std@@@std@@QBEPAU_Node@?$_Tree_nod@V?$_Tmap_traits@PAUHWND__@@UCWndData@@U?$less@PAUHWND__@@@std@@V?$allocator@U?$pair@QAUHWND__@@UCWndData@@@std@@@4@$0A@@std@@@3@XZ ; std::_Tree<std::_Tmap_traits<HWND__ *,CWndData,std::less<HWND__ *>,std::allocator<std::pair<HWND__ * const,CWndData> >,0> >::const_iterator::_Mynode
  0046a	50		 push	 eax
  0046b	e8 00 00 00 00	 call	 ?_Right@?$_Tree@V?$_Tmap_traits@PAUHWND__@@UCWndData@@U?$less@PAUHWND__@@@std@@V?$allocator@U?$pair@QAUHWND__@@UCWndData@@@std@@@4@$0A@@std@@@std@@KAAAPAU_Node@?$_Tree_nod@V?$_Tmap_traits@PAUHWND__@@UCWndData@@U?$less@PAUHWND__@@@std@@V?$allocator@U?$pair@QAUHWND__@@UCWndData@@@std@@@4@$0A@@std@@@2@PAU342@@Z ; std::_Tree<std::_Tmap_traits<HWND__ *,CWndData,std::less<HWND__ *>,std::allocator<std::pair<HWND__ * const,CWndData> >,0> >::_Right
  00470	83 c4 04	 add	 esp, 4
  00473	8b 10		 mov	 edx, DWORD PTR [eax]
  00475	52		 push	 edx
  00476	e8 00 00 00 00	 call	 ?_Isnil@?$_Tree@V?$_Tmap_traits@PAUHWND__@@UCWndData@@U?$less@PAUHWND__@@@std@@V?$allocator@U?$pair@QAUHWND__@@UCWndData@@@std@@@4@$0A@@std@@@std@@KAAADPAU_Node@?$_Tree_nod@V?$_Tmap_traits@PAUHWND__@@UCWndData@@U?$less@PAUHWND__@@@std@@V?$allocator@U?$pair@QAUHWND__@@UCWndData@@@std@@@4@$0A@@std@@@2@@Z ; std::_Tree<std::_Tmap_traits<HWND__ *,CWndData,std::less<HWND__ *>,std::allocator<std::pair<HWND__ * const,CWndData> >,0> >::_Isnil
  0047b	83 c4 04	 add	 esp, 4
  0047e	0f be 00	 movsx	 eax, BYTE PTR [eax]
  00481	85 c0		 test	 eax, eax
  00483	74 23		 je	 SHORT $L190291

; 563  : 					return (_Insert(false, _Next._Mynode(), _Val));

  00485	8b 4d 10	 mov	 ecx, DWORD PTR __Val$[ebp]
  00488	51		 push	 ecx
  00489	8d 4d f4	 lea	 ecx, DWORD PTR __Next$[ebp]
  0048c	e8 00 00 00 00	 call	 ?_Mynode@const_iterator@?$_Tree@V?$_Tmap_traits@PAUHWND__@@UCWndData@@U?$less@PAUHWND__@@@std@@V?$allocator@U?$pair@QAUHWND__@@UCWndData@@@std@@@4@$0A@@std@@@std@@QBEPAU_Node@?$_Tree_nod@V?$_Tmap_traits@PAUHWND__@@UCWndData@@U?$less@PAUHWND__@@@std@@V?$allocator@U?$pair@QAUHWND__@@UCWndData@@@std@@@4@$0A@@std@@@3@XZ ; std::_Tree<std::_Tmap_traits<HWND__ *,CWndData,std::less<HWND__ *>,std::allocator<std::pair<HWND__ * const,CWndData> >,0> >::const_iterator::_Mynode
  00491	50		 push	 eax
  00492	6a 00		 push	 0
  00494	8b 55 08	 mov	 edx, DWORD PTR ___$ReturnUdt$[ebp]
  00497	52		 push	 edx
  00498	8b 4d fc	 mov	 ecx, DWORD PTR _this$[ebp]
  0049b	e8 00 00 00 00	 call	 ?_Insert@?$_Tree@V?$_Tmap_traits@PAUHWND__@@UCWndData@@U?$less@PAUHWND__@@@std@@V?$allocator@U?$pair@QAUHWND__@@UCWndData@@@std@@@4@$0A@@std@@@std@@IAE?AViterator@12@_NPAU_Node@?$_Tree_nod@V?$_Tmap_traits@PAUHWND__@@UCWndData@@U?$less@PAUHWND__@@@std@@V?$allocator@U?$pair@QAUHWND__@@UCWndData@@@std@@@4@$0A@@std@@@2@ABU?$pair@QAUHWND__@@UCWndData@@@2@@Z ; std::_Tree<std::_Tmap_traits<HWND__ *,CWndData,std::less<HWND__ *>,std::allocator<std::pair<HWND__ * const,CWndData> >,0> >::_Insert
  004a0	8b 45 08	 mov	 eax, DWORD PTR ___$ReturnUdt$[ebp]
  004a3	e9 29 01 00 00	 jmp	 $L190250
$L190291:

; 564  : 				else
; 565  : 					return (_Insert(true, _Where._Mynode(), _Val));

  004a8	8b 45 10	 mov	 eax, DWORD PTR __Val$[ebp]
  004ab	50		 push	 eax
  004ac	8d 4d 0c	 lea	 ecx, DWORD PTR __Where$[ebp]
  004af	e8 00 00 00 00	 call	 ?_Mynode@const_iterator@?$_Tree@V?$_Tmap_traits@PAUHWND__@@UCWndData@@U?$less@PAUHWND__@@@std@@V?$allocator@U?$pair@QAUHWND__@@UCWndData@@@std@@@4@$0A@@std@@@std@@QBEPAU_Node@?$_Tree_nod@V?$_Tmap_traits@PAUHWND__@@UCWndData@@U?$less@PAUHWND__@@@std@@V?$allocator@U?$pair@QAUHWND__@@UCWndData@@@std@@@4@$0A@@std@@@3@XZ ; std::_Tree<std::_Tmap_traits<HWND__ *,CWndData,std::less<HWND__ *>,std::allocator<std::pair<HWND__ * const,CWndData> >,0> >::const_iterator::_Mynode
  004b4	50		 push	 eax
  004b5	6a 01		 push	 1
  004b7	8b 4d 08	 mov	 ecx, DWORD PTR ___$ReturnUdt$[ebp]
  004ba	51		 push	 ecx
  004bb	8b 4d fc	 mov	 ecx, DWORD PTR _this$[ebp]
  004be	e8 00 00 00 00	 call	 ?_Insert@?$_Tree@V?$_Tmap_traits@PAUHWND__@@UCWndData@@U?$less@PAUHWND__@@@std@@V?$allocator@U?$pair@QAUHWND__@@UCWndData@@@std@@@4@$0A@@std@@@std@@IAE?AViterator@12@_NPAU_Node@?$_Tree_nod@V?$_Tmap_traits@PAUHWND__@@UCWndData@@U?$less@PAUHWND__@@@std@@V?$allocator@U?$pair@QAUHWND__@@UCWndData@@@std@@@4@$0A@@std@@@2@ABU?$pair@QAUHWND__@@UCWndData@@@2@@Z ; std::_Tree<std::_Tmap_traits<HWND__ *,CWndData,std::less<HWND__ *>,std::allocator<std::pair<HWND__ * const,CWndData> >,0> >::_Insert
  004c3	8b 45 08	 mov	 eax, DWORD PTR ___$ReturnUdt$[ebp]
  004c6	e9 06 01 00 00	 jmp	 $L190250
$L190290:

; 566  : 				}
; 567  : 			else if (this->comp(_Key(_Where._Mynode()), this->_Kfn(_Val))
; 568  : 				&& (++(_Next = _Where) == end()
; 569  : 					|| this->comp(this->_Kfn(_Val),
; 570  : 						_Key(_Next._Mynode()))))

  004cb	8b 55 10	 mov	 edx, DWORD PTR __Val$[ebp]
  004ce	52		 push	 edx
  004cf	e8 00 00 00 00	 call	 ?_Kfn@?$_Tmap_traits@PAUHWND__@@UCWndData@@U?$less@PAUHWND__@@@std@@V?$allocator@U?$pair@QAUHWND__@@UCWndData@@@std@@@4@$0A@@std@@SAABQAUHWND__@@ABU?$pair@QAUHWND__@@UCWndData@@@2@@Z ; std::_Tmap_traits<HWND__ *,CWndData,std::less<HWND__ *>,std::allocator<std::pair<HWND__ * const,CWndData> >,0>::_Kfn
  004d4	83 c4 04	 add	 esp, 4
  004d7	50		 push	 eax
  004d8	8d 4d 0c	 lea	 ecx, DWORD PTR __Where$[ebp]
  004db	e8 00 00 00 00	 call	 ?_Mynode@const_iterator@?$_Tree@V?$_Tmap_traits@PAUHWND__@@UCWndData@@U?$less@PAUHWND__@@@std@@V?$allocator@U?$pair@QAUHWND__@@UCWndData@@@std@@@4@$0A@@std@@@std@@QBEPAU_Node@?$_Tree_nod@V?$_Tmap_traits@PAUHWND__@@UCWndData@@U?$less@PAUHWND__@@@std@@V?$allocator@U?$pair@QAUHWND__@@UCWndData@@@std@@@4@$0A@@std@@@3@XZ ; std::_Tree<std::_Tmap_traits<HWND__ *,CWndData,std::less<HWND__ *>,std::allocator<std::pair<HWND__ * const,CWndData> >,0> >::const_iterator::_Mynode
  004e0	50		 push	 eax
  004e1	e8 00 00 00 00	 call	 ?_Key@?$_Tree@V?$_Tmap_traits@PAUHWND__@@UCWndData@@U?$less@PAUHWND__@@@std@@V?$allocator@U?$pair@QAUHWND__@@UCWndData@@@std@@@4@$0A@@std@@@std@@KAABQAUHWND__@@PAU_Node@?$_Tree_nod@V?$_Tmap_traits@PAUHWND__@@UCWndData@@U?$less@PAUHWND__@@@std@@V?$allocator@U?$pair@QAUHWND__@@UCWndData@@@std@@@4@$0A@@std@@@2@@Z ; std::_Tree<std::_Tmap_traits<HWND__ *,CWndData,std::less<HWND__ *>,std::allocator<std::pair<HWND__ * const,CWndData> >,0> >::_Key
  004e6	83 c4 04	 add	 esp, 4
  004e9	50		 push	 eax
  004ea	8b 4d fc	 mov	 ecx, DWORD PTR _this$[ebp]
  004ed	e8 00 00 00 00	 call	 ??R?$less@PAUHWND__@@@std@@QBE_NABQAUHWND__@@0@Z ; std::less<HWND__ *>::operator()
  004f2	0f b6 c0	 movzx	 eax, al
  004f5	85 c0		 test	 eax, eax
  004f7	0f 84 ba 00 00
	00		 je	 $L190254
  004fd	8b 4d 0c	 mov	 ecx, DWORD PTR __Where$[ebp]
  00500	89 4d f4	 mov	 DWORD PTR __Next$[ebp], ecx
  00503	8d 55 d8	 lea	 edx, DWORD PTR $T192354[ebp]
  00506	52		 push	 edx
  00507	8b 4d fc	 mov	 ecx, DWORD PTR _this$[ebp]
  0050a	e8 00 00 00 00	 call	 ?end@?$_Tree@V?$_Tmap_traits@PAUHWND__@@UCWndData@@U?$less@PAUHWND__@@@std@@V?$allocator@U?$pair@QAUHWND__@@UCWndData@@@std@@@4@$0A@@std@@@std@@QAE?AViterator@12@XZ ; std::_Tree<std::_Tmap_traits<HWND__ *,CWndData,std::less<HWND__ *>,std::allocator<std::pair<HWND__ * const,CWndData> >,0> >::end
  0050f	50		 push	 eax
  00510	8d 4d f4	 lea	 ecx, DWORD PTR __Next$[ebp]
  00513	e8 00 00 00 00	 call	 ??Eiterator@?$_Tree@V?$_Tmap_traits@PAUHWND__@@UCWndData@@U?$less@PAUHWND__@@@std@@V?$allocator@U?$pair@QAUHWND__@@UCWndData@@@std@@@4@$0A@@std@@@std@@QAEAAV012@XZ ; std::_Tree<std::_Tmap_traits<HWND__ *,CWndData,std::less<HWND__ *>,std::allocator<std::pair<HWND__ * const,CWndData> >,0> >::iterator::operator++
  00518	8b c8		 mov	 ecx, eax
  0051a	e8 00 00 00 00	 call	 ??8const_iterator@?$_Tree@V?$_Tmap_traits@PAUHWND__@@UCWndData@@U?$less@PAUHWND__@@@std@@V?$allocator@U?$pair@QAUHWND__@@UCWndData@@@std@@@4@$0A@@std@@@std@@QBE_NABV012@@Z ; std::_Tree<std::_Tmap_traits<HWND__ *,CWndData,std::less<HWND__ *>,std::allocator<std::pair<HWND__ * const,CWndData> >,0> >::const_iterator::operator==
  0051f	0f b6 c0	 movzx	 eax, al
  00522	85 c0		 test	 eax, eax
  00524	75 2e		 jne	 SHORT $L190298
  00526	8d 4d f4	 lea	 ecx, DWORD PTR __Next$[ebp]
  00529	e8 00 00 00 00	 call	 ?_Mynode@const_iterator@?$_Tree@V?$_Tmap_traits@PAUHWND__@@UCWndData@@U?$less@PAUHWND__@@@std@@V?$allocator@U?$pair@QAUHWND__@@UCWndData@@@std@@@4@$0A@@std@@@std@@QBEPAU_Node@?$_Tree_nod@V?$_Tmap_traits@PAUHWND__@@UCWndData@@U?$less@PAUHWND__@@@std@@V?$allocator@U?$pair@QAUHWND__@@UCWndData@@@std@@@4@$0A@@std@@@3@XZ ; std::_Tree<std::_Tmap_traits<HWND__ *,CWndData,std::less<HWND__ *>,std::allocator<std::pair<HWND__ * const,CWndData> >,0> >::const_iterator::_Mynode
  0052e	50		 push	 eax
  0052f	e8 00 00 00 00	 call	 ?_Key@?$_Tree@V?$_Tmap_traits@PAUHWND__@@UCWndData@@U?$less@PAUHWND__@@@std@@V?$allocator@U?$pair@QAUHWND__@@UCWndData@@@std@@@4@$0A@@std@@@std@@KAABQAUHWND__@@PAU_Node@?$_Tree_nod@V?$_Tmap_traits@PAUHWND__@@UCWndData@@U?$less@PAUHWND__@@@std@@V?$allocator@U?$pair@QAUHWND__@@UCWndData@@@std@@@4@$0A@@std@@@2@@Z ; std::_Tree<std::_Tmap_traits<HWND__ *,CWndData,std::less<HWND__ *>,std::allocator<std::pair<HWND__ * const,CWndData> >,0> >::_Key
  00534	83 c4 04	 add	 esp, 4
  00537	50		 push	 eax
  00538	8b 4d 10	 mov	 ecx, DWORD PTR __Val$[ebp]
  0053b	51		 push	 ecx
  0053c	e8 00 00 00 00	 call	 ?_Kfn@?$_Tmap_traits@PAUHWND__@@UCWndData@@U?$less@PAUHWND__@@@std@@V?$allocator@U?$pair@QAUHWND__@@UCWndData@@@std@@@4@$0A@@std@@SAABQAUHWND__@@ABU?$pair@QAUHWND__@@UCWndData@@@2@@Z ; std::_Tmap_traits<HWND__ *,CWndData,std::less<HWND__ *>,std::allocator<std::pair<HWND__ * const,CWndData> >,0>::_Kfn
  00541	83 c4 04	 add	 esp, 4
  00544	50		 push	 eax
  00545	8b 4d fc	 mov	 ecx, DWORD PTR _this$[ebp]
  00548	e8 00 00 00 00	 call	 ??R?$less@PAUHWND__@@@std@@QBE_NABQAUHWND__@@0@Z ; std::less<HWND__ *>::operator()
  0054d	0f b6 d0	 movzx	 edx, al
  00550	85 d2		 test	 edx, edx
  00552	74 63		 je	 SHORT $L190254
$L190298:

; 571  : 				{	// insert after _Where
; 572  : 				if (_Isnil(_Right(_Where._Mynode())))

  00554	8d 4d 0c	 lea	 ecx, DWORD PTR __Where$[ebp]
  00557	e8 00 00 00 00	 call	 ?_Mynode@const_iterator@?$_Tree@V?$_Tmap_traits@PAUHWND__@@UCWndData@@U?$less@PAUHWND__@@@std@@V?$allocator@U?$pair@QAUHWND__@@UCWndData@@@std@@@4@$0A@@std@@@std@@QBEPAU_Node@?$_Tree_nod@V?$_Tmap_traits@PAUHWND__@@UCWndData@@U?$less@PAUHWND__@@@std@@V?$allocator@U?$pair@QAUHWND__@@UCWndData@@@std@@@4@$0A@@std@@@3@XZ ; std::_Tree<std::_Tmap_traits<HWND__ *,CWndData,std::less<HWND__ *>,std::allocator<std::pair<HWND__ * const,CWndData> >,0> >::const_iterator::_Mynode
  0055c	50		 push	 eax
  0055d	e8 00 00 00 00	 call	 ?_Right@?$_Tree@V?$_Tmap_traits@PAUHWND__@@UCWndData@@U?$less@PAUHWND__@@@std@@V?$allocator@U?$pair@QAUHWND__@@UCWndData@@@std@@@4@$0A@@std@@@std@@KAAAPAU_Node@?$_Tree_nod@V?$_Tmap_traits@PAUHWND__@@UCWndData@@U?$less@PAUHWND__@@@std@@V?$allocator@U?$pair@QAUHWND__@@UCWndData@@@std@@@4@$0A@@std@@@2@PAU342@@Z ; std::_Tree<std::_Tmap_traits<HWND__ *,CWndData,std::less<HWND__ *>,std::allocator<std::pair<HWND__ * const,CWndData> >,0> >::_Right
  00562	83 c4 04	 add	 esp, 4
  00565	8b 00		 mov	 eax, DWORD PTR [eax]
  00567	50		 push	 eax
  00568	e8 00 00 00 00	 call	 ?_Isnil@?$_Tree@V?$_Tmap_traits@PAUHWND__@@UCWndData@@U?$less@PAUHWND__@@@std@@V?$allocator@U?$pair@QAUHWND__@@UCWndData@@@std@@@4@$0A@@std@@@std@@KAAADPAU_Node@?$_Tree_nod@V?$_Tmap_traits@PAUHWND__@@UCWndData@@U?$less@PAUHWND__@@@std@@V?$allocator@U?$pair@QAUHWND__@@UCWndData@@@std@@@4@$0A@@std@@@2@@Z ; std::_Tree<std::_Tmap_traits<HWND__ *,CWndData,std::less<HWND__ *>,std::allocator<std::pair<HWND__ * const,CWndData> >,0> >::_Isnil
  0056d	83 c4 04	 add	 esp, 4
  00570	0f be 08	 movsx	 ecx, BYTE PTR [eax]
  00573	85 c9		 test	 ecx, ecx
  00575	74 20		 je	 SHORT $L190299

; 573  : 					return (_Insert(false, _Where._Mynode(), _Val));

  00577	8b 55 10	 mov	 edx, DWORD PTR __Val$[ebp]
  0057a	52		 push	 edx
  0057b	8d 4d 0c	 lea	 ecx, DWORD PTR __Where$[ebp]
  0057e	e8 00 00 00 00	 call	 ?_Mynode@const_iterator@?$_Tree@V?$_Tmap_traits@PAUHWND__@@UCWndData@@U?$less@PAUHWND__@@@std@@V?$allocator@U?$pair@QAUHWND__@@UCWndData@@@std@@@4@$0A@@std@@@std@@QBEPAU_Node@?$_Tree_nod@V?$_Tmap_traits@PAUHWND__@@UCWndData@@U?$less@PAUHWND__@@@std@@V?$allocator@U?$pair@QAUHWND__@@UCWndData@@@std@@@4@$0A@@std@@@3@XZ ; std::_Tree<std::_Tmap_traits<HWND__ *,CWndData,std::less<HWND__ *>,std::allocator<std::pair<HWND__ * const,CWndData> >,0> >::const_iterator::_Mynode
  00583	50		 push	 eax
  00584	6a 00		 push	 0
  00586	8b 45 08	 mov	 eax, DWORD PTR ___$ReturnUdt$[ebp]
  00589	50		 push	 eax
  0058a	8b 4d fc	 mov	 ecx, DWORD PTR _this$[ebp]
  0058d	e8 00 00 00 00	 call	 ?_Insert@?$_Tree@V?$_Tmap_traits@PAUHWND__@@UCWndData@@U?$less@PAUHWND__@@@std@@V?$allocator@U?$pair@QAUHWND__@@UCWndData@@@std@@@4@$0A@@std@@@std@@IAE?AViterator@12@_NPAU_Node@?$_Tree_nod@V?$_Tmap_traits@PAUHWND__@@UCWndData@@U?$less@PAUHWND__@@@std@@V?$allocator@U?$pair@QAUHWND__@@UCWndData@@@std@@@4@$0A@@std@@@2@ABU?$pair@QAUHWND__@@UCWndData@@@2@@Z ; std::_Tree<std::_Tmap_traits<HWND__ *,CWndData,std::less<HWND__ *>,std::allocator<std::pair<HWND__ * const,CWndData> >,0> >::_Insert
  00592	8b 45 08	 mov	 eax, DWORD PTR ___$ReturnUdt$[ebp]
  00595	eb 3a		 jmp	 SHORT $L190250
$L190299:

; 574  : 				else
; 575  : 					return (_Insert(true, _Next._Mynode(), _Val));

  00597	8b 4d 10	 mov	 ecx, DWORD PTR __Val$[ebp]
  0059a	51		 push	 ecx
  0059b	8d 4d f4	 lea	 ecx, DWORD PTR __Next$[ebp]
  0059e	e8 00 00 00 00	 call	 ?_Mynode@const_iterator@?$_Tree@V?$_Tmap_traits@PAUHWND__@@UCWndData@@U?$less@PAUHWND__@@@std@@V?$allocator@U?$pair@QAUHWND__@@UCWndData@@@std@@@4@$0A@@std@@@std@@QBEPAU_Node@?$_Tree_nod@V?$_Tmap_traits@PAUHWND__@@UCWndData@@U?$less@PAUHWND__@@@std@@V?$allocator@U?$pair@QAUHWND__@@UCWndData@@@std@@@4@$0A@@std@@@3@XZ ; std::_Tree<std::_Tmap_traits<HWND__ *,CWndData,std::less<HWND__ *>,std::allocator<std::pair<HWND__ * const,CWndData> >,0> >::const_iterator::_Mynode
  005a3	50		 push	 eax
  005a4	6a 01		 push	 1
  005a6	8b 55 08	 mov	 edx, DWORD PTR ___$ReturnUdt$[ebp]
  005a9	52		 push	 edx
  005aa	8b 4d fc	 mov	 ecx, DWORD PTR _this$[ebp]
  005ad	e8 00 00 00 00	 call	 ?_Insert@?$_Tree@V?$_Tmap_traits@PAUHWND__@@UCWndData@@U?$less@PAUHWND__@@@std@@V?$allocator@U?$pair@QAUHWND__@@UCWndData@@@std@@@4@$0A@@std@@@std@@IAE?AViterator@12@_NPAU_Node@?$_Tree_nod@V?$_Tmap_traits@PAUHWND__@@UCWndData@@U?$less@PAUHWND__@@@std@@V?$allocator@U?$pair@QAUHWND__@@UCWndData@@@std@@@4@$0A@@std@@@2@ABU?$pair@QAUHWND__@@UCWndData@@@2@@Z ; std::_Tree<std::_Tmap_traits<HWND__ *,CWndData,std::less<HWND__ *>,std::allocator<std::pair<HWND__ * const,CWndData> >,0> >::_Insert
  005b2	8b 45 08	 mov	 eax, DWORD PTR ___$ReturnUdt$[ebp]
  005b5	eb 1a		 jmp	 SHORT $L190250
$L190254:

; 576  : 				}
; 577  : 			}
; 578  : 
; 579  : 		return (insert(_Val).first);	// try usual insert if all else fails

  005b7	8b 45 10	 mov	 eax, DWORD PTR __Val$[ebp]
  005ba	50		 push	 eax
  005bb	8d 4d d0	 lea	 ecx, DWORD PTR $T192355[ebp]
  005be	51		 push	 ecx
  005bf	8b 4d fc	 mov	 ecx, DWORD PTR _this$[ebp]
  005c2	e8 00 00 00 00	 call	 ?insert@?$_Tree@V?$_Tmap_traits@PAUHWND__@@UCWndData@@U?$less@PAUHWND__@@@std@@V?$allocator@U?$pair@QAUHWND__@@UCWndData@@@std@@@4@$0A@@std@@@std@@QAE?AU?$pair@Viterator@?$_Tree@V?$_Tmap_traits@PAUHWND__@@UCWndData@@U?$less@PAUHWND__@@@std@@V?$allocator@U?$pair@QAUHWND__@@UCWndData@@@std@@@4@$0A@@std@@@std@@_N@2@ABU?$pair@QAUHWND__@@UCWndData@@@2@@Z ; std::_Tree<std::_Tmap_traits<HWND__ *,CWndData,std::less<HWND__ *>,std::allocator<std::pair<HWND__ * const,CWndData> >,0> >::insert
  005c7	8b 10		 mov	 edx, DWORD PTR [eax]
  005c9	8b 45 08	 mov	 eax, DWORD PTR ___$ReturnUdt$[ebp]
  005cc	89 10		 mov	 DWORD PTR [eax], edx
  005ce	8b 45 08	 mov	 eax, DWORD PTR ___$ReturnUdt$[ebp]
$L190250:

; 580  : 		}

  005d1	52		 push	 edx
  005d2	8b cd		 mov	 ecx, ebp
  005d4	50		 push	 eax
  005d5	8d 15 00 00 00
	00		 lea	 edx, DWORD PTR $L192358
  005db	e8 00 00 00 00	 call	 @_RTC_CheckStackVars@8
  005e0	58		 pop	 eax
  005e1	5a		 pop	 edx
  005e2	5f		 pop	 edi
  005e3	83 c4 30	 add	 esp, 48			; 00000030H
  005e6	3b ec		 cmp	 ebp, esp
  005e8	e8 00 00 00 00	 call	 __RTC_CheckEsp
  005ed	8b e5		 mov	 esp, ebp
  005ef	5d		 pop	 ebp
  005f0	c2 0c 00	 ret	 12			; 0000000cH
$L192358:
  005f3	01 00 00 00	 DD	 1
  005f7	00 00 00 00	 DD	 $L192357
$L192357:
  005fb	f4 ff ff ff	 DD	 -12			; fffffff4H
  005ff	04 00 00 00	 DD	 4
  00603	00 00 00 00	 DD	 $L192356
$L192356:
  00607	5f		 DB	 95			; 0000005fH
  00608	4e		 DB	 78			; 0000004eH
  00609	65		 DB	 101			; 00000065H
  0060a	78		 DB	 120			; 00000078H
  0060b	74		 DB	 116			; 00000074H
  0060c	00		 DB	 0
?insert@?$_Tree@V?$_Tmap_traits@PAUHWND__@@UCWndData@@U?$less@PAUHWND__@@@std@@V?$allocator@U?$pair@QAUHWND__@@UCWndData@@@std@@@4@$0A@@std@@@std@@QAE?AViterator@12@V312@ABU?$pair@QAUHWND__@@UCWndData@@@2@@Z ENDP ; std::_Tree<std::_Tmap_traits<HWND__ *,CWndData,std::less<HWND__ *>,std::allocator<std::pair<HWND__ * const,CWndData> >,0> >::insert
_TEXT	ENDS
PUBLIC	?_Lbound@?$_Tree@V?$_Tmap_traits@PAUHWND__@@UCWndData@@U?$less@PAUHWND__@@@std@@V?$allocator@U?$pair@QAUHWND__@@UCWndData@@@std@@@4@$0A@@std@@@std@@IBEPAU_Node@?$_Tree_nod@V?$_Tmap_traits@PAUHWND__@@UCWndData@@U?$less@PAUHWND__@@@std@@V?$allocator@U?$pair@QAUHWND__@@UCWndData@@@std@@@4@$0A@@std@@@2@ABQAUHWND__@@@Z ; std::_Tree<std::_Tmap_traits<HWND__ *,CWndData,std::less<HWND__ *>,std::allocator<std::pair<HWND__ * const,CWndData> >,0> >::_Lbound
; Function compile flags: /Odt /RTCsu
;	COMDAT ?lower_bound@?$_Tree@V?$_Tmap_traits@PAUHWND__@@UCWndData@@U?$less@PAUHWND__@@@std@@V?$allocator@U?$pair@QAUHWND__@@UCWndData@@@std@@@4@$0A@@std@@@std@@QAE?AViterator@12@ABQAUHWND__@@@Z
_TEXT	SEGMENT
_this$ = -4						; size = 4
___$ReturnUdt$ = 8					; size = 4
__Keyval$ = 12						; size = 4
?lower_bound@?$_Tree@V?$_Tmap_traits@PAUHWND__@@UCWndData@@U?$less@PAUHWND__@@@std@@V?$allocator@U?$pair@QAUHWND__@@UCWndData@@@std@@@4@$0A@@std@@@std@@QAE?AViterator@12@ABQAUHWND__@@@Z PROC NEAR ; std::_Tree<std::_Tmap_traits<HWND__ *,CWndData,std::less<HWND__ *>,std::allocator<std::pair<HWND__ * const,CWndData> >,0> >::lower_bound, COMDAT
; _this$ = ecx

; 809  : 		{	// find leftmost node not less than _Keyval in mutable tree

  00000	55		 push	 ebp
  00001	8b ec		 mov	 ebp, esp
  00003	51		 push	 ecx
  00004	c7 45 fc cc cc
	cc cc		 mov	 DWORD PTR [ebp-4], -858993460 ; ccccccccH
  0000b	89 4d fc	 mov	 DWORD PTR _this$[ebp], ecx

; 810  : 		return (_TREE_ITERATOR(_Lbound(_Keyval)));

  0000e	8b 45 0c	 mov	 eax, DWORD PTR __Keyval$[ebp]
  00011	50		 push	 eax
  00012	8b 4d fc	 mov	 ecx, DWORD PTR _this$[ebp]
  00015	e8 00 00 00 00	 call	 ?_Lbound@?$_Tree@V?$_Tmap_traits@PAUHWND__@@UCWndData@@U?$less@PAUHWND__@@@std@@V?$allocator@U?$pair@QAUHWND__@@UCWndData@@@std@@@4@$0A@@std@@@std@@IBEPAU_Node@?$_Tree_nod@V?$_Tmap_traits@PAUHWND__@@UCWndData@@U?$less@PAUHWND__@@@std@@V?$allocator@U?$pair@QAUHWND__@@UCWndData@@@std@@@4@$0A@@std@@@2@ABQAUHWND__@@@Z ; std::_Tree<std::_Tmap_traits<HWND__ *,CWndData,std::less<HWND__ *>,std::allocator<std::pair<HWND__ * const,CWndData> >,0> >::_Lbound
  0001a	50		 push	 eax
  0001b	8b 4d 08	 mov	 ecx, DWORD PTR ___$ReturnUdt$[ebp]
  0001e	e8 00 00 00 00	 call	 ??0iterator@?$_Tree@V?$_Tmap_traits@PAUHWND__@@UCWndData@@U?$less@PAUHWND__@@@std@@V?$allocator@U?$pair@QAUHWND__@@UCWndData@@@std@@@4@$0A@@std@@@std@@QAE@PAU_Node@?$_Tree_nod@V?$_Tmap_traits@PAUHWND__@@UCWndData@@U?$less@PAUHWND__@@@std@@V?$allocator@U?$pair@QAUHWND__@@UCWndData@@@std@@@4@$0A@@std@@@2@@Z ; std::_Tree<std::_Tmap_traits<HWND__ *,CWndData,std::less<HWND__ *>,std::allocator<std::pair<HWND__ * const,CWndData> >,0> >::iterator::iterator
  00023	8b 45 08	 mov	 eax, DWORD PTR ___$ReturnUdt$[ebp]

; 811  : 		}

  00026	83 c4 04	 add	 esp, 4
  00029	3b ec		 cmp	 ebp, esp
  0002b	e8 00 00 00 00	 call	 __RTC_CheckEsp
  00030	8b e5		 mov	 esp, ebp
  00032	5d		 pop	 ebp
  00033	c2 08 00	 ret	 8
?lower_bound@?$_Tree@V?$_Tmap_traits@PAUHWND__@@UCWndData@@U?$less@PAUHWND__@@@std@@V?$allocator@U?$pair@QAUHWND__@@UCWndData@@@std@@@4@$0A@@std@@@std@@QAE?AViterator@12@ABQAUHWND__@@@Z ENDP ; std::_Tree<std::_Tmap_traits<HWND__ *,CWndData,std::less<HWND__ *>,std::allocator<std::pair<HWND__ * const,CWndData> >,0> >::lower_bound
_TEXT	ENDS
PUBLIC	?_Left@?$_Tree@V?$_Tmap_traits@PAUHWND__@@UCWndData@@U?$less@PAUHWND__@@@std@@V?$allocator@U?$pair@QAUHWND__@@UCWndData@@@std@@@4@$0A@@std@@@std@@KAAAPAU_Node@?$_Tree_nod@V?$_Tmap_traits@PAUHWND__@@UCWndData@@U?$less@PAUHWND__@@@std@@V?$allocator@U?$pair@QAUHWND__@@UCWndData@@@std@@@4@$0A@@std@@@2@PAU342@@Z ; std::_Tree<std::_Tmap_traits<HWND__ *,CWndData,std::less<HWND__ *>,std::allocator<std::pair<HWND__ * const,CWndData> >,0> >::_Left
; Function compile flags: /Odt /RTCsu
;	COMDAT ?_Lmost@?$_Tree@V?$_Tmap_traits@PAUHWND__@@UCWndData@@U?$less@PAUHWND__@@@std@@V?$allocator@U?$pair@QAUHWND__@@UCWndData@@@std@@@4@$0A@@std@@@std@@IAEAAPAU_Node@?$_Tree_nod@V?$_Tmap_traits@PAUHWND__@@UCWndData@@U?$less@PAUHWND__@@@std@@V?$allocator@U?$pair@QAUHWND__@@UCWndData@@@std@@@4@$0A@@std@@@2@XZ
_TEXT	SEGMENT
_this$ = -4						; size = 4
?_Lmost@?$_Tree@V?$_Tmap_traits@PAUHWND__@@UCWndData@@U?$less@PAUHWND__@@@std@@V?$allocator@U?$pair@QAUHWND__@@UCWndData@@@std@@@4@$0A@@std@@@std@@IAEAAPAU_Node@?$_Tree_nod@V?$_Tmap_traits@PAUHWND__@@UCWndData@@U?$less@PAUHWND__@@@std@@V?$allocator@U?$pair@QAUHWND__@@UCWndData@@@std@@@4@$0A@@std@@@2@XZ PROC NEAR ; std::_Tree<std::_Tmap_traits<HWND__ *,CWndData,std::less<HWND__ *>,std::allocator<std::pair<HWND__ * const,CWndData> >,0> >::_Lmost, COMDAT
; _this$ = ecx

; 1004 : 		{	// return leftmost node in mutable tree

  00000	55		 push	 ebp
  00001	8b ec		 mov	 ebp, esp
  00003	51		 push	 ecx
  00004	c7 45 fc cc cc
	cc cc		 mov	 DWORD PTR [ebp-4], -858993460 ; ccccccccH
  0000b	89 4d fc	 mov	 DWORD PTR _this$[ebp], ecx

; 1005 : 		return (_Left(_Myhead));

  0000e	8b 45 fc	 mov	 eax, DWORD PTR _this$[ebp]
  00011	8b 48 04	 mov	 ecx, DWORD PTR [eax+4]
  00014	51		 push	 ecx
  00015	e8 00 00 00 00	 call	 ?_Left@?$_Tree@V?$_Tmap_traits@PAUHWND__@@UCWndData@@U?$less@PAUHWND__@@@std@@V?$allocator@U?$pair@QAUHWND__@@UCWndData@@@std@@@4@$0A@@std@@@std@@KAAAPAU_Node@?$_Tree_nod@V?$_Tmap_traits@PAUHWND__@@UCWndData@@U?$less@PAUHWND__@@@std@@V?$allocator@U?$pair@QAUHWND__@@UCWndData@@@std@@@4@$0A@@std@@@2@PAU342@@Z ; std::_Tree<std::_Tmap_traits<HWND__ *,CWndData,std::less<HWND__ *>,std::allocator<std::pair<HWND__ * const,CWndData> >,0> >::_Left
  0001a	83 c4 04	 add	 esp, 4

; 1006 : 		}

  0001d	83 c4 04	 add	 esp, 4
  00020	3b ec		 cmp	 ebp, esp
  00022	e8 00 00 00 00	 call	 __RTC_CheckEsp
  00027	8b e5		 mov	 esp, ebp
  00029	5d		 pop	 ebp
  0002a	c3		 ret	 0
?_Lmost@?$_Tree@V?$_Tmap_traits@PAUHWND__@@UCWndData@@U?$less@PAUHWND__@@@std@@V?$allocator@U?$pair@QAUHWND__@@UCWndData@@@std@@@4@$0A@@std@@@std@@IAEAAPAU_Node@?$_Tree_nod@V?$_Tmap_traits@PAUHWND__@@UCWndData@@U?$less@PAUHWND__@@@std@@V?$allocator@U?$pair@QAUHWND__@@UCWndData@@@std@@@4@$0A@@std@@@2@XZ ENDP ; std::_Tree<std::_Tmap_traits<HWND__ *,CWndData,std::less<HWND__ *>,std::allocator<std::pair<HWND__ * const,CWndData> >,0> >::_Lmost
_TEXT	ENDS
PUBLIC	?deallocate@?$allocator@U_Node@?$_Tree_nod@V?$_Tmap_traits@PAUHWND__@@UCWndData@@U?$less@PAUHWND__@@@std@@V?$allocator@U?$pair@QAUHWND__@@UCWndData@@@std@@@4@$0A@@std@@@std@@@std@@QAEXPAU_Node@?$_Tree_nod@V?$_Tmap_traits@PAUHWND__@@UCWndData@@U?$less@PAUHWND__@@@std@@V?$allocator@U?$pair@QAUHWND__@@UCWndData@@@std@@@4@$0A@@std@@@2@I@Z ; std::allocator<std::_Tree_nod<std::_Tmap_traits<HWND__ *,CWndData,std::less<HWND__ *>,std::allocator<std::pair<HWND__ * const,CWndData> >,0> >::_Node>::deallocate
PUBLIC	?destroy@?$allocator@PAU_Node@?$_Tree_nod@V?$_Tmap_traits@PAUHWND__@@UCWndData@@U?$less@PAUHWND__@@@std@@V?$allocator@U?$pair@QAUHWND__@@UCWndData@@@std@@@4@$0A@@std@@@std@@@std@@QAEXPAPAU_Node@?$_Tree_nod@V?$_Tmap_traits@PAUHWND__@@UCWndData@@U?$less@PAUHWND__@@@std@@V?$allocator@U?$pair@QAUHWND__@@UCWndData@@@std@@@4@$0A@@std@@@2@@Z ; std::allocator<std::_Tree_nod<std::_Tmap_traits<HWND__ *,CWndData,std::less<HWND__ *>,std::allocator<std::pair<HWND__ * const,CWndData> >,0> >::_Node *>::destroy
PUBLIC	?_Parent@?$_Tree@V?$_Tmap_traits@PAUHWND__@@UCWndData@@U?$less@PAUHWND__@@@std@@V?$allocator@U?$pair@QAUHWND__@@UCWndData@@@std@@@4@$0A@@std@@@std@@KAAAPAU_Node@?$_Tree_nod@V?$_Tmap_traits@PAUHWND__@@UCWndData@@U?$less@PAUHWND__@@@std@@V?$allocator@U?$pair@QAUHWND__@@UCWndData@@@std@@@4@$0A@@std@@@2@PAU342@@Z ; std::_Tree<std::_Tmap_traits<HWND__ *,CWndData,std::less<HWND__ *>,std::allocator<std::pair<HWND__ * const,CWndData> >,0> >::_Parent
PUBLIC	?erase@?$_Tree@V?$_Tmap_traits@PAUHWND__@@UCWndData@@U?$less@PAUHWND__@@@std@@V?$allocator@U?$pair@QAUHWND__@@UCWndData@@@std@@@4@$0A@@std@@@std@@QAE?AViterator@12@V312@0@Z ; std::_Tree<std::_Tmap_traits<HWND__ *,CWndData,std::less<HWND__ *>,std::allocator<std::pair<HWND__ * const,CWndData> >,0> >::erase
; Function compile flags: /Odt /RTCsu
;	COMDAT ?_Tidy@?$_Tree@V?$_Tmap_traits@PAUHWND__@@UCWndData@@U?$less@PAUHWND__@@@std@@V?$allocator@U?$pair@QAUHWND__@@UCWndData@@@std@@@4@$0A@@std@@@std@@IAEXXZ
_TEXT	SEGMENT
$T192364 = -16						; size = 4
$T192363 = -12						; size = 4
$T192362 = -8						; size = 4
_this$ = -4						; size = 4
?_Tidy@?$_Tree@V?$_Tmap_traits@PAUHWND__@@UCWndData@@U?$less@PAUHWND__@@@std@@V?$allocator@U?$pair@QAUHWND__@@UCWndData@@@std@@@4@$0A@@std@@@std@@IAEXXZ PROC NEAR ; std::_Tree<std::_Tmap_traits<HWND__ *,CWndData,std::less<HWND__ *>,std::allocator<std::pair<HWND__ * const,CWndData> >,0> >::_Tidy, COMDAT
; _this$ = ecx

; 1142 : 		{	// free all storage

  00000	55		 push	 ebp
  00001	8b ec		 mov	 ebp, esp
  00003	83 ec 10	 sub	 esp, 16			; 00000010H
  00006	b8 cc cc cc cc	 mov	 eax, -858993460		; ccccccccH
  0000b	89 45 f0	 mov	 DWORD PTR [ebp-16], eax
  0000e	89 45 f4	 mov	 DWORD PTR [ebp-12], eax
  00011	89 45 f8	 mov	 DWORD PTR [ebp-8], eax
  00014	89 45 fc	 mov	 DWORD PTR [ebp-4], eax
  00017	89 4d fc	 mov	 DWORD PTR _this$[ebp], ecx

; 1143 : 		erase(begin(), end());

  0001a	8d 45 f8	 lea	 eax, DWORD PTR $T192362[ebp]
  0001d	50		 push	 eax
  0001e	8b 4d fc	 mov	 ecx, DWORD PTR _this$[ebp]
  00021	e8 00 00 00 00	 call	 ?end@?$_Tree@V?$_Tmap_traits@PAUHWND__@@UCWndData@@U?$less@PAUHWND__@@@std@@V?$allocator@U?$pair@QAUHWND__@@UCWndData@@@std@@@4@$0A@@std@@@std@@QAE?AViterator@12@XZ ; std::_Tree<std::_Tmap_traits<HWND__ *,CWndData,std::less<HWND__ *>,std::allocator<std::pair<HWND__ * const,CWndData> >,0> >::end
  00026	8b 08		 mov	 ecx, DWORD PTR [eax]
  00028	51		 push	 ecx
  00029	8d 55 f4	 lea	 edx, DWORD PTR $T192363[ebp]
  0002c	52		 push	 edx
  0002d	8b 4d fc	 mov	 ecx, DWORD PTR _this$[ebp]
  00030	e8 00 00 00 00	 call	 ?begin@?$_Tree@V?$_Tmap_traits@PAUHWND__@@UCWndData@@U?$less@PAUHWND__@@@std@@V?$allocator@U?$pair@QAUHWND__@@UCWndData@@@std@@@4@$0A@@std@@@std@@QAE?AViterator@12@XZ ; std::_Tree<std::_Tmap_traits<HWND__ *,CWndData,std::less<HWND__ *>,std::allocator<std::pair<HWND__ * const,CWndData> >,0> >::begin
  00035	8b 00		 mov	 eax, DWORD PTR [eax]
  00037	50		 push	 eax
  00038	8d 4d f0	 lea	 ecx, DWORD PTR $T192364[ebp]
  0003b	51		 push	 ecx
  0003c	8b 4d fc	 mov	 ecx, DWORD PTR _this$[ebp]
  0003f	e8 00 00 00 00	 call	 ?erase@?$_Tree@V?$_Tmap_traits@PAUHWND__@@UCWndData@@U?$less@PAUHWND__@@@std@@V?$allocator@U?$pair@QAUHWND__@@UCWndData@@@std@@@4@$0A@@std@@@std@@QAE?AViterator@12@V312@0@Z ; std::_Tree<std::_Tmap_traits<HWND__ *,CWndData,std::less<HWND__ *>,std::allocator<std::pair<HWND__ * const,CWndData> >,0> >::erase

; 1144 : 		this->_Alptr.destroy(&_Left(_Myhead));

  00044	8b 55 fc	 mov	 edx, DWORD PTR _this$[ebp]
  00047	8b 42 04	 mov	 eax, DWORD PTR [edx+4]
  0004a	50		 push	 eax
  0004b	e8 00 00 00 00	 call	 ?_Left@?$_Tree@V?$_Tmap_traits@PAUHWND__@@UCWndData@@U?$less@PAUHWND__@@@std@@V?$allocator@U?$pair@QAUHWND__@@UCWndData@@@std@@@4@$0A@@std@@@std@@KAAAPAU_Node@?$_Tree_nod@V?$_Tmap_traits@PAUHWND__@@UCWndData@@U?$less@PAUHWND__@@@std@@V?$allocator@U?$pair@QAUHWND__@@UCWndData@@@std@@@4@$0A@@std@@@2@PAU342@@Z ; std::_Tree<std::_Tmap_traits<HWND__ *,CWndData,std::less<HWND__ *>,std::allocator<std::pair<HWND__ * const,CWndData> >,0> >::_Left
  00050	83 c4 04	 add	 esp, 4
  00053	50		 push	 eax
  00054	8b 4d fc	 mov	 ecx, DWORD PTR _this$[ebp]
  00057	83 c1 02	 add	 ecx, 2
  0005a	e8 00 00 00 00	 call	 ?destroy@?$allocator@PAU_Node@?$_Tree_nod@V?$_Tmap_traits@PAUHWND__@@UCWndData@@U?$less@PAUHWND__@@@std@@V?$allocator@U?$pair@QAUHWND__@@UCWndData@@@std@@@4@$0A@@std@@@std@@@std@@QAEXPAPAU_Node@?$_Tree_nod@V?$_Tmap_traits@PAUHWND__@@UCWndData@@U?$less@PAUHWND__@@@std@@V?$allocator@U?$pair@QAUHWND__@@UCWndData@@@std@@@4@$0A@@std@@@2@@Z ; std::allocator<std::_Tree_nod<std::_Tmap_traits<HWND__ *,CWndData,std::less<HWND__ *>,std::allocator<std::pair<HWND__ * const,CWndData> >,0> >::_Node *>::destroy

; 1145 : 		this->_Alptr.destroy(&_Parent(_Myhead));

  0005f	8b 4d fc	 mov	 ecx, DWORD PTR _this$[ebp]
  00062	8b 51 04	 mov	 edx, DWORD PTR [ecx+4]
  00065	52		 push	 edx
  00066	e8 00 00 00 00	 call	 ?_Parent@?$_Tree@V?$_Tmap_traits@PAUHWND__@@UCWndData@@U?$less@PAUHWND__@@@std@@V?$allocator@U?$pair@QAUHWND__@@UCWndData@@@std@@@4@$0A@@std@@@std@@KAAAPAU_Node@?$_Tree_nod@V?$_Tmap_traits@PAUHWND__@@UCWndData@@U?$less@PAUHWND__@@@std@@V?$allocator@U?$pair@QAUHWND__@@UCWndData@@@std@@@4@$0A@@std@@@2@PAU342@@Z ; std::_Tree<std::_Tmap_traits<HWND__ *,CWndData,std::less<HWND__ *>,std::allocator<std::pair<HWND__ * const,CWndData> >,0> >::_Parent
  0006b	83 c4 04	 add	 esp, 4
  0006e	50		 push	 eax
  0006f	8b 4d fc	 mov	 ecx, DWORD PTR _this$[ebp]
  00072	83 c1 02	 add	 ecx, 2
  00075	e8 00 00 00 00	 call	 ?destroy@?$allocator@PAU_Node@?$_Tree_nod@V?$_Tmap_traits@PAUHWND__@@UCWndData@@U?$less@PAUHWND__@@@std@@V?$allocator@U?$pair@QAUHWND__@@UCWndData@@@std@@@4@$0A@@std@@@std@@@std@@QAEXPAPAU_Node@?$_Tree_nod@V?$_Tmap_traits@PAUHWND__@@UCWndData@@U?$less@PAUHWND__@@@std@@V?$allocator@U?$pair@QAUHWND__@@UCWndData@@@std@@@4@$0A@@std@@@2@@Z ; std::allocator<std::_Tree_nod<std::_Tmap_traits<HWND__ *,CWndData,std::less<HWND__ *>,std::allocator<std::pair<HWND__ * const,CWndData> >,0> >::_Node *>::destroy

; 1146 : 		this->_Alptr.destroy(&_Right(_Myhead));

  0007a	8b 45 fc	 mov	 eax, DWORD PTR _this$[ebp]
  0007d	8b 48 04	 mov	 ecx, DWORD PTR [eax+4]
  00080	51		 push	 ecx
  00081	e8 00 00 00 00	 call	 ?_Right@?$_Tree@V?$_Tmap_traits@PAUHWND__@@UCWndData@@U?$less@PAUHWND__@@@std@@V?$allocator@U?$pair@QAUHWND__@@UCWndData@@@std@@@4@$0A@@std@@@std@@KAAAPAU_Node@?$_Tree_nod@V?$_Tmap_traits@PAUHWND__@@UCWndData@@U?$less@PAUHWND__@@@std@@V?$allocator@U?$pair@QAUHWND__@@UCWndData@@@std@@@4@$0A@@std@@@2@PAU342@@Z ; std::_Tree<std::_Tmap_traits<HWND__ *,CWndData,std::less<HWND__ *>,std::allocator<std::pair<HWND__ * const,CWndData> >,0> >::_Right
  00086	83 c4 04	 add	 esp, 4
  00089	50		 push	 eax
  0008a	8b 4d fc	 mov	 ecx, DWORD PTR _this$[ebp]
  0008d	83 c1 02	 add	 ecx, 2
  00090	e8 00 00 00 00	 call	 ?destroy@?$allocator@PAU_Node@?$_Tree_nod@V?$_Tmap_traits@PAUHWND__@@UCWndData@@U?$less@PAUHWND__@@@std@@V?$allocator@U?$pair@QAUHWND__@@UCWndData@@@std@@@4@$0A@@std@@@std@@@std@@QAEXPAPAU_Node@?$_Tree_nod@V?$_Tmap_traits@PAUHWND__@@UCWndData@@U?$less@PAUHWND__@@@std@@V?$allocator@U?$pair@QAUHWND__@@UCWndData@@@std@@@4@$0A@@std@@@2@@Z ; std::allocator<std::_Tree_nod<std::_Tmap_traits<HWND__ *,CWndData,std::less<HWND__ *>,std::allocator<std::pair<HWND__ * const,CWndData> >,0> >::_Node *>::destroy

; 1147 : 		this->_Alnod.deallocate(_Myhead, 1);

  00095	6a 01		 push	 1
  00097	8b 55 fc	 mov	 edx, DWORD PTR _this$[ebp]
  0009a	8b 42 04	 mov	 eax, DWORD PTR [edx+4]
  0009d	50		 push	 eax
  0009e	8b 4d fc	 mov	 ecx, DWORD PTR _this$[ebp]
  000a1	83 c1 01	 add	 ecx, 1
  000a4	e8 00 00 00 00	 call	 ?deallocate@?$allocator@U_Node@?$_Tree_nod@V?$_Tmap_traits@PAUHWND__@@UCWndData@@U?$less@PAUHWND__@@@std@@V?$allocator@U?$pair@QAUHWND__@@UCWndData@@@std@@@4@$0A@@std@@@std@@@std@@QAEXPAU_Node@?$_Tree_nod@V?$_Tmap_traits@PAUHWND__@@UCWndData@@U?$less@PAUHWND__@@@std@@V?$allocator@U?$pair@QAUHWND__@@UCWndData@@@std@@@4@$0A@@std@@@2@I@Z ; std::allocator<std::_Tree_nod<std::_Tmap_traits<HWND__ *,CWndData,std::less<HWND__ *>,std::allocator<std::pair<HWND__ * const,CWndData> >,0> >::_Node>::deallocate

; 1148 : 		_Myhead = 0, _Mysize = 0;

  000a9	8b 4d fc	 mov	 ecx, DWORD PTR _this$[ebp]
  000ac	c7 41 04 00 00
	00 00		 mov	 DWORD PTR [ecx+4], 0
  000b3	8b 55 fc	 mov	 edx, DWORD PTR _this$[ebp]
  000b6	c7 42 08 00 00
	00 00		 mov	 DWORD PTR [edx+8], 0

; 1149 : 		}

  000bd	83 c4 10	 add	 esp, 16			; 00000010H
  000c0	3b ec		 cmp	 ebp, esp
  000c2	e8 00 00 00 00	 call	 __RTC_CheckEsp
  000c7	8b e5		 mov	 esp, ebp
  000c9	5d		 pop	 ebp
  000ca	c3		 ret	 0
?_Tidy@?$_Tree@V?$_Tmap_traits@PAUHWND__@@UCWndData@@U?$less@PAUHWND__@@@std@@V?$allocator@U?$pair@QAUHWND__@@UCWndData@@@std@@@4@$0A@@std@@@std@@IAEXXZ ENDP ; std::_Tree<std::_Tmap_traits<HWND__ *,CWndData,std::less<HWND__ *>,std::allocator<std::pair<HWND__ * const,CWndData> >,0> >::_Tidy
; Function compile flags: /Odt /RTCsu
; File d:\program files (x86)\microsoft visual studio .net 2003\vc7\include\xmemory
_TEXT	ENDS
;	COMDAT ??0?$allocator@U?$pair@QAUHWND__@@UCWndData@@@std@@@std@@QAE@XZ
_TEXT	SEGMENT
_this$ = -4						; size = 4
??0?$allocator@U?$pair@QAUHWND__@@UCWndData@@@std@@@std@@QAE@XZ PROC NEAR ; std::allocator<std::pair<HWND__ * const,CWndData> >::allocator<std::pair<HWND__ * const,CWndData> >, COMDAT
; _this$ = ecx

; 111  : 	allocator()

  00000	55		 push	 ebp
  00001	8b ec		 mov	 ebp, esp
  00003	51		 push	 ecx
  00004	c7 45 fc cc cc
	cc cc		 mov	 DWORD PTR [ebp-4], -858993460 ; ccccccccH
  0000b	89 4d fc	 mov	 DWORD PTR _this$[ebp], ecx

; 112  : 		{	// construct default allocator (do nothing)
; 113  : 		}

  0000e	8b 45 fc	 mov	 eax, DWORD PTR _this$[ebp]
  00011	8b e5		 mov	 esp, ebp
  00013	5d		 pop	 ebp
  00014	c3		 ret	 0
??0?$allocator@U?$pair@QAUHWND__@@UCWndData@@@std@@@std@@QAE@XZ ENDP ; std::allocator<std::pair<HWND__ * const,CWndData> >::allocator<std::pair<HWND__ * const,CWndData> >
; Function compile flags: /Odt /RTCsu
; File d:\program files (x86)\microsoft visual studio .net 2003\vc7\include\functional
_TEXT	ENDS
;	COMDAT ??R?$less@PAUHWND__@@@std@@QBE_NABQAUHWND__@@0@Z
_TEXT	SEGMENT
_this$ = -4						; size = 4
__Left$ = 8						; size = 4
__Right$ = 12						; size = 4
??R?$less@PAUHWND__@@@std@@QBE_NABQAUHWND__@@0@Z PROC NEAR ; std::less<HWND__ *>::operator(), COMDAT
; _this$ = ecx

; 138  : 		{	// apply operator< to operands

  00000	55		 push	 ebp
  00001	8b ec		 mov	 ebp, esp
  00003	51		 push	 ecx
  00004	c7 45 fc cc cc
	cc cc		 mov	 DWORD PTR [ebp-4], -858993460 ; ccccccccH
  0000b	89 4d fc	 mov	 DWORD PTR _this$[ebp], ecx

; 139  : 		return (_Left < _Right);

  0000e	8b 45 08	 mov	 eax, DWORD PTR __Left$[ebp]
  00011	8b 4d 0c	 mov	 ecx, DWORD PTR __Right$[ebp]
  00014	8b 10		 mov	 edx, DWORD PTR [eax]
  00016	3b 11		 cmp	 edx, DWORD PTR [ecx]
  00018	1b c0		 sbb	 eax, eax
  0001a	f7 d8		 neg	 eax

; 140  : 		}

  0001c	8b e5		 mov	 esp, ebp
  0001e	5d		 pop	 ebp
  0001f	c2 08 00	 ret	 8
??R?$less@PAUHWND__@@@std@@QBE_NABQAUHWND__@@0@Z ENDP	; std::less<HWND__ *>::operator()
; Function compile flags: /Odt /RTCsu
; File d:\program files (x86)\microsoft visual studio .net 2003\vc7\include\vector
_TEXT	ENDS
;	COMDAT ?capacity@?$vector@PAVCHostWnd@@V?$allocator@PAVCHostWnd@@@std@@@std@@QBEIXZ
_TEXT	SEGMENT
tv70 = -8						; size = 4
_this$ = -4						; size = 4
?capacity@?$vector@PAVCHostWnd@@V?$allocator@PAVCHostWnd@@@std@@@std@@QBEIXZ PROC NEAR ; std::vector<CHostWnd *,std::allocator<CHostWnd *> >::capacity, COMDAT
; _this$ = ecx

; 457  : 		{	// return current length of allocated storage

  00000	55		 push	 ebp
  00001	8b ec		 mov	 ebp, esp
  00003	83 ec 08	 sub	 esp, 8
  00006	c7 45 f8 cc cc
	cc cc		 mov	 DWORD PTR [ebp-8], -858993460 ; ccccccccH
  0000d	c7 45 fc cc cc
	cc cc		 mov	 DWORD PTR [ebp-4], -858993460 ; ccccccccH
  00014	89 4d fc	 mov	 DWORD PTR _this$[ebp], ecx

; 458  : 		return (_Myfirst == 0 ? 0 : _Myend - _Myfirst);

  00017	8b 45 fc	 mov	 eax, DWORD PTR _this$[ebp]
  0001a	83 78 04 00	 cmp	 DWORD PTR [eax+4], 0
  0001e	75 09		 jne	 SHORT $L192368
  00020	c7 45 f8 00 00
	00 00		 mov	 DWORD PTR tv70[ebp], 0
  00027	eb 12		 jmp	 SHORT $L192369
$L192368:
  00029	8b 4d fc	 mov	 ecx, DWORD PTR _this$[ebp]
  0002c	8b 55 fc	 mov	 edx, DWORD PTR _this$[ebp]
  0002f	8b 41 0c	 mov	 eax, DWORD PTR [ecx+12]
  00032	2b 42 04	 sub	 eax, DWORD PTR [edx+4]
  00035	c1 f8 02	 sar	 eax, 2
  00038	89 45 f8	 mov	 DWORD PTR tv70[ebp], eax
$L192369:
  0003b	8b 45 f8	 mov	 eax, DWORD PTR tv70[ebp]

; 459  : 		}

  0003e	8b e5		 mov	 esp, ebp
  00040	5d		 pop	 ebp
  00041	c3		 ret	 0
?capacity@?$vector@PAVCHostWnd@@V?$allocator@PAVCHostWnd@@@std@@@std@@QBEIXZ ENDP ; std::vector<CHostWnd *,std::allocator<CHostWnd *> >::capacity
_TEXT	ENDS
PUBLIC	??0iterator@?$vector@PAVCHostWnd@@V?$allocator@PAVCHostWnd@@@std@@@std@@QAE@PAPAVCHostWnd@@@Z ; std::vector<CHostWnd *,std::allocator<CHostWnd *> >::iterator::iterator
; Function compile flags: /Odt /RTCsu
;	COMDAT ?begin@?$vector@PAVCHostWnd@@V?$allocator@PAVCHostWnd@@@std@@@std@@QAE?AViterator@12@XZ
_TEXT	SEGMENT
_this$ = -4						; size = 4
___$ReturnUdt$ = 8					; size = 4
?begin@?$vector@PAVCHostWnd@@V?$allocator@PAVCHostWnd@@@std@@@std@@QAE?AViterator@12@XZ PROC NEAR ; std::vector<CHostWnd *,std::allocator<CHostWnd *> >::begin, COMDAT
; _this$ = ecx

; 462  : 		{	// return iterator for beginning of mutable sequence

  00000	55		 push	 ebp
  00001	8b ec		 mov	 ebp, esp
  00003	51		 push	 ecx
  00004	c7 45 fc cc cc
	cc cc		 mov	 DWORD PTR [ebp-4], -858993460 ; ccccccccH
  0000b	89 4d fc	 mov	 DWORD PTR _this$[ebp], ecx

; 463  : 		return (iterator(_Myfirst));

  0000e	8b 45 fc	 mov	 eax, DWORD PTR _this$[ebp]
  00011	8b 48 04	 mov	 ecx, DWORD PTR [eax+4]
  00014	51		 push	 ecx
  00015	8b 4d 08	 mov	 ecx, DWORD PTR ___$ReturnUdt$[ebp]
  00018	e8 00 00 00 00	 call	 ??0iterator@?$vector@PAVCHostWnd@@V?$allocator@PAVCHostWnd@@@std@@@std@@QAE@PAPAVCHostWnd@@@Z ; std::vector<CHostWnd *,std::allocator<CHostWnd *> >::iterator::iterator
  0001d	8b 45 08	 mov	 eax, DWORD PTR ___$ReturnUdt$[ebp]

; 464  : 		}

  00020	83 c4 04	 add	 esp, 4
  00023	3b ec		 cmp	 ebp, esp
  00025	e8 00 00 00 00	 call	 __RTC_CheckEsp
  0002a	8b e5		 mov	 esp, ebp
  0002c	5d		 pop	 ebp
  0002d	c2 04 00	 ret	 4
?begin@?$vector@PAVCHostWnd@@V?$allocator@PAVCHostWnd@@@std@@@std@@QAE?AViterator@12@XZ ENDP ; std::vector<CHostWnd *,std::allocator<CHostWnd *> >::begin
; Function compile flags: /Odt /RTCsu
_TEXT	ENDS
;	COMDAT ?end@?$vector@PAVCHostWnd@@V?$allocator@PAVCHostWnd@@@std@@@std@@QAE?AViterator@12@XZ
_TEXT	SEGMENT
_this$ = -4						; size = 4
___$ReturnUdt$ = 8					; size = 4
?end@?$vector@PAVCHostWnd@@V?$allocator@PAVCHostWnd@@@std@@@std@@QAE?AViterator@12@XZ PROC NEAR ; std::vector<CHostWnd *,std::allocator<CHostWnd *> >::end, COMDAT
; _this$ = ecx

; 472  : 		{	// return iterator for end of mutable sequence

  00000	55		 push	 ebp
  00001	8b ec		 mov	 ebp, esp
  00003	51		 push	 ecx
  00004	c7 45 fc cc cc
	cc cc		 mov	 DWORD PTR [ebp-4], -858993460 ; ccccccccH
  0000b	89 4d fc	 mov	 DWORD PTR _this$[ebp], ecx

; 473  : 		return (iterator(_Mylast));

  0000e	8b 45 fc	 mov	 eax, DWORD PTR _this$[ebp]
  00011	8b 48 08	 mov	 ecx, DWORD PTR [eax+8]
  00014	51		 push	 ecx
  00015	8b 4d 08	 mov	 ecx, DWORD PTR ___$ReturnUdt$[ebp]
  00018	e8 00 00 00 00	 call	 ??0iterator@?$vector@PAVCHostWnd@@V?$allocator@PAVCHostWnd@@@std@@@std@@QAE@PAPAVCHostWnd@@@Z ; std::vector<CHostWnd *,std::allocator<CHostWnd *> >::iterator::iterator
  0001d	8b 45 08	 mov	 eax, DWORD PTR ___$ReturnUdt$[ebp]

; 474  : 		}

  00020	83 c4 04	 add	 esp, 4
  00023	3b ec		 cmp	 ebp, esp
  00025	e8 00 00 00 00	 call	 __RTC_CheckEsp
  0002a	8b e5		 mov	 esp, ebp
  0002c	5d		 pop	 ebp
  0002d	c2 04 00	 ret	 4
?end@?$vector@PAVCHostWnd@@V?$allocator@PAVCHostWnd@@@std@@@std@@QAE?AViterator@12@XZ ENDP ; std::vector<CHostWnd *,std::allocator<CHostWnd *> >::end
_TEXT	ENDS
PUBLIC	??Giterator@?$vector@PAVCHostWnd@@V?$allocator@PAVCHostWnd@@@std@@@std@@QBEHABVconst_iterator@12@@Z ; std::vector<CHostWnd *,std::allocator<CHostWnd *> >::iterator::operator-
PUBLIC	?_Insert_n@?$vector@PAVCHostWnd@@V?$allocator@PAVCHostWnd@@@std@@@std@@IAEXViterator@12@IABQAVCHostWnd@@@Z ; std::vector<CHostWnd *,std::allocator<CHostWnd *> >::_Insert_n
; Function compile flags: /Odt /RTCsu
;	COMDAT ?insert@?$vector@PAVCHostWnd@@V?$allocator@PAVCHostWnd@@@std@@@std@@QAE?AViterator@12@V312@ABQAVCHostWnd@@@Z
_TEXT	SEGMENT
tv73 = -20						; size = 4
$T192376 = -16						; size = 4
$T192373 = -12						; size = 4
__Off$ = -8						; size = 4
_this$ = -4						; size = 4
___$ReturnUdt$ = 8					; size = 4
__Where$ = 12						; size = 4
__Val$ = 16						; size = 4
?insert@?$vector@PAVCHostWnd@@V?$allocator@PAVCHostWnd@@@std@@@std@@QAE?AViterator@12@V312@ABQAVCHostWnd@@@Z PROC NEAR ; std::vector<CHostWnd *,std::allocator<CHostWnd *> >::insert, COMDAT
; _this$ = ecx

; 620  : 		{	// insert _Val at _Where

  00000	55		 push	 ebp
  00001	8b ec		 mov	 ebp, esp
  00003	83 ec 14	 sub	 esp, 20			; 00000014H
  00006	b8 cc cc cc cc	 mov	 eax, -858993460		; ccccccccH
  0000b	89 45 ec	 mov	 DWORD PTR [ebp-20], eax
  0000e	89 45 f0	 mov	 DWORD PTR [ebp-16], eax
  00011	89 45 f4	 mov	 DWORD PTR [ebp-12], eax
  00014	89 45 f8	 mov	 DWORD PTR [ebp-8], eax
  00017	89 45 fc	 mov	 DWORD PTR [ebp-4], eax
  0001a	89 4d fc	 mov	 DWORD PTR _this$[ebp], ecx

; 621  : 		size_type _Off = size() == 0 ? 0 : _Where - begin();

  0001d	8b 4d fc	 mov	 ecx, DWORD PTR _this$[ebp]
  00020	e8 00 00 00 00	 call	 ?size@?$vector@PAVCHostWnd@@V?$allocator@PAVCHostWnd@@@std@@@std@@QBEIXZ ; std::vector<CHostWnd *,std::allocator<CHostWnd *> >::size
  00025	85 c0		 test	 eax, eax
  00027	75 09		 jne	 SHORT $L192374
  00029	c7 45 ec 00 00
	00 00		 mov	 DWORD PTR tv73[ebp], 0
  00030	eb 18		 jmp	 SHORT $L192375
$L192374:
  00032	8d 45 f4	 lea	 eax, DWORD PTR $T192373[ebp]
  00035	50		 push	 eax
  00036	8b 4d fc	 mov	 ecx, DWORD PTR _this$[ebp]
  00039	e8 00 00 00 00	 call	 ?begin@?$vector@PAVCHostWnd@@V?$allocator@PAVCHostWnd@@@std@@@std@@QAE?AViterator@12@XZ ; std::vector<CHostWnd *,std::allocator<CHostWnd *> >::begin
  0003e	50		 push	 eax
  0003f	8d 4d 0c	 lea	 ecx, DWORD PTR __Where$[ebp]
  00042	e8 00 00 00 00	 call	 ??Giterator@?$vector@PAVCHostWnd@@V?$allocator@PAVCHostWnd@@@std@@@std@@QBEHABVconst_iterator@12@@Z ; std::vector<CHostWnd *,std::allocator<CHostWnd *> >::iterator::operator-
  00047	89 45 ec	 mov	 DWORD PTR tv73[ebp], eax
$L192375:
  0004a	8b 4d ec	 mov	 ecx, DWORD PTR tv73[ebp]
  0004d	89 4d f8	 mov	 DWORD PTR __Off$[ebp], ecx

; 622  : 		_Insert_n(_Where, (size_type)1, _Val);

  00050	8b 55 10	 mov	 edx, DWORD PTR __Val$[ebp]
  00053	52		 push	 edx
  00054	6a 01		 push	 1
  00056	8b 45 0c	 mov	 eax, DWORD PTR __Where$[ebp]
  00059	50		 push	 eax
  0005a	8b 4d fc	 mov	 ecx, DWORD PTR _this$[ebp]
  0005d	e8 00 00 00 00	 call	 ?_Insert_n@?$vector@PAVCHostWnd@@V?$allocator@PAVCHostWnd@@@std@@@std@@IAEXViterator@12@IABQAVCHostWnd@@@Z ; std::vector<CHostWnd *,std::allocator<CHostWnd *> >::_Insert_n

; 623  : 		return (begin() + _Off);

  00062	8b 4d f8	 mov	 ecx, DWORD PTR __Off$[ebp]
  00065	51		 push	 ecx
  00066	8b 55 08	 mov	 edx, DWORD PTR ___$ReturnUdt$[ebp]
  00069	52		 push	 edx
  0006a	8d 45 f0	 lea	 eax, DWORD PTR $T192376[ebp]
  0006d	50		 push	 eax
  0006e	8b 4d fc	 mov	 ecx, DWORD PTR _this$[ebp]
  00071	e8 00 00 00 00	 call	 ?begin@?$vector@PAVCHostWnd@@V?$allocator@PAVCHostWnd@@@std@@@std@@QAE?AViterator@12@XZ ; std::vector<CHostWnd *,std::allocator<CHostWnd *> >::begin
  00076	8b c8		 mov	 ecx, eax
  00078	e8 00 00 00 00	 call	 ??Hiterator@?$vector@PAVCHostWnd@@V?$allocator@PAVCHostWnd@@@std@@@std@@QBE?AV012@H@Z ; std::vector<CHostWnd *,std::allocator<CHostWnd *> >::iterator::operator+
  0007d	8b 45 08	 mov	 eax, DWORD PTR ___$ReturnUdt$[ebp]

; 624  : 		}

  00080	83 c4 14	 add	 esp, 20			; 00000014H
  00083	3b ec		 cmp	 ebp, esp
  00085	e8 00 00 00 00	 call	 __RTC_CheckEsp
  0008a	8b e5		 mov	 esp, ebp
  0008c	5d		 pop	 ebp
  0008d	c2 0c 00	 ret	 12			; 0000000cH
?insert@?$vector@PAVCHostWnd@@V?$allocator@PAVCHostWnd@@@std@@@std@@QAE?AViterator@12@V312@ABQAVCHostWnd@@@Z ENDP ; std::vector<CHostWnd *,std::allocator<CHostWnd *> >::insert
_TEXT	ENDS
PUBLIC	?allocate@?$allocator@PAVCHostWnd@@@std@@QAEPAPAVCHostWnd@@I@Z ; std::allocator<CHostWnd *>::allocate
PUBLIC	?max_size@?$vector@PAVCHostWnd@@V?$allocator@PAVCHostWnd@@@std@@@std@@QBEIXZ ; std::vector<CHostWnd *,std::allocator<CHostWnd *> >::max_size
PUBLIC	?_Xlen@?$vector@PAVCHostWnd@@V?$allocator@PAVCHostWnd@@@std@@@std@@IBEXXZ ; std::vector<CHostWnd *,std::allocator<CHostWnd *> >::_Xlen
; Function compile flags: /Odt /RTCsu
;	COMDAT ?_Buy@?$vector@PAVCHostWnd@@V?$allocator@PAVCHostWnd@@@std@@@std@@IAE_NI@Z
_TEXT	SEGMENT
_this$ = -4						; size = 4
__Capacity$ = 8						; size = 4
?_Buy@?$vector@PAVCHostWnd@@V?$allocator@PAVCHostWnd@@@std@@@std@@IAE_NI@Z PROC NEAR ; std::vector<CHostWnd *,std::allocator<CHostWnd *> >::_Buy, COMDAT
; _this$ = ecx

; 770  : 		{	// allocate array with _Capacity elements

  00000	55		 push	 ebp
  00001	8b ec		 mov	 ebp, esp
  00003	51		 push	 ecx
  00004	c7 45 fc cc cc
	cc cc		 mov	 DWORD PTR [ebp-4], -858993460 ; ccccccccH
  0000b	89 4d fc	 mov	 DWORD PTR _this$[ebp], ecx

; 771  : 		_Myfirst = 0, _Mylast = 0, _Myend = 0;

  0000e	8b 45 fc	 mov	 eax, DWORD PTR _this$[ebp]
  00011	c7 40 04 00 00
	00 00		 mov	 DWORD PTR [eax+4], 0
  00018	8b 4d fc	 mov	 ecx, DWORD PTR _this$[ebp]
  0001b	c7 41 08 00 00
	00 00		 mov	 DWORD PTR [ecx+8], 0
  00022	8b 55 fc	 mov	 edx, DWORD PTR _this$[ebp]
  00025	c7 42 0c 00 00
	00 00		 mov	 DWORD PTR [edx+12], 0

; 772  : 		if (_Capacity == 0)

  0002c	83 7d 08 00	 cmp	 DWORD PTR __Capacity$[ebp], 0
  00030	75 04		 jne	 SHORT $L190359

; 773  : 			return (false);

  00032	32 c0		 xor	 al, al
  00034	eb 49		 jmp	 SHORT $L190358
$L190359:

; 774  : 		else if (max_size() < _Capacity)

  00036	8b 4d fc	 mov	 ecx, DWORD PTR _this$[ebp]
  00039	e8 00 00 00 00	 call	 ?max_size@?$vector@PAVCHostWnd@@V?$allocator@PAVCHostWnd@@@std@@@std@@QBEIXZ ; std::vector<CHostWnd *,std::allocator<CHostWnd *> >::max_size
  0003e	3b 45 08	 cmp	 eax, DWORD PTR __Capacity$[ebp]
  00041	73 0a		 jae	 SHORT $L190361

; 775  : 			_Xlen();	// result too long

  00043	8b 4d fc	 mov	 ecx, DWORD PTR _this$[ebp]
  00046	e8 00 00 00 00	 call	 ?_Xlen@?$vector@PAVCHostWnd@@V?$allocator@PAVCHostWnd@@@std@@@std@@IBEXXZ ; std::vector<CHostWnd *,std::allocator<CHostWnd *> >::_Xlen

; 776  : 		else

  0004b	eb 30		 jmp	 SHORT $L190360
$L190361:

; 777  : 			{	// nonempty array, allocate storage
; 778  : 			_Myfirst = this->_Alval.allocate(_Capacity);

  0004d	8b 45 08	 mov	 eax, DWORD PTR __Capacity$[ebp]
  00050	50		 push	 eax
  00051	8b 4d fc	 mov	 ecx, DWORD PTR _this$[ebp]
  00054	e8 00 00 00 00	 call	 ?allocate@?$allocator@PAVCHostWnd@@@std@@QAEPAPAVCHostWnd@@I@Z ; std::allocator<CHostWnd *>::allocate
  00059	8b 4d fc	 mov	 ecx, DWORD PTR _this$[ebp]
  0005c	89 41 04	 mov	 DWORD PTR [ecx+4], eax

; 779  : 			_Mylast = _Myfirst;

  0005f	8b 55 fc	 mov	 edx, DWORD PTR _this$[ebp]
  00062	8b 45 fc	 mov	 eax, DWORD PTR _this$[ebp]
  00065	8b 48 04	 mov	 ecx, DWORD PTR [eax+4]
  00068	89 4a 08	 mov	 DWORD PTR [edx+8], ecx

; 780  : 			_Myend = _Myfirst + _Capacity;

  0006b	8b 55 fc	 mov	 edx, DWORD PTR _this$[ebp]
  0006e	8b 42 04	 mov	 eax, DWORD PTR [edx+4]
  00071	8b 4d 08	 mov	 ecx, DWORD PTR __Capacity$[ebp]
  00074	8d 14 88	 lea	 edx, DWORD PTR [eax+ecx*4]
  00077	8b 45 fc	 mov	 eax, DWORD PTR _this$[ebp]
  0007a	89 50 0c	 mov	 DWORD PTR [eax+12], edx
$L190360:

; 781  : 			}
; 782  : 		return (true);

  0007d	b0 01		 mov	 al, 1
$L190358:

; 783  : 		}

  0007f	83 c4 04	 add	 esp, 4
  00082	3b ec		 cmp	 ebp, esp
  00084	e8 00 00 00 00	 call	 __RTC_CheckEsp
  00089	8b e5		 mov	 esp, ebp
  0008b	5d		 pop	 ebp
  0008c	c2 04 00	 ret	 4
?_Buy@?$vector@PAVCHostWnd@@V?$allocator@PAVCHostWnd@@@std@@@std@@IAE_NI@Z ENDP ; std::vector<CHostWnd *,std::allocator<CHostWnd *> >::_Buy
_TEXT	ENDS
PUBLIC	?deallocate@?$allocator@PAVCHostWnd@@@std@@QAEXPAPAVCHostWnd@@I@Z ; std::allocator<CHostWnd *>::deallocate
PUBLIC	?_Destroy@?$vector@PAVCHostWnd@@V?$allocator@PAVCHostWnd@@@std@@@std@@IAEXPAPAVCHostWnd@@0@Z ; std::vector<CHostWnd *,std::allocator<CHostWnd *> >::_Destroy
; Function compile flags: /Odt /RTCsu
;	COMDAT ?_Tidy@?$vector@PAVCHostWnd@@V?$allocator@PAVCHostWnd@@@std@@@std@@IAEXXZ
_TEXT	SEGMENT
_this$ = -4						; size = 4
?_Tidy@?$vector@PAVCHostWnd@@V?$allocator@PAVCHostWnd@@@std@@@std@@IAEXXZ PROC NEAR ; std::vector<CHostWnd *,std::allocator<CHostWnd *> >::_Tidy, COMDAT
; _this$ = ecx

; 791  : 		{	// free all storage

  00000	55		 push	 ebp
  00001	8b ec		 mov	 ebp, esp
  00003	51		 push	 ecx
  00004	c7 45 fc cc cc
	cc cc		 mov	 DWORD PTR [ebp-4], -858993460 ; ccccccccH
  0000b	89 4d fc	 mov	 DWORD PTR _this$[ebp], ecx

; 792  : 		if (_Myfirst != 0)

  0000e	8b 45 fc	 mov	 eax, DWORD PTR _this$[ebp]
  00011	83 78 04 00	 cmp	 DWORD PTR [eax+4], 0
  00015	74 35		 je	 SHORT $L190365

; 793  : 			{	// something to free, destroy and deallocate it
; 794  : 			_Destroy(_Myfirst, _Mylast);

  00017	8b 4d fc	 mov	 ecx, DWORD PTR _this$[ebp]
  0001a	8b 51 08	 mov	 edx, DWORD PTR [ecx+8]
  0001d	52		 push	 edx
  0001e	8b 45 fc	 mov	 eax, DWORD PTR _this$[ebp]
  00021	8b 48 04	 mov	 ecx, DWORD PTR [eax+4]
  00024	51		 push	 ecx
  00025	8b 4d fc	 mov	 ecx, DWORD PTR _this$[ebp]
  00028	e8 00 00 00 00	 call	 ?_Destroy@?$vector@PAVCHostWnd@@V?$allocator@PAVCHostWnd@@@std@@@std@@IAEXPAPAVCHostWnd@@0@Z ; std::vector<CHostWnd *,std::allocator<CHostWnd *> >::_Destroy

; 795  : 			this->_Alval.deallocate(_Myfirst, _Myend - _Myfirst);

  0002d	8b 55 fc	 mov	 edx, DWORD PTR _this$[ebp]
  00030	8b 45 fc	 mov	 eax, DWORD PTR _this$[ebp]
  00033	8b 4a 0c	 mov	 ecx, DWORD PTR [edx+12]
  00036	2b 48 04	 sub	 ecx, DWORD PTR [eax+4]
  00039	c1 f9 02	 sar	 ecx, 2
  0003c	51		 push	 ecx
  0003d	8b 55 fc	 mov	 edx, DWORD PTR _this$[ebp]
  00040	8b 42 04	 mov	 eax, DWORD PTR [edx+4]
  00043	50		 push	 eax
  00044	8b 4d fc	 mov	 ecx, DWORD PTR _this$[ebp]
  00047	e8 00 00 00 00	 call	 ?deallocate@?$allocator@PAVCHostWnd@@@std@@QAEXPAPAVCHostWnd@@I@Z ; std::allocator<CHostWnd *>::deallocate
$L190365:

; 796  : 			}
; 797  : 		_Myfirst = 0, _Mylast = 0, _Myend = 0;

  0004c	8b 4d fc	 mov	 ecx, DWORD PTR _this$[ebp]
  0004f	c7 41 04 00 00
	00 00		 mov	 DWORD PTR [ecx+4], 0
  00056	8b 55 fc	 mov	 edx, DWORD PTR _this$[ebp]
  00059	c7 42 08 00 00
	00 00		 mov	 DWORD PTR [edx+8], 0
  00060	8b 45 fc	 mov	 eax, DWORD PTR _this$[ebp]
  00063	c7 40 0c 00 00
	00 00		 mov	 DWORD PTR [eax+12], 0

; 798  : 		}

  0006a	83 c4 04	 add	 esp, 4
  0006d	3b ec		 cmp	 ebp, esp
  0006f	e8 00 00 00 00	 call	 __RTC_CheckEsp
  00074	8b e5		 mov	 esp, ebp
  00076	5d		 pop	 ebp
  00077	c3		 ret	 0
?_Tidy@?$vector@PAVCHostWnd@@V?$allocator@PAVCHostWnd@@@std@@@std@@IAEXXZ ENDP ; std::vector<CHostWnd *,std::allocator<CHostWnd *> >::_Tidy
_TEXT	ENDS
PUBLIC	??$_Uninitialized_fill_n@PAPAVCHostWnd@@IPAV1@V?$allocator@PAVCHostWnd@@@std@@@std@@YAXPAPAVCHostWnd@@IABQAV1@AAV?$allocator@PAVCHostWnd@@@0@@Z ; std::_Uninitialized_fill_n<CHostWnd * *,unsigned int,CHostWnd *,std::allocator<CHostWnd *> >
; Function compile flags: /Odt /RTCsu
;	COMDAT ?_Ufill@?$vector@PAVCHostWnd@@V?$allocator@PAVCHostWnd@@@std@@@std@@IAEPAPAVCHostWnd@@PAPAV3@IABQAV3@@Z
_TEXT	SEGMENT
_this$ = -4						; size = 4
__Ptr$ = 8						; size = 4
__Count$ = 12						; size = 4
__Val$ = 16						; size = 4
?_Ufill@?$vector@PAVCHostWnd@@V?$allocator@PAVCHostWnd@@@std@@@std@@IAEPAPAVCHostWnd@@PAPAV3@IABQAV3@@Z PROC NEAR ; std::vector<CHostWnd *,std::allocator<CHostWnd *> >::_Ufill, COMDAT
; _this$ = ecx

; 877  : 		{	// copy initializing _Count * _Val, using allocator

  00000	55		 push	 ebp
  00001	8b ec		 mov	 ebp, esp
  00003	51		 push	 ecx
  00004	c7 45 fc cc cc
	cc cc		 mov	 DWORD PTR [ebp-4], -858993460 ; ccccccccH
  0000b	89 4d fc	 mov	 DWORD PTR _this$[ebp], ecx

; 878  : 		_Uninitialized_fill_n(_Ptr, _Count, _Val, this->_Alval);

  0000e	8b 45 fc	 mov	 eax, DWORD PTR _this$[ebp]
  00011	50		 push	 eax
  00012	8b 4d 10	 mov	 ecx, DWORD PTR __Val$[ebp]
  00015	51		 push	 ecx
  00016	8b 55 0c	 mov	 edx, DWORD PTR __Count$[ebp]
  00019	52		 push	 edx
  0001a	8b 45 08	 mov	 eax, DWORD PTR __Ptr$[ebp]
  0001d	50		 push	 eax
  0001e	e8 00 00 00 00	 call	 ??$_Uninitialized_fill_n@PAPAVCHostWnd@@IPAV1@V?$allocator@PAVCHostWnd@@@std@@@std@@YAXPAPAVCHostWnd@@IABQAV1@AAV?$allocator@PAVCHostWnd@@@0@@Z ; std::_Uninitialized_fill_n<CHostWnd * *,unsigned int,CHostWnd *,std::allocator<CHostWnd *> >
  00023	83 c4 10	 add	 esp, 16			; 00000010H

; 879  : 		return (_Ptr + _Count);

  00026	8b 4d 0c	 mov	 ecx, DWORD PTR __Count$[ebp]
  00029	8b 55 08	 mov	 edx, DWORD PTR __Ptr$[ebp]
  0002c	8d 04 8a	 lea	 eax, DWORD PTR [edx+ecx*4]

; 880  : 		}

  0002f	83 c4 04	 add	 esp, 4
  00032	3b ec		 cmp	 ebp, esp
  00034	e8 00 00 00 00	 call	 __RTC_CheckEsp
  00039	8b e5		 mov	 esp, ebp
  0003b	5d		 pop	 ebp
  0003c	c2 0c 00	 ret	 12			; 0000000cH
?_Ufill@?$vector@PAVCHostWnd@@V?$allocator@PAVCHostWnd@@@std@@@std@@IAEPAPAVCHostWnd@@PAPAV3@IABQAV3@@Z ENDP ; std::vector<CHostWnd *,std::allocator<CHostWnd *> >::_Ufill
_TEXT	ENDS
PUBLIC	??0?$allocator@PAVCHostWnd@@@std@@QAE@ABV01@@Z	; std::allocator<CHostWnd *>::allocator<CHostWnd *>
; Function compile flags: /Odt /RTCsu
;	COMDAT ??0?$_Vector_val@PAVCHostWnd@@V?$allocator@PAVCHostWnd@@@std@@@std@@IAE@V?$allocator@PAVCHostWnd@@@1@@Z
_TEXT	SEGMENT
_this$ = -4						; size = 4
__Al$ = 8						; size = 1
??0?$_Vector_val@PAVCHostWnd@@V?$allocator@PAVCHostWnd@@@std@@@std@@IAE@V?$allocator@PAVCHostWnd@@@1@@Z PROC NEAR ; std::_Vector_val<CHostWnd *,std::allocator<CHostWnd *> >::_Vector_val<CHostWnd *,std::allocator<CHostWnd *> >, COMDAT
; _this$ = ecx

; 21   : 		{	// construct allocator from _Al

  00000	55		 push	 ebp
  00001	8b ec		 mov	 ebp, esp
  00003	51		 push	 ecx
  00004	c7 45 fc cc cc
	cc cc		 mov	 DWORD PTR [ebp-4], -858993460 ; ccccccccH
  0000b	89 4d fc	 mov	 DWORD PTR _this$[ebp], ecx
  0000e	8d 45 08	 lea	 eax, DWORD PTR __Al$[ebp]
  00011	50		 push	 eax
  00012	8b 4d fc	 mov	 ecx, DWORD PTR _this$[ebp]
  00015	e8 00 00 00 00	 call	 ??0?$allocator@PAVCHostWnd@@@std@@QAE@ABV01@@Z ; std::allocator<CHostWnd *>::allocator<CHostWnd *>

; 22   : 		}

  0001a	8b 45 fc	 mov	 eax, DWORD PTR _this$[ebp]
  0001d	83 c4 04	 add	 esp, 4
  00020	3b ec		 cmp	 ebp, esp
  00022	e8 00 00 00 00	 call	 __RTC_CheckEsp
  00027	8b e5		 mov	 esp, ebp
  00029	5d		 pop	 ebp
  0002a	c2 04 00	 ret	 4
??0?$_Vector_val@PAVCHostWnd@@V?$allocator@PAVCHostWnd@@@std@@@std@@IAE@V?$allocator@PAVCHostWnd@@@1@@Z ENDP ; std::_Vector_val<CHostWnd *,std::allocator<CHostWnd *> >::_Vector_val<CHostWnd *,std::allocator<CHostWnd *> >
; Function compile flags: /Odt /RTCsu
; File d:\program files (x86)\microsoft visual studio .net 2003\vc7\include\xmemory
_TEXT	ENDS
;	COMDAT ??0?$allocator@PAVCHostWnd@@@std@@QAE@XZ
_TEXT	SEGMENT
_this$ = -4						; size = 4
??0?$allocator@PAVCHostWnd@@@std@@QAE@XZ PROC NEAR	; std::allocator<CHostWnd *>::allocator<CHostWnd *>, COMDAT
; _this$ = ecx

; 111  : 	allocator()

  00000	55		 push	 ebp
  00001	8b ec		 mov	 ebp, esp
  00003	51		 push	 ecx
  00004	c7 45 fc cc cc
	cc cc		 mov	 DWORD PTR [ebp-4], -858993460 ; ccccccccH
  0000b	89 4d fc	 mov	 DWORD PTR _this$[ebp], ecx

; 112  : 		{	// construct default allocator (do nothing)
; 113  : 		}

  0000e	8b 45 fc	 mov	 eax, DWORD PTR _this$[ebp]
  00011	8b e5		 mov	 esp, ebp
  00013	5d		 pop	 ebp
  00014	c3		 ret	 0
??0?$allocator@PAVCHostWnd@@@std@@QAE@XZ ENDP		; std::allocator<CHostWnd *>::allocator<CHostWnd *>
_TEXT	ENDS
PUBLIC	?_Xlen@?$vector@PAVILyricPopupWndShowObserver@@V?$allocator@PAVILyricPopupWndShowObserver@@@std@@@std@@IBEXXZ ; std::vector<ILyricPopupWndShowObserver *,std::allocator<ILyricPopupWndShowObserver *> >::_Xlen
PUBLIC	?allocate@?$allocator@PAVILyricPopupWndShowObserver@@@std@@QAEPAPAVILyricPopupWndShowObserver@@I@Z ; std::allocator<ILyricPopupWndShowObserver *>::allocate
PUBLIC	?max_size@?$vector@PAVILyricPopupWndShowObserver@@V?$allocator@PAVILyricPopupWndShowObserver@@@std@@@std@@QBEIXZ ; std::vector<ILyricPopupWndShowObserver *,std::allocator<ILyricPopupWndShowObserver *> >::max_size
; Function compile flags: /Odt /RTCsu
; File d:\program files (x86)\microsoft visual studio .net 2003\vc7\include\vector
;	COMDAT ?_Buy@?$vector@PAVILyricPopupWndShowObserver@@V?$allocator@PAVILyricPopupWndShowObserver@@@std@@@std@@IAE_NI@Z
_TEXT	SEGMENT
_this$ = -4						; size = 4
__Capacity$ = 8						; size = 4
?_Buy@?$vector@PAVILyricPopupWndShowObserver@@V?$allocator@PAVILyricPopupWndShowObserver@@@std@@@std@@IAE_NI@Z PROC NEAR ; std::vector<ILyricPopupWndShowObserver *,std::allocator<ILyricPopupWndShowObserver *> >::_Buy, COMDAT
; _this$ = ecx

; 770  : 		{	// allocate array with _Capacity elements

  00000	55		 push	 ebp
  00001	8b ec		 mov	 ebp, esp
  00003	51		 push	 ecx
  00004	c7 45 fc cc cc
	cc cc		 mov	 DWORD PTR [ebp-4], -858993460 ; ccccccccH
  0000b	89 4d fc	 mov	 DWORD PTR _this$[ebp], ecx

; 771  : 		_Myfirst = 0, _Mylast = 0, _Myend = 0;

  0000e	8b 45 fc	 mov	 eax, DWORD PTR _this$[ebp]
  00011	c7 40 04 00 00
	00 00		 mov	 DWORD PTR [eax+4], 0
  00018	8b 4d fc	 mov	 ecx, DWORD PTR _this$[ebp]
  0001b	c7 41 08 00 00
	00 00		 mov	 DWORD PTR [ecx+8], 0
  00022	8b 55 fc	 mov	 edx, DWORD PTR _this$[ebp]
  00025	c7 42 0c 00 00
	00 00		 mov	 DWORD PTR [edx+12], 0

; 772  : 		if (_Capacity == 0)

  0002c	83 7d 08 00	 cmp	 DWORD PTR __Capacity$[ebp], 0
  00030	75 04		 jne	 SHORT $L190400

; 773  : 			return (false);

  00032	32 c0		 xor	 al, al
  00034	eb 49		 jmp	 SHORT $L190399
$L190400:

; 774  : 		else if (max_size() < _Capacity)

  00036	8b 4d fc	 mov	 ecx, DWORD PTR _this$[ebp]
  00039	e8 00 00 00 00	 call	 ?max_size@?$vector@PAVILyricPopupWndShowObserver@@V?$allocator@PAVILyricPopupWndShowObserver@@@std@@@std@@QBEIXZ ; std::vector<ILyricPopupWndShowObserver *,std::allocator<ILyricPopupWndShowObserver *> >::max_size
  0003e	3b 45 08	 cmp	 eax, DWORD PTR __Capacity$[ebp]
  00041	73 0a		 jae	 SHORT $L190402

; 775  : 			_Xlen();	// result too long

  00043	8b 4d fc	 mov	 ecx, DWORD PTR _this$[ebp]
  00046	e8 00 00 00 00	 call	 ?_Xlen@?$vector@PAVILyricPopupWndShowObserver@@V?$allocator@PAVILyricPopupWndShowObserver@@@std@@@std@@IBEXXZ ; std::vector<ILyricPopupWndShowObserver *,std::allocator<ILyricPopupWndShowObserver *> >::_Xlen

; 776  : 		else

  0004b	eb 30		 jmp	 SHORT $L190401
$L190402:

; 777  : 			{	// nonempty array, allocate storage
; 778  : 			_Myfirst = this->_Alval.allocate(_Capacity);

  0004d	8b 45 08	 mov	 eax, DWORD PTR __Capacity$[ebp]
  00050	50		 push	 eax
  00051	8b 4d fc	 mov	 ecx, DWORD PTR _this$[ebp]
  00054	e8 00 00 00 00	 call	 ?allocate@?$allocator@PAVILyricPopupWndShowObserver@@@std@@QAEPAPAVILyricPopupWndShowObserver@@I@Z ; std::allocator<ILyricPopupWndShowObserver *>::allocate
  00059	8b 4d fc	 mov	 ecx, DWORD PTR _this$[ebp]
  0005c	89 41 04	 mov	 DWORD PTR [ecx+4], eax

; 779  : 			_Mylast = _Myfirst;

  0005f	8b 55 fc	 mov	 edx, DWORD PTR _this$[ebp]
  00062	8b 45 fc	 mov	 eax, DWORD PTR _this$[ebp]
  00065	8b 48 04	 mov	 ecx, DWORD PTR [eax+4]
  00068	89 4a 08	 mov	 DWORD PTR [edx+8], ecx

; 780  : 			_Myend = _Myfirst + _Capacity;

  0006b	8b 55 fc	 mov	 edx, DWORD PTR _this$[ebp]
  0006e	8b 42 04	 mov	 eax, DWORD PTR [edx+4]
  00071	8b 4d 08	 mov	 ecx, DWORD PTR __Capacity$[ebp]
  00074	8d 14 88	 lea	 edx, DWORD PTR [eax+ecx*4]
  00077	8b 45 fc	 mov	 eax, DWORD PTR _this$[ebp]
  0007a	89 50 0c	 mov	 DWORD PTR [eax+12], edx
$L190401:

; 781  : 			}
; 782  : 		return (true);

  0007d	b0 01		 mov	 al, 1
$L190399:

; 783  : 		}

  0007f	83 c4 04	 add	 esp, 4
  00082	3b ec		 cmp	 ebp, esp
  00084	e8 00 00 00 00	 call	 __RTC_CheckEsp
  00089	8b e5		 mov	 esp, ebp
  0008b	5d		 pop	 ebp
  0008c	c2 04 00	 ret	 4
?_Buy@?$vector@PAVILyricPopupWndShowObserver@@V?$allocator@PAVILyricPopupWndShowObserver@@@std@@@std@@IAE_NI@Z ENDP ; std::vector<ILyricPopupWndShowObserver *,std::allocator<ILyricPopupWndShowObserver *> >::_Buy
_TEXT	ENDS
PUBLIC	?_Destroy@?$vector@PAVILyricPopupWndShowObserver@@V?$allocator@PAVILyricPopupWndShowObserver@@@std@@@std@@IAEXPAPAVILyricPopupWndShowObserver@@0@Z ; std::vector<ILyricPopupWndShowObserver *,std::allocator<ILyricPopupWndShowObserver *> >::_Destroy
PUBLIC	?deallocate@?$allocator@PAVILyricPopupWndShowObserver@@@std@@QAEXPAPAVILyricPopupWndShowObserver@@I@Z ; std::allocator<ILyricPopupWndShowObserver *>::deallocate
; Function compile flags: /Odt /RTCsu
;	COMDAT ?_Tidy@?$vector@PAVILyricPopupWndShowObserver@@V?$allocator@PAVILyricPopupWndShowObserver@@@std@@@std@@IAEXXZ
_TEXT	SEGMENT
_this$ = -4						; size = 4
?_Tidy@?$vector@PAVILyricPopupWndShowObserver@@V?$allocator@PAVILyricPopupWndShowObserver@@@std@@@std@@IAEXXZ PROC NEAR ; std::vector<ILyricPopupWndShowObserver *,std::allocator<ILyricPopupWndShowObserver *> >::_Tidy, COMDAT
; _this$ = ecx

; 791  : 		{	// free all storage

  00000	55		 push	 ebp
  00001	8b ec		 mov	 ebp, esp
  00003	51		 push	 ecx
  00004	c7 45 fc cc cc
	cc cc		 mov	 DWORD PTR [ebp-4], -858993460 ; ccccccccH
  0000b	89 4d fc	 mov	 DWORD PTR _this$[ebp], ecx

; 792  : 		if (_Myfirst != 0)

  0000e	8b 45 fc	 mov	 eax, DWORD PTR _this$[ebp]
  00011	83 78 04 00	 cmp	 DWORD PTR [eax+4], 0
  00015	74 35		 je	 SHORT $L190406

; 793  : 			{	// something to free, destroy and deallocate it
; 794  : 			_Destroy(_Myfirst, _Mylast);

  00017	8b 4d fc	 mov	 ecx, DWORD PTR _this$[ebp]
  0001a	8b 51 08	 mov	 edx, DWORD PTR [ecx+8]
  0001d	52		 push	 edx
  0001e	8b 45 fc	 mov	 eax, DWORD PTR _this$[ebp]
  00021	8b 48 04	 mov	 ecx, DWORD PTR [eax+4]
  00024	51		 push	 ecx
  00025	8b 4d fc	 mov	 ecx, DWORD PTR _this$[ebp]
  00028	e8 00 00 00 00	 call	 ?_Destroy@?$vector@PAVILyricPopupWndShowObserver@@V?$allocator@PAVILyricPopupWndShowObserver@@@std@@@std@@IAEXPAPAVILyricPopupWndShowObserver@@0@Z ; std::vector<ILyricPopupWndShowObserver *,std::allocator<ILyricPopupWndShowObserver *> >::_Destroy

; 795  : 			this->_Alval.deallocate(_Myfirst, _Myend - _Myfirst);

  0002d	8b 55 fc	 mov	 edx, DWORD PTR _this$[ebp]
  00030	8b 45 fc	 mov	 eax, DWORD PTR _this$[ebp]
  00033	8b 4a 0c	 mov	 ecx, DWORD PTR [edx+12]
  00036	2b 48 04	 sub	 ecx, DWORD PTR [eax+4]
  00039	c1 f9 02	 sar	 ecx, 2
  0003c	51		 push	 ecx
  0003d	8b 55 fc	 mov	 edx, DWORD PTR _this$[ebp]
  00040	8b 42 04	 mov	 eax, DWORD PTR [edx+4]
  00043	50		 push	 eax
  00044	8b 4d fc	 mov	 ecx, DWORD PTR _this$[ebp]
  00047	e8 00 00 00 00	 call	 ?deallocate@?$allocator@PAVILyricPopupWndShowObserver@@@std@@QAEXPAPAVILyricPopupWndShowObserver@@I@Z ; std::allocator<ILyricPopupWndShowObserver *>::deallocate
$L190406:

; 796  : 			}
; 797  : 		_Myfirst = 0, _Mylast = 0, _Myend = 0;

  0004c	8b 4d fc	 mov	 ecx, DWORD PTR _this$[ebp]
  0004f	c7 41 04 00 00
	00 00		 mov	 DWORD PTR [ecx+4], 0
  00056	8b 55 fc	 mov	 edx, DWORD PTR _this$[ebp]
  00059	c7 42 08 00 00
	00 00		 mov	 DWORD PTR [edx+8], 0
  00060	8b 45 fc	 mov	 eax, DWORD PTR _this$[ebp]
  00063	c7 40 0c 00 00
	00 00		 mov	 DWORD PTR [eax+12], 0

; 798  : 		}

  0006a	83 c4 04	 add	 esp, 4
  0006d	3b ec		 cmp	 ebp, esp
  0006f	e8 00 00 00 00	 call	 __RTC_CheckEsp
  00074	8b e5		 mov	 esp, ebp
  00076	5d		 pop	 ebp
  00077	c3		 ret	 0
?_Tidy@?$vector@PAVILyricPopupWndShowObserver@@V?$allocator@PAVILyricPopupWndShowObserver@@@std@@@std@@IAEXXZ ENDP ; std::vector<ILyricPopupWndShowObserver *,std::allocator<ILyricPopupWndShowObserver *> >::_Tidy
_TEXT	ENDS
PUBLIC	??0?$allocator@PAVILyricPopupWndShowObserver@@@std@@QAE@ABV01@@Z ; std::allocator<ILyricPopupWndShowObserver *>::allocator<ILyricPopupWndShowObserver *>
; Function compile flags: /Odt /RTCsu
;	COMDAT ??0?$_Vector_val@PAVILyricPopupWndShowObserver@@V?$allocator@PAVILyricPopupWndShowObserver@@@std@@@std@@IAE@V?$allocator@PAVILyricPopupWndShowObserver@@@1@@Z
_TEXT	SEGMENT
_this$ = -4						; size = 4
__Al$ = 8						; size = 1
??0?$_Vector_val@PAVILyricPopupWndShowObserver@@V?$allocator@PAVILyricPopupWndShowObserver@@@std@@@std@@IAE@V?$allocator@PAVILyricPopupWndShowObserver@@@1@@Z PROC NEAR ; std::_Vector_val<ILyricPopupWndShowObserver *,std::allocator<ILyricPopupWndShowObserver *> >::_Vector_val<ILyricPopupWndShowObserver *,std::allocator<ILyricPopupWndShowObserver *> >, COMDAT
; _this$ = ecx

; 21   : 		{	// construct allocator from _Al

  00000	55		 push	 ebp
  00001	8b ec		 mov	 ebp, esp
  00003	51		 push	 ecx
  00004	c7 45 fc cc cc
	cc cc		 mov	 DWORD PTR [ebp-4], -858993460 ; ccccccccH
  0000b	89 4d fc	 mov	 DWORD PTR _this$[ebp], ecx
  0000e	8d 45 08	 lea	 eax, DWORD PTR __Al$[ebp]
  00011	50		 push	 eax
  00012	8b 4d fc	 mov	 ecx, DWORD PTR _this$[ebp]
  00015	e8 00 00 00 00	 call	 ??0?$allocator@PAVILyricPopupWndShowObserver@@@std@@QAE@ABV01@@Z ; std::allocator<ILyricPopupWndShowObserver *>::allocator<ILyricPopupWndShowObserver *>

; 22   : 		}

  0001a	8b 45 fc	 mov	 eax, DWORD PTR _this$[ebp]
  0001d	83 c4 04	 add	 esp, 4
  00020	3b ec		 cmp	 ebp, esp
  00022	e8 00 00 00 00	 call	 __RTC_CheckEsp
  00027	8b e5		 mov	 esp, ebp
  00029	5d		 pop	 ebp
  0002a	c2 04 00	 ret	 4
??0?$_Vector_val@PAVILyricPopupWndShowObserver@@V?$allocator@PAVILyricPopupWndShowObserver@@@std@@@std@@IAE@V?$allocator@PAVILyricPopupWndShowObserver@@@1@@Z ENDP ; std::_Vector_val<ILyricPopupWndShowObserver *,std::allocator<ILyricPopupWndShowObserver *> >::_Vector_val<ILyricPopupWndShowObserver *,std::allocator<ILyricPopupWndShowObserver *> >
; Function compile flags: /Odt /RTCsu
; File d:\program files (x86)\microsoft visual studio .net 2003\vc7\include\xmemory
_TEXT	ENDS
;	COMDAT ??0?$allocator@PAVILyricPopupWndShowObserver@@@std@@QAE@XZ
_TEXT	SEGMENT
_this$ = -4						; size = 4
??0?$allocator@PAVILyricPopupWndShowObserver@@@std@@QAE@XZ PROC NEAR ; std::allocator<ILyricPopupWndShowObserver *>::allocator<ILyricPopupWndShowObserver *>, COMDAT
; _this$ = ecx

; 111  : 	allocator()

  00000	55		 push	 ebp
  00001	8b ec		 mov	 ebp, esp
  00003	51		 push	 ecx
  00004	c7 45 fc cc cc
	cc cc		 mov	 DWORD PTR [ebp-4], -858993460 ; ccccccccH
  0000b	89 4d fc	 mov	 DWORD PTR _this$[ebp], ecx

; 112  : 		{	// construct default allocator (do nothing)
; 113  : 		}

  0000e	8b 45 fc	 mov	 eax, DWORD PTR _this$[ebp]
  00011	8b e5		 mov	 esp, ebp
  00013	5d		 pop	 ebp
  00014	c3		 ret	 0
??0?$allocator@PAVILyricPopupWndShowObserver@@@std@@QAE@XZ ENDP ; std::allocator<ILyricPopupWndShowObserver *>::allocator<ILyricPopupWndShowObserver *>
_TEXT	ENDS
PUBLIC	??0iterator@?$vector@USepWindowData@@V?$allocator@USepWindowData@@@std@@@std@@QAE@PAUSepWindowData@@@Z ; std::vector<SepWindowData,std::allocator<SepWindowData> >::iterator::iterator
; Function compile flags: /Odt /RTCsu
; File d:\program files (x86)\microsoft visual studio .net 2003\vc7\include\vector
;	COMDAT ?begin@?$vector@USepWindowData@@V?$allocator@USepWindowData@@@std@@@std@@QAE?AViterator@12@XZ
_TEXT	SEGMENT
_this$ = -4						; size = 4
___$ReturnUdt$ = 8					; size = 4
?begin@?$vector@USepWindowData@@V?$allocator@USepWindowData@@@std@@@std@@QAE?AViterator@12@XZ PROC NEAR ; std::vector<SepWindowData,std::allocator<SepWindowData> >::begin, COMDAT
; _this$ = ecx

; 462  : 		{	// return iterator for beginning of mutable sequence

  00000	55		 push	 ebp
  00001	8b ec		 mov	 ebp, esp
  00003	51		 push	 ecx
  00004	c7 45 fc cc cc
	cc cc		 mov	 DWORD PTR [ebp-4], -858993460 ; ccccccccH
  0000b	89 4d fc	 mov	 DWORD PTR _this$[ebp], ecx

; 463  : 		return (iterator(_Myfirst));

  0000e	8b 45 fc	 mov	 eax, DWORD PTR _this$[ebp]
  00011	8b 48 04	 mov	 ecx, DWORD PTR [eax+4]
  00014	51		 push	 ecx
  00015	8b 4d 08	 mov	 ecx, DWORD PTR ___$ReturnUdt$[ebp]
  00018	e8 00 00 00 00	 call	 ??0iterator@?$vector@USepWindowData@@V?$allocator@USepWindowData@@@std@@@std@@QAE@PAUSepWindowData@@@Z ; std::vector<SepWindowData,std::allocator<SepWindowData> >::iterator::iterator
  0001d	8b 45 08	 mov	 eax, DWORD PTR ___$ReturnUdt$[ebp]

; 464  : 		}

  00020	83 c4 04	 add	 esp, 4
  00023	3b ec		 cmp	 ebp, esp
  00025	e8 00 00 00 00	 call	 __RTC_CheckEsp
  0002a	8b e5		 mov	 esp, ebp
  0002c	5d		 pop	 ebp
  0002d	c2 04 00	 ret	 4
?begin@?$vector@USepWindowData@@V?$allocator@USepWindowData@@@std@@@std@@QAE?AViterator@12@XZ ENDP ; std::vector<SepWindowData,std::allocator<SepWindowData> >::begin
_TEXT	ENDS
PUBLIC	??0const_iterator@?$_Tree@V?$_Tmap_traits@PAUHWND__@@UCWndData@@U?$less@PAUHWND__@@@std@@V?$allocator@U?$pair@QAUHWND__@@UCWndData@@@std@@@4@$0A@@std@@@std@@QAE@PAU_Node@?$_Tree_nod@V?$_Tmap_traits@PAUHWND__@@UCWndData@@U?$less@PAUHWND__@@@std@@V?$allocator@U?$pair@QAUHWND__@@UCWndData@@@std@@@4@$0A@@std@@@2@@Z ; std::_Tree<std::_Tmap_traits<HWND__ *,CWndData,std::less<HWND__ *>,std::allocator<std::pair<HWND__ * const,CWndData> >,0> >::const_iterator::const_iterator
; Function compile flags: /Odt /RTCsu
; File d:\program files (x86)\microsoft visual studio .net 2003\vc7\include\xtree
;	COMDAT ??0iterator@?$_Tree@V?$_Tmap_traits@PAUHWND__@@UCWndData@@U?$less@PAUHWND__@@@std@@V?$allocator@U?$pair@QAUHWND__@@UCWndData@@@std@@@4@$0A@@std@@@std@@QAE@PAU_Node@?$_Tree_nod@V?$_Tmap_traits@PAUHWND__@@UCWndData@@U?$less@PAUHWND__@@@std@@V?$allocator@U?$pair@QAUHWND__@@UCWndData@@@std@@@4@$0A@@std@@@2@@Z
_TEXT	SEGMENT
_this$ = -4						; size = 4
__Pnode$ = 8						; size = 4
??0iterator@?$_Tree@V?$_Tmap_traits@PAUHWND__@@UCWndData@@U?$less@PAUHWND__@@@std@@V?$allocator@U?$pair@QAUHWND__@@UCWndData@@@std@@@4@$0A@@std@@@std@@QAE@PAU_Node@?$_Tree_nod@V?$_Tmap_traits@PAUHWND__@@UCWndData@@U?$less@PAUHWND__@@@std@@V?$allocator@U?$pair@QAUHWND__@@UCWndData@@@std@@@4@$0A@@std@@@2@@Z PROC NEAR ; std::_Tree<std::_Tmap_traits<HWND__ *,CWndData,std::less<HWND__ *>,std::allocator<std::pair<HWND__ * const,CWndData> >,0> >::iterator::iterator, COMDAT
; _this$ = ecx

; 312  : 			{	// construct with node pointer _Pnode

  00000	55		 push	 ebp
  00001	8b ec		 mov	 ebp, esp
  00003	51		 push	 ecx
  00004	c7 45 fc cc cc
	cc cc		 mov	 DWORD PTR [ebp-4], -858993460 ; ccccccccH
  0000b	89 4d fc	 mov	 DWORD PTR _this$[ebp], ecx
  0000e	8b 45 08	 mov	 eax, DWORD PTR __Pnode$[ebp]
  00011	50		 push	 eax
  00012	8b 4d fc	 mov	 ecx, DWORD PTR _this$[ebp]
  00015	e8 00 00 00 00	 call	 ??0const_iterator@?$_Tree@V?$_Tmap_traits@PAUHWND__@@UCWndData@@U?$less@PAUHWND__@@@std@@V?$allocator@U?$pair@QAUHWND__@@UCWndData@@@std@@@4@$0A@@std@@@std@@QAE@PAU_Node@?$_Tree_nod@V?$_Tmap_traits@PAUHWND__@@UCWndData@@U?$less@PAUHWND__@@@std@@V?$allocator@U?$pair@QAUHWND__@@UCWndData@@@std@@@4@$0A@@std@@@2@@Z ; std::_Tree<std::_Tmap_traits<HWND__ *,CWndData,std::less<HWND__ *>,std::allocator<std::pair<HWND__ * const,CWndData> >,0> >::const_iterator::const_iterator

; 313  : 			}

  0001a	8b 45 fc	 mov	 eax, DWORD PTR _this$[ebp]
  0001d	83 c4 04	 add	 esp, 4
  00020	3b ec		 cmp	 ebp, esp
  00022	e8 00 00 00 00	 call	 __RTC_CheckEsp
  00027	8b e5		 mov	 esp, ebp
  00029	5d		 pop	 ebp
  0002a	c2 04 00	 ret	 4
??0iterator@?$_Tree@V?$_Tmap_traits@PAUHWND__@@UCWndData@@U?$less@PAUHWND__@@@std@@V?$allocator@U?$pair@QAUHWND__@@UCWndData@@@std@@@4@$0A@@std@@@std@@QAE@PAU_Node@?$_Tree_nod@V?$_Tmap_traits@PAUHWND__@@UCWndData@@U?$less@PAUHWND__@@@std@@V?$allocator@U?$pair@QAUHWND__@@UCWndData@@@std@@@4@$0A@@std@@@2@@Z ENDP ; std::_Tree<std::_Tmap_traits<HWND__ *,CWndData,std::less<HWND__ *>,std::allocator<std::pair<HWND__ * const,CWndData> >,0> >::iterator::iterator
_TEXT	ENDS
PUBLIC	??Dconst_iterator@?$_Tree@V?$_Tmap_traits@PAUHWND__@@UCWndData@@U?$less@PAUHWND__@@@std@@V?$allocator@U?$pair@QAUHWND__@@UCWndData@@@std@@@4@$0A@@std@@@std@@QBEABU?$pair@QAUHWND__@@UCWndData@@@2@XZ ; std::_Tree<std::_Tmap_traits<HWND__ *,CWndData,std::less<HWND__ *>,std::allocator<std::pair<HWND__ * const,CWndData> >,0> >::const_iterator::operator*
; Function compile flags: /Odt /RTCsu
;	COMDAT ??Diterator@?$_Tree@V?$_Tmap_traits@PAUHWND__@@UCWndData@@U?$less@PAUHWND__@@@std@@V?$allocator@U?$pair@QAUHWND__@@UCWndData@@@std@@@4@$0A@@std@@@std@@QBEAAU?$pair@QAUHWND__@@UCWndData@@@2@XZ
_TEXT	SEGMENT
_this$ = -4						; size = 4
??Diterator@?$_Tree@V?$_Tmap_traits@PAUHWND__@@UCWndData@@U?$less@PAUHWND__@@@std@@V?$allocator@U?$pair@QAUHWND__@@UCWndData@@@std@@@4@$0A@@std@@@std@@QBEAAU?$pair@QAUHWND__@@UCWndData@@@2@XZ PROC NEAR ; std::_Tree<std::_Tmap_traits<HWND__ *,CWndData,std::less<HWND__ *>,std::allocator<std::pair<HWND__ * const,CWndData> >,0> >::iterator::operator*, COMDAT
; _this$ = ecx

; 316  : 			{	// return designated value

  00000	55		 push	 ebp
  00001	8b ec		 mov	 ebp, esp
  00003	51		 push	 ecx
  00004	c7 45 fc cc cc
	cc cc		 mov	 DWORD PTR [ebp-4], -858993460 ; ccccccccH
  0000b	89 4d fc	 mov	 DWORD PTR _this$[ebp], ecx

; 317  : 			return ((reference)**(const_iterator *)this);

  0000e	8b 4d fc	 mov	 ecx, DWORD PTR _this$[ebp]
  00011	e8 00 00 00 00	 call	 ??Dconst_iterator@?$_Tree@V?$_Tmap_traits@PAUHWND__@@UCWndData@@U?$less@PAUHWND__@@@std@@V?$allocator@U?$pair@QAUHWND__@@UCWndData@@@std@@@4@$0A@@std@@@std@@QBEABU?$pair@QAUHWND__@@UCWndData@@@2@XZ ; std::_Tree<std::_Tmap_traits<HWND__ *,CWndData,std::less<HWND__ *>,std::allocator<std::pair<HWND__ * const,CWndData> >,0> >::const_iterator::operator*

; 318  : 			}

  00016	83 c4 04	 add	 esp, 4
  00019	3b ec		 cmp	 ebp, esp
  0001b	e8 00 00 00 00	 call	 __RTC_CheckEsp
  00020	8b e5		 mov	 esp, ebp
  00022	5d		 pop	 ebp
  00023	c3		 ret	 0
??Diterator@?$_Tree@V?$_Tmap_traits@PAUHWND__@@UCWndData@@U?$less@PAUHWND__@@@std@@V?$allocator@U?$pair@QAUHWND__@@UCWndData@@@std@@@4@$0A@@std@@@std@@QBEAAU?$pair@QAUHWND__@@UCWndData@@@2@XZ ENDP ; std::_Tree<std::_Tmap_traits<HWND__ *,CWndData,std::less<HWND__ *>,std::allocator<std::pair<HWND__ * const,CWndData> >,0> >::iterator::operator*
_TEXT	ENDS
PUBLIC	??Econst_iterator@?$_Tree@V?$_Tmap_traits@PAUHWND__@@UCWndData@@U?$less@PAUHWND__@@@std@@V?$allocator@U?$pair@QAUHWND__@@UCWndData@@@std@@@4@$0A@@std@@@std@@QAEAAV012@XZ ; std::_Tree<std::_Tmap_traits<HWND__ *,CWndData,std::less<HWND__ *>,std::allocator<std::pair<HWND__ * const,CWndData> >,0> >::const_iterator::operator++
; Function compile flags: /Odt /RTCsu
;	COMDAT ??Eiterator@?$_Tree@V?$_Tmap_traits@PAUHWND__@@UCWndData@@U?$less@PAUHWND__@@@std@@V?$allocator@U?$pair@QAUHWND__@@UCWndData@@@std@@@4@$0A@@std@@@std@@QAEAAV012@XZ
_TEXT	SEGMENT
_this$ = -4						; size = 4
??Eiterator@?$_Tree@V?$_Tmap_traits@PAUHWND__@@UCWndData@@U?$less@PAUHWND__@@@std@@V?$allocator@U?$pair@QAUHWND__@@UCWndData@@@std@@@4@$0A@@std@@@std@@QAEAAV012@XZ PROC NEAR ; std::_Tree<std::_Tmap_traits<HWND__ *,CWndData,std::less<HWND__ *>,std::allocator<std::pair<HWND__ * const,CWndData> >,0> >::iterator::operator++, COMDAT
; _this$ = ecx

; 326  : 			{	// preincrement

  00000	55		 push	 ebp
  00001	8b ec		 mov	 ebp, esp
  00003	51		 push	 ecx
  00004	c7 45 fc cc cc
	cc cc		 mov	 DWORD PTR [ebp-4], -858993460 ; ccccccccH
  0000b	89 4d fc	 mov	 DWORD PTR _this$[ebp], ecx

; 327  : 			++(*(const_iterator *)this);

  0000e	8b 4d fc	 mov	 ecx, DWORD PTR _this$[ebp]
  00011	e8 00 00 00 00	 call	 ??Econst_iterator@?$_Tree@V?$_Tmap_traits@PAUHWND__@@UCWndData@@U?$less@PAUHWND__@@@std@@V?$allocator@U?$pair@QAUHWND__@@UCWndData@@@std@@@4@$0A@@std@@@std@@QAEAAV012@XZ ; std::_Tree<std::_Tmap_traits<HWND__ *,CWndData,std::less<HWND__ *>,std::allocator<std::pair<HWND__ * const,CWndData> >,0> >::const_iterator::operator++

; 328  : 			return (*this);

  00016	8b 45 fc	 mov	 eax, DWORD PTR _this$[ebp]

; 329  : 			}

  00019	83 c4 04	 add	 esp, 4
  0001c	3b ec		 cmp	 ebp, esp
  0001e	e8 00 00 00 00	 call	 __RTC_CheckEsp
  00023	8b e5		 mov	 esp, ebp
  00025	5d		 pop	 ebp
  00026	c3		 ret	 0
??Eiterator@?$_Tree@V?$_Tmap_traits@PAUHWND__@@UCWndData@@U?$less@PAUHWND__@@@std@@V?$allocator@U?$pair@QAUHWND__@@UCWndData@@@std@@@4@$0A@@std@@@std@@QAEAAV012@XZ ENDP ; std::_Tree<std::_Tmap_traits<HWND__ *,CWndData,std::less<HWND__ *>,std::allocator<std::pair<HWND__ * const,CWndData> >,0> >::iterator::operator++
; Function compile flags: /Odt /RTCsu
_TEXT	ENDS
;	COMDAT ??8const_iterator@?$_Tree@V?$_Tmap_traits@PAUHWND__@@UCWndData@@U?$less@PAUHWND__@@@std@@V?$allocator@U?$pair@QAUHWND__@@UCWndData@@@std@@@4@$0A@@std@@@std@@QBE_NABV012@@Z
_TEXT	SEGMENT
_this$ = -4						; size = 4
__Right$ = 8						; size = 4
??8const_iterator@?$_Tree@V?$_Tmap_traits@PAUHWND__@@UCWndData@@U?$less@PAUHWND__@@@std@@V?$allocator@U?$pair@QAUHWND__@@UCWndData@@@std@@@4@$0A@@std@@@std@@QBE_NABV012@@Z PROC NEAR ; std::_Tree<std::_Tmap_traits<HWND__ *,CWndData,std::less<HWND__ *>,std::allocator<std::pair<HWND__ * const,CWndData> >,0> >::const_iterator::operator==, COMDAT
; _this$ = ecx

; 240  : 			{	// test for iterator equality

  00000	55		 push	 ebp
  00001	8b ec		 mov	 ebp, esp
  00003	51		 push	 ecx
  00004	c7 45 fc cc cc
	cc cc		 mov	 DWORD PTR [ebp-4], -858993460 ; ccccccccH
  0000b	89 4d fc	 mov	 DWORD PTR _this$[ebp], ecx

; 241  : 			return (_Ptr == _Right._Ptr);

  0000e	8b 45 fc	 mov	 eax, DWORD PTR _this$[ebp]
  00011	8b 4d 08	 mov	 ecx, DWORD PTR __Right$[ebp]
  00014	8b 00		 mov	 eax, DWORD PTR [eax]
  00016	2b 01		 sub	 eax, DWORD PTR [ecx]
  00018	f7 d8		 neg	 eax
  0001a	1b c0		 sbb	 eax, eax
  0001c	40		 inc	 eax

; 242  : 			}

  0001d	8b e5		 mov	 esp, ebp
  0001f	5d		 pop	 ebp
  00020	c2 04 00	 ret	 4
??8const_iterator@?$_Tree@V?$_Tmap_traits@PAUHWND__@@UCWndData@@U?$less@PAUHWND__@@@std@@V?$allocator@U?$pair@QAUHWND__@@UCWndData@@@std@@@4@$0A@@std@@@std@@QBE_NABV012@@Z ENDP ; std::_Tree<std::_Tmap_traits<HWND__ *,CWndData,std::less<HWND__ *>,std::allocator<std::pair<HWND__ * const,CWndData> >,0> >::const_iterator::operator==
; Function compile flags: /Odt /RTCsu
_TEXT	ENDS
;	COMDAT ?_Mynode@const_iterator@?$_Tree@V?$_Tmap_traits@PAUHWND__@@UCWndData@@U?$less@PAUHWND__@@@std@@V?$allocator@U?$pair@QAUHWND__@@UCWndData@@@std@@@4@$0A@@std@@@std@@QBEPAU_Node@?$_Tree_nod@V?$_Tmap_traits@PAUHWND__@@UCWndData@@U?$less@PAUHWND__@@@std@@V?$allocator@U?$pair@QAUHWND__@@UCWndData@@@std@@@4@$0A@@std@@@3@XZ
_TEXT	SEGMENT
_this$ = -4						; size = 4
?_Mynode@const_iterator@?$_Tree@V?$_Tmap_traits@PAUHWND__@@UCWndData@@U?$less@PAUHWND__@@@std@@V?$allocator@U?$pair@QAUHWND__@@UCWndData@@@std@@@4@$0A@@std@@@std@@QBEPAU_Node@?$_Tree_nod@V?$_Tmap_traits@PAUHWND__@@UCWndData@@U?$less@PAUHWND__@@@std@@V?$allocator@U?$pair@QAUHWND__@@UCWndData@@@std@@@4@$0A@@std@@@3@XZ PROC NEAR ; std::_Tree<std::_Tmap_traits<HWND__ *,CWndData,std::less<HWND__ *>,std::allocator<std::pair<HWND__ * const,CWndData> >,0> >::const_iterator::_Mynode, COMDAT
; _this$ = ecx

; 283  : 			{	// return node pointer

  00000	55		 push	 ebp
  00001	8b ec		 mov	 ebp, esp
  00003	51		 push	 ecx
  00004	c7 45 fc cc cc
	cc cc		 mov	 DWORD PTR [ebp-4], -858993460 ; ccccccccH
  0000b	89 4d fc	 mov	 DWORD PTR _this$[ebp], ecx

; 284  : 			return (_Ptr);

  0000e	8b 45 fc	 mov	 eax, DWORD PTR _this$[ebp]
  00011	8b 00		 mov	 eax, DWORD PTR [eax]

; 285  : 			}

  00013	8b e5		 mov	 esp, ebp
  00015	5d		 pop	 ebp
  00016	c3		 ret	 0
?_Mynode@const_iterator@?$_Tree@V?$_Tmap_traits@PAUHWND__@@UCWndData@@U?$less@PAUHWND__@@@std@@V?$allocator@U?$pair@QAUHWND__@@UCWndData@@@std@@@4@$0A@@std@@@std@@QBEPAU_Node@?$_Tree_nod@V?$_Tmap_traits@PAUHWND__@@UCWndData@@U?$less@PAUHWND__@@@std@@V?$allocator@U?$pair@QAUHWND__@@UCWndData@@@std@@@4@$0A@@std@@@3@XZ ENDP ; std::_Tree<std::_Tmap_traits<HWND__ *,CWndData,std::less<HWND__ *>,std::allocator<std::pair<HWND__ * const,CWndData> >,0> >::const_iterator::_Mynode
; Function compile flags: /Odt /RTCsu
; File d:\program files (x86)\microsoft visual studio .net 2003\vc7\include\utility
_TEXT	ENDS
;	COMDAT ??0?$pair@QAUHWND__@@UCWndData@@@std@@QAE@ABQAUHWND__@@ABUCWndData@@@Z
_TEXT	SEGMENT
_this$ = -4						; size = 4
__Val1$ = 8						; size = 4
__Val2$ = 12						; size = 4
??0?$pair@QAUHWND__@@UCWndData@@@std@@QAE@ABQAUHWND__@@ABUCWndData@@@Z PROC NEAR ; std::pair<HWND__ * const,CWndData>::pair<HWND__ * const,CWndData>, COMDAT
; _this$ = ecx

; 34   : 		{	// construct from specified values

  00000	55		 push	 ebp
  00001	8b ec		 mov	 ebp, esp
  00003	51		 push	 ecx
  00004	c7 45 fc cc cc
	cc cc		 mov	 DWORD PTR [ebp-4], -858993460 ; ccccccccH
  0000b	89 4d fc	 mov	 DWORD PTR _this$[ebp], ecx
  0000e	8b 45 fc	 mov	 eax, DWORD PTR _this$[ebp]
  00011	8b 4d 08	 mov	 ecx, DWORD PTR __Val1$[ebp]
  00014	8b 11		 mov	 edx, DWORD PTR [ecx]
  00016	89 10		 mov	 DWORD PTR [eax], edx
  00018	8b 45 0c	 mov	 eax, DWORD PTR __Val2$[ebp]
  0001b	8b 08		 mov	 ecx, DWORD PTR [eax]
  0001d	8b 50 04	 mov	 edx, DWORD PTR [eax+4]
  00020	8b 45 fc	 mov	 eax, DWORD PTR _this$[ebp]
  00023	89 48 04	 mov	 DWORD PTR [eax+4], ecx
  00026	89 50 08	 mov	 DWORD PTR [eax+8], edx

; 35   : 		}

  00029	8b 45 fc	 mov	 eax, DWORD PTR _this$[ebp]
  0002c	8b e5		 mov	 esp, ebp
  0002e	5d		 pop	 ebp
  0002f	c2 08 00	 ret	 8
??0?$pair@QAUHWND__@@UCWndData@@@std@@QAE@ABQAUHWND__@@ABUCWndData@@@Z ENDP ; std::pair<HWND__ * const,CWndData>::pair<HWND__ * const,CWndData>
_TEXT	ENDS
PUBLIC	??Dconst_iterator@?$vector@PAVCHostWnd@@V?$allocator@PAVCHostWnd@@@std@@@std@@QBEABQAVCHostWnd@@XZ ; std::vector<CHostWnd *,std::allocator<CHostWnd *> >::const_iterator::operator*
; Function compile flags: /Odt /RTCsu
; File d:\program files (x86)\microsoft visual studio .net 2003\vc7\include\vector
;	COMDAT ??Diterator@?$vector@PAVCHostWnd@@V?$allocator@PAVCHostWnd@@@std@@@std@@QBEAAPAVCHostWnd@@XZ
_TEXT	SEGMENT
_this$ = -4						; size = 4
??Diterator@?$vector@PAVCHostWnd@@V?$allocator@PAVCHostWnd@@@std@@@std@@QBEAAPAVCHostWnd@@XZ PROC NEAR ; std::vector<CHostWnd *,std::allocator<CHostWnd *> >::iterator::operator*, COMDAT
; _this$ = ecx

; 219  : 			{	// return designated object

  00000	55		 push	 ebp
  00001	8b ec		 mov	 ebp, esp
  00003	51		 push	 ecx
  00004	c7 45 fc cc cc
	cc cc		 mov	 DWORD PTR [ebp-4], -858993460 ; ccccccccH
  0000b	89 4d fc	 mov	 DWORD PTR _this$[ebp], ecx

; 220  : 			return ((reference)**(const_iterator *)this);

  0000e	8b 4d fc	 mov	 ecx, DWORD PTR _this$[ebp]
  00011	e8 00 00 00 00	 call	 ??Dconst_iterator@?$vector@PAVCHostWnd@@V?$allocator@PAVCHostWnd@@@std@@@std@@QBEABQAVCHostWnd@@XZ ; std::vector<CHostWnd *,std::allocator<CHostWnd *> >::const_iterator::operator*

; 221  : 			}

  00016	83 c4 04	 add	 esp, 4
  00019	3b ec		 cmp	 ebp, esp
  0001b	e8 00 00 00 00	 call	 __RTC_CheckEsp
  00020	8b e5		 mov	 esp, ebp
  00022	5d		 pop	 ebp
  00023	c3		 ret	 0
??Diterator@?$vector@PAVCHostWnd@@V?$allocator@PAVCHostWnd@@@std@@@std@@QBEAAPAVCHostWnd@@XZ ENDP ; std::vector<CHostWnd *,std::allocator<CHostWnd *> >::iterator::operator*
_TEXT	ENDS
PUBLIC	??Yiterator@?$vector@PAVCHostWnd@@V?$allocator@PAVCHostWnd@@@std@@@std@@QAEAAV012@H@Z ; std::vector<CHostWnd *,std::allocator<CHostWnd *> >::iterator::operator+=
; Function compile flags: /Odt /RTCsu
;	COMDAT ??Hiterator@?$vector@PAVCHostWnd@@V?$allocator@PAVCHostWnd@@@std@@@std@@QBE?AV012@H@Z
_TEXT	SEGMENT
__Tmp$ = -12						; size = 4
_this$ = -4						; size = 4
___$ReturnUdt$ = 8					; size = 4
__Off$ = 12						; size = 4
??Hiterator@?$vector@PAVCHostWnd@@V?$allocator@PAVCHostWnd@@@std@@@std@@QBE?AV012@H@Z PROC NEAR ; std::vector<CHostWnd *,std::allocator<CHostWnd *> >::iterator::operator+, COMDAT
; _this$ = ecx

; 261  : 			{	// return this + integer

  00000	55		 push	 ebp
  00001	8b ec		 mov	 ebp, esp
  00003	83 ec 10	 sub	 esp, 16			; 00000010H
  00006	b8 cc cc cc cc	 mov	 eax, -858993460		; ccccccccH
  0000b	89 45 f0	 mov	 DWORD PTR [ebp-16], eax
  0000e	89 45 f4	 mov	 DWORD PTR [ebp-12], eax
  00011	89 45 f8	 mov	 DWORD PTR [ebp-8], eax
  00014	89 45 fc	 mov	 DWORD PTR [ebp-4], eax
  00017	89 4d fc	 mov	 DWORD PTR _this$[ebp], ecx

; 262  : 			iterator _Tmp = *this;

  0001a	8b 45 fc	 mov	 eax, DWORD PTR _this$[ebp]
  0001d	8b 08		 mov	 ecx, DWORD PTR [eax]
  0001f	89 4d f4	 mov	 DWORD PTR __Tmp$[ebp], ecx

; 263  : 			return (_Tmp += _Off);

  00022	8b 55 0c	 mov	 edx, DWORD PTR __Off$[ebp]
  00025	52		 push	 edx
  00026	8d 4d f4	 lea	 ecx, DWORD PTR __Tmp$[ebp]
  00029	e8 00 00 00 00	 call	 ??Yiterator@?$vector@PAVCHostWnd@@V?$allocator@PAVCHostWnd@@@std@@@std@@QAEAAV012@H@Z ; std::vector<CHostWnd *,std::allocator<CHostWnd *> >::iterator::operator+=
  0002e	8b 00		 mov	 eax, DWORD PTR [eax]
  00030	8b 4d 08	 mov	 ecx, DWORD PTR ___$ReturnUdt$[ebp]
  00033	89 01		 mov	 DWORD PTR [ecx], eax
  00035	8b 45 08	 mov	 eax, DWORD PTR ___$ReturnUdt$[ebp]

; 264  : 			}

  00038	52		 push	 edx
  00039	8b cd		 mov	 ecx, ebp
  0003b	50		 push	 eax
  0003c	8d 15 00 00 00
	00		 lea	 edx, DWORD PTR $L192397
  00042	e8 00 00 00 00	 call	 @_RTC_CheckStackVars@8
  00047	58		 pop	 eax
  00048	5a		 pop	 edx
  00049	83 c4 10	 add	 esp, 16			; 00000010H
  0004c	3b ec		 cmp	 ebp, esp
  0004e	e8 00 00 00 00	 call	 __RTC_CheckEsp
  00053	8b e5		 mov	 esp, ebp
  00055	5d		 pop	 ebp
  00056	c2 08 00	 ret	 8
$L192397:
  00059	01 00 00 00	 DD	 1
  0005d	00 00 00 00	 DD	 $L192396
$L192396:
  00061	f4 ff ff ff	 DD	 -12			; fffffff4H
  00065	04 00 00 00	 DD	 4
  00069	00 00 00 00	 DD	 $L192395
$L192395:
  0006d	5f		 DB	 95			; 0000005fH
  0006e	54		 DB	 84			; 00000054H
  0006f	6d		 DB	 109			; 0000006dH
  00070	70		 DB	 112			; 00000070H
  00071	00		 DB	 0
??Hiterator@?$vector@PAVCHostWnd@@V?$allocator@PAVCHostWnd@@@std@@@std@@QBE?AV012@H@Z ENDP ; std::vector<CHostWnd *,std::allocator<CHostWnd *> >::iterator::operator+
_TEXT	ENDS
PUBLIC	??Dconst_iterator@?$vector@USepWindowData@@V?$allocator@USepWindowData@@@std@@@std@@QBEABUSepWindowData@@XZ ; std::vector<SepWindowData,std::allocator<SepWindowData> >::const_iterator::operator*
; Function compile flags: /Odt /RTCsu
;	COMDAT ??Diterator@?$vector@USepWindowData@@V?$allocator@USepWindowData@@@std@@@std@@QBEAAUSepWindowData@@XZ
_TEXT	SEGMENT
_this$ = -4						; size = 4
??Diterator@?$vector@USepWindowData@@V?$allocator@USepWindowData@@@std@@@std@@QBEAAUSepWindowData@@XZ PROC NEAR ; std::vector<SepWindowData,std::allocator<SepWindowData> >::iterator::operator*, COMDAT
; _this$ = ecx

; 219  : 			{	// return designated object

  00000	55		 push	 ebp
  00001	8b ec		 mov	 ebp, esp
  00003	51		 push	 ecx
  00004	c7 45 fc cc cc
	cc cc		 mov	 DWORD PTR [ebp-4], -858993460 ; ccccccccH
  0000b	89 4d fc	 mov	 DWORD PTR _this$[ebp], ecx

; 220  : 			return ((reference)**(const_iterator *)this);

  0000e	8b 4d fc	 mov	 ecx, DWORD PTR _this$[ebp]
  00011	e8 00 00 00 00	 call	 ??Dconst_iterator@?$vector@USepWindowData@@V?$allocator@USepWindowData@@@std@@@std@@QBEABUSepWindowData@@XZ ; std::vector<SepWindowData,std::allocator<SepWindowData> >::const_iterator::operator*

; 221  : 			}

  00016	83 c4 04	 add	 esp, 4
  00019	3b ec		 cmp	 ebp, esp
  0001b	e8 00 00 00 00	 call	 __RTC_CheckEsp
  00020	8b e5		 mov	 esp, ebp
  00022	5d		 pop	 ebp
  00023	c3		 ret	 0
??Diterator@?$vector@USepWindowData@@V?$allocator@USepWindowData@@@std@@@std@@QBEAAUSepWindowData@@XZ ENDP ; std::vector<SepWindowData,std::allocator<SepWindowData> >::iterator::operator*
_TEXT	ENDS
PUBLIC	??Yiterator@?$vector@USepWindowData@@V?$allocator@USepWindowData@@@std@@@std@@QAEAAV012@H@Z ; std::vector<SepWindowData,std::allocator<SepWindowData> >::iterator::operator+=
; Function compile flags: /Odt /RTCsu
;	COMDAT ??Hiterator@?$vector@USepWindowData@@V?$allocator@USepWindowData@@@std@@@std@@QBE?AV012@H@Z
_TEXT	SEGMENT
__Tmp$ = -12						; size = 4
_this$ = -4						; size = 4
___$ReturnUdt$ = 8					; size = 4
__Off$ = 12						; size = 4
??Hiterator@?$vector@USepWindowData@@V?$allocator@USepWindowData@@@std@@@std@@QBE?AV012@H@Z PROC NEAR ; std::vector<SepWindowData,std::allocator<SepWindowData> >::iterator::operator+, COMDAT
; _this$ = ecx

; 261  : 			{	// return this + integer

  00000	55		 push	 ebp
  00001	8b ec		 mov	 ebp, esp
  00003	83 ec 10	 sub	 esp, 16			; 00000010H
  00006	b8 cc cc cc cc	 mov	 eax, -858993460		; ccccccccH
  0000b	89 45 f0	 mov	 DWORD PTR [ebp-16], eax
  0000e	89 45 f4	 mov	 DWORD PTR [ebp-12], eax
  00011	89 45 f8	 mov	 DWORD PTR [ebp-8], eax
  00014	89 45 fc	 mov	 DWORD PTR [ebp-4], eax
  00017	89 4d fc	 mov	 DWORD PTR _this$[ebp], ecx

; 262  : 			iterator _Tmp = *this;

  0001a	8b 45 fc	 mov	 eax, DWORD PTR _this$[ebp]
  0001d	8b 08		 mov	 ecx, DWORD PTR [eax]
  0001f	89 4d f4	 mov	 DWORD PTR __Tmp$[ebp], ecx

; 263  : 			return (_Tmp += _Off);

  00022	8b 55 0c	 mov	 edx, DWORD PTR __Off$[ebp]
  00025	52		 push	 edx
  00026	8d 4d f4	 lea	 ecx, DWORD PTR __Tmp$[ebp]
  00029	e8 00 00 00 00	 call	 ??Yiterator@?$vector@USepWindowData@@V?$allocator@USepWindowData@@@std@@@std@@QAEAAV012@H@Z ; std::vector<SepWindowData,std::allocator<SepWindowData> >::iterator::operator+=
  0002e	8b 00		 mov	 eax, DWORD PTR [eax]
  00030	8b 4d 08	 mov	 ecx, DWORD PTR ___$ReturnUdt$[ebp]
  00033	89 01		 mov	 DWORD PTR [ecx], eax
  00035	8b 45 08	 mov	 eax, DWORD PTR ___$ReturnUdt$[ebp]

; 264  : 			}

  00038	52		 push	 edx
  00039	8b cd		 mov	 ecx, ebp
  0003b	50		 push	 eax
  0003c	8d 15 00 00 00
	00		 lea	 edx, DWORD PTR $L192402
  00042	e8 00 00 00 00	 call	 @_RTC_CheckStackVars@8
  00047	58		 pop	 eax
  00048	5a		 pop	 edx
  00049	83 c4 10	 add	 esp, 16			; 00000010H
  0004c	3b ec		 cmp	 ebp, esp
  0004e	e8 00 00 00 00	 call	 __RTC_CheckEsp
  00053	8b e5		 mov	 esp, ebp
  00055	5d		 pop	 ebp
  00056	c2 08 00	 ret	 8
$L192402:
  00059	01 00 00 00	 DD	 1
  0005d	00 00 00 00	 DD	 $L192401
$L192401:
  00061	f4 ff ff ff	 DD	 -12			; fffffff4H
  00065	04 00 00 00	 DD	 4
  00069	00 00 00 00	 DD	 $L192400
$L192400:
  0006d	5f		 DB	 95			; 0000005fH
  0006e	54		 DB	 84			; 00000054H
  0006f	6d		 DB	 109			; 0000006dH
  00070	70		 DB	 112			; 00000070H
  00071	00		 DB	 0
??Hiterator@?$vector@USepWindowData@@V?$allocator@USepWindowData@@@std@@@std@@QBE?AV012@H@Z ENDP ; std::vector<SepWindowData,std::allocator<SepWindowData> >::iterator::operator+
; Function compile flags: /Odt /RTCsu
; File d:\program files (x86)\microsoft visual studio .net 2003\vc7\include\xtree
_TEXT	ENDS
;	COMDAT ?_Isnil@?$_Tree@V?$_Tmap_traits@PAUHWND__@@UCWndData@@U?$less@PAUHWND__@@@std@@V?$allocator@U?$pair@QAUHWND__@@UCWndData@@@std@@@4@$0A@@std@@@std@@KAAADPAU_Node@?$_Tree_nod@V?$_Tmap_traits@PAUHWND__@@UCWndData@@U?$less@PAUHWND__@@@std@@V?$allocator@U?$pair@QAUHWND__@@UCWndData@@@std@@@4@$0A@@std@@@2@@Z
_TEXT	SEGMENT
__Pnode$ = 8						; size = 4
?_Isnil@?$_Tree@V?$_Tmap_traits@PAUHWND__@@UCWndData@@U?$less@PAUHWND__@@@std@@V?$allocator@U?$pair@QAUHWND__@@UCWndData@@@std@@@4@$0A@@std@@@std@@KAAADPAU_Node@?$_Tree_nod@V?$_Tmap_traits@PAUHWND__@@UCWndData@@U?$less@PAUHWND__@@@std@@V?$allocator@U?$pair@QAUHWND__@@UCWndData@@@std@@@4@$0A@@std@@@2@@Z PROC NEAR ; std::_Tree<std::_Tmap_traits<HWND__ *,CWndData,std::less<HWND__ *>,std::allocator<std::pair<HWND__ * const,CWndData> >,0> >::_Isnil, COMDAT

; 136  : 		{	// return reference to nil flag in node

  00000	55		 push	 ebp
  00001	8b ec		 mov	 ebp, esp

; 137  : 		return ((_Charref)(*_Pnode)._Isnil);

  00003	8b 45 08	 mov	 eax, DWORD PTR __Pnode$[ebp]
  00006	83 c0 19	 add	 eax, 25			; 00000019H

; 138  : 		}

  00009	5d		 pop	 ebp
  0000a	c3		 ret	 0
?_Isnil@?$_Tree@V?$_Tmap_traits@PAUHWND__@@UCWndData@@U?$less@PAUHWND__@@@std@@V?$allocator@U?$pair@QAUHWND__@@UCWndData@@@std@@@4@$0A@@std@@@std@@KAAADPAU_Node@?$_Tree_nod@V?$_Tmap_traits@PAUHWND__@@UCWndData@@U?$less@PAUHWND__@@@std@@V?$allocator@U?$pair@QAUHWND__@@UCWndData@@@std@@@4@$0A@@std@@@2@@Z ENDP ; std::_Tree<std::_Tmap_traits<HWND__ *,CWndData,std::less<HWND__ *>,std::allocator<std::pair<HWND__ * const,CWndData> >,0> >::_Isnil
; Function compile flags: /Odt /RTCsu
_TEXT	ENDS
;	COMDAT ?_Left@?$_Tree@V?$_Tmap_traits@PAUHWND__@@UCWndData@@U?$less@PAUHWND__@@@std@@V?$allocator@U?$pair@QAUHWND__@@UCWndData@@@std@@@4@$0A@@std@@@std@@KAAAPAU_Node@?$_Tree_nod@V?$_Tmap_traits@PAUHWND__@@UCWndData@@U?$less@PAUHWND__@@@std@@V?$allocator@U?$pair@QAUHWND__@@UCWndData@@@std@@@4@$0A@@std@@@2@PAU342@@Z
_TEXT	SEGMENT
__Pnode$ = 8						; size = 4
?_Left@?$_Tree@V?$_Tmap_traits@PAUHWND__@@UCWndData@@U?$less@PAUHWND__@@@std@@V?$allocator@U?$pair@QAUHWND__@@UCWndData@@@std@@@4@$0A@@std@@@std@@KAAAPAU_Node@?$_Tree_nod@V?$_Tmap_traits@PAUHWND__@@UCWndData@@U?$less@PAUHWND__@@@std@@V?$allocator@U?$pair@QAUHWND__@@UCWndData@@@std@@@4@$0A@@std@@@2@PAU342@@Z PROC NEAR ; std::_Tree<std::_Tmap_traits<HWND__ *,CWndData,std::less<HWND__ *>,std::allocator<std::pair<HWND__ * const,CWndData> >,0> >::_Left, COMDAT

; 146  : 		{	// return reference to left pointer in node

  00000	55		 push	 ebp
  00001	8b ec		 mov	 ebp, esp

; 147  : 		return ((_Nodepref)(*_Pnode)._Left);

  00003	8b 45 08	 mov	 eax, DWORD PTR __Pnode$[ebp]

; 148  : 		}

  00006	5d		 pop	 ebp
  00007	c3		 ret	 0
?_Left@?$_Tree@V?$_Tmap_traits@PAUHWND__@@UCWndData@@U?$less@PAUHWND__@@@std@@V?$allocator@U?$pair@QAUHWND__@@UCWndData@@@std@@@4@$0A@@std@@@std@@KAAAPAU_Node@?$_Tree_nod@V?$_Tmap_traits@PAUHWND__@@UCWndData@@U?$less@PAUHWND__@@@std@@V?$allocator@U?$pair@QAUHWND__@@UCWndData@@@std@@@4@$0A@@std@@@2@PAU342@@Z ENDP ; std::_Tree<std::_Tmap_traits<HWND__ *,CWndData,std::less<HWND__ *>,std::allocator<std::pair<HWND__ * const,CWndData> >,0> >::_Left
; Function compile flags: /Odt /RTCsu
_TEXT	ENDS
;	COMDAT ?_Parent@?$_Tree@V?$_Tmap_traits@PAUHWND__@@UCWndData@@U?$less@PAUHWND__@@@std@@V?$allocator@U?$pair@QAUHWND__@@UCWndData@@@std@@@4@$0A@@std@@@std@@KAAAPAU_Node@?$_Tree_nod@V?$_Tmap_traits@PAUHWND__@@UCWndData@@U?$less@PAUHWND__@@@std@@V?$allocator@U?$pair@QAUHWND__@@UCWndData@@@std@@@4@$0A@@std@@@2@PAU342@@Z
_TEXT	SEGMENT
__Pnode$ = 8						; size = 4
?_Parent@?$_Tree@V?$_Tmap_traits@PAUHWND__@@UCWndData@@U?$less@PAUHWND__@@@std@@V?$allocator@U?$pair@QAUHWND__@@UCWndData@@@std@@@4@$0A@@std@@@std@@KAAAPAU_Node@?$_Tree_nod@V?$_Tmap_traits@PAUHWND__@@UCWndData@@U?$less@PAUHWND__@@@std@@V?$allocator@U?$pair@QAUHWND__@@UCWndData@@@std@@@4@$0A@@std@@@2@PAU342@@Z PROC NEAR ; std::_Tree<std::_Tmap_traits<HWND__ *,CWndData,std::less<HWND__ *>,std::allocator<std::pair<HWND__ * const,CWndData> >,0> >::_Parent, COMDAT

; 151  : 		{	// return reference to parent pointer in node

  00000	55		 push	 ebp
  00001	8b ec		 mov	 ebp, esp

; 152  : 		return ((_Nodepref)(*_Pnode)._Parent);

  00003	8b 45 08	 mov	 eax, DWORD PTR __Pnode$[ebp]
  00006	83 c0 04	 add	 eax, 4

; 153  : 		}

  00009	5d		 pop	 ebp
  0000a	c3		 ret	 0
?_Parent@?$_Tree@V?$_Tmap_traits@PAUHWND__@@UCWndData@@U?$less@PAUHWND__@@@std@@V?$allocator@U?$pair@QAUHWND__@@UCWndData@@@std@@@4@$0A@@std@@@std@@KAAAPAU_Node@?$_Tree_nod@V?$_Tmap_traits@PAUHWND__@@UCWndData@@U?$less@PAUHWND__@@@std@@V?$allocator@U?$pair@QAUHWND__@@UCWndData@@@std@@@4@$0A@@std@@@2@PAU342@@Z ENDP ; std::_Tree<std::_Tmap_traits<HWND__ *,CWndData,std::less<HWND__ *>,std::allocator<std::pair<HWND__ * const,CWndData> >,0> >::_Parent
; Function compile flags: /Odt /RTCsu
_TEXT	ENDS
;	COMDAT ?_Right@?$_Tree@V?$_Tmap_traits@PAUHWND__@@UCWndData@@U?$less@PAUHWND__@@@std@@V?$allocator@U?$pair@QAUHWND__@@UCWndData@@@std@@@4@$0A@@std@@@std@@KAAAPAU_Node@?$_Tree_nod@V?$_Tmap_traits@PAUHWND__@@UCWndData@@U?$less@PAUHWND__@@@std@@V?$allocator@U?$pair@QAUHWND__@@UCWndData@@@std@@@4@$0A@@std@@@2@PAU342@@Z
_TEXT	SEGMENT
__Pnode$ = 8						; size = 4
?_Right@?$_Tree@V?$_Tmap_traits@PAUHWND__@@UCWndData@@U?$less@PAUHWND__@@@std@@V?$allocator@U?$pair@QAUHWND__@@UCWndData@@@std@@@4@$0A@@std@@@std@@KAAAPAU_Node@?$_Tree_nod@V?$_Tmap_traits@PAUHWND__@@UCWndData@@U?$less@PAUHWND__@@@std@@V?$allocator@U?$pair@QAUHWND__@@UCWndData@@@std@@@4@$0A@@std@@@2@PAU342@@Z PROC NEAR ; std::_Tree<std::_Tmap_traits<HWND__ *,CWndData,std::less<HWND__ *>,std::allocator<std::pair<HWND__ * const,CWndData> >,0> >::_Right, COMDAT

; 156  : 		{	// return reference to right pointer in node

  00000	55		 push	 ebp
  00001	8b ec		 mov	 ebp, esp

; 157  : 		return ((_Nodepref)(*_Pnode)._Right);

  00003	8b 45 08	 mov	 eax, DWORD PTR __Pnode$[ebp]
  00006	83 c0 08	 add	 eax, 8

; 158  : 		}

  00009	5d		 pop	 ebp
  0000a	c3		 ret	 0
?_Right@?$_Tree@V?$_Tmap_traits@PAUHWND__@@UCWndData@@U?$less@PAUHWND__@@@std@@V?$allocator@U?$pair@QAUHWND__@@UCWndData@@@std@@@4@$0A@@std@@@std@@KAAAPAU_Node@?$_Tree_nod@V?$_Tmap_traits@PAUHWND__@@UCWndData@@U?$less@PAUHWND__@@@std@@V?$allocator@U?$pair@QAUHWND__@@UCWndData@@@std@@@4@$0A@@std@@@2@PAU342@@Z ENDP ; std::_Tree<std::_Tmap_traits<HWND__ *,CWndData,std::less<HWND__ *>,std::allocator<std::pair<HWND__ * const,CWndData> >,0> >::_Right
; Function compile flags: /Odt /RTCsu
_TEXT	ENDS
;	COMDAT ?_Myval@?$_Tree@V?$_Tmap_traits@PAUHWND__@@UCWndData@@U?$less@PAUHWND__@@@std@@V?$allocator@U?$pair@QAUHWND__@@UCWndData@@@std@@@4@$0A@@std@@@std@@KAAAU?$pair@QAUHWND__@@UCWndData@@@2@PAU_Node@?$_Tree_nod@V?$_Tmap_traits@PAUHWND__@@UCWndData@@U?$less@PAUHWND__@@@std@@V?$allocator@U?$pair@QAUHWND__@@UCWndData@@@std@@@4@$0A@@std@@@2@@Z
_TEXT	SEGMENT
__Pnode$ = 8						; size = 4
?_Myval@?$_Tree@V?$_Tmap_traits@PAUHWND__@@UCWndData@@U?$less@PAUHWND__@@@std@@V?$allocator@U?$pair@QAUHWND__@@UCWndData@@@std@@@4@$0A@@std@@@std@@KAAAU?$pair@QAUHWND__@@UCWndData@@@2@PAU_Node@?$_Tree_nod@V?$_Tmap_traits@PAUHWND__@@UCWndData@@U?$less@PAUHWND__@@@std@@V?$allocator@U?$pair@QAUHWND__@@UCWndData@@@std@@@4@$0A@@std@@@2@@Z PROC NEAR ; std::_Tree<std::_Tmap_traits<HWND__ *,CWndData,std::less<HWND__ *>,std::allocator<std::pair<HWND__ * const,CWndData> >,0> >::_Myval, COMDAT

; 161  : 		{	// return reference to value in node

  00000	55		 push	 ebp
  00001	8b ec		 mov	 ebp, esp

; 162  : 		return ((_Vref)(*_Pnode)._Myval);

  00003	8b 45 08	 mov	 eax, DWORD PTR __Pnode$[ebp]
  00006	83 c0 0c	 add	 eax, 12			; 0000000cH

; 163  : 		}

  00009	5d		 pop	 ebp
  0000a	c3		 ret	 0
?_Myval@?$_Tree@V?$_Tmap_traits@PAUHWND__@@UCWndData@@U?$less@PAUHWND__@@@std@@V?$allocator@U?$pair@QAUHWND__@@UCWndData@@@std@@@4@$0A@@std@@@std@@KAAAU?$pair@QAUHWND__@@UCWndData@@@2@PAU_Node@?$_Tree_nod@V?$_Tmap_traits@PAUHWND__@@UCWndData@@U?$less@PAUHWND__@@@std@@V?$allocator@U?$pair@QAUHWND__@@UCWndData@@@std@@@4@$0A@@std@@@2@@Z ENDP ; std::_Tree<std::_Tmap_traits<HWND__ *,CWndData,std::less<HWND__ *>,std::allocator<std::pair<HWND__ * const,CWndData> >,0> >::_Myval
; Function compile flags: /Odt /RTCsu
_TEXT	ENDS
;	COMDAT ?size@?$_Tree@V?$_Tmap_traits@PAUHWND__@@UCWndData@@U?$less@PAUHWND__@@@std@@V?$allocator@U?$pair@QAUHWND__@@UCWndData@@@std@@@4@$0A@@std@@@std@@QBEIXZ
_TEXT	SEGMENT
_this$ = -4						; size = 4
?size@?$_Tree@V?$_Tmap_traits@PAUHWND__@@UCWndData@@U?$less@PAUHWND__@@@std@@V?$allocator@U?$pair@QAUHWND__@@UCWndData@@@std@@@4@$0A@@std@@@std@@QBEIXZ PROC NEAR ; std::_Tree<std::_Tmap_traits<HWND__ *,CWndData,std::less<HWND__ *>,std::allocator<std::pair<HWND__ * const,CWndData> >,0> >::size, COMDAT
; _this$ = ecx

; 447  : 		{	// return length of sequence

  00000	55		 push	 ebp
  00001	8b ec		 mov	 ebp, esp
  00003	51		 push	 ecx
  00004	c7 45 fc cc cc
	cc cc		 mov	 DWORD PTR [ebp-4], -858993460 ; ccccccccH
  0000b	89 4d fc	 mov	 DWORD PTR _this$[ebp], ecx

; 448  : 		return (_Mysize);

  0000e	8b 45 fc	 mov	 eax, DWORD PTR _this$[ebp]
  00011	8b 40 08	 mov	 eax, DWORD PTR [eax+8]

; 449  : 		}

  00014	8b e5		 mov	 esp, ebp
  00016	5d		 pop	 ebp
  00017	c3		 ret	 0
?size@?$_Tree@V?$_Tmap_traits@PAUHWND__@@UCWndData@@U?$less@PAUHWND__@@@std@@V?$allocator@U?$pair@QAUHWND__@@UCWndData@@@std@@@4@$0A@@std@@@std@@QBEIXZ ENDP ; std::_Tree<std::_Tmap_traits<HWND__ *,CWndData,std::less<HWND__ *>,std::allocator<std::pair<HWND__ * const,CWndData> >,0> >::size
_TEXT	ENDS
PUBLIC	?_Root@?$_Tree@V?$_Tmap_traits@PAUHWND__@@UCWndData@@U?$less@PAUHWND__@@@std@@V?$allocator@U?$pair@QAUHWND__@@UCWndData@@@std@@@4@$0A@@std@@@std@@IAEAAPAU_Node@?$_Tree_nod@V?$_Tmap_traits@PAUHWND__@@UCWndData@@U?$less@PAUHWND__@@@std@@V?$allocator@U?$pair@QAUHWND__@@UCWndData@@@std@@@4@$0A@@std@@@2@XZ ; std::_Tree<std::_Tmap_traits<HWND__ *,CWndData,std::less<HWND__ *>,std::allocator<std::pair<HWND__ * const,CWndData> >,0> >::_Root
PUBLIC	??0?$pair@Viterator@?$_Tree@V?$_Tmap_traits@PAUHWND__@@UCWndData@@U?$less@PAUHWND__@@@std@@V?$allocator@U?$pair@QAUHWND__@@UCWndData@@@std@@@4@$0A@@std@@@std@@_N@std@@QAE@ABViterator@?$_Tree@V?$_Tmap_traits@PAUHWND__@@UCWndData@@U?$less@PAUHWND__@@@std@@V?$allocator@U?$pair@QAUHWND__@@UCWndData@@@std@@@4@$0A@@std@@@1@AB_N@Z ; std::pair<std::_Tree<std::_Tmap_traits<HWND__ *,CWndData,std::less<HWND__ *>,std::allocator<std::pair<HWND__ * const,CWndData> >,0> >::iterator,bool>::pair<std::_Tree<std::_Tmap_traits<HWND__ *,CWndData,std::less<HWND__ *>,std::allocator<std::pair<HWND__ * const,CWndData> >,0> >::iterator,bool>
; Function compile flags: /Odt /RTCsu
;	COMDAT ?insert@?$_Tree@V?$_Tmap_traits@PAUHWND__@@UCWndData@@U?$less@PAUHWND__@@@std@@V?$allocator@U?$pair@QAUHWND__@@UCWndData@@@std@@@4@$0A@@std@@@std@@QAE?AU?$pair@Viterator@?$_Tree@V?$_Tmap_traits@PAUHWND__@@UCWndData@@U?$less@PAUHWND__@@@std@@V?$allocator@U?$pair@QAUHWND__@@UCWndData@@@std@@@4@$0A@@std@@@std@@_N@2@ABU?$pair@QAUHWND__@@UCWndData@@@2@@Z
_TEXT	SEGMENT
tv85 = -64						; size = 4
$T192419 = -57						; size = 1
$T192418 = -56						; size = 4
$T192417 = -49						; size = 1
$T192416 = -48						; size = 4
$T192415 = -41						; size = 1
$T192414 = -40						; size = 4
$T192413 = -36						; size = 4
$T192412 = -29						; size = 1
__Where$190543 = -24					; size = 4
__Addleft$ = -13					; size = 1
__Wherenode$ = -12					; size = 4
__Trynode$ = -8						; size = 4
_this$ = -4						; size = 4
___$ReturnUdt$ = 8					; size = 4
__Val$ = 12						; size = 4
?insert@?$_Tree@V?$_Tmap_traits@PAUHWND__@@UCWndData@@U?$less@PAUHWND__@@@std@@V?$allocator@U?$pair@QAUHWND__@@UCWndData@@@std@@@4@$0A@@std@@@std@@QAE?AU?$pair@Viterator@?$_Tree@V?$_Tmap_traits@PAUHWND__@@UCWndData@@U?$less@PAUHWND__@@@std@@V?$allocator@U?$pair@QAUHWND__@@UCWndData@@@std@@@4@$0A@@std@@@std@@_N@2@ABU?$pair@QAUHWND__@@UCWndData@@@2@@Z PROC NEAR ; std::_Tree<std::_Tmap_traits<HWND__ *,CWndData,std::less<HWND__ *>,std::allocator<std::pair<HWND__ * const,CWndData> >,0> >::insert, COMDAT
; _this$ = ecx

; 477  : 		{	// try to insert node with value _Val

  00000	55		 push	 ebp
  00001	8b ec		 mov	 ebp, esp
  00003	83 ec 40	 sub	 esp, 64			; 00000040H
  00006	57		 push	 edi
  00007	51		 push	 ecx
  00008	8d 7d c0	 lea	 edi, DWORD PTR [ebp-64]
  0000b	b9 10 00 00 00	 mov	 ecx, 16			; 00000010H
  00010	b8 cc cc cc cc	 mov	 eax, -858993460		; ccccccccH
  00015	f3 ab		 rep stosd
  00017	59		 pop	 ecx
  00018	89 4d fc	 mov	 DWORD PTR _this$[ebp], ecx

; 478  : 		_Nodeptr _Trynode = _Root();

  0001b	8b 4d fc	 mov	 ecx, DWORD PTR _this$[ebp]
  0001e	e8 00 00 00 00	 call	 ?_Root@?$_Tree@V?$_Tmap_traits@PAUHWND__@@UCWndData@@U?$less@PAUHWND__@@@std@@V?$allocator@U?$pair@QAUHWND__@@UCWndData@@@std@@@4@$0A@@std@@@std@@IAEAAPAU_Node@?$_Tree_nod@V?$_Tmap_traits@PAUHWND__@@UCWndData@@U?$less@PAUHWND__@@@std@@V?$allocator@U?$pair@QAUHWND__@@UCWndData@@@std@@@4@$0A@@std@@@2@XZ ; std::_Tree<std::_Tmap_traits<HWND__ *,CWndData,std::less<HWND__ *>,std::allocator<std::pair<HWND__ * const,CWndData> >,0> >::_Root
  00023	8b 00		 mov	 eax, DWORD PTR [eax]
  00025	89 45 f8	 mov	 DWORD PTR __Trynode$[ebp], eax

; 479  : 		_Nodeptr _Wherenode = _Myhead;

  00028	8b 4d fc	 mov	 ecx, DWORD PTR _this$[ebp]
  0002b	8b 51 04	 mov	 edx, DWORD PTR [ecx+4]
  0002e	89 55 f4	 mov	 DWORD PTR __Wherenode$[ebp], edx

; 480  : 		bool _Addleft = true;	// add to left of head if tree empty

  00031	c6 45 f3 01	 mov	 BYTE PTR __Addleft$[ebp], 1
$L190532:

; 481  : 		while (!_Isnil(_Trynode))

  00035	8b 45 f8	 mov	 eax, DWORD PTR __Trynode$[ebp]
  00038	50		 push	 eax
  00039	e8 00 00 00 00	 call	 ?_Isnil@?$_Tree@V?$_Tmap_traits@PAUHWND__@@UCWndData@@U?$less@PAUHWND__@@@std@@V?$allocator@U?$pair@QAUHWND__@@UCWndData@@@std@@@4@$0A@@std@@@std@@KAAADPAU_Node@?$_Tree_nod@V?$_Tmap_traits@PAUHWND__@@UCWndData@@U?$less@PAUHWND__@@@std@@V?$allocator@U?$pair@QAUHWND__@@UCWndData@@@std@@@4@$0A@@std@@@2@@Z ; std::_Tree<std::_Tmap_traits<HWND__ *,CWndData,std::less<HWND__ *>,std::allocator<std::pair<HWND__ * const,CWndData> >,0> >::_Isnil
  0003e	83 c4 04	 add	 esp, 4
  00041	0f be 08	 movsx	 ecx, BYTE PTR [eax]
  00044	85 c9		 test	 ecx, ecx
  00046	75 5f		 jne	 SHORT $L190533

; 482  : 			{	// look for leaf to insert before (_Addleft) or after
; 483  : 			_Wherenode = _Trynode;

  00048	8b 55 f8	 mov	 edx, DWORD PTR __Trynode$[ebp]
  0004b	89 55 f4	 mov	 DWORD PTR __Wherenode$[ebp], edx

; 484  : 			_Addleft = this->comp(this->_Kfn(_Val), _Key(_Trynode));

  0004e	8b 45 f8	 mov	 eax, DWORD PTR __Trynode$[ebp]
  00051	50		 push	 eax
  00052	e8 00 00 00 00	 call	 ?_Key@?$_Tree@V?$_Tmap_traits@PAUHWND__@@UCWndData@@U?$less@PAUHWND__@@@std@@V?$allocator@U?$pair@QAUHWND__@@UCWndData@@@std@@@4@$0A@@std@@@std@@KAABQAUHWND__@@PAU_Node@?$_Tree_nod@V?$_Tmap_traits@PAUHWND__@@UCWndData@@U?$less@PAUHWND__@@@std@@V?$allocator@U?$pair@QAUHWND__@@UCWndData@@@std@@@4@$0A@@std@@@2@@Z ; std::_Tree<std::_Tmap_traits<HWND__ *,CWndData,std::less<HWND__ *>,std::allocator<std::pair<HWND__ * const,CWndData> >,0> >::_Key
  00057	83 c4 04	 add	 esp, 4
  0005a	50		 push	 eax
  0005b	8b 4d 0c	 mov	 ecx, DWORD PTR __Val$[ebp]
  0005e	51		 push	 ecx
  0005f	e8 00 00 00 00	 call	 ?_Kfn@?$_Tmap_traits@PAUHWND__@@UCWndData@@U?$less@PAUHWND__@@@std@@V?$allocator@U?$pair@QAUHWND__@@UCWndData@@@std@@@4@$0A@@std@@SAABQAUHWND__@@ABU?$pair@QAUHWND__@@UCWndData@@@2@@Z ; std::_Tmap_traits<HWND__ *,CWndData,std::less<HWND__ *>,std::allocator<std::pair<HWND__ * const,CWndData> >,0>::_Kfn
  00064	83 c4 04	 add	 esp, 4
  00067	50		 push	 eax
  00068	8b 4d fc	 mov	 ecx, DWORD PTR _this$[ebp]
  0006b	e8 00 00 00 00	 call	 ??R?$less@PAUHWND__@@@std@@QBE_NABQAUHWND__@@0@Z ; std::less<HWND__ *>::operator()
  00070	88 45 f3	 mov	 BYTE PTR __Addleft$[ebp], al

; 485  : 			_Trynode = _Addleft ? _Left(_Trynode) : _Right(_Trynode);

  00073	0f b6 55 f3	 movzx	 edx, BYTE PTR __Addleft$[ebp]
  00077	85 d2		 test	 edx, edx
  00079	74 13		 je	 SHORT $L192410
  0007b	8b 45 f8	 mov	 eax, DWORD PTR __Trynode$[ebp]
  0007e	50		 push	 eax
  0007f	e8 00 00 00 00	 call	 ?_Left@?$_Tree@V?$_Tmap_traits@PAUHWND__@@UCWndData@@U?$less@PAUHWND__@@@std@@V?$allocator@U?$pair@QAUHWND__@@UCWndData@@@std@@@4@$0A@@std@@@std@@KAAAPAU_Node@?$_Tree_nod@V?$_Tmap_traits@PAUHWND__@@UCWndData@@U?$less@PAUHWND__@@@std@@V?$allocator@U?$pair@QAUHWND__@@UCWndData@@@std@@@4@$0A@@std@@@2@PAU342@@Z ; std::_Tree<std::_Tmap_traits<HWND__ *,CWndData,std::less<HWND__ *>,std::allocator<std::pair<HWND__ * const,CWndData> >,0> >::_Left
  00084	83 c4 04	 add	 esp, 4
  00087	8b 08		 mov	 ecx, DWORD PTR [eax]
  00089	89 4d c0	 mov	 DWORD PTR tv85[ebp], ecx
  0008c	eb 11		 jmp	 SHORT $L192411
$L192410:
  0008e	8b 55 f8	 mov	 edx, DWORD PTR __Trynode$[ebp]
  00091	52		 push	 edx
  00092	e8 00 00 00 00	 call	 ?_Right@?$_Tree@V?$_Tmap_traits@PAUHWND__@@UCWndData@@U?$less@PAUHWND__@@@std@@V?$allocator@U?$pair@QAUHWND__@@UCWndData@@@std@@@4@$0A@@std@@@std@@KAAAPAU_Node@?$_Tree_nod@V?$_Tmap_traits@PAUHWND__@@UCWndData@@U?$less@PAUHWND__@@@std@@V?$allocator@U?$pair@QAUHWND__@@UCWndData@@@std@@@4@$0A@@std@@@2@PAU342@@Z ; std::_Tree<std::_Tmap_traits<HWND__ *,CWndData,std::less<HWND__ *>,std::allocator<std::pair<HWND__ * const,CWndData> >,0> >::_Right
  00097	83 c4 04	 add	 esp, 4
  0009a	8b 00		 mov	 eax, DWORD PTR [eax]
  0009c	89 45 c0	 mov	 DWORD PTR tv85[ebp], eax
$L192411:
  0009f	8b 4d c0	 mov	 ecx, DWORD PTR tv85[ebp]
  000a2	89 4d f8	 mov	 DWORD PTR __Trynode$[ebp], ecx

; 486  : 			}

  000a5	eb 8e		 jmp	 SHORT $L190532
$L190533:

; 487  : 
; 488  : 		if (this->_Multi)

  000a7	33 d2		 xor	 edx, edx
  000a9	74 31		 je	 SHORT $L190534

; 489  : 			return (_Pairib(_Insert(_Addleft, _Wherenode, _Val), true));

  000ab	c6 45 e3 01	 mov	 BYTE PTR $T192412[ebp], 1
  000af	8d 45 e3	 lea	 eax, DWORD PTR $T192412[ebp]
  000b2	50		 push	 eax
  000b3	8b 4d 0c	 mov	 ecx, DWORD PTR __Val$[ebp]
  000b6	51		 push	 ecx
  000b7	8b 55 f4	 mov	 edx, DWORD PTR __Wherenode$[ebp]
  000ba	52		 push	 edx
  000bb	8a 45 f3	 mov	 al, BYTE PTR __Addleft$[ebp]
  000be	50		 push	 eax
  000bf	8d 4d dc	 lea	 ecx, DWORD PTR $T192413[ebp]
  000c2	51		 push	 ecx
  000c3	8b 4d fc	 mov	 ecx, DWORD PTR _this$[ebp]
  000c6	e8 00 00 00 00	 call	 ?_Insert@?$_Tree@V?$_Tmap_traits@PAUHWND__@@UCWndData@@U?$less@PAUHWND__@@@std@@V?$allocator@U?$pair@QAUHWND__@@UCWndData@@@std@@@4@$0A@@std@@@std@@IAE?AViterator@12@_NPAU_Node@?$_Tree_nod@V?$_Tmap_traits@PAUHWND__@@UCWndData@@U?$less@PAUHWND__@@@std@@V?$allocator@U?$pair@QAUHWND__@@UCWndData@@@std@@@4@$0A@@std@@@2@ABU?$pair@QAUHWND__@@UCWndData@@@2@@Z ; std::_Tree<std::_Tmap_traits<HWND__ *,CWndData,std::less<HWND__ *>,std::allocator<std::pair<HWND__ * const,CWndData> >,0> >::_Insert
  000cb	50		 push	 eax
  000cc	8b 4d 08	 mov	 ecx, DWORD PTR ___$ReturnUdt$[ebp]
  000cf	e8 00 00 00 00	 call	 ??0?$pair@Viterator@?$_Tree@V?$_Tmap_traits@PAUHWND__@@UCWndData@@U?$less@PAUHWND__@@@std@@V?$allocator@U?$pair@QAUHWND__@@UCWndData@@@std@@@4@$0A@@std@@@std@@_N@std@@QAE@ABViterator@?$_Tree@V?$_Tmap_traits@PAUHWND__@@UCWndData@@U?$less@PAUHWND__@@@std@@V?$allocator@U?$pair@QAUHWND__@@UCWndData@@@std@@@4@$0A@@std@@@1@AB_N@Z ; std::pair<std::_Tree<std::_Tmap_traits<HWND__ *,CWndData,std::less<HWND__ *>,std::allocator<std::pair<HWND__ * const,CWndData> >,0> >::iterator,bool>::pair<std::_Tree<std::_Tmap_traits<HWND__ *,CWndData,std::less<HWND__ *>,std::allocator<std::pair<HWND__ * const,CWndData> >,0> >::iterator,bool>
  000d4	8b 45 08	 mov	 eax, DWORD PTR ___$ReturnUdt$[ebp]
  000d7	e9 d9 00 00 00	 jmp	 $L190527
$L190534:

; 490  : 		else
; 491  : 			{	// insert only if unique
; 492  : 			iterator _Where = _TREE_ITERATOR(_Wherenode);

  000dc	8b 55 f4	 mov	 edx, DWORD PTR __Wherenode$[ebp]
  000df	52		 push	 edx
  000e0	8d 4d e8	 lea	 ecx, DWORD PTR __Where$190543[ebp]
  000e3	e8 00 00 00 00	 call	 ??0iterator@?$_Tree@V?$_Tmap_traits@PAUHWND__@@UCWndData@@U?$less@PAUHWND__@@@std@@V?$allocator@U?$pair@QAUHWND__@@UCWndData@@@std@@@4@$0A@@std@@@std@@QAE@PAU_Node@?$_Tree_nod@V?$_Tmap_traits@PAUHWND__@@UCWndData@@U?$less@PAUHWND__@@@std@@V?$allocator@U?$pair@QAUHWND__@@UCWndData@@@std@@@4@$0A@@std@@@2@@Z ; std::_Tree<std::_Tmap_traits<HWND__ *,CWndData,std::less<HWND__ *>,std::allocator<std::pair<HWND__ * const,CWndData> >,0> >::iterator::iterator

; 493  : 			if (!_Addleft)

  000e8	0f b6 45 f3	 movzx	 eax, BYTE PTR __Addleft$[ebp]
  000ec	85 c0		 test	 eax, eax
  000ee	75 02		 jne	 SHORT $L190545

; 494  : 				;	// need to test if insert after is okay
; 495  : 			else if (_Where == begin())

  000f0	eb 50		 jmp	 SHORT $L190546
$L190545:
  000f2	8d 4d d8	 lea	 ecx, DWORD PTR $T192414[ebp]
  000f5	51		 push	 ecx
  000f6	8b 4d fc	 mov	 ecx, DWORD PTR _this$[ebp]
  000f9	e8 00 00 00 00	 call	 ?begin@?$_Tree@V?$_Tmap_traits@PAUHWND__@@UCWndData@@U?$less@PAUHWND__@@@std@@V?$allocator@U?$pair@QAUHWND__@@UCWndData@@@std@@@4@$0A@@std@@@std@@QAE?AViterator@12@XZ ; std::_Tree<std::_Tmap_traits<HWND__ *,CWndData,std::less<HWND__ *>,std::allocator<std::pair<HWND__ * const,CWndData> >,0> >::begin
  000fe	50		 push	 eax
  000ff	8d 4d e8	 lea	 ecx, DWORD PTR __Where$190543[ebp]
  00102	e8 00 00 00 00	 call	 ??8const_iterator@?$_Tree@V?$_Tmap_traits@PAUHWND__@@UCWndData@@U?$less@PAUHWND__@@@std@@V?$allocator@U?$pair@QAUHWND__@@UCWndData@@@std@@@4@$0A@@std@@@std@@QBE_NABV012@@Z ; std::_Tree<std::_Tmap_traits<HWND__ *,CWndData,std::less<HWND__ *>,std::allocator<std::pair<HWND__ * const,CWndData> >,0> >::const_iterator::operator==
  00107	0f b6 d0	 movzx	 edx, al
  0010a	85 d2		 test	 edx, edx
  0010c	74 2c		 je	 SHORT $L190548

; 496  : 				return (_Pairib(_Insert(true, _Wherenode, _Val), true));

  0010e	c6 45 d7 01	 mov	 BYTE PTR $T192415[ebp], 1
  00112	8d 45 d7	 lea	 eax, DWORD PTR $T192415[ebp]
  00115	50		 push	 eax
  00116	8b 4d 0c	 mov	 ecx, DWORD PTR __Val$[ebp]
  00119	51		 push	 ecx
  0011a	8b 55 f4	 mov	 edx, DWORD PTR __Wherenode$[ebp]
  0011d	52		 push	 edx
  0011e	6a 01		 push	 1
  00120	8d 45 d0	 lea	 eax, DWORD PTR $T192416[ebp]
  00123	50		 push	 eax
  00124	8b 4d fc	 mov	 ecx, DWORD PTR _this$[ebp]
  00127	e8 00 00 00 00	 call	 ?_Insert@?$_Tree@V?$_Tmap_traits@PAUHWND__@@UCWndData@@U?$less@PAUHWND__@@@std@@V?$allocator@U?$pair@QAUHWND__@@UCWndData@@@std@@@4@$0A@@std@@@std@@IAE?AViterator@12@_NPAU_Node@?$_Tree_nod@V?$_Tmap_traits@PAUHWND__@@UCWndData@@U?$less@PAUHWND__@@@std@@V?$allocator@U?$pair@QAUHWND__@@UCWndData@@@std@@@4@$0A@@std@@@2@ABU?$pair@QAUHWND__@@UCWndData@@@2@@Z ; std::_Tree<std::_Tmap_traits<HWND__ *,CWndData,std::less<HWND__ *>,std::allocator<std::pair<HWND__ * const,CWndData> >,0> >::_Insert
  0012c	50		 push	 eax
  0012d	8b 4d 08	 mov	 ecx, DWORD PTR ___$ReturnUdt$[ebp]
  00130	e8 00 00 00 00	 call	 ??0?$pair@Viterator@?$_Tree@V?$_Tmap_traits@PAUHWND__@@UCWndData@@U?$less@PAUHWND__@@@std@@V?$allocator@U?$pair@QAUHWND__@@UCWndData@@@std@@@4@$0A@@std@@@std@@_N@std@@QAE@ABViterator@?$_Tree@V?$_Tmap_traits@PAUHWND__@@UCWndData@@U?$less@PAUHWND__@@@std@@V?$allocator@U?$pair@QAUHWND__@@UCWndData@@@std@@@4@$0A@@std@@@1@AB_N@Z ; std::pair<std::_Tree<std::_Tmap_traits<HWND__ *,CWndData,std::less<HWND__ *>,std::allocator<std::pair<HWND__ * const,CWndData> >,0> >::iterator,bool>::pair<std::_Tree<std::_Tmap_traits<HWND__ *,CWndData,std::less<HWND__ *>,std::allocator<std::pair<HWND__ * const,CWndData> >,0> >::iterator,bool>
  00135	8b 45 08	 mov	 eax, DWORD PTR ___$ReturnUdt$[ebp]
  00138	eb 7b		 jmp	 SHORT $L190527
$L190548:

; 497  : 			else
; 498  : 				--_Where;	// need to test if insert before is okay

  0013a	8d 4d e8	 lea	 ecx, DWORD PTR __Where$190543[ebp]
  0013d	e8 00 00 00 00	 call	 ??Fiterator@?$_Tree@V?$_Tmap_traits@PAUHWND__@@UCWndData@@U?$less@PAUHWND__@@@std@@V?$allocator@U?$pair@QAUHWND__@@UCWndData@@@std@@@4@$0A@@std@@@std@@QAEAAV012@XZ ; std::_Tree<std::_Tmap_traits<HWND__ *,CWndData,std::less<HWND__ *>,std::allocator<std::pair<HWND__ * const,CWndData> >,0> >::iterator::operator--
$L190546:

; 499  : 
; 500  : 			if (this->comp(_Key(_Where._Mynode()), this->_Kfn(_Val)))

  00142	8b 4d 0c	 mov	 ecx, DWORD PTR __Val$[ebp]
  00145	51		 push	 ecx
  00146	e8 00 00 00 00	 call	 ?_Kfn@?$_Tmap_traits@PAUHWND__@@UCWndData@@U?$less@PAUHWND__@@@std@@V?$allocator@U?$pair@QAUHWND__@@UCWndData@@@std@@@4@$0A@@std@@SAABQAUHWND__@@ABU?$pair@QAUHWND__@@UCWndData@@@2@@Z ; std::_Tmap_traits<HWND__ *,CWndData,std::less<HWND__ *>,std::allocator<std::pair<HWND__ * const,CWndData> >,0>::_Kfn
  0014b	83 c4 04	 add	 esp, 4
  0014e	50		 push	 eax
  0014f	8d 4d e8	 lea	 ecx, DWORD PTR __Where$190543[ebp]
  00152	e8 00 00 00 00	 call	 ?_Mynode@const_iterator@?$_Tree@V?$_Tmap_traits@PAUHWND__@@UCWndData@@U?$less@PAUHWND__@@@std@@V?$allocator@U?$pair@QAUHWND__@@UCWndData@@@std@@@4@$0A@@std@@@std@@QBEPAU_Node@?$_Tree_nod@V?$_Tmap_traits@PAUHWND__@@UCWndData@@U?$less@PAUHWND__@@@std@@V?$allocator@U?$pair@QAUHWND__@@UCWndData@@@std@@@4@$0A@@std@@@3@XZ ; std::_Tree<std::_Tmap_traits<HWND__ *,CWndData,std::less<HWND__ *>,std::allocator<std::pair<HWND__ * const,CWndData> >,0> >::const_iterator::_Mynode
  00157	50		 push	 eax
  00158	e8 00 00 00 00	 call	 ?_Key@?$_Tree@V?$_Tmap_traits@PAUHWND__@@UCWndData@@U?$less@PAUHWND__@@@std@@V?$allocator@U?$pair@QAUHWND__@@UCWndData@@@std@@@4@$0A@@std@@@std@@KAABQAUHWND__@@PAU_Node@?$_Tree_nod@V?$_Tmap_traits@PAUHWND__@@UCWndData@@U?$less@PAUHWND__@@@std@@V?$allocator@U?$pair@QAUHWND__@@UCWndData@@@std@@@4@$0A@@std@@@2@@Z ; std::_Tree<std::_Tmap_traits<HWND__ *,CWndData,std::less<HWND__ *>,std::allocator<std::pair<HWND__ * const,CWndData> >,0> >::_Key
  0015d	83 c4 04	 add	 esp, 4
  00160	50		 push	 eax
  00161	8b 4d fc	 mov	 ecx, DWORD PTR _this$[ebp]
  00164	e8 00 00 00 00	 call	 ??R?$less@PAUHWND__@@@std@@QBE_NABQAUHWND__@@0@Z ; std::less<HWND__ *>::operator()
  00169	0f b6 d0	 movzx	 edx, al
  0016c	85 d2		 test	 edx, edx
  0016e	74 2e		 je	 SHORT $L190553

; 501  : 				return (_Pairib(_Insert(_Addleft, _Wherenode, _Val), true));

  00170	c6 45 cf 01	 mov	 BYTE PTR $T192417[ebp], 1
  00174	8d 45 cf	 lea	 eax, DWORD PTR $T192417[ebp]
  00177	50		 push	 eax
  00178	8b 4d 0c	 mov	 ecx, DWORD PTR __Val$[ebp]
  0017b	51		 push	 ecx
  0017c	8b 55 f4	 mov	 edx, DWORD PTR __Wherenode$[ebp]
  0017f	52		 push	 edx
  00180	8a 45 f3	 mov	 al, BYTE PTR __Addleft$[ebp]
  00183	50		 push	 eax
  00184	8d 4d c8	 lea	 ecx, DWORD PTR $T192418[ebp]
  00187	51		 push	 ecx
  00188	8b 4d fc	 mov	 ecx, DWORD PTR _this$[ebp]
  0018b	e8 00 00 00 00	 call	 ?_Insert@?$_Tree@V?$_Tmap_traits@PAUHWND__@@UCWndData@@U?$less@PAUHWND__@@@std@@V?$allocator@U?$pair@QAUHWND__@@UCWndData@@@std@@@4@$0A@@std@@@std@@IAE?AViterator@12@_NPAU_Node@?$_Tree_nod@V?$_Tmap_traits@PAUHWND__@@UCWndData@@U?$less@PAUHWND__@@@std@@V?$allocator@U?$pair@QAUHWND__@@UCWndData@@@std@@@4@$0A@@std@@@2@ABU?$pair@QAUHWND__@@UCWndData@@@2@@Z ; std::_Tree<std::_Tmap_traits<HWND__ *,CWndData,std::less<HWND__ *>,std::allocator<std::pair<HWND__ * const,CWndData> >,0> >::_Insert
  00190	50		 push	 eax
  00191	8b 4d 08	 mov	 ecx, DWORD PTR ___$ReturnUdt$[ebp]
  00194	e8 00 00 00 00	 call	 ??0?$pair@Viterator@?$_Tree@V?$_Tmap_traits@PAUHWND__@@UCWndData@@U?$less@PAUHWND__@@@std@@V?$allocator@U?$pair@QAUHWND__@@UCWndData@@@std@@@4@$0A@@std@@@std@@_N@std@@QAE@ABViterator@?$_Tree@V?$_Tmap_traits@PAUHWND__@@UCWndData@@U?$less@PAUHWND__@@@std@@V?$allocator@U?$pair@QAUHWND__@@UCWndData@@@std@@@4@$0A@@std@@@1@AB_N@Z ; std::pair<std::_Tree<std::_Tmap_traits<HWND__ *,CWndData,std::less<HWND__ *>,std::allocator<std::pair<HWND__ * const,CWndData> >,0> >::iterator,bool>::pair<std::_Tree<std::_Tmap_traits<HWND__ *,CWndData,std::less<HWND__ *>,std::allocator<std::pair<HWND__ * const,CWndData> >,0> >::iterator,bool>
  00199	8b 45 08	 mov	 eax, DWORD PTR ___$ReturnUdt$[ebp]
  0019c	eb 17		 jmp	 SHORT $L190527
$L190553:

; 502  : 			else
; 503  : 				return (_Pairib(_Where, false));

  0019e	c6 45 c7 00	 mov	 BYTE PTR $T192419[ebp], 0
  001a2	8d 55 c7	 lea	 edx, DWORD PTR $T192419[ebp]
  001a5	52		 push	 edx
  001a6	8d 45 e8	 lea	 eax, DWORD PTR __Where$190543[ebp]
  001a9	50		 push	 eax
  001aa	8b 4d 08	 mov	 ecx, DWORD PTR ___$ReturnUdt$[ebp]
  001ad	e8 00 00 00 00	 call	 ??0?$pair@Viterator@?$_Tree@V?$_Tmap_traits@PAUHWND__@@UCWndData@@U?$less@PAUHWND__@@@std@@V?$allocator@U?$pair@QAUHWND__@@UCWndData@@@std@@@4@$0A@@std@@@std@@_N@std@@QAE@ABViterator@?$_Tree@V?$_Tmap_traits@PAUHWND__@@UCWndData@@U?$less@PAUHWND__@@@std@@V?$allocator@U?$pair@QAUHWND__@@UCWndData@@@std@@@4@$0A@@std@@@1@AB_N@Z ; std::pair<std::_Tree<std::_Tmap_traits<HWND__ *,CWndData,std::less<HWND__ *>,std::allocator<std::pair<HWND__ * const,CWndData> >,0> >::iterator,bool>::pair<std::_Tree<std::_Tmap_traits<HWND__ *,CWndData,std::less<HWND__ *>,std::allocator<std::pair<HWND__ * const,CWndData> >,0> >::iterator,bool>
  001b2	8b 45 08	 mov	 eax, DWORD PTR ___$ReturnUdt$[ebp]
$L190527:

; 504  : 			}
; 505  : 		}

  001b5	52		 push	 edx
  001b6	8b cd		 mov	 ecx, ebp
  001b8	50		 push	 eax
  001b9	8d 15 00 00 00
	00		 lea	 edx, DWORD PTR $L192422
  001bf	e8 00 00 00 00	 call	 @_RTC_CheckStackVars@8
  001c4	58		 pop	 eax
  001c5	5a		 pop	 edx
  001c6	5f		 pop	 edi
  001c7	83 c4 40	 add	 esp, 64			; 00000040H
  001ca	3b ec		 cmp	 ebp, esp
  001cc	e8 00 00 00 00	 call	 __RTC_CheckEsp
  001d1	8b e5		 mov	 esp, ebp
  001d3	5d		 pop	 ebp
  001d4	c2 08 00	 ret	 8
$L192422:
  001d7	01 00 00 00	 DD	 1
  001db	00 00 00 00	 DD	 $L192421
$L192421:
  001df	e8 ff ff ff	 DD	 -24			; ffffffe8H
  001e3	04 00 00 00	 DD	 4
  001e7	00 00 00 00	 DD	 $L192420
$L192420:
  001eb	5f		 DB	 95			; 0000005fH
  001ec	57		 DB	 87			; 00000057H
  001ed	68		 DB	 104			; 00000068H
  001ee	65		 DB	 101			; 00000065H
  001ef	72		 DB	 114			; 00000072H
  001f0	65		 DB	 101			; 00000065H
  001f1	00		 DB	 0
?insert@?$_Tree@V?$_Tmap_traits@PAUHWND__@@UCWndData@@U?$less@PAUHWND__@@@std@@V?$allocator@U?$pair@QAUHWND__@@UCWndData@@@std@@@4@$0A@@std@@@std@@QAE?AU?$pair@Viterator@?$_Tree@V?$_Tmap_traits@PAUHWND__@@UCWndData@@U?$less@PAUHWND__@@@std@@V?$allocator@U?$pair@QAUHWND__@@UCWndData@@@std@@@4@$0A@@std@@@std@@_N@2@ABU?$pair@QAUHWND__@@UCWndData@@@2@@Z ENDP ; std::_Tree<std::_Tmap_traits<HWND__ *,CWndData,std::less<HWND__ *>,std::allocator<std::pair<HWND__ * const,CWndData> >,0> >::insert
_TEXT	ENDS
PUBLIC	?erase@?$_Tree@V?$_Tmap_traits@PAUHWND__@@UCWndData@@U?$less@PAUHWND__@@@std@@V?$allocator@U?$pair@QAUHWND__@@UCWndData@@@std@@@4@$0A@@std@@@std@@QAE?AViterator@12@V312@@Z ; std::_Tree<std::_Tmap_traits<HWND__ *,CWndData,std::less<HWND__ *>,std::allocator<std::pair<HWND__ * const,CWndData> >,0> >::erase
PUBLIC	?clear@?$_Tree@V?$_Tmap_traits@PAUHWND__@@UCWndData@@U?$less@PAUHWND__@@@std@@V?$allocator@U?$pair@QAUHWND__@@UCWndData@@@std@@@4@$0A@@std@@@std@@QAEXXZ ; std::_Tree<std::_Tmap_traits<HWND__ *,CWndData,std::less<HWND__ *>,std::allocator<std::pair<HWND__ * const,CWndData> >,0> >::clear
; Function compile flags: /Odt /RTCsu
;	COMDAT ?erase@?$_Tree@V?$_Tmap_traits@PAUHWND__@@UCWndData@@U?$less@PAUHWND__@@@std@@V?$allocator@U?$pair@QAUHWND__@@UCWndData@@@std@@@4@$0A@@std@@@std@@QAE?AViterator@12@V312@0@Z
_TEXT	SEGMENT
$T192427 = -20						; size = 4
$T192426 = -16						; size = 4
$T192425 = -12						; size = 4
$T192424 = -8						; size = 4
_this$ = -4						; size = 4
___$ReturnUdt$ = 8					; size = 4
__First$ = 12						; size = 4
__Last$ = 16						; size = 4
?erase@?$_Tree@V?$_Tmap_traits@PAUHWND__@@UCWndData@@U?$less@PAUHWND__@@@std@@V?$allocator@U?$pair@QAUHWND__@@UCWndData@@@std@@@4@$0A@@std@@@std@@QAE?AViterator@12@V312@0@Z PROC NEAR ; std::_Tree<std::_Tmap_traits<HWND__ *,CWndData,std::less<HWND__ *>,std::allocator<std::pair<HWND__ * const,CWndData> >,0> >::erase, COMDAT
; _this$ = ecx

; 750  : 		{	// erase [_First, _Last)

  00000	55		 push	 ebp
  00001	8b ec		 mov	 ebp, esp
  00003	83 ec 14	 sub	 esp, 20			; 00000014H
  00006	b8 cc cc cc cc	 mov	 eax, -858993460		; ccccccccH
  0000b	89 45 ec	 mov	 DWORD PTR [ebp-20], eax
  0000e	89 45 f0	 mov	 DWORD PTR [ebp-16], eax
  00011	89 45 f4	 mov	 DWORD PTR [ebp-12], eax
  00014	89 45 f8	 mov	 DWORD PTR [ebp-8], eax
  00017	89 45 fc	 mov	 DWORD PTR [ebp-4], eax
  0001a	89 4d fc	 mov	 DWORD PTR _this$[ebp], ecx

; 751  : 		if (_First == begin() && _Last == end())

  0001d	8d 45 f8	 lea	 eax, DWORD PTR $T192424[ebp]
  00020	50		 push	 eax
  00021	8b 4d fc	 mov	 ecx, DWORD PTR _this$[ebp]
  00024	e8 00 00 00 00	 call	 ?begin@?$_Tree@V?$_Tmap_traits@PAUHWND__@@UCWndData@@U?$less@PAUHWND__@@@std@@V?$allocator@U?$pair@QAUHWND__@@UCWndData@@@std@@@4@$0A@@std@@@std@@QAE?AViterator@12@XZ ; std::_Tree<std::_Tmap_traits<HWND__ *,CWndData,std::less<HWND__ *>,std::allocator<std::pair<HWND__ * const,CWndData> >,0> >::begin
  00029	50		 push	 eax
  0002a	8d 4d 0c	 lea	 ecx, DWORD PTR __First$[ebp]
  0002d	e8 00 00 00 00	 call	 ??8const_iterator@?$_Tree@V?$_Tmap_traits@PAUHWND__@@UCWndData@@U?$less@PAUHWND__@@@std@@V?$allocator@U?$pair@QAUHWND__@@UCWndData@@@std@@@4@$0A@@std@@@std@@QBE_NABV012@@Z ; std::_Tree<std::_Tmap_traits<HWND__ *,CWndData,std::less<HWND__ *>,std::allocator<std::pair<HWND__ * const,CWndData> >,0> >::const_iterator::operator==
  00032	0f b6 c8	 movzx	 ecx, al
  00035	85 c9		 test	 ecx, ecx
  00037	74 35		 je	 SHORT $L190569
  00039	8d 55 f4	 lea	 edx, DWORD PTR $T192425[ebp]
  0003c	52		 push	 edx
  0003d	8b 4d fc	 mov	 ecx, DWORD PTR _this$[ebp]
  00040	e8 00 00 00 00	 call	 ?end@?$_Tree@V?$_Tmap_traits@PAUHWND__@@UCWndData@@U?$less@PAUHWND__@@@std@@V?$allocator@U?$pair@QAUHWND__@@UCWndData@@@std@@@4@$0A@@std@@@std@@QAE?AViterator@12@XZ ; std::_Tree<std::_Tmap_traits<HWND__ *,CWndData,std::less<HWND__ *>,std::allocator<std::pair<HWND__ * const,CWndData> >,0> >::end
  00045	50		 push	 eax
  00046	8d 4d 10	 lea	 ecx, DWORD PTR __Last$[ebp]
  00049	e8 00 00 00 00	 call	 ??8const_iterator@?$_Tree@V?$_Tmap_traits@PAUHWND__@@UCWndData@@U?$less@PAUHWND__@@@std@@V?$allocator@U?$pair@QAUHWND__@@UCWndData@@@std@@@4@$0A@@std@@@std@@QBE_NABV012@@Z ; std::_Tree<std::_Tmap_traits<HWND__ *,CWndData,std::less<HWND__ *>,std::allocator<std::pair<HWND__ * const,CWndData> >,0> >::const_iterator::operator==
  0004e	0f b6 c0	 movzx	 eax, al
  00051	85 c0		 test	 eax, eax
  00053	74 19		 je	 SHORT $L190569

; 752  : 			{	// erase all
; 753  : 			clear();

  00055	8b 4d fc	 mov	 ecx, DWORD PTR _this$[ebp]
  00058	e8 00 00 00 00	 call	 ?clear@?$_Tree@V?$_Tmap_traits@PAUHWND__@@UCWndData@@U?$less@PAUHWND__@@@std@@V?$allocator@U?$pair@QAUHWND__@@UCWndData@@@std@@@4@$0A@@std@@@std@@QAEXXZ ; std::_Tree<std::_Tmap_traits<HWND__ *,CWndData,std::less<HWND__ *>,std::allocator<std::pair<HWND__ * const,CWndData> >,0> >::clear

; 754  : 			return (begin());

  0005d	8b 4d 08	 mov	 ecx, DWORD PTR ___$ReturnUdt$[ebp]
  00060	51		 push	 ecx
  00061	8b 4d fc	 mov	 ecx, DWORD PTR _this$[ebp]
  00064	e8 00 00 00 00	 call	 ?begin@?$_Tree@V?$_Tmap_traits@PAUHWND__@@UCWndData@@U?$less@PAUHWND__@@@std@@V?$allocator@U?$pair@QAUHWND__@@UCWndData@@@std@@@4@$0A@@std@@@std@@QAE?AViterator@12@XZ ; std::_Tree<std::_Tmap_traits<HWND__ *,CWndData,std::less<HWND__ *>,std::allocator<std::pair<HWND__ * const,CWndData> >,0> >::begin
  00069	8b 45 08	 mov	 eax, DWORD PTR ___$ReturnUdt$[ebp]
  0006c	eb 3d		 jmp	 SHORT $L190562
$L190569:

; 755  : 			}
; 756  : 		else
; 757  : 			{	// partial erase, one at a time
; 758  : 			while (_First != _Last)

  0006e	8d 55 10	 lea	 edx, DWORD PTR __Last$[ebp]
  00071	52		 push	 edx
  00072	8d 4d 0c	 lea	 ecx, DWORD PTR __First$[ebp]
  00075	e8 00 00 00 00	 call	 ??9const_iterator@?$_Tree@V?$_Tmap_traits@PAUHWND__@@UCWndData@@U?$less@PAUHWND__@@@std@@V?$allocator@U?$pair@QAUHWND__@@UCWndData@@@std@@@4@$0A@@std@@@std@@QBE_NABV012@@Z ; std::_Tree<std::_Tmap_traits<HWND__ *,CWndData,std::less<HWND__ *>,std::allocator<std::pair<HWND__ * const,CWndData> >,0> >::const_iterator::operator!=
  0007a	0f b6 c0	 movzx	 eax, al
  0007d	85 c0		 test	 eax, eax
  0007f	74 1f		 je	 SHORT $L190570

; 759  : 				erase(_First++);

  00081	6a 00		 push	 0
  00083	8d 4d f0	 lea	 ecx, DWORD PTR $T192426[ebp]
  00086	51		 push	 ecx
  00087	8d 4d 0c	 lea	 ecx, DWORD PTR __First$[ebp]
  0008a	e8 00 00 00 00	 call	 ??Eiterator@?$_Tree@V?$_Tmap_traits@PAUHWND__@@UCWndData@@U?$less@PAUHWND__@@@std@@V?$allocator@U?$pair@QAUHWND__@@UCWndData@@@std@@@4@$0A@@std@@@std@@QAE?AV012@H@Z ; std::_Tree<std::_Tmap_traits<HWND__ *,CWndData,std::less<HWND__ *>,std::allocator<std::pair<HWND__ * const,CWndData> >,0> >::iterator::operator++
  0008f	8b 10		 mov	 edx, DWORD PTR [eax]
  00091	52		 push	 edx
  00092	8d 45 ec	 lea	 eax, DWORD PTR $T192427[ebp]
  00095	50		 push	 eax
  00096	8b 4d fc	 mov	 ecx, DWORD PTR _this$[ebp]
  00099	e8 00 00 00 00	 call	 ?erase@?$_Tree@V?$_Tmap_traits@PAUHWND__@@UCWndData@@U?$less@PAUHWND__@@@std@@V?$allocator@U?$pair@QAUHWND__@@UCWndData@@@std@@@4@$0A@@std@@@std@@QAE?AViterator@12@V312@@Z ; std::_Tree<std::_Tmap_traits<HWND__ *,CWndData,std::less<HWND__ *>,std::allocator<std::pair<HWND__ * const,CWndData> >,0> >::erase
  0009e	eb ce		 jmp	 SHORT $L190569
$L190570:

; 760  : 			return (_First);

  000a0	8b 4d 08	 mov	 ecx, DWORD PTR ___$ReturnUdt$[ebp]
  000a3	8b 55 0c	 mov	 edx, DWORD PTR __First$[ebp]
  000a6	89 11		 mov	 DWORD PTR [ecx], edx
  000a8	8b 45 08	 mov	 eax, DWORD PTR ___$ReturnUdt$[ebp]
$L190562:

; 761  : 			}
; 762  : 		}

  000ab	83 c4 14	 add	 esp, 20			; 00000014H
  000ae	3b ec		 cmp	 ebp, esp
  000b0	e8 00 00 00 00	 call	 __RTC_CheckEsp
  000b5	8b e5		 mov	 esp, ebp
  000b7	5d		 pop	 ebp
  000b8	c2 0c 00	 ret	 12			; 0000000cH
?erase@?$_Tree@V?$_Tmap_traits@PAUHWND__@@UCWndData@@U?$less@PAUHWND__@@@std@@V?$allocator@U?$pair@QAUHWND__@@UCWndData@@@std@@@4@$0A@@std@@@std@@QAE?AViterator@12@V312@0@Z ENDP ; std::_Tree<std::_Tmap_traits<HWND__ *,CWndData,std::less<HWND__ *>,std::allocator<std::pair<HWND__ * const,CWndData> >,0> >::erase
_TEXT	ENDS
PUBLIC	?_Buynode@?$_Tree@V?$_Tmap_traits@PAUHWND__@@UCWndData@@U?$less@PAUHWND__@@@std@@V?$allocator@U?$pair@QAUHWND__@@UCWndData@@@std@@@4@$0A@@std@@@std@@IAEPAU_Node@?$_Tree_nod@V?$_Tmap_traits@PAUHWND__@@UCWndData@@U?$less@PAUHWND__@@@std@@V?$allocator@U?$pair@QAUHWND__@@UCWndData@@@std@@@4@$0A@@std@@@2@XZ ; std::_Tree<std::_Tmap_traits<HWND__ *,CWndData,std::less<HWND__ *>,std::allocator<std::pair<HWND__ * const,CWndData> >,0> >::_Buynode
; Function compile flags: /Odt /RTCsu
;	COMDAT ?_Init@?$_Tree@V?$_Tmap_traits@PAUHWND__@@UCWndData@@U?$less@PAUHWND__@@@std@@V?$allocator@U?$pair@QAUHWND__@@UCWndData@@@std@@@4@$0A@@std@@@std@@IAEXXZ
_TEXT	SEGMENT
_this$ = -4						; size = 4
?_Init@?$_Tree@V?$_Tmap_traits@PAUHWND__@@UCWndData@@U?$less@PAUHWND__@@@std@@V?$allocator@U?$pair@QAUHWND__@@UCWndData@@@std@@@4@$0A@@std@@@std@@IAEXXZ PROC NEAR ; std::_Tree<std::_Tmap_traits<HWND__ *,CWndData,std::less<HWND__ *>,std::allocator<std::pair<HWND__ * const,CWndData> >,0> >::_Init, COMDAT
; _this$ = ecx

; 901  : 		{	// create head/nil node and make tree empty

  00000	55		 push	 ebp
  00001	8b ec		 mov	 ebp, esp
  00003	51		 push	 ecx
  00004	c7 45 fc cc cc
	cc cc		 mov	 DWORD PTR [ebp-4], -858993460 ; ccccccccH
  0000b	89 4d fc	 mov	 DWORD PTR _this$[ebp], ecx

; 902  : 		_Myhead = _Buynode();

  0000e	8b 4d fc	 mov	 ecx, DWORD PTR _this$[ebp]
  00011	e8 00 00 00 00	 call	 ?_Buynode@?$_Tree@V?$_Tmap_traits@PAUHWND__@@UCWndData@@U?$less@PAUHWND__@@@std@@V?$allocator@U?$pair@QAUHWND__@@UCWndData@@@std@@@4@$0A@@std@@@std@@IAEPAU_Node@?$_Tree_nod@V?$_Tmap_traits@PAUHWND__@@UCWndData@@U?$less@PAUHWND__@@@std@@V?$allocator@U?$pair@QAUHWND__@@UCWndData@@@std@@@4@$0A@@std@@@2@XZ ; std::_Tree<std::_Tmap_traits<HWND__ *,CWndData,std::less<HWND__ *>,std::allocator<std::pair<HWND__ * const,CWndData> >,0> >::_Buynode
  00016	8b 4d fc	 mov	 ecx, DWORD PTR _this$[ebp]
  00019	89 41 04	 mov	 DWORD PTR [ecx+4], eax

; 903  : 		_Isnil(_Myhead) = true;

  0001c	8b 55 fc	 mov	 edx, DWORD PTR _this$[ebp]
  0001f	8b 42 04	 mov	 eax, DWORD PTR [edx+4]
  00022	50		 push	 eax
  00023	e8 00 00 00 00	 call	 ?_Isnil@?$_Tree@V?$_Tmap_traits@PAUHWND__@@UCWndData@@U?$less@PAUHWND__@@@std@@V?$allocator@U?$pair@QAUHWND__@@UCWndData@@@std@@@4@$0A@@std@@@std@@KAAADPAU_Node@?$_Tree_nod@V?$_Tmap_traits@PAUHWND__@@UCWndData@@U?$less@PAUHWND__@@@std@@V?$allocator@U?$pair@QAUHWND__@@UCWndData@@@std@@@4@$0A@@std@@@2@@Z ; std::_Tree<std::_Tmap_traits<HWND__ *,CWndData,std::less<HWND__ *>,std::allocator<std::pair<HWND__ * const,CWndData> >,0> >::_Isnil
  00028	83 c4 04	 add	 esp, 4
  0002b	c6 00 01	 mov	 BYTE PTR [eax], 1

; 904  : 		_Root() = _Myhead;

  0002e	8b 4d fc	 mov	 ecx, DWORD PTR _this$[ebp]
  00031	e8 00 00 00 00	 call	 ?_Root@?$_Tree@V?$_Tmap_traits@PAUHWND__@@UCWndData@@U?$less@PAUHWND__@@@std@@V?$allocator@U?$pair@QAUHWND__@@UCWndData@@@std@@@4@$0A@@std@@@std@@IAEAAPAU_Node@?$_Tree_nod@V?$_Tmap_traits@PAUHWND__@@UCWndData@@U?$less@PAUHWND__@@@std@@V?$allocator@U?$pair@QAUHWND__@@UCWndData@@@std@@@4@$0A@@std@@@2@XZ ; std::_Tree<std::_Tmap_traits<HWND__ *,CWndData,std::less<HWND__ *>,std::allocator<std::pair<HWND__ * const,CWndData> >,0> >::_Root
  00036	8b 4d fc	 mov	 ecx, DWORD PTR _this$[ebp]
  00039	8b 51 04	 mov	 edx, DWORD PTR [ecx+4]
  0003c	89 10		 mov	 DWORD PTR [eax], edx

; 905  : 		_Lmost() = _Myhead, _Rmost() = _Myhead;

  0003e	8b 4d fc	 mov	 ecx, DWORD PTR _this$[ebp]
  00041	e8 00 00 00 00	 call	 ?_Lmost@?$_Tree@V?$_Tmap_traits@PAUHWND__@@UCWndData@@U?$less@PAUHWND__@@@std@@V?$allocator@U?$pair@QAUHWND__@@UCWndData@@@std@@@4@$0A@@std@@@std@@IAEAAPAU_Node@?$_Tree_nod@V?$_Tmap_traits@PAUHWND__@@UCWndData@@U?$less@PAUHWND__@@@std@@V?$allocator@U?$pair@QAUHWND__@@UCWndData@@@std@@@4@$0A@@std@@@2@XZ ; std::_Tree<std::_Tmap_traits<HWND__ *,CWndData,std::less<HWND__ *>,std::allocator<std::pair<HWND__ * const,CWndData> >,0> >::_Lmost
  00046	8b 4d fc	 mov	 ecx, DWORD PTR _this$[ebp]
  00049	8b 51 04	 mov	 edx, DWORD PTR [ecx+4]
  0004c	89 10		 mov	 DWORD PTR [eax], edx
  0004e	8b 4d fc	 mov	 ecx, DWORD PTR _this$[ebp]
  00051	e8 00 00 00 00	 call	 ?_Rmost@?$_Tree@V?$_Tmap_traits@PAUHWND__@@UCWndData@@U?$less@PAUHWND__@@@std@@V?$allocator@U?$pair@QAUHWND__@@UCWndData@@@std@@@4@$0A@@std@@@std@@IAEAAPAU_Node@?$_Tree_nod@V?$_Tmap_traits@PAUHWND__@@UCWndData@@U?$less@PAUHWND__@@@std@@V?$allocator@U?$pair@QAUHWND__@@UCWndData@@@std@@@4@$0A@@std@@@2@XZ ; std::_Tree<std::_Tmap_traits<HWND__ *,CWndData,std::less<HWND__ *>,std::allocator<std::pair<HWND__ * const,CWndData> >,0> >::_Rmost
  00056	8b 4d fc	 mov	 ecx, DWORD PTR _this$[ebp]
  00059	8b 51 04	 mov	 edx, DWORD PTR [ecx+4]
  0005c	89 10		 mov	 DWORD PTR [eax], edx

; 906  : 		_Mysize = 0;

  0005e	8b 45 fc	 mov	 eax, DWORD PTR _this$[ebp]
  00061	c7 40 08 00 00
	00 00		 mov	 DWORD PTR [eax+8], 0

; 907  : 		}

  00068	83 c4 04	 add	 esp, 4
  0006b	3b ec		 cmp	 ebp, esp
  0006d	e8 00 00 00 00	 call	 __RTC_CheckEsp
  00072	8b e5		 mov	 esp, ebp
  00074	5d		 pop	 ebp
  00075	c3		 ret	 0
?_Init@?$_Tree@V?$_Tmap_traits@PAUHWND__@@UCWndData@@U?$less@PAUHWND__@@@std@@V?$allocator@U?$pair@QAUHWND__@@UCWndData@@@std@@@4@$0A@@std@@@std@@IAEXXZ ENDP ; std::_Tree<std::_Tmap_traits<HWND__ *,CWndData,std::less<HWND__ *>,std::allocator<std::pair<HWND__ * const,CWndData> >,0> >::_Init
_TEXT	ENDS
PUBLIC	__TI3?AVlength_error@std@@
PUBLIC	__CTA3?AVlength_error@std@@
PUBLIC	__CT??_R0?AVlength_error@std@@@8??0length_error@std@@QAE@ABV01@@Z40
PUBLIC	??_C@_0BE@JONHPENG@map?1set?$DMT?$DO?5too?5long?$AA@ ; `string'
PUBLIC	??_R0?AVlogic_error@std@@@8			; std::logic_error `RTTI Type Descriptor'
PUBLIC	__CT??_R0?AVlogic_error@std@@@8??0logic_error@std@@QAE@ABV01@@Z40
PUBLIC	??_R0?AVexception@@@8				; exception `RTTI Type Descriptor'
PUBLIC	__CT??_R0?AVexception@@@8??0exception@@QAE@ABV0@@Z12
PUBLIC	?_Color@?$_Tree@V?$_Tmap_traits@PAUHWND__@@UCWndData@@U?$less@PAUHWND__@@@std@@V?$allocator@U?$pair@QAUHWND__@@UCWndData@@@std@@@4@$0A@@std@@@std@@KAAADPAU_Node@?$_Tree_nod@V?$_Tmap_traits@PAUHWND__@@UCWndData@@U?$less@PAUHWND__@@@std@@V?$allocator@U?$pair@QAUHWND__@@UCWndData@@@std@@@4@$0A@@std@@@2@@Z ; std::_Tree<std::_Tmap_traits<HWND__ *,CWndData,std::less<HWND__ *>,std::allocator<std::pair<HWND__ * const,CWndData> >,0> >::_Color
PUBLIC	??_R0?AVlength_error@std@@@8			; std::length_error `RTTI Type Descriptor'
PUBLIC	?max_size@?$_Tree@V?$_Tmap_traits@PAUHWND__@@UCWndData@@U?$less@PAUHWND__@@@std@@V?$allocator@U?$pair@QAUHWND__@@UCWndData@@@std@@@4@$0A@@std@@@std@@QBEIXZ ; std::_Tree<std::_Tmap_traits<HWND__ *,CWndData,std::less<HWND__ *>,std::allocator<std::pair<HWND__ * const,CWndData> >,0> >::max_size
PUBLIC	??0logic_error@std@@QAE@ABV01@@Z		; std::logic_error::logic_error
PUBLIC	?_Lrotate@?$_Tree@V?$_Tmap_traits@PAUHWND__@@UCWndData@@U?$less@PAUHWND__@@@std@@V?$allocator@U?$pair@QAUHWND__@@UCWndData@@@std@@@4@$0A@@std@@@std@@IAEXPAU_Node@?$_Tree_nod@V?$_Tmap_traits@PAUHWND__@@UCWndData@@U?$less@PAUHWND__@@@std@@V?$allocator@U?$pair@QAUHWND__@@UCWndData@@@std@@@4@$0A@@std@@@2@@Z ; std::_Tree<std::_Tmap_traits<HWND__ *,CWndData,std::less<HWND__ *>,std::allocator<std::pair<HWND__ * const,CWndData> >,0> >::_Lrotate
PUBLIC	?_Rrotate@?$_Tree@V?$_Tmap_traits@PAUHWND__@@UCWndData@@U?$less@PAUHWND__@@@std@@V?$allocator@U?$pair@QAUHWND__@@UCWndData@@@std@@@4@$0A@@std@@@std@@IAEXPAU_Node@?$_Tree_nod@V?$_Tmap_traits@PAUHWND__@@UCWndData@@U?$less@PAUHWND__@@@std@@V?$allocator@U?$pair@QAUHWND__@@UCWndData@@@std@@@4@$0A@@std@@@2@@Z ; std::_Tree<std::_Tmap_traits<HWND__ *,CWndData,std::less<HWND__ *>,std::allocator<std::pair<HWND__ * const,CWndData> >,0> >::_Rrotate
PUBLIC	?_Buynode@?$_Tree@V?$_Tmap_traits@PAUHWND__@@UCWndData@@U?$less@PAUHWND__@@@std@@V?$allocator@U?$pair@QAUHWND__@@UCWndData@@@std@@@4@$0A@@std@@@std@@IAEPAU_Node@?$_Tree_nod@V?$_Tmap_traits@PAUHWND__@@UCWndData@@U?$less@PAUHWND__@@@std@@V?$allocator@U?$pair@QAUHWND__@@UCWndData@@@std@@@4@$0A@@std@@@2@PAU342@00ABU?$pair@QAUHWND__@@UCWndData@@@2@D@Z ; std::_Tree<std::_Tmap_traits<HWND__ *,CWndData,std::less<HWND__ *>,std::allocator<std::pair<HWND__ * const,CWndData> >,0> >::_Buynode
PUBLIC	??0length_error@std@@QAE@ABV?$basic_string@DU?$char_traits@D@std@@V?$allocator@D@2@@1@@Z ; std::length_error::length_error
PUBLIC	??1length_error@std@@UAE@XZ			; std::length_error::~length_error
PUBLIC	??0length_error@std@@QAE@ABV01@@Z		; std::length_error::length_error
EXTRN	??0exception@@QAE@ABV0@@Z:NEAR			; exception::exception
EXTRN	__CxxThrowException@8:NEAR
EXTRN	??_7type_info@@6B@:QWORD			; type_info::`vftable'
;	COMDAT xdata$x
xdata$x	SEGMENT
$T192437 DD	0ffffffffH
	DD	FLAT:$L192433
$T192435 DD	019930520H
	DD	01H
	DD	FLAT:$T192437
	DD	2 DUP(00H)
	DD	2 DUP(00H)
xdata$x	ENDS
;	COMDAT ??_C@_0BE@JONHPENG@map?1set?$DMT?$DO?5too?5long?$AA@
CONST	SEGMENT
??_C@_0BE@JONHPENG@map?1set?$DMT?$DO?5too?5long?$AA@ DB 'map/set<T> too l'
	DB	'ong', 00H					; `string'
CONST	ENDS
;	COMDAT __TI3?AVlength_error@std@@
xdata$x	SEGMENT
__TI3?AVlength_error@std@@ DD 00H
	DD	FLAT:??1length_error@std@@UAE@XZ
	DD	00H
	DD	FLAT:__CTA3?AVlength_error@std@@
xdata$x	ENDS
;	COMDAT __CTA3?AVlength_error@std@@
xdata$x	SEGMENT
__CTA3?AVlength_error@std@@ DD 03H
	DD	FLAT:__CT??_R0?AVlength_error@std@@@8??0length_error@std@@QAE@ABV01@@Z40
	DD	FLAT:__CT??_R0?AVlogic_error@std@@@8??0logic_error@std@@QAE@ABV01@@Z40
	DD	FLAT:__CT??_R0?AVexception@@@8??0exception@@QAE@ABV0@@Z12
xdata$x	ENDS
;	COMDAT __CT??_R0?AVlength_error@std@@@8??0length_error@std@@QAE@ABV01@@Z40
xdata$x	SEGMENT
__CT??_R0?AVlength_error@std@@@8??0length_error@std@@QAE@ABV01@@Z40 DD 00H
	DD	FLAT:??_R0?AVlength_error@std@@@8
	DD	00H
	DD	0ffffffffH
	ORG $+4
	DD	028H
	DD	FLAT:??0length_error@std@@QAE@ABV01@@Z
xdata$x	ENDS
;	COMDAT ??_R0?AVlength_error@std@@@8
_DATA	SEGMENT
??_R0?AVlength_error@std@@@8 DD FLAT:??_7type_info@@6B@	; std::length_error `RTTI Type Descriptor'
	DD	00H
	DB	'.?AVlength_error@std@@', 00H
	ORG $-31
	DD	FLAT:??_7type_info@@6B@
	DD	00H
	DB	'.?AVlength_error@std@@', 00H
_DATA	ENDS
;	COMDAT __CT??_R0?AVlogic_error@std@@@8??0logic_error@std@@QAE@ABV01@@Z40
xdata$x	SEGMENT
__CT??_R0?AVlogic_error@std@@@8??0logic_error@std@@QAE@ABV01@@Z40 DD 00H
	DD	FLAT:??_R0?AVlogic_error@std@@@8
	DD	00H
	DD	0ffffffffH
	ORG $+4
	DD	028H
	DD	FLAT:??0logic_error@std@@QAE@ABV01@@Z
xdata$x	ENDS
;	COMDAT ??_R0?AVlogic_error@std@@@8
_DATA	SEGMENT
??_R0?AVlogic_error@std@@@8 DD FLAT:??_7type_info@@6B@	; std::logic_error `RTTI Type Descriptor'
	DD	00H
	DB	'.?AVlogic_error@std@@', 00H
	ORG $-30
	DD	FLAT:??_7type_info@@6B@
	DD	00H
	DB	'.?AVlogic_error@std@@', 00H
_DATA	ENDS
;	COMDAT __CT??_R0?AVexception@@@8??0exception@@QAE@ABV0@@Z12
xdata$x	SEGMENT
__CT??_R0?AVexception@@@8??0exception@@QAE@ABV0@@Z12 DD 00H
	DD	FLAT:??_R0?AVexception@@@8
	DD	00H
	DD	0ffffffffH
	ORG $+4
	DD	0cH
	DD	FLAT:??0exception@@QAE@ABV0@@Z
xdata$x	ENDS
;	COMDAT ??_R0?AVexception@@@8
_DATA	SEGMENT
??_R0?AVexception@@@8 DD FLAT:??_7type_info@@6B@	; exception `RTTI Type Descriptor'
	DD	00H
	DB	'.?AVexception@@', 00H
	ORG $-24
	DD	FLAT:??_7type_info@@6B@
	DD	00H
	DB	'.?AVexception@@', 00H
; Function compile flags: /Odt /RTCsu
_DATA	ENDS
;	COMDAT ?_Insert@?$_Tree@V?$_Tmap_traits@PAUHWND__@@UCWndData@@U?$less@PAUHWND__@@@std@@V?$allocator@U?$pair@QAUHWND__@@UCWndData@@@std@@@4@$0A@@std@@@std@@IAE?AViterator@12@_NPAU_Node@?$_Tree_nod@V?$_Tmap_traits@PAUHWND__@@UCWndData@@U?$less@PAUHWND__@@@std@@V?$allocator@U?$pair@QAUHWND__@@UCWndData@@@std@@@4@$0A@@std@@@2@ABU?$pair@QAUHWND__@@UCWndData@@@2@@Z
_TEXT	SEGMENT
$T192431 = -92						; size = 28
$T192430 = -64						; size = 40
__Pnode$190593 = -24					; size = 4
__Newnode$ = -20					; size = 4
_this$ = -16						; size = 4
__$EHRec$ = -12						; size = 12
___$ReturnUdt$ = 8					; size = 4
__Addleft$ = 12						; size = 1
__Wherenode$ = 16					; size = 4
__Val$ = 20						; size = 4
?_Insert@?$_Tree@V?$_Tmap_traits@PAUHWND__@@UCWndData@@U?$less@PAUHWND__@@@std@@V?$allocator@U?$pair@QAUHWND__@@UCWndData@@@std@@@4@$0A@@std@@@std@@IAE?AViterator@12@_NPAU_Node@?$_Tree_nod@V?$_Tmap_traits@PAUHWND__@@UCWndData@@U?$less@PAUHWND__@@@std@@V?$allocator@U?$pair@QAUHWND__@@UCWndData@@@std@@@4@$0A@@std@@@2@ABU?$pair@QAUHWND__@@UCWndData@@@2@@Z PROC NEAR ; std::_Tree<std::_Tmap_traits<HWND__ *,CWndData,std::less<HWND__ *>,std::allocator<std::pair<HWND__ * const,CWndData> >,0> >::_Insert, COMDAT
; _this$ = ecx

; 911  : 		{	// add node with value next to _Wherenode, to left if _Addnode

  00000	55		 push	 ebp
  00001	8b ec		 mov	 ebp, esp
  00003	6a ff		 push	 -1
  00005	68 00 00 00 00	 push	 __ehhandler$?_Insert@?$_Tree@V?$_Tmap_traits@PAUHWND__@@UCWndData@@U?$less@PAUHWND__@@@std@@V?$allocator@U?$pair@QAUHWND__@@UCWndData@@@std@@@4@$0A@@std@@@std@@IAE?AViterator@12@_NPAU_Node@?$_Tree_nod@V?$_Tmap_traits@PAUHWND__@@UCWndData@@U?$less@PAUHWND__@@@std@@V?$allocator@U?$pair@QAUHWND__@@UCWndData@@@std@@@4@$0A@@std@@@2@ABU?$pair@QAUHWND__@@UCWndData@@@2@@Z
  0000a	64 a1 00 00 00
	00		 mov	 eax, DWORD PTR fs:__except_list
  00010	50		 push	 eax
  00011	64 89 25 00 00
	00 00		 mov	 DWORD PTR fs:__except_list, esp
  00018	83 ec 50	 sub	 esp, 80			; 00000050H
  0001b	56		 push	 esi
  0001c	57		 push	 edi
  0001d	51		 push	 ecx
  0001e	8d 7d a4	 lea	 edi, DWORD PTR [ebp-92]
  00021	b9 14 00 00 00	 mov	 ecx, 20			; 00000014H
  00026	b8 cc cc cc cc	 mov	 eax, -858993460		; ccccccccH
  0002b	f3 ab		 rep stosd
  0002d	59		 pop	 ecx
  0002e	89 4d f0	 mov	 DWORD PTR _this$[ebp], ecx

; 912  : 		if (max_size() - 1 <= _Mysize)

  00031	8b 4d f0	 mov	 ecx, DWORD PTR _this$[ebp]
  00034	e8 00 00 00 00	 call	 ?max_size@?$_Tree@V?$_Tmap_traits@PAUHWND__@@UCWndData@@U?$less@PAUHWND__@@@std@@V?$allocator@U?$pair@QAUHWND__@@UCWndData@@@std@@@4@$0A@@std@@@std@@QBEIXZ ; std::_Tree<std::_Tmap_traits<HWND__ *,CWndData,std::less<HWND__ *>,std::allocator<std::pair<HWND__ * const,CWndData> >,0> >::max_size
  00039	83 e8 01	 sub	 eax, 1
  0003c	8b 4d f0	 mov	 ecx, DWORD PTR _this$[ebp]
  0003f	3b 41 08	 cmp	 eax, DWORD PTR [ecx+8]
  00042	77 38		 ja	 SHORT $L190578

; 913  : 			_THROW(length_error, "map/set<T> too long");

  00044	8b f4		 mov	 esi, esp
  00046	68 00 00 00 00	 push	 OFFSET FLAT:??_C@_0BE@JONHPENG@map?1set?$DMT?$DO?5too?5long?$AA@
  0004b	8d 4d a4	 lea	 ecx, DWORD PTR $T192431[ebp]
  0004e	ff 15 00 00 00
	00		 call	 DWORD PTR __imp_??0?$basic_string@DU?$char_traits@D@std@@V?$allocator@D@2@@std@@QAE@PBD@Z
  00054	3b f4		 cmp	 esi, esp
  00056	e8 00 00 00 00	 call	 __RTC_CheckEsp
  0005b	c7 45 fc 00 00
	00 00		 mov	 DWORD PTR __$EHRec$[ebp+8], 0
  00062	8d 55 a4	 lea	 edx, DWORD PTR $T192431[ebp]
  00065	52		 push	 edx
  00066	8d 4d c0	 lea	 ecx, DWORD PTR $T192430[ebp]
  00069	e8 00 00 00 00	 call	 ??0length_error@std@@QAE@ABV?$basic_string@DU?$char_traits@D@std@@V?$allocator@D@2@@1@@Z ; std::length_error::length_error
  0006e	68 00 00 00 00	 push	 OFFSET FLAT:__TI3?AVlength_error@std@@
  00073	8d 45 c0	 lea	 eax, DWORD PTR $T192430[ebp]
  00076	50		 push	 eax
  00077	e8 00 00 00 00	 call	 __CxxThrowException@8
$L190578:

; 914  : 		_Nodeptr _Newnode = _Buynode(_Myhead, _Wherenode, _Myhead,
; 915  : 			_Val, _Red);

  0007c	6a 00		 push	 0
  0007e	8b 4d 14	 mov	 ecx, DWORD PTR __Val$[ebp]
  00081	51		 push	 ecx
  00082	8b 55 f0	 mov	 edx, DWORD PTR _this$[ebp]
  00085	8b 42 04	 mov	 eax, DWORD PTR [edx+4]
  00088	50		 push	 eax
  00089	8b 4d 10	 mov	 ecx, DWORD PTR __Wherenode$[ebp]
  0008c	51		 push	 ecx
  0008d	8b 55 f0	 mov	 edx, DWORD PTR _this$[ebp]
  00090	8b 42 04	 mov	 eax, DWORD PTR [edx+4]
  00093	50		 push	 eax
  00094	8b 4d f0	 mov	 ecx, DWORD PTR _this$[ebp]
  00097	e8 00 00 00 00	 call	 ?_Buynode@?$_Tree@V?$_Tmap_traits@PAUHWND__@@UCWndData@@U?$less@PAUHWND__@@@std@@V?$allocator@U?$pair@QAUHWND__@@UCWndData@@@std@@@4@$0A@@std@@@std@@IAEPAU_Node@?$_Tree_nod@V?$_Tmap_traits@PAUHWND__@@UCWndData@@U?$less@PAUHWND__@@@std@@V?$allocator@U?$pair@QAUHWND__@@UCWndData@@@std@@@4@$0A@@std@@@2@PAU342@00ABU?$pair@QAUHWND__@@UCWndData@@@2@D@Z ; std::_Tree<std::_Tmap_traits<HWND__ *,CWndData,std::less<HWND__ *>,std::allocator<std::pair<HWND__ * const,CWndData> >,0> >::_Buynode
  0009c	89 45 ec	 mov	 DWORD PTR __Newnode$[ebp], eax

; 916  : 
; 917  : 		++_Mysize;

  0009f	8b 4d f0	 mov	 ecx, DWORD PTR _this$[ebp]
  000a2	8b 51 08	 mov	 edx, DWORD PTR [ecx+8]
  000a5	83 c2 01	 add	 edx, 1
  000a8	8b 45 f0	 mov	 eax, DWORD PTR _this$[ebp]
  000ab	89 50 08	 mov	 DWORD PTR [eax+8], edx

; 918  : 		if (_Wherenode == _Myhead)

  000ae	8b 4d f0	 mov	 ecx, DWORD PTR _this$[ebp]
  000b1	8b 55 10	 mov	 edx, DWORD PTR __Wherenode$[ebp]
  000b4	3b 51 04	 cmp	 edx, DWORD PTR [ecx+4]
  000b7	75 29		 jne	 SHORT $L190587

; 919  : 			{	// first node in tree, just set head values
; 920  : 			_Root() = _Newnode;

  000b9	8b 4d f0	 mov	 ecx, DWORD PTR _this$[ebp]
  000bc	e8 00 00 00 00	 call	 ?_Root@?$_Tree@V?$_Tmap_traits@PAUHWND__@@UCWndData@@U?$less@PAUHWND__@@@std@@V?$allocator@U?$pair@QAUHWND__@@UCWndData@@@std@@@4@$0A@@std@@@std@@IAEAAPAU_Node@?$_Tree_nod@V?$_Tmap_traits@PAUHWND__@@UCWndData@@U?$less@PAUHWND__@@@std@@V?$allocator@U?$pair@QAUHWND__@@UCWndData@@@std@@@4@$0A@@std@@@2@XZ ; std::_Tree<std::_Tmap_traits<HWND__ *,CWndData,std::less<HWND__ *>,std::allocator<std::pair<HWND__ * const,CWndData> >,0> >::_Root
  000c1	8b 4d ec	 mov	 ecx, DWORD PTR __Newnode$[ebp]
  000c4	89 08		 mov	 DWORD PTR [eax], ecx

; 921  : 			_Lmost() = _Newnode, _Rmost() = _Newnode;

  000c6	8b 4d f0	 mov	 ecx, DWORD PTR _this$[ebp]
  000c9	e8 00 00 00 00	 call	 ?_Lmost@?$_Tree@V?$_Tmap_traits@PAUHWND__@@UCWndData@@U?$less@PAUHWND__@@@std@@V?$allocator@U?$pair@QAUHWND__@@UCWndData@@@std@@@4@$0A@@std@@@std@@IAEAAPAU_Node@?$_Tree_nod@V?$_Tmap_traits@PAUHWND__@@UCWndData@@U?$less@PAUHWND__@@@std@@V?$allocator@U?$pair@QAUHWND__@@UCWndData@@@std@@@4@$0A@@std@@@2@XZ ; std::_Tree<std::_Tmap_traits<HWND__ *,CWndData,std::less<HWND__ *>,std::allocator<std::pair<HWND__ * const,CWndData> >,0> >::_Lmost
  000ce	8b 55 ec	 mov	 edx, DWORD PTR __Newnode$[ebp]
  000d1	89 10		 mov	 DWORD PTR [eax], edx
  000d3	8b 4d f0	 mov	 ecx, DWORD PTR _this$[ebp]
  000d6	e8 00 00 00 00	 call	 ?_Rmost@?$_Tree@V?$_Tmap_traits@PAUHWND__@@UCWndData@@U?$less@PAUHWND__@@@std@@V?$allocator@U?$pair@QAUHWND__@@UCWndData@@@std@@@4@$0A@@std@@@std@@IAEAAPAU_Node@?$_Tree_nod@V?$_Tmap_traits@PAUHWND__@@UCWndData@@U?$less@PAUHWND__@@@std@@V?$allocator@U?$pair@QAUHWND__@@UCWndData@@@std@@@4@$0A@@std@@@2@XZ ; std::_Tree<std::_Tmap_traits<HWND__ *,CWndData,std::less<HWND__ *>,std::allocator<std::pair<HWND__ * const,CWndData> >,0> >::_Rmost
  000db	8b 4d ec	 mov	 ecx, DWORD PTR __Newnode$[ebp]
  000de	89 08		 mov	 DWORD PTR [eax], ecx

; 922  : 			}
; 923  : 		else if (_Addleft)

  000e0	eb 64		 jmp	 SHORT $L190588
$L190587:
  000e2	0f b6 55 0c	 movzx	 edx, BYTE PTR __Addleft$[ebp]
  000e6	85 d2		 test	 edx, edx
  000e8	74 2f		 je	 SHORT $L190589

; 924  : 			{	// add to left of _Wherenode
; 925  : 			_Left(_Wherenode) = _Newnode;

  000ea	8b 45 10	 mov	 eax, DWORD PTR __Wherenode$[ebp]
  000ed	50		 push	 eax
  000ee	e8 00 00 00 00	 call	 ?_Left@?$_Tree@V?$_Tmap_traits@PAUHWND__@@UCWndData@@U?$less@PAUHWND__@@@std@@V?$allocator@U?$pair@QAUHWND__@@UCWndData@@@std@@@4@$0A@@std@@@std@@KAAAPAU_Node@?$_Tree_nod@V?$_Tmap_traits@PAUHWND__@@UCWndData@@U?$less@PAUHWND__@@@std@@V?$allocator@U?$pair@QAUHWND__@@UCWndData@@@std@@@4@$0A@@std@@@2@PAU342@@Z ; std::_Tree<std::_Tmap_traits<HWND__ *,CWndData,std::less<HWND__ *>,std::allocator<std::pair<HWND__ * const,CWndData> >,0> >::_Left
  000f3	83 c4 04	 add	 esp, 4
  000f6	8b 4d ec	 mov	 ecx, DWORD PTR __Newnode$[ebp]
  000f9	89 08		 mov	 DWORD PTR [eax], ecx

; 926  : 			if (_Wherenode == _Lmost())

  000fb	8b 4d f0	 mov	 ecx, DWORD PTR _this$[ebp]
  000fe	e8 00 00 00 00	 call	 ?_Lmost@?$_Tree@V?$_Tmap_traits@PAUHWND__@@UCWndData@@U?$less@PAUHWND__@@@std@@V?$allocator@U?$pair@QAUHWND__@@UCWndData@@@std@@@4@$0A@@std@@@std@@IAEAAPAU_Node@?$_Tree_nod@V?$_Tmap_traits@PAUHWND__@@UCWndData@@U?$less@PAUHWND__@@@std@@V?$allocator@U?$pair@QAUHWND__@@UCWndData@@@std@@@4@$0A@@std@@@2@XZ ; std::_Tree<std::_Tmap_traits<HWND__ *,CWndData,std::less<HWND__ *>,std::allocator<std::pair<HWND__ * const,CWndData> >,0> >::_Lmost
  00103	8b 55 10	 mov	 edx, DWORD PTR __Wherenode$[ebp]
  00106	3b 10		 cmp	 edx, DWORD PTR [eax]
  00108	75 0d		 jne	 SHORT $L190590

; 927  : 				_Lmost() = _Newnode;

  0010a	8b 4d f0	 mov	 ecx, DWORD PTR _this$[ebp]
  0010d	e8 00 00 00 00	 call	 ?_Lmost@?$_Tree@V?$_Tmap_traits@PAUHWND__@@UCWndData@@U?$less@PAUHWND__@@@std@@V?$allocator@U?$pair@QAUHWND__@@UCWndData@@@std@@@4@$0A@@std@@@std@@IAEAAPAU_Node@?$_Tree_nod@V?$_Tmap_traits@PAUHWND__@@UCWndData@@U?$less@PAUHWND__@@@std@@V?$allocator@U?$pair@QAUHWND__@@UCWndData@@@std@@@4@$0A@@std@@@2@XZ ; std::_Tree<std::_Tmap_traits<HWND__ *,CWndData,std::less<HWND__ *>,std::allocator<std::pair<HWND__ * const,CWndData> >,0> >::_Lmost
  00112	8b 4d ec	 mov	 ecx, DWORD PTR __Newnode$[ebp]
  00115	89 08		 mov	 DWORD PTR [eax], ecx
$L190590:

; 928  : 			}
; 929  : 		else

  00117	eb 2d		 jmp	 SHORT $L190588
$L190589:

; 930  : 			{	// add to right of _Wherenode
; 931  : 			_Right(_Wherenode) = _Newnode;

  00119	8b 55 10	 mov	 edx, DWORD PTR __Wherenode$[ebp]
  0011c	52		 push	 edx
  0011d	e8 00 00 00 00	 call	 ?_Right@?$_Tree@V?$_Tmap_traits@PAUHWND__@@UCWndData@@U?$less@PAUHWND__@@@std@@V?$allocator@U?$pair@QAUHWND__@@UCWndData@@@std@@@4@$0A@@std@@@std@@KAAAPAU_Node@?$_Tree_nod@V?$_Tmap_traits@PAUHWND__@@UCWndData@@U?$less@PAUHWND__@@@std@@V?$allocator@U?$pair@QAUHWND__@@UCWndData@@@std@@@4@$0A@@std@@@2@PAU342@@Z ; std::_Tree<std::_Tmap_traits<HWND__ *,CWndData,std::less<HWND__ *>,std::allocator<std::pair<HWND__ * const,CWndData> >,0> >::_Right
  00122	83 c4 04	 add	 esp, 4
  00125	8b 4d ec	 mov	 ecx, DWORD PTR __Newnode$[ebp]
  00128	89 08		 mov	 DWORD PTR [eax], ecx

; 932  : 			if (_Wherenode == _Rmost())

  0012a	8b 4d f0	 mov	 ecx, DWORD PTR _this$[ebp]
  0012d	e8 00 00 00 00	 call	 ?_Rmost@?$_Tree@V?$_Tmap_traits@PAUHWND__@@UCWndData@@U?$less@PAUHWND__@@@std@@V?$allocator@U?$pair@QAUHWND__@@UCWndData@@@std@@@4@$0A@@std@@@std@@IAEAAPAU_Node@?$_Tree_nod@V?$_Tmap_traits@PAUHWND__@@UCWndData@@U?$less@PAUHWND__@@@std@@V?$allocator@U?$pair@QAUHWND__@@UCWndData@@@std@@@4@$0A@@std@@@2@XZ ; std::_Tree<std::_Tmap_traits<HWND__ *,CWndData,std::less<HWND__ *>,std::allocator<std::pair<HWND__ * const,CWndData> >,0> >::_Rmost
  00132	8b 55 10	 mov	 edx, DWORD PTR __Wherenode$[ebp]
  00135	3b 10		 cmp	 edx, DWORD PTR [eax]
  00137	75 0d		 jne	 SHORT $L190588

; 933  : 				_Rmost() = _Newnode;

  00139	8b 4d f0	 mov	 ecx, DWORD PTR _this$[ebp]
  0013c	e8 00 00 00 00	 call	 ?_Rmost@?$_Tree@V?$_Tmap_traits@PAUHWND__@@UCWndData@@U?$less@PAUHWND__@@@std@@V?$allocator@U?$pair@QAUHWND__@@UCWndData@@@std@@@4@$0A@@std@@@std@@IAEAAPAU_Node@?$_Tree_nod@V?$_Tmap_traits@PAUHWND__@@UCWndData@@U?$less@PAUHWND__@@@std@@V?$allocator@U?$pair@QAUHWND__@@UCWndData@@@std@@@4@$0A@@std@@@2@XZ ; std::_Tree<std::_Tmap_traits<HWND__ *,CWndData,std::less<HWND__ *>,std::allocator<std::pair<HWND__ * const,CWndData> >,0> >::_Rmost
  00141	8b 4d ec	 mov	 ecx, DWORD PTR __Newnode$[ebp]
  00144	89 08		 mov	 DWORD PTR [eax], ecx
$L190588:

; 934  : 			}
; 935  : 
; 936  : 		for (_Nodeptr _Pnode = _Newnode; _Color(_Parent(_Pnode)) == _Red; )

  00146	8b 55 ec	 mov	 edx, DWORD PTR __Newnode$[ebp]
  00149	89 55 e8	 mov	 DWORD PTR __Pnode$190593[ebp], edx
$L190595:
  0014c	8b 45 e8	 mov	 eax, DWORD PTR __Pnode$190593[ebp]
  0014f	50		 push	 eax
  00150	e8 00 00 00 00	 call	 ?_Parent@?$_Tree@V?$_Tmap_traits@PAUHWND__@@UCWndData@@U?$less@PAUHWND__@@@std@@V?$allocator@U?$pair@QAUHWND__@@UCWndData@@@std@@@4@$0A@@std@@@std@@KAAAPAU_Node@?$_Tree_nod@V?$_Tmap_traits@PAUHWND__@@UCWndData@@U?$less@PAUHWND__@@@std@@V?$allocator@U?$pair@QAUHWND__@@UCWndData@@@std@@@4@$0A@@std@@@2@PAU342@@Z ; std::_Tree<std::_Tmap_traits<HWND__ *,CWndData,std::less<HWND__ *>,std::allocator<std::pair<HWND__ * const,CWndData> >,0> >::_Parent
  00155	83 c4 04	 add	 esp, 4
  00158	8b 08		 mov	 ecx, DWORD PTR [eax]
  0015a	51		 push	 ecx
  0015b	e8 00 00 00 00	 call	 ?_Color@?$_Tree@V?$_Tmap_traits@PAUHWND__@@UCWndData@@U?$less@PAUHWND__@@@std@@V?$allocator@U?$pair@QAUHWND__@@UCWndData@@@std@@@4@$0A@@std@@@std@@KAAADPAU_Node@?$_Tree_nod@V?$_Tmap_traits@PAUHWND__@@UCWndData@@U?$less@PAUHWND__@@@std@@V?$allocator@U?$pair@QAUHWND__@@UCWndData@@@std@@@4@$0A@@std@@@2@@Z ; std::_Tree<std::_Tmap_traits<HWND__ *,CWndData,std::less<HWND__ *>,std::allocator<std::pair<HWND__ * const,CWndData> >,0> >::_Color
  00160	83 c4 04	 add	 esp, 4
  00163	0f be 10	 movsx	 edx, BYTE PTR [eax]
  00166	85 d2		 test	 edx, edx
  00168	0f 85 ce 02 00
	00		 jne	 $L190596

; 937  : 			if (_Parent(_Pnode) == _Left(_Parent(_Parent(_Pnode))))

  0016e	8b 45 e8	 mov	 eax, DWORD PTR __Pnode$190593[ebp]
  00171	50		 push	 eax
  00172	e8 00 00 00 00	 call	 ?_Parent@?$_Tree@V?$_Tmap_traits@PAUHWND__@@UCWndData@@U?$less@PAUHWND__@@@std@@V?$allocator@U?$pair@QAUHWND__@@UCWndData@@@std@@@4@$0A@@std@@@std@@KAAAPAU_Node@?$_Tree_nod@V?$_Tmap_traits@PAUHWND__@@UCWndData@@U?$less@PAUHWND__@@@std@@V?$allocator@U?$pair@QAUHWND__@@UCWndData@@@std@@@4@$0A@@std@@@2@PAU342@@Z ; std::_Tree<std::_Tmap_traits<HWND__ *,CWndData,std::less<HWND__ *>,std::allocator<std::pair<HWND__ * const,CWndData> >,0> >::_Parent
  00177	83 c4 04	 add	 esp, 4
  0017a	8b f0		 mov	 esi, eax
  0017c	8b 4d e8	 mov	 ecx, DWORD PTR __Pnode$190593[ebp]
  0017f	51		 push	 ecx
  00180	e8 00 00 00 00	 call	 ?_Parent@?$_Tree@V?$_Tmap_traits@PAUHWND__@@UCWndData@@U?$less@PAUHWND__@@@std@@V?$allocator@U?$pair@QAUHWND__@@UCWndData@@@std@@@4@$0A@@std@@@std@@KAAAPAU_Node@?$_Tree_nod@V?$_Tmap_traits@PAUHWND__@@UCWndData@@U?$less@PAUHWND__@@@std@@V?$allocator@U?$pair@QAUHWND__@@UCWndData@@@std@@@4@$0A@@std@@@2@PAU342@@Z ; std::_Tree<std::_Tmap_traits<HWND__ *,CWndData,std::less<HWND__ *>,std::allocator<std::pair<HWND__ * const,CWndData> >,0> >::_Parent
  00185	83 c4 04	 add	 esp, 4
  00188	8b 10		 mov	 edx, DWORD PTR [eax]
  0018a	52		 push	 edx
  0018b	e8 00 00 00 00	 call	 ?_Parent@?$_Tree@V?$_Tmap_traits@PAUHWND__@@UCWndData@@U?$less@PAUHWND__@@@std@@V?$allocator@U?$pair@QAUHWND__@@UCWndData@@@std@@@4@$0A@@std@@@std@@KAAAPAU_Node@?$_Tree_nod@V?$_Tmap_traits@PAUHWND__@@UCWndData@@U?$less@PAUHWND__@@@std@@V?$allocator@U?$pair@QAUHWND__@@UCWndData@@@std@@@4@$0A@@std@@@2@PAU342@@Z ; std::_Tree<std::_Tmap_traits<HWND__ *,CWndData,std::less<HWND__ *>,std::allocator<std::pair<HWND__ * const,CWndData> >,0> >::_Parent
  00190	83 c4 04	 add	 esp, 4
  00193	8b 00		 mov	 eax, DWORD PTR [eax]
  00195	50		 push	 eax
  00196	e8 00 00 00 00	 call	 ?_Left@?$_Tree@V?$_Tmap_traits@PAUHWND__@@UCWndData@@U?$less@PAUHWND__@@@std@@V?$allocator@U?$pair@QAUHWND__@@UCWndData@@@std@@@4@$0A@@std@@@std@@KAAAPAU_Node@?$_Tree_nod@V?$_Tmap_traits@PAUHWND__@@UCWndData@@U?$less@PAUHWND__@@@std@@V?$allocator@U?$pair@QAUHWND__@@UCWndData@@@std@@@4@$0A@@std@@@2@PAU342@@Z ; std::_Tree<std::_Tmap_traits<HWND__ *,CWndData,std::less<HWND__ *>,std::allocator<std::pair<HWND__ * const,CWndData> >,0> >::_Left
  0019b	83 c4 04	 add	 esp, 4
  0019e	8b 0e		 mov	 ecx, DWORD PTR [esi]
  001a0	3b 08		 cmp	 ecx, DWORD PTR [eax]
  001a2	0f 85 4a 01 00
	00		 jne	 $L190597

; 938  : 				{	// fixup red-red in left subtree
; 939  : 				_Wherenode = _Right(_Parent(_Parent(_Pnode)));

  001a8	8b 55 e8	 mov	 edx, DWORD PTR __Pnode$190593[ebp]
  001ab	52		 push	 edx
  001ac	e8 00 00 00 00	 call	 ?_Parent@?$_Tree@V?$_Tmap_traits@PAUHWND__@@UCWndData@@U?$less@PAUHWND__@@@std@@V?$allocator@U?$pair@QAUHWND__@@UCWndData@@@std@@@4@$0A@@std@@@std@@KAAAPAU_Node@?$_Tree_nod@V?$_Tmap_traits@PAUHWND__@@UCWndData@@U?$less@PAUHWND__@@@std@@V?$allocator@U?$pair@QAUHWND__@@UCWndData@@@std@@@4@$0A@@std@@@2@PAU342@@Z ; std::_Tree<std::_Tmap_traits<HWND__ *,CWndData,std::less<HWND__ *>,std::allocator<std::pair<HWND__ * const,CWndData> >,0> >::_Parent
  001b1	83 c4 04	 add	 esp, 4
  001b4	8b 00		 mov	 eax, DWORD PTR [eax]
  001b6	50		 push	 eax
  001b7	e8 00 00 00 00	 call	 ?_Parent@?$_Tree@V?$_Tmap_traits@PAUHWND__@@UCWndData@@U?$less@PAUHWND__@@@std@@V?$allocator@U?$pair@QAUHWND__@@UCWndData@@@std@@@4@$0A@@std@@@std@@KAAAPAU_Node@?$_Tree_nod@V?$_Tmap_traits@PAUHWND__@@UCWndData@@U?$less@PAUHWND__@@@std@@V?$allocator@U?$pair@QAUHWND__@@UCWndData@@@std@@@4@$0A@@std@@@2@PAU342@@Z ; std::_Tree<std::_Tmap_traits<HWND__ *,CWndData,std::less<HWND__ *>,std::allocator<std::pair<HWND__ * const,CWndData> >,0> >::_Parent
  001bc	83 c4 04	 add	 esp, 4
  001bf	8b 08		 mov	 ecx, DWORD PTR [eax]
  001c1	51		 push	 ecx
  001c2	e8 00 00 00 00	 call	 ?_Right@?$_Tree@V?$_Tmap_traits@PAUHWND__@@UCWndData@@U?$less@PAUHWND__@@@std@@V?$allocator@U?$pair@QAUHWND__@@UCWndData@@@std@@@4@$0A@@std@@@std@@KAAAPAU_Node@?$_Tree_nod@V?$_Tmap_traits@PAUHWND__@@UCWndData@@U?$less@PAUHWND__@@@std@@V?$allocator@U?$pair@QAUHWND__@@UCWndData@@@std@@@4@$0A@@std@@@2@PAU342@@Z ; std::_Tree<std::_Tmap_traits<HWND__ *,CWndData,std::less<HWND__ *>,std::allocator<std::pair<HWND__ * const,CWndData> >,0> >::_Right
  001c7	83 c4 04	 add	 esp, 4
  001ca	8b 10		 mov	 edx, DWORD PTR [eax]
  001cc	89 55 10	 mov	 DWORD PTR __Wherenode$[ebp], edx

; 940  : 				if (_Color(_Wherenode) == _Red)

  001cf	8b 45 10	 mov	 eax, DWORD PTR __Wherenode$[ebp]
  001d2	50		 push	 eax
  001d3	e8 00 00 00 00	 call	 ?_Color@?$_Tree@V?$_Tmap_traits@PAUHWND__@@UCWndData@@U?$less@PAUHWND__@@@std@@V?$allocator@U?$pair@QAUHWND__@@UCWndData@@@std@@@4@$0A@@std@@@std@@KAAADPAU_Node@?$_Tree_nod@V?$_Tmap_traits@PAUHWND__@@UCWndData@@U?$less@PAUHWND__@@@std@@V?$allocator@U?$pair@QAUHWND__@@UCWndData@@@std@@@4@$0A@@std@@@2@@Z ; std::_Tree<std::_Tmap_traits<HWND__ *,CWndData,std::less<HWND__ *>,std::allocator<std::pair<HWND__ * const,CWndData> >,0> >::_Color
  001d8	83 c4 04	 add	 esp, 4
  001db	0f be 08	 movsx	 ecx, BYTE PTR [eax]
  001de	85 c9		 test	 ecx, ecx
  001e0	75 6f		 jne	 SHORT $L190598

; 941  : 					{	// parent has two red children, blacken both
; 942  : 					_Color(_Parent(_Pnode)) = _Black;

  001e2	8b 55 e8	 mov	 edx, DWORD PTR __Pnode$190593[ebp]
  001e5	52		 push	 edx
  001e6	e8 00 00 00 00	 call	 ?_Parent@?$_Tree@V?$_Tmap_traits@PAUHWND__@@UCWndData@@U?$less@PAUHWND__@@@std@@V?$allocator@U?$pair@QAUHWND__@@UCWndData@@@std@@@4@$0A@@std@@@std@@KAAAPAU_Node@?$_Tree_nod@V?$_Tmap_traits@PAUHWND__@@UCWndData@@U?$less@PAUHWND__@@@std@@V?$allocator@U?$pair@QAUHWND__@@UCWndData@@@std@@@4@$0A@@std@@@2@PAU342@@Z ; std::_Tree<std::_Tmap_traits<HWND__ *,CWndData,std::less<HWND__ *>,std::allocator<std::pair<HWND__ * const,CWndData> >,0> >::_Parent
  001eb	83 c4 04	 add	 esp, 4
  001ee	8b 00		 mov	 eax, DWORD PTR [eax]
  001f0	50		 push	 eax
  001f1	e8 00 00 00 00	 call	 ?_Color@?$_Tree@V?$_Tmap_traits@PAUHWND__@@UCWndData@@U?$less@PAUHWND__@@@std@@V?$allocator@U?$pair@QAUHWND__@@UCWndData@@@std@@@4@$0A@@std@@@std@@KAAADPAU_Node@?$_Tree_nod@V?$_Tmap_traits@PAUHWND__@@UCWndData@@U?$less@PAUHWND__@@@std@@V?$allocator@U?$pair@QAUHWND__@@UCWndData@@@std@@@4@$0A@@std@@@2@@Z ; std::_Tree<std::_Tmap_traits<HWND__ *,CWndData,std::less<HWND__ *>,std::allocator<std::pair<HWND__ * const,CWndData> >,0> >::_Color
  001f6	83 c4 04	 add	 esp, 4
  001f9	c6 00 01	 mov	 BYTE PTR [eax], 1

; 943  : 					_Color(_Wherenode) = _Black;

  001fc	8b 4d 10	 mov	 ecx, DWORD PTR __Wherenode$[ebp]
  001ff	51		 push	 ecx
  00200	e8 00 00 00 00	 call	 ?_Color@?$_Tree@V?$_Tmap_traits@PAUHWND__@@UCWndData@@U?$less@PAUHWND__@@@std@@V?$allocator@U?$pair@QAUHWND__@@UCWndData@@@std@@@4@$0A@@std@@@std@@KAAADPAU_Node@?$_Tree_nod@V?$_Tmap_traits@PAUHWND__@@UCWndData@@U?$less@PAUHWND__@@@std@@V?$allocator@U?$pair@QAUHWND__@@UCWndData@@@std@@@4@$0A@@std@@@2@@Z ; std::_Tree<std::_Tmap_traits<HWND__ *,CWndData,std::less<HWND__ *>,std::allocator<std::pair<HWND__ * const,CWndData> >,0> >::_Color
  00205	83 c4 04	 add	 esp, 4
  00208	c6 00 01	 mov	 BYTE PTR [eax], 1

; 944  : 					_Color(_Parent(_Parent(_Pnode))) = _Red;

  0020b	8b 55 e8	 mov	 edx, DWORD PTR __Pnode$190593[ebp]
  0020e	52		 push	 edx
  0020f	e8 00 00 00 00	 call	 ?_Parent@?$_Tree@V?$_Tmap_traits@PAUHWND__@@UCWndData@@U?$less@PAUHWND__@@@std@@V?$allocator@U?$pair@QAUHWND__@@UCWndData@@@std@@@4@$0A@@std@@@std@@KAAAPAU_Node@?$_Tree_nod@V?$_Tmap_traits@PAUHWND__@@UCWndData@@U?$less@PAUHWND__@@@std@@V?$allocator@U?$pair@QAUHWND__@@UCWndData@@@std@@@4@$0A@@std@@@2@PAU342@@Z ; std::_Tree<std::_Tmap_traits<HWND__ *,CWndData,std::less<HWND__ *>,std::allocator<std::pair<HWND__ * const,CWndData> >,0> >::_Parent
  00214	83 c4 04	 add	 esp, 4
  00217	8b 00		 mov	 eax, DWORD PTR [eax]
  00219	50		 push	 eax
  0021a	e8 00 00 00 00	 call	 ?_Parent@?$_Tree@V?$_Tmap_traits@PAUHWND__@@UCWndData@@U?$less@PAUHWND__@@@std@@V?$allocator@U?$pair@QAUHWND__@@UCWndData@@@std@@@4@$0A@@std@@@std@@KAAAPAU_Node@?$_Tree_nod@V?$_Tmap_traits@PAUHWND__@@UCWndData@@U?$less@PAUHWND__@@@std@@V?$allocator@U?$pair@QAUHWND__@@UCWndData@@@std@@@4@$0A@@std@@@2@PAU342@@Z ; std::_Tree<std::_Tmap_traits<HWND__ *,CWndData,std::less<HWND__ *>,std::allocator<std::pair<HWND__ * const,CWndData> >,0> >::_Parent
  0021f	83 c4 04	 add	 esp, 4
  00222	8b 08		 mov	 ecx, DWORD PTR [eax]
  00224	51		 push	 ecx
  00225	e8 00 00 00 00	 call	 ?_Color@?$_Tree@V?$_Tmap_traits@PAUHWND__@@UCWndData@@U?$less@PAUHWND__@@@std@@V?$allocator@U?$pair@QAUHWND__@@UCWndData@@@std@@@4@$0A@@std@@@std@@KAAADPAU_Node@?$_Tree_nod@V?$_Tmap_traits@PAUHWND__@@UCWndData@@U?$less@PAUHWND__@@@std@@V?$allocator@U?$pair@QAUHWND__@@UCWndData@@@std@@@4@$0A@@std@@@2@@Z ; std::_Tree<std::_Tmap_traits<HWND__ *,CWndData,std::less<HWND__ *>,std::allocator<std::pair<HWND__ * const,CWndData> >,0> >::_Color
  0022a	83 c4 04	 add	 esp, 4
  0022d	c6 00 00	 mov	 BYTE PTR [eax], 0

; 945  : 					_Pnode = _Parent(_Parent(_Pnode));

  00230	8b 55 e8	 mov	 edx, DWORD PTR __Pnode$190593[ebp]
  00233	52		 push	 edx
  00234	e8 00 00 00 00	 call	 ?_Parent@?$_Tree@V?$_Tmap_traits@PAUHWND__@@UCWndData@@U?$less@PAUHWND__@@@std@@V?$allocator@U?$pair@QAUHWND__@@UCWndData@@@std@@@4@$0A@@std@@@std@@KAAAPAU_Node@?$_Tree_nod@V?$_Tmap_traits@PAUHWND__@@UCWndData@@U?$less@PAUHWND__@@@std@@V?$allocator@U?$pair@QAUHWND__@@UCWndData@@@std@@@4@$0A@@std@@@2@PAU342@@Z ; std::_Tree<std::_Tmap_traits<HWND__ *,CWndData,std::less<HWND__ *>,std::allocator<std::pair<HWND__ * const,CWndData> >,0> >::_Parent
  00239	83 c4 04	 add	 esp, 4
  0023c	8b 00		 mov	 eax, DWORD PTR [eax]
  0023e	50		 push	 eax
  0023f	e8 00 00 00 00	 call	 ?_Parent@?$_Tree@V?$_Tmap_traits@PAUHWND__@@UCWndData@@U?$less@PAUHWND__@@@std@@V?$allocator@U?$pair@QAUHWND__@@UCWndData@@@std@@@4@$0A@@std@@@std@@KAAAPAU_Node@?$_Tree_nod@V?$_Tmap_traits@PAUHWND__@@UCWndData@@U?$less@PAUHWND__@@@std@@V?$allocator@U?$pair@QAUHWND__@@UCWndData@@@std@@@4@$0A@@std@@@2@PAU342@@Z ; std::_Tree<std::_Tmap_traits<HWND__ *,CWndData,std::less<HWND__ *>,std::allocator<std::pair<HWND__ * const,CWndData> >,0> >::_Parent
  00244	83 c4 04	 add	 esp, 4
  00247	8b 08		 mov	 ecx, DWORD PTR [eax]
  00249	89 4d e8	 mov	 DWORD PTR __Pnode$190593[ebp], ecx

; 946  : 					}
; 947  : 				else

  0024c	e9 9c 00 00 00	 jmp	 $L190599
$L190598:

; 948  : 					{	// parent has red and black children
; 949  : 					if (_Pnode == _Right(_Parent(_Pnode)))

  00251	8b 55 e8	 mov	 edx, DWORD PTR __Pnode$190593[ebp]
  00254	52		 push	 edx
  00255	e8 00 00 00 00	 call	 ?_Parent@?$_Tree@V?$_Tmap_traits@PAUHWND__@@UCWndData@@U?$less@PAUHWND__@@@std@@V?$allocator@U?$pair@QAUHWND__@@UCWndData@@@std@@@4@$0A@@std@@@std@@KAAAPAU_Node@?$_Tree_nod@V?$_Tmap_traits@PAUHWND__@@UCWndData@@U?$less@PAUHWND__@@@std@@V?$allocator@U?$pair@QAUHWND__@@UCWndData@@@std@@@4@$0A@@std@@@2@PAU342@@Z ; std::_Tree<std::_Tmap_traits<HWND__ *,CWndData,std::less<HWND__ *>,std::allocator<std::pair<HWND__ * const,CWndData> >,0> >::_Parent
  0025a	83 c4 04	 add	 esp, 4
  0025d	8b 00		 mov	 eax, DWORD PTR [eax]
  0025f	50		 push	 eax
  00260	e8 00 00 00 00	 call	 ?_Right@?$_Tree@V?$_Tmap_traits@PAUHWND__@@UCWndData@@U?$less@PAUHWND__@@@std@@V?$allocator@U?$pair@QAUHWND__@@UCWndData@@@std@@@4@$0A@@std@@@std@@KAAAPAU_Node@?$_Tree_nod@V?$_Tmap_traits@PAUHWND__@@UCWndData@@U?$less@PAUHWND__@@@std@@V?$allocator@U?$pair@QAUHWND__@@UCWndData@@@std@@@4@$0A@@std@@@2@PAU342@@Z ; std::_Tree<std::_Tmap_traits<HWND__ *,CWndData,std::less<HWND__ *>,std::allocator<std::pair<HWND__ * const,CWndData> >,0> >::_Right
  00265	83 c4 04	 add	 esp, 4
  00268	8b 4d e8	 mov	 ecx, DWORD PTR __Pnode$190593[ebp]
  0026b	3b 08		 cmp	 ecx, DWORD PTR [eax]
  0026d	75 1d		 jne	 SHORT $L190600

; 950  : 						{	// rotate right child to left
; 951  : 						_Pnode = _Parent(_Pnode);

  0026f	8b 55 e8	 mov	 edx, DWORD PTR __Pnode$190593[ebp]
  00272	52		 push	 edx
  00273	e8 00 00 00 00	 call	 ?_Parent@?$_Tree@V?$_Tmap_traits@PAUHWND__@@UCWndData@@U?$less@PAUHWND__@@@std@@V?$allocator@U?$pair@QAUHWND__@@UCWndData@@@std@@@4@$0A@@std@@@std@@KAAAPAU_Node@?$_Tree_nod@V?$_Tmap_traits@PAUHWND__@@UCWndData@@U?$less@PAUHWND__@@@std@@V?$allocator@U?$pair@QAUHWND__@@UCWndData@@@std@@@4@$0A@@std@@@2@PAU342@@Z ; std::_Tree<std::_Tmap_traits<HWND__ *,CWndData,std::less<HWND__ *>,std::allocator<std::pair<HWND__ * const,CWndData> >,0> >::_Parent
  00278	83 c4 04	 add	 esp, 4
  0027b	8b 00		 mov	 eax, DWORD PTR [eax]
  0027d	89 45 e8	 mov	 DWORD PTR __Pnode$190593[ebp], eax

; 952  : 						_Lrotate(_Pnode);

  00280	8b 4d e8	 mov	 ecx, DWORD PTR __Pnode$190593[ebp]
  00283	51		 push	 ecx
  00284	8b 4d f0	 mov	 ecx, DWORD PTR _this$[ebp]
  00287	e8 00 00 00 00	 call	 ?_Lrotate@?$_Tree@V?$_Tmap_traits@PAUHWND__@@UCWndData@@U?$less@PAUHWND__@@@std@@V?$allocator@U?$pair@QAUHWND__@@UCWndData@@@std@@@4@$0A@@std@@@std@@IAEXPAU_Node@?$_Tree_nod@V?$_Tmap_traits@PAUHWND__@@UCWndData@@U?$less@PAUHWND__@@@std@@V?$allocator@U?$pair@QAUHWND__@@UCWndData@@@std@@@4@$0A@@std@@@2@@Z ; std::_Tree<std::_Tmap_traits<HWND__ *,CWndData,std::less<HWND__ *>,std::allocator<std::pair<HWND__ * const,CWndData> >,0> >::_Lrotate
$L190600:

; 953  : 						}
; 954  : 					_Color(_Parent(_Pnode)) = _Black;	// propagate red up

  0028c	8b 55 e8	 mov	 edx, DWORD PTR __Pnode$190593[ebp]
  0028f	52		 push	 edx
  00290	e8 00 00 00 00	 call	 ?_Parent@?$_Tree@V?$_Tmap_traits@PAUHWND__@@UCWndData@@U?$less@PAUHWND__@@@std@@V?$allocator@U?$pair@QAUHWND__@@UCWndData@@@std@@@4@$0A@@std@@@std@@KAAAPAU_Node@?$_Tree_nod@V?$_Tmap_traits@PAUHWND__@@UCWndData@@U?$less@PAUHWND__@@@std@@V?$allocator@U?$pair@QAUHWND__@@UCWndData@@@std@@@4@$0A@@std@@@2@PAU342@@Z ; std::_Tree<std::_Tmap_traits<HWND__ *,CWndData,std::less<HWND__ *>,std::allocator<std::pair<HWND__ * const,CWndData> >,0> >::_Parent
  00295	83 c4 04	 add	 esp, 4
  00298	8b 00		 mov	 eax, DWORD PTR [eax]
  0029a	50		 push	 eax
  0029b	e8 00 00 00 00	 call	 ?_Color@?$_Tree@V?$_Tmap_traits@PAUHWND__@@UCWndData@@U?$less@PAUHWND__@@@std@@V?$allocator@U?$pair@QAUHWND__@@UCWndData@@@std@@@4@$0A@@std@@@std@@KAAADPAU_Node@?$_Tree_nod@V?$_Tmap_traits@PAUHWND__@@UCWndData@@U?$less@PAUHWND__@@@std@@V?$allocator@U?$pair@QAUHWND__@@UCWndData@@@std@@@4@$0A@@std@@@2@@Z ; std::_Tree<std::_Tmap_traits<HWND__ *,CWndData,std::less<HWND__ *>,std::allocator<std::pair<HWND__ * const,CWndData> >,0> >::_Color
  002a0	83 c4 04	 add	 esp, 4
  002a3	c6 00 01	 mov	 BYTE PTR [eax], 1

; 955  : 					_Color(_Parent(_Parent(_Pnode))) = _Red;

  002a6	8b 4d e8	 mov	 ecx, DWORD PTR __Pnode$190593[ebp]
  002a9	51		 push	 ecx
  002aa	e8 00 00 00 00	 call	 ?_Parent@?$_Tree@V?$_Tmap_traits@PAUHWND__@@UCWndData@@U?$less@PAUHWND__@@@std@@V?$allocator@U?$pair@QAUHWND__@@UCWndData@@@std@@@4@$0A@@std@@@std@@KAAAPAU_Node@?$_Tree_nod@V?$_Tmap_traits@PAUHWND__@@UCWndData@@U?$less@PAUHWND__@@@std@@V?$allocator@U?$pair@QAUHWND__@@UCWndData@@@std@@@4@$0A@@std@@@2@PAU342@@Z ; std::_Tree<std::_Tmap_traits<HWND__ *,CWndData,std::less<HWND__ *>,std::allocator<std::pair<HWND__ * const,CWndData> >,0> >::_Parent
  002af	83 c4 04	 add	 esp, 4
  002b2	8b 10		 mov	 edx, DWORD PTR [eax]
  002b4	52		 push	 edx
  002b5	e8 00 00 00 00	 call	 ?_Parent@?$_Tree@V?$_Tmap_traits@PAUHWND__@@UCWndData@@U?$less@PAUHWND__@@@std@@V?$allocator@U?$pair@QAUHWND__@@UCWndData@@@std@@@4@$0A@@std@@@std@@KAAAPAU_Node@?$_Tree_nod@V?$_Tmap_traits@PAUHWND__@@UCWndData@@U?$less@PAUHWND__@@@std@@V?$allocator@U?$pair@QAUHWND__@@UCWndData@@@std@@@4@$0A@@std@@@2@PAU342@@Z ; std::_Tree<std::_Tmap_traits<HWND__ *,CWndData,std::less<HWND__ *>,std::allocator<std::pair<HWND__ * const,CWndData> >,0> >::_Parent
  002ba	83 c4 04	 add	 esp, 4
  002bd	8b 00		 mov	 eax, DWORD PTR [eax]
  002bf	50		 push	 eax
  002c0	e8 00 00 00 00	 call	 ?_Color@?$_Tree@V?$_Tmap_traits@PAUHWND__@@UCWndData@@U?$less@PAUHWND__@@@std@@V?$allocator@U?$pair@QAUHWND__@@UCWndData@@@std@@@4@$0A@@std@@@std@@KAAADPAU_Node@?$_Tree_nod@V?$_Tmap_traits@PAUHWND__@@UCWndData@@U?$less@PAUHWND__@@@std@@V?$allocator@U?$pair@QAUHWND__@@UCWndData@@@std@@@4@$0A@@std@@@2@@Z ; std::_Tree<std::_Tmap_traits<HWND__ *,CWndData,std::less<HWND__ *>,std::allocator<std::pair<HWND__ * const,CWndData> >,0> >::_Color
  002c5	83 c4 04	 add	 esp, 4
  002c8	c6 00 00	 mov	 BYTE PTR [eax], 0

; 956  : 					_Rrotate(_Parent(_Parent(_Pnode)));

  002cb	8b 4d e8	 mov	 ecx, DWORD PTR __Pnode$190593[ebp]
  002ce	51		 push	 ecx
  002cf	e8 00 00 00 00	 call	 ?_Parent@?$_Tree@V?$_Tmap_traits@PAUHWND__@@UCWndData@@U?$less@PAUHWND__@@@std@@V?$allocator@U?$pair@QAUHWND__@@UCWndData@@@std@@@4@$0A@@std@@@std@@KAAAPAU_Node@?$_Tree_nod@V?$_Tmap_traits@PAUHWND__@@UCWndData@@U?$less@PAUHWND__@@@std@@V?$allocator@U?$pair@QAUHWND__@@UCWndData@@@std@@@4@$0A@@std@@@2@PAU342@@Z ; std::_Tree<std::_Tmap_traits<HWND__ *,CWndData,std::less<HWND__ *>,std::allocator<std::pair<HWND__ * const,CWndData> >,0> >::_Parent
  002d4	83 c4 04	 add	 esp, 4
  002d7	8b 10		 mov	 edx, DWORD PTR [eax]
  002d9	52		 push	 edx
  002da	e8 00 00 00 00	 call	 ?_Parent@?$_Tree@V?$_Tmap_traits@PAUHWND__@@UCWndData@@U?$less@PAUHWND__@@@std@@V?$allocator@U?$pair@QAUHWND__@@UCWndData@@@std@@@4@$0A@@std@@@std@@KAAAPAU_Node@?$_Tree_nod@V?$_Tmap_traits@PAUHWND__@@UCWndData@@U?$less@PAUHWND__@@@std@@V?$allocator@U?$pair@QAUHWND__@@UCWndData@@@std@@@4@$0A@@std@@@2@PAU342@@Z ; std::_Tree<std::_Tmap_traits<HWND__ *,CWndData,std::less<HWND__ *>,std::allocator<std::pair<HWND__ * const,CWndData> >,0> >::_Parent
  002df	83 c4 04	 add	 esp, 4
  002e2	8b 00		 mov	 eax, DWORD PTR [eax]
  002e4	50		 push	 eax
  002e5	8b 4d f0	 mov	 ecx, DWORD PTR _this$[ebp]
  002e8	e8 00 00 00 00	 call	 ?_Rrotate@?$_Tree@V?$_Tmap_traits@PAUHWND__@@UCWndData@@U?$less@PAUHWND__@@@std@@V?$allocator@U?$pair@QAUHWND__@@UCWndData@@@std@@@4@$0A@@std@@@std@@IAEXPAU_Node@?$_Tree_nod@V?$_Tmap_traits@PAUHWND__@@UCWndData@@U?$less@PAUHWND__@@@std@@V?$allocator@U?$pair@QAUHWND__@@UCWndData@@@std@@@4@$0A@@std@@@2@@Z ; std::_Tree<std::_Tmap_traits<HWND__ *,CWndData,std::less<HWND__ *>,std::allocator<std::pair<HWND__ * const,CWndData> >,0> >::_Rrotate
$L190599:

; 957  : 					}
; 958  : 				}
; 959  : 			else

  002ed	e9 45 01 00 00	 jmp	 $L190601
$L190597:

; 960  : 				{	// fixup red-red in right subtree
; 961  : 				_Wherenode = _Left(_Parent(_Parent(_Pnode)));

  002f2	8b 4d e8	 mov	 ecx, DWORD PTR __Pnode$190593[ebp]
  002f5	51		 push	 ecx
  002f6	e8 00 00 00 00	 call	 ?_Parent@?$_Tree@V?$_Tmap_traits@PAUHWND__@@UCWndData@@U?$less@PAUHWND__@@@std@@V?$allocator@U?$pair@QAUHWND__@@UCWndData@@@std@@@4@$0A@@std@@@std@@KAAAPAU_Node@?$_Tree_nod@V?$_Tmap_traits@PAUHWND__@@UCWndData@@U?$less@PAUHWND__@@@std@@V?$allocator@U?$pair@QAUHWND__@@UCWndData@@@std@@@4@$0A@@std@@@2@PAU342@@Z ; std::_Tree<std::_Tmap_traits<HWND__ *,CWndData,std::less<HWND__ *>,std::allocator<std::pair<HWND__ * const,CWndData> >,0> >::_Parent
  002fb	83 c4 04	 add	 esp, 4
  002fe	8b 10		 mov	 edx, DWORD PTR [eax]
  00300	52		 push	 edx
  00301	e8 00 00 00 00	 call	 ?_Parent@?$_Tree@V?$_Tmap_traits@PAUHWND__@@UCWndData@@U?$less@PAUHWND__@@@std@@V?$allocator@U?$pair@QAUHWND__@@UCWndData@@@std@@@4@$0A@@std@@@std@@KAAAPAU_Node@?$_Tree_nod@V?$_Tmap_traits@PAUHWND__@@UCWndData@@U?$less@PAUHWND__@@@std@@V?$allocator@U?$pair@QAUHWND__@@UCWndData@@@std@@@4@$0A@@std@@@2@PAU342@@Z ; std::_Tree<std::_Tmap_traits<HWND__ *,CWndData,std::less<HWND__ *>,std::allocator<std::pair<HWND__ * const,CWndData> >,0> >::_Parent
  00306	83 c4 04	 add	 esp, 4
  00309	8b 00		 mov	 eax, DWORD PTR [eax]
  0030b	50		 push	 eax
  0030c	e8 00 00 00 00	 call	 ?_Left@?$_Tree@V?$_Tmap_traits@PAUHWND__@@UCWndData@@U?$less@PAUHWND__@@@std@@V?$allocator@U?$pair@QAUHWND__@@UCWndData@@@std@@@4@$0A@@std@@@std@@KAAAPAU_Node@?$_Tree_nod@V?$_Tmap_traits@PAUHWND__@@UCWndData@@U?$less@PAUHWND__@@@std@@V?$allocator@U?$pair@QAUHWND__@@UCWndData@@@std@@@4@$0A@@std@@@2@PAU342@@Z ; std::_Tree<std::_Tmap_traits<HWND__ *,CWndData,std::less<HWND__ *>,std::allocator<std::pair<HWND__ * const,CWndData> >,0> >::_Left
  00311	83 c4 04	 add	 esp, 4
  00314	8b 08		 mov	 ecx, DWORD PTR [eax]
  00316	89 4d 10	 mov	 DWORD PTR __Wherenode$[ebp], ecx

; 962  : 				if (_Color(_Wherenode) == _Red)

  00319	8b 55 10	 mov	 edx, DWORD PTR __Wherenode$[ebp]
  0031c	52		 push	 edx
  0031d	e8 00 00 00 00	 call	 ?_Color@?$_Tree@V?$_Tmap_traits@PAUHWND__@@UCWndData@@U?$less@PAUHWND__@@@std@@V?$allocator@U?$pair@QAUHWND__@@UCWndData@@@std@@@4@$0A@@std@@@std@@KAAADPAU_Node@?$_Tree_nod@V?$_Tmap_traits@PAUHWND__@@UCWndData@@U?$less@PAUHWND__@@@std@@V?$allocator@U?$pair@QAUHWND__@@UCWndData@@@std@@@4@$0A@@std@@@2@@Z ; std::_Tree<std::_Tmap_traits<HWND__ *,CWndData,std::less<HWND__ *>,std::allocator<std::pair<HWND__ * const,CWndData> >,0> >::_Color
  00322	83 c4 04	 add	 esp, 4
  00325	0f be 00	 movsx	 eax, BYTE PTR [eax]
  00328	85 c0		 test	 eax, eax
  0032a	75 6f		 jne	 SHORT $L190602

; 963  : 					{	// parent has two red children, blacken both
; 964  : 					_Color(_Parent(_Pnode)) = _Black;

  0032c	8b 4d e8	 mov	 ecx, DWORD PTR __Pnode$190593[ebp]
  0032f	51		 push	 ecx
  00330	e8 00 00 00 00	 call	 ?_Parent@?$_Tree@V?$_Tmap_traits@PAUHWND__@@UCWndData@@U?$less@PAUHWND__@@@std@@V?$allocator@U?$pair@QAUHWND__@@UCWndData@@@std@@@4@$0A@@std@@@std@@KAAAPAU_Node@?$_Tree_nod@V?$_Tmap_traits@PAUHWND__@@UCWndData@@U?$less@PAUHWND__@@@std@@V?$allocator@U?$pair@QAUHWND__@@UCWndData@@@std@@@4@$0A@@std@@@2@PAU342@@Z ; std::_Tree<std::_Tmap_traits<HWND__ *,CWndData,std::less<HWND__ *>,std::allocator<std::pair<HWND__ * const,CWndData> >,0> >::_Parent
  00335	83 c4 04	 add	 esp, 4
  00338	8b 10		 mov	 edx, DWORD PTR [eax]
  0033a	52		 push	 edx
  0033b	e8 00 00 00 00	 call	 ?_Color@?$_Tree@V?$_Tmap_traits@PAUHWND__@@UCWndData@@U?$less@PAUHWND__@@@std@@V?$allocator@U?$pair@QAUHWND__@@UCWndData@@@std@@@4@$0A@@std@@@std@@KAAADPAU_Node@?$_Tree_nod@V?$_Tmap_traits@PAUHWND__@@UCWndData@@U?$less@PAUHWND__@@@std@@V?$allocator@U?$pair@QAUHWND__@@UCWndData@@@std@@@4@$0A@@std@@@2@@Z ; std::_Tree<std::_Tmap_traits<HWND__ *,CWndData,std::less<HWND__ *>,std::allocator<std::pair<HWND__ * const,CWndData> >,0> >::_Color
  00340	83 c4 04	 add	 esp, 4
  00343	c6 00 01	 mov	 BYTE PTR [eax], 1

; 965  : 					_Color(_Wherenode) = _Black;

  00346	8b 45 10	 mov	 eax, DWORD PTR __Wherenode$[ebp]
  00349	50		 push	 eax
  0034a	e8 00 00 00 00	 call	 ?_Color@?$_Tree@V?$_Tmap_traits@PAUHWND__@@UCWndData@@U?$less@PAUHWND__@@@std@@V?$allocator@U?$pair@QAUHWND__@@UCWndData@@@std@@@4@$0A@@std@@@std@@KAAADPAU_Node@?$_Tree_nod@V?$_Tmap_traits@PAUHWND__@@UCWndData@@U?$less@PAUHWND__@@@std@@V?$allocator@U?$pair@QAUHWND__@@UCWndData@@@std@@@4@$0A@@std@@@2@@Z ; std::_Tree<std::_Tmap_traits<HWND__ *,CWndData,std::less<HWND__ *>,std::allocator<std::pair<HWND__ * const,CWndData> >,0> >::_Color
  0034f	83 c4 04	 add	 esp, 4
  00352	c6 00 01	 mov	 BYTE PTR [eax], 1

; 966  : 					_Color(_Parent(_Parent(_Pnode))) = _Red;

  00355	8b 4d e8	 mov	 ecx, DWORD PTR __Pnode$190593[ebp]
  00358	51		 push	 ecx
  00359	e8 00 00 00 00	 call	 ?_Parent@?$_Tree@V?$_Tmap_traits@PAUHWND__@@UCWndData@@U?$less@PAUHWND__@@@std@@V?$allocator@U?$pair@QAUHWND__@@UCWndData@@@std@@@4@$0A@@std@@@std@@KAAAPAU_Node@?$_Tree_nod@V?$_Tmap_traits@PAUHWND__@@UCWndData@@U?$less@PAUHWND__@@@std@@V?$allocator@U?$pair@QAUHWND__@@UCWndData@@@std@@@4@$0A@@std@@@2@PAU342@@Z ; std::_Tree<std::_Tmap_traits<HWND__ *,CWndData,std::less<HWND__ *>,std::allocator<std::pair<HWND__ * const,CWndData> >,0> >::_Parent
  0035e	83 c4 04	 add	 esp, 4
  00361	8b 10		 mov	 edx, DWORD PTR [eax]
  00363	52		 push	 edx
  00364	e8 00 00 00 00	 call	 ?_Parent@?$_Tree@V?$_Tmap_traits@PAUHWND__@@UCWndData@@U?$less@PAUHWND__@@@std@@V?$allocator@U?$pair@QAUHWND__@@UCWndData@@@std@@@4@$0A@@std@@@std@@KAAAPAU_Node@?$_Tree_nod@V?$_Tmap_traits@PAUHWND__@@UCWndData@@U?$less@PAUHWND__@@@std@@V?$allocator@U?$pair@QAUHWND__@@UCWndData@@@std@@@4@$0A@@std@@@2@PAU342@@Z ; std::_Tree<std::_Tmap_traits<HWND__ *,CWndData,std::less<HWND__ *>,std::allocator<std::pair<HWND__ * const,CWndData> >,0> >::_Parent
  00369	83 c4 04	 add	 esp, 4
  0036c	8b 00		 mov	 eax, DWORD PTR [eax]
  0036e	50		 push	 eax
  0036f	e8 00 00 00 00	 call	 ?_Color@?$_Tree@V?$_Tmap_traits@PAUHWND__@@UCWndData@@U?$less@PAUHWND__@@@std@@V?$allocator@U?$pair@QAUHWND__@@UCWndData@@@std@@@4@$0A@@std@@@std@@KAAADPAU_Node@?$_Tree_nod@V?$_Tmap_traits@PAUHWND__@@UCWndData@@U?$less@PAUHWND__@@@std@@V?$allocator@U?$pair@QAUHWND__@@UCWndData@@@std@@@4@$0A@@std@@@2@@Z ; std::_Tree<std::_Tmap_traits<HWND__ *,CWndData,std::less<HWND__ *>,std::allocator<std::pair<HWND__ * const,CWndData> >,0> >::_Color
  00374	83 c4 04	 add	 esp, 4
  00377	c6 00 00	 mov	 BYTE PTR [eax], 0

; 967  : 					_Pnode = _Parent(_Parent(_Pnode));

  0037a	8b 4d e8	 mov	 ecx, DWORD PTR __Pnode$190593[ebp]
  0037d	51		 push	 ecx
  0037e	e8 00 00 00 00	 call	 ?_Parent@?$_Tree@V?$_Tmap_traits@PAUHWND__@@UCWndData@@U?$less@PAUHWND__@@@std@@V?$allocator@U?$pair@QAUHWND__@@UCWndData@@@std@@@4@$0A@@std@@@std@@KAAAPAU_Node@?$_Tree_nod@V?$_Tmap_traits@PAUHWND__@@UCWndData@@U?$less@PAUHWND__@@@std@@V?$allocator@U?$pair@QAUHWND__@@UCWndData@@@std@@@4@$0A@@std@@@2@PAU342@@Z ; std::_Tree<std::_Tmap_traits<HWND__ *,CWndData,std::less<HWND__ *>,std::allocator<std::pair<HWND__ * const,CWndData> >,0> >::_Parent
  00383	83 c4 04	 add	 esp, 4
  00386	8b 10		 mov	 edx, DWORD PTR [eax]
  00388	52		 push	 edx
  00389	e8 00 00 00 00	 call	 ?_Parent@?$_Tree@V?$_Tmap_traits@PAUHWND__@@UCWndData@@U?$less@PAUHWND__@@@std@@V?$allocator@U?$pair@QAUHWND__@@UCWndData@@@std@@@4@$0A@@std@@@std@@KAAAPAU_Node@?$_Tree_nod@V?$_Tmap_traits@PAUHWND__@@UCWndData@@U?$less@PAUHWND__@@@std@@V?$allocator@U?$pair@QAUHWND__@@UCWndData@@@std@@@4@$0A@@std@@@2@PAU342@@Z ; std::_Tree<std::_Tmap_traits<HWND__ *,CWndData,std::less<HWND__ *>,std::allocator<std::pair<HWND__ * const,CWndData> >,0> >::_Parent
  0038e	83 c4 04	 add	 esp, 4
  00391	8b 00		 mov	 eax, DWORD PTR [eax]
  00393	89 45 e8	 mov	 DWORD PTR __Pnode$190593[ebp], eax

; 968  : 					}
; 969  : 				else

  00396	e9 9c 00 00 00	 jmp	 $L190601
$L190602:

; 970  : 					{	// parent has red and black children
; 971  : 					if (_Pnode == _Left(_Parent(_Pnode)))

  0039b	8b 4d e8	 mov	 ecx, DWORD PTR __Pnode$190593[ebp]
  0039e	51		 push	 ecx
  0039f	e8 00 00 00 00	 call	 ?_Parent@?$_Tree@V?$_Tmap_traits@PAUHWND__@@UCWndData@@U?$less@PAUHWND__@@@std@@V?$allocator@U?$pair@QAUHWND__@@UCWndData@@@std@@@4@$0A@@std@@@std@@KAAAPAU_Node@?$_Tree_nod@V?$_Tmap_traits@PAUHWND__@@UCWndData@@U?$less@PAUHWND__@@@std@@V?$allocator@U?$pair@QAUHWND__@@UCWndData@@@std@@@4@$0A@@std@@@2@PAU342@@Z ; std::_Tree<std::_Tmap_traits<HWND__ *,CWndData,std::less<HWND__ *>,std::allocator<std::pair<HWND__ * const,CWndData> >,0> >::_Parent
  003a4	83 c4 04	 add	 esp, 4
  003a7	8b 10		 mov	 edx, DWORD PTR [eax]
  003a9	52		 push	 edx
  003aa	e8 00 00 00 00	 call	 ?_Left@?$_Tree@V?$_Tmap_traits@PAUHWND__@@UCWndData@@U?$less@PAUHWND__@@@std@@V?$allocator@U?$pair@QAUHWND__@@UCWndData@@@std@@@4@$0A@@std@@@std@@KAAAPAU_Node@?$_Tree_nod@V?$_Tmap_traits@PAUHWND__@@UCWndData@@U?$less@PAUHWND__@@@std@@V?$allocator@U?$pair@QAUHWND__@@UCWndData@@@std@@@4@$0A@@std@@@2@PAU342@@Z ; std::_Tree<std::_Tmap_traits<HWND__ *,CWndData,std::less<HWND__ *>,std::allocator<std::pair<HWND__ * const,CWndData> >,0> >::_Left
  003af	83 c4 04	 add	 esp, 4
  003b2	8b 4d e8	 mov	 ecx, DWORD PTR __Pnode$190593[ebp]
  003b5	3b 08		 cmp	 ecx, DWORD PTR [eax]
  003b7	75 1d		 jne	 SHORT $L190604

; 972  : 						{	// rotate left child to right
; 973  : 						_Pnode = _Parent(_Pnode);

  003b9	8b 55 e8	 mov	 edx, DWORD PTR __Pnode$190593[ebp]
  003bc	52		 push	 edx
  003bd	e8 00 00 00 00	 call	 ?_Parent@?$_Tree@V?$_Tmap_traits@PAUHWND__@@UCWndData@@U?$less@PAUHWND__@@@std@@V?$allocator@U?$pair@QAUHWND__@@UCWndData@@@std@@@4@$0A@@std@@@std@@KAAAPAU_Node@?$_Tree_nod@V?$_Tmap_traits@PAUHWND__@@UCWndData@@U?$less@PAUHWND__@@@std@@V?$allocator@U?$pair@QAUHWND__@@UCWndData@@@std@@@4@$0A@@std@@@2@PAU342@@Z ; std::_Tree<std::_Tmap_traits<HWND__ *,CWndData,std::less<HWND__ *>,std::allocator<std::pair<HWND__ * const,CWndData> >,0> >::_Parent
  003c2	83 c4 04	 add	 esp, 4
  003c5	8b 00		 mov	 eax, DWORD PTR [eax]
  003c7	89 45 e8	 mov	 DWORD PTR __Pnode$190593[ebp], eax

; 974  : 						_Rrotate(_Pnode);

  003ca	8b 4d e8	 mov	 ecx, DWORD PTR __Pnode$190593[ebp]
  003cd	51		 push	 ecx
  003ce	8b 4d f0	 mov	 ecx, DWORD PTR _this$[ebp]
  003d1	e8 00 00 00 00	 call	 ?_Rrotate@?$_Tree@V?$_Tmap_traits@PAUHWND__@@UCWndData@@U?$less@PAUHWND__@@@std@@V?$allocator@U?$pair@QAUHWND__@@UCWndData@@@std@@@4@$0A@@std@@@std@@IAEXPAU_Node@?$_Tree_nod@V?$_Tmap_traits@PAUHWND__@@UCWndData@@U?$less@PAUHWND__@@@std@@V?$allocator@U?$pair@QAUHWND__@@UCWndData@@@std@@@4@$0A@@std@@@2@@Z ; std::_Tree<std::_Tmap_traits<HWND__ *,CWndData,std::less<HWND__ *>,std::allocator<std::pair<HWND__ * const,CWndData> >,0> >::_Rrotate
$L190604:

; 975  : 						}
; 976  : 					_Color(_Parent(_Pnode)) = _Black;	// propagate red up

  003d6	8b 55 e8	 mov	 edx, DWORD PTR __Pnode$190593[ebp]
  003d9	52		 push	 edx
  003da	e8 00 00 00 00	 call	 ?_Parent@?$_Tree@V?$_Tmap_traits@PAUHWND__@@UCWndData@@U?$less@PAUHWND__@@@std@@V?$allocator@U?$pair@QAUHWND__@@UCWndData@@@std@@@4@$0A@@std@@@std@@KAAAPAU_Node@?$_Tree_nod@V?$_Tmap_traits@PAUHWND__@@UCWndData@@U?$less@PAUHWND__@@@std@@V?$allocator@U?$pair@QAUHWND__@@UCWndData@@@std@@@4@$0A@@std@@@2@PAU342@@Z ; std::_Tree<std::_Tmap_traits<HWND__ *,CWndData,std::less<HWND__ *>,std::allocator<std::pair<HWND__ * const,CWndData> >,0> >::_Parent
  003df	83 c4 04	 add	 esp, 4
  003e2	8b 00		 mov	 eax, DWORD PTR [eax]
  003e4	50		 push	 eax
  003e5	e8 00 00 00 00	 call	 ?_Color@?$_Tree@V?$_Tmap_traits@PAUHWND__@@UCWndData@@U?$less@PAUHWND__@@@std@@V?$allocator@U?$pair@QAUHWND__@@UCWndData@@@std@@@4@$0A@@std@@@std@@KAAADPAU_Node@?$_Tree_nod@V?$_Tmap_traits@PAUHWND__@@UCWndData@@U?$less@PAUHWND__@@@std@@V?$allocator@U?$pair@QAUHWND__@@UCWndData@@@std@@@4@$0A@@std@@@2@@Z ; std::_Tree<std::_Tmap_traits<HWND__ *,CWndData,std::less<HWND__ *>,std::allocator<std::pair<HWND__ * const,CWndData> >,0> >::_Color
  003ea	83 c4 04	 add	 esp, 4
  003ed	c6 00 01	 mov	 BYTE PTR [eax], 1

; 977  : 					_Color(_Parent(_Parent(_Pnode))) = _Red;

  003f0	8b 4d e8	 mov	 ecx, DWORD PTR __Pnode$190593[ebp]
  003f3	51		 push	 ecx
  003f4	e8 00 00 00 00	 call	 ?_Parent@?$_Tree@V?$_Tmap_traits@PAUHWND__@@UCWndData@@U?$less@PAUHWND__@@@std@@V?$allocator@U?$pair@QAUHWND__@@UCWndData@@@std@@@4@$0A@@std@@@std@@KAAAPAU_Node@?$_Tree_nod@V?$_Tmap_traits@PAUHWND__@@UCWndData@@U?$less@PAUHWND__@@@std@@V?$allocator@U?$pair@QAUHWND__@@UCWndData@@@std@@@4@$0A@@std@@@2@PAU342@@Z ; std::_Tree<std::_Tmap_traits<HWND__ *,CWndData,std::less<HWND__ *>,std::allocator<std::pair<HWND__ * const,CWndData> >,0> >::_Parent
  003f9	83 c4 04	 add	 esp, 4
  003fc	8b 10		 mov	 edx, DWORD PTR [eax]
  003fe	52		 push	 edx
  003ff	e8 00 00 00 00	 call	 ?_Parent@?$_Tree@V?$_Tmap_traits@PAUHWND__@@UCWndData@@U?$less@PAUHWND__@@@std@@V?$allocator@U?$pair@QAUHWND__@@UCWndData@@@std@@@4@$0A@@std@@@std@@KAAAPAU_Node@?$_Tree_nod@V?$_Tmap_traits@PAUHWND__@@UCWndData@@U?$less@PAUHWND__@@@std@@V?$allocator@U?$pair@QAUHWND__@@UCWndData@@@std@@@4@$0A@@std@@@2@PAU342@@Z ; std::_Tree<std::_Tmap_traits<HWND__ *,CWndData,std::less<HWND__ *>,std::allocator<std::pair<HWND__ * const,CWndData> >,0> >::_Parent
  00404	83 c4 04	 add	 esp, 4
  00407	8b 00		 mov	 eax, DWORD PTR [eax]
  00409	50		 push	 eax
  0040a	e8 00 00 00 00	 call	 ?_Color@?$_Tree@V?$_Tmap_traits@PAUHWND__@@UCWndData@@U?$less@PAUHWND__@@@std@@V?$allocator@U?$pair@QAUHWND__@@UCWndData@@@std@@@4@$0A@@std@@@std@@KAAADPAU_Node@?$_Tree_nod@V?$_Tmap_traits@PAUHWND__@@UCWndData@@U?$less@PAUHWND__@@@std@@V?$allocator@U?$pair@QAUHWND__@@UCWndData@@@std@@@4@$0A@@std@@@2@@Z ; std::_Tree<std::_Tmap_traits<HWND__ *,CWndData,std::less<HWND__ *>,std::allocator<std::pair<HWND__ * const,CWndData> >,0> >::_Color
  0040f	83 c4 04	 add	 esp, 4
  00412	c6 00 00	 mov	 BYTE PTR [eax], 0

; 978  : 					_Lrotate(_Parent(_Parent(_Pnode)));

  00415	8b 4d e8	 mov	 ecx, DWORD PTR __Pnode$190593[ebp]
  00418	51		 push	 ecx
  00419	e8 00 00 00 00	 call	 ?_Parent@?$_Tree@V?$_Tmap_traits@PAUHWND__@@UCWndData@@U?$less@PAUHWND__@@@std@@V?$allocator@U?$pair@QAUHWND__@@UCWndData@@@std@@@4@$0A@@std@@@std@@KAAAPAU_Node@?$_Tree_nod@V?$_Tmap_traits@PAUHWND__@@UCWndData@@U?$less@PAUHWND__@@@std@@V?$allocator@U?$pair@QAUHWND__@@UCWndData@@@std@@@4@$0A@@std@@@2@PAU342@@Z ; std::_Tree<std::_Tmap_traits<HWND__ *,CWndData,std::less<HWND__ *>,std::allocator<std::pair<HWND__ * const,CWndData> >,0> >::_Parent
  0041e	83 c4 04	 add	 esp, 4
  00421	8b 10		 mov	 edx, DWORD PTR [eax]
  00423	52		 push	 edx
  00424	e8 00 00 00 00	 call	 ?_Parent@?$_Tree@V?$_Tmap_traits@PAUHWND__@@UCWndData@@U?$less@PAUHWND__@@@std@@V?$allocator@U?$pair@QAUHWND__@@UCWndData@@@std@@@4@$0A@@std@@@std@@KAAAPAU_Node@?$_Tree_nod@V?$_Tmap_traits@PAUHWND__@@UCWndData@@U?$less@PAUHWND__@@@std@@V?$allocator@U?$pair@QAUHWND__@@UCWndData@@@std@@@4@$0A@@std@@@2@PAU342@@Z ; std::_Tree<std::_Tmap_traits<HWND__ *,CWndData,std::less<HWND__ *>,std::allocator<std::pair<HWND__ * const,CWndData> >,0> >::_Parent
  00429	83 c4 04	 add	 esp, 4
  0042c	8b 00		 mov	 eax, DWORD PTR [eax]
  0042e	50		 push	 eax
  0042f	8b 4d f0	 mov	 ecx, DWORD PTR _this$[ebp]
  00432	e8 00 00 00 00	 call	 ?_Lrotate@?$_Tree@V?$_Tmap_traits@PAUHWND__@@UCWndData@@U?$less@PAUHWND__@@@std@@V?$allocator@U?$pair@QAUHWND__@@UCWndData@@@std@@@4@$0A@@std@@@std@@IAEXPAU_Node@?$_Tree_nod@V?$_Tmap_traits@PAUHWND__@@UCWndData@@U?$less@PAUHWND__@@@std@@V?$allocator@U?$pair@QAUHWND__@@UCWndData@@@std@@@4@$0A@@std@@@2@@Z ; std::_Tree<std::_Tmap_traits<HWND__ *,CWndData,std::less<HWND__ *>,std::allocator<std::pair<HWND__ * const,CWndData> >,0> >::_Lrotate
$L190601:

; 979  : 					}
; 980  : 				}

  00437	e9 10 fd ff ff	 jmp	 $L190595
$L190596:

; 981  : 
; 982  : 		_Color(_Root()) = _Black;	// root is always black

  0043c	8b 4d f0	 mov	 ecx, DWORD PTR _this$[ebp]
  0043f	e8 00 00 00 00	 call	 ?_Root@?$_Tree@V?$_Tmap_traits@PAUHWND__@@UCWndData@@U?$less@PAUHWND__@@@std@@V?$allocator@U?$pair@QAUHWND__@@UCWndData@@@std@@@4@$0A@@std@@@std@@IAEAAPAU_Node@?$_Tree_nod@V?$_Tmap_traits@PAUHWND__@@UCWndData@@U?$less@PAUHWND__@@@std@@V?$allocator@U?$pair@QAUHWND__@@UCWndData@@@std@@@4@$0A@@std@@@2@XZ ; std::_Tree<std::_Tmap_traits<HWND__ *,CWndData,std::less<HWND__ *>,std::allocator<std::pair<HWND__ * const,CWndData> >,0> >::_Root
  00444	8b 08		 mov	 ecx, DWORD PTR [eax]
  00446	51		 push	 ecx
  00447	e8 00 00 00 00	 call	 ?_Color@?$_Tree@V?$_Tmap_traits@PAUHWND__@@UCWndData@@U?$less@PAUHWND__@@@std@@V?$allocator@U?$pair@QAUHWND__@@UCWndData@@@std@@@4@$0A@@std@@@std@@KAAADPAU_Node@?$_Tree_nod@V?$_Tmap_traits@PAUHWND__@@UCWndData@@U?$less@PAUHWND__@@@std@@V?$allocator@U?$pair@QAUHWND__@@UCWndData@@@std@@@4@$0A@@std@@@2@@Z ; std::_Tree<std::_Tmap_traits<HWND__ *,CWndData,std::less<HWND__ *>,std::allocator<std::pair<HWND__ * const,CWndData> >,0> >::_Color
  0044c	83 c4 04	 add	 esp, 4
  0044f	c6 00 01	 mov	 BYTE PTR [eax], 1

; 983  : 		return (_TREE_ITERATOR(_Newnode));

  00452	8b 55 ec	 mov	 edx, DWORD PTR __Newnode$[ebp]
  00455	52		 push	 edx
  00456	8b 4d 08	 mov	 ecx, DWORD PTR ___$ReturnUdt$[ebp]
  00459	e8 00 00 00 00	 call	 ??0iterator@?$_Tree@V?$_Tmap_traits@PAUHWND__@@UCWndData@@U?$less@PAUHWND__@@@std@@V?$allocator@U?$pair@QAUHWND__@@UCWndData@@@std@@@4@$0A@@std@@@std@@QAE@PAU_Node@?$_Tree_nod@V?$_Tmap_traits@PAUHWND__@@UCWndData@@U?$less@PAUHWND__@@@std@@V?$allocator@U?$pair@QAUHWND__@@UCWndData@@@std@@@4@$0A@@std@@@2@@Z ; std::_Tree<std::_Tmap_traits<HWND__ *,CWndData,std::less<HWND__ *>,std::allocator<std::pair<HWND__ * const,CWndData> >,0> >::iterator::iterator
  0045e	8b 45 08	 mov	 eax, DWORD PTR ___$ReturnUdt$[ebp]
$L192429:

; 984  : 		}

  00461	8b 4d f4	 mov	 ecx, DWORD PTR __$EHRec$[ebp]
  00464	64 89 0d 00 00
	00 00		 mov	 DWORD PTR fs:__except_list, ecx
  0046b	5f		 pop	 edi
  0046c	5e		 pop	 esi
  0046d	83 c4 5c	 add	 esp, 92			; 0000005cH
  00470	3b ec		 cmp	 ebp, esp
  00472	e8 00 00 00 00	 call	 __RTC_CheckEsp
  00477	8b e5		 mov	 esp, ebp
  00479	5d		 pop	 ebp
  0047a	c2 10 00	 ret	 16			; 00000010H
_TEXT	ENDS
;	COMDAT text$x
text$x	SEGMENT
$L192433:
  00000	8b f4		 mov	 esi, esp
  00002	8d 4d a4	 lea	 ecx, DWORD PTR $T192431[ebp]
  00005	ff 15 00 00 00
	00		 call	 DWORD PTR __imp_??1?$basic_string@DU?$char_traits@D@std@@V?$allocator@D@2@@std@@QAE@XZ
  0000b	3b f4		 cmp	 esi, esp
  0000d	e9 00 00 00 00	 jmp	 __RTC_CheckEsp
__ehhandler$?_Insert@?$_Tree@V?$_Tmap_traits@PAUHWND__@@UCWndData@@U?$less@PAUHWND__@@@std@@V?$allocator@U?$pair@QAUHWND__@@UCWndData@@@std@@@4@$0A@@std@@@std@@IAE?AViterator@12@_NPAU_Node@?$_Tree_nod@V?$_Tmap_traits@PAUHWND__@@UCWndData@@U?$less@PAUHWND__@@@std@@V?$allocator@U?$pair@QAUHWND__@@UCWndData@@@std@@@4@$0A@@std@@@2@ABU?$pair@QAUHWND__@@UCWndData@@@2@@Z:
  00012	b8 00 00 00 00	 mov	 eax, OFFSET FLAT:$T192435
  00017	e9 00 00 00 00	 jmp	 ___CxxFrameHandler
text$x	ENDS
?_Insert@?$_Tree@V?$_Tmap_traits@PAUHWND__@@UCWndData@@U?$less@PAUHWND__@@@std@@V?$allocator@U?$pair@QAUHWND__@@UCWndData@@@std@@@4@$0A@@std@@@std@@IAE?AViterator@12@_NPAU_Node@?$_Tree_nod@V?$_Tmap_traits@PAUHWND__@@UCWndData@@U?$less@PAUHWND__@@@std@@V?$allocator@U?$pair@QAUHWND__@@UCWndData@@@std@@@4@$0A@@std@@@2@ABU?$pair@QAUHWND__@@UCWndData@@@2@@Z ENDP ; std::_Tree<std::_Tmap_traits<HWND__ *,CWndData,std::less<HWND__ *>,std::allocator<std::pair<HWND__ * const,CWndData> >,0> >::_Insert
PUBLIC	?_Root@?$_Tree@V?$_Tmap_traits@PAUHWND__@@UCWndData@@U?$less@PAUHWND__@@@std@@V?$allocator@U?$pair@QAUHWND__@@UCWndData@@@std@@@4@$0A@@std@@@std@@IBEAAPAU_Node@?$_Tree_nod@V?$_Tmap_traits@PAUHWND__@@UCWndData@@U?$less@PAUHWND__@@@std@@V?$allocator@U?$pair@QAUHWND__@@UCWndData@@@std@@@4@$0A@@std@@@2@XZ ; std::_Tree<std::_Tmap_traits<HWND__ *,CWndData,std::less<HWND__ *>,std::allocator<std::pair<HWND__ * const,CWndData> >,0> >::_Root
; Function compile flags: /Odt /RTCsu
;	COMDAT ?_Lbound@?$_Tree@V?$_Tmap_traits@PAUHWND__@@UCWndData@@U?$less@PAUHWND__@@@std@@V?$allocator@U?$pair@QAUHWND__@@UCWndData@@@std@@@4@$0A@@std@@@std@@IBEPAU_Node@?$_Tree_nod@V?$_Tmap_traits@PAUHWND__@@UCWndData@@U?$less@PAUHWND__@@@std@@V?$allocator@U?$pair@QAUHWND__@@UCWndData@@@std@@@4@$0A@@std@@@2@ABQAUHWND__@@@Z
_TEXT	SEGMENT
__Wherenode$ = -12					; size = 4
__Pnode$ = -8						; size = 4
_this$ = -4						; size = 4
__Keyval$ = 8						; size = 4
?_Lbound@?$_Tree@V?$_Tmap_traits@PAUHWND__@@UCWndData@@U?$less@PAUHWND__@@@std@@V?$allocator@U?$pair@QAUHWND__@@UCWndData@@@std@@@4@$0A@@std@@@std@@IBEPAU_Node@?$_Tree_nod@V?$_Tmap_traits@PAUHWND__@@UCWndData@@U?$less@PAUHWND__@@@std@@V?$allocator@U?$pair@QAUHWND__@@UCWndData@@@std@@@4@$0A@@std@@@2@ABQAUHWND__@@@Z PROC NEAR ; std::_Tree<std::_Tmap_traits<HWND__ *,CWndData,std::less<HWND__ *>,std::allocator<std::pair<HWND__ * const,CWndData> >,0> >::_Lbound, COMDAT
; _this$ = ecx

; 987  : 		{	// find leftmost node not less than _Keyval

  00000	55		 push	 ebp
  00001	8b ec		 mov	 ebp, esp
  00003	83 ec 0c	 sub	 esp, 12			; 0000000cH
  00006	c7 45 f4 cc cc
	cc cc		 mov	 DWORD PTR [ebp-12], -858993460 ; ccccccccH
  0000d	c7 45 f8 cc cc
	cc cc		 mov	 DWORD PTR [ebp-8], -858993460 ; ccccccccH
  00014	c7 45 fc cc cc
	cc cc		 mov	 DWORD PTR [ebp-4], -858993460 ; ccccccccH
  0001b	89 4d fc	 mov	 DWORD PTR _this$[ebp], ecx

; 988  : 		_Nodeptr _Pnode = _Root();

  0001e	8b 4d fc	 mov	 ecx, DWORD PTR _this$[ebp]
  00021	e8 00 00 00 00	 call	 ?_Root@?$_Tree@V?$_Tmap_traits@PAUHWND__@@UCWndData@@U?$less@PAUHWND__@@@std@@V?$allocator@U?$pair@QAUHWND__@@UCWndData@@@std@@@4@$0A@@std@@@std@@IBEAAPAU_Node@?$_Tree_nod@V?$_Tmap_traits@PAUHWND__@@UCWndData@@U?$less@PAUHWND__@@@std@@V?$allocator@U?$pair@QAUHWND__@@UCWndData@@@std@@@4@$0A@@std@@@2@XZ ; std::_Tree<std::_Tmap_traits<HWND__ *,CWndData,std::less<HWND__ *>,std::allocator<std::pair<HWND__ * const,CWndData> >,0> >::_Root
  00026	8b 00		 mov	 eax, DWORD PTR [eax]
  00028	89 45 f8	 mov	 DWORD PTR __Pnode$[ebp], eax

; 989  : 		_Nodeptr _Wherenode = _Myhead;	// end() if search fails

  0002b	8b 4d fc	 mov	 ecx, DWORD PTR _this$[ebp]
  0002e	8b 51 04	 mov	 edx, DWORD PTR [ecx+4]
  00031	89 55 f4	 mov	 DWORD PTR __Wherenode$[ebp], edx
$L190611:

; 990  : 
; 991  : 		while (!_Isnil(_Pnode))

  00034	8b 45 f8	 mov	 eax, DWORD PTR __Pnode$[ebp]
  00037	50		 push	 eax
  00038	e8 00 00 00 00	 call	 ?_Isnil@?$_Tree@V?$_Tmap_traits@PAUHWND__@@UCWndData@@U?$less@PAUHWND__@@@std@@V?$allocator@U?$pair@QAUHWND__@@UCWndData@@@std@@@4@$0A@@std@@@std@@KAAADPAU_Node@?$_Tree_nod@V?$_Tmap_traits@PAUHWND__@@UCWndData@@U?$less@PAUHWND__@@@std@@V?$allocator@U?$pair@QAUHWND__@@UCWndData@@@std@@@4@$0A@@std@@@2@@Z ; std::_Tree<std::_Tmap_traits<HWND__ *,CWndData,std::less<HWND__ *>,std::allocator<std::pair<HWND__ * const,CWndData> >,0> >::_Isnil
  0003d	83 c4 04	 add	 esp, 4
  00040	0f be 08	 movsx	 ecx, BYTE PTR [eax]
  00043	85 c9		 test	 ecx, ecx
  00045	75 4c		 jne	 SHORT $L190612

; 992  : 			if (this->comp(_Key(_Pnode), _Keyval))

  00047	8b 55 08	 mov	 edx, DWORD PTR __Keyval$[ebp]
  0004a	52		 push	 edx
  0004b	8b 45 f8	 mov	 eax, DWORD PTR __Pnode$[ebp]
  0004e	50		 push	 eax
  0004f	e8 00 00 00 00	 call	 ?_Key@?$_Tree@V?$_Tmap_traits@PAUHWND__@@UCWndData@@U?$less@PAUHWND__@@@std@@V?$allocator@U?$pair@QAUHWND__@@UCWndData@@@std@@@4@$0A@@std@@@std@@KAABQAUHWND__@@PAU_Node@?$_Tree_nod@V?$_Tmap_traits@PAUHWND__@@UCWndData@@U?$less@PAUHWND__@@@std@@V?$allocator@U?$pair@QAUHWND__@@UCWndData@@@std@@@4@$0A@@std@@@2@@Z ; std::_Tree<std::_Tmap_traits<HWND__ *,CWndData,std::less<HWND__ *>,std::allocator<std::pair<HWND__ * const,CWndData> >,0> >::_Key
  00054	83 c4 04	 add	 esp, 4
  00057	50		 push	 eax
  00058	8b 4d fc	 mov	 ecx, DWORD PTR _this$[ebp]
  0005b	e8 00 00 00 00	 call	 ??R?$less@PAUHWND__@@@std@@QBE_NABQAUHWND__@@0@Z ; std::less<HWND__ *>::operator()
  00060	0f b6 c8	 movzx	 ecx, al
  00063	85 c9		 test	 ecx, ecx
  00065	74 13		 je	 SHORT $L190613

; 993  : 				_Pnode = _Right(_Pnode);	// descend right subtree

  00067	8b 55 f8	 mov	 edx, DWORD PTR __Pnode$[ebp]
  0006a	52		 push	 edx
  0006b	e8 00 00 00 00	 call	 ?_Right@?$_Tree@V?$_Tmap_traits@PAUHWND__@@UCWndData@@U?$less@PAUHWND__@@@std@@V?$allocator@U?$pair@QAUHWND__@@UCWndData@@@std@@@4@$0A@@std@@@std@@KAAAPAU_Node@?$_Tree_nod@V?$_Tmap_traits@PAUHWND__@@UCWndData@@U?$less@PAUHWND__@@@std@@V?$allocator@U?$pair@QAUHWND__@@UCWndData@@@std@@@4@$0A@@std@@@2@PAU342@@Z ; std::_Tree<std::_Tmap_traits<HWND__ *,CWndData,std::less<HWND__ *>,std::allocator<std::pair<HWND__ * const,CWndData> >,0> >::_Right
  00070	83 c4 04	 add	 esp, 4
  00073	8b 00		 mov	 eax, DWORD PTR [eax]
  00075	89 45 f8	 mov	 DWORD PTR __Pnode$[ebp], eax

; 994  : 			else

  00078	eb 17		 jmp	 SHORT $L190614
$L190613:

; 995  : 				{	// _Pnode not less than _Keyval, remember it
; 996  : 				_Wherenode = _Pnode;

  0007a	8b 4d f8	 mov	 ecx, DWORD PTR __Pnode$[ebp]
  0007d	89 4d f4	 mov	 DWORD PTR __Wherenode$[ebp], ecx

; 997  : 				_Pnode = _Left(_Pnode);	// descend left subtree

  00080	8b 55 f8	 mov	 edx, DWORD PTR __Pnode$[ebp]
  00083	52		 push	 edx
  00084	e8 00 00 00 00	 call	 ?_Left@?$_Tree@V?$_Tmap_traits@PAUHWND__@@UCWndData@@U?$less@PAUHWND__@@@std@@V?$allocator@U?$pair@QAUHWND__@@UCWndData@@@std@@@4@$0A@@std@@@std@@KAAAPAU_Node@?$_Tree_nod@V?$_Tmap_traits@PAUHWND__@@UCWndData@@U?$less@PAUHWND__@@@std@@V?$allocator@U?$pair@QAUHWND__@@UCWndData@@@std@@@4@$0A@@std@@@2@PAU342@@Z ; std::_Tree<std::_Tmap_traits<HWND__ *,CWndData,std::less<HWND__ *>,std::allocator<std::pair<HWND__ * const,CWndData> >,0> >::_Left
  00089	83 c4 04	 add	 esp, 4
  0008c	8b 00		 mov	 eax, DWORD PTR [eax]
  0008e	89 45 f8	 mov	 DWORD PTR __Pnode$[ebp], eax
$L190614:

; 998  : 				}

  00091	eb a1		 jmp	 SHORT $L190611
$L190612:

; 999  : 
; 1000 : 		return (_Wherenode);	// return best remembered candidate

  00093	8b 45 f4	 mov	 eax, DWORD PTR __Wherenode$[ebp]

; 1001 : 		}

  00096	83 c4 0c	 add	 esp, 12			; 0000000cH
  00099	3b ec		 cmp	 ebp, esp
  0009b	e8 00 00 00 00	 call	 __RTC_CheckEsp
  000a0	8b e5		 mov	 esp, ebp
  000a2	5d		 pop	 ebp
  000a3	c2 04 00	 ret	 4
?_Lbound@?$_Tree@V?$_Tmap_traits@PAUHWND__@@UCWndData@@U?$less@PAUHWND__@@@std@@V?$allocator@U?$pair@QAUHWND__@@UCWndData@@@std@@@4@$0A@@std@@@std@@IBEPAU_Node@?$_Tree_nod@V?$_Tmap_traits@PAUHWND__@@UCWndData@@U?$less@PAUHWND__@@@std@@V?$allocator@U?$pair@QAUHWND__@@UCWndData@@@std@@@4@$0A@@std@@@2@ABQAUHWND__@@@Z ENDP ; std::_Tree<std::_Tmap_traits<HWND__ *,CWndData,std::less<HWND__ *>,std::allocator<std::pair<HWND__ * const,CWndData> >,0> >::_Lbound
; Function compile flags: /Odt /RTCsu
_TEXT	ENDS
;	COMDAT ?_Rmost@?$_Tree@V?$_Tmap_traits@PAUHWND__@@UCWndData@@U?$less@PAUHWND__@@@std@@V?$allocator@U?$pair@QAUHWND__@@UCWndData@@@std@@@4@$0A@@std@@@std@@IAEAAPAU_Node@?$_Tree_nod@V?$_Tmap_traits@PAUHWND__@@UCWndData@@U?$less@PAUHWND__@@@std@@V?$allocator@U?$pair@QAUHWND__@@UCWndData@@@std@@@4@$0A@@std@@@2@XZ
_TEXT	SEGMENT
_this$ = -4						; size = 4
?_Rmost@?$_Tree@V?$_Tmap_traits@PAUHWND__@@UCWndData@@U?$less@PAUHWND__@@@std@@V?$allocator@U?$pair@QAUHWND__@@UCWndData@@@std@@@4@$0A@@std@@@std@@IAEAAPAU_Node@?$_Tree_nod@V?$_Tmap_traits@PAUHWND__@@UCWndData@@U?$less@PAUHWND__@@@std@@V?$allocator@U?$pair@QAUHWND__@@UCWndData@@@std@@@4@$0A@@std@@@2@XZ PROC NEAR ; std::_Tree<std::_Tmap_traits<HWND__ *,CWndData,std::less<HWND__ *>,std::allocator<std::pair<HWND__ * const,CWndData> >,0> >::_Rmost, COMDAT
; _this$ = ecx

; 1048 : 		{	// return rightmost node in mutable tree

  00000	55		 push	 ebp
  00001	8b ec		 mov	 ebp, esp
  00003	51		 push	 ecx
  00004	c7 45 fc cc cc
	cc cc		 mov	 DWORD PTR [ebp-4], -858993460 ; ccccccccH
  0000b	89 4d fc	 mov	 DWORD PTR _this$[ebp], ecx

; 1049 : 		return (_Right(_Myhead));

  0000e	8b 45 fc	 mov	 eax, DWORD PTR _this$[ebp]
  00011	8b 48 04	 mov	 ecx, DWORD PTR [eax+4]
  00014	51		 push	 ecx
  00015	e8 00 00 00 00	 call	 ?_Right@?$_Tree@V?$_Tmap_traits@PAUHWND__@@UCWndData@@U?$less@PAUHWND__@@@std@@V?$allocator@U?$pair@QAUHWND__@@UCWndData@@@std@@@4@$0A@@std@@@std@@KAAAPAU_Node@?$_Tree_nod@V?$_Tmap_traits@PAUHWND__@@UCWndData@@U?$less@PAUHWND__@@@std@@V?$allocator@U?$pair@QAUHWND__@@UCWndData@@@std@@@4@$0A@@std@@@2@PAU342@@Z ; std::_Tree<std::_Tmap_traits<HWND__ *,CWndData,std::less<HWND__ *>,std::allocator<std::pair<HWND__ * const,CWndData> >,0> >::_Right
  0001a	83 c4 04	 add	 esp, 4

; 1050 : 		}

  0001d	83 c4 04	 add	 esp, 4
  00020	3b ec		 cmp	 ebp, esp
  00022	e8 00 00 00 00	 call	 __RTC_CheckEsp
  00027	8b e5		 mov	 esp, ebp
  00029	5d		 pop	 ebp
  0002a	c3		 ret	 0
?_Rmost@?$_Tree@V?$_Tmap_traits@PAUHWND__@@UCWndData@@U?$less@PAUHWND__@@@std@@V?$allocator@U?$pair@QAUHWND__@@UCWndData@@@std@@@4@$0A@@std@@@std@@IAEAAPAU_Node@?$_Tree_nod@V?$_Tmap_traits@PAUHWND__@@UCWndData@@U?$less@PAUHWND__@@@std@@V?$allocator@U?$pair@QAUHWND__@@UCWndData@@@std@@@4@$0A@@std@@@2@XZ ENDP ; std::_Tree<std::_Tmap_traits<HWND__ *,CWndData,std::less<HWND__ *>,std::allocator<std::pair<HWND__ * const,CWndData> >,0> >::_Rmost
_TEXT	ENDS
PUBLIC	??0?$_Tree_ptr@V?$_Tmap_traits@PAUHWND__@@UCWndData@@U?$less@PAUHWND__@@@std@@V?$allocator@U?$pair@QAUHWND__@@UCWndData@@@std@@@4@$0A@@std@@@std@@IAE@ABU?$less@PAUHWND__@@@1@V?$allocator@U?$pair@QAUHWND__@@UCWndData@@@std@@@1@@Z ; std::_Tree_ptr<std::_Tmap_traits<HWND__ *,CWndData,std::less<HWND__ *>,std::allocator<std::pair<HWND__ * const,CWndData> >,0> >::_Tree_ptr<std::_Tmap_traits<HWND__ *,CWndData,std::less<HWND__ *>,std::allocator<std::pair<HWND__ * const,CWndData> >,0> >
; Function compile flags: /Odt /RTCsu
;	COMDAT ??0?$_Tree_val@V?$_Tmap_traits@PAUHWND__@@UCWndData@@U?$less@PAUHWND__@@@std@@V?$allocator@U?$pair@QAUHWND__@@UCWndData@@@std@@@4@$0A@@std@@@std@@IAE@ABU?$less@PAUHWND__@@@1@V?$allocator@U?$pair@QAUHWND__@@UCWndData@@@std@@@1@@Z
_TEXT	SEGMENT
_this$ = -4						; size = 4
__Parg$ = 8						; size = 4
__Al$ = 12						; size = 1
??0?$_Tree_val@V?$_Tmap_traits@PAUHWND__@@UCWndData@@U?$less@PAUHWND__@@@std@@V?$allocator@U?$pair@QAUHWND__@@UCWndData@@@std@@@4@$0A@@std@@@std@@IAE@ABU?$less@PAUHWND__@@@1@V?$allocator@U?$pair@QAUHWND__@@UCWndData@@@std@@@1@@Z PROC NEAR ; std::_Tree_val<std::_Tmap_traits<HWND__ *,CWndData,std::less<HWND__ *>,std::allocator<std::pair<HWND__ * const,CWndData> >,0> >::_Tree_val<std::_Tmap_traits<HWND__ *,CWndData,std::less<HWND__ *>,std::allocator<std::pair<HWND__ * const,CWndData> >,0> >, COMDAT
; _this$ = ecx

; 95   : 		{	// construct base, and allocator from _Al

  00000	55		 push	 ebp
  00001	8b ec		 mov	 ebp, esp
  00003	83 ec 08	 sub	 esp, 8
  00006	c7 45 f8 cc cc
	cc cc		 mov	 DWORD PTR [ebp-8], -858993460 ; ccccccccH
  0000d	c7 45 fc cc cc
	cc cc		 mov	 DWORD PTR [ebp-4], -858993460 ; ccccccccH
  00014	89 4d fc	 mov	 DWORD PTR _this$[ebp], ecx
  00017	51		 push	 ecx
  00018	8b cc		 mov	 ecx, esp
  0001a	8d 45 0c	 lea	 eax, DWORD PTR __Al$[ebp]
  0001d	50		 push	 eax
  0001e	e8 00 00 00 00	 call	 ??0?$allocator@U?$pair@QAUHWND__@@UCWndData@@@std@@@std@@QAE@ABV01@@Z ; std::allocator<std::pair<HWND__ * const,CWndData> >::allocator<std::pair<HWND__ * const,CWndData> >
  00023	8b 4d 08	 mov	 ecx, DWORD PTR __Parg$[ebp]
  00026	51		 push	 ecx
  00027	8b 4d fc	 mov	 ecx, DWORD PTR _this$[ebp]
  0002a	e8 00 00 00 00	 call	 ??0?$_Tree_ptr@V?$_Tmap_traits@PAUHWND__@@UCWndData@@U?$less@PAUHWND__@@@std@@V?$allocator@U?$pair@QAUHWND__@@UCWndData@@@std@@@4@$0A@@std@@@std@@IAE@ABU?$less@PAUHWND__@@@1@V?$allocator@U?$pair@QAUHWND__@@UCWndData@@@std@@@1@@Z ; std::_Tree_ptr<std::_Tmap_traits<HWND__ *,CWndData,std::less<HWND__ *>,std::allocator<std::pair<HWND__ * const,CWndData> >,0> >::_Tree_ptr<std::_Tmap_traits<HWND__ *,CWndData,std::less<HWND__ *>,std::allocator<std::pair<HWND__ * const,CWndData> >,0> >
  0002f	8d 55 0c	 lea	 edx, DWORD PTR __Al$[ebp]
  00032	52		 push	 edx
  00033	8b 4d fc	 mov	 ecx, DWORD PTR _this$[ebp]
  00036	83 c1 03	 add	 ecx, 3
  00039	e8 00 00 00 00	 call	 ??0?$allocator@U?$pair@QAUHWND__@@UCWndData@@@std@@@std@@QAE@ABV01@@Z ; std::allocator<std::pair<HWND__ * const,CWndData> >::allocator<std::pair<HWND__ * const,CWndData> >

; 96   : 		}

  0003e	8b 45 fc	 mov	 eax, DWORD PTR _this$[ebp]
  00041	83 c4 08	 add	 esp, 8
  00044	3b ec		 cmp	 ebp, esp
  00046	e8 00 00 00 00	 call	 __RTC_CheckEsp
  0004b	8b e5		 mov	 esp, ebp
  0004d	5d		 pop	 ebp
  0004e	c2 08 00	 ret	 8
??0?$_Tree_val@V?$_Tmap_traits@PAUHWND__@@UCWndData@@U?$less@PAUHWND__@@@std@@V?$allocator@U?$pair@QAUHWND__@@UCWndData@@@std@@@4@$0A@@std@@@std@@IAE@ABU?$less@PAUHWND__@@@1@V?$allocator@U?$pair@QAUHWND__@@UCWndData@@@std@@@1@@Z ENDP ; std::_Tree_val<std::_Tmap_traits<HWND__ *,CWndData,std::less<HWND__ *>,std::allocator<std::pair<HWND__ * const,CWndData> >,0> >::_Tree_val<std::_Tmap_traits<HWND__ *,CWndData,std::less<HWND__ *>,std::allocator<std::pair<HWND__ * const,CWndData> >,0> >
; Function compile flags: /Odt /RTCsu
; File d:\program files (x86)\microsoft visual studio .net 2003\vc7\include\map
_TEXT	ENDS
;	COMDAT ?_Kfn@?$_Tmap_traits@PAUHWND__@@UCWndData@@U?$less@PAUHWND__@@@std@@V?$allocator@U?$pair@QAUHWND__@@UCWndData@@@std@@@4@$0A@@std@@SAABQAUHWND__@@ABU?$pair@QAUHWND__@@UCWndData@@@2@@Z
_TEXT	SEGMENT
__Val$ = 8						; size = 4
?_Kfn@?$_Tmap_traits@PAUHWND__@@UCWndData@@U?$less@PAUHWND__@@@std@@V?$allocator@U?$pair@QAUHWND__@@UCWndData@@@std@@@4@$0A@@std@@SAABQAUHWND__@@ABU?$pair@QAUHWND__@@UCWndData@@@2@@Z PROC NEAR ; std::_Tmap_traits<HWND__ *,CWndData,std::less<HWND__ *>,std::allocator<std::pair<HWND__ * const,CWndData> >,0>::_Kfn, COMDAT

; 63   : 		{	// extract key from element value

  00000	55		 push	 ebp
  00001	8b ec		 mov	 ebp, esp

; 64   : 		return (_Val.first);

  00003	8b 45 08	 mov	 eax, DWORD PTR __Val$[ebp]

; 65   : 		}

  00006	5d		 pop	 ebp
  00007	c3		 ret	 0
?_Kfn@?$_Tmap_traits@PAUHWND__@@UCWndData@@U?$less@PAUHWND__@@@std@@V?$allocator@U?$pair@QAUHWND__@@UCWndData@@@std@@@4@$0A@@std@@SAABQAUHWND__@@ABU?$pair@QAUHWND__@@UCWndData@@@2@@Z ENDP ; std::_Tmap_traits<HWND__ *,CWndData,std::less<HWND__ *>,std::allocator<std::pair<HWND__ * const,CWndData> >,0>::_Kfn
; Function compile flags: /Odt /RTCsu
; File d:\program files (x86)\microsoft visual studio .net 2003\vc7\include\xmemory
_TEXT	ENDS
;	COMDAT ??0?$allocator@U?$pair@QAUHWND__@@UCWndData@@@std@@@std@@QAE@ABV01@@Z
_TEXT	SEGMENT
_this$ = -4						; size = 4
___formal$ = 8						; size = 4
??0?$allocator@U?$pair@QAUHWND__@@UCWndData@@@std@@@std@@QAE@ABV01@@Z PROC NEAR ; std::allocator<std::pair<HWND__ * const,CWndData> >::allocator<std::pair<HWND__ * const,CWndData> >, COMDAT
; _this$ = ecx

; 115  : 	allocator(const allocator<_Ty>&)

  00000	55		 push	 ebp
  00001	8b ec		 mov	 ebp, esp
  00003	51		 push	 ecx
  00004	c7 45 fc cc cc
	cc cc		 mov	 DWORD PTR [ebp-4], -858993460 ; ccccccccH
  0000b	89 4d fc	 mov	 DWORD PTR _this$[ebp], ecx

; 116  : 		{	// construct by copying (do nothing)
; 117  : 		}

  0000e	8b 45 fc	 mov	 eax, DWORD PTR _this$[ebp]
  00011	8b e5		 mov	 esp, ebp
  00013	5d		 pop	 ebp
  00014	c2 04 00	 ret	 4
??0?$allocator@U?$pair@QAUHWND__@@UCWndData@@@std@@@std@@QAE@ABV01@@Z ENDP ; std::allocator<std::pair<HWND__ * const,CWndData> >::allocator<std::pair<HWND__ * const,CWndData> >
; Function compile flags: /Odt /RTCsu
_TEXT	ENDS
;	COMDAT ?deallocate@?$allocator@U_Node@?$_Tree_nod@V?$_Tmap_traits@PAUHWND__@@UCWndData@@U?$less@PAUHWND__@@@std@@V?$allocator@U?$pair@QAUHWND__@@UCWndData@@@std@@@4@$0A@@std@@@std@@@std@@QAEXPAU_Node@?$_Tree_nod@V?$_Tmap_traits@PAUHWND__@@UCWndData@@U?$less@PAUHWND__@@@std@@V?$allocator@U?$pair@QAUHWND__@@UCWndData@@@std@@@4@$0A@@std@@@2@I@Z
_TEXT	SEGMENT
_this$ = -4						; size = 4
__Ptr$ = 8						; size = 4
___formal$ = 12						; size = 4
?deallocate@?$allocator@U_Node@?$_Tree_nod@V?$_Tmap_traits@PAUHWND__@@UCWndData@@U?$less@PAUHWND__@@@std@@V?$allocator@U?$pair@QAUHWND__@@UCWndData@@@std@@@4@$0A@@std@@@std@@@std@@QAEXPAU_Node@?$_Tree_nod@V?$_Tmap_traits@PAUHWND__@@UCWndData@@U?$less@PAUHWND__@@@std@@V?$allocator@U?$pair@QAUHWND__@@UCWndData@@@std@@@4@$0A@@std@@@2@I@Z PROC NEAR ; std::allocator<std::_Tree_nod<std::_Tmap_traits<HWND__ *,CWndData,std::less<HWND__ *>,std::allocator<std::pair<HWND__ * const,CWndData> >,0> >::_Node>::deallocate, COMDAT
; _this$ = ecx

; 131  : 		{	// deallocate object at _Ptr, ignore size

  00000	55		 push	 ebp
  00001	8b ec		 mov	 ebp, esp
  00003	51		 push	 ecx
  00004	c7 45 fc cc cc
	cc cc		 mov	 DWORD PTR [ebp-4], -858993460 ; ccccccccH
  0000b	89 4d fc	 mov	 DWORD PTR _this$[ebp], ecx

; 132  : 		operator delete(_Ptr);

  0000e	8b 45 08	 mov	 eax, DWORD PTR __Ptr$[ebp]
  00011	50		 push	 eax
  00012	e8 00 00 00 00	 call	 ??3@YAXPAX@Z		; operator delete
  00017	83 c4 04	 add	 esp, 4

; 133  : 		}

  0001a	83 c4 04	 add	 esp, 4
  0001d	3b ec		 cmp	 ebp, esp
  0001f	e8 00 00 00 00	 call	 __RTC_CheckEsp
  00024	8b e5		 mov	 esp, ebp
  00026	5d		 pop	 ebp
  00027	c2 08 00	 ret	 8
?deallocate@?$allocator@U_Node@?$_Tree_nod@V?$_Tmap_traits@PAUHWND__@@UCWndData@@U?$less@PAUHWND__@@@std@@V?$allocator@U?$pair@QAUHWND__@@UCWndData@@@std@@@4@$0A@@std@@@std@@@std@@QAEXPAU_Node@?$_Tree_nod@V?$_Tmap_traits@PAUHWND__@@UCWndData@@U?$less@PAUHWND__@@@std@@V?$allocator@U?$pair@QAUHWND__@@UCWndData@@@std@@@4@$0A@@std@@@2@I@Z ENDP ; std::allocator<std::_Tree_nod<std::_Tmap_traits<HWND__ *,CWndData,std::less<HWND__ *>,std::allocator<std::pair<HWND__ * const,CWndData> >,0> >::_Node>::deallocate
_TEXT	ENDS
PUBLIC	??$_Destroy@PAU_Node@?$_Tree_nod@V?$_Tmap_traits@PAUHWND__@@UCWndData@@U?$less@PAUHWND__@@@std@@V?$allocator@U?$pair@QAUHWND__@@UCWndData@@@std@@@4@$0A@@std@@@std@@@std@@YAXPAPAU_Node@?$_Tree_nod@V?$_Tmap_traits@PAUHWND__@@UCWndData@@U?$less@PAUHWND__@@@std@@V?$allocator@U?$pair@QAUHWND__@@UCWndData@@@std@@@4@$0A@@std@@@0@@Z ; std::_Destroy<std::_Tree_nod<std::_Tmap_traits<HWND__ *,CWndData,std::less<HWND__ *>,std::allocator<std::pair<HWND__ * const,CWndData> >,0> >::_Node *>
; Function compile flags: /Odt /RTCsu
;	COMDAT ?destroy@?$allocator@PAU_Node@?$_Tree_nod@V?$_Tmap_traits@PAUHWND__@@UCWndData@@U?$less@PAUHWND__@@@std@@V?$allocator@U?$pair@QAUHWND__@@UCWndData@@@std@@@4@$0A@@std@@@std@@@std@@QAEXPAPAU_Node@?$_Tree_nod@V?$_Tmap_traits@PAUHWND__@@UCWndData@@U?$less@PAUHWND__@@@std@@V?$allocator@U?$pair@QAUHWND__@@UCWndData@@@std@@@4@$0A@@std@@@2@@Z
_TEXT	SEGMENT
_this$ = -4						; size = 4
__Ptr$ = 8						; size = 4
?destroy@?$allocator@PAU_Node@?$_Tree_nod@V?$_Tmap_traits@PAUHWND__@@UCWndData@@U?$less@PAUHWND__@@@std@@V?$allocator@U?$pair@QAUHWND__@@UCWndData@@@std@@@4@$0A@@std@@@std@@@std@@QAEXPAPAU_Node@?$_Tree_nod@V?$_Tmap_traits@PAUHWND__@@UCWndData@@U?$less@PAUHWND__@@@std@@V?$allocator@U?$pair@QAUHWND__@@UCWndData@@@std@@@4@$0A@@std@@@2@@Z PROC NEAR ; std::allocator<std::_Tree_nod<std::_Tmap_traits<HWND__ *,CWndData,std::less<HWND__ *>,std::allocator<std::pair<HWND__ * const,CWndData> >,0> >::_Node *>::destroy, COMDAT
; _this$ = ecx

; 151  : 		{	// destroy object at _Ptr

  00000	55		 push	 ebp
  00001	8b ec		 mov	 ebp, esp
  00003	51		 push	 ecx
  00004	c7 45 fc cc cc
	cc cc		 mov	 DWORD PTR [ebp-4], -858993460 ; ccccccccH
  0000b	89 4d fc	 mov	 DWORD PTR _this$[ebp], ecx

; 152  : 		_Destroy(_Ptr);

  0000e	8b 45 08	 mov	 eax, DWORD PTR __Ptr$[ebp]
  00011	50		 push	 eax
  00012	e8 00 00 00 00	 call	 ??$_Destroy@PAU_Node@?$_Tree_nod@V?$_Tmap_traits@PAUHWND__@@UCWndData@@U?$less@PAUHWND__@@@std@@V?$allocator@U?$pair@QAUHWND__@@UCWndData@@@std@@@4@$0A@@std@@@std@@@std@@YAXPAPAU_Node@?$_Tree_nod@V?$_Tmap_traits@PAUHWND__@@UCWndData@@U?$less@PAUHWND__@@@std@@V?$allocator@U?$pair@QAUHWND__@@UCWndData@@@std@@@4@$0A@@std@@@0@@Z ; std::_Destroy<std::_Tree_nod<std::_Tmap_traits<HWND__ *,CWndData,std::less<HWND__ *>,std::allocator<std::pair<HWND__ * const,CWndData> >,0> >::_Node *>
  00017	83 c4 04	 add	 esp, 4

; 153  : 		}

  0001a	83 c4 04	 add	 esp, 4
  0001d	3b ec		 cmp	 ebp, esp
  0001f	e8 00 00 00 00	 call	 __RTC_CheckEsp
  00024	8b e5		 mov	 esp, ebp
  00026	5d		 pop	 ebp
  00027	c2 04 00	 ret	 4
?destroy@?$allocator@PAU_Node@?$_Tree_nod@V?$_Tmap_traits@PAUHWND__@@UCWndData@@U?$less@PAUHWND__@@@std@@V?$allocator@U?$pair@QAUHWND__@@UCWndData@@@std@@@4@$0A@@std@@@std@@@std@@QAEXPAPAU_Node@?$_Tree_nod@V?$_Tmap_traits@PAUHWND__@@UCWndData@@U?$less@PAUHWND__@@@std@@V?$allocator@U?$pair@QAUHWND__@@UCWndData@@@std@@@4@$0A@@std@@@2@@Z ENDP ; std::allocator<std::_Tree_nod<std::_Tmap_traits<HWND__ *,CWndData,std::less<HWND__ *>,std::allocator<std::pair<HWND__ * const,CWndData> >,0> >::_Node *>::destroy
_TEXT	ENDS
PUBLIC	?max_size@?$allocator@PAVCHostWnd@@@std@@QBEIXZ	; std::allocator<CHostWnd *>::max_size
; Function compile flags: /Odt /RTCsu
; File d:\program files (x86)\microsoft visual studio .net 2003\vc7\include\vector
;	COMDAT ?max_size@?$vector@PAVCHostWnd@@V?$allocator@PAVCHostWnd@@@std@@@std@@QBEIXZ
_TEXT	SEGMENT
_this$ = -4						; size = 4
?max_size@?$vector@PAVCHostWnd@@V?$allocator@PAVCHostWnd@@@std@@@std@@QBEIXZ PROC NEAR ; std::vector<CHostWnd *,std::allocator<CHostWnd *> >::max_size, COMDAT
; _this$ = ecx

; 520  : 		{	// return maximum possible length of sequence

  00000	55		 push	 ebp
  00001	8b ec		 mov	 ebp, esp
  00003	51		 push	 ecx
  00004	c7 45 fc cc cc
	cc cc		 mov	 DWORD PTR [ebp-4], -858993460 ; ccccccccH
  0000b	89 4d fc	 mov	 DWORD PTR _this$[ebp], ecx

; 521  : 		return (this->_Alval.max_size());

  0000e	8b 4d fc	 mov	 ecx, DWORD PTR _this$[ebp]
  00011	e8 00 00 00 00	 call	 ?max_size@?$allocator@PAVCHostWnd@@@std@@QBEIXZ ; std::allocator<CHostWnd *>::max_size

; 522  : 		}

  00016	83 c4 04	 add	 esp, 4
  00019	3b ec		 cmp	 ebp, esp
  0001b	e8 00 00 00 00	 call	 __RTC_CheckEsp
  00020	8b e5		 mov	 esp, ebp
  00022	5d		 pop	 ebp
  00023	c3		 ret	 0
?max_size@?$vector@PAVCHostWnd@@V?$allocator@PAVCHostWnd@@@std@@@std@@QBEIXZ ENDP ; std::vector<CHostWnd *,std::allocator<CHostWnd *> >::max_size
_TEXT	ENDS
PUBLIC	??$_Destroy_range@PAVCHostWnd@@V?$allocator@PAVCHostWnd@@@std@@@std@@YAXPAPAVCHostWnd@@0AAV?$allocator@PAVCHostWnd@@@0@@Z ; std::_Destroy_range<CHostWnd *,std::allocator<CHostWnd *> >
; Function compile flags: /Odt /RTCsu
;	COMDAT ?_Destroy@?$vector@PAVCHostWnd@@V?$allocator@PAVCHostWnd@@@std@@@std@@IAEXPAPAVCHostWnd@@0@Z
_TEXT	SEGMENT
_this$ = -4						; size = 4
__First$ = 8						; size = 4
__Last$ = 12						; size = 4
?_Destroy@?$vector@PAVCHostWnd@@V?$allocator@PAVCHostWnd@@@std@@@std@@IAEXPAPAVCHostWnd@@0@Z PROC NEAR ; std::vector<CHostWnd *,std::allocator<CHostWnd *> >::_Destroy, COMDAT
; _this$ = ecx

; 786  : 		{	// destroy [_First, _Last) using allocator

  00000	55		 push	 ebp
  00001	8b ec		 mov	 ebp, esp
  00003	51		 push	 ecx
  00004	c7 45 fc cc cc
	cc cc		 mov	 DWORD PTR [ebp-4], -858993460 ; ccccccccH
  0000b	89 4d fc	 mov	 DWORD PTR _this$[ebp], ecx

; 787  : 		_Destroy_range(_First, _Last, this->_Alval);

  0000e	8b 45 fc	 mov	 eax, DWORD PTR _this$[ebp]
  00011	50		 push	 eax
  00012	8b 4d 0c	 mov	 ecx, DWORD PTR __Last$[ebp]
  00015	51		 push	 ecx
  00016	8b 55 08	 mov	 edx, DWORD PTR __First$[ebp]
  00019	52		 push	 edx
  0001a	e8 00 00 00 00	 call	 ??$_Destroy_range@PAVCHostWnd@@V?$allocator@PAVCHostWnd@@@std@@@std@@YAXPAPAVCHostWnd@@0AAV?$allocator@PAVCHostWnd@@@0@@Z ; std::_Destroy_range<CHostWnd *,std::allocator<CHostWnd *> >
  0001f	83 c4 0c	 add	 esp, 12			; 0000000cH

; 788  : 		}

  00022	83 c4 04	 add	 esp, 4
  00025	3b ec		 cmp	 ebp, esp
  00027	e8 00 00 00 00	 call	 __RTC_CheckEsp
  0002c	8b e5		 mov	 esp, ebp
  0002e	5d		 pop	 ebp
  0002f	c2 08 00	 ret	 8
?_Destroy@?$vector@PAVCHostWnd@@V?$allocator@PAVCHostWnd@@@std@@@std@@IAEXPAPAVCHostWnd@@0@Z ENDP ; std::vector<CHostWnd *,std::allocator<CHostWnd *> >::_Destroy
_TEXT	ENDS
PUBLIC	??$_Ucopy@PAPAVCHostWnd@@@?$vector@PAVCHostWnd@@V?$allocator@PAVCHostWnd@@@std@@@std@@IAEPAPAVCHostWnd@@PAPAV2@00@Z ; std::vector<CHostWnd *,std::allocator<CHostWnd *> >::_Ucopy<CHostWnd * *>
PUBLIC	??$fill@PAPAVCHostWnd@@PAV1@@std@@YAXPAPAVCHostWnd@@0ABQAV1@@Z ; std::fill<CHostWnd * *,CHostWnd *>
PUBLIC	??$copy_backward@PAPAVCHostWnd@@PAPAV1@@std@@YAPAPAVCHostWnd@@PAPAV1@00@Z ; std::copy_backward<CHostWnd * *,CHostWnd * *>
;	COMDAT xdata$x
xdata$x	SEGMENT
$T192463 DD	0ffffffffH
	DD	00H
	DD	0ffffffffH
	DD	00H
	DD	0ffffffffH
	DD	00H
	DD	0ffffffffH
	DD	00H
$T192465 DD	00H
	DD	00H
	DD	00H
	DD	FLAT:$L192454
$T192466 DD	00H
	DD	00H
	DD	00H
	DD	FLAT:$L192456
$T192464 DD	00H
	DD	00H
	DD	01H
	DD	01H
	DD	FLAT:$T192465
	DD	02H
	DD	02H
	DD	03H
	DD	01H
	DD	FLAT:$T192466
$T192458 DD	019930520H
	DD	04H
	DD	FLAT:$T192463
	DD	02H
	DD	FLAT:$T192464
	DD	2 DUP(00H)
; Function compile flags: /Odt /RTCsu
xdata$x	ENDS
;	COMDAT ?_Insert_n@?$vector@PAVCHostWnd@@V?$allocator@PAVCHostWnd@@@std@@@std@@IAEXViterator@12@IABQAVCHostWnd@@@Z
_TEXT	SEGMENT
tv240 = -60						; size = 4
tv239 = -56						; size = 4
tv85 = -52						; size = 4
__Oldend$190673 = -48					; size = 4
__Ptr$190653 = -44					; size = 4
__Newvec$190652 = -40					; size = 4
__Capacity$ = -36					; size = 4
__Tmp$ = -28						; size = 4
_this$ = -20						; size = 4
__$EHRec$ = -16						; size = 16
__Where$ = 8						; size = 4
__Count$ = 12						; size = 4
__Val$ = 16						; size = 4
?_Insert_n@?$vector@PAVCHostWnd@@V?$allocator@PAVCHostWnd@@@std@@@std@@IAEXViterator@12@IABQAVCHostWnd@@@Z PROC NEAR ; std::vector<CHostWnd *,std::allocator<CHostWnd *> >::_Insert_n, COMDAT
; _this$ = ecx

; 809  : 		{	// insert _Count * _Val at _Where

  00000	55		 push	 ebp
  00001	8b ec		 mov	 ebp, esp
  00003	6a ff		 push	 -1
  00005	68 00 00 00 00	 push	 __ehhandler$?_Insert_n@?$vector@PAVCHostWnd@@V?$allocator@PAVCHostWnd@@@std@@@std@@IAEXViterator@12@IABQAVCHostWnd@@@Z
  0000a	64 a1 00 00 00
	00		 mov	 eax, DWORD PTR fs:__except_list
  00010	50		 push	 eax
  00011	64 89 25 00 00
	00 00		 mov	 DWORD PTR fs:__except_list, esp
  00018	51		 push	 ecx
  00019	83 ec 2c	 sub	 esp, 44			; 0000002cH
  0001c	53		 push	 ebx
  0001d	56		 push	 esi
  0001e	57		 push	 edi
  0001f	51		 push	 ecx
  00020	8d 7d c4	 lea	 edi, DWORD PTR [ebp-60]
  00023	b9 0b 00 00 00	 mov	 ecx, 11			; 0000000bH
  00028	b8 cc cc cc cc	 mov	 eax, -858993460		; ccccccccH
  0002d	f3 ab		 rep stosd
  0002f	59		 pop	 ecx
  00030	89 65 f0	 mov	 DWORD PTR __$EHRec$[ebp], esp
  00033	89 4d ec	 mov	 DWORD PTR _this$[ebp], ecx

; 810  : 		_Ty _Tmp = _Val;	// in case _Val is in sequence

  00036	8b 45 10	 mov	 eax, DWORD PTR __Val$[ebp]
  00039	8b 08		 mov	 ecx, DWORD PTR [eax]
  0003b	89 4d e4	 mov	 DWORD PTR __Tmp$[ebp], ecx

; 811  : 		size_type _Capacity = capacity();

  0003e	8b 4d ec	 mov	 ecx, DWORD PTR _this$[ebp]
  00041	e8 00 00 00 00	 call	 ?capacity@?$vector@PAVCHostWnd@@V?$allocator@PAVCHostWnd@@@std@@@std@@QBEIXZ ; std::vector<CHostWnd *,std::allocator<CHostWnd *> >::capacity
  00046	89 45 dc	 mov	 DWORD PTR __Capacity$[ebp], eax

; 812  : 
; 813  : 		if (_Count == 0)

  00049	83 7d 0c 00	 cmp	 DWORD PTR __Count$[ebp], 0
  0004d	75 05		 jne	 SHORT $L190646

; 814  : 			;
; 815  : 		else if (max_size() - size() < _Count)

  0004f	e9 c6 02 00 00	 jmp	 $L192450
$L190646:
  00054	8b 4d ec	 mov	 ecx, DWORD PTR _this$[ebp]
  00057	e8 00 00 00 00	 call	 ?size@?$vector@PAVCHostWnd@@V?$allocator@PAVCHostWnd@@@std@@@std@@QBEIXZ ; std::vector<CHostWnd *,std::allocator<CHostWnd *> >::size
  0005c	8b f0		 mov	 esi, eax
  0005e	8b 4d ec	 mov	 ecx, DWORD PTR _this$[ebp]
  00061	e8 00 00 00 00	 call	 ?max_size@?$vector@PAVCHostWnd@@V?$allocator@PAVCHostWnd@@@std@@@std@@QBEIXZ ; std::vector<CHostWnd *,std::allocator<CHostWnd *> >::max_size
  00066	2b c6		 sub	 eax, esi
  00068	3b 45 0c	 cmp	 eax, DWORD PTR __Count$[ebp]
  0006b	73 0d		 jae	 SHORT $L190648

; 816  : 			_Xlen();	// result too long

  0006d	8b 4d ec	 mov	 ecx, DWORD PTR _this$[ebp]
  00070	e8 00 00 00 00	 call	 ?_Xlen@?$vector@PAVCHostWnd@@V?$allocator@PAVCHostWnd@@@std@@@std@@IBEXXZ ; std::vector<CHostWnd *,std::allocator<CHostWnd *> >::_Xlen

; 817  : 		else if (_Capacity < size() + _Count)

  00075	e9 a0 02 00 00	 jmp	 $L192450
$L190648:
  0007a	8b 4d ec	 mov	 ecx, DWORD PTR _this$[ebp]
  0007d	e8 00 00 00 00	 call	 ?size@?$vector@PAVCHostWnd@@V?$allocator@PAVCHostWnd@@@std@@@std@@QBEIXZ ; std::vector<CHostWnd *,std::allocator<CHostWnd *> >::size
  00082	03 45 0c	 add	 eax, DWORD PTR __Count$[ebp]
  00085	39 45 dc	 cmp	 DWORD PTR __Capacity$[ebp], eax
  00088	0f 83 66 01 00
	00		 jae	 $L190650

; 818  : 			{	// not enough room, reallocate
; 819  : 			_Capacity = max_size() - _Capacity / 2 < _Capacity
; 820  : 				? 0 : _Capacity + _Capacity / 2;	// try to grow by 50%

  0008e	8b 75 dc	 mov	 esi, DWORD PTR __Capacity$[ebp]
  00091	d1 ee		 shr	 esi, 1
  00093	8b 4d ec	 mov	 ecx, DWORD PTR _this$[ebp]
  00096	e8 00 00 00 00	 call	 ?max_size@?$vector@PAVCHostWnd@@V?$allocator@PAVCHostWnd@@@std@@@std@@QBEIXZ ; std::vector<CHostWnd *,std::allocator<CHostWnd *> >::max_size
  0009b	2b c6		 sub	 eax, esi
  0009d	3b 45 dc	 cmp	 eax, DWORD PTR __Capacity$[ebp]
  000a0	73 09		 jae	 SHORT $L192451
  000a2	c7 45 cc 00 00
	00 00		 mov	 DWORD PTR tv85[ebp], 0
  000a9	eb 0b		 jmp	 SHORT $L192452
$L192451:
  000ab	8b 55 dc	 mov	 edx, DWORD PTR __Capacity$[ebp]
  000ae	d1 ea		 shr	 edx, 1
  000b0	03 55 dc	 add	 edx, DWORD PTR __Capacity$[ebp]
  000b3	89 55 cc	 mov	 DWORD PTR tv85[ebp], edx
$L192452:
  000b6	8b 45 cc	 mov	 eax, DWORD PTR tv85[ebp]
  000b9	89 45 dc	 mov	 DWORD PTR __Capacity$[ebp], eax

; 821  : 			if (_Capacity < size() + _Count)

  000bc	8b 4d ec	 mov	 ecx, DWORD PTR _this$[ebp]
  000bf	e8 00 00 00 00	 call	 ?size@?$vector@PAVCHostWnd@@V?$allocator@PAVCHostWnd@@@std@@@std@@QBEIXZ ; std::vector<CHostWnd *,std::allocator<CHostWnd *> >::size
  000c4	03 45 0c	 add	 eax, DWORD PTR __Count$[ebp]
  000c7	39 45 dc	 cmp	 DWORD PTR __Capacity$[ebp], eax
  000ca	73 0e		 jae	 SHORT $L190651

; 822  : 				_Capacity = size() + _Count;

  000cc	8b 4d ec	 mov	 ecx, DWORD PTR _this$[ebp]
  000cf	e8 00 00 00 00	 call	 ?size@?$vector@PAVCHostWnd@@V?$allocator@PAVCHostWnd@@@std@@@std@@QBEIXZ ; std::vector<CHostWnd *,std::allocator<CHostWnd *> >::size
  000d4	03 45 0c	 add	 eax, DWORD PTR __Count$[ebp]
  000d7	89 45 dc	 mov	 DWORD PTR __Capacity$[ebp], eax
$L190651:

; 823  : 			pointer _Newvec = this->_Alval.allocate(_Capacity);

  000da	8b 4d dc	 mov	 ecx, DWORD PTR __Capacity$[ebp]
  000dd	51		 push	 ecx
  000de	8b 4d ec	 mov	 ecx, DWORD PTR _this$[ebp]
  000e1	e8 00 00 00 00	 call	 ?allocate@?$allocator@PAVCHostWnd@@@std@@QAEPAPAVCHostWnd@@I@Z ; std::allocator<CHostWnd *>::allocate
  000e6	89 45 d8	 mov	 DWORD PTR __Newvec$190652[ebp], eax

; 824  : 			pointer _Ptr = _Newvec;

  000e9	8b 55 d8	 mov	 edx, DWORD PTR __Newvec$190652[ebp]
  000ec	89 55 d4	 mov	 DWORD PTR __Ptr$190653[ebp], edx

; 825  : 
; 826  : 			_TRY_BEGIN

  000ef	c7 45 fc 00 00
	00 00		 mov	 DWORD PTR __$EHRec$[ebp+12], 0

; 827  : 			_Ptr = _Ucopy(_Myfirst, _ITER_BASE(_Where),
; 828  : 				_Newvec);	// copy prefix

  000f6	8b 45 d8	 mov	 eax, DWORD PTR __Newvec$190652[ebp]
  000f9	50		 push	 eax
  000fa	8b 4d 08	 mov	 ecx, DWORD PTR __Where$[ebp]
  000fd	51		 push	 ecx
  000fe	8b 55 ec	 mov	 edx, DWORD PTR _this$[ebp]
  00101	8b 42 04	 mov	 eax, DWORD PTR [edx+4]
  00104	50		 push	 eax
  00105	8b 4d ec	 mov	 ecx, DWORD PTR _this$[ebp]
  00108	e8 00 00 00 00	 call	 ??$_Ucopy@PAPAVCHostWnd@@@?$vector@PAVCHostWnd@@V?$allocator@PAVCHostWnd@@@std@@@std@@IAEPAPAVCHostWnd@@PAPAV2@00@Z ; std::vector<CHostWnd *,std::allocator<CHostWnd *> >::_Ucopy<CHostWnd * *>
  0010d	89 45 c8	 mov	 DWORD PTR tv239[ebp], eax
  00110	8b 4d c8	 mov	 ecx, DWORD PTR tv239[ebp]
  00113	89 4d d4	 mov	 DWORD PTR __Ptr$190653[ebp], ecx

; 829  : 			_Ptr = _Ufill(_Ptr, _Count, _Tmp);	// add new stuff

  00116	8d 55 e4	 lea	 edx, DWORD PTR __Tmp$[ebp]
  00119	52		 push	 edx
  0011a	8b 45 0c	 mov	 eax, DWORD PTR __Count$[ebp]
  0011d	50		 push	 eax
  0011e	8b 4d d4	 mov	 ecx, DWORD PTR __Ptr$190653[ebp]
  00121	51		 push	 ecx
  00122	8b 4d ec	 mov	 ecx, DWORD PTR _this$[ebp]
  00125	e8 00 00 00 00	 call	 ?_Ufill@?$vector@PAVCHostWnd@@V?$allocator@PAVCHostWnd@@@std@@@std@@IAEPAPAVCHostWnd@@PAPAV3@IABQAV3@@Z ; std::vector<CHostWnd *,std::allocator<CHostWnd *> >::_Ufill
  0012a	89 45 c4	 mov	 DWORD PTR tv240[ebp], eax
  0012d	8b 55 c4	 mov	 edx, DWORD PTR tv240[ebp]
  00130	89 55 d4	 mov	 DWORD PTR __Ptr$190653[ebp], edx

; 830  : 			_Ucopy(_ITER_BASE(_Where), _Mylast, _Ptr);	// copy suffix

  00133	8b 45 d4	 mov	 eax, DWORD PTR __Ptr$190653[ebp]
  00136	50		 push	 eax
  00137	8b 4d ec	 mov	 ecx, DWORD PTR _this$[ebp]
  0013a	8b 51 08	 mov	 edx, DWORD PTR [ecx+8]
  0013d	52		 push	 edx
  0013e	8b 45 08	 mov	 eax, DWORD PTR __Where$[ebp]
  00141	50		 push	 eax
  00142	8b 4d ec	 mov	 ecx, DWORD PTR _this$[ebp]
  00145	e8 00 00 00 00	 call	 ??$_Ucopy@PAPAVCHostWnd@@@?$vector@PAVCHostWnd@@V?$allocator@PAVCHostWnd@@@std@@@std@@IAEPAPAVCHostWnd@@PAPAV2@00@Z ; std::vector<CHostWnd *,std::allocator<CHostWnd *> >::_Ucopy<CHostWnd * *>
  0014a	eb 29		 jmp	 SHORT $L192453
$L192454:

; 831  : 			_CATCH_ALL
; 832  : 			_Destroy(_Newvec, _Ptr);

  0014c	8b 4d d4	 mov	 ecx, DWORD PTR __Ptr$190653[ebp]
  0014f	51		 push	 ecx
  00150	8b 55 d8	 mov	 edx, DWORD PTR __Newvec$190652[ebp]
  00153	52		 push	 edx
  00154	8b 4d ec	 mov	 ecx, DWORD PTR _this$[ebp]
  00157	e8 00 00 00 00	 call	 ?_Destroy@?$vector@PAVCHostWnd@@V?$allocator@PAVCHostWnd@@@std@@@std@@IAEXPAPAVCHostWnd@@0@Z ; std::vector<CHostWnd *,std::allocator<CHostWnd *> >::_Destroy

; 833  : 			this->_Alval.deallocate(_Newvec, _Capacity);

  0015c	8b 45 dc	 mov	 eax, DWORD PTR __Capacity$[ebp]
  0015f	50		 push	 eax
  00160	8b 4d d8	 mov	 ecx, DWORD PTR __Newvec$190652[ebp]
  00163	51		 push	 ecx
  00164	8b 4d ec	 mov	 ecx, DWORD PTR _this$[ebp]
  00167	e8 00 00 00 00	 call	 ?deallocate@?$allocator@PAVCHostWnd@@@std@@QAEXPAPAVCHostWnd@@I@Z ; std::allocator<CHostWnd *>::deallocate

; 834  : 			_RERAISE;

  0016c	6a 00		 push	 0
  0016e	6a 00		 push	 0
  00170	e8 00 00 00 00	 call	 __CxxThrowException@8
$L192453:

; 835  : 			_CATCH_END

  00175	c7 45 fc ff ff
	ff ff		 mov	 DWORD PTR __$EHRec$[ebp+12], -1

; 836  : 
; 837  : 			_Count += size();

  0017c	8b 4d ec	 mov	 ecx, DWORD PTR _this$[ebp]
  0017f	e8 00 00 00 00	 call	 ?size@?$vector@PAVCHostWnd@@V?$allocator@PAVCHostWnd@@@std@@@std@@QBEIXZ ; std::vector<CHostWnd *,std::allocator<CHostWnd *> >::size
  00184	03 45 0c	 add	 eax, DWORD PTR __Count$[ebp]
  00187	89 45 0c	 mov	 DWORD PTR __Count$[ebp], eax

; 838  : 			if (_Myfirst != 0)

  0018a	8b 55 ec	 mov	 edx, DWORD PTR _this$[ebp]
  0018d	83 7a 04 00	 cmp	 DWORD PTR [edx+4], 0
  00191	74 35		 je	 SHORT $L190660

; 839  : 				{	// destroy and deallocate old array
; 840  : 				_Destroy(_Myfirst, _Mylast);

  00193	8b 45 ec	 mov	 eax, DWORD PTR _this$[ebp]
  00196	8b 48 08	 mov	 ecx, DWORD PTR [eax+8]
  00199	51		 push	 ecx
  0019a	8b 55 ec	 mov	 edx, DWORD PTR _this$[ebp]
  0019d	8b 42 04	 mov	 eax, DWORD PTR [edx+4]
  001a0	50		 push	 eax
  001a1	8b 4d ec	 mov	 ecx, DWORD PTR _this$[ebp]
  001a4	e8 00 00 00 00	 call	 ?_Destroy@?$vector@PAVCHostWnd@@V?$allocator@PAVCHostWnd@@@std@@@std@@IAEXPAPAVCHostWnd@@0@Z ; std::vector<CHostWnd *,std::allocator<CHostWnd *> >::_Destroy

; 841  : 				this->_Alval.deallocate(_Myfirst, _Myend - _Myfirst);

  001a9	8b 4d ec	 mov	 ecx, DWORD PTR _this$[ebp]
  001ac	8b 55 ec	 mov	 edx, DWORD PTR _this$[ebp]
  001af	8b 41 0c	 mov	 eax, DWORD PTR [ecx+12]
  001b2	2b 42 04	 sub	 eax, DWORD PTR [edx+4]
  001b5	c1 f8 02	 sar	 eax, 2
  001b8	50		 push	 eax
  001b9	8b 4d ec	 mov	 ecx, DWORD PTR _this$[ebp]
  001bc	8b 51 04	 mov	 edx, DWORD PTR [ecx+4]
  001bf	52		 push	 edx
  001c0	8b 4d ec	 mov	 ecx, DWORD PTR _this$[ebp]
  001c3	e8 00 00 00 00	 call	 ?deallocate@?$allocator@PAVCHostWnd@@@std@@QAEXPAPAVCHostWnd@@I@Z ; std::allocator<CHostWnd *>::deallocate
$L190660:

; 842  : 				}
; 843  : 			_Myend = _Newvec + _Capacity;

  001c8	8b 45 dc	 mov	 eax, DWORD PTR __Capacity$[ebp]
  001cb	8b 4d d8	 mov	 ecx, DWORD PTR __Newvec$190652[ebp]
  001ce	8d 14 81	 lea	 edx, DWORD PTR [ecx+eax*4]
  001d1	8b 45 ec	 mov	 eax, DWORD PTR _this$[ebp]
  001d4	89 50 0c	 mov	 DWORD PTR [eax+12], edx

; 844  : 			_Mylast = _Newvec + _Count;

  001d7	8b 4d 0c	 mov	 ecx, DWORD PTR __Count$[ebp]
  001da	8b 55 d8	 mov	 edx, DWORD PTR __Newvec$190652[ebp]
  001dd	8d 04 8a	 lea	 eax, DWORD PTR [edx+ecx*4]
  001e0	8b 4d ec	 mov	 ecx, DWORD PTR _this$[ebp]
  001e3	89 41 08	 mov	 DWORD PTR [ecx+8], eax

; 845  : 			_Myfirst = _Newvec;

  001e6	8b 55 ec	 mov	 edx, DWORD PTR _this$[ebp]
  001e9	8b 45 d8	 mov	 eax, DWORD PTR __Newvec$190652[ebp]
  001ec	89 42 04	 mov	 DWORD PTR [edx+4], eax

; 846  : 			}
; 847  : 		else if ((size_type)(_Mylast - _ITER_BASE(_Where)) < _Count)

  001ef	e9 26 01 00 00	 jmp	 $L192450
$L190650:
  001f4	8b 4d ec	 mov	 ecx, DWORD PTR _this$[ebp]
  001f7	8b 51 08	 mov	 edx, DWORD PTR [ecx+8]
  001fa	2b 55 08	 sub	 edx, DWORD PTR __Where$[ebp]
  001fd	c1 fa 02	 sar	 edx, 2
  00200	3b 55 0c	 cmp	 edx, DWORD PTR __Count$[ebp]
  00203	0f 83 ad 00 00
	00		 jae	 $L190663

; 848  : 			{	// new stuff spills off end
; 849  : 			_Ucopy(_ITER_BASE(_Where), _Mylast,
; 850  : 				_ITER_BASE(_Where) + _Count);	// copy suffix

  00209	8b 45 0c	 mov	 eax, DWORD PTR __Count$[ebp]
  0020c	8b 4d 08	 mov	 ecx, DWORD PTR __Where$[ebp]
  0020f	8d 14 81	 lea	 edx, DWORD PTR [ecx+eax*4]
  00212	52		 push	 edx
  00213	8b 45 ec	 mov	 eax, DWORD PTR _this$[ebp]
  00216	8b 48 08	 mov	 ecx, DWORD PTR [eax+8]
  00219	51		 push	 ecx
  0021a	8b 55 08	 mov	 edx, DWORD PTR __Where$[ebp]
  0021d	52		 push	 edx
  0021e	8b 4d ec	 mov	 ecx, DWORD PTR _this$[ebp]
  00221	e8 00 00 00 00	 call	 ??$_Ucopy@PAPAVCHostWnd@@@?$vector@PAVCHostWnd@@V?$allocator@PAVCHostWnd@@@std@@@std@@IAEPAPAVCHostWnd@@PAPAV2@00@Z ; std::vector<CHostWnd *,std::allocator<CHostWnd *> >::_Ucopy<CHostWnd * *>

; 851  : 
; 852  : 			_TRY_BEGIN

  00226	c7 45 fc 02 00
	00 00		 mov	 DWORD PTR __$EHRec$[ebp+12], 2

; 853  : 			_Ufill(_Mylast, _Count - (_Mylast - _ITER_BASE(_Where)),
; 854  : 				_Tmp);	// insert new stuff off end

  0022d	8d 45 e4	 lea	 eax, DWORD PTR __Tmp$[ebp]
  00230	50		 push	 eax
  00231	8b 4d ec	 mov	 ecx, DWORD PTR _this$[ebp]
  00234	8b 51 08	 mov	 edx, DWORD PTR [ecx+8]
  00237	2b 55 08	 sub	 edx, DWORD PTR __Where$[ebp]
  0023a	c1 fa 02	 sar	 edx, 2
  0023d	8b 45 0c	 mov	 eax, DWORD PTR __Count$[ebp]
  00240	2b c2		 sub	 eax, edx
  00242	50		 push	 eax
  00243	8b 4d ec	 mov	 ecx, DWORD PTR _this$[ebp]
  00246	8b 51 08	 mov	 edx, DWORD PTR [ecx+8]
  00249	52		 push	 edx
  0024a	8b 4d ec	 mov	 ecx, DWORD PTR _this$[ebp]
  0024d	e8 00 00 00 00	 call	 ?_Ufill@?$vector@PAVCHostWnd@@V?$allocator@PAVCHostWnd@@@std@@@std@@IAEPAPAVCHostWnd@@PAPAV3@IABQAV3@@Z ; std::vector<CHostWnd *,std::allocator<CHostWnd *> >::_Ufill
  00252	eb 28		 jmp	 SHORT $L192455
$L192456:

; 855  : 			_CATCH_ALL
; 856  : 			_Destroy(_ITER_BASE(_Where) + _Count, _Mylast + _Count);

  00254	8b 45 ec	 mov	 eax, DWORD PTR _this$[ebp]
  00257	8b 48 08	 mov	 ecx, DWORD PTR [eax+8]
  0025a	8b 55 0c	 mov	 edx, DWORD PTR __Count$[ebp]
  0025d	8d 04 91	 lea	 eax, DWORD PTR [ecx+edx*4]
  00260	50		 push	 eax
  00261	8b 4d 0c	 mov	 ecx, DWORD PTR __Count$[ebp]
  00264	8b 55 08	 mov	 edx, DWORD PTR __Where$[ebp]
  00267	8d 04 8a	 lea	 eax, DWORD PTR [edx+ecx*4]
  0026a	50		 push	 eax
  0026b	8b 4d ec	 mov	 ecx, DWORD PTR _this$[ebp]
  0026e	e8 00 00 00 00	 call	 ?_Destroy@?$vector@PAVCHostWnd@@V?$allocator@PAVCHostWnd@@@std@@@std@@IAEXPAPAVCHostWnd@@0@Z ; std::vector<CHostWnd *,std::allocator<CHostWnd *> >::_Destroy

; 857  : 			_RERAISE;

  00273	6a 00		 push	 0
  00275	6a 00		 push	 0
  00277	e8 00 00 00 00	 call	 __CxxThrowException@8
$L192455:

; 858  : 			_CATCH_END

  0027c	c7 45 fc ff ff
	ff ff		 mov	 DWORD PTR __$EHRec$[ebp+12], -1

; 859  : 
; 860  : 			_Mylast += _Count;

  00283	8b 4d ec	 mov	 ecx, DWORD PTR _this$[ebp]
  00286	8b 51 08	 mov	 edx, DWORD PTR [ecx+8]
  00289	8b 45 0c	 mov	 eax, DWORD PTR __Count$[ebp]
  0028c	8d 0c 82	 lea	 ecx, DWORD PTR [edx+eax*4]
  0028f	8b 55 ec	 mov	 edx, DWORD PTR _this$[ebp]
  00292	89 4a 08	 mov	 DWORD PTR [edx+8], ecx

; 861  : 			fill(_ITER_BASE(_Where), _Mylast - _Count,
; 862  : 				_Tmp);	// insert up to old end

  00295	8d 45 e4	 lea	 eax, DWORD PTR __Tmp$[ebp]
  00298	50		 push	 eax
  00299	8b 4d 0c	 mov	 ecx, DWORD PTR __Count$[ebp]
  0029c	c1 e1 02	 shl	 ecx, 2
  0029f	8b 55 ec	 mov	 edx, DWORD PTR _this$[ebp]
  002a2	8b 42 08	 mov	 eax, DWORD PTR [edx+8]
  002a5	2b c1		 sub	 eax, ecx
  002a7	50		 push	 eax
  002a8	8b 4d 08	 mov	 ecx, DWORD PTR __Where$[ebp]
  002ab	51		 push	 ecx
  002ac	e8 00 00 00 00	 call	 ??$fill@PAPAVCHostWnd@@PAV1@@std@@YAXPAPAVCHostWnd@@0ABQAV1@@Z ; std::fill<CHostWnd * *,CHostWnd *>
  002b1	83 c4 0c	 add	 esp, 12			; 0000000cH

; 863  : 			}
; 864  : 		else

  002b4	eb 64		 jmp	 SHORT $L192450
$L190663:

; 865  : 			{	// new stuff can all be assigned
; 866  : 			pointer _Oldend = _Mylast;

  002b6	8b 55 ec	 mov	 edx, DWORD PTR _this$[ebp]
  002b9	8b 42 08	 mov	 eax, DWORD PTR [edx+8]
  002bc	89 45 d0	 mov	 DWORD PTR __Oldend$190673[ebp], eax

; 867  : 			_Mylast = _Ucopy(_Oldend - _Count, _Oldend,
; 868  : 				_Mylast);	// copy suffix

  002bf	8b 4d ec	 mov	 ecx, DWORD PTR _this$[ebp]
  002c2	8b 51 08	 mov	 edx, DWORD PTR [ecx+8]
  002c5	52		 push	 edx
  002c6	8b 45 d0	 mov	 eax, DWORD PTR __Oldend$190673[ebp]
  002c9	50		 push	 eax
  002ca	8b 4d 0c	 mov	 ecx, DWORD PTR __Count$[ebp]
  002cd	c1 e1 02	 shl	 ecx, 2
  002d0	8b 55 d0	 mov	 edx, DWORD PTR __Oldend$190673[ebp]
  002d3	2b d1		 sub	 edx, ecx
  002d5	52		 push	 edx
  002d6	8b 4d ec	 mov	 ecx, DWORD PTR _this$[ebp]
  002d9	e8 00 00 00 00	 call	 ??$_Ucopy@PAPAVCHostWnd@@@?$vector@PAVCHostWnd@@V?$allocator@PAVCHostWnd@@@std@@@std@@IAEPAPAVCHostWnd@@PAPAV2@00@Z ; std::vector<CHostWnd *,std::allocator<CHostWnd *> >::_Ucopy<CHostWnd * *>
  002de	8b 4d ec	 mov	 ecx, DWORD PTR _this$[ebp]
  002e1	89 41 08	 mov	 DWORD PTR [ecx+8], eax

; 869  : 			copy_backward(_ITER_BASE(_Where), _Oldend - _Count,
; 870  : 				_Oldend);	// copy hole

  002e4	8b 55 d0	 mov	 edx, DWORD PTR __Oldend$190673[ebp]
  002e7	52		 push	 edx
  002e8	8b 45 0c	 mov	 eax, DWORD PTR __Count$[ebp]
  002eb	c1 e0 02	 shl	 eax, 2
  002ee	8b 4d d0	 mov	 ecx, DWORD PTR __Oldend$190673[ebp]
  002f1	2b c8		 sub	 ecx, eax
  002f3	51		 push	 ecx
  002f4	8b 55 08	 mov	 edx, DWORD PTR __Where$[ebp]
  002f7	52		 push	 edx
  002f8	e8 00 00 00 00	 call	 ??$copy_backward@PAPAVCHostWnd@@PAPAV1@@std@@YAPAPAVCHostWnd@@PAPAV1@00@Z ; std::copy_backward<CHostWnd * *,CHostWnd * *>
  002fd	83 c4 0c	 add	 esp, 12			; 0000000cH

; 871  : 			fill(_ITER_BASE(_Where), _ITER_BASE(_Where) + _Count,
; 872  : 				_Tmp);	// insert into hole

  00300	8d 45 e4	 lea	 eax, DWORD PTR __Tmp$[ebp]
  00303	50		 push	 eax
  00304	8b 4d 0c	 mov	 ecx, DWORD PTR __Count$[ebp]
  00307	8b 55 08	 mov	 edx, DWORD PTR __Where$[ebp]
  0030a	8d 04 8a	 lea	 eax, DWORD PTR [edx+ecx*4]
  0030d	50		 push	 eax
  0030e	8b 4d 08	 mov	 ecx, DWORD PTR __Where$[ebp]
  00311	51		 push	 ecx
  00312	e8 00 00 00 00	 call	 ??$fill@PAPAVCHostWnd@@PAV1@@std@@YAXPAPAVCHostWnd@@0ABQAV1@@Z ; std::fill<CHostWnd * *,CHostWnd *>
  00317	83 c4 0c	 add	 esp, 12			; 0000000cH
$L192450:

; 873  : 			}
; 874  : 		}

  0031a	52		 push	 edx
  0031b	8b cd		 mov	 ecx, ebp
  0031d	50		 push	 eax
  0031e	8d 15 00 00 00
	00		 lea	 edx, DWORD PTR $L192462
  00324	e8 00 00 00 00	 call	 @_RTC_CheckStackVars@8
  00329	58		 pop	 eax
  0032a	5a		 pop	 edx
  0032b	8b 4d f4	 mov	 ecx, DWORD PTR __$EHRec$[ebp+4]
  0032e	64 89 0d 00 00
	00 00		 mov	 DWORD PTR fs:__except_list, ecx
  00335	5f		 pop	 edi
  00336	5e		 pop	 esi
  00337	5b		 pop	 ebx
  00338	83 c4 3c	 add	 esp, 60			; 0000003cH
  0033b	3b ec		 cmp	 ebp, esp
  0033d	e8 00 00 00 00	 call	 __RTC_CheckEsp
  00342	8b e5		 mov	 esp, ebp
  00344	5d		 pop	 ebp
  00345	c2 0c 00	 ret	 12			; 0000000cH
$L192462:
  00348	01 00 00 00	 DD	 1
  0034c	00 00 00 00	 DD	 $L192461
$L192461:
  00350	e4 ff ff ff	 DD	 -28			; ffffffe4H
  00354	04 00 00 00	 DD	 4
  00358	00 00 00 00	 DD	 $L192459
$L192459:
  0035c	5f		 DB	 95			; 0000005fH
  0035d	54		 DB	 84			; 00000054H
  0035e	6d		 DB	 109			; 0000006dH
  0035f	70		 DB	 112			; 00000070H
  00360	00		 DB	 0
_TEXT	ENDS
;	COMDAT text$x
text$x	SEGMENT
__ehhandler$?_Insert_n@?$vector@PAVCHostWnd@@V?$allocator@PAVCHostWnd@@@std@@@std@@IAEXViterator@12@IABQAVCHostWnd@@@Z:
  00000	b8 00 00 00 00	 mov	 eax, OFFSET FLAT:$T192458
  00005	e9 00 00 00 00	 jmp	 ___CxxFrameHandler
text$x	ENDS
?_Insert_n@?$vector@PAVCHostWnd@@V?$allocator@PAVCHostWnd@@@std@@@std@@IAEXViterator@12@IABQAVCHostWnd@@@Z ENDP ; std::vector<CHostWnd *,std::allocator<CHostWnd *> >::_Insert_n
PUBLIC	??_C@_0BD@OLBABOEK@vector?$DMT?$DO?5too?5long?$AA@ ; `string'
;	COMDAT xdata$x
xdata$x	SEGMENT
$T192476 DD	0ffffffffH
	DD	FLAT:$L192472
$T192474 DD	019930520H
	DD	01H
	DD	FLAT:$T192476
	DD	2 DUP(00H)
	DD	2 DUP(00H)
xdata$x	ENDS
;	COMDAT ??_C@_0BD@OLBABOEK@vector?$DMT?$DO?5too?5long?$AA@
CONST	SEGMENT
??_C@_0BD@OLBABOEK@vector?$DMT?$DO?5too?5long?$AA@ DB 'vector<T> too long'
	DB	00H						; `string'
; Function compile flags: /Odt /RTCsu
CONST	ENDS
;	COMDAT ?_Xlen@?$vector@PAVCHostWnd@@V?$allocator@PAVCHostWnd@@@std@@@std@@IBEXXZ
_TEXT	SEGMENT
$T192471 = -84						; size = 28
$T192470 = -56						; size = 40
_this$ = -16						; size = 4
__$EHRec$ = -12						; size = 12
?_Xlen@?$vector@PAVCHostWnd@@V?$allocator@PAVCHostWnd@@@std@@@std@@IBEXXZ PROC NEAR ; std::vector<CHostWnd *,std::allocator<CHostWnd *> >::_Xlen, COMDAT
; _this$ = ecx

; 883  : 		{	// report a length_error

  00000	55		 push	 ebp
  00001	8b ec		 mov	 ebp, esp
  00003	6a ff		 push	 -1
  00005	68 00 00 00 00	 push	 __ehhandler$?_Xlen@?$vector@PAVCHostWnd@@V?$allocator@PAVCHostWnd@@@std@@@std@@IBEXXZ
  0000a	64 a1 00 00 00
	00		 mov	 eax, DWORD PTR fs:__except_list
  00010	50		 push	 eax
  00011	64 89 25 00 00
	00 00		 mov	 DWORD PTR fs:__except_list, esp
  00018	83 ec 48	 sub	 esp, 72			; 00000048H
  0001b	56		 push	 esi
  0001c	57		 push	 edi
  0001d	51		 push	 ecx
  0001e	8d 7d ac	 lea	 edi, DWORD PTR [ebp-84]
  00021	b9 12 00 00 00	 mov	 ecx, 18			; 00000012H
  00026	b8 cc cc cc cc	 mov	 eax, -858993460		; ccccccccH
  0002b	f3 ab		 rep stosd
  0002d	59		 pop	 ecx
  0002e	89 4d f0	 mov	 DWORD PTR _this$[ebp], ecx

; 884  : 		_THROW(length_error, "vector<T> too long");

  00031	8b f4		 mov	 esi, esp
  00033	68 00 00 00 00	 push	 OFFSET FLAT:??_C@_0BD@OLBABOEK@vector?$DMT?$DO?5too?5long?$AA@
  00038	8d 4d ac	 lea	 ecx, DWORD PTR $T192471[ebp]
  0003b	ff 15 00 00 00
	00		 call	 DWORD PTR __imp_??0?$basic_string@DU?$char_traits@D@std@@V?$allocator@D@2@@std@@QAE@PBD@Z
  00041	3b f4		 cmp	 esi, esp
  00043	e8 00 00 00 00	 call	 __RTC_CheckEsp
  00048	c7 45 fc 00 00
	00 00		 mov	 DWORD PTR __$EHRec$[ebp+8], 0
  0004f	8d 45 ac	 lea	 eax, DWORD PTR $T192471[ebp]
  00052	50		 push	 eax
  00053	8d 4d c8	 lea	 ecx, DWORD PTR $T192470[ebp]
  00056	e8 00 00 00 00	 call	 ??0length_error@std@@QAE@ABV?$basic_string@DU?$char_traits@D@std@@V?$allocator@D@2@@1@@Z ; std::length_error::length_error
  0005b	68 00 00 00 00	 push	 OFFSET FLAT:__TI3?AVlength_error@std@@
  00060	8d 4d c8	 lea	 ecx, DWORD PTR $T192470[ebp]
  00063	51		 push	 ecx
  00064	e8 00 00 00 00	 call	 __CxxThrowException@8
$L192469:

; 885  : 		}

  00069	8b 4d f4	 mov	 ecx, DWORD PTR __$EHRec$[ebp]
  0006c	64 89 0d 00 00
	00 00		 mov	 DWORD PTR fs:__except_list, ecx
  00073	5f		 pop	 edi
  00074	5e		 pop	 esi
  00075	83 c4 54	 add	 esp, 84			; 00000054H
  00078	3b ec		 cmp	 ebp, esp
  0007a	e8 00 00 00 00	 call	 __RTC_CheckEsp
  0007f	8b e5		 mov	 esp, ebp
  00081	5d		 pop	 ebp
  00082	c3		 ret	 0
_TEXT	ENDS
;	COMDAT text$x
text$x	SEGMENT
$L192472:
  00000	8b f4		 mov	 esi, esp
  00002	8d 4d ac	 lea	 ecx, DWORD PTR $T192471[ebp]
  00005	ff 15 00 00 00
	00		 call	 DWORD PTR __imp_??1?$basic_string@DU?$char_traits@D@std@@V?$allocator@D@2@@std@@QAE@XZ
  0000b	3b f4		 cmp	 esi, esp
  0000d	e9 00 00 00 00	 jmp	 __RTC_CheckEsp
__ehhandler$?_Xlen@?$vector@PAVCHostWnd@@V?$allocator@PAVCHostWnd@@@std@@@std@@IBEXXZ:
  00012	b8 00 00 00 00	 mov	 eax, OFFSET FLAT:$T192474
  00017	e9 00 00 00 00	 jmp	 ___CxxFrameHandler
text$x	ENDS
?_Xlen@?$vector@PAVCHostWnd@@V?$allocator@PAVCHostWnd@@@std@@@std@@IBEXXZ ENDP ; std::vector<CHostWnd *,std::allocator<CHostWnd *> >::_Xlen
; Function compile flags: /Odt /RTCsu
; File d:\program files (x86)\microsoft visual studio .net 2003\vc7\include\xmemory
;	COMDAT ??0?$allocator@PAVCHostWnd@@@std@@QAE@ABV01@@Z
_TEXT	SEGMENT
_this$ = -4						; size = 4
___formal$ = 8						; size = 4
??0?$allocator@PAVCHostWnd@@@std@@QAE@ABV01@@Z PROC NEAR ; std::allocator<CHostWnd *>::allocator<CHostWnd *>, COMDAT
; _this$ = ecx

; 115  : 	allocator(const allocator<_Ty>&)

  00000	55		 push	 ebp
  00001	8b ec		 mov	 ebp, esp
  00003	51		 push	 ecx
  00004	c7 45 fc cc cc
	cc cc		 mov	 DWORD PTR [ebp-4], -858993460 ; ccccccccH
  0000b	89 4d fc	 mov	 DWORD PTR _this$[ebp], ecx

; 116  : 		{	// construct by copying (do nothing)
; 117  : 		}

  0000e	8b 45 fc	 mov	 eax, DWORD PTR _this$[ebp]
  00011	8b e5		 mov	 esp, ebp
  00013	5d		 pop	 ebp
  00014	c2 04 00	 ret	 4
??0?$allocator@PAVCHostWnd@@@std@@QAE@ABV01@@Z ENDP	; std::allocator<CHostWnd *>::allocator<CHostWnd *>
; Function compile flags: /Odt /RTCsu
_TEXT	ENDS
;	COMDAT ?deallocate@?$allocator@PAVCHostWnd@@@std@@QAEXPAPAVCHostWnd@@I@Z
_TEXT	SEGMENT
_this$ = -4						; size = 4
__Ptr$ = 8						; size = 4
___formal$ = 12						; size = 4
?deallocate@?$allocator@PAVCHostWnd@@@std@@QAEXPAPAVCHostWnd@@I@Z PROC NEAR ; std::allocator<CHostWnd *>::deallocate, COMDAT
; _this$ = ecx

; 131  : 		{	// deallocate object at _Ptr, ignore size

  00000	55		 push	 ebp
  00001	8b ec		 mov	 ebp, esp
  00003	51		 push	 ecx
  00004	c7 45 fc cc cc
	cc cc		 mov	 DWORD PTR [ebp-4], -858993460 ; ccccccccH
  0000b	89 4d fc	 mov	 DWORD PTR _this$[ebp], ecx

; 132  : 		operator delete(_Ptr);

  0000e	8b 45 08	 mov	 eax, DWORD PTR __Ptr$[ebp]
  00011	50		 push	 eax
  00012	e8 00 00 00 00	 call	 ??3@YAXPAX@Z		; operator delete
  00017	83 c4 04	 add	 esp, 4

; 133  : 		}

  0001a	83 c4 04	 add	 esp, 4
  0001d	3b ec		 cmp	 ebp, esp
  0001f	e8 00 00 00 00	 call	 __RTC_CheckEsp
  00024	8b e5		 mov	 esp, ebp
  00026	5d		 pop	 ebp
  00027	c2 08 00	 ret	 8
?deallocate@?$allocator@PAVCHostWnd@@@std@@QAEXPAPAVCHostWnd@@I@Z ENDP ; std::allocator<CHostWnd *>::deallocate
_TEXT	ENDS
PUBLIC	??$_Allocate@PAVCHostWnd@@@std@@YAPAPAVCHostWnd@@IPAPAV1@@Z ; std::_Allocate<CHostWnd *>
; Function compile flags: /Odt /RTCsu
;	COMDAT ?allocate@?$allocator@PAVCHostWnd@@@std@@QAEPAPAVCHostWnd@@I@Z
_TEXT	SEGMENT
_this$ = -4						; size = 4
__Count$ = 8						; size = 4
?allocate@?$allocator@PAVCHostWnd@@@std@@QAEPAPAVCHostWnd@@I@Z PROC NEAR ; std::allocator<CHostWnd *>::allocate, COMDAT
; _this$ = ecx

; 136  : 		{	// allocate array of _Count elements

  00000	55		 push	 ebp
  00001	8b ec		 mov	 ebp, esp
  00003	51		 push	 ecx
  00004	c7 45 fc cc cc
	cc cc		 mov	 DWORD PTR [ebp-4], -858993460 ; ccccccccH
  0000b	89 4d fc	 mov	 DWORD PTR _this$[ebp], ecx

; 137  : 		return (_Allocate(_Count, (pointer)0));

  0000e	6a 00		 push	 0
  00010	8b 45 08	 mov	 eax, DWORD PTR __Count$[ebp]
  00013	50		 push	 eax
  00014	e8 00 00 00 00	 call	 ??$_Allocate@PAVCHostWnd@@@std@@YAPAPAVCHostWnd@@IPAPAV1@@Z ; std::_Allocate<CHostWnd *>
  00019	83 c4 08	 add	 esp, 8

; 138  : 		}

  0001c	83 c4 04	 add	 esp, 4
  0001f	3b ec		 cmp	 ebp, esp
  00021	e8 00 00 00 00	 call	 __RTC_CheckEsp
  00026	8b e5		 mov	 esp, ebp
  00028	5d		 pop	 ebp
  00029	c2 04 00	 ret	 4
?allocate@?$allocator@PAVCHostWnd@@@std@@QAEPAPAVCHostWnd@@I@Z ENDP ; std::allocator<CHostWnd *>::allocate
_TEXT	ENDS
PUBLIC	?max_size@?$allocator@PAVILyricPopupWndShowObserver@@@std@@QBEIXZ ; std::allocator<ILyricPopupWndShowObserver *>::max_size
; Function compile flags: /Odt /RTCsu
; File d:\program files (x86)\microsoft visual studio .net 2003\vc7\include\vector
;	COMDAT ?max_size@?$vector@PAVILyricPopupWndShowObserver@@V?$allocator@PAVILyricPopupWndShowObserver@@@std@@@std@@QBEIXZ
_TEXT	SEGMENT
_this$ = -4						; size = 4
?max_size@?$vector@PAVILyricPopupWndShowObserver@@V?$allocator@PAVILyricPopupWndShowObserver@@@std@@@std@@QBEIXZ PROC NEAR ; std::vector<ILyricPopupWndShowObserver *,std::allocator<ILyricPopupWndShowObserver *> >::max_size, COMDAT
; _this$ = ecx

; 520  : 		{	// return maximum possible length of sequence

  00000	55		 push	 ebp
  00001	8b ec		 mov	 ebp, esp
  00003	51		 push	 ecx
  00004	c7 45 fc cc cc
	cc cc		 mov	 DWORD PTR [ebp-4], -858993460 ; ccccccccH
  0000b	89 4d fc	 mov	 DWORD PTR _this$[ebp], ecx

; 521  : 		return (this->_Alval.max_size());

  0000e	8b 4d fc	 mov	 ecx, DWORD PTR _this$[ebp]
  00011	e8 00 00 00 00	 call	 ?max_size@?$allocator@PAVILyricPopupWndShowObserver@@@std@@QBEIXZ ; std::allocator<ILyricPopupWndShowObserver *>::max_size

; 522  : 		}

  00016	83 c4 04	 add	 esp, 4
  00019	3b ec		 cmp	 ebp, esp
  0001b	e8 00 00 00 00	 call	 __RTC_CheckEsp
  00020	8b e5		 mov	 esp, ebp
  00022	5d		 pop	 ebp
  00023	c3		 ret	 0
?max_size@?$vector@PAVILyricPopupWndShowObserver@@V?$allocator@PAVILyricPopupWndShowObserver@@@std@@@std@@QBEIXZ ENDP ; std::vector<ILyricPopupWndShowObserver *,std::allocator<ILyricPopupWndShowObserver *> >::max_size
_TEXT	ENDS
PUBLIC	??$_Destroy_range@PAVILyricPopupWndShowObserver@@V?$allocator@PAVILyricPopupWndShowObserver@@@std@@@std@@YAXPAPAVILyricPopupWndShowObserver@@0AAV?$allocator@PAVILyricPopupWndShowObserver@@@0@@Z ; std::_Destroy_range<ILyricPopupWndShowObserver *,std::allocator<ILyricPopupWndShowObserver *> >
; Function compile flags: /Odt /RTCsu
;	COMDAT ?_Destroy@?$vector@PAVILyricPopupWndShowObserver@@V?$allocator@PAVILyricPopupWndShowObserver@@@std@@@std@@IAEXPAPAVILyricPopupWndShowObserver@@0@Z
_TEXT	SEGMENT
_this$ = -4						; size = 4
__First$ = 8						; size = 4
__Last$ = 12						; size = 4
?_Destroy@?$vector@PAVILyricPopupWndShowObserver@@V?$allocator@PAVILyricPopupWndShowObserver@@@std@@@std@@IAEXPAPAVILyricPopupWndShowObserver@@0@Z PROC NEAR ; std::vector<ILyricPopupWndShowObserver *,std::allocator<ILyricPopupWndShowObserver *> >::_Destroy, COMDAT
; _this$ = ecx

; 786  : 		{	// destroy [_First, _Last) using allocator

  00000	55		 push	 ebp
  00001	8b ec		 mov	 ebp, esp
  00003	51		 push	 ecx
  00004	c7 45 fc cc cc
	cc cc		 mov	 DWORD PTR [ebp-4], -858993460 ; ccccccccH
  0000b	89 4d fc	 mov	 DWORD PTR _this$[ebp], ecx

; 787  : 		_Destroy_range(_First, _Last, this->_Alval);

  0000e	8b 45 fc	 mov	 eax, DWORD PTR _this$[ebp]
  00011	50		 push	 eax
  00012	8b 4d 0c	 mov	 ecx, DWORD PTR __Last$[ebp]
  00015	51		 push	 ecx
  00016	8b 55 08	 mov	 edx, DWORD PTR __First$[ebp]
  00019	52		 push	 edx
  0001a	e8 00 00 00 00	 call	 ??$_Destroy_range@PAVILyricPopupWndShowObserver@@V?$allocator@PAVILyricPopupWndShowObserver@@@std@@@std@@YAXPAPAVILyricPopupWndShowObserver@@0AAV?$allocator@PAVILyricPopupWndShowObserver@@@0@@Z ; std::_Destroy_range<ILyricPopupWndShowObserver *,std::allocator<ILyricPopupWndShowObserver *> >
  0001f	83 c4 0c	 add	 esp, 12			; 0000000cH

; 788  : 		}

  00022	83 c4 04	 add	 esp, 4
  00025	3b ec		 cmp	 ebp, esp
  00027	e8 00 00 00 00	 call	 __RTC_CheckEsp
  0002c	8b e5		 mov	 esp, ebp
  0002e	5d		 pop	 ebp
  0002f	c2 08 00	 ret	 8
?_Destroy@?$vector@PAVILyricPopupWndShowObserver@@V?$allocator@PAVILyricPopupWndShowObserver@@@std@@@std@@IAEXPAPAVILyricPopupWndShowObserver@@0@Z ENDP ; std::vector<ILyricPopupWndShowObserver *,std::allocator<ILyricPopupWndShowObserver *> >::_Destroy
_TEXT	ENDS
;	COMDAT xdata$x
xdata$x	SEGMENT
$T192491 DD	0ffffffffH
	DD	FLAT:$L192487
$T192489 DD	019930520H
	DD	01H
	DD	FLAT:$T192491
	DD	2 DUP(00H)
	DD	2 DUP(00H)
; Function compile flags: /Odt /RTCsu
xdata$x	ENDS
;	COMDAT ?_Xlen@?$vector@PAVILyricPopupWndShowObserver@@V?$allocator@PAVILyricPopupWndShowObserver@@@std@@@std@@IBEXXZ
_TEXT	SEGMENT
$T192486 = -84						; size = 28
$T192485 = -56						; size = 40
_this$ = -16						; size = 4
__$EHRec$ = -12						; size = 12
?_Xlen@?$vector@PAVILyricPopupWndShowObserver@@V?$allocator@PAVILyricPopupWndShowObserver@@@std@@@std@@IBEXXZ PROC NEAR ; std::vector<ILyricPopupWndShowObserver *,std::allocator<ILyricPopupWndShowObserver *> >::_Xlen, COMDAT
; _this$ = ecx

; 883  : 		{	// report a length_error

  00000	55		 push	 ebp
  00001	8b ec		 mov	 ebp, esp
  00003	6a ff		 push	 -1
  00005	68 00 00 00 00	 push	 __ehhandler$?_Xlen@?$vector@PAVILyricPopupWndShowObserver@@V?$allocator@PAVILyricPopupWndShowObserver@@@std@@@std@@IBEXXZ
  0000a	64 a1 00 00 00
	00		 mov	 eax, DWORD PTR fs:__except_list
  00010	50		 push	 eax
  00011	64 89 25 00 00
	00 00		 mov	 DWORD PTR fs:__except_list, esp
  00018	83 ec 48	 sub	 esp, 72			; 00000048H
  0001b	56		 push	 esi
  0001c	57		 push	 edi
  0001d	51		 push	 ecx
  0001e	8d 7d ac	 lea	 edi, DWORD PTR [ebp-84]
  00021	b9 12 00 00 00	 mov	 ecx, 18			; 00000012H
  00026	b8 cc cc cc cc	 mov	 eax, -858993460		; ccccccccH
  0002b	f3 ab		 rep stosd
  0002d	59		 pop	 ecx
  0002e	89 4d f0	 mov	 DWORD PTR _this$[ebp], ecx

; 884  : 		_THROW(length_error, "vector<T> too long");

  00031	8b f4		 mov	 esi, esp
  00033	68 00 00 00 00	 push	 OFFSET FLAT:??_C@_0BD@OLBABOEK@vector?$DMT?$DO?5too?5long?$AA@
  00038	8d 4d ac	 lea	 ecx, DWORD PTR $T192486[ebp]
  0003b	ff 15 00 00 00
	00		 call	 DWORD PTR __imp_??0?$basic_string@DU?$char_traits@D@std@@V?$allocator@D@2@@std@@QAE@PBD@Z
  00041	3b f4		 cmp	 esi, esp
  00043	e8 00 00 00 00	 call	 __RTC_CheckEsp
  00048	c7 45 fc 00 00
	00 00		 mov	 DWORD PTR __$EHRec$[ebp+8], 0
  0004f	8d 45 ac	 lea	 eax, DWORD PTR $T192486[ebp]
  00052	50		 push	 eax
  00053	8d 4d c8	 lea	 ecx, DWORD PTR $T192485[ebp]
  00056	e8 00 00 00 00	 call	 ??0length_error@std@@QAE@ABV?$basic_string@DU?$char_traits@D@std@@V?$allocator@D@2@@1@@Z ; std::length_error::length_error
  0005b	68 00 00 00 00	 push	 OFFSET FLAT:__TI3?AVlength_error@std@@
  00060	8d 4d c8	 lea	 ecx, DWORD PTR $T192485[ebp]
  00063	51		 push	 ecx
  00064	e8 00 00 00 00	 call	 __CxxThrowException@8
$L192484:

; 885  : 		}

  00069	8b 4d f4	 mov	 ecx, DWORD PTR __$EHRec$[ebp]
  0006c	64 89 0d 00 00
	00 00		 mov	 DWORD PTR fs:__except_list, ecx
  00073	5f		 pop	 edi
  00074	5e		 pop	 esi
  00075	83 c4 54	 add	 esp, 84			; 00000054H
  00078	3b ec		 cmp	 ebp, esp
  0007a	e8 00 00 00 00	 call	 __RTC_CheckEsp
  0007f	8b e5		 mov	 esp, ebp
  00081	5d		 pop	 ebp
  00082	c3		 ret	 0
_TEXT	ENDS
;	COMDAT text$x
text$x	SEGMENT
$L192487:
  00000	8b f4		 mov	 esi, esp
  00002	8d 4d ac	 lea	 ecx, DWORD PTR $T192486[ebp]
  00005	ff 15 00 00 00
	00		 call	 DWORD PTR __imp_??1?$basic_string@DU?$char_traits@D@std@@V?$allocator@D@2@@std@@QAE@XZ
  0000b	3b f4		 cmp	 esi, esp
  0000d	e9 00 00 00 00	 jmp	 __RTC_CheckEsp
__ehhandler$?_Xlen@?$vector@PAVILyricPopupWndShowObserver@@V?$allocator@PAVILyricPopupWndShowObserver@@@std@@@std@@IBEXXZ:
  00012	b8 00 00 00 00	 mov	 eax, OFFSET FLAT:$T192489
  00017	e9 00 00 00 00	 jmp	 ___CxxFrameHandler
text$x	ENDS
?_Xlen@?$vector@PAVILyricPopupWndShowObserver@@V?$allocator@PAVILyricPopupWndShowObserver@@@std@@@std@@IBEXXZ ENDP ; std::vector<ILyricPopupWndShowObserver *,std::allocator<ILyricPopupWndShowObserver *> >::_Xlen
; Function compile flags: /Odt /RTCsu
; File d:\program files (x86)\microsoft visual studio .net 2003\vc7\include\xmemory
;	COMDAT ??0?$allocator@PAVILyricPopupWndShowObserver@@@std@@QAE@ABV01@@Z
_TEXT	SEGMENT
_this$ = -4						; size = 4
___formal$ = 8						; size = 4
??0?$allocator@PAVILyricPopupWndShowObserver@@@std@@QAE@ABV01@@Z PROC NEAR ; std::allocator<ILyricPopupWndShowObserver *>::allocator<ILyricPopupWndShowObserver *>, COMDAT
; _this$ = ecx

; 115  : 	allocator(const allocator<_Ty>&)

  00000	55		 push	 ebp
  00001	8b ec		 mov	 ebp, esp
  00003	51		 push	 ecx
  00004	c7 45 fc cc cc
	cc cc		 mov	 DWORD PTR [ebp-4], -858993460 ; ccccccccH
  0000b	89 4d fc	 mov	 DWORD PTR _this$[ebp], ecx

; 116  : 		{	// construct by copying (do nothing)
; 117  : 		}

  0000e	8b 45 fc	 mov	 eax, DWORD PTR _this$[ebp]
  00011	8b e5		 mov	 esp, ebp
  00013	5d		 pop	 ebp
  00014	c2 04 00	 ret	 4
??0?$allocator@PAVILyricPopupWndShowObserver@@@std@@QAE@ABV01@@Z ENDP ; std::allocator<ILyricPopupWndShowObserver *>::allocator<ILyricPopupWndShowObserver *>
; Function compile flags: /Odt /RTCsu
_TEXT	ENDS
;	COMDAT ?deallocate@?$allocator@PAVILyricPopupWndShowObserver@@@std@@QAEXPAPAVILyricPopupWndShowObserver@@I@Z
_TEXT	SEGMENT
_this$ = -4						; size = 4
__Ptr$ = 8						; size = 4
___formal$ = 12						; size = 4
?deallocate@?$allocator@PAVILyricPopupWndShowObserver@@@std@@QAEXPAPAVILyricPopupWndShowObserver@@I@Z PROC NEAR ; std::allocator<ILyricPopupWndShowObserver *>::deallocate, COMDAT
; _this$ = ecx

; 131  : 		{	// deallocate object at _Ptr, ignore size

  00000	55		 push	 ebp
  00001	8b ec		 mov	 ebp, esp
  00003	51		 push	 ecx
  00004	c7 45 fc cc cc
	cc cc		 mov	 DWORD PTR [ebp-4], -858993460 ; ccccccccH
  0000b	89 4d fc	 mov	 DWORD PTR _this$[ebp], ecx

; 132  : 		operator delete(_Ptr);

  0000e	8b 45 08	 mov	 eax, DWORD PTR __Ptr$[ebp]
  00011	50		 push	 eax
  00012	e8 00 00 00 00	 call	 ??3@YAXPAX@Z		; operator delete
  00017	83 c4 04	 add	 esp, 4

; 133  : 		}

  0001a	83 c4 04	 add	 esp, 4
  0001d	3b ec		 cmp	 ebp, esp
  0001f	e8 00 00 00 00	 call	 __RTC_CheckEsp
  00024	8b e5		 mov	 esp, ebp
  00026	5d		 pop	 ebp
  00027	c2 08 00	 ret	 8
?deallocate@?$allocator@PAVILyricPopupWndShowObserver@@@std@@QAEXPAPAVILyricPopupWndShowObserver@@I@Z ENDP ; std::allocator<ILyricPopupWndShowObserver *>::deallocate
_TEXT	ENDS
PUBLIC	??$_Allocate@PAVILyricPopupWndShowObserver@@@std@@YAPAPAVILyricPopupWndShowObserver@@IPAPAV1@@Z ; std::_Allocate<ILyricPopupWndShowObserver *>
; Function compile flags: /Odt /RTCsu
;	COMDAT ?allocate@?$allocator@PAVILyricPopupWndShowObserver@@@std@@QAEPAPAVILyricPopupWndShowObserver@@I@Z
_TEXT	SEGMENT
_this$ = -4						; size = 4
__Count$ = 8						; size = 4
?allocate@?$allocator@PAVILyricPopupWndShowObserver@@@std@@QAEPAPAVILyricPopupWndShowObserver@@I@Z PROC NEAR ; std::allocator<ILyricPopupWndShowObserver *>::allocate, COMDAT
; _this$ = ecx

; 136  : 		{	// allocate array of _Count elements

  00000	55		 push	 ebp
  00001	8b ec		 mov	 ebp, esp
  00003	51		 push	 ecx
  00004	c7 45 fc cc cc
	cc cc		 mov	 DWORD PTR [ebp-4], -858993460 ; ccccccccH
  0000b	89 4d fc	 mov	 DWORD PTR _this$[ebp], ecx

; 137  : 		return (_Allocate(_Count, (pointer)0));

  0000e	6a 00		 push	 0
  00010	8b 45 08	 mov	 eax, DWORD PTR __Count$[ebp]
  00013	50		 push	 eax
  00014	e8 00 00 00 00	 call	 ??$_Allocate@PAVILyricPopupWndShowObserver@@@std@@YAPAPAVILyricPopupWndShowObserver@@IPAPAV1@@Z ; std::_Allocate<ILyricPopupWndShowObserver *>
  00019	83 c4 08	 add	 esp, 8

; 138  : 		}

  0001c	83 c4 04	 add	 esp, 4
  0001f	3b ec		 cmp	 ebp, esp
  00021	e8 00 00 00 00	 call	 __RTC_CheckEsp
  00026	8b e5		 mov	 esp, ebp
  00028	5d		 pop	 ebp
  00029	c2 04 00	 ret	 4
?allocate@?$allocator@PAVILyricPopupWndShowObserver@@@std@@QAEPAPAVILyricPopupWndShowObserver@@I@Z ENDP ; std::allocator<ILyricPopupWndShowObserver *>::allocate
_TEXT	ENDS
PUBLIC	??0const_iterator@?$_Tree@V?$_Tmap_traits@PAUHWND__@@UCWndData@@U?$less@PAUHWND__@@@std@@V?$allocator@U?$pair@QAUHWND__@@UCWndData@@@std@@@4@$0A@@std@@@std@@QAE@XZ ; std::_Tree<std::_Tmap_traits<HWND__ *,CWndData,std::less<HWND__ *>,std::allocator<std::pair<HWND__ * const,CWndData> >,0> >::const_iterator::const_iterator
; Function compile flags: /Odt /RTCsu
; File d:\program files (x86)\microsoft visual studio .net 2003\vc7\include\xtree
;	COMDAT ??0iterator@?$_Tree@V?$_Tmap_traits@PAUHWND__@@UCWndData@@U?$less@PAUHWND__@@@std@@V?$allocator@U?$pair@QAUHWND__@@UCWndData@@@std@@@4@$0A@@std@@@std@@QAE@XZ
_TEXT	SEGMENT
_this$ = -4						; size = 4
??0iterator@?$_Tree@V?$_Tmap_traits@PAUHWND__@@UCWndData@@U?$less@PAUHWND__@@@std@@V?$allocator@U?$pair@QAUHWND__@@UCWndData@@@std@@@4@$0A@@std@@@std@@QAE@XZ PROC NEAR ; std::_Tree<std::_Tmap_traits<HWND__ *,CWndData,std::less<HWND__ *>,std::allocator<std::pair<HWND__ * const,CWndData> >,0> >::iterator::iterator, COMDAT
; _this$ = ecx

; 304  : 		iterator()

  00000	55		 push	 ebp
  00001	8b ec		 mov	 ebp, esp
  00003	51		 push	 ecx
  00004	c7 45 fc cc cc
	cc cc		 mov	 DWORD PTR [ebp-4], -858993460 ; ccccccccH
  0000b	89 4d fc	 mov	 DWORD PTR _this$[ebp], ecx
  0000e	8b 4d fc	 mov	 ecx, DWORD PTR _this$[ebp]
  00011	e8 00 00 00 00	 call	 ??0const_iterator@?$_Tree@V?$_Tmap_traits@PAUHWND__@@UCWndData@@U?$less@PAUHWND__@@@std@@V?$allocator@U?$pair@QAUHWND__@@UCWndData@@@std@@@4@$0A@@std@@@std@@QAE@XZ ; std::_Tree<std::_Tmap_traits<HWND__ *,CWndData,std::less<HWND__ *>,std::allocator<std::pair<HWND__ * const,CWndData> >,0> >::const_iterator::const_iterator

; 305  : 			{	// construct with null node pointer
; 306  : 			}

  00016	8b 45 fc	 mov	 eax, DWORD PTR _this$[ebp]
  00019	83 c4 04	 add	 esp, 4
  0001c	3b ec		 cmp	 ebp, esp
  0001e	e8 00 00 00 00	 call	 __RTC_CheckEsp
  00023	8b e5		 mov	 esp, ebp
  00025	5d		 pop	 ebp
  00026	c3		 ret	 0
??0iterator@?$_Tree@V?$_Tmap_traits@PAUHWND__@@UCWndData@@U?$less@PAUHWND__@@@std@@V?$allocator@U?$pair@QAUHWND__@@UCWndData@@@std@@@4@$0A@@std@@@std@@QAE@XZ ENDP ; std::_Tree<std::_Tmap_traits<HWND__ *,CWndData,std::less<HWND__ *>,std::allocator<std::pair<HWND__ * const,CWndData> >,0> >::iterator::iterator
_TEXT	ENDS
PUBLIC	??Fconst_iterator@?$_Tree@V?$_Tmap_traits@PAUHWND__@@UCWndData@@U?$less@PAUHWND__@@@std@@V?$allocator@U?$pair@QAUHWND__@@UCWndData@@@std@@@4@$0A@@std@@@std@@QAEAAV012@XZ ; std::_Tree<std::_Tmap_traits<HWND__ *,CWndData,std::less<HWND__ *>,std::allocator<std::pair<HWND__ * const,CWndData> >,0> >::const_iterator::operator--
; Function compile flags: /Odt /RTCsu
;	COMDAT ??Fiterator@?$_Tree@V?$_Tmap_traits@PAUHWND__@@UCWndData@@U?$less@PAUHWND__@@@std@@V?$allocator@U?$pair@QAUHWND__@@UCWndData@@@std@@@4@$0A@@std@@@std@@QAEAAV012@XZ
_TEXT	SEGMENT
_this$ = -4						; size = 4
??Fiterator@?$_Tree@V?$_Tmap_traits@PAUHWND__@@UCWndData@@U?$less@PAUHWND__@@@std@@V?$allocator@U?$pair@QAUHWND__@@UCWndData@@@std@@@4@$0A@@std@@@std@@QAEAAV012@XZ PROC NEAR ; std::_Tree<std::_Tmap_traits<HWND__ *,CWndData,std::less<HWND__ *>,std::allocator<std::pair<HWND__ * const,CWndData> >,0> >::iterator::operator--, COMDAT
; _this$ = ecx

; 339  : 			{	// predecrement

  00000	55		 push	 ebp
  00001	8b ec		 mov	 ebp, esp
  00003	51		 push	 ecx
  00004	c7 45 fc cc cc
	cc cc		 mov	 DWORD PTR [ebp-4], -858993460 ; ccccccccH
  0000b	89 4d fc	 mov	 DWORD PTR _this$[ebp], ecx

; 340  : 			--(*(const_iterator *)this);

  0000e	8b 4d fc	 mov	 ecx, DWORD PTR _this$[ebp]
  00011	e8 00 00 00 00	 call	 ??Fconst_iterator@?$_Tree@V?$_Tmap_traits@PAUHWND__@@UCWndData@@U?$less@PAUHWND__@@@std@@V?$allocator@U?$pair@QAUHWND__@@UCWndData@@@std@@@4@$0A@@std@@@std@@QAEAAV012@XZ ; std::_Tree<std::_Tmap_traits<HWND__ *,CWndData,std::less<HWND__ *>,std::allocator<std::pair<HWND__ * const,CWndData> >,0> >::const_iterator::operator--

; 341  : 			return (*this);

  00016	8b 45 fc	 mov	 eax, DWORD PTR _this$[ebp]

; 342  : 			}

  00019	83 c4 04	 add	 esp, 4
  0001c	3b ec		 cmp	 ebp, esp
  0001e	e8 00 00 00 00	 call	 __RTC_CheckEsp
  00023	8b e5		 mov	 esp, ebp
  00025	5d		 pop	 ebp
  00026	c3		 ret	 0
??Fiterator@?$_Tree@V?$_Tmap_traits@PAUHWND__@@UCWndData@@U?$less@PAUHWND__@@@std@@V?$allocator@U?$pair@QAUHWND__@@UCWndData@@@std@@@4@$0A@@std@@@std@@QAEAAV012@XZ ENDP ; std::_Tree<std::_Tmap_traits<HWND__ *,CWndData,std::less<HWND__ *>,std::allocator<std::pair<HWND__ * const,CWndData> >,0> >::iterator::operator--
; Function compile flags: /Odt /RTCsu
_TEXT	ENDS
;	COMDAT ??0const_iterator@?$_Tree@V?$_Tmap_traits@PAUHWND__@@UCWndData@@U?$less@PAUHWND__@@@std@@V?$allocator@U?$pair@QAUHWND__@@UCWndData@@@std@@@4@$0A@@std@@@std@@QAE@PAU_Node@?$_Tree_nod@V?$_Tmap_traits@PAUHWND__@@UCWndData@@U?$less@PAUHWND__@@@std@@V?$allocator@U?$pair@QAUHWND__@@UCWndData@@@std@@@4@$0A@@std@@@2@@Z
_TEXT	SEGMENT
_this$ = -4						; size = 4
__Pnode$ = 8						; size = 4
??0const_iterator@?$_Tree@V?$_Tmap_traits@PAUHWND__@@UCWndData@@U?$less@PAUHWND__@@@std@@V?$allocator@U?$pair@QAUHWND__@@UCWndData@@@std@@@4@$0A@@std@@@std@@QAE@PAU_Node@?$_Tree_nod@V?$_Tmap_traits@PAUHWND__@@UCWndData@@U?$less@PAUHWND__@@@std@@V?$allocator@U?$pair@QAUHWND__@@UCWndData@@@std@@@4@$0A@@std@@@2@@Z PROC NEAR ; std::_Tree<std::_Tmap_traits<HWND__ *,CWndData,std::less<HWND__ *>,std::allocator<std::pair<HWND__ * const,CWndData> >,0> >::const_iterator::const_iterator, COMDAT
; _this$ = ecx

; 200  : 			{	// construct with node pointer _Pnode

  00000	55		 push	 ebp
  00001	8b ec		 mov	 ebp, esp
  00003	51		 push	 ecx
  00004	c7 45 fc cc cc
	cc cc		 mov	 DWORD PTR [ebp-4], -858993460 ; ccccccccH
  0000b	89 4d fc	 mov	 DWORD PTR _this$[ebp], ecx
  0000e	8b 45 fc	 mov	 eax, DWORD PTR _this$[ebp]
  00011	8b 4d 08	 mov	 ecx, DWORD PTR __Pnode$[ebp]
  00014	89 08		 mov	 DWORD PTR [eax], ecx

; 201  : 			}

  00016	8b 45 fc	 mov	 eax, DWORD PTR _this$[ebp]
  00019	8b e5		 mov	 esp, ebp
  0001b	5d		 pop	 ebp
  0001c	c2 04 00	 ret	 4
??0const_iterator@?$_Tree@V?$_Tmap_traits@PAUHWND__@@UCWndData@@U?$less@PAUHWND__@@@std@@V?$allocator@U?$pair@QAUHWND__@@UCWndData@@@std@@@4@$0A@@std@@@std@@QAE@PAU_Node@?$_Tree_nod@V?$_Tmap_traits@PAUHWND__@@UCWndData@@U?$less@PAUHWND__@@@std@@V?$allocator@U?$pair@QAUHWND__@@UCWndData@@@std@@@4@$0A@@std@@@2@@Z ENDP ; std::_Tree<std::_Tmap_traits<HWND__ *,CWndData,std::less<HWND__ *>,std::allocator<std::pair<HWND__ * const,CWndData> >,0> >::const_iterator::const_iterator
; Function compile flags: /Odt /RTCsu
_TEXT	ENDS
;	COMDAT ??Dconst_iterator@?$_Tree@V?$_Tmap_traits@PAUHWND__@@UCWndData@@U?$less@PAUHWND__@@@std@@V?$allocator@U?$pair@QAUHWND__@@UCWndData@@@std@@@4@$0A@@std@@@std@@QBEABU?$pair@QAUHWND__@@UCWndData@@@2@XZ
_TEXT	SEGMENT
_this$ = -4						; size = 4
??Dconst_iterator@?$_Tree@V?$_Tmap_traits@PAUHWND__@@UCWndData@@U?$less@PAUHWND__@@@std@@V?$allocator@U?$pair@QAUHWND__@@UCWndData@@@std@@@4@$0A@@std@@@std@@QBEABU?$pair@QAUHWND__@@UCWndData@@@2@XZ PROC NEAR ; std::_Tree<std::_Tmap_traits<HWND__ *,CWndData,std::less<HWND__ *>,std::allocator<std::pair<HWND__ * const,CWndData> >,0> >::const_iterator::operator*, COMDAT
; _this$ = ecx

; 204  : 			{	// return designated value

  00000	55		 push	 ebp
  00001	8b ec		 mov	 ebp, esp
  00003	51		 push	 ecx
  00004	c7 45 fc cc cc
	cc cc		 mov	 DWORD PTR [ebp-4], -858993460 ; ccccccccH
  0000b	89 4d fc	 mov	 DWORD PTR _this$[ebp], ecx

; 205  : 			return (_Myval(_Ptr));

  0000e	8b 45 fc	 mov	 eax, DWORD PTR _this$[ebp]
  00011	8b 08		 mov	 ecx, DWORD PTR [eax]
  00013	51		 push	 ecx
  00014	e8 00 00 00 00	 call	 ?_Myval@?$_Tree@V?$_Tmap_traits@PAUHWND__@@UCWndData@@U?$less@PAUHWND__@@@std@@V?$allocator@U?$pair@QAUHWND__@@UCWndData@@@std@@@4@$0A@@std@@@std@@KAAAU?$pair@QAUHWND__@@UCWndData@@@2@PAU_Node@?$_Tree_nod@V?$_Tmap_traits@PAUHWND__@@UCWndData@@U?$less@PAUHWND__@@@std@@V?$allocator@U?$pair@QAUHWND__@@UCWndData@@@std@@@4@$0A@@std@@@2@@Z ; std::_Tree<std::_Tmap_traits<HWND__ *,CWndData,std::less<HWND__ *>,std::allocator<std::pair<HWND__ * const,CWndData> >,0> >::_Myval
  00019	83 c4 04	 add	 esp, 4

; 206  : 			}

  0001c	83 c4 04	 add	 esp, 4
  0001f	3b ec		 cmp	 ebp, esp
  00021	e8 00 00 00 00	 call	 __RTC_CheckEsp
  00026	8b e5		 mov	 esp, ebp
  00028	5d		 pop	 ebp
  00029	c3		 ret	 0
??Dconst_iterator@?$_Tree@V?$_Tmap_traits@PAUHWND__@@UCWndData@@U?$less@PAUHWND__@@@std@@V?$allocator@U?$pair@QAUHWND__@@UCWndData@@@std@@@4@$0A@@std@@@std@@QBEABU?$pair@QAUHWND__@@UCWndData@@@2@XZ ENDP ; std::_Tree<std::_Tmap_traits<HWND__ *,CWndData,std::less<HWND__ *>,std::allocator<std::pair<HWND__ * const,CWndData> >,0> >::const_iterator::operator*
_TEXT	ENDS
PUBLIC	?_Inc@const_iterator@?$_Tree@V?$_Tmap_traits@PAUHWND__@@UCWndData@@U?$less@PAUHWND__@@@std@@V?$allocator@U?$pair@QAUHWND__@@UCWndData@@@std@@@4@$0A@@std@@@std@@QAEXXZ ; std::_Tree<std::_Tmap_traits<HWND__ *,CWndData,std::less<HWND__ *>,std::allocator<std::pair<HWND__ * const,CWndData> >,0> >::const_iterator::_Inc
; Function compile flags: /Odt /RTCsu
;	COMDAT ??Econst_iterator@?$_Tree@V?$_Tmap_traits@PAUHWND__@@UCWndData@@U?$less@PAUHWND__@@@std@@V?$allocator@U?$pair@QAUHWND__@@UCWndData@@@std@@@4@$0A@@std@@@std@@QAEAAV012@XZ
_TEXT	SEGMENT
_this$ = -4						; size = 4
??Econst_iterator@?$_Tree@V?$_Tmap_traits@PAUHWND__@@UCWndData@@U?$less@PAUHWND__@@@std@@V?$allocator@U?$pair@QAUHWND__@@UCWndData@@@std@@@4@$0A@@std@@@std@@QAEAAV012@XZ PROC NEAR ; std::_Tree<std::_Tmap_traits<HWND__ *,CWndData,std::less<HWND__ *>,std::allocator<std::pair<HWND__ * const,CWndData> >,0> >::const_iterator::operator++, COMDAT
; _this$ = ecx

; 214  : 			{	// preincrement

  00000	55		 push	 ebp
  00001	8b ec		 mov	 ebp, esp
  00003	51		 push	 ecx
  00004	c7 45 fc cc cc
	cc cc		 mov	 DWORD PTR [ebp-4], -858993460 ; ccccccccH
  0000b	89 4d fc	 mov	 DWORD PTR _this$[ebp], ecx

; 215  : 			_Inc();

  0000e	8b 4d fc	 mov	 ecx, DWORD PTR _this$[ebp]
  00011	e8 00 00 00 00	 call	 ?_Inc@const_iterator@?$_Tree@V?$_Tmap_traits@PAUHWND__@@UCWndData@@U?$less@PAUHWND__@@@std@@V?$allocator@U?$pair@QAUHWND__@@UCWndData@@@std@@@4@$0A@@std@@@std@@QAEXXZ ; std::_Tree<std::_Tmap_traits<HWND__ *,CWndData,std::less<HWND__ *>,std::allocator<std::pair<HWND__ * const,CWndData> >,0> >::const_iterator::_Inc

; 216  : 			return (*this);

  00016	8b 45 fc	 mov	 eax, DWORD PTR _this$[ebp]

; 217  : 			}

  00019	83 c4 04	 add	 esp, 4
  0001c	3b ec		 cmp	 ebp, esp
  0001e	e8 00 00 00 00	 call	 __RTC_CheckEsp
  00023	8b e5		 mov	 esp, ebp
  00025	5d		 pop	 ebp
  00026	c3		 ret	 0
??Econst_iterator@?$_Tree@V?$_Tmap_traits@PAUHWND__@@UCWndData@@U?$less@PAUHWND__@@@std@@V?$allocator@U?$pair@QAUHWND__@@UCWndData@@@std@@@4@$0A@@std@@@std@@QAEAAV012@XZ ENDP ; std::_Tree<std::_Tmap_traits<HWND__ *,CWndData,std::less<HWND__ *>,std::allocator<std::pair<HWND__ * const,CWndData> >,0> >::const_iterator::operator++
_TEXT	ENDS
PUBLIC	??0const_iterator@?$vector@PAVCHostWnd@@V?$allocator@PAVCHostWnd@@@std@@@std@@QAE@PAPAVCHostWnd@@@Z ; std::vector<CHostWnd *,std::allocator<CHostWnd *> >::const_iterator::const_iterator
; Function compile flags: /Odt /RTCsu
; File d:\program files (x86)\microsoft visual studio .net 2003\vc7\include\vector
;	COMDAT ??0iterator@?$vector@PAVCHostWnd@@V?$allocator@PAVCHostWnd@@@std@@@std@@QAE@PAPAVCHostWnd@@@Z
_TEXT	SEGMENT
_this$ = -4						; size = 4
__Ptr$ = 8						; size = 4
??0iterator@?$vector@PAVCHostWnd@@V?$allocator@PAVCHostWnd@@@std@@@std@@QAE@PAPAVCHostWnd@@@Z PROC NEAR ; std::vector<CHostWnd *,std::allocator<CHostWnd *> >::iterator::iterator, COMDAT
; _this$ = ecx

; 215  : 			{	// construct with pointer _Ptr

  00000	55		 push	 ebp
  00001	8b ec		 mov	 ebp, esp
  00003	51		 push	 ecx
  00004	c7 45 fc cc cc
	cc cc		 mov	 DWORD PTR [ebp-4], -858993460 ; ccccccccH
  0000b	89 4d fc	 mov	 DWORD PTR _this$[ebp], ecx
  0000e	8b 45 08	 mov	 eax, DWORD PTR __Ptr$[ebp]
  00011	50		 push	 eax
  00012	8b 4d fc	 mov	 ecx, DWORD PTR _this$[ebp]
  00015	e8 00 00 00 00	 call	 ??0const_iterator@?$vector@PAVCHostWnd@@V?$allocator@PAVCHostWnd@@@std@@@std@@QAE@PAPAVCHostWnd@@@Z ; std::vector<CHostWnd *,std::allocator<CHostWnd *> >::const_iterator::const_iterator

; 216  : 			}

  0001a	8b 45 fc	 mov	 eax, DWORD PTR _this$[ebp]
  0001d	83 c4 04	 add	 esp, 4
  00020	3b ec		 cmp	 ebp, esp
  00022	e8 00 00 00 00	 call	 __RTC_CheckEsp
  00027	8b e5		 mov	 esp, ebp
  00029	5d		 pop	 ebp
  0002a	c2 04 00	 ret	 4
??0iterator@?$vector@PAVCHostWnd@@V?$allocator@PAVCHostWnd@@@std@@@std@@QAE@PAPAVCHostWnd@@@Z ENDP ; std::vector<CHostWnd *,std::allocator<CHostWnd *> >::iterator::iterator
; Function compile flags: /Odt /RTCsu
_TEXT	ENDS
;	COMDAT ??Yiterator@?$vector@PAVCHostWnd@@V?$allocator@PAVCHostWnd@@@std@@@std@@QAEAAV012@H@Z
_TEXT	SEGMENT
_this$ = -4						; size = 4
__Off$ = 8						; size = 4
??Yiterator@?$vector@PAVCHostWnd@@V?$allocator@PAVCHostWnd@@@std@@@std@@QAEAAV012@H@Z PROC NEAR ; std::vector<CHostWnd *,std::allocator<CHostWnd *> >::iterator::operator+=, COMDAT
; _this$ = ecx

; 255  : 			{	// increment by integer

  00000	55		 push	 ebp
  00001	8b ec		 mov	 ebp, esp
  00003	51		 push	 ecx
  00004	c7 45 fc cc cc
	cc cc		 mov	 DWORD PTR [ebp-4], -858993460 ; ccccccccH
  0000b	89 4d fc	 mov	 DWORD PTR _this$[ebp], ecx

; 256  : 			this->_Myptr += _Off;

  0000e	8b 45 fc	 mov	 eax, DWORD PTR _this$[ebp]
  00011	8b 08		 mov	 ecx, DWORD PTR [eax]
  00013	8b 55 08	 mov	 edx, DWORD PTR __Off$[ebp]
  00016	8d 04 91	 lea	 eax, DWORD PTR [ecx+edx*4]
  00019	8b 4d fc	 mov	 ecx, DWORD PTR _this$[ebp]
  0001c	89 01		 mov	 DWORD PTR [ecx], eax

; 257  : 			return (*this);

  0001e	8b 45 fc	 mov	 eax, DWORD PTR _this$[ebp]

; 258  : 			}

  00021	8b e5		 mov	 esp, ebp
  00023	5d		 pop	 ebp
  00024	c2 04 00	 ret	 4
??Yiterator@?$vector@PAVCHostWnd@@V?$allocator@PAVCHostWnd@@@std@@@std@@QAEAAV012@H@Z ENDP ; std::vector<CHostWnd *,std::allocator<CHostWnd *> >::iterator::operator+=
_TEXT	ENDS
PUBLIC	??Gconst_iterator@?$vector@PAVCHostWnd@@V?$allocator@PAVCHostWnd@@@std@@@std@@QBEHABV012@@Z ; std::vector<CHostWnd *,std::allocator<CHostWnd *> >::const_iterator::operator-
; Function compile flags: /Odt /RTCsu
;	COMDAT ??Giterator@?$vector@PAVCHostWnd@@V?$allocator@PAVCHostWnd@@@std@@@std@@QBEHABVconst_iterator@12@@Z
_TEXT	SEGMENT
$T192505 = -8						; size = 4
_this$ = -4						; size = 4
__Right$ = 8						; size = 4
??Giterator@?$vector@PAVCHostWnd@@V?$allocator@PAVCHostWnd@@@std@@@std@@QBEHABVconst_iterator@12@@Z PROC NEAR ; std::vector<CHostWnd *,std::allocator<CHostWnd *> >::iterator::operator-, COMDAT
; _this$ = ecx

; 278  : 			{	// return difference of iterators

  00000	55		 push	 ebp
  00001	8b ec		 mov	 ebp, esp
  00003	83 ec 08	 sub	 esp, 8
  00006	c7 45 f8 cc cc
	cc cc		 mov	 DWORD PTR [ebp-8], -858993460 ; ccccccccH
  0000d	c7 45 fc cc cc
	cc cc		 mov	 DWORD PTR [ebp-4], -858993460 ; ccccccccH
  00014	89 4d fc	 mov	 DWORD PTR _this$[ebp], ecx

; 279  : 			return ((const_iterator)*this - _Right);

  00017	8b 45 fc	 mov	 eax, DWORD PTR _this$[ebp]
  0001a	8b 08		 mov	 ecx, DWORD PTR [eax]
  0001c	89 4d f8	 mov	 DWORD PTR $T192505[ebp], ecx
  0001f	8b 55 08	 mov	 edx, DWORD PTR __Right$[ebp]
  00022	52		 push	 edx
  00023	8d 4d f8	 lea	 ecx, DWORD PTR $T192505[ebp]
  00026	e8 00 00 00 00	 call	 ??Gconst_iterator@?$vector@PAVCHostWnd@@V?$allocator@PAVCHostWnd@@@std@@@std@@QBEHABV012@@Z ; std::vector<CHostWnd *,std::allocator<CHostWnd *> >::const_iterator::operator-

; 280  : 			}

  0002b	83 c4 08	 add	 esp, 8
  0002e	3b ec		 cmp	 ebp, esp
  00030	e8 00 00 00 00	 call	 __RTC_CheckEsp
  00035	8b e5		 mov	 esp, ebp
  00037	5d		 pop	 ebp
  00038	c2 04 00	 ret	 4
??Giterator@?$vector@PAVCHostWnd@@V?$allocator@PAVCHostWnd@@@std@@@std@@QBEHABVconst_iterator@12@@Z ENDP ; std::vector<CHostWnd *,std::allocator<CHostWnd *> >::iterator::operator-
; Function compile flags: /Odt /RTCsu
_TEXT	ENDS
;	COMDAT ??Dconst_iterator@?$vector@PAVCHostWnd@@V?$allocator@PAVCHostWnd@@@std@@@std@@QBEABQAVCHostWnd@@XZ
_TEXT	SEGMENT
_this$ = -4						; size = 4
??Dconst_iterator@?$vector@PAVCHostWnd@@V?$allocator@PAVCHostWnd@@@std@@@std@@QBEABQAVCHostWnd@@XZ PROC NEAR ; std::vector<CHostWnd *,std::allocator<CHostWnd *> >::const_iterator::operator*, COMDAT
; _this$ = ecx

; 79   : 			{	// return designated object

  00000	55		 push	 ebp
  00001	8b ec		 mov	 ebp, esp
  00003	51		 push	 ecx
  00004	c7 45 fc cc cc
	cc cc		 mov	 DWORD PTR [ebp-4], -858993460 ; ccccccccH
  0000b	89 4d fc	 mov	 DWORD PTR _this$[ebp], ecx

; 80   : 
; 81   : 
; 82   : 			return (*_Myptr);

  0000e	8b 45 fc	 mov	 eax, DWORD PTR _this$[ebp]
  00011	8b 00		 mov	 eax, DWORD PTR [eax]

; 83   : 			}

  00013	8b e5		 mov	 esp, ebp
  00015	5d		 pop	 ebp
  00016	c3		 ret	 0
??Dconst_iterator@?$vector@PAVCHostWnd@@V?$allocator@PAVCHostWnd@@@std@@@std@@QBEABQAVCHostWnd@@XZ ENDP ; std::vector<CHostWnd *,std::allocator<CHostWnd *> >::const_iterator::operator*
_TEXT	ENDS
PUBLIC	??0const_iterator@?$vector@USepWindowData@@V?$allocator@USepWindowData@@@std@@@std@@QAE@PAUSepWindowData@@@Z ; std::vector<SepWindowData,std::allocator<SepWindowData> >::const_iterator::const_iterator
; Function compile flags: /Odt /RTCsu
;	COMDAT ??0iterator@?$vector@USepWindowData@@V?$allocator@USepWindowData@@@std@@@std@@QAE@PAUSepWindowData@@@Z
_TEXT	SEGMENT
_this$ = -4						; size = 4
__Ptr$ = 8						; size = 4
??0iterator@?$vector@USepWindowData@@V?$allocator@USepWindowData@@@std@@@std@@QAE@PAUSepWindowData@@@Z PROC NEAR ; std::vector<SepWindowData,std::allocator<SepWindowData> >::iterator::iterator, COMDAT
; _this$ = ecx

; 215  : 			{	// construct with pointer _Ptr

  00000	55		 push	 ebp
  00001	8b ec		 mov	 ebp, esp
  00003	51		 push	 ecx
  00004	c7 45 fc cc cc
	cc cc		 mov	 DWORD PTR [ebp-4], -858993460 ; ccccccccH
  0000b	89 4d fc	 mov	 DWORD PTR _this$[ebp], ecx
  0000e	8b 45 08	 mov	 eax, DWORD PTR __Ptr$[ebp]
  00011	50		 push	 eax
  00012	8b 4d fc	 mov	 ecx, DWORD PTR _this$[ebp]
  00015	e8 00 00 00 00	 call	 ??0const_iterator@?$vector@USepWindowData@@V?$allocator@USepWindowData@@@std@@@std@@QAE@PAUSepWindowData@@@Z ; std::vector<SepWindowData,std::allocator<SepWindowData> >::const_iterator::const_iterator

; 216  : 			}

  0001a	8b 45 fc	 mov	 eax, DWORD PTR _this$[ebp]
  0001d	83 c4 04	 add	 esp, 4
  00020	3b ec		 cmp	 ebp, esp
  00022	e8 00 00 00 00	 call	 __RTC_CheckEsp
  00027	8b e5		 mov	 esp, ebp
  00029	5d		 pop	 ebp
  0002a	c2 04 00	 ret	 4
??0iterator@?$vector@USepWindowData@@V?$allocator@USepWindowData@@@std@@@std@@QAE@PAUSepWindowData@@@Z ENDP ; std::vector<SepWindowData,std::allocator<SepWindowData> >::iterator::iterator
; Function compile flags: /Odt /RTCsu
_TEXT	ENDS
;	COMDAT ??Yiterator@?$vector@USepWindowData@@V?$allocator@USepWindowData@@@std@@@std@@QAEAAV012@H@Z
_TEXT	SEGMENT
_this$ = -4						; size = 4
__Off$ = 8						; size = 4
??Yiterator@?$vector@USepWindowData@@V?$allocator@USepWindowData@@@std@@@std@@QAEAAV012@H@Z PROC NEAR ; std::vector<SepWindowData,std::allocator<SepWindowData> >::iterator::operator+=, COMDAT
; _this$ = ecx

; 255  : 			{	// increment by integer

  00000	55		 push	 ebp
  00001	8b ec		 mov	 ebp, esp
  00003	51		 push	 ecx
  00004	c7 45 fc cc cc
	cc cc		 mov	 DWORD PTR [ebp-4], -858993460 ; ccccccccH
  0000b	89 4d fc	 mov	 DWORD PTR _this$[ebp], ecx

; 256  : 			this->_Myptr += _Off;

  0000e	8b 45 08	 mov	 eax, DWORD PTR __Off$[ebp]
  00011	6b c0 30	 imul	 eax, 48			; 00000030H
  00014	8b 4d fc	 mov	 ecx, DWORD PTR _this$[ebp]
  00017	03 01		 add	 eax, DWORD PTR [ecx]
  00019	8b 55 fc	 mov	 edx, DWORD PTR _this$[ebp]
  0001c	89 02		 mov	 DWORD PTR [edx], eax

; 257  : 			return (*this);

  0001e	8b 45 fc	 mov	 eax, DWORD PTR _this$[ebp]

; 258  : 			}

  00021	8b e5		 mov	 esp, ebp
  00023	5d		 pop	 ebp
  00024	c2 04 00	 ret	 4
??Yiterator@?$vector@USepWindowData@@V?$allocator@USepWindowData@@@std@@@std@@QAEAAV012@H@Z ENDP ; std::vector<SepWindowData,std::allocator<SepWindowData> >::iterator::operator+=
; Function compile flags: /Odt /RTCsu
_TEXT	ENDS
;	COMDAT ??Dconst_iterator@?$vector@USepWindowData@@V?$allocator@USepWindowData@@@std@@@std@@QBEABUSepWindowData@@XZ
_TEXT	SEGMENT
_this$ = -4						; size = 4
??Dconst_iterator@?$vector@USepWindowData@@V?$allocator@USepWindowData@@@std@@@std@@QBEABUSepWindowData@@XZ PROC NEAR ; std::vector<SepWindowData,std::allocator<SepWindowData> >::const_iterator::operator*, COMDAT
; _this$ = ecx

; 79   : 			{	// return designated object

  00000	55		 push	 ebp
  00001	8b ec		 mov	 ebp, esp
  00003	51		 push	 ecx
  00004	c7 45 fc cc cc
	cc cc		 mov	 DWORD PTR [ebp-4], -858993460 ; ccccccccH
  0000b	89 4d fc	 mov	 DWORD PTR _this$[ebp], ecx

; 80   : 
; 81   : 
; 82   : 			return (*_Myptr);

  0000e	8b 45 fc	 mov	 eax, DWORD PTR _this$[ebp]
  00011	8b 00		 mov	 eax, DWORD PTR [eax]

; 83   : 			}

  00013	8b e5		 mov	 esp, ebp
  00015	5d		 pop	 ebp
  00016	c3		 ret	 0
??Dconst_iterator@?$vector@USepWindowData@@V?$allocator@USepWindowData@@@std@@@std@@QBEABUSepWindowData@@XZ ENDP ; std::vector<SepWindowData,std::allocator<SepWindowData> >::const_iterator::operator*
_TEXT	ENDS
PUBLIC	??_R1A@?0A@A@exception@@8			; exception::`RTTI Base Class Descriptor at (0,-1,0,0)'
PUBLIC	??_R1A@?0A@A@logic_error@std@@8			; std::logic_error::`RTTI Base Class Descriptor at (0,-1,0,0)'
PUBLIC	??_R4length_error@std@@6B@			; std::length_error::`RTTI Complete Object Locator'
PUBLIC	??_R3length_error@std@@8			; std::length_error::`RTTI Class Hierarchy Descriptor'
PUBLIC	??_R2length_error@std@@8			; std::length_error::`RTTI Base Class Array'
PUBLIC	??_R1A@?0A@A@length_error@std@@8		; std::length_error::`RTTI Base Class Descriptor at (0,-1,0,0)'
PUBLIC	?what@logic_error@std@@UBEPBDXZ			; std::logic_error::what
PUBLIC	??_7length_error@std@@6B@			; std::length_error::`vftable'
PUBLIC	??_Glength_error@std@@UAEPAXI@Z			; std::length_error::`scalar deleting destructor'
EXTRN	??_Elength_error@std@@UAEPAXI@Z:NEAR		; std::length_error::`vector deleting destructor'
;	COMDAT ??_7length_error@std@@6B@
CONST	SEGMENT
??_7length_error@std@@6B@ DD FLAT:??_R4length_error@std@@6B@ ; std::length_error::`vftable'
	DD	FLAT:??_Elength_error@std@@UAEPAXI@Z
	DD	FLAT:?what@logic_error@std@@UBEPBDXZ
CONST	ENDS
;	COMDAT ??_R4length_error@std@@6B@
rdata$r	SEGMENT
??_R4length_error@std@@6B@ DD 00H			; std::length_error::`RTTI Complete Object Locator'
	DD	00H
	DD	00H
	DD	FLAT:??_R0?AVlength_error@std@@@8
	DD	FLAT:??_R3length_error@std@@8
rdata$r	ENDS
;	COMDAT ??_R3length_error@std@@8
rdata$r	SEGMENT
??_R3length_error@std@@8 DD 00H				; std::length_error::`RTTI Class Hierarchy Descriptor'
	DD	00H
	DD	03H
	DD	FLAT:??_R2length_error@std@@8
rdata$r	ENDS
;	COMDAT ??_R2length_error@std@@8
rdata$r	SEGMENT
??_R2length_error@std@@8 DD FLAT:??_R1A@?0A@A@length_error@std@@8 ; std::length_error::`RTTI Base Class Array'
	DD	FLAT:??_R1A@?0A@A@logic_error@std@@8
	DD	FLAT:??_R1A@?0A@A@exception@@8
rdata$r	ENDS
;	COMDAT ??_R1A@?0A@A@length_error@std@@8
rdata$r	SEGMENT
??_R1A@?0A@A@length_error@std@@8 DD FLAT:??_R0?AVlength_error@std@@@8 ; std::length_error::`RTTI Base Class Descriptor at (0,-1,0,0)'
	DD	02H
	DD	00H
	DD	0ffffffffH
	DD	00H
	DD	00H
rdata$r	ENDS
;	COMDAT ??_R1A@?0A@A@logic_error@std@@8
rdata$r	SEGMENT
??_R1A@?0A@A@logic_error@std@@8 DD FLAT:??_R0?AVlogic_error@std@@@8 ; std::logic_error::`RTTI Base Class Descriptor at (0,-1,0,0)'
	DD	01H
	DD	00H
	DD	0ffffffffH
	DD	00H
	DD	00H
rdata$r	ENDS
;	COMDAT ??_R1A@?0A@A@exception@@8
rdata$r	SEGMENT
??_R1A@?0A@A@exception@@8 DD FLAT:??_R0?AVexception@@@8	; exception::`RTTI Base Class Descriptor at (0,-1,0,0)'
	DD	00H
	DD	00H
	DD	0ffffffffH
	DD	00H
	DD	00H
; Function compile flags: /Odt /RTCsu
rdata$r	ENDS
;	COMDAT ??0length_error@std@@QAE@ABV01@@Z
_TEXT	SEGMENT
_this$ = -4						; size = 4
___that$ = 8						; size = 4
??0length_error@std@@QAE@ABV01@@Z PROC NEAR		; std::length_error::length_error, COMDAT
; _this$ = ecx
  00000	55		 push	 ebp
  00001	8b ec		 mov	 ebp, esp
  00003	51		 push	 ecx
  00004	c7 45 fc cc cc
	cc cc		 mov	 DWORD PTR [ebp-4], -858993460 ; ccccccccH
  0000b	89 4d fc	 mov	 DWORD PTR _this$[ebp], ecx
  0000e	8b 45 08	 mov	 eax, DWORD PTR ___that$[ebp]
  00011	50		 push	 eax
  00012	8b 4d fc	 mov	 ecx, DWORD PTR _this$[ebp]
  00015	e8 00 00 00 00	 call	 ??0logic_error@std@@QAE@ABV01@@Z
  0001a	8b 4d fc	 mov	 ecx, DWORD PTR _this$[ebp]
  0001d	c7 01 00 00 00
	00		 mov	 DWORD PTR [ecx], OFFSET FLAT:??_7length_error@std@@6B@
  00023	8b 45 fc	 mov	 eax, DWORD PTR _this$[ebp]
  00026	83 c4 04	 add	 esp, 4
  00029	3b ec		 cmp	 ebp, esp
  0002b	e8 00 00 00 00	 call	 __RTC_CheckEsp
  00030	8b e5		 mov	 esp, ebp
  00032	5d		 pop	 ebp
  00033	c2 04 00	 ret	 4
??0length_error@std@@QAE@ABV01@@Z ENDP			; std::length_error::length_error
; Function compile flags: /Odt /RTCsu
; File d:\program files (x86)\microsoft visual studio .net 2003\vc7\include\xtree
_TEXT	ENDS
;	COMDAT ?_Color@?$_Tree@V?$_Tmap_traits@PAUHWND__@@UCWndData@@U?$less@PAUHWND__@@@std@@V?$allocator@U?$pair@QAUHWND__@@UCWndData@@@std@@@4@$0A@@std@@@std@@KAAADPAU_Node@?$_Tree_nod@V?$_Tmap_traits@PAUHWND__@@UCWndData@@U?$less@PAUHWND__@@@std@@V?$allocator@U?$pair@QAUHWND__@@UCWndData@@@std@@@4@$0A@@std@@@2@@Z
_TEXT	SEGMENT
__Pnode$ = 8						; size = 4
?_Color@?$_Tree@V?$_Tmap_traits@PAUHWND__@@UCWndData@@U?$less@PAUHWND__@@@std@@V?$allocator@U?$pair@QAUHWND__@@UCWndData@@@std@@@4@$0A@@std@@@std@@KAAADPAU_Node@?$_Tree_nod@V?$_Tmap_traits@PAUHWND__@@UCWndData@@U?$less@PAUHWND__@@@std@@V?$allocator@U?$pair@QAUHWND__@@UCWndData@@@std@@@4@$0A@@std@@@2@@Z PROC NEAR ; std::_Tree<std::_Tmap_traits<HWND__ *,CWndData,std::less<HWND__ *>,std::allocator<std::pair<HWND__ * const,CWndData> >,0> >::_Color, COMDAT

; 131  : 		{	// return reference to color in node

  00000	55		 push	 ebp
  00001	8b ec		 mov	 ebp, esp

; 132  : 		return ((_Charref)(*_Pnode)._Color);

  00003	8b 45 08	 mov	 eax, DWORD PTR __Pnode$[ebp]
  00006	83 c0 18	 add	 eax, 24			; 00000018H

; 133  : 		}

  00009	5d		 pop	 ebp
  0000a	c3		 ret	 0
?_Color@?$_Tree@V?$_Tmap_traits@PAUHWND__@@UCWndData@@U?$less@PAUHWND__@@@std@@V?$allocator@U?$pair@QAUHWND__@@UCWndData@@@std@@@4@$0A@@std@@@std@@KAAADPAU_Node@?$_Tree_nod@V?$_Tmap_traits@PAUHWND__@@UCWndData@@U?$less@PAUHWND__@@@std@@V?$allocator@U?$pair@QAUHWND__@@UCWndData@@@std@@@4@$0A@@std@@@2@@Z ENDP ; std::_Tree<std::_Tmap_traits<HWND__ *,CWndData,std::less<HWND__ *>,std::allocator<std::pair<HWND__ * const,CWndData> >,0> >::_Color
_TEXT	ENDS
PUBLIC	?max_size@?$allocator@U?$pair@QAUHWND__@@UCWndData@@@std@@@std@@QBEIXZ ; std::allocator<std::pair<HWND__ * const,CWndData> >::max_size
; Function compile flags: /Odt /RTCsu
;	COMDAT ?max_size@?$_Tree@V?$_Tmap_traits@PAUHWND__@@UCWndData@@U?$less@PAUHWND__@@@std@@V?$allocator@U?$pair@QAUHWND__@@UCWndData@@@std@@@4@$0A@@std@@@std@@QBEIXZ
_TEXT	SEGMENT
_this$ = -4						; size = 4
?max_size@?$_Tree@V?$_Tmap_traits@PAUHWND__@@UCWndData@@U?$less@PAUHWND__@@@std@@V?$allocator@U?$pair@QAUHWND__@@UCWndData@@@std@@@4@$0A@@std@@@std@@QBEIXZ PROC NEAR ; std::_Tree<std::_Tmap_traits<HWND__ *,CWndData,std::less<HWND__ *>,std::allocator<std::pair<HWND__ * const,CWndData> >,0> >::max_size, COMDAT
; _this$ = ecx

; 452  : 		{	// return maximum possible length of sequence

  00000	55		 push	 ebp
  00001	8b ec		 mov	 ebp, esp
  00003	51		 push	 ecx
  00004	c7 45 fc cc cc
	cc cc		 mov	 DWORD PTR [ebp-4], -858993460 ; ccccccccH
  0000b	89 4d fc	 mov	 DWORD PTR _this$[ebp], ecx

; 453  : 		return (this->_Alval.max_size());

  0000e	8b 4d fc	 mov	 ecx, DWORD PTR _this$[ebp]
  00011	83 c1 03	 add	 ecx, 3
  00014	e8 00 00 00 00	 call	 ?max_size@?$allocator@U?$pair@QAUHWND__@@UCWndData@@@std@@@std@@QBEIXZ ; std::allocator<std::pair<HWND__ * const,CWndData> >::max_size

; 454  : 		}

  00019	83 c4 04	 add	 esp, 4
  0001c	3b ec		 cmp	 ebp, esp
  0001e	e8 00 00 00 00	 call	 __RTC_CheckEsp
  00023	8b e5		 mov	 esp, ebp
  00025	5d		 pop	 ebp
  00026	c3		 ret	 0
?max_size@?$_Tree@V?$_Tmap_traits@PAUHWND__@@UCWndData@@U?$less@PAUHWND__@@@std@@V?$allocator@U?$pair@QAUHWND__@@UCWndData@@@std@@@4@$0A@@std@@@std@@QBEIXZ ENDP ; std::_Tree<std::_Tmap_traits<HWND__ *,CWndData,std::less<HWND__ *>,std::allocator<std::pair<HWND__ * const,CWndData> >,0> >::max_size
_TEXT	ENDS
PUBLIC	__TI3?AVout_of_range@std@@
PUBLIC	__CTA3?AVout_of_range@std@@
PUBLIC	??_R0?AVout_of_range@std@@@8			; std::out_of_range `RTTI Type Descriptor'
PUBLIC	__CT??_R0?AVout_of_range@std@@@8??0out_of_range@std@@QAE@ABV01@@Z40
PUBLIC	??_C@_0BM@PAPJHAGI@invalid?5map?1set?$DMT?$DO?5iterator?$AA@ ; `string'
PUBLIC	?destroy@?$allocator@U_Node@?$_Tree_nod@V?$_Tmap_traits@PAUHWND__@@UCWndData@@U?$less@PAUHWND__@@@std@@V?$allocator@U?$pair@QAUHWND__@@UCWndData@@@std@@@4@$0A@@std@@@std@@@std@@QAEXPAU_Node@?$_Tree_nod@V?$_Tmap_traits@PAUHWND__@@UCWndData@@U?$less@PAUHWND__@@@std@@V?$allocator@U?$pair@QAUHWND__@@UCWndData@@@std@@@4@$0A@@std@@@2@@Z ; std::allocator<std::_Tree_nod<std::_Tmap_traits<HWND__ *,CWndData,std::less<HWND__ *>,std::allocator<std::pair<HWND__ * const,CWndData> >,0> >::_Node>::destroy
PUBLIC	??$swap@D@std@@YAXAAD0@Z			; std::swap<char>
PUBLIC	?_Max@?$_Tree@V?$_Tmap_traits@PAUHWND__@@UCWndData@@U?$less@PAUHWND__@@@std@@V?$allocator@U?$pair@QAUHWND__@@UCWndData@@@std@@@4@$0A@@std@@@std@@KAPAU_Node@?$_Tree_nod@V?$_Tmap_traits@PAUHWND__@@UCWndData@@U?$less@PAUHWND__@@@std@@V?$allocator@U?$pair@QAUHWND__@@UCWndData@@@std@@@4@$0A@@std@@@2@PAU342@@Z ; std::_Tree<std::_Tmap_traits<HWND__ *,CWndData,std::less<HWND__ *>,std::allocator<std::pair<HWND__ * const,CWndData> >,0> >::_Max
PUBLIC	?_Min@?$_Tree@V?$_Tmap_traits@PAUHWND__@@UCWndData@@U?$less@PAUHWND__@@@std@@V?$allocator@U?$pair@QAUHWND__@@UCWndData@@@std@@@4@$0A@@std@@@std@@KAPAU_Node@?$_Tree_nod@V?$_Tmap_traits@PAUHWND__@@UCWndData@@U?$less@PAUHWND__@@@std@@V?$allocator@U?$pair@QAUHWND__@@UCWndData@@@std@@@4@$0A@@std@@@2@PAU342@@Z ; std::_Tree<std::_Tmap_traits<HWND__ *,CWndData,std::less<HWND__ *>,std::allocator<std::pair<HWND__ * const,CWndData> >,0> >::_Min
PUBLIC	??0out_of_range@std@@QAE@ABV?$basic_string@DU?$char_traits@D@std@@V?$allocator@D@2@@1@@Z ; std::out_of_range::out_of_range
PUBLIC	??1out_of_range@std@@UAE@XZ			; std::out_of_range::~out_of_range
PUBLIC	??0out_of_range@std@@QAE@ABV01@@Z		; std::out_of_range::out_of_range
;	COMDAT xdata$x
xdata$x	SEGMENT
$T192525 DD	0ffffffffH
	DD	FLAT:$L192521
$T192523 DD	019930520H
	DD	01H
	DD	FLAT:$T192525
	DD	2 DUP(00H)
	DD	2 DUP(00H)
xdata$x	ENDS
;	COMDAT ??_C@_0BM@PAPJHAGI@invalid?5map?1set?$DMT?$DO?5iterator?$AA@
CONST	SEGMENT
??_C@_0BM@PAPJHAGI@invalid?5map?1set?$DMT?$DO?5iterator?$AA@ DB 'invalid '
	DB	'map/set<T> iterator', 00H			; `string'
CONST	ENDS
;	COMDAT __TI3?AVout_of_range@std@@
xdata$x	SEGMENT
__TI3?AVout_of_range@std@@ DD 00H
	DD	FLAT:??1out_of_range@std@@UAE@XZ
	DD	00H
	DD	FLAT:__CTA3?AVout_of_range@std@@
xdata$x	ENDS
;	COMDAT __CTA3?AVout_of_range@std@@
xdata$x	SEGMENT
__CTA3?AVout_of_range@std@@ DD 03H
	DD	FLAT:__CT??_R0?AVout_of_range@std@@@8??0out_of_range@std@@QAE@ABV01@@Z40
	DD	FLAT:__CT??_R0?AVlogic_error@std@@@8??0logic_error@std@@QAE@ABV01@@Z40
	DD	FLAT:__CT??_R0?AVexception@@@8??0exception@@QAE@ABV0@@Z12
xdata$x	ENDS
;	COMDAT __CT??_R0?AVout_of_range@std@@@8??0out_of_range@std@@QAE@ABV01@@Z40
xdata$x	SEGMENT
__CT??_R0?AVout_of_range@std@@@8??0out_of_range@std@@QAE@ABV01@@Z40 DD 00H
	DD	FLAT:??_R0?AVout_of_range@std@@@8
	DD	00H
	DD	0ffffffffH
	ORG $+4
	DD	028H
	DD	FLAT:??0out_of_range@std@@QAE@ABV01@@Z
xdata$x	ENDS
;	COMDAT ??_R0?AVout_of_range@std@@@8
_DATA	SEGMENT
??_R0?AVout_of_range@std@@@8 DD FLAT:??_7type_info@@6B@	; std::out_of_range `RTTI Type Descriptor'
	DD	00H
	DB	'.?AVout_of_range@std@@', 00H
; Function compile flags: /Odt /RTCsu
_DATA	ENDS
;	COMDAT ?erase@?$_Tree@V?$_Tmap_traits@PAUHWND__@@UCWndData@@U?$less@PAUHWND__@@@std@@V?$allocator@U?$pair@QAUHWND__@@UCWndData@@@std@@@4@$0A@@std@@@std@@QAE?AViterator@12@V312@@Z
_TEXT	SEGMENT
tv177 = -108						; size = 4
tv165 = -104						; size = 4
$T192516 = -100						; size = 28
$T192515 = -72						; size = 40
__Pnode$ = -32						; size = 4
__Fixnodeparent$ = -28					; size = 4
__Fixnode$ = -24					; size = 4
__Erasednode$ = -20					; size = 4
_this$ = -16						; size = 4
__$EHRec$ = -12						; size = 12
___$ReturnUdt$ = 8					; size = 4
__Where$ = 12						; size = 4
?erase@?$_Tree@V?$_Tmap_traits@PAUHWND__@@UCWndData@@U?$less@PAUHWND__@@@std@@V?$allocator@U?$pair@QAUHWND__@@UCWndData@@@std@@@4@$0A@@std@@@std@@QAE?AViterator@12@V312@@Z PROC NEAR ; std::_Tree<std::_Tmap_traits<HWND__ *,CWndData,std::less<HWND__ *>,std::allocator<std::pair<HWND__ * const,CWndData> >,0> >::erase, COMDAT
; _this$ = ecx

; 590  : 		{	// erase element at _Where

  00000	55		 push	 ebp
  00001	8b ec		 mov	 ebp, esp
  00003	6a ff		 push	 -1
  00005	68 00 00 00 00	 push	 __ehhandler$?erase@?$_Tree@V?$_Tmap_traits@PAUHWND__@@UCWndData@@U?$less@PAUHWND__@@@std@@V?$allocator@U?$pair@QAUHWND__@@UCWndData@@@std@@@4@$0A@@std@@@std@@QAE?AViterator@12@V312@@Z
  0000a	64 a1 00 00 00
	00		 mov	 eax, DWORD PTR fs:__except_list
  00010	50		 push	 eax
  00011	64 89 25 00 00
	00 00		 mov	 DWORD PTR fs:__except_list, esp
  00018	83 ec 60	 sub	 esp, 96			; 00000060H
  0001b	56		 push	 esi
  0001c	57		 push	 edi
  0001d	51		 push	 ecx
  0001e	8d 7d 94	 lea	 edi, DWORD PTR [ebp-108]
  00021	b9 18 00 00 00	 mov	 ecx, 24			; 00000018H
  00026	b8 cc cc cc cc	 mov	 eax, -858993460		; ccccccccH
  0002b	f3 ab		 rep stosd
  0002d	59		 pop	 ecx
  0002e	89 4d f0	 mov	 DWORD PTR _this$[ebp], ecx

; 591  : 		if (_Isnil(_Where._Mynode()))

  00031	8d 4d 0c	 lea	 ecx, DWORD PTR __Where$[ebp]
  00034	e8 00 00 00 00	 call	 ?_Mynode@const_iterator@?$_Tree@V?$_Tmap_traits@PAUHWND__@@UCWndData@@U?$less@PAUHWND__@@@std@@V?$allocator@U?$pair@QAUHWND__@@UCWndData@@@std@@@4@$0A@@std@@@std@@QBEPAU_Node@?$_Tree_nod@V?$_Tmap_traits@PAUHWND__@@UCWndData@@U?$less@PAUHWND__@@@std@@V?$allocator@U?$pair@QAUHWND__@@UCWndData@@@std@@@4@$0A@@std@@@3@XZ ; std::_Tree<std::_Tmap_traits<HWND__ *,CWndData,std::less<HWND__ *>,std::allocator<std::pair<HWND__ * const,CWndData> >,0> >::const_iterator::_Mynode
  00039	50		 push	 eax
  0003a	e8 00 00 00 00	 call	 ?_Isnil@?$_Tree@V?$_Tmap_traits@PAUHWND__@@UCWndData@@U?$less@PAUHWND__@@@std@@V?$allocator@U?$pair@QAUHWND__@@UCWndData@@@std@@@4@$0A@@std@@@std@@KAAADPAU_Node@?$_Tree_nod@V?$_Tmap_traits@PAUHWND__@@UCWndData@@U?$less@PAUHWND__@@@std@@V?$allocator@U?$pair@QAUHWND__@@UCWndData@@@std@@@4@$0A@@std@@@2@@Z ; std::_Tree<std::_Tmap_traits<HWND__ *,CWndData,std::less<HWND__ *>,std::allocator<std::pair<HWND__ * const,CWndData> >,0> >::_Isnil
  0003f	83 c4 04	 add	 esp, 4
  00042	0f be 00	 movsx	 eax, BYTE PTR [eax]
  00045	85 c0		 test	 eax, eax
  00047	74 38		 je	 SHORT $L190817

; 592  : 			_THROW(out_of_range, "invalid map/set<T> iterator");

  00049	8b f4		 mov	 esi, esp
  0004b	68 00 00 00 00	 push	 OFFSET FLAT:??_C@_0BM@PAPJHAGI@invalid?5map?1set?$DMT?$DO?5iterator?$AA@
  00050	8d 4d 9c	 lea	 ecx, DWORD PTR $T192516[ebp]
  00053	ff 15 00 00 00
	00		 call	 DWORD PTR __imp_??0?$basic_string@DU?$char_traits@D@std@@V?$allocator@D@2@@std@@QAE@PBD@Z
  00059	3b f4		 cmp	 esi, esp
  0005b	e8 00 00 00 00	 call	 __RTC_CheckEsp
  00060	c7 45 fc 00 00
	00 00		 mov	 DWORD PTR __$EHRec$[ebp+8], 0
  00067	8d 4d 9c	 lea	 ecx, DWORD PTR $T192516[ebp]
  0006a	51		 push	 ecx
  0006b	8d 4d b8	 lea	 ecx, DWORD PTR $T192515[ebp]
  0006e	e8 00 00 00 00	 call	 ??0out_of_range@std@@QAE@ABV?$basic_string@DU?$char_traits@D@std@@V?$allocator@D@2@@1@@Z ; std::out_of_range::out_of_range
  00073	68 00 00 00 00	 push	 OFFSET FLAT:__TI3?AVout_of_range@std@@
  00078	8d 55 b8	 lea	 edx, DWORD PTR $T192515[ebp]
  0007b	52		 push	 edx
  0007c	e8 00 00 00 00	 call	 __CxxThrowException@8
$L190817:

; 593  : 		_Nodeptr _Erasednode = _Where._Mynode();	// node to erase

  00081	8d 4d 0c	 lea	 ecx, DWORD PTR __Where$[ebp]
  00084	e8 00 00 00 00	 call	 ?_Mynode@const_iterator@?$_Tree@V?$_Tmap_traits@PAUHWND__@@UCWndData@@U?$less@PAUHWND__@@@std@@V?$allocator@U?$pair@QAUHWND__@@UCWndData@@@std@@@4@$0A@@std@@@std@@QBEPAU_Node@?$_Tree_nod@V?$_Tmap_traits@PAUHWND__@@UCWndData@@U?$less@PAUHWND__@@@std@@V?$allocator@U?$pair@QAUHWND__@@UCWndData@@@std@@@4@$0A@@std@@@3@XZ ; std::_Tree<std::_Tmap_traits<HWND__ *,CWndData,std::less<HWND__ *>,std::allocator<std::pair<HWND__ * const,CWndData> >,0> >::const_iterator::_Mynode
  00089	89 45 ec	 mov	 DWORD PTR __Erasednode$[ebp], eax

; 594  : 		++_Where;	// save successor iterator for return

  0008c	8d 4d 0c	 lea	 ecx, DWORD PTR __Where$[ebp]
  0008f	e8 00 00 00 00	 call	 ??Eiterator@?$_Tree@V?$_Tmap_traits@PAUHWND__@@UCWndData@@U?$less@PAUHWND__@@@std@@V?$allocator@U?$pair@QAUHWND__@@UCWndData@@@std@@@4@$0A@@std@@@std@@QAEAAV012@XZ ; std::_Tree<std::_Tmap_traits<HWND__ *,CWndData,std::less<HWND__ *>,std::allocator<std::pair<HWND__ * const,CWndData> >,0> >::iterator::operator++

; 595  : 
; 596  : 		_Nodeptr _Fixnode;	// the node to recolor as needed
; 597  : 		_Nodeptr _Fixnodeparent;	// parent of _Fixnode (which may be nil)
; 598  : 		_Nodeptr _Pnode = _Erasednode;

  00094	8b 45 ec	 mov	 eax, DWORD PTR __Erasednode$[ebp]
  00097	89 45 e0	 mov	 DWORD PTR __Pnode$[ebp], eax

; 599  : 
; 600  : 		if (_Isnil(_Left(_Pnode)))

  0009a	8b 4d e0	 mov	 ecx, DWORD PTR __Pnode$[ebp]
  0009d	51		 push	 ecx
  0009e	e8 00 00 00 00	 call	 ?_Left@?$_Tree@V?$_Tmap_traits@PAUHWND__@@UCWndData@@U?$less@PAUHWND__@@@std@@V?$allocator@U?$pair@QAUHWND__@@UCWndData@@@std@@@4@$0A@@std@@@std@@KAAAPAU_Node@?$_Tree_nod@V?$_Tmap_traits@PAUHWND__@@UCWndData@@U?$less@PAUHWND__@@@std@@V?$allocator@U?$pair@QAUHWND__@@UCWndData@@@std@@@4@$0A@@std@@@2@PAU342@@Z ; std::_Tree<std::_Tmap_traits<HWND__ *,CWndData,std::less<HWND__ *>,std::allocator<std::pair<HWND__ * const,CWndData> >,0> >::_Left
  000a3	83 c4 04	 add	 esp, 4
  000a6	8b 10		 mov	 edx, DWORD PTR [eax]
  000a8	52		 push	 edx
  000a9	e8 00 00 00 00	 call	 ?_Isnil@?$_Tree@V?$_Tmap_traits@PAUHWND__@@UCWndData@@U?$less@PAUHWND__@@@std@@V?$allocator@U?$pair@QAUHWND__@@UCWndData@@@std@@@4@$0A@@std@@@std@@KAAADPAU_Node@?$_Tree_nod@V?$_Tmap_traits@PAUHWND__@@UCWndData@@U?$less@PAUHWND__@@@std@@V?$allocator@U?$pair@QAUHWND__@@UCWndData@@@std@@@4@$0A@@std@@@2@@Z ; std::_Tree<std::_Tmap_traits<HWND__ *,CWndData,std::less<HWND__ *>,std::allocator<std::pair<HWND__ * const,CWndData> >,0> >::_Isnil
  000ae	83 c4 04	 add	 esp, 4
  000b1	0f be 00	 movsx	 eax, BYTE PTR [eax]
  000b4	85 c0		 test	 eax, eax
  000b6	74 13		 je	 SHORT $L190825

; 601  : 			_Fixnode = _Right(_Pnode);	// must stitch up right subtree

  000b8	8b 4d e0	 mov	 ecx, DWORD PTR __Pnode$[ebp]
  000bb	51		 push	 ecx
  000bc	e8 00 00 00 00	 call	 ?_Right@?$_Tree@V?$_Tmap_traits@PAUHWND__@@UCWndData@@U?$less@PAUHWND__@@@std@@V?$allocator@U?$pair@QAUHWND__@@UCWndData@@@std@@@4@$0A@@std@@@std@@KAAAPAU_Node@?$_Tree_nod@V?$_Tmap_traits@PAUHWND__@@UCWndData@@U?$less@PAUHWND__@@@std@@V?$allocator@U?$pair@QAUHWND__@@UCWndData@@@std@@@4@$0A@@std@@@2@PAU342@@Z ; std::_Tree<std::_Tmap_traits<HWND__ *,CWndData,std::less<HWND__ *>,std::allocator<std::pair<HWND__ * const,CWndData> >,0> >::_Right
  000c1	83 c4 04	 add	 esp, 4
  000c4	8b 10		 mov	 edx, DWORD PTR [eax]
  000c6	89 55 e8	 mov	 DWORD PTR __Fixnode$[ebp], edx

; 602  : 		else if (_Isnil(_Right(_Pnode)))

  000c9	eb 4d		 jmp	 SHORT $L190826
$L190825:
  000cb	8b 45 e0	 mov	 eax, DWORD PTR __Pnode$[ebp]
  000ce	50		 push	 eax
  000cf	e8 00 00 00 00	 call	 ?_Right@?$_Tree@V?$_Tmap_traits@PAUHWND__@@UCWndData@@U?$less@PAUHWND__@@@std@@V?$allocator@U?$pair@QAUHWND__@@UCWndData@@@std@@@4@$0A@@std@@@std@@KAAAPAU_Node@?$_Tree_nod@V?$_Tmap_traits@PAUHWND__@@UCWndData@@U?$less@PAUHWND__@@@std@@V?$allocator@U?$pair@QAUHWND__@@UCWndData@@@std@@@4@$0A@@std@@@2@PAU342@@Z ; std::_Tree<std::_Tmap_traits<HWND__ *,CWndData,std::less<HWND__ *>,std::allocator<std::pair<HWND__ * const,CWndData> >,0> >::_Right
  000d4	83 c4 04	 add	 esp, 4
  000d7	8b 08		 mov	 ecx, DWORD PTR [eax]
  000d9	51		 push	 ecx
  000da	e8 00 00 00 00	 call	 ?_Isnil@?$_Tree@V?$_Tmap_traits@PAUHWND__@@UCWndData@@U?$less@PAUHWND__@@@std@@V?$allocator@U?$pair@QAUHWND__@@UCWndData@@@std@@@4@$0A@@std@@@std@@KAAADPAU_Node@?$_Tree_nod@V?$_Tmap_traits@PAUHWND__@@UCWndData@@U?$less@PAUHWND__@@@std@@V?$allocator@U?$pair@QAUHWND__@@UCWndData@@@std@@@4@$0A@@std@@@2@@Z ; std::_Tree<std::_Tmap_traits<HWND__ *,CWndData,std::less<HWND__ *>,std::allocator<std::pair<HWND__ * const,CWndData> >,0> >::_Isnil
  000df	83 c4 04	 add	 esp, 4
  000e2	0f be 10	 movsx	 edx, BYTE PTR [eax]
  000e5	85 d2		 test	 edx, edx
  000e7	74 13		 je	 SHORT $L190827

; 603  : 			_Fixnode = _Left(_Pnode);	// must stitch up left subtree

  000e9	8b 45 e0	 mov	 eax, DWORD PTR __Pnode$[ebp]
  000ec	50		 push	 eax
  000ed	e8 00 00 00 00	 call	 ?_Left@?$_Tree@V?$_Tmap_traits@PAUHWND__@@UCWndData@@U?$less@PAUHWND__@@@std@@V?$allocator@U?$pair@QAUHWND__@@UCWndData@@@std@@@4@$0A@@std@@@std@@KAAAPAU_Node@?$_Tree_nod@V?$_Tmap_traits@PAUHWND__@@UCWndData@@U?$less@PAUHWND__@@@std@@V?$allocator@U?$pair@QAUHWND__@@UCWndData@@@std@@@4@$0A@@std@@@2@PAU342@@Z ; std::_Tree<std::_Tmap_traits<HWND__ *,CWndData,std::less<HWND__ *>,std::allocator<std::pair<HWND__ * const,CWndData> >,0> >::_Left
  000f2	83 c4 04	 add	 esp, 4
  000f5	8b 08		 mov	 ecx, DWORD PTR [eax]
  000f7	89 4d e8	 mov	 DWORD PTR __Fixnode$[ebp], ecx

; 604  : 		else

  000fa	eb 1c		 jmp	 SHORT $L190826
$L190827:

; 605  : 			{	// two subtrees, must lift successor node to replace erased
; 606  : 			_Pnode = _Where._Mynode();	// _Pnode is successor node

  000fc	8d 4d 0c	 lea	 ecx, DWORD PTR __Where$[ebp]
  000ff	e8 00 00 00 00	 call	 ?_Mynode@const_iterator@?$_Tree@V?$_Tmap_traits@PAUHWND__@@UCWndData@@U?$less@PAUHWND__@@@std@@V?$allocator@U?$pair@QAUHWND__@@UCWndData@@@std@@@4@$0A@@std@@@std@@QBEPAU_Node@?$_Tree_nod@V?$_Tmap_traits@PAUHWND__@@UCWndData@@U?$less@PAUHWND__@@@std@@V?$allocator@U?$pair@QAUHWND__@@UCWndData@@@std@@@4@$0A@@std@@@3@XZ ; std::_Tree<std::_Tmap_traits<HWND__ *,CWndData,std::less<HWND__ *>,std::allocator<std::pair<HWND__ * const,CWndData> >,0> >::const_iterator::_Mynode
  00104	89 45 e0	 mov	 DWORD PTR __Pnode$[ebp], eax

; 607  : 			_Fixnode = _Right(_Pnode);	// _Fixnode is its only subtree

  00107	8b 55 e0	 mov	 edx, DWORD PTR __Pnode$[ebp]
  0010a	52		 push	 edx
  0010b	e8 00 00 00 00	 call	 ?_Right@?$_Tree@V?$_Tmap_traits@PAUHWND__@@UCWndData@@U?$less@PAUHWND__@@@std@@V?$allocator@U?$pair@QAUHWND__@@UCWndData@@@std@@@4@$0A@@std@@@std@@KAAAPAU_Node@?$_Tree_nod@V?$_Tmap_traits@PAUHWND__@@UCWndData@@U?$less@PAUHWND__@@@std@@V?$allocator@U?$pair@QAUHWND__@@UCWndData@@@std@@@4@$0A@@std@@@2@PAU342@@Z ; std::_Tree<std::_Tmap_traits<HWND__ *,CWndData,std::less<HWND__ *>,std::allocator<std::pair<HWND__ * const,CWndData> >,0> >::_Right
  00110	83 c4 04	 add	 esp, 4
  00113	8b 00		 mov	 eax, DWORD PTR [eax]
  00115	89 45 e8	 mov	 DWORD PTR __Fixnode$[ebp], eax
$L190826:

; 608  : 			}
; 609  : 
; 610  : 		if (_Pnode == _Erasednode)

  00118	8b 4d e0	 mov	 ecx, DWORD PTR __Pnode$[ebp]
  0011b	3b 4d ec	 cmp	 ecx, DWORD PTR __Erasednode$[ebp]
  0011e	0f 85 1b 01 00
	00		 jne	 $L190829

; 611  : 			{	// at most one subtree, relink it
; 612  : 			_Fixnodeparent = _Parent(_Erasednode);

  00124	8b 55 ec	 mov	 edx, DWORD PTR __Erasednode$[ebp]
  00127	52		 push	 edx
  00128	e8 00 00 00 00	 call	 ?_Parent@?$_Tree@V?$_Tmap_traits@PAUHWND__@@UCWndData@@U?$less@PAUHWND__@@@std@@V?$allocator@U?$pair@QAUHWND__@@UCWndData@@@std@@@4@$0A@@std@@@std@@KAAAPAU_Node@?$_Tree_nod@V?$_Tmap_traits@PAUHWND__@@UCWndData@@U?$less@PAUHWND__@@@std@@V?$allocator@U?$pair@QAUHWND__@@UCWndData@@@std@@@4@$0A@@std@@@2@PAU342@@Z ; std::_Tree<std::_Tmap_traits<HWND__ *,CWndData,std::less<HWND__ *>,std::allocator<std::pair<HWND__ * const,CWndData> >,0> >::_Parent
  0012d	83 c4 04	 add	 esp, 4
  00130	8b 00		 mov	 eax, DWORD PTR [eax]
  00132	89 45 e4	 mov	 DWORD PTR __Fixnodeparent$[ebp], eax

; 613  : 			if (!_Isnil(_Fixnode))

  00135	8b 4d e8	 mov	 ecx, DWORD PTR __Fixnode$[ebp]
  00138	51		 push	 ecx
  00139	e8 00 00 00 00	 call	 ?_Isnil@?$_Tree@V?$_Tmap_traits@PAUHWND__@@UCWndData@@U?$less@PAUHWND__@@@std@@V?$allocator@U?$pair@QAUHWND__@@UCWndData@@@std@@@4@$0A@@std@@@std@@KAAADPAU_Node@?$_Tree_nod@V?$_Tmap_traits@PAUHWND__@@UCWndData@@U?$less@PAUHWND__@@@std@@V?$allocator@U?$pair@QAUHWND__@@UCWndData@@@std@@@4@$0A@@std@@@2@@Z ; std::_Tree<std::_Tmap_traits<HWND__ *,CWndData,std::less<HWND__ *>,std::allocator<std::pair<HWND__ * const,CWndData> >,0> >::_Isnil
  0013e	83 c4 04	 add	 esp, 4
  00141	0f be 10	 movsx	 edx, BYTE PTR [eax]
  00144	85 d2		 test	 edx, edx
  00146	75 11		 jne	 SHORT $L190830

; 614  : 				_Parent(_Fixnode) = _Fixnodeparent;	// link up

  00148	8b 45 e8	 mov	 eax, DWORD PTR __Fixnode$[ebp]
  0014b	50		 push	 eax
  0014c	e8 00 00 00 00	 call	 ?_Parent@?$_Tree@V?$_Tmap_traits@PAUHWND__@@UCWndData@@U?$less@PAUHWND__@@@std@@V?$allocator@U?$pair@QAUHWND__@@UCWndData@@@std@@@4@$0A@@std@@@std@@KAAAPAU_Node@?$_Tree_nod@V?$_Tmap_traits@PAUHWND__@@UCWndData@@U?$less@PAUHWND__@@@std@@V?$allocator@U?$pair@QAUHWND__@@UCWndData@@@std@@@4@$0A@@std@@@2@PAU342@@Z ; std::_Tree<std::_Tmap_traits<HWND__ *,CWndData,std::less<HWND__ *>,std::allocator<std::pair<HWND__ * const,CWndData> >,0> >::_Parent
  00151	83 c4 04	 add	 esp, 4
  00154	8b 4d e4	 mov	 ecx, DWORD PTR __Fixnodeparent$[ebp]
  00157	89 08		 mov	 DWORD PTR [eax], ecx
$L190830:

; 615  : 
; 616  : 			if (_Root() == _Erasednode)

  00159	8b 4d f0	 mov	 ecx, DWORD PTR _this$[ebp]
  0015c	e8 00 00 00 00	 call	 ?_Root@?$_Tree@V?$_Tmap_traits@PAUHWND__@@UCWndData@@U?$less@PAUHWND__@@@std@@V?$allocator@U?$pair@QAUHWND__@@UCWndData@@@std@@@4@$0A@@std@@@std@@IAEAAPAU_Node@?$_Tree_nod@V?$_Tmap_traits@PAUHWND__@@UCWndData@@U?$less@PAUHWND__@@@std@@V?$allocator@U?$pair@QAUHWND__@@UCWndData@@@std@@@4@$0A@@std@@@2@XZ ; std::_Tree<std::_Tmap_traits<HWND__ *,CWndData,std::less<HWND__ *>,std::allocator<std::pair<HWND__ * const,CWndData> >,0> >::_Root
  00161	8b 10		 mov	 edx, DWORD PTR [eax]
  00163	3b 55 ec	 cmp	 edx, DWORD PTR __Erasednode$[ebp]
  00166	75 0f		 jne	 SHORT $L190831

; 617  : 				_Root() = _Fixnode;	// link down from root

  00168	8b 4d f0	 mov	 ecx, DWORD PTR _this$[ebp]
  0016b	e8 00 00 00 00	 call	 ?_Root@?$_Tree@V?$_Tmap_traits@PAUHWND__@@UCWndData@@U?$less@PAUHWND__@@@std@@V?$allocator@U?$pair@QAUHWND__@@UCWndData@@@std@@@4@$0A@@std@@@std@@IAEAAPAU_Node@?$_Tree_nod@V?$_Tmap_traits@PAUHWND__@@UCWndData@@U?$less@PAUHWND__@@@std@@V?$allocator@U?$pair@QAUHWND__@@UCWndData@@@std@@@4@$0A@@std@@@2@XZ ; std::_Tree<std::_Tmap_traits<HWND__ *,CWndData,std::less<HWND__ *>,std::allocator<std::pair<HWND__ * const,CWndData> >,0> >::_Root
  00170	8b 4d e8	 mov	 ecx, DWORD PTR __Fixnode$[ebp]
  00173	89 08		 mov	 DWORD PTR [eax], ecx

; 618  : 			else if (_Left(_Fixnodeparent) == _Erasednode)

  00175	eb 37		 jmp	 SHORT $L190832
$L190831:
  00177	8b 55 e4	 mov	 edx, DWORD PTR __Fixnodeparent$[ebp]
  0017a	52		 push	 edx
  0017b	e8 00 00 00 00	 call	 ?_Left@?$_Tree@V?$_Tmap_traits@PAUHWND__@@UCWndData@@U?$less@PAUHWND__@@@std@@V?$allocator@U?$pair@QAUHWND__@@UCWndData@@@std@@@4@$0A@@std@@@std@@KAAAPAU_Node@?$_Tree_nod@V?$_Tmap_traits@PAUHWND__@@UCWndData@@U?$less@PAUHWND__@@@std@@V?$allocator@U?$pair@QAUHWND__@@UCWndData@@@std@@@4@$0A@@std@@@2@PAU342@@Z ; std::_Tree<std::_Tmap_traits<HWND__ *,CWndData,std::less<HWND__ *>,std::allocator<std::pair<HWND__ * const,CWndData> >,0> >::_Left
  00180	83 c4 04	 add	 esp, 4
  00183	8b 00		 mov	 eax, DWORD PTR [eax]
  00185	3b 45 ec	 cmp	 eax, DWORD PTR __Erasednode$[ebp]
  00188	75 13		 jne	 SHORT $L190833

; 619  : 				_Left(_Fixnodeparent) = _Fixnode;	// link down to left

  0018a	8b 4d e4	 mov	 ecx, DWORD PTR __Fixnodeparent$[ebp]
  0018d	51		 push	 ecx
  0018e	e8 00 00 00 00	 call	 ?_Left@?$_Tree@V?$_Tmap_traits@PAUHWND__@@UCWndData@@U?$less@PAUHWND__@@@std@@V?$allocator@U?$pair@QAUHWND__@@UCWndData@@@std@@@4@$0A@@std@@@std@@KAAAPAU_Node@?$_Tree_nod@V?$_Tmap_traits@PAUHWND__@@UCWndData@@U?$less@PAUHWND__@@@std@@V?$allocator@U?$pair@QAUHWND__@@UCWndData@@@std@@@4@$0A@@std@@@2@PAU342@@Z ; std::_Tree<std::_Tmap_traits<HWND__ *,CWndData,std::less<HWND__ *>,std::allocator<std::pair<HWND__ * const,CWndData> >,0> >::_Left
  00193	83 c4 04	 add	 esp, 4
  00196	8b 55 e8	 mov	 edx, DWORD PTR __Fixnode$[ebp]
  00199	89 10		 mov	 DWORD PTR [eax], edx

; 620  : 			else

  0019b	eb 11		 jmp	 SHORT $L190832
$L190833:

; 621  : 				_Right(_Fixnodeparent) = _Fixnode;	// link down to right

  0019d	8b 45 e4	 mov	 eax, DWORD PTR __Fixnodeparent$[ebp]
  001a0	50		 push	 eax
  001a1	e8 00 00 00 00	 call	 ?_Right@?$_Tree@V?$_Tmap_traits@PAUHWND__@@UCWndData@@U?$less@PAUHWND__@@@std@@V?$allocator@U?$pair@QAUHWND__@@UCWndData@@@std@@@4@$0A@@std@@@std@@KAAAPAU_Node@?$_Tree_nod@V?$_Tmap_traits@PAUHWND__@@UCWndData@@U?$less@PAUHWND__@@@std@@V?$allocator@U?$pair@QAUHWND__@@UCWndData@@@std@@@4@$0A@@std@@@2@PAU342@@Z ; std::_Tree<std::_Tmap_traits<HWND__ *,CWndData,std::less<HWND__ *>,std::allocator<std::pair<HWND__ * const,CWndData> >,0> >::_Right
  001a6	83 c4 04	 add	 esp, 4
  001a9	8b 4d e8	 mov	 ecx, DWORD PTR __Fixnode$[ebp]
  001ac	89 08		 mov	 DWORD PTR [eax], ecx
$L190832:

; 622  : 
; 623  : 			if (_Lmost() == _Erasednode)

  001ae	8b 4d f0	 mov	 ecx, DWORD PTR _this$[ebp]
  001b1	e8 00 00 00 00	 call	 ?_Lmost@?$_Tree@V?$_Tmap_traits@PAUHWND__@@UCWndData@@U?$less@PAUHWND__@@@std@@V?$allocator@U?$pair@QAUHWND__@@UCWndData@@@std@@@4@$0A@@std@@@std@@IAEAAPAU_Node@?$_Tree_nod@V?$_Tmap_traits@PAUHWND__@@UCWndData@@U?$less@PAUHWND__@@@std@@V?$allocator@U?$pair@QAUHWND__@@UCWndData@@@std@@@4@$0A@@std@@@2@XZ ; std::_Tree<std::_Tmap_traits<HWND__ *,CWndData,std::less<HWND__ *>,std::allocator<std::pair<HWND__ * const,CWndData> >,0> >::_Lmost
  001b6	8b 10		 mov	 edx, DWORD PTR [eax]
  001b8	3b 55 ec	 cmp	 edx, DWORD PTR __Erasednode$[ebp]
  001bb	75 37		 jne	 SHORT $L190835

; 624  : 				_Lmost() = _Isnil(_Fixnode)
; 625  : 					? _Fixnodeparent	// smallest is parent of erased node
; 626  : 					: _Min(_Fixnode);	// smallest in relinked subtree

  001bd	8b 45 e8	 mov	 eax, DWORD PTR __Fixnode$[ebp]
  001c0	50		 push	 eax
  001c1	e8 00 00 00 00	 call	 ?_Isnil@?$_Tree@V?$_Tmap_traits@PAUHWND__@@UCWndData@@U?$less@PAUHWND__@@@std@@V?$allocator@U?$pair@QAUHWND__@@UCWndData@@@std@@@4@$0A@@std@@@std@@KAAADPAU_Node@?$_Tree_nod@V?$_Tmap_traits@PAUHWND__@@UCWndData@@U?$less@PAUHWND__@@@std@@V?$allocator@U?$pair@QAUHWND__@@UCWndData@@@std@@@4@$0A@@std@@@2@@Z ; std::_Tree<std::_Tmap_traits<HWND__ *,CWndData,std::less<HWND__ *>,std::allocator<std::pair<HWND__ * const,CWndData> >,0> >::_Isnil
  001c6	83 c4 04	 add	 esp, 4
  001c9	0f be 08	 movsx	 ecx, BYTE PTR [eax]
  001cc	85 c9		 test	 ecx, ecx
  001ce	74 08		 je	 SHORT $L192517
  001d0	8b 55 e4	 mov	 edx, DWORD PTR __Fixnodeparent$[ebp]
  001d3	89 55 98	 mov	 DWORD PTR tv165[ebp], edx
  001d6	eb 0f		 jmp	 SHORT $L192518
$L192517:
  001d8	8b 45 e8	 mov	 eax, DWORD PTR __Fixnode$[ebp]
  001db	50		 push	 eax
  001dc	e8 00 00 00 00	 call	 ?_Min@?$_Tree@V?$_Tmap_traits@PAUHWND__@@UCWndData@@U?$less@PAUHWND__@@@std@@V?$allocator@U?$pair@QAUHWND__@@UCWndData@@@std@@@4@$0A@@std@@@std@@KAPAU_Node@?$_Tree_nod@V?$_Tmap_traits@PAUHWND__@@UCWndData@@U?$less@PAUHWND__@@@std@@V?$allocator@U?$pair@QAUHWND__@@UCWndData@@@std@@@4@$0A@@std@@@2@PAU342@@Z ; std::_Tree<std::_Tmap_traits<HWND__ *,CWndData,std::less<HWND__ *>,std::allocator<std::pair<HWND__ * const,CWndData> >,0> >::_Min
  001e1	83 c4 04	 add	 esp, 4
  001e4	89 45 98	 mov	 DWORD PTR tv165[ebp], eax
$L192518:
  001e7	8b 4d f0	 mov	 ecx, DWORD PTR _this$[ebp]
  001ea	e8 00 00 00 00	 call	 ?_Lmost@?$_Tree@V?$_Tmap_traits@PAUHWND__@@UCWndData@@U?$less@PAUHWND__@@@std@@V?$allocator@U?$pair@QAUHWND__@@UCWndData@@@std@@@4@$0A@@std@@@std@@IAEAAPAU_Node@?$_Tree_nod@V?$_Tmap_traits@PAUHWND__@@UCWndData@@U?$less@PAUHWND__@@@std@@V?$allocator@U?$pair@QAUHWND__@@UCWndData@@@std@@@4@$0A@@std@@@2@XZ ; std::_Tree<std::_Tmap_traits<HWND__ *,CWndData,std::less<HWND__ *>,std::allocator<std::pair<HWND__ * const,CWndData> >,0> >::_Lmost
  001ef	8b 4d 98	 mov	 ecx, DWORD PTR tv165[ebp]
  001f2	89 08		 mov	 DWORD PTR [eax], ecx
$L190835:

; 627  : 
; 628  : 			if (_Rmost() == _Erasednode)

  001f4	8b 4d f0	 mov	 ecx, DWORD PTR _this$[ebp]
  001f7	e8 00 00 00 00	 call	 ?_Rmost@?$_Tree@V?$_Tmap_traits@PAUHWND__@@UCWndData@@U?$less@PAUHWND__@@@std@@V?$allocator@U?$pair@QAUHWND__@@UCWndData@@@std@@@4@$0A@@std@@@std@@IAEAAPAU_Node@?$_Tree_nod@V?$_Tmap_traits@PAUHWND__@@UCWndData@@U?$less@PAUHWND__@@@std@@V?$allocator@U?$pair@QAUHWND__@@UCWndData@@@std@@@4@$0A@@std@@@2@XZ ; std::_Tree<std::_Tmap_traits<HWND__ *,CWndData,std::less<HWND__ *>,std::allocator<std::pair<HWND__ * const,CWndData> >,0> >::_Rmost
  001fc	8b 10		 mov	 edx, DWORD PTR [eax]
  001fe	3b 55 ec	 cmp	 edx, DWORD PTR __Erasednode$[ebp]
  00201	75 37		 jne	 SHORT $L190836

; 629  : 				_Rmost() = _Isnil(_Fixnode)
; 630  : 					? _Fixnodeparent	// largest is parent of erased node
; 631  : 					: _Max(_Fixnode);	// largest in relinked subtree

  00203	8b 45 e8	 mov	 eax, DWORD PTR __Fixnode$[ebp]
  00206	50		 push	 eax
  00207	e8 00 00 00 00	 call	 ?_Isnil@?$_Tree@V?$_Tmap_traits@PAUHWND__@@UCWndData@@U?$less@PAUHWND__@@@std@@V?$allocator@U?$pair@QAUHWND__@@UCWndData@@@std@@@4@$0A@@std@@@std@@KAAADPAU_Node@?$_Tree_nod@V?$_Tmap_traits@PAUHWND__@@UCWndData@@U?$less@PAUHWND__@@@std@@V?$allocator@U?$pair@QAUHWND__@@UCWndData@@@std@@@4@$0A@@std@@@2@@Z ; std::_Tree<std::_Tmap_traits<HWND__ *,CWndData,std::less<HWND__ *>,std::allocator<std::pair<HWND__ * const,CWndData> >,0> >::_Isnil
  0020c	83 c4 04	 add	 esp, 4
  0020f	0f be 08	 movsx	 ecx, BYTE PTR [eax]
  00212	85 c9		 test	 ecx, ecx
  00214	74 08		 je	 SHORT $L192519
  00216	8b 55 e4	 mov	 edx, DWORD PTR __Fixnodeparent$[ebp]
  00219	89 55 94	 mov	 DWORD PTR tv177[ebp], edx
  0021c	eb 0f		 jmp	 SHORT $L192520
$L192519:
  0021e	8b 45 e8	 mov	 eax, DWORD PTR __Fixnode$[ebp]
  00221	50		 push	 eax
  00222	e8 00 00 00 00	 call	 ?_Max@?$_Tree@V?$_Tmap_traits@PAUHWND__@@UCWndData@@U?$less@PAUHWND__@@@std@@V?$allocator@U?$pair@QAUHWND__@@UCWndData@@@std@@@4@$0A@@std@@@std@@KAPAU_Node@?$_Tree_nod@V?$_Tmap_traits@PAUHWND__@@UCWndData@@U?$less@PAUHWND__@@@std@@V?$allocator@U?$pair@QAUHWND__@@UCWndData@@@std@@@4@$0A@@std@@@2@PAU342@@Z ; std::_Tree<std::_Tmap_traits<HWND__ *,CWndData,std::less<HWND__ *>,std::allocator<std::pair<HWND__ * const,CWndData> >,0> >::_Max
  00227	83 c4 04	 add	 esp, 4
  0022a	89 45 94	 mov	 DWORD PTR tv177[ebp], eax
$L192520:
  0022d	8b 4d f0	 mov	 ecx, DWORD PTR _this$[ebp]
  00230	e8 00 00 00 00	 call	 ?_Rmost@?$_Tree@V?$_Tmap_traits@PAUHWND__@@UCWndData@@U?$less@PAUHWND__@@@std@@V?$allocator@U?$pair@QAUHWND__@@UCWndData@@@std@@@4@$0A@@std@@@std@@IAEAAPAU_Node@?$_Tree_nod@V?$_Tmap_traits@PAUHWND__@@UCWndData@@U?$less@PAUHWND__@@@std@@V?$allocator@U?$pair@QAUHWND__@@UCWndData@@@std@@@4@$0A@@std@@@2@XZ ; std::_Tree<std::_Tmap_traits<HWND__ *,CWndData,std::less<HWND__ *>,std::allocator<std::pair<HWND__ * const,CWndData> >,0> >::_Rmost
  00235	8b 4d 94	 mov	 ecx, DWORD PTR tv177[ebp]
  00238	89 08		 mov	 DWORD PTR [eax], ecx
$L190836:

; 632  : 			}
; 633  : 		else

  0023a	e9 8e 01 00 00	 jmp	 $L190837
$L190829:

; 634  : 			{	// erased has two subtrees, _Pnode is successor to erased
; 635  : 			_Parent(_Left(_Erasednode)) = _Pnode;	// link left up

  0023f	8b 55 ec	 mov	 edx, DWORD PTR __Erasednode$[ebp]
  00242	52		 push	 edx
  00243	e8 00 00 00 00	 call	 ?_Left@?$_Tree@V?$_Tmap_traits@PAUHWND__@@UCWndData@@U?$less@PAUHWND__@@@std@@V?$allocator@U?$pair@QAUHWND__@@UCWndData@@@std@@@4@$0A@@std@@@std@@KAAAPAU_Node@?$_Tree_nod@V?$_Tmap_traits@PAUHWND__@@UCWndData@@U?$less@PAUHWND__@@@std@@V?$allocator@U?$pair@QAUHWND__@@UCWndData@@@std@@@4@$0A@@std@@@2@PAU342@@Z ; std::_Tree<std::_Tmap_traits<HWND__ *,CWndData,std::less<HWND__ *>,std::allocator<std::pair<HWND__ * const,CWndData> >,0> >::_Left
  00248	83 c4 04	 add	 esp, 4
  0024b	8b 00		 mov	 eax, DWORD PTR [eax]
  0024d	50		 push	 eax
  0024e	e8 00 00 00 00	 call	 ?_Parent@?$_Tree@V?$_Tmap_traits@PAUHWND__@@UCWndData@@U?$less@PAUHWND__@@@std@@V?$allocator@U?$pair@QAUHWND__@@UCWndData@@@std@@@4@$0A@@std@@@std@@KAAAPAU_Node@?$_Tree_nod@V?$_Tmap_traits@PAUHWND__@@UCWndData@@U?$less@PAUHWND__@@@std@@V?$allocator@U?$pair@QAUHWND__@@UCWndData@@@std@@@4@$0A@@std@@@2@PAU342@@Z ; std::_Tree<std::_Tmap_traits<HWND__ *,CWndData,std::less<HWND__ *>,std::allocator<std::pair<HWND__ * const,CWndData> >,0> >::_Parent
  00253	83 c4 04	 add	 esp, 4
  00256	8b 4d e0	 mov	 ecx, DWORD PTR __Pnode$[ebp]
  00259	89 08		 mov	 DWORD PTR [eax], ecx

; 636  : 			_Left(_Pnode) = _Left(_Erasednode);	// link successor down

  0025b	8b 55 ec	 mov	 edx, DWORD PTR __Erasednode$[ebp]
  0025e	52		 push	 edx
  0025f	e8 00 00 00 00	 call	 ?_Left@?$_Tree@V?$_Tmap_traits@PAUHWND__@@UCWndData@@U?$less@PAUHWND__@@@std@@V?$allocator@U?$pair@QAUHWND__@@UCWndData@@@std@@@4@$0A@@std@@@std@@KAAAPAU_Node@?$_Tree_nod@V?$_Tmap_traits@PAUHWND__@@UCWndData@@U?$less@PAUHWND__@@@std@@V?$allocator@U?$pair@QAUHWND__@@UCWndData@@@std@@@4@$0A@@std@@@2@PAU342@@Z ; std::_Tree<std::_Tmap_traits<HWND__ *,CWndData,std::less<HWND__ *>,std::allocator<std::pair<HWND__ * const,CWndData> >,0> >::_Left
  00264	83 c4 04	 add	 esp, 4
  00267	8b f0		 mov	 esi, eax
  00269	8b 45 e0	 mov	 eax, DWORD PTR __Pnode$[ebp]
  0026c	50		 push	 eax
  0026d	e8 00 00 00 00	 call	 ?_Left@?$_Tree@V?$_Tmap_traits@PAUHWND__@@UCWndData@@U?$less@PAUHWND__@@@std@@V?$allocator@U?$pair@QAUHWND__@@UCWndData@@@std@@@4@$0A@@std@@@std@@KAAAPAU_Node@?$_Tree_nod@V?$_Tmap_traits@PAUHWND__@@UCWndData@@U?$less@PAUHWND__@@@std@@V?$allocator@U?$pair@QAUHWND__@@UCWndData@@@std@@@4@$0A@@std@@@2@PAU342@@Z ; std::_Tree<std::_Tmap_traits<HWND__ *,CWndData,std::less<HWND__ *>,std::allocator<std::pair<HWND__ * const,CWndData> >,0> >::_Left
  00272	83 c4 04	 add	 esp, 4
  00275	8b 0e		 mov	 ecx, DWORD PTR [esi]
  00277	89 08		 mov	 DWORD PTR [eax], ecx

; 637  : 
; 638  : 			if (_Pnode == _Right(_Erasednode))

  00279	8b 55 ec	 mov	 edx, DWORD PTR __Erasednode$[ebp]
  0027c	52		 push	 edx
  0027d	e8 00 00 00 00	 call	 ?_Right@?$_Tree@V?$_Tmap_traits@PAUHWND__@@UCWndData@@U?$less@PAUHWND__@@@std@@V?$allocator@U?$pair@QAUHWND__@@UCWndData@@@std@@@4@$0A@@std@@@std@@KAAAPAU_Node@?$_Tree_nod@V?$_Tmap_traits@PAUHWND__@@UCWndData@@U?$less@PAUHWND__@@@std@@V?$allocator@U?$pair@QAUHWND__@@UCWndData@@@std@@@4@$0A@@std@@@2@PAU342@@Z ; std::_Tree<std::_Tmap_traits<HWND__ *,CWndData,std::less<HWND__ *>,std::allocator<std::pair<HWND__ * const,CWndData> >,0> >::_Right
  00282	83 c4 04	 add	 esp, 4
  00285	8b 4d e0	 mov	 ecx, DWORD PTR __Pnode$[ebp]
  00288	3b 08		 cmp	 ecx, DWORD PTR [eax]
  0028a	75 0b		 jne	 SHORT $L190838

; 639  : 				_Fixnodeparent = _Pnode;	// successor is next to erased

  0028c	8b 55 e0	 mov	 edx, DWORD PTR __Pnode$[ebp]
  0028f	89 55 e4	 mov	 DWORD PTR __Fixnodeparent$[ebp], edx

; 640  : 			else

  00292	e9 80 00 00 00	 jmp	 $L190839
$L190838:

; 641  : 				{	// successor further down, link in place of erased
; 642  : 				_Fixnodeparent = _Parent(_Pnode);	// parent is successor's

  00297	8b 45 e0	 mov	 eax, DWORD PTR __Pnode$[ebp]
  0029a	50		 push	 eax
  0029b	e8 00 00 00 00	 call	 ?_Parent@?$_Tree@V?$_Tmap_traits@PAUHWND__@@UCWndData@@U?$less@PAUHWND__@@@std@@V?$allocator@U?$pair@QAUHWND__@@UCWndData@@@std@@@4@$0A@@std@@@std@@KAAAPAU_Node@?$_Tree_nod@V?$_Tmap_traits@PAUHWND__@@UCWndData@@U?$less@PAUHWND__@@@std@@V?$allocator@U?$pair@QAUHWND__@@UCWndData@@@std@@@4@$0A@@std@@@2@PAU342@@Z ; std::_Tree<std::_Tmap_traits<HWND__ *,CWndData,std::less<HWND__ *>,std::allocator<std::pair<HWND__ * const,CWndData> >,0> >::_Parent
  002a0	83 c4 04	 add	 esp, 4
  002a3	8b 08		 mov	 ecx, DWORD PTR [eax]
  002a5	89 4d e4	 mov	 DWORD PTR __Fixnodeparent$[ebp], ecx

; 643  : 				if (!_Isnil(_Fixnode))

  002a8	8b 55 e8	 mov	 edx, DWORD PTR __Fixnode$[ebp]
  002ab	52		 push	 edx
  002ac	e8 00 00 00 00	 call	 ?_Isnil@?$_Tree@V?$_Tmap_traits@PAUHWND__@@UCWndData@@U?$less@PAUHWND__@@@std@@V?$allocator@U?$pair@QAUHWND__@@UCWndData@@@std@@@4@$0A@@std@@@std@@KAAADPAU_Node@?$_Tree_nod@V?$_Tmap_traits@PAUHWND__@@UCWndData@@U?$less@PAUHWND__@@@std@@V?$allocator@U?$pair@QAUHWND__@@UCWndData@@@std@@@4@$0A@@std@@@2@@Z ; std::_Tree<std::_Tmap_traits<HWND__ *,CWndData,std::less<HWND__ *>,std::allocator<std::pair<HWND__ * const,CWndData> >,0> >::_Isnil
  002b1	83 c4 04	 add	 esp, 4
  002b4	0f be 00	 movsx	 eax, BYTE PTR [eax]
  002b7	85 c0		 test	 eax, eax
  002b9	75 11		 jne	 SHORT $L190840

; 644  : 					_Parent(_Fixnode) = _Fixnodeparent;	// link fix up

  002bb	8b 4d e8	 mov	 ecx, DWORD PTR __Fixnode$[ebp]
  002be	51		 push	 ecx
  002bf	e8 00 00 00 00	 call	 ?_Parent@?$_Tree@V?$_Tmap_traits@PAUHWND__@@UCWndData@@U?$less@PAUHWND__@@@std@@V?$allocator@U?$pair@QAUHWND__@@UCWndData@@@std@@@4@$0A@@std@@@std@@KAAAPAU_Node@?$_Tree_nod@V?$_Tmap_traits@PAUHWND__@@UCWndData@@U?$less@PAUHWND__@@@std@@V?$allocator@U?$pair@QAUHWND__@@UCWndData@@@std@@@4@$0A@@std@@@2@PAU342@@Z ; std::_Tree<std::_Tmap_traits<HWND__ *,CWndData,std::less<HWND__ *>,std::allocator<std::pair<HWND__ * const,CWndData> >,0> >::_Parent
  002c4	83 c4 04	 add	 esp, 4
  002c7	8b 55 e4	 mov	 edx, DWORD PTR __Fixnodeparent$[ebp]
  002ca	89 10		 mov	 DWORD PTR [eax], edx
$L190840:

; 645  : 				_Left(_Fixnodeparent) = _Fixnode;	// link fix down

  002cc	8b 45 e4	 mov	 eax, DWORD PTR __Fixnodeparent$[ebp]
  002cf	50		 push	 eax
  002d0	e8 00 00 00 00	 call	 ?_Left@?$_Tree@V?$_Tmap_traits@PAUHWND__@@UCWndData@@U?$less@PAUHWND__@@@std@@V?$allocator@U?$pair@QAUHWND__@@UCWndData@@@std@@@4@$0A@@std@@@std@@KAAAPAU_Node@?$_Tree_nod@V?$_Tmap_traits@PAUHWND__@@UCWndData@@U?$less@PAUHWND__@@@std@@V?$allocator@U?$pair@QAUHWND__@@UCWndData@@@std@@@4@$0A@@std@@@2@PAU342@@Z ; std::_Tree<std::_Tmap_traits<HWND__ *,CWndData,std::less<HWND__ *>,std::allocator<std::pair<HWND__ * const,CWndData> >,0> >::_Left
  002d5	83 c4 04	 add	 esp, 4
  002d8	8b 4d e8	 mov	 ecx, DWORD PTR __Fixnode$[ebp]
  002db	89 08		 mov	 DWORD PTR [eax], ecx

; 646  : 				_Right(_Pnode) = _Right(_Erasednode);	// link successor down

  002dd	8b 55 ec	 mov	 edx, DWORD PTR __Erasednode$[ebp]
  002e0	52		 push	 edx
  002e1	e8 00 00 00 00	 call	 ?_Right@?$_Tree@V?$_Tmap_traits@PAUHWND__@@UCWndData@@U?$less@PAUHWND__@@@std@@V?$allocator@U?$pair@QAUHWND__@@UCWndData@@@std@@@4@$0A@@std@@@std@@KAAAPAU_Node@?$_Tree_nod@V?$_Tmap_traits@PAUHWND__@@UCWndData@@U?$less@PAUHWND__@@@std@@V?$allocator@U?$pair@QAUHWND__@@UCWndData@@@std@@@4@$0A@@std@@@2@PAU342@@Z ; std::_Tree<std::_Tmap_traits<HWND__ *,CWndData,std::less<HWND__ *>,std::allocator<std::pair<HWND__ * const,CWndData> >,0> >::_Right
  002e6	83 c4 04	 add	 esp, 4
  002e9	8b f0		 mov	 esi, eax
  002eb	8b 45 e0	 mov	 eax, DWORD PTR __Pnode$[ebp]
  002ee	50		 push	 eax
  002ef	e8 00 00 00 00	 call	 ?_Right@?$_Tree@V?$_Tmap_traits@PAUHWND__@@UCWndData@@U?$less@PAUHWND__@@@std@@V?$allocator@U?$pair@QAUHWND__@@UCWndData@@@std@@@4@$0A@@std@@@std@@KAAAPAU_Node@?$_Tree_nod@V?$_Tmap_traits@PAUHWND__@@UCWndData@@U?$less@PAUHWND__@@@std@@V?$allocator@U?$pair@QAUHWND__@@UCWndData@@@std@@@4@$0A@@std@@@2@PAU342@@Z ; std::_Tree<std::_Tmap_traits<HWND__ *,CWndData,std::less<HWND__ *>,std::allocator<std::pair<HWND__ * const,CWndData> >,0> >::_Right
  002f4	83 c4 04	 add	 esp, 4
  002f7	8b 0e		 mov	 ecx, DWORD PTR [esi]
  002f9	89 08		 mov	 DWORD PTR [eax], ecx

; 647  : 				_Parent(_Right(_Erasednode)) = _Pnode;	// link right up

  002fb	8b 55 ec	 mov	 edx, DWORD PTR __Erasednode$[ebp]
  002fe	52		 push	 edx
  002ff	e8 00 00 00 00	 call	 ?_Right@?$_Tree@V?$_Tmap_traits@PAUHWND__@@UCWndData@@U?$less@PAUHWND__@@@std@@V?$allocator@U?$pair@QAUHWND__@@UCWndData@@@std@@@4@$0A@@std@@@std@@KAAAPAU_Node@?$_Tree_nod@V?$_Tmap_traits@PAUHWND__@@UCWndData@@U?$less@PAUHWND__@@@std@@V?$allocator@U?$pair@QAUHWND__@@UCWndData@@@std@@@4@$0A@@std@@@2@PAU342@@Z ; std::_Tree<std::_Tmap_traits<HWND__ *,CWndData,std::less<HWND__ *>,std::allocator<std::pair<HWND__ * const,CWndData> >,0> >::_Right
  00304	83 c4 04	 add	 esp, 4
  00307	8b 00		 mov	 eax, DWORD PTR [eax]
  00309	50		 push	 eax
  0030a	e8 00 00 00 00	 call	 ?_Parent@?$_Tree@V?$_Tmap_traits@PAUHWND__@@UCWndData@@U?$less@PAUHWND__@@@std@@V?$allocator@U?$pair@QAUHWND__@@UCWndData@@@std@@@4@$0A@@std@@@std@@KAAAPAU_Node@?$_Tree_nod@V?$_Tmap_traits@PAUHWND__@@UCWndData@@U?$less@PAUHWND__@@@std@@V?$allocator@U?$pair@QAUHWND__@@UCWndData@@@std@@@4@$0A@@std@@@2@PAU342@@Z ; std::_Tree<std::_Tmap_traits<HWND__ *,CWndData,std::less<HWND__ *>,std::allocator<std::pair<HWND__ * const,CWndData> >,0> >::_Parent
  0030f	83 c4 04	 add	 esp, 4
  00312	8b 4d e0	 mov	 ecx, DWORD PTR __Pnode$[ebp]
  00315	89 08		 mov	 DWORD PTR [eax], ecx
$L190839:

; 648  : 				}
; 649  : 
; 650  : 			if (_Root() == _Erasednode)

  00317	8b 4d f0	 mov	 ecx, DWORD PTR _this$[ebp]
  0031a	e8 00 00 00 00	 call	 ?_Root@?$_Tree@V?$_Tmap_traits@PAUHWND__@@UCWndData@@U?$less@PAUHWND__@@@std@@V?$allocator@U?$pair@QAUHWND__@@UCWndData@@@std@@@4@$0A@@std@@@std@@IAEAAPAU_Node@?$_Tree_nod@V?$_Tmap_traits@PAUHWND__@@UCWndData@@U?$less@PAUHWND__@@@std@@V?$allocator@U?$pair@QAUHWND__@@UCWndData@@@std@@@4@$0A@@std@@@2@XZ ; std::_Tree<std::_Tmap_traits<HWND__ *,CWndData,std::less<HWND__ *>,std::allocator<std::pair<HWND__ * const,CWndData> >,0> >::_Root
  0031f	8b 10		 mov	 edx, DWORD PTR [eax]
  00321	3b 55 ec	 cmp	 edx, DWORD PTR __Erasednode$[ebp]
  00324	75 0f		 jne	 SHORT $L190841

; 651  : 				_Root() = _Pnode;	// link down from root

  00326	8b 4d f0	 mov	 ecx, DWORD PTR _this$[ebp]
  00329	e8 00 00 00 00	 call	 ?_Root@?$_Tree@V?$_Tmap_traits@PAUHWND__@@UCWndData@@U?$less@PAUHWND__@@@std@@V?$allocator@U?$pair@QAUHWND__@@UCWndData@@@std@@@4@$0A@@std@@@std@@IAEAAPAU_Node@?$_Tree_nod@V?$_Tmap_traits@PAUHWND__@@UCWndData@@U?$less@PAUHWND__@@@std@@V?$allocator@U?$pair@QAUHWND__@@UCWndData@@@std@@@4@$0A@@std@@@2@XZ ; std::_Tree<std::_Tmap_traits<HWND__ *,CWndData,std::less<HWND__ *>,std::allocator<std::pair<HWND__ * const,CWndData> >,0> >::_Root
  0032e	8b 4d e0	 mov	 ecx, DWORD PTR __Pnode$[ebp]
  00331	89 08		 mov	 DWORD PTR [eax], ecx

; 652  : 			else if (_Left(_Parent(_Erasednode)) == _Erasednode)

  00333	eb 58		 jmp	 SHORT $L190842
$L190841:
  00335	8b 55 ec	 mov	 edx, DWORD PTR __Erasednode$[ebp]
  00338	52		 push	 edx
  00339	e8 00 00 00 00	 call	 ?_Parent@?$_Tree@V?$_Tmap_traits@PAUHWND__@@UCWndData@@U?$less@PAUHWND__@@@std@@V?$allocator@U?$pair@QAUHWND__@@UCWndData@@@std@@@4@$0A@@std@@@std@@KAAAPAU_Node@?$_Tree_nod@V?$_Tmap_traits@PAUHWND__@@UCWndData@@U?$less@PAUHWND__@@@std@@V?$allocator@U?$pair@QAUHWND__@@UCWndData@@@std@@@4@$0A@@std@@@2@PAU342@@Z ; std::_Tree<std::_Tmap_traits<HWND__ *,CWndData,std::less<HWND__ *>,std::allocator<std::pair<HWND__ * const,CWndData> >,0> >::_Parent
  0033e	83 c4 04	 add	 esp, 4
  00341	8b 00		 mov	 eax, DWORD PTR [eax]
  00343	50		 push	 eax
  00344	e8 00 00 00 00	 call	 ?_Left@?$_Tree@V?$_Tmap_traits@PAUHWND__@@UCWndData@@U?$less@PAUHWND__@@@std@@V?$allocator@U?$pair@QAUHWND__@@UCWndData@@@std@@@4@$0A@@std@@@std@@KAAAPAU_Node@?$_Tree_nod@V?$_Tmap_traits@PAUHWND__@@UCWndData@@U?$less@PAUHWND__@@@std@@V?$allocator@U?$pair@QAUHWND__@@UCWndData@@@std@@@4@$0A@@std@@@2@PAU342@@Z ; std::_Tree<std::_Tmap_traits<HWND__ *,CWndData,std::less<HWND__ *>,std::allocator<std::pair<HWND__ * const,CWndData> >,0> >::_Left
  00349	83 c4 04	 add	 esp, 4
  0034c	8b 08		 mov	 ecx, DWORD PTR [eax]
  0034e	3b 4d ec	 cmp	 ecx, DWORD PTR __Erasednode$[ebp]
  00351	75 1e		 jne	 SHORT $L190843

; 653  : 				_Left(_Parent(_Erasednode)) = _Pnode;	// link down to left

  00353	8b 55 ec	 mov	 edx, DWORD PTR __Erasednode$[ebp]
  00356	52		 push	 edx
  00357	e8 00 00 00 00	 call	 ?_Parent@?$_Tree@V?$_Tmap_traits@PAUHWND__@@UCWndData@@U?$less@PAUHWND__@@@std@@V?$allocator@U?$pair@QAUHWND__@@UCWndData@@@std@@@4@$0A@@std@@@std@@KAAAPAU_Node@?$_Tree_nod@V?$_Tmap_traits@PAUHWND__@@UCWndData@@U?$less@PAUHWND__@@@std@@V?$allocator@U?$pair@QAUHWND__@@UCWndData@@@std@@@4@$0A@@std@@@2@PAU342@@Z ; std::_Tree<std::_Tmap_traits<HWND__ *,CWndData,std::less<HWND__ *>,std::allocator<std::pair<HWND__ * const,CWndData> >,0> >::_Parent
  0035c	83 c4 04	 add	 esp, 4
  0035f	8b 00		 mov	 eax, DWORD PTR [eax]
  00361	50		 push	 eax
  00362	e8 00 00 00 00	 call	 ?_Left@?$_Tree@V?$_Tmap_traits@PAUHWND__@@UCWndData@@U?$less@PAUHWND__@@@std@@V?$allocator@U?$pair@QAUHWND__@@UCWndData@@@std@@@4@$0A@@std@@@std@@KAAAPAU_Node@?$_Tree_nod@V?$_Tmap_traits@PAUHWND__@@UCWndData@@U?$less@PAUHWND__@@@std@@V?$allocator@U?$pair@QAUHWND__@@UCWndData@@@std@@@4@$0A@@std@@@2@PAU342@@Z ; std::_Tree<std::_Tmap_traits<HWND__ *,CWndData,std::less<HWND__ *>,std::allocator<std::pair<HWND__ * const,CWndData> >,0> >::_Left
  00367	83 c4 04	 add	 esp, 4
  0036a	8b 4d e0	 mov	 ecx, DWORD PTR __Pnode$[ebp]
  0036d	89 08		 mov	 DWORD PTR [eax], ecx

; 654  : 			else

  0036f	eb 1c		 jmp	 SHORT $L190842
$L190843:

; 655  : 				_Right(_Parent(_Erasednode)) = _Pnode;	// link down to right

  00371	8b 55 ec	 mov	 edx, DWORD PTR __Erasednode$[ebp]
  00374	52		 push	 edx
  00375	e8 00 00 00 00	 call	 ?_Parent@?$_Tree@V?$_Tmap_traits@PAUHWND__@@UCWndData@@U?$less@PAUHWND__@@@std@@V?$allocator@U?$pair@QAUHWND__@@UCWndData@@@std@@@4@$0A@@std@@@std@@KAAAPAU_Node@?$_Tree_nod@V?$_Tmap_traits@PAUHWND__@@UCWndData@@U?$less@PAUHWND__@@@std@@V?$allocator@U?$pair@QAUHWND__@@UCWndData@@@std@@@4@$0A@@std@@@2@PAU342@@Z ; std::_Tree<std::_Tmap_traits<HWND__ *,CWndData,std::less<HWND__ *>,std::allocator<std::pair<HWND__ * const,CWndData> >,0> >::_Parent
  0037a	83 c4 04	 add	 esp, 4
  0037d	8b 00		 mov	 eax, DWORD PTR [eax]
  0037f	50		 push	 eax
  00380	e8 00 00 00 00	 call	 ?_Right@?$_Tree@V?$_Tmap_traits@PAUHWND__@@UCWndData@@U?$less@PAUHWND__@@@std@@V?$allocator@U?$pair@QAUHWND__@@UCWndData@@@std@@@4@$0A@@std@@@std@@KAAAPAU_Node@?$_Tree_nod@V?$_Tmap_traits@PAUHWND__@@UCWndData@@U?$less@PAUHWND__@@@std@@V?$allocator@U?$pair@QAUHWND__@@UCWndData@@@std@@@4@$0A@@std@@@2@PAU342@@Z ; std::_Tree<std::_Tmap_traits<HWND__ *,CWndData,std::less<HWND__ *>,std::allocator<std::pair<HWND__ * const,CWndData> >,0> >::_Right
  00385	83 c4 04	 add	 esp, 4
  00388	8b 4d e0	 mov	 ecx, DWORD PTR __Pnode$[ebp]
  0038b	89 08		 mov	 DWORD PTR [eax], ecx
$L190842:

; 656  : 
; 657  : 			_Parent(_Pnode) = _Parent(_Erasednode);	// link successor up

  0038d	8b 55 ec	 mov	 edx, DWORD PTR __Erasednode$[ebp]
  00390	52		 push	 edx
  00391	e8 00 00 00 00	 call	 ?_Parent@?$_Tree@V?$_Tmap_traits@PAUHWND__@@UCWndData@@U?$less@PAUHWND__@@@std@@V?$allocator@U?$pair@QAUHWND__@@UCWndData@@@std@@@4@$0A@@std@@@std@@KAAAPAU_Node@?$_Tree_nod@V?$_Tmap_traits@PAUHWND__@@UCWndData@@U?$less@PAUHWND__@@@std@@V?$allocator@U?$pair@QAUHWND__@@UCWndData@@@std@@@4@$0A@@std@@@2@PAU342@@Z ; std::_Tree<std::_Tmap_traits<HWND__ *,CWndData,std::less<HWND__ *>,std::allocator<std::pair<HWND__ * const,CWndData> >,0> >::_Parent
  00396	83 c4 04	 add	 esp, 4
  00399	8b f0		 mov	 esi, eax
  0039b	8b 45 e0	 mov	 eax, DWORD PTR __Pnode$[ebp]
  0039e	50		 push	 eax
  0039f	e8 00 00 00 00	 call	 ?_Parent@?$_Tree@V?$_Tmap_traits@PAUHWND__@@UCWndData@@U?$less@PAUHWND__@@@std@@V?$allocator@U?$pair@QAUHWND__@@UCWndData@@@std@@@4@$0A@@std@@@std@@KAAAPAU_Node@?$_Tree_nod@V?$_Tmap_traits@PAUHWND__@@UCWndData@@U?$less@PAUHWND__@@@std@@V?$allocator@U?$pair@QAUHWND__@@UCWndData@@@std@@@4@$0A@@std@@@2@PAU342@@Z ; std::_Tree<std::_Tmap_traits<HWND__ *,CWndData,std::less<HWND__ *>,std::allocator<std::pair<HWND__ * const,CWndData> >,0> >::_Parent
  003a4	83 c4 04	 add	 esp, 4
  003a7	8b 0e		 mov	 ecx, DWORD PTR [esi]
  003a9	89 08		 mov	 DWORD PTR [eax], ecx

; 658  : 			std::swap(_Color(_Pnode), _Color(_Erasednode));	// recolor it

  003ab	8b 55 ec	 mov	 edx, DWORD PTR __Erasednode$[ebp]
  003ae	52		 push	 edx
  003af	e8 00 00 00 00	 call	 ?_Color@?$_Tree@V?$_Tmap_traits@PAUHWND__@@UCWndData@@U?$less@PAUHWND__@@@std@@V?$allocator@U?$pair@QAUHWND__@@UCWndData@@@std@@@4@$0A@@std@@@std@@KAAADPAU_Node@?$_Tree_nod@V?$_Tmap_traits@PAUHWND__@@UCWndData@@U?$less@PAUHWND__@@@std@@V?$allocator@U?$pair@QAUHWND__@@UCWndData@@@std@@@4@$0A@@std@@@2@@Z ; std::_Tree<std::_Tmap_traits<HWND__ *,CWndData,std::less<HWND__ *>,std::allocator<std::pair<HWND__ * const,CWndData> >,0> >::_Color
  003b4	83 c4 04	 add	 esp, 4
  003b7	50		 push	 eax
  003b8	8b 45 e0	 mov	 eax, DWORD PTR __Pnode$[ebp]
  003bb	50		 push	 eax
  003bc	e8 00 00 00 00	 call	 ?_Color@?$_Tree@V?$_Tmap_traits@PAUHWND__@@UCWndData@@U?$less@PAUHWND__@@@std@@V?$allocator@U?$pair@QAUHWND__@@UCWndData@@@std@@@4@$0A@@std@@@std@@KAAADPAU_Node@?$_Tree_nod@V?$_Tmap_traits@PAUHWND__@@UCWndData@@U?$less@PAUHWND__@@@std@@V?$allocator@U?$pair@QAUHWND__@@UCWndData@@@std@@@4@$0A@@std@@@2@@Z ; std::_Tree<std::_Tmap_traits<HWND__ *,CWndData,std::less<HWND__ *>,std::allocator<std::pair<HWND__ * const,CWndData> >,0> >::_Color
  003c1	83 c4 04	 add	 esp, 4
  003c4	50		 push	 eax
  003c5	e8 00 00 00 00	 call	 ??$swap@D@std@@YAXAAD0@Z ; std::swap<char>
  003ca	83 c4 08	 add	 esp, 8
$L190837:

; 659  : 			}
; 660  : 
; 661  : 		if (_Color(_Erasednode) == _Black)

  003cd	8b 4d ec	 mov	 ecx, DWORD PTR __Erasednode$[ebp]
  003d0	51		 push	 ecx
  003d1	e8 00 00 00 00	 call	 ?_Color@?$_Tree@V?$_Tmap_traits@PAUHWND__@@UCWndData@@U?$less@PAUHWND__@@@std@@V?$allocator@U?$pair@QAUHWND__@@UCWndData@@@std@@@4@$0A@@std@@@std@@KAAADPAU_Node@?$_Tree_nod@V?$_Tmap_traits@PAUHWND__@@UCWndData@@U?$less@PAUHWND__@@@std@@V?$allocator@U?$pair@QAUHWND__@@UCWndData@@@std@@@4@$0A@@std@@@2@@Z ; std::_Tree<std::_Tmap_traits<HWND__ *,CWndData,std::less<HWND__ *>,std::allocator<std::pair<HWND__ * const,CWndData> >,0> >::_Color
  003d6	83 c4 04	 add	 esp, 4
  003d9	0f be 10	 movsx	 edx, BYTE PTR [eax]
  003dc	83 fa 01	 cmp	 edx, 1
  003df	0f 85 8f 03 00
	00		 jne	 $L190845

; 662  : 			{	// erasing black link, must recolor/rebalance tree
; 663  : 			for (; _Fixnode != _Root() && _Color(_Fixnode) == _Black;
; 664  : 				_Fixnodeparent = _Parent(_Fixnode))

  003e5	eb 11		 jmp	 SHORT $L190846
$L190847:
  003e7	8b 45 e8	 mov	 eax, DWORD PTR __Fixnode$[ebp]
  003ea	50		 push	 eax
  003eb	e8 00 00 00 00	 call	 ?_Parent@?$_Tree@V?$_Tmap_traits@PAUHWND__@@UCWndData@@U?$less@PAUHWND__@@@std@@V?$allocator@U?$pair@QAUHWND__@@UCWndData@@@std@@@4@$0A@@std@@@std@@KAAAPAU_Node@?$_Tree_nod@V?$_Tmap_traits@PAUHWND__@@UCWndData@@U?$less@PAUHWND__@@@std@@V?$allocator@U?$pair@QAUHWND__@@UCWndData@@@std@@@4@$0A@@std@@@2@PAU342@@Z ; std::_Tree<std::_Tmap_traits<HWND__ *,CWndData,std::less<HWND__ *>,std::allocator<std::pair<HWND__ * const,CWndData> >,0> >::_Parent
  003f0	83 c4 04	 add	 esp, 4
  003f3	8b 08		 mov	 ecx, DWORD PTR [eax]
  003f5	89 4d e4	 mov	 DWORD PTR __Fixnodeparent$[ebp], ecx
$L190846:
  003f8	8b 4d f0	 mov	 ecx, DWORD PTR _this$[ebp]
  003fb	e8 00 00 00 00	 call	 ?_Root@?$_Tree@V?$_Tmap_traits@PAUHWND__@@UCWndData@@U?$less@PAUHWND__@@@std@@V?$allocator@U?$pair@QAUHWND__@@UCWndData@@@std@@@4@$0A@@std@@@std@@IAEAAPAU_Node@?$_Tree_nod@V?$_Tmap_traits@PAUHWND__@@UCWndData@@U?$less@PAUHWND__@@@std@@V?$allocator@U?$pair@QAUHWND__@@UCWndData@@@std@@@4@$0A@@std@@@2@XZ ; std::_Tree<std::_Tmap_traits<HWND__ *,CWndData,std::less<HWND__ *>,std::allocator<std::pair<HWND__ * const,CWndData> >,0> >::_Root
  00400	8b 55 e8	 mov	 edx, DWORD PTR __Fixnode$[ebp]
  00403	3b 10		 cmp	 edx, DWORD PTR [eax]
  00405	0f 84 5a 03 00
	00		 je	 $L190848
  0040b	8b 45 e8	 mov	 eax, DWORD PTR __Fixnode$[ebp]
  0040e	50		 push	 eax
  0040f	e8 00 00 00 00	 call	 ?_Color@?$_Tree@V?$_Tmap_traits@PAUHWND__@@UCWndData@@U?$less@PAUHWND__@@@std@@V?$allocator@U?$pair@QAUHWND__@@UCWndData@@@std@@@4@$0A@@std@@@std@@KAAADPAU_Node@?$_Tree_nod@V?$_Tmap_traits@PAUHWND__@@UCWndData@@U?$less@PAUHWND__@@@std@@V?$allocator@U?$pair@QAUHWND__@@UCWndData@@@std@@@4@$0A@@std@@@2@@Z ; std::_Tree<std::_Tmap_traits<HWND__ *,CWndData,std::less<HWND__ *>,std::allocator<std::pair<HWND__ * const,CWndData> >,0> >::_Color
  00414	83 c4 04	 add	 esp, 4
  00417	0f be 08	 movsx	 ecx, BYTE PTR [eax]
  0041a	83 f9 01	 cmp	 ecx, 1
  0041d	0f 85 42 03 00
	00		 jne	 $L190848

; 665  : 				if (_Fixnode == _Left(_Fixnodeparent))

  00423	8b 55 e4	 mov	 edx, DWORD PTR __Fixnodeparent$[ebp]
  00426	52		 push	 edx
  00427	e8 00 00 00 00	 call	 ?_Left@?$_Tree@V?$_Tmap_traits@PAUHWND__@@UCWndData@@U?$less@PAUHWND__@@@std@@V?$allocator@U?$pair@QAUHWND__@@UCWndData@@@std@@@4@$0A@@std@@@std@@KAAAPAU_Node@?$_Tree_nod@V?$_Tmap_traits@PAUHWND__@@UCWndData@@U?$less@PAUHWND__@@@std@@V?$allocator@U?$pair@QAUHWND__@@UCWndData@@@std@@@4@$0A@@std@@@2@PAU342@@Z ; std::_Tree<std::_Tmap_traits<HWND__ *,CWndData,std::less<HWND__ *>,std::allocator<std::pair<HWND__ * const,CWndData> >,0> >::_Left
  0042c	83 c4 04	 add	 esp, 4
  0042f	8b 4d e8	 mov	 ecx, DWORD PTR __Fixnode$[ebp]
  00432	3b 08		 cmp	 ecx, DWORD PTR [eax]
  00434	0f 85 97 01 00
	00		 jne	 $L190849

; 666  : 					{	// fixup left subtree
; 667  : 					_Pnode = _Right(_Fixnodeparent);

  0043a	8b 55 e4	 mov	 edx, DWORD PTR __Fixnodeparent$[ebp]
  0043d	52		 push	 edx
  0043e	e8 00 00 00 00	 call	 ?_Right@?$_Tree@V?$_Tmap_traits@PAUHWND__@@UCWndData@@U?$less@PAUHWND__@@@std@@V?$allocator@U?$pair@QAUHWND__@@UCWndData@@@std@@@4@$0A@@std@@@std@@KAAAPAU_Node@?$_Tree_nod@V?$_Tmap_traits@PAUHWND__@@UCWndData@@U?$less@PAUHWND__@@@std@@V?$allocator@U?$pair@QAUHWND__@@UCWndData@@@std@@@4@$0A@@std@@@2@PAU342@@Z ; std::_Tree<std::_Tmap_traits<HWND__ *,CWndData,std::less<HWND__ *>,std::allocator<std::pair<HWND__ * const,CWndData> >,0> >::_Right
  00443	83 c4 04	 add	 esp, 4
  00446	8b 00		 mov	 eax, DWORD PTR [eax]
  00448	89 45 e0	 mov	 DWORD PTR __Pnode$[ebp], eax

; 668  : 					if (_Color(_Pnode) == _Red)

  0044b	8b 4d e0	 mov	 ecx, DWORD PTR __Pnode$[ebp]
  0044e	51		 push	 ecx
  0044f	e8 00 00 00 00	 call	 ?_Color@?$_Tree@V?$_Tmap_traits@PAUHWND__@@UCWndData@@U?$less@PAUHWND__@@@std@@V?$allocator@U?$pair@QAUHWND__@@UCWndData@@@std@@@4@$0A@@std@@@std@@KAAADPAU_Node@?$_Tree_nod@V?$_Tmap_traits@PAUHWND__@@UCWndData@@U?$less@PAUHWND__@@@std@@V?$allocator@U?$pair@QAUHWND__@@UCWndData@@@std@@@4@$0A@@std@@@2@@Z ; std::_Tree<std::_Tmap_traits<HWND__ *,CWndData,std::less<HWND__ *>,std::allocator<std::pair<HWND__ * const,CWndData> >,0> >::_Color
  00454	83 c4 04	 add	 esp, 4
  00457	0f be 10	 movsx	 edx, BYTE PTR [eax]
  0045a	85 d2		 test	 edx, edx
  0045c	75 3b		 jne	 SHORT $L190850

; 669  : 						{	// rotate red up from right subtree
; 670  : 						_Color(_Pnode) = _Black;

  0045e	8b 45 e0	 mov	 eax, DWORD PTR __Pnode$[ebp]
  00461	50		 push	 eax
  00462	e8 00 00 00 00	 call	 ?_Color@?$_Tree@V?$_Tmap_traits@PAUHWND__@@UCWndData@@U?$less@PAUHWND__@@@std@@V?$allocator@U?$pair@QAUHWND__@@UCWndData@@@std@@@4@$0A@@std@@@std@@KAAADPAU_Node@?$_Tree_nod@V?$_Tmap_traits@PAUHWND__@@UCWndData@@U?$less@PAUHWND__@@@std@@V?$allocator@U?$pair@QAUHWND__@@UCWndData@@@std@@@4@$0A@@std@@@2@@Z ; std::_Tree<std::_Tmap_traits<HWND__ *,CWndData,std::less<HWND__ *>,std::allocator<std::pair<HWND__ * const,CWndData> >,0> >::_Color
  00467	83 c4 04	 add	 esp, 4
  0046a	c6 00 01	 mov	 BYTE PTR [eax], 1

; 671  : 						_Color(_Fixnodeparent) = _Red;

  0046d	8b 4d e4	 mov	 ecx, DWORD PTR __Fixnodeparent$[ebp]
  00470	51		 push	 ecx
  00471	e8 00 00 00 00	 call	 ?_Color@?$_Tree@V?$_Tmap_traits@PAUHWND__@@UCWndData@@U?$less@PAUHWND__@@@std@@V?$allocator@U?$pair@QAUHWND__@@UCWndData@@@std@@@4@$0A@@std@@@std@@KAAADPAU_Node@?$_Tree_nod@V?$_Tmap_traits@PAUHWND__@@UCWndData@@U?$less@PAUHWND__@@@std@@V?$allocator@U?$pair@QAUHWND__@@UCWndData@@@std@@@4@$0A@@std@@@2@@Z ; std::_Tree<std::_Tmap_traits<HWND__ *,CWndData,std::less<HWND__ *>,std::allocator<std::pair<HWND__ * const,CWndData> >,0> >::_Color
  00476	83 c4 04	 add	 esp, 4
  00479	c6 00 00	 mov	 BYTE PTR [eax], 0

; 672  : 						_Lrotate(_Fixnodeparent);

  0047c	8b 55 e4	 mov	 edx, DWORD PTR __Fixnodeparent$[ebp]
  0047f	52		 push	 edx
  00480	8b 4d f0	 mov	 ecx, DWORD PTR _this$[ebp]
  00483	e8 00 00 00 00	 call	 ?_Lrotate@?$_Tree@V?$_Tmap_traits@PAUHWND__@@UCWndData@@U?$less@PAUHWND__@@@std@@V?$allocator@U?$pair@QAUHWND__@@UCWndData@@@std@@@4@$0A@@std@@@std@@IAEXPAU_Node@?$_Tree_nod@V?$_Tmap_traits@PAUHWND__@@UCWndData@@U?$less@PAUHWND__@@@std@@V?$allocator@U?$pair@QAUHWND__@@UCWndData@@@std@@@4@$0A@@std@@@2@@Z ; std::_Tree<std::_Tmap_traits<HWND__ *,CWndData,std::less<HWND__ *>,std::allocator<std::pair<HWND__ * const,CWndData> >,0> >::_Lrotate

; 673  : 						_Pnode = _Right(_Fixnodeparent);

  00488	8b 45 e4	 mov	 eax, DWORD PTR __Fixnodeparent$[ebp]
  0048b	50		 push	 eax
  0048c	e8 00 00 00 00	 call	 ?_Right@?$_Tree@V?$_Tmap_traits@PAUHWND__@@UCWndData@@U?$less@PAUHWND__@@@std@@V?$allocator@U?$pair@QAUHWND__@@UCWndData@@@std@@@4@$0A@@std@@@std@@KAAAPAU_Node@?$_Tree_nod@V?$_Tmap_traits@PAUHWND__@@UCWndData@@U?$less@PAUHWND__@@@std@@V?$allocator@U?$pair@QAUHWND__@@UCWndData@@@std@@@4@$0A@@std@@@2@PAU342@@Z ; std::_Tree<std::_Tmap_traits<HWND__ *,CWndData,std::less<HWND__ *>,std::allocator<std::pair<HWND__ * const,CWndData> >,0> >::_Right
  00491	83 c4 04	 add	 esp, 4
  00494	8b 08		 mov	 ecx, DWORD PTR [eax]
  00496	89 4d e0	 mov	 DWORD PTR __Pnode$[ebp], ecx
$L190850:

; 674  : 						}
; 675  : 
; 676  : 					if (_Isnil(_Pnode))

  00499	8b 55 e0	 mov	 edx, DWORD PTR __Pnode$[ebp]
  0049c	52		 push	 edx
  0049d	e8 00 00 00 00	 call	 ?_Isnil@?$_Tree@V?$_Tmap_traits@PAUHWND__@@UCWndData@@U?$less@PAUHWND__@@@std@@V?$allocator@U?$pair@QAUHWND__@@UCWndData@@@std@@@4@$0A@@std@@@std@@KAAADPAU_Node@?$_Tree_nod@V?$_Tmap_traits@PAUHWND__@@UCWndData@@U?$less@PAUHWND__@@@std@@V?$allocator@U?$pair@QAUHWND__@@UCWndData@@@std@@@4@$0A@@std@@@2@@Z ; std::_Tree<std::_Tmap_traits<HWND__ *,CWndData,std::less<HWND__ *>,std::allocator<std::pair<HWND__ * const,CWndData> >,0> >::_Isnil
  004a2	83 c4 04	 add	 esp, 4
  004a5	0f be 00	 movsx	 eax, BYTE PTR [eax]
  004a8	85 c0		 test	 eax, eax
  004aa	74 0b		 je	 SHORT $L190851

; 677  : 						_Fixnode = _Fixnodeparent;	// shouldn't happen

  004ac	8b 4d e4	 mov	 ecx, DWORD PTR __Fixnodeparent$[ebp]
  004af	89 4d e8	 mov	 DWORD PTR __Fixnode$[ebp], ecx

; 678  : 					else if (_Color(_Left(_Pnode)) == _Black

  004b2	e9 15 01 00 00	 jmp	 $L190852
$L190851:

; 679  : 						&& _Color(_Right(_Pnode)) == _Black)

  004b7	8b 55 e0	 mov	 edx, DWORD PTR __Pnode$[ebp]
  004ba	52		 push	 edx
  004bb	e8 00 00 00 00	 call	 ?_Left@?$_Tree@V?$_Tmap_traits@PAUHWND__@@UCWndData@@U?$less@PAUHWND__@@@std@@V?$allocator@U?$pair@QAUHWND__@@UCWndData@@@std@@@4@$0A@@std@@@std@@KAAAPAU_Node@?$_Tree_nod@V?$_Tmap_traits@PAUHWND__@@UCWndData@@U?$less@PAUHWND__@@@std@@V?$allocator@U?$pair@QAUHWND__@@UCWndData@@@std@@@4@$0A@@std@@@2@PAU342@@Z ; std::_Tree<std::_Tmap_traits<HWND__ *,CWndData,std::less<HWND__ *>,std::allocator<std::pair<HWND__ * const,CWndData> >,0> >::_Left
  004c0	83 c4 04	 add	 esp, 4
  004c3	8b 00		 mov	 eax, DWORD PTR [eax]
  004c5	50		 push	 eax
  004c6	e8 00 00 00 00	 call	 ?_Color@?$_Tree@V?$_Tmap_traits@PAUHWND__@@UCWndData@@U?$less@PAUHWND__@@@std@@V?$allocator@U?$pair@QAUHWND__@@UCWndData@@@std@@@4@$0A@@std@@@std@@KAAADPAU_Node@?$_Tree_nod@V?$_Tmap_traits@PAUHWND__@@UCWndData@@U?$less@PAUHWND__@@@std@@V?$allocator@U?$pair@QAUHWND__@@UCWndData@@@std@@@4@$0A@@std@@@2@@Z ; std::_Tree<std::_Tmap_traits<HWND__ *,CWndData,std::less<HWND__ *>,std::allocator<std::pair<HWND__ * const,CWndData> >,0> >::_Color
  004cb	83 c4 04	 add	 esp, 4
  004ce	0f be 08	 movsx	 ecx, BYTE PTR [eax]
  004d1	83 f9 01	 cmp	 ecx, 1
  004d4	75 39		 jne	 SHORT $L190853
  004d6	8b 55 e0	 mov	 edx, DWORD PTR __Pnode$[ebp]
  004d9	52		 push	 edx
  004da	e8 00 00 00 00	 call	 ?_Right@?$_Tree@V?$_Tmap_traits@PAUHWND__@@UCWndData@@U?$less@PAUHWND__@@@std@@V?$allocator@U?$pair@QAUHWND__@@UCWndData@@@std@@@4@$0A@@std@@@std@@KAAAPAU_Node@?$_Tree_nod@V?$_Tmap_traits@PAUHWND__@@UCWndData@@U?$less@PAUHWND__@@@std@@V?$allocator@U?$pair@QAUHWND__@@UCWndData@@@std@@@4@$0A@@std@@@2@PAU342@@Z ; std::_Tree<std::_Tmap_traits<HWND__ *,CWndData,std::less<HWND__ *>,std::allocator<std::pair<HWND__ * const,CWndData> >,0> >::_Right
  004df	83 c4 04	 add	 esp, 4
  004e2	8b 00		 mov	 eax, DWORD PTR [eax]
  004e4	50		 push	 eax
  004e5	e8 00 00 00 00	 call	 ?_Color@?$_Tree@V?$_Tmap_traits@PAUHWND__@@UCWndData@@U?$less@PAUHWND__@@@std@@V?$allocator@U?$pair@QAUHWND__@@UCWndData@@@std@@@4@$0A@@std@@@std@@KAAADPAU_Node@?$_Tree_nod@V?$_Tmap_traits@PAUHWND__@@UCWndData@@U?$less@PAUHWND__@@@std@@V?$allocator@U?$pair@QAUHWND__@@UCWndData@@@std@@@4@$0A@@std@@@2@@Z ; std::_Tree<std::_Tmap_traits<HWND__ *,CWndData,std::less<HWND__ *>,std::allocator<std::pair<HWND__ * const,CWndData> >,0> >::_Color
  004ea	83 c4 04	 add	 esp, 4
  004ed	0f be 08	 movsx	 ecx, BYTE PTR [eax]
  004f0	83 f9 01	 cmp	 ecx, 1
  004f3	75 1a		 jne	 SHORT $L190853

; 680  : 						{	// redden right subtree with black children
; 681  : 						_Color(_Pnode) = _Red;

  004f5	8b 55 e0	 mov	 edx, DWORD PTR __Pnode$[ebp]
  004f8	52		 push	 edx
  004f9	e8 00 00 00 00	 call	 ?_Color@?$_Tree@V?$_Tmap_traits@PAUHWND__@@UCWndData@@U?$less@PAUHWND__@@@std@@V?$allocator@U?$pair@QAUHWND__@@UCWndData@@@std@@@4@$0A@@std@@@std@@KAAADPAU_Node@?$_Tree_nod@V?$_Tmap_traits@PAUHWND__@@UCWndData@@U?$less@PAUHWND__@@@std@@V?$allocator@U?$pair@QAUHWND__@@UCWndData@@@std@@@4@$0A@@std@@@2@@Z ; std::_Tree<std::_Tmap_traits<HWND__ *,CWndData,std::less<HWND__ *>,std::allocator<std::pair<HWND__ * const,CWndData> >,0> >::_Color
  004fe	83 c4 04	 add	 esp, 4
  00501	c6 00 00	 mov	 BYTE PTR [eax], 0

; 682  : 						_Fixnode = _Fixnodeparent;

  00504	8b 45 e4	 mov	 eax, DWORD PTR __Fixnodeparent$[ebp]
  00507	89 45 e8	 mov	 DWORD PTR __Fixnode$[ebp], eax

; 683  : 						}
; 684  : 					else

  0050a	e9 bd 00 00 00	 jmp	 $L190852
$L190853:

; 685  : 						{	// must rearrange right subtree
; 686  : 						if (_Color(_Right(_Pnode)) == _Black)

  0050f	8b 4d e0	 mov	 ecx, DWORD PTR __Pnode$[ebp]
  00512	51		 push	 ecx
  00513	e8 00 00 00 00	 call	 ?_Right@?$_Tree@V?$_Tmap_traits@PAUHWND__@@UCWndData@@U?$less@PAUHWND__@@@std@@V?$allocator@U?$pair@QAUHWND__@@UCWndData@@@std@@@4@$0A@@std@@@std@@KAAAPAU_Node@?$_Tree_nod@V?$_Tmap_traits@PAUHWND__@@UCWndData@@U?$less@PAUHWND__@@@std@@V?$allocator@U?$pair@QAUHWND__@@UCWndData@@@std@@@4@$0A@@std@@@2@PAU342@@Z ; std::_Tree<std::_Tmap_traits<HWND__ *,CWndData,std::less<HWND__ *>,std::allocator<std::pair<HWND__ * const,CWndData> >,0> >::_Right
  00518	83 c4 04	 add	 esp, 4
  0051b	8b 10		 mov	 edx, DWORD PTR [eax]
  0051d	52		 push	 edx
  0051e	e8 00 00 00 00	 call	 ?_Color@?$_Tree@V?$_Tmap_traits@PAUHWND__@@UCWndData@@U?$less@PAUHWND__@@@std@@V?$allocator@U?$pair@QAUHWND__@@UCWndData@@@std@@@4@$0A@@std@@@std@@KAAADPAU_Node@?$_Tree_nod@V?$_Tmap_traits@PAUHWND__@@UCWndData@@U?$less@PAUHWND__@@@std@@V?$allocator@U?$pair@QAUHWND__@@UCWndData@@@std@@@4@$0A@@std@@@2@@Z ; std::_Tree<std::_Tmap_traits<HWND__ *,CWndData,std::less<HWND__ *>,std::allocator<std::pair<HWND__ * const,CWndData> >,0> >::_Color
  00523	83 c4 04	 add	 esp, 4
  00526	0f be 00	 movsx	 eax, BYTE PTR [eax]
  00529	83 f8 01	 cmp	 eax, 1
  0052c	75 46		 jne	 SHORT $L190855

; 687  : 							{	// rotate red up from left sub-subtree
; 688  : 							_Color(_Left(_Pnode)) = _Black;

  0052e	8b 4d e0	 mov	 ecx, DWORD PTR __Pnode$[ebp]
  00531	51		 push	 ecx
  00532	e8 00 00 00 00	 call	 ?_Left@?$_Tree@V?$_Tmap_traits@PAUHWND__@@UCWndData@@U?$less@PAUHWND__@@@std@@V?$allocator@U?$pair@QAUHWND__@@UCWndData@@@std@@@4@$0A@@std@@@std@@KAAAPAU_Node@?$_Tree_nod@V?$_Tmap_traits@PAUHWND__@@UCWndData@@U?$less@PAUHWND__@@@std@@V?$allocator@U?$pair@QAUHWND__@@UCWndData@@@std@@@4@$0A@@std@@@2@PAU342@@Z ; std::_Tree<std::_Tmap_traits<HWND__ *,CWndData,std::less<HWND__ *>,std::allocator<std::pair<HWND__ * const,CWndData> >,0> >::_Left
  00537	83 c4 04	 add	 esp, 4
  0053a	8b 10		 mov	 edx, DWORD PTR [eax]
  0053c	52		 push	 edx
  0053d	e8 00 00 00 00	 call	 ?_Color@?$_Tree@V?$_Tmap_traits@PAUHWND__@@UCWndData@@U?$less@PAUHWND__@@@std@@V?$allocator@U?$pair@QAUHWND__@@UCWndData@@@std@@@4@$0A@@std@@@std@@KAAADPAU_Node@?$_Tree_nod@V?$_Tmap_traits@PAUHWND__@@UCWndData@@U?$less@PAUHWND__@@@std@@V?$allocator@U?$pair@QAUHWND__@@UCWndData@@@std@@@4@$0A@@std@@@2@@Z ; std::_Tree<std::_Tmap_traits<HWND__ *,CWndData,std::less<HWND__ *>,std::allocator<std::pair<HWND__ * const,CWndData> >,0> >::_Color
  00542	83 c4 04	 add	 esp, 4
  00545	c6 00 01	 mov	 BYTE PTR [eax], 1

; 689  : 							_Color(_Pnode) = _Red;

  00548	8b 45 e0	 mov	 eax, DWORD PTR __Pnode$[ebp]
  0054b	50		 push	 eax
  0054c	e8 00 00 00 00	 call	 ?_Color@?$_Tree@V?$_Tmap_traits@PAUHWND__@@UCWndData@@U?$less@PAUHWND__@@@std@@V?$allocator@U?$pair@QAUHWND__@@UCWndData@@@std@@@4@$0A@@std@@@std@@KAAADPAU_Node@?$_Tree_nod@V?$_Tmap_traits@PAUHWND__@@UCWndData@@U?$less@PAUHWND__@@@std@@V?$allocator@U?$pair@QAUHWND__@@UCWndData@@@std@@@4@$0A@@std@@@2@@Z ; std::_Tree<std::_Tmap_traits<HWND__ *,CWndData,std::less<HWND__ *>,std::allocator<std::pair<HWND__ * const,CWndData> >,0> >::_Color
  00551	83 c4 04	 add	 esp, 4
  00554	c6 00 00	 mov	 BYTE PTR [eax], 0

; 690  : 							_Rrotate(_Pnode);

  00557	8b 4d e0	 mov	 ecx, DWORD PTR __Pnode$[ebp]
  0055a	51		 push	 ecx
  0055b	8b 4d f0	 mov	 ecx, DWORD PTR _this$[ebp]
  0055e	e8 00 00 00 00	 call	 ?_Rrotate@?$_Tree@V?$_Tmap_traits@PAUHWND__@@UCWndData@@U?$less@PAUHWND__@@@std@@V?$allocator@U?$pair@QAUHWND__@@UCWndData@@@std@@@4@$0A@@std@@@std@@IAEXPAU_Node@?$_Tree_nod@V?$_Tmap_traits@PAUHWND__@@UCWndData@@U?$less@PAUHWND__@@@std@@V?$allocator@U?$pair@QAUHWND__@@UCWndData@@@std@@@4@$0A@@std@@@2@@Z ; std::_Tree<std::_Tmap_traits<HWND__ *,CWndData,std::less<HWND__ *>,std::allocator<std::pair<HWND__ * const,CWndData> >,0> >::_Rrotate

; 691  : 							_Pnode = _Right(_Fixnodeparent);

  00563	8b 55 e4	 mov	 edx, DWORD PTR __Fixnodeparent$[ebp]
  00566	52		 push	 edx
  00567	e8 00 00 00 00	 call	 ?_Right@?$_Tree@V?$_Tmap_traits@PAUHWND__@@UCWndData@@U?$less@PAUHWND__@@@std@@V?$allocator@U?$pair@QAUHWND__@@UCWndData@@@std@@@4@$0A@@std@@@std@@KAAAPAU_Node@?$_Tree_nod@V?$_Tmap_traits@PAUHWND__@@UCWndData@@U?$less@PAUHWND__@@@std@@V?$allocator@U?$pair@QAUHWND__@@UCWndData@@@std@@@4@$0A@@std@@@2@PAU342@@Z ; std::_Tree<std::_Tmap_traits<HWND__ *,CWndData,std::less<HWND__ *>,std::allocator<std::pair<HWND__ * const,CWndData> >,0> >::_Right
  0056c	83 c4 04	 add	 esp, 4
  0056f	8b 00		 mov	 eax, DWORD PTR [eax]
  00571	89 45 e0	 mov	 DWORD PTR __Pnode$[ebp], eax
$L190855:

; 692  : 							}
; 693  : 
; 694  : 						_Color(_Pnode) = _Color(_Fixnodeparent);

  00574	8b 4d e4	 mov	 ecx, DWORD PTR __Fixnodeparent$[ebp]
  00577	51		 push	 ecx
  00578	e8 00 00 00 00	 call	 ?_Color@?$_Tree@V?$_Tmap_traits@PAUHWND__@@UCWndData@@U?$less@PAUHWND__@@@std@@V?$allocator@U?$pair@QAUHWND__@@UCWndData@@@std@@@4@$0A@@std@@@std@@KAAADPAU_Node@?$_Tree_nod@V?$_Tmap_traits@PAUHWND__@@UCWndData@@U?$less@PAUHWND__@@@std@@V?$allocator@U?$pair@QAUHWND__@@UCWndData@@@std@@@4@$0A@@std@@@2@@Z ; std::_Tree<std::_Tmap_traits<HWND__ *,CWndData,std::less<HWND__ *>,std::allocator<std::pair<HWND__ * const,CWndData> >,0> >::_Color
  0057d	83 c4 04	 add	 esp, 4
  00580	8b f0		 mov	 esi, eax
  00582	8b 55 e0	 mov	 edx, DWORD PTR __Pnode$[ebp]
  00585	52		 push	 edx
  00586	e8 00 00 00 00	 call	 ?_Color@?$_Tree@V?$_Tmap_traits@PAUHWND__@@UCWndData@@U?$less@PAUHWND__@@@std@@V?$allocator@U?$pair@QAUHWND__@@UCWndData@@@std@@@4@$0A@@std@@@std@@KAAADPAU_Node@?$_Tree_nod@V?$_Tmap_traits@PAUHWND__@@UCWndData@@U?$less@PAUHWND__@@@std@@V?$allocator@U?$pair@QAUHWND__@@UCWndData@@@std@@@4@$0A@@std@@@2@@Z ; std::_Tree<std::_Tmap_traits<HWND__ *,CWndData,std::less<HWND__ *>,std::allocator<std::pair<HWND__ * const,CWndData> >,0> >::_Color
  0058b	83 c4 04	 add	 esp, 4
  0058e	8a 0e		 mov	 cl, BYTE PTR [esi]
  00590	88 08		 mov	 BYTE PTR [eax], cl

; 695  : 						_Color(_Fixnodeparent) = _Black;

  00592	8b 55 e4	 mov	 edx, DWORD PTR __Fixnodeparent$[ebp]
  00595	52		 push	 edx
  00596	e8 00 00 00 00	 call	 ?_Color@?$_Tree@V?$_Tmap_traits@PAUHWND__@@UCWndData@@U?$less@PAUHWND__@@@std@@V?$allocator@U?$pair@QAUHWND__@@UCWndData@@@std@@@4@$0A@@std@@@std@@KAAADPAU_Node@?$_Tree_nod@V?$_Tmap_traits@PAUHWND__@@UCWndData@@U?$less@PAUHWND__@@@std@@V?$allocator@U?$pair@QAUHWND__@@UCWndData@@@std@@@4@$0A@@std@@@2@@Z ; std::_Tree<std::_Tmap_traits<HWND__ *,CWndData,std::less<HWND__ *>,std::allocator<std::pair<HWND__ * const,CWndData> >,0> >::_Color
  0059b	83 c4 04	 add	 esp, 4
  0059e	c6 00 01	 mov	 BYTE PTR [eax], 1

; 696  : 						_Color(_Right(_Pnode)) = _Black;

  005a1	8b 45 e0	 mov	 eax, DWORD PTR __Pnode$[ebp]
  005a4	50		 push	 eax
  005a5	e8 00 00 00 00	 call	 ?_Right@?$_Tree@V?$_Tmap_traits@PAUHWND__@@UCWndData@@U?$less@PAUHWND__@@@std@@V?$allocator@U?$pair@QAUHWND__@@UCWndData@@@std@@@4@$0A@@std@@@std@@KAAAPAU_Node@?$_Tree_nod@V?$_Tmap_traits@PAUHWND__@@UCWndData@@U?$less@PAUHWND__@@@std@@V?$allocator@U?$pair@QAUHWND__@@UCWndData@@@std@@@4@$0A@@std@@@2@PAU342@@Z ; std::_Tree<std::_Tmap_traits<HWND__ *,CWndData,std::less<HWND__ *>,std::allocator<std::pair<HWND__ * const,CWndData> >,0> >::_Right
  005aa	83 c4 04	 add	 esp, 4
  005ad	8b 08		 mov	 ecx, DWORD PTR [eax]
  005af	51		 push	 ecx
  005b0	e8 00 00 00 00	 call	 ?_Color@?$_Tree@V?$_Tmap_traits@PAUHWND__@@UCWndData@@U?$less@PAUHWND__@@@std@@V?$allocator@U?$pair@QAUHWND__@@UCWndData@@@std@@@4@$0A@@std@@@std@@KAAADPAU_Node@?$_Tree_nod@V?$_Tmap_traits@PAUHWND__@@UCWndData@@U?$less@PAUHWND__@@@std@@V?$allocator@U?$pair@QAUHWND__@@UCWndData@@@std@@@4@$0A@@std@@@2@@Z ; std::_Tree<std::_Tmap_traits<HWND__ *,CWndData,std::less<HWND__ *>,std::allocator<std::pair<HWND__ * const,CWndData> >,0> >::_Color
  005b5	83 c4 04	 add	 esp, 4
  005b8	c6 00 01	 mov	 BYTE PTR [eax], 1

; 697  : 						_Lrotate(_Fixnodeparent);

  005bb	8b 55 e4	 mov	 edx, DWORD PTR __Fixnodeparent$[ebp]
  005be	52		 push	 edx
  005bf	8b 4d f0	 mov	 ecx, DWORD PTR _this$[ebp]
  005c2	e8 00 00 00 00	 call	 ?_Lrotate@?$_Tree@V?$_Tmap_traits@PAUHWND__@@UCWndData@@U?$less@PAUHWND__@@@std@@V?$allocator@U?$pair@QAUHWND__@@UCWndData@@@std@@@4@$0A@@std@@@std@@IAEXPAU_Node@?$_Tree_nod@V?$_Tmap_traits@PAUHWND__@@UCWndData@@U?$less@PAUHWND__@@@std@@V?$allocator@U?$pair@QAUHWND__@@UCWndData@@@std@@@4@$0A@@std@@@2@@Z ; std::_Tree<std::_Tmap_traits<HWND__ *,CWndData,std::less<HWND__ *>,std::allocator<std::pair<HWND__ * const,CWndData> >,0> >::_Lrotate

; 698  : 						break;	// tree now recolored/rebalanced

  005c7	e9 99 01 00 00	 jmp	 $L190848
$L190852:

; 699  : 						}
; 700  : 					}
; 701  : 				else

  005cc	e9 8f 01 00 00	 jmp	 $L190856
$L190849:

; 702  : 					{	// fixup right subtree
; 703  : 					_Pnode = _Left(_Fixnodeparent);

  005d1	8b 45 e4	 mov	 eax, DWORD PTR __Fixnodeparent$[ebp]
  005d4	50		 push	 eax
  005d5	e8 00 00 00 00	 call	 ?_Left@?$_Tree@V?$_Tmap_traits@PAUHWND__@@UCWndData@@U?$less@PAUHWND__@@@std@@V?$allocator@U?$pair@QAUHWND__@@UCWndData@@@std@@@4@$0A@@std@@@std@@KAAAPAU_Node@?$_Tree_nod@V?$_Tmap_traits@PAUHWND__@@UCWndData@@U?$less@PAUHWND__@@@std@@V?$allocator@U?$pair@QAUHWND__@@UCWndData@@@std@@@4@$0A@@std@@@2@PAU342@@Z ; std::_Tree<std::_Tmap_traits<HWND__ *,CWndData,std::less<HWND__ *>,std::allocator<std::pair<HWND__ * const,CWndData> >,0> >::_Left
  005da	83 c4 04	 add	 esp, 4
  005dd	8b 08		 mov	 ecx, DWORD PTR [eax]
  005df	89 4d e0	 mov	 DWORD PTR __Pnode$[ebp], ecx

; 704  : 					if (_Color(_Pnode) == _Red)

  005e2	8b 55 e0	 mov	 edx, DWORD PTR __Pnode$[ebp]
  005e5	52		 push	 edx
  005e6	e8 00 00 00 00	 call	 ?_Color@?$_Tree@V?$_Tmap_traits@PAUHWND__@@UCWndData@@U?$less@PAUHWND__@@@std@@V?$allocator@U?$pair@QAUHWND__@@UCWndData@@@std@@@4@$0A@@std@@@std@@KAAADPAU_Node@?$_Tree_nod@V?$_Tmap_traits@PAUHWND__@@UCWndData@@U?$less@PAUHWND__@@@std@@V?$allocator@U?$pair@QAUHWND__@@UCWndData@@@std@@@4@$0A@@std@@@2@@Z ; std::_Tree<std::_Tmap_traits<HWND__ *,CWndData,std::less<HWND__ *>,std::allocator<std::pair<HWND__ * const,CWndData> >,0> >::_Color
  005eb	83 c4 04	 add	 esp, 4
  005ee	0f be 00	 movsx	 eax, BYTE PTR [eax]
  005f1	85 c0		 test	 eax, eax
  005f3	75 3b		 jne	 SHORT $L190857

; 705  : 						{	// rotate red up from left subtree
; 706  : 						_Color(_Pnode) = _Black;

  005f5	8b 4d e0	 mov	 ecx, DWORD PTR __Pnode$[ebp]
  005f8	51		 push	 ecx
  005f9	e8 00 00 00 00	 call	 ?_Color@?$_Tree@V?$_Tmap_traits@PAUHWND__@@UCWndData@@U?$less@PAUHWND__@@@std@@V?$allocator@U?$pair@QAUHWND__@@UCWndData@@@std@@@4@$0A@@std@@@std@@KAAADPAU_Node@?$_Tree_nod@V?$_Tmap_traits@PAUHWND__@@UCWndData@@U?$less@PAUHWND__@@@std@@V?$allocator@U?$pair@QAUHWND__@@UCWndData@@@std@@@4@$0A@@std@@@2@@Z ; std::_Tree<std::_Tmap_traits<HWND__ *,CWndData,std::less<HWND__ *>,std::allocator<std::pair<HWND__ * const,CWndData> >,0> >::_Color
  005fe	83 c4 04	 add	 esp, 4
  00601	c6 00 01	 mov	 BYTE PTR [eax], 1

; 707  : 						_Color(_Fixnodeparent) = _Red;

  00604	8b 55 e4	 mov	 edx, DWORD PTR __Fixnodeparent$[ebp]
  00607	52		 push	 edx
  00608	e8 00 00 00 00	 call	 ?_Color@?$_Tree@V?$_Tmap_traits@PAUHWND__@@UCWndData@@U?$less@PAUHWND__@@@std@@V?$allocator@U?$pair@QAUHWND__@@UCWndData@@@std@@@4@$0A@@std@@@std@@KAAADPAU_Node@?$_Tree_nod@V?$_Tmap_traits@PAUHWND__@@UCWndData@@U?$less@PAUHWND__@@@std@@V?$allocator@U?$pair@QAUHWND__@@UCWndData@@@std@@@4@$0A@@std@@@2@@Z ; std::_Tree<std::_Tmap_traits<HWND__ *,CWndData,std::less<HWND__ *>,std::allocator<std::pair<HWND__ * const,CWndData> >,0> >::_Color
  0060d	83 c4 04	 add	 esp, 4
  00610	c6 00 00	 mov	 BYTE PTR [eax], 0

; 708  : 						_Rrotate(_Fixnodeparent);

  00613	8b 45 e4	 mov	 eax, DWORD PTR __Fixnodeparent$[ebp]
  00616	50		 push	 eax
  00617	8b 4d f0	 mov	 ecx, DWORD PTR _this$[ebp]
  0061a	e8 00 00 00 00	 call	 ?_Rrotate@?$_Tree@V?$_Tmap_traits@PAUHWND__@@UCWndData@@U?$less@PAUHWND__@@@std@@V?$allocator@U?$pair@QAUHWND__@@UCWndData@@@std@@@4@$0A@@std@@@std@@IAEXPAU_Node@?$_Tree_nod@V?$_Tmap_traits@PAUHWND__@@UCWndData@@U?$less@PAUHWND__@@@std@@V?$allocator@U?$pair@QAUHWND__@@UCWndData@@@std@@@4@$0A@@std@@@2@@Z ; std::_Tree<std::_Tmap_traits<HWND__ *,CWndData,std::less<HWND__ *>,std::allocator<std::pair<HWND__ * const,CWndData> >,0> >::_Rrotate

; 709  : 						_Pnode = _Left(_Fixnodeparent);

  0061f	8b 4d e4	 mov	 ecx, DWORD PTR __Fixnodeparent$[ebp]
  00622	51		 push	 ecx
  00623	e8 00 00 00 00	 call	 ?_Left@?$_Tree@V?$_Tmap_traits@PAUHWND__@@UCWndData@@U?$less@PAUHWND__@@@std@@V?$allocator@U?$pair@QAUHWND__@@UCWndData@@@std@@@4@$0A@@std@@@std@@KAAAPAU_Node@?$_Tree_nod@V?$_Tmap_traits@PAUHWND__@@UCWndData@@U?$less@PAUHWND__@@@std@@V?$allocator@U?$pair@QAUHWND__@@UCWndData@@@std@@@4@$0A@@std@@@2@PAU342@@Z ; std::_Tree<std::_Tmap_traits<HWND__ *,CWndData,std::less<HWND__ *>,std::allocator<std::pair<HWND__ * const,CWndData> >,0> >::_Left
  00628	83 c4 04	 add	 esp, 4
  0062b	8b 10		 mov	 edx, DWORD PTR [eax]
  0062d	89 55 e0	 mov	 DWORD PTR __Pnode$[ebp], edx
$L190857:

; 710  : 						}
; 711  : 					if (_Isnil(_Pnode))

  00630	8b 45 e0	 mov	 eax, DWORD PTR __Pnode$[ebp]
  00633	50		 push	 eax
  00634	e8 00 00 00 00	 call	 ?_Isnil@?$_Tree@V?$_Tmap_traits@PAUHWND__@@UCWndData@@U?$less@PAUHWND__@@@std@@V?$allocator@U?$pair@QAUHWND__@@UCWndData@@@std@@@4@$0A@@std@@@std@@KAAADPAU_Node@?$_Tree_nod@V?$_Tmap_traits@PAUHWND__@@UCWndData@@U?$less@PAUHWND__@@@std@@V?$allocator@U?$pair@QAUHWND__@@UCWndData@@@std@@@4@$0A@@std@@@2@@Z ; std::_Tree<std::_Tmap_traits<HWND__ *,CWndData,std::less<HWND__ *>,std::allocator<std::pair<HWND__ * const,CWndData> >,0> >::_Isnil
  00639	83 c4 04	 add	 esp, 4
  0063c	0f be 08	 movsx	 ecx, BYTE PTR [eax]
  0063f	85 c9		 test	 ecx, ecx
  00641	74 0b		 je	 SHORT $L190858

; 712  : 						_Fixnode = _Fixnodeparent;	// shouldn't happen

  00643	8b 55 e4	 mov	 edx, DWORD PTR __Fixnodeparent$[ebp]
  00646	89 55 e8	 mov	 DWORD PTR __Fixnode$[ebp], edx

; 713  : 					else if (_Color(_Right(_Pnode)) == _Black

  00649	e9 12 01 00 00	 jmp	 $L190856
$L190858:

; 714  : 						&& _Color(_Left(_Pnode)) == _Black)

  0064e	8b 45 e0	 mov	 eax, DWORD PTR __Pnode$[ebp]
  00651	50		 push	 eax
  00652	e8 00 00 00 00	 call	 ?_Right@?$_Tree@V?$_Tmap_traits@PAUHWND__@@UCWndData@@U?$less@PAUHWND__@@@std@@V?$allocator@U?$pair@QAUHWND__@@UCWndData@@@std@@@4@$0A@@std@@@std@@KAAAPAU_Node@?$_Tree_nod@V?$_Tmap_traits@PAUHWND__@@UCWndData@@U?$less@PAUHWND__@@@std@@V?$allocator@U?$pair@QAUHWND__@@UCWndData@@@std@@@4@$0A@@std@@@2@PAU342@@Z ; std::_Tree<std::_Tmap_traits<HWND__ *,CWndData,std::less<HWND__ *>,std::allocator<std::pair<HWND__ * const,CWndData> >,0> >::_Right
  00657	83 c4 04	 add	 esp, 4
  0065a	8b 08		 mov	 ecx, DWORD PTR [eax]
  0065c	51		 push	 ecx
  0065d	e8 00 00 00 00	 call	 ?_Color@?$_Tree@V?$_Tmap_traits@PAUHWND__@@UCWndData@@U?$less@PAUHWND__@@@std@@V?$allocator@U?$pair@QAUHWND__@@UCWndData@@@std@@@4@$0A@@std@@@std@@KAAADPAU_Node@?$_Tree_nod@V?$_Tmap_traits@PAUHWND__@@UCWndData@@U?$less@PAUHWND__@@@std@@V?$allocator@U?$pair@QAUHWND__@@UCWndData@@@std@@@4@$0A@@std@@@2@@Z ; std::_Tree<std::_Tmap_traits<HWND__ *,CWndData,std::less<HWND__ *>,std::allocator<std::pair<HWND__ * const,CWndData> >,0> >::_Color
  00662	83 c4 04	 add	 esp, 4
  00665	0f be 10	 movsx	 edx, BYTE PTR [eax]
  00668	83 fa 01	 cmp	 edx, 1
  0066b	75 39		 jne	 SHORT $L190860
  0066d	8b 45 e0	 mov	 eax, DWORD PTR __Pnode$[ebp]
  00670	50		 push	 eax
  00671	e8 00 00 00 00	 call	 ?_Left@?$_Tree@V?$_Tmap_traits@PAUHWND__@@UCWndData@@U?$less@PAUHWND__@@@std@@V?$allocator@U?$pair@QAUHWND__@@UCWndData@@@std@@@4@$0A@@std@@@std@@KAAAPAU_Node@?$_Tree_nod@V?$_Tmap_traits@PAUHWND__@@UCWndData@@U?$less@PAUHWND__@@@std@@V?$allocator@U?$pair@QAUHWND__@@UCWndData@@@std@@@4@$0A@@std@@@2@PAU342@@Z ; std::_Tree<std::_Tmap_traits<HWND__ *,CWndData,std::less<HWND__ *>,std::allocator<std::pair<HWND__ * const,CWndData> >,0> >::_Left
  00676	83 c4 04	 add	 esp, 4
  00679	8b 08		 mov	 ecx, DWORD PTR [eax]
  0067b	51		 push	 ecx
  0067c	e8 00 00 00 00	 call	 ?_Color@?$_Tree@V?$_Tmap_traits@PAUHWND__@@UCWndData@@U?$less@PAUHWND__@@@std@@V?$allocator@U?$pair@QAUHWND__@@UCWndData@@@std@@@4@$0A@@std@@@std@@KAAADPAU_Node@?$_Tree_nod@V?$_Tmap_traits@PAUHWND__@@UCWndData@@U?$less@PAUHWND__@@@std@@V?$allocator@U?$pair@QAUHWND__@@UCWndData@@@std@@@4@$0A@@std@@@2@@Z ; std::_Tree<std::_Tmap_traits<HWND__ *,CWndData,std::less<HWND__ *>,std::allocator<std::pair<HWND__ * const,CWndData> >,0> >::_Color
  00681	83 c4 04	 add	 esp, 4
  00684	0f be 10	 movsx	 edx, BYTE PTR [eax]
  00687	83 fa 01	 cmp	 edx, 1
  0068a	75 1a		 jne	 SHORT $L190860

; 715  : 						{	// redden left subtree with black children
; 716  : 						_Color(_Pnode) = _Red;

  0068c	8b 45 e0	 mov	 eax, DWORD PTR __Pnode$[ebp]
  0068f	50		 push	 eax
  00690	e8 00 00 00 00	 call	 ?_Color@?$_Tree@V?$_Tmap_traits@PAUHWND__@@UCWndData@@U?$less@PAUHWND__@@@std@@V?$allocator@U?$pair@QAUHWND__@@UCWndData@@@std@@@4@$0A@@std@@@std@@KAAADPAU_Node@?$_Tree_nod@V?$_Tmap_traits@PAUHWND__@@UCWndData@@U?$less@PAUHWND__@@@std@@V?$allocator@U?$pair@QAUHWND__@@UCWndData@@@std@@@4@$0A@@std@@@2@@Z ; std::_Tree<std::_Tmap_traits<HWND__ *,CWndData,std::less<HWND__ *>,std::allocator<std::pair<HWND__ * const,CWndData> >,0> >::_Color
  00695	83 c4 04	 add	 esp, 4
  00698	c6 00 00	 mov	 BYTE PTR [eax], 0

; 717  : 						_Fixnode = _Fixnodeparent;

  0069b	8b 4d e4	 mov	 ecx, DWORD PTR __Fixnodeparent$[ebp]
  0069e	89 4d e8	 mov	 DWORD PTR __Fixnode$[ebp], ecx

; 718  : 						}
; 719  : 					else

  006a1	e9 ba 00 00 00	 jmp	 $L190856
$L190860:

; 720  : 						{	// must rearrange left subtree
; 721  : 						if (_Color(_Left(_Pnode)) == _Black)

  006a6	8b 55 e0	 mov	 edx, DWORD PTR __Pnode$[ebp]
  006a9	52		 push	 edx
  006aa	e8 00 00 00 00	 call	 ?_Left@?$_Tree@V?$_Tmap_traits@PAUHWND__@@UCWndData@@U?$less@PAUHWND__@@@std@@V?$allocator@U?$pair@QAUHWND__@@UCWndData@@@std@@@4@$0A@@std@@@std@@KAAAPAU_Node@?$_Tree_nod@V?$_Tmap_traits@PAUHWND__@@UCWndData@@U?$less@PAUHWND__@@@std@@V?$allocator@U?$pair@QAUHWND__@@UCWndData@@@std@@@4@$0A@@std@@@2@PAU342@@Z ; std::_Tree<std::_Tmap_traits<HWND__ *,CWndData,std::less<HWND__ *>,std::allocator<std::pair<HWND__ * const,CWndData> >,0> >::_Left
  006af	83 c4 04	 add	 esp, 4
  006b2	8b 00		 mov	 eax, DWORD PTR [eax]
  006b4	50		 push	 eax
  006b5	e8 00 00 00 00	 call	 ?_Color@?$_Tree@V?$_Tmap_traits@PAUHWND__@@UCWndData@@U?$less@PAUHWND__@@@std@@V?$allocator@U?$pair@QAUHWND__@@UCWndData@@@std@@@4@$0A@@std@@@std@@KAAADPAU_Node@?$_Tree_nod@V?$_Tmap_traits@PAUHWND__@@UCWndData@@U?$less@PAUHWND__@@@std@@V?$allocator@U?$pair@QAUHWND__@@UCWndData@@@std@@@4@$0A@@std@@@2@@Z ; std::_Tree<std::_Tmap_traits<HWND__ *,CWndData,std::less<HWND__ *>,std::allocator<std::pair<HWND__ * const,CWndData> >,0> >::_Color
  006ba	83 c4 04	 add	 esp, 4
  006bd	0f be 08	 movsx	 ecx, BYTE PTR [eax]
  006c0	83 f9 01	 cmp	 ecx, 1
  006c3	75 46		 jne	 SHORT $L190862

; 722  : 							{	// rotate red up from right sub-subtree
; 723  : 							_Color(_Right(_Pnode)) = _Black;

  006c5	8b 55 e0	 mov	 edx, DWORD PTR __Pnode$[ebp]
  006c8	52		 push	 edx
  006c9	e8 00 00 00 00	 call	 ?_Right@?$_Tree@V?$_Tmap_traits@PAUHWND__@@UCWndData@@U?$less@PAUHWND__@@@std@@V?$allocator@U?$pair@QAUHWND__@@UCWndData@@@std@@@4@$0A@@std@@@std@@KAAAPAU_Node@?$_Tree_nod@V?$_Tmap_traits@PAUHWND__@@UCWndData@@U?$less@PAUHWND__@@@std@@V?$allocator@U?$pair@QAUHWND__@@UCWndData@@@std@@@4@$0A@@std@@@2@PAU342@@Z ; std::_Tree<std::_Tmap_traits<HWND__ *,CWndData,std::less<HWND__ *>,std::allocator<std::pair<HWND__ * const,CWndData> >,0> >::_Right
  006ce	83 c4 04	 add	 esp, 4
  006d1	8b 00		 mov	 eax, DWORD PTR [eax]
  006d3	50		 push	 eax
  006d4	e8 00 00 00 00	 call	 ?_Color@?$_Tree@V?$_Tmap_traits@PAUHWND__@@UCWndData@@U?$less@PAUHWND__@@@std@@V?$allocator@U?$pair@QAUHWND__@@UCWndData@@@std@@@4@$0A@@std@@@std@@KAAADPAU_Node@?$_Tree_nod@V?$_Tmap_traits@PAUHWND__@@UCWndData@@U?$less@PAUHWND__@@@std@@V?$allocator@U?$pair@QAUHWND__@@UCWndData@@@std@@@4@$0A@@std@@@2@@Z ; std::_Tree<std::_Tmap_traits<HWND__ *,CWndData,std::less<HWND__ *>,std::allocator<std::pair<HWND__ * const,CWndData> >,0> >::_Color
  006d9	83 c4 04	 add	 esp, 4
  006dc	c6 00 01	 mov	 BYTE PTR [eax], 1

; 724  : 							_Color(_Pnode) = _Red;

  006df	8b 4d e0	 mov	 ecx, DWORD PTR __Pnode$[ebp]
  006e2	51		 push	 ecx
  006e3	e8 00 00 00 00	 call	 ?_Color@?$_Tree@V?$_Tmap_traits@PAUHWND__@@UCWndData@@U?$less@PAUHWND__@@@std@@V?$allocator@U?$pair@QAUHWND__@@UCWndData@@@std@@@4@$0A@@std@@@std@@KAAADPAU_Node@?$_Tree_nod@V?$_Tmap_traits@PAUHWND__@@UCWndData@@U?$less@PAUHWND__@@@std@@V?$allocator@U?$pair@QAUHWND__@@UCWndData@@@std@@@4@$0A@@std@@@2@@Z ; std::_Tree<std::_Tmap_traits<HWND__ *,CWndData,std::less<HWND__ *>,std::allocator<std::pair<HWND__ * const,CWndData> >,0> >::_Color
  006e8	83 c4 04	 add	 esp, 4
  006eb	c6 00 00	 mov	 BYTE PTR [eax], 0

; 725  : 							_Lrotate(_Pnode);

  006ee	8b 55 e0	 mov	 edx, DWORD PTR __Pnode$[ebp]
  006f1	52		 push	 edx
  006f2	8b 4d f0	 mov	 ecx, DWORD PTR _this$[ebp]
  006f5	e8 00 00 00 00	 call	 ?_Lrotate@?$_Tree@V?$_Tmap_traits@PAUHWND__@@UCWndData@@U?$less@PAUHWND__@@@std@@V?$allocator@U?$pair@QAUHWND__@@UCWndData@@@std@@@4@$0A@@std@@@std@@IAEXPAU_Node@?$_Tree_nod@V?$_Tmap_traits@PAUHWND__@@UCWndData@@U?$less@PAUHWND__@@@std@@V?$allocator@U?$pair@QAUHWND__@@UCWndData@@@std@@@4@$0A@@std@@@2@@Z ; std::_Tree<std::_Tmap_traits<HWND__ *,CWndData,std::less<HWND__ *>,std::allocator<std::pair<HWND__ * const,CWndData> >,0> >::_Lrotate

; 726  : 							_Pnode = _Left(_Fixnodeparent);

  006fa	8b 45 e4	 mov	 eax, DWORD PTR __Fixnodeparent$[ebp]
  006fd	50		 push	 eax
  006fe	e8 00 00 00 00	 call	 ?_Left@?$_Tree@V?$_Tmap_traits@PAUHWND__@@UCWndData@@U?$less@PAUHWND__@@@std@@V?$allocator@U?$pair@QAUHWND__@@UCWndData@@@std@@@4@$0A@@std@@@std@@KAAAPAU_Node@?$_Tree_nod@V?$_Tmap_traits@PAUHWND__@@UCWndData@@U?$less@PAUHWND__@@@std@@V?$allocator@U?$pair@QAUHWND__@@UCWndData@@@std@@@4@$0A@@std@@@2@PAU342@@Z ; std::_Tree<std::_Tmap_traits<HWND__ *,CWndData,std::less<HWND__ *>,std::allocator<std::pair<HWND__ * const,CWndData> >,0> >::_Left
  00703	83 c4 04	 add	 esp, 4
  00706	8b 08		 mov	 ecx, DWORD PTR [eax]
  00708	89 4d e0	 mov	 DWORD PTR __Pnode$[ebp], ecx
$L190862:

; 727  : 							}
; 728  : 
; 729  : 						_Color(_Pnode) = _Color(_Fixnodeparent);

  0070b	8b 55 e4	 mov	 edx, DWORD PTR __Fixnodeparent$[ebp]
  0070e	52		 push	 edx
  0070f	e8 00 00 00 00	 call	 ?_Color@?$_Tree@V?$_Tmap_traits@PAUHWND__@@UCWndData@@U?$less@PAUHWND__@@@std@@V?$allocator@U?$pair@QAUHWND__@@UCWndData@@@std@@@4@$0A@@std@@@std@@KAAADPAU_Node@?$_Tree_nod@V?$_Tmap_traits@PAUHWND__@@UCWndData@@U?$less@PAUHWND__@@@std@@V?$allocator@U?$pair@QAUHWND__@@UCWndData@@@std@@@4@$0A@@std@@@2@@Z ; std::_Tree<std::_Tmap_traits<HWND__ *,CWndData,std::less<HWND__ *>,std::allocator<std::pair<HWND__ * const,CWndData> >,0> >::_Color
  00714	83 c4 04	 add	 esp, 4
  00717	8b f0		 mov	 esi, eax
  00719	8b 45 e0	 mov	 eax, DWORD PTR __Pnode$[ebp]
  0071c	50		 push	 eax
  0071d	e8 00 00 00 00	 call	 ?_Color@?$_Tree@V?$_Tmap_traits@PAUHWND__@@UCWndData@@U?$less@PAUHWND__@@@std@@V?$allocator@U?$pair@QAUHWND__@@UCWndData@@@std@@@4@$0A@@std@@@std@@KAAADPAU_Node@?$_Tree_nod@V?$_Tmap_traits@PAUHWND__@@UCWndData@@U?$less@PAUHWND__@@@std@@V?$allocator@U?$pair@QAUHWND__@@UCWndData@@@std@@@4@$0A@@std@@@2@@Z ; std::_Tree<std::_Tmap_traits<HWND__ *,CWndData,std::less<HWND__ *>,std::allocator<std::pair<HWND__ * const,CWndData> >,0> >::_Color
  00722	83 c4 04	 add	 esp, 4
  00725	8a 0e		 mov	 cl, BYTE PTR [esi]
  00727	88 08		 mov	 BYTE PTR [eax], cl

; 730  : 						_Color(_Fixnodeparent) = _Black;

  00729	8b 55 e4	 mov	 edx, DWORD PTR __Fixnodeparent$[ebp]
  0072c	52		 push	 edx
  0072d	e8 00 00 00 00	 call	 ?_Color@?$_Tree@V?$_Tmap_traits@PAUHWND__@@UCWndData@@U?$less@PAUHWND__@@@std@@V?$allocator@U?$pair@QAUHWND__@@UCWndData@@@std@@@4@$0A@@std@@@std@@KAAADPAU_Node@?$_Tree_nod@V?$_Tmap_traits@PAUHWND__@@UCWndData@@U?$less@PAUHWND__@@@std@@V?$allocator@U?$pair@QAUHWND__@@UCWndData@@@std@@@4@$0A@@std@@@2@@Z ; std::_Tree<std::_Tmap_traits<HWND__ *,CWndData,std::less<HWND__ *>,std::allocator<std::pair<HWND__ * const,CWndData> >,0> >::_Color
  00732	83 c4 04	 add	 esp, 4
  00735	c6 00 01	 mov	 BYTE PTR [eax], 1

; 731  : 						_Color(_Left(_Pnode)) = _Black;

  00738	8b 45 e0	 mov	 eax, DWORD PTR __Pnode$[ebp]
  0073b	50		 push	 eax
  0073c	e8 00 00 00 00	 call	 ?_Left@?$_Tree@V?$_Tmap_traits@PAUHWND__@@UCWndData@@U?$less@PAUHWND__@@@std@@V?$allocator@U?$pair@QAUHWND__@@UCWndData@@@std@@@4@$0A@@std@@@std@@KAAAPAU_Node@?$_Tree_nod@V?$_Tmap_traits@PAUHWND__@@UCWndData@@U?$less@PAUHWND__@@@std@@V?$allocator@U?$pair@QAUHWND__@@UCWndData@@@std@@@4@$0A@@std@@@2@PAU342@@Z ; std::_Tree<std::_Tmap_traits<HWND__ *,CWndData,std::less<HWND__ *>,std::allocator<std::pair<HWND__ * const,CWndData> >,0> >::_Left
  00741	83 c4 04	 add	 esp, 4
  00744	8b 08		 mov	 ecx, DWORD PTR [eax]
  00746	51		 push	 ecx
  00747	e8 00 00 00 00	 call	 ?_Color@?$_Tree@V?$_Tmap_traits@PAUHWND__@@UCWndData@@U?$less@PAUHWND__@@@std@@V?$allocator@U?$pair@QAUHWND__@@UCWndData@@@std@@@4@$0A@@std@@@std@@KAAADPAU_Node@?$_Tree_nod@V?$_Tmap_traits@PAUHWND__@@UCWndData@@U?$less@PAUHWND__@@@std@@V?$allocator@U?$pair@QAUHWND__@@UCWndData@@@std@@@4@$0A@@std@@@2@@Z ; std::_Tree<std::_Tmap_traits<HWND__ *,CWndData,std::less<HWND__ *>,std::allocator<std::pair<HWND__ * const,CWndData> >,0> >::_Color
  0074c	83 c4 04	 add	 esp, 4
  0074f	c6 00 01	 mov	 BYTE PTR [eax], 1

; 732  : 						_Rrotate(_Fixnodeparent);

  00752	8b 55 e4	 mov	 edx, DWORD PTR __Fixnodeparent$[ebp]
  00755	52		 push	 edx
  00756	8b 4d f0	 mov	 ecx, DWORD PTR _this$[ebp]
  00759	e8 00 00 00 00	 call	 ?_Rrotate@?$_Tree@V?$_Tmap_traits@PAUHWND__@@UCWndData@@U?$less@PAUHWND__@@@std@@V?$allocator@U?$pair@QAUHWND__@@UCWndData@@@std@@@4@$0A@@std@@@std@@IAEXPAU_Node@?$_Tree_nod@V?$_Tmap_traits@PAUHWND__@@UCWndData@@U?$less@PAUHWND__@@@std@@V?$allocator@U?$pair@QAUHWND__@@UCWndData@@@std@@@4@$0A@@std@@@2@@Z ; std::_Tree<std::_Tmap_traits<HWND__ *,CWndData,std::less<HWND__ *>,std::allocator<std::pair<HWND__ * const,CWndData> >,0> >::_Rrotate

; 733  : 						break;	// tree now recolored/rebalanced

  0075e	eb 05		 jmp	 SHORT $L190848
$L190856:

; 734  : 						}
; 735  : 					}

  00760	e9 82 fc ff ff	 jmp	 $L190847
$L190848:

; 736  : 
; 737  : 			_Color(_Fixnode) = _Black;	// ensure stopping node is black

  00765	8b 45 e8	 mov	 eax, DWORD PTR __Fixnode$[ebp]
  00768	50		 push	 eax
  00769	e8 00 00 00 00	 call	 ?_Color@?$_Tree@V?$_Tmap_traits@PAUHWND__@@UCWndData@@U?$less@PAUHWND__@@@std@@V?$allocator@U?$pair@QAUHWND__@@UCWndData@@@std@@@4@$0A@@std@@@std@@KAAADPAU_Node@?$_Tree_nod@V?$_Tmap_traits@PAUHWND__@@UCWndData@@U?$less@PAUHWND__@@@std@@V?$allocator@U?$pair@QAUHWND__@@UCWndData@@@std@@@4@$0A@@std@@@2@@Z ; std::_Tree<std::_Tmap_traits<HWND__ *,CWndData,std::less<HWND__ *>,std::allocator<std::pair<HWND__ * const,CWndData> >,0> >::_Color
  0076e	83 c4 04	 add	 esp, 4
  00771	c6 00 01	 mov	 BYTE PTR [eax], 1
$L190845:

; 738  : 			}
; 739  : 
; 740  : 		this->_Alnod.destroy(_Erasednode);	// destroy, free erased node

  00774	8b 4d ec	 mov	 ecx, DWORD PTR __Erasednode$[ebp]
  00777	51		 push	 ecx
  00778	8b 4d f0	 mov	 ecx, DWORD PTR _this$[ebp]
  0077b	83 c1 01	 add	 ecx, 1
  0077e	e8 00 00 00 00	 call	 ?destroy@?$allocator@U_Node@?$_Tree_nod@V?$_Tmap_traits@PAUHWND__@@UCWndData@@U?$less@PAUHWND__@@@std@@V?$allocator@U?$pair@QAUHWND__@@UCWndData@@@std@@@4@$0A@@std@@@std@@@std@@QAEXPAU_Node@?$_Tree_nod@V?$_Tmap_traits@PAUHWND__@@UCWndData@@U?$less@PAUHWND__@@@std@@V?$allocator@U?$pair@QAUHWND__@@UCWndData@@@std@@@4@$0A@@std@@@2@@Z ; std::allocator<std::_Tree_nod<std::_Tmap_traits<HWND__ *,CWndData,std::less<HWND__ *>,std::allocator<std::pair<HWND__ * const,CWndData> >,0> >::_Node>::destroy

; 741  : 		this->_Alnod.deallocate(_Erasednode, 1);

  00783	6a 01		 push	 1
  00785	8b 55 ec	 mov	 edx, DWORD PTR __Erasednode$[ebp]
  00788	52		 push	 edx
  00789	8b 4d f0	 mov	 ecx, DWORD PTR _this$[ebp]
  0078c	83 c1 01	 add	 ecx, 1
  0078f	e8 00 00 00 00	 call	 ?deallocate@?$allocator@U_Node@?$_Tree_nod@V?$_Tmap_traits@PAUHWND__@@UCWndData@@U?$less@PAUHWND__@@@std@@V?$allocator@U?$pair@QAUHWND__@@UCWndData@@@std@@@4@$0A@@std@@@std@@@std@@QAEXPAU_Node@?$_Tree_nod@V?$_Tmap_traits@PAUHWND__@@UCWndData@@U?$less@PAUHWND__@@@std@@V?$allocator@U?$pair@QAUHWND__@@UCWndData@@@std@@@4@$0A@@std@@@2@I@Z ; std::allocator<std::_Tree_nod<std::_Tmap_traits<HWND__ *,CWndData,std::less<HWND__ *>,std::allocator<std::pair<HWND__ * const,CWndData> >,0> >::_Node>::deallocate

; 742  : 
; 743  : 		if (0 < _Mysize)

  00794	8b 45 f0	 mov	 eax, DWORD PTR _this$[ebp]
  00797	83 78 08 00	 cmp	 DWORD PTR [eax+8], 0
  0079b	76 0f		 jbe	 SHORT $L190863

; 744  : 			--_Mysize;

  0079d	8b 4d f0	 mov	 ecx, DWORD PTR _this$[ebp]
  007a0	8b 51 08	 mov	 edx, DWORD PTR [ecx+8]
  007a3	83 ea 01	 sub	 edx, 1
  007a6	8b 45 f0	 mov	 eax, DWORD PTR _this$[ebp]
  007a9	89 50 08	 mov	 DWORD PTR [eax+8], edx
$L190863:

; 745  : 
; 746  : 		return (_Where);	// return successor iterator

  007ac	8b 4d 08	 mov	 ecx, DWORD PTR ___$ReturnUdt$[ebp]
  007af	8b 55 0c	 mov	 edx, DWORD PTR __Where$[ebp]
  007b2	89 11		 mov	 DWORD PTR [ecx], edx
  007b4	8b 45 08	 mov	 eax, DWORD PTR ___$ReturnUdt$[ebp]
$L192514:

; 747  : 		}

  007b7	8b 4d f4	 mov	 ecx, DWORD PTR __$EHRec$[ebp]
  007ba	64 89 0d 00 00
	00 00		 mov	 DWORD PTR fs:__except_list, ecx
  007c1	5f		 pop	 edi
  007c2	5e		 pop	 esi
  007c3	83 c4 6c	 add	 esp, 108		; 0000006cH
  007c6	3b ec		 cmp	 ebp, esp
  007c8	e8 00 00 00 00	 call	 __RTC_CheckEsp
  007cd	8b e5		 mov	 esp, ebp
  007cf	5d		 pop	 ebp
  007d0	c2 08 00	 ret	 8
_TEXT	ENDS
;	COMDAT text$x
text$x	SEGMENT
$L192521:
  00000	8b f4		 mov	 esi, esp
  00002	8d 4d 9c	 lea	 ecx, DWORD PTR $T192516[ebp]
  00005	ff 15 00 00 00
	00		 call	 DWORD PTR __imp_??1?$basic_string@DU?$char_traits@D@std@@V?$allocator@D@2@@std@@QAE@XZ
  0000b	3b f4		 cmp	 esi, esp
  0000d	e9 00 00 00 00	 jmp	 __RTC_CheckEsp
__ehhandler$?erase@?$_Tree@V?$_Tmap_traits@PAUHWND__@@UCWndData@@U?$less@PAUHWND__@@@std@@V?$allocator@U?$pair@QAUHWND__@@UCWndData@@@std@@@4@$0A@@std@@@std@@QAE?AViterator@12@V312@@Z:
  00012	b8 00 00 00 00	 mov	 eax, OFFSET FLAT:$T192523
  00017	e9 00 00 00 00	 jmp	 ___CxxFrameHandler
text$x	ENDS
?erase@?$_Tree@V?$_Tmap_traits@PAUHWND__@@UCWndData@@U?$less@PAUHWND__@@@std@@V?$allocator@U?$pair@QAUHWND__@@UCWndData@@@std@@@4@$0A@@std@@@std@@QAE?AViterator@12@V312@@Z ENDP ; std::_Tree<std::_Tmap_traits<HWND__ *,CWndData,std::less<HWND__ *>,std::allocator<std::pair<HWND__ * const,CWndData> >,0> >::erase
PUBLIC	?_Erase@?$_Tree@V?$_Tmap_traits@PAUHWND__@@UCWndData@@U?$less@PAUHWND__@@@std@@V?$allocator@U?$pair@QAUHWND__@@UCWndData@@@std@@@4@$0A@@std@@@std@@IAEXPAU_Node@?$_Tree_nod@V?$_Tmap_traits@PAUHWND__@@UCWndData@@U?$less@PAUHWND__@@@std@@V?$allocator@U?$pair@QAUHWND__@@UCWndData@@@std@@@4@$0A@@std@@@2@@Z ; std::_Tree<std::_Tmap_traits<HWND__ *,CWndData,std::less<HWND__ *>,std::allocator<std::pair<HWND__ * const,CWndData> >,0> >::_Erase
; Function compile flags: /Odt /RTCsu
;	COMDAT ?clear@?$_Tree@V?$_Tmap_traits@PAUHWND__@@UCWndData@@U?$less@PAUHWND__@@@std@@V?$allocator@U?$pair@QAUHWND__@@UCWndData@@@std@@@4@$0A@@std@@@std@@QAEXXZ
_TEXT	SEGMENT
_this$ = -4						; size = 4
?clear@?$_Tree@V?$_Tmap_traits@PAUHWND__@@UCWndData@@U?$less@PAUHWND__@@@std@@V?$allocator@U?$pair@QAUHWND__@@UCWndData@@@std@@@4@$0A@@std@@@std@@QAEXXZ PROC NEAR ; std::_Tree<std::_Tmap_traits<HWND__ *,CWndData,std::less<HWND__ *>,std::allocator<std::pair<HWND__ * const,CWndData> >,0> >::clear, COMDAT
; _this$ = ecx

; 780  : 		{	// erase all

  00000	55		 push	 ebp
  00001	8b ec		 mov	 ebp, esp
  00003	51		 push	 ecx
  00004	c7 45 fc cc cc
	cc cc		 mov	 DWORD PTR [ebp-4], -858993460 ; ccccccccH
  0000b	89 4d fc	 mov	 DWORD PTR _this$[ebp], ecx

; 781  : 		_Erase(_Root());

  0000e	8b 4d fc	 mov	 ecx, DWORD PTR _this$[ebp]
  00011	e8 00 00 00 00	 call	 ?_Root@?$_Tree@V?$_Tmap_traits@PAUHWND__@@UCWndData@@U?$less@PAUHWND__@@@std@@V?$allocator@U?$pair@QAUHWND__@@UCWndData@@@std@@@4@$0A@@std@@@std@@IAEAAPAU_Node@?$_Tree_nod@V?$_Tmap_traits@PAUHWND__@@UCWndData@@U?$less@PAUHWND__@@@std@@V?$allocator@U?$pair@QAUHWND__@@UCWndData@@@std@@@4@$0A@@std@@@2@XZ ; std::_Tree<std::_Tmap_traits<HWND__ *,CWndData,std::less<HWND__ *>,std::allocator<std::pair<HWND__ * const,CWndData> >,0> >::_Root
  00016	8b 00		 mov	 eax, DWORD PTR [eax]
  00018	50		 push	 eax
  00019	8b 4d fc	 mov	 ecx, DWORD PTR _this$[ebp]
  0001c	e8 00 00 00 00	 call	 ?_Erase@?$_Tree@V?$_Tmap_traits@PAUHWND__@@UCWndData@@U?$less@PAUHWND__@@@std@@V?$allocator@U?$pair@QAUHWND__@@UCWndData@@@std@@@4@$0A@@std@@@std@@IAEXPAU_Node@?$_Tree_nod@V?$_Tmap_traits@PAUHWND__@@UCWndData@@U?$less@PAUHWND__@@@std@@V?$allocator@U?$pair@QAUHWND__@@UCWndData@@@std@@@4@$0A@@std@@@2@@Z ; std::_Tree<std::_Tmap_traits<HWND__ *,CWndData,std::less<HWND__ *>,std::allocator<std::pair<HWND__ * const,CWndData> >,0> >::_Erase

; 782  : 		_Root() = _Myhead, _Mysize = 0;

  00021	8b 4d fc	 mov	 ecx, DWORD PTR _this$[ebp]
  00024	e8 00 00 00 00	 call	 ?_Root@?$_Tree@V?$_Tmap_traits@PAUHWND__@@UCWndData@@U?$less@PAUHWND__@@@std@@V?$allocator@U?$pair@QAUHWND__@@UCWndData@@@std@@@4@$0A@@std@@@std@@IAEAAPAU_Node@?$_Tree_nod@V?$_Tmap_traits@PAUHWND__@@UCWndData@@U?$less@PAUHWND__@@@std@@V?$allocator@U?$pair@QAUHWND__@@UCWndData@@@std@@@4@$0A@@std@@@2@XZ ; std::_Tree<std::_Tmap_traits<HWND__ *,CWndData,std::less<HWND__ *>,std::allocator<std::pair<HWND__ * const,CWndData> >,0> >::_Root
  00029	8b 4d fc	 mov	 ecx, DWORD PTR _this$[ebp]
  0002c	8b 51 04	 mov	 edx, DWORD PTR [ecx+4]
  0002f	89 10		 mov	 DWORD PTR [eax], edx
  00031	8b 45 fc	 mov	 eax, DWORD PTR _this$[ebp]
  00034	c7 40 08 00 00
	00 00		 mov	 DWORD PTR [eax+8], 0

; 783  : 		_Lmost() = _Myhead, _Rmost() = _Myhead;

  0003b	8b 4d fc	 mov	 ecx, DWORD PTR _this$[ebp]
  0003e	e8 00 00 00 00	 call	 ?_Lmost@?$_Tree@V?$_Tmap_traits@PAUHWND__@@UCWndData@@U?$less@PAUHWND__@@@std@@V?$allocator@U?$pair@QAUHWND__@@UCWndData@@@std@@@4@$0A@@std@@@std@@IAEAAPAU_Node@?$_Tree_nod@V?$_Tmap_traits@PAUHWND__@@UCWndData@@U?$less@PAUHWND__@@@std@@V?$allocator@U?$pair@QAUHWND__@@UCWndData@@@std@@@4@$0A@@std@@@2@XZ ; std::_Tree<std::_Tmap_traits<HWND__ *,CWndData,std::less<HWND__ *>,std::allocator<std::pair<HWND__ * const,CWndData> >,0> >::_Lmost
  00043	8b 4d fc	 mov	 ecx, DWORD PTR _this$[ebp]
  00046	8b 51 04	 mov	 edx, DWORD PTR [ecx+4]
  00049	89 10		 mov	 DWORD PTR [eax], edx
  0004b	8b 4d fc	 mov	 ecx, DWORD PTR _this$[ebp]
  0004e	e8 00 00 00 00	 call	 ?_Rmost@?$_Tree@V?$_Tmap_traits@PAUHWND__@@UCWndData@@U?$less@PAUHWND__@@@std@@V?$allocator@U?$pair@QAUHWND__@@UCWndData@@@std@@@4@$0A@@std@@@std@@IAEAAPAU_Node@?$_Tree_nod@V?$_Tmap_traits@PAUHWND__@@UCWndData@@U?$less@PAUHWND__@@@std@@V?$allocator@U?$pair@QAUHWND__@@UCWndData@@@std@@@4@$0A@@std@@@2@XZ ; std::_Tree<std::_Tmap_traits<HWND__ *,CWndData,std::less<HWND__ *>,std::allocator<std::pair<HWND__ * const,CWndData> >,0> >::_Rmost
  00053	8b 4d fc	 mov	 ecx, DWORD PTR _this$[ebp]
  00056	8b 51 04	 mov	 edx, DWORD PTR [ecx+4]
  00059	89 10		 mov	 DWORD PTR [eax], edx

; 784  : 		}

  0005b	83 c4 04	 add	 esp, 4
  0005e	3b ec		 cmp	 ebp, esp
  00060	e8 00 00 00 00	 call	 __RTC_CheckEsp
  00065	8b e5		 mov	 esp, ebp
  00067	5d		 pop	 ebp
  00068	c3		 ret	 0
?clear@?$_Tree@V?$_Tmap_traits@PAUHWND__@@UCWndData@@U?$less@PAUHWND__@@@std@@V?$allocator@U?$pair@QAUHWND__@@UCWndData@@@std@@@4@$0A@@std@@@std@@QAEXXZ ENDP ; std::_Tree<std::_Tmap_traits<HWND__ *,CWndData,std::less<HWND__ *>,std::allocator<std::pair<HWND__ * const,CWndData> >,0> >::clear
; Function compile flags: /Odt /RTCsu
_TEXT	ENDS
;	COMDAT ?_Lrotate@?$_Tree@V?$_Tmap_traits@PAUHWND__@@UCWndData@@U?$less@PAUHWND__@@@std@@V?$allocator@U?$pair@QAUHWND__@@UCWndData@@@std@@@4@$0A@@std@@@std@@IAEXPAU_Node@?$_Tree_nod@V?$_Tmap_traits@PAUHWND__@@UCWndData@@U?$less@PAUHWND__@@@std@@V?$allocator@U?$pair@QAUHWND__@@UCWndData@@@std@@@4@$0A@@std@@@2@@Z
_TEXT	SEGMENT
__Pnode$ = -8						; size = 4
_this$ = -4						; size = 4
__Wherenode$ = 8					; size = 4
?_Lrotate@?$_Tree@V?$_Tmap_traits@PAUHWND__@@UCWndData@@U?$less@PAUHWND__@@@std@@V?$allocator@U?$pair@QAUHWND__@@UCWndData@@@std@@@4@$0A@@std@@@std@@IAEXPAU_Node@?$_Tree_nod@V?$_Tmap_traits@PAUHWND__@@UCWndData@@U?$less@PAUHWND__@@@std@@V?$allocator@U?$pair@QAUHWND__@@UCWndData@@@std@@@4@$0A@@std@@@2@@Z PROC NEAR ; std::_Tree<std::_Tmap_traits<HWND__ *,CWndData,std::less<HWND__ *>,std::allocator<std::pair<HWND__ * const,CWndData> >,0> >::_Lrotate, COMDAT
; _this$ = ecx

; 1014 : 		{	// promote right node to root of subtree

  00000	55		 push	 ebp
  00001	8b ec		 mov	 ebp, esp
  00003	83 ec 08	 sub	 esp, 8
  00006	56		 push	 esi
  00007	c7 45 f8 cc cc
	cc cc		 mov	 DWORD PTR [ebp-8], -858993460 ; ccccccccH
  0000e	c7 45 fc cc cc
	cc cc		 mov	 DWORD PTR [ebp-4], -858993460 ; ccccccccH
  00015	89 4d fc	 mov	 DWORD PTR _this$[ebp], ecx

; 1015 : 		_Nodeptr _Pnode = _Right(_Wherenode);

  00018	8b 45 08	 mov	 eax, DWORD PTR __Wherenode$[ebp]
  0001b	50		 push	 eax
  0001c	e8 00 00 00 00	 call	 ?_Right@?$_Tree@V?$_Tmap_traits@PAUHWND__@@UCWndData@@U?$less@PAUHWND__@@@std@@V?$allocator@U?$pair@QAUHWND__@@UCWndData@@@std@@@4@$0A@@std@@@std@@KAAAPAU_Node@?$_Tree_nod@V?$_Tmap_traits@PAUHWND__@@UCWndData@@U?$less@PAUHWND__@@@std@@V?$allocator@U?$pair@QAUHWND__@@UCWndData@@@std@@@4@$0A@@std@@@2@PAU342@@Z ; std::_Tree<std::_Tmap_traits<HWND__ *,CWndData,std::less<HWND__ *>,std::allocator<std::pair<HWND__ * const,CWndData> >,0> >::_Right
  00021	83 c4 04	 add	 esp, 4
  00024	8b 08		 mov	 ecx, DWORD PTR [eax]
  00026	89 4d f8	 mov	 DWORD PTR __Pnode$[ebp], ecx

; 1016 : 		_Right(_Wherenode) = _Left(_Pnode);

  00029	8b 55 f8	 mov	 edx, DWORD PTR __Pnode$[ebp]
  0002c	52		 push	 edx
  0002d	e8 00 00 00 00	 call	 ?_Left@?$_Tree@V?$_Tmap_traits@PAUHWND__@@UCWndData@@U?$less@PAUHWND__@@@std@@V?$allocator@U?$pair@QAUHWND__@@UCWndData@@@std@@@4@$0A@@std@@@std@@KAAAPAU_Node@?$_Tree_nod@V?$_Tmap_traits@PAUHWND__@@UCWndData@@U?$less@PAUHWND__@@@std@@V?$allocator@U?$pair@QAUHWND__@@UCWndData@@@std@@@4@$0A@@std@@@2@PAU342@@Z ; std::_Tree<std::_Tmap_traits<HWND__ *,CWndData,std::less<HWND__ *>,std::allocator<std::pair<HWND__ * const,CWndData> >,0> >::_Left
  00032	83 c4 04	 add	 esp, 4
  00035	8b f0		 mov	 esi, eax
  00037	8b 45 08	 mov	 eax, DWORD PTR __Wherenode$[ebp]
  0003a	50		 push	 eax
  0003b	e8 00 00 00 00	 call	 ?_Right@?$_Tree@V?$_Tmap_traits@PAUHWND__@@UCWndData@@U?$less@PAUHWND__@@@std@@V?$allocator@U?$pair@QAUHWND__@@UCWndData@@@std@@@4@$0A@@std@@@std@@KAAAPAU_Node@?$_Tree_nod@V?$_Tmap_traits@PAUHWND__@@UCWndData@@U?$less@PAUHWND__@@@std@@V?$allocator@U?$pair@QAUHWND__@@UCWndData@@@std@@@4@$0A@@std@@@2@PAU342@@Z ; std::_Tree<std::_Tmap_traits<HWND__ *,CWndData,std::less<HWND__ *>,std::allocator<std::pair<HWND__ * const,CWndData> >,0> >::_Right
  00040	83 c4 04	 add	 esp, 4
  00043	8b 0e		 mov	 ecx, DWORD PTR [esi]
  00045	89 08		 mov	 DWORD PTR [eax], ecx

; 1017 : 
; 1018 : 		if (!_Isnil(_Left(_Pnode)))

  00047	8b 55 f8	 mov	 edx, DWORD PTR __Pnode$[ebp]
  0004a	52		 push	 edx
  0004b	e8 00 00 00 00	 call	 ?_Left@?$_Tree@V?$_Tmap_traits@PAUHWND__@@UCWndData@@U?$less@PAUHWND__@@@std@@V?$allocator@U?$pair@QAUHWND__@@UCWndData@@@std@@@4@$0A@@std@@@std@@KAAAPAU_Node@?$_Tree_nod@V?$_Tmap_traits@PAUHWND__@@UCWndData@@U?$less@PAUHWND__@@@std@@V?$allocator@U?$pair@QAUHWND__@@UCWndData@@@std@@@4@$0A@@std@@@2@PAU342@@Z ; std::_Tree<std::_Tmap_traits<HWND__ *,CWndData,std::less<HWND__ *>,std::allocator<std::pair<HWND__ * const,CWndData> >,0> >::_Left
  00050	83 c4 04	 add	 esp, 4
  00053	8b 00		 mov	 eax, DWORD PTR [eax]
  00055	50		 push	 eax
  00056	e8 00 00 00 00	 call	 ?_Isnil@?$_Tree@V?$_Tmap_traits@PAUHWND__@@UCWndData@@U?$less@PAUHWND__@@@std@@V?$allocator@U?$pair@QAUHWND__@@UCWndData@@@std@@@4@$0A@@std@@@std@@KAAADPAU_Node@?$_Tree_nod@V?$_Tmap_traits@PAUHWND__@@UCWndData@@U?$less@PAUHWND__@@@std@@V?$allocator@U?$pair@QAUHWND__@@UCWndData@@@std@@@4@$0A@@std@@@2@@Z ; std::_Tree<std::_Tmap_traits<HWND__ *,CWndData,std::less<HWND__ *>,std::allocator<std::pair<HWND__ * const,CWndData> >,0> >::_Isnil
  0005b	83 c4 04	 add	 esp, 4
  0005e	0f be 08	 movsx	 ecx, BYTE PTR [eax]
  00061	85 c9		 test	 ecx, ecx
  00063	75 1c		 jne	 SHORT $L190869

; 1019 : 			_Parent(_Left(_Pnode)) = _Wherenode;

  00065	8b 55 f8	 mov	 edx, DWORD PTR __Pnode$[ebp]
  00068	52		 push	 edx
  00069	e8 00 00 00 00	 call	 ?_Left@?$_Tree@V?$_Tmap_traits@PAUHWND__@@UCWndData@@U?$less@PAUHWND__@@@std@@V?$allocator@U?$pair@QAUHWND__@@UCWndData@@@std@@@4@$0A@@std@@@std@@KAAAPAU_Node@?$_Tree_nod@V?$_Tmap_traits@PAUHWND__@@UCWndData@@U?$less@PAUHWND__@@@std@@V?$allocator@U?$pair@QAUHWND__@@UCWndData@@@std@@@4@$0A@@std@@@2@PAU342@@Z ; std::_Tree<std::_Tmap_traits<HWND__ *,CWndData,std::less<HWND__ *>,std::allocator<std::pair<HWND__ * const,CWndData> >,0> >::_Left
  0006e	83 c4 04	 add	 esp, 4
  00071	8b 00		 mov	 eax, DWORD PTR [eax]
  00073	50		 push	 eax
  00074	e8 00 00 00 00	 call	 ?_Parent@?$_Tree@V?$_Tmap_traits@PAUHWND__@@UCWndData@@U?$less@PAUHWND__@@@std@@V?$allocator@U?$pair@QAUHWND__@@UCWndData@@@std@@@4@$0A@@std@@@std@@KAAAPAU_Node@?$_Tree_nod@V?$_Tmap_traits@PAUHWND__@@UCWndData@@U?$less@PAUHWND__@@@std@@V?$allocator@U?$pair@QAUHWND__@@UCWndData@@@std@@@4@$0A@@std@@@2@PAU342@@Z ; std::_Tree<std::_Tmap_traits<HWND__ *,CWndData,std::less<HWND__ *>,std::allocator<std::pair<HWND__ * const,CWndData> >,0> >::_Parent
  00079	83 c4 04	 add	 esp, 4
  0007c	8b 4d 08	 mov	 ecx, DWORD PTR __Wherenode$[ebp]
  0007f	89 08		 mov	 DWORD PTR [eax], ecx
$L190869:

; 1020 : 		_Parent(_Pnode) = _Parent(_Wherenode);

  00081	8b 55 08	 mov	 edx, DWORD PTR __Wherenode$[ebp]
  00084	52		 push	 edx
  00085	e8 00 00 00 00	 call	 ?_Parent@?$_Tree@V?$_Tmap_traits@PAUHWND__@@UCWndData@@U?$less@PAUHWND__@@@std@@V?$allocator@U?$pair@QAUHWND__@@UCWndData@@@std@@@4@$0A@@std@@@std@@KAAAPAU_Node@?$_Tree_nod@V?$_Tmap_traits@PAUHWND__@@UCWndData@@U?$less@PAUHWND__@@@std@@V?$allocator@U?$pair@QAUHWND__@@UCWndData@@@std@@@4@$0A@@std@@@2@PAU342@@Z ; std::_Tree<std::_Tmap_traits<HWND__ *,CWndData,std::less<HWND__ *>,std::allocator<std::pair<HWND__ * const,CWndData> >,0> >::_Parent
  0008a	83 c4 04	 add	 esp, 4
  0008d	8b f0		 mov	 esi, eax
  0008f	8b 45 f8	 mov	 eax, DWORD PTR __Pnode$[ebp]
  00092	50		 push	 eax
  00093	e8 00 00 00 00	 call	 ?_Parent@?$_Tree@V?$_Tmap_traits@PAUHWND__@@UCWndData@@U?$less@PAUHWND__@@@std@@V?$allocator@U?$pair@QAUHWND__@@UCWndData@@@std@@@4@$0A@@std@@@std@@KAAAPAU_Node@?$_Tree_nod@V?$_Tmap_traits@PAUHWND__@@UCWndData@@U?$less@PAUHWND__@@@std@@V?$allocator@U?$pair@QAUHWND__@@UCWndData@@@std@@@4@$0A@@std@@@2@PAU342@@Z ; std::_Tree<std::_Tmap_traits<HWND__ *,CWndData,std::less<HWND__ *>,std::allocator<std::pair<HWND__ * const,CWndData> >,0> >::_Parent
  00098	83 c4 04	 add	 esp, 4
  0009b	8b 0e		 mov	 ecx, DWORD PTR [esi]
  0009d	89 08		 mov	 DWORD PTR [eax], ecx

; 1021 : 
; 1022 : 		if (_Wherenode == _Root())

  0009f	8b 4d fc	 mov	 ecx, DWORD PTR _this$[ebp]
  000a2	e8 00 00 00 00	 call	 ?_Root@?$_Tree@V?$_Tmap_traits@PAUHWND__@@UCWndData@@U?$less@PAUHWND__@@@std@@V?$allocator@U?$pair@QAUHWND__@@UCWndData@@@std@@@4@$0A@@std@@@std@@IAEAAPAU_Node@?$_Tree_nod@V?$_Tmap_traits@PAUHWND__@@UCWndData@@U?$less@PAUHWND__@@@std@@V?$allocator@U?$pair@QAUHWND__@@UCWndData@@@std@@@4@$0A@@std@@@2@XZ ; std::_Tree<std::_Tmap_traits<HWND__ *,CWndData,std::less<HWND__ *>,std::allocator<std::pair<HWND__ * const,CWndData> >,0> >::_Root
  000a7	8b 55 08	 mov	 edx, DWORD PTR __Wherenode$[ebp]
  000aa	3b 10		 cmp	 edx, DWORD PTR [eax]
  000ac	75 0f		 jne	 SHORT $L190870

; 1023 : 			_Root() = _Pnode;

  000ae	8b 4d fc	 mov	 ecx, DWORD PTR _this$[ebp]
  000b1	e8 00 00 00 00	 call	 ?_Root@?$_Tree@V?$_Tmap_traits@PAUHWND__@@UCWndData@@U?$less@PAUHWND__@@@std@@V?$allocator@U?$pair@QAUHWND__@@UCWndData@@@std@@@4@$0A@@std@@@std@@IAEAAPAU_Node@?$_Tree_nod@V?$_Tmap_traits@PAUHWND__@@UCWndData@@U?$less@PAUHWND__@@@std@@V?$allocator@U?$pair@QAUHWND__@@UCWndData@@@std@@@4@$0A@@std@@@2@XZ ; std::_Tree<std::_Tmap_traits<HWND__ *,CWndData,std::less<HWND__ *>,std::allocator<std::pair<HWND__ * const,CWndData> >,0> >::_Root
  000b6	8b 4d f8	 mov	 ecx, DWORD PTR __Pnode$[ebp]
  000b9	89 08		 mov	 DWORD PTR [eax], ecx

; 1024 : 		else if (_Wherenode == _Left(_Parent(_Wherenode)))

  000bb	eb 58		 jmp	 SHORT $L190871
$L190870:
  000bd	8b 55 08	 mov	 edx, DWORD PTR __Wherenode$[ebp]
  000c0	52		 push	 edx
  000c1	e8 00 00 00 00	 call	 ?_Parent@?$_Tree@V?$_Tmap_traits@PAUHWND__@@UCWndData@@U?$less@PAUHWND__@@@std@@V?$allocator@U?$pair@QAUHWND__@@UCWndData@@@std@@@4@$0A@@std@@@std@@KAAAPAU_Node@?$_Tree_nod@V?$_Tmap_traits@PAUHWND__@@UCWndData@@U?$less@PAUHWND__@@@std@@V?$allocator@U?$pair@QAUHWND__@@UCWndData@@@std@@@4@$0A@@std@@@2@PAU342@@Z ; std::_Tree<std::_Tmap_traits<HWND__ *,CWndData,std::less<HWND__ *>,std::allocator<std::pair<HWND__ * const,CWndData> >,0> >::_Parent
  000c6	83 c4 04	 add	 esp, 4
  000c9	8b 00		 mov	 eax, DWORD PTR [eax]
  000cb	50		 push	 eax
  000cc	e8 00 00 00 00	 call	 ?_Left@?$_Tree@V?$_Tmap_traits@PAUHWND__@@UCWndData@@U?$less@PAUHWND__@@@std@@V?$allocator@U?$pair@QAUHWND__@@UCWndData@@@std@@@4@$0A@@std@@@std@@KAAAPAU_Node@?$_Tree_nod@V?$_Tmap_traits@PAUHWND__@@UCWndData@@U?$less@PAUHWND__@@@std@@V?$allocator@U?$pair@QAUHWND__@@UCWndData@@@std@@@4@$0A@@std@@@2@PAU342@@Z ; std::_Tree<std::_Tmap_traits<HWND__ *,CWndData,std::less<HWND__ *>,std::allocator<std::pair<HWND__ * const,CWndData> >,0> >::_Left
  000d1	83 c4 04	 add	 esp, 4
  000d4	8b 4d 08	 mov	 ecx, DWORD PTR __Wherenode$[ebp]
  000d7	3b 08		 cmp	 ecx, DWORD PTR [eax]
  000d9	75 1e		 jne	 SHORT $L190872

; 1025 : 			_Left(_Parent(_Wherenode)) = _Pnode;

  000db	8b 55 08	 mov	 edx, DWORD PTR __Wherenode$[ebp]
  000de	52		 push	 edx
  000df	e8 00 00 00 00	 call	 ?_Parent@?$_Tree@V?$_Tmap_traits@PAUHWND__@@UCWndData@@U?$less@PAUHWND__@@@std@@V?$allocator@U?$pair@QAUHWND__@@UCWndData@@@std@@@4@$0A@@std@@@std@@KAAAPAU_Node@?$_Tree_nod@V?$_Tmap_traits@PAUHWND__@@UCWndData@@U?$less@PAUHWND__@@@std@@V?$allocator@U?$pair@QAUHWND__@@UCWndData@@@std@@@4@$0A@@std@@@2@PAU342@@Z ; std::_Tree<std::_Tmap_traits<HWND__ *,CWndData,std::less<HWND__ *>,std::allocator<std::pair<HWND__ * const,CWndData> >,0> >::_Parent
  000e4	83 c4 04	 add	 esp, 4
  000e7	8b 00		 mov	 eax, DWORD PTR [eax]
  000e9	50		 push	 eax
  000ea	e8 00 00 00 00	 call	 ?_Left@?$_Tree@V?$_Tmap_traits@PAUHWND__@@UCWndData@@U?$less@PAUHWND__@@@std@@V?$allocator@U?$pair@QAUHWND__@@UCWndData@@@std@@@4@$0A@@std@@@std@@KAAAPAU_Node@?$_Tree_nod@V?$_Tmap_traits@PAUHWND__@@UCWndData@@U?$less@PAUHWND__@@@std@@V?$allocator@U?$pair@QAUHWND__@@UCWndData@@@std@@@4@$0A@@std@@@2@PAU342@@Z ; std::_Tree<std::_Tmap_traits<HWND__ *,CWndData,std::less<HWND__ *>,std::allocator<std::pair<HWND__ * const,CWndData> >,0> >::_Left
  000ef	83 c4 04	 add	 esp, 4
  000f2	8b 4d f8	 mov	 ecx, DWORD PTR __Pnode$[ebp]
  000f5	89 08		 mov	 DWORD PTR [eax], ecx

; 1026 : 		else

  000f7	eb 1c		 jmp	 SHORT $L190871
$L190872:

; 1027 : 			_Right(_Parent(_Wherenode)) = _Pnode;

  000f9	8b 55 08	 mov	 edx, DWORD PTR __Wherenode$[ebp]
  000fc	52		 push	 edx
  000fd	e8 00 00 00 00	 call	 ?_Parent@?$_Tree@V?$_Tmap_traits@PAUHWND__@@UCWndData@@U?$less@PAUHWND__@@@std@@V?$allocator@U?$pair@QAUHWND__@@UCWndData@@@std@@@4@$0A@@std@@@std@@KAAAPAU_Node@?$_Tree_nod@V?$_Tmap_traits@PAUHWND__@@UCWndData@@U?$less@PAUHWND__@@@std@@V?$allocator@U?$pair@QAUHWND__@@UCWndData@@@std@@@4@$0A@@std@@@2@PAU342@@Z ; std::_Tree<std::_Tmap_traits<HWND__ *,CWndData,std::less<HWND__ *>,std::allocator<std::pair<HWND__ * const,CWndData> >,0> >::_Parent
  00102	83 c4 04	 add	 esp, 4
  00105	8b 00		 mov	 eax, DWORD PTR [eax]
  00107	50		 push	 eax
  00108	e8 00 00 00 00	 call	 ?_Right@?$_Tree@V?$_Tmap_traits@PAUHWND__@@UCWndData@@U?$less@PAUHWND__@@@std@@V?$allocator@U?$pair@QAUHWND__@@UCWndData@@@std@@@4@$0A@@std@@@std@@KAAAPAU_Node@?$_Tree_nod@V?$_Tmap_traits@PAUHWND__@@UCWndData@@U?$less@PAUHWND__@@@std@@V?$allocator@U?$pair@QAUHWND__@@UCWndData@@@std@@@4@$0A@@std@@@2@PAU342@@Z ; std::_Tree<std::_Tmap_traits<HWND__ *,CWndData,std::less<HWND__ *>,std::allocator<std::pair<HWND__ * const,CWndData> >,0> >::_Right
  0010d	83 c4 04	 add	 esp, 4
  00110	8b 4d f8	 mov	 ecx, DWORD PTR __Pnode$[ebp]
  00113	89 08		 mov	 DWORD PTR [eax], ecx
$L190871:

; 1028 : 
; 1029 : 		_Left(_Pnode) = _Wherenode;

  00115	8b 55 f8	 mov	 edx, DWORD PTR __Pnode$[ebp]
  00118	52		 push	 edx
  00119	e8 00 00 00 00	 call	 ?_Left@?$_Tree@V?$_Tmap_traits@PAUHWND__@@UCWndData@@U?$less@PAUHWND__@@@std@@V?$allocator@U?$pair@QAUHWND__@@UCWndData@@@std@@@4@$0A@@std@@@std@@KAAAPAU_Node@?$_Tree_nod@V?$_Tmap_traits@PAUHWND__@@UCWndData@@U?$less@PAUHWND__@@@std@@V?$allocator@U?$pair@QAUHWND__@@UCWndData@@@std@@@4@$0A@@std@@@2@PAU342@@Z ; std::_Tree<std::_Tmap_traits<HWND__ *,CWndData,std::less<HWND__ *>,std::allocator<std::pair<HWND__ * const,CWndData> >,0> >::_Left
  0011e	83 c4 04	 add	 esp, 4
  00121	8b 4d 08	 mov	 ecx, DWORD PTR __Wherenode$[ebp]
  00124	89 08		 mov	 DWORD PTR [eax], ecx

; 1030 : 		_Parent(_Wherenode) = _Pnode;

  00126	8b 55 08	 mov	 edx, DWORD PTR __Wherenode$[ebp]
  00129	52		 push	 edx
  0012a	e8 00 00 00 00	 call	 ?_Parent@?$_Tree@V?$_Tmap_traits@PAUHWND__@@UCWndData@@U?$less@PAUHWND__@@@std@@V?$allocator@U?$pair@QAUHWND__@@UCWndData@@@std@@@4@$0A@@std@@@std@@KAAAPAU_Node@?$_Tree_nod@V?$_Tmap_traits@PAUHWND__@@UCWndData@@U?$less@PAUHWND__@@@std@@V?$allocator@U?$pair@QAUHWND__@@UCWndData@@@std@@@4@$0A@@std@@@2@PAU342@@Z ; std::_Tree<std::_Tmap_traits<HWND__ *,CWndData,std::less<HWND__ *>,std::allocator<std::pair<HWND__ * const,CWndData> >,0> >::_Parent
  0012f	83 c4 04	 add	 esp, 4
  00132	8b 4d f8	 mov	 ecx, DWORD PTR __Pnode$[ebp]
  00135	89 08		 mov	 DWORD PTR [eax], ecx

; 1031 : 		}

  00137	5e		 pop	 esi
  00138	83 c4 08	 add	 esp, 8
  0013b	3b ec		 cmp	 ebp, esp
  0013d	e8 00 00 00 00	 call	 __RTC_CheckEsp
  00142	8b e5		 mov	 esp, ebp
  00144	5d		 pop	 ebp
  00145	c2 04 00	 ret	 4
?_Lrotate@?$_Tree@V?$_Tmap_traits@PAUHWND__@@UCWndData@@U?$less@PAUHWND__@@@std@@V?$allocator@U?$pair@QAUHWND__@@UCWndData@@@std@@@4@$0A@@std@@@std@@IAEXPAU_Node@?$_Tree_nod@V?$_Tmap_traits@PAUHWND__@@UCWndData@@U?$less@PAUHWND__@@@std@@V?$allocator@U?$pair@QAUHWND__@@UCWndData@@@std@@@4@$0A@@std@@@2@@Z ENDP ; std::_Tree<std::_Tmap_traits<HWND__ *,CWndData,std::less<HWND__ *>,std::allocator<std::pair<HWND__ * const,CWndData> >,0> >::_Lrotate
; Function compile flags: /Odt /RTCsu
_TEXT	ENDS
;	COMDAT ?_Root@?$_Tree@V?$_Tmap_traits@PAUHWND__@@UCWndData@@U?$less@PAUHWND__@@@std@@V?$allocator@U?$pair@QAUHWND__@@UCWndData@@@std@@@4@$0A@@std@@@std@@IAEAAPAU_Node@?$_Tree_nod@V?$_Tmap_traits@PAUHWND__@@UCWndData@@U?$less@PAUHWND__@@@std@@V?$allocator@U?$pair@QAUHWND__@@UCWndData@@@std@@@4@$0A@@std@@@2@XZ
_TEXT	SEGMENT
_this$ = -4						; size = 4
?_Root@?$_Tree@V?$_Tmap_traits@PAUHWND__@@UCWndData@@U?$less@PAUHWND__@@@std@@V?$allocator@U?$pair@QAUHWND__@@UCWndData@@@std@@@4@$0A@@std@@@std@@IAEAAPAU_Node@?$_Tree_nod@V?$_Tmap_traits@PAUHWND__@@UCWndData@@U?$less@PAUHWND__@@@std@@V?$allocator@U?$pair@QAUHWND__@@UCWndData@@@std@@@4@$0A@@std@@@2@XZ PROC NEAR ; std::_Tree<std::_Tmap_traits<HWND__ *,CWndData,std::less<HWND__ *>,std::allocator<std::pair<HWND__ * const,CWndData> >,0> >::_Root, COMDAT
; _this$ = ecx

; 1058 : 		{	// return root of mutable tree

  00000	55		 push	 ebp
  00001	8b ec		 mov	 ebp, esp
  00003	51		 push	 ecx
  00004	c7 45 fc cc cc
	cc cc		 mov	 DWORD PTR [ebp-4], -858993460 ; ccccccccH
  0000b	89 4d fc	 mov	 DWORD PTR _this$[ebp], ecx

; 1059 : 		return (_Parent(_Myhead));

  0000e	8b 45 fc	 mov	 eax, DWORD PTR _this$[ebp]
  00011	8b 48 04	 mov	 ecx, DWORD PTR [eax+4]
  00014	51		 push	 ecx
  00015	e8 00 00 00 00	 call	 ?_Parent@?$_Tree@V?$_Tmap_traits@PAUHWND__@@UCWndData@@U?$less@PAUHWND__@@@std@@V?$allocator@U?$pair@QAUHWND__@@UCWndData@@@std@@@4@$0A@@std@@@std@@KAAAPAU_Node@?$_Tree_nod@V?$_Tmap_traits@PAUHWND__@@UCWndData@@U?$less@PAUHWND__@@@std@@V?$allocator@U?$pair@QAUHWND__@@UCWndData@@@std@@@4@$0A@@std@@@2@PAU342@@Z ; std::_Tree<std::_Tmap_traits<HWND__ *,CWndData,std::less<HWND__ *>,std::allocator<std::pair<HWND__ * const,CWndData> >,0> >::_Parent
  0001a	83 c4 04	 add	 esp, 4

; 1060 : 		}

  0001d	83 c4 04	 add	 esp, 4
  00020	3b ec		 cmp	 ebp, esp
  00022	e8 00 00 00 00	 call	 __RTC_CheckEsp
  00027	8b e5		 mov	 esp, ebp
  00029	5d		 pop	 ebp
  0002a	c3		 ret	 0
?_Root@?$_Tree@V?$_Tmap_traits@PAUHWND__@@UCWndData@@U?$less@PAUHWND__@@@std@@V?$allocator@U?$pair@QAUHWND__@@UCWndData@@@std@@@4@$0A@@std@@@std@@IAEAAPAU_Node@?$_Tree_nod@V?$_Tmap_traits@PAUHWND__@@UCWndData@@U?$less@PAUHWND__@@@std@@V?$allocator@U?$pair@QAUHWND__@@UCWndData@@@std@@@4@$0A@@std@@@2@XZ ENDP ; std::_Tree<std::_Tmap_traits<HWND__ *,CWndData,std::less<HWND__ *>,std::allocator<std::pair<HWND__ * const,CWndData> >,0> >::_Root
; Function compile flags: /Odt /RTCsu
_TEXT	ENDS
;	COMDAT ?_Root@?$_Tree@V?$_Tmap_traits@PAUHWND__@@UCWndData@@U?$less@PAUHWND__@@@std@@V?$allocator@U?$pair@QAUHWND__@@UCWndData@@@std@@@4@$0A@@std@@@std@@IBEAAPAU_Node@?$_Tree_nod@V?$_Tmap_traits@PAUHWND__@@UCWndData@@U?$less@PAUHWND__@@@std@@V?$allocator@U?$pair@QAUHWND__@@UCWndData@@@std@@@4@$0A@@std@@@2@XZ
_TEXT	SEGMENT
_this$ = -4						; size = 4
?_Root@?$_Tree@V?$_Tmap_traits@PAUHWND__@@UCWndData@@U?$less@PAUHWND__@@@std@@V?$allocator@U?$pair@QAUHWND__@@UCWndData@@@std@@@4@$0A@@std@@@std@@IBEAAPAU_Node@?$_Tree_nod@V?$_Tmap_traits@PAUHWND__@@UCWndData@@U?$less@PAUHWND__@@@std@@V?$allocator@U?$pair@QAUHWND__@@UCWndData@@@std@@@4@$0A@@std@@@2@XZ PROC NEAR ; std::_Tree<std::_Tmap_traits<HWND__ *,CWndData,std::less<HWND__ *>,std::allocator<std::pair<HWND__ * const,CWndData> >,0> >::_Root, COMDAT
; _this$ = ecx

; 1063 : 		{	// return root of nonmutable tree

  00000	55		 push	 ebp
  00001	8b ec		 mov	 ebp, esp
  00003	51		 push	 ecx
  00004	c7 45 fc cc cc
	cc cc		 mov	 DWORD PTR [ebp-4], -858993460 ; ccccccccH
  0000b	89 4d fc	 mov	 DWORD PTR _this$[ebp], ecx

; 1064 : 		return (_Parent(_Myhead));

  0000e	8b 45 fc	 mov	 eax, DWORD PTR _this$[ebp]
  00011	8b 48 04	 mov	 ecx, DWORD PTR [eax+4]
  00014	51		 push	 ecx
  00015	e8 00 00 00 00	 call	 ?_Parent@?$_Tree@V?$_Tmap_traits@PAUHWND__@@UCWndData@@U?$less@PAUHWND__@@@std@@V?$allocator@U?$pair@QAUHWND__@@UCWndData@@@std@@@4@$0A@@std@@@std@@KAAAPAU_Node@?$_Tree_nod@V?$_Tmap_traits@PAUHWND__@@UCWndData@@U?$less@PAUHWND__@@@std@@V?$allocator@U?$pair@QAUHWND__@@UCWndData@@@std@@@4@$0A@@std@@@2@PAU342@@Z ; std::_Tree<std::_Tmap_traits<HWND__ *,CWndData,std::less<HWND__ *>,std::allocator<std::pair<HWND__ * const,CWndData> >,0> >::_Parent
  0001a	83 c4 04	 add	 esp, 4

; 1065 : 		}

  0001d	83 c4 04	 add	 esp, 4
  00020	3b ec		 cmp	 ebp, esp
  00022	e8 00 00 00 00	 call	 __RTC_CheckEsp
  00027	8b e5		 mov	 esp, ebp
  00029	5d		 pop	 ebp
  0002a	c3		 ret	 0
?_Root@?$_Tree@V?$_Tmap_traits@PAUHWND__@@UCWndData@@U?$less@PAUHWND__@@@std@@V?$allocator@U?$pair@QAUHWND__@@UCWndData@@@std@@@4@$0A@@std@@@std@@IBEAAPAU_Node@?$_Tree_nod@V?$_Tmap_traits@PAUHWND__@@UCWndData@@U?$less@PAUHWND__@@@std@@V?$allocator@U?$pair@QAUHWND__@@UCWndData@@@std@@@4@$0A@@std@@@2@XZ ENDP ; std::_Tree<std::_Tmap_traits<HWND__ *,CWndData,std::less<HWND__ *>,std::allocator<std::pair<HWND__ * const,CWndData> >,0> >::_Root
; Function compile flags: /Odt /RTCsu
_TEXT	ENDS
;	COMDAT ?_Rrotate@?$_Tree@V?$_Tmap_traits@PAUHWND__@@UCWndData@@U?$less@PAUHWND__@@@std@@V?$allocator@U?$pair@QAUHWND__@@UCWndData@@@std@@@4@$0A@@std@@@std@@IAEXPAU_Node@?$_Tree_nod@V?$_Tmap_traits@PAUHWND__@@UCWndData@@U?$less@PAUHWND__@@@std@@V?$allocator@U?$pair@QAUHWND__@@UCWndData@@@std@@@4@$0A@@std@@@2@@Z
_TEXT	SEGMENT
__Pnode$ = -8						; size = 4
_this$ = -4						; size = 4
__Wherenode$ = 8					; size = 4
?_Rrotate@?$_Tree@V?$_Tmap_traits@PAUHWND__@@UCWndData@@U?$less@PAUHWND__@@@std@@V?$allocator@U?$pair@QAUHWND__@@UCWndData@@@std@@@4@$0A@@std@@@std@@IAEXPAU_Node@?$_Tree_nod@V?$_Tmap_traits@PAUHWND__@@UCWndData@@U?$less@PAUHWND__@@@std@@V?$allocator@U?$pair@QAUHWND__@@UCWndData@@@std@@@4@$0A@@std@@@2@@Z PROC NEAR ; std::_Tree<std::_Tmap_traits<HWND__ *,CWndData,std::less<HWND__ *>,std::allocator<std::pair<HWND__ * const,CWndData> >,0> >::_Rrotate, COMDAT
; _this$ = ecx

; 1068 : 		{	// promote left node to root of subtree

  00000	55		 push	 ebp
  00001	8b ec		 mov	 ebp, esp
  00003	83 ec 08	 sub	 esp, 8
  00006	56		 push	 esi
  00007	c7 45 f8 cc cc
	cc cc		 mov	 DWORD PTR [ebp-8], -858993460 ; ccccccccH
  0000e	c7 45 fc cc cc
	cc cc		 mov	 DWORD PTR [ebp-4], -858993460 ; ccccccccH
  00015	89 4d fc	 mov	 DWORD PTR _this$[ebp], ecx

; 1069 : 		_Nodeptr _Pnode = _Left(_Wherenode);

  00018	8b 45 08	 mov	 eax, DWORD PTR __Wherenode$[ebp]
  0001b	50		 push	 eax
  0001c	e8 00 00 00 00	 call	 ?_Left@?$_Tree@V?$_Tmap_traits@PAUHWND__@@UCWndData@@U?$less@PAUHWND__@@@std@@V?$allocator@U?$pair@QAUHWND__@@UCWndData@@@std@@@4@$0A@@std@@@std@@KAAAPAU_Node@?$_Tree_nod@V?$_Tmap_traits@PAUHWND__@@UCWndData@@U?$less@PAUHWND__@@@std@@V?$allocator@U?$pair@QAUHWND__@@UCWndData@@@std@@@4@$0A@@std@@@2@PAU342@@Z ; std::_Tree<std::_Tmap_traits<HWND__ *,CWndData,std::less<HWND__ *>,std::allocator<std::pair<HWND__ * const,CWndData> >,0> >::_Left
  00021	83 c4 04	 add	 esp, 4
  00024	8b 08		 mov	 ecx, DWORD PTR [eax]
  00026	89 4d f8	 mov	 DWORD PTR __Pnode$[ebp], ecx

; 1070 : 		_Left(_Wherenode) = _Right(_Pnode);

  00029	8b 55 f8	 mov	 edx, DWORD PTR __Pnode$[ebp]
  0002c	52		 push	 edx
  0002d	e8 00 00 00 00	 call	 ?_Right@?$_Tree@V?$_Tmap_traits@PAUHWND__@@UCWndData@@U?$less@PAUHWND__@@@std@@V?$allocator@U?$pair@QAUHWND__@@UCWndData@@@std@@@4@$0A@@std@@@std@@KAAAPAU_Node@?$_Tree_nod@V?$_Tmap_traits@PAUHWND__@@UCWndData@@U?$less@PAUHWND__@@@std@@V?$allocator@U?$pair@QAUHWND__@@UCWndData@@@std@@@4@$0A@@std@@@2@PAU342@@Z ; std::_Tree<std::_Tmap_traits<HWND__ *,CWndData,std::less<HWND__ *>,std::allocator<std::pair<HWND__ * const,CWndData> >,0> >::_Right
  00032	83 c4 04	 add	 esp, 4
  00035	8b f0		 mov	 esi, eax
  00037	8b 45 08	 mov	 eax, DWORD PTR __Wherenode$[ebp]
  0003a	50		 push	 eax
  0003b	e8 00 00 00 00	 call	 ?_Left@?$_Tree@V?$_Tmap_traits@PAUHWND__@@UCWndData@@U?$less@PAUHWND__@@@std@@V?$allocator@U?$pair@QAUHWND__@@UCWndData@@@std@@@4@$0A@@std@@@std@@KAAAPAU_Node@?$_Tree_nod@V?$_Tmap_traits@PAUHWND__@@UCWndData@@U?$less@PAUHWND__@@@std@@V?$allocator@U?$pair@QAUHWND__@@UCWndData@@@std@@@4@$0A@@std@@@2@PAU342@@Z ; std::_Tree<std::_Tmap_traits<HWND__ *,CWndData,std::less<HWND__ *>,std::allocator<std::pair<HWND__ * const,CWndData> >,0> >::_Left
  00040	83 c4 04	 add	 esp, 4
  00043	8b 0e		 mov	 ecx, DWORD PTR [esi]
  00045	89 08		 mov	 DWORD PTR [eax], ecx

; 1071 : 
; 1072 : 		if (!_Isnil(_Right(_Pnode)))

  00047	8b 55 f8	 mov	 edx, DWORD PTR __Pnode$[ebp]
  0004a	52		 push	 edx
  0004b	e8 00 00 00 00	 call	 ?_Right@?$_Tree@V?$_Tmap_traits@PAUHWND__@@UCWndData@@U?$less@PAUHWND__@@@std@@V?$allocator@U?$pair@QAUHWND__@@UCWndData@@@std@@@4@$0A@@std@@@std@@KAAAPAU_Node@?$_Tree_nod@V?$_Tmap_traits@PAUHWND__@@UCWndData@@U?$less@PAUHWND__@@@std@@V?$allocator@U?$pair@QAUHWND__@@UCWndData@@@std@@@4@$0A@@std@@@2@PAU342@@Z ; std::_Tree<std::_Tmap_traits<HWND__ *,CWndData,std::less<HWND__ *>,std::allocator<std::pair<HWND__ * const,CWndData> >,0> >::_Right
  00050	83 c4 04	 add	 esp, 4
  00053	8b 00		 mov	 eax, DWORD PTR [eax]
  00055	50		 push	 eax
  00056	e8 00 00 00 00	 call	 ?_Isnil@?$_Tree@V?$_Tmap_traits@PAUHWND__@@UCWndData@@U?$less@PAUHWND__@@@std@@V?$allocator@U?$pair@QAUHWND__@@UCWndData@@@std@@@4@$0A@@std@@@std@@KAAADPAU_Node@?$_Tree_nod@V?$_Tmap_traits@PAUHWND__@@UCWndData@@U?$less@PAUHWND__@@@std@@V?$allocator@U?$pair@QAUHWND__@@UCWndData@@@std@@@4@$0A@@std@@@2@@Z ; std::_Tree<std::_Tmap_traits<HWND__ *,CWndData,std::less<HWND__ *>,std::allocator<std::pair<HWND__ * const,CWndData> >,0> >::_Isnil
  0005b	83 c4 04	 add	 esp, 4
  0005e	0f be 08	 movsx	 ecx, BYTE PTR [eax]
  00061	85 c9		 test	 ecx, ecx
  00063	75 1c		 jne	 SHORT $L190881

; 1073 : 			_Parent(_Right(_Pnode)) = _Wherenode;

  00065	8b 55 f8	 mov	 edx, DWORD PTR __Pnode$[ebp]
  00068	52		 push	 edx
  00069	e8 00 00 00 00	 call	 ?_Right@?$_Tree@V?$_Tmap_traits@PAUHWND__@@UCWndData@@U?$less@PAUHWND__@@@std@@V?$allocator@U?$pair@QAUHWND__@@UCWndData@@@std@@@4@$0A@@std@@@std@@KAAAPAU_Node@?$_Tree_nod@V?$_Tmap_traits@PAUHWND__@@UCWndData@@U?$less@PAUHWND__@@@std@@V?$allocator@U?$pair@QAUHWND__@@UCWndData@@@std@@@4@$0A@@std@@@2@PAU342@@Z ; std::_Tree<std::_Tmap_traits<HWND__ *,CWndData,std::less<HWND__ *>,std::allocator<std::pair<HWND__ * const,CWndData> >,0> >::_Right
  0006e	83 c4 04	 add	 esp, 4
  00071	8b 00		 mov	 eax, DWORD PTR [eax]
  00073	50		 push	 eax
  00074	e8 00 00 00 00	 call	 ?_Parent@?$_Tree@V?$_Tmap_traits@PAUHWND__@@UCWndData@@U?$less@PAUHWND__@@@std@@V?$allocator@U?$pair@QAUHWND__@@UCWndData@@@std@@@4@$0A@@std@@@std@@KAAAPAU_Node@?$_Tree_nod@V?$_Tmap_traits@PAUHWND__@@UCWndData@@U?$less@PAUHWND__@@@std@@V?$allocator@U?$pair@QAUHWND__@@UCWndData@@@std@@@4@$0A@@std@@@2@PAU342@@Z ; std::_Tree<std::_Tmap_traits<HWND__ *,CWndData,std::less<HWND__ *>,std::allocator<std::pair<HWND__ * const,CWndData> >,0> >::_Parent
  00079	83 c4 04	 add	 esp, 4
  0007c	8b 4d 08	 mov	 ecx, DWORD PTR __Wherenode$[ebp]
  0007f	89 08		 mov	 DWORD PTR [eax], ecx
$L190881:

; 1074 : 		_Parent(_Pnode) = _Parent(_Wherenode);

  00081	8b 55 08	 mov	 edx, DWORD PTR __Wherenode$[ebp]
  00084	52		 push	 edx
  00085	e8 00 00 00 00	 call	 ?_Parent@?$_Tree@V?$_Tmap_traits@PAUHWND__@@UCWndData@@U?$less@PAUHWND__@@@std@@V?$allocator@U?$pair@QAUHWND__@@UCWndData@@@std@@@4@$0A@@std@@@std@@KAAAPAU_Node@?$_Tree_nod@V?$_Tmap_traits@PAUHWND__@@UCWndData@@U?$less@PAUHWND__@@@std@@V?$allocator@U?$pair@QAUHWND__@@UCWndData@@@std@@@4@$0A@@std@@@2@PAU342@@Z ; std::_Tree<std::_Tmap_traits<HWND__ *,CWndData,std::less<HWND__ *>,std::allocator<std::pair<HWND__ * const,CWndData> >,0> >::_Parent
  0008a	83 c4 04	 add	 esp, 4
  0008d	8b f0		 mov	 esi, eax
  0008f	8b 45 f8	 mov	 eax, DWORD PTR __Pnode$[ebp]
  00092	50		 push	 eax
  00093	e8 00 00 00 00	 call	 ?_Parent@?$_Tree@V?$_Tmap_traits@PAUHWND__@@UCWndData@@U?$less@PAUHWND__@@@std@@V?$allocator@U?$pair@QAUHWND__@@UCWndData@@@std@@@4@$0A@@std@@@std@@KAAAPAU_Node@?$_Tree_nod@V?$_Tmap_traits@PAUHWND__@@UCWndData@@U?$less@PAUHWND__@@@std@@V?$allocator@U?$pair@QAUHWND__@@UCWndData@@@std@@@4@$0A@@std@@@2@PAU342@@Z ; std::_Tree<std::_Tmap_traits<HWND__ *,CWndData,std::less<HWND__ *>,std::allocator<std::pair<HWND__ * const,CWndData> >,0> >::_Parent
  00098	83 c4 04	 add	 esp, 4
  0009b	8b 0e		 mov	 ecx, DWORD PTR [esi]
  0009d	89 08		 mov	 DWORD PTR [eax], ecx

; 1075 : 
; 1076 : 		if (_Wherenode == _Root())

  0009f	8b 4d fc	 mov	 ecx, DWORD PTR _this$[ebp]
  000a2	e8 00 00 00 00	 call	 ?_Root@?$_Tree@V?$_Tmap_traits@PAUHWND__@@UCWndData@@U?$less@PAUHWND__@@@std@@V?$allocator@U?$pair@QAUHWND__@@UCWndData@@@std@@@4@$0A@@std@@@std@@IAEAAPAU_Node@?$_Tree_nod@V?$_Tmap_traits@PAUHWND__@@UCWndData@@U?$less@PAUHWND__@@@std@@V?$allocator@U?$pair@QAUHWND__@@UCWndData@@@std@@@4@$0A@@std@@@2@XZ ; std::_Tree<std::_Tmap_traits<HWND__ *,CWndData,std::less<HWND__ *>,std::allocator<std::pair<HWND__ * const,CWndData> >,0> >::_Root
  000a7	8b 55 08	 mov	 edx, DWORD PTR __Wherenode$[ebp]
  000aa	3b 10		 cmp	 edx, DWORD PTR [eax]
  000ac	75 0f		 jne	 SHORT $L190882

; 1077 : 			_Root() = _Pnode;

  000ae	8b 4d fc	 mov	 ecx, DWORD PTR _this$[ebp]
  000b1	e8 00 00 00 00	 call	 ?_Root@?$_Tree@V?$_Tmap_traits@PAUHWND__@@UCWndData@@U?$less@PAUHWND__@@@std@@V?$allocator@U?$pair@QAUHWND__@@UCWndData@@@std@@@4@$0A@@std@@@std@@IAEAAPAU_Node@?$_Tree_nod@V?$_Tmap_traits@PAUHWND__@@UCWndData@@U?$less@PAUHWND__@@@std@@V?$allocator@U?$pair@QAUHWND__@@UCWndData@@@std@@@4@$0A@@std@@@2@XZ ; std::_Tree<std::_Tmap_traits<HWND__ *,CWndData,std::less<HWND__ *>,std::allocator<std::pair<HWND__ * const,CWndData> >,0> >::_Root
  000b6	8b 4d f8	 mov	 ecx, DWORD PTR __Pnode$[ebp]
  000b9	89 08		 mov	 DWORD PTR [eax], ecx

; 1078 : 		else if (_Wherenode == _Right(_Parent(_Wherenode)))

  000bb	eb 58		 jmp	 SHORT $L190883
$L190882:
  000bd	8b 55 08	 mov	 edx, DWORD PTR __Wherenode$[ebp]
  000c0	52		 push	 edx
  000c1	e8 00 00 00 00	 call	 ?_Parent@?$_Tree@V?$_Tmap_traits@PAUHWND__@@UCWndData@@U?$less@PAUHWND__@@@std@@V?$allocator@U?$pair@QAUHWND__@@UCWndData@@@std@@@4@$0A@@std@@@std@@KAAAPAU_Node@?$_Tree_nod@V?$_Tmap_traits@PAUHWND__@@UCWndData@@U?$less@PAUHWND__@@@std@@V?$allocator@U?$pair@QAUHWND__@@UCWndData@@@std@@@4@$0A@@std@@@2@PAU342@@Z ; std::_Tree<std::_Tmap_traits<HWND__ *,CWndData,std::less<HWND__ *>,std::allocator<std::pair<HWND__ * const,CWndData> >,0> >::_Parent
  000c6	83 c4 04	 add	 esp, 4
  000c9	8b 00		 mov	 eax, DWORD PTR [eax]
  000cb	50		 push	 eax
  000cc	e8 00 00 00 00	 call	 ?_Right@?$_Tree@V?$_Tmap_traits@PAUHWND__@@UCWndData@@U?$less@PAUHWND__@@@std@@V?$allocator@U?$pair@QAUHWND__@@UCWndData@@@std@@@4@$0A@@std@@@std@@KAAAPAU_Node@?$_Tree_nod@V?$_Tmap_traits@PAUHWND__@@UCWndData@@U?$less@PAUHWND__@@@std@@V?$allocator@U?$pair@QAUHWND__@@UCWndData@@@std@@@4@$0A@@std@@@2@PAU342@@Z ; std::_Tree<std::_Tmap_traits<HWND__ *,CWndData,std::less<HWND__ *>,std::allocator<std::pair<HWND__ * const,CWndData> >,0> >::_Right
  000d1	83 c4 04	 add	 esp, 4
  000d4	8b 4d 08	 mov	 ecx, DWORD PTR __Wherenode$[ebp]
  000d7	3b 08		 cmp	 ecx, DWORD PTR [eax]
  000d9	75 1e		 jne	 SHORT $L190884

; 1079 : 			_Right(_Parent(_Wherenode)) = _Pnode;

  000db	8b 55 08	 mov	 edx, DWORD PTR __Wherenode$[ebp]
  000de	52		 push	 edx
  000df	e8 00 00 00 00	 call	 ?_Parent@?$_Tree@V?$_Tmap_traits@PAUHWND__@@UCWndData@@U?$less@PAUHWND__@@@std@@V?$allocator@U?$pair@QAUHWND__@@UCWndData@@@std@@@4@$0A@@std@@@std@@KAAAPAU_Node@?$_Tree_nod@V?$_Tmap_traits@PAUHWND__@@UCWndData@@U?$less@PAUHWND__@@@std@@V?$allocator@U?$pair@QAUHWND__@@UCWndData@@@std@@@4@$0A@@std@@@2@PAU342@@Z ; std::_Tree<std::_Tmap_traits<HWND__ *,CWndData,std::less<HWND__ *>,std::allocator<std::pair<HWND__ * const,CWndData> >,0> >::_Parent
  000e4	83 c4 04	 add	 esp, 4
  000e7	8b 00		 mov	 eax, DWORD PTR [eax]
  000e9	50		 push	 eax
  000ea	e8 00 00 00 00	 call	 ?_Right@?$_Tree@V?$_Tmap_traits@PAUHWND__@@UCWndData@@U?$less@PAUHWND__@@@std@@V?$allocator@U?$pair@QAUHWND__@@UCWndData@@@std@@@4@$0A@@std@@@std@@KAAAPAU_Node@?$_Tree_nod@V?$_Tmap_traits@PAUHWND__@@UCWndData@@U?$less@PAUHWND__@@@std@@V?$allocator@U?$pair@QAUHWND__@@UCWndData@@@std@@@4@$0A@@std@@@2@PAU342@@Z ; std::_Tree<std::_Tmap_traits<HWND__ *,CWndData,std::less<HWND__ *>,std::allocator<std::pair<HWND__ * const,CWndData> >,0> >::_Right
  000ef	83 c4 04	 add	 esp, 4
  000f2	8b 4d f8	 mov	 ecx, DWORD PTR __Pnode$[ebp]
  000f5	89 08		 mov	 DWORD PTR [eax], ecx

; 1080 : 		else

  000f7	eb 1c		 jmp	 SHORT $L190883
$L190884:

; 1081 : 			_Left(_Parent(_Wherenode)) = _Pnode;

  000f9	8b 55 08	 mov	 edx, DWORD PTR __Wherenode$[ebp]
  000fc	52		 push	 edx
  000fd	e8 00 00 00 00	 call	 ?_Parent@?$_Tree@V?$_Tmap_traits@PAUHWND__@@UCWndData@@U?$less@PAUHWND__@@@std@@V?$allocator@U?$pair@QAUHWND__@@UCWndData@@@std@@@4@$0A@@std@@@std@@KAAAPAU_Node@?$_Tree_nod@V?$_Tmap_traits@PAUHWND__@@UCWndData@@U?$less@PAUHWND__@@@std@@V?$allocator@U?$pair@QAUHWND__@@UCWndData@@@std@@@4@$0A@@std@@@2@PAU342@@Z ; std::_Tree<std::_Tmap_traits<HWND__ *,CWndData,std::less<HWND__ *>,std::allocator<std::pair<HWND__ * const,CWndData> >,0> >::_Parent
  00102	83 c4 04	 add	 esp, 4
  00105	8b 00		 mov	 eax, DWORD PTR [eax]
  00107	50		 push	 eax
  00108	e8 00 00 00 00	 call	 ?_Left@?$_Tree@V?$_Tmap_traits@PAUHWND__@@UCWndData@@U?$less@PAUHWND__@@@std@@V?$allocator@U?$pair@QAUHWND__@@UCWndData@@@std@@@4@$0A@@std@@@std@@KAAAPAU_Node@?$_Tree_nod@V?$_Tmap_traits@PAUHWND__@@UCWndData@@U?$less@PAUHWND__@@@std@@V?$allocator@U?$pair@QAUHWND__@@UCWndData@@@std@@@4@$0A@@std@@@2@PAU342@@Z ; std::_Tree<std::_Tmap_traits<HWND__ *,CWndData,std::less<HWND__ *>,std::allocator<std::pair<HWND__ * const,CWndData> >,0> >::_Left
  0010d	83 c4 04	 add	 esp, 4
  00110	8b 4d f8	 mov	 ecx, DWORD PTR __Pnode$[ebp]
  00113	89 08		 mov	 DWORD PTR [eax], ecx
$L190883:

; 1082 : 
; 1083 : 		_Right(_Pnode) = _Wherenode;

  00115	8b 55 f8	 mov	 edx, DWORD PTR __Pnode$[ebp]
  00118	52		 push	 edx
  00119	e8 00 00 00 00	 call	 ?_Right@?$_Tree@V?$_Tmap_traits@PAUHWND__@@UCWndData@@U?$less@PAUHWND__@@@std@@V?$allocator@U?$pair@QAUHWND__@@UCWndData@@@std@@@4@$0A@@std@@@std@@KAAAPAU_Node@?$_Tree_nod@V?$_Tmap_traits@PAUHWND__@@UCWndData@@U?$less@PAUHWND__@@@std@@V?$allocator@U?$pair@QAUHWND__@@UCWndData@@@std@@@4@$0A@@std@@@2@PAU342@@Z ; std::_Tree<std::_Tmap_traits<HWND__ *,CWndData,std::less<HWND__ *>,std::allocator<std::pair<HWND__ * const,CWndData> >,0> >::_Right
  0011e	83 c4 04	 add	 esp, 4
  00121	8b 4d 08	 mov	 ecx, DWORD PTR __Wherenode$[ebp]
  00124	89 08		 mov	 DWORD PTR [eax], ecx

; 1084 : 		_Parent(_Wherenode) = _Pnode;

  00126	8b 55 08	 mov	 edx, DWORD PTR __Wherenode$[ebp]
  00129	52		 push	 edx
  0012a	e8 00 00 00 00	 call	 ?_Parent@?$_Tree@V?$_Tmap_traits@PAUHWND__@@UCWndData@@U?$less@PAUHWND__@@@std@@V?$allocator@U?$pair@QAUHWND__@@UCWndData@@@std@@@4@$0A@@std@@@std@@KAAAPAU_Node@?$_Tree_nod@V?$_Tmap_traits@PAUHWND__@@UCWndData@@U?$less@PAUHWND__@@@std@@V?$allocator@U?$pair@QAUHWND__@@UCWndData@@@std@@@4@$0A@@std@@@2@PAU342@@Z ; std::_Tree<std::_Tmap_traits<HWND__ *,CWndData,std::less<HWND__ *>,std::allocator<std::pair<HWND__ * const,CWndData> >,0> >::_Parent
  0012f	83 c4 04	 add	 esp, 4
  00132	8b 4d f8	 mov	 ecx, DWORD PTR __Pnode$[ebp]
  00135	89 08		 mov	 DWORD PTR [eax], ecx

; 1085 : 		}

  00137	5e		 pop	 esi
  00138	83 c4 08	 add	 esp, 8
  0013b	3b ec		 cmp	 ebp, esp
  0013d	e8 00 00 00 00	 call	 __RTC_CheckEsp
  00142	8b e5		 mov	 esp, ebp
  00144	5d		 pop	 ebp
  00145	c2 04 00	 ret	 4
?_Rrotate@?$_Tree@V?$_Tmap_traits@PAUHWND__@@UCWndData@@U?$less@PAUHWND__@@@std@@V?$allocator@U?$pair@QAUHWND__@@UCWndData@@@std@@@4@$0A@@std@@@std@@IAEXPAU_Node@?$_Tree_nod@V?$_Tmap_traits@PAUHWND__@@UCWndData@@U?$less@PAUHWND__@@@std@@V?$allocator@U?$pair@QAUHWND__@@UCWndData@@@std@@@4@$0A@@std@@@2@@Z ENDP ; std::_Tree<std::_Tmap_traits<HWND__ *,CWndData,std::less<HWND__ *>,std::allocator<std::pair<HWND__ * const,CWndData> >,0> >::_Rrotate
_TEXT	ENDS
PUBLIC	?allocate@?$allocator@U_Node@?$_Tree_nod@V?$_Tmap_traits@PAUHWND__@@UCWndData@@U?$less@PAUHWND__@@@std@@V?$allocator@U?$pair@QAUHWND__@@UCWndData@@@std@@@4@$0A@@std@@@std@@@std@@QAEPAU_Node@?$_Tree_nod@V?$_Tmap_traits@PAUHWND__@@UCWndData@@U?$less@PAUHWND__@@@std@@V?$allocator@U?$pair@QAUHWND__@@UCWndData@@@std@@@4@$0A@@std@@@2@I@Z ; std::allocator<std::_Tree_nod<std::_Tmap_traits<HWND__ *,CWndData,std::less<HWND__ *>,std::allocator<std::pair<HWND__ * const,CWndData> >,0> >::_Node>::allocate
PUBLIC	?construct@?$allocator@PAU_Node@?$_Tree_nod@V?$_Tmap_traits@PAUHWND__@@UCWndData@@U?$less@PAUHWND__@@@std@@V?$allocator@U?$pair@QAUHWND__@@UCWndData@@@std@@@4@$0A@@std@@@std@@@std@@QAEXPAPAU_Node@?$_Tree_nod@V?$_Tmap_traits@PAUHWND__@@UCWndData@@U?$less@PAUHWND__@@@std@@V?$allocator@U?$pair@QAUHWND__@@UCWndData@@@std@@@4@$0A@@std@@@2@ABQAU342@@Z ; std::allocator<std::_Tree_nod<std::_Tmap_traits<HWND__ *,CWndData,std::less<HWND__ *>,std::allocator<std::pair<HWND__ * const,CWndData> >,0> >::_Node *>::construct
;	COMDAT xdata$x
xdata$x	SEGMENT
$T192542 DD	0ffffffffH
	DD	00H
	DD	0ffffffffH
	DD	00H
$T192544 DD	00H
	DD	00H
	DD	00H
	DD	FLAT:$L192538
$T192543 DD	00H
	DD	00H
	DD	01H
	DD	01H
	DD	FLAT:$T192544
$T192540 DD	019930520H
	DD	02H
	DD	FLAT:$T192542
	DD	01H
	DD	FLAT:$T192543
	DD	2 DUP(00H)
; Function compile flags: /Odt /RTCsu
xdata$x	ENDS
;	COMDAT ?_Buynode@?$_Tree@V?$_Tmap_traits@PAUHWND__@@UCWndData@@U?$less@PAUHWND__@@@std@@V?$allocator@U?$pair@QAUHWND__@@UCWndData@@@std@@@4@$0A@@std@@@std@@IAEPAU_Node@?$_Tree_nod@V?$_Tmap_traits@PAUHWND__@@UCWndData@@U?$less@PAUHWND__@@@std@@V?$allocator@U?$pair@QAUHWND__@@UCWndData@@@std@@@4@$0A@@std@@@2@XZ
_TEXT	SEGMENT
tv145 = -52						; size = 4
tv144 = -48						; size = 4
tv143 = -44						; size = 4
$T192536 = -40						; size = 4
$T192535 = -36						; size = 4
$T192534 = -32						; size = 4
__Linkcnt$ = -28					; size = 4
__Wherenode$ = -24					; size = 4
_this$ = -20						; size = 4
__$EHRec$ = -16						; size = 16
?_Buynode@?$_Tree@V?$_Tmap_traits@PAUHWND__@@UCWndData@@U?$less@PAUHWND__@@@std@@V?$allocator@U?$pair@QAUHWND__@@UCWndData@@@std@@@4@$0A@@std@@@std@@IAEPAU_Node@?$_Tree_nod@V?$_Tmap_traits@PAUHWND__@@UCWndData@@U?$less@PAUHWND__@@@std@@V?$allocator@U?$pair@QAUHWND__@@UCWndData@@@std@@@4@$0A@@std@@@2@XZ PROC NEAR ; std::_Tree<std::_Tmap_traits<HWND__ *,CWndData,std::less<HWND__ *>,std::allocator<std::pair<HWND__ * const,CWndData> >,0> >::_Buynode, COMDAT
; _this$ = ecx

; 1105 : 		{	// allocate a head/nil node

  00000	55		 push	 ebp
  00001	8b ec		 mov	 ebp, esp
  00003	6a ff		 push	 -1
  00005	68 00 00 00 00	 push	 __ehhandler$?_Buynode@?$_Tree@V?$_Tmap_traits@PAUHWND__@@UCWndData@@U?$less@PAUHWND__@@@std@@V?$allocator@U?$pair@QAUHWND__@@UCWndData@@@std@@@4@$0A@@std@@@std@@IAEPAU_Node@?$_Tree_nod@V?$_Tmap_traits@PAUHWND__@@UCWndData@@U?$less@PAUHWND__@@@std@@V?$allocator@U?$pair@QAUHWND__@@UCWndData@@@std@@@4@$0A@@std@@@2@XZ
  0000a	64 a1 00 00 00
	00		 mov	 eax, DWORD PTR fs:__except_list
  00010	50		 push	 eax
  00011	64 89 25 00 00
	00 00		 mov	 DWORD PTR fs:__except_list, esp
  00018	51		 push	 ecx
  00019	83 ec 24	 sub	 esp, 36			; 00000024H
  0001c	53		 push	 ebx
  0001d	56		 push	 esi
  0001e	57		 push	 edi
  0001f	b8 cc cc cc cc	 mov	 eax, -858993460		; ccccccccH
  00024	89 45 cc	 mov	 DWORD PTR [ebp-52], eax
  00027	89 45 d0	 mov	 DWORD PTR [ebp-48], eax
  0002a	89 45 d4	 mov	 DWORD PTR [ebp-44], eax
  0002d	89 45 d8	 mov	 DWORD PTR [ebp-40], eax
  00030	89 45 dc	 mov	 DWORD PTR [ebp-36], eax
  00033	89 45 e0	 mov	 DWORD PTR [ebp-32], eax
  00036	89 45 e4	 mov	 DWORD PTR [ebp-28], eax
  00039	89 45 e8	 mov	 DWORD PTR [ebp-24], eax
  0003c	89 45 ec	 mov	 DWORD PTR [ebp-20], eax
  0003f	89 65 f0	 mov	 DWORD PTR __$EHRec$[ebp], esp
  00042	89 4d ec	 mov	 DWORD PTR _this$[ebp], ecx

; 1106 : 		_Nodeptr _Wherenode = this->_Alnod.allocate(1);

  00045	6a 01		 push	 1
  00047	8b 4d ec	 mov	 ecx, DWORD PTR _this$[ebp]
  0004a	83 c1 01	 add	 ecx, 1
  0004d	e8 00 00 00 00	 call	 ?allocate@?$allocator@U_Node@?$_Tree_nod@V?$_Tmap_traits@PAUHWND__@@UCWndData@@U?$less@PAUHWND__@@@std@@V?$allocator@U?$pair@QAUHWND__@@UCWndData@@@std@@@4@$0A@@std@@@std@@@std@@QAEPAU_Node@?$_Tree_nod@V?$_Tmap_traits@PAUHWND__@@UCWndData@@U?$less@PAUHWND__@@@std@@V?$allocator@U?$pair@QAUHWND__@@UCWndData@@@std@@@4@$0A@@std@@@2@I@Z ; std::allocator<std::_Tree_nod<std::_Tmap_traits<HWND__ *,CWndData,std::less<HWND__ *>,std::allocator<std::pair<HWND__ * const,CWndData> >,0> >::_Node>::allocate
  00052	89 45 e8	 mov	 DWORD PTR __Wherenode$[ebp], eax

; 1107 : 		int _Linkcnt = 0;

  00055	c7 45 e4 00 00
	00 00		 mov	 DWORD PTR __Linkcnt$[ebp], 0

; 1108 : 
; 1109 : 		_TRY_BEGIN

  0005c	c7 45 fc 00 00
	00 00		 mov	 DWORD PTR __$EHRec$[ebp+12], 0

; 1110 : 		this->_Alptr.construct(&_Left(_Wherenode), 0);

  00063	c7 45 e0 00 00
	00 00		 mov	 DWORD PTR $T192534[ebp], 0
  0006a	8b 45 e8	 mov	 eax, DWORD PTR __Wherenode$[ebp]
  0006d	50		 push	 eax
  0006e	e8 00 00 00 00	 call	 ?_Left@?$_Tree@V?$_Tmap_traits@PAUHWND__@@UCWndData@@U?$less@PAUHWND__@@@std@@V?$allocator@U?$pair@QAUHWND__@@UCWndData@@@std@@@4@$0A@@std@@@std@@KAAAPAU_Node@?$_Tree_nod@V?$_Tmap_traits@PAUHWND__@@UCWndData@@U?$less@PAUHWND__@@@std@@V?$allocator@U?$pair@QAUHWND__@@UCWndData@@@std@@@4@$0A@@std@@@2@PAU342@@Z ; std::_Tree<std::_Tmap_traits<HWND__ *,CWndData,std::less<HWND__ *>,std::allocator<std::pair<HWND__ * const,CWndData> >,0> >::_Left
  00073	83 c4 04	 add	 esp, 4
  00076	89 45 d4	 mov	 DWORD PTR tv143[ebp], eax
  00079	8d 4d e0	 lea	 ecx, DWORD PTR $T192534[ebp]
  0007c	51		 push	 ecx
  0007d	8b 55 d4	 mov	 edx, DWORD PTR tv143[ebp]
  00080	52		 push	 edx
  00081	8b 4d ec	 mov	 ecx, DWORD PTR _this$[ebp]
  00084	83 c1 02	 add	 ecx, 2
  00087	e8 00 00 00 00	 call	 ?construct@?$allocator@PAU_Node@?$_Tree_nod@V?$_Tmap_traits@PAUHWND__@@UCWndData@@U?$less@PAUHWND__@@@std@@V?$allocator@U?$pair@QAUHWND__@@UCWndData@@@std@@@4@$0A@@std@@@std@@@std@@QAEXPAPAU_Node@?$_Tree_nod@V?$_Tmap_traits@PAUHWND__@@UCWndData@@U?$less@PAUHWND__@@@std@@V?$allocator@U?$pair@QAUHWND__@@UCWndData@@@std@@@4@$0A@@std@@@2@ABQAU342@@Z ; std::allocator<std::_Tree_nod<std::_Tmap_traits<HWND__ *,CWndData,std::less<HWND__ *>,std::allocator<std::pair<HWND__ * const,CWndData> >,0> >::_Node *>::construct

; 1111 : 		++_Linkcnt;

  0008c	8b 45 e4	 mov	 eax, DWORD PTR __Linkcnt$[ebp]
  0008f	83 c0 01	 add	 eax, 1
  00092	89 45 e4	 mov	 DWORD PTR __Linkcnt$[ebp], eax

; 1112 : 		this->_Alptr.construct(&_Parent(_Wherenode), 0);

  00095	c7 45 dc 00 00
	00 00		 mov	 DWORD PTR $T192535[ebp], 0
  0009c	8b 4d e8	 mov	 ecx, DWORD PTR __Wherenode$[ebp]
  0009f	51		 push	 ecx
  000a0	e8 00 00 00 00	 call	 ?_Parent@?$_Tree@V?$_Tmap_traits@PAUHWND__@@UCWndData@@U?$less@PAUHWND__@@@std@@V?$allocator@U?$pair@QAUHWND__@@UCWndData@@@std@@@4@$0A@@std@@@std@@KAAAPAU_Node@?$_Tree_nod@V?$_Tmap_traits@PAUHWND__@@UCWndData@@U?$less@PAUHWND__@@@std@@V?$allocator@U?$pair@QAUHWND__@@UCWndData@@@std@@@4@$0A@@std@@@2@PAU342@@Z ; std::_Tree<std::_Tmap_traits<HWND__ *,CWndData,std::less<HWND__ *>,std::allocator<std::pair<HWND__ * const,CWndData> >,0> >::_Parent
  000a5	83 c4 04	 add	 esp, 4
  000a8	89 45 d0	 mov	 DWORD PTR tv144[ebp], eax
  000ab	8d 55 dc	 lea	 edx, DWORD PTR $T192535[ebp]
  000ae	52		 push	 edx
  000af	8b 45 d0	 mov	 eax, DWORD PTR tv144[ebp]
  000b2	50		 push	 eax
  000b3	8b 4d ec	 mov	 ecx, DWORD PTR _this$[ebp]
  000b6	83 c1 02	 add	 ecx, 2
  000b9	e8 00 00 00 00	 call	 ?construct@?$allocator@PAU_Node@?$_Tree_nod@V?$_Tmap_traits@PAUHWND__@@UCWndData@@U?$less@PAUHWND__@@@std@@V?$allocator@U?$pair@QAUHWND__@@UCWndData@@@std@@@4@$0A@@std@@@std@@@std@@QAEXPAPAU_Node@?$_Tree_nod@V?$_Tmap_traits@PAUHWND__@@UCWndData@@U?$less@PAUHWND__@@@std@@V?$allocator@U?$pair@QAUHWND__@@UCWndData@@@std@@@4@$0A@@std@@@2@ABQAU342@@Z ; std::allocator<std::_Tree_nod<std::_Tmap_traits<HWND__ *,CWndData,std::less<HWND__ *>,std::allocator<std::pair<HWND__ * const,CWndData> >,0> >::_Node *>::construct

; 1113 : 		++_Linkcnt;

  000be	8b 4d e4	 mov	 ecx, DWORD PTR __Linkcnt$[ebp]
  000c1	83 c1 01	 add	 ecx, 1
  000c4	89 4d e4	 mov	 DWORD PTR __Linkcnt$[ebp], ecx

; 1114 : 		this->_Alptr.construct(&_Right(_Wherenode), 0);

  000c7	c7 45 d8 00 00
	00 00		 mov	 DWORD PTR $T192536[ebp], 0
  000ce	8b 55 e8	 mov	 edx, DWORD PTR __Wherenode$[ebp]
  000d1	52		 push	 edx
  000d2	e8 00 00 00 00	 call	 ?_Right@?$_Tree@V?$_Tmap_traits@PAUHWND__@@UCWndData@@U?$less@PAUHWND__@@@std@@V?$allocator@U?$pair@QAUHWND__@@UCWndData@@@std@@@4@$0A@@std@@@std@@KAAAPAU_Node@?$_Tree_nod@V?$_Tmap_traits@PAUHWND__@@UCWndData@@U?$less@PAUHWND__@@@std@@V?$allocator@U?$pair@QAUHWND__@@UCWndData@@@std@@@4@$0A@@std@@@2@PAU342@@Z ; std::_Tree<std::_Tmap_traits<HWND__ *,CWndData,std::less<HWND__ *>,std::allocator<std::pair<HWND__ * const,CWndData> >,0> >::_Right
  000d7	83 c4 04	 add	 esp, 4
  000da	89 45 cc	 mov	 DWORD PTR tv145[ebp], eax
  000dd	8d 45 d8	 lea	 eax, DWORD PTR $T192536[ebp]
  000e0	50		 push	 eax
  000e1	8b 4d cc	 mov	 ecx, DWORD PTR tv145[ebp]
  000e4	51		 push	 ecx
  000e5	8b 4d ec	 mov	 ecx, DWORD PTR _this$[ebp]
  000e8	83 c1 02	 add	 ecx, 2
  000eb	e8 00 00 00 00	 call	 ?construct@?$allocator@PAU_Node@?$_Tree_nod@V?$_Tmap_traits@PAUHWND__@@UCWndData@@U?$less@PAUHWND__@@@std@@V?$allocator@U?$pair@QAUHWND__@@UCWndData@@@std@@@4@$0A@@std@@@std@@@std@@QAEXPAPAU_Node@?$_Tree_nod@V?$_Tmap_traits@PAUHWND__@@UCWndData@@U?$less@PAUHWND__@@@std@@V?$allocator@U?$pair@QAUHWND__@@UCWndData@@@std@@@4@$0A@@std@@@2@ABQAU342@@Z ; std::allocator<std::_Tree_nod<std::_Tmap_traits<HWND__ *,CWndData,std::less<HWND__ *>,std::allocator<std::pair<HWND__ * const,CWndData> >,0> >::_Node *>::construct
  000f0	eb 56		 jmp	 SHORT $L192537
$L192538:

; 1115 : 		_CATCH_ALL
; 1116 : 		if (1 < _Linkcnt)

  000f2	83 7d e4 01	 cmp	 DWORD PTR __Linkcnt$[ebp], 1
  000f6	7e 18		 jle	 SHORT $L190894

; 1117 : 			this->_Alptr.destroy(&_Parent(_Wherenode));

  000f8	8b 55 e8	 mov	 edx, DWORD PTR __Wherenode$[ebp]
  000fb	52		 push	 edx
  000fc	e8 00 00 00 00	 call	 ?_Parent@?$_Tree@V?$_Tmap_traits@PAUHWND__@@UCWndData@@U?$less@PAUHWND__@@@std@@V?$allocator@U?$pair@QAUHWND__@@UCWndData@@@std@@@4@$0A@@std@@@std@@KAAAPAU_Node@?$_Tree_nod@V?$_Tmap_traits@PAUHWND__@@UCWndData@@U?$less@PAUHWND__@@@std@@V?$allocator@U?$pair@QAUHWND__@@UCWndData@@@std@@@4@$0A@@std@@@2@PAU342@@Z ; std::_Tree<std::_Tmap_traits<HWND__ *,CWndData,std::less<HWND__ *>,std::allocator<std::pair<HWND__ * const,CWndData> >,0> >::_Parent
  00101	83 c4 04	 add	 esp, 4
  00104	50		 push	 eax
  00105	8b 4d ec	 mov	 ecx, DWORD PTR _this$[ebp]
  00108	83 c1 02	 add	 ecx, 2
  0010b	e8 00 00 00 00	 call	 ?destroy@?$allocator@PAU_Node@?$_Tree_nod@V?$_Tmap_traits@PAUHWND__@@UCWndData@@U?$less@PAUHWND__@@@std@@V?$allocator@U?$pair@QAUHWND__@@UCWndData@@@std@@@4@$0A@@std@@@std@@@std@@QAEXPAPAU_Node@?$_Tree_nod@V?$_Tmap_traits@PAUHWND__@@UCWndData@@U?$less@PAUHWND__@@@std@@V?$allocator@U?$pair@QAUHWND__@@UCWndData@@@std@@@4@$0A@@std@@@2@@Z ; std::allocator<std::_Tree_nod<std::_Tmap_traits<HWND__ *,CWndData,std::less<HWND__ *>,std::allocator<std::pair<HWND__ * const,CWndData> >,0> >::_Node *>::destroy
$L190894:

; 1118 : 		if (0 < _Linkcnt)

  00110	83 7d e4 00	 cmp	 DWORD PTR __Linkcnt$[ebp], 0
  00114	7e 18		 jle	 SHORT $L190895

; 1119 : 			this->_Alptr.destroy(&_Left(_Wherenode));

  00116	8b 45 e8	 mov	 eax, DWORD PTR __Wherenode$[ebp]
  00119	50		 push	 eax
  0011a	e8 00 00 00 00	 call	 ?_Left@?$_Tree@V?$_Tmap_traits@PAUHWND__@@UCWndData@@U?$less@PAUHWND__@@@std@@V?$allocator@U?$pair@QAUHWND__@@UCWndData@@@std@@@4@$0A@@std@@@std@@KAAAPAU_Node@?$_Tree_nod@V?$_Tmap_traits@PAUHWND__@@UCWndData@@U?$less@PAUHWND__@@@std@@V?$allocator@U?$pair@QAUHWND__@@UCWndData@@@std@@@4@$0A@@std@@@2@PAU342@@Z ; std::_Tree<std::_Tmap_traits<HWND__ *,CWndData,std::less<HWND__ *>,std::allocator<std::pair<HWND__ * const,CWndData> >,0> >::_Left
  0011f	83 c4 04	 add	 esp, 4
  00122	50		 push	 eax
  00123	8b 4d ec	 mov	 ecx, DWORD PTR _this$[ebp]
  00126	83 c1 02	 add	 ecx, 2
  00129	e8 00 00 00 00	 call	 ?destroy@?$allocator@PAU_Node@?$_Tree_nod@V?$_Tmap_traits@PAUHWND__@@UCWndData@@U?$less@PAUHWND__@@@std@@V?$allocator@U?$pair@QAUHWND__@@UCWndData@@@std@@@4@$0A@@std@@@std@@@std@@QAEXPAPAU_Node@?$_Tree_nod@V?$_Tmap_traits@PAUHWND__@@UCWndData@@U?$less@PAUHWND__@@@std@@V?$allocator@U?$pair@QAUHWND__@@UCWndData@@@std@@@4@$0A@@std@@@2@@Z ; std::allocator<std::_Tree_nod<std::_Tmap_traits<HWND__ *,CWndData,std::less<HWND__ *>,std::allocator<std::pair<HWND__ * const,CWndData> >,0> >::_Node *>::destroy
$L190895:

; 1120 : 		this->_Alnod.deallocate(_Wherenode, 1);

  0012e	6a 01		 push	 1
  00130	8b 4d e8	 mov	 ecx, DWORD PTR __Wherenode$[ebp]
  00133	51		 push	 ecx
  00134	8b 4d ec	 mov	 ecx, DWORD PTR _this$[ebp]
  00137	83 c1 01	 add	 ecx, 1
  0013a	e8 00 00 00 00	 call	 ?deallocate@?$allocator@U_Node@?$_Tree_nod@V?$_Tmap_traits@PAUHWND__@@UCWndData@@U?$less@PAUHWND__@@@std@@V?$allocator@U?$pair@QAUHWND__@@UCWndData@@@std@@@4@$0A@@std@@@std@@@std@@QAEXPAU_Node@?$_Tree_nod@V?$_Tmap_traits@PAUHWND__@@UCWndData@@U?$less@PAUHWND__@@@std@@V?$allocator@U?$pair@QAUHWND__@@UCWndData@@@std@@@4@$0A@@std@@@2@I@Z ; std::allocator<std::_Tree_nod<std::_Tmap_traits<HWND__ *,CWndData,std::less<HWND__ *>,std::allocator<std::pair<HWND__ * const,CWndData> >,0> >::_Node>::deallocate

; 1121 : 		_RERAISE;

  0013f	6a 00		 push	 0
  00141	6a 00		 push	 0
  00143	e8 00 00 00 00	 call	 __CxxThrowException@8
$L192537:

; 1122 : 		_CATCH_END

  00148	c7 45 fc ff ff
	ff ff		 mov	 DWORD PTR __$EHRec$[ebp+12], -1

; 1123 : 		_Color(_Wherenode) = _Black;

  0014f	8b 55 e8	 mov	 edx, DWORD PTR __Wherenode$[ebp]
  00152	52		 push	 edx
  00153	e8 00 00 00 00	 call	 ?_Color@?$_Tree@V?$_Tmap_traits@PAUHWND__@@UCWndData@@U?$less@PAUHWND__@@@std@@V?$allocator@U?$pair@QAUHWND__@@UCWndData@@@std@@@4@$0A@@std@@@std@@KAAADPAU_Node@?$_Tree_nod@V?$_Tmap_traits@PAUHWND__@@UCWndData@@U?$less@PAUHWND__@@@std@@V?$allocator@U?$pair@QAUHWND__@@UCWndData@@@std@@@4@$0A@@std@@@2@@Z ; std::_Tree<std::_Tmap_traits<HWND__ *,CWndData,std::less<HWND__ *>,std::allocator<std::pair<HWND__ * const,CWndData> >,0> >::_Color
  00158	83 c4 04	 add	 esp, 4
  0015b	c6 00 01	 mov	 BYTE PTR [eax], 1

; 1124 : 		_Isnil(_Wherenode) = false;

  0015e	8b 45 e8	 mov	 eax, DWORD PTR __Wherenode$[ebp]
  00161	50		 push	 eax
  00162	e8 00 00 00 00	 call	 ?_Isnil@?$_Tree@V?$_Tmap_traits@PAUHWND__@@UCWndData@@U?$less@PAUHWND__@@@std@@V?$allocator@U?$pair@QAUHWND__@@UCWndData@@@std@@@4@$0A@@std@@@std@@KAAADPAU_Node@?$_Tree_nod@V?$_Tmap_traits@PAUHWND__@@UCWndData@@U?$less@PAUHWND__@@@std@@V?$allocator@U?$pair@QAUHWND__@@UCWndData@@@std@@@4@$0A@@std@@@2@@Z ; std::_Tree<std::_Tmap_traits<HWND__ *,CWndData,std::less<HWND__ *>,std::allocator<std::pair<HWND__ * const,CWndData> >,0> >::_Isnil
  00167	83 c4 04	 add	 esp, 4
  0016a	c6 00 00	 mov	 BYTE PTR [eax], 0

; 1125 : 		return (_Wherenode);

  0016d	8b 45 e8	 mov	 eax, DWORD PTR __Wherenode$[ebp]
$L192533:

; 1126 : 		}

  00170	8b 4d f4	 mov	 ecx, DWORD PTR __$EHRec$[ebp+4]
  00173	64 89 0d 00 00
	00 00		 mov	 DWORD PTR fs:__except_list, ecx
  0017a	5f		 pop	 edi
  0017b	5e		 pop	 esi
  0017c	5b		 pop	 ebx
  0017d	83 c4 34	 add	 esp, 52			; 00000034H
  00180	3b ec		 cmp	 ebp, esp
  00182	e8 00 00 00 00	 call	 __RTC_CheckEsp
  00187	8b e5		 mov	 esp, ebp
  00189	5d		 pop	 ebp
  0018a	c3		 ret	 0
_TEXT	ENDS
;	COMDAT text$x
text$x	SEGMENT
__ehhandler$?_Buynode@?$_Tree@V?$_Tmap_traits@PAUHWND__@@UCWndData@@U?$less@PAUHWND__@@@std@@V?$allocator@U?$pair@QAUHWND__@@UCWndData@@@std@@@4@$0A@@std@@@std@@IAEPAU_Node@?$_Tree_nod@V?$_Tmap_traits@PAUHWND__@@UCWndData@@U?$less@PAUHWND__@@@std@@V?$allocator@U?$pair@QAUHWND__@@UCWndData@@@std@@@4@$0A@@std@@@2@XZ:
  00000	b8 00 00 00 00	 mov	 eax, OFFSET FLAT:$T192540
  00005	e9 00 00 00 00	 jmp	 ___CxxFrameHandler
text$x	ENDS
?_Buynode@?$_Tree@V?$_Tmap_traits@PAUHWND__@@UCWndData@@U?$less@PAUHWND__@@@std@@V?$allocator@U?$pair@QAUHWND__@@UCWndData@@@std@@@4@$0A@@std@@@std@@IAEPAU_Node@?$_Tree_nod@V?$_Tmap_traits@PAUHWND__@@UCWndData@@U?$less@PAUHWND__@@@std@@V?$allocator@U?$pair@QAUHWND__@@UCWndData@@@std@@@4@$0A@@std@@@2@XZ ENDP ; std::_Tree<std::_Tmap_traits<HWND__ *,CWndData,std::less<HWND__ *>,std::allocator<std::pair<HWND__ * const,CWndData> >,0> >::_Buynode
PUBLIC	??0_Node@?$_Tree_nod@V?$_Tmap_traits@PAUHWND__@@UCWndData@@U?$less@PAUHWND__@@@std@@V?$allocator@U?$pair@QAUHWND__@@UCWndData@@@std@@@4@$0A@@std@@@std@@QAE@PAU012@00ABU?$pair@QAUHWND__@@UCWndData@@@2@D@Z ; std::_Tree_nod<std::_Tmap_traits<HWND__ *,CWndData,std::less<HWND__ *>,std::allocator<std::pair<HWND__ * const,CWndData> >,0> >::_Node::_Node
PUBLIC	??2@YAPAXIPAX@Z					; operator new
PUBLIC	??3@YAXPAX0@Z					; operator delete
;	COMDAT xdata$x
xdata$x	SEGMENT
$T192558 DD	0ffffffffH
	DD	00H
	DD	00H
	DD	FLAT:$L192554
	DD	0ffffffffH
	DD	00H
$T192560 DD	00H
	DD	00H
	DD	00H
	DD	FLAT:$L192553
$T192559 DD	00H
	DD	01H
	DD	02H
	DD	01H
	DD	FLAT:$T192560
$T192556 DD	019930520H
	DD	03H
	DD	FLAT:$T192558
	DD	01H
	DD	FLAT:$T192559
	DD	2 DUP(00H)
; Function compile flags: /Odt /RTCsu
xdata$x	ENDS
;	COMDAT ?_Buynode@?$_Tree@V?$_Tmap_traits@PAUHWND__@@UCWndData@@U?$less@PAUHWND__@@@std@@V?$allocator@U?$pair@QAUHWND__@@UCWndData@@@std@@@4@$0A@@std@@@std@@IAEPAU_Node@?$_Tree_nod@V?$_Tmap_traits@PAUHWND__@@UCWndData@@U?$less@PAUHWND__@@@std@@V?$allocator@U?$pair@QAUHWND__@@UCWndData@@@std@@@4@$0A@@std@@@2@PAU342@00ABU?$pair@QAUHWND__@@UCWndData@@@2@D@Z
_TEXT	SEGMENT
tv82 = -44						; size = 4
tv94 = -40						; size = 4
tv91 = -36						; size = 4
$T192549 = -32						; size = 4
$T192548 = -28						; size = 4
__Wherenode$ = -24					; size = 4
_this$ = -20						; size = 4
__$EHRec$ = -16						; size = 16
__Larg$ = 8						; size = 4
__Parg$ = 12						; size = 4
__Rarg$ = 16						; size = 4
__Val$ = 20						; size = 4
__Carg$ = 24						; size = 1
?_Buynode@?$_Tree@V?$_Tmap_traits@PAUHWND__@@UCWndData@@U?$less@PAUHWND__@@@std@@V?$allocator@U?$pair@QAUHWND__@@UCWndData@@@std@@@4@$0A@@std@@@std@@IAEPAU_Node@?$_Tree_nod@V?$_Tmap_traits@PAUHWND__@@UCWndData@@U?$less@PAUHWND__@@@std@@V?$allocator@U?$pair@QAUHWND__@@UCWndData@@@std@@@4@$0A@@std@@@2@PAU342@00ABU?$pair@QAUHWND__@@UCWndData@@@2@D@Z PROC NEAR ; std::_Tree<std::_Tmap_traits<HWND__ *,CWndData,std::less<HWND__ *>,std::allocator<std::pair<HWND__ * const,CWndData> >,0> >::_Buynode, COMDAT
; _this$ = ecx

; 1130 : 		{	// allocate a node with pointers, value, and color

  00000	55		 push	 ebp
  00001	8b ec		 mov	 ebp, esp
  00003	6a ff		 push	 -1
  00005	68 00 00 00 00	 push	 __ehhandler$?_Buynode@?$_Tree@V?$_Tmap_traits@PAUHWND__@@UCWndData@@U?$less@PAUHWND__@@@std@@V?$allocator@U?$pair@QAUHWND__@@UCWndData@@@std@@@4@$0A@@std@@@std@@IAEPAU_Node@?$_Tree_nod@V?$_Tmap_traits@PAUHWND__@@UCWndData@@U?$less@PAUHWND__@@@std@@V?$allocator@U?$pair@QAUHWND__@@UCWndData@@@std@@@4@$0A@@std@@@2@PAU342@00ABU?$pair@QAUHWND__@@UCWndData@@@2@D@Z
  0000a	64 a1 00 00 00
	00		 mov	 eax, DWORD PTR fs:__except_list
  00010	50		 push	 eax
  00011	64 89 25 00 00
	00 00		 mov	 DWORD PTR fs:__except_list, esp
  00018	51		 push	 ecx
  00019	83 ec 1c	 sub	 esp, 28			; 0000001cH
  0001c	53		 push	 ebx
  0001d	56		 push	 esi
  0001e	57		 push	 edi
  0001f	b8 cc cc cc cc	 mov	 eax, -858993460		; ccccccccH
  00024	89 45 d4	 mov	 DWORD PTR [ebp-44], eax
  00027	89 45 d8	 mov	 DWORD PTR [ebp-40], eax
  0002a	89 45 dc	 mov	 DWORD PTR [ebp-36], eax
  0002d	89 45 e0	 mov	 DWORD PTR [ebp-32], eax
  00030	89 45 e4	 mov	 DWORD PTR [ebp-28], eax
  00033	89 45 e8	 mov	 DWORD PTR [ebp-24], eax
  00036	89 45 ec	 mov	 DWORD PTR [ebp-20], eax
  00039	89 65 f0	 mov	 DWORD PTR __$EHRec$[ebp], esp
  0003c	89 4d ec	 mov	 DWORD PTR _this$[ebp], ecx

; 1131 : 		_Nodeptr _Wherenode = this->_Alnod.allocate(1);

  0003f	6a 01		 push	 1
  00041	8b 4d ec	 mov	 ecx, DWORD PTR _this$[ebp]
  00044	83 c1 01	 add	 ecx, 1
  00047	e8 00 00 00 00	 call	 ?allocate@?$allocator@U_Node@?$_Tree_nod@V?$_Tmap_traits@PAUHWND__@@UCWndData@@U?$less@PAUHWND__@@@std@@V?$allocator@U?$pair@QAUHWND__@@UCWndData@@@std@@@4@$0A@@std@@@std@@@std@@QAEPAU_Node@?$_Tree_nod@V?$_Tmap_traits@PAUHWND__@@UCWndData@@U?$less@PAUHWND__@@@std@@V?$allocator@U?$pair@QAUHWND__@@UCWndData@@@std@@@4@$0A@@std@@@2@I@Z ; std::allocator<std::_Tree_nod<std::_Tmap_traits<HWND__ *,CWndData,std::less<HWND__ *>,std::allocator<std::pair<HWND__ * const,CWndData> >,0> >::_Node>::allocate
  0004c	89 45 e8	 mov	 DWORD PTR __Wherenode$[ebp], eax

; 1132 : 		_TRY_BEGIN

  0004f	c7 45 fc 00 00
	00 00		 mov	 DWORD PTR __$EHRec$[ebp+12], 0

; 1133 : 		new (_Wherenode) _Node(_Larg, _Parg, _Rarg, _Val, _Carg);

  00056	8b 45 e8	 mov	 eax, DWORD PTR __Wherenode$[ebp]
  00059	50		 push	 eax
  0005a	6a 1c		 push	 28			; 0000001cH
  0005c	e8 00 00 00 00	 call	 ??2@YAPAXIPAX@Z		; operator new
  00061	83 c4 08	 add	 esp, 8
  00064	89 45 dc	 mov	 DWORD PTR tv91[ebp], eax
  00067	8b 4d dc	 mov	 ecx, DWORD PTR tv91[ebp]
  0006a	89 4d e0	 mov	 DWORD PTR $T192549[ebp], ecx
  0006d	c6 45 fc 01	 mov	 BYTE PTR __$EHRec$[ebp+12], 1
  00071	83 7d e0 00	 cmp	 DWORD PTR $T192549[ebp], 0
  00075	74 27		 je	 SHORT $L192550
  00077	8a 55 18	 mov	 dl, BYTE PTR __Carg$[ebp]
  0007a	52		 push	 edx
  0007b	8b 45 14	 mov	 eax, DWORD PTR __Val$[ebp]
  0007e	50		 push	 eax
  0007f	8b 4d 10	 mov	 ecx, DWORD PTR __Rarg$[ebp]
  00082	51		 push	 ecx
  00083	8b 55 0c	 mov	 edx, DWORD PTR __Parg$[ebp]
  00086	52		 push	 edx
  00087	8b 45 08	 mov	 eax, DWORD PTR __Larg$[ebp]
  0008a	50		 push	 eax
  0008b	8b 4d e0	 mov	 ecx, DWORD PTR $T192549[ebp]
  0008e	e8 00 00 00 00	 call	 ??0_Node@?$_Tree_nod@V?$_Tmap_traits@PAUHWND__@@UCWndData@@U?$less@PAUHWND__@@@std@@V?$allocator@U?$pair@QAUHWND__@@UCWndData@@@std@@@4@$0A@@std@@@std@@QAE@PAU012@00ABU?$pair@QAUHWND__@@UCWndData@@@2@D@Z ; std::_Tree_nod<std::_Tmap_traits<HWND__ *,CWndData,std::less<HWND__ *>,std::allocator<std::pair<HWND__ * const,CWndData> >,0> >::_Node::_Node
  00093	89 45 d8	 mov	 DWORD PTR tv94[ebp], eax
  00096	8b 4d d8	 mov	 ecx, DWORD PTR tv94[ebp]
  00099	89 4d d4	 mov	 DWORD PTR tv82[ebp], ecx
  0009c	eb 07		 jmp	 SHORT $L192551
$L192550:
  0009e	c7 45 d4 00 00
	00 00		 mov	 DWORD PTR tv82[ebp], 0
$L192551:
  000a5	8b 55 d4	 mov	 edx, DWORD PTR tv82[ebp]
  000a8	89 55 e4	 mov	 DWORD PTR $T192548[ebp], edx
  000ab	c6 45 fc 00	 mov	 BYTE PTR __$EHRec$[ebp+12], 0
  000af	eb 1a		 jmp	 SHORT $L192552
$L192553:

; 1134 : 		_CATCH_ALL
; 1135 : 		this->_Alnod.deallocate(_Wherenode, 1);

  000b1	6a 01		 push	 1
  000b3	8b 45 e8	 mov	 eax, DWORD PTR __Wherenode$[ebp]
  000b6	50		 push	 eax
  000b7	8b 4d ec	 mov	 ecx, DWORD PTR _this$[ebp]
  000ba	83 c1 01	 add	 ecx, 1
  000bd	e8 00 00 00 00	 call	 ?deallocate@?$allocator@U_Node@?$_Tree_nod@V?$_Tmap_traits@PAUHWND__@@UCWndData@@U?$less@PAUHWND__@@@std@@V?$allocator@U?$pair@QAUHWND__@@UCWndData@@@std@@@4@$0A@@std@@@std@@@std@@QAEXPAU_Node@?$_Tree_nod@V?$_Tmap_traits@PAUHWND__@@UCWndData@@U?$less@PAUHWND__@@@std@@V?$allocator@U?$pair@QAUHWND__@@UCWndData@@@std@@@4@$0A@@std@@@2@I@Z ; std::allocator<std::_Tree_nod<std::_Tmap_traits<HWND__ *,CWndData,std::less<HWND__ *>,std::allocator<std::pair<HWND__ * const,CWndData> >,0> >::_Node>::deallocate

; 1136 : 		_RERAISE;

  000c2	6a 00		 push	 0
  000c4	6a 00		 push	 0
  000c6	e8 00 00 00 00	 call	 __CxxThrowException@8
$L192552:

; 1137 : 		_CATCH_END

  000cb	c7 45 fc ff ff
	ff ff		 mov	 DWORD PTR __$EHRec$[ebp+12], -1

; 1138 : 		return (_Wherenode);

  000d2	8b 45 e8	 mov	 eax, DWORD PTR __Wherenode$[ebp]
$L192547:

; 1139 : 		}

  000d5	8b 4d f4	 mov	 ecx, DWORD PTR __$EHRec$[ebp+4]
  000d8	64 89 0d 00 00
	00 00		 mov	 DWORD PTR fs:__except_list, ecx
  000df	5f		 pop	 edi
  000e0	5e		 pop	 esi
  000e1	5b		 pop	 ebx
  000e2	83 c4 2c	 add	 esp, 44			; 0000002cH
  000e5	3b ec		 cmp	 ebp, esp
  000e7	e8 00 00 00 00	 call	 __RTC_CheckEsp
  000ec	8b e5		 mov	 esp, ebp
  000ee	5d		 pop	 ebp
  000ef	c2 14 00	 ret	 20			; 00000014H
_TEXT	ENDS
;	COMDAT text$x
text$x	SEGMENT
$L192554:
  00000	8b 45 e8	 mov	 eax, DWORD PTR __Wherenode$[ebp]
  00003	50		 push	 eax
  00004	8b 4d e0	 mov	 ecx, DWORD PTR $T192549[ebp]
  00007	51		 push	 ecx
  00008	e8 00 00 00 00	 call	 ??3@YAXPAX0@Z		; operator delete
  0000d	83 c4 08	 add	 esp, 8
  00010	c3		 ret	 0
__ehhandler$?_Buynode@?$_Tree@V?$_Tmap_traits@PAUHWND__@@UCWndData@@U?$less@PAUHWND__@@@std@@V?$allocator@U?$pair@QAUHWND__@@UCWndData@@@std@@@4@$0A@@std@@@std@@IAEPAU_Node@?$_Tree_nod@V?$_Tmap_traits@PAUHWND__@@UCWndData@@U?$less@PAUHWND__@@@std@@V?$allocator@U?$pair@QAUHWND__@@UCWndData@@@std@@@4@$0A@@std@@@2@PAU342@00ABU?$pair@QAUHWND__@@UCWndData@@@2@D@Z:
  00011	b8 00 00 00 00	 mov	 eax, OFFSET FLAT:$T192556
  00016	e9 00 00 00 00	 jmp	 ___CxxFrameHandler
text$x	ENDS
?_Buynode@?$_Tree@V?$_Tmap_traits@PAUHWND__@@UCWndData@@U?$less@PAUHWND__@@@std@@V?$allocator@U?$pair@QAUHWND__@@UCWndData@@@std@@@4@$0A@@std@@@std@@IAEPAU_Node@?$_Tree_nod@V?$_Tmap_traits@PAUHWND__@@UCWndData@@U?$less@PAUHWND__@@@std@@V?$allocator@U?$pair@QAUHWND__@@UCWndData@@@std@@@4@$0A@@std@@@2@PAU342@00ABU?$pair@QAUHWND__@@UCWndData@@@2@D@Z ENDP ; std::_Tree<std::_Tmap_traits<HWND__ *,CWndData,std::less<HWND__ *>,std::allocator<std::pair<HWND__ * const,CWndData> >,0> >::_Buynode
; Function compile flags: /Odt /RTCsu
; File d:\program files (x86)\microsoft visual studio .net 2003\vc7\include\new.h
;	COMDAT ??2@YAPAXIPAX@Z
_TEXT	SEGMENT
___formal$ = 8						; size = 4
__P$ = 12						; size = 4
??2@YAPAXIPAX@Z PROC NEAR				; operator new, COMDAT

; 109  :         {return (_P); }

  00000	55		 push	 ebp
  00001	8b ec		 mov	 ebp, esp
  00003	8b 45 0c	 mov	 eax, DWORD PTR __P$[ebp]
  00006	5d		 pop	 ebp
  00007	c3		 ret	 0
??2@YAPAXIPAX@Z ENDP					; operator new
; Function compile flags: /Odt /RTCsu
_TEXT	ENDS
;	COMDAT ??3@YAXPAX0@Z
_TEXT	SEGMENT
___formal$ = 8						; size = 4
___formal$ = 12						; size = 4
??3@YAXPAX0@Z PROC NEAR					; operator delete, COMDAT

; 112  :         {return; }

  00000	55		 push	 ebp
  00001	8b ec		 mov	 ebp, esp
  00003	5d		 pop	 ebp
  00004	c3		 ret	 0
??3@YAXPAX0@Z ENDP					; operator delete
_TEXT	ENDS
PUBLIC	??0?$_Tree_nod@V?$_Tmap_traits@PAUHWND__@@UCWndData@@U?$less@PAUHWND__@@@std@@V?$allocator@U?$pair@QAUHWND__@@UCWndData@@@std@@@4@$0A@@std@@@std@@IAE@ABU?$less@PAUHWND__@@@1@V?$allocator@U?$pair@QAUHWND__@@UCWndData@@@std@@@1@@Z ; std::_Tree_nod<std::_Tmap_traits<HWND__ *,CWndData,std::less<HWND__ *>,std::allocator<std::pair<HWND__ * const,CWndData> >,0> >::_Tree_nod<std::_Tmap_traits<HWND__ *,CWndData,std::less<HWND__ *>,std::allocator<std::pair<HWND__ * const,CWndData> >,0> >
PUBLIC	??$?0U?$pair@QAUHWND__@@UCWndData@@@std@@@?$allocator@PAU_Node@?$_Tree_nod@V?$_Tmap_traits@PAUHWND__@@UCWndData@@U?$less@PAUHWND__@@@std@@V?$allocator@U?$pair@QAUHWND__@@UCWndData@@@std@@@4@$0A@@std@@@std@@@std@@QAE@ABV?$allocator@U?$pair@QAUHWND__@@UCWndData@@@std@@@1@@Z ; std::allocator<std::_Tree_nod<std::_Tmap_traits<HWND__ *,CWndData,std::less<HWND__ *>,std::allocator<std::pair<HWND__ * const,CWndData> >,0> >::_Node *>::allocator<std::_Tree_nod<std::_Tmap_traits<HWND__ *,CWndData,std::less<HWND__ *>,std::allocator<std::pair<HWND__ * const,CWndData> >,0> >::_Node *><std::pair<HWND__ * const,CWndData> >
; Function compile flags: /Odt /RTCsu
; File d:\program files (x86)\microsoft visual studio .net 2003\vc7\include\xtree
;	COMDAT ??0?$_Tree_ptr@V?$_Tmap_traits@PAUHWND__@@UCWndData@@U?$less@PAUHWND__@@@std@@V?$allocator@U?$pair@QAUHWND__@@UCWndData@@@std@@@4@$0A@@std@@@std@@IAE@ABU?$less@PAUHWND__@@@1@V?$allocator@U?$pair@QAUHWND__@@UCWndData@@@std@@@1@@Z
_TEXT	SEGMENT
_this$ = -4						; size = 4
__Parg$ = 8						; size = 4
__Al$ = 12						; size = 1
??0?$_Tree_ptr@V?$_Tmap_traits@PAUHWND__@@UCWndData@@U?$less@PAUHWND__@@@std@@V?$allocator@U?$pair@QAUHWND__@@UCWndData@@@std@@@4@$0A@@std@@@std@@IAE@ABU?$less@PAUHWND__@@@1@V?$allocator@U?$pair@QAUHWND__@@UCWndData@@@std@@@1@@Z PROC NEAR ; std::_Tree_ptr<std::_Tmap_traits<HWND__ *,CWndData,std::less<HWND__ *>,std::allocator<std::pair<HWND__ * const,CWndData> >,0> >::_Tree_ptr<std::_Tmap_traits<HWND__ *,CWndData,std::less<HWND__ *>,std::allocator<std::pair<HWND__ * const,CWndData> >,0> >, COMDAT
; _this$ = ecx

; 76   : 		{	// construct base, and allocator from _Al

  00000	55		 push	 ebp
  00001	8b ec		 mov	 ebp, esp
  00003	83 ec 08	 sub	 esp, 8
  00006	c7 45 f8 cc cc
	cc cc		 mov	 DWORD PTR [ebp-8], -858993460 ; ccccccccH
  0000d	c7 45 fc cc cc
	cc cc		 mov	 DWORD PTR [ebp-4], -858993460 ; ccccccccH
  00014	89 4d fc	 mov	 DWORD PTR _this$[ebp], ecx
  00017	51		 push	 ecx
  00018	8b cc		 mov	 ecx, esp
  0001a	8d 45 0c	 lea	 eax, DWORD PTR __Al$[ebp]
  0001d	50		 push	 eax
  0001e	e8 00 00 00 00	 call	 ??0?$allocator@U?$pair@QAUHWND__@@UCWndData@@@std@@@std@@QAE@ABV01@@Z ; std::allocator<std::pair<HWND__ * const,CWndData> >::allocator<std::pair<HWND__ * const,CWndData> >
  00023	8b 4d 08	 mov	 ecx, DWORD PTR __Parg$[ebp]
  00026	51		 push	 ecx
  00027	8b 4d fc	 mov	 ecx, DWORD PTR _this$[ebp]
  0002a	e8 00 00 00 00	 call	 ??0?$_Tree_nod@V?$_Tmap_traits@PAUHWND__@@UCWndData@@U?$less@PAUHWND__@@@std@@V?$allocator@U?$pair@QAUHWND__@@UCWndData@@@std@@@4@$0A@@std@@@std@@IAE@ABU?$less@PAUHWND__@@@1@V?$allocator@U?$pair@QAUHWND__@@UCWndData@@@std@@@1@@Z ; std::_Tree_nod<std::_Tmap_traits<HWND__ *,CWndData,std::less<HWND__ *>,std::allocator<std::pair<HWND__ * const,CWndData> >,0> >::_Tree_nod<std::_Tmap_traits<HWND__ *,CWndData,std::less<HWND__ *>,std::allocator<std::pair<HWND__ * const,CWndData> >,0> >
  0002f	8d 55 0c	 lea	 edx, DWORD PTR __Al$[ebp]
  00032	52		 push	 edx
  00033	8b 4d fc	 mov	 ecx, DWORD PTR _this$[ebp]
  00036	83 c1 02	 add	 ecx, 2
  00039	e8 00 00 00 00	 call	 ??$?0U?$pair@QAUHWND__@@UCWndData@@@std@@@?$allocator@PAU_Node@?$_Tree_nod@V?$_Tmap_traits@PAUHWND__@@UCWndData@@U?$less@PAUHWND__@@@std@@V?$allocator@U?$pair@QAUHWND__@@UCWndData@@@std@@@4@$0A@@std@@@std@@@std@@QAE@ABV?$allocator@U?$pair@QAUHWND__@@UCWndData@@@std@@@1@@Z ; std::allocator<std::_Tree_nod<std::_Tmap_traits<HWND__ *,CWndData,std::less<HWND__ *>,std::allocator<std::pair<HWND__ * const,CWndData> >,0> >::_Node *>::allocator<std::_Tree_nod<std::_Tmap_traits<HWND__ *,CWndData,std::less<HWND__ *>,std::allocator<std::pair<HWND__ * const,CWndData> >,0> >::_Node *><std::pair<HWND__ * const,CWndData> >

; 77   : 		}

  0003e	8b 45 fc	 mov	 eax, DWORD PTR _this$[ebp]
  00041	83 c4 08	 add	 esp, 8
  00044	3b ec		 cmp	 ebp, esp
  00046	e8 00 00 00 00	 call	 __RTC_CheckEsp
  0004b	8b e5		 mov	 esp, ebp
  0004d	5d		 pop	 ebp
  0004e	c2 08 00	 ret	 8
??0?$_Tree_ptr@V?$_Tmap_traits@PAUHWND__@@UCWndData@@U?$less@PAUHWND__@@@std@@V?$allocator@U?$pair@QAUHWND__@@UCWndData@@@std@@@4@$0A@@std@@@std@@IAE@ABU?$less@PAUHWND__@@@1@V?$allocator@U?$pair@QAUHWND__@@UCWndData@@@std@@@1@@Z ENDP ; std::_Tree_ptr<std::_Tmap_traits<HWND__ *,CWndData,std::less<HWND__ *>,std::allocator<std::pair<HWND__ * const,CWndData> >,0> >::_Tree_ptr<std::_Tmap_traits<HWND__ *,CWndData,std::less<HWND__ *>,std::allocator<std::pair<HWND__ * const,CWndData> >,0> >
; Function compile flags: /Odt /RTCsu
; File d:\program files (x86)\microsoft visual studio .net 2003\vc7\include\xmemory
_TEXT	ENDS
;	COMDAT ?max_size@?$allocator@PAVCHostWnd@@@std@@QBEIXZ
_TEXT	SEGMENT
tv65 = -12						; size = 4
__Count$ = -8						; size = 4
_this$ = -4						; size = 4
?max_size@?$allocator@PAVCHostWnd@@@std@@QBEIXZ PROC NEAR ; std::allocator<CHostWnd *>::max_size, COMDAT
; _this$ = ecx

; 156  : 		{	// estimate maximum array size

  00000	55		 push	 ebp
  00001	8b ec		 mov	 ebp, esp
  00003	83 ec 0c	 sub	 esp, 12			; 0000000cH
  00006	c7 45 f4 cc cc
	cc cc		 mov	 DWORD PTR [ebp-12], -858993460 ; ccccccccH
  0000d	c7 45 f8 cc cc
	cc cc		 mov	 DWORD PTR [ebp-8], -858993460 ; ccccccccH
  00014	c7 45 fc cc cc
	cc cc		 mov	 DWORD PTR [ebp-4], -858993460 ; ccccccccH
  0001b	89 4d fc	 mov	 DWORD PTR _this$[ebp], ecx

; 157  : 		_SIZT _Count = (_SIZT)(-1) / sizeof (_Ty);

  0001e	c7 45 f8 ff ff
	ff 3f		 mov	 DWORD PTR __Count$[ebp], 1073741823 ; 3fffffffH

; 158  : 		return (0 < _Count ? _Count : 1);

  00025	83 7d f8 00	 cmp	 DWORD PTR __Count$[ebp], 0
  00029	76 08		 jbe	 SHORT $L192568
  0002b	8b 45 f8	 mov	 eax, DWORD PTR __Count$[ebp]
  0002e	89 45 f4	 mov	 DWORD PTR tv65[ebp], eax
  00031	eb 07		 jmp	 SHORT $L192569
$L192568:
  00033	c7 45 f4 01 00
	00 00		 mov	 DWORD PTR tv65[ebp], 1
$L192569:
  0003a	8b 45 f4	 mov	 eax, DWORD PTR tv65[ebp]

; 159  : 		}

  0003d	8b e5		 mov	 esp, ebp
  0003f	5d		 pop	 ebp
  00040	c3		 ret	 0
?max_size@?$allocator@PAVCHostWnd@@@std@@QBEIXZ ENDP	; std::allocator<CHostWnd *>::max_size
; Function compile flags: /Odt /RTCsu
_TEXT	ENDS
;	COMDAT ?max_size@?$allocator@PAVILyricPopupWndShowObserver@@@std@@QBEIXZ
_TEXT	SEGMENT
tv65 = -12						; size = 4
__Count$ = -8						; size = 4
_this$ = -4						; size = 4
?max_size@?$allocator@PAVILyricPopupWndShowObserver@@@std@@QBEIXZ PROC NEAR ; std::allocator<ILyricPopupWndShowObserver *>::max_size, COMDAT
; _this$ = ecx

; 156  : 		{	// estimate maximum array size

  00000	55		 push	 ebp
  00001	8b ec		 mov	 ebp, esp
  00003	83 ec 0c	 sub	 esp, 12			; 0000000cH
  00006	c7 45 f4 cc cc
	cc cc		 mov	 DWORD PTR [ebp-12], -858993460 ; ccccccccH
  0000d	c7 45 f8 cc cc
	cc cc		 mov	 DWORD PTR [ebp-8], -858993460 ; ccccccccH
  00014	c7 45 fc cc cc
	cc cc		 mov	 DWORD PTR [ebp-4], -858993460 ; ccccccccH
  0001b	89 4d fc	 mov	 DWORD PTR _this$[ebp], ecx

; 157  : 		_SIZT _Count = (_SIZT)(-1) / sizeof (_Ty);

  0001e	c7 45 f8 ff ff
	ff 3f		 mov	 DWORD PTR __Count$[ebp], 1073741823 ; 3fffffffH

; 158  : 		return (0 < _Count ? _Count : 1);

  00025	83 7d f8 00	 cmp	 DWORD PTR __Count$[ebp], 0
  00029	76 08		 jbe	 SHORT $L192571
  0002b	8b 45 f8	 mov	 eax, DWORD PTR __Count$[ebp]
  0002e	89 45 f4	 mov	 DWORD PTR tv65[ebp], eax
  00031	eb 07		 jmp	 SHORT $L192572
$L192571:
  00033	c7 45 f4 01 00
	00 00		 mov	 DWORD PTR tv65[ebp], 1
$L192572:
  0003a	8b 45 f4	 mov	 eax, DWORD PTR tv65[ebp]

; 159  : 		}

  0003d	8b e5		 mov	 esp, ebp
  0003f	5d		 pop	 ebp
  00040	c3		 ret	 0
?max_size@?$allocator@PAVILyricPopupWndShowObserver@@@std@@QBEIXZ ENDP ; std::allocator<ILyricPopupWndShowObserver *>::max_size
; Function compile flags: /Odt /RTCsu
; File d:\program files (x86)\microsoft visual studio .net 2003\vc7\include\xtree
_TEXT	ENDS
;	COMDAT ??0const_iterator@?$_Tree@V?$_Tmap_traits@PAUHWND__@@UCWndData@@U?$less@PAUHWND__@@@std@@V?$allocator@U?$pair@QAUHWND__@@UCWndData@@@std@@@4@$0A@@std@@@std@@QAE@XZ
_TEXT	SEGMENT
_this$ = -4						; size = 4
??0const_iterator@?$_Tree@V?$_Tmap_traits@PAUHWND__@@UCWndData@@U?$less@PAUHWND__@@@std@@V?$allocator@U?$pair@QAUHWND__@@UCWndData@@@std@@@4@$0A@@std@@@std@@QAE@XZ PROC NEAR ; std::_Tree<std::_Tmap_traits<HWND__ *,CWndData,std::less<HWND__ *>,std::allocator<std::pair<HWND__ * const,CWndData> >,0> >::const_iterator::const_iterator, COMDAT
; _this$ = ecx

; 193  : 			{	// construct with null node pointer

  00000	55		 push	 ebp
  00001	8b ec		 mov	 ebp, esp
  00003	51		 push	 ecx
  00004	c7 45 fc cc cc
	cc cc		 mov	 DWORD PTR [ebp-4], -858993460 ; ccccccccH
  0000b	89 4d fc	 mov	 DWORD PTR _this$[ebp], ecx
  0000e	8b 45 fc	 mov	 eax, DWORD PTR _this$[ebp]
  00011	c7 00 00 00 00
	00		 mov	 DWORD PTR [eax], 0

; 194  : 			}

  00017	8b 45 fc	 mov	 eax, DWORD PTR _this$[ebp]
  0001a	8b e5		 mov	 esp, ebp
  0001c	5d		 pop	 ebp
  0001d	c3		 ret	 0
??0const_iterator@?$_Tree@V?$_Tmap_traits@PAUHWND__@@UCWndData@@U?$less@PAUHWND__@@@std@@V?$allocator@U?$pair@QAUHWND__@@UCWndData@@@std@@@4@$0A@@std@@@std@@QAE@XZ ENDP ; std::_Tree<std::_Tmap_traits<HWND__ *,CWndData,std::less<HWND__ *>,std::allocator<std::pair<HWND__ * const,CWndData> >,0> >::const_iterator::const_iterator
_TEXT	ENDS
PUBLIC	?_Dec@const_iterator@?$_Tree@V?$_Tmap_traits@PAUHWND__@@UCWndData@@U?$less@PAUHWND__@@@std@@V?$allocator@U?$pair@QAUHWND__@@UCWndData@@@std@@@4@$0A@@std@@@std@@QAEXXZ ; std::_Tree<std::_Tmap_traits<HWND__ *,CWndData,std::less<HWND__ *>,std::allocator<std::pair<HWND__ * const,CWndData> >,0> >::const_iterator::_Dec
; Function compile flags: /Odt /RTCsu
;	COMDAT ??Fconst_iterator@?$_Tree@V?$_Tmap_traits@PAUHWND__@@UCWndData@@U?$less@PAUHWND__@@@std@@V?$allocator@U?$pair@QAUHWND__@@UCWndData@@@std@@@4@$0A@@std@@@std@@QAEAAV012@XZ
_TEXT	SEGMENT
_this$ = -4						; size = 4
??Fconst_iterator@?$_Tree@V?$_Tmap_traits@PAUHWND__@@UCWndData@@U?$less@PAUHWND__@@@std@@V?$allocator@U?$pair@QAUHWND__@@UCWndData@@@std@@@4@$0A@@std@@@std@@QAEAAV012@XZ PROC NEAR ; std::_Tree<std::_Tmap_traits<HWND__ *,CWndData,std::less<HWND__ *>,std::allocator<std::pair<HWND__ * const,CWndData> >,0> >::const_iterator::operator--, COMDAT
; _this$ = ecx

; 227  : 			{	// predecrement

  00000	55		 push	 ebp
  00001	8b ec		 mov	 ebp, esp
  00003	51		 push	 ecx
  00004	c7 45 fc cc cc
	cc cc		 mov	 DWORD PTR [ebp-4], -858993460 ; ccccccccH
  0000b	89 4d fc	 mov	 DWORD PTR _this$[ebp], ecx

; 228  : 			_Dec();

  0000e	8b 4d fc	 mov	 ecx, DWORD PTR _this$[ebp]
  00011	e8 00 00 00 00	 call	 ?_Dec@const_iterator@?$_Tree@V?$_Tmap_traits@PAUHWND__@@UCWndData@@U?$less@PAUHWND__@@@std@@V?$allocator@U?$pair@QAUHWND__@@UCWndData@@@std@@@4@$0A@@std@@@std@@QAEXXZ ; std::_Tree<std::_Tmap_traits<HWND__ *,CWndData,std::less<HWND__ *>,std::allocator<std::pair<HWND__ * const,CWndData> >,0> >::const_iterator::_Dec

; 229  : 			return (*this);

  00016	8b 45 fc	 mov	 eax, DWORD PTR _this$[ebp]

; 230  : 			}

  00019	83 c4 04	 add	 esp, 4
  0001c	3b ec		 cmp	 ebp, esp
  0001e	e8 00 00 00 00	 call	 __RTC_CheckEsp
  00023	8b e5		 mov	 esp, ebp
  00025	5d		 pop	 ebp
  00026	c3		 ret	 0
??Fconst_iterator@?$_Tree@V?$_Tmap_traits@PAUHWND__@@UCWndData@@U?$less@PAUHWND__@@@std@@V?$allocator@U?$pair@QAUHWND__@@UCWndData@@@std@@@4@$0A@@std@@@std@@QAEAAV012@XZ ENDP ; std::_Tree<std::_Tmap_traits<HWND__ *,CWndData,std::less<HWND__ *>,std::allocator<std::pair<HWND__ * const,CWndData> >,0> >::const_iterator::operator--
; Function compile flags: /Odt /RTCsu
_TEXT	ENDS
;	COMDAT ?_Inc@const_iterator@?$_Tree@V?$_Tmap_traits@PAUHWND__@@UCWndData@@U?$less@PAUHWND__@@@std@@V?$allocator@U?$pair@QAUHWND__@@UCWndData@@@std@@@4@$0A@@std@@@std@@QAEXXZ
_TEXT	SEGMENT
__Pnode$190931 = -8					; size = 4
_this$ = -4						; size = 4
?_Inc@const_iterator@?$_Tree@V?$_Tmap_traits@PAUHWND__@@UCWndData@@U?$less@PAUHWND__@@@std@@V?$allocator@U?$pair@QAUHWND__@@UCWndData@@@std@@@4@$0A@@std@@@std@@QAEXXZ PROC NEAR ; std::_Tree<std::_Tmap_traits<HWND__ *,CWndData,std::less<HWND__ *>,std::allocator<std::pair<HWND__ * const,CWndData> >,0> >::const_iterator::_Inc, COMDAT
; _this$ = ecx

; 267  : 			{	// move to node with next larger value

  00000	55		 push	 ebp
  00001	8b ec		 mov	 ebp, esp
  00003	83 ec 08	 sub	 esp, 8
  00006	c7 45 f8 cc cc
	cc cc		 mov	 DWORD PTR [ebp-8], -858993460 ; ccccccccH
  0000d	c7 45 fc cc cc
	cc cc		 mov	 DWORD PTR [ebp-4], -858993460 ; ccccccccH
  00014	89 4d fc	 mov	 DWORD PTR _this$[ebp], ecx

; 268  : 			if (_Isnil(_Ptr))

  00017	8b 45 fc	 mov	 eax, DWORD PTR _this$[ebp]
  0001a	8b 08		 mov	 ecx, DWORD PTR [eax]
  0001c	51		 push	 ecx
  0001d	e8 00 00 00 00	 call	 ?_Isnil@?$_Tree@V?$_Tmap_traits@PAUHWND__@@UCWndData@@U?$less@PAUHWND__@@@std@@V?$allocator@U?$pair@QAUHWND__@@UCWndData@@@std@@@4@$0A@@std@@@std@@KAAADPAU_Node@?$_Tree_nod@V?$_Tmap_traits@PAUHWND__@@UCWndData@@U?$less@PAUHWND__@@@std@@V?$allocator@U?$pair@QAUHWND__@@UCWndData@@@std@@@4@$0A@@std@@@2@@Z ; std::_Tree<std::_Tmap_traits<HWND__ *,CWndData,std::less<HWND__ *>,std::allocator<std::pair<HWND__ * const,CWndData> >,0> >::_Isnil
  00022	83 c4 04	 add	 esp, 4
  00025	0f be 10	 movsx	 edx, BYTE PTR [eax]
  00028	85 d2		 test	 edx, edx
  0002a	74 05		 je	 SHORT $L190927

; 269  : 				;	// end() shouldn't be incremented, don't move
; 270  : 			else if (!_Isnil(_Right(_Ptr)))

  0002c	e9 8d 00 00 00	 jmp	 $L190926
$L190927:
  00031	8b 45 fc	 mov	 eax, DWORD PTR _this$[ebp]
  00034	8b 08		 mov	 ecx, DWORD PTR [eax]
  00036	51		 push	 ecx
  00037	e8 00 00 00 00	 call	 ?_Right@?$_Tree@V?$_Tmap_traits@PAUHWND__@@UCWndData@@U?$less@PAUHWND__@@@std@@V?$allocator@U?$pair@QAUHWND__@@UCWndData@@@std@@@4@$0A@@std@@@std@@KAAAPAU_Node@?$_Tree_nod@V?$_Tmap_traits@PAUHWND__@@UCWndData@@U?$less@PAUHWND__@@@std@@V?$allocator@U?$pair@QAUHWND__@@UCWndData@@@std@@@4@$0A@@std@@@2@PAU342@@Z ; std::_Tree<std::_Tmap_traits<HWND__ *,CWndData,std::less<HWND__ *>,std::allocator<std::pair<HWND__ * const,CWndData> >,0> >::_Right
  0003c	83 c4 04	 add	 esp, 4
  0003f	8b 10		 mov	 edx, DWORD PTR [eax]
  00041	52		 push	 edx
  00042	e8 00 00 00 00	 call	 ?_Isnil@?$_Tree@V?$_Tmap_traits@PAUHWND__@@UCWndData@@U?$less@PAUHWND__@@@std@@V?$allocator@U?$pair@QAUHWND__@@UCWndData@@@std@@@4@$0A@@std@@@std@@KAAADPAU_Node@?$_Tree_nod@V?$_Tmap_traits@PAUHWND__@@UCWndData@@U?$less@PAUHWND__@@@std@@V?$allocator@U?$pair@QAUHWND__@@UCWndData@@@std@@@4@$0A@@std@@@2@@Z ; std::_Tree<std::_Tmap_traits<HWND__ *,CWndData,std::less<HWND__ *>,std::allocator<std::pair<HWND__ * const,CWndData> >,0> >::_Isnil
  00047	83 c4 04	 add	 esp, 4
  0004a	0f be 00	 movsx	 eax, BYTE PTR [eax]
  0004d	85 c0		 test	 eax, eax
  0004f	75 20		 jne	 SHORT $L190933

; 271  : 				_Ptr = _Min(_Right(_Ptr));	// ==> smallest of right subtree

  00051	8b 4d fc	 mov	 ecx, DWORD PTR _this$[ebp]
  00054	8b 11		 mov	 edx, DWORD PTR [ecx]
  00056	52		 push	 edx
  00057	e8 00 00 00 00	 call	 ?_Right@?$_Tree@V?$_Tmap_traits@PAUHWND__@@UCWndData@@U?$less@PAUHWND__@@@std@@V?$allocator@U?$pair@QAUHWND__@@UCWndData@@@std@@@4@$0A@@std@@@std@@KAAAPAU_Node@?$_Tree_nod@V?$_Tmap_traits@PAUHWND__@@UCWndData@@U?$less@PAUHWND__@@@std@@V?$allocator@U?$pair@QAUHWND__@@UCWndData@@@std@@@4@$0A@@std@@@2@PAU342@@Z ; std::_Tree<std::_Tmap_traits<HWND__ *,CWndData,std::less<HWND__ *>,std::allocator<std::pair<HWND__ * const,CWndData> >,0> >::_Right
  0005c	83 c4 04	 add	 esp, 4
  0005f	8b 00		 mov	 eax, DWORD PTR [eax]
  00061	50		 push	 eax
  00062	e8 00 00 00 00	 call	 ?_Min@?$_Tree@V?$_Tmap_traits@PAUHWND__@@UCWndData@@U?$less@PAUHWND__@@@std@@V?$allocator@U?$pair@QAUHWND__@@UCWndData@@@std@@@4@$0A@@std@@@std@@KAPAU_Node@?$_Tree_nod@V?$_Tmap_traits@PAUHWND__@@UCWndData@@U?$less@PAUHWND__@@@std@@V?$allocator@U?$pair@QAUHWND__@@UCWndData@@@std@@@4@$0A@@std@@@2@PAU342@@Z ; std::_Tree<std::_Tmap_traits<HWND__ *,CWndData,std::less<HWND__ *>,std::allocator<std::pair<HWND__ * const,CWndData> >,0> >::_Min
  00067	83 c4 04	 add	 esp, 4
  0006a	8b 4d fc	 mov	 ecx, DWORD PTR _this$[ebp]
  0006d	89 01		 mov	 DWORD PTR [ecx], eax

; 272  : 			else

  0006f	eb 4d		 jmp	 SHORT $L190926
$L190933:

; 273  : 				{	// climb looking for right subtree
; 274  : 				_Nodeptr _Pnode;
; 275  : 				while (!_Isnil(_Pnode = _Parent(_Ptr))
; 276  : 					&& _Ptr == _Right(_Pnode))

  00071	8b 55 fc	 mov	 edx, DWORD PTR _this$[ebp]
  00074	8b 02		 mov	 eax, DWORD PTR [edx]
  00076	50		 push	 eax
  00077	e8 00 00 00 00	 call	 ?_Parent@?$_Tree@V?$_Tmap_traits@PAUHWND__@@UCWndData@@U?$less@PAUHWND__@@@std@@V?$allocator@U?$pair@QAUHWND__@@UCWndData@@@std@@@4@$0A@@std@@@std@@KAAAPAU_Node@?$_Tree_nod@V?$_Tmap_traits@PAUHWND__@@UCWndData@@U?$less@PAUHWND__@@@std@@V?$allocator@U?$pair@QAUHWND__@@UCWndData@@@std@@@4@$0A@@std@@@2@PAU342@@Z ; std::_Tree<std::_Tmap_traits<HWND__ *,CWndData,std::less<HWND__ *>,std::allocator<std::pair<HWND__ * const,CWndData> >,0> >::_Parent
  0007c	83 c4 04	 add	 esp, 4
  0007f	8b 08		 mov	 ecx, DWORD PTR [eax]
  00081	89 4d f8	 mov	 DWORD PTR __Pnode$190931[ebp], ecx
  00084	8b 55 f8	 mov	 edx, DWORD PTR __Pnode$190931[ebp]
  00087	52		 push	 edx
  00088	e8 00 00 00 00	 call	 ?_Isnil@?$_Tree@V?$_Tmap_traits@PAUHWND__@@UCWndData@@U?$less@PAUHWND__@@@std@@V?$allocator@U?$pair@QAUHWND__@@UCWndData@@@std@@@4@$0A@@std@@@std@@KAAADPAU_Node@?$_Tree_nod@V?$_Tmap_traits@PAUHWND__@@UCWndData@@U?$less@PAUHWND__@@@std@@V?$allocator@U?$pair@QAUHWND__@@UCWndData@@@std@@@4@$0A@@std@@@2@@Z ; std::_Tree<std::_Tmap_traits<HWND__ *,CWndData,std::less<HWND__ *>,std::allocator<std::pair<HWND__ * const,CWndData> >,0> >::_Isnil
  0008d	83 c4 04	 add	 esp, 4
  00090	0f be 00	 movsx	 eax, BYTE PTR [eax]
  00093	85 c0		 test	 eax, eax
  00095	75 1f		 jne	 SHORT $L190934
  00097	8b 4d f8	 mov	 ecx, DWORD PTR __Pnode$190931[ebp]
  0009a	51		 push	 ecx
  0009b	e8 00 00 00 00	 call	 ?_Right@?$_Tree@V?$_Tmap_traits@PAUHWND__@@UCWndData@@U?$less@PAUHWND__@@@std@@V?$allocator@U?$pair@QAUHWND__@@UCWndData@@@std@@@4@$0A@@std@@@std@@KAAAPAU_Node@?$_Tree_nod@V?$_Tmap_traits@PAUHWND__@@UCWndData@@U?$less@PAUHWND__@@@std@@V?$allocator@U?$pair@QAUHWND__@@UCWndData@@@std@@@4@$0A@@std@@@2@PAU342@@Z ; std::_Tree<std::_Tmap_traits<HWND__ *,CWndData,std::less<HWND__ *>,std::allocator<std::pair<HWND__ * const,CWndData> >,0> >::_Right
  000a0	83 c4 04	 add	 esp, 4
  000a3	8b 55 fc	 mov	 edx, DWORD PTR _this$[ebp]
  000a6	8b 0a		 mov	 ecx, DWORD PTR [edx]
  000a8	3b 08		 cmp	 ecx, DWORD PTR [eax]
  000aa	75 0a		 jne	 SHORT $L190934

; 277  : 					_Ptr = _Pnode;	// ==> parent while right subtree

  000ac	8b 55 fc	 mov	 edx, DWORD PTR _this$[ebp]
  000af	8b 45 f8	 mov	 eax, DWORD PTR __Pnode$190931[ebp]
  000b2	89 02		 mov	 DWORD PTR [edx], eax
  000b4	eb bb		 jmp	 SHORT $L190933
$L190934:

; 278  : 				_Ptr = _Pnode;	// ==> parent (head if end())

  000b6	8b 4d fc	 mov	 ecx, DWORD PTR _this$[ebp]
  000b9	8b 55 f8	 mov	 edx, DWORD PTR __Pnode$190931[ebp]
  000bc	89 11		 mov	 DWORD PTR [ecx], edx
$L190926:

; 279  : 				}
; 280  : 			}

  000be	83 c4 08	 add	 esp, 8
  000c1	3b ec		 cmp	 ebp, esp
  000c3	e8 00 00 00 00	 call	 __RTC_CheckEsp
  000c8	8b e5		 mov	 esp, ebp
  000ca	5d		 pop	 ebp
  000cb	c3		 ret	 0
?_Inc@const_iterator@?$_Tree@V?$_Tmap_traits@PAUHWND__@@UCWndData@@U?$less@PAUHWND__@@@std@@V?$allocator@U?$pair@QAUHWND__@@UCWndData@@@std@@@4@$0A@@std@@@std@@QAEXXZ ENDP ; std::_Tree<std::_Tmap_traits<HWND__ *,CWndData,std::less<HWND__ *>,std::allocator<std::pair<HWND__ * const,CWndData> >,0> >::const_iterator::_Inc
; Function compile flags: /Odt /RTCsu
; File d:\program files (x86)\microsoft visual studio .net 2003\vc7\include\vector
_TEXT	ENDS
;	COMDAT ??0const_iterator@?$vector@PAVCHostWnd@@V?$allocator@PAVCHostWnd@@@std@@@std@@QAE@PAPAVCHostWnd@@@Z
_TEXT	SEGMENT
_this$ = -4						; size = 4
__Ptr$ = 8						; size = 4
??0const_iterator@?$vector@PAVCHostWnd@@V?$allocator@PAVCHostWnd@@@std@@@std@@QAE@PAPAVCHostWnd@@@Z PROC NEAR ; std::vector<CHostWnd *,std::allocator<CHostWnd *> >::const_iterator::const_iterator, COMDAT
; _this$ = ecx

; 73   : 		const_iterator(_Tptr _Ptr)

  00000	55		 push	 ebp
  00001	8b ec		 mov	 ebp, esp
  00003	51		 push	 ecx
  00004	c7 45 fc cc cc
	cc cc		 mov	 DWORD PTR [ebp-4], -858993460 ; ccccccccH
  0000b	89 4d fc	 mov	 DWORD PTR _this$[ebp], ecx

; 74   : 			{	// construct with pointer _Ptr
; 75   : 			_Myptr = _Ptr;

  0000e	8b 45 fc	 mov	 eax, DWORD PTR _this$[ebp]
  00011	8b 4d 08	 mov	 ecx, DWORD PTR __Ptr$[ebp]
  00014	89 08		 mov	 DWORD PTR [eax], ecx

; 76   : 			}

  00016	8b 45 fc	 mov	 eax, DWORD PTR _this$[ebp]
  00019	8b e5		 mov	 esp, ebp
  0001b	5d		 pop	 ebp
  0001c	c2 04 00	 ret	 4
??0const_iterator@?$vector@PAVCHostWnd@@V?$allocator@PAVCHostWnd@@@std@@@std@@QAE@PAPAVCHostWnd@@@Z ENDP ; std::vector<CHostWnd *,std::allocator<CHostWnd *> >::const_iterator::const_iterator
; Function compile flags: /Odt /RTCsu
_TEXT	ENDS
;	COMDAT ??Gconst_iterator@?$vector@PAVCHostWnd@@V?$allocator@PAVCHostWnd@@@std@@@std@@QBEHABV012@@Z
_TEXT	SEGMENT
_this$ = -4						; size = 4
__Right$ = 8						; size = 4
??Gconst_iterator@?$vector@PAVCHostWnd@@V?$allocator@PAVCHostWnd@@@std@@@std@@QBEHABV012@@Z PROC NEAR ; std::vector<CHostWnd *,std::allocator<CHostWnd *> >::const_iterator::operator-, COMDAT
; _this$ = ecx

; 140  : 			{	// return difference of iterators

  00000	55		 push	 ebp
  00001	8b ec		 mov	 ebp, esp
  00003	51		 push	 ecx
  00004	c7 45 fc cc cc
	cc cc		 mov	 DWORD PTR [ebp-4], -858993460 ; ccccccccH
  0000b	89 4d fc	 mov	 DWORD PTR _this$[ebp], ecx

; 141  : 
; 142  : 
; 143  : 			return (_Myptr - _Right._Myptr);

  0000e	8b 45 fc	 mov	 eax, DWORD PTR _this$[ebp]
  00011	8b 4d 08	 mov	 ecx, DWORD PTR __Right$[ebp]
  00014	8b 00		 mov	 eax, DWORD PTR [eax]
  00016	2b 01		 sub	 eax, DWORD PTR [ecx]
  00018	c1 f8 02	 sar	 eax, 2

; 144  : 			}

  0001b	8b e5		 mov	 esp, ebp
  0001d	5d		 pop	 ebp
  0001e	c2 04 00	 ret	 4
??Gconst_iterator@?$vector@PAVCHostWnd@@V?$allocator@PAVCHostWnd@@@std@@@std@@QBEHABV012@@Z ENDP ; std::vector<CHostWnd *,std::allocator<CHostWnd *> >::const_iterator::operator-
; Function compile flags: /Odt /RTCsu
_TEXT	ENDS
;	COMDAT ??0const_iterator@?$vector@USepWindowData@@V?$allocator@USepWindowData@@@std@@@std@@QAE@PAUSepWindowData@@@Z
_TEXT	SEGMENT
_this$ = -4						; size = 4
__Ptr$ = 8						; size = 4
??0const_iterator@?$vector@USepWindowData@@V?$allocator@USepWindowData@@@std@@@std@@QAE@PAUSepWindowData@@@Z PROC NEAR ; std::vector<SepWindowData,std::allocator<SepWindowData> >::const_iterator::const_iterator, COMDAT
; _this$ = ecx

; 73   : 		const_iterator(_Tptr _Ptr)

  00000	55		 push	 ebp
  00001	8b ec		 mov	 ebp, esp
  00003	51		 push	 ecx
  00004	c7 45 fc cc cc
	cc cc		 mov	 DWORD PTR [ebp-4], -858993460 ; ccccccccH
  0000b	89 4d fc	 mov	 DWORD PTR _this$[ebp], ecx

; 74   : 			{	// construct with pointer _Ptr
; 75   : 			_Myptr = _Ptr;

  0000e	8b 45 fc	 mov	 eax, DWORD PTR _this$[ebp]
  00011	8b 4d 08	 mov	 ecx, DWORD PTR __Ptr$[ebp]
  00014	89 08		 mov	 DWORD PTR [eax], ecx

; 76   : 			}

  00016	8b 45 fc	 mov	 eax, DWORD PTR _this$[ebp]
  00019	8b e5		 mov	 esp, ebp
  0001b	5d		 pop	 ebp
  0001c	c2 04 00	 ret	 4
??0const_iterator@?$vector@USepWindowData@@V?$allocator@USepWindowData@@@std@@@std@@QAE@PAUSepWindowData@@@Z ENDP ; std::vector<SepWindowData,std::allocator<SepWindowData> >::const_iterator::const_iterator
; Function compile flags: /Odt /RTCsu
; File d:\program files (x86)\microsoft visual studio .net 2003\vc7\include\utility
_TEXT	ENDS
;	COMDAT ??0?$pair@Viterator@?$_Tree@V?$_Tmap_traits@PAUHWND__@@UCWndData@@U?$less@PAUHWND__@@@std@@V?$allocator@U?$pair@QAUHWND__@@UCWndData@@@std@@@4@$0A@@std@@@std@@_N@std@@QAE@ABViterator@?$_Tree@V?$_Tmap_traits@PAUHWND__@@UCWndData@@U?$less@PAUHWND__@@@std@@V?$allocator@U?$pair@QAUHWND__@@UCWndData@@@std@@@4@$0A@@std@@@1@AB_N@Z
_TEXT	SEGMENT
_this$ = -4						; size = 4
__Val1$ = 8						; size = 4
__Val2$ = 12						; size = 4
??0?$pair@Viterator@?$_Tree@V?$_Tmap_traits@PAUHWND__@@UCWndData@@U?$less@PAUHWND__@@@std@@V?$allocator@U?$pair@QAUHWND__@@UCWndData@@@std@@@4@$0A@@std@@@std@@_N@std@@QAE@ABViterator@?$_Tree@V?$_Tmap_traits@PAUHWND__@@UCWndData@@U?$less@PAUHWND__@@@std@@V?$allocator@U?$pair@QAUHWND__@@UCWndData@@@std@@@4@$0A@@std@@@1@AB_N@Z PROC NEAR ; std::pair<std::_Tree<std::_Tmap_traits<HWND__ *,CWndData,std::less<HWND__ *>,std::allocator<std::pair<HWND__ * const,CWndData> >,0> >::iterator,bool>::pair<std::_Tree<std::_Tmap_traits<HWND__ *,CWndData,std::less<HWND__ *>,std::allocator<std::pair<HWND__ * const,CWndData> >,0> >::iterator,bool>, COMDAT
; _this$ = ecx

; 34   : 		{	// construct from specified values

  00000	55		 push	 ebp
  00001	8b ec		 mov	 ebp, esp
  00003	51		 push	 ecx
  00004	c7 45 fc cc cc
	cc cc		 mov	 DWORD PTR [ebp-4], -858993460 ; ccccccccH
  0000b	89 4d fc	 mov	 DWORD PTR _this$[ebp], ecx
  0000e	8b 45 08	 mov	 eax, DWORD PTR __Val1$[ebp]
  00011	8b 08		 mov	 ecx, DWORD PTR [eax]
  00013	8b 55 fc	 mov	 edx, DWORD PTR _this$[ebp]
  00016	89 0a		 mov	 DWORD PTR [edx], ecx
  00018	8b 45 fc	 mov	 eax, DWORD PTR _this$[ebp]
  0001b	8b 4d 0c	 mov	 ecx, DWORD PTR __Val2$[ebp]
  0001e	8a 11		 mov	 dl, BYTE PTR [ecx]
  00020	88 50 04	 mov	 BYTE PTR [eax+4], dl

; 35   : 		}

  00023	8b 45 fc	 mov	 eax, DWORD PTR _this$[ebp]
  00026	8b e5		 mov	 esp, ebp
  00028	5d		 pop	 ebp
  00029	c2 08 00	 ret	 8
??0?$pair@Viterator@?$_Tree@V?$_Tmap_traits@PAUHWND__@@UCWndData@@U?$less@PAUHWND__@@@std@@V?$allocator@U?$pair@QAUHWND__@@UCWndData@@@std@@@4@$0A@@std@@@std@@_N@std@@QAE@ABViterator@?$_Tree@V?$_Tmap_traits@PAUHWND__@@UCWndData@@U?$less@PAUHWND__@@@std@@V?$allocator@U?$pair@QAUHWND__@@UCWndData@@@std@@@4@$0A@@std@@@1@AB_N@Z ENDP ; std::pair<std::_Tree<std::_Tmap_traits<HWND__ *,CWndData,std::less<HWND__ *>,std::allocator<std::pair<HWND__ * const,CWndData> >,0> >::iterator,bool>::pair<std::_Tree<std::_Tmap_traits<HWND__ *,CWndData,std::less<HWND__ *>,std::allocator<std::pair<HWND__ * const,CWndData> >,0> >::iterator,bool>
; Function compile flags: /Odt /RTCsu
; File d:\program files (x86)\microsoft visual studio .net 2003\vc7\include\xtree
_TEXT	ENDS
;	COMDAT ?_Erase@?$_Tree@V?$_Tmap_traits@PAUHWND__@@UCWndData@@U?$less@PAUHWND__@@@std@@V?$allocator@U?$pair@QAUHWND__@@UCWndData@@@std@@@4@$0A@@std@@@std@@IAEXPAU_Node@?$_Tree_nod@V?$_Tmap_traits@PAUHWND__@@UCWndData@@U?$less@PAUHWND__@@@std@@V?$allocator@U?$pair@QAUHWND__@@UCWndData@@@std@@@4@$0A@@std@@@2@@Z
_TEXT	SEGMENT
__Pnode$190951 = -8					; size = 4
_this$ = -4						; size = 4
__Rootnode$ = 8						; size = 4
?_Erase@?$_Tree@V?$_Tmap_traits@PAUHWND__@@UCWndData@@U?$less@PAUHWND__@@@std@@V?$allocator@U?$pair@QAUHWND__@@UCWndData@@@std@@@4@$0A@@std@@@std@@IAEXPAU_Node@?$_Tree_nod@V?$_Tmap_traits@PAUHWND__@@UCWndData@@U?$less@PAUHWND__@@@std@@V?$allocator@U?$pair@QAUHWND__@@UCWndData@@@std@@@4@$0A@@std@@@2@@Z PROC NEAR ; std::_Tree<std::_Tmap_traits<HWND__ *,CWndData,std::less<HWND__ *>,std::allocator<std::pair<HWND__ * const,CWndData> >,0> >::_Erase, COMDAT
; _this$ = ecx

; 890  : 		{	// free entire subtree, recursively

  00000	55		 push	 ebp
  00001	8b ec		 mov	 ebp, esp
  00003	83 ec 08	 sub	 esp, 8
  00006	c7 45 f8 cc cc
	cc cc		 mov	 DWORD PTR [ebp-8], -858993460 ; ccccccccH
  0000d	c7 45 fc cc cc
	cc cc		 mov	 DWORD PTR [ebp-4], -858993460 ; ccccccccH
  00014	89 4d fc	 mov	 DWORD PTR _this$[ebp], ecx

; 891  : 		for (_Nodeptr _Pnode = _Rootnode; !_Isnil(_Pnode); _Rootnode = _Pnode)

  00017	8b 45 08	 mov	 eax, DWORD PTR __Rootnode$[ebp]
  0001a	89 45 f8	 mov	 DWORD PTR __Pnode$190951[ebp], eax
  0001d	eb 06		 jmp	 SHORT $L190952
$L190953:
  0001f	8b 4d f8	 mov	 ecx, DWORD PTR __Pnode$190951[ebp]
  00022	89 4d 08	 mov	 DWORD PTR __Rootnode$[ebp], ecx
$L190952:
  00025	8b 55 f8	 mov	 edx, DWORD PTR __Pnode$190951[ebp]
  00028	52		 push	 edx
  00029	e8 00 00 00 00	 call	 ?_Isnil@?$_Tree@V?$_Tmap_traits@PAUHWND__@@UCWndData@@U?$less@PAUHWND__@@@std@@V?$allocator@U?$pair@QAUHWND__@@UCWndData@@@std@@@4@$0A@@std@@@std@@KAAADPAU_Node@?$_Tree_nod@V?$_Tmap_traits@PAUHWND__@@UCWndData@@U?$less@PAUHWND__@@@std@@V?$allocator@U?$pair@QAUHWND__@@UCWndData@@@std@@@4@$0A@@std@@@2@@Z ; std::_Tree<std::_Tmap_traits<HWND__ *,CWndData,std::less<HWND__ *>,std::allocator<std::pair<HWND__ * const,CWndData> >,0> >::_Isnil
  0002e	83 c4 04	 add	 esp, 4
  00031	0f be 00	 movsx	 eax, BYTE PTR [eax]
  00034	85 c0		 test	 eax, eax
  00036	75 4a		 jne	 SHORT $L190950

; 892  : 			{	// free subtrees, then node
; 893  : 			_Erase(_Right(_Pnode));

  00038	8b 4d f8	 mov	 ecx, DWORD PTR __Pnode$190951[ebp]
  0003b	51		 push	 ecx
  0003c	e8 00 00 00 00	 call	 ?_Right@?$_Tree@V?$_Tmap_traits@PAUHWND__@@UCWndData@@U?$less@PAUHWND__@@@std@@V?$allocator@U?$pair@QAUHWND__@@UCWndData@@@std@@@4@$0A@@std@@@std@@KAAAPAU_Node@?$_Tree_nod@V?$_Tmap_traits@PAUHWND__@@UCWndData@@U?$less@PAUHWND__@@@std@@V?$allocator@U?$pair@QAUHWND__@@UCWndData@@@std@@@4@$0A@@std@@@2@PAU342@@Z ; std::_Tree<std::_Tmap_traits<HWND__ *,CWndData,std::less<HWND__ *>,std::allocator<std::pair<HWND__ * const,CWndData> >,0> >::_Right
  00041	83 c4 04	 add	 esp, 4
  00044	8b 10		 mov	 edx, DWORD PTR [eax]
  00046	52		 push	 edx
  00047	8b 4d fc	 mov	 ecx, DWORD PTR _this$[ebp]
  0004a	e8 00 00 00 00	 call	 ?_Erase@?$_Tree@V?$_Tmap_traits@PAUHWND__@@UCWndData@@U?$less@PAUHWND__@@@std@@V?$allocator@U?$pair@QAUHWND__@@UCWndData@@@std@@@4@$0A@@std@@@std@@IAEXPAU_Node@?$_Tree_nod@V?$_Tmap_traits@PAUHWND__@@UCWndData@@U?$less@PAUHWND__@@@std@@V?$allocator@U?$pair@QAUHWND__@@UCWndData@@@std@@@4@$0A@@std@@@2@@Z ; std::_Tree<std::_Tmap_traits<HWND__ *,CWndData,std::less<HWND__ *>,std::allocator<std::pair<HWND__ * const,CWndData> >,0> >::_Erase

; 894  : 			_Pnode = _Left(_Pnode);

  0004f	8b 45 f8	 mov	 eax, DWORD PTR __Pnode$190951[ebp]
  00052	50		 push	 eax
  00053	e8 00 00 00 00	 call	 ?_Left@?$_Tree@V?$_Tmap_traits@PAUHWND__@@UCWndData@@U?$less@PAUHWND__@@@std@@V?$allocator@U?$pair@QAUHWND__@@UCWndData@@@std@@@4@$0A@@std@@@std@@KAAAPAU_Node@?$_Tree_nod@V?$_Tmap_traits@PAUHWND__@@UCWndData@@U?$less@PAUHWND__@@@std@@V?$allocator@U?$pair@QAUHWND__@@UCWndData@@@std@@@4@$0A@@std@@@2@PAU342@@Z ; std::_Tree<std::_Tmap_traits<HWND__ *,CWndData,std::less<HWND__ *>,std::allocator<std::pair<HWND__ * const,CWndData> >,0> >::_Left
  00058	83 c4 04	 add	 esp, 4
  0005b	8b 08		 mov	 ecx, DWORD PTR [eax]
  0005d	89 4d f8	 mov	 DWORD PTR __Pnode$190951[ebp], ecx

; 895  : 			this->_Alnod.destroy(_Rootnode);	// destroy, free erased node

  00060	8b 55 08	 mov	 edx, DWORD PTR __Rootnode$[ebp]
  00063	52		 push	 edx
  00064	8b 4d fc	 mov	 ecx, DWORD PTR _this$[ebp]
  00067	83 c1 01	 add	 ecx, 1
  0006a	e8 00 00 00 00	 call	 ?destroy@?$allocator@U_Node@?$_Tree_nod@V?$_Tmap_traits@PAUHWND__@@UCWndData@@U?$less@PAUHWND__@@@std@@V?$allocator@U?$pair@QAUHWND__@@UCWndData@@@std@@@4@$0A@@std@@@std@@@std@@QAEXPAU_Node@?$_Tree_nod@V?$_Tmap_traits@PAUHWND__@@UCWndData@@U?$less@PAUHWND__@@@std@@V?$allocator@U?$pair@QAUHWND__@@UCWndData@@@std@@@4@$0A@@std@@@2@@Z ; std::allocator<std::_Tree_nod<std::_Tmap_traits<HWND__ *,CWndData,std::less<HWND__ *>,std::allocator<std::pair<HWND__ * const,CWndData> >,0> >::_Node>::destroy

; 896  : 			this->_Alnod.deallocate(_Rootnode, 1);

  0006f	6a 01		 push	 1
  00071	8b 45 08	 mov	 eax, DWORD PTR __Rootnode$[ebp]
  00074	50		 push	 eax
  00075	8b 4d fc	 mov	 ecx, DWORD PTR _this$[ebp]
  00078	83 c1 01	 add	 ecx, 1
  0007b	e8 00 00 00 00	 call	 ?deallocate@?$allocator@U_Node@?$_Tree_nod@V?$_Tmap_traits@PAUHWND__@@UCWndData@@U?$less@PAUHWND__@@@std@@V?$allocator@U?$pair@QAUHWND__@@UCWndData@@@std@@@4@$0A@@std@@@std@@@std@@QAEXPAU_Node@?$_Tree_nod@V?$_Tmap_traits@PAUHWND__@@UCWndData@@U?$less@PAUHWND__@@@std@@V?$allocator@U?$pair@QAUHWND__@@UCWndData@@@std@@@4@$0A@@std@@@2@I@Z ; std::allocator<std::_Tree_nod<std::_Tmap_traits<HWND__ *,CWndData,std::less<HWND__ *>,std::allocator<std::pair<HWND__ * const,CWndData> >,0> >::_Node>::deallocate

; 897  : 			}

  00080	eb 9d		 jmp	 SHORT $L190953
$L190950:

; 898  : 		}

  00082	83 c4 08	 add	 esp, 8
  00085	3b ec		 cmp	 ebp, esp
  00087	e8 00 00 00 00	 call	 __RTC_CheckEsp
  0008c	8b e5		 mov	 esp, ebp
  0008e	5d		 pop	 ebp
  0008f	c2 04 00	 ret	 4
?_Erase@?$_Tree@V?$_Tmap_traits@PAUHWND__@@UCWndData@@U?$less@PAUHWND__@@@std@@V?$allocator@U?$pair@QAUHWND__@@UCWndData@@@std@@@4@$0A@@std@@@std@@IAEXPAU_Node@?$_Tree_nod@V?$_Tmap_traits@PAUHWND__@@UCWndData@@U?$less@PAUHWND__@@@std@@V?$allocator@U?$pair@QAUHWND__@@UCWndData@@@std@@@4@$0A@@std@@@2@@Z ENDP ; std::_Tree<std::_Tmap_traits<HWND__ *,CWndData,std::less<HWND__ *>,std::allocator<std::pair<HWND__ * const,CWndData> >,0> >::_Erase
; Function compile flags: /Odt /RTCsu
_TEXT	ENDS
;	COMDAT ?_Max@?$_Tree@V?$_Tmap_traits@PAUHWND__@@UCWndData@@U?$less@PAUHWND__@@@std@@V?$allocator@U?$pair@QAUHWND__@@UCWndData@@@std@@@4@$0A@@std@@@std@@KAPAU_Node@?$_Tree_nod@V?$_Tmap_traits@PAUHWND__@@UCWndData@@U?$less@PAUHWND__@@@std@@V?$allocator@U?$pair@QAUHWND__@@UCWndData@@@std@@@4@$0A@@std@@@2@PAU342@@Z
_TEXT	SEGMENT
__Pnode$ = 8						; size = 4
?_Max@?$_Tree@V?$_Tmap_traits@PAUHWND__@@UCWndData@@U?$less@PAUHWND__@@@std@@V?$allocator@U?$pair@QAUHWND__@@UCWndData@@@std@@@4@$0A@@std@@@std@@KAPAU_Node@?$_Tree_nod@V?$_Tmap_traits@PAUHWND__@@UCWndData@@U?$less@PAUHWND__@@@std@@V?$allocator@U?$pair@QAUHWND__@@UCWndData@@@std@@@4@$0A@@std@@@2@PAU342@@Z PROC NEAR ; std::_Tree<std::_Tmap_traits<HWND__ *,CWndData,std::less<HWND__ *>,std::allocator<std::pair<HWND__ * const,CWndData> >,0> >::_Max, COMDAT

; 1034 : 		{	// return rightmost node in subtree at _Pnode

  00000	55		 push	 ebp
  00001	8b ec		 mov	 ebp, esp
$L190957:

; 1035 : 		while (!_Isnil(_Right(_Pnode)))

  00003	8b 45 08	 mov	 eax, DWORD PTR __Pnode$[ebp]
  00006	50		 push	 eax
  00007	e8 00 00 00 00	 call	 ?_Right@?$_Tree@V?$_Tmap_traits@PAUHWND__@@UCWndData@@U?$less@PAUHWND__@@@std@@V?$allocator@U?$pair@QAUHWND__@@UCWndData@@@std@@@4@$0A@@std@@@std@@KAAAPAU_Node@?$_Tree_nod@V?$_Tmap_traits@PAUHWND__@@UCWndData@@U?$less@PAUHWND__@@@std@@V?$allocator@U?$pair@QAUHWND__@@UCWndData@@@std@@@4@$0A@@std@@@2@PAU342@@Z ; std::_Tree<std::_Tmap_traits<HWND__ *,CWndData,std::less<HWND__ *>,std::allocator<std::pair<HWND__ * const,CWndData> >,0> >::_Right
  0000c	83 c4 04	 add	 esp, 4
  0000f	8b 08		 mov	 ecx, DWORD PTR [eax]
  00011	51		 push	 ecx
  00012	e8 00 00 00 00	 call	 ?_Isnil@?$_Tree@V?$_Tmap_traits@PAUHWND__@@UCWndData@@U?$less@PAUHWND__@@@std@@V?$allocator@U?$pair@QAUHWND__@@UCWndData@@@std@@@4@$0A@@std@@@std@@KAAADPAU_Node@?$_Tree_nod@V?$_Tmap_traits@PAUHWND__@@UCWndData@@U?$less@PAUHWND__@@@std@@V?$allocator@U?$pair@QAUHWND__@@UCWndData@@@std@@@4@$0A@@std@@@2@@Z ; std::_Tree<std::_Tmap_traits<HWND__ *,CWndData,std::less<HWND__ *>,std::allocator<std::pair<HWND__ * const,CWndData> >,0> >::_Isnil
  00017	83 c4 04	 add	 esp, 4
  0001a	0f be 10	 movsx	 edx, BYTE PTR [eax]
  0001d	85 d2		 test	 edx, edx
  0001f	75 13		 jne	 SHORT $L190958

; 1036 : 			_Pnode = _Right(_Pnode);

  00021	8b 45 08	 mov	 eax, DWORD PTR __Pnode$[ebp]
  00024	50		 push	 eax
  00025	e8 00 00 00 00	 call	 ?_Right@?$_Tree@V?$_Tmap_traits@PAUHWND__@@UCWndData@@U?$less@PAUHWND__@@@std@@V?$allocator@U?$pair@QAUHWND__@@UCWndData@@@std@@@4@$0A@@std@@@std@@KAAAPAU_Node@?$_Tree_nod@V?$_Tmap_traits@PAUHWND__@@UCWndData@@U?$less@PAUHWND__@@@std@@V?$allocator@U?$pair@QAUHWND__@@UCWndData@@@std@@@4@$0A@@std@@@2@PAU342@@Z ; std::_Tree<std::_Tmap_traits<HWND__ *,CWndData,std::less<HWND__ *>,std::allocator<std::pair<HWND__ * const,CWndData> >,0> >::_Right
  0002a	83 c4 04	 add	 esp, 4
  0002d	8b 08		 mov	 ecx, DWORD PTR [eax]
  0002f	89 4d 08	 mov	 DWORD PTR __Pnode$[ebp], ecx
  00032	eb cf		 jmp	 SHORT $L190957
$L190958:

; 1037 : 		return (_Pnode);

  00034	8b 45 08	 mov	 eax, DWORD PTR __Pnode$[ebp]

; 1038 : 		}

  00037	3b ec		 cmp	 ebp, esp
  00039	e8 00 00 00 00	 call	 __RTC_CheckEsp
  0003e	5d		 pop	 ebp
  0003f	c3		 ret	 0
?_Max@?$_Tree@V?$_Tmap_traits@PAUHWND__@@UCWndData@@U?$less@PAUHWND__@@@std@@V?$allocator@U?$pair@QAUHWND__@@UCWndData@@@std@@@4@$0A@@std@@@std@@KAPAU_Node@?$_Tree_nod@V?$_Tmap_traits@PAUHWND__@@UCWndData@@U?$less@PAUHWND__@@@std@@V?$allocator@U?$pair@QAUHWND__@@UCWndData@@@std@@@4@$0A@@std@@@2@PAU342@@Z ENDP ; std::_Tree<std::_Tmap_traits<HWND__ *,CWndData,std::less<HWND__ *>,std::allocator<std::pair<HWND__ * const,CWndData> >,0> >::_Max
; Function compile flags: /Odt /RTCsu
_TEXT	ENDS
;	COMDAT ?_Min@?$_Tree@V?$_Tmap_traits@PAUHWND__@@UCWndData@@U?$less@PAUHWND__@@@std@@V?$allocator@U?$pair@QAUHWND__@@UCWndData@@@std@@@4@$0A@@std@@@std@@KAPAU_Node@?$_Tree_nod@V?$_Tmap_traits@PAUHWND__@@UCWndData@@U?$less@PAUHWND__@@@std@@V?$allocator@U?$pair@QAUHWND__@@UCWndData@@@std@@@4@$0A@@std@@@2@PAU342@@Z
_TEXT	SEGMENT
__Pnode$ = 8						; size = 4
?_Min@?$_Tree@V?$_Tmap_traits@PAUHWND__@@UCWndData@@U?$less@PAUHWND__@@@std@@V?$allocator@U?$pair@QAUHWND__@@UCWndData@@@std@@@4@$0A@@std@@@std@@KAPAU_Node@?$_Tree_nod@V?$_Tmap_traits@PAUHWND__@@UCWndData@@U?$less@PAUHWND__@@@std@@V?$allocator@U?$pair@QAUHWND__@@UCWndData@@@std@@@4@$0A@@std@@@2@PAU342@@Z PROC NEAR ; std::_Tree<std::_Tmap_traits<HWND__ *,CWndData,std::less<HWND__ *>,std::allocator<std::pair<HWND__ * const,CWndData> >,0> >::_Min, COMDAT

; 1041 : 		{	// return leftmost node in subtree at _Pnode

  00000	55		 push	 ebp
  00001	8b ec		 mov	 ebp, esp
$L190961:

; 1042 : 		while (!_Isnil(_Left(_Pnode)))

  00003	8b 45 08	 mov	 eax, DWORD PTR __Pnode$[ebp]
  00006	50		 push	 eax
  00007	e8 00 00 00 00	 call	 ?_Left@?$_Tree@V?$_Tmap_traits@PAUHWND__@@UCWndData@@U?$less@PAUHWND__@@@std@@V?$allocator@U?$pair@QAUHWND__@@UCWndData@@@std@@@4@$0A@@std@@@std@@KAAAPAU_Node@?$_Tree_nod@V?$_Tmap_traits@PAUHWND__@@UCWndData@@U?$less@PAUHWND__@@@std@@V?$allocator@U?$pair@QAUHWND__@@UCWndData@@@std@@@4@$0A@@std@@@2@PAU342@@Z ; std::_Tree<std::_Tmap_traits<HWND__ *,CWndData,std::less<HWND__ *>,std::allocator<std::pair<HWND__ * const,CWndData> >,0> >::_Left
  0000c	83 c4 04	 add	 esp, 4
  0000f	8b 08		 mov	 ecx, DWORD PTR [eax]
  00011	51		 push	 ecx
  00012	e8 00 00 00 00	 call	 ?_Isnil@?$_Tree@V?$_Tmap_traits@PAUHWND__@@UCWndData@@U?$less@PAUHWND__@@@std@@V?$allocator@U?$pair@QAUHWND__@@UCWndData@@@std@@@4@$0A@@std@@@std@@KAAADPAU_Node@?$_Tree_nod@V?$_Tmap_traits@PAUHWND__@@UCWndData@@U?$less@PAUHWND__@@@std@@V?$allocator@U?$pair@QAUHWND__@@UCWndData@@@std@@@4@$0A@@std@@@2@@Z ; std::_Tree<std::_Tmap_traits<HWND__ *,CWndData,std::less<HWND__ *>,std::allocator<std::pair<HWND__ * const,CWndData> >,0> >::_Isnil
  00017	83 c4 04	 add	 esp, 4
  0001a	0f be 10	 movsx	 edx, BYTE PTR [eax]
  0001d	85 d2		 test	 edx, edx
  0001f	75 13		 jne	 SHORT $L190962

; 1043 : 			_Pnode = _Left(_Pnode);

  00021	8b 45 08	 mov	 eax, DWORD PTR __Pnode$[ebp]
  00024	50		 push	 eax
  00025	e8 00 00 00 00	 call	 ?_Left@?$_Tree@V?$_Tmap_traits@PAUHWND__@@UCWndData@@U?$less@PAUHWND__@@@std@@V?$allocator@U?$pair@QAUHWND__@@UCWndData@@@std@@@4@$0A@@std@@@std@@KAAAPAU_Node@?$_Tree_nod@V?$_Tmap_traits@PAUHWND__@@UCWndData@@U?$less@PAUHWND__@@@std@@V?$allocator@U?$pair@QAUHWND__@@UCWndData@@@std@@@4@$0A@@std@@@2@PAU342@@Z ; std::_Tree<std::_Tmap_traits<HWND__ *,CWndData,std::less<HWND__ *>,std::allocator<std::pair<HWND__ * const,CWndData> >,0> >::_Left
  0002a	83 c4 04	 add	 esp, 4
  0002d	8b 08		 mov	 ecx, DWORD PTR [eax]
  0002f	89 4d 08	 mov	 DWORD PTR __Pnode$[ebp], ecx
  00032	eb cf		 jmp	 SHORT $L190961
$L190962:

; 1044 : 		return (_Pnode);

  00034	8b 45 08	 mov	 eax, DWORD PTR __Pnode$[ebp]

; 1045 : 		}

  00037	3b ec		 cmp	 ebp, esp
  00039	e8 00 00 00 00	 call	 __RTC_CheckEsp
  0003e	5d		 pop	 ebp
  0003f	c3		 ret	 0
?_Min@?$_Tree@V?$_Tmap_traits@PAUHWND__@@UCWndData@@U?$less@PAUHWND__@@@std@@V?$allocator@U?$pair@QAUHWND__@@UCWndData@@@std@@@4@$0A@@std@@@std@@KAPAU_Node@?$_Tree_nod@V?$_Tmap_traits@PAUHWND__@@UCWndData@@U?$less@PAUHWND__@@@std@@V?$allocator@U?$pair@QAUHWND__@@UCWndData@@@std@@@4@$0A@@std@@@2@PAU342@@Z ENDP ; std::_Tree<std::_Tmap_traits<HWND__ *,CWndData,std::less<HWND__ *>,std::allocator<std::pair<HWND__ * const,CWndData> >,0> >::_Min
_TEXT	ENDS
PUBLIC	??0?$_Tmap_traits@PAUHWND__@@UCWndData@@U?$less@PAUHWND__@@@std@@V?$allocator@U?$pair@QAUHWND__@@UCWndData@@@std@@@4@$0A@@std@@QAE@U?$less@PAUHWND__@@@1@@Z ; std::_Tmap_traits<HWND__ *,CWndData,std::less<HWND__ *>,std::allocator<std::pair<HWND__ * const,CWndData> >,0>::_Tmap_traits<HWND__ *,CWndData,std::less<HWND__ *>,std::allocator<std::pair<HWND__ * const,CWndData> >,0>
PUBLIC	??$?0U?$pair@QAUHWND__@@UCWndData@@@std@@@?$allocator@U_Node@?$_Tree_nod@V?$_Tmap_traits@PAUHWND__@@UCWndData@@U?$less@PAUHWND__@@@std@@V?$allocator@U?$pair@QAUHWND__@@UCWndData@@@std@@@4@$0A@@std@@@std@@@std@@QAE@ABV?$allocator@U?$pair@QAUHWND__@@UCWndData@@@std@@@1@@Z ; std::allocator<std::_Tree_nod<std::_Tmap_traits<HWND__ *,CWndData,std::less<HWND__ *>,std::allocator<std::pair<HWND__ * const,CWndData> >,0> >::_Node>::allocator<std::_Tree_nod<std::_Tmap_traits<HWND__ *,CWndData,std::less<HWND__ *>,std::allocator<std::pair<HWND__ * const,CWndData> >,0> >::_Node><std::pair<HWND__ * const,CWndData> >
; Function compile flags: /Odt /RTCsu
;	COMDAT ??0?$_Tree_nod@V?$_Tmap_traits@PAUHWND__@@UCWndData@@U?$less@PAUHWND__@@@std@@V?$allocator@U?$pair@QAUHWND__@@UCWndData@@@std@@@4@$0A@@std@@@std@@IAE@ABU?$less@PAUHWND__@@@1@V?$allocator@U?$pair@QAUHWND__@@UCWndData@@@std@@@1@@Z
_TEXT	SEGMENT
_this$ = -4						; size = 4
__Parg$ = 8						; size = 4
__Al$ = 12						; size = 1
??0?$_Tree_nod@V?$_Tmap_traits@PAUHWND__@@UCWndData@@U?$less@PAUHWND__@@@std@@V?$allocator@U?$pair@QAUHWND__@@UCWndData@@@std@@@4@$0A@@std@@@std@@IAE@ABU?$less@PAUHWND__@@@1@V?$allocator@U?$pair@QAUHWND__@@UCWndData@@@std@@@1@@Z PROC NEAR ; std::_Tree_nod<std::_Tmap_traits<HWND__ *,CWndData,std::less<HWND__ *>,std::allocator<std::pair<HWND__ * const,CWndData> >,0> >::_Tree_nod<std::_Tmap_traits<HWND__ *,CWndData,std::less<HWND__ *>,std::allocator<std::pair<HWND__ * const,CWndData> >,0> >, COMDAT
; _this$ = ecx

; 54   : 		{	// construct traits from _Parg and allocator from _Al

  00000	55		 push	 ebp
  00001	8b ec		 mov	 ebp, esp
  00003	51		 push	 ecx
  00004	c7 45 fc cc cc
	cc cc		 mov	 DWORD PTR [ebp-4], -858993460 ; ccccccccH
  0000b	89 4d fc	 mov	 DWORD PTR _this$[ebp], ecx
  0000e	8b 45 08	 mov	 eax, DWORD PTR __Parg$[ebp]
  00011	8a 08		 mov	 cl, BYTE PTR [eax]
  00013	51		 push	 ecx
  00014	8b 4d fc	 mov	 ecx, DWORD PTR _this$[ebp]
  00017	e8 00 00 00 00	 call	 ??0?$_Tmap_traits@PAUHWND__@@UCWndData@@U?$less@PAUHWND__@@@std@@V?$allocator@U?$pair@QAUHWND__@@UCWndData@@@std@@@4@$0A@@std@@QAE@U?$less@PAUHWND__@@@1@@Z ; std::_Tmap_traits<HWND__ *,CWndData,std::less<HWND__ *>,std::allocator<std::pair<HWND__ * const,CWndData> >,0>::_Tmap_traits<HWND__ *,CWndData,std::less<HWND__ *>,std::allocator<std::pair<HWND__ * const,CWndData> >,0>
  0001c	8d 55 0c	 lea	 edx, DWORD PTR __Al$[ebp]
  0001f	52		 push	 edx
  00020	8b 4d fc	 mov	 ecx, DWORD PTR _this$[ebp]
  00023	83 c1 01	 add	 ecx, 1
  00026	e8 00 00 00 00	 call	 ??$?0U?$pair@QAUHWND__@@UCWndData@@@std@@@?$allocator@U_Node@?$_Tree_nod@V?$_Tmap_traits@PAUHWND__@@UCWndData@@U?$less@PAUHWND__@@@std@@V?$allocator@U?$pair@QAUHWND__@@UCWndData@@@std@@@4@$0A@@std@@@std@@@std@@QAE@ABV?$allocator@U?$pair@QAUHWND__@@UCWndData@@@std@@@1@@Z ; std::allocator<std::_Tree_nod<std::_Tmap_traits<HWND__ *,CWndData,std::less<HWND__ *>,std::allocator<std::pair<HWND__ * const,CWndData> >,0> >::_Node>::allocator<std::_Tree_nod<std::_Tmap_traits<HWND__ *,CWndData,std::less<HWND__ *>,std::allocator<std::pair<HWND__ * const,CWndData> >,0> >::_Node><std::pair<HWND__ * const,CWndData> >

; 55   : 		}

  0002b	8b 45 fc	 mov	 eax, DWORD PTR _this$[ebp]
  0002e	83 c4 04	 add	 esp, 4
  00031	3b ec		 cmp	 ebp, esp
  00033	e8 00 00 00 00	 call	 __RTC_CheckEsp
  00038	8b e5		 mov	 esp, ebp
  0003a	5d		 pop	 ebp
  0003b	c2 08 00	 ret	 8
??0?$_Tree_nod@V?$_Tmap_traits@PAUHWND__@@UCWndData@@U?$less@PAUHWND__@@@std@@V?$allocator@U?$pair@QAUHWND__@@UCWndData@@@std@@@4@$0A@@std@@@std@@IAE@ABU?$less@PAUHWND__@@@1@V?$allocator@U?$pair@QAUHWND__@@UCWndData@@@std@@@1@@Z ENDP ; std::_Tree_nod<std::_Tmap_traits<HWND__ *,CWndData,std::less<HWND__ *>,std::allocator<std::pair<HWND__ * const,CWndData> >,0> >::_Tree_nod<std::_Tmap_traits<HWND__ *,CWndData,std::less<HWND__ *>,std::allocator<std::pair<HWND__ * const,CWndData> >,0> >
; Function compile flags: /Odt /RTCsu
; File d:\program files (x86)\microsoft visual studio .net 2003\vc7\include\xmemory
_TEXT	ENDS
;	COMDAT ?max_size@?$allocator@U?$pair@QAUHWND__@@UCWndData@@@std@@@std@@QBEIXZ
_TEXT	SEGMENT
tv65 = -12						; size = 4
__Count$ = -8						; size = 4
_this$ = -4						; size = 4
?max_size@?$allocator@U?$pair@QAUHWND__@@UCWndData@@@std@@@std@@QBEIXZ PROC NEAR ; std::allocator<std::pair<HWND__ * const,CWndData> >::max_size, COMDAT
; _this$ = ecx

; 156  : 		{	// estimate maximum array size

  00000	55		 push	 ebp
  00001	8b ec		 mov	 ebp, esp
  00003	83 ec 0c	 sub	 esp, 12			; 0000000cH
  00006	c7 45 f4 cc cc
	cc cc		 mov	 DWORD PTR [ebp-12], -858993460 ; ccccccccH
  0000d	c7 45 f8 cc cc
	cc cc		 mov	 DWORD PTR [ebp-8], -858993460 ; ccccccccH
  00014	c7 45 fc cc cc
	cc cc		 mov	 DWORD PTR [ebp-4], -858993460 ; ccccccccH
  0001b	89 4d fc	 mov	 DWORD PTR _this$[ebp], ecx

; 157  : 		_SIZT _Count = (_SIZT)(-1) / sizeof (_Ty);

  0001e	c7 45 f8 55 55
	55 15		 mov	 DWORD PTR __Count$[ebp], 357913941 ; 15555555H

; 158  : 		return (0 < _Count ? _Count : 1);

  00025	83 7d f8 00	 cmp	 DWORD PTR __Count$[ebp], 0
  00029	76 08		 jbe	 SHORT $L192585
  0002b	8b 45 f8	 mov	 eax, DWORD PTR __Count$[ebp]
  0002e	89 45 f4	 mov	 DWORD PTR tv65[ebp], eax
  00031	eb 07		 jmp	 SHORT $L192586
$L192585:
  00033	c7 45 f4 01 00
	00 00		 mov	 DWORD PTR tv65[ebp], 1
$L192586:
  0003a	8b 45 f4	 mov	 eax, DWORD PTR tv65[ebp]

; 159  : 		}

  0003d	8b e5		 mov	 esp, ebp
  0003f	5d		 pop	 ebp
  00040	c3		 ret	 0
?max_size@?$allocator@U?$pair@QAUHWND__@@UCWndData@@@std@@@std@@QBEIXZ ENDP ; std::allocator<std::pair<HWND__ * const,CWndData> >::max_size
_TEXT	ENDS
PUBLIC	??$_Allocate@U_Node@?$_Tree_nod@V?$_Tmap_traits@PAUHWND__@@UCWndData@@U?$less@PAUHWND__@@@std@@V?$allocator@U?$pair@QAUHWND__@@UCWndData@@@std@@@4@$0A@@std@@@std@@@std@@YAPAU_Node@?$_Tree_nod@V?$_Tmap_traits@PAUHWND__@@UCWndData@@U?$less@PAUHWND__@@@std@@V?$allocator@U?$pair@QAUHWND__@@UCWndData@@@std@@@4@$0A@@std@@@0@IPAU120@@Z ; std::_Allocate<std::_Tree_nod<std::_Tmap_traits<HWND__ *,CWndData,std::less<HWND__ *>,std::allocator<std::pair<HWND__ * const,CWndData> >,0> >::_Node>
; Function compile flags: /Odt /RTCsu
;	COMDAT ?allocate@?$allocator@U_Node@?$_Tree_nod@V?$_Tmap_traits@PAUHWND__@@UCWndData@@U?$less@PAUHWND__@@@std@@V?$allocator@U?$pair@QAUHWND__@@UCWndData@@@std@@@4@$0A@@std@@@std@@@std@@QAEPAU_Node@?$_Tree_nod@V?$_Tmap_traits@PAUHWND__@@UCWndData@@U?$less@PAUHWND__@@@std@@V?$allocator@U?$pair@QAUHWND__@@UCWndData@@@std@@@4@$0A@@std@@@2@I@Z
_TEXT	SEGMENT
_this$ = -4						; size = 4
__Count$ = 8						; size = 4
?allocate@?$allocator@U_Node@?$_Tree_nod@V?$_Tmap_traits@PAUHWND__@@UCWndData@@U?$less@PAUHWND__@@@std@@V?$allocator@U?$pair@QAUHWND__@@UCWndData@@@std@@@4@$0A@@std@@@std@@@std@@QAEPAU_Node@?$_Tree_nod@V?$_Tmap_traits@PAUHWND__@@UCWndData@@U?$less@PAUHWND__@@@std@@V?$allocator@U?$pair@QAUHWND__@@UCWndData@@@std@@@4@$0A@@std@@@2@I@Z PROC NEAR ; std::allocator<std::_Tree_nod<std::_Tmap_traits<HWND__ *,CWndData,std::less<HWND__ *>,std::allocator<std::pair<HWND__ * const,CWndData> >,0> >::_Node>::allocate, COMDAT
; _this$ = ecx

; 136  : 		{	// allocate array of _Count elements

  00000	55		 push	 ebp
  00001	8b ec		 mov	 ebp, esp
  00003	51		 push	 ecx
  00004	c7 45 fc cc cc
	cc cc		 mov	 DWORD PTR [ebp-4], -858993460 ; ccccccccH
  0000b	89 4d fc	 mov	 DWORD PTR _this$[ebp], ecx

; 137  : 		return (_Allocate(_Count, (pointer)0));

  0000e	6a 00		 push	 0
  00010	8b 45 08	 mov	 eax, DWORD PTR __Count$[ebp]
  00013	50		 push	 eax
  00014	e8 00 00 00 00	 call	 ??$_Allocate@U_Node@?$_Tree_nod@V?$_Tmap_traits@PAUHWND__@@UCWndData@@U?$less@PAUHWND__@@@std@@V?$allocator@U?$pair@QAUHWND__@@UCWndData@@@std@@@4@$0A@@std@@@std@@@std@@YAPAU_Node@?$_Tree_nod@V?$_Tmap_traits@PAUHWND__@@UCWndData@@U?$less@PAUHWND__@@@std@@V?$allocator@U?$pair@QAUHWND__@@UCWndData@@@std@@@4@$0A@@std@@@0@IPAU120@@Z ; std::_Allocate<std::_Tree_nod<std::_Tmap_traits<HWND__ *,CWndData,std::less<HWND__ *>,std::allocator<std::pair<HWND__ * const,CWndData> >,0> >::_Node>
  00019	83 c4 08	 add	 esp, 8

; 138  : 		}

  0001c	83 c4 04	 add	 esp, 4
  0001f	3b ec		 cmp	 ebp, esp
  00021	e8 00 00 00 00	 call	 __RTC_CheckEsp
  00026	8b e5		 mov	 esp, ebp
  00028	5d		 pop	 ebp
  00029	c2 04 00	 ret	 4
?allocate@?$allocator@U_Node@?$_Tree_nod@V?$_Tmap_traits@PAUHWND__@@UCWndData@@U?$less@PAUHWND__@@@std@@V?$allocator@U?$pair@QAUHWND__@@UCWndData@@@std@@@4@$0A@@std@@@std@@@std@@QAEPAU_Node@?$_Tree_nod@V?$_Tmap_traits@PAUHWND__@@UCWndData@@U?$less@PAUHWND__@@@std@@V?$allocator@U?$pair@QAUHWND__@@UCWndData@@@std@@@4@$0A@@std@@@2@I@Z ENDP ; std::allocator<std::_Tree_nod<std::_Tmap_traits<HWND__ *,CWndData,std::less<HWND__ *>,std::allocator<std::pair<HWND__ * const,CWndData> >,0> >::_Node>::allocate
_TEXT	ENDS
PUBLIC	??$_Destroy@U_Node@?$_Tree_nod@V?$_Tmap_traits@PAUHWND__@@UCWndData@@U?$less@PAUHWND__@@@std@@V?$allocator@U?$pair@QAUHWND__@@UCWndData@@@std@@@4@$0A@@std@@@std@@@std@@YAXPAU_Node@?$_Tree_nod@V?$_Tmap_traits@PAUHWND__@@UCWndData@@U?$less@PAUHWND__@@@std@@V?$allocator@U?$pair@QAUHWND__@@UCWndData@@@std@@@4@$0A@@std@@@0@@Z ; std::_Destroy<std::_Tree_nod<std::_Tmap_traits<HWND__ *,CWndData,std::less<HWND__ *>,std::allocator<std::pair<HWND__ * const,CWndData> >,0> >::_Node>
; Function compile flags: /Odt /RTCsu
;	COMDAT ?destroy@?$allocator@U_Node@?$_Tree_nod@V?$_Tmap_traits@PAUHWND__@@UCWndData@@U?$less@PAUHWND__@@@std@@V?$allocator@U?$pair@QAUHWND__@@UCWndData@@@std@@@4@$0A@@std@@@std@@@std@@QAEXPAU_Node@?$_Tree_nod@V?$_Tmap_traits@PAUHWND__@@UCWndData@@U?$less@PAUHWND__@@@std@@V?$allocator@U?$pair@QAUHWND__@@UCWndData@@@std@@@4@$0A@@std@@@2@@Z
_TEXT	SEGMENT
_this$ = -4						; size = 4
__Ptr$ = 8						; size = 4
?destroy@?$allocator@U_Node@?$_Tree_nod@V?$_Tmap_traits@PAUHWND__@@UCWndData@@U?$less@PAUHWND__@@@std@@V?$allocator@U?$pair@QAUHWND__@@UCWndData@@@std@@@4@$0A@@std@@@std@@@std@@QAEXPAU_Node@?$_Tree_nod@V?$_Tmap_traits@PAUHWND__@@UCWndData@@U?$less@PAUHWND__@@@std@@V?$allocator@U?$pair@QAUHWND__@@UCWndData@@@std@@@4@$0A@@std@@@2@@Z PROC NEAR ; std::allocator<std::_Tree_nod<std::_Tmap_traits<HWND__ *,CWndData,std::less<HWND__ *>,std::allocator<std::pair<HWND__ * const,CWndData> >,0> >::_Node>::destroy, COMDAT
; _this$ = ecx

; 151  : 		{	// destroy object at _Ptr

  00000	55		 push	 ebp
  00001	8b ec		 mov	 ebp, esp
  00003	51		 push	 ecx
  00004	c7 45 fc cc cc
	cc cc		 mov	 DWORD PTR [ebp-4], -858993460 ; ccccccccH
  0000b	89 4d fc	 mov	 DWORD PTR _this$[ebp], ecx

; 152  : 		_Destroy(_Ptr);

  0000e	8b 45 08	 mov	 eax, DWORD PTR __Ptr$[ebp]
  00011	50		 push	 eax
  00012	e8 00 00 00 00	 call	 ??$_Destroy@U_Node@?$_Tree_nod@V?$_Tmap_traits@PAUHWND__@@UCWndData@@U?$less@PAUHWND__@@@std@@V?$allocator@U?$pair@QAUHWND__@@UCWndData@@@std@@@4@$0A@@std@@@std@@@std@@YAXPAU_Node@?$_Tree_nod@V?$_Tmap_traits@PAUHWND__@@UCWndData@@U?$less@PAUHWND__@@@std@@V?$allocator@U?$pair@QAUHWND__@@UCWndData@@@std@@@4@$0A@@std@@@0@@Z ; std::_Destroy<std::_Tree_nod<std::_Tmap_traits<HWND__ *,CWndData,std::less<HWND__ *>,std::allocator<std::pair<HWND__ * const,CWndData> >,0> >::_Node>
  00017	83 c4 04	 add	 esp, 4

; 153  : 		}

  0001a	83 c4 04	 add	 esp, 4
  0001d	3b ec		 cmp	 ebp, esp
  0001f	e8 00 00 00 00	 call	 __RTC_CheckEsp
  00024	8b e5		 mov	 esp, ebp
  00026	5d		 pop	 ebp
  00027	c2 04 00	 ret	 4
?destroy@?$allocator@U_Node@?$_Tree_nod@V?$_Tmap_traits@PAUHWND__@@UCWndData@@U?$less@PAUHWND__@@@std@@V?$allocator@U?$pair@QAUHWND__@@UCWndData@@@std@@@4@$0A@@std@@@std@@@std@@QAEXPAU_Node@?$_Tree_nod@V?$_Tmap_traits@PAUHWND__@@UCWndData@@U?$less@PAUHWND__@@@std@@V?$allocator@U?$pair@QAUHWND__@@UCWndData@@@std@@@4@$0A@@std@@@2@@Z ENDP ; std::allocator<std::_Tree_nod<std::_Tmap_traits<HWND__ *,CWndData,std::less<HWND__ *>,std::allocator<std::pair<HWND__ * const,CWndData> >,0> >::_Node>::destroy
_TEXT	ENDS
PUBLIC	??$_Construct@PAU_Node@?$_Tree_nod@V?$_Tmap_traits@PAUHWND__@@UCWndData@@U?$less@PAUHWND__@@@std@@V?$allocator@U?$pair@QAUHWND__@@UCWndData@@@std@@@4@$0A@@std@@@std@@PAU123@@std@@YAXPAPAU_Node@?$_Tree_nod@V?$_Tmap_traits@PAUHWND__@@UCWndData@@U?$less@PAUHWND__@@@std@@V?$allocator@U?$pair@QAUHWND__@@UCWndData@@@std@@@4@$0A@@std@@@0@ABQAU120@@Z ; std::_Construct<std::_Tree_nod<std::_Tmap_traits<HWND__ *,CWndData,std::less<HWND__ *>,std::allocator<std::pair<HWND__ * const,CWndData> >,0> >::_Node *,std::_Tree_nod<std::_Tmap_traits<HWND__ *,CWndData,std::less<HWND__ *>,std::allocator<std::pair<HWND__ * const,CWndData> >,0> >::_Node *>
; Function compile flags: /Odt /RTCsu
;	COMDAT ?construct@?$allocator@PAU_Node@?$_Tree_nod@V?$_Tmap_traits@PAUHWND__@@UCWndData@@U?$less@PAUHWND__@@@std@@V?$allocator@U?$pair@QAUHWND__@@UCWndData@@@std@@@4@$0A@@std@@@std@@@std@@QAEXPAPAU_Node@?$_Tree_nod@V?$_Tmap_traits@PAUHWND__@@UCWndData@@U?$less@PAUHWND__@@@std@@V?$allocator@U?$pair@QAUHWND__@@UCWndData@@@std@@@4@$0A@@std@@@2@ABQAU342@@Z
_TEXT	SEGMENT
_this$ = -4						; size = 4
__Ptr$ = 8						; size = 4
__Val$ = 12						; size = 4
?construct@?$allocator@PAU_Node@?$_Tree_nod@V?$_Tmap_traits@PAUHWND__@@UCWndData@@U?$less@PAUHWND__@@@std@@V?$allocator@U?$pair@QAUHWND__@@UCWndData@@@std@@@4@$0A@@std@@@std@@@std@@QAEXPAPAU_Node@?$_Tree_nod@V?$_Tmap_traits@PAUHWND__@@UCWndData@@U?$less@PAUHWND__@@@std@@V?$allocator@U?$pair@QAUHWND__@@UCWndData@@@std@@@4@$0A@@std@@@2@ABQAU342@@Z PROC NEAR ; std::allocator<std::_Tree_nod<std::_Tmap_traits<HWND__ *,CWndData,std::less<HWND__ *>,std::allocator<std::pair<HWND__ * const,CWndData> >,0> >::_Node *>::construct, COMDAT
; _this$ = ecx

; 146  : 		{	// construct object at _Ptr with value _Val

  00000	55		 push	 ebp
  00001	8b ec		 mov	 ebp, esp
  00003	51		 push	 ecx
  00004	c7 45 fc cc cc
	cc cc		 mov	 DWORD PTR [ebp-4], -858993460 ; ccccccccH
  0000b	89 4d fc	 mov	 DWORD PTR _this$[ebp], ecx

; 147  : 		_Construct(_Ptr, _Val);

  0000e	8b 45 0c	 mov	 eax, DWORD PTR __Val$[ebp]
  00011	50		 push	 eax
  00012	8b 4d 08	 mov	 ecx, DWORD PTR __Ptr$[ebp]
  00015	51		 push	 ecx
  00016	e8 00 00 00 00	 call	 ??$_Construct@PAU_Node@?$_Tree_nod@V?$_Tmap_traits@PAUHWND__@@UCWndData@@U?$less@PAUHWND__@@@std@@V?$allocator@U?$pair@QAUHWND__@@UCWndData@@@std@@@4@$0A@@std@@@std@@PAU123@@std@@YAXPAPAU_Node@?$_Tree_nod@V?$_Tmap_traits@PAUHWND__@@UCWndData@@U?$less@PAUHWND__@@@std@@V?$allocator@U?$pair@QAUHWND__@@UCWndData@@@std@@@4@$0A@@std@@@0@ABQAU120@@Z ; std::_Construct<std::_Tree_nod<std::_Tmap_traits<HWND__ *,CWndData,std::less<HWND__ *>,std::allocator<std::pair<HWND__ * const,CWndData> >,0> >::_Node *,std::_Tree_nod<std::_Tmap_traits<HWND__ *,CWndData,std::less<HWND__ *>,std::allocator<std::pair<HWND__ * const,CWndData> >,0> >::_Node *>
  0001b	83 c4 08	 add	 esp, 8

; 148  : 		}

  0001e	83 c4 04	 add	 esp, 4
  00021	3b ec		 cmp	 ebp, esp
  00023	e8 00 00 00 00	 call	 __RTC_CheckEsp
  00028	8b e5		 mov	 esp, ebp
  0002a	5d		 pop	 ebp
  0002b	c2 08 00	 ret	 8
?construct@?$allocator@PAU_Node@?$_Tree_nod@V?$_Tmap_traits@PAUHWND__@@UCWndData@@U?$less@PAUHWND__@@@std@@V?$allocator@U?$pair@QAUHWND__@@UCWndData@@@std@@@4@$0A@@std@@@std@@@std@@QAEXPAPAU_Node@?$_Tree_nod@V?$_Tmap_traits@PAUHWND__@@UCWndData@@U?$less@PAUHWND__@@@std@@V?$allocator@U?$pair@QAUHWND__@@UCWndData@@@std@@@4@$0A@@std@@@2@ABQAU342@@Z ENDP ; std::allocator<std::_Tree_nod<std::_Tmap_traits<HWND__ *,CWndData,std::less<HWND__ *>,std::allocator<std::pair<HWND__ * const,CWndData> >,0> >::_Node *>::construct
; Function compile flags: /Odt /RTCsu
; File d:\program files (x86)\microsoft visual studio .net 2003\vc7\include\xtree
_TEXT	ENDS
;	COMDAT ?_Dec@const_iterator@?$_Tree@V?$_Tmap_traits@PAUHWND__@@UCWndData@@U?$less@PAUHWND__@@@std@@V?$allocator@U?$pair@QAUHWND__@@UCWndData@@@std@@@4@$0A@@std@@@std@@QAEXXZ
_TEXT	SEGMENT
__Pnode$191001 = -8					; size = 4
_this$ = -4						; size = 4
?_Dec@const_iterator@?$_Tree@V?$_Tmap_traits@PAUHWND__@@UCWndData@@U?$less@PAUHWND__@@@std@@V?$allocator@U?$pair@QAUHWND__@@UCWndData@@@std@@@4@$0A@@std@@@std@@QAEXXZ PROC NEAR ; std::_Tree<std::_Tmap_traits<HWND__ *,CWndData,std::less<HWND__ *>,std::allocator<std::pair<HWND__ * const,CWndData> >,0> >::const_iterator::_Dec, COMDAT
; _this$ = ecx

; 250  : 			{	// move to node with next smaller value

  00000	55		 push	 ebp
  00001	8b ec		 mov	 ebp, esp
  00003	83 ec 08	 sub	 esp, 8
  00006	c7 45 f8 cc cc
	cc cc		 mov	 DWORD PTR [ebp-8], -858993460 ; ccccccccH
  0000d	c7 45 fc cc cc
	cc cc		 mov	 DWORD PTR [ebp-4], -858993460 ; ccccccccH
  00014	89 4d fc	 mov	 DWORD PTR _this$[ebp], ecx

; 251  : 			if (_Isnil(_Ptr))

  00017	8b 45 fc	 mov	 eax, DWORD PTR _this$[ebp]
  0001a	8b 08		 mov	 ecx, DWORD PTR [eax]
  0001c	51		 push	 ecx
  0001d	e8 00 00 00 00	 call	 ?_Isnil@?$_Tree@V?$_Tmap_traits@PAUHWND__@@UCWndData@@U?$less@PAUHWND__@@@std@@V?$allocator@U?$pair@QAUHWND__@@UCWndData@@@std@@@4@$0A@@std@@@std@@KAAADPAU_Node@?$_Tree_nod@V?$_Tmap_traits@PAUHWND__@@UCWndData@@U?$less@PAUHWND__@@@std@@V?$allocator@U?$pair@QAUHWND__@@UCWndData@@@std@@@4@$0A@@std@@@2@@Z ; std::_Tree<std::_Tmap_traits<HWND__ *,CWndData,std::less<HWND__ *>,std::allocator<std::pair<HWND__ * const,CWndData> >,0> >::_Isnil
  00022	83 c4 04	 add	 esp, 4
  00025	0f be 10	 movsx	 edx, BYTE PTR [eax]
  00028	85 d2		 test	 edx, edx
  0002a	74 1a		 je	 SHORT $L190997

; 252  : 				_Ptr = _Right(_Ptr);	// end() ==> rightmost

  0002c	8b 45 fc	 mov	 eax, DWORD PTR _this$[ebp]
  0002f	8b 08		 mov	 ecx, DWORD PTR [eax]
  00031	51		 push	 ecx
  00032	e8 00 00 00 00	 call	 ?_Right@?$_Tree@V?$_Tmap_traits@PAUHWND__@@UCWndData@@U?$less@PAUHWND__@@@std@@V?$allocator@U?$pair@QAUHWND__@@UCWndData@@@std@@@4@$0A@@std@@@std@@KAAAPAU_Node@?$_Tree_nod@V?$_Tmap_traits@PAUHWND__@@UCWndData@@U?$less@PAUHWND__@@@std@@V?$allocator@U?$pair@QAUHWND__@@UCWndData@@@std@@@4@$0A@@std@@@2@PAU342@@Z ; std::_Tree<std::_Tmap_traits<HWND__ *,CWndData,std::less<HWND__ *>,std::allocator<std::pair<HWND__ * const,CWndData> >,0> >::_Right
  00037	83 c4 04	 add	 esp, 4
  0003a	8b 55 fc	 mov	 edx, DWORD PTR _this$[ebp]
  0003d	8b 00		 mov	 eax, DWORD PTR [eax]
  0003f	89 02		 mov	 DWORD PTR [edx], eax

; 253  : 			else if (!_Isnil(_Left(_Ptr)))

  00041	e9 a0 00 00 00	 jmp	 $L190996
$L190997:
  00046	8b 4d fc	 mov	 ecx, DWORD PTR _this$[ebp]
  00049	8b 11		 mov	 edx, DWORD PTR [ecx]
  0004b	52		 push	 edx
  0004c	e8 00 00 00 00	 call	 ?_Left@?$_Tree@V?$_Tmap_traits@PAUHWND__@@UCWndData@@U?$less@PAUHWND__@@@std@@V?$allocator@U?$pair@QAUHWND__@@UCWndData@@@std@@@4@$0A@@std@@@std@@KAAAPAU_Node@?$_Tree_nod@V?$_Tmap_traits@PAUHWND__@@UCWndData@@U?$less@PAUHWND__@@@std@@V?$allocator@U?$pair@QAUHWND__@@UCWndData@@@std@@@4@$0A@@std@@@2@PAU342@@Z ; std::_Tree<std::_Tmap_traits<HWND__ *,CWndData,std::less<HWND__ *>,std::allocator<std::pair<HWND__ * const,CWndData> >,0> >::_Left
  00051	83 c4 04	 add	 esp, 4
  00054	8b 00		 mov	 eax, DWORD PTR [eax]
  00056	50		 push	 eax
  00057	e8 00 00 00 00	 call	 ?_Isnil@?$_Tree@V?$_Tmap_traits@PAUHWND__@@UCWndData@@U?$less@PAUHWND__@@@std@@V?$allocator@U?$pair@QAUHWND__@@UCWndData@@@std@@@4@$0A@@std@@@std@@KAAADPAU_Node@?$_Tree_nod@V?$_Tmap_traits@PAUHWND__@@UCWndData@@U?$less@PAUHWND__@@@std@@V?$allocator@U?$pair@QAUHWND__@@UCWndData@@@std@@@4@$0A@@std@@@2@@Z ; std::_Tree<std::_Tmap_traits<HWND__ *,CWndData,std::less<HWND__ *>,std::allocator<std::pair<HWND__ * const,CWndData> >,0> >::_Isnil
  0005c	83 c4 04	 add	 esp, 4
  0005f	0f be 08	 movsx	 ecx, BYTE PTR [eax]
  00062	85 c9		 test	 ecx, ecx
  00064	75 20		 jne	 SHORT $L191003

; 254  : 				_Ptr = _Max(_Left(_Ptr));	// ==> largest of left subtree

  00066	8b 55 fc	 mov	 edx, DWORD PTR _this$[ebp]
  00069	8b 02		 mov	 eax, DWORD PTR [edx]
  0006b	50		 push	 eax
  0006c	e8 00 00 00 00	 call	 ?_Left@?$_Tree@V?$_Tmap_traits@PAUHWND__@@UCWndData@@U?$less@PAUHWND__@@@std@@V?$allocator@U?$pair@QAUHWND__@@UCWndData@@@std@@@4@$0A@@std@@@std@@KAAAPAU_Node@?$_Tree_nod@V?$_Tmap_traits@PAUHWND__@@UCWndData@@U?$less@PAUHWND__@@@std@@V?$allocator@U?$pair@QAUHWND__@@UCWndData@@@std@@@4@$0A@@std@@@2@PAU342@@Z ; std::_Tree<std::_Tmap_traits<HWND__ *,CWndData,std::less<HWND__ *>,std::allocator<std::pair<HWND__ * const,CWndData> >,0> >::_Left
  00071	83 c4 04	 add	 esp, 4
  00074	8b 08		 mov	 ecx, DWORD PTR [eax]
  00076	51		 push	 ecx
  00077	e8 00 00 00 00	 call	 ?_Max@?$_Tree@V?$_Tmap_traits@PAUHWND__@@UCWndData@@U?$less@PAUHWND__@@@std@@V?$allocator@U?$pair@QAUHWND__@@UCWndData@@@std@@@4@$0A@@std@@@std@@KAPAU_Node@?$_Tree_nod@V?$_Tmap_traits@PAUHWND__@@UCWndData@@U?$less@PAUHWND__@@@std@@V?$allocator@U?$pair@QAUHWND__@@UCWndData@@@std@@@4@$0A@@std@@@2@PAU342@@Z ; std::_Tree<std::_Tmap_traits<HWND__ *,CWndData,std::less<HWND__ *>,std::allocator<std::pair<HWND__ * const,CWndData> >,0> >::_Max
  0007c	83 c4 04	 add	 esp, 4
  0007f	8b 55 fc	 mov	 edx, DWORD PTR _this$[ebp]
  00082	89 02		 mov	 DWORD PTR [edx], eax

; 255  : 			else

  00084	eb 60		 jmp	 SHORT $L190996
$L191003:

; 256  : 				{	// climb looking for left subtree
; 257  : 				_Nodeptr _Pnode;
; 258  : 				while (!_Isnil(_Pnode = _Parent(_Ptr))
; 259  : 					&& _Ptr == _Left(_Pnode))

  00086	8b 45 fc	 mov	 eax, DWORD PTR _this$[ebp]
  00089	8b 08		 mov	 ecx, DWORD PTR [eax]
  0008b	51		 push	 ecx
  0008c	e8 00 00 00 00	 call	 ?_Parent@?$_Tree@V?$_Tmap_traits@PAUHWND__@@UCWndData@@U?$less@PAUHWND__@@@std@@V?$allocator@U?$pair@QAUHWND__@@UCWndData@@@std@@@4@$0A@@std@@@std@@KAAAPAU_Node@?$_Tree_nod@V?$_Tmap_traits@PAUHWND__@@UCWndData@@U?$less@PAUHWND__@@@std@@V?$allocator@U?$pair@QAUHWND__@@UCWndData@@@std@@@4@$0A@@std@@@2@PAU342@@Z ; std::_Tree<std::_Tmap_traits<HWND__ *,CWndData,std::less<HWND__ *>,std::allocator<std::pair<HWND__ * const,CWndData> >,0> >::_Parent
  00091	83 c4 04	 add	 esp, 4
  00094	8b 10		 mov	 edx, DWORD PTR [eax]
  00096	89 55 f8	 mov	 DWORD PTR __Pnode$191001[ebp], edx
  00099	8b 45 f8	 mov	 eax, DWORD PTR __Pnode$191001[ebp]
  0009c	50		 push	 eax
  0009d	e8 00 00 00 00	 call	 ?_Isnil@?$_Tree@V?$_Tmap_traits@PAUHWND__@@UCWndData@@U?$less@PAUHWND__@@@std@@V?$allocator@U?$pair@QAUHWND__@@UCWndData@@@std@@@4@$0A@@std@@@std@@KAAADPAU_Node@?$_Tree_nod@V?$_Tmap_traits@PAUHWND__@@UCWndData@@U?$less@PAUHWND__@@@std@@V?$allocator@U?$pair@QAUHWND__@@UCWndData@@@std@@@4@$0A@@std@@@2@@Z ; std::_Tree<std::_Tmap_traits<HWND__ *,CWndData,std::less<HWND__ *>,std::allocator<std::pair<HWND__ * const,CWndData> >,0> >::_Isnil
  000a2	83 c4 04	 add	 esp, 4
  000a5	0f be 08	 movsx	 ecx, BYTE PTR [eax]
  000a8	85 c9		 test	 ecx, ecx
  000aa	75 1f		 jne	 SHORT $L191004
  000ac	8b 55 f8	 mov	 edx, DWORD PTR __Pnode$191001[ebp]
  000af	52		 push	 edx
  000b0	e8 00 00 00 00	 call	 ?_Left@?$_Tree@V?$_Tmap_traits@PAUHWND__@@UCWndData@@U?$less@PAUHWND__@@@std@@V?$allocator@U?$pair@QAUHWND__@@UCWndData@@@std@@@4@$0A@@std@@@std@@KAAAPAU_Node@?$_Tree_nod@V?$_Tmap_traits@PAUHWND__@@UCWndData@@U?$less@PAUHWND__@@@std@@V?$allocator@U?$pair@QAUHWND__@@UCWndData@@@std@@@4@$0A@@std@@@2@PAU342@@Z ; std::_Tree<std::_Tmap_traits<HWND__ *,CWndData,std::less<HWND__ *>,std::allocator<std::pair<HWND__ * const,CWndData> >,0> >::_Left
  000b5	83 c4 04	 add	 esp, 4
  000b8	8b 4d fc	 mov	 ecx, DWORD PTR _this$[ebp]
  000bb	8b 11		 mov	 edx, DWORD PTR [ecx]
  000bd	3b 10		 cmp	 edx, DWORD PTR [eax]
  000bf	75 0a		 jne	 SHORT $L191004

; 260  : 					_Ptr = _Pnode;	// ==> parent while left subtree

  000c1	8b 45 fc	 mov	 eax, DWORD PTR _this$[ebp]
  000c4	8b 4d f8	 mov	 ecx, DWORD PTR __Pnode$191001[ebp]
  000c7	89 08		 mov	 DWORD PTR [eax], ecx
  000c9	eb bb		 jmp	 SHORT $L191003
$L191004:

; 261  : 				if (!_Isnil(_Pnode))

  000cb	8b 55 f8	 mov	 edx, DWORD PTR __Pnode$191001[ebp]
  000ce	52		 push	 edx
  000cf	e8 00 00 00 00	 call	 ?_Isnil@?$_Tree@V?$_Tmap_traits@PAUHWND__@@UCWndData@@U?$less@PAUHWND__@@@std@@V?$allocator@U?$pair@QAUHWND__@@UCWndData@@@std@@@4@$0A@@std@@@std@@KAAADPAU_Node@?$_Tree_nod@V?$_Tmap_traits@PAUHWND__@@UCWndData@@U?$less@PAUHWND__@@@std@@V?$allocator@U?$pair@QAUHWND__@@UCWndData@@@std@@@4@$0A@@std@@@2@@Z ; std::_Tree<std::_Tmap_traits<HWND__ *,CWndData,std::less<HWND__ *>,std::allocator<std::pair<HWND__ * const,CWndData> >,0> >::_Isnil
  000d4	83 c4 04	 add	 esp, 4
  000d7	0f be 00	 movsx	 eax, BYTE PTR [eax]
  000da	85 c0		 test	 eax, eax
  000dc	75 08		 jne	 SHORT $L190996

; 262  : 					_Ptr = _Pnode;	// ==> parent if not head

  000de	8b 4d fc	 mov	 ecx, DWORD PTR _this$[ebp]
  000e1	8b 55 f8	 mov	 edx, DWORD PTR __Pnode$191001[ebp]
  000e4	89 11		 mov	 DWORD PTR [ecx], edx
$L190996:

; 263  : 				}
; 264  : 			}

  000e6	83 c4 08	 add	 esp, 8
  000e9	3b ec		 cmp	 ebp, esp
  000eb	e8 00 00 00 00	 call	 __RTC_CheckEsp
  000f0	8b e5		 mov	 esp, ebp
  000f2	5d		 pop	 ebp
  000f3	c3		 ret	 0
?_Dec@const_iterator@?$_Tree@V?$_Tmap_traits@PAUHWND__@@UCWndData@@U?$less@PAUHWND__@@@std@@V?$allocator@U?$pair@QAUHWND__@@UCWndData@@@std@@@4@$0A@@std@@@std@@QAEXXZ ENDP ; std::_Tree<std::_Tmap_traits<HWND__ *,CWndData,std::less<HWND__ *>,std::allocator<std::pair<HWND__ * const,CWndData> >,0> >::const_iterator::_Dec
; Function compile flags: /Odt /RTCsu
_TEXT	ENDS
;	COMDAT ??0_Node@?$_Tree_nod@V?$_Tmap_traits@PAUHWND__@@UCWndData@@U?$less@PAUHWND__@@@std@@V?$allocator@U?$pair@QAUHWND__@@UCWndData@@@std@@@4@$0A@@std@@@std@@QAE@PAU012@00ABU?$pair@QAUHWND__@@UCWndData@@@2@D@Z
_TEXT	SEGMENT
_this$ = -4						; size = 4
__Larg$ = 8						; size = 4
__Parg$ = 12						; size = 4
__Rarg$ = 16						; size = 4
__Val$ = 20						; size = 4
__Carg$ = 24						; size = 1
??0_Node@?$_Tree_nod@V?$_Tmap_traits@PAUHWND__@@UCWndData@@U?$less@PAUHWND__@@@std@@V?$allocator@U?$pair@QAUHWND__@@UCWndData@@@std@@@4@$0A@@std@@@std@@QAE@PAU012@00ABU?$pair@QAUHWND__@@UCWndData@@@2@D@Z PROC NEAR ; std::_Tree_nod<std::_Tmap_traits<HWND__ *,CWndData,std::less<HWND__ *>,std::allocator<std::pair<HWND__ * const,CWndData> >,0> >::_Node::_Node, COMDAT
; _this$ = ecx

; 40   : 			{	// construct a node with value

  00000	55		 push	 ebp
  00001	8b ec		 mov	 ebp, esp
  00003	51		 push	 ecx
  00004	c7 45 fc cc cc
	cc cc		 mov	 DWORD PTR [ebp-4], -858993460 ; ccccccccH
  0000b	89 4d fc	 mov	 DWORD PTR _this$[ebp], ecx
  0000e	8b 45 fc	 mov	 eax, DWORD PTR _this$[ebp]
  00011	8b 4d 08	 mov	 ecx, DWORD PTR __Larg$[ebp]
  00014	89 08		 mov	 DWORD PTR [eax], ecx
  00016	8b 55 fc	 mov	 edx, DWORD PTR _this$[ebp]
  00019	8b 45 0c	 mov	 eax, DWORD PTR __Parg$[ebp]
  0001c	89 42 04	 mov	 DWORD PTR [edx+4], eax
  0001f	8b 4d fc	 mov	 ecx, DWORD PTR _this$[ebp]
  00022	8b 55 10	 mov	 edx, DWORD PTR __Rarg$[ebp]
  00025	89 51 08	 mov	 DWORD PTR [ecx+8], edx
  00028	8b 45 14	 mov	 eax, DWORD PTR __Val$[ebp]
  0002b	8b 4d fc	 mov	 ecx, DWORD PTR _this$[ebp]
  0002e	83 c1 0c	 add	 ecx, 12			; 0000000cH
  00031	8b 10		 mov	 edx, DWORD PTR [eax]
  00033	89 11		 mov	 DWORD PTR [ecx], edx
  00035	8b 50 04	 mov	 edx, DWORD PTR [eax+4]
  00038	89 51 04	 mov	 DWORD PTR [ecx+4], edx
  0003b	8b 40 08	 mov	 eax, DWORD PTR [eax+8]
  0003e	89 41 08	 mov	 DWORD PTR [ecx+8], eax
  00041	8b 4d fc	 mov	 ecx, DWORD PTR _this$[ebp]
  00044	8a 55 18	 mov	 dl, BYTE PTR __Carg$[ebp]
  00047	88 51 18	 mov	 BYTE PTR [ecx+24], dl
  0004a	8b 45 fc	 mov	 eax, DWORD PTR _this$[ebp]
  0004d	c6 40 19 00	 mov	 BYTE PTR [eax+25], 0

; 41   : 			}

  00051	8b 45 fc	 mov	 eax, DWORD PTR _this$[ebp]
  00054	8b e5		 mov	 esp, ebp
  00056	5d		 pop	 ebp
  00057	c2 14 00	 ret	 20			; 00000014H
??0_Node@?$_Tree_nod@V?$_Tmap_traits@PAUHWND__@@UCWndData@@U?$less@PAUHWND__@@@std@@V?$allocator@U?$pair@QAUHWND__@@UCWndData@@@std@@@4@$0A@@std@@@std@@QAE@PAU012@00ABU?$pair@QAUHWND__@@UCWndData@@@2@D@Z ENDP ; std::_Tree_nod<std::_Tmap_traits<HWND__ *,CWndData,std::less<HWND__ *>,std::allocator<std::pair<HWND__ * const,CWndData> >,0> >::_Node::_Node
; Function compile flags: /Odt /RTCsu
; File d:\program files (x86)\microsoft visual studio .net 2003\vc7\include\map
_TEXT	ENDS
;	COMDAT ??0?$_Tmap_traits@PAUHWND__@@UCWndData@@U?$less@PAUHWND__@@@std@@V?$allocator@U?$pair@QAUHWND__@@UCWndData@@@std@@@4@$0A@@std@@QAE@U?$less@PAUHWND__@@@1@@Z
_TEXT	SEGMENT
_this$ = -4						; size = 4
__Parg$ = 8						; size = 1
??0?$_Tmap_traits@PAUHWND__@@UCWndData@@U?$less@PAUHWND__@@@std@@V?$allocator@U?$pair@QAUHWND__@@UCWndData@@@std@@@4@$0A@@std@@QAE@U?$less@PAUHWND__@@@1@@Z PROC NEAR ; std::_Tmap_traits<HWND__ *,CWndData,std::less<HWND__ *>,std::allocator<std::pair<HWND__ * const,CWndData> >,0>::_Tmap_traits<HWND__ *,CWndData,std::less<HWND__ *>,std::allocator<std::pair<HWND__ * const,CWndData> >,0>, COMDAT
; _this$ = ecx

; 38   : 		{	// construct with specified comparator

  00000	55		 push	 ebp
  00001	8b ec		 mov	 ebp, esp
  00003	51		 push	 ecx
  00004	c7 45 fc cc cc
	cc cc		 mov	 DWORD PTR [ebp-4], -858993460 ; ccccccccH
  0000b	89 4d fc	 mov	 DWORD PTR _this$[ebp], ecx

; 39   : 		}

  0000e	8b 45 fc	 mov	 eax, DWORD PTR _this$[ebp]
  00011	8b e5		 mov	 esp, ebp
  00013	5d		 pop	 ebp
  00014	c2 04 00	 ret	 4
??0?$_Tmap_traits@PAUHWND__@@UCWndData@@U?$less@PAUHWND__@@@std@@V?$allocator@U?$pair@QAUHWND__@@UCWndData@@@std@@@4@$0A@@std@@QAE@U?$less@PAUHWND__@@@1@@Z ENDP ; std::_Tmap_traits<HWND__ *,CWndData,std::less<HWND__ *>,std::allocator<std::pair<HWND__ * const,CWndData> >,0>::_Tmap_traits<HWND__ *,CWndData,std::less<HWND__ *>,std::allocator<std::pair<HWND__ * const,CWndData> >,0>
_TEXT	ENDS
PUBLIC	??$_Ptr_cat@VCHostWnd@@@std@@YA?AU_Scalar_ptr_iterator_tag@0@PAPAVCHostWnd@@0@Z ; std::_Ptr_cat<CHostWnd>
PUBLIC	??$_Uninit_fill_n@PAVCHostWnd@@IPAV1@@std@@YAXPAPAVCHostWnd@@IABQAV1@AAV?$allocator@PAVCHostWnd@@@0@U_Scalar_ptr_iterator_tag@0@@Z ; std::_Uninit_fill_n<CHostWnd *,unsigned int,CHostWnd *>
; Function compile flags: /Odt /RTCsu
; File d:\program files (x86)\microsoft visual studio .net 2003\vc7\include\memory
;	COMDAT ??$_Uninitialized_fill_n@PAPAVCHostWnd@@IPAV1@V?$allocator@PAVCHostWnd@@@std@@@std@@YAXPAPAVCHostWnd@@IABQAV1@AAV?$allocator@PAVCHostWnd@@@0@@Z
_TEXT	SEGMENT
$T192594 = -1						; size = 1
__First$ = 8						; size = 4
__Count$ = 12						; size = 4
__Val$ = 16						; size = 4
__Al$ = 20						; size = 4
??$_Uninitialized_fill_n@PAPAVCHostWnd@@IPAV1@V?$allocator@PAVCHostWnd@@@std@@@std@@YAXPAPAVCHostWnd@@IABQAV1@AAV?$allocator@PAVCHostWnd@@@0@@Z PROC NEAR ; std::_Uninitialized_fill_n<CHostWnd * *,unsigned int,CHostWnd *,std::allocator<CHostWnd *> >, COMDAT

; 255  : 	{	// copy _Count *_Val to raw _First, using _Al

  00000	55		 push	 ebp
  00001	8b ec		 mov	 ebp, esp
  00003	51		 push	 ecx
  00004	c7 45 fc cc cc
	cc cc		 mov	 DWORD PTR [ebp-4], -858993460 ; ccccccccH

; 256  : 	_Uninit_fill_n(_First, _Count, _Val, _Al,
; 257  : 		_Ptr_cat(_First, _First));

  0000b	8b 45 08	 mov	 eax, DWORD PTR __First$[ebp]
  0000e	50		 push	 eax
  0000f	8b 4d 08	 mov	 ecx, DWORD PTR __First$[ebp]
  00012	51		 push	 ecx
  00013	e8 00 00 00 00	 call	 ??$_Ptr_cat@VCHostWnd@@@std@@YA?AU_Scalar_ptr_iterator_tag@0@PAPAVCHostWnd@@0@Z ; std::_Ptr_cat<CHostWnd>
  00018	83 c4 08	 add	 esp, 8
  0001b	88 45 ff	 mov	 BYTE PTR $T192594[ebp], al
  0001e	8a 55 ff	 mov	 dl, BYTE PTR $T192594[ebp]
  00021	52		 push	 edx
  00022	8b 45 14	 mov	 eax, DWORD PTR __Al$[ebp]
  00025	50		 push	 eax
  00026	8b 4d 10	 mov	 ecx, DWORD PTR __Val$[ebp]
  00029	51		 push	 ecx
  0002a	8b 55 0c	 mov	 edx, DWORD PTR __Count$[ebp]
  0002d	52		 push	 edx
  0002e	8b 45 08	 mov	 eax, DWORD PTR __First$[ebp]
  00031	50		 push	 eax
  00032	e8 00 00 00 00	 call	 ??$_Uninit_fill_n@PAVCHostWnd@@IPAV1@@std@@YAXPAPAVCHostWnd@@IABQAV1@AAV?$allocator@PAVCHostWnd@@@0@U_Scalar_ptr_iterator_tag@0@@Z ; std::_Uninit_fill_n<CHostWnd *,unsigned int,CHostWnd *>
  00037	83 c4 14	 add	 esp, 20			; 00000014H

; 258  : 	}

  0003a	83 c4 04	 add	 esp, 4
  0003d	3b ec		 cmp	 ebp, esp
  0003f	e8 00 00 00 00	 call	 __RTC_CheckEsp
  00044	8b e5		 mov	 esp, ebp
  00046	5d		 pop	 ebp
  00047	c3		 ret	 0
??$_Uninitialized_fill_n@PAPAVCHostWnd@@IPAV1@V?$allocator@PAVCHostWnd@@@std@@@std@@YAXPAPAVCHostWnd@@IABQAV1@AAV?$allocator@PAVCHostWnd@@@0@@Z ENDP ; std::_Uninitialized_fill_n<CHostWnd * *,unsigned int,CHostWnd *,std::allocator<CHostWnd *> >
; Function compile flags: /Odt /RTCsu
; File d:\program files (x86)\microsoft visual studio .net 2003\vc7\include\xmemory
_TEXT	ENDS
;	COMDAT ??$_Destroy@PAU_Node@?$_Tree_nod@V?$_Tmap_traits@PAUHWND__@@UCWndData@@U?$less@PAUHWND__@@@std@@V?$allocator@U?$pair@QAUHWND__@@UCWndData@@@std@@@4@$0A@@std@@@std@@@std@@YAXPAPAU_Node@?$_Tree_nod@V?$_Tmap_traits@PAUHWND__@@UCWndData@@U?$less@PAUHWND__@@@std@@V?$allocator@U?$pair@QAUHWND__@@UCWndData@@@std@@@4@$0A@@std@@@0@@Z
_TEXT	SEGMENT
__Ptr$ = 8						; size = 4
??$_Destroy@PAU_Node@?$_Tree_nod@V?$_Tmap_traits@PAUHWND__@@UCWndData@@U?$less@PAUHWND__@@@std@@V?$allocator@U?$pair@QAUHWND__@@UCWndData@@@std@@@4@$0A@@std@@@std@@@std@@YAXPAPAU_Node@?$_Tree_nod@V?$_Tmap_traits@PAUHWND__@@UCWndData@@U?$less@PAUHWND__@@@std@@V?$allocator@U?$pair@QAUHWND__@@UCWndData@@@std@@@4@$0A@@std@@@0@@Z PROC NEAR ; std::_Destroy<std::_Tree_nod<std::_Tmap_traits<HWND__ *,CWndData,std::less<HWND__ *>,std::allocator<std::pair<HWND__ * const,CWndData> >,0> >::_Node *>, COMDAT

; 48   : 	{	// destroy object at _Ptr

  00000	55		 push	 ebp
  00001	8b ec		 mov	 ebp, esp

; 49   : 	_DESTRUCTOR(_Ty, _Ptr);
; 50   : 	}

  00003	5d		 pop	 ebp
  00004	c3		 ret	 0
??$_Destroy@PAU_Node@?$_Tree_nod@V?$_Tmap_traits@PAUHWND__@@UCWndData@@U?$less@PAUHWND__@@@std@@V?$allocator@U?$pair@QAUHWND__@@UCWndData@@@std@@@4@$0A@@std@@@std@@@std@@YAXPAPAU_Node@?$_Tree_nod@V?$_Tmap_traits@PAUHWND__@@UCWndData@@U?$less@PAUHWND__@@@std@@V?$allocator@U?$pair@QAUHWND__@@UCWndData@@@std@@@4@$0A@@std@@@0@@Z ENDP ; std::_Destroy<std::_Tree_nod<std::_Tmap_traits<HWND__ *,CWndData,std::less<HWND__ *>,std::allocator<std::pair<HWND__ * const,CWndData> >,0> >::_Node *>
_TEXT	ENDS
PUBLIC	??$_Destroy_range@PAVCHostWnd@@V?$allocator@PAVCHostWnd@@@std@@@std@@YAXPAPAVCHostWnd@@0AAV?$allocator@PAVCHostWnd@@@0@U_Scalar_ptr_iterator_tag@0@@Z ; std::_Destroy_range<CHostWnd *,std::allocator<CHostWnd *> >
; Function compile flags: /Odt /RTCsu
;	COMDAT ??$_Destroy_range@PAVCHostWnd@@V?$allocator@PAVCHostWnd@@@std@@@std@@YAXPAPAVCHostWnd@@0AAV?$allocator@PAVCHostWnd@@@0@@Z
_TEXT	SEGMENT
$T192597 = -1						; size = 1
__First$ = 8						; size = 4
__Last$ = 12						; size = 4
__Al$ = 16						; size = 4
??$_Destroy_range@PAVCHostWnd@@V?$allocator@PAVCHostWnd@@@std@@@std@@YAXPAPAVCHostWnd@@0AAV?$allocator@PAVCHostWnd@@@0@@Z PROC NEAR ; std::_Destroy_range<CHostWnd *,std::allocator<CHostWnd *> >, COMDAT

; 216  : 	{	// destroy [_First, _Last)

  00000	55		 push	 ebp
  00001	8b ec		 mov	 ebp, esp
  00003	51		 push	 ecx
  00004	c7 45 fc cc cc
	cc cc		 mov	 DWORD PTR [ebp-4], -858993460 ; ccccccccH

; 217  : 	_Destroy_range(_First, _Last, _Al, _Ptr_cat(_First, _Last));

  0000b	8b 45 0c	 mov	 eax, DWORD PTR __Last$[ebp]
  0000e	50		 push	 eax
  0000f	8b 4d 08	 mov	 ecx, DWORD PTR __First$[ebp]
  00012	51		 push	 ecx
  00013	e8 00 00 00 00	 call	 ??$_Ptr_cat@VCHostWnd@@@std@@YA?AU_Scalar_ptr_iterator_tag@0@PAPAVCHostWnd@@0@Z ; std::_Ptr_cat<CHostWnd>
  00018	83 c4 08	 add	 esp, 8
  0001b	88 45 ff	 mov	 BYTE PTR $T192597[ebp], al
  0001e	8a 55 ff	 mov	 dl, BYTE PTR $T192597[ebp]
  00021	52		 push	 edx
  00022	8b 45 10	 mov	 eax, DWORD PTR __Al$[ebp]
  00025	50		 push	 eax
  00026	8b 4d 0c	 mov	 ecx, DWORD PTR __Last$[ebp]
  00029	51		 push	 ecx
  0002a	8b 55 08	 mov	 edx, DWORD PTR __First$[ebp]
  0002d	52		 push	 edx
  0002e	e8 00 00 00 00	 call	 ??$_Destroy_range@PAVCHostWnd@@V?$allocator@PAVCHostWnd@@@std@@@std@@YAXPAPAVCHostWnd@@0AAV?$allocator@PAVCHostWnd@@@0@U_Scalar_ptr_iterator_tag@0@@Z ; std::_Destroy_range<CHostWnd *,std::allocator<CHostWnd *> >
  00033	83 c4 10	 add	 esp, 16			; 00000010H

; 218  : 	}

  00036	83 c4 04	 add	 esp, 4
  00039	3b ec		 cmp	 ebp, esp
  0003b	e8 00 00 00 00	 call	 __RTC_CheckEsp
  00040	8b e5		 mov	 esp, ebp
  00042	5d		 pop	 ebp
  00043	c3		 ret	 0
??$_Destroy_range@PAVCHostWnd@@V?$allocator@PAVCHostWnd@@@std@@@std@@YAXPAPAVCHostWnd@@0AAV?$allocator@PAVCHostWnd@@@0@@Z ENDP ; std::_Destroy_range<CHostWnd *,std::allocator<CHostWnd *> >
_TEXT	ENDS
PUBLIC	??$_Uninitialized_copy@PAPAVCHostWnd@@PAPAV1@V?$allocator@PAVCHostWnd@@@std@@@std@@YAPAPAVCHostWnd@@PAPAV1@00AAV?$allocator@PAVCHostWnd@@@0@@Z ; std::_Uninitialized_copy<CHostWnd * *,CHostWnd * *,std::allocator<CHostWnd *> >
; Function compile flags: /Odt /RTCsu
; File d:\program files (x86)\microsoft visual studio .net 2003\vc7\include\vector
;	COMDAT ??$_Ucopy@PAPAVCHostWnd@@@?$vector@PAVCHostWnd@@V?$allocator@PAVCHostWnd@@@std@@@std@@IAEPAPAVCHostWnd@@PAPAV2@00@Z
_TEXT	SEGMENT
_this$ = -4						; size = 4
__First$ = 8						; size = 4
__Last$ = 12						; size = 4
__Ptr$ = 16						; size = 4
??$_Ucopy@PAPAVCHostWnd@@@?$vector@PAVCHostWnd@@V?$allocator@PAVCHostWnd@@@std@@@std@@IAEPAPAVCHostWnd@@PAPAV2@00@Z PROC NEAR ; std::vector<CHostWnd *,std::allocator<CHostWnd *> >::_Ucopy<CHostWnd * *>, COMDAT
; _this$ = ecx

; 801  : 		pointer _Ucopy(_Iter _First, _Iter _Last, pointer _Ptr)

  00000	55		 push	 ebp
  00001	8b ec		 mov	 ebp, esp
  00003	51		 push	 ecx
  00004	c7 45 fc cc cc
	cc cc		 mov	 DWORD PTR [ebp-4], -858993460 ; ccccccccH
  0000b	89 4d fc	 mov	 DWORD PTR _this$[ebp], ecx

; 802  : 		{	// copy initializing [_First, _Last), using allocator
; 803  : 		return (_Uninitialized_copy(_First, _Last,
; 804  : 			_Ptr, this->_Alval));

  0000e	8b 45 fc	 mov	 eax, DWORD PTR _this$[ebp]
  00011	50		 push	 eax
  00012	8b 4d 10	 mov	 ecx, DWORD PTR __Ptr$[ebp]
  00015	51		 push	 ecx
  00016	8b 55 0c	 mov	 edx, DWORD PTR __Last$[ebp]
  00019	52		 push	 edx
  0001a	8b 45 08	 mov	 eax, DWORD PTR __First$[ebp]
  0001d	50		 push	 eax
  0001e	e8 00 00 00 00	 call	 ??$_Uninitialized_copy@PAPAVCHostWnd@@PAPAV1@V?$allocator@PAVCHostWnd@@@std@@@std@@YAPAPAVCHostWnd@@PAPAV1@00AAV?$allocator@PAVCHostWnd@@@0@@Z ; std::_Uninitialized_copy<CHostWnd * *,CHostWnd * *,std::allocator<CHostWnd *> >
  00023	83 c4 10	 add	 esp, 16			; 00000010H

; 805  : 		}

  00026	83 c4 04	 add	 esp, 4
  00029	3b ec		 cmp	 ebp, esp
  0002b	e8 00 00 00 00	 call	 __RTC_CheckEsp
  00030	8b e5		 mov	 esp, ebp
  00032	5d		 pop	 ebp
  00033	c2 0c 00	 ret	 12			; 0000000cH
??$_Ucopy@PAPAVCHostWnd@@@?$vector@PAVCHostWnd@@V?$allocator@PAVCHostWnd@@@std@@@std@@IAEPAPAVCHostWnd@@PAPAV2@00@Z ENDP ; std::vector<CHostWnd *,std::allocator<CHostWnd *> >::_Ucopy<CHostWnd * *>
; Function compile flags: /Odt /RTCsu
; File d:\program files (x86)\microsoft visual studio .net 2003\vc7\include\xutility
_TEXT	ENDS
;	COMDAT ??$fill@PAPAVCHostWnd@@PAV1@@std@@YAXPAPAVCHostWnd@@0ABQAV1@@Z
_TEXT	SEGMENT
__First$ = 8						; size = 4
__Last$ = 12						; size = 4
__Val$ = 16						; size = 4
??$fill@PAPAVCHostWnd@@PAV1@@std@@YAXPAPAVCHostWnd@@0ABQAV1@@Z PROC NEAR ; std::fill<CHostWnd * *,CHostWnd *>, COMDAT

; 1134 : 	{	// copy _Val through [_First, _Last)

  00000	55		 push	 ebp
  00001	8b ec		 mov	 ebp, esp

; 1135 : 	for (; _First != _Last; ++_First)

  00003	eb 09		 jmp	 SHORT $L191304
$L191305:
  00005	8b 45 08	 mov	 eax, DWORD PTR __First$[ebp]
  00008	83 c0 04	 add	 eax, 4
  0000b	89 45 08	 mov	 DWORD PTR __First$[ebp], eax
$L191304:
  0000e	8b 4d 08	 mov	 ecx, DWORD PTR __First$[ebp]
  00011	3b 4d 0c	 cmp	 ecx, DWORD PTR __Last$[ebp]
  00014	74 0c		 je	 SHORT $L191303

; 1136 : 		*_First = _Val;

  00016	8b 55 08	 mov	 edx, DWORD PTR __First$[ebp]
  00019	8b 45 10	 mov	 eax, DWORD PTR __Val$[ebp]
  0001c	8b 08		 mov	 ecx, DWORD PTR [eax]
  0001e	89 0a		 mov	 DWORD PTR [edx], ecx
  00020	eb e3		 jmp	 SHORT $L191305
$L191303:

; 1137 : 	}

  00022	5d		 pop	 ebp
  00023	c3		 ret	 0
??$fill@PAPAVCHostWnd@@PAV1@@std@@YAXPAPAVCHostWnd@@0ABQAV1@@Z ENDP ; std::fill<CHostWnd * *,CHostWnd *>
_TEXT	ENDS
PUBLIC	??$_Copy_backward_opt@PAPAVCHostWnd@@PAPAV1@@std@@YAPAPAVCHostWnd@@PAPAV1@00U_Scalar_ptr_iterator_tag@0@@Z ; std::_Copy_backward_opt<CHostWnd * *,CHostWnd * *>
; Function compile flags: /Odt /RTCsu
;	COMDAT ??$copy_backward@PAPAVCHostWnd@@PAPAV1@@std@@YAPAPAVCHostWnd@@PAPAV1@00@Z
_TEXT	SEGMENT
$T192601 = -1						; size = 1
__First$ = 8						; size = 4
__Last$ = 12						; size = 4
__Dest$ = 16						; size = 4
??$copy_backward@PAPAVCHostWnd@@PAPAV1@@std@@YAPAPAVCHostWnd@@PAPAV1@00@Z PROC NEAR ; std::copy_backward<CHostWnd * *,CHostWnd * *>, COMDAT

; 1067 : 	{	// copy [_First, _Last) backwards to [..., _Dest)

  00000	55		 push	 ebp
  00001	8b ec		 mov	 ebp, esp
  00003	51		 push	 ecx
  00004	c7 45 fc cc cc
	cc cc		 mov	 DWORD PTR [ebp-4], -858993460 ; ccccccccH

; 1068 : 	return (_Copy_backward_opt(_First, _Last, _Dest,
; 1069 : 		_Ptr_cat(_First, _Dest)));

  0000b	8b 45 10	 mov	 eax, DWORD PTR __Dest$[ebp]
  0000e	50		 push	 eax
  0000f	8b 4d 08	 mov	 ecx, DWORD PTR __First$[ebp]
  00012	51		 push	 ecx
  00013	e8 00 00 00 00	 call	 ??$_Ptr_cat@VCHostWnd@@@std@@YA?AU_Scalar_ptr_iterator_tag@0@PAPAVCHostWnd@@0@Z ; std::_Ptr_cat<CHostWnd>
  00018	83 c4 08	 add	 esp, 8
  0001b	88 45 ff	 mov	 BYTE PTR $T192601[ebp], al
  0001e	8a 55 ff	 mov	 dl, BYTE PTR $T192601[ebp]
  00021	52		 push	 edx
  00022	8b 45 10	 mov	 eax, DWORD PTR __Dest$[ebp]
  00025	50		 push	 eax
  00026	8b 4d 0c	 mov	 ecx, DWORD PTR __Last$[ebp]
  00029	51		 push	 ecx
  0002a	8b 55 08	 mov	 edx, DWORD PTR __First$[ebp]
  0002d	52		 push	 edx
  0002e	e8 00 00 00 00	 call	 ??$_Copy_backward_opt@PAPAVCHostWnd@@PAPAV1@@std@@YAPAPAVCHostWnd@@PAPAV1@00U_Scalar_ptr_iterator_tag@0@@Z ; std::_Copy_backward_opt<CHostWnd * *,CHostWnd * *>
  00033	83 c4 10	 add	 esp, 16			; 00000010H

; 1070 : 	}

  00036	83 c4 04	 add	 esp, 4
  00039	3b ec		 cmp	 ebp, esp
  0003b	e8 00 00 00 00	 call	 __RTC_CheckEsp
  00040	8b e5		 mov	 esp, ebp
  00042	5d		 pop	 ebp
  00043	c3		 ret	 0
??$copy_backward@PAPAVCHostWnd@@PAPAV1@@std@@YAPAPAVCHostWnd@@PAPAV1@00@Z ENDP ; std::copy_backward<CHostWnd * *,CHostWnd * *>
; Function compile flags: /Odt /RTCsu
; File d:\program files (x86)\microsoft visual studio .net 2003\vc7\include\xmemory
_TEXT	ENDS
;	COMDAT ??$_Allocate@PAVCHostWnd@@@std@@YAPAPAVCHostWnd@@IPAPAV1@@Z
_TEXT	SEGMENT
__Count$ = 8						; size = 4
___formal$ = 12						; size = 4
??$_Allocate@PAVCHostWnd@@@std@@YAPAPAVCHostWnd@@IPAPAV1@@Z PROC NEAR ; std::_Allocate<CHostWnd *>, COMDAT

; 33   : 	{	// allocate storage for _Count elements of type _Ty

  00000	55		 push	 ebp
  00001	8b ec		 mov	 ebp, esp

; 34   : 	return ((_Ty _FARQ *)operator new(_Count * sizeof (_Ty)));

  00003	8b 45 08	 mov	 eax, DWORD PTR __Count$[ebp]
  00006	c1 e0 02	 shl	 eax, 2
  00009	50		 push	 eax
  0000a	e8 00 00 00 00	 call	 ??2@YAPAXI@Z		; operator new
  0000f	83 c4 04	 add	 esp, 4

; 35   : 	}

  00012	3b ec		 cmp	 ebp, esp
  00014	e8 00 00 00 00	 call	 __RTC_CheckEsp
  00019	5d		 pop	 ebp
  0001a	c3		 ret	 0
??$_Allocate@PAVCHostWnd@@@std@@YAPAPAVCHostWnd@@IPAPAV1@@Z ENDP ; std::_Allocate<CHostWnd *>
_TEXT	ENDS
PUBLIC	??$_Ptr_cat@VILyricPopupWndShowObserver@@@std@@YA?AU_Scalar_ptr_iterator_tag@0@PAPAVILyricPopupWndShowObserver@@0@Z ; std::_Ptr_cat<ILyricPopupWndShowObserver>
PUBLIC	??$_Destroy_range@PAVILyricPopupWndShowObserver@@V?$allocator@PAVILyricPopupWndShowObserver@@@std@@@std@@YAXPAPAVILyricPopupWndShowObserver@@0AAV?$allocator@PAVILyricPopupWndShowObserver@@@0@U_Scalar_ptr_iterator_tag@0@@Z ; std::_Destroy_range<ILyricPopupWndShowObserver *,std::allocator<ILyricPopupWndShowObserver *> >
; Function compile flags: /Odt /RTCsu
;	COMDAT ??$_Destroy_range@PAVILyricPopupWndShowObserver@@V?$allocator@PAVILyricPopupWndShowObserver@@@std@@@std@@YAXPAPAVILyricPopupWndShowObserver@@0AAV?$allocator@PAVILyricPopupWndShowObserver@@@0@@Z
_TEXT	SEGMENT
$T192604 = -1						; size = 1
__First$ = 8						; size = 4
__Last$ = 12						; size = 4
__Al$ = 16						; size = 4
??$_Destroy_range@PAVILyricPopupWndShowObserver@@V?$allocator@PAVILyricPopupWndShowObserver@@@std@@@std@@YAXPAPAVILyricPopupWndShowObserver@@0AAV?$allocator@PAVILyricPopupWndShowObserver@@@0@@Z PROC NEAR ; std::_Destroy_range<ILyricPopupWndShowObserver *,std::allocator<ILyricPopupWndShowObserver *> >, COMDAT

; 216  : 	{	// destroy [_First, _Last)

  00000	55		 push	 ebp
  00001	8b ec		 mov	 ebp, esp
  00003	51		 push	 ecx
  00004	c7 45 fc cc cc
	cc cc		 mov	 DWORD PTR [ebp-4], -858993460 ; ccccccccH

; 217  : 	_Destroy_range(_First, _Last, _Al, _Ptr_cat(_First, _Last));

  0000b	8b 45 0c	 mov	 eax, DWORD PTR __Last$[ebp]
  0000e	50		 push	 eax
  0000f	8b 4d 08	 mov	 ecx, DWORD PTR __First$[ebp]
  00012	51		 push	 ecx
  00013	e8 00 00 00 00	 call	 ??$_Ptr_cat@VILyricPopupWndShowObserver@@@std@@YA?AU_Scalar_ptr_iterator_tag@0@PAPAVILyricPopupWndShowObserver@@0@Z ; std::_Ptr_cat<ILyricPopupWndShowObserver>
  00018	83 c4 08	 add	 esp, 8
  0001b	88 45 ff	 mov	 BYTE PTR $T192604[ebp], al
  0001e	8a 55 ff	 mov	 dl, BYTE PTR $T192604[ebp]
  00021	52		 push	 edx
  00022	8b 45 10	 mov	 eax, DWORD PTR __Al$[ebp]
  00025	50		 push	 eax
  00026	8b 4d 0c	 mov	 ecx, DWORD PTR __Last$[ebp]
  00029	51		 push	 ecx
  0002a	8b 55 08	 mov	 edx, DWORD PTR __First$[ebp]
  0002d	52		 push	 edx
  0002e	e8 00 00 00 00	 call	 ??$_Destroy_range@PAVILyricPopupWndShowObserver@@V?$allocator@PAVILyricPopupWndShowObserver@@@std@@@std@@YAXPAPAVILyricPopupWndShowObserver@@0AAV?$allocator@PAVILyricPopupWndShowObserver@@@0@U_Scalar_ptr_iterator_tag@0@@Z ; std::_Destroy_range<ILyricPopupWndShowObserver *,std::allocator<ILyricPopupWndShowObserver *> >
  00033	83 c4 10	 add	 esp, 16			; 00000010H

; 218  : 	}

  00036	83 c4 04	 add	 esp, 4
  00039	3b ec		 cmp	 ebp, esp
  0003b	e8 00 00 00 00	 call	 __RTC_CheckEsp
  00040	8b e5		 mov	 esp, ebp
  00042	5d		 pop	 ebp
  00043	c3		 ret	 0
??$_Destroy_range@PAVILyricPopupWndShowObserver@@V?$allocator@PAVILyricPopupWndShowObserver@@@std@@@std@@YAXPAPAVILyricPopupWndShowObserver@@0AAV?$allocator@PAVILyricPopupWndShowObserver@@@0@@Z ENDP ; std::_Destroy_range<ILyricPopupWndShowObserver *,std::allocator<ILyricPopupWndShowObserver *> >
; Function compile flags: /Odt /RTCsu
_TEXT	ENDS
;	COMDAT ??$_Allocate@PAVILyricPopupWndShowObserver@@@std@@YAPAPAVILyricPopupWndShowObserver@@IPAPAV1@@Z
_TEXT	SEGMENT
__Count$ = 8						; size = 4
___formal$ = 12						; size = 4
??$_Allocate@PAVILyricPopupWndShowObserver@@@std@@YAPAPAVILyricPopupWndShowObserver@@IPAPAV1@@Z PROC NEAR ; std::_Allocate<ILyricPopupWndShowObserver *>, COMDAT

; 33   : 	{	// allocate storage for _Count elements of type _Ty

  00000	55		 push	 ebp
  00001	8b ec		 mov	 ebp, esp

; 34   : 	return ((_Ty _FARQ *)operator new(_Count * sizeof (_Ty)));

  00003	8b 45 08	 mov	 eax, DWORD PTR __Count$[ebp]
  00006	c1 e0 02	 shl	 eax, 2
  00009	50		 push	 eax
  0000a	e8 00 00 00 00	 call	 ??2@YAPAXI@Z		; operator new
  0000f	83 c4 04	 add	 esp, 4

; 35   : 	}

  00012	3b ec		 cmp	 ebp, esp
  00014	e8 00 00 00 00	 call	 __RTC_CheckEsp
  00019	5d		 pop	 ebp
  0001a	c3		 ret	 0
??$_Allocate@PAVILyricPopupWndShowObserver@@@std@@YAPAPAVILyricPopupWndShowObserver@@IPAPAV1@@Z ENDP ; std::_Allocate<ILyricPopupWndShowObserver *>
; Function compile flags: /Odt /RTCsu
_TEXT	ENDS
;	COMDAT ??$?0U?$pair@QAUHWND__@@UCWndData@@@std@@@?$allocator@PAU_Node@?$_Tree_nod@V?$_Tmap_traits@PAUHWND__@@UCWndData@@U?$less@PAUHWND__@@@std@@V?$allocator@U?$pair@QAUHWND__@@UCWndData@@@std@@@4@$0A@@std@@@std@@@std@@QAE@ABV?$allocator@U?$pair@QAUHWND__@@UCWndData@@@std@@@1@@Z
_TEXT	SEGMENT
_this$ = -4						; size = 4
___formal$ = 8						; size = 4
??$?0U?$pair@QAUHWND__@@UCWndData@@@std@@@?$allocator@PAU_Node@?$_Tree_nod@V?$_Tmap_traits@PAUHWND__@@UCWndData@@U?$less@PAUHWND__@@@std@@V?$allocator@U?$pair@QAUHWND__@@UCWndData@@@std@@@4@$0A@@std@@@std@@@std@@QAE@ABV?$allocator@U?$pair@QAUHWND__@@UCWndData@@@std@@@1@@Z PROC NEAR ; std::allocator<std::_Tree_nod<std::_Tmap_traits<HWND__ *,CWndData,std::less<HWND__ *>,std::allocator<std::pair<HWND__ * const,CWndData> >,0> >::_Node *>::allocator<std::_Tree_nod<std::_Tmap_traits<HWND__ *,CWndData,std::less<HWND__ *>,std::allocator<std::pair<HWND__ * const,CWndData> >,0> >::_Node *><std::pair<HWND__ * const,CWndData> >, COMDAT
; _this$ = ecx

; 120  : 		allocator(const allocator<_Other>&)

  00000	55		 push	 ebp
  00001	8b ec		 mov	 ebp, esp
  00003	51		 push	 ecx
  00004	c7 45 fc cc cc
	cc cc		 mov	 DWORD PTR [ebp-4], -858993460 ; ccccccccH
  0000b	89 4d fc	 mov	 DWORD PTR _this$[ebp], ecx

; 121  : 		{	// construct from a related allocator (do nothing)
; 122  : 		}

  0000e	8b 45 fc	 mov	 eax, DWORD PTR _this$[ebp]
  00011	8b e5		 mov	 esp, ebp
  00013	5d		 pop	 ebp
  00014	c2 04 00	 ret	 4
??$?0U?$pair@QAUHWND__@@UCWndData@@@std@@@?$allocator@PAU_Node@?$_Tree_nod@V?$_Tmap_traits@PAUHWND__@@UCWndData@@U?$less@PAUHWND__@@@std@@V?$allocator@U?$pair@QAUHWND__@@UCWndData@@@std@@@4@$0A@@std@@@std@@@std@@QAE@ABV?$allocator@U?$pair@QAUHWND__@@UCWndData@@@std@@@1@@Z ENDP ; std::allocator<std::_Tree_nod<std::_Tmap_traits<HWND__ *,CWndData,std::less<HWND__ *>,std::allocator<std::pair<HWND__ * const,CWndData> >,0> >::_Node *>::allocator<std::_Tree_nod<std::_Tmap_traits<HWND__ *,CWndData,std::less<HWND__ *>,std::allocator<std::pair<HWND__ * const,CWndData> >,0> >::_Node *><std::pair<HWND__ * const,CWndData> >
; Function compile flags: /Odt /RTCsu
_TEXT	ENDS
;	COMDAT ??$?0U?$pair@QAUHWND__@@UCWndData@@@std@@@?$allocator@U_Node@?$_Tree_nod@V?$_Tmap_traits@PAUHWND__@@UCWndData@@U?$less@PAUHWND__@@@std@@V?$allocator@U?$pair@QAUHWND__@@UCWndData@@@std@@@4@$0A@@std@@@std@@@std@@QAE@ABV?$allocator@U?$pair@QAUHWND__@@UCWndData@@@std@@@1@@Z
_TEXT	SEGMENT
_this$ = -4						; size = 4
___formal$ = 8						; size = 4
??$?0U?$pair@QAUHWND__@@UCWndData@@@std@@@?$allocator@U_Node@?$_Tree_nod@V?$_Tmap_traits@PAUHWND__@@UCWndData@@U?$less@PAUHWND__@@@std@@V?$allocator@U?$pair@QAUHWND__@@UCWndData@@@std@@@4@$0A@@std@@@std@@@std@@QAE@ABV?$allocator@U?$pair@QAUHWND__@@UCWndData@@@std@@@1@@Z PROC NEAR ; std::allocator<std::_Tree_nod<std::_Tmap_traits<HWND__ *,CWndData,std::less<HWND__ *>,std::allocator<std::pair<HWND__ * const,CWndData> >,0> >::_Node>::allocator<std::_Tree_nod<std::_Tmap_traits<HWND__ *,CWndData,std::less<HWND__ *>,std::allocator<std::pair<HWND__ * const,CWndData> >,0> >::_Node><std::pair<HWND__ * const,CWndData> >, COMDAT
; _this$ = ecx

; 120  : 		allocator(const allocator<_Other>&)

  00000	55		 push	 ebp
  00001	8b ec		 mov	 ebp, esp
  00003	51		 push	 ecx
  00004	c7 45 fc cc cc
	cc cc		 mov	 DWORD PTR [ebp-4], -858993460 ; ccccccccH
  0000b	89 4d fc	 mov	 DWORD PTR _this$[ebp], ecx

; 121  : 		{	// construct from a related allocator (do nothing)
; 122  : 		}

  0000e	8b 45 fc	 mov	 eax, DWORD PTR _this$[ebp]
  00011	8b e5		 mov	 esp, ebp
  00013	5d		 pop	 ebp
  00014	c2 04 00	 ret	 4
??$?0U?$pair@QAUHWND__@@UCWndData@@@std@@@?$allocator@U_Node@?$_Tree_nod@V?$_Tmap_traits@PAUHWND__@@UCWndData@@U?$less@PAUHWND__@@@std@@V?$allocator@U?$pair@QAUHWND__@@UCWndData@@@std@@@4@$0A@@std@@@std@@@std@@QAE@ABV?$allocator@U?$pair@QAUHWND__@@UCWndData@@@std@@@1@@Z ENDP ; std::allocator<std::_Tree_nod<std::_Tmap_traits<HWND__ *,CWndData,std::less<HWND__ *>,std::allocator<std::pair<HWND__ * const,CWndData> >,0> >::_Node>::allocator<std::_Tree_nod<std::_Tmap_traits<HWND__ *,CWndData,std::less<HWND__ *>,std::allocator<std::pair<HWND__ * const,CWndData> >,0> >::_Node><std::pair<HWND__ * const,CWndData> >
; Function compile flags: /Odt /RTCsu
_TEXT	ENDS
;	COMDAT ??$_Allocate@U_Node@?$_Tree_nod@V?$_Tmap_traits@PAUHWND__@@UCWndData@@U?$less@PAUHWND__@@@std@@V?$allocator@U?$pair@QAUHWND__@@UCWndData@@@std@@@4@$0A@@std@@@std@@@std@@YAPAU_Node@?$_Tree_nod@V?$_Tmap_traits@PAUHWND__@@UCWndData@@U?$less@PAUHWND__@@@std@@V?$allocator@U?$pair@QAUHWND__@@UCWndData@@@std@@@4@$0A@@std@@@0@IPAU120@@Z
_TEXT	SEGMENT
__Count$ = 8						; size = 4
___formal$ = 12						; size = 4
??$_Allocate@U_Node@?$_Tree_nod@V?$_Tmap_traits@PAUHWND__@@UCWndData@@U?$less@PAUHWND__@@@std@@V?$allocator@U?$pair@QAUHWND__@@UCWndData@@@std@@@4@$0A@@std@@@std@@@std@@YAPAU_Node@?$_Tree_nod@V?$_Tmap_traits@PAUHWND__@@UCWndData@@U?$less@PAUHWND__@@@std@@V?$allocator@U?$pair@QAUHWND__@@UCWndData@@@std@@@4@$0A@@std@@@0@IPAU120@@Z PROC NEAR ; std::_Allocate<std::_Tree_nod<std::_Tmap_traits<HWND__ *,CWndData,std::less<HWND__ *>,std::allocator<std::pair<HWND__ * const,CWndData> >,0> >::_Node>, COMDAT

; 33   : 	{	// allocate storage for _Count elements of type _Ty

  00000	55		 push	 ebp
  00001	8b ec		 mov	 ebp, esp

; 34   : 	return ((_Ty _FARQ *)operator new(_Count * sizeof (_Ty)));

  00003	8b 45 08	 mov	 eax, DWORD PTR __Count$[ebp]
  00006	6b c0 1c	 imul	 eax, 28			; 0000001cH
  00009	50		 push	 eax
  0000a	e8 00 00 00 00	 call	 ??2@YAPAXI@Z		; operator new
  0000f	83 c4 04	 add	 esp, 4

; 35   : 	}

  00012	3b ec		 cmp	 ebp, esp
  00014	e8 00 00 00 00	 call	 __RTC_CheckEsp
  00019	5d		 pop	 ebp
  0001a	c3		 ret	 0
??$_Allocate@U_Node@?$_Tree_nod@V?$_Tmap_traits@PAUHWND__@@UCWndData@@U?$less@PAUHWND__@@@std@@V?$allocator@U?$pair@QAUHWND__@@UCWndData@@@std@@@4@$0A@@std@@@std@@@std@@YAPAU_Node@?$_Tree_nod@V?$_Tmap_traits@PAUHWND__@@UCWndData@@U?$less@PAUHWND__@@@std@@V?$allocator@U?$pair@QAUHWND__@@UCWndData@@@std@@@4@$0A@@std@@@0@IPAU120@@Z ENDP ; std::_Allocate<std::_Tree_nod<std::_Tmap_traits<HWND__ *,CWndData,std::less<HWND__ *>,std::allocator<std::pair<HWND__ * const,CWndData> >,0> >::_Node>
; Function compile flags: /Odt /RTCsu
_TEXT	ENDS
;	COMDAT ??$_Destroy@U_Node@?$_Tree_nod@V?$_Tmap_traits@PAUHWND__@@UCWndData@@U?$less@PAUHWND__@@@std@@V?$allocator@U?$pair@QAUHWND__@@UCWndData@@@std@@@4@$0A@@std@@@std@@@std@@YAXPAU_Node@?$_Tree_nod@V?$_Tmap_traits@PAUHWND__@@UCWndData@@U?$less@PAUHWND__@@@std@@V?$allocator@U?$pair@QAUHWND__@@UCWndData@@@std@@@4@$0A@@std@@@0@@Z
_TEXT	SEGMENT
__Ptr$ = 8						; size = 4
??$_Destroy@U_Node@?$_Tree_nod@V?$_Tmap_traits@PAUHWND__@@UCWndData@@U?$less@PAUHWND__@@@std@@V?$allocator@U?$pair@QAUHWND__@@UCWndData@@@std@@@4@$0A@@std@@@std@@@std@@YAXPAU_Node@?$_Tree_nod@V?$_Tmap_traits@PAUHWND__@@UCWndData@@U?$less@PAUHWND__@@@std@@V?$allocator@U?$pair@QAUHWND__@@UCWndData@@@std@@@4@$0A@@std@@@0@@Z PROC NEAR ; std::_Destroy<std::_Tree_nod<std::_Tmap_traits<HWND__ *,CWndData,std::less<HWND__ *>,std::allocator<std::pair<HWND__ * const,CWndData> >,0> >::_Node>, COMDAT

; 48   : 	{	// destroy object at _Ptr

  00000	55		 push	 ebp
  00001	8b ec		 mov	 ebp, esp

; 49   : 	_DESTRUCTOR(_Ty, _Ptr);
; 50   : 	}

  00003	5d		 pop	 ebp
  00004	c3		 ret	 0
??$_Destroy@U_Node@?$_Tree_nod@V?$_Tmap_traits@PAUHWND__@@UCWndData@@U?$less@PAUHWND__@@@std@@V?$allocator@U?$pair@QAUHWND__@@UCWndData@@@std@@@4@$0A@@std@@@std@@@std@@YAXPAU_Node@?$_Tree_nod@V?$_Tmap_traits@PAUHWND__@@UCWndData@@U?$less@PAUHWND__@@@std@@V?$allocator@U?$pair@QAUHWND__@@UCWndData@@@std@@@4@$0A@@std@@@0@@Z ENDP ; std::_Destroy<std::_Tree_nod<std::_Tmap_traits<HWND__ *,CWndData,std::less<HWND__ *>,std::allocator<std::pair<HWND__ * const,CWndData> >,0> >::_Node>
; Function compile flags: /Odt /RTCsu
_TEXT	ENDS
;	COMDAT ??$_Construct@PAU_Node@?$_Tree_nod@V?$_Tmap_traits@PAUHWND__@@UCWndData@@U?$less@PAUHWND__@@@std@@V?$allocator@U?$pair@QAUHWND__@@UCWndData@@@std@@@4@$0A@@std@@@std@@PAU123@@std@@YAXPAPAU_Node@?$_Tree_nod@V?$_Tmap_traits@PAUHWND__@@UCWndData@@U?$less@PAUHWND__@@@std@@V?$allocator@U?$pair@QAUHWND__@@UCWndData@@@std@@@4@$0A@@std@@@0@ABQAU120@@Z
_TEXT	SEGMENT
tv68 = -8						; size = 4
$T192611 = -4						; size = 4
__Ptr$ = 8						; size = 4
__Val$ = 12						; size = 4
??$_Construct@PAU_Node@?$_Tree_nod@V?$_Tmap_traits@PAUHWND__@@UCWndData@@U?$less@PAUHWND__@@@std@@V?$allocator@U?$pair@QAUHWND__@@UCWndData@@@std@@@4@$0A@@std@@@std@@PAU123@@std@@YAXPAPAU_Node@?$_Tree_nod@V?$_Tmap_traits@PAUHWND__@@UCWndData@@U?$less@PAUHWND__@@@std@@V?$allocator@U?$pair@QAUHWND__@@UCWndData@@@std@@@4@$0A@@std@@@0@ABQAU120@@Z PROC NEAR ; std::_Construct<std::_Tree_nod<std::_Tmap_traits<HWND__ *,CWndData,std::less<HWND__ *>,std::allocator<std::pair<HWND__ * const,CWndData> >,0> >::_Node *,std::_Tree_nod<std::_Tmap_traits<HWND__ *,CWndData,std::less<HWND__ *>,std::allocator<std::pair<HWND__ * const,CWndData> >,0> >::_Node *>, COMDAT

; 41   : 	{	// construct object at _Ptr with value _Val

  00000	55		 push	 ebp
  00001	8b ec		 mov	 ebp, esp
  00003	83 ec 08	 sub	 esp, 8
  00006	c7 45 f8 cc cc
	cc cc		 mov	 DWORD PTR [ebp-8], -858993460 ; ccccccccH
  0000d	c7 45 fc cc cc
	cc cc		 mov	 DWORD PTR [ebp-4], -858993460 ; ccccccccH

; 42   : 	new ((void _FARQ *)_Ptr) _T1(_Val);

  00014	8b 45 08	 mov	 eax, DWORD PTR __Ptr$[ebp]
  00017	50		 push	 eax
  00018	6a 04		 push	 4
  0001a	e8 00 00 00 00	 call	 ??2@YAPAXIPAX@Z		; operator new
  0001f	83 c4 08	 add	 esp, 8
  00022	89 45 fc	 mov	 DWORD PTR $T192611[ebp], eax
  00025	83 7d fc 00	 cmp	 DWORD PTR $T192611[ebp], 0
  00029	74 12		 je	 SHORT $L192612
  0002b	8b 4d fc	 mov	 ecx, DWORD PTR $T192611[ebp]
  0002e	8b 55 0c	 mov	 edx, DWORD PTR __Val$[ebp]
  00031	8b 02		 mov	 eax, DWORD PTR [edx]
  00033	89 01		 mov	 DWORD PTR [ecx], eax
  00035	8b 4d fc	 mov	 ecx, DWORD PTR $T192611[ebp]
  00038	89 4d f8	 mov	 DWORD PTR tv68[ebp], ecx
  0003b	eb 07		 jmp	 SHORT $L191390
$L192612:
  0003d	c7 45 f8 00 00
	00 00		 mov	 DWORD PTR tv68[ebp], 0
$L191390:

; 43   : 	}

  00044	83 c4 08	 add	 esp, 8
  00047	3b ec		 cmp	 ebp, esp
  00049	e8 00 00 00 00	 call	 __RTC_CheckEsp
  0004e	8b e5		 mov	 esp, ebp
  00050	5d		 pop	 ebp
  00051	c3		 ret	 0
??$_Construct@PAU_Node@?$_Tree_nod@V?$_Tmap_traits@PAUHWND__@@UCWndData@@U?$less@PAUHWND__@@@std@@V?$allocator@U?$pair@QAUHWND__@@UCWndData@@@std@@@4@$0A@@std@@@std@@PAU123@@std@@YAXPAPAU_Node@?$_Tree_nod@V?$_Tmap_traits@PAUHWND__@@UCWndData@@U?$less@PAUHWND__@@@std@@V?$allocator@U?$pair@QAUHWND__@@UCWndData@@@std@@@4@$0A@@std@@@0@ABQAU120@@Z ENDP ; std::_Construct<std::_Tree_nod<std::_Tmap_traits<HWND__ *,CWndData,std::less<HWND__ *>,std::allocator<std::pair<HWND__ * const,CWndData> >,0> >::_Node *,std::_Tree_nod<std::_Tmap_traits<HWND__ *,CWndData,std::less<HWND__ *>,std::allocator<std::pair<HWND__ * const,CWndData> >,0> >::_Node *>
; Function compile flags: /Odt /RTCsu
; File d:\program files (x86)\microsoft visual studio .net 2003\vc7\include\xutility
_TEXT	ENDS
;	COMDAT ??$_Ptr_cat@VCHostWnd@@@std@@YA?AU_Scalar_ptr_iterator_tag@0@PAPAVCHostWnd@@0@Z
_TEXT	SEGMENT
__Cat$ = -5						; size = 1
___formal$ = 8						; size = 4
___formal$ = 12						; size = 4
??$_Ptr_cat@VCHostWnd@@@std@@YA?AU_Scalar_ptr_iterator_tag@0@PAPAVCHostWnd@@0@Z PROC NEAR ; std::_Ptr_cat<CHostWnd>, COMDAT

; 218  : 	{	// return pointer category from pointer to pointer arguments

  00000	55		 push	 ebp
  00001	8b ec		 mov	 ebp, esp
  00003	83 ec 0c	 sub	 esp, 12			; 0000000cH
  00006	c7 45 f4 cc cc
	cc cc		 mov	 DWORD PTR [ebp-12], -858993460 ; ccccccccH
  0000d	c7 45 f8 cc cc
	cc cc		 mov	 DWORD PTR [ebp-8], -858993460 ; ccccccccH
  00014	c7 45 fc cc cc
	cc cc		 mov	 DWORD PTR [ebp-4], -858993460 ; ccccccccH

; 219  : 	_Scalar_ptr_iterator_tag _Cat;
; 220  : 	return (_Cat);

  0001b	8a 45 fb	 mov	 al, BYTE PTR __Cat$[ebp]

; 221  : 	}

  0001e	52		 push	 edx
  0001f	8b cd		 mov	 ecx, ebp
  00021	50		 push	 eax
  00022	8d 15 00 00 00
	00		 lea	 edx, DWORD PTR $L192617
  00028	e8 00 00 00 00	 call	 @_RTC_CheckStackVars@8
  0002d	58		 pop	 eax
  0002e	5a		 pop	 edx
  0002f	8b e5		 mov	 esp, ebp
  00031	5d		 pop	 ebp
  00032	c3		 ret	 0
$L192617:
  00033	01 00 00 00	 DD	 1
  00037	00 00 00 00	 DD	 $L192616
$L192616:
  0003b	fb ff ff ff	 DD	 -5			; fffffffbH
  0003f	01 00 00 00	 DD	 1
  00043	00 00 00 00	 DD	 $L192615
$L192615:
  00047	5f		 DB	 95			; 0000005fH
  00048	43		 DB	 67			; 00000043H
  00049	61		 DB	 97			; 00000061H
  0004a	74		 DB	 116			; 00000074H
  0004b	00		 DB	 0
??$_Ptr_cat@VCHostWnd@@@std@@YA?AU_Scalar_ptr_iterator_tag@0@PAPAVCHostWnd@@0@Z ENDP ; std::_Ptr_cat<CHostWnd>
_TEXT	ENDS
PUBLIC	??$fill_n@PAPAVCHostWnd@@IPAV1@@std@@YAXPAPAVCHostWnd@@IABQAV1@@Z ; std::fill_n<CHostWnd * *,unsigned int,CHostWnd *>
; Function compile flags: /Odt /RTCsu
; File d:\program files (x86)\microsoft visual studio .net 2003\vc7\include\memory
;	COMDAT ??$_Uninit_fill_n@PAVCHostWnd@@IPAV1@@std@@YAXPAPAVCHostWnd@@IABQAV1@AAV?$allocator@PAVCHostWnd@@@0@U_Scalar_ptr_iterator_tag@0@@Z
_TEXT	SEGMENT
__First$ = 8						; size = 4
__Count$ = 12						; size = 4
__Val$ = 16						; size = 4
___formal$ = 20						; size = 4
___formal$ = 24						; size = 1
??$_Uninit_fill_n@PAVCHostWnd@@IPAV1@@std@@YAXPAPAVCHostWnd@@IABQAV1@AAV?$allocator@PAVCHostWnd@@@0@U_Scalar_ptr_iterator_tag@0@@Z PROC NEAR ; std::_Uninit_fill_n<CHostWnd *,unsigned int,CHostWnd *>, COMDAT

; 236  : 	{	// copy _Count *_Val to raw _First, using _Al, scalar type

  00000	55		 push	 ebp
  00001	8b ec		 mov	 ebp, esp

; 237  : 	fill_n(_First, _Count, _Val);

  00003	8b 45 10	 mov	 eax, DWORD PTR __Val$[ebp]
  00006	50		 push	 eax
  00007	8b 4d 0c	 mov	 ecx, DWORD PTR __Count$[ebp]
  0000a	51		 push	 ecx
  0000b	8b 55 08	 mov	 edx, DWORD PTR __First$[ebp]
  0000e	52		 push	 edx
  0000f	e8 00 00 00 00	 call	 ??$fill_n@PAPAVCHostWnd@@IPAV1@@std@@YAXPAPAVCHostWnd@@IABQAV1@@Z ; std::fill_n<CHostWnd * *,unsigned int,CHostWnd *>
  00014	83 c4 0c	 add	 esp, 12			; 0000000cH

; 238  : 	}

  00017	3b ec		 cmp	 ebp, esp
  00019	e8 00 00 00 00	 call	 __RTC_CheckEsp
  0001e	5d		 pop	 ebp
  0001f	c3		 ret	 0
??$_Uninit_fill_n@PAVCHostWnd@@IPAV1@@std@@YAXPAPAVCHostWnd@@IABQAV1@AAV?$allocator@PAVCHostWnd@@@0@U_Scalar_ptr_iterator_tag@0@@Z ENDP ; std::_Uninit_fill_n<CHostWnd *,unsigned int,CHostWnd *>
; Function compile flags: /Odt /RTCsu
; File d:\program files (x86)\microsoft visual studio .net 2003\vc7\include\xutility
_TEXT	ENDS
;	COMDAT ??$_Ptr_cat@VILyricPopupWndShowObserver@@@std@@YA?AU_Scalar_ptr_iterator_tag@0@PAPAVILyricPopupWndShowObserver@@0@Z
_TEXT	SEGMENT
__Cat$ = -5						; size = 1
___formal$ = 8						; size = 4
___formal$ = 12						; size = 4
??$_Ptr_cat@VILyricPopupWndShowObserver@@@std@@YA?AU_Scalar_ptr_iterator_tag@0@PAPAVILyricPopupWndShowObserver@@0@Z PROC NEAR ; std::_Ptr_cat<ILyricPopupWndShowObserver>, COMDAT

; 218  : 	{	// return pointer category from pointer to pointer arguments

  00000	55		 push	 ebp
  00001	8b ec		 mov	 ebp, esp
  00003	83 ec 0c	 sub	 esp, 12			; 0000000cH
  00006	c7 45 f4 cc cc
	cc cc		 mov	 DWORD PTR [ebp-12], -858993460 ; ccccccccH
  0000d	c7 45 f8 cc cc
	cc cc		 mov	 DWORD PTR [ebp-8], -858993460 ; ccccccccH
  00014	c7 45 fc cc cc
	cc cc		 mov	 DWORD PTR [ebp-4], -858993460 ; ccccccccH

; 219  : 	_Scalar_ptr_iterator_tag _Cat;
; 220  : 	return (_Cat);

  0001b	8a 45 fb	 mov	 al, BYTE PTR __Cat$[ebp]

; 221  : 	}

  0001e	52		 push	 edx
  0001f	8b cd		 mov	 ecx, ebp
  00021	50		 push	 eax
  00022	8d 15 00 00 00
	00		 lea	 edx, DWORD PTR $L192622
  00028	e8 00 00 00 00	 call	 @_RTC_CheckStackVars@8
  0002d	58		 pop	 eax
  0002e	5a		 pop	 edx
  0002f	8b e5		 mov	 esp, ebp
  00031	5d		 pop	 ebp
  00032	c3		 ret	 0
$L192622:
  00033	01 00 00 00	 DD	 1
  00037	00 00 00 00	 DD	 $L192621
$L192621:
  0003b	fb ff ff ff	 DD	 -5			; fffffffbH
  0003f	01 00 00 00	 DD	 1
  00043	00 00 00 00	 DD	 $L192620
$L192620:
  00047	5f		 DB	 95			; 0000005fH
  00048	43		 DB	 67			; 00000043H
  00049	61		 DB	 97			; 00000061H
  0004a	74		 DB	 116			; 00000074H
  0004b	00		 DB	 0
??$_Ptr_cat@VILyricPopupWndShowObserver@@@std@@YA?AU_Scalar_ptr_iterator_tag@0@PAPAVILyricPopupWndShowObserver@@0@Z ENDP ; std::_Ptr_cat<ILyricPopupWndShowObserver>
; Function compile flags: /Odt /RTCsu
; File d:\program files (x86)\microsoft visual studio .net 2003\vc7\include\xmemory
_TEXT	ENDS
;	COMDAT ??$_Destroy_range@PAVCHostWnd@@V?$allocator@PAVCHostWnd@@@std@@@std@@YAXPAPAVCHostWnd@@0AAV?$allocator@PAVCHostWnd@@@0@U_Scalar_ptr_iterator_tag@0@@Z
_TEXT	SEGMENT
__First$ = 8						; size = 4
__Last$ = 12						; size = 4
__Al$ = 16						; size = 4
___formal$ = 20						; size = 1
??$_Destroy_range@PAVCHostWnd@@V?$allocator@PAVCHostWnd@@@std@@@std@@YAXPAPAVCHostWnd@@0AAV?$allocator@PAVCHostWnd@@@0@U_Scalar_ptr_iterator_tag@0@@Z PROC NEAR ; std::_Destroy_range<CHostWnd *,std::allocator<CHostWnd *> >, COMDAT

; 233  : 	{	// destroy [_First, _Last), scalar type (do nothing)

  00000	55		 push	 ebp
  00001	8b ec		 mov	 ebp, esp

; 234  : 	}

  00003	5d		 pop	 ebp
  00004	c3		 ret	 0
??$_Destroy_range@PAVCHostWnd@@V?$allocator@PAVCHostWnd@@@std@@@std@@YAXPAPAVCHostWnd@@0AAV?$allocator@PAVCHostWnd@@@0@U_Scalar_ptr_iterator_tag@0@@Z ENDP ; std::_Destroy_range<CHostWnd *,std::allocator<CHostWnd *> >
_TEXT	ENDS
PUBLIC	??$_Uninit_copy@PAVCHostWnd@@PAV1@@std@@YAPAPAVCHostWnd@@PAPAV1@00AAV?$allocator@PAVCHostWnd@@@0@U_Scalar_ptr_iterator_tag@0@@Z ; std::_Uninit_copy<CHostWnd *,CHostWnd *>
; Function compile flags: /Odt /RTCsu
; File d:\program files (x86)\microsoft visual studio .net 2003\vc7\include\memory
;	COMDAT ??$_Uninitialized_copy@PAPAVCHostWnd@@PAPAV1@V?$allocator@PAVCHostWnd@@@std@@@std@@YAPAPAVCHostWnd@@PAPAV1@00AAV?$allocator@PAVCHostWnd@@@0@@Z
_TEXT	SEGMENT
$T192625 = -1						; size = 1
__First$ = 8						; size = 4
__Last$ = 12						; size = 4
__Dest$ = 16						; size = 4
__Al$ = 20						; size = 4
??$_Uninitialized_copy@PAPAVCHostWnd@@PAPAV1@V?$allocator@PAVCHostWnd@@@std@@@std@@YAPAPAVCHostWnd@@PAPAV1@00AAV?$allocator@PAVCHostWnd@@@0@@Z PROC NEAR ; std::_Uninitialized_copy<CHostWnd * *,CHostWnd * *,std::allocator<CHostWnd *> >, COMDAT

; 126  : 	{	// copy [_First, _Last) to raw _Dest, using _Al

  00000	55		 push	 ebp
  00001	8b ec		 mov	 ebp, esp
  00003	51		 push	 ecx
  00004	c7 45 fc cc cc
	cc cc		 mov	 DWORD PTR [ebp-4], -858993460 ; ccccccccH

; 127  : 	return (_Uninit_copy(_First, _Last, _Dest, _Al,
; 128  : 		_Ptr_cat(_First, _Dest)));

  0000b	8b 45 10	 mov	 eax, DWORD PTR __Dest$[ebp]
  0000e	50		 push	 eax
  0000f	8b 4d 08	 mov	 ecx, DWORD PTR __First$[ebp]
  00012	51		 push	 ecx
  00013	e8 00 00 00 00	 call	 ??$_Ptr_cat@VCHostWnd@@@std@@YA?AU_Scalar_ptr_iterator_tag@0@PAPAVCHostWnd@@0@Z ; std::_Ptr_cat<CHostWnd>
  00018	83 c4 08	 add	 esp, 8
  0001b	88 45 ff	 mov	 BYTE PTR $T192625[ebp], al
  0001e	8a 55 ff	 mov	 dl, BYTE PTR $T192625[ebp]
  00021	52		 push	 edx
  00022	8b 45 14	 mov	 eax, DWORD PTR __Al$[ebp]
  00025	50		 push	 eax
  00026	8b 4d 10	 mov	 ecx, DWORD PTR __Dest$[ebp]
  00029	51		 push	 ecx
  0002a	8b 55 0c	 mov	 edx, DWORD PTR __Last$[ebp]
  0002d	52		 push	 edx
  0002e	8b 45 08	 mov	 eax, DWORD PTR __First$[ebp]
  00031	50		 push	 eax
  00032	e8 00 00 00 00	 call	 ??$_Uninit_copy@PAVCHostWnd@@PAV1@@std@@YAPAPAVCHostWnd@@PAPAV1@00AAV?$allocator@PAVCHostWnd@@@0@U_Scalar_ptr_iterator_tag@0@@Z ; std::_Uninit_copy<CHostWnd *,CHostWnd *>
  00037	83 c4 14	 add	 esp, 20			; 00000014H

; 129  : 	}

  0003a	83 c4 04	 add	 esp, 4
  0003d	3b ec		 cmp	 ebp, esp
  0003f	e8 00 00 00 00	 call	 __RTC_CheckEsp
  00044	8b e5		 mov	 esp, ebp
  00046	5d		 pop	 ebp
  00047	c3		 ret	 0
??$_Uninitialized_copy@PAPAVCHostWnd@@PAPAV1@V?$allocator@PAVCHostWnd@@@std@@@std@@YAPAPAVCHostWnd@@PAPAV1@00AAV?$allocator@PAVCHostWnd@@@0@@Z ENDP ; std::_Uninitialized_copy<CHostWnd * *,CHostWnd * *,std::allocator<CHostWnd *> >
_TEXT	ENDS
EXTRN	__imp__memmove:NEAR
; Function compile flags: /Odt /RTCsu
; File d:\program files (x86)\microsoft visual studio .net 2003\vc7\include\xutility
;	COMDAT ??$_Copy_backward_opt@PAPAVCHostWnd@@PAPAV1@@std@@YAPAPAVCHostWnd@@PAPAV1@00U_Scalar_ptr_iterator_tag@0@@Z
_TEXT	SEGMENT
__Off$ = -4						; size = 4
__First$ = 8						; size = 4
__Last$ = 12						; size = 4
__Dest$ = 16						; size = 4
___formal$ = 20						; size = 1
??$_Copy_backward_opt@PAPAVCHostWnd@@PAPAV1@@std@@YAPAPAVCHostWnd@@PAPAV1@00U_Scalar_ptr_iterator_tag@0@@Z PROC NEAR ; std::_Copy_backward_opt<CHostWnd * *,CHostWnd * *>, COMDAT

; 1058 : 	{	// copy [_First, _Last) backwards to [..., _Dest), pointers to scalars

  00000	55		 push	 ebp
  00001	8b ec		 mov	 ebp, esp
  00003	51		 push	 ecx
  00004	56		 push	 esi
  00005	c7 45 fc cc cc
	cc cc		 mov	 DWORD PTR [ebp-4], -858993460 ; ccccccccH

; 1059 : 	ptrdiff_t _Off = _Last - _First;	// NB: non-overlapping move

  0000c	8b 45 0c	 mov	 eax, DWORD PTR __Last$[ebp]
  0000f	2b 45 08	 sub	 eax, DWORD PTR __First$[ebp]
  00012	c1 f8 02	 sar	 eax, 2
  00015	89 45 fc	 mov	 DWORD PTR __Off$[ebp], eax

; 1060 : 	return ((_OutIt)memmove(&*_Dest - _Off, &*_First,
; 1061 : 		_Off * sizeof (*_First)));

  00018	8b 4d fc	 mov	 ecx, DWORD PTR __Off$[ebp]
  0001b	c1 e1 02	 shl	 ecx, 2
  0001e	8b f4		 mov	 esi, esp
  00020	51		 push	 ecx
  00021	8b 55 08	 mov	 edx, DWORD PTR __First$[ebp]
  00024	52		 push	 edx
  00025	8b 45 fc	 mov	 eax, DWORD PTR __Off$[ebp]
  00028	c1 e0 02	 shl	 eax, 2
  0002b	8b 4d 10	 mov	 ecx, DWORD PTR __Dest$[ebp]
  0002e	2b c8		 sub	 ecx, eax
  00030	51		 push	 ecx
  00031	ff 15 00 00 00
	00		 call	 DWORD PTR __imp__memmove
  00037	83 c4 0c	 add	 esp, 12			; 0000000cH
  0003a	3b f4		 cmp	 esi, esp
  0003c	e8 00 00 00 00	 call	 __RTC_CheckEsp

; 1062 : 	}

  00041	5e		 pop	 esi
  00042	83 c4 04	 add	 esp, 4
  00045	3b ec		 cmp	 ebp, esp
  00047	e8 00 00 00 00	 call	 __RTC_CheckEsp
  0004c	8b e5		 mov	 esp, ebp
  0004e	5d		 pop	 ebp
  0004f	c3		 ret	 0
??$_Copy_backward_opt@PAPAVCHostWnd@@PAPAV1@@std@@YAPAPAVCHostWnd@@PAPAV1@00U_Scalar_ptr_iterator_tag@0@@Z ENDP ; std::_Copy_backward_opt<CHostWnd * *,CHostWnd * *>
; Function compile flags: /Odt /RTCsu
; File d:\program files (x86)\microsoft visual studio .net 2003\vc7\include\xmemory
_TEXT	ENDS
;	COMDAT ??$_Destroy_range@PAVILyricPopupWndShowObserver@@V?$allocator@PAVILyricPopupWndShowObserver@@@std@@@std@@YAXPAPAVILyricPopupWndShowObserver@@0AAV?$allocator@PAVILyricPopupWndShowObserver@@@0@U_Scalar_ptr_iterator_tag@0@@Z
_TEXT	SEGMENT
__First$ = 8						; size = 4
__Last$ = 12						; size = 4
__Al$ = 16						; size = 4
___formal$ = 20						; size = 1
??$_Destroy_range@PAVILyricPopupWndShowObserver@@V?$allocator@PAVILyricPopupWndShowObserver@@@std@@@std@@YAXPAPAVILyricPopupWndShowObserver@@0AAV?$allocator@PAVILyricPopupWndShowObserver@@@0@U_Scalar_ptr_iterator_tag@0@@Z PROC NEAR ; std::_Destroy_range<ILyricPopupWndShowObserver *,std::allocator<ILyricPopupWndShowObserver *> >, COMDAT

; 233  : 	{	// destroy [_First, _Last), scalar type (do nothing)

  00000	55		 push	 ebp
  00001	8b ec		 mov	 ebp, esp

; 234  : 	}

  00003	5d		 pop	 ebp
  00004	c3		 ret	 0
??$_Destroy_range@PAVILyricPopupWndShowObserver@@V?$allocator@PAVILyricPopupWndShowObserver@@@std@@@std@@YAXPAPAVILyricPopupWndShowObserver@@0AAV?$allocator@PAVILyricPopupWndShowObserver@@@0@U_Scalar_ptr_iterator_tag@0@@Z ENDP ; std::_Destroy_range<ILyricPopupWndShowObserver *,std::allocator<ILyricPopupWndShowObserver *> >
; Function compile flags: /Odt /RTCsu
; File d:\program files (x86)\microsoft visual studio .net 2003\vc7\include\xutility
_TEXT	ENDS
;	COMDAT ??$fill_n@PAPAVCHostWnd@@IPAV1@@std@@YAXPAPAVCHostWnd@@IABQAV1@@Z
_TEXT	SEGMENT
__First$ = 8						; size = 4
__Count$ = 12						; size = 4
__Val$ = 16						; size = 4
??$fill_n@PAPAVCHostWnd@@IPAV1@@std@@YAXPAPAVCHostWnd@@IABQAV1@@Z PROC NEAR ; std::fill_n<CHostWnd * *,unsigned int,CHostWnd *>, COMDAT

; 1159 : 	{	// copy _Val _Count times through [_First, ...)

  00000	55		 push	 ebp
  00001	8b ec		 mov	 ebp, esp

; 1160 : 	for (; 0 < _Count; --_Count, ++_First)

  00003	eb 12		 jmp	 SHORT $L191506
$L191507:
  00005	8b 45 0c	 mov	 eax, DWORD PTR __Count$[ebp]
  00008	83 e8 01	 sub	 eax, 1
  0000b	89 45 0c	 mov	 DWORD PTR __Count$[ebp], eax
  0000e	8b 4d 08	 mov	 ecx, DWORD PTR __First$[ebp]
  00011	83 c1 04	 add	 ecx, 4
  00014	89 4d 08	 mov	 DWORD PTR __First$[ebp], ecx
$L191506:
  00017	83 7d 0c 00	 cmp	 DWORD PTR __Count$[ebp], 0
  0001b	76 0c		 jbe	 SHORT $L191505

; 1161 : 		*_First = _Val;

  0001d	8b 55 08	 mov	 edx, DWORD PTR __First$[ebp]
  00020	8b 45 10	 mov	 eax, DWORD PTR __Val$[ebp]
  00023	8b 08		 mov	 ecx, DWORD PTR [eax]
  00025	89 0a		 mov	 DWORD PTR [edx], ecx
  00027	eb dc		 jmp	 SHORT $L191507
$L191505:

; 1162 : 	}

  00029	5d		 pop	 ebp
  0002a	c3		 ret	 0
??$fill_n@PAPAVCHostWnd@@IPAV1@@std@@YAXPAPAVCHostWnd@@IABQAV1@@Z ENDP ; std::fill_n<CHostWnd * *,unsigned int,CHostWnd *>
; Function compile flags: /Odt /RTCsu
; File d:\program files (x86)\microsoft visual studio .net 2003\vc7\include\memory
_TEXT	ENDS
;	COMDAT ??$_Uninit_copy@PAVCHostWnd@@PAV1@@std@@YAPAPAVCHostWnd@@PAPAV1@00AAV?$allocator@PAVCHostWnd@@@0@U_Scalar_ptr_iterator_tag@0@@Z
_TEXT	SEGMENT
__Count$ = -4						; size = 4
__First$ = 8						; size = 4
__Last$ = 12						; size = 4
__Dest$ = 16						; size = 4
___formal$ = 20						; size = 4
___formal$ = 24						; size = 1
??$_Uninit_copy@PAVCHostWnd@@PAV1@@std@@YAPAPAVCHostWnd@@PAPAV1@00AAV?$allocator@PAVCHostWnd@@@0@U_Scalar_ptr_iterator_tag@0@@Z PROC NEAR ; std::_Uninit_copy<CHostWnd *,CHostWnd *>, COMDAT

; 105  : 	{	// copy [_First, _Last) to raw _Dest, (const) scalar type

  00000	55		 push	 ebp
  00001	8b ec		 mov	 ebp, esp
  00003	51		 push	 ecx
  00004	56		 push	 esi
  00005	c7 45 fc cc cc
	cc cc		 mov	 DWORD PTR [ebp-4], -858993460 ; ccccccccH

; 106  : 	size_t _Count = (size_t)(_Last - _First);

  0000c	8b 45 0c	 mov	 eax, DWORD PTR __Last$[ebp]
  0000f	2b 45 08	 sub	 eax, DWORD PTR __First$[ebp]
  00012	c1 f8 02	 sar	 eax, 2
  00015	89 45 fc	 mov	 DWORD PTR __Count$[ebp], eax

; 107  : 	return ((_Ty2 *)memmove(&*_Dest, &*_First,
; 108  : 		_Count * sizeof (*_First)) + _Count);	// NB: non-overlapping move

  00018	8b 4d fc	 mov	 ecx, DWORD PTR __Count$[ebp]
  0001b	c1 e1 02	 shl	 ecx, 2
  0001e	8b f4		 mov	 esi, esp
  00020	51		 push	 ecx
  00021	8b 55 08	 mov	 edx, DWORD PTR __First$[ebp]
  00024	52		 push	 edx
  00025	8b 45 10	 mov	 eax, DWORD PTR __Dest$[ebp]
  00028	50		 push	 eax
  00029	ff 15 00 00 00
	00		 call	 DWORD PTR __imp__memmove
  0002f	83 c4 0c	 add	 esp, 12			; 0000000cH
  00032	3b f4		 cmp	 esi, esp
  00034	e8 00 00 00 00	 call	 __RTC_CheckEsp
  00039	8b 4d fc	 mov	 ecx, DWORD PTR __Count$[ebp]
  0003c	8d 04 88	 lea	 eax, DWORD PTR [eax+ecx*4]

; 109  : 	}

  0003f	5e		 pop	 esi
  00040	83 c4 04	 add	 esp, 4
  00043	3b ec		 cmp	 ebp, esp
  00045	e8 00 00 00 00	 call	 __RTC_CheckEsp
  0004a	8b e5		 mov	 esp, ebp
  0004c	5d		 pop	 ebp
  0004d	c3		 ret	 0
??$_Uninit_copy@PAVCHostWnd@@PAV1@@std@@YAPAPAVCHostWnd@@PAPAV1@00AAV?$allocator@PAVCHostWnd@@@0@U_Scalar_ptr_iterator_tag@0@@Z ENDP ; std::_Uninit_copy<CHostWnd *,CHostWnd *>
_TEXT	ENDS
EXTRN	__imp_?c_str@?$basic_string@DU?$char_traits@D@std@@V?$allocator@D@2@@std@@QBEPBDXZ:NEAR
; Function compile flags: /Odt /RTCsu
; File d:\program files (x86)\microsoft visual studio .net 2003\vc7\include\stdexcept
;	COMDAT ?what@logic_error@std@@UBEPBDXZ
_TEXT	SEGMENT
_this$ = -4						; size = 4
?what@logic_error@std@@UBEPBDXZ PROC NEAR		; std::logic_error::what, COMDAT
; _this$ = ecx

; 26   : 		{	// return pointer to message string

  00000	55		 push	 ebp
  00001	8b ec		 mov	 ebp, esp
  00003	51		 push	 ecx
  00004	56		 push	 esi
  00005	c7 45 fc cc cc
	cc cc		 mov	 DWORD PTR [ebp-4], -858993460 ; ccccccccH
  0000c	89 4d fc	 mov	 DWORD PTR _this$[ebp], ecx

; 27   : 		return (_Str.c_str());

  0000f	8b 4d fc	 mov	 ecx, DWORD PTR _this$[ebp]
  00012	83 c1 0c	 add	 ecx, 12			; 0000000cH
  00015	8b f4		 mov	 esi, esp
  00017	ff 15 00 00 00
	00		 call	 DWORD PTR __imp_?c_str@?$basic_string@DU?$char_traits@D@std@@V?$allocator@D@2@@std@@QBEPBDXZ
  0001d	3b f4		 cmp	 esi, esp
  0001f	e8 00 00 00 00	 call	 __RTC_CheckEsp

; 28   : 		}

  00024	5e		 pop	 esi
  00025	83 c4 04	 add	 esp, 4
  00028	3b ec		 cmp	 ebp, esp
  0002a	e8 00 00 00 00	 call	 __RTC_CheckEsp
  0002f	8b e5		 mov	 esp, ebp
  00031	5d		 pop	 ebp
  00032	c3		 ret	 0
?what@logic_error@std@@UBEPBDXZ ENDP			; std::logic_error::what
_TEXT	ENDS
PUBLIC	??0logic_error@std@@QAE@ABV?$basic_string@DU?$char_traits@D@std@@V?$allocator@D@2@@1@@Z ; std::logic_error::logic_error
; Function compile flags: /Odt /RTCsu
;	COMDAT ??0length_error@std@@QAE@ABV?$basic_string@DU?$char_traits@D@std@@V?$allocator@D@2@@1@@Z
_TEXT	SEGMENT
_this$ = -4						; size = 4
__Message$ = 8						; size = 4
??0length_error@std@@QAE@ABV?$basic_string@DU?$char_traits@D@std@@V?$allocator@D@2@@1@@Z PROC NEAR ; std::length_error::length_error, COMDAT
; _this$ = ecx

; 95   : 		{	// construct from message string

  00000	55		 push	 ebp
  00001	8b ec		 mov	 ebp, esp
  00003	51		 push	 ecx
  00004	c7 45 fc cc cc
	cc cc		 mov	 DWORD PTR [ebp-4], -858993460 ; ccccccccH
  0000b	89 4d fc	 mov	 DWORD PTR _this$[ebp], ecx
  0000e	8b 45 08	 mov	 eax, DWORD PTR __Message$[ebp]
  00011	50		 push	 eax
  00012	8b 4d fc	 mov	 ecx, DWORD PTR _this$[ebp]
  00015	e8 00 00 00 00	 call	 ??0logic_error@std@@QAE@ABV?$basic_string@DU?$char_traits@D@std@@V?$allocator@D@2@@1@@Z ; std::logic_error::logic_error
  0001a	8b 4d fc	 mov	 ecx, DWORD PTR _this$[ebp]
  0001d	c7 01 00 00 00
	00		 mov	 DWORD PTR [ecx], OFFSET FLAT:??_7length_error@std@@6B@

; 96   : 		}

  00023	8b 45 fc	 mov	 eax, DWORD PTR _this$[ebp]
  00026	83 c4 04	 add	 esp, 4
  00029	3b ec		 cmp	 ebp, esp
  0002b	e8 00 00 00 00	 call	 __RTC_CheckEsp
  00030	8b e5		 mov	 esp, ebp
  00032	5d		 pop	 ebp
  00033	c2 04 00	 ret	 4
??0length_error@std@@QAE@ABV?$basic_string@DU?$char_traits@D@std@@V?$allocator@D@2@@1@@Z ENDP ; std::length_error::length_error
_TEXT	ENDS
PUBLIC	??_7logic_error@std@@6B@			; std::logic_error::`vftable'
PUBLIC	??_Glogic_error@std@@UAEPAXI@Z			; std::logic_error::`scalar deleting destructor'
PUBLIC	??_R4logic_error@std@@6B@			; std::logic_error::`RTTI Complete Object Locator'
PUBLIC	??_R3logic_error@std@@8				; std::logic_error::`RTTI Class Hierarchy Descriptor'
PUBLIC	??_R2logic_error@std@@8				; std::logic_error::`RTTI Base Class Array'
EXTRN	__imp_??0exception@@QAE@XZ:NEAR
EXTRN	__imp_??1exception@@UAE@XZ:NEAR
EXTRN	??_Elogic_error@std@@UAEPAXI@Z:NEAR		; std::logic_error::`vector deleting destructor'
;	COMDAT xdata$x
xdata$x	SEGMENT
$T192639 DD	0ffffffffH
	DD	FLAT:$L192634
$T192637 DD	019930520H
	DD	01H
	DD	FLAT:$T192639
	DD	2 DUP(00H)
	DD	2 DUP(00H)
xdata$x	ENDS
;	COMDAT ??_7logic_error@std@@6B@
CONST	SEGMENT
??_7logic_error@std@@6B@ DD FLAT:??_R4logic_error@std@@6B@ ; std::logic_error::`vftable'
	DD	FLAT:??_Elogic_error@std@@UAEPAXI@Z
	DD	FLAT:?what@logic_error@std@@UBEPBDXZ
CONST	ENDS
;	COMDAT ??_R4logic_error@std@@6B@
rdata$r	SEGMENT
??_R4logic_error@std@@6B@ DD 00H			; std::logic_error::`RTTI Complete Object Locator'
	DD	00H
	DD	00H
	DD	FLAT:??_R0?AVlogic_error@std@@@8
	DD	FLAT:??_R3logic_error@std@@8
rdata$r	ENDS
;	COMDAT ??_R3logic_error@std@@8
rdata$r	SEGMENT
??_R3logic_error@std@@8 DD 00H				; std::logic_error::`RTTI Class Hierarchy Descriptor'
	DD	00H
	DD	02H
	DD	FLAT:??_R2logic_error@std@@8
rdata$r	ENDS
;	COMDAT ??_R2logic_error@std@@8
rdata$r	SEGMENT
??_R2logic_error@std@@8 DD FLAT:??_R1A@?0A@A@logic_error@std@@8 ; std::logic_error::`RTTI Base Class Array'
	DD	FLAT:??_R1A@?0A@A@exception@@8
; Function compile flags: /Odt /RTCsu
rdata$r	ENDS
;	COMDAT ??0logic_error@std@@QAE@ABV?$basic_string@DU?$char_traits@D@std@@V?$allocator@D@2@@1@@Z
_TEXT	SEGMENT
_this$ = -16						; size = 4
__$EHRec$ = -12						; size = 12
__Message$ = 8						; size = 4
??0logic_error@std@@QAE@ABV?$basic_string@DU?$char_traits@D@std@@V?$allocator@D@2@@1@@Z PROC NEAR ; std::logic_error::logic_error, COMDAT
; _this$ = ecx

; 19   : 		{	// construct from message string

  00000	55		 push	 ebp
  00001	8b ec		 mov	 ebp, esp
  00003	6a ff		 push	 -1
  00005	68 00 00 00 00	 push	 __ehhandler$??0logic_error@std@@QAE@ABV?$basic_string@DU?$char_traits@D@std@@V?$allocator@D@2@@1@@Z
  0000a	64 a1 00 00 00
	00		 mov	 eax, DWORD PTR fs:__except_list
  00010	50		 push	 eax
  00011	64 89 25 00 00
	00 00		 mov	 DWORD PTR fs:__except_list, esp
  00018	51		 push	 ecx
  00019	56		 push	 esi
  0001a	c7 45 f0 cc cc
	cc cc		 mov	 DWORD PTR [ebp-16], -858993460 ; ccccccccH
  00021	89 4d f0	 mov	 DWORD PTR _this$[ebp], ecx
  00024	8b f4		 mov	 esi, esp
  00026	8b 4d f0	 mov	 ecx, DWORD PTR _this$[ebp]
  00029	ff 15 00 00 00
	00		 call	 DWORD PTR __imp_??0exception@@QAE@XZ
  0002f	3b f4		 cmp	 esi, esp
  00031	e8 00 00 00 00	 call	 __RTC_CheckEsp
  00036	c7 45 fc 00 00
	00 00		 mov	 DWORD PTR __$EHRec$[ebp+8], 0
  0003d	8b 45 f0	 mov	 eax, DWORD PTR _this$[ebp]
  00040	c7 00 00 00 00
	00		 mov	 DWORD PTR [eax], OFFSET FLAT:??_7logic_error@std@@6B@
  00046	8b f4		 mov	 esi, esp
  00048	8b 4d 08	 mov	 ecx, DWORD PTR __Message$[ebp]
  0004b	51		 push	 ecx
  0004c	8b 4d f0	 mov	 ecx, DWORD PTR _this$[ebp]
  0004f	83 c1 0c	 add	 ecx, 12			; 0000000cH
  00052	ff 15 00 00 00
	00		 call	 DWORD PTR __imp_??0?$basic_string@DU?$char_traits@D@std@@V?$allocator@D@2@@std@@QAE@ABV01@@Z
  00058	3b f4		 cmp	 esi, esp
  0005a	e8 00 00 00 00	 call	 __RTC_CheckEsp

; 20   : 		}

  0005f	c7 45 fc ff ff
	ff ff		 mov	 DWORD PTR __$EHRec$[ebp+8], -1
  00066	8b 45 f0	 mov	 eax, DWORD PTR _this$[ebp]
  00069	8b 4d f4	 mov	 ecx, DWORD PTR __$EHRec$[ebp]
  0006c	64 89 0d 00 00
	00 00		 mov	 DWORD PTR fs:__except_list, ecx
  00073	5e		 pop	 esi
  00074	83 c4 10	 add	 esp, 16			; 00000010H
  00077	3b ec		 cmp	 ebp, esp
  00079	e8 00 00 00 00	 call	 __RTC_CheckEsp
  0007e	8b e5		 mov	 esp, ebp
  00080	5d		 pop	 ebp
  00081	c2 04 00	 ret	 4
_TEXT	ENDS
;	COMDAT text$x
text$x	SEGMENT
$L192634:
  00000	8b f4		 mov	 esi, esp
  00002	8b 4d f0	 mov	 ecx, DWORD PTR _this$[ebp]
  00005	ff 15 00 00 00
	00		 call	 DWORD PTR __imp_??1exception@@UAE@XZ
  0000b	3b f4		 cmp	 esi, esp
  0000d	e9 00 00 00 00	 jmp	 __RTC_CheckEsp
__ehhandler$??0logic_error@std@@QAE@ABV?$basic_string@DU?$char_traits@D@std@@V?$allocator@D@2@@1@@Z:
  00012	b8 00 00 00 00	 mov	 eax, OFFSET FLAT:$T192637
  00017	e9 00 00 00 00	 jmp	 ___CxxFrameHandler
text$x	ENDS
??0logic_error@std@@QAE@ABV?$basic_string@DU?$char_traits@D@std@@V?$allocator@D@2@@1@@Z ENDP ; std::logic_error::logic_error
PUBLIC	??1logic_error@std@@UAE@XZ			; std::logic_error::~logic_error
; Function compile flags: /Odt /RTCsu
;	COMDAT ??_Glogic_error@std@@UAEPAXI@Z
_TEXT	SEGMENT
_this$ = -4						; size = 4
___flags$ = 8						; size = 4
??_Glogic_error@std@@UAEPAXI@Z PROC NEAR		; std::logic_error::`scalar deleting destructor', COMDAT
; _this$ = ecx
  00000	55		 push	 ebp
  00001	8b ec		 mov	 ebp, esp
  00003	51		 push	 ecx
  00004	c7 45 fc cc cc
	cc cc		 mov	 DWORD PTR [ebp-4], -858993460 ; ccccccccH
  0000b	89 4d fc	 mov	 DWORD PTR _this$[ebp], ecx
  0000e	8b 4d fc	 mov	 ecx, DWORD PTR _this$[ebp]
  00011	e8 00 00 00 00	 call	 ??1logic_error@std@@UAE@XZ ; std::logic_error::~logic_error
  00016	8b 45 08	 mov	 eax, DWORD PTR ___flags$[ebp]
  00019	83 e0 01	 and	 eax, 1
  0001c	74 0c		 je	 SHORT $L91647
  0001e	8b 4d fc	 mov	 ecx, DWORD PTR _this$[ebp]
  00021	51		 push	 ecx
  00022	e8 00 00 00 00	 call	 ??3@YAXPAX@Z		; operator delete
  00027	83 c4 04	 add	 esp, 4
$L91647:
  0002a	8b 45 fc	 mov	 eax, DWORD PTR _this$[ebp]
  0002d	83 c4 04	 add	 esp, 4
  00030	3b ec		 cmp	 ebp, esp
  00032	e8 00 00 00 00	 call	 __RTC_CheckEsp
  00037	8b e5		 mov	 esp, ebp
  00039	5d		 pop	 ebp
  0003a	c2 04 00	 ret	 4
??_Glogic_error@std@@UAEPAXI@Z ENDP			; std::logic_error::`scalar deleting destructor'
_TEXT	ENDS
;	COMDAT xdata$x
xdata$x	SEGMENT
$T192649 DD	0ffffffffH
	DD	FLAT:$L192644
$T192647 DD	019930520H
	DD	01H
	DD	FLAT:$T192649
	DD	2 DUP(00H)
	DD	2 DUP(00H)
; Function compile flags: /Odt /RTCsu
xdata$x	ENDS
;	COMDAT ??1logic_error@std@@UAE@XZ
_TEXT	SEGMENT
_this$ = -16						; size = 4
__$EHRec$ = -12						; size = 12
??1logic_error@std@@UAE@XZ PROC NEAR			; std::logic_error::~logic_error, COMDAT
; _this$ = ecx

; 23   : 		{}	// destroy the object

  00000	55		 push	 ebp
  00001	8b ec		 mov	 ebp, esp
  00003	6a ff		 push	 -1
  00005	68 00 00 00 00	 push	 __ehhandler$??1logic_error@std@@UAE@XZ
  0000a	64 a1 00 00 00
	00		 mov	 eax, DWORD PTR fs:__except_list
  00010	50		 push	 eax
  00011	64 89 25 00 00
	00 00		 mov	 DWORD PTR fs:__except_list, esp
  00018	51		 push	 ecx
  00019	56		 push	 esi
  0001a	c7 45 f0 cc cc
	cc cc		 mov	 DWORD PTR [ebp-16], -858993460 ; ccccccccH
  00021	89 4d f0	 mov	 DWORD PTR _this$[ebp], ecx
  00024	8b 45 f0	 mov	 eax, DWORD PTR _this$[ebp]
  00027	c7 00 00 00 00
	00		 mov	 DWORD PTR [eax], OFFSET FLAT:??_7logic_error@std@@6B@
  0002d	c7 45 fc 00 00
	00 00		 mov	 DWORD PTR __$EHRec$[ebp+8], 0
  00034	8b 4d f0	 mov	 ecx, DWORD PTR _this$[ebp]
  00037	83 c1 0c	 add	 ecx, 12			; 0000000cH
  0003a	8b f4		 mov	 esi, esp
  0003c	ff 15 00 00 00
	00		 call	 DWORD PTR __imp_??1?$basic_string@DU?$char_traits@D@std@@V?$allocator@D@2@@std@@QAE@XZ
  00042	3b f4		 cmp	 esi, esp
  00044	e8 00 00 00 00	 call	 __RTC_CheckEsp
  00049	c7 45 fc ff ff
	ff ff		 mov	 DWORD PTR __$EHRec$[ebp+8], -1
  00050	8b f4		 mov	 esi, esp
  00052	8b 4d f0	 mov	 ecx, DWORD PTR _this$[ebp]
  00055	ff 15 00 00 00
	00		 call	 DWORD PTR __imp_??1exception@@UAE@XZ
  0005b	3b f4		 cmp	 esi, esp
  0005d	e8 00 00 00 00	 call	 __RTC_CheckEsp
  00062	8b 4d f4	 mov	 ecx, DWORD PTR __$EHRec$[ebp]
  00065	64 89 0d 00 00
	00 00		 mov	 DWORD PTR fs:__except_list, ecx
  0006c	5e		 pop	 esi
  0006d	83 c4 10	 add	 esp, 16			; 00000010H
  00070	3b ec		 cmp	 ebp, esp
  00072	e8 00 00 00 00	 call	 __RTC_CheckEsp
  00077	8b e5		 mov	 esp, ebp
  00079	5d		 pop	 ebp
  0007a	c3		 ret	 0
_TEXT	ENDS
;	COMDAT text$x
text$x	SEGMENT
$L192644:
  00000	8b f4		 mov	 esi, esp
  00002	8b 4d f0	 mov	 ecx, DWORD PTR _this$[ebp]
  00005	ff 15 00 00 00
	00		 call	 DWORD PTR __imp_??1exception@@UAE@XZ
  0000b	3b f4		 cmp	 esi, esp
  0000d	e9 00 00 00 00	 jmp	 __RTC_CheckEsp
__ehhandler$??1logic_error@std@@UAE@XZ:
  00012	b8 00 00 00 00	 mov	 eax, OFFSET FLAT:$T192647
  00017	e9 00 00 00 00	 jmp	 ___CxxFrameHandler
text$x	ENDS
??1logic_error@std@@UAE@XZ ENDP				; std::logic_error::~logic_error
; Function compile flags: /Odt /RTCsu
;	COMDAT ??1length_error@std@@UAE@XZ
_TEXT	SEGMENT
_this$ = -4						; size = 4
??1length_error@std@@UAE@XZ PROC NEAR			; std::length_error::~length_error, COMDAT
; _this$ = ecx

; 99   : 		{}	// destroy the object

  00000	55		 push	 ebp
  00001	8b ec		 mov	 ebp, esp
  00003	51		 push	 ecx
  00004	c7 45 fc cc cc
	cc cc		 mov	 DWORD PTR [ebp-4], -858993460 ; ccccccccH
  0000b	89 4d fc	 mov	 DWORD PTR _this$[ebp], ecx
  0000e	8b 45 fc	 mov	 eax, DWORD PTR _this$[ebp]
  00011	c7 00 00 00 00
	00		 mov	 DWORD PTR [eax], OFFSET FLAT:??_7length_error@std@@6B@
  00017	8b 4d fc	 mov	 ecx, DWORD PTR _this$[ebp]
  0001a	e8 00 00 00 00	 call	 ??1logic_error@std@@UAE@XZ ; std::logic_error::~logic_error
  0001f	83 c4 04	 add	 esp, 4
  00022	3b ec		 cmp	 ebp, esp
  00024	e8 00 00 00 00	 call	 __RTC_CheckEsp
  00029	8b e5		 mov	 esp, ebp
  0002b	5d		 pop	 ebp
  0002c	c3		 ret	 0
??1length_error@std@@UAE@XZ ENDP			; std::length_error::~length_error
; Function compile flags: /Odt /RTCsu
_TEXT	ENDS
;	COMDAT ??_Glength_error@std@@UAEPAXI@Z
_TEXT	SEGMENT
_this$ = -4						; size = 4
___flags$ = 8						; size = 4
??_Glength_error@std@@UAEPAXI@Z PROC NEAR		; std::length_error::`scalar deleting destructor', COMDAT
; _this$ = ecx
  00000	55		 push	 ebp
  00001	8b ec		 mov	 ebp, esp
  00003	51		 push	 ecx
  00004	c7 45 fc cc cc
	cc cc		 mov	 DWORD PTR [ebp-4], -858993460 ; ccccccccH
  0000b	89 4d fc	 mov	 DWORD PTR _this$[ebp], ecx
  0000e	8b 4d fc	 mov	 ecx, DWORD PTR _this$[ebp]
  00011	e8 00 00 00 00	 call	 ??1length_error@std@@UAE@XZ ; std::length_error::~length_error
  00016	8b 45 08	 mov	 eax, DWORD PTR ___flags$[ebp]
  00019	83 e0 01	 and	 eax, 1
  0001c	74 0c		 je	 SHORT $L91713
  0001e	8b 4d fc	 mov	 ecx, DWORD PTR _this$[ebp]
  00021	51		 push	 ecx
  00022	e8 00 00 00 00	 call	 ??3@YAXPAX@Z		; operator delete
  00027	83 c4 04	 add	 esp, 4
$L91713:
  0002a	8b 45 fc	 mov	 eax, DWORD PTR _this$[ebp]
  0002d	83 c4 04	 add	 esp, 4
  00030	3b ec		 cmp	 ebp, esp
  00032	e8 00 00 00 00	 call	 __RTC_CheckEsp
  00037	8b e5		 mov	 esp, ebp
  00039	5d		 pop	 ebp
  0003a	c2 04 00	 ret	 4
??_Glength_error@std@@UAEPAXI@Z ENDP			; std::length_error::`scalar deleting destructor'
_TEXT	ENDS
PUBLIC	??_R4out_of_range@std@@6B@			; std::out_of_range::`RTTI Complete Object Locator'
PUBLIC	??_R3out_of_range@std@@8			; std::out_of_range::`RTTI Class Hierarchy Descriptor'
PUBLIC	??_R2out_of_range@std@@8			; std::out_of_range::`RTTI Base Class Array'
PUBLIC	??_R1A@?0A@A@out_of_range@std@@8		; std::out_of_range::`RTTI Base Class Descriptor at (0,-1,0,0)'
PUBLIC	??_7out_of_range@std@@6B@			; std::out_of_range::`vftable'
PUBLIC	??_Gout_of_range@std@@UAEPAXI@Z			; std::out_of_range::`scalar deleting destructor'
EXTRN	??_Eout_of_range@std@@UAEPAXI@Z:NEAR		; std::out_of_range::`vector deleting destructor'
;	COMDAT ??_7out_of_range@std@@6B@
CONST	SEGMENT
??_7out_of_range@std@@6B@ DD FLAT:??_R4out_of_range@std@@6B@ ; std::out_of_range::`vftable'
	DD	FLAT:??_Eout_of_range@std@@UAEPAXI@Z
	DD	FLAT:?what@logic_error@std@@UBEPBDXZ
CONST	ENDS
;	COMDAT ??_R4out_of_range@std@@6B@
rdata$r	SEGMENT
??_R4out_of_range@std@@6B@ DD 00H			; std::out_of_range::`RTTI Complete Object Locator'
	DD	00H
	DD	00H
	DD	FLAT:??_R0?AVout_of_range@std@@@8
	DD	FLAT:??_R3out_of_range@std@@8
rdata$r	ENDS
;	COMDAT ??_R3out_of_range@std@@8
rdata$r	SEGMENT
??_R3out_of_range@std@@8 DD 00H				; std::out_of_range::`RTTI Class Hierarchy Descriptor'
	DD	00H
	DD	03H
	DD	FLAT:??_R2out_of_range@std@@8
rdata$r	ENDS
;	COMDAT ??_R2out_of_range@std@@8
rdata$r	SEGMENT
??_R2out_of_range@std@@8 DD FLAT:??_R1A@?0A@A@out_of_range@std@@8 ; std::out_of_range::`RTTI Base Class Array'
	DD	FLAT:??_R1A@?0A@A@logic_error@std@@8
	DD	FLAT:??_R1A@?0A@A@exception@@8
rdata$r	ENDS
;	COMDAT ??_R1A@?0A@A@out_of_range@std@@8
rdata$r	SEGMENT
??_R1A@?0A@A@out_of_range@std@@8 DD FLAT:??_R0?AVout_of_range@std@@@8 ; std::out_of_range::`RTTI Base Class Descriptor at (0,-1,0,0)'
	DD	02H
	DD	00H
	DD	0ffffffffH
	DD	00H
	DD	00H
; Function compile flags: /Odt /RTCsu
rdata$r	ENDS
;	COMDAT ??0out_of_range@std@@QAE@ABV?$basic_string@DU?$char_traits@D@std@@V?$allocator@D@2@@1@@Z
_TEXT	SEGMENT
_this$ = -4						; size = 4
__Message$ = 8						; size = 4
??0out_of_range@std@@QAE@ABV?$basic_string@DU?$char_traits@D@std@@V?$allocator@D@2@@1@@Z PROC NEAR ; std::out_of_range::out_of_range, COMDAT
; _this$ = ecx

; 118  : 		{	// construct from message string

  00000	55		 push	 ebp
  00001	8b ec		 mov	 ebp, esp
  00003	51		 push	 ecx
  00004	c7 45 fc cc cc
	cc cc		 mov	 DWORD PTR [ebp-4], -858993460 ; ccccccccH
  0000b	89 4d fc	 mov	 DWORD PTR _this$[ebp], ecx
  0000e	8b 45 08	 mov	 eax, DWORD PTR __Message$[ebp]
  00011	50		 push	 eax
  00012	8b 4d fc	 mov	 ecx, DWORD PTR _this$[ebp]
  00015	e8 00 00 00 00	 call	 ??0logic_error@std@@QAE@ABV?$basic_string@DU?$char_traits@D@std@@V?$allocator@D@2@@1@@Z ; std::logic_error::logic_error
  0001a	8b 4d fc	 mov	 ecx, DWORD PTR _this$[ebp]
  0001d	c7 01 00 00 00
	00		 mov	 DWORD PTR [ecx], OFFSET FLAT:??_7out_of_range@std@@6B@

; 119  : 		}

  00023	8b 45 fc	 mov	 eax, DWORD PTR _this$[ebp]
  00026	83 c4 04	 add	 esp, 4
  00029	3b ec		 cmp	 ebp, esp
  0002b	e8 00 00 00 00	 call	 __RTC_CheckEsp
  00030	8b e5		 mov	 esp, ebp
  00032	5d		 pop	 ebp
  00033	c2 04 00	 ret	 4
??0out_of_range@std@@QAE@ABV?$basic_string@DU?$char_traits@D@std@@V?$allocator@D@2@@1@@Z ENDP ; std::out_of_range::out_of_range
; Function compile flags: /Odt /RTCsu
_TEXT	ENDS
;	COMDAT ??1out_of_range@std@@UAE@XZ
_TEXT	SEGMENT
_this$ = -4						; size = 4
??1out_of_range@std@@UAE@XZ PROC NEAR			; std::out_of_range::~out_of_range, COMDAT
; _this$ = ecx

; 122  : 		{}	// destroy the object

  00000	55		 push	 ebp
  00001	8b ec		 mov	 ebp, esp
  00003	51		 push	 ecx
  00004	c7 45 fc cc cc
	cc cc		 mov	 DWORD PTR [ebp-4], -858993460 ; ccccccccH
  0000b	89 4d fc	 mov	 DWORD PTR _this$[ebp], ecx
  0000e	8b 45 fc	 mov	 eax, DWORD PTR _this$[ebp]
  00011	c7 00 00 00 00
	00		 mov	 DWORD PTR [eax], OFFSET FLAT:??_7out_of_range@std@@6B@
  00017	8b 4d fc	 mov	 ecx, DWORD PTR _this$[ebp]
  0001a	e8 00 00 00 00	 call	 ??1logic_error@std@@UAE@XZ ; std::logic_error::~logic_error
  0001f	83 c4 04	 add	 esp, 4
  00022	3b ec		 cmp	 ebp, esp
  00024	e8 00 00 00 00	 call	 __RTC_CheckEsp
  00029	8b e5		 mov	 esp, ebp
  0002b	5d		 pop	 ebp
  0002c	c3		 ret	 0
??1out_of_range@std@@UAE@XZ ENDP			; std::out_of_range::~out_of_range
; Function compile flags: /Odt /RTCsu
_TEXT	ENDS
;	COMDAT ??_Gout_of_range@std@@UAEPAXI@Z
_TEXT	SEGMENT
_this$ = -4						; size = 4
___flags$ = 8						; size = 4
??_Gout_of_range@std@@UAEPAXI@Z PROC NEAR		; std::out_of_range::`scalar deleting destructor', COMDAT
; _this$ = ecx
  00000	55		 push	 ebp
  00001	8b ec		 mov	 ebp, esp
  00003	51		 push	 ecx
  00004	c7 45 fc cc cc
	cc cc		 mov	 DWORD PTR [ebp-4], -858993460 ; ccccccccH
  0000b	89 4d fc	 mov	 DWORD PTR _this$[ebp], ecx
  0000e	8b 4d fc	 mov	 ecx, DWORD PTR _this$[ebp]
  00011	e8 00 00 00 00	 call	 ??1out_of_range@std@@UAE@XZ ; std::out_of_range::~out_of_range
  00016	8b 45 08	 mov	 eax, DWORD PTR ___flags$[ebp]
  00019	83 e0 01	 and	 eax, 1
  0001c	74 0c		 je	 SHORT $L91735
  0001e	8b 4d fc	 mov	 ecx, DWORD PTR _this$[ebp]
  00021	51		 push	 ecx
  00022	e8 00 00 00 00	 call	 ??3@YAXPAX@Z		; operator delete
  00027	83 c4 04	 add	 esp, 4
$L91735:
  0002a	8b 45 fc	 mov	 eax, DWORD PTR _this$[ebp]
  0002d	83 c4 04	 add	 esp, 4
  00030	3b ec		 cmp	 ebp, esp
  00032	e8 00 00 00 00	 call	 __RTC_CheckEsp
  00037	8b e5		 mov	 esp, ebp
  00039	5d		 pop	 ebp
  0003a	c2 04 00	 ret	 4
??_Gout_of_range@std@@UAEPAXI@Z ENDP			; std::out_of_range::`scalar deleting destructor'
; Function compile flags: /Odt /RTCsu
_TEXT	ENDS
;	COMDAT ??0out_of_range@std@@QAE@ABV01@@Z
_TEXT	SEGMENT
_this$ = -4						; size = 4
___that$ = 8						; size = 4
??0out_of_range@std@@QAE@ABV01@@Z PROC NEAR		; std::out_of_range::out_of_range, COMDAT
; _this$ = ecx
  00000	55		 push	 ebp
  00001	8b ec		 mov	 ebp, esp
  00003	51		 push	 ecx
  00004	c7 45 fc cc cc
	cc cc		 mov	 DWORD PTR [ebp-4], -858993460 ; ccccccccH
  0000b	89 4d fc	 mov	 DWORD PTR _this$[ebp], ecx
  0000e	8b 45 08	 mov	 eax, DWORD PTR ___that$[ebp]
  00011	50		 push	 eax
  00012	8b 4d fc	 mov	 ecx, DWORD PTR _this$[ebp]
  00015	e8 00 00 00 00	 call	 ??0logic_error@std@@QAE@ABV01@@Z
  0001a	8b 4d fc	 mov	 ecx, DWORD PTR _this$[ebp]
  0001d	c7 01 00 00 00
	00		 mov	 DWORD PTR [ecx], OFFSET FLAT:??_7out_of_range@std@@6B@
  00023	8b 45 fc	 mov	 eax, DWORD PTR _this$[ebp]
  00026	83 c4 04	 add	 esp, 4
  00029	3b ec		 cmp	 ebp, esp
  0002b	e8 00 00 00 00	 call	 __RTC_CheckEsp
  00030	8b e5		 mov	 esp, ebp
  00032	5d		 pop	 ebp
  00033	c2 04 00	 ret	 4
??0out_of_range@std@@QAE@ABV01@@Z ENDP			; std::out_of_range::out_of_range
_TEXT	ENDS
EXTRN	__imp_??0exception@@QAE@ABV0@@Z:NEAR
;	COMDAT xdata$x
xdata$x	SEGMENT
$T192668 DD	0ffffffffH
	DD	FLAT:$L192663
$T192666 DD	019930520H
	DD	01H
	DD	FLAT:$T192668
	DD	2 DUP(00H)
	DD	2 DUP(00H)
; Function compile flags: /Odt /RTCsu
xdata$x	ENDS
;	COMDAT ??0logic_error@std@@QAE@ABV01@@Z
_TEXT	SEGMENT
_this$ = -16						; size = 4
__$EHRec$ = -12						; size = 12
___that$ = 8						; size = 4
??0logic_error@std@@QAE@ABV01@@Z PROC NEAR		; std::logic_error::logic_error, COMDAT
; _this$ = ecx
  00000	55		 push	 ebp
  00001	8b ec		 mov	 ebp, esp
  00003	6a ff		 push	 -1
  00005	68 00 00 00 00	 push	 __ehhandler$??0logic_error@std@@QAE@ABV01@@Z
  0000a	64 a1 00 00 00
	00		 mov	 eax, DWORD PTR fs:__except_list
  00010	50		 push	 eax
  00011	64 89 25 00 00
	00 00		 mov	 DWORD PTR fs:__except_list, esp
  00018	51		 push	 ecx
  00019	56		 push	 esi
  0001a	c7 45 f0 cc cc
	cc cc		 mov	 DWORD PTR [ebp-16], -858993460 ; ccccccccH
  00021	89 4d f0	 mov	 DWORD PTR _this$[ebp], ecx
  00024	8b f4		 mov	 esi, esp
  00026	8b 45 08	 mov	 eax, DWORD PTR ___that$[ebp]
  00029	50		 push	 eax
  0002a	8b 4d f0	 mov	 ecx, DWORD PTR _this$[ebp]
  0002d	ff 15 00 00 00
	00		 call	 DWORD PTR __imp_??0exception@@QAE@ABV0@@Z
  00033	3b f4		 cmp	 esi, esp
  00035	e8 00 00 00 00	 call	 __RTC_CheckEsp
  0003a	c7 45 fc 00 00
	00 00		 mov	 DWORD PTR __$EHRec$[ebp+8], 0
  00041	8b 4d f0	 mov	 ecx, DWORD PTR _this$[ebp]
  00044	c7 01 00 00 00
	00		 mov	 DWORD PTR [ecx], OFFSET FLAT:??_7logic_error@std@@6B@
  0004a	8b 55 08	 mov	 edx, DWORD PTR ___that$[ebp]
  0004d	83 c2 0c	 add	 edx, 12			; 0000000cH
  00050	8b f4		 mov	 esi, esp
  00052	52		 push	 edx
  00053	8b 4d f0	 mov	 ecx, DWORD PTR _this$[ebp]
  00056	83 c1 0c	 add	 ecx, 12			; 0000000cH
  00059	ff 15 00 00 00
	00		 call	 DWORD PTR __imp_??0?$basic_string@DU?$char_traits@D@std@@V?$allocator@D@2@@std@@QAE@ABV01@@Z
  0005f	3b f4		 cmp	 esi, esp
  00061	e8 00 00 00 00	 call	 __RTC_CheckEsp
  00066	c7 45 fc ff ff
	ff ff		 mov	 DWORD PTR __$EHRec$[ebp+8], -1
  0006d	8b 45 f0	 mov	 eax, DWORD PTR _this$[ebp]
  00070	8b 4d f4	 mov	 ecx, DWORD PTR __$EHRec$[ebp]
  00073	64 89 0d 00 00
	00 00		 mov	 DWORD PTR fs:__except_list, ecx
  0007a	5e		 pop	 esi
  0007b	83 c4 10	 add	 esp, 16			; 00000010H
  0007e	3b ec		 cmp	 ebp, esp
  00080	e8 00 00 00 00	 call	 __RTC_CheckEsp
  00085	8b e5		 mov	 esp, ebp
  00087	5d		 pop	 ebp
  00088	c2 04 00	 ret	 4
_TEXT	ENDS
;	COMDAT text$x
text$x	SEGMENT
$L192663:
  00000	8b f4		 mov	 esi, esp
  00002	8b 4d f0	 mov	 ecx, DWORD PTR _this$[ebp]
  00005	ff 15 00 00 00
	00		 call	 DWORD PTR __imp_??1exception@@UAE@XZ
  0000b	3b f4		 cmp	 esi, esp
  0000d	e9 00 00 00 00	 jmp	 __RTC_CheckEsp
__ehhandler$??0logic_error@std@@QAE@ABV01@@Z:
  00012	b8 00 00 00 00	 mov	 eax, OFFSET FLAT:$T192666
  00017	e9 00 00 00 00	 jmp	 ___CxxFrameHandler
text$x	ENDS
??0logic_error@std@@QAE@ABV01@@Z ENDP			; std::logic_error::logic_error
; Function compile flags: /Odt /RTCsu
; File d:\program files (x86)\microsoft visual studio .net 2003\vc7\include\utility
;	COMDAT ??$swap@D@std@@YAXAAD0@Z
_TEXT	SEGMENT
__Tmp$ = -1						; size = 1
__Left$ = 8						; size = 4
__Right$ = 12						; size = 4
??$swap@D@std@@YAXAAD0@Z PROC NEAR			; std::swap<char>, COMDAT

; 14   : 	{	// exchange values stored at _Left and _Right

  00000	55		 push	 ebp
  00001	8b ec		 mov	 ebp, esp
  00003	51		 push	 ecx
  00004	c7 45 fc cc cc
	cc cc		 mov	 DWORD PTR [ebp-4], -858993460 ; ccccccccH

; 15   : 	_Ty _Tmp = _Left;

  0000b	8b 45 08	 mov	 eax, DWORD PTR __Left$[ebp]
  0000e	8a 08		 mov	 cl, BYTE PTR [eax]
  00010	88 4d ff	 mov	 BYTE PTR __Tmp$[ebp], cl

; 16   : 	_Left = _Right, _Right = _Tmp;

  00013	8b 55 08	 mov	 edx, DWORD PTR __Left$[ebp]
  00016	8b 45 0c	 mov	 eax, DWORD PTR __Right$[ebp]
  00019	8a 08		 mov	 cl, BYTE PTR [eax]
  0001b	88 0a		 mov	 BYTE PTR [edx], cl
  0001d	8b 55 0c	 mov	 edx, DWORD PTR __Right$[ebp]
  00020	8a 45 ff	 mov	 al, BYTE PTR __Tmp$[ebp]
  00023	88 02		 mov	 BYTE PTR [edx], al

; 17   : 	}

  00025	8b e5		 mov	 esp, ebp
  00027	5d		 pop	 ebp
  00028	c3		 ret	 0
??$swap@D@std@@YAXAAD0@Z ENDP				; std::swap<char>
_TEXT	ENDS
END
