; Listing generated by Microsoft (R) Optimizing Compiler Version 13.10.3077 

	TITLE	.\src\LayoutMgr\SeperateMode\HostWnd.cpp
	.386P
include listing.inc
if @Version gt 510
.model FLAT
else
_TEXT	SEGMENT PARA USE32 PUBLIC 'CODE'
_TEXT	ENDS
_DATA	SEGMENT DWORD USE32 PUBLIC 'DATA'
_DATA	ENDS
CONST	SEGMENT DWORD USE32 PUBLIC 'CONST'
CONST	ENDS
_BSS	SEGMENT DWORD USE32 PUBLIC 'BSS'
_BSS	ENDS
$$SYMBOLS	SEGMENT BYTE USE32 'DEBSYM'
$$SYMBOLS	ENDS
_TLS	SEGMENT DWORD USE32 PUBLIC 'TLS'
_TLS	ENDS
;	COMDAT ??_C@_0EN@IBFBLEEG@D?3?2Program?5Files?5?$CIx86?$CJ?2Microsoft@
CONST	SEGMENT DWORD USE32 PUBLIC 'CONST'
CONST	ENDS
;	COMDAT ??_C@_0BI@GIMJKKKN@AtlIsValidString?$CI?5psz?5?$CJ?$AA@
CONST	SEGMENT DWORD USE32 PUBLIC 'CONST'
CONST	ENDS
rdata$r	SEGMENT DWORD USE32 PUBLIC 'CONST'
rdata$r	ENDS
xdata$x	SEGMENT DWORD USE32 PUBLIC 'CONST'
xdata$x	ENDS
text$AFX_COL1	SEGMENT PARA USE32 PUBLIC ''
text$AFX_COL1	ENDS
text$yc	SEGMENT PARA USE32 PUBLIC 'CODE'
text$yc	ENDS
CRT$XCA	SEGMENT DWORD USE32 PUBLIC 'DATA'
CRT$XCA	ENDS
CRT$XCU	SEGMENT DWORD USE32 PUBLIC 'DATA'
CRT$XCU	ENDS
CRT$XCL	SEGMENT DWORD USE32 PUBLIC 'DATA'
CRT$XCL	ENDS
CRT$XCC	SEGMENT DWORD USE32 PUBLIC 'DATA'
CRT$XCC	ENDS
CRT$XCZ	SEGMENT DWORD USE32 PUBLIC 'DATA'
CRT$XCZ	ENDS
text$yd	SEGMENT PARA USE32 PUBLIC 'CODE'
text$yd	ENDS
ATL$__m	SEGMENT DWORD USE32 PUBLIC ''
ATL$__m	ENDS
ATL$__z	SEGMENT DWORD USE32 PUBLIC ''
ATL$__z	ENDS
ATL$__a	SEGMENT DWORD USE32 PUBLIC ''
ATL$__a	ENDS
;	COMDAT ??1IData@@MAE@XZ
_TEXT	SEGMENT PARA USE32 PUBLIC 'CODE'
_TEXT	ENDS
;	COMDAT ?DataAppStart@IData@@UAEXXZ
_TEXT	SEGMENT PARA USE32 PUBLIC 'CODE'
_TEXT	ENDS
;	COMDAT ?DataAppExit@IData@@UAEXXZ
_TEXT	SEGMENT PARA USE32 PUBLIC 'CODE'
_TEXT	ENDS
;	COMDAT ??_GIData@@MAEPAXI@Z
_TEXT	SEGMENT PARA USE32 PUBLIC 'CODE'
_TEXT	ENDS
;	COMDAT ??_GCHostWnd@@UAEPAXI@Z
_TEXT	SEGMENT PARA USE32 PUBLIC 'CODE'
_TEXT	ENDS
;	COMDAT ??8ATL@@YA_NABV?$CStringT@DV?$StrTraitMFC_DLL@DV?$ChTraitsCRT@D@ATL@@@@@0@PBD@Z
_TEXT	SEGMENT PARA USE32 PUBLIC 'CODE'
_TEXT	ENDS
;	COMDAT ??9ATL@@YA_NABV?$CStringT@DV?$StrTraitMFC_DLL@DV?$ChTraitsCRT@D@ATL@@@@@0@PBD@Z
_TEXT	SEGMENT PARA USE32 PUBLIC 'CODE'
_TEXT	ENDS
;	COMDAT ??B?$CComPtrBase@UITypeInfo2@@@ATL@@QBEPAUITypeInfo2@@XZ
_TEXT	SEGMENT PARA USE32 PUBLIC 'CODE'
_TEXT	ENDS
;	COMDAT ?equal@?$istreambuf_iterator@DU?$char_traits@D@std@@@std@@QBE_NABV12@@Z
_TEXT	SEGMENT PARA USE32 PUBLIC 'CODE'
_TEXT	ENDS
;	COMDAT ?equal@?$istreambuf_iterator@_WU?$char_traits@_W@std@@@std@@QBE_NABV12@@Z
_TEXT	SEGMENT PARA USE32 PUBLIC 'CODE'
_TEXT	ENDS
;	COMDAT ?StringCompare@?$ChTraitsCRT@D@ATL@@SAHPBD0@Z
_TEXT	SEGMENT PARA USE32 PUBLIC 'CODE'
_TEXT	ENDS
;	COMDAT ?Unlock@?$CComCritSecLock@VCComCriticalSection@ATL@@@ATL@@QAEXXZ
_TEXT	SEGMENT PARA USE32 PUBLIC 'CODE'
_TEXT	ENDS
;	COMDAT ??$_Maklocstr@D@std@@YAPADPBDPADABU_Cvtvec@@@Z
_TEXT	SEGMENT PARA USE32 PUBLIC 'CODE'
_TEXT	ENDS
;	COMDAT ??_R3?$numpunct@_W@std@@8
rdata$r	SEGMENT DWORD USE32 PUBLIC 'CONST'
rdata$r	ENDS
;	COMDAT ??_R3?$numpunct@D@std@@8
rdata$r	SEGMENT DWORD USE32 PUBLIC 'CONST'
rdata$r	ENDS
;	COMDAT ??_R3IData@@8
rdata$r	SEGMENT DWORD USE32 PUBLIC 'CONST'
rdata$r	ENDS
;	COMDAT ??_R3CHostWnd@@8
rdata$r	SEGMENT DWORD USE32 PUBLIC 'CONST'
rdata$r	ENDS
;	COMDAT ??_R2?$numpunct@_W@std@@8
rdata$r	SEGMENT DWORD USE32 PUBLIC 'CONST'
rdata$r	ENDS
;	COMDAT ??_R2?$numpunct@D@std@@8
rdata$r	SEGMENT DWORD USE32 PUBLIC 'CONST'
rdata$r	ENDS
;	COMDAT ??_R2IData@@8
rdata$r	SEGMENT DWORD USE32 PUBLIC 'CONST'
rdata$r	ENDS
;	COMDAT ??_R2CHostWnd@@8
rdata$r	SEGMENT DWORD USE32 PUBLIC 'CONST'
rdata$r	ENDS
;	COMDAT ??_R1A@?0A@A@?$numpunct@_W@std@@8
rdata$r	SEGMENT DWORD USE32 PUBLIC 'CONST'
rdata$r	ENDS
;	COMDAT ??_R1A@?0A@A@facet@locale@std@@8
rdata$r	SEGMENT DWORD USE32 PUBLIC 'CONST'
rdata$r	ENDS
;	COMDAT ??_R0?AVfacet@locale@std@@@8
_DATA	SEGMENT DWORD USE32 PUBLIC 'DATA'
_DATA	ENDS
;	COMDAT ??_R1A@?0A@A@?$numpunct@D@std@@8
rdata$r	SEGMENT DWORD USE32 PUBLIC 'CONST'
rdata$r	ENDS
;	COMDAT ??_R1A@?0A@A@IData@@8
rdata$r	SEGMENT DWORD USE32 PUBLIC 'CONST'
rdata$r	ENDS
;	COMDAT ??_R1A@?0A@A@CObject@@8
rdata$r	SEGMENT DWORD USE32 PUBLIC 'CONST'
rdata$r	ENDS
;	COMDAT ??_R0?AVCObject@@@8
_DATA	SEGMENT DWORD USE32 PUBLIC 'DATA'
_DATA	ENDS
;	COMDAT ??_R1A@?0A@A@CCmdTarget@@8
rdata$r	SEGMENT DWORD USE32 PUBLIC 'CONST'
rdata$r	ENDS
;	COMDAT ??_R0?AVCCmdTarget@@@8
_DATA	SEGMENT DWORD USE32 PUBLIC 'DATA'
_DATA	ENDS
;	COMDAT ??_R1A@?0A@A@CWnd@@8
rdata$r	SEGMENT DWORD USE32 PUBLIC 'CONST'
rdata$r	ENDS
;	COMDAT ??_R0?AVCWnd@@@8
_DATA	SEGMENT DWORD USE32 PUBLIC 'DATA'
_DATA	ENDS
;	COMDAT ??_R1A@?0A@A@CDialog@@8
rdata$r	SEGMENT DWORD USE32 PUBLIC 'CONST'
rdata$r	ENDS
;	COMDAT ??_R0?AVCDialog@@@8
_DATA	SEGMENT DWORD USE32 PUBLIC 'DATA'
_DATA	ENDS
;	COMDAT ??_R1A@?0A@A@CHostWnd@@8
rdata$r	SEGMENT DWORD USE32 PUBLIC 'CONST'
rdata$r	ENDS
;	COMDAT ??_R0?AV?$numpunct@_W@std@@@8
_DATA	SEGMENT DWORD USE32 PUBLIC 'DATA'
_DATA	ENDS
;	COMDAT ??_R0?AV?$numpunct@D@std@@@8
_DATA	SEGMENT DWORD USE32 PUBLIC 'DATA'
_DATA	ENDS
;	COMDAT ??_R0?AVIData@@@8
_DATA	SEGMENT DWORD USE32 PUBLIC 'DATA'
_DATA	ENDS
;	COMDAT ??_R0?AVCHostWnd@@@8
_DATA	SEGMENT DWORD USE32 PUBLIC 'DATA'
_DATA	ENDS
;	COMDAT ??0?$allocator@_W@std@@QAE@XZ
_TEXT	SEGMENT PARA USE32 PUBLIC 'CODE'
_TEXT	ENDS
;	COMDAT ??0?$allocator@D@std@@QAE@ABV01@@Z
_TEXT	SEGMENT PARA USE32 PUBLIC 'CODE'
_TEXT	ENDS
;	COMDAT ??0?$allocator@D@std@@QAE@XZ
_TEXT	SEGMENT PARA USE32 PUBLIC 'CODE'
_TEXT	ENDS
;	COMDAT ?deallocate@?$allocator@D@std@@QAEXPADI@Z
_TEXT	SEGMENT PARA USE32 PUBLIC 'CODE'
_TEXT	ENDS
;	COMDAT ?max_size@?$allocator@D@std@@QBEIXZ
_TEXT	SEGMENT PARA USE32 PUBLIC 'CODE'
_TEXT	ENDS
;	COMDAT ?allocate@?$allocator@D@std@@QAEPADI@Z
_TEXT	SEGMENT PARA USE32 PUBLIC 'CODE'
_TEXT	ENDS
;	COMDAT ??$_Allocate@D@std@@YAPADIPAD@Z
_TEXT	SEGMENT PARA USE32 PUBLIC 'CODE'
_TEXT	ENDS
;	COMDAT ??_G?$numpunct@_W@std@@MAEPAXI@Z
_TEXT	SEGMENT PARA USE32 PUBLIC 'CODE'
_TEXT	ENDS
;	COMDAT ??_R4?$numpunct@_W@std@@6B@
rdata$r	SEGMENT DWORD USE32 PUBLIC 'CONST'
rdata$r	ENDS
;	COMDAT ??_G?$numpunct@D@std@@MAEPAXI@Z
_TEXT	SEGMENT PARA USE32 PUBLIC 'CODE'
_TEXT	ENDS
;	COMDAT ??_R4?$numpunct@D@std@@6B@
rdata$r	SEGMENT DWORD USE32 PUBLIC 'CONST'
rdata$r	ENDS
;	COMDAT ??_R4IData@@6B@
rdata$r	SEGMENT DWORD USE32 PUBLIC 'CONST'
rdata$r	ENDS
;	COMDAT ??_R4CHostWnd@@6B@
rdata$r	SEGMENT DWORD USE32 PUBLIC 'CONST'
rdata$r	ENDS
;	COMDAT ??_C@_0EN@CBMLGOH@D?3?2Program?5Files?5?$CIx86?$CJ?2Microsoft@
CONST	SEGMENT DWORD USE32 PUBLIC 'CONST'
CONST	ENDS
;	COMDAT ?_Psave@?$_Facetptr@V?$numpunct@_W@std@@@std@@2PBVfacet@locale@2@B
_DATA	SEGMENT DWORD USE32 PUBLIC 'DATA'
_DATA	ENDS
;	COMDAT ?_Psave@?$_Facetptr@V?$numpunct@D@std@@@std@@2PBVfacet@locale@2@B
_DATA	SEGMENT DWORD USE32 PUBLIC 'DATA'
_DATA	ENDS
;	COMDAT ?Unlock@CComCriticalSection@ATL@@QAEJXZ
_TEXT	SEGMENT PARA USE32 PUBLIC 'CODE'
_TEXT	ENDS
;	COMDAT ??_C@_0FG@LDNDNCJM@D?3?2Program?5Files?5?$CIx86?$CJ?2Microsoft@
CONST	SEGMENT DWORD USE32 PUBLIC 'CONST'
CONST	ENDS
;	COMDAT ??_C@_09HIEJFN@m_bLocked?$AA@
CONST	SEGMENT DWORD USE32 PUBLIC 'CONST'
CONST	ENDS
;	COMDAT ?_Psave@?$_Facetptr@V?$ctype@_W@std@@@std@@2PBVfacet@locale@2@B
_DATA	SEGMENT DWORD USE32 PUBLIC 'DATA'
_DATA	ENDS
;	COMDAT ?_Psave@?$_Facetptr@V?$ctype@D@std@@@std@@2PBVfacet@locale@2@B
_DATA	SEGMENT DWORD USE32 PUBLIC 'DATA'
_DATA	ENDS
;	COMDAT ??$_Maklocchr@_W@std@@YA_WDPA_WABU_Cvtvec@@@Z
_TEXT	SEGMENT PARA USE32 PUBLIC 'CODE'
_TEXT	ENDS
;	COMDAT ??$_DebugHeapDelete@X@std@@YAXPAX@Z
_TEXT	SEGMENT PARA USE32 PUBLIC 'CODE'
_TEXT	ENDS
;	COMDAT ??$_Maklocstr@_W@std@@YAPA_WPBDPA_WABU_Cvtvec@@@Z
_TEXT	SEGMENT PARA USE32 PUBLIC 'CODE'
_TEXT	ENDS
;	COMDAT ??$_Maklocchr@D@std@@YADDPADABU_Cvtvec@@@Z
_TEXT	SEGMENT PARA USE32 PUBLIC 'CODE'
_TEXT	ENDS
;	COMDAT ??_C@_04LOAJBDKD@true?$AA@
CONST	SEGMENT DWORD USE32 PUBLIC 'CONST'
CONST	ENDS
;	COMDAT ??_C@_05LAPONLG@false?$AA@
CONST	SEGMENT DWORD USE32 PUBLIC 'CONST'
CONST	ENDS
;	COMDAT _wmemcpy
_TEXT	SEGMENT PARA USE32 PUBLIC 'CODE'
_TEXT	ENDS
;	COMDAT ?max_size@?$allocator@_W@std@@QBEIXZ
_TEXT	SEGMENT PARA USE32 PUBLIC 'CODE'
_TEXT	ENDS
;	COMDAT ?allocate@?$allocator@_W@std@@QAEPA_WI@Z
_TEXT	SEGMENT PARA USE32 PUBLIC 'CODE'
_TEXT	ENDS
;	COMDAT ??$_Allocate@_W@std@@YAPA_WIPA_W@Z
_TEXT	SEGMENT PARA USE32 PUBLIC 'CODE'
_TEXT	ENDS
;	COMDAT ??_C@_01GFHCPBMG@C?$AA@
CONST	SEGMENT DWORD USE32 PUBLIC 'CONST'
CONST	ENDS
;	COMDAT ??_C@_0FH@KDPNIMBO@D?3?2Program?5Files?5?$CIx86?$CJ?2Microsoft@
CONST	SEGMENT DWORD USE32 PUBLIC 'CONST'
CONST	ENDS
;	COMDAT ?AtlIsValidString@ATL@@YAHPBDI@Z
_TEXT	SEGMENT PARA USE32 PUBLIC 'CODE'
_TEXT	ENDS
;	COMDAT ?_Peek@?$istreambuf_iterator@_WU?$char_traits@_W@std@@@std@@AAE_WXZ
_TEXT	SEGMENT PARA USE32 PUBLIC 'CODE'
_TEXT	ENDS
;	COMDAT ?_Peek@?$istreambuf_iterator@DU?$char_traits@D@std@@@std@@AAEDXZ
_TEXT	SEGMENT PARA USE32 PUBLIC 'CODE'
_TEXT	ENDS
;	COMDAT ??$use_facet@V?$ctype@_W@std@@@std@@YAABV?$ctype@_W@0@ABVlocale@0@@Z
_TEXT	SEGMENT PARA USE32 PUBLIC 'CODE'
_TEXT	ENDS
;	COMDAT ??_S?$ctype@_W@std@@6B@
CONST	SEGMENT DWORD USE32 PUBLIC 'CONST'
CONST	ENDS
;	COMDAT ??_R4?$ctype@_W@std@@6B@
rdata$r	SEGMENT DWORD USE32 PUBLIC 'CONST'
rdata$r	ENDS
;	COMDAT ??_R0?AV?$ctype@_W@std@@@8
_DATA	SEGMENT DWORD USE32 PUBLIC 'DATA'
_DATA	ENDS
;	COMDAT ??_R3?$ctype@_W@std@@8
rdata$r	SEGMENT DWORD USE32 PUBLIC 'CONST'
rdata$r	ENDS
;	COMDAT ??_R2?$ctype@_W@std@@8
rdata$r	SEGMENT DWORD USE32 PUBLIC 'CONST'
rdata$r	ENDS
;	COMDAT ??_R1A@?0A@A@?$ctype@_W@std@@8
rdata$r	SEGMENT DWORD USE32 PUBLIC 'CONST'
rdata$r	ENDS
;	COMDAT ??_R1A@?0A@A@ctype_base@std@@8
rdata$r	SEGMENT DWORD USE32 PUBLIC 'CONST'
rdata$r	ENDS
;	COMDAT ??_R0?AUctype_base@std@@@8
_DATA	SEGMENT DWORD USE32 PUBLIC 'DATA'
_DATA	ENDS
;	COMDAT ??_G?$ctype@_W@std@@MAEPAXI@Z
_TEXT	SEGMENT PARA USE32 PUBLIC 'CODE'
_TEXT	ENDS
;	COMDAT ??_C@_08EPJLHIJG@bad?5cast?$AA@
CONST	SEGMENT DWORD USE32 PUBLIC 'CONST'
CONST	ENDS
;	COMDAT __TI2?AVbad_cast@@
xdata$x	SEGMENT DWORD USE32 PUBLIC 'CONST'
xdata$x	ENDS
;	COMDAT __CTA2?AVbad_cast@@
xdata$x	SEGMENT DWORD USE32 PUBLIC 'CONST'
xdata$x	ENDS
;	COMDAT __CT??_R0?AVbad_cast@@@8??0bad_cast@@QAE@ABV0@@Z12
xdata$x	SEGMENT DWORD USE32 PUBLIC 'CONST'
xdata$x	ENDS
;	COMDAT ??_R0?AVbad_cast@@@8
_DATA	SEGMENT DWORD USE32 PUBLIC 'DATA'
_DATA	ENDS
;	COMDAT __CT??_R0?AVexception@@@8??0exception@@QAE@ABV0@@Z12
xdata$x	SEGMENT DWORD USE32 PUBLIC 'CONST'
xdata$x	ENDS
;	COMDAT ??_R0?AVexception@@@8
_DATA	SEGMENT DWORD USE32 PUBLIC 'DATA'
_DATA	ENDS
;	COMDAT ??$_DebugHeapDelete@Vfacet@locale@std@@@std@@YAXPAVfacet@locale@0@@Z
_TEXT	SEGMENT PARA USE32 PUBLIC 'CODE'
_TEXT	ENDS
;	COMDAT ??$use_facet@V?$ctype@D@std@@@std@@YAABV?$ctype@D@0@ABVlocale@0@@Z
_TEXT	SEGMENT PARA USE32 PUBLIC 'CODE'
_TEXT	ENDS
;	COMDAT ??_S?$ctype@D@std@@6B@
CONST	SEGMENT DWORD USE32 PUBLIC 'CONST'
CONST	ENDS
;	COMDAT ??_R4?$ctype@D@std@@6B@
rdata$r	SEGMENT DWORD USE32 PUBLIC 'CONST'
rdata$r	ENDS
;	COMDAT ??_R0?AV?$ctype@D@std@@@8
_DATA	SEGMENT DWORD USE32 PUBLIC 'DATA'
_DATA	ENDS
;	COMDAT ??_R3?$ctype@D@std@@8
rdata$r	SEGMENT DWORD USE32 PUBLIC 'CONST'
rdata$r	ENDS
;	COMDAT ??_R2?$ctype@D@std@@8
rdata$r	SEGMENT DWORD USE32 PUBLIC 'CONST'
rdata$r	ENDS
;	COMDAT ??_R1A@?0A@A@?$ctype@D@std@@8
rdata$r	SEGMENT DWORD USE32 PUBLIC 'CONST'
rdata$r	ENDS
;	COMDAT ??_G?$ctype@D@std@@MAEPAXI@Z
_TEXT	SEGMENT PARA USE32 PUBLIC 'CODE'
_TEXT	ENDS
;	COMDAT ??_S?$numpunct@_W@std@@6B@
CONST	SEGMENT DWORD USE32 PUBLIC 'CONST'
CONST	ENDS
;	COMDAT ??_S?$numpunct@D@std@@6B@
CONST	SEGMENT DWORD USE32 PUBLIC 'CONST'
CONST	ENDS
;	COMDAT _wmemmove
_TEXT	SEGMENT PARA USE32 PUBLIC 'CODE'
_TEXT	ENDS
;	COMDAT ?deallocate@?$allocator@_W@std@@QAEXPA_WI@Z
_TEXT	SEGMENT PARA USE32 PUBLIC 'CODE'
_TEXT	ENDS
;	COMDAT ??0?$allocator@_W@std@@QAE@ABV01@@Z
_TEXT	SEGMENT PARA USE32 PUBLIC 'CODE'
_TEXT	ENDS
;	COMDAT ?IsLocked@CStringData@ATL@@QBE_NXZ
_TEXT	SEGMENT PARA USE32 PUBLIC 'CODE'
_TEXT	ENDS
;	COMDAT ?AddRef@CStringData@ATL@@QAEXXZ
_TEXT	SEGMENT PARA USE32 PUBLIC 'CODE'
_TEXT	ENDS
;	COMDAT ??_C@_09EEBKLCFA@nRefs?5?$DO?50?$AA@
CONST	SEGMENT DWORD USE32 PUBLIC 'CONST'
CONST	ENDS
;	COMDAT ??_C@_0FJ@DMHPDOJC@D?3?2Program?5Files?5?$CIx86?$CJ?2Microsoft@
CONST	SEGMENT DWORD USE32 PUBLIC 'CONST'
CONST	ENDS
;	COMDAT ?AtlThrow@ATL@@YGXJ@Z
_TEXT	SEGMENT PARA USE32 PUBLIC 'CODE'
_TEXT	ENDS
;	COMDAT ??RCTraceFileAndLineInfo@ATL@@QBAXKIPBDZZ
_TEXT	SEGMENT PARA USE32 PUBLIC 'CODE'
_TEXT	ENDS
;	COMDAT ?TraceV@CTrace@ATL@@QBAXPBDHKI0PAD@Z
_TEXT	SEGMENT PARA USE32 PUBLIC 'CODE'
_TEXT	ENDS
;	COMDAT ??0CTraceFileAndLineInfo@ATL@@QAE@PBDH@Z
_TEXT	SEGMENT PARA USE32 PUBLIC 'CODE'
_TEXT	ENDS
;	COMDAT ??_C@_0FI@NHHJANPC@D?3?2Program?5Files?5?$CIx86?$CJ?2Microsoft@
CONST	SEGMENT DWORD USE32 PUBLIC 'CONST'
CONST	ENDS
;	COMDAT ??_C@_0BF@IAAKIJDJ@AtlThrow?3?5hr?5?$DN?50x?$CFx?6?$AA@
CONST	SEGMENT DWORD USE32 PUBLIC 'CONST'
CONST	ENDS
;	COMDAT ??BCTraceCategory@ATL@@QBEKXZ
_TEXT	SEGMENT PARA USE32 PUBLIC 'CODE'
_TEXT	ENDS
;	COMDAT ?data@CStringData@ATL@@QAEPAXXZ
_TEXT	SEGMENT PARA USE32 PUBLIC 'CODE'
_TEXT	ENDS
;	COMDAT ?Release@CStringData@ATL@@QAEXXZ
_TEXT	SEGMENT PARA USE32 PUBLIC 'CODE'
_TEXT	ENDS
;	COMDAT ??_C@_0L@OIIMFBNE@nRefs?5?$CB?$DN?50?$AA@
CONST	SEGMENT DWORD USE32 PUBLIC 'CONST'
CONST	ENDS
;	COMDAT ??_C@_0BA@GOIMFHNK@pStringMgr?5?$CB?$DN?50?$AA@
CONST	SEGMENT DWORD USE32 PUBLIC 'CONST'
CONST	ENDS
;	COMDAT ?GetDefaultManager@?$StrTraitMFC_DLL@DV?$ChTraitsCRT@D@ATL@@@@SAPAUIAtlStringMgr@ATL@@XZ
_TEXT	SEGMENT PARA USE32 PUBLIC 'CODE'
_TEXT	ENDS
;	COMDAT ?FindStringResourceInstance@?$StrTraitMFC_DLL@DV?$ChTraitsCRT@D@ATL@@@@SAPAUHINSTANCE__@@I@Z
_TEXT	SEGMENT PARA USE32 PUBLIC 'CODE'
_TEXT	ENDS
;	COMDAT ?AtlGetStringResourceImage@ATL@@YAPBUATLSTRINGRESOURCEIMAGE@1@PAUHINSTANCE__@@I@Z
_TEXT	SEGMENT PARA USE32 PUBLIC 'CODE'
_TEXT	ENDS
;	COMDAT ?_AtlGetStringResourceImage@ATL@@YAPBUATLSTRINGRESOURCEIMAGE@1@PAUHINSTANCE__@@PAUHRSRC__@@I@Z
_TEXT	SEGMENT PARA USE32 PUBLIC 'CODE'
_TEXT	ENDS
;	COMDAT ?GetBaseTypeLength@?$ChTraitsCRT@D@ATL@@SAHPB_WH@Z
_TEXT	SEGMENT PARA USE32 PUBLIC 'CODE'
_TEXT	ENDS
;	COMDAT ?_AtlGetConversionACP@ATL@@YGIXZ
_TEXT	SEGMENT PARA USE32 PUBLIC 'CODE'
_TEXT	ENDS
;	COMDAT ?g_pfnGetThreadACP@ATL@@3P6GIXZA
_DATA	SEGMENT DWORD USE32 PUBLIC 'DATA'
_DATA	ENDS
;	COMDAT ?_AtlGetThreadACPThunk@ATL@@YGIXZ
_TEXT	SEGMENT PARA USE32 PUBLIC 'CODE'
_TEXT	ENDS
;	COMDAT ?_AtlGetThreadACPReal@ATL@@YGIXZ
_TEXT	SEGMENT PARA USE32 PUBLIC 'CODE'
_TEXT	ENDS
;	COMDAT ?_AtlGetThreadACPFake@ATL@@YGIXZ
_TEXT	SEGMENT PARA USE32 PUBLIC 'CODE'
_TEXT	ENDS
;	COMDAT ?InterlockedExchangePointer@@YGPAXPAPAXPAX@Z
_TEXT	SEGMENT PARA USE32 PUBLIC 'CODE'
_TEXT	ENDS
;	COMDAT ?IsShared@CStringData@ATL@@QBE_NXZ
_TEXT	SEGMENT PARA USE32 PUBLIC 'CODE'
_TEXT	ENDS
;	COMDAT ??_C@_0CB@GFHAPKDK@pOldData?9?$DOnAllocLength?5?$DM?5nLength@
CONST	SEGMENT DWORD USE32 PUBLIC 'CONST'
CONST	ENDS
;	COMDAT ?ConvertToBaseType@?$ChTraitsCRT@D@ATL@@SAXPADHPB_WH@Z
_TEXT	SEGMENT PARA USE32 PUBLIC 'CODE'
_TEXT	ENDS
;	COMDAT ??_C@_0BA@GNIEOBOF@nNewLength?5?$DO?$DN?50?$AA@
CONST	SEGMENT DWORD USE32 PUBLIC 'CONST'
CONST	ENDS
;	COMDAT ??_C@_0N@ILOMLJGA@nLength?5?$DO?$DN?50?$AA@
CONST	SEGMENT DWORD USE32 PUBLIC 'CONST'
CONST	ENDS
;	COMDAT ??_C@_0CD@EEFFJEGJ@nLength?5?$DM?$DN?5GetData?$CI?$CJ?9?$DOnAllocLeng@
CONST	SEGMENT DWORD USE32 PUBLIC 'CONST'
CONST	ENDS
;	COMDAT ??_C@_0CJ@FJEKGMMD@Warning?3?5implicit?5LoadString?$CI?$CFu?$CJ@
CONST	SEGMENT DWORD USE32 PUBLIC 'CONST'
CONST	ENDS
;	COMDAT ?_messageEntries@CHostWnd@@0QBUAFX_MSGMAP_ENTRY@@B
CONST	SEGMENT DWORD USE32 PUBLIC 'CONST'
CONST	ENDS
;	COMDAT ?messageMap@CHostWnd@@1UAFX_MSGMAP@@B
CONST	SEGMENT DWORD USE32 PUBLIC 'CONST'
CONST	ENDS
;	COMDAT ??_7CHostWnd@@6B@
CONST	SEGMENT DWORD USE32 PUBLIC 'CONST'
CONST	ENDS
;	COMDAT ??_7IData@@6B@
CONST	SEGMENT DWORD USE32 PUBLIC 'CONST'
CONST	ENDS
sxdata	SEGMENT DWORD USE32 'SXDATA'
sxdata	ENDS
FLAT	GROUP _DATA, CONST, _BSS
	ASSUME	CS: FLAT, DS: FLAT, SS: FLAT
endif

INCLUDELIB MSVCRTD
INCLUDELIB OLDNAMES

PUBLIC	?g_pfnGetThreadACP@ATL@@3P6GIXZA		; ATL::g_pfnGetThreadACP
PUBLIC	?_AtlGetThreadACPThunk@ATL@@YGIXZ		; ATL::_AtlGetThreadACPThunk
PUBLIC	?_messageEntries@CHostWnd@@0QBUAFX_MSGMAP_ENTRY@@B ; CHostWnd::_messageEntries
PUBLIC	?messageMap@CHostWnd@@1UAFX_MSGMAP@@B		; CHostWnd::messageMap
PUBLIC	?OnLButtonDown@CHostWnd@@IAEXIVCPoint@@@Z	; CHostWnd::OnLButtonDown
PUBLIC	?OnLButtonUp@CHostWnd@@IAEXIVCPoint@@@Z		; CHostWnd::OnLButtonUp
PUBLIC	?OnMouseMove@CHostWnd@@IAEXIVCPoint@@@Z		; CHostWnd::OnMouseMove
PUBLIC	?OnPaint@CHostWnd@@IAEXXZ			; CHostWnd::OnPaint
PUBLIC	?OnSize@CHostWnd@@IAEXIHH@Z			; CHostWnd::OnSize
PUBLIC	?OnBnClickedClose@CHostWnd@@IAEXXZ		; CHostWnd::OnBnClickedClose
PUBLIC	?OnEraseBkgnd@CHostWnd@@IAEHPAVCDC@@@Z		; CHostWnd::OnEraseBkgnd
PUBLIC	?OnBnClickedOk@CHostWnd@@IAEXXZ			; CHostWnd::OnBnClickedOk
PUBLIC	?OnWindowPosChanged@CHostWnd@@QAEXPAUtagWINDOWPOS@@@Z ; CHostWnd::OnWindowPosChanged
EXTRN	?GetThisMessageMap@CDialog@@KGPBUAFX_MSGMAP@@XZ:NEAR ; CDialog::GetThisMessageMap
CONST	SEGMENT
$SG188043 DB	00H
CONST	ENDS
;	COMDAT ?_messageEntries@CHostWnd@@0QBUAFX_MSGMAP_ENTRY@@B
CONST	SEGMENT
?_messageEntries@CHostWnd@@0QBUAFX_MSGMAP_ENTRY@@B DD 0202H ; CHostWnd::_messageEntries
	DD	00H
	DD	00H
	DD	00H
	DD	032H
	DD	FLAT:?OnLButtonUp@CHostWnd@@IAEXIVCPoint@@@Z
	DD	0201H
	DD	00H
	DD	00H
	DD	00H
	DD	032H
	DD	FLAT:?OnLButtonDown@CHostWnd@@IAEXIVCPoint@@@Z
	DD	0111H
	DD	00H
	DD	09H
	DD	09H
	DD	035H
	DD	FLAT:?OnBnClickedClose@CHostWnd@@IAEXXZ
	DD	0200H
	DD	00H
	DD	00H
	DD	00H
	DD	032H
	DD	FLAT:?OnMouseMove@CHostWnd@@IAEXIVCPoint@@@Z
	DD	0fH
	DD	00H
	DD	00H
	DD	00H
	DD	010H
	DD	FLAT:?OnPaint@CHostWnd@@IAEXXZ
	DD	05H
	DD	00H
	DD	00H
	DD	00H
	DD	016H
	DD	FLAT:?OnSize@CHostWnd@@IAEXIHH@Z
	DD	0111H
	DD	00H
	DD	01H
	DD	01H
	DD	035H
	DD	FLAT:?OnBnClickedOk@CHostWnd@@IAEXXZ
	DD	014H
	DD	00H
	DD	00H
	DD	00H
	DD	01H
	DD	FLAT:?OnEraseBkgnd@CHostWnd@@IAEHPAVCDC@@@Z
	DD	047H
	DD	00H
	DD	00H
	DD	00H
	DD	030H
	DD	FLAT:?OnWindowPosChanged@CHostWnd@@QAEXPAUtagWINDOWPOS@@@Z
	DD	00H
	DD	00H
	DD	00H
	DD	00H
	DD	00H
	DD	00H
CONST	ENDS
;	COMDAT ?messageMap@CHostWnd@@1UAFX_MSGMAP@@B
CONST	SEGMENT
?messageMap@CHostWnd@@1UAFX_MSGMAP@@B DD FLAT:?GetThisMessageMap@CDialog@@KGPBUAFX_MSGMAP@@XZ ; CHostWnd::messageMap
	DD	FLAT:?_messageEntries@CHostWnd@@0QBUAFX_MSGMAP_ENTRY@@B
CONST	ENDS
CONST	SEGMENT
$SG188104 DB	00H
	ORG $+2
$SG188106 DB	'Close', 00H
$SG188109 DB	00H
$SG188112 DB	00H
$SG188115 DB	'sizeXMin', 00H
	ORG $+3
$SG188118 DB	'sizeYMin', 00H
$SG188184 DB	00H
$SG188196 DB	00H
$SG188216 DB	00H
CONST	ENDS
;	COMDAT ?g_pfnGetThreadACP@ATL@@3P6GIXZA
_DATA	SEGMENT
?g_pfnGetThreadACP@ATL@@3P6GIXZA DD FLAT:?_AtlGetThreadACPThunk@ATL@@YGIXZ ; ATL::g_pfnGetThreadACP
_DATA	ENDS
PUBLIC	??_R4CHostWnd@@6B@				; CHostWnd::`RTTI Complete Object Locator'
PUBLIC	??_R0?AVCHostWnd@@@8				; CHostWnd `RTTI Type Descriptor'
PUBLIC	??_R3CHostWnd@@8				; CHostWnd::`RTTI Class Hierarchy Descriptor'
PUBLIC	??_R2CHostWnd@@8				; CHostWnd::`RTTI Base Class Array'
PUBLIC	??_R1A@?0A@A@CHostWnd@@8			; CHostWnd::`RTTI Base Class Descriptor at (0,-1,0,0)'
PUBLIC	??_R1A@?0A@A@CDialog@@8				; CDialog::`RTTI Base Class Descriptor at (0,-1,0,0)'
PUBLIC	??_R0?AVCDialog@@@8				; CDialog `RTTI Type Descriptor'
PUBLIC	??_R1A@?0A@A@CWnd@@8				; CWnd::`RTTI Base Class Descriptor at (0,-1,0,0)'
PUBLIC	??_R0?AVCWnd@@@8				; CWnd `RTTI Type Descriptor'
PUBLIC	??_R1A@?0A@A@CCmdTarget@@8			; CCmdTarget::`RTTI Base Class Descriptor at (0,-1,0,0)'
PUBLIC	??_R0?AVCCmdTarget@@@8				; CCmdTarget `RTTI Type Descriptor'
PUBLIC	??_R1A@?0A@A@CObject@@8				; CObject::`RTTI Base Class Descriptor at (0,-1,0,0)'
PUBLIC	??_R0?AVCObject@@@8				; CObject `RTTI Type Descriptor'
PUBLIC	?_needChangeCursor@CHostWnd@@MAE_NABVCPoint@@@Z	; CHostWnd::_needChangeCursor
PUBLIC	??0CHostWnd@@QAE@PAVCWnd@@@Z			; CHostWnd::CHostWnd
PUBLIC	?GetMessageMap@CHostWnd@@MBEPBUAFX_MSGMAP@@XZ	; CHostWnd::GetMessageMap
PUBLIC	?OnInitDialog@CHostWnd@@MAEHXZ			; CHostWnd::OnInitDialog
PUBLIC	?OnOK@CHostWnd@@MAEXXZ				; CHostWnd::OnOK
PUBLIC	?OnCancel@CHostWnd@@MAEXXZ			; CHostWnd::OnCancel
PUBLIC	?PreTranslateMessage@CHostWnd@@UAEHPAUtagMSG@@@Z ; CHostWnd::PreTranslateMessage
PUBLIC	??_7CHostWnd@@6B@				; CHostWnd::`vftable'
PUBLIC	??_GCHostWnd@@UAEPAXI@Z				; CHostWnd::`scalar deleting destructor'
EXTRN	?GetInterfaceMap@CWnd@@MBEPBUAFX_INTERFACEMAP@@XZ:NEAR ; CWnd::GetInterfaceMap
EXTRN	?EnsureStdObj@CWnd@@UAEJXZ:NEAR			; CWnd::EnsureStdObj
EXTRN	?get_accParent@CWnd@@UAEJPAPAUIDispatch@@@Z:NEAR ; CWnd::get_accParent
EXTRN	?get_accChildCount@CWnd@@UAEJPAJ@Z:NEAR		; CWnd::get_accChildCount
EXTRN	?IsInvokeAllowed@CCmdTarget@@UAEHJ@Z:NEAR	; CCmdTarget::IsInvokeAllowed
EXTRN	?get_accChild@CWnd@@UAEJUtagVARIANT@@PAPAUIDispatch@@@Z:NEAR ; CWnd::get_accChild
EXTRN	?get_accName@CWnd@@UAEJUtagVARIANT@@PAPA_W@Z:NEAR ; CWnd::get_accName
EXTRN	?get_accValue@CWnd@@UAEJUtagVARIANT@@PAPA_W@Z:NEAR ; CWnd::get_accValue
EXTRN	?GetDispatchIID@CCmdTarget@@UAEHPAU_GUID@@@Z:NEAR ; CCmdTarget::GetDispatchIID
EXTRN	?GetTypeInfoCount@CCmdTarget@@UAEIXZ:NEAR	; CCmdTarget::GetTypeInfoCount
EXTRN	?GetTypeLibCache@CCmdTarget@@UAEPAVCTypeLibCache@@XZ:NEAR ; CCmdTarget::GetTypeLibCache
EXTRN	?get_accDescription@CWnd@@UAEJUtagVARIANT@@PAPA_W@Z:NEAR ; CWnd::get_accDescription
EXTRN	?GetTypeLib@CCmdTarget@@UAEJKPAPAUITypeLib@@@Z:NEAR ; CCmdTarget::GetTypeLib
EXTRN	?get_accRole@CWnd@@UAEJUtagVARIANT@@PAU2@@Z:NEAR ; CWnd::get_accRole
EXTRN	?get_accState@CWnd@@UAEJUtagVARIANT@@PAU2@@Z:NEAR ; CWnd::get_accState
EXTRN	?get_accHelp@CWnd@@UAEJUtagVARIANT@@PAPA_W@Z:NEAR ; CWnd::get_accHelp
EXTRN	?get_accHelpTopic@CWnd@@UAEJPAPA_WUtagVARIANT@@PAJ@Z:NEAR ; CWnd::get_accHelpTopic
EXTRN	?get_accKeyboardShortcut@CWnd@@UAEJUtagVARIANT@@PAPA_W@Z:NEAR ; CWnd::get_accKeyboardShortcut
EXTRN	?get_accFocus@CWnd@@UAEJPAUtagVARIANT@@@Z:NEAR	; CWnd::get_accFocus
EXTRN	?get_accSelection@CWnd@@UAEJPAUtagVARIANT@@@Z:NEAR ; CWnd::get_accSelection
EXTRN	?get_accDefaultAction@CWnd@@UAEJUtagVARIANT@@PAPA_W@Z:NEAR ; CWnd::get_accDefaultAction
EXTRN	?GetCommandMap@CCmdTarget@@MBEPBUAFX_OLECMDMAP@@XZ:NEAR ; CCmdTarget::GetCommandMap
EXTRN	?accSelect@CWnd@@UAEJJUtagVARIANT@@@Z:NEAR	; CWnd::accSelect
EXTRN	?accLocation@CWnd@@UAEJPAJ000UtagVARIANT@@@Z:NEAR ; CWnd::accLocation
EXTRN	?GetDispatchMap@CCmdTarget@@MBEPBUAFX_DISPMAP@@XZ:NEAR ; CCmdTarget::GetDispatchMap
EXTRN	?accNavigate@CWnd@@UAEJJUtagVARIANT@@PAU2@@Z:NEAR ; CWnd::accNavigate
EXTRN	?accHitTest@CWnd@@UAEJJJPAUtagVARIANT@@@Z:NEAR	; CWnd::accHitTest
EXTRN	?GetConnectionMap@CCmdTarget@@MBEPBUAFX_CONNECTIONMAP@@XZ:NEAR ; CCmdTarget::GetConnectionMap
EXTRN	?accDoDefaultAction@CWnd@@UAEJUtagVARIANT@@@Z:NEAR ; CWnd::accDoDefaultAction
EXTRN	?put_accName@CWnd@@UAEJUtagVARIANT@@PA_W@Z:NEAR	; CWnd::put_accName
EXTRN	?put_accValue@CWnd@@UAEJUtagVARIANT@@PA_W@Z:NEAR ; CWnd::put_accValue
EXTRN	?SetProxy@CWnd@@UAEJPAUIAccessibleProxy@@@Z:NEAR ; CWnd::SetProxy
EXTRN	?CreateAccessibleProxy@CWnd@@UAEJIJPAJ@Z:NEAR	; CWnd::CreateAccessibleProxy
EXTRN	?GetEventSinkMap@CCmdTarget@@MBEPBUAFX_EVENTSINKMAP@@XZ:NEAR ; CCmdTarget::GetEventSinkMap
EXTRN	?OnCreateAggregates@CCmdTarget@@UAEHXZ:NEAR	; CCmdTarget::OnCreateAggregates
EXTRN	?OnCommand@CWnd@@MAEHIJ@Z:NEAR			; CWnd::OnCommand
EXTRN	?GetInterfaceHook@CCmdTarget@@UAEPAUIUnknown@@PBX@Z:NEAR ; CCmdTarget::GetInterfaceHook
EXTRN	?OnNotify@CWnd@@MAEHIJPAJ@Z:NEAR		; CWnd::OnNotify
EXTRN	?GetExtraConnectionPoints@CCmdTarget@@MAEHPAVCPtrArray@@@Z:NEAR ; CCmdTarget::GetExtraConnectionPoints
EXTRN	?GetConnectionHook@CCmdTarget@@MAEPAUIConnectionPoint@@ABU_GUID@@@Z:NEAR ; CCmdTarget::GetConnectionHook
EXTRN	??0CPoint@@QAE@XZ:NEAR				; CPoint::CPoint
EXTRN	__RTC_InitBase:NEAR
EXTRN	__RTC_Shutdown:NEAR
EXTRN	__RTC_CheckEsp:NEAR
EXTRN	__except_list:DWORD
EXTRN	___CxxFrameHandler:NEAR
EXTRN	??0CRect@@QAE@XZ:NEAR				; CRect::CRect
EXTRN	?PreSubclassWindow@CWnd@@UAEXXZ:NEAR		; CWnd::PreSubclassWindow
EXTRN	__imp_??0?$basic_string@DU?$char_traits@D@std@@V?$allocator@D@2@@std@@QAE@XZ:NEAR
EXTRN	?Create@CWnd@@UAEHPBD0KABUtagRECT@@PAV1@IPAUCCreateContext@@@Z:NEAR ; CWnd::Create
EXTRN	?CreateEx@CWnd@@UAEHKPBD0KHHHHPAUHWND__@@PAUHMENU__@@PAX@Z:NEAR ; CWnd::CreateEx
EXTRN	?CreateEx@CWnd@@UAEHKPBD0KABUtagRECT@@PAV1@IPAX@Z:NEAR ; CWnd::CreateEx
EXTRN	__imp_??1?$basic_string@DU?$char_traits@D@std@@V?$allocator@D@2@@std@@QAE@XZ:NEAR
EXTRN	?Serialize@CObject@@UAEXAAVCArchive@@@Z:NEAR	; CObject::Serialize
EXTRN	?DestroyWindow@CWnd@@UAEHXZ:NEAR		; CWnd::DestroyWindow
EXTRN	?PreCreateWindow@CWnd@@UAEHAAUtagCREATESTRUCTA@@@Z:NEAR ; CWnd::PreCreateWindow
EXTRN	?CalcWindowRect@CWnd@@UAEXPAUtagRECT@@I@Z:NEAR	; CWnd::CalcWindowRect
EXTRN	?GetSuperWndProcAddr@CWnd@@MAEPAP6GJPAUHWND__@@IIJ@ZXZ:NEAR ; CWnd::GetSuperWndProcAddr
EXTRN	?DoDataExchange@CWnd@@MAEXPAVCDataExchange@@@Z:NEAR ; CWnd::DoDataExchange
EXTRN	?BeginModalState@CWnd@@UAEXXZ:NEAR		; CWnd::BeginModalState
EXTRN	?EndModalState@CWnd@@UAEXXZ:NEAR		; CWnd::EndModalState
EXTRN	?OnAmbientProperty@CWnd@@UAEHPAVCOleControlSite@@JPAUtagVARIANT@@@Z:NEAR ; CWnd::OnAmbientProperty
EXTRN	?WindowProc@CWnd@@MAEJIIJ@Z:NEAR		; CWnd::WindowProc
EXTRN	?OnWndMsg@CWnd@@MAEHIIJPAJ@Z:NEAR		; CWnd::OnWndMsg
EXTRN	?DefWindowProcA@CWnd@@MAEJIIJ@Z:NEAR		; CWnd::DefWindowProcA
EXTRN	?PostNcDestroy@CWnd@@MAEXXZ:NEAR		; CWnd::PostNcDestroy
EXTRN	?OnChildNotify@CWnd@@MAEHIIJPAJ@Z:NEAR		; CWnd::OnChildNotify
EXTRN	?IsFrameWnd@CWnd@@UBEHXZ:NEAR			; CWnd::IsFrameWnd
EXTRN	?OnFinalRelease@CWnd@@UAEXXZ:NEAR		; CWnd::OnFinalRelease
EXTRN	?CreateControlContainer@CWnd@@MAEHPAPAVCOleControlContainer@@@Z:NEAR ; CWnd::CreateControlContainer
EXTRN	?CreateControlSite@CWnd@@MAEHPAVCOleControlContainer@@PAPAVCOleControlSite@@IABU_GUID@@@Z:NEAR ; CWnd::CreateControlSite
EXTRN	??0CxSkinButton@@QAE@XZ:NEAR			; CxSkinButton::CxSkinButton
EXTRN	?GetRuntimeClass@CDialog@@UBEPAUCRuntimeClass@@XZ:NEAR ; CDialog::GetRuntimeClass
EXTRN	?Create@CDialog@@UAEHPBDPAVCWnd@@@Z:NEAR	; CDialog::Create
EXTRN	__imp_??0?$CStringT@DV?$StrTraitMFC_DLL@DV?$ChTraitsCRT@D@ATL@@@@@ATL@@QAE@XZ:NEAR
EXTRN	?Create@CDialog@@UAEHIPAVCWnd@@@Z:NEAR		; CDialog::Create
EXTRN	?CreateIndirect@CDialog@@UAEHPBUDLGTEMPLATE@@PAVCWnd@@PAX@Z:NEAR ; CDialog::CreateIndirect
EXTRN	?CreateIndirect@CDialog@@UAEHPAXPAVCWnd@@@Z:NEAR ; CDialog::CreateIndirect
EXTRN	?OnToolHitTest@CWnd@@UBEHVCPoint@@PAUtagTOOLINFOA@@@Z:NEAR ; CWnd::OnToolHitTest
EXTRN	??0CDialog@@QAE@IPAVCWnd@@@Z:NEAR		; CDialog::CDialog
EXTRN	??1CxSkinButton@@UAE@XZ:NEAR			; CxSkinButton::~CxSkinButton
EXTRN	?DoModal@CDialog@@UAEHXZ:NEAR			; CDialog::DoModal
EXTRN	?OnSetFont@CDialog@@UAEXPAVCFont@@@Z:NEAR	; CDialog::OnSetFont
EXTRN	??1CDialog@@UAE@XZ:NEAR				; CDialog::~CDialog
EXTRN	?AssertValid@CDialog@@UBEXXZ:NEAR		; CDialog::AssertValid
EXTRN	?Dump@CDialog@@UBEXAAVCDumpContext@@@Z:NEAR	; CDialog::Dump
EXTRN	__imp_??1?$CStringT@DV?$StrTraitMFC_DLL@DV?$ChTraitsCRT@D@ATL@@@@@ATL@@QAE@XZ:NEAR
EXTRN	?OnCmdMsg@CDialog@@UAEHIHPAXPAUAFX_CMDHANDLERINFO@@@Z:NEAR ; CDialog::OnCmdMsg
EXTRN	?CheckAutoCenter@CDialog@@UAEHXZ:NEAR		; CDialog::CheckAutoCenter
EXTRN	__imp_??4?$CStringT@DV?$StrTraitMFC_DLL@DV?$ChTraitsCRT@D@ATL@@@@@ATL@@QAEAAV01@PBD@Z:NEAR
EXTRN	?SetOccDialogInfo@CDialog@@MAEHPAU_AFX_OCC_DIALOG_INFO@@@Z:NEAR ; CDialog::SetOccDialogInfo
EXTRN	?PreInitDialog@CDialog@@MAEXXZ:NEAR		; CDialog::PreInitDialog
EXTRN	?GetScrollBarCtrl@CWnd@@UBEPAVCScrollBar@@H@Z:NEAR ; CWnd::GetScrollBarCtrl
EXTRN	?WinHelpA@CWnd@@UAEXKI@Z:NEAR			; CWnd::WinHelpA
EXTRN	?HtmlHelpA@CWnd@@UAEXKI@Z:NEAR			; CWnd::HtmlHelpA
EXTRN	??_7type_info@@6B@:QWORD			; type_info::`vftable'
EXTRN	??_ECHostWnd@@UAEPAXI@Z:NEAR			; CHostWnd::`vector deleting destructor'
EXTRN	?WinHelpInternal@CWnd@@UAEXKI@Z:NEAR		; CWnd::WinHelpInternal
EXTRN	?ContinueModal@CWnd@@UAEHXZ:NEAR		; CWnd::ContinueModal
EXTRN	?EndModalLoop@CWnd@@UAEXH@Z:NEAR		; CWnd::EndModalLoop
;	COMDAT rtc$IMZ
; File d:\boxgit\playbox\playbox\dev\prj\playbox\src\layoutmgr\seperatemode\hostwnd.cpp
rtc$IMZ	SEGMENT
__RTC_InitBase.rtc$IMZ DD FLAT:__RTC_InitBase
rtc$IMZ	ENDS
;	COMDAT rtc$TMZ
rtc$TMZ	SEGMENT
__RTC_Shutdown.rtc$TMZ DD FLAT:__RTC_Shutdown
rtc$TMZ	ENDS
xdata$x	SEGMENT
$T188872 DD	0ffffffffH
	DD	FLAT:$L188860
	DD	00H
	DD	FLAT:$L188861
	DD	01H
	DD	FLAT:$L188862
	DD	02H
	DD	FLAT:$L188863
	DD	03H
	DD	FLAT:$L188864
$T188868 DD	019930520H
	DD	05H
	DD	FLAT:$T188872
	DD	2 DUP(00H)
	DD	2 DUP(00H)
xdata$x	ENDS
;	COMDAT ??_7CHostWnd@@6B@
CONST	SEGMENT
??_7CHostWnd@@6B@ DD FLAT:??_R4CHostWnd@@6B@		; CHostWnd::`vftable'
	DD	FLAT:?GetRuntimeClass@CDialog@@UBEPAUCRuntimeClass@@XZ
	DD	FLAT:??_ECHostWnd@@UAEPAXI@Z
	DD	FLAT:?Serialize@CObject@@UAEXAAVCArchive@@@Z
	DD	FLAT:?AssertValid@CDialog@@UBEXXZ
	DD	FLAT:?Dump@CDialog@@UBEXAAVCDumpContext@@@Z
	DD	FLAT:?OnCmdMsg@CDialog@@UAEHIHPAXPAUAFX_CMDHANDLERINFO@@@Z
	DD	FLAT:?OnFinalRelease@CWnd@@UAEXXZ
	DD	FLAT:?IsInvokeAllowed@CCmdTarget@@UAEHJ@Z
	DD	FLAT:?GetDispatchIID@CCmdTarget@@UAEHPAU_GUID@@@Z
	DD	FLAT:?GetTypeInfoCount@CCmdTarget@@UAEIXZ
	DD	FLAT:?GetTypeLibCache@CCmdTarget@@UAEPAVCTypeLibCache@@XZ
	DD	FLAT:?GetTypeLib@CCmdTarget@@UAEJKPAPAUITypeLib@@@Z
	DD	FLAT:?GetMessageMap@CHostWnd@@MBEPBUAFX_MSGMAP@@XZ
	DD	FLAT:?GetCommandMap@CCmdTarget@@MBEPBUAFX_OLECMDMAP@@XZ
	DD	FLAT:?GetDispatchMap@CCmdTarget@@MBEPBUAFX_DISPMAP@@XZ
	DD	FLAT:?GetConnectionMap@CCmdTarget@@MBEPBUAFX_CONNECTIONMAP@@XZ
	DD	FLAT:?GetInterfaceMap@CWnd@@MBEPBUAFX_INTERFACEMAP@@XZ
	DD	FLAT:?GetEventSinkMap@CCmdTarget@@MBEPBUAFX_EVENTSINKMAP@@XZ
	DD	FLAT:?OnCreateAggregates@CCmdTarget@@UAEHXZ
	DD	FLAT:?GetInterfaceHook@CCmdTarget@@UAEPAUIUnknown@@PBX@Z
	DD	FLAT:?GetExtraConnectionPoints@CCmdTarget@@MAEHPAVCPtrArray@@@Z
	DD	FLAT:?GetConnectionHook@CCmdTarget@@MAEPAUIConnectionPoint@@ABU_GUID@@@Z
	DD	FLAT:?PreSubclassWindow@CWnd@@UAEXXZ
	DD	FLAT:?Create@CWnd@@UAEHPBD0KABUtagRECT@@PAV1@IPAUCCreateContext@@@Z
	DD	FLAT:?CreateEx@CWnd@@UAEHKPBD0KABUtagRECT@@PAV1@IPAX@Z
	DD	FLAT:?CreateEx@CWnd@@UAEHKPBD0KHHHHPAUHWND__@@PAUHMENU__@@PAX@Z
	DD	FLAT:?DestroyWindow@CWnd@@UAEHXZ
	DD	FLAT:?PreCreateWindow@CWnd@@UAEHAAUtagCREATESTRUCTA@@@Z
	DD	FLAT:?CalcWindowRect@CWnd@@UAEXPAUtagRECT@@I@Z
	DD	FLAT:?OnToolHitTest@CWnd@@UBEHVCPoint@@PAUtagTOOLINFOA@@@Z
	DD	FLAT:?GetScrollBarCtrl@CWnd@@UBEPAVCScrollBar@@H@Z
	DD	FLAT:?WinHelpA@CWnd@@UAEXKI@Z
	DD	FLAT:?HtmlHelpA@CWnd@@UAEXKI@Z
	DD	FLAT:?WinHelpInternal@CWnd@@UAEXKI@Z
	DD	FLAT:?ContinueModal@CWnd@@UAEHXZ
	DD	FLAT:?EndModalLoop@CWnd@@UAEXH@Z
	DD	FLAT:?EnsureStdObj@CWnd@@UAEJXZ
	DD	FLAT:?get_accParent@CWnd@@UAEJPAPAUIDispatch@@@Z
	DD	FLAT:?get_accChildCount@CWnd@@UAEJPAJ@Z
	DD	FLAT:?get_accChild@CWnd@@UAEJUtagVARIANT@@PAPAUIDispatch@@@Z
	DD	FLAT:?get_accName@CWnd@@UAEJUtagVARIANT@@PAPA_W@Z
	DD	FLAT:?get_accValue@CWnd@@UAEJUtagVARIANT@@PAPA_W@Z
	DD	FLAT:?get_accDescription@CWnd@@UAEJUtagVARIANT@@PAPA_W@Z
	DD	FLAT:?get_accRole@CWnd@@UAEJUtagVARIANT@@PAU2@@Z
	DD	FLAT:?get_accState@CWnd@@UAEJUtagVARIANT@@PAU2@@Z
	DD	FLAT:?get_accHelp@CWnd@@UAEJUtagVARIANT@@PAPA_W@Z
	DD	FLAT:?get_accHelpTopic@CWnd@@UAEJPAPA_WUtagVARIANT@@PAJ@Z
	DD	FLAT:?get_accKeyboardShortcut@CWnd@@UAEJUtagVARIANT@@PAPA_W@Z
	DD	FLAT:?get_accFocus@CWnd@@UAEJPAUtagVARIANT@@@Z
	DD	FLAT:?get_accSelection@CWnd@@UAEJPAUtagVARIANT@@@Z
	DD	FLAT:?get_accDefaultAction@CWnd@@UAEJUtagVARIANT@@PAPA_W@Z
	DD	FLAT:?accSelect@CWnd@@UAEJJUtagVARIANT@@@Z
	DD	FLAT:?accLocation@CWnd@@UAEJPAJ000UtagVARIANT@@@Z
	DD	FLAT:?accNavigate@CWnd@@UAEJJUtagVARIANT@@PAU2@@Z
	DD	FLAT:?accHitTest@CWnd@@UAEJJJPAUtagVARIANT@@@Z
	DD	FLAT:?accDoDefaultAction@CWnd@@UAEJUtagVARIANT@@@Z
	DD	FLAT:?put_accName@CWnd@@UAEJUtagVARIANT@@PA_W@Z
	DD	FLAT:?put_accValue@CWnd@@UAEJUtagVARIANT@@PA_W@Z
	DD	FLAT:?SetProxy@CWnd@@UAEJPAUIAccessibleProxy@@@Z
	DD	FLAT:?CreateAccessibleProxy@CWnd@@UAEJIJPAJ@Z
	DD	FLAT:?OnCommand@CWnd@@MAEHIJ@Z
	DD	FLAT:?OnNotify@CWnd@@MAEHIJPAJ@Z
	DD	FLAT:?GetSuperWndProcAddr@CWnd@@MAEPAP6GJPAUHWND__@@IIJ@ZXZ
	DD	FLAT:?DoDataExchange@CWnd@@MAEXPAVCDataExchange@@@Z
	DD	FLAT:?BeginModalState@CWnd@@UAEXXZ
	DD	FLAT:?EndModalState@CWnd@@UAEXXZ
	DD	FLAT:?PreTranslateMessage@CHostWnd@@UAEHPAUtagMSG@@@Z
	DD	FLAT:?OnAmbientProperty@CWnd@@UAEHPAVCOleControlSite@@JPAUtagVARIANT@@@Z
	DD	FLAT:?WindowProc@CWnd@@MAEJIIJ@Z
	DD	FLAT:?OnWndMsg@CWnd@@MAEHIIJPAJ@Z
	DD	FLAT:?DefWindowProcA@CWnd@@MAEJIIJ@Z
	DD	FLAT:?PostNcDestroy@CWnd@@MAEXXZ
	DD	FLAT:?OnChildNotify@CWnd@@MAEHIIJPAJ@Z
	DD	FLAT:?CheckAutoCenter@CDialog@@UAEHXZ
	DD	FLAT:?IsFrameWnd@CWnd@@UBEHXZ
	DD	FLAT:?CreateControlContainer@CWnd@@MAEHPAPAVCOleControlContainer@@@Z
	DD	FLAT:?CreateControlSite@CWnd@@MAEHPAVCOleControlContainer@@PAPAVCOleControlSite@@IABU_GUID@@@Z
	DD	FLAT:?SetOccDialogInfo@CDialog@@MAEHPAU_AFX_OCC_DIALOG_INFO@@@Z
	DD	FLAT:?Create@CDialog@@UAEHIPAVCWnd@@@Z
	DD	FLAT:?Create@CDialog@@UAEHPBDPAVCWnd@@@Z
	DD	FLAT:?CreateIndirect@CDialog@@UAEHPAXPAVCWnd@@@Z
	DD	FLAT:?CreateIndirect@CDialog@@UAEHPBUDLGTEMPLATE@@PAVCWnd@@PAX@Z
	DD	FLAT:?DoModal@CDialog@@UAEHXZ
	DD	FLAT:?OnInitDialog@CHostWnd@@MAEHXZ
	DD	FLAT:?OnSetFont@CDialog@@UAEXPAVCFont@@@Z
	DD	FLAT:?OnOK@CHostWnd@@MAEXXZ
	DD	FLAT:?OnCancel@CHostWnd@@MAEXXZ
	DD	FLAT:?PreInitDialog@CDialog@@MAEXXZ
	DD	FLAT:?_needChangeCursor@CHostWnd@@MAE_NABVCPoint@@@Z
CONST	ENDS
;	COMDAT ??_R4CHostWnd@@6B@
rdata$r	SEGMENT
??_R4CHostWnd@@6B@ DD 00H				; CHostWnd::`RTTI Complete Object Locator'
	DD	00H
	DD	00H
	DD	FLAT:??_R0?AVCHostWnd@@@8
	DD	FLAT:??_R3CHostWnd@@8
rdata$r	ENDS
;	COMDAT ??_R0?AVCHostWnd@@@8
_DATA	SEGMENT
??_R0?AVCHostWnd@@@8 DD FLAT:??_7type_info@@6B@		; CHostWnd `RTTI Type Descriptor'
	DD	00H
	DB	'.?AVCHostWnd@@', 00H
_DATA	ENDS
;	COMDAT ??_R3CHostWnd@@8
rdata$r	SEGMENT
??_R3CHostWnd@@8 DD 00H					; CHostWnd::`RTTI Class Hierarchy Descriptor'
	DD	00H
	DD	05H
	DD	FLAT:??_R2CHostWnd@@8
rdata$r	ENDS
;	COMDAT ??_R2CHostWnd@@8
rdata$r	SEGMENT
??_R2CHostWnd@@8 DD FLAT:??_R1A@?0A@A@CHostWnd@@8	; CHostWnd::`RTTI Base Class Array'
	DD	FLAT:??_R1A@?0A@A@CDialog@@8
	DD	FLAT:??_R1A@?0A@A@CWnd@@8
	DD	FLAT:??_R1A@?0A@A@CCmdTarget@@8
	DD	FLAT:??_R1A@?0A@A@CObject@@8
rdata$r	ENDS
;	COMDAT ??_R1A@?0A@A@CHostWnd@@8
rdata$r	SEGMENT
??_R1A@?0A@A@CHostWnd@@8 DD FLAT:??_R0?AVCHostWnd@@@8	; CHostWnd::`RTTI Base Class Descriptor at (0,-1,0,0)'
	DD	04H
	DD	00H
	DD	0ffffffffH
	DD	00H
	DD	00H
rdata$r	ENDS
;	COMDAT ??_R1A@?0A@A@CDialog@@8
rdata$r	SEGMENT
??_R1A@?0A@A@CDialog@@8 DD FLAT:??_R0?AVCDialog@@@8	; CDialog::`RTTI Base Class Descriptor at (0,-1,0,0)'
	DD	03H
	DD	00H
	DD	0ffffffffH
	DD	00H
	DD	00H
rdata$r	ENDS
;	COMDAT ??_R0?AVCDialog@@@8
_DATA	SEGMENT
??_R0?AVCDialog@@@8 DD FLAT:??_7type_info@@6B@		; CDialog `RTTI Type Descriptor'
	DD	00H
	DB	'.?AVCDialog@@', 00H
_DATA	ENDS
;	COMDAT ??_R1A@?0A@A@CWnd@@8
rdata$r	SEGMENT
??_R1A@?0A@A@CWnd@@8 DD FLAT:??_R0?AVCWnd@@@8		; CWnd::`RTTI Base Class Descriptor at (0,-1,0,0)'
	DD	02H
	DD	00H
	DD	0ffffffffH
	DD	00H
	DD	00H
rdata$r	ENDS
;	COMDAT ??_R0?AVCWnd@@@8
_DATA	SEGMENT
??_R0?AVCWnd@@@8 DD FLAT:??_7type_info@@6B@		; CWnd `RTTI Type Descriptor'
	DD	00H
	DB	'.?AVCWnd@@', 00H
_DATA	ENDS
;	COMDAT ??_R1A@?0A@A@CCmdTarget@@8
rdata$r	SEGMENT
??_R1A@?0A@A@CCmdTarget@@8 DD FLAT:??_R0?AVCCmdTarget@@@8 ; CCmdTarget::`RTTI Base Class Descriptor at (0,-1,0,0)'
	DD	01H
	DD	00H
	DD	0ffffffffH
	DD	00H
	DD	00H
rdata$r	ENDS
;	COMDAT ??_R0?AVCCmdTarget@@@8
_DATA	SEGMENT
??_R0?AVCCmdTarget@@@8 DD FLAT:??_7type_info@@6B@	; CCmdTarget `RTTI Type Descriptor'
	DD	00H
	DB	'.?AVCCmdTarget@@', 00H
_DATA	ENDS
;	COMDAT ??_R1A@?0A@A@CObject@@8
rdata$r	SEGMENT
??_R1A@?0A@A@CObject@@8 DD FLAT:??_R0?AVCObject@@@8	; CObject::`RTTI Base Class Descriptor at (0,-1,0,0)'
	DD	00H
	DD	00H
	DD	0ffffffffH
	DD	00H
	DD	00H
rdata$r	ENDS
;	COMDAT ??_R0?AVCObject@@@8
_DATA	SEGMENT
??_R0?AVCObject@@@8 DD FLAT:??_7type_info@@6B@		; CObject `RTTI Type Descriptor'
	DD	00H
	DB	'.?AVCObject@@', 00H
; Function compile flags: /Odt /RTCsu
_DATA	ENDS
_TEXT	SEGMENT
_this$ = -16						; size = 4
__$EHRec$ = -12						; size = 12
_pParent$ = 8						; size = 4
??0CHostWnd@@QAE@PAVCWnd@@@Z PROC NEAR			; CHostWnd::CHostWnd
; _this$ = ecx

; 11   : {

  00000	55		 push	 ebp
  00001	8b ec		 mov	 ebp, esp
  00003	6a ff		 push	 -1
  00005	68 00 00 00 00	 push	 __ehhandler$??0CHostWnd@@QAE@PAVCWnd@@@Z
  0000a	64 a1 00 00 00
	00		 mov	 eax, DWORD PTR fs:__except_list
  00010	50		 push	 eax
  00011	64 89 25 00 00
	00 00		 mov	 DWORD PTR fs:__except_list, esp
  00018	51		 push	 ecx
  00019	56		 push	 esi
  0001a	c7 45 f0 cc cc
	cc cc		 mov	 DWORD PTR [ebp-16], -858993460 ; ccccccccH
  00021	89 4d f0	 mov	 DWORD PTR _this$[ebp], ecx
  00024	8b 45 08	 mov	 eax, DWORD PTR _pParent$[ebp]
  00027	50		 push	 eax
  00028	6a 6d		 push	 109			; 0000006dH
  0002a	8b 4d f0	 mov	 ecx, DWORD PTR _this$[ebp]
  0002d	e8 00 00 00 00	 call	 ??0CDialog@@QAE@IPAVCWnd@@@Z ; CDialog::CDialog
  00032	c7 45 fc 00 00
	00 00		 mov	 DWORD PTR __$EHRec$[ebp+8], 0
  00039	8b 4d f0	 mov	 ecx, DWORD PTR _this$[ebp]
  0003c	c7 01 00 00 00
	00		 mov	 DWORD PTR [ecx], OFFSET FLAT:??_7CHostWnd@@6B@
  00042	8b 4d f0	 mov	 ecx, DWORD PTR _this$[ebp]
  00045	81 c1 a4 00 00
	00		 add	 ecx, 164		; 000000a4H
  0004b	e8 00 00 00 00	 call	 ??0CPoint@@QAE@XZ	; CPoint::CPoint
  00050	8b 4d f0	 mov	 ecx, DWORD PTR _this$[ebp]
  00053	81 c1 ac 00 00
	00		 add	 ecx, 172		; 000000acH
  00059	e8 00 00 00 00	 call	 ??0CRect@@QAE@XZ	; CRect::CRect
  0005e	8b 4d f0	 mov	 ecx, DWORD PTR _this$[ebp]
  00061	81 c1 bc 00 00
	00		 add	 ecx, 188		; 000000bcH
  00067	e8 00 00 00 00	 call	 ??0CRect@@QAE@XZ	; CRect::CRect
  0006c	8b 4d f0	 mov	 ecx, DWORD PTR _this$[ebp]
  0006f	81 c1 cc 00 00
	00		 add	 ecx, 204		; 000000ccH
  00075	8b f4		 mov	 esi, esp
  00077	ff 15 00 00 00
	00		 call	 DWORD PTR __imp_??0?$basic_string@DU?$char_traits@D@std@@V?$allocator@D@2@@std@@QAE@XZ
  0007d	3b f4		 cmp	 esi, esp
  0007f	e8 00 00 00 00	 call	 __RTC_CheckEsp
  00084	c6 45 fc 01	 mov	 BYTE PTR __$EHRec$[ebp+8], 1
  00088	8b 4d f0	 mov	 ecx, DWORD PTR _this$[ebp]
  0008b	81 c1 e8 00 00
	00		 add	 ecx, 232		; 000000e8H
  00091	8b f4		 mov	 esi, esp
  00093	ff 15 00 00 00
	00		 call	 DWORD PTR __imp_??0?$basic_string@DU?$char_traits@D@std@@V?$allocator@D@2@@std@@QAE@XZ
  00099	3b f4		 cmp	 esi, esp
  0009b	e8 00 00 00 00	 call	 __RTC_CheckEsp
  000a0	c6 45 fc 02	 mov	 BYTE PTR __$EHRec$[ebp+8], 2
  000a4	8b 4d f0	 mov	 ecx, DWORD PTR _this$[ebp]
  000a7	81 c1 04 01 00
	00		 add	 ecx, 260		; 00000104H
  000ad	8b f4		 mov	 esi, esp
  000af	ff 15 00 00 00
	00		 call	 DWORD PTR __imp_??0?$CStringT@DV?$StrTraitMFC_DLL@DV?$ChTraitsCRT@D@ATL@@@@@ATL@@QAE@XZ
  000b5	3b f4		 cmp	 esi, esp
  000b7	e8 00 00 00 00	 call	 __RTC_CheckEsp
  000bc	c6 45 fc 03	 mov	 BYTE PTR __$EHRec$[ebp+8], 3
  000c0	8b 4d f0	 mov	 ecx, DWORD PTR _this$[ebp]
  000c3	81 c1 10 01 00
	00		 add	 ecx, 272		; 00000110H
  000c9	e8 00 00 00 00	 call	 ??0CxSkinButton@@QAE@XZ	; CxSkinButton::CxSkinButton
  000ce	c6 45 fc 04	 mov	 BYTE PTR __$EHRec$[ebp+8], 4

; 12   : 	m_isMainWnd = false;

  000d2	8b 55 f0	 mov	 edx, DWORD PTR _this$[ebp]
  000d5	c7 82 80 00 00
	00 00 00 00 00	 mov	 DWORD PTR [edx+128], 0

; 13   : 	m_nL = m_nR = m_nT = m_nB = 0;

  000df	8b 45 f0	 mov	 eax, DWORD PTR _this$[ebp]
  000e2	c7 80 98 00 00
	00 00 00 00 00	 mov	 DWORD PTR [eax+152], 0
  000ec	8b 4d f0	 mov	 ecx, DWORD PTR _this$[ebp]
  000ef	c7 81 94 00 00
	00 00 00 00 00	 mov	 DWORD PTR [ecx+148], 0
  000f9	8b 55 f0	 mov	 edx, DWORD PTR _this$[ebp]
  000fc	c7 82 90 00 00
	00 00 00 00 00	 mov	 DWORD PTR [edx+144], 0
  00106	8b 45 f0	 mov	 eax, DWORD PTR _this$[ebp]
  00109	c7 80 8c 00 00
	00 00 00 00 00	 mov	 DWORD PTR [eax+140], 0

; 14   : 	m_pWnd  = NULL;

  00113	8b 4d f0	 mov	 ecx, DWORD PTR _this$[ebp]
  00116	c7 81 88 00 00
	00 00 00 00 00	 mov	 DWORD PTR [ecx+136], 0

; 15   : 	m_isResizing = FALSE;

  00120	8b 55 f0	 mov	 edx, DWORD PTR _this$[ebp]
  00123	c6 82 a1 00 00
	00 00		 mov	 BYTE PTR [edx+161], 0

; 16   : 	m_ptStartResizing.x = 0;

  0012a	8b 45 f0	 mov	 eax, DWORD PTR _this$[ebp]
  0012d	c7 80 a4 00 00
	00 00 00 00 00	 mov	 DWORD PTR [eax+164], 0

; 17   : 	m_ptStartResizing.y = 0;

  00137	8b 4d f0	 mov	 ecx, DWORD PTR _this$[ebp]
  0013a	c7 81 a8 00 00
	00 00 00 00 00	 mov	 DWORD PTR [ecx+168], 0

; 18   : 	m_rectStarResizing.left = 0;

  00144	8b 55 f0	 mov	 edx, DWORD PTR _this$[ebp]
  00147	c7 82 ac 00 00
	00 00 00 00 00	 mov	 DWORD PTR [edx+172], 0

; 19   : 	m_rectStarResizing.right = 0;

  00151	8b 45 f0	 mov	 eax, DWORD PTR _this$[ebp]
  00154	c7 80 b4 00 00
	00 00 00 00 00	 mov	 DWORD PTR [eax+180], 0

; 20   : 	m_rectStarResizing.top = 0;

  0015e	8b 4d f0	 mov	 ecx, DWORD PTR _this$[ebp]
  00161	c7 81 b0 00 00
	00 00 00 00 00	 mov	 DWORD PTR [ecx+176], 0

; 21   : 	m_rectStarResizing.bottom = 0;

  0016b	8b 55 f0	 mov	 edx, DWORD PTR _this$[ebp]
  0016e	c7 82 b8 00 00
	00 00 00 00 00	 mov	 DWORD PTR [edx+184], 0

; 22   : 	m_iDirection = 0;

  00178	8b 45 f0	 mov	 eax, DWORD PTR _this$[ebp]
  0017b	c7 80 9c 00 00
	00 00 00 00 00	 mov	 DWORD PTR [eax+156], 0

; 23   : 	m_bMovable = true;

  00185	8b 4d f0	 mov	 ecx, DWORD PTR _this$[ebp]
  00188	c7 41 7c 01 00
	00 00		 mov	 DWORD PTR [ecx+124], 1

; 24   : 	m_strContent = "";

  0018f	8b f4		 mov	 esi, esp
  00191	68 00 00 00 00	 push	 OFFSET FLAT:$SG188043
  00196	8b 4d f0	 mov	 ecx, DWORD PTR _this$[ebp]
  00199	81 c1 04 01 00
	00		 add	 ecx, 260		; 00000104H
  0019f	ff 15 00 00 00
	00		 call	 DWORD PTR __imp_??4?$CStringT@DV?$StrTraitMFC_DLL@DV?$ChTraitsCRT@D@ATL@@@@@ATL@@QAEAAV01@PBD@Z
  001a5	3b f4		 cmp	 esi, esp
  001a7	e8 00 00 00 00	 call	 __RTC_CheckEsp

; 25   : }

  001ac	c7 45 fc ff ff
	ff ff		 mov	 DWORD PTR __$EHRec$[ebp+8], -1
  001b3	8b 45 f0	 mov	 eax, DWORD PTR _this$[ebp]
  001b6	8b 4d f4	 mov	 ecx, DWORD PTR __$EHRec$[ebp]
  001b9	64 89 0d 00 00
	00 00		 mov	 DWORD PTR fs:__except_list, ecx
  001c0	5e		 pop	 esi
  001c1	83 c4 10	 add	 esp, 16			; 00000010H
  001c4	3b ec		 cmp	 ebp, esp
  001c6	e8 00 00 00 00	 call	 __RTC_CheckEsp
  001cb	8b e5		 mov	 esp, ebp
  001cd	5d		 pop	 ebp
  001ce	c2 04 00	 ret	 4
_TEXT	ENDS
text$x	SEGMENT
$L188860:
  00000	8b 4d f0	 mov	 ecx, DWORD PTR _this$[ebp]
  00003	e9 00 00 00 00	 jmp	 ??1CDialog@@UAE@XZ	; CDialog::~CDialog
$L188861:
  00008	8b 4d f0	 mov	 ecx, DWORD PTR _this$[ebp]
  0000b	81 c1 cc 00 00
	00		 add	 ecx, 204		; 000000ccH
  00011	8b f4		 mov	 esi, esp
  00013	ff 15 00 00 00
	00		 call	 DWORD PTR __imp_??1?$basic_string@DU?$char_traits@D@std@@V?$allocator@D@2@@std@@QAE@XZ
  00019	3b f4		 cmp	 esi, esp
  0001b	e9 00 00 00 00	 jmp	 __RTC_CheckEsp
$L188862:
  00020	8b 4d f0	 mov	 ecx, DWORD PTR _this$[ebp]
  00023	81 c1 e8 00 00
	00		 add	 ecx, 232		; 000000e8H
  00029	8b f4		 mov	 esi, esp
  0002b	ff 15 00 00 00
	00		 call	 DWORD PTR __imp_??1?$basic_string@DU?$char_traits@D@std@@V?$allocator@D@2@@std@@QAE@XZ
  00031	3b f4		 cmp	 esi, esp
  00033	e9 00 00 00 00	 jmp	 __RTC_CheckEsp
$L188863:
  00038	8b 4d f0	 mov	 ecx, DWORD PTR _this$[ebp]
  0003b	81 c1 04 01 00
	00		 add	 ecx, 260		; 00000104H
  00041	8b f4		 mov	 esi, esp
  00043	ff 15 00 00 00
	00		 call	 DWORD PTR __imp_??1?$CStringT@DV?$StrTraitMFC_DLL@DV?$ChTraitsCRT@D@ATL@@@@@ATL@@QAE@XZ
  00049	3b f4		 cmp	 esi, esp
  0004b	e9 00 00 00 00	 jmp	 __RTC_CheckEsp
$L188864:
  00050	8b 4d f0	 mov	 ecx, DWORD PTR _this$[ebp]
  00053	81 c1 10 01 00
	00		 add	 ecx, 272		; 00000110H
  00059	e9 00 00 00 00	 jmp	 ??1CxSkinButton@@UAE@XZ	; CxSkinButton::~CxSkinButton
__ehhandler$??0CHostWnd@@QAE@PAVCWnd@@@Z:
  0005e	b8 00 00 00 00	 mov	 eax, OFFSET FLAT:$T188868
  00063	e9 00 00 00 00	 jmp	 ___CxxFrameHandler
text$x	ENDS
??0CHostWnd@@QAE@PAVCWnd@@@Z ENDP			; CHostWnd::CHostWnd
PUBLIC	??1CHostWnd@@UAE@XZ				; CHostWnd::~CHostWnd
EXTRN	??3CObject@@SGXPAX@Z:NEAR			; CObject::operator delete
; Function compile flags: /Odt /RTCsu
;	COMDAT ??_GCHostWnd@@UAEPAXI@Z
_TEXT	SEGMENT
_this$ = -4						; size = 4
___flags$ = 8						; size = 4
??_GCHostWnd@@UAEPAXI@Z PROC NEAR			; CHostWnd::`scalar deleting destructor', COMDAT
; _this$ = ecx
  00000	55		 push	 ebp
  00001	8b ec		 mov	 ebp, esp
  00003	51		 push	 ecx
  00004	c7 45 fc cc cc
	cc cc		 mov	 DWORD PTR [ebp-4], -858993460 ; ccccccccH
  0000b	89 4d fc	 mov	 DWORD PTR _this$[ebp], ecx
  0000e	8b 4d fc	 mov	 ecx, DWORD PTR _this$[ebp]
  00011	e8 00 00 00 00	 call	 ??1CHostWnd@@UAE@XZ	; CHostWnd::~CHostWnd
  00016	8b 45 08	 mov	 eax, DWORD PTR ___flags$[ebp]
  00019	83 e0 01	 and	 eax, 1
  0001c	74 09		 je	 SHORT $L188047
  0001e	8b 4d fc	 mov	 ecx, DWORD PTR _this$[ebp]
  00021	51		 push	 ecx
  00022	e8 00 00 00 00	 call	 ??3CObject@@SGXPAX@Z	; CObject::operator delete
$L188047:
  00027	8b 45 fc	 mov	 eax, DWORD PTR _this$[ebp]
  0002a	83 c4 04	 add	 esp, 4
  0002d	3b ec		 cmp	 ebp, esp
  0002f	e8 00 00 00 00	 call	 __RTC_CheckEsp
  00034	8b e5		 mov	 esp, ebp
  00036	5d		 pop	 ebp
  00037	c2 04 00	 ret	 4
??_GCHostWnd@@UAEPAXI@Z ENDP				; CHostWnd::`scalar deleting destructor'
_TEXT	ENDS
EXTRN	__imp__SetParent@8:NEAR
xdata$x	SEGMENT
$T188884 DD	0ffffffffH
	DD	FLAT:$L188876
	DD	00H
	DD	FLAT:$L188877
	DD	01H
	DD	FLAT:$L188878
	DD	02H
	DD	FLAT:$L188879
$T188882 DD	019930520H
	DD	04H
	DD	FLAT:$T188884
	DD	2 DUP(00H)
	DD	2 DUP(00H)
; Function compile flags: /Odt /RTCsu
xdata$x	ENDS
_TEXT	SEGMENT
_this$ = -16						; size = 4
__$EHRec$ = -12						; size = 12
??1CHostWnd@@UAE@XZ PROC NEAR				; CHostWnd::~CHostWnd
; _this$ = ecx

; 28   : {

  001e0	55		 push	 ebp
  001e1	8b ec		 mov	 ebp, esp
  001e3	6a ff		 push	 -1
  001e5	68 00 00 00 00	 push	 __ehhandler$??1CHostWnd@@UAE@XZ
  001ea	64 a1 00 00 00
	00		 mov	 eax, DWORD PTR fs:__except_list
  001f0	50		 push	 eax
  001f1	64 89 25 00 00
	00 00		 mov	 DWORD PTR fs:__except_list, esp
  001f8	51		 push	 ecx
  001f9	56		 push	 esi
  001fa	c7 45 f0 cc cc
	cc cc		 mov	 DWORD PTR [ebp-16], -858993460 ; ccccccccH
  00201	89 4d f0	 mov	 DWORD PTR _this$[ebp], ecx
  00204	8b 45 f0	 mov	 eax, DWORD PTR _this$[ebp]
  00207	c7 00 00 00 00
	00		 mov	 DWORD PTR [eax], OFFSET FLAT:??_7CHostWnd@@6B@
  0020d	c7 45 fc 03 00
	00 00		 mov	 DWORD PTR __$EHRec$[ebp+8], 3

; 29   : 	if(m_pWnd != NULL)

  00214	8b 4d f0	 mov	 ecx, DWORD PTR _this$[ebp]
  00217	83 b9 88 00 00
	00 00		 cmp	 DWORD PTR [ecx+136], 0
  0021e	74 26		 je	 SHORT $L188050

; 30   : 		::SetParent(m_pWnd->m_hWnd,m_hParentWnd);

  00220	8b f4		 mov	 esi, esp
  00222	8b 55 f0	 mov	 edx, DWORD PTR _this$[ebp]
  00225	8b 82 84 00 00
	00		 mov	 eax, DWORD PTR [edx+132]
  0022b	50		 push	 eax
  0022c	8b 4d f0	 mov	 ecx, DWORD PTR _this$[ebp]
  0022f	8b 91 88 00 00
	00		 mov	 edx, DWORD PTR [ecx+136]
  00235	8b 42 20	 mov	 eax, DWORD PTR [edx+32]
  00238	50		 push	 eax
  00239	ff 15 00 00 00
	00		 call	 DWORD PTR __imp__SetParent@8
  0023f	3b f4		 cmp	 esi, esp
  00241	e8 00 00 00 00	 call	 __RTC_CheckEsp
$L188050:

; 31   : }

  00246	8b 4d f0	 mov	 ecx, DWORD PTR _this$[ebp]
  00249	81 c1 10 01 00
	00		 add	 ecx, 272		; 00000110H
  0024f	e8 00 00 00 00	 call	 ??1CxSkinButton@@UAE@XZ	; CxSkinButton::~CxSkinButton
  00254	c6 45 fc 02	 mov	 BYTE PTR __$EHRec$[ebp+8], 2
  00258	8b 4d f0	 mov	 ecx, DWORD PTR _this$[ebp]
  0025b	81 c1 04 01 00
	00		 add	 ecx, 260		; 00000104H
  00261	8b f4		 mov	 esi, esp
  00263	ff 15 00 00 00
	00		 call	 DWORD PTR __imp_??1?$CStringT@DV?$StrTraitMFC_DLL@DV?$ChTraitsCRT@D@ATL@@@@@ATL@@QAE@XZ
  00269	3b f4		 cmp	 esi, esp
  0026b	e8 00 00 00 00	 call	 __RTC_CheckEsp
  00270	c6 45 fc 01	 mov	 BYTE PTR __$EHRec$[ebp+8], 1
  00274	8b 4d f0	 mov	 ecx, DWORD PTR _this$[ebp]
  00277	81 c1 e8 00 00
	00		 add	 ecx, 232		; 000000e8H
  0027d	8b f4		 mov	 esi, esp
  0027f	ff 15 00 00 00
	00		 call	 DWORD PTR __imp_??1?$basic_string@DU?$char_traits@D@std@@V?$allocator@D@2@@std@@QAE@XZ
  00285	3b f4		 cmp	 esi, esp
  00287	e8 00 00 00 00	 call	 __RTC_CheckEsp
  0028c	c6 45 fc 00	 mov	 BYTE PTR __$EHRec$[ebp+8], 0
  00290	8b 4d f0	 mov	 ecx, DWORD PTR _this$[ebp]
  00293	81 c1 cc 00 00
	00		 add	 ecx, 204		; 000000ccH
  00299	8b f4		 mov	 esi, esp
  0029b	ff 15 00 00 00
	00		 call	 DWORD PTR __imp_??1?$basic_string@DU?$char_traits@D@std@@V?$allocator@D@2@@std@@QAE@XZ
  002a1	3b f4		 cmp	 esi, esp
  002a3	e8 00 00 00 00	 call	 __RTC_CheckEsp
  002a8	c7 45 fc ff ff
	ff ff		 mov	 DWORD PTR __$EHRec$[ebp+8], -1
  002af	8b 4d f0	 mov	 ecx, DWORD PTR _this$[ebp]
  002b2	e8 00 00 00 00	 call	 ??1CDialog@@UAE@XZ	; CDialog::~CDialog
  002b7	8b 4d f4	 mov	 ecx, DWORD PTR __$EHRec$[ebp]
  002ba	64 89 0d 00 00
	00 00		 mov	 DWORD PTR fs:__except_list, ecx
  002c1	5e		 pop	 esi
  002c2	83 c4 10	 add	 esp, 16			; 00000010H
  002c5	3b ec		 cmp	 ebp, esp
  002c7	e8 00 00 00 00	 call	 __RTC_CheckEsp
  002cc	8b e5		 mov	 esp, ebp
  002ce	5d		 pop	 ebp
  002cf	c3		 ret	 0
_TEXT	ENDS
text$x	SEGMENT
$L188876:
  00068	8b 4d f0	 mov	 ecx, DWORD PTR _this$[ebp]
  0006b	e9 00 00 00 00	 jmp	 ??1CDialog@@UAE@XZ	; CDialog::~CDialog
$L188877:
  00070	8b 4d f0	 mov	 ecx, DWORD PTR _this$[ebp]
  00073	81 c1 cc 00 00
	00		 add	 ecx, 204		; 000000ccH
  00079	8b f4		 mov	 esi, esp
  0007b	ff 15 00 00 00
	00		 call	 DWORD PTR __imp_??1?$basic_string@DU?$char_traits@D@std@@V?$allocator@D@2@@std@@QAE@XZ
  00081	3b f4		 cmp	 esi, esp
  00083	e9 00 00 00 00	 jmp	 __RTC_CheckEsp
$L188878:
  00088	8b 4d f0	 mov	 ecx, DWORD PTR _this$[ebp]
  0008b	81 c1 e8 00 00
	00		 add	 ecx, 232		; 000000e8H
  00091	8b f4		 mov	 esi, esp
  00093	ff 15 00 00 00
	00		 call	 DWORD PTR __imp_??1?$basic_string@DU?$char_traits@D@std@@V?$allocator@D@2@@std@@QAE@XZ
  00099	3b f4		 cmp	 esi, esp
  0009b	e9 00 00 00 00	 jmp	 __RTC_CheckEsp
$L188879:
  000a0	8b 4d f0	 mov	 ecx, DWORD PTR _this$[ebp]
  000a3	81 c1 04 01 00
	00		 add	 ecx, 260		; 00000104H
  000a9	8b f4		 mov	 esi, esp
  000ab	ff 15 00 00 00
	00		 call	 DWORD PTR __imp_??1?$CStringT@DV?$StrTraitMFC_DLL@DV?$ChTraitsCRT@D@ATL@@@@@ATL@@QAE@XZ
  000b1	3b f4		 cmp	 esi, esp
  000b3	e9 00 00 00 00	 jmp	 __RTC_CheckEsp
__ehhandler$??1CHostWnd@@UAE@XZ:
  000b8	b8 00 00 00 00	 mov	 eax, OFFSET FLAT:$T188882
  000bd	e9 00 00 00 00	 jmp	 ___CxxFrameHandler
text$x	ENDS
??1CHostWnd@@UAE@XZ ENDP				; CHostWnd::~CHostWnd
PUBLIC	?GetThisMessageMap@CHostWnd@@KGPBUAFX_MSGMAP@@XZ ; CHostWnd::GetThisMessageMap
; Function compile flags: /Odt /RTCsu
_TEXT	SEGMENT
?GetThisMessageMap@CHostWnd@@KGPBUAFX_MSGMAP@@XZ PROC NEAR ; CHostWnd::GetThisMessageMap

; 34   : BEGIN_MESSAGE_MAP(CHostWnd, CDialog)

  002d0	55		 push	 ebp
  002d1	8b ec		 mov	 ebp, esp
  002d3	b8 00 00 00 00	 mov	 eax, OFFSET FLAT:?messageMap@CHostWnd@@1UAFX_MSGMAP@@B ; CHostWnd::messageMap
  002d8	5d		 pop	 ebp
  002d9	c3		 ret	 0
?GetThisMessageMap@CHostWnd@@KGPBUAFX_MSGMAP@@XZ ENDP	; CHostWnd::GetThisMessageMap
; Function compile flags: /Odt /RTCsu
_this$ = -4						; size = 4
?GetMessageMap@CHostWnd@@MBEPBUAFX_MSGMAP@@XZ PROC NEAR	; CHostWnd::GetMessageMap
; _this$ = ecx

; 34   : BEGIN_MESSAGE_MAP(CHostWnd, CDialog)

  002e0	55		 push	 ebp
  002e1	8b ec		 mov	 ebp, esp
  002e3	51		 push	 ecx
  002e4	c7 45 fc cc cc
	cc cc		 mov	 DWORD PTR [ebp-4], -858993460 ; ccccccccH
  002eb	89 4d fc	 mov	 DWORD PTR _this$[ebp], ecx
  002ee	b8 00 00 00 00	 mov	 eax, OFFSET FLAT:?messageMap@CHostWnd@@1UAFX_MSGMAP@@B ; CHostWnd::messageMap
  002f3	8b e5		 mov	 esp, ebp
  002f5	5d		 pop	 ebp
  002f6	c3		 ret	 0
?GetMessageMap@CHostWnd@@MBEPBUAFX_MSGMAP@@XZ ENDP	; CHostWnd::GetMessageMap
_TEXT	ENDS
PUBLIC	??9ATL@@YA_NABV?$CStringT@DV?$StrTraitMFC_DLL@DV?$ChTraitsCRT@D@ATL@@@@@0@PBD@Z ; ATL::operator!=
EXTRN	?AfxGetUIManager@@YAPAVIUIManager@@XZ:NEAR	; AfxGetUIManager
EXTRN	??0CRect@@QAE@HHHH@Z:NEAR			; CRect::CRect
EXTRN	?GetInstance@CWindowsMover@@SAPAV1@XZ:NEAR	; CWindowsMover::GetInstance
EXTRN	?AddWndindow@CWindowsMover@@QAEXPAVCWnd@@_N@Z:NEAR ; CWindowsMover::AddWndindow
EXTRN	__imp_??B?$CSimpleStringT@D$00@ATL@@QBEPBDXZ:NEAR
EXTRN	__imp_??0?$CStringT@DV?$StrTraitMFC_DLL@DV?$ChTraitsCRT@D@ATL@@@@@ATL@@QAE@ABV01@@Z:NEAR
EXTRN	__imp_??0?$CStringT@DV?$StrTraitMFC_DLL@DV?$ChTraitsCRT@D@ATL@@@@@ATL@@QAE@PBD@Z:NEAR
EXTRN	__imp__atoi:NEAR
EXTRN	?OnInitDialog@CDialog@@UAEHXZ:NEAR		; CDialog::OnInitDialog
xdata$x	SEGMENT
$T188910 DD	0ffffffffH
	DD	FLAT:$L188898
	DD	0ffffffffH
	DD	FLAT:$L188899
	DD	01H
	DD	FLAT:$L188900
	DD	0ffffffffH
	DD	FLAT:$L188901
	DD	03H
	DD	FLAT:$L188902
	DD	0ffffffffH
	DD	FLAT:$L188903
	DD	0ffffffffH
	DD	FLAT:$L188905
$T188908 DD	019930520H
	DD	07H
	DD	FLAT:$T188910
	DD	2 DUP(00H)
	DD	2 DUP(00H)
; Function compile flags: /Odt /RTCsu
xdata$x	ENDS
_TEXT	SEGMENT
tv324 = -180						; size = 4
tv322 = -176						; size = 4
tv276 = -172						; size = 4
tv271 = -168						; size = 4
tv321 = -164						; size = 4
tv343 = -160						; size = 4
tv319 = -156						; size = 4
tv317 = -152						; size = 4
tv241 = -148						; size = 4
tv236 = -144						; size = 4
tv316 = -140						; size = 4
tv340 = -136						; size = 4
tv200 = -132						; size = 4
tv195 = -128						; size = 4
tv314 = -124						; size = 4
tv337 = -120						; size = 4
tv311 = -116						; size = 4
tv334 = -112						; size = 4
tv161 = -108						; size = 4
tv156 = -104						; size = 4
tv309 = -100						; size = 4
tv331 = -96						; size = 4
tv306 = -92						; size = 4
tv328 = -88						; size = 4
tv134 = -84						; size = 4
tv129 = -80						; size = 4
tv304 = -76						; size = 4
tv325 = -72						; size = 4
$T188897 = -68						; size = 4
$T188896 = -64						; size = 4
$T188895 = -60						; size = 4
$T188894 = -56						; size = 4
$T188893 = -52						; size = 4
$T188892 = -48						; size = 4
$T188891 = -44						; size = 4
$T188890 = -40						; size = 4
$T188889 = -36						; size = 4
$T188888 = -32						; size = 16
_this$ = -16						; size = 4
__$EHRec$ = -12						; size = 12
?OnInitDialog@CHostWnd@@MAEHXZ PROC NEAR		; CHostWnd::OnInitDialog
; _this$ = ecx

; 48   : {

  00300	55		 push	 ebp
  00301	8b ec		 mov	 ebp, esp
  00303	6a ff		 push	 -1
  00305	68 00 00 00 00	 push	 __ehhandler$?OnInitDialog@CHostWnd@@MAEHXZ
  0030a	64 a1 00 00 00
	00		 mov	 eax, DWORD PTR fs:__except_list
  00310	50		 push	 eax
  00311	64 89 25 00 00
	00 00		 mov	 DWORD PTR fs:__except_list, esp
  00318	81 ec a8 00 00
	00		 sub	 esp, 168		; 000000a8H
  0031e	56		 push	 esi
  0031f	57		 push	 edi
  00320	51		 push	 ecx
  00321	8d bd 4c ff ff
	ff		 lea	 edi, DWORD PTR [ebp-180]
  00327	b9 2a 00 00 00	 mov	 ecx, 42			; 0000002aH
  0032c	b8 cc cc cc cc	 mov	 eax, -858993460		; ccccccccH
  00331	f3 ab		 rep stosd
  00333	59		 pop	 ecx
  00334	89 4d f0	 mov	 DWORD PTR _this$[ebp], ecx

; 49   : 	CDialog::OnInitDialog();

  00337	8b 4d f0	 mov	 ecx, DWORD PTR _this$[ebp]
  0033a	e8 00 00 00 00	 call	 ?OnInitDialog@CDialog@@UAEHXZ ; CDialog::OnInitDialog

; 50   : 	
; 51   : 	CWindowsMover::GetInstance()->AddWndindow(this, m_isMainWnd);

  0033f	8b 45 f0	 mov	 eax, DWORD PTR _this$[ebp]
  00342	83 b8 80 00 00
	00 00		 cmp	 DWORD PTR [eax+128], 0
  00349	0f 95 c1	 setne	 cl
  0034c	51		 push	 ecx
  0034d	8b 55 f0	 mov	 edx, DWORD PTR _this$[ebp]
  00350	52		 push	 edx
  00351	e8 00 00 00 00	 call	 ?GetInstance@CWindowsMover@@SAPAV1@XZ ; CWindowsMover::GetInstance
  00356	8b c8		 mov	 ecx, eax
  00358	e8 00 00 00 00	 call	 ?AddWndindow@CWindowsMover@@QAEXPAVCWnd@@_N@Z ; CWindowsMover::AddWndindow

; 52   : 
; 53   : 	m_btnClose.Create(NULL,WS_VISIBLE,CRect(0,0,0,0),this,ID_BTN_CLOSE);

  0035d	8b f4		 mov	 esi, esp
  0035f	6a 09		 push	 9
  00361	8b 45 f0	 mov	 eax, DWORD PTR _this$[ebp]
  00364	50		 push	 eax
  00365	6a 00		 push	 0
  00367	6a 00		 push	 0
  00369	6a 00		 push	 0
  0036b	6a 00		 push	 0
  0036d	8d 4d e0	 lea	 ecx, DWORD PTR $T188888[ebp]
  00370	e8 00 00 00 00	 call	 ??0CRect@@QAE@HHHH@Z	; CRect::CRect
  00375	50		 push	 eax
  00376	68 00 00 00 10	 push	 268435456		; 10000000H
  0037b	6a 00		 push	 0
  0037d	8b 4d f0	 mov	 ecx, DWORD PTR _this$[ebp]
  00380	81 c1 10 01 00
	00		 add	 ecx, 272		; 00000110H
  00386	8b 55 f0	 mov	 edx, DWORD PTR _this$[ebp]
  00389	8b 82 10 01 00
	00		 mov	 eax, DWORD PTR [edx+272]
  0038f	ff 90 38 01 00
	00		 call	 DWORD PTR [eax+312]
  00395	3b f4		 cmp	 esi, esp
  00397	e8 00 00 00 00	 call	 __RTC_CheckEsp

; 54   : 
; 55   : 	if(m_strContent != "")

  0039c	68 00 00 00 00	 push	 OFFSET FLAT:$SG188104
  003a1	8b 4d f0	 mov	 ecx, DWORD PTR _this$[ebp]
  003a4	81 c1 04 01 00
	00		 add	 ecx, 260		; 00000104H
  003aa	51		 push	 ecx
  003ab	e8 00 00 00 00	 call	 ??9ATL@@YA_NABV?$CStringT@DV?$StrTraitMFC_DLL@DV?$ChTraitsCRT@D@ATL@@@@@0@PBD@Z ; ATL::operator!=
  003b0	83 c4 08	 add	 esp, 8
  003b3	0f b6 d0	 movzx	 edx, al
  003b6	85 d2		 test	 edx, edx
  003b8	0f 84 35 03 00
	00		 je	 $L188103

; 56   : 	{
; 57   : 		AfxGetUIManager()->UIGetLayoutMgr()->RegisterCtrl( this,"Close",&m_btnClose);

  003be	8b 45 f0	 mov	 eax, DWORD PTR _this$[ebp]
  003c1	05 10 01 00 00	 add	 eax, 272		; 00000110H
  003c6	50		 push	 eax
  003c7	51		 push	 ecx
  003c8	8b cc		 mov	 ecx, esp
  003ca	89 65 dc	 mov	 DWORD PTR $T188889[ebp], esp
  003cd	8b f4		 mov	 esi, esp
  003cf	68 00 00 00 00	 push	 OFFSET FLAT:$SG188106
  003d4	ff 15 00 00 00
	00		 call	 DWORD PTR __imp_??0?$CStringT@DV?$StrTraitMFC_DLL@DV?$ChTraitsCRT@D@ATL@@@@@ATL@@QAE@PBD@Z
  003da	3b f4		 cmp	 esi, esp
  003dc	e8 00 00 00 00	 call	 __RTC_CheckEsp
  003e1	89 45 b8	 mov	 DWORD PTR tv325[ebp], eax
  003e4	8b 4d b8	 mov	 ecx, DWORD PTR tv325[ebp]
  003e7	89 4d b4	 mov	 DWORD PTR tv304[ebp], ecx
  003ea	c7 45 fc 00 00
	00 00		 mov	 DWORD PTR __$EHRec$[ebp+8], 0
  003f1	e8 00 00 00 00	 call	 ?AfxGetUIManager@@YAPAVIUIManager@@XZ ; AfxGetUIManager
  003f6	89 45 b0	 mov	 DWORD PTR tv129[ebp], eax
  003f9	8b f4		 mov	 esi, esp
  003fb	8b 55 b0	 mov	 edx, DWORD PTR tv129[ebp]
  003fe	8b 02		 mov	 eax, DWORD PTR [edx]
  00400	8b 4d b0	 mov	 ecx, DWORD PTR tv129[ebp]
  00403	ff 50 24	 call	 DWORD PTR [eax+36]
  00406	3b f4		 cmp	 esi, esp
  00408	e8 00 00 00 00	 call	 __RTC_CheckEsp
  0040d	89 45 ac	 mov	 DWORD PTR tv134[ebp], eax
  00410	8b 4d f0	 mov	 ecx, DWORD PTR _this$[ebp]
  00413	51		 push	 ecx
  00414	8b 55 ac	 mov	 edx, DWORD PTR tv134[ebp]
  00417	8b 02		 mov	 eax, DWORD PTR [edx]
  00419	c7 45 fc ff ff
	ff ff		 mov	 DWORD PTR __$EHRec$[ebp+8], -1
  00420	8b 4d ac	 mov	 ecx, DWORD PTR tv134[ebp]
  00423	ff 50 34	 call	 DWORD PTR [eax+52]

; 58   : 		AfxGetUIManager()->UIGetLayoutMgr()->CreateControlPane(this,m_strContent, "");

  00426	51		 push	 ecx
  00427	8b cc		 mov	 ecx, esp
  00429	89 65 d8	 mov	 DWORD PTR $T188890[ebp], esp
  0042c	8b f4		 mov	 esi, esp
  0042e	68 00 00 00 00	 push	 OFFSET FLAT:$SG188109
  00433	ff 15 00 00 00
	00		 call	 DWORD PTR __imp_??0?$CStringT@DV?$StrTraitMFC_DLL@DV?$ChTraitsCRT@D@ATL@@@@@ATL@@QAE@PBD@Z
  00439	3b f4		 cmp	 esi, esp
  0043b	e8 00 00 00 00	 call	 __RTC_CheckEsp
  00440	89 45 a8	 mov	 DWORD PTR tv328[ebp], eax
  00443	8b 4d a8	 mov	 ecx, DWORD PTR tv328[ebp]
  00446	89 4d a4	 mov	 DWORD PTR tv306[ebp], ecx
  00449	c7 45 fc 01 00
	00 00		 mov	 DWORD PTR __$EHRec$[ebp+8], 1
  00450	8b 55 f0	 mov	 edx, DWORD PTR _this$[ebp]
  00453	81 c2 04 01 00
	00		 add	 edx, 260		; 00000104H
  00459	51		 push	 ecx
  0045a	8b cc		 mov	 ecx, esp
  0045c	89 65 d4	 mov	 DWORD PTR $T188891[ebp], esp
  0045f	8b f4		 mov	 esi, esp
  00461	52		 push	 edx
  00462	ff 15 00 00 00
	00		 call	 DWORD PTR __imp_??0?$CStringT@DV?$StrTraitMFC_DLL@DV?$ChTraitsCRT@D@ATL@@@@@ATL@@QAE@ABV01@@Z
  00468	3b f4		 cmp	 esi, esp
  0046a	e8 00 00 00 00	 call	 __RTC_CheckEsp
  0046f	89 45 a0	 mov	 DWORD PTR tv331[ebp], eax
  00472	8b 45 a0	 mov	 eax, DWORD PTR tv331[ebp]
  00475	89 45 9c	 mov	 DWORD PTR tv309[ebp], eax
  00478	c6 45 fc 02	 mov	 BYTE PTR __$EHRec$[ebp+8], 2
  0047c	e8 00 00 00 00	 call	 ?AfxGetUIManager@@YAPAVIUIManager@@XZ ; AfxGetUIManager
  00481	89 45 98	 mov	 DWORD PTR tv156[ebp], eax
  00484	8b f4		 mov	 esi, esp
  00486	8b 4d 98	 mov	 ecx, DWORD PTR tv156[ebp]
  00489	8b 11		 mov	 edx, DWORD PTR [ecx]
  0048b	8b 4d 98	 mov	 ecx, DWORD PTR tv156[ebp]
  0048e	ff 52 24	 call	 DWORD PTR [edx+36]
  00491	3b f4		 cmp	 esi, esp
  00493	e8 00 00 00 00	 call	 __RTC_CheckEsp
  00498	89 45 94	 mov	 DWORD PTR tv161[ebp], eax
  0049b	8b 45 f0	 mov	 eax, DWORD PTR _this$[ebp]
  0049e	50		 push	 eax
  0049f	8b 4d 94	 mov	 ecx, DWORD PTR tv161[ebp]
  004a2	8b 11		 mov	 edx, DWORD PTR [ecx]
  004a4	c7 45 fc ff ff
	ff ff		 mov	 DWORD PTR __$EHRec$[ebp+8], -1
  004ab	8b 4d 94	 mov	 ecx, DWORD PTR tv161[ebp]
  004ae	ff 52 38	 call	 DWORD PTR [edx+56]

; 59   : 		AfxGetUIManager()->UIGetLayoutMgr()->CreateBmpPane(this, m_strContent, "");

  004b1	51		 push	 ecx
  004b2	8b cc		 mov	 ecx, esp
  004b4	89 65 d0	 mov	 DWORD PTR $T188892[ebp], esp
  004b7	8b f4		 mov	 esi, esp
  004b9	68 00 00 00 00	 push	 OFFSET FLAT:$SG188112
  004be	ff 15 00 00 00
	00		 call	 DWORD PTR __imp_??0?$CStringT@DV?$StrTraitMFC_DLL@DV?$ChTraitsCRT@D@ATL@@@@@ATL@@QAE@PBD@Z
  004c4	3b f4		 cmp	 esi, esp
  004c6	e8 00 00 00 00	 call	 __RTC_CheckEsp
  004cb	89 45 90	 mov	 DWORD PTR tv334[ebp], eax
  004ce	8b 45 90	 mov	 eax, DWORD PTR tv334[ebp]
  004d1	89 45 8c	 mov	 DWORD PTR tv311[ebp], eax
  004d4	c7 45 fc 03 00
	00 00		 mov	 DWORD PTR __$EHRec$[ebp+8], 3
  004db	8b 4d f0	 mov	 ecx, DWORD PTR _this$[ebp]
  004de	81 c1 04 01 00
	00		 add	 ecx, 260		; 00000104H
  004e4	51		 push	 ecx
  004e5	8b d4		 mov	 edx, esp
  004e7	89 65 cc	 mov	 DWORD PTR $T188893[ebp], esp
  004ea	8b f4		 mov	 esi, esp
  004ec	51		 push	 ecx
  004ed	8b ca		 mov	 ecx, edx
  004ef	ff 15 00 00 00
	00		 call	 DWORD PTR __imp_??0?$CStringT@DV?$StrTraitMFC_DLL@DV?$ChTraitsCRT@D@ATL@@@@@ATL@@QAE@ABV01@@Z
  004f5	3b f4		 cmp	 esi, esp
  004f7	e8 00 00 00 00	 call	 __RTC_CheckEsp
  004fc	89 45 88	 mov	 DWORD PTR tv337[ebp], eax
  004ff	8b 45 88	 mov	 eax, DWORD PTR tv337[ebp]
  00502	89 45 84	 mov	 DWORD PTR tv314[ebp], eax
  00505	c6 45 fc 04	 mov	 BYTE PTR __$EHRec$[ebp+8], 4
  00509	e8 00 00 00 00	 call	 ?AfxGetUIManager@@YAPAVIUIManager@@XZ ; AfxGetUIManager
  0050e	89 45 80	 mov	 DWORD PTR tv195[ebp], eax
  00511	8b f4		 mov	 esi, esp
  00513	8b 4d 80	 mov	 ecx, DWORD PTR tv195[ebp]
  00516	8b 11		 mov	 edx, DWORD PTR [ecx]
  00518	8b 4d 80	 mov	 ecx, DWORD PTR tv195[ebp]
  0051b	ff 52 24	 call	 DWORD PTR [edx+36]
  0051e	3b f4		 cmp	 esi, esp
  00520	e8 00 00 00 00	 call	 __RTC_CheckEsp
  00525	89 85 7c ff ff
	ff		 mov	 DWORD PTR tv200[ebp], eax
  0052b	8b 45 f0	 mov	 eax, DWORD PTR _this$[ebp]
  0052e	50		 push	 eax
  0052f	8b 8d 7c ff ff
	ff		 mov	 ecx, DWORD PTR tv200[ebp]
  00535	8b 11		 mov	 edx, DWORD PTR [ecx]
  00537	c7 45 fc ff ff
	ff ff		 mov	 DWORD PTR __$EHRec$[ebp+8], -1
  0053e	8b 8d 7c ff ff
	ff		 mov	 ecx, DWORD PTR tv200[ebp]
  00544	ff 52 58	 call	 DWORD PTR [edx+88]

; 60   : 		m_nMinCx = atoi(AfxGetUIManager()->UIGetLayoutMgr()->GetWndParameter(m_hWnd, "sizeXMin"));

  00547	51		 push	 ecx
  00548	8b cc		 mov	 ecx, esp
  0054a	89 65 c8	 mov	 DWORD PTR $T188894[ebp], esp
  0054d	8b f4		 mov	 esi, esp
  0054f	68 00 00 00 00	 push	 OFFSET FLAT:$SG188115
  00554	ff 15 00 00 00
	00		 call	 DWORD PTR __imp_??0?$CStringT@DV?$StrTraitMFC_DLL@DV?$ChTraitsCRT@D@ATL@@@@@ATL@@QAE@PBD@Z
  0055a	3b f4		 cmp	 esi, esp
  0055c	e8 00 00 00 00	 call	 __RTC_CheckEsp
  00561	89 85 78 ff ff
	ff		 mov	 DWORD PTR tv340[ebp], eax
  00567	8b 85 78 ff ff
	ff		 mov	 eax, DWORD PTR tv340[ebp]
  0056d	89 85 74 ff ff
	ff		 mov	 DWORD PTR tv316[ebp], eax
  00573	c7 45 fc 05 00
	00 00		 mov	 DWORD PTR __$EHRec$[ebp+8], 5
  0057a	e8 00 00 00 00	 call	 ?AfxGetUIManager@@YAPAVIUIManager@@XZ ; AfxGetUIManager
  0057f	89 85 70 ff ff
	ff		 mov	 DWORD PTR tv236[ebp], eax
  00585	8b f4		 mov	 esi, esp
  00587	8b 8d 70 ff ff
	ff		 mov	 ecx, DWORD PTR tv236[ebp]
  0058d	8b 11		 mov	 edx, DWORD PTR [ecx]
  0058f	8b 8d 70 ff ff
	ff		 mov	 ecx, DWORD PTR tv236[ebp]
  00595	ff 52 24	 call	 DWORD PTR [edx+36]
  00598	3b f4		 cmp	 esi, esp
  0059a	e8 00 00 00 00	 call	 __RTC_CheckEsp
  0059f	89 85 6c ff ff
	ff		 mov	 DWORD PTR tv241[ebp], eax
  005a5	8b 45 f0	 mov	 eax, DWORD PTR _this$[ebp]
  005a8	8b 48 20	 mov	 ecx, DWORD PTR [eax+32]
  005ab	51		 push	 ecx
  005ac	8d 55 c4	 lea	 edx, DWORD PTR $T188895[ebp]
  005af	52		 push	 edx
  005b0	8b 85 6c ff ff
	ff		 mov	 eax, DWORD PTR tv241[ebp]
  005b6	8b 10		 mov	 edx, DWORD PTR [eax]
  005b8	c7 45 fc ff ff
	ff ff		 mov	 DWORD PTR __$EHRec$[ebp+8], -1
  005bf	8b 8d 6c ff ff
	ff		 mov	 ecx, DWORD PTR tv241[ebp]
  005c5	ff 52 54	 call	 DWORD PTR [edx+84]
  005c8	89 85 68 ff ff
	ff		 mov	 DWORD PTR tv317[ebp], eax
  005ce	8b 85 68 ff ff
	ff		 mov	 eax, DWORD PTR tv317[ebp]
  005d4	89 85 64 ff ff
	ff		 mov	 DWORD PTR tv319[ebp], eax
  005da	8b f4		 mov	 esi, esp
  005dc	8b 8d 64 ff ff
	ff		 mov	 ecx, DWORD PTR tv319[ebp]
  005e2	ff 15 00 00 00
	00		 call	 DWORD PTR __imp_??B?$CSimpleStringT@D$00@ATL@@QBEPBDXZ
  005e8	3b f4		 cmp	 esi, esp
  005ea	e8 00 00 00 00	 call	 __RTC_CheckEsp
  005ef	8b f4		 mov	 esi, esp
  005f1	50		 push	 eax
  005f2	ff 15 00 00 00
	00		 call	 DWORD PTR __imp__atoi
  005f8	83 c4 04	 add	 esp, 4
  005fb	3b f4		 cmp	 esi, esp
  005fd	e8 00 00 00 00	 call	 __RTC_CheckEsp
  00602	8b 4d f0	 mov	 ecx, DWORD PTR _this$[ebp]
  00605	89 81 08 01 00
	00		 mov	 DWORD PTR [ecx+264], eax
  0060b	8b f4		 mov	 esi, esp
  0060d	8d 4d c4	 lea	 ecx, DWORD PTR $T188895[ebp]
  00610	ff 15 00 00 00
	00		 call	 DWORD PTR __imp_??1?$CStringT@DV?$StrTraitMFC_DLL@DV?$ChTraitsCRT@D@ATL@@@@@ATL@@QAE@XZ
  00616	3b f4		 cmp	 esi, esp
  00618	e8 00 00 00 00	 call	 __RTC_CheckEsp

; 61   : 		m_nMinCy = atoi(AfxGetUIManager()->UIGetLayoutMgr()->GetWndParameter(m_hWnd, "sizeYMin"));

  0061d	51		 push	 ecx
  0061e	8b cc		 mov	 ecx, esp
  00620	89 65 c0	 mov	 DWORD PTR $T188896[ebp], esp
  00623	8b f4		 mov	 esi, esp
  00625	68 00 00 00 00	 push	 OFFSET FLAT:$SG188118
  0062a	ff 15 00 00 00
	00		 call	 DWORD PTR __imp_??0?$CStringT@DV?$StrTraitMFC_DLL@DV?$ChTraitsCRT@D@ATL@@@@@ATL@@QAE@PBD@Z
  00630	3b f4		 cmp	 esi, esp
  00632	e8 00 00 00 00	 call	 __RTC_CheckEsp
  00637	89 85 60 ff ff
	ff		 mov	 DWORD PTR tv343[ebp], eax
  0063d	8b 95 60 ff ff
	ff		 mov	 edx, DWORD PTR tv343[ebp]
  00643	89 95 5c ff ff
	ff		 mov	 DWORD PTR tv321[ebp], edx
  00649	c7 45 fc 06 00
	00 00		 mov	 DWORD PTR __$EHRec$[ebp+8], 6
  00650	e8 00 00 00 00	 call	 ?AfxGetUIManager@@YAPAVIUIManager@@XZ ; AfxGetUIManager
  00655	89 85 58 ff ff
	ff		 mov	 DWORD PTR tv271[ebp], eax
  0065b	8b f4		 mov	 esi, esp
  0065d	8b 85 58 ff ff
	ff		 mov	 eax, DWORD PTR tv271[ebp]
  00663	8b 10		 mov	 edx, DWORD PTR [eax]
  00665	8b 8d 58 ff ff
	ff		 mov	 ecx, DWORD PTR tv271[ebp]
  0066b	ff 52 24	 call	 DWORD PTR [edx+36]
  0066e	3b f4		 cmp	 esi, esp
  00670	e8 00 00 00 00	 call	 __RTC_CheckEsp
  00675	89 85 54 ff ff
	ff		 mov	 DWORD PTR tv276[ebp], eax
  0067b	8b 45 f0	 mov	 eax, DWORD PTR _this$[ebp]
  0067e	8b 48 20	 mov	 ecx, DWORD PTR [eax+32]
  00681	51		 push	 ecx
  00682	8d 55 bc	 lea	 edx, DWORD PTR $T188897[ebp]
  00685	52		 push	 edx
  00686	8b 85 54 ff ff
	ff		 mov	 eax, DWORD PTR tv276[ebp]
  0068c	8b 10		 mov	 edx, DWORD PTR [eax]
  0068e	c7 45 fc ff ff
	ff ff		 mov	 DWORD PTR __$EHRec$[ebp+8], -1
  00695	8b 8d 54 ff ff
	ff		 mov	 ecx, DWORD PTR tv276[ebp]
  0069b	ff 52 54	 call	 DWORD PTR [edx+84]
  0069e	89 85 50 ff ff
	ff		 mov	 DWORD PTR tv322[ebp], eax
  006a4	8b 85 50 ff ff
	ff		 mov	 eax, DWORD PTR tv322[ebp]
  006aa	89 85 4c ff ff
	ff		 mov	 DWORD PTR tv324[ebp], eax
  006b0	8b f4		 mov	 esi, esp
  006b2	8b 8d 4c ff ff
	ff		 mov	 ecx, DWORD PTR tv324[ebp]
  006b8	ff 15 00 00 00
	00		 call	 DWORD PTR __imp_??B?$CSimpleStringT@D$00@ATL@@QBEPBDXZ
  006be	3b f4		 cmp	 esi, esp
  006c0	e8 00 00 00 00	 call	 __RTC_CheckEsp
  006c5	8b f4		 mov	 esi, esp
  006c7	50		 push	 eax
  006c8	ff 15 00 00 00
	00		 call	 DWORD PTR __imp__atoi
  006ce	83 c4 04	 add	 esp, 4
  006d1	3b f4		 cmp	 esi, esp
  006d3	e8 00 00 00 00	 call	 __RTC_CheckEsp
  006d8	8b 4d f0	 mov	 ecx, DWORD PTR _this$[ebp]
  006db	89 81 0c 01 00
	00		 mov	 DWORD PTR [ecx+268], eax
  006e1	8b f4		 mov	 esi, esp
  006e3	8d 4d bc	 lea	 ecx, DWORD PTR $T188897[ebp]
  006e6	ff 15 00 00 00
	00		 call	 DWORD PTR __imp_??1?$CStringT@DV?$StrTraitMFC_DLL@DV?$ChTraitsCRT@D@ATL@@@@@ATL@@QAE@XZ
  006ec	3b f4		 cmp	 esi, esp
  006ee	e8 00 00 00 00	 call	 __RTC_CheckEsp
$L188103:

; 62   : 	}
; 63   : 
; 64   : 	return TRUE;

  006f3	b8 01 00 00 00	 mov	 eax, 1

; 65   : }

  006f8	8b 4d f4	 mov	 ecx, DWORD PTR __$EHRec$[ebp]
  006fb	64 89 0d 00 00
	00 00		 mov	 DWORD PTR fs:__except_list, ecx
  00702	5f		 pop	 edi
  00703	5e		 pop	 esi
  00704	81 c4 b4 00 00
	00		 add	 esp, 180		; 000000b4H
  0070a	3b ec		 cmp	 ebp, esp
  0070c	e8 00 00 00 00	 call	 __RTC_CheckEsp
  00711	8b e5		 mov	 esp, ebp
  00713	5d		 pop	 ebp
  00714	c3		 ret	 0
_TEXT	ENDS
text$x	SEGMENT
$L188898:
  000c2	8b f4		 mov	 esi, esp
  000c4	8b 4d dc	 mov	 ecx, DWORD PTR $T188889[ebp]
  000c7	ff 15 00 00 00
	00		 call	 DWORD PTR __imp_??1?$CStringT@DV?$StrTraitMFC_DLL@DV?$ChTraitsCRT@D@ATL@@@@@ATL@@QAE@XZ
  000cd	3b f4		 cmp	 esi, esp
  000cf	e9 00 00 00 00	 jmp	 __RTC_CheckEsp
$L188899:
  000d4	8b f4		 mov	 esi, esp
  000d6	8b 4d d8	 mov	 ecx, DWORD PTR $T188890[ebp]
  000d9	ff 15 00 00 00
	00		 call	 DWORD PTR __imp_??1?$CStringT@DV?$StrTraitMFC_DLL@DV?$ChTraitsCRT@D@ATL@@@@@ATL@@QAE@XZ
  000df	3b f4		 cmp	 esi, esp
  000e1	e9 00 00 00 00	 jmp	 __RTC_CheckEsp
$L188900:
  000e6	8b f4		 mov	 esi, esp
  000e8	8b 4d d4	 mov	 ecx, DWORD PTR $T188891[ebp]
  000eb	ff 15 00 00 00
	00		 call	 DWORD PTR __imp_??1?$CStringT@DV?$StrTraitMFC_DLL@DV?$ChTraitsCRT@D@ATL@@@@@ATL@@QAE@XZ
  000f1	3b f4		 cmp	 esi, esp
  000f3	e9 00 00 00 00	 jmp	 __RTC_CheckEsp
$L188901:
  000f8	8b f4		 mov	 esi, esp
  000fa	8b 4d d0	 mov	 ecx, DWORD PTR $T188892[ebp]
  000fd	ff 15 00 00 00
	00		 call	 DWORD PTR __imp_??1?$CStringT@DV?$StrTraitMFC_DLL@DV?$ChTraitsCRT@D@ATL@@@@@ATL@@QAE@XZ
  00103	3b f4		 cmp	 esi, esp
  00105	e9 00 00 00 00	 jmp	 __RTC_CheckEsp
$L188902:
  0010a	8b f4		 mov	 esi, esp
  0010c	8b 4d cc	 mov	 ecx, DWORD PTR $T188893[ebp]
  0010f	ff 15 00 00 00
	00		 call	 DWORD PTR __imp_??1?$CStringT@DV?$StrTraitMFC_DLL@DV?$ChTraitsCRT@D@ATL@@@@@ATL@@QAE@XZ
  00115	3b f4		 cmp	 esi, esp
  00117	e9 00 00 00 00	 jmp	 __RTC_CheckEsp
$L188903:
  0011c	8b f4		 mov	 esi, esp
  0011e	8b 4d c8	 mov	 ecx, DWORD PTR $T188894[ebp]
  00121	ff 15 00 00 00
	00		 call	 DWORD PTR __imp_??1?$CStringT@DV?$StrTraitMFC_DLL@DV?$ChTraitsCRT@D@ATL@@@@@ATL@@QAE@XZ
  00127	3b f4		 cmp	 esi, esp
  00129	e9 00 00 00 00	 jmp	 __RTC_CheckEsp
$L188905:
  0012e	8b f4		 mov	 esi, esp
  00130	8b 4d c0	 mov	 ecx, DWORD PTR $T188896[ebp]
  00133	ff 15 00 00 00
	00		 call	 DWORD PTR __imp_??1?$CStringT@DV?$StrTraitMFC_DLL@DV?$ChTraitsCRT@D@ATL@@@@@ATL@@QAE@XZ
  00139	3b f4		 cmp	 esi, esp
  0013b	e9 00 00 00 00	 jmp	 __RTC_CheckEsp
__ehhandler$?OnInitDialog@CHostWnd@@MAEHXZ:
  00140	b8 00 00 00 00	 mov	 eax, OFFSET FLAT:$T188908
  00145	e9 00 00 00 00	 jmp	 ___CxxFrameHandler
text$x	ENDS
?OnInitDialog@CHostWnd@@MAEHXZ ENDP			; CHostWnd::OnInitDialog
PUBLIC	?DrawMoveFrame@CHostWnd@@IAEXVCRect@@@Z		; CHostWnd::DrawMoveFrame
EXTRN	??BCRect@@QAEPAUtagRECT@@XZ:NEAR		; CRect::operator tagRECT *
EXTRN	?DoMouseDown@CWindowsMover@@QAEXPAUHWND__@@VCPoint@@@Z:NEAR ; CWindowsMover::DoMouseDown
EXTRN	?GetWindowRect@CWnd@@QBEXPAUtagRECT@@@Z:NEAR	; CWnd::GetWindowRect
EXTRN	?ClientToScreen@CWnd@@QBEXPAUtagPOINT@@@Z:NEAR	; CWnd::ClientToScreen
EXTRN	?SetCapture@CWnd@@QAEPAV1@XZ:NEAR		; CWnd::SetCapture
; Function compile flags: /Odt /RTCsu
_TEXT	SEGMENT
_this$ = -4						; size = 4
_nFlags$ = 8						; size = 4
_point$ = 12						; size = 8
?OnLButtonDown@CHostWnd@@IAEXIVCPoint@@@Z PROC NEAR	; CHostWnd::OnLButtonDown
; _this$ = ecx

; 68   : {	

  00720	55		 push	 ebp
  00721	8b ec		 mov	 ebp, esp
  00723	51		 push	 ecx
  00724	56		 push	 esi
  00725	c7 45 fc cc cc
	cc cc		 mov	 DWORD PTR [ebp-4], -858993460 ; ccccccccH
  0072c	89 4d fc	 mov	 DWORD PTR _this$[ebp], ecx

; 69   : ;//	PostMessage( WM_NCLBUTTONDOWN, HTCAPTION, (LPARAM)&point );	
; 70   : 
; 71   : 	m_iDirection = 0;

  0072f	8b 45 fc	 mov	 eax, DWORD PTR _this$[ebp]
  00732	c7 80 9c 00 00
	00 00 00 00 00	 mov	 DWORD PTR [eax+156], 0

; 72   : 
; 73   : 	if( _needChangeCursor(point))

  0073c	8b f4		 mov	 esi, esp
  0073e	8d 4d 0c	 lea	 ecx, DWORD PTR _point$[ebp]
  00741	51		 push	 ecx
  00742	8b 55 fc	 mov	 edx, DWORD PTR _this$[ebp]
  00745	8b 02		 mov	 eax, DWORD PTR [edx]
  00747	8b 4d fc	 mov	 ecx, DWORD PTR _this$[ebp]
  0074a	ff 90 60 01 00
	00		 call	 DWORD PTR [eax+352]
  00750	3b f4		 cmp	 esi, esp
  00752	e8 00 00 00 00	 call	 __RTC_CheckEsp
  00757	0f b6 c8	 movzx	 ecx, al
  0075a	85 c9		 test	 ecx, ecx
  0075c	0f 84 99 00 00
	00		 je	 $L188124

; 74   : 	{
; 75   : 		m_bChangeCursor  = true;

  00762	8b 55 fc	 mov	 edx, DWORD PTR _this$[ebp]
  00765	c6 82 a0 00 00
	00 01		 mov	 BYTE PTR [edx+160], 1

; 76   : 		SetCapture();		

  0076c	8b 4d fc	 mov	 ecx, DWORD PTR _this$[ebp]
  0076f	e8 00 00 00 00	 call	 ?SetCapture@CWnd@@QAEPAV1@XZ ; CWnd::SetCapture

; 77   : 		m_isResizing = TRUE;

  00774	8b 45 fc	 mov	 eax, DWORD PTR _this$[ebp]
  00777	c6 80 a1 00 00
	00 01		 mov	 BYTE PTR [eax+161], 1

; 78   : 		m_ptStartResizing = point;

  0077e	8b 4d fc	 mov	 ecx, DWORD PTR _this$[ebp]
  00781	8b 55 0c	 mov	 edx, DWORD PTR _point$[ebp]
  00784	89 91 a4 00 00
	00		 mov	 DWORD PTR [ecx+164], edx
  0078a	8b 45 10	 mov	 eax, DWORD PTR _point$[ebp+4]
  0078d	89 81 a8 00 00
	00		 mov	 DWORD PTR [ecx+168], eax

; 79   : 		ClientToScreen( &m_ptStartResizing );

  00793	8b 4d fc	 mov	 ecx, DWORD PTR _this$[ebp]
  00796	81 c1 a4 00 00
	00		 add	 ecx, 164		; 000000a4H
  0079c	51		 push	 ecx
  0079d	8b 4d fc	 mov	 ecx, DWORD PTR _this$[ebp]
  007a0	e8 00 00 00 00	 call	 ?ClientToScreen@CWnd@@QBEXPAUtagPOINT@@@Z ; CWnd::ClientToScreen

; 80   : 		GetWindowRect( m_rectStarResizing );

  007a5	8b 4d fc	 mov	 ecx, DWORD PTR _this$[ebp]
  007a8	81 c1 ac 00 00
	00		 add	 ecx, 172		; 000000acH
  007ae	e8 00 00 00 00	 call	 ??BCRect@@QAEPAUtagRECT@@XZ ; CRect::operator tagRECT *
  007b3	50		 push	 eax
  007b4	8b 4d fc	 mov	 ecx, DWORD PTR _this$[ebp]
  007b7	e8 00 00 00 00	 call	 ?GetWindowRect@CWnd@@QBEXPAUtagRECT@@@Z ; CWnd::GetWindowRect

; 81   : 		GetWindowRect(&m_rcMain);

  007bc	8b 55 fc	 mov	 edx, DWORD PTR _this$[ebp]
  007bf	81 c2 bc 00 00
	00		 add	 edx, 188		; 000000bcH
  007c5	52		 push	 edx
  007c6	8b 4d fc	 mov	 ecx, DWORD PTR _this$[ebp]
  007c9	e8 00 00 00 00	 call	 ?GetWindowRect@CWnd@@QBEXPAUtagRECT@@@Z ; CWnd::GetWindowRect

; 82   : 		DrawMoveFrame(m_rcMain);

  007ce	8b 45 fc	 mov	 eax, DWORD PTR _this$[ebp]
  007d1	05 bc 00 00 00	 add	 eax, 188		; 000000bcH
  007d6	83 ec 10	 sub	 esp, 16			; 00000010H
  007d9	8b cc		 mov	 ecx, esp
  007db	8b 10		 mov	 edx, DWORD PTR [eax]
  007dd	89 11		 mov	 DWORD PTR [ecx], edx
  007df	8b 50 04	 mov	 edx, DWORD PTR [eax+4]
  007e2	89 51 04	 mov	 DWORD PTR [ecx+4], edx
  007e5	8b 50 08	 mov	 edx, DWORD PTR [eax+8]
  007e8	89 51 08	 mov	 DWORD PTR [ecx+8], edx
  007eb	8b 40 0c	 mov	 eax, DWORD PTR [eax+12]
  007ee	89 41 0c	 mov	 DWORD PTR [ecx+12], eax
  007f1	8b 4d fc	 mov	 ecx, DWORD PTR _this$[ebp]
  007f4	e8 00 00 00 00	 call	 ?DrawMoveFrame@CHostWnd@@IAEXVCRect@@@Z ; CHostWnd::DrawMoveFrame

; 83   : 		return ;

  007f9	eb 33		 jmp	 SHORT $L188123
$L188124:

; 84   : 	}		
; 85   : 	if(!m_isResizing)

  007fb	8b 4d fc	 mov	 ecx, DWORD PTR _this$[ebp]
  007fe	0f b6 91 a1 00
	00 00		 movzx	 edx, BYTE PTR [ecx+161]
  00805	85 d2		 test	 edx, edx
  00807	75 1b		 jne	 SHORT $L188125

; 86   : 		CWindowsMover::GetInstance()->DoMouseDown(m_hWnd, point);

  00809	8b 45 10	 mov	 eax, DWORD PTR _point$[ebp+4]
  0080c	50		 push	 eax
  0080d	8b 4d 0c	 mov	 ecx, DWORD PTR _point$[ebp]
  00810	51		 push	 ecx
  00811	8b 55 fc	 mov	 edx, DWORD PTR _this$[ebp]
  00814	8b 42 20	 mov	 eax, DWORD PTR [edx+32]
  00817	50		 push	 eax
  00818	e8 00 00 00 00	 call	 ?GetInstance@CWindowsMover@@SAPAV1@XZ ; CWindowsMover::GetInstance
  0081d	8b c8		 mov	 ecx, eax
  0081f	e8 00 00 00 00	 call	 ?DoMouseDown@CWindowsMover@@QAEXPAUHWND__@@VCPoint@@@Z ; CWindowsMover::DoMouseDown
$L188125:

; 87   : 	m_isResizing = FALSE;

  00824	8b 4d fc	 mov	 ecx, DWORD PTR _this$[ebp]
  00827	c6 81 a1 00 00
	00 00		 mov	 BYTE PTR [ecx+161], 0
$L188123:

; 88   : 
; 89   : }

  0082e	5e		 pop	 esi
  0082f	83 c4 04	 add	 esp, 4
  00832	3b ec		 cmp	 ebp, esp
  00834	e8 00 00 00 00	 call	 __RTC_CheckEsp
  00839	8b e5		 mov	 esp, ebp
  0083b	5d		 pop	 ebp
  0083c	c2 0c 00	 ret	 12			; 0000000cH
?OnLButtonDown@CHostWnd@@IAEXIVCPoint@@@Z ENDP		; CHostWnd::OnLButtonDown
_TEXT	ENDS
EXTRN	__imp__InvalidateRect@12:NEAR
EXTRN	?Width@CRect@@QBEHXZ:NEAR			; CRect::Width
EXTRN	?Height@CRect@@QBEHXZ:NEAR			; CRect::Height
EXTRN	@_RTC_CheckStackVars@8:NEAR
EXTRN	?DoMouseResizingFinished@CWindowsMover@@QAEXPAUHWND__@@IVCPoint@@H@Z:NEAR ; CWindowsMover::DoMouseResizingFinished
EXTRN	?DoMouseUp@CWindowsMover@@QAEXPAUHWND__@@VCPoint@@@Z:NEAR ; CWindowsMover::DoMouseUp
EXTRN	?MoveWindow@CWnd@@QAEXPBUtagRECT@@H@Z:NEAR	; CWnd::MoveWindow
EXTRN	__imp__GetDesktopWindow@0:NEAR
EXTRN	__imp__GetCapture@0:NEAR
EXTRN	__imp__ReleaseCapture@0:NEAR
; Function compile flags: /Odt /RTCsu
_TEXT	SEGMENT
_rc$188133 = -24					; size = 16
_this$ = -4						; size = 4
_nFlags$ = 8						; size = 4
_point$ = 12						; size = 8
?OnLButtonUp@CHostWnd@@IAEXIVCPoint@@@Z PROC NEAR	; CHostWnd::OnLButtonUp
; _this$ = ecx

; 92   : {

  00840	55		 push	 ebp
  00841	8b ec		 mov	 ebp, esp
  00843	83 ec 1c	 sub	 esp, 28			; 0000001cH
  00846	56		 push	 esi
  00847	57		 push	 edi
  00848	b8 cc cc cc cc	 mov	 eax, -858993460		; ccccccccH
  0084d	89 45 e4	 mov	 DWORD PTR [ebp-28], eax
  00850	89 45 e8	 mov	 DWORD PTR [ebp-24], eax
  00853	89 45 ec	 mov	 DWORD PTR [ebp-20], eax
  00856	89 45 f0	 mov	 DWORD PTR [ebp-16], eax
  00859	89 45 f4	 mov	 DWORD PTR [ebp-12], eax
  0085c	89 45 f8	 mov	 DWORD PTR [ebp-8], eax
  0085f	89 45 fc	 mov	 DWORD PTR [ebp-4], eax
  00862	89 4d fc	 mov	 DWORD PTR _this$[ebp], ecx

; 93   : 	if(!m_isResizing)

  00865	8b 45 fc	 mov	 eax, DWORD PTR _this$[ebp]
  00868	0f b6 88 a1 00
	00 00		 movzx	 ecx, BYTE PTR [eax+161]
  0086f	85 c9		 test	 ecx, ecx
  00871	75 1b		 jne	 SHORT $L188131

; 94   : 		CWindowsMover::GetInstance()->DoMouseUp(this->m_hWnd, point);

  00873	8b 55 10	 mov	 edx, DWORD PTR _point$[ebp+4]
  00876	52		 push	 edx
  00877	8b 45 0c	 mov	 eax, DWORD PTR _point$[ebp]
  0087a	50		 push	 eax
  0087b	8b 4d fc	 mov	 ecx, DWORD PTR _this$[ebp]
  0087e	8b 51 20	 mov	 edx, DWORD PTR [ecx+32]
  00881	52		 push	 edx
  00882	e8 00 00 00 00	 call	 ?GetInstance@CWindowsMover@@SAPAV1@XZ ; CWindowsMover::GetInstance
  00887	8b c8		 mov	 ecx, eax
  00889	e8 00 00 00 00	 call	 ?DoMouseUp@CWindowsMover@@QAEXPAUHWND__@@VCPoint@@@Z ; CWindowsMover::DoMouseUp
$L188131:

; 95   : 
; 96   : 	if( m_isResizing )

  0088e	8b 45 fc	 mov	 eax, DWORD PTR _this$[ebp]
  00891	0f b6 88 a1 00
	00 00		 movzx	 ecx, BYTE PTR [eax+161]
  00898	85 c9		 test	 ecx, ecx
  0089a	0f 84 ec 00 00
	00		 je	 $L188132

; 97   : 	{
; 98   : 		DrawMoveFrame(m_rcMain);

  008a0	8b 55 fc	 mov	 edx, DWORD PTR _this$[ebp]
  008a3	81 c2 bc 00 00
	00		 add	 edx, 188		; 000000bcH
  008a9	83 ec 10	 sub	 esp, 16			; 00000010H
  008ac	8b c4		 mov	 eax, esp
  008ae	8b 0a		 mov	 ecx, DWORD PTR [edx]
  008b0	89 08		 mov	 DWORD PTR [eax], ecx
  008b2	8b 4a 04	 mov	 ecx, DWORD PTR [edx+4]
  008b5	89 48 04	 mov	 DWORD PTR [eax+4], ecx
  008b8	8b 4a 08	 mov	 ecx, DWORD PTR [edx+8]
  008bb	89 48 08	 mov	 DWORD PTR [eax+8], ecx
  008be	8b 52 0c	 mov	 edx, DWORD PTR [edx+12]
  008c1	89 50 0c	 mov	 DWORD PTR [eax+12], edx
  008c4	8b 4d fc	 mov	 ecx, DWORD PTR _this$[ebp]
  008c7	e8 00 00 00 00	 call	 ?DrawMoveFrame@CHostWnd@@IAEXVCRect@@@Z ; CHostWnd::DrawMoveFrame

; 99   : 		CRect rc;

  008cc	8d 4d e8	 lea	 ecx, DWORD PTR _rc$188133[ebp]
  008cf	e8 00 00 00 00	 call	 ??0CRect@@QAE@XZ	; CRect::CRect

; 100  : 		this->GetWindowRect(&rc);

  008d4	8d 45 e8	 lea	 eax, DWORD PTR _rc$188133[ebp]
  008d7	50		 push	 eax
  008d8	8b 4d fc	 mov	 ecx, DWORD PTR _this$[ebp]
  008db	e8 00 00 00 00	 call	 ?GetWindowRect@CWnd@@QBEXPAUtagRECT@@@Z ; CWnd::GetWindowRect

; 101  : 		m_nDeltaHeight = m_rcMain.Height() - rc.Height();

  008e0	8b 4d fc	 mov	 ecx, DWORD PTR _this$[ebp]
  008e3	81 c1 bc 00 00
	00		 add	 ecx, 188		; 000000bcH
  008e9	e8 00 00 00 00	 call	 ?Height@CRect@@QBEHXZ	; CRect::Height
  008ee	8b f0		 mov	 esi, eax
  008f0	8d 4d e8	 lea	 ecx, DWORD PTR _rc$188133[ebp]
  008f3	e8 00 00 00 00	 call	 ?Height@CRect@@QBEHXZ	; CRect::Height
  008f8	2b f0		 sub	 esi, eax
  008fa	8b 4d fc	 mov	 ecx, DWORD PTR _this$[ebp]
  008fd	89 71 74	 mov	 DWORD PTR [ecx+116], esi

; 102  : 		m_nDeltaWidth = m_rcMain.Width() - rc.Width();

  00900	8b 4d fc	 mov	 ecx, DWORD PTR _this$[ebp]
  00903	81 c1 bc 00 00
	00		 add	 ecx, 188		; 000000bcH
  00909	e8 00 00 00 00	 call	 ?Width@CRect@@QBEHXZ	; CRect::Width
  0090e	8b f0		 mov	 esi, eax
  00910	8d 4d e8	 lea	 ecx, DWORD PTR _rc$188133[ebp]
  00913	e8 00 00 00 00	 call	 ?Width@CRect@@QBEHXZ	; CRect::Width
  00918	2b f0		 sub	 esi, eax
  0091a	8b 55 fc	 mov	 edx, DWORD PTR _this$[ebp]
  0091d	89 72 78	 mov	 DWORD PTR [edx+120], esi

; 103  : 		MoveWindow( m_rcMain,true );

  00920	6a 01		 push	 1
  00922	8b 4d fc	 mov	 ecx, DWORD PTR _this$[ebp]
  00925	81 c1 bc 00 00
	00		 add	 ecx, 188		; 000000bcH
  0092b	e8 00 00 00 00	 call	 ??BCRect@@QAEPAUtagRECT@@XZ ; CRect::operator tagRECT *
  00930	50		 push	 eax
  00931	8b 4d fc	 mov	 ecx, DWORD PTR _this$[ebp]
  00934	e8 00 00 00 00	 call	 ?MoveWindow@CWnd@@QAEXPBUtagRECT@@H@Z ; CWnd::MoveWindow

; 104  : 		::InvalidateRect(::GetDesktopWindow(), &m_rcMain, true);

  00939	8b f4		 mov	 esi, esp
  0093b	6a 01		 push	 1
  0093d	8b 45 fc	 mov	 eax, DWORD PTR _this$[ebp]
  00940	05 bc 00 00 00	 add	 eax, 188		; 000000bcH
  00945	50		 push	 eax
  00946	8b fc		 mov	 edi, esp
  00948	ff 15 00 00 00
	00		 call	 DWORD PTR __imp__GetDesktopWindow@0
  0094e	3b fc		 cmp	 edi, esp
  00950	e8 00 00 00 00	 call	 __RTC_CheckEsp
  00955	50		 push	 eax
  00956	ff 15 00 00 00
	00		 call	 DWORD PTR __imp__InvalidateRect@12
  0095c	3b f4		 cmp	 esi, esp
  0095e	e8 00 00 00 00	 call	 __RTC_CheckEsp

; 105  : 		CWindowsMover::GetInstance()->DoMouseResizingFinished(m_hWnd, nFlags, point, m_iDirection);

  00963	8b 4d fc	 mov	 ecx, DWORD PTR _this$[ebp]
  00966	8b 91 9c 00 00
	00		 mov	 edx, DWORD PTR [ecx+156]
  0096c	52		 push	 edx
  0096d	8b 45 10	 mov	 eax, DWORD PTR _point$[ebp+4]
  00970	50		 push	 eax
  00971	8b 4d 0c	 mov	 ecx, DWORD PTR _point$[ebp]
  00974	51		 push	 ecx
  00975	8b 55 08	 mov	 edx, DWORD PTR _nFlags$[ebp]
  00978	52		 push	 edx
  00979	8b 45 fc	 mov	 eax, DWORD PTR _this$[ebp]
  0097c	8b 48 20	 mov	 ecx, DWORD PTR [eax+32]
  0097f	51		 push	 ecx
  00980	e8 00 00 00 00	 call	 ?GetInstance@CWindowsMover@@SAPAV1@XZ ; CWindowsMover::GetInstance
  00985	8b c8		 mov	 ecx, eax
  00987	e8 00 00 00 00	 call	 ?DoMouseResizingFinished@CWindowsMover@@QAEXPAUHWND__@@IVCPoint@@H@Z ; CWindowsMover::DoMouseResizingFinished
$L188132:

; 106  : 	}
; 107  : 	if(::GetCapture() == m_hWnd)

  0098c	8b f4		 mov	 esi, esp
  0098e	ff 15 00 00 00
	00		 call	 DWORD PTR __imp__GetCapture@0
  00994	3b f4		 cmp	 esi, esp
  00996	e8 00 00 00 00	 call	 __RTC_CheckEsp
  0099b	8b 55 fc	 mov	 edx, DWORD PTR _this$[ebp]
  0099e	3b 42 20	 cmp	 eax, DWORD PTR [edx+32]
  009a1	75 0f		 jne	 SHORT $L188134

; 108  : 		::ReleaseCapture();

  009a3	8b f4		 mov	 esi, esp
  009a5	ff 15 00 00 00
	00		 call	 DWORD PTR __imp__ReleaseCapture@0
  009ab	3b f4		 cmp	 esi, esp
  009ad	e8 00 00 00 00	 call	 __RTC_CheckEsp
$L188134:

; 109  : 	m_isResizing = FALSE;

  009b2	8b 45 fc	 mov	 eax, DWORD PTR _this$[ebp]
  009b5	c6 80 a1 00 00
	00 00		 mov	 BYTE PTR [eax+161], 0

; 110  : 
; 111  : }

  009bc	52		 push	 edx
  009bd	8b cd		 mov	 ecx, ebp
  009bf	50		 push	 eax
  009c0	8d 15 00 00 00
	00		 lea	 edx, DWORD PTR $L188915
  009c6	e8 00 00 00 00	 call	 @_RTC_CheckStackVars@8
  009cb	58		 pop	 eax
  009cc	5a		 pop	 edx
  009cd	5f		 pop	 edi
  009ce	5e		 pop	 esi
  009cf	83 c4 1c	 add	 esp, 28			; 0000001cH
  009d2	3b ec		 cmp	 ebp, esp
  009d4	e8 00 00 00 00	 call	 __RTC_CheckEsp
  009d9	8b e5		 mov	 esp, ebp
  009db	5d		 pop	 ebp
  009dc	c2 0c 00	 ret	 12			; 0000000cH
$L188915:
  009df	01 00 00 00	 DD	 1
  009e3	00 00 00 00	 DD	 $L188914
$L188914:
  009e7	e8 ff ff ff	 DD	 -24			; ffffffe8H
  009eb	10 00 00 00	 DD	 16			; 00000010H
  009ef	00 00 00 00	 DD	 $L188913
$L188913:
  009f3	72		 DB	 114			; 00000072H
  009f4	63		 DB	 99			; 00000063H
  009f5	00		 DB	 0
?OnLButtonUp@CHostWnd@@IAEXIVCPoint@@@Z ENDP		; CHostWnd::OnLButtonUp
_TEXT	ENDS
EXTRN	?OnMouseMove@CWnd@@IAEXIVCPoint@@@Z:NEAR	; CWnd::OnMouseMove
EXTRN	__imp__SetCursor@4:NEAR
EXTRN	?DoMouseMove@CWindowsMover@@QAEXPAUHWND__@@IVCPoint@@@Z:NEAR ; CWindowsMover::DoMouseMove
EXTRN	__imp__LoadCursorA@8:NEAR
; Function compile flags: /Odt /RTCsu
_TEXT	SEGMENT
_newRect$188152 = -60					; size = 16
_diff$188151 = -36					; size = 8
_tmpPT$188150 = -20					; size = 8
_m_hCursor$188144 = -8					; size = 4
_this$ = -4						; size = 4
_nFlags$ = 8						; size = 4
_point$ = 12						; size = 8
?OnMouseMove@CHostWnd@@IAEXIVCPoint@@@Z PROC NEAR	; CHostWnd::OnMouseMove
; _this$ = ecx

; 114  : {

  00a00	55		 push	 ebp
  00a01	8b ec		 mov	 ebp, esp
  00a03	83 ec 40	 sub	 esp, 64			; 00000040H
  00a06	56		 push	 esi
  00a07	57		 push	 edi
  00a08	51		 push	 ecx
  00a09	8d 7d c0	 lea	 edi, DWORD PTR [ebp-64]
  00a0c	b9 10 00 00 00	 mov	 ecx, 16			; 00000010H
  00a11	b8 cc cc cc cc	 mov	 eax, -858993460		; ccccccccH
  00a16	f3 ab		 rep stosd
  00a18	59		 pop	 ecx
  00a19	89 4d fc	 mov	 DWORD PTR _this$[ebp], ecx

; 115  : 	if(!m_isResizing)

  00a1c	8b 45 fc	 mov	 eax, DWORD PTR _this$[ebp]
  00a1f	0f b6 88 a1 00
	00 00		 movzx	 ecx, BYTE PTR [eax+161]
  00a26	85 c9		 test	 ecx, ecx
  00a28	75 1f		 jne	 SHORT $L188140

; 116  : 	{
; 117  : 		CWindowsMover::GetInstance()->DoMouseMove(m_hWnd, nFlags, point);

  00a2a	8b 55 10	 mov	 edx, DWORD PTR _point$[ebp+4]
  00a2d	52		 push	 edx
  00a2e	8b 45 0c	 mov	 eax, DWORD PTR _point$[ebp]
  00a31	50		 push	 eax
  00a32	8b 4d 08	 mov	 ecx, DWORD PTR _nFlags$[ebp]
  00a35	51		 push	 ecx
  00a36	8b 55 fc	 mov	 edx, DWORD PTR _this$[ebp]
  00a39	8b 42 20	 mov	 eax, DWORD PTR [edx+32]
  00a3c	50		 push	 eax
  00a3d	e8 00 00 00 00	 call	 ?GetInstance@CWindowsMover@@SAPAV1@XZ ; CWindowsMover::GetInstance
  00a42	8b c8		 mov	 ecx, eax
  00a44	e8 00 00 00 00	 call	 ?DoMouseMove@CWindowsMover@@QAEXPAUHWND__@@IVCPoint@@@Z ; CWindowsMover::DoMouseMove
$L188140:

; 118  : 	}
; 119  : 	if( !m_isResizing )

  00a49	8b 4d fc	 mov	 ecx, DWORD PTR _this$[ebp]
  00a4c	0f b6 91 a1 00
	00 00		 movzx	 edx, BYTE PTR [ecx+161]
  00a53	85 d2		 test	 edx, edx
  00a55	75 7f		 jne	 SHORT $L188141

; 120  : 	{
; 121  : 		if( !_needChangeCursor( point ) )

  00a57	8b f4		 mov	 esi, esp
  00a59	8d 45 0c	 lea	 eax, DWORD PTR _point$[ebp]
  00a5c	50		 push	 eax
  00a5d	8b 4d fc	 mov	 ecx, DWORD PTR _this$[ebp]
  00a60	8b 11		 mov	 edx, DWORD PTR [ecx]
  00a62	8b 4d fc	 mov	 ecx, DWORD PTR _this$[ebp]
  00a65	ff 92 60 01 00
	00		 call	 DWORD PTR [edx+352]
  00a6b	3b f4		 cmp	 esi, esp
  00a6d	e8 00 00 00 00	 call	 __RTC_CheckEsp
  00a72	0f b6 c0	 movzx	 eax, al
  00a75	85 c0		 test	 eax, eax
  00a77	75 53		 jne	 SHORT $L188142

; 122  : 		{
; 123  : 			if( m_bChangeCursor )

  00a79	8b 4d fc	 mov	 ecx, DWORD PTR _this$[ebp]
  00a7c	0f b6 91 a0 00
	00 00		 movzx	 edx, BYTE PTR [ecx+160]
  00a83	85 d2		 test	 edx, edx
  00a85	74 43		 je	 SHORT $L188143

; 124  : 			{
; 125  : 				HCURSOR  m_hCursor = ::LoadCursor(NULL, IDC_ARROW);		

  00a87	8b f4		 mov	 esi, esp
  00a89	68 00 7f 00 00	 push	 32512			; 00007f00H
  00a8e	6a 00		 push	 0
  00a90	ff 15 00 00 00
	00		 call	 DWORD PTR __imp__LoadCursorA@8
  00a96	3b f4		 cmp	 esi, esp
  00a98	e8 00 00 00 00	 call	 __RTC_CheckEsp
  00a9d	89 45 f8	 mov	 DWORD PTR _m_hCursor$188144[ebp], eax

; 126  : 				m_iDirection = 0;

  00aa0	8b 45 fc	 mov	 eax, DWORD PTR _this$[ebp]
  00aa3	c7 80 9c 00 00
	00 00 00 00 00	 mov	 DWORD PTR [eax+156], 0

; 127  : 				::SetCursor(m_hCursor);			

  00aad	8b f4		 mov	 esi, esp
  00aaf	8b 4d f8	 mov	 ecx, DWORD PTR _m_hCursor$188144[ebp]
  00ab2	51		 push	 ecx
  00ab3	ff 15 00 00 00
	00		 call	 DWORD PTR __imp__SetCursor@4
  00ab9	3b f4		 cmp	 esi, esp
  00abb	e8 00 00 00 00	 call	 __RTC_CheckEsp

; 128  : 				m_bChangeCursor = false;

  00ac0	8b 55 fc	 mov	 edx, DWORD PTR _this$[ebp]
  00ac3	c6 82 a0 00 00
	00 00		 mov	 BYTE PTR [edx+160], 0
$L188143:

; 129  : 			}
; 130  : 		}
; 131  : 		else

  00aca	eb 0a		 jmp	 SHORT $L188141
$L188142:

; 132  : 		{
; 133  : 			m_bChangeCursor = true;

  00acc	8b 45 fc	 mov	 eax, DWORD PTR _this$[ebp]
  00acf	c6 80 a0 00 00
	00 01		 mov	 BYTE PTR [eax+160], 1
$L188141:

; 134  : 		}
; 135  : 	}
; 136  : 
; 137  : 	if( nFlags & MK_LBUTTON && m_isResizing )//

  00ad6	8b 4d 08	 mov	 ecx, DWORD PTR _nFlags$[ebp]
  00ad9	83 e1 01	 and	 ecx, 1
  00adc	0f 84 3f 03 00
	00		 je	 $L188149
  00ae2	8b 55 fc	 mov	 edx, DWORD PTR _this$[ebp]
  00ae5	0f b6 82 a1 00
	00 00		 movzx	 eax, BYTE PTR [edx+161]
  00aec	85 c0		 test	 eax, eax
  00aee	0f 84 2d 03 00
	00		 je	 $L188149

; 138  : 	{
; 139  : 		CPoint tmpPT = point;

  00af4	8b 4d 0c	 mov	 ecx, DWORD PTR _point$[ebp]
  00af7	89 4d ec	 mov	 DWORD PTR _tmpPT$188150[ebp], ecx
  00afa	8b 55 10	 mov	 edx, DWORD PTR _point$[ebp+4]
  00afd	89 55 f0	 mov	 DWORD PTR _tmpPT$188150[ebp+4], edx

; 140  : 		ClientToScreen(&tmpPT);

  00b00	8d 45 ec	 lea	 eax, DWORD PTR _tmpPT$188150[ebp]
  00b03	50		 push	 eax
  00b04	8b 4d fc	 mov	 ecx, DWORD PTR _this$[ebp]
  00b07	e8 00 00 00 00	 call	 ?ClientToScreen@CWnd@@QBEXPAUtagPOINT@@@Z ; CWnd::ClientToScreen

; 141  : 		//Pt    
; 142  : 		CPoint diff;

  00b0c	8d 4d dc	 lea	 ecx, DWORD PTR _diff$188151[ebp]
  00b0f	e8 00 00 00 00	 call	 ??0CPoint@@QAE@XZ	; CPoint::CPoint

; 143  : 		diff.x = tmpPT.x - m_ptStartResizing.x;

  00b14	8b 4d fc	 mov	 ecx, DWORD PTR _this$[ebp]
  00b17	8b 55 ec	 mov	 edx, DWORD PTR _tmpPT$188150[ebp]
  00b1a	2b 91 a4 00 00
	00		 sub	 edx, DWORD PTR [ecx+164]
  00b20	89 55 dc	 mov	 DWORD PTR _diff$188151[ebp], edx

; 144  : 		diff.y = tmpPT.y - m_ptStartResizing.y;

  00b23	8b 45 fc	 mov	 eax, DWORD PTR _this$[ebp]
  00b26	8b 4d f0	 mov	 ecx, DWORD PTR _tmpPT$188150[ebp+4]
  00b29	2b 88 a8 00 00
	00		 sub	 ecx, DWORD PTR [eax+168]
  00b2f	89 4d e0	 mov	 DWORD PTR _diff$188151[ebp+4], ecx

; 145  : 
; 146  : 		CRect newRect;

  00b32	8d 4d c4	 lea	 ecx, DWORD PTR _newRect$188152[ebp]
  00b35	e8 00 00 00 00	 call	 ??0CRect@@QAE@XZ	; CRect::CRect

; 147  : 
; 148  : 		if( m_iDirection & DIRECTION_LEFT )

  00b3a	8b 55 fc	 mov	 edx, DWORD PTR _this$[ebp]
  00b3d	8b 82 9c 00 00
	00		 mov	 eax, DWORD PTR [edx+156]
  00b43	83 e0 01	 and	 eax, 1
  00b46	74 68		 je	 SHORT $L188153

; 149  : 		{
; 150  : 			newRect.left = m_rectStarResizing.left + diff.x;

  00b48	8b 4d fc	 mov	 ecx, DWORD PTR _this$[ebp]
  00b4b	8b 91 ac 00 00
	00		 mov	 edx, DWORD PTR [ecx+172]
  00b51	03 55 dc	 add	 edx, DWORD PTR _diff$188151[ebp]
  00b54	89 55 c4	 mov	 DWORD PTR _newRect$188152[ebp], edx

; 151  : 			newRect.right = m_rectStarResizing.right;

  00b57	8b 45 fc	 mov	 eax, DWORD PTR _this$[ebp]
  00b5a	8b 88 b4 00 00
	00		 mov	 ecx, DWORD PTR [eax+180]
  00b60	89 4d cc	 mov	 DWORD PTR _newRect$188152[ebp+8], ecx

; 152  : 			newRect.bottom = m_rectStarResizing.bottom;

  00b63	8b 55 fc	 mov	 edx, DWORD PTR _this$[ebp]
  00b66	8b 82 b8 00 00
	00		 mov	 eax, DWORD PTR [edx+184]
  00b6c	89 45 d0	 mov	 DWORD PTR _newRect$188152[ebp+12], eax

; 153  : 			newRect.top = m_rectStarResizing.top;

  00b6f	8b 4d fc	 mov	 ecx, DWORD PTR _this$[ebp]
  00b72	8b 91 b0 00 00
	00		 mov	 edx, DWORD PTR [ecx+176]
  00b78	89 55 c8	 mov	 DWORD PTR _newRect$188152[ebp+4], edx

; 154  : 
; 155  : 			if( m_iDirection & DIRECTION_TOP )

  00b7b	8b 45 fc	 mov	 eax, DWORD PTR _this$[ebp]
  00b7e	8b 88 9c 00 00
	00		 mov	 ecx, DWORD PTR [eax+156]
  00b84	83 e1 04	 and	 ecx, 4
  00b87	74 0b		 je	 SHORT $L188154

; 156  : 			{
; 157  : 				newRect.top += diff.y;

  00b89	8b 55 c8	 mov	 edx, DWORD PTR _newRect$188152[ebp+4]
  00b8c	03 55 e0	 add	 edx, DWORD PTR _diff$188151[ebp+4]
  00b8f	89 55 c8	 mov	 DWORD PTR _newRect$188152[ebp+4], edx

; 158  : 			}
; 159  : 			else if( m_iDirection & DIRECTION_BOTTOM )

  00b92	eb 17		 jmp	 SHORT $L188155
$L188154:
  00b94	8b 45 fc	 mov	 eax, DWORD PTR _this$[ebp]
  00b97	8b 88 9c 00 00
	00		 mov	 ecx, DWORD PTR [eax+156]
  00b9d	83 e1 08	 and	 ecx, 8
  00ba0	74 09		 je	 SHORT $L188155

; 160  : 			{
; 161  : 				newRect.bottom += diff.y;

  00ba2	8b 55 d0	 mov	 edx, DWORD PTR _newRect$188152[ebp+12]
  00ba5	03 55 e0	 add	 edx, DWORD PTR _diff$188151[ebp+4]
  00ba8	89 55 d0	 mov	 DWORD PTR _newRect$188152[ebp+12], edx
$L188155:

; 162  : 			}				
; 163  : 		}
; 164  : 		else if( m_iDirection & DIRECTION_RIGHT )

  00bab	e9 78 01 00 00	 jmp	 $L188157
$L188153:
  00bb0	8b 45 fc	 mov	 eax, DWORD PTR _this$[ebp]
  00bb3	8b 88 9c 00 00
	00		 mov	 ecx, DWORD PTR [eax+156]
  00bb9	83 e1 02	 and	 ecx, 2
  00bbc	74 68		 je	 SHORT $L188158

; 165  : 		{		
; 166  : 			newRect.left = m_rectStarResizing.left;

  00bbe	8b 55 fc	 mov	 edx, DWORD PTR _this$[ebp]
  00bc1	8b 82 ac 00 00
	00		 mov	 eax, DWORD PTR [edx+172]
  00bc7	89 45 c4	 mov	 DWORD PTR _newRect$188152[ebp], eax

; 167  : 			newRect.right = m_rectStarResizing.right + diff.x;

  00bca	8b 4d fc	 mov	 ecx, DWORD PTR _this$[ebp]
  00bcd	8b 91 b4 00 00
	00		 mov	 edx, DWORD PTR [ecx+180]
  00bd3	03 55 dc	 add	 edx, DWORD PTR _diff$188151[ebp]
  00bd6	89 55 cc	 mov	 DWORD PTR _newRect$188152[ebp+8], edx

; 168  : 			newRect.bottom = m_rectStarResizing.bottom;

  00bd9	8b 45 fc	 mov	 eax, DWORD PTR _this$[ebp]
  00bdc	8b 88 b8 00 00
	00		 mov	 ecx, DWORD PTR [eax+184]
  00be2	89 4d d0	 mov	 DWORD PTR _newRect$188152[ebp+12], ecx

; 169  : 			newRect.top = m_rectStarResizing.top;

  00be5	8b 55 fc	 mov	 edx, DWORD PTR _this$[ebp]
  00be8	8b 82 b0 00 00
	00		 mov	 eax, DWORD PTR [edx+176]
  00bee	89 45 c8	 mov	 DWORD PTR _newRect$188152[ebp+4], eax

; 170  : 
; 171  : 			if( m_iDirection & DIRECTION_TOP )

  00bf1	8b 4d fc	 mov	 ecx, DWORD PTR _this$[ebp]
  00bf4	8b 91 9c 00 00
	00		 mov	 edx, DWORD PTR [ecx+156]
  00bfa	83 e2 04	 and	 edx, 4
  00bfd	74 0b		 je	 SHORT $L188159

; 172  : 			{
; 173  : 				newRect.top += diff.y;

  00bff	8b 45 c8	 mov	 eax, DWORD PTR _newRect$188152[ebp+4]
  00c02	03 45 e0	 add	 eax, DWORD PTR _diff$188151[ebp+4]
  00c05	89 45 c8	 mov	 DWORD PTR _newRect$188152[ebp+4], eax

; 174  : 			}
; 175  : 			else if( m_iDirection & DIRECTION_BOTTOM )

  00c08	eb 17		 jmp	 SHORT $L188160
$L188159:
  00c0a	8b 4d fc	 mov	 ecx, DWORD PTR _this$[ebp]
  00c0d	8b 91 9c 00 00
	00		 mov	 edx, DWORD PTR [ecx+156]
  00c13	83 e2 08	 and	 edx, 8
  00c16	74 09		 je	 SHORT $L188160

; 176  : 			{
; 177  : 				newRect.bottom += diff.y;

  00c18	8b 45 d0	 mov	 eax, DWORD PTR _newRect$188152[ebp+12]
  00c1b	03 45 e0	 add	 eax, DWORD PTR _diff$188151[ebp+4]
  00c1e	89 45 d0	 mov	 DWORD PTR _newRect$188152[ebp+12], eax
$L188160:

; 178  : 			}		
; 179  : 		}
; 180  : 		else if( m_iDirection & DIRECTION_TOP )

  00c21	e9 02 01 00 00	 jmp	 $L188157
$L188158:
  00c26	8b 4d fc	 mov	 ecx, DWORD PTR _this$[ebp]
  00c29	8b 91 9c 00 00
	00		 mov	 edx, DWORD PTR [ecx+156]
  00c2f	83 e2 04	 and	 edx, 4
  00c32	74 68		 je	 SHORT $L188163

; 181  : 		{
; 182  : 			newRect.left = m_rectStarResizing.left;

  00c34	8b 45 fc	 mov	 eax, DWORD PTR _this$[ebp]
  00c37	8b 88 ac 00 00
	00		 mov	 ecx, DWORD PTR [eax+172]
  00c3d	89 4d c4	 mov	 DWORD PTR _newRect$188152[ebp], ecx

; 183  : 			newRect.right = m_rectStarResizing.right;

  00c40	8b 55 fc	 mov	 edx, DWORD PTR _this$[ebp]
  00c43	8b 82 b4 00 00
	00		 mov	 eax, DWORD PTR [edx+180]
  00c49	89 45 cc	 mov	 DWORD PTR _newRect$188152[ebp+8], eax

; 184  : 			newRect.bottom = m_rectStarResizing.bottom;

  00c4c	8b 4d fc	 mov	 ecx, DWORD PTR _this$[ebp]
  00c4f	8b 91 b8 00 00
	00		 mov	 edx, DWORD PTR [ecx+184]
  00c55	89 55 d0	 mov	 DWORD PTR _newRect$188152[ebp+12], edx

; 185  : 			newRect.top = m_rectStarResizing.top + diff.y;

  00c58	8b 45 fc	 mov	 eax, DWORD PTR _this$[ebp]
  00c5b	8b 88 b0 00 00
	00		 mov	 ecx, DWORD PTR [eax+176]
  00c61	03 4d e0	 add	 ecx, DWORD PTR _diff$188151[ebp+4]
  00c64	89 4d c8	 mov	 DWORD PTR _newRect$188152[ebp+4], ecx

; 186  : 
; 187  : 			if( m_iDirection & DIRECTION_LEFT )

  00c67	8b 55 fc	 mov	 edx, DWORD PTR _this$[ebp]
  00c6a	8b 82 9c 00 00
	00		 mov	 eax, DWORD PTR [edx+156]
  00c70	83 e0 01	 and	 eax, 1
  00c73	74 0b		 je	 SHORT $L188164

; 188  : 			{
; 189  : 				newRect.left += diff.x;

  00c75	8b 4d c4	 mov	 ecx, DWORD PTR _newRect$188152[ebp]
  00c78	03 4d dc	 add	 ecx, DWORD PTR _diff$188151[ebp]
  00c7b	89 4d c4	 mov	 DWORD PTR _newRect$188152[ebp], ecx

; 190  : 			}
; 191  : 			else if( m_iDirection & DIRECTION_RIGHT )

  00c7e	eb 17		 jmp	 SHORT $L188165
$L188164:
  00c80	8b 55 fc	 mov	 edx, DWORD PTR _this$[ebp]
  00c83	8b 82 9c 00 00
	00		 mov	 eax, DWORD PTR [edx+156]
  00c89	83 e0 02	 and	 eax, 2
  00c8c	74 09		 je	 SHORT $L188165

; 192  : 			{
; 193  : 				newRect.right += diff.x;

  00c8e	8b 4d cc	 mov	 ecx, DWORD PTR _newRect$188152[ebp+8]
  00c91	03 4d dc	 add	 ecx, DWORD PTR _diff$188151[ebp]
  00c94	89 4d cc	 mov	 DWORD PTR _newRect$188152[ebp+8], ecx
$L188165:

; 194  : 			}				
; 195  : 		}
; 196  : 		else if( m_iDirection & DIRECTION_BOTTOM )

  00c97	e9 8c 00 00 00	 jmp	 $L188157
$L188163:
  00c9c	8b 55 fc	 mov	 edx, DWORD PTR _this$[ebp]
  00c9f	8b 82 9c 00 00
	00		 mov	 eax, DWORD PTR [edx+156]
  00ca5	83 e0 08	 and	 eax, 8
  00ca8	74 65		 je	 SHORT $L188168

; 197  : 		{
; 198  : 			newRect.left = m_rectStarResizing.left;

  00caa	8b 4d fc	 mov	 ecx, DWORD PTR _this$[ebp]
  00cad	8b 91 ac 00 00
	00		 mov	 edx, DWORD PTR [ecx+172]
  00cb3	89 55 c4	 mov	 DWORD PTR _newRect$188152[ebp], edx

; 199  : 			newRect.right = m_rectStarResizing.right;

  00cb6	8b 45 fc	 mov	 eax, DWORD PTR _this$[ebp]
  00cb9	8b 88 b4 00 00
	00		 mov	 ecx, DWORD PTR [eax+180]
  00cbf	89 4d cc	 mov	 DWORD PTR _newRect$188152[ebp+8], ecx

; 200  : 			newRect.bottom = m_rectStarResizing.bottom + diff.y;

  00cc2	8b 55 fc	 mov	 edx, DWORD PTR _this$[ebp]
  00cc5	8b 82 b8 00 00
	00		 mov	 eax, DWORD PTR [edx+184]
  00ccb	03 45 e0	 add	 eax, DWORD PTR _diff$188151[ebp+4]
  00cce	89 45 d0	 mov	 DWORD PTR _newRect$188152[ebp+12], eax

; 201  : 			newRect.top = m_rectStarResizing.top;

  00cd1	8b 4d fc	 mov	 ecx, DWORD PTR _this$[ebp]
  00cd4	8b 91 b0 00 00
	00		 mov	 edx, DWORD PTR [ecx+176]
  00cda	89 55 c8	 mov	 DWORD PTR _newRect$188152[ebp+4], edx

; 202  : 
; 203  : 			if( m_iDirection & DIRECTION_LEFT )

  00cdd	8b 45 fc	 mov	 eax, DWORD PTR _this$[ebp]
  00ce0	8b 88 9c 00 00
	00		 mov	 ecx, DWORD PTR [eax+156]
  00ce6	83 e1 01	 and	 ecx, 1
  00ce9	74 0b		 je	 SHORT $L188169

; 204  : 			{
; 205  : 				newRect.left += diff.x;

  00ceb	8b 55 c4	 mov	 edx, DWORD PTR _newRect$188152[ebp]
  00cee	03 55 dc	 add	 edx, DWORD PTR _diff$188151[ebp]
  00cf1	89 55 c4	 mov	 DWORD PTR _newRect$188152[ebp], edx

; 206  : 			}
; 207  : 			else if( m_iDirection & DIRECTION_RIGHT )

  00cf4	eb 17		 jmp	 SHORT $L188170
$L188169:
  00cf6	8b 45 fc	 mov	 eax, DWORD PTR _this$[ebp]
  00cf9	8b 88 9c 00 00
	00		 mov	 ecx, DWORD PTR [eax+156]
  00cff	83 e1 02	 and	 ecx, 2
  00d02	74 09		 je	 SHORT $L188170

; 208  : 			{
; 209  : 				newRect.right += diff.x;

  00d04	8b 55 cc	 mov	 edx, DWORD PTR _newRect$188152[ebp+8]
  00d07	03 55 dc	 add	 edx, DWORD PTR _diff$188151[ebp]
  00d0a	89 55 cc	 mov	 DWORD PTR _newRect$188152[ebp+8], edx
$L188170:

; 210  : 			}			
; 211  : 		}
; 212  : 		else

  00d0d	eb 19		 jmp	 SHORT $L188157
$L188168:

; 213  : 		{
; 214  : 			__super::OnMouseMove( nFlags,point );

  00d0f	8b 45 10	 mov	 eax, DWORD PTR _point$[ebp+4]
  00d12	50		 push	 eax
  00d13	8b 4d 0c	 mov	 ecx, DWORD PTR _point$[ebp]
  00d16	51		 push	 ecx
  00d17	8b 55 08	 mov	 edx, DWORD PTR _nFlags$[ebp]
  00d1a	52		 push	 edx
  00d1b	8b 4d fc	 mov	 ecx, DWORD PTR _this$[ebp]
  00d1e	e8 00 00 00 00	 call	 ?OnMouseMove@CWnd@@IAEXIVCPoint@@@Z ; CWnd::OnMouseMove

; 215  : 			return;

  00d23	e9 0d 01 00 00	 jmp	 $L188139
$L188157:

; 216  : 		}
; 217  : 
; 218  : 		if(newRect.Width() < m_nMinCx)

  00d28	8d 4d c4	 lea	 ecx, DWORD PTR _newRect$188152[ebp]
  00d2b	e8 00 00 00 00	 call	 ?Width@CRect@@QBEHXZ	; CRect::Width
  00d30	8b 4d fc	 mov	 ecx, DWORD PTR _this$[ebp]
  00d33	3b 81 08 01 00
	00		 cmp	 eax, DWORD PTR [ecx+264]
  00d39	7d 2e		 jge	 SHORT $L188173

; 219  : 		{
; 220  : 			if(m_iDirection & DIRECTION_RIGHT)

  00d3b	8b 55 fc	 mov	 edx, DWORD PTR _this$[ebp]
  00d3e	8b 82 9c 00 00
	00		 mov	 eax, DWORD PTR [edx+156]
  00d44	83 e0 02	 and	 eax, 2
  00d47	74 11		 je	 SHORT $L188174

; 221  : 				newRect.right = newRect.left + m_nMinCx;

  00d49	8b 4d fc	 mov	 ecx, DWORD PTR _this$[ebp]
  00d4c	8b 55 c4	 mov	 edx, DWORD PTR _newRect$188152[ebp]
  00d4f	03 91 08 01 00
	00		 add	 edx, DWORD PTR [ecx+264]
  00d55	89 55 cc	 mov	 DWORD PTR _newRect$188152[ebp+8], edx

; 222  : 			else

  00d58	eb 0f		 jmp	 SHORT $L188173
$L188174:

; 223  : 				newRect.left = newRect.right - m_nMinCx;

  00d5a	8b 45 fc	 mov	 eax, DWORD PTR _this$[ebp]
  00d5d	8b 4d cc	 mov	 ecx, DWORD PTR _newRect$188152[ebp+8]
  00d60	2b 88 08 01 00
	00		 sub	 ecx, DWORD PTR [eax+264]
  00d66	89 4d c4	 mov	 DWORD PTR _newRect$188152[ebp], ecx
$L188173:

; 224  : 		}
; 225  : 		if(newRect.Height() < m_nMinCy)

  00d69	8d 4d c4	 lea	 ecx, DWORD PTR _newRect$188152[ebp]
  00d6c	e8 00 00 00 00	 call	 ?Height@CRect@@QBEHXZ	; CRect::Height
  00d71	8b 55 fc	 mov	 edx, DWORD PTR _this$[ebp]
  00d74	3b 82 0c 01 00
	00		 cmp	 eax, DWORD PTR [edx+268]
  00d7a	7d 2e		 jge	 SHORT $L188176

; 226  : 		{
; 227  : 			if(m_iDirection & DIRECTION_BOTTOM)

  00d7c	8b 45 fc	 mov	 eax, DWORD PTR _this$[ebp]
  00d7f	8b 88 9c 00 00
	00		 mov	 ecx, DWORD PTR [eax+156]
  00d85	83 e1 08	 and	 ecx, 8
  00d88	74 11		 je	 SHORT $L188177

; 228  : 				newRect.bottom = newRect.top + m_nMinCy;

  00d8a	8b 55 fc	 mov	 edx, DWORD PTR _this$[ebp]
  00d8d	8b 45 c8	 mov	 eax, DWORD PTR _newRect$188152[ebp+4]
  00d90	03 82 0c 01 00
	00		 add	 eax, DWORD PTR [edx+268]
  00d96	89 45 d0	 mov	 DWORD PTR _newRect$188152[ebp+12], eax

; 229  : 			else

  00d99	eb 0f		 jmp	 SHORT $L188176
$L188177:

; 230  : 				newRect.top = newRect.bottom - m_nMinCy;

  00d9b	8b 4d fc	 mov	 ecx, DWORD PTR _this$[ebp]
  00d9e	8b 55 d0	 mov	 edx, DWORD PTR _newRect$188152[ebp+12]
  00da1	2b 91 0c 01 00
	00		 sub	 edx, DWORD PTR [ecx+268]
  00da7	89 55 c8	 mov	 DWORD PTR _newRect$188152[ebp+4], edx
$L188176:

; 231  : 		}
; 232  : 		DrawMoveFrame(m_rcMain);

  00daa	8b 45 fc	 mov	 eax, DWORD PTR _this$[ebp]
  00dad	05 bc 00 00 00	 add	 eax, 188		; 000000bcH
  00db2	83 ec 10	 sub	 esp, 16			; 00000010H
  00db5	8b cc		 mov	 ecx, esp
  00db7	8b 10		 mov	 edx, DWORD PTR [eax]
  00db9	89 11		 mov	 DWORD PTR [ecx], edx
  00dbb	8b 50 04	 mov	 edx, DWORD PTR [eax+4]
  00dbe	89 51 04	 mov	 DWORD PTR [ecx+4], edx
  00dc1	8b 50 08	 mov	 edx, DWORD PTR [eax+8]
  00dc4	89 51 08	 mov	 DWORD PTR [ecx+8], edx
  00dc7	8b 40 0c	 mov	 eax, DWORD PTR [eax+12]
  00dca	89 41 0c	 mov	 DWORD PTR [ecx+12], eax
  00dcd	8b 4d fc	 mov	 ecx, DWORD PTR _this$[ebp]
  00dd0	e8 00 00 00 00	 call	 ?DrawMoveFrame@CHostWnd@@IAEXVCRect@@@Z ; CHostWnd::DrawMoveFrame

; 233  : 		m_rcMain = newRect;

  00dd5	8b 4d fc	 mov	 ecx, DWORD PTR _this$[ebp]
  00dd8	81 c1 bc 00 00
	00		 add	 ecx, 188		; 000000bcH
  00dde	8b 55 c4	 mov	 edx, DWORD PTR _newRect$188152[ebp]
  00de1	89 11		 mov	 DWORD PTR [ecx], edx
  00de3	8b 45 c8	 mov	 eax, DWORD PTR _newRect$188152[ebp+4]
  00de6	89 41 04	 mov	 DWORD PTR [ecx+4], eax
  00de9	8b 55 cc	 mov	 edx, DWORD PTR _newRect$188152[ebp+8]
  00dec	89 51 08	 mov	 DWORD PTR [ecx+8], edx
  00def	8b 45 d0	 mov	 eax, DWORD PTR _newRect$188152[ebp+12]
  00df2	89 41 0c	 mov	 DWORD PTR [ecx+12], eax

; 234  : 		DrawMoveFrame(m_rcMain);

  00df5	8b 4d fc	 mov	 ecx, DWORD PTR _this$[ebp]
  00df8	81 c1 bc 00 00
	00		 add	 ecx, 188		; 000000bcH
  00dfe	83 ec 10	 sub	 esp, 16			; 00000010H
  00e01	8b d4		 mov	 edx, esp
  00e03	8b 01		 mov	 eax, DWORD PTR [ecx]
  00e05	89 02		 mov	 DWORD PTR [edx], eax
  00e07	8b 41 04	 mov	 eax, DWORD PTR [ecx+4]
  00e0a	89 42 04	 mov	 DWORD PTR [edx+4], eax
  00e0d	8b 41 08	 mov	 eax, DWORD PTR [ecx+8]
  00e10	89 42 08	 mov	 DWORD PTR [edx+8], eax
  00e13	8b 49 0c	 mov	 ecx, DWORD PTR [ecx+12]
  00e16	89 4a 0c	 mov	 DWORD PTR [edx+12], ecx
  00e19	8b 4d fc	 mov	 ecx, DWORD PTR _this$[ebp]
  00e1c	e8 00 00 00 00	 call	 ?DrawMoveFrame@CHostWnd@@IAEXVCRect@@@Z ; CHostWnd::DrawMoveFrame
$L188149:

; 235  : 
; 236  : 	}
; 237  : 	__super::OnMouseMove( nFlags,point );

  00e21	8b 55 10	 mov	 edx, DWORD PTR _point$[ebp+4]
  00e24	52		 push	 edx
  00e25	8b 45 0c	 mov	 eax, DWORD PTR _point$[ebp]
  00e28	50		 push	 eax
  00e29	8b 4d 08	 mov	 ecx, DWORD PTR _nFlags$[ebp]
  00e2c	51		 push	 ecx
  00e2d	8b 4d fc	 mov	 ecx, DWORD PTR _this$[ebp]
  00e30	e8 00 00 00 00	 call	 ?OnMouseMove@CWnd@@IAEXIVCPoint@@@Z ; CWnd::OnMouseMove
$L188139:

; 238  : 
; 239  : }

  00e35	52		 push	 edx
  00e36	8b cd		 mov	 ecx, ebp
  00e38	50		 push	 eax
  00e39	8d 15 00 00 00
	00		 lea	 edx, DWORD PTR $L188922
  00e3f	e8 00 00 00 00	 call	 @_RTC_CheckStackVars@8
  00e44	58		 pop	 eax
  00e45	5a		 pop	 edx
  00e46	5f		 pop	 edi
  00e47	5e		 pop	 esi
  00e48	83 c4 40	 add	 esp, 64			; 00000040H
  00e4b	3b ec		 cmp	 ebp, esp
  00e4d	e8 00 00 00 00	 call	 __RTC_CheckEsp
  00e52	8b e5		 mov	 esp, ebp
  00e54	5d		 pop	 ebp
  00e55	c2 0c 00	 ret	 12			; 0000000cH
$L188922:
  00e58	03 00 00 00	 DD	 3
  00e5c	00 00 00 00	 DD	 $L188921
$L188921:
  00e60	ec ff ff ff	 DD	 -20			; ffffffecH
  00e64	08 00 00 00	 DD	 8
  00e68	00 00 00 00	 DD	 $L188918
  00e6c	dc ff ff ff	 DD	 -36			; ffffffdcH
  00e70	08 00 00 00	 DD	 8
  00e74	00 00 00 00	 DD	 $L188919
  00e78	c4 ff ff ff	 DD	 -60			; ffffffc4H
  00e7c	10 00 00 00	 DD	 16			; 00000010H
  00e80	00 00 00 00	 DD	 $L188920
$L188920:
  00e84	6e		 DB	 110			; 0000006eH
  00e85	65		 DB	 101			; 00000065H
  00e86	77		 DB	 119			; 00000077H
  00e87	52		 DB	 82			; 00000052H
  00e88	65		 DB	 101			; 00000065H
  00e89	63		 DB	 99			; 00000063H
  00e8a	74		 DB	 116			; 00000074H
  00e8b	00		 DB	 0
$L188919:
  00e8c	64		 DB	 100			; 00000064H
  00e8d	69		 DB	 105			; 00000069H
  00e8e	66		 DB	 102			; 00000066H
  00e8f	66		 DB	 102			; 00000066H
  00e90	00		 DB	 0
$L188918:
  00e91	74		 DB	 116			; 00000074H
  00e92	6d		 DB	 109			; 0000006dH
  00e93	70		 DB	 112			; 00000070H
  00e94	50		 DB	 80			; 00000050H
  00e95	54		 DB	 84			; 00000054H
  00e96	00		 DB	 0
?OnMouseMove@CHostWnd@@IAEXIVCPoint@@@Z ENDP		; CHostWnd::OnMouseMove
_TEXT	ENDS
EXTRN	??0CPaintDC@@QAE@PAVCWnd@@@Z:NEAR		; CPaintDC::CPaintDC
EXTRN	??1CPaintDC@@UAE@XZ:NEAR			; CPaintDC::~CPaintDC
EXTRN	___security_cookie:DWORD
EXTRN	@__security_check_cookie@4:NEAR
xdata$x	SEGMENT
$T188935 DD	0ffffffffH
	DD	FLAT:$L188925
$T188927 DD	019930520H
	DD	01H
	DD	FLAT:$T188935
	DD	2 DUP(00H)
	DD	2 DUP(00H)
; Function compile flags: /Odt /RTCsu
xdata$x	ENDS
_TEXT	SEGMENT
tv81 = -120						; size = 4
tv76 = -116						; size = 4
_dc$ = -108						; size = 84
_this$ = -20						; size = 4
__$ArrayPad$ = -16					; size = 4
__$EHRec$ = -12						; size = 12
__$ReturnAddr$ = 4					; size = 4
?OnPaint@CHostWnd@@IAEXXZ PROC NEAR			; CHostWnd::OnPaint
; _this$ = ecx

; 242  : {

  00ea0	55		 push	 ebp
  00ea1	8b ec		 mov	 ebp, esp
  00ea3	6a ff		 push	 -1
  00ea5	68 00 00 00 00	 push	 __ehhandler$?OnPaint@CHostWnd@@IAEXXZ
  00eaa	64 a1 00 00 00
	00		 mov	 eax, DWORD PTR fs:__except_list
  00eb0	50		 push	 eax
  00eb1	64 89 25 00 00
	00 00		 mov	 DWORD PTR fs:__except_list, esp
  00eb8	83 ec 6c	 sub	 esp, 108		; 0000006cH
  00ebb	56		 push	 esi
  00ebc	57		 push	 edi
  00ebd	51		 push	 ecx
  00ebe	8d 7d 88	 lea	 edi, DWORD PTR [ebp-120]
  00ec1	b9 1b 00 00 00	 mov	 ecx, 27			; 0000001bH
  00ec6	b8 cc cc cc cc	 mov	 eax, -858993460		; ccccccccH
  00ecb	f3 ab		 rep stosd
  00ecd	59		 pop	 ecx
  00ece	a1 00 00 00 00	 mov	 eax, DWORD PTR ___security_cookie
  00ed3	89 45 f0	 mov	 DWORD PTR __$ArrayPad$[ebp], eax
  00ed6	89 4d ec	 mov	 DWORD PTR _this$[ebp], ecx

; 243  : 	CPaintDC dc(this);

  00ed9	8b 45 ec	 mov	 eax, DWORD PTR _this$[ebp]
  00edc	50		 push	 eax
  00edd	8d 4d 94	 lea	 ecx, DWORD PTR _dc$[ebp]
  00ee0	e8 00 00 00 00	 call	 ??0CPaintDC@@QAE@PAVCWnd@@@Z ; CPaintDC::CPaintDC
  00ee5	c7 45 fc 00 00
	00 00		 mov	 DWORD PTR __$EHRec$[ebp+8], 0

; 244  : 	//if(this->m_isMainWnd)
; 245  : 	//	dc.TextOut(20,20,"THE MAIN WINDOW");
; 246  : 	//CRect rc;
; 247  : 	//this->GetClientRect(&rc);
; 248  : 	//dc.FillSolidRect(&rc, RGB(100,100,100));
; 249  : 	//dc.Draw3dRect(&rc, RGB(222,111,111), RGB(111,55,55));
; 250  : 	if(m_strContent != "")

  00eec	68 00 00 00 00	 push	 OFFSET FLAT:$SG188184
  00ef1	8b 4d ec	 mov	 ecx, DWORD PTR _this$[ebp]
  00ef4	81 c1 04 01 00
	00		 add	 ecx, 260		; 00000104H
  00efa	51		 push	 ecx
  00efb	e8 00 00 00 00	 call	 ??9ATL@@YA_NABV?$CStringT@DV?$StrTraitMFC_DLL@DV?$ChTraitsCRT@D@ATL@@@@@0@PBD@Z ; ATL::operator!=
  00f00	83 c4 08	 add	 esp, 8
  00f03	0f b6 d0	 movzx	 edx, al
  00f06	85 d2		 test	 edx, edx
  00f08	74 40		 je	 SHORT $L188183

; 251  : 		AfxGetUIManager()->UIGetLayoutMgr()->PaintBkGround( m_hWnd,&dc,true );

  00f0a	e8 00 00 00 00	 call	 ?AfxGetUIManager@@YAPAVIUIManager@@XZ ; AfxGetUIManager
  00f0f	89 45 8c	 mov	 DWORD PTR tv76[ebp], eax
  00f12	8b f4		 mov	 esi, esp
  00f14	8b 45 8c	 mov	 eax, DWORD PTR tv76[ebp]
  00f17	8b 10		 mov	 edx, DWORD PTR [eax]
  00f19	8b 4d 8c	 mov	 ecx, DWORD PTR tv76[ebp]
  00f1c	ff 52 24	 call	 DWORD PTR [edx+36]
  00f1f	3b f4		 cmp	 esi, esp
  00f21	e8 00 00 00 00	 call	 __RTC_CheckEsp
  00f26	89 45 88	 mov	 DWORD PTR tv81[ebp], eax
  00f29	8b f4		 mov	 esi, esp
  00f2b	6a 01		 push	 1
  00f2d	8d 45 94	 lea	 eax, DWORD PTR _dc$[ebp]
  00f30	50		 push	 eax
  00f31	8b 4d ec	 mov	 ecx, DWORD PTR _this$[ebp]
  00f34	8b 51 20	 mov	 edx, DWORD PTR [ecx+32]
  00f37	52		 push	 edx
  00f38	8b 45 88	 mov	 eax, DWORD PTR tv81[ebp]
  00f3b	8b 10		 mov	 edx, DWORD PTR [eax]
  00f3d	8b 4d 88	 mov	 ecx, DWORD PTR tv81[ebp]
  00f40	ff 52 5c	 call	 DWORD PTR [edx+92]
  00f43	3b f4		 cmp	 esi, esp
  00f45	e8 00 00 00 00	 call	 __RTC_CheckEsp
$L188183:

; 252  : }

  00f4a	c7 45 fc ff ff
	ff ff		 mov	 DWORD PTR __$EHRec$[ebp+8], -1
  00f51	8d 4d 94	 lea	 ecx, DWORD PTR _dc$[ebp]
  00f54	e8 00 00 00 00	 call	 ??1CPaintDC@@UAE@XZ	; CPaintDC::~CPaintDC
  00f59	52		 push	 edx
  00f5a	8b cd		 mov	 ecx, ebp
  00f5c	50		 push	 eax
  00f5d	8d 15 00 00 00
	00		 lea	 edx, DWORD PTR $L188933
  00f63	e8 00 00 00 00	 call	 @_RTC_CheckStackVars@8
  00f68	58		 pop	 eax
  00f69	5a		 pop	 edx
  00f6a	8b 4d f4	 mov	 ecx, DWORD PTR __$EHRec$[ebp]
  00f6d	64 89 0d 00 00
	00 00		 mov	 DWORD PTR fs:__except_list, ecx
  00f74	8b 4d f0	 mov	 ecx, DWORD PTR __$ArrayPad$[ebp]
  00f77	e8 00 00 00 00	 call	 @__security_check_cookie@4
  00f7c	5f		 pop	 edi
  00f7d	5e		 pop	 esi
  00f7e	83 c4 78	 add	 esp, 120		; 00000078H
  00f81	3b ec		 cmp	 ebp, esp
  00f83	e8 00 00 00 00	 call	 __RTC_CheckEsp
  00f88	8b e5		 mov	 esp, ebp
  00f8a	5d		 pop	 ebp
  00f8b	c3		 ret	 0
$L188933:
  00f8c	01 00 00 00	 DD	 1
  00f90	00 00 00 00	 DD	 $L188932
$L188932:
  00f94	94 ff ff ff	 DD	 -108			; ffffff94H
  00f98	54 00 00 00	 DD	 84			; 00000054H
  00f9c	00 00 00 00	 DD	 $L188928
$L188928:
  00fa0	64		 DB	 100			; 00000064H
  00fa1	63		 DB	 99			; 00000063H
  00fa2	00		 DB	 0
_TEXT	ENDS
text$x	SEGMENT
$L188925:
  0014a	8d 4d 94	 lea	 ecx, DWORD PTR _dc$[ebp]
  0014d	e9 00 00 00 00	 jmp	 ??1CPaintDC@@UAE@XZ	; CPaintDC::~CPaintDC
__ehhandler$?OnPaint@CHostWnd@@IAEXXZ:
  00152	b8 00 00 00 00	 mov	 eax, OFFSET FLAT:$T188927
  00157	e9 00 00 00 00	 jmp	 ___CxxFrameHandler
text$x	ENDS
?OnPaint@CHostWnd@@IAEXXZ ENDP				; CHostWnd::OnPaint
PUBLIC	?MoveContentWindow@CHostWnd@@IAEXXZ		; CHostWnd::MoveContentWindow
EXTRN	?OnSize@CWnd@@IAEXIHH@Z:NEAR			; CWnd::OnSize
EXTRN	__imp__SetWindowRgn@12:NEAR
EXTRN	?GetDC@CWnd@@QAEPAVCDC@@XZ:NEAR			; CWnd::GetDC
EXTRN	?ReleaseDC@CWnd@@QAEHPAVCDC@@@Z:NEAR		; CWnd::ReleaseDC
EXTRN	?RedrawWindow@CWnd@@QAEHPBUtagRECT@@PAVCRgn@@I@Z:NEAR ; CWnd::RedrawWindow
EXTRN	__imp__GetTickCount@0:NEAR
; Function compile flags: /Odt /RTCsu
_TEXT	SEGMENT
tv155 = -44						; size = 4
tv150 = -40						; size = 4
tv137 = -36						; size = 4
tv132 = -32						; size = 4
tv85 = -28						; size = 4
tv80 = -24						; size = 4
tv70 = -20						; size = 4
_hrgn$188194 = -16					; size = 4
_dc$188193 = -12					; size = 4
_count$188192 = -8					; size = 4
_this$ = -4						; size = 4
_nType$ = 8						; size = 4
_cx$ = 12						; size = 4
_cy$ = 16						; size = 4
?OnSize@CHostWnd@@IAEXIHH@Z PROC NEAR			; CHostWnd::OnSize
; _this$ = ecx

; 255  : {

  00fb0	55		 push	 ebp
  00fb1	8b ec		 mov	 ebp, esp
  00fb3	83 ec 2c	 sub	 esp, 44			; 0000002cH
  00fb6	56		 push	 esi
  00fb7	57		 push	 edi
  00fb8	51		 push	 ecx
  00fb9	8d 7d d4	 lea	 edi, DWORD PTR [ebp-44]
  00fbc	b9 0b 00 00 00	 mov	 ecx, 11			; 0000000bH
  00fc1	b8 cc cc cc cc	 mov	 eax, -858993460		; ccccccccH
  00fc6	f3 ab		 rep stosd
  00fc8	59		 pop	 ecx
  00fc9	89 4d fc	 mov	 DWORD PTR _this$[ebp], ecx

; 256  : 	__super::OnSize(nType, cx,cy);

  00fcc	8b 45 10	 mov	 eax, DWORD PTR _cy$[ebp]
  00fcf	50		 push	 eax
  00fd0	8b 4d 0c	 mov	 ecx, DWORD PTR _cx$[ebp]
  00fd3	51		 push	 ecx
  00fd4	8b 55 08	 mov	 edx, DWORD PTR _nType$[ebp]
  00fd7	52		 push	 edx
  00fd8	8b 4d fc	 mov	 ecx, DWORD PTR _this$[ebp]
  00fdb	e8 00 00 00 00	 call	 ?OnSize@CWnd@@IAEXIHH@Z	; CWnd::OnSize

; 257  : 
; 258  : 	if( AfxGetUIManager()->UIGetLayoutMgr() != NULL )

  00fe0	e8 00 00 00 00	 call	 ?AfxGetUIManager@@YAPAVIUIManager@@XZ ; AfxGetUIManager
  00fe5	89 45 ec	 mov	 DWORD PTR tv70[ebp], eax
  00fe8	8b 45 ec	 mov	 eax, DWORD PTR tv70[ebp]
  00feb	8b 10		 mov	 edx, DWORD PTR [eax]
  00fed	8b f4		 mov	 esi, esp
  00fef	8b 4d ec	 mov	 ecx, DWORD PTR tv70[ebp]
  00ff2	ff 52 24	 call	 DWORD PTR [edx+36]
  00ff5	3b f4		 cmp	 esi, esp
  00ff7	e8 00 00 00 00	 call	 __RTC_CheckEsp
  00ffc	85 c0		 test	 eax, eax
  00ffe	0f 84 c1 00 00
	00		 je	 $L188191

; 259  : 	{
; 260  : 		DWORD count = ::GetTickCount();

  01004	8b f4		 mov	 esi, esp
  01006	ff 15 00 00 00
	00		 call	 DWORD PTR __imp__GetTickCount@0
  0100c	3b f4		 cmp	 esi, esp
  0100e	e8 00 00 00 00	 call	 __RTC_CheckEsp
  01013	89 45 f8	 mov	 DWORD PTR _count$188192[ebp], eax

; 261  : 		CDC* dc = GetDC();

  01016	8b 4d fc	 mov	 ecx, DWORD PTR _this$[ebp]
  01019	e8 00 00 00 00	 call	 ?GetDC@CWnd@@QAEPAVCDC@@XZ ; CWnd::GetDC
  0101e	89 45 f4	 mov	 DWORD PTR _dc$188193[ebp], eax

; 262  : 		HRGN hrgn = AfxGetUIManager()->UIGetSkinMgr()->GetFrameRGN(cx, cy , dc);

  01021	e8 00 00 00 00	 call	 ?AfxGetUIManager@@YAPAVIUIManager@@XZ ; AfxGetUIManager
  01026	89 45 e8	 mov	 DWORD PTR tv80[ebp], eax
  01029	8b f4		 mov	 esi, esp
  0102b	8b 45 e8	 mov	 eax, DWORD PTR tv80[ebp]
  0102e	8b 10		 mov	 edx, DWORD PTR [eax]
  01030	8b 4d e8	 mov	 ecx, DWORD PTR tv80[ebp]
  01033	ff 52 28	 call	 DWORD PTR [edx+40]
  01036	3b f4		 cmp	 esi, esp
  01038	e8 00 00 00 00	 call	 __RTC_CheckEsp
  0103d	89 45 e4	 mov	 DWORD PTR tv85[ebp], eax
  01040	8b f4		 mov	 esi, esp
  01042	8b 45 f4	 mov	 eax, DWORD PTR _dc$188193[ebp]
  01045	50		 push	 eax
  01046	8b 4d 10	 mov	 ecx, DWORD PTR _cy$[ebp]
  01049	51		 push	 ecx
  0104a	8b 55 0c	 mov	 edx, DWORD PTR _cx$[ebp]
  0104d	52		 push	 edx
  0104e	8b 45 e4	 mov	 eax, DWORD PTR tv85[ebp]
  01051	8b 10		 mov	 edx, DWORD PTR [eax]
  01053	8b 4d e4	 mov	 ecx, DWORD PTR tv85[ebp]
  01056	ff 52 1c	 call	 DWORD PTR [edx+28]
  01059	3b f4		 cmp	 esi, esp
  0105b	e8 00 00 00 00	 call	 __RTC_CheckEsp
  01060	89 45 f0	 mov	 DWORD PTR _hrgn$188194[ebp], eax

; 263  : 		ReleaseDC(dc);

  01063	8b 45 f4	 mov	 eax, DWORD PTR _dc$188193[ebp]
  01066	50		 push	 eax
  01067	8b 4d fc	 mov	 ecx, DWORD PTR _this$[ebp]
  0106a	e8 00 00 00 00	 call	 ?ReleaseDC@CWnd@@QAEHPAVCDC@@@Z ; CWnd::ReleaseDC

; 264  : 		::SetWindowRgn(m_hWnd, hrgn, true);

  0106f	8b f4		 mov	 esi, esp
  01071	6a 01		 push	 1
  01073	8b 4d f0	 mov	 ecx, DWORD PTR _hrgn$188194[ebp]
  01076	51		 push	 ecx
  01077	8b 55 fc	 mov	 edx, DWORD PTR _this$[ebp]
  0107a	8b 42 20	 mov	 eax, DWORD PTR [edx+32]
  0107d	50		 push	 eax
  0107e	ff 15 00 00 00
	00		 call	 DWORD PTR __imp__SetWindowRgn@12
  01084	3b f4		 cmp	 esi, esp
  01086	e8 00 00 00 00	 call	 __RTC_CheckEsp

; 265  : 		AfxGetUIManager()->UIGetLayoutMgr()->UpdateLayout(this->m_hWnd);

  0108b	e8 00 00 00 00	 call	 ?AfxGetUIManager@@YAPAVIUIManager@@XZ ; AfxGetUIManager
  01090	89 45 e0	 mov	 DWORD PTR tv132[ebp], eax
  01093	8b f4		 mov	 esi, esp
  01095	8b 4d e0	 mov	 ecx, DWORD PTR tv132[ebp]
  01098	8b 11		 mov	 edx, DWORD PTR [ecx]
  0109a	8b 4d e0	 mov	 ecx, DWORD PTR tv132[ebp]
  0109d	ff 52 24	 call	 DWORD PTR [edx+36]
  010a0	3b f4		 cmp	 esi, esp
  010a2	e8 00 00 00 00	 call	 __RTC_CheckEsp
  010a7	89 45 dc	 mov	 DWORD PTR tv137[ebp], eax
  010aa	8b f4		 mov	 esi, esp
  010ac	8b 45 fc	 mov	 eax, DWORD PTR _this$[ebp]
  010af	8b 48 20	 mov	 ecx, DWORD PTR [eax+32]
  010b2	51		 push	 ecx
  010b3	8b 55 dc	 mov	 edx, DWORD PTR tv137[ebp]
  010b6	8b 02		 mov	 eax, DWORD PTR [edx]
  010b8	8b 4d dc	 mov	 ecx, DWORD PTR tv137[ebp]
  010bb	ff 50 14	 call	 DWORD PTR [eax+20]
  010be	3b f4		 cmp	 esi, esp
  010c0	e8 00 00 00 00	 call	 __RTC_CheckEsp
$L188191:

; 266  : 	}
; 267  : 
; 268  : 	if(m_strContent != "")

  010c5	68 00 00 00 00	 push	 OFFSET FLAT:$SG188196
  010ca	8b 4d fc	 mov	 ecx, DWORD PTR _this$[ebp]
  010cd	81 c1 04 01 00
	00		 add	 ecx, 260		; 00000104H
  010d3	51		 push	 ecx
  010d4	e8 00 00 00 00	 call	 ??9ATL@@YA_NABV?$CStringT@DV?$StrTraitMFC_DLL@DV?$ChTraitsCRT@D@ATL@@@@@0@PBD@Z ; ATL::operator!=
  010d9	83 c4 08	 add	 esp, 8
  010dc	0f b6 d0	 movzx	 edx, al
  010df	85 d2		 test	 edx, edx
  010e1	74 3c		 je	 SHORT $L188195

; 269  : 		AfxGetUIManager()->UIGetLayoutMgr()->UpdateLayout( m_hWnd );

  010e3	e8 00 00 00 00	 call	 ?AfxGetUIManager@@YAPAVIUIManager@@XZ ; AfxGetUIManager
  010e8	89 45 d8	 mov	 DWORD PTR tv150[ebp], eax
  010eb	8b f4		 mov	 esi, esp
  010ed	8b 45 d8	 mov	 eax, DWORD PTR tv150[ebp]
  010f0	8b 10		 mov	 edx, DWORD PTR [eax]
  010f2	8b 4d d8	 mov	 ecx, DWORD PTR tv150[ebp]
  010f5	ff 52 24	 call	 DWORD PTR [edx+36]
  010f8	3b f4		 cmp	 esi, esp
  010fa	e8 00 00 00 00	 call	 __RTC_CheckEsp
  010ff	89 45 d4	 mov	 DWORD PTR tv155[ebp], eax
  01102	8b f4		 mov	 esi, esp
  01104	8b 45 fc	 mov	 eax, DWORD PTR _this$[ebp]
  01107	8b 48 20	 mov	 ecx, DWORD PTR [eax+32]
  0110a	51		 push	 ecx
  0110b	8b 55 d4	 mov	 edx, DWORD PTR tv155[ebp]
  0110e	8b 02		 mov	 eax, DWORD PTR [edx]
  01110	8b 4d d4	 mov	 ecx, DWORD PTR tv155[ebp]
  01113	ff 50 14	 call	 DWORD PTR [eax+20]
  01116	3b f4		 cmp	 esi, esp
  01118	e8 00 00 00 00	 call	 __RTC_CheckEsp

; 270  : 	else

  0111d	eb 08		 jmp	 SHORT $L188197
$L188195:

; 271  : 		MoveContentWindow();

  0111f	8b 4d fc	 mov	 ecx, DWORD PTR _this$[ebp]
  01122	e8 00 00 00 00	 call	 ?MoveContentWindow@CHostWnd@@IAEXXZ ; CHostWnd::MoveContentWindow
$L188197:

; 272  : 
; 273  : 	RedrawWindow(NULL, NULL, RDW_INVALIDATE | RDW_UPDATENOW | RDW_ERASE | RDW_ALLCHILDREN);

  01127	68 85 01 00 00	 push	 389			; 00000185H
  0112c	6a 00		 push	 0
  0112e	6a 00		 push	 0
  01130	8b 4d fc	 mov	 ecx, DWORD PTR _this$[ebp]
  01133	e8 00 00 00 00	 call	 ?RedrawWindow@CWnd@@QAEHPBUtagRECT@@PAVCRgn@@I@Z ; CWnd::RedrawWindow

; 274  : }

  01138	5f		 pop	 edi
  01139	5e		 pop	 esi
  0113a	83 c4 2c	 add	 esp, 44			; 0000002cH
  0113d	3b ec		 cmp	 ebp, esp
  0113f	e8 00 00 00 00	 call	 __RTC_CheckEsp
  01144	8b e5		 mov	 esp, ebp
  01146	5d		 pop	 ebp
  01147	c2 0c 00	 ret	 12			; 0000000cH
?OnSize@CHostWnd@@IAEXIHH@Z ENDP			; CHostWnd::OnSize
; Function compile flags: /Odt /RTCsu
_this$ = -4						; size = 4
?OnBnClickedOk@CHostWnd@@IAEXXZ PROC NEAR		; CHostWnd::OnBnClickedOk
; _this$ = ecx

; 277  : {

  01150	55		 push	 ebp
  01151	8b ec		 mov	 ebp, esp
  01153	51		 push	 ecx
  01154	56		 push	 esi
  01155	c7 45 fc cc cc
	cc cc		 mov	 DWORD PTR [ebp-4], -858993460 ; ccccccccH
  0115c	89 4d fc	 mov	 DWORD PTR _this$[ebp], ecx

; 278  : 	OnOK();

  0115f	8b 45 fc	 mov	 eax, DWORD PTR _this$[ebp]
  01162	8b 10		 mov	 edx, DWORD PTR [eax]
  01164	8b f4		 mov	 esi, esp
  01166	8b 4d fc	 mov	 ecx, DWORD PTR _this$[ebp]
  01169	ff 92 54 01 00
	00		 call	 DWORD PTR [edx+340]
  0116f	3b f4		 cmp	 esi, esp
  01171	e8 00 00 00 00	 call	 __RTC_CheckEsp

; 279  : }

  01176	5e		 pop	 esi
  01177	83 c4 04	 add	 esp, 4
  0117a	3b ec		 cmp	 ebp, esp
  0117c	e8 00 00 00 00	 call	 __RTC_CheckEsp
  01181	8b e5		 mov	 esp, ebp
  01183	5d		 pop	 ebp
  01184	c3		 ret	 0
?OnBnClickedOk@CHostWnd@@IAEXXZ ENDP			; CHostWnd::OnBnClickedOk
; Function compile flags: /Odt /RTCsu
_this$ = -4						; size = 4
_pDC$ = 8						; size = 4
?OnEraseBkgnd@CHostWnd@@IAEHPAVCDC@@@Z PROC NEAR	; CHostWnd::OnEraseBkgnd
; _this$ = ecx

; 282  : {

  01190	55		 push	 ebp
  01191	8b ec		 mov	 ebp, esp
  01193	51		 push	 ecx
  01194	c7 45 fc cc cc
	cc cc		 mov	 DWORD PTR [ebp-4], -858993460 ; ccccccccH
  0119b	89 4d fc	 mov	 DWORD PTR _this$[ebp], ecx

; 283  : 	// TODO: Add your message handler code here and/or call default
; 284  : 	return true;

  0119e	b8 01 00 00 00	 mov	 eax, 1

; 285  : 	return CDialog::OnEraseBkgnd(pDC);
; 286  : }

  011a3	83 c4 04	 add	 esp, 4
  011a6	3b ec		 cmp	 ebp, esp
  011a8	e8 00 00 00 00	 call	 __RTC_CheckEsp
  011ad	8b e5		 mov	 esp, ebp
  011af	5d		 pop	 ebp
  011b0	c2 04 00	 ret	 4
?OnEraseBkgnd@CHostWnd@@IAEHPAVCDC@@@Z ENDP		; CHostWnd::OnEraseBkgnd
_TEXT	ENDS
EXTRN	?ScreenToClient@CWnd@@QBEXPAUtagRECT@@@Z:NEAR	; CWnd::ScreenToClient
EXTRN	?ShowWindow@CWnd@@QAEHH@Z:NEAR			; CWnd::ShowWindow
; Function compile flags: /Odt /RTCsu
_TEXT	SEGMENT
_rc$ = -24						; size = 16
_this$ = -4						; size = 4
?MoveContentWindow@CHostWnd@@IAEXXZ PROC NEAR		; CHostWnd::MoveContentWindow
; _this$ = ecx

; 288  : {

  011c0	55		 push	 ebp
  011c1	8b ec		 mov	 ebp, esp
  011c3	83 ec 1c	 sub	 esp, 28			; 0000001cH
  011c6	b8 cc cc cc cc	 mov	 eax, -858993460		; ccccccccH
  011cb	89 45 e4	 mov	 DWORD PTR [ebp-28], eax
  011ce	89 45 e8	 mov	 DWORD PTR [ebp-24], eax
  011d1	89 45 ec	 mov	 DWORD PTR [ebp-20], eax
  011d4	89 45 f0	 mov	 DWORD PTR [ebp-16], eax
  011d7	89 45 f4	 mov	 DWORD PTR [ebp-12], eax
  011da	89 45 f8	 mov	 DWORD PTR [ebp-8], eax
  011dd	89 45 fc	 mov	 DWORD PTR [ebp-4], eax
  011e0	89 4d fc	 mov	 DWORD PTR _this$[ebp], ecx

; 289  : 	CRect rc;

  011e3	8d 4d e8	 lea	 ecx, DWORD PTR _rc$[ebp]
  011e6	e8 00 00 00 00	 call	 ??0CRect@@QAE@XZ	; CRect::CRect

; 290  : 	if(m_pWnd == NULL)

  011eb	8b 45 fc	 mov	 eax, DWORD PTR _this$[ebp]
  011ee	83 b8 88 00 00
	00 00		 cmp	 DWORD PTR [eax+136], 0
  011f5	75 02		 jne	 SHORT $L188209

; 291  : 		return;

  011f7	eb 78		 jmp	 SHORT $L188207
$L188209:

; 292  : 
; 293  : 	this->GetWindowRect(&rc);

  011f9	8d 4d e8	 lea	 ecx, DWORD PTR _rc$[ebp]
  011fc	51		 push	 ecx
  011fd	8b 4d fc	 mov	 ecx, DWORD PTR _this$[ebp]
  01200	e8 00 00 00 00	 call	 ?GetWindowRect@CWnd@@QBEXPAUtagRECT@@@Z ; CWnd::GetWindowRect

; 294  : 	rc.left += m_nL;

  01205	8b 55 fc	 mov	 edx, DWORD PTR _this$[ebp]
  01208	8b 45 e8	 mov	 eax, DWORD PTR _rc$[ebp]
  0120b	03 82 8c 00 00
	00		 add	 eax, DWORD PTR [edx+140]
  01211	89 45 e8	 mov	 DWORD PTR _rc$[ebp], eax

; 295  : 	rc.top += m_nT;

  01214	8b 4d fc	 mov	 ecx, DWORD PTR _this$[ebp]
  01217	8b 55 ec	 mov	 edx, DWORD PTR _rc$[ebp+4]
  0121a	03 91 94 00 00
	00		 add	 edx, DWORD PTR [ecx+148]
  01220	89 55 ec	 mov	 DWORD PTR _rc$[ebp+4], edx

; 296  : 	rc.right -= m_nR;

  01223	8b 45 fc	 mov	 eax, DWORD PTR _this$[ebp]
  01226	8b 4d f0	 mov	 ecx, DWORD PTR _rc$[ebp+8]
  01229	2b 88 90 00 00
	00		 sub	 ecx, DWORD PTR [eax+144]
  0122f	89 4d f0	 mov	 DWORD PTR _rc$[ebp+8], ecx

; 297  : 	rc.bottom -= m_nB;

  01232	8b 55 fc	 mov	 edx, DWORD PTR _this$[ebp]
  01235	8b 45 f4	 mov	 eax, DWORD PTR _rc$[ebp+12]
  01238	2b 82 98 00 00
	00		 sub	 eax, DWORD PTR [edx+152]
  0123e	89 45 f4	 mov	 DWORD PTR _rc$[ebp+12], eax

; 298  : 	ScreenToClient(&rc);

  01241	8d 4d e8	 lea	 ecx, DWORD PTR _rc$[ebp]
  01244	51		 push	 ecx
  01245	8b 4d fc	 mov	 ecx, DWORD PTR _this$[ebp]
  01248	e8 00 00 00 00	 call	 ?ScreenToClient@CWnd@@QBEXPAUtagRECT@@@Z ; CWnd::ScreenToClient

; 299  : 	m_pWnd->MoveWindow(&rc, true);

  0124d	6a 01		 push	 1
  0124f	8d 55 e8	 lea	 edx, DWORD PTR _rc$[ebp]
  01252	52		 push	 edx
  01253	8b 45 fc	 mov	 eax, DWORD PTR _this$[ebp]
  01256	8b 88 88 00 00
	00		 mov	 ecx, DWORD PTR [eax+136]
  0125c	e8 00 00 00 00	 call	 ?MoveWindow@CWnd@@QAEXPBUtagRECT@@H@Z ; CWnd::MoveWindow

; 300  : 	m_pWnd->ShowWindow(SW_SHOW);

  01261	6a 05		 push	 5
  01263	8b 4d fc	 mov	 ecx, DWORD PTR _this$[ebp]
  01266	8b 89 88 00 00
	00		 mov	 ecx, DWORD PTR [ecx+136]
  0126c	e8 00 00 00 00	 call	 ?ShowWindow@CWnd@@QAEHH@Z ; CWnd::ShowWindow
$L188207:

; 301  : }

  01271	52		 push	 edx
  01272	8b cd		 mov	 ecx, ebp
  01274	50		 push	 eax
  01275	8d 15 00 00 00
	00		 lea	 edx, DWORD PTR $L188942
  0127b	e8 00 00 00 00	 call	 @_RTC_CheckStackVars@8
  01280	58		 pop	 eax
  01281	5a		 pop	 edx
  01282	83 c4 1c	 add	 esp, 28			; 0000001cH
  01285	3b ec		 cmp	 ebp, esp
  01287	e8 00 00 00 00	 call	 __RTC_CheckEsp
  0128c	8b e5		 mov	 esp, ebp
  0128e	5d		 pop	 ebp
  0128f	c3		 ret	 0
$L188942:
  01290	01 00 00 00	 DD	 1
  01294	00 00 00 00	 DD	 $L188941
$L188941:
  01298	e8 ff ff ff	 DD	 -24			; ffffffe8H
  0129c	10 00 00 00	 DD	 16			; 00000010H
  012a0	00 00 00 00	 DD	 $L188940
$L188940:
  012a4	72		 DB	 114			; 00000072H
  012a5	63		 DB	 99			; 00000063H
  012a6	00		 DB	 0
?MoveContentWindow@CHostWnd@@IAEXXZ ENDP		; CHostWnd::MoveContentWindow
_TEXT	ENDS
PUBLIC	?InterlockedExchangePointer@@YGPAXPAPAXPAX@Z	; InterlockedExchangePointer
PUBLIC	?_AtlGetThreadACPFake@ATL@@YGIXZ		; ATL::_AtlGetThreadACPFake
PUBLIC	?_AtlGetThreadACPReal@ATL@@YGIXZ		; ATL::_AtlGetThreadACPReal
EXTRN	__imp__GetVersionExA@4:NEAR
; Function compile flags: /Odt /RTCsu
; File d:\program files (x86)\microsoft visual studio .net 2003\vc7\atlmfc\include\atlconv.h
;	COMDAT ?_AtlGetThreadACPThunk@ATL@@YGIXZ
_TEXT	SEGMENT
_pfnGetThreadACP$ = -164				; size = 4
_ver$ = -156						; size = 148
__$ArrayPad$ = -4					; size = 4
__$ReturnAddr$ = 4					; size = 4
?_AtlGetThreadACPThunk@ATL@@YGIXZ PROC NEAR		; ATL::_AtlGetThreadACPThunk, COMDAT

; 134  : {

  00000	55		 push	 ebp
  00001	8b ec		 mov	 ebp, esp
  00003	81 ec a4 00 00
	00		 sub	 esp, 164		; 000000a4H
  00009	56		 push	 esi
  0000a	57		 push	 edi
  0000b	8d bd 5c ff ff
	ff		 lea	 edi, DWORD PTR [ebp-164]
  00011	b9 29 00 00 00	 mov	 ecx, 41			; 00000029H
  00016	b8 cc cc cc cc	 mov	 eax, -858993460		; ccccccccH
  0001b	f3 ab		 rep stosd
  0001d	a1 00 00 00 00	 mov	 eax, DWORD PTR ___security_cookie
  00022	89 45 fc	 mov	 DWORD PTR __$ArrayPad$[ebp], eax

; 135  : 	OSVERSIONINFO ver;
; 136  : 	ATLGETTHREADACP pfnGetThreadACP;
; 137  : 
; 138  : 	ver.dwOSVersionInfoSize = sizeof( ver );

  00025	c7 85 64 ff ff
	ff 94 00 00 00	 mov	 DWORD PTR _ver$[ebp], 148 ; 00000094H

; 139  : 	::GetVersionEx( &ver );

  0002f	8b f4		 mov	 esi, esp
  00031	8d 85 64 ff ff
	ff		 lea	 eax, DWORD PTR _ver$[ebp]
  00037	50		 push	 eax
  00038	ff 15 00 00 00
	00		 call	 DWORD PTR __imp__GetVersionExA@4
  0003e	3b f4		 cmp	 esi, esp
  00040	e8 00 00 00 00	 call	 __RTC_CheckEsp

; 140  : 	if( (ver.dwPlatformId == VER_PLATFORM_WIN32_NT) && (ver.dwMajorVersion >= 5) )

  00045	83 bd 74 ff ff
	ff 02		 cmp	 DWORD PTR _ver$[ebp+16], 2
  0004c	75 15		 jne	 SHORT $L24163
  0004e	83 bd 68 ff ff
	ff 05		 cmp	 DWORD PTR _ver$[ebp+4], 5
  00055	72 0c		 jb	 SHORT $L24163

; 141  : 	{
; 142  : 		// On Win2K, CP_THREAD_ACP is supported
; 143  : 		pfnGetThreadACP = _AtlGetThreadACPReal;

  00057	c7 85 5c ff ff
	ff 00 00 00 00	 mov	 DWORD PTR _pfnGetThreadACP$[ebp], OFFSET FLAT:?_AtlGetThreadACPReal@ATL@@YGIXZ ; ATL::_AtlGetThreadACPReal

; 144  : 	}
; 145  : 	else

  00061	eb 0a		 jmp	 SHORT $L24164
$L24163:

; 146  : 	{
; 147  : 		pfnGetThreadACP = _AtlGetThreadACPFake;

  00063	c7 85 5c ff ff
	ff 00 00 00 00	 mov	 DWORD PTR _pfnGetThreadACP$[ebp], OFFSET FLAT:?_AtlGetThreadACPFake@ATL@@YGIXZ ; ATL::_AtlGetThreadACPFake
$L24164:

; 148  : 	}
; 149  : 	InterlockedExchangePointer( reinterpret_cast< void** >(&g_pfnGetThreadACP), pfnGetThreadACP );

  0006d	8b 8d 5c ff ff
	ff		 mov	 ecx, DWORD PTR _pfnGetThreadACP$[ebp]
  00073	51		 push	 ecx
  00074	68 00 00 00 00	 push	 OFFSET FLAT:?g_pfnGetThreadACP@ATL@@3P6GIXZA ; ATL::g_pfnGetThreadACP
  00079	e8 00 00 00 00	 call	 ?InterlockedExchangePointer@@YGPAXPAPAXPAX@Z ; InterlockedExchangePointer

; 150  : 
; 151  : 	return( g_pfnGetThreadACP() );

  0007e	8b f4		 mov	 esi, esp
  00080	ff 15 00 00 00
	00		 call	 DWORD PTR ?g_pfnGetThreadACP@ATL@@3P6GIXZA ; ATL::g_pfnGetThreadACP
  00086	3b f4		 cmp	 esi, esp
  00088	e8 00 00 00 00	 call	 __RTC_CheckEsp

; 152  : }

  0008d	52		 push	 edx
  0008e	8b cd		 mov	 ecx, ebp
  00090	50		 push	 eax
  00091	8d 15 00 00 00
	00		 lea	 edx, DWORD PTR $L188948
  00097	e8 00 00 00 00	 call	 @_RTC_CheckStackVars@8
  0009c	58		 pop	 eax
  0009d	5a		 pop	 edx
  0009e	8b 4d fc	 mov	 ecx, DWORD PTR __$ArrayPad$[ebp]
  000a1	e8 00 00 00 00	 call	 @__security_check_cookie@4
  000a6	5f		 pop	 edi
  000a7	5e		 pop	 esi
  000a8	81 c4 a4 00 00
	00		 add	 esp, 164		; 000000a4H
  000ae	3b ec		 cmp	 ebp, esp
  000b0	e8 00 00 00 00	 call	 __RTC_CheckEsp
  000b5	8b e5		 mov	 esp, ebp
  000b7	5d		 pop	 ebp
  000b8	c3		 ret	 0
$L188948:
  000b9	01 00 00 00	 DD	 1
  000bd	00 00 00 00	 DD	 $L188947
$L188947:
  000c1	64 ff ff ff	 DD	 -156			; ffffff64H
  000c5	94 00 00 00	 DD	 148			; 00000094H
  000c9	00 00 00 00	 DD	 $L188945
$L188945:
  000cd	76		 DB	 118			; 00000076H
  000ce	65		 DB	 101			; 00000065H
  000cf	72		 DB	 114			; 00000072H
  000d0	00		 DB	 0
?_AtlGetThreadACPThunk@ATL@@YGIXZ ENDP			; ATL::_AtlGetThreadACPThunk
_TEXT	ENDS
EXTRN	__imp__InterlockedExchange@8:NEAR
; Function compile flags: /Odt /RTCsu
;	COMDAT ?InterlockedExchangePointer@@YGPAXPAPAXPAX@Z
_TEXT	SEGMENT
_pp$ = 8						; size = 4
_pNew$ = 12						; size = 4
?InterlockedExchangePointer@@YGPAXPAPAXPAX@Z PROC NEAR	; InterlockedExchangePointer, COMDAT

; 91   : {

  00000	55		 push	 ebp
  00001	8b ec		 mov	 ebp, esp
  00003	56		 push	 esi

; 92   : 	return( reinterpret_cast<void*>(static_cast<LONG_PTR>(::InterlockedExchange(reinterpret_cast<LONG*>(pp), static_cast<LONG>(reinterpret_cast<LONG_PTR>(pNew))))) );

  00004	8b f4		 mov	 esi, esp
  00006	8b 45 0c	 mov	 eax, DWORD PTR _pNew$[ebp]
  00009	50		 push	 eax
  0000a	8b 4d 08	 mov	 ecx, DWORD PTR _pp$[ebp]
  0000d	51		 push	 ecx
  0000e	ff 15 00 00 00
	00		 call	 DWORD PTR __imp__InterlockedExchange@8
  00014	3b f4		 cmp	 esi, esp
  00016	e8 00 00 00 00	 call	 __RTC_CheckEsp

; 93   : }

  0001b	5e		 pop	 esi
  0001c	3b ec		 cmp	 ebp, esp
  0001e	e8 00 00 00 00	 call	 __RTC_CheckEsp
  00023	5d		 pop	 ebp
  00024	c2 08 00	 ret	 8
?InterlockedExchangePointer@@YGPAXPAPAXPAX@Z ENDP	; InterlockedExchangePointer
_TEXT	ENDS
EXTRN	__imp__GetACP@0:NEAR
EXTRN	__imp__GetLocaleInfoA@16:NEAR
EXTRN	__imp__GetThreadLocale@0:NEAR
; Function compile flags: /Odt /RTCsu
;	COMDAT ?_AtlGetThreadACPFake@ATL@@YGIXZ
_TEXT	SEGMENT
_pch$24151 = -32					; size = 4
_szACP$ = -24						; size = 7
_lcidThread$ = -12					; size = 4
_nACP$ = -8						; size = 4
__$ArrayPad$ = -4					; size = 4
__$ReturnAddr$ = 4					; size = 4
?_AtlGetThreadACPFake@ATL@@YGIXZ PROC NEAR		; ATL::_AtlGetThreadACPFake, COMDAT

; 101  : {

  00000	55		 push	 ebp
  00001	8b ec		 mov	 ebp, esp
  00003	83 ec 20	 sub	 esp, 32			; 00000020H
  00006	56		 push	 esi
  00007	b8 cc cc cc cc	 mov	 eax, -858993460		; ccccccccH
  0000c	89 45 e0	 mov	 DWORD PTR [ebp-32], eax
  0000f	89 45 e4	 mov	 DWORD PTR [ebp-28], eax
  00012	89 45 e8	 mov	 DWORD PTR [ebp-24], eax
  00015	89 45 ec	 mov	 DWORD PTR [ebp-20], eax
  00018	89 45 f0	 mov	 DWORD PTR [ebp-16], eax
  0001b	89 45 f4	 mov	 DWORD PTR [ebp-12], eax
  0001e	89 45 f8	 mov	 DWORD PTR [ebp-8], eax
  00021	89 45 fc	 mov	 DWORD PTR [ebp-4], eax
  00024	a1 00 00 00 00	 mov	 eax, DWORD PTR ___security_cookie
  00029	89 45 fc	 mov	 DWORD PTR __$ArrayPad$[ebp], eax

; 102  : 	UINT nACP = 0;

  0002c	c7 45 f8 00 00
	00 00		 mov	 DWORD PTR _nACP$[ebp], 0

; 103  : 
; 104  : 	LCID lcidThread = ::GetThreadLocale();

  00033	8b f4		 mov	 esi, esp
  00035	ff 15 00 00 00
	00		 call	 DWORD PTR __imp__GetThreadLocale@0
  0003b	3b f4		 cmp	 esi, esp
  0003d	e8 00 00 00 00	 call	 __RTC_CheckEsp
  00042	89 45 f4	 mov	 DWORD PTR _lcidThread$[ebp], eax

; 105  : 
; 106  : 	char szACP[7];
; 107  : 	// GetLocaleInfoA will fail for a Unicode-only LCID, but those are only supported on 
; 108  : 	// Windows 2000.  Since Windows 2000 supports CP_THREAD_ACP, this code path is never
; 109  : 	// executed on Windows 2000.
; 110  : 	if (::GetLocaleInfoA(lcidThread, LOCALE_IDEFAULTANSICODEPAGE, szACP, 7) != 0)

  00045	8b f4		 mov	 esi, esp
  00047	6a 07		 push	 7
  00049	8d 45 e8	 lea	 eax, DWORD PTR _szACP$[ebp]
  0004c	50		 push	 eax
  0004d	68 04 10 00 00	 push	 4100			; 00001004H
  00052	8b 4d f4	 mov	 ecx, DWORD PTR _lcidThread$[ebp]
  00055	51		 push	 ecx
  00056	ff 15 00 00 00
	00		 call	 DWORD PTR __imp__GetLocaleInfoA@16
  0005c	3b f4		 cmp	 esi, esp
  0005e	e8 00 00 00 00	 call	 __RTC_CheckEsp
  00063	85 c0		 test	 eax, eax
  00065	74 34		 je	 SHORT $L24150

; 111  : 	{
; 112  : 		char* pch = szACP;

  00067	8d 55 e8	 lea	 edx, DWORD PTR _szACP$[ebp]
  0006a	89 55 e0	 mov	 DWORD PTR _pch$24151[ebp], edx
$L24153:

; 113  : 		while (*pch != '\0')

  0006d	8b 45 e0	 mov	 eax, DWORD PTR _pch$24151[ebp]
  00070	0f be 08	 movsx	 ecx, BYTE PTR [eax]
  00073	85 c9		 test	 ecx, ecx
  00075	74 24		 je	 SHORT $L24150

; 114  : 		{
; 115  : 			nACP *= 10;

  00077	8b 55 f8	 mov	 edx, DWORD PTR _nACP$[ebp]
  0007a	6b d2 0a	 imul	 edx, 10			; 0000000aH
  0007d	89 55 f8	 mov	 DWORD PTR _nACP$[ebp], edx

; 116  : 			nACP += *pch++ - '0';

  00080	8b 45 e0	 mov	 eax, DWORD PTR _pch$24151[ebp]
  00083	0f be 08	 movsx	 ecx, BYTE PTR [eax]
  00086	8b 55 f8	 mov	 edx, DWORD PTR _nACP$[ebp]
  00089	8d 44 0a d0	 lea	 eax, DWORD PTR [edx+ecx-48]
  0008d	89 45 f8	 mov	 DWORD PTR _nACP$[ebp], eax
  00090	8b 4d e0	 mov	 ecx, DWORD PTR _pch$24151[ebp]
  00093	83 c1 01	 add	 ecx, 1
  00096	89 4d e0	 mov	 DWORD PTR _pch$24151[ebp], ecx

; 117  : 		}

  00099	eb d2		 jmp	 SHORT $L24153
$L24150:

; 118  : 	}
; 119  : 	// Use the Default ANSI Code Page if we were unable to get the thread ACP or if one does not exist.
; 120  : 	if (nACP == 0)

  0009b	83 7d f8 00	 cmp	 DWORD PTR _nACP$[ebp], 0
  0009f	75 12		 jne	 SHORT $L24155

; 121  : 		nACP = ::GetACP();

  000a1	8b f4		 mov	 esi, esp
  000a3	ff 15 00 00 00
	00		 call	 DWORD PTR __imp__GetACP@0
  000a9	3b f4		 cmp	 esi, esp
  000ab	e8 00 00 00 00	 call	 __RTC_CheckEsp
  000b0	89 45 f8	 mov	 DWORD PTR _nACP$[ebp], eax
$L24155:

; 122  : 
; 123  : 	return nACP;

  000b3	8b 45 f8	 mov	 eax, DWORD PTR _nACP$[ebp]

; 124  : }

  000b6	52		 push	 edx
  000b7	8b cd		 mov	 ecx, ebp
  000b9	50		 push	 eax
  000ba	8d 15 00 00 00
	00		 lea	 edx, DWORD PTR $L188955
  000c0	e8 00 00 00 00	 call	 @_RTC_CheckStackVars@8
  000c5	58		 pop	 eax
  000c6	5a		 pop	 edx
  000c7	8b 4d fc	 mov	 ecx, DWORD PTR __$ArrayPad$[ebp]
  000ca	e8 00 00 00 00	 call	 @__security_check_cookie@4
  000cf	5e		 pop	 esi
  000d0	83 c4 20	 add	 esp, 32			; 00000020H
  000d3	3b ec		 cmp	 ebp, esp
  000d5	e8 00 00 00 00	 call	 __RTC_CheckEsp
  000da	8b e5		 mov	 esp, ebp
  000dc	5d		 pop	 ebp
  000dd	c3		 ret	 0
$L188955:
  000de	01 00 00 00	 DD	 1
  000e2	00 00 00 00	 DD	 $L188954
$L188954:
  000e6	e8 ff ff ff	 DD	 -24			; ffffffe8H
  000ea	07 00 00 00	 DD	 7
  000ee	00 00 00 00	 DD	 $L188952
$L188952:
  000f2	73		 DB	 115			; 00000073H
  000f3	7a		 DB	 122			; 0000007aH
  000f4	41		 DB	 65			; 00000041H
  000f5	43		 DB	 67			; 00000043H
  000f6	50		 DB	 80			; 00000050H
  000f7	00		 DB	 0
?_AtlGetThreadACPFake@ATL@@YGIXZ ENDP			; ATL::_AtlGetThreadACPFake
; Function compile flags: /Odt /RTCsu
_TEXT	ENDS
;	COMDAT ?_AtlGetThreadACPReal@ATL@@YGIXZ
_TEXT	SEGMENT
?_AtlGetThreadACPReal@ATL@@YGIXZ PROC NEAR		; ATL::_AtlGetThreadACPReal, COMDAT

; 127  : {

  00000	55		 push	 ebp
  00001	8b ec		 mov	 ebp, esp

; 128  : 	return( CP_THREAD_ACP );

  00003	b8 03 00 00 00	 mov	 eax, 3

; 129  : }

  00008	5d		 pop	 ebp
  00009	c3		 ret	 0
?_AtlGetThreadACPReal@ATL@@YGIXZ ENDP			; ATL::_AtlGetThreadACPReal
_TEXT	ENDS
PUBLIC	??8ATL@@YA_NABV?$CStringT@DV?$StrTraitMFC_DLL@DV?$ChTraitsCRT@D@ATL@@@@@0@PBD@Z ; ATL::operator==
PUBLIC	?HostWindow@CHostWnd@@QAEXPAVCWnd@@_N@Z		; CHostWnd::HostWindow
EXTRN	?GetParent@CWnd@@QBEPAV1@XZ:NEAR		; CWnd::GetParent
EXTRN	?SetParent@CWnd@@QAEPAV1@PAV1@@Z:NEAR		; CWnd::SetParent
; Function compile flags: /Odt /RTCsu
; File d:\boxgit\playbox\playbox\dev\prj\playbox\src\layoutmgr\seperatemode\hostwnd.cpp
_TEXT	SEGMENT
tv77 = -8						; size = 4
_this$ = -4						; size = 4
_pWnd$ = 8						; size = 4
_isMain$ = 12						; size = 1
?HostWindow@CHostWnd@@QAEXPAVCWnd@@_N@Z PROC NEAR	; CHostWnd::HostWindow
; _this$ = ecx

; 304  : {

  012b0	55		 push	 ebp
  012b1	8b ec		 mov	 ebp, esp
  012b3	83 ec 08	 sub	 esp, 8
  012b6	c7 45 f8 cc cc
	cc cc		 mov	 DWORD PTR [ebp-8], -858993460 ; ccccccccH
  012bd	c7 45 fc cc cc
	cc cc		 mov	 DWORD PTR [ebp-4], -858993460 ; ccccccccH
  012c4	89 4d fc	 mov	 DWORD PTR _this$[ebp], ecx

; 305  : 	if(m_strContent == "")

  012c7	68 00 00 00 00	 push	 OFFSET FLAT:$SG188216
  012cc	8b 45 fc	 mov	 eax, DWORD PTR _this$[ebp]
  012cf	05 04 01 00 00	 add	 eax, 260		; 00000104H
  012d4	50		 push	 eax
  012d5	e8 00 00 00 00	 call	 ??8ATL@@YA_NABV?$CStringT@DV?$StrTraitMFC_DLL@DV?$ChTraitsCRT@D@ATL@@@@@0@PBD@Z ; ATL::operator==
  012da	83 c4 08	 add	 esp, 8
  012dd	0f b6 c8	 movzx	 ecx, al
  012e0	85 c9		 test	 ecx, ecx
  012e2	74 4f		 je	 SHORT $L188214

; 306  : 	{
; 307  : 		m_hParentWnd = (pWnd->GetParent() == NULL)? NULL: pWnd->GetParent()->m_hWnd;

  012e4	8b 4d 08	 mov	 ecx, DWORD PTR _pWnd$[ebp]
  012e7	e8 00 00 00 00	 call	 ?GetParent@CWnd@@QBEPAV1@XZ ; CWnd::GetParent
  012ec	85 c0		 test	 eax, eax
  012ee	75 09		 jne	 SHORT $L188958
  012f0	c7 45 f8 00 00
	00 00		 mov	 DWORD PTR tv77[ebp], 0
  012f7	eb 0e		 jmp	 SHORT $L188959
$L188958:
  012f9	8b 4d 08	 mov	 ecx, DWORD PTR _pWnd$[ebp]
  012fc	e8 00 00 00 00	 call	 ?GetParent@CWnd@@QBEPAV1@XZ ; CWnd::GetParent
  01301	8b 50 20	 mov	 edx, DWORD PTR [eax+32]
  01304	89 55 f8	 mov	 DWORD PTR tv77[ebp], edx
$L188959:
  01307	8b 45 fc	 mov	 eax, DWORD PTR _this$[ebp]
  0130a	8b 4d f8	 mov	 ecx, DWORD PTR tv77[ebp]
  0130d	89 88 84 00 00
	00		 mov	 DWORD PTR [eax+132], ecx

; 308  : 		MoveContentWindow();

  01313	8b 4d fc	 mov	 ecx, DWORD PTR _this$[ebp]
  01316	e8 00 00 00 00	 call	 ?MoveContentWindow@CHostWnd@@IAEXXZ ; CHostWnd::MoveContentWindow

; 309  : 		m_pWnd = pWnd;

  0131b	8b 55 fc	 mov	 edx, DWORD PTR _this$[ebp]
  0131e	8b 45 08	 mov	 eax, DWORD PTR _pWnd$[ebp]
  01321	89 82 88 00 00
	00		 mov	 DWORD PTR [edx+136], eax

; 310  : 		pWnd->SetParent(this);

  01327	8b 4d fc	 mov	 ecx, DWORD PTR _this$[ebp]
  0132a	51		 push	 ecx
  0132b	8b 4d 08	 mov	 ecx, DWORD PTR _pWnd$[ebp]
  0132e	e8 00 00 00 00	 call	 ?SetParent@CWnd@@QAEPAV1@PAV1@@Z ; CWnd::SetParent
$L188214:

; 311  : 
; 312  : 	}
; 313  : }

  01333	83 c4 08	 add	 esp, 8
  01336	3b ec		 cmp	 ebp, esp
  01338	e8 00 00 00 00	 call	 __RTC_CheckEsp
  0133d	8b e5		 mov	 esp, ebp
  0133f	5d		 pop	 ebp
  01340	c2 08 00	 ret	 8
?HostWindow@CHostWnd@@QAEXPAVCWnd@@_N@Z ENDP		; CHostWnd::HostWindow
_TEXT	ENDS
PUBLIC	?DetachWindow@CHostWnd@@QAEXXZ			; CHostWnd::DetachWindow
; Function compile flags: /Odt /RTCsu
_TEXT	SEGMENT
_this$ = -4						; size = 4
?DetachWindow@CHostWnd@@QAEXXZ PROC NEAR		; CHostWnd::DetachWindow
; _this$ = ecx

; 316  : {

  01350	55		 push	 ebp
  01351	8b ec		 mov	 ebp, esp
  01353	51		 push	 ecx
  01354	56		 push	 esi
  01355	c7 45 fc cc cc
	cc cc		 mov	 DWORD PTR [ebp-4], -858993460 ; ccccccccH
  0135c	89 4d fc	 mov	 DWORD PTR _this$[ebp], ecx

; 317  : 	if(m_pWnd != NULL)

  0135f	8b 45 fc	 mov	 eax, DWORD PTR _this$[ebp]
  01362	83 b8 88 00 00
	00 00		 cmp	 DWORD PTR [eax+136], 0
  01369	74 26		 je	 SHORT $L188219

; 318  : 		::SetParent(m_pWnd->m_hWnd , m_hParentWnd);

  0136b	8b f4		 mov	 esi, esp
  0136d	8b 4d fc	 mov	 ecx, DWORD PTR _this$[ebp]
  01370	8b 91 84 00 00
	00		 mov	 edx, DWORD PTR [ecx+132]
  01376	52		 push	 edx
  01377	8b 45 fc	 mov	 eax, DWORD PTR _this$[ebp]
  0137a	8b 88 88 00 00
	00		 mov	 ecx, DWORD PTR [eax+136]
  01380	8b 51 20	 mov	 edx, DWORD PTR [ecx+32]
  01383	52		 push	 edx
  01384	ff 15 00 00 00
	00		 call	 DWORD PTR __imp__SetParent@8
  0138a	3b f4		 cmp	 esi, esp
  0138c	e8 00 00 00 00	 call	 __RTC_CheckEsp
$L188219:

; 319  : }

  01391	5e		 pop	 esi
  01392	83 c4 04	 add	 esp, 4
  01395	3b ec		 cmp	 ebp, esp
  01397	e8 00 00 00 00	 call	 __RTC_CheckEsp
  0139c	8b e5		 mov	 esp, ebp
  0139e	5d		 pop	 ebp
  0139f	c3		 ret	 0
?DetachWindow@CHostWnd@@QAEXXZ ENDP			; CHostWnd::DetachWindow
_TEXT	ENDS
EXTRN	__imp__GetWindowRect@8:NEAR
; Function compile flags: /Odt /RTCsu
_TEXT	SEGMENT
_m_hCursor$188265 = -60					; size = 4
_m_hCursor$188259 = -56					; size = 4
_m_hCursor$188254 = -52					; size = 4
_m_hCursor$188248 = -48					; size = 4
_m_hCursor$188243 = -44					; size = 4
_m_hCursor$188238 = -40					; size = 4
_m_hCursor$188233 = -36					; size = 4
_m_hCursor$188228 = -32					; size = 4
_fullRect$ = -24					; size = 16
_this$ = -4						; size = 4
_Pt$ = 8						; size = 4
?_needChangeCursor@CHostWnd@@MAE_NABVCPoint@@@Z PROC NEAR ; CHostWnd::_needChangeCursor
; _this$ = ecx

; 323  : {

  013a0	55		 push	 ebp
  013a1	8b ec		 mov	 ebp, esp
  013a3	83 ec 3c	 sub	 esp, 60			; 0000003cH
  013a6	56		 push	 esi
  013a7	57		 push	 edi
  013a8	51		 push	 ecx
  013a9	8d 7d c4	 lea	 edi, DWORD PTR [ebp-60]
  013ac	b9 0f 00 00 00	 mov	 ecx, 15			; 0000000fH
  013b1	b8 cc cc cc cc	 mov	 eax, -858993460		; ccccccccH
  013b6	f3 ab		 rep stosd
  013b8	59		 pop	 ecx
  013b9	89 4d fc	 mov	 DWORD PTR _this$[ebp], ecx

; 324  : 	RECT fullRect;
; 325  : 
; 326  : 	if(!m_bMovable)

  013bc	8b 45 fc	 mov	 eax, DWORD PTR _this$[ebp]
  013bf	83 78 7c 00	 cmp	 DWORD PTR [eax+124], 0
  013c3	75 07		 jne	 SHORT $L188226

; 327  : 		return false;

  013c5	32 c0		 xor	 al, al
  013c7	e9 8e 03 00 00	 jmp	 $L188224
$L188226:

; 328  : 
; 329  : 	::GetWindowRect(m_hWnd,&fullRect);//rect			

  013cc	8b f4		 mov	 esi, esp
  013ce	8d 4d e8	 lea	 ecx, DWORD PTR _fullRect$[ebp]
  013d1	51		 push	 ecx
  013d2	8b 55 fc	 mov	 edx, DWORD PTR _this$[ebp]
  013d5	8b 42 20	 mov	 eax, DWORD PTR [edx+32]
  013d8	50		 push	 eax
  013d9	ff 15 00 00 00
	00		 call	 DWORD PTR __imp__GetWindowRect@8
  013df	3b f4		 cmp	 esi, esp
  013e1	e8 00 00 00 00	 call	 __RTC_CheckEsp

; 330  : 
; 331  : 	// cursor 
; 332  : 	//  6*6 re_size
; 333  : 	if( (Pt.x >= 0 && Pt.x <= 8 ) && (Pt.y > fullRect.bottom - fullRect.top - 8) )

  013e6	8b 4d 08	 mov	 ecx, DWORD PTR _Pt$[ebp]
  013e9	83 39 00	 cmp	 DWORD PTR [ecx], 0
  013ec	7c 76		 jl	 SHORT $L188227
  013ee	8b 55 08	 mov	 edx, DWORD PTR _Pt$[ebp]
  013f1	83 3a 08	 cmp	 DWORD PTR [edx], 8
  013f4	7f 6e		 jg	 SHORT $L188227
  013f6	8b 45 f4	 mov	 eax, DWORD PTR _fullRect$[ebp+12]
  013f9	2b 45 ec	 sub	 eax, DWORD PTR _fullRect$[ebp+4]
  013fc	83 e8 08	 sub	 eax, 8
  013ff	8b 4d 08	 mov	 ecx, DWORD PTR _Pt$[ebp]
  01402	39 41 04	 cmp	 DWORD PTR [ecx+4], eax
  01405	7e 5d		 jle	 SHORT $L188227

; 334  : 	{
; 335  : 		//
; 336  : 		HCURSOR  m_hCursor = ::LoadCursor(NULL, IDC_SIZENESW);

  01407	8b f4		 mov	 esi, esp
  01409	68 83 7f 00 00	 push	 32643			; 00007f83H
  0140e	6a 00		 push	 0
  01410	ff 15 00 00 00
	00		 call	 DWORD PTR __imp__LoadCursorA@8
  01416	3b f4		 cmp	 esi, esp
  01418	e8 00 00 00 00	 call	 __RTC_CheckEsp
  0141d	89 45 e0	 mov	 DWORD PTR _m_hCursor$188228[ebp], eax

; 337  : 		::SetCursor(m_hCursor);

  01420	8b f4		 mov	 esi, esp
  01422	8b 55 e0	 mov	 edx, DWORD PTR _m_hCursor$188228[ebp]
  01425	52		 push	 edx
  01426	ff 15 00 00 00
	00		 call	 DWORD PTR __imp__SetCursor@4
  0142c	3b f4		 cmp	 esi, esp
  0142e	e8 00 00 00 00	 call	 __RTC_CheckEsp

; 338  : 		m_iDirection |= DIRECTION_LEFT;

  01433	8b 45 fc	 mov	 eax, DWORD PTR _this$[ebp]
  01436	8b 88 9c 00 00
	00		 mov	 ecx, DWORD PTR [eax+156]
  0143c	83 c9 01	 or	 ecx, 1
  0143f	8b 55 fc	 mov	 edx, DWORD PTR _this$[ebp]
  01442	89 8a 9c 00 00
	00		 mov	 DWORD PTR [edx+156], ecx

; 339  : 		m_iDirection |= DIRECTION_BOTTOM;

  01448	8b 45 fc	 mov	 eax, DWORD PTR _this$[ebp]
  0144b	8b 88 9c 00 00
	00		 mov	 ecx, DWORD PTR [eax+156]
  01451	83 c9 08	 or	 ecx, 8
  01454	8b 55 fc	 mov	 edx, DWORD PTR _this$[ebp]
  01457	89 8a 9c 00 00
	00		 mov	 DWORD PTR [edx+156], ecx

; 340  : 
; 341  : 		return TRUE;

  0145d	b0 01		 mov	 al, 1
  0145f	e9 f6 02 00 00	 jmp	 $L188224
$L188227:

; 342  : 	}
; 343  : 	//  6*6 re_size
; 344  : 	if( (Pt.x > fullRect.right - fullRect.left - 8) && (Pt.y > fullRect.bottom - fullRect.top - 8) )

  01464	8b 45 f0	 mov	 eax, DWORD PTR _fullRect$[ebp+8]
  01467	2b 45 e8	 sub	 eax, DWORD PTR _fullRect$[ebp]
  0146a	83 e8 08	 sub	 eax, 8
  0146d	8b 4d 08	 mov	 ecx, DWORD PTR _Pt$[ebp]
  01470	39 01		 cmp	 DWORD PTR [ecx], eax
  01472	7e 6e		 jle	 SHORT $L188232
  01474	8b 55 f4	 mov	 edx, DWORD PTR _fullRect$[ebp+12]
  01477	2b 55 ec	 sub	 edx, DWORD PTR _fullRect$[ebp+4]
  0147a	83 ea 08	 sub	 edx, 8
  0147d	8b 45 08	 mov	 eax, DWORD PTR _Pt$[ebp]
  01480	39 50 04	 cmp	 DWORD PTR [eax+4], edx
  01483	7e 5d		 jle	 SHORT $L188232

; 345  : 	{
; 346  : 		//
; 347  : 		HCURSOR  m_hCursor = ::LoadCursor(NULL, IDC_SIZENWSE);

  01485	8b f4		 mov	 esi, esp
  01487	68 82 7f 00 00	 push	 32642			; 00007f82H
  0148c	6a 00		 push	 0
  0148e	ff 15 00 00 00
	00		 call	 DWORD PTR __imp__LoadCursorA@8
  01494	3b f4		 cmp	 esi, esp
  01496	e8 00 00 00 00	 call	 __RTC_CheckEsp
  0149b	89 45 dc	 mov	 DWORD PTR _m_hCursor$188233[ebp], eax

; 348  : 		::SetCursor(m_hCursor);

  0149e	8b f4		 mov	 esi, esp
  014a0	8b 4d dc	 mov	 ecx, DWORD PTR _m_hCursor$188233[ebp]
  014a3	51		 push	 ecx
  014a4	ff 15 00 00 00
	00		 call	 DWORD PTR __imp__SetCursor@4
  014aa	3b f4		 cmp	 esi, esp
  014ac	e8 00 00 00 00	 call	 __RTC_CheckEsp

; 349  : 		m_iDirection |= DIRECTION_RIGHT;

  014b1	8b 55 fc	 mov	 edx, DWORD PTR _this$[ebp]
  014b4	8b 82 9c 00 00
	00		 mov	 eax, DWORD PTR [edx+156]
  014ba	83 c8 02	 or	 eax, 2
  014bd	8b 4d fc	 mov	 ecx, DWORD PTR _this$[ebp]
  014c0	89 81 9c 00 00
	00		 mov	 DWORD PTR [ecx+156], eax

; 350  : 		m_iDirection |= DIRECTION_BOTTOM;

  014c6	8b 55 fc	 mov	 edx, DWORD PTR _this$[ebp]
  014c9	8b 82 9c 00 00
	00		 mov	 eax, DWORD PTR [edx+156]
  014cf	83 c8 08	 or	 eax, 8
  014d2	8b 4d fc	 mov	 ecx, DWORD PTR _this$[ebp]
  014d5	89 81 9c 00 00
	00		 mov	 DWORD PTR [ecx+156], eax

; 351  : 
; 352  : 		return TRUE;

  014db	b0 01		 mov	 al, 1
  014dd	e9 78 02 00 00	 jmp	 $L188224
$L188232:

; 353  : 	}
; 354  : 	//  6*6 re_size
; 355  : 	if( (Pt.x >= 0 && Pt.x <= 4 ) && (Pt.y >= 0 && Pt.y <= 4) )

  014e2	8b 55 08	 mov	 edx, DWORD PTR _Pt$[ebp]
  014e5	83 3a 00	 cmp	 DWORD PTR [edx], 0
  014e8	7c 77		 jl	 SHORT $L188237
  014ea	8b 45 08	 mov	 eax, DWORD PTR _Pt$[ebp]
  014ed	83 38 04	 cmp	 DWORD PTR [eax], 4
  014f0	7f 6f		 jg	 SHORT $L188237
  014f2	8b 4d 08	 mov	 ecx, DWORD PTR _Pt$[ebp]
  014f5	83 79 04 00	 cmp	 DWORD PTR [ecx+4], 0
  014f9	7c 66		 jl	 SHORT $L188237
  014fb	8b 55 08	 mov	 edx, DWORD PTR _Pt$[ebp]
  014fe	83 7a 04 04	 cmp	 DWORD PTR [edx+4], 4
  01502	7f 5d		 jg	 SHORT $L188237

; 356  : 	{
; 357  : 		//
; 358  : 		HCURSOR  m_hCursor = ::LoadCursor(NULL, IDC_SIZENWSE);

  01504	8b f4		 mov	 esi, esp
  01506	68 82 7f 00 00	 push	 32642			; 00007f82H
  0150b	6a 00		 push	 0
  0150d	ff 15 00 00 00
	00		 call	 DWORD PTR __imp__LoadCursorA@8
  01513	3b f4		 cmp	 esi, esp
  01515	e8 00 00 00 00	 call	 __RTC_CheckEsp
  0151a	89 45 d8	 mov	 DWORD PTR _m_hCursor$188238[ebp], eax

; 359  : 		::SetCursor(m_hCursor);

  0151d	8b f4		 mov	 esi, esp
  0151f	8b 45 d8	 mov	 eax, DWORD PTR _m_hCursor$188238[ebp]
  01522	50		 push	 eax
  01523	ff 15 00 00 00
	00		 call	 DWORD PTR __imp__SetCursor@4
  01529	3b f4		 cmp	 esi, esp
  0152b	e8 00 00 00 00	 call	 __RTC_CheckEsp

; 360  : 		m_iDirection |= DIRECTION_LEFT;

  01530	8b 4d fc	 mov	 ecx, DWORD PTR _this$[ebp]
  01533	8b 91 9c 00 00
	00		 mov	 edx, DWORD PTR [ecx+156]
  01539	83 ca 01	 or	 edx, 1
  0153c	8b 45 fc	 mov	 eax, DWORD PTR _this$[ebp]
  0153f	89 90 9c 00 00
	00		 mov	 DWORD PTR [eax+156], edx

; 361  : 		m_iDirection |= DIRECTION_TOP;

  01545	8b 4d fc	 mov	 ecx, DWORD PTR _this$[ebp]
  01548	8b 91 9c 00 00
	00		 mov	 edx, DWORD PTR [ecx+156]
  0154e	83 ca 04	 or	 edx, 4
  01551	8b 45 fc	 mov	 eax, DWORD PTR _this$[ebp]
  01554	89 90 9c 00 00
	00		 mov	 DWORD PTR [eax+156], edx

; 362  : 
; 363  : 		return TRUE;

  0155a	b0 01		 mov	 al, 1
  0155c	e9 f9 01 00 00	 jmp	 $L188224
$L188237:

; 364  : 	}
; 365  : 	//  6*6 re_size
; 366  : 	if( (Pt.x > fullRect.right - fullRect.left - 8) && (Pt.y >= 0 && Pt.y <= 8))

  01561	8b 4d f0	 mov	 ecx, DWORD PTR _fullRect$[ebp+8]
  01564	2b 4d e8	 sub	 ecx, DWORD PTR _fullRect$[ebp]
  01567	83 e9 08	 sub	 ecx, 8
  0156a	8b 55 08	 mov	 edx, DWORD PTR _Pt$[ebp]
  0156d	39 0a		 cmp	 DWORD PTR [edx], ecx
  0156f	7e 6f		 jle	 SHORT $L188242
  01571	8b 45 08	 mov	 eax, DWORD PTR _Pt$[ebp]
  01574	83 78 04 00	 cmp	 DWORD PTR [eax+4], 0
  01578	7c 66		 jl	 SHORT $L188242
  0157a	8b 4d 08	 mov	 ecx, DWORD PTR _Pt$[ebp]
  0157d	83 79 04 08	 cmp	 DWORD PTR [ecx+4], 8
  01581	7f 5d		 jg	 SHORT $L188242

; 367  : 	{
; 368  : 		//
; 369  : 		HCURSOR  m_hCursor = ::LoadCursor(NULL, IDC_SIZENESW);

  01583	8b f4		 mov	 esi, esp
  01585	68 83 7f 00 00	 push	 32643			; 00007f83H
  0158a	6a 00		 push	 0
  0158c	ff 15 00 00 00
	00		 call	 DWORD PTR __imp__LoadCursorA@8
  01592	3b f4		 cmp	 esi, esp
  01594	e8 00 00 00 00	 call	 __RTC_CheckEsp
  01599	89 45 d4	 mov	 DWORD PTR _m_hCursor$188243[ebp], eax

; 370  : 		::SetCursor(m_hCursor);

  0159c	8b f4		 mov	 esi, esp
  0159e	8b 55 d4	 mov	 edx, DWORD PTR _m_hCursor$188243[ebp]
  015a1	52		 push	 edx
  015a2	ff 15 00 00 00
	00		 call	 DWORD PTR __imp__SetCursor@4
  015a8	3b f4		 cmp	 esi, esp
  015aa	e8 00 00 00 00	 call	 __RTC_CheckEsp

; 371  : 		m_iDirection |= DIRECTION_RIGHT;

  015af	8b 45 fc	 mov	 eax, DWORD PTR _this$[ebp]
  015b2	8b 88 9c 00 00
	00		 mov	 ecx, DWORD PTR [eax+156]
  015b8	83 c9 02	 or	 ecx, 2
  015bb	8b 55 fc	 mov	 edx, DWORD PTR _this$[ebp]
  015be	89 8a 9c 00 00
	00		 mov	 DWORD PTR [edx+156], ecx

; 372  : 		m_iDirection |= DIRECTION_TOP;

  015c4	8b 45 fc	 mov	 eax, DWORD PTR _this$[ebp]
  015c7	8b 88 9c 00 00
	00		 mov	 ecx, DWORD PTR [eax+156]
  015cd	83 c9 04	 or	 ecx, 4
  015d0	8b 55 fc	 mov	 edx, DWORD PTR _this$[ebp]
  015d3	89 8a 9c 00 00
	00		 mov	 DWORD PTR [edx+156], ecx

; 373  : 
; 374  : 		return TRUE;

  015d9	b0 01		 mov	 al, 1
  015db	e9 7a 01 00 00	 jmp	 $L188224
$L188242:

; 375  : 	}
; 376  : 	//    3 IDC_SIZEWE 
; 377  : 	if(Pt.x >= 0 && Pt.x <= 8)

  015e0	8b 45 08	 mov	 eax, DWORD PTR _Pt$[ebp]
  015e3	83 38 00	 cmp	 DWORD PTR [eax], 0
  015e6	7c 50		 jl	 SHORT $L188247
  015e8	8b 4d 08	 mov	 ecx, DWORD PTR _Pt$[ebp]
  015eb	83 39 08	 cmp	 DWORD PTR [ecx], 8
  015ee	7f 48		 jg	 SHORT $L188247

; 378  : 	{
; 379  : 		//
; 380  : 		HCURSOR  m_hCursor = ::LoadCursor(NULL, IDC_SIZEWE);

  015f0	8b f4		 mov	 esi, esp
  015f2	68 84 7f 00 00	 push	 32644			; 00007f84H
  015f7	6a 00		 push	 0
  015f9	ff 15 00 00 00
	00		 call	 DWORD PTR __imp__LoadCursorA@8
  015ff	3b f4		 cmp	 esi, esp
  01601	e8 00 00 00 00	 call	 __RTC_CheckEsp
  01606	89 45 d0	 mov	 DWORD PTR _m_hCursor$188248[ebp], eax

; 381  : 		::SetCursor(m_hCursor);

  01609	8b f4		 mov	 esi, esp
  0160b	8b 55 d0	 mov	 edx, DWORD PTR _m_hCursor$188248[ebp]
  0160e	52		 push	 edx
  0160f	ff 15 00 00 00
	00		 call	 DWORD PTR __imp__SetCursor@4
  01615	3b f4		 cmp	 esi, esp
  01617	e8 00 00 00 00	 call	 __RTC_CheckEsp

; 382  : 		m_iDirection |= DIRECTION_LEFT;

  0161c	8b 45 fc	 mov	 eax, DWORD PTR _this$[ebp]
  0161f	8b 88 9c 00 00
	00		 mov	 ecx, DWORD PTR [eax+156]
  01625	83 c9 01	 or	 ecx, 1
  01628	8b 55 fc	 mov	 edx, DWORD PTR _this$[ebp]
  0162b	89 8a 9c 00 00
	00		 mov	 DWORD PTR [edx+156], ecx

; 383  : 
; 384  : 		return TRUE;

  01631	b0 01		 mov	 al, 1
  01633	e9 22 01 00 00	 jmp	 $L188224
$L188247:

; 385  : 	}
; 386  : 	else if(Pt.x >= fullRect.right - fullRect.left -8 && Pt.x <= fullRect.right - fullRect.left)

  01638	8b 45 f0	 mov	 eax, DWORD PTR _fullRect$[ebp+8]
  0163b	2b 45 e8	 sub	 eax, DWORD PTR _fullRect$[ebp]
  0163e	83 e8 08	 sub	 eax, 8
  01641	8b 4d 08	 mov	 ecx, DWORD PTR _Pt$[ebp]
  01644	39 01		 cmp	 DWORD PTR [ecx], eax
  01646	7c 55		 jl	 SHORT $L188252
  01648	8b 55 f0	 mov	 edx, DWORD PTR _fullRect$[ebp+8]
  0164b	2b 55 e8	 sub	 edx, DWORD PTR _fullRect$[ebp]
  0164e	8b 45 08	 mov	 eax, DWORD PTR _Pt$[ebp]
  01651	39 10		 cmp	 DWORD PTR [eax], edx
  01653	7f 48		 jg	 SHORT $L188252

; 387  : 	{
; 388  : 		//
; 389  : 		HCURSOR  m_hCursor = ::LoadCursor(NULL, IDC_SIZEWE);

  01655	8b f4		 mov	 esi, esp
  01657	68 84 7f 00 00	 push	 32644			; 00007f84H
  0165c	6a 00		 push	 0
  0165e	ff 15 00 00 00
	00		 call	 DWORD PTR __imp__LoadCursorA@8
  01664	3b f4		 cmp	 esi, esp
  01666	e8 00 00 00 00	 call	 __RTC_CheckEsp
  0166b	89 45 cc	 mov	 DWORD PTR _m_hCursor$188254[ebp], eax

; 390  : 		::SetCursor(m_hCursor);

  0166e	8b f4		 mov	 esi, esp
  01670	8b 4d cc	 mov	 ecx, DWORD PTR _m_hCursor$188254[ebp]
  01673	51		 push	 ecx
  01674	ff 15 00 00 00
	00		 call	 DWORD PTR __imp__SetCursor@4
  0167a	3b f4		 cmp	 esi, esp
  0167c	e8 00 00 00 00	 call	 __RTC_CheckEsp

; 391  : 		m_iDirection |= DIRECTION_RIGHT;		

  01681	8b 55 fc	 mov	 edx, DWORD PTR _this$[ebp]
  01684	8b 82 9c 00 00
	00		 mov	 eax, DWORD PTR [edx+156]
  0168a	83 c8 02	 or	 eax, 2
  0168d	8b 4d fc	 mov	 ecx, DWORD PTR _this$[ebp]
  01690	89 81 9c 00 00
	00		 mov	 DWORD PTR [ecx+156], eax

; 392  : 		return TRUE;

  01696	b0 01		 mov	 al, 1
  01698	e9 bd 00 00 00	 jmp	 $L188224
$L188252:

; 393  : 	}
; 394  : 	//   3IDC_SIZEWE 
; 395  : 	if(Pt.y >= 0 && Pt.y <= 3)

  0169d	8b 55 08	 mov	 edx, DWORD PTR _Pt$[ebp]
  016a0	83 7a 04 00	 cmp	 DWORD PTR [edx+4], 0
  016a4	7c 4e		 jl	 SHORT $L188258
  016a6	8b 45 08	 mov	 eax, DWORD PTR _Pt$[ebp]
  016a9	83 78 04 03	 cmp	 DWORD PTR [eax+4], 3
  016ad	7f 45		 jg	 SHORT $L188258

; 396  : 	{	
; 397  : 		//
; 398  : 		HCURSOR  m_hCursor = ::LoadCursor(NULL, IDC_SIZENS);

  016af	8b f4		 mov	 esi, esp
  016b1	68 85 7f 00 00	 push	 32645			; 00007f85H
  016b6	6a 00		 push	 0
  016b8	ff 15 00 00 00
	00		 call	 DWORD PTR __imp__LoadCursorA@8
  016be	3b f4		 cmp	 esi, esp
  016c0	e8 00 00 00 00	 call	 __RTC_CheckEsp
  016c5	89 45 c8	 mov	 DWORD PTR _m_hCursor$188259[ebp], eax

; 399  : 		::SetCursor(m_hCursor);

  016c8	8b f4		 mov	 esi, esp
  016ca	8b 4d c8	 mov	 ecx, DWORD PTR _m_hCursor$188259[ebp]
  016cd	51		 push	 ecx
  016ce	ff 15 00 00 00
	00		 call	 DWORD PTR __imp__SetCursor@4
  016d4	3b f4		 cmp	 esi, esp
  016d6	e8 00 00 00 00	 call	 __RTC_CheckEsp

; 400  : 		m_iDirection |= DIRECTION_TOP;

  016db	8b 55 fc	 mov	 edx, DWORD PTR _this$[ebp]
  016de	8b 82 9c 00 00
	00		 mov	 eax, DWORD PTR [edx+156]
  016e4	83 c8 04	 or	 eax, 4
  016e7	8b 4d fc	 mov	 ecx, DWORD PTR _this$[ebp]
  016ea	89 81 9c 00 00
	00		 mov	 DWORD PTR [ecx+156], eax

; 401  : 
; 402  : 		return TRUE;

  016f0	b0 01		 mov	 al, 1
  016f2	eb 66		 jmp	 SHORT $L188224
$L188258:

; 403  : 	}
; 404  : 	else if(Pt.y >= fullRect.bottom - fullRect.top -8 && Pt.y <= fullRect.bottom - fullRect.top)

  016f4	8b 55 f4	 mov	 edx, DWORD PTR _fullRect$[ebp+12]
  016f7	2b 55 ec	 sub	 edx, DWORD PTR _fullRect$[ebp+4]
  016fa	83 ea 08	 sub	 edx, 8
  016fd	8b 45 08	 mov	 eax, DWORD PTR _Pt$[ebp]
  01700	39 50 04	 cmp	 DWORD PTR [eax+4], edx
  01703	7c 53		 jl	 SHORT $L188263
  01705	8b 4d f4	 mov	 ecx, DWORD PTR _fullRect$[ebp+12]
  01708	2b 4d ec	 sub	 ecx, DWORD PTR _fullRect$[ebp+4]
  0170b	8b 55 08	 mov	 edx, DWORD PTR _Pt$[ebp]
  0170e	39 4a 04	 cmp	 DWORD PTR [edx+4], ecx
  01711	7f 45		 jg	 SHORT $L188263

; 405  : 	{
; 406  : 		//
; 407  : 		HCURSOR  m_hCursor = ::LoadCursor(NULL, IDC_SIZENS);

  01713	8b f4		 mov	 esi, esp
  01715	68 85 7f 00 00	 push	 32645			; 00007f85H
  0171a	6a 00		 push	 0
  0171c	ff 15 00 00 00
	00		 call	 DWORD PTR __imp__LoadCursorA@8
  01722	3b f4		 cmp	 esi, esp
  01724	e8 00 00 00 00	 call	 __RTC_CheckEsp
  01729	89 45 c4	 mov	 DWORD PTR _m_hCursor$188265[ebp], eax

; 408  : 		::SetCursor(m_hCursor);

  0172c	8b f4		 mov	 esi, esp
  0172e	8b 45 c4	 mov	 eax, DWORD PTR _m_hCursor$188265[ebp]
  01731	50		 push	 eax
  01732	ff 15 00 00 00
	00		 call	 DWORD PTR __imp__SetCursor@4
  01738	3b f4		 cmp	 esi, esp
  0173a	e8 00 00 00 00	 call	 __RTC_CheckEsp

; 409  : 		m_iDirection |= DIRECTION_BOTTOM;

  0173f	8b 4d fc	 mov	 ecx, DWORD PTR _this$[ebp]
  01742	8b 91 9c 00 00
	00		 mov	 edx, DWORD PTR [ecx+156]
  01748	83 ca 08	 or	 edx, 8
  0174b	8b 45 fc	 mov	 eax, DWORD PTR _this$[ebp]
  0174e	89 90 9c 00 00
	00		 mov	 DWORD PTR [eax+156], edx

; 410  : 		return TRUE;

  01754	b0 01		 mov	 al, 1
  01756	eb 02		 jmp	 SHORT $L188224
$L188263:

; 411  : 	}
; 412  : 
; 413  : 	return FALSE;

  01758	32 c0		 xor	 al, al
$L188224:

; 414  : }

  0175a	52		 push	 edx
  0175b	8b cd		 mov	 ecx, ebp
  0175d	50		 push	 eax
  0175e	8d 15 00 00 00
	00		 lea	 edx, DWORD PTR $L188964
  01764	e8 00 00 00 00	 call	 @_RTC_CheckStackVars@8
  01769	58		 pop	 eax
  0176a	5a		 pop	 edx
  0176b	5f		 pop	 edi
  0176c	5e		 pop	 esi
  0176d	83 c4 3c	 add	 esp, 60			; 0000003cH
  01770	3b ec		 cmp	 ebp, esp
  01772	e8 00 00 00 00	 call	 __RTC_CheckEsp
  01777	8b e5		 mov	 esp, ebp
  01779	5d		 pop	 ebp
  0177a	c2 04 00	 ret	 4
$L188964:
  0177d	01 00 00 00	 DD	 1
  01781	00 00 00 00	 DD	 $L188963
$L188963:
  01785	e8 ff ff ff	 DD	 -24			; ffffffe8H
  01789	10 00 00 00	 DD	 16			; 00000010H
  0178d	00 00 00 00	 DD	 $L188962
$L188962:
  01791	66		 DB	 102			; 00000066H
  01792	75		 DB	 117			; 00000075H
  01793	6c		 DB	 108			; 0000006cH
  01794	6c		 DB	 108			; 0000006cH
  01795	52		 DB	 82			; 00000052H
  01796	65		 DB	 101			; 00000065H
  01797	63		 DB	 99			; 00000063H
  01798	74		 DB	 116			; 00000074H
  01799	00		 DB	 0
?_needChangeCursor@CHostWnd@@MAE_NABVCPoint@@@Z ENDP	; CHostWnd::_needChangeCursor
_TEXT	ENDS
EXTRN	?PatBlt@CDC@@QAEHHHHHK@Z:NEAR			; CDC::PatBlt
EXTRN	??0CBrush@@QAE@PAVCBitmap@@@Z:NEAR		; CBrush::CBrush
EXTRN	??1CBrush@@UAE@XZ:NEAR				; CBrush::~CBrush
EXTRN	??0CBitmap@@QAE@XZ:NEAR				; CBitmap::CBitmap
EXTRN	?FromHandle@CWnd@@SGPAV1@PAUHWND__@@@Z:NEAR	; CWnd::FromHandle
EXTRN	?LoadBitmapA@CBitmap@@QAEHI@Z:NEAR		; CBitmap::LoadBitmapA
EXTRN	??0CWindowDC@@QAE@PAVCWnd@@@Z:NEAR		; CWindowDC::CWindowDC
EXTRN	??1CWindowDC@@UAE@XZ:NEAR			; CWindowDC::~CWindowDC
EXTRN	??1CBitmap@@UAE@XZ:NEAR				; CBitmap::~CBitmap
EXTRN	?SelectObject@CDC@@QAEPAVCBrush@@PAV2@@Z:NEAR	; CDC::SelectObject
xdata$x	SEGMENT
$T188977 DD	0ffffffffH
	DD	FLAT:$L188966
	DD	00H
	DD	FLAT:$L188967
	DD	01H
	DD	FLAT:$L188968
$T188970 DD	019930520H
	DD	03H
	DD	FLAT:$T188977
	DD	2 DUP(00H)
	DD	2 DUP(00H)
; Function compile flags: /Odt /RTCsu
xdata$x	ENDS
_TEXT	SEGMENT
_pOldBrush$ = -84					; size = 4
_brush$ = -76						; size = 8
_bmp$ = -60						; size = 8
_dc$ = -44						; size = 20
_pParentWnd$ = -20					; size = 4
_this$ = -16						; size = 4
__$EHRec$ = -12						; size = 12
_rc$ = 8						; size = 16
?DrawMoveFrame@CHostWnd@@IAEXVCRect@@@Z PROC NEAR	; CHostWnd::DrawMoveFrame
; _this$ = ecx

; 417  : {

  017a0	55		 push	 ebp
  017a1	8b ec		 mov	 ebp, esp
  017a3	6a ff		 push	 -1
  017a5	68 00 00 00 00	 push	 __ehhandler$?DrawMoveFrame@CHostWnd@@IAEXVCRect@@@Z
  017aa	64 a1 00 00 00
	00		 mov	 eax, DWORD PTR fs:__except_list
  017b0	50		 push	 eax
  017b1	64 89 25 00 00
	00 00		 mov	 DWORD PTR fs:__except_list, esp
  017b8	83 ec 48	 sub	 esp, 72			; 00000048H
  017bb	56		 push	 esi
  017bc	57		 push	 edi
  017bd	51		 push	 ecx
  017be	8d 7d ac	 lea	 edi, DWORD PTR [ebp-84]
  017c1	b9 12 00 00 00	 mov	 ecx, 18			; 00000012H
  017c6	b8 cc cc cc cc	 mov	 eax, -858993460		; ccccccccH
  017cb	f3 ab		 rep stosd
  017cd	59		 pop	 ecx
  017ce	89 4d f0	 mov	 DWORD PTR _this$[ebp], ecx

; 418  : 	CWnd* pParentWnd = CWnd::FromHandle(::GetDesktopWindow());//GetParent();

  017d1	8b f4		 mov	 esi, esp
  017d3	ff 15 00 00 00
	00		 call	 DWORD PTR __imp__GetDesktopWindow@0
  017d9	3b f4		 cmp	 esi, esp
  017db	e8 00 00 00 00	 call	 __RTC_CheckEsp
  017e0	50		 push	 eax
  017e1	e8 00 00 00 00	 call	 ?FromHandle@CWnd@@SGPAV1@PAUHWND__@@@Z ; CWnd::FromHandle
  017e6	89 45 ec	 mov	 DWORD PTR _pParentWnd$[ebp], eax

; 419  : 	CWindowDC dc(pParentWnd);

  017e9	8b 45 ec	 mov	 eax, DWORD PTR _pParentWnd$[ebp]
  017ec	50		 push	 eax
  017ed	8d 4d d4	 lea	 ecx, DWORD PTR _dc$[ebp]
  017f0	e8 00 00 00 00	 call	 ??0CWindowDC@@QAE@PAVCWnd@@@Z ; CWindowDC::CWindowDC
  017f5	c7 45 fc 00 00
	00 00		 mov	 DWORD PTR __$EHRec$[ebp+8], 0

; 420  : 
; 421  : 
; 422  : 	//CRect rc;
; 423  : 	//this->GetWindowRect(&rc);
; 424  : 	//rc -= rcWin.TopLeft();					 
; 425  : 
; 426  : 	CBitmap bmp;

  017fc	8d 4d c4	 lea	 ecx, DWORD PTR _bmp$[ebp]
  017ff	e8 00 00 00 00	 call	 ??0CBitmap@@QAE@XZ	; CBitmap::CBitmap
  01804	c6 45 fc 01	 mov	 BYTE PTR __$EHRec$[ebp+8], 1

; 427  : 
; 428  : 	bmp.LoadBitmap(IDB_FRAME_LINE);

  01808	68 84 00 00 00	 push	 132			; 00000084H
  0180d	8d 4d c4	 lea	 ecx, DWORD PTR _bmp$[ebp]
  01810	e8 00 00 00 00	 call	 ?LoadBitmapA@CBitmap@@QAEHI@Z ; CBitmap::LoadBitmapA

; 429  : 
; 430  : 	CBrush brush(&bmp);

  01815	8d 4d c4	 lea	 ecx, DWORD PTR _bmp$[ebp]
  01818	51		 push	 ecx
  01819	8d 4d b4	 lea	 ecx, DWORD PTR _brush$[ebp]
  0181c	e8 00 00 00 00	 call	 ??0CBrush@@QAE@PAVCBitmap@@@Z ; CBrush::CBrush
  01821	c6 45 fc 02	 mov	 BYTE PTR __$EHRec$[ebp+8], 2

; 431  : 	CBrush* pOldBrush = dc.SelectObject(&brush);

  01825	8d 55 b4	 lea	 edx, DWORD PTR _brush$[ebp]
  01828	52		 push	 edx
  01829	8d 4d d4	 lea	 ecx, DWORD PTR _dc$[ebp]
  0182c	e8 00 00 00 00	 call	 ?SelectObject@CDC@@QAEPAVCBrush@@PAV2@@Z ; CDC::SelectObject
  01831	89 45 ac	 mov	 DWORD PTR _pOldBrush$[ebp], eax

; 432  : 
; 433  : 	dc.PatBlt(
; 434  : 		rc.left, 
; 435  : 		rc.top, 
; 436  : 		4, 
; 437  : 		rc.Height(), 
; 438  : 		PATINVERT);

  01834	68 49 00 5a 00	 push	 5898313			; 005a0049H
  01839	8d 4d 08	 lea	 ecx, DWORD PTR _rc$[ebp]
  0183c	e8 00 00 00 00	 call	 ?Height@CRect@@QBEHXZ	; CRect::Height
  01841	50		 push	 eax
  01842	6a 04		 push	 4
  01844	8b 45 0c	 mov	 eax, DWORD PTR _rc$[ebp+4]
  01847	50		 push	 eax
  01848	8b 4d 08	 mov	 ecx, DWORD PTR _rc$[ebp]
  0184b	51		 push	 ecx
  0184c	8d 4d d4	 lea	 ecx, DWORD PTR _dc$[ebp]
  0184f	e8 00 00 00 00	 call	 ?PatBlt@CDC@@QAEHHHHHK@Z ; CDC::PatBlt

; 439  : 
; 440  : 	dc.PatBlt(
; 441  : 		rc.left, 
; 442  : 		rc.top, 
; 443  : 		rc.Width(), 
; 444  : 		4, 
; 445  : 		PATINVERT);

  01854	68 49 00 5a 00	 push	 5898313			; 005a0049H
  01859	6a 04		 push	 4
  0185b	8d 4d 08	 lea	 ecx, DWORD PTR _rc$[ebp]
  0185e	e8 00 00 00 00	 call	 ?Width@CRect@@QBEHXZ	; CRect::Width
  01863	50		 push	 eax
  01864	8b 55 0c	 mov	 edx, DWORD PTR _rc$[ebp+4]
  01867	52		 push	 edx
  01868	8b 45 08	 mov	 eax, DWORD PTR _rc$[ebp]
  0186b	50		 push	 eax
  0186c	8d 4d d4	 lea	 ecx, DWORD PTR _dc$[ebp]
  0186f	e8 00 00 00 00	 call	 ?PatBlt@CDC@@QAEHHHHHK@Z ; CDC::PatBlt

; 446  : 
; 447  : 	dc.PatBlt(
; 448  : 		rc.left, 
; 449  : 		rc.bottom - 4, 
; 450  : 		rc.Width(), 
; 451  : 		4, 
; 452  : 		PATINVERT);

  01874	68 49 00 5a 00	 push	 5898313			; 005a0049H
  01879	6a 04		 push	 4
  0187b	8d 4d 08	 lea	 ecx, DWORD PTR _rc$[ebp]
  0187e	e8 00 00 00 00	 call	 ?Width@CRect@@QBEHXZ	; CRect::Width
  01883	50		 push	 eax
  01884	8b 4d 14	 mov	 ecx, DWORD PTR _rc$[ebp+12]
  01887	83 e9 04	 sub	 ecx, 4
  0188a	51		 push	 ecx
  0188b	8b 55 08	 mov	 edx, DWORD PTR _rc$[ebp]
  0188e	52		 push	 edx
  0188f	8d 4d d4	 lea	 ecx, DWORD PTR _dc$[ebp]
  01892	e8 00 00 00 00	 call	 ?PatBlt@CDC@@QAEHHHHHK@Z ; CDC::PatBlt

; 453  : 
; 454  : 	dc.PatBlt(
; 455  : 		rc.right, 
; 456  : 		rc.top, 
; 457  : 		4, 
; 458  : 		rc.Height(), 
; 459  : 		PATINVERT);

  01897	68 49 00 5a 00	 push	 5898313			; 005a0049H
  0189c	8d 4d 08	 lea	 ecx, DWORD PTR _rc$[ebp]
  0189f	e8 00 00 00 00	 call	 ?Height@CRect@@QBEHXZ	; CRect::Height
  018a4	50		 push	 eax
  018a5	6a 04		 push	 4
  018a7	8b 45 0c	 mov	 eax, DWORD PTR _rc$[ebp+4]
  018aa	50		 push	 eax
  018ab	8b 4d 10	 mov	 ecx, DWORD PTR _rc$[ebp+8]
  018ae	51		 push	 ecx
  018af	8d 4d d4	 lea	 ecx, DWORD PTR _dc$[ebp]
  018b2	e8 00 00 00 00	 call	 ?PatBlt@CDC@@QAEHHHHHK@Z ; CDC::PatBlt

; 460  : 
; 461  : 	dc.SelectObject(pOldBrush);

  018b7	8b 55 ac	 mov	 edx, DWORD PTR _pOldBrush$[ebp]
  018ba	52		 push	 edx
  018bb	8d 4d d4	 lea	 ecx, DWORD PTR _dc$[ebp]
  018be	e8 00 00 00 00	 call	 ?SelectObject@CDC@@QAEPAVCBrush@@PAV2@@Z ; CDC::SelectObject

; 462  : }

  018c3	c6 45 fc 01	 mov	 BYTE PTR __$EHRec$[ebp+8], 1
  018c7	8d 4d b4	 lea	 ecx, DWORD PTR _brush$[ebp]
  018ca	e8 00 00 00 00	 call	 ??1CBrush@@UAE@XZ	; CBrush::~CBrush
  018cf	c6 45 fc 00	 mov	 BYTE PTR __$EHRec$[ebp+8], 0
  018d3	8d 4d c4	 lea	 ecx, DWORD PTR _bmp$[ebp]
  018d6	e8 00 00 00 00	 call	 ??1CBitmap@@UAE@XZ	; CBitmap::~CBitmap
  018db	c7 45 fc ff ff
	ff ff		 mov	 DWORD PTR __$EHRec$[ebp+8], -1
  018e2	8d 4d d4	 lea	 ecx, DWORD PTR _dc$[ebp]
  018e5	e8 00 00 00 00	 call	 ??1CWindowDC@@UAE@XZ	; CWindowDC::~CWindowDC
  018ea	52		 push	 edx
  018eb	8b cd		 mov	 ecx, ebp
  018ed	50		 push	 eax
  018ee	8d 15 00 00 00
	00		 lea	 edx, DWORD PTR $L188976
  018f4	e8 00 00 00 00	 call	 @_RTC_CheckStackVars@8
  018f9	58		 pop	 eax
  018fa	5a		 pop	 edx
  018fb	8b 4d f4	 mov	 ecx, DWORD PTR __$EHRec$[ebp]
  018fe	64 89 0d 00 00
	00 00		 mov	 DWORD PTR fs:__except_list, ecx
  01905	5f		 pop	 edi
  01906	5e		 pop	 esi
  01907	83 c4 54	 add	 esp, 84			; 00000054H
  0190a	3b ec		 cmp	 ebp, esp
  0190c	e8 00 00 00 00	 call	 __RTC_CheckEsp
  01911	8b e5		 mov	 esp, ebp
  01913	5d		 pop	 ebp
  01914	c2 10 00	 ret	 16			; 00000010H
$L188976:
  01917	03 00 00 00	 DD	 3
  0191b	00 00 00 00	 DD	 $L188975
$L188975:
  0191f	d4 ff ff ff	 DD	 -44			; ffffffd4H
  01923	14 00 00 00	 DD	 20			; 00000014H
  01927	00 00 00 00	 DD	 $L188971
  0192b	c4 ff ff ff	 DD	 -60			; ffffffc4H
  0192f	08 00 00 00	 DD	 8
  01933	00 00 00 00	 DD	 $L188972
  01937	b4 ff ff ff	 DD	 -76			; ffffffb4H
  0193b	08 00 00 00	 DD	 8
  0193f	00 00 00 00	 DD	 $L188973
$L188973:
  01943	62		 DB	 98			; 00000062H
  01944	72		 DB	 114			; 00000072H
  01945	75		 DB	 117			; 00000075H
  01946	73		 DB	 115			; 00000073H
  01947	68		 DB	 104			; 00000068H
  01948	00		 DB	 0
$L188972:
  01949	62		 DB	 98			; 00000062H
  0194a	6d		 DB	 109			; 0000006dH
  0194b	70		 DB	 112			; 00000070H
  0194c	00		 DB	 0
$L188971:
  0194d	64		 DB	 100			; 00000064H
  0194e	63		 DB	 99			; 00000063H
  0194f	00		 DB	 0
_TEXT	ENDS
text$x	SEGMENT
$L188966:
  0015c	8d 4d d4	 lea	 ecx, DWORD PTR _dc$[ebp]
  0015f	e9 00 00 00 00	 jmp	 ??1CWindowDC@@UAE@XZ	; CWindowDC::~CWindowDC
$L188967:
  00164	8d 4d c4	 lea	 ecx, DWORD PTR _bmp$[ebp]
  00167	e9 00 00 00 00	 jmp	 ??1CBitmap@@UAE@XZ	; CBitmap::~CBitmap
$L188968:
  0016c	8d 4d b4	 lea	 ecx, DWORD PTR _brush$[ebp]
  0016f	e9 00 00 00 00	 jmp	 ??1CBrush@@UAE@XZ	; CBrush::~CBrush
__ehhandler$?DrawMoveFrame@CHostWnd@@IAEXVCRect@@@Z:
  00174	b8 00 00 00 00	 mov	 eax, OFFSET FLAT:$T188970
  00179	e9 00 00 00 00	 jmp	 ___CxxFrameHandler
text$x	ENDS
?DrawMoveFrame@CHostWnd@@IAEXVCRect@@@Z ENDP		; CHostWnd::DrawMoveFrame
EXTRN	?IsWindowVisible@CWnd@@QBEHXZ:NEAR		; CWnd::IsWindowVisible
; Function compile flags: /Odt /RTCsu
_TEXT	SEGMENT
_rc$ = -24						; size = 16
_this$ = -4						; size = 4
?OnBnClickedClose@CHostWnd@@IAEXXZ PROC NEAR		; CHostWnd::OnBnClickedClose
; _this$ = ecx

; 465  : {

  01950	55		 push	 ebp
  01951	8b ec		 mov	 ebp, esp
  01953	83 ec 1c	 sub	 esp, 28			; 0000001cH
  01956	b8 cc cc cc cc	 mov	 eax, -858993460		; ccccccccH
  0195b	89 45 e4	 mov	 DWORD PTR [ebp-28], eax
  0195e	89 45 e8	 mov	 DWORD PTR [ebp-24], eax
  01961	89 45 ec	 mov	 DWORD PTR [ebp-20], eax
  01964	89 45 f0	 mov	 DWORD PTR [ebp-16], eax
  01967	89 45 f4	 mov	 DWORD PTR [ebp-12], eax
  0196a	89 45 f8	 mov	 DWORD PTR [ebp-8], eax
  0196d	89 45 fc	 mov	 DWORD PTR [ebp-4], eax
  01970	89 4d fc	 mov	 DWORD PTR _this$[ebp], ecx

; 466  : 	CRect rc;

  01973	8d 4d e8	 lea	 ecx, DWORD PTR _rc$[ebp]
  01976	e8 00 00 00 00	 call	 ??0CRect@@QAE@XZ	; CRect::CRect

; 467  : 	m_btnClose.GetWindowRect(&rc);

  0197b	8d 45 e8	 lea	 eax, DWORD PTR _rc$[ebp]
  0197e	50		 push	 eax
  0197f	8b 4d fc	 mov	 ecx, DWORD PTR _this$[ebp]
  01982	81 c1 10 01 00
	00		 add	 ecx, 272		; 00000110H
  01988	e8 00 00 00 00	 call	 ?GetWindowRect@CWnd@@QBEXPAUtagRECT@@@Z ; CWnd::GetWindowRect

; 468  : 	if(m_btnClose.IsWindowVisible() && rc.Width() != 0 && rc.Height() != 0)

  0198d	8b 4d fc	 mov	 ecx, DWORD PTR _this$[ebp]
  01990	81 c1 10 01 00
	00		 add	 ecx, 272		; 00000110H
  01996	e8 00 00 00 00	 call	 ?IsWindowVisible@CWnd@@QBEHXZ ; CWnd::IsWindowVisible
  0199b	85 c0		 test	 eax, eax
  0199d	74 22		 je	 SHORT $L188284
  0199f	8d 4d e8	 lea	 ecx, DWORD PTR _rc$[ebp]
  019a2	e8 00 00 00 00	 call	 ?Width@CRect@@QBEHXZ	; CRect::Width
  019a7	85 c0		 test	 eax, eax
  019a9	74 16		 je	 SHORT $L188284
  019ab	8d 4d e8	 lea	 ecx, DWORD PTR _rc$[ebp]
  019ae	e8 00 00 00 00	 call	 ?Height@CRect@@QBEHXZ	; CRect::Height
  019b3	85 c0		 test	 eax, eax
  019b5	74 0a		 je	 SHORT $L188284

; 469  : 		ShowWindow(SW_HIDE);

  019b7	6a 00		 push	 0
  019b9	8b 4d fc	 mov	 ecx, DWORD PTR _this$[ebp]
  019bc	e8 00 00 00 00	 call	 ?ShowWindow@CWnd@@QAEHH@Z ; CWnd::ShowWindow
$L188284:

; 470  : }

  019c1	52		 push	 edx
  019c2	8b cd		 mov	 ecx, ebp
  019c4	50		 push	 eax
  019c5	8d 15 00 00 00
	00		 lea	 edx, DWORD PTR $L188981
  019cb	e8 00 00 00 00	 call	 @_RTC_CheckStackVars@8
  019d0	58		 pop	 eax
  019d1	5a		 pop	 edx
  019d2	83 c4 1c	 add	 esp, 28			; 0000001cH
  019d5	3b ec		 cmp	 ebp, esp
  019d7	e8 00 00 00 00	 call	 __RTC_CheckEsp
  019dc	8b e5		 mov	 esp, ebp
  019de	5d		 pop	 ebp
  019df	c3		 ret	 0
$L188981:
  019e0	01 00 00 00	 DD	 1
  019e4	00 00 00 00	 DD	 $L188980
$L188980:
  019e8	e8 ff ff ff	 DD	 -24			; ffffffe8H
  019ec	10 00 00 00	 DD	 16			; 00000010H
  019f0	00 00 00 00	 DD	 $L188979
$L188979:
  019f4	72		 DB	 114			; 00000072H
  019f5	63		 DB	 99			; 00000063H
  019f6	00		 DB	 0
?OnBnClickedClose@CHostWnd@@IAEXXZ ENDP			; CHostWnd::OnBnClickedClose
; Function compile flags: /Odt /RTCsu
_this$ = -4						; size = 4
?OnOK@CHostWnd@@MAEXXZ PROC NEAR			; CHostWnd::OnOK
; _this$ = ecx

; 472  : {

  01a00	55		 push	 ebp
  01a01	8b ec		 mov	 ebp, esp
  01a03	51		 push	 ecx
  01a04	c7 45 fc cc cc
	cc cc		 mov	 DWORD PTR [ebp-4], -858993460 ; ccccccccH
  01a0b	89 4d fc	 mov	 DWORD PTR _this$[ebp], ecx

; 473  : }

  01a0e	8b e5		 mov	 esp, ebp
  01a10	5d		 pop	 ebp
  01a11	c3		 ret	 0
?OnOK@CHostWnd@@MAEXXZ ENDP				; CHostWnd::OnOK
; Function compile flags: /Odt /RTCsu
_this$ = -4						; size = 4
?OnCancel@CHostWnd@@MAEXXZ PROC NEAR			; CHostWnd::OnCancel
; _this$ = ecx

; 476  : {

  01a20	55		 push	 ebp
  01a21	8b ec		 mov	 ebp, esp
  01a23	51		 push	 ecx
  01a24	c7 45 fc cc cc
	cc cc		 mov	 DWORD PTR [ebp-4], -858993460 ; ccccccccH
  01a2b	89 4d fc	 mov	 DWORD PTR _this$[ebp], ecx

; 477  : }

  01a2e	8b e5		 mov	 esp, ebp
  01a30	5d		 pop	 ebp
  01a31	c3		 ret	 0
?OnCancel@CHostWnd@@MAEXXZ ENDP				; CHostWnd::OnCancel
_TEXT	ENDS
EXTRN	?PreTranslateMessage@CDialog@@UAEHPAUtagMSG@@@Z:NEAR ; CDialog::PreTranslateMessage
; Function compile flags: /Odt /RTCsu
_TEXT	SEGMENT
_this$ = -4						; size = 4
_pMsg$ = 8						; size = 4
?PreTranslateMessage@CHostWnd@@UAEHPAUtagMSG@@@Z PROC NEAR ; CHostWnd::PreTranslateMessage
; _this$ = ecx

; 480  : {

  01a40	55		 push	 ebp
  01a41	8b ec		 mov	 ebp, esp
  01a43	51		 push	 ecx
  01a44	c7 45 fc cc cc
	cc cc		 mov	 DWORD PTR [ebp-4], -858993460 ; ccccccccH
  01a4b	89 4d fc	 mov	 DWORD PTR _this$[ebp], ecx

; 481  : 	return CDialog::PreTranslateMessage(pMsg);

  01a4e	8b 45 08	 mov	 eax, DWORD PTR _pMsg$[ebp]
  01a51	50		 push	 eax
  01a52	8b 4d fc	 mov	 ecx, DWORD PTR _this$[ebp]
  01a55	e8 00 00 00 00	 call	 ?PreTranslateMessage@CDialog@@UAEHPAUtagMSG@@@Z ; CDialog::PreTranslateMessage

; 482  : }

  01a5a	83 c4 04	 add	 esp, 4
  01a5d	3b ec		 cmp	 ebp, esp
  01a5f	e8 00 00 00 00	 call	 __RTC_CheckEsp
  01a64	8b e5		 mov	 esp, ebp
  01a66	5d		 pop	 ebp
  01a67	c2 04 00	 ret	 4
?PreTranslateMessage@CHostWnd@@UAEHPAUtagMSG@@@Z ENDP	; CHostWnd::PreTranslateMessage
_TEXT	ENDS
EXTRN	?AfxGetMainWindow@@YAPAVCWnd@@XZ:NEAR		; AfxGetMainWindow
EXTRN	?OnWindowPosChanged@CWnd@@IAEXPAUtagWINDOWPOS@@@Z:NEAR ; CWnd::OnWindowPosChanged
; Function compile flags: /Odt /RTCsu
_TEXT	SEGMENT
$T188986 = -20						; size = 16
_this$ = -4						; size = 4
_lpwndpos$ = 8						; size = 4
?OnWindowPosChanged@CHostWnd@@QAEXPAUtagWINDOWPOS@@@Z PROC NEAR ; CHostWnd::OnWindowPosChanged
; _this$ = ecx

; 485  : {

  01a70	55		 push	 ebp
  01a71	8b ec		 mov	 ebp, esp
  01a73	83 ec 14	 sub	 esp, 20			; 00000014H
  01a76	b8 cc cc cc cc	 mov	 eax, -858993460		; ccccccccH
  01a7b	89 45 ec	 mov	 DWORD PTR [ebp-20], eax
  01a7e	89 45 f0	 mov	 DWORD PTR [ebp-16], eax
  01a81	89 45 f4	 mov	 DWORD PTR [ebp-12], eax
  01a84	89 45 f8	 mov	 DWORD PTR [ebp-8], eax
  01a87	89 45 fc	 mov	 DWORD PTR [ebp-4], eax
  01a8a	89 4d fc	 mov	 DWORD PTR _this$[ebp], ecx

; 486  : 	CDialog::OnWindowPosChanged(lpwndpos);

  01a8d	8b 45 08	 mov	 eax, DWORD PTR _lpwndpos$[ebp]
  01a90	50		 push	 eax
  01a91	8b 4d fc	 mov	 ecx, DWORD PTR _this$[ebp]
  01a94	e8 00 00 00 00	 call	 ?OnWindowPosChanged@CWnd@@IAEXPAUtagWINDOWPOS@@@Z ; CWnd::OnWindowPosChanged

; 487  : 	AfxGetMainWindow()->MoveWindow(&CRect(lpwndpos->x, lpwndpos->y, 0,0));

  01a99	6a 01		 push	 1
  01a9b	6a 00		 push	 0
  01a9d	6a 00		 push	 0
  01a9f	8b 4d 08	 mov	 ecx, DWORD PTR _lpwndpos$[ebp]
  01aa2	8b 51 0c	 mov	 edx, DWORD PTR [ecx+12]
  01aa5	52		 push	 edx
  01aa6	8b 45 08	 mov	 eax, DWORD PTR _lpwndpos$[ebp]
  01aa9	8b 48 08	 mov	 ecx, DWORD PTR [eax+8]
  01aac	51		 push	 ecx
  01aad	8d 4d ec	 lea	 ecx, DWORD PTR $T188986[ebp]
  01ab0	e8 00 00 00 00	 call	 ??0CRect@@QAE@HHHH@Z	; CRect::CRect
  01ab5	50		 push	 eax
  01ab6	e8 00 00 00 00	 call	 ?AfxGetMainWindow@@YAPAVCWnd@@XZ ; AfxGetMainWindow
  01abb	8b c8		 mov	 ecx, eax
  01abd	e8 00 00 00 00	 call	 ?MoveWindow@CWnd@@QAEXPBUtagRECT@@H@Z ; CWnd::MoveWindow

; 488  : }

  01ac2	83 c4 14	 add	 esp, 20			; 00000014H
  01ac5	3b ec		 cmp	 ebp, esp
  01ac7	e8 00 00 00 00	 call	 __RTC_CheckEsp
  01acc	8b e5		 mov	 esp, ebp
  01ace	5d		 pop	 ebp
  01acf	c2 04 00	 ret	 4
?OnWindowPosChanged@CHostWnd@@QAEXPAUtagWINDOWPOS@@@Z ENDP ; CHostWnd::OnWindowPosChanged
_TEXT	ENDS
EXTRN	__imp_?Compare@?$CStringT@DV?$StrTraitMFC_DLL@DV?$ChTraitsCRT@D@ATL@@@@@ATL@@QBEHPBD@Z:NEAR
; Function compile flags: /Odt /RTCsu
; File d:\program files (x86)\microsoft visual studio .net 2003\vc7\atlmfc\include\cstringt.h
;	COMDAT ??8ATL@@YA_NABV?$CStringT@DV?$StrTraitMFC_DLL@DV?$ChTraitsCRT@D@ATL@@@@@0@PBD@Z
_TEXT	SEGMENT
_str1$ = 8						; size = 4
_psz2$ = 12						; size = 4
??8ATL@@YA_NABV?$CStringT@DV?$StrTraitMFC_DLL@DV?$ChTraitsCRT@D@ATL@@@@@0@PBD@Z PROC NEAR ; ATL::operator==, COMDAT

; 2087 : 	{

  00000	55		 push	 ebp
  00001	8b ec		 mov	 ebp, esp
  00003	56		 push	 esi

; 2088 : 		return( str1.Compare( psz2 ) == 0 );

  00004	8b f4		 mov	 esi, esp
  00006	8b 45 0c	 mov	 eax, DWORD PTR _psz2$[ebp]
  00009	50		 push	 eax
  0000a	8b 4d 08	 mov	 ecx, DWORD PTR _str1$[ebp]
  0000d	ff 15 00 00 00
	00		 call	 DWORD PTR __imp_?Compare@?$CStringT@DV?$StrTraitMFC_DLL@DV?$ChTraitsCRT@D@ATL@@@@@ATL@@QBEHPBD@Z
  00013	3b f4		 cmp	 esi, esp
  00015	e8 00 00 00 00	 call	 __RTC_CheckEsp
  0001a	f7 d8		 neg	 eax
  0001c	1b c0		 sbb	 eax, eax
  0001e	40		 inc	 eax

; 2089 : 	}

  0001f	5e		 pop	 esi
  00020	3b ec		 cmp	 ebp, esp
  00022	e8 00 00 00 00	 call	 __RTC_CheckEsp
  00027	5d		 pop	 ebp
  00028	c3		 ret	 0
??8ATL@@YA_NABV?$CStringT@DV?$StrTraitMFC_DLL@DV?$ChTraitsCRT@D@ATL@@@@@0@PBD@Z ENDP ; ATL::operator==
; Function compile flags: /Odt /RTCsu
_TEXT	ENDS
;	COMDAT ??9ATL@@YA_NABV?$CStringT@DV?$StrTraitMFC_DLL@DV?$ChTraitsCRT@D@ATL@@@@@0@PBD@Z
_TEXT	SEGMENT
_str1$ = 8						; size = 4
_psz2$ = 12						; size = 4
??9ATL@@YA_NABV?$CStringT@DV?$StrTraitMFC_DLL@DV?$ChTraitsCRT@D@ATL@@@@@0@PBD@Z PROC NEAR ; ATL::operator!=, COMDAT

; 2121 : 	{

  00000	55		 push	 ebp
  00001	8b ec		 mov	 ebp, esp
  00003	56		 push	 esi

; 2122 : 		return( str1.Compare( psz2 ) != 0 );

  00004	8b f4		 mov	 esi, esp
  00006	8b 45 0c	 mov	 eax, DWORD PTR _psz2$[ebp]
  00009	50		 push	 eax
  0000a	8b 4d 08	 mov	 ecx, DWORD PTR _str1$[ebp]
  0000d	ff 15 00 00 00
	00		 call	 DWORD PTR __imp_?Compare@?$CStringT@DV?$StrTraitMFC_DLL@DV?$ChTraitsCRT@D@ATL@@@@@ATL@@QBEHPBD@Z
  00013	3b f4		 cmp	 esi, esp
  00015	e8 00 00 00 00	 call	 __RTC_CheckEsp
  0001a	f7 d8		 neg	 eax
  0001c	1b c0		 sbb	 eax, eax
  0001e	f7 d8		 neg	 eax

; 2123 : 	}

  00020	5e		 pop	 esi
  00021	3b ec		 cmp	 ebp, esp
  00023	e8 00 00 00 00	 call	 __RTC_CheckEsp
  00028	5d		 pop	 ebp
  00029	c3		 ret	 0
??9ATL@@YA_NABV?$CStringT@DV?$StrTraitMFC_DLL@DV?$ChTraitsCRT@D@ATL@@@@@0@PBD@Z ENDP ; ATL::operator!=
_TEXT	ENDS
END
