; Listing generated by Microsoft (R) Optimizing Compiler Version 13.10.3077 

	TITLE	.\src\module\httpDown\HttpDownCtrl.cpp
	.386P
include listing.inc
if @Version gt 510
.model FLAT
else
_TEXT	SEGMENT PARA USE32 PUBLIC 'CODE'
_TEXT	ENDS
_DATA	SEGMENT DWORD USE32 PUBLIC 'DATA'
_DATA	ENDS
CONST	SEGMENT DWORD USE32 PUBLIC 'CONST'
CONST	ENDS
_BSS	SEGMENT DWORD USE32 PUBLIC 'BSS'
_BSS	ENDS
$$SYMBOLS	SEGMENT BYTE USE32 'DEBSYM'
$$SYMBOLS	ENDS
_TLS	SEGMENT DWORD USE32 PUBLIC 'TLS'
_TLS	ENDS
;	COMDAT ??_C@_0EN@IBFBLEEG@D?3?2Program?5Files?5?$CIx86?$CJ?2Microsoft@
CONST	SEGMENT DWORD USE32 PUBLIC 'CONST'
CONST	ENDS
;	COMDAT ??_C@_0BE@JONHPENG@map?1set?$DMT?$DO?5too?5long?$AA@
CONST	SEGMENT DWORD USE32 PUBLIC 'CONST'
CONST	ENDS
;	COMDAT ??_C@_0BD@OLBABOEK@vector?$DMT?$DO?5too?5long?$AA@
CONST	SEGMENT DWORD USE32 PUBLIC 'CONST'
CONST	ENDS
rdata$r	SEGMENT DWORD USE32 PUBLIC 'CONST'
rdata$r	ENDS
xdata$x	SEGMENT DWORD USE32 PUBLIC 'CONST'
xdata$x	ENDS
text$AFX_COL1	SEGMENT PARA USE32 PUBLIC ''
text$AFX_COL1	ENDS
text$yc	SEGMENT PARA USE32 PUBLIC 'CODE'
text$yc	ENDS
CRT$XCA	SEGMENT DWORD USE32 PUBLIC 'DATA'
CRT$XCA	ENDS
CRT$XCU	SEGMENT DWORD USE32 PUBLIC 'DATA'
CRT$XCU	ENDS
CRT$XCL	SEGMENT DWORD USE32 PUBLIC 'DATA'
CRT$XCL	ENDS
CRT$XCC	SEGMENT DWORD USE32 PUBLIC 'DATA'
CRT$XCC	ENDS
CRT$XCZ	SEGMENT DWORD USE32 PUBLIC 'DATA'
CRT$XCZ	ENDS
text$yd	SEGMENT PARA USE32 PUBLIC 'CODE'
text$yd	ENDS
ATL$__m	SEGMENT DWORD USE32 PUBLIC ''
ATL$__m	ENDS
ATL$__z	SEGMENT DWORD USE32 PUBLIC ''
ATL$__z	ENDS
ATL$__a	SEGMENT DWORD USE32 PUBLIC ''
ATL$__a	ENDS
;	COMDAT ??1HTTPObserver@@UAE@XZ
_TEXT	SEGMENT PARA USE32 PUBLIC 'CODE'
_TEXT	ENDS
;	COMDAT ?HTTPOb_DownStart@HTTPObserver@@UAEXPBD0I@Z
_TEXT	SEGMENT PARA USE32 PUBLIC 'CODE'
_TEXT	ENDS
;	COMDAT ?HTTPOb_DownFinish@HTTPObserver@@UAEXPBD@Z
_TEXT	SEGMENT PARA USE32 PUBLIC 'CODE'
_TEXT	ENDS
;	COMDAT ?HTTPOb_DownFailed@HTTPObserver@@UAEXPBDW4HTTP_DOWN_FAILED_REASON@@@Z
_TEXT	SEGMENT PARA USE32 PUBLIC 'CODE'
_TEXT	ENDS
;	COMDAT ?HTTPOb_DownProgress@HTTPObserver@@UAEXPBDII@Z
_TEXT	SEGMENT PARA USE32 PUBLIC 'CODE'
_TEXT	ENDS
;	COMDAT ?HTTPOb_DownloadPause@HTTPObserver@@UAEXPBD@Z
_TEXT	SEGMENT PARA USE32 PUBLIC 'CODE'
_TEXT	ENDS
;	COMDAT ??_GHTTPObserver@@UAEPAXI@Z
_TEXT	SEGMENT PARA USE32 PUBLIC 'CODE'
_TEXT	ENDS
;	COMDAT _$E5
text$yc	SEGMENT PARA USE32 PUBLIC 'CODE'
text$yc	ENDS
;	COMDAT ??_GHttpDownCtrl@@UAEPAXI@Z
_TEXT	SEGMENT PARA USE32 PUBLIC 'CODE'
_TEXT	ENDS
;	COMDAT ??1?$map@V?$basic_string@DU?$char_traits@D@std@@V?$allocator@D@2@@std@@PAVYL_CHTTPDownFile@@U?$less@V?$basic_string@DU?$char_traits@D@std@@V?$allocator@D@2@@std@@@2@V?$allocator@U?$pair@$$CBV?$basic_string@DU?$char_traits@D@std@@V?$allocator@D@2@@std@@PAVYL_CHTTPDownFile@@@std@@@2@@std@@QAE@XZ
_TEXT	SEGMENT PARA USE32 PUBLIC 'CODE'
_TEXT	ENDS
;	COMDAT ??_GYL_CHTTPDownFile@@QAEPAXI@Z
_TEXT	SEGMENT PARA USE32 PUBLIC 'CODE'
_TEXT	ENDS
;	COMDAT ??B?$CComPtrBase@UITypeInfo2@@@ATL@@QBEPAUITypeInfo2@@XZ
_TEXT	SEGMENT PARA USE32 PUBLIC 'CODE'
_TEXT	ENDS
;	COMDAT ?equal@?$istreambuf_iterator@DU?$char_traits@D@std@@@std@@QBE_NABV12@@Z
_TEXT	SEGMENT PARA USE32 PUBLIC 'CODE'
_TEXT	ENDS
;	COMDAT ?equal@?$istreambuf_iterator@_WU?$char_traits@_W@std@@@std@@QBE_NABV12@@Z
_TEXT	SEGMENT PARA USE32 PUBLIC 'CODE'
_TEXT	ENDS
;	COMDAT ??0?$map@V?$basic_string@DU?$char_traits@D@std@@V?$allocator@D@2@@std@@PAVYL_CHTTPDownFile@@U?$less@V?$basic_string@DU?$char_traits@D@std@@V?$allocator@D@2@@std@@@2@V?$allocator@U?$pair@$$CBV?$basic_string@DU?$char_traits@D@std@@V?$allocator@D@2@@std@@PAVYL_CHTTPDownFile@@@std@@@2@@std@@QAE@XZ
_TEXT	SEGMENT PARA USE32 PUBLIC 'CODE'
_TEXT	ENDS
;	COMDAT ??A?$map@V?$basic_string@DU?$char_traits@D@std@@V?$allocator@D@2@@std@@PAVYL_CHTTPDownFile@@U?$less@V?$basic_string@DU?$char_traits@D@std@@V?$allocator@D@2@@std@@@2@V?$allocator@U?$pair@$$CBV?$basic_string@DU?$char_traits@D@std@@V?$allocator@D@2@@std@@PAVYL_CHTTPDownFile@@@std@@@2@@std@@QAEAAPAVYL_CHTTPDownFile@@ABV?$basic_string@DU?$char_traits@D@std@@V?$allocator@D@2@@1@@Z
_TEXT	SEGMENT PARA USE32 PUBLIC 'CODE'
_TEXT	ENDS
;	COMDAT ??1?$_Tree@V?$_Tmap_traits@V?$basic_string@DU?$char_traits@D@std@@V?$allocator@D@2@@std@@PAVYL_CHTTPDownFile@@U?$less@V?$basic_string@DU?$char_traits@D@std@@V?$allocator@D@2@@std@@@2@V?$allocator@U?$pair@$$CBV?$basic_string@DU?$char_traits@D@std@@V?$allocator@D@2@@std@@PAVYL_CHTTPDownFile@@@std@@@2@$0A@@std@@@std@@QAE@XZ
_TEXT	SEGMENT PARA USE32 PUBLIC 'CODE'
_TEXT	ENDS
;	COMDAT ?begin@?$_Tree@V?$_Tmap_traits@V?$basic_string@DU?$char_traits@D@std@@V?$allocator@D@2@@std@@PAVYL_CHTTPDownFile@@U?$less@V?$basic_string@DU?$char_traits@D@std@@V?$allocator@D@2@@std@@@2@V?$allocator@U?$pair@$$CBV?$basic_string@DU?$char_traits@D@std@@V?$allocator@D@2@@std@@PAVYL_CHTTPDownFile@@@std@@@2@$0A@@std@@@std@@QAE?AViterator@12@XZ
_TEXT	SEGMENT PARA USE32 PUBLIC 'CODE'
_TEXT	ENDS
;	COMDAT ?end@?$_Tree@V?$_Tmap_traits@V?$basic_string@DU?$char_traits@D@std@@V?$allocator@D@2@@std@@PAVYL_CHTTPDownFile@@U?$less@V?$basic_string@DU?$char_traits@D@std@@V?$allocator@D@2@@std@@@2@V?$allocator@U?$pair@$$CBV?$basic_string@DU?$char_traits@D@std@@V?$allocator@D@2@@std@@PAVYL_CHTTPDownFile@@@std@@@2@$0A@@std@@@std@@QAE?AViterator@12@XZ
_TEXT	SEGMENT PARA USE32 PUBLIC 'CODE'
_TEXT	ENDS
;	COMDAT ?size@?$_Tree@V?$_Tmap_traits@V?$basic_string@DU?$char_traits@D@std@@V?$allocator@D@2@@std@@PAVYL_CHTTPDownFile@@U?$less@V?$basic_string@DU?$char_traits@D@std@@V?$allocator@D@2@@std@@@2@V?$allocator@U?$pair@$$CBV?$basic_string@DU?$char_traits@D@std@@V?$allocator@D@2@@std@@PAVYL_CHTTPDownFile@@@std@@@2@$0A@@std@@@std@@QBEIXZ
_TEXT	SEGMENT PARA USE32 PUBLIC 'CODE'
_TEXT	ENDS
;	COMDAT ?erase@?$_Tree@V?$_Tmap_traits@V?$basic_string@DU?$char_traits@D@std@@V?$allocator@D@2@@std@@PAVYL_CHTTPDownFile@@U?$less@V?$basic_string@DU?$char_traits@D@std@@V?$allocator@D@2@@std@@@2@V?$allocator@U?$pair@$$CBV?$basic_string@DU?$char_traits@D@std@@V?$allocator@D@2@@std@@PAVYL_CHTTPDownFile@@@std@@@2@$0A@@std@@@std@@QAE?AViterator@12@V312@@Z
_TEXT	SEGMENT PARA USE32 PUBLIC 'CODE'
_TEXT	ENDS
;	COMDAT ?find@?$_Tree@V?$_Tmap_traits@V?$basic_string@DU?$char_traits@D@std@@V?$allocator@D@2@@std@@PAVYL_CHTTPDownFile@@U?$less@V?$basic_string@DU?$char_traits@D@std@@V?$allocator@D@2@@std@@@2@V?$allocator@U?$pair@$$CBV?$basic_string@DU?$char_traits@D@std@@V?$allocator@D@2@@std@@PAVYL_CHTTPDownFile@@@std@@@2@$0A@@std@@@std@@QAE?AViterator@12@ABV?$basic_string@DU?$char_traits@D@std@@V?$allocator@D@2@@2@@Z
_TEXT	SEGMENT PARA USE32 PUBLIC 'CODE'
_TEXT	ENDS
;	COMDAT ??Citerator@?$_Tree@V?$_Tmap_traits@V?$basic_string@DU?$char_traits@D@std@@V?$allocator@D@2@@std@@PAVYL_CHTTPDownFile@@U?$less@V?$basic_string@DU?$char_traits@D@std@@V?$allocator@D@2@@std@@@2@V?$allocator@U?$pair@$$CBV?$basic_string@DU?$char_traits@D@std@@V?$allocator@D@2@@std@@PAVYL_CHTTPDownFile@@@std@@@2@$0A@@std@@@std@@QBEPAU?$pair@$$CBV?$basic_string@DU?$char_traits@D@std@@V?$allocator@D@2@@std@@PAVYL_CHTTPDownFile@@@2@XZ
_TEXT	SEGMENT PARA USE32 PUBLIC 'CODE'
_TEXT	ENDS
;	COMDAT ??Eiterator@?$_Tree@V?$_Tmap_traits@V?$basic_string@DU?$char_traits@D@std@@V?$allocator@D@2@@std@@PAVYL_CHTTPDownFile@@U?$less@V?$basic_string@DU?$char_traits@D@std@@V?$allocator@D@2@@std@@@2@V?$allocator@U?$pair@$$CBV?$basic_string@DU?$char_traits@D@std@@V?$allocator@D@2@@std@@PAVYL_CHTTPDownFile@@@std@@@2@$0A@@std@@@std@@QAE?AV012@H@Z
_TEXT	SEGMENT PARA USE32 PUBLIC 'CODE'
_TEXT	ENDS
;	COMDAT ??9const_iterator@?$_Tree@V?$_Tmap_traits@V?$basic_string@DU?$char_traits@D@std@@V?$allocator@D@2@@std@@PAVYL_CHTTPDownFile@@U?$less@V?$basic_string@DU?$char_traits@D@std@@V?$allocator@D@2@@std@@@2@V?$allocator@U?$pair@$$CBV?$basic_string@DU?$char_traits@D@std@@V?$allocator@D@2@@std@@PAVYL_CHTTPDownFile@@@std@@@2@$0A@@std@@@std@@QBE_NABV012@@Z
_TEXT	SEGMENT PARA USE32 PUBLIC 'CODE'
_TEXT	ENDS
;	COMDAT ??0?$list@PAVIMessageObserver@@V?$allocator@PAVIMessageObserver@@@std@@@std@@QAE@XZ
_TEXT	SEGMENT PARA USE32 PUBLIC 'CODE'
_TEXT	ENDS
;	COMDAT ??1?$list@PAVIMessageObserver@@V?$allocator@PAVIMessageObserver@@@std@@@std@@QAE@XZ
_TEXT	SEGMENT PARA USE32 PUBLIC 'CODE'
_TEXT	ENDS
;	COMDAT ?begin@?$list@PAVIMessageObserver@@V?$allocator@PAVIMessageObserver@@@std@@@std@@QAE?AViterator@12@XZ
_TEXT	SEGMENT PARA USE32 PUBLIC 'CODE'
_TEXT	ENDS
;	COMDAT ?end@?$list@PAVIMessageObserver@@V?$allocator@PAVIMessageObserver@@@std@@@std@@QAE?AViterator@12@XZ
_TEXT	SEGMENT PARA USE32 PUBLIC 'CODE'
_TEXT	ENDS
;	COMDAT ??Diterator@?$list@PAVIMessageObserver@@V?$allocator@PAVIMessageObserver@@@std@@@std@@QBEAAPAVIMessageObserver@@XZ
_TEXT	SEGMENT PARA USE32 PUBLIC 'CODE'
_TEXT	ENDS
;	COMDAT ??Eiterator@?$list@PAVIMessageObserver@@V?$allocator@PAVIMessageObserver@@@std@@@std@@QAE?AV012@H@Z
_TEXT	SEGMENT PARA USE32 PUBLIC 'CODE'
_TEXT	ENDS
;	COMDAT ??9const_iterator@?$list@PAVIMessageObserver@@V?$allocator@PAVIMessageObserver@@@std@@@std@@QBE_NABV012@@Z
_TEXT	SEGMENT PARA USE32 PUBLIC 'CODE'
_TEXT	ENDS
;	COMDAT ??0?$vector@V?$basic_string@DU?$char_traits@D@std@@V?$allocator@D@2@@std@@V?$allocator@V?$basic_string@DU?$char_traits@D@std@@V?$allocator@D@2@@std@@@2@@std@@QAE@XZ
_TEXT	SEGMENT PARA USE32 PUBLIC 'CODE'
_TEXT	ENDS
;	COMDAT ??1?$vector@V?$basic_string@DU?$char_traits@D@std@@V?$allocator@D@2@@std@@V?$allocator@V?$basic_string@DU?$char_traits@D@std@@V?$allocator@D@2@@std@@@2@@std@@QAE@XZ
_TEXT	SEGMENT PARA USE32 PUBLIC 'CODE'
_TEXT	ENDS
;	COMDAT ?begin@?$vector@V?$basic_string@DU?$char_traits@D@std@@V?$allocator@D@2@@std@@V?$allocator@V?$basic_string@DU?$char_traits@D@std@@V?$allocator@D@2@@std@@@2@@std@@QAE?AViterator@12@XZ
_TEXT	SEGMENT PARA USE32 PUBLIC 'CODE'
_TEXT	ENDS
;	COMDAT ?end@?$vector@V?$basic_string@DU?$char_traits@D@std@@V?$allocator@D@2@@std@@V?$allocator@V?$basic_string@DU?$char_traits@D@std@@V?$allocator@D@2@@std@@@2@@std@@QAE?AViterator@12@XZ
_TEXT	SEGMENT PARA USE32 PUBLIC 'CODE'
_TEXT	ENDS
;	COMDAT ?push_back@?$vector@V?$basic_string@DU?$char_traits@D@std@@V?$allocator@D@2@@std@@V?$allocator@V?$basic_string@DU?$char_traits@D@std@@V?$allocator@D@2@@std@@@2@@std@@QAEXABV?$basic_string@DU?$char_traits@D@std@@V?$allocator@D@2@@2@@Z
_TEXT	SEGMENT PARA USE32 PUBLIC 'CODE'
_TEXT	ENDS
;	COMDAT ??Diterator@?$vector@V?$basic_string@DU?$char_traits@D@std@@V?$allocator@D@2@@std@@V?$allocator@V?$basic_string@DU?$char_traits@D@std@@V?$allocator@D@2@@std@@@2@@std@@QBEAAV?$basic_string@DU?$char_traits@D@std@@V?$allocator@D@2@@2@XZ
_TEXT	SEGMENT PARA USE32 PUBLIC 'CODE'
_TEXT	ENDS
;	COMDAT ??Eiterator@?$vector@V?$basic_string@DU?$char_traits@D@std@@V?$allocator@D@2@@std@@V?$allocator@V?$basic_string@DU?$char_traits@D@std@@V?$allocator@D@2@@std@@@2@@std@@QAE?AV012@H@Z
_TEXT	SEGMENT PARA USE32 PUBLIC 'CODE'
_TEXT	ENDS
;	COMDAT ??9const_iterator@?$vector@V?$basic_string@DU?$char_traits@D@std@@V?$allocator@D@2@@std@@V?$allocator@V?$basic_string@DU?$char_traits@D@std@@V?$allocator@D@2@@std@@@2@@std@@QBE_NABV012@@Z
_TEXT	SEGMENT PARA USE32 PUBLIC 'CODE'
_TEXT	ENDS
;	COMDAT ??1?$pair@$$CBV?$basic_string@DU?$char_traits@D@std@@V?$allocator@D@2@@std@@PAVYL_CHTTPDownFile@@@std@@QAE@XZ
_TEXT	SEGMENT PARA USE32 PUBLIC 'CODE'
_TEXT	ENDS
;	COMDAT ??R?$less@V?$basic_string@DU?$char_traits@D@std@@V?$allocator@D@2@@std@@@std@@QBE_NABV?$basic_string@DU?$char_traits@D@std@@V?$allocator@D@2@@1@0@Z
_TEXT	SEGMENT PARA USE32 PUBLIC 'CODE'
_TEXT	ENDS
;	COMDAT ??0?$allocator@V?$basic_string@DU?$char_traits@D@std@@V?$allocator@D@2@@std@@@std@@QAE@XZ
_TEXT	SEGMENT PARA USE32 PUBLIC 'CODE'
_TEXT	ENDS
;	COMDAT ?_Color@?$_Tree@V?$_Tmap_traits@V?$basic_string@DU?$char_traits@D@std@@V?$allocator@D@2@@std@@PAVYL_CHTTPDownFile@@U?$less@V?$basic_string@DU?$char_traits@D@std@@V?$allocator@D@2@@std@@@2@V?$allocator@U?$pair@$$CBV?$basic_string@DU?$char_traits@D@std@@V?$allocator@D@2@@std@@PAVYL_CHTTPDownFile@@@std@@@2@$0A@@std@@@std@@KAAADPAU_Node@?$_Tree_nod@V?$_Tmap_traits@V?$basic_string@DU?$char_traits@D@std@@V?$allocator@D@2@@std@@PAVYL_CHTTPDownFile@@U?$less@V?$basic_string@DU?$char_traits@D@std@@V?$allocator@D@2@@std@@@2@V?$allocator@U?$pair@$$CBV?$basic_string@DU?$char_traits@D@std@@V?$allocator@D@2@@std@@PAVYL_CHTTPDownFile@@@std@@@2@$0A@@std@@@2@@Z
_TEXT	SEGMENT PARA USE32 PUBLIC 'CODE'
_TEXT	ENDS
;	COMDAT ?_Isnil@?$_Tree@V?$_Tmap_traits@V?$basic_string@DU?$char_traits@D@std@@V?$allocator@D@2@@std@@PAVYL_CHTTPDownFile@@U?$less@V?$basic_string@DU?$char_traits@D@std@@V?$allocator@D@2@@std@@@2@V?$allocator@U?$pair@$$CBV?$basic_string@DU?$char_traits@D@std@@V?$allocator@D@2@@std@@PAVYL_CHTTPDownFile@@@std@@@2@$0A@@std@@@std@@KAAADPAU_Node@?$_Tree_nod@V?$_Tmap_traits@V?$basic_string@DU?$char_traits@D@std@@V?$allocator@D@2@@std@@PAVYL_CHTTPDownFile@@U?$less@V?$basic_string@DU?$char_traits@D@std@@V?$allocator@D@2@@std@@@2@V?$allocator@U?$pair@$$CBV?$basic_string@DU?$char_traits@D@std@@V?$allocator@D@2@@std@@PAVYL_CHTTPDownFile@@@std@@@2@$0A@@std@@@2@@Z
_TEXT	SEGMENT PARA USE32 PUBLIC 'CODE'
_TEXT	ENDS
;	COMDAT ?_Key@?$_Tree@V?$_Tmap_traits@V?$basic_string@DU?$char_traits@D@std@@V?$allocator@D@2@@std@@PAVYL_CHTTPDownFile@@U?$less@V?$basic_string@DU?$char_traits@D@std@@V?$allocator@D@2@@std@@@2@V?$allocator@U?$pair@$$CBV?$basic_string@DU?$char_traits@D@std@@V?$allocator@D@2@@std@@PAVYL_CHTTPDownFile@@@std@@@2@$0A@@std@@@std@@KAABV?$basic_string@DU?$char_traits@D@std@@V?$allocator@D@2@@2@PAU_Node@?$_Tree_nod@V?$_Tmap_traits@V?$basic_string@DU?$char_traits@D@std@@V?$allocator@D@2@@std@@PAVYL_CHTTPDownFile@@U?$less@V?$basic_string@DU?$char_traits@D@std@@V?$allocator@D@2@@std@@@2@V?$allocator@U?$pair@$$CBV?$basic_string@DU?$char_traits@D@std@@V?$allocator@D@2@@std@@PAVYL_CHTTPDownFile@@@std@@@2@$0A@@std@@@2@@Z
_TEXT	SEGMENT PARA USE32 PUBLIC 'CODE'
_TEXT	ENDS
;	COMDAT ?_Left@?$_Tree@V?$_Tmap_traits@V?$basic_string@DU?$char_traits@D@std@@V?$allocator@D@2@@std@@PAVYL_CHTTPDownFile@@U?$less@V?$basic_string@DU?$char_traits@D@std@@V?$allocator@D@2@@std@@@2@V?$allocator@U?$pair@$$CBV?$basic_string@DU?$char_traits@D@std@@V?$allocator@D@2@@std@@PAVYL_CHTTPDownFile@@@std@@@2@$0A@@std@@@std@@KAAAPAU_Node@?$_Tree_nod@V?$_Tmap_traits@V?$basic_string@DU?$char_traits@D@std@@V?$allocator@D@2@@std@@PAVYL_CHTTPDownFile@@U?$less@V?$basic_string@DU?$char_traits@D@std@@V?$allocator@D@2@@std@@@2@V?$allocator@U?$pair@$$CBV?$basic_string@DU?$char_traits@D@std@@V?$allocator@D@2@@std@@PAVYL_CHTTPDownFile@@@std@@@2@$0A@@std@@@2@PAU342@@Z
_TEXT	SEGMENT PARA USE32 PUBLIC 'CODE'
_TEXT	ENDS
;	COMDAT ?_Parent@?$_Tree@V?$_Tmap_traits@V?$basic_string@DU?$char_traits@D@std@@V?$allocator@D@2@@std@@PAVYL_CHTTPDownFile@@U?$less@V?$basic_string@DU?$char_traits@D@std@@V?$allocator@D@2@@std@@@2@V?$allocator@U?$pair@$$CBV?$basic_string@DU?$char_traits@D@std@@V?$allocator@D@2@@std@@PAVYL_CHTTPDownFile@@@std@@@2@$0A@@std@@@std@@KAAAPAU_Node@?$_Tree_nod@V?$_Tmap_traits@V?$basic_string@DU?$char_traits@D@std@@V?$allocator@D@2@@std@@PAVYL_CHTTPDownFile@@U?$less@V?$basic_string@DU?$char_traits@D@std@@V?$allocator@D@2@@std@@@2@V?$allocator@U?$pair@$$CBV?$basic_string@DU?$char_traits@D@std@@V?$allocator@D@2@@std@@PAVYL_CHTTPDownFile@@@std@@@2@$0A@@std@@@2@PAU342@@Z
_TEXT	SEGMENT PARA USE32 PUBLIC 'CODE'
_TEXT	ENDS
;	COMDAT ?_Right@?$_Tree@V?$_Tmap_traits@V?$basic_string@DU?$char_traits@D@std@@V?$allocator@D@2@@std@@PAVYL_CHTTPDownFile@@U?$less@V?$basic_string@DU?$char_traits@D@std@@V?$allocator@D@2@@std@@@2@V?$allocator@U?$pair@$$CBV?$basic_string@DU?$char_traits@D@std@@V?$allocator@D@2@@std@@PAVYL_CHTTPDownFile@@@std@@@2@$0A@@std@@@std@@KAAAPAU_Node@?$_Tree_nod@V?$_Tmap_traits@V?$basic_string@DU?$char_traits@D@std@@V?$allocator@D@2@@std@@PAVYL_CHTTPDownFile@@U?$less@V?$basic_string@DU?$char_traits@D@std@@V?$allocator@D@2@@std@@@2@V?$allocator@U?$pair@$$CBV?$basic_string@DU?$char_traits@D@std@@V?$allocator@D@2@@std@@PAVYL_CHTTPDownFile@@@std@@@2@$0A@@std@@@2@PAU342@@Z
_TEXT	SEGMENT PARA USE32 PUBLIC 'CODE'
_TEXT	ENDS
;	COMDAT ??0?$_Tree@V?$_Tmap_traits@V?$basic_string@DU?$char_traits@D@std@@V?$allocator@D@2@@std@@PAVYL_CHTTPDownFile@@U?$less@V?$basic_string@DU?$char_traits@D@std@@V?$allocator@D@2@@std@@@2@V?$allocator@U?$pair@$$CBV?$basic_string@DU?$char_traits@D@std@@V?$allocator@D@2@@std@@PAVYL_CHTTPDownFile@@@std@@@2@$0A@@std@@@std@@QAE@ABU?$less@V?$basic_string@DU?$char_traits@D@std@@V?$allocator@D@2@@std@@@1@ABV?$allocator@U?$pair@$$CBV?$basic_string@DU?$char_traits@D@std@@V?$allocator@D@2@@std@@PAVYL_CHTTPDownFile@@@std@@@1@@Z
_TEXT	SEGMENT PARA USE32 PUBLIC 'CODE'
_TEXT	ENDS
;	COMDAT ?insert@?$_Tree@V?$_Tmap_traits@V?$basic_string@DU?$char_traits@D@std@@V?$allocator@D@2@@std@@PAVYL_CHTTPDownFile@@U?$less@V?$basic_string@DU?$char_traits@D@std@@V?$allocator@D@2@@std@@@2@V?$allocator@U?$pair@$$CBV?$basic_string@DU?$char_traits@D@std@@V?$allocator@D@2@@std@@PAVYL_CHTTPDownFile@@@std@@@2@$0A@@std@@@std@@QAE?AViterator@12@V312@ABU?$pair@$$CBV?$basic_string@DU?$char_traits@D@std@@V?$allocator@D@2@@std@@PAVYL_CHTTPDownFile@@@2@@Z
_TEXT	SEGMENT PARA USE32 PUBLIC 'CODE'
_TEXT	ENDS
;	COMDAT ?lower_bound@?$_Tree@V?$_Tmap_traits@V?$basic_string@DU?$char_traits@D@std@@V?$allocator@D@2@@std@@PAVYL_CHTTPDownFile@@U?$less@V?$basic_string@DU?$char_traits@D@std@@V?$allocator@D@2@@std@@@2@V?$allocator@U?$pair@$$CBV?$basic_string@DU?$char_traits@D@std@@V?$allocator@D@2@@std@@PAVYL_CHTTPDownFile@@@std@@@2@$0A@@std@@@std@@QAE?AViterator@12@ABV?$basic_string@DU?$char_traits@D@std@@V?$allocator@D@2@@2@@Z
_TEXT	SEGMENT PARA USE32 PUBLIC 'CODE'
_TEXT	ENDS
;	COMDAT ?_Lmost@?$_Tree@V?$_Tmap_traits@V?$basic_string@DU?$char_traits@D@std@@V?$allocator@D@2@@std@@PAVYL_CHTTPDownFile@@U?$less@V?$basic_string@DU?$char_traits@D@std@@V?$allocator@D@2@@std@@@2@V?$allocator@U?$pair@$$CBV?$basic_string@DU?$char_traits@D@std@@V?$allocator@D@2@@std@@PAVYL_CHTTPDownFile@@@std@@@2@$0A@@std@@@std@@IAEAAPAU_Node@?$_Tree_nod@V?$_Tmap_traits@V?$basic_string@DU?$char_traits@D@std@@V?$allocator@D@2@@std@@PAVYL_CHTTPDownFile@@U?$less@V?$basic_string@DU?$char_traits@D@std@@V?$allocator@D@2@@std@@@2@V?$allocator@U?$pair@$$CBV?$basic_string@DU?$char_traits@D@std@@V?$allocator@D@2@@std@@PAVYL_CHTTPDownFile@@@std@@@2@$0A@@std@@@2@XZ
_TEXT	SEGMENT PARA USE32 PUBLIC 'CODE'
_TEXT	ENDS
;	COMDAT ?_Lrotate@?$_Tree@V?$_Tmap_traits@V?$basic_string@DU?$char_traits@D@std@@V?$allocator@D@2@@std@@PAVYL_CHTTPDownFile@@U?$less@V?$basic_string@DU?$char_traits@D@std@@V?$allocator@D@2@@std@@@2@V?$allocator@U?$pair@$$CBV?$basic_string@DU?$char_traits@D@std@@V?$allocator@D@2@@std@@PAVYL_CHTTPDownFile@@@std@@@2@$0A@@std@@@std@@IAEXPAU_Node@?$_Tree_nod@V?$_Tmap_traits@V?$basic_string@DU?$char_traits@D@std@@V?$allocator@D@2@@std@@PAVYL_CHTTPDownFile@@U?$less@V?$basic_string@DU?$char_traits@D@std@@V?$allocator@D@2@@std@@@2@V?$allocator@U?$pair@$$CBV?$basic_string@DU?$char_traits@D@std@@V?$allocator@D@2@@std@@PAVYL_CHTTPDownFile@@@std@@@2@$0A@@std@@@2@@Z
_TEXT	SEGMENT PARA USE32 PUBLIC 'CODE'
_TEXT	ENDS
;	COMDAT ?_Max@?$_Tree@V?$_Tmap_traits@V?$basic_string@DU?$char_traits@D@std@@V?$allocator@D@2@@std@@PAVYL_CHTTPDownFile@@U?$less@V?$basic_string@DU?$char_traits@D@std@@V?$allocator@D@2@@std@@@2@V?$allocator@U?$pair@$$CBV?$basic_string@DU?$char_traits@D@std@@V?$allocator@D@2@@std@@PAVYL_CHTTPDownFile@@@std@@@2@$0A@@std@@@std@@KAPAU_Node@?$_Tree_nod@V?$_Tmap_traits@V?$basic_string@DU?$char_traits@D@std@@V?$allocator@D@2@@std@@PAVYL_CHTTPDownFile@@U?$less@V?$basic_string@DU?$char_traits@D@std@@V?$allocator@D@2@@std@@@2@V?$allocator@U?$pair@$$CBV?$basic_string@DU?$char_traits@D@std@@V?$allocator@D@2@@std@@PAVYL_CHTTPDownFile@@@std@@@2@$0A@@std@@@2@PAU342@@Z
_TEXT	SEGMENT PARA USE32 PUBLIC 'CODE'
_TEXT	ENDS
;	COMDAT ?_Min@?$_Tree@V?$_Tmap_traits@V?$basic_string@DU?$char_traits@D@std@@V?$allocator@D@2@@std@@PAVYL_CHTTPDownFile@@U?$less@V?$basic_string@DU?$char_traits@D@std@@V?$allocator@D@2@@std@@@2@V?$allocator@U?$pair@$$CBV?$basic_string@DU?$char_traits@D@std@@V?$allocator@D@2@@std@@PAVYL_CHTTPDownFile@@@std@@@2@$0A@@std@@@std@@KAPAU_Node@?$_Tree_nod@V?$_Tmap_traits@V?$basic_string@DU?$char_traits@D@std@@V?$allocator@D@2@@std@@PAVYL_CHTTPDownFile@@U?$less@V?$basic_string@DU?$char_traits@D@std@@V?$allocator@D@2@@std@@@2@V?$allocator@U?$pair@$$CBV?$basic_string@DU?$char_traits@D@std@@V?$allocator@D@2@@std@@PAVYL_CHTTPDownFile@@@std@@@2@$0A@@std@@@2@PAU342@@Z
_TEXT	SEGMENT PARA USE32 PUBLIC 'CODE'
_TEXT	ENDS
;	COMDAT ?_Rmost@?$_Tree@V?$_Tmap_traits@V?$basic_string@DU?$char_traits@D@std@@V?$allocator@D@2@@std@@PAVYL_CHTTPDownFile@@U?$less@V?$basic_string@DU?$char_traits@D@std@@V?$allocator@D@2@@std@@@2@V?$allocator@U?$pair@$$CBV?$basic_string@DU?$char_traits@D@std@@V?$allocator@D@2@@std@@PAVYL_CHTTPDownFile@@@std@@@2@$0A@@std@@@std@@IAEAAPAU_Node@?$_Tree_nod@V?$_Tmap_traits@V?$basic_string@DU?$char_traits@D@std@@V?$allocator@D@2@@std@@PAVYL_CHTTPDownFile@@U?$less@V?$basic_string@DU?$char_traits@D@std@@V?$allocator@D@2@@std@@@2@V?$allocator@U?$pair@$$CBV?$basic_string@DU?$char_traits@D@std@@V?$allocator@D@2@@std@@PAVYL_CHTTPDownFile@@@std@@@2@$0A@@std@@@2@XZ
_TEXT	SEGMENT PARA USE32 PUBLIC 'CODE'
_TEXT	ENDS
;	COMDAT ?_Root@?$_Tree@V?$_Tmap_traits@V?$basic_string@DU?$char_traits@D@std@@V?$allocator@D@2@@std@@PAVYL_CHTTPDownFile@@U?$less@V?$basic_string@DU?$char_traits@D@std@@V?$allocator@D@2@@std@@@2@V?$allocator@U?$pair@$$CBV?$basic_string@DU?$char_traits@D@std@@V?$allocator@D@2@@std@@PAVYL_CHTTPDownFile@@@std@@@2@$0A@@std@@@std@@IAEAAPAU_Node@?$_Tree_nod@V?$_Tmap_traits@V?$basic_string@DU?$char_traits@D@std@@V?$allocator@D@2@@std@@PAVYL_CHTTPDownFile@@U?$less@V?$basic_string@DU?$char_traits@D@std@@V?$allocator@D@2@@std@@@2@V?$allocator@U?$pair@$$CBV?$basic_string@DU?$char_traits@D@std@@V?$allocator@D@2@@std@@PAVYL_CHTTPDownFile@@@std@@@2@$0A@@std@@@2@XZ
_TEXT	SEGMENT PARA USE32 PUBLIC 'CODE'
_TEXT	ENDS
;	COMDAT ?_Rrotate@?$_Tree@V?$_Tmap_traits@V?$basic_string@DU?$char_traits@D@std@@V?$allocator@D@2@@std@@PAVYL_CHTTPDownFile@@U?$less@V?$basic_string@DU?$char_traits@D@std@@V?$allocator@D@2@@std@@@2@V?$allocator@U?$pair@$$CBV?$basic_string@DU?$char_traits@D@std@@V?$allocator@D@2@@std@@PAVYL_CHTTPDownFile@@@std@@@2@$0A@@std@@@std@@IAEXPAU_Node@?$_Tree_nod@V?$_Tmap_traits@V?$basic_string@DU?$char_traits@D@std@@V?$allocator@D@2@@std@@PAVYL_CHTTPDownFile@@U?$less@V?$basic_string@DU?$char_traits@D@std@@V?$allocator@D@2@@std@@@2@V?$allocator@U?$pair@$$CBV?$basic_string@DU?$char_traits@D@std@@V?$allocator@D@2@@std@@PAVYL_CHTTPDownFile@@@std@@@2@$0A@@std@@@2@@Z
_TEXT	SEGMENT PARA USE32 PUBLIC 'CODE'
_TEXT	ENDS
;	COMDAT ?_Tidy@?$_Tree@V?$_Tmap_traits@V?$basic_string@DU?$char_traits@D@std@@V?$allocator@D@2@@std@@PAVYL_CHTTPDownFile@@U?$less@V?$basic_string@DU?$char_traits@D@std@@V?$allocator@D@2@@std@@@2@V?$allocator@U?$pair@$$CBV?$basic_string@DU?$char_traits@D@std@@V?$allocator@D@2@@std@@PAVYL_CHTTPDownFile@@@std@@@2@$0A@@std@@@std@@IAEXXZ
_TEXT	SEGMENT PARA USE32 PUBLIC 'CODE'
_TEXT	ENDS
;	COMDAT ??0?$allocator@U?$pair@$$CBV?$basic_string@DU?$char_traits@D@std@@V?$allocator@D@2@@std@@PAVYL_CHTTPDownFile@@@std@@@std@@QAE@XZ
_TEXT	SEGMENT PARA USE32 PUBLIC 'CODE'
_TEXT	ENDS
;	COMDAT ?deallocate@?$allocator@U_Node@?$_Tree_nod@V?$_Tmap_traits@V?$basic_string@DU?$char_traits@D@std@@V?$allocator@D@2@@std@@PAVYL_CHTTPDownFile@@U?$less@V?$basic_string@DU?$char_traits@D@std@@V?$allocator@D@2@@std@@@2@V?$allocator@U?$pair@$$CBV?$basic_string@DU?$char_traits@D@std@@V?$allocator@D@2@@std@@PAVYL_CHTTPDownFile@@@std@@@2@$0A@@std@@@std@@@std@@QAEXPAU_Node@?$_Tree_nod@V?$_Tmap_traits@V?$basic_string@DU?$char_traits@D@std@@V?$allocator@D@2@@std@@PAVYL_CHTTPDownFile@@U?$less@V?$basic_string@DU?$char_traits@D@std@@V?$allocator@D@2@@std@@@2@V?$allocator@U?$pair@$$CBV?$basic_string@DU?$char_traits@D@std@@V?$allocator@D@2@@std@@PAVYL_CHTTPDownFile@@@std@@@2@$0A@@std@@@2@I@Z
_TEXT	SEGMENT PARA USE32 PUBLIC 'CODE'
_TEXT	ENDS
;	COMDAT ?destroy@?$allocator@U_Node@?$_Tree_nod@V?$_Tmap_traits@V?$basic_string@DU?$char_traits@D@std@@V?$allocator@D@2@@std@@PAVYL_CHTTPDownFile@@U?$less@V?$basic_string@DU?$char_traits@D@std@@V?$allocator@D@2@@std@@@2@V?$allocator@U?$pair@$$CBV?$basic_string@DU?$char_traits@D@std@@V?$allocator@D@2@@std@@PAVYL_CHTTPDownFile@@@std@@@2@$0A@@std@@@std@@@std@@QAEXPAU_Node@?$_Tree_nod@V?$_Tmap_traits@V?$basic_string@DU?$char_traits@D@std@@V?$allocator@D@2@@std@@PAVYL_CHTTPDownFile@@U?$less@V?$basic_string@DU?$char_traits@D@std@@V?$allocator@D@2@@std@@@2@V?$allocator@U?$pair@$$CBV?$basic_string@DU?$char_traits@D@std@@V?$allocator@D@2@@std@@PAVYL_CHTTPDownFile@@@std@@@2@$0A@@std@@@2@@Z
_TEXT	SEGMENT PARA USE32 PUBLIC 'CODE'
_TEXT	ENDS
;	COMDAT ??0iterator@?$_Tree@V?$_Tmap_traits@V?$basic_string@DU?$char_traits@D@std@@V?$allocator@D@2@@std@@PAVYL_CHTTPDownFile@@U?$less@V?$basic_string@DU?$char_traits@D@std@@V?$allocator@D@2@@std@@@2@V?$allocator@U?$pair@$$CBV?$basic_string@DU?$char_traits@D@std@@V?$allocator@D@2@@std@@PAVYL_CHTTPDownFile@@@std@@@2@$0A@@std@@@std@@QAE@PAU_Node@?$_Tree_nod@V?$_Tmap_traits@V?$basic_string@DU?$char_traits@D@std@@V?$allocator@D@2@@std@@PAVYL_CHTTPDownFile@@U?$less@V?$basic_string@DU?$char_traits@D@std@@V?$allocator@D@2@@std@@@2@V?$allocator@U?$pair@$$CBV?$basic_string@DU?$char_traits@D@std@@V?$allocator@D@2@@std@@PAVYL_CHTTPDownFile@@@std@@@2@$0A@@std@@@2@@Z
_TEXT	SEGMENT PARA USE32 PUBLIC 'CODE'
_TEXT	ENDS
;	COMDAT ??Diterator@?$_Tree@V?$_Tmap_traits@V?$basic_string@DU?$char_traits@D@std@@V?$allocator@D@2@@std@@PAVYL_CHTTPDownFile@@U?$less@V?$basic_string@DU?$char_traits@D@std@@V?$allocator@D@2@@std@@@2@V?$allocator@U?$pair@$$CBV?$basic_string@DU?$char_traits@D@std@@V?$allocator@D@2@@std@@PAVYL_CHTTPDownFile@@@std@@@2@$0A@@std@@@std@@QBEAAU?$pair@$$CBV?$basic_string@DU?$char_traits@D@std@@V?$allocator@D@2@@std@@PAVYL_CHTTPDownFile@@@2@XZ
_TEXT	SEGMENT PARA USE32 PUBLIC 'CODE'
_TEXT	ENDS
;	COMDAT ??Eiterator@?$_Tree@V?$_Tmap_traits@V?$basic_string@DU?$char_traits@D@std@@V?$allocator@D@2@@std@@PAVYL_CHTTPDownFile@@U?$less@V?$basic_string@DU?$char_traits@D@std@@V?$allocator@D@2@@std@@@2@V?$allocator@U?$pair@$$CBV?$basic_string@DU?$char_traits@D@std@@V?$allocator@D@2@@std@@PAVYL_CHTTPDownFile@@@std@@@2@$0A@@std@@@std@@QAEAAV012@XZ
_TEXT	SEGMENT PARA USE32 PUBLIC 'CODE'
_TEXT	ENDS
;	COMDAT ??8const_iterator@?$_Tree@V?$_Tmap_traits@V?$basic_string@DU?$char_traits@D@std@@V?$allocator@D@2@@std@@PAVYL_CHTTPDownFile@@U?$less@V?$basic_string@DU?$char_traits@D@std@@V?$allocator@D@2@@std@@@2@V?$allocator@U?$pair@$$CBV?$basic_string@DU?$char_traits@D@std@@V?$allocator@D@2@@std@@PAVYL_CHTTPDownFile@@@std@@@2@$0A@@std@@@std@@QBE_NABV012@@Z
_TEXT	SEGMENT PARA USE32 PUBLIC 'CODE'
_TEXT	ENDS
;	COMDAT ?_Mynode@const_iterator@?$_Tree@V?$_Tmap_traits@V?$basic_string@DU?$char_traits@D@std@@V?$allocator@D@2@@std@@PAVYL_CHTTPDownFile@@U?$less@V?$basic_string@DU?$char_traits@D@std@@V?$allocator@D@2@@std@@@2@V?$allocator@U?$pair@$$CBV?$basic_string@DU?$char_traits@D@std@@V?$allocator@D@2@@std@@PAVYL_CHTTPDownFile@@@std@@@2@$0A@@std@@@std@@QBEPAU_Node@?$_Tree_nod@V?$_Tmap_traits@V?$basic_string@DU?$char_traits@D@std@@V?$allocator@D@2@@std@@PAVYL_CHTTPDownFile@@U?$less@V?$basic_string@DU?$char_traits@D@std@@V?$allocator@D@2@@std@@@2@V?$allocator@U?$pair@$$CBV?$basic_string@DU?$char_traits@D@std@@V?$allocator@D@2@@std@@PAVYL_CHTTPDownFile@@@std@@@2@$0A@@std@@@3@XZ
_TEXT	SEGMENT PARA USE32 PUBLIC 'CODE'
_TEXT	ENDS
;	COMDAT ??0?$pair@$$CBV?$basic_string@DU?$char_traits@D@std@@V?$allocator@D@2@@std@@PAVYL_CHTTPDownFile@@@std@@QAE@ABV?$basic_string@DU?$char_traits@D@std@@V?$allocator@D@2@@1@ABQAVYL_CHTTPDownFile@@@Z
_TEXT	SEGMENT PARA USE32 PUBLIC 'CODE'
_TEXT	ENDS
;	COMDAT ?_Nextnode@?$list@PAVIMessageObserver@@V?$allocator@PAVIMessageObserver@@@std@@@std@@KAAAPAU_Node@?$_List_nod@PAVIMessageObserver@@V?$allocator@PAVIMessageObserver@@@std@@@2@PAU342@@Z
_TEXT	SEGMENT PARA USE32 PUBLIC 'CODE'
_TEXT	ENDS
;	COMDAT ?_Buynode@?$list@PAVIMessageObserver@@V?$allocator@PAVIMessageObserver@@@std@@@std@@IAEPAU_Node@?$_List_nod@PAVIMessageObserver@@V?$allocator@PAVIMessageObserver@@@std@@@2@XZ
_TEXT	SEGMENT PARA USE32 PUBLIC 'CODE'
_TEXT	ENDS
;	COMDAT ?_Tidy@?$list@PAVIMessageObserver@@V?$allocator@PAVIMessageObserver@@@std@@@std@@IAEXXZ
_TEXT	SEGMENT PARA USE32 PUBLIC 'CODE'
_TEXT	ENDS
;	COMDAT ??0?$_List_val@PAVIMessageObserver@@V?$allocator@PAVIMessageObserver@@@std@@@std@@IAE@V?$allocator@PAVIMessageObserver@@@1@@Z
_TEXT	SEGMENT PARA USE32 PUBLIC 'CODE'
_TEXT	ENDS
;	COMDAT ??0?$allocator@PAVIMessageObserver@@@std@@QAE@XZ
_TEXT	SEGMENT PARA USE32 PUBLIC 'CODE'
_TEXT	ENDS
;	COMDAT ??0iterator@?$list@PAVIMessageObserver@@V?$allocator@PAVIMessageObserver@@@std@@@std@@QAE@PAU_Node@?$_List_nod@PAVIMessageObserver@@V?$allocator@PAVIMessageObserver@@@std@@@2@@Z
_TEXT	SEGMENT PARA USE32 PUBLIC 'CODE'
_TEXT	ENDS
;	COMDAT ??Eiterator@?$list@PAVIMessageObserver@@V?$allocator@PAVIMessageObserver@@@std@@@std@@QAEAAV012@XZ
_TEXT	SEGMENT PARA USE32 PUBLIC 'CODE'
_TEXT	ENDS
;	COMDAT ??Dconst_iterator@?$list@PAVIMessageObserver@@V?$allocator@PAVIMessageObserver@@@std@@@std@@QBEABQAVIMessageObserver@@XZ
_TEXT	SEGMENT PARA USE32 PUBLIC 'CODE'
_TEXT	ENDS
;	COMDAT ??8const_iterator@?$list@PAVIMessageObserver@@V?$allocator@PAVIMessageObserver@@@std@@@std@@QBE_NABV012@@Z
_TEXT	SEGMENT PARA USE32 PUBLIC 'CODE'
_TEXT	ENDS
;	COMDAT ?capacity@?$vector@V?$basic_string@DU?$char_traits@D@std@@V?$allocator@D@2@@std@@V?$allocator@V?$basic_string@DU?$char_traits@D@std@@V?$allocator@D@2@@std@@@2@@std@@QBEIXZ
_TEXT	SEGMENT PARA USE32 PUBLIC 'CODE'
_TEXT	ENDS
;	COMDAT ?size@?$vector@V?$basic_string@DU?$char_traits@D@std@@V?$allocator@D@2@@std@@V?$allocator@V?$basic_string@DU?$char_traits@D@std@@V?$allocator@D@2@@std@@@2@@std@@QBEIXZ
_TEXT	SEGMENT PARA USE32 PUBLIC 'CODE'
_TEXT	ENDS
;	COMDAT ?insert@?$vector@V?$basic_string@DU?$char_traits@D@std@@V?$allocator@D@2@@std@@V?$allocator@V?$basic_string@DU?$char_traits@D@std@@V?$allocator@D@2@@std@@@2@@std@@QAE?AViterator@12@V312@ABV?$basic_string@DU?$char_traits@D@std@@V?$allocator@D@2@@2@@Z
_TEXT	SEGMENT PARA USE32 PUBLIC 'CODE'
_TEXT	ENDS
;	COMDAT ?_Buy@?$vector@V?$basic_string@DU?$char_traits@D@std@@V?$allocator@D@2@@std@@V?$allocator@V?$basic_string@DU?$char_traits@D@std@@V?$allocator@D@2@@std@@@2@@std@@IAE_NI@Z
_TEXT	SEGMENT PARA USE32 PUBLIC 'CODE'
_TEXT	ENDS
;	COMDAT ?_Tidy@?$vector@V?$basic_string@DU?$char_traits@D@std@@V?$allocator@D@2@@std@@V?$allocator@V?$basic_string@DU?$char_traits@D@std@@V?$allocator@D@2@@std@@@2@@std@@IAEXXZ
_TEXT	SEGMENT PARA USE32 PUBLIC 'CODE'
_TEXT	ENDS
;	COMDAT ?_Ufill@?$vector@V?$basic_string@DU?$char_traits@D@std@@V?$allocator@D@2@@std@@V?$allocator@V?$basic_string@DU?$char_traits@D@std@@V?$allocator@D@2@@std@@@2@@std@@IAEPAV?$basic_string@DU?$char_traits@D@std@@V?$allocator@D@2@@2@PAV32@IABV32@@Z
_TEXT	SEGMENT PARA USE32 PUBLIC 'CODE'
_TEXT	ENDS
;	COMDAT ??0?$_Vector_val@V?$basic_string@DU?$char_traits@D@std@@V?$allocator@D@2@@std@@V?$allocator@V?$basic_string@DU?$char_traits@D@std@@V?$allocator@D@2@@std@@@2@@std@@IAE@V?$allocator@V?$basic_string@DU?$char_traits@D@std@@V?$allocator@D@2@@std@@@1@@Z
_TEXT	SEGMENT PARA USE32 PUBLIC 'CODE'
_TEXT	ENDS
;	COMDAT ??0iterator@?$vector@V?$basic_string@DU?$char_traits@D@std@@V?$allocator@D@2@@std@@V?$allocator@V?$basic_string@DU?$char_traits@D@std@@V?$allocator@D@2@@std@@@2@@std@@QAE@PAV?$basic_string@DU?$char_traits@D@std@@V?$allocator@D@2@@2@@Z
_TEXT	SEGMENT PARA USE32 PUBLIC 'CODE'
_TEXT	ENDS
;	COMDAT ??Eiterator@?$vector@V?$basic_string@DU?$char_traits@D@std@@V?$allocator@D@2@@std@@V?$allocator@V?$basic_string@DU?$char_traits@D@std@@V?$allocator@D@2@@std@@@2@@std@@QAEAAV012@XZ
_TEXT	SEGMENT PARA USE32 PUBLIC 'CODE'
_TEXT	ENDS
;	COMDAT ??Dconst_iterator@?$vector@V?$basic_string@DU?$char_traits@D@std@@V?$allocator@D@2@@std@@V?$allocator@V?$basic_string@DU?$char_traits@D@std@@V?$allocator@D@2@@std@@@2@@std@@QBEABV?$basic_string@DU?$char_traits@D@std@@V?$allocator@D@2@@2@XZ
_TEXT	SEGMENT PARA USE32 PUBLIC 'CODE'
_TEXT	ENDS
;	COMDAT ??8const_iterator@?$vector@V?$basic_string@DU?$char_traits@D@std@@V?$allocator@D@2@@std@@V?$allocator@V?$basic_string@DU?$char_traits@D@std@@V?$allocator@D@2@@std@@@2@@std@@QBE_NABV012@@Z
_TEXT	SEGMENT PARA USE32 PUBLIC 'CODE'
_TEXT	ENDS
;	COMDAT ??0?$allocator@V?$basic_string@DU?$char_traits@D@std@@V?$allocator@D@2@@std@@@std@@QAE@ABV01@@Z
_TEXT	SEGMENT PARA USE32 PUBLIC 'CODE'
_TEXT	ENDS
;	COMDAT ?deallocate@?$allocator@V?$basic_string@DU?$char_traits@D@std@@V?$allocator@D@2@@std@@@std@@QAEXPAV?$basic_string@DU?$char_traits@D@std@@V?$allocator@D@2@@2@I@Z
_TEXT	SEGMENT PARA USE32 PUBLIC 'CODE'
_TEXT	ENDS
;	COMDAT ?allocate@?$allocator@V?$basic_string@DU?$char_traits@D@std@@V?$allocator@D@2@@std@@@std@@QAEPAV?$basic_string@DU?$char_traits@D@std@@V?$allocator@D@2@@2@I@Z
_TEXT	SEGMENT PARA USE32 PUBLIC 'CODE'
_TEXT	ENDS
;	COMDAT ?_Myval@?$_Tree@V?$_Tmap_traits@V?$basic_string@DU?$char_traits@D@std@@V?$allocator@D@2@@std@@PAVYL_CHTTPDownFile@@U?$less@V?$basic_string@DU?$char_traits@D@std@@V?$allocator@D@2@@std@@@2@V?$allocator@U?$pair@$$CBV?$basic_string@DU?$char_traits@D@std@@V?$allocator@D@2@@std@@PAVYL_CHTTPDownFile@@@std@@@2@$0A@@std@@@std@@KAAAU?$pair@$$CBV?$basic_string@DU?$char_traits@D@std@@V?$allocator@D@2@@std@@PAVYL_CHTTPDownFile@@@2@PAU_Node@?$_Tree_nod@V?$_Tmap_traits@V?$basic_string@DU?$char_traits@D@std@@V?$allocator@D@2@@std@@PAVYL_CHTTPDownFile@@U?$less@V?$basic_string@DU?$char_traits@D@std@@V?$allocator@D@2@@std@@@2@V?$allocator@U?$pair@$$CBV?$basic_string@DU?$char_traits@D@std@@V?$allocator@D@2@@std@@PAVYL_CHTTPDownFile@@@std@@@2@$0A@@std@@@2@@Z
_TEXT	SEGMENT PARA USE32 PUBLIC 'CODE'
_TEXT	ENDS
;	COMDAT ?insert@?$_Tree@V?$_Tmap_traits@V?$basic_string@DU?$char_traits@D@std@@V?$allocator@D@2@@std@@PAVYL_CHTTPDownFile@@U?$less@V?$basic_string@DU?$char_traits@D@std@@V?$allocator@D@2@@std@@@2@V?$allocator@U?$pair@$$CBV?$basic_string@DU?$char_traits@D@std@@V?$allocator@D@2@@std@@PAVYL_CHTTPDownFile@@@std@@@2@$0A@@std@@@std@@QAE?AU?$pair@Viterator@?$_Tree@V?$_Tmap_traits@V?$basic_string@DU?$char_traits@D@std@@V?$allocator@D@2@@std@@PAVYL_CHTTPDownFile@@U?$less@V?$basic_string@DU?$char_traits@D@std@@V?$allocator@D@2@@std@@@2@V?$allocator@U?$pair@$$CBV?$basic_string@DU?$char_traits@D@std@@V?$allocator@D@2@@std@@PAVYL_CHTTPDownFile@@@std@@@2@$0A@@std@@@std@@_N@2@ABU?$pair@$$CBV?$basic_string@DU?$char_traits@D@std@@V?$allocator@D@2@@std@@PAVYL_CHTTPDownFile@@@2@@Z
_TEXT	SEGMENT PARA USE32 PUBLIC 'CODE'
_TEXT	ENDS
;	COMDAT ?erase@?$_Tree@V?$_Tmap_traits@V?$basic_string@DU?$char_traits@D@std@@V?$allocator@D@2@@std@@PAVYL_CHTTPDownFile@@U?$less@V?$basic_string@DU?$char_traits@D@std@@V?$allocator@D@2@@std@@@2@V?$allocator@U?$pair@$$CBV?$basic_string@DU?$char_traits@D@std@@V?$allocator@D@2@@std@@PAVYL_CHTTPDownFile@@@std@@@2@$0A@@std@@@std@@QAE?AViterator@12@V312@0@Z
_TEXT	SEGMENT PARA USE32 PUBLIC 'CODE'
_TEXT	ENDS
;	COMDAT ?_Init@?$_Tree@V?$_Tmap_traits@V?$basic_string@DU?$char_traits@D@std@@V?$allocator@D@2@@std@@PAVYL_CHTTPDownFile@@U?$less@V?$basic_string@DU?$char_traits@D@std@@V?$allocator@D@2@@std@@@2@V?$allocator@U?$pair@$$CBV?$basic_string@DU?$char_traits@D@std@@V?$allocator@D@2@@std@@PAVYL_CHTTPDownFile@@@std@@@2@$0A@@std@@@std@@IAEXXZ
_TEXT	SEGMENT PARA USE32 PUBLIC 'CODE'
_TEXT	ENDS
;	COMDAT ?_Insert@?$_Tree@V?$_Tmap_traits@V?$basic_string@DU?$char_traits@D@std@@V?$allocator@D@2@@std@@PAVYL_CHTTPDownFile@@U?$less@V?$basic_string@DU?$char_traits@D@std@@V?$allocator@D@2@@std@@@2@V?$allocator@U?$pair@$$CBV?$basic_string@DU?$char_traits@D@std@@V?$allocator@D@2@@std@@PAVYL_CHTTPDownFile@@@std@@@2@$0A@@std@@@std@@IAE?AViterator@12@_NPAU_Node@?$_Tree_nod@V?$_Tmap_traits@V?$basic_string@DU?$char_traits@D@std@@V?$allocator@D@2@@std@@PAVYL_CHTTPDownFile@@U?$less@V?$basic_string@DU?$char_traits@D@std@@V?$allocator@D@2@@std@@@2@V?$allocator@U?$pair@$$CBV?$basic_string@DU?$char_traits@D@std@@V?$allocator@D@2@@std@@PAVYL_CHTTPDownFile@@@std@@@2@$0A@@std@@@2@ABU?$pair@$$CBV?$basic_string@DU?$char_traits@D@std@@V?$allocator@D@2@@std@@PAVYL_CHTTPDownFile@@@2@@Z
_TEXT	SEGMENT PARA USE32 PUBLIC 'CODE'
_TEXT	ENDS
;	COMDAT ?_Lbound@?$_Tree@V?$_Tmap_traits@V?$basic_string@DU?$char_traits@D@std@@V?$allocator@D@2@@std@@PAVYL_CHTTPDownFile@@U?$less@V?$basic_string@DU?$char_traits@D@std@@V?$allocator@D@2@@std@@@2@V?$allocator@U?$pair@$$CBV?$basic_string@DU?$char_traits@D@std@@V?$allocator@D@2@@std@@PAVYL_CHTTPDownFile@@@std@@@2@$0A@@std@@@std@@IBEPAU_Node@?$_Tree_nod@V?$_Tmap_traits@V?$basic_string@DU?$char_traits@D@std@@V?$allocator@D@2@@std@@PAVYL_CHTTPDownFile@@U?$less@V?$basic_string@DU?$char_traits@D@std@@V?$allocator@D@2@@std@@@2@V?$allocator@U?$pair@$$CBV?$basic_string@DU?$char_traits@D@std@@V?$allocator@D@2@@std@@PAVYL_CHTTPDownFile@@@std@@@2@$0A@@std@@@2@ABV?$basic_string@DU?$char_traits@D@std@@V?$allocator@D@2@@2@@Z
_TEXT	SEGMENT PARA USE32 PUBLIC 'CODE'
_TEXT	ENDS
;	COMDAT ??0?$_Tree_val@V?$_Tmap_traits@V?$basic_string@DU?$char_traits@D@std@@V?$allocator@D@2@@std@@PAVYL_CHTTPDownFile@@U?$less@V?$basic_string@DU?$char_traits@D@std@@V?$allocator@D@2@@std@@@2@V?$allocator@U?$pair@$$CBV?$basic_string@DU?$char_traits@D@std@@V?$allocator@D@2@@std@@PAVYL_CHTTPDownFile@@@std@@@2@$0A@@std@@@std@@IAE@ABU?$less@V?$basic_string@DU?$char_traits@D@std@@V?$allocator@D@2@@std@@@1@V?$allocator@U?$pair@$$CBV?$basic_string@DU?$char_traits@D@std@@V?$allocator@D@2@@std@@PAVYL_CHTTPDownFile@@@std@@@1@@Z
_TEXT	SEGMENT PARA USE32 PUBLIC 'CODE'
_TEXT	ENDS
;	COMDAT ?_Kfn@?$_Tmap_traits@V?$basic_string@DU?$char_traits@D@std@@V?$allocator@D@2@@std@@PAVYL_CHTTPDownFile@@U?$less@V?$basic_string@DU?$char_traits@D@std@@V?$allocator@D@2@@std@@@2@V?$allocator@U?$pair@$$CBV?$basic_string@DU?$char_traits@D@std@@V?$allocator@D@2@@std@@PAVYL_CHTTPDownFile@@@std@@@2@$0A@@std@@SAABV?$basic_string@DU?$char_traits@D@std@@V?$allocator@D@2@@2@ABU?$pair@$$CBV?$basic_string@DU?$char_traits@D@std@@V?$allocator@D@2@@std@@PAVYL_CHTTPDownFile@@@2@@Z
_TEXT	SEGMENT PARA USE32 PUBLIC 'CODE'
_TEXT	ENDS
;	COMDAT ??0?$allocator@U?$pair@$$CBV?$basic_string@DU?$char_traits@D@std@@V?$allocator@D@2@@std@@PAVYL_CHTTPDownFile@@@std@@@std@@QAE@ABV01@@Z
_TEXT	SEGMENT PARA USE32 PUBLIC 'CODE'
_TEXT	ENDS
;	COMDAT ?destroy@?$allocator@PAU_Node@?$_Tree_nod@V?$_Tmap_traits@V?$basic_string@DU?$char_traits@D@std@@V?$allocator@D@2@@std@@PAVYL_CHTTPDownFile@@U?$less@V?$basic_string@DU?$char_traits@D@std@@V?$allocator@D@2@@std@@@2@V?$allocator@U?$pair@$$CBV?$basic_string@DU?$char_traits@D@std@@V?$allocator@D@2@@std@@PAVYL_CHTTPDownFile@@@std@@@2@$0A@@std@@@std@@@std@@QAEXPAPAU_Node@?$_Tree_nod@V?$_Tmap_traits@V?$basic_string@DU?$char_traits@D@std@@V?$allocator@D@2@@std@@PAVYL_CHTTPDownFile@@U?$less@V?$basic_string@DU?$char_traits@D@std@@V?$allocator@D@2@@std@@@2@V?$allocator@U?$pair@$$CBV?$basic_string@DU?$char_traits@D@std@@V?$allocator@D@2@@std@@PAVYL_CHTTPDownFile@@@std@@@2@$0A@@std@@@2@@Z
_TEXT	SEGMENT PARA USE32 PUBLIC 'CODE'
_TEXT	ENDS
;	COMDAT ??0iterator@?$_Tree@V?$_Tmap_traits@V?$basic_string@DU?$char_traits@D@std@@V?$allocator@D@2@@std@@PAVYL_CHTTPDownFile@@U?$less@V?$basic_string@DU?$char_traits@D@std@@V?$allocator@D@2@@std@@@2@V?$allocator@U?$pair@$$CBV?$basic_string@DU?$char_traits@D@std@@V?$allocator@D@2@@std@@PAVYL_CHTTPDownFile@@@std@@@2@$0A@@std@@@std@@QAE@XZ
_TEXT	SEGMENT PARA USE32 PUBLIC 'CODE'
_TEXT	ENDS
;	COMDAT ??Fiterator@?$_Tree@V?$_Tmap_traits@V?$basic_string@DU?$char_traits@D@std@@V?$allocator@D@2@@std@@PAVYL_CHTTPDownFile@@U?$less@V?$basic_string@DU?$char_traits@D@std@@V?$allocator@D@2@@std@@@2@V?$allocator@U?$pair@$$CBV?$basic_string@DU?$char_traits@D@std@@V?$allocator@D@2@@std@@PAVYL_CHTTPDownFile@@@std@@@2@$0A@@std@@@std@@QAEAAV012@XZ
_TEXT	SEGMENT PARA USE32 PUBLIC 'CODE'
_TEXT	ENDS
;	COMDAT ??0const_iterator@?$_Tree@V?$_Tmap_traits@V?$basic_string@DU?$char_traits@D@std@@V?$allocator@D@2@@std@@PAVYL_CHTTPDownFile@@U?$less@V?$basic_string@DU?$char_traits@D@std@@V?$allocator@D@2@@std@@@2@V?$allocator@U?$pair@$$CBV?$basic_string@DU?$char_traits@D@std@@V?$allocator@D@2@@std@@PAVYL_CHTTPDownFile@@@std@@@2@$0A@@std@@@std@@QAE@PAU_Node@?$_Tree_nod@V?$_Tmap_traits@V?$basic_string@DU?$char_traits@D@std@@V?$allocator@D@2@@std@@PAVYL_CHTTPDownFile@@U?$less@V?$basic_string@DU?$char_traits@D@std@@V?$allocator@D@2@@std@@@2@V?$allocator@U?$pair@$$CBV?$basic_string@DU?$char_traits@D@std@@V?$allocator@D@2@@std@@PAVYL_CHTTPDownFile@@@std@@@2@$0A@@std@@@2@@Z
_TEXT	SEGMENT PARA USE32 PUBLIC 'CODE'
_TEXT	ENDS
;	COMDAT ??Dconst_iterator@?$_Tree@V?$_Tmap_traits@V?$basic_string@DU?$char_traits@D@std@@V?$allocator@D@2@@std@@PAVYL_CHTTPDownFile@@U?$less@V?$basic_string@DU?$char_traits@D@std@@V?$allocator@D@2@@std@@@2@V?$allocator@U?$pair@$$CBV?$basic_string@DU?$char_traits@D@std@@V?$allocator@D@2@@std@@PAVYL_CHTTPDownFile@@@std@@@2@$0A@@std@@@std@@QBEABU?$pair@$$CBV?$basic_string@DU?$char_traits@D@std@@V?$allocator@D@2@@std@@PAVYL_CHTTPDownFile@@@2@XZ
_TEXT	SEGMENT PARA USE32 PUBLIC 'CODE'
_TEXT	ENDS
;	COMDAT ??Econst_iterator@?$_Tree@V?$_Tmap_traits@V?$basic_string@DU?$char_traits@D@std@@V?$allocator@D@2@@std@@PAVYL_CHTTPDownFile@@U?$less@V?$basic_string@DU?$char_traits@D@std@@V?$allocator@D@2@@std@@@2@V?$allocator@U?$pair@$$CBV?$basic_string@DU?$char_traits@D@std@@V?$allocator@D@2@@std@@PAVYL_CHTTPDownFile@@@std@@@2@$0A@@std@@@std@@QAEAAV012@XZ
_TEXT	SEGMENT PARA USE32 PUBLIC 'CODE'
_TEXT	ENDS
;	COMDAT ?_Prevnode@?$list@PAVIMessageObserver@@V?$allocator@PAVIMessageObserver@@@std@@@std@@KAAAPAU_Node@?$_List_nod@PAVIMessageObserver@@V?$allocator@PAVIMessageObserver@@@std@@@2@PAU342@@Z
_TEXT	SEGMENT PARA USE32 PUBLIC 'CODE'
_TEXT	ENDS
;	COMDAT ?_Myval@?$list@PAVIMessageObserver@@V?$allocator@PAVIMessageObserver@@@std@@@std@@KAAAPAVIMessageObserver@@PAU_Node@?$_List_nod@PAVIMessageObserver@@V?$allocator@PAVIMessageObserver@@@std@@@2@@Z
_TEXT	SEGMENT PARA USE32 PUBLIC 'CODE'
_TEXT	ENDS
;	COMDAT ?clear@?$list@PAVIMessageObserver@@V?$allocator@PAVIMessageObserver@@@std@@@std@@QAEXXZ
_TEXT	SEGMENT PARA USE32 PUBLIC 'CODE'
_TEXT	ENDS
;	COMDAT ??0?$_List_ptr@PAVIMessageObserver@@V?$allocator@PAVIMessageObserver@@@std@@@std@@IAE@V?$allocator@PAVIMessageObserver@@@1@@Z
_TEXT	SEGMENT PARA USE32 PUBLIC 'CODE'
_TEXT	ENDS
;	COMDAT ??0?$allocator@PAVIMessageObserver@@@std@@QAE@ABV01@@Z
_TEXT	SEGMENT PARA USE32 PUBLIC 'CODE'
_TEXT	ENDS
;	COMDAT ?deallocate@?$allocator@U_Node@?$_List_nod@PAVIMessageObserver@@V?$allocator@PAVIMessageObserver@@@std@@@std@@@std@@QAEXPAU_Node@?$_List_nod@PAVIMessageObserver@@V?$allocator@PAVIMessageObserver@@@std@@@2@I@Z
_TEXT	SEGMENT PARA USE32 PUBLIC 'CODE'
_TEXT	ENDS
;	COMDAT ?allocate@?$allocator@U_Node@?$_List_nod@PAVIMessageObserver@@V?$allocator@PAVIMessageObserver@@@std@@@std@@@std@@QAEPAU_Node@?$_List_nod@PAVIMessageObserver@@V?$allocator@PAVIMessageObserver@@@std@@@2@I@Z
_TEXT	SEGMENT PARA USE32 PUBLIC 'CODE'
_TEXT	ENDS
;	COMDAT ?construct@?$allocator@PAU_Node@?$_List_nod@PAVIMessageObserver@@V?$allocator@PAVIMessageObserver@@@std@@@std@@@std@@QAEXPAPAU_Node@?$_List_nod@PAVIMessageObserver@@V?$allocator@PAVIMessageObserver@@@std@@@2@ABQAU342@@Z
_TEXT	SEGMENT PARA USE32 PUBLIC 'CODE'
_TEXT	ENDS
;	COMDAT ?destroy@?$allocator@PAU_Node@?$_List_nod@PAVIMessageObserver@@V?$allocator@PAVIMessageObserver@@@std@@@std@@@std@@QAEXPAPAU_Node@?$_List_nod@PAVIMessageObserver@@V?$allocator@PAVIMessageObserver@@@std@@@2@@Z
_TEXT	SEGMENT PARA USE32 PUBLIC 'CODE'
_TEXT	ENDS
;	COMDAT ??0const_iterator@?$list@PAVIMessageObserver@@V?$allocator@PAVIMessageObserver@@@std@@@std@@QAE@PAU_Node@?$_List_nod@PAVIMessageObserver@@V?$allocator@PAVIMessageObserver@@@std@@@2@@Z
_TEXT	SEGMENT PARA USE32 PUBLIC 'CODE'
_TEXT	ENDS
;	COMDAT ??Econst_iterator@?$list@PAVIMessageObserver@@V?$allocator@PAVIMessageObserver@@@std@@@std@@QAEAAV012@XZ
_TEXT	SEGMENT PARA USE32 PUBLIC 'CODE'
_TEXT	ENDS
;	COMDAT ?max_size@?$vector@V?$basic_string@DU?$char_traits@D@std@@V?$allocator@D@2@@std@@V?$allocator@V?$basic_string@DU?$char_traits@D@std@@V?$allocator@D@2@@std@@@2@@std@@QBEIXZ
_TEXT	SEGMENT PARA USE32 PUBLIC 'CODE'
_TEXT	ENDS
;	COMDAT ?_Destroy@?$vector@V?$basic_string@DU?$char_traits@D@std@@V?$allocator@D@2@@std@@V?$allocator@V?$basic_string@DU?$char_traits@D@std@@V?$allocator@D@2@@std@@@2@@std@@IAEXPAV?$basic_string@DU?$char_traits@D@std@@V?$allocator@D@2@@2@0@Z
_TEXT	SEGMENT PARA USE32 PUBLIC 'CODE'
_TEXT	ENDS
;	COMDAT ?_Insert_n@?$vector@V?$basic_string@DU?$char_traits@D@std@@V?$allocator@D@2@@std@@V?$allocator@V?$basic_string@DU?$char_traits@D@std@@V?$allocator@D@2@@std@@@2@@std@@IAEXViterator@12@IABV?$basic_string@DU?$char_traits@D@std@@V?$allocator@D@2@@2@@Z
_TEXT	SEGMENT PARA USE32 PUBLIC 'CODE'
_TEXT	ENDS
;	COMDAT ?_Xlen@?$vector@V?$basic_string@DU?$char_traits@D@std@@V?$allocator@D@2@@std@@V?$allocator@V?$basic_string@DU?$char_traits@D@std@@V?$allocator@D@2@@std@@@2@@std@@IBEXXZ
_TEXT	SEGMENT PARA USE32 PUBLIC 'CODE'
_TEXT	ENDS
;	COMDAT ??Hiterator@?$vector@V?$basic_string@DU?$char_traits@D@std@@V?$allocator@D@2@@std@@V?$allocator@V?$basic_string@DU?$char_traits@D@std@@V?$allocator@D@2@@std@@@2@@std@@QBE?AV012@H@Z
_TEXT	SEGMENT PARA USE32 PUBLIC 'CODE'
_TEXT	ENDS
;	COMDAT ??Giterator@?$vector@V?$basic_string@DU?$char_traits@D@std@@V?$allocator@D@2@@std@@V?$allocator@V?$basic_string@DU?$char_traits@D@std@@V?$allocator@D@2@@std@@@2@@std@@QBEHABVconst_iterator@12@@Z
_TEXT	SEGMENT PARA USE32 PUBLIC 'CODE'
_TEXT	ENDS
;	COMDAT ??0const_iterator@?$vector@V?$basic_string@DU?$char_traits@D@std@@V?$allocator@D@2@@std@@V?$allocator@V?$basic_string@DU?$char_traits@D@std@@V?$allocator@D@2@@std@@@2@@std@@QAE@PAV?$basic_string@DU?$char_traits@D@std@@V?$allocator@D@2@@2@@Z
_TEXT	SEGMENT PARA USE32 PUBLIC 'CODE'
_TEXT	ENDS
;	COMDAT ??0length_error@std@@QAE@ABV01@@Z
_TEXT	SEGMENT PARA USE32 PUBLIC 'CODE'
_TEXT	ENDS
;	COMDAT ?max_size@?$allocator@V?$basic_string@DU?$char_traits@D@std@@V?$allocator@D@2@@std@@@std@@QBEIXZ
_TEXT	SEGMENT PARA USE32 PUBLIC 'CODE'
_TEXT	ENDS
;	COMDAT ?max_size@?$_Tree@V?$_Tmap_traits@V?$basic_string@DU?$char_traits@D@std@@V?$allocator@D@2@@std@@PAVYL_CHTTPDownFile@@U?$less@V?$basic_string@DU?$char_traits@D@std@@V?$allocator@D@2@@std@@@2@V?$allocator@U?$pair@$$CBV?$basic_string@DU?$char_traits@D@std@@V?$allocator@D@2@@std@@PAVYL_CHTTPDownFile@@@std@@@2@$0A@@std@@@std@@QBEIXZ
_TEXT	SEGMENT PARA USE32 PUBLIC 'CODE'
_TEXT	ENDS
;	COMDAT ?clear@?$_Tree@V?$_Tmap_traits@V?$basic_string@DU?$char_traits@D@std@@V?$allocator@D@2@@std@@PAVYL_CHTTPDownFile@@U?$less@V?$basic_string@DU?$char_traits@D@std@@V?$allocator@D@2@@std@@@2@V?$allocator@U?$pair@$$CBV?$basic_string@DU?$char_traits@D@std@@V?$allocator@D@2@@std@@PAVYL_CHTTPDownFile@@@std@@@2@$0A@@std@@@std@@QAEXXZ
_TEXT	SEGMENT PARA USE32 PUBLIC 'CODE'
_TEXT	ENDS
;	COMDAT ?_Root@?$_Tree@V?$_Tmap_traits@V?$basic_string@DU?$char_traits@D@std@@V?$allocator@D@2@@std@@PAVYL_CHTTPDownFile@@U?$less@V?$basic_string@DU?$char_traits@D@std@@V?$allocator@D@2@@std@@@2@V?$allocator@U?$pair@$$CBV?$basic_string@DU?$char_traits@D@std@@V?$allocator@D@2@@std@@PAVYL_CHTTPDownFile@@@std@@@2@$0A@@std@@@std@@IBEAAPAU_Node@?$_Tree_nod@V?$_Tmap_traits@V?$basic_string@DU?$char_traits@D@std@@V?$allocator@D@2@@std@@PAVYL_CHTTPDownFile@@U?$less@V?$basic_string@DU?$char_traits@D@std@@V?$allocator@D@2@@std@@@2@V?$allocator@U?$pair@$$CBV?$basic_string@DU?$char_traits@D@std@@V?$allocator@D@2@@std@@PAVYL_CHTTPDownFile@@@std@@@2@$0A@@std@@@2@XZ
_TEXT	SEGMENT PARA USE32 PUBLIC 'CODE'
_TEXT	ENDS
;	COMDAT ?_Buynode@?$_Tree@V?$_Tmap_traits@V?$basic_string@DU?$char_traits@D@std@@V?$allocator@D@2@@std@@PAVYL_CHTTPDownFile@@U?$less@V?$basic_string@DU?$char_traits@D@std@@V?$allocator@D@2@@std@@@2@V?$allocator@U?$pair@$$CBV?$basic_string@DU?$char_traits@D@std@@V?$allocator@D@2@@std@@PAVYL_CHTTPDownFile@@@std@@@2@$0A@@std@@@std@@IAEPAU_Node@?$_Tree_nod@V?$_Tmap_traits@V?$basic_string@DU?$char_traits@D@std@@V?$allocator@D@2@@std@@PAVYL_CHTTPDownFile@@U?$less@V?$basic_string@DU?$char_traits@D@std@@V?$allocator@D@2@@std@@@2@V?$allocator@U?$pair@$$CBV?$basic_string@DU?$char_traits@D@std@@V?$allocator@D@2@@std@@PAVYL_CHTTPDownFile@@@std@@@2@$0A@@std@@@2@XZ
_TEXT	SEGMENT PARA USE32 PUBLIC 'CODE'
_TEXT	ENDS
;	COMDAT ?_Buynode@?$_Tree@V?$_Tmap_traits@V?$basic_string@DU?$char_traits@D@std@@V?$allocator@D@2@@std@@PAVYL_CHTTPDownFile@@U?$less@V?$basic_string@DU?$char_traits@D@std@@V?$allocator@D@2@@std@@@2@V?$allocator@U?$pair@$$CBV?$basic_string@DU?$char_traits@D@std@@V?$allocator@D@2@@std@@PAVYL_CHTTPDownFile@@@std@@@2@$0A@@std@@@std@@IAEPAU_Node@?$_Tree_nod@V?$_Tmap_traits@V?$basic_string@DU?$char_traits@D@std@@V?$allocator@D@2@@std@@PAVYL_CHTTPDownFile@@U?$less@V?$basic_string@DU?$char_traits@D@std@@V?$allocator@D@2@@std@@@2@V?$allocator@U?$pair@$$CBV?$basic_string@DU?$char_traits@D@std@@V?$allocator@D@2@@std@@PAVYL_CHTTPDownFile@@@std@@@2@$0A@@std@@@2@PAU342@00ABU?$pair@$$CBV?$basic_string@DU?$char_traits@D@std@@V?$allocator@D@2@@std@@PAVYL_CHTTPDownFile@@@2@D@Z
_TEXT	SEGMENT PARA USE32 PUBLIC 'CODE'
_TEXT	ENDS
;	COMDAT ??0?$_Tree_ptr@V?$_Tmap_traits@V?$basic_string@DU?$char_traits@D@std@@V?$allocator@D@2@@std@@PAVYL_CHTTPDownFile@@U?$less@V?$basic_string@DU?$char_traits@D@std@@V?$allocator@D@2@@std@@@2@V?$allocator@U?$pair@$$CBV?$basic_string@DU?$char_traits@D@std@@V?$allocator@D@2@@std@@PAVYL_CHTTPDownFile@@@std@@@2@$0A@@std@@@std@@IAE@ABU?$less@V?$basic_string@DU?$char_traits@D@std@@V?$allocator@D@2@@std@@@1@V?$allocator@U?$pair@$$CBV?$basic_string@DU?$char_traits@D@std@@V?$allocator@D@2@@std@@PAVYL_CHTTPDownFile@@@std@@@1@@Z
_TEXT	SEGMENT PARA USE32 PUBLIC 'CODE'
_TEXT	ENDS
;	COMDAT ??0const_iterator@?$_Tree@V?$_Tmap_traits@V?$basic_string@DU?$char_traits@D@std@@V?$allocator@D@2@@std@@PAVYL_CHTTPDownFile@@U?$less@V?$basic_string@DU?$char_traits@D@std@@V?$allocator@D@2@@std@@@2@V?$allocator@U?$pair@$$CBV?$basic_string@DU?$char_traits@D@std@@V?$allocator@D@2@@std@@PAVYL_CHTTPDownFile@@@std@@@2@$0A@@std@@@std@@QAE@XZ
_TEXT	SEGMENT PARA USE32 PUBLIC 'CODE'
_TEXT	ENDS
;	COMDAT ??Fconst_iterator@?$_Tree@V?$_Tmap_traits@V?$basic_string@DU?$char_traits@D@std@@V?$allocator@D@2@@std@@PAVYL_CHTTPDownFile@@U?$less@V?$basic_string@DU?$char_traits@D@std@@V?$allocator@D@2@@std@@@2@V?$allocator@U?$pair@$$CBV?$basic_string@DU?$char_traits@D@std@@V?$allocator@D@2@@std@@PAVYL_CHTTPDownFile@@@std@@@2@$0A@@std@@@std@@QAEAAV012@XZ
_TEXT	SEGMENT PARA USE32 PUBLIC 'CODE'
_TEXT	ENDS
;	COMDAT ?_Inc@const_iterator@?$_Tree@V?$_Tmap_traits@V?$basic_string@DU?$char_traits@D@std@@V?$allocator@D@2@@std@@PAVYL_CHTTPDownFile@@U?$less@V?$basic_string@DU?$char_traits@D@std@@V?$allocator@D@2@@std@@@2@V?$allocator@U?$pair@$$CBV?$basic_string@DU?$char_traits@D@std@@V?$allocator@D@2@@std@@PAVYL_CHTTPDownFile@@@std@@@2@$0A@@std@@@std@@QAEXXZ
_TEXT	SEGMENT PARA USE32 PUBLIC 'CODE'
_TEXT	ENDS
;	COMDAT ??0?$_List_nod@PAVIMessageObserver@@V?$allocator@PAVIMessageObserver@@@std@@@std@@IAE@V?$allocator@PAVIMessageObserver@@@1@@Z
_TEXT	SEGMENT PARA USE32 PUBLIC 'CODE'
_TEXT	ENDS
;	COMDAT ?destroy@?$allocator@U_Node@?$_List_nod@PAVIMessageObserver@@V?$allocator@PAVIMessageObserver@@@std@@@std@@@std@@QAEXPAU_Node@?$_List_nod@PAVIMessageObserver@@V?$allocator@PAVIMessageObserver@@@std@@@2@@Z
_TEXT	SEGMENT PARA USE32 PUBLIC 'CODE'
_TEXT	ENDS
;	COMDAT ??Yiterator@?$vector@V?$basic_string@DU?$char_traits@D@std@@V?$allocator@D@2@@std@@V?$allocator@V?$basic_string@DU?$char_traits@D@std@@V?$allocator@D@2@@std@@@2@@std@@QAEAAV012@H@Z
_TEXT	SEGMENT PARA USE32 PUBLIC 'CODE'
_TEXT	ENDS
;	COMDAT ??Gconst_iterator@?$vector@V?$basic_string@DU?$char_traits@D@std@@V?$allocator@D@2@@std@@V?$allocator@V?$basic_string@DU?$char_traits@D@std@@V?$allocator@D@2@@std@@@2@@std@@QBEHABV012@@Z
_TEXT	SEGMENT PARA USE32 PUBLIC 'CODE'
_TEXT	ENDS
;	COMDAT ??0?$pair@Viterator@?$_Tree@V?$_Tmap_traits@V?$basic_string@DU?$char_traits@D@std@@V?$allocator@D@2@@std@@PAVYL_CHTTPDownFile@@U?$less@V?$basic_string@DU?$char_traits@D@std@@V?$allocator@D@2@@std@@@2@V?$allocator@U?$pair@$$CBV?$basic_string@DU?$char_traits@D@std@@V?$allocator@D@2@@std@@PAVYL_CHTTPDownFile@@@std@@@2@$0A@@std@@@std@@_N@std@@QAE@ABViterator@?$_Tree@V?$_Tmap_traits@V?$basic_string@DU?$char_traits@D@std@@V?$allocator@D@2@@std@@PAVYL_CHTTPDownFile@@U?$less@V?$basic_string@DU?$char_traits@D@std@@V?$allocator@D@2@@std@@@2@V?$allocator@U?$pair@$$CBV?$basic_string@DU?$char_traits@D@std@@V?$allocator@D@2@@std@@PAVYL_CHTTPDownFile@@@std@@@2@$0A@@std@@@1@AB_N@Z
_TEXT	SEGMENT PARA USE32 PUBLIC 'CODE'
_TEXT	ENDS
;	COMDAT ?_Erase@?$_Tree@V?$_Tmap_traits@V?$basic_string@DU?$char_traits@D@std@@V?$allocator@D@2@@std@@PAVYL_CHTTPDownFile@@U?$less@V?$basic_string@DU?$char_traits@D@std@@V?$allocator@D@2@@std@@@2@V?$allocator@U?$pair@$$CBV?$basic_string@DU?$char_traits@D@std@@V?$allocator@D@2@@std@@PAVYL_CHTTPDownFile@@@std@@@2@$0A@@std@@@std@@IAEXPAU_Node@?$_Tree_nod@V?$_Tmap_traits@V?$basic_string@DU?$char_traits@D@std@@V?$allocator@D@2@@std@@PAVYL_CHTTPDownFile@@U?$less@V?$basic_string@DU?$char_traits@D@std@@V?$allocator@D@2@@std@@@2@V?$allocator@U?$pair@$$CBV?$basic_string@DU?$char_traits@D@std@@V?$allocator@D@2@@std@@PAVYL_CHTTPDownFile@@@std@@@2@$0A@@std@@@2@@Z
_TEXT	SEGMENT PARA USE32 PUBLIC 'CODE'
_TEXT	ENDS
;	COMDAT ??0?$_Tree_nod@V?$_Tmap_traits@V?$basic_string@DU?$char_traits@D@std@@V?$allocator@D@2@@std@@PAVYL_CHTTPDownFile@@U?$less@V?$basic_string@DU?$char_traits@D@std@@V?$allocator@D@2@@std@@@2@V?$allocator@U?$pair@$$CBV?$basic_string@DU?$char_traits@D@std@@V?$allocator@D@2@@std@@PAVYL_CHTTPDownFile@@@std@@@2@$0A@@std@@@std@@IAE@ABU?$less@V?$basic_string@DU?$char_traits@D@std@@V?$allocator@D@2@@std@@@1@V?$allocator@U?$pair@$$CBV?$basic_string@DU?$char_traits@D@std@@V?$allocator@D@2@@std@@PAVYL_CHTTPDownFile@@@std@@@1@@Z
_TEXT	SEGMENT PARA USE32 PUBLIC 'CODE'
_TEXT	ENDS
;	COMDAT ?max_size@?$allocator@U?$pair@$$CBV?$basic_string@DU?$char_traits@D@std@@V?$allocator@D@2@@std@@PAVYL_CHTTPDownFile@@@std@@@std@@QBEIXZ
_TEXT	SEGMENT PARA USE32 PUBLIC 'CODE'
_TEXT	ENDS
;	COMDAT ?allocate@?$allocator@U_Node@?$_Tree_nod@V?$_Tmap_traits@V?$basic_string@DU?$char_traits@D@std@@V?$allocator@D@2@@std@@PAVYL_CHTTPDownFile@@U?$less@V?$basic_string@DU?$char_traits@D@std@@V?$allocator@D@2@@std@@@2@V?$allocator@U?$pair@$$CBV?$basic_string@DU?$char_traits@D@std@@V?$allocator@D@2@@std@@PAVYL_CHTTPDownFile@@@std@@@2@$0A@@std@@@std@@@std@@QAEPAU_Node@?$_Tree_nod@V?$_Tmap_traits@V?$basic_string@DU?$char_traits@D@std@@V?$allocator@D@2@@std@@PAVYL_CHTTPDownFile@@U?$less@V?$basic_string@DU?$char_traits@D@std@@V?$allocator@D@2@@std@@@2@V?$allocator@U?$pair@$$CBV?$basic_string@DU?$char_traits@D@std@@V?$allocator@D@2@@std@@PAVYL_CHTTPDownFile@@@std@@@2@$0A@@std@@@2@I@Z
_TEXT	SEGMENT PARA USE32 PUBLIC 'CODE'
_TEXT	ENDS
;	COMDAT ?construct@?$allocator@PAU_Node@?$_Tree_nod@V?$_Tmap_traits@V?$basic_string@DU?$char_traits@D@std@@V?$allocator@D@2@@std@@PAVYL_CHTTPDownFile@@U?$less@V?$basic_string@DU?$char_traits@D@std@@V?$allocator@D@2@@std@@@2@V?$allocator@U?$pair@$$CBV?$basic_string@DU?$char_traits@D@std@@V?$allocator@D@2@@std@@PAVYL_CHTTPDownFile@@@std@@@2@$0A@@std@@@std@@@std@@QAEXPAPAU_Node@?$_Tree_nod@V?$_Tmap_traits@V?$basic_string@DU?$char_traits@D@std@@V?$allocator@D@2@@std@@PAVYL_CHTTPDownFile@@U?$less@V?$basic_string@DU?$char_traits@D@std@@V?$allocator@D@2@@std@@@2@V?$allocator@U?$pair@$$CBV?$basic_string@DU?$char_traits@D@std@@V?$allocator@D@2@@std@@PAVYL_CHTTPDownFile@@@std@@@2@$0A@@std@@@2@ABQAU342@@Z
_TEXT	SEGMENT PARA USE32 PUBLIC 'CODE'
_TEXT	ENDS
;	COMDAT ?_Dec@const_iterator@?$_Tree@V?$_Tmap_traits@V?$basic_string@DU?$char_traits@D@std@@V?$allocator@D@2@@std@@PAVYL_CHTTPDownFile@@U?$less@V?$basic_string@DU?$char_traits@D@std@@V?$allocator@D@2@@std@@@2@V?$allocator@U?$pair@$$CBV?$basic_string@DU?$char_traits@D@std@@V?$allocator@D@2@@std@@PAVYL_CHTTPDownFile@@@std@@@2@$0A@@std@@@std@@QAEXXZ
_TEXT	SEGMENT PARA USE32 PUBLIC 'CODE'
_TEXT	ENDS
;	COMDAT ??0_Node@?$_Tree_nod@V?$_Tmap_traits@V?$basic_string@DU?$char_traits@D@std@@V?$allocator@D@2@@std@@PAVYL_CHTTPDownFile@@U?$less@V?$basic_string@DU?$char_traits@D@std@@V?$allocator@D@2@@std@@@2@V?$allocator@U?$pair@$$CBV?$basic_string@DU?$char_traits@D@std@@V?$allocator@D@2@@std@@PAVYL_CHTTPDownFile@@@std@@@2@$0A@@std@@@std@@QAE@PAU012@00ABU?$pair@$$CBV?$basic_string@DU?$char_traits@D@std@@V?$allocator@D@2@@std@@PAVYL_CHTTPDownFile@@@2@D@Z
_TEXT	SEGMENT PARA USE32 PUBLIC 'CODE'
_TEXT	ENDS
;	COMDAT ??0?$pair@$$CBV?$basic_string@DU?$char_traits@D@std@@V?$allocator@D@2@@std@@PAVYL_CHTTPDownFile@@@std@@QAE@ABU01@@Z
_TEXT	SEGMENT PARA USE32 PUBLIC 'CODE'
_TEXT	ENDS
;	COMDAT ??0?$_Tmap_traits@V?$basic_string@DU?$char_traits@D@std@@V?$allocator@D@2@@std@@PAVYL_CHTTPDownFile@@U?$less@V?$basic_string@DU?$char_traits@D@std@@V?$allocator@D@2@@std@@@2@V?$allocator@U?$pair@$$CBV?$basic_string@DU?$char_traits@D@std@@V?$allocator@D@2@@std@@PAVYL_CHTTPDownFile@@@std@@@2@$0A@@std@@QAE@U?$less@V?$basic_string@DU?$char_traits@D@std@@V?$allocator@D@2@@std@@@1@@Z
_TEXT	SEGMENT PARA USE32 PUBLIC 'CODE'
_TEXT	ENDS
;	COMDAT ?Unlock@?$CComCritSecLock@VCComCriticalSection@ATL@@@ATL@@QAEXXZ
_TEXT	SEGMENT PARA USE32 PUBLIC 'CODE'
_TEXT	ENDS
;	COMDAT ??$_Destroy@U_Node@?$_Tree_nod@V?$_Tmap_traits@V?$basic_string@DU?$char_traits@D@std@@V?$allocator@D@2@@std@@PAVYL_CHTTPDownFile@@U?$less@V?$basic_string@DU?$char_traits@D@std@@V?$allocator@D@2@@std@@@2@V?$allocator@U?$pair@$$CBV?$basic_string@DU?$char_traits@D@std@@V?$allocator@D@2@@std@@PAVYL_CHTTPDownFile@@@std@@@2@$0A@@std@@@std@@@std@@YAXPAU_Node@?$_Tree_nod@V?$_Tmap_traits@V?$basic_string@DU?$char_traits@D@std@@V?$allocator@D@2@@std@@PAVYL_CHTTPDownFile@@U?$less@V?$basic_string@DU?$char_traits@D@std@@V?$allocator@D@2@@std@@@2@V?$allocator@U?$pair@$$CBV?$basic_string@DU?$char_traits@D@std@@V?$allocator@D@2@@std@@PAVYL_CHTTPDownFile@@@std@@@2@$0A@@std@@@0@@Z
_TEXT	SEGMENT PARA USE32 PUBLIC 'CODE'
_TEXT	ENDS
;	COMDAT ??$_Uninitialized_fill_n@PAV?$basic_string@DU?$char_traits@D@std@@V?$allocator@D@2@@std@@IV12@V?$allocator@V?$basic_string@DU?$char_traits@D@std@@V?$allocator@D@2@@std@@@2@@std@@YAXPAV?$basic_string@DU?$char_traits@D@std@@V?$allocator@D@2@@0@IABV10@AAV?$allocator@V?$basic_string@DU?$char_traits@D@std@@V?$allocator@D@2@@std@@@0@@Z
_TEXT	SEGMENT PARA USE32 PUBLIC 'CODE'
_TEXT	ENDS
;	COMDAT ??$_Maklocstr@D@std@@YAPADPBDPADABU_Cvtvec@@@Z
_TEXT	SEGMENT PARA USE32 PUBLIC 'CODE'
_TEXT	ENDS
;	COMDAT ??$_Allocate@V?$basic_string@DU?$char_traits@D@std@@V?$allocator@D@2@@std@@@std@@YAPAV?$basic_string@DU?$char_traits@D@std@@V?$allocator@D@2@@0@IPAV10@@Z
_TEXT	SEGMENT PARA USE32 PUBLIC 'CODE'
_TEXT	ENDS
;	COMDAT ??$_Destroy@PAU_Node@?$_Tree_nod@V?$_Tmap_traits@V?$basic_string@DU?$char_traits@D@std@@V?$allocator@D@2@@std@@PAVYL_CHTTPDownFile@@U?$less@V?$basic_string@DU?$char_traits@D@std@@V?$allocator@D@2@@std@@@2@V?$allocator@U?$pair@$$CBV?$basic_string@DU?$char_traits@D@std@@V?$allocator@D@2@@std@@PAVYL_CHTTPDownFile@@@std@@@2@$0A@@std@@@std@@@std@@YAXPAPAU_Node@?$_Tree_nod@V?$_Tmap_traits@V?$basic_string@DU?$char_traits@D@std@@V?$allocator@D@2@@std@@PAVYL_CHTTPDownFile@@U?$less@V?$basic_string@DU?$char_traits@D@std@@V?$allocator@D@2@@std@@@2@V?$allocator@U?$pair@$$CBV?$basic_string@DU?$char_traits@D@std@@V?$allocator@D@2@@std@@PAVYL_CHTTPDownFile@@@std@@@2@$0A@@std@@@0@@Z
_TEXT	SEGMENT PARA USE32 PUBLIC 'CODE'
_TEXT	ENDS
;	COMDAT ??$?0PAVIMessageObserver@@@?$allocator@PAU_Node@?$_List_nod@PAVIMessageObserver@@V?$allocator@PAVIMessageObserver@@@std@@@std@@@std@@QAE@ABV?$allocator@PAVIMessageObserver@@@1@@Z
_TEXT	SEGMENT PARA USE32 PUBLIC 'CODE'
_TEXT	ENDS
;	COMDAT ??$_Allocate@U_Node@?$_List_nod@PAVIMessageObserver@@V?$allocator@PAVIMessageObserver@@@std@@@std@@@std@@YAPAU_Node@?$_List_nod@PAVIMessageObserver@@V?$allocator@PAVIMessageObserver@@@std@@@0@IPAU120@@Z
_TEXT	SEGMENT PARA USE32 PUBLIC 'CODE'
_TEXT	ENDS
;	COMDAT ??$_Construct@PAU_Node@?$_List_nod@PAVIMessageObserver@@V?$allocator@PAVIMessageObserver@@@std@@@std@@PAU123@@std@@YAXPAPAU_Node@?$_List_nod@PAVIMessageObserver@@V?$allocator@PAVIMessageObserver@@@std@@@0@ABQAU120@@Z
_TEXT	SEGMENT PARA USE32 PUBLIC 'CODE'
_TEXT	ENDS
;	COMDAT ??$_Destroy@PAU_Node@?$_List_nod@PAVIMessageObserver@@V?$allocator@PAVIMessageObserver@@@std@@@std@@@std@@YAXPAPAU_Node@?$_List_nod@PAVIMessageObserver@@V?$allocator@PAVIMessageObserver@@@std@@@0@@Z
_TEXT	SEGMENT PARA USE32 PUBLIC 'CODE'
_TEXT	ENDS
;	COMDAT ??$_Destroy_range@V?$basic_string@DU?$char_traits@D@std@@V?$allocator@D@2@@std@@V?$allocator@V?$basic_string@DU?$char_traits@D@std@@V?$allocator@D@2@@std@@@2@@std@@YAXPAV?$basic_string@DU?$char_traits@D@std@@V?$allocator@D@2@@0@0AAV?$allocator@V?$basic_string@DU?$char_traits@D@std@@V?$allocator@D@2@@std@@@0@@Z
_TEXT	SEGMENT PARA USE32 PUBLIC 'CODE'
_TEXT	ENDS
;	COMDAT ??$_Ucopy@PAV?$basic_string@DU?$char_traits@D@std@@V?$allocator@D@2@@std@@@?$vector@V?$basic_string@DU?$char_traits@D@std@@V?$allocator@D@2@@std@@V?$allocator@V?$basic_string@DU?$char_traits@D@std@@V?$allocator@D@2@@std@@@2@@std@@IAEPAV?$basic_string@DU?$char_traits@D@std@@V?$allocator@D@2@@1@PAV21@00@Z
_TEXT	SEGMENT PARA USE32 PUBLIC 'CODE'
_TEXT	ENDS
;	COMDAT ??$fill@PAV?$basic_string@DU?$char_traits@D@std@@V?$allocator@D@2@@std@@V12@@std@@YAXPAV?$basic_string@DU?$char_traits@D@std@@V?$allocator@D@2@@0@0ABV10@@Z
_TEXT	SEGMENT PARA USE32 PUBLIC 'CODE'
_TEXT	ENDS
;	COMDAT ??$copy_backward@PAV?$basic_string@DU?$char_traits@D@std@@V?$allocator@D@2@@std@@PAV12@@std@@YAPAV?$basic_string@DU?$char_traits@D@std@@V?$allocator@D@2@@0@PAV10@00@Z
_TEXT	SEGMENT PARA USE32 PUBLIC 'CODE'
_TEXT	ENDS
;	COMDAT ??$?0U?$pair@$$CBV?$basic_string@DU?$char_traits@D@std@@V?$allocator@D@2@@std@@PAVYL_CHTTPDownFile@@@std@@@?$allocator@PAU_Node@?$_Tree_nod@V?$_Tmap_traits@V?$basic_string@DU?$char_traits@D@std@@V?$allocator@D@2@@std@@PAVYL_CHTTPDownFile@@U?$less@V?$basic_string@DU?$char_traits@D@std@@V?$allocator@D@2@@std@@@2@V?$allocator@U?$pair@$$CBV?$basic_string@DU?$char_traits@D@std@@V?$allocator@D@2@@std@@PAVYL_CHTTPDownFile@@@std@@@2@$0A@@std@@@std@@@std@@QAE@ABV?$allocator@U?$pair@$$CBV?$basic_string@DU?$char_traits@D@std@@V?$allocator@D@2@@std@@PAVYL_CHTTPDownFile@@@std@@@1@@Z
_TEXT	SEGMENT PARA USE32 PUBLIC 'CODE'
_TEXT	ENDS
;	COMDAT ??$?0PAVIMessageObserver@@@?$allocator@U_Node@?$_List_nod@PAVIMessageObserver@@V?$allocator@PAVIMessageObserver@@@std@@@std@@@std@@QAE@ABV?$allocator@PAVIMessageObserver@@@1@@Z
_TEXT	SEGMENT PARA USE32 PUBLIC 'CODE'
_TEXT	ENDS
;	COMDAT ??$_Destroy@U_Node@?$_List_nod@PAVIMessageObserver@@V?$allocator@PAVIMessageObserver@@@std@@@std@@@std@@YAXPAU_Node@?$_List_nod@PAVIMessageObserver@@V?$allocator@PAVIMessageObserver@@@std@@@0@@Z
_TEXT	SEGMENT PARA USE32 PUBLIC 'CODE'
_TEXT	ENDS
;	COMDAT ??$?0U?$pair@$$CBV?$basic_string@DU?$char_traits@D@std@@V?$allocator@D@2@@std@@PAVYL_CHTTPDownFile@@@std@@@?$allocator@U_Node@?$_Tree_nod@V?$_Tmap_traits@V?$basic_string@DU?$char_traits@D@std@@V?$allocator@D@2@@std@@PAVYL_CHTTPDownFile@@U?$less@V?$basic_string@DU?$char_traits@D@std@@V?$allocator@D@2@@std@@@2@V?$allocator@U?$pair@$$CBV?$basic_string@DU?$char_traits@D@std@@V?$allocator@D@2@@std@@PAVYL_CHTTPDownFile@@@std@@@2@$0A@@std@@@std@@@std@@QAE@ABV?$allocator@U?$pair@$$CBV?$basic_string@DU?$char_traits@D@std@@V?$allocator@D@2@@std@@PAVYL_CHTTPDownFile@@@std@@@1@@Z
_TEXT	SEGMENT PARA USE32 PUBLIC 'CODE'
_TEXT	ENDS
;	COMDAT ??$_Allocate@U_Node@?$_Tree_nod@V?$_Tmap_traits@V?$basic_string@DU?$char_traits@D@std@@V?$allocator@D@2@@std@@PAVYL_CHTTPDownFile@@U?$less@V?$basic_string@DU?$char_traits@D@std@@V?$allocator@D@2@@std@@@2@V?$allocator@U?$pair@$$CBV?$basic_string@DU?$char_traits@D@std@@V?$allocator@D@2@@std@@PAVYL_CHTTPDownFile@@@std@@@2@$0A@@std@@@std@@@std@@YAPAU_Node@?$_Tree_nod@V?$_Tmap_traits@V?$basic_string@DU?$char_traits@D@std@@V?$allocator@D@2@@std@@PAVYL_CHTTPDownFile@@U?$less@V?$basic_string@DU?$char_traits@D@std@@V?$allocator@D@2@@std@@@2@V?$allocator@U?$pair@$$CBV?$basic_string@DU?$char_traits@D@std@@V?$allocator@D@2@@std@@PAVYL_CHTTPDownFile@@@std@@@2@$0A@@std@@@0@IPAU120@@Z
_TEXT	SEGMENT PARA USE32 PUBLIC 'CODE'
_TEXT	ENDS
;	COMDAT ??$_Construct@PAU_Node@?$_Tree_nod@V?$_Tmap_traits@V?$basic_string@DU?$char_traits@D@std@@V?$allocator@D@2@@std@@PAVYL_CHTTPDownFile@@U?$less@V?$basic_string@DU?$char_traits@D@std@@V?$allocator@D@2@@std@@@2@V?$allocator@U?$pair@$$CBV?$basic_string@DU?$char_traits@D@std@@V?$allocator@D@2@@std@@PAVYL_CHTTPDownFile@@@std@@@2@$0A@@std@@@std@@PAU123@@std@@YAXPAPAU_Node@?$_Tree_nod@V?$_Tmap_traits@V?$basic_string@DU?$char_traits@D@std@@V?$allocator@D@2@@std@@PAVYL_CHTTPDownFile@@U?$less@V?$basic_string@DU?$char_traits@D@std@@V?$allocator@D@2@@std@@@2@V?$allocator@U?$pair@$$CBV?$basic_string@DU?$char_traits@D@std@@V?$allocator@D@2@@std@@PAVYL_CHTTPDownFile@@@std@@@2@$0A@@std@@@0@ABQAU120@@Z
_TEXT	SEGMENT PARA USE32 PUBLIC 'CODE'
_TEXT	ENDS
;	COMDAT ??_G_Node@?$_Tree_nod@V?$_Tmap_traits@V?$basic_string@DU?$char_traits@D@std@@V?$allocator@D@2@@std@@PAVYL_CHTTPDownFile@@U?$less@V?$basic_string@DU?$char_traits@D@std@@V?$allocator@D@2@@std@@@2@V?$allocator@U?$pair@$$CBV?$basic_string@DU?$char_traits@D@std@@V?$allocator@D@2@@std@@PAVYL_CHTTPDownFile@@@std@@@2@$0A@@std@@@std@@QAEPAXI@Z
_TEXT	SEGMENT PARA USE32 PUBLIC 'CODE'
_TEXT	ENDS
;	COMDAT ??1_Node@?$_Tree_nod@V?$_Tmap_traits@V?$basic_string@DU?$char_traits@D@std@@V?$allocator@D@2@@std@@PAVYL_CHTTPDownFile@@U?$less@V?$basic_string@DU?$char_traits@D@std@@V?$allocator@D@2@@std@@@2@V?$allocator@U?$pair@$$CBV?$basic_string@DU?$char_traits@D@std@@V?$allocator@D@2@@std@@PAVYL_CHTTPDownFile@@@std@@@2@$0A@@std@@@std@@QAE@XZ
_TEXT	SEGMENT PARA USE32 PUBLIC 'CODE'
_TEXT	ENDS
;	COMDAT ??$_Ptr_cat@PAV?$basic_string@DU?$char_traits@D@std@@V?$allocator@D@2@@std@@PAV12@@std@@YA?AU_Nonscalar_ptr_iterator_tag@0@AAPAV?$basic_string@DU?$char_traits@D@std@@V?$allocator@D@2@@0@0@Z
_TEXT	SEGMENT PARA USE32 PUBLIC 'CODE'
_TEXT	ENDS
;	COMDAT ??$_Uninit_fill_n@PAV?$basic_string@DU?$char_traits@D@std@@V?$allocator@D@2@@std@@IV12@V?$allocator@V?$basic_string@DU?$char_traits@D@std@@V?$allocator@D@2@@std@@@2@@std@@YAXPAV?$basic_string@DU?$char_traits@D@std@@V?$allocator@D@2@@0@IABV10@AAV?$allocator@V?$basic_string@DU?$char_traits@D@std@@V?$allocator@D@2@@std@@@0@U_Nonscalar_ptr_iterator_tag@0@@Z
_TEXT	SEGMENT PARA USE32 PUBLIC 'CODE'
_TEXT	ENDS
;	COMDAT ??$_Destroy_range@V?$basic_string@DU?$char_traits@D@std@@V?$allocator@D@2@@std@@V?$allocator@V?$basic_string@DU?$char_traits@D@std@@V?$allocator@D@2@@std@@@2@@std@@YAXPAV?$basic_string@DU?$char_traits@D@std@@V?$allocator@D@2@@0@0AAV?$allocator@V?$basic_string@DU?$char_traits@D@std@@V?$allocator@D@2@@std@@@0@U_Nonscalar_ptr_iterator_tag@0@@Z
_TEXT	SEGMENT PARA USE32 PUBLIC 'CODE'
_TEXT	ENDS
;	COMDAT ??$_Uninitialized_copy@PAV?$basic_string@DU?$char_traits@D@std@@V?$allocator@D@2@@std@@PAV12@V?$allocator@V?$basic_string@DU?$char_traits@D@std@@V?$allocator@D@2@@std@@@2@@std@@YAPAV?$basic_string@DU?$char_traits@D@std@@V?$allocator@D@2@@0@PAV10@00AAV?$allocator@V?$basic_string@DU?$char_traits@D@std@@V?$allocator@D@2@@std@@@0@@Z
_TEXT	SEGMENT PARA USE32 PUBLIC 'CODE'
_TEXT	ENDS
;	COMDAT ??$_Copy_backward_opt@PAV?$basic_string@DU?$char_traits@D@std@@V?$allocator@D@2@@std@@PAV12@@std@@YAPAV?$basic_string@DU?$char_traits@D@std@@V?$allocator@D@2@@0@PAV10@00U_Nonscalar_ptr_iterator_tag@0@@Z
_TEXT	SEGMENT PARA USE32 PUBLIC 'CODE'
_TEXT	ENDS
;	COMDAT ?construct@?$allocator@V?$basic_string@DU?$char_traits@D@std@@V?$allocator@D@2@@std@@@std@@QAEXPAV?$basic_string@DU?$char_traits@D@std@@V?$allocator@D@2@@2@ABV32@@Z
_TEXT	SEGMENT PARA USE32 PUBLIC 'CODE'
_TEXT	ENDS
;	COMDAT ?destroy@?$allocator@V?$basic_string@DU?$char_traits@D@std@@V?$allocator@D@2@@std@@@std@@QAEXPAV?$basic_string@DU?$char_traits@D@std@@V?$allocator@D@2@@2@@Z
_TEXT	SEGMENT PARA USE32 PUBLIC 'CODE'
_TEXT	ENDS
;	COMDAT ??$_Uninit_copy@PAV?$basic_string@DU?$char_traits@D@std@@V?$allocator@D@2@@std@@PAV12@V?$allocator@V?$basic_string@DU?$char_traits@D@std@@V?$allocator@D@2@@std@@@2@@std@@YAPAV?$basic_string@DU?$char_traits@D@std@@V?$allocator@D@2@@0@PAV10@00AAV?$allocator@V?$basic_string@DU?$char_traits@D@std@@V?$allocator@D@2@@std@@@0@U_Nonscalar_ptr_iterator_tag@0@@Z
_TEXT	SEGMENT PARA USE32 PUBLIC 'CODE'
_TEXT	ENDS
;	COMDAT ??$_Construct@V?$basic_string@DU?$char_traits@D@std@@V?$allocator@D@2@@std@@V12@@std@@YAXPAV?$basic_string@DU?$char_traits@D@std@@V?$allocator@D@2@@0@ABV10@@Z
_TEXT	SEGMENT PARA USE32 PUBLIC 'CODE'
_TEXT	ENDS
;	COMDAT ??$_Destroy@V?$basic_string@DU?$char_traits@D@std@@V?$allocator@D@2@@std@@@std@@YAXPAV?$basic_string@DU?$char_traits@D@std@@V?$allocator@D@2@@0@@Z
_TEXT	SEGMENT PARA USE32 PUBLIC 'CODE'
_TEXT	ENDS
;	COMDAT ??_G?$basic_string@DU?$char_traits@D@std@@V?$allocator@D@2@@std@@QAEPAXI@Z
_TEXT	SEGMENT PARA USE32 PUBLIC 'CODE'
_TEXT	ENDS
;	COMDAT ??_R3HTTPObserver@@8
rdata$r	SEGMENT DWORD USE32 PUBLIC 'CONST'
rdata$r	ENDS
;	COMDAT ??_R3?$numpunct@_W@std@@8
rdata$r	SEGMENT DWORD USE32 PUBLIC 'CONST'
rdata$r	ENDS
;	COMDAT ??_R3?$numpunct@D@std@@8
rdata$r	SEGMENT DWORD USE32 PUBLIC 'CONST'
rdata$r	ENDS
;	COMDAT ??_R3HttpDownCtrl@@8
rdata$r	SEGMENT DWORD USE32 PUBLIC 'CONST'
rdata$r	ENDS
;	COMDAT ??_R2HTTPObserver@@8
rdata$r	SEGMENT DWORD USE32 PUBLIC 'CONST'
rdata$r	ENDS
;	COMDAT ??_R2?$numpunct@_W@std@@8
rdata$r	SEGMENT DWORD USE32 PUBLIC 'CONST'
rdata$r	ENDS
;	COMDAT ??_R2?$numpunct@D@std@@8
rdata$r	SEGMENT DWORD USE32 PUBLIC 'CONST'
rdata$r	ENDS
;	COMDAT ??_R2HttpDownCtrl@@8
rdata$r	SEGMENT DWORD USE32 PUBLIC 'CONST'
rdata$r	ENDS
;	COMDAT ??_R1A@?0A@A@HTTPObserver@@8
rdata$r	SEGMENT DWORD USE32 PUBLIC 'CONST'
rdata$r	ENDS
;	COMDAT ??_R1A@?0A@A@?$numpunct@_W@std@@8
rdata$r	SEGMENT DWORD USE32 PUBLIC 'CONST'
rdata$r	ENDS
;	COMDAT ??_R1A@?0A@A@facet@locale@std@@8
rdata$r	SEGMENT DWORD USE32 PUBLIC 'CONST'
rdata$r	ENDS
;	COMDAT ??_R0?AVfacet@locale@std@@@8
_DATA	SEGMENT DWORD USE32 PUBLIC 'DATA'
_DATA	ENDS
;	COMDAT ??_R1A@?0A@A@?$numpunct@D@std@@8
rdata$r	SEGMENT DWORD USE32 PUBLIC 'CONST'
rdata$r	ENDS
;	COMDAT ??_R1A@?0A@A@CObject@@8
rdata$r	SEGMENT DWORD USE32 PUBLIC 'CONST'
rdata$r	ENDS
;	COMDAT ??_R0?AVCObject@@@8
_DATA	SEGMENT DWORD USE32 PUBLIC 'DATA'
_DATA	ENDS
;	COMDAT ??_R1A@?0A@A@CCmdTarget@@8
rdata$r	SEGMENT DWORD USE32 PUBLIC 'CONST'
rdata$r	ENDS
;	COMDAT ??_R0?AVCCmdTarget@@@8
_DATA	SEGMENT DWORD USE32 PUBLIC 'DATA'
_DATA	ENDS
;	COMDAT ??_R1A@?0A@A@CWnd@@8
rdata$r	SEGMENT DWORD USE32 PUBLIC 'CONST'
rdata$r	ENDS
;	COMDAT ??_R0?AVCWnd@@@8
_DATA	SEGMENT DWORD USE32 PUBLIC 'DATA'
_DATA	ENDS
;	COMDAT ??_R1A@?0A@A@HttpDownCtrl@@8
rdata$r	SEGMENT DWORD USE32 PUBLIC 'CONST'
rdata$r	ENDS
;	COMDAT ??_R0?AVHTTPObserver@@@8
_DATA	SEGMENT DWORD USE32 PUBLIC 'DATA'
_DATA	ENDS
;	COMDAT ??_R0?AV?$numpunct@_W@std@@@8
_DATA	SEGMENT DWORD USE32 PUBLIC 'DATA'
_DATA	ENDS
;	COMDAT ??_R0?AV?$numpunct@D@std@@@8
_DATA	SEGMENT DWORD USE32 PUBLIC 'DATA'
_DATA	ENDS
;	COMDAT ??_R0?AVHttpDownCtrl@@@8
_DATA	SEGMENT DWORD USE32 PUBLIC 'DATA'
_DATA	ENDS
;	COMDAT ??_R4HTTPObserver@@6B@
rdata$r	SEGMENT DWORD USE32 PUBLIC 'CONST'
rdata$r	ENDS
;	COMDAT ??0?$allocator@_W@std@@QAE@XZ
_TEXT	SEGMENT PARA USE32 PUBLIC 'CODE'
_TEXT	ENDS
;	COMDAT ??_G?$numpunct@_W@std@@MAEPAXI@Z
_TEXT	SEGMENT PARA USE32 PUBLIC 'CODE'
_TEXT	ENDS
;	COMDAT ??_R4?$numpunct@_W@std@@6B@
rdata$r	SEGMENT DWORD USE32 PUBLIC 'CONST'
rdata$r	ENDS
;	COMDAT ??_G?$numpunct@D@std@@MAEPAXI@Z
_TEXT	SEGMENT PARA USE32 PUBLIC 'CODE'
_TEXT	ENDS
;	COMDAT ??_R4?$numpunct@D@std@@6B@
rdata$r	SEGMENT DWORD USE32 PUBLIC 'CONST'
rdata$r	ENDS
;	COMDAT ??_R4HttpDownCtrl@@6B@
rdata$r	SEGMENT DWORD USE32 PUBLIC 'CONST'
rdata$r	ENDS
;	COMDAT ??_C@_0EN@CBMLGOH@D?3?2Program?5Files?5?$CIx86?$CJ?2Microsoft@
CONST	SEGMENT DWORD USE32 PUBLIC 'CONST'
CONST	ENDS
;	COMDAT ?_Psave@?$_Facetptr@V?$numpunct@_W@std@@@std@@2PBVfacet@locale@2@B
_DATA	SEGMENT DWORD USE32 PUBLIC 'DATA'
_DATA	ENDS
;	COMDAT ?_Psave@?$_Facetptr@V?$numpunct@D@std@@@std@@2PBVfacet@locale@2@B
_DATA	SEGMENT DWORD USE32 PUBLIC 'DATA'
_DATA	ENDS
;	COMDAT ?Unlock@CComCriticalSection@ATL@@QAEJXZ
_TEXT	SEGMENT PARA USE32 PUBLIC 'CODE'
_TEXT	ENDS
;	COMDAT ??_C@_0FG@LDNDNCJM@D?3?2Program?5Files?5?$CIx86?$CJ?2Microsoft@
CONST	SEGMENT DWORD USE32 PUBLIC 'CONST'
CONST	ENDS
;	COMDAT ??_C@_09HIEJFN@m_bLocked?$AA@
CONST	SEGMENT DWORD USE32 PUBLIC 'CONST'
CONST	ENDS
;	COMDAT ?_Psave@?$_Facetptr@V?$ctype@_W@std@@@std@@2PBVfacet@locale@2@B
_DATA	SEGMENT DWORD USE32 PUBLIC 'DATA'
_DATA	ENDS
;	COMDAT ?_Psave@?$_Facetptr@V?$ctype@D@std@@@std@@2PBVfacet@locale@2@B
_DATA	SEGMENT DWORD USE32 PUBLIC 'DATA'
_DATA	ENDS
;	COMDAT ??3@YAXPAX0@Z
_TEXT	SEGMENT PARA USE32 PUBLIC 'CODE'
_TEXT	ENDS
;	COMDAT ??2@YAPAXIPAX@Z
_TEXT	SEGMENT PARA USE32 PUBLIC 'CODE'
_TEXT	ENDS
;	COMDAT ??_7length_error@std@@6B@
CONST	SEGMENT DWORD USE32 PUBLIC 'CONST'
CONST	ENDS
;	COMDAT ??_R4length_error@std@@6B@
rdata$r	SEGMENT DWORD USE32 PUBLIC 'CONST'
rdata$r	ENDS
;	COMDAT ??_R3length_error@std@@8
rdata$r	SEGMENT DWORD USE32 PUBLIC 'CONST'
rdata$r	ENDS
;	COMDAT ??_R2length_error@std@@8
rdata$r	SEGMENT DWORD USE32 PUBLIC 'CONST'
rdata$r	ENDS
;	COMDAT ??_R1A@?0A@A@length_error@std@@8
rdata$r	SEGMENT DWORD USE32 PUBLIC 'CONST'
rdata$r	ENDS
;	COMDAT ??_R1A@?0A@A@logic_error@std@@8
rdata$r	SEGMENT DWORD USE32 PUBLIC 'CONST'
rdata$r	ENDS
;	COMDAT ??_R0?AVlogic_error@std@@@8
_DATA	SEGMENT DWORD USE32 PUBLIC 'DATA'
_DATA	ENDS
;	COMDAT ??_R1A@?0A@A@exception@@8
rdata$r	SEGMENT DWORD USE32 PUBLIC 'CONST'
rdata$r	ENDS
;	COMDAT ??_R0?AVexception@@@8
_DATA	SEGMENT DWORD USE32 PUBLIC 'DATA'
_DATA	ENDS
;	COMDAT ??_Glength_error@std@@UAEPAXI@Z
_TEXT	SEGMENT PARA USE32 PUBLIC 'CODE'
_TEXT	ENDS
;	COMDAT ?what@logic_error@std@@UBEPBDXZ
_TEXT	SEGMENT PARA USE32 PUBLIC 'CODE'
_TEXT	ENDS
;	COMDAT ??1logic_error@std@@UAE@XZ
_TEXT	SEGMENT PARA USE32 PUBLIC 'CODE'
_TEXT	ENDS
;	COMDAT ??_7logic_error@std@@6B@
CONST	SEGMENT DWORD USE32 PUBLIC 'CONST'
CONST	ENDS
;	COMDAT ??_R4logic_error@std@@6B@
rdata$r	SEGMENT DWORD USE32 PUBLIC 'CONST'
rdata$r	ENDS
;	COMDAT ??_R3logic_error@std@@8
rdata$r	SEGMENT DWORD USE32 PUBLIC 'CONST'
rdata$r	ENDS
;	COMDAT ??_R2logic_error@std@@8
rdata$r	SEGMENT DWORD USE32 PUBLIC 'CONST'
rdata$r	ENDS
;	COMDAT ??_Glogic_error@std@@UAEPAXI@Z
_TEXT	SEGMENT PARA USE32 PUBLIC 'CODE'
_TEXT	ENDS
;	COMDAT ??0logic_error@std@@QAE@ABV01@@Z
_TEXT	SEGMENT PARA USE32 PUBLIC 'CODE'
_TEXT	ENDS
;	COMDAT __CTA3?AVlength_error@std@@
xdata$x	SEGMENT DWORD USE32 PUBLIC 'CONST'
xdata$x	ENDS
;	COMDAT ??1length_error@std@@UAE@XZ
_TEXT	SEGMENT PARA USE32 PUBLIC 'CODE'
_TEXT	ENDS
;	COMDAT __CT??_R0?AVexception@@@8??0exception@@QAE@ABV0@@Z12
xdata$x	SEGMENT DWORD USE32 PUBLIC 'CONST'
xdata$x	ENDS
;	COMDAT __CT??_R0?AVlogic_error@std@@@8??0logic_error@std@@QAE@ABV01@@Z40
xdata$x	SEGMENT DWORD USE32 PUBLIC 'CONST'
xdata$x	ENDS
;	COMDAT __CT??_R0?AVlength_error@std@@@8??0length_error@std@@QAE@ABV01@@Z40
xdata$x	SEGMENT DWORD USE32 PUBLIC 'CONST'
xdata$x	ENDS
;	COMDAT ??_R0?AVlength_error@std@@@8
_DATA	SEGMENT DWORD USE32 PUBLIC 'DATA'
_DATA	ENDS
;	COMDAT __TI3?AVlength_error@std@@
xdata$x	SEGMENT DWORD USE32 PUBLIC 'CONST'
xdata$x	ENDS
;	COMDAT ??0length_error@std@@QAE@ABV?$basic_string@DU?$char_traits@D@std@@V?$allocator@D@2@@1@@Z
_TEXT	SEGMENT PARA USE32 PUBLIC 'CODE'
_TEXT	ENDS
;	COMDAT ??0logic_error@std@@QAE@ABV?$basic_string@DU?$char_traits@D@std@@V?$allocator@D@2@@1@@Z
_TEXT	SEGMENT PARA USE32 PUBLIC 'CODE'
_TEXT	ENDS
;	COMDAT ??$_Maklocchr@_W@std@@YA_WDPA_WABU_Cvtvec@@@Z
_TEXT	SEGMENT PARA USE32 PUBLIC 'CODE'
_TEXT	ENDS
;	COMDAT ??$_DebugHeapDelete@X@std@@YAXPAX@Z
_TEXT	SEGMENT PARA USE32 PUBLIC 'CODE'
_TEXT	ENDS
;	COMDAT ??$_Maklocstr@_W@std@@YAPA_WPBDPA_WABU_Cvtvec@@@Z
_TEXT	SEGMENT PARA USE32 PUBLIC 'CODE'
_TEXT	ENDS
;	COMDAT ??$_Maklocchr@D@std@@YADDPADABU_Cvtvec@@@Z
_TEXT	SEGMENT PARA USE32 PUBLIC 'CODE'
_TEXT	ENDS
;	COMDAT ??_C@_04LOAJBDKD@true?$AA@
CONST	SEGMENT DWORD USE32 PUBLIC 'CONST'
CONST	ENDS
;	COMDAT ??_C@_05LAPONLG@false?$AA@
CONST	SEGMENT DWORD USE32 PUBLIC 'CONST'
CONST	ENDS
;	COMDAT _wmemcpy
_TEXT	SEGMENT PARA USE32 PUBLIC 'CODE'
_TEXT	ENDS
;	COMDAT ?max_size@?$allocator@_W@std@@QBEIXZ
_TEXT	SEGMENT PARA USE32 PUBLIC 'CODE'
_TEXT	ENDS
;	COMDAT ?allocate@?$allocator@_W@std@@QAEPA_WI@Z
_TEXT	SEGMENT PARA USE32 PUBLIC 'CODE'
_TEXT	ENDS
;	COMDAT ??$_Allocate@_W@std@@YAPA_WIPA_W@Z
_TEXT	SEGMENT PARA USE32 PUBLIC 'CODE'
_TEXT	ENDS
;	COMDAT ??_C@_01GFHCPBMG@C?$AA@
CONST	SEGMENT DWORD USE32 PUBLIC 'CONST'
CONST	ENDS
;	COMDAT ?max_size@?$allocator@D@std@@QBEIXZ
_TEXT	SEGMENT PARA USE32 PUBLIC 'CODE'
_TEXT	ENDS
;	COMDAT ?allocate@?$allocator@D@std@@QAEPADI@Z
_TEXT	SEGMENT PARA USE32 PUBLIC 'CODE'
_TEXT	ENDS
;	COMDAT ??$_Allocate@D@std@@YAPADIPAD@Z
_TEXT	SEGMENT PARA USE32 PUBLIC 'CODE'
_TEXT	ENDS
;	COMDAT ?deallocate@?$allocator@D@std@@QAEXPADI@Z
_TEXT	SEGMENT PARA USE32 PUBLIC 'CODE'
_TEXT	ENDS
;	COMDAT ??$swap@D@std@@YAXAAD0@Z
_TEXT	SEGMENT PARA USE32 PUBLIC 'CODE'
_TEXT	ENDS
;	COMDAT __TI3?AVout_of_range@std@@
xdata$x	SEGMENT DWORD USE32 PUBLIC 'CONST'
xdata$x	ENDS
;	COMDAT ??1out_of_range@std@@UAE@XZ
_TEXT	SEGMENT PARA USE32 PUBLIC 'CODE'
_TEXT	ENDS
;	COMDAT ??_7out_of_range@std@@6B@
CONST	SEGMENT DWORD USE32 PUBLIC 'CONST'
CONST	ENDS
;	COMDAT ??_R4out_of_range@std@@6B@
rdata$r	SEGMENT DWORD USE32 PUBLIC 'CONST'
rdata$r	ENDS
;	COMDAT ??_R0?AVout_of_range@std@@@8
_DATA	SEGMENT DWORD USE32 PUBLIC 'DATA'
_DATA	ENDS
;	COMDAT ??_R3out_of_range@std@@8
rdata$r	SEGMENT DWORD USE32 PUBLIC 'CONST'
rdata$r	ENDS
;	COMDAT ??_R2out_of_range@std@@8
rdata$r	SEGMENT DWORD USE32 PUBLIC 'CONST'
rdata$r	ENDS
;	COMDAT ??_R1A@?0A@A@out_of_range@std@@8
rdata$r	SEGMENT DWORD USE32 PUBLIC 'CONST'
rdata$r	ENDS
;	COMDAT ??_Gout_of_range@std@@UAEPAXI@Z
_TEXT	SEGMENT PARA USE32 PUBLIC 'CODE'
_TEXT	ENDS
;	COMDAT __CTA3?AVout_of_range@std@@
xdata$x	SEGMENT DWORD USE32 PUBLIC 'CONST'
xdata$x	ENDS
;	COMDAT __CT??_R0?AVout_of_range@std@@@8??0out_of_range@std@@QAE@ABV01@@Z40
xdata$x	SEGMENT DWORD USE32 PUBLIC 'CONST'
xdata$x	ENDS
;	COMDAT ??0out_of_range@std@@QAE@ABV01@@Z
_TEXT	SEGMENT PARA USE32 PUBLIC 'CODE'
_TEXT	ENDS
;	COMDAT ??_C@_0BM@PAPJHAGI@invalid?5map?1set?$DMT?$DO?5iterator?$AA@
CONST	SEGMENT DWORD USE32 PUBLIC 'CONST'
CONST	ENDS
;	COMDAT ??0out_of_range@std@@QAE@ABV?$basic_string@DU?$char_traits@D@std@@V?$allocator@D@2@@1@@Z
_TEXT	SEGMENT PARA USE32 PUBLIC 'CODE'
_TEXT	ENDS
;	COMDAT ?_Peek@?$istreambuf_iterator@_WU?$char_traits@_W@std@@@std@@AAE_WXZ
_TEXT	SEGMENT PARA USE32 PUBLIC 'CODE'
_TEXT	ENDS
;	COMDAT ?_Peek@?$istreambuf_iterator@DU?$char_traits@D@std@@@std@@AAEDXZ
_TEXT	SEGMENT PARA USE32 PUBLIC 'CODE'
_TEXT	ENDS
;	COMDAT ??$use_facet@V?$ctype@_W@std@@@std@@YAABV?$ctype@_W@0@ABVlocale@0@@Z
_TEXT	SEGMENT PARA USE32 PUBLIC 'CODE'
_TEXT	ENDS
;	COMDAT ??_S?$ctype@_W@std@@6B@
CONST	SEGMENT DWORD USE32 PUBLIC 'CONST'
CONST	ENDS
;	COMDAT ??_R4?$ctype@_W@std@@6B@
rdata$r	SEGMENT DWORD USE32 PUBLIC 'CONST'
rdata$r	ENDS
;	COMDAT ??_R0?AV?$ctype@_W@std@@@8
_DATA	SEGMENT DWORD USE32 PUBLIC 'DATA'
_DATA	ENDS
;	COMDAT ??_R3?$ctype@_W@std@@8
rdata$r	SEGMENT DWORD USE32 PUBLIC 'CONST'
rdata$r	ENDS
;	COMDAT ??_R2?$ctype@_W@std@@8
rdata$r	SEGMENT DWORD USE32 PUBLIC 'CONST'
rdata$r	ENDS
;	COMDAT ??_R1A@?0A@A@?$ctype@_W@std@@8
rdata$r	SEGMENT DWORD USE32 PUBLIC 'CONST'
rdata$r	ENDS
;	COMDAT ??_R1A@?0A@A@ctype_base@std@@8
rdata$r	SEGMENT DWORD USE32 PUBLIC 'CONST'
rdata$r	ENDS
;	COMDAT ??_R0?AUctype_base@std@@@8
_DATA	SEGMENT DWORD USE32 PUBLIC 'DATA'
_DATA	ENDS
;	COMDAT ??_G?$ctype@_W@std@@MAEPAXI@Z
_TEXT	SEGMENT PARA USE32 PUBLIC 'CODE'
_TEXT	ENDS
;	COMDAT ??_C@_08EPJLHIJG@bad?5cast?$AA@
CONST	SEGMENT DWORD USE32 PUBLIC 'CONST'
CONST	ENDS
;	COMDAT __TI2?AVbad_cast@@
xdata$x	SEGMENT DWORD USE32 PUBLIC 'CONST'
xdata$x	ENDS
;	COMDAT __CTA2?AVbad_cast@@
xdata$x	SEGMENT DWORD USE32 PUBLIC 'CONST'
xdata$x	ENDS
;	COMDAT __CT??_R0?AVbad_cast@@@8??0bad_cast@@QAE@ABV0@@Z12
xdata$x	SEGMENT DWORD USE32 PUBLIC 'CONST'
xdata$x	ENDS
;	COMDAT ??_R0?AVbad_cast@@@8
_DATA	SEGMENT DWORD USE32 PUBLIC 'DATA'
_DATA	ENDS
;	COMDAT ??$_DebugHeapDelete@Vfacet@locale@std@@@std@@YAXPAVfacet@locale@0@@Z
_TEXT	SEGMENT PARA USE32 PUBLIC 'CODE'
_TEXT	ENDS
;	COMDAT ??$use_facet@V?$ctype@D@std@@@std@@YAABV?$ctype@D@0@ABVlocale@0@@Z
_TEXT	SEGMENT PARA USE32 PUBLIC 'CODE'
_TEXT	ENDS
;	COMDAT ??_S?$ctype@D@std@@6B@
CONST	SEGMENT DWORD USE32 PUBLIC 'CONST'
CONST	ENDS
;	COMDAT ??_R4?$ctype@D@std@@6B@
rdata$r	SEGMENT DWORD USE32 PUBLIC 'CONST'
rdata$r	ENDS
;	COMDAT ??_R0?AV?$ctype@D@std@@@8
_DATA	SEGMENT DWORD USE32 PUBLIC 'DATA'
_DATA	ENDS
;	COMDAT ??_R3?$ctype@D@std@@8
rdata$r	SEGMENT DWORD USE32 PUBLIC 'CONST'
rdata$r	ENDS
;	COMDAT ??_R2?$ctype@D@std@@8
rdata$r	SEGMENT DWORD USE32 PUBLIC 'CONST'
rdata$r	ENDS
;	COMDAT ??_R1A@?0A@A@?$ctype@D@std@@8
rdata$r	SEGMENT DWORD USE32 PUBLIC 'CONST'
rdata$r	ENDS
;	COMDAT ??_G?$ctype@D@std@@MAEPAXI@Z
_TEXT	SEGMENT PARA USE32 PUBLIC 'CODE'
_TEXT	ENDS
;	COMDAT ??_S?$numpunct@_W@std@@6B@
CONST	SEGMENT DWORD USE32 PUBLIC 'CONST'
CONST	ENDS
;	COMDAT ??_S?$numpunct@D@std@@6B@
CONST	SEGMENT DWORD USE32 PUBLIC 'CONST'
CONST	ENDS
;	COMDAT _wmemmove
_TEXT	SEGMENT PARA USE32 PUBLIC 'CODE'
_TEXT	ENDS
;	COMDAT ?deallocate@?$allocator@_W@std@@QAEXPA_WI@Z
_TEXT	SEGMENT PARA USE32 PUBLIC 'CODE'
_TEXT	ENDS
;	COMDAT ??0?$allocator@_W@std@@QAE@ABV01@@Z
_TEXT	SEGMENT PARA USE32 PUBLIC 'CODE'
_TEXT	ENDS
;	COMDAT ??_R0?AVIMessageObserver@@@8
_DATA	SEGMENT DWORD USE32 PUBLIC 'DATA'
_DATA	ENDS
;	COMDAT ??_R0?AVIHttpDownObserver@@@8
_DATA	SEGMENT DWORD USE32 PUBLIC 'DATA'
_DATA	ENDS
;	COMDAT ??$?HDU?$char_traits@D@std@@V?$allocator@D@1@@std@@YA?AV?$basic_string@DU?$char_traits@D@std@@V?$allocator@D@2@@0@ABV10@PBD@Z
_TEXT	SEGMENT PARA USE32 PUBLIC 'CODE'
_TEXT	ENDS
;	COMDAT ??0?$allocator@D@std@@QAE@ABV01@@Z
_TEXT	SEGMENT PARA USE32 PUBLIC 'CODE'
_TEXT	ENDS
;	COMDAT ??0?$allocator@D@std@@QAE@XZ
_TEXT	SEGMENT PARA USE32 PUBLIC 'CODE'
_TEXT	ENDS
;	COMDAT ??_7HttpDownCtrl@@6B@
CONST	SEGMENT DWORD USE32 PUBLIC 'CONST'
CONST	ENDS
;	COMDAT ?_messageEntries@HttpDownCtrl@@0QBUAFX_MSGMAP_ENTRY@@B
CONST	SEGMENT DWORD USE32 PUBLIC 'CONST'
CONST	ENDS
;	COMDAT ?messageMap@HttpDownCtrl@@1UAFX_MSGMAP@@B
CONST	SEGMENT DWORD USE32 PUBLIC 'CONST'
CONST	ENDS
;	COMDAT ??_7HTTPObserver@@6B@
CONST	SEGMENT DWORD USE32 PUBLIC 'CONST'
CONST	ENDS
sxdata	SEGMENT DWORD USE32 'SXDATA'
sxdata	ENDS
FLAT	GROUP _DATA, CONST, _BSS
	ASSUME	CS: FLAT, DS: FLAT, SS: FLAT
endif

INCLUDELIB MSVCRTD
INCLUDELIB OLDNAMES

PUBLIC	?m_pCtr@HttpDownCtrl@@2PAV1@A			; HttpDownCtrl::m_pCtr
PUBLIC	?_messageEntries@HttpDownCtrl@@0QBUAFX_MSGMAP_ENTRY@@B ; HttpDownCtrl::_messageEntries
PUBLIC	?messageMap@HttpDownCtrl@@1UAFX_MSGMAP@@B	; HttpDownCtrl::messageMap
PUBLIC	?OnTimer@HttpDownCtrl@@IAEXI@Z			; HttpDownCtrl::OnTimer
EXTRN	?GetThisMessageMap@CWnd@@KGPBUAFX_MSGMAP@@XZ:NEAR ; CWnd::GetThisMessageMap
_BSS	SEGMENT
?m_pCtr@HttpDownCtrl@@2PAV1@A DD 01H DUP (?)		; HttpDownCtrl::m_pCtr
_BSS	ENDS
CONST	SEGMENT
$SG188046 DB	'int', 00H
CONST	ENDS
_DATA	SEGMENT
_TYPE_CONFIG_INT DD FLAT:$SG188046
_DATA	ENDS
CONST	SEGMENT
$SG188048 DB	'str', 00H
CONST	ENDS
_DATA	SEGMENT
_TYPE_CONFIG_STR DD FLAT:$SG188048
_DATA	ENDS
CONST	SEGMENT
$SG188050 DB	'double', 00H
CONST	ENDS
_DATA	SEGMENT
_TYPE_CONFIG_DOUBLE DD FLAT:$SG188050
_DATA	ENDS
CONST	SEGMENT
	ORG $+1
$SG188052 DB	'bool', 00H
CONST	ENDS
_DATA	SEGMENT
_TYPE_CONFIG_BOOL DD FLAT:$SG188052
_DATA	ENDS
CONST	SEGMENT
	ORG $+3
$SG188054 DB	'sepint', 00H
CONST	ENDS
_DATA	SEGMENT
_TYPE_CONFIG_INT_HASSEP DD FLAT:$SG188054
_DATA	ENDS
CONST	SEGMENT
	ORG $+1
$SG188056 DB	'sepstr', 00H
CONST	ENDS
_DATA	SEGMENT
_TYPE_CONFIG_STR_HASSEP DD FLAT:$SG188056
_DATA	ENDS
CONST	SEGMENT
	ORG $+1
$SG188058 DB	'sepdouble', 00H
CONST	ENDS
_DATA	SEGMENT
_TYPE_CONFIG_DOUBLE_HASSEP DD FLAT:$SG188058
_DATA	ENDS
CONST	SEGMENT
	ORG $+2
$SG188060 DB	'sepbool', 00H
CONST	ENDS
_DATA	SEGMENT
_TYPE_CONFIG_BOOL_HASSEP DD FLAT:$SG188060
_DATA	ENDS
CONST	SEGMENT
$SG188062 DB	'App', 00H
CONST	ENDS
_DATA	SEGMENT
_CONF_APP_MODULE_NAME DD FLAT:$SG188062
_DATA	ENDS
CONST	SEGMENT
$SG188064 DB	'SwfPath', 00H
CONST	ENDS
_DATA	SEGMENT
_CONF_APP_SWF_PATH DD FLAT:$SG188064
_DATA	ENDS
CONST	SEGMENT
$SG188066 DB	'MainWndHold', 00H
CONST	ENDS
_DATA	SEGMENT
_CONF_APP_MAINWND_HOLD DD FLAT:$SG188066
_DATA	ENDS
CONST	SEGMENT
$SG188068 DB	'RunCount', 00H
CONST	ENDS
_DATA	SEGMENT
_CONF_APP_RUN_COUNT DD FLAT:$SG188068
_DATA	ENDS
CONST	SEGMENT
	ORG $+3
$SG188070 DB	'PlayedGame', 00H
CONST	ENDS
_DATA	SEGMENT
_CONF_APP_PLAYED_GAME DD FLAT:$SG188070
_DATA	ENDS
CONST	SEGMENT
	ORG $+1
$SG188072 DB	'playedPcGame', 00H
CONST	ENDS
_DATA	SEGMENT
_CONF_APP_PLAYED_PC_GAME DD FLAT:$SG188072
_DATA	ENDS
CONST	SEGMENT
	ORG $+3
$SG188074 DB	'PlayedIconSize', 00H
CONST	ENDS
_DATA	SEGMENT
_CONF_APP_PLAYED_ICON_SIZE DD FLAT:$SG188074
_DATA	ENDS
CONST	SEGMENT
	ORG $+1
$SG188076 DB	'PictureSavePath', 00H
CONST	ENDS
_DATA	SEGMENT
_CONF_APP_PIC_SAVE_PATH DD FLAT:$SG188076
_DATA	ENDS
;	COMDAT ?_messageEntries@HttpDownCtrl@@0QBUAFX_MSGMAP_ENTRY@@B
CONST	SEGMENT
?_messageEntries@HttpDownCtrl@@0QBUAFX_MSGMAP_ENTRY@@B DD 0113H ; HttpDownCtrl::_messageEntries
	DD	00H
	DD	00H
	DD	00H
	DD	011H
	DD	FLAT:?OnTimer@HttpDownCtrl@@IAEXI@Z
	DD	00H
	DD	00H
	DD	00H
	DD	00H
	DD	00H
	DD	00H
CONST	ENDS
;	COMDAT ?messageMap@HttpDownCtrl@@1UAFX_MSGMAP@@B
CONST	SEGMENT
?messageMap@HttpDownCtrl@@1UAFX_MSGMAP@@B DD FLAT:?GetThisMessageMap@CWnd@@KGPBUAFX_MSGMAP@@XZ ; HttpDownCtrl::messageMap
	DD	FLAT:?_messageEntries@HttpDownCtrl@@0QBUAFX_MSGMAP_ENTRY@@B
CONST	ENDS
CONST	SEGMENT
$SG188232 DB	'.swf', 00H
	ORG $+3
_ID_MESSAGE_HTTP_DOWN DD 0cH
CONST	ENDS
PUBLIC	?GetThisMessageMap@HttpDownCtrl@@KGPBUAFX_MSGMAP@@XZ ; HttpDownCtrl::GetThisMessageMap
EXTRN	__RTC_InitBase:NEAR
EXTRN	__RTC_Shutdown:NEAR
;	COMDAT rtc$IMZ
; File d:\boxgit\playbox\playbox\dev\prj\playbox\src\module\httpdown\httpdownctrl.cpp
rtc$IMZ	SEGMENT
__RTC_InitBase.rtc$IMZ DD FLAT:__RTC_InitBase
rtc$IMZ	ENDS
;	COMDAT rtc$TMZ
rtc$TMZ	SEGMENT
__RTC_Shutdown.rtc$TMZ DD FLAT:__RTC_Shutdown
; Function compile flags: /Odt /RTCsu
rtc$TMZ	ENDS
_TEXT	SEGMENT
?GetThisMessageMap@HttpDownCtrl@@KGPBUAFX_MSGMAP@@XZ PROC NEAR ; HttpDownCtrl::GetThisMessageMap

; 15   : BEGIN_MESSAGE_MAP(HttpDownCtrl, CWnd)

  00000	55		 push	 ebp
  00001	8b ec		 mov	 ebp, esp
  00003	b8 00 00 00 00	 mov	 eax, OFFSET FLAT:?messageMap@HttpDownCtrl@@1UAFX_MSGMAP@@B ; HttpDownCtrl::messageMap
  00008	5d		 pop	 ebp
  00009	c3		 ret	 0
?GetThisMessageMap@HttpDownCtrl@@KGPBUAFX_MSGMAP@@XZ ENDP ; HttpDownCtrl::GetThisMessageMap
_TEXT	ENDS
PUBLIC	?GetMessageMap@HttpDownCtrl@@MBEPBUAFX_MSGMAP@@XZ ; HttpDownCtrl::GetMessageMap
; Function compile flags: /Odt /RTCsu
_TEXT	SEGMENT
_this$ = -4						; size = 4
?GetMessageMap@HttpDownCtrl@@MBEPBUAFX_MSGMAP@@XZ PROC NEAR ; HttpDownCtrl::GetMessageMap
; _this$ = ecx

; 15   : BEGIN_MESSAGE_MAP(HttpDownCtrl, CWnd)

  00010	55		 push	 ebp
  00011	8b ec		 mov	 ebp, esp
  00013	51		 push	 ecx
  00014	c7 45 fc cc cc
	cc cc		 mov	 DWORD PTR [ebp-4], -858993460 ; ccccccccH
  0001b	89 4d fc	 mov	 DWORD PTR _this$[ebp], ecx
  0001e	b8 00 00 00 00	 mov	 eax, OFFSET FLAT:?messageMap@HttpDownCtrl@@1UAFX_MSGMAP@@B ; HttpDownCtrl::messageMap
  00023	8b e5		 mov	 esp, ebp
  00025	5d		 pop	 ebp
  00026	c3		 ret	 0
?GetMessageMap@HttpDownCtrl@@MBEPBUAFX_MSGMAP@@XZ ENDP	; HttpDownCtrl::GetMessageMap
_TEXT	ENDS
PUBLIC	??_R1A@?0A@A@CWnd@@8				; CWnd::`RTTI Base Class Descriptor at (0,-1,0,0)'
PUBLIC	??_R0?AVCWnd@@@8				; CWnd `RTTI Type Descriptor'
PUBLIC	??_R1A@?0A@A@CCmdTarget@@8			; CCmdTarget::`RTTI Base Class Descriptor at (0,-1,0,0)'
PUBLIC	??_R0?AVCCmdTarget@@@8				; CCmdTarget `RTTI Type Descriptor'
PUBLIC	??_R1A@?0A@A@CObject@@8				; CObject::`RTTI Base Class Descriptor at (0,-1,0,0)'
PUBLIC	??_R0?AVCObject@@@8				; CObject `RTTI Type Descriptor'
PUBLIC	??0?$map@V?$basic_string@DU?$char_traits@D@std@@V?$allocator@D@2@@std@@PAVYL_CHTTPDownFile@@U?$less@V?$basic_string@DU?$char_traits@D@std@@V?$allocator@D@2@@std@@@2@V?$allocator@U?$pair@$$CBV?$basic_string@DU?$char_traits@D@std@@V?$allocator@D@2@@std@@PAVYL_CHTTPDownFile@@@std@@@2@@std@@QAE@XZ ; std::map<std::basic_string<char,std::char_traits<char>,std::allocator<char> >,YL_CHTTPDownFile *,std::less<std::basic_string<char,std::char_traits<char>,std::allocator<char> > >,std::allocator<std::pair<std::basic_string<char,std::char_traits<char>,std::allocator<char> > const ,YL_CHTTPDownFile *> > >::map<std::basic_string<char,std::char_traits<char>,std::allocator<char> >,YL_CHTTPDownFile *,std::less<std::basic_string<char,std::char_traits<char>,std::allocator<char> > >,std::allocator<std::pair<std::basic_string<char,std::char_traits<char>,std::allocator<char> > const ,YL_CHTTPDownFile *> > >
PUBLIC	??_7HttpDownCtrl@@6B@				; HttpDownCtrl::`vftable'
PUBLIC	??_GHttpDownCtrl@@UAEPAXI@Z			; HttpDownCtrl::`scalar deleting destructor'
PUBLIC	??_R4HttpDownCtrl@@6B@				; HttpDownCtrl::`RTTI Complete Object Locator'
PUBLIC	??_R0?AVHttpDownCtrl@@@8			; HttpDownCtrl `RTTI Type Descriptor'
PUBLIC	??_R3HttpDownCtrl@@8				; HttpDownCtrl::`RTTI Class Hierarchy Descriptor'
PUBLIC	??_R2HttpDownCtrl@@8				; HttpDownCtrl::`RTTI Base Class Array'
PUBLIC	??_R1A@?0A@A@HttpDownCtrl@@8			; HttpDownCtrl::`RTTI Base Class Descriptor at (0,-1,0,0)'
PUBLIC	??0HttpDownCtrl@@QAE@XZ				; HttpDownCtrl::HttpDownCtrl
EXTRN	?GetInterfaceMap@CWnd@@MBEPBUAFX_INTERFACEMAP@@XZ:NEAR ; CWnd::GetInterfaceMap
EXTRN	?EnsureStdObj@CWnd@@UAEJXZ:NEAR			; CWnd::EnsureStdObj
EXTRN	?get_accParent@CWnd@@UAEJPAPAUIDispatch@@@Z:NEAR ; CWnd::get_accParent
EXTRN	?OnCmdMsg@CCmdTarget@@UAEHIHPAXPAUAFX_CMDHANDLERINFO@@@Z:NEAR ; CCmdTarget::OnCmdMsg
EXTRN	?get_accChildCount@CWnd@@UAEJPAJ@Z:NEAR		; CWnd::get_accChildCount
EXTRN	?IsInvokeAllowed@CCmdTarget@@UAEHJ@Z:NEAR	; CCmdTarget::IsInvokeAllowed
EXTRN	?get_accChild@CWnd@@UAEJUtagVARIANT@@PAPAUIDispatch@@@Z:NEAR ; CWnd::get_accChild
EXTRN	?get_accName@CWnd@@UAEJUtagVARIANT@@PAPA_W@Z:NEAR ; CWnd::get_accName
EXTRN	?get_accValue@CWnd@@UAEJUtagVARIANT@@PAPA_W@Z:NEAR ; CWnd::get_accValue
EXTRN	?GetDispatchIID@CCmdTarget@@UAEHPAU_GUID@@@Z:NEAR ; CCmdTarget::GetDispatchIID
EXTRN	?GetTypeInfoCount@CCmdTarget@@UAEIXZ:NEAR	; CCmdTarget::GetTypeInfoCount
EXTRN	?GetTypeLibCache@CCmdTarget@@UAEPAVCTypeLibCache@@XZ:NEAR ; CCmdTarget::GetTypeLibCache
EXTRN	?get_accDescription@CWnd@@UAEJUtagVARIANT@@PAPA_W@Z:NEAR ; CWnd::get_accDescription
EXTRN	?GetTypeLib@CCmdTarget@@UAEJKPAPAUITypeLib@@@Z:NEAR ; CCmdTarget::GetTypeLib
EXTRN	?get_accRole@CWnd@@UAEJUtagVARIANT@@PAU2@@Z:NEAR ; CWnd::get_accRole
EXTRN	?get_accState@CWnd@@UAEJUtagVARIANT@@PAU2@@Z:NEAR ; CWnd::get_accState
EXTRN	?get_accHelp@CWnd@@UAEJUtagVARIANT@@PAPA_W@Z:NEAR ; CWnd::get_accHelp
EXTRN	?get_accHelpTopic@CWnd@@UAEJPAPA_WUtagVARIANT@@PAJ@Z:NEAR ; CWnd::get_accHelpTopic
EXTRN	?get_accKeyboardShortcut@CWnd@@UAEJUtagVARIANT@@PAPA_W@Z:NEAR ; CWnd::get_accKeyboardShortcut
EXTRN	?get_accFocus@CWnd@@UAEJPAUtagVARIANT@@@Z:NEAR	; CWnd::get_accFocus
EXTRN	?get_accSelection@CWnd@@UAEJPAUtagVARIANT@@@Z:NEAR ; CWnd::get_accSelection
EXTRN	?get_accDefaultAction@CWnd@@UAEJUtagVARIANT@@PAPA_W@Z:NEAR ; CWnd::get_accDefaultAction
EXTRN	?GetCommandMap@CCmdTarget@@MBEPBUAFX_OLECMDMAP@@XZ:NEAR ; CCmdTarget::GetCommandMap
EXTRN	?accSelect@CWnd@@UAEJJUtagVARIANT@@@Z:NEAR	; CWnd::accSelect
EXTRN	?accLocation@CWnd@@UAEJPAJ000UtagVARIANT@@@Z:NEAR ; CWnd::accLocation
EXTRN	?GetDispatchMap@CCmdTarget@@MBEPBUAFX_DISPMAP@@XZ:NEAR ; CCmdTarget::GetDispatchMap
EXTRN	?accNavigate@CWnd@@UAEJJUtagVARIANT@@PAU2@@Z:NEAR ; CWnd::accNavigate
EXTRN	?accHitTest@CWnd@@UAEJJJPAUtagVARIANT@@@Z:NEAR	; CWnd::accHitTest
EXTRN	?GetConnectionMap@CCmdTarget@@MBEPBUAFX_CONNECTIONMAP@@XZ:NEAR ; CCmdTarget::GetConnectionMap
EXTRN	?accDoDefaultAction@CWnd@@UAEJUtagVARIANT@@@Z:NEAR ; CWnd::accDoDefaultAction
EXTRN	?put_accName@CWnd@@UAEJUtagVARIANT@@PA_W@Z:NEAR	; CWnd::put_accName
EXTRN	?put_accValue@CWnd@@UAEJUtagVARIANT@@PA_W@Z:NEAR ; CWnd::put_accValue
EXTRN	?SetProxy@CWnd@@UAEJPAUIAccessibleProxy@@@Z:NEAR ; CWnd::SetProxy
EXTRN	?CreateAccessibleProxy@CWnd@@UAEJIJPAJ@Z:NEAR	; CWnd::CreateAccessibleProxy
EXTRN	?GetEventSinkMap@CCmdTarget@@MBEPBUAFX_EVENTSINKMAP@@XZ:NEAR ; CCmdTarget::GetEventSinkMap
EXTRN	?OnCreateAggregates@CCmdTarget@@UAEHXZ:NEAR	; CCmdTarget::OnCreateAggregates
EXTRN	?OnCommand@CWnd@@MAEHIJ@Z:NEAR			; CWnd::OnCommand
EXTRN	?GetInterfaceHook@CCmdTarget@@UAEPAUIUnknown@@PBX@Z:NEAR ; CCmdTarget::GetInterfaceHook
EXTRN	?OnNotify@CWnd@@MAEHIJPAJ@Z:NEAR		; CWnd::OnNotify
EXTRN	?GetExtraConnectionPoints@CCmdTarget@@MAEHPAVCPtrArray@@@Z:NEAR ; CCmdTarget::GetExtraConnectionPoints
EXTRN	?GetConnectionHook@CCmdTarget@@MAEPAUIConnectionPoint@@ABU_GUID@@@Z:NEAR ; CCmdTarget::GetConnectionHook
EXTRN	?GetRuntimeClass@CWnd@@UBEPAUCRuntimeClass@@XZ:NEAR ; CWnd::GetRuntimeClass
EXTRN	??0CWnd@@QAE@XZ:NEAR				; CWnd::CWnd
EXTRN	?PreSubclassWindow@CWnd@@UAEXXZ:NEAR		; CWnd::PreSubclassWindow
EXTRN	__except_list:DWORD
EXTRN	__RTC_CheckEsp:NEAR
EXTRN	??_EHttpDownCtrl@@UAEPAXI@Z:NEAR		; HttpDownCtrl::`vector deleting destructor'
EXTRN	___CxxFrameHandler:NEAR
EXTRN	?Create@CWnd@@UAEHPBD0KABUtagRECT@@PAV1@IPAUCCreateContext@@@Z:NEAR ; CWnd::Create
EXTRN	?CreateEx@CWnd@@UAEHKPBD0KHHHHPAUHWND__@@PAUHMENU__@@PAX@Z:NEAR ; CWnd::CreateEx
EXTRN	?CreateEx@CWnd@@UAEHKPBD0KABUtagRECT@@PAV1@IPAX@Z:NEAR ; CWnd::CreateEx
EXTRN	?Serialize@CObject@@UAEXAAVCArchive@@@Z:NEAR	; CObject::Serialize
EXTRN	?DestroyWindow@CWnd@@UAEHXZ:NEAR		; CWnd::DestroyWindow
EXTRN	?PreCreateWindow@CWnd@@UAEHAAUtagCREATESTRUCTA@@@Z:NEAR ; CWnd::PreCreateWindow
EXTRN	?CalcWindowRect@CWnd@@UAEXPAUtagRECT@@I@Z:NEAR	; CWnd::CalcWindowRect
EXTRN	?GetSuperWndProcAddr@CWnd@@MAEPAP6GJPAUHWND__@@IIJ@ZXZ:NEAR ; CWnd::GetSuperWndProcAddr
EXTRN	?DoDataExchange@CWnd@@MAEXPAVCDataExchange@@@Z:NEAR ; CWnd::DoDataExchange
EXTRN	?BeginModalState@CWnd@@UAEXXZ:NEAR		; CWnd::BeginModalState
EXTRN	?EndModalState@CWnd@@UAEXXZ:NEAR		; CWnd::EndModalState
EXTRN	?PreTranslateMessage@CWnd@@UAEHPAUtagMSG@@@Z:NEAR ; CWnd::PreTranslateMessage
EXTRN	?OnAmbientProperty@CWnd@@UAEHPAVCOleControlSite@@JPAUtagVARIANT@@@Z:NEAR ; CWnd::OnAmbientProperty
EXTRN	?WindowProc@CWnd@@MAEJIIJ@Z:NEAR		; CWnd::WindowProc
EXTRN	?OnWndMsg@CWnd@@MAEHIIJPAJ@Z:NEAR		; CWnd::OnWndMsg
EXTRN	?DefWindowProcA@CWnd@@MAEJIIJ@Z:NEAR		; CWnd::DefWindowProcA
EXTRN	?PostNcDestroy@CWnd@@MAEXXZ:NEAR		; CWnd::PostNcDestroy
EXTRN	?OnChildNotify@CWnd@@MAEHIIJPAJ@Z:NEAR		; CWnd::OnChildNotify
EXTRN	??1CWnd@@UAE@XZ:NEAR				; CWnd::~CWnd
EXTRN	?CheckAutoCenter@CWnd@@UAEHXZ:NEAR		; CWnd::CheckAutoCenter
EXTRN	?AssertValid@CWnd@@UBEXXZ:NEAR			; CWnd::AssertValid
EXTRN	?Dump@CWnd@@UBEXAAVCDumpContext@@@Z:NEAR	; CWnd::Dump
EXTRN	?IsFrameWnd@CWnd@@UBEHXZ:NEAR			; CWnd::IsFrameWnd
EXTRN	?OnFinalRelease@CWnd@@UAEXXZ:NEAR		; CWnd::OnFinalRelease
EXTRN	?CreateControlContainer@CWnd@@MAEHPAPAVCOleControlContainer@@@Z:NEAR ; CWnd::CreateControlContainer
EXTRN	?CreateControlSite@CWnd@@MAEHPAVCOleControlContainer@@PAPAVCOleControlSite@@IABU_GUID@@@Z:NEAR ; CWnd::CreateControlSite
EXTRN	?SetOccDialogInfo@CWnd@@MAEHPAU_AFX_OCC_DIALOG_INFO@@@Z:NEAR ; CWnd::SetOccDialogInfo
EXTRN	??0CMutex@@QAE@HPBDPAU_SECURITY_ATTRIBUTES@@@Z:NEAR ; CMutex::CMutex
EXTRN	??1CMutex@@UAE@XZ:NEAR				; CMutex::~CMutex
EXTRN	?OnToolHitTest@CWnd@@UBEHVCPoint@@PAUtagTOOLINFOA@@@Z:NEAR ; CWnd::OnToolHitTest
EXTRN	?GetScrollBarCtrl@CWnd@@UBEPAVCScrollBar@@H@Z:NEAR ; CWnd::GetScrollBarCtrl
EXTRN	?WinHelpA@CWnd@@UAEXKI@Z:NEAR			; CWnd::WinHelpA
EXTRN	?HtmlHelpA@CWnd@@UAEXKI@Z:NEAR			; CWnd::HtmlHelpA
EXTRN	??_7type_info@@6B@:QWORD			; type_info::`vftable'
EXTRN	?WinHelpInternal@CWnd@@UAEXKI@Z:NEAR		; CWnd::WinHelpInternal
EXTRN	?ContinueModal@CWnd@@UAEHXZ:NEAR		; CWnd::ContinueModal
EXTRN	?EndModalLoop@CWnd@@UAEXH@Z:NEAR		; CWnd::EndModalLoop
xdata$x	SEGMENT
$T190951 DD	0ffffffffH
	DD	FLAT:$L190941
	DD	00H
	DD	FLAT:$L190942
$T190947 DD	019930520H
	DD	02H
	DD	FLAT:$T190951
	DD	2 DUP(00H)
	DD	2 DUP(00H)
xdata$x	ENDS
;	COMDAT ??_7HttpDownCtrl@@6B@
CONST	SEGMENT
??_7HttpDownCtrl@@6B@ DD FLAT:??_R4HttpDownCtrl@@6B@	; HttpDownCtrl::`vftable'
	DD	FLAT:?GetRuntimeClass@CWnd@@UBEPAUCRuntimeClass@@XZ
	DD	FLAT:??_EHttpDownCtrl@@UAEPAXI@Z
	DD	FLAT:?Serialize@CObject@@UAEXAAVCArchive@@@Z
	DD	FLAT:?AssertValid@CWnd@@UBEXXZ
	DD	FLAT:?Dump@CWnd@@UBEXAAVCDumpContext@@@Z
	DD	FLAT:?OnCmdMsg@CCmdTarget@@UAEHIHPAXPAUAFX_CMDHANDLERINFO@@@Z
	DD	FLAT:?OnFinalRelease@CWnd@@UAEXXZ
	DD	FLAT:?IsInvokeAllowed@CCmdTarget@@UAEHJ@Z
	DD	FLAT:?GetDispatchIID@CCmdTarget@@UAEHPAU_GUID@@@Z
	DD	FLAT:?GetTypeInfoCount@CCmdTarget@@UAEIXZ
	DD	FLAT:?GetTypeLibCache@CCmdTarget@@UAEPAVCTypeLibCache@@XZ
	DD	FLAT:?GetTypeLib@CCmdTarget@@UAEJKPAPAUITypeLib@@@Z
	DD	FLAT:?GetMessageMap@HttpDownCtrl@@MBEPBUAFX_MSGMAP@@XZ
	DD	FLAT:?GetCommandMap@CCmdTarget@@MBEPBUAFX_OLECMDMAP@@XZ
	DD	FLAT:?GetDispatchMap@CCmdTarget@@MBEPBUAFX_DISPMAP@@XZ
	DD	FLAT:?GetConnectionMap@CCmdTarget@@MBEPBUAFX_CONNECTIONMAP@@XZ
	DD	FLAT:?GetInterfaceMap@CWnd@@MBEPBUAFX_INTERFACEMAP@@XZ
	DD	FLAT:?GetEventSinkMap@CCmdTarget@@MBEPBUAFX_EVENTSINKMAP@@XZ
	DD	FLAT:?OnCreateAggregates@CCmdTarget@@UAEHXZ
	DD	FLAT:?GetInterfaceHook@CCmdTarget@@UAEPAUIUnknown@@PBX@Z
	DD	FLAT:?GetExtraConnectionPoints@CCmdTarget@@MAEHPAVCPtrArray@@@Z
	DD	FLAT:?GetConnectionHook@CCmdTarget@@MAEPAUIConnectionPoint@@ABU_GUID@@@Z
	DD	FLAT:?PreSubclassWindow@CWnd@@UAEXXZ
	DD	FLAT:?Create@CWnd@@UAEHPBD0KABUtagRECT@@PAV1@IPAUCCreateContext@@@Z
	DD	FLAT:?CreateEx@CWnd@@UAEHKPBD0KABUtagRECT@@PAV1@IPAX@Z
	DD	FLAT:?CreateEx@CWnd@@UAEHKPBD0KHHHHPAUHWND__@@PAUHMENU__@@PAX@Z
	DD	FLAT:?DestroyWindow@CWnd@@UAEHXZ
	DD	FLAT:?PreCreateWindow@CWnd@@UAEHAAUtagCREATESTRUCTA@@@Z
	DD	FLAT:?CalcWindowRect@CWnd@@UAEXPAUtagRECT@@I@Z
	DD	FLAT:?OnToolHitTest@CWnd@@UBEHVCPoint@@PAUtagTOOLINFOA@@@Z
	DD	FLAT:?GetScrollBarCtrl@CWnd@@UBEPAVCScrollBar@@H@Z
	DD	FLAT:?WinHelpA@CWnd@@UAEXKI@Z
	DD	FLAT:?HtmlHelpA@CWnd@@UAEXKI@Z
	DD	FLAT:?WinHelpInternal@CWnd@@UAEXKI@Z
	DD	FLAT:?ContinueModal@CWnd@@UAEHXZ
	DD	FLAT:?EndModalLoop@CWnd@@UAEXH@Z
	DD	FLAT:?EnsureStdObj@CWnd@@UAEJXZ
	DD	FLAT:?get_accParent@CWnd@@UAEJPAPAUIDispatch@@@Z
	DD	FLAT:?get_accChildCount@CWnd@@UAEJPAJ@Z
	DD	FLAT:?get_accChild@CWnd@@UAEJUtagVARIANT@@PAPAUIDispatch@@@Z
	DD	FLAT:?get_accName@CWnd@@UAEJUtagVARIANT@@PAPA_W@Z
	DD	FLAT:?get_accValue@CWnd@@UAEJUtagVARIANT@@PAPA_W@Z
	DD	FLAT:?get_accDescription@CWnd@@UAEJUtagVARIANT@@PAPA_W@Z
	DD	FLAT:?get_accRole@CWnd@@UAEJUtagVARIANT@@PAU2@@Z
	DD	FLAT:?get_accState@CWnd@@UAEJUtagVARIANT@@PAU2@@Z
	DD	FLAT:?get_accHelp@CWnd@@UAEJUtagVARIANT@@PAPA_W@Z
	DD	FLAT:?get_accHelpTopic@CWnd@@UAEJPAPA_WUtagVARIANT@@PAJ@Z
	DD	FLAT:?get_accKeyboardShortcut@CWnd@@UAEJUtagVARIANT@@PAPA_W@Z
	DD	FLAT:?get_accFocus@CWnd@@UAEJPAUtagVARIANT@@@Z
	DD	FLAT:?get_accSelection@CWnd@@UAEJPAUtagVARIANT@@@Z
	DD	FLAT:?get_accDefaultAction@CWnd@@UAEJUtagVARIANT@@PAPA_W@Z
	DD	FLAT:?accSelect@CWnd@@UAEJJUtagVARIANT@@@Z
	DD	FLAT:?accLocation@CWnd@@UAEJPAJ000UtagVARIANT@@@Z
	DD	FLAT:?accNavigate@CWnd@@UAEJJUtagVARIANT@@PAU2@@Z
	DD	FLAT:?accHitTest@CWnd@@UAEJJJPAUtagVARIANT@@@Z
	DD	FLAT:?accDoDefaultAction@CWnd@@UAEJUtagVARIANT@@@Z
	DD	FLAT:?put_accName@CWnd@@UAEJUtagVARIANT@@PA_W@Z
	DD	FLAT:?put_accValue@CWnd@@UAEJUtagVARIANT@@PA_W@Z
	DD	FLAT:?SetProxy@CWnd@@UAEJPAUIAccessibleProxy@@@Z
	DD	FLAT:?CreateAccessibleProxy@CWnd@@UAEJIJPAJ@Z
	DD	FLAT:?OnCommand@CWnd@@MAEHIJ@Z
	DD	FLAT:?OnNotify@CWnd@@MAEHIJPAJ@Z
	DD	FLAT:?GetSuperWndProcAddr@CWnd@@MAEPAP6GJPAUHWND__@@IIJ@ZXZ
	DD	FLAT:?DoDataExchange@CWnd@@MAEXPAVCDataExchange@@@Z
	DD	FLAT:?BeginModalState@CWnd@@UAEXXZ
	DD	FLAT:?EndModalState@CWnd@@UAEXXZ
	DD	FLAT:?PreTranslateMessage@CWnd@@UAEHPAUtagMSG@@@Z
	DD	FLAT:?OnAmbientProperty@CWnd@@UAEHPAVCOleControlSite@@JPAUtagVARIANT@@@Z
	DD	FLAT:?WindowProc@CWnd@@MAEJIIJ@Z
	DD	FLAT:?OnWndMsg@CWnd@@MAEHIIJPAJ@Z
	DD	FLAT:?DefWindowProcA@CWnd@@MAEJIIJ@Z
	DD	FLAT:?PostNcDestroy@CWnd@@MAEXXZ
	DD	FLAT:?OnChildNotify@CWnd@@MAEHIIJPAJ@Z
	DD	FLAT:?CheckAutoCenter@CWnd@@UAEHXZ
	DD	FLAT:?IsFrameWnd@CWnd@@UBEHXZ
	DD	FLAT:?CreateControlContainer@CWnd@@MAEHPAPAVCOleControlContainer@@@Z
	DD	FLAT:?CreateControlSite@CWnd@@MAEHPAVCOleControlContainer@@PAPAVCOleControlSite@@IABU_GUID@@@Z
	DD	FLAT:?SetOccDialogInfo@CWnd@@MAEHPAU_AFX_OCC_DIALOG_INFO@@@Z
CONST	ENDS
;	COMDAT ??_R4HttpDownCtrl@@6B@
rdata$r	SEGMENT
??_R4HttpDownCtrl@@6B@ DD 00H				; HttpDownCtrl::`RTTI Complete Object Locator'
	DD	00H
	DD	00H
	DD	FLAT:??_R0?AVHttpDownCtrl@@@8
	DD	FLAT:??_R3HttpDownCtrl@@8
rdata$r	ENDS
;	COMDAT ??_R0?AVHttpDownCtrl@@@8
_DATA	SEGMENT
??_R0?AVHttpDownCtrl@@@8 DD FLAT:??_7type_info@@6B@	; HttpDownCtrl `RTTI Type Descriptor'
	DD	00H
	DB	'.?AVHttpDownCtrl@@', 00H
_DATA	ENDS
;	COMDAT ??_R3HttpDownCtrl@@8
rdata$r	SEGMENT
??_R3HttpDownCtrl@@8 DD 00H				; HttpDownCtrl::`RTTI Class Hierarchy Descriptor'
	DD	00H
	DD	04H
	DD	FLAT:??_R2HttpDownCtrl@@8
rdata$r	ENDS
;	COMDAT ??_R2HttpDownCtrl@@8
rdata$r	SEGMENT
??_R2HttpDownCtrl@@8 DD FLAT:??_R1A@?0A@A@HttpDownCtrl@@8 ; HttpDownCtrl::`RTTI Base Class Array'
	DD	FLAT:??_R1A@?0A@A@CWnd@@8
	DD	FLAT:??_R1A@?0A@A@CCmdTarget@@8
	DD	FLAT:??_R1A@?0A@A@CObject@@8
rdata$r	ENDS
;	COMDAT ??_R1A@?0A@A@HttpDownCtrl@@8
rdata$r	SEGMENT
??_R1A@?0A@A@HttpDownCtrl@@8 DD FLAT:??_R0?AVHttpDownCtrl@@@8 ; HttpDownCtrl::`RTTI Base Class Descriptor at (0,-1,0,0)'
	DD	03H
	DD	00H
	DD	0ffffffffH
	DD	00H
	DD	00H
rdata$r	ENDS
;	COMDAT ??_R1A@?0A@A@CWnd@@8
rdata$r	SEGMENT
??_R1A@?0A@A@CWnd@@8 DD FLAT:??_R0?AVCWnd@@@8		; CWnd::`RTTI Base Class Descriptor at (0,-1,0,0)'
	DD	02H
	DD	00H
	DD	0ffffffffH
	DD	00H
	DD	00H
rdata$r	ENDS
;	COMDAT ??_R0?AVCWnd@@@8
_DATA	SEGMENT
??_R0?AVCWnd@@@8 DD FLAT:??_7type_info@@6B@		; CWnd `RTTI Type Descriptor'
	DD	00H
	DB	'.?AVCWnd@@', 00H
_DATA	ENDS
;	COMDAT ??_R1A@?0A@A@CCmdTarget@@8
rdata$r	SEGMENT
??_R1A@?0A@A@CCmdTarget@@8 DD FLAT:??_R0?AVCCmdTarget@@@8 ; CCmdTarget::`RTTI Base Class Descriptor at (0,-1,0,0)'
	DD	01H
	DD	00H
	DD	0ffffffffH
	DD	00H
	DD	00H
rdata$r	ENDS
;	COMDAT ??_R0?AVCCmdTarget@@@8
_DATA	SEGMENT
??_R0?AVCCmdTarget@@@8 DD FLAT:??_7type_info@@6B@	; CCmdTarget `RTTI Type Descriptor'
	DD	00H
	DB	'.?AVCCmdTarget@@', 00H
_DATA	ENDS
;	COMDAT ??_R1A@?0A@A@CObject@@8
rdata$r	SEGMENT
??_R1A@?0A@A@CObject@@8 DD FLAT:??_R0?AVCObject@@@8	; CObject::`RTTI Base Class Descriptor at (0,-1,0,0)'
	DD	00H
	DD	00H
	DD	0ffffffffH
	DD	00H
	DD	00H
rdata$r	ENDS
;	COMDAT ??_R0?AVCObject@@@8
_DATA	SEGMENT
??_R0?AVCObject@@@8 DD FLAT:??_7type_info@@6B@		; CObject `RTTI Type Descriptor'
	DD	00H
	DB	'.?AVCObject@@', 00H
; Function compile flags: /Odt /RTCsu
_DATA	ENDS
_TEXT	SEGMENT
_this$ = -16						; size = 4
__$EHRec$ = -12						; size = 12
??0HttpDownCtrl@@QAE@XZ PROC NEAR			; HttpDownCtrl::HttpDownCtrl
; _this$ = ecx

; 20   : {

  00030	55		 push	 ebp
  00031	8b ec		 mov	 ebp, esp
  00033	6a ff		 push	 -1
  00035	68 00 00 00 00	 push	 __ehhandler$??0HttpDownCtrl@@QAE@XZ
  0003a	64 a1 00 00 00
	00		 mov	 eax, DWORD PTR fs:__except_list
  00040	50		 push	 eax
  00041	64 89 25 00 00
	00 00		 mov	 DWORD PTR fs:__except_list, esp
  00048	51		 push	 ecx
  00049	c7 45 f0 cc cc
	cc cc		 mov	 DWORD PTR [ebp-16], -858993460 ; ccccccccH
  00050	89 4d f0	 mov	 DWORD PTR _this$[ebp], ecx
  00053	8b 4d f0	 mov	 ecx, DWORD PTR _this$[ebp]
  00056	e8 00 00 00 00	 call	 ??0CWnd@@QAE@XZ		; CWnd::CWnd
  0005b	c7 45 fc 00 00
	00 00		 mov	 DWORD PTR __$EHRec$[ebp+8], 0
  00062	8b 45 f0	 mov	 eax, DWORD PTR _this$[ebp]
  00065	c7 00 00 00 00
	00		 mov	 DWORD PTR [eax], OFFSET FLAT:??_7HttpDownCtrl@@6B@
  0006b	6a 00		 push	 0
  0006d	6a 00		 push	 0
  0006f	6a 00		 push	 0
  00071	8b 4d f0	 mov	 ecx, DWORD PTR _this$[ebp]
  00074	83 c1 54	 add	 ecx, 84			; 00000054H
  00077	e8 00 00 00 00	 call	 ??0CMutex@@QAE@HPBDPAU_SECURITY_ATTRIBUTES@@@Z ; CMutex::CMutex
  0007c	c6 45 fc 01	 mov	 BYTE PTR __$EHRec$[ebp+8], 1
  00080	8b 4d f0	 mov	 ecx, DWORD PTR _this$[ebp]
  00083	83 c1 60	 add	 ecx, 96			; 00000060H
  00086	e8 00 00 00 00	 call	 ??0?$map@V?$basic_string@DU?$char_traits@D@std@@V?$allocator@D@2@@std@@PAVYL_CHTTPDownFile@@U?$less@V?$basic_string@DU?$char_traits@D@std@@V?$allocator@D@2@@std@@@2@V?$allocator@U?$pair@$$CBV?$basic_string@DU?$char_traits@D@std@@V?$allocator@D@2@@std@@PAVYL_CHTTPDownFile@@@std@@@2@@std@@QAE@XZ ; std::map<std::basic_string<char,std::char_traits<char>,std::allocator<char> >,YL_CHTTPDownFile *,std::less<std::basic_string<char,std::char_traits<char>,std::allocator<char> > >,std::allocator<std::pair<std::basic_string<char,std::char_traits<char>,std::allocator<char> > const ,YL_CHTTPDownFile *> > >::map<std::basic_string<char,std::char_traits<char>,std::allocator<char> >,YL_CHTTPDownFile *,std::less<std::basic_string<char,std::char_traits<char>,std::allocator<char> > >,std::allocator<std::pair<std::basic_string<char,std::char_traits<char>,std::allocator<char> > const ,YL_CHTTPDownFile *> > >

; 21   : }

  0008b	c7 45 fc ff ff
	ff ff		 mov	 DWORD PTR __$EHRec$[ebp+8], -1
  00092	8b 45 f0	 mov	 eax, DWORD PTR _this$[ebp]
  00095	8b 4d f4	 mov	 ecx, DWORD PTR __$EHRec$[ebp]
  00098	64 89 0d 00 00
	00 00		 mov	 DWORD PTR fs:__except_list, ecx
  0009f	83 c4 10	 add	 esp, 16			; 00000010H
  000a2	3b ec		 cmp	 ebp, esp
  000a4	e8 00 00 00 00	 call	 __RTC_CheckEsp
  000a9	8b e5		 mov	 esp, ebp
  000ab	5d		 pop	 ebp
  000ac	c3		 ret	 0
_TEXT	ENDS
text$x	SEGMENT
$L190941:
  00000	8b 4d f0	 mov	 ecx, DWORD PTR _this$[ebp]
  00003	e9 00 00 00 00	 jmp	 ??1CWnd@@UAE@XZ		; CWnd::~CWnd
$L190942:
  00008	8b 4d f0	 mov	 ecx, DWORD PTR _this$[ebp]
  0000b	83 c1 54	 add	 ecx, 84			; 00000054H
  0000e	e9 00 00 00 00	 jmp	 ??1CMutex@@UAE@XZ	; CMutex::~CMutex
__ehhandler$??0HttpDownCtrl@@QAE@XZ:
  00013	b8 00 00 00 00	 mov	 eax, OFFSET FLAT:$T190947
  00018	e9 00 00 00 00	 jmp	 ___CxxFrameHandler
text$x	ENDS
??0HttpDownCtrl@@QAE@XZ ENDP				; HttpDownCtrl::HttpDownCtrl
PUBLIC	??1HttpDownCtrl@@UAE@XZ				; HttpDownCtrl::~HttpDownCtrl
EXTRN	??3CObject@@SGXPAX@Z:NEAR			; CObject::operator delete
; Function compile flags: /Odt /RTCsu
;	COMDAT ??_GHttpDownCtrl@@UAEPAXI@Z
_TEXT	SEGMENT
_this$ = -4						; size = 4
___flags$ = 8						; size = 4
??_GHttpDownCtrl@@UAEPAXI@Z PROC NEAR			; HttpDownCtrl::`scalar deleting destructor', COMDAT
; _this$ = ecx
  00000	55		 push	 ebp
  00001	8b ec		 mov	 ebp, esp
  00003	51		 push	 ecx
  00004	c7 45 fc cc cc
	cc cc		 mov	 DWORD PTR [ebp-4], -858993460 ; ccccccccH
  0000b	89 4d fc	 mov	 DWORD PTR _this$[ebp], ecx
  0000e	8b 4d fc	 mov	 ecx, DWORD PTR _this$[ebp]
  00011	e8 00 00 00 00	 call	 ??1HttpDownCtrl@@UAE@XZ	; HttpDownCtrl::~HttpDownCtrl
  00016	8b 45 08	 mov	 eax, DWORD PTR ___flags$[ebp]
  00019	83 e0 01	 and	 eax, 1
  0001c	74 09		 je	 SHORT $L188112
  0001e	8b 4d fc	 mov	 ecx, DWORD PTR _this$[ebp]
  00021	51		 push	 ecx
  00022	e8 00 00 00 00	 call	 ??3CObject@@SGXPAX@Z	; CObject::operator delete
$L188112:
  00027	8b 45 fc	 mov	 eax, DWORD PTR _this$[ebp]
  0002a	83 c4 04	 add	 esp, 4
  0002d	3b ec		 cmp	 ebp, esp
  0002f	e8 00 00 00 00	 call	 __RTC_CheckEsp
  00034	8b e5		 mov	 esp, ebp
  00036	5d		 pop	 ebp
  00037	c2 04 00	 ret	 4
??_GHttpDownCtrl@@UAEPAXI@Z ENDP			; HttpDownCtrl::`scalar deleting destructor'
_TEXT	ENDS
PUBLIC	??1?$map@V?$basic_string@DU?$char_traits@D@std@@V?$allocator@D@2@@std@@PAVYL_CHTTPDownFile@@U?$less@V?$basic_string@DU?$char_traits@D@std@@V?$allocator@D@2@@std@@@2@V?$allocator@U?$pair@$$CBV?$basic_string@DU?$char_traits@D@std@@V?$allocator@D@2@@std@@PAVYL_CHTTPDownFile@@@std@@@2@@std@@QAE@XZ ; std::map<std::basic_string<char,std::char_traits<char>,std::allocator<char> >,YL_CHTTPDownFile *,std::less<std::basic_string<char,std::char_traits<char>,std::allocator<char> > >,std::allocator<std::pair<std::basic_string<char,std::char_traits<char>,std::allocator<char> > const ,YL_CHTTPDownFile *> > >::~map<std::basic_string<char,std::char_traits<char>,std::allocator<char> >,YL_CHTTPDownFile *,std::less<std::basic_string<char,std::char_traits<char>,std::allocator<char> > >,std::allocator<std::pair<std::basic_string<char,std::char_traits<char>,std::allocator<char> > const ,YL_CHTTPDownFile *> > >
xdata$x	SEGMENT
$T190961 DD	0ffffffffH
	DD	FLAT:$L190955
	DD	00H
	DD	FLAT:$L190956
$T190959 DD	019930520H
	DD	02H
	DD	FLAT:$T190961
	DD	2 DUP(00H)
	DD	2 DUP(00H)
; Function compile flags: /Odt /RTCsu
xdata$x	ENDS
_TEXT	SEGMENT
_this$ = -16						; size = 4
__$EHRec$ = -12						; size = 12
??1HttpDownCtrl@@UAE@XZ PROC NEAR			; HttpDownCtrl::~HttpDownCtrl
; _this$ = ecx

; 24   : {

  000b0	55		 push	 ebp
  000b1	8b ec		 mov	 ebp, esp
  000b3	6a ff		 push	 -1
  000b5	68 00 00 00 00	 push	 __ehhandler$??1HttpDownCtrl@@UAE@XZ
  000ba	64 a1 00 00 00
	00		 mov	 eax, DWORD PTR fs:__except_list
  000c0	50		 push	 eax
  000c1	64 89 25 00 00
	00 00		 mov	 DWORD PTR fs:__except_list, esp
  000c8	51		 push	 ecx
  000c9	c7 45 f0 cc cc
	cc cc		 mov	 DWORD PTR [ebp-16], -858993460 ; ccccccccH
  000d0	89 4d f0	 mov	 DWORD PTR _this$[ebp], ecx
  000d3	8b 45 f0	 mov	 eax, DWORD PTR _this$[ebp]
  000d6	c7 00 00 00 00
	00		 mov	 DWORD PTR [eax], OFFSET FLAT:??_7HttpDownCtrl@@6B@
  000dc	c7 45 fc 01 00
	00 00		 mov	 DWORD PTR __$EHRec$[ebp+8], 1

; 25   : }

  000e3	8b 4d f0	 mov	 ecx, DWORD PTR _this$[ebp]
  000e6	83 c1 60	 add	 ecx, 96			; 00000060H
  000e9	e8 00 00 00 00	 call	 ??1?$map@V?$basic_string@DU?$char_traits@D@std@@V?$allocator@D@2@@std@@PAVYL_CHTTPDownFile@@U?$less@V?$basic_string@DU?$char_traits@D@std@@V?$allocator@D@2@@std@@@2@V?$allocator@U?$pair@$$CBV?$basic_string@DU?$char_traits@D@std@@V?$allocator@D@2@@std@@PAVYL_CHTTPDownFile@@@std@@@2@@std@@QAE@XZ
  000ee	c6 45 fc 00	 mov	 BYTE PTR __$EHRec$[ebp+8], 0
  000f2	8b 4d f0	 mov	 ecx, DWORD PTR _this$[ebp]
  000f5	83 c1 54	 add	 ecx, 84			; 00000054H
  000f8	e8 00 00 00 00	 call	 ??1CMutex@@UAE@XZ	; CMutex::~CMutex
  000fd	c7 45 fc ff ff
	ff ff		 mov	 DWORD PTR __$EHRec$[ebp+8], -1
  00104	8b 4d f0	 mov	 ecx, DWORD PTR _this$[ebp]
  00107	e8 00 00 00 00	 call	 ??1CWnd@@UAE@XZ		; CWnd::~CWnd
  0010c	8b 4d f4	 mov	 ecx, DWORD PTR __$EHRec$[ebp]
  0010f	64 89 0d 00 00
	00 00		 mov	 DWORD PTR fs:__except_list, ecx
  00116	83 c4 10	 add	 esp, 16			; 00000010H
  00119	3b ec		 cmp	 ebp, esp
  0011b	e8 00 00 00 00	 call	 __RTC_CheckEsp
  00120	8b e5		 mov	 esp, ebp
  00122	5d		 pop	 ebp
  00123	c3		 ret	 0
_TEXT	ENDS
text$x	SEGMENT
$L190955:
  0001d	8b 4d f0	 mov	 ecx, DWORD PTR _this$[ebp]
  00020	e9 00 00 00 00	 jmp	 ??1CWnd@@UAE@XZ		; CWnd::~CWnd
$L190956:
  00025	8b 4d f0	 mov	 ecx, DWORD PTR _this$[ebp]
  00028	83 c1 54	 add	 ecx, 84			; 00000054H
  0002b	e9 00 00 00 00	 jmp	 ??1CMutex@@UAE@XZ	; CMutex::~CMutex
__ehhandler$??1HttpDownCtrl@@UAE@XZ:
  00030	b8 00 00 00 00	 mov	 eax, OFFSET FLAT:$T190959
  00035	e9 00 00 00 00	 jmp	 ___CxxFrameHandler
text$x	ENDS
??1HttpDownCtrl@@UAE@XZ ENDP				; HttpDownCtrl::~HttpDownCtrl
PUBLIC	??1?$_Tree@V?$_Tmap_traits@V?$basic_string@DU?$char_traits@D@std@@V?$allocator@D@2@@std@@PAVYL_CHTTPDownFile@@U?$less@V?$basic_string@DU?$char_traits@D@std@@V?$allocator@D@2@@std@@@2@V?$allocator@U?$pair@$$CBV?$basic_string@DU?$char_traits@D@std@@V?$allocator@D@2@@std@@PAVYL_CHTTPDownFile@@@std@@@2@$0A@@std@@@std@@QAE@XZ ; std::_Tree<std::_Tmap_traits<std::basic_string<char,std::char_traits<char>,std::allocator<char> >,YL_CHTTPDownFile *,std::less<std::basic_string<char,std::char_traits<char>,std::allocator<char> > >,std::allocator<std::pair<std::basic_string<char,std::char_traits<char>,std::allocator<char> > const ,YL_CHTTPDownFile *> >,0> >::~_Tree<std::_Tmap_traits<std::basic_string<char,std::char_traits<char>,std::allocator<char> >,YL_CHTTPDownFile *,std::less<std::basic_string<char,std::char_traits<char>,std::allocator<char> > >,std::allocator<std::pair<std::basic_string<char,std::char_traits<char>,std::allocator<char> > const ,YL_CHTTPDownFile *> >,0> >
; Function compile flags: /Odt /RTCsu
;	COMDAT ??1?$map@V?$basic_string@DU?$char_traits@D@std@@V?$allocator@D@2@@std@@PAVYL_CHTTPDownFile@@U?$less@V?$basic_string@DU?$char_traits@D@std@@V?$allocator@D@2@@std@@@2@V?$allocator@U?$pair@$$CBV?$basic_string@DU?$char_traits@D@std@@V?$allocator@D@2@@std@@PAVYL_CHTTPDownFile@@@std@@@2@@std@@QAE@XZ
_TEXT	SEGMENT
_this$ = -4						; size = 4
??1?$map@V?$basic_string@DU?$char_traits@D@std@@V?$allocator@D@2@@std@@PAVYL_CHTTPDownFile@@U?$less@V?$basic_string@DU?$char_traits@D@std@@V?$allocator@D@2@@std@@@2@V?$allocator@U?$pair@$$CBV?$basic_string@DU?$char_traits@D@std@@V?$allocator@D@2@@std@@PAVYL_CHTTPDownFile@@@std@@@2@@std@@QAE@XZ PROC NEAR ; std::map<std::basic_string<char,std::char_traits<char>,std::allocator<char> >,YL_CHTTPDownFile *,std::less<std::basic_string<char,std::char_traits<char>,std::allocator<char> > >,std::allocator<std::pair<std::basic_string<char,std::char_traits<char>,std::allocator<char> > const ,YL_CHTTPDownFile *> > >::~map<std::basic_string<char,std::char_traits<char>,std::allocator<char> >,YL_CHTTPDownFile *,std::less<std::basic_string<char,std::char_traits<char>,std::allocator<char> > >,std::allocator<std::pair<std::basic_string<char,std::char_traits<char>,std::allocator<char> > const ,YL_CHTTPDownFile *> > >, COMDAT
; _this$ = ecx
  00000	55		 push	 ebp
  00001	8b ec		 mov	 ebp, esp
  00003	51		 push	 ecx
  00004	c7 45 fc cc cc
	cc cc		 mov	 DWORD PTR [ebp-4], -858993460 ; ccccccccH
  0000b	89 4d fc	 mov	 DWORD PTR _this$[ebp], ecx
  0000e	8b 4d fc	 mov	 ecx, DWORD PTR _this$[ebp]
  00011	e8 00 00 00 00	 call	 ??1?$_Tree@V?$_Tmap_traits@V?$basic_string@DU?$char_traits@D@std@@V?$allocator@D@2@@std@@PAVYL_CHTTPDownFile@@U?$less@V?$basic_string@DU?$char_traits@D@std@@V?$allocator@D@2@@std@@@2@V?$allocator@U?$pair@$$CBV?$basic_string@DU?$char_traits@D@std@@V?$allocator@D@2@@std@@PAVYL_CHTTPDownFile@@@std@@@2@$0A@@std@@@std@@QAE@XZ ; std::_Tree<std::_Tmap_traits<std::basic_string<char,std::char_traits<char>,std::allocator<char> >,YL_CHTTPDownFile *,std::less<std::basic_string<char,std::char_traits<char>,std::allocator<char> > >,std::allocator<std::pair<std::basic_string<char,std::char_traits<char>,std::allocator<char> > const ,YL_CHTTPDownFile *> >,0> >::~_Tree<std::_Tmap_traits<std::basic_string<char,std::char_traits<char>,std::allocator<char> >,YL_CHTTPDownFile *,std::less<std::basic_string<char,std::char_traits<char>,std::allocator<char> > >,std::allocator<std::pair<std::basic_string<char,std::char_traits<char>,std::allocator<char> > const ,YL_CHTTPDownFile *> >,0> >
  00016	83 c4 04	 add	 esp, 4
  00019	3b ec		 cmp	 ebp, esp
  0001b	e8 00 00 00 00	 call	 __RTC_CheckEsp
  00020	8b e5		 mov	 esp, ebp
  00022	5d		 pop	 ebp
  00023	c3		 ret	 0
??1?$map@V?$basic_string@DU?$char_traits@D@std@@V?$allocator@D@2@@std@@PAVYL_CHTTPDownFile@@U?$less@V?$basic_string@DU?$char_traits@D@std@@V?$allocator@D@2@@std@@@2@V?$allocator@U?$pair@$$CBV?$basic_string@DU?$char_traits@D@std@@V?$allocator@D@2@@std@@PAVYL_CHTTPDownFile@@@std@@@2@@std@@QAE@XZ ENDP ; std::map<std::basic_string<char,std::char_traits<char>,std::allocator<char> >,YL_CHTTPDownFile *,std::less<std::basic_string<char,std::char_traits<char>,std::allocator<char> > >,std::allocator<std::pair<std::basic_string<char,std::char_traits<char>,std::allocator<char> > const ,YL_CHTTPDownFile *> > >::~map<std::basic_string<char,std::char_traits<char>,std::allocator<char> >,YL_CHTTPDownFile *,std::less<std::basic_string<char,std::char_traits<char>,std::allocator<char> > >,std::allocator<std::pair<std::basic_string<char,std::char_traits<char>,std::allocator<char> > const ,YL_CHTTPDownFile *> > >
_TEXT	ENDS
PUBLIC	?GetInstance@HttpDownCtrl@@SAPAV1@XZ		; HttpDownCtrl::GetInstance
EXTRN	?AfxGetMainWindow@@YAPAVCWnd@@XZ:NEAR		; AfxGetMainWindow
EXTRN	??0CRect@@QAE@HHHH@Z:NEAR			; CRect::CRect
EXTRN	??2CObject@@SGPAXI@Z:NEAR			; CObject::operator new
EXTRN	?ShowWindow@CWnd@@QAEHH@Z:NEAR			; CWnd::ShowWindow
xdata$x	SEGMENT
$T190974 DD	0ffffffffH
	DD	FLAT:$L190970
$T190972 DD	019930520H
	DD	01H
	DD	FLAT:$T190974
	DD	2 DUP(00H)
	DD	2 DUP(00H)
; Function compile flags: /Odt /RTCsu
xdata$x	ENDS
_TEXT	SEGMENT
tv72 = -40						; size = 4
$T190969 = -36						; size = 16
$T190966 = -20						; size = 4
$T190965 = -16						; size = 4
__$EHRec$ = -12						; size = 12
?GetInstance@HttpDownCtrl@@SAPAV1@XZ PROC NEAR		; HttpDownCtrl::GetInstance

; 28   : {

  00130	55		 push	 ebp
  00131	8b ec		 mov	 ebp, esp
  00133	6a ff		 push	 -1
  00135	68 00 00 00 00	 push	 __ehhandler$?GetInstance@HttpDownCtrl@@SAPAV1@XZ
  0013a	64 a1 00 00 00
	00		 mov	 eax, DWORD PTR fs:__except_list
  00140	50		 push	 eax
  00141	64 89 25 00 00
	00 00		 mov	 DWORD PTR fs:__except_list, esp
  00148	83 ec 1c	 sub	 esp, 28			; 0000001cH
  0014b	56		 push	 esi
  0014c	b8 cc cc cc cc	 mov	 eax, -858993460		; ccccccccH
  00151	89 45 d8	 mov	 DWORD PTR [ebp-40], eax
  00154	89 45 dc	 mov	 DWORD PTR [ebp-36], eax
  00157	89 45 e0	 mov	 DWORD PTR [ebp-32], eax
  0015a	89 45 e4	 mov	 DWORD PTR [ebp-28], eax
  0015d	89 45 e8	 mov	 DWORD PTR [ebp-24], eax
  00160	89 45 ec	 mov	 DWORD PTR [ebp-20], eax
  00163	89 45 f0	 mov	 DWORD PTR [ebp-16], eax

; 29   : 	if( m_pCtr == NULL )

  00166	83 3d 00 00 00
	00 00		 cmp	 DWORD PTR ?m_pCtr@HttpDownCtrl@@2PAV1@A, 0 ; HttpDownCtrl::m_pCtr
  0016d	0f 85 8f 00 00
	00		 jne	 $L188121

; 30   : 	{
; 31   : 		m_pCtr = new HttpDownCtrl;

  00173	6a 6c		 push	 108			; 0000006cH
  00175	e8 00 00 00 00	 call	 ??2CObject@@SGPAXI@Z	; CObject::operator new
  0017a	89 45 ec	 mov	 DWORD PTR $T190966[ebp], eax
  0017d	c7 45 fc 00 00
	00 00		 mov	 DWORD PTR __$EHRec$[ebp+8], 0
  00184	83 7d ec 00	 cmp	 DWORD PTR $T190966[ebp], 0
  00188	74 0d		 je	 SHORT $L190967
  0018a	8b 4d ec	 mov	 ecx, DWORD PTR $T190966[ebp]
  0018d	e8 00 00 00 00	 call	 ??0HttpDownCtrl@@QAE@XZ	; HttpDownCtrl::HttpDownCtrl
  00192	89 45 d8	 mov	 DWORD PTR tv72[ebp], eax
  00195	eb 07		 jmp	 SHORT $L190968
$L190967:
  00197	c7 45 d8 00 00
	00 00		 mov	 DWORD PTR tv72[ebp], 0
$L190968:
  0019e	8b 45 d8	 mov	 eax, DWORD PTR tv72[ebp]
  001a1	89 45 f0	 mov	 DWORD PTR $T190965[ebp], eax
  001a4	c7 45 fc ff ff
	ff ff		 mov	 DWORD PTR __$EHRec$[ebp+8], -1
  001ab	8b 4d f0	 mov	 ecx, DWORD PTR $T190965[ebp]
  001ae	89 0d 00 00 00
	00		 mov	 DWORD PTR ?m_pCtr@HttpDownCtrl@@2PAV1@A, ecx ; HttpDownCtrl::m_pCtr

; 32   : 		m_pCtr->Create(NULL,NULL,WS_CHILD|WS_CLIPCHILDREN,
; 33   : 			CRect(0,0,0,0),AfxGetMainWindow(),ID_WND_HTTP_DOWN_CTRL );

  001b4	8b f4		 mov	 esi, esp
  001b6	6a 00		 push	 0
  001b8	68 ee 07 00 00	 push	 2030			; 000007eeH
  001bd	e8 00 00 00 00	 call	 ?AfxGetMainWindow@@YAPAVCWnd@@XZ ; AfxGetMainWindow
  001c2	50		 push	 eax
  001c3	6a 00		 push	 0
  001c5	6a 00		 push	 0
  001c7	6a 00		 push	 0
  001c9	6a 00		 push	 0
  001cb	8d 4d dc	 lea	 ecx, DWORD PTR $T190969[ebp]
  001ce	e8 00 00 00 00	 call	 ??0CRect@@QAE@HHHH@Z	; CRect::CRect
  001d3	50		 push	 eax
  001d4	68 00 00 00 42	 push	 1107296256		; 42000000H
  001d9	6a 00		 push	 0
  001db	6a 00		 push	 0
  001dd	8b 15 00 00 00
	00		 mov	 edx, DWORD PTR ?m_pCtr@HttpDownCtrl@@2PAV1@A ; HttpDownCtrl::m_pCtr
  001e3	8b 02		 mov	 eax, DWORD PTR [edx]
  001e5	8b 0d 00 00 00
	00		 mov	 ecx, DWORD PTR ?m_pCtr@HttpDownCtrl@@2PAV1@A ; HttpDownCtrl::m_pCtr
  001eb	ff 50 5c	 call	 DWORD PTR [eax+92]
  001ee	3b f4		 cmp	 esi, esp
  001f0	e8 00 00 00 00	 call	 __RTC_CheckEsp

; 34   : 		m_pCtr->ShowWindow( SW_HIDE );

  001f5	6a 00		 push	 0
  001f7	8b 0d 00 00 00
	00		 mov	 ecx, DWORD PTR ?m_pCtr@HttpDownCtrl@@2PAV1@A ; HttpDownCtrl::m_pCtr
  001fd	e8 00 00 00 00	 call	 ?ShowWindow@CWnd@@QAEHH@Z ; CWnd::ShowWindow
$L188121:

; 35   : 	}
; 36   : 	return m_pCtr;

  00202	a1 00 00 00 00	 mov	 eax, DWORD PTR ?m_pCtr@HttpDownCtrl@@2PAV1@A ; HttpDownCtrl::m_pCtr

; 37   : }

  00207	8b 4d f4	 mov	 ecx, DWORD PTR __$EHRec$[ebp]
  0020a	64 89 0d 00 00
	00 00		 mov	 DWORD PTR fs:__except_list, ecx
  00211	5e		 pop	 esi
  00212	83 c4 28	 add	 esp, 40			; 00000028H
  00215	3b ec		 cmp	 ebp, esp
  00217	e8 00 00 00 00	 call	 __RTC_CheckEsp
  0021c	8b e5		 mov	 esp, ebp
  0021e	5d		 pop	 ebp
  0021f	c3		 ret	 0
_TEXT	ENDS
text$x	SEGMENT
$L190970:
  0003a	8b 45 ec	 mov	 eax, DWORD PTR $T190966[ebp]
  0003d	50		 push	 eax
  0003e	e8 00 00 00 00	 call	 ??3CObject@@SGXPAX@Z	; CObject::operator delete
  00043	c3		 ret	 0
__ehhandler$?GetInstance@HttpDownCtrl@@SAPAV1@XZ:
  00044	b8 00 00 00 00	 mov	 eax, OFFSET FLAT:$T190972
  00049	e9 00 00 00 00	 jmp	 ___CxxFrameHandler
text$x	ENDS
?GetInstance@HttpDownCtrl@@SAPAV1@XZ ENDP		; HttpDownCtrl::GetInstance
PUBLIC	?DelInstance@HttpDownCtrl@@SAXXZ		; HttpDownCtrl::DelInstance
; Function compile flags: /Odt /RTCsu
_TEXT	SEGMENT
tv74 = -12						; size = 4
$T190977 = -8						; size = 4
$T190976 = -4						; size = 4
?DelInstance@HttpDownCtrl@@SAXXZ PROC NEAR		; HttpDownCtrl::DelInstance

; 40   : {

  00220	55		 push	 ebp
  00221	8b ec		 mov	 ebp, esp
  00223	83 ec 0c	 sub	 esp, 12			; 0000000cH
  00226	56		 push	 esi
  00227	c7 45 f4 cc cc
	cc cc		 mov	 DWORD PTR [ebp-12], -858993460 ; ccccccccH
  0022e	c7 45 f8 cc cc
	cc cc		 mov	 DWORD PTR [ebp-8], -858993460 ; ccccccccH
  00235	c7 45 fc cc cc
	cc cc		 mov	 DWORD PTR [ebp-4], -858993460 ; ccccccccH

; 41   : 	if( m_pCtr != NULL )

  0023c	83 3d 00 00 00
	00 00		 cmp	 DWORD PTR ?m_pCtr@HttpDownCtrl@@2PAV1@A, 0 ; HttpDownCtrl::m_pCtr
  00243	74 59		 je	 SHORT $L188128

; 42   : 	{
; 43   : 		m_pCtr->DestroyWindow();

  00245	a1 00 00 00 00	 mov	 eax, DWORD PTR ?m_pCtr@HttpDownCtrl@@2PAV1@A ; HttpDownCtrl::m_pCtr
  0024a	8b 10		 mov	 edx, DWORD PTR [eax]
  0024c	8b f4		 mov	 esi, esp
  0024e	8b 0d 00 00 00
	00		 mov	 ecx, DWORD PTR ?m_pCtr@HttpDownCtrl@@2PAV1@A ; HttpDownCtrl::m_pCtr
  00254	ff 52 68	 call	 DWORD PTR [edx+104]
  00257	3b f4		 cmp	 esi, esp
  00259	e8 00 00 00 00	 call	 __RTC_CheckEsp

; 44   : 		delete m_pCtr;

  0025e	a1 00 00 00 00	 mov	 eax, DWORD PTR ?m_pCtr@HttpDownCtrl@@2PAV1@A ; HttpDownCtrl::m_pCtr
  00263	89 45 f8	 mov	 DWORD PTR $T190977[ebp], eax
  00266	8b 4d f8	 mov	 ecx, DWORD PTR $T190977[ebp]
  00269	89 4d fc	 mov	 DWORD PTR $T190976[ebp], ecx
  0026c	83 7d fc 00	 cmp	 DWORD PTR $T190976[ebp], 0
  00270	74 1b		 je	 SHORT $L190978
  00272	8b f4		 mov	 esi, esp
  00274	6a 01		 push	 1
  00276	8b 55 fc	 mov	 edx, DWORD PTR $T190976[ebp]
  00279	8b 02		 mov	 eax, DWORD PTR [edx]
  0027b	8b 4d fc	 mov	 ecx, DWORD PTR $T190976[ebp]
  0027e	ff 50 04	 call	 DWORD PTR [eax+4]
  00281	3b f4		 cmp	 esi, esp
  00283	e8 00 00 00 00	 call	 __RTC_CheckEsp
  00288	89 45 f4	 mov	 DWORD PTR tv74[ebp], eax
  0028b	eb 07		 jmp	 SHORT $L190979
$L190978:
  0028d	c7 45 f4 00 00
	00 00		 mov	 DWORD PTR tv74[ebp], 0
$L190979:

; 45   : 		m_pCtr = NULL;

  00294	c7 05 00 00 00
	00 00 00 00 00	 mov	 DWORD PTR ?m_pCtr@HttpDownCtrl@@2PAV1@A, 0 ; HttpDownCtrl::m_pCtr
$L188128:

; 46   : 	}
; 47   : }

  0029e	5e		 pop	 esi
  0029f	83 c4 0c	 add	 esp, 12			; 0000000cH
  002a2	3b ec		 cmp	 ebp, esp
  002a4	e8 00 00 00 00	 call	 __RTC_CheckEsp
  002a9	8b e5		 mov	 esp, ebp
  002ab	5d		 pop	 ebp
  002ac	c3		 ret	 0
?DelInstance@HttpDownCtrl@@SAXXZ ENDP			; HttpDownCtrl::DelInstance
_TEXT	ENDS
PUBLIC	??$?HDU?$char_traits@D@std@@V?$allocator@D@1@@std@@YA?AV?$basic_string@DU?$char_traits@D@std@@V?$allocator@D@2@@0@ABV10@PBD@Z ; std::operator+<char,std::char_traits<char>,std::allocator<char> >
PUBLIC	?end@?$_Tree@V?$_Tmap_traits@V?$basic_string@DU?$char_traits@D@std@@V?$allocator@D@2@@std@@PAVYL_CHTTPDownFile@@U?$less@V?$basic_string@DU?$char_traits@D@std@@V?$allocator@D@2@@std@@@2@V?$allocator@U?$pair@$$CBV?$basic_string@DU?$char_traits@D@std@@V?$allocator@D@2@@std@@PAVYL_CHTTPDownFile@@@std@@@2@$0A@@std@@@std@@QAE?AViterator@12@XZ ; std::_Tree<std::_Tmap_traits<std::basic_string<char,std::char_traits<char>,std::allocator<char> >,YL_CHTTPDownFile *,std::less<std::basic_string<char,std::char_traits<char>,std::allocator<char> > >,std::allocator<std::pair<std::basic_string<char,std::char_traits<char>,std::allocator<char> > const ,YL_CHTTPDownFile *> >,0> >::end
PUBLIC	?find@?$_Tree@V?$_Tmap_traits@V?$basic_string@DU?$char_traits@D@std@@V?$allocator@D@2@@std@@PAVYL_CHTTPDownFile@@U?$less@V?$basic_string@DU?$char_traits@D@std@@V?$allocator@D@2@@std@@@2@V?$allocator@U?$pair@$$CBV?$basic_string@DU?$char_traits@D@std@@V?$allocator@D@2@@std@@PAVYL_CHTTPDownFile@@@std@@@2@$0A@@std@@@std@@QAE?AViterator@12@ABV?$basic_string@DU?$char_traits@D@std@@V?$allocator@D@2@@2@@Z ; std::_Tree<std::_Tmap_traits<std::basic_string<char,std::char_traits<char>,std::allocator<char> >,YL_CHTTPDownFile *,std::less<std::basic_string<char,std::char_traits<char>,std::allocator<char> > >,std::allocator<std::pair<std::basic_string<char,std::char_traits<char>,std::allocator<char> > const ,YL_CHTTPDownFile *> >,0> >::find
PUBLIC	??A?$map@V?$basic_string@DU?$char_traits@D@std@@V?$allocator@D@2@@std@@PAVYL_CHTTPDownFile@@U?$less@V?$basic_string@DU?$char_traits@D@std@@V?$allocator@D@2@@std@@@2@V?$allocator@U?$pair@$$CBV?$basic_string@DU?$char_traits@D@std@@V?$allocator@D@2@@std@@PAVYL_CHTTPDownFile@@@std@@@2@@std@@QAEAAPAVYL_CHTTPDownFile@@ABV?$basic_string@DU?$char_traits@D@std@@V?$allocator@D@2@@1@@Z ; std::map<std::basic_string<char,std::char_traits<char>,std::allocator<char> >,YL_CHTTPDownFile *,std::less<std::basic_string<char,std::char_traits<char>,std::allocator<char> > >,std::allocator<std::pair<std::basic_string<char,std::char_traits<char>,std::allocator<char> > const ,YL_CHTTPDownFile *> > >::operator[]
PUBLIC	?NotifyDownStart@HttpDownCtrl@@AAEXAAV?$basic_string@DU?$char_traits@D@std@@V?$allocator@D@2@@std@@@Z ; HttpDownCtrl::NotifyDownStart
PUBLIC	?StartDown@HttpDownCtrl@@QAEXV?$basic_string@DU?$char_traits@D@std@@V?$allocator@D@2@@std@@0@Z ; HttpDownCtrl::StartDown
PUBLIC	??9const_iterator@?$_Tree@V?$_Tmap_traits@V?$basic_string@DU?$char_traits@D@std@@V?$allocator@D@2@@std@@PAVYL_CHTTPDownFile@@U?$less@V?$basic_string@DU?$char_traits@D@std@@V?$allocator@D@2@@std@@@2@V?$allocator@U?$pair@$$CBV?$basic_string@DU?$char_traits@D@std@@V?$allocator@D@2@@std@@PAVYL_CHTTPDownFile@@@std@@@2@$0A@@std@@@std@@QBE_NABV012@@Z ; std::_Tree<std::_Tmap_traits<std::basic_string<char,std::char_traits<char>,std::allocator<char> >,YL_CHTTPDownFile *,std::less<std::basic_string<char,std::char_traits<char>,std::allocator<char> > >,std::allocator<std::pair<std::basic_string<char,std::char_traits<char>,std::allocator<char> > const ,YL_CHTTPDownFile *> >,0> >::const_iterator::operator!=
EXTRN	__imp__DeleteFileA@4:NEAR
EXTRN	??2@YAPAXI@Z:NEAR				; operator new
EXTRN	??3@YAXPAX@Z:NEAR				; operator delete
EXTRN	?AfxGetUserConfig@@YAPAVAfxUserConfig@@XZ:NEAR	; AfxGetUserConfig
EXTRN	__imp_??0?$basic_string@DU?$char_traits@D@std@@V?$allocator@D@2@@std@@QAE@XZ:NEAR
EXTRN	__imp_??0?$basic_string@DU?$char_traits@D@std@@V?$allocator@D@2@@std@@QAE@PBD@Z:NEAR
EXTRN	?ComposeDirPath@YL_StringUtil@@SA?AV?$basic_string@DU?$char_traits@D@std@@V?$allocator@D@2@@std@@ABV23@0@Z:NEAR ; YL_StringUtil::ComposeDirPath
EXTRN	?GetConfigStringValue@AfxUserConfig@@QAEXABV?$basic_string@DU?$char_traits@D@std@@V?$allocator@D@2@@std@@0AAV23@@Z:NEAR ; AfxUserConfig::GetConfigStringValue
EXTRN	?SetConfigStringValue@AfxUserConfig@@QAEXABV?$basic_string@DU?$char_traits@D@std@@V?$allocator@D@2@@std@@00_N@Z:NEAR ; AfxUserConfig::SetConfigStringValue
EXTRN	?IsDirectory@YL_FileInfo@@SA_NABV?$basic_string@DU?$char_traits@D@std@@V?$allocator@D@2@@std@@@Z:NEAR ; YL_FileInfo::IsDirectory
EXTRN	__imp_??1?$basic_string@DU?$char_traits@D@std@@V?$allocator@D@2@@std@@QAE@XZ:NEAR
EXTRN	___security_cookie:DWORD
EXTRN	__imp_??4?$basic_string@DU?$char_traits@D@std@@V?$allocator@D@2@@std@@QAEAAV01@ABV01@@Z:NEAR
EXTRN	@_RTC_CheckStackVars@8:NEAR
EXTRN	@__security_check_cookie@4:NEAR
EXTRN	?MakeDir@YL_DirInfo@@SA_NABV?$basic_string@DU?$char_traits@D@std@@V?$allocator@D@2@@std@@@Z:NEAR ; YL_DirInfo::MakeDir
EXTRN	?GetDefaultAPP_SWF_PATH@ConfigParaDefault@@SA?AV?$basic_string@DU?$char_traits@D@std@@V?$allocator@D@2@@std@@XZ:NEAR ; ConfigParaDefault::GetDefaultAPP_SWF_PATH
EXTRN	??0CSingleLock@@QAE@PAVCSyncObject@@H@Z:NEAR	; CSingleLock::CSingleLock
EXTRN	?Lock@CSingleLock@@QAEHK@Z:NEAR			; CSingleLock::Lock
EXTRN	?Unlock@CSingleLock@@QAEHXZ:NEAR		; CSingleLock::Unlock
EXTRN	__imp_?c_str@?$basic_string@DU?$char_traits@D@std@@V?$allocator@D@2@@std@@QBEPBDXZ:NEAR
EXTRN	??1CSingleLock@@QAE@XZ:NEAR			; CSingleLock::~CSingleLock
EXTRN	?SetTimer@CWnd@@QAEIIIP6GXPAUHWND__@@IIK@Z@Z:NEAR ; CWnd::SetTimer
EXTRN	__imp_??0YL_CHTTPDownFile@@QAE@XZ:NEAR
EXTRN	__imp_?AsyncDownloadFile@YL_CHTTPDownFile@@QAE_NABV?$basic_string@DU?$char_traits@D@std@@V?$allocator@D@2@@std@@0PAI@Z:NEAR
EXTRN	__imp_?GetFileSize@YL_CHTTPDownFile@@QAEIXZ:NEAR
xdata$x	SEGMENT
$T191018 DD	0ffffffffH
	DD	FLAT:$L190993
	DD	00H
	DD	FLAT:$L190994
	DD	01H
	DD	FLAT:$L190995
	DD	02H
	DD	FLAT:$L190996
	DD	02H
	DD	FLAT:$L190997
	DD	04H
	DD	FLAT:$L190998
	DD	05H
	DD	FLAT:$L190999
	DD	04H
	DD	FLAT:$L191000
	DD	04H
	DD	FLAT:$L191001
	DD	08H
	DD	FLAT:$L191002
	DD	04H
	DD	FLAT:$L191003
	DD	0aH
	DD	FLAT:$L191004
$T191006 DD	019930520H
	DD	0cH
	DD	FLAT:$T191018
	DD	2 DUP(00H)
	DD	2 DUP(00H)
; Function compile flags: /Odt /RTCsu
xdata$x	ENDS
_TEXT	SEGMENT
tv218 = -320						; size = 4
tv232 = -316						; size = 4
tv136 = -312						; size = 4
$T190992 = -308						; size = 28
$T190991 = -280						; size = 28
$T190990 = -252						; size = 28
$T190989 = -224						; size = 28
$T190988 = -196						; size = 28
$T190985 = -168						; size = 4
$T190984 = -164						; size = 4
$T190983 = -160						; size = 4
$T190982 = -156						; size = 4
_strLocalPath$ = -148					; size = 28
_strFileName$ = -112					; size = 28
_strSwfSavePath$ = -76					; size = 28
_pHttpDownFile$ = -44					; size = 4
_sl$ = -36						; size = 12
_this$ = -20						; size = 4
__$ArrayPad$ = -16					; size = 4
__$EHRec$ = -12						; size = 12
__$ReturnAddr$ = 4					; size = 4
_strID$ = 8						; size = 28
_strSwfUrl$ = 36					; size = 28
?StartDown@HttpDownCtrl@@QAEXV?$basic_string@DU?$char_traits@D@std@@V?$allocator@D@2@@std@@0@Z PROC NEAR ; HttpDownCtrl::StartDown
; _this$ = ecx

; 50   : {

  002b0	55		 push	 ebp
  002b1	8b ec		 mov	 ebp, esp
  002b3	6a ff		 push	 -1
  002b5	68 00 00 00 00	 push	 __ehhandler$?StartDown@HttpDownCtrl@@QAEXV?$basic_string@DU?$char_traits@D@std@@V?$allocator@D@2@@std@@0@Z
  002ba	64 a1 00 00 00
	00		 mov	 eax, DWORD PTR fs:__except_list
  002c0	50		 push	 eax
  002c1	64 89 25 00 00
	00 00		 mov	 DWORD PTR fs:__except_list, esp
  002c8	81 ec 34 01 00
	00		 sub	 esp, 308		; 00000134H
  002ce	56		 push	 esi
  002cf	57		 push	 edi
  002d0	51		 push	 ecx
  002d1	8d bd c0 fe ff
	ff		 lea	 edi, DWORD PTR [ebp-320]
  002d7	b9 4d 00 00 00	 mov	 ecx, 77			; 0000004dH
  002dc	b8 cc cc cc cc	 mov	 eax, -858993460		; ccccccccH
  002e1	f3 ab		 rep stosd
  002e3	59		 pop	 ecx
  002e4	a1 00 00 00 00	 mov	 eax, DWORD PTR ___security_cookie
  002e9	89 45 f0	 mov	 DWORD PTR __$ArrayPad$[ebp], eax
  002ec	89 4d ec	 mov	 DWORD PTR _this$[ebp], ecx
  002ef	c7 45 fc 01 00
	00 00		 mov	 DWORD PTR __$EHRec$[ebp+8], 1

; 51   : 	//
; 52   : 	CSingleLock sl( &m_cs );

  002f6	6a 00		 push	 0
  002f8	8b 45 ec	 mov	 eax, DWORD PTR _this$[ebp]
  002fb	83 c0 54	 add	 eax, 84			; 00000054H
  002fe	50		 push	 eax
  002ff	8d 4d dc	 lea	 ecx, DWORD PTR _sl$[ebp]
  00302	e8 00 00 00 00	 call	 ??0CSingleLock@@QAE@PAVCSyncObject@@H@Z ; CSingleLock::CSingleLock
  00307	c6 45 fc 02	 mov	 BYTE PTR __$EHRec$[ebp+8], 2

; 53   : 	sl.Lock();

  0030b	6a ff		 push	 -1
  0030d	8d 4d dc	 lea	 ecx, DWORD PTR _sl$[ebp]
  00310	e8 00 00 00 00	 call	 ?Lock@CSingleLock@@QAEHK@Z ; CSingleLock::Lock

; 54   : 	if( m_mapDownThread.find( strID ) != m_mapDownThread.end() )

  00315	8d 8d 60 ff ff
	ff		 lea	 ecx, DWORD PTR $T190983[ebp]
  0031b	51		 push	 ecx
  0031c	8b 4d ec	 mov	 ecx, DWORD PTR _this$[ebp]
  0031f	83 c1 60	 add	 ecx, 96			; 00000060H
  00322	e8 00 00 00 00	 call	 ?end@?$_Tree@V?$_Tmap_traits@V?$basic_string@DU?$char_traits@D@std@@V?$allocator@D@2@@std@@PAVYL_CHTTPDownFile@@U?$less@V?$basic_string@DU?$char_traits@D@std@@V?$allocator@D@2@@std@@@2@V?$allocator@U?$pair@$$CBV?$basic_string@DU?$char_traits@D@std@@V?$allocator@D@2@@std@@PAVYL_CHTTPDownFile@@@std@@@2@$0A@@std@@@std@@QAE?AViterator@12@XZ ; std::_Tree<std::_Tmap_traits<std::basic_string<char,std::char_traits<char>,std::allocator<char> >,YL_CHTTPDownFile *,std::less<std::basic_string<char,std::char_traits<char>,std::allocator<char> > >,std::allocator<std::pair<std::basic_string<char,std::char_traits<char>,std::allocator<char> > const ,YL_CHTTPDownFile *> >,0> >::end
  00327	50		 push	 eax
  00328	8d 55 08	 lea	 edx, DWORD PTR _strID$[ebp]
  0032b	52		 push	 edx
  0032c	8d 85 64 ff ff
	ff		 lea	 eax, DWORD PTR $T190982[ebp]
  00332	50		 push	 eax
  00333	8b 4d ec	 mov	 ecx, DWORD PTR _this$[ebp]
  00336	83 c1 60	 add	 ecx, 96			; 00000060H
  00339	e8 00 00 00 00	 call	 ?find@?$_Tree@V?$_Tmap_traits@V?$basic_string@DU?$char_traits@D@std@@V?$allocator@D@2@@std@@PAVYL_CHTTPDownFile@@U?$less@V?$basic_string@DU?$char_traits@D@std@@V?$allocator@D@2@@std@@@2@V?$allocator@U?$pair@$$CBV?$basic_string@DU?$char_traits@D@std@@V?$allocator@D@2@@std@@PAVYL_CHTTPDownFile@@@std@@@2@$0A@@std@@@std@@QAE?AViterator@12@ABV?$basic_string@DU?$char_traits@D@std@@V?$allocator@D@2@@2@@Z ; std::_Tree<std::_Tmap_traits<std::basic_string<char,std::char_traits<char>,std::allocator<char> >,YL_CHTTPDownFile *,std::less<std::basic_string<char,std::char_traits<char>,std::allocator<char> > >,std::allocator<std::pair<std::basic_string<char,std::char_traits<char>,std::allocator<char> > const ,YL_CHTTPDownFile *> >,0> >::find
  0033e	8b c8		 mov	 ecx, eax
  00340	e8 00 00 00 00	 call	 ??9const_iterator@?$_Tree@V?$_Tmap_traits@V?$basic_string@DU?$char_traits@D@std@@V?$allocator@D@2@@std@@PAVYL_CHTTPDownFile@@U?$less@V?$basic_string@DU?$char_traits@D@std@@V?$allocator@D@2@@std@@@2@V?$allocator@U?$pair@$$CBV?$basic_string@DU?$char_traits@D@std@@V?$allocator@D@2@@std@@PAVYL_CHTTPDownFile@@@std@@@2@$0A@@std@@@std@@QBE_NABV012@@Z ; std::_Tree<std::_Tmap_traits<std::basic_string<char,std::char_traits<char>,std::allocator<char> >,YL_CHTTPDownFile *,std::less<std::basic_string<char,std::char_traits<char>,std::allocator<char> > >,std::allocator<std::pair<std::basic_string<char,std::char_traits<char>,std::allocator<char> > const ,YL_CHTTPDownFile *> >,0> >::const_iterator::operator!=
  00345	0f b6 c8	 movzx	 ecx, al
  00348	85 c9		 test	 ecx, ecx
  0034a	74 54		 je	 SHORT $L188217

; 55   : 	{
; 56   : 		SetTimer( TIMER_CHECK_DOWN_STATE, ELAPSE_DOWN, NULL );

  0034c	6a 00		 push	 0
  0034e	68 f4 01 00 00	 push	 500			; 000001f4H
  00353	68 cb 04 00 00	 push	 1227			; 000004cbH
  00358	8b 4d ec	 mov	 ecx, DWORD PTR _this$[ebp]
  0035b	e8 00 00 00 00	 call	 ?SetTimer@CWnd@@QAEIIIP6GXPAUHWND__@@IIK@Z@Z ; CWnd::SetTimer

; 57   : 		return;

  00360	c6 45 fc 01	 mov	 BYTE PTR __$EHRec$[ebp+8], 1
  00364	8d 4d dc	 lea	 ecx, DWORD PTR _sl$[ebp]
  00367	e8 00 00 00 00	 call	 ??1CSingleLock@@QAE@XZ	; CSingleLock::~CSingleLock
  0036c	c6 45 fc 00	 mov	 BYTE PTR __$EHRec$[ebp+8], 0
  00370	8b f4		 mov	 esi, esp
  00372	8d 4d 08	 lea	 ecx, DWORD PTR _strID$[ebp]
  00375	ff 15 00 00 00
	00		 call	 DWORD PTR __imp_??1?$basic_string@DU?$char_traits@D@std@@V?$allocator@D@2@@std@@QAE@XZ
  0037b	3b f4		 cmp	 esi, esp
  0037d	e8 00 00 00 00	 call	 __RTC_CheckEsp
  00382	c7 45 fc ff ff
	ff ff		 mov	 DWORD PTR __$EHRec$[ebp+8], -1
  00389	8b f4		 mov	 esi, esp
  0038b	8d 4d 24	 lea	 ecx, DWORD PTR _strSwfUrl$[ebp]
  0038e	ff 15 00 00 00
	00		 call	 DWORD PTR __imp_??1?$basic_string@DU?$char_traits@D@std@@V?$allocator@D@2@@std@@QAE@XZ
  00394	3b f4		 cmp	 esi, esp
  00396	e8 00 00 00 00	 call	 __RTC_CheckEsp
  0039b	e9 74 03 00 00	 jmp	 $L188136
$L188217:

; 58   : 	}
; 59   : 	sl.Unlock();

  003a0	8d 4d dc	 lea	 ecx, DWORD PTR _sl$[ebp]
  003a3	e8 00 00 00 00	 call	 ?Unlock@CSingleLock@@QAEHXZ ; CSingleLock::Unlock

; 60   : 
; 61   : 	NotifyDownStart( strID );

  003a8	8d 55 08	 lea	 edx, DWORD PTR _strID$[ebp]
  003ab	52		 push	 edx
  003ac	8b 4d ec	 mov	 ecx, DWORD PTR _this$[ebp]
  003af	e8 00 00 00 00	 call	 ?NotifyDownStart@HttpDownCtrl@@AAEXAAV?$basic_string@DU?$char_traits@D@std@@V?$allocator@D@2@@std@@@Z ; HttpDownCtrl::NotifyDownStart

; 62   : 	YL_CHTTPDownFile* pHttpDownFile = new YL_CHTTPDownFile();

  003b4	68 94 00 00 00	 push	 148			; 00000094H
  003b9	e8 00 00 00 00	 call	 ??2@YAPAXI@Z		; operator new
  003be	83 c4 04	 add	 esp, 4
  003c1	89 85 58 ff ff
	ff		 mov	 DWORD PTR $T190985[ebp], eax
  003c7	c6 45 fc 03	 mov	 BYTE PTR __$EHRec$[ebp+8], 3
  003cb	83 bd 58 ff ff
	ff 00		 cmp	 DWORD PTR $T190985[ebp], 0
  003d2	74 1d		 je	 SHORT $L190986
  003d4	8b f4		 mov	 esi, esp
  003d6	8b 8d 58 ff ff
	ff		 mov	 ecx, DWORD PTR $T190985[ebp]
  003dc	ff 15 00 00 00
	00		 call	 DWORD PTR __imp_??0YL_CHTTPDownFile@@QAE@XZ
  003e2	3b f4		 cmp	 esi, esp
  003e4	e8 00 00 00 00	 call	 __RTC_CheckEsp
  003e9	89 85 c8 fe ff
	ff		 mov	 DWORD PTR tv136[ebp], eax
  003ef	eb 0a		 jmp	 SHORT $L190987
$L190986:
  003f1	c7 85 c8 fe ff
	ff 00 00 00 00	 mov	 DWORD PTR tv136[ebp], 0
$L190987:
  003fb	8b 85 c8 fe ff
	ff		 mov	 eax, DWORD PTR tv136[ebp]
  00401	89 85 5c ff ff
	ff		 mov	 DWORD PTR $T190984[ebp], eax
  00407	c6 45 fc 02	 mov	 BYTE PTR __$EHRec$[ebp+8], 2
  0040b	8b 8d 5c ff ff
	ff		 mov	 ecx, DWORD PTR $T190984[ebp]
  00411	89 4d d4	 mov	 DWORD PTR _pHttpDownFile$[ebp], ecx

; 63   : 
; 64   : 	//swf
; 65   : 	string strSwfSavePath;

  00414	8b f4		 mov	 esi, esp
  00416	8d 4d b4	 lea	 ecx, DWORD PTR _strSwfSavePath$[ebp]
  00419	ff 15 00 00 00
	00		 call	 DWORD PTR __imp_??0?$basic_string@DU?$char_traits@D@std@@V?$allocator@D@2@@std@@QAE@XZ
  0041f	3b f4		 cmp	 esi, esp
  00421	e8 00 00 00 00	 call	 __RTC_CheckEsp
  00426	c6 45 fc 04	 mov	 BYTE PTR __$EHRec$[ebp+8], 4

; 66   : 	AfxGetUserConfig()->GetConfigStringValue( CONF_APP_MODULE_NAME, CONF_APP_SWF_PATH, strSwfSavePath );

  0042a	8b f4		 mov	 esi, esp
  0042c	8b 15 00 00 00
	00		 mov	 edx, DWORD PTR _CONF_APP_SWF_PATH
  00432	52		 push	 edx
  00433	8d 8d 3c ff ff
	ff		 lea	 ecx, DWORD PTR $T190988[ebp]
  00439	ff 15 00 00 00
	00		 call	 DWORD PTR __imp_??0?$basic_string@DU?$char_traits@D@std@@V?$allocator@D@2@@std@@QAE@PBD@Z
  0043f	3b f4		 cmp	 esi, esp
  00441	e8 00 00 00 00	 call	 __RTC_CheckEsp
  00446	c6 45 fc 05	 mov	 BYTE PTR __$EHRec$[ebp+8], 5
  0044a	8b f4		 mov	 esi, esp
  0044c	a1 00 00 00 00	 mov	 eax, DWORD PTR _CONF_APP_MODULE_NAME
  00451	50		 push	 eax
  00452	8d 8d 20 ff ff
	ff		 lea	 ecx, DWORD PTR $T190989[ebp]
  00458	ff 15 00 00 00
	00		 call	 DWORD PTR __imp_??0?$basic_string@DU?$char_traits@D@std@@V?$allocator@D@2@@std@@QAE@PBD@Z
  0045e	3b f4		 cmp	 esi, esp
  00460	e8 00 00 00 00	 call	 __RTC_CheckEsp
  00465	c6 45 fc 06	 mov	 BYTE PTR __$EHRec$[ebp+8], 6
  00469	8d 4d b4	 lea	 ecx, DWORD PTR _strSwfSavePath$[ebp]
  0046c	51		 push	 ecx
  0046d	8d 95 3c ff ff
	ff		 lea	 edx, DWORD PTR $T190988[ebp]
  00473	52		 push	 edx
  00474	8d 85 20 ff ff
	ff		 lea	 eax, DWORD PTR $T190989[ebp]
  0047a	50		 push	 eax
  0047b	e8 00 00 00 00	 call	 ?AfxGetUserConfig@@YAPAVAfxUserConfig@@XZ ; AfxGetUserConfig
  00480	8b c8		 mov	 ecx, eax
  00482	e8 00 00 00 00	 call	 ?GetConfigStringValue@AfxUserConfig@@QAEXABV?$basic_string@DU?$char_traits@D@std@@V?$allocator@D@2@@std@@0AAV23@@Z ; AfxUserConfig::GetConfigStringValue
  00487	c6 45 fc 05	 mov	 BYTE PTR __$EHRec$[ebp+8], 5
  0048b	8b f4		 mov	 esi, esp
  0048d	8d 8d 20 ff ff
	ff		 lea	 ecx, DWORD PTR $T190989[ebp]
  00493	ff 15 00 00 00
	00		 call	 DWORD PTR __imp_??1?$basic_string@DU?$char_traits@D@std@@V?$allocator@D@2@@std@@QAE@XZ
  00499	3b f4		 cmp	 esi, esp
  0049b	e8 00 00 00 00	 call	 __RTC_CheckEsp
  004a0	c6 45 fc 04	 mov	 BYTE PTR __$EHRec$[ebp+8], 4
  004a4	8b f4		 mov	 esi, esp
  004a6	8d 8d 3c ff ff
	ff		 lea	 ecx, DWORD PTR $T190988[ebp]
  004ac	ff 15 00 00 00
	00		 call	 DWORD PTR __imp_??1?$basic_string@DU?$char_traits@D@std@@V?$allocator@D@2@@std@@QAE@XZ
  004b2	3b f4		 cmp	 esi, esp
  004b4	e8 00 00 00 00	 call	 __RTC_CheckEsp

; 67   : 	YL_DirInfo::MakeDir( strSwfSavePath ); //

  004b9	8d 4d b4	 lea	 ecx, DWORD PTR _strSwfSavePath$[ebp]
  004bc	51		 push	 ecx
  004bd	e8 00 00 00 00	 call	 ?MakeDir@YL_DirInfo@@SA_NABV?$basic_string@DU?$char_traits@D@std@@V?$allocator@D@2@@std@@@Z ; YL_DirInfo::MakeDir
  004c2	83 c4 04	 add	 esp, 4

; 68   : 	if( !YL_FileInfo::IsDirectory( strSwfSavePath ) )

  004c5	8d 55 b4	 lea	 edx, DWORD PTR _strSwfSavePath$[ebp]
  004c8	52		 push	 edx
  004c9	e8 00 00 00 00	 call	 ?IsDirectory@YL_FileInfo@@SA_NABV?$basic_string@DU?$char_traits@D@std@@V?$allocator@D@2@@std@@@Z ; YL_FileInfo::IsDirectory
  004ce	83 c4 04	 add	 esp, 4
  004d1	0f b6 c0	 movzx	 eax, al
  004d4	85 c0		 test	 eax, eax
  004d6	0f 85 f4 00 00
	00		 jne	 $L188226

; 69   : 	{
; 70   : 		strSwfSavePath = ConfigParaDefault::GetDefaultAPP_SWF_PATH();

  004dc	8d 8d 04 ff ff
	ff		 lea	 ecx, DWORD PTR $T190990[ebp]
  004e2	51		 push	 ecx
  004e3	e8 00 00 00 00	 call	 ?GetDefaultAPP_SWF_PATH@ConfigParaDefault@@SA?AV?$basic_string@DU?$char_traits@D@std@@V?$allocator@D@2@@std@@XZ ; ConfigParaDefault::GetDefaultAPP_SWF_PATH
  004e8	83 c4 04	 add	 esp, 4
  004eb	89 85 c4 fe ff
	ff		 mov	 DWORD PTR tv232[ebp], eax
  004f1	8b 95 c4 fe ff
	ff		 mov	 edx, DWORD PTR tv232[ebp]
  004f7	89 95 c0 fe ff
	ff		 mov	 DWORD PTR tv218[ebp], edx
  004fd	c6 45 fc 07	 mov	 BYTE PTR __$EHRec$[ebp+8], 7
  00501	8b f4		 mov	 esi, esp
  00503	8b 85 c0 fe ff
	ff		 mov	 eax, DWORD PTR tv218[ebp]
  00509	50		 push	 eax
  0050a	8d 4d b4	 lea	 ecx, DWORD PTR _strSwfSavePath$[ebp]
  0050d	ff 15 00 00 00
	00		 call	 DWORD PTR __imp_??4?$basic_string@DU?$char_traits@D@std@@V?$allocator@D@2@@std@@QAEAAV01@ABV01@@Z
  00513	3b f4		 cmp	 esi, esp
  00515	e8 00 00 00 00	 call	 __RTC_CheckEsp
  0051a	c6 45 fc 04	 mov	 BYTE PTR __$EHRec$[ebp+8], 4
  0051e	8b f4		 mov	 esi, esp
  00520	8d 8d 04 ff ff
	ff		 lea	 ecx, DWORD PTR $T190990[ebp]
  00526	ff 15 00 00 00
	00		 call	 DWORD PTR __imp_??1?$basic_string@DU?$char_traits@D@std@@V?$allocator@D@2@@std@@QAE@XZ
  0052c	3b f4		 cmp	 esi, esp
  0052e	e8 00 00 00 00	 call	 __RTC_CheckEsp

; 71   : 		YL_DirInfo::MakeDir( strSwfSavePath );

  00533	8d 4d b4	 lea	 ecx, DWORD PTR _strSwfSavePath$[ebp]
  00536	51		 push	 ecx
  00537	e8 00 00 00 00	 call	 ?MakeDir@YL_DirInfo@@SA_NABV?$basic_string@DU?$char_traits@D@std@@V?$allocator@D@2@@std@@@Z ; YL_DirInfo::MakeDir
  0053c	83 c4 04	 add	 esp, 4

; 72   : 		AfxGetUserConfig()->SetConfigStringValue( CONF_APP_MODULE_NAME, CONF_APP_SWF_PATH, strSwfSavePath );

  0053f	8b f4		 mov	 esi, esp
  00541	8b 15 00 00 00
	00		 mov	 edx, DWORD PTR _CONF_APP_SWF_PATH
  00547	52		 push	 edx
  00548	8d 8d e8 fe ff
	ff		 lea	 ecx, DWORD PTR $T190991[ebp]
  0054e	ff 15 00 00 00
	00		 call	 DWORD PTR __imp_??0?$basic_string@DU?$char_traits@D@std@@V?$allocator@D@2@@std@@QAE@PBD@Z
  00554	3b f4		 cmp	 esi, esp
  00556	e8 00 00 00 00	 call	 __RTC_CheckEsp
  0055b	c6 45 fc 08	 mov	 BYTE PTR __$EHRec$[ebp+8], 8
  0055f	8b f4		 mov	 esi, esp
  00561	a1 00 00 00 00	 mov	 eax, DWORD PTR _CONF_APP_MODULE_NAME
  00566	50		 push	 eax
  00567	8d 8d cc fe ff
	ff		 lea	 ecx, DWORD PTR $T190992[ebp]
  0056d	ff 15 00 00 00
	00		 call	 DWORD PTR __imp_??0?$basic_string@DU?$char_traits@D@std@@V?$allocator@D@2@@std@@QAE@PBD@Z
  00573	3b f4		 cmp	 esi, esp
  00575	e8 00 00 00 00	 call	 __RTC_CheckEsp
  0057a	c6 45 fc 09	 mov	 BYTE PTR __$EHRec$[ebp+8], 9
  0057e	6a 00		 push	 0
  00580	8d 4d b4	 lea	 ecx, DWORD PTR _strSwfSavePath$[ebp]
  00583	51		 push	 ecx
  00584	8d 95 e8 fe ff
	ff		 lea	 edx, DWORD PTR $T190991[ebp]
  0058a	52		 push	 edx
  0058b	8d 85 cc fe ff
	ff		 lea	 eax, DWORD PTR $T190992[ebp]
  00591	50		 push	 eax
  00592	e8 00 00 00 00	 call	 ?AfxGetUserConfig@@YAPAVAfxUserConfig@@XZ ; AfxGetUserConfig
  00597	8b c8		 mov	 ecx, eax
  00599	e8 00 00 00 00	 call	 ?SetConfigStringValue@AfxUserConfig@@QAEXABV?$basic_string@DU?$char_traits@D@std@@V?$allocator@D@2@@std@@00_N@Z ; AfxUserConfig::SetConfigStringValue
  0059e	c6 45 fc 08	 mov	 BYTE PTR __$EHRec$[ebp+8], 8
  005a2	8b f4		 mov	 esi, esp
  005a4	8d 8d cc fe ff
	ff		 lea	 ecx, DWORD PTR $T190992[ebp]
  005aa	ff 15 00 00 00
	00		 call	 DWORD PTR __imp_??1?$basic_string@DU?$char_traits@D@std@@V?$allocator@D@2@@std@@QAE@XZ
  005b0	3b f4		 cmp	 esi, esp
  005b2	e8 00 00 00 00	 call	 __RTC_CheckEsp
  005b7	c6 45 fc 04	 mov	 BYTE PTR __$EHRec$[ebp+8], 4
  005bb	8b f4		 mov	 esi, esp
  005bd	8d 8d e8 fe ff
	ff		 lea	 ecx, DWORD PTR $T190991[ebp]
  005c3	ff 15 00 00 00
	00		 call	 DWORD PTR __imp_??1?$basic_string@DU?$char_traits@D@std@@V?$allocator@D@2@@std@@QAE@XZ
  005c9	3b f4		 cmp	 esi, esp
  005cb	e8 00 00 00 00	 call	 __RTC_CheckEsp
$L188226:

; 73   : 	}
; 74   : 	//
; 75   : 	string strFileName = strID + ".swf";

  005d0	68 00 00 00 00	 push	 OFFSET FLAT:$SG188232
  005d5	8d 4d 08	 lea	 ecx, DWORD PTR _strID$[ebp]
  005d8	51		 push	 ecx
  005d9	8d 55 90	 lea	 edx, DWORD PTR _strFileName$[ebp]
  005dc	52		 push	 edx
  005dd	e8 00 00 00 00	 call	 ??$?HDU?$char_traits@D@std@@V?$allocator@D@1@@std@@YA?AV?$basic_string@DU?$char_traits@D@std@@V?$allocator@D@2@@0@ABV10@PBD@Z ; std::operator+<char,std::char_traits<char>,std::allocator<char> >
  005e2	83 c4 0c	 add	 esp, 12			; 0000000cH
  005e5	c6 45 fc 0a	 mov	 BYTE PTR __$EHRec$[ebp+8], 10 ; 0000000aH

; 76   : 	string strLocalPath = YL_StringUtil::ComposeDirPath( strSwfSavePath, strFileName );

  005e9	8d 45 90	 lea	 eax, DWORD PTR _strFileName$[ebp]
  005ec	50		 push	 eax
  005ed	8d 4d b4	 lea	 ecx, DWORD PTR _strSwfSavePath$[ebp]
  005f0	51		 push	 ecx
  005f1	8d 95 6c ff ff
	ff		 lea	 edx, DWORD PTR _strLocalPath$[ebp]
  005f7	52		 push	 edx
  005f8	e8 00 00 00 00	 call	 ?ComposeDirPath@YL_StringUtil@@SA?AV?$basic_string@DU?$char_traits@D@std@@V?$allocator@D@2@@std@@ABV23@0@Z ; YL_StringUtil::ComposeDirPath
  005fd	83 c4 0c	 add	 esp, 12			; 0000000cH
  00600	c6 45 fc 0b	 mov	 BYTE PTR __$EHRec$[ebp+8], 11 ; 0000000bH

; 77   : 	
; 78   : 	DeleteFile( strLocalPath.c_str() );

  00604	8b f4		 mov	 esi, esp
  00606	8d 8d 6c ff ff
	ff		 lea	 ecx, DWORD PTR _strLocalPath$[ebp]
  0060c	ff 15 00 00 00
	00		 call	 DWORD PTR __imp_?c_str@?$basic_string@DU?$char_traits@D@std@@V?$allocator@D@2@@std@@QBEPBDXZ
  00612	3b f4		 cmp	 esi, esp
  00614	e8 00 00 00 00	 call	 __RTC_CheckEsp
  00619	8b f4		 mov	 esi, esp
  0061b	50		 push	 eax
  0061c	ff 15 00 00 00
	00		 call	 DWORD PTR __imp__DeleteFileA@4
  00622	3b f4		 cmp	 esi, esp
  00624	e8 00 00 00 00	 call	 __RTC_CheckEsp

; 79   : 	pHttpDownFile->AsyncDownloadFile( strSwfUrl, strLocalPath );

  00629	8b f4		 mov	 esi, esp
  0062b	6a 00		 push	 0
  0062d	8d 85 6c ff ff
	ff		 lea	 eax, DWORD PTR _strLocalPath$[ebp]
  00633	50		 push	 eax
  00634	8d 4d 24	 lea	 ecx, DWORD PTR _strSwfUrl$[ebp]
  00637	51		 push	 ecx
  00638	8b 4d d4	 mov	 ecx, DWORD PTR _pHttpDownFile$[ebp]
  0063b	ff 15 00 00 00
	00		 call	 DWORD PTR __imp_?AsyncDownloadFile@YL_CHTTPDownFile@@QAE_NABV?$basic_string@DU?$char_traits@D@std@@V?$allocator@D@2@@std@@0PAI@Z
  00641	3b f4		 cmp	 esi, esp
  00643	e8 00 00 00 00	 call	 __RTC_CheckEsp

; 80   : 	pHttpDownFile->GetFileSize();

  00648	8b f4		 mov	 esi, esp
  0064a	8b 4d d4	 mov	 ecx, DWORD PTR _pHttpDownFile$[ebp]
  0064d	ff 15 00 00 00
	00		 call	 DWORD PTR __imp_?GetFileSize@YL_CHTTPDownFile@@QAEIXZ
  00653	3b f4		 cmp	 esi, esp
  00655	e8 00 00 00 00	 call	 __RTC_CheckEsp

; 81   : 
; 82   : 	sl.Lock();

  0065a	6a ff		 push	 -1
  0065c	8d 4d dc	 lea	 ecx, DWORD PTR _sl$[ebp]
  0065f	e8 00 00 00 00	 call	 ?Lock@CSingleLock@@QAEHK@Z ; CSingleLock::Lock

; 83   : 	m_mapDownThread[strID] = pHttpDownFile;

  00664	8d 55 08	 lea	 edx, DWORD PTR _strID$[ebp]
  00667	52		 push	 edx
  00668	8b 4d ec	 mov	 ecx, DWORD PTR _this$[ebp]
  0066b	83 c1 60	 add	 ecx, 96			; 00000060H
  0066e	e8 00 00 00 00	 call	 ??A?$map@V?$basic_string@DU?$char_traits@D@std@@V?$allocator@D@2@@std@@PAVYL_CHTTPDownFile@@U?$less@V?$basic_string@DU?$char_traits@D@std@@V?$allocator@D@2@@std@@@2@V?$allocator@U?$pair@$$CBV?$basic_string@DU?$char_traits@D@std@@V?$allocator@D@2@@std@@PAVYL_CHTTPDownFile@@@std@@@2@@std@@QAEAAPAVYL_CHTTPDownFile@@ABV?$basic_string@DU?$char_traits@D@std@@V?$allocator@D@2@@1@@Z ; std::map<std::basic_string<char,std::char_traits<char>,std::allocator<char> >,YL_CHTTPDownFile *,std::less<std::basic_string<char,std::char_traits<char>,std::allocator<char> > >,std::allocator<std::pair<std::basic_string<char,std::char_traits<char>,std::allocator<char> > const ,YL_CHTTPDownFile *> > >::operator[]
  00673	8b 4d d4	 mov	 ecx, DWORD PTR _pHttpDownFile$[ebp]
  00676	89 08		 mov	 DWORD PTR [eax], ecx

; 84   : 	sl.Unlock();

  00678	8d 4d dc	 lea	 ecx, DWORD PTR _sl$[ebp]
  0067b	e8 00 00 00 00	 call	 ?Unlock@CSingleLock@@QAEHXZ ; CSingleLock::Unlock

; 85   : 	SetTimer( TIMER_CHECK_DOWN_STATE, ELAPSE_DOWN, NULL );

  00680	6a 00		 push	 0
  00682	68 f4 01 00 00	 push	 500			; 000001f4H
  00687	68 cb 04 00 00	 push	 1227			; 000004cbH
  0068c	8b 4d ec	 mov	 ecx, DWORD PTR _this$[ebp]
  0068f	e8 00 00 00 00	 call	 ?SetTimer@CWnd@@QAEIIIP6GXPAUHWND__@@IIK@Z@Z ; CWnd::SetTimer

; 86   : }

  00694	c6 45 fc 0a	 mov	 BYTE PTR __$EHRec$[ebp+8], 10 ; 0000000aH
  00698	8b f4		 mov	 esi, esp
  0069a	8d 8d 6c ff ff
	ff		 lea	 ecx, DWORD PTR _strLocalPath$[ebp]
  006a0	ff 15 00 00 00
	00		 call	 DWORD PTR __imp_??1?$basic_string@DU?$char_traits@D@std@@V?$allocator@D@2@@std@@QAE@XZ
  006a6	3b f4		 cmp	 esi, esp
  006a8	e8 00 00 00 00	 call	 __RTC_CheckEsp
  006ad	c6 45 fc 04	 mov	 BYTE PTR __$EHRec$[ebp+8], 4
  006b1	8b f4		 mov	 esi, esp
  006b3	8d 4d 90	 lea	 ecx, DWORD PTR _strFileName$[ebp]
  006b6	ff 15 00 00 00
	00		 call	 DWORD PTR __imp_??1?$basic_string@DU?$char_traits@D@std@@V?$allocator@D@2@@std@@QAE@XZ
  006bc	3b f4		 cmp	 esi, esp
  006be	e8 00 00 00 00	 call	 __RTC_CheckEsp
  006c3	c6 45 fc 02	 mov	 BYTE PTR __$EHRec$[ebp+8], 2
  006c7	8b f4		 mov	 esi, esp
  006c9	8d 4d b4	 lea	 ecx, DWORD PTR _strSwfSavePath$[ebp]
  006cc	ff 15 00 00 00
	00		 call	 DWORD PTR __imp_??1?$basic_string@DU?$char_traits@D@std@@V?$allocator@D@2@@std@@QAE@XZ
  006d2	3b f4		 cmp	 esi, esp
  006d4	e8 00 00 00 00	 call	 __RTC_CheckEsp
  006d9	c6 45 fc 01	 mov	 BYTE PTR __$EHRec$[ebp+8], 1
  006dd	8d 4d dc	 lea	 ecx, DWORD PTR _sl$[ebp]
  006e0	e8 00 00 00 00	 call	 ??1CSingleLock@@QAE@XZ	; CSingleLock::~CSingleLock
  006e5	c6 45 fc 00	 mov	 BYTE PTR __$EHRec$[ebp+8], 0
  006e9	8b f4		 mov	 esi, esp
  006eb	8d 4d 08	 lea	 ecx, DWORD PTR _strID$[ebp]
  006ee	ff 15 00 00 00
	00		 call	 DWORD PTR __imp_??1?$basic_string@DU?$char_traits@D@std@@V?$allocator@D@2@@std@@QAE@XZ
  006f4	3b f4		 cmp	 esi, esp
  006f6	e8 00 00 00 00	 call	 __RTC_CheckEsp
  006fb	c7 45 fc ff ff
	ff ff		 mov	 DWORD PTR __$EHRec$[ebp+8], -1
  00702	8b f4		 mov	 esi, esp
  00704	8d 4d 24	 lea	 ecx, DWORD PTR _strSwfUrl$[ebp]
  00707	ff 15 00 00 00
	00		 call	 DWORD PTR __imp_??1?$basic_string@DU?$char_traits@D@std@@V?$allocator@D@2@@std@@QAE@XZ
  0070d	3b f4		 cmp	 esi, esp
  0070f	e8 00 00 00 00	 call	 __RTC_CheckEsp
$L188136:
  00714	52		 push	 edx
  00715	8b cd		 mov	 ecx, ebp
  00717	50		 push	 eax
  00718	8d 15 00 00 00
	00		 lea	 edx, DWORD PTR $L191015
  0071e	e8 00 00 00 00	 call	 @_RTC_CheckStackVars@8
  00723	58		 pop	 eax
  00724	5a		 pop	 edx
  00725	8b 4d f4	 mov	 ecx, DWORD PTR __$EHRec$[ebp]
  00728	64 89 0d 00 00
	00 00		 mov	 DWORD PTR fs:__except_list, ecx
  0072f	8b 4d f0	 mov	 ecx, DWORD PTR __$ArrayPad$[ebp]
  00732	e8 00 00 00 00	 call	 @__security_check_cookie@4
  00737	5f		 pop	 edi
  00738	5e		 pop	 esi
  00739	81 c4 40 01 00
	00		 add	 esp, 320		; 00000140H
  0073f	3b ec		 cmp	 ebp, esp
  00741	e8 00 00 00 00	 call	 __RTC_CheckEsp
  00746	8b e5		 mov	 esp, ebp
  00748	5d		 pop	 ebp
  00749	c2 38 00	 ret	 56			; 00000038H
$L191015:
  0074c	04 00 00 00	 DD	 4
  00750	00 00 00 00	 DD	 $L191014
$L191014:
  00754	dc ff ff ff	 DD	 -36			; ffffffdcH
  00758	0c 00 00 00	 DD	 12			; 0000000cH
  0075c	00 00 00 00	 DD	 $L191007
  00760	b4 ff ff ff	 DD	 -76			; ffffffb4H
  00764	1c 00 00 00	 DD	 28			; 0000001cH
  00768	00 00 00 00	 DD	 $L191008
  0076c	90 ff ff ff	 DD	 -112			; ffffff90H
  00770	1c 00 00 00	 DD	 28			; 0000001cH
  00774	00 00 00 00	 DD	 $L191009
  00778	6c ff ff ff	 DD	 -148			; ffffff6cH
  0077c	1c 00 00 00	 DD	 28			; 0000001cH
  00780	00 00 00 00	 DD	 $L191010
$L191010:
  00784	73		 DB	 115			; 00000073H
  00785	74		 DB	 116			; 00000074H
  00786	72		 DB	 114			; 00000072H
  00787	4c		 DB	 76			; 0000004cH
  00788	6f		 DB	 111			; 0000006fH
  00789	63		 DB	 99			; 00000063H
  0078a	61		 DB	 97			; 00000061H
  0078b	6c		 DB	 108			; 0000006cH
  0078c	50		 DB	 80			; 00000050H
  0078d	61		 DB	 97			; 00000061H
  0078e	74		 DB	 116			; 00000074H
  0078f	68		 DB	 104			; 00000068H
  00790	00		 DB	 0
$L191009:
  00791	73		 DB	 115			; 00000073H
  00792	74		 DB	 116			; 00000074H
  00793	72		 DB	 114			; 00000072H
  00794	46		 DB	 70			; 00000046H
  00795	69		 DB	 105			; 00000069H
  00796	6c		 DB	 108			; 0000006cH
  00797	65		 DB	 101			; 00000065H
  00798	4e		 DB	 78			; 0000004eH
  00799	61		 DB	 97			; 00000061H
  0079a	6d		 DB	 109			; 0000006dH
  0079b	65		 DB	 101			; 00000065H
  0079c	00		 DB	 0
$L191008:
  0079d	73		 DB	 115			; 00000073H
  0079e	74		 DB	 116			; 00000074H
  0079f	72		 DB	 114			; 00000072H
  007a0	53		 DB	 83			; 00000053H
  007a1	77		 DB	 119			; 00000077H
  007a2	66		 DB	 102			; 00000066H
  007a3	53		 DB	 83			; 00000053H
  007a4	61		 DB	 97			; 00000061H
  007a5	76		 DB	 118			; 00000076H
  007a6	65		 DB	 101			; 00000065H
  007a7	50		 DB	 80			; 00000050H
  007a8	61		 DB	 97			; 00000061H
  007a9	74		 DB	 116			; 00000074H
  007aa	68		 DB	 104			; 00000068H
  007ab	00		 DB	 0
$L191007:
  007ac	73		 DB	 115			; 00000073H
  007ad	6c		 DB	 108			; 0000006cH
  007ae	00		 DB	 0
_TEXT	ENDS
text$x	SEGMENT
$L190993:
  0004e	8b f4		 mov	 esi, esp
  00050	8d 4d 24	 lea	 ecx, DWORD PTR _strSwfUrl$[ebp]
  00053	ff 15 00 00 00
	00		 call	 DWORD PTR __imp_??1?$basic_string@DU?$char_traits@D@std@@V?$allocator@D@2@@std@@QAE@XZ
  00059	3b f4		 cmp	 esi, esp
  0005b	e9 00 00 00 00	 jmp	 __RTC_CheckEsp
$L190994:
  00060	8b f4		 mov	 esi, esp
  00062	8d 4d 08	 lea	 ecx, DWORD PTR _strID$[ebp]
  00065	ff 15 00 00 00
	00		 call	 DWORD PTR __imp_??1?$basic_string@DU?$char_traits@D@std@@V?$allocator@D@2@@std@@QAE@XZ
  0006b	3b f4		 cmp	 esi, esp
  0006d	e9 00 00 00 00	 jmp	 __RTC_CheckEsp
$L190995:
  00072	8d 4d dc	 lea	 ecx, DWORD PTR _sl$[ebp]
  00075	e9 00 00 00 00	 jmp	 ??1CSingleLock@@QAE@XZ	; CSingleLock::~CSingleLock
$L190996:
  0007a	8b 85 58 ff ff
	ff		 mov	 eax, DWORD PTR $T190985[ebp]
  00080	50		 push	 eax
  00081	e8 00 00 00 00	 call	 ??3@YAXPAX@Z		; operator delete
  00086	59		 pop	 ecx
  00087	c3		 ret	 0
$L190997:
  00088	8b f4		 mov	 esi, esp
  0008a	8d 4d b4	 lea	 ecx, DWORD PTR _strSwfSavePath$[ebp]
  0008d	ff 15 00 00 00
	00		 call	 DWORD PTR __imp_??1?$basic_string@DU?$char_traits@D@std@@V?$allocator@D@2@@std@@QAE@XZ
  00093	3b f4		 cmp	 esi, esp
  00095	e9 00 00 00 00	 jmp	 __RTC_CheckEsp
$L190998:
  0009a	8b f4		 mov	 esi, esp
  0009c	8d 8d 3c ff ff
	ff		 lea	 ecx, DWORD PTR $T190988[ebp]
  000a2	ff 15 00 00 00
	00		 call	 DWORD PTR __imp_??1?$basic_string@DU?$char_traits@D@std@@V?$allocator@D@2@@std@@QAE@XZ
  000a8	3b f4		 cmp	 esi, esp
  000aa	e9 00 00 00 00	 jmp	 __RTC_CheckEsp
$L190999:
  000af	8b f4		 mov	 esi, esp
  000b1	8d 8d 20 ff ff
	ff		 lea	 ecx, DWORD PTR $T190989[ebp]
  000b7	ff 15 00 00 00
	00		 call	 DWORD PTR __imp_??1?$basic_string@DU?$char_traits@D@std@@V?$allocator@D@2@@std@@QAE@XZ
  000bd	3b f4		 cmp	 esi, esp
  000bf	e9 00 00 00 00	 jmp	 __RTC_CheckEsp
$L191000:
  000c4	8b f4		 mov	 esi, esp
  000c6	8d 8d 04 ff ff
	ff		 lea	 ecx, DWORD PTR $T190990[ebp]
  000cc	ff 15 00 00 00
	00		 call	 DWORD PTR __imp_??1?$basic_string@DU?$char_traits@D@std@@V?$allocator@D@2@@std@@QAE@XZ
  000d2	3b f4		 cmp	 esi, esp
  000d4	e9 00 00 00 00	 jmp	 __RTC_CheckEsp
$L191001:
  000d9	8b f4		 mov	 esi, esp
  000db	8d 8d e8 fe ff
	ff		 lea	 ecx, DWORD PTR $T190991[ebp]
  000e1	ff 15 00 00 00
	00		 call	 DWORD PTR __imp_??1?$basic_string@DU?$char_traits@D@std@@V?$allocator@D@2@@std@@QAE@XZ
  000e7	3b f4		 cmp	 esi, esp
  000e9	e9 00 00 00 00	 jmp	 __RTC_CheckEsp
$L191002:
  000ee	8b f4		 mov	 esi, esp
  000f0	8d 8d cc fe ff
	ff		 lea	 ecx, DWORD PTR $T190992[ebp]
  000f6	ff 15 00 00 00
	00		 call	 DWORD PTR __imp_??1?$basic_string@DU?$char_traits@D@std@@V?$allocator@D@2@@std@@QAE@XZ
  000fc	3b f4		 cmp	 esi, esp
  000fe	e9 00 00 00 00	 jmp	 __RTC_CheckEsp
$L191003:
  00103	8b f4		 mov	 esi, esp
  00105	8d 4d 90	 lea	 ecx, DWORD PTR _strFileName$[ebp]
  00108	ff 15 00 00 00
	00		 call	 DWORD PTR __imp_??1?$basic_string@DU?$char_traits@D@std@@V?$allocator@D@2@@std@@QAE@XZ
  0010e	3b f4		 cmp	 esi, esp
  00110	e9 00 00 00 00	 jmp	 __RTC_CheckEsp
$L191004:
  00115	8b f4		 mov	 esi, esp
  00117	8d 8d 6c ff ff
	ff		 lea	 ecx, DWORD PTR _strLocalPath$[ebp]
  0011d	ff 15 00 00 00
	00		 call	 DWORD PTR __imp_??1?$basic_string@DU?$char_traits@D@std@@V?$allocator@D@2@@std@@QAE@XZ
  00123	3b f4		 cmp	 esi, esp
  00125	e9 00 00 00 00	 jmp	 __RTC_CheckEsp
__ehhandler$?StartDown@HttpDownCtrl@@QAEXV?$basic_string@DU?$char_traits@D@std@@V?$allocator@D@2@@std@@0@Z:
  0012a	b8 00 00 00 00	 mov	 eax, OFFSET FLAT:$T191006
  0012f	e9 00 00 00 00	 jmp	 ___CxxFrameHandler
text$x	ENDS
?StartDown@HttpDownCtrl@@QAEXV?$basic_string@DU?$char_traits@D@std@@V?$allocator@D@2@@std@@0@Z ENDP ; HttpDownCtrl::StartDown
PUBLIC	?erase@?$_Tree@V?$_Tmap_traits@V?$basic_string@DU?$char_traits@D@std@@V?$allocator@D@2@@std@@PAVYL_CHTTPDownFile@@U?$less@V?$basic_string@DU?$char_traits@D@std@@V?$allocator@D@2@@std@@@2@V?$allocator@U?$pair@$$CBV?$basic_string@DU?$char_traits@D@std@@V?$allocator@D@2@@std@@PAVYL_CHTTPDownFile@@@std@@@2@$0A@@std@@@std@@QAE?AViterator@12@V312@@Z ; std::_Tree<std::_Tmap_traits<std::basic_string<char,std::char_traits<char>,std::allocator<char> >,YL_CHTTPDownFile *,std::less<std::basic_string<char,std::char_traits<char>,std::allocator<char> > >,std::allocator<std::pair<std::basic_string<char,std::char_traits<char>,std::allocator<char> > const ,YL_CHTTPDownFile *> >,0> >::erase
PUBLIC	?NotifyDownFailed@HttpDownCtrl@@AAEXAAV?$basic_string@DU?$char_traits@D@std@@V?$allocator@D@2@@std@@W4HTTP_DOWN_FAILED_REASON@@@Z ; HttpDownCtrl::NotifyDownFailed
PUBLIC	?StopDown@HttpDownCtrl@@QAEXV?$basic_string@DU?$char_traits@D@std@@V?$allocator@D@2@@std@@@Z ; HttpDownCtrl::StopDown
PUBLIC	??Citerator@?$_Tree@V?$_Tmap_traits@V?$basic_string@DU?$char_traits@D@std@@V?$allocator@D@2@@std@@PAVYL_CHTTPDownFile@@U?$less@V?$basic_string@DU?$char_traits@D@std@@V?$allocator@D@2@@std@@@2@V?$allocator@U?$pair@$$CBV?$basic_string@DU?$char_traits@D@std@@V?$allocator@D@2@@std@@PAVYL_CHTTPDownFile@@@std@@@2@$0A@@std@@@std@@QBEPAU?$pair@$$CBV?$basic_string@DU?$char_traits@D@std@@V?$allocator@D@2@@std@@PAVYL_CHTTPDownFile@@@2@XZ ; std::_Tree<std::_Tmap_traits<std::basic_string<char,std::char_traits<char>,std::allocator<char> >,YL_CHTTPDownFile *,std::less<std::basic_string<char,std::char_traits<char>,std::allocator<char> > >,std::allocator<std::pair<std::basic_string<char,std::char_traits<char>,std::allocator<char> > const ,YL_CHTTPDownFile *> >,0> >::iterator::operator->
PUBLIC	??_GYL_CHTTPDownFile@@QAEPAXI@Z			; YL_CHTTPDownFile::`scalar deleting destructor'
xdata$x	SEGMENT
$T191035 DD	0ffffffffH
	DD	FLAT:$L191026
	DD	00H
	DD	FLAT:$L191027
$T191029 DD	019930520H
	DD	02H
	DD	FLAT:$T191035
	DD	2 DUP(00H)
	DD	2 DUP(00H)
; Function compile flags: /Odt /RTCsu
xdata$x	ENDS
_TEXT	SEGMENT
tv95 = -68						; size = 4
$T191025 = -64						; size = 4
$T191022 = -60						; size = 4
$T191021 = -56						; size = 4
$T191020 = -52						; size = 4
_it1$ = -44						; size = 4
_sl$ = -32						; size = 12
_this$ = -16						; size = 4
__$EHRec$ = -12						; size = 12
_strID$ = 8						; size = 28
?StopDown@HttpDownCtrl@@QAEXV?$basic_string@DU?$char_traits@D@std@@V?$allocator@D@2@@std@@@Z PROC NEAR ; HttpDownCtrl::StopDown
; _this$ = ecx

; 89   : {

  007b0	55		 push	 ebp
  007b1	8b ec		 mov	 ebp, esp
  007b3	6a ff		 push	 -1
  007b5	68 00 00 00 00	 push	 __ehhandler$?StopDown@HttpDownCtrl@@QAEXV?$basic_string@DU?$char_traits@D@std@@V?$allocator@D@2@@std@@@Z
  007ba	64 a1 00 00 00
	00		 mov	 eax, DWORD PTR fs:__except_list
  007c0	50		 push	 eax
  007c1	64 89 25 00 00
	00 00		 mov	 DWORD PTR fs:__except_list, esp
  007c8	83 ec 38	 sub	 esp, 56			; 00000038H
  007cb	56		 push	 esi
  007cc	57		 push	 edi
  007cd	51		 push	 ecx
  007ce	8d 7d bc	 lea	 edi, DWORD PTR [ebp-68]
  007d1	b9 0e 00 00 00	 mov	 ecx, 14			; 0000000eH
  007d6	b8 cc cc cc cc	 mov	 eax, -858993460		; ccccccccH
  007db	f3 ab		 rep stosd
  007dd	59		 pop	 ecx
  007de	89 4d f0	 mov	 DWORD PTR _this$[ebp], ecx
  007e1	c7 45 fc 00 00
	00 00		 mov	 DWORD PTR __$EHRec$[ebp+8], 0

; 90   : 	CSingleLock sl( &m_cs );

  007e8	6a 00		 push	 0
  007ea	8b 45 f0	 mov	 eax, DWORD PTR _this$[ebp]
  007ed	83 c0 54	 add	 eax, 84			; 00000054H
  007f0	50		 push	 eax
  007f1	8d 4d e0	 lea	 ecx, DWORD PTR _sl$[ebp]
  007f4	e8 00 00 00 00	 call	 ??0CSingleLock@@QAE@PAVCSyncObject@@H@Z ; CSingleLock::CSingleLock
  007f9	c6 45 fc 01	 mov	 BYTE PTR __$EHRec$[ebp+8], 1

; 91   : 	sl.Lock();

  007fd	6a ff		 push	 -1
  007ff	8d 4d e0	 lea	 ecx, DWORD PTR _sl$[ebp]
  00802	e8 00 00 00 00	 call	 ?Lock@CSingleLock@@QAEHK@Z ; CSingleLock::Lock

; 92   : 	map<string,YL_CHTTPDownFile*>::iterator it1 = m_mapDownThread.find( strID );

  00807	8d 4d 08	 lea	 ecx, DWORD PTR _strID$[ebp]
  0080a	51		 push	 ecx
  0080b	8d 55 d4	 lea	 edx, DWORD PTR _it1$[ebp]
  0080e	52		 push	 edx
  0080f	8b 4d f0	 mov	 ecx, DWORD PTR _this$[ebp]
  00812	83 c1 60	 add	 ecx, 96			; 00000060H
  00815	e8 00 00 00 00	 call	 ?find@?$_Tree@V?$_Tmap_traits@V?$basic_string@DU?$char_traits@D@std@@V?$allocator@D@2@@std@@PAVYL_CHTTPDownFile@@U?$less@V?$basic_string@DU?$char_traits@D@std@@V?$allocator@D@2@@std@@@2@V?$allocator@U?$pair@$$CBV?$basic_string@DU?$char_traits@D@std@@V?$allocator@D@2@@std@@PAVYL_CHTTPDownFile@@@std@@@2@$0A@@std@@@std@@QAE?AViterator@12@ABV?$basic_string@DU?$char_traits@D@std@@V?$allocator@D@2@@2@@Z ; std::_Tree<std::_Tmap_traits<std::basic_string<char,std::char_traits<char>,std::allocator<char> >,YL_CHTTPDownFile *,std::less<std::basic_string<char,std::char_traits<char>,std::allocator<char> > >,std::allocator<std::pair<std::basic_string<char,std::char_traits<char>,std::allocator<char> > const ,YL_CHTTPDownFile *> >,0> >::find

; 93   : 	if( it1 != m_mapDownThread.end() )

  0081a	8d 45 cc	 lea	 eax, DWORD PTR $T191020[ebp]
  0081d	50		 push	 eax
  0081e	8b 4d f0	 mov	 ecx, DWORD PTR _this$[ebp]
  00821	83 c1 60	 add	 ecx, 96			; 00000060H
  00824	e8 00 00 00 00	 call	 ?end@?$_Tree@V?$_Tmap_traits@V?$basic_string@DU?$char_traits@D@std@@V?$allocator@D@2@@std@@PAVYL_CHTTPDownFile@@U?$less@V?$basic_string@DU?$char_traits@D@std@@V?$allocator@D@2@@std@@@2@V?$allocator@U?$pair@$$CBV?$basic_string@DU?$char_traits@D@std@@V?$allocator@D@2@@std@@PAVYL_CHTTPDownFile@@@std@@@2@$0A@@std@@@std@@QAE?AViterator@12@XZ ; std::_Tree<std::_Tmap_traits<std::basic_string<char,std::char_traits<char>,std::allocator<char> >,YL_CHTTPDownFile *,std::less<std::basic_string<char,std::char_traits<char>,std::allocator<char> > >,std::allocator<std::pair<std::basic_string<char,std::char_traits<char>,std::allocator<char> > const ,YL_CHTTPDownFile *> >,0> >::end
  00829	50		 push	 eax
  0082a	8d 4d d4	 lea	 ecx, DWORD PTR _it1$[ebp]
  0082d	e8 00 00 00 00	 call	 ??9const_iterator@?$_Tree@V?$_Tmap_traits@V?$basic_string@DU?$char_traits@D@std@@V?$allocator@D@2@@std@@PAVYL_CHTTPDownFile@@U?$less@V?$basic_string@DU?$char_traits@D@std@@V?$allocator@D@2@@std@@@2@V?$allocator@U?$pair@$$CBV?$basic_string@DU?$char_traits@D@std@@V?$allocator@D@2@@std@@PAVYL_CHTTPDownFile@@@std@@@2@$0A@@std@@@std@@QBE_NABV012@@Z ; std::_Tree<std::_Tmap_traits<std::basic_string<char,std::char_traits<char>,std::allocator<char> >,YL_CHTTPDownFile *,std::less<std::basic_string<char,std::char_traits<char>,std::allocator<char> > >,std::allocator<std::pair<std::basic_string<char,std::char_traits<char>,std::allocator<char> > const ,YL_CHTTPDownFile *> >,0> >::const_iterator::operator!=
  00832	0f b6 c8	 movzx	 ecx, al
  00835	85 c9		 test	 ecx, ecx
  00837	74 43		 je	 SHORT $L188248

; 94   : 	{
; 95   : 		delete it1->second;

  00839	8d 4d d4	 lea	 ecx, DWORD PTR _it1$[ebp]
  0083c	e8 00 00 00 00	 call	 ??Citerator@?$_Tree@V?$_Tmap_traits@V?$basic_string@DU?$char_traits@D@std@@V?$allocator@D@2@@std@@PAVYL_CHTTPDownFile@@U?$less@V?$basic_string@DU?$char_traits@D@std@@V?$allocator@D@2@@std@@@2@V?$allocator@U?$pair@$$CBV?$basic_string@DU?$char_traits@D@std@@V?$allocator@D@2@@std@@PAVYL_CHTTPDownFile@@@std@@@2@$0A@@std@@@std@@QBEPAU?$pair@$$CBV?$basic_string@DU?$char_traits@D@std@@V?$allocator@D@2@@std@@PAVYL_CHTTPDownFile@@@2@XZ ; std::_Tree<std::_Tmap_traits<std::basic_string<char,std::char_traits<char>,std::allocator<char> >,YL_CHTTPDownFile *,std::less<std::basic_string<char,std::char_traits<char>,std::allocator<char> > >,std::allocator<std::pair<std::basic_string<char,std::char_traits<char>,std::allocator<char> > const ,YL_CHTTPDownFile *> >,0> >::iterator::operator->
  00841	8b 50 1c	 mov	 edx, DWORD PTR [eax+28]
  00844	89 55 c4	 mov	 DWORD PTR $T191022[ebp], edx
  00847	8b 45 c4	 mov	 eax, DWORD PTR $T191022[ebp]
  0084a	89 45 c8	 mov	 DWORD PTR $T191021[ebp], eax
  0084d	83 7d c8 00	 cmp	 DWORD PTR $T191021[ebp], 0
  00851	74 0f		 je	 SHORT $L191023
  00853	6a 01		 push	 1
  00855	8b 4d c8	 mov	 ecx, DWORD PTR $T191021[ebp]
  00858	e8 00 00 00 00	 call	 ??_GYL_CHTTPDownFile@@QAEPAXI@Z
  0085d	89 45 bc	 mov	 DWORD PTR tv95[ebp], eax
  00860	eb 07		 jmp	 SHORT $L191024
$L191023:
  00862	c7 45 bc 00 00
	00 00		 mov	 DWORD PTR tv95[ebp], 0
$L191024:

; 96   : 		m_mapDownThread.erase( it1 );

  00869	8b 4d d4	 mov	 ecx, DWORD PTR _it1$[ebp]
  0086c	51		 push	 ecx
  0086d	8d 55 c0	 lea	 edx, DWORD PTR $T191025[ebp]
  00870	52		 push	 edx
  00871	8b 4d f0	 mov	 ecx, DWORD PTR _this$[ebp]
  00874	83 c1 60	 add	 ecx, 96			; 00000060H
  00877	e8 00 00 00 00	 call	 ?erase@?$_Tree@V?$_Tmap_traits@V?$basic_string@DU?$char_traits@D@std@@V?$allocator@D@2@@std@@PAVYL_CHTTPDownFile@@U?$less@V?$basic_string@DU?$char_traits@D@std@@V?$allocator@D@2@@std@@@2@V?$allocator@U?$pair@$$CBV?$basic_string@DU?$char_traits@D@std@@V?$allocator@D@2@@std@@PAVYL_CHTTPDownFile@@@std@@@2@$0A@@std@@@std@@QAE?AViterator@12@V312@@Z ; std::_Tree<std::_Tmap_traits<std::basic_string<char,std::char_traits<char>,std::allocator<char> >,YL_CHTTPDownFile *,std::less<std::basic_string<char,std::char_traits<char>,std::allocator<char> > >,std::allocator<std::pair<std::basic_string<char,std::char_traits<char>,std::allocator<char> > const ,YL_CHTTPDownFile *> >,0> >::erase
$L188248:

; 97   : 	}
; 98   : 	sl.Unlock();

  0087c	8d 4d e0	 lea	 ecx, DWORD PTR _sl$[ebp]
  0087f	e8 00 00 00 00	 call	 ?Unlock@CSingleLock@@QAEHXZ ; CSingleLock::Unlock

; 99   : 
; 100  : 	NotifyDownFailed( strID, HTTP_FAILED_CANCELED );

  00884	6a 07		 push	 7
  00886	8d 45 08	 lea	 eax, DWORD PTR _strID$[ebp]
  00889	50		 push	 eax
  0088a	8b 4d f0	 mov	 ecx, DWORD PTR _this$[ebp]
  0088d	e8 00 00 00 00	 call	 ?NotifyDownFailed@HttpDownCtrl@@AAEXAAV?$basic_string@DU?$char_traits@D@std@@V?$allocator@D@2@@std@@W4HTTP_DOWN_FAILED_REASON@@@Z ; HttpDownCtrl::NotifyDownFailed

; 101  : }

  00892	c6 45 fc 00	 mov	 BYTE PTR __$EHRec$[ebp+8], 0
  00896	8d 4d e0	 lea	 ecx, DWORD PTR _sl$[ebp]
  00899	e8 00 00 00 00	 call	 ??1CSingleLock@@QAE@XZ	; CSingleLock::~CSingleLock
  0089e	c7 45 fc ff ff
	ff ff		 mov	 DWORD PTR __$EHRec$[ebp+8], -1
  008a5	8b f4		 mov	 esi, esp
  008a7	8d 4d 08	 lea	 ecx, DWORD PTR _strID$[ebp]
  008aa	ff 15 00 00 00
	00		 call	 DWORD PTR __imp_??1?$basic_string@DU?$char_traits@D@std@@V?$allocator@D@2@@std@@QAE@XZ
  008b0	3b f4		 cmp	 esi, esp
  008b2	e8 00 00 00 00	 call	 __RTC_CheckEsp
  008b7	52		 push	 edx
  008b8	8b cd		 mov	 ecx, ebp
  008ba	50		 push	 eax
  008bb	8d 15 00 00 00
	00		 lea	 edx, DWORD PTR $L191034
  008c1	e8 00 00 00 00	 call	 @_RTC_CheckStackVars@8
  008c6	58		 pop	 eax
  008c7	5a		 pop	 edx
  008c8	8b 4d f4	 mov	 ecx, DWORD PTR __$EHRec$[ebp]
  008cb	64 89 0d 00 00
	00 00		 mov	 DWORD PTR fs:__except_list, ecx
  008d2	5f		 pop	 edi
  008d3	5e		 pop	 esi
  008d4	83 c4 44	 add	 esp, 68			; 00000044H
  008d7	3b ec		 cmp	 ebp, esp
  008d9	e8 00 00 00 00	 call	 __RTC_CheckEsp
  008de	8b e5		 mov	 esp, ebp
  008e0	5d		 pop	 ebp
  008e1	c2 1c 00	 ret	 28			; 0000001cH
$L191034:
  008e4	02 00 00 00	 DD	 2
  008e8	00 00 00 00	 DD	 $L191033
$L191033:
  008ec	e0 ff ff ff	 DD	 -32			; ffffffe0H
  008f0	0c 00 00 00	 DD	 12			; 0000000cH
  008f4	00 00 00 00	 DD	 $L191030
  008f8	d4 ff ff ff	 DD	 -44			; ffffffd4H
  008fc	04 00 00 00	 DD	 4
  00900	00 00 00 00	 DD	 $L191031
$L191031:
  00904	69		 DB	 105			; 00000069H
  00905	74		 DB	 116			; 00000074H
  00906	31		 DB	 49			; 00000031H
  00907	00		 DB	 0
$L191030:
  00908	73		 DB	 115			; 00000073H
  00909	6c		 DB	 108			; 0000006cH
  0090a	00		 DB	 0
_TEXT	ENDS
text$x	SEGMENT
$L191026:
  00134	8b f4		 mov	 esi, esp
  00136	8d 4d 08	 lea	 ecx, DWORD PTR _strID$[ebp]
  00139	ff 15 00 00 00
	00		 call	 DWORD PTR __imp_??1?$basic_string@DU?$char_traits@D@std@@V?$allocator@D@2@@std@@QAE@XZ
  0013f	3b f4		 cmp	 esi, esp
  00141	e9 00 00 00 00	 jmp	 __RTC_CheckEsp
$L191027:
  00146	8d 4d e0	 lea	 ecx, DWORD PTR _sl$[ebp]
  00149	e9 00 00 00 00	 jmp	 ??1CSingleLock@@QAE@XZ	; CSingleLock::~CSingleLock
__ehhandler$?StopDown@HttpDownCtrl@@QAEXV?$basic_string@DU?$char_traits@D@std@@V?$allocator@D@2@@std@@@Z:
  0014e	b8 00 00 00 00	 mov	 eax, OFFSET FLAT:$T191029
  00153	e9 00 00 00 00	 jmp	 ___CxxFrameHandler
text$x	ENDS
?StopDown@HttpDownCtrl@@QAEXV?$basic_string@DU?$char_traits@D@std@@V?$allocator@D@2@@std@@@Z ENDP ; HttpDownCtrl::StopDown
EXTRN	__imp_??1YL_CHTTPDownFile@@QAE@XZ:NEAR
; Function compile flags: /Odt /RTCsu
;	COMDAT ??_GYL_CHTTPDownFile@@QAEPAXI@Z
_TEXT	SEGMENT
_this$ = -4						; size = 4
___flags$ = 8						; size = 4
??_GYL_CHTTPDownFile@@QAEPAXI@Z PROC NEAR		; YL_CHTTPDownFile::`scalar deleting destructor', COMDAT
; _this$ = ecx
  00000	55		 push	 ebp
  00001	8b ec		 mov	 ebp, esp
  00003	51		 push	 ecx
  00004	56		 push	 esi
  00005	c7 45 fc cc cc
	cc cc		 mov	 DWORD PTR [ebp-4], -858993460 ; ccccccccH
  0000c	89 4d fc	 mov	 DWORD PTR _this$[ebp], ecx
  0000f	8b f4		 mov	 esi, esp
  00011	8b 4d fc	 mov	 ecx, DWORD PTR _this$[ebp]
  00014	ff 15 00 00 00
	00		 call	 DWORD PTR __imp_??1YL_CHTTPDownFile@@QAE@XZ
  0001a	3b f4		 cmp	 esi, esp
  0001c	e8 00 00 00 00	 call	 __RTC_CheckEsp
  00021	8b 45 08	 mov	 eax, DWORD PTR ___flags$[ebp]
  00024	83 e0 01	 and	 eax, 1
  00027	74 0c		 je	 SHORT $L188277
  00029	8b 4d fc	 mov	 ecx, DWORD PTR _this$[ebp]
  0002c	51		 push	 ecx
  0002d	e8 00 00 00 00	 call	 ??3@YAXPAX@Z		; operator delete
  00032	83 c4 04	 add	 esp, 4
$L188277:
  00035	8b 45 fc	 mov	 eax, DWORD PTR _this$[ebp]
  00038	5e		 pop	 esi
  00039	83 c4 04	 add	 esp, 4
  0003c	3b ec		 cmp	 ebp, esp
  0003e	e8 00 00 00 00	 call	 __RTC_CheckEsp
  00043	8b e5		 mov	 esp, ebp
  00045	5d		 pop	 ebp
  00046	c2 04 00	 ret	 4
??_GYL_CHTTPDownFile@@QAEPAXI@Z ENDP			; YL_CHTTPDownFile::`scalar deleting destructor'
_TEXT	ENDS
PUBLIC	??0?$list@PAVIMessageObserver@@V?$allocator@PAVIMessageObserver@@@std@@@std@@QAE@XZ ; std::list<IMessageObserver *,std::allocator<IMessageObserver *> >::list<IMessageObserver *,std::allocator<IMessageObserver *> >
PUBLIC	??1?$list@PAVIMessageObserver@@V?$allocator@PAVIMessageObserver@@@std@@@std@@QAE@XZ ; std::list<IMessageObserver *,std::allocator<IMessageObserver *> >::~list<IMessageObserver *,std::allocator<IMessageObserver *> >
PUBLIC	?begin@?$list@PAVIMessageObserver@@V?$allocator@PAVIMessageObserver@@@std@@@std@@QAE?AViterator@12@XZ ; std::list<IMessageObserver *,std::allocator<IMessageObserver *> >::begin
PUBLIC	?end@?$list@PAVIMessageObserver@@V?$allocator@PAVIMessageObserver@@@std@@@std@@QAE?AViterator@12@XZ ; std::list<IMessageObserver *,std::allocator<IMessageObserver *> >::end
PUBLIC	??9const_iterator@?$list@PAVIMessageObserver@@V?$allocator@PAVIMessageObserver@@@std@@@std@@QBE_NABV012@@Z ; std::list<IMessageObserver *,std::allocator<IMessageObserver *> >::const_iterator::operator!=
PUBLIC	??Diterator@?$list@PAVIMessageObserver@@V?$allocator@PAVIMessageObserver@@@std@@@std@@QBEAAPAVIMessageObserver@@XZ ; std::list<IMessageObserver *,std::allocator<IMessageObserver *> >::iterator::operator*
PUBLIC	??Eiterator@?$list@PAVIMessageObserver@@V?$allocator@PAVIMessageObserver@@@std@@@std@@QAE?AV012@H@Z ; std::list<IMessageObserver *,std::allocator<IMessageObserver *> >::iterator::operator++
PUBLIC	??_R0?AVIHttpDownObserver@@@8			; IHttpDownObserver `RTTI Type Descriptor'
PUBLIC	??_R0?AVIMessageObserver@@@8			; IMessageObserver `RTTI Type Descriptor'
EXTRN	?AfxGetMessageManager@@YAPAVIMessageManager@@XZ:NEAR ; AfxGetMessageManager
EXTRN	___RTDynamicCast:NEAR
xdata$x	SEGMENT
$T191048 DD	0ffffffffH
	DD	FLAT:$L191040
$T191042 DD	019930520H
	DD	01H
	DD	FLAT:$T191048
	DD	2 DUP(00H)
	DD	2 DUP(00H)
xdata$x	ENDS
;	COMDAT ??_R0?AVIHttpDownObserver@@@8
_DATA	SEGMENT
??_R0?AVIHttpDownObserver@@@8 DD FLAT:??_7type_info@@6B@ ; IHttpDownObserver `RTTI Type Descriptor'
	DD	00H
	DB	'.?AVIHttpDownObserver@@', 00H
_DATA	ENDS
;	COMDAT ??_R0?AVIMessageObserver@@@8
_DATA	SEGMENT
??_R0?AVIMessageObserver@@@8 DD FLAT:??_7type_info@@6B@	; IMessageObserver `RTTI Type Descriptor'
	DD	00H
	DB	'.?AVIMessageObserver@@', 00H
	ORG $-31
	DD	FLAT:??_7type_info@@6B@
	DD	00H
	DB	'.?AVIMessageObserver@@', 00H
; Function compile flags: /Odt /RTCsu
_DATA	ENDS
_TEXT	SEGMENT
tv69 = -64						; size = 4
$T191039 = -60						; size = 4
$T191038 = -56						; size = 4
_pOb$188783 = -52					; size = 4
_itOb$188776 = -44					; size = 4
_listOb$ = -32						; size = 12
_this$ = -16						; size = 4
__$EHRec$ = -12						; size = 12
_strID$ = 8						; size = 4
?NotifyDownStart@HttpDownCtrl@@AAEXAAV?$basic_string@DU?$char_traits@D@std@@V?$allocator@D@2@@std@@@Z PROC NEAR ; HttpDownCtrl::NotifyDownStart
; _this$ = ecx

; 104  : {

  00910	55		 push	 ebp
  00911	8b ec		 mov	 ebp, esp
  00913	6a ff		 push	 -1
  00915	68 00 00 00 00	 push	 __ehhandler$?NotifyDownStart@HttpDownCtrl@@AAEXAAV?$basic_string@DU?$char_traits@D@std@@V?$allocator@D@2@@std@@@Z
  0091a	64 a1 00 00 00
	00		 mov	 eax, DWORD PTR fs:__except_list
  00920	50		 push	 eax
  00921	64 89 25 00 00
	00 00		 mov	 DWORD PTR fs:__except_list, esp
  00928	83 ec 34	 sub	 esp, 52			; 00000034H
  0092b	56		 push	 esi
  0092c	57		 push	 edi
  0092d	51		 push	 ecx
  0092e	8d 7d c0	 lea	 edi, DWORD PTR [ebp-64]
  00931	b9 0d 00 00 00	 mov	 ecx, 13			; 0000000dH
  00936	b8 cc cc cc cc	 mov	 eax, -858993460		; ccccccccH
  0093b	f3 ab		 rep stosd
  0093d	59		 pop	 ecx
  0093e	89 4d f0	 mov	 DWORD PTR _this$[ebp], ecx

; 105  : 	list<IMessageObserver*> listOb;

  00941	8d 4d e0	 lea	 ecx, DWORD PTR _listOb$[ebp]
  00944	e8 00 00 00 00	 call	 ??0?$list@PAVIMessageObserver@@V?$allocator@PAVIMessageObserver@@@std@@@std@@QAE@XZ ; std::list<IMessageObserver *,std::allocator<IMessageObserver *> >::list<IMessageObserver *,std::allocator<IMessageObserver *> >
  00949	c7 45 fc 00 00
	00 00		 mov	 DWORD PTR __$EHRec$[ebp+8], 0

; 106  : 	AfxGetMessageManager()->QueryObservers( ID_MESSAGE_HTTP_DOWN,listOb);

  00950	e8 00 00 00 00	 call	 ?AfxGetMessageManager@@YAPAVIMessageManager@@XZ ; AfxGetMessageManager
  00955	89 45 c0	 mov	 DWORD PTR tv69[ebp], eax
  00958	8b f4		 mov	 esi, esp
  0095a	8d 45 e0	 lea	 eax, DWORD PTR _listOb$[ebp]
  0095d	50		 push	 eax
  0095e	68 00 00 00 00	 push	 OFFSET FLAT:_ID_MESSAGE_HTTP_DOWN
  00963	8b 4d c0	 mov	 ecx, DWORD PTR tv69[ebp]
  00966	8b 11		 mov	 edx, DWORD PTR [ecx]
  00968	8b 4d c0	 mov	 ecx, DWORD PTR tv69[ebp]
  0096b	ff 52 0c	 call	 DWORD PTR [edx+12]
  0096e	3b f4		 cmp	 esi, esp
  00970	e8 00 00 00 00	 call	 __RTC_CheckEsp

; 107  : 
; 108  : 	for( list<IMessageObserver*>::iterator itOb = listOb.begin();itOb != listOb.end();itOb++ )

  00975	8d 45 d4	 lea	 eax, DWORD PTR _itOb$188776[ebp]
  00978	50		 push	 eax
  00979	8d 4d e0	 lea	 ecx, DWORD PTR _listOb$[ebp]
  0097c	e8 00 00 00 00	 call	 ?begin@?$list@PAVIMessageObserver@@V?$allocator@PAVIMessageObserver@@@std@@@std@@QAE?AViterator@12@XZ ; std::list<IMessageObserver *,std::allocator<IMessageObserver *> >::begin
  00981	eb 0e		 jmp	 SHORT $L188780
$L188781:
  00983	6a 00		 push	 0
  00985	8d 4d c8	 lea	 ecx, DWORD PTR $T191038[ebp]
  00988	51		 push	 ecx
  00989	8d 4d d4	 lea	 ecx, DWORD PTR _itOb$188776[ebp]
  0098c	e8 00 00 00 00	 call	 ??Eiterator@?$list@PAVIMessageObserver@@V?$allocator@PAVIMessageObserver@@@std@@@std@@QAE?AV012@H@Z ; std::list<IMessageObserver *,std::allocator<IMessageObserver *> >::iterator::operator++
$L188780:
  00991	8d 55 c4	 lea	 edx, DWORD PTR $T191039[ebp]
  00994	52		 push	 edx
  00995	8d 4d e0	 lea	 ecx, DWORD PTR _listOb$[ebp]
  00998	e8 00 00 00 00	 call	 ?end@?$list@PAVIMessageObserver@@V?$allocator@PAVIMessageObserver@@@std@@@std@@QAE?AViterator@12@XZ ; std::list<IMessageObserver *,std::allocator<IMessageObserver *> >::end
  0099d	50		 push	 eax
  0099e	8d 4d d4	 lea	 ecx, DWORD PTR _itOb$188776[ebp]
  009a1	e8 00 00 00 00	 call	 ??9const_iterator@?$list@PAVIMessageObserver@@V?$allocator@PAVIMessageObserver@@@std@@@std@@QBE_NABV012@@Z ; std::list<IMessageObserver *,std::allocator<IMessageObserver *> >::const_iterator::operator!=
  009a6	0f b6 c0	 movzx	 eax, al
  009a9	85 c0		 test	 eax, eax
  009ab	74 3e		 je	 SHORT $L188782

; 109  : 	{
; 110  : 		IHttpDownObserver* pOb = dynamic_cast<IHttpDownObserver*>(*itOb);

  009ad	6a 00		 push	 0
  009af	68 00 00 00 00	 push	 OFFSET FLAT:??_R0?AVIHttpDownObserver@@@8
  009b4	68 00 00 00 00	 push	 OFFSET FLAT:??_R0?AVIMessageObserver@@@8
  009b9	6a 00		 push	 0
  009bb	8d 4d d4	 lea	 ecx, DWORD PTR _itOb$188776[ebp]
  009be	e8 00 00 00 00	 call	 ??Diterator@?$list@PAVIMessageObserver@@V?$allocator@PAVIMessageObserver@@@std@@@std@@QBEAAPAVIMessageObserver@@XZ ; std::list<IMessageObserver *,std::allocator<IMessageObserver *> >::iterator::operator*
  009c3	8b 08		 mov	 ecx, DWORD PTR [eax]
  009c5	51		 push	 ecx
  009c6	e8 00 00 00 00	 call	 ___RTDynamicCast
  009cb	83 c4 14	 add	 esp, 20			; 00000014H
  009ce	89 45 cc	 mov	 DWORD PTR _pOb$188783[ebp], eax

; 111  : 		pOb->HttpDownOb_DownStart( strID );

  009d1	8b f4		 mov	 esi, esp
  009d3	8b 55 08	 mov	 edx, DWORD PTR _strID$[ebp]
  009d6	52		 push	 edx
  009d7	8b 45 cc	 mov	 eax, DWORD PTR _pOb$188783[ebp]
  009da	8b 10		 mov	 edx, DWORD PTR [eax]
  009dc	8b 4d cc	 mov	 ecx, DWORD PTR _pOb$188783[ebp]
  009df	ff 52 04	 call	 DWORD PTR [edx+4]
  009e2	3b f4		 cmp	 esi, esp
  009e4	e8 00 00 00 00	 call	 __RTC_CheckEsp

; 112  : 	}

  009e9	eb 98		 jmp	 SHORT $L188781
$L188782:

; 113  : }

  009eb	c7 45 fc ff ff
	ff ff		 mov	 DWORD PTR __$EHRec$[ebp+8], -1
  009f2	8d 4d e0	 lea	 ecx, DWORD PTR _listOb$[ebp]
  009f5	e8 00 00 00 00	 call	 ??1?$list@PAVIMessageObserver@@V?$allocator@PAVIMessageObserver@@@std@@@std@@QAE@XZ ; std::list<IMessageObserver *,std::allocator<IMessageObserver *> >::~list<IMessageObserver *,std::allocator<IMessageObserver *> >
  009fa	52		 push	 edx
  009fb	8b cd		 mov	 ecx, ebp
  009fd	50		 push	 eax
  009fe	8d 15 00 00 00
	00		 lea	 edx, DWORD PTR $L191047
  00a04	e8 00 00 00 00	 call	 @_RTC_CheckStackVars@8
  00a09	58		 pop	 eax
  00a0a	5a		 pop	 edx
  00a0b	8b 4d f4	 mov	 ecx, DWORD PTR __$EHRec$[ebp]
  00a0e	64 89 0d 00 00
	00 00		 mov	 DWORD PTR fs:__except_list, ecx
  00a15	5f		 pop	 edi
  00a16	5e		 pop	 esi
  00a17	83 c4 40	 add	 esp, 64			; 00000040H
  00a1a	3b ec		 cmp	 ebp, esp
  00a1c	e8 00 00 00 00	 call	 __RTC_CheckEsp
  00a21	8b e5		 mov	 esp, ebp
  00a23	5d		 pop	 ebp
  00a24	c2 04 00	 ret	 4
$L191047:
  00a27	02 00 00 00	 DD	 2
  00a2b	00 00 00 00	 DD	 $L191046
$L191046:
  00a2f	e0 ff ff ff	 DD	 -32			; ffffffe0H
  00a33	0c 00 00 00	 DD	 12			; 0000000cH
  00a37	00 00 00 00	 DD	 $L191043
  00a3b	d4 ff ff ff	 DD	 -44			; ffffffd4H
  00a3f	04 00 00 00	 DD	 4
  00a43	00 00 00 00	 DD	 $L191044
$L191044:
  00a47	69		 DB	 105			; 00000069H
  00a48	74		 DB	 116			; 00000074H
  00a49	4f		 DB	 79			; 0000004fH
  00a4a	62		 DB	 98			; 00000062H
  00a4b	00		 DB	 0
$L191043:
  00a4c	6c		 DB	 108			; 0000006cH
  00a4d	69		 DB	 105			; 00000069H
  00a4e	73		 DB	 115			; 00000073H
  00a4f	74		 DB	 116			; 00000074H
  00a50	4f		 DB	 79			; 0000004fH
  00a51	62		 DB	 98			; 00000062H
  00a52	00		 DB	 0
_TEXT	ENDS
text$x	SEGMENT
$L191040:
  00158	8d 4d e0	 lea	 ecx, DWORD PTR _listOb$[ebp]
  0015b	e9 00 00 00 00	 jmp	 ??1?$list@PAVIMessageObserver@@V?$allocator@PAVIMessageObserver@@@std@@@std@@QAE@XZ ; std::list<IMessageObserver *,std::allocator<IMessageObserver *> >::~list<IMessageObserver *,std::allocator<IMessageObserver *> >
__ehhandler$?NotifyDownStart@HttpDownCtrl@@AAEXAAV?$basic_string@DU?$char_traits@D@std@@V?$allocator@D@2@@std@@@Z:
  00160	b8 00 00 00 00	 mov	 eax, OFFSET FLAT:$T191042
  00165	e9 00 00 00 00	 jmp	 ___CxxFrameHandler
text$x	ENDS
?NotifyDownStart@HttpDownCtrl@@AAEXAAV?$basic_string@DU?$char_traits@D@std@@V?$allocator@D@2@@std@@@Z ENDP ; HttpDownCtrl::NotifyDownStart
PUBLIC	?NotifyDownFinish@HttpDownCtrl@@AAEXAAV?$basic_string@DU?$char_traits@D@std@@V?$allocator@D@2@@std@@0@Z ; HttpDownCtrl::NotifyDownFinish
xdata$x	SEGMENT
$T191060 DD	0ffffffffH
	DD	FLAT:$L191052
$T191054 DD	019930520H
	DD	01H
	DD	FLAT:$T191060
	DD	2 DUP(00H)
	DD	2 DUP(00H)
; Function compile flags: /Odt /RTCsu
xdata$x	ENDS
_TEXT	SEGMENT
tv69 = -64						; size = 4
$T191051 = -60						; size = 4
$T191050 = -56						; size = 4
_pOb$188801 = -52					; size = 4
_itOb$188794 = -44					; size = 4
_listOb$ = -32						; size = 12
_this$ = -16						; size = 4
__$EHRec$ = -12						; size = 12
_strID$ = 8						; size = 4
_strSwfPath$ = 12					; size = 4
?NotifyDownFinish@HttpDownCtrl@@AAEXAAV?$basic_string@DU?$char_traits@D@std@@V?$allocator@D@2@@std@@0@Z PROC NEAR ; HttpDownCtrl::NotifyDownFinish
; _this$ = ecx

; 116  : {

  00a60	55		 push	 ebp
  00a61	8b ec		 mov	 ebp, esp
  00a63	6a ff		 push	 -1
  00a65	68 00 00 00 00	 push	 __ehhandler$?NotifyDownFinish@HttpDownCtrl@@AAEXAAV?$basic_string@DU?$char_traits@D@std@@V?$allocator@D@2@@std@@0@Z
  00a6a	64 a1 00 00 00
	00		 mov	 eax, DWORD PTR fs:__except_list
  00a70	50		 push	 eax
  00a71	64 89 25 00 00
	00 00		 mov	 DWORD PTR fs:__except_list, esp
  00a78	83 ec 34	 sub	 esp, 52			; 00000034H
  00a7b	56		 push	 esi
  00a7c	57		 push	 edi
  00a7d	51		 push	 ecx
  00a7e	8d 7d c0	 lea	 edi, DWORD PTR [ebp-64]
  00a81	b9 0d 00 00 00	 mov	 ecx, 13			; 0000000dH
  00a86	b8 cc cc cc cc	 mov	 eax, -858993460		; ccccccccH
  00a8b	f3 ab		 rep stosd
  00a8d	59		 pop	 ecx
  00a8e	89 4d f0	 mov	 DWORD PTR _this$[ebp], ecx

; 117  : 	list<IMessageObserver*> listOb;

  00a91	8d 4d e0	 lea	 ecx, DWORD PTR _listOb$[ebp]
  00a94	e8 00 00 00 00	 call	 ??0?$list@PAVIMessageObserver@@V?$allocator@PAVIMessageObserver@@@std@@@std@@QAE@XZ ; std::list<IMessageObserver *,std::allocator<IMessageObserver *> >::list<IMessageObserver *,std::allocator<IMessageObserver *> >
  00a99	c7 45 fc 00 00
	00 00		 mov	 DWORD PTR __$EHRec$[ebp+8], 0

; 118  : 	AfxGetMessageManager()->QueryObservers( ID_MESSAGE_HTTP_DOWN,listOb);

  00aa0	e8 00 00 00 00	 call	 ?AfxGetMessageManager@@YAPAVIMessageManager@@XZ ; AfxGetMessageManager
  00aa5	89 45 c0	 mov	 DWORD PTR tv69[ebp], eax
  00aa8	8b f4		 mov	 esi, esp
  00aaa	8d 45 e0	 lea	 eax, DWORD PTR _listOb$[ebp]
  00aad	50		 push	 eax
  00aae	68 00 00 00 00	 push	 OFFSET FLAT:_ID_MESSAGE_HTTP_DOWN
  00ab3	8b 4d c0	 mov	 ecx, DWORD PTR tv69[ebp]
  00ab6	8b 11		 mov	 edx, DWORD PTR [ecx]
  00ab8	8b 4d c0	 mov	 ecx, DWORD PTR tv69[ebp]
  00abb	ff 52 0c	 call	 DWORD PTR [edx+12]
  00abe	3b f4		 cmp	 esi, esp
  00ac0	e8 00 00 00 00	 call	 __RTC_CheckEsp

; 119  : 
; 120  : 	for( list<IMessageObserver*>::iterator itOb = listOb.begin();itOb != listOb.end();itOb++ )

  00ac5	8d 45 d4	 lea	 eax, DWORD PTR _itOb$188794[ebp]
  00ac8	50		 push	 eax
  00ac9	8d 4d e0	 lea	 ecx, DWORD PTR _listOb$[ebp]
  00acc	e8 00 00 00 00	 call	 ?begin@?$list@PAVIMessageObserver@@V?$allocator@PAVIMessageObserver@@@std@@@std@@QAE?AViterator@12@XZ ; std::list<IMessageObserver *,std::allocator<IMessageObserver *> >::begin
  00ad1	eb 0e		 jmp	 SHORT $L188798
$L188799:
  00ad3	6a 00		 push	 0
  00ad5	8d 4d c8	 lea	 ecx, DWORD PTR $T191050[ebp]
  00ad8	51		 push	 ecx
  00ad9	8d 4d d4	 lea	 ecx, DWORD PTR _itOb$188794[ebp]
  00adc	e8 00 00 00 00	 call	 ??Eiterator@?$list@PAVIMessageObserver@@V?$allocator@PAVIMessageObserver@@@std@@@std@@QAE?AV012@H@Z ; std::list<IMessageObserver *,std::allocator<IMessageObserver *> >::iterator::operator++
$L188798:
  00ae1	8d 55 c4	 lea	 edx, DWORD PTR $T191051[ebp]
  00ae4	52		 push	 edx
  00ae5	8d 4d e0	 lea	 ecx, DWORD PTR _listOb$[ebp]
  00ae8	e8 00 00 00 00	 call	 ?end@?$list@PAVIMessageObserver@@V?$allocator@PAVIMessageObserver@@@std@@@std@@QAE?AViterator@12@XZ ; std::list<IMessageObserver *,std::allocator<IMessageObserver *> >::end
  00aed	50		 push	 eax
  00aee	8d 4d d4	 lea	 ecx, DWORD PTR _itOb$188794[ebp]
  00af1	e8 00 00 00 00	 call	 ??9const_iterator@?$list@PAVIMessageObserver@@V?$allocator@PAVIMessageObserver@@@std@@@std@@QBE_NABV012@@Z ; std::list<IMessageObserver *,std::allocator<IMessageObserver *> >::const_iterator::operator!=
  00af6	0f b6 c0	 movzx	 eax, al
  00af9	85 c0		 test	 eax, eax
  00afb	74 42		 je	 SHORT $L188800

; 121  : 	{
; 122  : 		IHttpDownObserver* pOb = dynamic_cast<IHttpDownObserver*>(*itOb);

  00afd	6a 00		 push	 0
  00aff	68 00 00 00 00	 push	 OFFSET FLAT:??_R0?AVIHttpDownObserver@@@8
  00b04	68 00 00 00 00	 push	 OFFSET FLAT:??_R0?AVIMessageObserver@@@8
  00b09	6a 00		 push	 0
  00b0b	8d 4d d4	 lea	 ecx, DWORD PTR _itOb$188794[ebp]
  00b0e	e8 00 00 00 00	 call	 ??Diterator@?$list@PAVIMessageObserver@@V?$allocator@PAVIMessageObserver@@@std@@@std@@QBEAAPAVIMessageObserver@@XZ ; std::list<IMessageObserver *,std::allocator<IMessageObserver *> >::iterator::operator*
  00b13	8b 08		 mov	 ecx, DWORD PTR [eax]
  00b15	51		 push	 ecx
  00b16	e8 00 00 00 00	 call	 ___RTDynamicCast
  00b1b	83 c4 14	 add	 esp, 20			; 00000014H
  00b1e	89 45 cc	 mov	 DWORD PTR _pOb$188801[ebp], eax

; 123  : 		pOb->HttpDownOb_DownFinish( strID, strSwfPath );

  00b21	8b f4		 mov	 esi, esp
  00b23	8b 55 0c	 mov	 edx, DWORD PTR _strSwfPath$[ebp]
  00b26	52		 push	 edx
  00b27	8b 45 08	 mov	 eax, DWORD PTR _strID$[ebp]
  00b2a	50		 push	 eax
  00b2b	8b 4d cc	 mov	 ecx, DWORD PTR _pOb$188801[ebp]
  00b2e	8b 11		 mov	 edx, DWORD PTR [ecx]
  00b30	8b 4d cc	 mov	 ecx, DWORD PTR _pOb$188801[ebp]
  00b33	ff 52 08	 call	 DWORD PTR [edx+8]
  00b36	3b f4		 cmp	 esi, esp
  00b38	e8 00 00 00 00	 call	 __RTC_CheckEsp

; 124  : 	}

  00b3d	eb 94		 jmp	 SHORT $L188799
$L188800:

; 125  : }

  00b3f	c7 45 fc ff ff
	ff ff		 mov	 DWORD PTR __$EHRec$[ebp+8], -1
  00b46	8d 4d e0	 lea	 ecx, DWORD PTR _listOb$[ebp]
  00b49	e8 00 00 00 00	 call	 ??1?$list@PAVIMessageObserver@@V?$allocator@PAVIMessageObserver@@@std@@@std@@QAE@XZ ; std::list<IMessageObserver *,std::allocator<IMessageObserver *> >::~list<IMessageObserver *,std::allocator<IMessageObserver *> >
  00b4e	52		 push	 edx
  00b4f	8b cd		 mov	 ecx, ebp
  00b51	50		 push	 eax
  00b52	8d 15 00 00 00
	00		 lea	 edx, DWORD PTR $L191059
  00b58	e8 00 00 00 00	 call	 @_RTC_CheckStackVars@8
  00b5d	58		 pop	 eax
  00b5e	5a		 pop	 edx
  00b5f	8b 4d f4	 mov	 ecx, DWORD PTR __$EHRec$[ebp]
  00b62	64 89 0d 00 00
	00 00		 mov	 DWORD PTR fs:__except_list, ecx
  00b69	5f		 pop	 edi
  00b6a	5e		 pop	 esi
  00b6b	83 c4 40	 add	 esp, 64			; 00000040H
  00b6e	3b ec		 cmp	 ebp, esp
  00b70	e8 00 00 00 00	 call	 __RTC_CheckEsp
  00b75	8b e5		 mov	 esp, ebp
  00b77	5d		 pop	 ebp
  00b78	c2 08 00	 ret	 8
$L191059:
  00b7b	02 00 00 00	 DD	 2
  00b7f	00 00 00 00	 DD	 $L191058
$L191058:
  00b83	e0 ff ff ff	 DD	 -32			; ffffffe0H
  00b87	0c 00 00 00	 DD	 12			; 0000000cH
  00b8b	00 00 00 00	 DD	 $L191055
  00b8f	d4 ff ff ff	 DD	 -44			; ffffffd4H
  00b93	04 00 00 00	 DD	 4
  00b97	00 00 00 00	 DD	 $L191056
$L191056:
  00b9b	69		 DB	 105			; 00000069H
  00b9c	74		 DB	 116			; 00000074H
  00b9d	4f		 DB	 79			; 0000004fH
  00b9e	62		 DB	 98			; 00000062H
  00b9f	00		 DB	 0
$L191055:
  00ba0	6c		 DB	 108			; 0000006cH
  00ba1	69		 DB	 105			; 00000069H
  00ba2	73		 DB	 115			; 00000073H
  00ba3	74		 DB	 116			; 00000074H
  00ba4	4f		 DB	 79			; 0000004fH
  00ba5	62		 DB	 98			; 00000062H
  00ba6	00		 DB	 0
_TEXT	ENDS
text$x	SEGMENT
$L191052:
  0016a	8d 4d e0	 lea	 ecx, DWORD PTR _listOb$[ebp]
  0016d	e9 00 00 00 00	 jmp	 ??1?$list@PAVIMessageObserver@@V?$allocator@PAVIMessageObserver@@@std@@@std@@QAE@XZ ; std::list<IMessageObserver *,std::allocator<IMessageObserver *> >::~list<IMessageObserver *,std::allocator<IMessageObserver *> >
__ehhandler$?NotifyDownFinish@HttpDownCtrl@@AAEXAAV?$basic_string@DU?$char_traits@D@std@@V?$allocator@D@2@@std@@0@Z:
  00172	b8 00 00 00 00	 mov	 eax, OFFSET FLAT:$T191054
  00177	e9 00 00 00 00	 jmp	 ___CxxFrameHandler
text$x	ENDS
?NotifyDownFinish@HttpDownCtrl@@AAEXAAV?$basic_string@DU?$char_traits@D@std@@V?$allocator@D@2@@std@@0@Z ENDP ; HttpDownCtrl::NotifyDownFinish
xdata$x	SEGMENT
$T191072 DD	0ffffffffH
	DD	FLAT:$L191064
$T191066 DD	019930520H
	DD	01H
	DD	FLAT:$T191072
	DD	2 DUP(00H)
	DD	2 DUP(00H)
; Function compile flags: /Odt /RTCsu
xdata$x	ENDS
_TEXT	SEGMENT
tv69 = -64						; size = 4
$T191063 = -60						; size = 4
$T191062 = -56						; size = 4
_pOb$188818 = -52					; size = 4
_itOb$188811 = -44					; size = 4
_listOb$ = -32						; size = 12
_this$ = -16						; size = 4
__$EHRec$ = -12						; size = 12
_strID$ = 8						; size = 4
_r$ = 12						; size = 4
?NotifyDownFailed@HttpDownCtrl@@AAEXAAV?$basic_string@DU?$char_traits@D@std@@V?$allocator@D@2@@std@@W4HTTP_DOWN_FAILED_REASON@@@Z PROC NEAR ; HttpDownCtrl::NotifyDownFailed
; _this$ = ecx

; 128  : {

  00bb0	55		 push	 ebp
  00bb1	8b ec		 mov	 ebp, esp
  00bb3	6a ff		 push	 -1
  00bb5	68 00 00 00 00	 push	 __ehhandler$?NotifyDownFailed@HttpDownCtrl@@AAEXAAV?$basic_string@DU?$char_traits@D@std@@V?$allocator@D@2@@std@@W4HTTP_DOWN_FAILED_REASON@@@Z
  00bba	64 a1 00 00 00
	00		 mov	 eax, DWORD PTR fs:__except_list
  00bc0	50		 push	 eax
  00bc1	64 89 25 00 00
	00 00		 mov	 DWORD PTR fs:__except_list, esp
  00bc8	83 ec 34	 sub	 esp, 52			; 00000034H
  00bcb	56		 push	 esi
  00bcc	57		 push	 edi
  00bcd	51		 push	 ecx
  00bce	8d 7d c0	 lea	 edi, DWORD PTR [ebp-64]
  00bd1	b9 0d 00 00 00	 mov	 ecx, 13			; 0000000dH
  00bd6	b8 cc cc cc cc	 mov	 eax, -858993460		; ccccccccH
  00bdb	f3 ab		 rep stosd
  00bdd	59		 pop	 ecx
  00bde	89 4d f0	 mov	 DWORD PTR _this$[ebp], ecx

; 129  : 	list<IMessageObserver*> listOb;

  00be1	8d 4d e0	 lea	 ecx, DWORD PTR _listOb$[ebp]
  00be4	e8 00 00 00 00	 call	 ??0?$list@PAVIMessageObserver@@V?$allocator@PAVIMessageObserver@@@std@@@std@@QAE@XZ ; std::list<IMessageObserver *,std::allocator<IMessageObserver *> >::list<IMessageObserver *,std::allocator<IMessageObserver *> >
  00be9	c7 45 fc 00 00
	00 00		 mov	 DWORD PTR __$EHRec$[ebp+8], 0

; 130  : 	AfxGetMessageManager()->QueryObservers( ID_MESSAGE_HTTP_DOWN,listOb);

  00bf0	e8 00 00 00 00	 call	 ?AfxGetMessageManager@@YAPAVIMessageManager@@XZ ; AfxGetMessageManager
  00bf5	89 45 c0	 mov	 DWORD PTR tv69[ebp], eax
  00bf8	8b f4		 mov	 esi, esp
  00bfa	8d 45 e0	 lea	 eax, DWORD PTR _listOb$[ebp]
  00bfd	50		 push	 eax
  00bfe	68 00 00 00 00	 push	 OFFSET FLAT:_ID_MESSAGE_HTTP_DOWN
  00c03	8b 4d c0	 mov	 ecx, DWORD PTR tv69[ebp]
  00c06	8b 11		 mov	 edx, DWORD PTR [ecx]
  00c08	8b 4d c0	 mov	 ecx, DWORD PTR tv69[ebp]
  00c0b	ff 52 0c	 call	 DWORD PTR [edx+12]
  00c0e	3b f4		 cmp	 esi, esp
  00c10	e8 00 00 00 00	 call	 __RTC_CheckEsp

; 131  : 
; 132  : 	for( list<IMessageObserver*>::iterator itOb = listOb.begin();itOb != listOb.end();itOb++ )

  00c15	8d 45 d4	 lea	 eax, DWORD PTR _itOb$188811[ebp]
  00c18	50		 push	 eax
  00c19	8d 4d e0	 lea	 ecx, DWORD PTR _listOb$[ebp]
  00c1c	e8 00 00 00 00	 call	 ?begin@?$list@PAVIMessageObserver@@V?$allocator@PAVIMessageObserver@@@std@@@std@@QAE?AViterator@12@XZ ; std::list<IMessageObserver *,std::allocator<IMessageObserver *> >::begin
  00c21	eb 0e		 jmp	 SHORT $L188815
$L188816:
  00c23	6a 00		 push	 0
  00c25	8d 4d c8	 lea	 ecx, DWORD PTR $T191062[ebp]
  00c28	51		 push	 ecx
  00c29	8d 4d d4	 lea	 ecx, DWORD PTR _itOb$188811[ebp]
  00c2c	e8 00 00 00 00	 call	 ??Eiterator@?$list@PAVIMessageObserver@@V?$allocator@PAVIMessageObserver@@@std@@@std@@QAE?AV012@H@Z ; std::list<IMessageObserver *,std::allocator<IMessageObserver *> >::iterator::operator++
$L188815:
  00c31	8d 55 c4	 lea	 edx, DWORD PTR $T191063[ebp]
  00c34	52		 push	 edx
  00c35	8d 4d e0	 lea	 ecx, DWORD PTR _listOb$[ebp]
  00c38	e8 00 00 00 00	 call	 ?end@?$list@PAVIMessageObserver@@V?$allocator@PAVIMessageObserver@@@std@@@std@@QAE?AViterator@12@XZ ; std::list<IMessageObserver *,std::allocator<IMessageObserver *> >::end
  00c3d	50		 push	 eax
  00c3e	8d 4d d4	 lea	 ecx, DWORD PTR _itOb$188811[ebp]
  00c41	e8 00 00 00 00	 call	 ??9const_iterator@?$list@PAVIMessageObserver@@V?$allocator@PAVIMessageObserver@@@std@@@std@@QBE_NABV012@@Z ; std::list<IMessageObserver *,std::allocator<IMessageObserver *> >::const_iterator::operator!=
  00c46	0f b6 c0	 movzx	 eax, al
  00c49	85 c0		 test	 eax, eax
  00c4b	74 42		 je	 SHORT $L188817

; 133  : 	{
; 134  : 		IHttpDownObserver* pOb = dynamic_cast<IHttpDownObserver*>(*itOb);

  00c4d	6a 00		 push	 0
  00c4f	68 00 00 00 00	 push	 OFFSET FLAT:??_R0?AVIHttpDownObserver@@@8
  00c54	68 00 00 00 00	 push	 OFFSET FLAT:??_R0?AVIMessageObserver@@@8
  00c59	6a 00		 push	 0
  00c5b	8d 4d d4	 lea	 ecx, DWORD PTR _itOb$188811[ebp]
  00c5e	e8 00 00 00 00	 call	 ??Diterator@?$list@PAVIMessageObserver@@V?$allocator@PAVIMessageObserver@@@std@@@std@@QBEAAPAVIMessageObserver@@XZ ; std::list<IMessageObserver *,std::allocator<IMessageObserver *> >::iterator::operator*
  00c63	8b 08		 mov	 ecx, DWORD PTR [eax]
  00c65	51		 push	 ecx
  00c66	e8 00 00 00 00	 call	 ___RTDynamicCast
  00c6b	83 c4 14	 add	 esp, 20			; 00000014H
  00c6e	89 45 cc	 mov	 DWORD PTR _pOb$188818[ebp], eax

; 135  : 		pOb->HttpDownOb_DownFailed( strID, r );

  00c71	8b f4		 mov	 esi, esp
  00c73	8b 55 0c	 mov	 edx, DWORD PTR _r$[ebp]
  00c76	52		 push	 edx
  00c77	8b 45 08	 mov	 eax, DWORD PTR _strID$[ebp]
  00c7a	50		 push	 eax
  00c7b	8b 4d cc	 mov	 ecx, DWORD PTR _pOb$188818[ebp]
  00c7e	8b 11		 mov	 edx, DWORD PTR [ecx]
  00c80	8b 4d cc	 mov	 ecx, DWORD PTR _pOb$188818[ebp]
  00c83	ff 52 0c	 call	 DWORD PTR [edx+12]
  00c86	3b f4		 cmp	 esi, esp
  00c88	e8 00 00 00 00	 call	 __RTC_CheckEsp

; 136  : 	}

  00c8d	eb 94		 jmp	 SHORT $L188816
$L188817:

; 137  : }

  00c8f	c7 45 fc ff ff
	ff ff		 mov	 DWORD PTR __$EHRec$[ebp+8], -1
  00c96	8d 4d e0	 lea	 ecx, DWORD PTR _listOb$[ebp]
  00c99	e8 00 00 00 00	 call	 ??1?$list@PAVIMessageObserver@@V?$allocator@PAVIMessageObserver@@@std@@@std@@QAE@XZ ; std::list<IMessageObserver *,std::allocator<IMessageObserver *> >::~list<IMessageObserver *,std::allocator<IMessageObserver *> >
  00c9e	52		 push	 edx
  00c9f	8b cd		 mov	 ecx, ebp
  00ca1	50		 push	 eax
  00ca2	8d 15 00 00 00
	00		 lea	 edx, DWORD PTR $L191071
  00ca8	e8 00 00 00 00	 call	 @_RTC_CheckStackVars@8
  00cad	58		 pop	 eax
  00cae	5a		 pop	 edx
  00caf	8b 4d f4	 mov	 ecx, DWORD PTR __$EHRec$[ebp]
  00cb2	64 89 0d 00 00
	00 00		 mov	 DWORD PTR fs:__except_list, ecx
  00cb9	5f		 pop	 edi
  00cba	5e		 pop	 esi
  00cbb	83 c4 40	 add	 esp, 64			; 00000040H
  00cbe	3b ec		 cmp	 ebp, esp
  00cc0	e8 00 00 00 00	 call	 __RTC_CheckEsp
  00cc5	8b e5		 mov	 esp, ebp
  00cc7	5d		 pop	 ebp
  00cc8	c2 08 00	 ret	 8
$L191071:
  00ccb	02 00 00 00	 DD	 2
  00ccf	00 00 00 00	 DD	 $L191070
$L191070:
  00cd3	e0 ff ff ff	 DD	 -32			; ffffffe0H
  00cd7	0c 00 00 00	 DD	 12			; 0000000cH
  00cdb	00 00 00 00	 DD	 $L191067
  00cdf	d4 ff ff ff	 DD	 -44			; ffffffd4H
  00ce3	04 00 00 00	 DD	 4
  00ce7	00 00 00 00	 DD	 $L191068
$L191068:
  00ceb	69		 DB	 105			; 00000069H
  00cec	74		 DB	 116			; 00000074H
  00ced	4f		 DB	 79			; 0000004fH
  00cee	62		 DB	 98			; 00000062H
  00cef	00		 DB	 0
$L191067:
  00cf0	6c		 DB	 108			; 0000006cH
  00cf1	69		 DB	 105			; 00000069H
  00cf2	73		 DB	 115			; 00000073H
  00cf3	74		 DB	 116			; 00000074H
  00cf4	4f		 DB	 79			; 0000004fH
  00cf5	62		 DB	 98			; 00000062H
  00cf6	00		 DB	 0
_TEXT	ENDS
text$x	SEGMENT
$L191064:
  0017c	8d 4d e0	 lea	 ecx, DWORD PTR _listOb$[ebp]
  0017f	e9 00 00 00 00	 jmp	 ??1?$list@PAVIMessageObserver@@V?$allocator@PAVIMessageObserver@@@std@@@std@@QAE@XZ ; std::list<IMessageObserver *,std::allocator<IMessageObserver *> >::~list<IMessageObserver *,std::allocator<IMessageObserver *> >
__ehhandler$?NotifyDownFailed@HttpDownCtrl@@AAEXAAV?$basic_string@DU?$char_traits@D@std@@V?$allocator@D@2@@std@@W4HTTP_DOWN_FAILED_REASON@@@Z:
  00184	b8 00 00 00 00	 mov	 eax, OFFSET FLAT:$T191066
  00189	e9 00 00 00 00	 jmp	 ___CxxFrameHandler
text$x	ENDS
?NotifyDownFailed@HttpDownCtrl@@AAEXAAV?$basic_string@DU?$char_traits@D@std@@V?$allocator@D@2@@std@@W4HTTP_DOWN_FAILED_REASON@@@Z ENDP ; HttpDownCtrl::NotifyDownFailed
PUBLIC	?NotifyDownProgress@HttpDownCtrl@@AAEXAAV?$basic_string@DU?$char_traits@D@std@@V?$allocator@D@2@@std@@NII@Z ; HttpDownCtrl::NotifyDownProgress
EXTRN	__fltused:NEAR
xdata$x	SEGMENT
$T191085 DD	0ffffffffH
	DD	FLAT:$L191076
$T191078 DD	019930520H
	DD	01H
	DD	FLAT:$T191085
	DD	2 DUP(00H)
	DD	2 DUP(00H)
; Function compile flags: /Odt /RTCsu
xdata$x	ENDS
_TEXT	SEGMENT
tv69 = -64						; size = 4
$T191075 = -60						; size = 4
$T191074 = -56						; size = 4
_pOb$188837 = -52					; size = 4
_itOb$188830 = -44					; size = 4
_listOb$ = -32						; size = 12
_this$ = -16						; size = 4
__$EHRec$ = -12						; size = 12
_strID$ = 8						; size = 4
_dPercent$ = 12						; size = 8
_unFileSize$ = 20					; size = 4
_unSpeed$ = 24						; size = 4
?NotifyDownProgress@HttpDownCtrl@@AAEXAAV?$basic_string@DU?$char_traits@D@std@@V?$allocator@D@2@@std@@NII@Z PROC NEAR ; HttpDownCtrl::NotifyDownProgress
; _this$ = ecx

; 141  : {

  00d00	55		 push	 ebp
  00d01	8b ec		 mov	 ebp, esp
  00d03	6a ff		 push	 -1
  00d05	68 00 00 00 00	 push	 __ehhandler$?NotifyDownProgress@HttpDownCtrl@@AAEXAAV?$basic_string@DU?$char_traits@D@std@@V?$allocator@D@2@@std@@NII@Z
  00d0a	64 a1 00 00 00
	00		 mov	 eax, DWORD PTR fs:__except_list
  00d10	50		 push	 eax
  00d11	64 89 25 00 00
	00 00		 mov	 DWORD PTR fs:__except_list, esp
  00d18	83 ec 34	 sub	 esp, 52			; 00000034H
  00d1b	56		 push	 esi
  00d1c	57		 push	 edi
  00d1d	51		 push	 ecx
  00d1e	8d 7d c0	 lea	 edi, DWORD PTR [ebp-64]
  00d21	b9 0d 00 00 00	 mov	 ecx, 13			; 0000000dH
  00d26	b8 cc cc cc cc	 mov	 eax, -858993460		; ccccccccH
  00d2b	f3 ab		 rep stosd
  00d2d	59		 pop	 ecx
  00d2e	89 4d f0	 mov	 DWORD PTR _this$[ebp], ecx

; 142  : 	list<IMessageObserver*> listOb;

  00d31	8d 4d e0	 lea	 ecx, DWORD PTR _listOb$[ebp]
  00d34	e8 00 00 00 00	 call	 ??0?$list@PAVIMessageObserver@@V?$allocator@PAVIMessageObserver@@@std@@@std@@QAE@XZ ; std::list<IMessageObserver *,std::allocator<IMessageObserver *> >::list<IMessageObserver *,std::allocator<IMessageObserver *> >
  00d39	c7 45 fc 00 00
	00 00		 mov	 DWORD PTR __$EHRec$[ebp+8], 0

; 143  : 	AfxGetMessageManager()->QueryObservers( ID_MESSAGE_HTTP_DOWN,listOb);

  00d40	e8 00 00 00 00	 call	 ?AfxGetMessageManager@@YAPAVIMessageManager@@XZ ; AfxGetMessageManager
  00d45	89 45 c0	 mov	 DWORD PTR tv69[ebp], eax
  00d48	8b f4		 mov	 esi, esp
  00d4a	8d 45 e0	 lea	 eax, DWORD PTR _listOb$[ebp]
  00d4d	50		 push	 eax
  00d4e	68 00 00 00 00	 push	 OFFSET FLAT:_ID_MESSAGE_HTTP_DOWN
  00d53	8b 4d c0	 mov	 ecx, DWORD PTR tv69[ebp]
  00d56	8b 11		 mov	 edx, DWORD PTR [ecx]
  00d58	8b 4d c0	 mov	 ecx, DWORD PTR tv69[ebp]
  00d5b	ff 52 0c	 call	 DWORD PTR [edx+12]
  00d5e	3b f4		 cmp	 esi, esp
  00d60	e8 00 00 00 00	 call	 __RTC_CheckEsp

; 144  : 
; 145  : 	for( list<IMessageObserver*>::iterator itOb = listOb.begin();itOb != listOb.end();itOb++ )

  00d65	8d 45 d4	 lea	 eax, DWORD PTR _itOb$188830[ebp]
  00d68	50		 push	 eax
  00d69	8d 4d e0	 lea	 ecx, DWORD PTR _listOb$[ebp]
  00d6c	e8 00 00 00 00	 call	 ?begin@?$list@PAVIMessageObserver@@V?$allocator@PAVIMessageObserver@@@std@@@std@@QAE?AViterator@12@XZ ; std::list<IMessageObserver *,std::allocator<IMessageObserver *> >::begin
  00d71	eb 0e		 jmp	 SHORT $L188834
$L188835:
  00d73	6a 00		 push	 0
  00d75	8d 4d c8	 lea	 ecx, DWORD PTR $T191074[ebp]
  00d78	51		 push	 ecx
  00d79	8d 4d d4	 lea	 ecx, DWORD PTR _itOb$188830[ebp]
  00d7c	e8 00 00 00 00	 call	 ??Eiterator@?$list@PAVIMessageObserver@@V?$allocator@PAVIMessageObserver@@@std@@@std@@QAE?AV012@H@Z ; std::list<IMessageObserver *,std::allocator<IMessageObserver *> >::iterator::operator++
$L188834:
  00d81	8d 55 c4	 lea	 edx, DWORD PTR $T191075[ebp]
  00d84	52		 push	 edx
  00d85	8d 4d e0	 lea	 ecx, DWORD PTR _listOb$[ebp]
  00d88	e8 00 00 00 00	 call	 ?end@?$list@PAVIMessageObserver@@V?$allocator@PAVIMessageObserver@@@std@@@std@@QAE?AViterator@12@XZ ; std::list<IMessageObserver *,std::allocator<IMessageObserver *> >::end
  00d8d	50		 push	 eax
  00d8e	8d 4d d4	 lea	 ecx, DWORD PTR _itOb$188830[ebp]
  00d91	e8 00 00 00 00	 call	 ??9const_iterator@?$list@PAVIMessageObserver@@V?$allocator@PAVIMessageObserver@@@std@@@std@@QBE_NABV012@@Z ; std::list<IMessageObserver *,std::allocator<IMessageObserver *> >::const_iterator::operator!=
  00d96	0f b6 c0	 movzx	 eax, al
  00d99	85 c0		 test	 eax, eax
  00d9b	74 4f		 je	 SHORT $L188836

; 146  : 	{
; 147  : 		IHttpDownObserver* pOb = dynamic_cast<IHttpDownObserver*>(*itOb);

  00d9d	6a 00		 push	 0
  00d9f	68 00 00 00 00	 push	 OFFSET FLAT:??_R0?AVIHttpDownObserver@@@8
  00da4	68 00 00 00 00	 push	 OFFSET FLAT:??_R0?AVIMessageObserver@@@8
  00da9	6a 00		 push	 0
  00dab	8d 4d d4	 lea	 ecx, DWORD PTR _itOb$188830[ebp]
  00dae	e8 00 00 00 00	 call	 ??Diterator@?$list@PAVIMessageObserver@@V?$allocator@PAVIMessageObserver@@@std@@@std@@QBEAAPAVIMessageObserver@@XZ ; std::list<IMessageObserver *,std::allocator<IMessageObserver *> >::iterator::operator*
  00db3	8b 08		 mov	 ecx, DWORD PTR [eax]
  00db5	51		 push	 ecx
  00db6	e8 00 00 00 00	 call	 ___RTDynamicCast
  00dbb	83 c4 14	 add	 esp, 20			; 00000014H
  00dbe	89 45 cc	 mov	 DWORD PTR _pOb$188837[ebp], eax

; 148  : 		pOb->HttpDownOb_DownProgress( strID, dPercent, unFileSize, unSpeed );

  00dc1	8b f4		 mov	 esi, esp
  00dc3	8b 55 18	 mov	 edx, DWORD PTR _unSpeed$[ebp]
  00dc6	52		 push	 edx
  00dc7	8b 45 14	 mov	 eax, DWORD PTR _unFileSize$[ebp]
  00dca	50		 push	 eax
  00dcb	dd 45 0c	 fld	 QWORD PTR _dPercent$[ebp]
  00dce	83 ec 08	 sub	 esp, 8
  00dd1	dd 1c 24	 fstp	 QWORD PTR [esp]
  00dd4	8b 4d 08	 mov	 ecx, DWORD PTR _strID$[ebp]
  00dd7	51		 push	 ecx
  00dd8	8b 55 cc	 mov	 edx, DWORD PTR _pOb$188837[ebp]
  00ddb	8b 02		 mov	 eax, DWORD PTR [edx]
  00ddd	8b 4d cc	 mov	 ecx, DWORD PTR _pOb$188837[ebp]
  00de0	ff 50 10	 call	 DWORD PTR [eax+16]
  00de3	3b f4		 cmp	 esi, esp
  00de5	e8 00 00 00 00	 call	 __RTC_CheckEsp

; 149  : 	}

  00dea	eb 87		 jmp	 SHORT $L188835
$L188836:

; 150  : }

  00dec	c7 45 fc ff ff
	ff ff		 mov	 DWORD PTR __$EHRec$[ebp+8], -1
  00df3	8d 4d e0	 lea	 ecx, DWORD PTR _listOb$[ebp]
  00df6	e8 00 00 00 00	 call	 ??1?$list@PAVIMessageObserver@@V?$allocator@PAVIMessageObserver@@@std@@@std@@QAE@XZ ; std::list<IMessageObserver *,std::allocator<IMessageObserver *> >::~list<IMessageObserver *,std::allocator<IMessageObserver *> >
  00dfb	52		 push	 edx
  00dfc	8b cd		 mov	 ecx, ebp
  00dfe	50		 push	 eax
  00dff	8d 15 00 00 00
	00		 lea	 edx, DWORD PTR $L191083
  00e05	e8 00 00 00 00	 call	 @_RTC_CheckStackVars@8
  00e0a	58		 pop	 eax
  00e0b	5a		 pop	 edx
  00e0c	8b 4d f4	 mov	 ecx, DWORD PTR __$EHRec$[ebp]
  00e0f	64 89 0d 00 00
	00 00		 mov	 DWORD PTR fs:__except_list, ecx
  00e16	5f		 pop	 edi
  00e17	5e		 pop	 esi
  00e18	83 c4 40	 add	 esp, 64			; 00000040H
  00e1b	3b ec		 cmp	 ebp, esp
  00e1d	e8 00 00 00 00	 call	 __RTC_CheckEsp
  00e22	8b e5		 mov	 esp, ebp
  00e24	5d		 pop	 ebp
  00e25	c2 14 00	 ret	 20			; 00000014H
$L191083:
  00e28	02 00 00 00	 DD	 2
  00e2c	00 00 00 00	 DD	 $L191082
$L191082:
  00e30	e0 ff ff ff	 DD	 -32			; ffffffe0H
  00e34	0c 00 00 00	 DD	 12			; 0000000cH
  00e38	00 00 00 00	 DD	 $L191079
  00e3c	d4 ff ff ff	 DD	 -44			; ffffffd4H
  00e40	04 00 00 00	 DD	 4
  00e44	00 00 00 00	 DD	 $L191080
$L191080:
  00e48	69		 DB	 105			; 00000069H
  00e49	74		 DB	 116			; 00000074H
  00e4a	4f		 DB	 79			; 0000004fH
  00e4b	62		 DB	 98			; 00000062H
  00e4c	00		 DB	 0
$L191079:
  00e4d	6c		 DB	 108			; 0000006cH
  00e4e	69		 DB	 105			; 00000069H
  00e4f	73		 DB	 115			; 00000073H
  00e50	74		 DB	 116			; 00000074H
  00e51	4f		 DB	 79			; 0000004fH
  00e52	62		 DB	 98			; 00000062H
  00e53	00		 DB	 0
_TEXT	ENDS
text$x	SEGMENT
$L191076:
  0018e	8d 4d e0	 lea	 ecx, DWORD PTR _listOb$[ebp]
  00191	e9 00 00 00 00	 jmp	 ??1?$list@PAVIMessageObserver@@V?$allocator@PAVIMessageObserver@@@std@@@std@@QAE@XZ ; std::list<IMessageObserver *,std::allocator<IMessageObserver *> >::~list<IMessageObserver *,std::allocator<IMessageObserver *> >
__ehhandler$?NotifyDownProgress@HttpDownCtrl@@AAEXAAV?$basic_string@DU?$char_traits@D@std@@V?$allocator@D@2@@std@@NII@Z:
  00196	b8 00 00 00 00	 mov	 eax, OFFSET FLAT:$T191078
  0019b	e9 00 00 00 00	 jmp	 ___CxxFrameHandler
text$x	ENDS
?NotifyDownProgress@HttpDownCtrl@@AAEXAAV?$basic_string@DU?$char_traits@D@std@@V?$allocator@D@2@@std@@NII@Z ENDP ; HttpDownCtrl::NotifyDownProgress
PUBLIC	?begin@?$_Tree@V?$_Tmap_traits@V?$basic_string@DU?$char_traits@D@std@@V?$allocator@D@2@@std@@PAVYL_CHTTPDownFile@@U?$less@V?$basic_string@DU?$char_traits@D@std@@V?$allocator@D@2@@std@@@2@V?$allocator@U?$pair@$$CBV?$basic_string@DU?$char_traits@D@std@@V?$allocator@D@2@@std@@PAVYL_CHTTPDownFile@@@std@@@2@$0A@@std@@@std@@QAE?AViterator@12@XZ ; std::_Tree<std::_Tmap_traits<std::basic_string<char,std::char_traits<char>,std::allocator<char> >,YL_CHTTPDownFile *,std::less<std::basic_string<char,std::char_traits<char>,std::allocator<char> > >,std::allocator<std::pair<std::basic_string<char,std::char_traits<char>,std::allocator<char> > const ,YL_CHTTPDownFile *> >,0> >::begin
PUBLIC	?size@?$_Tree@V?$_Tmap_traits@V?$basic_string@DU?$char_traits@D@std@@V?$allocator@D@2@@std@@PAVYL_CHTTPDownFile@@U?$less@V?$basic_string@DU?$char_traits@D@std@@V?$allocator@D@2@@std@@@2@V?$allocator@U?$pair@$$CBV?$basic_string@DU?$char_traits@D@std@@V?$allocator@D@2@@std@@PAVYL_CHTTPDownFile@@@std@@@2@$0A@@std@@@std@@QBEIXZ ; std::_Tree<std::_Tmap_traits<std::basic_string<char,std::char_traits<char>,std::allocator<char> >,YL_CHTTPDownFile *,std::less<std::basic_string<char,std::char_traits<char>,std::allocator<char> > >,std::allocator<std::pair<std::basic_string<char,std::char_traits<char>,std::allocator<char> > const ,YL_CHTTPDownFile *> >,0> >::size
PUBLIC	??0?$vector@V?$basic_string@DU?$char_traits@D@std@@V?$allocator@D@2@@std@@V?$allocator@V?$basic_string@DU?$char_traits@D@std@@V?$allocator@D@2@@std@@@2@@std@@QAE@XZ ; std::vector<std::basic_string<char,std::char_traits<char>,std::allocator<char> >,std::allocator<std::basic_string<char,std::char_traits<char>,std::allocator<char> > > >::vector<std::basic_string<char,std::char_traits<char>,std::allocator<char> >,std::allocator<std::basic_string<char,std::char_traits<char>,std::allocator<char> > > >
PUBLIC	??1?$vector@V?$basic_string@DU?$char_traits@D@std@@V?$allocator@D@2@@std@@V?$allocator@V?$basic_string@DU?$char_traits@D@std@@V?$allocator@D@2@@std@@@2@@std@@QAE@XZ ; std::vector<std::basic_string<char,std::char_traits<char>,std::allocator<char> >,std::allocator<std::basic_string<char,std::char_traits<char>,std::allocator<char> > > >::~vector<std::basic_string<char,std::char_traits<char>,std::allocator<char> >,std::allocator<std::basic_string<char,std::char_traits<char>,std::allocator<char> > > >
PUBLIC	?begin@?$vector@V?$basic_string@DU?$char_traits@D@std@@V?$allocator@D@2@@std@@V?$allocator@V?$basic_string@DU?$char_traits@D@std@@V?$allocator@D@2@@std@@@2@@std@@QAE?AViterator@12@XZ ; std::vector<std::basic_string<char,std::char_traits<char>,std::allocator<char> >,std::allocator<std::basic_string<char,std::char_traits<char>,std::allocator<char> > > >::begin
PUBLIC	?end@?$vector@V?$basic_string@DU?$char_traits@D@std@@V?$allocator@D@2@@std@@V?$allocator@V?$basic_string@DU?$char_traits@D@std@@V?$allocator@D@2@@std@@@2@@std@@QAE?AViterator@12@XZ ; std::vector<std::basic_string<char,std::char_traits<char>,std::allocator<char> >,std::allocator<std::basic_string<char,std::char_traits<char>,std::allocator<char> > > >::end
PUBLIC	?push_back@?$vector@V?$basic_string@DU?$char_traits@D@std@@V?$allocator@D@2@@std@@V?$allocator@V?$basic_string@DU?$char_traits@D@std@@V?$allocator@D@2@@std@@@2@@std@@QAEXABV?$basic_string@DU?$char_traits@D@std@@V?$allocator@D@2@@2@@Z ; std::vector<std::basic_string<char,std::char_traits<char>,std::allocator<char> >,std::allocator<std::basic_string<char,std::char_traits<char>,std::allocator<char> > > >::push_back
PUBLIC	__real@3ff0000000000000
PUBLIC	??9const_iterator@?$vector@V?$basic_string@DU?$char_traits@D@std@@V?$allocator@D@2@@std@@V?$allocator@V?$basic_string@DU?$char_traits@D@std@@V?$allocator@D@2@@std@@@2@@std@@QBE_NABV012@@Z ; std::vector<std::basic_string<char,std::char_traits<char>,std::allocator<char> >,std::allocator<std::basic_string<char,std::char_traits<char>,std::allocator<char> > > >::const_iterator::operator!=
PUBLIC	??Diterator@?$vector@V?$basic_string@DU?$char_traits@D@std@@V?$allocator@D@2@@std@@V?$allocator@V?$basic_string@DU?$char_traits@D@std@@V?$allocator@D@2@@std@@@2@@std@@QBEAAV?$basic_string@DU?$char_traits@D@std@@V?$allocator@D@2@@2@XZ ; std::vector<std::basic_string<char,std::char_traits<char>,std::allocator<char> >,std::allocator<std::basic_string<char,std::char_traits<char>,std::allocator<char> > > >::iterator::operator*
PUBLIC	??Eiterator@?$vector@V?$basic_string@DU?$char_traits@D@std@@V?$allocator@D@2@@std@@V?$allocator@V?$basic_string@DU?$char_traits@D@std@@V?$allocator@D@2@@std@@@2@@std@@QAE?AV012@H@Z ; std::vector<std::basic_string<char,std::char_traits<char>,std::allocator<char> >,std::allocator<std::basic_string<char,std::char_traits<char>,std::allocator<char> > > >::iterator::operator++
PUBLIC	??Eiterator@?$_Tree@V?$_Tmap_traits@V?$basic_string@DU?$char_traits@D@std@@V?$allocator@D@2@@std@@PAVYL_CHTTPDownFile@@U?$less@V?$basic_string@DU?$char_traits@D@std@@V?$allocator@D@2@@std@@@2@V?$allocator@U?$pair@$$CBV?$basic_string@DU?$char_traits@D@std@@V?$allocator@D@2@@std@@PAVYL_CHTTPDownFile@@@std@@@2@$0A@@std@@@std@@QAE?AV012@H@Z ; std::_Tree<std::_Tmap_traits<std::basic_string<char,std::char_traits<char>,std::allocator<char> >,YL_CHTTPDownFile *,std::less<std::basic_string<char,std::char_traits<char>,std::allocator<char> > >,std::allocator<std::pair<std::basic_string<char,std::char_traits<char>,std::allocator<char> > const ,YL_CHTTPDownFile *> >,0> >::iterator::operator++
EXTRN	__imp_??0?$basic_string@DU?$char_traits@D@std@@V?$allocator@D@2@@std@@QAE@ABV01@@Z:NEAR
EXTRN	?OnTimer@CWnd@@IAEXI@Z:NEAR			; CWnd::OnTimer
EXTRN	?KillTimer@CWnd@@QAEHI@Z:NEAR			; CWnd::KillTimer
EXTRN	__imp_?GetCurrentDownloadStatus@YL_CHTTPDownFile@@QAENXZ:NEAR
EXTRN	__imp_?IsDownloadFailed@YL_CHTTPDownFile@@QAE_NXZ:NEAR
EXTRN	__imp_?GetParamLocalFile@YL_CHTTPDownFile@@QAE?AV?$basic_string@DU?$char_traits@D@std@@V?$allocator@D@2@@std@@XZ:NEAR
EXTRN	__imp_?GetFailedReason@YL_CHTTPDownFile@@QAE?AW4HTTP_DOWN_FAILED_REASON@@XZ:NEAR
EXTRN	__imp_?GetSpeed@YL_CHTTPDownFile@@QAEIXZ:NEAR
xdata$x	SEGMENT
$T191117 DD	0ffffffffH
	DD	FLAT:$L191098
	DD	00H
	DD	FLAT:$L191099
	DD	01H
	DD	FLAT:$L191100
	DD	02H
	DD	FLAT:$L191101
$T191103 DD	019930520H
	DD	04H
	DD	FLAT:$T191117
	DD	2 DUP(00H)
	DD	2 DUP(00H)
xdata$x	ENDS
;	COMDAT __real@3ff0000000000000
CONST	SEGMENT
__real@3ff0000000000000 DQ 03ff0000000000000r	; 1
; Function compile flags: /Odt /RTCsu
CONST	ENDS
_TEXT	SEGMENT
tv211 = -220						; size = 4
$T191097 = -216						; size = 4
$T191094 = -212						; size = 4
$T191093 = -208						; size = 4
$T191092 = -204						; size = 4
$T191091 = -200						; size = 4
$T191090 = -196						; size = 4
$T191089 = -192						; size = 4
$T191088 = -188						; size = 4
_it3$189191 = -180					; size = 4
_it2$189179 = -168					; size = 4
_strSwfPath$189060 = -156				; size = 28
_dDownPercentage$189057 = -124				; size = 8
_pHttpDownFile$189054 = -116				; size = 4
_strGid$189053 = -108					; size = 28
_it1$189046 = -72					; size = 4
_vecGidFinish$189040 = -60				; size = 16
_sl$188844 = -36					; size = 12
_this$ = -20						; size = 4
__$ArrayPad$ = -16					; size = 4
__$EHRec$ = -12						; size = 12
__$ReturnAddr$ = 4					; size = 4
_nIDEvent$ = 8						; size = 4
?OnTimer@HttpDownCtrl@@IAEXI@Z PROC NEAR		; HttpDownCtrl::OnTimer
; _this$ = ecx

; 153  : {

  00e60	55		 push	 ebp
  00e61	8b ec		 mov	 ebp, esp
  00e63	6a ff		 push	 -1
  00e65	68 00 00 00 00	 push	 __ehhandler$?OnTimer@HttpDownCtrl@@IAEXI@Z
  00e6a	64 a1 00 00 00
	00		 mov	 eax, DWORD PTR fs:__except_list
  00e70	50		 push	 eax
  00e71	64 89 25 00 00
	00 00		 mov	 DWORD PTR fs:__except_list, esp
  00e78	81 ec d0 00 00
	00		 sub	 esp, 208		; 000000d0H
  00e7e	56		 push	 esi
  00e7f	57		 push	 edi
  00e80	51		 push	 ecx
  00e81	8d bd 24 ff ff
	ff		 lea	 edi, DWORD PTR [ebp-220]
  00e87	b9 34 00 00 00	 mov	 ecx, 52			; 00000034H
  00e8c	b8 cc cc cc cc	 mov	 eax, -858993460		; ccccccccH
  00e91	f3 ab		 rep stosd
  00e93	59		 pop	 ecx
  00e94	a1 00 00 00 00	 mov	 eax, DWORD PTR ___security_cookie
  00e99	89 45 f0	 mov	 DWORD PTR __$ArrayPad$[ebp], eax
  00e9c	89 4d ec	 mov	 DWORD PTR _this$[ebp], ecx

; 154  : 	if( nIDEvent == TIMER_CHECK_DOWN_STATE )

  00e9f	81 7d 08 cb 04
	00 00		 cmp	 DWORD PTR _nIDEvent$[ebp], 1227 ; 000004cbH
  00ea6	0f 85 f4 02 00
	00		 jne	 $L188843

; 155  : 	{
; 156  : 		CSingleLock sl( &m_cs );

  00eac	6a 00		 push	 0
  00eae	8b 45 ec	 mov	 eax, DWORD PTR _this$[ebp]
  00eb1	83 c0 54	 add	 eax, 84			; 00000054H
  00eb4	50		 push	 eax
  00eb5	8d 4d dc	 lea	 ecx, DWORD PTR _sl$188844[ebp]
  00eb8	e8 00 00 00 00	 call	 ??0CSingleLock@@QAE@PAVCSyncObject@@H@Z ; CSingleLock::CSingleLock
  00ebd	c7 45 fc 00 00
	00 00		 mov	 DWORD PTR __$EHRec$[ebp+8], 0

; 157  : 		sl.Lock();

  00ec4	6a ff		 push	 -1
  00ec6	8d 4d dc	 lea	 ecx, DWORD PTR _sl$188844[ebp]
  00ec9	e8 00 00 00 00	 call	 ?Lock@CSingleLock@@QAEHK@Z ; CSingleLock::Lock

; 158  : 		if( m_mapDownThread.size() == 0 )

  00ece	8b 4d ec	 mov	 ecx, DWORD PTR _this$[ebp]
  00ed1	83 c1 60	 add	 ecx, 96			; 00000060H
  00ed4	e8 00 00 00 00	 call	 ?size@?$_Tree@V?$_Tmap_traits@V?$basic_string@DU?$char_traits@D@std@@V?$allocator@D@2@@std@@PAVYL_CHTTPDownFile@@U?$less@V?$basic_string@DU?$char_traits@D@std@@V?$allocator@D@2@@std@@@2@V?$allocator@U?$pair@$$CBV?$basic_string@DU?$char_traits@D@std@@V?$allocator@D@2@@std@@PAVYL_CHTTPDownFile@@@std@@@2@$0A@@std@@@std@@QBEIXZ ; std::_Tree<std::_Tmap_traits<std::basic_string<char,std::char_traits<char>,std::allocator<char> >,YL_CHTTPDownFile *,std::less<std::basic_string<char,std::char_traits<char>,std::allocator<char> > >,std::allocator<std::pair<std::basic_string<char,std::char_traits<char>,std::allocator<char> > const ,YL_CHTTPDownFile *> >,0> >::size
  00ed9	85 c0		 test	 eax, eax
  00edb	75 0d		 jne	 SHORT $L188845

; 159  : 			KillTimer( TIMER_CHECK_DOWN_STATE ); 

  00edd	68 cb 04 00 00	 push	 1227			; 000004cbH
  00ee2	8b 4d ec	 mov	 ecx, DWORD PTR _this$[ebp]
  00ee5	e8 00 00 00 00	 call	 ?KillTimer@CWnd@@QAEHI@Z ; CWnd::KillTimer
$L188845:

; 160  : 
; 161  : 		vector<string> vecGidFinish; //gid

  00eea	8d 4d c4	 lea	 ecx, DWORD PTR _vecGidFinish$189040[ebp]
  00eed	e8 00 00 00 00	 call	 ??0?$vector@V?$basic_string@DU?$char_traits@D@std@@V?$allocator@D@2@@std@@V?$allocator@V?$basic_string@DU?$char_traits@D@std@@V?$allocator@D@2@@std@@@2@@std@@QAE@XZ ; std::vector<std::basic_string<char,std::char_traits<char>,std::allocator<char> >,std::allocator<std::basic_string<char,std::char_traits<char>,std::allocator<char> > > >::vector<std::basic_string<char,std::char_traits<char>,std::allocator<char> >,std::allocator<std::basic_string<char,std::char_traits<char>,std::allocator<char> > > >
  00ef2	c6 45 fc 01	 mov	 BYTE PTR __$EHRec$[ebp+8], 1

; 162  : 		//
; 163  : 		
; 164  : 		for( map<string,YL_CHTTPDownFile*>::iterator it1 = m_mapDownThread.begin();

  00ef6	8d 4d b8	 lea	 ecx, DWORD PTR _it1$189046[ebp]
  00ef9	51		 push	 ecx
  00efa	8b 4d ec	 mov	 ecx, DWORD PTR _this$[ebp]
  00efd	83 c1 60	 add	 ecx, 96			; 00000060H
  00f00	e8 00 00 00 00	 call	 ?begin@?$_Tree@V?$_Tmap_traits@V?$basic_string@DU?$char_traits@D@std@@V?$allocator@D@2@@std@@PAVYL_CHTTPDownFile@@U?$less@V?$basic_string@DU?$char_traits@D@std@@V?$allocator@D@2@@std@@@2@V?$allocator@U?$pair@$$CBV?$basic_string@DU?$char_traits@D@std@@V?$allocator@D@2@@std@@PAVYL_CHTTPDownFile@@@std@@@2@$0A@@std@@@std@@QAE?AViterator@12@XZ ; std::_Tree<std::_Tmap_traits<std::basic_string<char,std::char_traits<char>,std::allocator<char> >,YL_CHTTPDownFile *,std::less<std::basic_string<char,std::char_traits<char>,std::allocator<char> > >,std::allocator<std::pair<std::basic_string<char,std::char_traits<char>,std::allocator<char> > const ,YL_CHTTPDownFile *> >,0> >::begin

; 165  : 			it1 != m_mapDownThread.end(); it1++ )

  00f05	eb 11		 jmp	 SHORT $L189050
$L189051:
  00f07	6a 00		 push	 0
  00f09	8d 95 44 ff ff
	ff		 lea	 edx, DWORD PTR $T191088[ebp]
  00f0f	52		 push	 edx
  00f10	8d 4d b8	 lea	 ecx, DWORD PTR _it1$189046[ebp]
  00f13	e8 00 00 00 00	 call	 ??Eiterator@?$_Tree@V?$_Tmap_traits@V?$basic_string@DU?$char_traits@D@std@@V?$allocator@D@2@@std@@PAVYL_CHTTPDownFile@@U?$less@V?$basic_string@DU?$char_traits@D@std@@V?$allocator@D@2@@std@@@2@V?$allocator@U?$pair@$$CBV?$basic_string@DU?$char_traits@D@std@@V?$allocator@D@2@@std@@PAVYL_CHTTPDownFile@@@std@@@2@$0A@@std@@@std@@QAE?AV012@H@Z ; std::_Tree<std::_Tmap_traits<std::basic_string<char,std::char_traits<char>,std::allocator<char> >,YL_CHTTPDownFile *,std::less<std::basic_string<char,std::char_traits<char>,std::allocator<char> > >,std::allocator<std::pair<std::basic_string<char,std::char_traits<char>,std::allocator<char> > const ,YL_CHTTPDownFile *> >,0> >::iterator::operator++
$L189050:
  00f18	8d 85 40 ff ff
	ff		 lea	 eax, DWORD PTR $T191089[ebp]
  00f1e	50		 push	 eax
  00f1f	8b 4d ec	 mov	 ecx, DWORD PTR _this$[ebp]
  00f22	83 c1 60	 add	 ecx, 96			; 00000060H
  00f25	e8 00 00 00 00	 call	 ?end@?$_Tree@V?$_Tmap_traits@V?$basic_string@DU?$char_traits@D@std@@V?$allocator@D@2@@std@@PAVYL_CHTTPDownFile@@U?$less@V?$basic_string@DU?$char_traits@D@std@@V?$allocator@D@2@@std@@@2@V?$allocator@U?$pair@$$CBV?$basic_string@DU?$char_traits@D@std@@V?$allocator@D@2@@std@@PAVYL_CHTTPDownFile@@@std@@@2@$0A@@std@@@std@@QAE?AViterator@12@XZ ; std::_Tree<std::_Tmap_traits<std::basic_string<char,std::char_traits<char>,std::allocator<char> >,YL_CHTTPDownFile *,std::less<std::basic_string<char,std::char_traits<char>,std::allocator<char> > >,std::allocator<std::pair<std::basic_string<char,std::char_traits<char>,std::allocator<char> > const ,YL_CHTTPDownFile *> >,0> >::end
  00f2a	50		 push	 eax
  00f2b	8d 4d b8	 lea	 ecx, DWORD PTR _it1$189046[ebp]
  00f2e	e8 00 00 00 00	 call	 ??9const_iterator@?$_Tree@V?$_Tmap_traits@V?$basic_string@DU?$char_traits@D@std@@V?$allocator@D@2@@std@@PAVYL_CHTTPDownFile@@U?$less@V?$basic_string@DU?$char_traits@D@std@@V?$allocator@D@2@@std@@@2@V?$allocator@U?$pair@$$CBV?$basic_string@DU?$char_traits@D@std@@V?$allocator@D@2@@std@@PAVYL_CHTTPDownFile@@@std@@@2@$0A@@std@@@std@@QBE_NABV012@@Z ; std::_Tree<std::_Tmap_traits<std::basic_string<char,std::char_traits<char>,std::allocator<char> >,YL_CHTTPDownFile *,std::less<std::basic_string<char,std::char_traits<char>,std::allocator<char> > >,std::allocator<std::pair<std::basic_string<char,std::char_traits<char>,std::allocator<char> > const ,YL_CHTTPDownFile *> >,0> >::const_iterator::operator!=
  00f33	0f b6 c8	 movzx	 ecx, al
  00f36	85 c9		 test	 ecx, ecx
  00f38	0f 84 4b 01 00
	00		 je	 $L189052

; 166  : 		{
; 167  : 			string strGid = it1->first;

  00f3e	8d 4d b8	 lea	 ecx, DWORD PTR _it1$189046[ebp]
  00f41	e8 00 00 00 00	 call	 ??Citerator@?$_Tree@V?$_Tmap_traits@V?$basic_string@DU?$char_traits@D@std@@V?$allocator@D@2@@std@@PAVYL_CHTTPDownFile@@U?$less@V?$basic_string@DU?$char_traits@D@std@@V?$allocator@D@2@@std@@@2@V?$allocator@U?$pair@$$CBV?$basic_string@DU?$char_traits@D@std@@V?$allocator@D@2@@std@@PAVYL_CHTTPDownFile@@@std@@@2@$0A@@std@@@std@@QBEPAU?$pair@$$CBV?$basic_string@DU?$char_traits@D@std@@V?$allocator@D@2@@std@@PAVYL_CHTTPDownFile@@@2@XZ ; std::_Tree<std::_Tmap_traits<std::basic_string<char,std::char_traits<char>,std::allocator<char> >,YL_CHTTPDownFile *,std::less<std::basic_string<char,std::char_traits<char>,std::allocator<char> > >,std::allocator<std::pair<std::basic_string<char,std::char_traits<char>,std::allocator<char> > const ,YL_CHTTPDownFile *> >,0> >::iterator::operator->
  00f46	8b f4		 mov	 esi, esp
  00f48	50		 push	 eax
  00f49	8d 4d 94	 lea	 ecx, DWORD PTR _strGid$189053[ebp]
  00f4c	ff 15 00 00 00
	00		 call	 DWORD PTR __imp_??0?$basic_string@DU?$char_traits@D@std@@V?$allocator@D@2@@std@@QAE@ABV01@@Z
  00f52	3b f4		 cmp	 esi, esp
  00f54	e8 00 00 00 00	 call	 __RTC_CheckEsp
  00f59	c6 45 fc 02	 mov	 BYTE PTR __$EHRec$[ebp+8], 2

; 168  : 			YL_CHTTPDownFile* pHttpDownFile = it1->second;

  00f5d	8d 4d b8	 lea	 ecx, DWORD PTR _it1$189046[ebp]
  00f60	e8 00 00 00 00	 call	 ??Citerator@?$_Tree@V?$_Tmap_traits@V?$basic_string@DU?$char_traits@D@std@@V?$allocator@D@2@@std@@PAVYL_CHTTPDownFile@@U?$less@V?$basic_string@DU?$char_traits@D@std@@V?$allocator@D@2@@std@@@2@V?$allocator@U?$pair@$$CBV?$basic_string@DU?$char_traits@D@std@@V?$allocator@D@2@@std@@PAVYL_CHTTPDownFile@@@std@@@2@$0A@@std@@@std@@QBEPAU?$pair@$$CBV?$basic_string@DU?$char_traits@D@std@@V?$allocator@D@2@@std@@PAVYL_CHTTPDownFile@@@2@XZ ; std::_Tree<std::_Tmap_traits<std::basic_string<char,std::char_traits<char>,std::allocator<char> >,YL_CHTTPDownFile *,std::less<std::basic_string<char,std::char_traits<char>,std::allocator<char> > >,std::allocator<std::pair<std::basic_string<char,std::char_traits<char>,std::allocator<char> > const ,YL_CHTTPDownFile *> >,0> >::iterator::operator->
  00f65	8b 50 1c	 mov	 edx, DWORD PTR [eax+28]
  00f68	89 55 8c	 mov	 DWORD PTR _pHttpDownFile$189054[ebp], edx

; 169  : 			if( pHttpDownFile->IsDownloadFailed() )

  00f6b	8b f4		 mov	 esi, esp
  00f6d	8b 4d 8c	 mov	 ecx, DWORD PTR _pHttpDownFile$189054[ebp]
  00f70	ff 15 00 00 00
	00		 call	 DWORD PTR __imp_?IsDownloadFailed@YL_CHTTPDownFile@@QAE_NXZ
  00f76	3b f4		 cmp	 esi, esp
  00f78	e8 00 00 00 00	 call	 __RTC_CheckEsp
  00f7d	0f b6 c0	 movzx	 eax, al
  00f80	85 c0		 test	 eax, eax
  00f82	74 30		 je	 SHORT $L189055

; 170  : 			{
; 171  : 				//
; 172  : 				NotifyDownFailed( strGid, pHttpDownFile->GetFailedReason() );

  00f84	8b f4		 mov	 esi, esp
  00f86	8b 4d 8c	 mov	 ecx, DWORD PTR _pHttpDownFile$189054[ebp]
  00f89	ff 15 00 00 00
	00		 call	 DWORD PTR __imp_?GetFailedReason@YL_CHTTPDownFile@@QAE?AW4HTTP_DOWN_FAILED_REASON@@XZ
  00f8f	3b f4		 cmp	 esi, esp
  00f91	e8 00 00 00 00	 call	 __RTC_CheckEsp
  00f96	50		 push	 eax
  00f97	8d 4d 94	 lea	 ecx, DWORD PTR _strGid$189053[ebp]
  00f9a	51		 push	 ecx
  00f9b	8b 4d ec	 mov	 ecx, DWORD PTR _this$[ebp]
  00f9e	e8 00 00 00 00	 call	 ?NotifyDownFailed@HttpDownCtrl@@AAEXAAV?$basic_string@DU?$char_traits@D@std@@V?$allocator@D@2@@std@@W4HTTP_DOWN_FAILED_REASON@@@Z ; HttpDownCtrl::NotifyDownFailed

; 173  : 				vecGidFinish.push_back( strGid );

  00fa3	8d 55 94	 lea	 edx, DWORD PTR _strGid$189053[ebp]
  00fa6	52		 push	 edx
  00fa7	8d 4d c4	 lea	 ecx, DWORD PTR _vecGidFinish$189040[ebp]
  00faa	e8 00 00 00 00	 call	 ?push_back@?$vector@V?$basic_string@DU?$char_traits@D@std@@V?$allocator@D@2@@std@@V?$allocator@V?$basic_string@DU?$char_traits@D@std@@V?$allocator@D@2@@std@@@2@@std@@QAEXABV?$basic_string@DU?$char_traits@D@std@@V?$allocator@D@2@@2@@Z ; std::vector<std::basic_string<char,std::char_traits<char>,std::allocator<char> >,std::allocator<std::basic_string<char,std::char_traits<char>,std::allocator<char> > > >::push_back

; 174  : 			}else

  00faf	e9 ba 00 00 00	 jmp	 $L189056
$L189055:

; 175  : 			{
; 176  : 				double dDownPercentage = pHttpDownFile->GetCurrentDownloadStatus();

  00fb4	8b f4		 mov	 esi, esp
  00fb6	8b 4d 8c	 mov	 ecx, DWORD PTR _pHttpDownFile$189054[ebp]
  00fb9	ff 15 00 00 00
	00		 call	 DWORD PTR __imp_?GetCurrentDownloadStatus@YL_CHTTPDownFile@@QAENXZ
  00fbf	3b f4		 cmp	 esi, esp
  00fc1	e8 00 00 00 00	 call	 __RTC_CheckEsp
  00fc6	dd 5d 84	 fstp	 QWORD PTR _dDownPercentage$189057[ebp]

; 177  : 				if( dDownPercentage < 1 )

  00fc9	dd 45 84	 fld	 QWORD PTR _dDownPercentage$189057[ebp]
  00fcc	dc 1d 00 00 00
	00		 fcomp	 QWORD PTR __real@3ff0000000000000
  00fd2	df e0		 fnstsw	 ax
  00fd4	f6 c4 05	 test	 ah, 5
  00fd7	7a 40		 jp	 SHORT $L189058

; 178  : 				{
; 179  : 					NotifyDownProgress( strGid, dDownPercentage,
; 180  : 						pHttpDownFile->GetFileSize(), pHttpDownFile->GetSpeed()*1024 );

  00fd9	8b f4		 mov	 esi, esp
  00fdb	8b 4d 8c	 mov	 ecx, DWORD PTR _pHttpDownFile$189054[ebp]
  00fde	ff 15 00 00 00
	00		 call	 DWORD PTR __imp_?GetSpeed@YL_CHTTPDownFile@@QAEIXZ
  00fe4	3b f4		 cmp	 esi, esp
  00fe6	e8 00 00 00 00	 call	 __RTC_CheckEsp
  00feb	c1 e0 0a	 shl	 eax, 10			; 0000000aH
  00fee	50		 push	 eax
  00fef	8b f4		 mov	 esi, esp
  00ff1	8b 4d 8c	 mov	 ecx, DWORD PTR _pHttpDownFile$189054[ebp]
  00ff4	ff 15 00 00 00
	00		 call	 DWORD PTR __imp_?GetFileSize@YL_CHTTPDownFile@@QAEIXZ
  00ffa	3b f4		 cmp	 esi, esp
  00ffc	e8 00 00 00 00	 call	 __RTC_CheckEsp
  01001	50		 push	 eax
  01002	dd 45 84	 fld	 QWORD PTR _dDownPercentage$189057[ebp]
  01005	83 ec 08	 sub	 esp, 8
  01008	dd 1c 24	 fstp	 QWORD PTR [esp]
  0100b	8d 45 94	 lea	 eax, DWORD PTR _strGid$189053[ebp]
  0100e	50		 push	 eax
  0100f	8b 4d ec	 mov	 ecx, DWORD PTR _this$[ebp]
  01012	e8 00 00 00 00	 call	 ?NotifyDownProgress@HttpDownCtrl@@AAEXAAV?$basic_string@DU?$char_traits@D@std@@V?$allocator@D@2@@std@@NII@Z ; HttpDownCtrl::NotifyDownProgress

; 181  : 				}else

  01017	eb 55		 jmp	 SHORT $L189056
$L189058:

; 182  : 				{
; 183  : 					string strSwfPath = pHttpDownFile->GetParamLocalFile();

  01019	8b f4		 mov	 esi, esp
  0101b	8d 8d 64 ff ff
	ff		 lea	 ecx, DWORD PTR _strSwfPath$189060[ebp]
  01021	51		 push	 ecx
  01022	8b 4d 8c	 mov	 ecx, DWORD PTR _pHttpDownFile$189054[ebp]
  01025	ff 15 00 00 00
	00		 call	 DWORD PTR __imp_?GetParamLocalFile@YL_CHTTPDownFile@@QAE?AV?$basic_string@DU?$char_traits@D@std@@V?$allocator@D@2@@std@@XZ
  0102b	3b f4		 cmp	 esi, esp
  0102d	e8 00 00 00 00	 call	 __RTC_CheckEsp
  01032	c6 45 fc 03	 mov	 BYTE PTR __$EHRec$[ebp+8], 3

; 184  : 					NotifyDownFinish( strGid, strSwfPath );

  01036	8d 95 64 ff ff
	ff		 lea	 edx, DWORD PTR _strSwfPath$189060[ebp]
  0103c	52		 push	 edx
  0103d	8d 45 94	 lea	 eax, DWORD PTR _strGid$189053[ebp]
  01040	50		 push	 eax
  01041	8b 4d ec	 mov	 ecx, DWORD PTR _this$[ebp]
  01044	e8 00 00 00 00	 call	 ?NotifyDownFinish@HttpDownCtrl@@AAEXAAV?$basic_string@DU?$char_traits@D@std@@V?$allocator@D@2@@std@@0@Z ; HttpDownCtrl::NotifyDownFinish

; 185  : 					vecGidFinish.push_back( strGid );

  01049	8d 4d 94	 lea	 ecx, DWORD PTR _strGid$189053[ebp]
  0104c	51		 push	 ecx
  0104d	8d 4d c4	 lea	 ecx, DWORD PTR _vecGidFinish$189040[ebp]
  01050	e8 00 00 00 00	 call	 ?push_back@?$vector@V?$basic_string@DU?$char_traits@D@std@@V?$allocator@D@2@@std@@V?$allocator@V?$basic_string@DU?$char_traits@D@std@@V?$allocator@D@2@@std@@@2@@std@@QAEXABV?$basic_string@DU?$char_traits@D@std@@V?$allocator@D@2@@2@@Z ; std::vector<std::basic_string<char,std::char_traits<char>,std::allocator<char> >,std::allocator<std::basic_string<char,std::char_traits<char>,std::allocator<char> > > >::push_back

; 186  : 				}				

  01055	c6 45 fc 02	 mov	 BYTE PTR __$EHRec$[ebp+8], 2
  01059	8b f4		 mov	 esi, esp
  0105b	8d 8d 64 ff ff
	ff		 lea	 ecx, DWORD PTR _strSwfPath$189060[ebp]
  01061	ff 15 00 00 00
	00		 call	 DWORD PTR __imp_??1?$basic_string@DU?$char_traits@D@std@@V?$allocator@D@2@@std@@QAE@XZ
  01067	3b f4		 cmp	 esi, esp
  01069	e8 00 00 00 00	 call	 __RTC_CheckEsp
$L189056:

; 187  : 			}
; 188  : 		}

  0106e	c6 45 fc 01	 mov	 BYTE PTR __$EHRec$[ebp+8], 1
  01072	8b f4		 mov	 esi, esp
  01074	8d 4d 94	 lea	 ecx, DWORD PTR _strGid$189053[ebp]
  01077	ff 15 00 00 00
	00		 call	 DWORD PTR __imp_??1?$basic_string@DU?$char_traits@D@std@@V?$allocator@D@2@@std@@QAE@XZ
  0107d	3b f4		 cmp	 esi, esp
  0107f	e8 00 00 00 00	 call	 __RTC_CheckEsp
  01084	e9 7e fe ff ff	 jmp	 $L189051
$L189052:

; 189  : 
; 190  : 		for( vector<string>::iterator it2 = vecGidFinish.begin();

  01089	8d 95 58 ff ff
	ff		 lea	 edx, DWORD PTR _it2$189179[ebp]
  0108f	52		 push	 edx
  01090	8d 4d c4	 lea	 ecx, DWORD PTR _vecGidFinish$189040[ebp]
  01093	e8 00 00 00 00	 call	 ?begin@?$vector@V?$basic_string@DU?$char_traits@D@std@@V?$allocator@D@2@@std@@V?$allocator@V?$basic_string@DU?$char_traits@D@std@@V?$allocator@D@2@@std@@@2@@std@@QAE?AViterator@12@XZ ; std::vector<std::basic_string<char,std::char_traits<char>,std::allocator<char> >,std::allocator<std::basic_string<char,std::char_traits<char>,std::allocator<char> > > >::begin

; 191  : 			it2 != vecGidFinish.end(); it2++ )

  01098	eb 14		 jmp	 SHORT $L189183
$L189184:
  0109a	6a 00		 push	 0
  0109c	8d 85 3c ff ff
	ff		 lea	 eax, DWORD PTR $T191090[ebp]
  010a2	50		 push	 eax
  010a3	8d 8d 58 ff ff
	ff		 lea	 ecx, DWORD PTR _it2$189179[ebp]
  010a9	e8 00 00 00 00	 call	 ??Eiterator@?$vector@V?$basic_string@DU?$char_traits@D@std@@V?$allocator@D@2@@std@@V?$allocator@V?$basic_string@DU?$char_traits@D@std@@V?$allocator@D@2@@std@@@2@@std@@QAE?AV012@H@Z ; std::vector<std::basic_string<char,std::char_traits<char>,std::allocator<char> >,std::allocator<std::basic_string<char,std::char_traits<char>,std::allocator<char> > > >::iterator::operator++
$L189183:
  010ae	8d 8d 38 ff ff
	ff		 lea	 ecx, DWORD PTR $T191091[ebp]
  010b4	51		 push	 ecx
  010b5	8d 4d c4	 lea	 ecx, DWORD PTR _vecGidFinish$189040[ebp]
  010b8	e8 00 00 00 00	 call	 ?end@?$vector@V?$basic_string@DU?$char_traits@D@std@@V?$allocator@D@2@@std@@V?$allocator@V?$basic_string@DU?$char_traits@D@std@@V?$allocator@D@2@@std@@@2@@std@@QAE?AViterator@12@XZ ; std::vector<std::basic_string<char,std::char_traits<char>,std::allocator<char> >,std::allocator<std::basic_string<char,std::char_traits<char>,std::allocator<char> > > >::end
  010bd	50		 push	 eax
  010be	8d 8d 58 ff ff
	ff		 lea	 ecx, DWORD PTR _it2$189179[ebp]
  010c4	e8 00 00 00 00	 call	 ??9const_iterator@?$vector@V?$basic_string@DU?$char_traits@D@std@@V?$allocator@D@2@@std@@V?$allocator@V?$basic_string@DU?$char_traits@D@std@@V?$allocator@D@2@@std@@@2@@std@@QBE_NABV012@@Z ; std::vector<std::basic_string<char,std::char_traits<char>,std::allocator<char> >,std::allocator<std::basic_string<char,std::char_traits<char>,std::allocator<char> > > >::const_iterator::operator!=
  010c9	0f b6 d0	 movzx	 edx, al
  010cc	85 d2		 test	 edx, edx
  010ce	0f 84 a9 00 00
	00		 je	 $L189185

; 192  : 		{
; 193  : 			map<string,YL_CHTTPDownFile*>::iterator it3 = m_mapDownThread.find( *it2 );

  010d4	8d 8d 58 ff ff
	ff		 lea	 ecx, DWORD PTR _it2$189179[ebp]
  010da	e8 00 00 00 00	 call	 ??Diterator@?$vector@V?$basic_string@DU?$char_traits@D@std@@V?$allocator@D@2@@std@@V?$allocator@V?$basic_string@DU?$char_traits@D@std@@V?$allocator@D@2@@std@@@2@@std@@QBEAAV?$basic_string@DU?$char_traits@D@std@@V?$allocator@D@2@@2@XZ ; std::vector<std::basic_string<char,std::char_traits<char>,std::allocator<char> >,std::allocator<std::basic_string<char,std::char_traits<char>,std::allocator<char> > > >::iterator::operator*
  010df	50		 push	 eax
  010e0	8d 85 4c ff ff
	ff		 lea	 eax, DWORD PTR _it3$189191[ebp]
  010e6	50		 push	 eax
  010e7	8b 4d ec	 mov	 ecx, DWORD PTR _this$[ebp]
  010ea	83 c1 60	 add	 ecx, 96			; 00000060H
  010ed	e8 00 00 00 00	 call	 ?find@?$_Tree@V?$_Tmap_traits@V?$basic_string@DU?$char_traits@D@std@@V?$allocator@D@2@@std@@PAVYL_CHTTPDownFile@@U?$less@V?$basic_string@DU?$char_traits@D@std@@V?$allocator@D@2@@std@@@2@V?$allocator@U?$pair@$$CBV?$basic_string@DU?$char_traits@D@std@@V?$allocator@D@2@@std@@PAVYL_CHTTPDownFile@@@std@@@2@$0A@@std@@@std@@QAE?AViterator@12@ABV?$basic_string@DU?$char_traits@D@std@@V?$allocator@D@2@@2@@Z ; std::_Tree<std::_Tmap_traits<std::basic_string<char,std::char_traits<char>,std::allocator<char> >,YL_CHTTPDownFile *,std::less<std::basic_string<char,std::char_traits<char>,std::allocator<char> > >,std::allocator<std::pair<std::basic_string<char,std::char_traits<char>,std::allocator<char> > const ,YL_CHTTPDownFile *> >,0> >::find

; 194  : 			if( it3 != m_mapDownThread.end() )

  010f2	8d 8d 34 ff ff
	ff		 lea	 ecx, DWORD PTR $T191092[ebp]
  010f8	51		 push	 ecx
  010f9	8b 4d ec	 mov	 ecx, DWORD PTR _this$[ebp]
  010fc	83 c1 60	 add	 ecx, 96			; 00000060H
  010ff	e8 00 00 00 00	 call	 ?end@?$_Tree@V?$_Tmap_traits@V?$basic_string@DU?$char_traits@D@std@@V?$allocator@D@2@@std@@PAVYL_CHTTPDownFile@@U?$less@V?$basic_string@DU?$char_traits@D@std@@V?$allocator@D@2@@std@@@2@V?$allocator@U?$pair@$$CBV?$basic_string@DU?$char_traits@D@std@@V?$allocator@D@2@@std@@PAVYL_CHTTPDownFile@@@std@@@2@$0A@@std@@@std@@QAE?AViterator@12@XZ ; std::_Tree<std::_Tmap_traits<std::basic_string<char,std::char_traits<char>,std::allocator<char> >,YL_CHTTPDownFile *,std::less<std::basic_string<char,std::char_traits<char>,std::allocator<char> > >,std::allocator<std::pair<std::basic_string<char,std::char_traits<char>,std::allocator<char> > const ,YL_CHTTPDownFile *> >,0> >::end
  01104	50		 push	 eax
  01105	8d 8d 4c ff ff
	ff		 lea	 ecx, DWORD PTR _it3$189191[ebp]
  0110b	e8 00 00 00 00	 call	 ??9const_iterator@?$_Tree@V?$_Tmap_traits@V?$basic_string@DU?$char_traits@D@std@@V?$allocator@D@2@@std@@PAVYL_CHTTPDownFile@@U?$less@V?$basic_string@DU?$char_traits@D@std@@V?$allocator@D@2@@std@@@2@V?$allocator@U?$pair@$$CBV?$basic_string@DU?$char_traits@D@std@@V?$allocator@D@2@@std@@PAVYL_CHTTPDownFile@@@std@@@2@$0A@@std@@@std@@QBE_NABV012@@Z ; std::_Tree<std::_Tmap_traits<std::basic_string<char,std::char_traits<char>,std::allocator<char> >,YL_CHTTPDownFile *,std::less<std::basic_string<char,std::char_traits<char>,std::allocator<char> > >,std::allocator<std::pair<std::basic_string<char,std::char_traits<char>,std::allocator<char> > const ,YL_CHTTPDownFile *> >,0> >::const_iterator::operator!=
  01110	0f b6 d0	 movzx	 edx, al
  01113	85 d2		 test	 edx, edx
  01115	74 61		 je	 SHORT $L189194

; 195  : 			{
; 196  : 				delete it3->second;

  01117	8d 8d 4c ff ff
	ff		 lea	 ecx, DWORD PTR _it3$189191[ebp]
  0111d	e8 00 00 00 00	 call	 ??Citerator@?$_Tree@V?$_Tmap_traits@V?$basic_string@DU?$char_traits@D@std@@V?$allocator@D@2@@std@@PAVYL_CHTTPDownFile@@U?$less@V?$basic_string@DU?$char_traits@D@std@@V?$allocator@D@2@@std@@@2@V?$allocator@U?$pair@$$CBV?$basic_string@DU?$char_traits@D@std@@V?$allocator@D@2@@std@@PAVYL_CHTTPDownFile@@@std@@@2@$0A@@std@@@std@@QBEPAU?$pair@$$CBV?$basic_string@DU?$char_traits@D@std@@V?$allocator@D@2@@std@@PAVYL_CHTTPDownFile@@@2@XZ ; std::_Tree<std::_Tmap_traits<std::basic_string<char,std::char_traits<char>,std::allocator<char> >,YL_CHTTPDownFile *,std::less<std::basic_string<char,std::char_traits<char>,std::allocator<char> > >,std::allocator<std::pair<std::basic_string<char,std::char_traits<char>,std::allocator<char> > const ,YL_CHTTPDownFile *> >,0> >::iterator::operator->
  01122	8b 40 1c	 mov	 eax, DWORD PTR [eax+28]
  01125	89 85 2c ff ff
	ff		 mov	 DWORD PTR $T191094[ebp], eax
  0112b	8b 8d 2c ff ff
	ff		 mov	 ecx, DWORD PTR $T191094[ebp]
  01131	89 8d 30 ff ff
	ff		 mov	 DWORD PTR $T191093[ebp], ecx
  01137	83 bd 30 ff ff
	ff 00		 cmp	 DWORD PTR $T191093[ebp], 0
  0113e	74 15		 je	 SHORT $L191095
  01140	6a 01		 push	 1
  01142	8b 8d 30 ff ff
	ff		 mov	 ecx, DWORD PTR $T191093[ebp]
  01148	e8 00 00 00 00	 call	 ??_GYL_CHTTPDownFile@@QAEPAXI@Z
  0114d	89 85 24 ff ff
	ff		 mov	 DWORD PTR tv211[ebp], eax
  01153	eb 0a		 jmp	 SHORT $L191096
$L191095:
  01155	c7 85 24 ff ff
	ff 00 00 00 00	 mov	 DWORD PTR tv211[ebp], 0
$L191096:

; 197  : 				m_mapDownThread.erase( it3 );

  0115f	8b 95 4c ff ff
	ff		 mov	 edx, DWORD PTR _it3$189191[ebp]
  01165	52		 push	 edx
  01166	8d 85 28 ff ff
	ff		 lea	 eax, DWORD PTR $T191097[ebp]
  0116c	50		 push	 eax
  0116d	8b 4d ec	 mov	 ecx, DWORD PTR _this$[ebp]
  01170	83 c1 60	 add	 ecx, 96			; 00000060H
  01173	e8 00 00 00 00	 call	 ?erase@?$_Tree@V?$_Tmap_traits@V?$basic_string@DU?$char_traits@D@std@@V?$allocator@D@2@@std@@PAVYL_CHTTPDownFile@@U?$less@V?$basic_string@DU?$char_traits@D@std@@V?$allocator@D@2@@std@@@2@V?$allocator@U?$pair@$$CBV?$basic_string@DU?$char_traits@D@std@@V?$allocator@D@2@@std@@PAVYL_CHTTPDownFile@@@std@@@2@$0A@@std@@@std@@QAE?AViterator@12@V312@@Z ; std::_Tree<std::_Tmap_traits<std::basic_string<char,std::char_traits<char>,std::allocator<char> >,YL_CHTTPDownFile *,std::less<std::basic_string<char,std::char_traits<char>,std::allocator<char> > >,std::allocator<std::pair<std::basic_string<char,std::char_traits<char>,std::allocator<char> > const ,YL_CHTTPDownFile *> >,0> >::erase
$L189194:

; 198  : 			}
; 199  : 		}

  01178	e9 1d ff ff ff	 jmp	 $L189184
$L189185:

; 200  : 		sl.Unlock();

  0117d	8d 4d dc	 lea	 ecx, DWORD PTR _sl$188844[ebp]
  01180	e8 00 00 00 00	 call	 ?Unlock@CSingleLock@@QAEHXZ ; CSingleLock::Unlock

; 201  : 	}

  01185	c6 45 fc 00	 mov	 BYTE PTR __$EHRec$[ebp+8], 0
  01189	8d 4d c4	 lea	 ecx, DWORD PTR _vecGidFinish$189040[ebp]
  0118c	e8 00 00 00 00	 call	 ??1?$vector@V?$basic_string@DU?$char_traits@D@std@@V?$allocator@D@2@@std@@V?$allocator@V?$basic_string@DU?$char_traits@D@std@@V?$allocator@D@2@@std@@@2@@std@@QAE@XZ ; std::vector<std::basic_string<char,std::char_traits<char>,std::allocator<char> >,std::allocator<std::basic_string<char,std::char_traits<char>,std::allocator<char> > > >::~vector<std::basic_string<char,std::char_traits<char>,std::allocator<char> >,std::allocator<std::basic_string<char,std::char_traits<char>,std::allocator<char> > > >
  01191	c7 45 fc ff ff
	ff ff		 mov	 DWORD PTR __$EHRec$[ebp+8], -1
  01198	8d 4d dc	 lea	 ecx, DWORD PTR _sl$188844[ebp]
  0119b	e8 00 00 00 00	 call	 ??1CSingleLock@@QAE@XZ	; CSingleLock::~CSingleLock
$L188843:

; 202  : 	CWnd::OnTimer(nIDEvent);

  011a0	8b 4d 08	 mov	 ecx, DWORD PTR _nIDEvent$[ebp]
  011a3	51		 push	 ecx
  011a4	8b 4d ec	 mov	 ecx, DWORD PTR _this$[ebp]
  011a7	e8 00 00 00 00	 call	 ?OnTimer@CWnd@@IAEXI@Z	; CWnd::OnTimer

; 203  : }

  011ac	52		 push	 edx
  011ad	8b cd		 mov	 ecx, ebp
  011af	50		 push	 eax
  011b0	8d 15 00 00 00
	00		 lea	 edx, DWORD PTR $L191116
  011b6	e8 00 00 00 00	 call	 @_RTC_CheckStackVars@8
  011bb	58		 pop	 eax
  011bc	5a		 pop	 edx
  011bd	8b 4d f4	 mov	 ecx, DWORD PTR __$EHRec$[ebp]
  011c0	64 89 0d 00 00
	00 00		 mov	 DWORD PTR fs:__except_list, ecx
  011c7	8b 4d f0	 mov	 ecx, DWORD PTR __$ArrayPad$[ebp]
  011ca	e8 00 00 00 00	 call	 @__security_check_cookie@4
  011cf	5f		 pop	 edi
  011d0	5e		 pop	 esi
  011d1	81 c4 dc 00 00
	00		 add	 esp, 220		; 000000dcH
  011d7	3b ec		 cmp	 ebp, esp
  011d9	e8 00 00 00 00	 call	 __RTC_CheckEsp
  011de	8b e5		 mov	 esp, ebp
  011e0	5d		 pop	 ebp
  011e1	c2 04 00	 ret	 4
$L191116:
  011e4	07 00 00 00	 DD	 7
  011e8	00 00 00 00	 DD	 $L191115
$L191115:
  011ec	dc ff ff ff	 DD	 -36			; ffffffdcH
  011f0	0c 00 00 00	 DD	 12			; 0000000cH
  011f4	00 00 00 00	 DD	 $L191106
  011f8	c4 ff ff ff	 DD	 -60			; ffffffc4H
  011fc	10 00 00 00	 DD	 16			; 00000010H
  01200	00 00 00 00	 DD	 $L191107
  01204	b8 ff ff ff	 DD	 -72			; ffffffb8H
  01208	04 00 00 00	 DD	 4
  0120c	00 00 00 00	 DD	 $L191108
  01210	94 ff ff ff	 DD	 -108			; ffffff94H
  01214	1c 00 00 00	 DD	 28			; 0000001cH
  01218	00 00 00 00	 DD	 $L191109
  0121c	64 ff ff ff	 DD	 -156			; ffffff64H
  01220	1c 00 00 00	 DD	 28			; 0000001cH
  01224	00 00 00 00	 DD	 $L191110
  01228	58 ff ff ff	 DD	 -168			; ffffff58H
  0122c	04 00 00 00	 DD	 4
  01230	00 00 00 00	 DD	 $L191111
  01234	4c ff ff ff	 DD	 -180			; ffffff4cH
  01238	04 00 00 00	 DD	 4
  0123c	00 00 00 00	 DD	 $L191112
$L191112:
  01240	69		 DB	 105			; 00000069H
  01241	74		 DB	 116			; 00000074H
  01242	33		 DB	 51			; 00000033H
  01243	00		 DB	 0
$L191111:
  01244	69		 DB	 105			; 00000069H
  01245	74		 DB	 116			; 00000074H
  01246	32		 DB	 50			; 00000032H
  01247	00		 DB	 0
$L191110:
  01248	73		 DB	 115			; 00000073H
  01249	74		 DB	 116			; 00000074H
  0124a	72		 DB	 114			; 00000072H
  0124b	53		 DB	 83			; 00000053H
  0124c	77		 DB	 119			; 00000077H
  0124d	66		 DB	 102			; 00000066H
  0124e	50		 DB	 80			; 00000050H
  0124f	61		 DB	 97			; 00000061H
  01250	74		 DB	 116			; 00000074H
  01251	68		 DB	 104			; 00000068H
  01252	00		 DB	 0
$L191109:
  01253	73		 DB	 115			; 00000073H
  01254	74		 DB	 116			; 00000074H
  01255	72		 DB	 114			; 00000072H
  01256	47		 DB	 71			; 00000047H
  01257	69		 DB	 105			; 00000069H
  01258	64		 DB	 100			; 00000064H
  01259	00		 DB	 0
$L191108:
  0125a	69		 DB	 105			; 00000069H
  0125b	74		 DB	 116			; 00000074H
  0125c	31		 DB	 49			; 00000031H
  0125d	00		 DB	 0
$L191107:
  0125e	76		 DB	 118			; 00000076H
  0125f	65		 DB	 101			; 00000065H
  01260	63		 DB	 99			; 00000063H
  01261	47		 DB	 71			; 00000047H
  01262	69		 DB	 105			; 00000069H
  01263	64		 DB	 100			; 00000064H
  01264	46		 DB	 70			; 00000046H
  01265	69		 DB	 105			; 00000069H
  01266	6e		 DB	 110			; 0000006eH
  01267	69		 DB	 105			; 00000069H
  01268	73		 DB	 115			; 00000073H
  01269	68		 DB	 104			; 00000068H
  0126a	00		 DB	 0
$L191106:
  0126b	73		 DB	 115			; 00000073H
  0126c	6c		 DB	 108			; 0000006cH
  0126d	00		 DB	 0
_TEXT	ENDS
text$x	SEGMENT
$L191098:
  001a0	8d 4d dc	 lea	 ecx, DWORD PTR _sl$188844[ebp]
  001a3	e9 00 00 00 00	 jmp	 ??1CSingleLock@@QAE@XZ	; CSingleLock::~CSingleLock
$L191099:
  001a8	8d 4d c4	 lea	 ecx, DWORD PTR _vecGidFinish$189040[ebp]
  001ab	e9 00 00 00 00	 jmp	 ??1?$vector@V?$basic_string@DU?$char_traits@D@std@@V?$allocator@D@2@@std@@V?$allocator@V?$basic_string@DU?$char_traits@D@std@@V?$allocator@D@2@@std@@@2@@std@@QAE@XZ ; std::vector<std::basic_string<char,std::char_traits<char>,std::allocator<char> >,std::allocator<std::basic_string<char,std::char_traits<char>,std::allocator<char> > > >::~vector<std::basic_string<char,std::char_traits<char>,std::allocator<char> >,std::allocator<std::basic_string<char,std::char_traits<char>,std::allocator<char> > > >
$L191100:
  001b0	8b f4		 mov	 esi, esp
  001b2	8d 4d 94	 lea	 ecx, DWORD PTR _strGid$189053[ebp]
  001b5	ff 15 00 00 00
	00		 call	 DWORD PTR __imp_??1?$basic_string@DU?$char_traits@D@std@@V?$allocator@D@2@@std@@QAE@XZ
  001bb	3b f4		 cmp	 esi, esp
  001bd	e9 00 00 00 00	 jmp	 __RTC_CheckEsp
$L191101:
  001c2	8b f4		 mov	 esi, esp
  001c4	8d 8d 64 ff ff
	ff		 lea	 ecx, DWORD PTR _strSwfPath$189060[ebp]
  001ca	ff 15 00 00 00
	00		 call	 DWORD PTR __imp_??1?$basic_string@DU?$char_traits@D@std@@V?$allocator@D@2@@std@@QAE@XZ
  001d0	3b f4		 cmp	 esi, esp
  001d2	e9 00 00 00 00	 jmp	 __RTC_CheckEsp
__ehhandler$?OnTimer@HttpDownCtrl@@IAEXI@Z:
  001d7	b8 00 00 00 00	 mov	 eax, OFFSET FLAT:$T191103
  001dc	e9 00 00 00 00	 jmp	 ___CxxFrameHandler
text$x	ENDS
?OnTimer@HttpDownCtrl@@IAEXI@Z ENDP			; HttpDownCtrl::OnTimer
PUBLIC	??0?$allocator@U?$pair@$$CBV?$basic_string@DU?$char_traits@D@std@@V?$allocator@D@2@@std@@PAVYL_CHTTPDownFile@@@std@@@std@@QAE@XZ ; std::allocator<std::pair<std::basic_string<char,std::char_traits<char>,std::allocator<char> > const ,YL_CHTTPDownFile *> >::allocator<std::pair<std::basic_string<char,std::char_traits<char>,std::allocator<char> > const ,YL_CHTTPDownFile *> >
PUBLIC	??0?$_Tree@V?$_Tmap_traits@V?$basic_string@DU?$char_traits@D@std@@V?$allocator@D@2@@std@@PAVYL_CHTTPDownFile@@U?$less@V?$basic_string@DU?$char_traits@D@std@@V?$allocator@D@2@@std@@@2@V?$allocator@U?$pair@$$CBV?$basic_string@DU?$char_traits@D@std@@V?$allocator@D@2@@std@@PAVYL_CHTTPDownFile@@@std@@@2@$0A@@std@@@std@@QAE@ABU?$less@V?$basic_string@DU?$char_traits@D@std@@V?$allocator@D@2@@std@@@1@ABV?$allocator@U?$pair@$$CBV?$basic_string@DU?$char_traits@D@std@@V?$allocator@D@2@@std@@PAVYL_CHTTPDownFile@@@std@@@1@@Z ; std::_Tree<std::_Tmap_traits<std::basic_string<char,std::char_traits<char>,std::allocator<char> >,YL_CHTTPDownFile *,std::less<std::basic_string<char,std::char_traits<char>,std::allocator<char> > >,std::allocator<std::pair<std::basic_string<char,std::char_traits<char>,std::allocator<char> > const ,YL_CHTTPDownFile *> >,0> >::_Tree<std::_Tmap_traits<std::basic_string<char,std::char_traits<char>,std::allocator<char> >,YL_CHTTPDownFile *,std::less<std::basic_string<char,std::char_traits<char>,std::allocator<char> > >,std::allocator<std::pair<std::basic_string<char,std::char_traits<char>,std::allocator<char> > const ,YL_CHTTPDownFile *> >,0> >
; Function compile flags: /Odt /RTCsu
; File d:\program files (x86)\microsoft visual studio .net 2003\vc7\include\map
;	COMDAT ??0?$map@V?$basic_string@DU?$char_traits@D@std@@V?$allocator@D@2@@std@@PAVYL_CHTTPDownFile@@U?$less@V?$basic_string@DU?$char_traits@D@std@@V?$allocator@D@2@@std@@@2@V?$allocator@U?$pair@$$CBV?$basic_string@DU?$char_traits@D@std@@V?$allocator@D@2@@std@@PAVYL_CHTTPDownFile@@@std@@@2@@std@@QAE@XZ
_TEXT	SEGMENT
$T191120 = -6						; size = 1
$T191119 = -5						; size = 1
_this$ = -4						; size = 4
??0?$map@V?$basic_string@DU?$char_traits@D@std@@V?$allocator@D@2@@std@@PAVYL_CHTTPDownFile@@U?$less@V?$basic_string@DU?$char_traits@D@std@@V?$allocator@D@2@@std@@@2@V?$allocator@U?$pair@$$CBV?$basic_string@DU?$char_traits@D@std@@V?$allocator@D@2@@std@@PAVYL_CHTTPDownFile@@@std@@@2@@std@@QAE@XZ PROC NEAR ; std::map<std::basic_string<char,std::char_traits<char>,std::allocator<char> >,YL_CHTTPDownFile *,std::less<std::basic_string<char,std::char_traits<char>,std::allocator<char> > >,std::allocator<std::pair<std::basic_string<char,std::char_traits<char>,std::allocator<char> > const ,YL_CHTTPDownFile *> > >::map<std::basic_string<char,std::char_traits<char>,std::allocator<char> >,YL_CHTTPDownFile *,std::less<std::basic_string<char,std::char_traits<char>,std::allocator<char> > >,std::allocator<std::pair<std::basic_string<char,std::char_traits<char>,std::allocator<char> > const ,YL_CHTTPDownFile *> > >, COMDAT
; _this$ = ecx

; 102  : 		{	// construct empty map from defaults

  00000	55		 push	 ebp
  00001	8b ec		 mov	 ebp, esp
  00003	83 ec 08	 sub	 esp, 8
  00006	c7 45 f8 cc cc
	cc cc		 mov	 DWORD PTR [ebp-8], -858993460 ; ccccccccH
  0000d	c7 45 fc cc cc
	cc cc		 mov	 DWORD PTR [ebp-4], -858993460 ; ccccccccH
  00014	89 4d fc	 mov	 DWORD PTR _this$[ebp], ecx
  00017	8d 4d fb	 lea	 ecx, DWORD PTR $T191119[ebp]
  0001a	e8 00 00 00 00	 call	 ??0?$allocator@U?$pair@$$CBV?$basic_string@DU?$char_traits@D@std@@V?$allocator@D@2@@std@@PAVYL_CHTTPDownFile@@@std@@@std@@QAE@XZ ; std::allocator<std::pair<std::basic_string<char,std::char_traits<char>,std::allocator<char> > const ,YL_CHTTPDownFile *> >::allocator<std::pair<std::basic_string<char,std::char_traits<char>,std::allocator<char> > const ,YL_CHTTPDownFile *> >
  0001f	50		 push	 eax
  00020	8d 45 fa	 lea	 eax, DWORD PTR $T191120[ebp]
  00023	50		 push	 eax
  00024	8b 4d fc	 mov	 ecx, DWORD PTR _this$[ebp]
  00027	e8 00 00 00 00	 call	 ??0?$_Tree@V?$_Tmap_traits@V?$basic_string@DU?$char_traits@D@std@@V?$allocator@D@2@@std@@PAVYL_CHTTPDownFile@@U?$less@V?$basic_string@DU?$char_traits@D@std@@V?$allocator@D@2@@std@@@2@V?$allocator@U?$pair@$$CBV?$basic_string@DU?$char_traits@D@std@@V?$allocator@D@2@@std@@PAVYL_CHTTPDownFile@@@std@@@2@$0A@@std@@@std@@QAE@ABU?$less@V?$basic_string@DU?$char_traits@D@std@@V?$allocator@D@2@@std@@@1@ABV?$allocator@U?$pair@$$CBV?$basic_string@DU?$char_traits@D@std@@V?$allocator@D@2@@std@@PAVYL_CHTTPDownFile@@@std@@@1@@Z ; std::_Tree<std::_Tmap_traits<std::basic_string<char,std::char_traits<char>,std::allocator<char> >,YL_CHTTPDownFile *,std::less<std::basic_string<char,std::char_traits<char>,std::allocator<char> > >,std::allocator<std::pair<std::basic_string<char,std::char_traits<char>,std::allocator<char> > const ,YL_CHTTPDownFile *> >,0> >::_Tree<std::_Tmap_traits<std::basic_string<char,std::char_traits<char>,std::allocator<char> >,YL_CHTTPDownFile *,std::less<std::basic_string<char,std::char_traits<char>,std::allocator<char> > >,std::allocator<std::pair<std::basic_string<char,std::char_traits<char>,std::allocator<char> > const ,YL_CHTTPDownFile *> >,0> >

; 103  : 		}

  0002c	8b 45 fc	 mov	 eax, DWORD PTR _this$[ebp]
  0002f	83 c4 08	 add	 esp, 8
  00032	3b ec		 cmp	 ebp, esp
  00034	e8 00 00 00 00	 call	 __RTC_CheckEsp
  00039	8b e5		 mov	 esp, ebp
  0003b	5d		 pop	 ebp
  0003c	c3		 ret	 0
??0?$map@V?$basic_string@DU?$char_traits@D@std@@V?$allocator@D@2@@std@@PAVYL_CHTTPDownFile@@U?$less@V?$basic_string@DU?$char_traits@D@std@@V?$allocator@D@2@@std@@@2@V?$allocator@U?$pair@$$CBV?$basic_string@DU?$char_traits@D@std@@V?$allocator@D@2@@std@@PAVYL_CHTTPDownFile@@@std@@@2@@std@@QAE@XZ ENDP ; std::map<std::basic_string<char,std::char_traits<char>,std::allocator<char> >,YL_CHTTPDownFile *,std::less<std::basic_string<char,std::char_traits<char>,std::allocator<char> > >,std::allocator<std::pair<std::basic_string<char,std::char_traits<char>,std::allocator<char> > const ,YL_CHTTPDownFile *> > >::map<std::basic_string<char,std::char_traits<char>,std::allocator<char> >,YL_CHTTPDownFile *,std::less<std::basic_string<char,std::char_traits<char>,std::allocator<char> > >,std::allocator<std::pair<std::basic_string<char,std::char_traits<char>,std::allocator<char> > const ,YL_CHTTPDownFile *> > >
_TEXT	ENDS
PUBLIC	??R?$less@V?$basic_string@DU?$char_traits@D@std@@V?$allocator@D@2@@std@@@std@@QBE_NABV?$basic_string@DU?$char_traits@D@std@@V?$allocator@D@2@@1@0@Z ; std::less<std::basic_string<char,std::char_traits<char>,std::allocator<char> > >::operator()
PUBLIC	?_Key@?$_Tree@V?$_Tmap_traits@V?$basic_string@DU?$char_traits@D@std@@V?$allocator@D@2@@std@@PAVYL_CHTTPDownFile@@U?$less@V?$basic_string@DU?$char_traits@D@std@@V?$allocator@D@2@@std@@@2@V?$allocator@U?$pair@$$CBV?$basic_string@DU?$char_traits@D@std@@V?$allocator@D@2@@std@@PAVYL_CHTTPDownFile@@@std@@@2@$0A@@std@@@std@@KAABV?$basic_string@DU?$char_traits@D@std@@V?$allocator@D@2@@2@PAU_Node@?$_Tree_nod@V?$_Tmap_traits@V?$basic_string@DU?$char_traits@D@std@@V?$allocator@D@2@@std@@PAVYL_CHTTPDownFile@@U?$less@V?$basic_string@DU?$char_traits@D@std@@V?$allocator@D@2@@std@@@2@V?$allocator@U?$pair@$$CBV?$basic_string@DU?$char_traits@D@std@@V?$allocator@D@2@@std@@PAVYL_CHTTPDownFile@@@std@@@2@$0A@@std@@@2@@Z ; std::_Tree<std::_Tmap_traits<std::basic_string<char,std::char_traits<char>,std::allocator<char> >,YL_CHTTPDownFile *,std::less<std::basic_string<char,std::char_traits<char>,std::allocator<char> > >,std::allocator<std::pair<std::basic_string<char,std::char_traits<char>,std::allocator<char> > const ,YL_CHTTPDownFile *> >,0> >::_Key
