; Listing generated by Microsoft (R) Optimizing Compiler Version 13.10.3077 

	TITLE	.\src\LayoutMgr\ChangeColor\IChangeColorMgr.cpp
	.386P
include listing.inc
if @Version gt 510
.model FLAT
else
_TEXT	SEGMENT PARA USE32 PUBLIC 'CODE'
_TEXT	ENDS
_DATA	SEGMENT DWORD USE32 PUBLIC 'DATA'
_DATA	ENDS
CONST	SEGMENT DWORD USE32 PUBLIC 'CONST'
CONST	ENDS
_BSS	SEGMENT DWORD USE32 PUBLIC 'BSS'
_BSS	ENDS
$$SYMBOLS	SEGMENT BYTE USE32 'DEBSYM'
$$SYMBOLS	ENDS
_TLS	SEGMENT DWORD USE32 PUBLIC 'TLS'
_TLS	ENDS
;	COMDAT ??_C@_0BL@MMAJDJCB@pszBuffer?$FLnNewLength?$FN?5?$DN?$DN?50?$AA@
CONST	SEGMENT DWORD USE32 PUBLIC 'CONST'
CONST	ENDS
;	COMDAT ??_C@_0M@GOJCFFEC@iStart?5?$DO?$DN?50?$AA@
CONST	SEGMENT DWORD USE32 PUBLIC 'CONST'
CONST	ENDS
;	COMDAT ??_C@_0EN@IBFBLEEG@D?3?2Program?5Files?5?$CIx86?$CJ?2Microsoft@
CONST	SEGMENT DWORD USE32 PUBLIC 'CONST'
CONST	ENDS
;	COMDAT ??_C@_0BK@JOOHECM@nNewLength?5?$DM?$DN?5GetLength?$CI?$CJ?$AA@
CONST	SEGMENT DWORD USE32 PUBLIC 'CONST'
CONST	ENDS
;	COMDAT ??_C@_0BI@GIMJKKKN@AtlIsValidString?$CI?5psz?5?$CJ?$AA@
CONST	SEGMENT DWORD USE32 PUBLIC 'CONST'
CONST	ENDS
;	COMDAT ??_C@_0DC@KJIHKHDE@?$CInCount?5?$DN?$DN?50?$CJ?5?$HM?$HM?5?$CI?$CIiFirst?$CLnCount@
CONST	SEGMENT DWORD USE32 PUBLIC 'CONST'
CONST	ENDS
;	COMDAT ??_C@_0BD@OLBABOEK@vector?$DMT?$DO?5too?5long?$AA@
CONST	SEGMENT DWORD USE32 PUBLIC 'CONST'
CONST	ENDS
rdata$r	SEGMENT DWORD USE32 PUBLIC 'CONST'
rdata$r	ENDS
xdata$x	SEGMENT DWORD USE32 PUBLIC 'CONST'
xdata$x	ENDS
text$AFX_COL1	SEGMENT PARA USE32 PUBLIC ''
text$AFX_COL1	ENDS
text$yc	SEGMENT PARA USE32 PUBLIC 'CODE'
text$yc	ENDS
CRT$XCA	SEGMENT DWORD USE32 PUBLIC 'DATA'
CRT$XCA	ENDS
CRT$XCU	SEGMENT DWORD USE32 PUBLIC 'DATA'
CRT$XCU	ENDS
CRT$XCL	SEGMENT DWORD USE32 PUBLIC 'DATA'
CRT$XCL	ENDS
CRT$XCC	SEGMENT DWORD USE32 PUBLIC 'DATA'
CRT$XCC	ENDS
CRT$XCZ	SEGMENT DWORD USE32 PUBLIC 'DATA'
CRT$XCZ	ENDS
text$yd	SEGMENT PARA USE32 PUBLIC 'CODE'
text$yd	ENDS
ATL$__m	SEGMENT DWORD USE32 PUBLIC ''
ATL$__m	ENDS
ATL$__z	SEGMENT DWORD USE32 PUBLIC ''
ATL$__z	ENDS
ATL$__a	SEGMENT DWORD USE32 PUBLIC ''
ATL$__a	ENDS
;	COMDAT ??1DIBINFO@@UAE@XZ
_TEXT	SEGMENT PARA USE32 PUBLIC 'CODE'
_TEXT	ENDS
;	COMDAT ??_GDIBINFO@@UAEPAXI@Z
_TEXT	SEGMENT PARA USE32 PUBLIC 'CODE'
_TEXT	ENDS
;	COMDAT ?SetAdjustValue@CBitMapOperate@@QAEXH@Z
_TEXT	SEGMENT PARA USE32 PUBLIC 'CODE'
_TEXT	ENDS
;	COMDAT ??1CGdiPlusBitmap@@UAE@XZ
_TEXT	SEGMENT PARA USE32 PUBLIC 'CODE'
_TEXT	ENDS
;	COMDAT ?Empty@CGdiPlusBitmap@@QAEXXZ
_TEXT	SEGMENT PARA USE32 PUBLIC 'CODE'
_TEXT	ENDS
;	COMDAT ?Load@CGdiPlusBitmap@@QAE_NPB_W@Z
_TEXT	SEGMENT PARA USE32 PUBLIC 'CODE'
_TEXT	ENDS
;	COMDAT ??_GCGdiPlusBitmap@@UAEPAXI@Z
_TEXT	SEGMENT PARA USE32 PUBLIC 'CODE'
_TEXT	ENDS
;	COMDAT ??1IData@@MAE@XZ
_TEXT	SEGMENT PARA USE32 PUBLIC 'CODE'
_TEXT	ENDS
;	COMDAT ?DataAppStart@IData@@UAEXXZ
_TEXT	SEGMENT PARA USE32 PUBLIC 'CODE'
_TEXT	ENDS
;	COMDAT ?DataAppExit@IData@@UAEXXZ
_TEXT	SEGMENT PARA USE32 PUBLIC 'CODE'
_TEXT	ENDS
;	COMDAT ??_GIData@@MAEPAXI@Z
_TEXT	SEGMENT PARA USE32 PUBLIC 'CODE'
_TEXT	ENDS
;	COMDAT ?OnCliekButton@IEventListener@@UAEXPAVCButton@@@Z
_TEXT	SEGMENT PARA USE32 PUBLIC 'CODE'
_TEXT	ENDS
;	COMDAT ?OnCliekSlide@IEventListener@@UAEXPAVCSliderCtrl@@@Z
_TEXT	SEGMENT PARA USE32 PUBLIC 'CODE'
_TEXT	ENDS
;	COMDAT ?OnSendChangeColor@IEventListener@@UAEXKI_N@Z
_TEXT	SEGMENT PARA USE32 PUBLIC 'CODE'
_TEXT	ENDS
;	COMDAT ?OnSendChangeSkin@IEventListener@@UAEXV?$CStringT@DV?$StrTraitMFC_DLL@DV?$ChTraitsCRT@D@ATL@@@@@ATL@@@Z
_TEXT	SEGMENT PARA USE32 PUBLIC 'CODE'
_TEXT	ENDS
;	COMDAT ?OnSendChangeSubject@IEventListener@@UAEXV?$CStringT@DV?$StrTraitMFC_DLL@DV?$ChTraitsCRT@D@ATL@@@@@ATL@@0@Z
_TEXT	SEGMENT PARA USE32 PUBLIC 'CODE'
_TEXT	ENDS
;	COMDAT ?OnChangeSkinAndSub@IEventListener@@UAEXABV?$CStringT@DV?$StrTraitMFC_DLL@DV?$ChTraitsCRT@D@ATL@@@@@ATL@@0@Z
_TEXT	SEGMENT PARA USE32 PUBLIC 'CODE'
_TEXT	ENDS
;	COMDAT ?OnStartDownSubject@IEventListener@@UAEXABV?$CStringT@DV?$StrTraitMFC_DLL@DV?$ChTraitsCRT@D@ATL@@@@@ATL@@@Z
_TEXT	SEGMENT PARA USE32 PUBLIC 'CODE'
_TEXT	ENDS
;	COMDAT ?OnFinishDownSubject@IEventListener@@UAEXH@Z
_TEXT	SEGMENT PARA USE32 PUBLIC 'CODE'
_TEXT	ENDS
;	COMDAT ?OnChangeSkinTemplate@IWndEventListener@@UAE_NV?$CStringT@DV?$StrTraitMFC_DLL@DV?$ChTraitsCRT@D@ATL@@@@@ATL@@@Z
_TEXT	SEGMENT PARA USE32 PUBLIC 'CODE'
_TEXT	ENDS
;	COMDAT ?OnchangeColor@IWndEventListener@@UAEXKI@Z
_TEXT	SEGMENT PARA USE32 PUBLIC 'CODE'
_TEXT	ENDS
;	COMDAT ?SetListener@CMainSkinWnd@@QAEXPAVIEventListener@@@Z
_TEXT	SEGMENT PARA USE32 PUBLIC 'CODE'
_TEXT	ENDS
;	COMDAT ?SetWndListener@CMainSkinWnd@@QAEXPAVIWndEventListener@@@Z
_TEXT	SEGMENT PARA USE32 PUBLIC 'CODE'
_TEXT	ENDS
;	COMDAT ??1CGdiPlusBitmap@CSkinButton@@UAE@XZ
_TEXT	SEGMENT PARA USE32 PUBLIC 'CODE'
_TEXT	ENDS
;	COMDAT ?Empty@CGdiPlusBitmap@CSkinButton@@QAEXXZ
_TEXT	SEGMENT PARA USE32 PUBLIC 'CODE'
_TEXT	ENDS
;	COMDAT ?Load@CGdiPlusBitmap@CSkinButton@@QAE_NPB_W@Z
_TEXT	SEGMENT PARA USE32 PUBLIC 'CODE'
_TEXT	ENDS
;	COMDAT ??_GCGdiPlusBitmap@CSkinButton@@UAEPAXI@Z
_TEXT	SEGMENT PARA USE32 PUBLIC 'CODE'
_TEXT	ENDS
;	COMDAT ?SetSendEventListener@CSkinWnd@@QAEXPAVIEventListener@@@Z
_TEXT	SEGMENT PARA USE32 PUBLIC 'CODE'
_TEXT	ENDS
;	COMDAT ?SetSendEventListener@CSubjectChildWnd@@QAEXPAVIEventListener@@@Z
_TEXT	SEGMENT PARA USE32 PUBLIC 'CODE'
_TEXT	ENDS
;	COMDAT ??1HTTPObserver@@UAE@XZ
_TEXT	SEGMENT PARA USE32 PUBLIC 'CODE'
_TEXT	ENDS
;	COMDAT ?HTTPOb_DownStart@HTTPObserver@@UAEXPBD0I@Z
_TEXT	SEGMENT PARA USE32 PUBLIC 'CODE'
_TEXT	ENDS
;	COMDAT ?HTTPOb_DownFinish@HTTPObserver@@UAEXPBD@Z
_TEXT	SEGMENT PARA USE32 PUBLIC 'CODE'
_TEXT	ENDS
;	COMDAT ?HTTPOb_DownFailed@HTTPObserver@@UAEXPBDW4HTTP_DOWN_FAILED_REASON@@@Z
_TEXT	SEGMENT PARA USE32 PUBLIC 'CODE'
_TEXT	ENDS
;	COMDAT ?HTTPOb_DownProgress@HTTPObserver@@UAEXPBDII@Z
_TEXT	SEGMENT PARA USE32 PUBLIC 'CODE'
_TEXT	ENDS
;	COMDAT ?HTTPOb_DownloadPause@HTTPObserver@@UAEXPBD@Z
_TEXT	SEGMENT PARA USE32 PUBLIC 'CODE'
_TEXT	ENDS
;	COMDAT ??_GHTTPObserver@@UAEPAXI@Z
_TEXT	SEGMENT PARA USE32 PUBLIC 'CODE'
_TEXT	ENDS
;	COMDAT ?SetEventListener@CDownloadPercentWnd@@QAEXPAVIEventListener@@@Z
_TEXT	SEGMENT PARA USE32 PUBLIC 'CODE'
_TEXT	ENDS
;	COMDAT ??1P2PObserver@@UAE@XZ
_TEXT	SEGMENT PARA USE32 PUBLIC 'CODE'
_TEXT	ENDS
;	COMDAT ?P2POb_DownStart@P2PObserver@@UAEXABV?$basic_string@DU?$char_traits@D@std@@V?$allocator@D@2@@std@@PBDI@Z
_TEXT	SEGMENT PARA USE32 PUBLIC 'CODE'
_TEXT	ENDS
;	COMDAT ?P2POb_DownFinish@P2PObserver@@UAEXABV?$basic_string@DU?$char_traits@D@std@@V?$allocator@D@2@@std@@@Z
_TEXT	SEGMENT PARA USE32 PUBLIC 'CODE'
_TEXT	ENDS
;	COMDAT ?P2POb_DownFailed@P2PObserver@@UAEXABV?$basic_string@DU?$char_traits@D@std@@V?$allocator@D@2@@std@@W4P2P_DOWN_FAILED_REASON@@@Z
_TEXT	SEGMENT PARA USE32 PUBLIC 'CODE'
_TEXT	ENDS
;	COMDAT ?P2POb_DownProgress@P2PObserver@@UAEXABV?$basic_string@DU?$char_traits@D@std@@V?$allocator@D@2@@std@@III@Z
_TEXT	SEGMENT PARA USE32 PUBLIC 'CODE'
_TEXT	ENDS
;	COMDAT ?P2POb_DownPause@P2PObserver@@UAEXABV?$basic_string@DU?$char_traits@D@std@@V?$allocator@D@2@@std@@@Z
_TEXT	SEGMENT PARA USE32 PUBLIC 'CODE'
_TEXT	ENDS
;	COMDAT ?P2POb_SigChange@P2PObserver@@UAEXABV?$basic_string@DU?$char_traits@D@std@@V?$allocator@D@2@@std@@0PBD@Z
_TEXT	SEGMENT PARA USE32 PUBLIC 'CODE'
_TEXT	ENDS
;	COMDAT ??_GP2PObserver@@UAEPAXI@Z
_TEXT	SEGMENT PARA USE32 PUBLIC 'CODE'
_TEXT	ENDS
;	COMDAT ?ILayoutChangeOb_LayerChanged@ILayoutChangeObserver@@UAEXV?$basic_string@DU?$char_traits@D@std@@V?$allocator@D@2@@std@@00@Z
_TEXT	SEGMENT PARA USE32 PUBLIC 'CODE'
_TEXT	ENDS
;	COMDAT ?ILayoutChangeOb_PaneChanged@ILayoutChangeObserver@@UAEXV?$basic_string@DU?$char_traits@D@std@@V?$allocator@D@2@@std@@0@Z
_TEXT	SEGMENT PARA USE32 PUBLIC 'CODE'
_TEXT	ENDS
;	COMDAT ?ILayoutChangeOb_SkinChanged@ILayoutChangeObserver@@UAEXV?$basic_string@DU?$char_traits@D@std@@V?$allocator@D@2@@std@@0@Z
_TEXT	SEGMENT PARA USE32 PUBLIC 'CODE'
_TEXT	ENDS
;	COMDAT ?ILayoutChangeOb_ColorChanged@ILayoutChangeObserver@@UAEXXZ
_TEXT	SEGMENT PARA USE32 PUBLIC 'CODE'
_TEXT	ENDS
;	COMDAT ?ILayoutChangeOb_ColorChanging@ILayoutChangeObserver@@UAEXXZ
_TEXT	SEGMENT PARA USE32 PUBLIC 'CODE'
_TEXT	ENDS
;	COMDAT ?ILayoutChangeOb_UpdateLayout@ILayoutChangeObserver@@UAEXPAUHWND__@@@Z
_TEXT	SEGMENT PARA USE32 PUBLIC 'CODE'
_TEXT	ENDS
;	COMDAT ?ILayoutChangeOb_InitFinished@ILayoutChangeObserver@@UAEXXZ
_TEXT	SEGMENT PARA USE32 PUBLIC 'CODE'
_TEXT	ENDS
;	COMDAT ?ILayoutChangeOb_InitBegin@ILayoutChangeObserver@@UAEXXZ
_TEXT	SEGMENT PARA USE32 PUBLIC 'CODE'
_TEXT	ENDS
;	COMDAT ?GetClsid@CShockwaveFlash@@QAEABU_GUID@@XZ
_TEXT	SEGMENT PARA USE32 PUBLIC 'CODE'
_TEXT	ENDS
;	COMDAT ?GetSkinWnd@CSkinMgrV1@@UAEPAVCWnd@@XZ
_TEXT	SEGMENT PARA USE32 PUBLIC 'CODE'
_TEXT	ENDS
;	COMDAT _$E5
text$yc	SEGMENT PARA USE32 PUBLIC 'CODE'
text$yc	ENDS
;	COMDAT ?SetMsg@CDialogMsg@@QAEXABV?$CStringT@DV?$StrTraitMFC_DLL@DV?$ChTraitsCRT@D@ATL@@@@@ATL@@@Z
_TEXT	SEGMENT PARA USE32 PUBLIC 'CODE'
_TEXT	ENDS
;	COMDAT ??_GCSkinMgrV1@@UAEPAXI@Z
_TEXT	SEGMENT PARA USE32 PUBLIC 'CODE'
_TEXT	ENDS
;	COMDAT ??0IChangeColorMgr@@QAE@XZ
_TEXT	SEGMENT PARA USE32 PUBLIC 'CODE'
_TEXT	ENDS
;	COMDAT ??0P2PObserver@@QAE@XZ
_TEXT	SEGMENT PARA USE32 PUBLIC 'CODE'
_TEXT	ENDS
;	COMDAT ??0ILayoutChangeObserver@@QAE@XZ
_TEXT	SEGMENT PARA USE32 PUBLIC 'CODE'
_TEXT	ENDS
;	COMDAT ??1ILayoutChangeObserver@@UAE@XZ
_TEXT	SEGMENT PARA USE32 PUBLIC 'CODE'
_TEXT	ENDS
;	COMDAT ??0IWndEventListener@@QAE@XZ
_TEXT	SEGMENT PARA USE32 PUBLIC 'CODE'
_TEXT	ENDS
;	COMDAT ??0IEventListener@@QAE@XZ
_TEXT	SEGMENT PARA USE32 PUBLIC 'CODE'
_TEXT	ENDS
;	COMDAT ??_GILayoutChangeObserver@@UAEPAXI@Z
_TEXT	SEGMENT PARA USE32 PUBLIC 'CODE'
_TEXT	ENDS
;	COMDAT ??0IMessageObserver@@QAE@XZ
_TEXT	SEGMENT PARA USE32 PUBLIC 'CODE'
_TEXT	ENDS
;	COMDAT ??HATL@@YA?AV?$CStringT@DV?$StrTraitMFC_DLL@DV?$ChTraitsCRT@D@ATL@@@@@0@ABV10@PBD@Z
_TEXT	SEGMENT PARA USE32 PUBLIC 'CODE'
_TEXT	ENDS
;	COMDAT ??HATL@@YA?AV?$CStringT@DV?$StrTraitMFC_DLL@DV?$ChTraitsCRT@D@ATL@@@@@0@PBDABV10@@Z
_TEXT	SEGMENT PARA USE32 PUBLIC 'CODE'
_TEXT	ENDS
;	COMDAT ??9ATL@@YA_NABV?$CStringT@DV?$StrTraitMFC_DLL@DV?$ChTraitsCRT@D@ATL@@@@@0@PBD@Z
_TEXT	SEGMENT PARA USE32 PUBLIC 'CODE'
_TEXT	ENDS
;	COMDAT ?size@?$vector@UOneSubject@@V?$allocator@UOneSubject@@@std@@@std@@QBEIXZ
_TEXT	SEGMENT PARA USE32 PUBLIC 'CODE'
_TEXT	ENDS
;	COMDAT ??A?$vector@UOneSubject@@V?$allocator@UOneSubject@@@std@@@std@@QAEAAUOneSubject@@I@Z
_TEXT	SEGMENT PARA USE32 PUBLIC 'CODE'
_TEXT	ENDS
;	COMDAT ??B?$CComPtrBase@UITypeInfo2@@@ATL@@QBEPAUITypeInfo2@@XZ
_TEXT	SEGMENT PARA USE32 PUBLIC 'CODE'
_TEXT	ENDS
;	COMDAT ?equal@?$istreambuf_iterator@DU?$char_traits@D@std@@@std@@QBE_NABV12@@Z
_TEXT	SEGMENT PARA USE32 PUBLIC 'CODE'
_TEXT	ENDS
;	COMDAT ?equal@?$istreambuf_iterator@_WU?$char_traits@_W@std@@@std@@QBE_NABV12@@Z
_TEXT	SEGMENT PARA USE32 PUBLIC 'CODE'
_TEXT	ENDS
;	COMDAT ??0?$vector@PAVIChangeSkinEventListener@@V?$allocator@PAVIChangeSkinEventListener@@@std@@@std@@QAE@XZ
_TEXT	SEGMENT PARA USE32 PUBLIC 'CODE'
_TEXT	ENDS
;	COMDAT ??1?$vector@PAVIChangeSkinEventListener@@V?$allocator@PAVIChangeSkinEventListener@@@std@@@std@@QAE@XZ
_TEXT	SEGMENT PARA USE32 PUBLIC 'CODE'
_TEXT	ENDS
;	COMDAT ?begin@?$vector@PAVIChangeSkinEventListener@@V?$allocator@PAVIChangeSkinEventListener@@@std@@@std@@QAE?AViterator@12@XZ
_TEXT	SEGMENT PARA USE32 PUBLIC 'CODE'
_TEXT	ENDS
;	COMDAT ?end@?$vector@PAVIChangeSkinEventListener@@V?$allocator@PAVIChangeSkinEventListener@@@std@@@std@@QAE?AViterator@12@XZ
_TEXT	SEGMENT PARA USE32 PUBLIC 'CODE'
_TEXT	ENDS
;	COMDAT ?size@?$vector@PAVIChangeSkinEventListener@@V?$allocator@PAVIChangeSkinEventListener@@@std@@@std@@QBEIXZ
_TEXT	SEGMENT PARA USE32 PUBLIC 'CODE'
_TEXT	ENDS
;	COMDAT ??A?$vector@PAVIChangeSkinEventListener@@V?$allocator@PAVIChangeSkinEventListener@@@std@@@std@@QAEAAPAVIChangeSkinEventListener@@I@Z
_TEXT	SEGMENT PARA USE32 PUBLIC 'CODE'
_TEXT	ENDS
;	COMDAT ?push_back@?$vector@PAVIChangeSkinEventListener@@V?$allocator@PAVIChangeSkinEventListener@@@std@@@std@@QAEXABQAVIChangeSkinEventListener@@@Z
_TEXT	SEGMENT PARA USE32 PUBLIC 'CODE'
_TEXT	ENDS
;	COMDAT ?erase@?$vector@PAVIChangeSkinEventListener@@V?$allocator@PAVIChangeSkinEventListener@@@std@@@std@@QAE?AViterator@12@V312@@Z
_TEXT	SEGMENT PARA USE32 PUBLIC 'CODE'
_TEXT	ENDS
;	COMDAT ??Diterator@?$vector@PAVIChangeSkinEventListener@@V?$allocator@PAVIChangeSkinEventListener@@@std@@@std@@QBEAAPAVIChangeSkinEventListener@@XZ
_TEXT	SEGMENT PARA USE32 PUBLIC 'CODE'
_TEXT	ENDS
;	COMDAT ??Eiterator@?$vector@PAVIChangeSkinEventListener@@V?$allocator@PAVIChangeSkinEventListener@@@std@@@std@@QAE?AV012@H@Z
_TEXT	SEGMENT PARA USE32 PUBLIC 'CODE'
_TEXT	ENDS
;	COMDAT ??9const_iterator@?$vector@PAVIChangeSkinEventListener@@V?$allocator@PAVIChangeSkinEventListener@@@std@@@std@@QBE_NABV012@@Z
_TEXT	SEGMENT PARA USE32 PUBLIC 'CODE'
_TEXT	ENDS
;	COMDAT ??0?$vector@V?$basic_string@DU?$char_traits@D@std@@V?$allocator@D@2@@std@@V?$allocator@V?$basic_string@DU?$char_traits@D@std@@V?$allocator@D@2@@std@@@2@@std@@QAE@XZ
_TEXT	SEGMENT PARA USE32 PUBLIC 'CODE'
_TEXT	ENDS
;	COMDAT ??1?$vector@V?$basic_string@DU?$char_traits@D@std@@V?$allocator@D@2@@std@@V?$allocator@V?$basic_string@DU?$char_traits@D@std@@V?$allocator@D@2@@std@@@2@@std@@QAE@XZ
_TEXT	SEGMENT PARA USE32 PUBLIC 'CODE'
_TEXT	ENDS
;	COMDAT ?CharNextA@?$ChTraitsCRT@D@ATL@@SAPADPBD@Z
_TEXT	SEGMENT PARA USE32 PUBLIC 'CODE'
_TEXT	ENDS
;	COMDAT ?StringFindString@?$ChTraitsCRT@D@ATL@@SAPBDPBD0@Z
_TEXT	SEGMENT PARA USE32 PUBLIC 'CODE'
_TEXT	ENDS
;	COMDAT ?StringFindString@?$ChTraitsCRT@D@ATL@@SAPADPADPBD@Z
_TEXT	SEGMENT PARA USE32 PUBLIC 'CODE'
_TEXT	ENDS
;	COMDAT ?StringFindChar@?$ChTraitsCRT@D@ATL@@SAPBDPBDD@Z
_TEXT	SEGMENT PARA USE32 PUBLIC 'CODE'
_TEXT	ENDS
;	COMDAT ?StringFindCharRev@?$ChTraitsCRT@D@ATL@@SAPBDPBDD@Z
_TEXT	SEGMENT PARA USE32 PUBLIC 'CODE'
_TEXT	ENDS
;	COMDAT ?StringSpanIncluding@?$ChTraitsCRT@D@ATL@@SAHPBD0@Z
_TEXT	SEGMENT PARA USE32 PUBLIC 'CODE'
_TEXT	ENDS
;	COMDAT ?StringSpanExcluding@?$ChTraitsCRT@D@ATL@@SAHPBD0@Z
_TEXT	SEGMENT PARA USE32 PUBLIC 'CODE'
_TEXT	ENDS
;	COMDAT ?SafeStringLen@?$ChTraitsCRT@D@ATL@@SAHPBD@Z
_TEXT	SEGMENT PARA USE32 PUBLIC 'CODE'
_TEXT	ENDS
;	COMDAT ?begin@?$vector@UOneSubject@@V?$allocator@UOneSubject@@@std@@@std@@QAE?AViterator@12@XZ
_TEXT	SEGMENT PARA USE32 PUBLIC 'CODE'
_TEXT	ENDS
;	COMDAT ??0?$allocator@V?$basic_string@DU?$char_traits@D@std@@V?$allocator@D@2@@std@@@std@@QAE@XZ
_TEXT	SEGMENT PARA USE32 PUBLIC 'CODE'
_TEXT	ENDS
;	COMDAT ?capacity@?$vector@PAVIChangeSkinEventListener@@V?$allocator@PAVIChangeSkinEventListener@@@std@@@std@@QBEIXZ
_TEXT	SEGMENT PARA USE32 PUBLIC 'CODE'
_TEXT	ENDS
;	COMDAT ?insert@?$vector@PAVIChangeSkinEventListener@@V?$allocator@PAVIChangeSkinEventListener@@@std@@@std@@QAE?AViterator@12@V312@ABQAVIChangeSkinEventListener@@@Z
_TEXT	SEGMENT PARA USE32 PUBLIC 'CODE'
_TEXT	ENDS
;	COMDAT ?_Buy@?$vector@PAVIChangeSkinEventListener@@V?$allocator@PAVIChangeSkinEventListener@@@std@@@std@@IAE_NI@Z
_TEXT	SEGMENT PARA USE32 PUBLIC 'CODE'
_TEXT	ENDS
;	COMDAT ?_Destroy@?$vector@PAVIChangeSkinEventListener@@V?$allocator@PAVIChangeSkinEventListener@@@std@@@std@@IAEXPAPAVIChangeSkinEventListener@@0@Z
_TEXT	SEGMENT PARA USE32 PUBLIC 'CODE'
_TEXT	ENDS
;	COMDAT ?_Tidy@?$vector@PAVIChangeSkinEventListener@@V?$allocator@PAVIChangeSkinEventListener@@@std@@@std@@IAEXXZ
_TEXT	SEGMENT PARA USE32 PUBLIC 'CODE'
_TEXT	ENDS
;	COMDAT ?_Ufill@?$vector@PAVIChangeSkinEventListener@@V?$allocator@PAVIChangeSkinEventListener@@@std@@@std@@IAEPAPAVIChangeSkinEventListener@@PAPAV3@IABQAV3@@Z
_TEXT	SEGMENT PARA USE32 PUBLIC 'CODE'
_TEXT	ENDS
;	COMDAT ??0?$_Vector_val@PAVIChangeSkinEventListener@@V?$allocator@PAVIChangeSkinEventListener@@@std@@@std@@IAE@V?$allocator@PAVIChangeSkinEventListener@@@1@@Z
_TEXT	SEGMENT PARA USE32 PUBLIC 'CODE'
_TEXT	ENDS
;	COMDAT ??0?$allocator@PAVIChangeSkinEventListener@@@std@@QAE@XZ
_TEXT	SEGMENT PARA USE32 PUBLIC 'CODE'
_TEXT	ENDS
;	COMDAT ??0iterator@?$vector@PAVIChangeSkinEventListener@@V?$allocator@PAVIChangeSkinEventListener@@@std@@@std@@QAE@PAPAVIChangeSkinEventListener@@@Z
_TEXT	SEGMENT PARA USE32 PUBLIC 'CODE'
_TEXT	ENDS
;	COMDAT ??Eiterator@?$vector@PAVIChangeSkinEventListener@@V?$allocator@PAVIChangeSkinEventListener@@@std@@@std@@QAEAAV012@XZ
_TEXT	SEGMENT PARA USE32 PUBLIC 'CODE'
_TEXT	ENDS
;	COMDAT ??Hiterator@?$vector@PAVIChangeSkinEventListener@@V?$allocator@PAVIChangeSkinEventListener@@@std@@@std@@QBE?AV012@H@Z
_TEXT	SEGMENT PARA USE32 PUBLIC 'CODE'
_TEXT	ENDS
;	COMDAT ??Dconst_iterator@?$vector@PAVIChangeSkinEventListener@@V?$allocator@PAVIChangeSkinEventListener@@@std@@@std@@QBEABQAVIChangeSkinEventListener@@XZ
_TEXT	SEGMENT PARA USE32 PUBLIC 'CODE'
_TEXT	ENDS
;	COMDAT ??8const_iterator@?$vector@PAVIChangeSkinEventListener@@V?$allocator@PAVIChangeSkinEventListener@@@std@@@std@@QBE_NABV012@@Z
_TEXT	SEGMENT PARA USE32 PUBLIC 'CODE'
_TEXT	ENDS
;	COMDAT ?_Buy@?$vector@V?$basic_string@DU?$char_traits@D@std@@V?$allocator@D@2@@std@@V?$allocator@V?$basic_string@DU?$char_traits@D@std@@V?$allocator@D@2@@std@@@2@@std@@IAE_NI@Z
_TEXT	SEGMENT PARA USE32 PUBLIC 'CODE'
_TEXT	ENDS
;	COMDAT ?_Tidy@?$vector@V?$basic_string@DU?$char_traits@D@std@@V?$allocator@D@2@@std@@V?$allocator@V?$basic_string@DU?$char_traits@D@std@@V?$allocator@D@2@@std@@@2@@std@@IAEXXZ
_TEXT	SEGMENT PARA USE32 PUBLIC 'CODE'
_TEXT	ENDS
;	COMDAT ??0?$_Vector_val@V?$basic_string@DU?$char_traits@D@std@@V?$allocator@D@2@@std@@V?$allocator@V?$basic_string@DU?$char_traits@D@std@@V?$allocator@D@2@@std@@@2@@std@@IAE@V?$allocator@V?$basic_string@DU?$char_traits@D@std@@V?$allocator@D@2@@std@@@1@@Z
_TEXT	SEGMENT PARA USE32 PUBLIC 'CODE'
_TEXT	ENDS
;	COMDAT ??Diterator@?$vector@UOneSubject@@V?$allocator@UOneSubject@@@std@@@std@@QBEAAUOneSubject@@XZ
_TEXT	SEGMENT PARA USE32 PUBLIC 'CODE'
_TEXT	ENDS
;	COMDAT ??Hiterator@?$vector@UOneSubject@@V?$allocator@UOneSubject@@@std@@@std@@QBE?AV012@H@Z
_TEXT	SEGMENT PARA USE32 PUBLIC 'CODE'
_TEXT	ENDS
;	COMDAT ?StringCompare@?$ChTraitsCRT@D@ATL@@SAHPBD0@Z
_TEXT	SEGMENT PARA USE32 PUBLIC 'CODE'
_TEXT	ENDS
;	COMDAT ??0?$allocator@V?$basic_string@DU?$char_traits@D@std@@V?$allocator@D@2@@std@@@std@@QAE@ABV01@@Z
_TEXT	SEGMENT PARA USE32 PUBLIC 'CODE'
_TEXT	ENDS
;	COMDAT ?deallocate@?$allocator@V?$basic_string@DU?$char_traits@D@std@@V?$allocator@D@2@@std@@@std@@QAEXPAV?$basic_string@DU?$char_traits@D@std@@V?$allocator@D@2@@2@I@Z
_TEXT	SEGMENT PARA USE32 PUBLIC 'CODE'
_TEXT	ENDS
;	COMDAT ?allocate@?$allocator@V?$basic_string@DU?$char_traits@D@std@@V?$allocator@D@2@@std@@@std@@QAEPAV?$basic_string@DU?$char_traits@D@std@@V?$allocator@D@2@@2@I@Z
_TEXT	SEGMENT PARA USE32 PUBLIC 'CODE'
_TEXT	ENDS
;	COMDAT ?max_size@?$vector@PAVIChangeSkinEventListener@@V?$allocator@PAVIChangeSkinEventListener@@@std@@@std@@QBEIXZ
_TEXT	SEGMENT PARA USE32 PUBLIC 'CODE'
_TEXT	ENDS
;	COMDAT ?_Insert_n@?$vector@PAVIChangeSkinEventListener@@V?$allocator@PAVIChangeSkinEventListener@@@std@@@std@@IAEXViterator@12@IABQAVIChangeSkinEventListener@@@Z
_TEXT	SEGMENT PARA USE32 PUBLIC 'CODE'
_TEXT	ENDS
;	COMDAT ?_Xlen@?$vector@PAVIChangeSkinEventListener@@V?$allocator@PAVIChangeSkinEventListener@@@std@@@std@@IBEXXZ
_TEXT	SEGMENT PARA USE32 PUBLIC 'CODE'
_TEXT	ENDS
;	COMDAT ??0?$allocator@PAVIChangeSkinEventListener@@@std@@QAE@ABV01@@Z
_TEXT	SEGMENT PARA USE32 PUBLIC 'CODE'
_TEXT	ENDS
;	COMDAT ?deallocate@?$allocator@PAVIChangeSkinEventListener@@@std@@QAEXPAPAVIChangeSkinEventListener@@I@Z
_TEXT	SEGMENT PARA USE32 PUBLIC 'CODE'
_TEXT	ENDS
;	COMDAT ?allocate@?$allocator@PAVIChangeSkinEventListener@@@std@@QAEPAPAVIChangeSkinEventListener@@I@Z
_TEXT	SEGMENT PARA USE32 PUBLIC 'CODE'
_TEXT	ENDS
;	COMDAT ??Yiterator@?$vector@PAVIChangeSkinEventListener@@V?$allocator@PAVIChangeSkinEventListener@@@std@@@std@@QAEAAV012@H@Z
_TEXT	SEGMENT PARA USE32 PUBLIC 'CODE'
_TEXT	ENDS
;	COMDAT ??Giterator@?$vector@PAVIChangeSkinEventListener@@V?$allocator@PAVIChangeSkinEventListener@@@std@@@std@@QBEHABVconst_iterator@12@@Z
_TEXT	SEGMENT PARA USE32 PUBLIC 'CODE'
_TEXT	ENDS
;	COMDAT ??0const_iterator@?$vector@PAVIChangeSkinEventListener@@V?$allocator@PAVIChangeSkinEventListener@@@std@@@std@@QAE@PAPAVIChangeSkinEventListener@@@Z
_TEXT	SEGMENT PARA USE32 PUBLIC 'CODE'
_TEXT	ENDS
;	COMDAT ?max_size@?$vector@V?$basic_string@DU?$char_traits@D@std@@V?$allocator@D@2@@std@@V?$allocator@V?$basic_string@DU?$char_traits@D@std@@V?$allocator@D@2@@std@@@2@@std@@QBEIXZ
_TEXT	SEGMENT PARA USE32 PUBLIC 'CODE'
_TEXT	ENDS
;	COMDAT ?_Destroy@?$vector@V?$basic_string@DU?$char_traits@D@std@@V?$allocator@D@2@@std@@V?$allocator@V?$basic_string@DU?$char_traits@D@std@@V?$allocator@D@2@@std@@@2@@std@@IAEXPAV?$basic_string@DU?$char_traits@D@std@@V?$allocator@D@2@@2@0@Z
_TEXT	SEGMENT PARA USE32 PUBLIC 'CODE'
_TEXT	ENDS
;	COMDAT ?_Xlen@?$vector@V?$basic_string@DU?$char_traits@D@std@@V?$allocator@D@2@@std@@V?$allocator@V?$basic_string@DU?$char_traits@D@std@@V?$allocator@D@2@@std@@@2@@std@@IBEXXZ
_TEXT	SEGMENT PARA USE32 PUBLIC 'CODE'
_TEXT	ENDS
;	COMDAT ??0iterator@?$vector@UOneSubject@@V?$allocator@UOneSubject@@@std@@@std@@QAE@PAUOneSubject@@@Z
_TEXT	SEGMENT PARA USE32 PUBLIC 'CODE'
_TEXT	ENDS
;	COMDAT ??Yiterator@?$vector@UOneSubject@@V?$allocator@UOneSubject@@@std@@@std@@QAEAAV012@H@Z
_TEXT	SEGMENT PARA USE32 PUBLIC 'CODE'
_TEXT	ENDS
;	COMDAT ??Dconst_iterator@?$vector@UOneSubject@@V?$allocator@UOneSubject@@@std@@@std@@QBEABUOneSubject@@XZ
_TEXT	SEGMENT PARA USE32 PUBLIC 'CODE'
_TEXT	ENDS
;	COMDAT ??0length_error@std@@QAE@ABV01@@Z
_TEXT	SEGMENT PARA USE32 PUBLIC 'CODE'
_TEXT	ENDS
;	COMDAT ?max_size@?$allocator@V?$basic_string@DU?$char_traits@D@std@@V?$allocator@D@2@@std@@@std@@QBEIXZ
_TEXT	SEGMENT PARA USE32 PUBLIC 'CODE'
_TEXT	ENDS
;	COMDAT ?max_size@?$allocator@PAVIChangeSkinEventListener@@@std@@QBEIXZ
_TEXT	SEGMENT PARA USE32 PUBLIC 'CODE'
_TEXT	ENDS
;	COMDAT ??Gconst_iterator@?$vector@PAVIChangeSkinEventListener@@V?$allocator@PAVIChangeSkinEventListener@@@std@@@std@@QBEHABV012@@Z
_TEXT	SEGMENT PARA USE32 PUBLIC 'CODE'
_TEXT	ENDS
;	COMDAT ??0const_iterator@?$vector@UOneSubject@@V?$allocator@UOneSubject@@@std@@@std@@QAE@PAUOneSubject@@@Z
_TEXT	SEGMENT PARA USE32 PUBLIC 'CODE'
_TEXT	ENDS
;	COMDAT ?Unlock@?$CComCritSecLock@VCComCriticalSection@ATL@@@ATL@@QAEXXZ
_TEXT	SEGMENT PARA USE32 PUBLIC 'CODE'
_TEXT	ENDS
;	COMDAT ??$copy@PAPAVIChangeSkinEventListener@@PAPAV1@@std@@YAPAPAVIChangeSkinEventListener@@PAPAV1@00@Z
_TEXT	SEGMENT PARA USE32 PUBLIC 'CODE'
_TEXT	ENDS
;	COMDAT ??$_Destroy_range@PAVIChangeSkinEventListener@@V?$allocator@PAVIChangeSkinEventListener@@@std@@@std@@YAXPAPAVIChangeSkinEventListener@@0AAV?$allocator@PAVIChangeSkinEventListener@@@0@@Z
_TEXT	SEGMENT PARA USE32 PUBLIC 'CODE'
_TEXT	ENDS
;	COMDAT ??$_Uninitialized_fill_n@PAPAVIChangeSkinEventListener@@IPAV1@V?$allocator@PAVIChangeSkinEventListener@@@std@@@std@@YAXPAPAVIChangeSkinEventListener@@IABQAV1@AAV?$allocator@PAVIChangeSkinEventListener@@@0@@Z
_TEXT	SEGMENT PARA USE32 PUBLIC 'CODE'
_TEXT	ENDS
;	COMDAT ??$_Maklocstr@D@std@@YAPADPBDPADABU_Cvtvec@@@Z
_TEXT	SEGMENT PARA USE32 PUBLIC 'CODE'
_TEXT	ENDS
;	COMDAT ??$_Allocate@V?$basic_string@DU?$char_traits@D@std@@V?$allocator@D@2@@std@@@std@@YAPAV?$basic_string@DU?$char_traits@D@std@@V?$allocator@D@2@@0@IPAV10@@Z
_TEXT	SEGMENT PARA USE32 PUBLIC 'CODE'
_TEXT	ENDS
;	COMDAT ??$_Ucopy@PAPAVIChangeSkinEventListener@@@?$vector@PAVIChangeSkinEventListener@@V?$allocator@PAVIChangeSkinEventListener@@@std@@@std@@IAEPAPAVIChangeSkinEventListener@@PAPAV2@00@Z
_TEXT	SEGMENT PARA USE32 PUBLIC 'CODE'
_TEXT	ENDS
;	COMDAT ??$fill@PAPAVIChangeSkinEventListener@@PAV1@@std@@YAXPAPAVIChangeSkinEventListener@@0ABQAV1@@Z
_TEXT	SEGMENT PARA USE32 PUBLIC 'CODE'
_TEXT	ENDS
;	COMDAT ??$copy_backward@PAPAVIChangeSkinEventListener@@PAPAV1@@std@@YAPAPAVIChangeSkinEventListener@@PAPAV1@00@Z
_TEXT	SEGMENT PARA USE32 PUBLIC 'CODE'
_TEXT	ENDS
;	COMDAT ??$_Allocate@PAVIChangeSkinEventListener@@@std@@YAPAPAVIChangeSkinEventListener@@IPAPAV1@@Z
_TEXT	SEGMENT PARA USE32 PUBLIC 'CODE'
_TEXT	ENDS
;	COMDAT ??$_Destroy_range@V?$basic_string@DU?$char_traits@D@std@@V?$allocator@D@2@@std@@V?$allocator@V?$basic_string@DU?$char_traits@D@std@@V?$allocator@D@2@@std@@@2@@std@@YAXPAV?$basic_string@DU?$char_traits@D@std@@V?$allocator@D@2@@0@0AAV?$allocator@V?$basic_string@DU?$char_traits@D@std@@V?$allocator@D@2@@std@@@0@@Z
_TEXT	SEGMENT PARA USE32 PUBLIC 'CODE'
_TEXT	ENDS
;	COMDAT ??$_Ptr_cat@VIChangeSkinEventListener@@@std@@YA?AU_Scalar_ptr_iterator_tag@0@PAPAVIChangeSkinEventListener@@0@Z
_TEXT	SEGMENT PARA USE32 PUBLIC 'CODE'
_TEXT	ENDS
;	COMDAT ??$_Copy_opt@PAPAVIChangeSkinEventListener@@PAPAV1@@std@@YAPAPAVIChangeSkinEventListener@@PAPAV1@00U_Scalar_ptr_iterator_tag@0@@Z
_TEXT	SEGMENT PARA USE32 PUBLIC 'CODE'
_TEXT	ENDS
;	COMDAT ??$_Destroy_range@PAVIChangeSkinEventListener@@V?$allocator@PAVIChangeSkinEventListener@@@std@@@std@@YAXPAPAVIChangeSkinEventListener@@0AAV?$allocator@PAVIChangeSkinEventListener@@@0@U_Scalar_ptr_iterator_tag@0@@Z
_TEXT	SEGMENT PARA USE32 PUBLIC 'CODE'
_TEXT	ENDS
;	COMDAT ??$_Uninit_fill_n@PAVIChangeSkinEventListener@@IPAV1@@std@@YAXPAPAVIChangeSkinEventListener@@IABQAV1@AAV?$allocator@PAVIChangeSkinEventListener@@@0@U_Scalar_ptr_iterator_tag@0@@Z
_TEXT	SEGMENT PARA USE32 PUBLIC 'CODE'
_TEXT	ENDS
;	COMDAT ??$_Uninitialized_copy@PAPAVIChangeSkinEventListener@@PAPAV1@V?$allocator@PAVIChangeSkinEventListener@@@std@@@std@@YAPAPAVIChangeSkinEventListener@@PAPAV1@00AAV?$allocator@PAVIChangeSkinEventListener@@@0@@Z
_TEXT	SEGMENT PARA USE32 PUBLIC 'CODE'
_TEXT	ENDS
;	COMDAT ??$_Copy_backward_opt@PAPAVIChangeSkinEventListener@@PAPAV1@@std@@YAPAPAVIChangeSkinEventListener@@PAPAV1@00U_Scalar_ptr_iterator_tag@0@@Z
_TEXT	SEGMENT PARA USE32 PUBLIC 'CODE'
_TEXT	ENDS
;	COMDAT ??$_Ptr_cat@PAV?$basic_string@DU?$char_traits@D@std@@V?$allocator@D@2@@std@@PAV12@@std@@YA?AU_Nonscalar_ptr_iterator_tag@0@AAPAV?$basic_string@DU?$char_traits@D@std@@V?$allocator@D@2@@0@0@Z
_TEXT	SEGMENT PARA USE32 PUBLIC 'CODE'
_TEXT	ENDS
;	COMDAT ??$_Destroy_range@V?$basic_string@DU?$char_traits@D@std@@V?$allocator@D@2@@std@@V?$allocator@V?$basic_string@DU?$char_traits@D@std@@V?$allocator@D@2@@std@@@2@@std@@YAXPAV?$basic_string@DU?$char_traits@D@std@@V?$allocator@D@2@@0@0AAV?$allocator@V?$basic_string@DU?$char_traits@D@std@@V?$allocator@D@2@@std@@@0@U_Nonscalar_ptr_iterator_tag@0@@Z
_TEXT	SEGMENT PARA USE32 PUBLIC 'CODE'
_TEXT	ENDS
;	COMDAT ?destroy@?$allocator@V?$basic_string@DU?$char_traits@D@std@@V?$allocator@D@2@@std@@@std@@QAEXPAV?$basic_string@DU?$char_traits@D@std@@V?$allocator@D@2@@2@@Z
_TEXT	SEGMENT PARA USE32 PUBLIC 'CODE'
_TEXT	ENDS
;	COMDAT ??$fill_n@PAPAVIChangeSkinEventListener@@IPAV1@@std@@YAXPAPAVIChangeSkinEventListener@@IABQAV1@@Z
_TEXT	SEGMENT PARA USE32 PUBLIC 'CODE'
_TEXT	ENDS
;	COMDAT ??$_Uninit_copy@PAVIChangeSkinEventListener@@PAV1@@std@@YAPAPAVIChangeSkinEventListener@@PAPAV1@00AAV?$allocator@PAVIChangeSkinEventListener@@@0@U_Scalar_ptr_iterator_tag@0@@Z
_TEXT	SEGMENT PARA USE32 PUBLIC 'CODE'
_TEXT	ENDS
;	COMDAT ??$_Destroy@V?$basic_string@DU?$char_traits@D@std@@V?$allocator@D@2@@std@@@std@@YAXPAV?$basic_string@DU?$char_traits@D@std@@V?$allocator@D@2@@0@@Z
_TEXT	SEGMENT PARA USE32 PUBLIC 'CODE'
_TEXT	ENDS
;	COMDAT ??_G?$basic_string@DU?$char_traits@D@std@@V?$allocator@D@2@@std@@QAEPAXI@Z
_TEXT	SEGMENT PARA USE32 PUBLIC 'CODE'
_TEXT	ENDS
;	COMDAT ??_ECSkinMgrV1@@W7AEPAXI@Z
_TEXT	SEGMENT PARA USE32 PUBLIC 'CODE'
_TEXT	ENDS
;	COMDAT ??_ECSkinMgrV1@@WM@AEPAXI@Z
_TEXT	SEGMENT PARA USE32 PUBLIC 'CODE'
_TEXT	ENDS
;	COMDAT ??_R3IChangeColorMgr@@8
rdata$r	SEGMENT DWORD USE32 PUBLIC 'CONST'
rdata$r	ENDS
;	COMDAT ??_R3DIBINFO@@8
rdata$r	SEGMENT DWORD USE32 PUBLIC 'CONST'
rdata$r	ENDS
;	COMDAT ??_R3CSkinMgrV1@@8
rdata$r	SEGMENT DWORD USE32 PUBLIC 'CONST'
rdata$r	ENDS
;	COMDAT ??_R3P2PObserver@@8
rdata$r	SEGMENT DWORD USE32 PUBLIC 'CONST'
rdata$r	ENDS
;	COMDAT ??_R3?$numpunct@_W@std@@8
rdata$r	SEGMENT DWORD USE32 PUBLIC 'CONST'
rdata$r	ENDS
;	COMDAT ??_R3?$numpunct@D@std@@8
rdata$r	SEGMENT DWORD USE32 PUBLIC 'CONST'
rdata$r	ENDS
;	COMDAT ??_R3IData@@8
rdata$r	SEGMENT DWORD USE32 PUBLIC 'CONST'
rdata$r	ENDS
;	COMDAT ??_R3CGdiPlusBitmap@CSkinButton@@8
rdata$r	SEGMENT DWORD USE32 PUBLIC 'CONST'
rdata$r	ENDS
;	COMDAT ??_R3HTTPObserver@@8
rdata$r	SEGMENT DWORD USE32 PUBLIC 'CONST'
rdata$r	ENDS
;	COMDAT ??_R3CGdiPlusBitmap@@8
rdata$r	SEGMENT DWORD USE32 PUBLIC 'CONST'
rdata$r	ENDS
;	COMDAT ??_R3ILayoutChangeObserver@@8
rdata$r	SEGMENT DWORD USE32 PUBLIC 'CONST'
rdata$r	ENDS
;	COMDAT ??_R3IWndEventListener@@8
rdata$r	SEGMENT DWORD USE32 PUBLIC 'CONST'
rdata$r	ENDS
;	COMDAT ??_R3IEventListener@@8
rdata$r	SEGMENT DWORD USE32 PUBLIC 'CONST'
rdata$r	ENDS
;	COMDAT ??_R2IChangeColorMgr@@8
rdata$r	SEGMENT DWORD USE32 PUBLIC 'CONST'
rdata$r	ENDS
;	COMDAT ??_R2DIBINFO@@8
rdata$r	SEGMENT DWORD USE32 PUBLIC 'CONST'
rdata$r	ENDS
;	COMDAT ??_R2CSkinMgrV1@@8
rdata$r	SEGMENT DWORD USE32 PUBLIC 'CONST'
rdata$r	ENDS
;	COMDAT ??_R2P2PObserver@@8
rdata$r	SEGMENT DWORD USE32 PUBLIC 'CONST'
rdata$r	ENDS
;	COMDAT ??_R2?$numpunct@_W@std@@8
rdata$r	SEGMENT DWORD USE32 PUBLIC 'CONST'
rdata$r	ENDS
;	COMDAT ??_R2?$numpunct@D@std@@8
rdata$r	SEGMENT DWORD USE32 PUBLIC 'CONST'
rdata$r	ENDS
;	COMDAT ??_R2IData@@8
rdata$r	SEGMENT DWORD USE32 PUBLIC 'CONST'
rdata$r	ENDS
;	COMDAT ??_R2CGdiPlusBitmap@CSkinButton@@8
rdata$r	SEGMENT DWORD USE32 PUBLIC 'CONST'
rdata$r	ENDS
;	COMDAT ??_R2HTTPObserver@@8
rdata$r	SEGMENT DWORD USE32 PUBLIC 'CONST'
rdata$r	ENDS
;	COMDAT ??_R2CGdiPlusBitmap@@8
rdata$r	SEGMENT DWORD USE32 PUBLIC 'CONST'
rdata$r	ENDS
;	COMDAT ??_R2ILayoutChangeObserver@@8
rdata$r	SEGMENT DWORD USE32 PUBLIC 'CONST'
rdata$r	ENDS
;	COMDAT ??_R2IWndEventListener@@8
rdata$r	SEGMENT DWORD USE32 PUBLIC 'CONST'
rdata$r	ENDS
;	COMDAT ??_R2IEventListener@@8
rdata$r	SEGMENT DWORD USE32 PUBLIC 'CONST'
rdata$r	ENDS
;	COMDAT ??_R1A@?0A@A@DIBINFO@@8
rdata$r	SEGMENT DWORD USE32 PUBLIC 'CONST'
rdata$r	ENDS
;	COMDAT ??_R1M@?0A@A@IMessageObserver@@8
rdata$r	SEGMENT DWORD USE32 PUBLIC 'CONST'
rdata$r	ENDS
;	COMDAT ??_R1M@?0A@A@ILayoutChangeObserver@@8
rdata$r	SEGMENT DWORD USE32 PUBLIC 'CONST'
rdata$r	ENDS
;	COMDAT ??_R17?0A@A@P2PObserver@@8
rdata$r	SEGMENT DWORD USE32 PUBLIC 'CONST'
rdata$r	ENDS
;	COMDAT ??_R13?0A@A@IEventListener@@8
rdata$r	SEGMENT DWORD USE32 PUBLIC 'CONST'
rdata$r	ENDS
;	COMDAT ??_R1A@?0A@A@IChangeColorMgr@@8
rdata$r	SEGMENT DWORD USE32 PUBLIC 'CONST'
rdata$r	ENDS
;	COMDAT ??_R1A@?0A@A@CSkinMgrV1@@8
rdata$r	SEGMENT DWORD USE32 PUBLIC 'CONST'
rdata$r	ENDS
;	COMDAT ??_R1A@?0A@A@P2PObserver@@8
rdata$r	SEGMENT DWORD USE32 PUBLIC 'CONST'
rdata$r	ENDS
;	COMDAT ??_R1A@?0A@A@?$numpunct@_W@std@@8
rdata$r	SEGMENT DWORD USE32 PUBLIC 'CONST'
rdata$r	ENDS
;	COMDAT ??_R1A@?0A@A@facet@locale@std@@8
rdata$r	SEGMENT DWORD USE32 PUBLIC 'CONST'
rdata$r	ENDS
;	COMDAT ??_R0?AVfacet@locale@std@@@8
_DATA	SEGMENT DWORD USE32 PUBLIC 'DATA'
_DATA	ENDS
;	COMDAT ??_R1A@?0A@A@?$numpunct@D@std@@8
rdata$r	SEGMENT DWORD USE32 PUBLIC 'CONST'
rdata$r	ENDS
;	COMDAT ??_R1A@?0A@A@IData@@8
rdata$r	SEGMENT DWORD USE32 PUBLIC 'CONST'
rdata$r	ENDS
;	COMDAT ??_R1A@?0A@A@CGdiPlusBitmap@CSkinButton@@8
rdata$r	SEGMENT DWORD USE32 PUBLIC 'CONST'
rdata$r	ENDS
;	COMDAT ??_R1A@?0A@A@HTTPObserver@@8
rdata$r	SEGMENT DWORD USE32 PUBLIC 'CONST'
rdata$r	ENDS
;	COMDAT ??_R1A@?0A@A@CGdiPlusBitmap@@8
rdata$r	SEGMENT DWORD USE32 PUBLIC 'CONST'
rdata$r	ENDS
;	COMDAT ??_R1A@?0A@A@IMessageObserver@@8
rdata$r	SEGMENT DWORD USE32 PUBLIC 'CONST'
rdata$r	ENDS
;	COMDAT ??_R1A@?0A@A@ILayoutChangeObserver@@8
rdata$r	SEGMENT DWORD USE32 PUBLIC 'CONST'
rdata$r	ENDS
;	COMDAT ??_R1A@?0A@A@IWndEventListener@@8
rdata$r	SEGMENT DWORD USE32 PUBLIC 'CONST'
rdata$r	ENDS
;	COMDAT ??_R1A@?0A@A@IEventListener@@8
rdata$r	SEGMENT DWORD USE32 PUBLIC 'CONST'
rdata$r	ENDS
;	COMDAT ??_R0?AVDIBINFO@@@8
_DATA	SEGMENT DWORD USE32 PUBLIC 'DATA'
_DATA	ENDS
;	COMDAT ??_R0?AVIMessageObserver@@@8
_DATA	SEGMENT DWORD USE32 PUBLIC 'DATA'
_DATA	ENDS
;	COMDAT ??_R0?AVIChangeColorMgr@@@8
_DATA	SEGMENT DWORD USE32 PUBLIC 'DATA'
_DATA	ENDS
;	COMDAT ??_R0?AVCSkinMgrV1@@@8
_DATA	SEGMENT DWORD USE32 PUBLIC 'DATA'
_DATA	ENDS
;	COMDAT ??_R0?AVP2PObserver@@@8
_DATA	SEGMENT DWORD USE32 PUBLIC 'DATA'
_DATA	ENDS
;	COMDAT ??_R0?AV?$numpunct@_W@std@@@8
_DATA	SEGMENT DWORD USE32 PUBLIC 'DATA'
_DATA	ENDS
;	COMDAT ??_R0?AV?$numpunct@D@std@@@8
_DATA	SEGMENT DWORD USE32 PUBLIC 'DATA'
_DATA	ENDS
;	COMDAT ??_R0?AVIData@@@8
_DATA	SEGMENT DWORD USE32 PUBLIC 'DATA'
_DATA	ENDS
;	COMDAT ??_R0?AVCGdiPlusBitmap@CSkinButton@@@8
_DATA	SEGMENT DWORD USE32 PUBLIC 'DATA'
_DATA	ENDS
;	COMDAT ??_R0?AVHTTPObserver@@@8
_DATA	SEGMENT DWORD USE32 PUBLIC 'DATA'
_DATA	ENDS
;	COMDAT ??_R0?AVCGdiPlusBitmap@@@8
_DATA	SEGMENT DWORD USE32 PUBLIC 'DATA'
_DATA	ENDS
;	COMDAT ??_R0?AVILayoutChangeObserver@@@8
_DATA	SEGMENT DWORD USE32 PUBLIC 'DATA'
_DATA	ENDS
;	COMDAT ??_R0?AVIWndEventListener@@@8
_DATA	SEGMENT DWORD USE32 PUBLIC 'DATA'
_DATA	ENDS
;	COMDAT ??_R0?AVIEventListener@@@8
_DATA	SEGMENT DWORD USE32 PUBLIC 'DATA'
_DATA	ENDS
;	COMDAT ??_R4IChangeColorMgr@@6BIEventListener@@@
rdata$r	SEGMENT DWORD USE32 PUBLIC 'CONST'
rdata$r	ENDS
;	COMDAT ??_R4IChangeColorMgr@@6BIWndEventListener@@@
rdata$r	SEGMENT DWORD USE32 PUBLIC 'CONST'
rdata$r	ENDS
;	COMDAT ??_R4DIBINFO@@6B@
rdata$r	SEGMENT DWORD USE32 PUBLIC 'CONST'
rdata$r	ENDS
;	COMDAT ??_R4CSkinMgrV1@@6BILayoutChangeObserver@@@
rdata$r	SEGMENT DWORD USE32 PUBLIC 'CONST'
rdata$r	ENDS
;	COMDAT ??_R4CSkinMgrV1@@6BP2PObserver@@@
rdata$r	SEGMENT DWORD USE32 PUBLIC 'CONST'
rdata$r	ENDS
;	COMDAT ??_R4CSkinMgrV1@@6BIEventListener@@@
rdata$r	SEGMENT DWORD USE32 PUBLIC 'CONST'
rdata$r	ENDS
;	COMDAT ??_R4CSkinMgrV1@@6BIWndEventListener@@@
rdata$r	SEGMENT DWORD USE32 PUBLIC 'CONST'
rdata$r	ENDS
;	COMDAT ??_R4P2PObserver@@6B@
rdata$r	SEGMENT DWORD USE32 PUBLIC 'CONST'
rdata$r	ENDS
;	COMDAT ??0?$allocator@_W@std@@QAE@XZ
_TEXT	SEGMENT PARA USE32 PUBLIC 'CODE'
_TEXT	ENDS
;	COMDAT ??_G?$numpunct@_W@std@@MAEPAXI@Z
_TEXT	SEGMENT PARA USE32 PUBLIC 'CODE'
_TEXT	ENDS
;	COMDAT ??_R4?$numpunct@_W@std@@6B@
rdata$r	SEGMENT DWORD USE32 PUBLIC 'CONST'
rdata$r	ENDS
;	COMDAT ??_G?$numpunct@D@std@@MAEPAXI@Z
_TEXT	SEGMENT PARA USE32 PUBLIC 'CODE'
_TEXT	ENDS
;	COMDAT ??_R4?$numpunct@D@std@@6B@
rdata$r	SEGMENT DWORD USE32 PUBLIC 'CONST'
rdata$r	ENDS
;	COMDAT ??_R4IData@@6B@
rdata$r	SEGMENT DWORD USE32 PUBLIC 'CONST'
rdata$r	ENDS
;	COMDAT ??_R4CGdiPlusBitmap@CSkinButton@@6B@
rdata$r	SEGMENT DWORD USE32 PUBLIC 'CONST'
rdata$r	ENDS
;	COMDAT ??_R4HTTPObserver@@6B@
rdata$r	SEGMENT DWORD USE32 PUBLIC 'CONST'
rdata$r	ENDS
;	COMDAT ??_R4CGdiPlusBitmap@@6B@
rdata$r	SEGMENT DWORD USE32 PUBLIC 'CONST'
rdata$r	ENDS
;	COMDAT ??_R4ILayoutChangeObserver@@6B@
rdata$r	SEGMENT DWORD USE32 PUBLIC 'CONST'
rdata$r	ENDS
;	COMDAT ??_R4IWndEventListener@@6B@
rdata$r	SEGMENT DWORD USE32 PUBLIC 'CONST'
rdata$r	ENDS
;	COMDAT ??_R4IEventListener@@6B@
rdata$r	SEGMENT DWORD USE32 PUBLIC 'CONST'
rdata$r	ENDS
;	COMDAT ??_C@_0EN@CBMLGOH@D?3?2Program?5Files?5?$CIx86?$CJ?2Microsoft@
CONST	SEGMENT DWORD USE32 PUBLIC 'CONST'
CONST	ENDS
;	COMDAT ?_Psave@?$_Facetptr@V?$numpunct@_W@std@@@std@@2PBVfacet@locale@2@B
_DATA	SEGMENT DWORD USE32 PUBLIC 'DATA'
_DATA	ENDS
;	COMDAT ?_Psave@?$_Facetptr@V?$numpunct@D@std@@@std@@2PBVfacet@locale@2@B
_DATA	SEGMENT DWORD USE32 PUBLIC 'DATA'
_DATA	ENDS
;	COMDAT ?Unlock@CComCriticalSection@ATL@@QAEJXZ
_TEXT	SEGMENT PARA USE32 PUBLIC 'CODE'
_TEXT	ENDS
;	COMDAT ??_C@_0FG@LDNDNCJM@D?3?2Program?5Files?5?$CIx86?$CJ?2Microsoft@
CONST	SEGMENT DWORD USE32 PUBLIC 'CONST'
CONST	ENDS
;	COMDAT ??_C@_09HIEJFN@m_bLocked?$AA@
CONST	SEGMENT DWORD USE32 PUBLIC 'CONST'
CONST	ENDS
;	COMDAT ?_Psave@?$_Facetptr@V?$ctype@_W@std@@@std@@2PBVfacet@locale@2@B
_DATA	SEGMENT DWORD USE32 PUBLIC 'DATA'
_DATA	ENDS
;	COMDAT ?_Psave@?$_Facetptr@V?$ctype@D@std@@@std@@2PBVfacet@locale@2@B
_DATA	SEGMENT DWORD USE32 PUBLIC 'DATA'
_DATA	ENDS
;	COMDAT ??_7length_error@std@@6B@
CONST	SEGMENT DWORD USE32 PUBLIC 'CONST'
CONST	ENDS
;	COMDAT ??_R4length_error@std@@6B@
rdata$r	SEGMENT DWORD USE32 PUBLIC 'CONST'
rdata$r	ENDS
;	COMDAT ??_R3length_error@std@@8
rdata$r	SEGMENT DWORD USE32 PUBLIC 'CONST'
rdata$r	ENDS
;	COMDAT ??_R2length_error@std@@8
rdata$r	SEGMENT DWORD USE32 PUBLIC 'CONST'
rdata$r	ENDS
;	COMDAT ??_R1A@?0A@A@length_error@std@@8
rdata$r	SEGMENT DWORD USE32 PUBLIC 'CONST'
rdata$r	ENDS
;	COMDAT ??_R1A@?0A@A@logic_error@std@@8
rdata$r	SEGMENT DWORD USE32 PUBLIC 'CONST'
rdata$r	ENDS
;	COMDAT ??_R0?AVlogic_error@std@@@8
_DATA	SEGMENT DWORD USE32 PUBLIC 'DATA'
_DATA	ENDS
;	COMDAT ??_R1A@?0A@A@exception@@8
rdata$r	SEGMENT DWORD USE32 PUBLIC 'CONST'
rdata$r	ENDS
;	COMDAT ??_R0?AVexception@@@8
_DATA	SEGMENT DWORD USE32 PUBLIC 'DATA'
_DATA	ENDS
;	COMDAT ??_Glength_error@std@@UAEPAXI@Z
_TEXT	SEGMENT PARA USE32 PUBLIC 'CODE'
_TEXT	ENDS
;	COMDAT ?what@logic_error@std@@UBEPBDXZ
_TEXT	SEGMENT PARA USE32 PUBLIC 'CODE'
_TEXT	ENDS
;	COMDAT ??1logic_error@std@@UAE@XZ
_TEXT	SEGMENT PARA USE32 PUBLIC 'CODE'
_TEXT	ENDS
;	COMDAT ??_7logic_error@std@@6B@
CONST	SEGMENT DWORD USE32 PUBLIC 'CONST'
CONST	ENDS
;	COMDAT ??_R4logic_error@std@@6B@
rdata$r	SEGMENT DWORD USE32 PUBLIC 'CONST'
rdata$r	ENDS
;	COMDAT ??_R3logic_error@std@@8
rdata$r	SEGMENT DWORD USE32 PUBLIC 'CONST'
rdata$r	ENDS
;	COMDAT ??_R2logic_error@std@@8
rdata$r	SEGMENT DWORD USE32 PUBLIC 'CONST'
rdata$r	ENDS
;	COMDAT ??_Glogic_error@std@@UAEPAXI@Z
_TEXT	SEGMENT PARA USE32 PUBLIC 'CODE'
_TEXT	ENDS
;	COMDAT ??0logic_error@std@@QAE@ABV01@@Z
_TEXT	SEGMENT PARA USE32 PUBLIC 'CODE'
_TEXT	ENDS
;	COMDAT __CTA3?AVlength_error@std@@
xdata$x	SEGMENT DWORD USE32 PUBLIC 'CONST'
xdata$x	ENDS
;	COMDAT ??1length_error@std@@UAE@XZ
_TEXT	SEGMENT PARA USE32 PUBLIC 'CODE'
_TEXT	ENDS
;	COMDAT __CT??_R0?AVexception@@@8??0exception@@QAE@ABV0@@Z12
xdata$x	SEGMENT DWORD USE32 PUBLIC 'CONST'
xdata$x	ENDS
;	COMDAT __CT??_R0?AVlogic_error@std@@@8??0logic_error@std@@QAE@ABV01@@Z40
xdata$x	SEGMENT DWORD USE32 PUBLIC 'CONST'
xdata$x	ENDS
;	COMDAT __CT??_R0?AVlength_error@std@@@8??0length_error@std@@QAE@ABV01@@Z40
xdata$x	SEGMENT DWORD USE32 PUBLIC 'CONST'
xdata$x	ENDS
;	COMDAT ??_R0?AVlength_error@std@@@8
_DATA	SEGMENT DWORD USE32 PUBLIC 'DATA'
_DATA	ENDS
;	COMDAT __TI3?AVlength_error@std@@
xdata$x	SEGMENT DWORD USE32 PUBLIC 'CONST'
xdata$x	ENDS
;	COMDAT ??0length_error@std@@QAE@ABV?$basic_string@DU?$char_traits@D@std@@V?$allocator@D@2@@1@@Z
_TEXT	SEGMENT PARA USE32 PUBLIC 'CODE'
_TEXT	ENDS
;	COMDAT ??0logic_error@std@@QAE@ABV?$basic_string@DU?$char_traits@D@std@@V?$allocator@D@2@@1@@Z
_TEXT	SEGMENT PARA USE32 PUBLIC 'CODE'
_TEXT	ENDS
;	COMDAT ??$_Maklocchr@_W@std@@YA_WDPA_WABU_Cvtvec@@@Z
_TEXT	SEGMENT PARA USE32 PUBLIC 'CODE'
_TEXT	ENDS
;	COMDAT ??$_DebugHeapDelete@X@std@@YAXPAX@Z
_TEXT	SEGMENT PARA USE32 PUBLIC 'CODE'
_TEXT	ENDS
;	COMDAT ??$_Maklocstr@_W@std@@YAPA_WPBDPA_WABU_Cvtvec@@@Z
_TEXT	SEGMENT PARA USE32 PUBLIC 'CODE'
_TEXT	ENDS
;	COMDAT ??$_Maklocchr@D@std@@YADDPADABU_Cvtvec@@@Z
_TEXT	SEGMENT PARA USE32 PUBLIC 'CODE'
_TEXT	ENDS
;	COMDAT ??_C@_04LOAJBDKD@true?$AA@
CONST	SEGMENT DWORD USE32 PUBLIC 'CONST'
CONST	ENDS
;	COMDAT ??_C@_05LAPONLG@false?$AA@
CONST	SEGMENT DWORD USE32 PUBLIC 'CONST'
CONST	ENDS
;	COMDAT _wmemcpy
_TEXT	SEGMENT PARA USE32 PUBLIC 'CODE'
_TEXT	ENDS
;	COMDAT ?max_size@?$allocator@_W@std@@QBEIXZ
_TEXT	SEGMENT PARA USE32 PUBLIC 'CODE'
_TEXT	ENDS
;	COMDAT ?allocate@?$allocator@_W@std@@QAEPA_WI@Z
_TEXT	SEGMENT PARA USE32 PUBLIC 'CODE'
_TEXT	ENDS
;	COMDAT ??$_Allocate@_W@std@@YAPA_WIPA_W@Z
_TEXT	SEGMENT PARA USE32 PUBLIC 'CODE'
_TEXT	ENDS
;	COMDAT ??_C@_0N@ILOMLJGA@nLength?5?$DO?$DN?50?$AA@
CONST	SEGMENT DWORD USE32 PUBLIC 'CONST'
CONST	ENDS
;	COMDAT ??_C@_0CD@EEFFJEGJ@nLength?5?$DM?$DN?5GetData?$CI?$CJ?9?$DOnAllocLeng@
CONST	SEGMENT DWORD USE32 PUBLIC 'CONST'
CONST	ENDS
;	COMDAT ?data@CStringData@ATL@@QAEPAXXZ
_TEXT	SEGMENT PARA USE32 PUBLIC 'CODE'
_TEXT	ENDS
;	COMDAT ??_C@_0BA@GOIMFHNK@pStringMgr?5?$CB?$DN?50?$AA@
CONST	SEGMENT DWORD USE32 PUBLIC 'CONST'
CONST	ENDS
;	COMDAT ??_C@_01GFHCPBMG@C?$AA@
CONST	SEGMENT DWORD USE32 PUBLIC 'CONST'
CONST	ENDS
;	COMDAT ?max_size@?$allocator@D@std@@QBEIXZ
_TEXT	SEGMENT PARA USE32 PUBLIC 'CODE'
_TEXT	ENDS
;	COMDAT ?allocate@?$allocator@D@std@@QAEPADI@Z
_TEXT	SEGMENT PARA USE32 PUBLIC 'CODE'
_TEXT	ENDS
;	COMDAT ??$_Allocate@D@std@@YAPADIPAD@Z
_TEXT	SEGMENT PARA USE32 PUBLIC 'CODE'
_TEXT	ENDS
;	COMDAT ?deallocate@?$allocator@D@std@@QAEXPADI@Z
_TEXT	SEGMENT PARA USE32 PUBLIC 'CODE'
_TEXT	ENDS
;	COMDAT ?Format@?$ChTraitsCRT@D@ATL@@SAHPADPBD0@Z
_TEXT	SEGMENT PARA USE32 PUBLIC 'CODE'
_TEXT	ENDS
;	COMDAT ?GetFormattedLength@?$ChTraitsCRT@D@ATL@@SAHPBDPAD@Z
_TEXT	SEGMENT PARA USE32 PUBLIC 'CODE'
_TEXT	ENDS
;	COMDAT ?Release@CStringData@ATL@@QAEXXZ
_TEXT	SEGMENT PARA USE32 PUBLIC 'CODE'
_TEXT	ENDS
;	COMDAT ??_C@_0L@OIIMFBNE@nRefs?5?$CB?$DN?50?$AA@
CONST	SEGMENT DWORD USE32 PUBLIC 'CONST'
CONST	ENDS
;	COMDAT ??_C@_0FJ@DMHPDOJC@D?3?2Program?5Files?5?$CIx86?$CJ?2Microsoft@
CONST	SEGMENT DWORD USE32 PUBLIC 'CONST'
CONST	ENDS
;	COMDAT ?_Peek@?$istreambuf_iterator@_WU?$char_traits@_W@std@@@std@@AAE_WXZ
_TEXT	SEGMENT PARA USE32 PUBLIC 'CODE'
_TEXT	ENDS
;	COMDAT ?_Peek@?$istreambuf_iterator@DU?$char_traits@D@std@@@std@@AAEDXZ
_TEXT	SEGMENT PARA USE32 PUBLIC 'CODE'
_TEXT	ENDS
;	COMDAT ??$use_facet@V?$ctype@_W@std@@@std@@YAABV?$ctype@_W@0@ABVlocale@0@@Z
_TEXT	SEGMENT PARA USE32 PUBLIC 'CODE'
_TEXT	ENDS
;	COMDAT ??_S?$ctype@_W@std@@6B@
CONST	SEGMENT DWORD USE32 PUBLIC 'CONST'
CONST	ENDS
;	COMDAT ??_R4?$ctype@_W@std@@6B@
rdata$r	SEGMENT DWORD USE32 PUBLIC 'CONST'
rdata$r	ENDS
;	COMDAT ??_R0?AV?$ctype@_W@std@@@8
_DATA	SEGMENT DWORD USE32 PUBLIC 'DATA'
_DATA	ENDS
;	COMDAT ??_R3?$ctype@_W@std@@8
rdata$r	SEGMENT DWORD USE32 PUBLIC 'CONST'
rdata$r	ENDS
;	COMDAT ??_R2?$ctype@_W@std@@8
rdata$r	SEGMENT DWORD USE32 PUBLIC 'CONST'
rdata$r	ENDS
;	COMDAT ??_R1A@?0A@A@?$ctype@_W@std@@8
rdata$r	SEGMENT DWORD USE32 PUBLIC 'CONST'
rdata$r	ENDS
;	COMDAT ??_R1A@?0A@A@ctype_base@std@@8
rdata$r	SEGMENT DWORD USE32 PUBLIC 'CONST'
rdata$r	ENDS
;	COMDAT ??_R0?AUctype_base@std@@@8
_DATA	SEGMENT DWORD USE32 PUBLIC 'DATA'
_DATA	ENDS
;	COMDAT ??_G?$ctype@_W@std@@MAEPAXI@Z
_TEXT	SEGMENT PARA USE32 PUBLIC 'CODE'
_TEXT	ENDS
;	COMDAT ??_C@_08EPJLHIJG@bad?5cast?$AA@
CONST	SEGMENT DWORD USE32 PUBLIC 'CONST'
CONST	ENDS
;	COMDAT __TI2?AVbad_cast@@
xdata$x	SEGMENT DWORD USE32 PUBLIC 'CONST'
xdata$x	ENDS
;	COMDAT __CTA2?AVbad_cast@@
xdata$x	SEGMENT DWORD USE32 PUBLIC 'CONST'
xdata$x	ENDS
;	COMDAT __CT??_R0?AVbad_cast@@@8??0bad_cast@@QAE@ABV0@@Z12
xdata$x	SEGMENT DWORD USE32 PUBLIC 'CONST'
xdata$x	ENDS
;	COMDAT ??_R0?AVbad_cast@@@8
_DATA	SEGMENT DWORD USE32 PUBLIC 'DATA'
_DATA	ENDS
;	COMDAT ??$_DebugHeapDelete@Vfacet@locale@std@@@std@@YAXPAVfacet@locale@0@@Z
_TEXT	SEGMENT PARA USE32 PUBLIC 'CODE'
_TEXT	ENDS
;	COMDAT ??$use_facet@V?$ctype@D@std@@@std@@YAABV?$ctype@D@0@ABVlocale@0@@Z
_TEXT	SEGMENT PARA USE32 PUBLIC 'CODE'
_TEXT	ENDS
;	COMDAT ??_S?$ctype@D@std@@6B@
CONST	SEGMENT DWORD USE32 PUBLIC 'CONST'
CONST	ENDS
;	COMDAT ??_R4?$ctype@D@std@@6B@
rdata$r	SEGMENT DWORD USE32 PUBLIC 'CONST'
rdata$r	ENDS
;	COMDAT ??_R0?AV?$ctype@D@std@@@8
_DATA	SEGMENT DWORD USE32 PUBLIC 'DATA'
_DATA	ENDS
;	COMDAT ??_R3?$ctype@D@std@@8
rdata$r	SEGMENT DWORD USE32 PUBLIC 'CONST'
rdata$r	ENDS
;	COMDAT ??_R2?$ctype@D@std@@8
rdata$r	SEGMENT DWORD USE32 PUBLIC 'CONST'
rdata$r	ENDS
;	COMDAT ??_R1A@?0A@A@?$ctype@D@std@@8
rdata$r	SEGMENT DWORD USE32 PUBLIC 'CONST'
rdata$r	ENDS
;	COMDAT ??_G?$ctype@D@std@@MAEPAXI@Z
_TEXT	SEGMENT PARA USE32 PUBLIC 'CODE'
_TEXT	ENDS
;	COMDAT ??_S?$numpunct@_W@std@@6B@
CONST	SEGMENT DWORD USE32 PUBLIC 'CONST'
CONST	ENDS
;	COMDAT ??_S?$numpunct@D@std@@6B@
CONST	SEGMENT DWORD USE32 PUBLIC 'CONST'
CONST	ENDS
;	COMDAT _wmemmove
_TEXT	SEGMENT PARA USE32 PUBLIC 'CODE'
_TEXT	ENDS
;	COMDAT ?deallocate@?$allocator@_W@std@@QAEXPA_WI@Z
_TEXT	SEGMENT PARA USE32 PUBLIC 'CODE'
_TEXT	ENDS
;	COMDAT ??0?$allocator@_W@std@@QAE@ABV01@@Z
_TEXT	SEGMENT PARA USE32 PUBLIC 'CODE'
_TEXT	ENDS
;	COMDAT ??_C@_0BO@OBIGOAOM@AtlIsValidString?$CI?5pszFormat?5?$CJ?$AA@
CONST	SEGMENT DWORD USE32 PUBLIC 'CONST'
CONST	ENDS
;	COMDAT ?AtlIsValidString@ATL@@YAHPBDI@Z
_TEXT	SEGMENT PARA USE32 PUBLIC 'CODE'
_TEXT	ENDS
;	COMDAT ?AtlThrow@ATL@@YGXJ@Z
_TEXT	SEGMENT PARA USE32 PUBLIC 'CODE'
_TEXT	ENDS
;	COMDAT ??RCTraceFileAndLineInfo@ATL@@QBAXKIPBDZZ
_TEXT	SEGMENT PARA USE32 PUBLIC 'CODE'
_TEXT	ENDS
;	COMDAT ?TraceV@CTrace@ATL@@QBAXPBDHKI0PAD@Z
_TEXT	SEGMENT PARA USE32 PUBLIC 'CODE'
_TEXT	ENDS
;	COMDAT ??0CTraceFileAndLineInfo@ATL@@QAE@PBDH@Z
_TEXT	SEGMENT PARA USE32 PUBLIC 'CODE'
_TEXT	ENDS
;	COMDAT ??_C@_0FI@NHHJANPC@D?3?2Program?5Files?5?$CIx86?$CJ?2Microsoft@
CONST	SEGMENT DWORD USE32 PUBLIC 'CONST'
CONST	ENDS
;	COMDAT ??_C@_0BF@IAAKIJDJ@AtlThrow?3?5hr?5?$DN?50x?$CFx?6?$AA@
CONST	SEGMENT DWORD USE32 PUBLIC 'CONST'
CONST	ENDS
;	COMDAT ??BCTraceCategory@ATL@@QBEKXZ
_TEXT	SEGMENT PARA USE32 PUBLIC 'CODE'
_TEXT	ENDS
;	COMDAT ??_C@_0BA@GNIEOBOF@nNewLength?5?$DO?$DN?50?$AA@
CONST	SEGMENT DWORD USE32 PUBLIC 'CONST'
CONST	ENDS
;	COMDAT ??_C@_0FH@KDPNIMBO@D?3?2Program?5Files?5?$CIx86?$CJ?2Microsoft@
CONST	SEGMENT DWORD USE32 PUBLIC 'CONST'
CONST	ENDS
;	COMDAT ?IsShared@CStringData@ATL@@QBE_NXZ
_TEXT	SEGMENT PARA USE32 PUBLIC 'CODE'
_TEXT	ENDS
;	COMDAT ??_C@_0CB@GFHAPKDK@pOldData?9?$DOnAllocLength?5?$DM?5nLength@
CONST	SEGMENT DWORD USE32 PUBLIC 'CONST'
CONST	ENDS
;	COMDAT ?IsLocked@CStringData@ATL@@QBE_NXZ
_TEXT	SEGMENT PARA USE32 PUBLIC 'CODE'
_TEXT	ENDS
;	COMDAT ??0?$allocator@D@std@@QAE@ABV01@@Z
_TEXT	SEGMENT PARA USE32 PUBLIC 'CODE'
_TEXT	ENDS
;	COMDAT ??0?$allocator@D@std@@QAE@XZ
_TEXT	SEGMENT PARA USE32 PUBLIC 'CODE'
_TEXT	ENDS
;	COMDAT ??_7IMessageObserver@@6B@
CONST	SEGMENT DWORD USE32 PUBLIC 'CONST'
CONST	ENDS
;	COMDAT ??_R4IMessageObserver@@6B@
rdata$r	SEGMENT DWORD USE32 PUBLIC 'CONST'
rdata$r	ENDS
;	COMDAT ??_R3IMessageObserver@@8
rdata$r	SEGMENT DWORD USE32 PUBLIC 'CONST'
rdata$r	ENDS
;	COMDAT ??_R2IMessageObserver@@8
rdata$r	SEGMENT DWORD USE32 PUBLIC 'CONST'
rdata$r	ENDS
;	COMDAT ??_GIMessageObserver@@UAEPAXI@Z
_TEXT	SEGMENT PARA USE32 PUBLIC 'CODE'
_TEXT	ENDS
;	COMDAT ??_7IEventListener@@6B@
CONST	SEGMENT DWORD USE32 PUBLIC 'CONST'
CONST	ENDS
;	COMDAT ??_7IWndEventListener@@6B@
CONST	SEGMENT DWORD USE32 PUBLIC 'CONST'
CONST	ENDS
;	COMDAT ??_7ILayoutChangeObserver@@6B@
CONST	SEGMENT DWORD USE32 PUBLIC 'CONST'
CONST	ENDS
;	COMDAT ??1IMessageObserver@@UAE@XZ
_TEXT	SEGMENT PARA USE32 PUBLIC 'CODE'
_TEXT	ENDS
;	COMDAT ??_7IChangeColorMgr@@6BIEventListener@@@
CONST	SEGMENT DWORD USE32 PUBLIC 'CONST'
CONST	ENDS
;	COMDAT ??_7IChangeColorMgr@@6BIWndEventListener@@@
CONST	SEGMENT DWORD USE32 PUBLIC 'CONST'
CONST	ENDS
;	COMDAT ?GetDefaultManager@?$StrTraitMFC_DLL@DV?$ChTraitsCRT@D@ATL@@@@SAPAUIAtlStringMgr@ATL@@XZ
_TEXT	SEGMENT PARA USE32 PUBLIC 'CODE'
_TEXT	ENDS
;	COMDAT ??_7CSkinMgrV1@@6BILayoutChangeObserver@@@
CONST	SEGMENT DWORD USE32 PUBLIC 'CONST'
CONST	ENDS
;	COMDAT ??_7CSkinMgrV1@@6BP2PObserver@@@
CONST	SEGMENT DWORD USE32 PUBLIC 'CONST'
CONST	ENDS
;	COMDAT ??_7CSkinMgrV1@@6BIEventListener@@@
CONST	SEGMENT DWORD USE32 PUBLIC 'CONST'
CONST	ENDS
;	COMDAT ??_7CSkinMgrV1@@6BIWndEventListener@@@
CONST	SEGMENT DWORD USE32 PUBLIC 'CONST'
CONST	ENDS
;	COMDAT ?clsid@?1??GetClsid@CShockwaveFlash@@QAEABU_GUID@@XZ@4U3@B
CONST	SEGMENT DWORD USE32 PUBLIC 'CONST'
CONST	ENDS
;	COMDAT ??_7P2PObserver@@6B@
CONST	SEGMENT DWORD USE32 PUBLIC 'CONST'
CONST	ENDS
;	COMDAT ??_7HTTPObserver@@6B@
CONST	SEGMENT DWORD USE32 PUBLIC 'CONST'
CONST	ENDS
;	COMDAT ?FindStringResourceInstance@?$StrTraitMFC_DLL@DV?$ChTraitsCRT@D@ATL@@@@SAPAUHINSTANCE__@@I@Z
_TEXT	SEGMENT PARA USE32 PUBLIC 'CODE'
_TEXT	ENDS
;	COMDAT ?AtlGetStringResourceImage@ATL@@YAPBUATLSTRINGRESOURCEIMAGE@1@PAUHINSTANCE__@@I@Z
_TEXT	SEGMENT PARA USE32 PUBLIC 'CODE'
_TEXT	ENDS
;	COMDAT ?_AtlGetStringResourceImage@ATL@@YAPBUATLSTRINGRESOURCEIMAGE@1@PAUHINSTANCE__@@PAUHRSRC__@@I@Z
_TEXT	SEGMENT PARA USE32 PUBLIC 'CODE'
_TEXT	ENDS
;	COMDAT ?GetBaseTypeLength@?$ChTraitsCRT@D@ATL@@SAHPB_WH@Z
_TEXT	SEGMENT PARA USE32 PUBLIC 'CODE'
_TEXT	ENDS
;	COMDAT ?_AtlGetConversionACP@ATL@@YGIXZ
_TEXT	SEGMENT PARA USE32 PUBLIC 'CODE'
_TEXT	ENDS
;	COMDAT ?g_pfnGetThreadACP@ATL@@3P6GIXZA
_DATA	SEGMENT DWORD USE32 PUBLIC 'DATA'
_DATA	ENDS
;	COMDAT ?_AtlGetThreadACPThunk@ATL@@YGIXZ
_TEXT	SEGMENT PARA USE32 PUBLIC 'CODE'
_TEXT	ENDS
;	COMDAT ?_AtlGetThreadACPReal@ATL@@YGIXZ
_TEXT	SEGMENT PARA USE32 PUBLIC 'CODE'
_TEXT	ENDS
;	COMDAT ?_AtlGetThreadACPFake@ATL@@YGIXZ
_TEXT	SEGMENT PARA USE32 PUBLIC 'CODE'
_TEXT	ENDS
;	COMDAT ?InterlockedExchangePointer@@YGPAXPAPAXPAX@Z
_TEXT	SEGMENT PARA USE32 PUBLIC 'CODE'
_TEXT	ENDS
;	COMDAT ?ConvertToBaseType@?$ChTraitsCRT@D@ATL@@SAXPADHPB_WH@Z
_TEXT	SEGMENT PARA USE32 PUBLIC 'CODE'
_TEXT	ENDS
;	COMDAT ??_C@_0CJ@FJEKGMMD@Warning?3?5implicit?5LoadString?$CI?$CFu?$CJ@
CONST	SEGMENT DWORD USE32 PUBLIC 'CONST'
CONST	ENDS
;	COMDAT ?AddRef@CStringData@ATL@@QAEXXZ
_TEXT	SEGMENT PARA USE32 PUBLIC 'CODE'
_TEXT	ENDS
;	COMDAT ??_C@_09EEBKLCFA@nRefs?5?$DO?50?$AA@
CONST	SEGMENT DWORD USE32 PUBLIC 'CONST'
CONST	ENDS
;	COMDAT ??_7CGdiPlusBitmap@CSkinButton@@6B@
CONST	SEGMENT DWORD USE32 PUBLIC 'CONST'
CONST	ENDS
;	COMDAT ??_7IData@@6B@
CONST	SEGMENT DWORD USE32 PUBLIC 'CONST'
CONST	ENDS
;	COMDAT ?GetLastStatus@Image@Gdiplus@@QBE?AW4Status@2@XZ
_TEXT	SEGMENT PARA USE32 PUBLIC 'CODE'
_TEXT	ENDS
;	COMDAT ?FromFile@Bitmap@Gdiplus@@SAPAV12@PB_WH@Z
_TEXT	SEGMENT PARA USE32 PUBLIC 'CODE'
_TEXT	ENDS
;	COMDAT ??2GdiplusBase@Gdiplus@@SAPAXI@Z
_TEXT	SEGMENT PARA USE32 PUBLIC 'CODE'
_TEXT	ENDS
;	COMDAT ??3GdiplusBase@Gdiplus@@SAXPAX@Z
_TEXT	SEGMENT PARA USE32 PUBLIC 'CODE'
_TEXT	ENDS
;	COMDAT ??0Bitmap@Gdiplus@@QAE@PB_WH@Z
_TEXT	SEGMENT PARA USE32 PUBLIC 'CODE'
_TEXT	ENDS
;	COMDAT ??0Image@Gdiplus@@IAE@XZ
_TEXT	SEGMENT PARA USE32 PUBLIC 'CODE'
_TEXT	ENDS
;	COMDAT ??_7Image@Gdiplus@@6B@
CONST	SEGMENT DWORD USE32 PUBLIC 'CONST'
CONST	ENDS
;	COMDAT ??_R4Image@Gdiplus@@6B@
rdata$r	SEGMENT DWORD USE32 PUBLIC 'CONST'
rdata$r	ENDS
;	COMDAT ??_R0?AVImage@Gdiplus@@@8
_DATA	SEGMENT DWORD USE32 PUBLIC 'DATA'
_DATA	ENDS
;	COMDAT ??_R3Image@Gdiplus@@8
rdata$r	SEGMENT DWORD USE32 PUBLIC 'CONST'
rdata$r	ENDS
;	COMDAT ??_R2Image@Gdiplus@@8
rdata$r	SEGMENT DWORD USE32 PUBLIC 'CONST'
rdata$r	ENDS
;	COMDAT ??_R1A@?0A@A@Image@Gdiplus@@8
rdata$r	SEGMENT DWORD USE32 PUBLIC 'CONST'
rdata$r	ENDS
;	COMDAT ??_R13?0A@A@GdiplusBase@Gdiplus@@8
rdata$r	SEGMENT DWORD USE32 PUBLIC 'CONST'
rdata$r	ENDS
;	COMDAT ??_R0?AVGdiplusBase@Gdiplus@@@8
_DATA	SEGMENT DWORD USE32 PUBLIC 'DATA'
_DATA	ENDS
;	COMDAT ??_GImage@Gdiplus@@UAEPAXI@Z
_TEXT	SEGMENT PARA USE32 PUBLIC 'CODE'
_TEXT	ENDS
;	COMDAT ?Clone@Image@Gdiplus@@UAEPAV12@XZ
_TEXT	SEGMENT PARA USE32 PUBLIC 'CODE'
_TEXT	ENDS
;	COMDAT ?SetStatus@Image@Gdiplus@@IBE?AW4Status@2@W432@@Z
_TEXT	SEGMENT PARA USE32 PUBLIC 'CODE'
_TEXT	ENDS
;	COMDAT ??0Image@Gdiplus@@IAE@PAVGpImage@1@W4Status@1@@Z
_TEXT	SEGMENT PARA USE32 PUBLIC 'CODE'
_TEXT	ENDS
;	COMDAT ??1Image@Gdiplus@@UAE@XZ
_TEXT	SEGMENT PARA USE32 PUBLIC 'CODE'
_TEXT	ENDS
;	COMDAT ??_7Bitmap@Gdiplus@@6B@
CONST	SEGMENT DWORD USE32 PUBLIC 'CONST'
CONST	ENDS
;	COMDAT ??_R4Bitmap@Gdiplus@@6B@
rdata$r	SEGMENT DWORD USE32 PUBLIC 'CONST'
rdata$r	ENDS
;	COMDAT ??_R0?AVBitmap@Gdiplus@@@8
_DATA	SEGMENT DWORD USE32 PUBLIC 'DATA'
_DATA	ENDS
;	COMDAT ??_R3Bitmap@Gdiplus@@8
rdata$r	SEGMENT DWORD USE32 PUBLIC 'CONST'
rdata$r	ENDS
;	COMDAT ??_R2Bitmap@Gdiplus@@8
rdata$r	SEGMENT DWORD USE32 PUBLIC 'CONST'
rdata$r	ENDS
;	COMDAT ??_R1A@?0A@A@Bitmap@Gdiplus@@8
rdata$r	SEGMENT DWORD USE32 PUBLIC 'CONST'
rdata$r	ENDS
;	COMDAT ??_GBitmap@Gdiplus@@UAEPAXI@Z
_TEXT	SEGMENT PARA USE32 PUBLIC 'CODE'
_TEXT	ENDS
;	COMDAT ??1Bitmap@Gdiplus@@UAE@XZ
_TEXT	SEGMENT PARA USE32 PUBLIC 'CODE'
_TEXT	ENDS
;	COMDAT ?SetNativeImage@Image@Gdiplus@@IAEXPAVGpImage@2@@Z
_TEXT	SEGMENT PARA USE32 PUBLIC 'CODE'
_TEXT	ENDS
;	COMDAT ??_7CGdiPlusBitmap@@6B@
CONST	SEGMENT DWORD USE32 PUBLIC 'CONST'
CONST	ENDS
;	COMDAT ??_7DIBINFO@@6B@
CONST	SEGMENT DWORD USE32 PUBLIC 'CONST'
CONST	ENDS
sxdata	SEGMENT DWORD USE32 'SXDATA'
sxdata	ENDS
FLAT	GROUP _DATA, CONST, _BSS
	ASSUME	CS: FLAT, DS: FLAT, SS: FLAT
endif

INCLUDELIB MSVCRTD
INCLUDELIB OLDNAMES

PUBLIC	?g_pfnGetThreadACP@ATL@@3P6GIXZA		; ATL::g_pfnGetThreadACP
PUBLIC	?_AtlGetThreadACPThunk@ATL@@YGIXZ		; ATL::_AtlGetThreadACPThunk
PUBLIC	?mp_IsHadObject@CSkinMgrV1@@0PAVIChangeColorMgr@@A ; CSkinMgrV1::mp_IsHadObject
_BSS	SEGMENT
?mp_IsHadObject@CSkinMgrV1@@0PAVIChangeColorMgr@@A DD 01H DUP (?) ; CSkinMgrV1::mp_IsHadObject
_BSS	ENDS
CONST	SEGMENT
$SG191536 DB	'int', 00H
CONST	ENDS
_DATA	SEGMENT
_TYPE_CONFIG_INT DD FLAT:$SG191536
_DATA	ENDS
CONST	SEGMENT
$SG191538 DB	'str', 00H
CONST	ENDS
_DATA	SEGMENT
_TYPE_CONFIG_STR DD FLAT:$SG191538
_DATA	ENDS
CONST	SEGMENT
$SG191540 DB	'double', 00H
CONST	ENDS
_DATA	SEGMENT
_TYPE_CONFIG_DOUBLE DD FLAT:$SG191540
_DATA	ENDS
CONST	SEGMENT
	ORG $+1
$SG191542 DB	'bool', 00H
CONST	ENDS
_DATA	SEGMENT
_TYPE_CONFIG_BOOL DD FLAT:$SG191542
_DATA	ENDS
CONST	SEGMENT
	ORG $+3
$SG191544 DB	'sepint', 00H
CONST	ENDS
_DATA	SEGMENT
_TYPE_CONFIG_INT_HASSEP DD FLAT:$SG191544
_DATA	ENDS
CONST	SEGMENT
	ORG $+1
$SG191546 DB	'sepstr', 00H
CONST	ENDS
_DATA	SEGMENT
_TYPE_CONFIG_STR_HASSEP DD FLAT:$SG191546
_DATA	ENDS
CONST	SEGMENT
	ORG $+1
$SG191548 DB	'sepdouble', 00H
CONST	ENDS
_DATA	SEGMENT
_TYPE_CONFIG_DOUBLE_HASSEP DD FLAT:$SG191548
_DATA	ENDS
CONST	SEGMENT
	ORG $+2
$SG191550 DB	'sepbool', 00H
CONST	ENDS
_DATA	SEGMENT
_TYPE_CONFIG_BOOL_HASSEP DD FLAT:$SG191550
_DATA	ENDS
CONST	SEGMENT
$SG191552 DB	'Setting', 00H
CONST	ENDS
_DATA	SEGMENT
_CONF_SETTING_MODULE_NAME DD FLAT:$SG191552
_DATA	ENDS
CONST	SEGMENT
$SG191554 DB	'skin', 00H
CONST	ENDS
_DATA	SEGMENT
_CONF_SETTING_SKIN_IDX DD FLAT:$SG191554
_DATA	ENDS
CONST	SEGMENT
	ORG $+3
$SG191556 DB	'MainPage', 00H
CONST	ENDS
_DATA	SEGMENT
_CONF_SETTING_CONFIG_MAIN_PAGE DD FLAT:$SG191556
_DATA	ENDS
CONST	SEGMENT
	ORG $+3
$SG191558 DB	'ProblemReport', 00H
CONST	ENDS
_DATA	SEGMENT
_CONF_SETTING_CONFIG_PROBLEM_REPORT DD FLAT:$SG191558
_DATA	ENDS
CONST	SEGMENT
	ORG $+2
$SG191560 DB	'HomePage', 00H
CONST	ENDS
_DATA	SEGMENT
_CONF_SETTING_CONFIG_HOME_PAGE DD FLAT:$SG191560
_DATA	ENDS
CONST	SEGMENT
	ORG $+3
$SG191562 DB	'askexit', 00H
CONST	ENDS
_DATA	SEGMENT
_CONF_SETTING_CONFIG_IFASKEXIT DD FLAT:$SG191562
_DATA	ENDS
CONST	SEGMENT
$SG191564 DB	'exitchoice', 00H
CONST	ENDS
_DATA	SEGMENT
_CONF_SETTING_CONFIG_EXITCHOICE DD FLAT:$SG191564
_DATA	ENDS
CONST	SEGMENT
	ORG $+1
$SG191566 DB	'UN', 00H
CONST	ENDS
_DATA	SEGMENT
_CONF_SETTING_LOGIN_USER_NAME DD FLAT:$SG191566
_DATA	ENDS
CONST	SEGMENT
	ORG $+1
$SG191568 DB	'PW', 00H
CONST	ENDS
_DATA	SEGMENT
_CONF_SETTING_LOGIN_PASSWORD DD FLAT:$SG191568
_DATA	ENDS
CONST	SEGMENT
	ORG $+1
$SG191570 DB	'NetID', 00H
CONST	ENDS
_DATA	SEGMENT
_CONF_SETTING_NETID DD FLAT:$SG191570
_DATA	ENDS
CONST	SEGMENT
	ORG $+2
$SG191572 DB	'ChangeColorValue', 00H
CONST	ENDS
_DATA	SEGMENT
_CONF_SETTING_COLOR DD FLAT:$SG191572
_DATA	ENDS
CONST	SEGMENT
	ORG $+3
$SG191574 DB	'changeColorLight', 00H
CONST	ENDS
_DATA	SEGMENT
_CONF_SETTING_LIGHT DD FLAT:$SG191574
_DATA	ENDS
CONST	SEGMENT
	ORG $+3
$SG191576 DB	'ColorIndex', 00H
CONST	ENDS
_DATA	SEGMENT
_CONF_SETTING_COLOR_BTN_INDEX DD FLAT:$SG191576
_DATA	ENDS
CONST	SEGMENT
	ORG $+1
$SG191578 DB	'ColorUser', 00H
CONST	ENDS
_DATA	SEGMENT
_CONF_SETTING_COLOR_USER DD FLAT:$SG191578
_DATA	ENDS
CONST	SEGMENT
	ORG $+2
$SG191580 DB	'FirstTimeChangeSkin', 00H
CONST	ENDS
_DATA	SEGMENT
_CONF_SETTING_FIRST_TIME_CHANGESKIN DD FLAT:$SG191580
_DATA	ENDS
CONST	SEGMENT
$SG191972 DB	0dH, 0aH, 0d7H, 0b4H, 0ccH, 0acH, ': ', 0d0H, 0e8H, 0b5H, 0e3H
	DB	0bbH, 0f7H, 0cfH, 0c2H, 0d4H, 0d8H, 00H
	ORG $+1
$SG191973 DB	0c6H, 0a4H, 0b7H, 0f4H, ': ', 00H
	ORG $+1
$SG191982 DB	0dH, 0aH, 0d7H, 0b4H, 0ccH, 0acH, ': ', 0d2H, 0d1H, 0b1H, 0b8H
	DB	0baH, 0c3H, 00H
	ORG $+1
$SG191983 DB	0c6H, 0a4H, 0b7H, 0f4H, ': ', 00H
	ORG $+1
$SG192289 DB	'%08x,%d', 00H
$SG192293 DB	'CHAGE_COLOR', 00H
$SG192299 DB	00H
	ORG $+3
$SG192306 DB	'\skin\', 00H
	ORG $+1
$SG192309 DB	'\', 00H
	ORG $+2
$SG192312 DB	'\', 00H
	ORG $+2
$SG192317 DB	'\skin.dat', 00H
$SG192326 DB	00H
$SG192329 DB	00H
$SG192336 DB	00H
	ORG $+3
$SG192343 DB	'\skin\', 00H
	ORG $+1
$SG192346 DB	'\', 00H
	ORG $+2
$SG192349 DB	'\', 00H
	ORG $+2
$SG192354 DB	'\skin.dat', 00H
$SG192391 DB	00H
	ORG $+1
$SG192392 DB	0d5H, 0fdH, 0d4H, 0daH, 0cfH, 0c2H, 0d4H, 0d8H, ' "%s" ', 0c6H
	DB	0a4H, 0b7H, 0f4H, 00H
	ORG $+1
$SG192405 DB	'\skin.ini', 00H
	ORG $+2
$SG192406 DB	'author', 00H
	ORG $+1
$SG192407 DB	'skin', 00H
	ORG $+3
$SG192413 DB	0dH, 0aH, 0d7H, 0b4H, 0ccH, 0acH, ': ', 0d2H, 0d1H, 0b1H, 0b8H
	DB	0baH, 0c3H, 00H
	ORG $+1
$SG192414 DB	0dH, 0aH, 0d7H, 0f7H, 0d5H, 0dfH, ': ', 00H
	ORG $+3
$SG192415 DB	0c6H, 0a4H, 0b7H, 0f4H, ': ', 00H
	ORG $+1
$SG192429 DB	'S:DOWN_START', 00H
	ORG $+3
$SG192430 DB	'HANDLE_SKIN', 00H
$SG192437 DB	0c6H, 0a4H, 0b7H, 0f4H, 0cfH, 0c2H, 0d4H, 0d8H, 0cdH, 0eaH
	DB	0b3H, 0c9H, ' %u,%u', 00H
	ORG $+1
$SG192438 DB	'DownStart', 00H
	ORG $+2
$SG192439 DB	'downskin.txt', 00H
	ORG $+3
$SG192446 DB	'S:DOWN_FINISHE', 00H
	ORG $+1
$SG192447 DB	'HANDLE_SKIN', 00H
$SG192450 DB	'\skin\', 00H
$SG192652 DB	00H
$SG192663 DB	0c6H, 0a4H, 0b7H, 0f4H, 0cfH, 0c2H, 0d4H, 0d8H, 0caH, 0a7H
	DB	0b0H, 0dcH, ' %u,%u', 00H
	ORG $+1
$SG192664 DB	'DownStart', 00H
	ORG $+2
$SG192665 DB	'downskin.txt', 00H
	ORG $+3
$SG192672 DB	'S:DOWN_FAILED', 00H
	ORG $+2
$SG192673 DB	'HANDLE_SKIN', 00H
$SG192684 DB	0c6H, 0a4H, 0b7H, 0f4H, 0cfH, 0c2H, 0d4H, 0d8H, 0bdH, 0f8H
	DB	0d0H, 0d0H, 0d6H, 0d0H, ' %u,%u,%u', 00H
$SG192685 DB	'DownStart', 00H
	ORG $+2
$SG192686 DB	'downskin.txt', 00H
	ORG $+3
$SG192695 DB	'Sub:%s', 00H
$SG192696 DB	00H
$SG192697 DB	'%', 00H
	ORG $+2
$SG192700 DB	'ClickSub', 00H
	ORG $+3
$SG192739 DB	'3', 00H
	ORG $+2
$SG192740 DB	'Click-In', 00H
	ORG $+3
$SG192741 DB	'SkinB.txt', 00H
	ORG $+2
$SG192744 DB	0d0H, 0e8H, 0d2H, 0aaH, 0cfH, 0c2H, 0d4H, 0d8H, 0c6H, 0a4H
	DB	0b7H, 0f4H, ' %s', 00H
$SG192745 DB	'DownStart', 00H
	ORG $+2
$SG192746 DB	'downskin.txt', 00H
	ORG $+3
$SG192773 DB	0d2H, 0d1H, 0d3H, 0d0H, 0cfH, 0c2H, 0d4H, 0d8H, 0c8H, 0ceH
	DB	0ceH, 0f1H, 0c1H, 0cbH, 0a3H, 0acH, 0c7H, 0ebH, 0c9H, 0d4H, 0baH
	DB	0f2H, '...', 00H
$SG192778 DB	00H
$SG192790 DB	00H
$SG192792 DB	0d5H, 0fdH, 0d4H, 0daH, 0cfH, 0c2H, 0d4H, 0d8H, ' "%s" ', 0c6H
	DB	0a4H, 0b7H, 0f4H, 00H
	ORG $+1
$SG192794 DB	0d5H, 0fdH, 0d4H, 0daH, 0cfH, 0c2H, 0d4H, 0d8H, 0c6H, 0a4H
	DB	0b7H, 0f4H, 00H
	ORG $+3
$SG192803 DB	'9', 00H
	ORG $+2
$SG192804 DB	'Click-In', 00H
	ORG $+3
$SG192805 DB	'SkinB.txt', 00H
$SG192812 DB	00H
	ORG $+1
$SG192814 DB	0c6H, 0a4H, 0b7H, 0f4H, ':  %s', 0dH, 0aH, 0d7H, 0b4H, 0ccH
	DB	0acH, ': ', 0d2H, 0d1H, 0b1H, 0b8H, 0baH, 0c3H, 00H
$SG192816 DB	0d7H, 0b4H, 0ccH, 0acH, ': ', 0d2H, 0d1H, 0b1H, 0b8H, 0baH
	DB	0c3H, 00H
	ORG $+3
$SG192823 DB	'10', 00H
	ORG $+1
$SG192824 DB	'Click-In', 00H
	ORG $+3
$SG192825 DB	'SkinB.txt', 00H
$SG192827 DB	00H
	ORG $+1
$SG192830 DB	'11', 00H
	ORG $+1
$SG192831 DB	'Click-In', 00H
	ORG $+3
$SG192832 DB	'SkinB.txt', 00H
	ORG $+2
$SG192837 DB	0d4H, 0ddH, 0caH, 0b1H, 0ceH, 0deH, 0b7H, 0a8H, 0cfH, 0c2H
	DB	0d4H, 0d8H, 0b8H, 0c3H, 0c6H, 0a4H, 0b7H, 0f4H, 0a3H, 0acH, 0c7H
	DB	0ebH, 0c9H, 0d4H, 0baH, 0f2H, 0d4H, 0d9H, 0caH, 0d4H, 00H
	ORG $+1
$SG192839 DB	0c8H, 0b7H, 0b6H, 0a8H, 00H
	ORG $+3
$SG192847 DB	'9', 00H
	ORG $+2
$SG192848 DB	'Click-In', 00H
	ORG $+3
$SG192849 DB	'SkinB.txt', 00H
	ORG $+2
$SG192864 DB	0c6H, 0a4H, 0b7H, 0f4H, 0d2H, 0d1H, 0b1H, 0a3H, 0b4H, 0e6H
	DB	0b5H, 0bdH, 0a1H, 0b0H, 0ceH, 0d2H, 0b5H, 0c4H, 0c6H, 0a4H, 0b7H
	DB	0f4H, 0a1H, 0b1H, 00H
$SG192866 DB	00H
	ORG $+2
$SG192868 DB	0c6H, 0a4H, 0b7H, 0f4H, ':  %s', 0dH, 0aH, 0d7H, 0b4H, 0ccH
	DB	0acH, ': ', 0d2H, 0d1H, 0b1H, 0b8H, 0baH, 0c3H, 00H
$SG192870 DB	0d7H, 0b4H, 0ccH, 0acH, ': ', 0d2H, 0d1H, 0b1H, 0b8H, 0baH
	DB	0c3H, 00H
	ORG $+3
$SG192877 DB	'10', 00H
	ORG $+1
$SG192878 DB	'Click-In', 00H
	ORG $+3
$SG192879 DB	'SkinB.txt', 00H
$SG192881 DB	00H
	ORG $+1
$SG192884 DB	'11', 00H
	ORG $+1
$SG192885 DB	'Click-In', 00H
	ORG $+3
$SG192886 DB	'SkinB.txt', 00H
	ORG $+2
$SG192891 DB	0d4H, 0ddH, 0caH, 0b1H, 0ceH, 0deH, 0b7H, 0a8H, 0cfH, 0c2H
	DB	0d4H, 0d8H, 0b8H, 0c3H, 0c6H, 0a4H, 0b7H, 0f4H, 0a3H, 0acH, 0c7H
	DB	0ebH, 0c9H, 0d4H, 0baH, 0f2H, 0d4H, 0d9H, 0caH, 0d4H, 00H
	ORG $+1
$SG192893 DB	0c8H, 0b7H, 0b6H, 0a8H, 00H
CONST	ENDS
;	COMDAT ?g_pfnGetThreadACP@ATL@@3P6GIXZA
_DATA	SEGMENT
?g_pfnGetThreadACP@ATL@@3P6GIXZA DD FLAT:?_AtlGetThreadACPThunk@ATL@@YGIXZ ; ATL::g_pfnGetThreadACP
_DATA	ENDS
CONST	SEGMENT
	ORG $+3
_ID_MESSAGE_LAYOUTMGR DD 08H
CONST	ENDS
PUBLIC	?InterlockedExchangePointer@@YGPAXPAPAXPAX@Z	; InterlockedExchangePointer
PUBLIC	?_AtlGetThreadACPFake@ATL@@YGIXZ		; ATL::_AtlGetThreadACPFake
PUBLIC	?_AtlGetThreadACPReal@ATL@@YGIXZ		; ATL::_AtlGetThreadACPReal
EXTRN	__RTC_InitBase:NEAR
EXTRN	__RTC_Shutdown:NEAR
EXTRN	__RTC_CheckEsp:NEAR
EXTRN	___security_cookie:DWORD
EXTRN	@_RTC_CheckStackVars@8:NEAR
EXTRN	@__security_check_cookie@4:NEAR
EXTRN	__imp__GetVersionExA@4:NEAR
;	COMDAT rtc$IMZ
; File d:\program files (x86)\microsoft visual studio .net 2003\vc7\atlmfc\include\atlconv.h
rtc$IMZ	SEGMENT
__RTC_InitBase.rtc$IMZ DD FLAT:__RTC_InitBase
rtc$IMZ	ENDS
;	COMDAT rtc$TMZ
rtc$TMZ	SEGMENT
__RTC_Shutdown.rtc$TMZ DD FLAT:__RTC_Shutdown
; Function compile flags: /Odt /RTCsu
rtc$TMZ	ENDS
;	COMDAT ?_AtlGetThreadACPThunk@ATL@@YGIXZ
_TEXT	SEGMENT
_pfnGetThreadACP$ = -164				; size = 4
_ver$ = -156						; size = 148
__$ArrayPad$ = -4					; size = 4
__$ReturnAddr$ = 4					; size = 4
?_AtlGetThreadACPThunk@ATL@@YGIXZ PROC NEAR		; ATL::_AtlGetThreadACPThunk, COMDAT

; 134  : {

  00000	55		 push	 ebp
  00001	8b ec		 mov	 ebp, esp
  00003	81 ec a4 00 00
	00		 sub	 esp, 164		; 000000a4H
  00009	56		 push	 esi
  0000a	57		 push	 edi
  0000b	8d bd 5c ff ff
	ff		 lea	 edi, DWORD PTR [ebp-164]
  00011	b9 29 00 00 00	 mov	 ecx, 41			; 00000029H
  00016	b8 cc cc cc cc	 mov	 eax, -858993460		; ccccccccH
  0001b	f3 ab		 rep stosd
  0001d	a1 00 00 00 00	 mov	 eax, DWORD PTR ___security_cookie
  00022	89 45 fc	 mov	 DWORD PTR __$ArrayPad$[ebp], eax

; 135  : 	OSVERSIONINFO ver;
; 136  : 	ATLGETTHREADACP pfnGetThreadACP;
; 137  : 
; 138  : 	ver.dwOSVersionInfoSize = sizeof( ver );

  00025	c7 85 64 ff ff
	ff 94 00 00 00	 mov	 DWORD PTR _ver$[ebp], 148 ; 00000094H

; 139  : 	::GetVersionEx( &ver );

  0002f	8b f4		 mov	 esi, esp
  00031	8d 85 64 ff ff
	ff		 lea	 eax, DWORD PTR _ver$[ebp]
  00037	50		 push	 eax
  00038	ff 15 00 00 00
	00		 call	 DWORD PTR __imp__GetVersionExA@4
  0003e	3b f4		 cmp	 esi, esp
  00040	e8 00 00 00 00	 call	 __RTC_CheckEsp

; 140  : 	if( (ver.dwPlatformId == VER_PLATFORM_WIN32_NT) && (ver.dwMajorVersion >= 5) )

  00045	83 bd 74 ff ff
	ff 02		 cmp	 DWORD PTR _ver$[ebp+16], 2
  0004c	75 15		 jne	 SHORT $L24163
  0004e	83 bd 68 ff ff
	ff 05		 cmp	 DWORD PTR _ver$[ebp+4], 5
  00055	72 0c		 jb	 SHORT $L24163

; 141  : 	{
; 142  : 		// On Win2K, CP_THREAD_ACP is supported
; 143  : 		pfnGetThreadACP = _AtlGetThreadACPReal;

  00057	c7 85 5c ff ff
	ff 00 00 00 00	 mov	 DWORD PTR _pfnGetThreadACP$[ebp], OFFSET FLAT:?_AtlGetThreadACPReal@ATL@@YGIXZ ; ATL::_AtlGetThreadACPReal

; 144  : 	}
; 145  : 	else

  00061	eb 0a		 jmp	 SHORT $L24164
$L24163:

; 146  : 	{
; 147  : 		pfnGetThreadACP = _AtlGetThreadACPFake;

  00063	c7 85 5c ff ff
	ff 00 00 00 00	 mov	 DWORD PTR _pfnGetThreadACP$[ebp], OFFSET FLAT:?_AtlGetThreadACPFake@ATL@@YGIXZ ; ATL::_AtlGetThreadACPFake
$L24164:

; 148  : 	}
; 149  : 	InterlockedExchangePointer( reinterpret_cast< void** >(&g_pfnGetThreadACP), pfnGetThreadACP );

  0006d	8b 8d 5c ff ff
	ff		 mov	 ecx, DWORD PTR _pfnGetThreadACP$[ebp]
  00073	51		 push	 ecx
  00074	68 00 00 00 00	 push	 OFFSET FLAT:?g_pfnGetThreadACP@ATL@@3P6GIXZA ; ATL::g_pfnGetThreadACP
  00079	e8 00 00 00 00	 call	 ?InterlockedExchangePointer@@YGPAXPAPAXPAX@Z ; InterlockedExchangePointer

; 150  : 
; 151  : 	return( g_pfnGetThreadACP() );

  0007e	8b f4		 mov	 esi, esp
  00080	ff 15 00 00 00
	00		 call	 DWORD PTR ?g_pfnGetThreadACP@ATL@@3P6GIXZA ; ATL::g_pfnGetThreadACP
  00086	3b f4		 cmp	 esi, esp
  00088	e8 00 00 00 00	 call	 __RTC_CheckEsp

; 152  : }

  0008d	52		 push	 edx
  0008e	8b cd		 mov	 ecx, ebp
  00090	50		 push	 eax
  00091	8d 15 00 00 00
	00		 lea	 edx, DWORD PTR $L194661
  00097	e8 00 00 00 00	 call	 @_RTC_CheckStackVars@8
  0009c	58		 pop	 eax
  0009d	5a		 pop	 edx
  0009e	8b 4d fc	 mov	 ecx, DWORD PTR __$ArrayPad$[ebp]
  000a1	e8 00 00 00 00	 call	 @__security_check_cookie@4
  000a6	5f		 pop	 edi
  000a7	5e		 pop	 esi
  000a8	81 c4 a4 00 00
	00		 add	 esp, 164		; 000000a4H
  000ae	3b ec		 cmp	 ebp, esp
  000b0	e8 00 00 00 00	 call	 __RTC_CheckEsp
  000b5	8b e5		 mov	 esp, ebp
  000b7	5d		 pop	 ebp
  000b8	c3		 ret	 0
$L194661:
  000b9	01 00 00 00	 DD	 1
  000bd	00 00 00 00	 DD	 $L194660
$L194660:
  000c1	64 ff ff ff	 DD	 -156			; ffffff64H
  000c5	94 00 00 00	 DD	 148			; 00000094H
  000c9	00 00 00 00	 DD	 $L194657
$L194657:
  000cd	76		 DB	 118			; 00000076H
  000ce	65		 DB	 101			; 00000065H
  000cf	72		 DB	 114			; 00000072H
  000d0	00		 DB	 0
?_AtlGetThreadACPThunk@ATL@@YGIXZ ENDP			; ATL::_AtlGetThreadACPThunk
_TEXT	ENDS
EXTRN	__imp__InterlockedExchange@8:NEAR
; Function compile flags: /Odt /RTCsu
;	COMDAT ?InterlockedExchangePointer@@YGPAXPAPAXPAX@Z
_TEXT	SEGMENT
_pp$ = 8						; size = 4
_pNew$ = 12						; size = 4
?InterlockedExchangePointer@@YGPAXPAPAXPAX@Z PROC NEAR	; InterlockedExchangePointer, COMDAT

; 91   : {

  00000	55		 push	 ebp
  00001	8b ec		 mov	 ebp, esp
  00003	56		 push	 esi

; 92   : 	return( reinterpret_cast<void*>(static_cast<LONG_PTR>(::InterlockedExchange(reinterpret_cast<LONG*>(pp), static_cast<LONG>(reinterpret_cast<LONG_PTR>(pNew))))) );

  00004	8b f4		 mov	 esi, esp
  00006	8b 45 0c	 mov	 eax, DWORD PTR _pNew$[ebp]
  00009	50		 push	 eax
  0000a	8b 4d 08	 mov	 ecx, DWORD PTR _pp$[ebp]
  0000d	51		 push	 ecx
  0000e	ff 15 00 00 00
	00		 call	 DWORD PTR __imp__InterlockedExchange@8
  00014	3b f4		 cmp	 esi, esp
  00016	e8 00 00 00 00	 call	 __RTC_CheckEsp

; 93   : }

  0001b	5e		 pop	 esi
  0001c	3b ec		 cmp	 ebp, esp
  0001e	e8 00 00 00 00	 call	 __RTC_CheckEsp
  00023	5d		 pop	 ebp
  00024	c2 08 00	 ret	 8
?InterlockedExchangePointer@@YGPAXPAPAXPAX@Z ENDP	; InterlockedExchangePointer
_TEXT	ENDS
EXTRN	__imp__GetACP@0:NEAR
EXTRN	__imp__GetLocaleInfoA@16:NEAR
EXTRN	__imp__GetThreadLocale@0:NEAR
; Function compile flags: /Odt /RTCsu
;	COMDAT ?_AtlGetThreadACPFake@ATL@@YGIXZ
_TEXT	SEGMENT
_pch$24151 = -32					; size = 4
_szACP$ = -24						; size = 7
_lcidThread$ = -12					; size = 4
_nACP$ = -8						; size = 4
__$ArrayPad$ = -4					; size = 4
__$ReturnAddr$ = 4					; size = 4
?_AtlGetThreadACPFake@ATL@@YGIXZ PROC NEAR		; ATL::_AtlGetThreadACPFake, COMDAT

; 101  : {

  00000	55		 push	 ebp
  00001	8b ec		 mov	 ebp, esp
  00003	83 ec 20	 sub	 esp, 32			; 00000020H
  00006	56		 push	 esi
  00007	b8 cc cc cc cc	 mov	 eax, -858993460		; ccccccccH
  0000c	89 45 e0	 mov	 DWORD PTR [ebp-32], eax
  0000f	89 45 e4	 mov	 DWORD PTR [ebp-28], eax
  00012	89 45 e8	 mov	 DWORD PTR [ebp-24], eax
  00015	89 45 ec	 mov	 DWORD PTR [ebp-20], eax
  00018	89 45 f0	 mov	 DWORD PTR [ebp-16], eax
  0001b	89 45 f4	 mov	 DWORD PTR [ebp-12], eax
  0001e	89 45 f8	 mov	 DWORD PTR [ebp-8], eax
  00021	89 45 fc	 mov	 DWORD PTR [ebp-4], eax
  00024	a1 00 00 00 00	 mov	 eax, DWORD PTR ___security_cookie
  00029	89 45 fc	 mov	 DWORD PTR __$ArrayPad$[ebp], eax

; 102  : 	UINT nACP = 0;

  0002c	c7 45 f8 00 00
	00 00		 mov	 DWORD PTR _nACP$[ebp], 0

; 103  : 
; 104  : 	LCID lcidThread = ::GetThreadLocale();

  00033	8b f4		 mov	 esi, esp
  00035	ff 15 00 00 00
	00		 call	 DWORD PTR __imp__GetThreadLocale@0
  0003b	3b f4		 cmp	 esi, esp
  0003d	e8 00 00 00 00	 call	 __RTC_CheckEsp
  00042	89 45 f4	 mov	 DWORD PTR _lcidThread$[ebp], eax

; 105  : 
; 106  : 	char szACP[7];
; 107  : 	// GetLocaleInfoA will fail for a Unicode-only LCID, but those are only supported on 
; 108  : 	// Windows 2000.  Since Windows 2000 supports CP_THREAD_ACP, this code path is never
; 109  : 	// executed on Windows 2000.
; 110  : 	if (::GetLocaleInfoA(lcidThread, LOCALE_IDEFAULTANSICODEPAGE, szACP, 7) != 0)

  00045	8b f4		 mov	 esi, esp
  00047	6a 07		 push	 7
  00049	8d 45 e8	 lea	 eax, DWORD PTR _szACP$[ebp]
  0004c	50		 push	 eax
  0004d	68 04 10 00 00	 push	 4100			; 00001004H
  00052	8b 4d f4	 mov	 ecx, DWORD PTR _lcidThread$[ebp]
  00055	51		 push	 ecx
  00056	ff 15 00 00 00
	00		 call	 DWORD PTR __imp__GetLocaleInfoA@16
  0005c	3b f4		 cmp	 esi, esp
  0005e	e8 00 00 00 00	 call	 __RTC_CheckEsp
  00063	85 c0		 test	 eax, eax
  00065	74 34		 je	 SHORT $L24150

; 111  : 	{
; 112  : 		char* pch = szACP;

  00067	8d 55 e8	 lea	 edx, DWORD PTR _szACP$[ebp]
  0006a	89 55 e0	 mov	 DWORD PTR _pch$24151[ebp], edx
$L24153:

; 113  : 		while (*pch != '\0')

  0006d	8b 45 e0	 mov	 eax, DWORD PTR _pch$24151[ebp]
  00070	0f be 08	 movsx	 ecx, BYTE PTR [eax]
  00073	85 c9		 test	 ecx, ecx
  00075	74 24		 je	 SHORT $L24150

; 114  : 		{
; 115  : 			nACP *= 10;

  00077	8b 55 f8	 mov	 edx, DWORD PTR _nACP$[ebp]
  0007a	6b d2 0a	 imul	 edx, 10			; 0000000aH
  0007d	89 55 f8	 mov	 DWORD PTR _nACP$[ebp], edx

; 116  : 			nACP += *pch++ - '0';

  00080	8b 45 e0	 mov	 eax, DWORD PTR _pch$24151[ebp]
  00083	0f be 08	 movsx	 ecx, BYTE PTR [eax]
  00086	8b 55 f8	 mov	 edx, DWORD PTR _nACP$[ebp]
  00089	8d 44 0a d0	 lea	 eax, DWORD PTR [edx+ecx-48]
  0008d	89 45 f8	 mov	 DWORD PTR _nACP$[ebp], eax
  00090	8b 4d e0	 mov	 ecx, DWORD PTR _pch$24151[ebp]
  00093	83 c1 01	 add	 ecx, 1
  00096	89 4d e0	 mov	 DWORD PTR _pch$24151[ebp], ecx

; 117  : 		}

  00099	eb d2		 jmp	 SHORT $L24153
$L24150:

; 118  : 	}
; 119  : 	// Use the Default ANSI Code Page if we were unable to get the thread ACP or if one does not exist.
; 120  : 	if (nACP == 0)

  0009b	83 7d f8 00	 cmp	 DWORD PTR _nACP$[ebp], 0
  0009f	75 12		 jne	 SHORT $L24155

; 121  : 		nACP = ::GetACP();

  000a1	8b f4		 mov	 esi, esp
  000a3	ff 15 00 00 00
	00		 call	 DWORD PTR __imp__GetACP@0
  000a9	3b f4		 cmp	 esi, esp
  000ab	e8 00 00 00 00	 call	 __RTC_CheckEsp
  000b0	89 45 f8	 mov	 DWORD PTR _nACP$[ebp], eax
$L24155:

; 122  : 
; 123  : 	return nACP;

  000b3	8b 45 f8	 mov	 eax, DWORD PTR _nACP$[ebp]

; 124  : }

  000b6	52		 push	 edx
  000b7	8b cd		 mov	 ecx, ebp
  000b9	50		 push	 eax
  000ba	8d 15 00 00 00
	00		 lea	 edx, DWORD PTR $L194672
  000c0	e8 00 00 00 00	 call	 @_RTC_CheckStackVars@8
  000c5	58		 pop	 eax
  000c6	5a		 pop	 edx
  000c7	8b 4d fc	 mov	 ecx, DWORD PTR __$ArrayPad$[ebp]
  000ca	e8 00 00 00 00	 call	 @__security_check_cookie@4
  000cf	5e		 pop	 esi
  000d0	83 c4 20	 add	 esp, 32			; 00000020H
  000d3	3b ec		 cmp	 ebp, esp
  000d5	e8 00 00 00 00	 call	 __RTC_CheckEsp
  000da	8b e5		 mov	 esp, ebp
  000dc	5d		 pop	 ebp
  000dd	c3		 ret	 0
$L194672:
  000de	01 00 00 00	 DD	 1
  000e2	00 00 00 00	 DD	 $L194671
$L194671:
  000e6	e8 ff ff ff	 DD	 -24			; ffffffe8H
  000ea	07 00 00 00	 DD	 7
  000ee	00 00 00 00	 DD	 $L194669
$L194669:
  000f2	73		 DB	 115			; 00000073H
  000f3	7a		 DB	 122			; 0000007aH
  000f4	41		 DB	 65			; 00000041H
  000f5	43		 DB	 67			; 00000043H
  000f6	50		 DB	 80			; 00000050H
  000f7	00		 DB	 0
?_AtlGetThreadACPFake@ATL@@YGIXZ ENDP			; ATL::_AtlGetThreadACPFake
; Function compile flags: /Odt /RTCsu
_TEXT	ENDS
;	COMDAT ?_AtlGetThreadACPReal@ATL@@YGIXZ
_TEXT	SEGMENT
?_AtlGetThreadACPReal@ATL@@YGIXZ PROC NEAR		; ATL::_AtlGetThreadACPReal, COMDAT

; 127  : {

  00000	55		 push	 ebp
  00001	8b ec		 mov	 ebp, esp

; 128  : 	return( CP_THREAD_ACP );

  00003	b8 03 00 00 00	 mov	 eax, 3

; 129  : }

  00008	5d		 pop	 ebp
  00009	c3		 ret	 0
?_AtlGetThreadACPReal@ATL@@YGIXZ ENDP			; ATL::_AtlGetThreadACPReal
_TEXT	ENDS
PUBLIC	?OnSendChangeSkin@CSkinMgrV1@@UAEXV?$CStringT@DV?$StrTraitMFC_DLL@DV?$ChTraitsCRT@D@ATL@@@@@ATL@@@Z ; CSkinMgrV1::OnSendChangeSkin
PUBLIC	?OnSendChangeSubject@CSkinMgrV1@@UAEXV?$CStringT@DV?$StrTraitMFC_DLL@DV?$ChTraitsCRT@D@ATL@@@@@ATL@@0@Z ; CSkinMgrV1::OnSendChangeSubject
PUBLIC	?OnChangeSkinAndSub@CSkinMgrV1@@UAEXABV?$CStringT@DV?$StrTraitMFC_DLL@DV?$ChTraitsCRT@D@ATL@@@@@ATL@@0@Z ; CSkinMgrV1::OnChangeSkinAndSub
PUBLIC	?OnStartDownSubject@CSkinMgrV1@@UAEXABV?$CStringT@DV?$StrTraitMFC_DLL@DV?$ChTraitsCRT@D@ATL@@@@@ATL@@@Z ; CSkinMgrV1::OnStartDownSubject
PUBLIC	?OnFinishDownSubject@CSkinMgrV1@@UAEXH@Z	; CSkinMgrV1::OnFinishDownSubject
PUBLIC	??_7CSkinMgrV1@@6BIWndEventListener@@@		; CSkinMgrV1::`vftable'
PUBLIC	??_7CSkinMgrV1@@6BIEventListener@@@		; CSkinMgrV1::`vftable'
PUBLIC	??_7CSkinMgrV1@@6BP2PObserver@@@		; CSkinMgrV1::`vftable'
PUBLIC	??_7CSkinMgrV1@@6BILayoutChangeObserver@@@	; CSkinMgrV1::`vftable'
PUBLIC	??1P2PObserver@@UAE@XZ				; P2PObserver::~P2PObserver
PUBLIC	?P2POb_DownStart@P2PObserver@@UAEXABV?$basic_string@DU?$char_traits@D@std@@V?$allocator@D@2@@std@@PBDI@Z ; P2PObserver::P2POb_DownStart
PUBLIC	?P2POb_DownFinish@P2PObserver@@UAEXABV?$basic_string@DU?$char_traits@D@std@@V?$allocator@D@2@@std@@@Z ; P2PObserver::P2POb_DownFinish
PUBLIC	?P2POb_DownFailed@P2PObserver@@UAEXABV?$basic_string@DU?$char_traits@D@std@@V?$allocator@D@2@@std@@W4P2P_DOWN_FAILED_REASON@@@Z ; P2PObserver::P2POb_DownFailed
PUBLIC	?P2POb_DownProgress@P2PObserver@@UAEXABV?$basic_string@DU?$char_traits@D@std@@V?$allocator@D@2@@std@@III@Z ; P2PObserver::P2POb_DownProgress
PUBLIC	?P2POb_DownPause@P2PObserver@@UAEXABV?$basic_string@DU?$char_traits@D@std@@V?$allocator@D@2@@std@@@Z ; P2PObserver::P2POb_DownPause
PUBLIC	?P2POb_SigChange@P2PObserver@@UAEXABV?$basic_string@DU?$char_traits@D@std@@V?$allocator@D@2@@std@@0PBD@Z ; P2PObserver::P2POb_SigChange
PUBLIC	??0P2PObserver@@QAE@XZ				; P2PObserver::P2PObserver
PUBLIC	?OnCliekButton@IEventListener@@UAEXPAVCButton@@@Z ; IEventListener::OnCliekButton
PUBLIC	?OnCliekSlide@IEventListener@@UAEXPAVCSliderCtrl@@@Z ; IEventListener::OnCliekSlide
PUBLIC	?ILayoutChangeOb_LayerChanged@ILayoutChangeObserver@@UAEXV?$basic_string@DU?$char_traits@D@std@@V?$allocator@D@2@@std@@00@Z ; ILayoutChangeObserver::ILayoutChangeOb_LayerChanged
PUBLIC	?ILayoutChangeOb_PaneChanged@ILayoutChangeObserver@@UAEXV?$basic_string@DU?$char_traits@D@std@@V?$allocator@D@2@@std@@0@Z ; ILayoutChangeObserver::ILayoutChangeOb_PaneChanged
PUBLIC	?ILayoutChangeOb_ColorChanged@ILayoutChangeObserver@@UAEXXZ ; ILayoutChangeObserver::ILayoutChangeOb_ColorChanged
PUBLIC	?ILayoutChangeOb_ColorChanging@ILayoutChangeObserver@@UAEXXZ ; ILayoutChangeObserver::ILayoutChangeOb_ColorChanging
PUBLIC	?ILayoutChangeOb_UpdateLayout@ILayoutChangeObserver@@UAEXPAUHWND__@@@Z ; ILayoutChangeObserver::ILayoutChangeOb_UpdateLayout
PUBLIC	?ILayoutChangeOb_InitFinished@ILayoutChangeObserver@@UAEXXZ ; ILayoutChangeObserver::ILayoutChangeOb_InitFinished
PUBLIC	?ILayoutChangeOb_InitBegin@ILayoutChangeObserver@@UAEXXZ ; ILayoutChangeObserver::ILayoutChangeOb_InitBegin
PUBLIC	??0ILayoutChangeObserver@@QAE@XZ		; ILayoutChangeObserver::ILayoutChangeObserver
PUBLIC	??1ILayoutChangeObserver@@UAE@XZ		; ILayoutChangeObserver::~ILayoutChangeObserver
PUBLIC	??_R0?AVIEventListener@@@8			; IEventListener `RTTI Type Descriptor'
PUBLIC	??_R0?AVIWndEventListener@@@8			; IWndEventListener `RTTI Type Descriptor'
PUBLIC	??_R1A@?0A@A@IWndEventListener@@8		; IWndEventListener::`RTTI Base Class Descriptor at (0,-1,0,0)'
PUBLIC	??_R0?AVILayoutChangeObserver@@@8		; ILayoutChangeObserver `RTTI Type Descriptor'
PUBLIC	??_R0?AVP2PObserver@@@8				; P2PObserver `RTTI Type Descriptor'
PUBLIC	??_R4CSkinMgrV1@@6BIWndEventListener@@@		; CSkinMgrV1::`RTTI Complete Object Locator'
PUBLIC	??_R0?AVCSkinMgrV1@@@8				; CSkinMgrV1 `RTTI Type Descriptor'
PUBLIC	??_R3CSkinMgrV1@@8				; CSkinMgrV1::`RTTI Class Hierarchy Descriptor'
PUBLIC	??_R2CSkinMgrV1@@8				; CSkinMgrV1::`RTTI Base Class Array'
PUBLIC	??_R1A@?0A@A@CSkinMgrV1@@8			; CSkinMgrV1::`RTTI Base Class Descriptor at (0,-1,0,0)'
PUBLIC	??_R1A@?0A@A@IChangeColorMgr@@8			; IChangeColorMgr::`RTTI Base Class Descriptor at (0,-1,0,0)'
PUBLIC	??_R0?AVIChangeColorMgr@@@8			; IChangeColorMgr `RTTI Type Descriptor'
PUBLIC	??_R13?0A@A@IEventListener@@8			; IEventListener::`RTTI Base Class Descriptor at (4,-1,0,0)'
PUBLIC	??_R17?0A@A@P2PObserver@@8			; P2PObserver::`RTTI Base Class Descriptor at (8,-1,0,0)'
PUBLIC	??_R1M@?0A@A@ILayoutChangeObserver@@8		; ILayoutChangeObserver::`RTTI Base Class Descriptor at (12,-1,0,0)'
PUBLIC	??_R1M@?0A@A@IMessageObserver@@8		; IMessageObserver::`RTTI Base Class Descriptor at (12,-1,0,0)'
PUBLIC	??_R4CSkinMgrV1@@6BIEventListener@@@		; CSkinMgrV1::`RTTI Complete Object Locator'
PUBLIC	??_ECSkinMgrV1@@W7AEPAXI@Z			; [thunk]:CSkinMgrV1::`vector deleting destructor'
PUBLIC	??_R4CSkinMgrV1@@6BP2PObserver@@@		; CSkinMgrV1::`RTTI Complete Object Locator'
PUBLIC	??_ECSkinMgrV1@@WM@AEPAXI@Z			; [thunk]:CSkinMgrV1::`vector deleting destructor'
PUBLIC	??_R4CSkinMgrV1@@6BILayoutChangeObserver@@@	; CSkinMgrV1::`RTTI Complete Object Locator'
PUBLIC	?OnChangeSkinTemplate@IWndEventListener@@UAE_NV?$CStringT@DV?$StrTraitMFC_DLL@DV?$ChTraitsCRT@D@ATL@@@@@ATL@@@Z ; IWndEventListener::OnChangeSkinTemplate
PUBLIC	?OnchangeColor@IWndEventListener@@UAEXKI@Z	; IWndEventListener::OnchangeColor
PUBLIC	??_R0?AVIMessageObserver@@@8			; IMessageObserver `RTTI Type Descriptor'
PUBLIC	??0IChangeColorMgr@@QAE@XZ			; IChangeColorMgr::IChangeColorMgr
PUBLIC	??0?$vector@PAVIChangeSkinEventListener@@V?$allocator@PAVIChangeSkinEventListener@@@std@@@std@@QAE@XZ ; std::vector<IChangeSkinEventListener *,std::allocator<IChangeSkinEventListener *> >::vector<IChangeSkinEventListener *,std::allocator<IChangeSkinEventListener *> >
PUBLIC	??1?$vector@PAVIChangeSkinEventListener@@V?$allocator@PAVIChangeSkinEventListener@@@std@@@std@@QAE@XZ ; std::vector<IChangeSkinEventListener *,std::allocator<IChangeSkinEventListener *> >::~vector<IChangeSkinEventListener *,std::allocator<IChangeSkinEventListener *> >
PUBLIC	?GetSkinWnd@CSkinMgrV1@@UAEPAVCWnd@@XZ		; CSkinMgrV1::GetSkinWnd
PUBLIC	??0CSkinMgrV1@@QAE@XZ				; CSkinMgrV1::CSkinMgrV1
PUBLIC	?CloseSkinWnd@CSkinMgrV1@@UAE_NXZ		; CSkinMgrV1::CloseSkinWnd
PUBLIC	?PopSkinWnd@CSkinMgrV1@@UAEHPAVCWnd@@IUtagPOINT@@@Z ; CSkinMgrV1::PopSkinWnd
PUBLIC	?InsertSmallSkin@CSkinMgrV1@@UAE_NV?$basic_string@DU?$char_traits@D@std@@V?$allocator@D@2@@std@@PAVCBitmap@@0_N@Z ; CSkinMgrV1::InsertSmallSkin
PUBLIC	?InsertSmallSubjectSkin@CSkinMgrV1@@UAE_NV?$basic_string@DU?$char_traits@D@std@@V?$allocator@D@2@@std@@PAVCBitmap@@0_N@Z ; CSkinMgrV1::InsertSmallSubjectSkin
PUBLIC	?SetTipText@CSkinMgrV1@@UAEXV?$CStringT@DV?$StrTraitMFC_DLL@DV?$ChTraitsCRT@D@ATL@@@@@ATL@@0@Z ; CSkinMgrV1::SetTipText
PUBLIC	?ChangeBmp@CSkinMgrV1@@UAEPAVDIBINFO@@V2@IK@Z	; CSkinMgrV1::ChangeBmp
PUBLIC	?ChangeColor@CSkinMgrV1@@UAEXAAK@Z		; CSkinMgrV1::ChangeColor
PUBLIC	?SetListener@CSkinMgrV1@@UAEXPAVIChangeSkinEventListener@@@Z ; CSkinMgrV1::SetListener
PUBLIC	?RemoveListener@CSkinMgrV1@@UAEXPAVIChangeSkinEventListener@@@Z ; CSkinMgrV1::RemoveListener
PUBLIC	?OnClose@CSkinMgrV1@@UAEXXZ			; CSkinMgrV1::OnClose
PUBLIC	?SetSelectedColor@CSkinMgrV1@@UAEXK@Z		; CSkinMgrV1::SetSelectedColor
PUBLIC	?BeforeChangeColor@CSkinMgrV1@@UAEXXZ		; CSkinMgrV1::BeforeChangeColor
PUBLIC	?AfterChangeColor@CSkinMgrV1@@UAEXXZ		; CSkinMgrV1::AfterChangeColor
PUBLIC	?SetTopMost@CSkinMgrV1@@UAEX_N@Z		; CSkinMgrV1::SetTopMost
PUBLIC	?DeleteObject@CSkinMgrV1@@UAEXXZ		; CSkinMgrV1::DeleteObject
PUBLIC	?DownloadStart@CSkinMgrV1@@UAEXXZ		; CSkinMgrV1::DownloadStart
PUBLIC	?SetDownloadPercentage@CSkinMgrV1@@UAEXHV?$CStringT@DV?$StrTraitMFC_DLL@DV?$ChTraitsCRT@D@ATL@@@@@ATL@@@Z ; CSkinMgrV1::SetDownloadPercentage
PUBLIC	?DownloadFinish@CSkinMgrV1@@UAEXV?$CStringT@DV?$StrTraitMFC_DLL@DV?$ChTraitsCRT@D@ATL@@@@@ATL@@@Z ; CSkinMgrV1::DownloadFinish
PUBLIC	?NotifyChangeSubject@CSkinMgrV1@@UAEXABV?$CStringT@DV?$StrTraitMFC_DLL@DV?$ChTraitsCRT@D@ATL@@@@@ATL@@@Z ; CSkinMgrV1::NotifyChangeSubject
PUBLIC	?OnTabSelChange@CSkinMgrV1@@UAEXI@Z		; CSkinMgrV1::OnTabSelChange
PUBLIC	?ClickSub@CSkinMgrV1@@UAEXABV?$CStringT@DV?$StrTraitMFC_DLL@DV?$ChTraitsCRT@D@ATL@@@@@ATL@@@Z ; CSkinMgrV1::ClickSub
PUBLIC	?DownloadWebSub@CSkinMgrV1@@UAEXABV?$CStringT@DV?$StrTraitMFC_DLL@DV?$ChTraitsCRT@D@ATL@@@@@ATL@@0@Z ; CSkinMgrV1::DownloadWebSub
PUBLIC	?ILayoutChangeOb_SkinChanged@CSkinMgrV1@@UAEXV?$basic_string@DU?$char_traits@D@std@@V?$allocator@D@2@@std@@0@Z ; CSkinMgrV1::ILayoutChangeOb_SkinChanged
PUBLIC	?OnSendChangeColor@CSkinMgrV1@@UAEXKI_N@Z	; CSkinMgrV1::OnSendChangeColor
EXTRN	__except_list:DWORD
EXTRN	___CxxFrameHandler:NEAR
EXTRN	?AfxGetMessageManager@@YAPAVIMessageManager@@XZ:NEAR ; AfxGetMessageManager
EXTRN	__imp__InitializeCriticalSection@4:NEAR
EXTRN	__imp_??0?$CStringT@DV?$StrTraitMFC_DLL@DV?$ChTraitsCRT@D@ATL@@@@@ATL@@QAE@XZ:NEAR
EXTRN	__imp_??1?$CStringT@DV?$StrTraitMFC_DLL@DV?$ChTraitsCRT@D@ATL@@@@@ATL@@QAE@XZ:NEAR
EXTRN	??_7type_info@@6B@:QWORD			; type_info::`vftable'
xdata$x	SEGMENT
$T194690 DD	0ffffffffH
	DD	FLAT:$L194677
	DD	00H
	DD	FLAT:$L194678
	DD	01H
	DD	FLAT:$L194679
	DD	02H
	DD	FLAT:$L194680
	DD	03H
	DD	FLAT:$L194681
	DD	04H
	DD	FLAT:$L194682
	DD	05H
	DD	FLAT:$L194683
$T194687 DD	019930520H
	DD	07H
	DD	FLAT:$T194690
	DD	2 DUP(00H)
	DD	2 DUP(00H)
xdata$x	ENDS
;	COMDAT ??_7CSkinMgrV1@@6BIWndEventListener@@@
; File d:\boxgit\playbox\playbox\dev\prj\playbox\src\layoutmgr\changecolor\ichangecolormgr.cpp
CONST	SEGMENT
??_7CSkinMgrV1@@6BIWndEventListener@@@ DD FLAT:??_R4CSkinMgrV1@@6BIWndEventListener@@@ ; CSkinMgrV1::`vftable'
	DD	FLAT:?OnChangeSkinTemplate@IWndEventListener@@UAE_NV?$CStringT@DV?$StrTraitMFC_DLL@DV?$ChTraitsCRT@D@ATL@@@@@ATL@@@Z
	DD	FLAT:?OnchangeColor@IWndEventListener@@UAEXKI@Z
	DD	FLAT:?OnTabSelChange@CSkinMgrV1@@UAEXI@Z
	DD	FLAT:?CloseSkinWnd@CSkinMgrV1@@UAE_NXZ
	DD	FLAT:?PopSkinWnd@CSkinMgrV1@@UAEHPAVCWnd@@IUtagPOINT@@@Z
	DD	FLAT:?GetSkinWnd@CSkinMgrV1@@UAEPAVCWnd@@XZ
	DD	FLAT:?InsertSmallSkin@CSkinMgrV1@@UAE_NV?$basic_string@DU?$char_traits@D@std@@V?$allocator@D@2@@std@@PAVCBitmap@@0_N@Z
	DD	FLAT:?InsertSmallSubjectSkin@CSkinMgrV1@@UAE_NV?$basic_string@DU?$char_traits@D@std@@V?$allocator@D@2@@std@@PAVCBitmap@@0_N@Z
	DD	FLAT:?ChangeBmp@CSkinMgrV1@@UAEPAVDIBINFO@@V2@IK@Z
	DD	FLAT:?ChangeColor@CSkinMgrV1@@UAEXAAK@Z
	DD	FLAT:?SetTipText@CSkinMgrV1@@UAEXV?$CStringT@DV?$StrTraitMFC_DLL@DV?$ChTraitsCRT@D@ATL@@@@@ATL@@0@Z
	DD	FLAT:?SetListener@CSkinMgrV1@@UAEXPAVIChangeSkinEventListener@@@Z
	DD	FLAT:?RemoveListener@CSkinMgrV1@@UAEXPAVIChangeSkinEventListener@@@Z
	DD	FLAT:?OnClose@CSkinMgrV1@@UAEXXZ
	DD	FLAT:?BeforeChangeColor@CSkinMgrV1@@UAEXXZ
	DD	FLAT:?AfterChangeColor@CSkinMgrV1@@UAEXXZ
	DD	FLAT:?SetTopMost@CSkinMgrV1@@UAEX_N@Z
	DD	FLAT:?SetSelectedColor@CSkinMgrV1@@UAEXK@Z
	DD	FLAT:?DeleteObject@CSkinMgrV1@@UAEXXZ
	DD	FLAT:?DownloadStart@CSkinMgrV1@@UAEXXZ
	DD	FLAT:?SetDownloadPercentage@CSkinMgrV1@@UAEXHV?$CStringT@DV?$StrTraitMFC_DLL@DV?$ChTraitsCRT@D@ATL@@@@@ATL@@@Z
	DD	FLAT:?DownloadFinish@CSkinMgrV1@@UAEXV?$CStringT@DV?$StrTraitMFC_DLL@DV?$ChTraitsCRT@D@ATL@@@@@ATL@@@Z
	DD	FLAT:?NotifyChangeSubject@CSkinMgrV1@@UAEXABV?$CStringT@DV?$StrTraitMFC_DLL@DV?$ChTraitsCRT@D@ATL@@@@@ATL@@@Z
	DD	FLAT:?ClickSub@CSkinMgrV1@@UAEXABV?$CStringT@DV?$StrTraitMFC_DLL@DV?$ChTraitsCRT@D@ATL@@@@@ATL@@@Z
	DD	FLAT:?DownloadWebSub@CSkinMgrV1@@UAEXABV?$CStringT@DV?$StrTraitMFC_DLL@DV?$ChTraitsCRT@D@ATL@@@@@ATL@@0@Z
CONST	ENDS
;	COMDAT ??_7CSkinMgrV1@@6BIEventListener@@@
CONST	SEGMENT
??_7CSkinMgrV1@@6BIEventListener@@@ DD FLAT:??_R4CSkinMgrV1@@6BIEventListener@@@ ; CSkinMgrV1::`vftable'
	DD	FLAT:?OnCliekButton@IEventListener@@UAEXPAVCButton@@@Z
	DD	FLAT:?OnCliekSlide@IEventListener@@UAEXPAVCSliderCtrl@@@Z
	DD	FLAT:?OnSendChangeColor@CSkinMgrV1@@UAEXKI_N@Z
	DD	FLAT:?OnSendChangeSkin@CSkinMgrV1@@UAEXV?$CStringT@DV?$StrTraitMFC_DLL@DV?$ChTraitsCRT@D@ATL@@@@@ATL@@@Z
	DD	FLAT:?OnSendChangeSubject@CSkinMgrV1@@UAEXV?$CStringT@DV?$StrTraitMFC_DLL@DV?$ChTraitsCRT@D@ATL@@@@@ATL@@0@Z
	DD	FLAT:?OnChangeSkinAndSub@CSkinMgrV1@@UAEXABV?$CStringT@DV?$StrTraitMFC_DLL@DV?$ChTraitsCRT@D@ATL@@@@@ATL@@0@Z
	DD	FLAT:?OnStartDownSubject@CSkinMgrV1@@UAEXABV?$CStringT@DV?$StrTraitMFC_DLL@DV?$ChTraitsCRT@D@ATL@@@@@ATL@@@Z
	DD	FLAT:?OnFinishDownSubject@CSkinMgrV1@@UAEXH@Z
CONST	ENDS
;	COMDAT ??_7CSkinMgrV1@@6BP2PObserver@@@
CONST	SEGMENT
??_7CSkinMgrV1@@6BP2PObserver@@@ DD FLAT:??_R4CSkinMgrV1@@6BP2PObserver@@@ ; CSkinMgrV1::`vftable'
	DD	FLAT:??_ECSkinMgrV1@@W7AEPAXI@Z
	DD	FLAT:?P2POb_DownStart@P2PObserver@@UAEXABV?$basic_string@DU?$char_traits@D@std@@V?$allocator@D@2@@std@@PBDI@Z
	DD	FLAT:?P2POb_DownFinish@P2PObserver@@UAEXABV?$basic_string@DU?$char_traits@D@std@@V?$allocator@D@2@@std@@@Z
	DD	FLAT:?P2POb_DownFailed@P2PObserver@@UAEXABV?$basic_string@DU?$char_traits@D@std@@V?$allocator@D@2@@std@@W4P2P_DOWN_FAILED_REASON@@@Z
	DD	FLAT:?P2POb_DownProgress@P2PObserver@@UAEXABV?$basic_string@DU?$char_traits@D@std@@V?$allocator@D@2@@std@@III@Z
	DD	FLAT:?P2POb_DownPause@P2PObserver@@UAEXABV?$basic_string@DU?$char_traits@D@std@@V?$allocator@D@2@@std@@@Z
	DD	FLAT:?P2POb_SigChange@P2PObserver@@UAEXABV?$basic_string@DU?$char_traits@D@std@@V?$allocator@D@2@@std@@0PBD@Z
CONST	ENDS
;	COMDAT ??_7CSkinMgrV1@@6BILayoutChangeObserver@@@
CONST	SEGMENT
??_7CSkinMgrV1@@6BILayoutChangeObserver@@@ DD FLAT:??_R4CSkinMgrV1@@6BILayoutChangeObserver@@@ ; CSkinMgrV1::`vftable'
	DD	FLAT:??_ECSkinMgrV1@@WM@AEPAXI@Z
	DD	FLAT:?ILayoutChangeOb_LayerChanged@ILayoutChangeObserver@@UAEXV?$basic_string@DU?$char_traits@D@std@@V?$allocator@D@2@@std@@00@Z
	DD	FLAT:?ILayoutChangeOb_PaneChanged@ILayoutChangeObserver@@UAEXV?$basic_string@DU?$char_traits@D@std@@V?$allocator@D@2@@std@@0@Z
	DD	FLAT:?ILayoutChangeOb_SkinChanged@CSkinMgrV1@@UAEXV?$basic_string@DU?$char_traits@D@std@@V?$allocator@D@2@@std@@0@Z
	DD	FLAT:?ILayoutChangeOb_ColorChanged@ILayoutChangeObserver@@UAEXXZ
	DD	FLAT:?ILayoutChangeOb_ColorChanging@ILayoutChangeObserver@@UAEXXZ
	DD	FLAT:?ILayoutChangeOb_UpdateLayout@ILayoutChangeObserver@@UAEXPAUHWND__@@@Z
	DD	FLAT:?ILayoutChangeOb_InitFinished@ILayoutChangeObserver@@UAEXXZ
	DD	FLAT:?ILayoutChangeOb_InitBegin@ILayoutChangeObserver@@UAEXXZ
CONST	ENDS
;	COMDAT ??_R4CSkinMgrV1@@6BIWndEventListener@@@
rdata$r	SEGMENT
??_R4CSkinMgrV1@@6BIWndEventListener@@@ DD 00H		; CSkinMgrV1::`RTTI Complete Object Locator'
	DD	00H
	DD	00H
	DD	FLAT:??_R0?AVCSkinMgrV1@@@8
	DD	FLAT:??_R3CSkinMgrV1@@8
rdata$r	ENDS
;	COMDAT ??_R0?AVCSkinMgrV1@@@8
_DATA	SEGMENT
??_R0?AVCSkinMgrV1@@@8 DD FLAT:??_7type_info@@6B@	; CSkinMgrV1 `RTTI Type Descriptor'
	DD	00H
	DB	'.?AVCSkinMgrV1@@', 00H
_DATA	ENDS
;	COMDAT ??_R3CSkinMgrV1@@8
rdata$r	SEGMENT
??_R3CSkinMgrV1@@8 DD 00H				; CSkinMgrV1::`RTTI Class Hierarchy Descriptor'
	DD	01H
	DD	07H
	DD	FLAT:??_R2CSkinMgrV1@@8
rdata$r	ENDS
;	COMDAT ??_R2CSkinMgrV1@@8
rdata$r	SEGMENT
??_R2CSkinMgrV1@@8 DD FLAT:??_R1A@?0A@A@CSkinMgrV1@@8	; CSkinMgrV1::`RTTI Base Class Array'
	DD	FLAT:??_R1A@?0A@A@IChangeColorMgr@@8
	DD	FLAT:??_R1A@?0A@A@IWndEventListener@@8
	DD	FLAT:??_R13?0A@A@IEventListener@@8
	DD	FLAT:??_R17?0A@A@P2PObserver@@8
	DD	FLAT:??_R1M@?0A@A@ILayoutChangeObserver@@8
	DD	FLAT:??_R1M@?0A@A@IMessageObserver@@8
rdata$r	ENDS
;	COMDAT ??_R1A@?0A@A@CSkinMgrV1@@8
rdata$r	SEGMENT
??_R1A@?0A@A@CSkinMgrV1@@8 DD FLAT:??_R0?AVCSkinMgrV1@@@8 ; CSkinMgrV1::`RTTI Base Class Descriptor at (0,-1,0,0)'
	DD	06H
	DD	00H
	DD	0ffffffffH
	DD	00H
	DD	00H
rdata$r	ENDS
;	COMDAT ??_R1A@?0A@A@IChangeColorMgr@@8
rdata$r	SEGMENT
??_R1A@?0A@A@IChangeColorMgr@@8 DD FLAT:??_R0?AVIChangeColorMgr@@@8 ; IChangeColorMgr::`RTTI Base Class Descriptor at (0,-1,0,0)'
	DD	02H
	DD	00H
	DD	0ffffffffH
	DD	00H
	DD	00H
rdata$r	ENDS
;	COMDAT ??_R0?AVIChangeColorMgr@@@8
_DATA	SEGMENT
??_R0?AVIChangeColorMgr@@@8 DD FLAT:??_7type_info@@6B@	; IChangeColorMgr `RTTI Type Descriptor'
	DD	00H
	DB	'.?AVIChangeColorMgr@@', 00H
_DATA	ENDS
;	COMDAT ??_R1A@?0A@A@IWndEventListener@@8
rdata$r	SEGMENT
??_R1A@?0A@A@IWndEventListener@@8 DD FLAT:??_R0?AVIWndEventListener@@@8 ; IWndEventListener::`RTTI Base Class Descriptor at (0,-1,0,0)'
	DD	00H
	DD	00H
	DD	0ffffffffH
	DD	00H
	DD	00H
rdata$r	ENDS
;	COMDAT ??_R0?AVIWndEventListener@@@8
_DATA	SEGMENT
??_R0?AVIWndEventListener@@@8 DD FLAT:??_7type_info@@6B@ ; IWndEventListener `RTTI Type Descriptor'
	DD	00H
	DB	'.?AVIWndEventListener@@', 00H
_DATA	ENDS
;	COMDAT ??_R13?0A@A@IEventListener@@8
rdata$r	SEGMENT
??_R13?0A@A@IEventListener@@8 DD FLAT:??_R0?AVIEventListener@@@8 ; IEventListener::`RTTI Base Class Descriptor at (4,-1,0,0)'
	DD	00H
	DD	04H
	DD	0ffffffffH
	DD	00H
	DD	00H
rdata$r	ENDS
;	COMDAT ??_R0?AVIEventListener@@@8
_DATA	SEGMENT
??_R0?AVIEventListener@@@8 DD FLAT:??_7type_info@@6B@	; IEventListener `RTTI Type Descriptor'
	DD	00H
	DB	'.?AVIEventListener@@', 00H
_DATA	ENDS
;	COMDAT ??_R17?0A@A@P2PObserver@@8
rdata$r	SEGMENT
??_R17?0A@A@P2PObserver@@8 DD FLAT:??_R0?AVP2PObserver@@@8 ; P2PObserver::`RTTI Base Class Descriptor at (8,-1,0,0)'
	DD	00H
	DD	08H
	DD	0ffffffffH
	DD	00H
	DD	00H
rdata$r	ENDS
;	COMDAT ??_R0?AVP2PObserver@@@8
_DATA	SEGMENT
??_R0?AVP2PObserver@@@8 DD FLAT:??_7type_info@@6B@	; P2PObserver `RTTI Type Descriptor'
	DD	00H
	DB	'.?AVP2PObserver@@', 00H
_DATA	ENDS
;	COMDAT ??_R1M@?0A@A@ILayoutChangeObserver@@8
rdata$r	SEGMENT
??_R1M@?0A@A@ILayoutChangeObserver@@8 DD FLAT:??_R0?AVILayoutChangeObserver@@@8 ; ILayoutChangeObserver::`RTTI Base Class Descriptor at (12,-1,0,0)'
	DD	01H
	DD	0cH
	DD	0ffffffffH
	DD	00H
	DD	00H
rdata$r	ENDS
;	COMDAT ??_R0?AVILayoutChangeObserver@@@8
_DATA	SEGMENT
??_R0?AVILayoutChangeObserver@@@8 DD FLAT:??_7type_info@@6B@ ; ILayoutChangeObserver `RTTI Type Descriptor'
	DD	00H
	DB	'.?AVILayoutChangeObserver@@', 00H
_DATA	ENDS
;	COMDAT ??_R1M@?0A@A@IMessageObserver@@8
rdata$r	SEGMENT
??_R1M@?0A@A@IMessageObserver@@8 DD FLAT:??_R0?AVIMessageObserver@@@8 ; IMessageObserver::`RTTI Base Class Descriptor at (12,-1,0,0)'
	DD	00H
	DD	0cH
	DD	0ffffffffH
	DD	00H
	DD	00H
rdata$r	ENDS
;	COMDAT ??_R0?AVIMessageObserver@@@8
_DATA	SEGMENT
??_R0?AVIMessageObserver@@@8 DD FLAT:??_7type_info@@6B@	; IMessageObserver `RTTI Type Descriptor'
	DD	00H
	DB	'.?AVIMessageObserver@@', 00H
	ORG $-31
	DD	FLAT:??_7type_info@@6B@
	DD	00H
	DB	'.?AVIMessageObserver@@', 00H
_DATA	ENDS
;	COMDAT ??_R4CSkinMgrV1@@6BIEventListener@@@
rdata$r	SEGMENT
??_R4CSkinMgrV1@@6BIEventListener@@@ DD 00H		; CSkinMgrV1::`RTTI Complete Object Locator'
	DD	04H
	DD	00H
	DD	FLAT:??_R0?AVCSkinMgrV1@@@8
	DD	FLAT:??_R3CSkinMgrV1@@8
rdata$r	ENDS
;	COMDAT ??_R4CSkinMgrV1@@6BP2PObserver@@@
rdata$r	SEGMENT
??_R4CSkinMgrV1@@6BP2PObserver@@@ DD 00H		; CSkinMgrV1::`RTTI Complete Object Locator'
	DD	08H
	DD	00H
	DD	FLAT:??_R0?AVCSkinMgrV1@@@8
	DD	FLAT:??_R3CSkinMgrV1@@8
rdata$r	ENDS
;	COMDAT ??_R4CSkinMgrV1@@6BILayoutChangeObserver@@@
rdata$r	SEGMENT
??_R4CSkinMgrV1@@6BILayoutChangeObserver@@@ DD 00H	; CSkinMgrV1::`RTTI Complete Object Locator'
	DD	0cH
	DD	00H
	DD	FLAT:??_R0?AVCSkinMgrV1@@@8
	DD	FLAT:??_R3CSkinMgrV1@@8
; Function compile flags: /Odt /RTCsu
rdata$r	ENDS
_TEXT	SEGMENT
tv167 = -24						; size = 4
tv173 = -20						; size = 4
_this$ = -16						; size = 4
__$EHRec$ = -12						; size = 12
??0CSkinMgrV1@@QAE@XZ PROC NEAR				; CSkinMgrV1::CSkinMgrV1
; _this$ = ecx

; 24   : {

  00000	55		 push	 ebp
  00001	8b ec		 mov	 ebp, esp
  00003	6a ff		 push	 -1
  00005	68 00 00 00 00	 push	 __ehhandler$??0CSkinMgrV1@@QAE@XZ
  0000a	64 a1 00 00 00
	00		 mov	 eax, DWORD PTR fs:__except_list
  00010	50		 push	 eax
  00011	64 89 25 00 00
	00 00		 mov	 DWORD PTR fs:__except_list, esp
  00018	83 ec 0c	 sub	 esp, 12			; 0000000cH
  0001b	56		 push	 esi
  0001c	c7 45 e8 cc cc
	cc cc		 mov	 DWORD PTR [ebp-24], -858993460 ; ccccccccH
  00023	c7 45 ec cc cc
	cc cc		 mov	 DWORD PTR [ebp-20], -858993460 ; ccccccccH
  0002a	c7 45 f0 cc cc
	cc cc		 mov	 DWORD PTR [ebp-16], -858993460 ; ccccccccH
  00031	89 4d f0	 mov	 DWORD PTR _this$[ebp], ecx
  00034	8b 4d f0	 mov	 ecx, DWORD PTR _this$[ebp]
  00037	e8 00 00 00 00	 call	 ??0IChangeColorMgr@@QAE@XZ
  0003c	8b 4d f0	 mov	 ecx, DWORD PTR _this$[ebp]
  0003f	83 c1 08	 add	 ecx, 8
  00042	e8 00 00 00 00	 call	 ??0P2PObserver@@QAE@XZ
  00047	c7 45 fc 00 00
	00 00		 mov	 DWORD PTR __$EHRec$[ebp+8], 0
  0004e	8b 4d f0	 mov	 ecx, DWORD PTR _this$[ebp]
  00051	83 c1 0c	 add	 ecx, 12			; 0000000cH
  00054	e8 00 00 00 00	 call	 ??0ILayoutChangeObserver@@QAE@XZ
  00059	c6 45 fc 01	 mov	 BYTE PTR __$EHRec$[ebp+8], 1
  0005d	8b 45 f0	 mov	 eax, DWORD PTR _this$[ebp]
  00060	c7 00 00 00 00
	00		 mov	 DWORD PTR [eax], OFFSET FLAT:??_7CSkinMgrV1@@6BIWndEventListener@@@
  00066	8b 4d f0	 mov	 ecx, DWORD PTR _this$[ebp]
  00069	c7 41 04 00 00
	00 00		 mov	 DWORD PTR [ecx+4], OFFSET FLAT:??_7CSkinMgrV1@@6BIEventListener@@@
  00070	8b 55 f0	 mov	 edx, DWORD PTR _this$[ebp]
  00073	c7 42 08 00 00
	00 00		 mov	 DWORD PTR [edx+8], OFFSET FLAT:??_7CSkinMgrV1@@6BP2PObserver@@@
  0007a	8b 45 f0	 mov	 eax, DWORD PTR _this$[ebp]
  0007d	c7 40 0c 00 00
	00 00		 mov	 DWORD PTR [eax+12], OFFSET FLAT:??_7CSkinMgrV1@@6BILayoutChangeObserver@@@
  00084	8b 4d f0	 mov	 ecx, DWORD PTR _this$[ebp]
  00087	83 c1 34	 add	 ecx, 52			; 00000034H
  0008a	8b f4		 mov	 esi, esp
  0008c	ff 15 00 00 00
	00		 call	 DWORD PTR __imp_??0?$CStringT@DV?$StrTraitMFC_DLL@DV?$ChTraitsCRT@D@ATL@@@@@ATL@@QAE@XZ
  00092	3b f4		 cmp	 esi, esp
  00094	e8 00 00 00 00	 call	 __RTC_CheckEsp
  00099	c6 45 fc 02	 mov	 BYTE PTR __$EHRec$[ebp+8], 2
  0009d	8b 4d f0	 mov	 ecx, DWORD PTR _this$[ebp]
  000a0	83 c1 38	 add	 ecx, 56			; 00000038H
  000a3	e8 00 00 00 00	 call	 ??0?$vector@PAVIChangeSkinEventListener@@V?$allocator@PAVIChangeSkinEventListener@@@std@@@std@@QAE@XZ ; std::vector<IChangeSkinEventListener *,std::allocator<IChangeSkinEventListener *> >::vector<IChangeSkinEventListener *,std::allocator<IChangeSkinEventListener *> >
  000a8	c6 45 fc 03	 mov	 BYTE PTR __$EHRec$[ebp+8], 3
  000ac	8b 4d f0	 mov	 ecx, DWORD PTR _this$[ebp]
  000af	83 c1 58	 add	 ecx, 88			; 00000058H
  000b2	8b f4		 mov	 esi, esp
  000b4	ff 15 00 00 00
	00		 call	 DWORD PTR __imp_??0?$CStringT@DV?$StrTraitMFC_DLL@DV?$ChTraitsCRT@D@ATL@@@@@ATL@@QAE@XZ
  000ba	3b f4		 cmp	 esi, esp
  000bc	e8 00 00 00 00	 call	 __RTC_CheckEsp
  000c1	c6 45 fc 04	 mov	 BYTE PTR __$EHRec$[ebp+8], 4
  000c5	8b 4d f0	 mov	 ecx, DWORD PTR _this$[ebp]
  000c8	83 c1 5c	 add	 ecx, 92			; 0000005cH
  000cb	8b f4		 mov	 esi, esp
  000cd	ff 15 00 00 00
	00		 call	 DWORD PTR __imp_??0?$CStringT@DV?$StrTraitMFC_DLL@DV?$ChTraitsCRT@D@ATL@@@@@ATL@@QAE@XZ
  000d3	3b f4		 cmp	 esi, esp
  000d5	e8 00 00 00 00	 call	 __RTC_CheckEsp
  000da	c6 45 fc 05	 mov	 BYTE PTR __$EHRec$[ebp+8], 5
  000de	8b 4d f0	 mov	 ecx, DWORD PTR _this$[ebp]
  000e1	83 c1 60	 add	 ecx, 96			; 00000060H
  000e4	8b f4		 mov	 esi, esp
  000e6	ff 15 00 00 00
	00		 call	 DWORD PTR __imp_??0?$CStringT@DV?$StrTraitMFC_DLL@DV?$ChTraitsCRT@D@ATL@@@@@ATL@@QAE@XZ
  000ec	3b f4		 cmp	 esi, esp
  000ee	e8 00 00 00 00	 call	 __RTC_CheckEsp
  000f3	c6 45 fc 06	 mov	 BYTE PTR __$EHRec$[ebp+8], 6

; 25   : 	mp_mainSkinWnd		= NULL;

  000f7	8b 4d f0	 mov	 ecx, DWORD PTR _this$[ebp]
  000fa	c7 41 10 00 00
	00 00		 mov	 DWORD PTR [ecx+16], 0

; 26   : 	mp_skinWnd			= NULL;

  00101	8b 55 f0	 mov	 edx, DWORD PTR _this$[ebp]
  00104	c7 42 14 00 00
	00 00		 mov	 DWORD PTR [edx+20], 0

; 27   : 
; 28   : 	mp_downloadSkin		= NULL;

  0010b	8b 45 f0	 mov	 eax, DWORD PTR _this$[ebp]
  0010e	c7 40 20 00 00
	00 00		 mov	 DWORD PTR [eax+32], 0

; 29   : 	mp_downloadSubject	= NULL;

  00115	8b 4d f0	 mov	 ecx, DWORD PTR _this$[ebp]
  00118	c7 41 24 00 00
	00 00		 mov	 DWORD PTR [ecx+36], 0

; 30   : 
; 31   : 	m_BaseColor			= RGB( 0,0,0);

  0011f	8b 55 f0	 mov	 edx, DWORD PTR _this$[ebp]
  00122	c7 42 28 00 00
	00 00		 mov	 DWORD PTR [edx+40], 0

; 32   : 	m_nLightPos			= 120;

  00129	8b 45 f0	 mov	 eax, DWORD PTR _this$[ebp]
  0012c	c7 40 30 78 00
	00 00		 mov	 DWORD PTR [eax+48], 120	; 00000078H

; 33   : 	mb_HasPopWnd		= false;

  00133	8b 4d f0	 mov	 ecx, DWORD PTR _this$[ebp]
  00136	c6 41 48 00	 mov	 BYTE PTR [ecx+72], 0

; 34   : 	mb_isDownSkin		= false;

  0013a	8b 55 f0	 mov	 edx, DWORD PTR _this$[ebp]
  0013d	c6 42 49 00	 mov	 BYTE PTR [edx+73], 0

; 35   : 	mb_isDownSubject    = false;

  00141	8b 45 f0	 mov	 eax, DWORD PTR _this$[ebp]
  00144	c6 40 4a 00	 mov	 BYTE PTR [eax+74], 0

; 36   : 	mb_isDownWebSub		= false;

  00148	8b 4d f0	 mov	 ecx, DWORD PTR _this$[ebp]
  0014b	c6 41 4b 00	 mov	 BYTE PTR [ecx+75], 0

; 37   : 	m_DefaultColor = RGB( 0,0,0);

  0014f	8b 55 f0	 mov	 edx, DWORD PTR _this$[ebp]
  00152	c7 42 2c 00 00
	00 00		 mov	 DWORD PTR [edx+44], 0

; 38   : 	mp_SubjectWnd	= NULL;

  00159	8b 45 f0	 mov	 eax, DWORD PTR _this$[ebp]
  0015c	c7 40 18 00 00
	00 00		 mov	 DWORD PTR [eax+24], 0

; 39   : 
; 40   : 	m_iCheckTab = 0;

  00163	8b 4d f0	 mov	 ecx, DWORD PTR _this$[ebp]
  00166	c7 81 80 00 00
	00 00 00 00 00	 mov	 DWORD PTR [ecx+128], 0

; 41   : 	mb_isFirstPop = TRUE;

  00170	8b 55 f0	 mov	 edx, DWORD PTR _this$[ebp]
  00173	c6 42 4c 01	 mov	 BYTE PTR [edx+76], 1

; 42   : 	InitializeCriticalSection( &m_csDownInfo );

  00177	8b 45 f0	 mov	 eax, DWORD PTR _this$[ebp]
  0017a	83 c0 68	 add	 eax, 104		; 00000068H
  0017d	8b f4		 mov	 esi, esp
  0017f	50		 push	 eax
  00180	ff 15 00 00 00
	00		 call	 DWORD PTR __imp__InitializeCriticalSection@4
  00186	3b f4		 cmp	 esi, esp
  00188	e8 00 00 00 00	 call	 __RTC_CheckEsp

; 43   : 
; 44   : 	AfxGetMessageManager()->AttachMessage( ID_MESSAGE_LAYOUTMGR,(ILayoutChangeObserver*)this);

  0018d	83 7d f0 00	 cmp	 DWORD PTR _this$[ebp], 0
  00191	74 0b		 je	 SHORT $L194675
  00193	8b 4d f0	 mov	 ecx, DWORD PTR _this$[ebp]
  00196	83 c1 0c	 add	 ecx, 12			; 0000000cH
  00199	89 4d ec	 mov	 DWORD PTR tv173[ebp], ecx
  0019c	eb 07		 jmp	 SHORT $L194676
$L194675:
  0019e	c7 45 ec 00 00
	00 00		 mov	 DWORD PTR tv173[ebp], 0
$L194676:
  001a5	e8 00 00 00 00	 call	 ?AfxGetMessageManager@@YAPAVIMessageManager@@XZ ; AfxGetMessageManager
  001aa	89 45 e8	 mov	 DWORD PTR tv167[ebp], eax
  001ad	8b f4		 mov	 esi, esp
  001af	6a 02		 push	 2
  001b1	8b 55 ec	 mov	 edx, DWORD PTR tv173[ebp]
  001b4	52		 push	 edx
  001b5	68 00 00 00 00	 push	 OFFSET FLAT:_ID_MESSAGE_LAYOUTMGR
  001ba	8b 45 e8	 mov	 eax, DWORD PTR tv167[ebp]
  001bd	8b 10		 mov	 edx, DWORD PTR [eax]
  001bf	8b 4d e8	 mov	 ecx, DWORD PTR tv167[ebp]
  001c2	ff 52 04	 call	 DWORD PTR [edx+4]
  001c5	3b f4		 cmp	 esi, esp
  001c7	e8 00 00 00 00	 call	 __RTC_CheckEsp

; 45   : }

  001cc	c7 45 fc ff ff
	ff ff		 mov	 DWORD PTR __$EHRec$[ebp+8], -1
  001d3	8b 45 f0	 mov	 eax, DWORD PTR _this$[ebp]
  001d6	8b 4d f4	 mov	 ecx, DWORD PTR __$EHRec$[ebp]
  001d9	64 89 0d 00 00
	00 00		 mov	 DWORD PTR fs:__except_list, ecx
  001e0	5e		 pop	 esi
  001e1	83 c4 18	 add	 esp, 24			; 00000018H
  001e4	3b ec		 cmp	 ebp, esp
  001e6	e8 00 00 00 00	 call	 __RTC_CheckEsp
  001eb	8b e5		 mov	 esp, ebp
  001ed	5d		 pop	 ebp
  001ee	c3		 ret	 0
_TEXT	ENDS
text$x	SEGMENT
$L194677:
  00000	8b 4d f0	 mov	 ecx, DWORD PTR _this$[ebp]
  00003	83 c1 08	 add	 ecx, 8
  00006	e9 00 00 00 00	 jmp	 ??1P2PObserver@@UAE@XZ	; P2PObserver::~P2PObserver
$L194678:
  0000b	8b 4d f0	 mov	 ecx, DWORD PTR _this$[ebp]
  0000e	83 c1 0c	 add	 ecx, 12			; 0000000cH
  00011	e9 00 00 00 00	 jmp	 ??1ILayoutChangeObserver@@UAE@XZ
$L194679:
  00016	8b 4d f0	 mov	 ecx, DWORD PTR _this$[ebp]
  00019	83 c1 34	 add	 ecx, 52			; 00000034H
  0001c	8b f4		 mov	 esi, esp
  0001e	ff 15 00 00 00
	00		 call	 DWORD PTR __imp_??1?$CStringT@DV?$StrTraitMFC_DLL@DV?$ChTraitsCRT@D@ATL@@@@@ATL@@QAE@XZ
  00024	3b f4		 cmp	 esi, esp
  00026	e9 00 00 00 00	 jmp	 __RTC_CheckEsp
$L194680:
  0002b	8b 4d f0	 mov	 ecx, DWORD PTR _this$[ebp]
  0002e	83 c1 38	 add	 ecx, 56			; 00000038H
  00031	e9 00 00 00 00	 jmp	 ??1?$vector@PAVIChangeSkinEventListener@@V?$allocator@PAVIChangeSkinEventListener@@@std@@@std@@QAE@XZ ; std::vector<IChangeSkinEventListener *,std::allocator<IChangeSkinEventListener *> >::~vector<IChangeSkinEventListener *,std::allocator<IChangeSkinEventListener *> >
$L194681:
  00036	8b 4d f0	 mov	 ecx, DWORD PTR _this$[ebp]
  00039	83 c1 58	 add	 ecx, 88			; 00000058H
  0003c	8b f4		 mov	 esi, esp
  0003e	ff 15 00 00 00
	00		 call	 DWORD PTR __imp_??1?$CStringT@DV?$StrTraitMFC_DLL@DV?$ChTraitsCRT@D@ATL@@@@@ATL@@QAE@XZ
  00044	3b f4		 cmp	 esi, esp
  00046	e9 00 00 00 00	 jmp	 __RTC_CheckEsp
$L194682:
  0004b	8b 4d f0	 mov	 ecx, DWORD PTR _this$[ebp]
  0004e	83 c1 5c	 add	 ecx, 92			; 0000005cH
  00051	8b f4		 mov	 esi, esp
  00053	ff 15 00 00 00
	00		 call	 DWORD PTR __imp_??1?$CStringT@DV?$StrTraitMFC_DLL@DV?$ChTraitsCRT@D@ATL@@@@@ATL@@QAE@XZ
  00059	3b f4		 cmp	 esi, esp
  0005b	e9 00 00 00 00	 jmp	 __RTC_CheckEsp
$L194683:
  00060	8b 4d f0	 mov	 ecx, DWORD PTR _this$[ebp]
  00063	83 c1 60	 add	 ecx, 96			; 00000060H
  00066	8b f4		 mov	 esi, esp
  00068	ff 15 00 00 00
	00		 call	 DWORD PTR __imp_??1?$CStringT@DV?$StrTraitMFC_DLL@DV?$ChTraitsCRT@D@ATL@@@@@ATL@@QAE@XZ
  0006e	3b f4		 cmp	 esi, esp
  00070	e9 00 00 00 00	 jmp	 __RTC_CheckEsp
__ehhandler$??0CSkinMgrV1@@QAE@XZ:
  00075	b8 00 00 00 00	 mov	 eax, OFFSET FLAT:$T194687
  0007a	e9 00 00 00 00	 jmp	 ___CxxFrameHandler
text$x	ENDS
??0CSkinMgrV1@@QAE@XZ ENDP				; CSkinMgrV1::CSkinMgrV1
; Function compile flags: /Odt /RTCsu
; File d:\boxgit\playbox\playbox\dev\prj\playbox\src\layoutmgr\changecolor\ievent.h
;	COMDAT ?OnCliekButton@IEventListener@@UAEXPAVCButton@@@Z
_TEXT	SEGMENT
_this$ = -4						; size = 4
_pBotton$ = 8						; size = 4
?OnCliekButton@IEventListener@@UAEXPAVCButton@@@Z PROC NEAR ; IEventListener::OnCliekButton, COMDAT
; _this$ = ecx

; 7    : 	virtual void OnCliekButton(CButton* pBotton){};

  00000	55		 push	 ebp
  00001	8b ec		 mov	 ebp, esp
  00003	51		 push	 ecx
  00004	c7 45 fc cc cc
	cc cc		 mov	 DWORD PTR [ebp-4], -858993460 ; ccccccccH
  0000b	89 4d fc	 mov	 DWORD PTR _this$[ebp], ecx
  0000e	8b e5		 mov	 esp, ebp
  00010	5d		 pop	 ebp
  00011	c2 04 00	 ret	 4
?OnCliekButton@IEventListener@@UAEXPAVCButton@@@Z ENDP	; IEventListener::OnCliekButton
; Function compile flags: /Odt /RTCsu
_TEXT	ENDS
;	COMDAT ?OnCliekSlide@IEventListener@@UAEXPAVCSliderCtrl@@@Z
_TEXT	SEGMENT
_this$ = -4						; size = 4
_pBotton$ = 8						; size = 4
?OnCliekSlide@IEventListener@@UAEXPAVCSliderCtrl@@@Z PROC NEAR ; IEventListener::OnCliekSlide, COMDAT
; _this$ = ecx

; 8    : 	virtual void OnCliekSlide(CSliderCtrl* pBotton){};

  00000	55		 push	 ebp
  00001	8b ec		 mov	 ebp, esp
  00003	51		 push	 ecx
  00004	c7 45 fc cc cc
	cc cc		 mov	 DWORD PTR [ebp-4], -858993460 ; ccccccccH
  0000b	89 4d fc	 mov	 DWORD PTR _this$[ebp], ecx
  0000e	8b e5		 mov	 esp, ebp
  00010	5d		 pop	 ebp
  00011	c2 04 00	 ret	 4
?OnCliekSlide@IEventListener@@UAEXPAVCSliderCtrl@@@Z ENDP ; IEventListener::OnCliekSlide
; Function compile flags: /Odt /RTCsu
; File d:\boxgit\playbox\playbox\dev\prj\playbox\src\layoutmgr\changecolor\mainskinwnd.h
_TEXT	ENDS
;	COMDAT ?OnChangeSkinTemplate@IWndEventListener@@UAE_NV?$CStringT@DV?$StrTraitMFC_DLL@DV?$ChTraitsCRT@D@ATL@@@@@ATL@@@Z
_TEXT	SEGMENT
$T194695 = -5						; size = 1
_this$ = -4						; size = 4
_strPath$ = 8						; size = 4
?OnChangeSkinTemplate@IWndEventListener@@UAE_NV?$CStringT@DV?$StrTraitMFC_DLL@DV?$ChTraitsCRT@D@ATL@@@@@ATL@@@Z PROC NEAR ; IWndEventListener::OnChangeSkinTemplate, COMDAT
; _this$ = ecx

; 12   : 	virtual bool OnChangeSkinTemplate(CString strPath){return false;};

  00000	55		 push	 ebp
  00001	8b ec		 mov	 ebp, esp
  00003	83 ec 08	 sub	 esp, 8
  00006	56		 push	 esi
  00007	c7 45 f8 cc cc
	cc cc		 mov	 DWORD PTR [ebp-8], -858993460 ; ccccccccH
  0000e	c7 45 fc cc cc
	cc cc		 mov	 DWORD PTR [ebp-4], -858993460 ; ccccccccH
  00015	89 4d fc	 mov	 DWORD PTR _this$[ebp], ecx
  00018	c6 45 fb 00	 mov	 BYTE PTR $T194695[ebp], 0
  0001c	8b f4		 mov	 esi, esp
  0001e	8d 4d 08	 lea	 ecx, DWORD PTR _strPath$[ebp]
  00021	ff 15 00 00 00
	00		 call	 DWORD PTR __imp_??1?$CStringT@DV?$StrTraitMFC_DLL@DV?$ChTraitsCRT@D@ATL@@@@@ATL@@QAE@XZ
  00027	3b f4		 cmp	 esi, esp
  00029	e8 00 00 00 00	 call	 __RTC_CheckEsp
  0002e	8a 45 fb	 mov	 al, BYTE PTR $T194695[ebp]
  00031	5e		 pop	 esi
  00032	83 c4 08	 add	 esp, 8
  00035	3b ec		 cmp	 ebp, esp
  00037	e8 00 00 00 00	 call	 __RTC_CheckEsp
  0003c	8b e5		 mov	 esp, ebp
  0003e	5d		 pop	 ebp
  0003f	c2 04 00	 ret	 4
?OnChangeSkinTemplate@IWndEventListener@@UAE_NV?$CStringT@DV?$StrTraitMFC_DLL@DV?$ChTraitsCRT@D@ATL@@@@@ATL@@@Z ENDP ; IWndEventListener::OnChangeSkinTemplate
; Function compile flags: /Odt /RTCsu
_TEXT	ENDS
;	COMDAT ?OnchangeColor@IWndEventListener@@UAEXKI@Z
_TEXT	SEGMENT
_this$ = -4						; size = 4
_acolCol$ = 8						; size = 4
_anLightValue$ = 12					; size = 4
?OnchangeColor@IWndEventListener@@UAEXKI@Z PROC NEAR	; IWndEventListener::OnchangeColor, COMDAT
; _this$ = ecx

; 13   : 	virtual void OnchangeColor(COLORREF acolCol, UINT anLightValue){};

  00000	55		 push	 ebp
  00001	8b ec		 mov	 ebp, esp
  00003	51		 push	 ecx
  00004	c7 45 fc cc cc
	cc cc		 mov	 DWORD PTR [ebp-4], -858993460 ; ccccccccH
  0000b	89 4d fc	 mov	 DWORD PTR _this$[ebp], ecx
  0000e	8b e5		 mov	 esp, ebp
  00010	5d		 pop	 ebp
  00011	c2 08 00	 ret	 8
?OnchangeColor@IWndEventListener@@UAEXKI@Z ENDP		; IWndEventListener::OnchangeColor
_TEXT	ENDS
PUBLIC	??_7P2PObserver@@6B@				; P2PObserver::`vftable'
PUBLIC	??_GP2PObserver@@UAEPAXI@Z			; P2PObserver::`scalar deleting destructor'
PUBLIC	??_R4P2PObserver@@6B@				; P2PObserver::`RTTI Complete Object Locator'
PUBLIC	??_R3P2PObserver@@8				; P2PObserver::`RTTI Class Hierarchy Descriptor'
PUBLIC	??_R2P2PObserver@@8				; P2PObserver::`RTTI Base Class Array'
PUBLIC	??_R1A@?0A@A@P2PObserver@@8			; P2PObserver::`RTTI Base Class Descriptor at (0,-1,0,0)'
EXTRN	??_EP2PObserver@@UAEPAXI@Z:NEAR			; P2PObserver::`vector deleting destructor'
;	COMDAT ??_7P2PObserver@@6B@
; File d:\boxgit\playbox\commonlib\include\yl_p2pint.h
CONST	SEGMENT
??_7P2PObserver@@6B@ DD FLAT:??_R4P2PObserver@@6B@	; P2PObserver::`vftable'
	DD	FLAT:??_EP2PObserver@@UAEPAXI@Z
	DD	FLAT:?P2POb_DownStart@P2PObserver@@UAEXABV?$basic_string@DU?$char_traits@D@std@@V?$allocator@D@2@@std@@PBDI@Z
	DD	FLAT:?P2POb_DownFinish@P2PObserver@@UAEXABV?$basic_string@DU?$char_traits@D@std@@V?$allocator@D@2@@std@@@Z
	DD	FLAT:?P2POb_DownFailed@P2PObserver@@UAEXABV?$basic_string@DU?$char_traits@D@std@@V?$allocator@D@2@@std@@W4P2P_DOWN_FAILED_REASON@@@Z
	DD	FLAT:?P2POb_DownProgress@P2PObserver@@UAEXABV?$basic_string@DU?$char_traits@D@std@@V?$allocator@D@2@@std@@III@Z
	DD	FLAT:?P2POb_DownPause@P2PObserver@@UAEXABV?$basic_string@DU?$char_traits@D@std@@V?$allocator@D@2@@std@@@Z
	DD	FLAT:?P2POb_SigChange@P2PObserver@@UAEXABV?$basic_string@DU?$char_traits@D@std@@V?$allocator@D@2@@std@@0PBD@Z
CONST	ENDS
;	COMDAT ??_R4P2PObserver@@6B@
rdata$r	SEGMENT
??_R4P2PObserver@@6B@ DD 00H				; P2PObserver::`RTTI Complete Object Locator'
	DD	00H
	DD	00H
	DD	FLAT:??_R0?AVP2PObserver@@@8
	DD	FLAT:??_R3P2PObserver@@8
rdata$r	ENDS
;	COMDAT ??_R3P2PObserver@@8
rdata$r	SEGMENT
??_R3P2PObserver@@8 DD 00H				; P2PObserver::`RTTI Class Hierarchy Descriptor'
	DD	00H
	DD	01H
	DD	FLAT:??_R2P2PObserver@@8
rdata$r	ENDS
;	COMDAT ??_R2P2PObserver@@8
rdata$r	SEGMENT
??_R2P2PObserver@@8 DD FLAT:??_R1A@?0A@A@P2PObserver@@8	; P2PObserver::`RTTI Base Class Array'
rdata$r	ENDS
;	COMDAT ??_R1A@?0A@A@P2PObserver@@8
rdata$r	SEGMENT
??_R1A@?0A@A@P2PObserver@@8 DD FLAT:??_R0?AVP2PObserver@@@8 ; P2PObserver::`RTTI Base Class Descriptor at (0,-1,0,0)'
	DD	00H
	DD	00H
	DD	0ffffffffH
	DD	00H
	DD	00H
; Function compile flags: /Odt /RTCsu
rdata$r	ENDS
;	COMDAT ??1P2PObserver@@UAE@XZ
_TEXT	SEGMENT
_this$ = -4						; size = 4
??1P2PObserver@@UAE@XZ PROC NEAR			; P2PObserver::~P2PObserver, COMDAT
; _this$ = ecx

; 14   : 	virtual ~P2PObserver(){};

  00000	55		 push	 ebp
  00001	8b ec		 mov	 ebp, esp
  00003	51		 push	 ecx
  00004	c7 45 fc cc cc
	cc cc		 mov	 DWORD PTR [ebp-4], -858993460 ; ccccccccH
  0000b	89 4d fc	 mov	 DWORD PTR _this$[ebp], ecx
  0000e	8b 45 fc	 mov	 eax, DWORD PTR _this$[ebp]
  00011	c7 00 00 00 00
	00		 mov	 DWORD PTR [eax], OFFSET FLAT:??_7P2PObserver@@6B@
  00017	8b e5		 mov	 esp, ebp
  00019	5d		 pop	 ebp
  0001a	c3		 ret	 0
??1P2PObserver@@UAE@XZ ENDP				; P2PObserver::~P2PObserver
; Function compile flags: /Odt /RTCsu
_TEXT	ENDS
;	COMDAT ?P2POb_DownStart@P2PObserver@@UAEXABV?$basic_string@DU?$char_traits@D@std@@V?$allocator@D@2@@std@@PBDI@Z
_TEXT	SEGMENT
_this$ = -4						; size = 4
_strID$ = 8						; size = 4
_lpszFilePath$ = 12					; size = 4
_unFileSize$ = 16					; size = 4
?P2POb_DownStart@P2PObserver@@UAEXABV?$basic_string@DU?$char_traits@D@std@@V?$allocator@D@2@@std@@PBDI@Z PROC NEAR ; P2PObserver::P2POb_DownStart, COMDAT
; _this$ = ecx

; 19   : 	virtual void P2POb_DownStart(const string& strID, const char* lpszFilePath, unsigned int unFileSize){};

  00000	55		 push	 ebp
  00001	8b ec		 mov	 ebp, esp
  00003	51		 push	 ecx
  00004	c7 45 fc cc cc
	cc cc		 mov	 DWORD PTR [ebp-4], -858993460 ; ccccccccH
  0000b	89 4d fc	 mov	 DWORD PTR _this$[ebp], ecx
  0000e	8b e5		 mov	 esp, ebp
  00010	5d		 pop	 ebp
  00011	c2 0c 00	 ret	 12			; 0000000cH
?P2POb_DownStart@P2PObserver@@UAEXABV?$basic_string@DU?$char_traits@D@std@@V?$allocator@D@2@@std@@PBDI@Z ENDP ; P2PObserver::P2POb_DownStart
; Function compile flags: /Odt /RTCsu
_TEXT	ENDS
;	COMDAT ?P2POb_DownFinish@P2PObserver@@UAEXABV?$basic_string@DU?$char_traits@D@std@@V?$allocator@D@2@@std@@@Z
_TEXT	SEGMENT
_this$ = -4						; size = 4
_strID$ = 8						; size = 4
?P2POb_DownFinish@P2PObserver@@UAEXABV?$basic_string@DU?$char_traits@D@std@@V?$allocator@D@2@@std@@@Z PROC NEAR ; P2PObserver::P2POb_DownFinish, COMDAT
; _this$ = ecx

; 22   : 	virtual void P2POb_DownFinish(const string& strID){};

  00000	55		 push	 ebp
  00001	8b ec		 mov	 ebp, esp
  00003	51		 push	 ecx
  00004	c7 45 fc cc cc
	cc cc		 mov	 DWORD PTR [ebp-4], -858993460 ; ccccccccH
  0000b	89 4d fc	 mov	 DWORD PTR _this$[ebp], ecx
  0000e	8b e5		 mov	 esp, ebp
  00010	5d		 pop	 ebp
  00011	c2 04 00	 ret	 4
?P2POb_DownFinish@P2PObserver@@UAEXABV?$basic_string@DU?$char_traits@D@std@@V?$allocator@D@2@@std@@@Z ENDP ; P2PObserver::P2POb_DownFinish
; Function compile flags: /Odt /RTCsu
_TEXT	ENDS
;	COMDAT ?P2POb_DownFailed@P2PObserver@@UAEXABV?$basic_string@DU?$char_traits@D@std@@V?$allocator@D@2@@std@@W4P2P_DOWN_FAILED_REASON@@@Z
_TEXT	SEGMENT
_this$ = -4						; size = 4
_strID$ = 8						; size = 4
_pdfr$ = 12						; size = 4
?P2POb_DownFailed@P2PObserver@@UAEXABV?$basic_string@DU?$char_traits@D@std@@V?$allocator@D@2@@std@@W4P2P_DOWN_FAILED_REASON@@@Z PROC NEAR ; P2PObserver::P2POb_DownFailed, COMDAT
; _this$ = ecx

; 25   : 	virtual void P2POb_DownFailed(const string& strID, P2P_DOWN_FAILED_REASON pdfr){};

  00000	55		 push	 ebp
  00001	8b ec		 mov	 ebp, esp
  00003	51		 push	 ecx
  00004	c7 45 fc cc cc
	cc cc		 mov	 DWORD PTR [ebp-4], -858993460 ; ccccccccH
  0000b	89 4d fc	 mov	 DWORD PTR _this$[ebp], ecx
  0000e	8b e5		 mov	 esp, ebp
  00010	5d		 pop	 ebp
  00011	c2 08 00	 ret	 8
?P2POb_DownFailed@P2PObserver@@UAEXABV?$basic_string@DU?$char_traits@D@std@@V?$allocator@D@2@@std@@W4P2P_DOWN_FAILED_REASON@@@Z ENDP ; P2PObserver::P2POb_DownFailed
; Function compile flags: /Odt /RTCsu
_TEXT	ENDS
;	COMDAT ?P2POb_DownProgress@P2PObserver@@UAEXABV?$basic_string@DU?$char_traits@D@std@@V?$allocator@D@2@@std@@III@Z
_TEXT	SEGMENT
_this$ = -4						; size = 4
_strID$ = 8						; size = 4
_unContinue$ = 12					; size = 4
_unFinished$ = 16					; size = 4
_unSpeed$ = 20						; size = 4
?P2POb_DownProgress@P2PObserver@@UAEXABV?$basic_string@DU?$char_traits@D@std@@V?$allocator@D@2@@std@@III@Z PROC NEAR ; P2PObserver::P2POb_DownProgress, COMDAT
; _this$ = ecx

; 28   : 	virtual void P2POb_DownProgress(const string& strID, unsigned int unContinue, unsigned int unFinished, unsigned int unSpeed){};

  00000	55		 push	 ebp
  00001	8b ec		 mov	 ebp, esp
  00003	51		 push	 ecx
  00004	c7 45 fc cc cc
	cc cc		 mov	 DWORD PTR [ebp-4], -858993460 ; ccccccccH
  0000b	89 4d fc	 mov	 DWORD PTR _this$[ebp], ecx
  0000e	8b e5		 mov	 esp, ebp
  00010	5d		 pop	 ebp
  00011	c2 10 00	 ret	 16			; 00000010H
?P2POb_DownProgress@P2PObserver@@UAEXABV?$basic_string@DU?$char_traits@D@std@@V?$allocator@D@2@@std@@III@Z ENDP ; P2PObserver::P2POb_DownProgress
; Function compile flags: /Odt /RTCsu
_TEXT	ENDS
;	COMDAT ?P2POb_DownPause@P2PObserver@@UAEXABV?$basic_string@DU?$char_traits@D@std@@V?$allocator@D@2@@std@@@Z
_TEXT	SEGMENT
_this$ = -4						; size = 4
_strID$ = 8						; size = 4
?P2POb_DownPause@P2PObserver@@UAEXABV?$basic_string@DU?$char_traits@D@std@@V?$allocator@D@2@@std@@@Z PROC NEAR ; P2PObserver::P2POb_DownPause, COMDAT
; _this$ = ecx

; 31   : 	virtual void P2POb_DownPause(const string& strID){};

  00000	55		 push	 ebp
  00001	8b ec		 mov	 ebp, esp
  00003	51		 push	 ecx
  00004	c7 45 fc cc cc
	cc cc		 mov	 DWORD PTR [ebp-4], -858993460 ; ccccccccH
  0000b	89 4d fc	 mov	 DWORD PTR _this$[ebp], ecx
  0000e	8b e5		 mov	 esp, ebp
  00010	5d		 pop	 ebp
  00011	c2 04 00	 ret	 4
?P2POb_DownPause@P2PObserver@@UAEXABV?$basic_string@DU?$char_traits@D@std@@V?$allocator@D@2@@std@@@Z ENDP ; P2PObserver::P2POb_DownPause
; Function compile flags: /Odt /RTCsu
_TEXT	ENDS
;	COMDAT ?P2POb_SigChange@P2PObserver@@UAEXABV?$basic_string@DU?$char_traits@D@std@@V?$allocator@D@2@@std@@0PBD@Z
_TEXT	SEGMENT
_this$ = -4						; size = 4
_strID$ = 8						; size = 4
_strIDNew$ = 12						; size = 4
_szRid$ = 16						; size = 4
?P2POb_SigChange@P2PObserver@@UAEXABV?$basic_string@DU?$char_traits@D@std@@V?$allocator@D@2@@std@@0PBD@Z PROC NEAR ; P2PObserver::P2POb_SigChange, COMDAT
; _this$ = ecx

; 34   : 	virtual void P2POb_SigChange(const string& strID, const string& strIDNew, const char* szRid){};

  00000	55		 push	 ebp
  00001	8b ec		 mov	 ebp, esp
  00003	51		 push	 ecx
  00004	c7 45 fc cc cc
	cc cc		 mov	 DWORD PTR [ebp-4], -858993460 ; ccccccccH
  0000b	89 4d fc	 mov	 DWORD PTR _this$[ebp], ecx
  0000e	8b e5		 mov	 esp, ebp
  00010	5d		 pop	 ebp
  00011	c2 0c 00	 ret	 12			; 0000000cH
?P2POb_SigChange@P2PObserver@@UAEXABV?$basic_string@DU?$char_traits@D@std@@V?$allocator@D@2@@std@@0PBD@Z ENDP ; P2PObserver::P2POb_SigChange
_TEXT	ENDS
EXTRN	??3@YAXPAX@Z:NEAR				; operator delete
; Function compile flags: /Odt /RTCsu
;	COMDAT ??_GP2PObserver@@UAEPAXI@Z
_TEXT	SEGMENT
_this$ = -4						; size = 4
___flags$ = 8						; size = 4
??_GP2PObserver@@UAEPAXI@Z PROC NEAR			; P2PObserver::`scalar deleting destructor', COMDAT
; _this$ = ecx
  00000	55		 push	 ebp
  00001	8b ec		 mov	 ebp, esp
  00003	51		 push	 ecx
  00004	c7 45 fc cc cc
	cc cc		 mov	 DWORD PTR [ebp-4], -858993460 ; ccccccccH
  0000b	89 4d fc	 mov	 DWORD PTR _this$[ebp], ecx
  0000e	8b 4d fc	 mov	 ecx, DWORD PTR _this$[ebp]
  00011	e8 00 00 00 00	 call	 ??1P2PObserver@@UAE@XZ	; P2PObserver::~P2PObserver
  00016	8b 45 08	 mov	 eax, DWORD PTR ___flags$[ebp]
  00019	83 e0 01	 and	 eax, 1
  0001c	74 0c		 je	 SHORT $L190731
  0001e	8b 4d fc	 mov	 ecx, DWORD PTR _this$[ebp]
  00021	51		 push	 ecx
  00022	e8 00 00 00 00	 call	 ??3@YAXPAX@Z		; operator delete
  00027	83 c4 04	 add	 esp, 4
$L190731:
  0002a	8b 45 fc	 mov	 eax, DWORD PTR _this$[ebp]
  0002d	83 c4 04	 add	 esp, 4
  00030	3b ec		 cmp	 ebp, esp
  00032	e8 00 00 00 00	 call	 __RTC_CheckEsp
  00037	8b e5		 mov	 esp, ebp
  00039	5d		 pop	 ebp
  0003a	c2 04 00	 ret	 4
??_GP2PObserver@@UAEPAXI@Z ENDP				; P2PObserver::`scalar deleting destructor'
_TEXT	ENDS
EXTRN	__imp_??1?$basic_string@DU?$char_traits@D@std@@V?$allocator@D@2@@std@@QAE@XZ:NEAR
;	COMDAT xdata$x
; File d:\boxgit\playbox\playbox\dev\prj\playbox\src\datainterface\ilayoutchangeobserver.h
xdata$x	SEGMENT
$T194713 DD	0ffffffffH
	DD	FLAT:$L194707
	DD	00H
	DD	FLAT:$L194708
$T194711 DD	019930520H
	DD	02H
	DD	FLAT:$T194713
	DD	2 DUP(00H)
	DD	2 DUP(00H)
; Function compile flags: /Odt /RTCsu
xdata$x	ENDS
;	COMDAT ?ILayoutChangeOb_LayerChanged@ILayoutChangeObserver@@UAEXV?$basic_string@DU?$char_traits@D@std@@V?$allocator@D@2@@std@@00@Z
_TEXT	SEGMENT
_this$ = -16						; size = 4
__$EHRec$ = -12						; size = 12
_paneName$ = 8						; size = 28
_oldLayerName$ = 36					; size = 28
_newLayerName$ = 64					; size = 28
?ILayoutChangeOb_LayerChanged@ILayoutChangeObserver@@UAEXV?$basic_string@DU?$char_traits@D@std@@V?$allocator@D@2@@std@@00@Z PROC NEAR ; ILayoutChangeObserver::ILayoutChangeOb_LayerChanged, COMDAT
; _this$ = ecx

; 9    : 	virtual void	ILayoutChangeOb_LayerChanged(string paneName, string oldLayerName, string newLayerName ){};

  00000	55		 push	 ebp
  00001	8b ec		 mov	 ebp, esp
  00003	6a ff		 push	 -1
  00005	68 00 00 00 00	 push	 __ehhandler$?ILayoutChangeOb_LayerChanged@ILayoutChangeObserver@@UAEXV?$basic_string@DU?$char_traits@D@std@@V?$allocator@D@2@@std@@00@Z
  0000a	64 a1 00 00 00
	00		 mov	 eax, DWORD PTR fs:__except_list
  00010	50		 push	 eax
  00011	64 89 25 00 00
	00 00		 mov	 DWORD PTR fs:__except_list, esp
  00018	51		 push	 ecx
  00019	56		 push	 esi
  0001a	c7 45 f0 cc cc
	cc cc		 mov	 DWORD PTR [ebp-16], -858993460 ; ccccccccH
  00021	89 4d f0	 mov	 DWORD PTR _this$[ebp], ecx
  00024	c7 45 fc 01 00
	00 00		 mov	 DWORD PTR __$EHRec$[ebp+8], 1
  0002b	8b f4		 mov	 esi, esp
  0002d	8d 4d 08	 lea	 ecx, DWORD PTR _paneName$[ebp]
  00030	ff 15 00 00 00
	00		 call	 DWORD PTR __imp_??1?$basic_string@DU?$char_traits@D@std@@V?$allocator@D@2@@std@@QAE@XZ
  00036	3b f4		 cmp	 esi, esp
  00038	e8 00 00 00 00	 call	 __RTC_CheckEsp
  0003d	c6 45 fc 00	 mov	 BYTE PTR __$EHRec$[ebp+8], 0
  00041	8b f4		 mov	 esi, esp
  00043	8d 4d 24	 lea	 ecx, DWORD PTR _oldLayerName$[ebp]
  00046	ff 15 00 00 00
	00		 call	 DWORD PTR __imp_??1?$basic_string@DU?$char_traits@D@std@@V?$allocator@D@2@@std@@QAE@XZ
  0004c	3b f4		 cmp	 esi, esp
  0004e	e8 00 00 00 00	 call	 __RTC_CheckEsp
  00053	c7 45 fc ff ff
	ff ff		 mov	 DWORD PTR __$EHRec$[ebp+8], -1
  0005a	8b f4		 mov	 esi, esp
  0005c	8d 4d 40	 lea	 ecx, DWORD PTR _newLayerName$[ebp]
  0005f	ff 15 00 00 00
	00		 call	 DWORD PTR __imp_??1?$basic_string@DU?$char_traits@D@std@@V?$allocator@D@2@@std@@QAE@XZ
  00065	3b f4		 cmp	 esi, esp
  00067	e8 00 00 00 00	 call	 __RTC_CheckEsp
  0006c	8b 4d f4	 mov	 ecx, DWORD PTR __$EHRec$[ebp]
  0006f	64 89 0d 00 00
	00 00		 mov	 DWORD PTR fs:__except_list, ecx
  00076	5e		 pop	 esi
  00077	83 c4 10	 add	 esp, 16			; 00000010H
  0007a	3b ec		 cmp	 ebp, esp
  0007c	e8 00 00 00 00	 call	 __RTC_CheckEsp
  00081	8b e5		 mov	 esp, ebp
  00083	5d		 pop	 ebp
  00084	c2 54 00	 ret	 84			; 00000054H
_TEXT	ENDS
;	COMDAT text$x
text$x	SEGMENT
$L194707:
  00000	8b f4		 mov	 esi, esp
  00002	8d 4d 40	 lea	 ecx, DWORD PTR _newLayerName$[ebp]
  00005	ff 15 00 00 00
	00		 call	 DWORD PTR __imp_??1?$basic_string@DU?$char_traits@D@std@@V?$allocator@D@2@@std@@QAE@XZ
  0000b	3b f4		 cmp	 esi, esp
  0000d	e9 00 00 00 00	 jmp	 __RTC_CheckEsp
$L194708:
  00012	8b f4		 mov	 esi, esp
  00014	8d 4d 24	 lea	 ecx, DWORD PTR _oldLayerName$[ebp]
  00017	ff 15 00 00 00
	00		 call	 DWORD PTR __imp_??1?$basic_string@DU?$char_traits@D@std@@V?$allocator@D@2@@std@@QAE@XZ
  0001d	3b f4		 cmp	 esi, esp
  0001f	e9 00 00 00 00	 jmp	 __RTC_CheckEsp
__ehhandler$?ILayoutChangeOb_LayerChanged@ILayoutChangeObserver@@UAEXV?$basic_string@DU?$char_traits@D@std@@V?$allocator@D@2@@std@@00@Z:
  00024	b8 00 00 00 00	 mov	 eax, OFFSET FLAT:$T194711
  00029	e9 00 00 00 00	 jmp	 ___CxxFrameHandler
text$x	ENDS
?ILayoutChangeOb_LayerChanged@ILayoutChangeObserver@@UAEXV?$basic_string@DU?$char_traits@D@std@@V?$allocator@D@2@@std@@00@Z ENDP ; ILayoutChangeObserver::ILayoutChangeOb_LayerChanged
;	COMDAT xdata$x
xdata$x	SEGMENT
$T194722 DD	0ffffffffH
	DD	FLAT:$L194717
$T194720 DD	019930520H
	DD	01H
	DD	FLAT:$T194722
	DD	2 DUP(00H)
	DD	2 DUP(00H)
; Function compile flags: /Odt /RTCsu
xdata$x	ENDS
;	COMDAT ?ILayoutChangeOb_PaneChanged@ILayoutChangeObserver@@UAEXV?$basic_string@DU?$char_traits@D@std@@V?$allocator@D@2@@std@@0@Z
_TEXT	SEGMENT
_this$ = -16						; size = 4
__$EHRec$ = -12						; size = 12
_oldPaneName$ = 8					; size = 28
_newPaneName$ = 36					; size = 28
?ILayoutChangeOb_PaneChanged@ILayoutChangeObserver@@UAEXV?$basic_string@DU?$char_traits@D@std@@V?$allocator@D@2@@std@@0@Z PROC NEAR ; ILayoutChangeObserver::ILayoutChangeOb_PaneChanged, COMDAT
; _this$ = ecx

; 10   : 	virtual void	ILayoutChangeOb_PaneChanged(string oldPaneName, string newPaneName){};

  00000	55		 push	 ebp
  00001	8b ec		 mov	 ebp, esp
  00003	6a ff		 push	 -1
  00005	68 00 00 00 00	 push	 __ehhandler$?ILayoutChangeOb_PaneChanged@ILayoutChangeObserver@@UAEXV?$basic_string@DU?$char_traits@D@std@@V?$allocator@D@2@@std@@0@Z
  0000a	64 a1 00 00 00
	00		 mov	 eax, DWORD PTR fs:__except_list
  00010	50		 push	 eax
  00011	64 89 25 00 00
	00 00		 mov	 DWORD PTR fs:__except_list, esp
  00018	51		 push	 ecx
  00019	56		 push	 esi
  0001a	c7 45 f0 cc cc
	cc cc		 mov	 DWORD PTR [ebp-16], -858993460 ; ccccccccH
  00021	89 4d f0	 mov	 DWORD PTR _this$[ebp], ecx
  00024	c7 45 fc 00 00
	00 00		 mov	 DWORD PTR __$EHRec$[ebp+8], 0
  0002b	8b f4		 mov	 esi, esp
  0002d	8d 4d 08	 lea	 ecx, DWORD PTR _oldPaneName$[ebp]
  00030	ff 15 00 00 00
	00		 call	 DWORD PTR __imp_??1?$basic_string@DU?$char_traits@D@std@@V?$allocator@D@2@@std@@QAE@XZ
  00036	3b f4		 cmp	 esi, esp
  00038	e8 00 00 00 00	 call	 __RTC_CheckEsp
  0003d	c7 45 fc ff ff
	ff ff		 mov	 DWORD PTR __$EHRec$[ebp+8], -1
  00044	8b f4		 mov	 esi, esp
  00046	8d 4d 24	 lea	 ecx, DWORD PTR _newPaneName$[ebp]
  00049	ff 15 00 00 00
	00		 call	 DWORD PTR __imp_??1?$basic_string@DU?$char_traits@D@std@@V?$allocator@D@2@@std@@QAE@XZ
  0004f	3b f4		 cmp	 esi, esp
  00051	e8 00 00 00 00	 call	 __RTC_CheckEsp
  00056	8b 4d f4	 mov	 ecx, DWORD PTR __$EHRec$[ebp]
  00059	64 89 0d 00 00
	00 00		 mov	 DWORD PTR fs:__except_list, ecx
  00060	5e		 pop	 esi
  00061	83 c4 10	 add	 esp, 16			; 00000010H
  00064	3b ec		 cmp	 ebp, esp
  00066	e8 00 00 00 00	 call	 __RTC_CheckEsp
  0006b	8b e5		 mov	 esp, ebp
  0006d	5d		 pop	 ebp
  0006e	c2 38 00	 ret	 56			; 00000038H
_TEXT	ENDS
;	COMDAT text$x
text$x	SEGMENT
$L194717:
  00000	8b f4		 mov	 esi, esp
  00002	8d 4d 24	 lea	 ecx, DWORD PTR _newPaneName$[ebp]
  00005	ff 15 00 00 00
	00		 call	 DWORD PTR __imp_??1?$basic_string@DU?$char_traits@D@std@@V?$allocator@D@2@@std@@QAE@XZ
  0000b	3b f4		 cmp	 esi, esp
  0000d	e9 00 00 00 00	 jmp	 __RTC_CheckEsp
__ehhandler$?ILayoutChangeOb_PaneChanged@ILayoutChangeObserver@@UAEXV?$basic_string@DU?$char_traits@D@std@@V?$allocator@D@2@@std@@0@Z:
  00012	b8 00 00 00 00	 mov	 eax, OFFSET FLAT:$T194720
  00017	e9 00 00 00 00	 jmp	 ___CxxFrameHandler
text$x	ENDS
?ILayoutChangeOb_PaneChanged@ILayoutChangeObserver@@UAEXV?$basic_string@DU?$char_traits@D@std@@V?$allocator@D@2@@std@@0@Z ENDP ; ILayoutChangeObserver::ILayoutChangeOb_PaneChanged
; Function compile flags: /Odt /RTCsu
;	COMDAT ?ILayoutChangeOb_ColorChanged@ILayoutChangeObserver@@UAEXXZ
_TEXT	SEGMENT
_this$ = -4						; size = 4
?ILayoutChangeOb_ColorChanged@ILayoutChangeObserver@@UAEXXZ PROC NEAR ; ILayoutChangeObserver::ILayoutChangeOb_ColorChanged, COMDAT
; _this$ = ecx

; 12   : 	virtual void	ILayoutChangeOb_ColorChanged(){};

  00000	55		 push	 ebp
  00001	8b ec		 mov	 ebp, esp
  00003	51		 push	 ecx
  00004	c7 45 fc cc cc
	cc cc		 mov	 DWORD PTR [ebp-4], -858993460 ; ccccccccH
  0000b	89 4d fc	 mov	 DWORD PTR _this$[ebp], ecx
  0000e	8b e5		 mov	 esp, ebp
  00010	5d		 pop	 ebp
  00011	c3		 ret	 0
?ILayoutChangeOb_ColorChanged@ILayoutChangeObserver@@UAEXXZ ENDP ; ILayoutChangeObserver::ILayoutChangeOb_ColorChanged
; Function compile flags: /Odt /RTCsu
_TEXT	ENDS
;	COMDAT ?ILayoutChangeOb_ColorChanging@ILayoutChangeObserver@@UAEXXZ
_TEXT	SEGMENT
_this$ = -4						; size = 4
?ILayoutChangeOb_ColorChanging@ILayoutChangeObserver@@UAEXXZ PROC NEAR ; ILayoutChangeObserver::ILayoutChangeOb_ColorChanging, COMDAT
; _this$ = ecx

; 13   : 	virtual void	ILayoutChangeOb_ColorChanging(){};

  00000	55		 push	 ebp
  00001	8b ec		 mov	 ebp, esp
  00003	51		 push	 ecx
  00004	c7 45 fc cc cc
	cc cc		 mov	 DWORD PTR [ebp-4], -858993460 ; ccccccccH
  0000b	89 4d fc	 mov	 DWORD PTR _this$[ebp], ecx
  0000e	8b e5		 mov	 esp, ebp
  00010	5d		 pop	 ebp
  00011	c3		 ret	 0
?ILayoutChangeOb_ColorChanging@ILayoutChangeObserver@@UAEXXZ ENDP ; ILayoutChangeObserver::ILayoutChangeOb_ColorChanging
; Function compile flags: /Odt /RTCsu
_TEXT	ENDS
;	COMDAT ?ILayoutChangeOb_UpdateLayout@ILayoutChangeObserver@@UAEXPAUHWND__@@@Z
_TEXT	SEGMENT
_this$ = -4						; size = 4
_m_hWnd$ = 8						; size = 4
?ILayoutChangeOb_UpdateLayout@ILayoutChangeObserver@@UAEXPAUHWND__@@@Z PROC NEAR ; ILayoutChangeObserver::ILayoutChangeOb_UpdateLayout, COMDAT
; _this$ = ecx

; 14   : 	virtual void	ILayoutChangeOb_UpdateLayout(HWND m_hWnd){};

  00000	55		 push	 ebp
  00001	8b ec		 mov	 ebp, esp
  00003	51		 push	 ecx
  00004	c7 45 fc cc cc
	cc cc		 mov	 DWORD PTR [ebp-4], -858993460 ; ccccccccH
  0000b	89 4d fc	 mov	 DWORD PTR _this$[ebp], ecx
  0000e	8b e5		 mov	 esp, ebp
  00010	5d		 pop	 ebp
  00011	c2 04 00	 ret	 4
?ILayoutChangeOb_UpdateLayout@ILayoutChangeObserver@@UAEXPAUHWND__@@@Z ENDP ; ILayoutChangeObserver::ILayoutChangeOb_UpdateLayout
; Function compile flags: /Odt /RTCsu
_TEXT	ENDS
;	COMDAT ?ILayoutChangeOb_InitFinished@ILayoutChangeObserver@@UAEXXZ
_TEXT	SEGMENT
_this$ = -4						; size = 4
?ILayoutChangeOb_InitFinished@ILayoutChangeObserver@@UAEXXZ PROC NEAR ; ILayoutChangeObserver::ILayoutChangeOb_InitFinished, COMDAT
; _this$ = ecx

; 15   : 	virtual void	ILayoutChangeOb_InitFinished(){};

  00000	55		 push	 ebp
  00001	8b ec		 mov	 ebp, esp
  00003	51		 push	 ecx
  00004	c7 45 fc cc cc
	cc cc		 mov	 DWORD PTR [ebp-4], -858993460 ; ccccccccH
  0000b	89 4d fc	 mov	 DWORD PTR _this$[ebp], ecx
  0000e	8b e5		 mov	 esp, ebp
  00010	5d		 pop	 ebp
  00011	c3		 ret	 0
?ILayoutChangeOb_InitFinished@ILayoutChangeObserver@@UAEXXZ ENDP ; ILayoutChangeObserver::ILayoutChangeOb_InitFinished
; Function compile flags: /Odt /RTCsu
_TEXT	ENDS
;	COMDAT ?ILayoutChangeOb_InitBegin@ILayoutChangeObserver@@UAEXXZ
_TEXT	SEGMENT
_this$ = -4						; size = 4
?ILayoutChangeOb_InitBegin@ILayoutChangeObserver@@UAEXXZ PROC NEAR ; ILayoutChangeObserver::ILayoutChangeOb_InitBegin, COMDAT
; _this$ = ecx

; 16   : 	virtual void	ILayoutChangeOb_InitBegin(){};

  00000	55		 push	 ebp
  00001	8b ec		 mov	 ebp, esp
  00003	51		 push	 ecx
  00004	c7 45 fc cc cc
	cc cc		 mov	 DWORD PTR [ebp-4], -858993460 ; ccccccccH
  0000b	89 4d fc	 mov	 DWORD PTR _this$[ebp], ecx
  0000e	8b e5		 mov	 esp, ebp
  00010	5d		 pop	 ebp
  00011	c3		 ret	 0
?ILayoutChangeOb_InitBegin@ILayoutChangeObserver@@UAEXXZ ENDP ; ILayoutChangeObserver::ILayoutChangeOb_InitBegin
; Function compile flags: /Odt /RTCsu
; File d:\boxgit\playbox\playbox\dev\prj\playbox\src\layoutmgr\changecolor\ichangecolormgr.h
_TEXT	ENDS
;	COMDAT ?GetSkinWnd@CSkinMgrV1@@UAEPAVCWnd@@XZ
_TEXT	SEGMENT
_this$ = -4						; size = 4
?GetSkinWnd@CSkinMgrV1@@UAEPAVCWnd@@XZ PROC NEAR	; CSkinMgrV1::GetSkinWnd, COMDAT
; _this$ = ecx

; 95   : 	virtual CWnd*	GetSkinWnd(){return mp_mainSkinWnd;};

  00000	55		 push	 ebp
  00001	8b ec		 mov	 ebp, esp
  00003	51		 push	 ecx
  00004	c7 45 fc cc cc
	cc cc		 mov	 DWORD PTR [ebp-4], -858993460 ; ccccccccH
  0000b	89 4d fc	 mov	 DWORD PTR _this$[ebp], ecx
  0000e	8b 45 fc	 mov	 eax, DWORD PTR _this$[ebp]
  00011	8b 40 10	 mov	 eax, DWORD PTR [eax+16]
  00014	8b e5		 mov	 esp, ebp
  00016	5d		 pop	 ebp
  00017	c3		 ret	 0
?GetSkinWnd@CSkinMgrV1@@UAEPAVCWnd@@XZ ENDP		; CSkinMgrV1::GetSkinWnd
_TEXT	ENDS
PUBLIC	?OnSendChangeColor@IEventListener@@UAEXKI_N@Z	; IEventListener::OnSendChangeColor
PUBLIC	?OnSendChangeSkin@IEventListener@@UAEXV?$CStringT@DV?$StrTraitMFC_DLL@DV?$ChTraitsCRT@D@ATL@@@@@ATL@@@Z ; IEventListener::OnSendChangeSkin
PUBLIC	?OnSendChangeSubject@IEventListener@@UAEXV?$CStringT@DV?$StrTraitMFC_DLL@DV?$ChTraitsCRT@D@ATL@@@@@ATL@@0@Z ; IEventListener::OnSendChangeSubject
PUBLIC	?OnChangeSkinAndSub@IEventListener@@UAEXABV?$CStringT@DV?$StrTraitMFC_DLL@DV?$ChTraitsCRT@D@ATL@@@@@ATL@@0@Z ; IEventListener::OnChangeSkinAndSub
PUBLIC	?OnStartDownSubject@IEventListener@@UAEXABV?$CStringT@DV?$StrTraitMFC_DLL@DV?$ChTraitsCRT@D@ATL@@@@@ATL@@@Z ; IEventListener::OnStartDownSubject
PUBLIC	?OnFinishDownSubject@IEventListener@@UAEXH@Z	; IEventListener::OnFinishDownSubject
PUBLIC	??0IEventListener@@QAE@XZ			; IEventListener::IEventListener
PUBLIC	??_R4IChangeColorMgr@@6BIWndEventListener@@@	; IChangeColorMgr::`RTTI Complete Object Locator'
PUBLIC	??_R3IChangeColorMgr@@8				; IChangeColorMgr::`RTTI Class Hierarchy Descriptor'
PUBLIC	??_R2IChangeColorMgr@@8				; IChangeColorMgr::`RTTI Base Class Array'
PUBLIC	??_R4IChangeColorMgr@@6BIEventListener@@@	; IChangeColorMgr::`RTTI Complete Object Locator'
PUBLIC	??0IWndEventListener@@QAE@XZ			; IWndEventListener::IWndEventListener
PUBLIC	??_7IChangeColorMgr@@6BIWndEventListener@@@	; IChangeColorMgr::`vftable'
PUBLIC	??_7IChangeColorMgr@@6BIEventListener@@@	; IChangeColorMgr::`vftable'
EXTRN	__purecall:NEAR
;	COMDAT ??_7IChangeColorMgr@@6BIWndEventListener@@@
CONST	SEGMENT
??_7IChangeColorMgr@@6BIWndEventListener@@@ DD FLAT:??_R4IChangeColorMgr@@6BIWndEventListener@@@ ; IChangeColorMgr::`vftable'
	DD	FLAT:?OnChangeSkinTemplate@IWndEventListener@@UAE_NV?$CStringT@DV?$StrTraitMFC_DLL@DV?$ChTraitsCRT@D@ATL@@@@@ATL@@@Z
	DD	FLAT:?OnchangeColor@IWndEventListener@@UAEXKI@Z
	DD	FLAT:__purecall
	DD	FLAT:__purecall
	DD	FLAT:__purecall
	DD	FLAT:__purecall
	DD	FLAT:__purecall
	DD	FLAT:__purecall
	DD	FLAT:__purecall
	DD	FLAT:__purecall
	DD	FLAT:__purecall
	DD	FLAT:__purecall
	DD	FLAT:__purecall
	DD	FLAT:__purecall
	DD	FLAT:__purecall
	DD	FLAT:__purecall
	DD	FLAT:__purecall
	DD	FLAT:__purecall
	DD	FLAT:__purecall
	DD	FLAT:__purecall
	DD	FLAT:__purecall
	DD	FLAT:__purecall
	DD	FLAT:__purecall
	DD	FLAT:__purecall
	DD	FLAT:__purecall
CONST	ENDS
;	COMDAT ??_7IChangeColorMgr@@6BIEventListener@@@
CONST	SEGMENT
??_7IChangeColorMgr@@6BIEventListener@@@ DD FLAT:??_R4IChangeColorMgr@@6BIEventListener@@@ ; IChangeColorMgr::`vftable'
	DD	FLAT:?OnCliekButton@IEventListener@@UAEXPAVCButton@@@Z
	DD	FLAT:?OnCliekSlide@IEventListener@@UAEXPAVCSliderCtrl@@@Z
	DD	FLAT:?OnSendChangeColor@IEventListener@@UAEXKI_N@Z
	DD	FLAT:?OnSendChangeSkin@IEventListener@@UAEXV?$CStringT@DV?$StrTraitMFC_DLL@DV?$ChTraitsCRT@D@ATL@@@@@ATL@@@Z
	DD	FLAT:?OnSendChangeSubject@IEventListener@@UAEXV?$CStringT@DV?$StrTraitMFC_DLL@DV?$ChTraitsCRT@D@ATL@@@@@ATL@@0@Z
	DD	FLAT:?OnChangeSkinAndSub@IEventListener@@UAEXABV?$CStringT@DV?$StrTraitMFC_DLL@DV?$ChTraitsCRT@D@ATL@@@@@ATL@@0@Z
	DD	FLAT:?OnStartDownSubject@IEventListener@@UAEXABV?$CStringT@DV?$StrTraitMFC_DLL@DV?$ChTraitsCRT@D@ATL@@@@@ATL@@@Z
	DD	FLAT:?OnFinishDownSubject@IEventListener@@UAEXH@Z
CONST	ENDS
;	COMDAT ??_R4IChangeColorMgr@@6BIWndEventListener@@@
rdata$r	SEGMENT
??_R4IChangeColorMgr@@6BIWndEventListener@@@ DD 00H	; IChangeColorMgr::`RTTI Complete Object Locator'
	DD	00H
	DD	00H
	DD	FLAT:??_R0?AVIChangeColorMgr@@@8
	DD	FLAT:??_R3IChangeColorMgr@@8
rdata$r	ENDS
;	COMDAT ??_R3IChangeColorMgr@@8
rdata$r	SEGMENT
??_R3IChangeColorMgr@@8 DD 00H				; IChangeColorMgr::`RTTI Class Hierarchy Descriptor'
	DD	01H
	DD	03H
	DD	FLAT:??_R2IChangeColorMgr@@8
rdata$r	ENDS
;	COMDAT ??_R2IChangeColorMgr@@8
rdata$r	SEGMENT
??_R2IChangeColorMgr@@8 DD FLAT:??_R1A@?0A@A@IChangeColorMgr@@8 ; IChangeColorMgr::`RTTI Base Class Array'
	DD	FLAT:??_R1A@?0A@A@IWndEventListener@@8
	DD	FLAT:??_R13?0A@A@IEventListener@@8
rdata$r	ENDS
;	COMDAT ??_R4IChangeColorMgr@@6BIEventListener@@@
rdata$r	SEGMENT
??_R4IChangeColorMgr@@6BIEventListener@@@ DD 00H	; IChangeColorMgr::`RTTI Complete Object Locator'
	DD	04H
	DD	00H
	DD	FLAT:??_R0?AVIChangeColorMgr@@@8
	DD	FLAT:??_R3IChangeColorMgr@@8
; Function compile flags: /Odt /RTCsu
rdata$r	ENDS
;	COMDAT ??0IChangeColorMgr@@QAE@XZ
_TEXT	SEGMENT
_this$ = -4						; size = 4
??0IChangeColorMgr@@QAE@XZ PROC NEAR			; IChangeColorMgr::IChangeColorMgr, COMDAT
; _this$ = ecx
  00000	55		 push	 ebp
  00001	8b ec		 mov	 ebp, esp
  00003	51		 push	 ecx
  00004	c7 45 fc cc cc
	cc cc		 mov	 DWORD PTR [ebp-4], -858993460 ; ccccccccH
  0000b	89 4d fc	 mov	 DWORD PTR _this$[ebp], ecx
  0000e	8b 4d fc	 mov	 ecx, DWORD PTR _this$[ebp]
  00011	e8 00 00 00 00	 call	 ??0IWndEventListener@@QAE@XZ
  00016	8b 4d fc	 mov	 ecx, DWORD PTR _this$[ebp]
  00019	83 c1 04	 add	 ecx, 4
  0001c	e8 00 00 00 00	 call	 ??0IEventListener@@QAE@XZ
  00021	8b 45 fc	 mov	 eax, DWORD PTR _this$[ebp]
  00024	c7 00 00 00 00
	00		 mov	 DWORD PTR [eax], OFFSET FLAT:??_7IChangeColorMgr@@6BIWndEventListener@@@
  0002a	8b 4d fc	 mov	 ecx, DWORD PTR _this$[ebp]
  0002d	c7 41 04 00 00
	00 00		 mov	 DWORD PTR [ecx+4], OFFSET FLAT:??_7IChangeColorMgr@@6BIEventListener@@@
  00034	8b 45 fc	 mov	 eax, DWORD PTR _this$[ebp]
  00037	83 c4 04	 add	 esp, 4
  0003a	3b ec		 cmp	 ebp, esp
  0003c	e8 00 00 00 00	 call	 __RTC_CheckEsp
  00041	8b e5		 mov	 esp, ebp
  00043	5d		 pop	 ebp
  00044	c3		 ret	 0
??0IChangeColorMgr@@QAE@XZ ENDP				; IChangeColorMgr::IChangeColorMgr
; Function compile flags: /Odt /RTCsu
; File d:\boxgit\playbox\playbox\dev\prj\playbox\src\layoutmgr\changecolor\ievent.h
_TEXT	ENDS
;	COMDAT ?OnSendChangeColor@IEventListener@@UAEXKI_N@Z
_TEXT	SEGMENT
_this$ = -4						; size = 4
_acolCol$ = 8						; size = 4
_anLightValue$ = 12					; size = 4
_bChangeTop$ = 16					; size = 1
?OnSendChangeColor@IEventListener@@UAEXKI_N@Z PROC NEAR	; IEventListener::OnSendChangeColor, COMDAT
; _this$ = ecx

; 9    : 	virtual void OnSendChangeColor( COLORREF acolCol, UINT anLightValue,bool bChangeTop = true ){};

  00000	55		 push	 ebp
  00001	8b ec		 mov	 ebp, esp
  00003	51		 push	 ecx
  00004	c7 45 fc cc cc
	cc cc		 mov	 DWORD PTR [ebp-4], -858993460 ; ccccccccH
  0000b	89 4d fc	 mov	 DWORD PTR _this$[ebp], ecx
  0000e	8b e5		 mov	 esp, ebp
  00010	5d		 pop	 ebp
  00011	c2 0c 00	 ret	 12			; 0000000cH
?OnSendChangeColor@IEventListener@@UAEXKI_N@Z ENDP	; IEventListener::OnSendChangeColor
; Function compile flags: /Odt /RTCsu
_TEXT	ENDS
;	COMDAT ?OnSendChangeSkin@IEventListener@@UAEXV?$CStringT@DV?$StrTraitMFC_DLL@DV?$ChTraitsCRT@D@ATL@@@@@ATL@@@Z
_TEXT	SEGMENT
_this$ = -4						; size = 4
_strPath$ = 8						; size = 4
?OnSendChangeSkin@IEventListener@@UAEXV?$CStringT@DV?$StrTraitMFC_DLL@DV?$ChTraitsCRT@D@ATL@@@@@ATL@@@Z PROC NEAR ; IEventListener::OnSendChangeSkin, COMDAT
; _this$ = ecx

; 10   : 	virtual void OnSendChangeSkin ( CString strPath){};	

  00000	55		 push	 ebp
  00001	8b ec		 mov	 ebp, esp
  00003	51		 push	 ecx
  00004	56		 push	 esi
  00005	c7 45 fc cc cc
	cc cc		 mov	 DWORD PTR [ebp-4], -858993460 ; ccccccccH
  0000c	89 4d fc	 mov	 DWORD PTR _this$[ebp], ecx
  0000f	8b f4		 mov	 esi, esp
  00011	8d 4d 08	 lea	 ecx, DWORD PTR _strPath$[ebp]
  00014	ff 15 00 00 00
	00		 call	 DWORD PTR __imp_??1?$CStringT@DV?$StrTraitMFC_DLL@DV?$ChTraitsCRT@D@ATL@@@@@ATL@@QAE@XZ
  0001a	3b f4		 cmp	 esi, esp
  0001c	e8 00 00 00 00	 call	 __RTC_CheckEsp
  00021	5e		 pop	 esi
  00022	83 c4 04	 add	 esp, 4
  00025	3b ec		 cmp	 ebp, esp
  00027	e8 00 00 00 00	 call	 __RTC_CheckEsp
  0002c	8b e5		 mov	 esp, ebp
  0002e	5d		 pop	 ebp
  0002f	c2 04 00	 ret	 4
?OnSendChangeSkin@IEventListener@@UAEXV?$CStringT@DV?$StrTraitMFC_DLL@DV?$ChTraitsCRT@D@ATL@@@@@ATL@@@Z ENDP ; IEventListener::OnSendChangeSkin
; Function compile flags: /Odt /RTCsu
_TEXT	ENDS
;	COMDAT ?OnSendChangeSubject@IEventListener@@UAEXV?$CStringT@DV?$StrTraitMFC_DLL@DV?$ChTraitsCRT@D@ATL@@@@@ATL@@0@Z
_TEXT	SEGMENT
_this$ = -4						; size = 4
___formal$ = 8						; size = 4
_subjectName$ = 12					; size = 4
?OnSendChangeSubject@IEventListener@@UAEXV?$CStringT@DV?$StrTraitMFC_DLL@DV?$ChTraitsCRT@D@ATL@@@@@ATL@@0@Z PROC NEAR ; IEventListener::OnSendChangeSubject, COMDAT
; _this$ = ecx

; 11   : 	virtual void OnSendChangeSubject(CString,CString subjectName){};

  00000	55		 push	 ebp
  00001	8b ec		 mov	 ebp, esp
  00003	51		 push	 ecx
  00004	56		 push	 esi
  00005	c7 45 fc cc cc
	cc cc		 mov	 DWORD PTR [ebp-4], -858993460 ; ccccccccH
  0000c	89 4d fc	 mov	 DWORD PTR _this$[ebp], ecx
  0000f	8b f4		 mov	 esi, esp
  00011	8d 4d 08	 lea	 ecx, DWORD PTR ___formal$[ebp]
  00014	ff 15 00 00 00
	00		 call	 DWORD PTR __imp_??1?$CStringT@DV?$StrTraitMFC_DLL@DV?$ChTraitsCRT@D@ATL@@@@@ATL@@QAE@XZ
  0001a	3b f4		 cmp	 esi, esp
  0001c	e8 00 00 00 00	 call	 __RTC_CheckEsp
  00021	8b f4		 mov	 esi, esp
  00023	8d 4d 0c	 lea	 ecx, DWORD PTR _subjectName$[ebp]
  00026	ff 15 00 00 00
	00		 call	 DWORD PTR __imp_??1?$CStringT@DV?$StrTraitMFC_DLL@DV?$ChTraitsCRT@D@ATL@@@@@ATL@@QAE@XZ
  0002c	3b f4		 cmp	 esi, esp
  0002e	e8 00 00 00 00	 call	 __RTC_CheckEsp
  00033	5e		 pop	 esi
  00034	83 c4 04	 add	 esp, 4
  00037	3b ec		 cmp	 ebp, esp
  00039	e8 00 00 00 00	 call	 __RTC_CheckEsp
  0003e	8b e5		 mov	 esp, ebp
  00040	5d		 pop	 ebp
  00041	c2 08 00	 ret	 8
?OnSendChangeSubject@IEventListener@@UAEXV?$CStringT@DV?$StrTraitMFC_DLL@DV?$ChTraitsCRT@D@ATL@@@@@ATL@@0@Z ENDP ; IEventListener::OnSendChangeSubject
; Function compile flags: /Odt /RTCsu
_TEXT	ENDS
;	COMDAT ?OnChangeSkinAndSub@IEventListener@@UAEXABV?$CStringT@DV?$StrTraitMFC_DLL@DV?$ChTraitsCRT@D@ATL@@@@@ATL@@0@Z
_TEXT	SEGMENT
_this$ = -4						; size = 4
_strPath$ = 8						; size = 4
_strSub$ = 12						; size = 4
?OnChangeSkinAndSub@IEventListener@@UAEXABV?$CStringT@DV?$StrTraitMFC_DLL@DV?$ChTraitsCRT@D@ATL@@@@@ATL@@0@Z PROC NEAR ; IEventListener::OnChangeSkinAndSub, COMDAT
; _this$ = ecx

; 12   : 	virtual void OnChangeSkinAndSub(const CString& strPath,const CString& strSub){};

  00000	55		 push	 ebp
  00001	8b ec		 mov	 ebp, esp
  00003	51		 push	 ecx
  00004	c7 45 fc cc cc
	cc cc		 mov	 DWORD PTR [ebp-4], -858993460 ; ccccccccH
  0000b	89 4d fc	 mov	 DWORD PTR _this$[ebp], ecx
  0000e	8b e5		 mov	 esp, ebp
  00010	5d		 pop	 ebp
  00011	c2 08 00	 ret	 8
?OnChangeSkinAndSub@IEventListener@@UAEXABV?$CStringT@DV?$StrTraitMFC_DLL@DV?$ChTraitsCRT@D@ATL@@@@@ATL@@0@Z ENDP ; IEventListener::OnChangeSkinAndSub
; Function compile flags: /Odt /RTCsu
_TEXT	ENDS
;	COMDAT ?OnStartDownSubject@IEventListener@@UAEXABV?$CStringT@DV?$StrTraitMFC_DLL@DV?$ChTraitsCRT@D@ATL@@@@@ATL@@@Z
_TEXT	SEGMENT
_this$ = -4						; size = 4
_strSubName$ = 8					; size = 4
?OnStartDownSubject@IEventListener@@UAEXABV?$CStringT@DV?$StrTraitMFC_DLL@DV?$ChTraitsCRT@D@ATL@@@@@ATL@@@Z PROC NEAR ; IEventListener::OnStartDownSubject, COMDAT
; _this$ = ecx

; 13   : 	virtual void OnStartDownSubject(const CString& strSubName){};

  00000	55		 push	 ebp
  00001	8b ec		 mov	 ebp, esp
  00003	51		 push	 ecx
  00004	c7 45 fc cc cc
	cc cc		 mov	 DWORD PTR [ebp-4], -858993460 ; ccccccccH
  0000b	89 4d fc	 mov	 DWORD PTR _this$[ebp], ecx
  0000e	8b e5		 mov	 esp, ebp
  00010	5d		 pop	 ebp
  00011	c2 04 00	 ret	 4
?OnStartDownSubject@IEventListener@@UAEXABV?$CStringT@DV?$StrTraitMFC_DLL@DV?$ChTraitsCRT@D@ATL@@@@@ATL@@@Z ENDP ; IEventListener::OnStartDownSubject
; Function compile flags: /Odt /RTCsu
_TEXT	ENDS
;	COMDAT ?OnFinishDownSubject@IEventListener@@UAEXH@Z
_TEXT	SEGMENT
_this$ = -4						; size = 4
_bSuc$ = 8						; size = 4
?OnFinishDownSubject@IEventListener@@UAEXH@Z PROC NEAR	; IEventListener::OnFinishDownSubject, COMDAT
; _this$ = ecx

; 14   : 	virtual void OnFinishDownSubject(BOOL bSuc){};

  00000	55		 push	 ebp
  00001	8b ec		 mov	 ebp, esp
  00003	51		 push	 ecx
  00004	c7 45 fc cc cc
	cc cc		 mov	 DWORD PTR [ebp-4], -858993460 ; ccccccccH
  0000b	89 4d fc	 mov	 DWORD PTR _this$[ebp], ecx
  0000e	8b e5		 mov	 esp, ebp
  00010	5d		 pop	 ebp
  00011	c2 04 00	 ret	 4
?OnFinishDownSubject@IEventListener@@UAEXH@Z ENDP	; IEventListener::OnFinishDownSubject
; Function compile flags: /Odt /RTCsu
_TEXT	ENDS
;	COMDAT ??0P2PObserver@@QAE@XZ
_TEXT	SEGMENT
_this$ = -4						; size = 4
??0P2PObserver@@QAE@XZ PROC NEAR			; P2PObserver::P2PObserver, COMDAT
; _this$ = ecx
  00000	55		 push	 ebp
  00001	8b ec		 mov	 ebp, esp
  00003	51		 push	 ecx
  00004	c7 45 fc cc cc
	cc cc		 mov	 DWORD PTR [ebp-4], -858993460 ; ccccccccH
  0000b	89 4d fc	 mov	 DWORD PTR _this$[ebp], ecx
  0000e	8b 45 fc	 mov	 eax, DWORD PTR _this$[ebp]
  00011	c7 00 00 00 00
	00		 mov	 DWORD PTR [eax], OFFSET FLAT:??_7P2PObserver@@6B@
  00017	8b 45 fc	 mov	 eax, DWORD PTR _this$[ebp]
  0001a	8b e5		 mov	 esp, ebp
  0001c	5d		 pop	 ebp
  0001d	c3		 ret	 0
??0P2PObserver@@QAE@XZ ENDP				; P2PObserver::P2PObserver
_TEXT	ENDS
PUBLIC	??0IMessageObserver@@QAE@XZ			; IMessageObserver::IMessageObserver
PUBLIC	?ILayoutChangeOb_SkinChanged@ILayoutChangeObserver@@UAEXV?$basic_string@DU?$char_traits@D@std@@V?$allocator@D@2@@std@@0@Z ; ILayoutChangeObserver::ILayoutChangeOb_SkinChanged
PUBLIC	??_7ILayoutChangeObserver@@6B@			; ILayoutChangeObserver::`vftable'
PUBLIC	??_GILayoutChangeObserver@@UAEPAXI@Z		; ILayoutChangeObserver::`scalar deleting destructor'
PUBLIC	??_R4ILayoutChangeObserver@@6B@			; ILayoutChangeObserver::`RTTI Complete Object Locator'
PUBLIC	??_R3ILayoutChangeObserver@@8			; ILayoutChangeObserver::`RTTI Class Hierarchy Descriptor'
PUBLIC	??_R2ILayoutChangeObserver@@8			; ILayoutChangeObserver::`RTTI Base Class Array'
PUBLIC	??_R1A@?0A@A@ILayoutChangeObserver@@8		; ILayoutChangeObserver::`RTTI Base Class Descriptor at (0,-1,0,0)'
PUBLIC	??_R1A@?0A@A@IMessageObserver@@8		; IMessageObserver::`RTTI Base Class Descriptor at (0,-1,0,0)'
EXTRN	??_EILayoutChangeObserver@@UAEPAXI@Z:NEAR	; ILayoutChangeObserver::`vector deleting destructor'
;	COMDAT ??_7ILayoutChangeObserver@@6B@
CONST	SEGMENT
??_7ILayoutChangeObserver@@6B@ DD FLAT:??_R4ILayoutChangeObserver@@6B@ ; ILayoutChangeObserver::`vftable'
	DD	FLAT:??_EILayoutChangeObserver@@UAEPAXI@Z
	DD	FLAT:?ILayoutChangeOb_LayerChanged@ILayoutChangeObserver@@UAEXV?$basic_string@DU?$char_traits@D@std@@V?$allocator@D@2@@std@@00@Z
	DD	FLAT:?ILayoutChangeOb_PaneChanged@ILayoutChangeObserver@@UAEXV?$basic_string@DU?$char_traits@D@std@@V?$allocator@D@2@@std@@0@Z
	DD	FLAT:?ILayoutChangeOb_SkinChanged@ILayoutChangeObserver@@UAEXV?$basic_string@DU?$char_traits@D@std@@V?$allocator@D@2@@std@@0@Z
	DD	FLAT:?ILayoutChangeOb_ColorChanged@ILayoutChangeObserver@@UAEXXZ
	DD	FLAT:?ILayoutChangeOb_ColorChanging@ILayoutChangeObserver@@UAEXXZ
	DD	FLAT:?ILayoutChangeOb_UpdateLayout@ILayoutChangeObserver@@UAEXPAUHWND__@@@Z
	DD	FLAT:?ILayoutChangeOb_InitFinished@ILayoutChangeObserver@@UAEXXZ
	DD	FLAT:?ILayoutChangeOb_InitBegin@ILayoutChangeObserver@@UAEXXZ
CONST	ENDS
;	COMDAT ??_R4ILayoutChangeObserver@@6B@
rdata$r	SEGMENT
??_R4ILayoutChangeObserver@@6B@ DD 00H			; ILayoutChangeObserver::`RTTI Complete Object Locator'
	DD	00H
	DD	00H
	DD	FLAT:??_R0?AVILayoutChangeObserver@@@8
	DD	FLAT:??_R3ILayoutChangeObserver@@8
rdata$r	ENDS
;	COMDAT ??_R3ILayoutChangeObserver@@8
rdata$r	SEGMENT
??_R3ILayoutChangeObserver@@8 DD 00H			; ILayoutChangeObserver::`RTTI Class Hierarchy Descriptor'
	DD	00H
	DD	02H
	DD	FLAT:??_R2ILayoutChangeObserver@@8
rdata$r	ENDS
;	COMDAT ??_R2ILayoutChangeObserver@@8
rdata$r	SEGMENT
??_R2ILayoutChangeObserver@@8 DD FLAT:??_R1A@?0A@A@ILayoutChangeObserver@@8 ; ILayoutChangeObserver::`RTTI Base Class Array'
	DD	FLAT:??_R1A@?0A@A@IMessageObserver@@8
rdata$r	ENDS
;	COMDAT ??_R1A@?0A@A@ILayoutChangeObserver@@8
rdata$r	SEGMENT
??_R1A@?0A@A@ILayoutChangeObserver@@8 DD FLAT:??_R0?AVILayoutChangeObserver@@@8 ; ILayoutChangeObserver::`RTTI Base Class Descriptor at (0,-1,0,0)'
	DD	01H
	DD	00H
	DD	0ffffffffH
	DD	00H
	DD	00H
rdata$r	ENDS
;	COMDAT ??_R1A@?0A@A@IMessageObserver@@8
rdata$r	SEGMENT
??_R1A@?0A@A@IMessageObserver@@8 DD FLAT:??_R0?AVIMessageObserver@@@8 ; IMessageObserver::`RTTI Base Class Descriptor at (0,-1,0,0)'
	DD	00H
	DD	00H
	DD	0ffffffffH
	DD	00H
	DD	00H
; Function compile flags: /Odt /RTCsu
rdata$r	ENDS
;	COMDAT ??0ILayoutChangeObserver@@QAE@XZ
_TEXT	SEGMENT
_this$ = -4						; size = 4
??0ILayoutChangeObserver@@QAE@XZ PROC NEAR		; ILayoutChangeObserver::ILayoutChangeObserver, COMDAT
; _this$ = ecx
  00000	55		 push	 ebp
  00001	8b ec		 mov	 ebp, esp
  00003	51		 push	 ecx
  00004	c7 45 fc cc cc
	cc cc		 mov	 DWORD PTR [ebp-4], -858993460 ; ccccccccH
  0000b	89 4d fc	 mov	 DWORD PTR _this$[ebp], ecx
  0000e	8b 4d fc	 mov	 ecx, DWORD PTR _this$[ebp]
  00011	e8 00 00 00 00	 call	 ??0IMessageObserver@@QAE@XZ
  00016	8b 45 fc	 mov	 eax, DWORD PTR _this$[ebp]
  00019	c7 00 00 00 00
	00		 mov	 DWORD PTR [eax], OFFSET FLAT:??_7ILayoutChangeObserver@@6B@
  0001f	8b 45 fc	 mov	 eax, DWORD PTR _this$[ebp]
  00022	83 c4 04	 add	 esp, 4
  00025	3b ec		 cmp	 ebp, esp
  00027	e8 00 00 00 00	 call	 __RTC_CheckEsp
  0002c	8b e5		 mov	 esp, ebp
  0002e	5d		 pop	 ebp
  0002f	c3		 ret	 0
??0ILayoutChangeObserver@@QAE@XZ ENDP			; ILayoutChangeObserver::ILayoutChangeObserver
_TEXT	ENDS
;	COMDAT xdata$x
; File d:\boxgit\playbox\playbox\dev\prj\playbox\src\datainterface\ilayoutchangeobserver.h
xdata$x	SEGMENT
$T194749 DD	0ffffffffH
	DD	FLAT:$L194744
$T194747 DD	019930520H
	DD	01H
	DD	FLAT:$T194749
	DD	2 DUP(00H)
	DD	2 DUP(00H)
; Function compile flags: /Odt /RTCsu
xdata$x	ENDS
;	COMDAT ?ILayoutChangeOb_SkinChanged@ILayoutChangeObserver@@UAEXV?$basic_string@DU?$char_traits@D@std@@V?$allocator@D@2@@std@@0@Z
_TEXT	SEGMENT
_this$ = -16						; size = 4
__$EHRec$ = -12						; size = 12
_oldSkinPath$ = 8					; size = 28
_newSkinPath$ = 36					; size = 28
?ILayoutChangeOb_SkinChanged@ILayoutChangeObserver@@UAEXV?$basic_string@DU?$char_traits@D@std@@V?$allocator@D@2@@std@@0@Z PROC NEAR ; ILayoutChangeObserver::ILayoutChangeOb_SkinChanged, COMDAT
; _this$ = ecx

; 11   : 	virtual void	ILayoutChangeOb_SkinChanged(string oldSkinPath, string newSkinPath){};

  00000	55		 push	 ebp
  00001	8b ec		 mov	 ebp, esp
  00003	6a ff		 push	 -1
  00005	68 00 00 00 00	 push	 __ehhandler$?ILayoutChangeOb_SkinChanged@ILayoutChangeObserver@@UAEXV?$basic_string@DU?$char_traits@D@std@@V?$allocator@D@2@@std@@0@Z
  0000a	64 a1 00 00 00
	00		 mov	 eax, DWORD PTR fs:__except_list
  00010	50		 push	 eax
  00011	64 89 25 00 00
	00 00		 mov	 DWORD PTR fs:__except_list, esp
  00018	51		 push	 ecx
  00019	56		 push	 esi
  0001a	c7 45 f0 cc cc
	cc cc		 mov	 DWORD PTR [ebp-16], -858993460 ; ccccccccH
  00021	89 4d f0	 mov	 DWORD PTR _this$[ebp], ecx
  00024	c7 45 fc 00 00
	00 00		 mov	 DWORD PTR __$EHRec$[ebp+8], 0
  0002b	8b f4		 mov	 esi, esp
  0002d	8d 4d 08	 lea	 ecx, DWORD PTR _oldSkinPath$[ebp]
  00030	ff 15 00 00 00
	00		 call	 DWORD PTR __imp_??1?$basic_string@DU?$char_traits@D@std@@V?$allocator@D@2@@std@@QAE@XZ
  00036	3b f4		 cmp	 esi, esp
  00038	e8 00 00 00 00	 call	 __RTC_CheckEsp
  0003d	c7 45 fc ff ff
	ff ff		 mov	 DWORD PTR __$EHRec$[ebp+8], -1
  00044	8b f4		 mov	 esi, esp
  00046	8d 4d 24	 lea	 ecx, DWORD PTR _newSkinPath$[ebp]
  00049	ff 15 00 00 00
	00		 call	 DWORD PTR __imp_??1?$basic_string@DU?$char_traits@D@std@@V?$allocator@D@2@@std@@QAE@XZ
  0004f	3b f4		 cmp	 esi, esp
  00051	e8 00 00 00 00	 call	 __RTC_CheckEsp
  00056	8b 4d f4	 mov	 ecx, DWORD PTR __$EHRec$[ebp]
  00059	64 89 0d 00 00
	00 00		 mov	 DWORD PTR fs:__except_list, ecx
  00060	5e		 pop	 esi
  00061	83 c4 10	 add	 esp, 16			; 00000010H
  00064	3b ec		 cmp	 ebp, esp
  00066	e8 00 00 00 00	 call	 __RTC_CheckEsp
  0006b	8b e5		 mov	 esp, ebp
  0006d	5d		 pop	 ebp
  0006e	c2 38 00	 ret	 56			; 00000038H
_TEXT	ENDS
;	COMDAT text$x
text$x	SEGMENT
$L194744:
  00000	8b f4		 mov	 esi, esp
  00002	8d 4d 24	 lea	 ecx, DWORD PTR _newSkinPath$[ebp]
  00005	ff 15 00 00 00
	00		 call	 DWORD PTR __imp_??1?$basic_string@DU?$char_traits@D@std@@V?$allocator@D@2@@std@@QAE@XZ
  0000b	3b f4		 cmp	 esi, esp
  0000d	e9 00 00 00 00	 jmp	 __RTC_CheckEsp
__ehhandler$?ILayoutChangeOb_SkinChanged@ILayoutChangeObserver@@UAEXV?$basic_string@DU?$char_traits@D@std@@V?$allocator@D@2@@std@@0@Z:
  00012	b8 00 00 00 00	 mov	 eax, OFFSET FLAT:$T194747
  00017	e9 00 00 00 00	 jmp	 ___CxxFrameHandler
text$x	ENDS
?ILayoutChangeOb_SkinChanged@ILayoutChangeObserver@@UAEXV?$basic_string@DU?$char_traits@D@std@@V?$allocator@D@2@@std@@0@Z ENDP ; ILayoutChangeObserver::ILayoutChangeOb_SkinChanged
PUBLIC	??1IMessageObserver@@UAE@XZ			; IMessageObserver::~IMessageObserver
; Function compile flags: /Odt /RTCsu
;	COMDAT ??1ILayoutChangeObserver@@UAE@XZ
_TEXT	SEGMENT
_this$ = -4						; size = 4
??1ILayoutChangeObserver@@UAE@XZ PROC NEAR		; ILayoutChangeObserver::~ILayoutChangeObserver, COMDAT
; _this$ = ecx
  00000	55		 push	 ebp
  00001	8b ec		 mov	 ebp, esp
  00003	51		 push	 ecx
  00004	c7 45 fc cc cc
	cc cc		 mov	 DWORD PTR [ebp-4], -858993460 ; ccccccccH
  0000b	89 4d fc	 mov	 DWORD PTR _this$[ebp], ecx
  0000e	8b 4d fc	 mov	 ecx, DWORD PTR _this$[ebp]
  00011	e8 00 00 00 00	 call	 ??1IMessageObserver@@UAE@XZ ; IMessageObserver::~IMessageObserver
  00016	83 c4 04	 add	 esp, 4
  00019	3b ec		 cmp	 ebp, esp
  0001b	e8 00 00 00 00	 call	 __RTC_CheckEsp
  00020	8b e5		 mov	 esp, ebp
  00022	5d		 pop	 ebp
  00023	c3		 ret	 0
??1ILayoutChangeObserver@@UAE@XZ ENDP			; ILayoutChangeObserver::~ILayoutChangeObserver
_TEXT	ENDS
PUBLIC	??_R4IWndEventListener@@6B@			; IWndEventListener::`RTTI Complete Object Locator'
PUBLIC	??_R3IWndEventListener@@8			; IWndEventListener::`RTTI Class Hierarchy Descriptor'
PUBLIC	??_R2IWndEventListener@@8			; IWndEventListener::`RTTI Base Class Array'
PUBLIC	??_7IWndEventListener@@6B@			; IWndEventListener::`vftable'
;	COMDAT ??_7IWndEventListener@@6B@
CONST	SEGMENT
??_7IWndEventListener@@6B@ DD FLAT:??_R4IWndEventListener@@6B@ ; IWndEventListener::`vftable'
	DD	FLAT:?OnChangeSkinTemplate@IWndEventListener@@UAE_NV?$CStringT@DV?$StrTraitMFC_DLL@DV?$ChTraitsCRT@D@ATL@@@@@ATL@@@Z
	DD	FLAT:?OnchangeColor@IWndEventListener@@UAEXKI@Z
	DD	FLAT:__purecall
CONST	ENDS
;	COMDAT ??_R4IWndEventListener@@6B@
rdata$r	SEGMENT
??_R4IWndEventListener@@6B@ DD 00H			; IWndEventListener::`RTTI Complete Object Locator'
	DD	00H
	DD	00H
	DD	FLAT:??_R0?AVIWndEventListener@@@8
	DD	FLAT:??_R3IWndEventListener@@8
rdata$r	ENDS
;	COMDAT ??_R3IWndEventListener@@8
rdata$r	SEGMENT
??_R3IWndEventListener@@8 DD 00H			; IWndEventListener::`RTTI Class Hierarchy Descriptor'
	DD	00H
	DD	01H
	DD	FLAT:??_R2IWndEventListener@@8
rdata$r	ENDS
;	COMDAT ??_R2IWndEventListener@@8
rdata$r	SEGMENT
??_R2IWndEventListener@@8 DD FLAT:??_R1A@?0A@A@IWndEventListener@@8 ; IWndEventListener::`RTTI Base Class Array'
; Function compile flags: /Odt /RTCsu
rdata$r	ENDS
;	COMDAT ??0IWndEventListener@@QAE@XZ
_TEXT	SEGMENT
_this$ = -4						; size = 4
??0IWndEventListener@@QAE@XZ PROC NEAR			; IWndEventListener::IWndEventListener, COMDAT
; _this$ = ecx
  00000	55		 push	 ebp
  00001	8b ec		 mov	 ebp, esp
  00003	51		 push	 ecx
  00004	c7 45 fc cc cc
	cc cc		 mov	 DWORD PTR [ebp-4], -858993460 ; ccccccccH
  0000b	89 4d fc	 mov	 DWORD PTR _this$[ebp], ecx
  0000e	8b 45 fc	 mov	 eax, DWORD PTR _this$[ebp]
  00011	c7 00 00 00 00
	00		 mov	 DWORD PTR [eax], OFFSET FLAT:??_7IWndEventListener@@6B@
  00017	8b 45 fc	 mov	 eax, DWORD PTR _this$[ebp]
  0001a	8b e5		 mov	 esp, ebp
  0001c	5d		 pop	 ebp
  0001d	c3		 ret	 0
??0IWndEventListener@@QAE@XZ ENDP			; IWndEventListener::IWndEventListener
_TEXT	ENDS
PUBLIC	??_7IEventListener@@6B@				; IEventListener::`vftable'
PUBLIC	??_R4IEventListener@@6B@			; IEventListener::`RTTI Complete Object Locator'
PUBLIC	??_R3IEventListener@@8				; IEventListener::`RTTI Class Hierarchy Descriptor'
PUBLIC	??_R2IEventListener@@8				; IEventListener::`RTTI Base Class Array'
PUBLIC	??_R1A@?0A@A@IEventListener@@8			; IEventListener::`RTTI Base Class Descriptor at (0,-1,0,0)'
;	COMDAT ??_7IEventListener@@6B@
CONST	SEGMENT
??_7IEventListener@@6B@ DD FLAT:??_R4IEventListener@@6B@ ; IEventListener::`vftable'
	DD	FLAT:?OnCliekButton@IEventListener@@UAEXPAVCButton@@@Z
	DD	FLAT:?OnCliekSlide@IEventListener@@UAEXPAVCSliderCtrl@@@Z
	DD	FLAT:?OnSendChangeColor@IEventListener@@UAEXKI_N@Z
	DD	FLAT:?OnSendChangeSkin@IEventListener@@UAEXV?$CStringT@DV?$StrTraitMFC_DLL@DV?$ChTraitsCRT@D@ATL@@@@@ATL@@@Z
	DD	FLAT:?OnSendChangeSubject@IEventListener@@UAEXV?$CStringT@DV?$StrTraitMFC_DLL@DV?$ChTraitsCRT@D@ATL@@@@@ATL@@0@Z
	DD	FLAT:?OnChangeSkinAndSub@IEventListener@@UAEXABV?$CStringT@DV?$StrTraitMFC_DLL@DV?$ChTraitsCRT@D@ATL@@@@@ATL@@0@Z
	DD	FLAT:?OnStartDownSubject@IEventListener@@UAEXABV?$CStringT@DV?$StrTraitMFC_DLL@DV?$ChTraitsCRT@D@ATL@@@@@ATL@@@Z
	DD	FLAT:?OnFinishDownSubject@IEventListener@@UAEXH@Z
CONST	ENDS
;	COMDAT ??_R4IEventListener@@6B@
rdata$r	SEGMENT
??_R4IEventListener@@6B@ DD 00H				; IEventListener::`RTTI Complete Object Locator'
	DD	00H
	DD	00H
	DD	FLAT:??_R0?AVIEventListener@@@8
	DD	FLAT:??_R3IEventListener@@8
rdata$r	ENDS
;	COMDAT ??_R3IEventListener@@8
rdata$r	SEGMENT
??_R3IEventListener@@8 DD 00H				; IEventListener::`RTTI Class Hierarchy Descriptor'
	DD	00H
	DD	01H
	DD	FLAT:??_R2IEventListener@@8
rdata$r	ENDS
;	COMDAT ??_R2IEventListener@@8
rdata$r	SEGMENT
??_R2IEventListener@@8 DD FLAT:??_R1A@?0A@A@IEventListener@@8 ; IEventListener::`RTTI Base Class Array'
rdata$r	ENDS
;	COMDAT ??_R1A@?0A@A@IEventListener@@8
rdata$r	SEGMENT
??_R1A@?0A@A@IEventListener@@8 DD FLAT:??_R0?AVIEventListener@@@8 ; IEventListener::`RTTI Base Class Descriptor at (0,-1,0,0)'
	DD	00H
	DD	00H
	DD	0ffffffffH
	DD	00H
	DD	00H
; Function compile flags: /Odt /RTCsu
rdata$r	ENDS
;	COMDAT ??0IEventListener@@QAE@XZ
_TEXT	SEGMENT
_this$ = -4						; size = 4
??0IEventListener@@QAE@XZ PROC NEAR			; IEventListener::IEventListener, COMDAT
; _this$ = ecx
  00000	55		 push	 ebp
  00001	8b ec		 mov	 ebp, esp
  00003	51		 push	 ecx
  00004	c7 45 fc cc cc
	cc cc		 mov	 DWORD PTR [ebp-4], -858993460 ; ccccccccH
  0000b	89 4d fc	 mov	 DWORD PTR _this$[ebp], ecx
  0000e	8b 45 fc	 mov	 eax, DWORD PTR _this$[ebp]
  00011	c7 00 00 00 00
	00		 mov	 DWORD PTR [eax], OFFSET FLAT:??_7IEventListener@@6B@
  00017	8b 45 fc	 mov	 eax, DWORD PTR _this$[ebp]
  0001a	8b e5		 mov	 esp, ebp
  0001c	5d		 pop	 ebp
  0001d	c3		 ret	 0
??0IEventListener@@QAE@XZ ENDP				; IEventListener::IEventListener
; Function compile flags: /Odt /RTCsu
_TEXT	ENDS
;	COMDAT ??_GILayoutChangeObserver@@UAEPAXI@Z
_TEXT	SEGMENT
_this$ = -4						; size = 4
___flags$ = 8						; size = 4
??_GILayoutChangeObserver@@UAEPAXI@Z PROC NEAR		; ILayoutChangeObserver::`scalar deleting destructor', COMDAT
; _this$ = ecx
  00000	55		 push	 ebp
  00001	8b ec		 mov	 ebp, esp
  00003	51		 push	 ecx
  00004	c7 45 fc cc cc
	cc cc		 mov	 DWORD PTR [ebp-4], -858993460 ; ccccccccH
  0000b	89 4d fc	 mov	 DWORD PTR _this$[ebp], ecx
  0000e	8b 4d fc	 mov	 ecx, DWORD PTR _this$[ebp]
  00011	e8 00 00 00 00	 call	 ??1ILayoutChangeObserver@@UAE@XZ
  00016	8b 45 08	 mov	 eax, DWORD PTR ___flags$[ebp]
  00019	83 e0 01	 and	 eax, 1
  0001c	74 0c		 je	 SHORT $L191904
  0001e	8b 4d fc	 mov	 ecx, DWORD PTR _this$[ebp]
  00021	51		 push	 ecx
  00022	e8 00 00 00 00	 call	 ??3@YAXPAX@Z		; operator delete
  00027	83 c4 04	 add	 esp, 4
$L191904:
  0002a	8b 45 fc	 mov	 eax, DWORD PTR _this$[ebp]
  0002d	83 c4 04	 add	 esp, 4
  00030	3b ec		 cmp	 ebp, esp
  00032	e8 00 00 00 00	 call	 __RTC_CheckEsp
  00037	8b e5		 mov	 esp, ebp
  00039	5d		 pop	 ebp
  0003a	c2 04 00	 ret	 4
??_GILayoutChangeObserver@@UAEPAXI@Z ENDP		; ILayoutChangeObserver::`scalar deleting destructor'
_TEXT	ENDS
PUBLIC	??_7IMessageObserver@@6B@			; IMessageObserver::`vftable'
PUBLIC	??_GIMessageObserver@@UAEPAXI@Z			; IMessageObserver::`scalar deleting destructor'
PUBLIC	??_R4IMessageObserver@@6B@			; IMessageObserver::`RTTI Complete Object Locator'
PUBLIC	??_R3IMessageObserver@@8			; IMessageObserver::`RTTI Class Hierarchy Descriptor'
PUBLIC	??_R2IMessageObserver@@8			; IMessageObserver::`RTTI Base Class Array'
EXTRN	??_EIMessageObserver@@UAEPAXI@Z:NEAR		; IMessageObserver::`vector deleting destructor'
;	COMDAT ??_7IMessageObserver@@6B@
CONST	SEGMENT
??_7IMessageObserver@@6B@ DD FLAT:??_R4IMessageObserver@@6B@ ; IMessageObserver::`vftable'
	DD	FLAT:??_EIMessageObserver@@UAEPAXI@Z
CONST	ENDS
;	COMDAT ??_R4IMessageObserver@@6B@
rdata$r	SEGMENT
??_R4IMessageObserver@@6B@ DD 00H			; IMessageObserver::`RTTI Complete Object Locator'
	DD	00H
	DD	00H
	DD	FLAT:??_R0?AVIMessageObserver@@@8
	DD	FLAT:??_R3IMessageObserver@@8
rdata$r	ENDS
;	COMDAT ??_R3IMessageObserver@@8
rdata$r	SEGMENT
??_R3IMessageObserver@@8 DD 00H				; IMessageObserver::`RTTI Class Hierarchy Descriptor'
	DD	00H
	DD	01H
	DD	FLAT:??_R2IMessageObserver@@8
rdata$r	ENDS
;	COMDAT ??_R2IMessageObserver@@8
rdata$r	SEGMENT
??_R2IMessageObserver@@8 DD FLAT:??_R1A@?0A@A@IMessageObserver@@8 ; IMessageObserver::`RTTI Base Class Array'
; Function compile flags: /Odt /RTCsu
rdata$r	ENDS
;	COMDAT ??0IMessageObserver@@QAE@XZ
_TEXT	SEGMENT
_this$ = -4						; size = 4
??0IMessageObserver@@QAE@XZ PROC NEAR			; IMessageObserver::IMessageObserver, COMDAT
; _this$ = ecx
  00000	55		 push	 ebp
  00001	8b ec		 mov	 ebp, esp
  00003	51		 push	 ecx
  00004	c7 45 fc cc cc
	cc cc		 mov	 DWORD PTR [ebp-4], -858993460 ; ccccccccH
  0000b	89 4d fc	 mov	 DWORD PTR _this$[ebp], ecx
  0000e	8b 45 fc	 mov	 eax, DWORD PTR _this$[ebp]
  00011	c7 00 00 00 00
	00		 mov	 DWORD PTR [eax], OFFSET FLAT:??_7IMessageObserver@@6B@
  00017	8b 45 fc	 mov	 eax, DWORD PTR _this$[ebp]
  0001a	8b e5		 mov	 esp, ebp
  0001c	5d		 pop	 ebp
  0001d	c3		 ret	 0
??0IMessageObserver@@QAE@XZ ENDP			; IMessageObserver::IMessageObserver
_TEXT	ENDS
PUBLIC	??1CSkinMgrV1@@UAE@XZ				; CSkinMgrV1::~CSkinMgrV1
EXTRN	__imp__DeleteCriticalSection@4:NEAR
xdata$x	SEGMENT
$T194787 DD	0ffffffffH
	DD	FLAT:$L194775
	DD	00H
	DD	FLAT:$L194778
	DD	01H
	DD	FLAT:$L194779
	DD	02H
	DD	FLAT:$L194780
	DD	03H
	DD	FLAT:$L194781
	DD	04H
	DD	FLAT:$L194782
	DD	05H
	DD	FLAT:$L194783
$T194785 DD	019930520H
	DD	07H
	DD	FLAT:$T194787
	DD	2 DUP(00H)
	DD	2 DUP(00H)
; Function compile flags: /Odt /RTCsu
; File d:\boxgit\playbox\playbox\dev\prj\playbox\src\layoutmgr\changecolor\ichangecolormgr.cpp
xdata$x	ENDS
_TEXT	SEGMENT
tv69 = -56						; size = 4
tv73 = -52						; size = 4
tv153 = -48						; size = 4
tv158 = -44						; size = 4
tv147 = -40						; size = 4
tv136 = -36						; size = 4
$T194768 = -32						; size = 4
$T194767 = -28						; size = 4
$T194764 = -24						; size = 4
$T194763 = -20						; size = 4
_this$ = -16						; size = 4
__$EHRec$ = -12						; size = 12
??1CSkinMgrV1@@UAE@XZ PROC NEAR				; CSkinMgrV1::~CSkinMgrV1
; _this$ = ecx

; 47   : {

  001f0	55		 push	 ebp
  001f1	8b ec		 mov	 ebp, esp
  001f3	6a ff		 push	 -1
  001f5	68 00 00 00 00	 push	 __ehhandler$??1CSkinMgrV1@@UAE@XZ
  001fa	64 a1 00 00 00
	00		 mov	 eax, DWORD PTR fs:__except_list
  00200	50		 push	 eax
  00201	64 89 25 00 00
	00 00		 mov	 DWORD PTR fs:__except_list, esp
  00208	83 ec 2c	 sub	 esp, 44			; 0000002cH
  0020b	56		 push	 esi
  0020c	57		 push	 edi
  0020d	51		 push	 ecx
  0020e	8d 7d c8	 lea	 edi, DWORD PTR [ebp-56]
  00211	b9 0b 00 00 00	 mov	 ecx, 11			; 0000000bH
  00216	b8 cc cc cc cc	 mov	 eax, -858993460		; ccccccccH
  0021b	f3 ab		 rep stosd
  0021d	59		 pop	 ecx
  0021e	89 4d f0	 mov	 DWORD PTR _this$[ebp], ecx
  00221	8b 45 f0	 mov	 eax, DWORD PTR _this$[ebp]
  00224	c7 00 00 00 00
	00		 mov	 DWORD PTR [eax], OFFSET FLAT:??_7CSkinMgrV1@@6BIWndEventListener@@@
  0022a	8b 4d f0	 mov	 ecx, DWORD PTR _this$[ebp]
  0022d	c7 41 04 00 00
	00 00		 mov	 DWORD PTR [ecx+4], OFFSET FLAT:??_7CSkinMgrV1@@6BIEventListener@@@
  00234	8b 55 f0	 mov	 edx, DWORD PTR _this$[ebp]
  00237	c7 42 08 00 00
	00 00		 mov	 DWORD PTR [edx+8], OFFSET FLAT:??_7CSkinMgrV1@@6BP2PObserver@@@
  0023e	8b 45 f0	 mov	 eax, DWORD PTR _this$[ebp]
  00241	c7 40 0c 00 00
	00 00		 mov	 DWORD PTR [eax+12], OFFSET FLAT:??_7CSkinMgrV1@@6BILayoutChangeObserver@@@
  00248	c7 45 fc 06 00
	00 00		 mov	 DWORD PTR __$EHRec$[ebp+8], 6

; 48   : 
; 49   : 	/*if( NULL != mp_mainSkinWnd ) delete mp_mainSkinWnd;
; 50   : 	if( NULL != mp_skinWnd)        delete mp_skinWnd;
; 51   : 	if( NULL != mp_tabCtrol)       delete mp_tabCtrol;
; 52   : 	if( NULL != mp_colorWnd )      delete mp_colorWnd;
; 53   : 	if( NULL != mp_CloseBotton )   delete mp_CloseBotton;*/
; 54   : 	if( mp_downloadSkin )

  0024f	8b 4d f0	 mov	 ecx, DWORD PTR _this$[ebp]
  00252	83 79 20 00	 cmp	 DWORD PTR [ecx+32], 0
  00256	74 41		 je	 SHORT $L191910

; 55   : 	{
; 56   : 		delete mp_downloadSkin;

  00258	8b 55 f0	 mov	 edx, DWORD PTR _this$[ebp]
  0025b	8b 42 20	 mov	 eax, DWORD PTR [edx+32]
  0025e	89 45 e8	 mov	 DWORD PTR $T194764[ebp], eax
  00261	8b 4d e8	 mov	 ecx, DWORD PTR $T194764[ebp]
  00264	89 4d ec	 mov	 DWORD PTR $T194763[ebp], ecx
  00267	83 7d ec 00	 cmp	 DWORD PTR $T194763[ebp], 0
  0026b	74 1b		 je	 SHORT $L194765
  0026d	8b f4		 mov	 esi, esp
  0026f	6a 01		 push	 1
  00271	8b 55 ec	 mov	 edx, DWORD PTR $T194763[ebp]
  00274	8b 02		 mov	 eax, DWORD PTR [edx]
  00276	8b 4d ec	 mov	 ecx, DWORD PTR $T194763[ebp]
  00279	ff 50 04	 call	 DWORD PTR [eax+4]
  0027c	3b f4		 cmp	 esi, esp
  0027e	e8 00 00 00 00	 call	 __RTC_CheckEsp
  00283	89 45 dc	 mov	 DWORD PTR tv136[ebp], eax
  00286	eb 07		 jmp	 SHORT $L194766
$L194765:
  00288	c7 45 dc 00 00
	00 00		 mov	 DWORD PTR tv136[ebp], 0
$L194766:

; 57   : 		mp_downloadSkin = NULL;

  0028f	8b 4d f0	 mov	 ecx, DWORD PTR _this$[ebp]
  00292	c7 41 20 00 00
	00 00		 mov	 DWORD PTR [ecx+32], 0
$L191910:

; 58   : 	}
; 59   : 	if( mp_downloadSubject )

  00299	8b 55 f0	 mov	 edx, DWORD PTR _this$[ebp]
  0029c	83 7a 24 00	 cmp	 DWORD PTR [edx+36], 0
  002a0	74 41		 je	 SHORT $L191913

; 60   : 	{
; 61   : 		delete mp_downloadSubject;

  002a2	8b 45 f0	 mov	 eax, DWORD PTR _this$[ebp]
  002a5	8b 48 24	 mov	 ecx, DWORD PTR [eax+36]
  002a8	89 4d e0	 mov	 DWORD PTR $T194768[ebp], ecx
  002ab	8b 55 e0	 mov	 edx, DWORD PTR $T194768[ebp]
  002ae	89 55 e4	 mov	 DWORD PTR $T194767[ebp], edx
  002b1	83 7d e4 00	 cmp	 DWORD PTR $T194767[ebp], 0
  002b5	74 1b		 je	 SHORT $L194769
  002b7	8b f4		 mov	 esi, esp
  002b9	6a 01		 push	 1
  002bb	8b 45 e4	 mov	 eax, DWORD PTR $T194767[ebp]
  002be	8b 10		 mov	 edx, DWORD PTR [eax]
  002c0	8b 4d e4	 mov	 ecx, DWORD PTR $T194767[ebp]
  002c3	ff 52 04	 call	 DWORD PTR [edx+4]
  002c6	3b f4		 cmp	 esi, esp
  002c8	e8 00 00 00 00	 call	 __RTC_CheckEsp
  002cd	89 45 d8	 mov	 DWORD PTR tv147[ebp], eax
  002d0	eb 07		 jmp	 SHORT $L194770
$L194769:
  002d2	c7 45 d8 00 00
	00 00		 mov	 DWORD PTR tv147[ebp], 0
$L194770:

; 62   : 		mp_downloadSubject = NULL;

  002d9	8b 45 f0	 mov	 eax, DWORD PTR _this$[ebp]
  002dc	c7 40 24 00 00
	00 00		 mov	 DWORD PTR [eax+36], 0
$L191913:

; 63   : 	}
; 64   : 
; 65   : 	DeleteCriticalSection( &m_csDownInfo );

  002e3	8b 4d f0	 mov	 ecx, DWORD PTR _this$[ebp]
  002e6	83 c1 68	 add	 ecx, 104		; 00000068H
  002e9	8b f4		 mov	 esi, esp
  002eb	51		 push	 ecx
  002ec	ff 15 00 00 00
	00		 call	 DWORD PTR __imp__DeleteCriticalSection@4
  002f2	3b f4		 cmp	 esi, esp
  002f4	e8 00 00 00 00	 call	 __RTC_CheckEsp

; 66   : 	AfxGetMessageManager()->DetachMessage( ID_MESSAGE_LAYOUTMGR,(ILayoutChangeObserver*)this);

  002f9	83 7d f0 00	 cmp	 DWORD PTR _this$[ebp], 0
  002fd	74 0b		 je	 SHORT $L194771
  002ff	8b 55 f0	 mov	 edx, DWORD PTR _this$[ebp]
  00302	83 c2 0c	 add	 edx, 12			; 0000000cH
  00305	89 55 d4	 mov	 DWORD PTR tv158[ebp], edx
  00308	eb 07		 jmp	 SHORT $L194772
$L194771:
  0030a	c7 45 d4 00 00
	00 00		 mov	 DWORD PTR tv158[ebp], 0
$L194772:
  00311	e8 00 00 00 00	 call	 ?AfxGetMessageManager@@YAPAVIMessageManager@@XZ ; AfxGetMessageManager
  00316	89 45 d0	 mov	 DWORD PTR tv153[ebp], eax
  00319	8b f4		 mov	 esi, esp
  0031b	8b 45 d4	 mov	 eax, DWORD PTR tv158[ebp]
  0031e	50		 push	 eax
  0031f	68 00 00 00 00	 push	 OFFSET FLAT:_ID_MESSAGE_LAYOUTMGR
  00324	8b 4d d0	 mov	 ecx, DWORD PTR tv153[ebp]
  00327	8b 11		 mov	 edx, DWORD PTR [ecx]
  00329	8b 4d d0	 mov	 ecx, DWORD PTR tv153[ebp]
  0032c	ff 52 08	 call	 DWORD PTR [edx+8]
  0032f	3b f4		 cmp	 esi, esp
  00331	e8 00 00 00 00	 call	 __RTC_CheckEsp

; 67   : }

  00336	c6 45 fc 05	 mov	 BYTE PTR __$EHRec$[ebp+8], 5
  0033a	8b 4d f0	 mov	 ecx, DWORD PTR _this$[ebp]
  0033d	83 c1 60	 add	 ecx, 96			; 00000060H
  00340	8b f4		 mov	 esi, esp
  00342	ff 15 00 00 00
	00		 call	 DWORD PTR __imp_??1?$CStringT@DV?$StrTraitMFC_DLL@DV?$ChTraitsCRT@D@ATL@@@@@ATL@@QAE@XZ
  00348	3b f4		 cmp	 esi, esp
  0034a	e8 00 00 00 00	 call	 __RTC_CheckEsp
  0034f	c6 45 fc 04	 mov	 BYTE PTR __$EHRec$[ebp+8], 4
  00353	8b 4d f0	 mov	 ecx, DWORD PTR _this$[ebp]
  00356	83 c1 5c	 add	 ecx, 92			; 0000005cH
  00359	8b f4		 mov	 esi, esp
  0035b	ff 15 00 00 00
	00		 call	 DWORD PTR __imp_??1?$CStringT@DV?$StrTraitMFC_DLL@DV?$ChTraitsCRT@D@ATL@@@@@ATL@@QAE@XZ
  00361	3b f4		 cmp	 esi, esp
  00363	e8 00 00 00 00	 call	 __RTC_CheckEsp
  00368	c6 45 fc 03	 mov	 BYTE PTR __$EHRec$[ebp+8], 3
  0036c	8b 4d f0	 mov	 ecx, DWORD PTR _this$[ebp]
  0036f	83 c1 58	 add	 ecx, 88			; 00000058H
  00372	8b f4		 mov	 esi, esp
  00374	ff 15 00 00 00
	00		 call	 DWORD PTR __imp_??1?$CStringT@DV?$StrTraitMFC_DLL@DV?$ChTraitsCRT@D@ATL@@@@@ATL@@QAE@XZ
  0037a	3b f4		 cmp	 esi, esp
  0037c	e8 00 00 00 00	 call	 __RTC_CheckEsp
  00381	c6 45 fc 02	 mov	 BYTE PTR __$EHRec$[ebp+8], 2
  00385	8b 4d f0	 mov	 ecx, DWORD PTR _this$[ebp]
  00388	83 c1 38	 add	 ecx, 56			; 00000038H
  0038b	e8 00 00 00 00	 call	 ??1?$vector@PAVIChangeSkinEventListener@@V?$allocator@PAVIChangeSkinEventListener@@@std@@@std@@QAE@XZ ; std::vector<IChangeSkinEventListener *,std::allocator<IChangeSkinEventListener *> >::~vector<IChangeSkinEventListener *,std::allocator<IChangeSkinEventListener *> >
  00390	c6 45 fc 01	 mov	 BYTE PTR __$EHRec$[ebp+8], 1
  00394	8b 4d f0	 mov	 ecx, DWORD PTR _this$[ebp]
  00397	83 c1 34	 add	 ecx, 52			; 00000034H
  0039a	8b f4		 mov	 esi, esp
  0039c	ff 15 00 00 00
	00		 call	 DWORD PTR __imp_??1?$CStringT@DV?$StrTraitMFC_DLL@DV?$ChTraitsCRT@D@ATL@@@@@ATL@@QAE@XZ
  003a2	3b f4		 cmp	 esi, esp
  003a4	e8 00 00 00 00	 call	 __RTC_CheckEsp
  003a9	c6 45 fc 00	 mov	 BYTE PTR __$EHRec$[ebp+8], 0
  003ad	83 7d f0 00	 cmp	 DWORD PTR _this$[ebp], 0
  003b1	74 0b		 je	 SHORT $L194761
  003b3	8b 45 f0	 mov	 eax, DWORD PTR _this$[ebp]
  003b6	83 c0 0c	 add	 eax, 12			; 0000000cH
  003b9	89 45 cc	 mov	 DWORD PTR tv73[ebp], eax
  003bc	eb 07		 jmp	 SHORT $L194762
$L194761:
  003be	c7 45 cc 00 00
	00 00		 mov	 DWORD PTR tv73[ebp], 0
$L194762:
  003c5	8b 4d cc	 mov	 ecx, DWORD PTR tv73[ebp]
  003c8	e8 00 00 00 00	 call	 ??1ILayoutChangeObserver@@UAE@XZ
  003cd	c7 45 fc ff ff
	ff ff		 mov	 DWORD PTR __$EHRec$[ebp+8], -1
  003d4	83 7d f0 00	 cmp	 DWORD PTR _this$[ebp], 0
  003d8	74 0b		 je	 SHORT $L194759
  003da	8b 4d f0	 mov	 ecx, DWORD PTR _this$[ebp]
  003dd	83 c1 08	 add	 ecx, 8
  003e0	89 4d c8	 mov	 DWORD PTR tv69[ebp], ecx
  003e3	eb 07		 jmp	 SHORT $L194760
$L194759:
  003e5	c7 45 c8 00 00
	00 00		 mov	 DWORD PTR tv69[ebp], 0
$L194760:
  003ec	8b 4d c8	 mov	 ecx, DWORD PTR tv69[ebp]
  003ef	e8 00 00 00 00	 call	 ??1P2PObserver@@UAE@XZ	; P2PObserver::~P2PObserver
  003f4	8b 4d f4	 mov	 ecx, DWORD PTR __$EHRec$[ebp]
  003f7	64 89 0d 00 00
	00 00		 mov	 DWORD PTR fs:__except_list, ecx
  003fe	5f		 pop	 edi
  003ff	5e		 pop	 esi
  00400	83 c4 38	 add	 esp, 56			; 00000038H
  00403	3b ec		 cmp	 ebp, esp
  00405	e8 00 00 00 00	 call	 __RTC_CheckEsp
  0040a	8b e5		 mov	 esp, ebp
  0040c	5d		 pop	 ebp
  0040d	c3		 ret	 0
_TEXT	ENDS
text$x	SEGMENT
$L194775:
  0007f	83 7d f0 00	 cmp	 DWORD PTR _this$[ebp], 0
  00083	0f 84 0e 00 00
	00		 je	 $L194773
  00089	8b 45 f0	 mov	 eax, DWORD PTR _this$[ebp]
  0008c	83 c0 08	 add	 eax, 8
  0008f	89 45 c8	 mov	 DWORD PTR tv69[ebp], eax
  00092	e9 07 00 00 00	 jmp	 $L194774
$L194773:
  00097	c7 45 c8 00 00
	00 00		 mov	 DWORD PTR tv69[ebp], 0
$L194774:
  0009e	8b 4d c8	 mov	 ecx, DWORD PTR tv69[ebp]
  000a1	e9 00 00 00 00	 jmp	 ??1P2PObserver@@UAE@XZ	; P2PObserver::~P2PObserver
$L194778:
  000a6	83 7d f0 00	 cmp	 DWORD PTR _this$[ebp], 0
  000aa	0f 84 0e 00 00
	00		 je	 $L194776
  000b0	8b 45 f0	 mov	 eax, DWORD PTR _this$[ebp]
  000b3	83 c0 0c	 add	 eax, 12			; 0000000cH
  000b6	89 45 cc	 mov	 DWORD PTR tv73[ebp], eax
  000b9	e9 07 00 00 00	 jmp	 $L194777
$L194776:
  000be	c7 45 cc 00 00
	00 00		 mov	 DWORD PTR tv73[ebp], 0
$L194777:
  000c5	8b 4d cc	 mov	 ecx, DWORD PTR tv73[ebp]
  000c8	e9 00 00 00 00	 jmp	 ??1ILayoutChangeObserver@@UAE@XZ
$L194779:
  000cd	8b 4d f0	 mov	 ecx, DWORD PTR _this$[ebp]
  000d0	83 c1 34	 add	 ecx, 52			; 00000034H
  000d3	8b f4		 mov	 esi, esp
  000d5	ff 15 00 00 00
	00		 call	 DWORD PTR __imp_??1?$CStringT@DV?$StrTraitMFC_DLL@DV?$ChTraitsCRT@D@ATL@@@@@ATL@@QAE@XZ
  000db	3b f4		 cmp	 esi, esp
  000dd	e9 00 00 00 00	 jmp	 __RTC_CheckEsp
$L194780:
  000e2	8b 4d f0	 mov	 ecx, DWORD PTR _this$[ebp]
  000e5	83 c1 38	 add	 ecx, 56			; 00000038H
  000e8	e9 00 00 00 00	 jmp	 ??1?$vector@PAVIChangeSkinEventListener@@V?$allocator@PAVIChangeSkinEventListener@@@std@@@std@@QAE@XZ ; std::vector<IChangeSkinEventListener *,std::allocator<IChangeSkinEventListener *> >::~vector<IChangeSkinEventListener *,std::allocator<IChangeSkinEventListener *> >
$L194781:
  000ed	8b 4d f0	 mov	 ecx, DWORD PTR _this$[ebp]
  000f0	83 c1 58	 add	 ecx, 88			; 00000058H
  000f3	8b f4		 mov	 esi, esp
  000f5	ff 15 00 00 00
	00		 call	 DWORD PTR __imp_??1?$CStringT@DV?$StrTraitMFC_DLL@DV?$ChTraitsCRT@D@ATL@@@@@ATL@@QAE@XZ
  000fb	3b f4		 cmp	 esi, esp
  000fd	e9 00 00 00 00	 jmp	 __RTC_CheckEsp
$L194782:
  00102	8b 4d f0	 mov	 ecx, DWORD PTR _this$[ebp]
  00105	83 c1 5c	 add	 ecx, 92			; 0000005cH
  00108	8b f4		 mov	 esi, esp
  0010a	ff 15 00 00 00
	00		 call	 DWORD PTR __imp_??1?$CStringT@DV?$StrTraitMFC_DLL@DV?$ChTraitsCRT@D@ATL@@@@@ATL@@QAE@XZ
  00110	3b f4		 cmp	 esi, esp
  00112	e9 00 00 00 00	 jmp	 __RTC_CheckEsp
$L194783:
  00117	8b 4d f0	 mov	 ecx, DWORD PTR _this$[ebp]
  0011a	83 c1 60	 add	 ecx, 96			; 00000060H
  0011d	8b f4		 mov	 esi, esp
  0011f	ff 15 00 00 00
	00		 call	 DWORD PTR __imp_??1?$CStringT@DV?$StrTraitMFC_DLL@DV?$ChTraitsCRT@D@ATL@@@@@ATL@@QAE@XZ
  00125	3b f4		 cmp	 esi, esp
  00127	e9 00 00 00 00	 jmp	 __RTC_CheckEsp
__ehhandler$??1CSkinMgrV1@@UAE@XZ:
  0012c	b8 00 00 00 00	 mov	 eax, OFFSET FLAT:$T194785
  00131	e9 00 00 00 00	 jmp	 ___CxxFrameHandler
text$x	ENDS
??1CSkinMgrV1@@UAE@XZ ENDP				; CSkinMgrV1::~CSkinMgrV1
PUBLIC	?GetObjectA@CSkinMgrV1@@SAPAVIChangeColorMgr@@XZ ; CSkinMgrV1::GetObjectA
EXTRN	??2@YAPAXI@Z:NEAR				; operator new
xdata$x	SEGMENT
$T194797 DD	0ffffffffH
	DD	FLAT:$L194793
$T194795 DD	019930520H
	DD	01H
	DD	FLAT:$T194797
	DD	2 DUP(00H)
	DD	2 DUP(00H)
; Function compile flags: /Odt /RTCsu
xdata$x	ENDS
_TEXT	SEGMENT
tv72 = -24						; size = 4
$T194790 = -20						; size = 4
$T194789 = -16						; size = 4
__$EHRec$ = -12						; size = 12
?GetObjectA@CSkinMgrV1@@SAPAVIChangeColorMgr@@XZ PROC NEAR ; CSkinMgrV1::GetObjectA

; 69   : {

  00410	55		 push	 ebp
  00411	8b ec		 mov	 ebp, esp
  00413	6a ff		 push	 -1
  00415	68 00 00 00 00	 push	 __ehhandler$?GetObjectA@CSkinMgrV1@@SAPAVIChangeColorMgr@@XZ
  0041a	64 a1 00 00 00
	00		 mov	 eax, DWORD PTR fs:__except_list
  00420	50		 push	 eax
  00421	64 89 25 00 00
	00 00		 mov	 DWORD PTR fs:__except_list, esp
  00428	83 ec 0c	 sub	 esp, 12			; 0000000cH
  0042b	c7 45 e8 cc cc
	cc cc		 mov	 DWORD PTR [ebp-24], -858993460 ; ccccccccH
  00432	c7 45 ec cc cc
	cc cc		 mov	 DWORD PTR [ebp-20], -858993460 ; ccccccccH
  00439	c7 45 f0 cc cc
	cc cc		 mov	 DWORD PTR [ebp-16], -858993460 ; ccccccccH

; 70   : 	if( NULL == mp_IsHadObject )

  00440	83 3d 00 00 00
	00 00		 cmp	 DWORD PTR ?mp_IsHadObject@CSkinMgrV1@@0PAVIChangeColorMgr@@A, 0 ; CSkinMgrV1::mp_IsHadObject
  00447	75 47		 jne	 SHORT $L191919

; 71   : 	{
; 72   : 		mp_IsHadObject = new CSkinMgrV1();

  00449	68 84 00 00 00	 push	 132			; 00000084H
  0044e	e8 00 00 00 00	 call	 ??2@YAPAXI@Z		; operator new
  00453	83 c4 04	 add	 esp, 4
  00456	89 45 ec	 mov	 DWORD PTR $T194790[ebp], eax
  00459	c7 45 fc 00 00
	00 00		 mov	 DWORD PTR __$EHRec$[ebp+8], 0
  00460	83 7d ec 00	 cmp	 DWORD PTR $T194790[ebp], 0
  00464	74 0d		 je	 SHORT $L194791
  00466	8b 4d ec	 mov	 ecx, DWORD PTR $T194790[ebp]
  00469	e8 00 00 00 00	 call	 ??0CSkinMgrV1@@QAE@XZ	; CSkinMgrV1::CSkinMgrV1
  0046e	89 45 e8	 mov	 DWORD PTR tv72[ebp], eax
  00471	eb 07		 jmp	 SHORT $L194792
$L194791:
  00473	c7 45 e8 00 00
	00 00		 mov	 DWORD PTR tv72[ebp], 0
$L194792:
  0047a	8b 45 e8	 mov	 eax, DWORD PTR tv72[ebp]
  0047d	89 45 f0	 mov	 DWORD PTR $T194789[ebp], eax
  00480	c7 45 fc ff ff
	ff ff		 mov	 DWORD PTR __$EHRec$[ebp+8], -1
  00487	8b 4d f0	 mov	 ecx, DWORD PTR $T194789[ebp]
  0048a	89 0d 00 00 00
	00		 mov	 DWORD PTR ?mp_IsHadObject@CSkinMgrV1@@0PAVIChangeColorMgr@@A, ecx ; CSkinMgrV1::mp_IsHadObject
$L191919:

; 73   : 	}
; 74   : 	return mp_IsHadObject;

  00490	a1 00 00 00 00	 mov	 eax, DWORD PTR ?mp_IsHadObject@CSkinMgrV1@@0PAVIChangeColorMgr@@A ; CSkinMgrV1::mp_IsHadObject

; 75   : }

  00495	8b 4d f4	 mov	 ecx, DWORD PTR __$EHRec$[ebp]
  00498	64 89 0d 00 00
	00 00		 mov	 DWORD PTR fs:__except_list, ecx
  0049f	83 c4 18	 add	 esp, 24			; 00000018H
  004a2	3b ec		 cmp	 ebp, esp
  004a4	e8 00 00 00 00	 call	 __RTC_CheckEsp
  004a9	8b e5		 mov	 esp, ebp
  004ab	5d		 pop	 ebp
  004ac	c3		 ret	 0
_TEXT	ENDS
text$x	SEGMENT
$L194793:
  00136	8b 45 ec	 mov	 eax, DWORD PTR $T194790[ebp]
  00139	50		 push	 eax
  0013a	e8 00 00 00 00	 call	 ??3@YAXPAX@Z		; operator delete
  0013f	59		 pop	 ecx
  00140	c3		 ret	 0
__ehhandler$?GetObjectA@CSkinMgrV1@@SAPAVIChangeColorMgr@@XZ:
  00141	b8 00 00 00 00	 mov	 eax, OFFSET FLAT:$T194795
  00146	e9 00 00 00 00	 jmp	 ___CxxFrameHandler
text$x	ENDS
?GetObjectA@CSkinMgrV1@@SAPAVIChangeColorMgr@@XZ ENDP	; CSkinMgrV1::GetObjectA
EXTRN	?CloseWindows@CMainSkinWnd@@QAEXXZ:NEAR		; CMainSkinWnd::CloseWindows
; Function compile flags: /Odt /RTCsu
_TEXT	SEGMENT
_this$ = -4						; size = 4
?OnClose@CSkinMgrV1@@UAEXXZ PROC NEAR			; CSkinMgrV1::OnClose
; _this$ = ecx

; 78   : {

  004b0	55		 push	 ebp
  004b1	8b ec		 mov	 ebp, esp
  004b3	51		 push	 ecx
  004b4	c7 45 fc cc cc
	cc cc		 mov	 DWORD PTR [ebp-4], -858993460 ; ccccccccH
  004bb	89 4d fc	 mov	 DWORD PTR _this$[ebp], ecx

; 79   : 	if(mb_HasPopWnd)

  004be	8b 45 fc	 mov	 eax, DWORD PTR _this$[ebp]
  004c1	0f b6 48 48	 movzx	 ecx, BYTE PTR [eax+72]
  004c5	85 c9		 test	 ecx, ecx
  004c7	74 1c		 je	 SHORT $L191926

; 80   : 	{
; 81   : 		mp_mainSkinWnd->CloseWindows();

  004c9	8b 55 fc	 mov	 edx, DWORD PTR _this$[ebp]
  004cc	8b 4a 10	 mov	 ecx, DWORD PTR [edx+16]
  004cf	e8 00 00 00 00	 call	 ?CloseWindows@CMainSkinWnd@@QAEXXZ ; CMainSkinWnd::CloseWindows

; 82   : 		mb_HasPopWnd = FALSE;

  004d4	8b 45 fc	 mov	 eax, DWORD PTR _this$[ebp]
  004d7	c6 40 48 00	 mov	 BYTE PTR [eax+72], 0

; 83   : 		mp_mainSkinWnd = NULL;

  004db	8b 4d fc	 mov	 ecx, DWORD PTR _this$[ebp]
  004de	c7 41 10 00 00
	00 00		 mov	 DWORD PTR [ecx+16], 0
$L191926:

; 84   : 	}
; 85   : }

  004e5	83 c4 04	 add	 esp, 4
  004e8	3b ec		 cmp	 ebp, esp
  004ea	e8 00 00 00 00	 call	 __RTC_CheckEsp
  004ef	8b e5		 mov	 esp, ebp
  004f1	5d		 pop	 ebp
  004f2	c3		 ret	 0
?OnClose@CSkinMgrV1@@UAEXXZ ENDP			; CSkinMgrV1::OnClose
_TEXT	ENDS
PUBLIC	?GetSkinWndRect@CSkinMgrV1@@QAEXABUtagPOINT@@AAVCRect@@@Z ; CSkinMgrV1::GetSkinWndRect
EXTRN	?AfxGetUIManager@@YAPAVIUIManager@@XZ:NEAR	; AfxGetUIManager
EXTRN	__imp__GetSystemMetrics@4:NEAR
; Function compile flags: /Odt /RTCsu
_TEXT	SEGMENT
tv92 = -28						; size = 4
tv87 = -24						; size = 4
tv71 = -20						; size = 4
tv66 = -16						; size = 4
_lnScreenHight$ = -12					; size = 4
_lnScreenWidth$ = -8					; size = 4
_this$ = -4						; size = 4
_aPoint$ = 8						; size = 4
_lrect$ = 12						; size = 4
?GetSkinWndRect@CSkinMgrV1@@QAEXABUtagPOINT@@AAVCRect@@@Z PROC NEAR ; CSkinMgrV1::GetSkinWndRect
; _this$ = ecx

; 88   : {	

  00500	55		 push	 ebp
  00501	8b ec		 mov	 ebp, esp
  00503	83 ec 1c	 sub	 esp, 28			; 0000001cH
  00506	56		 push	 esi
  00507	b8 cc cc cc cc	 mov	 eax, -858993460		; ccccccccH
  0050c	89 45 e4	 mov	 DWORD PTR [ebp-28], eax
  0050f	89 45 e8	 mov	 DWORD PTR [ebp-24], eax
  00512	89 45 ec	 mov	 DWORD PTR [ebp-20], eax
  00515	89 45 f0	 mov	 DWORD PTR [ebp-16], eax
  00518	89 45 f4	 mov	 DWORD PTR [ebp-12], eax
  0051b	89 45 f8	 mov	 DWORD PTR [ebp-8], eax
  0051e	89 45 fc	 mov	 DWORD PTR [ebp-4], eax
  00521	89 4d fc	 mov	 DWORD PTR _this$[ebp], ecx

; 89   : 	if(AfxGetUIManager()->UIGetLayoutMgr()->GetDisplayMode() == DISPLAY_SEPERATE_MODE)

  00524	e8 00 00 00 00	 call	 ?AfxGetUIManager@@YAPAVIUIManager@@XZ ; AfxGetUIManager
  00529	89 45 f0	 mov	 DWORD PTR tv66[ebp], eax
  0052c	8b 45 f0	 mov	 eax, DWORD PTR tv66[ebp]
  0052f	8b 10		 mov	 edx, DWORD PTR [eax]
  00531	8b f4		 mov	 esi, esp
  00533	8b 4d f0	 mov	 ecx, DWORD PTR tv66[ebp]
  00536	ff 52 24	 call	 DWORD PTR [edx+36]
  00539	3b f4		 cmp	 esi, esp
  0053b	e8 00 00 00 00	 call	 __RTC_CheckEsp
  00540	89 45 ec	 mov	 DWORD PTR tv71[ebp], eax
  00543	8b 45 ec	 mov	 eax, DWORD PTR tv71[ebp]
  00546	8b 10		 mov	 edx, DWORD PTR [eax]
  00548	8b f4		 mov	 esi, esp
  0054a	8b 4d ec	 mov	 ecx, DWORD PTR tv71[ebp]
  0054d	ff 52 7c	 call	 DWORD PTR [edx+124]
  00550	3b f4		 cmp	 esi, esp
  00552	e8 00 00 00 00	 call	 __RTC_CheckEsp
  00557	85 c0		 test	 eax, eax
  00559	75 10		 jne	 SHORT $L191933

; 90   : 		mp_mainSkinWnd->m_hight = 211;

  0055b	8b 45 fc	 mov	 eax, DWORD PTR _this$[ebp]
  0055e	8b 48 10	 mov	 ecx, DWORD PTR [eax+16]
  00561	c7 81 d4 00 00
	00 d3 00 00 00	 mov	 DWORD PTR [ecx+212], 211 ; 000000d3H
$L191933:

; 91   : 
; 92   : 	lrect.top    = aPoint.y;

  0056b	8b 55 0c	 mov	 edx, DWORD PTR _lrect$[ebp]
  0056e	8b 45 08	 mov	 eax, DWORD PTR _aPoint$[ebp]
  00571	8b 48 04	 mov	 ecx, DWORD PTR [eax+4]
  00574	89 4a 04	 mov	 DWORD PTR [edx+4], ecx

; 93   : 	lrect.bottom = lrect.top + mp_mainSkinWnd->m_hight;

  00577	8b 55 fc	 mov	 edx, DWORD PTR _this$[ebp]
  0057a	8b 42 10	 mov	 eax, DWORD PTR [edx+16]
  0057d	8b 4d 0c	 mov	 ecx, DWORD PTR _lrect$[ebp]
  00580	8b 51 04	 mov	 edx, DWORD PTR [ecx+4]
  00583	03 90 d4 00 00
	00		 add	 edx, DWORD PTR [eax+212]
  00589	8b 45 0c	 mov	 eax, DWORD PTR _lrect$[ebp]
  0058c	89 50 0c	 mov	 DWORD PTR [eax+12], edx

; 94   : 	lrect.left   = aPoint.x;

  0058f	8b 4d 0c	 mov	 ecx, DWORD PTR _lrect$[ebp]
  00592	8b 55 08	 mov	 edx, DWORD PTR _aPoint$[ebp]
  00595	8b 02		 mov	 eax, DWORD PTR [edx]
  00597	89 01		 mov	 DWORD PTR [ecx], eax

; 95   : 	if(AfxGetUIManager()->UIGetLayoutMgr()->GetDisplayMode() == DISPLAY_SEPERATE_MODE)

  00599	e8 00 00 00 00	 call	 ?AfxGetUIManager@@YAPAVIUIManager@@XZ ; AfxGetUIManager
  0059e	89 45 e8	 mov	 DWORD PTR tv87[ebp], eax
  005a1	8b 4d e8	 mov	 ecx, DWORD PTR tv87[ebp]
  005a4	8b 11		 mov	 edx, DWORD PTR [ecx]
  005a6	8b f4		 mov	 esi, esp
  005a8	8b 4d e8	 mov	 ecx, DWORD PTR tv87[ebp]
  005ab	ff 52 24	 call	 DWORD PTR [edx+36]
  005ae	3b f4		 cmp	 esi, esp
  005b0	e8 00 00 00 00	 call	 __RTC_CheckEsp
  005b5	89 45 e4	 mov	 DWORD PTR tv92[ebp], eax
  005b8	8b 45 e4	 mov	 eax, DWORD PTR tv92[ebp]
  005bb	8b 10		 mov	 edx, DWORD PTR [eax]
  005bd	8b f4		 mov	 esi, esp
  005bf	8b 4d e4	 mov	 ecx, DWORD PTR tv92[ebp]
  005c2	ff 52 7c	 call	 DWORD PTR [edx+124]
  005c5	3b f4		 cmp	 esi, esp
  005c7	e8 00 00 00 00	 call	 __RTC_CheckEsp
  005cc	85 c0		 test	 eax, eax
  005ce	75 10		 jne	 SHORT $L191934

; 96   : 		mp_mainSkinWnd->m_width = 240;

  005d0	8b 45 fc	 mov	 eax, DWORD PTR _this$[ebp]
  005d3	8b 48 10	 mov	 ecx, DWORD PTR [eax+16]
  005d6	c7 81 d8 00 00
	00 f0 00 00 00	 mov	 DWORD PTR [ecx+216], 240 ; 000000f0H
$L191934:

; 97   : 	lrect.right  = lrect.left +mp_mainSkinWnd->m_width;

  005e0	8b 55 fc	 mov	 edx, DWORD PTR _this$[ebp]
  005e3	8b 42 10	 mov	 eax, DWORD PTR [edx+16]
  005e6	8b 4d 0c	 mov	 ecx, DWORD PTR _lrect$[ebp]
  005e9	8b 11		 mov	 edx, DWORD PTR [ecx]
  005eb	03 90 d8 00 00
	00		 add	 edx, DWORD PTR [eax+216]
  005f1	8b 45 0c	 mov	 eax, DWORD PTR _lrect$[ebp]
  005f4	89 50 08	 mov	 DWORD PTR [eax+8], edx

; 98   : 
; 99   : 	int lnScreenWidth = ::GetSystemMetrics(SM_CXSCREEN);

  005f7	8b f4		 mov	 esi, esp
  005f9	6a 00		 push	 0
  005fb	ff 15 00 00 00
	00		 call	 DWORD PTR __imp__GetSystemMetrics@4
  00601	3b f4		 cmp	 esi, esp
  00603	e8 00 00 00 00	 call	 __RTC_CheckEsp
  00608	89 45 f8	 mov	 DWORD PTR _lnScreenWidth$[ebp], eax

; 100  : 	int lnScreenHight = ::GetSystemMetrics(SM_CYSCREEN);

  0060b	8b f4		 mov	 esi, esp
  0060d	6a 01		 push	 1
  0060f	ff 15 00 00 00
	00		 call	 DWORD PTR __imp__GetSystemMetrics@4
  00615	3b f4		 cmp	 esi, esp
  00617	e8 00 00 00 00	 call	 __RTC_CheckEsp
  0061c	89 45 f4	 mov	 DWORD PTR _lnScreenHight$[ebp], eax

; 101  : 
; 102  : 	if( lnScreenWidth < (int)(mp_mainSkinWnd->m_width + aPoint.x) )

  0061f	8b 4d fc	 mov	 ecx, DWORD PTR _this$[ebp]
  00622	8b 51 10	 mov	 edx, DWORD PTR [ecx+16]
  00625	8b 82 d8 00 00
	00		 mov	 eax, DWORD PTR [edx+216]
  0062b	8b 4d 08	 mov	 ecx, DWORD PTR _aPoint$[ebp]
  0062e	03 01		 add	 eax, DWORD PTR [ecx]
  00630	39 45 f8	 cmp	 DWORD PTR _lnScreenWidth$[ebp], eax
  00633	7d 21		 jge	 SHORT $L191938

; 103  : 	{
; 104  : 		lrect.left   =    aPoint.x - mp_mainSkinWnd->m_width;

  00635	8b 55 fc	 mov	 edx, DWORD PTR _this$[ebp]
  00638	8b 42 10	 mov	 eax, DWORD PTR [edx+16]
  0063b	8b 4d 08	 mov	 ecx, DWORD PTR _aPoint$[ebp]
  0063e	8b 11		 mov	 edx, DWORD PTR [ecx]
  00640	2b 90 d8 00 00
	00		 sub	 edx, DWORD PTR [eax+216]
  00646	8b 45 0c	 mov	 eax, DWORD PTR _lrect$[ebp]
  00649	89 10		 mov	 DWORD PTR [eax], edx

; 105  : 		lrect.right  =    aPoint.x;

  0064b	8b 4d 0c	 mov	 ecx, DWORD PTR _lrect$[ebp]
  0064e	8b 55 08	 mov	 edx, DWORD PTR _aPoint$[ebp]
  00651	8b 02		 mov	 eax, DWORD PTR [edx]
  00653	89 41 08	 mov	 DWORD PTR [ecx+8], eax
$L191938:

; 106  : 	}
; 107  : 	if( lnScreenHight < (int)mp_mainSkinWnd->m_hight + aPoint.y )

  00656	8b 4d fc	 mov	 ecx, DWORD PTR _this$[ebp]
  00659	8b 51 10	 mov	 edx, DWORD PTR [ecx+16]
  0065c	8b 82 d4 00 00
	00		 mov	 eax, DWORD PTR [edx+212]
  00662	8b 4d 08	 mov	 ecx, DWORD PTR _aPoint$[ebp]
  00665	03 41 04	 add	 eax, DWORD PTR [ecx+4]
  00668	39 45 f4	 cmp	 DWORD PTR _lnScreenHight$[ebp], eax
  0066b	7d 24		 jge	 SHORT $L191932

; 108  : 	{
; 109  : 		lrect.top =     aPoint.y - mp_mainSkinWnd->m_hight;

  0066d	8b 55 fc	 mov	 edx, DWORD PTR _this$[ebp]
  00670	8b 42 10	 mov	 eax, DWORD PTR [edx+16]
  00673	8b 4d 08	 mov	 ecx, DWORD PTR _aPoint$[ebp]
  00676	8b 51 04	 mov	 edx, DWORD PTR [ecx+4]
  00679	2b 90 d4 00 00
	00		 sub	 edx, DWORD PTR [eax+212]
  0067f	8b 45 0c	 mov	 eax, DWORD PTR _lrect$[ebp]
  00682	89 50 04	 mov	 DWORD PTR [eax+4], edx

; 110  : 		lrect.bottom =  aPoint.y;

  00685	8b 4d 0c	 mov	 ecx, DWORD PTR _lrect$[ebp]
  00688	8b 55 08	 mov	 edx, DWORD PTR _aPoint$[ebp]
  0068b	8b 42 04	 mov	 eax, DWORD PTR [edx+4]
  0068e	89 41 0c	 mov	 DWORD PTR [ecx+12], eax
$L191932:

; 111  : 	}
; 112  : }

  00691	5e		 pop	 esi
  00692	83 c4 1c	 add	 esp, 28			; 0000001cH
  00695	3b ec		 cmp	 ebp, esp
  00697	e8 00 00 00 00	 call	 __RTC_CheckEsp
  0069c	8b e5		 mov	 esp, ebp
  0069e	5d		 pop	 ebp
  0069f	c2 08 00	 ret	 8
?GetSkinWndRect@CSkinMgrV1@@QAEXABUtagPOINT@@AAVCRect@@@Z ENDP ; CSkinMgrV1::GetSkinWndRect
_TEXT	ENDS
PUBLIC	??HATL@@YA?AV?$CStringT@DV?$StrTraitMFC_DLL@DV?$ChTraitsCRT@D@ATL@@@@@0@ABV10@PBD@Z ; ATL::operator+
PUBLIC	?SetSendEventListener@CSkinWnd@@QAEXPAVIEventListener@@@Z ; CSkinWnd::SetSendEventListener
PUBLIC	?SetSendEventListener@CSubjectChildWnd@@QAEXPAVIEventListener@@@Z ; CSubjectChildWnd::SetSendEventListener
PUBLIC	?SetListener@CMainSkinWnd@@QAEXPAVIEventListener@@@Z ; CMainSkinWnd::SetListener
PUBLIC	?SetWndListener@CMainSkinWnd@@QAEXPAVIWndEventListener@@@Z ; CMainSkinWnd::SetWndListener
PUBLIC	?size@?$vector@UOneSubject@@V?$allocator@UOneSubject@@@std@@@std@@QBEIXZ ; std::vector<OneSubject,std::allocator<OneSubject> >::size
PUBLIC	??A?$vector@UOneSubject@@V?$allocator@UOneSubject@@@std@@@std@@QAEAAUOneSubject@@I@Z ; std::vector<OneSubject,std::allocator<OneSubject> >::operator[]
EXTRN	??0CDownloadPercentWnd@@QAE@XZ:NEAR		; CDownloadPercentWnd::CDownloadPercentWnd
EXTRN	?InitScrollBar@CSkinWnd@@QAEXXZ:NEAR		; CSkinWnd::InitScrollBar
EXTRN	?StopDownWebSubThread@CDownSub@@SAXXZ:NEAR	; CDownSub::StopDownWebSubThread
EXTRN	?ShowWindow@CSkinWnd@@QAEXH@Z:NEAR		; CSkinWnd::ShowWindow
EXTRN	__imp__SetWindowPos@28:NEAR
EXTRN	?InitScrollBar@CSubjectChildWnd@@QAEXXZ:NEAR	; CSubjectChildWnd::InitScrollBar
EXTRN	?SetTipText@CSubjectChildWnd@@QAEXV?$CStringT@DV?$StrTraitMFC_DLL@DV?$ChTraitsCRT@D@ATL@@@@@ATL@@00@Z:NEAR ; CSubjectChildWnd::SetTipText
EXTRN	??0CRect@@QAE@XZ:NEAR				; CRect::CRect
EXTRN	??0CRect@@QAE@HHHH@Z:NEAR			; CRect::CRect
EXTRN	__imp__GetClientRect@8:NEAR
EXTRN	?SetRect@CRect@@QAEXHHHH@Z:NEAR			; CRect::SetRect
EXTRN	??2CObject@@SGPAXI@Z:NEAR			; CObject::operator new
EXTRN	??3CObject@@SGXPAX@Z:NEAR			; CObject::operator delete
EXTRN	?Navigate@CWebSubWnd@@QAEXXZ:NEAR		; CWebSubWnd::Navigate
EXTRN	?MoveWindow@CWnd@@QAEXPBUtagRECT@@H@Z:NEAR	; CWnd::MoveWindow
EXTRN	__imp_??B?$CSimpleStringT@D$00@ATL@@QBEPBDXZ:NEAR
EXTRN	?ShowWindow@CWnd@@QAEHH@Z:NEAR			; CWnd::ShowWindow
EXTRN	?RedrawWindow@CWnd@@QAEHPBUtagRECT@@PAVCRgn@@I@Z:NEAR ; CWnd::RedrawWindow
EXTRN	?ShowColorBtn@CMainSkinWnd@@QAEXH@Z:NEAR	; CMainSkinWnd::ShowColorBtn
EXTRN	?AfxRegisterWndClass@@YGPBDIPAUHICON__@@PAUHBRUSH__@@0@Z:NEAR ; AfxRegisterWndClass
EXTRN	?SetCheckBtn@CMainSkinWnd@@QAEXH@Z:NEAR		; CMainSkinWnd::SetCheckBtn
EXTRN	__imp_?c_str@?$basic_string@DU?$char_traits@D@std@@V?$allocator@D@2@@std@@QBEPBDXZ:NEAR
EXTRN	__imp_??0?$CStringT@DV?$StrTraitMFC_DLL@DV?$ChTraitsCRT@D@ATL@@@@@ATL@@QAE@ABV01@@Z:NEAR
EXTRN	__imp_??0?$CStringT@DV?$StrTraitMFC_DLL@DV?$ChTraitsCRT@D@ATL@@@@@ATL@@QAE@PBD@Z:NEAR
EXTRN	?ShowWindow@CSubjectChildWnd@@QAEXH@Z:NEAR	; CSubjectChildWnd::ShowWindow
EXTRN	__imp__LoadCursorA@8:NEAR
xdata$x	SEGMENT
$T194858 DD	0ffffffffH
	DD	FLAT:$L194829
	DD	00H
	DD	FLAT:$L194830
	DD	01H
	DD	FLAT:$L194831
	DD	0ffffffffH
	DD	FLAT:$L194831
	DD	03H
	DD	FLAT:$L194830
	DD	03H
	DD	FLAT:$L194832
	DD	05H
	DD	FLAT:$L194833
	DD	0ffffffffH
	DD	FLAT:$L194835
	DD	07H
	DD	FLAT:$L194836
	DD	08H
	DD	FLAT:$L194837
	DD	0ffffffffH
	DD	FLAT:$L194837
	DD	0aH
	DD	FLAT:$L194836
	DD	0aH
	DD	FLAT:$L194838
	DD	0cH
	DD	FLAT:$L194839
	DD	0ffffffffH
	DD	FLAT:$L194841
	DD	0ffffffffH
	DD	FLAT:$L194842
	DD	0ffffffffH
	DD	FLAT:$L194843
	DD	0ffffffffH
	DD	FLAT:$L194844
$T194846 DD	019930520H
	DD	012H
	DD	FLAT:$T194858
	DD	2 DUP(00H)
	DD	2 DUP(00H)
; Function compile flags: /Odt /RTCsu
xdata$x	ENDS
_TEXT	SEGMENT
tv648 = -428						; size = 4
tv571 = -424						; size = 4
tv566 = -420						; size = 4
tv511 = -416						; size = 4
tv439 = -412						; size = 4
tv706 = -408						; size = 4
tv703 = -404						; size = 4
tv734 = -400						; size = 4
tv700 = -396						; size = 4
tv731 = -392						; size = 4
tv697 = -388						; size = 4
tv727 = -384						; size = 4
tv695 = -380						; size = 4
tv724 = -376						; size = 4
tv693 = -372						; size = 4
tv690 = -368						; size = 4
tv721 = -364						; size = 4
tv687 = -360						; size = 4
tv718 = -356						; size = 4
tv684 = -352						; size = 4
tv714 = -348						; size = 4
tv682 = -344						; size = 4
tv711 = -340						; size = 4
tv286 = -336						; size = 4
tv281 = -332						; size = 4
tv240 = -328						; size = 4
tv201 = -324						; size = 4
tv147 = -320						; size = 4
tv71 = -316						; size = 4
tv66 = -312						; size = 4
$T194826 = -308						; size = 4
$T194825 = -304						; size = 4
$T194824 = -300						; size = 16
$T194821 = -284						; size = 4
$T194820 = -280						; size = 4
$T194819 = -276						; size = 4
$T194818 = -272						; size = 4
$T194817 = -268						; size = 4
$T194816 = -264						; size = 4
$T194815 = -260						; size = 4
$T194814 = -256						; size = 4
$T194813 = -252						; size = 4
$T194812 = -248						; size = 4
$T194811 = -244						; size = 4
$T194810 = -240						; size = 4
$T194809 = -236						; size = 16
$T194806 = -220						; size = 16
$T194803 = -204						; size = 16
_ClassName$192020 = -184				; size = 4
_ClassName$192004 = -172				; size = 4
_lClient$ = -160					; size = 16
_lrect$191995 = -136					; size = 16
_tips$191978 = -112					; size = 4
_tips$191968 = -100					; size = 4
_oneSub$191966 = -92					; size = 4
_idx$191962 = -88					; size = 4
_pSub$191961 = -84					; size = 4
_sub_wnd_h$191955 = -80					; size = 4
_sub_wnd_w$191954 = -76					; size = 4
_lClient$191953 = -68					; size = 16
_lrect$191952 = -44					; size = 16
_bSepMode$ = -24					; size = 4
_lbReturn$ = -20					; size = 4
_this$ = -16						; size = 4
__$EHRec$ = -12						; size = 12
_apParent$ = 8						; size = 4
_anID$ = 12						; size = 4
_aPoint$ = 16						; size = 8
?PopSkinWnd@CSkinMgrV1@@UAEHPAVCWnd@@IUtagPOINT@@@Z PROC NEAR ; CSkinMgrV1::PopSkinWnd
; _this$ = ecx

; 115  : {

  006b0	55		 push	 ebp
  006b1	8b ec		 mov	 ebp, esp
  006b3	6a ff		 push	 -1
  006b5	68 00 00 00 00	 push	 __ehhandler$?PopSkinWnd@CSkinMgrV1@@UAEHPAVCWnd@@IUtagPOINT@@@Z
  006ba	64 a1 00 00 00
	00		 mov	 eax, DWORD PTR fs:__except_list
  006c0	50		 push	 eax
  006c1	64 89 25 00 00
	00 00		 mov	 DWORD PTR fs:__except_list, esp
  006c8	81 ec a0 01 00
	00		 sub	 esp, 416		; 000001a0H
  006ce	56		 push	 esi
  006cf	57		 push	 edi
  006d0	51		 push	 ecx
  006d1	8d bd 54 fe ff
	ff		 lea	 edi, DWORD PTR [ebp-428]
  006d7	b9 68 00 00 00	 mov	 ecx, 104		; 00000068H
  006dc	b8 cc cc cc cc	 mov	 eax, -858993460		; ccccccccH
  006e1	f3 ab		 rep stosd
  006e3	59		 pop	 ecx
  006e4	89 4d f0	 mov	 DWORD PTR _this$[ebp], ecx

; 116  : 	BOOL lbReturn = false;

  006e7	c7 45 ec 00 00
	00 00		 mov	 DWORD PTR _lbReturn$[ebp], 0

; 117  : 	BOOL bSepMode = false;

  006ee	c7 45 e8 00 00
	00 00		 mov	 DWORD PTR _bSepMode$[ebp], 0

; 118  : 	if(AfxGetUIManager()->UIGetLayoutMgr()->GetDisplayMode() == DISPLAY_SEPERATE_MODE)

  006f5	e8 00 00 00 00	 call	 ?AfxGetUIManager@@YAPAVIUIManager@@XZ ; AfxGetUIManager
  006fa	89 85 c8 fe ff
	ff		 mov	 DWORD PTR tv66[ebp], eax
  00700	8b 85 c8 fe ff
	ff		 mov	 eax, DWORD PTR tv66[ebp]
  00706	8b 10		 mov	 edx, DWORD PTR [eax]
  00708	8b f4		 mov	 esi, esp
  0070a	8b 8d c8 fe ff
	ff		 mov	 ecx, DWORD PTR tv66[ebp]
  00710	ff 52 24	 call	 DWORD PTR [edx+36]
  00713	3b f4		 cmp	 esi, esp
  00715	e8 00 00 00 00	 call	 __RTC_CheckEsp
  0071a	89 85 c4 fe ff
	ff		 mov	 DWORD PTR tv71[ebp], eax
  00720	8b 85 c4 fe ff
	ff		 mov	 eax, DWORD PTR tv71[ebp]
  00726	8b 10		 mov	 edx, DWORD PTR [eax]
  00728	8b f4		 mov	 esi, esp
  0072a	8b 8d c4 fe ff
	ff		 mov	 ecx, DWORD PTR tv71[ebp]
  00730	ff 52 7c	 call	 DWORD PTR [edx+124]
  00733	3b f4		 cmp	 esi, esp
  00735	e8 00 00 00 00	 call	 __RTC_CheckEsp
  0073a	85 c0		 test	 eax, eax
  0073c	75 14		 jne	 SHORT $L191949

; 119  : 	{
; 120  : 		bSepMode = true;

  0073e	c7 45 e8 01 00
	00 00		 mov	 DWORD PTR _bSepMode$[ebp], 1

; 121  : 		m_iCheckTab = 1;

  00745	8b 45 f0	 mov	 eax, DWORD PTR _this$[ebp]
  00748	c7 80 80 00 00
	00 01 00 00 00	 mov	 DWORD PTR [eax+128], 1
$L191949:

; 122  : 	}
; 123  : 
; 124  : 	if(!mb_HasPopWnd)

  00752	8b 4d f0	 mov	 ecx, DWORD PTR _this$[ebp]
  00755	0f b6 51 48	 movzx	 edx, BYTE PTR [ecx+72]
  00759	85 d2		 test	 edx, edx
  0075b	0f 85 51 07 00
	00		 jne	 $L191950

; 125  : 	{
; 126  : 		if(mb_isDownWebSub)

  00761	8b 45 f0	 mov	 eax, DWORD PTR _this$[ebp]
  00764	0f b6 48 4b	 movzx	 ecx, BYTE PTR [eax+75]
  00768	85 c9		 test	 ecx, ecx
  0076a	74 13		 je	 SHORT $L191951

; 127  : 		{
; 128  : 			CDownSub::StopDownWebSubThread();

  0076c	e8 00 00 00 00	 call	 ?StopDownWebSubThread@CDownSub@@SAXXZ ; CDownSub::StopDownWebSubThread

; 129  : 			mb_isDownWebSub = false;

  00771	8b 55 f0	 mov	 edx, DWORD PTR _this$[ebp]
  00774	c6 42 4b 00	 mov	 BYTE PTR [edx+75], 0

; 130  : 			mb_isDownSubject = false;

  00778	8b 45 f0	 mov	 eax, DWORD PTR _this$[ebp]
  0077b	c6 40 4a 00	 mov	 BYTE PTR [eax+74], 0
$L191951:

; 131  : 		}
; 132  : 
; 133  : 		CRect lrect;

  0077f	8d 4d d4	 lea	 ecx, DWORD PTR _lrect$191952[ebp]
  00782	e8 00 00 00 00	 call	 ??0CRect@@QAE@XZ	; CRect::CRect

; 134  : 		GetSkinWndRect( aPoint,lrect );

  00787	8d 4d d4	 lea	 ecx, DWORD PTR _lrect$191952[ebp]
  0078a	51		 push	 ecx
  0078b	8d 55 10	 lea	 edx, DWORD PTR _aPoint$[ebp]
  0078e	52		 push	 edx
  0078f	8b 4d f0	 mov	 ecx, DWORD PTR _this$[ebp]
  00792	e8 00 00 00 00	 call	 ?GetSkinWndRect@CSkinMgrV1@@QAEXABUtagPOINT@@AAVCRect@@@Z ; CSkinMgrV1::GetSkinWndRect

; 135  : 		// main win
; 136  : 		lbReturn = mp_mainSkinWnd->Create( NULL, NULL, NULL , lrect, apParent);

  00797	8b f4		 mov	 esi, esp
  00799	6a 00		 push	 0
  0079b	6a 00		 push	 0
  0079d	6a 00		 push	 0
  0079f	8b 45 08	 mov	 eax, DWORD PTR _apParent$[ebp]
  007a2	50		 push	 eax
  007a3	8d 4d d4	 lea	 ecx, DWORD PTR _lrect$191952[ebp]
  007a6	51		 push	 ecx
  007a7	6a 00		 push	 0
  007a9	6a 00		 push	 0
  007ab	6a 00		 push	 0
  007ad	8b 55 f0	 mov	 edx, DWORD PTR _this$[ebp]
  007b0	8b 42 10	 mov	 eax, DWORD PTR [edx+16]
  007b3	8b 4d f0	 mov	 ecx, DWORD PTR _this$[ebp]
  007b6	8b 49 10	 mov	 ecx, DWORD PTR [ecx+16]
  007b9	8b 10		 mov	 edx, DWORD PTR [eax]
  007bb	ff 92 38 01 00
	00		 call	 DWORD PTR [edx+312]
  007c1	3b f4		 cmp	 esi, esp
  007c3	e8 00 00 00 00	 call	 __RTC_CheckEsp
  007c8	89 45 ec	 mov	 DWORD PTR _lbReturn$[ebp], eax

; 137  : 		mp_mainSkinWnd->SetCheckBtn(m_iCheckTab);

  007cb	8b 45 f0	 mov	 eax, DWORD PTR _this$[ebp]
  007ce	8b 88 80 00 00
	00		 mov	 ecx, DWORD PTR [eax+128]
  007d4	51		 push	 ecx
  007d5	8b 55 f0	 mov	 edx, DWORD PTR _this$[ebp]
  007d8	8b 4a 10	 mov	 ecx, DWORD PTR [edx+16]
  007db	e8 00 00 00 00	 call	 ?SetCheckBtn@CMainSkinWnd@@QAEXH@Z ; CMainSkinWnd::SetCheckBtn

; 138  : 		mp_mainSkinWnd->SetListener(this);

  007e0	83 7d f0 00	 cmp	 DWORD PTR _this$[ebp], 0
  007e4	74 0e		 je	 SHORT $L194801
  007e6	8b 45 f0	 mov	 eax, DWORD PTR _this$[ebp]
  007e9	83 c0 04	 add	 eax, 4
  007ec	89 85 c0 fe ff
	ff		 mov	 DWORD PTR tv147[ebp], eax
  007f2	eb 0a		 jmp	 SHORT $L194802
$L194801:
  007f4	c7 85 c0 fe ff
	ff 00 00 00 00	 mov	 DWORD PTR tv147[ebp], 0
$L194802:
  007fe	8b 8d c0 fe ff
	ff		 mov	 ecx, DWORD PTR tv147[ebp]
  00804	51		 push	 ecx
  00805	8b 55 f0	 mov	 edx, DWORD PTR _this$[ebp]
  00808	8b 4a 10	 mov	 ecx, DWORD PTR [edx+16]
  0080b	e8 00 00 00 00	 call	 ?SetListener@CMainSkinWnd@@QAEXPAVIEventListener@@@Z ; CMainSkinWnd::SetListener

; 139  : 		mp_mainSkinWnd->SetWndListener(this);

  00810	8b 45 f0	 mov	 eax, DWORD PTR _this$[ebp]
  00813	50		 push	 eax
  00814	8b 4d f0	 mov	 ecx, DWORD PTR _this$[ebp]
  00817	8b 49 10	 mov	 ecx, DWORD PTR [ecx+16]
  0081a	e8 00 00 00 00	 call	 ?SetWndListener@CMainSkinWnd@@QAEXPAVIWndEventListener@@@Z ; CMainSkinWnd::SetWndListener

; 140  : 
; 141  : 		mp_mainSkinWnd->ShowWindow(SW_SHOW);

  0081f	6a 05		 push	 5
  00821	8b 55 f0	 mov	 edx, DWORD PTR _this$[ebp]
  00824	8b 4a 10	 mov	 ecx, DWORD PTR [edx+16]
  00827	e8 00 00 00 00	 call	 ?ShowWindow@CWnd@@QAEHH@Z ; CWnd::ShowWindow

; 142  : 		mp_mainSkinWnd->RedrawWindow(NULL, NULL, RDW_INVALIDATE | RDW_UPDATENOW | RDW_ERASE | RDW_ALLCHILDREN);

  0082c	68 85 01 00 00	 push	 389			; 00000185H
  00831	6a 00		 push	 0
  00833	6a 00		 push	 0
  00835	8b 45 f0	 mov	 eax, DWORD PTR _this$[ebp]
  00838	8b 48 10	 mov	 ecx, DWORD PTR [eax+16]
  0083b	e8 00 00 00 00	 call	 ?RedrawWindow@CWnd@@QAEHPBUtagRECT@@PAVCRgn@@I@Z ; CWnd::RedrawWindow

; 143  : 		RECT lClient;
; 144  : 		GetClientRect(mp_mainSkinWnd->m_hWnd, &lClient);

  00840	8b f4		 mov	 esi, esp
  00842	8d 4d bc	 lea	 ecx, DWORD PTR _lClient$191953[ebp]
  00845	51		 push	 ecx
  00846	8b 55 f0	 mov	 edx, DWORD PTR _this$[ebp]
  00849	8b 42 10	 mov	 eax, DWORD PTR [edx+16]
  0084c	8b 48 20	 mov	 ecx, DWORD PTR [eax+32]
  0084f	51		 push	 ecx
  00850	ff 15 00 00 00
	00		 call	 DWORD PTR __imp__GetClientRect@8
  00856	3b f4		 cmp	 esi, esp
  00858	e8 00 00 00 00	 call	 __RTC_CheckEsp

; 145  : 		
; 146  : 		int sub_wnd_w,sub_wnd_h;
; 147  : 		if(bSepMode)

  0085d	83 7d e8 00	 cmp	 DWORD PTR _bSepMode$[ebp], 0
  00861	74 10		 je	 SHORT $L191956

; 148  : 		{
; 149  : 			sub_wnd_w = 234;

  00863	c7 45 b4 ea 00
	00 00		 mov	 DWORD PTR _sub_wnd_w$191954[ebp], 234 ; 000000eaH

; 150  : 			sub_wnd_h = 132;

  0086a	c7 45 b0 84 00
	00 00		 mov	 DWORD PTR _sub_wnd_h$191955[ebp], 132 ; 00000084H

; 151  : 		}
; 152  : 		else

  00871	eb 0e		 jmp	 SHORT $L191957
$L191956:

; 153  : 		{
; 154  : 			sub_wnd_w = SUB_WND_WIDTH;

  00873	c7 45 b4 27 01
	00 00		 mov	 DWORD PTR _sub_wnd_w$191954[ebp], 295 ; 00000127H

; 155  : 			sub_wnd_h = SUB_WND_HEIGHT;

  0087a	c7 45 b0 cf 00
	00 00		 mov	 DWORD PTR _sub_wnd_h$191955[ebp], 207 ; 000000cfH
$L191957:

; 156  : 		}
; 157  : 
; 158  : 
; 159  : 		// skin win
; 160  : 		lbReturn =  mp_skinWnd->Create(NULL,NULL, WS_VISIBLE|WS_CHILD,CRect(3,27,3+sub_wnd_w,sub_wnd_h+27),mp_mainSkinWnd);

  00881	8b f4		 mov	 esi, esp
  00883	6a 00		 push	 0
  00885	6a 00		 push	 0
  00887	6a 00		 push	 0
  00889	8b 55 f0	 mov	 edx, DWORD PTR _this$[ebp]
  0088c	8b 42 10	 mov	 eax, DWORD PTR [edx+16]
  0088f	50		 push	 eax
  00890	8b 4d b0	 mov	 ecx, DWORD PTR _sub_wnd_h$191955[ebp]
  00893	83 c1 1b	 add	 ecx, 27			; 0000001bH
  00896	51		 push	 ecx
  00897	8b 55 b4	 mov	 edx, DWORD PTR _sub_wnd_w$191954[ebp]
  0089a	83 c2 03	 add	 edx, 3
  0089d	52		 push	 edx
  0089e	6a 1b		 push	 27			; 0000001bH
  008a0	6a 03		 push	 3
  008a2	8d 8d 34 ff ff
	ff		 lea	 ecx, DWORD PTR $T194803[ebp]
  008a8	e8 00 00 00 00	 call	 ??0CRect@@QAE@HHHH@Z	; CRect::CRect
  008ad	50		 push	 eax
  008ae	68 00 00 00 50	 push	 1342177280		; 50000000H
  008b3	6a 00		 push	 0
  008b5	6a 00		 push	 0
  008b7	8b 45 f0	 mov	 eax, DWORD PTR _this$[ebp]
  008ba	8b 48 14	 mov	 ecx, DWORD PTR [eax+20]
  008bd	8b 55 f0	 mov	 edx, DWORD PTR _this$[ebp]
  008c0	8b 42 14	 mov	 eax, DWORD PTR [edx+20]
  008c3	8b 11		 mov	 edx, DWORD PTR [ecx]
  008c5	8b c8		 mov	 ecx, eax
  008c7	ff 92 38 01 00
	00		 call	 DWORD PTR [edx+312]
  008cd	3b f4		 cmp	 esi, esp
  008cf	e8 00 00 00 00	 call	 __RTC_CheckEsp
  008d4	89 45 ec	 mov	 DWORD PTR _lbReturn$[ebp], eax

; 161  : 		mp_skinWnd->InitScrollBar(); 

  008d7	8b 45 f0	 mov	 eax, DWORD PTR _this$[ebp]
  008da	8b 48 14	 mov	 ecx, DWORD PTR [eax+20]
  008dd	e8 00 00 00 00	 call	 ?InitScrollBar@CSkinWnd@@QAEXXZ ; CSkinWnd::InitScrollBar

; 162  : 		mp_skinWnd->SetSendEventListener(this);	

  008e2	83 7d f0 00	 cmp	 DWORD PTR _this$[ebp], 0
  008e6	74 0e		 je	 SHORT $L194804
  008e8	8b 4d f0	 mov	 ecx, DWORD PTR _this$[ebp]
  008eb	83 c1 04	 add	 ecx, 4
  008ee	89 8d bc fe ff
	ff		 mov	 DWORD PTR tv201[ebp], ecx
  008f4	eb 0a		 jmp	 SHORT $L194805
$L194804:
  008f6	c7 85 bc fe ff
	ff 00 00 00 00	 mov	 DWORD PTR tv201[ebp], 0
$L194805:
  00900	8b 95 bc fe ff
	ff		 mov	 edx, DWORD PTR tv201[ebp]
  00906	52		 push	 edx
  00907	8b 45 f0	 mov	 eax, DWORD PTR _this$[ebp]
  0090a	8b 48 14	 mov	 ecx, DWORD PTR [eax+20]
  0090d	e8 00 00 00 00	 call	 ?SetSendEventListener@CSkinWnd@@QAEXPAVIEventListener@@@Z ; CSkinWnd::SetSendEventListener

; 163  : 		mp_skinWnd->ShowWindow(bSepMode); 

  00912	8b 4d e8	 mov	 ecx, DWORD PTR _bSepMode$[ebp]
  00915	51		 push	 ecx
  00916	8b 55 f0	 mov	 edx, DWORD PTR _this$[ebp]
  00919	8b 4a 14	 mov	 ecx, DWORD PTR [edx+20]
  0091c	e8 00 00 00 00	 call	 ?ShowWindow@CSkinWnd@@QAEXH@Z ; CSkinWnd::ShowWindow

; 164  : 
; 165  : 		// subject win
; 166  : 		lbReturn =  mp_SubjectWnd->Create(NULL,NULL, WS_VISIBLE|WS_CHILD,CRect(3,27,3+sub_wnd_w,sub_wnd_h+27),mp_mainSkinWnd);

  00921	8b f4		 mov	 esi, esp
  00923	6a 00		 push	 0
  00925	6a 00		 push	 0
  00927	6a 00		 push	 0
  00929	8b 45 f0	 mov	 eax, DWORD PTR _this$[ebp]
  0092c	8b 48 10	 mov	 ecx, DWORD PTR [eax+16]
  0092f	51		 push	 ecx
  00930	8b 55 b0	 mov	 edx, DWORD PTR _sub_wnd_h$191955[ebp]
  00933	83 c2 1b	 add	 edx, 27			; 0000001bH
  00936	52		 push	 edx
  00937	8b 45 b4	 mov	 eax, DWORD PTR _sub_wnd_w$191954[ebp]
  0093a	83 c0 03	 add	 eax, 3
  0093d	50		 push	 eax
  0093e	6a 1b		 push	 27			; 0000001bH
  00940	6a 03		 push	 3
  00942	8d 8d 24 ff ff
	ff		 lea	 ecx, DWORD PTR $T194806[ebp]
  00948	e8 00 00 00 00	 call	 ??0CRect@@QAE@HHHH@Z	; CRect::CRect
  0094d	50		 push	 eax
  0094e	68 00 00 00 50	 push	 1342177280		; 50000000H
  00953	6a 00		 push	 0
  00955	6a 00		 push	 0
  00957	8b 4d f0	 mov	 ecx, DWORD PTR _this$[ebp]
  0095a	8b 51 18	 mov	 edx, DWORD PTR [ecx+24]
  0095d	8b 45 f0	 mov	 eax, DWORD PTR _this$[ebp]
  00960	8b 48 18	 mov	 ecx, DWORD PTR [eax+24]
  00963	8b 12		 mov	 edx, DWORD PTR [edx]
  00965	ff 92 38 01 00
	00		 call	 DWORD PTR [edx+312]
  0096b	3b f4		 cmp	 esi, esp
  0096d	e8 00 00 00 00	 call	 __RTC_CheckEsp
  00972	89 45 ec	 mov	 DWORD PTR _lbReturn$[ebp], eax

; 167  : 		mp_SubjectWnd->InitScrollBar(); 

  00975	8b 45 f0	 mov	 eax, DWORD PTR _this$[ebp]
  00978	8b 48 18	 mov	 ecx, DWORD PTR [eax+24]
  0097b	e8 00 00 00 00	 call	 ?InitScrollBar@CSubjectChildWnd@@QAEXXZ ; CSubjectChildWnd::InitScrollBar

; 168  : 		mp_SubjectWnd->SetSendEventListener(this);

  00980	83 7d f0 00	 cmp	 DWORD PTR _this$[ebp], 0
  00984	74 0e		 je	 SHORT $L194807
  00986	8b 4d f0	 mov	 ecx, DWORD PTR _this$[ebp]
  00989	83 c1 04	 add	 ecx, 4
  0098c	89 8d b8 fe ff
	ff		 mov	 DWORD PTR tv240[ebp], ecx
  00992	eb 0a		 jmp	 SHORT $L194808
$L194807:
  00994	c7 85 b8 fe ff
	ff 00 00 00 00	 mov	 DWORD PTR tv240[ebp], 0
$L194808:
  0099e	8b 95 b8 fe ff
	ff		 mov	 edx, DWORD PTR tv240[ebp]
  009a4	52		 push	 edx
  009a5	8b 45 f0	 mov	 eax, DWORD PTR _this$[ebp]
  009a8	8b 48 18	 mov	 ecx, DWORD PTR [eax+24]
  009ab	e8 00 00 00 00	 call	 ?SetSendEventListener@CSubjectChildWnd@@QAEXPAVIEventListener@@@Z ; CSubjectChildWnd::SetSendEventListener

; 169  : 		mp_SubjectWnd->ShowWindow(SW_HIDE); 

  009b0	6a 00		 push	 0
  009b2	8b 4d f0	 mov	 ecx, DWORD PTR _this$[ebp]
  009b5	8b 49 18	 mov	 ecx, DWORD PTR [ecx+24]
  009b8	e8 00 00 00 00	 call	 ?ShowWindow@CSubjectChildWnd@@QAEXH@Z ; CSubjectChildWnd::ShowWindow

; 170  : 
; 171  : 		//web subject win
; 172  : 		lbReturn =  mp_WebSubWnd->Create(NULL,NULL, WS_CHILD|WS_VISIBLE|WS_CLIPCHILDREN,CRect(3,27,sub_wnd_w+3,sub_wnd_h+27),mp_mainSkinWnd,ID_WND_WEBSUBJECT);

  009bd	8b f4		 mov	 esi, esp
  009bf	6a 00		 push	 0
  009c1	68 38 27 00 00	 push	 10040			; 00002738H
  009c6	8b 55 f0	 mov	 edx, DWORD PTR _this$[ebp]
  009c9	8b 42 10	 mov	 eax, DWORD PTR [edx+16]
  009cc	50		 push	 eax
  009cd	8b 4d b0	 mov	 ecx, DWORD PTR _sub_wnd_h$191955[ebp]
  009d0	83 c1 1b	 add	 ecx, 27			; 0000001bH
  009d3	51		 push	 ecx
  009d4	8b 55 b4	 mov	 edx, DWORD PTR _sub_wnd_w$191954[ebp]
  009d7	83 c2 03	 add	 edx, 3
  009da	52		 push	 edx
  009db	6a 1b		 push	 27			; 0000001bH
  009dd	6a 03		 push	 3
  009df	8d 8d 14 ff ff
	ff		 lea	 ecx, DWORD PTR $T194809[ebp]
  009e5	e8 00 00 00 00	 call	 ??0CRect@@QAE@HHHH@Z	; CRect::CRect
  009ea	50		 push	 eax
  009eb	68 00 00 00 52	 push	 1375731712		; 52000000H
  009f0	6a 00		 push	 0
  009f2	6a 00		 push	 0
  009f4	8b 45 f0	 mov	 eax, DWORD PTR _this$[ebp]
  009f7	8b 48 1c	 mov	 ecx, DWORD PTR [eax+28]
  009fa	8b 55 f0	 mov	 edx, DWORD PTR _this$[ebp]
  009fd	8b 42 1c	 mov	 eax, DWORD PTR [edx+28]
  00a00	8b 11		 mov	 edx, DWORD PTR [ecx]
  00a02	8b c8		 mov	 ecx, eax
  00a04	ff 52 5c	 call	 DWORD PTR [edx+92]
  00a07	3b f4		 cmp	 esi, esp
  00a09	e8 00 00 00 00	 call	 __RTC_CheckEsp
  00a0e	89 45 ec	 mov	 DWORD PTR _lbReturn$[ebp], eax

; 173  : 		mp_WebSubWnd->Navigate();

  00a11	8b 45 f0	 mov	 eax, DWORD PTR _this$[ebp]
  00a14	8b 48 1c	 mov	 ecx, DWORD PTR [eax+28]
  00a17	e8 00 00 00 00	 call	 ?Navigate@CWebSubWnd@@QAEXXZ ; CWebSubWnd::Navigate

; 174  : 		mp_WebSubWnd->ShowWindow(!bSepMode); 

  00a1c	33 c9		 xor	 ecx, ecx
  00a1e	83 7d e8 00	 cmp	 DWORD PTR _bSepMode$[ebp], 0
  00a22	0f 94 c1	 sete	 cl
  00a25	51		 push	 ecx
  00a26	8b 55 f0	 mov	 edx, DWORD PTR _this$[ebp]
  00a29	8b 4a 1c	 mov	 ecx, DWORD PTR [edx+28]
  00a2c	e8 00 00 00 00	 call	 ?ShowWindow@CWnd@@QAEHH@Z ; CWnd::ShowWindow

; 175  : 
; 176  : 		SubjectData*    pSub = AfxGetUIManager()->UIGetSkinMgr()->GetSubject();

  00a31	e8 00 00 00 00	 call	 ?AfxGetUIManager@@YAPAVIUIManager@@XZ ; AfxGetUIManager
  00a36	89 85 b4 fe ff
	ff		 mov	 DWORD PTR tv281[ebp], eax
  00a3c	8b 85 b4 fe ff
	ff		 mov	 eax, DWORD PTR tv281[ebp]
  00a42	8b 10		 mov	 edx, DWORD PTR [eax]
  00a44	8b f4		 mov	 esi, esp
  00a46	8b 8d b4 fe ff
	ff		 mov	 ecx, DWORD PTR tv281[ebp]
  00a4c	ff 52 28	 call	 DWORD PTR [edx+40]
  00a4f	3b f4		 cmp	 esi, esp
  00a51	e8 00 00 00 00	 call	 __RTC_CheckEsp
  00a56	89 85 b0 fe ff
	ff		 mov	 DWORD PTR tv286[ebp], eax
  00a5c	8b 85 b0 fe ff
	ff		 mov	 eax, DWORD PTR tv286[ebp]
  00a62	8b 10		 mov	 edx, DWORD PTR [eax]
  00a64	8b f4		 mov	 esi, esp
  00a66	8b 8d b0 fe ff
	ff		 mov	 ecx, DWORD PTR tv286[ebp]
  00a6c	ff 52 24	 call	 DWORD PTR [edx+36]
  00a6f	3b f4		 cmp	 esi, esp
  00a71	e8 00 00 00 00	 call	 __RTC_CheckEsp
  00a76	89 45 ac	 mov	 DWORD PTR _pSub$191961[ebp], eax

; 177  : 		for(size_t idx = 0 ;idx < pSub->vecSubject.size();idx++ )

  00a79	c7 45 a8 00 00
	00 00		 mov	 DWORD PTR _idx$191962[ebp], 0
  00a80	eb 09		 jmp	 SHORT $L191963
$L191964:
  00a82	8b 45 a8	 mov	 eax, DWORD PTR _idx$191962[ebp]
  00a85	83 c0 01	 add	 eax, 1
  00a88	89 45 a8	 mov	 DWORD PTR _idx$191962[ebp], eax
$L191963:
  00a8b	8b 4d ac	 mov	 ecx, DWORD PTR _pSub$191961[ebp]
  00a8e	83 c1 20	 add	 ecx, 32			; 00000020H
  00a91	e8 00 00 00 00	 call	 ?size@?$vector@UOneSubject@@V?$allocator@UOneSubject@@@std@@@std@@QBEIXZ ; std::vector<OneSubject,std::allocator<OneSubject> >::size
  00a96	39 45 a8	 cmp	 DWORD PTR _idx$191962[ebp], eax
  00a99	0f 83 4d 03 00
	00		 jae	 $L191965

; 178  : 		{
; 179  : 			OneSubject& oneSub = pSub->vecSubject[idx];			

  00a9f	8b 4d a8	 mov	 ecx, DWORD PTR _idx$191962[ebp]
  00aa2	51		 push	 ecx
  00aa3	8b 4d ac	 mov	 ecx, DWORD PTR _pSub$191961[ebp]
  00aa6	83 c1 20	 add	 ecx, 32			; 00000020H
  00aa9	e8 00 00 00 00	 call	 ??A?$vector@UOneSubject@@V?$allocator@UOneSubject@@@std@@@std@@QAEAAUOneSubject@@I@Z ; std::vector<OneSubject,std::allocator<OneSubject> >::operator[]
  00aae	89 45 a4	 mov	 DWORD PTR _oneSub$191966[ebp], eax

; 180  : 
; 181  : 			if( oneSub.bNeedDown )

  00ab1	8b 55 a4	 mov	 edx, DWORD PTR _oneSub$191966[ebp]
  00ab4	0f b6 42 6c	 movzx	 eax, BYTE PTR [edx+108]
  00ab8	85 c0		 test	 eax, eax
  00aba	0f 84 96 01 00
	00		 je	 $L191967

; 182  : 			{
; 183  : 				CString tips = CString(": ") + oneSub.strShowName.c_str() + "\r\n: ";

  00ac0	8b f4		 mov	 esi, esp
  00ac2	68 00 00 00 00	 push	 OFFSET FLAT:$SG191973
  00ac7	8d 8d 10 ff ff
	ff		 lea	 ecx, DWORD PTR $T194810[ebp]
  00acd	ff 15 00 00 00
	00		 call	 DWORD PTR __imp_??0?$CStringT@DV?$StrTraitMFC_DLL@DV?$ChTraitsCRT@D@ATL@@@@@ATL@@QAE@PBD@Z
  00ad3	3b f4		 cmp	 esi, esp
  00ad5	e8 00 00 00 00	 call	 __RTC_CheckEsp
  00ada	89 85 ac fe ff
	ff		 mov	 DWORD PTR tv711[ebp], eax
  00ae0	8b 8d ac fe ff
	ff		 mov	 ecx, DWORD PTR tv711[ebp]
  00ae6	89 8d a8 fe ff
	ff		 mov	 DWORD PTR tv682[ebp], ecx
  00aec	c7 45 fc 00 00
	00 00		 mov	 DWORD PTR __$EHRec$[ebp+8], 0
  00af3	8b 4d a4	 mov	 ecx, DWORD PTR _oneSub$191966[ebp]
  00af6	83 c1 38	 add	 ecx, 56			; 00000038H
  00af9	8b f4		 mov	 esi, esp
  00afb	ff 15 00 00 00
	00		 call	 DWORD PTR __imp_?c_str@?$basic_string@DU?$char_traits@D@std@@V?$allocator@D@2@@std@@QBEPBDXZ
  00b01	3b f4		 cmp	 esi, esp
  00b03	e8 00 00 00 00	 call	 __RTC_CheckEsp
  00b08	50		 push	 eax
  00b09	8b 95 a8 fe ff
	ff		 mov	 edx, DWORD PTR tv682[ebp]
  00b0f	52		 push	 edx
  00b10	8d 85 0c ff ff
	ff		 lea	 eax, DWORD PTR $T194811[ebp]
  00b16	50		 push	 eax
  00b17	e8 00 00 00 00	 call	 ??HATL@@YA?AV?$CStringT@DV?$StrTraitMFC_DLL@DV?$ChTraitsCRT@D@ATL@@@@@0@ABV10@PBD@Z ; ATL::operator+
  00b1c	83 c4 0c	 add	 esp, 12			; 0000000cH
  00b1f	89 85 a4 fe ff
	ff		 mov	 DWORD PTR tv714[ebp], eax
  00b25	8b 8d a4 fe ff
	ff		 mov	 ecx, DWORD PTR tv714[ebp]
  00b2b	89 8d a0 fe ff
	ff		 mov	 DWORD PTR tv684[ebp], ecx
  00b31	c6 45 fc 01	 mov	 BYTE PTR __$EHRec$[ebp+8], 1
  00b35	68 00 00 00 00	 push	 OFFSET FLAT:$SG191972
  00b3a	8b 95 a0 fe ff
	ff		 mov	 edx, DWORD PTR tv684[ebp]
  00b40	52		 push	 edx
  00b41	8d 45 9c	 lea	 eax, DWORD PTR _tips$191968[ebp]
  00b44	50		 push	 eax
  00b45	e8 00 00 00 00	 call	 ??HATL@@YA?AV?$CStringT@DV?$StrTraitMFC_DLL@DV?$ChTraitsCRT@D@ATL@@@@@0@ABV10@PBD@Z ; ATL::operator+
  00b4a	83 c4 0c	 add	 esp, 12			; 0000000cH
  00b4d	c6 45 fc 04	 mov	 BYTE PTR __$EHRec$[ebp+8], 4
  00b51	8b f4		 mov	 esi, esp
  00b53	8d 8d 0c ff ff
	ff		 lea	 ecx, DWORD PTR $T194811[ebp]
  00b59	ff 15 00 00 00
	00		 call	 DWORD PTR __imp_??1?$CStringT@DV?$StrTraitMFC_DLL@DV?$ChTraitsCRT@D@ATL@@@@@ATL@@QAE@XZ
  00b5f	3b f4		 cmp	 esi, esp
  00b61	e8 00 00 00 00	 call	 __RTC_CheckEsp
  00b66	c6 45 fc 03	 mov	 BYTE PTR __$EHRec$[ebp+8], 3
  00b6a	8b f4		 mov	 esi, esp
  00b6c	8d 8d 10 ff ff
	ff		 lea	 ecx, DWORD PTR $T194810[ebp]
  00b72	ff 15 00 00 00
	00		 call	 DWORD PTR __imp_??1?$CStringT@DV?$StrTraitMFC_DLL@DV?$ChTraitsCRT@D@ATL@@@@@ATL@@QAE@XZ
  00b78	3b f4		 cmp	 esi, esp
  00b7a	e8 00 00 00 00	 call	 __RTC_CheckEsp

; 184  : 				mp_SubjectWnd->SetTipText( oneSub.strSubName.c_str(),tips,oneSub.strShowName.c_str() );

  00b7f	8b 4d a4	 mov	 ecx, DWORD PTR _oneSub$191966[ebp]
  00b82	83 c1 38	 add	 ecx, 56			; 00000038H
  00b85	8b f4		 mov	 esi, esp
  00b87	ff 15 00 00 00
	00		 call	 DWORD PTR __imp_?c_str@?$basic_string@DU?$char_traits@D@std@@V?$allocator@D@2@@std@@QBEPBDXZ
  00b8d	3b f4		 cmp	 esi, esp
  00b8f	e8 00 00 00 00	 call	 __RTC_CheckEsp
  00b94	51		 push	 ecx
  00b95	8b cc		 mov	 ecx, esp
  00b97	89 a5 08 ff ff
	ff		 mov	 DWORD PTR $T194812[ebp], esp
  00b9d	8b f4		 mov	 esi, esp
  00b9f	50		 push	 eax
  00ba0	ff 15 00 00 00
	00		 call	 DWORD PTR __imp_??0?$CStringT@DV?$StrTraitMFC_DLL@DV?$ChTraitsCRT@D@ATL@@@@@ATL@@QAE@PBD@Z
  00ba6	3b f4		 cmp	 esi, esp
  00ba8	e8 00 00 00 00	 call	 __RTC_CheckEsp
  00bad	89 85 9c fe ff
	ff		 mov	 DWORD PTR tv718[ebp], eax
  00bb3	8b 8d 9c fe ff
	ff		 mov	 ecx, DWORD PTR tv718[ebp]
  00bb9	89 8d 98 fe ff
	ff		 mov	 DWORD PTR tv687[ebp], ecx
  00bbf	c6 45 fc 05	 mov	 BYTE PTR __$EHRec$[ebp+8], 5
  00bc3	51		 push	 ecx
  00bc4	8b cc		 mov	 ecx, esp
  00bc6	89 a5 04 ff ff
	ff		 mov	 DWORD PTR $T194813[ebp], esp
  00bcc	8b f4		 mov	 esi, esp
  00bce	8d 55 9c	 lea	 edx, DWORD PTR _tips$191968[ebp]
  00bd1	52		 push	 edx
  00bd2	ff 15 00 00 00
	00		 call	 DWORD PTR __imp_??0?$CStringT@DV?$StrTraitMFC_DLL@DV?$ChTraitsCRT@D@ATL@@@@@ATL@@QAE@ABV01@@Z
  00bd8	3b f4		 cmp	 esi, esp
  00bda	e8 00 00 00 00	 call	 __RTC_CheckEsp
  00bdf	89 85 94 fe ff
	ff		 mov	 DWORD PTR tv721[ebp], eax
  00be5	8b 85 94 fe ff
	ff		 mov	 eax, DWORD PTR tv721[ebp]
  00beb	89 85 90 fe ff
	ff		 mov	 DWORD PTR tv690[ebp], eax
  00bf1	c6 45 fc 06	 mov	 BYTE PTR __$EHRec$[ebp+8], 6
  00bf5	8b 4d a4	 mov	 ecx, DWORD PTR _oneSub$191966[ebp]
  00bf8	83 c1 1c	 add	 ecx, 28			; 0000001cH
  00bfb	8b f4		 mov	 esi, esp
  00bfd	ff 15 00 00 00
	00		 call	 DWORD PTR __imp_?c_str@?$basic_string@DU?$char_traits@D@std@@V?$allocator@D@2@@std@@QBEPBDXZ
  00c03	3b f4		 cmp	 esi, esp
  00c05	e8 00 00 00 00	 call	 __RTC_CheckEsp
  00c0a	51		 push	 ecx
  00c0b	8b cc		 mov	 ecx, esp
  00c0d	89 a5 00 ff ff
	ff		 mov	 DWORD PTR $T194814[ebp], esp
  00c13	8b f4		 mov	 esi, esp
  00c15	50		 push	 eax
  00c16	ff 15 00 00 00
	00		 call	 DWORD PTR __imp_??0?$CStringT@DV?$StrTraitMFC_DLL@DV?$ChTraitsCRT@D@ATL@@@@@ATL@@QAE@PBD@Z
  00c1c	3b f4		 cmp	 esi, esp
  00c1e	e8 00 00 00 00	 call	 __RTC_CheckEsp
  00c23	89 85 8c fe ff
	ff		 mov	 DWORD PTR tv693[ebp], eax
  00c29	8b 4d f0	 mov	 ecx, DWORD PTR _this$[ebp]
  00c2c	8b 49 18	 mov	 ecx, DWORD PTR [ecx+24]
  00c2f	c6 45 fc 03	 mov	 BYTE PTR __$EHRec$[ebp+8], 3
  00c33	e8 00 00 00 00	 call	 ?SetTipText@CSubjectChildWnd@@QAEXV?$CStringT@DV?$StrTraitMFC_DLL@DV?$ChTraitsCRT@D@ATL@@@@@ATL@@00@Z ; CSubjectChildWnd::SetTipText

; 185  : 
; 186  : 			}

  00c38	c7 45 fc ff ff
	ff ff		 mov	 DWORD PTR __$EHRec$[ebp+8], -1
  00c3f	8b f4		 mov	 esi, esp
  00c41	8d 4d 9c	 lea	 ecx, DWORD PTR _tips$191968[ebp]
  00c44	ff 15 00 00 00
	00		 call	 DWORD PTR __imp_??1?$CStringT@DV?$StrTraitMFC_DLL@DV?$ChTraitsCRT@D@ATL@@@@@ATL@@QAE@XZ
  00c4a	3b f4		 cmp	 esi, esp
  00c4c	e8 00 00 00 00	 call	 __RTC_CheckEsp

; 187  : 			else

  00c51	e9 91 01 00 00	 jmp	 $L191977
$L191967:

; 188  : 			{
; 189  : 				CString tips = CString(": ") + oneSub.strShowName.c_str() + "\r\n: ";

  00c56	8b f4		 mov	 esi, esp
  00c58	68 00 00 00 00	 push	 OFFSET FLAT:$SG191983
  00c5d	8d 8d fc fe ff
	ff		 lea	 ecx, DWORD PTR $T194815[ebp]
  00c63	ff 15 00 00 00
	00		 call	 DWORD PTR __imp_??0?$CStringT@DV?$StrTraitMFC_DLL@DV?$ChTraitsCRT@D@ATL@@@@@ATL@@QAE@PBD@Z
  00c69	3b f4		 cmp	 esi, esp
  00c6b	e8 00 00 00 00	 call	 __RTC_CheckEsp
  00c70	89 85 88 fe ff
	ff		 mov	 DWORD PTR tv724[ebp], eax
  00c76	8b 95 88 fe ff
	ff		 mov	 edx, DWORD PTR tv724[ebp]
  00c7c	89 95 84 fe ff
	ff		 mov	 DWORD PTR tv695[ebp], edx
  00c82	c7 45 fc 07 00
	00 00		 mov	 DWORD PTR __$EHRec$[ebp+8], 7
  00c89	8b 4d a4	 mov	 ecx, DWORD PTR _oneSub$191966[ebp]
  00c8c	83 c1 38	 add	 ecx, 56			; 00000038H
  00c8f	8b f4		 mov	 esi, esp
  00c91	ff 15 00 00 00
	00		 call	 DWORD PTR __imp_?c_str@?$basic_string@DU?$char_traits@D@std@@V?$allocator@D@2@@std@@QBEPBDXZ
  00c97	3b f4		 cmp	 esi, esp
  00c99	e8 00 00 00 00	 call	 __RTC_CheckEsp
  00c9e	50		 push	 eax
  00c9f	8b 85 84 fe ff
	ff		 mov	 eax, DWORD PTR tv695[ebp]
  00ca5	50		 push	 eax
  00ca6	8d 8d f8 fe ff
	ff		 lea	 ecx, DWORD PTR $T194816[ebp]
  00cac	51		 push	 ecx
  00cad	e8 00 00 00 00	 call	 ??HATL@@YA?AV?$CStringT@DV?$StrTraitMFC_DLL@DV?$ChTraitsCRT@D@ATL@@@@@0@ABV10@PBD@Z ; ATL::operator+
  00cb2	83 c4 0c	 add	 esp, 12			; 0000000cH
  00cb5	89 85 80 fe ff
	ff		 mov	 DWORD PTR tv727[ebp], eax
  00cbb	8b 95 80 fe ff
	ff		 mov	 edx, DWORD PTR tv727[ebp]
  00cc1	89 95 7c fe ff
	ff		 mov	 DWORD PTR tv697[ebp], edx
  00cc7	c6 45 fc 08	 mov	 BYTE PTR __$EHRec$[ebp+8], 8
  00ccb	68 00 00 00 00	 push	 OFFSET FLAT:$SG191982
  00cd0	8b 85 7c fe ff
	ff		 mov	 eax, DWORD PTR tv697[ebp]
  00cd6	50		 push	 eax
  00cd7	8d 4d 90	 lea	 ecx, DWORD PTR _tips$191978[ebp]
  00cda	51		 push	 ecx
  00cdb	e8 00 00 00 00	 call	 ??HATL@@YA?AV?$CStringT@DV?$StrTraitMFC_DLL@DV?$ChTraitsCRT@D@ATL@@@@@0@ABV10@PBD@Z ; ATL::operator+
  00ce0	83 c4 0c	 add	 esp, 12			; 0000000cH
  00ce3	c6 45 fc 0b	 mov	 BYTE PTR __$EHRec$[ebp+8], 11 ; 0000000bH
  00ce7	8b f4		 mov	 esi, esp
  00ce9	8d 8d f8 fe ff
	ff		 lea	 ecx, DWORD PTR $T194816[ebp]
  00cef	ff 15 00 00 00
	00		 call	 DWORD PTR __imp_??1?$CStringT@DV?$StrTraitMFC_DLL@DV?$ChTraitsCRT@D@ATL@@@@@ATL@@QAE@XZ
  00cf5	3b f4		 cmp	 esi, esp
  00cf7	e8 00 00 00 00	 call	 __RTC_CheckEsp
  00cfc	c6 45 fc 0a	 mov	 BYTE PTR __$EHRec$[ebp+8], 10 ; 0000000aH
  00d00	8b f4		 mov	 esi, esp
  00d02	8d 8d fc fe ff
	ff		 lea	 ecx, DWORD PTR $T194815[ebp]
  00d08	ff 15 00 00 00
	00		 call	 DWORD PTR __imp_??1?$CStringT@DV?$StrTraitMFC_DLL@DV?$ChTraitsCRT@D@ATL@@@@@ATL@@QAE@XZ
  00d0e	3b f4		 cmp	 esi, esp
  00d10	e8 00 00 00 00	 call	 __RTC_CheckEsp

; 190  : 				mp_SubjectWnd->SetTipText( oneSub.strSubName.c_str(),tips,oneSub.strShowName.c_str());

  00d15	8b 4d a4	 mov	 ecx, DWORD PTR _oneSub$191966[ebp]
  00d18	83 c1 38	 add	 ecx, 56			; 00000038H
  00d1b	8b f4		 mov	 esi, esp
  00d1d	ff 15 00 00 00
	00		 call	 DWORD PTR __imp_?c_str@?$basic_string@DU?$char_traits@D@std@@V?$allocator@D@2@@std@@QBEPBDXZ
  00d23	3b f4		 cmp	 esi, esp
  00d25	e8 00 00 00 00	 call	 __RTC_CheckEsp
  00d2a	51		 push	 ecx
  00d2b	8b cc		 mov	 ecx, esp
  00d2d	89 a5 f4 fe ff
	ff		 mov	 DWORD PTR $T194817[ebp], esp
  00d33	8b f4		 mov	 esi, esp
  00d35	50		 push	 eax
  00d36	ff 15 00 00 00
	00		 call	 DWORD PTR __imp_??0?$CStringT@DV?$StrTraitMFC_DLL@DV?$ChTraitsCRT@D@ATL@@@@@ATL@@QAE@PBD@Z
  00d3c	3b f4		 cmp	 esi, esp
  00d3e	e8 00 00 00 00	 call	 __RTC_CheckEsp
  00d43	89 85 78 fe ff
	ff		 mov	 DWORD PTR tv731[ebp], eax
  00d49	8b 95 78 fe ff
	ff		 mov	 edx, DWORD PTR tv731[ebp]
  00d4f	89 95 74 fe ff
	ff		 mov	 DWORD PTR tv700[ebp], edx
  00d55	c6 45 fc 0c	 mov	 BYTE PTR __$EHRec$[ebp+8], 12 ; 0000000cH
  00d59	51		 push	 ecx
  00d5a	8b cc		 mov	 ecx, esp
  00d5c	89 a5 f0 fe ff
	ff		 mov	 DWORD PTR $T194818[ebp], esp
  00d62	8b f4		 mov	 esi, esp
  00d64	8d 45 90	 lea	 eax, DWORD PTR _tips$191978[ebp]
  00d67	50		 push	 eax
  00d68	ff 15 00 00 00
	00		 call	 DWORD PTR __imp_??0?$CStringT@DV?$StrTraitMFC_DLL@DV?$ChTraitsCRT@D@ATL@@@@@ATL@@QAE@ABV01@@Z
  00d6e	3b f4		 cmp	 esi, esp
  00d70	e8 00 00 00 00	 call	 __RTC_CheckEsp
  00d75	89 85 70 fe ff
	ff		 mov	 DWORD PTR tv734[ebp], eax
  00d7b	8b 8d 70 fe ff
	ff		 mov	 ecx, DWORD PTR tv734[ebp]
  00d81	89 8d 6c fe ff
	ff		 mov	 DWORD PTR tv703[ebp], ecx
  00d87	c6 45 fc 0d	 mov	 BYTE PTR __$EHRec$[ebp+8], 13 ; 0000000dH
  00d8b	8b 4d a4	 mov	 ecx, DWORD PTR _oneSub$191966[ebp]
  00d8e	83 c1 1c	 add	 ecx, 28			; 0000001cH
  00d91	8b f4		 mov	 esi, esp
  00d93	ff 15 00 00 00
	00		 call	 DWORD PTR __imp_?c_str@?$basic_string@DU?$char_traits@D@std@@V?$allocator@D@2@@std@@QBEPBDXZ
  00d99	3b f4		 cmp	 esi, esp
  00d9b	e8 00 00 00 00	 call	 __RTC_CheckEsp
  00da0	51		 push	 ecx
  00da1	8b cc		 mov	 ecx, esp
  00da3	89 a5 ec fe ff
	ff		 mov	 DWORD PTR $T194819[ebp], esp
  00da9	8b f4		 mov	 esi, esp
  00dab	50		 push	 eax
  00dac	ff 15 00 00 00
	00		 call	 DWORD PTR __imp_??0?$CStringT@DV?$StrTraitMFC_DLL@DV?$ChTraitsCRT@D@ATL@@@@@ATL@@QAE@PBD@Z
  00db2	3b f4		 cmp	 esi, esp
  00db4	e8 00 00 00 00	 call	 __RTC_CheckEsp
  00db9	89 85 68 fe ff
	ff		 mov	 DWORD PTR tv706[ebp], eax
  00dbf	8b 55 f0	 mov	 edx, DWORD PTR _this$[ebp]
  00dc2	8b 4a 18	 mov	 ecx, DWORD PTR [edx+24]
  00dc5	c6 45 fc 0a	 mov	 BYTE PTR __$EHRec$[ebp+8], 10 ; 0000000aH
  00dc9	e8 00 00 00 00	 call	 ?SetTipText@CSubjectChildWnd@@QAEXV?$CStringT@DV?$StrTraitMFC_DLL@DV?$ChTraitsCRT@D@ATL@@@@@ATL@@00@Z ; CSubjectChildWnd::SetTipText

; 191  : 			}

  00dce	c7 45 fc ff ff
	ff ff		 mov	 DWORD PTR __$EHRec$[ebp+8], -1
  00dd5	8b f4		 mov	 esi, esp
  00dd7	8d 4d 90	 lea	 ecx, DWORD PTR _tips$191978[ebp]
  00dda	ff 15 00 00 00
	00		 call	 DWORD PTR __imp_??1?$CStringT@DV?$StrTraitMFC_DLL@DV?$ChTraitsCRT@D@ATL@@@@@ATL@@QAE@XZ
  00de0	3b f4		 cmp	 esi, esp
  00de2	e8 00 00 00 00	 call	 __RTC_CheckEsp
$L191977:

; 192  : 		}

  00de7	e9 96 fc ff ff	 jmp	 $L191964
$L191965:

; 193  : 
; 194  : 	
; 195  : 		switch(m_iCheckTab)

  00dec	8b 45 f0	 mov	 eax, DWORD PTR _this$[ebp]
  00def	8b 88 80 00 00
	00		 mov	 ecx, DWORD PTR [eax+128]
  00df5	89 8d 64 fe ff
	ff		 mov	 DWORD PTR tv439[ebp], ecx
  00dfb	83 bd 64 fe ff
	ff 00		 cmp	 DWORD PTR tv439[ebp], 0
  00e02	74 17		 je	 SHORT $L191991
  00e04	83 bd 64 fe ff
	ff 01		 cmp	 DWORD PTR tv439[ebp], 1
  00e0b	74 3e		 je	 SHORT $L191992
  00e0d	83 bd 64 fe ff
	ff 02		 cmp	 DWORD PTR tv439[ebp], 2
  00e14	74 65		 je	 SHORT $L191993
  00e16	e9 8e 00 00 00	 jmp	 $L191988
$L191991:

; 196  : 		{
; 197  : 		case 0:
; 198  : 			mp_skinWnd->ShowWindow(SW_HIDE);

  00e1b	6a 00		 push	 0
  00e1d	8b 55 f0	 mov	 edx, DWORD PTR _this$[ebp]
  00e20	8b 4a 14	 mov	 ecx, DWORD PTR [edx+20]
  00e23	e8 00 00 00 00	 call	 ?ShowWindow@CSkinWnd@@QAEXH@Z ; CSkinWnd::ShowWindow

; 199  : 			mp_SubjectWnd->ShowWindow(SW_SHOW);

  00e28	6a 05		 push	 5
  00e2a	8b 45 f0	 mov	 eax, DWORD PTR _this$[ebp]
  00e2d	8b 48 18	 mov	 ecx, DWORD PTR [eax+24]
  00e30	e8 00 00 00 00	 call	 ?ShowWindow@CSubjectChildWnd@@QAEXH@Z ; CSubjectChildWnd::ShowWindow

; 200  : 			mp_WebSubWnd->ShowWindow(SW_HIDE);

  00e35	6a 00		 push	 0
  00e37	8b 4d f0	 mov	 ecx, DWORD PTR _this$[ebp]
  00e3a	8b 49 1c	 mov	 ecx, DWORD PTR [ecx+28]
  00e3d	e8 00 00 00 00	 call	 ?ShowWindow@CWnd@@QAEHH@Z ; CWnd::ShowWindow

; 201  : 			m_bShowSkinWnd = FALSE;

  00e42	8b 55 f0	 mov	 edx, DWORD PTR _this$[ebp]
  00e45	c6 42 64 00	 mov	 BYTE PTR [edx+100], 0

; 202  : 			break;

  00e49	eb 5e		 jmp	 SHORT $L191988
$L191992:

; 203  : 		case 1:
; 204  : 			mp_skinWnd->ShowWindow(SW_SHOW);

  00e4b	6a 05		 push	 5
  00e4d	8b 45 f0	 mov	 eax, DWORD PTR _this$[ebp]
  00e50	8b 48 14	 mov	 ecx, DWORD PTR [eax+20]
  00e53	e8 00 00 00 00	 call	 ?ShowWindow@CSkinWnd@@QAEXH@Z ; CSkinWnd::ShowWindow

; 205  : 			mp_SubjectWnd->ShowWindow(SW_HIDE);

  00e58	6a 00		 push	 0
  00e5a	8b 4d f0	 mov	 ecx, DWORD PTR _this$[ebp]
  00e5d	8b 49 18	 mov	 ecx, DWORD PTR [ecx+24]
  00e60	e8 00 00 00 00	 call	 ?ShowWindow@CSubjectChildWnd@@QAEXH@Z ; CSubjectChildWnd::ShowWindow

; 206  : 			mp_WebSubWnd->ShowWindow(SW_HIDE);

  00e65	6a 00		 push	 0
  00e67	8b 55 f0	 mov	 edx, DWORD PTR _this$[ebp]
  00e6a	8b 4a 1c	 mov	 ecx, DWORD PTR [edx+28]
  00e6d	e8 00 00 00 00	 call	 ?ShowWindow@CWnd@@QAEHH@Z ; CWnd::ShowWindow

; 207  : 			m_bShowSkinWnd = TRUE;

  00e72	8b 45 f0	 mov	 eax, DWORD PTR _this$[ebp]
  00e75	c6 40 64 01	 mov	 BYTE PTR [eax+100], 1

; 208  : 			break;

  00e79	eb 2e		 jmp	 SHORT $L191988
$L191993:

; 209  : 		case 2:
; 210  : 			mp_skinWnd->ShowWindow(SW_HIDE);

  00e7b	6a 00		 push	 0
  00e7d	8b 4d f0	 mov	 ecx, DWORD PTR _this$[ebp]
  00e80	8b 49 14	 mov	 ecx, DWORD PTR [ecx+20]
  00e83	e8 00 00 00 00	 call	 ?ShowWindow@CSkinWnd@@QAEXH@Z ; CSkinWnd::ShowWindow

; 211  : 			mp_SubjectWnd->ShowWindow(SW_HIDE);

  00e88	6a 00		 push	 0
  00e8a	8b 55 f0	 mov	 edx, DWORD PTR _this$[ebp]
  00e8d	8b 4a 18	 mov	 ecx, DWORD PTR [edx+24]
  00e90	e8 00 00 00 00	 call	 ?ShowWindow@CSubjectChildWnd@@QAEXH@Z ; CSubjectChildWnd::ShowWindow

; 212  : 			mp_WebSubWnd->ShowWindow(SW_SHOW);

  00e95	6a 05		 push	 5
  00e97	8b 45 f0	 mov	 eax, DWORD PTR _this$[ebp]
  00e9a	8b 48 1c	 mov	 ecx, DWORD PTR [eax+28]
  00e9d	e8 00 00 00 00	 call	 ?ShowWindow@CWnd@@QAEHH@Z ; CWnd::ShowWindow

; 213  : 			m_bShowSkinWnd = FALSE;

  00ea2	8b 4d f0	 mov	 ecx, DWORD PTR _this$[ebp]
  00ea5	c6 41 64 00	 mov	 BYTE PTR [ecx+100], 0
$L191988:

; 214  : 			break;		
; 215  : 		}	
; 216  : 
; 217  : 
; 218  : 		mb_HasPopWnd	= true;

  00ea9	8b 55 f0	 mov	 edx, DWORD PTR _this$[ebp]
  00eac	c6 42 48 01	 mov	 BYTE PTR [edx+72], 1

; 219  : 		//m_bShowSkinWnd	= (AfxGetUIManager()->UIGetLayoutMgr()->GetDisplayMode() == DISPLAY_SEPERATE_MODE );		
; 220  : 	}
; 221  : 	else

  00eb0	eb 57		 jmp	 SHORT $L191994
$L191950:

; 222  : 	{
; 223  : 		CRect lrect;

  00eb2	8d 8d 78 ff ff
	ff		 lea	 ecx, DWORD PTR _lrect$191995[ebp]
  00eb8	e8 00 00 00 00	 call	 ??0CRect@@QAE@XZ	; CRect::CRect

; 224  : 		GetSkinWndRect( aPoint,lrect );

  00ebd	8d 85 78 ff ff
	ff		 lea	 eax, DWORD PTR _lrect$191995[ebp]
  00ec3	50		 push	 eax
  00ec4	8d 4d 10	 lea	 ecx, DWORD PTR _aPoint$[ebp]
  00ec7	51		 push	 ecx
  00ec8	8b 4d f0	 mov	 ecx, DWORD PTR _this$[ebp]
  00ecb	e8 00 00 00 00	 call	 ?GetSkinWndRect@CSkinMgrV1@@QAEXABUtagPOINT@@AAVCRect@@@Z ; CSkinMgrV1::GetSkinWndRect

; 225  : 
; 226  : 		mp_mainSkinWnd->MoveWindow(&lrect,true);

  00ed0	6a 01		 push	 1
  00ed2	8d 95 78 ff ff
	ff		 lea	 edx, DWORD PTR _lrect$191995[ebp]
  00ed8	52		 push	 edx
  00ed9	8b 45 f0	 mov	 eax, DWORD PTR _this$[ebp]
  00edc	8b 48 10	 mov	 ecx, DWORD PTR [eax+16]
  00edf	e8 00 00 00 00	 call	 ?MoveWindow@CWnd@@QAEXPBUtagRECT@@H@Z ; CWnd::MoveWindow

; 227  : 		SetWindowPos(mp_mainSkinWnd->m_hWnd,HWND_TOP,0,0,0,0,SWP_NOACTIVATE|SWP_NOSIZE|SWP_NOMOVE);

  00ee4	8b f4		 mov	 esi, esp
  00ee6	6a 13		 push	 19			; 00000013H
  00ee8	6a 00		 push	 0
  00eea	6a 00		 push	 0
  00eec	6a 00		 push	 0
  00eee	6a 00		 push	 0
  00ef0	6a 00		 push	 0
  00ef2	8b 4d f0	 mov	 ecx, DWORD PTR _this$[ebp]
  00ef5	8b 51 10	 mov	 edx, DWORD PTR [ecx+16]
  00ef8	8b 42 20	 mov	 eax, DWORD PTR [edx+32]
  00efb	50		 push	 eax
  00efc	ff 15 00 00 00
	00		 call	 DWORD PTR __imp__SetWindowPos@28
  00f02	3b f4		 cmp	 esi, esp
  00f04	e8 00 00 00 00	 call	 __RTC_CheckEsp
$L191994:

; 228  : 	}
; 229  : 	
; 230  : 	//
; 231  : 	if(!mp_downloadSkin )

  00f09	8b 4d f0	 mov	 ecx, DWORD PTR _this$[ebp]
  00f0c	83 79 20 00	 cmp	 DWORD PTR [ecx+32], 0
  00f10	75 5c		 jne	 SHORT $L191997

; 232  : 	{
; 233  : 		mp_downloadSkin = new CDownloadPercentWnd;

  00f12	68 30 02 00 00	 push	 560			; 00000230H
  00f17	e8 00 00 00 00	 call	 ??2CObject@@SGPAXI@Z	; CObject::operator new
  00f1c	89 85 e4 fe ff
	ff		 mov	 DWORD PTR $T194821[ebp], eax
  00f22	c7 45 fc 0e 00
	00 00		 mov	 DWORD PTR __$EHRec$[ebp+8], 14 ; 0000000eH
  00f29	83 bd e4 fe ff
	ff 00		 cmp	 DWORD PTR $T194821[ebp], 0
  00f30	74 13		 je	 SHORT $L194822
  00f32	8b 8d e4 fe ff
	ff		 mov	 ecx, DWORD PTR $T194821[ebp]
  00f38	e8 00 00 00 00	 call	 ??0CDownloadPercentWnd@@QAE@XZ ; CDownloadPercentWnd::CDownloadPercentWnd
  00f3d	89 85 60 fe ff
	ff		 mov	 DWORD PTR tv511[ebp], eax
  00f43	eb 0a		 jmp	 SHORT $L194823
$L194822:
  00f45	c7 85 60 fe ff
	ff 00 00 00 00	 mov	 DWORD PTR tv511[ebp], 0
$L194823:
  00f4f	8b 95 60 fe ff
	ff		 mov	 edx, DWORD PTR tv511[ebp]
  00f55	89 95 e8 fe ff
	ff		 mov	 DWORD PTR $T194820[ebp], edx
  00f5b	c7 45 fc ff ff
	ff ff		 mov	 DWORD PTR __$EHRec$[ebp+8], -1
  00f62	8b 45 f0	 mov	 eax, DWORD PTR _this$[ebp]
  00f65	8b 8d e8 fe ff
	ff		 mov	 ecx, DWORD PTR $T194820[ebp]
  00f6b	89 48 20	 mov	 DWORD PTR [eax+32], ecx
$L191997:

; 234  : 	}
; 235  : 	CRect lClient;

  00f6e	8d 8d 60 ff ff
	ff		 lea	 ecx, DWORD PTR _lClient$[ebp]
  00f74	e8 00 00 00 00	 call	 ??0CRect@@QAE@XZ	; CRect::CRect

; 236  : 	lClient.SetRect(3,235,297,285);

  00f79	68 1d 01 00 00	 push	 285			; 0000011dH
  00f7e	68 29 01 00 00	 push	 297			; 00000129H
  00f83	68 eb 00 00 00	 push	 235			; 000000ebH
  00f88	6a 03		 push	 3
  00f8a	8d 8d 60 ff ff
	ff		 lea	 ecx, DWORD PTR _lClient$[ebp]
  00f90	e8 00 00 00 00	 call	 ?SetRect@CRect@@QAEXHHHH@Z ; CRect::SetRect

; 237  : 
; 238  : 	if( mp_downloadSkin->m_hWnd == NULL )

  00f95	8b 55 f0	 mov	 edx, DWORD PTR _this$[ebp]
  00f98	8b 42 20	 mov	 eax, DWORD PTR [edx+32]
  00f9b	83 78 20 00	 cmp	 DWORD PTR [eax+32], 0
  00f9f	0f 85 69 01 00
	00		 jne	 $L192003

; 239  : 	{
; 240  : 		CString ClassName   = ::AfxRegisterWndClass(CS_CLASSDC,::LoadCursor(NULL,IDC_ARROW),NULL,NULL);   

  00fa5	6a 00		 push	 0
  00fa7	6a 00		 push	 0
  00fa9	8b f4		 mov	 esi, esp
  00fab	68 00 7f 00 00	 push	 32512			; 00007f00H
  00fb0	6a 00		 push	 0
  00fb2	ff 15 00 00 00
	00		 call	 DWORD PTR __imp__LoadCursorA@8
  00fb8	3b f4		 cmp	 esi, esp
  00fba	e8 00 00 00 00	 call	 __RTC_CheckEsp
  00fbf	50		 push	 eax
  00fc0	6a 40		 push	 64			; 00000040H
  00fc2	e8 00 00 00 00	 call	 ?AfxRegisterWndClass@@YGPBDIPAUHICON__@@PAUHBRUSH__@@0@Z ; AfxRegisterWndClass
  00fc7	8b f4		 mov	 esi, esp
  00fc9	50		 push	 eax
  00fca	8d 8d 54 ff ff
	ff		 lea	 ecx, DWORD PTR _ClassName$192004[ebp]
  00fd0	ff 15 00 00 00
	00		 call	 DWORD PTR __imp_??0?$CStringT@DV?$StrTraitMFC_DLL@DV?$ChTraitsCRT@D@ATL@@@@@ATL@@QAE@PBD@Z
  00fd6	3b f4		 cmp	 esi, esp
  00fd8	e8 00 00 00 00	 call	 __RTC_CheckEsp
  00fdd	c7 45 fc 0f 00
	00 00		 mov	 DWORD PTR __$EHRec$[ebp+8], 15 ; 0000000fH

; 241  : 		if( AfxGetUIManager()->UIGetLayoutMgr()->GetDisplayMode() == DISPLAY_SEPERATE_MODE )

  00fe4	e8 00 00 00 00	 call	 ?AfxGetUIManager@@YAPAVIUIManager@@XZ ; AfxGetUIManager
  00fe9	89 85 5c fe ff
	ff		 mov	 DWORD PTR tv566[ebp], eax
  00fef	8b 8d 5c fe ff
	ff		 mov	 ecx, DWORD PTR tv566[ebp]
  00ff5	8b 11		 mov	 edx, DWORD PTR [ecx]
  00ff7	8b f4		 mov	 esi, esp
  00ff9	8b 8d 5c fe ff
	ff		 mov	 ecx, DWORD PTR tv566[ebp]
  00fff	ff 52 24	 call	 DWORD PTR [edx+36]
  01002	3b f4		 cmp	 esi, esp
  01004	e8 00 00 00 00	 call	 __RTC_CheckEsp
  01009	89 85 58 fe ff
	ff		 mov	 DWORD PTR tv571[ebp], eax
  0100f	8b 85 58 fe ff
	ff		 mov	 eax, DWORD PTR tv571[ebp]
  01015	8b 10		 mov	 edx, DWORD PTR [eax]
  01017	8b f4		 mov	 esi, esp
  01019	8b 8d 58 fe ff
	ff		 mov	 ecx, DWORD PTR tv571[ebp]
  0101f	ff 52 7c	 call	 DWORD PTR [edx+124]
  01022	3b f4		 cmp	 esi, esp
  01024	e8 00 00 00 00	 call	 __RTC_CheckEsp
  01029	85 c0		 test	 eax, eax
  0102b	75 78		 jne	 SHORT $L192008

; 242  : 		{
; 243  : 			mp_downloadSkin->CreateEx( 0,ClassName,NULL,  WS_CHILD,CRect( lClient.left,lClient.top,lClient.left+220,lClient.top+30),mp_mainSkinWnd,0);		

  0102d	8b f4		 mov	 esi, esp
  0102f	6a 00		 push	 0
  01031	6a 00		 push	 0
  01033	8b 45 f0	 mov	 eax, DWORD PTR _this$[ebp]
  01036	8b 48 10	 mov	 ecx, DWORD PTR [eax+16]
  01039	51		 push	 ecx
  0103a	8b 95 64 ff ff
	ff		 mov	 edx, DWORD PTR _lClient$[ebp+4]
  01040	83 c2 1e	 add	 edx, 30			; 0000001eH
  01043	52		 push	 edx
  01044	8b 85 60 ff ff
	ff		 mov	 eax, DWORD PTR _lClient$[ebp]
  0104a	05 dc 00 00 00	 add	 eax, 220		; 000000dcH
  0104f	50		 push	 eax
  01050	8b 8d 64 ff ff
	ff		 mov	 ecx, DWORD PTR _lClient$[ebp+4]
  01056	51		 push	 ecx
  01057	8b 95 60 ff ff
	ff		 mov	 edx, DWORD PTR _lClient$[ebp]
  0105d	52		 push	 edx
  0105e	8d 8d d4 fe ff
	ff		 lea	 ecx, DWORD PTR $T194824[ebp]
  01064	e8 00 00 00 00	 call	 ??0CRect@@QAE@HHHH@Z	; CRect::CRect
  01069	50		 push	 eax
  0106a	68 00 00 00 40	 push	 1073741824		; 40000000H
  0106f	6a 00		 push	 0
  01071	8b fc		 mov	 edi, esp
  01073	8d 8d 54 ff ff
	ff		 lea	 ecx, DWORD PTR _ClassName$192004[ebp]
  01079	ff 15 00 00 00
	00		 call	 DWORD PTR __imp_??B?$CSimpleStringT@D$00@ATL@@QBEPBDXZ
  0107f	3b fc		 cmp	 edi, esp
  01081	e8 00 00 00 00	 call	 __RTC_CheckEsp
  01086	50		 push	 eax
  01087	6a 00		 push	 0
  01089	8b 45 f0	 mov	 eax, DWORD PTR _this$[ebp]
  0108c	8b 48 20	 mov	 ecx, DWORD PTR [eax+32]
  0108f	8b 55 f0	 mov	 edx, DWORD PTR _this$[ebp]
  01092	8b 42 20	 mov	 eax, DWORD PTR [edx+32]
  01095	8b 11		 mov	 edx, DWORD PTR [ecx]
  01097	8b c8		 mov	 ecx, eax
  01099	ff 52 60	 call	 DWORD PTR [edx+96]
  0109c	3b f4		 cmp	 esi, esp
  0109e	e8 00 00 00 00	 call	 __RTC_CheckEsp

; 244  : 		}
; 245  : 		else

  010a3	eb 4d		 jmp	 SHORT $L192010
$L192008:

; 246  : 		{
; 247  : 			mp_downloadSkin->CreateEx( 0,ClassName,NULL,  WS_CHILD,lClient,mp_mainSkinWnd,0);		

  010a5	8b f4		 mov	 esi, esp
  010a7	6a 00		 push	 0
  010a9	6a 00		 push	 0
  010ab	8b 45 f0	 mov	 eax, DWORD PTR _this$[ebp]
  010ae	8b 48 10	 mov	 ecx, DWORD PTR [eax+16]
  010b1	51		 push	 ecx
  010b2	8d 95 60 ff ff
	ff		 lea	 edx, DWORD PTR _lClient$[ebp]
  010b8	52		 push	 edx
  010b9	68 00 00 00 40	 push	 1073741824		; 40000000H
  010be	6a 00		 push	 0
  010c0	8b fc		 mov	 edi, esp
  010c2	8d 8d 54 ff ff
	ff		 lea	 ecx, DWORD PTR _ClassName$192004[ebp]
  010c8	ff 15 00 00 00
	00		 call	 DWORD PTR __imp_??B?$CSimpleStringT@D$00@ATL@@QBEPBDXZ
  010ce	3b fc		 cmp	 edi, esp
  010d0	e8 00 00 00 00	 call	 __RTC_CheckEsp
  010d5	50		 push	 eax
  010d6	6a 00		 push	 0
  010d8	8b 45 f0	 mov	 eax, DWORD PTR _this$[ebp]
  010db	8b 48 20	 mov	 ecx, DWORD PTR [eax+32]
  010de	8b 55 f0	 mov	 edx, DWORD PTR _this$[ebp]
  010e1	8b 42 20	 mov	 eax, DWORD PTR [edx+32]
  010e4	8b 11		 mov	 edx, DWORD PTR [ecx]
  010e6	8b c8		 mov	 ecx, eax
  010e8	ff 52 60	 call	 DWORD PTR [edx+96]
  010eb	3b f4		 cmp	 esi, esp
  010ed	e8 00 00 00 00	 call	 __RTC_CheckEsp
$L192010:

; 248  : 		}
; 249  : 	}

  010f2	c7 45 fc ff ff
	ff ff		 mov	 DWORD PTR __$EHRec$[ebp+8], -1
  010f9	8b f4		 mov	 esi, esp
  010fb	8d 8d 54 ff ff
	ff		 lea	 ecx, DWORD PTR _ClassName$192004[ebp]
  01101	ff 15 00 00 00
	00		 call	 DWORD PTR __imp_??1?$CStringT@DV?$StrTraitMFC_DLL@DV?$ChTraitsCRT@D@ATL@@@@@ATL@@QAE@XZ
  01107	3b f4		 cmp	 esi, esp
  01109	e8 00 00 00 00	 call	 __RTC_CheckEsp
$L192003:

; 250  : 		
; 251  : 	if( m_bShowSkinWnd )

  0110e	8b 45 f0	 mov	 eax, DWORD PTR _this$[ebp]
  01111	0f b6 48 64	 movzx	 ecx, BYTE PTR [eax+100]
  01115	85 c9		 test	 ecx, ecx
  01117	74 34		 je	 SHORT $L192011

; 252  : 	{
; 253  : 		if( mb_isDownSkin )

  01119	8b 55 f0	 mov	 edx, DWORD PTR _this$[ebp]
  0111c	0f b6 42 49	 movzx	 eax, BYTE PTR [edx+73]
  01120	85 c0		 test	 eax, eax
  01122	74 0f		 je	 SHORT $L192012

; 254  : 		{
; 255  : 			mp_downloadSkin->ShowWindow( SW_SHOW );

  01124	6a 05		 push	 5
  01126	8b 4d f0	 mov	 ecx, DWORD PTR _this$[ebp]
  01129	8b 49 20	 mov	 ecx, DWORD PTR [ecx+32]
  0112c	e8 00 00 00 00	 call	 ?ShowWindow@CWnd@@QAEHH@Z ; CWnd::ShowWindow

; 256  : 			//DownloadStart();
; 257  : 		}
; 258  : 		else

  01131	eb 1a		 jmp	 SHORT $L192011
$L192012:

; 259  : 		{
; 260  : 			mp_downloadSkin->ShowWindow( SW_HIDE );

  01133	6a 00		 push	 0
  01135	8b 55 f0	 mov	 edx, DWORD PTR _this$[ebp]
  01138	8b 4a 20	 mov	 ecx, DWORD PTR [edx+32]
  0113b	e8 00 00 00 00	 call	 ?ShowWindow@CWnd@@QAEHH@Z ; CWnd::ShowWindow

; 261  : 			mp_mainSkinWnd->ShowColorBtn( TRUE );

  01140	6a 01		 push	 1
  01142	8b 45 f0	 mov	 eax, DWORD PTR _this$[ebp]
  01145	8b 48 10	 mov	 ecx, DWORD PTR [eax+16]
  01148	e8 00 00 00 00	 call	 ?ShowColorBtn@CMainSkinWnd@@QAEXH@Z ; CMainSkinWnd::ShowColorBtn
$L192011:

; 262  : 		}
; 263  : 	}	
; 264  : 
; 265  : 	if(!mp_downloadSubject )

  0114d	8b 4d f0	 mov	 ecx, DWORD PTR _this$[ebp]
  01150	83 79 24 00	 cmp	 DWORD PTR [ecx+36], 0
  01154	75 5c		 jne	 SHORT $L192014

; 266  : 	{
; 267  : 		mp_downloadSubject = new CDownloadPercentWnd;

  01156	68 30 02 00 00	 push	 560			; 00000230H
  0115b	e8 00 00 00 00	 call	 ??2CObject@@SGPAXI@Z	; CObject::operator new
  01160	89 85 cc fe ff
	ff		 mov	 DWORD PTR $T194826[ebp], eax
  01166	c7 45 fc 10 00
	00 00		 mov	 DWORD PTR __$EHRec$[ebp+8], 16 ; 00000010H
  0116d	83 bd cc fe ff
	ff 00		 cmp	 DWORD PTR $T194826[ebp], 0
  01174	74 13		 je	 SHORT $L194827
  01176	8b 8d cc fe ff
	ff		 mov	 ecx, DWORD PTR $T194826[ebp]
  0117c	e8 00 00 00 00	 call	 ??0CDownloadPercentWnd@@QAE@XZ ; CDownloadPercentWnd::CDownloadPercentWnd
  01181	89 85 54 fe ff
	ff		 mov	 DWORD PTR tv648[ebp], eax
  01187	eb 0a		 jmp	 SHORT $L194828
$L194827:
  01189	c7 85 54 fe ff
	ff 00 00 00 00	 mov	 DWORD PTR tv648[ebp], 0
$L194828:
  01193	8b 95 54 fe ff
	ff		 mov	 edx, DWORD PTR tv648[ebp]
  01199	89 95 d0 fe ff
	ff		 mov	 DWORD PTR $T194825[ebp], edx
  0119f	c7 45 fc ff ff
	ff ff		 mov	 DWORD PTR __$EHRec$[ebp+8], -1
  011a6	8b 45 f0	 mov	 eax, DWORD PTR _this$[ebp]
  011a9	8b 8d d0 fe ff
	ff		 mov	 ecx, DWORD PTR $T194825[ebp]
  011af	89 48 24	 mov	 DWORD PTR [eax+36], ecx
$L192014:

; 268  : 	}
; 269  : 	if( mp_downloadSubject->m_hWnd == NULL )

  011b2	8b 55 f0	 mov	 edx, DWORD PTR _this$[ebp]
  011b5	8b 42 24	 mov	 eax, DWORD PTR [edx+36]
  011b8	83 78 20 00	 cmp	 DWORD PTR [eax+32], 0
  011bc	0f 85 a6 00 00
	00		 jne	 $L192019

; 270  : 	{
; 271  : 		CString ClassName   = ::AfxRegisterWndClass(CS_CLASSDC,::LoadCursor(NULL,IDC_ARROW),NULL,NULL);   

  011c2	6a 00		 push	 0
  011c4	6a 00		 push	 0
  011c6	8b f4		 mov	 esi, esp
  011c8	68 00 7f 00 00	 push	 32512			; 00007f00H
  011cd	6a 00		 push	 0
  011cf	ff 15 00 00 00
	00		 call	 DWORD PTR __imp__LoadCursorA@8
  011d5	3b f4		 cmp	 esi, esp
  011d7	e8 00 00 00 00	 call	 __RTC_CheckEsp
  011dc	50		 push	 eax
  011dd	6a 40		 push	 64			; 00000040H
  011df	e8 00 00 00 00	 call	 ?AfxRegisterWndClass@@YGPBDIPAUHICON__@@PAUHBRUSH__@@0@Z ; AfxRegisterWndClass
  011e4	8b f4		 mov	 esi, esp
  011e6	50		 push	 eax
  011e7	8d 8d 48 ff ff
	ff		 lea	 ecx, DWORD PTR _ClassName$192020[ebp]
  011ed	ff 15 00 00 00
	00		 call	 DWORD PTR __imp_??0?$CStringT@DV?$StrTraitMFC_DLL@DV?$ChTraitsCRT@D@ATL@@@@@ATL@@QAE@PBD@Z
  011f3	3b f4		 cmp	 esi, esp
  011f5	e8 00 00 00 00	 call	 __RTC_CheckEsp
  011fa	c7 45 fc 11 00
	00 00		 mov	 DWORD PTR __$EHRec$[ebp+8], 17 ; 00000011H

; 272  : 		mp_downloadSubject->CreateEx( 0,ClassName,NULL,WS_CHILD,lClient,mp_mainSkinWnd,1);		

  01201	8b f4		 mov	 esi, esp
  01203	6a 00		 push	 0
  01205	6a 01		 push	 1
  01207	8b 4d f0	 mov	 ecx, DWORD PTR _this$[ebp]
  0120a	8b 51 10	 mov	 edx, DWORD PTR [ecx+16]
  0120d	52		 push	 edx
  0120e	8d 85 60 ff ff
	ff		 lea	 eax, DWORD PTR _lClient$[ebp]
  01214	50		 push	 eax
  01215	68 00 00 00 40	 push	 1073741824		; 40000000H
  0121a	6a 00		 push	 0
  0121c	8b fc		 mov	 edi, esp
  0121e	8d 8d 48 ff ff
	ff		 lea	 ecx, DWORD PTR _ClassName$192020[ebp]
  01224	ff 15 00 00 00
	00		 call	 DWORD PTR __imp_??B?$CSimpleStringT@D$00@ATL@@QBEPBDXZ
  0122a	3b fc		 cmp	 edi, esp
  0122c	e8 00 00 00 00	 call	 __RTC_CheckEsp
  01231	50		 push	 eax
  01232	6a 00		 push	 0
  01234	8b 4d f0	 mov	 ecx, DWORD PTR _this$[ebp]
  01237	8b 51 24	 mov	 edx, DWORD PTR [ecx+36]
  0123a	8b 45 f0	 mov	 eax, DWORD PTR _this$[ebp]
  0123d	8b 48 24	 mov	 ecx, DWORD PTR [eax+36]
  01240	8b 12		 mov	 edx, DWORD PTR [edx]
  01242	ff 52 60	 call	 DWORD PTR [edx+96]
  01245	3b f4		 cmp	 esi, esp
  01247	e8 00 00 00 00	 call	 __RTC_CheckEsp

; 273  : 	}	

  0124c	c7 45 fc ff ff
	ff ff		 mov	 DWORD PTR __$EHRec$[ebp+8], -1
  01253	8b f4		 mov	 esi, esp
  01255	8d 8d 48 ff ff
	ff		 lea	 ecx, DWORD PTR _ClassName$192020[ebp]
  0125b	ff 15 00 00 00
	00		 call	 DWORD PTR __imp_??1?$CStringT@DV?$StrTraitMFC_DLL@DV?$ChTraitsCRT@D@ATL@@@@@ATL@@QAE@XZ
  01261	3b f4		 cmp	 esi, esp
  01263	e8 00 00 00 00	 call	 __RTC_CheckEsp
$L192019:

; 274  : 
; 275  : 	return lbReturn;

  01268	8b 45 ec	 mov	 eax, DWORD PTR _lbReturn$[ebp]

; 276  : }

  0126b	52		 push	 edx
  0126c	8b cd		 mov	 ecx, ebp
  0126e	50		 push	 eax
  0126f	8d 15 00 00 00
	00		 lea	 edx, DWORD PTR $L194857
  01275	e8 00 00 00 00	 call	 @_RTC_CheckStackVars@8
  0127a	58		 pop	 eax
  0127b	5a		 pop	 edx
  0127c	8b 4d f4	 mov	 ecx, DWORD PTR __$EHRec$[ebp]
  0127f	64 89 0d 00 00
	00 00		 mov	 DWORD PTR fs:__except_list, ecx
  01286	5f		 pop	 edi
  01287	5e		 pop	 esi
  01288	81 c4 ac 01 00
	00		 add	 esp, 428		; 000001acH
  0128e	3b ec		 cmp	 ebp, esp
  01290	e8 00 00 00 00	 call	 __RTC_CheckEsp
  01295	8b e5		 mov	 esp, ebp
  01297	5d		 pop	 ebp
  01298	c2 10 00	 ret	 16			; 00000010H
$L194857:
  0129b	08 00 00 00	 DD	 8
  0129f	00 00 00 00	 DD	 $L194856
$L194856:
  012a3	d4 ff ff ff	 DD	 -44			; ffffffd4H
  012a7	10 00 00 00	 DD	 16			; 00000010H
  012ab	00 00 00 00	 DD	 $L194847
  012af	bc ff ff ff	 DD	 -68			; ffffffbcH
  012b3	10 00 00 00	 DD	 16			; 00000010H
  012b7	00 00 00 00	 DD	 $L194848
  012bb	9c ff ff ff	 DD	 -100			; ffffff9cH
  012bf	04 00 00 00	 DD	 4
  012c3	00 00 00 00	 DD	 $L194849
  012c7	90 ff ff ff	 DD	 -112			; ffffff90H
  012cb	04 00 00 00	 DD	 4
  012cf	00 00 00 00	 DD	 $L194850
  012d3	78 ff ff ff	 DD	 -136			; ffffff78H
  012d7	10 00 00 00	 DD	 16			; 00000010H
  012db	00 00 00 00	 DD	 $L194851
  012df	60 ff ff ff	 DD	 -160			; ffffff60H
  012e3	10 00 00 00	 DD	 16			; 00000010H
  012e7	00 00 00 00	 DD	 $L194852
  012eb	54 ff ff ff	 DD	 -172			; ffffff54H
  012ef	04 00 00 00	 DD	 4
  012f3	00 00 00 00	 DD	 $L194853
  012f7	48 ff ff ff	 DD	 -184			; ffffff48H
  012fb	04 00 00 00	 DD	 4
  012ff	00 00 00 00	 DD	 $L194854
$L194854:
  01303	43		 DB	 67			; 00000043H
  01304	6c		 DB	 108			; 0000006cH
  01305	61		 DB	 97			; 00000061H
  01306	73		 DB	 115			; 00000073H
  01307	73		 DB	 115			; 00000073H
  01308	4e		 DB	 78			; 0000004eH
  01309	61		 DB	 97			; 00000061H
  0130a	6d		 DB	 109			; 0000006dH
  0130b	65		 DB	 101			; 00000065H
  0130c	00		 DB	 0
$L194853:
  0130d	43		 DB	 67			; 00000043H
  0130e	6c		 DB	 108			; 0000006cH
  0130f	61		 DB	 97			; 00000061H
  01310	73		 DB	 115			; 00000073H
  01311	73		 DB	 115			; 00000073H
  01312	4e		 DB	 78			; 0000004eH
  01313	61		 DB	 97			; 00000061H
  01314	6d		 DB	 109			; 0000006dH
  01315	65		 DB	 101			; 00000065H
  01316	00		 DB	 0
$L194852:
  01317	6c		 DB	 108			; 0000006cH
  01318	43		 DB	 67			; 00000043H
  01319	6c		 DB	 108			; 0000006cH
  0131a	69		 DB	 105			; 00000069H
  0131b	65		 DB	 101			; 00000065H
  0131c	6e		 DB	 110			; 0000006eH
  0131d	74		 DB	 116			; 00000074H
  0131e	00		 DB	 0
$L194851:
  0131f	6c		 DB	 108			; 0000006cH
  01320	72		 DB	 114			; 00000072H
  01321	65		 DB	 101			; 00000065H
  01322	63		 DB	 99			; 00000063H
  01323	74		 DB	 116			; 00000074H
  01324	00		 DB	 0
$L194850:
  01325	74		 DB	 116			; 00000074H
  01326	69		 DB	 105			; 00000069H
  01327	70		 DB	 112			; 00000070H
  01328	73		 DB	 115			; 00000073H
  01329	00		 DB	 0
$L194849:
  0132a	74		 DB	 116			; 00000074H
  0132b	69		 DB	 105			; 00000069H
  0132c	70		 DB	 112			; 00000070H
  0132d	73		 DB	 115			; 00000073H
  0132e	00		 DB	 0
$L194848:
  0132f	6c		 DB	 108			; 0000006cH
  01330	43		 DB	 67			; 00000043H
  01331	6c		 DB	 108			; 0000006cH
  01332	69		 DB	 105			; 00000069H
  01333	65		 DB	 101			; 00000065H
  01334	6e		 DB	 110			; 0000006eH
  01335	74		 DB	 116			; 00000074H
  01336	00		 DB	 0
$L194847:
  01337	6c		 DB	 108			; 0000006cH
  01338	72		 DB	 114			; 00000072H
  01339	65		 DB	 101			; 00000065H
  0133a	63		 DB	 99			; 00000063H
  0133b	74		 DB	 116			; 00000074H
  0133c	00		 DB	 0
_TEXT	ENDS
text$x	SEGMENT
$L194829:
  0014b	8b f4		 mov	 esi, esp
  0014d	8d 8d 10 ff ff
	ff		 lea	 ecx, DWORD PTR $T194810[ebp]
  00153	ff 15 00 00 00
	00		 call	 DWORD PTR __imp_??1?$CStringT@DV?$StrTraitMFC_DLL@DV?$ChTraitsCRT@D@ATL@@@@@ATL@@QAE@XZ
  00159	3b f4		 cmp	 esi, esp
  0015b	e9 00 00 00 00	 jmp	 __RTC_CheckEsp
$L194830:
  00160	8b f4		 mov	 esi, esp
  00162	8d 8d 0c ff ff
	ff		 lea	 ecx, DWORD PTR $T194811[ebp]
  00168	ff 15 00 00 00
	00		 call	 DWORD PTR __imp_??1?$CStringT@DV?$StrTraitMFC_DLL@DV?$ChTraitsCRT@D@ATL@@@@@ATL@@QAE@XZ
  0016e	3b f4		 cmp	 esi, esp
  00170	e9 00 00 00 00	 jmp	 __RTC_CheckEsp
$L194831:
  00175	8b f4		 mov	 esi, esp
  00177	8d 4d 9c	 lea	 ecx, DWORD PTR _tips$191968[ebp]
  0017a	ff 15 00 00 00
	00		 call	 DWORD PTR __imp_??1?$CStringT@DV?$StrTraitMFC_DLL@DV?$ChTraitsCRT@D@ATL@@@@@ATL@@QAE@XZ
  00180	3b f4		 cmp	 esi, esp
  00182	e9 00 00 00 00	 jmp	 __RTC_CheckEsp
$L194832:
  00187	8b f4		 mov	 esi, esp
  00189	8b 8d 08 ff ff
	ff		 mov	 ecx, DWORD PTR $T194812[ebp]
  0018f	ff 15 00 00 00
	00		 call	 DWORD PTR __imp_??1?$CStringT@DV?$StrTraitMFC_DLL@DV?$ChTraitsCRT@D@ATL@@@@@ATL@@QAE@XZ
  00195	3b f4		 cmp	 esi, esp
  00197	e9 00 00 00 00	 jmp	 __RTC_CheckEsp
$L194833:
  0019c	8b f4		 mov	 esi, esp
  0019e	8b 8d 04 ff ff
	ff		 mov	 ecx, DWORD PTR $T194813[ebp]
  001a4	ff 15 00 00 00
	00		 call	 DWORD PTR __imp_??1?$CStringT@DV?$StrTraitMFC_DLL@DV?$ChTraitsCRT@D@ATL@@@@@ATL@@QAE@XZ
  001aa	3b f4		 cmp	 esi, esp
  001ac	e9 00 00 00 00	 jmp	 __RTC_CheckEsp
$L194835:
  001b1	8b f4		 mov	 esi, esp
  001b3	8d 8d fc fe ff
	ff		 lea	 ecx, DWORD PTR $T194815[ebp]
  001b9	ff 15 00 00 00
	00		 call	 DWORD PTR __imp_??1?$CStringT@DV?$StrTraitMFC_DLL@DV?$ChTraitsCRT@D@ATL@@@@@ATL@@QAE@XZ
  001bf	3b f4		 cmp	 esi, esp
  001c1	e9 00 00 00 00	 jmp	 __RTC_CheckEsp
$L194836:
  001c6	8b f4		 mov	 esi, esp
  001c8	8d 8d f8 fe ff
	ff		 lea	 ecx, DWORD PTR $T194816[ebp]
  001ce	ff 15 00 00 00
	00		 call	 DWORD PTR __imp_??1?$CStringT@DV?$StrTraitMFC_DLL@DV?$ChTraitsCRT@D@ATL@@@@@ATL@@QAE@XZ
  001d4	3b f4		 cmp	 esi, esp
  001d6	e9 00 00 00 00	 jmp	 __RTC_CheckEsp
$L194837:
  001db	8b f4		 mov	 esi, esp
  001dd	8d 4d 90	 lea	 ecx, DWORD PTR _tips$191978[ebp]
  001e0	ff 15 00 00 00
	00		 call	 DWORD PTR __imp_??1?$CStringT@DV?$StrTraitMFC_DLL@DV?$ChTraitsCRT@D@ATL@@@@@ATL@@QAE@XZ
  001e6	3b f4		 cmp	 esi, esp
  001e8	e9 00 00 00 00	 jmp	 __RTC_CheckEsp
$L194838:
  001ed	8b f4		 mov	 esi, esp
  001ef	8b 8d f4 fe ff
	ff		 mov	 ecx, DWORD PTR $T194817[ebp]
  001f5	ff 15 00 00 00
	00		 call	 DWORD PTR __imp_??1?$CStringT@DV?$StrTraitMFC_DLL@DV?$ChTraitsCRT@D@ATL@@@@@ATL@@QAE@XZ
  001fb	3b f4		 cmp	 esi, esp
  001fd	e9 00 00 00 00	 jmp	 __RTC_CheckEsp
$L194839:
  00202	8b f4		 mov	 esi, esp
  00204	8b 8d f0 fe ff
	ff		 mov	 ecx, DWORD PTR $T194818[ebp]
  0020a	ff 15 00 00 00
	00		 call	 DWORD PTR __imp_??1?$CStringT@DV?$StrTraitMFC_DLL@DV?$ChTraitsCRT@D@ATL@@@@@ATL@@QAE@XZ
  00210	3b f4		 cmp	 esi, esp
  00212	e9 00 00 00 00	 jmp	 __RTC_CheckEsp
$L194841:
  00217	8b 85 e4 fe ff
	ff		 mov	 eax, DWORD PTR $T194821[ebp]
  0021d	50		 push	 eax
  0021e	e8 00 00 00 00	 call	 ??3CObject@@SGXPAX@Z	; CObject::operator delete
  00223	c3		 ret	 0
$L194842:
  00224	8b f4		 mov	 esi, esp
  00226	8d 8d 54 ff ff
	ff		 lea	 ecx, DWORD PTR _ClassName$192004[ebp]
  0022c	ff 15 00 00 00
	00		 call	 DWORD PTR __imp_??1?$CStringT@DV?$StrTraitMFC_DLL@DV?$ChTraitsCRT@D@ATL@@@@@ATL@@QAE@XZ
  00232	3b f4		 cmp	 esi, esp
  00234	e9 00 00 00 00	 jmp	 __RTC_CheckEsp
$L194843:
  00239	8b 85 cc fe ff
	ff		 mov	 eax, DWORD PTR $T194826[ebp]
  0023f	50		 push	 eax
  00240	e8 00 00 00 00	 call	 ??3CObject@@SGXPAX@Z	; CObject::operator delete
  00245	c3		 ret	 0
$L194844:
  00246	8b f4		 mov	 esi, esp
  00248	8d 8d 48 ff ff
	ff		 lea	 ecx, DWORD PTR _ClassName$192020[ebp]
  0024e	ff 15 00 00 00
	00		 call	 DWORD PTR __imp_??1?$CStringT@DV?$StrTraitMFC_DLL@DV?$ChTraitsCRT@D@ATL@@@@@ATL@@QAE@XZ
  00254	3b f4		 cmp	 esi, esp
  00256	e9 00 00 00 00	 jmp	 __RTC_CheckEsp
__ehhandler$?PopSkinWnd@CSkinMgrV1@@UAEHPAVCWnd@@IUtagPOINT@@@Z:
  0025b	b8 00 00 00 00	 mov	 eax, OFFSET FLAT:$T194846
  00260	e9 00 00 00 00	 jmp	 ___CxxFrameHandler
text$x	ENDS
?PopSkinWnd@CSkinMgrV1@@UAEHPAVCWnd@@IUtagPOINT@@@Z ENDP ; CSkinMgrV1::PopSkinWnd
; Function compile flags: /Odt /RTCsu
; File d:\boxgit\playbox\playbox\dev\prj\playbox\src\layoutmgr\changecolor\mainskinwnd.h
;	COMDAT ?SetListener@CMainSkinWnd@@QAEXPAVIEventListener@@@Z
_TEXT	SEGMENT
_this$ = -4						; size = 4
_apListtener$ = 8					; size = 4
?SetListener@CMainSkinWnd@@QAEXPAVIEventListener@@@Z PROC NEAR ; CMainSkinWnd::SetListener, COMDAT
; _this$ = ecx

; 46   : 	void SetListener( IEventListener* apListtener ) { mp_EventListener = apListtener; }

  00000	55		 push	 ebp
  00001	8b ec		 mov	 ebp, esp
  00003	51		 push	 ecx
  00004	c7 45 fc cc cc
	cc cc		 mov	 DWORD PTR [ebp-4], -858993460 ; ccccccccH
  0000b	89 4d fc	 mov	 DWORD PTR _this$[ebp], ecx
  0000e	8b 45 fc	 mov	 eax, DWORD PTR _this$[ebp]
  00011	8b 4d 08	 mov	 ecx, DWORD PTR _apListtener$[ebp]
  00014	89 88 dc 00 00
	00		 mov	 DWORD PTR [eax+220], ecx
  0001a	8b e5		 mov	 esp, ebp
  0001c	5d		 pop	 ebp
  0001d	c2 04 00	 ret	 4
?SetListener@CMainSkinWnd@@QAEXPAVIEventListener@@@Z ENDP ; CMainSkinWnd::SetListener
; Function compile flags: /Odt /RTCsu
_TEXT	ENDS
;	COMDAT ?SetWndListener@CMainSkinWnd@@QAEXPAVIWndEventListener@@@Z
_TEXT	SEGMENT
_this$ = -4						; size = 4
_pWndListener$ = 8					; size = 4
?SetWndListener@CMainSkinWnd@@QAEXPAVIWndEventListener@@@Z PROC NEAR ; CMainSkinWnd::SetWndListener, COMDAT
; _this$ = ecx

; 47   : 	void SetWndListener(IWndEventListener* pWndListener){ mp_WndListener = pWndListener; }

  00000	55		 push	 ebp
  00001	8b ec		 mov	 ebp, esp
  00003	51		 push	 ecx
  00004	c7 45 fc cc cc
	cc cc		 mov	 DWORD PTR [ebp-4], -858993460 ; ccccccccH
  0000b	89 4d fc	 mov	 DWORD PTR _this$[ebp], ecx
  0000e	8b 45 fc	 mov	 eax, DWORD PTR _this$[ebp]
  00011	8b 4d 08	 mov	 ecx, DWORD PTR _pWndListener$[ebp]
  00014	89 88 e0 00 00
	00		 mov	 DWORD PTR [eax+224], ecx
  0001a	8b e5		 mov	 esp, ebp
  0001c	5d		 pop	 ebp
  0001d	c2 04 00	 ret	 4
?SetWndListener@CMainSkinWnd@@QAEXPAVIWndEventListener@@@Z ENDP ; CMainSkinWnd::SetWndListener
; Function compile flags: /Odt /RTCsu
; File d:\boxgit\playbox\playbox\dev\prj\playbox\src\layoutmgr\changecolor\skinwnd.h
_TEXT	ENDS
;	COMDAT ?SetSendEventListener@CSkinWnd@@QAEXPAVIEventListener@@@Z
_TEXT	SEGMENT
_this$ = -4						; size = 4
_aEventListener$ = 8					; size = 4
?SetSendEventListener@CSkinWnd@@QAEXPAVIEventListener@@@Z PROC NEAR ; CSkinWnd::SetSendEventListener, COMDAT
; _this$ = ecx

; 43   : 	void SetSendEventListener(IEventListener* aEventListener ){mp_EventListener = aEventListener ;}

  00000	55		 push	 ebp
  00001	8b ec		 mov	 ebp, esp
  00003	51		 push	 ecx
  00004	c7 45 fc cc cc
	cc cc		 mov	 DWORD PTR [ebp-4], -858993460 ; ccccccccH
  0000b	89 4d fc	 mov	 DWORD PTR _this$[ebp], ecx
  0000e	8b 45 fc	 mov	 eax, DWORD PTR _this$[ebp]
  00011	8b 4d 08	 mov	 ecx, DWORD PTR _aEventListener$[ebp]
  00014	89 88 dc 02 00
	00		 mov	 DWORD PTR [eax+732], ecx
  0001a	8b e5		 mov	 esp, ebp
  0001c	5d		 pop	 ebp
  0001d	c2 04 00	 ret	 4
?SetSendEventListener@CSkinWnd@@QAEXPAVIEventListener@@@Z ENDP ; CSkinWnd::SetSendEventListener
; Function compile flags: /Odt /RTCsu
; File d:\boxgit\playbox\playbox\dev\prj\playbox\src\layoutmgr\changecolor\subjectchildwnd.h
_TEXT	ENDS
;	COMDAT ?SetSendEventListener@CSubjectChildWnd@@QAEXPAVIEventListener@@@Z
_TEXT	SEGMENT
_this$ = -4						; size = 4
_aEventListener$ = 8					; size = 4
?SetSendEventListener@CSubjectChildWnd@@QAEXPAVIEventListener@@@Z PROC NEAR ; CSubjectChildWnd::SetSendEventListener, COMDAT
; _this$ = ecx

; 25   : 	void SetSendEventListener(IEventListener* aEventListener ){mp_EventListener = aEventListener ;}	

  00000	55		 push	 ebp
  00001	8b ec		 mov	 ebp, esp
  00003	51		 push	 ecx
  00004	c7 45 fc cc cc
	cc cc		 mov	 DWORD PTR [ebp-4], -858993460 ; ccccccccH
  0000b	89 4d fc	 mov	 DWORD PTR _this$[ebp], ecx
  0000e	8b 45 fc	 mov	 eax, DWORD PTR _this$[ebp]
  00011	8b 4d 08	 mov	 ecx, DWORD PTR _aEventListener$[ebp]
  00014	89 88 f0 02 00
	00		 mov	 DWORD PTR [eax+752], ecx
  0001a	8b e5		 mov	 esp, ebp
  0001c	5d		 pop	 ebp
  0001d	c2 04 00	 ret	 4
?SetSendEventListener@CSubjectChildWnd@@QAEXPAVIEventListener@@@Z ENDP ; CSubjectChildWnd::SetSendEventListener
_TEXT	ENDS
EXTRN	??0CSkinWnd@@QAE@XZ:NEAR			; CSkinWnd::CSkinWnd
EXTRN	?InsertSmallSkin@CSkinWnd@@QAEXAAV?$basic_string@DU?$char_traits@D@std@@V?$allocator@D@2@@std@@PAVCBitmap@@V23@_N@Z:NEAR ; CSkinWnd::InsertSmallSkin
EXTRN	??0CSubjectChildWnd@@QAE@XZ:NEAR		; CSubjectChildWnd::CSubjectChildWnd
EXTRN	??0CMainSkinWnd@@QAE@XZ:NEAR			; CMainSkinWnd::CMainSkinWnd
EXTRN	__imp_??0?$basic_string@DU?$char_traits@D@std@@V?$allocator@D@2@@std@@QAE@ABV01@@Z:NEAR
EXTRN	??0CWebSubWnd@@QAE@XZ:NEAR			; CWebSubWnd::CWebSubWnd
xdata$x	SEGMENT
$T194893 DD	0ffffffffH
	DD	FLAT:$L194883
	DD	00H
	DD	FLAT:$L194884
	DD	01H
	DD	FLAT:$L194885
	DD	01H
	DD	FLAT:$L194886
	DD	01H
	DD	FLAT:$L194887
	DD	01H
	DD	FLAT:$L194888
$T194891 DD	019930520H
	DD	06H
	DD	FLAT:$T194893
	DD	2 DUP(00H)
	DD	2 DUP(00H)
; Function compile flags: /Odt /RTCsu
; File d:\boxgit\playbox\playbox\dev\prj\playbox\src\layoutmgr\changecolor\ichangecolormgr.cpp
xdata$x	ENDS
_TEXT	SEGMENT
tv163 = -76						; size = 4
tv135 = -72						; size = 4
tv95 = -68						; size = 4
tv87 = -64						; size = 4
tv79 = -60						; size = 4
$T194882 = -54						; size = 1
$T194881 = -53						; size = 1
$T194880 = -52						; size = 4
$T194877 = -48						; size = 4
$T194876 = -44						; size = 4
$T194873 = -40						; size = 4
$T194872 = -36						; size = 4
$T194869 = -32						; size = 4
$T194868 = -28						; size = 4
$T194865 = -24						; size = 4
$T194864 = -20						; size = 4
_this$ = -16						; size = 4
__$EHRec$ = -12						; size = 12
_astrName$ = 8						; size = 28
_apBmp$ = 36						; size = 4
_strPath$ = 40						; size = 28
_bHasSkin$ = 68						; size = 1
?InsertSmallSkin@CSkinMgrV1@@UAE_NV?$basic_string@DU?$char_traits@D@std@@V?$allocator@D@2@@std@@PAVCBitmap@@0_N@Z PROC NEAR ; CSkinMgrV1::InsertSmallSkin
; _this$ = ecx

; 278  : {

  01340	55		 push	 ebp
  01341	8b ec		 mov	 ebp, esp
  01343	6a ff		 push	 -1
  01345	68 00 00 00 00	 push	 __ehhandler$?InsertSmallSkin@CSkinMgrV1@@UAE_NV?$basic_string@DU?$char_traits@D@std@@V?$allocator@D@2@@std@@PAVCBitmap@@0_N@Z
  0134a	64 a1 00 00 00
	00		 mov	 eax, DWORD PTR fs:__except_list
  01350	50		 push	 eax
  01351	64 89 25 00 00
	00 00		 mov	 DWORD PTR fs:__except_list, esp
  01358	83 ec 40	 sub	 esp, 64			; 00000040H
  0135b	56		 push	 esi
  0135c	57		 push	 edi
  0135d	51		 push	 ecx
  0135e	8d 7d b4	 lea	 edi, DWORD PTR [ebp-76]
  01361	b9 10 00 00 00	 mov	 ecx, 16			; 00000010H
  01366	b8 cc cc cc cc	 mov	 eax, -858993460		; ccccccccH
  0136b	f3 ab		 rep stosd
  0136d	59		 pop	 ecx
  0136e	89 4d f0	 mov	 DWORD PTR _this$[ebp], ecx
  01371	c7 45 fc 01 00
	00 00		 mov	 DWORD PTR __$EHRec$[ebp+8], 1

; 279  : 	if( !mb_HasPopWnd)

  01378	8b 45 f0	 mov	 eax, DWORD PTR _this$[ebp]
  0137b	0f b6 48 48	 movzx	 ecx, BYTE PTR [eax+72]
  0137f	85 c9		 test	 ecx, ecx
  01381	0f 85 72 01 00
	00		 jne	 $L192031

; 280  : 	{
; 281  : 		if(NULL == mp_mainSkinWnd)

  01387	8b 55 f0	 mov	 edx, DWORD PTR _this$[ebp]
  0138a	83 7a 10 00	 cmp	 DWORD PTR [edx+16], 0
  0138e	0f 85 f8 00 00
	00		 jne	 $L192032

; 282  : 		{
; 283  : 			mp_mainSkinWnd	= new CMainSkinWnd;

  01394	68 60 09 00 00	 push	 2400			; 00000960H
  01399	e8 00 00 00 00	 call	 ??2CObject@@SGPAXI@Z	; CObject::operator new
