; Listing generated by Microsoft (R) Optimizing Compiler Version 13.10.3077 

	TITLE	.\src\LayoutMgr\ChangeColor\IChangeColorMgr.cpp
	.386P
include listing.inc
if @Version gt 510
.model FLAT
else
_TEXT	SEGMENT PARA USE32 PUBLIC 'CODE'
_TEXT	ENDS
_DATA	SEGMENT DWORD USE32 PUBLIC 'DATA'
_DATA	ENDS
CONST	SEGMENT DWORD USE32 PUBLIC 'CONST'
CONST	ENDS
_BSS	SEGMENT DWORD USE32 PUBLIC 'BSS'
_BSS	ENDS
$$SYMBOLS	SEGMENT BYTE USE32 'DEBSYM'
$$SYMBOLS	ENDS
_TLS	SEGMENT DWORD USE32 PUBLIC 'TLS'
_TLS	ENDS
;	COMDAT ??_C@_0BL@MMAJDJCB@pszBuffer?$FLnNewLength?$FN?5?$DN?$DN?50?$AA@
CONST	SEGMENT DWORD USE32 PUBLIC 'CONST'
CONST	ENDS
;	COMDAT ??_C@_0M@GOJCFFEC@iStart?5?$DO?$DN?50?$AA@
CONST	SEGMENT DWORD USE32 PUBLIC 'CONST'
CONST	ENDS
;	COMDAT ??_C@_0EN@IBFBLEEG@D?3?2Program?5Files?5?$CIx86?$CJ?2Microsoft@
CONST	SEGMENT DWORD USE32 PUBLIC 'CONST'
CONST	ENDS
;	COMDAT ??_C@_0BK@JOOHECM@nNewLength?5?$DM?$DN?5GetLength?$CI?$CJ?$AA@
CONST	SEGMENT DWORD USE32 PUBLIC 'CONST'
CONST	ENDS
;	COMDAT ??_C@_0BI@GIMJKKKN@AtlIsValidString?$CI?5psz?5?$CJ?$AA@
CONST	SEGMENT DWORD USE32 PUBLIC 'CONST'
CONST	ENDS
;	COMDAT ??_C@_0DC@KJIHKHDE@?$CInCount?5?$DN?$DN?50?$CJ?5?$HM?$HM?5?$CI?$CIiFirst?$CLnCount@
CONST	SEGMENT DWORD USE32 PUBLIC 'CONST'
CONST	ENDS
;	COMDAT ??_C@_0BD@OLBABOEK@vector?$DMT?$DO?5too?5long?$AA@
CONST	SEGMENT DWORD USE32 PUBLIC 'CONST'
CONST	ENDS
rdata$r	SEGMENT DWORD USE32 PUBLIC 'CONST'
rdata$r	ENDS
xdata$x	SEGMENT DWORD USE32 PUBLIC 'CONST'
xdata$x	ENDS
text$AFX_COL1	SEGMENT PARA USE32 PUBLIC ''
text$AFX_COL1	ENDS
text$yc	SEGMENT PARA USE32 PUBLIC 'CODE'
text$yc	ENDS
CRT$XCA	SEGMENT DWORD USE32 PUBLIC 'DATA'
CRT$XCA	ENDS
CRT$XCU	SEGMENT DWORD USE32 PUBLIC 'DATA'
CRT$XCU	ENDS
CRT$XCL	SEGMENT DWORD USE32 PUBLIC 'DATA'
CRT$XCL	ENDS
CRT$XCC	SEGMENT DWORD USE32 PUBLIC 'DATA'
CRT$XCC	ENDS
CRT$XCZ	SEGMENT DWORD USE32 PUBLIC 'DATA'
CRT$XCZ	ENDS
text$yd	SEGMENT PARA USE32 PUBLIC 'CODE'
text$yd	ENDS
ATL$__m	SEGMENT DWORD USE32 PUBLIC ''
ATL$__m	ENDS
ATL$__z	SEGMENT DWORD USE32 PUBLIC ''
ATL$__z	ENDS
ATL$__a	SEGMENT DWORD USE32 PUBLIC ''
ATL$__a	ENDS
;	COMDAT ??1DIBINFO@@UAE@XZ
_TEXT	SEGMENT PARA USE32 PUBLIC 'CODE'
_TEXT	ENDS
;	COMDAT ??_GDIBINFO@@UAEPAXI@Z
_TEXT	SEGMENT PARA USE32 PUBLIC 'CODE'
_TEXT	ENDS
;	COMDAT ?SetAdjustValue@CBitMapOperate@@QAEXH@Z
_TEXT	SEGMENT PARA USE32 PUBLIC 'CODE'
_TEXT	ENDS
;	COMDAT ??1CGdiPlusBitmap@@UAE@XZ
_TEXT	SEGMENT PARA USE32 PUBLIC 'CODE'
_TEXT	ENDS
;	COMDAT ?Empty@CGdiPlusBitmap@@QAEXXZ
_TEXT	SEGMENT PARA USE32 PUBLIC 'CODE'
_TEXT	ENDS
;	COMDAT ?Load@CGdiPlusBitmap@@QAE_NPB_W@Z
_TEXT	SEGMENT PARA USE32 PUBLIC 'CODE'
_TEXT	ENDS
;	COMDAT ??_GCGdiPlusBitmap@@UAEPAXI@Z
_TEXT	SEGMENT PARA USE32 PUBLIC 'CODE'
_TEXT	ENDS
;	COMDAT ??1IData@@MAE@XZ
_TEXT	SEGMENT PARA USE32 PUBLIC 'CODE'
_TEXT	ENDS
;	COMDAT ?DataAppStart@IData@@UAEXXZ
_TEXT	SEGMENT PARA USE32 PUBLIC 'CODE'
_TEXT	ENDS
;	COMDAT ?DataAppExit@IData@@UAEXXZ
_TEXT	SEGMENT PARA USE32 PUBLIC 'CODE'
_TEXT	ENDS
;	COMDAT ??_GIData@@MAEPAXI@Z
_TEXT	SEGMENT PARA USE32 PUBLIC 'CODE'
_TEXT	ENDS
;	COMDAT ?OnCliekButton@IEventListener@@UAEXPAVCButton@@@Z
_TEXT	SEGMENT PARA USE32 PUBLIC 'CODE'
_TEXT	ENDS
;	COMDAT ?OnCliekSlide@IEventListener@@UAEXPAVCSliderCtrl@@@Z
_TEXT	SEGMENT PARA USE32 PUBLIC 'CODE'
_TEXT	ENDS
;	COMDAT ?OnSendChangeColor@IEventListener@@UAEXKI_N@Z
_TEXT	SEGMENT PARA USE32 PUBLIC 'CODE'
_TEXT	ENDS
;	COMDAT ?OnSendChangeSkin@IEventListener@@UAEXV?$CStringT@DV?$StrTraitMFC_DLL@DV?$ChTraitsCRT@D@ATL@@@@@ATL@@@Z
_TEXT	SEGMENT PARA USE32 PUBLIC 'CODE'
_TEXT	ENDS
;	COMDAT ?OnSendChangeSubject@IEventListener@@UAEXV?$CStringT@DV?$StrTraitMFC_DLL@DV?$ChTraitsCRT@D@ATL@@@@@ATL@@0@Z
_TEXT	SEGMENT PARA USE32 PUBLIC 'CODE'
_TEXT	ENDS
;	COMDAT ?OnChangeSkinAndSub@IEventListener@@UAEXABV?$CStringT@DV?$StrTraitMFC_DLL@DV?$ChTraitsCRT@D@ATL@@@@@ATL@@0@Z
_TEXT	SEGMENT PARA USE32 PUBLIC 'CODE'
_TEXT	ENDS
;	COMDAT ?OnStartDownSubject@IEventListener@@UAEXABV?$CStringT@DV?$StrTraitMFC_DLL@DV?$ChTraitsCRT@D@ATL@@@@@ATL@@@Z
_TEXT	SEGMENT PARA USE32 PUBLIC 'CODE'
_TEXT	ENDS
;	COMDAT ?OnFinishDownSubject@IEventListener@@UAEXH@Z
_TEXT	SEGMENT PARA USE32 PUBLIC 'CODE'
_TEXT	ENDS
;	COMDAT ?OnChangeSkinTemplate@IWndEventListener@@UAE_NV?$CStringT@DV?$StrTraitMFC_DLL@DV?$ChTraitsCRT@D@ATL@@@@@ATL@@@Z
_TEXT	SEGMENT PARA USE32 PUBLIC 'CODE'
_TEXT	ENDS
;	COMDAT ?OnchangeColor@IWndEventListener@@UAEXKI@Z
_TEXT	SEGMENT PARA USE32 PUBLIC 'CODE'
_TEXT	ENDS
;	COMDAT ?SetListener@CMainSkinWnd@@QAEXPAVIEventListener@@@Z
_TEXT	SEGMENT PARA USE32 PUBLIC 'CODE'
_TEXT	ENDS
;	COMDAT ?SetWndListener@CMainSkinWnd@@QAEXPAVIWndEventListener@@@Z
_TEXT	SEGMENT PARA USE32 PUBLIC 'CODE'
_TEXT	ENDS
;	COMDAT ??1CGdiPlusBitmap@CSkinButton@@UAE@XZ
_TEXT	SEGMENT PARA USE32 PUBLIC 'CODE'
_TEXT	ENDS
;	COMDAT ?Empty@CGdiPlusBitmap@CSkinButton@@QAEXXZ
_TEXT	SEGMENT PARA USE32 PUBLIC 'CODE'
_TEXT	ENDS
;	COMDAT ?Load@CGdiPlusBitmap@CSkinButton@@QAE_NPB_W@Z
_TEXT	SEGMENT PARA USE32 PUBLIC 'CODE'
_TEXT	ENDS
;	COMDAT ??_GCGdiPlusBitmap@CSkinButton@@UAEPAXI@Z
_TEXT	SEGMENT PARA USE32 PUBLIC 'CODE'
_TEXT	ENDS
;	COMDAT ?SetSendEventListener@CSkinWnd@@QAEXPAVIEventListener@@@Z
_TEXT	SEGMENT PARA USE32 PUBLIC 'CODE'
_TEXT	ENDS
;	COMDAT ?SetSendEventListener@CSubjectChildWnd@@QAEXPAVIEventListener@@@Z
_TEXT	SEGMENT PARA USE32 PUBLIC 'CODE'
_TEXT	ENDS
;	COMDAT ??1HTTPObserver@@UAE@XZ
_TEXT	SEGMENT PARA USE32 PUBLIC 'CODE'
_TEXT	ENDS
;	COMDAT ?HTTPOb_DownStart@HTTPObserver@@UAEXPBD0I@Z
_TEXT	SEGMENT PARA USE32 PUBLIC 'CODE'
_TEXT	ENDS
;	COMDAT ?HTTPOb_DownFinish@HTTPObserver@@UAEXPBD@Z
_TEXT	SEGMENT PARA USE32 PUBLIC 'CODE'
_TEXT	ENDS
;	COMDAT ?HTTPOb_DownFailed@HTTPObserver@@UAEXPBDW4HTTP_DOWN_FAILED_REASON@@@Z
_TEXT	SEGMENT PARA USE32 PUBLIC 'CODE'
_TEXT	ENDS
;	COMDAT ?HTTPOb_DownProgress@HTTPObserver@@UAEXPBDII@Z
_TEXT	SEGMENT PARA USE32 PUBLIC 'CODE'
_TEXT	ENDS
;	COMDAT ?HTTPOb_DownloadPause@HTTPObserver@@UAEXPBD@Z
_TEXT	SEGMENT PARA USE32 PUBLIC 'CODE'
_TEXT	ENDS
;	COMDAT ??_GHTTPObserver@@UAEPAXI@Z
_TEXT	SEGMENT PARA USE32 PUBLIC 'CODE'
_TEXT	ENDS
;	COMDAT ?SetEventListener@CDownloadPercentWnd@@QAEXPAVIEventListener@@@Z
_TEXT	SEGMENT PARA USE32 PUBLIC 'CODE'
_TEXT	ENDS
;	COMDAT ??1P2PObserver@@UAE@XZ
_TEXT	SEGMENT PARA USE32 PUBLIC 'CODE'
_TEXT	ENDS
;	COMDAT ?P2POb_DownStart@P2PObserver@@UAEXABV?$basic_string@DU?$char_traits@D@std@@V?$allocator@D@2@@std@@PBDI@Z
_TEXT	SEGMENT PARA USE32 PUBLIC 'CODE'
_TEXT	ENDS
;	COMDAT ?P2POb_DownFinish@P2PObserver@@UAEXABV?$basic_string@DU?$char_traits@D@std@@V?$allocator@D@2@@std@@@Z
_TEXT	SEGMENT PARA USE32 PUBLIC 'CODE'
_TEXT	ENDS
;	COMDAT ?P2POb_DownFailed@P2PObserver@@UAEXABV?$basic_string@DU?$char_traits@D@std@@V?$allocator@D@2@@std@@W4P2P_DOWN_FAILED_REASON@@@Z
_TEXT	SEGMENT PARA USE32 PUBLIC 'CODE'
_TEXT	ENDS
;	COMDAT ?P2POb_DownProgress@P2PObserver@@UAEXABV?$basic_string@DU?$char_traits@D@std@@V?$allocator@D@2@@std@@III@Z
_TEXT	SEGMENT PARA USE32 PUBLIC 'CODE'
_TEXT	ENDS
;	COMDAT ?P2POb_DownPause@P2PObserver@@UAEXABV?$basic_string@DU?$char_traits@D@std@@V?$allocator@D@2@@std@@@Z
_TEXT	SEGMENT PARA USE32 PUBLIC 'CODE'
_TEXT	ENDS
;	COMDAT ?P2POb_SigChange@P2PObserver@@UAEXABV?$basic_string@DU?$char_traits@D@std@@V?$allocator@D@2@@std@@0PBD@Z
_TEXT	SEGMENT PARA USE32 PUBLIC 'CODE'
_TEXT	ENDS
;	COMDAT ??_GP2PObserver@@UAEPAXI@Z
_TEXT	SEGMENT PARA USE32 PUBLIC 'CODE'
_TEXT	ENDS
;	COMDAT ?ILayoutChangeOb_LayerChanged@ILayoutChangeObserver@@UAEXV?$basic_string@DU?$char_traits@D@std@@V?$allocator@D@2@@std@@00@Z
_TEXT	SEGMENT PARA USE32 PUBLIC 'CODE'
_TEXT	ENDS
;	COMDAT ?ILayoutChangeOb_PaneChanged@ILayoutChangeObserver@@UAEXV?$basic_string@DU?$char_traits@D@std@@V?$allocator@D@2@@std@@0@Z
_TEXT	SEGMENT PARA USE32 PUBLIC 'CODE'
_TEXT	ENDS
;	COMDAT ?ILayoutChangeOb_SkinChanged@ILayoutChangeObserver@@UAEXV?$basic_string@DU?$char_traits@D@std@@V?$allocator@D@2@@std@@0@Z
_TEXT	SEGMENT PARA USE32 PUBLIC 'CODE'
_TEXT	ENDS
;	COMDAT ?ILayoutChangeOb_ColorChanged@ILayoutChangeObserver@@UAEXXZ
_TEXT	SEGMENT PARA USE32 PUBLIC 'CODE'
_TEXT	ENDS
;	COMDAT ?ILayoutChangeOb_ColorChanging@ILayoutChangeObserver@@UAEXXZ
_TEXT	SEGMENT PARA USE32 PUBLIC 'CODE'
_TEXT	ENDS
;	COMDAT ?ILayoutChangeOb_UpdateLayout@ILayoutChangeObserver@@UAEXPAUHWND__@@@Z
_TEXT	SEGMENT PARA USE32 PUBLIC 'CODE'
_TEXT	ENDS
;	COMDAT ?ILayoutChangeOb_InitFinished@ILayoutChangeObserver@@UAEXXZ
_TEXT	SEGMENT PARA USE32 PUBLIC 'CODE'
_TEXT	ENDS
;	COMDAT ?ILayoutChangeOb_InitBegin@ILayoutChangeObserver@@UAEXXZ
_TEXT	SEGMENT PARA USE32 PUBLIC 'CODE'
_TEXT	ENDS
;	COMDAT ?GetClsid@CShockwaveFlash@@QAEABU_GUID@@XZ
_TEXT	SEGMENT PARA USE32 PUBLIC 'CODE'
_TEXT	ENDS
;	COMDAT ?GetSkinWnd@CSkinMgrV1@@UAEPAVCWnd@@XZ
_TEXT	SEGMENT PARA USE32 PUBLIC 'CODE'
_TEXT	ENDS
;	COMDAT _$E5
text$yc	SEGMENT PARA USE32 PUBLIC 'CODE'
text$yc	ENDS
;	COMDAT ?SetMsg@CDialogMsg@@QAEXABV?$CStringT@DV?$StrTraitMFC_DLL@DV?$ChTraitsCRT@D@ATL@@@@@ATL@@@Z
_TEXT	SEGMENT PARA USE32 PUBLIC 'CODE'
_TEXT	ENDS
;	COMDAT ??_GCSkinMgrV1@@UAEPAXI@Z
_TEXT	SEGMENT PARA USE32 PUBLIC 'CODE'
_TEXT	ENDS
;	COMDAT ??0IChangeColorMgr@@QAE@XZ
_TEXT	SEGMENT PARA USE32 PUBLIC 'CODE'
_TEXT	ENDS
;	COMDAT ??0P2PObserver@@QAE@XZ
_TEXT	SEGMENT PARA USE32 PUBLIC 'CODE'
_TEXT	ENDS
;	COMDAT ??0ILayoutChangeObserver@@QAE@XZ
_TEXT	SEGMENT PARA USE32 PUBLIC 'CODE'
_TEXT	ENDS
;	COMDAT ??1ILayoutChangeObserver@@UAE@XZ
_TEXT	SEGMENT PARA USE32 PUBLIC 'CODE'
_TEXT	ENDS
;	COMDAT ??0IWndEventListener@@QAE@XZ
_TEXT	SEGMENT PARA USE32 PUBLIC 'CODE'
_TEXT	ENDS
;	COMDAT ??0IEventListener@@QAE@XZ
_TEXT	SEGMENT PARA USE32 PUBLIC 'CODE'
_TEXT	ENDS
;	COMDAT ??_GILayoutChangeObserver@@UAEPAXI@Z
_TEXT	SEGMENT PARA USE32 PUBLIC 'CODE'
_TEXT	ENDS
;	COMDAT ??0IMessageObserver@@QAE@XZ
_TEXT	SEGMENT PARA USE32 PUBLIC 'CODE'
_TEXT	ENDS
;	COMDAT ??HATL@@YA?AV?$CStringT@DV?$StrTraitMFC_DLL@DV?$ChTraitsCRT@D@ATL@@@@@0@ABV10@PBD@Z
_TEXT	SEGMENT PARA USE32 PUBLIC 'CODE'
_TEXT	ENDS
;	COMDAT ??HATL@@YA?AV?$CStringT@DV?$StrTraitMFC_DLL@DV?$ChTraitsCRT@D@ATL@@@@@0@PBDABV10@@Z
_TEXT	SEGMENT PARA USE32 PUBLIC 'CODE'
_TEXT	ENDS
;	COMDAT ??9ATL@@YA_NABV?$CStringT@DV?$StrTraitMFC_DLL@DV?$ChTraitsCRT@D@ATL@@@@@0@PBD@Z
_TEXT	SEGMENT PARA USE32 PUBLIC 'CODE'
_TEXT	ENDS
;	COMDAT ?size@?$vector@UOneSubject@@V?$allocator@UOneSubject@@@std@@@std@@QBEIXZ
_TEXT	SEGMENT PARA USE32 PUBLIC 'CODE'
_TEXT	ENDS
;	COMDAT ??A?$vector@UOneSubject@@V?$allocator@UOneSubject@@@std@@@std@@QAEAAUOneSubject@@I@Z
_TEXT	SEGMENT PARA USE32 PUBLIC 'CODE'
_TEXT	ENDS
;	COMDAT ??B?$CComPtrBase@UITypeInfo2@@@ATL@@QBEPAUITypeInfo2@@XZ
_TEXT	SEGMENT PARA USE32 PUBLIC 'CODE'
_TEXT	ENDS
;	COMDAT ?equal@?$istreambuf_iterator@DU?$char_traits@D@std@@@std@@QBE_NABV12@@Z
_TEXT	SEGMENT PARA USE32 PUBLIC 'CODE'
_TEXT	ENDS
;	COMDAT ?equal@?$istreambuf_iterator@_WU?$char_traits@_W@std@@@std@@QBE_NABV12@@Z
_TEXT	SEGMENT PARA USE32 PUBLIC 'CODE'
_TEXT	ENDS
;	COMDAT ??0?$vector@PAVIChangeSkinEventListener@@V?$allocator@PAVIChangeSkinEventListener@@@std@@@std@@QAE@XZ
_TEXT	SEGMENT PARA USE32 PUBLIC 'CODE'
_TEXT	ENDS
;	COMDAT ??1?$vector@PAVIChangeSkinEventListener@@V?$allocator@PAVIChangeSkinEventListener@@@std@@@std@@QAE@XZ
_TEXT	SEGMENT PARA USE32 PUBLIC 'CODE'
_TEXT	ENDS
;	COMDAT ?begin@?$vector@PAVIChangeSkinEventListener@@V?$allocator@PAVIChangeSkinEventListener@@@std@@@std@@QAE?AViterator@12@XZ
_TEXT	SEGMENT PARA USE32 PUBLIC 'CODE'
_TEXT	ENDS
;	COMDAT ?end@?$vector@PAVIChangeSkinEventListener@@V?$allocator@PAVIChangeSkinEventListener@@@std@@@std@@QAE?AViterator@12@XZ
_TEXT	SEGMENT PARA USE32 PUBLIC 'CODE'
_TEXT	ENDS
;	COMDAT ?size@?$vector@PAVIChangeSkinEventListener@@V?$allocator@PAVIChangeSkinEventListener@@@std@@@std@@QBEIXZ
_TEXT	SEGMENT PARA USE32 PUBLIC 'CODE'
_TEXT	ENDS
;	COMDAT ??A?$vector@PAVIChangeSkinEventListener@@V?$allocator@PAVIChangeSkinEventListener@@@std@@@std@@QAEAAPAVIChangeSkinEventListener@@I@Z
_TEXT	SEGMENT PARA USE32 PUBLIC 'CODE'
_TEXT	ENDS
;	COMDAT ?push_back@?$vector@PAVIChangeSkinEventListener@@V?$allocator@PAVIChangeSkinEventListener@@@std@@@std@@QAEXABQAVIChangeSkinEventListener@@@Z
_TEXT	SEGMENT PARA USE32 PUBLIC 'CODE'
_TEXT	ENDS
;	COMDAT ?erase@?$vector@PAVIChangeSkinEventListener@@V?$allocator@PAVIChangeSkinEventListener@@@std@@@std@@QAE?AViterator@12@V312@@Z
_TEXT	SEGMENT PARA USE32 PUBLIC 'CODE'
_TEXT	ENDS
;	COMDAT ??Diterator@?$vector@PAVIChangeSkinEventListener@@V?$allocator@PAVIChangeSkinEventListener@@@std@@@std@@QBEAAPAVIChangeSkinEventListener@@XZ
_TEXT	SEGMENT PARA USE32 PUBLIC 'CODE'
_TEXT	ENDS
;	COMDAT ??Eiterator@?$vector@PAVIChangeSkinEventListener@@V?$allocator@PAVIChangeSkinEventListener@@@std@@@std@@QAE?AV012@H@Z
_TEXT	SEGMENT PARA USE32 PUBLIC 'CODE'
_TEXT	ENDS
;	COMDAT ??9const_iterator@?$vector@PAVIChangeSkinEventListener@@V?$allocator@PAVIChangeSkinEventListener@@@std@@@std@@QBE_NABV012@@Z
_TEXT	SEGMENT PARA USE32 PUBLIC 'CODE'
_TEXT	ENDS
;	COMDAT ??0?$vector@V?$basic_string@DU?$char_traits@D@std@@V?$allocator@D@2@@std@@V?$allocator@V?$basic_string@DU?$char_traits@D@std@@V?$allocator@D@2@@std@@@2@@std@@QAE@XZ
_TEXT	SEGMENT PARA USE32 PUBLIC 'CODE'
_TEXT	ENDS
;	COMDAT ??1?$vector@V?$basic_string@DU?$char_traits@D@std@@V?$allocator@D@2@@std@@V?$allocator@V?$basic_string@DU?$char_traits@D@std@@V?$allocator@D@2@@std@@@2@@std@@QAE@XZ
_TEXT	SEGMENT PARA USE32 PUBLIC 'CODE'
_TEXT	ENDS
;	COMDAT ?CharNextA@?$ChTraitsCRT@D@ATL@@SAPADPBD@Z
_TEXT	SEGMENT PARA USE32 PUBLIC 'CODE'
_TEXT	ENDS
;	COMDAT ?StringFindString@?$ChTraitsCRT@D@ATL@@SAPBDPBD0@Z
_TEXT	SEGMENT PARA USE32 PUBLIC 'CODE'
_TEXT	ENDS
;	COMDAT ?StringFindString@?$ChTraitsCRT@D@ATL@@SAPADPADPBD@Z
_TEXT	SEGMENT PARA USE32 PUBLIC 'CODE'
_TEXT	ENDS
;	COMDAT ?StringFindChar@?$ChTraitsCRT@D@ATL@@SAPBDPBDD@Z
_TEXT	SEGMENT PARA USE32 PUBLIC 'CODE'
_TEXT	ENDS
;	COMDAT ?StringFindCharRev@?$ChTraitsCRT@D@ATL@@SAPBDPBDD@Z
_TEXT	SEGMENT PARA USE32 PUBLIC 'CODE'
_TEXT	ENDS
;	COMDAT ?StringSpanIncluding@?$ChTraitsCRT@D@ATL@@SAHPBD0@Z
_TEXT	SEGMENT PARA USE32 PUBLIC 'CODE'
_TEXT	ENDS
;	COMDAT ?StringSpanExcluding@?$ChTraitsCRT@D@ATL@@SAHPBD0@Z
_TEXT	SEGMENT PARA USE32 PUBLIC 'CODE'
_TEXT	ENDS
;	COMDAT ?SafeStringLen@?$ChTraitsCRT@D@ATL@@SAHPBD@Z
_TEXT	SEGMENT PARA USE32 PUBLIC 'CODE'
_TEXT	ENDS
;	COMDAT ?begin@?$vector@UOneSubject@@V?$allocator@UOneSubject@@@std@@@std@@QAE?AViterator@12@XZ
_TEXT	SEGMENT PARA USE32 PUBLIC 'CODE'
_TEXT	ENDS
;	COMDAT ??0?$allocator@V?$basic_string@DU?$char_traits@D@std@@V?$allocator@D@2@@std@@@std@@QAE@XZ
_TEXT	SEGMENT PARA USE32 PUBLIC 'CODE'
_TEXT	ENDS
;	COMDAT ?capacity@?$vector@PAVIChangeSkinEventListener@@V?$allocator@PAVIChangeSkinEventListener@@@std@@@std@@QBEIXZ
_TEXT	SEGMENT PARA USE32 PUBLIC 'CODE'
_TEXT	ENDS
;	COMDAT ?insert@?$vector@PAVIChangeSkinEventListener@@V?$allocator@PAVIChangeSkinEventListener@@@std@@@std@@QAE?AViterator@12@V312@ABQAVIChangeSkinEventListener@@@Z
_TEXT	SEGMENT PARA USE32 PUBLIC 'CODE'
_TEXT	ENDS
;	COMDAT ?_Buy@?$vector@PAVIChangeSkinEventListener@@V?$allocator@PAVIChangeSkinEventListener@@@std@@@std@@IAE_NI@Z
_TEXT	SEGMENT PARA USE32 PUBLIC 'CODE'
_TEXT	ENDS
;	COMDAT ?_Destroy@?$vector@PAVIChangeSkinEventListener@@V?$allocator@PAVIChangeSkinEventListener@@@std@@@std@@IAEXPAPAVIChangeSkinEventListener@@0@Z
_TEXT	SEGMENT PARA USE32 PUBLIC 'CODE'
_TEXT	ENDS
;	COMDAT ?_Tidy@?$vector@PAVIChangeSkinEventListener@@V?$allocator@PAVIChangeSkinEventListener@@@std@@@std@@IAEXXZ
_TEXT	SEGMENT PARA USE32 PUBLIC 'CODE'
_TEXT	ENDS
;	COMDAT ?_Ufill@?$vector@PAVIChangeSkinEventListener@@V?$allocator@PAVIChangeSkinEventListener@@@std@@@std@@IAEPAPAVIChangeSkinEventListener@@PAPAV3@IABQAV3@@Z
_TEXT	SEGMENT PARA USE32 PUBLIC 'CODE'
_TEXT	ENDS
;	COMDAT ??0?$_Vector_val@PAVIChangeSkinEventListener@@V?$allocator@PAVIChangeSkinEventListener@@@std@@@std@@IAE@V?$allocator@PAVIChangeSkinEventListener@@@1@@Z
_TEXT	SEGMENT PARA USE32 PUBLIC 'CODE'
_TEXT	ENDS
;	COMDAT ??0?$allocator@PAVIChangeSkinEventListener@@@std@@QAE@XZ
_TEXT	SEGMENT PARA USE32 PUBLIC 'CODE'
_TEXT	ENDS
;	COMDAT ??0iterator@?$vector@PAVIChangeSkinEventListener@@V?$allocator@PAVIChangeSkinEventListener@@@std@@@std@@QAE@PAPAVIChangeSkinEventListener@@@Z
_TEXT	SEGMENT PARA USE32 PUBLIC 'CODE'
_TEXT	ENDS
;	COMDAT ??Eiterator@?$vector@PAVIChangeSkinEventListener@@V?$allocator@PAVIChangeSkinEventListener@@@std@@@std@@QAEAAV012@XZ
_TEXT	SEGMENT PARA USE32 PUBLIC 'CODE'
_TEXT	ENDS
;	COMDAT ??Hiterator@?$vector@PAVIChangeSkinEventListener@@V?$allocator@PAVIChangeSkinEventListener@@@std@@@std@@QBE?AV012@H@Z
_TEXT	SEGMENT PARA USE32 PUBLIC 'CODE'
_TEXT	ENDS
;	COMDAT ??Dconst_iterator@?$vector@PAVIChangeSkinEventListener@@V?$allocator@PAVIChangeSkinEventListener@@@std@@@std@@QBEABQAVIChangeSkinEventListener@@XZ
_TEXT	SEGMENT PARA USE32 PUBLIC 'CODE'
_TEXT	ENDS
;	COMDAT ??8const_iterator@?$vector@PAVIChangeSkinEventListener@@V?$allocator@PAVIChangeSkinEventListener@@@std@@@std@@QBE_NABV012@@Z
_TEXT	SEGMENT PARA USE32 PUBLIC 'CODE'
_TEXT	ENDS
;	COMDAT ?_Buy@?$vector@V?$basic_string@DU?$char_traits@D@std@@V?$allocator@D@2@@std@@V?$allocator@V?$basic_string@DU?$char_traits@D@std@@V?$allocator@D@2@@std@@@2@@std@@IAE_NI@Z
_TEXT	SEGMENT PARA USE32 PUBLIC 'CODE'
_TEXT	ENDS
;	COMDAT ?_Tidy@?$vector@V?$basic_string@DU?$char_traits@D@std@@V?$allocator@D@2@@std@@V?$allocator@V?$basic_string@DU?$char_traits@D@std@@V?$allocator@D@2@@std@@@2@@std@@IAEXXZ
_TEXT	SEGMENT PARA USE32 PUBLIC 'CODE'
_TEXT	ENDS
;	COMDAT ??0?$_Vector_val@V?$basic_string@DU?$char_traits@D@std@@V?$allocator@D@2@@std@@V?$allocator@V?$basic_string@DU?$char_traits@D@std@@V?$allocator@D@2@@std@@@2@@std@@IAE@V?$allocator@V?$basic_string@DU?$char_traits@D@std@@V?$allocator@D@2@@std@@@1@@Z
_TEXT	SEGMENT PARA USE32 PUBLIC 'CODE'
_TEXT	ENDS
;	COMDAT ??Diterator@?$vector@UOneSubject@@V?$allocator@UOneSubject@@@std@@@std@@QBEAAUOneSubject@@XZ
_TEXT	SEGMENT PARA USE32 PUBLIC 'CODE'
_TEXT	ENDS
;	COMDAT ??Hiterator@?$vector@UOneSubject@@V?$allocator@UOneSubject@@@std@@@std@@QBE?AV012@H@Z
_TEXT	SEGMENT PARA USE32 PUBLIC 'CODE'
_TEXT	ENDS
;	COMDAT ?StringCompare@?$ChTraitsCRT@D@ATL@@SAHPBD0@Z
_TEXT	SEGMENT PARA USE32 PUBLIC 'CODE'
_TEXT	ENDS
;	COMDAT ??0?$allocator@V?$basic_string@DU?$char_traits@D@std@@V?$allocator@D@2@@std@@@std@@QAE@ABV01@@Z
_TEXT	SEGMENT PARA USE32 PUBLIC 'CODE'
_TEXT	ENDS
;	COMDAT ?deallocate@?$allocator@V?$basic_string@DU?$char_traits@D@std@@V?$allocator@D@2@@std@@@std@@QAEXPAV?$basic_string@DU?$char_traits@D@std@@V?$allocator@D@2@@2@I@Z
_TEXT	SEGMENT PARA USE32 PUBLIC 'CODE'
_TEXT	ENDS
;	COMDAT ?allocate@?$allocator@V?$basic_string@DU?$char_traits@D@std@@V?$allocator@D@2@@std@@@std@@QAEPAV?$basic_string@DU?$char_traits@D@std@@V?$allocator@D@2@@2@I@Z
_TEXT	SEGMENT PARA USE32 PUBLIC 'CODE'
_TEXT	ENDS
;	COMDAT ?max_size@?$vector@PAVIChangeSkinEventListener@@V?$allocator@PAVIChangeSkinEventListener@@@std@@@std@@QBEIXZ
_TEXT	SEGMENT PARA USE32 PUBLIC 'CODE'
_TEXT	ENDS
;	COMDAT ?_Insert_n@?$vector@PAVIChangeSkinEventListener@@V?$allocator@PAVIChangeSkinEventListener@@@std@@@std@@IAEXViterator@12@IABQAVIChangeSkinEventListener@@@Z
_TEXT	SEGMENT PARA USE32 PUBLIC 'CODE'
_TEXT	ENDS
;	COMDAT ?_Xlen@?$vector@PAVIChangeSkinEventListener@@V?$allocator@PAVIChangeSkinEventListener@@@std@@@std@@IBEXXZ
_TEXT	SEGMENT PARA USE32 PUBLIC 'CODE'
_TEXT	ENDS
;	COMDAT ??0?$allocator@PAVIChangeSkinEventListener@@@std@@QAE@ABV01@@Z
_TEXT	SEGMENT PARA USE32 PUBLIC 'CODE'
_TEXT	ENDS
;	COMDAT ?deallocate@?$allocator@PAVIChangeSkinEventListener@@@std@@QAEXPAPAVIChangeSkinEventListener@@I@Z
_TEXT	SEGMENT PARA USE32 PUBLIC 'CODE'
_TEXT	ENDS
;	COMDAT ?allocate@?$allocator@PAVIChangeSkinEventListener@@@std@@QAEPAPAVIChangeSkinEventListener@@I@Z
_TEXT	SEGMENT PARA USE32 PUBLIC 'CODE'
_TEXT	ENDS
;	COMDAT ??Yiterator@?$vector@PAVIChangeSkinEventListener@@V?$allocator@PAVIChangeSkinEventListener@@@std@@@std@@QAEAAV012@H@Z
_TEXT	SEGMENT PARA USE32 PUBLIC 'CODE'
_TEXT	ENDS
;	COMDAT ??Giterator@?$vector@PAVIChangeSkinEventListener@@V?$allocator@PAVIChangeSkinEventListener@@@std@@@std@@QBEHABVconst_iterator@12@@Z
_TEXT	SEGMENT PARA USE32 PUBLIC 'CODE'
_TEXT	ENDS
;	COMDAT ??0const_iterator@?$vector@PAVIChangeSkinEventListener@@V?$allocator@PAVIChangeSkinEventListener@@@std@@@std@@QAE@PAPAVIChangeSkinEventListener@@@Z
_TEXT	SEGMENT PARA USE32 PUBLIC 'CODE'
_TEXT	ENDS
;	COMDAT ?max_size@?$vector@V?$basic_string@DU?$char_traits@D@std@@V?$allocator@D@2@@std@@V?$allocator@V?$basic_string@DU?$char_traits@D@std@@V?$allocator@D@2@@std@@@2@@std@@QBEIXZ
_TEXT	SEGMENT PARA USE32 PUBLIC 'CODE'
_TEXT	ENDS
;	COMDAT ?_Destroy@?$vector@V?$basic_string@DU?$char_traits@D@std@@V?$allocator@D@2@@std@@V?$allocator@V?$basic_string@DU?$char_traits@D@std@@V?$allocator@D@2@@std@@@2@@std@@IAEXPAV?$basic_string@DU?$char_traits@D@std@@V?$allocator@D@2@@2@0@Z
_TEXT	SEGMENT PARA USE32 PUBLIC 'CODE'
_TEXT	ENDS
;	COMDAT ?_Xlen@?$vector@V?$basic_string@DU?$char_traits@D@std@@V?$allocator@D@2@@std@@V?$allocator@V?$basic_string@DU?$char_traits@D@std@@V?$allocator@D@2@@std@@@2@@std@@IBEXXZ
_TEXT	SEGMENT PARA USE32 PUBLIC 'CODE'
_TEXT	ENDS
;	COMDAT ??0iterator@?$vector@UOneSubject@@V?$allocator@UOneSubject@@@std@@@std@@QAE@PAUOneSubject@@@Z
_TEXT	SEGMENT PARA USE32 PUBLIC 'CODE'
_TEXT	ENDS
;	COMDAT ??Yiterator@?$vector@UOneSubject@@V?$allocator@UOneSubject@@@std@@@std@@QAEAAV012@H@Z
_TEXT	SEGMENT PARA USE32 PUBLIC 'CODE'
_TEXT	ENDS
;	COMDAT ??Dconst_iterator@?$vector@UOneSubject@@V?$allocator@UOneSubject@@@std@@@std@@QBEABUOneSubject@@XZ
_TEXT	SEGMENT PARA USE32 PUBLIC 'CODE'
_TEXT	ENDS
;	COMDAT ??0length_error@std@@QAE@ABV01@@Z
_TEXT	SEGMENT PARA USE32 PUBLIC 'CODE'
_TEXT	ENDS
;	COMDAT ?max_size@?$allocator@V?$basic_string@DU?$char_traits@D@std@@V?$allocator@D@2@@std@@@std@@QBEIXZ
_TEXT	SEGMENT PARA USE32 PUBLIC 'CODE'
_TEXT	ENDS
;	COMDAT ?max_size@?$allocator@PAVIChangeSkinEventListener@@@std@@QBEIXZ
_TEXT	SEGMENT PARA USE32 PUBLIC 'CODE'
_TEXT	ENDS
;	COMDAT ??Gconst_iterator@?$vector@PAVIChangeSkinEventListener@@V?$allocator@PAVIChangeSkinEventListener@@@std@@@std@@QBEHABV012@@Z
_TEXT	SEGMENT PARA USE32 PUBLIC 'CODE'
_TEXT	ENDS
;	COMDAT ??0const_iterator@?$vector@UOneSubject@@V?$allocator@UOneSubject@@@std@@@std@@QAE@PAUOneSubject@@@Z
_TEXT	SEGMENT PARA USE32 PUBLIC 'CODE'
_TEXT	ENDS
;	COMDAT ?Unlock@?$CComCritSecLock@VCComCriticalSection@ATL@@@ATL@@QAEXXZ
_TEXT	SEGMENT PARA USE32 PUBLIC 'CODE'
_TEXT	ENDS
;	COMDAT ??$copy@PAPAVIChangeSkinEventListener@@PAPAV1@@std@@YAPAPAVIChangeSkinEventListener@@PAPAV1@00@Z
_TEXT	SEGMENT PARA USE32 PUBLIC 'CODE'
_TEXT	ENDS
;	COMDAT ??$_Destroy_range@PAVIChangeSkinEventListener@@V?$allocator@PAVIChangeSkinEventListener@@@std@@@std@@YAXPAPAVIChangeSkinEventListener@@0AAV?$allocator@PAVIChangeSkinEventListener@@@0@@Z
_TEXT	SEGMENT PARA USE32 PUBLIC 'CODE'
_TEXT	ENDS
;	COMDAT ??$_Uninitialized_fill_n@PAPAVIChangeSkinEventListener@@IPAV1@V?$allocator@PAVIChangeSkinEventListener@@@std@@@std@@YAXPAPAVIChangeSkinEventListener@@IABQAV1@AAV?$allocator@PAVIChangeSkinEventListener@@@0@@Z
_TEXT	SEGMENT PARA USE32 PUBLIC 'CODE'
_TEXT	ENDS
;	COMDAT ??$_Maklocstr@D@std@@YAPADPBDPADABU_Cvtvec@@@Z
_TEXT	SEGMENT PARA USE32 PUBLIC 'CODE'
_TEXT	ENDS
;	COMDAT ??$_Allocate@V?$basic_string@DU?$char_traits@D@std@@V?$allocator@D@2@@std@@@std@@YAPAV?$basic_string@DU?$char_traits@D@std@@V?$allocator@D@2@@0@IPAV10@@Z
_TEXT	SEGMENT PARA USE32 PUBLIC 'CODE'
_TEXT	ENDS
;	COMDAT ??$_Ucopy@PAPAVIChangeSkinEventListener@@@?$vector@PAVIChangeSkinEventListener@@V?$allocator@PAVIChangeSkinEventListener@@@std@@@std@@IAEPAPAVIChangeSkinEventListener@@PAPAV2@00@Z
_TEXT	SEGMENT PARA USE32 PUBLIC 'CODE'
_TEXT	ENDS
;	COMDAT ??$fill@PAPAVIChangeSkinEventListener@@PAV1@@std@@YAXPAPAVIChangeSkinEventListener@@0ABQAV1@@Z
_TEXT	SEGMENT PARA USE32 PUBLIC 'CODE'
_TEXT	ENDS
;	COMDAT ??$copy_backward@PAPAVIChangeSkinEventListener@@PAPAV1@@std@@YAPAPAVIChangeSkinEventListener@@PAPAV1@00@Z
_TEXT	SEGMENT PARA USE32 PUBLIC 'CODE'
_TEXT	ENDS
;	COMDAT ??$_Allocate@PAVIChangeSkinEventListener@@@std@@YAPAPAVIChangeSkinEventListener@@IPAPAV1@@Z
_TEXT	SEGMENT PARA USE32 PUBLIC 'CODE'
_TEXT	ENDS
;	COMDAT ??$_Destroy_range@V?$basic_string@DU?$char_traits@D@std@@V?$allocator@D@2@@std@@V?$allocator@V?$basic_string@DU?$char_traits@D@std@@V?$allocator@D@2@@std@@@2@@std@@YAXPAV?$basic_string@DU?$char_traits@D@std@@V?$allocator@D@2@@0@0AAV?$allocator@V?$basic_string@DU?$char_traits@D@std@@V?$allocator@D@2@@std@@@0@@Z
_TEXT	SEGMENT PARA USE32 PUBLIC 'CODE'
_TEXT	ENDS
;	COMDAT ??$_Ptr_cat@VIChangeSkinEventListener@@@std@@YA?AU_Scalar_ptr_iterator_tag@0@PAPAVIChangeSkinEventListener@@0@Z
_TEXT	SEGMENT PARA USE32 PUBLIC 'CODE'
_TEXT	ENDS
;	COMDAT ??$_Copy_opt@PAPAVIChangeSkinEventListener@@PAPAV1@@std@@YAPAPAVIChangeSkinEventListener@@PAPAV1@00U_Scalar_ptr_iterator_tag@0@@Z
_TEXT	SEGMENT PARA USE32 PUBLIC 'CODE'
_TEXT	ENDS
;	COMDAT ??$_Destroy_range@PAVIChangeSkinEventListener@@V?$allocator@PAVIChangeSkinEventListener@@@std@@@std@@YAXPAPAVIChangeSkinEventListener@@0AAV?$allocator@PAVIChangeSkinEventListener@@@0@U_Scalar_ptr_iterator_tag@0@@Z
_TEXT	SEGMENT PARA USE32 PUBLIC 'CODE'
_TEXT	ENDS
;	COMDAT ??$_Uninit_fill_n@PAVIChangeSkinEventListener@@IPAV1@@std@@YAXPAPAVIChangeSkinEventListener@@IABQAV1@AAV?$allocator@PAVIChangeSkinEventListener@@@0@U_Scalar_ptr_iterator_tag@0@@Z
_TEXT	SEGMENT PARA USE32 PUBLIC 'CODE'
_TEXT	ENDS
;	COMDAT ??$_Uninitialized_copy@PAPAVIChangeSkinEventListener@@PAPAV1@V?$allocator@PAVIChangeSkinEventListener@@@std@@@std@@YAPAPAVIChangeSkinEventListener@@PAPAV1@00AAV?$allocator@PAVIChangeSkinEventListener@@@0@@Z
_TEXT	SEGMENT PARA USE32 PUBLIC 'CODE'
_TEXT	ENDS
;	COMDAT ??$_Copy_backward_opt@PAPAVIChangeSkinEventListener@@PAPAV1@@std@@YAPAPAVIChangeSkinEventListener@@PAPAV1@00U_Scalar_ptr_iterator_tag@0@@Z
_TEXT	SEGMENT PARA USE32 PUBLIC 'CODE'
_TEXT	ENDS
;	COMDAT ??$_Ptr_cat@PAV?$basic_string@DU?$char_traits@D@std@@V?$allocator@D@2@@std@@PAV12@@std@@YA?AU_Nonscalar_ptr_iterator_tag@0@AAPAV?$basic_string@DU?$char_traits@D@std@@V?$allocator@D@2@@0@0@Z
_TEXT	SEGMENT PARA USE32 PUBLIC 'CODE'
_TEXT	ENDS
;	COMDAT ??$_Destroy_range@V?$basic_string@DU?$char_traits@D@std@@V?$allocator@D@2@@std@@V?$allocator@V?$basic_string@DU?$char_traits@D@std@@V?$allocator@D@2@@std@@@2@@std@@YAXPAV?$basic_string@DU?$char_traits@D@std@@V?$allocator@D@2@@0@0AAV?$allocator@V?$basic_string@DU?$char_traits@D@std@@V?$allocator@D@2@@std@@@0@U_Nonscalar_ptr_iterator_tag@0@@Z
_TEXT	SEGMENT PARA USE32 PUBLIC 'CODE'
_TEXT	ENDS
;	COMDAT ?destroy@?$allocator@V?$basic_string@DU?$char_traits@D@std@@V?$allocator@D@2@@std@@@std@@QAEXPAV?$basic_string@DU?$char_traits@D@std@@V?$allocator@D@2@@2@@Z
_TEXT	SEGMENT PARA USE32 PUBLIC 'CODE'
_TEXT	ENDS
;	COMDAT ??$fill_n@PAPAVIChangeSkinEventListener@@IPAV1@@std@@YAXPAPAVIChangeSkinEventListener@@IABQAV1@@Z
_TEXT	SEGMENT PARA USE32 PUBLIC 'CODE'
_TEXT	ENDS
;	COMDAT ??$_Uninit_copy@PAVIChangeSkinEventListener@@PAV1@@std@@YAPAPAVIChangeSkinEventListener@@PAPAV1@00AAV?$allocator@PAVIChangeSkinEventListener@@@0@U_Scalar_ptr_iterator_tag@0@@Z
_TEXT	SEGMENT PARA USE32 PUBLIC 'CODE'
_TEXT	ENDS
;	COMDAT ??$_Destroy@V?$basic_string@DU?$char_traits@D@std@@V?$allocator@D@2@@std@@@std@@YAXPAV?$basic_string@DU?$char_traits@D@std@@V?$allocator@D@2@@0@@Z
_TEXT	SEGMENT PARA USE32 PUBLIC 'CODE'
_TEXT	ENDS
;	COMDAT ??_G?$basic_string@DU?$char_traits@D@std@@V?$allocator@D@2@@std@@QAEPAXI@Z
_TEXT	SEGMENT PARA USE32 PUBLIC 'CODE'
_TEXT	ENDS
;	COMDAT ??_ECSkinMgrV1@@W7AEPAXI@Z
_TEXT	SEGMENT PARA USE32 PUBLIC 'CODE'
_TEXT	ENDS
;	COMDAT ??_ECSkinMgrV1@@WM@AEPAXI@Z
_TEXT	SEGMENT PARA USE32 PUBLIC 'CODE'
_TEXT	ENDS
;	COMDAT ??_R3IChangeColorMgr@@8
rdata$r	SEGMENT DWORD USE32 PUBLIC 'CONST'
rdata$r	ENDS
;	COMDAT ??_R3DIBINFO@@8
rdata$r	SEGMENT DWORD USE32 PUBLIC 'CONST'
rdata$r	ENDS
;	COMDAT ??_R3CSkinMgrV1@@8
rdata$r	SEGMENT DWORD USE32 PUBLIC 'CONST'
rdata$r	ENDS
;	COMDAT ??_R3P2PObserver@@8
rdata$r	SEGMENT DWORD USE32 PUBLIC 'CONST'
rdata$r	ENDS
;	COMDAT ??_R3?$numpunct@_W@std@@8
rdata$r	SEGMENT DWORD USE32 PUBLIC 'CONST'
rdata$r	ENDS
;	COMDAT ??_R3?$numpunct@D@std@@8
rdata$r	SEGMENT DWORD USE32 PUBLIC 'CONST'
rdata$r	ENDS
;	COMDAT ??_R3IData@@8
rdata$r	SEGMENT DWORD USE32 PUBLIC 'CONST'
rdata$r	ENDS
;	COMDAT ??_R3CGdiPlusBitmap@CSkinButton@@8
rdata$r	SEGMENT DWORD USE32 PUBLIC 'CONST'
rdata$r	ENDS
;	COMDAT ??_R3HTTPObserver@@8
rdata$r	SEGMENT DWORD USE32 PUBLIC 'CONST'
rdata$r	ENDS
;	COMDAT ??_R3CGdiPlusBitmap@@8
rdata$r	SEGMENT DWORD USE32 PUBLIC 'CONST'
rdata$r	ENDS
;	COMDAT ??_R3ILayoutChangeObserver@@8
rdata$r	SEGMENT DWORD USE32 PUBLIC 'CONST'
rdata$r	ENDS
;	COMDAT ??_R3IWndEventListener@@8
rdata$r	SEGMENT DWORD USE32 PUBLIC 'CONST'
rdata$r	ENDS
;	COMDAT ??_R3IEventListener@@8
rdata$r	SEGMENT DWORD USE32 PUBLIC 'CONST'
rdata$r	ENDS
;	COMDAT ??_R2IChangeColorMgr@@8
rdata$r	SEGMENT DWORD USE32 PUBLIC 'CONST'
rdata$r	ENDS
;	COMDAT ??_R2DIBINFO@@8
rdata$r	SEGMENT DWORD USE32 PUBLIC 'CONST'
rdata$r	ENDS
;	COMDAT ??_R2CSkinMgrV1@@8
rdata$r	SEGMENT DWORD USE32 PUBLIC 'CONST'
rdata$r	ENDS
;	COMDAT ??_R2P2PObserver@@8
rdata$r	SEGMENT DWORD USE32 PUBLIC 'CONST'
rdata$r	ENDS
;	COMDAT ??_R2?$numpunct@_W@std@@8
rdata$r	SEGMENT DWORD USE32 PUBLIC 'CONST'
rdata$r	ENDS
;	COMDAT ??_R2?$numpunct@D@std@@8
rdata$r	SEGMENT DWORD USE32 PUBLIC 'CONST'
rdata$r	ENDS
;	COMDAT ??_R2IData@@8
rdata$r	SEGMENT DWORD USE32 PUBLIC 'CONST'
rdata$r	ENDS
;	COMDAT ??_R2CGdiPlusBitmap@CSkinButton@@8
rdata$r	SEGMENT DWORD USE32 PUBLIC 'CONST'
rdata$r	ENDS
;	COMDAT ??_R2HTTPObserver@@8
rdata$r	SEGMENT DWORD USE32 PUBLIC 'CONST'
rdata$r	ENDS
;	COMDAT ??_R2CGdiPlusBitmap@@8
rdata$r	SEGMENT DWORD USE32 PUBLIC 'CONST'
rdata$r	ENDS
;	COMDAT ??_R2ILayoutChangeObserver@@8
rdata$r	SEGMENT DWORD USE32 PUBLIC 'CONST'
rdata$r	ENDS
;	COMDAT ??_R2IWndEventListener@@8
rdata$r	SEGMENT DWORD USE32 PUBLIC 'CONST'
rdata$r	ENDS
;	COMDAT ??_R2IEventListener@@8
rdata$r	SEGMENT DWORD USE32 PUBLIC 'CONST'
rdata$r	ENDS
;	COMDAT ??_R1A@?0A@A@DIBINFO@@8
rdata$r	SEGMENT DWORD USE32 PUBLIC 'CONST'
rdata$r	ENDS
;	COMDAT ??_R1M@?0A@A@IMessageObserver@@8
rdata$r	SEGMENT DWORD USE32 PUBLIC 'CONST'
rdata$r	ENDS
;	COMDAT ??_R1M@?0A@A@ILayoutChangeObserver@@8
rdata$r	SEGMENT DWORD USE32 PUBLIC 'CONST'
rdata$r	ENDS
;	COMDAT ??_R17?0A@A@P2PObserver@@8
rdata$r	SEGMENT DWORD USE32 PUBLIC 'CONST'
rdata$r	ENDS
;	COMDAT ??_R13?0A@A@IEventListener@@8
rdata$r	SEGMENT DWORD USE32 PUBLIC 'CONST'
rdata$r	ENDS
;	COMDAT ??_R1A@?0A@A@IChangeColorMgr@@8
rdata$r	SEGMENT DWORD USE32 PUBLIC 'CONST'
rdata$r	ENDS
;	COMDAT ??_R1A@?0A@A@CSkinMgrV1@@8
rdata$r	SEGMENT DWORD USE32 PUBLIC 'CONST'
rdata$r	ENDS
;	COMDAT ??_R1A@?0A@A@P2PObserver@@8
rdata$r	SEGMENT DWORD USE32 PUBLIC 'CONST'
rdata$r	ENDS
;	COMDAT ??_R1A@?0A@A@?$numpunct@_W@std@@8
rdata$r	SEGMENT DWORD USE32 PUBLIC 'CONST'
rdata$r	ENDS
;	COMDAT ??_R1A@?0A@A@facet@locale@std@@8
rdata$r	SEGMENT DWORD USE32 PUBLIC 'CONST'
rdata$r	ENDS
;	COMDAT ??_R0?AVfacet@locale@std@@@8
_DATA	SEGMENT DWORD USE32 PUBLIC 'DATA'
_DATA	ENDS
;	COMDAT ??_R1A@?0A@A@?$numpunct@D@std@@8
rdata$r	SEGMENT DWORD USE32 PUBLIC 'CONST'
rdata$r	ENDS
;	COMDAT ??_R1A@?0A@A@IData@@8
rdata$r	SEGMENT DWORD USE32 PUBLIC 'CONST'
rdata$r	ENDS
;	COMDAT ??_R1A@?0A@A@CGdiPlusBitmap@CSkinButton@@8
rdata$r	SEGMENT DWORD USE32 PUBLIC 'CONST'
rdata$r	ENDS
;	COMDAT ??_R1A@?0A@A@HTTPObserver@@8
rdata$r	SEGMENT DWORD USE32 PUBLIC 'CONST'
rdata$r	ENDS
;	COMDAT ??_R1A@?0A@A@CGdiPlusBitmap@@8
rdata$r	SEGMENT DWORD USE32 PUBLIC 'CONST'
rdata$r	ENDS
;	COMDAT ??_R1A@?0A@A@IMessageObserver@@8
rdata$r	SEGMENT DWORD USE32 PUBLIC 'CONST'
rdata$r	ENDS
;	COMDAT ??_R1A@?0A@A@ILayoutChangeObserver@@8
rdata$r	SEGMENT DWORD USE32 PUBLIC 'CONST'
rdata$r	ENDS
;	COMDAT ??_R1A@?0A@A@IWndEventListener@@8
rdata$r	SEGMENT DWORD USE32 PUBLIC 'CONST'
rdata$r	ENDS
;	COMDAT ??_R1A@?0A@A@IEventListener@@8
rdata$r	SEGMENT DWORD USE32 PUBLIC 'CONST'
rdata$r	ENDS
;	COMDAT ??_R0?AVDIBINFO@@@8
_DATA	SEGMENT DWORD USE32 PUBLIC 'DATA'
_DATA	ENDS
;	COMDAT ??_R0?AVIMessageObserver@@@8
_DATA	SEGMENT DWORD USE32 PUBLIC 'DATA'
_DATA	ENDS
;	COMDAT ??_R0?AVIChangeColorMgr@@@8
_DATA	SEGMENT DWORD USE32 PUBLIC 'DATA'
_DATA	ENDS
;	COMDAT ??_R0?AVCSkinMgrV1@@@8
_DATA	SEGMENT DWORD USE32 PUBLIC 'DATA'
_DATA	ENDS
;	COMDAT ??_R0?AVP2PObserver@@@8
_DATA	SEGMENT DWORD USE32 PUBLIC 'DATA'
_DATA	ENDS
;	COMDAT ??_R0?AV?$numpunct@_W@std@@@8
_DATA	SEGMENT DWORD USE32 PUBLIC 'DATA'
_DATA	ENDS
;	COMDAT ??_R0?AV?$numpunct@D@std@@@8
_DATA	SEGMENT DWORD USE32 PUBLIC 'DATA'
_DATA	ENDS
;	COMDAT ??_R0?AVIData@@@8
_DATA	SEGMENT DWORD USE32 PUBLIC 'DATA'
_DATA	ENDS
;	COMDAT ??_R0?AVCGdiPlusBitmap@CSkinButton@@@8
_DATA	SEGMENT DWORD USE32 PUBLIC 'DATA'
_DATA	ENDS
;	COMDAT ??_R0?AVHTTPObserver@@@8
_DATA	SEGMENT DWORD USE32 PUBLIC 'DATA'
_DATA	ENDS
;	COMDAT ??_R0?AVCGdiPlusBitmap@@@8
_DATA	SEGMENT DWORD USE32 PUBLIC 'DATA'
_DATA	ENDS
;	COMDAT ??_R0?AVILayoutChangeObserver@@@8
_DATA	SEGMENT DWORD USE32 PUBLIC 'DATA'
_DATA	ENDS
;	COMDAT ??_R0?AVIWndEventListener@@@8
_DATA	SEGMENT DWORD USE32 PUBLIC 'DATA'
_DATA	ENDS
;	COMDAT ??_R0?AVIEventListener@@@8
_DATA	SEGMENT DWORD USE32 PUBLIC 'DATA'
_DATA	ENDS
;	COMDAT ??_R4IChangeColorMgr@@6BIEventListener@@@
rdata$r	SEGMENT DWORD USE32 PUBLIC 'CONST'
rdata$r	ENDS
;	COMDAT ??_R4IChangeColorMgr@@6BIWndEventListener@@@
rdata$r	SEGMENT DWORD USE32 PUBLIC 'CONST'
rdata$r	ENDS
;	COMDAT ??_R4DIBINFO@@6B@
rdata$r	SEGMENT DWORD USE32 PUBLIC 'CONST'
rdata$r	ENDS
;	COMDAT ??_R4CSkinMgrV1@@6BILayoutChangeObserver@@@
rdata$r	SEGMENT DWORD USE32 PUBLIC 'CONST'
rdata$r	ENDS
;	COMDAT ??_R4CSkinMgrV1@@6BP2PObserver@@@
rdata$r	SEGMENT DWORD USE32 PUBLIC 'CONST'
rdata$r	ENDS
;	COMDAT ??_R4CSkinMgrV1@@6BIEventListener@@@
rdata$r	SEGMENT DWORD USE32 PUBLIC 'CONST'
rdata$r	ENDS
;	COMDAT ??_R4CSkinMgrV1@@6BIWndEventListener@@@
rdata$r	SEGMENT DWORD USE32 PUBLIC 'CONST'
rdata$r	ENDS
;	COMDAT ??_R4P2PObserver@@6B@
rdata$r	SEGMENT DWORD USE32 PUBLIC 'CONST'
rdata$r	ENDS
;	COMDAT ??0?$allocator@_W@std@@QAE@XZ
_TEXT	SEGMENT PARA USE32 PUBLIC 'CODE'
_TEXT	ENDS
;	COMDAT ??_G?$numpunct@_W@std@@MAEPAXI@Z
_TEXT	SEGMENT PARA USE32 PUBLIC 'CODE'
_TEXT	ENDS
;	COMDAT ??_R4?$numpunct@_W@std@@6B@
rdata$r	SEGMENT DWORD USE32 PUBLIC 'CONST'
rdata$r	ENDS
;	COMDAT ??_G?$numpunct@D@std@@MAEPAXI@Z
_TEXT	SEGMENT PARA USE32 PUBLIC 'CODE'
_TEXT	ENDS
;	COMDAT ??_R4?$numpunct@D@std@@6B@
rdata$r	SEGMENT DWORD USE32 PUBLIC 'CONST'
rdata$r	ENDS
;	COMDAT ??_R4IData@@6B@
rdata$r	SEGMENT DWORD USE32 PUBLIC 'CONST'
rdata$r	ENDS
;	COMDAT ??_R4CGdiPlusBitmap@CSkinButton@@6B@
rdata$r	SEGMENT DWORD USE32 PUBLIC 'CONST'
rdata$r	ENDS
;	COMDAT ??_R4HTTPObserver@@6B@
rdata$r	SEGMENT DWORD USE32 PUBLIC 'CONST'
rdata$r	ENDS
;	COMDAT ??_R4CGdiPlusBitmap@@6B@
rdata$r	SEGMENT DWORD USE32 PUBLIC 'CONST'
rdata$r	ENDS
;	COMDAT ??_R4ILayoutChangeObserver@@6B@
rdata$r	SEGMENT DWORD USE32 PUBLIC 'CONST'
rdata$r	ENDS
;	COMDAT ??_R4IWndEventListener@@6B@
rdata$r	SEGMENT DWORD USE32 PUBLIC 'CONST'
rdata$r	ENDS
;	COMDAT ??_R4IEventListener@@6B@
rdata$r	SEGMENT DWORD USE32 PUBLIC 'CONST'
rdata$r	ENDS
;	COMDAT ??_C@_0EN@CBMLGOH@D?3?2Program?5Files?5?$CIx86?$CJ?2Microsoft@
CONST	SEGMENT DWORD USE32 PUBLIC 'CONST'
CONST	ENDS
;	COMDAT ?_Psave@?$_Facetptr@V?$numpunct@_W@std@@@std@@2PBVfacet@locale@2@B
_DATA	SEGMENT DWORD USE32 PUBLIC 'DATA'
_DATA	ENDS
;	COMDAT ?_Psave@?$_Facetptr@V?$numpunct@D@std@@@std@@2PBVfacet@locale@2@B
_DATA	SEGMENT DWORD USE32 PUBLIC 'DATA'
_DATA	ENDS
;	COMDAT ?Unlock@CComCriticalSection@ATL@@QAEJXZ
_TEXT	SEGMENT PARA USE32 PUBLIC 'CODE'
_TEXT	ENDS
;	COMDAT ??_C@_0FG@LDNDNCJM@D?3?2Program?5Files?5?$CIx86?$CJ?2Microsoft@
CONST	SEGMENT DWORD USE32 PUBLIC 'CONST'
CONST	ENDS
;	COMDAT ??_C@_09HIEJFN@m_bLocked?$AA@
CONST	SEGMENT DWORD USE32 PUBLIC 'CONST'
CONST	ENDS
;	COMDAT ?_Psave@?$_Facetptr@V?$ctype@_W@std@@@std@@2PBVfacet@locale@2@B
_DATA	SEGMENT DWORD USE32 PUBLIC 'DATA'
_DATA	ENDS
;	COMDAT ?_Psave@?$_Facetptr@V?$ctype@D@std@@@std@@2PBVfacet@locale@2@B
_DATA	SEGMENT DWORD USE32 PUBLIC 'DATA'
_DATA	ENDS
;	COMDAT ??_7length_error@std@@6B@
CONST	SEGMENT DWORD USE32 PUBLIC 'CONST'
CONST	ENDS
;	COMDAT ??_R4length_error@std@@6B@
rdata$r	SEGMENT DWORD USE32 PUBLIC 'CONST'
rdata$r	ENDS
;	COMDAT ??_R3length_error@std@@8
rdata$r	SEGMENT DWORD USE32 PUBLIC 'CONST'
rdata$r	ENDS
;	COMDAT ??_R2length_error@std@@8
rdata$r	SEGMENT DWORD USE32 PUBLIC 'CONST'
rdata$r	ENDS
;	COMDAT ??_R1A@?0A@A@length_error@std@@8
rdata$r	SEGMENT DWORD USE32 PUBLIC 'CONST'
rdata$r	ENDS
;	COMDAT ??_R1A@?0A@A@logic_error@std@@8
rdata$r	SEGMENT DWORD USE32 PUBLIC 'CONST'
rdata$r	ENDS
;	COMDAT ??_R0?AVlogic_error@std@@@8
_DATA	SEGMENT DWORD USE32 PUBLIC 'DATA'
_DATA	ENDS
;	COMDAT ??_R1A@?0A@A@exception@@8
rdata$r	SEGMENT DWORD USE32 PUBLIC 'CONST'
rdata$r	ENDS
;	COMDAT ??_R0?AVexception@@@8
_DATA	SEGMENT DWORD USE32 PUBLIC 'DATA'
_DATA	ENDS
;	COMDAT ??_Glength_error@std@@UAEPAXI@Z
_TEXT	SEGMENT PARA USE32 PUBLIC 'CODE'
_TEXT	ENDS
;	COMDAT ?what@logic_error@std@@UBEPBDXZ
_TEXT	SEGMENT PARA USE32 PUBLIC 'CODE'
_TEXT	ENDS
;	COMDAT ??1logic_error@std@@UAE@XZ
_TEXT	SEGMENT PARA USE32 PUBLIC 'CODE'
_TEXT	ENDS
;	COMDAT ??_7logic_error@std@@6B@
CONST	SEGMENT DWORD USE32 PUBLIC 'CONST'
CONST	ENDS
;	COMDAT ??_R4logic_error@std@@6B@
rdata$r	SEGMENT DWORD USE32 PUBLIC 'CONST'
rdata$r	ENDS
;	COMDAT ??_R3logic_error@std@@8
rdata$r	SEGMENT DWORD USE32 PUBLIC 'CONST'
rdata$r	ENDS
;	COMDAT ??_R2logic_error@std@@8
rdata$r	SEGMENT DWORD USE32 PUBLIC 'CONST'
rdata$r	ENDS
;	COMDAT ??_Glogic_error@std@@UAEPAXI@Z
_TEXT	SEGMENT PARA USE32 PUBLIC 'CODE'
_TEXT	ENDS
;	COMDAT ??0logic_error@std@@QAE@ABV01@@Z
_TEXT	SEGMENT PARA USE32 PUBLIC 'CODE'
_TEXT	ENDS
;	COMDAT __CTA3?AVlength_error@std@@
xdata$x	SEGMENT DWORD USE32 PUBLIC 'CONST'
xdata$x	ENDS
;	COMDAT ??1length_error@std@@UAE@XZ
_TEXT	SEGMENT PARA USE32 PUBLIC 'CODE'
_TEXT	ENDS
;	COMDAT __CT??_R0?AVexception@@@8??0exception@@QAE@ABV0@@Z12
xdata$x	SEGMENT DWORD USE32 PUBLIC 'CONST'
xdata$x	ENDS
;	COMDAT __CT??_R0?AVlogic_error@std@@@8??0logic_error@std@@QAE@ABV01@@Z40
xdata$x	SEGMENT DWORD USE32 PUBLIC 'CONST'
xdata$x	ENDS
;	COMDAT __CT??_R0?AVlength_error@std@@@8??0length_error@std@@QAE@ABV01@@Z40
xdata$x	SEGMENT DWORD USE32 PUBLIC 'CONST'
xdata$x	ENDS
;	COMDAT ??_R0?AVlength_error@std@@@8
_DATA	SEGMENT DWORD USE32 PUBLIC 'DATA'
_DATA	ENDS
;	COMDAT __TI3?AVlength_error@std@@
xdata$x	SEGMENT DWORD USE32 PUBLIC 'CONST'
xdata$x	ENDS
;	COMDAT ??0length_error@std@@QAE@ABV?$basic_string@DU?$char_traits@D@std@@V?$allocator@D@2@@1@@Z
_TEXT	SEGMENT PARA USE32 PUBLIC 'CODE'
_TEXT	ENDS
;	COMDAT ??0logic_error@std@@QAE@ABV?$basic_string@DU?$char_traits@D@std@@V?$allocator@D@2@@1@@Z
_TEXT	SEGMENT PARA USE32 PUBLIC 'CODE'
_TEXT	ENDS
;	COMDAT ??$_Maklocchr@_W@std@@YA_WDPA_WABU_Cvtvec@@@Z
_TEXT	SEGMENT PARA USE32 PUBLIC 'CODE'
_TEXT	ENDS
;	COMDAT ??$_DebugHeapDelete@X@std@@YAXPAX@Z
_TEXT	SEGMENT PARA USE32 PUBLIC 'CODE'
_TEXT	ENDS
;	COMDAT ??$_Maklocstr@_W@std@@YAPA_WPBDPA_WABU_Cvtvec@@@Z
_TEXT	SEGMENT PARA USE32 PUBLIC 'CODE'
_TEXT	ENDS
;	COMDAT ??$_Maklocchr@D@std@@YADDPADABU_Cvtvec@@@Z
_TEXT	SEGMENT PARA USE32 PUBLIC 'CODE'
_TEXT	ENDS
;	COMDAT ??_C@_04LOAJBDKD@true?$AA@
CONST	SEGMENT DWORD USE32 PUBLIC 'CONST'
CONST	ENDS
;	COMDAT ??_C@_05LAPONLG@false?$AA@
CONST	SEGMENT DWORD USE32 PUBLIC 'CONST'
CONST	ENDS
;	COMDAT _wmemcpy
_TEXT	SEGMENT PARA USE32 PUBLIC 'CODE'
_TEXT	ENDS
;	COMDAT ?max_size@?$allocator@_W@std@@QBEIXZ
_TEXT	SEGMENT PARA USE32 PUBLIC 'CODE'
_TEXT	ENDS
;	COMDAT ?allocate@?$allocator@_W@std@@QAEPA_WI@Z
_TEXT	SEGMENT PARA USE32 PUBLIC 'CODE'
_TEXT	ENDS
;	COMDAT ??$_Allocate@_W@std@@YAPA_WIPA_W@Z
_TEXT	SEGMENT PARA USE32 PUBLIC 'CODE'
_TEXT	ENDS
;	COMDAT ??_C@_0N@ILOMLJGA@nLength?5?$DO?$DN?50?$AA@
CONST	SEGMENT DWORD USE32 PUBLIC 'CONST'
CONST	ENDS
;	COMDAT ??_C@_0CD@EEFFJEGJ@nLength?5?$DM?$DN?5GetData?$CI?$CJ?9?$DOnAllocLeng@
CONST	SEGMENT DWORD USE32 PUBLIC 'CONST'
CONST	ENDS
;	COMDAT ?data@CStringData@ATL@@QAEPAXXZ
_TEXT	SEGMENT PARA USE32 PUBLIC 'CODE'
_TEXT	ENDS
;	COMDAT ??_C@_0BA@GOIMFHNK@pStringMgr?5?$CB?$DN?50?$AA@
CONST	SEGMENT DWORD USE32 PUBLIC 'CONST'
CONST	ENDS
;	COMDAT ??_C@_01GFHCPBMG@C?$AA@
CONST	SEGMENT DWORD USE32 PUBLIC 'CONST'
CONST	ENDS
;	COMDAT ?max_size@?$allocator@D@std@@QBEIXZ
_TEXT	SEGMENT PARA USE32 PUBLIC 'CODE'
_TEXT	ENDS
;	COMDAT ?allocate@?$allocator@D@std@@QAEPADI@Z
_TEXT	SEGMENT PARA USE32 PUBLIC 'CODE'
_TEXT	ENDS
;	COMDAT ??$_Allocate@D@std@@YAPADIPAD@Z
_TEXT	SEGMENT PARA USE32 PUBLIC 'CODE'
_TEXT	ENDS
;	COMDAT ?deallocate@?$allocator@D@std@@QAEXPADI@Z
_TEXT	SEGMENT PARA USE32 PUBLIC 'CODE'
_TEXT	ENDS
;	COMDAT ?Format@?$ChTraitsCRT@D@ATL@@SAHPADPBD0@Z
_TEXT	SEGMENT PARA USE32 PUBLIC 'CODE'
_TEXT	ENDS
;	COMDAT ?GetFormattedLength@?$ChTraitsCRT@D@ATL@@SAHPBDPAD@Z
_TEXT	SEGMENT PARA USE32 PUBLIC 'CODE'
_TEXT	ENDS
;	COMDAT ?Release@CStringData@ATL@@QAEXXZ
_TEXT	SEGMENT PARA USE32 PUBLIC 'CODE'
_TEXT	ENDS
;	COMDAT ??_C@_0L@OIIMFBNE@nRefs?5?$CB?$DN?50?$AA@
CONST	SEGMENT DWORD USE32 PUBLIC 'CONST'
CONST	ENDS
;	COMDAT ??_C@_0FJ@DMHPDOJC@D?3?2Program?5Files?5?$CIx86?$CJ?2Microsoft@
CONST	SEGMENT DWORD USE32 PUBLIC 'CONST'
CONST	ENDS
;	COMDAT ?_Peek@?$istreambuf_iterator@_WU?$char_traits@_W@std@@@std@@AAE_WXZ
_TEXT	SEGMENT PARA USE32 PUBLIC 'CODE'
_TEXT	ENDS
;	COMDAT ?_Peek@?$istreambuf_iterator@DU?$char_traits@D@std@@@std@@AAEDXZ
_TEXT	SEGMENT PARA USE32 PUBLIC 'CODE'
_TEXT	ENDS
;	COMDAT ??$use_facet@V?$ctype@_W@std@@@std@@YAABV?$ctype@_W@0@ABVlocale@0@@Z
_TEXT	SEGMENT PARA USE32 PUBLIC 'CODE'
_TEXT	ENDS
;	COMDAT ??_S?$ctype@_W@std@@6B@
CONST	SEGMENT DWORD USE32 PUBLIC 'CONST'
CONST	ENDS
;	COMDAT ??_R4?$ctype@_W@std@@6B@
rdata$r	SEGMENT DWORD USE32 PUBLIC 'CONST'
rdata$r	ENDS
;	COMDAT ??_R0?AV?$ctype@_W@std@@@8
_DATA	SEGMENT DWORD USE32 PUBLIC 'DATA'
_DATA	ENDS
;	COMDAT ??_R3?$ctype@_W@std@@8
rdata$r	SEGMENT DWORD USE32 PUBLIC 'CONST'
rdata$r	ENDS
;	COMDAT ??_R2?$ctype@_W@std@@8
rdata$r	SEGMENT DWORD USE32 PUBLIC 'CONST'
rdata$r	ENDS
;	COMDAT ??_R1A@?0A@A@?$ctype@_W@std@@8
rdata$r	SEGMENT DWORD USE32 PUBLIC 'CONST'
rdata$r	ENDS
;	COMDAT ??_R1A@?0A@A@ctype_base@std@@8
rdata$r	SEGMENT DWORD USE32 PUBLIC 'CONST'
rdata$r	ENDS
;	COMDAT ??_R0?AUctype_base@std@@@8
_DATA	SEGMENT DWORD USE32 PUBLIC 'DATA'
_DATA	ENDS
;	COMDAT ??_G?$ctype@_W@std@@MAEPAXI@Z
_TEXT	SEGMENT PARA USE32 PUBLIC 'CODE'
_TEXT	ENDS
;	COMDAT ??_C@_08EPJLHIJG@bad?5cast?$AA@
CONST	SEGMENT DWORD USE32 PUBLIC 'CONST'
CONST	ENDS
;	COMDAT __TI2?AVbad_cast@@
xdata$x	SEGMENT DWORD USE32 PUBLIC 'CONST'
xdata$x	ENDS
;	COMDAT __CTA2?AVbad_cast@@
xdata$x	SEGMENT DWORD USE32 PUBLIC 'CONST'
xdata$x	ENDS
;	COMDAT __CT??_R0?AVbad_cast@@@8??0bad_cast@@QAE@ABV0@@Z12
xdata$x	SEGMENT DWORD USE32 PUBLIC 'CONST'
xdata$x	ENDS
;	COMDAT ??_R0?AVbad_cast@@@8
_DATA	SEGMENT DWORD USE32 PUBLIC 'DATA'
_DATA	ENDS
;	COMDAT ??$_DebugHeapDelete@Vfacet@locale@std@@@std@@YAXPAVfacet@locale@0@@Z
_TEXT	SEGMENT PARA USE32 PUBLIC 'CODE'
_TEXT	ENDS
;	COMDAT ??$use_facet@V?$ctype@D@std@@@std@@YAABV?$ctype@D@0@ABVlocale@0@@Z
_TEXT	SEGMENT PARA USE32 PUBLIC 'CODE'
_TEXT	ENDS
;	COMDAT ??_S?$ctype@D@std@@6B@
CONST	SEGMENT DWORD USE32 PUBLIC 'CONST'
CONST	ENDS
;	COMDAT ??_R4?$ctype@D@std@@6B@
rdata$r	SEGMENT DWORD USE32 PUBLIC 'CONST'
rdata$r	ENDS
;	COMDAT ??_R0?AV?$ctype@D@std@@@8
_DATA	SEGMENT DWORD USE32 PUBLIC 'DATA'
_DATA	ENDS
;	COMDAT ??_R3?$ctype@D@std@@8
rdata$r	SEGMENT DWORD USE32 PUBLIC 'CONST'
rdata$r	ENDS
;	COMDAT ??_R2?$ctype@D@std@@8
rdata$r	SEGMENT DWORD USE32 PUBLIC 'CONST'
rdata$r	ENDS
;	COMDAT ??_R1A@?0A@A@?$ctype@D@std@@8
rdata$r	SEGMENT DWORD USE32 PUBLIC 'CONST'
rdata$r	ENDS
;	COMDAT ??_G?$ctype@D@std@@MAEPAXI@Z
_TEXT	SEGMENT PARA USE32 PUBLIC 'CODE'
_TEXT	ENDS
;	COMDAT ??_S?$numpunct@_W@std@@6B@
CONST	SEGMENT DWORD USE32 PUBLIC 'CONST'
CONST	ENDS
;	COMDAT ??_S?$numpunct@D@std@@6B@
CONST	SEGMENT DWORD USE32 PUBLIC 'CONST'
CONST	ENDS
;	COMDAT _wmemmove
_TEXT	SEGMENT PARA USE32 PUBLIC 'CODE'
_TEXT	ENDS
;	COMDAT ?deallocate@?$allocator@_W@std@@QAEXPA_WI@Z
_TEXT	SEGMENT PARA USE32 PUBLIC 'CODE'
_TEXT	ENDS
;	COMDAT ??0?$allocator@_W@std@@QAE@ABV01@@Z
_TEXT	SEGMENT PARA USE32 PUBLIC 'CODE'
_TEXT	ENDS
;	COMDAT ??_C@_0BO@OBIGOAOM@AtlIsValidString?$CI?5pszFormat?5?$CJ?$AA@
CONST	SEGMENT DWORD USE32 PUBLIC 'CONST'
CONST	ENDS
;	COMDAT ?AtlIsValidString@ATL@@YAHPBDI@Z
_TEXT	SEGMENT PARA USE32 PUBLIC 'CODE'
_TEXT	ENDS
;	COMDAT ?AtlThrow@ATL@@YGXJ@Z
_TEXT	SEGMENT PARA USE32 PUBLIC 'CODE'
_TEXT	ENDS
;	COMDAT ??RCTraceFileAndLineInfo@ATL@@QBAXKIPBDZZ
_TEXT	SEGMENT PARA USE32 PUBLIC 'CODE'
_TEXT	ENDS
;	COMDAT ?TraceV@CTrace@ATL@@QBAXPBDHKI0PAD@Z
_TEXT	SEGMENT PARA USE32 PUBLIC 'CODE'
_TEXT	ENDS
;	COMDAT ??0CTraceFileAndLineInfo@ATL@@QAE@PBDH@Z
_TEXT	SEGMENT PARA USE32 PUBLIC 'CODE'
_TEXT	ENDS
;	COMDAT ??_C@_0FI@NHHJANPC@D?3?2Program?5Files?5?$CIx86?$CJ?2Microsoft@
CONST	SEGMENT DWORD USE32 PUBLIC 'CONST'
CONST	ENDS
;	COMDAT ??_C@_0BF@IAAKIJDJ@AtlThrow?3?5hr?5?$DN?50x?$CFx?6?$AA@
CONST	SEGMENT DWORD USE32 PUBLIC 'CONST'
CONST	ENDS
;	COMDAT ??BCTraceCategory@ATL@@QBEKXZ
_TEXT	SEGMENT PARA USE32 PUBLIC 'CODE'
_TEXT	ENDS
;	COMDAT ??_C@_0BA@GNIEOBOF@nNewLength?5?$DO?$DN?50?$AA@
CONST	SEGMENT DWORD USE32 PUBLIC 'CONST'
CONST	ENDS
;	COMDAT ??_C@_0FH@KDPNIMBO@D?3?2Program?5Files?5?$CIx86?$CJ?2Microsoft@
CONST	SEGMENT DWORD USE32 PUBLIC 'CONST'
CONST	ENDS
;	COMDAT ?IsShared@CStringData@ATL@@QBE_NXZ
_TEXT	SEGMENT PARA USE32 PUBLIC 'CODE'
_TEXT	ENDS
;	COMDAT ??_C@_0CB@GFHAPKDK@pOldData?9?$DOnAllocLength?5?$DM?5nLength@
CONST	SEGMENT DWORD USE32 PUBLIC 'CONST'
CONST	ENDS
;	COMDAT ?IsLocked@CStringData@ATL@@QBE_NXZ
_TEXT	SEGMENT PARA USE32 PUBLIC 'CODE'
_TEXT	ENDS
;	COMDAT ??0?$allocator@D@std@@QAE@ABV01@@Z
_TEXT	SEGMENT PARA USE32 PUBLIC 'CODE'
_TEXT	ENDS
;	COMDAT ??0?$allocator@D@std@@QAE@XZ
_TEXT	SEGMENT PARA USE32 PUBLIC 'CODE'
_TEXT	ENDS
;	COMDAT ??_7IMessageObserver@@6B@
CONST	SEGMENT DWORD USE32 PUBLIC 'CONST'
CONST	ENDS
;	COMDAT ??_R4IMessageObserver@@6B@
rdata$r	SEGMENT DWORD USE32 PUBLIC 'CONST'
rdata$r	ENDS
;	COMDAT ??_R3IMessageObserver@@8
rdata$r	SEGMENT DWORD USE32 PUBLIC 'CONST'
rdata$r	ENDS
;	COMDAT ??_R2IMessageObserver@@8
rdata$r	SEGMENT DWORD USE32 PUBLIC 'CONST'
rdata$r	ENDS
;	COMDAT ??_GIMessageObserver@@UAEPAXI@Z
_TEXT	SEGMENT PARA USE32 PUBLIC 'CODE'
_TEXT	ENDS
;	COMDAT ??_7IEventListener@@6B@
CONST	SEGMENT DWORD USE32 PUBLIC 'CONST'
CONST	ENDS
;	COMDAT ??_7IWndEventListener@@6B@
CONST	SEGMENT DWORD USE32 PUBLIC 'CONST'
CONST	ENDS
;	COMDAT ??_7ILayoutChangeObserver@@6B@
CONST	SEGMENT DWORD USE32 PUBLIC 'CONST'
CONST	ENDS
;	COMDAT ??1IMessageObserver@@UAE@XZ
_TEXT	SEGMENT PARA USE32 PUBLIC 'CODE'
_TEXT	ENDS
;	COMDAT ??_7IChangeColorMgr@@6BIEventListener@@@
CONST	SEGMENT DWORD USE32 PUBLIC 'CONST'
CONST	ENDS
;	COMDAT ??_7IChangeColorMgr@@6BIWndEventListener@@@
CONST	SEGMENT DWORD USE32 PUBLIC 'CONST'
CONST	ENDS
;	COMDAT ?GetDefaultManager@?$StrTraitMFC_DLL@DV?$ChTraitsCRT@D@ATL@@@@SAPAUIAtlStringMgr@ATL@@XZ
_TEXT	SEGMENT PARA USE32 PUBLIC 'CODE'
_TEXT	ENDS
;	COMDAT ??_7CSkinMgrV1@@6BILayoutChangeObserver@@@
CONST	SEGMENT DWORD USE32 PUBLIC 'CONST'
CONST	ENDS
;	COMDAT ??_7CSkinMgrV1@@6BP2PObserver@@@
CONST	SEGMENT DWORD USE32 PUBLIC 'CONST'
CONST	ENDS
;	COMDAT ??_7CSkinMgrV1@@6BIEventListener@@@
CONST	SEGMENT DWORD USE32 PUBLIC 'CONST'
CONST	ENDS
;	COMDAT ??_7CSkinMgrV1@@6BIWndEventListener@@@
CONST	SEGMENT DWORD USE32 PUBLIC 'CONST'
CONST	ENDS
;	COMDAT ?clsid@?1??GetClsid@CShockwaveFlash@@QAEABU_GUID@@XZ@4U3@B
CONST	SEGMENT DWORD USE32 PUBLIC 'CONST'
CONST	ENDS
;	COMDAT ??_7P2PObserver@@6B@
CONST	SEGMENT DWORD USE32 PUBLIC 'CONST'
CONST	ENDS
;	COMDAT ??_7HTTPObserver@@6B@
CONST	SEGMENT DWORD USE32 PUBLIC 'CONST'
CONST	ENDS
;	COMDAT ?FindStringResourceInstance@?$StrTraitMFC_DLL@DV?$ChTraitsCRT@D@ATL@@@@SAPAUHINSTANCE__@@I@Z
_TEXT	SEGMENT PARA USE32 PUBLIC 'CODE'
_TEXT	ENDS
;	COMDAT ?AtlGetStringResourceImage@ATL@@YAPBUATLSTRINGRESOURCEIMAGE@1@PAUHINSTANCE__@@I@Z
_TEXT	SEGMENT PARA USE32 PUBLIC 'CODE'
_TEXT	ENDS
;	COMDAT ?_AtlGetStringResourceImage@ATL@@YAPBUATLSTRINGRESOURCEIMAGE@1@PAUHINSTANCE__@@PAUHRSRC__@@I@Z
_TEXT	SEGMENT PARA USE32 PUBLIC 'CODE'
_TEXT	ENDS
;	COMDAT ?GetBaseTypeLength@?$ChTraitsCRT@D@ATL@@SAHPB_WH@Z
_TEXT	SEGMENT PARA USE32 PUBLIC 'CODE'
_TEXT	ENDS
;	COMDAT ?_AtlGetConversionACP@ATL@@YGIXZ
_TEXT	SEGMENT PARA USE32 PUBLIC 'CODE'
_TEXT	ENDS
;	COMDAT ?g_pfnGetThreadACP@ATL@@3P6GIXZA
_DATA	SEGMENT DWORD USE32 PUBLIC 'DATA'
_DATA	ENDS
;	COMDAT ?_AtlGetThreadACPThunk@ATL@@YGIXZ
_TEXT	SEGMENT PARA USE32 PUBLIC 'CODE'
_TEXT	ENDS
;	COMDAT ?_AtlGetThreadACPReal@ATL@@YGIXZ
_TEXT	SEGMENT PARA USE32 PUBLIC 'CODE'
_TEXT	ENDS
;	COMDAT ?_AtlGetThreadACPFake@ATL@@YGIXZ
_TEXT	SEGMENT PARA USE32 PUBLIC 'CODE'
_TEXT	ENDS
;	COMDAT ?InterlockedExchangePointer@@YGPAXPAPAXPAX@Z
_TEXT	SEGMENT PARA USE32 PUBLIC 'CODE'
_TEXT	ENDS
;	COMDAT ?ConvertToBaseType@?$ChTraitsCRT@D@ATL@@SAXPADHPB_WH@Z
_TEXT	SEGMENT PARA USE32 PUBLIC 'CODE'
_TEXT	ENDS
;	COMDAT ??_C@_0CJ@FJEKGMMD@Warning?3?5implicit?5LoadString?$CI?$CFu?$CJ@
CONST	SEGMENT DWORD USE32 PUBLIC 'CONST'
CONST	ENDS
;	COMDAT ?AddRef@CStringData@ATL@@QAEXXZ
_TEXT	SEGMENT PARA USE32 PUBLIC 'CODE'
_TEXT	ENDS
;	COMDAT ??_C@_09EEBKLCFA@nRefs?5?$DO?50?$AA@
CONST	SEGMENT DWORD USE32 PUBLIC 'CONST'
CONST	ENDS
;	COMDAT ??_7CGdiPlusBitmap@CSkinButton@@6B@
CONST	SEGMENT DWORD USE32 PUBLIC 'CONST'
CONST	ENDS
;	COMDAT ??_7IData@@6B@
CONST	SEGMENT DWORD USE32 PUBLIC 'CONST'
CONST	ENDS
;	COMDAT ?GetLastStatus@Image@Gdiplus@@QBE?AW4Status@2@XZ
_TEXT	SEGMENT PARA USE32 PUBLIC 'CODE'
_TEXT	ENDS
;	COMDAT ?FromFile@Bitmap@Gdiplus@@SAPAV12@PB_WH@Z
_TEXT	SEGMENT PARA USE32 PUBLIC 'CODE'
_TEXT	ENDS
;	COMDAT ??2GdiplusBase@Gdiplus@@SAPAXI@Z
_TEXT	SEGMENT PARA USE32 PUBLIC 'CODE'
_TEXT	ENDS
;	COMDAT ??3GdiplusBase@Gdiplus@@SAXPAX@Z
_TEXT	SEGMENT PARA USE32 PUBLIC 'CODE'
_TEXT	ENDS
;	COMDAT ??0Bitmap@Gdiplus@@QAE@PB_WH@Z
_TEXT	SEGMENT PARA USE32 PUBLIC 'CODE'
_TEXT	ENDS
;	COMDAT ??0Image@Gdiplus@@IAE@XZ
_TEXT	SEGMENT PARA USE32 PUBLIC 'CODE'
_TEXT	ENDS
;	COMDAT ??_7Image@Gdiplus@@6B@
CONST	SEGMENT DWORD USE32 PUBLIC 'CONST'
CONST	ENDS
;	COMDAT ??_R4Image@Gdiplus@@6B@
rdata$r	SEGMENT DWORD USE32 PUBLIC 'CONST'
rdata$r	ENDS
;	COMDAT ??_R0?AVImage@Gdiplus@@@8
_DATA	SEGMENT DWORD USE32 PUBLIC 'DATA'
_DATA	ENDS
;	COMDAT ??_R3Image@Gdiplus@@8
rdata$r	SEGMENT DWORD USE32 PUBLIC 'CONST'
rdata$r	ENDS
;	COMDAT ??_R2Image@Gdiplus@@8
rdata$r	SEGMENT DWORD USE32 PUBLIC 'CONST'
rdata$r	ENDS
;	COMDAT ??_R1A@?0A@A@Image@Gdiplus@@8
rdata$r	SEGMENT DWORD USE32 PUBLIC 'CONST'
rdata$r	ENDS
;	COMDAT ??_R13?0A@A@GdiplusBase@Gdiplus@@8
rdata$r	SEGMENT DWORD USE32 PUBLIC 'CONST'
rdata$r	ENDS
;	COMDAT ??_R0?AVGdiplusBase@Gdiplus@@@8
_DATA	SEGMENT DWORD USE32 PUBLIC 'DATA'
_DATA	ENDS
;	COMDAT ??_GImage@Gdiplus@@UAEPAXI@Z
_TEXT	SEGMENT PARA USE32 PUBLIC 'CODE'
_TEXT	ENDS
;	COMDAT ?Clone@Image@Gdiplus@@UAEPAV12@XZ
_TEXT	SEGMENT PARA USE32 PUBLIC 'CODE'
_TEXT	ENDS
;	COMDAT ?SetStatus@Image@Gdiplus@@IBE?AW4Status@2@W432@@Z
_TEXT	SEGMENT PARA USE32 PUBLIC 'CODE'
_TEXT	ENDS
;	COMDAT ??0Image@Gdiplus@@IAE@PAVGpImage@1@W4Status@1@@Z
_TEXT	SEGMENT PARA USE32 PUBLIC 'CODE'
_TEXT	ENDS
;	COMDAT ??1Image@Gdiplus@@UAE@XZ
_TEXT	SEGMENT PARA USE32 PUBLIC 'CODE'
_TEXT	ENDS
;	COMDAT ??_7Bitmap@Gdiplus@@6B@
CONST	SEGMENT DWORD USE32 PUBLIC 'CONST'
CONST	ENDS
;	COMDAT ??_R4Bitmap@Gdiplus@@6B@
rdata$r	SEGMENT DWORD USE32 PUBLIC 'CONST'
rdata$r	ENDS
;	COMDAT ??_R0?AVBitmap@Gdiplus@@@8
_DATA	SEGMENT DWORD USE32 PUBLIC 'DATA'
_DATA	ENDS
;	COMDAT ??_R3Bitmap@Gdiplus@@8
rdata$r	SEGMENT DWORD USE32 PUBLIC 'CONST'
rdata$r	ENDS
;	COMDAT ??_R2Bitmap@Gdiplus@@8
rdata$r	SEGMENT DWORD USE32 PUBLIC 'CONST'
rdata$r	ENDS
;	COMDAT ??_R1A@?0A@A@Bitmap@Gdiplus@@8
rdata$r	SEGMENT DWORD USE32 PUBLIC 'CONST'
rdata$r	ENDS
;	COMDAT ??_GBitmap@Gdiplus@@UAEPAXI@Z
_TEXT	SEGMENT PARA USE32 PUBLIC 'CODE'
_TEXT	ENDS
;	COMDAT ??1Bitmap@Gdiplus@@UAE@XZ
_TEXT	SEGMENT PARA USE32 PUBLIC 'CODE'
_TEXT	ENDS
;	COMDAT ?SetNativeImage@Image@Gdiplus@@IAEXPAVGpImage@2@@Z
_TEXT	SEGMENT PARA USE32 PUBLIC 'CODE'
_TEXT	ENDS
;	COMDAT ??_7CGdiPlusBitmap@@6B@
CONST	SEGMENT DWORD USE32 PUBLIC 'CONST'
CONST	ENDS
;	COMDAT ??_7DIBINFO@@6B@
CONST	SEGMENT DWORD USE32 PUBLIC 'CONST'
CONST	ENDS
sxdata	SEGMENT DWORD USE32 'SXDATA'
sxdata	ENDS
FLAT	GROUP _DATA, CONST, _BSS
	ASSUME	CS: FLAT, DS: FLAT, SS: FLAT
endif

INCLUDELIB MSVCRTD
INCLUDELIB OLDNAMES

PUBLIC	?g_pfnGetThreadACP@ATL@@3P6GIXZA		; ATL::g_pfnGetThreadACP
PUBLIC	?_AtlGetThreadACPThunk@ATL@@YGIXZ		; ATL::_AtlGetThreadACPThunk
PUBLIC	?mp_IsHadObject@CSkinMgrV1@@0PAVIChangeColorMgr@@A ; CSkinMgrV1::mp_IsHadObject
_BSS	SEGMENT
?mp_IsHadObject@CSkinMgrV1@@0PAVIChangeColorMgr@@A DD 01H DUP (?) ; CSkinMgrV1::mp_IsHadObject
_BSS	ENDS
CONST	SEGMENT
$SG191536 DB	'int', 00H
CONST	ENDS
_DATA	SEGMENT
_TYPE_CONFIG_INT DD FLAT:$SG191536
_DATA	ENDS
CONST	SEGMENT
$SG191538 DB	'str', 00H
CONST	ENDS
_DATA	SEGMENT
_TYPE_CONFIG_STR DD FLAT:$SG191538
_DATA	ENDS
CONST	SEGMENT
$SG191540 DB	'double', 00H
CONST	ENDS
_DATA	SEGMENT
_TYPE_CONFIG_DOUBLE DD FLAT:$SG191540
_DATA	ENDS
CONST	SEGMENT
	ORG $+1
$SG191542 DB	'bool', 00H
CONST	ENDS
_DATA	SEGMENT
_TYPE_CONFIG_BOOL DD FLAT:$SG191542
_DATA	ENDS
CONST	SEGMENT
	ORG $+3
$SG191544 DB	'sepint', 00H
CONST	ENDS
_DATA	SEGMENT
_TYPE_CONFIG_INT_HASSEP DD FLAT:$SG191544
_DATA	ENDS
CONST	SEGMENT
	ORG $+1
$SG191546 DB	'sepstr', 00H
CONST	ENDS
_DATA	SEGMENT
_TYPE_CONFIG_STR_HASSEP DD FLAT:$SG191546
_DATA	ENDS
CONST	SEGMENT
	ORG $+1
$SG191548 DB	'sepdouble', 00H
CONST	ENDS
_DATA	SEGMENT
_TYPE_CONFIG_DOUBLE_HASSEP DD FLAT:$SG191548
_DATA	ENDS
CONST	SEGMENT
	ORG $+2
$SG191550 DB	'sepbool', 00H
CONST	ENDS
_DATA	SEGMENT
_TYPE_CONFIG_BOOL_HASSEP DD FLAT:$SG191550
_DATA	ENDS
CONST	SEGMENT
$SG191552 DB	'Setting', 00H
CONST	ENDS
_DATA	SEGMENT
_CONF_SETTING_MODULE_NAME DD FLAT:$SG191552
_DATA	ENDS
CONST	SEGMENT
$SG191554 DB	'skin', 00H
CONST	ENDS
_DATA	SEGMENT
_CONF_SETTING_SKIN_IDX DD FLAT:$SG191554
_DATA	ENDS
CONST	SEGMENT
	ORG $+3
$SG191556 DB	'MainPage', 00H
CONST	ENDS
_DATA	SEGMENT
_CONF_SETTING_CONFIG_MAIN_PAGE DD FLAT:$SG191556
_DATA	ENDS
CONST	SEGMENT
	ORG $+3
$SG191558 DB	'ProblemReport', 00H
CONST	ENDS
_DATA	SEGMENT
_CONF_SETTING_CONFIG_PROBLEM_REPORT DD FLAT:$SG191558
_DATA	ENDS
CONST	SEGMENT
	ORG $+2
$SG191560 DB	'HomePage', 00H
CONST	ENDS
_DATA	SEGMENT
_CONF_SETTING_CONFIG_HOME_PAGE DD FLAT:$SG191560
_DATA	ENDS
CONST	SEGMENT
	ORG $+3
$SG191562 DB	'askexit', 00H
CONST	ENDS
_DATA	SEGMENT
_CONF_SETTING_CONFIG_IFASKEXIT DD FLAT:$SG191562
_DATA	ENDS
CONST	SEGMENT
$SG191564 DB	'exitchoice', 00H
CONST	ENDS
_DATA	SEGMENT
_CONF_SETTING_CONFIG_EXITCHOICE DD FLAT:$SG191564
_DATA	ENDS
CONST	SEGMENT
	ORG $+1
$SG191566 DB	'UN', 00H
CONST	ENDS
_DATA	SEGMENT
_CONF_SETTING_LOGIN_USER_NAME DD FLAT:$SG191566
_DATA	ENDS
CONST	SEGMENT
	ORG $+1
$SG191568 DB	'PW', 00H
CONST	ENDS
_DATA	SEGMENT
_CONF_SETTING_LOGIN_PASSWORD DD FLAT:$SG191568
_DATA	ENDS
CONST	SEGMENT
	ORG $+1
$SG191570 DB	'NetID', 00H
CONST	ENDS
_DATA	SEGMENT
_CONF_SETTING_NETID DD FLAT:$SG191570
_DATA	ENDS
CONST	SEGMENT
	ORG $+2
$SG191572 DB	'ChangeColorValue', 00H
CONST	ENDS
_DATA	SEGMENT
_CONF_SETTING_COLOR DD FLAT:$SG191572
_DATA	ENDS
CONST	SEGMENT
	ORG $+3
$SG191574 DB	'changeColorLight', 00H
CONST	ENDS
_DATA	SEGMENT
_CONF_SETTING_LIGHT DD FLAT:$SG191574
_DATA	ENDS
CONST	SEGMENT
	ORG $+3
$SG191576 DB	'ColorIndex', 00H
CONST	ENDS
_DATA	SEGMENT
_CONF_SETTING_COLOR_BTN_INDEX DD FLAT:$SG191576
_DATA	ENDS
CONST	SEGMENT
	ORG $+1
$SG191578 DB	'ColorUser', 00H
CONST	ENDS
_DATA	SEGMENT
_CONF_SETTING_COLOR_USER DD FLAT:$SG191578
_DATA	ENDS
CONST	SEGMENT
	ORG $+2
$SG191580 DB	'FirstTimeChangeSkin', 00H
CONST	ENDS
_DATA	SEGMENT
_CONF_SETTING_FIRST_TIME_CHANGESKIN DD FLAT:$SG191580
_DATA	ENDS
CONST	SEGMENT
$SG191972 DB	0dH, 0aH, 0d7H, 0b4H, 0ccH, 0acH, ': ', 0d0H, 0e8H, 0b5H, 0e3H
	DB	0bbH, 0f7H, 0cfH, 0c2H, 0d4H, 0d8H, 00H
	ORG $+1
$SG191973 DB	0c6H, 0a4H, 0b7H, 0f4H, ': ', 00H
	ORG $+1
$SG191982 DB	0dH, 0aH, 0d7H, 0b4H, 0ccH, 0acH, ': ', 0d2H, 0d1H, 0b1H, 0b8H
	DB	0baH, 0c3H, 00H
	ORG $+1
$SG191983 DB	0c6H, 0a4H, 0b7H, 0f4H, ': ', 00H
	ORG $+1
$SG192289 DB	'%08x,%d', 00H
$SG192293 DB	'CHAGE_COLOR', 00H
$SG192299 DB	00H
	ORG $+3
$SG192306 DB	'\skin\', 00H
	ORG $+1
$SG192309 DB	'\', 00H
	ORG $+2
$SG192312 DB	'\', 00H
	ORG $+2
$SG192317 DB	'\skin.dat', 00H
$SG192326 DB	00H
$SG192329 DB	00H
$SG192336 DB	00H
	ORG $+3
$SG192343 DB	'\skin\', 00H
	ORG $+1
$SG192346 DB	'\', 00H
	ORG $+2
$SG192349 DB	'\', 00H
	ORG $+2
$SG192354 DB	'\skin.dat', 00H
$SG192391 DB	00H
	ORG $+1
$SG192392 DB	0d5H, 0fdH, 0d4H, 0daH, 0cfH, 0c2H, 0d4H, 0d8H, ' "%s" ', 0c6H
	DB	0a4H, 0b7H, 0f4H, 00H
	ORG $+1
$SG192405 DB	'\skin.ini', 00H
	ORG $+2
$SG192406 DB	'author', 00H
	ORG $+1
$SG192407 DB	'skin', 00H
	ORG $+3
$SG192413 DB	0dH, 0aH, 0d7H, 0b4H, 0ccH, 0acH, ': ', 0d2H, 0d1H, 0b1H, 0b8H
	DB	0baH, 0c3H, 00H
	ORG $+1
$SG192414 DB	0dH, 0aH, 0d7H, 0f7H, 0d5H, 0dfH, ': ', 00H
	ORG $+3
$SG192415 DB	0c6H, 0a4H, 0b7H, 0f4H, ': ', 00H
	ORG $+1
$SG192429 DB	'S:DOWN_START', 00H
	ORG $+3
$SG192430 DB	'HANDLE_SKIN', 00H
$SG192437 DB	0c6H, 0a4H, 0b7H, 0f4H, 0cfH, 0c2H, 0d4H, 0d8H, 0cdH, 0eaH
	DB	0b3H, 0c9H, ' %u,%u', 00H
	ORG $+1
$SG192438 DB	'DownStart', 00H
	ORG $+2
$SG192439 DB	'downskin.txt', 00H
	ORG $+3
$SG192446 DB	'S:DOWN_FINISHE', 00H
	ORG $+1
$SG192447 DB	'HANDLE_SKIN', 00H
$SG192450 DB	'\skin\', 00H
$SG192652 DB	00H
$SG192663 DB	0c6H, 0a4H, 0b7H, 0f4H, 0cfH, 0c2H, 0d4H, 0d8H, 0caH, 0a7H
	DB	0b0H, 0dcH, ' %u,%u', 00H
	ORG $+1
$SG192664 DB	'DownStart', 00H
	ORG $+2
$SG192665 DB	'downskin.txt', 00H
	ORG $+3
$SG192672 DB	'S:DOWN_FAILED', 00H
	ORG $+2
$SG192673 DB	'HANDLE_SKIN', 00H
$SG192684 DB	0c6H, 0a4H, 0b7H, 0f4H, 0cfH, 0c2H, 0d4H, 0d8H, 0bdH, 0f8H
	DB	0d0H, 0d0H, 0d6H, 0d0H, ' %u,%u,%u', 00H
$SG192685 DB	'DownStart', 00H
	ORG $+2
$SG192686 DB	'downskin.txt', 00H
	ORG $+3
$SG192695 DB	'Sub:%s', 00H
$SG192696 DB	00H
$SG192697 DB	'%', 00H
	ORG $+2
$SG192700 DB	'ClickSub', 00H
	ORG $+3
$SG192739 DB	'3', 00H
	ORG $+2
$SG192740 DB	'Click-In', 00H
	ORG $+3
$SG192741 DB	'SkinB.txt', 00H
	ORG $+2
$SG192744 DB	0d0H, 0e8H, 0d2H, 0aaH, 0cfH, 0c2H, 0d4H, 0d8H, 0c6H, 0a4H
	DB	0b7H, 0f4H, ' %s', 00H
$SG192745 DB	'DownStart', 00H
	ORG $+2
$SG192746 DB	'downskin.txt', 00H
	ORG $+3
$SG192773 DB	0d2H, 0d1H, 0d3H, 0d0H, 0cfH, 0c2H, 0d4H, 0d8H, 0c8H, 0ceH
	DB	0ceH, 0f1H, 0c1H, 0cbH, 0a3H, 0acH, 0c7H, 0ebH, 0c9H, 0d4H, 0baH
	DB	0f2H, '...', 00H
$SG192778 DB	00H
$SG192790 DB	00H
$SG192792 DB	0d5H, 0fdH, 0d4H, 0daH, 0cfH, 0c2H, 0d4H, 0d8H, ' "%s" ', 0c6H
	DB	0a4H, 0b7H, 0f4H, 00H
	ORG $+1
$SG192794 DB	0d5H, 0fdH, 0d4H, 0daH, 0cfH, 0c2H, 0d4H, 0d8H, 0c6H, 0a4H
	DB	0b7H, 0f4H, 00H
	ORG $+3
$SG192803 DB	'9', 00H
	ORG $+2
$SG192804 DB	'Click-In', 00H
	ORG $+3
$SG192805 DB	'SkinB.txt', 00H
$SG192812 DB	00H
	ORG $+1
$SG192814 DB	0c6H, 0a4H, 0b7H, 0f4H, ':  %s', 0dH, 0aH, 0d7H, 0b4H, 0ccH
	DB	0acH, ': ', 0d2H, 0d1H, 0b1H, 0b8H, 0baH, 0c3H, 00H
$SG192816 DB	0d7H, 0b4H, 0ccH, 0acH, ': ', 0d2H, 0d1H, 0b1H, 0b8H, 0baH
	DB	0c3H, 00H
	ORG $+3
$SG192823 DB	'10', 00H
	ORG $+1
$SG192824 DB	'Click-In', 00H
	ORG $+3
$SG192825 DB	'SkinB.txt', 00H
$SG192827 DB	00H
	ORG $+1
$SG192830 DB	'11', 00H
	ORG $+1
$SG192831 DB	'Click-In', 00H
	ORG $+3
$SG192832 DB	'SkinB.txt', 00H
	ORG $+2
$SG192837 DB	0d4H, 0ddH, 0caH, 0b1H, 0ceH, 0deH, 0b7H, 0a8H, 0cfH, 0c2H
	DB	0d4H, 0d8H, 0b8H, 0c3H, 0c6H, 0a4H, 0b7H, 0f4H, 0a3H, 0acH, 0c7H
	DB	0ebH, 0c9H, 0d4H, 0baH, 0f2H, 0d4H, 0d9H, 0caH, 0d4H, 00H
	ORG $+1
$SG192839 DB	0c8H, 0b7H, 0b6H, 0a8H, 00H
	ORG $+3
$SG192847 DB	'9', 00H
	ORG $+2
$SG192848 DB	'Click-In', 00H
	ORG $+3
$SG192849 DB	'SkinB.txt', 00H
	ORG $+2
$SG192864 DB	0c6H, 0a4H, 0b7H, 0f4H, 0d2H, 0d1H, 0b1H, 0a3H, 0b4H, 0e6H
	DB	0b5H, 0bdH, 0a1H, 0b0H, 0ceH, 0d2H, 0b5H, 0c4H, 0c6H, 0a4H, 0b7H
	DB	0f4H, 0a1H, 0b1H, 00H
$SG192866 DB	00H
	ORG $+2
$SG192868 DB	0c6H, 0a4H, 0b7H, 0f4H, ':  %s', 0dH, 0aH, 0d7H, 0b4H, 0ccH
	DB	0acH, ': ', 0d2H, 0d1H, 0b1H, 0b8H, 0baH, 0c3H, 00H
$SG192870 DB	0d7H, 0b4H, 0ccH, 0acH, ': ', 0d2H, 0d1H, 0b1H, 0b8H, 0baH
	DB	0c3H, 00H
	ORG $+3
$SG192877 DB	'10', 00H
	ORG $+1
$SG192878 DB	'Click-In', 00H
	ORG $+3
$SG192879 DB	'SkinB.txt', 00H
$SG192881 DB	00H
	ORG $+1
$SG192884 DB	'11', 00H
	ORG $+1
$SG192885 DB	'Click-In', 00H
	ORG $+3
$SG192886 DB	'SkinB.txt', 00H
	ORG $+2
$SG192891 DB	0d4H, 0ddH, 0caH, 0b1H, 0ceH, 0deH, 0b7H, 0a8H, 0cfH, 0c2H
	DB	0d4H, 0d8H, 0b8H, 0c3H, 0c6H, 0a4H, 0b7H, 0f4H, 0a3H, 0acH, 0c7H
	DB	0ebH, 0c9H, 0d4H, 0baH, 0f2H, 0d4H, 0d9H, 0caH, 0d4H, 00H
	ORG $+1
$SG192893 DB	0c8H, 0b7H, 0b6H, 0a8H, 00H
CONST	ENDS
;	COMDAT ?g_pfnGetThreadACP@ATL@@3P6GIXZA
_DATA	SEGMENT
?g_pfnGetThreadACP@ATL@@3P6GIXZA DD FLAT:?_AtlGetThreadACPThunk@ATL@@YGIXZ ; ATL::g_pfnGetThreadACP
_DATA	ENDS
CONST	SEGMENT
	ORG $+3
_ID_MESSAGE_LAYOUTMGR DD 08H
CONST	ENDS
PUBLIC	?InterlockedExchangePointer@@YGPAXPAPAXPAX@Z	; InterlockedExchangePointer
PUBLIC	?_AtlGetThreadACPFake@ATL@@YGIXZ		; ATL::_AtlGetThreadACPFake
PUBLIC	?_AtlGetThreadACPReal@ATL@@YGIXZ		; ATL::_AtlGetThreadACPReal
EXTRN	__RTC_InitBase:NEAR
EXTRN	__RTC_Shutdown:NEAR
EXTRN	__RTC_CheckEsp:NEAR
EXTRN	___security_cookie:DWORD
EXTRN	@_RTC_CheckStackVars@8:NEAR
EXTRN	@__security_check_cookie@4:NEAR
EXTRN	__imp__GetVersionExA@4:NEAR
;	COMDAT rtc$IMZ
; File d:\program files (x86)\microsoft visual studio .net 2003\vc7\atlmfc\include\atlconv.h
rtc$IMZ	SEGMENT
__RTC_InitBase.rtc$IMZ DD FLAT:__RTC_InitBase
rtc$IMZ	ENDS
;	COMDAT rtc$TMZ
rtc$TMZ	SEGMENT
__RTC_Shutdown.rtc$TMZ DD FLAT:__RTC_Shutdown
; Function compile flags: /Odt /RTCsu
rtc$TMZ	ENDS
;	COMDAT ?_AtlGetThreadACPThunk@ATL@@YGIXZ
_TEXT	SEGMENT
_pfnGetThreadACP$ = -164				; size = 4
_ver$ = -156						; size = 148
__$ArrayPad$ = -4					; size = 4
__$ReturnAddr$ = 4					; size = 4
?_AtlGetThreadACPThunk@ATL@@YGIXZ PROC NEAR		; ATL::_AtlGetThreadACPThunk, COMDAT

; 134  : {

  00000	55		 push	 ebp
  00001	8b ec		 mov	 ebp, esp
  00003	81 ec a4 00 00
	00		 sub	 esp, 164		; 000000a4H
  00009	56		 push	 esi
  0000a	57		 push	 edi
  0000b	8d bd 5c ff ff
	ff		 lea	 edi, DWORD PTR [ebp-164]
  00011	b9 29 00 00 00	 mov	 ecx, 41			; 00000029H
  00016	b8 cc cc cc cc	 mov	 eax, -858993460		; ccccccccH
  0001b	f3 ab		 rep stosd
  0001d	a1 00 00 00 00	 mov	 eax, DWORD PTR ___security_cookie
  00022	89 45 fc	 mov	 DWORD PTR __$ArrayPad$[ebp], eax

; 135  : 	OSVERSIONINFO ver;
; 136  : 	ATLGETTHREADACP pfnGetThreadACP;
; 137  : 
; 138  : 	ver.dwOSVersionInfoSize = sizeof( ver );

  00025	c7 85 64 ff ff
	ff 94 00 00 00	 mov	 DWORD PTR _ver$[ebp], 148 ; 00000094H

; 139  : 	::GetVersionEx( &ver );

  0002f	8b f4		 mov	 esi, esp
  00031	8d 85 64 ff ff
	ff		 lea	 eax, DWORD PTR _ver$[ebp]
  00037	50		 push	 eax
  00038	ff 15 00 00 00
	00		 call	 DWORD PTR __imp__GetVersionExA@4
  0003e	3b f4		 cmp	 esi, esp
  00040	e8 00 00 00 00	 call	 __RTC_CheckEsp

; 140  : 	if( (ver.dwPlatformId == VER_PLATFORM_WIN32_NT) && (ver.dwMajorVersion >= 5) )

  00045	83 bd 74 ff ff
	ff 02		 cmp	 DWORD PTR _ver$[ebp+16], 2
  0004c	75 15		 jne	 SHORT $L24163
  0004e	83 bd 68 ff ff
	ff 05		 cmp	 DWORD PTR _ver$[ebp+4], 5
  00055	72 0c		 jb	 SHORT $L24163

; 141  : 	{
; 142  : 		// On Win2K, CP_THREAD_ACP is supported
; 143  : 		pfnGetThreadACP = _AtlGetThreadACPReal;

  00057	c7 85 5c ff ff
	ff 00 00 00 00	 mov	 DWORD PTR _pfnGetThreadACP$[ebp], OFFSET FLAT:?_AtlGetThreadACPReal@ATL@@YGIXZ ; ATL::_AtlGetThreadACPReal

; 144  : 	}
; 145  : 	else

  00061	eb 0a		 jmp	 SHORT $L24164
$L24163:

; 146  : 	{
; 147  : 		pfnGetThreadACP = _AtlGetThreadACPFake;

  00063	c7 85 5c ff ff
	ff 00 00 00 00	 mov	 DWORD PTR _pfnGetThreadACP$[ebp], OFFSET FLAT:?_AtlGetThreadACPFake@ATL@@YGIXZ ; ATL::_AtlGetThreadACPFake
$L24164:

; 148  : 	}
; 149  : 	InterlockedExchangePointer( reinterpret_cast< void** >(&g_pfnGetThreadACP), pfnGetThreadACP );

  0006d	8b 8d 5c ff ff
	ff		 mov	 ecx, DWORD PTR _pfnGetThreadACP$[ebp]
  00073	51		 push	 ecx
  00074	68 00 00 00 00	 push	 OFFSET FLAT:?g_pfnGetThreadACP@ATL@@3P6GIXZA ; ATL::g_pfnGetThreadACP
  00079	e8 00 00 00 00	 call	 ?InterlockedExchangePointer@@YGPAXPAPAXPAX@Z ; InterlockedExchangePointer

; 150  : 
; 151  : 	return( g_pfnGetThreadACP() );

  0007e	8b f4		 mov	 esi, esp
  00080	ff 15 00 00 00
	00		 call	 DWORD PTR ?g_pfnGetThreadACP@ATL@@3P6GIXZA ; ATL::g_pfnGetThreadACP
  00086	3b f4		 cmp	 esi, esp
  00088	e8 00 00 00 00	 call	 __RTC_CheckEsp

; 152  : }

  0008d	52		 push	 edx
  0008e	8b cd		 mov	 ecx, ebp
  00090	50		 push	 eax
  00091	8d 15 00 00 00
	00		 lea	 edx, DWORD PTR $L194661
  00097	e8 00 00 00 00	 call	 @_RTC_CheckStackVars@8
  0009c	58		 pop	 eax
  0009d	5a		 pop	 edx
  0009e	8b 4d fc	 mov	 ecx, DWORD PTR __$ArrayPad$[ebp]
  000a1	e8 00 00 00 00	 call	 @__security_check_cookie@4
  000a6	5f		 pop	 edi
  000a7	5e		 pop	 esi
  000a8	81 c4 a4 00 00
	00		 add	 esp, 164		; 000000a4H
  000ae	3b ec		 cmp	 ebp, esp
  000b0	e8 00 00 00 00	 call	 __RTC_CheckEsp
  000b5	8b e5		 mov	 esp, ebp
  000b7	5d		 pop	 ebp
  000b8	c3		 ret	 0
$L194661:
  000b9	01 00 00 00	 DD	 1
  000bd	00 00 00 00	 DD	 $L194660
$L194660:
  000c1	64 ff ff ff	 DD	 -156			; ffffff64H
  000c5	94 00 00 00	 DD	 148			; 00000094H
  000c9	00 00 00 00	 DD	 $L194657
$L194657:
  000cd	76		 DB	 118			; 00000076H
  000ce	65		 DB	 101			; 00000065H
  000cf	72		 DB	 114			; 00000072H
  000d0	00		 DB	 0
?_AtlGetThreadACPThunk@ATL@@YGIXZ ENDP			; ATL::_AtlGetThreadACPThunk
_TEXT	ENDS
EXTRN	__imp__InterlockedExchange@8:NEAR
; Function compile flags: /Odt /RTCsu
;	COMDAT ?InterlockedExchangePointer@@YGPAXPAPAXPAX@Z
_TEXT	SEGMENT
_pp$ = 8						; size = 4
_pNew$ = 12						; size = 4
?InterlockedExchangePointer@@YGPAXPAPAXPAX@Z PROC NEAR	; InterlockedExchangePointer, COMDAT

; 91   : {

  00000	55		 push	 ebp
  00001	8b ec		 mov	 ebp, esp
  00003	56		 push	 esi

; 92   : 	return( reinterpret_cast<void*>(static_cast<LONG_PTR>(::InterlockedExchange(reinterpret_cast<LONG*>(pp), static_cast<LONG>(reinterpret_cast<LONG_PTR>(pNew))))) );

  00004	8b f4		 mov	 esi, esp
  00006	8b 45 0c	 mov	 eax, DWORD PTR _pNew$[ebp]
  00009	50		 push	 eax
  0000a	8b 4d 08	 mov	 ecx, DWORD PTR _pp$[ebp]
  0000d	51		 push	 ecx
  0000e	ff 15 00 00 00
	00		 call	 DWORD PTR __imp__InterlockedExchange@8
  00014	3b f4		 cmp	 esi, esp
  00016	e8 00 00 00 00	 call	 __RTC_CheckEsp

; 93   : }

  0001b	5e		 pop	 esi
  0001c	3b ec		 cmp	 ebp, esp
  0001e	e8 00 00 00 00	 call	 __RTC_CheckEsp
  00023	5d		 pop	 ebp
  00024	c2 08 00	 ret	 8
?InterlockedExchangePointer@@YGPAXPAPAXPAX@Z ENDP	; InterlockedExchangePointer
_TEXT	ENDS
EXTRN	__imp__GetACP@0:NEAR
EXTRN	__imp__GetLocaleInfoA@16:NEAR
EXTRN	__imp__GetThreadLocale@0:NEAR
; Function compile flags: /Odt /RTCsu
;	COMDAT ?_AtlGetThreadACPFake@ATL@@YGIXZ
_TEXT	SEGMENT
_pch$24151 = -32					; size = 4
_szACP$ = -24						; size = 7
_lcidThread$ = -12					; size = 4
_nACP$ = -8						; size = 4
__$ArrayPad$ = -4					; size = 4
__$ReturnAddr$ = 4					; size = 4
?_AtlGetThreadACPFake@ATL@@YGIXZ PROC NEAR		; ATL::_AtlGetThreadACPFake, COMDAT

; 101  : {

  00000	55		 push	 ebp
  00001	8b ec		 mov	 ebp, esp
  00003	83 ec 20	 sub	 esp, 32			; 00000020H
  00006	56		 push	 esi
  00007	b8 cc cc cc cc	 mov	 eax, -858993460		; ccccccccH
  0000c	89 45 e0	 mov	 DWORD PTR [ebp-32], eax
  0000f	89 45 e4	 mov	 DWORD PTR [ebp-28], eax
  00012	89 45 e8	 mov	 DWORD PTR [ebp-24], eax
  00015	89 45 ec	 mov	 DWORD PTR [ebp-20], eax
  00018	89 45 f0	 mov	 DWORD PTR [ebp-16], eax
  0001b	89 45 f4	 mov	 DWORD PTR [ebp-12], eax
  0001e	89 45 f8	 mov	 DWORD PTR [ebp-8], eax
  00021	89 45 fc	 mov	 DWORD PTR [ebp-4], eax
  00024	a1 00 00 00 00	 mov	 eax, DWORD PTR ___security_cookie
  00029	89 45 fc	 mov	 DWORD PTR __$ArrayPad$[ebp], eax

; 102  : 	UINT nACP = 0;

  0002c	c7 45 f8 00 00
	00 00		 mov	 DWORD PTR _nACP$[ebp], 0

; 103  : 
; 104  : 	LCID lcidThread = ::GetThreadLocale();

  00033	8b f4		 mov	 esi, esp
  00035	ff 15 00 00 00
	00		 call	 DWORD PTR __imp__GetThreadLocale@0
  0003b	3b f4		 cmp	 esi, esp
  0003d	e8 00 00 00 00	 call	 __RTC_CheckEsp
  00042	89 45 f4	 mov	 DWORD PTR _lcidThread$[ebp], eax

; 105  : 
; 106  : 	char szACP[7];
; 107  : 	// GetLocaleInfoA will fail for a Unicode-only LCID, but those are only supported on 
; 108  : 	// Windows 2000.  Since Windows 2000 supports CP_THREAD_ACP, this code path is never
; 109  : 	// executed on Windows 2000.
; 110  : 	if (::GetLocaleInfoA(lcidThread, LOCALE_IDEFAULTANSICODEPAGE, szACP, 7) != 0)

  00045	8b f4		 mov	 esi, esp
  00047	6a 07		 push	 7
  00049	8d 45 e8	 lea	 eax, DWORD PTR _szACP$[ebp]
  0004c	50		 push	 eax
  0004d	68 04 10 00 00	 push	 4100			; 00001004H
  00052	8b 4d f4	 mov	 ecx, DWORD PTR _lcidThread$[ebp]
  00055	51		 push	 ecx
  00056	ff 15 00 00 00
	00		 call	 DWORD PTR __imp__GetLocaleInfoA@16
  0005c	3b f4		 cmp	 esi, esp
  0005e	e8 00 00 00 00	 call	 __RTC_CheckEsp
  00063	85 c0		 test	 eax, eax
  00065	74 34		 je	 SHORT $L24150

; 111  : 	{
; 112  : 		char* pch = szACP;

  00067	8d 55 e8	 lea	 edx, DWORD PTR _szACP$[ebp]
  0006a	89 55 e0	 mov	 DWORD PTR _pch$24151[ebp], edx
$L24153:

; 113  : 		while (*pch != '\0')

  0006d	8b 45 e0	 mov	 eax, DWORD PTR _pch$24151[ebp]
  00070	0f be 08	 movsx	 ecx, BYTE PTR [eax]
  00073	85 c9		 test	 ecx, ecx
  00075	74 24		 je	 SHORT $L24150

; 114  : 		{
; 115  : 			nACP *= 10;

  00077	8b 55 f8	 mov	 edx, DWORD PTR _nACP$[ebp]
  0007a	6b d2 0a	 imul	 edx, 10			; 0000000aH
  0007d	89 55 f8	 mov	 DWORD PTR _nACP$[ebp], edx

; 116  : 			nACP += *pch++ - '0';

  00080	8b 45 e0	 mov	 eax, DWORD PTR _pch$24151[ebp]
  00083	0f be 08	 movsx	 ecx, BYTE PTR [eax]
  00086	8b 55 f8	 mov	 edx, DWORD PTR _nACP$[ebp]
  00089	8d 44 0a d0	 lea	 eax, DWORD PTR [edx+ecx-48]
  0008d	89 45 f8	 mov	 DWORD PTR _nACP$[ebp], eax
  00090	8b 4d e0	 mov	 ecx, DWORD PTR _pch$24151[ebp]
  00093	83 c1 01	 add	 ecx, 1
  00096	89 4d e0	 mov	 DWORD PTR _pch$24151[ebp], ecx

; 117  : 		}

  00099	eb d2		 jmp	 SHORT $L24153
$L24150:

; 118  : 	}
; 119  : 	// Use the Default ANSI Code Page if we were unable to get the thread ACP or if one does not exist.
; 120  : 	if (nACP == 0)

  0009b	83 7d f8 00	 cmp	 DWORD PTR _nACP$[ebp], 0
  0009f	75 12		 jne	 SHORT $L24155

; 121  : 		nACP = ::GetACP();

  000a1	8b f4		 mov	 esi, esp
  000a3	ff 15 00 00 00
	00		 call	 DWORD PTR __imp__GetACP@0
  000a9	3b f4		 cmp	 esi, esp
  000ab	e8 00 00 00 00	 call	 __RTC_CheckEsp
  000b0	89 45 f8	 mov	 DWORD PTR _nACP$[ebp], eax
$L24155:

; 122  : 
; 123  : 	return nACP;

  000b3	8b 45 f8	 mov	 eax, DWORD PTR _nACP$[ebp]

; 124  : }

  000b6	52		 push	 edx
  000b7	8b cd		 mov	 ecx, ebp
  000b9	50		 push	 eax
  000ba	8d 15 00 00 00
	00		 lea	 edx, DWORD PTR $L194672
  000c0	e8 00 00 00 00	 call	 @_RTC_CheckStackVars@8
  000c5	58		 pop	 eax
  000c6	5a		 pop	 edx
  000c7	8b 4d fc	 mov	 ecx, DWORD PTR __$ArrayPad$[ebp]
  000ca	e8 00 00 00 00	 call	 @__security_check_cookie@4
  000cf	5e		 pop	 esi
  000d0	83 c4 20	 add	 esp, 32			; 00000020H
  000d3	3b ec		 cmp	 ebp, esp
  000d5	e8 00 00 00 00	 call	 __RTC_CheckEsp
  000da	8b e5		 mov	 esp, ebp
  000dc	5d		 pop	 ebp
  000dd	c3		 ret	 0
$L194672:
  000de	01 00 00 00	 DD	 1
  000e2	00 00 00 00	 DD	 $L194671
$L194671:
  000e6	e8 ff ff ff	 DD	 -24			; ffffffe8H
  000ea	07 00 00 00	 DD	 7
  000ee	00 00 00 00	 DD	 $L194669
$L194669:
  000f2	73		 DB	 115			; 00000073H
  000f3	7a		 DB	 122			; 0000007aH
  000f4	41		 DB	 65			; 00000041H
  000f5	43		 DB	 67			; 00000043H
  000f6	50		 DB	 80			; 00000050H
  000f7	00		 DB	 0
?_AtlGetThreadACPFake@ATL@@YGIXZ ENDP			; ATL::_AtlGetThreadACPFake
; Function compile flags: /Odt /RTCsu
_TEXT	ENDS
;	COMDAT ?_AtlGetThreadACPReal@ATL@@YGIXZ
_TEXT	SEGMENT
?_AtlGetThreadACPReal@ATL@@YGIXZ PROC NEAR		; ATL::_AtlGetThreadACPReal, COMDAT

; 127  : {

  00000	55		 push	 ebp
  00001	8b ec		 mov	 ebp, esp

; 128  : 	return( CP_THREAD_ACP );

  00003	b8 03 00 00 00	 mov	 eax, 3

; 129  : }

  00008	5d		 pop	 ebp
  00009	c3		 ret	 0
?_AtlGetThreadACPReal@ATL@@YGIXZ ENDP			; ATL::_AtlGetThreadACPReal
_TEXT	ENDS
PUBLIC	?OnSendChangeSkin@CSkinMgrV1@@UAEXV?$CStringT@DV?$StrTraitMFC_DLL@DV?$ChTraitsCRT@D@ATL@@@@@ATL@@@Z ; CSkinMgrV1::OnSendChangeSkin
PUBLIC	?OnSendChangeSubject@CSkinMgrV1@@UAEXV?$CStringT@DV?$StrTraitMFC_DLL@DV?$ChTraitsCRT@D@ATL@@@@@ATL@@0@Z ; CSkinMgrV1::OnSendChangeSubject
PUBLIC	?OnChangeSkinAndSub@CSkinMgrV1@@UAEXABV?$CStringT@DV?$StrTraitMFC_DLL@DV?$ChTraitsCRT@D@ATL@@@@@ATL@@0@Z ; CSkinMgrV1::OnChangeSkinAndSub
PUBLIC	?OnStartDownSubject@CSkinMgrV1@@UAEXABV?$CStringT@DV?$StrTraitMFC_DLL@DV?$ChTraitsCRT@D@ATL@@@@@ATL@@@Z ; CSkinMgrV1::OnStartDownSubject
PUBLIC	?OnFinishDownSubject@CSkinMgrV1@@UAEXH@Z	; CSkinMgrV1::OnFinishDownSubject
PUBLIC	??_7CSkinMgrV1@@6BIWndEventListener@@@		; CSkinMgrV1::`vftable'
PUBLIC	??_7CSkinMgrV1@@6BIEventListener@@@		; CSkinMgrV1::`vftable'
PUBLIC	??_7CSkinMgrV1@@6BP2PObserver@@@		; CSkinMgrV1::`vftable'
PUBLIC	??_7CSkinMgrV1@@6BILayoutChangeObserver@@@	; CSkinMgrV1::`vftable'
PUBLIC	??1P2PObserver@@UAE@XZ				; P2PObserver::~P2PObserver
PUBLIC	?P2POb_DownStart@P2PObserver@@UAEXABV?$basic_string@DU?$char_traits@D@std@@V?$allocator@D@2@@std@@PBDI@Z ; P2PObserver::P2POb_DownStart
PUBLIC	?P2POb_DownFinish@P2PObserver@@UAEXABV?$basic_string@DU?$char_traits@D@std@@V?$allocator@D@2@@std@@@Z ; P2PObserver::P2POb_DownFinish
PUBLIC	?P2POb_DownFailed@P2PObserver@@UAEXABV?$basic_string@DU?$char_traits@D@std@@V?$allocator@D@2@@std@@W4P2P_DOWN_FAILED_REASON@@@Z ; P2PObserver::P2POb_DownFailed
PUBLIC	?P2POb_DownProgress@P2PObserver@@UAEXABV?$basic_string@DU?$char_traits@D@std@@V?$allocator@D@2@@std@@III@Z ; P2PObserver::P2POb_DownProgress
PUBLIC	?P2POb_DownPause@P2PObserver@@UAEXABV?$basic_string@DU?$char_traits@D@std@@V?$allocator@D@2@@std@@@Z ; P2PObserver::P2POb_DownPause
PUBLIC	?P2POb_SigChange@P2PObserver@@UAEXABV?$basic_string@DU?$char_traits@D@std@@V?$allocator@D@2@@std@@0PBD@Z ; P2PObserver::P2POb_SigChange
PUBLIC	??0P2PObserver@@QAE@XZ				; P2PObserver::P2PObserver
PUBLIC	?OnCliekButton@IEventListener@@UAEXPAVCButton@@@Z ; IEventListener::OnCliekButton
PUBLIC	?OnCliekSlide@IEventListener@@UAEXPAVCSliderCtrl@@@Z ; IEventListener::OnCliekSlide
PUBLIC	?ILayoutChangeOb_LayerChanged@ILayoutChangeObserver@@UAEXV?$basic_string@DU?$char_traits@D@std@@V?$allocator@D@2@@std@@00@Z ; ILayoutChangeObserver::ILayoutChangeOb_LayerChanged
PUBLIC	?ILayoutChangeOb_PaneChanged@ILayoutChangeObserver@@UAEXV?$basic_string@DU?$char_traits@D@std@@V?$allocator@D@2@@std@@0@Z ; ILayoutChangeObserver::ILayoutChangeOb_PaneChanged
PUBLIC	?ILayoutChangeOb_ColorChanged@ILayoutChangeObserver@@UAEXXZ ; ILayoutChangeObserver::ILayoutChangeOb_ColorChanged
PUBLIC	?ILayoutChangeOb_ColorChanging@ILayoutChangeObserver@@UAEXXZ ; ILayoutChangeObserver::ILayoutChangeOb_ColorChanging
PUBLIC	?ILayoutChangeOb_UpdateLayout@ILayoutChangeObserver@@UAEXPAUHWND__@@@Z ; ILayoutChangeObserver::ILayoutChangeOb_UpdateLayout
PUBLIC	?ILayoutChangeOb_InitFinished@ILayoutChangeObserver@@UAEXXZ ; ILayoutChangeObserver::ILayoutChangeOb_InitFinished
PUBLIC	?ILayoutChangeOb_InitBegin@ILayoutChangeObserver@@UAEXXZ ; ILayoutChangeObserver::ILayoutChangeOb_InitBegin
PUBLIC	??0ILayoutChangeObserver@@QAE@XZ		; ILayoutChangeObserver::ILayoutChangeObserver
PUBLIC	??1ILayoutChangeObserver@@UAE@XZ		; ILayoutChangeObserver::~ILayoutChangeObserver
PUBLIC	??_R0?AVIEventListener@@@8			; IEventListener `RTTI Type Descriptor'
PUBLIC	??_R0?AVIWndEventListener@@@8			; IWndEventListener `RTTI Type Descriptor'
PUBLIC	??_R1A@?0A@A@IWndEventListener@@8		; IWndEventListener::`RTTI Base Class Descriptor at (0,-1,0,0)'
PUBLIC	??_R0?AVILayoutChangeObserver@@@8		; ILayoutChangeObserver `RTTI Type Descriptor'
PUBLIC	??_R0?AVP2PObserver@@@8				; P2PObserver `RTTI Type Descriptor'
PUBLIC	??_R4CSkinMgrV1@@6BIWndEventListener@@@		; CSkinMgrV1::`RTTI Complete Object Locator'
PUBLIC	??_R0?AVCSkinMgrV1@@@8				; CSkinMgrV1 `RTTI Type Descriptor'
PUBLIC	??_R3CSkinMgrV1@@8				; CSkinMgrV1::`RTTI Class Hierarchy Descriptor'
PUBLIC	??_R2CSkinMgrV1@@8				; CSkinMgrV1::`RTTI Base Class Array'
PUBLIC	??_R1A@?0A@A@CSkinMgrV1@@8			; CSkinMgrV1::`RTTI Base Class Descriptor at (0,-1,0,0)'
PUBLIC	??_R1A@?0A@A@IChangeColorMgr@@8			; IChangeColorMgr::`RTTI Base Class Descriptor at (0,-1,0,0)'
PUBLIC	??_R0?AVIChangeColorMgr@@@8			; IChangeColorMgr `RTTI Type Descriptor'
PUBLIC	??_R13?0A@A@IEventListener@@8			; IEventListener::`RTTI Base Class Descriptor at (4,-1,0,0)'
PUBLIC	??_R17?0A@A@P2PObserver@@8			; P2PObserver::`RTTI Base Class Descriptor at (8,-1,0,0)'
PUBLIC	??_R1M@?0A@A@ILayoutChangeObserver@@8		; ILayoutChangeObserver::`RTTI Base Class Descriptor at (12,-1,0,0)'
PUBLIC	??_R1M@?0A@A@IMessageObserver@@8		; IMessageObserver::`RTTI Base Class Descriptor at (12,-1,0,0)'
PUBLIC	??_R4CSkinMgrV1@@6BIEventListener@@@		; CSkinMgrV1::`RTTI Complete Object Locator'
PUBLIC	??_ECSkinMgrV1@@W7AEPAXI@Z			; [thunk]:CSkinMgrV1::`vector deleting destructor'
PUBLIC	??_R4CSkinMgrV1@@6BP2PObserver@@@		; CSkinMgrV1::`RTTI Complete Object Locator'
PUBLIC	??_ECSkinMgrV1@@WM@AEPAXI@Z			; [thunk]:CSkinMgrV1::`vector deleting destructor'
PUBLIC	??_R4CSkinMgrV1@@6BILayoutChangeObserver@@@	; CSkinMgrV1::`RTTI Complete Object Locator'
PUBLIC	?OnChangeSkinTemplate@IWndEventListener@@UAE_NV?$CStringT@DV?$StrTraitMFC_DLL@DV?$ChTraitsCRT@D@ATL@@@@@ATL@@@Z ; IWndEventListener::OnChangeSkinTemplate
PUBLIC	?OnchangeColor@IWndEventListener@@UAEXKI@Z	; IWndEventListener::OnchangeColor
PUBLIC	??_R0?AVIMessageObserver@@@8			; IMessageObserver `RTTI Type Descriptor'
PUBLIC	??0IChangeColorMgr@@QAE@XZ			; IChangeColorMgr::IChangeColorMgr
PUBLIC	??0?$vector@PAVIChangeSkinEventListener@@V?$allocator@PAVIChangeSkinEventListener@@@std@@@std@@QAE@XZ ; std::vector<IChangeSkinEventListener *,std::allocator<IChangeSkinEventListener *> >::vector<IChangeSkinEventListener *,std::allocator<IChangeSkinEventListener *> >
PUBLIC	??1?$vector@PAVIChangeSkinEventListener@@V?$allocator@PAVIChangeSkinEventListener@@@std@@@std@@QAE@XZ ; std::vector<IChangeSkinEventListener *,std::allocator<IChangeSkinEventListener *> >::~vector<IChangeSkinEventListener *,std::allocator<IChangeSkinEventListener *> >
PUBLIC	?GetSkinWnd@CSkinMgrV1@@UAEPAVCWnd@@XZ		; CSkinMgrV1::GetSkinWnd
PUBLIC	??0CSkinMgrV1@@QAE@XZ				; CSkinMgrV1::CSkinMgrV1
PUBLIC	?CloseSkinWnd@CSkinMgrV1@@UAE_NXZ		; CSkinMgrV1::CloseSkinWnd
PUBLIC	?PopSkinWnd@CSkinMgrV1@@UAEHPAVCWnd@@IUtagPOINT@@@Z ; CSkinMgrV1::PopSkinWnd
PUBLIC	?InsertSmallSkin@CSkinMgrV1@@UAE_NV?$basic_string@DU?$char_traits@D@std@@V?$allocator@D@2@@std@@PAVCBitmap@@0_N@Z ; CSkinMgrV1::InsertSmallSkin
PUBLIC	?InsertSmallSubjectSkin@CSkinMgrV1@@UAE_NV?$basic_string@DU?$char_traits@D@std@@V?$allocator@D@2@@std@@PAVCBitmap@@0_N@Z ; CSkinMgrV1::InsertSmallSubjectSkin
PUBLIC	?SetTipText@CSkinMgrV1@@UAEXV?$CStringT@DV?$StrTraitMFC_DLL@DV?$ChTraitsCRT@D@ATL@@@@@ATL@@0@Z ; CSkinMgrV1::SetTipText
PUBLIC	?ChangeBmp@CSkinMgrV1@@UAEPAVDIBINFO@@V2@IK@Z	; CSkinMgrV1::ChangeBmp
PUBLIC	?ChangeColor@CSkinMgrV1@@UAEXAAK@Z		; CSkinMgrV1::ChangeColor
PUBLIC	?SetListener@CSkinMgrV1@@UAEXPAVIChangeSkinEventListener@@@Z ; CSkinMgrV1::SetListener
PUBLIC	?RemoveListener@CSkinMgrV1@@UAEXPAVIChangeSkinEventListener@@@Z ; CSkinMgrV1::RemoveListener
PUBLIC	?OnClose@CSkinMgrV1@@UAEXXZ			; CSkinMgrV1::OnClose
PUBLIC	?SetSelectedColor@CSkinMgrV1@@UAEXK@Z		; CSkinMgrV1::SetSelectedColor
PUBLIC	?BeforeChangeColor@CSkinMgrV1@@UAEXXZ		; CSkinMgrV1::BeforeChangeColor
PUBLIC	?AfterChangeColor@CSkinMgrV1@@UAEXXZ		; CSkinMgrV1::AfterChangeColor
PUBLIC	?SetTopMost@CSkinMgrV1@@UAEX_N@Z		; CSkinMgrV1::SetTopMost
PUBLIC	?DeleteObject@CSkinMgrV1@@UAEXXZ		; CSkinMgrV1::DeleteObject
PUBLIC	?DownloadStart@CSkinMgrV1@@UAEXXZ		; CSkinMgrV1::DownloadStart
PUBLIC	?SetDownloadPercentage@CSkinMgrV1@@UAEXHV?$CStringT@DV?$StrTraitMFC_DLL@DV?$ChTraitsCRT@D@ATL@@@@@ATL@@@Z ; CSkinMgrV1::SetDownloadPercentage
PUBLIC	?DownloadFinish@CSkinMgrV1@@UAEXV?$CStringT@DV?$StrTraitMFC_DLL@DV?$ChTraitsCRT@D@ATL@@@@@ATL@@@Z ; CSkinMgrV1::DownloadFinish
PUBLIC	?NotifyChangeSubject@CSkinMgrV1@@UAEXABV?$CStringT@DV?$StrTraitMFC_DLL@DV?$ChTraitsCRT@D@ATL@@@@@ATL@@@Z ; CSkinMgrV1::NotifyChangeSubject
PUBLIC	?OnTabSelChange@CSkinMgrV1@@UAEXI@Z		; CSkinMgrV1::OnTabSelChange
PUBLIC	?ClickSub@CSkinMgrV1@@UAEXABV?$CStringT@DV?$StrTraitMFC_DLL@DV?$ChTraitsCRT@D@ATL@@@@@ATL@@@Z ; CSkinMgrV1::ClickSub
PUBLIC	?DownloadWebSub@CSkinMgrV1@@UAEXABV?$CStringT@DV?$StrTraitMFC_DLL@DV?$ChTraitsCRT@D@ATL@@@@@ATL@@0@Z ; CSkinMgrV1::DownloadWebSub
PUBLIC	?ILayoutChangeOb_SkinChanged@CSkinMgrV1@@UAEXV?$basic_string@DU?$char_traits@D@std@@V?$allocator@D@2@@std@@0@Z ; CSkinMgrV1::ILayoutChangeOb_SkinChanged
PUBLIC	?OnSendChangeColor@CSkinMgrV1@@UAEXKI_N@Z	; CSkinMgrV1::OnSendChangeColor
EXTRN	__except_list:DWORD
EXTRN	___CxxFrameHandler:NEAR
EXTRN	?AfxGetMessageManager@@YAPAVIMessageManager@@XZ:NEAR ; AfxGetMessageManager
EXTRN	__imp__InitializeCriticalSection@4:NEAR
EXTRN	__imp_??0?$CStringT@DV?$StrTraitMFC_DLL@DV?$ChTraitsCRT@D@ATL@@@@@ATL@@QAE@XZ:NEAR
EXTRN	__imp_??1?$CStringT@DV?$StrTraitMFC_DLL@DV?$ChTraitsCRT@D@ATL@@@@@ATL@@QAE@XZ:NEAR
EXTRN	??_7type_info@@6B@:QWORD			; type_info::`vftable'
xdata$x	SEGMENT
$T194690 DD	0ffffffffH
	DD	FLAT:$L194677
	DD	00H
	DD	FLAT:$L194678
	DD	01H
	DD	FLAT:$L194679
	DD	02H
	DD	FLAT:$L194680
	DD	03H
	DD	FLAT:$L194681
	DD	04H
	DD	FLAT:$L194682
	DD	05H
	DD	FLAT:$L194683
$T194687 DD	019930520H
	DD	07H
	DD	FLAT:$T194690
	DD	2 DUP(00H)
	DD	2 DUP(00H)
xdata$x	ENDS
;	COMDAT ??_7CSkinMgrV1@@6BIWndEventListener@@@
; File d:\boxgit\playbox\playbox\dev\prj\playbox\src\layoutmgr\changecolor\ichangecolormgr.cpp
CONST	SEGMENT
??_7CSkinMgrV1@@6BIWndEventListener@@@ DD FLAT:??_R4CSkinMgrV1@@6BIWndEventListener@@@ ; CSkinMgrV1::`vftable'
	DD	FLAT:?OnChangeSkinTemplate@IWndEventListener@@UAE_NV?$CStringT@DV?$StrTraitMFC_DLL@DV?$ChTraitsCRT@D@ATL@@@@@ATL@@@Z
	DD	FLAT:?OnchangeColor@IWndEventListener@@UAEXKI@Z
	DD	FLAT:?OnTabSelChange@CSkinMgrV1@@UAEXI@Z
	DD	FLAT:?CloseSkinWnd@CSkinMgrV1@@UAE_NXZ
	DD	FLAT:?PopSkinWnd@CSkinMgrV1@@UAEHPAVCWnd@@IUtagPOINT@@@Z
	DD	FLAT:?GetSkinWnd@CSkinMgrV1@@UAEPAVCWnd@@XZ
	DD	FLAT:?InsertSmallSkin@CSkinMgrV1@@UAE_NV?$basic_string@DU?$char_traits@D@std@@V?$allocator@D@2@@std@@PAVCBitmap@@0_N@Z
	DD	FLAT:?InsertSmallSubjectSkin@CSkinMgrV1@@UAE_NV?$basic_string@DU?$char_traits@D@std@@V?$allocator@D@2@@std@@PAVCBitmap@@0_N@Z
	DD	FLAT:?ChangeBmp@CSkinMgrV1@@UAEPAVDIBINFO@@V2@IK@Z
	DD	FLAT:?ChangeColor@CSkinMgrV1@@UAEXAAK@Z
	DD	FLAT:?SetTipText@CSkinMgrV1@@UAEXV?$CStringT@DV?$StrTraitMFC_DLL@DV?$ChTraitsCRT@D@ATL@@@@@ATL@@0@Z
	DD	FLAT:?SetListener@CSkinMgrV1@@UAEXPAVIChangeSkinEventListener@@@Z
	DD	FLAT:?RemoveListener@CSkinMgrV1@@UAEXPAVIChangeSkinEventListener@@@Z
	DD	FLAT:?OnClose@CSkinMgrV1@@UAEXXZ
	DD	FLAT:?BeforeChangeColor@CSkinMgrV1@@UAEXXZ
	DD	FLAT:?AfterChangeColor@CSkinMgrV1@@UAEXXZ
	DD	FLAT:?SetTopMost@CSkinMgrV1@@UAEX_N@Z
	DD	FLAT:?SetSelectedColor@CSkinMgrV1@@UAEXK@Z
	DD	FLAT:?DeleteObject@CSkinMgrV1@@UAEXXZ
	DD	FLAT:?DownloadStart@CSkinMgrV1@@UAEXXZ
	DD	FLAT:?SetDownloadPercentage@CSkinMgrV1@@UAEXHV?$CStringT@DV?$StrTraitMFC_DLL@DV?$ChTraitsCRT@D@ATL@@@@@ATL@@@Z
	DD	FLAT:?DownloadFinish@CSkinMgrV1@@UAEXV?$CStringT@DV?$StrTraitMFC_DLL@DV?$ChTraitsCRT@D@ATL@@@@@ATL@@@Z
	DD	FLAT:?NotifyChangeSubject@CSkinMgrV1@@UAEXABV?$CStringT@DV?$StrTraitMFC_DLL@DV?$ChTraitsCRT@D@ATL@@@@@ATL@@@Z
	DD	FLAT:?ClickSub@CSkinMgrV1@@UAEXABV?$CStringT@DV?$StrTraitMFC_DLL@DV?$ChTraitsCRT@D@ATL@@@@@ATL@@@Z
	DD	FLAT:?DownloadWebSub@CSkinMgrV1@@UAEXABV?$CStringT@DV?$StrTraitMFC_DLL@DV?$ChTraitsCRT@D@ATL@@@@@ATL@@0@Z
CONST	ENDS
;	COMDAT ??_7CSkinMgrV1@@6BIEventListener@@@
CONST	SEGMENT
??_7CSkinMgrV1@@6BIEventListener@@@ DD FLAT:??_R4CSkinMgrV1@@6BIEventListener@@@ ; CSkinMgrV1::`vftable'
	DD	FLAT:?OnCliekButton@IEventListener@@UAEXPAVCButton@@@Z
	DD	FLAT:?OnCliekSlide@IEventListener@@UAEXPAVCSliderCtrl@@@Z
	DD	FLAT:?OnSendChangeColor@CSkinMgrV1@@UAEXKI_N@Z
	DD	FLAT:?OnSendChangeSkin@CSkinMgrV1@@UAEXV?$CStringT@DV?$StrTraitMFC_DLL@DV?$ChTraitsCRT@D@ATL@@@@@ATL@@@Z
	DD	FLAT:?OnSendChangeSubject@CSkinMgrV1@@UAEXV?$CStringT@DV?$StrTraitMFC_DLL@DV?$ChTraitsCRT@D@ATL@@@@@ATL@@0@Z
	DD	FLAT:?OnChangeSkinAndSub@CSkinMgrV1@@UAEXABV?$CStringT@DV?$StrTraitMFC_DLL@DV?$ChTraitsCRT@D@ATL@@@@@ATL@@0@Z
	DD	FLAT:?OnStartDownSubject@CSkinMgrV1@@UAEXABV?$CStringT@DV?$StrTraitMFC_DLL@DV?$ChTraitsCRT@D@ATL@@@@@ATL@@@Z
	DD	FLAT:?OnFinishDownSubject@CSkinMgrV1@@UAEXH@Z
CONST	ENDS
;	COMDAT ??_7CSkinMgrV1@@6BP2PObserver@@@
CONST	SEGMENT
??_7CSkinMgrV1@@6BP2PObserver@@@ DD FLAT:??_R4CSkinMgrV1@@6BP2PObserver@@@ ; CSkinMgrV1::`vftable'
	DD	FLAT:??_ECSkinMgrV1@@W7AEPAXI@Z
	DD	FLAT:?P2POb_DownStart@P2PObserver@@UAEXABV?$basic_string@DU?$char_traits@D@std@@V?$allocator@D@2@@std@@PBDI@Z
	DD	FLAT:?P2POb_DownFinish@P2PObserver@@UAEXABV?$basic_string@DU?$char_traits@D@std@@V?$allocator@D@2@@std@@@Z
	DD	FLAT:?P2POb_DownFailed@P2PObserver@@UAEXABV?$basic_string@DU?$char_traits@D@std@@V?$allocator@D@2@@std@@W4P2P_DOWN_FAILED_REASON@@@Z
	DD	FLAT:?P2POb_DownProgress@P2PObserver@@UAEXABV?$basic_string@DU?$char_traits@D@std@@V?$allocator@D@2@@std@@III@Z
	DD	FLAT:?P2POb_DownPause@P2PObserver@@UAEXABV?$basic_string@DU?$char_traits@D@std@@V?$allocator@D@2@@std@@@Z
	DD	FLAT:?P2POb_SigChange@P2PObserver@@UAEXABV?$basic_string@DU?$char_traits@D@std@@V?$allocator@D@2@@std@@0PBD@Z
CONST	ENDS
;	COMDAT ??_7CSkinMgrV1@@6BILayoutChangeObserver@@@
CONST	SEGMENT
??_7CSkinMgrV1@@6BILayoutChangeObserver@@@ DD FLAT:??_R4CSkinMgrV1@@6BILayoutChangeObserver@@@ ; CSkinMgrV1::`vftable'
	DD	FLAT:??_ECSkinMgrV1@@WM@AEPAXI@Z
	DD	FLAT:?ILayoutChangeOb_LayerChanged@ILayoutChangeObserver@@UAEXV?$basic_string@DU?$char_traits@D@std@@V?$allocator@D@2@@std@@00@Z
	DD	FLAT:?ILayoutChangeOb_PaneChanged@ILayoutChangeObserver@@UAEXV?$basic_string@DU?$char_traits@D@std@@V?$allocator@D@2@@std@@0@Z
	DD	FLAT:?ILayoutChangeOb_SkinChanged@CSkinMgrV1@@UAEXV?$basic_string@DU?$char_traits@D@std@@V?$allocator@D@2@@std@@0@Z
	DD	FLAT:?ILayoutChangeOb_ColorChanged@ILayoutChangeObserver@@UAEXXZ
	DD	FLAT:?ILayoutChangeOb_ColorChanging@ILayoutChangeObserver@@UAEXXZ
	DD	FLAT:?ILayoutChangeOb_UpdateLayout@ILayoutChangeObserver@@UAEXPAUHWND__@@@Z
	DD	FLAT:?ILayoutChangeOb_InitFinished@ILayoutChangeObserver@@UAEXXZ
	DD	FLAT:?ILayoutChangeOb_InitBegin@ILayoutChangeObserver@@UAEXXZ
CONST	ENDS
;	COMDAT ??_R4CSkinMgrV1@@6BIWndEventListener@@@
rdata$r	SEGMENT
??_R4CSkinMgrV1@@6BIWndEventListener@@@ DD 00H		; CSkinMgrV1::`RTTI Complete Object Locator'
	DD	00H
	DD	00H
	DD	FLAT:??_R0?AVCSkinMgrV1@@@8
	DD	FLAT:??_R3CSkinMgrV1@@8
rdata$r	ENDS
;	COMDAT ??_R0?AVCSkinMgrV1@@@8
_DATA	SEGMENT
??_R0?AVCSkinMgrV1@@@8 DD FLAT:??_7type_info@@6B@	; CSkinMgrV1 `RTTI Type Descriptor'
	DD	00H
	DB	'.?AVCSkinMgrV1@@', 00H
_DATA	ENDS
;	COMDAT ??_R3CSkinMgrV1@@8
rdata$r	SEGMENT
??_R3CSkinMgrV1@@8 DD 00H				; CSkinMgrV1::`RTTI Class Hierarchy Descriptor'
	DD	01H
	DD	07H
	DD	FLAT:??_R2CSkinMgrV1@@8
rdata$r	ENDS
;	COMDAT ??_R2CSkinMgrV1@@8
rdata$r	SEGMENT
??_R2CSkinMgrV1@@8 DD FLAT:??_R1A@?0A@A@CSkinMgrV1@@8	; CSkinMgrV1::`RTTI Base Class Array'
	DD	FLAT:??_R1A@?0A@A@IChangeColorMgr@@8
	DD	FLAT:??_R1A@?0A@A@IWndEventListener@@8
	DD	FLAT:??_R13?0A@A@IEventListener@@8
	DD	FLAT:??_R17?0A@A@P2PObserver@@8
	DD	FLAT:??_R1M@?0A@A@ILayoutChangeObserver@@8
	DD	FLAT:??_R1M@?0A@A@IMessageObserver@@8
rdata$r	ENDS
;	COMDAT ??_R1A@?0A@A@CSkinMgrV1@@8
rdata$r	SEGMENT
??_R1A@?0A@A@CSkinMgrV1@@8 DD FLAT:??_R0?AVCSkinMgrV1@@@8 ; CSkinMgrV1::`RTTI Base Class Descriptor at (0,-1,0,0)'
	DD	06H
	DD	00H
	DD	0ffffffffH
	DD	00H
	DD	00H
rdata$r	ENDS
;	COMDAT ??_R1A@?0A@A@IChangeColorMgr@@8
rdata$r	SEGMENT
??_R1A@?0A@A@IChangeColorMgr@@8 DD FLAT:??_R0?AVIChangeColorMgr@@@8 ; IChangeColorMgr::`RTTI Base Class Descriptor at (0,-1,0,0)'
	DD	02H
	DD	00H
	DD	0ffffffffH
	DD	00H
	DD	00H
rdata$r	ENDS
;	COMDAT ??_R0?AVIChangeColorMgr@@@8
_DATA	SEGMENT
??_R0?AVIChangeColorMgr@@@8 DD FLAT:??_7type_info@@6B@	; IChangeColorMgr `RTTI Type Descriptor'
	DD	00H
	DB	'.?AVIChangeColorMgr@@', 00H
_DATA	ENDS
;	COMDAT ??_R1A@?0A@A@IWndEventListener@@8
rdata$r	SEGMENT
??_R1A@?0A@A@IWndEventListener@@8 DD FLAT:??_R0?AVIWndEventListener@@@8 ; IWndEventListener::`RTTI Base Class Descriptor at (0,-1,0,0)'
	DD	00H
	DD	00H
	DD	0ffffffffH
	DD	00H
	DD	00H
rdata$r	ENDS
;	COMDAT ??_R0?AVIWndEventListener@@@8
_DATA	SEGMENT
??_R0?AVIWndEventListener@@@8 DD FLAT:??_7type_info@@6B@ ; IWndEventListener `RTTI Type Descriptor'
	DD	00H
	DB	'.?AVIWndEventListener@@', 00H
_DATA	ENDS
;	COMDAT ??_R13?0A@A@IEventListener@@8
rdata$r	SEGMENT
??_R13?0A@A@IEventListener@@8 DD FLAT:??_R0?AVIEventListener@@@8 ; IEventListener::`RTTI Base Class Descriptor at (4,-1,0,0)'
	DD	00H
	DD	04H
	DD	0ffffffffH
	DD	00H
	DD	00H
rdata$r	ENDS
;	COMDAT ??_R0?AVIEventListener@@@8
_DATA	SEGMENT
??_R0?AVIEventListener@@@8 DD FLAT:??_7type_info@@6B@	; IEventListener `RTTI Type Descriptor'
	DD	00H
	DB	'.?AVIEventListener@@', 00H
_DATA	ENDS
;	COMDAT ??_R17?0A@A@P2PObserver@@8
rdata$r	SEGMENT
??_R17?0A@A@P2PObserver@@8 DD FLAT:??_R0?AVP2PObserver@@@8 ; P2PObserver::`RTTI Base Class Descriptor at (8,-1,0,0)'
	DD	00H
	DD	08H
	DD	0ffffffffH
	DD	00H
	DD	00H
rdata$r	ENDS
;	COMDAT ??_R0?AVP2PObserver@@@8
_DATA	SEGMENT
??_R0?AVP2PObserver@@@8 DD FLAT:??_7type_info@@6B@	; P2PObserver `RTTI Type Descriptor'
	DD	00H
	DB	'.?AVP2PObserver@@', 00H
_DATA	ENDS
;	COMDAT ??_R1M@?0A@A@ILayoutChangeObserver@@8
rdata$r	SEGMENT
??_R1M@?0A@A@ILayoutChangeObserver@@8 DD FLAT:??_R0?AVILayoutChangeObserver@@@8 ; ILayoutChangeObserver::`RTTI Base Class Descriptor at (12,-1,0,0)'
	DD	01H
	DD	0cH
	DD	0ffffffffH
	DD	00H
	DD	00H
rdata$r	ENDS
;	COMDAT ??_R0?AVILayoutChangeObserver@@@8
_DATA	SEGMENT
??_R0?AVILayoutChangeObserver@@@8 DD FLAT:??_7type_info@@6B@ ; ILayoutChangeObserver `RTTI Type Descriptor'
	DD	00H
	DB	'.?AVILayoutChangeObserver@@', 00H
_DATA	ENDS
;	COMDAT ??_R1M@?0A@A@IMessageObserver@@8
rdata$r	SEGMENT
??_R1M@?0A@A@IMessageObserver@@8 DD FLAT:??_R0?AVIMessageObserver@@@8 ; IMessageObserver::`RTTI Base Class Descriptor at (12,-1,0,0)'
	DD	00H
	DD	0cH
	DD	0ffffffffH
	DD	00H
	DD	00H
rdata$r	ENDS
;	COMDAT ??_R0?AVIMessageObserver@@@8
_DATA	SEGMENT
??_R0?AVIMessageObserver@@@8 DD FLAT:??_7type_info@@6B@	; IMessageObserver `RTTI Type Descriptor'
	DD	00H
	DB	'.?AVIMessageObserver@@', 00H
	ORG $-31
	DD	FLAT:??_7type_info@@6B@
	DD	00H
	DB	'.?AVIMessageObserver@@', 00H
_DATA	ENDS
;	COMDAT ??_R4CSkinMgrV1@@6BIEventListener@@@
rdata$r	SEGMENT
??_R4CSkinMgrV1@@6BIEventListener@@@ DD 00H		; CSkinMgrV1::`RTTI Complete Object Locator'
	DD	04H
	DD	00H
	DD	FLAT:??_R0?AVCSkinMgrV1@@@8
	DD	FLAT:??_R3CSkinMgrV1@@8
rdata$r	ENDS
;	COMDAT ??_R4CSkinMgrV1@@6BP2PObserver@@@
rdata$r	SEGMENT
??_R4CSkinMgrV1@@6BP2PObserver@@@ DD 00H		; CSkinMgrV1::`RTTI Complete Object Locator'
	DD	08H
	DD	00H
	DD	FLAT:??_R0?AVCSkinMgrV1@@@8
	DD	FLAT:??_R3CSkinMgrV1@@8
rdata$r	ENDS
;	COMDAT ??_R4CSkinMgrV1@@6BILayoutChangeObserver@@@
rdata$r	SEGMENT
??_R4CSkinMgrV1@@6BILayoutChangeObserver@@@ DD 00H	; CSkinMgrV1::`RTTI Complete Object Locator'
	DD	0cH
	DD	00H
	DD	FLAT:??_R0?AVCSkinMgrV1@@@8
	DD	FLAT:??_R3CSkinMgrV1@@8
; Function compile flags: /Odt /RTCsu
rdata$r	ENDS
_TEXT	SEGMENT
tv167 = -24						; size = 4
tv173 = -20						; size = 4
_this$ = -16						; size = 4
__$EHRec$ = -12						; size = 12
??0CSkinMgrV1@@QAE@XZ PROC NEAR				; CSkinMgrV1::CSkinMgrV1
; _this$ = ecx

; 24   : {

  00000	55		 push	 ebp
  00001	8b ec		 mov	 ebp, esp
  00003	6a ff		 push	 -1
  00005	68 00 00 00 00	 push	 __ehhandler$??0CSkinMgrV1@@QAE@XZ
  0000a	64 a1 00 00 00
	00		 mov	 eax, DWORD PTR fs:__except_list
  00010	50		 push	 eax
  00011	64 89 25 00 00
	00 00		 mov	 DWORD PTR fs:__except_list, esp
  00018	83 ec 0c	 sub	 esp, 12			; 0000000cH
  0001b	56		 push	 esi
  0001c	c7 45 e8 cc cc
	cc cc		 mov	 DWORD PTR [ebp-24], -858993460 ; ccccccccH
  00023	c7 45 ec cc cc
	cc cc		 mov	 DWORD PTR [ebp-20], -858993460 ; ccccccccH
  0002a	c7 45 f0 cc cc
	cc cc		 mov	 DWORD PTR [ebp-16], -858993460 ; ccccccccH
  00031	89 4d f0	 mov	 DWORD PTR _this$[ebp], ecx
  00034	8b 4d f0	 mov	 ecx, DWORD PTR _this$[ebp]
  00037	e8 00 00 00 00	 call	 ??0IChangeColorMgr@@QAE@XZ
  0003c	8b 4d f0	 mov	 ecx, DWORD PTR _this$[ebp]
  0003f	83 c1 08	 add	 ecx, 8
  00042	e8 00 00 00 00	 call	 ??0P2PObserver@@QAE@XZ
  00047	c7 45 fc 00 00
	00 00		 mov	 DWORD PTR __$EHRec$[ebp+8], 0
  0004e	8b 4d f0	 mov	 ecx, DWORD PTR _this$[ebp]
  00051	83 c1 0c	 add	 ecx, 12			; 0000000cH
  00054	e8 00 00 00 00	 call	 ??0ILayoutChangeObserver@@QAE@XZ
  00059	c6 45 fc 01	 mov	 BYTE PTR __$EHRec$[ebp+8], 1
  0005d	8b 45 f0	 mov	 eax, DWORD PTR _this$[ebp]
  00060	c7 00 00 00 00
	00		 mov	 DWORD PTR [eax], OFFSET FLAT:??_7CSkinMgrV1@@6BIWndEventListener@@@
  00066	8b 4d f0	 mov	 ecx, DWORD PTR _this$[ebp]
  00069	c7 41 04 00 00
	00 00		 mov	 DWORD PTR [ecx+4], OFFSET FLAT:??_7CSkinMgrV1@@6BIEventListener@@@
  00070	8b 55 f0	 mov	 edx, DWORD PTR _this$[ebp]
  00073	c7 42 08 00 00
	00 00		 mov	 DWORD PTR [edx+8], OFFSET FLAT:??_7CSkinMgrV1@@6BP2PObserver@@@
  0007a	8b 45 f0	 mov	 eax, DWORD PTR _this$[ebp]
  0007d	c7 40 0c 00 00
	00 00		 mov	 DWORD PTR [eax+12], OFFSET FLAT:??_7CSkinMgrV1@@6BILayoutChangeObserver@@@
  00084	8b 4d f0	 mov	 ecx, DWORD PTR _this$[ebp]
  00087	83 c1 34	 add	 ecx, 52			; 00000034H
  0008a	8b f4		 mov	 esi, esp
  0008c	ff 15 00 00 00
	00		 call	 DWORD PTR __imp_??0?$CStringT@DV?$StrTraitMFC_DLL@DV?$ChTraitsCRT@D@ATL@@@@@ATL@@QAE@XZ
  00092	3b f4		 cmp	 esi, esp
  00094	e8 00 00 00 00	 call	 __RTC_CheckEsp
  00099	c6 45 fc 02	 mov	 BYTE PTR __$EHRec$[ebp+8], 2
  0009d	8b 4d f0	 mov	 ecx, DWORD PTR _this$[ebp]
  000a0	83 c1 38	 add	 ecx, 56			; 00000038H
  000a3	e8 00 00 00 00	 call	 ??0?$vector@PAVIChangeSkinEventListener@@V?$allocator@PAVIChangeSkinEventListener@@@std@@@std@@QAE@XZ ; std::vector<IChangeSkinEventListener *,std::allocator<IChangeSkinEventListener *> >::vector<IChangeSkinEventListener *,std::allocator<IChangeSkinEventListener *> >
  000a8	c6 45 fc 03	 mov	 BYTE PTR __$EHRec$[ebp+8], 3
  000ac	8b 4d f0	 mov	 ecx, DWORD PTR _this$[ebp]
  000af	83 c1 58	 add	 ecx, 88			; 00000058H
  000b2	8b f4		 mov	 esi, esp
  000b4	ff 15 00 00 00
	00		 call	 DWORD PTR __imp_??0?$CStringT@DV?$StrTraitMFC_DLL@DV?$ChTraitsCRT@D@ATL@@@@@ATL@@QAE@XZ
  000ba	3b f4		 cmp	 esi, esp
  000bc	e8 00 00 00 00	 call	 __RTC_CheckEsp
  000c1	c6 45 fc 04	 mov	 BYTE PTR __$EHRec$[ebp+8], 4
  000c5	8b 4d f0	 mov	 ecx, DWORD PTR _this$[ebp]
  000c8	83 c1 5c	 add	 ecx, 92			; 0000005cH
  000cb	8b f4		 mov	 esi, esp
  000cd	ff 15 00 00 00
	00		 call	 DWORD PTR __imp_??0?$CStringT@DV?$StrTraitMFC_DLL@DV?$ChTraitsCRT@D@ATL@@@@@ATL@@QAE@XZ
  000d3	3b f4		 cmp	 esi, esp
  000d5	e8 00 00 00 00	 call	 __RTC_CheckEsp
  000da	c6 45 fc 05	 mov	 BYTE PTR __$EHRec$[ebp+8], 5
  000de	8b 4d f0	 mov	 ecx, DWORD PTR _this$[ebp]
  000e1	83 c1 60	 add	 ecx, 96			; 00000060H
  000e4	8b f4		 mov	 esi, esp
  000e6	ff 15 00 00 00
	00		 call	 DWORD PTR __imp_??0?$CStringT@DV?$StrTraitMFC_DLL@DV?$ChTraitsCRT@D@ATL@@@@@ATL@@QAE@XZ
  000ec	3b f4		 cmp	 esi, esp
  000ee	e8 00 00 00 00	 call	 __RTC_CheckEsp
  000f3	c6 45 fc 06	 mov	 BYTE PTR __$EHRec$[ebp+8], 6

; 25   : 	mp_mainSkinWnd		= NULL;

  000f7	8b 4d f0	 mov	 ecx, DWORD PTR _this$[ebp]
  000fa	c7 41 10 00 00
	00 00		 mov	 DWORD PTR [ecx+16], 0

; 26   : 	mp_skinWnd			= NULL;

  00101	8b 55 f0	 mov	 edx, DWORD PTR _this$[ebp]
  00104	c7 42 14 00 00
	00 00		 mov	 DWORD PTR [edx+20], 0

; 27   : 
; 28   : 	mp_downloadSkin		= NULL;

  0010b	8b 45 f0	 mov	 eax, DWORD PTR _this$[ebp]
  0010e	c7 40 20 00 00
	00 00		 mov	 DWORD PTR [eax+32], 0

; 29   : 	mp_downloadSubject	= NULL;

  00115	8b 4d f0	 mov	 ecx, DWORD PTR _this$[ebp]
  00118	c7 41 24 00 00
	00 00		 mov	 DWORD PTR [ecx+36], 0

; 30   : 
; 31   : 	m_BaseColor			= RGB( 0,0,0);

  0011f	8b 55 f0	 mov	 edx, DWORD PTR _this$[ebp]
  00122	c7 42 28 00 00
	00 00		 mov	 DWORD PTR [edx+40], 0

; 32   : 	m_nLightPos			= 120;

  00129	8b 45 f0	 mov	 eax, DWORD PTR _this$[ebp]
  0012c	c7 40 30 78 00
	00 00		 mov	 DWORD PTR [eax+48], 120	; 00000078H

; 33   : 	mb_HasPopWnd		= false;

  00133	8b 4d f0	 mov	 ecx, DWORD PTR _this$[ebp]
  00136	c6 41 48 00	 mov	 BYTE PTR [ecx+72], 0

; 34   : 	mb_isDownSkin		= false;

  0013a	8b 55 f0	 mov	 edx, DWORD PTR _this$[ebp]
  0013d	c6 42 49 00	 mov	 BYTE PTR [edx+73], 0

; 35   : 	mb_isDownSubject    = false;

  00141	8b 45 f0	 mov	 eax, DWORD PTR _this$[ebp]
  00144	c6 40 4a 00	 mov	 BYTE PTR [eax+74], 0

; 36   : 	mb_isDownWebSub		= false;

  00148	8b 4d f0	 mov	 ecx, DWORD PTR _this$[ebp]
  0014b	c6 41 4b 00	 mov	 BYTE PTR [ecx+75], 0

; 37   : 	m_DefaultColor = RGB( 0,0,0);

  0014f	8b 55 f0	 mov	 edx, DWORD PTR _this$[ebp]
  00152	c7 42 2c 00 00
	00 00		 mov	 DWORD PTR [edx+44], 0

; 38   : 	mp_SubjectWnd	= NULL;

  00159	8b 45 f0	 mov	 eax, DWORD PTR _this$[ebp]
  0015c	c7 40 18 00 00
	00 00		 mov	 DWORD PTR [eax+24], 0

; 39   : 
; 40   : 	m_iCheckTab = 0;

  00163	8b 4d f0	 mov	 ecx, DWORD PTR _this$[ebp]
  00166	c7 81 80 00 00
	00 00 00 00 00	 mov	 DWORD PTR [ecx+128], 0

; 41   : 	mb_isFirstPop = TRUE;

  00170	8b 55 f0	 mov	 edx, DWORD PTR _this$[ebp]
  00173	c6 42 4c 01	 mov	 BYTE PTR [edx+76], 1

; 42   : 	InitializeCriticalSection( &m_csDownInfo );

  00177	8b 45 f0	 mov	 eax, DWORD PTR _this$[ebp]
  0017a	83 c0 68	 add	 eax, 104		; 00000068H
  0017d	8b f4		 mov	 esi, esp
  0017f	50		 push	 eax
  00180	ff 15 00 00 00
	00		 call	 DWORD PTR __imp__InitializeCriticalSection@4
  00186	3b f4		 cmp	 esi, esp
  00188	e8 00 00 00 00	 call	 __RTC_CheckEsp

; 43   : 
; 44   : 	AfxGetMessageManager()->AttachMessage( ID_MESSAGE_LAYOUTMGR,(ILayoutChangeObserver*)this);

  0018d	83 7d f0 00	 cmp	 DWORD PTR _this$[ebp], 0
  00191	74 0b		 je	 SHORT $L194675
  00193	8b 4d f0	 mov	 ecx, DWORD PTR _this$[ebp]
  00196	83 c1 0c	 add	 ecx, 12			; 0000000cH
  00199	89 4d ec	 mov	 DWORD PTR tv173[ebp], ecx
  0019c	eb 07		 jmp	 SHORT $L194676
$L194675:
  0019e	c7 45 ec 00 00
	00 00		 mov	 DWORD PTR tv173[ebp], 0
$L194676:
  001a5	e8 00 00 00 00	 call	 ?AfxGetMessageManager@@YAPAVIMessageManager@@XZ ; AfxGetMessageManager
  001aa	89 45 e8	 mov	 DWORD PTR tv167[ebp], eax
  001ad	8b f4		 mov	 esi, esp
  001af	6a 02		 push	 2
  001b1	8b 55 ec	 mov	 edx, DWORD PTR tv173[ebp]
  001b4	52		 push	 edx
  001b5	68 00 00 00 00	 push	 OFFSET FLAT:_ID_MESSAGE_LAYOUTMGR
  001ba	8b 45 e8	 mov	 eax, DWORD PTR tv167[ebp]
  001bd	8b 10		 mov	 edx, DWORD PTR [eax]
  001bf	8b 4d e8	 mov	 ecx, DWORD PTR tv167[ebp]
  001c2	ff 52 04	 call	 DWORD PTR [edx+4]
  001c5	3b f4		 cmp	 esi, esp
  001c7	e8 00 00 00 00	 call	 __RTC_CheckEsp

; 45   : }

  001cc	c7 45 fc ff ff
	ff ff		 mov	 DWORD PTR __$EHRec$[ebp+8], -1
  001d3	8b 45 f0	 mov	 eax, DWORD PTR _this$[ebp]
  001d6	8b 4d f4	 mov	 ecx, DWORD PTR __$EHRec$[ebp]
  001d9	64 89 0d 00 00
	00 00		 mov	 DWORD PTR fs:__except_list, ecx
  001e0	5e		 pop	 esi
  001e1	83 c4 18	 add	 esp, 24			; 00000018H
  001e4	3b ec		 cmp	 ebp, esp
  001e6	e8 00 00 00 00	 call	 __RTC_CheckEsp
  001eb	8b e5		 mov	 esp, ebp
  001ed	5d		 pop	 ebp
  001ee	c3		 ret	 0
_TEXT	ENDS
text$x	SEGMENT
$L194677:
  00000	8b 4d f0	 mov	 ecx, DWORD PTR _this$[ebp]
  00003	83 c1 08	 add	 ecx, 8
  00006	e9 00 00 00 00	 jmp	 ??1P2PObserver@@UAE@XZ	; P2PObserver::~P2PObserver
$L194678:
  0000b	8b 4d f0	 mov	 ecx, DWORD PTR _this$[ebp]
  0000e	83 c1 0c	 add	 ecx, 12			; 0000000cH
  00011	e9 00 00 00 00	 jmp	 ??1ILayoutChangeObserver@@UAE@XZ
$L194679:
  00016	8b 4d f0	 mov	 ecx, DWORD PTR _this$[ebp]
  00019	83 c1 34	 add	 ecx, 52			; 00000034H
  0001c	8b f4		 mov	 esi, esp
  0001e	ff 15 00 00 00
	00		 call	 DWORD PTR __imp_??1?$CStringT@DV?$StrTraitMFC_DLL@DV?$ChTraitsCRT@D@ATL@@@@@ATL@@QAE@XZ
  00024	3b f4		 cmp	 esi, esp
  00026	e9 00 00 00 00	 jmp	 __RTC_CheckEsp
$L194680:
  0002b	8b 4d f0	 mov	 ecx, DWORD PTR _this$[ebp]
  0002e	83 c1 38	 add	 ecx, 56			; 00000038H
  00031	e9 00 00 00 00	 jmp	 ??1?$vector@PAVIChangeSkinEventListener@@V?$allocator@PAVIChangeSkinEventListener@@@std@@@std@@QAE@XZ ; std::vector<IChangeSkinEventListener *,std::allocator<IChangeSkinEventListener *> >::~vector<IChangeSkinEventListener *,std::allocator<IChangeSkinEventListener *> >
$L194681:
  00036	8b 4d f0	 mov	 ecx, DWORD PTR _this$[ebp]
  00039	83 c1 58	 add	 ecx, 88			; 00000058H
  0003c	8b f4		 mov	 esi, esp
  0003e	ff 15 00 00 00
	00		 call	 DWORD PTR __imp_??1?$CStringT@DV?$StrTraitMFC_DLL@DV?$ChTraitsCRT@D@ATL@@@@@ATL@@QAE@XZ
  00044	3b f4		 cmp	 esi, esp
  00046	e9 00 00 00 00	 jmp	 __RTC_CheckEsp
$L194682:
  0004b	8b 4d f0	 mov	 ecx, DWORD PTR _this$[ebp]
  0004e	83 c1 5c	 add	 ecx, 92			; 0000005cH
  00051	8b f4		 mov	 esi, esp
  00053	ff 15 00 00 00
	00		 call	 DWORD PTR __imp_??1?$CStringT@DV?$StrTraitMFC_DLL@DV?$ChTraitsCRT@D@ATL@@@@@ATL@@QAE@XZ
  00059	3b f4		 cmp	 esi, esp
  0005b	e9 00 00 00 00	 jmp	 __RTC_CheckEsp
$L194683:
  00060	8b 4d f0	 mov	 ecx, DWORD PTR _this$[ebp]
  00063	83 c1 60	 add	 ecx, 96			; 00000060H
  00066	8b f4		 mov	 esi, esp
  00068	ff 15 00 00 00
	00		 call	 DWORD PTR __imp_??1?$CStringT@DV?$StrTraitMFC_DLL@DV?$ChTraitsCRT@D@ATL@@@@@ATL@@QAE@XZ
  0006e	3b f4		 cmp	 esi, esp
  00070	e9 00 00 00 00	 jmp	 __RTC_CheckEsp
__ehhandler$??0CSkinMgrV1@@QAE@XZ:
  00075	b8 00 00 00 00	 mov	 eax, OFFSET FLAT:$T194687
  0007a	e9 00 00 00 00	 jmp	 ___CxxFrameHandler
text$x	ENDS
??0CSkinMgrV1@@QAE@XZ ENDP				; CSkinMgrV1::CSkinMgrV1
; Function compile flags: /Odt /RTCsu
; File d:\boxgit\playbox\playbox\dev\prj\playbox\src\layoutmgr\changecolor\ievent.h
;	COMDAT ?OnCliekButton@IEventListener@@UAEXPAVCButton@@@Z
_TEXT	SEGMENT
_this$ = -4						; size = 4
_pBotton$ = 8						; size = 4
?OnCliekButton@IEventListener@@UAEXPAVCButton@@@Z PROC NEAR ; IEventListener::OnCliekButton, COMDAT
; _this$ = ecx

; 7    : 	virtual void OnCliekButton(CButton* pBotton){};

  00000	55		 push	 ebp
  00001	8b ec		 mov	 ebp, esp
  00003	51		 push	 ecx
  00004	c7 45 fc cc cc
	cc cc		 mov	 DWORD PTR [ebp-4], -858993460 ; ccccccccH
  0000b	89 4d fc	 mov	 DWORD PTR _this$[ebp], ecx
  0000e	8b e5		 mov	 esp, ebp
  00010	5d		 pop	 ebp
  00011	c2 04 00	 ret	 4
?OnCliekButton@IEventListener@@UAEXPAVCButton@@@Z ENDP	; IEventListener::OnCliekButton
; Function compile flags: /Odt /RTCsu
_TEXT	ENDS
;	COMDAT ?OnCliekSlide@IEventListener@@UAEXPAVCSliderCtrl@@@Z
_TEXT	SEGMENT
_this$ = -4						; size = 4
_pBotton$ = 8						; size = 4
?OnCliekSlide@IEventListener@@UAEXPAVCSliderCtrl@@@Z PROC NEAR ; IEventListener::OnCliekSlide, COMDAT
; _this$ = ecx

; 8    : 	virtual void OnCliekSlide(CSliderCtrl* pBotton){};

  00000	55		 push	 ebp
  00001	8b ec		 mov	 ebp, esp
  00003	51		 push	 ecx
  00004	c7 45 fc cc cc
	cc cc		 mov	 DWORD PTR [ebp-4], -858993460 ; ccccccccH
  0000b	89 4d fc	 mov	 DWORD PTR _this$[ebp], ecx
  0000e	8b e5		 mov	 esp, ebp
  00010	5d		 pop	 ebp
  00011	c2 04 00	 ret	 4
?OnCliekSlide@IEventListener@@UAEXPAVCSliderCtrl@@@Z ENDP ; IEventListener::OnCliekSlide
; Function compile flags: /Odt /RTCsu
; File d:\boxgit\playbox\playbox\dev\prj\playbox\src\layoutmgr\changecolor\mainskinwnd.h
_TEXT	ENDS
;	COMDAT ?OnChangeSkinTemplate@IWndEventListener@@UAE_NV?$CStringT@DV?$StrTraitMFC_DLL@DV?$ChTraitsCRT@D@ATL@@@@@ATL@@@Z
_TEXT	SEGMENT
$T194695 = -5						; size = 1
_this$ = -4						; size = 4
_strPath$ = 8						; size = 4
?OnChangeSkinTemplate@IWndEventListener@@UAE_NV?$CStringT@DV?$StrTraitMFC_DLL@DV?$ChTraitsCRT@D@ATL@@@@@ATL@@@Z PROC NEAR ; IWndEventListener::OnChangeSkinTemplate, COMDAT
; _this$ = ecx

; 12   : 	virtual bool OnChangeSkinTemplate(CString strPath){return false;};

  00000	55		 push	 ebp
  00001	8b ec		 mov	 ebp, esp
  00003	83 ec 08	 sub	 esp, 8
  00006	56		 push	 esi
  00007	c7 45 f8 cc cc
	cc cc		 mov	 DWORD PTR [ebp-8], -858993460 ; ccccccccH
  0000e	c7 45 fc cc cc
	cc cc		 mov	 DWORD PTR [ebp-4], -858993460 ; ccccccccH
  00015	89 4d fc	 mov	 DWORD PTR _this$[ebp], ecx
  00018	c6 45 fb 00	 mov	 BYTE PTR $T194695[ebp], 0
  0001c	8b f4		 mov	 esi, esp
  0001e	8d 4d 08	 lea	 ecx, DWORD PTR _strPath$[ebp]
  00021	ff 15 00 00 00
	00		 call	 DWORD PTR __imp_??1?$CStringT@DV?$StrTraitMFC_DLL@DV?$ChTraitsCRT@D@ATL@@@@@ATL@@QAE@XZ
  00027	3b f4		 cmp	 esi, esp
  00029	e8 00 00 00 00	 call	 __RTC_CheckEsp
  0002e	8a 45 fb	 mov	 al, BYTE PTR $T194695[ebp]
  00031	5e		 pop	 esi
  00032	83 c4 08	 add	 esp, 8
  00035	3b ec		 cmp	 ebp, esp
  00037	e8 00 00 00 00	 call	 __RTC_CheckEsp
  0003c	8b e5		 mov	 esp, ebp
  0003e	5d		 pop	 ebp
  0003f	c2 04 00	 ret	 4
?OnChangeSkinTemplate@IWndEventListener@@UAE_NV?$CStringT@DV?$StrTraitMFC_DLL@DV?$ChTraitsCRT@D@ATL@@@@@ATL@@@Z ENDP ; IWndEventListener::OnChangeSkinTemplate
; Function compile flags: /Odt /RTCsu
_TEXT	ENDS
;	COMDAT ?OnchangeColor@IWndEventListener@@UAEXKI@Z
_TEXT	SEGMENT
_this$ = -4						; size = 4
_acolCol$ = 8						; size = 4
_anLightValue$ = 12					; size = 4
?OnchangeColor@IWndEventListener@@UAEXKI@Z PROC NEAR	; IWndEventListener::OnchangeColor, COMDAT
; _this$ = ecx

; 13   : 	virtual void OnchangeColor(COLORREF acolCol, UINT anLightValue){};

  00000	55		 push	 ebp
  00001	8b ec		 mov	 ebp, esp
  00003	51		 push	 ecx
  00004	c7 45 fc cc cc
	cc cc		 mov	 DWORD PTR [ebp-4], -858993460 ; ccccccccH
  0000b	89 4d fc	 mov	 DWORD PTR _this$[ebp], ecx
  0000e	8b e5		 mov	 esp, ebp
  00010	5d		 pop	 ebp
  00011	c2 08 00	 ret	 8
?OnchangeColor@IWndEventListener@@UAEXKI@Z ENDP		; IWndEventListener::OnchangeColor
_TEXT	ENDS
PUBLIC	??_7P2PObserver@@6B@				; P2PObserver::`vftable'
PUBLIC	??_GP2PObserver@@UAEPAXI@Z			; P2PObserver::`scalar deleting destructor'
PUBLIC	??_R4P2PObserver@@6B@				; P2PObserver::`RTTI Complete Object Locator'
PUBLIC	??_R3P2PObserver@@8				; P2PObserver::`RTTI Class Hierarchy Descriptor'
PUBLIC	??_R2P2PObserver@@8				; P2PObserver::`RTTI Base Class Array'
PUBLIC	??_R1A@?0A@A@P2PObserver@@8			; P2PObserver::`RTTI Base Class Descriptor at (0,-1,0,0)'
EXTRN	??_EP2PObserver@@UAEPAXI@Z:NEAR			; P2PObserver::`vector deleting destructor'
;	COMDAT ??_7P2PObserver@@6B@
; File d:\boxgit\playbox\commonlib\include\yl_p2pint.h
CONST	SEGMENT
??_7P2PObserver@@6B@ DD FLAT:??_R4P2PObserver@@6B@	; P2PObserver::`vftable'
	DD	FLAT:??_EP2PObserver@@UAEPAXI@Z
	DD	FLAT:?P2POb_DownStart@P2PObserver@@UAEXABV?$basic_string@DU?$char_traits@D@std@@V?$allocator@D@2@@std@@PBDI@Z
	DD	FLAT:?P2POb_DownFinish@P2PObserver@@UAEXABV?$basic_string@DU?$char_traits@D@std@@V?$allocator@D@2@@std@@@Z
	DD	FLAT:?P2POb_DownFailed@P2PObserver@@UAEXABV?$basic_string@DU?$char_traits@D@std@@V?$allocator@D@2@@std@@W4P2P_DOWN_FAILED_REASON@@@Z
	DD	FLAT:?P2POb_DownProgress@P2PObserver@@UAEXABV?$basic_string@DU?$char_traits@D@std@@V?$allocator@D@2@@std@@III@Z
	DD	FLAT:?P2POb_DownPause@P2PObserver@@UAEXABV?$basic_string@DU?$char_traits@D@std@@V?$allocator@D@2@@std@@@Z
	DD	FLAT:?P2POb_SigChange@P2PObserver@@UAEXABV?$basic_string@DU?$char_traits@D@std@@V?$allocator@D@2@@std@@0PBD@Z
CONST	ENDS
;	COMDAT ??_R4P2PObserver@@6B@
rdata$r	SEGMENT
??_R4P2PObserver@@6B@ DD 00H				; P2PObserver::`RTTI Complete Object Locator'
	DD	00H
	DD	00H
	DD	FLAT:??_R0?AVP2PObserver@@@8
	DD	FLAT:??_R3P2PObserver@@8
rdata$r	ENDS
;	COMDAT ??_R3P2PObserver@@8
rdata$r	SEGMENT
??_R3P2PObserver@@8 DD 00H				; P2PObserver::`RTTI Class Hierarchy Descriptor'
	DD	00H
	DD	01H
	DD	FLAT:??_R2P2PObserver@@8
rdata$r	ENDS
;	COMDAT ??_R2P2PObserver@@8
rdata$r	SEGMENT
??_R2P2PObserver@@8 DD FLAT:??_R1A@?0A@A@P2PObserver@@8	; P2PObserver::`RTTI Base Class Array'
rdata$r	ENDS
;	COMDAT ??_R1A@?0A@A@P2PObserver@@8
rdata$r	SEGMENT
??_R1A@?0A@A@P2PObserver@@8 DD FLAT:??_R0?AVP2PObserver@@@8 ; P2PObserver::`RTTI Base Class Descriptor at (0,-1,0,0)'
	DD	00H
	DD	00H
	DD	0ffffffffH
	DD	00H
	DD	00H
; Function compile flags: /Odt /RTCsu
rdata$r	ENDS
;	COMDAT ??1P2PObserver@@UAE@XZ
_TEXT	SEGMENT
_this$ = -4						; size = 4
??1P2PObserver@@UAE@XZ PROC NEAR			; P2PObserver::~P2PObserver, COMDAT
; _this$ = ecx

; 14   : 	virtual ~P2PObserver(){};

  00000	55		 push	 ebp
  00001	8b ec		 mov	 ebp, esp
  00003	51		 push	 ecx
  00004	c7 45 fc cc cc
	cc cc		 mov	 DWORD PTR [ebp-4], -858993460 ; ccccccccH
  0000b	89 4d fc	 mov	 DWORD PTR _this$[ebp], ecx
  0000e	8b 45 fc	 mov	 eax, DWORD PTR _this$[ebp]
  00011	c7 00 00 00 00
	00		 mov	 DWORD PTR [eax], OFFSET FLAT:??_7P2PObserver@@6B@
  00017	8b e5		 mov	 esp, ebp
  00019	5d		 pop	 ebp
  0001a	c3		 ret	 0
??1P2PObserver@@UAE@XZ ENDP				; P2PObserver::~P2PObserver
; Function compile flags: /Odt /RTCsu
_TEXT	ENDS
;	COMDAT ?P2POb_DownStart@P2PObserver@@UAEXABV?$basic_string@DU?$char_traits@D@std@@V?$allocator@D@2@@std@@PBDI@Z
_TEXT	SEGMENT
_this$ = -4						; size = 4
_strID$ = 8						; size = 4
_lpszFilePath$ = 12					; size = 4
_unFileSize$ = 16					; size = 4
?P2POb_DownStart@P2PObserver@@UAEXABV?$basic_string@DU?$char_traits@D@std@@V?$allocator@D@2@@std@@PBDI@Z PROC NEAR ; P2PObserver::P2POb_DownStart, COMDAT
; _this$ = ecx

; 19   : 	virtual void P2POb_DownStart(const string& strID, const char* lpszFilePath, unsigned int unFileSize){};

  00000	55		 push	 ebp
  00001	8b ec		 mov	 ebp, esp
  00003	51		 push	 ecx
  00004	c7 45 fc cc cc
	cc cc		 mov	 DWORD PTR [ebp-4], -858993460 ; ccccccccH
  0000b	89 4d fc	 mov	 DWORD PTR _this$[ebp], ecx
  0000e	8b e5		 mov	 esp, ebp
  00010	5d		 pop	 ebp
  00011	c2 0c 00	 ret	 12			; 0000000cH
?P2POb_DownStart@P2PObserver@@UAEXABV?$basic_string@DU?$char_traits@D@std@@V?$allocator@D@2@@std@@PBDI@Z ENDP ; P2PObserver::P2POb_DownStart
; Function compile flags: /Odt /RTCsu
_TEXT	ENDS
;	COMDAT ?P2POb_DownFinish@P2PObserver@@UAEXABV?$basic_string@DU?$char_traits@D@std@@V?$allocator@D@2@@std@@@Z
_TEXT	SEGMENT
_this$ = -4						; size = 4
_strID$ = 8						; size = 4
?P2POb_DownFinish@P2PObserver@@UAEXABV?$basic_string@DU?$char_traits@D@std@@V?$allocator@D@2@@std@@@Z PROC NEAR ; P2PObserver::P2POb_DownFinish, COMDAT
; _this$ = ecx

; 22   : 	virtual void P2POb_DownFinish(const string& strID){};

  00000	55		 push	 ebp
  00001	8b ec		 mov	 ebp, esp
  00003	51		 push	 ecx
  00004	c7 45 fc cc cc
	cc cc		 mov	 DWORD PTR [ebp-4], -858993460 ; ccccccccH
  0000b	89 4d fc	 mov	 DWORD PTR _this$[ebp], ecx
  0000e	8b e5		 mov	 esp, ebp
  00010	5d		 pop	 ebp
  00011	c2 04 00	 ret	 4
?P2POb_DownFinish@P2PObserver@@UAEXABV?$basic_string@DU?$char_traits@D@std@@V?$allocator@D@2@@std@@@Z ENDP ; P2PObserver::P2POb_DownFinish
; Function compile flags: /Odt /RTCsu
_TEXT	ENDS
;	COMDAT ?P2POb_DownFailed@P2PObserver@@UAEXABV?$basic_string@DU?$char_traits@D@std@@V?$allocator@D@2@@std@@W4P2P_DOWN_FAILED_REASON@@@Z
_TEXT	SEGMENT
_this$ = -4						; size = 4
_strID$ = 8						; size = 4
_pdfr$ = 12						; size = 4
?P2POb_DownFailed@P2PObserver@@UAEXABV?$basic_string@DU?$char_traits@D@std@@V?$allocator@D@2@@std@@W4P2P_DOWN_FAILED_REASON@@@Z PROC NEAR ; P2PObserver::P2POb_DownFailed, COMDAT
; _this$ = ecx

; 25   : 	virtual void P2POb_DownFailed(const string& strID, P2P_DOWN_FAILED_REASON pdfr){};

  00000	55		 push	 ebp
  00001	8b ec		 mov	 ebp, esp
  00003	51		 push	 ecx
  00004	c7 45 fc cc cc
	cc cc		 mov	 DWORD PTR [ebp-4], -858993460 ; ccccccccH
  0000b	89 4d fc	 mov	 DWORD PTR _this$[ebp], ecx
  0000e	8b e5		 mov	 esp, ebp
  00010	5d		 pop	 ebp
  00011	c2 08 00	 ret	 8
?P2POb_DownFailed@P2PObserver@@UAEXABV?$basic_string@DU?$char_traits@D@std@@V?$allocator@D@2@@std@@W4P2P_DOWN_FAILED_REASON@@@Z ENDP ; P2PObserver::P2POb_DownFailed
; Function compile flags: /Odt /RTCsu
_TEXT	ENDS
;	COMDAT ?P2POb_DownProgress@P2PObserver@@UAEXABV?$basic_string@DU?$char_traits@D@std@@V?$allocator@D@2@@std@@III@Z
_TEXT	SEGMENT
_this$ = -4						; size = 4
_strID$ = 8						; size = 4
_unContinue$ = 12					; size = 4
_unFinished$ = 16					; size = 4
_unSpeed$ = 20						; size = 4
?P2POb_DownProgress@P2PObserver@@UAEXABV?$basic_string@DU?$char_traits@D@std@@V?$allocator@D@2@@std@@III@Z PROC NEAR ; P2PObserver::P2POb_DownProgress, COMDAT
; _this$ = ecx

; 28   : 	virtual void P2POb_DownProgress(const string& strID, unsigned int unContinue, unsigned int unFinished, unsigned int unSpeed){};

  00000	55		 push	 ebp
  00001	8b ec		 mov	 ebp, esp
  00003	51		 push	 ecx
  00004	c7 45 fc cc cc
	cc cc		 mov	 DWORD PTR [ebp-4], -858993460 ; ccccccccH
  0000b	89 4d fc	 mov	 DWORD PTR _this$[ebp], ecx
  0000e	8b e5		 mov	 esp, ebp
  00010	5d		 pop	 ebp
  00011	c2 10 00	 ret	 16			; 00000010H
?P2POb_DownProgress@P2PObserver@@UAEXABV?$basic_string@DU?$char_traits@D@std@@V?$allocator@D@2@@std@@III@Z ENDP ; P2PObserver::P2POb_DownProgress
; Function compile flags: /Odt /RTCsu
_TEXT	ENDS
;	COMDAT ?P2POb_DownPause@P2PObserver@@UAEXABV?$basic_string@DU?$char_traits@D@std@@V?$allocator@D@2@@std@@@Z
_TEXT	SEGMENT
_this$ = -4						; size = 4
_strID$ = 8						; size = 4
?P2POb_DownPause@P2PObserver@@UAEXABV?$basic_string@DU?$char_traits@D@std@@V?$allocator@D@2@@std@@@Z PROC NEAR ; P2PObserver::P2POb_DownPause, COMDAT
; _this$ = ecx

; 31   : 	virtual void P2POb_DownPause(const string& strID){};

  00000	55		 push	 ebp
  00001	8b ec		 mov	 ebp, esp
  00003	51		 push	 ecx
  00004	c7 45 fc cc cc
	cc cc		 mov	 DWORD PTR [ebp-4], -858993460 ; ccccccccH
  0000b	89 4d fc	 mov	 DWORD PTR _this$[ebp], ecx
  0000e	8b e5		 mov	 esp, ebp
  00010	5d		 pop	 ebp
  00011	c2 04 00	 ret	 4
?P2POb_DownPause@P2PObserver@@UAEXABV?$basic_string@DU?$char_traits@D@std@@V?$allocator@D@2@@std@@@Z ENDP ; P2PObserver::P2POb_DownPause
; Function compile flags: /Odt /RTCsu
_TEXT	ENDS
;	COMDAT ?P2POb_SigChange@P2PObserver@@UAEXABV?$basic_string@DU?$char_traits@D@std@@V?$allocator@D@2@@std@@0PBD@Z
_TEXT	SEGMENT
_this$ = -4						; size = 4
_strID$ = 8						; size = 4
_strIDNew$ = 12						; size = 4
_szRid$ = 16						; size = 4
?P2POb_SigChange@P2PObserver@@UAEXABV?$basic_string@DU?$char_traits@D@std@@V?$allocator@D@2@@std@@0PBD@Z PROC NEAR ; P2PObserver::P2POb_SigChange, COMDAT
; _this$ = ecx

; 34   : 	virtual void P2POb_SigChange(const string& strID, const string& strIDNew, const char* szRid){};

  00000	55		 push	 ebp
  00001	8b ec		 mov	 ebp, esp
  00003	51		 push	 ecx
  00004	c7 45 fc cc cc
	cc cc		 mov	 DWORD PTR [ebp-4], -858993460 ; ccccccccH
  0000b	89 4d fc	 mov	 DWORD PTR _this$[ebp], ecx
  0000e	8b e5		 mov	 esp, ebp
  00010	5d		 pop	 ebp
  00011	c2 0c 00	 ret	 12			; 0000000cH
?P2POb_SigChange@P2PObserver@@UAEXABV?$basic_string@DU?$char_traits@D@std@@V?$allocator@D@2@@std@@0PBD@Z ENDP ; P2PObserver::P2POb_SigChange
_TEXT	ENDS
EXTRN	??3@YAXPAX@Z:NEAR				; operator delete
; Function compile flags: /Odt /RTCsu
;	COMDAT ??_GP2PObserver@@UAEPAXI@Z
_TEXT	SEGMENT
_this$ = -4						; size = 4
___flags$ = 8						; size = 4
??_GP2PObserver@@UAEPAXI@Z PROC NEAR			; P2PObserver::`scalar deleting destructor', COMDAT
; _this$ = ecx
  00000	55		 push	 ebp
  00001	8b ec		 mov	 ebp, esp
  00003	51		 push	 ecx
  00004	c7 45 fc cc cc
	cc cc		 mov	 DWORD PTR [ebp-4], -858993460 ; ccccccccH
  0000b	89 4d fc	 mov	 DWORD PTR _this$[ebp], ecx
  0000e	8b 4d fc	 mov	 ecx, DWORD PTR _this$[ebp]
  00011	e8 00 00 00 00	 call	 ??1P2PObserver@@UAE@XZ	; P2PObserver::~P2PObserver
  00016	8b 45 08	 mov	 eax, DWORD PTR ___flags$[ebp]
  00019	83 e0 01	 and	 eax, 1
  0001c	74 0c		 je	 SHORT $L190731
  0001e	8b 4d fc	 mov	 ecx, DWORD PTR _this$[ebp]
  00021	51		 push	 ecx
  00022	e8 00 00 00 00	 call	 ??3@YAXPAX@Z		; operator delete
  00027	83 c4 04	 add	 esp, 4
$L190731:
  0002a	8b 45 fc	 mov	 eax, DWORD PTR _this$[ebp]
  0002d	83 c4 04	 add	 esp, 4
  00030	3b ec		 cmp	 ebp, esp
  00032	e8 00 00 00 00	 call	 __RTC_CheckEsp
  00037	8b e5		 mov	 esp, ebp
  00039	5d		 pop	 ebp
  0003a	c2 04 00	 ret	 4
??_GP2PObserver@@UAEPAXI@Z ENDP				; P2PObserver::`scalar deleting destructor'
_TEXT	ENDS
EXTRN	__imp_??1?$basic_string@DU?$char_traits@D@std@@V?$allocator@D@2@@std@@QAE@XZ:NEAR
;	COMDAT xdata$x
; File d:\boxgit\playbox\playbox\dev\prj\playbox\src\datainterface\ilayoutchangeobserver.h
xdata$x	SEGMENT
$T194713 DD	0ffffffffH
	DD	FLAT:$L194707
	DD	00H
	DD	FLAT:$L194708
$T194711 DD	019930520H
	DD	02H
	DD	FLAT:$T194713
	DD	2 DUP(00H)
	DD	2 DUP(00H)
; Function compile flags: /Odt /RTCsu
xdata$x	ENDS
;	COMDAT ?ILayoutChangeOb_LayerChanged@ILayoutChangeObserver@@UAEXV?$basic_string@DU?$char_traits@D@std@@V?$allocator@D@2@@std@@00@Z
_TEXT	SEGMENT
_this$ = -16						; size = 4
__$EHRec$ = -12						; size = 12
_paneName$ = 8						; size = 28
_oldLayerName$ = 36					; size = 28
_newLayerName$ = 64					; size = 28
?ILayoutChangeOb_LayerChanged@ILayoutChangeObserver@@UAEXV?$basic_string@DU?$char_traits@D@std@@V?$allocator@D@2@@std@@00@Z PROC NEAR ; ILayoutChangeObserver::ILayoutChangeOb_LayerChanged, COMDAT
; _this$ = ecx

; 9    : 	virtual void	ILayoutChangeOb_LayerChanged(string paneName, string oldLayerName, string newLayerName ){};

  00000	55		 push	 ebp
  00001	8b ec		 mov	 ebp, esp
  00003	6a ff		 push	 -1
  00005	68 00 00 00 00	 push	 __ehhandler$?ILayoutChangeOb_LayerChanged@ILayoutChangeObserver@@UAEXV?$basic_string@DU?$char_traits@D@std@@V?$allocator@D@2@@std@@00@Z
  0000a	64 a1 00 00 00
	00		 mov	 eax, DWORD PTR fs:__except_list
  00010	50		 push	 eax
  00011	64 89 25 00 00
	00 00		 mov	 DWORD PTR fs:__except_list, esp
  00018	51		 push	 ecx
  00019	56		 push	 esi
  0001a	c7 45 f0 cc cc
	cc cc		 mov	 DWORD PTR [ebp-16], -858993460 ; ccccccccH
  00021	89 4d f0	 mov	 DWORD PTR _this$[ebp], ecx
  00024	c7 45 fc 01 00
	00 00		 mov	 DWORD PTR __$EHRec$[ebp+8], 1
  0002b	8b f4		 mov	 esi, esp
  0002d	8d 4d 08	 lea	 ecx, DWORD PTR _paneName$[ebp]
  00030	ff 15 00 00 00
	00		 call	 DWORD PTR __imp_??1?$basic_string@DU?$char_traits@D@std@@V?$allocator@D@2@@std@@QAE@XZ
  00036	3b f4		 cmp	 esi, esp
  00038	e8 00 00 00 00	 call	 __RTC_CheckEsp
  0003d	c6 45 fc 00	 mov	 BYTE PTR __$EHRec$[ebp+8], 0
  00041	8b f4		 mov	 esi, esp
  00043	8d 4d 24	 lea	 ecx, DWORD PTR _oldLayerName$[ebp]
  00046	ff 15 00 00 00
	00		 call	 DWORD PTR __imp_??1?$basic_string@DU?$char_traits@D@std@@V?$allocator@D@2@@std@@QAE@XZ
  0004c	3b f4		 cmp	 esi, esp
  0004e	e8 00 00 00 00	 call	 __RTC_CheckEsp
  00053	c7 45 fc ff ff
	ff ff		 mov	 DWORD PTR __$EHRec$[ebp+8], -1
  0005a	8b f4		 mov	 esi, esp
  0005c	8d 4d 40	 lea	 ecx, DWORD PTR _newLayerName$[ebp]
  0005f	ff 15 00 00 00
	00		 call	 DWORD PTR __imp_??1?$basic_string@DU?$char_traits@D@std@@V?$allocator@D@2@@std@@QAE@XZ
  00065	3b f4		 cmp	 esi, esp
  00067	e8 00 00 00 00	 call	 __RTC_CheckEsp
  0006c	8b 4d f4	 mov	 ecx, DWORD PTR __$EHRec$[ebp]
  0006f	64 89 0d 00 00
	00 00		 mov	 DWORD PTR fs:__except_list, ecx
  00076	5e		 pop	 esi
  00077	83 c4 10	 add	 esp, 16			; 00000010H
  0007a	3b ec		 cmp	 ebp, esp
  0007c	e8 00 00 00 00	 call	 __RTC_CheckEsp
  00081	8b e5		 mov	 esp, ebp
  00083	5d		 pop	 ebp
  00084	c2 54 00	 ret	 84			; 00000054H
_TEXT	ENDS
;	COMDAT text$x
text$x	SEGMENT
$L194707:
  00000	8b f4		 mov	 esi, esp
  00002	8d 4d 40	 lea	 ecx, DWORD PTR _newLayerName$[ebp]
  00005	ff 15 00 00 00
	00		 call	 DWORD PTR __imp_??1?$basic_string@DU?$char_traits@D@std@@V?$allocator@D@2@@std@@QAE@XZ
  0000b	3b f4		 cmp	 esi, esp
  0000d	e9 00 00 00 00	 jmp	 __RTC_CheckEsp
$L194708:
  00012	8b f4		 mov	 esi, esp
  00014	8d 4d 24	 lea	 ecx, DWORD PTR _oldLayerName$[ebp]
  00017	ff 15 00 00 00
	00		 call	 DWORD PTR __imp_??1?$basic_string@DU?$char_traits@D@std@@V?$allocator@D@2@@std@@QAE@XZ
  0001d	3b f4		 cmp	 esi, esp
  0001f	e9 00 00 00 00	 jmp	 __RTC_CheckEsp
__ehhandler$?ILayoutChangeOb_LayerChanged@ILayoutChangeObserver@@UAEXV?$basic_string@DU?$char_traits@D@std@@V?$allocator@D@2@@std@@00@Z:
  00024	b8 00 00 00 00	 mov	 eax, OFFSET FLAT:$T194711
  00029	e9 00 00 00 00	 jmp	 ___CxxFrameHandler
text$x	ENDS
?ILayoutChangeOb_LayerChanged@ILayoutChangeObserver@@UAEXV?$basic_string@DU?$char_traits@D@std@@V?$allocator@D@2@@std@@00@Z ENDP ; ILayoutChangeObserver::ILayoutChangeOb_LayerChanged
;	COMDAT xdata$x
xdata$x	SEGMENT
$T194722 DD	0ffffffffH
	DD	FLAT:$L194717
$T194720 DD	019930520H
	DD	01H
	DD	FLAT:$T194722
	DD	2 DUP(00H)
	DD	2 DUP(00H)
; Function compile flags: /Odt /RTCsu
xdata$x	ENDS
;	COMDAT ?ILayoutChangeOb_PaneChanged@ILayoutChangeObserver@@UAEXV?$basic_string@DU?$char_traits@D@std@@V?$allocator@D@2@@std@@0@Z
_TEXT	SEGMENT
_this$ = -16						; size = 4
__$EHRec$ = -12						; size = 12
_oldPaneName$ = 8					; size = 28
_newPaneName$ = 36					; size = 28
?ILayoutChangeOb_PaneChanged@ILayoutChangeObserver@@UAEXV?$basic_string@DU?$char_traits@D@std@@V?$allocator@D@2@@std@@0@Z PROC NEAR ; ILayoutChangeObserver::ILayoutChangeOb_PaneChanged, COMDAT
; _this$ = ecx

; 10   : 	virtual void	ILayoutChangeOb_PaneChanged(string oldPaneName, string newPaneName){};

  00000	55		 push	 ebp
  00001	8b ec		 mov	 ebp, esp
  00003	6a ff		 push	 -1
  00005	68 00 00 00 00	 push	 __ehhandler$?ILayoutChangeOb_PaneChanged@ILayoutChangeObserver@@UAEXV?$basic_string@DU?$char_traits@D@std@@V?$allocator@D@2@@std@@0@Z
  0000a	64 a1 00 00 00
	00		 mov	 eax, DWORD PTR fs:__except_list
  00010	50		 push	 eax
  00011	64 89 25 00 00
	00 00		 mov	 DWORD PTR fs:__except_list, esp
  00018	51		 push	 ecx
  00019	56		 push	 esi
  0001a	c7 45 f0 cc cc
	cc cc		 mov	 DWORD PTR [ebp-16], -858993460 ; ccccccccH
  00021	89 4d f0	 mov	 DWORD PTR _this$[ebp], ecx
  00024	c7 45 fc 00 00
	00 00		 mov	 DWORD PTR __$EHRec$[ebp+8], 0
  0002b	8b f4		 mov	 esi, esp
  0002d	8d 4d 08	 lea	 ecx, DWORD PTR _oldPaneName$[ebp]
  00030	ff 15 00 00 00
	00		 call	 DWORD PTR __imp_??1?$basic_string@DU?$char_traits@D@std@@V?$allocator@D@2@@std@@QAE@XZ
  00036	3b f4		 cmp	 esi, esp
  00038	e8 00 00 00 00	 call	 __RTC_CheckEsp
  0003d	c7 45 fc ff ff
	ff ff		 mov	 DWORD PTR __$EHRec$[ebp+8], -1
  00044	8b f4		 mov	 esi, esp
  00046	8d 4d 24	 lea	 ecx, DWORD PTR _newPaneName$[ebp]
  00049	ff 15 00 00 00
	00		 call	 DWORD PTR __imp_??1?$basic_string@DU?$char_traits@D@std@@V?$allocator@D@2@@std@@QAE@XZ
  0004f	3b f4		 cmp	 esi, esp
  00051	e8 00 00 00 00	 call	 __RTC_CheckEsp
  00056	8b 4d f4	 mov	 ecx, DWORD PTR __$EHRec$[ebp]
  00059	64 89 0d 00 00
	00 00		 mov	 DWORD PTR fs:__except_list, ecx
  00060	5e		 pop	 esi
  00061	83 c4 10	 add	 esp, 16			; 00000010H
  00064	3b ec		 cmp	 ebp, esp
  00066	e8 00 00 00 00	 call	 __RTC_CheckEsp
  0006b	8b e5		 mov	 esp, ebp
  0006d	5d		 pop	 ebp
  0006e	c2 38 00	 ret	 56			; 00000038H
_TEXT	ENDS
;	COMDAT text$x
text$x	SEGMENT
$L194717:
  00000	8b f4		 mov	 esi, esp
  00002	8d 4d 24	 lea	 ecx, DWORD PTR _newPaneName$[ebp]
  00005	ff 15 00 00 00
	00		 call	 DWORD PTR __imp_??1?$basic_string@DU?$char_traits@D@std@@V?$allocator@D@2@@std@@QAE@XZ
  0000b	3b f4		 cmp	 esi, esp
  0000d	e9 00 00 00 00	 jmp	 __RTC_CheckEsp
__ehhandler$?ILayoutChangeOb_PaneChanged@ILayoutChangeObserver@@UAEXV?$basic_string@DU?$char_traits@D@std@@V?$allocator@D@2@@std@@0@Z:
  00012	b8 00 00 00 00	 mov	 eax, OFFSET FLAT:$T194720
  00017	e9 00 00 00 00	 jmp	 ___CxxFrameHandler
text$x	ENDS
?ILayoutChangeOb_PaneChanged@ILayoutChangeObserver@@UAEXV?$basic_string@DU?$char_traits@D@std@@V?$allocator@D@2@@std@@0@Z ENDP ; ILayoutChangeObserver::ILayoutChangeOb_PaneChanged
; Function compile flags: /Odt /RTCsu
;	COMDAT ?ILayoutChangeOb_ColorChanged@ILayoutChangeObserver@@UAEXXZ
_TEXT	SEGMENT
_this$ = -4						; size = 4
?ILayoutChangeOb_ColorChanged@ILayoutChangeObserver@@UAEXXZ PROC NEAR ; ILayoutChangeObserver::ILayoutChangeOb_ColorChanged, COMDAT
; _this$ = ecx

; 12   : 	virtual void	ILayoutChangeOb_ColorChanged(){};

  00000	55		 push	 ebp
  00001	8b ec		 mov	 ebp, esp
  00003	51		 push	 ecx
  00004	c7 45 fc cc cc
	cc cc		 mov	 DWORD PTR [ebp-4], -858993460 ; ccccccccH
  0000b	89 4d fc	 mov	 DWORD PTR _this$[ebp], ecx
  0000e	8b e5		 mov	 esp, ebp
  00010	5d		 pop	 ebp
  00011	c3		 ret	 0
?ILayoutChangeOb_ColorChanged@ILayoutChangeObserver@@UAEXXZ ENDP ; ILayoutChangeObserver::ILayoutChangeOb_ColorChanged
; Function compile flags: /Odt /RTCsu
_TEXT	ENDS
;	COMDAT ?ILayoutChangeOb_ColorChanging@ILayoutChangeObserver@@UAEXXZ
_TEXT	SEGMENT
_this$ = -4						; size = 4
?ILayoutChangeOb_ColorChanging@ILayoutChangeObserver@@UAEXXZ PROC NEAR ; ILayoutChangeObserver::ILayoutChangeOb_ColorChanging, COMDAT
; _this$ = ecx

; 13   : 	virtual void	ILayoutChangeOb_ColorChanging(){};

  00000	55		 push	 ebp
  00001	8b ec		 mov	 ebp, esp
  00003	51		 push	 ecx
  00004	c7 45 fc cc cc
	cc cc		 mov	 DWORD PTR [ebp-4], -858993460 ; ccccccccH
  0000b	89 4d fc	 mov	 DWORD PTR _this$[ebp], ecx
  0000e	8b e5		 mov	 esp, ebp
  00010	5d		 pop	 ebp
  00011	c3		 ret	 0
?ILayoutChangeOb_ColorChanging@ILayoutChangeObserver@@UAEXXZ ENDP ; ILayoutChangeObserver::ILayoutChangeOb_ColorChanging
; Function compile flags: /Odt /RTCsu
_TEXT	ENDS
;	COMDAT ?ILayoutChangeOb_UpdateLayout@ILayoutChangeObserver@@UAEXPAUHWND__@@@Z
_TEXT	SEGMENT
_this$ = -4						; size = 4
_m_hWnd$ = 8						; size = 4
?ILayoutChangeOb_UpdateLayout@ILayoutChangeObserver@@UAEXPAUHWND__@@@Z PROC NEAR ; ILayoutChangeObserver::ILayoutChangeOb_UpdateLayout, COMDAT
; _this$ = ecx

; 14   : 	virtual void	ILayoutChangeOb_UpdateLayout(HWND m_hWnd){};

  00000	55		 push	 ebp
  00001	8b ec		 mov	 ebp, esp
  00003	51		 push	 ecx
  00004	c7 45 fc cc cc
	cc cc		 mov	 DWORD PTR [ebp-4], -858993460 ; ccccccccH
  0000b	89 4d fc	 mov	 DWORD PTR _this$[ebp], ecx
  0000e	8b e5		 mov	 esp, ebp
  00010	5d		 pop	 ebp
  00011	c2 04 00	 ret	 4
?ILayoutChangeOb_UpdateLayout@ILayoutChangeObserver@@UAEXPAUHWND__@@@Z ENDP ; ILayoutChangeObserver::ILayoutChangeOb_UpdateLayout
; Function compile flags: /Odt /RTCsu
_TEXT	ENDS
;	COMDAT ?ILayoutChangeOb_InitFinished@ILayoutChangeObserver@@UAEXXZ
_TEXT	SEGMENT
_this$ = -4						; size = 4
?ILayoutChangeOb_InitFinished@ILayoutChangeObserver@@UAEXXZ PROC NEAR ; ILayoutChangeObserver::ILayoutChangeOb_InitFinished, COMDAT
; _this$ = ecx

; 15   : 	virtual void	ILayoutChangeOb_InitFinished(){};

  00000	55		 push	 ebp
  00001	8b ec		 mov	 ebp, esp
  00003	51		 push	 ecx
  00004	c7 45 fc cc cc
	cc cc		 mov	 DWORD PTR [ebp-4], -858993460 ; ccccccccH
  0000b	89 4d fc	 mov	 DWORD PTR _this$[ebp], ecx
  0000e	8b e5		 mov	 esp, ebp
  00010	5d		 pop	 ebp
  00011	c3		 ret	 0
?ILayoutChangeOb_InitFinished@ILayoutChangeObserver@@UAEXXZ ENDP ; ILayoutChangeObserver::ILayoutChangeOb_InitFinished
; Function compile flags: /Odt /RTCsu
_TEXT	ENDS
;	COMDAT ?ILayoutChangeOb_InitBegin@ILayoutChangeObserver@@UAEXXZ
_TEXT	SEGMENT
_this$ = -4						; size = 4
?ILayoutChangeOb_InitBegin@ILayoutChangeObserver@@UAEXXZ PROC NEAR ; ILayoutChangeObserver::ILayoutChangeOb_InitBegin, COMDAT
; _this$ = ecx

; 16   : 	virtual void	ILayoutChangeOb_InitBegin(){};

  00000	55		 push	 ebp
  00001	8b ec		 mov	 ebp, esp
  00003	51		 push	 ecx
  00004	c7 45 fc cc cc
	cc cc		 mov	 DWORD PTR [ebp-4], -858993460 ; ccccccccH
  0000b	89 4d fc	 mov	 DWORD PTR _this$[ebp], ecx
  0000e	8b e5		 mov	 esp, ebp
  00010	5d		 pop	 ebp
  00011	c3		 ret	 0
?ILayoutChangeOb_InitBegin@ILayoutChangeObserver@@UAEXXZ ENDP ; ILayoutChangeObserver::ILayoutChangeOb_InitBegin
; Function compile flags: /Odt /RTCsu
; File d:\boxgit\playbox\playbox\dev\prj\playbox\src\layoutmgr\changecolor\ichangecolormgr.h
_TEXT	ENDS
;	COMDAT ?GetSkinWnd@CSkinMgrV1@@UAEPAVCWnd@@XZ
_TEXT	SEGMENT
_this$ = -4						; size = 4
?GetSkinWnd@CSkinMgrV1@@UAEPAVCWnd@@XZ PROC NEAR	; CSkinMgrV1::GetSkinWnd, COMDAT
; _this$ = ecx

; 95   : 	virtual CWnd*	GetSkinWnd(){return mp_mainSkinWnd;};

  00000	55		 push	 ebp
  00001	8b ec		 mov	 ebp, esp
  00003	51		 push	 ecx
  00004	c7 45 fc cc cc
	cc cc		 mov	 DWORD PTR [ebp-4], -858993460 ; ccccccccH
  0000b	89 4d fc	 mov	 DWORD PTR _this$[ebp], ecx
  0000e	8b 45 fc	 mov	 eax, DWORD PTR _this$[ebp]
  00011	8b 40 10	 mov	 eax, DWORD PTR [eax+16]
  00014	8b e5		 mov	 esp, ebp
  00016	5d		 pop	 ebp
  00017	c3		 ret	 0
?GetSkinWnd@CSkinMgrV1@@UAEPAVCWnd@@XZ ENDP		; CSkinMgrV1::GetSkinWnd
_TEXT	ENDS
PUBLIC	?OnSendChangeColor@IEventListener@@UAEXKI_N@Z	; IEventListener::OnSendChangeColor
PUBLIC	?OnSendChangeSkin@IEventListener@@UAEXV?$CStringT@DV?$StrTraitMFC_DLL@DV?$ChTraitsCRT@D@ATL@@@@@ATL@@@Z ; IEventListener::OnSendChangeSkin
PUBLIC	?OnSendChangeSubject@IEventListener@@UAEXV?$CStringT@DV?$StrTraitMFC_DLL@DV?$ChTraitsCRT@D@ATL@@@@@ATL@@0@Z ; IEventListener::OnSendChangeSubject
PUBLIC	?OnChangeSkinAndSub@IEventListener@@UAEXABV?$CStringT@DV?$StrTraitMFC_DLL@DV?$ChTraitsCRT@D@ATL@@@@@ATL@@0@Z ; IEventListener::OnChangeSkinAndSub
PUBLIC	?OnStartDownSubject@IEventListener@@UAEXABV?$CStringT@DV?$StrTraitMFC_DLL@DV?$ChTraitsCRT@D@ATL@@@@@ATL@@@Z ; IEventListener::OnStartDownSubject
PUBLIC	?OnFinishDownSubject@IEventListener@@UAEXH@Z	; IEventListener::OnFinishDownSubject
PUBLIC	??0IEventListener@@QAE@XZ			; IEventListener::IEventListener
PUBLIC	??_R4IChangeColorMgr@@6BIWndEventListener@@@	; IChangeColorMgr::`RTTI Complete Object Locator'
PUBLIC	??_R3IChangeColorMgr@@8				; IChangeColorMgr::`RTTI Class Hierarchy Descriptor'
PUBLIC	??_R2IChangeColorMgr@@8				; IChangeColorMgr::`RTTI Base Class Array'
PUBLIC	??_R4IChangeColorMgr@@6BIEventListener@@@	; IChangeColorMgr::`RTTI Complete Object Locator'
PUBLIC	??0IWndEventListener@@QAE@XZ			; IWndEventListener::IWndEventListener
PUBLIC	??_7IChangeColorMgr@@6BIWndEventListener@@@	; IChangeColorMgr::`vftable'
PUBLIC	??_7IChangeColorMgr@@6BIEventListener@@@	; IChangeColorMgr::`vftable'
EXTRN	__purecall:NEAR
;	COMDAT ??_7IChangeColorMgr@@6BIWndEventListener@@@
CONST	SEGMENT
??_7IChangeColorMgr@@6BIWndEventListener@@@ DD FLAT:??_R4IChangeColorMgr@@6BIWndEventListener@@@ ; IChangeColorMgr::`vftable'
	DD	FLAT:?OnChangeSkinTemplate@IWndEventListener@@UAE_NV?$CStringT@DV?$StrTraitMFC_DLL@DV?$ChTraitsCRT@D@ATL@@@@@ATL@@@Z
	DD	FLAT:?OnchangeColor@IWndEventListener@@UAEXKI@Z
	DD	FLAT:__purecall
	DD	FLAT:__purecall
	DD	FLAT:__purecall
	DD	FLAT:__purecall
	DD	FLAT:__purecall
	DD	FLAT:__purecall
	DD	FLAT:__purecall
	DD	FLAT:__purecall
	DD	FLAT:__purecall
	DD	FLAT:__purecall
	DD	FLAT:__purecall
	DD	FLAT:__purecall
	DD	FLAT:__purecall
	DD	FLAT:__purecall
	DD	FLAT:__purecall
	DD	FLAT:__purecall
	DD	FLAT:__purecall
	DD	FLAT:__purecall
	DD	FLAT:__purecall
	DD	FLAT:__purecall
	DD	FLAT:__purecall
	DD	FLAT:__purecall
	DD	FLAT:__purecall
CONST	ENDS
;	COMDAT ??_7IChangeColorMgr@@6BIEventListener@@@
CONST	SEGMENT
??_7IChangeColorMgr@@6BIEventListener@@@ DD FLAT:??_R4IChangeColorMgr@@6BIEventListener@@@ ; IChangeColorMgr::`vftable'
	DD	FLAT:?OnCliekButton@IEventListener@@UAEXPAVCButton@@@Z
	DD	FLAT:?OnCliekSlide@IEventListener@@UAEXPAVCSliderCtrl@@@Z
	DD	FLAT:?OnSendChangeColor@IEventListener@@UAEXKI_N@Z
	DD	FLAT:?OnSendChangeSkin@IEventListener@@UAEXV?$CStringT@DV?$StrTraitMFC_DLL@DV?$ChTraitsCRT@D@ATL@@@@@ATL@@@Z
	DD	FLAT:?OnSendChangeSubject@IEventListener@@UAEXV?$CStringT@DV?$StrTraitMFC_DLL@DV?$ChTraitsCRT@D@ATL@@@@@ATL@@0@Z
	DD	FLAT:?OnChangeSkinAndSub@IEventListener@@UAEXABV?$CStringT@DV?$StrTraitMFC_DLL@DV?$ChTraitsCRT@D@ATL@@@@@ATL@@0@Z
	DD	FLAT:?OnStartDownSubject@IEventListener@@UAEXABV?$CStringT@DV?$StrTraitMFC_DLL@DV?$ChTraitsCRT@D@ATL@@@@@ATL@@@Z
	DD	FLAT:?OnFinishDownSubject@IEventListener@@UAEXH@Z
CONST	ENDS
;	COMDAT ??_R4IChangeColorMgr@@6BIWndEventListener@@@
rdata$r	SEGMENT
??_R4IChangeColorMgr@@6BIWndEventListener@@@ DD 00H	; IChangeColorMgr::`RTTI Complete Object Locator'
	DD	00H
	DD	00H
	DD	FLAT:??_R0?AVIChangeColorMgr@@@8
	DD	FLAT:??_R3IChangeColorMgr@@8
rdata$r	ENDS
;	COMDAT ??_R3IChangeColorMgr@@8
rdata$r	SEGMENT
??_R3IChangeColorMgr@@8 DD 00H				; IChangeColorMgr::`RTTI Class Hierarchy Descriptor'
	DD	01H
	DD	03H
	DD	FLAT:??_R2IChangeColorMgr@@8
rdata$r	ENDS
;	COMDAT ??_R2IChangeColorMgr@@8
rdata$r	SEGMENT
??_R2IChangeColorMgr@@8 DD FLAT:??_R1A@?0A@A@IChangeColorMgr@@8 ; IChangeColorMgr::`RTTI Base Class Array'
	DD	FLAT:??_R1A@?0A@A@IWndEventListener@@8
	DD	FLAT:??_R13?0A@A@IEventListener@@8
rdata$r	ENDS
;	COMDAT ??_R4IChangeColorMgr@@6BIEventListener@@@
rdata$r	SEGMENT
??_R4IChangeColorMgr@@6BIEventListener@@@ DD 00H	; IChangeColorMgr::`RTTI Complete Object Locator'
	DD	04H
	DD	00H
	DD	FLAT:??_R0?AVIChangeColorMgr@@@8
	DD	FLAT:??_R3IChangeColorMgr@@8
; Function compile flags: /Odt /RTCsu
rdata$r	ENDS
;	COMDAT ??0IChangeColorMgr@@QAE@XZ
_TEXT	SEGMENT
_this$ = -4						; size = 4
??0IChangeColorMgr@@QAE@XZ PROC NEAR			; IChangeColorMgr::IChangeColorMgr, COMDAT
; _this$ = ecx
  00000	55		 push	 ebp
  00001	8b ec		 mov	 ebp, esp
  00003	51		 push	 ecx
  00004	c7 45 fc cc cc
	cc cc		 mov	 DWORD PTR [ebp-4], -858993460 ; ccccccccH
  0000b	89 4d fc	 mov	 DWORD PTR _this$[ebp], ecx
  0000e	8b 4d fc	 mov	 ecx, DWORD PTR _this$[ebp]
  00011	e8 00 00 00 00	 call	 ??0IWndEventListener@@QAE@XZ
  00016	8b 4d fc	 mov	 ecx, DWORD PTR _this$[ebp]
  00019	83 c1 04	 add	 ecx, 4
  0001c	e8 00 00 00 00	 call	 ??0IEventListener@@QAE@XZ
  00021	8b 45 fc	 mov	 eax, DWORD PTR _this$[ebp]
  00024	c7 00 00 00 00
	00		 mov	 DWORD PTR [eax], OFFSET FLAT:??_7IChangeColorMgr@@6BIWndEventListener@@@
  0002a	8b 4d fc	 mov	 ecx, DWORD PTR _this$[ebp]
  0002d	c7 41 04 00 00
	00 00		 mov	 DWORD PTR [ecx+4], OFFSET FLAT:??_7IChangeColorMgr@@6BIEventListener@@@
  00034	8b 45 fc	 mov	 eax, DWORD PTR _this$[ebp]
  00037	83 c4 04	 add	 esp, 4
  0003a	3b ec		 cmp	 ebp, esp
  0003c	e8 00 00 00 00	 call	 __RTC_CheckEsp
  00041	8b e5		 mov	 esp, ebp
  00043	5d		 pop	 ebp
  00044	c3		 ret	 0
??0IChangeColorMgr@@QAE@XZ ENDP				; IChangeColorMgr::IChangeColorMgr
; Function compile flags: /Odt /RTCsu
; File d:\boxgit\playbox\playbox\dev\prj\playbox\src\layoutmgr\changecolor\ievent.h
_TEXT	ENDS
;	COMDAT ?OnSendChangeColor@IEventListener@@UAEXKI_N@Z
_TEXT	SEGMENT
_this$ = -4						; size = 4
_acolCol$ = 8						; size = 4
_anLightValue$ = 12					; size = 4
_bChangeTop$ = 16					; size = 1
?OnSendChangeColor@IEventListener@@UAEXKI_N@Z PROC NEAR	; IEventListener::OnSendChangeColor, COMDAT
; _this$ = ecx

; 9    : 	virtual void OnSendChangeColor( COLORREF acolCol, UINT anLightValue,bool bChangeTop = true ){};

  00000	55		 push	 ebp
  00001	8b ec		 mov	 ebp, esp
  00003	51		 push	 ecx
  00004	c7 45 fc cc cc
	cc cc		 mov	 DWORD PTR [ebp-4], -858993460 ; ccccccccH
  0000b	89 4d fc	 mov	 DWORD PTR _this$[ebp], ecx
  0000e	8b e5		 mov	 esp, ebp
  00010	5d		 pop	 ebp
  00011	c2 0c 00	 ret	 12			; 0000000cH
?OnSendChangeColor@IEventListener@@UAEXKI_N@Z ENDP	; IEventListener::OnSendChangeColor
; Function compile flags: /Odt /RTCsu
_TEXT	ENDS
;	COMDAT ?OnSendChangeSkin@IEventListener@@UAEXV?$CStringT@DV?$StrTraitMFC_DLL@DV?$ChTraitsCRT@D@ATL@@@@@ATL@@@Z
_TEXT	SEGMENT
_this$ = -4						; size = 4
_strPath$ = 8						; size = 4
?OnSendChangeSkin@IEventListener@@UAEXV?$CStringT@DV?$StrTraitMFC_DLL@DV?$ChTraitsCRT@D@ATL@@@@@ATL@@@Z PROC NEAR ; IEventListener::OnSendChangeSkin, COMDAT
; _this$ = ecx

; 10   : 	virtual void OnSendChangeSkin ( CString strPath){};	

  00000	55		 push	 ebp
  00001	8b ec		 mov	 ebp, esp
  00003	51		 push	 ecx
  00004	56		 push	 esi
  00005	c7 45 fc cc cc
	cc cc		 mov	 DWORD PTR [ebp-4], -858993460 ; ccccccccH
  0000c	89 4d fc	 mov	 DWORD PTR _this$[ebp], ecx
  0000f	8b f4		 mov	 esi, esp
  00011	8d 4d 08	 lea	 ecx, DWORD PTR _strPath$[ebp]
  00014	ff 15 00 00 00
	00		 call	 DWORD PTR __imp_??1?$CStringT@DV?$StrTraitMFC_DLL@DV?$ChTraitsCRT@D@ATL@@@@@ATL@@QAE@XZ
  0001a	3b f4		 cmp	 esi, esp
  0001c	e8 00 00 00 00	 call	 __RTC_CheckEsp
  00021	5e		 pop	 esi
  00022	83 c4 04	 add	 esp, 4
  00025	3b ec		 cmp	 ebp, esp
  00027	e8 00 00 00 00	 call	 __RTC_CheckEsp
  0002c	8b e5		 mov	 esp, ebp
  0002e	5d		 pop	 ebp
  0002f	c2 04 00	 ret	 4
?OnSendChangeSkin@IEventListener@@UAEXV?$CStringT@DV?$StrTraitMFC_DLL@DV?$ChTraitsCRT@D@ATL@@@@@ATL@@@Z ENDP ; IEventListener::OnSendChangeSkin
; Function compile flags: /Odt /RTCsu
_TEXT	ENDS
;	COMDAT ?OnSendChangeSubject@IEventListener@@UAEXV?$CStringT@DV?$StrTraitMFC_DLL@DV?$ChTraitsCRT@D@ATL@@@@@ATL@@0@Z
_TEXT	SEGMENT
_this$ = -4						; size = 4
___formal$ = 8						; size = 4
_subjectName$ = 12					; size = 4
?OnSendChangeSubject@IEventListener@@UAEXV?$CStringT@DV?$StrTraitMFC_DLL@DV?$ChTraitsCRT@D@ATL@@@@@ATL@@0@Z PROC NEAR ; IEventListener::OnSendChangeSubject, COMDAT
; _this$ = ecx

; 11   : 	virtual void OnSendChangeSubject(CString,CString subjectName){};

  00000	55		 push	 ebp
  00001	8b ec		 mov	 ebp, esp
  00003	51		 push	 ecx
  00004	56		 push	 esi
  00005	c7 45 fc cc cc
	cc cc		 mov	 DWORD PTR [ebp-4], -858993460 ; ccccccccH
  0000c	89 4d fc	 mov	 DWORD PTR _this$[ebp], ecx
  0000f	8b f4		 mov	 esi, esp
  00011	8d 4d 08	 lea	 ecx, DWORD PTR ___formal$[ebp]
  00014	ff 15 00 00 00
	00		 call	 DWORD PTR __imp_??1?$CStringT@DV?$StrTraitMFC_DLL@DV?$ChTraitsCRT@D@ATL@@@@@ATL@@QAE@XZ
  0001a	3b f4		 cmp	 esi, esp
  0001c	e8 00 00 00 00	 call	 __RTC_CheckEsp
  00021	8b f4		 mov	 esi, esp
  00023	8d 4d 0c	 lea	 ecx, DWORD PTR _subjectName$[ebp]
  00026	ff 15 00 00 00
	00		 call	 DWORD PTR __imp_??1?$CStringT@DV?$StrTraitMFC_DLL@DV?$ChTraitsCRT@D@ATL@@@@@ATL@@QAE@XZ
  0002c	3b f4		 cmp	 esi, esp
  0002e	e8 00 00 00 00	 call	 __RTC_CheckEsp
  00033	5e		 pop	 esi
  00034	83 c4 04	 add	 esp, 4
  00037	3b ec		 cmp	 ebp, esp
  00039	e8 00 00 00 00	 call	 __RTC_CheckEsp
  0003e	8b e5		 mov	 esp, ebp
  00040	5d		 pop	 ebp
  00041	c2 08 00	 ret	 8
?OnSendChangeSubject@IEventListener@@UAEXV?$CStringT@DV?$StrTraitMFC_DLL@DV?$ChTraitsCRT@D@ATL@@@@@ATL@@0@Z ENDP ; IEventListener::OnSendChangeSubject
; Function compile flags: /Odt /RTCsu
_TEXT	ENDS
;	COMDAT ?OnChangeSkinAndSub@IEventListener@@UAEXABV?$CStringT@DV?$StrTraitMFC_DLL@DV?$ChTraitsCRT@D@ATL@@@@@ATL@@0@Z
_TEXT	SEGMENT
_this$ = -4						; size = 4
_strPath$ = 8						; size = 4
_strSub$ = 12						; size = 4
?OnChangeSkinAndSub@IEventListener@@UAEXABV?$CStringT@DV?$StrTraitMFC_DLL@DV?$ChTraitsCRT@D@ATL@@@@@ATL@@0@Z PROC NEAR ; IEventListener::OnChangeSkinAndSub, COMDAT
; _this$ = ecx

; 12   : 	virtual void OnChangeSkinAndSub(const CString& strPath,const CString& strSub){};

  00000	55		 push	 ebp
  00001	8b ec		 mov	 ebp, esp
  00003	51		 push	 ecx
  00004	c7 45 fc cc cc
	cc cc		 mov	 DWORD PTR [ebp-4], -858993460 ; ccccccccH
  0000b	89 4d fc	 mov	 DWORD PTR _this$[ebp], ecx
  0000e	8b e5		 mov	 esp, ebp
  00010	5d		 pop	 ebp
  00011	c2 08 00	 ret	 8
?OnChangeSkinAndSub@IEventListener@@UAEXABV?$CStringT@DV?$StrTraitMFC_DLL@DV?$ChTraitsCRT@D@ATL@@@@@ATL@@0@Z ENDP ; IEventListener::OnChangeSkinAndSub
; Function compile flags: /Odt /RTCsu
_TEXT	ENDS
;	COMDAT ?OnStartDownSubject@IEventListener@@UAEXABV?$CStringT@DV?$StrTraitMFC_DLL@DV?$ChTraitsCRT@D@ATL@@@@@ATL@@@Z
_TEXT	SEGMENT
_this$ = -4						; size = 4
_strSubName$ = 8					; size = 4
?OnStartDownSubject@IEventListener@@UAEXABV?$CStringT@DV?$StrTraitMFC_DLL@DV?$ChTraitsCRT@D@ATL@@@@@ATL@@@Z PROC NEAR ; IEventListener::OnStartDownSubject, COMDAT
; _this$ = ecx

; 13   : 	virtual void OnStartDownSubject(const CString& strSubName){};

  00000	55		 push	 ebp
  00001	8b ec		 mov	 ebp, esp
  00003	51		 push	 ecx
  00004	c7 45 fc cc cc
	cc cc		 mov	 DWORD PTR [ebp-4], -858993460 ; ccccccccH
  0000b	89 4d fc	 mov	 DWORD PTR _this$[ebp], ecx
  0000e	8b e5		 mov	 esp, ebp
  00010	5d		 pop	 ebp
  00011	c2 04 00	 ret	 4
?OnStartDownSubject@IEventListener@@UAEXABV?$CStringT@DV?$StrTraitMFC_DLL@DV?$ChTraitsCRT@D@ATL@@@@@ATL@@@Z ENDP ; IEventListener::OnStartDownSubject
; Function compile flags: /Odt /RTCsu
_TEXT	ENDS
;	COMDAT ?OnFinishDownSubject@IEventListener@@UAEXH@Z
_TEXT	SEGMENT
_this$ = -4						; size = 4
_bSuc$ = 8						; size = 4
?OnFinishDownSubject@IEventListener@@UAEXH@Z PROC NEAR	; IEventListener::OnFinishDownSubject, COMDAT
; _this$ = ecx

; 14   : 	virtual void OnFinishDownSubject(BOOL bSuc){};

  00000	55		 push	 ebp
  00001	8b ec		 mov	 ebp, esp
  00003	51		 push	 ecx
  00004	c7 45 fc cc cc
	cc cc		 mov	 DWORD PTR [ebp-4], -858993460 ; ccccccccH
  0000b	89 4d fc	 mov	 DWORD PTR _this$[ebp], ecx
  0000e	8b e5		 mov	 esp, ebp
  00010	5d		 pop	 ebp
  00011	c2 04 00	 ret	 4
?OnFinishDownSubject@IEventListener@@UAEXH@Z ENDP	; IEventListener::OnFinishDownSubject
; Function compile flags: /Odt /RTCsu
_TEXT	ENDS
;	COMDAT ??0P2PObserver@@QAE@XZ
_TEXT	SEGMENT
_this$ = -4						; size = 4
??0P2PObserver@@QAE@XZ PROC NEAR			; P2PObserver::P2PObserver, COMDAT
; _this$ = ecx
  00000	55		 push	 ebp
  00001	8b ec		 mov	 ebp, esp
  00003	51		 push	 ecx
  00004	c7 45 fc cc cc
	cc cc		 mov	 DWORD PTR [ebp-4], -858993460 ; ccccccccH
  0000b	89 4d fc	 mov	 DWORD PTR _this$[ebp], ecx
  0000e	8b 45 fc	 mov	 eax, DWORD PTR _this$[ebp]
  00011	c7 00 00 00 00
	00		 mov	 DWORD PTR [eax], OFFSET FLAT:??_7P2PObserver@@6B@
  00017	8b 45 fc	 mov	 eax, DWORD PTR _this$[ebp]
  0001a	8b e5		 mov	 esp, ebp
  0001c	5d		 pop	 ebp
  0001d	c3		 ret	 0
??0P2PObserver@@QAE@XZ ENDP				; P2PObserver::P2PObserver
_TEXT	ENDS
PUBLIC	??0IMessageObserver@@QAE@XZ			; IMessageObserver::IMessageObserver
PUBLIC	?ILayoutChangeOb_SkinChanged@ILayoutChangeObserver@@UAEXV?$basic_string@DU?$char_traits@D@std@@V?$allocator@D@2@@std@@0@Z ; ILayoutChangeObserver::ILayoutChangeOb_SkinChanged
PUBLIC	??_7ILayoutChangeObserver@@6B@			; ILayoutChangeObserver::`vftable'
PUBLIC	??_GILayoutChangeObserver@@UAEPAXI@Z		; ILayoutChangeObserver::`scalar deleting destructor'
PUBLIC	??_R4ILayoutChangeObserver@@6B@			; ILayoutChangeObserver::`RTTI Complete Object Locator'
PUBLIC	??_R3ILayoutChangeObserver@@8			; ILayoutChangeObserver::`RTTI Class Hierarchy Descriptor'
PUBLIC	??_R2ILayoutChangeObserver@@8			; ILayoutChangeObserver::`RTTI Base Class Array'
PUBLIC	??_R1A@?0A@A@ILayoutChangeObserver@@8		; ILayoutChangeObserver::`RTTI Base Class Descriptor at (0,-1,0,0)'
PUBLIC	??_R1A@?0A@A@IMessageObserver@@8		; IMessageObserver::`RTTI Base Class Descriptor at (0,-1,0,0)'
EXTRN	??_EILayoutChangeObserver@@UAEPAXI@Z:NEAR	; ILayoutChangeObserver::`vector deleting destructor'
;	COMDAT ??_7ILayoutChangeObserver@@6B@
CONST	SEGMENT
??_7ILayoutChangeObserver@@6B@ DD FLAT:??_R4ILayoutChangeObserver@@6B@ ; ILayoutChangeObserver::`vftable'
	DD	FLAT:??_EILayoutChangeObserver@@UAEPAXI@Z
	DD	FLAT:?ILayoutChangeOb_LayerChanged@ILayoutChangeObserver@@UAEXV?$basic_string@DU?$char_traits@D@std@@V?$allocator@D@2@@std@@00@Z
	DD	FLAT:?ILayoutChangeOb_PaneChanged@ILayoutChangeObserver@@UAEXV?$basic_string@DU?$char_traits@D@std@@V?$allocator@D@2@@std@@0@Z
	DD	FLAT:?ILayoutChangeOb_SkinChanged@ILayoutChangeObserver@@UAEXV?$basic_string@DU?$char_traits@D@std@@V?$allocator@D@2@@std@@0@Z
	DD	FLAT:?ILayoutChangeOb_ColorChanged@ILayoutChangeObserver@@UAEXXZ
	DD	FLAT:?ILayoutChangeOb_ColorChanging@ILayoutChangeObserver@@UAEXXZ
	DD	FLAT:?ILayoutChangeOb_UpdateLayout@ILayoutChangeObserver@@UAEXPAUHWND__@@@Z
	DD	FLAT:?ILayoutChangeOb_InitFinished@ILayoutChangeObserver@@UAEXXZ
	DD	FLAT:?ILayoutChangeOb_InitBegin@ILayoutChangeObserver@@UAEXXZ
CONST	ENDS
;	COMDAT ??_R4ILayoutChangeObserver@@6B@
rdata$r	SEGMENT
??_R4ILayoutChangeObserver@@6B@ DD 00H			; ILayoutChangeObserver::`RTTI Complete Object Locator'
	DD	00H
	DD	00H
	DD	FLAT:??_R0?AVILayoutChangeObserver@@@8
	DD	FLAT:??_R3ILayoutChangeObserver@@8
rdata$r	ENDS
;	COMDAT ??_R3ILayoutChangeObserver@@8
rdata$r	SEGMENT
??_R3ILayoutChangeObserver@@8 DD 00H			; ILayoutChangeObserver::`RTTI Class Hierarchy Descriptor'
	DD	00H
	DD	02H
	DD	FLAT:??_R2ILayoutChangeObserver@@8
rdata$r	ENDS
;	COMDAT ??_R2ILayoutChangeObserver@@8
rdata$r	SEGMENT
??_R2ILayoutChangeObserver@@8 DD FLAT:??_R1A@?0A@A@ILayoutChangeObserver@@8 ; ILayoutChangeObserver::`RTTI Base Class Array'
	DD	FLAT:??_R1A@?0A@A@IMessageObserver@@8
rdata$r	ENDS
;	COMDAT ??_R1A@?0A@A@ILayoutChangeObserver@@8
rdata$r	SEGMENT
??_R1A@?0A@A@ILayoutChangeObserver@@8 DD FLAT:??_R0?AVILayoutChangeObserver@@@8 ; ILayoutChangeObserver::`RTTI Base Class Descriptor at (0,-1,0,0)'
	DD	01H
	DD	00H
	DD	0ffffffffH
	DD	00H
	DD	00H
rdata$r	ENDS
;	COMDAT ??_R1A@?0A@A@IMessageObserver@@8
rdata$r	SEGMENT
??_R1A@?0A@A@IMessageObserver@@8 DD FLAT:??_R0?AVIMessageObserver@@@8 ; IMessageObserver::`RTTI Base Class Descriptor at (0,-1,0,0)'
	DD	00H
	DD	00H
	DD	0ffffffffH
	DD	00H
	DD	00H
; Function compile flags: /Odt /RTCsu
rdata$r	ENDS
;	COMDAT ??0ILayoutChangeObserver@@QAE@XZ
_TEXT	SEGMENT
_this$ = -4						; size = 4
??0ILayoutChangeObserver@@QAE@XZ PROC NEAR		; ILayoutChangeObserver::ILayoutChangeObserver, COMDAT
; _this$ = ecx
  00000	55		 push	 ebp
  00001	8b ec		 mov	 ebp, esp
  00003	51		 push	 ecx
  00004	c7 45 fc cc cc
	cc cc		 mov	 DWORD PTR [ebp-4], -858993460 ; ccccccccH
  0000b	89 4d fc	 mov	 DWORD PTR _this$[ebp], ecx
  0000e	8b 4d fc	 mov	 ecx, DWORD PTR _this$[ebp]
  00011	e8 00 00 00 00	 call	 ??0IMessageObserver@@QAE@XZ
  00016	8b 45 fc	 mov	 eax, DWORD PTR _this$[ebp]
  00019	c7 00 00 00 00
	00		 mov	 DWORD PTR [eax], OFFSET FLAT:??_7ILayoutChangeObserver@@6B@
  0001f	8b 45 fc	 mov	 eax, DWORD PTR _this$[ebp]
  00022	83 c4 04	 add	 esp, 4
  00025	3b ec		 cmp	 ebp, esp
  00027	e8 00 00 00 00	 call	 __RTC_CheckEsp
  0002c	8b e5		 mov	 esp, ebp
  0002e	5d		 pop	 ebp
  0002f	c3		 ret	 0
??0ILayoutChangeObserver@@QAE@XZ ENDP			; ILayoutChangeObserver::ILayoutChangeObserver
_TEXT	ENDS
;	COMDAT xdata$x
; File d:\boxgit\playbox\playbox\dev\prj\playbox\src\datainterface\ilayoutchangeobserver.h
xdata$x	SEGMENT
$T194749 DD	0ffffffffH
	DD	FLAT:$L194744
$T194747 DD	019930520H
	DD	01H
	DD	FLAT:$T194749
	DD	2 DUP(00H)
	DD	2 DUP(00H)
; Function compile flags: /Odt /RTCsu
xdata$x	ENDS
;	COMDAT ?ILayoutChangeOb_SkinChanged@ILayoutChangeObserver@@UAEXV?$basic_string@DU?$char_traits@D@std@@V?$allocator@D@2@@std@@0@Z
_TEXT	SEGMENT
_this$ = -16						; size = 4
__$EHRec$ = -12						; size = 12
_oldSkinPath$ = 8					; size = 28
_newSkinPath$ = 36					; size = 28
?ILayoutChangeOb_SkinChanged@ILayoutChangeObserver@@UAEXV?$basic_string@DU?$char_traits@D@std@@V?$allocator@D@2@@std@@0@Z PROC NEAR ; ILayoutChangeObserver::ILayoutChangeOb_SkinChanged, COMDAT
; _this$ = ecx

; 11   : 	virtual void	ILayoutChangeOb_SkinChanged(string oldSkinPath, string newSkinPath){};

  00000	55		 push	 ebp
  00001	8b ec		 mov	 ebp, esp
  00003	6a ff		 push	 -1
  00005	68 00 00 00 00	 push	 __ehhandler$?ILayoutChangeOb_SkinChanged@ILayoutChangeObserver@@UAEXV?$basic_string@DU?$char_traits@D@std@@V?$allocator@D@2@@std@@0@Z
  0000a	64 a1 00 00 00
	00		 mov	 eax, DWORD PTR fs:__except_list
  00010	50		 push	 eax
  00011	64 89 25 00 00
	00 00		 mov	 DWORD PTR fs:__except_list, esp
  00018	51		 push	 ecx
  00019	56		 push	 esi
  0001a	c7 45 f0 cc cc
	cc cc		 mov	 DWORD PTR [ebp-16], -858993460 ; ccccccccH
  00021	89 4d f0	 mov	 DWORD PTR _this$[ebp], ecx
  00024	c7 45 fc 00 00
	00 00		 mov	 DWORD PTR __$EHRec$[ebp+8], 0
  0002b	8b f4		 mov	 esi, esp
  0002d	8d 4d 08	 lea	 ecx, DWORD PTR _oldSkinPath$[ebp]
  00030	ff 15 00 00 00
	00		 call	 DWORD PTR __imp_??1?$basic_string@DU?$char_traits@D@std@@V?$allocator@D@2@@std@@QAE@XZ
  00036	3b f4		 cmp	 esi, esp
  00038	e8 00 00 00 00	 call	 __RTC_CheckEsp
  0003d	c7 45 fc ff ff
	ff ff		 mov	 DWORD PTR __$EHRec$[ebp+8], -1
  00044	8b f4		 mov	 esi, esp
  00046	8d 4d 24	 lea	 ecx, DWORD PTR _newSkinPath$[ebp]
  00049	ff 15 00 00 00
	00		 call	 DWORD PTR __imp_??1?$basic_string@DU?$char_traits@D@std@@V?$allocator@D@2@@std@@QAE@XZ
  0004f	3b f4		 cmp	 esi, esp
  00051	e8 00 00 00 00	 call	 __RTC_CheckEsp
  00056	8b 4d f4	 mov	 ecx, DWORD PTR __$EHRec$[ebp]
  00059	64 89 0d 00 00
	00 00		 mov	 DWORD PTR fs:__except_list, ecx
  00060	5e		 pop	 esi
  00061	83 c4 10	 add	 esp, 16			; 00000010H
  00064	3b ec		 cmp	 ebp, esp
  00066	e8 00 00 00 00	 call	 __RTC_CheckEsp
  0006b	8b e5		 mov	 esp, ebp
  0006d	5d		 pop	 ebp
  0006e	c2 38 00	 ret	 56			; 00000038H
_TEXT	ENDS
;	COMDAT text$x
text$x	SEGMENT
$L194744:
  00000	8b f4		 mov	 esi, esp
  00002	8d 4d 24	 lea	 ecx, DWORD PTR _newSkinPath$[ebp]
  00005	ff 15 00 00 00
	00		 call	 DWORD PTR __imp_??1?$basic_string@DU?$char_traits@D@std@@V?$allocator@D@2@@std@@QAE@XZ
  0000b	3b f4		 cmp	 esi, esp
  0000d	e9 00 00 00 00	 jmp	 __RTC_CheckEsp
__ehhandler$?ILayoutChangeOb_SkinChanged@ILayoutChangeObserver@@UAEXV?$basic_string@DU?$char_traits@D@std@@V?$allocator@D@2@@std@@0@Z:
  00012	b8 00 00 00 00	 mov	 eax, OFFSET FLAT:$T194747
  00017	e9 00 00 00 00	 jmp	 ___CxxFrameHandler
text$x	ENDS
?ILayoutChangeOb_SkinChanged@ILayoutChangeObserver@@UAEXV?$basic_string@DU?$char_traits@D@std@@V?$allocator@D@2@@std@@0@Z ENDP ; ILayoutChangeObserver::ILayoutChangeOb_SkinChanged
PUBLIC	??1IMessageObserver@@UAE@XZ			; IMessageObserver::~IMessageObserver
; Function compile flags: /Odt /RTCsu
;	COMDAT ??1ILayoutChangeObserver@@UAE@XZ
_TEXT	SEGMENT
_this$ = -4						; size = 4
??1ILayoutChangeObserver@@UAE@XZ PROC NEAR		; ILayoutChangeObserver::~ILayoutChangeObserver, COMDAT
; _this$ = ecx
  00000	55		 push	 ebp
  00001	8b ec		 mov	 ebp, esp
  00003	51		 push	 ecx
  00004	c7 45 fc cc cc
	cc cc		 mov	 DWORD PTR [ebp-4], -858993460 ; ccccccccH
  0000b	89 4d fc	 mov	 DWORD PTR _this$[ebp], ecx
  0000e	8b 4d fc	 mov	 ecx, DWORD PTR _this$[ebp]
  00011	e8 00 00 00 00	 call	 ??1IMessageObserver@@UAE@XZ ; IMessageObserver::~IMessageObserver
  00016	83 c4 04	 add	 esp, 4
  00019	3b ec		 cmp	 ebp, esp
  0001b	e8 00 00 00 00	 call	 __RTC_CheckEsp
  00020	8b e5		 mov	 esp, ebp
  00022	5d		 pop	 ebp
  00023	c3		 ret	 0
??1ILayoutChangeObserver@@UAE@XZ ENDP			; ILayoutChangeObserver::~ILayoutChangeObserver
_TEXT	ENDS
PUBLIC	??_R4IWndEventListener@@6B@			; IWndEventListener::`RTTI Complete Object Locator'
PUBLIC	??_R3IWndEventListener@@8			; IWndEventListener::`RTTI Class Hierarchy Descriptor'
PUBLIC	??_R2IWndEventListener@@8			; IWndEventListener::`RTTI Base Class Array'
PUBLIC	??_7IWndEventListener@@6B@			; IWndEventListener::`vftable'
;	COMDAT ??_7IWndEventListener@@6B@
CONST	SEGMENT
??_7IWndEventListener@@6B@ DD FLAT:??_R4IWndEventListener@@6B@ ; IWndEventListener::`vftable'
	DD	FLAT:?OnChangeSkinTemplate@IWndEventListener@@UAE_NV?$CStringT@DV?$StrTraitMFC_DLL@DV?$ChTraitsCRT@D@ATL@@@@@ATL@@@Z
	DD	FLAT:?OnchangeColor@IWndEventListener@@UAEXKI@Z
	DD	FLAT:__purecall
CONST	ENDS
;	COMDAT ??_R4IWndEventListener@@6B@
rdata$r	SEGMENT
??_R4IWndEventListener@@6B@ DD 00H			; IWndEventListener::`RTTI Complete Object Locator'
	DD	00H
	DD	00H
	DD	FLAT:??_R0?AVIWndEventListener@@@8
	DD	FLAT:??_R3IWndEventListener@@8
rdata$r	ENDS
;	COMDAT ??_R3IWndEventListener@@8
rdata$r	SEGMENT
??_R3IWndEventListener@@8 DD 00H			; IWndEventListener::`RTTI Class Hierarchy Descriptor'
	DD	00H
	DD	01H
	DD	FLAT:??_R2IWndEventListener@@8
rdata$r	ENDS
;	COMDAT ??_R2IWndEventListener@@8
rdata$r	SEGMENT
??_R2IWndEventListener@@8 DD FLAT:??_R1A@?0A@A@IWndEventListener@@8 ; IWndEventListener::`RTTI Base Class Array'
; Function compile flags: /Odt /RTCsu
rdata$r	ENDS
;	COMDAT ??0IWndEventListener@@QAE@XZ
_TEXT	SEGMENT
_this$ = -4						; size = 4
??0IWndEventListener@@QAE@XZ PROC NEAR			; IWndEventListener::IWndEventListener, COMDAT
; _this$ = ecx
  00000	55		 push	 ebp
  00001	8b ec		 mov	 ebp, esp
  00003	51		 push	 ecx
  00004	c7 45 fc cc cc
	cc cc		 mov	 DWORD PTR [ebp-4], -858993460 ; ccccccccH
  0000b	89 4d fc	 mov	 DWORD PTR _this$[ebp], ecx
  0000e	8b 45 fc	 mov	 eax, DWORD PTR _this$[ebp]
  00011	c7 00 00 00 00
	00		 mov	 DWORD PTR [eax], OFFSET FLAT:??_7IWndEventListener@@6B@
  00017	8b 45 fc	 mov	 eax, DWORD PTR _this$[ebp]
  0001a	8b e5		 mov	 esp, ebp
  0001c	5d		 pop	 ebp
  0001d	c3		 ret	 0
??0IWndEventListener@@QAE@XZ ENDP			; IWndEventListener::IWndEventListener
_TEXT	ENDS
PUBLIC	??_7IEventListener@@6B@				; IEventListener::`vftable'
PUBLIC	??_R4IEventListener@@6B@			; IEventListener::`RTTI Complete Object Locator'
PUBLIC	??_R3IEventListener@@8				; IEventListener::`RTTI Class Hierarchy Descriptor'
PUBLIC	??_R2IEventListener@@8				; IEventListener::`RTTI Base Class Array'
PUBLIC	??_R1A@?0A@A@IEventListener@@8			; IEventListener::`RTTI Base Class Descriptor at (0,-1,0,0)'
;	COMDAT ??_7IEventListener@@6B@
CONST	SEGMENT
??_7IEventListener@@6B@ DD FLAT:??_R4IEventListener@@6B@ ; IEventListener::`vftable'
	DD	FLAT:?OnCliekButton@IEventListener@@UAEXPAVCButton@@@Z
	DD	FLAT:?OnCliekSlide@IEventListener@@UAEXPAVCSliderCtrl@@@Z
	DD	FLAT:?OnSendChangeColor@IEventListener@@UAEXKI_N@Z
	DD	FLAT:?OnSendChangeSkin@IEventListener@@UAEXV?$CStringT@DV?$StrTraitMFC_DLL@DV?$ChTraitsCRT@D@ATL@@@@@ATL@@@Z
	DD	FLAT:?OnSendChangeSubject@IEventListener@@UAEXV?$CStringT@DV?$StrTraitMFC_DLL@DV?$ChTraitsCRT@D@ATL@@@@@ATL@@0@Z
	DD	FLAT:?OnChangeSkinAndSub@IEventListener@@UAEXABV?$CStringT@DV?$StrTraitMFC_DLL@DV?$ChTraitsCRT@D@ATL@@@@@ATL@@0@Z
	DD	FLAT:?OnStartDownSubject@IEventListener@@UAEXABV?$CStringT@DV?$StrTraitMFC_DLL@DV?$ChTraitsCRT@D@ATL@@@@@ATL@@@Z
	DD	FLAT:?OnFinishDownSubject@IEventListener@@UAEXH@Z
CONST	ENDS
;	COMDAT ??_R4IEventListener@@6B@
rdata$r	SEGMENT
??_R4IEventListener@@6B@ DD 00H				; IEventListener::`RTTI Complete Object Locator'
	DD	00H
	DD	00H
	DD	FLAT:??_R0?AVIEventListener@@@8
	DD	FLAT:??_R3IEventListener@@8
rdata$r	ENDS
;	COMDAT ??_R3IEventListener@@8
rdata$r	SEGMENT
??_R3IEventListener@@8 DD 00H				; IEventListener::`RTTI Class Hierarchy Descriptor'
	DD	00H
	DD	01H
	DD	FLAT:??_R2IEventListener@@8
rdata$r	ENDS
;	COMDAT ??_R2IEventListener@@8
rdata$r	SEGMENT
??_R2IEventListener@@8 DD FLAT:??_R1A@?0A@A@IEventListener@@8 ; IEventListener::`RTTI Base Class Array'
rdata$r	ENDS
;	COMDAT ??_R1A@?0A@A@IEventListener@@8
rdata$r	SEGMENT
??_R1A@?0A@A@IEventListener@@8 DD FLAT:??_R0?AVIEventListener@@@8 ; IEventListener::`RTTI Base Class Descriptor at (0,-1,0,0)'
	DD	00H
	DD	00H
	DD	0ffffffffH
	DD	00H
	DD	00H
; Function compile flags: /Odt /RTCsu
rdata$r	ENDS
;	COMDAT ??0IEventListener@@QAE@XZ
_TEXT	SEGMENT
_this$ = -4						; size = 4
??0IEventListener@@QAE@XZ PROC NEAR			; IEventListener::IEventListener, COMDAT
; _this$ = ecx
  00000	55		 push	 ebp
  00001	8b ec		 mov	 ebp, esp
  00003	51		 push	 ecx
  00004	c7 45 fc cc cc
	cc cc		 mov	 DWORD PTR [ebp-4], -858993460 ; ccccccccH
  0000b	89 4d fc	 mov	 DWORD PTR _this$[ebp], ecx
  0000e	8b 45 fc	 mov	 eax, DWORD PTR _this$[ebp]
  00011	c7 00 00 00 00
	00		 mov	 DWORD PTR [eax], OFFSET FLAT:??_7IEventListener@@6B@
  00017	8b 45 fc	 mov	 eax, DWORD PTR _this$[ebp]
  0001a	8b e5		 mov	 esp, ebp
  0001c	5d		 pop	 ebp
  0001d	c3		 ret	 0
??0IEventListener@@QAE@XZ ENDP				; IEventListener::IEventListener
; Function compile flags: /Odt /RTCsu
_TEXT	ENDS
;	COMDAT ??_GILayoutChangeObserver@@UAEPAXI@Z
_TEXT	SEGMENT
_this$ = -4						; size = 4
___flags$ = 8						; size = 4
??_GILayoutChangeObserver@@UAEPAXI@Z PROC NEAR		; ILayoutChangeObserver::`scalar deleting destructor', COMDAT
; _this$ = ecx
  00000	55		 push	 ebp
  00001	8b ec		 mov	 ebp, esp
  00003	51		 push	 ecx
  00004	c7 45 fc cc cc
	cc cc		 mov	 DWORD PTR [ebp-4], -858993460 ; ccccccccH
  0000b	89 4d fc	 mov	 DWORD PTR _this$[ebp], ecx
  0000e	8b 4d fc	 mov	 ecx, DWORD PTR _this$[ebp]
  00011	e8 00 00 00 00	 call	 ??1ILayoutChangeObserver@@UAE@XZ
  00016	8b 45 08	 mov	 eax, DWORD PTR ___flags$[ebp]
  00019	83 e0 01	 and	 eax, 1
  0001c	74 0c		 je	 SHORT $L191904
  0001e	8b 4d fc	 mov	 ecx, DWORD PTR _this$[ebp]
  00021	51		 push	 ecx
  00022	e8 00 00 00 00	 call	 ??3@YAXPAX@Z		; operator delete
  00027	83 c4 04	 add	 esp, 4
$L191904:
  0002a	8b 45 fc	 mov	 eax, DWORD PTR _this$[ebp]
  0002d	83 c4 04	 add	 esp, 4
  00030	3b ec		 cmp	 ebp, esp
  00032	e8 00 00 00 00	 call	 __RTC_CheckEsp
  00037	8b e5		 mov	 esp, ebp
  00039	5d		 pop	 ebp
  0003a	c2 04 00	 ret	 4
??_GILayoutChangeObserver@@UAEPAXI@Z ENDP		; ILayoutChangeObserver::`scalar deleting destructor'
_TEXT	ENDS
PUBLIC	??_7IMessageObserver@@6B@			; IMessageObserver::`vftable'
PUBLIC	??_GIMessageObserver@@UAEPAXI@Z			; IMessageObserver::`scalar deleting destructor'
PUBLIC	??_R4IMessageObserver@@6B@			; IMessageObserver::`RTTI Complete Object Locator'
PUBLIC	??_R3IMessageObserver@@8			; IMessageObserver::`RTTI Class Hierarchy Descriptor'
PUBLIC	??_R2IMessageObserver@@8			; IMessageObserver::`RTTI Base Class Array'
EXTRN	??_EIMessageObserver@@UAEPAXI@Z:NEAR		; IMessageObserver::`vector deleting destructor'
;	COMDAT ??_7IMessageObserver@@6B@
CONST	SEGMENT
??_7IMessageObserver@@6B@ DD FLAT:??_R4IMessageObserver@@6B@ ; IMessageObserver::`vftable'
	DD	FLAT:??_EIMessageObserver@@UAEPAXI@Z
CONST	ENDS
;	COMDAT ??_R4IMessageObserver@@6B@
rdata$r	SEGMENT
??_R4IMessageObserver@@6B@ DD 00H			; IMessageObserver::`RTTI Complete Object Locator'
	DD	00H
	DD	00H
	DD	FLAT:??_R0?AVIMessageObserver@@@8
	DD	FLAT:??_R3IMessageObserver@@8
rdata$r	ENDS
;	COMDAT ??_R3IMessageObserver@@8
rdata$r	SEGMENT
??_R3IMessageObserver@@8 DD 00H				; IMessageObserver::`RTTI Class Hierarchy Descriptor'
	DD	00H
	DD	01H
	DD	FLAT:??_R2IMessageObserver@@8
rdata$r	ENDS
;	COMDAT ??_R2IMessageObserver@@8
rdata$r	SEGMENT
??_R2IMessageObserver@@8 DD FLAT:??_R1A@?0A@A@IMessageObserver@@8 ; IMessageObserver::`RTTI Base Class Array'
; Function compile flags: /Odt /RTCsu
rdata$r	ENDS
;	COMDAT ??0IMessageObserver@@QAE@XZ
_TEXT	SEGMENT
_this$ = -4						; size = 4
??0IMessageObserver@@QAE@XZ PROC NEAR			; IMessageObserver::IMessageObserver, COMDAT
; _this$ = ecx
  00000	55		 push	 ebp
  00001	8b ec		 mov	 ebp, esp
  00003	51		 push	 ecx
  00004	c7 45 fc cc cc
	cc cc		 mov	 DWORD PTR [ebp-4], -858993460 ; ccccccccH
  0000b	89 4d fc	 mov	 DWORD PTR _this$[ebp], ecx
  0000e	8b 45 fc	 mov	 eax, DWORD PTR _this$[ebp]
  00011	c7 00 00 00 00
	00		 mov	 DWORD PTR [eax], OFFSET FLAT:??_7IMessageObserver@@6B@
  00017	8b 45 fc	 mov	 eax, DWORD PTR _this$[ebp]
  0001a	8b e5		 mov	 esp, ebp
  0001c	5d		 pop	 ebp
  0001d	c3		 ret	 0
??0IMessageObserver@@QAE@XZ ENDP			; IMessageObserver::IMessageObserver
_TEXT	ENDS
PUBLIC	??1CSkinMgrV1@@UAE@XZ				; CSkinMgrV1::~CSkinMgrV1
EXTRN	__imp__DeleteCriticalSection@4:NEAR
xdata$x	SEGMENT
$T194787 DD	0ffffffffH
	DD	FLAT:$L194775
	DD	00H
	DD	FLAT:$L194778
	DD	01H
	DD	FLAT:$L194779
	DD	02H
	DD	FLAT:$L194780
	DD	03H
	DD	FLAT:$L194781
	DD	04H
	DD	FLAT:$L194782
	DD	05H
	DD	FLAT:$L194783
$T194785 DD	019930520H
	DD	07H
	DD	FLAT:$T194787
	DD	2 DUP(00H)
	DD	2 DUP(00H)
; Function compile flags: /Odt /RTCsu
; File d:\boxgit\playbox\playbox\dev\prj\playbox\src\layoutmgr\changecolor\ichangecolormgr.cpp
xdata$x	ENDS
_TEXT	SEGMENT
tv69 = -56						; size = 4
tv73 = -52						; size = 4
tv153 = -48						; size = 4
tv158 = -44						; size = 4
tv147 = -40						; size = 4
tv136 = -36						; size = 4
$T194768 = -32						; size = 4
$T194767 = -28						; size = 4
$T194764 = -24						; size = 4
$T194763 = -20						; size = 4
_this$ = -16						; size = 4
__$EHRec$ = -12						; size = 12
??1CSkinMgrV1@@UAE@XZ PROC NEAR				; CSkinMgrV1::~CSkinMgrV1
; _this$ = ecx

; 47   : {

  001f0	55		 push	 ebp
  001f1	8b ec		 mov	 ebp, esp
  001f3	6a ff		 push	 -1
  001f5	68 00 00 00 00	 push	 __ehhandler$??1CSkinMgrV1@@UAE@XZ
  001fa	64 a1 00 00 00
	00		 mov	 eax, DWORD PTR fs:__except_list
  00200	50		 push	 eax
  00201	64 89 25 00 00
	00 00		 mov	 DWORD PTR fs:__except_list, esp
  00208	83 ec 2c	 sub	 esp, 44			; 0000002cH
  0020b	56		 push	 esi
  0020c	57		 push	 edi
  0020d	51		 push	 ecx
  0020e	8d 7d c8	 lea	 edi, DWORD PTR [ebp-56]
  00211	b9 0b 00 00 00	 mov	 ecx, 11			; 0000000bH
  00216	b8 cc cc cc cc	 mov	 eax, -858993460		; ccccccccH
  0021b	f3 ab		 rep stosd
  0021d	59		 pop	 ecx
  0021e	89 4d f0	 mov	 DWORD PTR _this$[ebp], ecx
  00221	8b 45 f0	 mov	 eax, DWORD PTR _this$[ebp]
  00224	c7 00 00 00 00
	00		 mov	 DWORD PTR [eax], OFFSET FLAT:??_7CSkinMgrV1@@6BIWndEventListener@@@
  0022a	8b 4d f0	 mov	 ecx, DWORD PTR _this$[ebp]
  0022d	c7 41 04 00 00
	00 00		 mov	 DWORD PTR [ecx+4], OFFSET FLAT:??_7CSkinMgrV1@@6BIEventListener@@@
  00234	8b 55 f0	 mov	 edx, DWORD PTR _this$[ebp]
  00237	c7 42 08 00 00
	00 00		 mov	 DWORD PTR [edx+8], OFFSET FLAT:??_7CSkinMgrV1@@6BP2PObserver@@@
  0023e	8b 45 f0	 mov	 eax, DWORD PTR _this$[ebp]
  00241	c7 40 0c 00 00
	00 00		 mov	 DWORD PTR [eax+12], OFFSET FLAT:??_7CSkinMgrV1@@6BILayoutChangeObserver@@@
  00248	c7 45 fc 06 00
	00 00		 mov	 DWORD PTR __$EHRec$[ebp+8], 6

; 48   : 
; 49   : 	/*if( NULL != mp_mainSkinWnd ) delete mp_mainSkinWnd;
; 50   : 	if( NULL != mp_skinWnd)        delete mp_skinWnd;
; 51   : 	if( NULL != mp_tabCtrol)       delete mp_tabCtrol;
; 52   : 	if( NULL != mp_colorWnd )      delete mp_colorWnd;
; 53   : 	if( NULL != mp_CloseBotton )   delete mp_CloseBotton;*/
; 54   : 	if( mp_downloadSkin )

  0024f	8b 4d f0	 mov	 ecx, DWORD PTR _this$[ebp]
  00252	83 79 20 00	 cmp	 DWORD PTR [ecx+32], 0
  00256	74 41		 je	 SHORT $L191910

; 55   : 	{
; 56   : 		delete mp_downloadSkin;

  00258	8b 55 f0	 mov	 edx, DWORD PTR _this$[ebp]
  0025b	8b 42 20	 mov	 eax, DWORD PTR [edx+32]
  0025e	89 45 e8	 mov	 DWORD PTR $T194764[ebp], eax
  00261	8b 4d e8	 mov	 ecx, DWORD PTR $T194764[ebp]
  00264	89 4d ec	 mov	 DWORD PTR $T194763[ebp], ecx
  00267	83 7d ec 00	 cmp	 DWORD PTR $T194763[ebp], 0
  0026b	74 1b		 je	 SHORT $L194765
  0026d	8b f4		 mov	 esi, esp
  0026f	6a 01		 push	 1
  00271	8b 55 ec	 mov	 edx, DWORD PTR $T194763[ebp]
  00274	8b 02		 mov	 eax, DWORD PTR [edx]
  00276	8b 4d ec	 mov	 ecx, DWORD PTR $T194763[ebp]
  00279	ff 50 04	 call	 DWORD PTR [eax+4]
  0027c	3b f4		 cmp	 esi, esp
  0027e	e8 00 00 00 00	 call	 __RTC_CheckEsp
  00283	89 45 dc	 mov	 DWORD PTR tv136[ebp], eax
  00286	eb 07		 jmp	 SHORT $L194766
$L194765:
  00288	c7 45 dc 00 00
	00 00		 mov	 DWORD PTR tv136[ebp], 0
$L194766:

; 57   : 		mp_downloadSkin = NULL;

  0028f	8b 4d f0	 mov	 ecx, DWORD PTR _this$[ebp]
  00292	c7 41 20 00 00
	00 00		 mov	 DWORD PTR [ecx+32], 0
$L191910:

; 58   : 	}
; 59   : 	if( mp_downloadSubject )

  00299	8b 55 f0	 mov	 edx, DWORD PTR _this$[ebp]
  0029c	83 7a 24 00	 cmp	 DWORD PTR [edx+36], 0
  002a0	74 41		 je	 SHORT $L191913

; 60   : 	{
; 61   : 		delete mp_downloadSubject;

  002a2	8b 45 f0	 mov	 eax, DWORD PTR _this$[ebp]
  002a5	8b 48 24	 mov	 ecx, DWORD PTR [eax+36]
  002a8	89 4d e0	 mov	 DWORD PTR $T194768[ebp], ecx
  002ab	8b 55 e0	 mov	 edx, DWORD PTR $T194768[ebp]
  002ae	89 55 e4	 mov	 DWORD PTR $T194767[ebp], edx
  002b1	83 7d e4 00	 cmp	 DWORD PTR $T194767[ebp], 0
  002b5	74 1b		 je	 SHORT $L194769
  002b7	8b f4		 mov	 esi, esp
  002b9	6a 01		 push	 1
  002bb	8b 45 e4	 mov	 eax, DWORD PTR $T194767[ebp]
  002be	8b 10		 mov	 edx, DWORD PTR [eax]
  002c0	8b 4d e4	 mov	 ecx, DWORD PTR $T194767[ebp]
  002c3	ff 52 04	 call	 DWORD PTR [edx+4]
  002c6	3b f4		 cmp	 esi, esp
  002c8	e8 00 00 00 00	 call	 __RTC_CheckEsp
  002cd	89 45 d8	 mov	 DWORD PTR tv147[ebp], eax
  002d0	eb 07		 jmp	 SHORT $L194770
$L194769:
  002d2	c7 45 d8 00 00
	00 00		 mov	 DWORD PTR tv147[ebp], 0
$L194770:

; 62   : 		mp_downloadSubject = NULL;

  002d9	8b 45 f0	 mov	 eax, DWORD PTR _this$[ebp]
  002dc	c7 40 24 00 00
	00 00		 mov	 DWORD PTR [eax+36], 0
$L191913:

; 63   : 	}
; 64   : 
; 65   : 	DeleteCriticalSection( &m_csDownInfo );

  002e3	8b 4d f0	 mov	 ecx, DWORD PTR _this$[ebp]
  002e6	83 c1 68	 add	 ecx, 104		; 00000068H
  002e9	8b f4		 mov	 esi, esp
  002eb	51		 push	 ecx
  002ec	ff 15 00 00 00
	00		 call	 DWORD PTR __imp__DeleteCriticalSection@4
  002f2	3b f4		 cmp	 esi, esp
  002f4	e8 00 00 00 00	 call	 __RTC_CheckEsp

; 66   : 	AfxGetMessageManager()->DetachMessage( ID_MESSAGE_LAYOUTMGR,(ILayoutChangeObserver*)this);

  002f9	83 7d f0 00	 cmp	 DWORD PTR _this$[ebp], 0
  002fd	74 0b		 je	 SHORT $L194771
  002ff	8b 55 f0	 mov	 edx, DWORD PTR _this$[ebp]
  00302	83 c2 0c	 add	 edx, 12			; 0000000cH
  00305	89 55 d4	 mov	 DWORD PTR tv158[ebp], edx
  00308	eb 07		 jmp	 SHORT $L194772
$L194771:
  0030a	c7 45 d4 00 00
	00 00		 mov	 DWORD PTR tv158[ebp], 0
$L194772:
  00311	e8 00 00 00 00	 call	 ?AfxGetMessageManager@@YAPAVIMessageManager@@XZ ; AfxGetMessageManager
  00316	89 45 d0	 mov	 DWORD PTR tv153[ebp], eax
  00319	8b f4		 mov	 esi, esp
  0031b	8b 45 d4	 mov	 eax, DWORD PTR tv158[ebp]
  0031e	50		 push	 eax
  0031f	68 00 00 00 00	 push	 OFFSET FLAT:_ID_MESSAGE_LAYOUTMGR
  00324	8b 4d d0	 mov	 ecx, DWORD PTR tv153[ebp]
  00327	8b 11		 mov	 edx, DWORD PTR [ecx]
  00329	8b 4d d0	 mov	 ecx, DWORD PTR tv153[ebp]
  0032c	ff 52 08	 call	 DWORD PTR [edx+8]
  0032f	3b f4		 cmp	 esi, esp
  00331	e8 00 00 00 00	 call	 __RTC_CheckEsp

; 67   : }

  00336	c6 45 fc 05	 mov	 BYTE PTR __$EHRec$[ebp+8], 5
  0033a	8b 4d f0	 mov	 ecx, DWORD PTR _this$[ebp]
  0033d	83 c1 60	 add	 ecx, 96			; 00000060H
  00340	8b f4		 mov	 esi, esp
  00342	ff 15 00 00 00
	00		 call	 DWORD PTR __imp_??1?$CStringT@DV?$StrTraitMFC_DLL@DV?$ChTraitsCRT@D@ATL@@@@@ATL@@QAE@XZ
  00348	3b f4		 cmp	 esi, esp
  0034a	e8 00 00 00 00	 call	 __RTC_CheckEsp
  0034f	c6 45 fc 04	 mov	 BYTE PTR __$EHRec$[ebp+8], 4
  00353	8b 4d f0	 mov	 ecx, DWORD PTR _this$[ebp]
  00356	83 c1 5c	 add	 ecx, 92			; 0000005cH
  00359	8b f4		 mov	 esi, esp
  0035b	ff 15 00 00 00
	00		 call	 DWORD PTR __imp_??1?$CStringT@DV?$StrTraitMFC_DLL@DV?$ChTraitsCRT@D@ATL@@@@@ATL@@QAE@XZ
  00361	3b f4		 cmp	 esi, esp
  00363	e8 00 00 00 00	 call	 __RTC_CheckEsp
  00368	c6 45 fc 03	 mov	 BYTE PTR __$EHRec$[ebp+8], 3
  0036c	8b 4d f0	 mov	 ecx, DWORD PTR _this$[ebp]
  0036f	83 c1 58	 add	 ecx, 88			; 00000058H
  00372	8b f4		 mov	 esi, esp
  00374	ff 15 00 00 00
	00		 call	 DWORD PTR __imp_??1?$CStringT@DV?$StrTraitMFC_DLL@DV?$ChTraitsCRT@D@ATL@@@@@ATL@@QAE@XZ
  0037a	3b f4		 cmp	 esi, esp
  0037c	e8 00 00 00 00	 call	 __RTC_CheckEsp
  00381	c6 45 fc 02	 mov	 BYTE PTR __$EHRec$[ebp+8], 2
  00385	8b 4d f0	 mov	 ecx, DWORD PTR _this$[ebp]
  00388	83 c1 38	 add	 ecx, 56			; 00000038H
  0038b	e8 00 00 00 00	 call	 ??1?$vector@PAVIChangeSkinEventListener@@V?$allocator@PAVIChangeSkinEventListener@@@std@@@std@@QAE@XZ ; std::vector<IChangeSkinEventListener *,std::allocator<IChangeSkinEventListener *> >::~vector<IChangeSkinEventListener *,std::allocator<IChangeSkinEventListener *> >
  00390	c6 45 fc 01	 mov	 BYTE PTR __$EHRec$[ebp+8], 1
  00394	8b 4d f0	 mov	 ecx, DWORD PTR _this$[ebp]
  00397	83 c1 34	 add	 ecx, 52			; 00000034H
  0039a	8b f4		 mov	 esi, esp
  0039c	ff 15 00 00 00
	00		 call	 DWORD PTR __imp_??1?$CStringT@DV?$StrTraitMFC_DLL@DV?$ChTraitsCRT@D@ATL@@@@@ATL@@QAE@XZ
  003a2	3b f4		 cmp	 esi, esp
  003a4	e8 00 00 00 00	 call	 __RTC_CheckEsp
  003a9	c6 45 fc 00	 mov	 BYTE PTR __$EHRec$[ebp+8], 0
  003ad	83 7d f0 00	 cmp	 DWORD PTR _this$[ebp], 0
  003b1	74 0b		 je	 SHORT $L194761
  003b3	8b 45 f0	 mov	 eax, DWORD PTR _this$[ebp]
  003b6	83 c0 0c	 add	 eax, 12			; 0000000cH
  003b9	89 45 cc	 mov	 DWORD PTR tv73[ebp], eax
  003bc	eb 07		 jmp	 SHORT $L194762
$L194761:
  003be	c7 45 cc 00 00
	00 00		 mov	 DWORD PTR tv73[ebp], 0
$L194762:
  003c5	8b 4d cc	 mov	 ecx, DWORD PTR tv73[ebp]
  003c8	e8 00 00 00 00	 call	 ??1ILayoutChangeObserver@@UAE@XZ
  003cd	c7 45 fc ff ff
	ff ff		 mov	 DWORD PTR __$EHRec$[ebp+8], -1
  003d4	83 7d f0 00	 cmp	 DWORD PTR _this$[ebp], 0
  003d8	74 0b		 je	 SHORT $L194759
  003da	8b 4d f0	 mov	 ecx, DWORD PTR _this$[ebp]
  003dd	83 c1 08	 add	 ecx, 8
  003e0	89 4d c8	 mov	 DWORD PTR tv69[ebp], ecx
  003e3	eb 07		 jmp	 SHORT $L194760
$L194759:
  003e5	c7 45 c8 00 00
	00 00		 mov	 DWORD PTR tv69[ebp], 0
$L194760:
  003ec	8b 4d c8	 mov	 ecx, DWORD PTR tv69[ebp]
  003ef	e8 00 00 00 00	 call	 ??1P2PObserver@@UAE@XZ	; P2PObserver::~P2PObserver
  003f4	8b 4d f4	 mov	 ecx, DWORD PTR __$EHRec$[ebp]
  003f7	64 89 0d 00 00
	00 00		 mov	 DWORD PTR fs:__except_list, ecx
  003fe	5f		 pop	 edi
  003ff	5e		 pop	 esi
  00400	83 c4 38	 add	 esp, 56			; 00000038H
  00403	3b ec		 cmp	 ebp, esp
  00405	e8 00 00 00 00	 call	 __RTC_CheckEsp
  0040a	8b e5		 mov	 esp, ebp
  0040c	5d		 pop	 ebp
  0040d	c3		 ret	 0
_TEXT	ENDS
text$x	SEGMENT
$L194775:
  0007f	83 7d f0 00	 cmp	 DWORD PTR _this$[ebp], 0
  00083	0f 84 0e 00 00
	00		 je	 $L194773
  00089	8b 45 f0	 mov	 eax, DWORD PTR _this$[ebp]
  0008c	83 c0 08	 add	 eax, 8
  0008f	89 45 c8	 mov	 DWORD PTR tv69[ebp], eax
  00092	e9 07 00 00 00	 jmp	 $L194774
$L194773:
  00097	c7 45 c8 00 00
	00 00		 mov	 DWORD PTR tv69[ebp], 0
$L194774:
  0009e	8b 4d c8	 mov	 ecx, DWORD PTR tv69[ebp]
  000a1	e9 00 00 00 00	 jmp	 ??1P2PObserver@@UAE@XZ	; P2PObserver::~P2PObserver
$L194778:
  000a6	83 7d f0 00	 cmp	 DWORD PTR _this$[ebp], 0
  000aa	0f 84 0e 00 00
	00		 je	 $L194776
  000b0	8b 45 f0	 mov	 eax, DWORD PTR _this$[ebp]
  000b3	83 c0 0c	 add	 eax, 12			; 0000000cH
  000b6	89 45 cc	 mov	 DWORD PTR tv73[ebp], eax
  000b9	e9 07 00 00 00	 jmp	 $L194777
$L194776:
  000be	c7 45 cc 00 00
	00 00		 mov	 DWORD PTR tv73[ebp], 0
$L194777:
  000c5	8b 4d cc	 mov	 ecx, DWORD PTR tv73[ebp]
  000c8	e9 00 00 00 00	 jmp	 ??1ILayoutChangeObserver@@UAE@XZ
$L194779:
  000cd	8b 4d f0	 mov	 ecx, DWORD PTR _this$[ebp]
  000d0	83 c1 34	 add	 ecx, 52			; 00000034H
  000d3	8b f4		 mov	 esi, esp
  000d5	ff 15 00 00 00
	00		 call	 DWORD PTR __imp_??1?$CStringT@DV?$StrTraitMFC_DLL@DV?$ChTraitsCRT@D@ATL@@@@@ATL@@QAE@XZ
  000db	3b f4		 cmp	 esi, esp
  000dd	e9 00 00 00 00	 jmp	 __RTC_CheckEsp
$L194780:
  000e2	8b 4d f0	 mov	 ecx, DWORD PTR _this$[ebp]
  000e5	83 c1 38	 add	 ecx, 56			; 00000038H
  000e8	e9 00 00 00 00	 jmp	 ??1?$vector@PAVIChangeSkinEventListener@@V?$allocator@PAVIChangeSkinEventListener@@@std@@@std@@QAE@XZ ; std::vector<IChangeSkinEventListener *,std::allocator<IChangeSkinEventListener *> >::~vector<IChangeSkinEventListener *,std::allocator<IChangeSkinEventListener *> >
$L194781:
  000ed	8b 4d f0	 mov	 ecx, DWORD PTR _this$[ebp]
  000f0	83 c1 58	 add	 ecx, 88			; 00000058H
  000f3	8b f4		 mov	 esi, esp
  000f5	ff 15 00 00 00
	00		 call	 DWORD PTR __imp_??1?$CStringT@DV?$StrTraitMFC_DLL@DV?$ChTraitsCRT@D@ATL@@@@@ATL@@QAE@XZ
  000fb	3b f4		 cmp	 esi, esp
  000fd	e9 00 00 00 00	 jmp	 __RTC_CheckEsp
$L194782:
  00102	8b 4d f0	 mov	 ecx, DWORD PTR _this$[ebp]
  00105	83 c1 5c	 add	 ecx, 92			; 0000005cH
  00108	8b f4		 mov	 esi, esp
  0010a	ff 15 00 00 00
	00		 call	 DWORD PTR __imp_??1?$CStringT@DV?$StrTraitMFC_DLL@DV?$ChTraitsCRT@D@ATL@@@@@ATL@@QAE@XZ
  00110	3b f4		 cmp	 esi, esp
  00112	e9 00 00 00 00	 jmp	 __RTC_CheckEsp
$L194783:
  00117	8b 4d f0	 mov	 ecx, DWORD PTR _this$[ebp]
  0011a	83 c1 60	 add	 ecx, 96			; 00000060H
  0011d	8b f4		 mov	 esi, esp
  0011f	ff 15 00 00 00
	00		 call	 DWORD PTR __imp_??1?$CStringT@DV?$StrTraitMFC_DLL@DV?$ChTraitsCRT@D@ATL@@@@@ATL@@QAE@XZ
  00125	3b f4		 cmp	 esi, esp
  00127	e9 00 00 00 00	 jmp	 __RTC_CheckEsp
__ehhandler$??1CSkinMgrV1@@UAE@XZ:
  0012c	b8 00 00 00 00	 mov	 eax, OFFSET FLAT:$T194785
  00131	e9 00 00 00 00	 jmp	 ___CxxFrameHandler
text$x	ENDS
??1CSkinMgrV1@@UAE@XZ ENDP				; CSkinMgrV1::~CSkinMgrV1
PUBLIC	?GetObjectA@CSkinMgrV1@@SAPAVIChangeColorMgr@@XZ ; CSkinMgrV1::GetObjectA
EXTRN	??2@YAPAXI@Z:NEAR				; operator new
xdata$x	SEGMENT
$T194797 DD	0ffffffffH
	DD	FLAT:$L194793
$T194795 DD	019930520H
	DD	01H
	DD	FLAT:$T194797
	DD	2 DUP(00H)
	DD	2 DUP(00H)
; Function compile flags: /Odt /RTCsu
xdata$x	ENDS
_TEXT	SEGMENT
tv72 = -24						; size = 4
$T194790 = -20						; size = 4
$T194789 = -16						; size = 4
__$EHRec$ = -12						; size = 12
?GetObjectA@CSkinMgrV1@@SAPAVIChangeColorMgr@@XZ PROC NEAR ; CSkinMgrV1::GetObjectA

; 69   : {

  00410	55		 push	 ebp
  00411	8b ec		 mov	 ebp, esp
  00413	6a ff		 push	 -1
  00415	68 00 00 00 00	 push	 __ehhandler$?GetObjectA@CSkinMgrV1@@SAPAVIChangeColorMgr@@XZ
  0041a	64 a1 00 00 00
	00		 mov	 eax, DWORD PTR fs:__except_list
  00420	50		 push	 eax
  00421	64 89 25 00 00
	00 00		 mov	 DWORD PTR fs:__except_list, esp
  00428	83 ec 0c	 sub	 esp, 12			; 0000000cH
  0042b	c7 45 e8 cc cc
	cc cc		 mov	 DWORD PTR [ebp-24], -858993460 ; ccccccccH
  00432	c7 45 ec cc cc
	cc cc		 mov	 DWORD PTR [ebp-20], -858993460 ; ccccccccH
  00439	c7 45 f0 cc cc
	cc cc		 mov	 DWORD PTR [ebp-16], -858993460 ; ccccccccH

; 70   : 	if( NULL == mp_IsHadObject )

  00440	83 3d 00 00 00
	00 00		 cmp	 DWORD PTR ?mp_IsHadObject@CSkinMgrV1@@0PAVIChangeColorMgr@@A, 0 ; CSkinMgrV1::mp_IsHadObject
  00447	75 47		 jne	 SHORT $L191919

; 71   : 	{
; 72   : 		mp_IsHadObject = new CSkinMgrV1();

  00449	68 84 00 00 00	 push	 132			; 00000084H
  0044e	e8 00 00 00 00	 call	 ??2@YAPAXI@Z		; operator new
  00453	83 c4 04	 add	 esp, 4
  00456	89 45 ec	 mov	 DWORD PTR $T194790[ebp], eax
  00459	c7 45 fc 00 00
	00 00		 mov	 DWORD PTR __$EHRec$[ebp+8], 0
  00460	83 7d ec 00	 cmp	 DWORD PTR $T194790[ebp], 0
  00464	74 0d		 je	 SHORT $L194791
  00466	8b 4d ec	 mov	 ecx, DWORD PTR $T194790[ebp]
  00469	e8 00 00 00 00	 call	 ??0CSkinMgrV1@@QAE@XZ	; CSkinMgrV1::CSkinMgrV1
  0046e	89 45 e8	 mov	 DWORD PTR tv72[ebp], eax
  00471	eb 07		 jmp	 SHORT $L194792
$L194791:
  00473	c7 45 e8 00 00
	00 00		 mov	 DWORD PTR tv72[ebp], 0
$L194792:
  0047a	8b 45 e8	 mov	 eax, DWORD PTR tv72[ebp]
  0047d	89 45 f0	 mov	 DWORD PTR $T194789[ebp], eax
  00480	c7 45 fc ff ff
	ff ff		 mov	 DWORD PTR __$EHRec$[ebp+8], -1
  00487	8b 4d f0	 mov	 ecx, DWORD PTR $T194789[ebp]
  0048a	89 0d 00 00 00
	00		 mov	 DWORD PTR ?mp_IsHadObject@CSkinMgrV1@@0PAVIChangeColorMgr@@A, ecx ; CSkinMgrV1::mp_IsHadObject
$L191919:

; 73   : 	}
; 74   : 	return mp_IsHadObject;

  00490	a1 00 00 00 00	 mov	 eax, DWORD PTR ?mp_IsHadObject@CSkinMgrV1@@0PAVIChangeColorMgr@@A ; CSkinMgrV1::mp_IsHadObject

; 75   : }

  00495	8b 4d f4	 mov	 ecx, DWORD PTR __$EHRec$[ebp]
  00498	64 89 0d 00 00
	00 00		 mov	 DWORD PTR fs:__except_list, ecx
  0049f	83 c4 18	 add	 esp, 24			; 00000018H
  004a2	3b ec		 cmp	 ebp, esp
  004a4	e8 00 00 00 00	 call	 __RTC_CheckEsp
  004a9	8b e5		 mov	 esp, ebp
  004ab	5d		 pop	 ebp
  004ac	c3		 ret	 0
_TEXT	ENDS
text$x	SEGMENT
$L194793:
  00136	8b 45 ec	 mov	 eax, DWORD PTR $T194790[ebp]
  00139	50		 push	 eax
  0013a	e8 00 00 00 00	 call	 ??3@YAXPAX@Z		; operator delete
  0013f	59		 pop	 ecx
  00140	c3		 ret	 0
__ehhandler$?GetObjectA@CSkinMgrV1@@SAPAVIChangeColorMgr@@XZ:
  00141	b8 00 00 00 00	 mov	 eax, OFFSET FLAT:$T194795
  00146	e9 00 00 00 00	 jmp	 ___CxxFrameHandler
text$x	ENDS
?GetObjectA@CSkinMgrV1@@SAPAVIChangeColorMgr@@XZ ENDP	; CSkinMgrV1::GetObjectA
EXTRN	?CloseWindows@CMainSkinWnd@@QAEXXZ:NEAR		; CMainSkinWnd::CloseWindows
; Function compile flags: /Odt /RTCsu
_TEXT	SEGMENT
_this$ = -4						; size = 4
?OnClose@CSkinMgrV1@@UAEXXZ PROC NEAR			; CSkinMgrV1::OnClose
; _this$ = ecx

; 78   : {

  004b0	55		 push	 ebp
  004b1	8b ec		 mov	 ebp, esp
  004b3	51		 push	 ecx
  004b4	c7 45 fc cc cc
	cc cc		 mov	 DWORD PTR [ebp-4], -858993460 ; ccccccccH
  004bb	89 4d fc	 mov	 DWORD PTR _this$[ebp], ecx

; 79   : 	if(mb_HasPopWnd)

  004be	8b 45 fc	 mov	 eax, DWORD PTR _this$[ebp]
  004c1	0f b6 48 48	 movzx	 ecx, BYTE PTR [eax+72]
  004c5	85 c9		 test	 ecx, ecx
  004c7	74 1c		 je	 SHORT $L191926

; 80   : 	{
; 81   : 		mp_mainSkinWnd->CloseWindows();

  004c9	8b 55 fc	 mov	 edx, DWORD PTR _this$[ebp]
  004cc	8b 4a 10	 mov	 ecx, DWORD PTR [edx+16]
  004cf	e8 00 00 00 00	 call	 ?CloseWindows@CMainSkinWnd@@QAEXXZ ; CMainSkinWnd::CloseWindows

; 82   : 		mb_HasPopWnd = FALSE;

  004d4	8b 45 fc	 mov	 eax, DWORD PTR _this$[ebp]
  004d7	c6 40 48 00	 mov	 BYTE PTR [eax+72], 0

; 83   : 		mp_mainSkinWnd = NULL;

  004db	8b 4d fc	 mov	 ecx, DWORD PTR _this$[ebp]
  004de	c7 41 10 00 00
	00 00		 mov	 DWORD PTR [ecx+16], 0
$L191926:

; 84   : 	}
; 85   : }

  004e5	83 c4 04	 add	 esp, 4
  004e8	3b ec		 cmp	 ebp, esp
  004ea	e8 00 00 00 00	 call	 __RTC_CheckEsp
  004ef	8b e5		 mov	 esp, ebp
  004f1	5d		 pop	 ebp
  004f2	c3		 ret	 0
?OnClose@CSkinMgrV1@@UAEXXZ ENDP			; CSkinMgrV1::OnClose
_TEXT	ENDS
PUBLIC	?GetSkinWndRect@CSkinMgrV1@@QAEXABUtagPOINT@@AAVCRect@@@Z ; CSkinMgrV1::GetSkinWndRect
EXTRN	?AfxGetUIManager@@YAPAVIUIManager@@XZ:NEAR	; AfxGetUIManager
EXTRN	__imp__GetSystemMetrics@4:NEAR
; Function compile flags: /Odt /RTCsu
_TEXT	SEGMENT
tv92 = -28						; size = 4
tv87 = -24						; size = 4
tv71 = -20						; size = 4
tv66 = -16						; size = 4
_lnScreenHight$ = -12					; size = 4
_lnScreenWidth$ = -8					; size = 4
_this$ = -4						; size = 4
_aPoint$ = 8						; size = 4
_lrect$ = 12						; size = 4
?GetSkinWndRect@CSkinMgrV1@@QAEXABUtagPOINT@@AAVCRect@@@Z PROC NEAR ; CSkinMgrV1::GetSkinWndRect
; _this$ = ecx

; 88   : {	

  00500	55		 push	 ebp
  00501	8b ec		 mov	 ebp, esp
  00503	83 ec 1c	 sub	 esp, 28			; 0000001cH
  00506	56		 push	 esi
  00507	b8 cc cc cc cc	 mov	 eax, -858993460		; ccccccccH
  0050c	89 45 e4	 mov	 DWORD PTR [ebp-28], eax
  0050f	89 45 e8	 mov	 DWORD PTR [ebp-24], eax
  00512	89 45 ec	 mov	 DWORD PTR [ebp-20], eax
  00515	89 45 f0	 mov	 DWORD PTR [ebp-16], eax
  00518	89 45 f4	 mov	 DWORD PTR [ebp-12], eax
  0051b	89 45 f8	 mov	 DWORD PTR [ebp-8], eax
  0051e	89 45 fc	 mov	 DWORD PTR [ebp-4], eax
  00521	89 4d fc	 mov	 DWORD PTR _this$[ebp], ecx

; 89   : 	if(AfxGetUIManager()->UIGetLayoutMgr()->GetDisplayMode() == DISPLAY_SEPERATE_MODE)

  00524	e8 00 00 00 00	 call	 ?AfxGetUIManager@@YAPAVIUIManager@@XZ ; AfxGetUIManager
  00529	89 45 f0	 mov	 DWORD PTR tv66[ebp], eax
  0052c	8b 45 f0	 mov	 eax, DWORD PTR tv66[ebp]
  0052f	8b 10		 mov	 edx, DWORD PTR [eax]
  00531	8b f4		 mov	 esi, esp
  00533	8b 4d f0	 mov	 ecx, DWORD PTR tv66[ebp]
  00536	ff 52 24	 call	 DWORD PTR [edx+36]
  00539	3b f4		 cmp	 esi, esp
  0053b	e8 00 00 00 00	 call	 __RTC_CheckEsp
  00540	89 45 ec	 mov	 DWORD PTR tv71[ebp], eax
  00543	8b 45 ec	 mov	 eax, DWORD PTR tv71[ebp]
  00546	8b 10		 mov	 edx, DWORD PTR [eax]
  00548	8b f4		 mov	 esi, esp
  0054a	8b 4d ec	 mov	 ecx, DWORD PTR tv71[ebp]
  0054d	ff 52 7c	 call	 DWORD PTR [edx+124]
  00550	3b f4		 cmp	 esi, esp
  00552	e8 00 00 00 00	 call	 __RTC_CheckEsp
  00557	85 c0		 test	 eax, eax
  00559	75 10		 jne	 SHORT $L191933

; 90   : 		mp_mainSkinWnd->m_hight = 211;

  0055b	8b 45 fc	 mov	 eax, DWORD PTR _this$[ebp]
  0055e	8b 48 10	 mov	 ecx, DWORD PTR [eax+16]
  00561	c7 81 d4 00 00
	00 d3 00 00 00	 mov	 DWORD PTR [ecx+212], 211 ; 000000d3H
$L191933:

; 91   : 
; 92   : 	lrect.top    = aPoint.y;

  0056b	8b 55 0c	 mov	 edx, DWORD PTR _lrect$[ebp]
  0056e	8b 45 08	 mov	 eax, DWORD PTR _aPoint$[ebp]
  00571	8b 48 04	 mov	 ecx, DWORD PTR [eax+4]
  00574	89 4a 04	 mov	 DWORD PTR [edx+4], ecx

; 93   : 	lrect.bottom = lrect.top + mp_mainSkinWnd->m_hight;

  00577	8b 55 fc	 mov	 edx, DWORD PTR _this$[ebp]
  0057a	8b 42 10	 mov	 eax, DWORD PTR [edx+16]
  0057d	8b 4d 0c	 mov	 ecx, DWORD PTR _lrect$[ebp]
  00580	8b 51 04	 mov	 edx, DWORD PTR [ecx+4]
  00583	03 90 d4 00 00
	00		 add	 edx, DWORD PTR [eax+212]
  00589	8b 45 0c	 mov	 eax, DWORD PTR _lrect$[ebp]
  0058c	89 50 0c	 mov	 DWORD PTR [eax+12], edx

; 94   : 	lrect.left   = aPoint.x;

  0058f	8b 4d 0c	 mov	 ecx, DWORD PTR _lrect$[ebp]
  00592	8b 55 08	 mov	 edx, DWORD PTR _aPoint$[ebp]
  00595	8b 02		 mov	 eax, DWORD PTR [edx]
  00597	89 01		 mov	 DWORD PTR [ecx], eax

; 95   : 	if(AfxGetUIManager()->UIGetLayoutMgr()->GetDisplayMode() == DISPLAY_SEPERATE_MODE)

  00599	e8 00 00 00 00	 call	 ?AfxGetUIManager@@YAPAVIUIManager@@XZ ; AfxGetUIManager
  0059e	89 45 e8	 mov	 DWORD PTR tv87[ebp], eax
  005a1	8b 4d e8	 mov	 ecx, DWORD PTR tv87[ebp]
  005a4	8b 11		 mov	 edx, DWORD PTR [ecx]
  005a6	8b f4		 mov	 esi, esp
  005a8	8b 4d e8	 mov	 ecx, DWORD PTR tv87[ebp]
  005ab	ff 52 24	 call	 DWORD PTR [edx+36]
  005ae	3b f4		 cmp	 esi, esp
  005b0	e8 00 00 00 00	 call	 __RTC_CheckEsp
  005b5	89 45 e4	 mov	 DWORD PTR tv92[ebp], eax
  005b8	8b 45 e4	 mov	 eax, DWORD PTR tv92[ebp]
  005bb	8b 10		 mov	 edx, DWORD PTR [eax]
  005bd	8b f4		 mov	 esi, esp
  005bf	8b 4d e4	 mov	 ecx, DWORD PTR tv92[ebp]
  005c2	ff 52 7c	 call	 DWORD PTR [edx+124]
  005c5	3b f4		 cmp	 esi, esp
  005c7	e8 00 00 00 00	 call	 __RTC_CheckEsp
  005cc	85 c0		 test	 eax, eax
  005ce	75 10		 jne	 SHORT $L191934

; 96   : 		mp_mainSkinWnd->m_width = 240;

  005d0	8b 45 fc	 mov	 eax, DWORD PTR _this$[ebp]
  005d3	8b 48 10	 mov	 ecx, DWORD PTR [eax+16]
  005d6	c7 81 d8 00 00
	00 f0 00 00 00	 mov	 DWORD PTR [ecx+216], 240 ; 000000f0H
$L191934:

; 97   : 	lrect.right  = lrect.left +mp_mainSkinWnd->m_width;

  005e0	8b 55 fc	 mov	 edx, DWORD PTR _this$[ebp]
  005e3	8b 42 10	 mov	 eax, DWORD PTR [edx+16]
  005e6	8b 4d 0c	 mov	 ecx, DWORD PTR _lrect$[ebp]
  005e9	8b 11		 mov	 edx, DWORD PTR [ecx]
  005eb	03 90 d8 00 00
	00		 add	 edx, DWORD PTR [eax+216]
  005f1	8b 45 0c	 mov	 eax, DWORD PTR _lrect$[ebp]
  005f4	89 50 08	 mov	 DWORD PTR [eax+8], edx

; 98   : 
; 99   : 	int lnScreenWidth = ::GetSystemMetrics(SM_CXSCREEN);

  005f7	8b f4		 mov	 esi, esp
  005f9	6a 00		 push	 0
  005fb	ff 15 00 00 00
	00		 call	 DWORD PTR __imp__GetSystemMetrics@4
  00601	3b f4		 cmp	 esi, esp
  00603	e8 00 00 00 00	 call	 __RTC_CheckEsp
  00608	89 45 f8	 mov	 DWORD PTR _lnScreenWidth$[ebp], eax

; 100  : 	int lnScreenHight = ::GetSystemMetrics(SM_CYSCREEN);

  0060b	8b f4		 mov	 esi, esp
  0060d	6a 01		 push	 1
  0060f	ff 15 00 00 00
	00		 call	 DWORD PTR __imp__GetSystemMetrics@4
  00615	3b f4		 cmp	 esi, esp
  00617	e8 00 00 00 00	 call	 __RTC_CheckEsp
  0061c	89 45 f4	 mov	 DWORD PTR _lnScreenHight$[ebp], eax

; 101  : 
; 102  : 	if( lnScreenWidth < (int)(mp_mainSkinWnd->m_width + aPoint.x) )

  0061f	8b 4d fc	 mov	 ecx, DWORD PTR _this$[ebp]
  00622	8b 51 10	 mov	 edx, DWORD PTR [ecx+16]
  00625	8b 82 d8 00 00
	00		 mov	 eax, DWORD PTR [edx+216]
  0062b	8b 4d 08	 mov	 ecx, DWORD PTR _aPoint$[ebp]
  0062e	03 01		 add	 eax, DWORD PTR [ecx]
  00630	39 45 f8	 cmp	 DWORD PTR _lnScreenWidth$[ebp], eax
  00633	7d 21		 jge	 SHORT $L191938

; 103  : 	{
; 104  : 		lrect.left   =    aPoint.x - mp_mainSkinWnd->m_width;

  00635	8b 55 fc	 mov	 edx, DWORD PTR _this$[ebp]
  00638	8b 42 10	 mov	 eax, DWORD PTR [edx+16]
  0063b	8b 4d 08	 mov	 ecx, DWORD PTR _aPoint$[ebp]
  0063e	8b 11		 mov	 edx, DWORD PTR [ecx]
  00640	2b 90 d8 00 00
	00		 sub	 edx, DWORD PTR [eax+216]
  00646	8b 45 0c	 mov	 eax, DWORD PTR _lrect$[ebp]
  00649	89 10		 mov	 DWORD PTR [eax], edx

; 105  : 		lrect.right  =    aPoint.x;

  0064b	8b 4d 0c	 mov	 ecx, DWORD PTR _lrect$[ebp]
  0064e	8b 55 08	 mov	 edx, DWORD PTR _aPoint$[ebp]
  00651	8b 02		 mov	 eax, DWORD PTR [edx]
  00653	89 41 08	 mov	 DWORD PTR [ecx+8], eax
$L191938:

; 106  : 	}
; 107  : 	if( lnScreenHight < (int)mp_mainSkinWnd->m_hight + aPoint.y )

  00656	8b 4d fc	 mov	 ecx, DWORD PTR _this$[ebp]
  00659	8b 51 10	 mov	 edx, DWORD PTR [ecx+16]
  0065c	8b 82 d4 00 00
	00		 mov	 eax, DWORD PTR [edx+212]
  00662	8b 4d 08	 mov	 ecx, DWORD PTR _aPoint$[ebp]
  00665	03 41 04	 add	 eax, DWORD PTR [ecx+4]
  00668	39 45 f4	 cmp	 DWORD PTR _lnScreenHight$[ebp], eax
  0066b	7d 24		 jge	 SHORT $L191932

; 108  : 	{
; 109  : 		lrect.top =     aPoint.y - mp_mainSkinWnd->m_hight;

  0066d	8b 55 fc	 mov	 edx, DWORD PTR _this$[ebp]
  00670	8b 42 10	 mov	 eax, DWORD PTR [edx+16]
  00673	8b 4d 08	 mov	 ecx, DWORD PTR _aPoint$[ebp]
  00676	8b 51 04	 mov	 edx, DWORD PTR [ecx+4]
  00679	2b 90 d4 00 00
	00		 sub	 edx, DWORD PTR [eax+212]
  0067f	8b 45 0c	 mov	 eax, DWORD PTR _lrect$[ebp]
  00682	89 50 04	 mov	 DWORD PTR [eax+4], edx

; 110  : 		lrect.bottom =  aPoint.y;

  00685	8b 4d 0c	 mov	 ecx, DWORD PTR _lrect$[ebp]
  00688	8b 55 08	 mov	 edx, DWORD PTR _aPoint$[ebp]
  0068b	8b 42 04	 mov	 eax, DWORD PTR [edx+4]
  0068e	89 41 0c	 mov	 DWORD PTR [ecx+12], eax
$L191932:

; 111  : 	}
; 112  : }

  00691	5e		 pop	 esi
  00692	83 c4 1c	 add	 esp, 28			; 0000001cH
  00695	3b ec		 cmp	 ebp, esp
  00697	e8 00 00 00 00	 call	 __RTC_CheckEsp
  0069c	8b e5		 mov	 esp, ebp
  0069e	5d		 pop	 ebp
  0069f	c2 08 00	 ret	 8
?GetSkinWndRect@CSkinMgrV1@@QAEXABUtagPOINT@@AAVCRect@@@Z ENDP ; CSkinMgrV1::GetSkinWndRect
_TEXT	ENDS
PUBLIC	??HATL@@YA?AV?$CStringT@DV?$StrTraitMFC_DLL@DV?$ChTraitsCRT@D@ATL@@@@@0@ABV10@PBD@Z ; ATL::operator+
PUBLIC	?SetSendEventListener@CSkinWnd@@QAEXPAVIEventListener@@@Z ; CSkinWnd::SetSendEventListener
PUBLIC	?SetSendEventListener@CSubjectChildWnd@@QAEXPAVIEventListener@@@Z ; CSubjectChildWnd::SetSendEventListener
PUBLIC	?SetListener@CMainSkinWnd@@QAEXPAVIEventListener@@@Z ; CMainSkinWnd::SetListener
PUBLIC	?SetWndListener@CMainSkinWnd@@QAEXPAVIWndEventListener@@@Z ; CMainSkinWnd::SetWndListener
PUBLIC	?size@?$vector@UOneSubject@@V?$allocator@UOneSubject@@@std@@@std@@QBEIXZ ; std::vector<OneSubject,std::allocator<OneSubject> >::size
PUBLIC	??A?$vector@UOneSubject@@V?$allocator@UOneSubject@@@std@@@std@@QAEAAUOneSubject@@I@Z ; std::vector<OneSubject,std::allocator<OneSubject> >::operator[]
EXTRN	??0CDownloadPercentWnd@@QAE@XZ:NEAR		; CDownloadPercentWnd::CDownloadPercentWnd
EXTRN	?InitScrollBar@CSkinWnd@@QAEXXZ:NEAR		; CSkinWnd::InitScrollBar
EXTRN	?StopDownWebSubThread@CDownSub@@SAXXZ:NEAR	; CDownSub::StopDownWebSubThread
EXTRN	?ShowWindow@CSkinWnd@@QAEXH@Z:NEAR		; CSkinWnd::ShowWindow
EXTRN	__imp__SetWindowPos@28:NEAR
EXTRN	?InitScrollBar@CSubjectChildWnd@@QAEXXZ:NEAR	; CSubjectChildWnd::InitScrollBar
EXTRN	?SetTipText@CSubjectChildWnd@@QAEXV?$CStringT@DV?$StrTraitMFC_DLL@DV?$ChTraitsCRT@D@ATL@@@@@ATL@@00@Z:NEAR ; CSubjectChildWnd::SetTipText
EXTRN	??0CRect@@QAE@XZ:NEAR				; CRect::CRect
EXTRN	??0CRect@@QAE@HHHH@Z:NEAR			; CRect::CRect
EXTRN	__imp__GetClientRect@8:NEAR
EXTRN	?SetRect@CRect@@QAEXHHHH@Z:NEAR			; CRect::SetRect
EXTRN	??2CObject@@SGPAXI@Z:NEAR			; CObject::operator new
EXTRN	??3CObject@@SGXPAX@Z:NEAR			; CObject::operator delete
EXTRN	?Navigate@CWebSubWnd@@QAEXXZ:NEAR		; CWebSubWnd::Navigate
EXTRN	?MoveWindow@CWnd@@QAEXPBUtagRECT@@H@Z:NEAR	; CWnd::MoveWindow
EXTRN	__imp_??B?$CSimpleStringT@D$00@ATL@@QBEPBDXZ:NEAR
EXTRN	?ShowWindow@CWnd@@QAEHH@Z:NEAR			; CWnd::ShowWindow
EXTRN	?RedrawWindow@CWnd@@QAEHPBUtagRECT@@PAVCRgn@@I@Z:NEAR ; CWnd::RedrawWindow
EXTRN	?ShowColorBtn@CMainSkinWnd@@QAEXH@Z:NEAR	; CMainSkinWnd::ShowColorBtn
EXTRN	?AfxRegisterWndClass@@YGPBDIPAUHICON__@@PAUHBRUSH__@@0@Z:NEAR ; AfxRegisterWndClass
EXTRN	?SetCheckBtn@CMainSkinWnd@@QAEXH@Z:NEAR		; CMainSkinWnd::SetCheckBtn
EXTRN	__imp_?c_str@?$basic_string@DU?$char_traits@D@std@@V?$allocator@D@2@@std@@QBEPBDXZ:NEAR
EXTRN	__imp_??0?$CStringT@DV?$StrTraitMFC_DLL@DV?$ChTraitsCRT@D@ATL@@@@@ATL@@QAE@ABV01@@Z:NEAR
EXTRN	__imp_??0?$CStringT@DV?$StrTraitMFC_DLL@DV?$ChTraitsCRT@D@ATL@@@@@ATL@@QAE@PBD@Z:NEAR
EXTRN	?ShowWindow@CSubjectChildWnd@@QAEXH@Z:NEAR	; CSubjectChildWnd::ShowWindow
EXTRN	__imp__LoadCursorA@8:NEAR
xdata$x	SEGMENT
$T194858 DD	0ffffffffH
	DD	FLAT:$L194829
	DD	00H
	DD	FLAT:$L194830
	DD	01H
	DD	FLAT:$L194831
	DD	0ffffffffH
	DD	FLAT:$L194831
	DD	03H
	DD	FLAT:$L194830
	DD	03H
	DD	FLAT:$L194832
	DD	05H
	DD	FLAT:$L194833
	DD	0ffffffffH
	DD	FLAT:$L194835
	DD	07H
	DD	FLAT:$L194836
	DD	08H
	DD	FLAT:$L194837
	DD	0ffffffffH
	DD	FLAT:$L194837
	DD	0aH
	DD	FLAT:$L194836
	DD	0aH
	DD	FLAT:$L194838
	DD	0cH
	DD	FLAT:$L194839
	DD	0ffffffffH
	DD	FLAT:$L194841
	DD	0ffffffffH
	DD	FLAT:$L194842
	DD	0ffffffffH
	DD	FLAT:$L194843
	DD	0ffffffffH
	DD	FLAT:$L194844
$T194846 DD	019930520H
	DD	012H
	DD	FLAT:$T194858
	DD	2 DUP(00H)
	DD	2 DUP(00H)
; Function compile flags: /Odt /RTCsu
xdata$x	ENDS
_TEXT	SEGMENT
tv648 = -428						; size = 4
tv571 = -424						; size = 4
tv566 = -420						; size = 4
tv511 = -416						; size = 4
tv439 = -412						; size = 4
tv706 = -408						; size = 4
tv703 = -404						; size = 4
tv734 = -400						; size = 4
tv700 = -396						; size = 4
tv731 = -392						; size = 4
tv697 = -388						; size = 4
tv727 = -384						; size = 4
tv695 = -380						; size = 4
tv724 = -376						; size = 4
tv693 = -372						; size = 4
tv690 = -368						; size = 4
tv721 = -364						; size = 4
tv687 = -360						; size = 4
tv718 = -356						; size = 4
tv684 = -352						; size = 4
tv714 = -348						; size = 4
tv682 = -344						; size = 4
tv711 = -340						; size = 4
tv286 = -336						; size = 4
tv281 = -332						; size = 4
tv240 = -328						; size = 4
tv201 = -324						; size = 4
tv147 = -320						; size = 4
tv71 = -316						; size = 4
tv66 = -312						; size = 4
$T194826 = -308						; size = 4
$T194825 = -304						; size = 4
$T194824 = -300						; size = 16
$T194821 = -284						; size = 4
$T194820 = -280						; size = 4
$T194819 = -276						; size = 4
$T194818 = -272						; size = 4
$T194817 = -268						; size = 4
$T194816 = -264						; size = 4
$T194815 = -260						; size = 4
$T194814 = -256						; size = 4
$T194813 = -252						; size = 4
$T194812 = -248						; size = 4
$T194811 = -244						; size = 4
$T194810 = -240						; size = 4
$T194809 = -236						; size = 16
$T194806 = -220						; size = 16
$T194803 = -204						; size = 16
_ClassName$192020 = -184				; size = 4
_ClassName$192004 = -172				; size = 4
_lClient$ = -160					; size = 16
_lrect$191995 = -136					; size = 16
_tips$191978 = -112					; size = 4
_tips$191968 = -100					; size = 4
_oneSub$191966 = -92					; size = 4
_idx$191962 = -88					; size = 4
_pSub$191961 = -84					; size = 4
_sub_wnd_h$191955 = -80					; size = 4
_sub_wnd_w$191954 = -76					; size = 4
_lClient$191953 = -68					; size = 16
_lrect$191952 = -44					; size = 16
_bSepMode$ = -24					; size = 4
_lbReturn$ = -20					; size = 4
_this$ = -16						; size = 4
__$EHRec$ = -12						; size = 12
_apParent$ = 8						; size = 4
_anID$ = 12						; size = 4
_aPoint$ = 16						; size = 8
?PopSkinWnd@CSkinMgrV1@@UAEHPAVCWnd@@IUtagPOINT@@@Z PROC NEAR ; CSkinMgrV1::PopSkinWnd
; _this$ = ecx

; 115  : {

  006b0	55		 push	 ebp
  006b1	8b ec		 mov	 ebp, esp
  006b3	6a ff		 push	 -1
  006b5	68 00 00 00 00	 push	 __ehhandler$?PopSkinWnd@CSkinMgrV1@@UAEHPAVCWnd@@IUtagPOINT@@@Z
  006ba	64 a1 00 00 00
	00		 mov	 eax, DWORD PTR fs:__except_list
  006c0	50		 push	 eax
  006c1	64 89 25 00 00
	00 00		 mov	 DWORD PTR fs:__except_list, esp
  006c8	81 ec a0 01 00
	00		 sub	 esp, 416		; 000001a0H
  006ce	56		 push	 esi
  006cf	57		 push	 edi
  006d0	51		 push	 ecx
  006d1	8d bd 54 fe ff
	ff		 lea	 edi, DWORD PTR [ebp-428]
  006d7	b9 68 00 00 00	 mov	 ecx, 104		; 00000068H
  006dc	b8 cc cc cc cc	 mov	 eax, -858993460		; ccccccccH
  006e1	f3 ab		 rep stosd
  006e3	59		 pop	 ecx
  006e4	89 4d f0	 mov	 DWORD PTR _this$[ebp], ecx

; 116  : 	BOOL lbReturn = false;

  006e7	c7 45 ec 00 00
	00 00		 mov	 DWORD PTR _lbReturn$[ebp], 0

; 117  : 	BOOL bSepMode = false;

  006ee	c7 45 e8 00 00
	00 00		 mov	 DWORD PTR _bSepMode$[ebp], 0

; 118  : 	if(AfxGetUIManager()->UIGetLayoutMgr()->GetDisplayMode() == DISPLAY_SEPERATE_MODE)

  006f5	e8 00 00 00 00	 call	 ?AfxGetUIManager@@YAPAVIUIManager@@XZ ; AfxGetUIManager
  006fa	89 85 c8 fe ff
	ff		 mov	 DWORD PTR tv66[ebp], eax
  00700	8b 85 c8 fe ff
	ff		 mov	 eax, DWORD PTR tv66[ebp]
  00706	8b 10		 mov	 edx, DWORD PTR [eax]
  00708	8b f4		 mov	 esi, esp
  0070a	8b 8d c8 fe ff
	ff		 mov	 ecx, DWORD PTR tv66[ebp]
  00710	ff 52 24	 call	 DWORD PTR [edx+36]
  00713	3b f4		 cmp	 esi, esp
  00715	e8 00 00 00 00	 call	 __RTC_CheckEsp
  0071a	89 85 c4 fe ff
	ff		 mov	 DWORD PTR tv71[ebp], eax
  00720	8b 85 c4 fe ff
	ff		 mov	 eax, DWORD PTR tv71[ebp]
  00726	8b 10		 mov	 edx, DWORD PTR [eax]
  00728	8b f4		 mov	 esi, esp
  0072a	8b 8d c4 fe ff
	ff		 mov	 ecx, DWORD PTR tv71[ebp]
  00730	ff 52 7c	 call	 DWORD PTR [edx+124]
  00733	3b f4		 cmp	 esi, esp
  00735	e8 00 00 00 00	 call	 __RTC_CheckEsp
  0073a	85 c0		 test	 eax, eax
  0073c	75 14		 jne	 SHORT $L191949

; 119  : 	{
; 120  : 		bSepMode = true;

  0073e	c7 45 e8 01 00
	00 00		 mov	 DWORD PTR _bSepMode$[ebp], 1

; 121  : 		m_iCheckTab = 1;

  00745	8b 45 f0	 mov	 eax, DWORD PTR _this$[ebp]
  00748	c7 80 80 00 00
	00 01 00 00 00	 mov	 DWORD PTR [eax+128], 1
$L191949:

; 122  : 	}
; 123  : 
; 124  : 	if(!mb_HasPopWnd)

  00752	8b 4d f0	 mov	 ecx, DWORD PTR _this$[ebp]
  00755	0f b6 51 48	 movzx	 edx, BYTE PTR [ecx+72]
  00759	85 d2		 test	 edx, edx
  0075b	0f 85 51 07 00
	00		 jne	 $L191950

; 125  : 	{
; 126  : 		if(mb_isDownWebSub)

  00761	8b 45 f0	 mov	 eax, DWORD PTR _this$[ebp]
  00764	0f b6 48 4b	 movzx	 ecx, BYTE PTR [eax+75]
  00768	85 c9		 test	 ecx, ecx
  0076a	74 13		 je	 SHORT $L191951

; 127  : 		{
; 128  : 			CDownSub::StopDownWebSubThread();

  0076c	e8 00 00 00 00	 call	 ?StopDownWebSubThread@CDownSub@@SAXXZ ; CDownSub::StopDownWebSubThread

; 129  : 			mb_isDownWebSub = false;

  00771	8b 55 f0	 mov	 edx, DWORD PTR _this$[ebp]
  00774	c6 42 4b 00	 mov	 BYTE PTR [edx+75], 0

; 130  : 			mb_isDownSubject = false;

  00778	8b 45 f0	 mov	 eax, DWORD PTR _this$[ebp]
  0077b	c6 40 4a 00	 mov	 BYTE PTR [eax+74], 0
$L191951:

; 131  : 		}
; 132  : 
; 133  : 		CRect lrect;

  0077f	8d 4d d4	 lea	 ecx, DWORD PTR _lrect$191952[ebp]
  00782	e8 00 00 00 00	 call	 ??0CRect@@QAE@XZ	; CRect::CRect

; 134  : 		GetSkinWndRect( aPoint,lrect );

  00787	8d 4d d4	 lea	 ecx, DWORD PTR _lrect$191952[ebp]
  0078a	51		 push	 ecx
  0078b	8d 55 10	 lea	 edx, DWORD PTR _aPoint$[ebp]
  0078e	52		 push	 edx
  0078f	8b 4d f0	 mov	 ecx, DWORD PTR _this$[ebp]
  00792	e8 00 00 00 00	 call	 ?GetSkinWndRect@CSkinMgrV1@@QAEXABUtagPOINT@@AAVCRect@@@Z ; CSkinMgrV1::GetSkinWndRect

; 135  : 		// main win
; 136  : 		lbReturn = mp_mainSkinWnd->Create( NULL, NULL, NULL , lrect, apParent);

  00797	8b f4		 mov	 esi, esp
  00799	6a 00		 push	 0
  0079b	6a 00		 push	 0
  0079d	6a 00		 push	 0
  0079f	8b 45 08	 mov	 eax, DWORD PTR _apParent$[ebp]
  007a2	50		 push	 eax
  007a3	8d 4d d4	 lea	 ecx, DWORD PTR _lrect$191952[ebp]
  007a6	51		 push	 ecx
  007a7	6a 00		 push	 0
  007a9	6a 00		 push	 0
  007ab	6a 00		 push	 0
  007ad	8b 55 f0	 mov	 edx, DWORD PTR _this$[ebp]
  007b0	8b 42 10	 mov	 eax, DWORD PTR [edx+16]
  007b3	8b 4d f0	 mov	 ecx, DWORD PTR _this$[ebp]
  007b6	8b 49 10	 mov	 ecx, DWORD PTR [ecx+16]
  007b9	8b 10		 mov	 edx, DWORD PTR [eax]
  007bb	ff 92 38 01 00
	00		 call	 DWORD PTR [edx+312]
  007c1	3b f4		 cmp	 esi, esp
  007c3	e8 00 00 00 00	 call	 __RTC_CheckEsp
  007c8	89 45 ec	 mov	 DWORD PTR _lbReturn$[ebp], eax

; 137  : 		mp_mainSkinWnd->SetCheckBtn(m_iCheckTab);

  007cb	8b 45 f0	 mov	 eax, DWORD PTR _this$[ebp]
  007ce	8b 88 80 00 00
	00		 mov	 ecx, DWORD PTR [eax+128]
  007d4	51		 push	 ecx
  007d5	8b 55 f0	 mov	 edx, DWORD PTR _this$[ebp]
  007d8	8b 4a 10	 mov	 ecx, DWORD PTR [edx+16]
  007db	e8 00 00 00 00	 call	 ?SetCheckBtn@CMainSkinWnd@@QAEXH@Z ; CMainSkinWnd::SetCheckBtn

; 138  : 		mp_mainSkinWnd->SetListener(this);

  007e0	83 7d f0 00	 cmp	 DWORD PTR _this$[ebp], 0
  007e4	74 0e		 je	 SHORT $L194801
  007e6	8b 45 f0	 mov	 eax, DWORD PTR _this$[ebp]
  007e9	83 c0 04	 add	 eax, 4
  007ec	89 85 c0 fe ff
	ff		 mov	 DWORD PTR tv147[ebp], eax
  007f2	eb 0a		 jmp	 SHORT $L194802
$L194801:
  007f4	c7 85 c0 fe ff
	ff 00 00 00 00	 mov	 DWORD PTR tv147[ebp], 0
$L194802:
  007fe	8b 8d c0 fe ff
	ff		 mov	 ecx, DWORD PTR tv147[ebp]
  00804	51		 push	 ecx
  00805	8b 55 f0	 mov	 edx, DWORD PTR _this$[ebp]
  00808	8b 4a 10	 mov	 ecx, DWORD PTR [edx+16]
  0080b	e8 00 00 00 00	 call	 ?SetListener@CMainSkinWnd@@QAEXPAVIEventListener@@@Z ; CMainSkinWnd::SetListener

; 139  : 		mp_mainSkinWnd->SetWndListener(this);

  00810	8b 45 f0	 mov	 eax, DWORD PTR _this$[ebp]
  00813	50		 push	 eax
  00814	8b 4d f0	 mov	 ecx, DWORD PTR _this$[ebp]
  00817	8b 49 10	 mov	 ecx, DWORD PTR [ecx+16]
  0081a	e8 00 00 00 00	 call	 ?SetWndListener@CMainSkinWnd@@QAEXPAVIWndEventListener@@@Z ; CMainSkinWnd::SetWndListener

; 140  : 
; 141  : 		mp_mainSkinWnd->ShowWindow(SW_SHOW);

  0081f	6a 05		 push	 5
  00821	8b 55 f0	 mov	 edx, DWORD PTR _this$[ebp]
  00824	8b 4a 10	 mov	 ecx, DWORD PTR [edx+16]
  00827	e8 00 00 00 00	 call	 ?ShowWindow@CWnd@@QAEHH@Z ; CWnd::ShowWindow

; 142  : 		mp_mainSkinWnd->RedrawWindow(NULL, NULL, RDW_INVALIDATE | RDW_UPDATENOW | RDW_ERASE | RDW_ALLCHILDREN);

  0082c	68 85 01 00 00	 push	 389			; 00000185H
  00831	6a 00		 push	 0
  00833	6a 00		 push	 0
  00835	8b 45 f0	 mov	 eax, DWORD PTR _this$[ebp]
  00838	8b 48 10	 mov	 ecx, DWORD PTR [eax+16]
  0083b	e8 00 00 00 00	 call	 ?RedrawWindow@CWnd@@QAEHPBUtagRECT@@PAVCRgn@@I@Z ; CWnd::RedrawWindow

; 143  : 		RECT lClient;
; 144  : 		GetClientRect(mp_mainSkinWnd->m_hWnd, &lClient);

  00840	8b f4		 mov	 esi, esp
  00842	8d 4d bc	 lea	 ecx, DWORD PTR _lClient$191953[ebp]
  00845	51		 push	 ecx
  00846	8b 55 f0	 mov	 edx, DWORD PTR _this$[ebp]
  00849	8b 42 10	 mov	 eax, DWORD PTR [edx+16]
  0084c	8b 48 20	 mov	 ecx, DWORD PTR [eax+32]
  0084f	51		 push	 ecx
  00850	ff 15 00 00 00
	00		 call	 DWORD PTR __imp__GetClientRect@8
  00856	3b f4		 cmp	 esi, esp
  00858	e8 00 00 00 00	 call	 __RTC_CheckEsp

; 145  : 		
; 146  : 		int sub_wnd_w,sub_wnd_h;
; 147  : 		if(bSepMode)

  0085d	83 7d e8 00	 cmp	 DWORD PTR _bSepMode$[ebp], 0
  00861	74 10		 je	 SHORT $L191956

; 148  : 		{
; 149  : 			sub_wnd_w = 234;

  00863	c7 45 b4 ea 00
	00 00		 mov	 DWORD PTR _sub_wnd_w$191954[ebp], 234 ; 000000eaH

; 150  : 			sub_wnd_h = 132;

  0086a	c7 45 b0 84 00
	00 00		 mov	 DWORD PTR _sub_wnd_h$191955[ebp], 132 ; 00000084H

; 151  : 		}
; 152  : 		else

  00871	eb 0e		 jmp	 SHORT $L191957
$L191956:

; 153  : 		{
; 154  : 			sub_wnd_w = SUB_WND_WIDTH;

  00873	c7 45 b4 27 01
	00 00		 mov	 DWORD PTR _sub_wnd_w$191954[ebp], 295 ; 00000127H

; 155  : 			sub_wnd_h = SUB_WND_HEIGHT;

  0087a	c7 45 b0 cf 00
	00 00		 mov	 DWORD PTR _sub_wnd_h$191955[ebp], 207 ; 000000cfH
$L191957:

; 156  : 		}
; 157  : 
; 158  : 
; 159  : 		// skin win
; 160  : 		lbReturn =  mp_skinWnd->Create(NULL,NULL, WS_VISIBLE|WS_CHILD,CRect(3,27,3+sub_wnd_w,sub_wnd_h+27),mp_mainSkinWnd);

  00881	8b f4		 mov	 esi, esp
  00883	6a 00		 push	 0
  00885	6a 00		 push	 0
  00887	6a 00		 push	 0
  00889	8b 55 f0	 mov	 edx, DWORD PTR _this$[ebp]
  0088c	8b 42 10	 mov	 eax, DWORD PTR [edx+16]
  0088f	50		 push	 eax
  00890	8b 4d b0	 mov	 ecx, DWORD PTR _sub_wnd_h$191955[ebp]
  00893	83 c1 1b	 add	 ecx, 27			; 0000001bH
  00896	51		 push	 ecx
  00897	8b 55 b4	 mov	 edx, DWORD PTR _sub_wnd_w$191954[ebp]
  0089a	83 c2 03	 add	 edx, 3
  0089d	52		 push	 edx
  0089e	6a 1b		 push	 27			; 0000001bH
  008a0	6a 03		 push	 3
  008a2	8d 8d 34 ff ff
	ff		 lea	 ecx, DWORD PTR $T194803[ebp]
  008a8	e8 00 00 00 00	 call	 ??0CRect@@QAE@HHHH@Z	; CRect::CRect
  008ad	50		 push	 eax
  008ae	68 00 00 00 50	 push	 1342177280		; 50000000H
  008b3	6a 00		 push	 0
  008b5	6a 00		 push	 0
  008b7	8b 45 f0	 mov	 eax, DWORD PTR _this$[ebp]
  008ba	8b 48 14	 mov	 ecx, DWORD PTR [eax+20]
  008bd	8b 55 f0	 mov	 edx, DWORD PTR _this$[ebp]
  008c0	8b 42 14	 mov	 eax, DWORD PTR [edx+20]
  008c3	8b 11		 mov	 edx, DWORD PTR [ecx]
  008c5	8b c8		 mov	 ecx, eax
  008c7	ff 92 38 01 00
	00		 call	 DWORD PTR [edx+312]
  008cd	3b f4		 cmp	 esi, esp
  008cf	e8 00 00 00 00	 call	 __RTC_CheckEsp
  008d4	89 45 ec	 mov	 DWORD PTR _lbReturn$[ebp], eax

; 161  : 		mp_skinWnd->InitScrollBar(); 

  008d7	8b 45 f0	 mov	 eax, DWORD PTR _this$[ebp]
  008da	8b 48 14	 mov	 ecx, DWORD PTR [eax+20]
  008dd	e8 00 00 00 00	 call	 ?InitScrollBar@CSkinWnd@@QAEXXZ ; CSkinWnd::InitScrollBar

; 162  : 		mp_skinWnd->SetSendEventListener(this);	

  008e2	83 7d f0 00	 cmp	 DWORD PTR _this$[ebp], 0
  008e6	74 0e		 je	 SHORT $L194804
  008e8	8b 4d f0	 mov	 ecx, DWORD PTR _this$[ebp]
  008eb	83 c1 04	 add	 ecx, 4
  008ee	89 8d bc fe ff
	ff		 mov	 DWORD PTR tv201[ebp], ecx
  008f4	eb 0a		 jmp	 SHORT $L194805
$L194804:
  008f6	c7 85 bc fe ff
	ff 00 00 00 00	 mov	 DWORD PTR tv201[ebp], 0
$L194805:
  00900	8b 95 bc fe ff
	ff		 mov	 edx, DWORD PTR tv201[ebp]
  00906	52		 push	 edx
  00907	8b 45 f0	 mov	 eax, DWORD PTR _this$[ebp]
  0090a	8b 48 14	 mov	 ecx, DWORD PTR [eax+20]
  0090d	e8 00 00 00 00	 call	 ?SetSendEventListener@CSkinWnd@@QAEXPAVIEventListener@@@Z ; CSkinWnd::SetSendEventListener

; 163  : 		mp_skinWnd->ShowWindow(bSepMode); 

  00912	8b 4d e8	 mov	 ecx, DWORD PTR _bSepMode$[ebp]
  00915	51		 push	 ecx
  00916	8b 55 f0	 mov	 edx, DWORD PTR _this$[ebp]
  00919	8b 4a 14	 mov	 ecx, DWORD PTR [edx+20]
  0091c	e8 00 00 00 00	 call	 ?ShowWindow@CSkinWnd@@QAEXH@Z ; CSkinWnd::ShowWindow

; 164  : 
; 165  : 		// subject win
; 166  : 		lbReturn =  mp_SubjectWnd->Create(NULL,NULL, WS_VISIBLE|WS_CHILD,CRect(3,27,3+sub_wnd_w,sub_wnd_h+27),mp_mainSkinWnd);

  00921	8b f4		 mov	 esi, esp
  00923	6a 00		 push	 0
  00925	6a 00		 push	 0
  00927	6a 00		 push	 0
  00929	8b 45 f0	 mov	 eax, DWORD PTR _this$[ebp]
  0092c	8b 48 10	 mov	 ecx, DWORD PTR [eax+16]
  0092f	51		 push	 ecx
  00930	8b 55 b0	 mov	 edx, DWORD PTR _sub_wnd_h$191955[ebp]
  00933	83 c2 1b	 add	 edx, 27			; 0000001bH
  00936	52		 push	 edx
  00937	8b 45 b4	 mov	 eax, DWORD PTR _sub_wnd_w$191954[ebp]
  0093a	83 c0 03	 add	 eax, 3
  0093d	50		 push	 eax
  0093e	6a 1b		 push	 27			; 0000001bH
  00940	6a 03		 push	 3
  00942	8d 8d 24 ff ff
	ff		 lea	 ecx, DWORD PTR $T194806[ebp]
  00948	e8 00 00 00 00	 call	 ??0CRect@@QAE@HHHH@Z	; CRect::CRect
  0094d	50		 push	 eax
  0094e	68 00 00 00 50	 push	 1342177280		; 50000000H
  00953	6a 00		 push	 0
  00955	6a 00		 push	 0
  00957	8b 4d f0	 mov	 ecx, DWORD PTR _this$[ebp]
  0095a	8b 51 18	 mov	 edx, DWORD PTR [ecx+24]
  0095d	8b 45 f0	 mov	 eax, DWORD PTR _this$[ebp]
  00960	8b 48 18	 mov	 ecx, DWORD PTR [eax+24]
  00963	8b 12		 mov	 edx, DWORD PTR [edx]
  00965	ff 92 38 01 00
	00		 call	 DWORD PTR [edx+312]
  0096b	3b f4		 cmp	 esi, esp
  0096d	e8 00 00 00 00	 call	 __RTC_CheckEsp
  00972	89 45 ec	 mov	 DWORD PTR _lbReturn$[ebp], eax

; 167  : 		mp_SubjectWnd->InitScrollBar(); 

  00975	8b 45 f0	 mov	 eax, DWORD PTR _this$[ebp]
  00978	8b 48 18	 mov	 ecx, DWORD PTR [eax+24]
  0097b	e8 00 00 00 00	 call	 ?InitScrollBar@CSubjectChildWnd@@QAEXXZ ; CSubjectChildWnd::InitScrollBar

; 168  : 		mp_SubjectWnd->SetSendEventListener(this);

  00980	83 7d f0 00	 cmp	 DWORD PTR _this$[ebp], 0
  00984	74 0e		 je	 SHORT $L194807
  00986	8b 4d f0	 mov	 ecx, DWORD PTR _this$[ebp]
  00989	83 c1 04	 add	 ecx, 4
  0098c	89 8d b8 fe ff
	ff		 mov	 DWORD PTR tv240[ebp], ecx
  00992	eb 0a		 jmp	 SHORT $L194808
$L194807:
  00994	c7 85 b8 fe ff
	ff 00 00 00 00	 mov	 DWORD PTR tv240[ebp], 0
$L194808:
  0099e	8b 95 b8 fe ff
	ff		 mov	 edx, DWORD PTR tv240[ebp]
  009a4	52		 push	 edx
  009a5	8b 45 f0	 mov	 eax, DWORD PTR _this$[ebp]
  009a8	8b 48 18	 mov	 ecx, DWORD PTR [eax+24]
  009ab	e8 00 00 00 00	 call	 ?SetSendEventListener@CSubjectChildWnd@@QAEXPAVIEventListener@@@Z ; CSubjectChildWnd::SetSendEventListener

; 169  : 		mp_SubjectWnd->ShowWindow(SW_HIDE); 

  009b0	6a 00		 push	 0
  009b2	8b 4d f0	 mov	 ecx, DWORD PTR _this$[ebp]
  009b5	8b 49 18	 mov	 ecx, DWORD PTR [ecx+24]
  009b8	e8 00 00 00 00	 call	 ?ShowWindow@CSubjectChildWnd@@QAEXH@Z ; CSubjectChildWnd::ShowWindow

; 170  : 
; 171  : 		//web subject win
; 172  : 		lbReturn =  mp_WebSubWnd->Create(NULL,NULL, WS_CHILD|WS_VISIBLE|WS_CLIPCHILDREN,CRect(3,27,sub_wnd_w+3,sub_wnd_h+27),mp_mainSkinWnd,ID_WND_WEBSUBJECT);

  009bd	8b f4		 mov	 esi, esp
  009bf	6a 00		 push	 0
  009c1	68 38 27 00 00	 push	 10040			; 00002738H
  009c6	8b 55 f0	 mov	 edx, DWORD PTR _this$[ebp]
  009c9	8b 42 10	 mov	 eax, DWORD PTR [edx+16]
  009cc	50		 push	 eax
  009cd	8b 4d b0	 mov	 ecx, DWORD PTR _sub_wnd_h$191955[ebp]
  009d0	83 c1 1b	 add	 ecx, 27			; 0000001bH
  009d3	51		 push	 ecx
  009d4	8b 55 b4	 mov	 edx, DWORD PTR _sub_wnd_w$191954[ebp]
  009d7	83 c2 03	 add	 edx, 3
  009da	52		 push	 edx
  009db	6a 1b		 push	 27			; 0000001bH
  009dd	6a 03		 push	 3
  009df	8d 8d 14 ff ff
	ff		 lea	 ecx, DWORD PTR $T194809[ebp]
  009e5	e8 00 00 00 00	 call	 ??0CRect@@QAE@HHHH@Z	; CRect::CRect
  009ea	50		 push	 eax
  009eb	68 00 00 00 52	 push	 1375731712		; 52000000H
  009f0	6a 00		 push	 0
  009f2	6a 00		 push	 0
  009f4	8b 45 f0	 mov	 eax, DWORD PTR _this$[ebp]
  009f7	8b 48 1c	 mov	 ecx, DWORD PTR [eax+28]
  009fa	8b 55 f0	 mov	 edx, DWORD PTR _this$[ebp]
  009fd	8b 42 1c	 mov	 eax, DWORD PTR [edx+28]
  00a00	8b 11		 mov	 edx, DWORD PTR [ecx]
  00a02	8b c8		 mov	 ecx, eax
  00a04	ff 52 5c	 call	 DWORD PTR [edx+92]
  00a07	3b f4		 cmp	 esi, esp
  00a09	e8 00 00 00 00	 call	 __RTC_CheckEsp
  00a0e	89 45 ec	 mov	 DWORD PTR _lbReturn$[ebp], eax

; 173  : 		mp_WebSubWnd->Navigate();

  00a11	8b 45 f0	 mov	 eax, DWORD PTR _this$[ebp]
  00a14	8b 48 1c	 mov	 ecx, DWORD PTR [eax+28]
  00a17	e8 00 00 00 00	 call	 ?Navigate@CWebSubWnd@@QAEXXZ ; CWebSubWnd::Navigate

; 174  : 		mp_WebSubWnd->ShowWindow(!bSepMode); 

  00a1c	33 c9		 xor	 ecx, ecx
  00a1e	83 7d e8 00	 cmp	 DWORD PTR _bSepMode$[ebp], 0
  00a22	0f 94 c1	 sete	 cl
  00a25	51		 push	 ecx
  00a26	8b 55 f0	 mov	 edx, DWORD PTR _this$[ebp]
  00a29	8b 4a 1c	 mov	 ecx, DWORD PTR [edx+28]
  00a2c	e8 00 00 00 00	 call	 ?ShowWindow@CWnd@@QAEHH@Z ; CWnd::ShowWindow

; 175  : 
; 176  : 		SubjectData*    pSub = AfxGetUIManager()->UIGetSkinMgr()->GetSubject();

  00a31	e8 00 00 00 00	 call	 ?AfxGetUIManager@@YAPAVIUIManager@@XZ ; AfxGetUIManager
  00a36	89 85 b4 fe ff
	ff		 mov	 DWORD PTR tv281[ebp], eax
  00a3c	8b 85 b4 fe ff
	ff		 mov	 eax, DWORD PTR tv281[ebp]
  00a42	8b 10		 mov	 edx, DWORD PTR [eax]
  00a44	8b f4		 mov	 esi, esp
  00a46	8b 8d b4 fe ff
	ff		 mov	 ecx, DWORD PTR tv281[ebp]
  00a4c	ff 52 28	 call	 DWORD PTR [edx+40]
  00a4f	3b f4		 cmp	 esi, esp
  00a51	e8 00 00 00 00	 call	 __RTC_CheckEsp
  00a56	89 85 b0 fe ff
	ff		 mov	 DWORD PTR tv286[ebp], eax
  00a5c	8b 85 b0 fe ff
	ff		 mov	 eax, DWORD PTR tv286[ebp]
  00a62	8b 10		 mov	 edx, DWORD PTR [eax]
  00a64	8b f4		 mov	 esi, esp
  00a66	8b 8d b0 fe ff
	ff		 mov	 ecx, DWORD PTR tv286[ebp]
  00a6c	ff 52 24	 call	 DWORD PTR [edx+36]
  00a6f	3b f4		 cmp	 esi, esp
  00a71	e8 00 00 00 00	 call	 __RTC_CheckEsp
  00a76	89 45 ac	 mov	 DWORD PTR _pSub$191961[ebp], eax

; 177  : 		for(size_t idx = 0 ;idx < pSub->vecSubject.size();idx++ )

  00a79	c7 45 a8 00 00
	00 00		 mov	 DWORD PTR _idx$191962[ebp], 0
  00a80	eb 09		 jmp	 SHORT $L191963
$L191964:
  00a82	8b 45 a8	 mov	 eax, DWORD PTR _idx$191962[ebp]
  00a85	83 c0 01	 add	 eax, 1
  00a88	89 45 a8	 mov	 DWORD PTR _idx$191962[ebp], eax
$L191963:
  00a8b	8b 4d ac	 mov	 ecx, DWORD PTR _pSub$191961[ebp]
  00a8e	83 c1 20	 add	 ecx, 32			; 00000020H
  00a91	e8 00 00 00 00	 call	 ?size@?$vector@UOneSubject@@V?$allocator@UOneSubject@@@std@@@std@@QBEIXZ ; std::vector<OneSubject,std::allocator<OneSubject> >::size
  00a96	39 45 a8	 cmp	 DWORD PTR _idx$191962[ebp], eax
  00a99	0f 83 4d 03 00
	00		 jae	 $L191965

; 178  : 		{
; 179  : 			OneSubject& oneSub = pSub->vecSubject[idx];			

  00a9f	8b 4d a8	 mov	 ecx, DWORD PTR _idx$191962[ebp]
  00aa2	51		 push	 ecx
  00aa3	8b 4d ac	 mov	 ecx, DWORD PTR _pSub$191961[ebp]
  00aa6	83 c1 20	 add	 ecx, 32			; 00000020H
  00aa9	e8 00 00 00 00	 call	 ??A?$vector@UOneSubject@@V?$allocator@UOneSubject@@@std@@@std@@QAEAAUOneSubject@@I@Z ; std::vector<OneSubject,std::allocator<OneSubject> >::operator[]
  00aae	89 45 a4	 mov	 DWORD PTR _oneSub$191966[ebp], eax

; 180  : 
; 181  : 			if( oneSub.bNeedDown )

  00ab1	8b 55 a4	 mov	 edx, DWORD PTR _oneSub$191966[ebp]
  00ab4	0f b6 42 6c	 movzx	 eax, BYTE PTR [edx+108]
  00ab8	85 c0		 test	 eax, eax
  00aba	0f 84 96 01 00
	00		 je	 $L191967

; 182  : 			{
; 183  : 				CString tips = CString(": ") + oneSub.strShowName.c_str() + "\r\n: ";

  00ac0	8b f4		 mov	 esi, esp
  00ac2	68 00 00 00 00	 push	 OFFSET FLAT:$SG191973
  00ac7	8d 8d 10 ff ff
	ff		 lea	 ecx, DWORD PTR $T194810[ebp]
  00acd	ff 15 00 00 00
	00		 call	 DWORD PTR __imp_??0?$CStringT@DV?$StrTraitMFC_DLL@DV?$ChTraitsCRT@D@ATL@@@@@ATL@@QAE@PBD@Z
  00ad3	3b f4		 cmp	 esi, esp
  00ad5	e8 00 00 00 00	 call	 __RTC_CheckEsp
  00ada	89 85 ac fe ff
	ff		 mov	 DWORD PTR tv711[ebp], eax
  00ae0	8b 8d ac fe ff
	ff		 mov	 ecx, DWORD PTR tv711[ebp]
  00ae6	89 8d a8 fe ff
	ff		 mov	 DWORD PTR tv682[ebp], ecx
  00aec	c7 45 fc 00 00
	00 00		 mov	 DWORD PTR __$EHRec$[ebp+8], 0
  00af3	8b 4d a4	 mov	 ecx, DWORD PTR _oneSub$191966[ebp]
  00af6	83 c1 38	 add	 ecx, 56			; 00000038H
  00af9	8b f4		 mov	 esi, esp
  00afb	ff 15 00 00 00
	00		 call	 DWORD PTR __imp_?c_str@?$basic_string@DU?$char_traits@D@std@@V?$allocator@D@2@@std@@QBEPBDXZ
  00b01	3b f4		 cmp	 esi, esp
  00b03	e8 00 00 00 00	 call	 __RTC_CheckEsp
  00b08	50		 push	 eax
  00b09	8b 95 a8 fe ff
	ff		 mov	 edx, DWORD PTR tv682[ebp]
  00b0f	52		 push	 edx
  00b10	8d 85 0c ff ff
	ff		 lea	 eax, DWORD PTR $T194811[ebp]
  00b16	50		 push	 eax
  00b17	e8 00 00 00 00	 call	 ??HATL@@YA?AV?$CStringT@DV?$StrTraitMFC_DLL@DV?$ChTraitsCRT@D@ATL@@@@@0@ABV10@PBD@Z ; ATL::operator+
  00b1c	83 c4 0c	 add	 esp, 12			; 0000000cH
  00b1f	89 85 a4 fe ff
	ff		 mov	 DWORD PTR tv714[ebp], eax
  00b25	8b 8d a4 fe ff
	ff		 mov	 ecx, DWORD PTR tv714[ebp]
  00b2b	89 8d a0 fe ff
	ff		 mov	 DWORD PTR tv684[ebp], ecx
  00b31	c6 45 fc 01	 mov	 BYTE PTR __$EHRec$[ebp+8], 1
  00b35	68 00 00 00 00	 push	 OFFSET FLAT:$SG191972
  00b3a	8b 95 a0 fe ff
	ff		 mov	 edx, DWORD PTR tv684[ebp]
  00b40	52		 push	 edx
  00b41	8d 45 9c	 lea	 eax, DWORD PTR _tips$191968[ebp]
  00b44	50		 push	 eax
  00b45	e8 00 00 00 00	 call	 ??HATL@@YA?AV?$CStringT@DV?$StrTraitMFC_DLL@DV?$ChTraitsCRT@D@ATL@@@@@0@ABV10@PBD@Z ; ATL::operator+
  00b4a	83 c4 0c	 add	 esp, 12			; 0000000cH
  00b4d	c6 45 fc 04	 mov	 BYTE PTR __$EHRec$[ebp+8], 4
  00b51	8b f4		 mov	 esi, esp
  00b53	8d 8d 0c ff ff
	ff		 lea	 ecx, DWORD PTR $T194811[ebp]
  00b59	ff 15 00 00 00
	00		 call	 DWORD PTR __imp_??1?$CStringT@DV?$StrTraitMFC_DLL@DV?$ChTraitsCRT@D@ATL@@@@@ATL@@QAE@XZ
  00b5f	3b f4		 cmp	 esi, esp
  00b61	e8 00 00 00 00	 call	 __RTC_CheckEsp
  00b66	c6 45 fc 03	 mov	 BYTE PTR __$EHRec$[ebp+8], 3
  00b6a	8b f4		 mov	 esi, esp
  00b6c	8d 8d 10 ff ff
	ff		 lea	 ecx, DWORD PTR $T194810[ebp]
  00b72	ff 15 00 00 00
	00		 call	 DWORD PTR __imp_??1?$CStringT@DV?$StrTraitMFC_DLL@DV?$ChTraitsCRT@D@ATL@@@@@ATL@@QAE@XZ
  00b78	3b f4		 cmp	 esi, esp
  00b7a	e8 00 00 00 00	 call	 __RTC_CheckEsp

; 184  : 				mp_SubjectWnd->SetTipText( oneSub.strSubName.c_str(),tips,oneSub.strShowName.c_str() );

  00b7f	8b 4d a4	 mov	 ecx, DWORD PTR _oneSub$191966[ebp]
  00b82	83 c1 38	 add	 ecx, 56			; 00000038H
  00b85	8b f4		 mov	 esi, esp
  00b87	ff 15 00 00 00
	00		 call	 DWORD PTR __imp_?c_str@?$basic_string@DU?$char_traits@D@std@@V?$allocator@D@2@@std@@QBEPBDXZ
  00b8d	3b f4		 cmp	 esi, esp
  00b8f	e8 00 00 00 00	 call	 __RTC_CheckEsp
  00b94	51		 push	 ecx
  00b95	8b cc		 mov	 ecx, esp
  00b97	89 a5 08 ff ff
	ff		 mov	 DWORD PTR $T194812[ebp], esp
  00b9d	8b f4		 mov	 esi, esp
  00b9f	50		 push	 eax
  00ba0	ff 15 00 00 00
	00		 call	 DWORD PTR __imp_??0?$CStringT@DV?$StrTraitMFC_DLL@DV?$ChTraitsCRT@D@ATL@@@@@ATL@@QAE@PBD@Z
  00ba6	3b f4		 cmp	 esi, esp
  00ba8	e8 00 00 00 00	 call	 __RTC_CheckEsp
  00bad	89 85 9c fe ff
	ff		 mov	 DWORD PTR tv718[ebp], eax
  00bb3	8b 8d 9c fe ff
	ff		 mov	 ecx, DWORD PTR tv718[ebp]
  00bb9	89 8d 98 fe ff
	ff		 mov	 DWORD PTR tv687[ebp], ecx
  00bbf	c6 45 fc 05	 mov	 BYTE PTR __$EHRec$[ebp+8], 5
  00bc3	51		 push	 ecx
  00bc4	8b cc		 mov	 ecx, esp
  00bc6	89 a5 04 ff ff
	ff		 mov	 DWORD PTR $T194813[ebp], esp
  00bcc	8b f4		 mov	 esi, esp
  00bce	8d 55 9c	 lea	 edx, DWORD PTR _tips$191968[ebp]
  00bd1	52		 push	 edx
  00bd2	ff 15 00 00 00
	00		 call	 DWORD PTR __imp_??0?$CStringT@DV?$StrTraitMFC_DLL@DV?$ChTraitsCRT@D@ATL@@@@@ATL@@QAE@ABV01@@Z
  00bd8	3b f4		 cmp	 esi, esp
  00bda	e8 00 00 00 00	 call	 __RTC_CheckEsp
  00bdf	89 85 94 fe ff
	ff		 mov	 DWORD PTR tv721[ebp], eax
  00be5	8b 85 94 fe ff
	ff		 mov	 eax, DWORD PTR tv721[ebp]
  00beb	89 85 90 fe ff
	ff		 mov	 DWORD PTR tv690[ebp], eax
  00bf1	c6 45 fc 06	 mov	 BYTE PTR __$EHRec$[ebp+8], 6
  00bf5	8b 4d a4	 mov	 ecx, DWORD PTR _oneSub$191966[ebp]
  00bf8	83 c1 1c	 add	 ecx, 28			; 0000001cH
  00bfb	8b f4		 mov	 esi, esp
  00bfd	ff 15 00 00 00
	00		 call	 DWORD PTR __imp_?c_str@?$basic_string@DU?$char_traits@D@std@@V?$allocator@D@2@@std@@QBEPBDXZ
  00c03	3b f4		 cmp	 esi, esp
  00c05	e8 00 00 00 00	 call	 __RTC_CheckEsp
  00c0a	51		 push	 ecx
  00c0b	8b cc		 mov	 ecx, esp
  00c0d	89 a5 00 ff ff
	ff		 mov	 DWORD PTR $T194814[ebp], esp
  00c13	8b f4		 mov	 esi, esp
  00c15	50		 push	 eax
  00c16	ff 15 00 00 00
	00		 call	 DWORD PTR __imp_??0?$CStringT@DV?$StrTraitMFC_DLL@DV?$ChTraitsCRT@D@ATL@@@@@ATL@@QAE@PBD@Z
  00c1c	3b f4		 cmp	 esi, esp
  00c1e	e8 00 00 00 00	 call	 __RTC_CheckEsp
  00c23	89 85 8c fe ff
	ff		 mov	 DWORD PTR tv693[ebp], eax
  00c29	8b 4d f0	 mov	 ecx, DWORD PTR _this$[ebp]
  00c2c	8b 49 18	 mov	 ecx, DWORD PTR [ecx+24]
  00c2f	c6 45 fc 03	 mov	 BYTE PTR __$EHRec$[ebp+8], 3
  00c33	e8 00 00 00 00	 call	 ?SetTipText@CSubjectChildWnd@@QAEXV?$CStringT@DV?$StrTraitMFC_DLL@DV?$ChTraitsCRT@D@ATL@@@@@ATL@@00@Z ; CSubjectChildWnd::SetTipText

; 185  : 
; 186  : 			}

  00c38	c7 45 fc ff ff
	ff ff		 mov	 DWORD PTR __$EHRec$[ebp+8], -1
  00c3f	8b f4		 mov	 esi, esp
  00c41	8d 4d 9c	 lea	 ecx, DWORD PTR _tips$191968[ebp]
  00c44	ff 15 00 00 00
	00		 call	 DWORD PTR __imp_??1?$CStringT@DV?$StrTraitMFC_DLL@DV?$ChTraitsCRT@D@ATL@@@@@ATL@@QAE@XZ
  00c4a	3b f4		 cmp	 esi, esp
  00c4c	e8 00 00 00 00	 call	 __RTC_CheckEsp

; 187  : 			else

  00c51	e9 91 01 00 00	 jmp	 $L191977
$L191967:

; 188  : 			{
; 189  : 				CString tips = CString(": ") + oneSub.strShowName.c_str() + "\r\n: ";

  00c56	8b f4		 mov	 esi, esp
  00c58	68 00 00 00 00	 push	 OFFSET FLAT:$SG191983
  00c5d	8d 8d fc fe ff
	ff		 lea	 ecx, DWORD PTR $T194815[ebp]
  00c63	ff 15 00 00 00
	00		 call	 DWORD PTR __imp_??0?$CStringT@DV?$StrTraitMFC_DLL@DV?$ChTraitsCRT@D@ATL@@@@@ATL@@QAE@PBD@Z
  00c69	3b f4		 cmp	 esi, esp
  00c6b	e8 00 00 00 00	 call	 __RTC_CheckEsp
  00c70	89 85 88 fe ff
	ff		 mov	 DWORD PTR tv724[ebp], eax
  00c76	8b 95 88 fe ff
	ff		 mov	 edx, DWORD PTR tv724[ebp]
  00c7c	89 95 84 fe ff
	ff		 mov	 DWORD PTR tv695[ebp], edx
  00c82	c7 45 fc 07 00
	00 00		 mov	 DWORD PTR __$EHRec$[ebp+8], 7
  00c89	8b 4d a4	 mov	 ecx, DWORD PTR _oneSub$191966[ebp]
  00c8c	83 c1 38	 add	 ecx, 56			; 00000038H
  00c8f	8b f4		 mov	 esi, esp
  00c91	ff 15 00 00 00
	00		 call	 DWORD PTR __imp_?c_str@?$basic_string@DU?$char_traits@D@std@@V?$allocator@D@2@@std@@QBEPBDXZ
  00c97	3b f4		 cmp	 esi, esp
  00c99	e8 00 00 00 00	 call	 __RTC_CheckEsp
  00c9e	50		 push	 eax
  00c9f	8b 85 84 fe ff
	ff		 mov	 eax, DWORD PTR tv695[ebp]
  00ca5	50		 push	 eax
  00ca6	8d 8d f8 fe ff
	ff		 lea	 ecx, DWORD PTR $T194816[ebp]
  00cac	51		 push	 ecx
  00cad	e8 00 00 00 00	 call	 ??HATL@@YA?AV?$CStringT@DV?$StrTraitMFC_DLL@DV?$ChTraitsCRT@D@ATL@@@@@0@ABV10@PBD@Z ; ATL::operator+
  00cb2	83 c4 0c	 add	 esp, 12			; 0000000cH
  00cb5	89 85 80 fe ff
	ff		 mov	 DWORD PTR tv727[ebp], eax
  00cbb	8b 95 80 fe ff
	ff		 mov	 edx, DWORD PTR tv727[ebp]
  00cc1	89 95 7c fe ff
	ff		 mov	 DWORD PTR tv697[ebp], edx
  00cc7	c6 45 fc 08	 mov	 BYTE PTR __$EHRec$[ebp+8], 8
  00ccb	68 00 00 00 00	 push	 OFFSET FLAT:$SG191982
  00cd0	8b 85 7c fe ff
	ff		 mov	 eax, DWORD PTR tv697[ebp]
  00cd6	50		 push	 eax
  00cd7	8d 4d 90	 lea	 ecx, DWORD PTR _tips$191978[ebp]
  00cda	51		 push	 ecx
  00cdb	e8 00 00 00 00	 call	 ??HATL@@YA?AV?$CStringT@DV?$StrTraitMFC_DLL@DV?$ChTraitsCRT@D@ATL@@@@@0@ABV10@PBD@Z ; ATL::operator+
  00ce0	83 c4 0c	 add	 esp, 12			; 0000000cH
  00ce3	c6 45 fc 0b	 mov	 BYTE PTR __$EHRec$[ebp+8], 11 ; 0000000bH
  00ce7	8b f4		 mov	 esi, esp
  00ce9	8d 8d f8 fe ff
	ff		 lea	 ecx, DWORD PTR $T194816[ebp]
  00cef	ff 15 00 00 00
	00		 call	 DWORD PTR __imp_??1?$CStringT@DV?$StrTraitMFC_DLL@DV?$ChTraitsCRT@D@ATL@@@@@ATL@@QAE@XZ
  00cf5	3b f4		 cmp	 esi, esp
  00cf7	e8 00 00 00 00	 call	 __RTC_CheckEsp
  00cfc	c6 45 fc 0a	 mov	 BYTE PTR __$EHRec$[ebp+8], 10 ; 0000000aH
  00d00	8b f4		 mov	 esi, esp
  00d02	8d 8d fc fe ff
	ff		 lea	 ecx, DWORD PTR $T194815[ebp]
  00d08	ff 15 00 00 00
	00		 call	 DWORD PTR __imp_??1?$CStringT@DV?$StrTraitMFC_DLL@DV?$ChTraitsCRT@D@ATL@@@@@ATL@@QAE@XZ
  00d0e	3b f4		 cmp	 esi, esp
  00d10	e8 00 00 00 00	 call	 __RTC_CheckEsp

; 190  : 				mp_SubjectWnd->SetTipText( oneSub.strSubName.c_str(),tips,oneSub.strShowName.c_str());

  00d15	8b 4d a4	 mov	 ecx, DWORD PTR _oneSub$191966[ebp]
  00d18	83 c1 38	 add	 ecx, 56			; 00000038H
  00d1b	8b f4		 mov	 esi, esp
  00d1d	ff 15 00 00 00
	00		 call	 DWORD PTR __imp_?c_str@?$basic_string@DU?$char_traits@D@std@@V?$allocator@D@2@@std@@QBEPBDXZ
  00d23	3b f4		 cmp	 esi, esp
  00d25	e8 00 00 00 00	 call	 __RTC_CheckEsp
  00d2a	51		 push	 ecx
  00d2b	8b cc		 mov	 ecx, esp
  00d2d	89 a5 f4 fe ff
	ff		 mov	 DWORD PTR $T194817[ebp], esp
  00d33	8b f4		 mov	 esi, esp
  00d35	50		 push	 eax
  00d36	ff 15 00 00 00
	00		 call	 DWORD PTR __imp_??0?$CStringT@DV?$StrTraitMFC_DLL@DV?$ChTraitsCRT@D@ATL@@@@@ATL@@QAE@PBD@Z
  00d3c	3b f4		 cmp	 esi, esp
  00d3e	e8 00 00 00 00	 call	 __RTC_CheckEsp
  00d43	89 85 78 fe ff
	ff		 mov	 DWORD PTR tv731[ebp], eax
  00d49	8b 95 78 fe ff
	ff		 mov	 edx, DWORD PTR tv731[ebp]
  00d4f	89 95 74 fe ff
	ff		 mov	 DWORD PTR tv700[ebp], edx
  00d55	c6 45 fc 0c	 mov	 BYTE PTR __$EHRec$[ebp+8], 12 ; 0000000cH
  00d59	51		 push	 ecx
  00d5a	8b cc		 mov	 ecx, esp
  00d5c	89 a5 f0 fe ff
	ff		 mov	 DWORD PTR $T194818[ebp], esp
  00d62	8b f4		 mov	 esi, esp
  00d64	8d 45 90	 lea	 eax, DWORD PTR _tips$191978[ebp]
  00d67	50		 push	 eax
  00d68	ff 15 00 00 00
	00		 call	 DWORD PTR __imp_??0?$CStringT@DV?$StrTraitMFC_DLL@DV?$ChTraitsCRT@D@ATL@@@@@ATL@@QAE@ABV01@@Z
  00d6e	3b f4		 cmp	 esi, esp
  00d70	e8 00 00 00 00	 call	 __RTC_CheckEsp
  00d75	89 85 70 fe ff
	ff		 mov	 DWORD PTR tv734[ebp], eax
  00d7b	8b 8d 70 fe ff
	ff		 mov	 ecx, DWORD PTR tv734[ebp]
  00d81	89 8d 6c fe ff
	ff		 mov	 DWORD PTR tv703[ebp], ecx
  00d87	c6 45 fc 0d	 mov	 BYTE PTR __$EHRec$[ebp+8], 13 ; 0000000dH
  00d8b	8b 4d a4	 mov	 ecx, DWORD PTR _oneSub$191966[ebp]
  00d8e	83 c1 1c	 add	 ecx, 28			; 0000001cH
  00d91	8b f4		 mov	 esi, esp
  00d93	ff 15 00 00 00
	00		 call	 DWORD PTR __imp_?c_str@?$basic_string@DU?$char_traits@D@std@@V?$allocator@D@2@@std@@QBEPBDXZ
  00d99	3b f4		 cmp	 esi, esp
  00d9b	e8 00 00 00 00	 call	 __RTC_CheckEsp
  00da0	51		 push	 ecx
  00da1	8b cc		 mov	 ecx, esp
  00da3	89 a5 ec fe ff
	ff		 mov	 DWORD PTR $T194819[ebp], esp
  00da9	8b f4		 mov	 esi, esp
  00dab	50		 push	 eax
  00dac	ff 15 00 00 00
	00		 call	 DWORD PTR __imp_??0?$CStringT@DV?$StrTraitMFC_DLL@DV?$ChTraitsCRT@D@ATL@@@@@ATL@@QAE@PBD@Z
  00db2	3b f4		 cmp	 esi, esp
  00db4	e8 00 00 00 00	 call	 __RTC_CheckEsp
  00db9	89 85 68 fe ff
	ff		 mov	 DWORD PTR tv706[ebp], eax
  00dbf	8b 55 f0	 mov	 edx, DWORD PTR _this$[ebp]
  00dc2	8b 4a 18	 mov	 ecx, DWORD PTR [edx+24]
  00dc5	c6 45 fc 0a	 mov	 BYTE PTR __$EHRec$[ebp+8], 10 ; 0000000aH
  00dc9	e8 00 00 00 00	 call	 ?SetTipText@CSubjectChildWnd@@QAEXV?$CStringT@DV?$StrTraitMFC_DLL@DV?$ChTraitsCRT@D@ATL@@@@@ATL@@00@Z ; CSubjectChildWnd::SetTipText

; 191  : 			}

  00dce	c7 45 fc ff ff
	ff ff		 mov	 DWORD PTR __$EHRec$[ebp+8], -1
  00dd5	8b f4		 mov	 esi, esp
  00dd7	8d 4d 90	 lea	 ecx, DWORD PTR _tips$191978[ebp]
  00dda	ff 15 00 00 00
	00		 call	 DWORD PTR __imp_??1?$CStringT@DV?$StrTraitMFC_DLL@DV?$ChTraitsCRT@D@ATL@@@@@ATL@@QAE@XZ
  00de0	3b f4		 cmp	 esi, esp
  00de2	e8 00 00 00 00	 call	 __RTC_CheckEsp
$L191977:

; 192  : 		}

  00de7	e9 96 fc ff ff	 jmp	 $L191964
$L191965:

; 193  : 
; 194  : 	
; 195  : 		switch(m_iCheckTab)

  00dec	8b 45 f0	 mov	 eax, DWORD PTR _this$[ebp]
  00def	8b 88 80 00 00
	00		 mov	 ecx, DWORD PTR [eax+128]
  00df5	89 8d 64 fe ff
	ff		 mov	 DWORD PTR tv439[ebp], ecx
  00dfb	83 bd 64 fe ff
	ff 00		 cmp	 DWORD PTR tv439[ebp], 0
  00e02	74 17		 je	 SHORT $L191991
  00e04	83 bd 64 fe ff
	ff 01		 cmp	 DWORD PTR tv439[ebp], 1
  00e0b	74 3e		 je	 SHORT $L191992
  00e0d	83 bd 64 fe ff
	ff 02		 cmp	 DWORD PTR tv439[ebp], 2
  00e14	74 65		 je	 SHORT $L191993
  00e16	e9 8e 00 00 00	 jmp	 $L191988
$L191991:

; 196  : 		{
; 197  : 		case 0:
; 198  : 			mp_skinWnd->ShowWindow(SW_HIDE);

  00e1b	6a 00		 push	 0
  00e1d	8b 55 f0	 mov	 edx, DWORD PTR _this$[ebp]
  00e20	8b 4a 14	 mov	 ecx, DWORD PTR [edx+20]
  00e23	e8 00 00 00 00	 call	 ?ShowWindow@CSkinWnd@@QAEXH@Z ; CSkinWnd::ShowWindow

; 199  : 			mp_SubjectWnd->ShowWindow(SW_SHOW);

  00e28	6a 05		 push	 5
  00e2a	8b 45 f0	 mov	 eax, DWORD PTR _this$[ebp]
  00e2d	8b 48 18	 mov	 ecx, DWORD PTR [eax+24]
  00e30	e8 00 00 00 00	 call	 ?ShowWindow@CSubjectChildWnd@@QAEXH@Z ; CSubjectChildWnd::ShowWindow

; 200  : 			mp_WebSubWnd->ShowWindow(SW_HIDE);

  00e35	6a 00		 push	 0
  00e37	8b 4d f0	 mov	 ecx, DWORD PTR _this$[ebp]
  00e3a	8b 49 1c	 mov	 ecx, DWORD PTR [ecx+28]
  00e3d	e8 00 00 00 00	 call	 ?ShowWindow@CWnd@@QAEHH@Z ; CWnd::ShowWindow

; 201  : 			m_bShowSkinWnd = FALSE;

  00e42	8b 55 f0	 mov	 edx, DWORD PTR _this$[ebp]
  00e45	c6 42 64 00	 mov	 BYTE PTR [edx+100], 0

; 202  : 			break;

  00e49	eb 5e		 jmp	 SHORT $L191988
$L191992:

; 203  : 		case 1:
; 204  : 			mp_skinWnd->ShowWindow(SW_SHOW);

  00e4b	6a 05		 push	 5
  00e4d	8b 45 f0	 mov	 eax, DWORD PTR _this$[ebp]
  00e50	8b 48 14	 mov	 ecx, DWORD PTR [eax+20]
  00e53	e8 00 00 00 00	 call	 ?ShowWindow@CSkinWnd@@QAEXH@Z ; CSkinWnd::ShowWindow

; 205  : 			mp_SubjectWnd->ShowWindow(SW_HIDE);

  00e58	6a 00		 push	 0
  00e5a	8b 4d f0	 mov	 ecx, DWORD PTR _this$[ebp]
  00e5d	8b 49 18	 mov	 ecx, DWORD PTR [ecx+24]
  00e60	e8 00 00 00 00	 call	 ?ShowWindow@CSubjectChildWnd@@QAEXH@Z ; CSubjectChildWnd::ShowWindow

; 206  : 			mp_WebSubWnd->ShowWindow(SW_HIDE);

  00e65	6a 00		 push	 0
  00e67	8b 55 f0	 mov	 edx, DWORD PTR _this$[ebp]
  00e6a	8b 4a 1c	 mov	 ecx, DWORD PTR [edx+28]
  00e6d	e8 00 00 00 00	 call	 ?ShowWindow@CWnd@@QAEHH@Z ; CWnd::ShowWindow

; 207  : 			m_bShowSkinWnd = TRUE;

  00e72	8b 45 f0	 mov	 eax, DWORD PTR _this$[ebp]
  00e75	c6 40 64 01	 mov	 BYTE PTR [eax+100], 1

; 208  : 			break;

  00e79	eb 2e		 jmp	 SHORT $L191988
$L191993:

; 209  : 		case 2:
; 210  : 			mp_skinWnd->ShowWindow(SW_HIDE);

  00e7b	6a 00		 push	 0
  00e7d	8b 4d f0	 mov	 ecx, DWORD PTR _this$[ebp]
  00e80	8b 49 14	 mov	 ecx, DWORD PTR [ecx+20]
  00e83	e8 00 00 00 00	 call	 ?ShowWindow@CSkinWnd@@QAEXH@Z ; CSkinWnd::ShowWindow

; 211  : 			mp_SubjectWnd->ShowWindow(SW_HIDE);

  00e88	6a 00		 push	 0
  00e8a	8b 55 f0	 mov	 edx, DWORD PTR _this$[ebp]
  00e8d	8b 4a 18	 mov	 ecx, DWORD PTR [edx+24]
  00e90	e8 00 00 00 00	 call	 ?ShowWindow@CSubjectChildWnd@@QAEXH@Z ; CSubjectChildWnd::ShowWindow

; 212  : 			mp_WebSubWnd->ShowWindow(SW_SHOW);

  00e95	6a 05		 push	 5
  00e97	8b 45 f0	 mov	 eax, DWORD PTR _this$[ebp]
  00e9a	8b 48 1c	 mov	 ecx, DWORD PTR [eax+28]
  00e9d	e8 00 00 00 00	 call	 ?ShowWindow@CWnd@@QAEHH@Z ; CWnd::ShowWindow

; 213  : 			m_bShowSkinWnd = FALSE;

  00ea2	8b 4d f0	 mov	 ecx, DWORD PTR _this$[ebp]
  00ea5	c6 41 64 00	 mov	 BYTE PTR [ecx+100], 0
$L191988:

; 214  : 			break;		
; 215  : 		}	
; 216  : 
; 217  : 
; 218  : 		mb_HasPopWnd	= true;

  00ea9	8b 55 f0	 mov	 edx, DWORD PTR _this$[ebp]
  00eac	c6 42 48 01	 mov	 BYTE PTR [edx+72], 1

; 219  : 		//m_bShowSkinWnd	= (AfxGetUIManager()->UIGetLayoutMgr()->GetDisplayMode() == DISPLAY_SEPERATE_MODE );		
; 220  : 	}
; 221  : 	else

  00eb0	eb 57		 jmp	 SHORT $L191994
$L191950:

; 222  : 	{
; 223  : 		CRect lrect;

  00eb2	8d 8d 78 ff ff
	ff		 lea	 ecx, DWORD PTR _lrect$191995[ebp]
  00eb8	e8 00 00 00 00	 call	 ??0CRect@@QAE@XZ	; CRect::CRect

; 224  : 		GetSkinWndRect( aPoint,lrect );

  00ebd	8d 85 78 ff ff
	ff		 lea	 eax, DWORD PTR _lrect$191995[ebp]
  00ec3	50		 push	 eax
  00ec4	8d 4d 10	 lea	 ecx, DWORD PTR _aPoint$[ebp]
  00ec7	51		 push	 ecx
  00ec8	8b 4d f0	 mov	 ecx, DWORD PTR _this$[ebp]
  00ecb	e8 00 00 00 00	 call	 ?GetSkinWndRect@CSkinMgrV1@@QAEXABUtagPOINT@@AAVCRect@@@Z ; CSkinMgrV1::GetSkinWndRect

; 225  : 
; 226  : 		mp_mainSkinWnd->MoveWindow(&lrect,true);

  00ed0	6a 01		 push	 1
  00ed2	8d 95 78 ff ff
	ff		 lea	 edx, DWORD PTR _lrect$191995[ebp]
  00ed8	52		 push	 edx
  00ed9	8b 45 f0	 mov	 eax, DWORD PTR _this$[ebp]
  00edc	8b 48 10	 mov	 ecx, DWORD PTR [eax+16]
  00edf	e8 00 00 00 00	 call	 ?MoveWindow@CWnd@@QAEXPBUtagRECT@@H@Z ; CWnd::MoveWindow

; 227  : 		SetWindowPos(mp_mainSkinWnd->m_hWnd,HWND_TOP,0,0,0,0,SWP_NOACTIVATE|SWP_NOSIZE|SWP_NOMOVE);

  00ee4	8b f4		 mov	 esi, esp
  00ee6	6a 13		 push	 19			; 00000013H
  00ee8	6a 00		 push	 0
  00eea	6a 00		 push	 0
  00eec	6a 00		 push	 0
  00eee	6a 00		 push	 0
  00ef0	6a 00		 push	 0
  00ef2	8b 4d f0	 mov	 ecx, DWORD PTR _this$[ebp]
  00ef5	8b 51 10	 mov	 edx, DWORD PTR [ecx+16]
  00ef8	8b 42 20	 mov	 eax, DWORD PTR [edx+32]
  00efb	50		 push	 eax
  00efc	ff 15 00 00 00
	00		 call	 DWORD PTR __imp__SetWindowPos@28
  00f02	3b f4		 cmp	 esi, esp
  00f04	e8 00 00 00 00	 call	 __RTC_CheckEsp
$L191994:

; 228  : 	}
; 229  : 	
; 230  : 	//
; 231  : 	if(!mp_downloadSkin )

  00f09	8b 4d f0	 mov	 ecx, DWORD PTR _this$[ebp]
  00f0c	83 79 20 00	 cmp	 DWORD PTR [ecx+32], 0
  00f10	75 5c		 jne	 SHORT $L191997

; 232  : 	{
; 233  : 		mp_downloadSkin = new CDownloadPercentWnd;

  00f12	68 30 02 00 00	 push	 560			; 00000230H
  00f17	e8 00 00 00 00	 call	 ??2CObject@@SGPAXI@Z	; CObject::operator new
  00f1c	89 85 e4 fe ff
	ff		 mov	 DWORD PTR $T194821[ebp], eax
  00f22	c7 45 fc 0e 00
	00 00		 mov	 DWORD PTR __$EHRec$[ebp+8], 14 ; 0000000eH
  00f29	83 bd e4 fe ff
	ff 00		 cmp	 DWORD PTR $T194821[ebp], 0
  00f30	74 13		 je	 SHORT $L194822
  00f32	8b 8d e4 fe ff
	ff		 mov	 ecx, DWORD PTR $T194821[ebp]
  00f38	e8 00 00 00 00	 call	 ??0CDownloadPercentWnd@@QAE@XZ ; CDownloadPercentWnd::CDownloadPercentWnd
  00f3d	89 85 60 fe ff
	ff		 mov	 DWORD PTR tv511[ebp], eax
  00f43	eb 0a		 jmp	 SHORT $L194823
$L194822:
  00f45	c7 85 60 fe ff
	ff 00 00 00 00	 mov	 DWORD PTR tv511[ebp], 0
$L194823:
  00f4f	8b 95 60 fe ff
	ff		 mov	 edx, DWORD PTR tv511[ebp]
  00f55	89 95 e8 fe ff
	ff		 mov	 DWORD PTR $T194820[ebp], edx
  00f5b	c7 45 fc ff ff
	ff ff		 mov	 DWORD PTR __$EHRec$[ebp+8], -1
  00f62	8b 45 f0	 mov	 eax, DWORD PTR _this$[ebp]
  00f65	8b 8d e8 fe ff
	ff		 mov	 ecx, DWORD PTR $T194820[ebp]
  00f6b	89 48 20	 mov	 DWORD PTR [eax+32], ecx
$L191997:

; 234  : 	}
; 235  : 	CRect lClient;

  00f6e	8d 8d 60 ff ff
	ff		 lea	 ecx, DWORD PTR _lClient$[ebp]
  00f74	e8 00 00 00 00	 call	 ??0CRect@@QAE@XZ	; CRect::CRect

; 236  : 	lClient.SetRect(3,235,297,285);

  00f79	68 1d 01 00 00	 push	 285			; 0000011dH
  00f7e	68 29 01 00 00	 push	 297			; 00000129H
  00f83	68 eb 00 00 00	 push	 235			; 000000ebH
  00f88	6a 03		 push	 3
  00f8a	8d 8d 60 ff ff
	ff		 lea	 ecx, DWORD PTR _lClient$[ebp]
  00f90	e8 00 00 00 00	 call	 ?SetRect@CRect@@QAEXHHHH@Z ; CRect::SetRect

; 237  : 
; 238  : 	if( mp_downloadSkin->m_hWnd == NULL )

  00f95	8b 55 f0	 mov	 edx, DWORD PTR _this$[ebp]
  00f98	8b 42 20	 mov	 eax, DWORD PTR [edx+32]
  00f9b	83 78 20 00	 cmp	 DWORD PTR [eax+32], 0
  00f9f	0f 85 69 01 00
	00		 jne	 $L192003

; 239  : 	{
; 240  : 		CString ClassName   = ::AfxRegisterWndClass(CS_CLASSDC,::LoadCursor(NULL,IDC_ARROW),NULL,NULL);   

  00fa5	6a 00		 push	 0
  00fa7	6a 00		 push	 0
  00fa9	8b f4		 mov	 esi, esp
  00fab	68 00 7f 00 00	 push	 32512			; 00007f00H
  00fb0	6a 00		 push	 0
  00fb2	ff 15 00 00 00
	00		 call	 DWORD PTR __imp__LoadCursorA@8
  00fb8	3b f4		 cmp	 esi, esp
  00fba	e8 00 00 00 00	 call	 __RTC_CheckEsp
  00fbf	50		 push	 eax
  00fc0	6a 40		 push	 64			; 00000040H
  00fc2	e8 00 00 00 00	 call	 ?AfxRegisterWndClass@@YGPBDIPAUHICON__@@PAUHBRUSH__@@0@Z ; AfxRegisterWndClass
  00fc7	8b f4		 mov	 esi, esp
  00fc9	50		 push	 eax
  00fca	8d 8d 54 ff ff
	ff		 lea	 ecx, DWORD PTR _ClassName$192004[ebp]
  00fd0	ff 15 00 00 00
	00		 call	 DWORD PTR __imp_??0?$CStringT@DV?$StrTraitMFC_DLL@DV?$ChTraitsCRT@D@ATL@@@@@ATL@@QAE@PBD@Z
  00fd6	3b f4		 cmp	 esi, esp
  00fd8	e8 00 00 00 00	 call	 __RTC_CheckEsp
  00fdd	c7 45 fc 0f 00
	00 00		 mov	 DWORD PTR __$EHRec$[ebp+8], 15 ; 0000000fH

; 241  : 		if( AfxGetUIManager()->UIGetLayoutMgr()->GetDisplayMode() == DISPLAY_SEPERATE_MODE )

  00fe4	e8 00 00 00 00	 call	 ?AfxGetUIManager@@YAPAVIUIManager@@XZ ; AfxGetUIManager
  00fe9	89 85 5c fe ff
	ff		 mov	 DWORD PTR tv566[ebp], eax
  00fef	8b 8d 5c fe ff
	ff		 mov	 ecx, DWORD PTR tv566[ebp]
  00ff5	8b 11		 mov	 edx, DWORD PTR [ecx]
  00ff7	8b f4		 mov	 esi, esp
  00ff9	8b 8d 5c fe ff
	ff		 mov	 ecx, DWORD PTR tv566[ebp]
  00fff	ff 52 24	 call	 DWORD PTR [edx+36]
  01002	3b f4		 cmp	 esi, esp
  01004	e8 00 00 00 00	 call	 __RTC_CheckEsp
  01009	89 85 58 fe ff
	ff		 mov	 DWORD PTR tv571[ebp], eax
  0100f	8b 85 58 fe ff
	ff		 mov	 eax, DWORD PTR tv571[ebp]
  01015	8b 10		 mov	 edx, DWORD PTR [eax]
  01017	8b f4		 mov	 esi, esp
  01019	8b 8d 58 fe ff
	ff		 mov	 ecx, DWORD PTR tv571[ebp]
  0101f	ff 52 7c	 call	 DWORD PTR [edx+124]
  01022	3b f4		 cmp	 esi, esp
  01024	e8 00 00 00 00	 call	 __RTC_CheckEsp
  01029	85 c0		 test	 eax, eax
  0102b	75 78		 jne	 SHORT $L192008

; 242  : 		{
; 243  : 			mp_downloadSkin->CreateEx( 0,ClassName,NULL,  WS_CHILD,CRect( lClient.left,lClient.top,lClient.left+220,lClient.top+30),mp_mainSkinWnd,0);		

  0102d	8b f4		 mov	 esi, esp
  0102f	6a 00		 push	 0
  01031	6a 00		 push	 0
  01033	8b 45 f0	 mov	 eax, DWORD PTR _this$[ebp]
  01036	8b 48 10	 mov	 ecx, DWORD PTR [eax+16]
  01039	51		 push	 ecx
  0103a	8b 95 64 ff ff
	ff		 mov	 edx, DWORD PTR _lClient$[ebp+4]
  01040	83 c2 1e	 add	 edx, 30			; 0000001eH
  01043	52		 push	 edx
  01044	8b 85 60 ff ff
	ff		 mov	 eax, DWORD PTR _lClient$[ebp]
  0104a	05 dc 00 00 00	 add	 eax, 220		; 000000dcH
  0104f	50		 push	 eax
  01050	8b 8d 64 ff ff
	ff		 mov	 ecx, DWORD PTR _lClient$[ebp+4]
  01056	51		 push	 ecx
  01057	8b 95 60 ff ff
	ff		 mov	 edx, DWORD PTR _lClient$[ebp]
  0105d	52		 push	 edx
  0105e	8d 8d d4 fe ff
	ff		 lea	 ecx, DWORD PTR $T194824[ebp]
  01064	e8 00 00 00 00	 call	 ??0CRect@@QAE@HHHH@Z	; CRect::CRect
  01069	50		 push	 eax
  0106a	68 00 00 00 40	 push	 1073741824		; 40000000H
  0106f	6a 00		 push	 0
  01071	8b fc		 mov	 edi, esp
  01073	8d 8d 54 ff ff
	ff		 lea	 ecx, DWORD PTR _ClassName$192004[ebp]
  01079	ff 15 00 00 00
	00		 call	 DWORD PTR __imp_??B?$CSimpleStringT@D$00@ATL@@QBEPBDXZ
  0107f	3b fc		 cmp	 edi, esp
  01081	e8 00 00 00 00	 call	 __RTC_CheckEsp
  01086	50		 push	 eax
  01087	6a 00		 push	 0
  01089	8b 45 f0	 mov	 eax, DWORD PTR _this$[ebp]
  0108c	8b 48 20	 mov	 ecx, DWORD PTR [eax+32]
  0108f	8b 55 f0	 mov	 edx, DWORD PTR _this$[ebp]
  01092	8b 42 20	 mov	 eax, DWORD PTR [edx+32]
  01095	8b 11		 mov	 edx, DWORD PTR [ecx]
  01097	8b c8		 mov	 ecx, eax
  01099	ff 52 60	 call	 DWORD PTR [edx+96]
  0109c	3b f4		 cmp	 esi, esp
  0109e	e8 00 00 00 00	 call	 __RTC_CheckEsp

; 244  : 		}
; 245  : 		else

  010a3	eb 4d		 jmp	 SHORT $L192010
$L192008:

; 246  : 		{
; 247  : 			mp_downloadSkin->CreateEx( 0,ClassName,NULL,  WS_CHILD,lClient,mp_mainSkinWnd,0);		

  010a5	8b f4		 mov	 esi, esp
  010a7	6a 00		 push	 0
  010a9	6a 00		 push	 0
  010ab	8b 45 f0	 mov	 eax, DWORD PTR _this$[ebp]
  010ae	8b 48 10	 mov	 ecx, DWORD PTR [eax+16]
  010b1	51		 push	 ecx
  010b2	8d 95 60 ff ff
	ff		 lea	 edx, DWORD PTR _lClient$[ebp]
  010b8	52		 push	 edx
  010b9	68 00 00 00 40	 push	 1073741824		; 40000000H
  010be	6a 00		 push	 0
  010c0	8b fc		 mov	 edi, esp
  010c2	8d 8d 54 ff ff
	ff		 lea	 ecx, DWORD PTR _ClassName$192004[ebp]
  010c8	ff 15 00 00 00
	00		 call	 DWORD PTR __imp_??B?$CSimpleStringT@D$00@ATL@@QBEPBDXZ
  010ce	3b fc		 cmp	 edi, esp
  010d0	e8 00 00 00 00	 call	 __RTC_CheckEsp
  010d5	50		 push	 eax
  010d6	6a 00		 push	 0
  010d8	8b 45 f0	 mov	 eax, DWORD PTR _this$[ebp]
  010db	8b 48 20	 mov	 ecx, DWORD PTR [eax+32]
  010de	8b 55 f0	 mov	 edx, DWORD PTR _this$[ebp]
  010e1	8b 42 20	 mov	 eax, DWORD PTR [edx+32]
  010e4	8b 11		 mov	 edx, DWORD PTR [ecx]
  010e6	8b c8		 mov	 ecx, eax
  010e8	ff 52 60	 call	 DWORD PTR [edx+96]
  010eb	3b f4		 cmp	 esi, esp
  010ed	e8 00 00 00 00	 call	 __RTC_CheckEsp
$L192010:

; 248  : 		}
; 249  : 	}

  010f2	c7 45 fc ff ff
	ff ff		 mov	 DWORD PTR __$EHRec$[ebp+8], -1
  010f9	8b f4		 mov	 esi, esp
  010fb	8d 8d 54 ff ff
	ff		 lea	 ecx, DWORD PTR _ClassName$192004[ebp]
  01101	ff 15 00 00 00
	00		 call	 DWORD PTR __imp_??1?$CStringT@DV?$StrTraitMFC_DLL@DV?$ChTraitsCRT@D@ATL@@@@@ATL@@QAE@XZ
  01107	3b f4		 cmp	 esi, esp
  01109	e8 00 00 00 00	 call	 __RTC_CheckEsp
$L192003:

; 250  : 		
; 251  : 	if( m_bShowSkinWnd )

  0110e	8b 45 f0	 mov	 eax, DWORD PTR _this$[ebp]
  01111	0f b6 48 64	 movzx	 ecx, BYTE PTR [eax+100]
  01115	85 c9		 test	 ecx, ecx
  01117	74 34		 je	 SHORT $L192011

; 252  : 	{
; 253  : 		if( mb_isDownSkin )

  01119	8b 55 f0	 mov	 edx, DWORD PTR _this$[ebp]
  0111c	0f b6 42 49	 movzx	 eax, BYTE PTR [edx+73]
  01120	85 c0		 test	 eax, eax
  01122	74 0f		 je	 SHORT $L192012

; 254  : 		{
; 255  : 			mp_downloadSkin->ShowWindow( SW_SHOW );

  01124	6a 05		 push	 5
  01126	8b 4d f0	 mov	 ecx, DWORD PTR _this$[ebp]
  01129	8b 49 20	 mov	 ecx, DWORD PTR [ecx+32]
  0112c	e8 00 00 00 00	 call	 ?ShowWindow@CWnd@@QAEHH@Z ; CWnd::ShowWindow

; 256  : 			//DownloadStart();
; 257  : 		}
; 258  : 		else

  01131	eb 1a		 jmp	 SHORT $L192011
$L192012:

; 259  : 		{
; 260  : 			mp_downloadSkin->ShowWindow( SW_HIDE );

  01133	6a 00		 push	 0
  01135	8b 55 f0	 mov	 edx, DWORD PTR _this$[ebp]
  01138	8b 4a 20	 mov	 ecx, DWORD PTR [edx+32]
  0113b	e8 00 00 00 00	 call	 ?ShowWindow@CWnd@@QAEHH@Z ; CWnd::ShowWindow

; 261  : 			mp_mainSkinWnd->ShowColorBtn( TRUE );

  01140	6a 01		 push	 1
  01142	8b 45 f0	 mov	 eax, DWORD PTR _this$[ebp]
  01145	8b 48 10	 mov	 ecx, DWORD PTR [eax+16]
  01148	e8 00 00 00 00	 call	 ?ShowColorBtn@CMainSkinWnd@@QAEXH@Z ; CMainSkinWnd::ShowColorBtn
$L192011:

; 262  : 		}
; 263  : 	}	
; 264  : 
; 265  : 	if(!mp_downloadSubject )

  0114d	8b 4d f0	 mov	 ecx, DWORD PTR _this$[ebp]
  01150	83 79 24 00	 cmp	 DWORD PTR [ecx+36], 0
  01154	75 5c		 jne	 SHORT $L192014

; 266  : 	{
; 267  : 		mp_downloadSubject = new CDownloadPercentWnd;

  01156	68 30 02 00 00	 push	 560			; 00000230H
  0115b	e8 00 00 00 00	 call	 ??2CObject@@SGPAXI@Z	; CObject::operator new
  01160	89 85 cc fe ff
	ff		 mov	 DWORD PTR $T194826[ebp], eax
  01166	c7 45 fc 10 00
	00 00		 mov	 DWORD PTR __$EHRec$[ebp+8], 16 ; 00000010H
  0116d	83 bd cc fe ff
	ff 00		 cmp	 DWORD PTR $T194826[ebp], 0
  01174	74 13		 je	 SHORT $L194827
  01176	8b 8d cc fe ff
	ff		 mov	 ecx, DWORD PTR $T194826[ebp]
  0117c	e8 00 00 00 00	 call	 ??0CDownloadPercentWnd@@QAE@XZ ; CDownloadPercentWnd::CDownloadPercentWnd
  01181	89 85 54 fe ff
	ff		 mov	 DWORD PTR tv648[ebp], eax
  01187	eb 0a		 jmp	 SHORT $L194828
$L194827:
  01189	c7 85 54 fe ff
	ff 00 00 00 00	 mov	 DWORD PTR tv648[ebp], 0
$L194828:
  01193	8b 95 54 fe ff
	ff		 mov	 edx, DWORD PTR tv648[ebp]
  01199	89 95 d0 fe ff
	ff		 mov	 DWORD PTR $T194825[ebp], edx
  0119f	c7 45 fc ff ff
	ff ff		 mov	 DWORD PTR __$EHRec$[ebp+8], -1
  011a6	8b 45 f0	 mov	 eax, DWORD PTR _this$[ebp]
  011a9	8b 8d d0 fe ff
	ff		 mov	 ecx, DWORD PTR $T194825[ebp]
  011af	89 48 24	 mov	 DWORD PTR [eax+36], ecx
$L192014:

; 268  : 	}
; 269  : 	if( mp_downloadSubject->m_hWnd == NULL )

  011b2	8b 55 f0	 mov	 edx, DWORD PTR _this$[ebp]
  011b5	8b 42 24	 mov	 eax, DWORD PTR [edx+36]
  011b8	83 78 20 00	 cmp	 DWORD PTR [eax+32], 0
  011bc	0f 85 a6 00 00
	00		 jne	 $L192019

; 270  : 	{
; 271  : 		CString ClassName   = ::AfxRegisterWndClass(CS_CLASSDC,::LoadCursor(NULL,IDC_ARROW),NULL,NULL);   

  011c2	6a 00		 push	 0
  011c4	6a 00		 push	 0
  011c6	8b f4		 mov	 esi, esp
  011c8	68 00 7f 00 00	 push	 32512			; 00007f00H
  011cd	6a 00		 push	 0
  011cf	ff 15 00 00 00
	00		 call	 DWORD PTR __imp__LoadCursorA@8
  011d5	3b f4		 cmp	 esi, esp
  011d7	e8 00 00 00 00	 call	 __RTC_CheckEsp
  011dc	50		 push	 eax
  011dd	6a 40		 push	 64			; 00000040H
  011df	e8 00 00 00 00	 call	 ?AfxRegisterWndClass@@YGPBDIPAUHICON__@@PAUHBRUSH__@@0@Z ; AfxRegisterWndClass
  011e4	8b f4		 mov	 esi, esp
  011e6	50		 push	 eax
  011e7	8d 8d 48 ff ff
	ff		 lea	 ecx, DWORD PTR _ClassName$192020[ebp]
  011ed	ff 15 00 00 00
	00		 call	 DWORD PTR __imp_??0?$CStringT@DV?$StrTraitMFC_DLL@DV?$ChTraitsCRT@D@ATL@@@@@ATL@@QAE@PBD@Z
  011f3	3b f4		 cmp	 esi, esp
  011f5	e8 00 00 00 00	 call	 __RTC_CheckEsp
  011fa	c7 45 fc 11 00
	00 00		 mov	 DWORD PTR __$EHRec$[ebp+8], 17 ; 00000011H

; 272  : 		mp_downloadSubject->CreateEx( 0,ClassName,NULL,WS_CHILD,lClient,mp_mainSkinWnd,1);		

  01201	8b f4		 mov	 esi, esp
  01203	6a 00		 push	 0
  01205	6a 01		 push	 1
  01207	8b 4d f0	 mov	 ecx, DWORD PTR _this$[ebp]
  0120a	8b 51 10	 mov	 edx, DWORD PTR [ecx+16]
  0120d	52		 push	 edx
  0120e	8d 85 60 ff ff
	ff		 lea	 eax, DWORD PTR _lClient$[ebp]
  01214	50		 push	 eax
  01215	68 00 00 00 40	 push	 1073741824		; 40000000H
  0121a	6a 00		 push	 0
  0121c	8b fc		 mov	 edi, esp
  0121e	8d 8d 48 ff ff
	ff		 lea	 ecx, DWORD PTR _ClassName$192020[ebp]
  01224	ff 15 00 00 00
	00		 call	 DWORD PTR __imp_??B?$CSimpleStringT@D$00@ATL@@QBEPBDXZ
  0122a	3b fc		 cmp	 edi, esp
  0122c	e8 00 00 00 00	 call	 __RTC_CheckEsp
  01231	50		 push	 eax
  01232	6a 00		 push	 0
  01234	8b 4d f0	 mov	 ecx, DWORD PTR _this$[ebp]
  01237	8b 51 24	 mov	 edx, DWORD PTR [ecx+36]
  0123a	8b 45 f0	 mov	 eax, DWORD PTR _this$[ebp]
  0123d	8b 48 24	 mov	 ecx, DWORD PTR [eax+36]
  01240	8b 12		 mov	 edx, DWORD PTR [edx]
  01242	ff 52 60	 call	 DWORD PTR [edx+96]
  01245	3b f4		 cmp	 esi, esp
  01247	e8 00 00 00 00	 call	 __RTC_CheckEsp

; 273  : 	}	

  0124c	c7 45 fc ff ff
	ff ff		 mov	 DWORD PTR __$EHRec$[ebp+8], -1
  01253	8b f4		 mov	 esi, esp
  01255	8d 8d 48 ff ff
	ff		 lea	 ecx, DWORD PTR _ClassName$192020[ebp]
  0125b	ff 15 00 00 00
	00		 call	 DWORD PTR __imp_??1?$CStringT@DV?$StrTraitMFC_DLL@DV?$ChTraitsCRT@D@ATL@@@@@ATL@@QAE@XZ
  01261	3b f4		 cmp	 esi, esp
  01263	e8 00 00 00 00	 call	 __RTC_CheckEsp
$L192019:

; 274  : 
; 275  : 	return lbReturn;

  01268	8b 45 ec	 mov	 eax, DWORD PTR _lbReturn$[ebp]

; 276  : }

  0126b	52		 push	 edx
  0126c	8b cd		 mov	 ecx, ebp
  0126e	50		 push	 eax
  0126f	8d 15 00 00 00
	00		 lea	 edx, DWORD PTR $L194857
  01275	e8 00 00 00 00	 call	 @_RTC_CheckStackVars@8
  0127a	58		 pop	 eax
  0127b	5a		 pop	 edx
  0127c	8b 4d f4	 mov	 ecx, DWORD PTR __$EHRec$[ebp]
  0127f	64 89 0d 00 00
	00 00		 mov	 DWORD PTR fs:__except_list, ecx
  01286	5f		 pop	 edi
  01287	5e		 pop	 esi
  01288	81 c4 ac 01 00
	00		 add	 esp, 428		; 000001acH
  0128e	3b ec		 cmp	 ebp, esp
  01290	e8 00 00 00 00	 call	 __RTC_CheckEsp
  01295	8b e5		 mov	 esp, ebp
  01297	5d		 pop	 ebp
  01298	c2 10 00	 ret	 16			; 00000010H
$L194857:
  0129b	08 00 00 00	 DD	 8
  0129f	00 00 00 00	 DD	 $L194856
$L194856:
  012a3	d4 ff ff ff	 DD	 -44			; ffffffd4H
  012a7	10 00 00 00	 DD	 16			; 00000010H
  012ab	00 00 00 00	 DD	 $L194847
  012af	bc ff ff ff	 DD	 -68			; ffffffbcH
  012b3	10 00 00 00	 DD	 16			; 00000010H
  012b7	00 00 00 00	 DD	 $L194848
  012bb	9c ff ff ff	 DD	 -100			; ffffff9cH
  012bf	04 00 00 00	 DD	 4
  012c3	00 00 00 00	 DD	 $L194849
  012c7	90 ff ff ff	 DD	 -112			; ffffff90H
  012cb	04 00 00 00	 DD	 4
  012cf	00 00 00 00	 DD	 $L194850
  012d3	78 ff ff ff	 DD	 -136			; ffffff78H
  012d7	10 00 00 00	 DD	 16			; 00000010H
  012db	00 00 00 00	 DD	 $L194851
  012df	60 ff ff ff	 DD	 -160			; ffffff60H
  012e3	10 00 00 00	 DD	 16			; 00000010H
  012e7	00 00 00 00	 DD	 $L194852
  012eb	54 ff ff ff	 DD	 -172			; ffffff54H
  012ef	04 00 00 00	 DD	 4
  012f3	00 00 00 00	 DD	 $L194853
  012f7	48 ff ff ff	 DD	 -184			; ffffff48H
  012fb	04 00 00 00	 DD	 4
  012ff	00 00 00 00	 DD	 $L194854
$L194854:
  01303	43		 DB	 67			; 00000043H
  01304	6c		 DB	 108			; 0000006cH
  01305	61		 DB	 97			; 00000061H
  01306	73		 DB	 115			; 00000073H
  01307	73		 DB	 115			; 00000073H
  01308	4e		 DB	 78			; 0000004eH
  01309	61		 DB	 97			; 00000061H
  0130a	6d		 DB	 109			; 0000006dH
  0130b	65		 DB	 101			; 00000065H
  0130c	00		 DB	 0
$L194853:
  0130d	43		 DB	 67			; 00000043H
  0130e	6c		 DB	 108			; 0000006cH
  0130f	61		 DB	 97			; 00000061H
  01310	73		 DB	 115			; 00000073H
  01311	73		 DB	 115			; 00000073H
  01312	4e		 DB	 78			; 0000004eH
  01313	61		 DB	 97			; 00000061H
  01314	6d		 DB	 109			; 0000006dH
  01315	65		 DB	 101			; 00000065H
  01316	00		 DB	 0
$L194852:
  01317	6c		 DB	 108			; 0000006cH
  01318	43		 DB	 67			; 00000043H
  01319	6c		 DB	 108			; 0000006cH
  0131a	69		 DB	 105			; 00000069H
  0131b	65		 DB	 101			; 00000065H
  0131c	6e		 DB	 110			; 0000006eH
  0131d	74		 DB	 116			; 00000074H
  0131e	00		 DB	 0
$L194851:
  0131f	6c		 DB	 108			; 0000006cH
  01320	72		 DB	 114			; 00000072H
  01321	65		 DB	 101			; 00000065H
  01322	63		 DB	 99			; 00000063H
  01323	74		 DB	 116			; 00000074H
  01324	00		 DB	 0
$L194850:
  01325	74		 DB	 116			; 00000074H
  01326	69		 DB	 105			; 00000069H
  01327	70		 DB	 112			; 00000070H
  01328	73		 DB	 115			; 00000073H
  01329	00		 DB	 0
$L194849:
  0132a	74		 DB	 116			; 00000074H
  0132b	69		 DB	 105			; 00000069H
  0132c	70		 DB	 112			; 00000070H
  0132d	73		 DB	 115			; 00000073H
  0132e	00		 DB	 0
$L194848:
  0132f	6c		 DB	 108			; 0000006cH
  01330	43		 DB	 67			; 00000043H
  01331	6c		 DB	 108			; 0000006cH
  01332	69		 DB	 105			; 00000069H
  01333	65		 DB	 101			; 00000065H
  01334	6e		 DB	 110			; 0000006eH
  01335	74		 DB	 116			; 00000074H
  01336	00		 DB	 0
$L194847:
  01337	6c		 DB	 108			; 0000006cH
  01338	72		 DB	 114			; 00000072H
  01339	65		 DB	 101			; 00000065H
  0133a	63		 DB	 99			; 00000063H
  0133b	74		 DB	 116			; 00000074H
  0133c	00		 DB	 0
_TEXT	ENDS
text$x	SEGMENT
$L194829:
  0014b	8b f4		 mov	 esi, esp
  0014d	8d 8d 10 ff ff
	ff		 lea	 ecx, DWORD PTR $T194810[ebp]
  00153	ff 15 00 00 00
	00		 call	 DWORD PTR __imp_??1?$CStringT@DV?$StrTraitMFC_DLL@DV?$ChTraitsCRT@D@ATL@@@@@ATL@@QAE@XZ
  00159	3b f4		 cmp	 esi, esp
  0015b	e9 00 00 00 00	 jmp	 __RTC_CheckEsp
$L194830:
  00160	8b f4		 mov	 esi, esp
  00162	8d 8d 0c ff ff
	ff		 lea	 ecx, DWORD PTR $T194811[ebp]
  00168	ff 15 00 00 00
	00		 call	 DWORD PTR __imp_??1?$CStringT@DV?$StrTraitMFC_DLL@DV?$ChTraitsCRT@D@ATL@@@@@ATL@@QAE@XZ
  0016e	3b f4		 cmp	 esi, esp
  00170	e9 00 00 00 00	 jmp	 __RTC_CheckEsp
$L194831:
  00175	8b f4		 mov	 esi, esp
  00177	8d 4d 9c	 lea	 ecx, DWORD PTR _tips$191968[ebp]
  0017a	ff 15 00 00 00
	00		 call	 DWORD PTR __imp_??1?$CStringT@DV?$StrTraitMFC_DLL@DV?$ChTraitsCRT@D@ATL@@@@@ATL@@QAE@XZ
  00180	3b f4		 cmp	 esi, esp
  00182	e9 00 00 00 00	 jmp	 __RTC_CheckEsp
$L194832:
  00187	8b f4		 mov	 esi, esp
  00189	8b 8d 08 ff ff
	ff		 mov	 ecx, DWORD PTR $T194812[ebp]
  0018f	ff 15 00 00 00
	00		 call	 DWORD PTR __imp_??1?$CStringT@DV?$StrTraitMFC_DLL@DV?$ChTraitsCRT@D@ATL@@@@@ATL@@QAE@XZ
  00195	3b f4		 cmp	 esi, esp
  00197	e9 00 00 00 00	 jmp	 __RTC_CheckEsp
$L194833:
  0019c	8b f4		 mov	 esi, esp
  0019e	8b 8d 04 ff ff
	ff		 mov	 ecx, DWORD PTR $T194813[ebp]
  001a4	ff 15 00 00 00
	00		 call	 DWORD PTR __imp_??1?$CStringT@DV?$StrTraitMFC_DLL@DV?$ChTraitsCRT@D@ATL@@@@@ATL@@QAE@XZ
  001aa	3b f4		 cmp	 esi, esp
  001ac	e9 00 00 00 00	 jmp	 __RTC_CheckEsp
$L194835:
  001b1	8b f4		 mov	 esi, esp
  001b3	8d 8d fc fe ff
	ff		 lea	 ecx, DWORD PTR $T194815[ebp]
  001b9	ff 15 00 00 00
	00		 call	 DWORD PTR __imp_??1?$CStringT@DV?$StrTraitMFC_DLL@DV?$ChTraitsCRT@D@ATL@@@@@ATL@@QAE@XZ
  001bf	3b f4		 cmp	 esi, esp
  001c1	e9 00 00 00 00	 jmp	 __RTC_CheckEsp
$L194836:
  001c6	8b f4		 mov	 esi, esp
  001c8	8d 8d f8 fe ff
	ff		 lea	 ecx, DWORD PTR $T194816[ebp]
  001ce	ff 15 00 00 00
	00		 call	 DWORD PTR __imp_??1?$CStringT@DV?$StrTraitMFC_DLL@DV?$ChTraitsCRT@D@ATL@@@@@ATL@@QAE@XZ
  001d4	3b f4		 cmp	 esi, esp
  001d6	e9 00 00 00 00	 jmp	 __RTC_CheckEsp
$L194837:
  001db	8b f4		 mov	 esi, esp
  001dd	8d 4d 90	 lea	 ecx, DWORD PTR _tips$191978[ebp]
  001e0	ff 15 00 00 00
	00		 call	 DWORD PTR __imp_??1?$CStringT@DV?$StrTraitMFC_DLL@DV?$ChTraitsCRT@D@ATL@@@@@ATL@@QAE@XZ
  001e6	3b f4		 cmp	 esi, esp
  001e8	e9 00 00 00 00	 jmp	 __RTC_CheckEsp
$L194838:
  001ed	8b f4		 mov	 esi, esp
  001ef	8b 8d f4 fe ff
	ff		 mov	 ecx, DWORD PTR $T194817[ebp]
  001f5	ff 15 00 00 00
	00		 call	 DWORD PTR __imp_??1?$CStringT@DV?$StrTraitMFC_DLL@DV?$ChTraitsCRT@D@ATL@@@@@ATL@@QAE@XZ
  001fb	3b f4		 cmp	 esi, esp
  001fd	e9 00 00 00 00	 jmp	 __RTC_CheckEsp
$L194839:
  00202	8b f4		 mov	 esi, esp
  00204	8b 8d f0 fe ff
	ff		 mov	 ecx, DWORD PTR $T194818[ebp]
  0020a	ff 15 00 00 00
	00		 call	 DWORD PTR __imp_??1?$CStringT@DV?$StrTraitMFC_DLL@DV?$ChTraitsCRT@D@ATL@@@@@ATL@@QAE@XZ
  00210	3b f4		 cmp	 esi, esp
  00212	e9 00 00 00 00	 jmp	 __RTC_CheckEsp
$L194841:
  00217	8b 85 e4 fe ff
	ff		 mov	 eax, DWORD PTR $T194821[ebp]
  0021d	50		 push	 eax
  0021e	e8 00 00 00 00	 call	 ??3CObject@@SGXPAX@Z	; CObject::operator delete
  00223	c3		 ret	 0
$L194842:
  00224	8b f4		 mov	 esi, esp
  00226	8d 8d 54 ff ff
	ff		 lea	 ecx, DWORD PTR _ClassName$192004[ebp]
  0022c	ff 15 00 00 00
	00		 call	 DWORD PTR __imp_??1?$CStringT@DV?$StrTraitMFC_DLL@DV?$ChTraitsCRT@D@ATL@@@@@ATL@@QAE@XZ
  00232	3b f4		 cmp	 esi, esp
  00234	e9 00 00 00 00	 jmp	 __RTC_CheckEsp
$L194843:
  00239	8b 85 cc fe ff
	ff		 mov	 eax, DWORD PTR $T194826[ebp]
  0023f	50		 push	 eax
  00240	e8 00 00 00 00	 call	 ??3CObject@@SGXPAX@Z	; CObject::operator delete
  00245	c3		 ret	 0
$L194844:
  00246	8b f4		 mov	 esi, esp
  00248	8d 8d 48 ff ff
	ff		 lea	 ecx, DWORD PTR _ClassName$192020[ebp]
  0024e	ff 15 00 00 00
	00		 call	 DWORD PTR __imp_??1?$CStringT@DV?$StrTraitMFC_DLL@DV?$ChTraitsCRT@D@ATL@@@@@ATL@@QAE@XZ
  00254	3b f4		 cmp	 esi, esp
  00256	e9 00 00 00 00	 jmp	 __RTC_CheckEsp
__ehhandler$?PopSkinWnd@CSkinMgrV1@@UAEHPAVCWnd@@IUtagPOINT@@@Z:
  0025b	b8 00 00 00 00	 mov	 eax, OFFSET FLAT:$T194846
  00260	e9 00 00 00 00	 jmp	 ___CxxFrameHandler
text$x	ENDS
?PopSkinWnd@CSkinMgrV1@@UAEHPAVCWnd@@IUtagPOINT@@@Z ENDP ; CSkinMgrV1::PopSkinWnd
; Function compile flags: /Odt /RTCsu
; File d:\boxgit\playbox\playbox\dev\prj\playbox\src\layoutmgr\changecolor\mainskinwnd.h
;	COMDAT ?SetListener@CMainSkinWnd@@QAEXPAVIEventListener@@@Z
_TEXT	SEGMENT
_this$ = -4						; size = 4
_apListtener$ = 8					; size = 4
?SetListener@CMainSkinWnd@@QAEXPAVIEventListener@@@Z PROC NEAR ; CMainSkinWnd::SetListener, COMDAT
; _this$ = ecx

; 46   : 	void SetListener( IEventListener* apListtener ) { mp_EventListener = apListtener; }

  00000	55		 push	 ebp
  00001	8b ec		 mov	 ebp, esp
  00003	51		 push	 ecx
  00004	c7 45 fc cc cc
	cc cc		 mov	 DWORD PTR [ebp-4], -858993460 ; ccccccccH
  0000b	89 4d fc	 mov	 DWORD PTR _this$[ebp], ecx
  0000e	8b 45 fc	 mov	 eax, DWORD PTR _this$[ebp]
  00011	8b 4d 08	 mov	 ecx, DWORD PTR _apListtener$[ebp]
  00014	89 88 dc 00 00
	00		 mov	 DWORD PTR [eax+220], ecx
  0001a	8b e5		 mov	 esp, ebp
  0001c	5d		 pop	 ebp
  0001d	c2 04 00	 ret	 4
?SetListener@CMainSkinWnd@@QAEXPAVIEventListener@@@Z ENDP ; CMainSkinWnd::SetListener
; Function compile flags: /Odt /RTCsu
_TEXT	ENDS
;	COMDAT ?SetWndListener@CMainSkinWnd@@QAEXPAVIWndEventListener@@@Z
_TEXT	SEGMENT
_this$ = -4						; size = 4
_pWndListener$ = 8					; size = 4
?SetWndListener@CMainSkinWnd@@QAEXPAVIWndEventListener@@@Z PROC NEAR ; CMainSkinWnd::SetWndListener, COMDAT
; _this$ = ecx

; 47   : 	void SetWndListener(IWndEventListener* pWndListener){ mp_WndListener = pWndListener; }

  00000	55		 push	 ebp
  00001	8b ec		 mov	 ebp, esp
  00003	51		 push	 ecx
  00004	c7 45 fc cc cc
	cc cc		 mov	 DWORD PTR [ebp-4], -858993460 ; ccccccccH
  0000b	89 4d fc	 mov	 DWORD PTR _this$[ebp], ecx
  0000e	8b 45 fc	 mov	 eax, DWORD PTR _this$[ebp]
  00011	8b 4d 08	 mov	 ecx, DWORD PTR _pWndListener$[ebp]
  00014	89 88 e0 00 00
	00		 mov	 DWORD PTR [eax+224], ecx
  0001a	8b e5		 mov	 esp, ebp
  0001c	5d		 pop	 ebp
  0001d	c2 04 00	 ret	 4
?SetWndListener@CMainSkinWnd@@QAEXPAVIWndEventListener@@@Z ENDP ; CMainSkinWnd::SetWndListener
; Function compile flags: /Odt /RTCsu
; File d:\boxgit\playbox\playbox\dev\prj\playbox\src\layoutmgr\changecolor\skinwnd.h
_TEXT	ENDS
;	COMDAT ?SetSendEventListener@CSkinWnd@@QAEXPAVIEventListener@@@Z
_TEXT	SEGMENT
_this$ = -4						; size = 4
_aEventListener$ = 8					; size = 4
?SetSendEventListener@CSkinWnd@@QAEXPAVIEventListener@@@Z PROC NEAR ; CSkinWnd::SetSendEventListener, COMDAT
; _this$ = ecx

; 43   : 	void SetSendEventListener(IEventListener* aEventListener ){mp_EventListener = aEventListener ;}

  00000	55		 push	 ebp
  00001	8b ec		 mov	 ebp, esp
  00003	51		 push	 ecx
  00004	c7 45 fc cc cc
	cc cc		 mov	 DWORD PTR [ebp-4], -858993460 ; ccccccccH
  0000b	89 4d fc	 mov	 DWORD PTR _this$[ebp], ecx
  0000e	8b 45 fc	 mov	 eax, DWORD PTR _this$[ebp]
  00011	8b 4d 08	 mov	 ecx, DWORD PTR _aEventListener$[ebp]
  00014	89 88 dc 02 00
	00		 mov	 DWORD PTR [eax+732], ecx
  0001a	8b e5		 mov	 esp, ebp
  0001c	5d		 pop	 ebp
  0001d	c2 04 00	 ret	 4
?SetSendEventListener@CSkinWnd@@QAEXPAVIEventListener@@@Z ENDP ; CSkinWnd::SetSendEventListener
; Function compile flags: /Odt /RTCsu
; File d:\boxgit\playbox\playbox\dev\prj\playbox\src\layoutmgr\changecolor\subjectchildwnd.h
_TEXT	ENDS
;	COMDAT ?SetSendEventListener@CSubjectChildWnd@@QAEXPAVIEventListener@@@Z
_TEXT	SEGMENT
_this$ = -4						; size = 4
_aEventListener$ = 8					; size = 4
?SetSendEventListener@CSubjectChildWnd@@QAEXPAVIEventListener@@@Z PROC NEAR ; CSubjectChildWnd::SetSendEventListener, COMDAT
; _this$ = ecx

; 25   : 	void SetSendEventListener(IEventListener* aEventListener ){mp_EventListener = aEventListener ;}	

  00000	55		 push	 ebp
  00001	8b ec		 mov	 ebp, esp
  00003	51		 push	 ecx
  00004	c7 45 fc cc cc
	cc cc		 mov	 DWORD PTR [ebp-4], -858993460 ; ccccccccH
  0000b	89 4d fc	 mov	 DWORD PTR _this$[ebp], ecx
  0000e	8b 45 fc	 mov	 eax, DWORD PTR _this$[ebp]
  00011	8b 4d 08	 mov	 ecx, DWORD PTR _aEventListener$[ebp]
  00014	89 88 f0 02 00
	00		 mov	 DWORD PTR [eax+752], ecx
  0001a	8b e5		 mov	 esp, ebp
  0001c	5d		 pop	 ebp
  0001d	c2 04 00	 ret	 4
?SetSendEventListener@CSubjectChildWnd@@QAEXPAVIEventListener@@@Z ENDP ; CSubjectChildWnd::SetSendEventListener
_TEXT	ENDS
EXTRN	??0CSkinWnd@@QAE@XZ:NEAR			; CSkinWnd::CSkinWnd
EXTRN	?InsertSmallSkin@CSkinWnd@@QAEXAAV?$basic_string@DU?$char_traits@D@std@@V?$allocator@D@2@@std@@PAVCBitmap@@V23@_N@Z:NEAR ; CSkinWnd::InsertSmallSkin
EXTRN	??0CSubjectChildWnd@@QAE@XZ:NEAR		; CSubjectChildWnd::CSubjectChildWnd
EXTRN	??0CMainSkinWnd@@QAE@XZ:NEAR			; CMainSkinWnd::CMainSkinWnd
EXTRN	__imp_??0?$basic_string@DU?$char_traits@D@std@@V?$allocator@D@2@@std@@QAE@ABV01@@Z:NEAR
EXTRN	??0CWebSubWnd@@QAE@XZ:NEAR			; CWebSubWnd::CWebSubWnd
xdata$x	SEGMENT
$T194893 DD	0ffffffffH
	DD	FLAT:$L194883
	DD	00H
	DD	FLAT:$L194884
	DD	01H
	DD	FLAT:$L194885
	DD	01H
	DD	FLAT:$L194886
	DD	01H
	DD	FLAT:$L194887
	DD	01H
	DD	FLAT:$L194888
$T194891 DD	019930520H
	DD	06H
	DD	FLAT:$T194893
	DD	2 DUP(00H)
	DD	2 DUP(00H)
; Function compile flags: /Odt /RTCsu
; File d:\boxgit\playbox\playbox\dev\prj\playbox\src\layoutmgr\changecolor\ichangecolormgr.cpp
xdata$x	ENDS
_TEXT	SEGMENT
tv163 = -76						; size = 4
tv135 = -72						; size = 4
tv95 = -68						; size = 4
tv87 = -64						; size = 4
tv79 = -60						; size = 4
$T194882 = -54						; size = 1
$T194881 = -53						; size = 1
$T194880 = -52						; size = 4
$T194877 = -48						; size = 4
$T194876 = -44						; size = 4
$T194873 = -40						; size = 4
$T194872 = -36						; size = 4
$T194869 = -32						; size = 4
$T194868 = -28						; size = 4
$T194865 = -24						; size = 4
$T194864 = -20						; size = 4
_this$ = -16						; size = 4
__$EHRec$ = -12						; size = 12
_astrName$ = 8						; size = 28
_apBmp$ = 36						; size = 4
_strPath$ = 40						; size = 28
_bHasSkin$ = 68						; size = 1
?InsertSmallSkin@CSkinMgrV1@@UAE_NV?$basic_string@DU?$char_traits@D@std@@V?$allocator@D@2@@std@@PAVCBitmap@@0_N@Z PROC NEAR ; CSkinMgrV1::InsertSmallSkin
; _this$ = ecx

; 278  : {

  01340	55		 push	 ebp
  01341	8b ec		 mov	 ebp, esp
  01343	6a ff		 push	 -1
  01345	68 00 00 00 00	 push	 __ehhandler$?InsertSmallSkin@CSkinMgrV1@@UAE_NV?$basic_string@DU?$char_traits@D@std@@V?$allocator@D@2@@std@@PAVCBitmap@@0_N@Z
  0134a	64 a1 00 00 00
	00		 mov	 eax, DWORD PTR fs:__except_list
  01350	50		 push	 eax
  01351	64 89 25 00 00
	00 00		 mov	 DWORD PTR fs:__except_list, esp
  01358	83 ec 40	 sub	 esp, 64			; 00000040H
  0135b	56		 push	 esi
  0135c	57		 push	 edi
  0135d	51		 push	 ecx
  0135e	8d 7d b4	 lea	 edi, DWORD PTR [ebp-76]
  01361	b9 10 00 00 00	 mov	 ecx, 16			; 00000010H
  01366	b8 cc cc cc cc	 mov	 eax, -858993460		; ccccccccH
  0136b	f3 ab		 rep stosd
  0136d	59		 pop	 ecx
  0136e	89 4d f0	 mov	 DWORD PTR _this$[ebp], ecx
  01371	c7 45 fc 01 00
	00 00		 mov	 DWORD PTR __$EHRec$[ebp+8], 1

; 279  : 	if( !mb_HasPopWnd)

  01378	8b 45 f0	 mov	 eax, DWORD PTR _this$[ebp]
  0137b	0f b6 48 48	 movzx	 ecx, BYTE PTR [eax+72]
  0137f	85 c9		 test	 ecx, ecx
  01381	0f 85 72 01 00
	00		 jne	 $L192031

; 280  : 	{
; 281  : 		if(NULL == mp_mainSkinWnd)

  01387	8b 55 f0	 mov	 edx, DWORD PTR _this$[ebp]
  0138a	83 7a 10 00	 cmp	 DWORD PTR [edx+16], 0
  0138e	0f 85 f8 00 00
	00		 jne	 $L192032

; 282  : 		{
; 283  : 			mp_mainSkinWnd	= new CMainSkinWnd;

  01394	68 60 09 00 00	 push	 2400			; 00000960H
  01399	e8 00 00 00 00	 call	 ??2CObject@@SGPAXI@Z	; CObject::operator new
  0139e	89 45 e8	 mov	 DWORD PTR $T194865[ebp], eax
  013a1	c6 45 fc 02	 mov	 BYTE PTR __$EHRec$[ebp+8], 2
  013a5	83 7d e8 00	 cmp	 DWORD PTR $T194865[ebp], 0
  013a9	74 0d		 je	 SHORT $L194866
  013ab	8b 4d e8	 mov	 ecx, DWORD PTR $T194865[ebp]
  013ae	e8 00 00 00 00	 call	 ??0CMainSkinWnd@@QAE@XZ	; CMainSkinWnd::CMainSkinWnd
  013b3	89 45 c4	 mov	 DWORD PTR tv79[ebp], eax
  013b6	eb 07		 jmp	 SHORT $L194867
$L194866:
  013b8	c7 45 c4 00 00
	00 00		 mov	 DWORD PTR tv79[ebp], 0
$L194867:
  013bf	8b 45 c4	 mov	 eax, DWORD PTR tv79[ebp]
  013c2	89 45 ec	 mov	 DWORD PTR $T194864[ebp], eax
  013c5	c6 45 fc 01	 mov	 BYTE PTR __$EHRec$[ebp+8], 1
  013c9	8b 4d f0	 mov	 ecx, DWORD PTR _this$[ebp]
  013cc	8b 55 ec	 mov	 edx, DWORD PTR $T194864[ebp]
  013cf	89 51 10	 mov	 DWORD PTR [ecx+16], edx

; 284  : 			mp_skinWnd		= new CSkinWnd;

  013d2	68 e8 02 00 00	 push	 744			; 000002e8H
  013d7	e8 00 00 00 00	 call	 ??2CObject@@SGPAXI@Z	; CObject::operator new
  013dc	89 45 e0	 mov	 DWORD PTR $T194869[ebp], eax
  013df	c6 45 fc 03	 mov	 BYTE PTR __$EHRec$[ebp+8], 3
  013e3	83 7d e0 00	 cmp	 DWORD PTR $T194869[ebp], 0
  013e7	74 0d		 je	 SHORT $L194870
  013e9	8b 4d e0	 mov	 ecx, DWORD PTR $T194869[ebp]
  013ec	e8 00 00 00 00	 call	 ??0CSkinWnd@@QAE@XZ	; CSkinWnd::CSkinWnd
  013f1	89 45 c0	 mov	 DWORD PTR tv87[ebp], eax
  013f4	eb 07		 jmp	 SHORT $L194871
$L194870:
  013f6	c7 45 c0 00 00
	00 00		 mov	 DWORD PTR tv87[ebp], 0
$L194871:
  013fd	8b 45 c0	 mov	 eax, DWORD PTR tv87[ebp]
  01400	89 45 e4	 mov	 DWORD PTR $T194868[ebp], eax
  01403	c6 45 fc 01	 mov	 BYTE PTR __$EHRec$[ebp+8], 1
  01407	8b 4d f0	 mov	 ecx, DWORD PTR _this$[ebp]
  0140a	8b 55 e4	 mov	 edx, DWORD PTR $T194868[ebp]
  0140d	89 51 14	 mov	 DWORD PTR [ecx+20], edx

; 285  : 			mp_SubjectWnd	= new CSubjectChildWnd;

  01410	68 f4 02 00 00	 push	 756			; 000002f4H
  01415	e8 00 00 00 00	 call	 ??2CObject@@SGPAXI@Z	; CObject::operator new
  0141a	89 45 d8	 mov	 DWORD PTR $T194873[ebp], eax
  0141d	c6 45 fc 04	 mov	 BYTE PTR __$EHRec$[ebp+8], 4
  01421	83 7d d8 00	 cmp	 DWORD PTR $T194873[ebp], 0
  01425	74 0d		 je	 SHORT $L194874
  01427	8b 4d d8	 mov	 ecx, DWORD PTR $T194873[ebp]
  0142a	e8 00 00 00 00	 call	 ??0CSubjectChildWnd@@QAE@XZ ; CSubjectChildWnd::CSubjectChildWnd
  0142f	89 45 bc	 mov	 DWORD PTR tv95[ebp], eax
  01432	eb 07		 jmp	 SHORT $L194875
$L194874:
  01434	c7 45 bc 00 00
	00 00		 mov	 DWORD PTR tv95[ebp], 0
$L194875:
  0143b	8b 45 bc	 mov	 eax, DWORD PTR tv95[ebp]
  0143e	89 45 dc	 mov	 DWORD PTR $T194872[ebp], eax
  01441	c6 45 fc 01	 mov	 BYTE PTR __$EHRec$[ebp+8], 1
  01445	8b 4d f0	 mov	 ecx, DWORD PTR _this$[ebp]
  01448	8b 55 dc	 mov	 edx, DWORD PTR $T194872[ebp]
  0144b	89 51 18	 mov	 DWORD PTR [ecx+24], edx

; 286  : 			mp_WebSubWnd	= new CWebSubWnd;

  0144e	68 bc 01 00 00	 push	 444			; 000001bcH
  01453	e8 00 00 00 00	 call	 ??2CObject@@SGPAXI@Z	; CObject::operator new
  01458	89 45 d0	 mov	 DWORD PTR $T194877[ebp], eax
  0145b	c6 45 fc 05	 mov	 BYTE PTR __$EHRec$[ebp+8], 5
  0145f	83 7d d0 00	 cmp	 DWORD PTR $T194877[ebp], 0
  01463	74 0d		 je	 SHORT $L194878
  01465	8b 4d d0	 mov	 ecx, DWORD PTR $T194877[ebp]
  01468	e8 00 00 00 00	 call	 ??0CWebSubWnd@@QAE@XZ	; CWebSubWnd::CWebSubWnd
  0146d	89 45 b8	 mov	 DWORD PTR tv135[ebp], eax
  01470	eb 07		 jmp	 SHORT $L194879
$L194878:
  01472	c7 45 b8 00 00
	00 00		 mov	 DWORD PTR tv135[ebp], 0
$L194879:
  01479	8b 45 b8	 mov	 eax, DWORD PTR tv135[ebp]
  0147c	89 45 d4	 mov	 DWORD PTR $T194876[ebp], eax
  0147f	c6 45 fc 01	 mov	 BYTE PTR __$EHRec$[ebp+8], 1
  01483	8b 4d f0	 mov	 ecx, DWORD PTR _this$[ebp]
  01486	8b 55 d4	 mov	 edx, DWORD PTR $T194876[ebp]
  01489	89 51 1c	 mov	 DWORD PTR [ecx+28], edx
$L192032:

; 287  : //			m_pToolTip = new CCWToolTips();
; 288  : 		}
; 289  : 
; 290  : 		mp_skinWnd->InsertSmallSkin(astrName,apBmp, strPath,bHasSkin);

  0148c	8a 45 44	 mov	 al, BYTE PTR _bHasSkin$[ebp]
  0148f	50		 push	 eax
  01490	83 ec 1c	 sub	 esp, 28			; 0000001cH
  01493	8b cc		 mov	 ecx, esp
  01495	89 65 cc	 mov	 DWORD PTR $T194880[ebp], esp
  01498	8b f4		 mov	 esi, esp
  0149a	8d 55 28	 lea	 edx, DWORD PTR _strPath$[ebp]
  0149d	52		 push	 edx
  0149e	ff 15 00 00 00
	00		 call	 DWORD PTR __imp_??0?$basic_string@DU?$char_traits@D@std@@V?$allocator@D@2@@std@@QAE@ABV01@@Z
  014a4	3b f4		 cmp	 esi, esp
  014a6	e8 00 00 00 00	 call	 __RTC_CheckEsp
  014ab	89 45 b4	 mov	 DWORD PTR tv163[ebp], eax
  014ae	8b 45 24	 mov	 eax, DWORD PTR _apBmp$[ebp]
  014b1	50		 push	 eax
  014b2	8d 4d 08	 lea	 ecx, DWORD PTR _astrName$[ebp]
  014b5	51		 push	 ecx
  014b6	8b 55 f0	 mov	 edx, DWORD PTR _this$[ebp]
  014b9	8b 4a 14	 mov	 ecx, DWORD PTR [edx+20]
  014bc	e8 00 00 00 00	 call	 ?InsertSmallSkin@CSkinWnd@@QAEXAAV?$basic_string@DU?$char_traits@D@std@@V?$allocator@D@2@@std@@PAVCBitmap@@V23@_N@Z ; CSkinWnd::InsertSmallSkin

; 291  : 		return true;

  014c1	c6 45 cb 01	 mov	 BYTE PTR $T194881[ebp], 1
  014c5	c6 45 fc 00	 mov	 BYTE PTR __$EHRec$[ebp+8], 0
  014c9	8b f4		 mov	 esi, esp
  014cb	8d 4d 08	 lea	 ecx, DWORD PTR _astrName$[ebp]
  014ce	ff 15 00 00 00
	00		 call	 DWORD PTR __imp_??1?$basic_string@DU?$char_traits@D@std@@V?$allocator@D@2@@std@@QAE@XZ
  014d4	3b f4		 cmp	 esi, esp
  014d6	e8 00 00 00 00	 call	 __RTC_CheckEsp
  014db	c7 45 fc ff ff
	ff ff		 mov	 DWORD PTR __$EHRec$[ebp+8], -1
  014e2	8b f4		 mov	 esi, esp
  014e4	8d 4d 28	 lea	 ecx, DWORD PTR _strPath$[ebp]
  014e7	ff 15 00 00 00
	00		 call	 DWORD PTR __imp_??1?$basic_string@DU?$char_traits@D@std@@V?$allocator@D@2@@std@@QAE@XZ
  014ed	3b f4		 cmp	 esi, esp
  014ef	e8 00 00 00 00	 call	 __RTC_CheckEsp
  014f4	8a 45 cb	 mov	 al, BYTE PTR $T194881[ebp]
  014f7	eb 36		 jmp	 SHORT $L192030
$L192031:

; 292  : 	}
; 293  : 	return false;

  014f9	c6 45 ca 00	 mov	 BYTE PTR $T194882[ebp], 0
  014fd	c6 45 fc 00	 mov	 BYTE PTR __$EHRec$[ebp+8], 0
  01501	8b f4		 mov	 esi, esp
  01503	8d 4d 08	 lea	 ecx, DWORD PTR _astrName$[ebp]
  01506	ff 15 00 00 00
	00		 call	 DWORD PTR __imp_??1?$basic_string@DU?$char_traits@D@std@@V?$allocator@D@2@@std@@QAE@XZ
  0150c	3b f4		 cmp	 esi, esp
  0150e	e8 00 00 00 00	 call	 __RTC_CheckEsp
  01513	c7 45 fc ff ff
	ff ff		 mov	 DWORD PTR __$EHRec$[ebp+8], -1
  0151a	8b f4		 mov	 esi, esp
  0151c	8d 4d 28	 lea	 ecx, DWORD PTR _strPath$[ebp]
  0151f	ff 15 00 00 00
	00		 call	 DWORD PTR __imp_??1?$basic_string@DU?$char_traits@D@std@@V?$allocator@D@2@@std@@QAE@XZ
  01525	3b f4		 cmp	 esi, esp
  01527	e8 00 00 00 00	 call	 __RTC_CheckEsp
  0152c	8a 45 ca	 mov	 al, BYTE PTR $T194882[ebp]
$L192030:

; 294  : }

  0152f	8b 4d f4	 mov	 ecx, DWORD PTR __$EHRec$[ebp]
  01532	64 89 0d 00 00
	00 00		 mov	 DWORD PTR fs:__except_list, ecx
  01539	5f		 pop	 edi
  0153a	5e		 pop	 esi
  0153b	83 c4 4c	 add	 esp, 76			; 0000004cH
  0153e	3b ec		 cmp	 ebp, esp
  01540	e8 00 00 00 00	 call	 __RTC_CheckEsp
  01545	8b e5		 mov	 esp, ebp
  01547	5d		 pop	 ebp
  01548	c2 40 00	 ret	 64			; 00000040H
_TEXT	ENDS
text$x	SEGMENT
$L194883:
  00265	8b f4		 mov	 esi, esp
  00267	8d 4d 28	 lea	 ecx, DWORD PTR _strPath$[ebp]
  0026a	ff 15 00 00 00
	00		 call	 DWORD PTR __imp_??1?$basic_string@DU?$char_traits@D@std@@V?$allocator@D@2@@std@@QAE@XZ
  00270	3b f4		 cmp	 esi, esp
  00272	e9 00 00 00 00	 jmp	 __RTC_CheckEsp
$L194884:
  00277	8b f4		 mov	 esi, esp
  00279	8d 4d 08	 lea	 ecx, DWORD PTR _astrName$[ebp]
  0027c	ff 15 00 00 00
	00		 call	 DWORD PTR __imp_??1?$basic_string@DU?$char_traits@D@std@@V?$allocator@D@2@@std@@QAE@XZ
  00282	3b f4		 cmp	 esi, esp
  00284	e9 00 00 00 00	 jmp	 __RTC_CheckEsp
$L194885:
  00289	8b 45 e8	 mov	 eax, DWORD PTR $T194865[ebp]
  0028c	50		 push	 eax
  0028d	e8 00 00 00 00	 call	 ??3CObject@@SGXPAX@Z	; CObject::operator delete
  00292	c3		 ret	 0
$L194886:
  00293	8b 45 e0	 mov	 eax, DWORD PTR $T194869[ebp]
  00296	50		 push	 eax
  00297	e8 00 00 00 00	 call	 ??3CObject@@SGXPAX@Z	; CObject::operator delete
  0029c	c3		 ret	 0
$L194887:
  0029d	8b 45 d8	 mov	 eax, DWORD PTR $T194873[ebp]
  002a0	50		 push	 eax
  002a1	e8 00 00 00 00	 call	 ??3CObject@@SGXPAX@Z	; CObject::operator delete
  002a6	c3		 ret	 0
$L194888:
  002a7	8b 45 d0	 mov	 eax, DWORD PTR $T194877[ebp]
  002aa	50		 push	 eax
  002ab	e8 00 00 00 00	 call	 ??3CObject@@SGXPAX@Z	; CObject::operator delete
  002b0	c3		 ret	 0
__ehhandler$?InsertSmallSkin@CSkinMgrV1@@UAE_NV?$basic_string@DU?$char_traits@D@std@@V?$allocator@D@2@@std@@PAVCBitmap@@0_N@Z:
  002b1	b8 00 00 00 00	 mov	 eax, OFFSET FLAT:$T194891
  002b6	e9 00 00 00 00	 jmp	 ___CxxFrameHandler
text$x	ENDS
?InsertSmallSkin@CSkinMgrV1@@UAE_NV?$basic_string@DU?$char_traits@D@std@@V?$allocator@D@2@@std@@PAVCBitmap@@0_N@Z ENDP ; CSkinMgrV1::InsertSmallSkin
EXTRN	?InsertSmallObjectBmp@CSubjectChildWnd@@QAEXAAV?$basic_string@DU?$char_traits@D@std@@V?$allocator@D@2@@std@@PAVCBitmap@@V23@_N@Z:NEAR ; CSubjectChildWnd::InsertSmallObjectBmp
xdata$x	SEGMENT
$T194924 DD	0ffffffffH
	DD	FLAT:$L194914
	DD	00H
	DD	FLAT:$L194915
	DD	01H
	DD	FLAT:$L194916
	DD	01H
	DD	FLAT:$L194917
	DD	01H
	DD	FLAT:$L194918
	DD	01H
	DD	FLAT:$L194919
$T194922 DD	019930520H
	DD	06H
	DD	FLAT:$T194924
	DD	2 DUP(00H)
	DD	2 DUP(00H)
; Function compile flags: /Odt /RTCsu
xdata$x	ENDS
_TEXT	SEGMENT
tv163 = -76						; size = 4
tv135 = -72						; size = 4
tv95 = -68						; size = 4
tv87 = -64						; size = 4
tv79 = -60						; size = 4
$T194913 = -54						; size = 1
$T194912 = -53						; size = 1
$T194911 = -52						; size = 4
$T194908 = -48						; size = 4
$T194907 = -44						; size = 4
$T194904 = -40						; size = 4
$T194903 = -36						; size = 4
$T194900 = -32						; size = 4
$T194899 = -28						; size = 4
$T194896 = -24						; size = 4
$T194895 = -20						; size = 4
_this$ = -16						; size = 4
__$EHRec$ = -12						; size = 12
_astrName$ = 8						; size = 28
_apBmp$ = 36						; size = 4
_strPath$ = 40						; size = 28
_bHasSkin$ = 68						; size = 1
?InsertSmallSubjectSkin@CSkinMgrV1@@UAE_NV?$basic_string@DU?$char_traits@D@std@@V?$allocator@D@2@@std@@PAVCBitmap@@0_N@Z PROC NEAR ; CSkinMgrV1::InsertSmallSubjectSkin
; _this$ = ecx

; 296  : {

  01550	55		 push	 ebp
  01551	8b ec		 mov	 ebp, esp
  01553	6a ff		 push	 -1
  01555	68 00 00 00 00	 push	 __ehhandler$?InsertSmallSubjectSkin@CSkinMgrV1@@UAE_NV?$basic_string@DU?$char_traits@D@std@@V?$allocator@D@2@@std@@PAVCBitmap@@0_N@Z
  0155a	64 a1 00 00 00
	00		 mov	 eax, DWORD PTR fs:__except_list
  01560	50		 push	 eax
  01561	64 89 25 00 00
	00 00		 mov	 DWORD PTR fs:__except_list, esp
  01568	83 ec 40	 sub	 esp, 64			; 00000040H
  0156b	56		 push	 esi
  0156c	57		 push	 edi
  0156d	51		 push	 ecx
  0156e	8d 7d b4	 lea	 edi, DWORD PTR [ebp-76]
  01571	b9 10 00 00 00	 mov	 ecx, 16			; 00000010H
  01576	b8 cc cc cc cc	 mov	 eax, -858993460		; ccccccccH
  0157b	f3 ab		 rep stosd
  0157d	59		 pop	 ecx
  0157e	89 4d f0	 mov	 DWORD PTR _this$[ebp], ecx
  01581	c7 45 fc 01 00
	00 00		 mov	 DWORD PTR __$EHRec$[ebp+8], 1

; 297  : 	if( !mb_HasPopWnd)

  01588	8b 45 f0	 mov	 eax, DWORD PTR _this$[ebp]
  0158b	0f b6 48 48	 movzx	 ecx, BYTE PTR [eax+72]
  0158f	85 c9		 test	 ecx, ecx
  01591	0f 85 72 01 00
	00		 jne	 $L192059

; 298  : 	{	
; 299  : 		if(NULL == mp_mainSkinWnd)

  01597	8b 55 f0	 mov	 edx, DWORD PTR _this$[ebp]
  0159a	83 7a 10 00	 cmp	 DWORD PTR [edx+16], 0
  0159e	0f 85 f8 00 00
	00		 jne	 $L192060

; 300  : 		{
; 301  : 			mp_mainSkinWnd	= new CMainSkinWnd;

  015a4	68 60 09 00 00	 push	 2400			; 00000960H
  015a9	e8 00 00 00 00	 call	 ??2CObject@@SGPAXI@Z	; CObject::operator new
  015ae	89 45 e8	 mov	 DWORD PTR $T194896[ebp], eax
  015b1	c6 45 fc 02	 mov	 BYTE PTR __$EHRec$[ebp+8], 2
  015b5	83 7d e8 00	 cmp	 DWORD PTR $T194896[ebp], 0
  015b9	74 0d		 je	 SHORT $L194897
  015bb	8b 4d e8	 mov	 ecx, DWORD PTR $T194896[ebp]
  015be	e8 00 00 00 00	 call	 ??0CMainSkinWnd@@QAE@XZ	; CMainSkinWnd::CMainSkinWnd
  015c3	89 45 c4	 mov	 DWORD PTR tv79[ebp], eax
  015c6	eb 07		 jmp	 SHORT $L194898
$L194897:
  015c8	c7 45 c4 00 00
	00 00		 mov	 DWORD PTR tv79[ebp], 0
$L194898:
  015cf	8b 45 c4	 mov	 eax, DWORD PTR tv79[ebp]
  015d2	89 45 ec	 mov	 DWORD PTR $T194895[ebp], eax
  015d5	c6 45 fc 01	 mov	 BYTE PTR __$EHRec$[ebp+8], 1
  015d9	8b 4d f0	 mov	 ecx, DWORD PTR _this$[ebp]
  015dc	8b 55 ec	 mov	 edx, DWORD PTR $T194895[ebp]
  015df	89 51 10	 mov	 DWORD PTR [ecx+16], edx

; 302  : 			mp_skinWnd		= new CSkinWnd;

  015e2	68 e8 02 00 00	 push	 744			; 000002e8H
  015e7	e8 00 00 00 00	 call	 ??2CObject@@SGPAXI@Z	; CObject::operator new
  015ec	89 45 e0	 mov	 DWORD PTR $T194900[ebp], eax
  015ef	c6 45 fc 03	 mov	 BYTE PTR __$EHRec$[ebp+8], 3
  015f3	83 7d e0 00	 cmp	 DWORD PTR $T194900[ebp], 0
  015f7	74 0d		 je	 SHORT $L194901
  015f9	8b 4d e0	 mov	 ecx, DWORD PTR $T194900[ebp]
  015fc	e8 00 00 00 00	 call	 ??0CSkinWnd@@QAE@XZ	; CSkinWnd::CSkinWnd
  01601	89 45 c0	 mov	 DWORD PTR tv87[ebp], eax
  01604	eb 07		 jmp	 SHORT $L194902
$L194901:
  01606	c7 45 c0 00 00
	00 00		 mov	 DWORD PTR tv87[ebp], 0
$L194902:
  0160d	8b 45 c0	 mov	 eax, DWORD PTR tv87[ebp]
  01610	89 45 e4	 mov	 DWORD PTR $T194899[ebp], eax
  01613	c6 45 fc 01	 mov	 BYTE PTR __$EHRec$[ebp+8], 1
  01617	8b 4d f0	 mov	 ecx, DWORD PTR _this$[ebp]
  0161a	8b 55 e4	 mov	 edx, DWORD PTR $T194899[ebp]
  0161d	89 51 14	 mov	 DWORD PTR [ecx+20], edx

; 303  : 			mp_SubjectWnd	= new CSubjectChildWnd;

  01620	68 f4 02 00 00	 push	 756			; 000002f4H
  01625	e8 00 00 00 00	 call	 ??2CObject@@SGPAXI@Z	; CObject::operator new
  0162a	89 45 d8	 mov	 DWORD PTR $T194904[ebp], eax
  0162d	c6 45 fc 04	 mov	 BYTE PTR __$EHRec$[ebp+8], 4
  01631	83 7d d8 00	 cmp	 DWORD PTR $T194904[ebp], 0
  01635	74 0d		 je	 SHORT $L194905
  01637	8b 4d d8	 mov	 ecx, DWORD PTR $T194904[ebp]
  0163a	e8 00 00 00 00	 call	 ??0CSubjectChildWnd@@QAE@XZ ; CSubjectChildWnd::CSubjectChildWnd
  0163f	89 45 bc	 mov	 DWORD PTR tv95[ebp], eax
  01642	eb 07		 jmp	 SHORT $L194906
$L194905:
  01644	c7 45 bc 00 00
	00 00		 mov	 DWORD PTR tv95[ebp], 0
$L194906:
  0164b	8b 45 bc	 mov	 eax, DWORD PTR tv95[ebp]
  0164e	89 45 dc	 mov	 DWORD PTR $T194903[ebp], eax
  01651	c6 45 fc 01	 mov	 BYTE PTR __$EHRec$[ebp+8], 1
  01655	8b 4d f0	 mov	 ecx, DWORD PTR _this$[ebp]
  01658	8b 55 dc	 mov	 edx, DWORD PTR $T194903[ebp]
  0165b	89 51 18	 mov	 DWORD PTR [ecx+24], edx

; 304  : 			mp_WebSubWnd	= new CWebSubWnd;

  0165e	68 bc 01 00 00	 push	 444			; 000001bcH
  01663	e8 00 00 00 00	 call	 ??2CObject@@SGPAXI@Z	; CObject::operator new
  01668	89 45 d0	 mov	 DWORD PTR $T194908[ebp], eax
  0166b	c6 45 fc 05	 mov	 BYTE PTR __$EHRec$[ebp+8], 5
  0166f	83 7d d0 00	 cmp	 DWORD PTR $T194908[ebp], 0
  01673	74 0d		 je	 SHORT $L194909
  01675	8b 4d d0	 mov	 ecx, DWORD PTR $T194908[ebp]
  01678	e8 00 00 00 00	 call	 ??0CWebSubWnd@@QAE@XZ	; CWebSubWnd::CWebSubWnd
  0167d	89 45 b8	 mov	 DWORD PTR tv135[ebp], eax
  01680	eb 07		 jmp	 SHORT $L194910
$L194909:
  01682	c7 45 b8 00 00
	00 00		 mov	 DWORD PTR tv135[ebp], 0
$L194910:
  01689	8b 45 b8	 mov	 eax, DWORD PTR tv135[ebp]
  0168c	89 45 d4	 mov	 DWORD PTR $T194907[ebp], eax
  0168f	c6 45 fc 01	 mov	 BYTE PTR __$EHRec$[ebp+8], 1
  01693	8b 4d f0	 mov	 ecx, DWORD PTR _this$[ebp]
  01696	8b 55 d4	 mov	 edx, DWORD PTR $T194907[ebp]
  01699	89 51 1c	 mov	 DWORD PTR [ecx+28], edx
$L192060:

; 305  : //			m_pToolTip = new CCWToolTips();
; 306  : 		}
; 307  : 
; 308  : 		mp_SubjectWnd->InsertSmallObjectBmp(astrName,apBmp, strPath,bHasSkin);

  0169c	8a 45 44	 mov	 al, BYTE PTR _bHasSkin$[ebp]
  0169f	50		 push	 eax
  016a0	83 ec 1c	 sub	 esp, 28			; 0000001cH
  016a3	8b cc		 mov	 ecx, esp
  016a5	89 65 cc	 mov	 DWORD PTR $T194911[ebp], esp
  016a8	8b f4		 mov	 esi, esp
  016aa	8d 55 28	 lea	 edx, DWORD PTR _strPath$[ebp]
  016ad	52		 push	 edx
  016ae	ff 15 00 00 00
	00		 call	 DWORD PTR __imp_??0?$basic_string@DU?$char_traits@D@std@@V?$allocator@D@2@@std@@QAE@ABV01@@Z
  016b4	3b f4		 cmp	 esi, esp
  016b6	e8 00 00 00 00	 call	 __RTC_CheckEsp
  016bb	89 45 b4	 mov	 DWORD PTR tv163[ebp], eax
  016be	8b 45 24	 mov	 eax, DWORD PTR _apBmp$[ebp]
  016c1	50		 push	 eax
  016c2	8d 4d 08	 lea	 ecx, DWORD PTR _astrName$[ebp]
  016c5	51		 push	 ecx
  016c6	8b 55 f0	 mov	 edx, DWORD PTR _this$[ebp]
  016c9	8b 4a 18	 mov	 ecx, DWORD PTR [edx+24]
  016cc	e8 00 00 00 00	 call	 ?InsertSmallObjectBmp@CSubjectChildWnd@@QAEXAAV?$basic_string@DU?$char_traits@D@std@@V?$allocator@D@2@@std@@PAVCBitmap@@V23@_N@Z ; CSubjectChildWnd::InsertSmallObjectBmp

; 309  : 		return true;

  016d1	c6 45 cb 01	 mov	 BYTE PTR $T194912[ebp], 1
  016d5	c6 45 fc 00	 mov	 BYTE PTR __$EHRec$[ebp+8], 0
  016d9	8b f4		 mov	 esi, esp
  016db	8d 4d 08	 lea	 ecx, DWORD PTR _astrName$[ebp]
  016de	ff 15 00 00 00
	00		 call	 DWORD PTR __imp_??1?$basic_string@DU?$char_traits@D@std@@V?$allocator@D@2@@std@@QAE@XZ
  016e4	3b f4		 cmp	 esi, esp
  016e6	e8 00 00 00 00	 call	 __RTC_CheckEsp
  016eb	c7 45 fc ff ff
	ff ff		 mov	 DWORD PTR __$EHRec$[ebp+8], -1
  016f2	8b f4		 mov	 esi, esp
  016f4	8d 4d 28	 lea	 ecx, DWORD PTR _strPath$[ebp]
  016f7	ff 15 00 00 00
	00		 call	 DWORD PTR __imp_??1?$basic_string@DU?$char_traits@D@std@@V?$allocator@D@2@@std@@QAE@XZ
  016fd	3b f4		 cmp	 esi, esp
  016ff	e8 00 00 00 00	 call	 __RTC_CheckEsp
  01704	8a 45 cb	 mov	 al, BYTE PTR $T194912[ebp]
  01707	eb 36		 jmp	 SHORT $L192058
$L192059:

; 310  : 	}
; 311  : 	return false;

  01709	c6 45 ca 00	 mov	 BYTE PTR $T194913[ebp], 0
  0170d	c6 45 fc 00	 mov	 BYTE PTR __$EHRec$[ebp+8], 0
  01711	8b f4		 mov	 esi, esp
  01713	8d 4d 08	 lea	 ecx, DWORD PTR _astrName$[ebp]
  01716	ff 15 00 00 00
	00		 call	 DWORD PTR __imp_??1?$basic_string@DU?$char_traits@D@std@@V?$allocator@D@2@@std@@QAE@XZ
  0171c	3b f4		 cmp	 esi, esp
  0171e	e8 00 00 00 00	 call	 __RTC_CheckEsp
  01723	c7 45 fc ff ff
	ff ff		 mov	 DWORD PTR __$EHRec$[ebp+8], -1
  0172a	8b f4		 mov	 esi, esp
  0172c	8d 4d 28	 lea	 ecx, DWORD PTR _strPath$[ebp]
  0172f	ff 15 00 00 00
	00		 call	 DWORD PTR __imp_??1?$basic_string@DU?$char_traits@D@std@@V?$allocator@D@2@@std@@QAE@XZ
  01735	3b f4		 cmp	 esi, esp
  01737	e8 00 00 00 00	 call	 __RTC_CheckEsp
  0173c	8a 45 ca	 mov	 al, BYTE PTR $T194913[ebp]
$L192058:

; 312  : }

  0173f	8b 4d f4	 mov	 ecx, DWORD PTR __$EHRec$[ebp]
  01742	64 89 0d 00 00
	00 00		 mov	 DWORD PTR fs:__except_list, ecx
  01749	5f		 pop	 edi
  0174a	5e		 pop	 esi
  0174b	83 c4 4c	 add	 esp, 76			; 0000004cH
  0174e	3b ec		 cmp	 ebp, esp
  01750	e8 00 00 00 00	 call	 __RTC_CheckEsp
  01755	8b e5		 mov	 esp, ebp
  01757	5d		 pop	 ebp
  01758	c2 40 00	 ret	 64			; 00000040H
_TEXT	ENDS
text$x	SEGMENT
$L194914:
  002bb	8b f4		 mov	 esi, esp
  002bd	8d 4d 28	 lea	 ecx, DWORD PTR _strPath$[ebp]
  002c0	ff 15 00 00 00
	00		 call	 DWORD PTR __imp_??1?$basic_string@DU?$char_traits@D@std@@V?$allocator@D@2@@std@@QAE@XZ
  002c6	3b f4		 cmp	 esi, esp
  002c8	e9 00 00 00 00	 jmp	 __RTC_CheckEsp
$L194915:
  002cd	8b f4		 mov	 esi, esp
  002cf	8d 4d 08	 lea	 ecx, DWORD PTR _astrName$[ebp]
  002d2	ff 15 00 00 00
	00		 call	 DWORD PTR __imp_??1?$basic_string@DU?$char_traits@D@std@@V?$allocator@D@2@@std@@QAE@XZ
  002d8	3b f4		 cmp	 esi, esp
  002da	e9 00 00 00 00	 jmp	 __RTC_CheckEsp
$L194916:
  002df	8b 45 e8	 mov	 eax, DWORD PTR $T194896[ebp]
  002e2	50		 push	 eax
  002e3	e8 00 00 00 00	 call	 ??3CObject@@SGXPAX@Z	; CObject::operator delete
  002e8	c3		 ret	 0
$L194917:
  002e9	8b 45 e0	 mov	 eax, DWORD PTR $T194900[ebp]
  002ec	50		 push	 eax
  002ed	e8 00 00 00 00	 call	 ??3CObject@@SGXPAX@Z	; CObject::operator delete
  002f2	c3		 ret	 0
$L194918:
  002f3	8b 45 d8	 mov	 eax, DWORD PTR $T194904[ebp]
  002f6	50		 push	 eax
  002f7	e8 00 00 00 00	 call	 ??3CObject@@SGXPAX@Z	; CObject::operator delete
  002fc	c3		 ret	 0
$L194919:
  002fd	8b 45 d0	 mov	 eax, DWORD PTR $T194908[ebp]
  00300	50		 push	 eax
  00301	e8 00 00 00 00	 call	 ??3CObject@@SGXPAX@Z	; CObject::operator delete
  00306	c3		 ret	 0
__ehhandler$?InsertSmallSubjectSkin@CSkinMgrV1@@UAE_NV?$basic_string@DU?$char_traits@D@std@@V?$allocator@D@2@@std@@PAVCBitmap@@0_N@Z:
  00307	b8 00 00 00 00	 mov	 eax, OFFSET FLAT:$T194922
  0030c	e9 00 00 00 00	 jmp	 ___CxxFrameHandler
text$x	ENDS
?InsertSmallSubjectSkin@CSkinMgrV1@@UAE_NV?$basic_string@DU?$char_traits@D@std@@V?$allocator@D@2@@std@@PAVCBitmap@@0_N@Z ENDP ; CSkinMgrV1::InsertSmallSubjectSkin
EXTRN	?SetTipText@CSkinWnd@@QAEXV?$CStringT@DV?$StrTraitMFC_DLL@DV?$ChTraitsCRT@D@ATL@@@@@ATL@@0@Z:NEAR ; CSkinWnd::SetTipText
xdata$x	SEGMENT
$T194935 DD	0ffffffffH
	DD	FLAT:$L194928
	DD	00H
	DD	FLAT:$L194929
	DD	01H
	DD	FLAT:$L194930
$T194933 DD	019930520H
	DD	03H
	DD	FLAT:$T194935
	DD	2 DUP(00H)
	DD	2 DUP(00H)
; Function compile flags: /Odt /RTCsu
xdata$x	ENDS
_TEXT	SEGMENT
tv136 = -36						; size = 4
tv133 = -32						; size = 4
tv143 = -28						; size = 4
$T194927 = -24						; size = 4
$T194926 = -20						; size = 4
_this$ = -16						; size = 4
__$EHRec$ = -12						; size = 12
_astrName$ = 8						; size = 4
_strTip$ = 12						; size = 4
?SetTipText@CSkinMgrV1@@UAEXV?$CStringT@DV?$StrTraitMFC_DLL@DV?$ChTraitsCRT@D@ATL@@@@@ATL@@0@Z PROC NEAR ; CSkinMgrV1::SetTipText
; _this$ = ecx

; 316  : {

  01760	55		 push	 ebp
  01761	8b ec		 mov	 ebp, esp
  01763	6a ff		 push	 -1
  01765	68 00 00 00 00	 push	 __ehhandler$?SetTipText@CSkinMgrV1@@UAEXV?$CStringT@DV?$StrTraitMFC_DLL@DV?$ChTraitsCRT@D@ATL@@@@@ATL@@0@Z
  0176a	64 a1 00 00 00
	00		 mov	 eax, DWORD PTR fs:__except_list
  01770	50		 push	 eax
  01771	64 89 25 00 00
	00 00		 mov	 DWORD PTR fs:__except_list, esp
  01778	83 ec 18	 sub	 esp, 24			; 00000018H
  0177b	56		 push	 esi
  0177c	b8 cc cc cc cc	 mov	 eax, -858993460		; ccccccccH
  01781	89 45 dc	 mov	 DWORD PTR [ebp-36], eax
  01784	89 45 e0	 mov	 DWORD PTR [ebp-32], eax
  01787	89 45 e4	 mov	 DWORD PTR [ebp-28], eax
  0178a	89 45 e8	 mov	 DWORD PTR [ebp-24], eax
  0178d	89 45 ec	 mov	 DWORD PTR [ebp-20], eax
  01790	89 45 f0	 mov	 DWORD PTR [ebp-16], eax
  01793	89 4d f0	 mov	 DWORD PTR _this$[ebp], ecx
  01796	c7 45 fc 01 00
	00 00		 mov	 DWORD PTR __$EHRec$[ebp+8], 1

; 317  : 	if( mp_skinWnd )

  0179d	8b 45 f0	 mov	 eax, DWORD PTR _this$[ebp]
  017a0	83 78 14 00	 cmp	 DWORD PTR [eax+20], 0
  017a4	74 51		 je	 SHORT $L192085

; 318  : 		mp_skinWnd->SetTipText( astrName,strTip );

  017a6	51		 push	 ecx
  017a7	8b cc		 mov	 ecx, esp
  017a9	89 65 ec	 mov	 DWORD PTR $T194926[ebp], esp
  017ac	8b f4		 mov	 esi, esp
  017ae	8d 55 0c	 lea	 edx, DWORD PTR _strTip$[ebp]
  017b1	52		 push	 edx
  017b2	ff 15 00 00 00
	00		 call	 DWORD PTR __imp_??0?$CStringT@DV?$StrTraitMFC_DLL@DV?$ChTraitsCRT@D@ATL@@@@@ATL@@QAE@ABV01@@Z
  017b8	3b f4		 cmp	 esi, esp
  017ba	e8 00 00 00 00	 call	 __RTC_CheckEsp
  017bf	89 45 e4	 mov	 DWORD PTR tv143[ebp], eax
  017c2	8b 45 e4	 mov	 eax, DWORD PTR tv143[ebp]
  017c5	89 45 e0	 mov	 DWORD PTR tv133[ebp], eax
  017c8	c6 45 fc 02	 mov	 BYTE PTR __$EHRec$[ebp+8], 2
  017cc	51		 push	 ecx
  017cd	8b cc		 mov	 ecx, esp
  017cf	89 65 e8	 mov	 DWORD PTR $T194927[ebp], esp
  017d2	8b f4		 mov	 esi, esp
  017d4	8d 55 08	 lea	 edx, DWORD PTR _astrName$[ebp]
  017d7	52		 push	 edx
  017d8	ff 15 00 00 00
	00		 call	 DWORD PTR __imp_??0?$CStringT@DV?$StrTraitMFC_DLL@DV?$ChTraitsCRT@D@ATL@@@@@ATL@@QAE@ABV01@@Z
  017de	3b f4		 cmp	 esi, esp
  017e0	e8 00 00 00 00	 call	 __RTC_CheckEsp
  017e5	89 45 dc	 mov	 DWORD PTR tv136[ebp], eax
  017e8	8b 45 f0	 mov	 eax, DWORD PTR _this$[ebp]
  017eb	8b 48 14	 mov	 ecx, DWORD PTR [eax+20]
  017ee	c6 45 fc 01	 mov	 BYTE PTR __$EHRec$[ebp+8], 1
  017f2	e8 00 00 00 00	 call	 ?SetTipText@CSkinWnd@@QAEXV?$CStringT@DV?$StrTraitMFC_DLL@DV?$ChTraitsCRT@D@ATL@@@@@ATL@@0@Z ; CSkinWnd::SetTipText
$L192085:

; 319  : }

  017f7	c6 45 fc 00	 mov	 BYTE PTR __$EHRec$[ebp+8], 0
  017fb	8b f4		 mov	 esi, esp
  017fd	8d 4d 08	 lea	 ecx, DWORD PTR _astrName$[ebp]
  01800	ff 15 00 00 00
	00		 call	 DWORD PTR __imp_??1?$CStringT@DV?$StrTraitMFC_DLL@DV?$ChTraitsCRT@D@ATL@@@@@ATL@@QAE@XZ
  01806	3b f4		 cmp	 esi, esp
  01808	e8 00 00 00 00	 call	 __RTC_CheckEsp
  0180d	c7 45 fc ff ff
	ff ff		 mov	 DWORD PTR __$EHRec$[ebp+8], -1
  01814	8b f4		 mov	 esi, esp
  01816	8d 4d 0c	 lea	 ecx, DWORD PTR _strTip$[ebp]
  01819	ff 15 00 00 00
	00		 call	 DWORD PTR __imp_??1?$CStringT@DV?$StrTraitMFC_DLL@DV?$ChTraitsCRT@D@ATL@@@@@ATL@@QAE@XZ
  0181f	3b f4		 cmp	 esi, esp
  01821	e8 00 00 00 00	 call	 __RTC_CheckEsp
  01826	8b 4d f4	 mov	 ecx, DWORD PTR __$EHRec$[ebp]
  01829	64 89 0d 00 00
	00 00		 mov	 DWORD PTR fs:__except_list, ecx
  01830	5e		 pop	 esi
  01831	83 c4 24	 add	 esp, 36			; 00000024H
  01834	3b ec		 cmp	 ebp, esp
  01836	e8 00 00 00 00	 call	 __RTC_CheckEsp
  0183b	8b e5		 mov	 esp, ebp
  0183d	5d		 pop	 ebp
  0183e	c2 08 00	 ret	 8
_TEXT	ENDS
text$x	SEGMENT
$L194928:
  00311	8b f4		 mov	 esi, esp
  00313	8d 4d 0c	 lea	 ecx, DWORD PTR _strTip$[ebp]
  00316	ff 15 00 00 00
	00		 call	 DWORD PTR __imp_??1?$CStringT@DV?$StrTraitMFC_DLL@DV?$ChTraitsCRT@D@ATL@@@@@ATL@@QAE@XZ
  0031c	3b f4		 cmp	 esi, esp
  0031e	e9 00 00 00 00	 jmp	 __RTC_CheckEsp
$L194929:
  00323	8b f4		 mov	 esi, esp
  00325	8d 4d 08	 lea	 ecx, DWORD PTR _astrName$[ebp]
  00328	ff 15 00 00 00
	00		 call	 DWORD PTR __imp_??1?$CStringT@DV?$StrTraitMFC_DLL@DV?$ChTraitsCRT@D@ATL@@@@@ATL@@QAE@XZ
  0032e	3b f4		 cmp	 esi, esp
  00330	e9 00 00 00 00	 jmp	 __RTC_CheckEsp
$L194930:
  00335	8b f4		 mov	 esi, esp
  00337	8b 4d ec	 mov	 ecx, DWORD PTR $T194926[ebp]
  0033a	ff 15 00 00 00
	00		 call	 DWORD PTR __imp_??1?$CStringT@DV?$StrTraitMFC_DLL@DV?$ChTraitsCRT@D@ATL@@@@@ATL@@QAE@XZ
  00340	3b f4		 cmp	 esi, esp
  00342	e9 00 00 00 00	 jmp	 __RTC_CheckEsp
__ehhandler$?SetTipText@CSkinMgrV1@@UAEXV?$CStringT@DV?$StrTraitMFC_DLL@DV?$ChTraitsCRT@D@ATL@@@@@ATL@@0@Z:
  00347	b8 00 00 00 00	 mov	 eax, OFFSET FLAT:$T194933
  0034c	e9 00 00 00 00	 jmp	 ___CxxFrameHandler
text$x	ENDS
?SetTipText@CSkinMgrV1@@UAEXV?$CStringT@DV?$StrTraitMFC_DLL@DV?$ChTraitsCRT@D@ATL@@@@@ATL@@0@Z ENDP ; CSkinMgrV1::SetTipText
PUBLIC	??1DIBINFO@@UAE@XZ				; DIBINFO::~DIBINFO
EXTRN	?gBitMapOperate@@3VCBitMapOperate@@A:BYTE	; gBitMapOperate
EXTRN	?ChangeBmpSkin@CBitMapOperate@@QAEPAVDIBINFO@@AAV2@AAIAAK21@Z:NEAR ; CBitMapOperate::ChangeBmpSkin
xdata$x	SEGMENT
$T194942 DD	0ffffffffH
	DD	FLAT:$L194938
$T194940 DD	019930520H
	DD	01H
	DD	FLAT:$T194942
	DD	2 DUP(00H)
	DD	2 DUP(00H)
; Function compile flags: /Odt /RTCsu
xdata$x	ENDS
_TEXT	SEGMENT
$T194937 = -20						; size = 4
_this$ = -16						; size = 4
__$EHRec$ = -12						; size = 12
_ahSourceDib$ = 8					; size = 24
_aColorGroup$ = 32					; size = 4
_aMaskColor$ = 36					; size = 4
?ChangeBmp@CSkinMgrV1@@UAEPAVDIBINFO@@V2@IK@Z PROC NEAR	; CSkinMgrV1::ChangeBmp
; _this$ = ecx

; 322  : {

  01850	55		 push	 ebp
  01851	8b ec		 mov	 ebp, esp
  01853	6a ff		 push	 -1
  01855	68 00 00 00 00	 push	 __ehhandler$?ChangeBmp@CSkinMgrV1@@UAEPAVDIBINFO@@V2@IK@Z
  0185a	64 a1 00 00 00
	00		 mov	 eax, DWORD PTR fs:__except_list
  01860	50		 push	 eax
  01861	64 89 25 00 00
	00 00		 mov	 DWORD PTR fs:__except_list, esp
  01868	83 ec 08	 sub	 esp, 8
  0186b	c7 45 ec cc cc
	cc cc		 mov	 DWORD PTR [ebp-20], -858993460 ; ccccccccH
  01872	c7 45 f0 cc cc
	cc cc		 mov	 DWORD PTR [ebp-16], -858993460 ; ccccccccH
  01879	89 4d f0	 mov	 DWORD PTR _this$[ebp], ecx
  0187c	c7 45 fc 00 00
	00 00		 mov	 DWORD PTR __$EHRec$[ebp+8], 0

; 323  : 	return gBitMapOperate.ChangeBmpSkin(ahSourceDib,aColorGroup,m_BaseColor,aMaskColor,m_nLightPos);

  01883	8b 45 f0	 mov	 eax, DWORD PTR _this$[ebp]
  01886	83 c0 30	 add	 eax, 48			; 00000030H
  01889	50		 push	 eax
  0188a	8d 4d 24	 lea	 ecx, DWORD PTR _aMaskColor$[ebp]
  0188d	51		 push	 ecx
  0188e	8b 55 f0	 mov	 edx, DWORD PTR _this$[ebp]
  01891	83 c2 28	 add	 edx, 40			; 00000028H
  01894	52		 push	 edx
  01895	8d 45 20	 lea	 eax, DWORD PTR _aColorGroup$[ebp]
  01898	50		 push	 eax
  01899	8d 4d 08	 lea	 ecx, DWORD PTR _ahSourceDib$[ebp]
  0189c	51		 push	 ecx
  0189d	b9 00 00 00 00	 mov	 ecx, OFFSET FLAT:?gBitMapOperate@@3VCBitMapOperate@@A
  018a2	e8 00 00 00 00	 call	 ?ChangeBmpSkin@CBitMapOperate@@QAEPAVDIBINFO@@AAV2@AAIAAK21@Z ; CBitMapOperate::ChangeBmpSkin
  018a7	89 45 ec	 mov	 DWORD PTR $T194937[ebp], eax
  018aa	c7 45 fc ff ff
	ff ff		 mov	 DWORD PTR __$EHRec$[ebp+8], -1
  018b1	8d 4d 08	 lea	 ecx, DWORD PTR _ahSourceDib$[ebp]
  018b4	e8 00 00 00 00	 call	 ??1DIBINFO@@UAE@XZ	; DIBINFO::~DIBINFO
  018b9	8b 45 ec	 mov	 eax, DWORD PTR $T194937[ebp]

; 324  : }

  018bc	8b 4d f4	 mov	 ecx, DWORD PTR __$EHRec$[ebp]
  018bf	64 89 0d 00 00
	00 00		 mov	 DWORD PTR fs:__except_list, ecx
  018c6	83 c4 14	 add	 esp, 20			; 00000014H
  018c9	3b ec		 cmp	 ebp, esp
  018cb	e8 00 00 00 00	 call	 __RTC_CheckEsp
  018d0	8b e5		 mov	 esp, ebp
  018d2	5d		 pop	 ebp
  018d3	c2 20 00	 ret	 32			; 00000020H
_TEXT	ENDS
text$x	SEGMENT
$L194938:
  00351	8d 4d 08	 lea	 ecx, DWORD PTR _ahSourceDib$[ebp]
  00354	e9 00 00 00 00	 jmp	 ??1DIBINFO@@UAE@XZ	; DIBINFO::~DIBINFO
__ehhandler$?ChangeBmp@CSkinMgrV1@@UAEPAVDIBINFO@@V2@IK@Z:
  00359	b8 00 00 00 00	 mov	 eax, OFFSET FLAT:$T194940
  0035e	e9 00 00 00 00	 jmp	 ___CxxFrameHandler
text$x	ENDS
?ChangeBmp@CSkinMgrV1@@UAEPAVDIBINFO@@V2@IK@Z ENDP	; CSkinMgrV1::ChangeBmp
PUBLIC	??_R4DIBINFO@@6B@				; DIBINFO::`RTTI Complete Object Locator'
PUBLIC	??_R0?AVDIBINFO@@@8				; DIBINFO `RTTI Type Descriptor'
PUBLIC	??_R3DIBINFO@@8					; DIBINFO::`RTTI Class Hierarchy Descriptor'
PUBLIC	??_R2DIBINFO@@8					; DIBINFO::`RTTI Base Class Array'
PUBLIC	??_R1A@?0A@A@DIBINFO@@8				; DIBINFO::`RTTI Base Class Descriptor at (0,-1,0,0)'
PUBLIC	??_7DIBINFO@@6B@				; DIBINFO::`vftable'
PUBLIC	??_GDIBINFO@@UAEPAXI@Z				; DIBINFO::`scalar deleting destructor'
EXTRN	??_EDIBINFO@@UAEPAXI@Z:NEAR			; DIBINFO::`vector deleting destructor'
EXTRN	_memset:NEAR
;	COMDAT ??_7DIBINFO@@6B@
; File d:\boxgit\playbox\playbox\dev\prj\playbox\src\layoutmgr\changecolor\bitmapoperate.h
CONST	SEGMENT
??_7DIBINFO@@6B@ DD FLAT:??_R4DIBINFO@@6B@		; DIBINFO::`vftable'
	DD	FLAT:??_EDIBINFO@@UAEPAXI@Z
CONST	ENDS
;	COMDAT ??_R4DIBINFO@@6B@
rdata$r	SEGMENT
??_R4DIBINFO@@6B@ DD 00H				; DIBINFO::`RTTI Complete Object Locator'
	DD	00H
	DD	00H
	DD	FLAT:??_R0?AVDIBINFO@@@8
	DD	FLAT:??_R3DIBINFO@@8
rdata$r	ENDS
;	COMDAT ??_R0?AVDIBINFO@@@8
_DATA	SEGMENT
??_R0?AVDIBINFO@@@8 DD FLAT:??_7type_info@@6B@		; DIBINFO `RTTI Type Descriptor'
	DD	00H
	DB	'.?AVDIBINFO@@', 00H
_DATA	ENDS
;	COMDAT ??_R3DIBINFO@@8
rdata$r	SEGMENT
??_R3DIBINFO@@8 DD 00H					; DIBINFO::`RTTI Class Hierarchy Descriptor'
	DD	00H
	DD	01H
	DD	FLAT:??_R2DIBINFO@@8
rdata$r	ENDS
;	COMDAT ??_R2DIBINFO@@8
rdata$r	SEGMENT
??_R2DIBINFO@@8 DD FLAT:??_R1A@?0A@A@DIBINFO@@8		; DIBINFO::`RTTI Base Class Array'
rdata$r	ENDS
;	COMDAT ??_R1A@?0A@A@DIBINFO@@8
rdata$r	SEGMENT
??_R1A@?0A@A@DIBINFO@@8 DD FLAT:??_R0?AVDIBINFO@@@8	; DIBINFO::`RTTI Base Class Descriptor at (0,-1,0,0)'
	DD	00H
	DD	00H
	DD	0ffffffffH
	DD	00H
	DD	00H
; Function compile flags: /Odt /RTCsu
rdata$r	ENDS
;	COMDAT ??1DIBINFO@@UAE@XZ
_TEXT	SEGMENT
_this$ = -4						; size = 4
??1DIBINFO@@UAE@XZ PROC NEAR				; DIBINFO::~DIBINFO, COMDAT
; _this$ = ecx

; 25   : 	{

  00000	55		 push	 ebp
  00001	8b ec		 mov	 ebp, esp
  00003	51		 push	 ecx
  00004	c7 45 fc cc cc
	cc cc		 mov	 DWORD PTR [ebp-4], -858993460 ; ccccccccH
  0000b	89 4d fc	 mov	 DWORD PTR _this$[ebp], ecx
  0000e	8b 45 fc	 mov	 eax, DWORD PTR _this$[ebp]
  00011	c7 00 00 00 00
	00		 mov	 DWORD PTR [eax], OFFSET FLAT:??_7DIBINFO@@6B@

; 26   : 		::ZeroMemory(this,sizeof(*this) );

  00017	6a 18		 push	 24			; 00000018H
  00019	6a 00		 push	 0
  0001b	8b 4d fc	 mov	 ecx, DWORD PTR _this$[ebp]
  0001e	51		 push	 ecx
  0001f	e8 00 00 00 00	 call	 _memset
  00024	83 c4 0c	 add	 esp, 12			; 0000000cH

; 27   : 	};

  00027	83 c4 04	 add	 esp, 4
  0002a	3b ec		 cmp	 ebp, esp
  0002c	e8 00 00 00 00	 call	 __RTC_CheckEsp
  00031	8b e5		 mov	 esp, ebp
  00033	5d		 pop	 ebp
  00034	c3		 ret	 0
??1DIBINFO@@UAE@XZ ENDP					; DIBINFO::~DIBINFO
; Function compile flags: /Odt /RTCsu
_TEXT	ENDS
;	COMDAT ??_GDIBINFO@@UAEPAXI@Z
_TEXT	SEGMENT
_this$ = -4						; size = 4
___flags$ = 8						; size = 4
??_GDIBINFO@@UAEPAXI@Z PROC NEAR			; DIBINFO::`scalar deleting destructor', COMDAT
; _this$ = ecx
  00000	55		 push	 ebp
  00001	8b ec		 mov	 ebp, esp
  00003	51		 push	 ecx
  00004	c7 45 fc cc cc
	cc cc		 mov	 DWORD PTR [ebp-4], -858993460 ; ccccccccH
  0000b	89 4d fc	 mov	 DWORD PTR _this$[ebp], ecx
  0000e	8b 4d fc	 mov	 ecx, DWORD PTR _this$[ebp]
  00011	e8 00 00 00 00	 call	 ??1DIBINFO@@UAE@XZ	; DIBINFO::~DIBINFO
  00016	8b 45 08	 mov	 eax, DWORD PTR ___flags$[ebp]
  00019	83 e0 01	 and	 eax, 1
  0001c	74 0c		 je	 SHORT $L187060
  0001e	8b 4d fc	 mov	 ecx, DWORD PTR _this$[ebp]
  00021	51		 push	 ecx
  00022	e8 00 00 00 00	 call	 ??3@YAXPAX@Z		; operator delete
  00027	83 c4 04	 add	 esp, 4
$L187060:
  0002a	8b 45 fc	 mov	 eax, DWORD PTR _this$[ebp]
  0002d	83 c4 04	 add	 esp, 4
  00030	3b ec		 cmp	 ebp, esp
  00032	e8 00 00 00 00	 call	 __RTC_CheckEsp
  00037	8b e5		 mov	 esp, ebp
  00039	5d		 pop	 ebp
  0003a	c2 04 00	 ret	 4
??_GDIBINFO@@UAEPAXI@Z ENDP				; DIBINFO::`scalar deleting destructor'
_TEXT	ENDS
EXTRN	?changeColor@CBitMapOperate@@QAEXAAKKI@Z:NEAR	; CBitMapOperate::changeColor
; Function compile flags: /Odt /RTCsu
; File d:\boxgit\playbox\playbox\dev\prj\playbox\src\layoutmgr\changecolor\ichangecolormgr.cpp
_TEXT	SEGMENT
_this$ = -4						; size = 4
_aColor$ = 8						; size = 4
?ChangeColor@CSkinMgrV1@@UAEXAAK@Z PROC NEAR		; CSkinMgrV1::ChangeColor
; _this$ = ecx

; 327  : {

  018e0	55		 push	 ebp
  018e1	8b ec		 mov	 ebp, esp
  018e3	51		 push	 ecx
  018e4	c7 45 fc cc cc
	cc cc		 mov	 DWORD PTR [ebp-4], -858993460 ; ccccccccH
  018eb	89 4d fc	 mov	 DWORD PTR _this$[ebp], ecx

; 328  : 	gBitMapOperate.changeColor(aColor,m_BaseColor,m_nLightPos);

  018ee	8b 45 fc	 mov	 eax, DWORD PTR _this$[ebp]
  018f1	8b 48 30	 mov	 ecx, DWORD PTR [eax+48]
  018f4	51		 push	 ecx
  018f5	8b 55 fc	 mov	 edx, DWORD PTR _this$[ebp]
  018f8	8b 42 28	 mov	 eax, DWORD PTR [edx+40]
  018fb	50		 push	 eax
  018fc	8b 4d 08	 mov	 ecx, DWORD PTR _aColor$[ebp]
  018ff	51		 push	 ecx
  01900	b9 00 00 00 00	 mov	 ecx, OFFSET FLAT:?gBitMapOperate@@3VCBitMapOperate@@A
  01905	e8 00 00 00 00	 call	 ?changeColor@CBitMapOperate@@QAEXAAKKI@Z ; CBitMapOperate::changeColor

; 329  : }

  0190a	83 c4 04	 add	 esp, 4
  0190d	3b ec		 cmp	 ebp, esp
  0190f	e8 00 00 00 00	 call	 __RTC_CheckEsp
  01914	8b e5		 mov	 esp, ebp
  01916	5d		 pop	 ebp
  01917	c2 04 00	 ret	 4
?ChangeColor@CSkinMgrV1@@UAEXAAK@Z ENDP			; CSkinMgrV1::ChangeColor
_TEXT	ENDS
PUBLIC	?size@?$vector@PAVIChangeSkinEventListener@@V?$allocator@PAVIChangeSkinEventListener@@@std@@@std@@QBEIXZ ; std::vector<IChangeSkinEventListener *,std::allocator<IChangeSkinEventListener *> >::size
PUBLIC	??A?$vector@PAVIChangeSkinEventListener@@V?$allocator@PAVIChangeSkinEventListener@@@std@@@std@@QAEAAPAVIChangeSkinEventListener@@I@Z ; std::vector<IChangeSkinEventListener *,std::allocator<IChangeSkinEventListener *> >::operator[]
PUBLIC	?push_back@?$vector@PAVIChangeSkinEventListener@@V?$allocator@PAVIChangeSkinEventListener@@@std@@@std@@QAEXABQAVIChangeSkinEventListener@@@Z ; std::vector<IChangeSkinEventListener *,std::allocator<IChangeSkinEventListener *> >::push_back
; Function compile flags: /Odt /RTCsu
_TEXT	SEGMENT
_idx$192103 = -8					; size = 4
_this$ = -4						; size = 4
_apListtener$ = 8					; size = 4
?SetListener@CSkinMgrV1@@UAEXPAVIChangeSkinEventListener@@@Z PROC NEAR ; CSkinMgrV1::SetListener
; _this$ = ecx

; 331  : {

  01920	55		 push	 ebp
  01921	8b ec		 mov	 ebp, esp
  01923	83 ec 08	 sub	 esp, 8
  01926	c7 45 f8 cc cc
	cc cc		 mov	 DWORD PTR [ebp-8], -858993460 ; ccccccccH
  0192d	c7 45 fc cc cc
	cc cc		 mov	 DWORD PTR [ebp-4], -858993460 ; ccccccccH
  01934	89 4d fc	 mov	 DWORD PTR _this$[ebp], ecx

; 332  : 	for(size_t idx = 0;idx < mp_changeSkinEven.size();idx++ )

  01937	c7 45 f8 00 00
	00 00		 mov	 DWORD PTR _idx$192103[ebp], 0
  0193e	eb 09		 jmp	 SHORT $L192104
$L192105:
  01940	8b 45 f8	 mov	 eax, DWORD PTR _idx$192103[ebp]
  01943	83 c0 01	 add	 eax, 1
  01946	89 45 f8	 mov	 DWORD PTR _idx$192103[ebp], eax
$L192104:
  01949	8b 4d fc	 mov	 ecx, DWORD PTR _this$[ebp]
  0194c	83 c1 38	 add	 ecx, 56			; 00000038H
  0194f	e8 00 00 00 00	 call	 ?size@?$vector@PAVIChangeSkinEventListener@@V?$allocator@PAVIChangeSkinEventListener@@@std@@@std@@QBEIXZ ; std::vector<IChangeSkinEventListener *,std::allocator<IChangeSkinEventListener *> >::size
  01954	39 45 f8	 cmp	 DWORD PTR _idx$192103[ebp], eax
  01957	73 1a		 jae	 SHORT $L192106

; 333  : 	{
; 334  : 		if( mp_changeSkinEven[idx] == apListtener )

  01959	8b 4d f8	 mov	 ecx, DWORD PTR _idx$192103[ebp]
  0195c	51		 push	 ecx
  0195d	8b 4d fc	 mov	 ecx, DWORD PTR _this$[ebp]
  01960	83 c1 38	 add	 ecx, 56			; 00000038H
  01963	e8 00 00 00 00	 call	 ??A?$vector@PAVIChangeSkinEventListener@@V?$allocator@PAVIChangeSkinEventListener@@@std@@@std@@QAEAAPAVIChangeSkinEventListener@@I@Z ; std::vector<IChangeSkinEventListener *,std::allocator<IChangeSkinEventListener *> >::operator[]
  01968	8b 10		 mov	 edx, DWORD PTR [eax]
  0196a	3b 55 08	 cmp	 edx, DWORD PTR _apListtener$[ebp]
  0196d	75 02		 jne	 SHORT $L192107

; 335  : 		{
; 336  : 			return;

  0196f	eb 11		 jmp	 SHORT $L192102
$L192107:

; 337  : 		}
; 338  : 	}

  01971	eb cd		 jmp	 SHORT $L192105
$L192106:

; 339  : 
; 340  : 	mp_changeSkinEven.push_back( apListtener );	

  01973	8d 45 08	 lea	 eax, DWORD PTR _apListtener$[ebp]
  01976	50		 push	 eax
  01977	8b 4d fc	 mov	 ecx, DWORD PTR _this$[ebp]
  0197a	83 c1 38	 add	 ecx, 56			; 00000038H
  0197d	e8 00 00 00 00	 call	 ?push_back@?$vector@PAVIChangeSkinEventListener@@V?$allocator@PAVIChangeSkinEventListener@@@std@@@std@@QAEXABQAVIChangeSkinEventListener@@@Z ; std::vector<IChangeSkinEventListener *,std::allocator<IChangeSkinEventListener *> >::push_back
$L192102:

; 341  : }

  01982	83 c4 08	 add	 esp, 8
  01985	3b ec		 cmp	 ebp, esp
  01987	e8 00 00 00 00	 call	 __RTC_CheckEsp
  0198c	8b e5		 mov	 esp, ebp
  0198e	5d		 pop	 ebp
  0198f	c2 04 00	 ret	 4
?SetListener@CSkinMgrV1@@UAEXPAVIChangeSkinEventListener@@@Z ENDP ; CSkinMgrV1::SetListener
_TEXT	ENDS
PUBLIC	??9const_iterator@?$vector@PAVIChangeSkinEventListener@@V?$allocator@PAVIChangeSkinEventListener@@@std@@@std@@QBE_NABV012@@Z ; std::vector<IChangeSkinEventListener *,std::allocator<IChangeSkinEventListener *> >::const_iterator::operator!=
PUBLIC	??Diterator@?$vector@PAVIChangeSkinEventListener@@V?$allocator@PAVIChangeSkinEventListener@@@std@@@std@@QBEAAPAVIChangeSkinEventListener@@XZ ; std::vector<IChangeSkinEventListener *,std::allocator<IChangeSkinEventListener *> >::iterator::operator*
PUBLIC	??Eiterator@?$vector@PAVIChangeSkinEventListener@@V?$allocator@PAVIChangeSkinEventListener@@@std@@@std@@QAE?AV012@H@Z ; std::vector<IChangeSkinEventListener *,std::allocator<IChangeSkinEventListener *> >::iterator::operator++
PUBLIC	?begin@?$vector@PAVIChangeSkinEventListener@@V?$allocator@PAVIChangeSkinEventListener@@@std@@@std@@QAE?AViterator@12@XZ ; std::vector<IChangeSkinEventListener *,std::allocator<IChangeSkinEventListener *> >::begin
PUBLIC	?end@?$vector@PAVIChangeSkinEventListener@@V?$allocator@PAVIChangeSkinEventListener@@@std@@@std@@QAE?AViterator@12@XZ ; std::vector<IChangeSkinEventListener *,std::allocator<IChangeSkinEventListener *> >::end
PUBLIC	?erase@?$vector@PAVIChangeSkinEventListener@@V?$allocator@PAVIChangeSkinEventListener@@@std@@@std@@QAE?AViterator@12@V312@@Z ; std::vector<IChangeSkinEventListener *,std::allocator<IChangeSkinEventListener *> >::erase
; Function compile flags: /Odt /RTCsu
_TEXT	SEGMENT
$T194950 = -28						; size = 4
$T194949 = -24						; size = 4
$T194948 = -20						; size = 4
_it1$192229 = -12					; size = 4
_this$ = -4						; size = 4
_apListtener$ = 8					; size = 4
?RemoveListener@CSkinMgrV1@@UAEXPAVIChangeSkinEventListener@@@Z PROC NEAR ; CSkinMgrV1::RemoveListener
; _this$ = ecx

; 344  : {

  019a0	55		 push	 ebp
  019a1	8b ec		 mov	 ebp, esp
  019a3	83 ec 1c	 sub	 esp, 28			; 0000001cH
  019a6	b8 cc cc cc cc	 mov	 eax, -858993460		; ccccccccH
  019ab	89 45 e4	 mov	 DWORD PTR [ebp-28], eax
  019ae	89 45 e8	 mov	 DWORD PTR [ebp-24], eax
  019b1	89 45 ec	 mov	 DWORD PTR [ebp-20], eax
  019b4	89 45 f0	 mov	 DWORD PTR [ebp-16], eax
  019b7	89 45 f4	 mov	 DWORD PTR [ebp-12], eax
  019ba	89 45 f8	 mov	 DWORD PTR [ebp-8], eax
  019bd	89 45 fc	 mov	 DWORD PTR [ebp-4], eax
  019c0	89 4d fc	 mov	 DWORD PTR _this$[ebp], ecx

; 345  : 	for( vector<IChangeSkinEventListener*>::iterator it1 = mp_changeSkinEven.begin(); 

  019c3	8d 45 f4	 lea	 eax, DWORD PTR _it1$192229[ebp]
  019c6	50		 push	 eax
  019c7	8b 4d fc	 mov	 ecx, DWORD PTR _this$[ebp]
  019ca	83 c1 38	 add	 ecx, 56			; 00000038H
  019cd	e8 00 00 00 00	 call	 ?begin@?$vector@PAVIChangeSkinEventListener@@V?$allocator@PAVIChangeSkinEventListener@@@std@@@std@@QAE?AViterator@12@XZ ; std::vector<IChangeSkinEventListener *,std::allocator<IChangeSkinEventListener *> >::begin

; 346  : 		it1 != mp_changeSkinEven.end(); it1++ )

  019d2	eb 0e		 jmp	 SHORT $L192233
$L192234:
  019d4	6a 00		 push	 0
  019d6	8d 4d ec	 lea	 ecx, DWORD PTR $T194948[ebp]
  019d9	51		 push	 ecx
  019da	8d 4d f4	 lea	 ecx, DWORD PTR _it1$192229[ebp]
  019dd	e8 00 00 00 00	 call	 ??Eiterator@?$vector@PAVIChangeSkinEventListener@@V?$allocator@PAVIChangeSkinEventListener@@@std@@@std@@QAE?AV012@H@Z ; std::vector<IChangeSkinEventListener *,std::allocator<IChangeSkinEventListener *> >::iterator::operator++
$L192233:
  019e2	8d 55 e8	 lea	 edx, DWORD PTR $T194949[ebp]
  019e5	52		 push	 edx
  019e6	8b 4d fc	 mov	 ecx, DWORD PTR _this$[ebp]
  019e9	83 c1 38	 add	 ecx, 56			; 00000038H
  019ec	e8 00 00 00 00	 call	 ?end@?$vector@PAVIChangeSkinEventListener@@V?$allocator@PAVIChangeSkinEventListener@@@std@@@std@@QAE?AViterator@12@XZ ; std::vector<IChangeSkinEventListener *,std::allocator<IChangeSkinEventListener *> >::end
  019f1	50		 push	 eax
  019f2	8d 4d f4	 lea	 ecx, DWORD PTR _it1$192229[ebp]
  019f5	e8 00 00 00 00	 call	 ??9const_iterator@?$vector@PAVIChangeSkinEventListener@@V?$allocator@PAVIChangeSkinEventListener@@@std@@@std@@QBE_NABV012@@Z ; std::vector<IChangeSkinEventListener *,std::allocator<IChangeSkinEventListener *> >::const_iterator::operator!=
  019fa	0f b6 c0	 movzx	 eax, al
  019fd	85 c0		 test	 eax, eax
  019ff	74 26		 je	 SHORT $L192111

; 347  : 	{
; 348  : 		if( (*it1) == apListtener )

  01a01	8d 4d f4	 lea	 ecx, DWORD PTR _it1$192229[ebp]
  01a04	e8 00 00 00 00	 call	 ??Diterator@?$vector@PAVIChangeSkinEventListener@@V?$allocator@PAVIChangeSkinEventListener@@@std@@@std@@QBEAAPAVIChangeSkinEventListener@@XZ ; std::vector<IChangeSkinEventListener *,std::allocator<IChangeSkinEventListener *> >::iterator::operator*
  01a09	8b 08		 mov	 ecx, DWORD PTR [eax]
  01a0b	3b 4d 08	 cmp	 ecx, DWORD PTR _apListtener$[ebp]
  01a0e	75 15		 jne	 SHORT $L192236

; 349  : 		{
; 350  : 			mp_changeSkinEven.erase( it1 );

  01a10	8b 55 f4	 mov	 edx, DWORD PTR _it1$192229[ebp]
  01a13	52		 push	 edx
  01a14	8d 45 e4	 lea	 eax, DWORD PTR $T194950[ebp]
  01a17	50		 push	 eax
  01a18	8b 4d fc	 mov	 ecx, DWORD PTR _this$[ebp]
  01a1b	83 c1 38	 add	 ecx, 56			; 00000038H
  01a1e	e8 00 00 00 00	 call	 ?erase@?$vector@PAVIChangeSkinEventListener@@V?$allocator@PAVIChangeSkinEventListener@@@std@@@std@@QAE?AViterator@12@V312@@Z ; std::vector<IChangeSkinEventListener *,std::allocator<IChangeSkinEventListener *> >::erase

; 351  : 			return;

  01a23	eb 02		 jmp	 SHORT $L192111
$L192236:

; 352  : 		}
; 353  : 	}

  01a25	eb ad		 jmp	 SHORT $L192234
$L192111:

; 354  : }

  01a27	52		 push	 edx
  01a28	8b cd		 mov	 ecx, ebp
  01a2a	50		 push	 eax
  01a2b	8d 15 00 00 00
	00		 lea	 edx, DWORD PTR $L194953
  01a31	e8 00 00 00 00	 call	 @_RTC_CheckStackVars@8
  01a36	58		 pop	 eax
  01a37	5a		 pop	 edx
  01a38	83 c4 1c	 add	 esp, 28			; 0000001cH
  01a3b	3b ec		 cmp	 ebp, esp
  01a3d	e8 00 00 00 00	 call	 __RTC_CheckEsp
  01a42	8b e5		 mov	 esp, ebp
  01a44	5d		 pop	 ebp
  01a45	c2 04 00	 ret	 4
$L194953:
  01a48	01 00 00 00	 DD	 1
  01a4c	00 00 00 00	 DD	 $L194952
$L194952:
  01a50	f4 ff ff ff	 DD	 -12			; fffffff4H
  01a54	04 00 00 00	 DD	 4
  01a58	00 00 00 00	 DD	 $L194951
$L194951:
  01a5c	69		 DB	 105			; 00000069H
  01a5d	74		 DB	 116			; 00000074H
  01a5e	31		 DB	 49			; 00000031H
  01a5f	00		 DB	 0
?RemoveListener@CSkinMgrV1@@UAEXPAVIChangeSkinEventListener@@@Z ENDP ; CSkinMgrV1::RemoveListener
_TEXT	ENDS
EXTRN	?UpdateControlsEnable@CSkinWnd@@QAEXH@Z:NEAR	; CSkinWnd::UpdateControlsEnable
EXTRN	?EnableSkinBtn@CSkinWnd@@QAEXH@Z:NEAR		; CSkinWnd::EnableSkinBtn
EXTRN	?SetUseTip@CSkinWnd@@QAEX_N@Z:NEAR		; CSkinWnd::SetUseTip
EXTRN	__imp__IsWindowVisible@4:NEAR
EXTRN	?ResetScroll@CSubjectChildWnd@@QAEXXZ:NEAR	; CSubjectChildWnd::ResetScroll
EXTRN	?Invalidate@CWnd@@QAEXH@Z:NEAR			; CWnd::Invalidate
; Function compile flags: /Odt /RTCsu
_TEXT	SEGMENT
_this$ = -4						; size = 4
_anIndex$ = 8						; size = 4
?OnTabSelChange@CSkinMgrV1@@UAEXI@Z PROC NEAR		; CSkinMgrV1::OnTabSelChange
; _this$ = ecx

; 357  : {

  01a60	55		 push	 ebp
  01a61	8b ec		 mov	 ebp, esp
  01a63	51		 push	 ecx
  01a64	56		 push	 esi
  01a65	c7 45 fc cc cc
	cc cc		 mov	 DWORD PTR [ebp-4], -858993460 ; ccccccccH
  01a6c	89 4d fc	 mov	 DWORD PTR _this$[ebp], ecx

; 358  : 	if( 1 ==anIndex )

  01a6f	83 7d 08 01	 cmp	 DWORD PTR _anIndex$[ebp], 1
  01a73	0f 85 d3 00 00
	00		 jne	 $L192242

; 359  : 	{
; 360  : 		m_iCheckTab = 1;

  01a79	8b 45 fc	 mov	 eax, DWORD PTR _this$[ebp]
  01a7c	c7 80 80 00 00
	00 01 00 00 00	 mov	 DWORD PTR [eax+128], 1

; 361  : 		m_bShowSkinWnd = true;

  01a86	8b 4d fc	 mov	 ecx, DWORD PTR _this$[ebp]
  01a89	c6 41 64 01	 mov	 BYTE PTR [ecx+100], 1

; 362  : 		mp_SubjectWnd->ShowWindow(FALSE);

  01a8d	6a 00		 push	 0
  01a8f	8b 55 fc	 mov	 edx, DWORD PTR _this$[ebp]
  01a92	8b 4a 18	 mov	 ecx, DWORD PTR [edx+24]
  01a95	e8 00 00 00 00	 call	 ?ShowWindow@CSubjectChildWnd@@QAEXH@Z ; CSubjectChildWnd::ShowWindow

; 363  : 		mp_skinWnd->ShowWindow(TRUE);

  01a9a	6a 01		 push	 1
  01a9c	8b 45 fc	 mov	 eax, DWORD PTR _this$[ebp]
  01a9f	8b 48 14	 mov	 ecx, DWORD PTR [eax+20]
  01aa2	e8 00 00 00 00	 call	 ?ShowWindow@CSkinWnd@@QAEXH@Z ; CSkinWnd::ShowWindow

; 364  : 		mp_WebSubWnd->ShowWindow(FALSE);

  01aa7	6a 00		 push	 0
  01aa9	8b 4d fc	 mov	 ecx, DWORD PTR _this$[ebp]
  01aac	8b 49 1c	 mov	 ecx, DWORD PTR [ecx+28]
  01aaf	e8 00 00 00 00	 call	 ?ShowWindow@CWnd@@QAEHH@Z ; CWnd::ShowWindow

; 365  : 		mp_skinWnd->UpdateControlsEnable(true);

  01ab4	6a 01		 push	 1
  01ab6	8b 55 fc	 mov	 edx, DWORD PTR _this$[ebp]
  01ab9	8b 4a 14	 mov	 ecx, DWORD PTR [edx+20]
  01abc	e8 00 00 00 00	 call	 ?UpdateControlsEnable@CSkinWnd@@QAEXH@Z ; CSkinWnd::UpdateControlsEnable

; 366  : 
; 367  : 		mp_downloadSubject->ShowWindow( SW_HIDE );

  01ac1	6a 00		 push	 0
  01ac3	8b 45 fc	 mov	 eax, DWORD PTR _this$[ebp]
  01ac6	8b 48 24	 mov	 ecx, DWORD PTR [eax+36]
  01ac9	e8 00 00 00 00	 call	 ?ShowWindow@CWnd@@QAEHH@Z ; CWnd::ShowWindow

; 368  : 		if( (mp_downloadSkin) && (mp_downloadSkin->m_hWnd) && mb_isDownSkin)

  01ace	8b 4d fc	 mov	 ecx, DWORD PTR _this$[ebp]
  01ad1	83 79 20 00	 cmp	 DWORD PTR [ecx+32], 0
  01ad5	74 56		 je	 SHORT $L192243
  01ad7	8b 55 fc	 mov	 edx, DWORD PTR _this$[ebp]
  01ada	8b 42 20	 mov	 eax, DWORD PTR [edx+32]
  01add	83 78 20 00	 cmp	 DWORD PTR [eax+32], 0
  01ae1	74 4a		 je	 SHORT $L192243
  01ae3	8b 4d fc	 mov	 ecx, DWORD PTR _this$[ebp]
  01ae6	0f b6 51 49	 movzx	 edx, BYTE PTR [ecx+73]
  01aea	85 d2		 test	 edx, edx
  01aec	74 3f		 je	 SHORT $L192243

; 369  : 		{
; 370  : 			if(mp_skinWnd != NULL)

  01aee	8b 45 fc	 mov	 eax, DWORD PTR _this$[ebp]
  01af1	83 78 14 00	 cmp	 DWORD PTR [eax+20], 0
  01af5	74 1a		 je	 SHORT $L192244

; 371  : 			{
; 372  : 				mp_skinWnd->EnableSkinBtn( FALSE );

  01af7	6a 00		 push	 0
  01af9	8b 4d fc	 mov	 ecx, DWORD PTR _this$[ebp]
  01afc	8b 49 14	 mov	 ecx, DWORD PTR [ecx+20]
  01aff	e8 00 00 00 00	 call	 ?EnableSkinBtn@CSkinWnd@@QAEXH@Z ; CSkinWnd::EnableSkinBtn

; 373  : 				mp_skinWnd->SetUseTip(false);

  01b04	6a 00		 push	 0
  01b06	8b 55 fc	 mov	 edx, DWORD PTR _this$[ebp]
  01b09	8b 4a 14	 mov	 ecx, DWORD PTR [edx+20]
  01b0c	e8 00 00 00 00	 call	 ?SetUseTip@CSkinWnd@@QAEX_N@Z ; CSkinWnd::SetUseTip
$L192244:

; 374  : 			}
; 375  : 
; 376  : 			mp_downloadSkin->ShowWindow( SW_SHOW );

  01b11	6a 05		 push	 5
  01b13	8b 45 fc	 mov	 eax, DWORD PTR _this$[ebp]
  01b16	8b 48 20	 mov	 ecx, DWORD PTR [eax+32]
  01b19	e8 00 00 00 00	 call	 ?ShowWindow@CWnd@@QAEHH@Z ; CWnd::ShowWindow

; 377  : 			mp_mainSkinWnd->ShowColorBtn( FALSE );

  01b1e	6a 00		 push	 0
  01b20	8b 4d fc	 mov	 ecx, DWORD PTR _this$[ebp]
  01b23	8b 49 10	 mov	 ecx, DWORD PTR [ecx+16]
  01b26	e8 00 00 00 00	 call	 ?ShowColorBtn@CMainSkinWnd@@QAEXH@Z ; CMainSkinWnd::ShowColorBtn

; 378  : 		}
; 379  : 		else

  01b2b	eb 1a		 jmp	 SHORT $L192245
$L192243:

; 380  : 		{
; 381  : 			mp_downloadSkin->ShowWindow( SW_HIDE );

  01b2d	6a 00		 push	 0
  01b2f	8b 55 fc	 mov	 edx, DWORD PTR _this$[ebp]
  01b32	8b 4a 20	 mov	 ecx, DWORD PTR [edx+32]
  01b35	e8 00 00 00 00	 call	 ?ShowWindow@CWnd@@QAEHH@Z ; CWnd::ShowWindow

; 382  : 			mp_mainSkinWnd->ShowColorBtn( TRUE );

  01b3a	6a 01		 push	 1
  01b3c	8b 45 fc	 mov	 eax, DWORD PTR _this$[ebp]
  01b3f	8b 48 10	 mov	 ecx, DWORD PTR [eax+16]
  01b42	e8 00 00 00 00	 call	 ?ShowColorBtn@CMainSkinWnd@@QAEXH@Z ; CMainSkinWnd::ShowColorBtn
$L192245:

; 383  : 		}
; 384  : 	}
; 385  : 	else if( 0 == anIndex )

  01b47	e9 c1 01 00 00	 jmp	 $L192241
$L192242:
  01b4c	83 7d 08 00	 cmp	 DWORD PTR _anIndex$[ebp], 0
  01b50	0f 85 e5 00 00
	00		 jne	 $L192247

; 386  : 	{
; 387  : 		m_bShowSkinWnd = false;

  01b56	8b 4d fc	 mov	 ecx, DWORD PTR _this$[ebp]
  01b59	c6 41 64 00	 mov	 BYTE PTR [ecx+100], 0

; 388  : 		m_iCheckTab = 0;

  01b5d	8b 55 fc	 mov	 edx, DWORD PTR _this$[ebp]
  01b60	c7 82 80 00 00
	00 00 00 00 00	 mov	 DWORD PTR [edx+128], 0

; 389  : 		mp_SubjectWnd->ResetScroll();

  01b6a	8b 45 fc	 mov	 eax, DWORD PTR _this$[ebp]
  01b6d	8b 48 18	 mov	 ecx, DWORD PTR [eax+24]
  01b70	e8 00 00 00 00	 call	 ?ResetScroll@CSubjectChildWnd@@QAEXXZ ; CSubjectChildWnd::ResetScroll

; 390  : 
; 391  : 		mp_SubjectWnd->ShowWindow(TRUE);

  01b75	6a 01		 push	 1
  01b77	8b 4d fc	 mov	 ecx, DWORD PTR _this$[ebp]
  01b7a	8b 49 18	 mov	 ecx, DWORD PTR [ecx+24]
  01b7d	e8 00 00 00 00	 call	 ?ShowWindow@CSubjectChildWnd@@QAEXH@Z ; CSubjectChildWnd::ShowWindow

; 392  : 		mp_skinWnd->ShowWindow(FALSE);	

  01b82	6a 00		 push	 0
  01b84	8b 55 fc	 mov	 edx, DWORD PTR _this$[ebp]
  01b87	8b 4a 14	 mov	 ecx, DWORD PTR [edx+20]
  01b8a	e8 00 00 00 00	 call	 ?ShowWindow@CSkinWnd@@QAEXH@Z ; CSkinWnd::ShowWindow

; 393  : 		mp_WebSubWnd->ShowWindow(FALSE);

  01b8f	6a 00		 push	 0
  01b91	8b 45 fc	 mov	 eax, DWORD PTR _this$[ebp]
  01b94	8b 48 1c	 mov	 ecx, DWORD PTR [eax+28]
  01b97	e8 00 00 00 00	 call	 ?ShowWindow@CWnd@@QAEHH@Z ; CWnd::ShowWindow

; 394  : 		mp_skinWnd->UpdateControlsEnable(false);

  01b9c	6a 00		 push	 0
  01b9e	8b 4d fc	 mov	 ecx, DWORD PTR _this$[ebp]
  01ba1	8b 49 14	 mov	 ecx, DWORD PTR [ecx+20]
  01ba4	e8 00 00 00 00	 call	 ?UpdateControlsEnable@CSkinWnd@@QAEXH@Z ; CSkinWnd::UpdateControlsEnable

; 395  : 		
; 396  : 		if( ::IsWindowVisible(mp_downloadSkin->m_hWnd ) )

  01ba9	8b 55 fc	 mov	 edx, DWORD PTR _this$[ebp]
  01bac	8b 42 20	 mov	 eax, DWORD PTR [edx+32]
  01baf	8b f4		 mov	 esi, esp
  01bb1	8b 48 20	 mov	 ecx, DWORD PTR [eax+32]
  01bb4	51		 push	 ecx
  01bb5	ff 15 00 00 00
	00		 call	 DWORD PTR __imp__IsWindowVisible@4
  01bbb	3b f4		 cmp	 esi, esp
  01bbd	e8 00 00 00 00	 call	 __RTC_CheckEsp
  01bc2	85 c0		 test	 eax, eax
  01bc4	74 1a		 je	 SHORT $L192248

; 397  : 		{
; 398  : 			mp_downloadSkin->ShowWindow( SW_HIDE );

  01bc6	6a 00		 push	 0
  01bc8	8b 55 fc	 mov	 edx, DWORD PTR _this$[ebp]
  01bcb	8b 4a 20	 mov	 ecx, DWORD PTR [edx+32]
  01bce	e8 00 00 00 00	 call	 ?ShowWindow@CWnd@@QAEHH@Z ; CWnd::ShowWindow

; 399  : 			mp_downloadSkin->Invalidate();

  01bd3	6a 01		 push	 1
  01bd5	8b 45 fc	 mov	 eax, DWORD PTR _this$[ebp]
  01bd8	8b 48 20	 mov	 ecx, DWORD PTR [eax+32]
  01bdb	e8 00 00 00 00	 call	 ?Invalidate@CWnd@@QAEXH@Z ; CWnd::Invalidate
$L192248:

; 400  : 		}
; 401  : 		
; 402  : 		if( (mp_downloadSubject) && (mp_downloadSubject->m_hWnd) && mb_isDownSubject)

  01be0	8b 4d fc	 mov	 ecx, DWORD PTR _this$[ebp]
  01be3	83 79 24 00	 cmp	 DWORD PTR [ecx+36], 0
  01be7	74 33		 je	 SHORT $L192249
  01be9	8b 55 fc	 mov	 edx, DWORD PTR _this$[ebp]
  01bec	8b 42 24	 mov	 eax, DWORD PTR [edx+36]
  01bef	83 78 20 00	 cmp	 DWORD PTR [eax+32], 0
  01bf3	74 27		 je	 SHORT $L192249
  01bf5	8b 4d fc	 mov	 ecx, DWORD PTR _this$[ebp]
  01bf8	0f b6 51 4a	 movzx	 edx, BYTE PTR [ecx+74]
  01bfc	85 d2		 test	 edx, edx
  01bfe	74 1c		 je	 SHORT $L192249

; 403  : 		{
; 404  : 			mp_downloadSubject->ShowWindow( SW_SHOW );

  01c00	6a 05		 push	 5
  01c02	8b 45 fc	 mov	 eax, DWORD PTR _this$[ebp]
  01c05	8b 48 24	 mov	 ecx, DWORD PTR [eax+36]
  01c08	e8 00 00 00 00	 call	 ?ShowWindow@CWnd@@QAEHH@Z ; CWnd::ShowWindow

; 405  : 			mp_mainSkinWnd->ShowColorBtn( FALSE );

  01c0d	6a 00		 push	 0
  01c0f	8b 4d fc	 mov	 ecx, DWORD PTR _this$[ebp]
  01c12	8b 49 10	 mov	 ecx, DWORD PTR [ecx+16]
  01c15	e8 00 00 00 00	 call	 ?ShowColorBtn@CMainSkinWnd@@QAEXH@Z ; CMainSkinWnd::ShowColorBtn

; 406  : 		}
; 407  : 		else

  01c1a	eb 1a		 jmp	 SHORT $L192250
$L192249:

; 408  : 		{
; 409  : 			mp_downloadSubject->ShowWindow( SW_HIDE );

  01c1c	6a 00		 push	 0
  01c1e	8b 55 fc	 mov	 edx, DWORD PTR _this$[ebp]
  01c21	8b 4a 24	 mov	 ecx, DWORD PTR [edx+36]
  01c24	e8 00 00 00 00	 call	 ?ShowWindow@CWnd@@QAEHH@Z ; CWnd::ShowWindow

; 410  : 			mp_mainSkinWnd->ShowColorBtn( TRUE );

  01c29	6a 01		 push	 1
  01c2b	8b 45 fc	 mov	 eax, DWORD PTR _this$[ebp]
  01c2e	8b 48 10	 mov	 ecx, DWORD PTR [eax+16]
  01c31	e8 00 00 00 00	 call	 ?ShowColorBtn@CMainSkinWnd@@QAEXH@Z ; CMainSkinWnd::ShowColorBtn
$L192250:

; 411  : 		}
; 412  : 	}
; 413  : 	else if( 2 == anIndex )//websubwnd

  01c36	e9 d2 00 00 00	 jmp	 $L192241
$L192247:
  01c3b	83 7d 08 02	 cmp	 DWORD PTR _anIndex$[ebp], 2
  01c3f	0f 85 c8 00 00
	00		 jne	 $L192241

; 414  : 	{
; 415  : 		m_iCheckTab = 2;

  01c45	8b 4d fc	 mov	 ecx, DWORD PTR _this$[ebp]
  01c48	c7 81 80 00 00
	00 02 00 00 00	 mov	 DWORD PTR [ecx+128], 2

; 416  : 		m_bShowSkinWnd = false;

  01c52	8b 55 fc	 mov	 edx, DWORD PTR _this$[ebp]
  01c55	c6 42 64 00	 mov	 BYTE PTR [edx+100], 0

; 417  : 		mp_SubjectWnd->ShowWindow(FALSE);

  01c59	6a 00		 push	 0
  01c5b	8b 45 fc	 mov	 eax, DWORD PTR _this$[ebp]
  01c5e	8b 48 18	 mov	 ecx, DWORD PTR [eax+24]
  01c61	e8 00 00 00 00	 call	 ?ShowWindow@CSubjectChildWnd@@QAEXH@Z ; CSubjectChildWnd::ShowWindow

; 418  : 		mp_skinWnd->ShowWindow(FALSE);	

  01c66	6a 00		 push	 0
  01c68	8b 4d fc	 mov	 ecx, DWORD PTR _this$[ebp]
  01c6b	8b 49 14	 mov	 ecx, DWORD PTR [ecx+20]
  01c6e	e8 00 00 00 00	 call	 ?ShowWindow@CSkinWnd@@QAEXH@Z ; CSkinWnd::ShowWindow

; 419  : 		mp_WebSubWnd->ShowWindow(TRUE);

  01c73	6a 01		 push	 1
  01c75	8b 55 fc	 mov	 edx, DWORD PTR _this$[ebp]
  01c78	8b 4a 1c	 mov	 ecx, DWORD PTR [edx+28]
  01c7b	e8 00 00 00 00	 call	 ?ShowWindow@CWnd@@QAEHH@Z ; CWnd::ShowWindow

; 420  : 
; 421  : 		if( ::IsWindowVisible(mp_downloadSkin->m_hWnd ) )

  01c80	8b 45 fc	 mov	 eax, DWORD PTR _this$[ebp]
  01c83	8b 48 20	 mov	 ecx, DWORD PTR [eax+32]
  01c86	8b f4		 mov	 esi, esp
  01c88	8b 51 20	 mov	 edx, DWORD PTR [ecx+32]
  01c8b	52		 push	 edx
  01c8c	ff 15 00 00 00
	00		 call	 DWORD PTR __imp__IsWindowVisible@4
  01c92	3b f4		 cmp	 esi, esp
  01c94	e8 00 00 00 00	 call	 __RTC_CheckEsp
  01c99	85 c0		 test	 eax, eax
  01c9b	74 1a		 je	 SHORT $L192253

; 422  : 		{
; 423  : 			mp_downloadSkin->ShowWindow( SW_HIDE );

  01c9d	6a 00		 push	 0
  01c9f	8b 45 fc	 mov	 eax, DWORD PTR _this$[ebp]
  01ca2	8b 48 20	 mov	 ecx, DWORD PTR [eax+32]
  01ca5	e8 00 00 00 00	 call	 ?ShowWindow@CWnd@@QAEHH@Z ; CWnd::ShowWindow

; 424  : 			mp_downloadSkin->Invalidate();

  01caa	6a 01		 push	 1
  01cac	8b 4d fc	 mov	 ecx, DWORD PTR _this$[ebp]
  01caf	8b 49 20	 mov	 ecx, DWORD PTR [ecx+32]
  01cb2	e8 00 00 00 00	 call	 ?Invalidate@CWnd@@QAEXH@Z ; CWnd::Invalidate
$L192253:

; 425  : 		}
; 426  : 
; 427  : 		if( (mp_downloadSubject) && (mp_downloadSubject->m_hWnd) && mb_isDownWebSub)

  01cb7	8b 55 fc	 mov	 edx, DWORD PTR _this$[ebp]
  01cba	83 7a 24 00	 cmp	 DWORD PTR [edx+36], 0
  01cbe	74 33		 je	 SHORT $L192254
  01cc0	8b 45 fc	 mov	 eax, DWORD PTR _this$[ebp]
  01cc3	8b 48 24	 mov	 ecx, DWORD PTR [eax+36]
  01cc6	83 79 20 00	 cmp	 DWORD PTR [ecx+32], 0
  01cca	74 27		 je	 SHORT $L192254
  01ccc	8b 55 fc	 mov	 edx, DWORD PTR _this$[ebp]
  01ccf	0f b6 42 4b	 movzx	 eax, BYTE PTR [edx+75]
  01cd3	85 c0		 test	 eax, eax
  01cd5	74 1c		 je	 SHORT $L192254

; 428  : 		{
; 429  : 			mp_downloadSubject->ShowWindow( SW_SHOW );

  01cd7	6a 05		 push	 5
  01cd9	8b 4d fc	 mov	 ecx, DWORD PTR _this$[ebp]
  01cdc	8b 49 24	 mov	 ecx, DWORD PTR [ecx+36]
  01cdf	e8 00 00 00 00	 call	 ?ShowWindow@CWnd@@QAEHH@Z ; CWnd::ShowWindow

; 430  : 			mp_mainSkinWnd->ShowColorBtn( FALSE );

  01ce4	6a 00		 push	 0
  01ce6	8b 55 fc	 mov	 edx, DWORD PTR _this$[ebp]
  01ce9	8b 4a 10	 mov	 ecx, DWORD PTR [edx+16]
  01cec	e8 00 00 00 00	 call	 ?ShowColorBtn@CMainSkinWnd@@QAEXH@Z ; CMainSkinWnd::ShowColorBtn

; 431  : 		}
; 432  : 		else

  01cf1	eb 1a		 jmp	 SHORT $L192241
$L192254:

; 433  : 		{
; 434  : 			mp_downloadSubject->ShowWindow( SW_HIDE );

  01cf3	6a 00		 push	 0
  01cf5	8b 45 fc	 mov	 eax, DWORD PTR _this$[ebp]
  01cf8	8b 48 24	 mov	 ecx, DWORD PTR [eax+36]
  01cfb	e8 00 00 00 00	 call	 ?ShowWindow@CWnd@@QAEHH@Z ; CWnd::ShowWindow

; 435  : 			mp_mainSkinWnd->ShowColorBtn( TRUE );

  01d00	6a 01		 push	 1
  01d02	8b 4d fc	 mov	 ecx, DWORD PTR _this$[ebp]
  01d05	8b 49 10	 mov	 ecx, DWORD PTR [ecx+16]
  01d08	e8 00 00 00 00	 call	 ?ShowColorBtn@CMainSkinWnd@@QAEXH@Z ; CMainSkinWnd::ShowColorBtn
$L192241:

; 436  : 		}
; 437  : 	}
; 438  : }

  01d0d	5e		 pop	 esi
  01d0e	83 c4 04	 add	 esp, 4
  01d11	3b ec		 cmp	 ebp, esp
  01d13	e8 00 00 00 00	 call	 __RTC_CheckEsp
  01d18	8b e5		 mov	 esp, ebp
  01d1a	5d		 pop	 ebp
  01d1b	c2 04 00	 ret	 4
?OnTabSelChange@CSkinMgrV1@@UAEXI@Z ENDP		; CSkinMgrV1::OnTabSelChange
_TEXT	ENDS
EXTRN	__imp__IsWindow@4:NEAR
; Function compile flags: /Odt /RTCsu
_TEXT	SEGMENT
_this$ = -4						; size = 4
_bTopMost$ = 8						; size = 1
?SetTopMost@CSkinMgrV1@@UAEX_N@Z PROC NEAR		; CSkinMgrV1::SetTopMost
; _this$ = ecx

; 441  : {

  01d20	55		 push	 ebp
  01d21	8b ec		 mov	 ebp, esp
  01d23	51		 push	 ecx
  01d24	56		 push	 esi
  01d25	c7 45 fc cc cc
	cc cc		 mov	 DWORD PTR [ebp-4], -858993460 ; ccccccccH
  01d2c	89 4d fc	 mov	 DWORD PTR _this$[ebp], ecx

; 442  : 	if(mp_mainSkinWnd != NULL && ::IsWindow(mp_mainSkinWnd->m_hWnd))

  01d2f	8b 45 fc	 mov	 eax, DWORD PTR _this$[ebp]
  01d32	83 78 10 00	 cmp	 DWORD PTR [eax+16], 0
  01d36	74 71		 je	 SHORT $L192259
  01d38	8b 4d fc	 mov	 ecx, DWORD PTR _this$[ebp]
  01d3b	8b 51 10	 mov	 edx, DWORD PTR [ecx+16]
  01d3e	8b f4		 mov	 esi, esp
  01d40	8b 42 20	 mov	 eax, DWORD PTR [edx+32]
  01d43	50		 push	 eax
  01d44	ff 15 00 00 00
	00		 call	 DWORD PTR __imp__IsWindow@4
  01d4a	3b f4		 cmp	 esi, esp
  01d4c	e8 00 00 00 00	 call	 __RTC_CheckEsp
  01d51	85 c0		 test	 eax, eax
  01d53	74 54		 je	 SHORT $L192259

; 443  : 	{
; 444  : 		if(bTopMost)

  01d55	0f b6 4d 08	 movzx	 ecx, BYTE PTR _bTopMost$[ebp]
  01d59	85 c9		 test	 ecx, ecx
  01d5b	74 27		 je	 SHORT $L192261

; 445  : 			SetWindowPos(mp_mainSkinWnd->m_hWnd,HWND_TOPMOST,0,0,0,0,SWP_NOACTIVATE|SWP_NOSIZE|SWP_NOMOVE);

  01d5d	8b f4		 mov	 esi, esp
  01d5f	6a 13		 push	 19			; 00000013H
  01d61	6a 00		 push	 0
  01d63	6a 00		 push	 0
  01d65	6a 00		 push	 0
  01d67	6a 00		 push	 0
  01d69	6a ff		 push	 -1
  01d6b	8b 55 fc	 mov	 edx, DWORD PTR _this$[ebp]
  01d6e	8b 42 10	 mov	 eax, DWORD PTR [edx+16]
  01d71	8b 48 20	 mov	 ecx, DWORD PTR [eax+32]
  01d74	51		 push	 ecx
  01d75	ff 15 00 00 00
	00		 call	 DWORD PTR __imp__SetWindowPos@28
  01d7b	3b f4		 cmp	 esi, esp
  01d7d	e8 00 00 00 00	 call	 __RTC_CheckEsp

; 446  : 		else

  01d82	eb 25		 jmp	 SHORT $L192259
$L192261:

; 447  : 			SetWindowPos(mp_mainSkinWnd->m_hWnd,HWND_TOP,0,0,0,0,SWP_NOACTIVATE|SWP_NOSIZE|SWP_NOMOVE);

  01d84	8b f4		 mov	 esi, esp
  01d86	6a 13		 push	 19			; 00000013H
  01d88	6a 00		 push	 0
  01d8a	6a 00		 push	 0
  01d8c	6a 00		 push	 0
  01d8e	6a 00		 push	 0
  01d90	6a 00		 push	 0
  01d92	8b 55 fc	 mov	 edx, DWORD PTR _this$[ebp]
  01d95	8b 42 10	 mov	 eax, DWORD PTR [edx+16]
  01d98	8b 48 20	 mov	 ecx, DWORD PTR [eax+32]
  01d9b	51		 push	 ecx
  01d9c	ff 15 00 00 00
	00		 call	 DWORD PTR __imp__SetWindowPos@28
  01da2	3b f4		 cmp	 esi, esp
  01da4	e8 00 00 00 00	 call	 __RTC_CheckEsp
$L192259:

; 448  : 	}
; 449  : }

  01da9	5e		 pop	 esi
  01daa	83 c4 04	 add	 esp, 4
  01dad	3b ec		 cmp	 ebp, esp
  01daf	e8 00 00 00 00	 call	 __RTC_CheckEsp
  01db4	8b e5		 mov	 esp, ebp
  01db6	5d		 pop	 ebp
  01db7	c2 04 00	 ret	 4
?SetTopMost@CSkinMgrV1@@UAEX_N@Z ENDP			; CSkinMgrV1::SetTopMost
; Function compile flags: /Odt /RTCsu
tv81 = -16						; size = 4
$T194958 = -12						; size = 4
$T194957 = -8						; size = 4
_this$ = -4						; size = 4
?DeleteObject@CSkinMgrV1@@UAEXXZ PROC NEAR		; CSkinMgrV1::DeleteObject
; _this$ = ecx

; 451  : {

  01dc0	55		 push	 ebp
  01dc1	8b ec		 mov	 ebp, esp
  01dc3	83 ec 10	 sub	 esp, 16			; 00000010H
  01dc6	56		 push	 esi
  01dc7	b8 cc cc cc cc	 mov	 eax, -858993460		; ccccccccH
  01dcc	89 45 f0	 mov	 DWORD PTR [ebp-16], eax
  01dcf	89 45 f4	 mov	 DWORD PTR [ebp-12], eax
  01dd2	89 45 f8	 mov	 DWORD PTR [ebp-8], eax
  01dd5	89 45 fc	 mov	 DWORD PTR [ebp-4], eax
  01dd8	89 4d fc	 mov	 DWORD PTR _this$[ebp], ecx

; 452  : 	if( NULL != mp_mainSkinWnd ) 

  01ddb	8b 45 fc	 mov	 eax, DWORD PTR _this$[ebp]
  01dde	83 78 10 00	 cmp	 DWORD PTR [eax+16], 0
  01de2	74 1a		 je	 SHORT $L192268

; 453  : 	{
; 454  : 		mp_mainSkinWnd->DestroyWindow();

  01de4	8b 4d fc	 mov	 ecx, DWORD PTR _this$[ebp]
  01de7	8b 51 10	 mov	 edx, DWORD PTR [ecx+16]
  01dea	8b 45 fc	 mov	 eax, DWORD PTR _this$[ebp]
  01ded	8b 48 10	 mov	 ecx, DWORD PTR [eax+16]
  01df0	8b 12		 mov	 edx, DWORD PTR [edx]
  01df2	8b f4		 mov	 esi, esp
  01df4	ff 52 68	 call	 DWORD PTR [edx+104]
  01df7	3b f4		 cmp	 esi, esp
  01df9	e8 00 00 00 00	 call	 __RTC_CheckEsp
$L192268:

; 455  : 	}
; 456  : 
; 457  : 	delete this;

  01dfe	8b 45 fc	 mov	 eax, DWORD PTR _this$[ebp]
  01e01	89 45 f4	 mov	 DWORD PTR $T194958[ebp], eax
  01e04	8b 4d f4	 mov	 ecx, DWORD PTR $T194958[ebp]
  01e07	89 4d f8	 mov	 DWORD PTR $T194957[ebp], ecx
  01e0a	83 7d f8 00	 cmp	 DWORD PTR $T194957[ebp], 0
  01e0e	74 1e		 je	 SHORT $L194959
  01e10	8b f4		 mov	 esi, esp
  01e12	6a 01		 push	 1
  01e14	8b 4d f8	 mov	 ecx, DWORD PTR $T194957[ebp]
  01e17	83 c1 08	 add	 ecx, 8
  01e1a	8b 55 f8	 mov	 edx, DWORD PTR $T194957[ebp]
  01e1d	8b 42 08	 mov	 eax, DWORD PTR [edx+8]
  01e20	ff 10		 call	 DWORD PTR [eax]
  01e22	3b f4		 cmp	 esi, esp
  01e24	e8 00 00 00 00	 call	 __RTC_CheckEsp
  01e29	89 45 f0	 mov	 DWORD PTR tv81[ebp], eax
  01e2c	eb 07		 jmp	 SHORT $L192267
$L194959:
  01e2e	c7 45 f0 00 00
	00 00		 mov	 DWORD PTR tv81[ebp], 0
$L192267:

; 458  : }

  01e35	5e		 pop	 esi
  01e36	83 c4 10	 add	 esp, 16			; 00000010H
  01e39	3b ec		 cmp	 ebp, esp
  01e3b	e8 00 00 00 00	 call	 __RTC_CheckEsp
  01e40	8b e5		 mov	 esp, ebp
  01e42	5d		 pop	 ebp
  01e43	c3		 ret	 0
?DeleteObject@CSkinMgrV1@@UAEXXZ ENDP			; CSkinMgrV1::DeleteObject
_TEXT	ENDS
EXTRN	__imp_?Format@?$CStringT@DV?$StrTraitMFC_DLL@DV?$ChTraitsCRT@D@ATL@@@@@ATL@@QAAXPBDZZ:NEAR
EXTRN	__imp_??0?$basic_string@DU?$char_traits@D@std@@V?$allocator@D@2@@std@@QAE@PBD@Z:NEAR
EXTRN	__imp_?LogUserActMsg@@YAXABV?$basic_string@DU?$char_traits@D@std@@V?$allocator@D@2@@std@@0@Z:NEAR
xdata$x	SEGMENT
$T194973 DD	0ffffffffH
	DD	FLAT:$L194964
	DD	00H
	DD	FLAT:$L194965
	DD	01H
	DD	FLAT:$L194966
$T194968 DD	019930520H
	DD	03H
	DD	FLAT:$T194973
	DD	2 DUP(00H)
	DD	2 DUP(00H)
; Function compile flags: /Odt /RTCsu
xdata$x	ENDS
_TEXT	SEGMENT
tv149 = -100						; size = 4
tv92 = -96						; size = 4
$T194963 = -92						; size = 28
$T194962 = -64						; size = 28
_msg$192288 = -32					; size = 4
_idx$192284 = -24					; size = 4
_idx$192279 = -20					; size = 4
_this$ = -16						; size = 4
__$EHRec$ = -12						; size = 12
_acolCol$ = 8						; size = 4
_anLightValue$ = 12					; size = 4
_bChange$ = 16						; size = 1
?OnSendChangeColor@CSkinMgrV1@@UAEXKI_N@Z PROC NEAR	; CSkinMgrV1::OnSendChangeColor
; _this$ = ecx

; 460  : {

  01e50	55		 push	 ebp
  01e51	8b ec		 mov	 ebp, esp
  01e53	6a ff		 push	 -1
  01e55	68 00 00 00 00	 push	 __ehhandler$?OnSendChangeColor@CSkinMgrV1@@UAEXKI_N@Z
  01e5a	64 a1 00 00 00
	00		 mov	 eax, DWORD PTR fs:__except_list
  01e60	50		 push	 eax
  01e61	64 89 25 00 00
	00 00		 mov	 DWORD PTR fs:__except_list, esp
  01e68	83 ec 58	 sub	 esp, 88			; 00000058H
  01e6b	56		 push	 esi
  01e6c	57		 push	 edi
  01e6d	51		 push	 ecx
  01e6e	8d 7d 9c	 lea	 edi, DWORD PTR [ebp-100]
  01e71	b9 16 00 00 00	 mov	 ecx, 22			; 00000016H
  01e76	b8 cc cc cc cc	 mov	 eax, -858993460		; ccccccccH
  01e7b	f3 ab		 rep stosd
  01e7d	59		 pop	 ecx
  01e7e	89 4d f0	 mov	 DWORD PTR _this$[ebp], ecx

; 461  : 	if( mp_changeSkinEven.size() > 0 )

  01e81	8b 4d f0	 mov	 ecx, DWORD PTR _this$[ebp]
  01e84	83 c1 34	 add	 ecx, 52			; 00000034H
  01e87	e8 00 00 00 00	 call	 ?size@?$vector@PAVIChangeSkinEventListener@@V?$allocator@PAVIChangeSkinEventListener@@@std@@@std@@QBEIXZ ; std::vector<IChangeSkinEventListener *,std::allocator<IChangeSkinEventListener *> >::size
  01e8c	85 c0		 test	 eax, eax
  01e8e	0f 86 c9 01 00
	00		 jbe	 $L192276

; 462  : 	{
; 463  : 		if(( 0== anLightValue)&& (0!= m_DefaultColor)) 

  01e94	83 7d 0c 00	 cmp	 DWORD PTR _anLightValue$[ebp], 0
  01e98	75 7a		 jne	 SHORT $L192278
  01e9a	8b 45 f0	 mov	 eax, DWORD PTR _this$[ebp]
  01e9d	83 78 28 00	 cmp	 DWORD PTR [eax+40], 0
  01ea1	74 71		 je	 SHORT $L192278

; 464  : 		{
; 465  : 			m_BaseColor = m_DefaultColor;

  01ea3	8b 4d f0	 mov	 ecx, DWORD PTR _this$[ebp]
  01ea6	8b 55 f0	 mov	 edx, DWORD PTR _this$[ebp]
  01ea9	8b 42 28	 mov	 eax, DWORD PTR [edx+40]
  01eac	89 41 24	 mov	 DWORD PTR [ecx+36], eax

; 466  : 			m_nLightPos = 120;

  01eaf	8b 4d f0	 mov	 ecx, DWORD PTR _this$[ebp]
  01eb2	c7 41 2c 78 00
	00 00		 mov	 DWORD PTR [ecx+44], 120	; 00000078H

; 467  : 
; 468  : 			//if( mb_HasPopWnd )
; 469  : 			//mp_colorWnd->SetSelectedColor(m_DefaultColor);
; 470  : 
; 471  : 			for(size_t idx = 0;idx < mp_changeSkinEven.size();idx++ )

  01eb9	c7 45 ec 00 00
	00 00		 mov	 DWORD PTR _idx$192279[ebp], 0
  01ec0	eb 09		 jmp	 SHORT $L192280
$L192281:
  01ec2	8b 55 ec	 mov	 edx, DWORD PTR _idx$192279[ebp]
  01ec5	83 c2 01	 add	 edx, 1
  01ec8	89 55 ec	 mov	 DWORD PTR _idx$192279[ebp], edx
$L192280:
  01ecb	8b 4d f0	 mov	 ecx, DWORD PTR _this$[ebp]
  01ece	83 c1 34	 add	 ecx, 52			; 00000034H
  01ed1	e8 00 00 00 00	 call	 ?size@?$vector@PAVIChangeSkinEventListener@@V?$allocator@PAVIChangeSkinEventListener@@@std@@@std@@QBEIXZ ; std::vector<IChangeSkinEventListener *,std::allocator<IChangeSkinEventListener *> >::size
  01ed6	39 45 ec	 cmp	 DWORD PTR _idx$192279[ebp], eax
  01ed9	73 37		 jae	 SHORT $L192282

; 472  : 			{
; 473  : 				mp_changeSkinEven[idx]->OnchangeColor( m_DefaultColor, 120,bChange );

  01edb	8b 45 ec	 mov	 eax, DWORD PTR _idx$192279[ebp]
  01ede	50		 push	 eax
  01edf	8b 4d f0	 mov	 ecx, DWORD PTR _this$[ebp]
  01ee2	83 c1 34	 add	 ecx, 52			; 00000034H
  01ee5	e8 00 00 00 00	 call	 ??A?$vector@PAVIChangeSkinEventListener@@V?$allocator@PAVIChangeSkinEventListener@@@std@@@std@@QAEAAPAVIChangeSkinEventListener@@I@Z ; std::vector<IChangeSkinEventListener *,std::allocator<IChangeSkinEventListener *> >::operator[]
  01eea	8b 08		 mov	 ecx, DWORD PTR [eax]
  01eec	89 4d a0	 mov	 DWORD PTR tv92[ebp], ecx
  01eef	8b f4		 mov	 esi, esp
  01ef1	8a 55 10	 mov	 dl, BYTE PTR _bChange$[ebp]
  01ef4	52		 push	 edx
  01ef5	6a 78		 push	 120			; 00000078H
  01ef7	8b 45 f0	 mov	 eax, DWORD PTR _this$[ebp]
  01efa	8b 48 28	 mov	 ecx, DWORD PTR [eax+40]
  01efd	51		 push	 ecx
  01efe	8b 55 a0	 mov	 edx, DWORD PTR tv92[ebp]
  01f01	8b 02		 mov	 eax, DWORD PTR [edx]
  01f03	8b 4d a0	 mov	 ecx, DWORD PTR tv92[ebp]
  01f06	ff 50 04	 call	 DWORD PTR [eax+4]
  01f09	3b f4		 cmp	 esi, esp
  01f0b	e8 00 00 00 00	 call	 __RTC_CheckEsp

; 474  : 			}

  01f10	eb b0		 jmp	 SHORT $L192281
$L192282:

; 475  : 
; 476  : 		}
; 477  : 		else

  01f12	eb 6a		 jmp	 SHORT $L192283
$L192278:

; 478  : 		{
; 479  : 			m_BaseColor = acolCol;

  01f14	8b 4d f0	 mov	 ecx, DWORD PTR _this$[ebp]
  01f17	8b 55 08	 mov	 edx, DWORD PTR _acolCol$[ebp]
  01f1a	89 51 24	 mov	 DWORD PTR [ecx+36], edx

; 480  : 			m_nLightPos = anLightValue;

  01f1d	8b 45 f0	 mov	 eax, DWORD PTR _this$[ebp]
  01f20	8b 4d 0c	 mov	 ecx, DWORD PTR _anLightValue$[ebp]
  01f23	89 48 2c	 mov	 DWORD PTR [eax+44], ecx

; 481  : 
; 482  : 
; 483  : 			for(size_t idx = 0;idx < mp_changeSkinEven.size();idx++ )

  01f26	c7 45 e8 00 00
	00 00		 mov	 DWORD PTR _idx$192284[ebp], 0
  01f2d	eb 09		 jmp	 SHORT $L192285
$L192286:
  01f2f	8b 55 e8	 mov	 edx, DWORD PTR _idx$192284[ebp]
  01f32	83 c2 01	 add	 edx, 1
  01f35	89 55 e8	 mov	 DWORD PTR _idx$192284[ebp], edx
$L192285:
  01f38	8b 4d f0	 mov	 ecx, DWORD PTR _this$[ebp]
  01f3b	83 c1 34	 add	 ecx, 52			; 00000034H
  01f3e	e8 00 00 00 00	 call	 ?size@?$vector@PAVIChangeSkinEventListener@@V?$allocator@PAVIChangeSkinEventListener@@@std@@@std@@QBEIXZ ; std::vector<IChangeSkinEventListener *,std::allocator<IChangeSkinEventListener *> >::size
  01f43	39 45 e8	 cmp	 DWORD PTR _idx$192284[ebp], eax
  01f46	73 36		 jae	 SHORT $L192283

; 484  : 			{
; 485  : 				mp_changeSkinEven[idx]->OnchangeColor( acolCol, anLightValue,bChange );

  01f48	8b 45 e8	 mov	 eax, DWORD PTR _idx$192284[ebp]
  01f4b	50		 push	 eax
  01f4c	8b 4d f0	 mov	 ecx, DWORD PTR _this$[ebp]
  01f4f	83 c1 34	 add	 ecx, 52			; 00000034H
  01f52	e8 00 00 00 00	 call	 ??A?$vector@PAVIChangeSkinEventListener@@V?$allocator@PAVIChangeSkinEventListener@@@std@@@std@@QAEAAPAVIChangeSkinEventListener@@I@Z ; std::vector<IChangeSkinEventListener *,std::allocator<IChangeSkinEventListener *> >::operator[]
  01f57	8b 08		 mov	 ecx, DWORD PTR [eax]
  01f59	89 4d 9c	 mov	 DWORD PTR tv149[ebp], ecx
  01f5c	8b f4		 mov	 esi, esp
  01f5e	8a 55 10	 mov	 dl, BYTE PTR _bChange$[ebp]
  01f61	52		 push	 edx
  01f62	8b 45 0c	 mov	 eax, DWORD PTR _anLightValue$[ebp]
  01f65	50		 push	 eax
  01f66	8b 4d 08	 mov	 ecx, DWORD PTR _acolCol$[ebp]
  01f69	51		 push	 ecx
  01f6a	8b 55 9c	 mov	 edx, DWORD PTR tv149[ebp]
  01f6d	8b 02		 mov	 eax, DWORD PTR [edx]
  01f6f	8b 4d 9c	 mov	 ecx, DWORD PTR tv149[ebp]
  01f72	ff 50 04	 call	 DWORD PTR [eax+4]
  01f75	3b f4		 cmp	 esi, esp
  01f77	e8 00 00 00 00	 call	 __RTC_CheckEsp

; 486  : 			}			

  01f7c	eb b1		 jmp	 SHORT $L192286
$L192283:

; 487  : 
; 488  : 		}
; 489  : 		CString msg;

  01f7e	8b f4		 mov	 esi, esp
  01f80	8d 4d e0	 lea	 ecx, DWORD PTR _msg$192288[ebp]
  01f83	ff 15 00 00 00
	00		 call	 DWORD PTR __imp_??0?$CStringT@DV?$StrTraitMFC_DLL@DV?$ChTraitsCRT@D@ATL@@@@@ATL@@QAE@XZ
  01f89	3b f4		 cmp	 esi, esp
  01f8b	e8 00 00 00 00	 call	 __RTC_CheckEsp
  01f90	c7 45 fc 00 00
	00 00		 mov	 DWORD PTR __$EHRec$[ebp+8], 0

; 490  : 		msg.Format("%08x,%d",acolCol, anLightValue );

  01f97	8b f4		 mov	 esi, esp
  01f99	8b 4d 0c	 mov	 ecx, DWORD PTR _anLightValue$[ebp]
  01f9c	51		 push	 ecx
  01f9d	8b 55 08	 mov	 edx, DWORD PTR _acolCol$[ebp]
  01fa0	52		 push	 edx
  01fa1	68 00 00 00 00	 push	 OFFSET FLAT:$SG192289
  01fa6	8d 45 e0	 lea	 eax, DWORD PTR _msg$192288[ebp]
  01fa9	50		 push	 eax
  01faa	ff 15 00 00 00
	00		 call	 DWORD PTR __imp_?Format@?$CStringT@DV?$StrTraitMFC_DLL@DV?$ChTraitsCRT@D@ATL@@@@@ATL@@QAAXPBDZZ
  01fb0	83 c4 10	 add	 esp, 16			; 00000010H
  01fb3	3b f4		 cmp	 esi, esp
  01fb5	e8 00 00 00 00	 call	 __RTC_CheckEsp

; 491  : 		LogUserActMsg("CHAGE_COLOR", (LPCSTR)msg);

  01fba	8b f4		 mov	 esi, esp
  01fbc	8d 4d e0	 lea	 ecx, DWORD PTR _msg$192288[ebp]
  01fbf	ff 15 00 00 00
	00		 call	 DWORD PTR __imp_??B?$CSimpleStringT@D$00@ATL@@QBEPBDXZ
  01fc5	3b f4		 cmp	 esi, esp
  01fc7	e8 00 00 00 00	 call	 __RTC_CheckEsp
  01fcc	8b f4		 mov	 esi, esp
  01fce	50		 push	 eax
  01fcf	8d 4d c0	 lea	 ecx, DWORD PTR $T194962[ebp]
  01fd2	ff 15 00 00 00
	00		 call	 DWORD PTR __imp_??0?$basic_string@DU?$char_traits@D@std@@V?$allocator@D@2@@std@@QAE@PBD@Z
  01fd8	3b f4		 cmp	 esi, esp
  01fda	e8 00 00 00 00	 call	 __RTC_CheckEsp
  01fdf	c6 45 fc 01	 mov	 BYTE PTR __$EHRec$[ebp+8], 1
  01fe3	8b f4		 mov	 esi, esp
  01fe5	68 00 00 00 00	 push	 OFFSET FLAT:$SG192293
  01fea	8d 4d a4	 lea	 ecx, DWORD PTR $T194963[ebp]
  01fed	ff 15 00 00 00
	00		 call	 DWORD PTR __imp_??0?$basic_string@DU?$char_traits@D@std@@V?$allocator@D@2@@std@@QAE@PBD@Z
  01ff3	3b f4		 cmp	 esi, esp
  01ff5	e8 00 00 00 00	 call	 __RTC_CheckEsp
  01ffa	c6 45 fc 02	 mov	 BYTE PTR __$EHRec$[ebp+8], 2
  01ffe	8b f4		 mov	 esi, esp
  02000	8d 4d c0	 lea	 ecx, DWORD PTR $T194962[ebp]
  02003	51		 push	 ecx
  02004	8d 55 a4	 lea	 edx, DWORD PTR $T194963[ebp]
  02007	52		 push	 edx
  02008	ff 15 00 00 00
	00		 call	 DWORD PTR __imp_?LogUserActMsg@@YAXABV?$basic_string@DU?$char_traits@D@std@@V?$allocator@D@2@@std@@0@Z
  0200e	83 c4 08	 add	 esp, 8
  02011	3b f4		 cmp	 esi, esp
  02013	e8 00 00 00 00	 call	 __RTC_CheckEsp
  02018	c6 45 fc 01	 mov	 BYTE PTR __$EHRec$[ebp+8], 1
  0201c	8b f4		 mov	 esi, esp
  0201e	8d 4d a4	 lea	 ecx, DWORD PTR $T194963[ebp]
  02021	ff 15 00 00 00
	00		 call	 DWORD PTR __imp_??1?$basic_string@DU?$char_traits@D@std@@V?$allocator@D@2@@std@@QAE@XZ
  02027	3b f4		 cmp	 esi, esp
  02029	e8 00 00 00 00	 call	 __RTC_CheckEsp
  0202e	c6 45 fc 00	 mov	 BYTE PTR __$EHRec$[ebp+8], 0
  02032	8b f4		 mov	 esi, esp
  02034	8d 4d c0	 lea	 ecx, DWORD PTR $T194962[ebp]
  02037	ff 15 00 00 00
	00		 call	 DWORD PTR __imp_??1?$basic_string@DU?$char_traits@D@std@@V?$allocator@D@2@@std@@QAE@XZ
  0203d	3b f4		 cmp	 esi, esp
  0203f	e8 00 00 00 00	 call	 __RTC_CheckEsp

; 492  : 	}

  02044	c7 45 fc ff ff
	ff ff		 mov	 DWORD PTR __$EHRec$[ebp+8], -1
  0204b	8b f4		 mov	 esi, esp
  0204d	8d 4d e0	 lea	 ecx, DWORD PTR _msg$192288[ebp]
  02050	ff 15 00 00 00
	00		 call	 DWORD PTR __imp_??1?$CStringT@DV?$StrTraitMFC_DLL@DV?$ChTraitsCRT@D@ATL@@@@@ATL@@QAE@XZ
  02056	3b f4		 cmp	 esi, esp
  02058	e8 00 00 00 00	 call	 __RTC_CheckEsp
$L192276:

; 493  : }

  0205d	52		 push	 edx
  0205e	8b cd		 mov	 ecx, ebp
  02060	50		 push	 eax
  02061	8d 15 00 00 00
	00		 lea	 edx, DWORD PTR $L194972
  02067	e8 00 00 00 00	 call	 @_RTC_CheckStackVars@8
  0206c	58		 pop	 eax
  0206d	5a		 pop	 edx
  0206e	8b 4d f4	 mov	 ecx, DWORD PTR __$EHRec$[ebp]
  02071	64 89 0d 00 00
	00 00		 mov	 DWORD PTR fs:__except_list, ecx
  02078	5f		 pop	 edi
  02079	5e		 pop	 esi
  0207a	83 c4 64	 add	 esp, 100		; 00000064H
  0207d	3b ec		 cmp	 ebp, esp
  0207f	e8 00 00 00 00	 call	 __RTC_CheckEsp
  02084	8b e5		 mov	 esp, ebp
  02086	5d		 pop	 ebp
  02087	c2 0c 00	 ret	 12			; 0000000cH
$L194972:
  0208a	01 00 00 00	 DD	 1
  0208e	00 00 00 00	 DD	 $L194971
$L194971:
  02092	e0 ff ff ff	 DD	 -32			; ffffffe0H
  02096	04 00 00 00	 DD	 4
  0209a	00 00 00 00	 DD	 $L194969
$L194969:
  0209e	6d		 DB	 109			; 0000006dH
  0209f	73		 DB	 115			; 00000073H
  020a0	67		 DB	 103			; 00000067H
  020a1	00		 DB	 0
_TEXT	ENDS
text$x	SEGMENT
$L194964:
  00363	8b f4		 mov	 esi, esp
  00365	8d 4d e0	 lea	 ecx, DWORD PTR _msg$192288[ebp]
  00368	ff 15 00 00 00
	00		 call	 DWORD PTR __imp_??1?$CStringT@DV?$StrTraitMFC_DLL@DV?$ChTraitsCRT@D@ATL@@@@@ATL@@QAE@XZ
  0036e	3b f4		 cmp	 esi, esp
  00370	e9 00 00 00 00	 jmp	 __RTC_CheckEsp
$L194965:
  00375	8b f4		 mov	 esi, esp
  00377	8d 4d c0	 lea	 ecx, DWORD PTR $T194962[ebp]
  0037a	ff 15 00 00 00
	00		 call	 DWORD PTR __imp_??1?$basic_string@DU?$char_traits@D@std@@V?$allocator@D@2@@std@@QAE@XZ
  00380	3b f4		 cmp	 esi, esp
  00382	e9 00 00 00 00	 jmp	 __RTC_CheckEsp
$L194966:
  00387	8b f4		 mov	 esi, esp
  00389	8d 4d a4	 lea	 ecx, DWORD PTR $T194963[ebp]
  0038c	ff 15 00 00 00
	00		 call	 DWORD PTR __imp_??1?$basic_string@DU?$char_traits@D@std@@V?$allocator@D@2@@std@@QAE@XZ
  00392	3b f4		 cmp	 esi, esp
  00394	e9 00 00 00 00	 jmp	 __RTC_CheckEsp
__ehhandler$?OnSendChangeColor@CSkinMgrV1@@UAEXKI_N@Z:
  00399	b8 00 00 00 00	 mov	 eax, OFFSET FLAT:$T194968
  0039e	e9 00 00 00 00	 jmp	 ___CxxFrameHandler
text$x	ENDS
?OnSendChangeColor@CSkinMgrV1@@UAEXKI_N@Z ENDP		; CSkinMgrV1::OnSendChangeColor
PUBLIC	??HATL@@YA?AV?$CStringT@DV?$StrTraitMFC_DLL@DV?$ChTraitsCRT@D@ATL@@@@@0@PBDABV10@@Z ; ATL::operator+
PUBLIC	??9ATL@@YA_NABV?$CStringT@DV?$StrTraitMFC_DLL@DV?$ChTraitsCRT@D@ATL@@@@@0@PBD@Z ; ATL::operator!=
EXTRN	__imp_?Left@?$CStringT@DV?$StrTraitMFC_DLL@DV?$ChTraitsCRT@D@ATL@@@@@ATL@@QBE?AV12@H@Z:NEAR
EXTRN	?IsValid@YL_FileInfo@@SA_NPBD@Z:NEAR		; YL_FileInfo::IsValid
EXTRN	?AfxGetUserConfig@@YAPAVAfxUserConfig@@XZ:NEAR	; AfxGetUserConfig
EXTRN	?GetHomePath@CLhcImg@@SA_NQADH@Z:NEAR		; CLhcImg::GetHomePath
EXTRN	?GetSafeHwnd@CWnd@@QBEPAUHWND__@@XZ:NEAR	; CWnd::GetSafeHwnd
EXTRN	__imp_??0?$basic_string@DU?$char_traits@D@std@@V?$allocator@D@2@@std@@QAE@XZ:NEAR
EXTRN	?GetConfigStringValue@AfxUserConfig@@QAEXABV?$basic_string@DU?$char_traits@D@std@@V?$allocator@D@2@@std@@0AAV23@@Z:NEAR ; AfxUserConfig::GetConfigStringValue
EXTRN	_strcat:NEAR
EXTRN	__imp_??4?$CStringT@DV?$StrTraitMFC_DLL@DV?$ChTraitsCRT@D@ATL@@@@@ATL@@QAEAAV01@ABV01@@Z:NEAR
EXTRN	__imp_??4?$CStringT@DV?$StrTraitMFC_DLL@DV?$ChTraitsCRT@D@ATL@@@@@ATL@@QAEAAV01@PBD@Z:NEAR
EXTRN	__imp_?Tokenize@?$CStringT@DV?$StrTraitMFC_DLL@DV?$ChTraitsCRT@D@ATL@@@@@ATL@@QBE?AV12@PBDAAH@Z:NEAR
EXTRN	__imp_?ReverseFind@?$CStringT@DV?$StrTraitMFC_DLL@DV?$ChTraitsCRT@D@ATL@@@@@ATL@@QBEHD@Z:NEAR
EXTRN	__imp_?TrimRight@?$CStringT@DV?$StrTraitMFC_DLL@DV?$ChTraitsCRT@D@ATL@@@@@ATL@@QAEAAV12@PBD@Z:NEAR
xdata$x	SEGMENT
$T195006 DD	0ffffffffH
	DD	FLAT:$L194985
	DD	00H
	DD	FLAT:$L194986
	DD	01H
	DD	FLAT:$L194987
	DD	02H
	DD	FLAT:$L194988
	DD	01H
	DD	FLAT:$L194989
	DD	00H
	DD	FLAT:$L194990
	DD	05H
	DD	FLAT:$L194991
	DD	06H
	DD	FLAT:$L194992
	DD	05H
	DD	FLAT:$L194993
	DD	08H
	DD	FLAT:$L194994
$T194997 DD	019930520H
	DD	0aH
	DD	FLAT:$T195006
	DD	2 DUP(00H)
	DD	2 DUP(00H)
; Function compile flags: /Odt /RTCsu
xdata$x	ENDS
_TEXT	SEGMENT
tv287 = -740						; size = 4
tv204 = -736						; size = 4
tv285 = -732						; size = 4
tv307 = -728						; size = 4
tv282 = -724						; size = 4
tv304 = -720						; size = 4
tv280 = -716						; size = 4
tv301 = -712						; size = 4
tv278 = -708						; size = 4
tv298 = -704						; size = 4
tv275 = -700						; size = 4
tv294 = -696						; size = 4
$T194984 = -692						; size = 4
$T194983 = -688						; size = 4
$T194982 = -684						; size = 4
$T194981 = -680						; size = 4
$T194980 = -676						; size = 4
$T194979 = -669						; size = 1
$T194978 = -668						; size = 4
$T194977 = -664						; size = 28
$T194976 = -636						; size = 28
_idx$192320 = -608					; size = 4
_name$ = -600						; size = 4
_nPos$ = -588						; size = 4
_szbuffer$192305 = -576					; size = 512
_path$192302 = -56					; size = 28
_pUserConfig$192301 = -24				; size = 4
_this$ = -20						; size = 4
__$ArrayPad$ = -16					; size = 4
__$EHRec$ = -12						; size = 12
__$ReturnAddr$ = 4					; size = 4
_strPath$ = 8						; size = 4
?OnSendChangeSkin@CSkinMgrV1@@UAEXV?$CStringT@DV?$StrTraitMFC_DLL@DV?$ChTraitsCRT@D@ATL@@@@@ATL@@@Z PROC NEAR ; CSkinMgrV1::OnSendChangeSkin
; _this$ = ecx

; 496  : {

  020b0	55		 push	 ebp
  020b1	8b ec		 mov	 ebp, esp
  020b3	6a ff		 push	 -1
  020b5	68 00 00 00 00	 push	 __ehhandler$?OnSendChangeSkin@CSkinMgrV1@@UAEXV?$CStringT@DV?$StrTraitMFC_DLL@DV?$ChTraitsCRT@D@ATL@@@@@ATL@@@Z
  020ba	64 a1 00 00 00
	00		 mov	 eax, DWORD PTR fs:__except_list
  020c0	50		 push	 eax
  020c1	64 89 25 00 00
	00 00		 mov	 DWORD PTR fs:__except_list, esp
  020c8	81 ec d8 02 00
	00		 sub	 esp, 728		; 000002d8H
  020ce	56		 push	 esi
  020cf	57		 push	 edi
  020d0	51		 push	 ecx
  020d1	8d bd 1c fd ff
	ff		 lea	 edi, DWORD PTR [ebp-740]
  020d7	b9 b6 00 00 00	 mov	 ecx, 182		; 000000b6H
  020dc	b8 cc cc cc cc	 mov	 eax, -858993460		; ccccccccH
  020e1	f3 ab		 rep stosd
  020e3	59		 pop	 ecx
  020e4	a1 00 00 00 00	 mov	 eax, DWORD PTR ___security_cookie
  020e9	89 45 f0	 mov	 DWORD PTR __$ArrayPad$[ebp], eax
  020ec	89 4d ec	 mov	 DWORD PTR _this$[ebp], ecx
  020ef	c7 45 fc 00 00
	00 00		 mov	 DWORD PTR __$EHRec$[ebp+8], 0

; 497  : 	if(strPath != "")

  020f6	68 00 00 00 00	 push	 OFFSET FLAT:$SG192299
  020fb	8d 45 08	 lea	 eax, DWORD PTR _strPath$[ebp]
  020fe	50		 push	 eax
  020ff	e8 00 00 00 00	 call	 ??9ATL@@YA_NABV?$CStringT@DV?$StrTraitMFC_DLL@DV?$ChTraitsCRT@D@ATL@@@@@0@PBD@Z ; ATL::operator!=
  02104	83 c4 08	 add	 esp, 8
  02107	0f b6 c8	 movzx	 ecx, al
  0210a	85 c9		 test	 ecx, ecx
  0210c	74 1e		 je	 SHORT $L192298

; 498  : 		m_strSkinPath = strPath;

  0210e	8b f4		 mov	 esi, esp
  02110	8d 55 08	 lea	 edx, DWORD PTR _strPath$[ebp]
  02113	52		 push	 edx
  02114	8b 4d ec	 mov	 ecx, DWORD PTR _this$[ebp]
  02117	83 c1 30	 add	 ecx, 48			; 00000030H
  0211a	ff 15 00 00 00
	00		 call	 DWORD PTR __imp_??4?$CStringT@DV?$StrTraitMFC_DLL@DV?$ChTraitsCRT@D@ATL@@@@@ATL@@QAEAAV01@ABV01@@Z
  02120	3b f4		 cmp	 esi, esp
  02122	e8 00 00 00 00	 call	 __RTC_CheckEsp

; 499  : 	else

  02127	e9 77 01 00 00	 jmp	 $L192300
$L192298:

; 500  : 	{
; 501  : 		AfxUserConfig* pUserConfig = AfxGetUserConfig();

  0212c	e8 00 00 00 00	 call	 ?AfxGetUserConfig@@YAPAVAfxUserConfig@@XZ ; AfxGetUserConfig
  02131	89 45 e8	 mov	 DWORD PTR _pUserConfig$192301[ebp], eax

; 502  : 		string path;

  02134	8b f4		 mov	 esi, esp
  02136	8d 4d c8	 lea	 ecx, DWORD PTR _path$192302[ebp]
  02139	ff 15 00 00 00
	00		 call	 DWORD PTR __imp_??0?$basic_string@DU?$char_traits@D@std@@V?$allocator@D@2@@std@@QAE@XZ
  0213f	3b f4		 cmp	 esi, esp
  02141	e8 00 00 00 00	 call	 __RTC_CheckEsp
  02146	c6 45 fc 01	 mov	 BYTE PTR __$EHRec$[ebp+8], 1

; 503  : 		pUserConfig->GetConfigStringValue(CONF_SETTING_MODULE_NAME, CONF_SETTING_SKIN_IDX, path);

  0214a	8b f4		 mov	 esi, esp
  0214c	a1 00 00 00 00	 mov	 eax, DWORD PTR _CONF_SETTING_SKIN_IDX
  02151	50		 push	 eax
  02152	8d 8d 84 fd ff
	ff		 lea	 ecx, DWORD PTR $T194976[ebp]
  02158	ff 15 00 00 00
	00		 call	 DWORD PTR __imp_??0?$basic_string@DU?$char_traits@D@std@@V?$allocator@D@2@@std@@QAE@PBD@Z
  0215e	3b f4		 cmp	 esi, esp
  02160	e8 00 00 00 00	 call	 __RTC_CheckEsp
  02165	c6 45 fc 02	 mov	 BYTE PTR __$EHRec$[ebp+8], 2
  02169	8b f4		 mov	 esi, esp
  0216b	8b 0d 00 00 00
	00		 mov	 ecx, DWORD PTR _CONF_SETTING_MODULE_NAME
  02171	51		 push	 ecx
  02172	8d 8d 68 fd ff
	ff		 lea	 ecx, DWORD PTR $T194977[ebp]
  02178	ff 15 00 00 00
	00		 call	 DWORD PTR __imp_??0?$basic_string@DU?$char_traits@D@std@@V?$allocator@D@2@@std@@QAE@PBD@Z
  0217e	3b f4		 cmp	 esi, esp
  02180	e8 00 00 00 00	 call	 __RTC_CheckEsp
  02185	c6 45 fc 03	 mov	 BYTE PTR __$EHRec$[ebp+8], 3
  02189	8d 55 c8	 lea	 edx, DWORD PTR _path$192302[ebp]
  0218c	52		 push	 edx
  0218d	8d 85 84 fd ff
	ff		 lea	 eax, DWORD PTR $T194976[ebp]
  02193	50		 push	 eax
  02194	8d 8d 68 fd ff
	ff		 lea	 ecx, DWORD PTR $T194977[ebp]
  0219a	51		 push	 ecx
  0219b	8b 4d e8	 mov	 ecx, DWORD PTR _pUserConfig$192301[ebp]
  0219e	e8 00 00 00 00	 call	 ?GetConfigStringValue@AfxUserConfig@@QAEXABV?$basic_string@DU?$char_traits@D@std@@V?$allocator@D@2@@std@@0AAV23@@Z ; AfxUserConfig::GetConfigStringValue
  021a3	c6 45 fc 02	 mov	 BYTE PTR __$EHRec$[ebp+8], 2
  021a7	8b f4		 mov	 esi, esp
  021a9	8d 8d 68 fd ff
	ff		 lea	 ecx, DWORD PTR $T194977[ebp]
  021af	ff 15 00 00 00
	00		 call	 DWORD PTR __imp_??1?$basic_string@DU?$char_traits@D@std@@V?$allocator@D@2@@std@@QAE@XZ
  021b5	3b f4		 cmp	 esi, esp
  021b7	e8 00 00 00 00	 call	 __RTC_CheckEsp
  021bc	c6 45 fc 01	 mov	 BYTE PTR __$EHRec$[ebp+8], 1
  021c0	8b f4		 mov	 esi, esp
  021c2	8d 8d 84 fd ff
	ff		 lea	 ecx, DWORD PTR $T194976[ebp]
  021c8	ff 15 00 00 00
	00		 call	 DWORD PTR __imp_??1?$basic_string@DU?$char_traits@D@std@@V?$allocator@D@2@@std@@QAE@XZ
  021ce	3b f4		 cmp	 esi, esp
  021d0	e8 00 00 00 00	 call	 __RTC_CheckEsp

; 504  : 		m_strSkinPath = path.c_str();

  021d5	8b f4		 mov	 esi, esp
  021d7	8d 4d c8	 lea	 ecx, DWORD PTR _path$192302[ebp]
  021da	ff 15 00 00 00
	00		 call	 DWORD PTR __imp_?c_str@?$basic_string@DU?$char_traits@D@std@@V?$allocator@D@2@@std@@QBEPBDXZ
  021e0	3b f4		 cmp	 esi, esp
  021e2	e8 00 00 00 00	 call	 __RTC_CheckEsp
  021e7	8b f4		 mov	 esi, esp
  021e9	50		 push	 eax
  021ea	8b 4d ec	 mov	 ecx, DWORD PTR _this$[ebp]
  021ed	83 c1 30	 add	 ecx, 48			; 00000030H
  021f0	ff 15 00 00 00
	00		 call	 DWORD PTR __imp_??4?$CStringT@DV?$StrTraitMFC_DLL@DV?$ChTraitsCRT@D@ATL@@@@@ATL@@QAEAAV01@PBD@Z
  021f6	3b f4		 cmp	 esi, esp
  021f8	e8 00 00 00 00	 call	 __RTC_CheckEsp

; 505  : 		char szbuffer[512];
; 506  : 		CLhcImg::GetHomePath(szbuffer,512);

  021fd	68 00 02 00 00	 push	 512			; 00000200H
  02202	8d 95 c0 fd ff
	ff		 lea	 edx, DWORD PTR _szbuffer$192305[ebp]
  02208	52		 push	 edx
  02209	e8 00 00 00 00	 call	 ?GetHomePath@CLhcImg@@SA_NQADH@Z ; CLhcImg::GetHomePath
  0220e	83 c4 08	 add	 esp, 8

; 507  : 		strcat(szbuffer,"\\skin\\");

  02211	68 00 00 00 00	 push	 OFFSET FLAT:$SG192306
  02216	8d 85 c0 fd ff
	ff		 lea	 eax, DWORD PTR _szbuffer$192305[ebp]
  0221c	50		 push	 eax
  0221d	e8 00 00 00 00	 call	 _strcat
  02222	83 c4 08	 add	 esp, 8

; 508  : 		m_strSkinPath = szbuffer + m_strSkinPath;

  02225	8b 4d ec	 mov	 ecx, DWORD PTR _this$[ebp]
  02228	83 c1 30	 add	 ecx, 48			; 00000030H
  0222b	51		 push	 ecx
  0222c	8d 95 c0 fd ff
	ff		 lea	 edx, DWORD PTR _szbuffer$192305[ebp]
  02232	52		 push	 edx
  02233	8d 85 64 fd ff
	ff		 lea	 eax, DWORD PTR $T194978[ebp]
  02239	50		 push	 eax
  0223a	e8 00 00 00 00	 call	 ??HATL@@YA?AV?$CStringT@DV?$StrTraitMFC_DLL@DV?$ChTraitsCRT@D@ATL@@@@@0@PBDABV10@@Z ; ATL::operator+
  0223f	83 c4 0c	 add	 esp, 12			; 0000000cH
  02242	89 85 48 fd ff
	ff		 mov	 DWORD PTR tv294[ebp], eax
  02248	8b 8d 48 fd ff
	ff		 mov	 ecx, DWORD PTR tv294[ebp]
  0224e	89 8d 44 fd ff
	ff		 mov	 DWORD PTR tv275[ebp], ecx
  02254	c6 45 fc 04	 mov	 BYTE PTR __$EHRec$[ebp+8], 4
  02258	8b f4		 mov	 esi, esp
  0225a	8b 95 44 fd ff
	ff		 mov	 edx, DWORD PTR tv275[ebp]
  02260	52		 push	 edx
  02261	8b 4d ec	 mov	 ecx, DWORD PTR _this$[ebp]
  02264	83 c1 30	 add	 ecx, 48			; 00000030H
  02267	ff 15 00 00 00
	00		 call	 DWORD PTR __imp_??4?$CStringT@DV?$StrTraitMFC_DLL@DV?$ChTraitsCRT@D@ATL@@@@@ATL@@QAEAAV01@ABV01@@Z
  0226d	3b f4		 cmp	 esi, esp
  0226f	e8 00 00 00 00	 call	 __RTC_CheckEsp
  02274	c6 45 fc 01	 mov	 BYTE PTR __$EHRec$[ebp+8], 1
  02278	8b f4		 mov	 esi, esp
  0227a	8d 8d 64 fd ff
	ff		 lea	 ecx, DWORD PTR $T194978[ebp]
  02280	ff 15 00 00 00
	00		 call	 DWORD PTR __imp_??1?$CStringT@DV?$StrTraitMFC_DLL@DV?$ChTraitsCRT@D@ATL@@@@@ATL@@QAE@XZ
  02286	3b f4		 cmp	 esi, esp
  02288	e8 00 00 00 00	 call	 __RTC_CheckEsp

; 509  : 		//	pUserConfig->SetConfigStringValue( CONF_SETTING_MODULE_NAME, CONF_SETTING_SKIN_IDX, string(skinPath), true);
; 510  : 	}

  0228d	c6 45 fc 00	 mov	 BYTE PTR __$EHRec$[ebp+8], 0
  02291	8b f4		 mov	 esi, esp
  02293	8d 4d c8	 lea	 ecx, DWORD PTR _path$192302[ebp]
  02296	ff 15 00 00 00
	00		 call	 DWORD PTR __imp_??1?$basic_string@DU?$char_traits@D@std@@V?$allocator@D@2@@std@@QAE@XZ
  0229c	3b f4		 cmp	 esi, esp
  0229e	e8 00 00 00 00	 call	 __RTC_CheckEsp
$L192300:

; 511  : 	int	nPos = m_strSkinPath.TrimRight("\\").ReverseFind('\\');

  022a3	8b f4		 mov	 esi, esp
  022a5	6a 5c		 push	 92			; 0000005cH
  022a7	8b fc		 mov	 edi, esp
  022a9	68 00 00 00 00	 push	 OFFSET FLAT:$SG192309
  022ae	8b 4d ec	 mov	 ecx, DWORD PTR _this$[ebp]
  022b1	83 c1 30	 add	 ecx, 48			; 00000030H
  022b4	ff 15 00 00 00
	00		 call	 DWORD PTR __imp_?TrimRight@?$CStringT@DV?$StrTraitMFC_DLL@DV?$ChTraitsCRT@D@ATL@@@@@ATL@@QAEAAV12@PBD@Z
  022ba	3b fc		 cmp	 edi, esp
  022bc	e8 00 00 00 00	 call	 __RTC_CheckEsp
  022c1	8b c8		 mov	 ecx, eax
  022c3	ff 15 00 00 00
	00		 call	 DWORD PTR __imp_?ReverseFind@?$CStringT@DV?$StrTraitMFC_DLL@DV?$ChTraitsCRT@D@ATL@@@@@ATL@@QBEHD@Z
  022c9	3b f4		 cmp	 esi, esp
  022cb	e8 00 00 00 00	 call	 __RTC_CheckEsp
  022d0	89 85 b4 fd ff
	ff		 mov	 DWORD PTR _nPos$[ebp], eax

; 512  : 	CString name = m_strSkinPath.Tokenize("\\", nPos);

  022d6	8b f4		 mov	 esi, esp
  022d8	8d 85 b4 fd ff
	ff		 lea	 eax, DWORD PTR _nPos$[ebp]
  022de	50		 push	 eax
  022df	68 00 00 00 00	 push	 OFFSET FLAT:$SG192312
  022e4	8d 8d a8 fd ff
	ff		 lea	 ecx, DWORD PTR _name$[ebp]
  022ea	51		 push	 ecx
  022eb	8b 4d ec	 mov	 ecx, DWORD PTR _this$[ebp]
  022ee	83 c1 30	 add	 ecx, 48			; 00000030H
  022f1	ff 15 00 00 00
	00		 call	 DWORD PTR __imp_?Tokenize@?$CStringT@DV?$StrTraitMFC_DLL@DV?$ChTraitsCRT@D@ATL@@@@@ATL@@QBE?AV12@PBDAAH@Z
  022f7	3b f4		 cmp	 esi, esp
  022f9	e8 00 00 00 00	 call	 __RTC_CheckEsp
  022fe	c6 45 fc 05	 mov	 BYTE PTR __$EHRec$[ebp+8], 5

; 513  : 	if(!YL_FileInfo::IsValid(m_strSkinPath.Left(nPos) + "\\skin.dat"))

  02302	8b f4		 mov	 esi, esp
  02304	8b 95 b4 fd ff
	ff		 mov	 edx, DWORD PTR _nPos$[ebp]
  0230a	52		 push	 edx
  0230b	8d 85 5c fd ff
	ff		 lea	 eax, DWORD PTR $T194980[ebp]
  02311	50		 push	 eax
  02312	8b 4d ec	 mov	 ecx, DWORD PTR _this$[ebp]
  02315	83 c1 30	 add	 ecx, 48			; 00000030H
  02318	ff 15 00 00 00
	00		 call	 DWORD PTR __imp_?Left@?$CStringT@DV?$StrTraitMFC_DLL@DV?$ChTraitsCRT@D@ATL@@@@@ATL@@QBE?AV12@H@Z
  0231e	3b f4		 cmp	 esi, esp
  02320	e8 00 00 00 00	 call	 __RTC_CheckEsp
  02325	89 85 40 fd ff
	ff		 mov	 DWORD PTR tv298[ebp], eax
  0232b	8b 8d 40 fd ff
	ff		 mov	 ecx, DWORD PTR tv298[ebp]
  02331	89 8d 3c fd ff
	ff		 mov	 DWORD PTR tv278[ebp], ecx
  02337	c6 45 fc 06	 mov	 BYTE PTR __$EHRec$[ebp+8], 6
  0233b	68 00 00 00 00	 push	 OFFSET FLAT:$SG192317
  02340	8b 95 3c fd ff
	ff		 mov	 edx, DWORD PTR tv278[ebp]
  02346	52		 push	 edx
  02347	8d 85 58 fd ff
	ff		 lea	 eax, DWORD PTR $T194981[ebp]
  0234d	50		 push	 eax
  0234e	e8 00 00 00 00	 call	 ??HATL@@YA?AV?$CStringT@DV?$StrTraitMFC_DLL@DV?$ChTraitsCRT@D@ATL@@@@@0@ABV10@PBD@Z ; ATL::operator+
  02353	83 c4 0c	 add	 esp, 12			; 0000000cH
  02356	89 85 38 fd ff
	ff		 mov	 DWORD PTR tv301[ebp], eax
  0235c	8b 8d 38 fd ff
	ff		 mov	 ecx, DWORD PTR tv301[ebp]
  02362	89 8d 34 fd ff
	ff		 mov	 DWORD PTR tv280[ebp], ecx
  02368	c6 45 fc 07	 mov	 BYTE PTR __$EHRec$[ebp+8], 7
  0236c	8b f4		 mov	 esi, esp
  0236e	8b 8d 34 fd ff
	ff		 mov	 ecx, DWORD PTR tv280[ebp]
  02374	ff 15 00 00 00
	00		 call	 DWORD PTR __imp_??B?$CSimpleStringT@D$00@ATL@@QBEPBDXZ
  0237a	3b f4		 cmp	 esi, esp
  0237c	e8 00 00 00 00	 call	 __RTC_CheckEsp
  02381	50		 push	 eax
  02382	e8 00 00 00 00	 call	 ?IsValid@YL_FileInfo@@SA_NPBD@Z ; YL_FileInfo::IsValid
  02387	83 c4 04	 add	 esp, 4
  0238a	0f b6 d0	 movzx	 edx, al
  0238d	f7 da		 neg	 edx
  0238f	1b d2		 sbb	 edx, edx
  02391	42		 inc	 edx
  02392	88 95 63 fd ff
	ff		 mov	 BYTE PTR $T194979[ebp], dl
  02398	c6 45 fc 06	 mov	 BYTE PTR __$EHRec$[ebp+8], 6
  0239c	8b f4		 mov	 esi, esp
  0239e	8d 8d 58 fd ff
	ff		 lea	 ecx, DWORD PTR $T194981[ebp]
  023a4	ff 15 00 00 00
	00		 call	 DWORD PTR __imp_??1?$CStringT@DV?$StrTraitMFC_DLL@DV?$ChTraitsCRT@D@ATL@@@@@ATL@@QAE@XZ
  023aa	3b f4		 cmp	 esi, esp
  023ac	e8 00 00 00 00	 call	 __RTC_CheckEsp
  023b1	c6 45 fc 05	 mov	 BYTE PTR __$EHRec$[ebp+8], 5
  023b5	8b f4		 mov	 esi, esp
  023b7	8d 8d 5c fd ff
	ff		 lea	 ecx, DWORD PTR $T194980[ebp]
  023bd	ff 15 00 00 00
	00		 call	 DWORD PTR __imp_??1?$CStringT@DV?$StrTraitMFC_DLL@DV?$ChTraitsCRT@D@ATL@@@@@ATL@@QAE@XZ
  023c3	3b f4		 cmp	 esi, esp
  023c5	e8 00 00 00 00	 call	 __RTC_CheckEsp
  023ca	0f b6 85 63 fd
	ff ff		 movzx	 eax, BYTE PTR $T194979[ebp]
  023d1	85 c0		 test	 eax, eax
  023d3	74 05		 je	 SHORT $L192315

; 514  : 	{
; 515  : 		//
; 516  : 	}
; 517  : 	else

  023d5	e9 52 01 00 00	 jmp	 $L192318
$L192315:

; 518  : 	{
; 519  : 		m_BaseColor = 0;

  023da	8b 4d ec	 mov	 ecx, DWORD PTR _this$[ebp]
  023dd	c7 41 24 00 00
	00 00		 mov	 DWORD PTR [ecx+36], 0

; 520  : 		if( mp_changeSkinEven.size() > 0 )

  023e4	8b 4d ec	 mov	 ecx, DWORD PTR _this$[ebp]
  023e7	83 c1 34	 add	 ecx, 52			; 00000034H
  023ea	e8 00 00 00 00	 call	 ?size@?$vector@PAVIChangeSkinEventListener@@V?$allocator@PAVIChangeSkinEventListener@@@std@@@std@@QBEIXZ ; std::vector<IChangeSkinEventListener *,std::allocator<IChangeSkinEventListener *> >::size
  023ef	85 c0		 test	 eax, eax
  023f1	0f 86 cf 00 00
	00		 jbe	 $L192319

; 521  : 		{
; 522  : 			for(size_t idx = 0;idx < mp_changeSkinEven.size();idx++ )

  023f7	c7 85 a0 fd ff
	ff 00 00 00 00	 mov	 DWORD PTR _idx$192320[ebp], 0
  02401	eb 0f		 jmp	 SHORT $L192321
$L192322:
  02403	8b 95 a0 fd ff
	ff		 mov	 edx, DWORD PTR _idx$192320[ebp]
  02409	83 c2 01	 add	 edx, 1
  0240c	89 95 a0 fd ff
	ff		 mov	 DWORD PTR _idx$192320[ebp], edx
$L192321:
  02412	8b 4d ec	 mov	 ecx, DWORD PTR _this$[ebp]
  02415	83 c1 34	 add	 ecx, 52			; 00000034H
  02418	e8 00 00 00 00	 call	 ?size@?$vector@PAVIChangeSkinEventListener@@V?$allocator@PAVIChangeSkinEventListener@@@std@@@std@@QBEIXZ ; std::vector<IChangeSkinEventListener *,std::allocator<IChangeSkinEventListener *> >::size
  0241d	39 85 a0 fd ff
	ff		 cmp	 DWORD PTR _idx$192320[ebp], eax
  02423	0f 83 9d 00 00
	00		 jae	 $L192319

; 523  : 			{
; 524  : 				mp_changeSkinEven[idx]->OnChangeSkinTemplate( m_strSkinPath );

  02429	51		 push	 ecx
  0242a	8b cc		 mov	 ecx, esp
  0242c	89 a5 54 fd ff
	ff		 mov	 DWORD PTR $T194982[ebp], esp
  02432	8b f4		 mov	 esi, esp
  02434	68 00 00 00 00	 push	 OFFSET FLAT:$SG192326
  02439	ff 15 00 00 00
	00		 call	 DWORD PTR __imp_??0?$CStringT@DV?$StrTraitMFC_DLL@DV?$ChTraitsCRT@D@ATL@@@@@ATL@@QAE@PBD@Z
  0243f	3b f4		 cmp	 esi, esp
  02441	e8 00 00 00 00	 call	 __RTC_CheckEsp
  02446	89 85 30 fd ff
	ff		 mov	 DWORD PTR tv304[ebp], eax
  0244c	8b 85 30 fd ff
	ff		 mov	 eax, DWORD PTR tv304[ebp]
  02452	89 85 2c fd ff
	ff		 mov	 DWORD PTR tv282[ebp], eax
  02458	c6 45 fc 08	 mov	 BYTE PTR __$EHRec$[ebp+8], 8
  0245c	8b 4d ec	 mov	 ecx, DWORD PTR _this$[ebp]
  0245f	83 c1 30	 add	 ecx, 48			; 00000030H
  02462	51		 push	 ecx
  02463	8b d4		 mov	 edx, esp
  02465	89 a5 50 fd ff
	ff		 mov	 DWORD PTR $T194983[ebp], esp
  0246b	8b f4		 mov	 esi, esp
  0246d	51		 push	 ecx
  0246e	8b ca		 mov	 ecx, edx
  02470	ff 15 00 00 00
	00		 call	 DWORD PTR __imp_??0?$CStringT@DV?$StrTraitMFC_DLL@DV?$ChTraitsCRT@D@ATL@@@@@ATL@@QAE@ABV01@@Z
  02476	3b f4		 cmp	 esi, esp
  02478	e8 00 00 00 00	 call	 __RTC_CheckEsp
  0247d	89 85 28 fd ff
	ff		 mov	 DWORD PTR tv307[ebp], eax
  02483	8b 85 28 fd ff
	ff		 mov	 eax, DWORD PTR tv307[ebp]
  02489	89 85 24 fd ff
	ff		 mov	 DWORD PTR tv285[ebp], eax
  0248f	c6 45 fc 09	 mov	 BYTE PTR __$EHRec$[ebp+8], 9
  02493	8b 8d a0 fd ff
	ff		 mov	 ecx, DWORD PTR _idx$192320[ebp]
  02499	51		 push	 ecx
  0249a	8b 4d ec	 mov	 ecx, DWORD PTR _this$[ebp]
  0249d	83 c1 34	 add	 ecx, 52			; 00000034H
  024a0	e8 00 00 00 00	 call	 ??A?$vector@PAVIChangeSkinEventListener@@V?$allocator@PAVIChangeSkinEventListener@@@std@@@std@@QAEAAPAVIChangeSkinEventListener@@I@Z ; std::vector<IChangeSkinEventListener *,std::allocator<IChangeSkinEventListener *> >::operator[]
  024a5	8b 10		 mov	 edx, DWORD PTR [eax]
  024a7	89 95 20 fd ff
	ff		 mov	 DWORD PTR tv204[ebp], edx
  024ad	8b 85 20 fd ff
	ff		 mov	 eax, DWORD PTR tv204[ebp]
  024b3	8b 10		 mov	 edx, DWORD PTR [eax]
  024b5	c6 45 fc 05	 mov	 BYTE PTR __$EHRec$[ebp+8], 5
  024b9	8b 8d 20 fd ff
	ff		 mov	 ecx, DWORD PTR tv204[ebp]
  024bf	ff 12		 call	 DWORD PTR [edx]

; 525  : 			}

  024c1	e9 3d ff ff ff	 jmp	 $L192322
$L192319:

; 526  : 		}
; 527  : 
; 528  : 		if( mp_SubjectWnd && IsWindow(mp_SubjectWnd->GetSafeHwnd()))

  024c6	8b 45 ec	 mov	 eax, DWORD PTR _this$[ebp]
  024c9	83 78 14 00	 cmp	 DWORD PTR [eax+20], 0
  024cd	74 5d		 je	 SHORT $L192318
  024cf	8b 4d ec	 mov	 ecx, DWORD PTR _this$[ebp]
  024d2	8b 49 14	 mov	 ecx, DWORD PTR [ecx+20]
  024d5	e8 00 00 00 00	 call	 ?GetSafeHwnd@CWnd@@QBEPAUHWND__@@XZ ; CWnd::GetSafeHwnd
  024da	8b f4		 mov	 esi, esp
  024dc	50		 push	 eax
  024dd	ff 15 00 00 00
	00		 call	 DWORD PTR __imp__IsWindow@4
  024e3	3b f4		 cmp	 esi, esp
  024e5	e8 00 00 00 00	 call	 __RTC_CheckEsp
  024ea	85 c0		 test	 eax, eax
  024ec	74 3e		 je	 SHORT $L192318

; 529  : 		{
; 530  : 			mp_SubjectWnd->OnSendChangeSkin("");

  024ee	51		 push	 ecx
  024ef	8b cc		 mov	 ecx, esp
  024f1	89 a5 4c fd ff
	ff		 mov	 DWORD PTR $T194984[ebp], esp
  024f7	8b f4		 mov	 esi, esp
  024f9	68 00 00 00 00	 push	 OFFSET FLAT:$SG192329
  024fe	ff 15 00 00 00
	00		 call	 DWORD PTR __imp_??0?$CStringT@DV?$StrTraitMFC_DLL@DV?$ChTraitsCRT@D@ATL@@@@@ATL@@QAE@PBD@Z
  02504	3b f4		 cmp	 esi, esp
  02506	e8 00 00 00 00	 call	 __RTC_CheckEsp
  0250b	89 85 1c fd ff
	ff		 mov	 DWORD PTR tv287[ebp], eax
  02511	8b 55 ec	 mov	 edx, DWORD PTR _this$[ebp]
  02514	8b 42 14	 mov	 eax, DWORD PTR [edx+20]
  02517	8b 4d ec	 mov	 ecx, DWORD PTR _this$[ebp]
  0251a	8b 49 14	 mov	 ecx, DWORD PTR [ecx+20]
  0251d	81 c1 d4 00 00
	00		 add	 ecx, 212		; 000000d4H
  02523	8b 90 d4 00 00
	00		 mov	 edx, DWORD PTR [eax+212]
  02529	ff 52 0c	 call	 DWORD PTR [edx+12]
$L192318:

; 531  : 		}
; 532  : 	}
; 533  : }

  0252c	c6 45 fc 00	 mov	 BYTE PTR __$EHRec$[ebp+8], 0
  02530	8b f4		 mov	 esi, esp
  02532	8d 8d a8 fd ff
	ff		 lea	 ecx, DWORD PTR _name$[ebp]
  02538	ff 15 00 00 00
	00		 call	 DWORD PTR __imp_??1?$CStringT@DV?$StrTraitMFC_DLL@DV?$ChTraitsCRT@D@ATL@@@@@ATL@@QAE@XZ
  0253e	3b f4		 cmp	 esi, esp
  02540	e8 00 00 00 00	 call	 __RTC_CheckEsp
  02545	c7 45 fc ff ff
	ff ff		 mov	 DWORD PTR __$EHRec$[ebp+8], -1
  0254c	8b f4		 mov	 esi, esp
  0254e	8d 4d 08	 lea	 ecx, DWORD PTR _strPath$[ebp]
  02551	ff 15 00 00 00
	00		 call	 DWORD PTR __imp_??1?$CStringT@DV?$StrTraitMFC_DLL@DV?$ChTraitsCRT@D@ATL@@@@@ATL@@QAE@XZ
  02557	3b f4		 cmp	 esi, esp
  02559	e8 00 00 00 00	 call	 __RTC_CheckEsp
  0255e	52		 push	 edx
  0255f	8b cd		 mov	 ecx, ebp
  02561	50		 push	 eax
  02562	8d 15 00 00 00
	00		 lea	 edx, DWORD PTR $L195005
  02568	e8 00 00 00 00	 call	 @_RTC_CheckStackVars@8
  0256d	58		 pop	 eax
  0256e	5a		 pop	 edx
  0256f	8b 4d f4	 mov	 ecx, DWORD PTR __$EHRec$[ebp]
  02572	64 89 0d 00 00
	00 00		 mov	 DWORD PTR fs:__except_list, ecx
  02579	8b 4d f0	 mov	 ecx, DWORD PTR __$ArrayPad$[ebp]
  0257c	e8 00 00 00 00	 call	 @__security_check_cookie@4
  02581	5f		 pop	 edi
  02582	5e		 pop	 esi
  02583	81 c4 e4 02 00
	00		 add	 esp, 740		; 000002e4H
  02589	3b ec		 cmp	 ebp, esp
  0258b	e8 00 00 00 00	 call	 __RTC_CheckEsp
  02590	8b e5		 mov	 esp, ebp
  02592	5d		 pop	 ebp
  02593	c2 04 00	 ret	 4
$L195005:
  02596	04 00 00 00	 DD	 4
  0259a	00 00 00 00	 DD	 $L195004
$L195004:
  0259e	c8 ff ff ff	 DD	 -56			; ffffffc8H
  025a2	1c 00 00 00	 DD	 28			; 0000001cH
  025a6	00 00 00 00	 DD	 $L194998
  025aa	c0 fd ff ff	 DD	 -576			; fffffdc0H
  025ae	00 02 00 00	 DD	 512			; 00000200H
  025b2	00 00 00 00	 DD	 $L194999
  025b6	b4 fd ff ff	 DD	 -588			; fffffdb4H
  025ba	04 00 00 00	 DD	 4
  025be	00 00 00 00	 DD	 $L195000
  025c2	a8 fd ff ff	 DD	 -600			; fffffda8H
  025c6	04 00 00 00	 DD	 4
  025ca	00 00 00 00	 DD	 $L195001
$L195001:
  025ce	6e		 DB	 110			; 0000006eH
  025cf	61		 DB	 97			; 00000061H
  025d0	6d		 DB	 109			; 0000006dH
  025d1	65		 DB	 101			; 00000065H
  025d2	00		 DB	 0
$L195000:
  025d3	6e		 DB	 110			; 0000006eH
  025d4	50		 DB	 80			; 00000050H
  025d5	6f		 DB	 111			; 0000006fH
  025d6	73		 DB	 115			; 00000073H
  025d7	00		 DB	 0
$L194999:
  025d8	73		 DB	 115			; 00000073H
  025d9	7a		 DB	 122			; 0000007aH
  025da	62		 DB	 98			; 00000062H
  025db	75		 DB	 117			; 00000075H
  025dc	66		 DB	 102			; 00000066H
  025dd	66		 DB	 102			; 00000066H
  025de	65		 DB	 101			; 00000065H
  025df	72		 DB	 114			; 00000072H
  025e0	00		 DB	 0
$L194998:
  025e1	70		 DB	 112			; 00000070H
  025e2	61		 DB	 97			; 00000061H
  025e3	74		 DB	 116			; 00000074H
  025e4	68		 DB	 104			; 00000068H
  025e5	00		 DB	 0
_TEXT	ENDS
text$x	SEGMENT
$L194985:
  003a3	8b f4		 mov	 esi, esp
  003a5	8d 4d 08	 lea	 ecx, DWORD PTR _strPath$[ebp]
  003a8	ff 15 00 00 00
	00		 call	 DWORD PTR __imp_??1?$CStringT@DV?$StrTraitMFC_DLL@DV?$ChTraitsCRT@D@ATL@@@@@ATL@@QAE@XZ
  003ae	3b f4		 cmp	 esi, esp
  003b0	e9 00 00 00 00	 jmp	 __RTC_CheckEsp
$L194986:
  003b5	8b f4		 mov	 esi, esp
  003b7	8d 4d c8	 lea	 ecx, DWORD PTR _path$192302[ebp]
  003ba	ff 15 00 00 00
	00		 call	 DWORD PTR __imp_??1?$basic_string@DU?$char_traits@D@std@@V?$allocator@D@2@@std@@QAE@XZ
  003c0	3b f4		 cmp	 esi, esp
  003c2	e9 00 00 00 00	 jmp	 __RTC_CheckEsp
$L194987:
  003c7	8b f4		 mov	 esi, esp
  003c9	8d 8d 84 fd ff
	ff		 lea	 ecx, DWORD PTR $T194976[ebp]
  003cf	ff 15 00 00 00
	00		 call	 DWORD PTR __imp_??1?$basic_string@DU?$char_traits@D@std@@V?$allocator@D@2@@std@@QAE@XZ
  003d5	3b f4		 cmp	 esi, esp
  003d7	e9 00 00 00 00	 jmp	 __RTC_CheckEsp
$L194988:
  003dc	8b f4		 mov	 esi, esp
  003de	8d 8d 68 fd ff
	ff		 lea	 ecx, DWORD PTR $T194977[ebp]
  003e4	ff 15 00 00 00
	00		 call	 DWORD PTR __imp_??1?$basic_string@DU?$char_traits@D@std@@V?$allocator@D@2@@std@@QAE@XZ
  003ea	3b f4		 cmp	 esi, esp
  003ec	e9 00 00 00 00	 jmp	 __RTC_CheckEsp
$L194989:
  003f1	8b f4		 mov	 esi, esp
  003f3	8d 8d 64 fd ff
	ff		 lea	 ecx, DWORD PTR $T194978[ebp]
  003f9	ff 15 00 00 00
	00		 call	 DWORD PTR __imp_??1?$CStringT@DV?$StrTraitMFC_DLL@DV?$ChTraitsCRT@D@ATL@@@@@ATL@@QAE@XZ
  003ff	3b f4		 cmp	 esi, esp
  00401	e9 00 00 00 00	 jmp	 __RTC_CheckEsp
$L194990:
  00406	8b f4		 mov	 esi, esp
  00408	8d 8d a8 fd ff
	ff		 lea	 ecx, DWORD PTR _name$[ebp]
  0040e	ff 15 00 00 00
	00		 call	 DWORD PTR __imp_??1?$CStringT@DV?$StrTraitMFC_DLL@DV?$ChTraitsCRT@D@ATL@@@@@ATL@@QAE@XZ
  00414	3b f4		 cmp	 esi, esp
  00416	e9 00 00 00 00	 jmp	 __RTC_CheckEsp
$L194991:
  0041b	8b f4		 mov	 esi, esp
  0041d	8d 8d 5c fd ff
	ff		 lea	 ecx, DWORD PTR $T194980[ebp]
  00423	ff 15 00 00 00
	00		 call	 DWORD PTR __imp_??1?$CStringT@DV?$StrTraitMFC_DLL@DV?$ChTraitsCRT@D@ATL@@@@@ATL@@QAE@XZ
  00429	3b f4		 cmp	 esi, esp
  0042b	e9 00 00 00 00	 jmp	 __RTC_CheckEsp
$L194992:
  00430	8b f4		 mov	 esi, esp
  00432	8d 8d 58 fd ff
	ff		 lea	 ecx, DWORD PTR $T194981[ebp]
  00438	ff 15 00 00 00
	00		 call	 DWORD PTR __imp_??1?$CStringT@DV?$StrTraitMFC_DLL@DV?$ChTraitsCRT@D@ATL@@@@@ATL@@QAE@XZ
  0043e	3b f4		 cmp	 esi, esp
  00440	e9 00 00 00 00	 jmp	 __RTC_CheckEsp
$L194993:
  00445	8b f4		 mov	 esi, esp
  00447	8b 8d 54 fd ff
	ff		 mov	 ecx, DWORD PTR $T194982[ebp]
  0044d	ff 15 00 00 00
	00		 call	 DWORD PTR __imp_??1?$CStringT@DV?$StrTraitMFC_DLL@DV?$ChTraitsCRT@D@ATL@@@@@ATL@@QAE@XZ
  00453	3b f4		 cmp	 esi, esp
  00455	e9 00 00 00 00	 jmp	 __RTC_CheckEsp
$L194994:
  0045a	8b f4		 mov	 esi, esp
  0045c	8b 8d 50 fd ff
	ff		 mov	 ecx, DWORD PTR $T194983[ebp]
  00462	ff 15 00 00 00
	00		 call	 DWORD PTR __imp_??1?$CStringT@DV?$StrTraitMFC_DLL@DV?$ChTraitsCRT@D@ATL@@@@@ATL@@QAE@XZ
  00468	3b f4		 cmp	 esi, esp
  0046a	e9 00 00 00 00	 jmp	 __RTC_CheckEsp
__ehhandler$?OnSendChangeSkin@CSkinMgrV1@@UAEXV?$CStringT@DV?$StrTraitMFC_DLL@DV?$ChTraitsCRT@D@ATL@@@@@ATL@@@Z:
  0046f	b8 00 00 00 00	 mov	 eax, OFFSET FLAT:$T194997
  00474	e9 00 00 00 00	 jmp	 ___CxxFrameHandler
text$x	ENDS
?OnSendChangeSkin@CSkinMgrV1@@UAEXV?$CStringT@DV?$StrTraitMFC_DLL@DV?$ChTraitsCRT@D@ATL@@@@@ATL@@@Z ENDP ; CSkinMgrV1::OnSendChangeSkin
xdata$x	SEGMENT
$T195036 DD	0ffffffffH
	DD	FLAT:$L195017
	DD	00H
	DD	FLAT:$L195018
	DD	01H
	DD	FLAT:$L195019
	DD	00H
	DD	FLAT:$L195020
	DD	0ffffffffH
	DD	FLAT:$L195021
	DD	04H
	DD	FLAT:$L195022
	DD	05H
	DD	FLAT:$L195023
	DD	04H
	DD	FLAT:$L195024
	DD	07H
	DD	FLAT:$L195025
$T195027 DD	019930520H
	DD	09H
	DD	FLAT:$T195036
	DD	2 DUP(00H)
	DD	2 DUP(00H)
; Function compile flags: /Odt /RTCsu
xdata$x	ENDS
_TEXT	SEGMENT
tv203 = -732						; size = 4
tv249 = -728						; size = 4
tv266 = -724						; size = 4
tv246 = -720						; size = 4
tv263 = -716						; size = 4
tv244 = -712						; size = 4
tv260 = -708						; size = 4
tv242 = -704						; size = 4
tv257 = -700						; size = 4
tv239 = -696						; size = 4
tv253 = -692						; size = 4
$T195016 = -688						; size = 4
$T195015 = -684						; size = 4
$T195014 = -680						; size = 4
$T195013 = -676						; size = 4
$T195012 = -669						; size = 1
$T195011 = -668						; size = 4
$T195010 = -664						; size = 28
$T195009 = -636						; size = 28
_idx$192357 = -608					; size = 4
_name$ = -600						; size = 4
_nPos$ = -588						; size = 4
_szbuffer$192342 = -576					; size = 512
_path$192339 = -56					; size = 28
_pUserConfig$192338 = -24				; size = 4
_this$ = -20						; size = 4
__$ArrayPad$ = -16					; size = 4
__$EHRec$ = -12						; size = 12
__$ReturnAddr$ = 4					; size = 4
_strPath$ = 8						; size = 4
_strSub$ = 12						; size = 4
?OnChangeSkinAndSub@CSkinMgrV1@@UAEXABV?$CStringT@DV?$StrTraitMFC_DLL@DV?$ChTraitsCRT@D@ATL@@@@@ATL@@0@Z PROC NEAR ; CSkinMgrV1::OnChangeSkinAndSub
; _this$ = ecx

; 536  : {

  025f0	55		 push	 ebp
  025f1	8b ec		 mov	 ebp, esp
  025f3	6a ff		 push	 -1
  025f5	68 00 00 00 00	 push	 __ehhandler$?OnChangeSkinAndSub@CSkinMgrV1@@UAEXABV?$CStringT@DV?$StrTraitMFC_DLL@DV?$ChTraitsCRT@D@ATL@@@@@ATL@@0@Z
  025fa	64 a1 00 00 00
	00		 mov	 eax, DWORD PTR fs:__except_list
  02600	50		 push	 eax
  02601	64 89 25 00 00
	00 00		 mov	 DWORD PTR fs:__except_list, esp
  02608	81 ec d0 02 00
	00		 sub	 esp, 720		; 000002d0H
  0260e	56		 push	 esi
  0260f	57		 push	 edi
  02610	51		 push	 ecx
  02611	8d bd 24 fd ff
	ff		 lea	 edi, DWORD PTR [ebp-732]
  02617	b9 b4 00 00 00	 mov	 ecx, 180		; 000000b4H
  0261c	b8 cc cc cc cc	 mov	 eax, -858993460		; ccccccccH
  02621	f3 ab		 rep stosd
  02623	59		 pop	 ecx
  02624	a1 00 00 00 00	 mov	 eax, DWORD PTR ___security_cookie
  02629	89 45 f0	 mov	 DWORD PTR __$ArrayPad$[ebp], eax
  0262c	89 4d ec	 mov	 DWORD PTR _this$[ebp], ecx

; 537  : 	if(strPath != "")

  0262f	68 00 00 00 00	 push	 OFFSET FLAT:$SG192336
  02634	8b 45 08	 mov	 eax, DWORD PTR _strPath$[ebp]
  02637	50		 push	 eax
  02638	e8 00 00 00 00	 call	 ??9ATL@@YA_NABV?$CStringT@DV?$StrTraitMFC_DLL@DV?$ChTraitsCRT@D@ATL@@@@@0@PBD@Z ; ATL::operator!=
  0263d	83 c4 08	 add	 esp, 8
  02640	0f b6 c8	 movzx	 ecx, al
  02643	85 c9		 test	 ecx, ecx
  02645	74 1e		 je	 SHORT $L192335

; 538  : 		m_strSkinPath = strPath;

  02647	8b f4		 mov	 esi, esp
  02649	8b 55 08	 mov	 edx, DWORD PTR _strPath$[ebp]
  0264c	52		 push	 edx
  0264d	8b 4d ec	 mov	 ecx, DWORD PTR _this$[ebp]
  02650	83 c1 30	 add	 ecx, 48			; 00000030H
  02653	ff 15 00 00 00
	00		 call	 DWORD PTR __imp_??4?$CStringT@DV?$StrTraitMFC_DLL@DV?$ChTraitsCRT@D@ATL@@@@@ATL@@QAEAAV01@ABV01@@Z
  02659	3b f4		 cmp	 esi, esp
  0265b	e8 00 00 00 00	 call	 __RTC_CheckEsp

; 539  : 	else

  02660	e9 7d 01 00 00	 jmp	 $L192337
$L192335:

; 540  : 	{
; 541  : 		AfxUserConfig* pUserConfig = AfxGetUserConfig();

  02665	e8 00 00 00 00	 call	 ?AfxGetUserConfig@@YAPAVAfxUserConfig@@XZ ; AfxGetUserConfig
  0266a	89 45 e8	 mov	 DWORD PTR _pUserConfig$192338[ebp], eax

; 542  : 		string path;

  0266d	8b f4		 mov	 esi, esp
  0266f	8d 4d c8	 lea	 ecx, DWORD PTR _path$192339[ebp]
  02672	ff 15 00 00 00
	00		 call	 DWORD PTR __imp_??0?$basic_string@DU?$char_traits@D@std@@V?$allocator@D@2@@std@@QAE@XZ
  02678	3b f4		 cmp	 esi, esp
  0267a	e8 00 00 00 00	 call	 __RTC_CheckEsp
  0267f	c7 45 fc 00 00
	00 00		 mov	 DWORD PTR __$EHRec$[ebp+8], 0

; 543  : 		pUserConfig->GetConfigStringValue(CONF_SETTING_MODULE_NAME, CONF_SETTING_SKIN_IDX, path);

  02686	8b f4		 mov	 esi, esp
  02688	a1 00 00 00 00	 mov	 eax, DWORD PTR _CONF_SETTING_SKIN_IDX
  0268d	50		 push	 eax
  0268e	8d 8d 84 fd ff
	ff		 lea	 ecx, DWORD PTR $T195009[ebp]
  02694	ff 15 00 00 00
	00		 call	 DWORD PTR __imp_??0?$basic_string@DU?$char_traits@D@std@@V?$allocator@D@2@@std@@QAE@PBD@Z
  0269a	3b f4		 cmp	 esi, esp
  0269c	e8 00 00 00 00	 call	 __RTC_CheckEsp
  026a1	c6 45 fc 01	 mov	 BYTE PTR __$EHRec$[ebp+8], 1
  026a5	8b f4		 mov	 esi, esp
  026a7	8b 0d 00 00 00
	00		 mov	 ecx, DWORD PTR _CONF_SETTING_MODULE_NAME
  026ad	51		 push	 ecx
  026ae	8d 8d 68 fd ff
	ff		 lea	 ecx, DWORD PTR $T195010[ebp]
  026b4	ff 15 00 00 00
	00		 call	 DWORD PTR __imp_??0?$basic_string@DU?$char_traits@D@std@@V?$allocator@D@2@@std@@QAE@PBD@Z
  026ba	3b f4		 cmp	 esi, esp
  026bc	e8 00 00 00 00	 call	 __RTC_CheckEsp
  026c1	c6 45 fc 02	 mov	 BYTE PTR __$EHRec$[ebp+8], 2
  026c5	8d 55 c8	 lea	 edx, DWORD PTR _path$192339[ebp]
  026c8	52		 push	 edx
  026c9	8d 85 84 fd ff
	ff		 lea	 eax, DWORD PTR $T195009[ebp]
  026cf	50		 push	 eax
  026d0	8d 8d 68 fd ff
	ff		 lea	 ecx, DWORD PTR $T195010[ebp]
  026d6	51		 push	 ecx
  026d7	8b 4d e8	 mov	 ecx, DWORD PTR _pUserConfig$192338[ebp]
  026da	e8 00 00 00 00	 call	 ?GetConfigStringValue@AfxUserConfig@@QAEXABV?$basic_string@DU?$char_traits@D@std@@V?$allocator@D@2@@std@@0AAV23@@Z ; AfxUserConfig::GetConfigStringValue
  026df	c6 45 fc 01	 mov	 BYTE PTR __$EHRec$[ebp+8], 1
  026e3	8b f4		 mov	 esi, esp
  026e5	8d 8d 68 fd ff
	ff		 lea	 ecx, DWORD PTR $T195010[ebp]
  026eb	ff 15 00 00 00
	00		 call	 DWORD PTR __imp_??1?$basic_string@DU?$char_traits@D@std@@V?$allocator@D@2@@std@@QAE@XZ
  026f1	3b f4		 cmp	 esi, esp
  026f3	e8 00 00 00 00	 call	 __RTC_CheckEsp
  026f8	c6 45 fc 00	 mov	 BYTE PTR __$EHRec$[ebp+8], 0
  026fc	8b f4		 mov	 esi, esp
  026fe	8d 8d 84 fd ff
	ff		 lea	 ecx, DWORD PTR $T195009[ebp]
  02704	ff 15 00 00 00
	00		 call	 DWORD PTR __imp_??1?$basic_string@DU?$char_traits@D@std@@V?$allocator@D@2@@std@@QAE@XZ
  0270a	3b f4		 cmp	 esi, esp
  0270c	e8 00 00 00 00	 call	 __RTC_CheckEsp

; 544  : 		m_strSkinPath = path.c_str();

  02711	8b f4		 mov	 esi, esp
  02713	8d 4d c8	 lea	 ecx, DWORD PTR _path$192339[ebp]
  02716	ff 15 00 00 00
	00		 call	 DWORD PTR __imp_?c_str@?$basic_string@DU?$char_traits@D@std@@V?$allocator@D@2@@std@@QBEPBDXZ
  0271c	3b f4		 cmp	 esi, esp
  0271e	e8 00 00 00 00	 call	 __RTC_CheckEsp
  02723	8b f4		 mov	 esi, esp
  02725	50		 push	 eax
  02726	8b 4d ec	 mov	 ecx, DWORD PTR _this$[ebp]
  02729	83 c1 30	 add	 ecx, 48			; 00000030H
  0272c	ff 15 00 00 00
	00		 call	 DWORD PTR __imp_??4?$CStringT@DV?$StrTraitMFC_DLL@DV?$ChTraitsCRT@D@ATL@@@@@ATL@@QAEAAV01@PBD@Z
  02732	3b f4		 cmp	 esi, esp
  02734	e8 00 00 00 00	 call	 __RTC_CheckEsp

; 545  : 		char szbuffer[512];
; 546  : 		CLhcImg::GetHomePath(szbuffer,512);

  02739	68 00 02 00 00	 push	 512			; 00000200H
  0273e	8d 95 c0 fd ff
	ff		 lea	 edx, DWORD PTR _szbuffer$192342[ebp]
  02744	52		 push	 edx
  02745	e8 00 00 00 00	 call	 ?GetHomePath@CLhcImg@@SA_NQADH@Z ; CLhcImg::GetHomePath
  0274a	83 c4 08	 add	 esp, 8

; 547  : 		strcat(szbuffer,"\\skin\\");

  0274d	68 00 00 00 00	 push	 OFFSET FLAT:$SG192343
  02752	8d 85 c0 fd ff
	ff		 lea	 eax, DWORD PTR _szbuffer$192342[ebp]
  02758	50		 push	 eax
  02759	e8 00 00 00 00	 call	 _strcat
  0275e	83 c4 08	 add	 esp, 8

; 548  : 		m_strSkinPath = szbuffer + m_strSkinPath;

  02761	8b 4d ec	 mov	 ecx, DWORD PTR _this$[ebp]
  02764	83 c1 30	 add	 ecx, 48			; 00000030H
  02767	51		 push	 ecx
  02768	8d 95 c0 fd ff
	ff		 lea	 edx, DWORD PTR _szbuffer$192342[ebp]
  0276e	52		 push	 edx
  0276f	8d 85 64 fd ff
	ff		 lea	 eax, DWORD PTR $T195011[ebp]
  02775	50		 push	 eax
  02776	e8 00 00 00 00	 call	 ??HATL@@YA?AV?$CStringT@DV?$StrTraitMFC_DLL@DV?$ChTraitsCRT@D@ATL@@@@@0@PBDABV10@@Z ; ATL::operator+
  0277b	83 c4 0c	 add	 esp, 12			; 0000000cH
  0277e	89 85 4c fd ff
	ff		 mov	 DWORD PTR tv253[ebp], eax
  02784	8b 8d 4c fd ff
	ff		 mov	 ecx, DWORD PTR tv253[ebp]
  0278a	89 8d 48 fd ff
	ff		 mov	 DWORD PTR tv239[ebp], ecx
  02790	c6 45 fc 03	 mov	 BYTE PTR __$EHRec$[ebp+8], 3
  02794	8b f4		 mov	 esi, esp
  02796	8b 95 48 fd ff
	ff		 mov	 edx, DWORD PTR tv239[ebp]
  0279c	52		 push	 edx
  0279d	8b 4d ec	 mov	 ecx, DWORD PTR _this$[ebp]
  027a0	83 c1 30	 add	 ecx, 48			; 00000030H
  027a3	ff 15 00 00 00
	00		 call	 DWORD PTR __imp_??4?$CStringT@DV?$StrTraitMFC_DLL@DV?$ChTraitsCRT@D@ATL@@@@@ATL@@QAEAAV01@ABV01@@Z
  027a9	3b f4		 cmp	 esi, esp
  027ab	e8 00 00 00 00	 call	 __RTC_CheckEsp
  027b0	c6 45 fc 00	 mov	 BYTE PTR __$EHRec$[ebp+8], 0
  027b4	8b f4		 mov	 esi, esp
  027b6	8d 8d 64 fd ff
	ff		 lea	 ecx, DWORD PTR $T195011[ebp]
  027bc	ff 15 00 00 00
	00		 call	 DWORD PTR __imp_??1?$CStringT@DV?$StrTraitMFC_DLL@DV?$ChTraitsCRT@D@ATL@@@@@ATL@@QAE@XZ
  027c2	3b f4		 cmp	 esi, esp
  027c4	e8 00 00 00 00	 call	 __RTC_CheckEsp

; 549  : 		//	pUserConfig->SetConfigStringValue( CONF_SETTING_MODULE_NAME, CONF_SETTING_SKIN_IDX, string(skinPath), true);
; 550  : 	}

  027c9	c7 45 fc ff ff
	ff ff		 mov	 DWORD PTR __$EHRec$[ebp+8], -1
  027d0	8b f4		 mov	 esi, esp
  027d2	8d 4d c8	 lea	 ecx, DWORD PTR _path$192339[ebp]
  027d5	ff 15 00 00 00
	00		 call	 DWORD PTR __imp_??1?$basic_string@DU?$char_traits@D@std@@V?$allocator@D@2@@std@@QAE@XZ
  027db	3b f4		 cmp	 esi, esp
  027dd	e8 00 00 00 00	 call	 __RTC_CheckEsp
$L192337:

; 551  : 
; 552  : 	int	nPos = m_strSkinPath.TrimRight("\\").ReverseFind('\\');

  027e2	8b f4		 mov	 esi, esp
  027e4	6a 5c		 push	 92			; 0000005cH
  027e6	8b fc		 mov	 edi, esp
  027e8	68 00 00 00 00	 push	 OFFSET FLAT:$SG192346
  027ed	8b 4d ec	 mov	 ecx, DWORD PTR _this$[ebp]
  027f0	83 c1 30	 add	 ecx, 48			; 00000030H
  027f3	ff 15 00 00 00
	00		 call	 DWORD PTR __imp_?TrimRight@?$CStringT@DV?$StrTraitMFC_DLL@DV?$ChTraitsCRT@D@ATL@@@@@ATL@@QAEAAV12@PBD@Z
  027f9	3b fc		 cmp	 edi, esp
  027fb	e8 00 00 00 00	 call	 __RTC_CheckEsp
  02800	8b c8		 mov	 ecx, eax
  02802	ff 15 00 00 00
	00		 call	 DWORD PTR __imp_?ReverseFind@?$CStringT@DV?$StrTraitMFC_DLL@DV?$ChTraitsCRT@D@ATL@@@@@ATL@@QBEHD@Z
  02808	3b f4		 cmp	 esi, esp
  0280a	e8 00 00 00 00	 call	 __RTC_CheckEsp
  0280f	89 85 b4 fd ff
	ff		 mov	 DWORD PTR _nPos$[ebp], eax

; 553  : 	CString name = m_strSkinPath.Tokenize("\\", nPos);

  02815	8b f4		 mov	 esi, esp
  02817	8d 85 b4 fd ff
	ff		 lea	 eax, DWORD PTR _nPos$[ebp]
  0281d	50		 push	 eax
  0281e	68 00 00 00 00	 push	 OFFSET FLAT:$SG192349
  02823	8d 8d a8 fd ff
	ff		 lea	 ecx, DWORD PTR _name$[ebp]
  02829	51		 push	 ecx
  0282a	8b 4d ec	 mov	 ecx, DWORD PTR _this$[ebp]
  0282d	83 c1 30	 add	 ecx, 48			; 00000030H
  02830	ff 15 00 00 00
	00		 call	 DWORD PTR __imp_?Tokenize@?$CStringT@DV?$StrTraitMFC_DLL@DV?$ChTraitsCRT@D@ATL@@@@@ATL@@QBE?AV12@PBDAAH@Z
  02836	3b f4		 cmp	 esi, esp
  02838	e8 00 00 00 00	 call	 __RTC_CheckEsp
  0283d	c7 45 fc 04 00
	00 00		 mov	 DWORD PTR __$EHRec$[ebp+8], 4

; 554  : 	if(!YL_FileInfo::IsValid(m_strSkinPath.Left(nPos) + "\\skin.dat"))

  02844	8b f4		 mov	 esi, esp
  02846	8b 95 b4 fd ff
	ff		 mov	 edx, DWORD PTR _nPos$[ebp]
  0284c	52		 push	 edx
  0284d	8d 85 5c fd ff
	ff		 lea	 eax, DWORD PTR $T195013[ebp]
  02853	50		 push	 eax
  02854	8b 4d ec	 mov	 ecx, DWORD PTR _this$[ebp]
  02857	83 c1 30	 add	 ecx, 48			; 00000030H
  0285a	ff 15 00 00 00
	00		 call	 DWORD PTR __imp_?Left@?$CStringT@DV?$StrTraitMFC_DLL@DV?$ChTraitsCRT@D@ATL@@@@@ATL@@QBE?AV12@H@Z
  02860	3b f4		 cmp	 esi, esp
  02862	e8 00 00 00 00	 call	 __RTC_CheckEsp
  02867	89 85 44 fd ff
	ff		 mov	 DWORD PTR tv257[ebp], eax
  0286d	8b 8d 44 fd ff
	ff		 mov	 ecx, DWORD PTR tv257[ebp]
  02873	89 8d 40 fd ff
	ff		 mov	 DWORD PTR tv242[ebp], ecx
  02879	c6 45 fc 05	 mov	 BYTE PTR __$EHRec$[ebp+8], 5
  0287d	68 00 00 00 00	 push	 OFFSET FLAT:$SG192354
  02882	8b 95 40 fd ff
	ff		 mov	 edx, DWORD PTR tv242[ebp]
  02888	52		 push	 edx
  02889	8d 85 58 fd ff
	ff		 lea	 eax, DWORD PTR $T195014[ebp]
  0288f	50		 push	 eax
  02890	e8 00 00 00 00	 call	 ??HATL@@YA?AV?$CStringT@DV?$StrTraitMFC_DLL@DV?$ChTraitsCRT@D@ATL@@@@@0@ABV10@PBD@Z ; ATL::operator+
  02895	83 c4 0c	 add	 esp, 12			; 0000000cH
  02898	89 85 3c fd ff
	ff		 mov	 DWORD PTR tv260[ebp], eax
  0289e	8b 8d 3c fd ff
	ff		 mov	 ecx, DWORD PTR tv260[ebp]
  028a4	89 8d 38 fd ff
	ff		 mov	 DWORD PTR tv244[ebp], ecx
  028aa	c6 45 fc 06	 mov	 BYTE PTR __$EHRec$[ebp+8], 6
  028ae	8b f4		 mov	 esi, esp
  028b0	8b 8d 38 fd ff
	ff		 mov	 ecx, DWORD PTR tv244[ebp]
  028b6	ff 15 00 00 00
	00		 call	 DWORD PTR __imp_??B?$CSimpleStringT@D$00@ATL@@QBEPBDXZ
  028bc	3b f4		 cmp	 esi, esp
  028be	e8 00 00 00 00	 call	 __RTC_CheckEsp
  028c3	50		 push	 eax
  028c4	e8 00 00 00 00	 call	 ?IsValid@YL_FileInfo@@SA_NPBD@Z ; YL_FileInfo::IsValid
  028c9	83 c4 04	 add	 esp, 4
  028cc	0f b6 d0	 movzx	 edx, al
  028cf	f7 da		 neg	 edx
  028d1	1b d2		 sbb	 edx, edx
  028d3	42		 inc	 edx
  028d4	88 95 63 fd ff
	ff		 mov	 BYTE PTR $T195012[ebp], dl
  028da	c6 45 fc 05	 mov	 BYTE PTR __$EHRec$[ebp+8], 5
  028de	8b f4		 mov	 esi, esp
  028e0	8d 8d 58 fd ff
	ff		 lea	 ecx, DWORD PTR $T195014[ebp]
  028e6	ff 15 00 00 00
	00		 call	 DWORD PTR __imp_??1?$CStringT@DV?$StrTraitMFC_DLL@DV?$ChTraitsCRT@D@ATL@@@@@ATL@@QAE@XZ
  028ec	3b f4		 cmp	 esi, esp
  028ee	e8 00 00 00 00	 call	 __RTC_CheckEsp
  028f3	c6 45 fc 04	 mov	 BYTE PTR __$EHRec$[ebp+8], 4
  028f7	8b f4		 mov	 esi, esp
  028f9	8d 8d 5c fd ff
	ff		 lea	 ecx, DWORD PTR $T195013[ebp]
  028ff	ff 15 00 00 00
	00		 call	 DWORD PTR __imp_??1?$CStringT@DV?$StrTraitMFC_DLL@DV?$ChTraitsCRT@D@ATL@@@@@ATL@@QAE@XZ
  02905	3b f4		 cmp	 esi, esp
  02907	e8 00 00 00 00	 call	 __RTC_CheckEsp
  0290c	0f b6 85 63 fd
	ff ff		 movzx	 eax, BYTE PTR $T195012[ebp]
  02913	85 c0		 test	 eax, eax
  02915	74 05		 je	 SHORT $L192352

; 555  : 	{
; 556  : 
; 557  : 	}
; 558  : 	else

  02917	e9 e9 00 00 00	 jmp	 $L192355
$L192352:

; 559  : 	{
; 560  : 		m_BaseColor = 0;

  0291c	8b 4d ec	 mov	 ecx, DWORD PTR _this$[ebp]
  0291f	c7 41 24 00 00
	00 00		 mov	 DWORD PTR [ecx+36], 0

; 561  : 		if( mp_changeSkinEven.size() > 0 )

  02926	8b 4d ec	 mov	 ecx, DWORD PTR _this$[ebp]
  02929	83 c1 34	 add	 ecx, 52			; 00000034H
  0292c	e8 00 00 00 00	 call	 ?size@?$vector@PAVIChangeSkinEventListener@@V?$allocator@PAVIChangeSkinEventListener@@@std@@@std@@QBEIXZ ; std::vector<IChangeSkinEventListener *,std::allocator<IChangeSkinEventListener *> >::size
  02931	85 c0		 test	 eax, eax
  02933	0f 86 cc 00 00
	00		 jbe	 $L192355

; 562  : 		{
; 563  : 			for(size_t idx = 0;idx < mp_changeSkinEven.size();idx++ )

  02939	c7 85 a0 fd ff
	ff 00 00 00 00	 mov	 DWORD PTR _idx$192357[ebp], 0
  02943	eb 0f		 jmp	 SHORT $L192358
$L192359:
  02945	8b 95 a0 fd ff
	ff		 mov	 edx, DWORD PTR _idx$192357[ebp]
  0294b	83 c2 01	 add	 edx, 1
  0294e	89 95 a0 fd ff
	ff		 mov	 DWORD PTR _idx$192357[ebp], edx
$L192358:
  02954	8b 4d ec	 mov	 ecx, DWORD PTR _this$[ebp]
  02957	83 c1 34	 add	 ecx, 52			; 00000034H
  0295a	e8 00 00 00 00	 call	 ?size@?$vector@PAVIChangeSkinEventListener@@V?$allocator@PAVIChangeSkinEventListener@@@std@@@std@@QBEIXZ ; std::vector<IChangeSkinEventListener *,std::allocator<IChangeSkinEventListener *> >::size
  0295f	39 85 a0 fd ff
	ff		 cmp	 DWORD PTR _idx$192357[ebp], eax
  02965	0f 83 9a 00 00
	00		 jae	 $L192355

; 564  : 			{
; 565  : 				mp_changeSkinEven[idx]->OnChangeSkinTemplate( m_strSkinPath,strSub);

  0296b	51		 push	 ecx
  0296c	8b cc		 mov	 ecx, esp
  0296e	89 a5 54 fd ff
	ff		 mov	 DWORD PTR $T195015[ebp], esp
  02974	8b f4		 mov	 esi, esp
  02976	8b 45 0c	 mov	 eax, DWORD PTR _strSub$[ebp]
  02979	50		 push	 eax
  0297a	ff 15 00 00 00
	00		 call	 DWORD PTR __imp_??0?$CStringT@DV?$StrTraitMFC_DLL@DV?$ChTraitsCRT@D@ATL@@@@@ATL@@QAE@ABV01@@Z
  02980	3b f4		 cmp	 esi, esp
  02982	e8 00 00 00 00	 call	 __RTC_CheckEsp
  02987	89 85 34 fd ff
	ff		 mov	 DWORD PTR tv263[ebp], eax
  0298d	8b 8d 34 fd ff
	ff		 mov	 ecx, DWORD PTR tv263[ebp]
  02993	89 8d 30 fd ff
	ff		 mov	 DWORD PTR tv246[ebp], ecx
  02999	c6 45 fc 07	 mov	 BYTE PTR __$EHRec$[ebp+8], 7
  0299d	8b 55 ec	 mov	 edx, DWORD PTR _this$[ebp]
  029a0	83 c2 30	 add	 edx, 48			; 00000030H
  029a3	51		 push	 ecx
  029a4	8b cc		 mov	 ecx, esp
  029a6	89 a5 50 fd ff
	ff		 mov	 DWORD PTR $T195016[ebp], esp
  029ac	8b f4		 mov	 esi, esp
  029ae	52		 push	 edx
  029af	ff 15 00 00 00
	00		 call	 DWORD PTR __imp_??0?$CStringT@DV?$StrTraitMFC_DLL@DV?$ChTraitsCRT@D@ATL@@@@@ATL@@QAE@ABV01@@Z
  029b5	3b f4		 cmp	 esi, esp
  029b7	e8 00 00 00 00	 call	 __RTC_CheckEsp
  029bc	89 85 2c fd ff
	ff		 mov	 DWORD PTR tv266[ebp], eax
  029c2	8b 85 2c fd ff
	ff		 mov	 eax, DWORD PTR tv266[ebp]
  029c8	89 85 28 fd ff
	ff		 mov	 DWORD PTR tv249[ebp], eax
  029ce	c6 45 fc 08	 mov	 BYTE PTR __$EHRec$[ebp+8], 8
  029d2	8b 8d a0 fd ff
	ff		 mov	 ecx, DWORD PTR _idx$192357[ebp]
  029d8	51		 push	 ecx
  029d9	8b 4d ec	 mov	 ecx, DWORD PTR _this$[ebp]
  029dc	83 c1 34	 add	 ecx, 52			; 00000034H
  029df	e8 00 00 00 00	 call	 ??A?$vector@PAVIChangeSkinEventListener@@V?$allocator@PAVIChangeSkinEventListener@@@std@@@std@@QAEAAPAVIChangeSkinEventListener@@I@Z ; std::vector<IChangeSkinEventListener *,std::allocator<IChangeSkinEventListener *> >::operator[]
  029e4	8b 10		 mov	 edx, DWORD PTR [eax]
  029e6	89 95 24 fd ff
	ff		 mov	 DWORD PTR tv203[ebp], edx
  029ec	8b 85 24 fd ff
	ff		 mov	 eax, DWORD PTR tv203[ebp]
  029f2	8b 10		 mov	 edx, DWORD PTR [eax]
  029f4	c6 45 fc 04	 mov	 BYTE PTR __$EHRec$[ebp+8], 4
  029f8	8b 8d 24 fd ff
	ff		 mov	 ecx, DWORD PTR tv203[ebp]
  029fe	ff 12		 call	 DWORD PTR [edx]

; 566  : 			}

  02a00	e9 40 ff ff ff	 jmp	 $L192359
$L192355:

; 567  : 		}
; 568  : 	}
; 569  : }

  02a05	c7 45 fc ff ff
	ff ff		 mov	 DWORD PTR __$EHRec$[ebp+8], -1
  02a0c	8b f4		 mov	 esi, esp
  02a0e	8d 8d a8 fd ff
	ff		 lea	 ecx, DWORD PTR _name$[ebp]
  02a14	ff 15 00 00 00
	00		 call	 DWORD PTR __imp_??1?$CStringT@DV?$StrTraitMFC_DLL@DV?$ChTraitsCRT@D@ATL@@@@@ATL@@QAE@XZ
  02a1a	3b f4		 cmp	 esi, esp
  02a1c	e8 00 00 00 00	 call	 __RTC_CheckEsp
  02a21	52		 push	 edx
  02a22	8b cd		 mov	 ecx, ebp
  02a24	50		 push	 eax
  02a25	8d 15 00 00 00
	00		 lea	 edx, DWORD PTR $L195035
  02a2b	e8 00 00 00 00	 call	 @_RTC_CheckStackVars@8
  02a30	58		 pop	 eax
  02a31	5a		 pop	 edx
  02a32	8b 4d f4	 mov	 ecx, DWORD PTR __$EHRec$[ebp]
  02a35	64 89 0d 00 00
	00 00		 mov	 DWORD PTR fs:__except_list, ecx
  02a3c	8b 4d f0	 mov	 ecx, DWORD PTR __$ArrayPad$[ebp]
  02a3f	e8 00 00 00 00	 call	 @__security_check_cookie@4
  02a44	5f		 pop	 edi
  02a45	5e		 pop	 esi
  02a46	81 c4 dc 02 00
	00		 add	 esp, 732		; 000002dcH
  02a4c	3b ec		 cmp	 ebp, esp
  02a4e	e8 00 00 00 00	 call	 __RTC_CheckEsp
  02a53	8b e5		 mov	 esp, ebp
  02a55	5d		 pop	 ebp
  02a56	c2 08 00	 ret	 8
$L195035:
  02a59	04 00 00 00	 DD	 4
  02a5d	00 00 00 00	 DD	 $L195034
$L195034:
  02a61	c8 ff ff ff	 DD	 -56			; ffffffc8H
  02a65	1c 00 00 00	 DD	 28			; 0000001cH
  02a69	00 00 00 00	 DD	 $L195028
  02a6d	c0 fd ff ff	 DD	 -576			; fffffdc0H
  02a71	00 02 00 00	 DD	 512			; 00000200H
  02a75	00 00 00 00	 DD	 $L195029
  02a79	b4 fd ff ff	 DD	 -588			; fffffdb4H
  02a7d	04 00 00 00	 DD	 4
  02a81	00 00 00 00	 DD	 $L195030
  02a85	a8 fd ff ff	 DD	 -600			; fffffda8H
  02a89	04 00 00 00	 DD	 4
  02a8d	00 00 00 00	 DD	 $L195031
$L195031:
  02a91	6e		 DB	 110			; 0000006eH
  02a92	61		 DB	 97			; 00000061H
  02a93	6d		 DB	 109			; 0000006dH
  02a94	65		 DB	 101			; 00000065H
  02a95	00		 DB	 0
$L195030:
  02a96	6e		 DB	 110			; 0000006eH
  02a97	50		 DB	 80			; 00000050H
  02a98	6f		 DB	 111			; 0000006fH
  02a99	73		 DB	 115			; 00000073H
  02a9a	00		 DB	 0
$L195029:
  02a9b	73		 DB	 115			; 00000073H
  02a9c	7a		 DB	 122			; 0000007aH
  02a9d	62		 DB	 98			; 00000062H
  02a9e	75		 DB	 117			; 00000075H
  02a9f	66		 DB	 102			; 00000066H
  02aa0	66		 DB	 102			; 00000066H
  02aa1	65		 DB	 101			; 00000065H
  02aa2	72		 DB	 114			; 00000072H
  02aa3	00		 DB	 0
$L195028:
  02aa4	70		 DB	 112			; 00000070H
  02aa5	61		 DB	 97			; 00000061H
  02aa6	74		 DB	 116			; 00000074H
  02aa7	68		 DB	 104			; 00000068H
  02aa8	00		 DB	 0
_TEXT	ENDS
text$x	SEGMENT
$L195017:
  00479	8b f4		 mov	 esi, esp
  0047b	8d 4d c8	 lea	 ecx, DWORD PTR _path$192339[ebp]
  0047e	ff 15 00 00 00
	00		 call	 DWORD PTR __imp_??1?$basic_string@DU?$char_traits@D@std@@V?$allocator@D@2@@std@@QAE@XZ
  00484	3b f4		 cmp	 esi, esp
  00486	e9 00 00 00 00	 jmp	 __RTC_CheckEsp
$L195018:
  0048b	8b f4		 mov	 esi, esp
  0048d	8d 8d 84 fd ff
	ff		 lea	 ecx, DWORD PTR $T195009[ebp]
  00493	ff 15 00 00 00
	00		 call	 DWORD PTR __imp_??1?$basic_string@DU?$char_traits@D@std@@V?$allocator@D@2@@std@@QAE@XZ
  00499	3b f4		 cmp	 esi, esp
  0049b	e9 00 00 00 00	 jmp	 __RTC_CheckEsp
$L195019:
  004a0	8b f4		 mov	 esi, esp
  004a2	8d 8d 68 fd ff
	ff		 lea	 ecx, DWORD PTR $T195010[ebp]
  004a8	ff 15 00 00 00
	00		 call	 DWORD PTR __imp_??1?$basic_string@DU?$char_traits@D@std@@V?$allocator@D@2@@std@@QAE@XZ
  004ae	3b f4		 cmp	 esi, esp
  004b0	e9 00 00 00 00	 jmp	 __RTC_CheckEsp
$L195020:
  004b5	8b f4		 mov	 esi, esp
  004b7	8d 8d 64 fd ff
	ff		 lea	 ecx, DWORD PTR $T195011[ebp]
  004bd	ff 15 00 00 00
	00		 call	 DWORD PTR __imp_??1?$CStringT@DV?$StrTraitMFC_DLL@DV?$ChTraitsCRT@D@ATL@@@@@ATL@@QAE@XZ
  004c3	3b f4		 cmp	 esi, esp
  004c5	e9 00 00 00 00	 jmp	 __RTC_CheckEsp
$L195021:
  004ca	8b f4		 mov	 esi, esp
  004cc	8d 8d a8 fd ff
	ff		 lea	 ecx, DWORD PTR _name$[ebp]
  004d2	ff 15 00 00 00
	00		 call	 DWORD PTR __imp_??1?$CStringT@DV?$StrTraitMFC_DLL@DV?$ChTraitsCRT@D@ATL@@@@@ATL@@QAE@XZ
  004d8	3b f4		 cmp	 esi, esp
  004da	e9 00 00 00 00	 jmp	 __RTC_CheckEsp
$L195022:
  004df	8b f4		 mov	 esi, esp
  004e1	8d 8d 5c fd ff
	ff		 lea	 ecx, DWORD PTR $T195013[ebp]
  004e7	ff 15 00 00 00
	00		 call	 DWORD PTR __imp_??1?$CStringT@DV?$StrTraitMFC_DLL@DV?$ChTraitsCRT@D@ATL@@@@@ATL@@QAE@XZ
  004ed	3b f4		 cmp	 esi, esp
  004ef	e9 00 00 00 00	 jmp	 __RTC_CheckEsp
$L195023:
  004f4	8b f4		 mov	 esi, esp
  004f6	8d 8d 58 fd ff
	ff		 lea	 ecx, DWORD PTR $T195014[ebp]
  004fc	ff 15 00 00 00
	00		 call	 DWORD PTR __imp_??1?$CStringT@DV?$StrTraitMFC_DLL@DV?$ChTraitsCRT@D@ATL@@@@@ATL@@QAE@XZ
  00502	3b f4		 cmp	 esi, esp
  00504	e9 00 00 00 00	 jmp	 __RTC_CheckEsp
$L195024:
  00509	8b f4		 mov	 esi, esp
  0050b	8b 8d 54 fd ff
	ff		 mov	 ecx, DWORD PTR $T195015[ebp]
  00511	ff 15 00 00 00
	00		 call	 DWORD PTR __imp_??1?$CStringT@DV?$StrTraitMFC_DLL@DV?$ChTraitsCRT@D@ATL@@@@@ATL@@QAE@XZ
  00517	3b f4		 cmp	 esi, esp
  00519	e9 00 00 00 00	 jmp	 __RTC_CheckEsp
$L195025:
  0051e	8b f4		 mov	 esi, esp
  00520	8b 8d 50 fd ff
	ff		 mov	 ecx, DWORD PTR $T195016[ebp]
  00526	ff 15 00 00 00
	00		 call	 DWORD PTR __imp_??1?$CStringT@DV?$StrTraitMFC_DLL@DV?$ChTraitsCRT@D@ATL@@@@@ATL@@QAE@XZ
  0052c	3b f4		 cmp	 esi, esp
  0052e	e9 00 00 00 00	 jmp	 __RTC_CheckEsp
__ehhandler$?OnChangeSkinAndSub@CSkinMgrV1@@UAEXABV?$CStringT@DV?$StrTraitMFC_DLL@DV?$ChTraitsCRT@D@ATL@@@@@ATL@@0@Z:
  00533	b8 00 00 00 00	 mov	 eax, OFFSET FLAT:$T195027
  00538	e9 00 00 00 00	 jmp	 ___CxxFrameHandler
text$x	ENDS
?OnChangeSkinAndSub@CSkinMgrV1@@UAEXABV?$CStringT@DV?$StrTraitMFC_DLL@DV?$ChTraitsCRT@D@ATL@@@@@ATL@@0@Z ENDP ; CSkinMgrV1::OnChangeSkinAndSub
EXTRN	?BeforeChangeColor@CBitMapOperate@@QAEXXZ:NEAR	; CBitMapOperate::BeforeChangeColor
; Function compile flags: /Odt /RTCsu
_TEXT	SEGMENT
_this$ = -4						; size = 4
?BeforeChangeColor@CSkinMgrV1@@UAEXXZ PROC NEAR		; CSkinMgrV1::BeforeChangeColor
; _this$ = ecx

; 572  : {

  02ab0	55		 push	 ebp
  02ab1	8b ec		 mov	 ebp, esp
  02ab3	51		 push	 ecx
  02ab4	c7 45 fc cc cc
	cc cc		 mov	 DWORD PTR [ebp-4], -858993460 ; ccccccccH
  02abb	89 4d fc	 mov	 DWORD PTR _this$[ebp], ecx

; 573  : 	gBitMapOperate.BeforeChangeColor();

  02abe	b9 00 00 00 00	 mov	 ecx, OFFSET FLAT:?gBitMapOperate@@3VCBitMapOperate@@A
  02ac3	e8 00 00 00 00	 call	 ?BeforeChangeColor@CBitMapOperate@@QAEXXZ ; CBitMapOperate::BeforeChangeColor

; 574  : }

  02ac8	83 c4 04	 add	 esp, 4
  02acb	3b ec		 cmp	 ebp, esp
  02acd	e8 00 00 00 00	 call	 __RTC_CheckEsp
  02ad2	8b e5		 mov	 esp, ebp
  02ad4	5d		 pop	 ebp
  02ad5	c3		 ret	 0
?BeforeChangeColor@CSkinMgrV1@@UAEXXZ ENDP		; CSkinMgrV1::BeforeChangeColor
_TEXT	ENDS
PUBLIC	?SetAdjustValue@CBitMapOperate@@QAEXH@Z		; CBitMapOperate::SetAdjustValue
EXTRN	?AfterChangeColor@CBitMapOperate@@QAEXXZ:NEAR	; CBitMapOperate::AfterChangeColor
; Function compile flags: /Odt /RTCsu
_TEXT	SEGMENT
_this$ = -4						; size = 4
?AfterChangeColor@CSkinMgrV1@@UAEXXZ PROC NEAR		; CSkinMgrV1::AfterChangeColor
; _this$ = ecx

; 576  : {

  02ae0	55		 push	 ebp
  02ae1	8b ec		 mov	 ebp, esp
  02ae3	51		 push	 ecx
  02ae4	c7 45 fc cc cc
	cc cc		 mov	 DWORD PTR [ebp-4], -858993460 ; ccccccccH
  02aeb	89 4d fc	 mov	 DWORD PTR _this$[ebp], ecx

; 577  : 	gBitMapOperate.AfterChangeColor();

  02aee	b9 00 00 00 00	 mov	 ecx, OFFSET FLAT:?gBitMapOperate@@3VCBitMapOperate@@A
  02af3	e8 00 00 00 00	 call	 ?AfterChangeColor@CBitMapOperate@@QAEXXZ ; CBitMapOperate::AfterChangeColor

; 578  : 	gBitMapOperate.SetAdjustValue(m_nLightPos);

  02af8	8b 45 fc	 mov	 eax, DWORD PTR _this$[ebp]
  02afb	8b 48 30	 mov	 ecx, DWORD PTR [eax+48]
  02afe	51		 push	 ecx
  02aff	b9 00 00 00 00	 mov	 ecx, OFFSET FLAT:?gBitMapOperate@@3VCBitMapOperate@@A
  02b04	e8 00 00 00 00	 call	 ?SetAdjustValue@CBitMapOperate@@QAEXH@Z ; CBitMapOperate::SetAdjustValue

; 579  : }

  02b09	83 c4 04	 add	 esp, 4
  02b0c	3b ec		 cmp	 ebp, esp
  02b0e	e8 00 00 00 00	 call	 __RTC_CheckEsp
  02b13	8b e5		 mov	 esp, ebp
  02b15	5d		 pop	 ebp
  02b16	c3		 ret	 0
?AfterChangeColor@CSkinMgrV1@@UAEXXZ ENDP		; CSkinMgrV1::AfterChangeColor
; Function compile flags: /Odt /RTCsu
; File d:\boxgit\playbox\playbox\dev\prj\playbox\src\layoutmgr\changecolor\bitmapoperate.h
_TEXT	ENDS
;	COMDAT ?SetAdjustValue@CBitMapOperate@@QAEXH@Z
_TEXT	SEGMENT
_this$ = -4						; size = 4
_lastLightPos$ = 8					; size = 4
?SetAdjustValue@CBitMapOperate@@QAEXH@Z PROC NEAR	; CBitMapOperate::SetAdjustValue, COMDAT
; _this$ = ecx

; 35   : 	void SetAdjustValue(int lastLightPos){m_nLastLightPos = lastLightPos;};

  00000	55		 push	 ebp
  00001	8b ec		 mov	 ebp, esp
  00003	51		 push	 ecx
  00004	c7 45 fc cc cc
	cc cc		 mov	 DWORD PTR [ebp-4], -858993460 ; ccccccccH
  0000b	89 4d fc	 mov	 DWORD PTR _this$[ebp], ecx
  0000e	8b 45 fc	 mov	 eax, DWORD PTR _this$[ebp]
  00011	8b 4d 08	 mov	 ecx, DWORD PTR _lastLightPos$[ebp]
  00014	89 48 18	 mov	 DWORD PTR [eax+24], ecx
  00017	8b e5		 mov	 esp, ebp
  00019	5d		 pop	 ebp
  0001a	c2 04 00	 ret	 4
?SetAdjustValue@CBitMapOperate@@QAEXH@Z ENDP		; CBitMapOperate::SetAdjustValue
_TEXT	ENDS
EXTRN	??BCRect@@QAEPAUtagRECT@@XZ:NEAR		; CRect::operator tagRECT *
; Function compile flags: /Odt /RTCsu
; File d:\boxgit\playbox\playbox\dev\prj\playbox\src\layoutmgr\changecolor\ichangecolormgr.cpp
_TEXT	SEGMENT
tv143 = -60						; size = 4
tv138 = -56						; size = 4
tv180 = -52						; size = 4
$T195042 = -48						; size = 16
$T195041 = -32						; size = 4
_lClient$192376 = -24					; size = 16
_this$ = -4						; size = 4
?DownloadStart@CSkinMgrV1@@UAEXXZ PROC NEAR		; CSkinMgrV1::DownloadStart
; _this$ = ecx

; 581  : {	

  02b20	55		 push	 ebp
  02b21	8b ec		 mov	 ebp, esp
  02b23	83 ec 3c	 sub	 esp, 60			; 0000003cH
  02b26	56		 push	 esi
  02b27	57		 push	 edi
  02b28	51		 push	 ecx
  02b29	8d 7d c4	 lea	 edi, DWORD PTR [ebp-60]
  02b2c	b9 0f 00 00 00	 mov	 ecx, 15			; 0000000fH
  02b31	b8 cc cc cc cc	 mov	 eax, -858993460		; ccccccccH
  02b36	f3 ab		 rep stosd
  02b38	59		 pop	 ecx
  02b39	89 4d fc	 mov	 DWORD PTR _this$[ebp], ecx

; 582  : 	if( !mp_skinWnd ) return;

  02b3c	8b 45 fc	 mov	 eax, DWORD PTR _this$[ebp]
  02b3f	83 78 14 00	 cmp	 DWORD PTR [eax+20], 0
  02b43	75 05		 jne	 SHORT $L192372
  02b45	e9 27 01 00 00	 jmp	 $L192371
$L192372:

; 583  : 	
; 584  : 
; 585  : 	if(mp_skinWnd != NULL)

  02b4a	8b 4d fc	 mov	 ecx, DWORD PTR _this$[ebp]
  02b4d	83 79 14 00	 cmp	 DWORD PTR [ecx+20], 0
  02b51	74 1a		 je	 SHORT $L192373

; 586  : 	{
; 587  : 		mp_skinWnd->EnableSkinBtn( FALSE );

  02b53	6a 00		 push	 0
  02b55	8b 55 fc	 mov	 edx, DWORD PTR _this$[ebp]
  02b58	8b 4a 14	 mov	 ecx, DWORD PTR [edx+20]
  02b5b	e8 00 00 00 00	 call	 ?EnableSkinBtn@CSkinWnd@@QAEXH@Z ; CSkinWnd::EnableSkinBtn

; 588  : 		mp_skinWnd->SetUseTip(false);

  02b60	6a 00		 push	 0
  02b62	8b 45 fc	 mov	 eax, DWORD PTR _this$[ebp]
  02b65	8b 48 14	 mov	 ecx, DWORD PTR [eax+20]
  02b68	e8 00 00 00 00	 call	 ?SetUseTip@CSkinWnd@@QAEX_N@Z ; CSkinWnd::SetUseTip
$L192373:

; 589  : 	}
; 590  : 	SetDownloadPercentage(0, m_strDownSkin);

  02b6d	8b 4d fc	 mov	 ecx, DWORD PTR _this$[ebp]
  02b70	83 c1 58	 add	 ecx, 88			; 00000058H
  02b73	51		 push	 ecx
  02b74	8b d4		 mov	 edx, esp
  02b76	89 65 e0	 mov	 DWORD PTR $T195041[ebp], esp
  02b79	8b f4		 mov	 esi, esp
  02b7b	51		 push	 ecx
  02b7c	8b ca		 mov	 ecx, edx
  02b7e	ff 15 00 00 00
	00		 call	 DWORD PTR __imp_??0?$CStringT@DV?$StrTraitMFC_DLL@DV?$ChTraitsCRT@D@ATL@@@@@ATL@@QAE@ABV01@@Z
  02b84	3b f4		 cmp	 esi, esp
  02b86	e8 00 00 00 00	 call	 __RTC_CheckEsp
  02b8b	89 45 cc	 mov	 DWORD PTR tv180[ebp], eax
  02b8e	6a 00		 push	 0
  02b90	8b 45 fc	 mov	 eax, DWORD PTR _this$[ebp]
  02b93	8b 10		 mov	 edx, DWORD PTR [eax]
  02b95	8b 4d fc	 mov	 ecx, DWORD PTR _this$[ebp]
  02b98	ff 52 50	 call	 DWORD PTR [edx+80]

; 591  : 
; 592  : 	if( m_bShowSkinWnd )

  02b9b	8b 45 fc	 mov	 eax, DWORD PTR _this$[ebp]
  02b9e	0f b6 48 64	 movzx	 ecx, BYTE PTR [eax+100]
  02ba2	85 c9		 test	 ecx, ecx
  02ba4	0f 84 c7 00 00
	00		 je	 $L192371

; 593  : 	{
; 594  : 		CRect lClient;

  02baa	8d 4d e8	 lea	 ecx, DWORD PTR _lClient$192376[ebp]
  02bad	e8 00 00 00 00	 call	 ??0CRect@@QAE@XZ	; CRect::CRect

; 595  : 
; 596  : 		lClient.SetRect(3,235,297,285);

  02bb2	68 1d 01 00 00	 push	 285			; 0000011dH
  02bb7	68 29 01 00 00	 push	 297			; 00000129H
  02bbc	68 eb 00 00 00	 push	 235			; 000000ebH
  02bc1	6a 03		 push	 3
  02bc3	8d 4d e8	 lea	 ecx, DWORD PTR _lClient$192376[ebp]
  02bc6	e8 00 00 00 00	 call	 ?SetRect@CRect@@QAEXHHHH@Z ; CRect::SetRect

; 597  : 
; 598  : 		if( AfxGetUIManager()->UIGetLayoutMgr()->GetDisplayMode() == DISPLAY_SEPERATE_MODE )

  02bcb	e8 00 00 00 00	 call	 ?AfxGetUIManager@@YAPAVIUIManager@@XZ ; AfxGetUIManager
  02bd0	89 45 c8	 mov	 DWORD PTR tv138[ebp], eax
  02bd3	8b 55 c8	 mov	 edx, DWORD PTR tv138[ebp]
  02bd6	8b 02		 mov	 eax, DWORD PTR [edx]
  02bd8	8b f4		 mov	 esi, esp
  02bda	8b 4d c8	 mov	 ecx, DWORD PTR tv138[ebp]
  02bdd	ff 50 24	 call	 DWORD PTR [eax+36]
  02be0	3b f4		 cmp	 esi, esp
  02be2	e8 00 00 00 00	 call	 __RTC_CheckEsp
  02be7	89 45 c4	 mov	 DWORD PTR tv143[ebp], eax
  02bea	8b 4d c4	 mov	 ecx, DWORD PTR tv143[ebp]
  02bed	8b 11		 mov	 edx, DWORD PTR [ecx]
  02bef	8b f4		 mov	 esi, esp
  02bf1	8b 4d c4	 mov	 ecx, DWORD PTR tv143[ebp]
  02bf4	ff 52 7c	 call	 DWORD PTR [edx+124]
  02bf7	3b f4		 cmp	 esi, esp
  02bf9	e8 00 00 00 00	 call	 __RTC_CheckEsp
  02bfe	85 c0		 test	 eax, eax
  02c00	75 38		 jne	 SHORT $L192377

; 599  : 		{			
; 600  : 			mp_downloadSkin->MoveWindow( CRect( lClient.left,lClient.top,lClient.left+220,lClient.top+30) );

  02c02	6a 01		 push	 1
  02c04	8b 45 ec	 mov	 eax, DWORD PTR _lClient$192376[ebp+4]
  02c07	83 c0 1e	 add	 eax, 30			; 0000001eH
  02c0a	50		 push	 eax
  02c0b	8b 4d e8	 mov	 ecx, DWORD PTR _lClient$192376[ebp]
  02c0e	81 c1 dc 00 00
	00		 add	 ecx, 220		; 000000dcH
  02c14	51		 push	 ecx
  02c15	8b 55 ec	 mov	 edx, DWORD PTR _lClient$192376[ebp+4]
  02c18	52		 push	 edx
  02c19	8b 45 e8	 mov	 eax, DWORD PTR _lClient$192376[ebp]
  02c1c	50		 push	 eax
  02c1d	8d 4d d0	 lea	 ecx, DWORD PTR $T195042[ebp]
  02c20	e8 00 00 00 00	 call	 ??0CRect@@QAE@HHHH@Z	; CRect::CRect
  02c25	8b c8		 mov	 ecx, eax
  02c27	e8 00 00 00 00	 call	 ??BCRect@@QAEPAUtagRECT@@XZ ; CRect::operator tagRECT *
  02c2c	50		 push	 eax
  02c2d	8b 4d fc	 mov	 ecx, DWORD PTR _this$[ebp]
  02c30	8b 49 20	 mov	 ecx, DWORD PTR [ecx+32]
  02c33	e8 00 00 00 00	 call	 ?MoveWindow@CWnd@@QAEXPBUtagRECT@@H@Z ; CWnd::MoveWindow

; 601  : 		}
; 602  : 		else

  02c38	eb 16		 jmp	 SHORT $L192379
$L192377:

; 603  : 		{		
; 604  : 			mp_downloadSkin->MoveWindow( lClient );

  02c3a	6a 01		 push	 1
  02c3c	8d 4d e8	 lea	 ecx, DWORD PTR _lClient$192376[ebp]
  02c3f	e8 00 00 00 00	 call	 ??BCRect@@QAEPAUtagRECT@@XZ ; CRect::operator tagRECT *
  02c44	50		 push	 eax
  02c45	8b 55 fc	 mov	 edx, DWORD PTR _this$[ebp]
  02c48	8b 4a 20	 mov	 ecx, DWORD PTR [edx+32]
  02c4b	e8 00 00 00 00	 call	 ?MoveWindow@CWnd@@QAEXPBUtagRECT@@H@Z ; CWnd::MoveWindow
$L192379:

; 605  : 		}
; 606  : 		mp_downloadSkin->ShowWindow( SW_SHOW );

  02c50	6a 05		 push	 5
  02c52	8b 45 fc	 mov	 eax, DWORD PTR _this$[ebp]
  02c55	8b 48 20	 mov	 ecx, DWORD PTR [eax+32]
  02c58	e8 00 00 00 00	 call	 ?ShowWindow@CWnd@@QAEHH@Z ; CWnd::ShowWindow

; 607  : 		mb_isDownSkin = true;

  02c5d	8b 4d fc	 mov	 ecx, DWORD PTR _this$[ebp]
  02c60	c6 41 49 01	 mov	 BYTE PTR [ecx+73], 1

; 608  : 
; 609  : 		mp_mainSkinWnd->ShowColorBtn( FALSE );

  02c64	6a 00		 push	 0
  02c66	8b 55 fc	 mov	 edx, DWORD PTR _this$[ebp]
  02c69	8b 4a 10	 mov	 ecx, DWORD PTR [edx+16]
  02c6c	e8 00 00 00 00	 call	 ?ShowColorBtn@CMainSkinWnd@@QAEXH@Z ; CMainSkinWnd::ShowColorBtn
$L192371:

; 610  : 	}
; 611  : }

  02c71	52		 push	 edx
  02c72	8b cd		 mov	 ecx, ebp
  02c74	50		 push	 eax
  02c75	8d 15 00 00 00
	00		 lea	 edx, DWORD PTR $L195046
  02c7b	e8 00 00 00 00	 call	 @_RTC_CheckStackVars@8
  02c80	58		 pop	 eax
  02c81	5a		 pop	 edx
  02c82	5f		 pop	 edi
  02c83	5e		 pop	 esi
  02c84	83 c4 3c	 add	 esp, 60			; 0000003cH
  02c87	3b ec		 cmp	 ebp, esp
  02c89	e8 00 00 00 00	 call	 __RTC_CheckEsp
  02c8e	8b e5		 mov	 esp, ebp
  02c90	5d		 pop	 ebp
  02c91	c3		 ret	 0
$L195046:
  02c92	01 00 00 00	 DD	 1
  02c96	00 00 00 00	 DD	 $L195045
$L195045:
  02c9a	e8 ff ff ff	 DD	 -24			; ffffffe8H
  02c9e	10 00 00 00	 DD	 16			; 00000010H
  02ca2	00 00 00 00	 DD	 $L195044
$L195044:
  02ca6	6c		 DB	 108			; 0000006cH
  02ca7	43		 DB	 67			; 00000043H
  02ca8	6c		 DB	 108			; 0000006cH
  02ca9	69		 DB	 105			; 00000069H
  02caa	65		 DB	 101			; 00000065H
  02cab	6e		 DB	 110			; 0000006eH
  02cac	74		 DB	 116			; 00000074H
  02cad	00		 DB	 0
?DownloadStart@CSkinMgrV1@@UAEXXZ ENDP			; CSkinMgrV1::DownloadStart
_TEXT	ENDS
EXTRN	?SetDownloadHit@CDownloadPercentWnd@@QAEXV?$CStringT@DV?$StrTraitMFC_DLL@DV?$ChTraitsCRT@D@ATL@@@@@ATL@@@Z:NEAR ; CDownloadPercentWnd::SetDownloadHit
EXTRN	?SetDownloadPercent@CDownloadPercentWnd@@QAEXH@Z:NEAR ; CDownloadPercentWnd::SetDownloadPercent
EXTRN	__imp_?GetLength@?$CSimpleStringT@D$00@ATL@@QBEHXZ:NEAR
EXTRN	?IsWindowVisible@CWnd@@QBEHXZ:NEAR		; CWnd::IsWindowVisible
xdata$x	SEGMENT
$T195058 DD	0ffffffffH
	DD	FLAT:$L195049
	DD	00H
	DD	FLAT:$L195050
$T195053 DD	019930520H
	DD	02H
	DD	FLAT:$T195058
	DD	2 DUP(00H)
	DD	2 DUP(00H)
; Function compile flags: /Odt /RTCsu
xdata$x	ENDS
_TEXT	SEGMENT
tv156 = -36						; size = 4
$T195048 = -32						; size = 4
_strHit$192390 = -24					; size = 4
_this$ = -16						; size = 4
__$EHRec$ = -12						; size = 12
_percentage$ = 8					; size = 4
_strSkinName$ = 12					; size = 4
?SetDownloadPercentage@CSkinMgrV1@@UAEXHV?$CStringT@DV?$StrTraitMFC_DLL@DV?$ChTraitsCRT@D@ATL@@@@@ATL@@@Z PROC NEAR ; CSkinMgrV1::SetDownloadPercentage
; _this$ = ecx

; 613  : {

  02cb0	55		 push	 ebp
  02cb1	8b ec		 mov	 ebp, esp
  02cb3	6a ff		 push	 -1
  02cb5	68 00 00 00 00	 push	 __ehhandler$?SetDownloadPercentage@CSkinMgrV1@@UAEXHV?$CStringT@DV?$StrTraitMFC_DLL@DV?$ChTraitsCRT@D@ATL@@@@@ATL@@@Z
  02cba	64 a1 00 00 00
	00		 mov	 eax, DWORD PTR fs:__except_list
  02cc0	50		 push	 eax
  02cc1	64 89 25 00 00
	00 00		 mov	 DWORD PTR fs:__except_list, esp
  02cc8	83 ec 18	 sub	 esp, 24			; 00000018H
  02ccb	56		 push	 esi
  02ccc	b8 cc cc cc cc	 mov	 eax, -858993460		; ccccccccH
  02cd1	89 45 dc	 mov	 DWORD PTR [ebp-36], eax
  02cd4	89 45 e0	 mov	 DWORD PTR [ebp-32], eax
  02cd7	89 45 e4	 mov	 DWORD PTR [ebp-28], eax
  02cda	89 45 e8	 mov	 DWORD PTR [ebp-24], eax
  02cdd	89 45 ec	 mov	 DWORD PTR [ebp-20], eax
  02ce0	89 45 f0	 mov	 DWORD PTR [ebp-16], eax
  02ce3	89 4d f0	 mov	 DWORD PTR _this$[ebp], ecx
  02ce6	c7 45 fc 00 00
	00 00		 mov	 DWORD PTR __$EHRec$[ebp+8], 0

; 614  : 	if(mp_skinWnd == NULL || !::IsWindow(mp_skinWnd->m_hWnd))

  02ced	8b 45 f0	 mov	 eax, DWORD PTR _this$[ebp]
  02cf0	83 78 14 00	 cmp	 DWORD PTR [eax+20], 0
  02cf4	74 1d		 je	 SHORT $L192386
  02cf6	8b 4d f0	 mov	 ecx, DWORD PTR _this$[ebp]
  02cf9	8b 51 14	 mov	 edx, DWORD PTR [ecx+20]
  02cfc	8b f4		 mov	 esi, esp
  02cfe	8b 42 20	 mov	 eax, DWORD PTR [edx+32]
  02d01	50		 push	 eax
  02d02	ff 15 00 00 00
	00		 call	 DWORD PTR __imp__IsWindow@4
  02d08	3b f4		 cmp	 esi, esp
  02d0a	e8 00 00 00 00	 call	 __RTC_CheckEsp
  02d0f	85 c0		 test	 eax, eax
  02d11	75 1e		 jne	 SHORT $L192385
$L192386:

; 615  : 		return;

  02d13	c7 45 fc ff ff
	ff ff		 mov	 DWORD PTR __$EHRec$[ebp+8], -1
  02d1a	8b f4		 mov	 esi, esp
  02d1c	8d 4d 0c	 lea	 ecx, DWORD PTR _strSkinName$[ebp]
  02d1f	ff 15 00 00 00
	00		 call	 DWORD PTR __imp_??1?$CStringT@DV?$StrTraitMFC_DLL@DV?$ChTraitsCRT@D@ATL@@@@@ATL@@QAE@XZ
  02d25	3b f4		 cmp	 esi, esp
  02d27	e8 00 00 00 00	 call	 __RTC_CheckEsp
  02d2c	e9 ef 00 00 00	 jmp	 $L192384
$L192385:

; 616  : 
; 617  : 	if( m_bShowSkinWnd )

  02d31	8b 4d f0	 mov	 ecx, DWORD PTR _this$[ebp]
  02d34	0f b6 51 64	 movzx	 edx, BYTE PTR [ecx+100]
  02d38	85 d2		 test	 edx, edx
  02d3a	0f 84 c7 00 00
	00		 je	 $L192387

; 618  : 	{
; 619  : 		if( !mp_downloadSkin->IsWindowVisible() && mp_skinWnd->IsWindowVisible())

  02d40	8b 45 f0	 mov	 eax, DWORD PTR _this$[ebp]
  02d43	8b 48 20	 mov	 ecx, DWORD PTR [eax+32]
  02d46	e8 00 00 00 00	 call	 ?IsWindowVisible@CWnd@@QBEHXZ ; CWnd::IsWindowVisible
  02d4b	85 c0		 test	 eax, eax
  02d4d	75 1c		 jne	 SHORT $L192388
  02d4f	8b 4d f0	 mov	 ecx, DWORD PTR _this$[ebp]
  02d52	8b 49 14	 mov	 ecx, DWORD PTR [ecx+20]
  02d55	e8 00 00 00 00	 call	 ?IsWindowVisible@CWnd@@QBEHXZ ; CWnd::IsWindowVisible
  02d5a	85 c0		 test	 eax, eax
  02d5c	74 0d		 je	 SHORT $L192388

; 620  : 			mp_downloadSkin->ShowWindow( SW_SHOW );

  02d5e	6a 05		 push	 5
  02d60	8b 55 f0	 mov	 edx, DWORD PTR _this$[ebp]
  02d63	8b 4a 20	 mov	 ecx, DWORD PTR [edx+32]
  02d66	e8 00 00 00 00	 call	 ?ShowWindow@CWnd@@QAEHH@Z ; CWnd::ShowWindow
$L192388:

; 621  : 		if( strSkinName.GetLength() != 0 )

  02d6b	8b f4		 mov	 esi, esp
  02d6d	8d 4d 0c	 lea	 ecx, DWORD PTR _strSkinName$[ebp]
  02d70	ff 15 00 00 00
	00		 call	 DWORD PTR __imp_?GetLength@?$CSimpleStringT@D$00@ATL@@QBEHXZ
  02d76	3b f4		 cmp	 esi, esp
  02d78	e8 00 00 00 00	 call	 __RTC_CheckEsp
  02d7d	85 c0		 test	 eax, eax
  02d7f	74 77		 je	 SHORT $L192389

; 622  : 		{
; 623  : 			CString strHit = "";

  02d81	8b f4		 mov	 esi, esp
  02d83	68 00 00 00 00	 push	 OFFSET FLAT:$SG192391
  02d88	8d 4d e8	 lea	 ecx, DWORD PTR _strHit$192390[ebp]
  02d8b	ff 15 00 00 00
	00		 call	 DWORD PTR __imp_??0?$CStringT@DV?$StrTraitMFC_DLL@DV?$ChTraitsCRT@D@ATL@@@@@ATL@@QAE@PBD@Z
  02d91	3b f4		 cmp	 esi, esp
  02d93	e8 00 00 00 00	 call	 __RTC_CheckEsp
  02d98	c6 45 fc 01	 mov	 BYTE PTR __$EHRec$[ebp+8], 1

; 624  : 			strHit.Format( " \"%s\" ",strSkinName );

  02d9c	8b f4		 mov	 esi, esp
  02d9e	8b 45 0c	 mov	 eax, DWORD PTR _strSkinName$[ebp]
  02da1	50		 push	 eax
  02da2	68 00 00 00 00	 push	 OFFSET FLAT:$SG192392
  02da7	8d 4d e8	 lea	 ecx, DWORD PTR _strHit$192390[ebp]
  02daa	51		 push	 ecx
  02dab	ff 15 00 00 00
	00		 call	 DWORD PTR __imp_?Format@?$CStringT@DV?$StrTraitMFC_DLL@DV?$ChTraitsCRT@D@ATL@@@@@ATL@@QAAXPBDZZ
  02db1	83 c4 0c	 add	 esp, 12			; 0000000cH
  02db4	3b f4		 cmp	 esi, esp
  02db6	e8 00 00 00 00	 call	 __RTC_CheckEsp

; 625  : 			mp_downloadSkin->SetDownloadHit( strHit );

  02dbb	51		 push	 ecx
  02dbc	8b cc		 mov	 ecx, esp
  02dbe	89 65 e0	 mov	 DWORD PTR $T195048[ebp], esp
  02dc1	8b f4		 mov	 esi, esp
  02dc3	8d 55 e8	 lea	 edx, DWORD PTR _strHit$192390[ebp]
  02dc6	52		 push	 edx
  02dc7	ff 15 00 00 00
	00		 call	 DWORD PTR __imp_??0?$CStringT@DV?$StrTraitMFC_DLL@DV?$ChTraitsCRT@D@ATL@@@@@ATL@@QAE@ABV01@@Z
  02dcd	3b f4		 cmp	 esi, esp
  02dcf	e8 00 00 00 00	 call	 __RTC_CheckEsp
  02dd4	89 45 dc	 mov	 DWORD PTR tv156[ebp], eax
  02dd7	8b 45 f0	 mov	 eax, DWORD PTR _this$[ebp]
  02dda	8b 48 20	 mov	 ecx, DWORD PTR [eax+32]
  02ddd	e8 00 00 00 00	 call	 ?SetDownloadHit@CDownloadPercentWnd@@QAEXV?$CStringT@DV?$StrTraitMFC_DLL@DV?$ChTraitsCRT@D@ATL@@@@@ATL@@@Z ; CDownloadPercentWnd::SetDownloadHit

; 626  : 		}

  02de2	c6 45 fc 00	 mov	 BYTE PTR __$EHRec$[ebp+8], 0
  02de6	8b f4		 mov	 esi, esp
  02de8	8d 4d e8	 lea	 ecx, DWORD PTR _strHit$192390[ebp]
  02deb	ff 15 00 00 00
	00		 call	 DWORD PTR __imp_??1?$CStringT@DV?$StrTraitMFC_DLL@DV?$ChTraitsCRT@D@ATL@@@@@ATL@@QAE@XZ
  02df1	3b f4		 cmp	 esi, esp
  02df3	e8 00 00 00 00	 call	 __RTC_CheckEsp
$L192389:

; 627  : 		mp_downloadSkin->SetDownloadPercent( percentage );

  02df8	8b 4d 08	 mov	 ecx, DWORD PTR _percentage$[ebp]
  02dfb	51		 push	 ecx
  02dfc	8b 55 f0	 mov	 edx, DWORD PTR _this$[ebp]
  02dff	8b 4a 20	 mov	 ecx, DWORD PTR [edx+32]
  02e02	e8 00 00 00 00	 call	 ?SetDownloadPercent@CDownloadPercentWnd@@QAEXH@Z ; CDownloadPercentWnd::SetDownloadPercent
$L192387:

; 628  : 	}
; 629  : }

  02e07	c7 45 fc ff ff
	ff ff		 mov	 DWORD PTR __$EHRec$[ebp+8], -1
  02e0e	8b f4		 mov	 esi, esp
  02e10	8d 4d 0c	 lea	 ecx, DWORD PTR _strSkinName$[ebp]
  02e13	ff 15 00 00 00
	00		 call	 DWORD PTR __imp_??1?$CStringT@DV?$StrTraitMFC_DLL@DV?$ChTraitsCRT@D@ATL@@@@@ATL@@QAE@XZ
  02e19	3b f4		 cmp	 esi, esp
  02e1b	e8 00 00 00 00	 call	 __RTC_CheckEsp
$L192384:
  02e20	52		 push	 edx
  02e21	8b cd		 mov	 ecx, ebp
  02e23	50		 push	 eax
  02e24	8d 15 00 00 00
	00		 lea	 edx, DWORD PTR $L195057
  02e2a	e8 00 00 00 00	 call	 @_RTC_CheckStackVars@8
  02e2f	58		 pop	 eax
  02e30	5a		 pop	 edx
  02e31	8b 4d f4	 mov	 ecx, DWORD PTR __$EHRec$[ebp]
  02e34	64 89 0d 00 00
	00 00		 mov	 DWORD PTR fs:__except_list, ecx
  02e3b	5e		 pop	 esi
  02e3c	83 c4 24	 add	 esp, 36			; 00000024H
  02e3f	3b ec		 cmp	 ebp, esp
  02e41	e8 00 00 00 00	 call	 __RTC_CheckEsp
  02e46	8b e5		 mov	 esp, ebp
  02e48	5d		 pop	 ebp
  02e49	c2 08 00	 ret	 8
$L195057:
  02e4c	01 00 00 00	 DD	 1
  02e50	00 00 00 00	 DD	 $L195056
$L195056:
  02e54	e8 ff ff ff	 DD	 -24			; ffffffe8H
  02e58	04 00 00 00	 DD	 4
  02e5c	00 00 00 00	 DD	 $L195054
$L195054:
  02e60	73		 DB	 115			; 00000073H
  02e61	74		 DB	 116			; 00000074H
  02e62	72		 DB	 114			; 00000072H
  02e63	48		 DB	 72			; 00000048H
  02e64	69		 DB	 105			; 00000069H
  02e65	74		 DB	 116			; 00000074H
  02e66	00		 DB	 0
_TEXT	ENDS
text$x	SEGMENT
$L195049:
  0053d	8b f4		 mov	 esi, esp
  0053f	8d 4d 0c	 lea	 ecx, DWORD PTR _strSkinName$[ebp]
  00542	ff 15 00 00 00
	00		 call	 DWORD PTR __imp_??1?$CStringT@DV?$StrTraitMFC_DLL@DV?$ChTraitsCRT@D@ATL@@@@@ATL@@QAE@XZ
  00548	3b f4		 cmp	 esi, esp
  0054a	e9 00 00 00 00	 jmp	 __RTC_CheckEsp
$L195050:
  0054f	8b f4		 mov	 esi, esp
  00551	8d 4d e8	 lea	 ecx, DWORD PTR _strHit$192390[ebp]
  00554	ff 15 00 00 00
	00		 call	 DWORD PTR __imp_??1?$CStringT@DV?$StrTraitMFC_DLL@DV?$ChTraitsCRT@D@ATL@@@@@ATL@@QAE@XZ
  0055a	3b f4		 cmp	 esi, esp
  0055c	e9 00 00 00 00	 jmp	 __RTC_CheckEsp
__ehhandler$?SetDownloadPercentage@CSkinMgrV1@@UAEXHV?$CStringT@DV?$StrTraitMFC_DLL@DV?$ChTraitsCRT@D@ATL@@@@@ATL@@@Z:
  00561	b8 00 00 00 00	 mov	 eax, OFFSET FLAT:$T195053
  00566	e9 00 00 00 00	 jmp	 ___CxxFrameHandler
text$x	ENDS
?SetDownloadPercentage@CSkinMgrV1@@UAEXHV?$CStringT@DV?$StrTraitMFC_DLL@DV?$ChTraitsCRT@D@ATL@@@@@ATL@@@Z ENDP ; CSkinMgrV1::SetDownloadPercentage
EXTRN	?DownloadSkinFinish@CSkinWnd@@QAEXV?$CStringT@DV?$StrTraitMFC_DLL@DV?$ChTraitsCRT@D@ATL@@@@@ATL@@@Z:NEAR ; CSkinWnd::DownloadSkinFinish
EXTRN	??0YL_Ini@@QAE@PBD@Z:NEAR			; YL_Ini::YL_Ini
EXTRN	??1YL_Ini@@UAE@XZ:NEAR				; YL_Ini::~YL_Ini
EXTRN	?GetString@YL_Ini@@QBEKPBD0PADK0@Z:NEAR		; YL_Ini::GetString
xdata$x	SEGMENT
$T195087 DD	0ffffffffH
	DD	FLAT:$L195068
	DD	00H
	DD	FLAT:$L195070
	DD	01H
	DD	FLAT:$L195071
	DD	00H
	DD	FLAT:$L195071
	DD	03H
	DD	FLAT:$L195072
	DD	04H
	DD	FLAT:$L195073
	DD	05H
	DD	FLAT:$L195074
	DD	06H
	DD	FLAT:$L195075
	DD	03H
	DD	FLAT:$L195075
	DD	08H
	DD	FLAT:$L195074
	DD	09H
	DD	FLAT:$L195073
	DD	08H
	DD	FLAT:$L195076
$T195079 DD	019930520H
	DD	0cH
	DD	FLAT:$T195087
	DD	2 DUP(00H)
	DD	2 DUP(00H)
; Function compile flags: /Odt /RTCsu
xdata$x	ENDS
_TEXT	SEGMENT
tv223 = -260						; size = 4
tv220 = -256						; size = 4
tv239 = -252						; size = 4
tv217 = -248						; size = 4
tv235 = -244						; size = 4
tv215 = -240						; size = 4
tv232 = -236						; size = 4
tv213 = -232						; size = 4
tv134 = -228						; size = 4
tv210 = -224						; size = 4
tv227 = -220						; size = 4
tv208 = -216						; size = 4
$T195067 = -212						; size = 4
$T195066 = -208						; size = 4
$T195065 = -204						; size = 4
$T195064 = -200						; size = 4
$T195063 = -196						; size = 4
$T195062 = -192						; size = 4
$T195061 = -188						; size = 4
_tips$ = -180						; size = 4
_ini$ = -168						; size = 8
_szAuthor$ = -152					; size = 128
_this$ = -20						; size = 4
__$ArrayPad$ = -16					; size = 4
__$EHRec$ = -12						; size = 12
__$ReturnAddr$ = 4					; size = 4
_strSkinName$ = 8					; size = 4
?DownloadFinish@CSkinMgrV1@@UAEXV?$CStringT@DV?$StrTraitMFC_DLL@DV?$ChTraitsCRT@D@ATL@@@@@ATL@@@Z PROC NEAR ; CSkinMgrV1::DownloadFinish
; _this$ = ecx

; 631  : {

  02e70	55		 push	 ebp
  02e71	8b ec		 mov	 ebp, esp
  02e73	6a ff		 push	 -1
  02e75	68 00 00 00 00	 push	 __ehhandler$?DownloadFinish@CSkinMgrV1@@UAEXV?$CStringT@DV?$StrTraitMFC_DLL@DV?$ChTraitsCRT@D@ATL@@@@@ATL@@@Z
  02e7a	64 a1 00 00 00
	00		 mov	 eax, DWORD PTR fs:__except_list
  02e80	50		 push	 eax
  02e81	64 89 25 00 00
	00 00		 mov	 DWORD PTR fs:__except_list, esp
  02e88	81 ec f8 00 00
	00		 sub	 esp, 248		; 000000f8H
  02e8e	56		 push	 esi
  02e8f	57		 push	 edi
  02e90	51		 push	 ecx
  02e91	8d bd fc fe ff
	ff		 lea	 edi, DWORD PTR [ebp-260]
  02e97	b9 3e 00 00 00	 mov	 ecx, 62			; 0000003eH
  02e9c	b8 cc cc cc cc	 mov	 eax, -858993460		; ccccccccH
  02ea1	f3 ab		 rep stosd
  02ea3	59		 pop	 ecx
  02ea4	a1 00 00 00 00	 mov	 eax, DWORD PTR ___security_cookie
  02ea9	89 45 f0	 mov	 DWORD PTR __$ArrayPad$[ebp], eax
  02eac	89 4d ec	 mov	 DWORD PTR _this$[ebp], ecx
  02eaf	c7 45 fc 00 00
	00 00		 mov	 DWORD PTR __$EHRec$[ebp+8], 0

; 632  : 	if(mp_skinWnd == NULL || !::IsWindow(mp_skinWnd->m_hWnd))

  02eb6	8b 45 ec	 mov	 eax, DWORD PTR _this$[ebp]
  02eb9	83 78 14 00	 cmp	 DWORD PTR [eax+20], 0
  02ebd	74 1d		 je	 SHORT $L192399
  02ebf	8b 4d ec	 mov	 ecx, DWORD PTR _this$[ebp]
  02ec2	8b 51 14	 mov	 edx, DWORD PTR [ecx+20]
  02ec5	8b f4		 mov	 esi, esp
  02ec7	8b 42 20	 mov	 eax, DWORD PTR [edx+32]
  02eca	50		 push	 eax
  02ecb	ff 15 00 00 00
	00		 call	 DWORD PTR __imp__IsWindow@4
  02ed1	3b f4		 cmp	 esi, esp
  02ed3	e8 00 00 00 00	 call	 __RTC_CheckEsp
  02ed8	85 c0		 test	 eax, eax
  02eda	75 1e		 jne	 SHORT $L192398
$L192399:

; 633  : 		return;

  02edc	c7 45 fc ff ff
	ff ff		 mov	 DWORD PTR __$EHRec$[ebp+8], -1
  02ee3	8b f4		 mov	 esi, esp
  02ee5	8d 4d 08	 lea	 ecx, DWORD PTR _strSkinName$[ebp]
  02ee8	ff 15 00 00 00
	00		 call	 DWORD PTR __imp_??1?$CStringT@DV?$StrTraitMFC_DLL@DV?$ChTraitsCRT@D@ATL@@@@@ATL@@QAE@XZ
  02eee	3b f4		 cmp	 esi, esp
  02ef0	e8 00 00 00 00	 call	 __RTC_CheckEsp
  02ef5	e9 7e 02 00 00	 jmp	 $L192397
$L192398:

; 634  : 
; 635  : 	mp_skinWnd->EnableSkinBtn( TRUE );

  02efa	6a 01		 push	 1
  02efc	8b 4d ec	 mov	 ecx, DWORD PTR _this$[ebp]
  02eff	8b 49 14	 mov	 ecx, DWORD PTR [ecx+20]
  02f02	e8 00 00 00 00	 call	 ?EnableSkinBtn@CSkinWnd@@QAEXH@Z ; CSkinWnd::EnableSkinBtn

; 636  : 	mp_skinWnd->DownloadSkinFinish( strSkinName );

  02f07	51		 push	 ecx
  02f08	8b cc		 mov	 ecx, esp
  02f0a	89 a5 44 ff ff
	ff		 mov	 DWORD PTR $T195061[ebp], esp
  02f10	8b f4		 mov	 esi, esp
  02f12	8d 55 08	 lea	 edx, DWORD PTR _strSkinName$[ebp]
  02f15	52		 push	 edx
  02f16	ff 15 00 00 00
	00		 call	 DWORD PTR __imp_??0?$CStringT@DV?$StrTraitMFC_DLL@DV?$ChTraitsCRT@D@ATL@@@@@ATL@@QAE@ABV01@@Z
  02f1c	3b f4		 cmp	 esi, esp
  02f1e	e8 00 00 00 00	 call	 __RTC_CheckEsp
  02f23	89 85 28 ff ff
	ff		 mov	 DWORD PTR tv208[ebp], eax
  02f29	8b 45 ec	 mov	 eax, DWORD PTR _this$[ebp]
  02f2c	8b 48 14	 mov	 ecx, DWORD PTR [eax+20]
  02f2f	e8 00 00 00 00	 call	 ?DownloadSkinFinish@CSkinWnd@@QAEXV?$CStringT@DV?$StrTraitMFC_DLL@DV?$ChTraitsCRT@D@ATL@@@@@ATL@@@Z ; CSkinWnd::DownloadSkinFinish

; 637  : 	mp_downloadSkin->ShowWindow( SW_HIDE );

  02f34	6a 00		 push	 0
  02f36	8b 4d ec	 mov	 ecx, DWORD PTR _this$[ebp]
  02f39	8b 49 20	 mov	 ecx, DWORD PTR [ecx+32]
  02f3c	e8 00 00 00 00	 call	 ?ShowWindow@CWnd@@QAEHH@Z ; CWnd::ShowWindow

; 638  : 	mp_mainSkinWnd->ShowColorBtn( TRUE );

  02f41	6a 01		 push	 1
  02f43	8b 55 ec	 mov	 edx, DWORD PTR _this$[ebp]
  02f46	8b 4a 10	 mov	 ecx, DWORD PTR [edx+16]
  02f49	e8 00 00 00 00	 call	 ?ShowColorBtn@CMainSkinWnd@@QAEXH@Z ; CMainSkinWnd::ShowColorBtn

; 639  : 
; 640  : 	//  tooltips
; 641  : 	char szAuthor[SRC_LENGTH];
; 642  : 	YL_Ini ini((LPCTSTR)(m_strSkinPath + "\\skin.ini"));

  02f4e	68 00 00 00 00	 push	 OFFSET FLAT:$SG192405
  02f53	8b 45 ec	 mov	 eax, DWORD PTR _this$[ebp]
  02f56	83 c0 34	 add	 eax, 52			; 00000034H
  02f59	50		 push	 eax
  02f5a	8d 8d 40 ff ff
	ff		 lea	 ecx, DWORD PTR $T195062[ebp]
  02f60	51		 push	 ecx
  02f61	e8 00 00 00 00	 call	 ??HATL@@YA?AV?$CStringT@DV?$StrTraitMFC_DLL@DV?$ChTraitsCRT@D@ATL@@@@@0@ABV10@PBD@Z ; ATL::operator+
  02f66	83 c4 0c	 add	 esp, 12			; 0000000cH
  02f69	89 85 24 ff ff
	ff		 mov	 DWORD PTR tv227[ebp], eax
  02f6f	8b 95 24 ff ff
	ff		 mov	 edx, DWORD PTR tv227[ebp]
  02f75	89 95 20 ff ff
	ff		 mov	 DWORD PTR tv210[ebp], edx
  02f7b	c6 45 fc 01	 mov	 BYTE PTR __$EHRec$[ebp+8], 1
  02f7f	8b f4		 mov	 esi, esp
  02f81	8b 8d 20 ff ff
	ff		 mov	 ecx, DWORD PTR tv210[ebp]
  02f87	ff 15 00 00 00
	00		 call	 DWORD PTR __imp_??B?$CSimpleStringT@D$00@ATL@@QBEPBDXZ
  02f8d	3b f4		 cmp	 esi, esp
  02f8f	e8 00 00 00 00	 call	 __RTC_CheckEsp
  02f94	50		 push	 eax
  02f95	8d 8d 58 ff ff
	ff		 lea	 ecx, DWORD PTR _ini$[ebp]
  02f9b	e8 00 00 00 00	 call	 ??0YL_Ini@@QAE@PBD@Z	; YL_Ini::YL_Ini
  02fa0	c6 45 fc 03	 mov	 BYTE PTR __$EHRec$[ebp+8], 3
  02fa4	8b f4		 mov	 esi, esp
  02fa6	8d 8d 40 ff ff
	ff		 lea	 ecx, DWORD PTR $T195062[ebp]
  02fac	ff 15 00 00 00
	00		 call	 DWORD PTR __imp_??1?$CStringT@DV?$StrTraitMFC_DLL@DV?$ChTraitsCRT@D@ATL@@@@@ATL@@QAE@XZ
  02fb2	3b f4		 cmp	 esi, esp
  02fb4	e8 00 00 00 00	 call	 __RTC_CheckEsp

; 643  : 	ini.GetString("skin", "author", szAuthor, SRC_LENGTH-1);

  02fb9	6a 00		 push	 0
  02fbb	6a 7f		 push	 127			; 0000007fH
  02fbd	8d 85 68 ff ff
	ff		 lea	 eax, DWORD PTR _szAuthor$[ebp]
  02fc3	50		 push	 eax
  02fc4	68 00 00 00 00	 push	 OFFSET FLAT:$SG192406
  02fc9	68 00 00 00 00	 push	 OFFSET FLAT:$SG192407
  02fce	8d 8d 58 ff ff
	ff		 lea	 ecx, DWORD PTR _ini$[ebp]
  02fd4	e8 00 00 00 00	 call	 ?GetString@YL_Ini@@QBEKPBD0PADK0@Z ; YL_Ini::GetString

; 644  : 	CString tips = ": " + strSkinName + "\r\n: " + szAuthor + "\r\n: ";

  02fd9	8d 4d 08	 lea	 ecx, DWORD PTR _strSkinName$[ebp]
  02fdc	51		 push	 ecx
  02fdd	68 00 00 00 00	 push	 OFFSET FLAT:$SG192415
  02fe2	8d 95 3c ff ff
	ff		 lea	 edx, DWORD PTR $T195063[ebp]
  02fe8	52		 push	 edx
  02fe9	e8 00 00 00 00	 call	 ??HATL@@YA?AV?$CStringT@DV?$StrTraitMFC_DLL@DV?$ChTraitsCRT@D@ATL@@@@@0@PBDABV10@@Z ; ATL::operator+
  02fee	83 c4 0c	 add	 esp, 12			; 0000000cH
  02ff1	89 85 1c ff ff
	ff		 mov	 DWORD PTR tv134[ebp], eax
  02ff7	8b 85 1c ff ff
	ff		 mov	 eax, DWORD PTR tv134[ebp]
  02ffd	89 85 18 ff ff
	ff		 mov	 DWORD PTR tv213[ebp], eax
  03003	c6 45 fc 04	 mov	 BYTE PTR __$EHRec$[ebp+8], 4
  03007	68 00 00 00 00	 push	 OFFSET FLAT:$SG192414
  0300c	8b 8d 18 ff ff
	ff		 mov	 ecx, DWORD PTR tv213[ebp]
  03012	51		 push	 ecx
  03013	8d 95 38 ff ff
	ff		 lea	 edx, DWORD PTR $T195064[ebp]
  03019	52		 push	 edx
  0301a	e8 00 00 00 00	 call	 ??HATL@@YA?AV?$CStringT@DV?$StrTraitMFC_DLL@DV?$ChTraitsCRT@D@ATL@@@@@0@ABV10@PBD@Z ; ATL::operator+
  0301f	83 c4 0c	 add	 esp, 12			; 0000000cH
  03022	89 85 14 ff ff
	ff		 mov	 DWORD PTR tv232[ebp], eax
  03028	8b 85 14 ff ff
	ff		 mov	 eax, DWORD PTR tv232[ebp]
  0302e	89 85 10 ff ff
	ff		 mov	 DWORD PTR tv215[ebp], eax
  03034	c6 45 fc 05	 mov	 BYTE PTR __$EHRec$[ebp+8], 5
  03038	8d 8d 68 ff ff
	ff		 lea	 ecx, DWORD PTR _szAuthor$[ebp]
  0303e	51		 push	 ecx
  0303f	8b 95 10 ff ff
	ff		 mov	 edx, DWORD PTR tv215[ebp]
  03045	52		 push	 edx
  03046	8d 85 34 ff ff
	ff		 lea	 eax, DWORD PTR $T195065[ebp]
  0304c	50		 push	 eax
  0304d	e8 00 00 00 00	 call	 ??HATL@@YA?AV?$CStringT@DV?$StrTraitMFC_DLL@DV?$ChTraitsCRT@D@ATL@@@@@0@ABV10@PBD@Z ; ATL::operator+
  03052	83 c4 0c	 add	 esp, 12			; 0000000cH
  03055	89 85 0c ff ff
	ff		 mov	 DWORD PTR tv235[ebp], eax
  0305b	8b 8d 0c ff ff
	ff		 mov	 ecx, DWORD PTR tv235[ebp]
  03061	89 8d 08 ff ff
	ff		 mov	 DWORD PTR tv217[ebp], ecx
  03067	c6 45 fc 06	 mov	 BYTE PTR __$EHRec$[ebp+8], 6
  0306b	68 00 00 00 00	 push	 OFFSET FLAT:$SG192413
  03070	8b 95 08 ff ff
	ff		 mov	 edx, DWORD PTR tv217[ebp]
  03076	52		 push	 edx
  03077	8d 85 4c ff ff
	ff		 lea	 eax, DWORD PTR _tips$[ebp]
  0307d	50		 push	 eax
  0307e	e8 00 00 00 00	 call	 ??HATL@@YA?AV?$CStringT@DV?$StrTraitMFC_DLL@DV?$ChTraitsCRT@D@ATL@@@@@0@ABV10@PBD@Z ; ATL::operator+
  03083	83 c4 0c	 add	 esp, 12			; 0000000cH
  03086	c6 45 fc 0a	 mov	 BYTE PTR __$EHRec$[ebp+8], 10 ; 0000000aH
  0308a	8b f4		 mov	 esi, esp
  0308c	8d 8d 34 ff ff
	ff		 lea	 ecx, DWORD PTR $T195065[ebp]
  03092	ff 15 00 00 00
	00		 call	 DWORD PTR __imp_??1?$CStringT@DV?$StrTraitMFC_DLL@DV?$ChTraitsCRT@D@ATL@@@@@ATL@@QAE@XZ
  03098	3b f4		 cmp	 esi, esp
  0309a	e8 00 00 00 00	 call	 __RTC_CheckEsp
  0309f	c6 45 fc 09	 mov	 BYTE PTR __$EHRec$[ebp+8], 9
  030a3	8b f4		 mov	 esi, esp
  030a5	8d 8d 38 ff ff
	ff		 lea	 ecx, DWORD PTR $T195064[ebp]
  030ab	ff 15 00 00 00
	00		 call	 DWORD PTR __imp_??1?$CStringT@DV?$StrTraitMFC_DLL@DV?$ChTraitsCRT@D@ATL@@@@@ATL@@QAE@XZ
  030b1	3b f4		 cmp	 esi, esp
  030b3	e8 00 00 00 00	 call	 __RTC_CheckEsp
  030b8	c6 45 fc 08	 mov	 BYTE PTR __$EHRec$[ebp+8], 8
  030bc	8b f4		 mov	 esi, esp
  030be	8d 8d 3c ff ff
	ff		 lea	 ecx, DWORD PTR $T195063[ebp]
  030c4	ff 15 00 00 00
	00		 call	 DWORD PTR __imp_??1?$CStringT@DV?$StrTraitMFC_DLL@DV?$ChTraitsCRT@D@ATL@@@@@ATL@@QAE@XZ
  030ca	3b f4		 cmp	 esi, esp
  030cc	e8 00 00 00 00	 call	 __RTC_CheckEsp

; 645  : 	SetTipText(strSkinName, tips);

  030d1	51		 push	 ecx
  030d2	8b cc		 mov	 ecx, esp
  030d4	89 a5 30 ff ff
	ff		 mov	 DWORD PTR $T195066[ebp], esp
  030da	8b f4		 mov	 esi, esp
  030dc	8d 95 4c ff ff
	ff		 lea	 edx, DWORD PTR _tips$[ebp]
  030e2	52		 push	 edx
  030e3	ff 15 00 00 00
	00		 call	 DWORD PTR __imp_??0?$CStringT@DV?$StrTraitMFC_DLL@DV?$ChTraitsCRT@D@ATL@@@@@ATL@@QAE@ABV01@@Z
  030e9	3b f4		 cmp	 esi, esp
  030eb	e8 00 00 00 00	 call	 __RTC_CheckEsp
  030f0	89 85 04 ff ff
	ff		 mov	 DWORD PTR tv239[ebp], eax
  030f6	8b 85 04 ff ff
	ff		 mov	 eax, DWORD PTR tv239[ebp]
  030fc	89 85 00 ff ff
	ff		 mov	 DWORD PTR tv220[ebp], eax
  03102	c6 45 fc 0b	 mov	 BYTE PTR __$EHRec$[ebp+8], 11 ; 0000000bH
  03106	51		 push	 ecx
  03107	8b cc		 mov	 ecx, esp
  03109	89 a5 2c ff ff
	ff		 mov	 DWORD PTR $T195067[ebp], esp
  0310f	8b f4		 mov	 esi, esp
  03111	8d 55 08	 lea	 edx, DWORD PTR _strSkinName$[ebp]
  03114	52		 push	 edx
  03115	ff 15 00 00 00
	00		 call	 DWORD PTR __imp_??0?$CStringT@DV?$StrTraitMFC_DLL@DV?$ChTraitsCRT@D@ATL@@@@@ATL@@QAE@ABV01@@Z
  0311b	3b f4		 cmp	 esi, esp
  0311d	e8 00 00 00 00	 call	 __RTC_CheckEsp
  03122	89 85 fc fe ff
	ff		 mov	 DWORD PTR tv223[ebp], eax
  03128	8b 45 ec	 mov	 eax, DWORD PTR _this$[ebp]
  0312b	8b 10		 mov	 edx, DWORD PTR [eax]
  0312d	c6 45 fc 08	 mov	 BYTE PTR __$EHRec$[ebp+8], 8
  03131	8b 4d ec	 mov	 ecx, DWORD PTR _this$[ebp]
  03134	ff 52 28	 call	 DWORD PTR [edx+40]

; 646  : }

  03137	c6 45 fc 03	 mov	 BYTE PTR __$EHRec$[ebp+8], 3
  0313b	8b f4		 mov	 esi, esp
  0313d	8d 8d 4c ff ff
	ff		 lea	 ecx, DWORD PTR _tips$[ebp]
  03143	ff 15 00 00 00
	00		 call	 DWORD PTR __imp_??1?$CStringT@DV?$StrTraitMFC_DLL@DV?$ChTraitsCRT@D@ATL@@@@@ATL@@QAE@XZ
  03149	3b f4		 cmp	 esi, esp
  0314b	e8 00 00 00 00	 call	 __RTC_CheckEsp
  03150	c6 45 fc 00	 mov	 BYTE PTR __$EHRec$[ebp+8], 0
  03154	8d 8d 58 ff ff
	ff		 lea	 ecx, DWORD PTR _ini$[ebp]
  0315a	e8 00 00 00 00	 call	 ??1YL_Ini@@UAE@XZ	; YL_Ini::~YL_Ini
  0315f	c7 45 fc ff ff
	ff ff		 mov	 DWORD PTR __$EHRec$[ebp+8], -1
  03166	8b f4		 mov	 esi, esp
  03168	8d 4d 08	 lea	 ecx, DWORD PTR _strSkinName$[ebp]
  0316b	ff 15 00 00 00
	00		 call	 DWORD PTR __imp_??1?$CStringT@DV?$StrTraitMFC_DLL@DV?$ChTraitsCRT@D@ATL@@@@@ATL@@QAE@XZ
  03171	3b f4		 cmp	 esi, esp
  03173	e8 00 00 00 00	 call	 __RTC_CheckEsp
$L192397:
  03178	52		 push	 edx
  03179	8b cd		 mov	 ecx, ebp
  0317b	50		 push	 eax
  0317c	8d 15 00 00 00
	00		 lea	 edx, DWORD PTR $L195086
  03182	e8 00 00 00 00	 call	 @_RTC_CheckStackVars@8
  03187	58		 pop	 eax
  03188	5a		 pop	 edx
  03189	8b 4d f4	 mov	 ecx, DWORD PTR __$EHRec$[ebp]
  0318c	64 89 0d 00 00
	00 00		 mov	 DWORD PTR fs:__except_list, ecx
  03193	8b 4d f0	 mov	 ecx, DWORD PTR __$ArrayPad$[ebp]
  03196	e8 00 00 00 00	 call	 @__security_check_cookie@4
  0319b	5f		 pop	 edi
  0319c	5e		 pop	 esi
  0319d	81 c4 04 01 00
	00		 add	 esp, 260		; 00000104H
  031a3	3b ec		 cmp	 ebp, esp
  031a5	e8 00 00 00 00	 call	 __RTC_CheckEsp
  031aa	8b e5		 mov	 esp, ebp
  031ac	5d		 pop	 ebp
  031ad	c2 04 00	 ret	 4
$L195086:
  031b0	03 00 00 00	 DD	 3
  031b4	00 00 00 00	 DD	 $L195085
$L195085:
  031b8	68 ff ff ff	 DD	 -152			; ffffff68H
  031bc	80 00 00 00	 DD	 128			; 00000080H
  031c0	00 00 00 00	 DD	 $L195080
  031c4	58 ff ff ff	 DD	 -168			; ffffff58H
  031c8	08 00 00 00	 DD	 8
  031cc	00 00 00 00	 DD	 $L195081
  031d0	4c ff ff ff	 DD	 -180			; ffffff4cH
  031d4	04 00 00 00	 DD	 4
  031d8	00 00 00 00	 DD	 $L195082
$L195082:
  031dc	74		 DB	 116			; 00000074H
  031dd	69		 DB	 105			; 00000069H
  031de	70		 DB	 112			; 00000070H
  031df	73		 DB	 115			; 00000073H
  031e0	00		 DB	 0
$L195081:
  031e1	69		 DB	 105			; 00000069H
  031e2	6e		 DB	 110			; 0000006eH
  031e3	69		 DB	 105			; 00000069H
  031e4	00		 DB	 0
$L195080:
  031e5	73		 DB	 115			; 00000073H
  031e6	7a		 DB	 122			; 0000007aH
  031e7	41		 DB	 65			; 00000041H
  031e8	75		 DB	 117			; 00000075H
  031e9	74		 DB	 116			; 00000074H
  031ea	68		 DB	 104			; 00000068H
  031eb	6f		 DB	 111			; 0000006fH
  031ec	72		 DB	 114			; 00000072H
  031ed	00		 DB	 0
_TEXT	ENDS
text$x	SEGMENT
$L195068:
  0056b	8b f4		 mov	 esi, esp
  0056d	8d 4d 08	 lea	 ecx, DWORD PTR _strSkinName$[ebp]
  00570	ff 15 00 00 00
	00		 call	 DWORD PTR __imp_??1?$CStringT@DV?$StrTraitMFC_DLL@DV?$ChTraitsCRT@D@ATL@@@@@ATL@@QAE@XZ
  00576	3b f4		 cmp	 esi, esp
  00578	e9 00 00 00 00	 jmp	 __RTC_CheckEsp
$L195070:
  0057d	8b f4		 mov	 esi, esp
  0057f	8d 8d 40 ff ff
	ff		 lea	 ecx, DWORD PTR $T195062[ebp]
  00585	ff 15 00 00 00
	00		 call	 DWORD PTR __imp_??1?$CStringT@DV?$StrTraitMFC_DLL@DV?$ChTraitsCRT@D@ATL@@@@@ATL@@QAE@XZ
  0058b	3b f4		 cmp	 esi, esp
  0058d	e9 00 00 00 00	 jmp	 __RTC_CheckEsp
$L195071:
  00592	8d 8d 58 ff ff
	ff		 lea	 ecx, DWORD PTR _ini$[ebp]
  00598	e9 00 00 00 00	 jmp	 ??1YL_Ini@@UAE@XZ	; YL_Ini::~YL_Ini
$L195072:
  0059d	8b f4		 mov	 esi, esp
  0059f	8d 8d 3c ff ff
	ff		 lea	 ecx, DWORD PTR $T195063[ebp]
  005a5	ff 15 00 00 00
	00		 call	 DWORD PTR __imp_??1?$CStringT@DV?$StrTraitMFC_DLL@DV?$ChTraitsCRT@D@ATL@@@@@ATL@@QAE@XZ
  005ab	3b f4		 cmp	 esi, esp
  005ad	e9 00 00 00 00	 jmp	 __RTC_CheckEsp
$L195073:
  005b2	8b f4		 mov	 esi, esp
  005b4	8d 8d 38 ff ff
	ff		 lea	 ecx, DWORD PTR $T195064[ebp]
  005ba	ff 15 00 00 00
	00		 call	 DWORD PTR __imp_??1?$CStringT@DV?$StrTraitMFC_DLL@DV?$ChTraitsCRT@D@ATL@@@@@ATL@@QAE@XZ
  005c0	3b f4		 cmp	 esi, esp
  005c2	e9 00 00 00 00	 jmp	 __RTC_CheckEsp
$L195074:
  005c7	8b f4		 mov	 esi, esp
  005c9	8d 8d 34 ff ff
	ff		 lea	 ecx, DWORD PTR $T195065[ebp]
  005cf	ff 15 00 00 00
	00		 call	 DWORD PTR __imp_??1?$CStringT@DV?$StrTraitMFC_DLL@DV?$ChTraitsCRT@D@ATL@@@@@ATL@@QAE@XZ
  005d5	3b f4		 cmp	 esi, esp
  005d7	e9 00 00 00 00	 jmp	 __RTC_CheckEsp
$L195075:
  005dc	8b f4		 mov	 esi, esp
  005de	8d 8d 4c ff ff
	ff		 lea	 ecx, DWORD PTR _tips$[ebp]
  005e4	ff 15 00 00 00
	00		 call	 DWORD PTR __imp_??1?$CStringT@DV?$StrTraitMFC_DLL@DV?$ChTraitsCRT@D@ATL@@@@@ATL@@QAE@XZ
  005ea	3b f4		 cmp	 esi, esp
  005ec	e9 00 00 00 00	 jmp	 __RTC_CheckEsp
$L195076:
  005f1	8b f4		 mov	 esi, esp
  005f3	8b 8d 30 ff ff
	ff		 mov	 ecx, DWORD PTR $T195066[ebp]
  005f9	ff 15 00 00 00
	00		 call	 DWORD PTR __imp_??1?$CStringT@DV?$StrTraitMFC_DLL@DV?$ChTraitsCRT@D@ATL@@@@@ATL@@QAE@XZ
  005ff	3b f4		 cmp	 esi, esp
  00601	e9 00 00 00 00	 jmp	 __RTC_CheckEsp
__ehhandler$?DownloadFinish@CSkinMgrV1@@UAEXV?$CStringT@DV?$StrTraitMFC_DLL@DV?$ChTraitsCRT@D@ATL@@@@@ATL@@@Z:
  00606	b8 00 00 00 00	 mov	 eax, OFFSET FLAT:$T195079
  0060b	e9 00 00 00 00	 jmp	 ___CxxFrameHandler
text$x	ENDS
?DownloadFinish@CSkinMgrV1@@UAEXV?$CStringT@DV?$StrTraitMFC_DLL@DV?$ChTraitsCRT@D@ATL@@@@@ATL@@@Z ENDP ; CSkinMgrV1::DownloadFinish
PUBLIC	?P2POb_DownStart@CSkinMgrV1@@QAEXABUSign@@PBDI@Z ; CSkinMgrV1::P2POb_DownStart
EXTRN	__imp__EnterCriticalSection@4:NEAR
EXTRN	__imp__LeaveCriticalSection@4:NEAR
xdata$x	SEGMENT
$T195098 DD	0ffffffffH
	DD	FLAT:$L195093
	DD	00H
	DD	FLAT:$L195094
$T195096 DD	019930520H
	DD	02H
	DD	FLAT:$T195098
	DD	2 DUP(00H)
	DD	2 DUP(00H)
; Function compile flags: /Odt /RTCsu
xdata$x	ENDS
_TEXT	SEGMENT
tv145 = -80						; size = 4
$T195091 = -76						; size = 28
$T195090 = -48						; size = 28
$T195089 = -20						; size = 4
_this$ = -16						; size = 4
__$EHRec$ = -12						; size = 12
_sign$ = 8						; size = 4
_lpszFilePath$ = 12					; size = 4
_unFileSize$ = 16					; size = 4
?P2POb_DownStart@CSkinMgrV1@@QAEXABUSign@@PBDI@Z PROC NEAR ; CSkinMgrV1::P2POb_DownStart
; _this$ = ecx

; 649  : {

  031f0	55		 push	 ebp
  031f1	8b ec		 mov	 ebp, esp
  031f3	6a ff		 push	 -1
  031f5	68 00 00 00 00	 push	 __ehhandler$?P2POb_DownStart@CSkinMgrV1@@QAEXABUSign@@PBDI@Z
  031fa	64 a1 00 00 00
	00		 mov	 eax, DWORD PTR fs:__except_list
  03200	50		 push	 eax
  03201	64 89 25 00 00
	00 00		 mov	 DWORD PTR fs:__except_list, esp
  03208	83 ec 44	 sub	 esp, 68			; 00000044H
  0320b	56		 push	 esi
  0320c	57		 push	 edi
  0320d	51		 push	 ecx
  0320e	8d 7d b0	 lea	 edi, DWORD PTR [ebp-80]
  03211	b9 11 00 00 00	 mov	 ecx, 17			; 00000011H
  03216	b8 cc cc cc cc	 mov	 eax, -858993460		; ccccccccH
  0321b	f3 ab		 rep stosd
  0321d	59		 pop	 ecx
  0321e	89 4d f0	 mov	 DWORD PTR _this$[ebp], ecx

; 650  : EnterCriticalSection( &m_csDownInfo );

  03221	8b 45 f0	 mov	 eax, DWORD PTR _this$[ebp]
  03224	83 c0 68	 add	 eax, 104		; 00000068H
  03227	8b f4		 mov	 esi, esp
  03229	50		 push	 eax
  0322a	ff 15 00 00 00
	00		 call	 DWORD PTR __imp__EnterCriticalSection@4
  03230	3b f4		 cmp	 esi, esp
  03232	e8 00 00 00 00	 call	 __RTC_CheckEsp

; 651  : 	if( !mb_HasPopWnd )

  03237	8b 4d f0	 mov	 ecx, DWORD PTR _this$[ebp]
  0323a	0f b6 51 48	 movzx	 edx, BYTE PTR [ecx+72]
  0323e	85 d2		 test	 edx, edx
  03240	75 1b		 jne	 SHORT $L192424

; 652  : 	{
; 653  : 		LeaveCriticalSection( &m_csDownInfo );

  03242	8b 45 f0	 mov	 eax, DWORD PTR _this$[ebp]
  03245	83 c0 68	 add	 eax, 104		; 00000068H
  03248	8b f4		 mov	 esi, esp
  0324a	50		 push	 eax
  0324b	ff 15 00 00 00
	00		 call	 DWORD PTR __imp__LeaveCriticalSection@4
  03251	3b f4		 cmp	 esi, esp
  03253	e8 00 00 00 00	 call	 __RTC_CheckEsp

; 654  : 		return;

  03258	e9 fa 00 00 00	 jmp	 $L192423
$L192424:

; 655  : 	}
; 656  : 	m_strDownPath = lpszFilePath;

  0325d	8b f4		 mov	 esi, esp
  0325f	8b 4d 0c	 mov	 ecx, DWORD PTR _lpszFilePath$[ebp]
  03262	51		 push	 ecx
  03263	8b 4d f0	 mov	 ecx, DWORD PTR _this$[ebp]
  03266	83 c1 5c	 add	 ecx, 92			; 0000005cH
  03269	ff 15 00 00 00
	00		 call	 DWORD PTR __imp_??4?$CStringT@DV?$StrTraitMFC_DLL@DV?$ChTraitsCRT@D@ATL@@@@@ATL@@QAEAAV01@PBD@Z
  0326f	3b f4		 cmp	 esi, esp
  03271	e8 00 00 00 00	 call	 __RTC_CheckEsp

; 657  : 	SetDownloadPercentage(0, m_strDownSkin);

  03276	8b 55 f0	 mov	 edx, DWORD PTR _this$[ebp]
  03279	83 c2 58	 add	 edx, 88			; 00000058H
  0327c	51		 push	 ecx
  0327d	8b cc		 mov	 ecx, esp
  0327f	89 65 ec	 mov	 DWORD PTR $T195089[ebp], esp
  03282	8b f4		 mov	 esi, esp
  03284	52		 push	 edx
  03285	ff 15 00 00 00
	00		 call	 DWORD PTR __imp_??0?$CStringT@DV?$StrTraitMFC_DLL@DV?$ChTraitsCRT@D@ATL@@@@@ATL@@QAE@ABV01@@Z
  0328b	3b f4		 cmp	 esi, esp
  0328d	e8 00 00 00 00	 call	 __RTC_CheckEsp
  03292	89 45 b0	 mov	 DWORD PTR tv145[ebp], eax
  03295	6a 00		 push	 0
  03297	8b 45 f0	 mov	 eax, DWORD PTR _this$[ebp]
  0329a	8b 10		 mov	 edx, DWORD PTR [eax]
  0329c	8b 4d f0	 mov	 ecx, DWORD PTR _this$[ebp]
  0329f	ff 52 50	 call	 DWORD PTR [edx+80]

; 658  : 	mb_isDownSkin = true;

  032a2	8b 45 f0	 mov	 eax, DWORD PTR _this$[ebp]
  032a5	c6 40 49 01	 mov	 BYTE PTR [eax+73], 1

; 659  : 	if(mp_skinWnd != NULL)

  032a9	8b 4d f0	 mov	 ecx, DWORD PTR _this$[ebp]
  032ac	83 79 14 00	 cmp	 DWORD PTR [ecx+20], 0
  032b0	74 0d		 je	 SHORT $L192426

; 660  : 		mp_skinWnd->SetUseTip(false);

  032b2	6a 00		 push	 0
  032b4	8b 55 f0	 mov	 edx, DWORD PTR _this$[ebp]
  032b7	8b 4a 14	 mov	 ecx, DWORD PTR [edx+20]
  032ba	e8 00 00 00 00	 call	 ?SetUseTip@CSkinWnd@@QAEX_N@Z ; CSkinWnd::SetUseTip
$L192426:

; 661  : 	LogUserActMsg( "HANDLE_SKIN", "S:DOWN_START" );

  032bf	8b f4		 mov	 esi, esp
  032c1	68 00 00 00 00	 push	 OFFSET FLAT:$SG192429
  032c6	8d 4d d0	 lea	 ecx, DWORD PTR $T195090[ebp]
  032c9	ff 15 00 00 00
	00		 call	 DWORD PTR __imp_??0?$basic_string@DU?$char_traits@D@std@@V?$allocator@D@2@@std@@QAE@PBD@Z
  032cf	3b f4		 cmp	 esi, esp
  032d1	e8 00 00 00 00	 call	 __RTC_CheckEsp
  032d6	c7 45 fc 00 00
	00 00		 mov	 DWORD PTR __$EHRec$[ebp+8], 0
  032dd	8b f4		 mov	 esi, esp
  032df	68 00 00 00 00	 push	 OFFSET FLAT:$SG192430
  032e4	8d 4d b4	 lea	 ecx, DWORD PTR $T195091[ebp]
  032e7	ff 15 00 00 00
	00		 call	 DWORD PTR __imp_??0?$basic_string@DU?$char_traits@D@std@@V?$allocator@D@2@@std@@QAE@PBD@Z
  032ed	3b f4		 cmp	 esi, esp
  032ef	e8 00 00 00 00	 call	 __RTC_CheckEsp
  032f4	c6 45 fc 01	 mov	 BYTE PTR __$EHRec$[ebp+8], 1
  032f8	8b f4		 mov	 esi, esp
  032fa	8d 45 d0	 lea	 eax, DWORD PTR $T195090[ebp]
  032fd	50		 push	 eax
  032fe	8d 4d b4	 lea	 ecx, DWORD PTR $T195091[ebp]
  03301	51		 push	 ecx
  03302	ff 15 00 00 00
	00		 call	 DWORD PTR __imp_?LogUserActMsg@@YAXABV?$basic_string@DU?$char_traits@D@std@@V?$allocator@D@2@@std@@0@Z
  03308	83 c4 08	 add	 esp, 8
  0330b	3b f4		 cmp	 esi, esp
  0330d	e8 00 00 00 00	 call	 __RTC_CheckEsp
  03312	c6 45 fc 00	 mov	 BYTE PTR __$EHRec$[ebp+8], 0
  03316	8b f4		 mov	 esi, esp
  03318	8d 4d b4	 lea	 ecx, DWORD PTR $T195091[ebp]
  0331b	ff 15 00 00 00
	00		 call	 DWORD PTR __imp_??1?$basic_string@DU?$char_traits@D@std@@V?$allocator@D@2@@std@@QAE@XZ
  03321	3b f4		 cmp	 esi, esp
  03323	e8 00 00 00 00	 call	 __RTC_CheckEsp
  03328	c7 45 fc ff ff
	ff ff		 mov	 DWORD PTR __$EHRec$[ebp+8], -1
  0332f	8b f4		 mov	 esi, esp
  03331	8d 4d d0	 lea	 ecx, DWORD PTR $T195090[ebp]
  03334	ff 15 00 00 00
	00		 call	 DWORD PTR __imp_??1?$basic_string@DU?$char_traits@D@std@@V?$allocator@D@2@@std@@QAE@XZ
  0333a	3b f4		 cmp	 esi, esp
  0333c	e8 00 00 00 00	 call	 __RTC_CheckEsp

; 662  : LeaveCriticalSection( &m_csDownInfo );

  03341	8b 55 f0	 mov	 edx, DWORD PTR _this$[ebp]
  03344	83 c2 68	 add	 edx, 104		; 00000068H
  03347	8b f4		 mov	 esi, esp
  03349	52		 push	 edx
  0334a	ff 15 00 00 00
	00		 call	 DWORD PTR __imp__LeaveCriticalSection@4
  03350	3b f4		 cmp	 esi, esp
  03352	e8 00 00 00 00	 call	 __RTC_CheckEsp
$L192423:

; 663  : 
; 664  : }

  03357	8b 4d f4	 mov	 ecx, DWORD PTR __$EHRec$[ebp]
  0335a	64 89 0d 00 00
	00 00		 mov	 DWORD PTR fs:__except_list, ecx
  03361	5f		 pop	 edi
  03362	5e		 pop	 esi
  03363	83 c4 50	 add	 esp, 80			; 00000050H
  03366	3b ec		 cmp	 ebp, esp
  03368	e8 00 00 00 00	 call	 __RTC_CheckEsp
  0336d	8b e5		 mov	 esp, ebp
  0336f	5d		 pop	 ebp
  03370	c2 0c 00	 ret	 12			; 0000000cH
_TEXT	ENDS
text$x	SEGMENT
$L195093:
  00610	8b f4		 mov	 esi, esp
  00612	8d 4d d0	 lea	 ecx, DWORD PTR $T195090[ebp]
  00615	ff 15 00 00 00
	00		 call	 DWORD PTR __imp_??1?$basic_string@DU?$char_traits@D@std@@V?$allocator@D@2@@std@@QAE@XZ
  0061b	3b f4		 cmp	 esi, esp
  0061d	e9 00 00 00 00	 jmp	 __RTC_CheckEsp
$L195094:
  00622	8b f4		 mov	 esi, esp
  00624	8d 4d b4	 lea	 ecx, DWORD PTR $T195091[ebp]
  00627	ff 15 00 00 00
	00		 call	 DWORD PTR __imp_??1?$basic_string@DU?$char_traits@D@std@@V?$allocator@D@2@@std@@QAE@XZ
  0062d	3b f4		 cmp	 esi, esp
  0062f	e9 00 00 00 00	 jmp	 __RTC_CheckEsp
__ehhandler$?P2POb_DownStart@CSkinMgrV1@@QAEXABUSign@@PBDI@Z:
  00634	b8 00 00 00 00	 mov	 eax, OFFSET FLAT:$T195096
  00639	e9 00 00 00 00	 jmp	 ___CxxFrameHandler
text$x	ENDS
?P2POb_DownStart@CSkinMgrV1@@QAEXABUSign@@PBDI@Z ENDP	; CSkinMgrV1::P2POb_DownStart
PUBLIC	?P2POb_DownFinish@CSkinMgrV1@@QAEXABUSign@@@Z	; CSkinMgrV1::P2POb_DownFinish
PUBLIC	??1?$vector@V?$basic_string@DU?$char_traits@D@std@@V?$allocator@D@2@@std@@V?$allocator@V?$basic_string@DU?$char_traits@D@std@@V?$allocator@D@2@@std@@@2@@std@@QAE@XZ ; std::vector<std::basic_string<char,std::char_traits<char>,std::allocator<char> >,std::allocator<std::basic_string<char,std::char_traits<char>,std::allocator<char> > > >::~vector<std::basic_string<char,std::char_traits<char>,std::allocator<char> >,std::allocator<std::basic_string<char,std::char_traits<char>,std::allocator<char> > > >
PUBLIC	??0?$vector@V?$basic_string@DU?$char_traits@D@std@@V?$allocator@D@2@@std@@V?$allocator@V?$basic_string@DU?$char_traits@D@std@@V?$allocator@D@2@@std@@@2@@std@@QAE@XZ ; std::vector<std::basic_string<char,std::char_traits<char>,std::allocator<char> >,std::allocator<std::basic_string<char,std::char_traits<char>,std::allocator<char> > > >::vector<std::basic_string<char,std::char_traits<char>,std::allocator<char> >,std::allocator<std::basic_string<char,std::char_traits<char>,std::allocator<char> > > >
EXTRN	__imp__SendMessageA@16:NEAR
EXTRN	__imp_?UnCompress@YL_CFileZip@@SA_NABV?$basic_string@DU?$char_traits@D@std@@V?$allocator@D@2@@std@@0AAV?$vector@V?$basic_string@DU?$char_traits@D@std@@V?$allocator@D@2@@std@@V?$allocator@V?$basic_string@DU?$char_traits@D@std@@V?$allocator@D@2@@std@@@2@@3@_NV23@@Z:NEAR
EXTRN	?AfxGetApp@@YGPAVCWinApp@@XZ:NEAR		; AfxGetApp
EXTRN	__imp_?YL_Log@@YAXABV?$basic_string@DU?$char_traits@D@std@@V?$allocator@D@2@@std@@H0PBDZZ:NEAR
xdata$x	SEGMENT
$T195129 DD	0ffffffffH
	DD	FLAT:$L195111
	DD	00H
	DD	FLAT:$L195112
	DD	0ffffffffH
	DD	FLAT:$L195115
	DD	02H
	DD	FLAT:$L195116
	DD	0ffffffffH
	DD	FLAT:$L195117
	DD	04H
	DD	FLAT:$L195118
	DD	05H
	DD	FLAT:$L195119
$T195122 DD	019930520H
	DD	07H
	DD	FLAT:$T195129
	DD	2 DUP(00H)
	DD	2 DUP(00H)
; Function compile flags: /Odt /RTCsu
xdata$x	ENDS
_TEXT	SEGMENT
tv242 = -761						; size = 1
tv241 = -760						; size = 4
tv234 = -756						; size = 4
tv232 = -752						; size = 4
$T195110 = -748						; size = 28
$T195109 = -720						; size = 28
$T195108 = -692						; size = 4
$T195107 = -685						; size = 1
$T195106 = -684						; size = 28
$T195105 = -656						; size = 28
$T195104 = -628						; size = 4
$T195103 = -624						; size = 4
$T195102 = -620						; size = 28
$T195101 = -592						; size = 28
_vec$192645 = -560					; size = 16
_szbuffer$192449 = -536					; size = 512
_this$ = -20						; size = 4
__$ArrayPad$ = -16					; size = 4
__$EHRec$ = -12						; size = 12
__$ReturnAddr$ = 4					; size = 4
_sign$ = 8						; size = 4
?P2POb_DownFinish@CSkinMgrV1@@QAEXABUSign@@@Z PROC NEAR	; CSkinMgrV1::P2POb_DownFinish
; _this$ = ecx

; 666  : {

  03380	55		 push	 ebp
  03381	8b ec		 mov	 ebp, esp
  03383	6a ff		 push	 -1
  03385	68 00 00 00 00	 push	 __ehhandler$?P2POb_DownFinish@CSkinMgrV1@@QAEXABUSign@@@Z
  0338a	64 a1 00 00 00
	00		 mov	 eax, DWORD PTR fs:__except_list
  03390	50		 push	 eax
  03391	64 89 25 00 00
	00 00		 mov	 DWORD PTR fs:__except_list, esp
  03398	81 ec f0 02 00
	00		 sub	 esp, 752		; 000002f0H
  0339e	56		 push	 esi
  0339f	57		 push	 edi
  033a0	51		 push	 ecx
  033a1	8d bd 04 fd ff
	ff		 lea	 edi, DWORD PTR [ebp-764]
  033a7	b9 bc 00 00 00	 mov	 ecx, 188		; 000000bcH
  033ac	b8 cc cc cc cc	 mov	 eax, -858993460		; ccccccccH
  033b1	f3 ab		 rep stosd
  033b3	59		 pop	 ecx
  033b4	a1 00 00 00 00	 mov	 eax, DWORD PTR ___security_cookie
  033b9	89 45 f0	 mov	 DWORD PTR __$ArrayPad$[ebp], eax
  033bc	89 4d ec	 mov	 DWORD PTR _this$[ebp], ecx

; 667  : EnterCriticalSection( &m_csDownInfo );

  033bf	8b 45 ec	 mov	 eax, DWORD PTR _this$[ebp]
  033c2	83 c0 68	 add	 eax, 104		; 00000068H
  033c5	8b f4		 mov	 esi, esp
  033c7	50		 push	 eax
  033c8	ff 15 00 00 00
	00		 call	 DWORD PTR __imp__EnterCriticalSection@4
  033ce	3b f4		 cmp	 esi, esp
  033d0	e8 00 00 00 00	 call	 __RTC_CheckEsp

; 668  : 	YL_Log("downskin.txt",LOG_DEBUG,"DownStart"," %u,%u",sign.sign1,sign.sign2 );	

  033d5	8b f4		 mov	 esi, esp
  033d7	68 00 00 00 00	 push	 OFFSET FLAT:$SG192438
  033dc	8d 8d b0 fd ff
	ff		 lea	 ecx, DWORD PTR $T195101[ebp]
  033e2	ff 15 00 00 00
	00		 call	 DWORD PTR __imp_??0?$basic_string@DU?$char_traits@D@std@@V?$allocator@D@2@@std@@QAE@PBD@Z
  033e8	3b f4		 cmp	 esi, esp
  033ea	e8 00 00 00 00	 call	 __RTC_CheckEsp
  033ef	c7 45 fc 00 00
	00 00		 mov	 DWORD PTR __$EHRec$[ebp+8], 0
  033f6	8b f4		 mov	 esi, esp
  033f8	68 00 00 00 00	 push	 OFFSET FLAT:$SG192439
  033fd	8d 8d 94 fd ff
	ff		 lea	 ecx, DWORD PTR $T195102[ebp]
  03403	ff 15 00 00 00
	00		 call	 DWORD PTR __imp_??0?$basic_string@DU?$char_traits@D@std@@V?$allocator@D@2@@std@@QAE@PBD@Z
  03409	3b f4		 cmp	 esi, esp
  0340b	e8 00 00 00 00	 call	 __RTC_CheckEsp
  03410	c6 45 fc 01	 mov	 BYTE PTR __$EHRec$[ebp+8], 1
  03414	8b f4		 mov	 esi, esp
  03416	8b 4d 08	 mov	 ecx, DWORD PTR _sign$[ebp]
  03419	8b 51 04	 mov	 edx, DWORD PTR [ecx+4]
  0341c	52		 push	 edx
  0341d	8b 45 08	 mov	 eax, DWORD PTR _sign$[ebp]
  03420	8b 08		 mov	 ecx, DWORD PTR [eax]
  03422	51		 push	 ecx
  03423	68 00 00 00 00	 push	 OFFSET FLAT:$SG192437
  03428	8d 95 b0 fd ff
	ff		 lea	 edx, DWORD PTR $T195101[ebp]
  0342e	52		 push	 edx
  0342f	6a 00		 push	 0
  03431	8d 85 94 fd ff
	ff		 lea	 eax, DWORD PTR $T195102[ebp]
  03437	50		 push	 eax
  03438	ff 15 00 00 00
	00		 call	 DWORD PTR __imp_?YL_Log@@YAXABV?$basic_string@DU?$char_traits@D@std@@V?$allocator@D@2@@std@@H0PBDZZ
  0343e	83 c4 18	 add	 esp, 24			; 00000018H
  03441	3b f4		 cmp	 esi, esp
  03443	e8 00 00 00 00	 call	 __RTC_CheckEsp
  03448	c6 45 fc 00	 mov	 BYTE PTR __$EHRec$[ebp+8], 0
  0344c	8b f4		 mov	 esi, esp
  0344e	8d 8d 94 fd ff
	ff		 lea	 ecx, DWORD PTR $T195102[ebp]
  03454	ff 15 00 00 00
	00		 call	 DWORD PTR __imp_??1?$basic_string@DU?$char_traits@D@std@@V?$allocator@D@2@@std@@QAE@XZ
  0345a	3b f4		 cmp	 esi, esp
  0345c	e8 00 00 00 00	 call	 __RTC_CheckEsp
  03461	c7 45 fc ff ff
	ff ff		 mov	 DWORD PTR __$EHRec$[ebp+8], -1
  03468	8b f4		 mov	 esi, esp
  0346a	8d 8d b0 fd ff
	ff		 lea	 ecx, DWORD PTR $T195101[ebp]
  03470	ff 15 00 00 00
	00		 call	 DWORD PTR __imp_??1?$basic_string@DU?$char_traits@D@std@@V?$allocator@D@2@@std@@QAE@XZ
  03476	3b f4		 cmp	 esi, esp
  03478	e8 00 00 00 00	 call	 __RTC_CheckEsp

; 669  : 
; 670  : 	mb_isDownSkin = false;

  0347d	8b 4d ec	 mov	 ecx, DWORD PTR _this$[ebp]
  03480	c6 41 49 00	 mov	 BYTE PTR [ecx+73], 0

; 671  : 
; 672  : 	if( mb_HasPopWnd )

  03484	8b 55 ec	 mov	 edx, DWORD PTR _this$[ebp]
  03487	0f b6 42 48	 movzx	 eax, BYTE PTR [edx+72]
  0348b	85 c0		 test	 eax, eax
  0348d	0f 84 0e 01 00
	00		 je	 $L192440

; 673  : 	{
; 674  : 		SetDownloadPercentage(100, m_strDownSkin);

  03493	8b 4d ec	 mov	 ecx, DWORD PTR _this$[ebp]
  03496	83 c1 58	 add	 ecx, 88			; 00000058H
  03499	51		 push	 ecx
  0349a	8b d4		 mov	 edx, esp
  0349c	89 a5 90 fd ff
	ff		 mov	 DWORD PTR $T195103[ebp], esp
  034a2	8b f4		 mov	 esi, esp
  034a4	51		 push	 ecx
  034a5	8b ca		 mov	 ecx, edx
  034a7	ff 15 00 00 00
	00		 call	 DWORD PTR __imp_??0?$CStringT@DV?$StrTraitMFC_DLL@DV?$ChTraitsCRT@D@ATL@@@@@ATL@@QAE@ABV01@@Z
  034ad	3b f4		 cmp	 esi, esp
  034af	e8 00 00 00 00	 call	 __RTC_CheckEsp
  034b4	89 85 10 fd ff
	ff		 mov	 DWORD PTR tv232[ebp], eax
  034ba	6a 64		 push	 100			; 00000064H
  034bc	8b 45 ec	 mov	 eax, DWORD PTR _this$[ebp]
  034bf	8b 10		 mov	 edx, DWORD PTR [eax]
  034c1	8b 4d ec	 mov	 ecx, DWORD PTR _this$[ebp]
  034c4	ff 52 50	 call	 DWORD PTR [edx+80]

; 675  : 		DownloadFinish(m_strDownSkin);	

  034c7	8b 45 ec	 mov	 eax, DWORD PTR _this$[ebp]
  034ca	83 c0 58	 add	 eax, 88			; 00000058H
  034cd	51		 push	 ecx
  034ce	8b cc		 mov	 ecx, esp
  034d0	89 a5 8c fd ff
	ff		 mov	 DWORD PTR $T195104[ebp], esp
  034d6	8b f4		 mov	 esi, esp
  034d8	50		 push	 eax
  034d9	ff 15 00 00 00
	00		 call	 DWORD PTR __imp_??0?$CStringT@DV?$StrTraitMFC_DLL@DV?$ChTraitsCRT@D@ATL@@@@@ATL@@QAE@ABV01@@Z
  034df	3b f4		 cmp	 esi, esp
  034e1	e8 00 00 00 00	 call	 __RTC_CheckEsp
  034e6	89 85 0c fd ff
	ff		 mov	 DWORD PTR tv234[ebp], eax
  034ec	8b 4d ec	 mov	 ecx, DWORD PTR _this$[ebp]
  034ef	8b 11		 mov	 edx, DWORD PTR [ecx]
  034f1	8b 4d ec	 mov	 ecx, DWORD PTR _this$[ebp]
  034f4	ff 52 54	 call	 DWORD PTR [edx+84]

; 676  : 		if(mp_skinWnd != NULL)

  034f7	8b 45 ec	 mov	 eax, DWORD PTR _this$[ebp]
  034fa	83 78 14 00	 cmp	 DWORD PTR [eax+20], 0
  034fe	74 0d		 je	 SHORT $L192443

; 677  : 			mp_skinWnd->SetUseTip(true);

  03500	6a 01		 push	 1
  03502	8b 4d ec	 mov	 ecx, DWORD PTR _this$[ebp]
  03505	8b 49 14	 mov	 ecx, DWORD PTR [ecx+20]
  03508	e8 00 00 00 00	 call	 ?SetUseTip@CSkinWnd@@QAEX_N@Z ; CSkinWnd::SetUseTip
$L192443:

; 678  : 		LogUserActMsg( "HANDLE_SKIN", "S:DOWN_FINISHE" );

  0350d	8b f4		 mov	 esi, esp
  0350f	68 00 00 00 00	 push	 OFFSET FLAT:$SG192446
  03514	8d 8d 70 fd ff
	ff		 lea	 ecx, DWORD PTR $T195105[ebp]
  0351a	ff 15 00 00 00
	00		 call	 DWORD PTR __imp_??0?$basic_string@DU?$char_traits@D@std@@V?$allocator@D@2@@std@@QAE@PBD@Z
  03520	3b f4		 cmp	 esi, esp
  03522	e8 00 00 00 00	 call	 __RTC_CheckEsp
  03527	c7 45 fc 02 00
	00 00		 mov	 DWORD PTR __$EHRec$[ebp+8], 2
  0352e	8b f4		 mov	 esi, esp
  03530	68 00 00 00 00	 push	 OFFSET FLAT:$SG192447
  03535	8d 8d 54 fd ff
	ff		 lea	 ecx, DWORD PTR $T195106[ebp]
  0353b	ff 15 00 00 00
	00		 call	 DWORD PTR __imp_??0?$basic_string@DU?$char_traits@D@std@@V?$allocator@D@2@@std@@QAE@PBD@Z
  03541	3b f4		 cmp	 esi, esp
  03543	e8 00 00 00 00	 call	 __RTC_CheckEsp
  03548	c6 45 fc 03	 mov	 BYTE PTR __$EHRec$[ebp+8], 3
  0354c	8b f4		 mov	 esi, esp
  0354e	8d 95 70 fd ff
	ff		 lea	 edx, DWORD PTR $T195105[ebp]
  03554	52		 push	 edx
  03555	8d 85 54 fd ff
	ff		 lea	 eax, DWORD PTR $T195106[ebp]
  0355b	50		 push	 eax
  0355c	ff 15 00 00 00
	00		 call	 DWORD PTR __imp_?LogUserActMsg@@YAXABV?$basic_string@DU?$char_traits@D@std@@V?$allocator@D@2@@std@@0@Z
  03562	83 c4 08	 add	 esp, 8
  03565	3b f4		 cmp	 esi, esp
  03567	e8 00 00 00 00	 call	 __RTC_CheckEsp
  0356c	c6 45 fc 02	 mov	 BYTE PTR __$EHRec$[ebp+8], 2
  03570	8b f4		 mov	 esi, esp
  03572	8d 8d 54 fd ff
	ff		 lea	 ecx, DWORD PTR $T195106[ebp]
  03578	ff 15 00 00 00
	00		 call	 DWORD PTR __imp_??1?$basic_string@DU?$char_traits@D@std@@V?$allocator@D@2@@std@@QAE@XZ
  0357e	3b f4		 cmp	 esi, esp
  03580	e8 00 00 00 00	 call	 __RTC_CheckEsp
  03585	c7 45 fc ff ff
	ff ff		 mov	 DWORD PTR __$EHRec$[ebp+8], -1
  0358c	8b f4		 mov	 esi, esp
  0358e	8d 8d 70 fd ff
	ff		 lea	 ecx, DWORD PTR $T195105[ebp]
  03594	ff 15 00 00 00
	00		 call	 DWORD PTR __imp_??1?$basic_string@DU?$char_traits@D@std@@V?$allocator@D@2@@std@@QAE@XZ
  0359a	3b f4		 cmp	 esi, esp
  0359c	e8 00 00 00 00	 call	 __RTC_CheckEsp
$L192440:

; 679  : 	}
; 680  : 
; 681  : 	if( mp_changeSkinEven.size() > 0 )

  035a1	8b 4d ec	 mov	 ecx, DWORD PTR _this$[ebp]
  035a4	83 c1 38	 add	 ecx, 56			; 00000038H
  035a7	e8 00 00 00 00	 call	 ?size@?$vector@PAVIChangeSkinEventListener@@V?$allocator@PAVIChangeSkinEventListener@@@std@@@std@@QBEIXZ ; std::vector<IChangeSkinEventListener *,std::allocator<IChangeSkinEventListener *> >::size
  035ac	85 c0		 test	 eax, eax
  035ae	0f 86 7c 01 00
	00		 jbe	 $L192448

; 682  : 	{
; 683  : 		char szbuffer[512];
; 684  : 		CLhcImg::GetHomePath(szbuffer,512);

  035b4	68 00 02 00 00	 push	 512			; 00000200H
  035b9	8d 8d e8 fd ff
	ff		 lea	 ecx, DWORD PTR _szbuffer$192449[ebp]
  035bf	51		 push	 ecx
  035c0	e8 00 00 00 00	 call	 ?GetHomePath@CLhcImg@@SA_NQADH@Z ; CLhcImg::GetHomePath
  035c5	83 c4 08	 add	 esp, 8

; 685  : 		strcat(szbuffer,"\\skin\\");

  035c8	68 00 00 00 00	 push	 OFFSET FLAT:$SG192450
  035cd	8d 95 e8 fd ff
	ff		 lea	 edx, DWORD PTR _szbuffer$192449[ebp]
  035d3	52		 push	 edx
  035d4	e8 00 00 00 00	 call	 _strcat
  035d9	83 c4 08	 add	 esp, 8

; 686  : 
; 687  : 		vector<string> vec;

  035dc	8d 8d d0 fd ff
	ff		 lea	 ecx, DWORD PTR _vec$192645[ebp]
  035e2	e8 00 00 00 00	 call	 ??0?$vector@V?$basic_string@DU?$char_traits@D@std@@V?$allocator@D@2@@std@@V?$allocator@V?$basic_string@DU?$char_traits@D@std@@V?$allocator@D@2@@std@@@2@@std@@QAE@XZ ; std::vector<std::basic_string<char,std::char_traits<char>,std::allocator<char> >,std::allocator<std::basic_string<char,std::char_traits<char>,std::allocator<char> > > >::vector<std::basic_string<char,std::char_traits<char>,std::allocator<char> >,std::allocator<std::basic_string<char,std::char_traits<char>,std::allocator<char> > > >
  035e7	c7 45 fc 04 00
	00 00		 mov	 DWORD PTR __$EHRec$[ebp+8], 4

; 688  : 		if( YL_CFileZip::UnCompress( (LPCTSTR)m_strDownPath, szbuffer,vec,true) )

  035ee	8b f4		 mov	 esi, esp
  035f0	8d 85 e8 fd ff
	ff		 lea	 eax, DWORD PTR _szbuffer$192449[ebp]
  035f6	50		 push	 eax
  035f7	8d 8d 30 fd ff
	ff		 lea	 ecx, DWORD PTR $T195109[ebp]
  035fd	ff 15 00 00 00
	00		 call	 DWORD PTR __imp_??0?$basic_string@DU?$char_traits@D@std@@V?$allocator@D@2@@std@@QAE@PBD@Z
  03603	3b f4		 cmp	 esi, esp
  03605	e8 00 00 00 00	 call	 __RTC_CheckEsp
  0360a	c6 45 fc 05	 mov	 BYTE PTR __$EHRec$[ebp+8], 5
  0360e	8b 4d ec	 mov	 ecx, DWORD PTR _this$[ebp]
  03611	83 c1 5c	 add	 ecx, 92			; 0000005cH
  03614	8b f4		 mov	 esi, esp
  03616	ff 15 00 00 00
	00		 call	 DWORD PTR __imp_??B?$CSimpleStringT@D$00@ATL@@QBEPBDXZ
  0361c	3b f4		 cmp	 esi, esp
  0361e	e8 00 00 00 00	 call	 __RTC_CheckEsp
  03623	8b f4		 mov	 esi, esp
  03625	50		 push	 eax
  03626	8d 8d 14 fd ff
	ff		 lea	 ecx, DWORD PTR $T195110[ebp]
  0362c	ff 15 00 00 00
	00		 call	 DWORD PTR __imp_??0?$basic_string@DU?$char_traits@D@std@@V?$allocator@D@2@@std@@QAE@PBD@Z
  03632	3b f4		 cmp	 esi, esp
  03634	e8 00 00 00 00	 call	 __RTC_CheckEsp
  03639	c6 45 fc 06	 mov	 BYTE PTR __$EHRec$[ebp+8], 6
  0363d	83 ec 1c	 sub	 esp, 28			; 0000001cH
  03640	8b cc		 mov	 ecx, esp
  03642	89 a5 4c fd ff
	ff		 mov	 DWORD PTR $T195108[ebp], esp
  03648	8b f4		 mov	 esi, esp
  0364a	68 00 00 00 00	 push	 OFFSET FLAT:$SG192652
  0364f	ff 15 00 00 00
	00		 call	 DWORD PTR __imp_??0?$basic_string@DU?$char_traits@D@std@@V?$allocator@D@2@@std@@QAE@PBD@Z
  03655	3b f4		 cmp	 esi, esp
  03657	e8 00 00 00 00	 call	 __RTC_CheckEsp
  0365c	89 85 08 fd ff
	ff		 mov	 DWORD PTR tv241[ebp], eax
  03662	6a 01		 push	 1
  03664	8d 8d d0 fd ff
	ff		 lea	 ecx, DWORD PTR _vec$192645[ebp]
  0366a	51		 push	 ecx
  0366b	8d 95 30 fd ff
	ff		 lea	 edx, DWORD PTR $T195109[ebp]
  03671	52		 push	 edx
  03672	8d 85 14 fd ff
	ff		 lea	 eax, DWORD PTR $T195110[ebp]
  03678	50		 push	 eax
  03679	ff 15 00 00 00
	00		 call	 DWORD PTR __imp_?UnCompress@YL_CFileZip@@SA_NABV?$basic_string@DU?$char_traits@D@std@@V?$allocator@D@2@@std@@0AAV?$vector@V?$basic_string@DU?$char_traits@D@std@@V?$allocator@D@2@@std@@V?$allocator@V?$basic_string@DU?$char_traits@D@std@@V?$allocator@D@2@@std@@@2@@3@_NV23@@Z
  0367f	83 c4 2c	 add	 esp, 44			; 0000002cH
  03682	88 85 07 fd ff
	ff		 mov	 BYTE PTR tv242[ebp], al
  03688	8a 8d 07 fd ff
	ff		 mov	 cl, BYTE PTR tv242[ebp]
  0368e	88 8d 53 fd ff
	ff		 mov	 BYTE PTR $T195107[ebp], cl
  03694	c6 45 fc 05	 mov	 BYTE PTR __$EHRec$[ebp+8], 5
  03698	8b f4		 mov	 esi, esp
  0369a	8d 8d 14 fd ff
	ff		 lea	 ecx, DWORD PTR $T195110[ebp]
  036a0	ff 15 00 00 00
	00		 call	 DWORD PTR __imp_??1?$basic_string@DU?$char_traits@D@std@@V?$allocator@D@2@@std@@QAE@XZ
  036a6	3b f4		 cmp	 esi, esp
  036a8	e8 00 00 00 00	 call	 __RTC_CheckEsp
  036ad	c6 45 fc 04	 mov	 BYTE PTR __$EHRec$[ebp+8], 4
  036b1	8b f4		 mov	 esi, esp
  036b3	8d 8d 30 fd ff
	ff		 lea	 ecx, DWORD PTR $T195109[ebp]
  036b9	ff 15 00 00 00
	00		 call	 DWORD PTR __imp_??1?$basic_string@DU?$char_traits@D@std@@V?$allocator@D@2@@std@@QAE@XZ
  036bf	3b f4		 cmp	 esi, esp
  036c1	e8 00 00 00 00	 call	 __RTC_CheckEsp
  036c6	0f b6 95 53 fd
	ff ff		 movzx	 edx, BYTE PTR $T195107[ebp]
  036cd	85 d2		 test	 edx, edx
  036cf	74 4d		 je	 SHORT $L192650

; 689  : 		{
; 690  : 			m_BaseColor = 0;

  036d1	8b 45 ec	 mov	 eax, DWORD PTR _this$[ebp]
  036d4	c7 40 28 00 00
	00 00		 mov	 DWORD PTR [eax+40], 0

; 691  : 			if( mb_HasPopWnd )

  036db	8b 4d ec	 mov	 ecx, DWORD PTR _this$[ebp]
  036de	0f b6 51 48	 movzx	 edx, BYTE PTR [ecx+72]
  036e2	85 d2		 test	 edx, edx
  036e4	74 38		 je	 SHORT $L192650

; 692  : 				::SendMessage(::AfxGetApp()->m_pMainWnd->m_hWnd, WM_SKIN_DOWNLOAD_FINISHED, (WPARAM)(LPCTSTR)m_strDownSkin, 0);

  036e6	8b f4		 mov	 esi, esp
  036e8	6a 00		 push	 0
  036ea	8b 4d ec	 mov	 ecx, DWORD PTR _this$[ebp]
  036ed	83 c1 58	 add	 ecx, 88			; 00000058H
  036f0	8b fc		 mov	 edi, esp
  036f2	ff 15 00 00 00
	00		 call	 DWORD PTR __imp_??B?$CSimpleStringT@D$00@ATL@@QBEPBDXZ
  036f8	3b fc		 cmp	 edi, esp
  036fa	e8 00 00 00 00	 call	 __RTC_CheckEsp
  036ff	50		 push	 eax
  03700	68 18 0d 00 00	 push	 3352			; 00000d18H
  03705	e8 00 00 00 00	 call	 ?AfxGetApp@@YGPAVCWinApp@@XZ ; AfxGetApp
  0370a	8b 40 20	 mov	 eax, DWORD PTR [eax+32]
  0370d	8b 48 20	 mov	 ecx, DWORD PTR [eax+32]
  03710	51		 push	 ecx
  03711	ff 15 00 00 00
	00		 call	 DWORD PTR __imp__SendMessageA@16
  03717	3b f4		 cmp	 esi, esp
  03719	e8 00 00 00 00	 call	 __RTC_CheckEsp
$L192650:

; 693  : 		}
; 694  : 	}

  0371e	c7 45 fc ff ff
	ff ff		 mov	 DWORD PTR __$EHRec$[ebp+8], -1
  03725	8d 8d d0 fd ff
	ff		 lea	 ecx, DWORD PTR _vec$192645[ebp]
  0372b	e8 00 00 00 00	 call	 ??1?$vector@V?$basic_string@DU?$char_traits@D@std@@V?$allocator@D@2@@std@@V?$allocator@V?$basic_string@DU?$char_traits@D@std@@V?$allocator@D@2@@std@@@2@@std@@QAE@XZ ; std::vector<std::basic_string<char,std::char_traits<char>,std::allocator<char> >,std::allocator<std::basic_string<char,std::char_traits<char>,std::allocator<char> > > >::~vector<std::basic_string<char,std::char_traits<char>,std::allocator<char> >,std::allocator<std::basic_string<char,std::char_traits<char>,std::allocator<char> > > >
$L192448:

; 695  : 
; 696  : 	
; 697  : LeaveCriticalSection( &m_csDownInfo );

  03730	8b 55 ec	 mov	 edx, DWORD PTR _this$[ebp]
  03733	83 c2 68	 add	 edx, 104		; 00000068H
  03736	8b f4		 mov	 esi, esp
  03738	52		 push	 edx
  03739	ff 15 00 00 00
	00		 call	 DWORD PTR __imp__LeaveCriticalSection@4
  0373f	3b f4		 cmp	 esi, esp
  03741	e8 00 00 00 00	 call	 __RTC_CheckEsp

; 698  : }

  03746	52		 push	 edx
  03747	8b cd		 mov	 ecx, ebp
  03749	50		 push	 eax
  0374a	8d 15 00 00 00
	00		 lea	 edx, DWORD PTR $L195128
  03750	e8 00 00 00 00	 call	 @_RTC_CheckStackVars@8
  03755	58		 pop	 eax
  03756	5a		 pop	 edx
  03757	8b 4d f4	 mov	 ecx, DWORD PTR __$EHRec$[ebp]
  0375a	64 89 0d 00 00
	00 00		 mov	 DWORD PTR fs:__except_list, ecx
  03761	8b 4d f0	 mov	 ecx, DWORD PTR __$ArrayPad$[ebp]
  03764	e8 00 00 00 00	 call	 @__security_check_cookie@4
  03769	5f		 pop	 edi
  0376a	5e		 pop	 esi
  0376b	81 c4 fc 02 00
	00		 add	 esp, 764		; 000002fcH
  03771	3b ec		 cmp	 ebp, esp
  03773	e8 00 00 00 00	 call	 __RTC_CheckEsp
  03778	8b e5		 mov	 esp, ebp
  0377a	5d		 pop	 ebp
  0377b	c2 04 00	 ret	 4
$L195128:
  0377e	02 00 00 00	 DD	 2
  03782	00 00 00 00	 DD	 $L195127
$L195127:
  03786	e8 fd ff ff	 DD	 -536			; fffffde8H
  0378a	00 02 00 00	 DD	 512			; 00000200H
  0378e	00 00 00 00	 DD	 $L195123
  03792	d0 fd ff ff	 DD	 -560			; fffffdd0H
  03796	10 00 00 00	 DD	 16			; 00000010H
  0379a	00 00 00 00	 DD	 $L195124
$L195124:
  0379e	76		 DB	 118			; 00000076H
  0379f	65		 DB	 101			; 00000065H
  037a0	63		 DB	 99			; 00000063H
  037a1	00		 DB	 0
$L195123:
  037a2	73		 DB	 115			; 00000073H
  037a3	7a		 DB	 122			; 0000007aH
  037a4	62		 DB	 98			; 00000062H
  037a5	75		 DB	 117			; 00000075H
  037a6	66		 DB	 102			; 00000066H
  037a7	66		 DB	 102			; 00000066H
  037a8	65		 DB	 101			; 00000065H
  037a9	72		 DB	 114			; 00000072H
  037aa	00		 DB	 0
_TEXT	ENDS
text$x	SEGMENT
$L195111:
  0063e	8b f4		 mov	 esi, esp
  00640	8d 8d b0 fd ff
	ff		 lea	 ecx, DWORD PTR $T195101[ebp]
  00646	ff 15 00 00 00
	00		 call	 DWORD PTR __imp_??1?$basic_string@DU?$char_traits@D@std@@V?$allocator@D@2@@std@@QAE@XZ
  0064c	3b f4		 cmp	 esi, esp
  0064e	e9 00 00 00 00	 jmp	 __RTC_CheckEsp
$L195112:
  00653	8b f4		 mov	 esi, esp
  00655	8d 8d 94 fd ff
	ff		 lea	 ecx, DWORD PTR $T195102[ebp]
  0065b	ff 15 00 00 00
	00		 call	 DWORD PTR __imp_??1?$basic_string@DU?$char_traits@D@std@@V?$allocator@D@2@@std@@QAE@XZ
  00661	3b f4		 cmp	 esi, esp
  00663	e9 00 00 00 00	 jmp	 __RTC_CheckEsp
$L195115:
  00668	8b f4		 mov	 esi, esp
  0066a	8d 8d 70 fd ff
	ff		 lea	 ecx, DWORD PTR $T195105[ebp]
  00670	ff 15 00 00 00
	00		 call	 DWORD PTR __imp_??1?$basic_string@DU?$char_traits@D@std@@V?$allocator@D@2@@std@@QAE@XZ
  00676	3b f4		 cmp	 esi, esp
  00678	e9 00 00 00 00	 jmp	 __RTC_CheckEsp
$L195116:
  0067d	8b f4		 mov	 esi, esp
  0067f	8d 8d 54 fd ff
	ff		 lea	 ecx, DWORD PTR $T195106[ebp]
  00685	ff 15 00 00 00
	00		 call	 DWORD PTR __imp_??1?$basic_string@DU?$char_traits@D@std@@V?$allocator@D@2@@std@@QAE@XZ
  0068b	3b f4		 cmp	 esi, esp
  0068d	e9 00 00 00 00	 jmp	 __RTC_CheckEsp
$L195117:
  00692	8d 8d d0 fd ff
	ff		 lea	 ecx, DWORD PTR _vec$192645[ebp]
  00698	e9 00 00 00 00	 jmp	 ??1?$vector@V?$basic_string@DU?$char_traits@D@std@@V?$allocator@D@2@@std@@V?$allocator@V?$basic_string@DU?$char_traits@D@std@@V?$allocator@D@2@@std@@@2@@std@@QAE@XZ ; std::vector<std::basic_string<char,std::char_traits<char>,std::allocator<char> >,std::allocator<std::basic_string<char,std::char_traits<char>,std::allocator<char> > > >::~vector<std::basic_string<char,std::char_traits<char>,std::allocator<char> >,std::allocator<std::basic_string<char,std::char_traits<char>,std::allocator<char> > > >
$L195118:
  0069d	8b f4		 mov	 esi, esp
  0069f	8d 8d 30 fd ff
	ff		 lea	 ecx, DWORD PTR $T195109[ebp]
  006a5	ff 15 00 00 00
	00		 call	 DWORD PTR __imp_??1?$basic_string@DU?$char_traits@D@std@@V?$allocator@D@2@@std@@QAE@XZ
  006ab	3b f4		 cmp	 esi, esp
  006ad	e9 00 00 00 00	 jmp	 __RTC_CheckEsp
$L195119:
  006b2	8b f4		 mov	 esi, esp
  006b4	8d 8d 14 fd ff
	ff		 lea	 ecx, DWORD PTR $T195110[ebp]
  006ba	ff 15 00 00 00
	00		 call	 DWORD PTR __imp_??1?$basic_string@DU?$char_traits@D@std@@V?$allocator@D@2@@std@@QAE@XZ
  006c0	3b f4		 cmp	 esi, esp
  006c2	e9 00 00 00 00	 jmp	 __RTC_CheckEsp
__ehhandler$?P2POb_DownFinish@CSkinMgrV1@@QAEXABUSign@@@Z:
  006c7	b8 00 00 00 00	 mov	 eax, OFFSET FLAT:$T195122
  006cc	e9 00 00 00 00	 jmp	 ___CxxFrameHandler
text$x	ENDS
?P2POb_DownFinish@CSkinMgrV1@@QAEXABUSign@@@Z ENDP	; CSkinMgrV1::P2POb_DownFinish
PUBLIC	?P2POb_DownFailed@CSkinMgrV1@@QAEXABUSign@@W4P2P_DOWN_FAILED_REASON@@@Z ; CSkinMgrV1::P2POb_DownFailed
EXTRN	__imp__PostMessageA@16:NEAR
EXTRN	?UpdateWindow@CWnd@@QAEXXZ:NEAR			; CWnd::UpdateWindow
xdata$x	SEGMENT
$T195142 DD	0ffffffffH
	DD	FLAT:$L195135
	DD	00H
	DD	FLAT:$L195136
	DD	0ffffffffH
	DD	FLAT:$L195137
	DD	02H
	DD	FLAT:$L195138
$T195140 DD	019930520H
	DD	04H
	DD	FLAT:$T195142
	DD	2 DUP(00H)
	DD	2 DUP(00H)
; Function compile flags: /Odt /RTCsu
xdata$x	ENDS
_TEXT	SEGMENT
$T195134 = -128						; size = 28
$T195133 = -100						; size = 28
$T195132 = -72						; size = 28
$T195131 = -44						; size = 28
_this$ = -16						; size = 4
__$EHRec$ = -12						; size = 12
_sign$ = 8						; size = 4
_pdfr$ = 12						; size = 4
?P2POb_DownFailed@CSkinMgrV1@@QAEXABUSign@@W4P2P_DOWN_FAILED_REASON@@@Z PROC NEAR ; CSkinMgrV1::P2POb_DownFailed
; _this$ = ecx

; 700  : {

  037b0	55		 push	 ebp
  037b1	8b ec		 mov	 ebp, esp
  037b3	6a ff		 push	 -1
  037b5	68 00 00 00 00	 push	 __ehhandler$?P2POb_DownFailed@CSkinMgrV1@@QAEXABUSign@@W4P2P_DOWN_FAILED_REASON@@@Z
  037ba	64 a1 00 00 00
	00		 mov	 eax, DWORD PTR fs:__except_list
  037c0	50		 push	 eax
  037c1	64 89 25 00 00
	00 00		 mov	 DWORD PTR fs:__except_list, esp
  037c8	83 ec 74	 sub	 esp, 116		; 00000074H
  037cb	56		 push	 esi
  037cc	57		 push	 edi
  037cd	51		 push	 ecx
  037ce	8d 7d 80	 lea	 edi, DWORD PTR [ebp-128]
  037d1	b9 1d 00 00 00	 mov	 ecx, 29			; 0000001dH
  037d6	b8 cc cc cc cc	 mov	 eax, -858993460		; ccccccccH
  037db	f3 ab		 rep stosd
  037dd	59		 pop	 ecx
  037de	89 4d f0	 mov	 DWORD PTR _this$[ebp], ecx

; 701  : EnterCriticalSection( &m_csDownInfo );

  037e1	8b 45 f0	 mov	 eax, DWORD PTR _this$[ebp]
  037e4	83 c0 68	 add	 eax, 104		; 00000068H
  037e7	8b f4		 mov	 esi, esp
  037e9	50		 push	 eax
  037ea	ff 15 00 00 00
	00		 call	 DWORD PTR __imp__EnterCriticalSection@4
  037f0	3b f4		 cmp	 esi, esp
  037f2	e8 00 00 00 00	 call	 __RTC_CheckEsp

; 702  : 	YL_Log("downskin.txt",LOG_DEBUG,"DownStart"," %u,%u",sign.sign1,sign.sign2 );

  037f7	8b f4		 mov	 esi, esp
  037f9	68 00 00 00 00	 push	 OFFSET FLAT:$SG192664
  037fe	8d 4d d4	 lea	 ecx, DWORD PTR $T195131[ebp]
  03801	ff 15 00 00 00
	00		 call	 DWORD PTR __imp_??0?$basic_string@DU?$char_traits@D@std@@V?$allocator@D@2@@std@@QAE@PBD@Z
  03807	3b f4		 cmp	 esi, esp
  03809	e8 00 00 00 00	 call	 __RTC_CheckEsp
  0380e	c7 45 fc 00 00
	00 00		 mov	 DWORD PTR __$EHRec$[ebp+8], 0
  03815	8b f4		 mov	 esi, esp
  03817	68 00 00 00 00	 push	 OFFSET FLAT:$SG192665
  0381c	8d 4d b8	 lea	 ecx, DWORD PTR $T195132[ebp]
  0381f	ff 15 00 00 00
	00		 call	 DWORD PTR __imp_??0?$basic_string@DU?$char_traits@D@std@@V?$allocator@D@2@@std@@QAE@PBD@Z
  03825	3b f4		 cmp	 esi, esp
  03827	e8 00 00 00 00	 call	 __RTC_CheckEsp
  0382c	c6 45 fc 01	 mov	 BYTE PTR __$EHRec$[ebp+8], 1
  03830	8b f4		 mov	 esi, esp
  03832	8b 4d 08	 mov	 ecx, DWORD PTR _sign$[ebp]
  03835	8b 51 04	 mov	 edx, DWORD PTR [ecx+4]
  03838	52		 push	 edx
  03839	8b 45 08	 mov	 eax, DWORD PTR _sign$[ebp]
  0383c	8b 08		 mov	 ecx, DWORD PTR [eax]
  0383e	51		 push	 ecx
  0383f	68 00 00 00 00	 push	 OFFSET FLAT:$SG192663
  03844	8d 55 d4	 lea	 edx, DWORD PTR $T195131[ebp]
  03847	52		 push	 edx
  03848	6a 00		 push	 0
  0384a	8d 45 b8	 lea	 eax, DWORD PTR $T195132[ebp]
  0384d	50		 push	 eax
  0384e	ff 15 00 00 00
	00		 call	 DWORD PTR __imp_?YL_Log@@YAXABV?$basic_string@DU?$char_traits@D@std@@V?$allocator@D@2@@std@@H0PBDZZ
  03854	83 c4 18	 add	 esp, 24			; 00000018H
  03857	3b f4		 cmp	 esi, esp
  03859	e8 00 00 00 00	 call	 __RTC_CheckEsp
  0385e	c6 45 fc 00	 mov	 BYTE PTR __$EHRec$[ebp+8], 0
  03862	8b f4		 mov	 esi, esp
  03864	8d 4d b8	 lea	 ecx, DWORD PTR $T195132[ebp]
  03867	ff 15 00 00 00
	00		 call	 DWORD PTR __imp_??1?$basic_string@DU?$char_traits@D@std@@V?$allocator@D@2@@std@@QAE@XZ
  0386d	3b f4		 cmp	 esi, esp
  0386f	e8 00 00 00 00	 call	 __RTC_CheckEsp
  03874	c7 45 fc ff ff
	ff ff		 mov	 DWORD PTR __$EHRec$[ebp+8], -1
  0387b	8b f4		 mov	 esi, esp
  0387d	8d 4d d4	 lea	 ecx, DWORD PTR $T195131[ebp]
  03880	ff 15 00 00 00
	00		 call	 DWORD PTR __imp_??1?$basic_string@DU?$char_traits@D@std@@V?$allocator@D@2@@std@@QAE@XZ
  03886	3b f4		 cmp	 esi, esp
  03888	e8 00 00 00 00	 call	 __RTC_CheckEsp

; 703  : 
; 704  : 	if(!mb_HasPopWnd || mp_skinWnd == NULL || !::IsWindow(mp_skinWnd->m_hWnd))

  0388d	8b 4d f0	 mov	 ecx, DWORD PTR _this$[ebp]
  03890	0f b6 51 48	 movzx	 edx, BYTE PTR [ecx+72]
  03894	85 d2		 test	 edx, edx
  03896	74 26		 je	 SHORT $L192667
  03898	8b 45 f0	 mov	 eax, DWORD PTR _this$[ebp]
  0389b	83 78 14 00	 cmp	 DWORD PTR [eax+20], 0
  0389f	74 1d		 je	 SHORT $L192667
  038a1	8b 4d f0	 mov	 ecx, DWORD PTR _this$[ebp]
  038a4	8b 51 14	 mov	 edx, DWORD PTR [ecx+20]
  038a7	8b f4		 mov	 esi, esp
  038a9	8b 42 20	 mov	 eax, DWORD PTR [edx+32]
  038ac	50		 push	 eax
  038ad	ff 15 00 00 00
	00		 call	 DWORD PTR __imp__IsWindow@4
  038b3	3b f4		 cmp	 esi, esp
  038b5	e8 00 00 00 00	 call	 __RTC_CheckEsp
  038ba	85 c0		 test	 eax, eax
  038bc	75 1b		 jne	 SHORT $L192666
$L192667:

; 705  : 	{
; 706  : 		LeaveCriticalSection( &m_csDownInfo );

  038be	8b 4d f0	 mov	 ecx, DWORD PTR _this$[ebp]
  038c1	83 c1 68	 add	 ecx, 104		; 00000068H
  038c4	8b f4		 mov	 esi, esp
  038c6	51		 push	 ecx
  038c7	ff 15 00 00 00
	00		 call	 DWORD PTR __imp__LeaveCriticalSection@4
  038cd	3b f4		 cmp	 esi, esp
  038cf	e8 00 00 00 00	 call	 __RTC_CheckEsp

; 707  : 		return;

  038d4	e9 1f 01 00 00	 jmp	 $L192660
$L192666:

; 708  : 	}
; 709  : 	::PostMessage(mp_skinWnd->m_hWnd, WM_SKIN_DOWNLOAD_FAILED, 0, 0);

  038d9	8b f4		 mov	 esi, esp
  038db	6a 00		 push	 0
  038dd	6a 00		 push	 0
  038df	68 19 0d 00 00	 push	 3353			; 00000d19H
  038e4	8b 55 f0	 mov	 edx, DWORD PTR _this$[ebp]
  038e7	8b 42 14	 mov	 eax, DWORD PTR [edx+20]
  038ea	8b 48 20	 mov	 ecx, DWORD PTR [eax+32]
  038ed	51		 push	 ecx
  038ee	ff 15 00 00 00
	00		 call	 DWORD PTR __imp__PostMessageA@16
  038f4	3b f4		 cmp	 esi, esp
  038f6	e8 00 00 00 00	 call	 __RTC_CheckEsp

; 710  : 	//MessageBox(mp_skinWnd->m_hWnd, "!", "", MB_OK);
; 711  : 	mb_isDownSkin = false;

  038fb	8b 55 f0	 mov	 edx, DWORD PTR _this$[ebp]
  038fe	c6 42 49 00	 mov	 BYTE PTR [edx+73], 0

; 712  : 	if(mp_skinWnd != NULL)

  03902	8b 45 f0	 mov	 eax, DWORD PTR _this$[ebp]
  03905	83 78 14 00	 cmp	 DWORD PTR [eax+20], 0
  03909	74 1a		 je	 SHORT $L192668

; 713  : 	{
; 714  : 		mp_skinWnd->SetUseTip(true);

  0390b	6a 01		 push	 1
  0390d	8b 4d f0	 mov	 ecx, DWORD PTR _this$[ebp]
  03910	8b 49 14	 mov	 ecx, DWORD PTR [ecx+20]
  03913	e8 00 00 00 00	 call	 ?SetUseTip@CSkinWnd@@QAEX_N@Z ; CSkinWnd::SetUseTip

; 715  : 		mp_skinWnd->EnableSkinBtn( TRUE );

  03918	6a 01		 push	 1
  0391a	8b 55 f0	 mov	 edx, DWORD PTR _this$[ebp]
  0391d	8b 4a 14	 mov	 ecx, DWORD PTR [edx+20]
  03920	e8 00 00 00 00	 call	 ?EnableSkinBtn@CSkinWnd@@QAEXH@Z ; CSkinWnd::EnableSkinBtn
$L192668:

; 716  : 	}
; 717  : 	if( mp_downloadSkin != NULL )

  03925	8b 45 f0	 mov	 eax, DWORD PTR _this$[ebp]
  03928	83 78 20 00	 cmp	 DWORD PTR [eax+32], 0
  0392c	74 0d		 je	 SHORT $L192669

; 718  : 		mp_downloadSkin->ShowWindow( SW_HIDE );

  0392e	6a 00		 push	 0
  03930	8b 4d f0	 mov	 ecx, DWORD PTR _this$[ebp]
  03933	8b 49 20	 mov	 ecx, DWORD PTR [ecx+32]
  03936	e8 00 00 00 00	 call	 ?ShowWindow@CWnd@@QAEHH@Z ; CWnd::ShowWindow
$L192669:

; 719  : 	mp_mainSkinWnd->ShowColorBtn( TRUE );

  0393b	6a 01		 push	 1
  0393d	8b 55 f0	 mov	 edx, DWORD PTR _this$[ebp]
  03940	8b 4a 10	 mov	 ecx, DWORD PTR [edx+16]
  03943	e8 00 00 00 00	 call	 ?ShowColorBtn@CMainSkinWnd@@QAEXH@Z ; CMainSkinWnd::ShowColorBtn

; 720  : 	mp_mainSkinWnd->Invalidate();

  03948	6a 01		 push	 1
  0394a	8b 45 f0	 mov	 eax, DWORD PTR _this$[ebp]
  0394d	8b 48 10	 mov	 ecx, DWORD PTR [eax+16]
  03950	e8 00 00 00 00	 call	 ?Invalidate@CWnd@@QAEXH@Z ; CWnd::Invalidate

; 721  : 	mp_mainSkinWnd->UpdateWindow();

  03955	8b 4d f0	 mov	 ecx, DWORD PTR _this$[ebp]
  03958	8b 49 10	 mov	 ecx, DWORD PTR [ecx+16]
  0395b	e8 00 00 00 00	 call	 ?UpdateWindow@CWnd@@QAEXXZ ; CWnd::UpdateWindow

; 722  : 
; 723  : 	LogUserActMsg( "HANDLE_SKIN", "S:DOWN_FAILED" );

  03960	8b f4		 mov	 esi, esp
  03962	68 00 00 00 00	 push	 OFFSET FLAT:$SG192672
  03967	8d 4d 9c	 lea	 ecx, DWORD PTR $T195133[ebp]
  0396a	ff 15 00 00 00
	00		 call	 DWORD PTR __imp_??0?$basic_string@DU?$char_traits@D@std@@V?$allocator@D@2@@std@@QAE@PBD@Z
  03970	3b f4		 cmp	 esi, esp
  03972	e8 00 00 00 00	 call	 __RTC_CheckEsp
  03977	c7 45 fc 02 00
	00 00		 mov	 DWORD PTR __$EHRec$[ebp+8], 2
  0397e	8b f4		 mov	 esi, esp
  03980	68 00 00 00 00	 push	 OFFSET FLAT:$SG192673
  03985	8d 4d 80	 lea	 ecx, DWORD PTR $T195134[ebp]
  03988	ff 15 00 00 00
	00		 call	 DWORD PTR __imp_??0?$basic_string@DU?$char_traits@D@std@@V?$allocator@D@2@@std@@QAE@PBD@Z
  0398e	3b f4		 cmp	 esi, esp
  03990	e8 00 00 00 00	 call	 __RTC_CheckEsp
  03995	c6 45 fc 03	 mov	 BYTE PTR __$EHRec$[ebp+8], 3
  03999	8b f4		 mov	 esi, esp
  0399b	8d 55 9c	 lea	 edx, DWORD PTR $T195133[ebp]
  0399e	52		 push	 edx
  0399f	8d 45 80	 lea	 eax, DWORD PTR $T195134[ebp]
  039a2	50		 push	 eax
  039a3	ff 15 00 00 00
	00		 call	 DWORD PTR __imp_?LogUserActMsg@@YAXABV?$basic_string@DU?$char_traits@D@std@@V?$allocator@D@2@@std@@0@Z
  039a9	83 c4 08	 add	 esp, 8
  039ac	3b f4		 cmp	 esi, esp
  039ae	e8 00 00 00 00	 call	 __RTC_CheckEsp
  039b3	c6 45 fc 02	 mov	 BYTE PTR __$EHRec$[ebp+8], 2
  039b7	8b f4		 mov	 esi, esp
  039b9	8d 4d 80	 lea	 ecx, DWORD PTR $T195134[ebp]
  039bc	ff 15 00 00 00
	00		 call	 DWORD PTR __imp_??1?$basic_string@DU?$char_traits@D@std@@V?$allocator@D@2@@std@@QAE@XZ
  039c2	3b f4		 cmp	 esi, esp
  039c4	e8 00 00 00 00	 call	 __RTC_CheckEsp
  039c9	c7 45 fc ff ff
	ff ff		 mov	 DWORD PTR __$EHRec$[ebp+8], -1
  039d0	8b f4		 mov	 esi, esp
  039d2	8d 4d 9c	 lea	 ecx, DWORD PTR $T195133[ebp]
  039d5	ff 15 00 00 00
	00		 call	 DWORD PTR __imp_??1?$basic_string@DU?$char_traits@D@std@@V?$allocator@D@2@@std@@QAE@XZ
  039db	3b f4		 cmp	 esi, esp
  039dd	e8 00 00 00 00	 call	 __RTC_CheckEsp

; 724  : 
; 725  : LeaveCriticalSection( &m_csDownInfo );

  039e2	8b 4d f0	 mov	 ecx, DWORD PTR _this$[ebp]
  039e5	83 c1 68	 add	 ecx, 104		; 00000068H
  039e8	8b f4		 mov	 esi, esp
  039ea	51		 push	 ecx
  039eb	ff 15 00 00 00
	00		 call	 DWORD PTR __imp__LeaveCriticalSection@4
  039f1	3b f4		 cmp	 esi, esp
  039f3	e8 00 00 00 00	 call	 __RTC_CheckEsp
$L192660:

; 726  : }

  039f8	8b 4d f4	 mov	 ecx, DWORD PTR __$EHRec$[ebp]
  039fb	64 89 0d 00 00
	00 00		 mov	 DWORD PTR fs:__except_list, ecx
  03a02	5f		 pop	 edi
  03a03	5e		 pop	 esi
  03a04	81 c4 80 00 00
	00		 add	 esp, 128		; 00000080H
  03a0a	3b ec		 cmp	 ebp, esp
  03a0c	e8 00 00 00 00	 call	 __RTC_CheckEsp
  03a11	8b e5		 mov	 esp, ebp
  03a13	5d		 pop	 ebp
  03a14	c2 08 00	 ret	 8
_TEXT	ENDS
text$x	SEGMENT
$L195135:
  006d1	8b f4		 mov	 esi, esp
  006d3	8d 4d d4	 lea	 ecx, DWORD PTR $T195131[ebp]
  006d6	ff 15 00 00 00
	00		 call	 DWORD PTR __imp_??1?$basic_string@DU?$char_traits@D@std@@V?$allocator@D@2@@std@@QAE@XZ
  006dc	3b f4		 cmp	 esi, esp
  006de	e9 00 00 00 00	 jmp	 __RTC_CheckEsp
$L195136:
  006e3	8b f4		 mov	 esi, esp
  006e5	8d 4d b8	 lea	 ecx, DWORD PTR $T195132[ebp]
  006e8	ff 15 00 00 00
	00		 call	 DWORD PTR __imp_??1?$basic_string@DU?$char_traits@D@std@@V?$allocator@D@2@@std@@QAE@XZ
  006ee	3b f4		 cmp	 esi, esp
  006f0	e9 00 00 00 00	 jmp	 __RTC_CheckEsp
$L195137:
  006f5	8b f4		 mov	 esi, esp
  006f7	8d 4d 9c	 lea	 ecx, DWORD PTR $T195133[ebp]
  006fa	ff 15 00 00 00
	00		 call	 DWORD PTR __imp_??1?$basic_string@DU?$char_traits@D@std@@V?$allocator@D@2@@std@@QAE@XZ
  00700	3b f4		 cmp	 esi, esp
  00702	e9 00 00 00 00	 jmp	 __RTC_CheckEsp
$L195138:
  00707	8b f4		 mov	 esi, esp
  00709	8d 4d 80	 lea	 ecx, DWORD PTR $T195134[ebp]
  0070c	ff 15 00 00 00
	00		 call	 DWORD PTR __imp_??1?$basic_string@DU?$char_traits@D@std@@V?$allocator@D@2@@std@@QAE@XZ
  00712	3b f4		 cmp	 esi, esp
  00714	e9 00 00 00 00	 jmp	 __RTC_CheckEsp
__ehhandler$?P2POb_DownFailed@CSkinMgrV1@@QAEXABUSign@@W4P2P_DOWN_FAILED_REASON@@@Z:
  00719	b8 00 00 00 00	 mov	 eax, OFFSET FLAT:$T195140
  0071e	e9 00 00 00 00	 jmp	 ___CxxFrameHandler
text$x	ENDS
?P2POb_DownFailed@CSkinMgrV1@@QAEXABUSign@@W4P2P_DOWN_FAILED_REASON@@@Z ENDP ; CSkinMgrV1::P2POb_DownFailed
PUBLIC	?P2POb_DownProgress@CSkinMgrV1@@QAEXABUSign@@III@Z ; CSkinMgrV1::P2POb_DownProgress
xdata$x	SEGMENT
$T195153 DD	0ffffffffH
	DD	FLAT:$L195147
	DD	00H
	DD	FLAT:$L195148
$T195151 DD	019930520H
	DD	02H
	DD	FLAT:$T195153
	DD	2 DUP(00H)
	DD	2 DUP(00H)
; Function compile flags: /Odt /RTCsu
xdata$x	ENDS
_TEXT	SEGMENT
tv143 = -80						; size = 4
$T195146 = -76						; size = 4
$T195145 = -72						; size = 28
$T195144 = -44						; size = 28
_this$ = -16						; size = 4
__$EHRec$ = -12						; size = 12
_sign$ = 8						; size = 4
_unContinue$ = 12					; size = 4
_unFinished$ = 16					; size = 4
_unSpeed$ = 20						; size = 4
?P2POb_DownProgress@CSkinMgrV1@@QAEXABUSign@@III@Z PROC NEAR ; CSkinMgrV1::P2POb_DownProgress
; _this$ = ecx

; 728  : {

  03a20	55		 push	 ebp
  03a21	8b ec		 mov	 ebp, esp
  03a23	6a ff		 push	 -1
  03a25	68 00 00 00 00	 push	 __ehhandler$?P2POb_DownProgress@CSkinMgrV1@@QAEXABUSign@@III@Z
  03a2a	64 a1 00 00 00
	00		 mov	 eax, DWORD PTR fs:__except_list
  03a30	50		 push	 eax
  03a31	64 89 25 00 00
	00 00		 mov	 DWORD PTR fs:__except_list, esp
  03a38	83 ec 44	 sub	 esp, 68			; 00000044H
  03a3b	56		 push	 esi
  03a3c	57		 push	 edi
  03a3d	51		 push	 ecx
  03a3e	8d 7d b0	 lea	 edi, DWORD PTR [ebp-80]
  03a41	b9 11 00 00 00	 mov	 ecx, 17			; 00000011H
  03a46	b8 cc cc cc cc	 mov	 eax, -858993460		; ccccccccH
  03a4b	f3 ab		 rep stosd
  03a4d	59		 pop	 ecx
  03a4e	89 4d f0	 mov	 DWORD PTR _this$[ebp], ecx

; 729  : EnterCriticalSection( &m_csDownInfo );

  03a51	8b 45 f0	 mov	 eax, DWORD PTR _this$[ebp]
  03a54	83 c0 68	 add	 eax, 104		; 00000068H
  03a57	8b f4		 mov	 esi, esp
  03a59	50		 push	 eax
  03a5a	ff 15 00 00 00
	00		 call	 DWORD PTR __imp__EnterCriticalSection@4
  03a60	3b f4		 cmp	 esi, esp
  03a62	e8 00 00 00 00	 call	 __RTC_CheckEsp

; 730  : 	if( !mb_HasPopWnd )

  03a67	8b 4d f0	 mov	 ecx, DWORD PTR _this$[ebp]
  03a6a	0f b6 51 48	 movzx	 edx, BYTE PTR [ecx+72]
  03a6e	85 d2		 test	 edx, edx
  03a70	75 1b		 jne	 SHORT $L192681

; 731  : 	{
; 732  : 		LeaveCriticalSection( &m_csDownInfo );

  03a72	8b 45 f0	 mov	 eax, DWORD PTR _this$[ebp]
  03a75	83 c0 68	 add	 eax, 104		; 00000068H
  03a78	8b f4		 mov	 esi, esp
  03a7a	50		 push	 eax
  03a7b	ff 15 00 00 00
	00		 call	 DWORD PTR __imp__LeaveCriticalSection@4
  03a81	3b f4		 cmp	 esi, esp
  03a83	e8 00 00 00 00	 call	 __RTC_CheckEsp

; 733  : 		return;

  03a88	e9 de 00 00 00	 jmp	 $L192680
$L192681:

; 734  : 	}
; 735  : 	YL_Log("downskin.txt",LOG_DEBUG,"DownStart"," %u,%u,%u",sign.sign1,sign.sign2,unFinished );

  03a8d	8b f4		 mov	 esi, esp
  03a8f	68 00 00 00 00	 push	 OFFSET FLAT:$SG192685
  03a94	8d 4d d4	 lea	 ecx, DWORD PTR $T195144[ebp]
  03a97	ff 15 00 00 00
	00		 call	 DWORD PTR __imp_??0?$basic_string@DU?$char_traits@D@std@@V?$allocator@D@2@@std@@QAE@PBD@Z
  03a9d	3b f4		 cmp	 esi, esp
  03a9f	e8 00 00 00 00	 call	 __RTC_CheckEsp
  03aa4	c7 45 fc 00 00
	00 00		 mov	 DWORD PTR __$EHRec$[ebp+8], 0
  03aab	8b f4		 mov	 esi, esp
  03aad	68 00 00 00 00	 push	 OFFSET FLAT:$SG192686
  03ab2	8d 4d b8	 lea	 ecx, DWORD PTR $T195145[ebp]
  03ab5	ff 15 00 00 00
	00		 call	 DWORD PTR __imp_??0?$basic_string@DU?$char_traits@D@std@@V?$allocator@D@2@@std@@QAE@PBD@Z
  03abb	3b f4		 cmp	 esi, esp
  03abd	e8 00 00 00 00	 call	 __RTC_CheckEsp
  03ac2	c6 45 fc 01	 mov	 BYTE PTR __$EHRec$[ebp+8], 1
  03ac6	8b f4		 mov	 esi, esp
  03ac8	8b 4d 10	 mov	 ecx, DWORD PTR _unFinished$[ebp]
  03acb	51		 push	 ecx
  03acc	8b 55 08	 mov	 edx, DWORD PTR _sign$[ebp]
  03acf	8b 42 04	 mov	 eax, DWORD PTR [edx+4]
  03ad2	50		 push	 eax
  03ad3	8b 4d 08	 mov	 ecx, DWORD PTR _sign$[ebp]
  03ad6	8b 11		 mov	 edx, DWORD PTR [ecx]
  03ad8	52		 push	 edx
  03ad9	68 00 00 00 00	 push	 OFFSET FLAT:$SG192684
  03ade	8d 45 d4	 lea	 eax, DWORD PTR $T195144[ebp]
  03ae1	50		 push	 eax
  03ae2	6a 00		 push	 0
  03ae4	8d 4d b8	 lea	 ecx, DWORD PTR $T195145[ebp]
  03ae7	51		 push	 ecx
  03ae8	ff 15 00 00 00
	00		 call	 DWORD PTR __imp_?YL_Log@@YAXABV?$basic_string@DU?$char_traits@D@std@@V?$allocator@D@2@@std@@H0PBDZZ
  03aee	83 c4 1c	 add	 esp, 28			; 0000001cH
  03af1	3b f4		 cmp	 esi, esp
  03af3	e8 00 00 00 00	 call	 __RTC_CheckEsp
  03af8	c6 45 fc 00	 mov	 BYTE PTR __$EHRec$[ebp+8], 0
  03afc	8b f4		 mov	 esi, esp
  03afe	8d 4d b8	 lea	 ecx, DWORD PTR $T195145[ebp]
  03b01	ff 15 00 00 00
	00		 call	 DWORD PTR __imp_??1?$basic_string@DU?$char_traits@D@std@@V?$allocator@D@2@@std@@QAE@XZ
  03b07	3b f4		 cmp	 esi, esp
  03b09	e8 00 00 00 00	 call	 __RTC_CheckEsp
  03b0e	c7 45 fc ff ff
	ff ff		 mov	 DWORD PTR __$EHRec$[ebp+8], -1
  03b15	8b f4		 mov	 esi, esp
  03b17	8d 4d d4	 lea	 ecx, DWORD PTR $T195144[ebp]
  03b1a	ff 15 00 00 00
	00		 call	 DWORD PTR __imp_??1?$basic_string@DU?$char_traits@D@std@@V?$allocator@D@2@@std@@QAE@XZ
  03b20	3b f4		 cmp	 esi, esp
  03b22	e8 00 00 00 00	 call	 __RTC_CheckEsp

; 736  : 	SetDownloadPercentage((UINT)unFinished, m_strDownSkin);

  03b27	8b 55 f0	 mov	 edx, DWORD PTR _this$[ebp]
  03b2a	83 c2 58	 add	 edx, 88			; 00000058H
  03b2d	51		 push	 ecx
  03b2e	8b cc		 mov	 ecx, esp
  03b30	89 65 b4	 mov	 DWORD PTR $T195146[ebp], esp
  03b33	8b f4		 mov	 esi, esp
  03b35	52		 push	 edx
  03b36	ff 15 00 00 00
	00		 call	 DWORD PTR __imp_??0?$CStringT@DV?$StrTraitMFC_DLL@DV?$ChTraitsCRT@D@ATL@@@@@ATL@@QAE@ABV01@@Z
  03b3c	3b f4		 cmp	 esi, esp
  03b3e	e8 00 00 00 00	 call	 __RTC_CheckEsp
  03b43	89 45 b0	 mov	 DWORD PTR tv143[ebp], eax
  03b46	8b 45 10	 mov	 eax, DWORD PTR _unFinished$[ebp]
  03b49	50		 push	 eax
  03b4a	8b 4d f0	 mov	 ecx, DWORD PTR _this$[ebp]
  03b4d	8b 11		 mov	 edx, DWORD PTR [ecx]
  03b4f	8b 4d f0	 mov	 ecx, DWORD PTR _this$[ebp]
  03b52	ff 52 50	 call	 DWORD PTR [edx+80]

; 737  : LeaveCriticalSection( &m_csDownInfo );

  03b55	8b 45 f0	 mov	 eax, DWORD PTR _this$[ebp]
  03b58	83 c0 68	 add	 eax, 104		; 00000068H
  03b5b	8b f4		 mov	 esi, esp
  03b5d	50		 push	 eax
  03b5e	ff 15 00 00 00
	00		 call	 DWORD PTR __imp__LeaveCriticalSection@4
  03b64	3b f4		 cmp	 esi, esp
  03b66	e8 00 00 00 00	 call	 __RTC_CheckEsp
$L192680:

; 738  : }

  03b6b	8b 4d f4	 mov	 ecx, DWORD PTR __$EHRec$[ebp]
  03b6e	64 89 0d 00 00
	00 00		 mov	 DWORD PTR fs:__except_list, ecx
  03b75	5f		 pop	 edi
  03b76	5e		 pop	 esi
  03b77	83 c4 50	 add	 esp, 80			; 00000050H
  03b7a	3b ec		 cmp	 ebp, esp
  03b7c	e8 00 00 00 00	 call	 __RTC_CheckEsp
  03b81	8b e5		 mov	 esp, ebp
  03b83	5d		 pop	 ebp
  03b84	c2 10 00	 ret	 16			; 00000010H
_TEXT	ENDS
text$x	SEGMENT
$L195147:
  00723	8b f4		 mov	 esi, esp
  00725	8d 4d d4	 lea	 ecx, DWORD PTR $T195144[ebp]
  00728	ff 15 00 00 00
	00		 call	 DWORD PTR __imp_??1?$basic_string@DU?$char_traits@D@std@@V?$allocator@D@2@@std@@QAE@XZ
  0072e	3b f4		 cmp	 esi, esp
  00730	e9 00 00 00 00	 jmp	 __RTC_CheckEsp
$L195148:
  00735	8b f4		 mov	 esi, esp
  00737	8d 4d b8	 lea	 ecx, DWORD PTR $T195145[ebp]
  0073a	ff 15 00 00 00
	00		 call	 DWORD PTR __imp_??1?$basic_string@DU?$char_traits@D@std@@V?$allocator@D@2@@std@@QAE@XZ
  00740	3b f4		 cmp	 esi, esp
  00742	e9 00 00 00 00	 jmp	 __RTC_CheckEsp
__ehhandler$?P2POb_DownProgress@CSkinMgrV1@@QAEXABUSign@@III@Z:
  00747	b8 00 00 00 00	 mov	 eax, OFFSET FLAT:$T195151
  0074c	e9 00 00 00 00	 jmp	 ___CxxFrameHandler
text$x	ENDS
?P2POb_DownProgress@CSkinMgrV1@@QAEXABUSign@@III@Z ENDP	; CSkinMgrV1::P2POb_DownProgress
EXTRN	?GetInstance@CIrregularBorderMgr@@SAPAV1@XZ:NEAR ; CIrregularBorderMgr::GetInstance
EXTRN	?InitTransDlg@CIrregularBorderMgr@@QAEXH@Z:NEAR	; CIrregularBorderMgr::InitTransDlg
EXTRN	__imp_?Replace@?$CStringT@DV?$StrTraitMFC_DLL@DV?$ChTraitsCRT@D@ATL@@@@@ATL@@QAEHPBD0@Z:NEAR
xdata$x	SEGMENT
$T195168 DD	0ffffffffH
	DD	FLAT:$L195157
	DD	00H
	DD	FLAT:$L195158
	DD	01H
	DD	FLAT:$L195159
	DD	02H
	DD	FLAT:$L195160
	DD	03H
	DD	FLAT:$L195161
$T195163 DD	019930520H
	DD	05H
	DD	FLAT:$T195168
	DD	2 DUP(00H)
	DD	2 DUP(00H)
; Function compile flags: /Odt /RTCsu
xdata$x	ENDS
_TEXT	SEGMENT
tv134 = -92						; size = 4
tv143 = -88						; size = 4
$T195156 = -84						; size = 28
$T195155 = -56						; size = 28
_strLog$ = -24						; size = 4
_this$ = -16						; size = 4
__$EHRec$ = -12						; size = 12
___formal$ = 8						; size = 4
_subjectName$ = 12					; size = 4
?OnSendChangeSubject@CSkinMgrV1@@UAEXV?$CStringT@DV?$StrTraitMFC_DLL@DV?$ChTraitsCRT@D@ATL@@@@@ATL@@0@Z PROC NEAR ; CSkinMgrV1::OnSendChangeSubject
; _this$ = ecx

; 742  : {

  03b90	55		 push	 ebp
  03b91	8b ec		 mov	 ebp, esp
  03b93	6a ff		 push	 -1
  03b95	68 00 00 00 00	 push	 __ehhandler$?OnSendChangeSubject@CSkinMgrV1@@UAEXV?$CStringT@DV?$StrTraitMFC_DLL@DV?$ChTraitsCRT@D@ATL@@@@@ATL@@0@Z
  03b9a	64 a1 00 00 00
	00		 mov	 eax, DWORD PTR fs:__except_list
  03ba0	50		 push	 eax
  03ba1	64 89 25 00 00
	00 00		 mov	 DWORD PTR fs:__except_list, esp
  03ba8	83 ec 50	 sub	 esp, 80			; 00000050H
  03bab	56		 push	 esi
  03bac	57		 push	 edi
  03bad	51		 push	 ecx
  03bae	8d 7d a4	 lea	 edi, DWORD PTR [ebp-92]
  03bb1	b9 14 00 00 00	 mov	 ecx, 20			; 00000014H
  03bb6	b8 cc cc cc cc	 mov	 eax, -858993460		; ccccccccH
  03bbb	f3 ab		 rep stosd
  03bbd	59		 pop	 ecx
  03bbe	89 4d f0	 mov	 DWORD PTR _this$[ebp], ecx
  03bc1	c7 45 fc 01 00
	00 00		 mov	 DWORD PTR __$EHRec$[ebp+8], 1

; 743  : 	CString strLog;

  03bc8	8b f4		 mov	 esi, esp
  03bca	8d 4d e8	 lea	 ecx, DWORD PTR _strLog$[ebp]
  03bcd	ff 15 00 00 00
	00		 call	 DWORD PTR __imp_??0?$CStringT@DV?$StrTraitMFC_DLL@DV?$ChTraitsCRT@D@ATL@@@@@ATL@@QAE@XZ
  03bd3	3b f4		 cmp	 esi, esp
  03bd5	e8 00 00 00 00	 call	 __RTC_CheckEsp
  03bda	c6 45 fc 02	 mov	 BYTE PTR __$EHRec$[ebp+8], 2

; 744  : 	strLog.Format("Sub:%s",subjectName);

  03bde	8b f4		 mov	 esi, esp
  03be0	8b 45 0c	 mov	 eax, DWORD PTR _subjectName$[ebp]
  03be3	50		 push	 eax
  03be4	68 00 00 00 00	 push	 OFFSET FLAT:$SG192695
  03be9	8d 4d e8	 lea	 ecx, DWORD PTR _strLog$[ebp]
  03bec	51		 push	 ecx
  03bed	ff 15 00 00 00
	00		 call	 DWORD PTR __imp_?Format@?$CStringT@DV?$StrTraitMFC_DLL@DV?$ChTraitsCRT@D@ATL@@@@@ATL@@QAAXPBDZZ
  03bf3	83 c4 0c	 add	 esp, 12			; 0000000cH
  03bf6	3b f4		 cmp	 esi, esp
  03bf8	e8 00 00 00 00	 call	 __RTC_CheckEsp

; 745  : 	strLog.Replace("%","");

  03bfd	8b f4		 mov	 esi, esp
  03bff	68 00 00 00 00	 push	 OFFSET FLAT:$SG192696
  03c04	68 00 00 00 00	 push	 OFFSET FLAT:$SG192697
  03c09	8d 4d e8	 lea	 ecx, DWORD PTR _strLog$[ebp]
  03c0c	ff 15 00 00 00
	00		 call	 DWORD PTR __imp_?Replace@?$CStringT@DV?$StrTraitMFC_DLL@DV?$ChTraitsCRT@D@ATL@@@@@ATL@@QAEHPBD0@Z
  03c12	3b f4		 cmp	 esi, esp
  03c14	e8 00 00 00 00	 call	 __RTC_CheckEsp

; 746  : 	LogUserActMsg("ClickSub",string(strLog) );

  03c19	8b f4		 mov	 esi, esp
  03c1b	68 00 00 00 00	 push	 OFFSET FLAT:$SG192700
  03c20	8d 4d ac	 lea	 ecx, DWORD PTR $T195156[ebp]
  03c23	ff 15 00 00 00
	00		 call	 DWORD PTR __imp_??0?$basic_string@DU?$char_traits@D@std@@V?$allocator@D@2@@std@@QAE@PBD@Z
  03c29	3b f4		 cmp	 esi, esp
  03c2b	e8 00 00 00 00	 call	 __RTC_CheckEsp
  03c30	c6 45 fc 03	 mov	 BYTE PTR __$EHRec$[ebp+8], 3
  03c34	8b f4		 mov	 esi, esp
  03c36	8d 4d e8	 lea	 ecx, DWORD PTR _strLog$[ebp]
  03c39	ff 15 00 00 00
	00		 call	 DWORD PTR __imp_??B?$CSimpleStringT@D$00@ATL@@QBEPBDXZ
  03c3f	3b f4		 cmp	 esi, esp
  03c41	e8 00 00 00 00	 call	 __RTC_CheckEsp
  03c46	8b f4		 mov	 esi, esp
  03c48	50		 push	 eax
  03c49	8d 4d c8	 lea	 ecx, DWORD PTR $T195155[ebp]
  03c4c	ff 15 00 00 00
	00		 call	 DWORD PTR __imp_??0?$basic_string@DU?$char_traits@D@std@@V?$allocator@D@2@@std@@QAE@PBD@Z
  03c52	3b f4		 cmp	 esi, esp
  03c54	e8 00 00 00 00	 call	 __RTC_CheckEsp
  03c59	89 45 a8	 mov	 DWORD PTR tv143[ebp], eax
  03c5c	8b 55 a8	 mov	 edx, DWORD PTR tv143[ebp]
  03c5f	89 55 a4	 mov	 DWORD PTR tv134[ebp], edx
  03c62	c6 45 fc 04	 mov	 BYTE PTR __$EHRec$[ebp+8], 4
  03c66	8b f4		 mov	 esi, esp
  03c68	8b 45 a4	 mov	 eax, DWORD PTR tv134[ebp]
  03c6b	50		 push	 eax
  03c6c	8d 4d ac	 lea	 ecx, DWORD PTR $T195156[ebp]
  03c6f	51		 push	 ecx
  03c70	ff 15 00 00 00
	00		 call	 DWORD PTR __imp_?LogUserActMsg@@YAXABV?$basic_string@DU?$char_traits@D@std@@V?$allocator@D@2@@std@@0@Z
  03c76	83 c4 08	 add	 esp, 8
  03c79	3b f4		 cmp	 esi, esp
  03c7b	e8 00 00 00 00	 call	 __RTC_CheckEsp
  03c80	c6 45 fc 03	 mov	 BYTE PTR __$EHRec$[ebp+8], 3
  03c84	8b f4		 mov	 esi, esp
  03c86	8d 4d c8	 lea	 ecx, DWORD PTR $T195155[ebp]
  03c89	ff 15 00 00 00
	00		 call	 DWORD PTR __imp_??1?$basic_string@DU?$char_traits@D@std@@V?$allocator@D@2@@std@@QAE@XZ
  03c8f	3b f4		 cmp	 esi, esp
  03c91	e8 00 00 00 00	 call	 __RTC_CheckEsp
  03c96	c6 45 fc 02	 mov	 BYTE PTR __$EHRec$[ebp+8], 2
  03c9a	8b f4		 mov	 esi, esp
  03c9c	8d 4d ac	 lea	 ecx, DWORD PTR $T195156[ebp]
  03c9f	ff 15 00 00 00
	00		 call	 DWORD PTR __imp_??1?$basic_string@DU?$char_traits@D@std@@V?$allocator@D@2@@std@@QAE@XZ
  03ca5	3b f4		 cmp	 esi, esp
  03ca7	e8 00 00 00 00	 call	 __RTC_CheckEsp

; 747  : 
; 748  : 	NotifyChangeSubject( subjectName );

  03cac	8b f4		 mov	 esi, esp
  03cae	8d 55 0c	 lea	 edx, DWORD PTR _subjectName$[ebp]
  03cb1	52		 push	 edx
  03cb2	8b 4d f0	 mov	 ecx, DWORD PTR _this$[ebp]
  03cb5	83 e9 04	 sub	 ecx, 4
  03cb8	8b 45 f0	 mov	 eax, DWORD PTR _this$[ebp]
  03cbb	8b 50 fc	 mov	 edx, DWORD PTR [eax-4]
  03cbe	ff 52 58	 call	 DWORD PTR [edx+88]
  03cc1	3b f4		 cmp	 esi, esp
  03cc3	e8 00 00 00 00	 call	 __RTC_CheckEsp

; 749  : 
; 750  : 	CIrregularBorderMgr::GetInstance()->InitTransDlg(true);

  03cc8	6a 01		 push	 1
  03cca	e8 00 00 00 00	 call	 ?GetInstance@CIrregularBorderMgr@@SAPAV1@XZ ; CIrregularBorderMgr::GetInstance
  03ccf	8b c8		 mov	 ecx, eax
  03cd1	e8 00 00 00 00	 call	 ?InitTransDlg@CIrregularBorderMgr@@QAEXH@Z ; CIrregularBorderMgr::InitTransDlg

; 751  : }

  03cd6	c6 45 fc 01	 mov	 BYTE PTR __$EHRec$[ebp+8], 1
  03cda	8b f4		 mov	 esi, esp
  03cdc	8d 4d e8	 lea	 ecx, DWORD PTR _strLog$[ebp]
  03cdf	ff 15 00 00 00
	00		 call	 DWORD PTR __imp_??1?$CStringT@DV?$StrTraitMFC_DLL@DV?$ChTraitsCRT@D@ATL@@@@@ATL@@QAE@XZ
  03ce5	3b f4		 cmp	 esi, esp
  03ce7	e8 00 00 00 00	 call	 __RTC_CheckEsp
  03cec	c6 45 fc 00	 mov	 BYTE PTR __$EHRec$[ebp+8], 0
  03cf0	8b f4		 mov	 esi, esp
  03cf2	8d 4d 08	 lea	 ecx, DWORD PTR ___formal$[ebp]
  03cf5	ff 15 00 00 00
	00		 call	 DWORD PTR __imp_??1?$CStringT@DV?$StrTraitMFC_DLL@DV?$ChTraitsCRT@D@ATL@@@@@ATL@@QAE@XZ
  03cfb	3b f4		 cmp	 esi, esp
  03cfd	e8 00 00 00 00	 call	 __RTC_CheckEsp
  03d02	c7 45 fc ff ff
	ff ff		 mov	 DWORD PTR __$EHRec$[ebp+8], -1
  03d09	8b f4		 mov	 esi, esp
  03d0b	8d 4d 0c	 lea	 ecx, DWORD PTR _subjectName$[ebp]
  03d0e	ff 15 00 00 00
	00		 call	 DWORD PTR __imp_??1?$CStringT@DV?$StrTraitMFC_DLL@DV?$ChTraitsCRT@D@ATL@@@@@ATL@@QAE@XZ
  03d14	3b f4		 cmp	 esi, esp
  03d16	e8 00 00 00 00	 call	 __RTC_CheckEsp
  03d1b	52		 push	 edx
  03d1c	8b cd		 mov	 ecx, ebp
  03d1e	50		 push	 eax
  03d1f	8d 15 00 00 00
	00		 lea	 edx, DWORD PTR $L195167
  03d25	e8 00 00 00 00	 call	 @_RTC_CheckStackVars@8
  03d2a	58		 pop	 eax
  03d2b	5a		 pop	 edx
  03d2c	8b 4d f4	 mov	 ecx, DWORD PTR __$EHRec$[ebp]
  03d2f	64 89 0d 00 00
	00 00		 mov	 DWORD PTR fs:__except_list, ecx
  03d36	5f		 pop	 edi
  03d37	5e		 pop	 esi
  03d38	83 c4 5c	 add	 esp, 92			; 0000005cH
  03d3b	3b ec		 cmp	 ebp, esp
  03d3d	e8 00 00 00 00	 call	 __RTC_CheckEsp
  03d42	8b e5		 mov	 esp, ebp
  03d44	5d		 pop	 ebp
  03d45	c2 08 00	 ret	 8
$L195167:
  03d48	01 00 00 00	 DD	 1
  03d4c	00 00 00 00	 DD	 $L195166
$L195166:
  03d50	e8 ff ff ff	 DD	 -24			; ffffffe8H
  03d54	04 00 00 00	 DD	 4
  03d58	00 00 00 00	 DD	 $L195164
$L195164:
  03d5c	73		 DB	 115			; 00000073H
  03d5d	74		 DB	 116			; 00000074H
  03d5e	72		 DB	 114			; 00000072H
  03d5f	4c		 DB	 76			; 0000004cH
  03d60	6f		 DB	 111			; 0000006fH
  03d61	67		 DB	 103			; 00000067H
  03d62	00		 DB	 0
_TEXT	ENDS
text$x	SEGMENT
$L195157:
  00751	8b f4		 mov	 esi, esp
  00753	8d 4d 0c	 lea	 ecx, DWORD PTR _subjectName$[ebp]
  00756	ff 15 00 00 00
	00		 call	 DWORD PTR __imp_??1?$CStringT@DV?$StrTraitMFC_DLL@DV?$ChTraitsCRT@D@ATL@@@@@ATL@@QAE@XZ
  0075c	3b f4		 cmp	 esi, esp
  0075e	e9 00 00 00 00	 jmp	 __RTC_CheckEsp
$L195158:
  00763	8b f4		 mov	 esi, esp
  00765	8d 4d 08	 lea	 ecx, DWORD PTR ___formal$[ebp]
  00768	ff 15 00 00 00
	00		 call	 DWORD PTR __imp_??1?$CStringT@DV?$StrTraitMFC_DLL@DV?$ChTraitsCRT@D@ATL@@@@@ATL@@QAE@XZ
  0076e	3b f4		 cmp	 esi, esp
  00770	e9 00 00 00 00	 jmp	 __RTC_CheckEsp
$L195159:
  00775	8b f4		 mov	 esi, esp
  00777	8d 4d e8	 lea	 ecx, DWORD PTR _strLog$[ebp]
  0077a	ff 15 00 00 00
	00		 call	 DWORD PTR __imp_??1?$CStringT@DV?$StrTraitMFC_DLL@DV?$ChTraitsCRT@D@ATL@@@@@ATL@@QAE@XZ
  00780	3b f4		 cmp	 esi, esp
  00782	e9 00 00 00 00	 jmp	 __RTC_CheckEsp
$L195160:
  00787	8b f4		 mov	 esi, esp
  00789	8d 4d ac	 lea	 ecx, DWORD PTR $T195156[ebp]
  0078c	ff 15 00 00 00
	00		 call	 DWORD PTR __imp_??1?$basic_string@DU?$char_traits@D@std@@V?$allocator@D@2@@std@@QAE@XZ
  00792	3b f4		 cmp	 esi, esp
  00794	e9 00 00 00 00	 jmp	 __RTC_CheckEsp
$L195161:
  00799	8b f4		 mov	 esi, esp
  0079b	8d 4d c8	 lea	 ecx, DWORD PTR $T195155[ebp]
  0079e	ff 15 00 00 00
	00		 call	 DWORD PTR __imp_??1?$basic_string@DU?$char_traits@D@std@@V?$allocator@D@2@@std@@QAE@XZ
  007a4	3b f4		 cmp	 esi, esp
  007a6	e9 00 00 00 00	 jmp	 __RTC_CheckEsp
__ehhandler$?OnSendChangeSubject@CSkinMgrV1@@UAEXV?$CStringT@DV?$StrTraitMFC_DLL@DV?$ChTraitsCRT@D@ATL@@@@@ATL@@0@Z:
  007ab	b8 00 00 00 00	 mov	 eax, OFFSET FLAT:$T195163
  007b0	e9 00 00 00 00	 jmp	 ___CxxFrameHandler
text$x	ENDS
?OnSendChangeSubject@CSkinMgrV1@@UAEXV?$CStringT@DV?$StrTraitMFC_DLL@DV?$ChTraitsCRT@D@ATL@@@@@ATL@@0@Z ENDP ; CSkinMgrV1::OnSendChangeSubject
EXTRN	?OnChangeSubject@CSkinWnd@@QAEXXZ:NEAR		; CSkinWnd::OnChangeSubject
EXTRN	__imp_??4?$basic_string@DU?$char_traits@D@std@@V?$allocator@D@2@@std@@QAEAAV01@PBD@Z:NEAR
xdata$x	SEGMENT
$T195177 DD	0ffffffffH
	DD	FLAT:$L195172
	DD	0ffffffffH
	DD	FLAT:$L195173
$T195175 DD	019930520H
	DD	02H
	DD	FLAT:$T195177
	DD	2 DUP(00H)
	DD	2 DUP(00H)
; Function compile flags: /Odt /RTCsu
xdata$x	ENDS
_TEXT	SEGMENT
tv176 = -76						; size = 4
tv148 = -72						; size = 4
tv143 = -68						; size = 4
tv193 = -64						; size = 4
tv197 = -60						; size = 4
tv132 = -56						; size = 4
tv95 = -52						; size = 4
tv191 = -45						; size = 1
tv71 = -44						; size = 4
tv66 = -40						; size = 4
tv190 = -36						; size = 4
tv194 = -32						; size = 4
$T195171 = -28						; size = 4
$T195170 = -24						; size = 4
_idx$192709 = -20					; size = 4
_this$ = -16						; size = 4
__$EHRec$ = -12						; size = 12
_strSbName$ = 8						; size = 4
?NotifyChangeSubject@CSkinMgrV1@@UAEXABV?$CStringT@DV?$StrTraitMFC_DLL@DV?$ChTraitsCRT@D@ATL@@@@@ATL@@@Z PROC NEAR ; CSkinMgrV1::NotifyChangeSubject
; _this$ = ecx

; 754  : {	

  03d70	55		 push	 ebp
  03d71	8b ec		 mov	 ebp, esp
  03d73	6a ff		 push	 -1
  03d75	68 00 00 00 00	 push	 __ehhandler$?NotifyChangeSubject@CSkinMgrV1@@UAEXABV?$CStringT@DV?$StrTraitMFC_DLL@DV?$ChTraitsCRT@D@ATL@@@@@ATL@@@Z
  03d7a	64 a1 00 00 00
	00		 mov	 eax, DWORD PTR fs:__except_list
  03d80	50		 push	 eax
  03d81	64 89 25 00 00
	00 00		 mov	 DWORD PTR fs:__except_list, esp
  03d88	83 ec 40	 sub	 esp, 64			; 00000040H
  03d8b	56		 push	 esi
  03d8c	57		 push	 edi
  03d8d	51		 push	 ecx
  03d8e	8d 7d b4	 lea	 edi, DWORD PTR [ebp-76]
  03d91	b9 10 00 00 00	 mov	 ecx, 16			; 00000010H
  03d96	b8 cc cc cc cc	 mov	 eax, -858993460		; ccccccccH
  03d9b	f3 ab		 rep stosd
  03d9d	59		 pop	 ecx
  03d9e	89 4d f0	 mov	 DWORD PTR _this$[ebp], ecx

; 755  : 	if( !AfxGetUIManager()->UIGetSkinMgr()->SubjectToSkin( string(strSbName) ) )

  03da1	8b f4		 mov	 esi, esp
  03da3	8b 4d 08	 mov	 ecx, DWORD PTR _strSbName$[ebp]
  03da6	ff 15 00 00 00
	00		 call	 DWORD PTR __imp_??B?$CSimpleStringT@D$00@ATL@@QBEPBDXZ
  03dac	3b f4		 cmp	 esi, esp
  03dae	e8 00 00 00 00	 call	 __RTC_CheckEsp
  03db3	83 ec 1c	 sub	 esp, 28			; 0000001cH
  03db6	8b cc		 mov	 ecx, esp
  03db8	89 65 e8	 mov	 DWORD PTR $T195170[ebp], esp
  03dbb	8b f4		 mov	 esi, esp
  03dbd	50		 push	 eax
  03dbe	ff 15 00 00 00
	00		 call	 DWORD PTR __imp_??0?$basic_string@DU?$char_traits@D@std@@V?$allocator@D@2@@std@@QAE@PBD@Z
  03dc4	3b f4		 cmp	 esi, esp
  03dc6	e8 00 00 00 00	 call	 __RTC_CheckEsp
  03dcb	89 45 e0	 mov	 DWORD PTR tv194[ebp], eax
  03dce	8b 45 e0	 mov	 eax, DWORD PTR tv194[ebp]
  03dd1	89 45 dc	 mov	 DWORD PTR tv190[ebp], eax
  03dd4	c7 45 fc 00 00
	00 00		 mov	 DWORD PTR __$EHRec$[ebp+8], 0
  03ddb	e8 00 00 00 00	 call	 ?AfxGetUIManager@@YAPAVIUIManager@@XZ ; AfxGetUIManager
  03de0	89 45 d8	 mov	 DWORD PTR tv66[ebp], eax
  03de3	8b f4		 mov	 esi, esp
  03de5	8b 4d d8	 mov	 ecx, DWORD PTR tv66[ebp]
  03de8	8b 11		 mov	 edx, DWORD PTR [ecx]
  03dea	8b 4d d8	 mov	 ecx, DWORD PTR tv66[ebp]
  03ded	ff 52 28	 call	 DWORD PTR [edx+40]
  03df0	3b f4		 cmp	 esi, esp
  03df2	e8 00 00 00 00	 call	 __RTC_CheckEsp
  03df7	89 45 d4	 mov	 DWORD PTR tv71[ebp], eax
  03dfa	8b 45 d4	 mov	 eax, DWORD PTR tv71[ebp]
  03dfd	8b 10		 mov	 edx, DWORD PTR [eax]
  03dff	c7 45 fc ff ff
	ff ff		 mov	 DWORD PTR __$EHRec$[ebp+8], -1
  03e06	8b 4d d4	 mov	 ecx, DWORD PTR tv71[ebp]
  03e09	ff 52 38	 call	 DWORD PTR [edx+56]
  03e0c	88 45 d3	 mov	 BYTE PTR tv191[ebp], al
  03e0f	0f b6 45 d3	 movzx	 eax, BYTE PTR tv191[ebp]
  03e13	85 c0		 test	 eax, eax
  03e15	75 05		 jne	 SHORT $L192707

; 756  : 	{
; 757  : 		return;

  03e17	e9 31 01 00 00	 jmp	 $L192704
$L192707:

; 758  : 	}
; 759  : 	AfxGetUIManager()->UIGetSkinMgr()->GetSubject()->strCurSubject = strSbName;

  03e1c	e8 00 00 00 00	 call	 ?AfxGetUIManager@@YAPAVIUIManager@@XZ ; AfxGetUIManager
  03e21	89 45 cc	 mov	 DWORD PTR tv95[ebp], eax
  03e24	8b f4		 mov	 esi, esp
  03e26	8b 4d cc	 mov	 ecx, DWORD PTR tv95[ebp]
  03e29	8b 11		 mov	 edx, DWORD PTR [ecx]
  03e2b	8b 4d cc	 mov	 ecx, DWORD PTR tv95[ebp]
  03e2e	ff 52 28	 call	 DWORD PTR [edx+40]
  03e31	3b f4		 cmp	 esi, esp
  03e33	e8 00 00 00 00	 call	 __RTC_CheckEsp
  03e38	89 45 c8	 mov	 DWORD PTR tv132[ebp], eax
  03e3b	8b f4		 mov	 esi, esp
  03e3d	8b 4d 08	 mov	 ecx, DWORD PTR _strSbName$[ebp]
  03e40	ff 15 00 00 00
	00		 call	 DWORD PTR __imp_??B?$CSimpleStringT@D$00@ATL@@QBEPBDXZ
  03e46	3b f4		 cmp	 esi, esp
  03e48	e8 00 00 00 00	 call	 __RTC_CheckEsp
  03e4d	8b f4		 mov	 esi, esp
  03e4f	50		 push	 eax
  03e50	8b fc		 mov	 edi, esp
  03e52	8b 45 c8	 mov	 eax, DWORD PTR tv132[ebp]
  03e55	8b 10		 mov	 edx, DWORD PTR [eax]
  03e57	8b 4d c8	 mov	 ecx, DWORD PTR tv132[ebp]
  03e5a	ff 52 24	 call	 DWORD PTR [edx+36]
  03e5d	3b fc		 cmp	 edi, esp
  03e5f	e8 00 00 00 00	 call	 __RTC_CheckEsp
  03e64	83 c0 04	 add	 eax, 4
  03e67	8b c8		 mov	 ecx, eax
  03e69	ff 15 00 00 00
	00		 call	 DWORD PTR __imp_??4?$basic_string@DU?$char_traits@D@std@@V?$allocator@D@2@@std@@QAEAAV01@PBD@Z
  03e6f	3b f4		 cmp	 esi, esp
  03e71	e8 00 00 00 00	 call	 __RTC_CheckEsp

; 760  : 	AfxGetUIManager()->UIGetLayoutMgr()->OnChangeSubject( strSbName );

  03e76	51		 push	 ecx
  03e77	8b cc		 mov	 ecx, esp
  03e79	89 65 e4	 mov	 DWORD PTR $T195171[ebp], esp
  03e7c	8b f4		 mov	 esi, esp
  03e7e	8b 45 08	 mov	 eax, DWORD PTR _strSbName$[ebp]
  03e81	50		 push	 eax
  03e82	ff 15 00 00 00
	00		 call	 DWORD PTR __imp_??0?$CStringT@DV?$StrTraitMFC_DLL@DV?$ChTraitsCRT@D@ATL@@@@@ATL@@QAE@ABV01@@Z
  03e88	3b f4		 cmp	 esi, esp
  03e8a	e8 00 00 00 00	 call	 __RTC_CheckEsp
  03e8f	89 45 c4	 mov	 DWORD PTR tv197[ebp], eax
  03e92	8b 4d c4	 mov	 ecx, DWORD PTR tv197[ebp]
  03e95	89 4d c0	 mov	 DWORD PTR tv193[ebp], ecx
  03e98	c7 45 fc 01 00
	00 00		 mov	 DWORD PTR __$EHRec$[ebp+8], 1
  03e9f	e8 00 00 00 00	 call	 ?AfxGetUIManager@@YAPAVIUIManager@@XZ ; AfxGetUIManager
  03ea4	89 45 bc	 mov	 DWORD PTR tv143[ebp], eax
  03ea7	8b f4		 mov	 esi, esp
  03ea9	8b 55 bc	 mov	 edx, DWORD PTR tv143[ebp]
  03eac	8b 02		 mov	 eax, DWORD PTR [edx]
  03eae	8b 4d bc	 mov	 ecx, DWORD PTR tv143[ebp]
  03eb1	ff 50 24	 call	 DWORD PTR [eax+36]
  03eb4	3b f4		 cmp	 esi, esp
  03eb6	e8 00 00 00 00	 call	 __RTC_CheckEsp
  03ebb	89 45 b8	 mov	 DWORD PTR tv148[ebp], eax
  03ebe	8b 4d b8	 mov	 ecx, DWORD PTR tv148[ebp]
  03ec1	8b 11		 mov	 edx, DWORD PTR [ecx]
  03ec3	c7 45 fc ff ff
	ff ff		 mov	 DWORD PTR __$EHRec$[ebp+8], -1
  03eca	8b 4d b8	 mov	 ecx, DWORD PTR tv148[ebp]
  03ecd	ff 52 64	 call	 DWORD PTR [edx+100]

; 761  : 
; 762  : 	for(size_t idx = 0;idx < mp_changeSkinEven.size();idx++ )

  03ed0	c7 45 ec 00 00
	00 00		 mov	 DWORD PTR _idx$192709[ebp], 0
  03ed7	eb 09		 jmp	 SHORT $L192710
$L192711:
  03ed9	8b 45 ec	 mov	 eax, DWORD PTR _idx$192709[ebp]
  03edc	83 c0 01	 add	 eax, 1
  03edf	89 45 ec	 mov	 DWORD PTR _idx$192709[ebp], eax
$L192710:
  03ee2	8b 4d f0	 mov	 ecx, DWORD PTR _this$[ebp]
  03ee5	83 c1 38	 add	 ecx, 56			; 00000038H
  03ee8	e8 00 00 00 00	 call	 ?size@?$vector@PAVIChangeSkinEventListener@@V?$allocator@PAVIChangeSkinEventListener@@@std@@@std@@QBEIXZ ; std::vector<IChangeSkinEventListener *,std::allocator<IChangeSkinEventListener *> >::size
  03eed	39 45 ec	 cmp	 DWORD PTR _idx$192709[ebp], eax
  03ef0	73 2a		 jae	 SHORT $L192712

; 763  : 	{
; 764  : 		mp_changeSkinEven[idx]->OnChangeSubject();

  03ef2	8b 4d ec	 mov	 ecx, DWORD PTR _idx$192709[ebp]
  03ef5	51		 push	 ecx
  03ef6	8b 4d f0	 mov	 ecx, DWORD PTR _this$[ebp]
  03ef9	83 c1 38	 add	 ecx, 56			; 00000038H
  03efc	e8 00 00 00 00	 call	 ??A?$vector@PAVIChangeSkinEventListener@@V?$allocator@PAVIChangeSkinEventListener@@@std@@@std@@QAEAAPAVIChangeSkinEventListener@@I@Z ; std::vector<IChangeSkinEventListener *,std::allocator<IChangeSkinEventListener *> >::operator[]
  03f01	8b 10		 mov	 edx, DWORD PTR [eax]
  03f03	89 55 b4	 mov	 DWORD PTR tv176[ebp], edx
  03f06	8b 45 b4	 mov	 eax, DWORD PTR tv176[ebp]
  03f09	8b 10		 mov	 edx, DWORD PTR [eax]
  03f0b	8b f4		 mov	 esi, esp
  03f0d	8b 4d b4	 mov	 ecx, DWORD PTR tv176[ebp]
  03f10	ff 52 08	 call	 DWORD PTR [edx+8]
  03f13	3b f4		 cmp	 esi, esp
  03f15	e8 00 00 00 00	 call	 __RTC_CheckEsp

; 765  : 	}		

  03f1a	eb bd		 jmp	 SHORT $L192711
$L192712:

; 766  : 
; 767  : 	if( mp_skinWnd && ::IsWindow(mp_skinWnd->m_hWnd))

  03f1c	8b 45 f0	 mov	 eax, DWORD PTR _this$[ebp]
  03f1f	83 78 14 00	 cmp	 DWORD PTR [eax+20], 0
  03f23	74 28		 je	 SHORT $L192704
  03f25	8b 4d f0	 mov	 ecx, DWORD PTR _this$[ebp]
  03f28	8b 51 14	 mov	 edx, DWORD PTR [ecx+20]
  03f2b	8b f4		 mov	 esi, esp
  03f2d	8b 42 20	 mov	 eax, DWORD PTR [edx+32]
  03f30	50		 push	 eax
  03f31	ff 15 00 00 00
	00		 call	 DWORD PTR __imp__IsWindow@4
  03f37	3b f4		 cmp	 esi, esp
  03f39	e8 00 00 00 00	 call	 __RTC_CheckEsp
  03f3e	85 c0		 test	 eax, eax
  03f40	74 0b		 je	 SHORT $L192704

; 768  : 	{
; 769  : 		mp_skinWnd->OnChangeSubject();

  03f42	8b 4d f0	 mov	 ecx, DWORD PTR _this$[ebp]
  03f45	8b 49 14	 mov	 ecx, DWORD PTR [ecx+20]
  03f48	e8 00 00 00 00	 call	 ?OnChangeSubject@CSkinWnd@@QAEXXZ ; CSkinWnd::OnChangeSubject
$L192704:

; 770  : 	}
; 771  : }

  03f4d	8b 4d f4	 mov	 ecx, DWORD PTR __$EHRec$[ebp]
  03f50	64 89 0d 00 00
	00 00		 mov	 DWORD PTR fs:__except_list, ecx
  03f57	5f		 pop	 edi
  03f58	5e		 pop	 esi
  03f59	83 c4 4c	 add	 esp, 76			; 0000004cH
  03f5c	3b ec		 cmp	 ebp, esp
  03f5e	e8 00 00 00 00	 call	 __RTC_CheckEsp
  03f63	8b e5		 mov	 esp, ebp
  03f65	5d		 pop	 ebp
  03f66	c2 04 00	 ret	 4
_TEXT	ENDS
text$x	SEGMENT
$L195172:
  007b5	8b f4		 mov	 esi, esp
  007b7	8b 4d e8	 mov	 ecx, DWORD PTR $T195170[ebp]
  007ba	ff 15 00 00 00
	00		 call	 DWORD PTR __imp_??1?$basic_string@DU?$char_traits@D@std@@V?$allocator@D@2@@std@@QAE@XZ
  007c0	3b f4		 cmp	 esi, esp
  007c2	e9 00 00 00 00	 jmp	 __RTC_CheckEsp
$L195173:
  007c7	8b f4		 mov	 esi, esp
  007c9	8b 4d e4	 mov	 ecx, DWORD PTR $T195171[ebp]
  007cc	ff 15 00 00 00
	00		 call	 DWORD PTR __imp_??1?$CStringT@DV?$StrTraitMFC_DLL@DV?$ChTraitsCRT@D@ATL@@@@@ATL@@QAE@XZ
  007d2	3b f4		 cmp	 esi, esp
  007d4	e9 00 00 00 00	 jmp	 __RTC_CheckEsp
__ehhandler$?NotifyChangeSubject@CSkinMgrV1@@UAEXABV?$CStringT@DV?$StrTraitMFC_DLL@DV?$ChTraitsCRT@D@ATL@@@@@ATL@@@Z:
  007d9	b8 00 00 00 00	 mov	 eax, OFFSET FLAT:$T195175
  007de	e9 00 00 00 00	 jmp	 ___CxxFrameHandler
text$x	ENDS
?NotifyChangeSubject@CSkinMgrV1@@UAEXABV?$CStringT@DV?$StrTraitMFC_DLL@DV?$ChTraitsCRT@D@ATL@@@@@ATL@@@Z ENDP ; CSkinMgrV1::NotifyChangeSubject
; Function compile flags: /Odt /RTCsu
_TEXT	SEGMENT
_this$ = -4						; size = 4
?CloseSkinWnd@CSkinMgrV1@@UAE_NXZ PROC NEAR		; CSkinMgrV1::CloseSkinWnd
; _this$ = ecx

; 774  : {

  03f70	55		 push	 ebp
  03f71	8b ec		 mov	 ebp, esp
  03f73	51		 push	 ecx
  03f74	56		 push	 esi
  03f75	c7 45 fc cc cc
	cc cc		 mov	 DWORD PTR [ebp-4], -858993460 ; ccccccccH
  03f7c	89 4d fc	 mov	 DWORD PTR _this$[ebp], ecx

; 775  : 	EnterCriticalSection( &m_csDownInfo );

  03f7f	8b 45 fc	 mov	 eax, DWORD PTR _this$[ebp]
  03f82	83 c0 68	 add	 eax, 104		; 00000068H
  03f85	8b f4		 mov	 esi, esp
  03f87	50		 push	 eax
  03f88	ff 15 00 00 00
	00		 call	 DWORD PTR __imp__EnterCriticalSection@4
  03f8e	3b f4		 cmp	 esi, esp
  03f90	e8 00 00 00 00	 call	 __RTC_CheckEsp

; 776  : 	mb_HasPopWnd = false;	

  03f95	8b 4d fc	 mov	 ecx, DWORD PTR _this$[ebp]
  03f98	c6 41 48 00	 mov	 BYTE PTR [ecx+72], 0

; 777  : 	mp_mainSkinWnd = NULL;

  03f9c	8b 55 fc	 mov	 edx, DWORD PTR _this$[ebp]
  03f9f	c7 42 10 00 00
	00 00		 mov	 DWORD PTR [edx+16], 0

; 778  : 
; 779  : //	mb_isDownSubject = false;
; 780  : 
; 781  : 	LeaveCriticalSection( &m_csDownInfo );

  03fa6	8b 45 fc	 mov	 eax, DWORD PTR _this$[ebp]
  03fa9	83 c0 68	 add	 eax, 104		; 00000068H
  03fac	8b f4		 mov	 esi, esp
  03fae	50		 push	 eax
  03faf	ff 15 00 00 00
	00		 call	 DWORD PTR __imp__LeaveCriticalSection@4
  03fb5	3b f4		 cmp	 esi, esp
  03fb7	e8 00 00 00 00	 call	 __RTC_CheckEsp

; 782  : 	return true;

  03fbc	b0 01		 mov	 al, 1

; 783  : }

  03fbe	5e		 pop	 esi
  03fbf	83 c4 04	 add	 esp, 4
  03fc2	3b ec		 cmp	 ebp, esp
  03fc4	e8 00 00 00 00	 call	 __RTC_CheckEsp
  03fc9	8b e5		 mov	 esp, ebp
  03fcb	5d		 pop	 ebp
  03fcc	c3		 ret	 0
?CloseSkinWnd@CSkinMgrV1@@UAE_NXZ ENDP			; CSkinMgrV1::CloseSkinWnd
; Function compile flags: /Odt /RTCsu
_this$ = -4						; size = 4
_aColor$ = 8						; size = 4
?SetSelectedColor@CSkinMgrV1@@UAEXK@Z PROC NEAR		; CSkinMgrV1::SetSelectedColor
; _this$ = ecx

; 787  : {

  03fd0	55		 push	 ebp
  03fd1	8b ec		 mov	 ebp, esp
  03fd3	51		 push	 ecx
  03fd4	c7 45 fc cc cc
	cc cc		 mov	 DWORD PTR [ebp-4], -858993460 ; ccccccccH
  03fdb	89 4d fc	 mov	 DWORD PTR _this$[ebp], ecx

; 788  : 	m_BaseColor = aColor;

  03fde	8b 45 fc	 mov	 eax, DWORD PTR _this$[ebp]
  03fe1	8b 4d 08	 mov	 ecx, DWORD PTR _aColor$[ebp]
  03fe4	89 48 28	 mov	 DWORD PTR [eax+40], ecx

; 789  : }

  03fe7	8b e5		 mov	 esp, ebp
  03fe9	5d		 pop	 ebp
  03fea	c2 04 00	 ret	 4
?SetSelectedColor@CSkinMgrV1@@UAEXK@Z ENDP		; CSkinMgrV1::SetSelectedColor
; Function compile flags: /Odt /RTCsu
_this$ = -4						; size = 4
_str$ = 8						; size = 4
?ClickSub@CSkinMgrV1@@UAEXABV?$CStringT@DV?$StrTraitMFC_DLL@DV?$ChTraitsCRT@D@ATL@@@@@ATL@@@Z PROC NEAR ; CSkinMgrV1::ClickSub
; _this$ = ecx

; 792  : {

  03ff0	55		 push	 ebp
  03ff1	8b ec		 mov	 ebp, esp
  03ff3	51		 push	 ecx
  03ff4	56		 push	 esi
  03ff5	c7 45 fc cc cc
	cc cc		 mov	 DWORD PTR [ebp-4], -858993460 ; ccccccccH
  03ffc	89 4d fc	 mov	 DWORD PTR _this$[ebp], ecx

; 793  : 	if( mp_SubjectWnd && IsWindow(mp_SubjectWnd->GetSafeHwnd()))

  03fff	8b 45 fc	 mov	 eax, DWORD PTR _this$[ebp]
  04002	83 78 18 00	 cmp	 DWORD PTR [eax+24], 0
  04006	74 42		 je	 SHORT $L192724
  04008	8b 4d fc	 mov	 ecx, DWORD PTR _this$[ebp]
  0400b	8b 49 18	 mov	 ecx, DWORD PTR [ecx+24]
  0400e	e8 00 00 00 00	 call	 ?GetSafeHwnd@CWnd@@QBEPAUHWND__@@XZ ; CWnd::GetSafeHwnd
  04013	8b f4		 mov	 esi, esp
  04015	50		 push	 eax
  04016	ff 15 00 00 00
	00		 call	 DWORD PTR __imp__IsWindow@4
  0401c	3b f4		 cmp	 esi, esp
  0401e	e8 00 00 00 00	 call	 __RTC_CheckEsp
  04023	85 c0		 test	 eax, eax
  04025	74 23		 je	 SHORT $L192724

; 794  : 	{
; 795  : 		mp_SubjectWnd->OnCliekButton( str );

  04027	8b f4		 mov	 esi, esp
  04029	8b 55 08	 mov	 edx, DWORD PTR _str$[ebp]
  0402c	52		 push	 edx
  0402d	8b 45 fc	 mov	 eax, DWORD PTR _this$[ebp]
  04030	8b 48 18	 mov	 ecx, DWORD PTR [eax+24]
  04033	8b 55 fc	 mov	 edx, DWORD PTR _this$[ebp]
  04036	8b 42 18	 mov	 eax, DWORD PTR [edx+24]
  04039	8b 11		 mov	 edx, DWORD PTR [ecx]
  0403b	8b c8		 mov	 ecx, eax
  0403d	ff 92 78 01 00
	00		 call	 DWORD PTR [edx+376]
  04043	3b f4		 cmp	 esi, esp
  04045	e8 00 00 00 00	 call	 __RTC_CheckEsp
$L192724:

; 796  : 	}
; 797  : }

  0404a	5e		 pop	 esi
  0404b	83 c4 04	 add	 esp, 4
  0404e	3b ec		 cmp	 ebp, esp
  04050	e8 00 00 00 00	 call	 __RTC_CheckEsp
  04055	8b e5		 mov	 esp, ebp
  04057	5d		 pop	 ebp
  04058	c2 04 00	 ret	 4
?ClickSub@CSkinMgrV1@@UAEXABV?$CStringT@DV?$StrTraitMFC_DLL@DV?$ChTraitsCRT@D@ATL@@@@@ATL@@@Z ENDP ; CSkinMgrV1::ClickSub
_TEXT	ENDS
EXTRN	?SkinChanged@CSkinWnd@@QAEXABV?$basic_string@DU?$char_traits@D@std@@V?$allocator@D@2@@std@@@Z:NEAR ; CSkinWnd::SkinChanged
xdata$x	SEGMENT
$T195187 DD	0ffffffffH
	DD	FLAT:$L195182
	DD	00H
	DD	FLAT:$L195183
$T195185 DD	019930520H
	DD	02H
	DD	FLAT:$T195187
	DD	2 DUP(00H)
	DD	2 DUP(00H)
; Function compile flags: /Odt /RTCsu
xdata$x	ENDS
_TEXT	SEGMENT
_this$ = -16						; size = 4
__$EHRec$ = -12						; size = 12
_oldSkinPath$ = 8					; size = 28
_newSkinPath$ = 36					; size = 28
?ILayoutChangeOb_SkinChanged@CSkinMgrV1@@UAEXV?$basic_string@DU?$char_traits@D@std@@V?$allocator@D@2@@std@@0@Z PROC NEAR ; CSkinMgrV1::ILayoutChangeOb_SkinChanged
; _this$ = ecx

; 800  : {

  04060	55		 push	 ebp
  04061	8b ec		 mov	 ebp, esp
  04063	6a ff		 push	 -1
  04065	68 00 00 00 00	 push	 __ehhandler$?ILayoutChangeOb_SkinChanged@CSkinMgrV1@@UAEXV?$basic_string@DU?$char_traits@D@std@@V?$allocator@D@2@@std@@0@Z
  0406a	64 a1 00 00 00
	00		 mov	 eax, DWORD PTR fs:__except_list
  04070	50		 push	 eax
  04071	64 89 25 00 00
	00 00		 mov	 DWORD PTR fs:__except_list, esp
  04078	51		 push	 ecx
  04079	56		 push	 esi
  0407a	c7 45 f0 cc cc
	cc cc		 mov	 DWORD PTR [ebp-16], -858993460 ; ccccccccH
  04081	89 4d f0	 mov	 DWORD PTR _this$[ebp], ecx
  04084	c7 45 fc 01 00
	00 00		 mov	 DWORD PTR __$EHRec$[ebp+8], 1

; 801  : 	if( mb_HasPopWnd )

  0408b	8b 45 f0	 mov	 eax, DWORD PTR _this$[ebp]
  0408e	0f b6 48 3c	 movzx	 ecx, BYTE PTR [eax+60]
  04092	85 c9		 test	 ecx, ecx
  04094	74 18		 je	 SHORT $L192731

; 802  : 	{
; 803  : 		if( mp_skinWnd )

  04096	8b 55 f0	 mov	 edx, DWORD PTR _this$[ebp]
  04099	83 7a 08 00	 cmp	 DWORD PTR [edx+8], 0
  0409d	74 0f		 je	 SHORT $L192731

; 804  : 		{
; 805  : 			mp_skinWnd->SkinChanged( newSkinPath );

  0409f	8d 45 24	 lea	 eax, DWORD PTR _newSkinPath$[ebp]
  040a2	50		 push	 eax
  040a3	8b 4d f0	 mov	 ecx, DWORD PTR _this$[ebp]
  040a6	8b 49 08	 mov	 ecx, DWORD PTR [ecx+8]
  040a9	e8 00 00 00 00	 call	 ?SkinChanged@CSkinWnd@@QAEXABV?$basic_string@DU?$char_traits@D@std@@V?$allocator@D@2@@std@@@Z ; CSkinWnd::SkinChanged
$L192731:

; 806  : 		}
; 807  : 	}
; 808  : }

  040ae	c6 45 fc 00	 mov	 BYTE PTR __$EHRec$[ebp+8], 0
  040b2	8b f4		 mov	 esi, esp
  040b4	8d 4d 08	 lea	 ecx, DWORD PTR _oldSkinPath$[ebp]
  040b7	ff 15 00 00 00
	00		 call	 DWORD PTR __imp_??1?$basic_string@DU?$char_traits@D@std@@V?$allocator@D@2@@std@@QAE@XZ
  040bd	3b f4		 cmp	 esi, esp
  040bf	e8 00 00 00 00	 call	 __RTC_CheckEsp
  040c4	c7 45 fc ff ff
	ff ff		 mov	 DWORD PTR __$EHRec$[ebp+8], -1
  040cb	8b f4		 mov	 esi, esp
  040cd	8d 4d 24	 lea	 ecx, DWORD PTR _newSkinPath$[ebp]
  040d0	ff 15 00 00 00
	00		 call	 DWORD PTR __imp_??1?$basic_string@DU?$char_traits@D@std@@V?$allocator@D@2@@std@@QAE@XZ
  040d6	3b f4		 cmp	 esi, esp
  040d8	e8 00 00 00 00	 call	 __RTC_CheckEsp
  040dd	8b 4d f4	 mov	 ecx, DWORD PTR __$EHRec$[ebp]
  040e0	64 89 0d 00 00
	00 00		 mov	 DWORD PTR fs:__except_list, ecx
  040e7	5e		 pop	 esi
  040e8	83 c4 10	 add	 esp, 16			; 00000010H
  040eb	3b ec		 cmp	 ebp, esp
  040ed	e8 00 00 00 00	 call	 __RTC_CheckEsp
  040f2	8b e5		 mov	 esp, ebp
  040f4	5d		 pop	 ebp
  040f5	c2 38 00	 ret	 56			; 00000038H
_TEXT	ENDS
text$x	SEGMENT
$L195182:
  007e3	8b f4		 mov	 esi, esp
  007e5	8d 4d 24	 lea	 ecx, DWORD PTR _newSkinPath$[ebp]
  007e8	ff 15 00 00 00
	00		 call	 DWORD PTR __imp_??1?$basic_string@DU?$char_traits@D@std@@V?$allocator@D@2@@std@@QAE@XZ
  007ee	3b f4		 cmp	 esi, esp
  007f0	e9 00 00 00 00	 jmp	 __RTC_CheckEsp
$L195183:
  007f5	8b f4		 mov	 esi, esp
  007f7	8d 4d 08	 lea	 ecx, DWORD PTR _oldSkinPath$[ebp]
  007fa	ff 15 00 00 00
	00		 call	 DWORD PTR __imp_??1?$basic_string@DU?$char_traits@D@std@@V?$allocator@D@2@@std@@QAE@XZ
  00800	3b f4		 cmp	 esi, esp
  00802	e9 00 00 00 00	 jmp	 __RTC_CheckEsp
__ehhandler$?ILayoutChangeOb_SkinChanged@CSkinMgrV1@@UAEXV?$basic_string@DU?$char_traits@D@std@@V?$allocator@D@2@@std@@0@Z:
  00807	b8 00 00 00 00	 mov	 eax, OFFSET FLAT:$T195185
  0080c	e9 00 00 00 00	 jmp	 ___CxxFrameHandler
text$x	ENDS
?ILayoutChangeOb_SkinChanged@CSkinMgrV1@@UAEXV?$basic_string@DU?$char_traits@D@std@@V?$allocator@D@2@@std@@0@Z ENDP ; CSkinMgrV1::ILayoutChangeOb_SkinChanged
PUBLIC	?DownloadSubStart@CSkinMgrV1@@QAEXABV?$CStringT@DV?$StrTraitMFC_DLL@DV?$ChTraitsCRT@D@ATL@@@@@ATL@@@Z ; CSkinMgrV1::DownloadSubStart
EXTRN	?ReqDownSub@CDownSub@@SAXABV?$CStringT@DV?$StrTraitMFC_DLL@DV?$ChTraitsCRT@D@ATL@@@@@ATL@@PAUHWND__@@@Z:NEAR ; CDownSub::ReqDownSub
xdata$x	SEGMENT
$T195200 DD	0ffffffffH
	DD	FLAT:$L195193
	DD	00H
	DD	FLAT:$L195194
	DD	0ffffffffH
	DD	FLAT:$L195195
	DD	02H
	DD	FLAT:$L195196
$T195198 DD	019930520H
	DD	04H
	DD	FLAT:$T195200
	DD	2 DUP(00H)
	DD	2 DUP(00H)
; Function compile flags: /Odt /RTCsu
xdata$x	ENDS
_TEXT	SEGMENT
$T195192 = -128						; size = 28
$T195191 = -100						; size = 28
$T195190 = -72						; size = 28
$T195189 = -44						; size = 28
_this$ = -16						; size = 4
__$EHRec$ = -12						; size = 12
_strSubName$ = 8					; size = 4
?OnStartDownSubject@CSkinMgrV1@@UAEXABV?$CStringT@DV?$StrTraitMFC_DLL@DV?$ChTraitsCRT@D@ATL@@@@@ATL@@@Z PROC NEAR ; CSkinMgrV1::OnStartDownSubject
; _this$ = ecx

; 811  : {

  04100	55		 push	 ebp
  04101	8b ec		 mov	 ebp, esp
  04103	6a ff		 push	 -1
  04105	68 00 00 00 00	 push	 __ehhandler$?OnStartDownSubject@CSkinMgrV1@@UAEXABV?$CStringT@DV?$StrTraitMFC_DLL@DV?$ChTraitsCRT@D@ATL@@@@@ATL@@@Z
  0410a	64 a1 00 00 00
	00		 mov	 eax, DWORD PTR fs:__except_list
  04110	50		 push	 eax
  04111	64 89 25 00 00
	00 00		 mov	 DWORD PTR fs:__except_list, esp
  04118	83 ec 74	 sub	 esp, 116		; 00000074H
  0411b	56		 push	 esi
  0411c	57		 push	 edi
  0411d	51		 push	 ecx
  0411e	8d 7d 80	 lea	 edi, DWORD PTR [ebp-128]
  04121	b9 1d 00 00 00	 mov	 ecx, 29			; 0000001dH
  04126	b8 cc cc cc cc	 mov	 eax, -858993460		; ccccccccH
  0412b	f3 ab		 rep stosd
  0412d	59		 pop	 ecx
  0412e	89 4d f0	 mov	 DWORD PTR _this$[ebp], ecx

; 812  : 	YL_Log("SkinB.txt",LOG_DEBUG,"Click-In","3");

  04131	8b f4		 mov	 esi, esp
  04133	68 00 00 00 00	 push	 OFFSET FLAT:$SG192740
  04138	8d 4d d4	 lea	 ecx, DWORD PTR $T195189[ebp]
  0413b	ff 15 00 00 00
	00		 call	 DWORD PTR __imp_??0?$basic_string@DU?$char_traits@D@std@@V?$allocator@D@2@@std@@QAE@PBD@Z
  04141	3b f4		 cmp	 esi, esp
  04143	e8 00 00 00 00	 call	 __RTC_CheckEsp
  04148	c7 45 fc 00 00
	00 00		 mov	 DWORD PTR __$EHRec$[ebp+8], 0
  0414f	8b f4		 mov	 esi, esp
  04151	68 00 00 00 00	 push	 OFFSET FLAT:$SG192741
  04156	8d 4d b8	 lea	 ecx, DWORD PTR $T195190[ebp]
  04159	ff 15 00 00 00
	00		 call	 DWORD PTR __imp_??0?$basic_string@DU?$char_traits@D@std@@V?$allocator@D@2@@std@@QAE@PBD@Z
  0415f	3b f4		 cmp	 esi, esp
  04161	e8 00 00 00 00	 call	 __RTC_CheckEsp
  04166	c6 45 fc 01	 mov	 BYTE PTR __$EHRec$[ebp+8], 1
  0416a	8b f4		 mov	 esi, esp
  0416c	68 00 00 00 00	 push	 OFFSET FLAT:$SG192739
  04171	8d 45 d4	 lea	 eax, DWORD PTR $T195189[ebp]
  04174	50		 push	 eax
  04175	6a 00		 push	 0
  04177	8d 4d b8	 lea	 ecx, DWORD PTR $T195190[ebp]
  0417a	51		 push	 ecx
  0417b	ff 15 00 00 00
	00		 call	 DWORD PTR __imp_?YL_Log@@YAXABV?$basic_string@DU?$char_traits@D@std@@V?$allocator@D@2@@std@@H0PBDZZ
  04181	83 c4 10	 add	 esp, 16			; 00000010H
  04184	3b f4		 cmp	 esi, esp
  04186	e8 00 00 00 00	 call	 __RTC_CheckEsp
  0418b	c6 45 fc 00	 mov	 BYTE PTR __$EHRec$[ebp+8], 0
  0418f	8b f4		 mov	 esi, esp
  04191	8d 4d b8	 lea	 ecx, DWORD PTR $T195190[ebp]
  04194	ff 15 00 00 00
	00		 call	 DWORD PTR __imp_??1?$basic_string@DU?$char_traits@D@std@@V?$allocator@D@2@@std@@QAE@XZ
  0419a	3b f4		 cmp	 esi, esp
  0419c	e8 00 00 00 00	 call	 __RTC_CheckEsp
  041a1	c7 45 fc ff ff
	ff ff		 mov	 DWORD PTR __$EHRec$[ebp+8], -1
  041a8	8b f4		 mov	 esi, esp
  041aa	8d 4d d4	 lea	 ecx, DWORD PTR $T195189[ebp]
  041ad	ff 15 00 00 00
	00		 call	 DWORD PTR __imp_??1?$basic_string@DU?$char_traits@D@std@@V?$allocator@D@2@@std@@QAE@XZ
  041b3	3b f4		 cmp	 esi, esp
  041b5	e8 00 00 00 00	 call	 __RTC_CheckEsp

; 813  : 	YL_Log("downskin.txt",LOG_DEBUG,"DownStart"," %s",strSubName);	

  041ba	8b f4		 mov	 esi, esp
  041bc	68 00 00 00 00	 push	 OFFSET FLAT:$SG192745
  041c1	8d 4d 9c	 lea	 ecx, DWORD PTR $T195191[ebp]
  041c4	ff 15 00 00 00
	00		 call	 DWORD PTR __imp_??0?$basic_string@DU?$char_traits@D@std@@V?$allocator@D@2@@std@@QAE@PBD@Z
  041ca	3b f4		 cmp	 esi, esp
  041cc	e8 00 00 00 00	 call	 __RTC_CheckEsp
  041d1	c7 45 fc 02 00
	00 00		 mov	 DWORD PTR __$EHRec$[ebp+8], 2
  041d8	8b f4		 mov	 esi, esp
  041da	68 00 00 00 00	 push	 OFFSET FLAT:$SG192746
  041df	8d 4d 80	 lea	 ecx, DWORD PTR $T195192[ebp]
  041e2	ff 15 00 00 00
	00		 call	 DWORD PTR __imp_??0?$basic_string@DU?$char_traits@D@std@@V?$allocator@D@2@@std@@QAE@PBD@Z
  041e8	3b f4		 cmp	 esi, esp
  041ea	e8 00 00 00 00	 call	 __RTC_CheckEsp
  041ef	c6 45 fc 03	 mov	 BYTE PTR __$EHRec$[ebp+8], 3
  041f3	8b f4		 mov	 esi, esp
  041f5	8b 55 08	 mov	 edx, DWORD PTR _strSubName$[ebp]
  041f8	8b 02		 mov	 eax, DWORD PTR [edx]
  041fa	50		 push	 eax
  041fb	68 00 00 00 00	 push	 OFFSET FLAT:$SG192744
  04200	8d 4d 9c	 lea	 ecx, DWORD PTR $T195191[ebp]
  04203	51		 push	 ecx
  04204	6a 00		 push	 0
  04206	8d 55 80	 lea	 edx, DWORD PTR $T195192[ebp]
  04209	52		 push	 edx
  0420a	ff 15 00 00 00
	00		 call	 DWORD PTR __imp_?YL_Log@@YAXABV?$basic_string@DU?$char_traits@D@std@@V?$allocator@D@2@@std@@H0PBDZZ
  04210	83 c4 14	 add	 esp, 20			; 00000014H
  04213	3b f4		 cmp	 esi, esp
  04215	e8 00 00 00 00	 call	 __RTC_CheckEsp
  0421a	c6 45 fc 02	 mov	 BYTE PTR __$EHRec$[ebp+8], 2
  0421e	8b f4		 mov	 esi, esp
  04220	8d 4d 80	 lea	 ecx, DWORD PTR $T195192[ebp]
  04223	ff 15 00 00 00
	00		 call	 DWORD PTR __imp_??1?$basic_string@DU?$char_traits@D@std@@V?$allocator@D@2@@std@@QAE@XZ
  04229	3b f4		 cmp	 esi, esp
  0422b	e8 00 00 00 00	 call	 __RTC_CheckEsp
  04230	c7 45 fc ff ff
	ff ff		 mov	 DWORD PTR __$EHRec$[ebp+8], -1
  04237	8b f4		 mov	 esi, esp
  04239	8d 4d 9c	 lea	 ecx, DWORD PTR $T195191[ebp]
  0423c	ff 15 00 00 00
	00		 call	 DWORD PTR __imp_??1?$basic_string@DU?$char_traits@D@std@@V?$allocator@D@2@@std@@QAE@XZ
  04242	3b f4		 cmp	 esi, esp
  04244	e8 00 00 00 00	 call	 __RTC_CheckEsp

; 814  : 	DownloadSubStart(strSubName);

  04249	8b 45 08	 mov	 eax, DWORD PTR _strSubName$[ebp]
  0424c	50		 push	 eax
  0424d	8b 4d f0	 mov	 ecx, DWORD PTR _this$[ebp]
  04250	83 e9 04	 sub	 ecx, 4
  04253	e8 00 00 00 00	 call	 ?DownloadSubStart@CSkinMgrV1@@QAEXABV?$CStringT@DV?$StrTraitMFC_DLL@DV?$ChTraitsCRT@D@ATL@@@@@ATL@@@Z ; CSkinMgrV1::DownloadSubStart

; 815  : 	CDownSub::ReqDownSub( strSubName,mp_downloadSubject->m_hWnd );

  04258	8b 4d f0	 mov	 ecx, DWORD PTR _this$[ebp]
  0425b	8b 51 20	 mov	 edx, DWORD PTR [ecx+32]
  0425e	8b 42 20	 mov	 eax, DWORD PTR [edx+32]
  04261	50		 push	 eax
  04262	8b 4d 08	 mov	 ecx, DWORD PTR _strSubName$[ebp]
  04265	51		 push	 ecx
  04266	e8 00 00 00 00	 call	 ?ReqDownSub@CDownSub@@SAXABV?$CStringT@DV?$StrTraitMFC_DLL@DV?$ChTraitsCRT@D@ATL@@@@@ATL@@PAUHWND__@@@Z ; CDownSub::ReqDownSub
  0426b	83 c4 08	 add	 esp, 8

; 816  : 
; 817  : 	m_strDownSubName = strSubName;

  0426e	8b f4		 mov	 esi, esp
  04270	8b 55 08	 mov	 edx, DWORD PTR _strSubName$[ebp]
  04273	52		 push	 edx
  04274	8b 4d f0	 mov	 ecx, DWORD PTR _this$[ebp]
  04277	83 c1 5c	 add	 ecx, 92			; 0000005cH
  0427a	ff 15 00 00 00
	00		 call	 DWORD PTR __imp_??4?$CStringT@DV?$StrTraitMFC_DLL@DV?$ChTraitsCRT@D@ATL@@@@@ATL@@QAEAAV01@ABV01@@Z
  04280	3b f4		 cmp	 esi, esp
  04282	e8 00 00 00 00	 call	 __RTC_CheckEsp

; 818  : }

  04287	8b 4d f4	 mov	 ecx, DWORD PTR __$EHRec$[ebp]
  0428a	64 89 0d 00 00
	00 00		 mov	 DWORD PTR fs:__except_list, ecx
  04291	5f		 pop	 edi
  04292	5e		 pop	 esi
  04293	81 c4 80 00 00
	00		 add	 esp, 128		; 00000080H
  04299	3b ec		 cmp	 ebp, esp
  0429b	e8 00 00 00 00	 call	 __RTC_CheckEsp
  042a0	8b e5		 mov	 esp, ebp
  042a2	5d		 pop	 ebp
  042a3	c2 04 00	 ret	 4
_TEXT	ENDS
text$x	SEGMENT
$L195193:
  00811	8b f4		 mov	 esi, esp
  00813	8d 4d d4	 lea	 ecx, DWORD PTR $T195189[ebp]
  00816	ff 15 00 00 00
	00		 call	 DWORD PTR __imp_??1?$basic_string@DU?$char_traits@D@std@@V?$allocator@D@2@@std@@QAE@XZ
  0081c	3b f4		 cmp	 esi, esp
  0081e	e9 00 00 00 00	 jmp	 __RTC_CheckEsp
$L195194:
  00823	8b f4		 mov	 esi, esp
  00825	8d 4d b8	 lea	 ecx, DWORD PTR $T195190[ebp]
  00828	ff 15 00 00 00
	00		 call	 DWORD PTR __imp_??1?$basic_string@DU?$char_traits@D@std@@V?$allocator@D@2@@std@@QAE@XZ
  0082e	3b f4		 cmp	 esi, esp
  00830	e9 00 00 00 00	 jmp	 __RTC_CheckEsp
$L195195:
  00835	8b f4		 mov	 esi, esp
  00837	8d 4d 9c	 lea	 ecx, DWORD PTR $T195191[ebp]
  0083a	ff 15 00 00 00
	00		 call	 DWORD PTR __imp_??1?$basic_string@DU?$char_traits@D@std@@V?$allocator@D@2@@std@@QAE@XZ
  00840	3b f4		 cmp	 esi, esp
  00842	e9 00 00 00 00	 jmp	 __RTC_CheckEsp
$L195196:
  00847	8b f4		 mov	 esi, esp
  00849	8d 4d 80	 lea	 ecx, DWORD PTR $T195192[ebp]
  0084c	ff 15 00 00 00
	00		 call	 DWORD PTR __imp_??1?$basic_string@DU?$char_traits@D@std@@V?$allocator@D@2@@std@@QAE@XZ
  00852	3b f4		 cmp	 esi, esp
  00854	e9 00 00 00 00	 jmp	 __RTC_CheckEsp
__ehhandler$?OnStartDownSubject@CSkinMgrV1@@UAEXABV?$CStringT@DV?$StrTraitMFC_DLL@DV?$ChTraitsCRT@D@ATL@@@@@ATL@@@Z:
  00859	b8 00 00 00 00	 mov	 eax, OFFSET FLAT:$T195198
  0085e	e9 00 00 00 00	 jmp	 ___CxxFrameHandler
text$x	ENDS
?OnStartDownSubject@CSkinMgrV1@@UAEXABV?$CStringT@DV?$StrTraitMFC_DLL@DV?$ChTraitsCRT@D@ATL@@@@@ATL@@@Z ENDP ; CSkinMgrV1::OnStartDownSubject
PUBLIC	?DownloadSubFinish@CSkinMgrV1@@QAEXABV?$CStringT@DV?$StrTraitMFC_DLL@DV?$ChTraitsCRT@D@ATL@@@@@ATL@@H@Z ; CSkinMgrV1::DownloadSubFinish
PUBLIC	?DownloadWebSubFinish@CSkinMgrV1@@QAEXABV?$CStringT@DV?$StrTraitMFC_DLL@DV?$ChTraitsCRT@D@ATL@@@@@ATL@@H@Z ; CSkinMgrV1::DownloadWebSubFinish
PUBLIC	?InstallWebSubject@CSkinMgrV1@@QAEXV?$basic_string@DU?$char_traits@D@std@@V?$allocator@D@2@@std@@@Z ; CSkinMgrV1::InstallWebSubject
PUBLIC	?InsertSubject@CSkinMgrV1@@QAEXV?$basic_string@DU?$char_traits@D@std@@V?$allocator@D@2@@std@@@Z ; CSkinMgrV1::InsertSubject
xdata$x	SEGMENT
$T195215 DD	0ffffffffH
	DD	FLAT:$L195205
$T195209 DD	019930520H
	DD	01H
	DD	FLAT:$T195215
	DD	2 DUP(00H)
	DD	2 DUP(00H)
; Function compile flags: /Odt /RTCsu
xdata$x	ENDS
_TEXT	SEGMENT
tv160 = -72						; size = 4
tv158 = -68						; size = 4
$T195204 = -64						; size = 4
$T195203 = -60						; size = 4
_strName$192752 = -52					; size = 28
_this$ = -20						; size = 4
__$ArrayPad$ = -16					; size = 4
__$EHRec$ = -12						; size = 12
__$ReturnAddr$ = 4					; size = 4
_bSuc$ = 8						; size = 4
?OnFinishDownSubject@CSkinMgrV1@@UAEXH@Z PROC NEAR	; CSkinMgrV1::OnFinishDownSubject
; _this$ = ecx

; 821  : {

  042b0	55		 push	 ebp
  042b1	8b ec		 mov	 ebp, esp
  042b3	6a ff		 push	 -1
  042b5	68 00 00 00 00	 push	 __ehhandler$?OnFinishDownSubject@CSkinMgrV1@@UAEXH@Z
  042ba	64 a1 00 00 00
	00		 mov	 eax, DWORD PTR fs:__except_list
  042c0	50		 push	 eax
  042c1	64 89 25 00 00
	00 00		 mov	 DWORD PTR fs:__except_list, esp
  042c8	83 ec 3c	 sub	 esp, 60			; 0000003cH
  042cb	56		 push	 esi
  042cc	57		 push	 edi
  042cd	51		 push	 ecx
  042ce	8d 7d b8	 lea	 edi, DWORD PTR [ebp-72]
  042d1	b9 0f 00 00 00	 mov	 ecx, 15			; 0000000fH
  042d6	b8 cc cc cc cc	 mov	 eax, -858993460		; ccccccccH
  042db	f3 ab		 rep stosd
  042dd	59		 pop	 ecx
  042de	a1 00 00 00 00	 mov	 eax, DWORD PTR ___security_cookie
  042e3	89 45 f0	 mov	 DWORD PTR __$ArrayPad$[ebp], eax
  042e6	89 4d ec	 mov	 DWORD PTR _this$[ebp], ecx

; 822  : 	mb_isDownSubject = false;

  042e9	8b 45 ec	 mov	 eax, DWORD PTR _this$[ebp]
  042ec	c6 40 46 00	 mov	 BYTE PTR [eax+70], 0

; 823  : 	if(mb_isDownWebSub)

  042f0	8b 4d ec	 mov	 ecx, DWORD PTR _this$[ebp]
  042f3	0f b6 51 47	 movzx	 edx, BYTE PTR [ecx+71]
  042f7	85 d2		 test	 edx, edx
  042f9	0f 84 b9 00 00
	00		 je	 $L192751

; 824  : 	{
; 825  : 		string strName = m_strDownSubName;

  042ff	8b 4d ec	 mov	 ecx, DWORD PTR _this$[ebp]
  04302	83 c1 5c	 add	 ecx, 92			; 0000005cH
  04305	8b f4		 mov	 esi, esp
  04307	ff 15 00 00 00
	00		 call	 DWORD PTR __imp_??B?$CSimpleStringT@D$00@ATL@@QBEPBDXZ
  0430d	3b f4		 cmp	 esi, esp
  0430f	e8 00 00 00 00	 call	 __RTC_CheckEsp
  04314	8b f4		 mov	 esi, esp
  04316	50		 push	 eax
  04317	8d 4d cc	 lea	 ecx, DWORD PTR _strName$192752[ebp]
  0431a	ff 15 00 00 00
	00		 call	 DWORD PTR __imp_??0?$basic_string@DU?$char_traits@D@std@@V?$allocator@D@2@@std@@QAE@PBD@Z
  04320	3b f4		 cmp	 esi, esp
  04322	e8 00 00 00 00	 call	 __RTC_CheckEsp
  04327	c7 45 fc 00 00
	00 00		 mov	 DWORD PTR __$EHRec$[ebp+8], 0

; 826  : 		InsertSubject(strName);

  0432e	83 ec 1c	 sub	 esp, 28			; 0000001cH
  04331	8b cc		 mov	 ecx, esp
  04333	89 65 c4	 mov	 DWORD PTR $T195203[ebp], esp
  04336	8b f4		 mov	 esi, esp
  04338	8d 45 cc	 lea	 eax, DWORD PTR _strName$192752[ebp]
  0433b	50		 push	 eax
  0433c	ff 15 00 00 00
	00		 call	 DWORD PTR __imp_??0?$basic_string@DU?$char_traits@D@std@@V?$allocator@D@2@@std@@QAE@ABV01@@Z
  04342	3b f4		 cmp	 esi, esp
  04344	e8 00 00 00 00	 call	 __RTC_CheckEsp
  04349	89 45 bc	 mov	 DWORD PTR tv158[ebp], eax
  0434c	8b 4d ec	 mov	 ecx, DWORD PTR _this$[ebp]
  0434f	83 e9 04	 sub	 ecx, 4
  04352	e8 00 00 00 00	 call	 ?InsertSubject@CSkinMgrV1@@QAEXV?$basic_string@DU?$char_traits@D@std@@V?$allocator@D@2@@std@@@Z ; CSkinMgrV1::InsertSubject

; 827  : 		InstallWebSubject(strName);

  04357	83 ec 1c	 sub	 esp, 28			; 0000001cH
  0435a	8b cc		 mov	 ecx, esp
  0435c	89 65 c0	 mov	 DWORD PTR $T195204[ebp], esp
  0435f	8b f4		 mov	 esi, esp
  04361	8d 55 cc	 lea	 edx, DWORD PTR _strName$192752[ebp]
  04364	52		 push	 edx
  04365	ff 15 00 00 00
	00		 call	 DWORD PTR __imp_??0?$basic_string@DU?$char_traits@D@std@@V?$allocator@D@2@@std@@QAE@ABV01@@Z
  0436b	3b f4		 cmp	 esi, esp
  0436d	e8 00 00 00 00	 call	 __RTC_CheckEsp
  04372	89 45 b8	 mov	 DWORD PTR tv160[ebp], eax
  04375	8b 4d ec	 mov	 ecx, DWORD PTR _this$[ebp]
  04378	83 e9 04	 sub	 ecx, 4
  0437b	e8 00 00 00 00	 call	 ?InstallWebSubject@CSkinMgrV1@@QAEXV?$basic_string@DU?$char_traits@D@std@@V?$allocator@D@2@@std@@@Z ; CSkinMgrV1::InstallWebSubject

; 828  : 		DownloadWebSubFinish( m_strDownSubName,bSuc );

  04380	8b 45 08	 mov	 eax, DWORD PTR _bSuc$[ebp]
  04383	50		 push	 eax
  04384	8b 4d ec	 mov	 ecx, DWORD PTR _this$[ebp]
  04387	83 c1 5c	 add	 ecx, 92			; 0000005cH
  0438a	51		 push	 ecx
  0438b	8b 4d ec	 mov	 ecx, DWORD PTR _this$[ebp]
  0438e	83 e9 04	 sub	 ecx, 4
  04391	e8 00 00 00 00	 call	 ?DownloadWebSubFinish@CSkinMgrV1@@QAEXABV?$CStringT@DV?$StrTraitMFC_DLL@DV?$ChTraitsCRT@D@ATL@@@@@ATL@@H@Z ; CSkinMgrV1::DownloadWebSubFinish

; 829  : 		mb_isDownWebSub	 = false;

  04396	8b 55 ec	 mov	 edx, DWORD PTR _this$[ebp]
  04399	c6 42 47 00	 mov	 BYTE PTR [edx+71], 0

; 830  : 	}

  0439d	c7 45 fc ff ff
	ff ff		 mov	 DWORD PTR __$EHRec$[ebp+8], -1
  043a4	8b f4		 mov	 esi, esp
  043a6	8d 4d cc	 lea	 ecx, DWORD PTR _strName$192752[ebp]
  043a9	ff 15 00 00 00
	00		 call	 DWORD PTR __imp_??1?$basic_string@DU?$char_traits@D@std@@V?$allocator@D@2@@std@@QAE@XZ
  043af	3b f4		 cmp	 esi, esp
  043b1	e8 00 00 00 00	 call	 __RTC_CheckEsp

; 831  : 	else

  043b6	eb 16		 jmp	 SHORT $L192750
$L192751:

; 832  : 		DownloadSubFinish( m_strDownSubName,bSuc );

  043b8	8b 45 08	 mov	 eax, DWORD PTR _bSuc$[ebp]
  043bb	50		 push	 eax
  043bc	8b 4d ec	 mov	 ecx, DWORD PTR _this$[ebp]
  043bf	83 c1 5c	 add	 ecx, 92			; 0000005cH
  043c2	51		 push	 ecx
  043c3	8b 4d ec	 mov	 ecx, DWORD PTR _this$[ebp]
  043c6	83 e9 04	 sub	 ecx, 4
  043c9	e8 00 00 00 00	 call	 ?DownloadSubFinish@CSkinMgrV1@@QAEXABV?$CStringT@DV?$StrTraitMFC_DLL@DV?$ChTraitsCRT@D@ATL@@@@@ATL@@H@Z ; CSkinMgrV1::DownloadSubFinish
$L192750:

; 833  : }

  043ce	52		 push	 edx
  043cf	8b cd		 mov	 ecx, ebp
  043d1	50		 push	 eax
  043d2	8d 15 00 00 00
	00		 lea	 edx, DWORD PTR $L195214
  043d8	e8 00 00 00 00	 call	 @_RTC_CheckStackVars@8
  043dd	58		 pop	 eax
  043de	5a		 pop	 edx
  043df	8b 4d f4	 mov	 ecx, DWORD PTR __$EHRec$[ebp]
  043e2	64 89 0d 00 00
	00 00		 mov	 DWORD PTR fs:__except_list, ecx
  043e9	8b 4d f0	 mov	 ecx, DWORD PTR __$ArrayPad$[ebp]
  043ec	e8 00 00 00 00	 call	 @__security_check_cookie@4
  043f1	5f		 pop	 edi
  043f2	5e		 pop	 esi
  043f3	83 c4 48	 add	 esp, 72			; 00000048H
  043f6	3b ec		 cmp	 ebp, esp
  043f8	e8 00 00 00 00	 call	 __RTC_CheckEsp
  043fd	8b e5		 mov	 esp, ebp
  043ff	5d		 pop	 ebp
  04400	c2 04 00	 ret	 4
$L195214:
  04403	01 00 00 00	 DD	 1
  04407	00 00 00 00	 DD	 $L195213
$L195213:
  0440b	cc ff ff ff	 DD	 -52			; ffffffccH
  0440f	1c 00 00 00	 DD	 28			; 0000001cH
  04413	00 00 00 00	 DD	 $L195210
$L195210:
  04417	73		 DB	 115			; 00000073H
  04418	74		 DB	 116			; 00000074H
  04419	72		 DB	 114			; 00000072H
  0441a	4e		 DB	 78			; 0000004eH
  0441b	61		 DB	 97			; 00000061H
  0441c	6d		 DB	 109			; 0000006dH
  0441d	65		 DB	 101			; 00000065H
  0441e	00		 DB	 0
_TEXT	ENDS
text$x	SEGMENT
$L195205:
  00863	8b f4		 mov	 esi, esp
  00865	8d 4d cc	 lea	 ecx, DWORD PTR _strName$192752[ebp]
  00868	ff 15 00 00 00
	00		 call	 DWORD PTR __imp_??1?$basic_string@DU?$char_traits@D@std@@V?$allocator@D@2@@std@@QAE@XZ
  0086e	3b f4		 cmp	 esi, esp
  00870	e9 00 00 00 00	 jmp	 __RTC_CheckEsp
__ehhandler$?OnFinishDownSubject@CSkinMgrV1@@UAEXH@Z:
  00875	b8 00 00 00 00	 mov	 eax, OFFSET FLAT:$T195209
  0087a	e9 00 00 00 00	 jmp	 ___CxxFrameHandler
text$x	ENDS
?OnFinishDownSubject@CSkinMgrV1@@UAEXH@Z ENDP		; CSkinMgrV1::OnFinishDownSubject
; Function compile flags: /Odt /RTCsu
_TEXT	SEGMENT
_this$ = -4						; size = 4
_strSubName$ = 8					; size = 28
?InsertSubject@CSkinMgrV1@@QAEXV?$basic_string@DU?$char_traits@D@std@@V?$allocator@D@2@@std@@@Z PROC NEAR ; CSkinMgrV1::InsertSubject
; _this$ = ecx

; 836  : {

  04420	55		 push	 ebp
  04421	8b ec		 mov	 ebp, esp
  04423	51		 push	 ecx
  04424	56		 push	 esi
  04425	c7 45 fc cc cc
	cc cc		 mov	 DWORD PTR [ebp-4], -858993460 ; ccccccccH
  0442c	89 4d fc	 mov	 DWORD PTR _this$[ebp], ecx

; 837  : }

  0442f	8b f4		 mov	 esi, esp
  04431	8d 4d 08	 lea	 ecx, DWORD PTR _strSubName$[ebp]
  04434	ff 15 00 00 00
	00		 call	 DWORD PTR __imp_??1?$basic_string@DU?$char_traits@D@std@@V?$allocator@D@2@@std@@QAE@XZ
  0443a	3b f4		 cmp	 esi, esp
  0443c	e8 00 00 00 00	 call	 __RTC_CheckEsp
  04441	5e		 pop	 esi
  04442	83 c4 04	 add	 esp, 4
  04445	3b ec		 cmp	 ebp, esp
  04447	e8 00 00 00 00	 call	 __RTC_CheckEsp
  0444c	8b e5		 mov	 esp, ebp
  0444e	5d		 pop	 ebp
  0444f	c2 1c 00	 ret	 28			; 0000001cH
?InsertSubject@CSkinMgrV1@@QAEXV?$basic_string@DU?$char_traits@D@std@@V?$allocator@D@2@@std@@@Z ENDP ; CSkinMgrV1::InsertSubject
; Function compile flags: /Odt /RTCsu
_this$ = -4						; size = 4
_strSubName$ = 8					; size = 28
?InstallWebSubject@CSkinMgrV1@@QAEXV?$basic_string@DU?$char_traits@D@std@@V?$allocator@D@2@@std@@@Z PROC NEAR ; CSkinMgrV1::InstallWebSubject
; _this$ = ecx

; 840  : {

  04460	55		 push	 ebp
  04461	8b ec		 mov	 ebp, esp
  04463	51		 push	 ecx
  04464	56		 push	 esi
  04465	c7 45 fc cc cc
	cc cc		 mov	 DWORD PTR [ebp-4], -858993460 ; ccccccccH
  0446c	89 4d fc	 mov	 DWORD PTR _this$[ebp], ecx

; 841  : }

  0446f	8b f4		 mov	 esi, esp
  04471	8d 4d 08	 lea	 ecx, DWORD PTR _strSubName$[ebp]
  04474	ff 15 00 00 00
	00		 call	 DWORD PTR __imp_??1?$basic_string@DU?$char_traits@D@std@@V?$allocator@D@2@@std@@QAE@XZ
  0447a	3b f4		 cmp	 esi, esp
  0447c	e8 00 00 00 00	 call	 __RTC_CheckEsp
  04481	5e		 pop	 esi
  04482	83 c4 04	 add	 esp, 4
  04485	3b ec		 cmp	 ebp, esp
  04487	e8 00 00 00 00	 call	 __RTC_CheckEsp
  0448c	8b e5		 mov	 esp, ebp
  0448e	5d		 pop	 ebp
  0448f	c2 1c 00	 ret	 28			; 0000001cH
?InstallWebSubject@CSkinMgrV1@@QAEXV?$basic_string@DU?$char_traits@D@std@@V?$allocator@D@2@@std@@@Z ENDP ; CSkinMgrV1::InstallWebSubject
_TEXT	ENDS
EXTRN	?ReqDownWebSub@CDownSub@@SAXABV?$CStringT@DV?$StrTraitMFC_DLL@DV?$ChTraitsCRT@D@ATL@@@@@ATL@@0PAUHWND__@@@Z:NEAR ; CDownSub::ReqDownWebSub
EXTRN	?IsDownWebSub@CDownSub@@SA_NXZ:NEAR		; CDownSub::IsDownWebSub
EXTRN	?ShowToolTip@CMainSkinWnd@@QAEXH@Z:NEAR		; CMainSkinWnd::ShowToolTip
EXTRN	?SetToolTip@CMainSkinWnd@@QAEXV?$CStringT@DV?$StrTraitMFC_DLL@DV?$ChTraitsCRT@D@ATL@@@@@ATL@@@Z:NEAR ; CMainSkinWnd::SetToolTip
EXTRN	?ClickSubBtn@CSubjectChildWnd@@QAEXABV?$CStringT@DV?$StrTraitMFC_DLL@DV?$ChTraitsCRT@D@ATL@@@@@ATL@@0@Z:NEAR ; CSubjectChildWnd::ClickSubBtn
xdata$x	SEGMENT
$T195228 DD	0ffffffffH
	DD	FLAT:$L195224
$T195226 DD	019930520H
	DD	01H
	DD	FLAT:$T195228
	DD	2 DUP(00H)
	DD	2 DUP(00H)
; Function compile flags: /Odt /RTCsu
xdata$x	ENDS
_TEXT	SEGMENT
tv134 = -40						; size = 4
tv129 = -36						; size = 4
tv173 = -32						; size = 4
$T195222 = -28						; size = 4
$T195221 = -24						; size = 4
_onesub$ = -20						; size = 4
_this$ = -16						; size = 4
__$EHRec$ = -12						; size = 12
_strUrl$ = 8						; size = 4
_strid$ = 12						; size = 4
?DownloadWebSub@CSkinMgrV1@@UAEXABV?$CStringT@DV?$StrTraitMFC_DLL@DV?$ChTraitsCRT@D@ATL@@@@@ATL@@0@Z PROC NEAR ; CSkinMgrV1::DownloadWebSub
; _this$ = ecx

; 843  : {

  044a0	55		 push	 ebp
  044a1	8b ec		 mov	 ebp, esp
  044a3	6a ff		 push	 -1
  044a5	68 00 00 00 00	 push	 __ehhandler$?DownloadWebSub@CSkinMgrV1@@UAEXABV?$CStringT@DV?$StrTraitMFC_DLL@DV?$ChTraitsCRT@D@ATL@@@@@ATL@@0@Z
  044aa	64 a1 00 00 00
	00		 mov	 eax, DWORD PTR fs:__except_list
  044b0	50		 push	 eax
  044b1	64 89 25 00 00
	00 00		 mov	 DWORD PTR fs:__except_list, esp
  044b8	83 ec 1c	 sub	 esp, 28			; 0000001cH
  044bb	56		 push	 esi
  044bc	b8 cc cc cc cc	 mov	 eax, -858993460		; ccccccccH
  044c1	89 45 d8	 mov	 DWORD PTR [ebp-40], eax
  044c4	89 45 dc	 mov	 DWORD PTR [ebp-36], eax
  044c7	89 45 e0	 mov	 DWORD PTR [ebp-32], eax
  044ca	89 45 e4	 mov	 DWORD PTR [ebp-28], eax
  044cd	89 45 e8	 mov	 DWORD PTR [ebp-24], eax
  044d0	89 45 ec	 mov	 DWORD PTR [ebp-20], eax
  044d3	89 45 f0	 mov	 DWORD PTR [ebp-16], eax
  044d6	89 4d f0	 mov	 DWORD PTR _this$[ebp], ecx

; 844  : //	EnterCriticalSection( &m_csDownInfo );
; 845  : 	if( !mp_skinWnd || !mp_mainSkinWnd) return;

  044d9	8b 45 f0	 mov	 eax, DWORD PTR _this$[ebp]
  044dc	83 78 14 00	 cmp	 DWORD PTR [eax+20], 0
  044e0	74 09		 je	 SHORT $L192770
  044e2	8b 4d f0	 mov	 ecx, DWORD PTR _this$[ebp]
  044e5	83 79 10 00	 cmp	 DWORD PTR [ecx+16], 0
  044e9	75 05		 jne	 SHORT $L192769
$L192770:
  044eb	e9 5d 01 00 00	 jmp	 $L192768
$L192769:

; 846  : 	if(mb_isDownWebSub&&CDownSub::IsDownWebSub())

  044f0	8b 55 f0	 mov	 edx, DWORD PTR _this$[ebp]
  044f3	0f b6 42 4b	 movzx	 eax, BYTE PTR [edx+75]
  044f7	85 c0		 test	 eax, eax
  044f9	74 46		 je	 SHORT $L192771
  044fb	e8 00 00 00 00	 call	 ?IsDownWebSub@CDownSub@@SA_NXZ ; CDownSub::IsDownWebSub
  04500	0f b6 c8	 movzx	 ecx, al
  04503	85 c9		 test	 ecx, ecx
  04505	74 3a		 je	 SHORT $L192771

; 847  : 	{
; 848  : 		mp_mainSkinWnd->SetToolTip("...");

  04507	51		 push	 ecx
  04508	8b cc		 mov	 ecx, esp
  0450a	89 65 e8	 mov	 DWORD PTR $T195221[ebp], esp
  0450d	8b f4		 mov	 esi, esp
  0450f	68 00 00 00 00	 push	 OFFSET FLAT:$SG192773
  04514	ff 15 00 00 00
	00		 call	 DWORD PTR __imp_??0?$CStringT@DV?$StrTraitMFC_DLL@DV?$ChTraitsCRT@D@ATL@@@@@ATL@@QAE@PBD@Z
  0451a	3b f4		 cmp	 esi, esp
  0451c	e8 00 00 00 00	 call	 __RTC_CheckEsp
  04521	89 45 e0	 mov	 DWORD PTR tv173[ebp], eax
  04524	8b 55 f0	 mov	 edx, DWORD PTR _this$[ebp]
  04527	8b 4a 10	 mov	 ecx, DWORD PTR [edx+16]
  0452a	e8 00 00 00 00	 call	 ?SetToolTip@CMainSkinWnd@@QAEXV?$CStringT@DV?$StrTraitMFC_DLL@DV?$ChTraitsCRT@D@ATL@@@@@ATL@@@Z ; CMainSkinWnd::SetToolTip

; 849  : 		mp_mainSkinWnd->ShowToolTip(1);

  0452f	6a 01		 push	 1
  04531	8b 45 f0	 mov	 eax, DWORD PTR _this$[ebp]
  04534	8b 48 10	 mov	 ecx, DWORD PTR [eax+16]
  04537	e8 00 00 00 00	 call	 ?ShowToolTip@CMainSkinWnd@@QAEXH@Z ; CMainSkinWnd::ShowToolTip

; 850  : 		return;

  0453c	e9 0c 01 00 00	 jmp	 $L192768
$L192771:

; 851  : 	}
; 852  : 	OneSubject * onesub = AfxGetUIManager()->UIGetSkinMgr()->GetOneSubject(strid);

  04541	e8 00 00 00 00	 call	 ?AfxGetUIManager@@YAPAVIUIManager@@XZ ; AfxGetUIManager
  04546	89 45 dc	 mov	 DWORD PTR tv129[ebp], eax
  04549	8b f4		 mov	 esi, esp
  0454b	8b 4d dc	 mov	 ecx, DWORD PTR tv129[ebp]
  0454e	8b 11		 mov	 edx, DWORD PTR [ecx]
  04550	8b 4d dc	 mov	 ecx, DWORD PTR tv129[ebp]
  04553	ff 52 28	 call	 DWORD PTR [edx+40]
  04556	3b f4		 cmp	 esi, esp
  04558	e8 00 00 00 00	 call	 __RTC_CheckEsp
  0455d	89 45 d8	 mov	 DWORD PTR tv134[ebp], eax
  04560	8b f4		 mov	 esi, esp
  04562	8b 45 0c	 mov	 eax, DWORD PTR _strid$[ebp]
  04565	50		 push	 eax
  04566	8b 4d d8	 mov	 ecx, DWORD PTR tv134[ebp]
  04569	8b 11		 mov	 edx, DWORD PTR [ecx]
  0456b	8b 4d d8	 mov	 ecx, DWORD PTR tv134[ebp]
  0456e	ff 52 2c	 call	 DWORD PTR [edx+44]
  04571	3b f4		 cmp	 esi, esp
  04573	e8 00 00 00 00	 call	 __RTC_CheckEsp
  04578	89 45 ec	 mov	 DWORD PTR _onesub$[ebp], eax

; 853  : 	if(onesub!=NULL)

  0457b	83 7d ec 00	 cmp	 DWORD PTR _onesub$[ebp], 0
  0457f	74 79		 je	 SHORT $L192775

; 854  : 	{
; 855  : 		mb_isDownWebSub = false;

  04581	8b 45 f0	 mov	 eax, DWORD PTR _this$[ebp]
  04584	c6 40 4b 00	 mov	 BYTE PTR [eax+75], 0

; 856  : 		if(mp_SubjectWnd&&IsWindow(mp_SubjectWnd->m_hWnd))

  04588	8b 4d f0	 mov	 ecx, DWORD PTR _this$[ebp]
  0458b	83 79 18 00	 cmp	 DWORD PTR [ecx+24], 0
  0458f	74 67		 je	 SHORT $L192776
  04591	8b 55 f0	 mov	 edx, DWORD PTR _this$[ebp]
  04594	8b 42 18	 mov	 eax, DWORD PTR [edx+24]
  04597	8b f4		 mov	 esi, esp
  04599	8b 48 20	 mov	 ecx, DWORD PTR [eax+32]
  0459c	51		 push	 ecx
  0459d	ff 15 00 00 00
	00		 call	 DWORD PTR __imp__IsWindow@4
  045a3	3b f4		 cmp	 esi, esp
  045a5	e8 00 00 00 00	 call	 __RTC_CheckEsp
  045aa	85 c0		 test	 eax, eax
  045ac	74 4a		 je	 SHORT $L192776

; 857  : 			mp_SubjectWnd->ClickSubBtn("",strid);

  045ae	8b f4		 mov	 esi, esp
  045b0	68 00 00 00 00	 push	 OFFSET FLAT:$SG192778
  045b5	8d 4d e4	 lea	 ecx, DWORD PTR $T195222[ebp]
  045b8	ff 15 00 00 00
	00		 call	 DWORD PTR __imp_??0?$CStringT@DV?$StrTraitMFC_DLL@DV?$ChTraitsCRT@D@ATL@@@@@ATL@@QAE@PBD@Z
  045be	3b f4		 cmp	 esi, esp
  045c0	e8 00 00 00 00	 call	 __RTC_CheckEsp
  045c5	c7 45 fc 00 00
	00 00		 mov	 DWORD PTR __$EHRec$[ebp+8], 0
  045cc	8b 55 0c	 mov	 edx, DWORD PTR _strid$[ebp]
  045cf	52		 push	 edx
  045d0	8d 45 e4	 lea	 eax, DWORD PTR $T195222[ebp]
  045d3	50		 push	 eax
  045d4	8b 4d f0	 mov	 ecx, DWORD PTR _this$[ebp]
  045d7	8b 49 18	 mov	 ecx, DWORD PTR [ecx+24]
  045da	e8 00 00 00 00	 call	 ?ClickSubBtn@CSubjectChildWnd@@QAEXABV?$CStringT@DV?$StrTraitMFC_DLL@DV?$ChTraitsCRT@D@ATL@@@@@ATL@@0@Z ; CSubjectChildWnd::ClickSubBtn
  045df	c7 45 fc ff ff
	ff ff		 mov	 DWORD PTR __$EHRec$[ebp+8], -1
  045e6	8b f4		 mov	 esi, esp
  045e8	8d 4d e4	 lea	 ecx, DWORD PTR $T195222[ebp]
  045eb	ff 15 00 00 00
	00		 call	 DWORD PTR __imp_??1?$CStringT@DV?$StrTraitMFC_DLL@DV?$ChTraitsCRT@D@ATL@@@@@ATL@@QAE@XZ
  045f1	3b f4		 cmp	 esi, esp
  045f3	e8 00 00 00 00	 call	 __RTC_CheckEsp
$L192776:

; 858  : 		return;

  045f8	eb 53		 jmp	 SHORT $L192768
$L192775:

; 859  : 	}
; 860  : 
; 861  : 	mp_mainSkinWnd->ShowToolTip(0);

  045fa	6a 00		 push	 0
  045fc	8b 55 f0	 mov	 edx, DWORD PTR _this$[ebp]
  045ff	8b 4a 10	 mov	 ecx, DWORD PTR [edx+16]
  04602	e8 00 00 00 00	 call	 ?ShowToolTip@CMainSkinWnd@@QAEXH@Z ; CMainSkinWnd::ShowToolTip

; 862  : 	DownloadSubStart(strid);

  04607	8b 45 0c	 mov	 eax, DWORD PTR _strid$[ebp]
  0460a	50		 push	 eax
  0460b	8b 4d f0	 mov	 ecx, DWORD PTR _this$[ebp]
  0460e	e8 00 00 00 00	 call	 ?DownloadSubStart@CSkinMgrV1@@QAEXABV?$CStringT@DV?$StrTraitMFC_DLL@DV?$ChTraitsCRT@D@ATL@@@@@ATL@@@Z ; CSkinMgrV1::DownloadSubStart

; 863  : 	mb_isDownWebSub = true;

  04613	8b 4d f0	 mov	 ecx, DWORD PTR _this$[ebp]
  04616	c6 41 4b 01	 mov	 BYTE PTR [ecx+75], 1

; 864  : 	CDownSub::ReqDownWebSub( strUrl,strid,mp_downloadSubject->m_hWnd );

  0461a	8b 55 f0	 mov	 edx, DWORD PTR _this$[ebp]
  0461d	8b 42 24	 mov	 eax, DWORD PTR [edx+36]
  04620	8b 48 20	 mov	 ecx, DWORD PTR [eax+32]
  04623	51		 push	 ecx
  04624	8b 55 0c	 mov	 edx, DWORD PTR _strid$[ebp]
  04627	52		 push	 edx
  04628	8b 45 08	 mov	 eax, DWORD PTR _strUrl$[ebp]
  0462b	50		 push	 eax
  0462c	e8 00 00 00 00	 call	 ?ReqDownWebSub@CDownSub@@SAXABV?$CStringT@DV?$StrTraitMFC_DLL@DV?$ChTraitsCRT@D@ATL@@@@@ATL@@0PAUHWND__@@@Z ; CDownSub::ReqDownWebSub
  04631	83 c4 0c	 add	 esp, 12			; 0000000cH

; 865  : 	m_strDownSubName = strid;

  04634	8b f4		 mov	 esi, esp
  04636	8b 4d 0c	 mov	 ecx, DWORD PTR _strid$[ebp]
  04639	51		 push	 ecx
  0463a	8b 4d f0	 mov	 ecx, DWORD PTR _this$[ebp]
  0463d	83 c1 60	 add	 ecx, 96			; 00000060H
  04640	ff 15 00 00 00
	00		 call	 DWORD PTR __imp_??4?$CStringT@DV?$StrTraitMFC_DLL@DV?$ChTraitsCRT@D@ATL@@@@@ATL@@QAEAAV01@ABV01@@Z
  04646	3b f4		 cmp	 esi, esp
  04648	e8 00 00 00 00	 call	 __RTC_CheckEsp
$L192768:

; 866  : //	LeaveCriticalSection(&m_csDownInfo);
; 867  : }

  0464d	8b 4d f4	 mov	 ecx, DWORD PTR __$EHRec$[ebp]
  04650	64 89 0d 00 00
	00 00		 mov	 DWORD PTR fs:__except_list, ecx
  04657	5e		 pop	 esi
  04658	83 c4 28	 add	 esp, 40			; 00000028H
  0465b	3b ec		 cmp	 ebp, esp
  0465d	e8 00 00 00 00	 call	 __RTC_CheckEsp
  04662	8b e5		 mov	 esp, ebp
  04664	5d		 pop	 ebp
  04665	c2 08 00	 ret	 8
_TEXT	ENDS
text$x	SEGMENT
$L195224:
  0087f	8b f4		 mov	 esi, esp
  00881	8d 4d e4	 lea	 ecx, DWORD PTR $T195222[ebp]
  00884	ff 15 00 00 00
	00		 call	 DWORD PTR __imp_??1?$CStringT@DV?$StrTraitMFC_DLL@DV?$ChTraitsCRT@D@ATL@@@@@ATL@@QAE@XZ
  0088a	3b f4		 cmp	 esi, esp
  0088c	e9 00 00 00 00	 jmp	 __RTC_CheckEsp
__ehhandler$?DownloadWebSub@CSkinMgrV1@@UAEXABV?$CStringT@DV?$StrTraitMFC_DLL@DV?$ChTraitsCRT@D@ATL@@@@@ATL@@0@Z:
  00891	b8 00 00 00 00	 mov	 eax, OFFSET FLAT:$T195226
  00896	e9 00 00 00 00	 jmp	 ___CxxFrameHandler
text$x	ENDS
?DownloadWebSub@CSkinMgrV1@@UAEXABV?$CStringT@DV?$StrTraitMFC_DLL@DV?$ChTraitsCRT@D@ATL@@@@@ATL@@0@Z ENDP ; CSkinMgrV1::DownloadWebSub
PUBLIC	?SetEventListener@CDownloadPercentWnd@@QAEXPAVIEventListener@@@Z ; CDownloadPercentWnd::SetEventListener
EXTRN	?EnableSkinBtn@CSubjectChildWnd@@QAEXH@Z:NEAR	; CSubjectChildWnd::EnableSkinBtn
xdata$x	SEGMENT
$T195242 DD	0ffffffffH
	DD	FLAT:$L195233
$T195236 DD	019930520H
	DD	01H
	DD	FLAT:$T195242
	DD	2 DUP(00H)
	DD	2 DUP(00H)
; Function compile flags: /Odt /RTCsu
xdata$x	ENDS
_TEXT	SEGMENT
tv190 = -76						; size = 4
tv144 = -72						; size = 4
tv139 = -68						; size = 4
tv135 = -64						; size = 4
$T195232 = -60						; size = 4
_strHit$192789 = -52					; size = 4
_pOneSub$192788 = -44					; size = 4
_lClient$ = -36						; size = 16
_this$ = -16						; size = 4
__$EHRec$ = -12						; size = 12
_strSub$ = 8						; size = 4
?DownloadSubStart@CSkinMgrV1@@QAEXABV?$CStringT@DV?$StrTraitMFC_DLL@DV?$ChTraitsCRT@D@ATL@@@@@ATL@@@Z PROC NEAR ; CSkinMgrV1::DownloadSubStart
; _this$ = ecx

; 870  : {

  04670	55		 push	 ebp
  04671	8b ec		 mov	 ebp, esp
  04673	6a ff		 push	 -1
  04675	68 00 00 00 00	 push	 __ehhandler$?DownloadSubStart@CSkinMgrV1@@QAEXABV?$CStringT@DV?$StrTraitMFC_DLL@DV?$ChTraitsCRT@D@ATL@@@@@ATL@@@Z
  0467a	64 a1 00 00 00
	00		 mov	 eax, DWORD PTR fs:__except_list
  04680	50		 push	 eax
  04681	64 89 25 00 00
	00 00		 mov	 DWORD PTR fs:__except_list, esp
  04688	83 ec 40	 sub	 esp, 64			; 00000040H
  0468b	56		 push	 esi
  0468c	57		 push	 edi
  0468d	51		 push	 ecx
  0468e	8d 7d b4	 lea	 edi, DWORD PTR [ebp-76]
  04691	b9 10 00 00 00	 mov	 ecx, 16			; 00000010H
  04696	b8 cc cc cc cc	 mov	 eax, -858993460		; ccccccccH
  0469b	f3 ab		 rep stosd
  0469d	59		 pop	 ecx
  0469e	89 4d f0	 mov	 DWORD PTR _this$[ebp], ecx

; 871  : 	if( !mp_skinWnd ) return;

  046a1	8b 45 f0	 mov	 eax, DWORD PTR _this$[ebp]
  046a4	83 78 14 00	 cmp	 DWORD PTR [eax+20], 0
  046a8	75 05		 jne	 SHORT $L192783
  046aa	e9 b3 01 00 00	 jmp	 $L192782
$L192783:

; 872  : 	CRect lClient;

  046af	8d 4d dc	 lea	 ecx, DWORD PTR _lClient$[ebp]
  046b2	e8 00 00 00 00	 call	 ??0CRect@@QAE@XZ	; CRect::CRect

; 873  : 
; 874  : 	lClient.SetRect(3,235,297,285);

  046b7	68 1d 01 00 00	 push	 285			; 0000011dH
  046bc	68 29 01 00 00	 push	 297			; 00000129H
  046c1	68 eb 00 00 00	 push	 235			; 000000ebH
  046c6	6a 03		 push	 3
  046c8	8d 4d dc	 lea	 ecx, DWORD PTR _lClient$[ebp]
  046cb	e8 00 00 00 00	 call	 ?SetRect@CRect@@QAEXHHHH@Z ; CRect::SetRect

; 875  : 
; 876  : 	if(mp_SubjectWnd != NULL)

  046d0	8b 4d f0	 mov	 ecx, DWORD PTR _this$[ebp]
  046d3	83 79 18 00	 cmp	 DWORD PTR [ecx+24], 0
  046d7	74 0d		 je	 SHORT $L192785

; 877  : 	{
; 878  : 		mp_SubjectWnd->EnableSkinBtn( FALSE );

  046d9	6a 00		 push	 0
  046db	8b 55 f0	 mov	 edx, DWORD PTR _this$[ebp]
  046de	8b 4a 18	 mov	 ecx, DWORD PTR [edx+24]
  046e1	e8 00 00 00 00	 call	 ?EnableSkinBtn@CSubjectChildWnd@@QAEXH@Z ; CSubjectChildWnd::EnableSkinBtn
$L192785:

; 879  : 	}
; 880  : 	if(mp_skinWnd != NULL )

  046e6	8b 45 f0	 mov	 eax, DWORD PTR _this$[ebp]
  046e9	83 78 14 00	 cmp	 DWORD PTR [eax+20], 0
  046ed	74 0d		 je	 SHORT $L192786

; 881  : 	{
; 882  : 		mp_skinWnd->EnableSkinBtn( FALSE );

  046ef	6a 00		 push	 0
  046f1	8b 4d f0	 mov	 ecx, DWORD PTR _this$[ebp]
  046f4	8b 49 14	 mov	 ecx, DWORD PTR [ecx+20]
  046f7	e8 00 00 00 00	 call	 ?EnableSkinBtn@CSkinWnd@@QAEXH@Z ; CSkinWnd::EnableSkinBtn
$L192786:

; 883  : 	}
; 884  : 
; 885  : 	if( !m_bShowSkinWnd )

  046fc	8b 55 f0	 mov	 edx, DWORD PTR _this$[ebp]
  046ff	0f b6 42 64	 movzx	 eax, BYTE PTR [edx+100]
  04703	85 c0		 test	 eax, eax
  04705	0f 85 57 01 00
	00		 jne	 $L192782

; 886  : 	{
; 887  : 		mp_downloadSubject->MoveWindow( lClient );

  0470b	6a 01		 push	 1
  0470d	8d 4d dc	 lea	 ecx, DWORD PTR _lClient$[ebp]
  04710	e8 00 00 00 00	 call	 ??BCRect@@QAEPAUtagRECT@@XZ ; CRect::operator tagRECT *
  04715	50		 push	 eax
  04716	8b 4d f0	 mov	 ecx, DWORD PTR _this$[ebp]
  04719	8b 49 24	 mov	 ecx, DWORD PTR [ecx+36]
  0471c	e8 00 00 00 00	 call	 ?MoveWindow@CWnd@@QAEXPBUtagRECT@@H@Z ; CWnd::MoveWindow

; 888  : 		mp_downloadSubject->ShowWindow( SW_SHOW );	

  04721	6a 05		 push	 5
  04723	8b 55 f0	 mov	 edx, DWORD PTR _this$[ebp]
  04726	8b 4a 24	 mov	 ecx, DWORD PTR [edx+36]
  04729	e8 00 00 00 00	 call	 ?ShowWindow@CWnd@@QAEHH@Z ; CWnd::ShowWindow

; 889  : 
; 890  : 		mp_downloadSubject->SetEventListener( this );

  0472e	83 7d f0 00	 cmp	 DWORD PTR _this$[ebp], 0
  04732	74 0b		 je	 SHORT $L195230
  04734	8b 45 f0	 mov	 eax, DWORD PTR _this$[ebp]
  04737	83 c0 04	 add	 eax, 4
  0473a	89 45 c0	 mov	 DWORD PTR tv135[ebp], eax
  0473d	eb 07		 jmp	 SHORT $L195231
$L195230:
  0473f	c7 45 c0 00 00
	00 00		 mov	 DWORD PTR tv135[ebp], 0
$L195231:
  04746	8b 4d c0	 mov	 ecx, DWORD PTR tv135[ebp]
  04749	51		 push	 ecx
  0474a	8b 55 f0	 mov	 edx, DWORD PTR _this$[ebp]
  0474d	8b 4a 24	 mov	 ecx, DWORD PTR [edx+36]
  04750	e8 00 00 00 00	 call	 ?SetEventListener@CDownloadPercentWnd@@QAEXPAVIEventListener@@@Z ; CDownloadPercentWnd::SetEventListener

; 891  : 
; 892  : 		OneSubject* pOneSub = AfxGetUIManager()->UIGetSkinMgr()->GetOneSubject( strSub );

  04755	e8 00 00 00 00	 call	 ?AfxGetUIManager@@YAPAVIUIManager@@XZ ; AfxGetUIManager
  0475a	89 45 bc	 mov	 DWORD PTR tv139[ebp], eax
  0475d	8b f4		 mov	 esi, esp
  0475f	8b 45 bc	 mov	 eax, DWORD PTR tv139[ebp]
  04762	8b 10		 mov	 edx, DWORD PTR [eax]
  04764	8b 4d bc	 mov	 ecx, DWORD PTR tv139[ebp]
  04767	ff 52 28	 call	 DWORD PTR [edx+40]
  0476a	3b f4		 cmp	 esi, esp
  0476c	e8 00 00 00 00	 call	 __RTC_CheckEsp
  04771	89 45 b8	 mov	 DWORD PTR tv144[ebp], eax
  04774	8b f4		 mov	 esi, esp
  04776	8b 45 08	 mov	 eax, DWORD PTR _strSub$[ebp]
  04779	50		 push	 eax
  0477a	8b 4d b8	 mov	 ecx, DWORD PTR tv144[ebp]
  0477d	8b 11		 mov	 edx, DWORD PTR [ecx]
  0477f	8b 4d b8	 mov	 ecx, DWORD PTR tv144[ebp]
  04782	ff 52 2c	 call	 DWORD PTR [edx+44]
  04785	3b f4		 cmp	 esi, esp
  04787	e8 00 00 00 00	 call	 __RTC_CheckEsp
  0478c	89 45 d4	 mov	 DWORD PTR _pOneSub$192788[ebp], eax

; 893  : 		
; 894  : 
; 895  : 		CString strHit = "";

  0478f	8b f4		 mov	 esi, esp
  04791	68 00 00 00 00	 push	 OFFSET FLAT:$SG192790
  04796	8d 4d cc	 lea	 ecx, DWORD PTR _strHit$192789[ebp]
  04799	ff 15 00 00 00
	00		 call	 DWORD PTR __imp_??0?$CStringT@DV?$StrTraitMFC_DLL@DV?$ChTraitsCRT@D@ATL@@@@@ATL@@QAE@PBD@Z
  0479f	3b f4		 cmp	 esi, esp
  047a1	e8 00 00 00 00	 call	 __RTC_CheckEsp
  047a6	c7 45 fc 00 00
	00 00		 mov	 DWORD PTR __$EHRec$[ebp+8], 0

; 896  : 		if( pOneSub != NULL )

  047ad	83 7d d4 00	 cmp	 DWORD PTR _pOneSub$192788[ebp], 0
  047b1	74 33		 je	 SHORT $L192791

; 897  : 		{
; 898  : 			strHit.Format( " \"%s\" ",pOneSub->strShowName.c_str()  );

  047b3	8b 4d d4	 mov	 ecx, DWORD PTR _pOneSub$192788[ebp]
  047b6	83 c1 38	 add	 ecx, 56			; 00000038H
  047b9	8b f4		 mov	 esi, esp
  047bb	ff 15 00 00 00
	00		 call	 DWORD PTR __imp_?c_str@?$basic_string@DU?$char_traits@D@std@@V?$allocator@D@2@@std@@QBEPBDXZ
  047c1	3b f4		 cmp	 esi, esp
  047c3	e8 00 00 00 00	 call	 __RTC_CheckEsp
  047c8	8b f4		 mov	 esi, esp
  047ca	50		 push	 eax
  047cb	68 00 00 00 00	 push	 OFFSET FLAT:$SG192792
  047d0	8d 45 cc	 lea	 eax, DWORD PTR _strHit$192789[ebp]
  047d3	50		 push	 eax
  047d4	ff 15 00 00 00
	00		 call	 DWORD PTR __imp_?Format@?$CStringT@DV?$StrTraitMFC_DLL@DV?$ChTraitsCRT@D@ATL@@@@@ATL@@QAAXPBDZZ
  047da	83 c4 0c	 add	 esp, 12			; 0000000cH
  047dd	3b f4		 cmp	 esi, esp
  047df	e8 00 00 00 00	 call	 __RTC_CheckEsp

; 899  : 		}
; 900  : 		else

  047e4	eb 1b		 jmp	 SHORT $L192793
$L192791:

; 901  : 		{
; 902  : 			strHit.Format( "");

  047e6	8b f4		 mov	 esi, esp
  047e8	68 00 00 00 00	 push	 OFFSET FLAT:$SG192794
  047ed	8d 4d cc	 lea	 ecx, DWORD PTR _strHit$192789[ebp]
  047f0	51		 push	 ecx
  047f1	ff 15 00 00 00
	00		 call	 DWORD PTR __imp_?Format@?$CStringT@DV?$StrTraitMFC_DLL@DV?$ChTraitsCRT@D@ATL@@@@@ATL@@QAAXPBDZZ
  047f7	83 c4 08	 add	 esp, 8
  047fa	3b f4		 cmp	 esi, esp
  047fc	e8 00 00 00 00	 call	 __RTC_CheckEsp
$L192793:

; 903  : 		}
; 904  : 
; 905  : 		mp_downloadSubject->SetDownloadHit( strHit );		

  04801	51		 push	 ecx
  04802	8b cc		 mov	 ecx, esp
  04804	89 65 c4	 mov	 DWORD PTR $T195232[ebp], esp
  04807	8b f4		 mov	 esi, esp
  04809	8d 55 cc	 lea	 edx, DWORD PTR _strHit$192789[ebp]
  0480c	52		 push	 edx
  0480d	ff 15 00 00 00
	00		 call	 DWORD PTR __imp_??0?$CStringT@DV?$StrTraitMFC_DLL@DV?$ChTraitsCRT@D@ATL@@@@@ATL@@QAE@ABV01@@Z
  04813	3b f4		 cmp	 esi, esp
  04815	e8 00 00 00 00	 call	 __RTC_CheckEsp
  0481a	89 45 b4	 mov	 DWORD PTR tv190[ebp], eax
  0481d	8b 45 f0	 mov	 eax, DWORD PTR _this$[ebp]
  04820	8b 48 24	 mov	 ecx, DWORD PTR [eax+36]
  04823	e8 00 00 00 00	 call	 ?SetDownloadHit@CDownloadPercentWnd@@QAEXV?$CStringT@DV?$StrTraitMFC_DLL@DV?$ChTraitsCRT@D@ATL@@@@@ATL@@@Z ; CDownloadPercentWnd::SetDownloadHit

; 906  : 		mp_downloadSubject->SetDownloadPercent(0);

  04828	6a 00		 push	 0
  0482a	8b 4d f0	 mov	 ecx, DWORD PTR _this$[ebp]
  0482d	8b 49 24	 mov	 ecx, DWORD PTR [ecx+36]
  04830	e8 00 00 00 00	 call	 ?SetDownloadPercent@CDownloadPercentWnd@@QAEXH@Z ; CDownloadPercentWnd::SetDownloadPercent

; 907  : 
; 908  : 		mb_isDownSubject = true;

  04835	8b 55 f0	 mov	 edx, DWORD PTR _this$[ebp]
  04838	c6 42 4a 01	 mov	 BYTE PTR [edx+74], 1

; 909  : 
; 910  : 		mp_mainSkinWnd->ShowColorBtn( FALSE );

  0483c	6a 00		 push	 0
  0483e	8b 45 f0	 mov	 eax, DWORD PTR _this$[ebp]
  04841	8b 48 10	 mov	 ecx, DWORD PTR [eax+16]
  04844	e8 00 00 00 00	 call	 ?ShowColorBtn@CMainSkinWnd@@QAEXH@Z ; CMainSkinWnd::ShowColorBtn

; 911  : 	}

  04849	c7 45 fc ff ff
	ff ff		 mov	 DWORD PTR __$EHRec$[ebp+8], -1
  04850	8b f4		 mov	 esi, esp
  04852	8d 4d cc	 lea	 ecx, DWORD PTR _strHit$192789[ebp]
  04855	ff 15 00 00 00
	00		 call	 DWORD PTR __imp_??1?$CStringT@DV?$StrTraitMFC_DLL@DV?$ChTraitsCRT@D@ATL@@@@@ATL@@QAE@XZ
  0485b	3b f4		 cmp	 esi, esp
  0485d	e8 00 00 00 00	 call	 __RTC_CheckEsp
$L192782:

; 912  : }

  04862	52		 push	 edx
  04863	8b cd		 mov	 ecx, ebp
  04865	50		 push	 eax
  04866	8d 15 00 00 00
	00		 lea	 edx, DWORD PTR $L195241
  0486c	e8 00 00 00 00	 call	 @_RTC_CheckStackVars@8
  04871	58		 pop	 eax
  04872	5a		 pop	 edx
  04873	8b 4d f4	 mov	 ecx, DWORD PTR __$EHRec$[ebp]
  04876	64 89 0d 00 00
	00 00		 mov	 DWORD PTR fs:__except_list, ecx
  0487d	5f		 pop	 edi
  0487e	5e		 pop	 esi
  0487f	83 c4 4c	 add	 esp, 76			; 0000004cH
  04882	3b ec		 cmp	 ebp, esp
  04884	e8 00 00 00 00	 call	 __RTC_CheckEsp
  04889	8b e5		 mov	 esp, ebp
  0488b	5d		 pop	 ebp
  0488c	c2 04 00	 ret	 4
$L195241:
  0488f	02 00 00 00	 DD	 2
  04893	00 00 00 00	 DD	 $L195240
$L195240:
  04897	dc ff ff ff	 DD	 -36			; ffffffdcH
  0489b	10 00 00 00	 DD	 16			; 00000010H
  0489f	00 00 00 00	 DD	 $L195237
  048a3	cc ff ff ff	 DD	 -52			; ffffffccH
  048a7	04 00 00 00	 DD	 4
  048ab	00 00 00 00	 DD	 $L195238
$L195238:
  048af	73		 DB	 115			; 00000073H
  048b0	74		 DB	 116			; 00000074H
  048b1	72		 DB	 114			; 00000072H
  048b2	48		 DB	 72			; 00000048H
  048b3	69		 DB	 105			; 00000069H
  048b4	74		 DB	 116			; 00000074H
  048b5	00		 DB	 0
$L195237:
  048b6	6c		 DB	 108			; 0000006cH
  048b7	43		 DB	 67			; 00000043H
  048b8	6c		 DB	 108			; 0000006cH
  048b9	69		 DB	 105			; 00000069H
  048ba	65		 DB	 101			; 00000065H
  048bb	6e		 DB	 110			; 0000006eH
  048bc	74		 DB	 116			; 00000074H
  048bd	00		 DB	 0
_TEXT	ENDS
text$x	SEGMENT
$L195233:
  0089b	8b f4		 mov	 esi, esp
  0089d	8d 4d cc	 lea	 ecx, DWORD PTR _strHit$192789[ebp]
  008a0	ff 15 00 00 00
	00		 call	 DWORD PTR __imp_??1?$CStringT@DV?$StrTraitMFC_DLL@DV?$ChTraitsCRT@D@ATL@@@@@ATL@@QAE@XZ
  008a6	3b f4		 cmp	 esi, esp
  008a8	e9 00 00 00 00	 jmp	 __RTC_CheckEsp
__ehhandler$?DownloadSubStart@CSkinMgrV1@@QAEXABV?$CStringT@DV?$StrTraitMFC_DLL@DV?$ChTraitsCRT@D@ATL@@@@@ATL@@@Z:
  008ad	b8 00 00 00 00	 mov	 eax, OFFSET FLAT:$T195236
  008b2	e9 00 00 00 00	 jmp	 ___CxxFrameHandler
text$x	ENDS
?DownloadSubStart@CSkinMgrV1@@QAEXABV?$CStringT@DV?$StrTraitMFC_DLL@DV?$ChTraitsCRT@D@ATL@@@@@ATL@@@Z ENDP ; CSkinMgrV1::DownloadSubStart
; Function compile flags: /Odt /RTCsu
; File d:\boxgit\playbox\playbox\dev\prj\playbox\src\layoutmgr\changecolor\downloadpercentwnd.h
;	COMDAT ?SetEventListener@CDownloadPercentWnd@@QAEXPAVIEventListener@@@Z
_TEXT	SEGMENT
_this$ = -4						; size = 4
_pEventListener$ = 8					; size = 4
?SetEventListener@CDownloadPercentWnd@@QAEXPAVIEventListener@@@Z PROC NEAR ; CDownloadPercentWnd::SetEventListener, COMDAT
; _this$ = ecx

; 34   : 	void SetEventListener(IEventListener* pEventListener){ m_pEvnet = pEventListener;}

  00000	55		 push	 ebp
  00001	8b ec		 mov	 ebp, esp
  00003	51		 push	 ecx
  00004	c7 45 fc cc cc
	cc cc		 mov	 DWORD PTR [ebp-4], -858993460 ; ccccccccH
  0000b	89 4d fc	 mov	 DWORD PTR _this$[ebp], ecx
  0000e	8b 45 fc	 mov	 eax, DWORD PTR _this$[ebp]
  00011	8b 4d 08	 mov	 ecx, DWORD PTR _pEventListener$[ebp]
  00014	89 88 20 02 00
	00		 mov	 DWORD PTR [eax+544], ecx
  0001a	8b e5		 mov	 esp, ebp
  0001c	5d		 pop	 ebp
  0001d	c2 04 00	 ret	 4
?SetEventListener@CDownloadPercentWnd@@QAEXPAVIEventListener@@@Z ENDP ; CDownloadPercentWnd::SetEventListener
_TEXT	ENDS
PUBLIC	?SetMsg@CDialogMsg@@QAEXABV?$CStringT@DV?$StrTraitMFC_DLL@DV?$ChTraitsCRT@D@ATL@@@@@ATL@@@Z ; CDialogMsg::SetMsg
EXTRN	??0CDialogMsg@@QAE@PAVCWnd@@@Z:NEAR		; CDialogMsg::CDialogMsg
EXTRN	??1CDialogMsg@@UAE@XZ:NEAR			; CDialogMsg::~CDialogMsg
EXTRN	?SetBtnCount@CDialogMsg@@QAEXH@Z:NEAR		; CDialogMsg::SetBtnCount
EXTRN	?SetBtnText@CDialogMsg@@QAEXHABV?$CStringT@DV?$StrTraitMFC_DLL@DV?$ChTraitsCRT@D@ATL@@@@@ATL@@@Z:NEAR ; CDialogMsg::SetBtnText
EXTRN	?DoModal@CDialog@@UAEHXZ:NEAR			; CDialog::DoModal
xdata$x	SEGMENT
$T195278 DD	0ffffffffH
	DD	FLAT:$L195257
	DD	00H
	DD	FLAT:$L195258
	DD	0ffffffffH
	DD	FLAT:$L195259
	DD	02H
	DD	FLAT:$L195260
	DD	03H
	DD	FLAT:$L195261
	DD	02H
	DD	FLAT:$L195263
	DD	05H
	DD	FLAT:$L195264
	DD	02H
	DD	FLAT:$L195265
	DD	02H
	DD	FLAT:$L195266
	DD	08H
	DD	FLAT:$L195267
	DD	0ffffffffH
	DD	FLAT:$L195268
	DD	0aH
	DD	FLAT:$L195269
	DD	0aH
	DD	FLAT:$L195270
$T195272 DD	019930520H
	DD	0dH
	DD	FLAT:$T195278
	DD	2 DUP(00H)
	DD	2 DUP(00H)
; Function compile flags: /Odt /RTCsu
; File d:\boxgit\playbox\playbox\dev\prj\playbox\src\layoutmgr\changecolor\ichangecolormgr.cpp
xdata$x	ENDS
_TEXT	SEGMENT
tv290 = -1944						; size = 4
tv287 = -1940						; size = 4
tv305 = -1936						; size = 4
tv284 = -1932						; size = 4
tv302 = -1928						; size = 4
tv157 = -1924						; size = 4
tv152 = -1920						; size = 4
tv143 = -1916						; size = 4
tv138 = -1912						; size = 4
$T195256 = -1908					; size = 4
$T195255 = -1904					; size = 4
$T195254 = -1900					; size = 28
$T195253 = -1872					; size = 28
$T195252 = -1844					; size = 4
$T195251 = -1840					; size = 28
$T195250 = -1812					; size = 28
$T195249 = -1784					; size = 4
$T195248 = -1780					; size = 4
$T195247 = -1776					; size = 4
$T195246 = -1772					; size = 28
$T195245 = -1744					; size = 28
_dlgmsg$192835 = -1712					; size = 1676
_tips$192811 = -28					; size = 4
_pOneSub$192810 = -20					; size = 4
_this$ = -16						; size = 4
__$EHRec$ = -12						; size = 12
_strSub$ = 8						; size = 4
_bSuc$ = 12						; size = 4
?DownloadSubFinish@CSkinMgrV1@@QAEXABV?$CStringT@DV?$StrTraitMFC_DLL@DV?$ChTraitsCRT@D@ATL@@@@@ATL@@H@Z PROC NEAR ; CSkinMgrV1::DownloadSubFinish
; _this$ = ecx

; 915  : {

  048c0	55		 push	 ebp
  048c1	8b ec		 mov	 ebp, esp
  048c3	6a ff		 push	 -1
  048c5	68 00 00 00 00	 push	 __ehhandler$?DownloadSubFinish@CSkinMgrV1@@QAEXABV?$CStringT@DV?$StrTraitMFC_DLL@DV?$ChTraitsCRT@D@ATL@@@@@ATL@@H@Z
  048ca	64 a1 00 00 00
	00		 mov	 eax, DWORD PTR fs:__except_list
  048d0	50		 push	 eax
  048d1	64 89 25 00 00
	00 00		 mov	 DWORD PTR fs:__except_list, esp
  048d8	81 ec 8c 07 00
	00		 sub	 esp, 1932		; 0000078cH
  048de	56		 push	 esi
  048df	57		 push	 edi
  048e0	51		 push	 ecx
  048e1	8d bd 68 f8 ff
	ff		 lea	 edi, DWORD PTR [ebp-1944]
  048e7	b9 e3 01 00 00	 mov	 ecx, 483		; 000001e3H
  048ec	b8 cc cc cc cc	 mov	 eax, -858993460		; ccccccccH
  048f1	f3 ab		 rep stosd
  048f3	59		 pop	 ecx
  048f4	89 4d f0	 mov	 DWORD PTR _this$[ebp], ecx

; 916  : 	YL_Log("SkinB.txt",LOG_DEBUG,"Click-In","9");

  048f7	8b f4		 mov	 esi, esp
  048f9	68 00 00 00 00	 push	 OFFSET FLAT:$SG192804
  048fe	8d 8d 30 f9 ff
	ff		 lea	 ecx, DWORD PTR $T195245[ebp]
  04904	ff 15 00 00 00
	00		 call	 DWORD PTR __imp_??0?$basic_string@DU?$char_traits@D@std@@V?$allocator@D@2@@std@@QAE@PBD@Z
  0490a	3b f4		 cmp	 esi, esp
  0490c	e8 00 00 00 00	 call	 __RTC_CheckEsp
  04911	c7 45 fc 00 00
	00 00		 mov	 DWORD PTR __$EHRec$[ebp+8], 0
  04918	8b f4		 mov	 esi, esp
  0491a	68 00 00 00 00	 push	 OFFSET FLAT:$SG192805
  0491f	8d 8d 14 f9 ff
	ff		 lea	 ecx, DWORD PTR $T195246[ebp]
  04925	ff 15 00 00 00
	00		 call	 DWORD PTR __imp_??0?$basic_string@DU?$char_traits@D@std@@V?$allocator@D@2@@std@@QAE@PBD@Z
  0492b	3b f4		 cmp	 esi, esp
  0492d	e8 00 00 00 00	 call	 __RTC_CheckEsp
  04932	c6 45 fc 01	 mov	 BYTE PTR __$EHRec$[ebp+8], 1
  04936	8b f4		 mov	 esi, esp
  04938	68 00 00 00 00	 push	 OFFSET FLAT:$SG192803
  0493d	8d 85 30 f9 ff
	ff		 lea	 eax, DWORD PTR $T195245[ebp]
  04943	50		 push	 eax
  04944	6a 00		 push	 0
  04946	8d 8d 14 f9 ff
	ff		 lea	 ecx, DWORD PTR $T195246[ebp]
  0494c	51		 push	 ecx
  0494d	ff 15 00 00 00
	00		 call	 DWORD PTR __imp_?YL_Log@@YAXABV?$basic_string@DU?$char_traits@D@std@@V?$allocator@D@2@@std@@H0PBDZZ
  04953	83 c4 10	 add	 esp, 16			; 00000010H
  04956	3b f4		 cmp	 esi, esp
  04958	e8 00 00 00 00	 call	 __RTC_CheckEsp
  0495d	c6 45 fc 00	 mov	 BYTE PTR __$EHRec$[ebp+8], 0
  04961	8b f4		 mov	 esi, esp
  04963	8d 8d 14 f9 ff
	ff		 lea	 ecx, DWORD PTR $T195246[ebp]
  04969	ff 15 00 00 00
	00		 call	 DWORD PTR __imp_??1?$basic_string@DU?$char_traits@D@std@@V?$allocator@D@2@@std@@QAE@XZ
  0496f	3b f4		 cmp	 esi, esp
  04971	e8 00 00 00 00	 call	 __RTC_CheckEsp
  04976	c7 45 fc ff ff
	ff ff		 mov	 DWORD PTR __$EHRec$[ebp+8], -1
  0497d	8b f4		 mov	 esi, esp
  0497f	8d 8d 30 f9 ff
	ff		 lea	 ecx, DWORD PTR $T195245[ebp]
  04985	ff 15 00 00 00
	00		 call	 DWORD PTR __imp_??1?$basic_string@DU?$char_traits@D@std@@V?$allocator@D@2@@std@@QAE@XZ
  0498b	3b f4		 cmp	 esi, esp
  0498d	e8 00 00 00 00	 call	 __RTC_CheckEsp

; 917  : 	if( mp_SubjectWnd != NULL )

  04992	8b 55 f0	 mov	 edx, DWORD PTR _this$[ebp]
  04995	83 7a 18 00	 cmp	 DWORD PTR [edx+24], 0
  04999	74 0d		 je	 SHORT $L192806

; 918  : 	{
; 919  : 		mp_SubjectWnd->EnableSkinBtn( TRUE );

  0499b	6a 01		 push	 1
  0499d	8b 45 f0	 mov	 eax, DWORD PTR _this$[ebp]
  049a0	8b 48 18	 mov	 ecx, DWORD PTR [eax+24]
  049a3	e8 00 00 00 00	 call	 ?EnableSkinBtn@CSubjectChildWnd@@QAEXH@Z ; CSubjectChildWnd::EnableSkinBtn
$L192806:

; 920  : 	}
; 921  : 
; 922  : 	if(mp_skinWnd != NULL )

  049a8	8b 4d f0	 mov	 ecx, DWORD PTR _this$[ebp]
  049ab	83 79 14 00	 cmp	 DWORD PTR [ecx+20], 0
  049af	74 0d		 je	 SHORT $L192807

; 923  : 	{
; 924  : 		mp_skinWnd->EnableSkinBtn( TRUE );

  049b1	6a 01		 push	 1
  049b3	8b 55 f0	 mov	 edx, DWORD PTR _this$[ebp]
  049b6	8b 4a 14	 mov	 ecx, DWORD PTR [edx+20]
  049b9	e8 00 00 00 00	 call	 ?EnableSkinBtn@CSkinWnd@@QAEXH@Z ; CSkinWnd::EnableSkinBtn
$L192807:

; 925  : 	}
; 926  : 
; 927  : 	mp_downloadSubject->ShowWindow( SW_HIDE );

  049be	6a 00		 push	 0
  049c0	8b 45 f0	 mov	 eax, DWORD PTR _this$[ebp]
  049c3	8b 48 24	 mov	 ecx, DWORD PTR [eax+36]
  049c6	e8 00 00 00 00	 call	 ?ShowWindow@CWnd@@QAEHH@Z ; CWnd::ShowWindow

; 928  : 	
; 929  : 	mp_mainSkinWnd->ShowColorBtn( TRUE );

  049cb	6a 01		 push	 1
  049cd	8b 4d f0	 mov	 ecx, DWORD PTR _this$[ebp]
  049d0	8b 49 10	 mov	 ecx, DWORD PTR [ecx+16]
  049d3	e8 00 00 00 00	 call	 ?ShowColorBtn@CMainSkinWnd@@QAEXH@Z ; CMainSkinWnd::ShowColorBtn

; 930  : 	mp_mainSkinWnd->Invalidate();

  049d8	6a 01		 push	 1
  049da	8b 55 f0	 mov	 edx, DWORD PTR _this$[ebp]
  049dd	8b 4a 10	 mov	 ecx, DWORD PTR [edx+16]
  049e0	e8 00 00 00 00	 call	 ?Invalidate@CWnd@@QAEXH@Z ; CWnd::Invalidate

; 931  : 	mp_mainSkinWnd->UpdateWindow();

  049e5	8b 45 f0	 mov	 eax, DWORD PTR _this$[ebp]
  049e8	8b 48 10	 mov	 ecx, DWORD PTR [eax+16]
  049eb	e8 00 00 00 00	 call	 ?UpdateWindow@CWnd@@QAEXXZ ; CWnd::UpdateWindow

; 932  : 
; 933  : 	if( bSuc )

  049f0	83 7d 0c 00	 cmp	 DWORD PTR _bSuc$[ebp], 0
  049f4	0f 84 69 03 00
	00		 je	 $L192808

; 934  : 	{	
; 935  : 		AfxGetUIManager()->UIGetSkinMgr()->SubDownloaded( strSub );

  049fa	e8 00 00 00 00	 call	 ?AfxGetUIManager@@YAPAVIUIManager@@XZ ; AfxGetUIManager
  049ff	89 85 88 f8 ff
	ff		 mov	 DWORD PTR tv138[ebp], eax
  04a05	8b f4		 mov	 esi, esp
  04a07	8b 8d 88 f8 ff
	ff		 mov	 ecx, DWORD PTR tv138[ebp]
  04a0d	8b 11		 mov	 edx, DWORD PTR [ecx]
  04a0f	8b 8d 88 f8 ff
	ff		 mov	 ecx, DWORD PTR tv138[ebp]
  04a15	ff 52 28	 call	 DWORD PTR [edx+40]
  04a18	3b f4		 cmp	 esi, esp
  04a1a	e8 00 00 00 00	 call	 __RTC_CheckEsp
  04a1f	89 85 84 f8 ff
	ff		 mov	 DWORD PTR tv143[ebp], eax
  04a25	8b f4		 mov	 esi, esp
  04a27	8b 45 08	 mov	 eax, DWORD PTR _strSub$[ebp]
  04a2a	50		 push	 eax
  04a2b	8b 8d 84 f8 ff
	ff		 mov	 ecx, DWORD PTR tv143[ebp]
  04a31	8b 11		 mov	 edx, DWORD PTR [ecx]
  04a33	8b 8d 84 f8 ff
	ff		 mov	 ecx, DWORD PTR tv143[ebp]
  04a39	ff 52 48	 call	 DWORD PTR [edx+72]
  04a3c	3b f4		 cmp	 esi, esp
  04a3e	e8 00 00 00 00	 call	 __RTC_CheckEsp

; 936  : 
; 937  : 		if( mb_HasPopWnd )

  04a43	8b 45 f0	 mov	 eax, DWORD PTR _this$[ebp]
  04a46	0f b6 48 48	 movzx	 ecx, BYTE PTR [eax+72]
  04a4a	85 c9		 test	 ecx, ecx
  04a4c	0f 84 0c 03 00
	00		 je	 $L192809

; 938  : 		{
; 939  : 			OneSubject* pOneSub = AfxGetUIManager()->UIGetSkinMgr()->GetOneSubject( strSub );

  04a52	e8 00 00 00 00	 call	 ?AfxGetUIManager@@YAPAVIUIManager@@XZ ; AfxGetUIManager
  04a57	89 85 80 f8 ff
	ff		 mov	 DWORD PTR tv152[ebp], eax
  04a5d	8b f4		 mov	 esi, esp
  04a5f	8b 95 80 f8 ff
	ff		 mov	 edx, DWORD PTR tv152[ebp]
  04a65	8b 02		 mov	 eax, DWORD PTR [edx]
  04a67	8b 8d 80 f8 ff
	ff		 mov	 ecx, DWORD PTR tv152[ebp]
  04a6d	ff 50 28	 call	 DWORD PTR [eax+40]
  04a70	3b f4		 cmp	 esi, esp
  04a72	e8 00 00 00 00	 call	 __RTC_CheckEsp
  04a77	89 85 7c f8 ff
	ff		 mov	 DWORD PTR tv157[ebp], eax
  04a7d	8b f4		 mov	 esi, esp
  04a7f	8b 4d 08	 mov	 ecx, DWORD PTR _strSub$[ebp]
  04a82	51		 push	 ecx
  04a83	8b 95 7c f8 ff
	ff		 mov	 edx, DWORD PTR tv157[ebp]
  04a89	8b 02		 mov	 eax, DWORD PTR [edx]
  04a8b	8b 8d 7c f8 ff
	ff		 mov	 ecx, DWORD PTR tv157[ebp]
  04a91	ff 50 2c	 call	 DWORD PTR [eax+44]
  04a94	3b f4		 cmp	 esi, esp
  04a96	e8 00 00 00 00	 call	 __RTC_CheckEsp
  04a9b	89 45 ec	 mov	 DWORD PTR _pOneSub$192810[ebp], eax

; 940  : 
; 941  : 			CString tips = "";

  04a9e	8b f4		 mov	 esi, esp
  04aa0	68 00 00 00 00	 push	 OFFSET FLAT:$SG192812
  04aa5	8d 4d e4	 lea	 ecx, DWORD PTR _tips$192811[ebp]
  04aa8	ff 15 00 00 00
	00		 call	 DWORD PTR __imp_??0?$CStringT@DV?$StrTraitMFC_DLL@DV?$ChTraitsCRT@D@ATL@@@@@ATL@@QAE@PBD@Z
  04aae	3b f4		 cmp	 esi, esp
  04ab0	e8 00 00 00 00	 call	 __RTC_CheckEsp
  04ab5	c7 45 fc 02 00
	00 00		 mov	 DWORD PTR __$EHRec$[ebp+8], 2

; 942  : 			if( pOneSub != NULL )

  04abc	83 7d ec 00	 cmp	 DWORD PTR _pOneSub$192810[ebp], 0
  04ac0	74 33		 je	 SHORT $L192813

; 943  : 			{
; 944  : 				tips.Format( ":  %s\r\n: ",pOneSub->strShowName.c_str()  );

  04ac2	8b 4d ec	 mov	 ecx, DWORD PTR _pOneSub$192810[ebp]
  04ac5	83 c1 38	 add	 ecx, 56			; 00000038H
  04ac8	8b f4		 mov	 esi, esp
  04aca	ff 15 00 00 00
	00		 call	 DWORD PTR __imp_?c_str@?$basic_string@DU?$char_traits@D@std@@V?$allocator@D@2@@std@@QBEPBDXZ
  04ad0	3b f4		 cmp	 esi, esp
  04ad2	e8 00 00 00 00	 call	 __RTC_CheckEsp
  04ad7	8b f4		 mov	 esi, esp
  04ad9	50		 push	 eax
  04ada	68 00 00 00 00	 push	 OFFSET FLAT:$SG192814
  04adf	8d 4d e4	 lea	 ecx, DWORD PTR _tips$192811[ebp]
  04ae2	51		 push	 ecx
  04ae3	ff 15 00 00 00
	00		 call	 DWORD PTR __imp_?Format@?$CStringT@DV?$StrTraitMFC_DLL@DV?$ChTraitsCRT@D@ATL@@@@@ATL@@QAAXPBDZZ
  04ae9	83 c4 0c	 add	 esp, 12			; 0000000cH
  04aec	3b f4		 cmp	 esi, esp
  04aee	e8 00 00 00 00	 call	 __RTC_CheckEsp

; 945  : 			}
; 946  : 			else

  04af3	eb 1b		 jmp	 SHORT $L192815
$L192813:

; 947  : 			{
; 948  : 				tips.Format( ": ");

  04af5	8b f4		 mov	 esi, esp
  04af7	68 00 00 00 00	 push	 OFFSET FLAT:$SG192816
  04afc	8d 55 e4	 lea	 edx, DWORD PTR _tips$192811[ebp]
  04aff	52		 push	 edx
  04b00	ff 15 00 00 00
	00		 call	 DWORD PTR __imp_?Format@?$CStringT@DV?$StrTraitMFC_DLL@DV?$ChTraitsCRT@D@ATL@@@@@ATL@@QAAXPBDZZ
  04b06	83 c4 08	 add	 esp, 8
  04b09	3b f4		 cmp	 esi, esp
  04b0b	e8 00 00 00 00	 call	 __RTC_CheckEsp
$L192815:

; 949  : 			}
; 950  : 			if( mp_SubjectWnd && pOneSub )

  04b10	8b 45 f0	 mov	 eax, DWORD PTR _this$[ebp]
  04b13	83 78 18 00	 cmp	 DWORD PTR [eax+24], 0
  04b17	0f 84 b1 00 00
	00		 je	 $L192817
  04b1d	83 7d ec 00	 cmp	 DWORD PTR _pOneSub$192810[ebp], 0
  04b21	0f 84 a7 00 00
	00		 je	 $L192817

; 951  : 			{
; 952  : 				mp_SubjectWnd->SetTipText( strSub,tips ,pOneSub->strShowName.c_str());

  04b27	8b 4d ec	 mov	 ecx, DWORD PTR _pOneSub$192810[ebp]
  04b2a	83 c1 38	 add	 ecx, 56			; 00000038H
  04b2d	8b f4		 mov	 esi, esp
  04b2f	ff 15 00 00 00
	00		 call	 DWORD PTR __imp_?c_str@?$basic_string@DU?$char_traits@D@std@@V?$allocator@D@2@@std@@QBEPBDXZ
  04b35	3b f4		 cmp	 esi, esp
  04b37	e8 00 00 00 00	 call	 __RTC_CheckEsp
  04b3c	51		 push	 ecx
  04b3d	8b cc		 mov	 ecx, esp
  04b3f	89 a5 10 f9 ff
	ff		 mov	 DWORD PTR $T195247[ebp], esp
  04b45	8b f4		 mov	 esi, esp
  04b47	50		 push	 eax
  04b48	ff 15 00 00 00
	00		 call	 DWORD PTR __imp_??0?$CStringT@DV?$StrTraitMFC_DLL@DV?$ChTraitsCRT@D@ATL@@@@@ATL@@QAE@PBD@Z
  04b4e	3b f4		 cmp	 esi, esp
  04b50	e8 00 00 00 00	 call	 __RTC_CheckEsp
  04b55	89 85 78 f8 ff
	ff		 mov	 DWORD PTR tv302[ebp], eax
  04b5b	8b 8d 78 f8 ff
	ff		 mov	 ecx, DWORD PTR tv302[ebp]
  04b61	89 8d 74 f8 ff
	ff		 mov	 DWORD PTR tv284[ebp], ecx
  04b67	c6 45 fc 03	 mov	 BYTE PTR __$EHRec$[ebp+8], 3
  04b6b	51		 push	 ecx
  04b6c	8b cc		 mov	 ecx, esp
  04b6e	89 a5 0c f9 ff
	ff		 mov	 DWORD PTR $T195248[ebp], esp
  04b74	8b f4		 mov	 esi, esp
  04b76	8d 55 e4	 lea	 edx, DWORD PTR _tips$192811[ebp]
  04b79	52		 push	 edx
  04b7a	ff 15 00 00 00
	00		 call	 DWORD PTR __imp_??0?$CStringT@DV?$StrTraitMFC_DLL@DV?$ChTraitsCRT@D@ATL@@@@@ATL@@QAE@ABV01@@Z
  04b80	3b f4		 cmp	 esi, esp
  04b82	e8 00 00 00 00	 call	 __RTC_CheckEsp
  04b87	89 85 70 f8 ff
	ff		 mov	 DWORD PTR tv305[ebp], eax
  04b8d	8b 85 70 f8 ff
	ff		 mov	 eax, DWORD PTR tv305[ebp]
  04b93	89 85 6c f8 ff
	ff		 mov	 DWORD PTR tv287[ebp], eax
  04b99	c6 45 fc 04	 mov	 BYTE PTR __$EHRec$[ebp+8], 4
  04b9d	51		 push	 ecx
  04b9e	8b cc		 mov	 ecx, esp
  04ba0	89 a5 08 f9 ff
	ff		 mov	 DWORD PTR $T195249[ebp], esp
  04ba6	8b f4		 mov	 esi, esp
  04ba8	8b 55 08	 mov	 edx, DWORD PTR _strSub$[ebp]
  04bab	52		 push	 edx
  04bac	ff 15 00 00 00
	00		 call	 DWORD PTR __imp_??0?$CStringT@DV?$StrTraitMFC_DLL@DV?$ChTraitsCRT@D@ATL@@@@@ATL@@QAE@ABV01@@Z
  04bb2	3b f4		 cmp	 esi, esp
  04bb4	e8 00 00 00 00	 call	 __RTC_CheckEsp
  04bb9	89 85 68 f8 ff
	ff		 mov	 DWORD PTR tv290[ebp], eax
  04bbf	8b 45 f0	 mov	 eax, DWORD PTR _this$[ebp]
  04bc2	8b 48 18	 mov	 ecx, DWORD PTR [eax+24]
  04bc5	c6 45 fc 02	 mov	 BYTE PTR __$EHRec$[ebp+8], 2
  04bc9	e8 00 00 00 00	 call	 ?SetTipText@CSubjectChildWnd@@QAEXV?$CStringT@DV?$StrTraitMFC_DLL@DV?$ChTraitsCRT@D@ATL@@@@@ATL@@00@Z ; CSubjectChildWnd::SetTipText
$L192817:

; 953  : 			}
; 954  : 
; 955  : 			YL_Log("SkinB.txt",LOG_DEBUG,"Click-In","10");

  04bce	8b f4		 mov	 esi, esp
  04bd0	68 00 00 00 00	 push	 OFFSET FLAT:$SG192824
  04bd5	8d 8d ec f8 ff
	ff		 lea	 ecx, DWORD PTR $T195250[ebp]
  04bdb	ff 15 00 00 00
	00		 call	 DWORD PTR __imp_??0?$basic_string@DU?$char_traits@D@std@@V?$allocator@D@2@@std@@QAE@PBD@Z
  04be1	3b f4		 cmp	 esi, esp
  04be3	e8 00 00 00 00	 call	 __RTC_CheckEsp
  04be8	c6 45 fc 05	 mov	 BYTE PTR __$EHRec$[ebp+8], 5
  04bec	8b f4		 mov	 esi, esp
  04bee	68 00 00 00 00	 push	 OFFSET FLAT:$SG192825
  04bf3	8d 8d d0 f8 ff
	ff		 lea	 ecx, DWORD PTR $T195251[ebp]
  04bf9	ff 15 00 00 00
	00		 call	 DWORD PTR __imp_??0?$basic_string@DU?$char_traits@D@std@@V?$allocator@D@2@@std@@QAE@PBD@Z
  04bff	3b f4		 cmp	 esi, esp
  04c01	e8 00 00 00 00	 call	 __RTC_CheckEsp
  04c06	c6 45 fc 06	 mov	 BYTE PTR __$EHRec$[ebp+8], 6
  04c0a	8b f4		 mov	 esi, esp
  04c0c	68 00 00 00 00	 push	 OFFSET FLAT:$SG192823
  04c11	8d 8d ec f8 ff
	ff		 lea	 ecx, DWORD PTR $T195250[ebp]
  04c17	51		 push	 ecx
  04c18	6a 00		 push	 0
  04c1a	8d 95 d0 f8 ff
	ff		 lea	 edx, DWORD PTR $T195251[ebp]
  04c20	52		 push	 edx
  04c21	ff 15 00 00 00
	00		 call	 DWORD PTR __imp_?YL_Log@@YAXABV?$basic_string@DU?$char_traits@D@std@@V?$allocator@D@2@@std@@H0PBDZZ
  04c27	83 c4 10	 add	 esp, 16			; 00000010H
  04c2a	3b f4		 cmp	 esi, esp
  04c2c	e8 00 00 00 00	 call	 __RTC_CheckEsp
  04c31	c6 45 fc 05	 mov	 BYTE PTR __$EHRec$[ebp+8], 5
  04c35	8b f4		 mov	 esi, esp
  04c37	8d 8d d0 f8 ff
	ff		 lea	 ecx, DWORD PTR $T195251[ebp]
  04c3d	ff 15 00 00 00
	00		 call	 DWORD PTR __imp_??1?$basic_string@DU?$char_traits@D@std@@V?$allocator@D@2@@std@@QAE@XZ
  04c43	3b f4		 cmp	 esi, esp
  04c45	e8 00 00 00 00	 call	 __RTC_CheckEsp
  04c4a	c6 45 fc 02	 mov	 BYTE PTR __$EHRec$[ebp+8], 2
  04c4e	8b f4		 mov	 esi, esp
  04c50	8d 8d ec f8 ff
	ff		 lea	 ecx, DWORD PTR $T195250[ebp]
  04c56	ff 15 00 00 00
	00		 call	 DWORD PTR __imp_??1?$basic_string@DU?$char_traits@D@std@@V?$allocator@D@2@@std@@QAE@XZ
  04c5c	3b f4		 cmp	 esi, esp
  04c5e	e8 00 00 00 00	 call	 __RTC_CheckEsp

; 956  : 			mp_SubjectWnd->ClickSubBtn("",strSub );

  04c63	8b f4		 mov	 esi, esp
  04c65	68 00 00 00 00	 push	 OFFSET FLAT:$SG192827
  04c6a	8d 8d cc f8 ff
	ff		 lea	 ecx, DWORD PTR $T195252[ebp]
  04c70	ff 15 00 00 00
	00		 call	 DWORD PTR __imp_??0?$CStringT@DV?$StrTraitMFC_DLL@DV?$ChTraitsCRT@D@ATL@@@@@ATL@@QAE@PBD@Z
  04c76	3b f4		 cmp	 esi, esp
  04c78	e8 00 00 00 00	 call	 __RTC_CheckEsp
  04c7d	c6 45 fc 07	 mov	 BYTE PTR __$EHRec$[ebp+8], 7
  04c81	8b 45 08	 mov	 eax, DWORD PTR _strSub$[ebp]
  04c84	50		 push	 eax
  04c85	8d 8d cc f8 ff
	ff		 lea	 ecx, DWORD PTR $T195252[ebp]
  04c8b	51		 push	 ecx
  04c8c	8b 55 f0	 mov	 edx, DWORD PTR _this$[ebp]
  04c8f	8b 4a 18	 mov	 ecx, DWORD PTR [edx+24]
  04c92	e8 00 00 00 00	 call	 ?ClickSubBtn@CSubjectChildWnd@@QAEXABV?$CStringT@DV?$StrTraitMFC_DLL@DV?$ChTraitsCRT@D@ATL@@@@@ATL@@0@Z ; CSubjectChildWnd::ClickSubBtn
  04c97	c6 45 fc 02	 mov	 BYTE PTR __$EHRec$[ebp+8], 2
  04c9b	8b f4		 mov	 esi, esp
  04c9d	8d 8d cc f8 ff
	ff		 lea	 ecx, DWORD PTR $T195252[ebp]
  04ca3	ff 15 00 00 00
	00		 call	 DWORD PTR __imp_??1?$CStringT@DV?$StrTraitMFC_DLL@DV?$ChTraitsCRT@D@ATL@@@@@ATL@@QAE@XZ
  04ca9	3b f4		 cmp	 esi, esp
  04cab	e8 00 00 00 00	 call	 __RTC_CheckEsp

; 957  : 			YL_Log("SkinB.txt",LOG_DEBUG,"Click-In","11");

  04cb0	8b f4		 mov	 esi, esp
  04cb2	68 00 00 00 00	 push	 OFFSET FLAT:$SG192831
  04cb7	8d 8d b0 f8 ff
	ff		 lea	 ecx, DWORD PTR $T195253[ebp]
  04cbd	ff 15 00 00 00
	00		 call	 DWORD PTR __imp_??0?$basic_string@DU?$char_traits@D@std@@V?$allocator@D@2@@std@@QAE@PBD@Z
  04cc3	3b f4		 cmp	 esi, esp
  04cc5	e8 00 00 00 00	 call	 __RTC_CheckEsp
  04cca	c6 45 fc 08	 mov	 BYTE PTR __$EHRec$[ebp+8], 8
  04cce	8b f4		 mov	 esi, esp
  04cd0	68 00 00 00 00	 push	 OFFSET FLAT:$SG192832
  04cd5	8d 8d 94 f8 ff
	ff		 lea	 ecx, DWORD PTR $T195254[ebp]
  04cdb	ff 15 00 00 00
	00		 call	 DWORD PTR __imp_??0?$basic_string@DU?$char_traits@D@std@@V?$allocator@D@2@@std@@QAE@PBD@Z
  04ce1	3b f4		 cmp	 esi, esp
  04ce3	e8 00 00 00 00	 call	 __RTC_CheckEsp
  04ce8	c6 45 fc 09	 mov	 BYTE PTR __$EHRec$[ebp+8], 9
  04cec	8b f4		 mov	 esi, esp
  04cee	68 00 00 00 00	 push	 OFFSET FLAT:$SG192830
  04cf3	8d 85 b0 f8 ff
	ff		 lea	 eax, DWORD PTR $T195253[ebp]
  04cf9	50		 push	 eax
  04cfa	6a 00		 push	 0
  04cfc	8d 8d 94 f8 ff
	ff		 lea	 ecx, DWORD PTR $T195254[ebp]
  04d02	51		 push	 ecx
  04d03	ff 15 00 00 00
	00		 call	 DWORD PTR __imp_?YL_Log@@YAXABV?$basic_string@DU?$char_traits@D@std@@V?$allocator@D@2@@std@@H0PBDZZ
  04d09	83 c4 10	 add	 esp, 16			; 00000010H
  04d0c	3b f4		 cmp	 esi, esp
  04d0e	e8 00 00 00 00	 call	 __RTC_CheckEsp
  04d13	c6 45 fc 08	 mov	 BYTE PTR __$EHRec$[ebp+8], 8
  04d17	8b f4		 mov	 esi, esp
  04d19	8d 8d 94 f8 ff
	ff		 lea	 ecx, DWORD PTR $T195254[ebp]
  04d1f	ff 15 00 00 00
	00		 call	 DWORD PTR __imp_??1?$basic_string@DU?$char_traits@D@std@@V?$allocator@D@2@@std@@QAE@XZ
  04d25	3b f4		 cmp	 esi, esp
  04d27	e8 00 00 00 00	 call	 __RTC_CheckEsp
  04d2c	c6 45 fc 02	 mov	 BYTE PTR __$EHRec$[ebp+8], 2
  04d30	8b f4		 mov	 esi, esp
  04d32	8d 8d b0 f8 ff
	ff		 lea	 ecx, DWORD PTR $T195253[ebp]
  04d38	ff 15 00 00 00
	00		 call	 DWORD PTR __imp_??1?$basic_string@DU?$char_traits@D@std@@V?$allocator@D@2@@std@@QAE@XZ
  04d3e	3b f4		 cmp	 esi, esp
  04d40	e8 00 00 00 00	 call	 __RTC_CheckEsp

; 958  : 		}

  04d45	c7 45 fc ff ff
	ff ff		 mov	 DWORD PTR __$EHRec$[ebp+8], -1
  04d4c	8b f4		 mov	 esi, esp
  04d4e	8d 4d e4	 lea	 ecx, DWORD PTR _tips$192811[ebp]
  04d51	ff 15 00 00 00
	00		 call	 DWORD PTR __imp_??1?$CStringT@DV?$StrTraitMFC_DLL@DV?$ChTraitsCRT@D@ATL@@@@@ATL@@QAE@XZ
  04d57	3b f4		 cmp	 esi, esp
  04d59	e8 00 00 00 00	 call	 __RTC_CheckEsp
$L192809:

; 959  : 		
; 960  : 	}
; 961  : 	else

  04d5e	e9 e1 00 00 00	 jmp	 $L192800
$L192808:

; 962  : 	{
; 963  : 		if( mb_HasPopWnd )

  04d63	8b 55 f0	 mov	 edx, DWORD PTR _this$[ebp]
  04d66	0f b6 42 48	 movzx	 eax, BYTE PTR [edx+72]
  04d6a	85 c0		 test	 eax, eax
  04d6c	0f 84 d2 00 00
	00		 je	 $L192800

; 964  : 		{
; 965  : 			CDialogMsg dlgmsg;

  04d72	6a 00		 push	 0
  04d74	8d 8d 50 f9 ff
	ff		 lea	 ecx, DWORD PTR _dlgmsg$192835[ebp]
  04d7a	e8 00 00 00 00	 call	 ??0CDialogMsg@@QAE@PAVCWnd@@@Z ; CDialogMsg::CDialogMsg
  04d7f	c7 45 fc 0a 00
	00 00		 mov	 DWORD PTR __$EHRec$[ebp+8], 10 ; 0000000aH

; 966  : 			dlgmsg.SetBtnCount(1);

  04d86	6a 01		 push	 1
  04d88	8d 8d 50 f9 ff
	ff		 lea	 ecx, DWORD PTR _dlgmsg$192835[ebp]
  04d8e	e8 00 00 00 00	 call	 ?SetBtnCount@CDialogMsg@@QAEXH@Z ; CDialogMsg::SetBtnCount

; 967  : 			dlgmsg.SetMsg("");

  04d93	8b f4		 mov	 esi, esp
  04d95	68 00 00 00 00	 push	 OFFSET FLAT:$SG192837
  04d9a	8d 8d 90 f8 ff
	ff		 lea	 ecx, DWORD PTR $T195255[ebp]
  04da0	ff 15 00 00 00
	00		 call	 DWORD PTR __imp_??0?$CStringT@DV?$StrTraitMFC_DLL@DV?$ChTraitsCRT@D@ATL@@@@@ATL@@QAE@PBD@Z
  04da6	3b f4		 cmp	 esi, esp
  04da8	e8 00 00 00 00	 call	 __RTC_CheckEsp
  04dad	c6 45 fc 0b	 mov	 BYTE PTR __$EHRec$[ebp+8], 11 ; 0000000bH
  04db1	8d 8d 90 f8 ff
	ff		 lea	 ecx, DWORD PTR $T195255[ebp]
  04db7	51		 push	 ecx
  04db8	8d 8d 50 f9 ff
	ff		 lea	 ecx, DWORD PTR _dlgmsg$192835[ebp]
  04dbe	e8 00 00 00 00	 call	 ?SetMsg@CDialogMsg@@QAEXABV?$CStringT@DV?$StrTraitMFC_DLL@DV?$ChTraitsCRT@D@ATL@@@@@ATL@@@Z ; CDialogMsg::SetMsg
  04dc3	c6 45 fc 0a	 mov	 BYTE PTR __$EHRec$[ebp+8], 10 ; 0000000aH
  04dc7	8b f4		 mov	 esi, esp
  04dc9	8d 8d 90 f8 ff
	ff		 lea	 ecx, DWORD PTR $T195255[ebp]
  04dcf	ff 15 00 00 00
	00		 call	 DWORD PTR __imp_??1?$CStringT@DV?$StrTraitMFC_DLL@DV?$ChTraitsCRT@D@ATL@@@@@ATL@@QAE@XZ
  04dd5	3b f4		 cmp	 esi, esp
  04dd7	e8 00 00 00 00	 call	 __RTC_CheckEsp

; 968  : 			dlgmsg.SetBtnText(1,"");

  04ddc	8b f4		 mov	 esi, esp
  04dde	68 00 00 00 00	 push	 OFFSET FLAT:$SG192839
  04de3	8d 8d 8c f8 ff
	ff		 lea	 ecx, DWORD PTR $T195256[ebp]
  04de9	ff 15 00 00 00
	00		 call	 DWORD PTR __imp_??0?$CStringT@DV?$StrTraitMFC_DLL@DV?$ChTraitsCRT@D@ATL@@@@@ATL@@QAE@PBD@Z
  04def	3b f4		 cmp	 esi, esp
  04df1	e8 00 00 00 00	 call	 __RTC_CheckEsp
  04df6	c6 45 fc 0c	 mov	 BYTE PTR __$EHRec$[ebp+8], 12 ; 0000000cH
  04dfa	8d 95 8c f8 ff
	ff		 lea	 edx, DWORD PTR $T195256[ebp]
  04e00	52		 push	 edx
  04e01	6a 01		 push	 1
  04e03	8d 8d 50 f9 ff
	ff		 lea	 ecx, DWORD PTR _dlgmsg$192835[ebp]
  04e09	e8 00 00 00 00	 call	 ?SetBtnText@CDialogMsg@@QAEXHABV?$CStringT@DV?$StrTraitMFC_DLL@DV?$ChTraitsCRT@D@ATL@@@@@ATL@@@Z ; CDialogMsg::SetBtnText
  04e0e	c6 45 fc 0a	 mov	 BYTE PTR __$EHRec$[ebp+8], 10 ; 0000000aH
  04e12	8b f4		 mov	 esi, esp
  04e14	8d 8d 8c f8 ff
	ff		 lea	 ecx, DWORD PTR $T195256[ebp]
  04e1a	ff 15 00 00 00
	00		 call	 DWORD PTR __imp_??1?$CStringT@DV?$StrTraitMFC_DLL@DV?$ChTraitsCRT@D@ATL@@@@@ATL@@QAE@XZ
  04e20	3b f4		 cmp	 esi, esp
  04e22	e8 00 00 00 00	 call	 __RTC_CheckEsp

; 969  : 			dlgmsg.DoModal();

  04e27	8d 8d 50 f9 ff
	ff		 lea	 ecx, DWORD PTR _dlgmsg$192835[ebp]
  04e2d	e8 00 00 00 00	 call	 ?DoModal@CDialog@@UAEHXZ ; CDialog::DoModal

; 970  : 		}

  04e32	c7 45 fc ff ff
	ff ff		 mov	 DWORD PTR __$EHRec$[ebp+8], -1
  04e39	8d 8d 50 f9 ff
	ff		 lea	 ecx, DWORD PTR _dlgmsg$192835[ebp]
  04e3f	e8 00 00 00 00	 call	 ??1CDialogMsg@@UAE@XZ	; CDialogMsg::~CDialogMsg
$L192800:

; 971  : 		//	AfxMessageBox("!");
; 972  : 	}
; 973  : }

  04e44	52		 push	 edx
  04e45	8b cd		 mov	 ecx, ebp
  04e47	50		 push	 eax
  04e48	8d 15 00 00 00
	00		 lea	 edx, DWORD PTR $L195277
  04e4e	e8 00 00 00 00	 call	 @_RTC_CheckStackVars@8
  04e53	58		 pop	 eax
  04e54	5a		 pop	 edx
  04e55	8b 4d f4	 mov	 ecx, DWORD PTR __$EHRec$[ebp]
  04e58	64 89 0d 00 00
	00 00		 mov	 DWORD PTR fs:__except_list, ecx
  04e5f	5f		 pop	 edi
  04e60	5e		 pop	 esi
  04e61	81 c4 98 07 00
	00		 add	 esp, 1944		; 00000798H
  04e67	3b ec		 cmp	 ebp, esp
  04e69	e8 00 00 00 00	 call	 __RTC_CheckEsp
  04e6e	8b e5		 mov	 esp, ebp
  04e70	5d		 pop	 ebp
  04e71	c2 08 00	 ret	 8
$L195277:
  04e74	02 00 00 00	 DD	 2
  04e78	00 00 00 00	 DD	 $L195276
$L195276:
  04e7c	e4 ff ff ff	 DD	 -28			; ffffffe4H
  04e80	04 00 00 00	 DD	 4
  04e84	00 00 00 00	 DD	 $L195273
  04e88	50 f9 ff ff	 DD	 -1712			; fffff950H
  04e8c	8c 06 00 00	 DD	 1676			; 0000068cH
  04e90	00 00 00 00	 DD	 $L195274
$L195274:
  04e94	64		 DB	 100			; 00000064H
  04e95	6c		 DB	 108			; 0000006cH
  04e96	67		 DB	 103			; 00000067H
  04e97	6d		 DB	 109			; 0000006dH
  04e98	73		 DB	 115			; 00000073H
  04e99	67		 DB	 103			; 00000067H
  04e9a	00		 DB	 0
$L195273:
  04e9b	74		 DB	 116			; 00000074H
  04e9c	69		 DB	 105			; 00000069H
  04e9d	70		 DB	 112			; 00000070H
  04e9e	73		 DB	 115			; 00000073H
  04e9f	00		 DB	 0
_TEXT	ENDS
text$x	SEGMENT
$L195257:
  008b7	8b f4		 mov	 esi, esp
  008b9	8d 8d 30 f9 ff
	ff		 lea	 ecx, DWORD PTR $T195245[ebp]
  008bf	ff 15 00 00 00
	00		 call	 DWORD PTR __imp_??1?$basic_string@DU?$char_traits@D@std@@V?$allocator@D@2@@std@@QAE@XZ
  008c5	3b f4		 cmp	 esi, esp
  008c7	e9 00 00 00 00	 jmp	 __RTC_CheckEsp
$L195258:
  008cc	8b f4		 mov	 esi, esp
  008ce	8d 8d 14 f9 ff
	ff		 lea	 ecx, DWORD PTR $T195246[ebp]
  008d4	ff 15 00 00 00
	00		 call	 DWORD PTR __imp_??1?$basic_string@DU?$char_traits@D@std@@V?$allocator@D@2@@std@@QAE@XZ
  008da	3b f4		 cmp	 esi, esp
  008dc	e9 00 00 00 00	 jmp	 __RTC_CheckEsp
$L195259:
  008e1	8b f4		 mov	 esi, esp
  008e3	8d 4d e4	 lea	 ecx, DWORD PTR _tips$192811[ebp]
  008e6	ff 15 00 00 00
	00		 call	 DWORD PTR __imp_??1?$CStringT@DV?$StrTraitMFC_DLL@DV?$ChTraitsCRT@D@ATL@@@@@ATL@@QAE@XZ
  008ec	3b f4		 cmp	 esi, esp
  008ee	e9 00 00 00 00	 jmp	 __RTC_CheckEsp
$L195260:
  008f3	8b f4		 mov	 esi, esp
  008f5	8b 8d 10 f9 ff
	ff		 mov	 ecx, DWORD PTR $T195247[ebp]
  008fb	ff 15 00 00 00
	00		 call	 DWORD PTR __imp_??1?$CStringT@DV?$StrTraitMFC_DLL@DV?$ChTraitsCRT@D@ATL@@@@@ATL@@QAE@XZ
  00901	3b f4		 cmp	 esi, esp
  00903	e9 00 00 00 00	 jmp	 __RTC_CheckEsp
$L195261:
  00908	8b f4		 mov	 esi, esp
  0090a	8b 8d 0c f9 ff
	ff		 mov	 ecx, DWORD PTR $T195248[ebp]
  00910	ff 15 00 00 00
	00		 call	 DWORD PTR __imp_??1?$CStringT@DV?$StrTraitMFC_DLL@DV?$ChTraitsCRT@D@ATL@@@@@ATL@@QAE@XZ
  00916	3b f4		 cmp	 esi, esp
  00918	e9 00 00 00 00	 jmp	 __RTC_CheckEsp
$L195263:
  0091d	8b f4		 mov	 esi, esp
  0091f	8d 8d ec f8 ff
	ff		 lea	 ecx, DWORD PTR $T195250[ebp]
  00925	ff 15 00 00 00
	00		 call	 DWORD PTR __imp_??1?$basic_string@DU?$char_traits@D@std@@V?$allocator@D@2@@std@@QAE@XZ
  0092b	3b f4		 cmp	 esi, esp
  0092d	e9 00 00 00 00	 jmp	 __RTC_CheckEsp
$L195264:
  00932	8b f4		 mov	 esi, esp
  00934	8d 8d d0 f8 ff
	ff		 lea	 ecx, DWORD PTR $T195251[ebp]
  0093a	ff 15 00 00 00
	00		 call	 DWORD PTR __imp_??1?$basic_string@DU?$char_traits@D@std@@V?$allocator@D@2@@std@@QAE@XZ
  00940	3b f4		 cmp	 esi, esp
  00942	e9 00 00 00 00	 jmp	 __RTC_CheckEsp
$L195265:
  00947	8b f4		 mov	 esi, esp
  00949	8d 8d cc f8 ff
	ff		 lea	 ecx, DWORD PTR $T195252[ebp]
  0094f	ff 15 00 00 00
	00		 call	 DWORD PTR __imp_??1?$CStringT@DV?$StrTraitMFC_DLL@DV?$ChTraitsCRT@D@ATL@@@@@ATL@@QAE@XZ
  00955	3b f4		 cmp	 esi, esp
  00957	e9 00 00 00 00	 jmp	 __RTC_CheckEsp
$L195266:
  0095c	8b f4		 mov	 esi, esp
  0095e	8d 8d b0 f8 ff
	ff		 lea	 ecx, DWORD PTR $T195253[ebp]
  00964	ff 15 00 00 00
	00		 call	 DWORD PTR __imp_??1?$basic_string@DU?$char_traits@D@std@@V?$allocator@D@2@@std@@QAE@XZ
  0096a	3b f4		 cmp	 esi, esp
  0096c	e9 00 00 00 00	 jmp	 __RTC_CheckEsp
$L195267:
  00971	8b f4		 mov	 esi, esp
  00973	8d 8d 94 f8 ff
	ff		 lea	 ecx, DWORD PTR $T195254[ebp]
  00979	ff 15 00 00 00
	00		 call	 DWORD PTR __imp_??1?$basic_string@DU?$char_traits@D@std@@V?$allocator@D@2@@std@@QAE@XZ
  0097f	3b f4		 cmp	 esi, esp
  00981	e9 00 00 00 00	 jmp	 __RTC_CheckEsp
$L195268:
  00986	8d 8d 50 f9 ff
	ff		 lea	 ecx, DWORD PTR _dlgmsg$192835[ebp]
  0098c	e9 00 00 00 00	 jmp	 ??1CDialogMsg@@UAE@XZ	; CDialogMsg::~CDialogMsg
$L195269:
  00991	8b f4		 mov	 esi, esp
  00993	8d 8d 90 f8 ff
	ff		 lea	 ecx, DWORD PTR $T195255[ebp]
  00999	ff 15 00 00 00
	00		 call	 DWORD PTR __imp_??1?$CStringT@DV?$StrTraitMFC_DLL@DV?$ChTraitsCRT@D@ATL@@@@@ATL@@QAE@XZ
  0099f	3b f4		 cmp	 esi, esp
  009a1	e9 00 00 00 00	 jmp	 __RTC_CheckEsp
$L195270:
  009a6	8b f4		 mov	 esi, esp
  009a8	8d 8d 8c f8 ff
	ff		 lea	 ecx, DWORD PTR $T195256[ebp]
  009ae	ff 15 00 00 00
	00		 call	 DWORD PTR __imp_??1?$CStringT@DV?$StrTraitMFC_DLL@DV?$ChTraitsCRT@D@ATL@@@@@ATL@@QAE@XZ
  009b4	3b f4		 cmp	 esi, esp
  009b6	e9 00 00 00 00	 jmp	 __RTC_CheckEsp
__ehhandler$?DownloadSubFinish@CSkinMgrV1@@QAEXABV?$CStringT@DV?$StrTraitMFC_DLL@DV?$ChTraitsCRT@D@ATL@@@@@ATL@@H@Z:
  009bb	b8 00 00 00 00	 mov	 eax, OFFSET FLAT:$T195272
  009c0	e9 00 00 00 00	 jmp	 ___CxxFrameHandler
text$x	ENDS
?DownloadSubFinish@CSkinMgrV1@@QAEXABV?$CStringT@DV?$StrTraitMFC_DLL@DV?$ChTraitsCRT@D@ATL@@@@@ATL@@H@Z ENDP ; CSkinMgrV1::DownloadSubFinish
; Function compile flags: /Odt /RTCsu
; File d:\boxgit\playbox\playbox\dev\prj\playbox\src\gui\commoncontrol\dialogmsg.h
;	COMDAT ?SetMsg@CDialogMsg@@QAEXABV?$CStringT@DV?$StrTraitMFC_DLL@DV?$ChTraitsCRT@D@ATL@@@@@ATL@@@Z
_TEXT	SEGMENT
_this$ = -4						; size = 4
_strMsg$ = 8						; size = 4
?SetMsg@CDialogMsg@@QAEXABV?$CStringT@DV?$StrTraitMFC_DLL@DV?$ChTraitsCRT@D@ATL@@@@@ATL@@@Z PROC NEAR ; CDialogMsg::SetMsg, COMDAT
; _this$ = ecx

; 36   : 	void	SetMsg(const CString& strMsg){m_strMsg = strMsg;}

  00000	55		 push	 ebp
  00001	8b ec		 mov	 ebp, esp
  00003	51		 push	 ecx
  00004	56		 push	 esi
  00005	c7 45 fc cc cc
	cc cc		 mov	 DWORD PTR [ebp-4], -858993460 ; ccccccccH
  0000c	89 4d fc	 mov	 DWORD PTR _this$[ebp], ecx
  0000f	8b f4		 mov	 esi, esp
  00011	8b 45 08	 mov	 eax, DWORD PTR _strMsg$[ebp]
  00014	50		 push	 eax
  00015	8b 4d fc	 mov	 ecx, DWORD PTR _this$[ebp]
  00018	81 c1 8c 00 00
	00		 add	 ecx, 140		; 0000008cH
  0001e	ff 15 00 00 00
	00		 call	 DWORD PTR __imp_??4?$CStringT@DV?$StrTraitMFC_DLL@DV?$ChTraitsCRT@D@ATL@@@@@ATL@@QAEAAV01@ABV01@@Z
  00024	3b f4		 cmp	 esi, esp
  00026	e8 00 00 00 00	 call	 __RTC_CheckEsp
  0002b	5e		 pop	 esi
  0002c	83 c4 04	 add	 esp, 4
  0002f	3b ec		 cmp	 ebp, esp
  00031	e8 00 00 00 00	 call	 __RTC_CheckEsp
  00036	8b e5		 mov	 esp, ebp
  00038	5d		 pop	 ebp
  00039	c2 04 00	 ret	 4
?SetMsg@CDialogMsg@@QAEXABV?$CStringT@DV?$StrTraitMFC_DLL@DV?$ChTraitsCRT@D@ATL@@@@@ATL@@@Z ENDP ; CDialogMsg::SetMsg
_TEXT	ENDS
EXTRN	?GetConfigBoolValue@AfxUserConfig@@QAEXABV?$basic_string@DU?$char_traits@D@std@@V?$allocator@D@2@@std@@0AA_N@Z:NEAR ; AfxUserConfig::GetConfigBoolValue
EXTRN	?SetConfigBoolValue@AfxUserConfig@@QAEXABV?$basic_string@DU?$char_traits@D@std@@V?$allocator@D@2@@std@@0_N1@Z:NEAR ; AfxUserConfig::SetConfigBoolValue
EXTRN	?GetWindowRect@CWnd@@QBEXPAUtagRECT@@@Z:NEAR	; CWnd::GetWindowRect
EXTRN	?ScreenToClient@CWnd@@QBEXPAUtagRECT@@@Z:NEAR	; CWnd::ScreenToClient
EXTRN	?InvalidateRect@CWnd@@QAEXPBUtagRECT@@H@Z:NEAR	; CWnd::InvalidateRect
EXTRN	?OnBtnSub@CMainSkinWnd@@QAEXXZ:NEAR		; CMainSkinWnd::OnBtnSub
xdata$x	SEGMENT
$T195326 DD	0ffffffffH
	DD	FLAT:$L195298
	DD	00H
	DD	FLAT:$L195299
	DD	0ffffffffH
	DD	FLAT:$L195300
	DD	02H
	DD	FLAT:$L195301
	DD	0ffffffffH
	DD	FLAT:$L195302
	DD	04H
	DD	FLAT:$L195303
	DD	0ffffffffH
	DD	FLAT:$L195305
	DD	06H
	DD	FLAT:$L195306
	DD	07H
	DD	FLAT:$L195307
	DD	06H
	DD	FLAT:$L195309
	DD	09H
	DD	FLAT:$L195310
	DD	06H
	DD	FLAT:$L195311
	DD	06H
	DD	FLAT:$L195312
	DD	0cH
	DD	FLAT:$L195313
	DD	0ffffffffH
	DD	FLAT:$L195314
	DD	0eH
	DD	FLAT:$L195315
	DD	0eH
	DD	FLAT:$L195316
$T195318 DD	019930520H
	DD	011H
	DD	FLAT:$T195326
	DD	2 DUP(00H)
	DD	2 DUP(00H)
; Function compile flags: /Odt /RTCsu
; File d:\boxgit\playbox\playbox\dev\prj\playbox\src\layoutmgr\changecolor\ichangecolormgr.cpp
xdata$x	ENDS
_TEXT	SEGMENT
tv367 = -2100						; size = 4
tv364 = -2096						; size = 4
tv386 = -2092						; size = 4
tv361 = -2088						; size = 4
tv383 = -2084						; size = 4
tv358 = -2080						; size = 4
tv175 = -2076						; size = 4
tv170 = -2072						; size = 4
tv161 = -2068						; size = 4
tv156 = -2064						; size = 4
$T195297 = -2060					; size = 4
$T195296 = -2056					; size = 4
$T195295 = -2052					; size = 28
$T195294 = -2024					; size = 28
$T195293 = -1996					; size = 4
$T195292 = -1992					; size = 28
$T195291 = -1964					; size = 28
$T195290 = -1936					; size = 4
$T195289 = -1932					; size = 4
$T195288 = -1928					; size = 4
$T195287 = -1924					; size = 4
$T195286 = -1920					; size = 28
$T195285 = -1892					; size = 28
$T195284 = -1864					; size = 28
$T195283 = -1836					; size = 28
$T195282 = -1808					; size = 28
$T195281 = -1780					; size = 28
_dlgmsg$192889 = -1748					; size = 1676
_tips$192865 = -64					; size = 4
_nFirstRun$192856 = -49					; size = 1
_pOneSub$192855 = -44					; size = 4
_rc$ = -36						; size = 16
_this$ = -16						; size = 4
__$EHRec$ = -12						; size = 12
_strSub$ = 8						; size = 4
_bSuc$ = 12						; size = 4
?DownloadWebSubFinish@CSkinMgrV1@@QAEXABV?$CStringT@DV?$StrTraitMFC_DLL@DV?$ChTraitsCRT@D@ATL@@@@@ATL@@H@Z PROC NEAR ; CSkinMgrV1::DownloadWebSubFinish
; _this$ = ecx

; 975  : {

  04ea0	55		 push	 ebp
  04ea1	8b ec		 mov	 ebp, esp
  04ea3	6a ff		 push	 -1
  04ea5	68 00 00 00 00	 push	 __ehhandler$?DownloadWebSubFinish@CSkinMgrV1@@QAEXABV?$CStringT@DV?$StrTraitMFC_DLL@DV?$ChTraitsCRT@D@ATL@@@@@ATL@@H@Z
  04eaa	64 a1 00 00 00
	00		 mov	 eax, DWORD PTR fs:__except_list
  04eb0	50		 push	 eax
  04eb1	64 89 25 00 00
	00 00		 mov	 DWORD PTR fs:__except_list, esp
  04eb8	81 ec 28 08 00
	00		 sub	 esp, 2088		; 00000828H
  04ebe	56		 push	 esi
  04ebf	57		 push	 edi
  04ec0	51		 push	 ecx
  04ec1	8d bd cc f7 ff
	ff		 lea	 edi, DWORD PTR [ebp-2100]
  04ec7	b9 0a 02 00 00	 mov	 ecx, 522		; 0000020aH
  04ecc	b8 cc cc cc cc	 mov	 eax, -858993460		; ccccccccH
  04ed1	f3 ab		 rep stosd
  04ed3	59		 pop	 ecx
  04ed4	89 4d f0	 mov	 DWORD PTR _this$[ebp], ecx

; 976  : 	YL_Log("SkinB.txt",LOG_DEBUG,"Click-In","9");

  04ed7	8b f4		 mov	 esi, esp
  04ed9	68 00 00 00 00	 push	 OFFSET FLAT:$SG192848
  04ede	8d 8d 0c f9 ff
	ff		 lea	 ecx, DWORD PTR $T195281[ebp]
  04ee4	ff 15 00 00 00
	00		 call	 DWORD PTR __imp_??0?$basic_string@DU?$char_traits@D@std@@V?$allocator@D@2@@std@@QAE@PBD@Z
  04eea	3b f4		 cmp	 esi, esp
  04eec	e8 00 00 00 00	 call	 __RTC_CheckEsp
  04ef1	c7 45 fc 00 00
	00 00		 mov	 DWORD PTR __$EHRec$[ebp+8], 0
  04ef8	8b f4		 mov	 esi, esp
  04efa	68 00 00 00 00	 push	 OFFSET FLAT:$SG192849
  04eff	8d 8d f0 f8 ff
	ff		 lea	 ecx, DWORD PTR $T195282[ebp]
  04f05	ff 15 00 00 00
	00		 call	 DWORD PTR __imp_??0?$basic_string@DU?$char_traits@D@std@@V?$allocator@D@2@@std@@QAE@PBD@Z
  04f0b	3b f4		 cmp	 esi, esp
  04f0d	e8 00 00 00 00	 call	 __RTC_CheckEsp
  04f12	c6 45 fc 01	 mov	 BYTE PTR __$EHRec$[ebp+8], 1
  04f16	8b f4		 mov	 esi, esp
  04f18	68 00 00 00 00	 push	 OFFSET FLAT:$SG192847
  04f1d	8d 85 0c f9 ff
	ff		 lea	 eax, DWORD PTR $T195281[ebp]
  04f23	50		 push	 eax
  04f24	6a 00		 push	 0
  04f26	8d 8d f0 f8 ff
	ff		 lea	 ecx, DWORD PTR $T195282[ebp]
  04f2c	51		 push	 ecx
  04f2d	ff 15 00 00 00
	00		 call	 DWORD PTR __imp_?YL_Log@@YAXABV?$basic_string@DU?$char_traits@D@std@@V?$allocator@D@2@@std@@H0PBDZZ
  04f33	83 c4 10	 add	 esp, 16			; 00000010H
  04f36	3b f4		 cmp	 esi, esp
  04f38	e8 00 00 00 00	 call	 __RTC_CheckEsp
  04f3d	c6 45 fc 00	 mov	 BYTE PTR __$EHRec$[ebp+8], 0
  04f41	8b f4		 mov	 esi, esp
  04f43	8d 8d f0 f8 ff
	ff		 lea	 ecx, DWORD PTR $T195282[ebp]
  04f49	ff 15 00 00 00
	00		 call	 DWORD PTR __imp_??1?$basic_string@DU?$char_traits@D@std@@V?$allocator@D@2@@std@@QAE@XZ
  04f4f	3b f4		 cmp	 esi, esp
  04f51	e8 00 00 00 00	 call	 __RTC_CheckEsp
  04f56	c7 45 fc ff ff
	ff ff		 mov	 DWORD PTR __$EHRec$[ebp+8], -1
  04f5d	8b f4		 mov	 esi, esp
  04f5f	8d 8d 0c f9 ff
	ff		 lea	 ecx, DWORD PTR $T195281[ebp]
  04f65	ff 15 00 00 00
	00		 call	 DWORD PTR __imp_??1?$basic_string@DU?$char_traits@D@std@@V?$allocator@D@2@@std@@QAE@XZ
  04f6b	3b f4		 cmp	 esi, esp
  04f6d	e8 00 00 00 00	 call	 __RTC_CheckEsp

; 977  : 	if( mp_SubjectWnd != NULL )

  04f72	8b 55 f0	 mov	 edx, DWORD PTR _this$[ebp]
  04f75	83 7a 18 00	 cmp	 DWORD PTR [edx+24], 0
  04f79	74 0d		 je	 SHORT $L192850

; 978  : 	{
; 979  : 		mp_SubjectWnd->EnableSkinBtn( TRUE );

  04f7b	6a 01		 push	 1
  04f7d	8b 45 f0	 mov	 eax, DWORD PTR _this$[ebp]
  04f80	8b 48 18	 mov	 ecx, DWORD PTR [eax+24]
  04f83	e8 00 00 00 00	 call	 ?EnableSkinBtn@CSubjectChildWnd@@QAEXH@Z ; CSubjectChildWnd::EnableSkinBtn
$L192850:

; 980  : 	}
; 981  : 
; 982  : 	if(mp_skinWnd != NULL )

  04f88	8b 4d f0	 mov	 ecx, DWORD PTR _this$[ebp]
  04f8b	83 79 14 00	 cmp	 DWORD PTR [ecx+20], 0
  04f8f	74 0d		 je	 SHORT $L192851

; 983  : 	{
; 984  : 		mp_skinWnd->EnableSkinBtn( TRUE );

  04f91	6a 01		 push	 1
  04f93	8b 55 f0	 mov	 edx, DWORD PTR _this$[ebp]
  04f96	8b 4a 14	 mov	 ecx, DWORD PTR [edx+20]
  04f99	e8 00 00 00 00	 call	 ?EnableSkinBtn@CSkinWnd@@QAEXH@Z ; CSkinWnd::EnableSkinBtn
$L192851:

; 985  : 	}
; 986  : 
; 987  : 	mp_downloadSubject->ShowWindow( SW_HIDE );

  04f9e	6a 00		 push	 0
  04fa0	8b 45 f0	 mov	 eax, DWORD PTR _this$[ebp]
  04fa3	8b 48 24	 mov	 ecx, DWORD PTR [eax+36]
  04fa6	e8 00 00 00 00	 call	 ?ShowWindow@CWnd@@QAEHH@Z ; CWnd::ShowWindow

; 988  : 	mp_mainSkinWnd->ShowToolTip(0);

  04fab	6a 00		 push	 0
  04fad	8b 4d f0	 mov	 ecx, DWORD PTR _this$[ebp]
  04fb0	8b 49 10	 mov	 ecx, DWORD PTR [ecx+16]
  04fb3	e8 00 00 00 00	 call	 ?ShowToolTip@CMainSkinWnd@@QAEXH@Z ; CMainSkinWnd::ShowToolTip

; 989  : 
; 990  : 	mp_mainSkinWnd->ShowColorBtn( TRUE );

  04fb8	6a 01		 push	 1
  04fba	8b 55 f0	 mov	 edx, DWORD PTR _this$[ebp]
  04fbd	8b 4a 10	 mov	 ecx, DWORD PTR [edx+16]
  04fc0	e8 00 00 00 00	 call	 ?ShowColorBtn@CMainSkinWnd@@QAEXH@Z ; CMainSkinWnd::ShowColorBtn

; 991  : 
; 992  : 	CRect rc;

  04fc5	8d 4d dc	 lea	 ecx, DWORD PTR _rc$[ebp]
  04fc8	e8 00 00 00 00	 call	 ??0CRect@@QAE@XZ	; CRect::CRect

; 993  : 	mp_downloadSubject->GetWindowRect(rc);

  04fcd	8d 4d dc	 lea	 ecx, DWORD PTR _rc$[ebp]
  04fd0	e8 00 00 00 00	 call	 ??BCRect@@QAEPAUtagRECT@@XZ ; CRect::operator tagRECT *
  04fd5	50		 push	 eax
  04fd6	8b 45 f0	 mov	 eax, DWORD PTR _this$[ebp]
  04fd9	8b 48 24	 mov	 ecx, DWORD PTR [eax+36]
  04fdc	e8 00 00 00 00	 call	 ?GetWindowRect@CWnd@@QBEXPAUtagRECT@@@Z ; CWnd::GetWindowRect

; 994  : 	mp_mainSkinWnd->ScreenToClient(rc);

  04fe1	8d 4d dc	 lea	 ecx, DWORD PTR _rc$[ebp]
  04fe4	e8 00 00 00 00	 call	 ??BCRect@@QAEPAUtagRECT@@XZ ; CRect::operator tagRECT *
  04fe9	50		 push	 eax
  04fea	8b 4d f0	 mov	 ecx, DWORD PTR _this$[ebp]
  04fed	8b 49 10	 mov	 ecx, DWORD PTR [ecx+16]
  04ff0	e8 00 00 00 00	 call	 ?ScreenToClient@CWnd@@QBEXPAUtagRECT@@@Z ; CWnd::ScreenToClient

; 995  :  	mp_mainSkinWnd->InvalidateRect(&rc,true);

  04ff5	6a 01		 push	 1
  04ff7	8d 55 dc	 lea	 edx, DWORD PTR _rc$[ebp]
  04ffa	52		 push	 edx
  04ffb	8b 45 f0	 mov	 eax, DWORD PTR _this$[ebp]
  04ffe	8b 48 10	 mov	 ecx, DWORD PTR [eax+16]
  05001	e8 00 00 00 00	 call	 ?InvalidateRect@CWnd@@QAEXPBUtagRECT@@H@Z ; CWnd::InvalidateRect

; 996  :  	mp_mainSkinWnd->UpdateWindow();

  05006	8b 4d f0	 mov	 ecx, DWORD PTR _this$[ebp]
  05009	8b 49 10	 mov	 ecx, DWORD PTR [ecx+16]
  0500c	e8 00 00 00 00	 call	 ?UpdateWindow@CWnd@@QAEXXZ ; CWnd::UpdateWindow

; 997  : 
; 998  : 	if( bSuc )

  05011	83 7d 0c 00	 cmp	 DWORD PTR _bSuc$[ebp], 0
  05015	0f 84 ee 04 00
	00		 je	 $L192853

; 999  : 	{	
; 1000 : 		AfxGetUIManager()->UIGetSkinMgr()->SubDownloaded( strSub );

  0501b	e8 00 00 00 00	 call	 ?AfxGetUIManager@@YAPAVIUIManager@@XZ ; AfxGetUIManager
  05020	89 85 f0 f7 ff
	ff		 mov	 DWORD PTR tv156[ebp], eax
  05026	8b f4		 mov	 esi, esp
  05028	8b 95 f0 f7 ff
	ff		 mov	 edx, DWORD PTR tv156[ebp]
  0502e	8b 02		 mov	 eax, DWORD PTR [edx]
  05030	8b 8d f0 f7 ff
	ff		 mov	 ecx, DWORD PTR tv156[ebp]
  05036	ff 50 28	 call	 DWORD PTR [eax+40]
  05039	3b f4		 cmp	 esi, esp
  0503b	e8 00 00 00 00	 call	 __RTC_CheckEsp
  05040	89 85 ec f7 ff
	ff		 mov	 DWORD PTR tv161[ebp], eax
  05046	8b f4		 mov	 esi, esp
  05048	8b 4d 08	 mov	 ecx, DWORD PTR _strSub$[ebp]
  0504b	51		 push	 ecx
  0504c	8b 95 ec f7 ff
	ff		 mov	 edx, DWORD PTR tv161[ebp]
  05052	8b 02		 mov	 eax, DWORD PTR [edx]
  05054	8b 8d ec f7 ff
	ff		 mov	 ecx, DWORD PTR tv161[ebp]
  0505a	ff 50 48	 call	 DWORD PTR [eax+72]
  0505d	3b f4		 cmp	 esi, esp
  0505f	e8 00 00 00 00	 call	 __RTC_CheckEsp

; 1001 : 
; 1002 : 		if( mb_HasPopWnd )

  05064	8b 4d f0	 mov	 ecx, DWORD PTR _this$[ebp]
  05067	0f b6 51 48	 movzx	 edx, BYTE PTR [ecx+72]
  0506b	85 d2		 test	 edx, edx
  0506d	0f 84 91 04 00
	00		 je	 $L192854

; 1003 : 		{
; 1004 : 			OneSubject* pOneSub = AfxGetUIManager()->UIGetSkinMgr()->GetOneSubject( strSub );

  05073	e8 00 00 00 00	 call	 ?AfxGetUIManager@@YAPAVIUIManager@@XZ ; AfxGetUIManager
  05078	89 85 e8 f7 ff
	ff		 mov	 DWORD PTR tv170[ebp], eax
  0507e	8b f4		 mov	 esi, esp
  05080	8b 85 e8 f7 ff
	ff		 mov	 eax, DWORD PTR tv170[ebp]
  05086	8b 10		 mov	 edx, DWORD PTR [eax]
  05088	8b 8d e8 f7 ff
	ff		 mov	 ecx, DWORD PTR tv170[ebp]
  0508e	ff 52 28	 call	 DWORD PTR [edx+40]
  05091	3b f4		 cmp	 esi, esp
  05093	e8 00 00 00 00	 call	 __RTC_CheckEsp
  05098	89 85 e4 f7 ff
	ff		 mov	 DWORD PTR tv175[ebp], eax
  0509e	8b f4		 mov	 esi, esp
  050a0	8b 45 08	 mov	 eax, DWORD PTR _strSub$[ebp]
  050a3	50		 push	 eax
  050a4	8b 8d e4 f7 ff
	ff		 mov	 ecx, DWORD PTR tv175[ebp]
  050aa	8b 11		 mov	 edx, DWORD PTR [ecx]
  050ac	8b 8d e4 f7 ff
	ff		 mov	 ecx, DWORD PTR tv175[ebp]
  050b2	ff 52 2c	 call	 DWORD PTR [edx+44]
  050b5	3b f4		 cmp	 esi, esp
  050b7	e8 00 00 00 00	 call	 __RTC_CheckEsp
  050bc	89 45 d4	 mov	 DWORD PTR _pOneSub$192855[ebp], eax

; 1005 : 
; 1006 : 			bool nFirstRun;
; 1007 : 			AfxGetUserConfig()->GetConfigBoolValue( CONF_SETTING_MODULE_NAME,CONF_SETTING_FIRST_TIME_CHANGESKIN,nFirstRun);

  050bf	8b f4		 mov	 esi, esp
  050c1	a1 00 00 00 00	 mov	 eax, DWORD PTR _CONF_SETTING_FIRST_TIME_CHANGESKIN
  050c6	50		 push	 eax
  050c7	8d 8d d4 f8 ff
	ff		 lea	 ecx, DWORD PTR $T195283[ebp]
  050cd	ff 15 00 00 00
	00		 call	 DWORD PTR __imp_??0?$basic_string@DU?$char_traits@D@std@@V?$allocator@D@2@@std@@QAE@PBD@Z
  050d3	3b f4		 cmp	 esi, esp
  050d5	e8 00 00 00 00	 call	 __RTC_CheckEsp
  050da	c7 45 fc 02 00
	00 00		 mov	 DWORD PTR __$EHRec$[ebp+8], 2
  050e1	8b f4		 mov	 esi, esp
  050e3	8b 0d 00 00 00
	00		 mov	 ecx, DWORD PTR _CONF_SETTING_MODULE_NAME
  050e9	51		 push	 ecx
  050ea	8d 8d b8 f8 ff
	ff		 lea	 ecx, DWORD PTR $T195284[ebp]
  050f0	ff 15 00 00 00
	00		 call	 DWORD PTR __imp_??0?$basic_string@DU?$char_traits@D@std@@V?$allocator@D@2@@std@@QAE@PBD@Z
  050f6	3b f4		 cmp	 esi, esp
  050f8	e8 00 00 00 00	 call	 __RTC_CheckEsp
  050fd	c6 45 fc 03	 mov	 BYTE PTR __$EHRec$[ebp+8], 3
  05101	8d 55 cf	 lea	 edx, DWORD PTR _nFirstRun$192856[ebp]
  05104	52		 push	 edx
  05105	8d 85 d4 f8 ff
	ff		 lea	 eax, DWORD PTR $T195283[ebp]
  0510b	50		 push	 eax
  0510c	8d 8d b8 f8 ff
	ff		 lea	 ecx, DWORD PTR $T195284[ebp]
  05112	51		 push	 ecx
  05113	e8 00 00 00 00	 call	 ?AfxGetUserConfig@@YAPAVAfxUserConfig@@XZ ; AfxGetUserConfig
  05118	8b c8		 mov	 ecx, eax
  0511a	e8 00 00 00 00	 call	 ?GetConfigBoolValue@AfxUserConfig@@QAEXABV?$basic_string@DU?$char_traits@D@std@@V?$allocator@D@2@@std@@0AA_N@Z ; AfxUserConfig::GetConfigBoolValue
  0511f	c6 45 fc 02	 mov	 BYTE PTR __$EHRec$[ebp+8], 2
  05123	8b f4		 mov	 esi, esp
  05125	8d 8d b8 f8 ff
	ff		 lea	 ecx, DWORD PTR $T195284[ebp]
  0512b	ff 15 00 00 00
	00		 call	 DWORD PTR __imp_??1?$basic_string@DU?$char_traits@D@std@@V?$allocator@D@2@@std@@QAE@XZ
  05131	3b f4		 cmp	 esi, esp
  05133	e8 00 00 00 00	 call	 __RTC_CheckEsp
  05138	c7 45 fc ff ff
	ff ff		 mov	 DWORD PTR __$EHRec$[ebp+8], -1
  0513f	8b f4		 mov	 esi, esp
  05141	8d 8d d4 f8 ff
	ff		 lea	 ecx, DWORD PTR $T195283[ebp]
  05147	ff 15 00 00 00
	00		 call	 DWORD PTR __imp_??1?$basic_string@DU?$char_traits@D@std@@V?$allocator@D@2@@std@@QAE@XZ
  0514d	3b f4		 cmp	 esi, esp
  0514f	e8 00 00 00 00	 call	 __RTC_CheckEsp

; 1008 : 
; 1009 : 			if(nFirstRun)

  05154	0f b6 55 cf	 movzx	 edx, BYTE PTR _nFirstRun$192856[ebp]
  05158	85 d2		 test	 edx, edx
  0515a	0f 84 a9 00 00
	00		 je	 $L192859

; 1010 : 			{
; 1011 : 				mp_mainSkinWnd->OnBtnSub();

  05160	8b 45 f0	 mov	 eax, DWORD PTR _this$[ebp]
  05163	8b 48 10	 mov	 ecx, DWORD PTR [eax+16]
  05166	e8 00 00 00 00	 call	 ?OnBtnSub@CMainSkinWnd@@QAEXXZ ; CMainSkinWnd::OnBtnSub

; 1012 : 				nFirstRun = 0;

  0516b	c6 45 cf 00	 mov	 BYTE PTR _nFirstRun$192856[ebp], 0

; 1013 : 				AfxGetUserConfig()->SetConfigBoolValue( CONF_SETTING_MODULE_NAME,CONF_SETTING_FIRST_TIME_CHANGESKIN,nFirstRun);

  0516f	8b f4		 mov	 esi, esp
  05171	8b 0d 00 00 00
	00		 mov	 ecx, DWORD PTR _CONF_SETTING_FIRST_TIME_CHANGESKIN
  05177	51		 push	 ecx
  05178	8d 8d 9c f8 ff
	ff		 lea	 ecx, DWORD PTR $T195285[ebp]
  0517e	ff 15 00 00 00
	00		 call	 DWORD PTR __imp_??0?$basic_string@DU?$char_traits@D@std@@V?$allocator@D@2@@std@@QAE@PBD@Z
  05184	3b f4		 cmp	 esi, esp
  05186	e8 00 00 00 00	 call	 __RTC_CheckEsp
  0518b	c7 45 fc 04 00
	00 00		 mov	 DWORD PTR __$EHRec$[ebp+8], 4
  05192	8b f4		 mov	 esi, esp
  05194	8b 15 00 00 00
	00		 mov	 edx, DWORD PTR _CONF_SETTING_MODULE_NAME
  0519a	52		 push	 edx
  0519b	8d 8d 80 f8 ff
	ff		 lea	 ecx, DWORD PTR $T195286[ebp]
  051a1	ff 15 00 00 00
	00		 call	 DWORD PTR __imp_??0?$basic_string@DU?$char_traits@D@std@@V?$allocator@D@2@@std@@QAE@PBD@Z
  051a7	3b f4		 cmp	 esi, esp
  051a9	e8 00 00 00 00	 call	 __RTC_CheckEsp
  051ae	c6 45 fc 05	 mov	 BYTE PTR __$EHRec$[ebp+8], 5
  051b2	6a 00		 push	 0
  051b4	8a 45 cf	 mov	 al, BYTE PTR _nFirstRun$192856[ebp]
  051b7	50		 push	 eax
  051b8	8d 8d 9c f8 ff
	ff		 lea	 ecx, DWORD PTR $T195285[ebp]
  051be	51		 push	 ecx
  051bf	8d 95 80 f8 ff
	ff		 lea	 edx, DWORD PTR $T195286[ebp]
  051c5	52		 push	 edx
  051c6	e8 00 00 00 00	 call	 ?AfxGetUserConfig@@YAPAVAfxUserConfig@@XZ ; AfxGetUserConfig
  051cb	8b c8		 mov	 ecx, eax
  051cd	e8 00 00 00 00	 call	 ?SetConfigBoolValue@AfxUserConfig@@QAEXABV?$basic_string@DU?$char_traits@D@std@@V?$allocator@D@2@@std@@0_N1@Z ; AfxUserConfig::SetConfigBoolValue
  051d2	c6 45 fc 04	 mov	 BYTE PTR __$EHRec$[ebp+8], 4
  051d6	8b f4		 mov	 esi, esp
  051d8	8d 8d 80 f8 ff
	ff		 lea	 ecx, DWORD PTR $T195286[ebp]
  051de	ff 15 00 00 00
	00		 call	 DWORD PTR __imp_??1?$basic_string@DU?$char_traits@D@std@@V?$allocator@D@2@@std@@QAE@XZ
  051e4	3b f4		 cmp	 esi, esp
  051e6	e8 00 00 00 00	 call	 __RTC_CheckEsp
  051eb	c7 45 fc ff ff
	ff ff		 mov	 DWORD PTR __$EHRec$[ebp+8], -1
  051f2	8b f4		 mov	 esi, esp
  051f4	8d 8d 9c f8 ff
	ff		 lea	 ecx, DWORD PTR $T195285[ebp]
  051fa	ff 15 00 00 00
	00		 call	 DWORD PTR __imp_??1?$basic_string@DU?$char_traits@D@std@@V?$allocator@D@2@@std@@QAE@XZ
  05200	3b f4		 cmp	 esi, esp
  05202	e8 00 00 00 00	 call	 __RTC_CheckEsp

; 1014 : 			}
; 1015 : 			else

  05207	eb 3b		 jmp	 SHORT $L192862
$L192859:

; 1016 : 			{
; 1017 : 				mp_mainSkinWnd->SetToolTip("");

  05209	51		 push	 ecx
  0520a	8b cc		 mov	 ecx, esp
  0520c	89 a5 7c f8 ff
	ff		 mov	 DWORD PTR $T195287[ebp], esp
  05212	8b f4		 mov	 esi, esp
  05214	68 00 00 00 00	 push	 OFFSET FLAT:$SG192864
  05219	ff 15 00 00 00
	00		 call	 DWORD PTR __imp_??0?$CStringT@DV?$StrTraitMFC_DLL@DV?$ChTraitsCRT@D@ATL@@@@@ATL@@QAE@PBD@Z
  0521f	3b f4		 cmp	 esi, esp
  05221	e8 00 00 00 00	 call	 __RTC_CheckEsp
  05226	89 85 e0 f7 ff
	ff		 mov	 DWORD PTR tv358[ebp], eax
  0522c	8b 45 f0	 mov	 eax, DWORD PTR _this$[ebp]
  0522f	8b 48 10	 mov	 ecx, DWORD PTR [eax+16]
  05232	e8 00 00 00 00	 call	 ?SetToolTip@CMainSkinWnd@@QAEXV?$CStringT@DV?$StrTraitMFC_DLL@DV?$ChTraitsCRT@D@ATL@@@@@ATL@@@Z ; CMainSkinWnd::SetToolTip

; 1018 : 				mp_mainSkinWnd->ShowToolTip(1);

  05237	6a 01		 push	 1
  05239	8b 4d f0	 mov	 ecx, DWORD PTR _this$[ebp]
  0523c	8b 49 10	 mov	 ecx, DWORD PTR [ecx+16]
  0523f	e8 00 00 00 00	 call	 ?ShowToolTip@CMainSkinWnd@@QAEXH@Z ; CMainSkinWnd::ShowToolTip
$L192862:

; 1019 : 			}
; 1020 : 
; 1021 : 			CString tips = "";

  05244	8b f4		 mov	 esi, esp
  05246	68 00 00 00 00	 push	 OFFSET FLAT:$SG192866
  0524b	8d 4d c0	 lea	 ecx, DWORD PTR _tips$192865[ebp]
  0524e	ff 15 00 00 00
	00		 call	 DWORD PTR __imp_??0?$CStringT@DV?$StrTraitMFC_DLL@DV?$ChTraitsCRT@D@ATL@@@@@ATL@@QAE@PBD@Z
  05254	3b f4		 cmp	 esi, esp
  05256	e8 00 00 00 00	 call	 __RTC_CheckEsp
  0525b	c7 45 fc 06 00
	00 00		 mov	 DWORD PTR __$EHRec$[ebp+8], 6

; 1022 : 			if( pOneSub != NULL )

  05262	83 7d d4 00	 cmp	 DWORD PTR _pOneSub$192855[ebp], 0
  05266	74 33		 je	 SHORT $L192867

; 1023 : 			{
; 1024 : 				tips.Format( ":  %s\r\n: ",pOneSub->strShowName.c_str()  );

  05268	8b 4d d4	 mov	 ecx, DWORD PTR _pOneSub$192855[ebp]
  0526b	83 c1 38	 add	 ecx, 56			; 00000038H
  0526e	8b f4		 mov	 esi, esp
  05270	ff 15 00 00 00
	00		 call	 DWORD PTR __imp_?c_str@?$basic_string@DU?$char_traits@D@std@@V?$allocator@D@2@@std@@QBEPBDXZ
  05276	3b f4		 cmp	 esi, esp
  05278	e8 00 00 00 00	 call	 __RTC_CheckEsp
  0527d	8b f4		 mov	 esi, esp
  0527f	50		 push	 eax
  05280	68 00 00 00 00	 push	 OFFSET FLAT:$SG192868
  05285	8d 55 c0	 lea	 edx, DWORD PTR _tips$192865[ebp]
  05288	52		 push	 edx
  05289	ff 15 00 00 00
	00		 call	 DWORD PTR __imp_?Format@?$CStringT@DV?$StrTraitMFC_DLL@DV?$ChTraitsCRT@D@ATL@@@@@ATL@@QAAXPBDZZ
  0528f	83 c4 0c	 add	 esp, 12			; 0000000cH
  05292	3b f4		 cmp	 esi, esp
  05294	e8 00 00 00 00	 call	 __RTC_CheckEsp

; 1025 : 			}
; 1026 : 			else

  05299	eb 1b		 jmp	 SHORT $L192869
$L192867:

; 1027 : 			{
; 1028 : 				tips.Format( ": ");

  0529b	8b f4		 mov	 esi, esp
  0529d	68 00 00 00 00	 push	 OFFSET FLAT:$SG192870
  052a2	8d 45 c0	 lea	 eax, DWORD PTR _tips$192865[ebp]
  052a5	50		 push	 eax
  052a6	ff 15 00 00 00
	00		 call	 DWORD PTR __imp_?Format@?$CStringT@DV?$StrTraitMFC_DLL@DV?$ChTraitsCRT@D@ATL@@@@@ATL@@QAAXPBDZZ
  052ac	83 c4 08	 add	 esp, 8
  052af	3b f4		 cmp	 esi, esp
  052b1	e8 00 00 00 00	 call	 __RTC_CheckEsp
$L192869:

; 1029 : 			}
; 1030 : 
; 1031 : 			if(  pOneSub != NULL&&mp_SubjectWnd )

  052b6	83 7d d4 00	 cmp	 DWORD PTR _pOneSub$192855[ebp], 0
  052ba	0f 84 b4 00 00
	00		 je	 $L192871
  052c0	8b 4d f0	 mov	 ecx, DWORD PTR _this$[ebp]
  052c3	83 79 18 00	 cmp	 DWORD PTR [ecx+24], 0
  052c7	0f 84 a7 00 00
	00		 je	 $L192871

; 1032 : 			{
; 1033 : 				mp_SubjectWnd->SetTipText( strSub,tips ,pOneSub->strShowName.c_str());

  052cd	8b 4d d4	 mov	 ecx, DWORD PTR _pOneSub$192855[ebp]
  052d0	83 c1 38	 add	 ecx, 56			; 00000038H
  052d3	8b f4		 mov	 esi, esp
  052d5	ff 15 00 00 00
	00		 call	 DWORD PTR __imp_?c_str@?$basic_string@DU?$char_traits@D@std@@V?$allocator@D@2@@std@@QBEPBDXZ
  052db	3b f4		 cmp	 esi, esp
  052dd	e8 00 00 00 00	 call	 __RTC_CheckEsp
  052e2	51		 push	 ecx
  052e3	8b cc		 mov	 ecx, esp
  052e5	89 a5 78 f8 ff
	ff		 mov	 DWORD PTR $T195288[ebp], esp
  052eb	8b f4		 mov	 esi, esp
  052ed	50		 push	 eax
  052ee	ff 15 00 00 00
	00		 call	 DWORD PTR __imp_??0?$CStringT@DV?$StrTraitMFC_DLL@DV?$ChTraitsCRT@D@ATL@@@@@ATL@@QAE@PBD@Z
  052f4	3b f4		 cmp	 esi, esp
  052f6	e8 00 00 00 00	 call	 __RTC_CheckEsp
  052fb	89 85 dc f7 ff
	ff		 mov	 DWORD PTR tv383[ebp], eax
  05301	8b 95 dc f7 ff
	ff		 mov	 edx, DWORD PTR tv383[ebp]
  05307	89 95 d8 f7 ff
	ff		 mov	 DWORD PTR tv361[ebp], edx
  0530d	c6 45 fc 07	 mov	 BYTE PTR __$EHRec$[ebp+8], 7
  05311	51		 push	 ecx
  05312	8b cc		 mov	 ecx, esp
  05314	89 a5 74 f8 ff
	ff		 mov	 DWORD PTR $T195289[ebp], esp
  0531a	8b f4		 mov	 esi, esp
  0531c	8d 45 c0	 lea	 eax, DWORD PTR _tips$192865[ebp]
  0531f	50		 push	 eax
  05320	ff 15 00 00 00
	00		 call	 DWORD PTR __imp_??0?$CStringT@DV?$StrTraitMFC_DLL@DV?$ChTraitsCRT@D@ATL@@@@@ATL@@QAE@ABV01@@Z
  05326	3b f4		 cmp	 esi, esp
  05328	e8 00 00 00 00	 call	 __RTC_CheckEsp
  0532d	89 85 d4 f7 ff
	ff		 mov	 DWORD PTR tv386[ebp], eax
  05333	8b 8d d4 f7 ff
	ff		 mov	 ecx, DWORD PTR tv386[ebp]
  05339	89 8d d0 f7 ff
	ff		 mov	 DWORD PTR tv364[ebp], ecx
  0533f	c6 45 fc 08	 mov	 BYTE PTR __$EHRec$[ebp+8], 8
  05343	51		 push	 ecx
  05344	8b cc		 mov	 ecx, esp
  05346	89 a5 70 f8 ff
	ff		 mov	 DWORD PTR $T195290[ebp], esp
  0534c	8b f4		 mov	 esi, esp
  0534e	8b 55 08	 mov	 edx, DWORD PTR _strSub$[ebp]
  05351	52		 push	 edx
  05352	ff 15 00 00 00
	00		 call	 DWORD PTR __imp_??0?$CStringT@DV?$StrTraitMFC_DLL@DV?$ChTraitsCRT@D@ATL@@@@@ATL@@QAE@ABV01@@Z
  05358	3b f4		 cmp	 esi, esp
  0535a	e8 00 00 00 00	 call	 __RTC_CheckEsp
  0535f	89 85 cc f7 ff
	ff		 mov	 DWORD PTR tv367[ebp], eax
  05365	8b 45 f0	 mov	 eax, DWORD PTR _this$[ebp]
  05368	8b 48 18	 mov	 ecx, DWORD PTR [eax+24]
  0536b	c6 45 fc 06	 mov	 BYTE PTR __$EHRec$[ebp+8], 6
  0536f	e8 00 00 00 00	 call	 ?SetTipText@CSubjectChildWnd@@QAEXV?$CStringT@DV?$StrTraitMFC_DLL@DV?$ChTraitsCRT@D@ATL@@@@@ATL@@00@Z ; CSubjectChildWnd::SetTipText
$L192871:

; 1034 : 			}
; 1035 : 
; 1036 : 			YL_Log("SkinB.txt",LOG_DEBUG,"Click-In","10");

  05374	8b f4		 mov	 esi, esp
  05376	68 00 00 00 00	 push	 OFFSET FLAT:$SG192878
  0537b	8d 8d 54 f8 ff
	ff		 lea	 ecx, DWORD PTR $T195291[ebp]
  05381	ff 15 00 00 00
	00		 call	 DWORD PTR __imp_??0?$basic_string@DU?$char_traits@D@std@@V?$allocator@D@2@@std@@QAE@PBD@Z
  05387	3b f4		 cmp	 esi, esp
  05389	e8 00 00 00 00	 call	 __RTC_CheckEsp
  0538e	c6 45 fc 09	 mov	 BYTE PTR __$EHRec$[ebp+8], 9
  05392	8b f4		 mov	 esi, esp
  05394	68 00 00 00 00	 push	 OFFSET FLAT:$SG192879
  05399	8d 8d 38 f8 ff
	ff		 lea	 ecx, DWORD PTR $T195292[ebp]
  0539f	ff 15 00 00 00
	00		 call	 DWORD PTR __imp_??0?$basic_string@DU?$char_traits@D@std@@V?$allocator@D@2@@std@@QAE@PBD@Z
  053a5	3b f4		 cmp	 esi, esp
  053a7	e8 00 00 00 00	 call	 __RTC_CheckEsp
  053ac	c6 45 fc 0a	 mov	 BYTE PTR __$EHRec$[ebp+8], 10 ; 0000000aH
  053b0	8b f4		 mov	 esi, esp
  053b2	68 00 00 00 00	 push	 OFFSET FLAT:$SG192877
  053b7	8d 8d 54 f8 ff
	ff		 lea	 ecx, DWORD PTR $T195291[ebp]
  053bd	51		 push	 ecx
  053be	6a 00		 push	 0
  053c0	8d 95 38 f8 ff
	ff		 lea	 edx, DWORD PTR $T195292[ebp]
  053c6	52		 push	 edx
  053c7	ff 15 00 00 00
	00		 call	 DWORD PTR __imp_?YL_Log@@YAXABV?$basic_string@DU?$char_traits@D@std@@V?$allocator@D@2@@std@@H0PBDZZ
  053cd	83 c4 10	 add	 esp, 16			; 00000010H
  053d0	3b f4		 cmp	 esi, esp
  053d2	e8 00 00 00 00	 call	 __RTC_CheckEsp
  053d7	c6 45 fc 09	 mov	 BYTE PTR __$EHRec$[ebp+8], 9
  053db	8b f4		 mov	 esi, esp
  053dd	8d 8d 38 f8 ff
	ff		 lea	 ecx, DWORD PTR $T195292[ebp]
  053e3	ff 15 00 00 00
	00		 call	 DWORD PTR __imp_??1?$basic_string@DU?$char_traits@D@std@@V?$allocator@D@2@@std@@QAE@XZ
  053e9	3b f4		 cmp	 esi, esp
  053eb	e8 00 00 00 00	 call	 __RTC_CheckEsp
  053f0	c6 45 fc 06	 mov	 BYTE PTR __$EHRec$[ebp+8], 6
  053f4	8b f4		 mov	 esi, esp
  053f6	8d 8d 54 f8 ff
	ff		 lea	 ecx, DWORD PTR $T195291[ebp]
  053fc	ff 15 00 00 00
	00		 call	 DWORD PTR __imp_??1?$basic_string@DU?$char_traits@D@std@@V?$allocator@D@2@@std@@QAE@XZ
  05402	3b f4		 cmp	 esi, esp
  05404	e8 00 00 00 00	 call	 __RTC_CheckEsp

; 1037 : 			mp_SubjectWnd->ClickSubBtn("",strSub );

  05409	8b f4		 mov	 esi, esp
  0540b	68 00 00 00 00	 push	 OFFSET FLAT:$SG192881
  05410	8d 8d 34 f8 ff
	ff		 lea	 ecx, DWORD PTR $T195293[ebp]
  05416	ff 15 00 00 00
	00		 call	 DWORD PTR __imp_??0?$CStringT@DV?$StrTraitMFC_DLL@DV?$ChTraitsCRT@D@ATL@@@@@ATL@@QAE@PBD@Z
  0541c	3b f4		 cmp	 esi, esp
  0541e	e8 00 00 00 00	 call	 __RTC_CheckEsp
  05423	c6 45 fc 0b	 mov	 BYTE PTR __$EHRec$[ebp+8], 11 ; 0000000bH
  05427	8b 45 08	 mov	 eax, DWORD PTR _strSub$[ebp]
  0542a	50		 push	 eax
  0542b	8d 8d 34 f8 ff
	ff		 lea	 ecx, DWORD PTR $T195293[ebp]
  05431	51		 push	 ecx
  05432	8b 55 f0	 mov	 edx, DWORD PTR _this$[ebp]
  05435	8b 4a 18	 mov	 ecx, DWORD PTR [edx+24]
  05438	e8 00 00 00 00	 call	 ?ClickSubBtn@CSubjectChildWnd@@QAEXABV?$CStringT@DV?$StrTraitMFC_DLL@DV?$ChTraitsCRT@D@ATL@@@@@ATL@@0@Z ; CSubjectChildWnd::ClickSubBtn
  0543d	c6 45 fc 06	 mov	 BYTE PTR __$EHRec$[ebp+8], 6
  05441	8b f4		 mov	 esi, esp
  05443	8d 8d 34 f8 ff
	ff		 lea	 ecx, DWORD PTR $T195293[ebp]
  05449	ff 15 00 00 00
	00		 call	 DWORD PTR __imp_??1?$CStringT@DV?$StrTraitMFC_DLL@DV?$ChTraitsCRT@D@ATL@@@@@ATL@@QAE@XZ
  0544f	3b f4		 cmp	 esi, esp
  05451	e8 00 00 00 00	 call	 __RTC_CheckEsp

; 1038 : 			YL_Log("SkinB.txt",LOG_DEBUG,"Click-In","11");

  05456	8b f4		 mov	 esi, esp
  05458	68 00 00 00 00	 push	 OFFSET FLAT:$SG192885
  0545d	8d 8d 18 f8 ff
	ff		 lea	 ecx, DWORD PTR $T195294[ebp]
  05463	ff 15 00 00 00
	00		 call	 DWORD PTR __imp_??0?$basic_string@DU?$char_traits@D@std@@V?$allocator@D@2@@std@@QAE@PBD@Z
  05469	3b f4		 cmp	 esi, esp
  0546b	e8 00 00 00 00	 call	 __RTC_CheckEsp
  05470	c6 45 fc 0c	 mov	 BYTE PTR __$EHRec$[ebp+8], 12 ; 0000000cH
  05474	8b f4		 mov	 esi, esp
  05476	68 00 00 00 00	 push	 OFFSET FLAT:$SG192886
  0547b	8d 8d fc f7 ff
	ff		 lea	 ecx, DWORD PTR $T195295[ebp]
  05481	ff 15 00 00 00
	00		 call	 DWORD PTR __imp_??0?$basic_string@DU?$char_traits@D@std@@V?$allocator@D@2@@std@@QAE@PBD@Z
  05487	3b f4		 cmp	 esi, esp
  05489	e8 00 00 00 00	 call	 __RTC_CheckEsp
  0548e	c6 45 fc 0d	 mov	 BYTE PTR __$EHRec$[ebp+8], 13 ; 0000000dH
  05492	8b f4		 mov	 esi, esp
  05494	68 00 00 00 00	 push	 OFFSET FLAT:$SG192884
  05499	8d 85 18 f8 ff
	ff		 lea	 eax, DWORD PTR $T195294[ebp]
  0549f	50		 push	 eax
  054a0	6a 00		 push	 0
  054a2	8d 8d fc f7 ff
	ff		 lea	 ecx, DWORD PTR $T195295[ebp]
  054a8	51		 push	 ecx
  054a9	ff 15 00 00 00
	00		 call	 DWORD PTR __imp_?YL_Log@@YAXABV?$basic_string@DU?$char_traits@D@std@@V?$allocator@D@2@@std@@H0PBDZZ
  054af	83 c4 10	 add	 esp, 16			; 00000010H
  054b2	3b f4		 cmp	 esi, esp
  054b4	e8 00 00 00 00	 call	 __RTC_CheckEsp
  054b9	c6 45 fc 0c	 mov	 BYTE PTR __$EHRec$[ebp+8], 12 ; 0000000cH
  054bd	8b f4		 mov	 esi, esp
  054bf	8d 8d fc f7 ff
	ff		 lea	 ecx, DWORD PTR $T195295[ebp]
  054c5	ff 15 00 00 00
	00		 call	 DWORD PTR __imp_??1?$basic_string@DU?$char_traits@D@std@@V?$allocator@D@2@@std@@QAE@XZ
  054cb	3b f4		 cmp	 esi, esp
  054cd	e8 00 00 00 00	 call	 __RTC_CheckEsp
  054d2	c6 45 fc 06	 mov	 BYTE PTR __$EHRec$[ebp+8], 6
  054d6	8b f4		 mov	 esi, esp
  054d8	8d 8d 18 f8 ff
	ff		 lea	 ecx, DWORD PTR $T195294[ebp]
  054de	ff 15 00 00 00
	00		 call	 DWORD PTR __imp_??1?$basic_string@DU?$char_traits@D@std@@V?$allocator@D@2@@std@@QAE@XZ
  054e4	3b f4		 cmp	 esi, esp
  054e6	e8 00 00 00 00	 call	 __RTC_CheckEsp

; 1039 : 		}

  054eb	c7 45 fc ff ff
	ff ff		 mov	 DWORD PTR __$EHRec$[ebp+8], -1
  054f2	8b f4		 mov	 esi, esp
  054f4	8d 4d c0	 lea	 ecx, DWORD PTR _tips$192865[ebp]
  054f7	ff 15 00 00 00
	00		 call	 DWORD PTR __imp_??1?$CStringT@DV?$StrTraitMFC_DLL@DV?$ChTraitsCRT@D@ATL@@@@@ATL@@QAE@XZ
  054fd	3b f4		 cmp	 esi, esp
  054ff	e8 00 00 00 00	 call	 __RTC_CheckEsp
$L192854:

; 1040 : 	}
; 1041 : 	else

  05504	e9 e1 00 00 00	 jmp	 $L192844
$L192853:

; 1042 : 	{
; 1043 : 		if( mb_HasPopWnd )

  05509	8b 55 f0	 mov	 edx, DWORD PTR _this$[ebp]
  0550c	0f b6 42 48	 movzx	 eax, BYTE PTR [edx+72]
  05510	85 c0		 test	 eax, eax
  05512	0f 84 d2 00 00
	00		 je	 $L192844

; 1044 : 		{
; 1045 : 			CDialogMsg dlgmsg;

  05518	6a 00		 push	 0
  0551a	8d 8d 2c f9 ff
	ff		 lea	 ecx, DWORD PTR _dlgmsg$192889[ebp]
  05520	e8 00 00 00 00	 call	 ??0CDialogMsg@@QAE@PAVCWnd@@@Z ; CDialogMsg::CDialogMsg
  05525	c7 45 fc 0e 00
	00 00		 mov	 DWORD PTR __$EHRec$[ebp+8], 14 ; 0000000eH

; 1046 : 			dlgmsg.SetBtnCount(1);

  0552c	6a 01		 push	 1
  0552e	8d 8d 2c f9 ff
	ff		 lea	 ecx, DWORD PTR _dlgmsg$192889[ebp]
  05534	e8 00 00 00 00	 call	 ?SetBtnCount@CDialogMsg@@QAEXH@Z ; CDialogMsg::SetBtnCount

; 1047 : 			dlgmsg.SetMsg("");

  05539	8b f4		 mov	 esi, esp
  0553b	68 00 00 00 00	 push	 OFFSET FLAT:$SG192891
  05540	8d 8d f8 f7 ff
	ff		 lea	 ecx, DWORD PTR $T195296[ebp]
  05546	ff 15 00 00 00
	00		 call	 DWORD PTR __imp_??0?$CStringT@DV?$StrTraitMFC_DLL@DV?$ChTraitsCRT@D@ATL@@@@@ATL@@QAE@PBD@Z
  0554c	3b f4		 cmp	 esi, esp
  0554e	e8 00 00 00 00	 call	 __RTC_CheckEsp
  05553	c6 45 fc 0f	 mov	 BYTE PTR __$EHRec$[ebp+8], 15 ; 0000000fH
  05557	8d 8d f8 f7 ff
	ff		 lea	 ecx, DWORD PTR $T195296[ebp]
  0555d	51		 push	 ecx
  0555e	8d 8d 2c f9 ff
	ff		 lea	 ecx, DWORD PTR _dlgmsg$192889[ebp]
  05564	e8 00 00 00 00	 call	 ?SetMsg@CDialogMsg@@QAEXABV?$CStringT@DV?$StrTraitMFC_DLL@DV?$ChTraitsCRT@D@ATL@@@@@ATL@@@Z ; CDialogMsg::SetMsg
  05569	c6 45 fc 0e	 mov	 BYTE PTR __$EHRec$[ebp+8], 14 ; 0000000eH
  0556d	8b f4		 mov	 esi, esp
  0556f	8d 8d f8 f7 ff
	ff		 lea	 ecx, DWORD PTR $T195296[ebp]
  05575	ff 15 00 00 00
	00		 call	 DWORD PTR __imp_??1?$CStringT@DV?$StrTraitMFC_DLL@DV?$ChTraitsCRT@D@ATL@@@@@ATL@@QAE@XZ
  0557b	3b f4		 cmp	 esi, esp
  0557d	e8 00 00 00 00	 call	 __RTC_CheckEsp

; 1048 : 			dlgmsg.SetBtnText(1,"");

  05582	8b f4		 mov	 esi, esp
  05584	68 00 00 00 00	 push	 OFFSET FLAT:$SG192893
  05589	8d 8d f4 f7 ff
	ff		 lea	 ecx, DWORD PTR $T195297[ebp]
  0558f	ff 15 00 00 00
	00		 call	 DWORD PTR __imp_??0?$CStringT@DV?$StrTraitMFC_DLL@DV?$ChTraitsCRT@D@ATL@@@@@ATL@@QAE@PBD@Z
  05595	3b f4		 cmp	 esi, esp
  05597	e8 00 00 00 00	 call	 __RTC_CheckEsp
  0559c	c6 45 fc 10	 mov	 BYTE PTR __$EHRec$[ebp+8], 16 ; 00000010H
  055a0	8d 95 f4 f7 ff
	ff		 lea	 edx, DWORD PTR $T195297[ebp]
  055a6	52		 push	 edx
  055a7	6a 01		 push	 1
  055a9	8d 8d 2c f9 ff
	ff		 lea	 ecx, DWORD PTR _dlgmsg$192889[ebp]
  055af	e8 00 00 00 00	 call	 ?SetBtnText@CDialogMsg@@QAEXHABV?$CStringT@DV?$StrTraitMFC_DLL@DV?$ChTraitsCRT@D@ATL@@@@@ATL@@@Z ; CDialogMsg::SetBtnText
  055b4	c6 45 fc 0e	 mov	 BYTE PTR __$EHRec$[ebp+8], 14 ; 0000000eH
  055b8	8b f4		 mov	 esi, esp
  055ba	8d 8d f4 f7 ff
	ff		 lea	 ecx, DWORD PTR $T195297[ebp]
  055c0	ff 15 00 00 00
	00		 call	 DWORD PTR __imp_??1?$CStringT@DV?$StrTraitMFC_DLL@DV?$ChTraitsCRT@D@ATL@@@@@ATL@@QAE@XZ
  055c6	3b f4		 cmp	 esi, esp
  055c8	e8 00 00 00 00	 call	 __RTC_CheckEsp

; 1049 : 			dlgmsg.DoModal();

  055cd	8d 8d 2c f9 ff
	ff		 lea	 ecx, DWORD PTR _dlgmsg$192889[ebp]
  055d3	e8 00 00 00 00	 call	 ?DoModal@CDialog@@UAEHXZ ; CDialog::DoModal

; 1050 : 		}

  055d8	c7 45 fc ff ff
	ff ff		 mov	 DWORD PTR __$EHRec$[ebp+8], -1
  055df	8d 8d 2c f9 ff
	ff		 lea	 ecx, DWORD PTR _dlgmsg$192889[ebp]
  055e5	e8 00 00 00 00	 call	 ??1CDialogMsg@@UAE@XZ	; CDialogMsg::~CDialogMsg
$L192844:

; 1051 : 		//	AfxMessageBox("!");
; 1052 : 	}
; 1053 : }

  055ea	52		 push	 edx
  055eb	8b cd		 mov	 ecx, ebp
  055ed	50		 push	 eax
  055ee	8d 15 00 00 00
	00		 lea	 edx, DWORD PTR $L195325
  055f4	e8 00 00 00 00	 call	 @_RTC_CheckStackVars@8
  055f9	58		 pop	 eax
  055fa	5a		 pop	 edx
  055fb	8b 4d f4	 mov	 ecx, DWORD PTR __$EHRec$[ebp]
  055fe	64 89 0d 00 00
	00 00		 mov	 DWORD PTR fs:__except_list, ecx
  05605	5f		 pop	 edi
  05606	5e		 pop	 esi
  05607	81 c4 34 08 00
	00		 add	 esp, 2100		; 00000834H
  0560d	3b ec		 cmp	 ebp, esp
  0560f	e8 00 00 00 00	 call	 __RTC_CheckEsp
  05614	8b e5		 mov	 esp, ebp
  05616	5d		 pop	 ebp
  05617	c2 08 00	 ret	 8
$L195325:
  0561a	04 00 00 00	 DD	 4
  0561e	00 00 00 00	 DD	 $L195324
$L195324:
  05622	dc ff ff ff	 DD	 -36			; ffffffdcH
  05626	10 00 00 00	 DD	 16			; 00000010H
  0562a	00 00 00 00	 DD	 $L195319
  0562e	cf ff ff ff	 DD	 -49			; ffffffcfH
  05632	01 00 00 00	 DD	 1
  05636	00 00 00 00	 DD	 $L195320
  0563a	c0 ff ff ff	 DD	 -64			; ffffffc0H
  0563e	04 00 00 00	 DD	 4
  05642	00 00 00 00	 DD	 $L195321
  05646	2c f9 ff ff	 DD	 -1748			; fffff92cH
  0564a	8c 06 00 00	 DD	 1676			; 0000068cH
  0564e	00 00 00 00	 DD	 $L195322
$L195322:
  05652	64		 DB	 100			; 00000064H
  05653	6c		 DB	 108			; 0000006cH
  05654	67		 DB	 103			; 00000067H
  05655	6d		 DB	 109			; 0000006dH
  05656	73		 DB	 115			; 00000073H
  05657	67		 DB	 103			; 00000067H
  05658	00		 DB	 0
$L195321:
  05659	74		 DB	 116			; 00000074H
  0565a	69		 DB	 105			; 00000069H
  0565b	70		 DB	 112			; 00000070H
  0565c	73		 DB	 115			; 00000073H
  0565d	00		 DB	 0
$L195320:
  0565e	6e		 DB	 110			; 0000006eH
  0565f	46		 DB	 70			; 00000046H
  05660	69		 DB	 105			; 00000069H
  05661	72		 DB	 114			; 00000072H
  05662	73		 DB	 115			; 00000073H
  05663	74		 DB	 116			; 00000074H
  05664	52		 DB	 82			; 00000052H
  05665	75		 DB	 117			; 00000075H
  05666	6e		 DB	 110			; 0000006eH
  05667	00		 DB	 0
$L195319:
  05668	72		 DB	 114			; 00000072H
  05669	63		 DB	 99			; 00000063H
  0566a	00		 DB	 0
_TEXT	ENDS
text$x	SEGMENT
$L195298:
  009c5	8b f4		 mov	 esi, esp
  009c7	8d 8d 0c f9 ff
	ff		 lea	 ecx, DWORD PTR $T195281[ebp]
  009cd	ff 15 00 00 00
	00		 call	 DWORD PTR __imp_??1?$basic_string@DU?$char_traits@D@std@@V?$allocator@D@2@@std@@QAE@XZ
  009d3	3b f4		 cmp	 esi, esp
  009d5	e9 00 00 00 00	 jmp	 __RTC_CheckEsp
$L195299:
  009da	8b f4		 mov	 esi, esp
  009dc	8d 8d f0 f8 ff
	ff		 lea	 ecx, DWORD PTR $T195282[ebp]
  009e2	ff 15 00 00 00
	00		 call	 DWORD PTR __imp_??1?$basic_string@DU?$char_traits@D@std@@V?$allocator@D@2@@std@@QAE@XZ
  009e8	3b f4		 cmp	 esi, esp
  009ea	e9 00 00 00 00	 jmp	 __RTC_CheckEsp
$L195300:
  009ef	8b f4		 mov	 esi, esp
  009f1	8d 8d d4 f8 ff
	ff		 lea	 ecx, DWORD PTR $T195283[ebp]
  009f7	ff 15 00 00 00
	00		 call	 DWORD PTR __imp_??1?$basic_string@DU?$char_traits@D@std@@V?$allocator@D@2@@std@@QAE@XZ
  009fd	3b f4		 cmp	 esi, esp
  009ff	e9 00 00 00 00	 jmp	 __RTC_CheckEsp
$L195301:
  00a04	8b f4		 mov	 esi, esp
  00a06	8d 8d b8 f8 ff
	ff		 lea	 ecx, DWORD PTR $T195284[ebp]
  00a0c	ff 15 00 00 00
	00		 call	 DWORD PTR __imp_??1?$basic_string@DU?$char_traits@D@std@@V?$allocator@D@2@@std@@QAE@XZ
  00a12	3b f4		 cmp	 esi, esp
  00a14	e9 00 00 00 00	 jmp	 __RTC_CheckEsp
$L195302:
  00a19	8b f4		 mov	 esi, esp
  00a1b	8d 8d 9c f8 ff
	ff		 lea	 ecx, DWORD PTR $T195285[ebp]
  00a21	ff 15 00 00 00
	00		 call	 DWORD PTR __imp_??1?$basic_string@DU?$char_traits@D@std@@V?$allocator@D@2@@std@@QAE@XZ
  00a27	3b f4		 cmp	 esi, esp
  00a29	e9 00 00 00 00	 jmp	 __RTC_CheckEsp
$L195303:
  00a2e	8b f4		 mov	 esi, esp
  00a30	8d 8d 80 f8 ff
	ff		 lea	 ecx, DWORD PTR $T195286[ebp]
  00a36	ff 15 00 00 00
	00		 call	 DWORD PTR __imp_??1?$basic_string@DU?$char_traits@D@std@@V?$allocator@D@2@@std@@QAE@XZ
  00a3c	3b f4		 cmp	 esi, esp
  00a3e	e9 00 00 00 00	 jmp	 __RTC_CheckEsp
$L195305:
  00a43	8b f4		 mov	 esi, esp
  00a45	8d 4d c0	 lea	 ecx, DWORD PTR _tips$192865[ebp]
  00a48	ff 15 00 00 00
	00		 call	 DWORD PTR __imp_??1?$CStringT@DV?$StrTraitMFC_DLL@DV?$ChTraitsCRT@D@ATL@@@@@ATL@@QAE@XZ
  00a4e	3b f4		 cmp	 esi, esp
  00a50	e9 00 00 00 00	 jmp	 __RTC_CheckEsp
$L195306:
  00a55	8b f4		 mov	 esi, esp
  00a57	8b 8d 78 f8 ff
	ff		 mov	 ecx, DWORD PTR $T195288[ebp]
  00a5d	ff 15 00 00 00
	00		 call	 DWORD PTR __imp_??1?$CStringT@DV?$StrTraitMFC_DLL@DV?$ChTraitsCRT@D@ATL@@@@@ATL@@QAE@XZ
  00a63	3b f4		 cmp	 esi, esp
  00a65	e9 00 00 00 00	 jmp	 __RTC_CheckEsp
$L195307:
  00a6a	8b f4		 mov	 esi, esp
  00a6c	8b 8d 74 f8 ff
	ff		 mov	 ecx, DWORD PTR $T195289[ebp]
  00a72	ff 15 00 00 00
	00		 call	 DWORD PTR __imp_??1?$CStringT@DV?$StrTraitMFC_DLL@DV?$ChTraitsCRT@D@ATL@@@@@ATL@@QAE@XZ
  00a78	3b f4		 cmp	 esi, esp
  00a7a	e9 00 00 00 00	 jmp	 __RTC_CheckEsp
$L195309:
  00a7f	8b f4		 mov	 esi, esp
  00a81	8d 8d 54 f8 ff
	ff		 lea	 ecx, DWORD PTR $T195291[ebp]
  00a87	ff 15 00 00 00
	00		 call	 DWORD PTR __imp_??1?$basic_string@DU?$char_traits@D@std@@V?$allocator@D@2@@std@@QAE@XZ
  00a8d	3b f4		 cmp	 esi, esp
  00a8f	e9 00 00 00 00	 jmp	 __RTC_CheckEsp
$L195310:
  00a94	8b f4		 mov	 esi, esp
  00a96	8d 8d 38 f8 ff
	ff		 lea	 ecx, DWORD PTR $T195292[ebp]
  00a9c	ff 15 00 00 00
	00		 call	 DWORD PTR __imp_??1?$basic_string@DU?$char_traits@D@std@@V?$allocator@D@2@@std@@QAE@XZ
  00aa2	3b f4		 cmp	 esi, esp
  00aa4	e9 00 00 00 00	 jmp	 __RTC_CheckEsp
$L195311:
  00aa9	8b f4		 mov	 esi, esp
  00aab	8d 8d 34 f8 ff
	ff		 lea	 ecx, DWORD PTR $T195293[ebp]
  00ab1	ff 15 00 00 00
	00		 call	 DWORD PTR __imp_??1?$CStringT@DV?$StrTraitMFC_DLL@DV?$ChTraitsCRT@D@ATL@@@@@ATL@@QAE@XZ
  00ab7	3b f4		 cmp	 esi, esp
  00ab9	e9 00 00 00 00	 jmp	 __RTC_CheckEsp
$L195312:
  00abe	8b f4		 mov	 esi, esp
  00ac0	8d 8d 18 f8 ff
	ff		 lea	 ecx, DWORD PTR $T195294[ebp]
  00ac6	ff 15 00 00 00
	00		 call	 DWORD PTR __imp_??1?$basic_string@DU?$char_traits@D@std@@V?$allocator@D@2@@std@@QAE@XZ
  00acc	3b f4		 cmp	 esi, esp
  00ace	e9 00 00 00 00	 jmp	 __RTC_CheckEsp
$L195313:
  00ad3	8b f4		 mov	 esi, esp
  00ad5	8d 8d fc f7 ff
	ff		 lea	 ecx, DWORD PTR $T195295[ebp]
  00adb	ff 15 00 00 00
	00		 call	 DWORD PTR __imp_??1?$basic_string@DU?$char_traits@D@std@@V?$allocator@D@2@@std@@QAE@XZ
  00ae1	3b f4		 cmp	 esi, esp
  00ae3	e9 00 00 00 00	 jmp	 __RTC_CheckEsp
$L195314:
  00ae8	8d 8d 2c f9 ff
	ff		 lea	 ecx, DWORD PTR _dlgmsg$192889[ebp]
  00aee	e9 00 00 00 00	 jmp	 ??1CDialogMsg@@UAE@XZ	; CDialogMsg::~CDialogMsg
$L195315:
  00af3	8b f4		 mov	 esi, esp
  00af5	8d 8d f8 f7 ff
	ff		 lea	 ecx, DWORD PTR $T195296[ebp]
  00afb	ff 15 00 00 00
	00		 call	 DWORD PTR __imp_??1?$CStringT@DV?$StrTraitMFC_DLL@DV?$ChTraitsCRT@D@ATL@@@@@ATL@@QAE@XZ
  00b01	3b f4		 cmp	 esi, esp
  00b03	e9 00 00 00 00	 jmp	 __RTC_CheckEsp
$L195316:
  00b08	8b f4		 mov	 esi, esp
  00b0a	8d 8d f4 f7 ff
	ff		 lea	 ecx, DWORD PTR $T195297[ebp]
  00b10	ff 15 00 00 00
	00		 call	 DWORD PTR __imp_??1?$CStringT@DV?$StrTraitMFC_DLL@DV?$ChTraitsCRT@D@ATL@@@@@ATL@@QAE@XZ
  00b16	3b f4		 cmp	 esi, esp
  00b18	e9 00 00 00 00	 jmp	 __RTC_CheckEsp
__ehhandler$?DownloadWebSubFinish@CSkinMgrV1@@QAEXABV?$CStringT@DV?$StrTraitMFC_DLL@DV?$ChTraitsCRT@D@ATL@@@@@ATL@@H@Z:
  00b1d	b8 00 00 00 00	 mov	 eax, OFFSET FLAT:$T195318
  00b22	e9 00 00 00 00	 jmp	 ___CxxFrameHandler
text$x	ENDS
?DownloadWebSubFinish@CSkinMgrV1@@QAEXABV?$CStringT@DV?$StrTraitMFC_DLL@DV?$ChTraitsCRT@D@ATL@@@@@ATL@@H@Z ENDP ; CSkinMgrV1::DownloadWebSubFinish
EXTRN	__imp_?GetManager@?$CSimpleStringT@D$00@ATL@@QBEPAUIAtlStringMgr@2@XZ:NEAR
EXTRN	__imp_?StringLength@?$CSimpleStringT@D$00@ATL@@SAHPBD@Z:NEAR
EXTRN	__imp_?Concatenate@?$CSimpleStringT@D$00@ATL@@KAXAAV12@PBDH1H@Z:NEAR
EXTRN	__imp_??0?$CStringT@DV?$StrTraitMFC_DLL@DV?$ChTraitsCRT@D@ATL@@@@@ATL@@QAE@PAUIAtlStringMgr@1@@Z:NEAR
;	COMDAT xdata$x
; File d:\program files (x86)\microsoft visual studio .net 2003\vc7\atlmfc\include\cstringt.h
xdata$x	SEGMENT
$T195338 DD	0ffffffffH
	DD	FLAT:$L195328
$T195333 DD	019930520H
	DD	01H
	DD	FLAT:$T195338
	DD	2 DUP(00H)
	DD	2 DUP(00H)
; Function compile flags: /Odt /RTCsu
xdata$x	ENDS
;	COMDAT ??HATL@@YA?AV?$CStringT@DV?$StrTraitMFC_DLL@DV?$ChTraitsCRT@D@ATL@@@@@0@ABV10@PBD@Z
_TEXT	SEGMENT
$T195330 = -28						; size = 4
_strResult$ = -20					; size = 4
__$EHRec$ = -12						; size = 12
___$ReturnUdt$ = 8					; size = 4
_str1$ = 12						; size = 4
_psz2$ = 16						; size = 4
??HATL@@YA?AV?$CStringT@DV?$StrTraitMFC_DLL@DV?$ChTraitsCRT@D@ATL@@@@@0@ABV10@PBD@Z PROC NEAR ; ATL::operator+, COMDAT

; 2023 : 	{

  00000	55		 push	 ebp
  00001	8b ec		 mov	 ebp, esp
  00003	6a ff		 push	 -1
  00005	68 00 00 00 00	 push	 __ehhandler$??HATL@@YA?AV?$CStringT@DV?$StrTraitMFC_DLL@DV?$ChTraitsCRT@D@ATL@@@@@0@ABV10@PBD@Z
  0000a	64 a1 00 00 00
	00		 mov	 eax, DWORD PTR fs:__except_list
  00010	50		 push	 eax
  00011	64 89 25 00 00
	00 00		 mov	 DWORD PTR fs:__except_list, esp
  00018	83 ec 10	 sub	 esp, 16			; 00000010H
  0001b	56		 push	 esi
  0001c	57		 push	 edi
  0001d	b8 cc cc cc cc	 mov	 eax, -858993460		; ccccccccH
  00022	89 45 e4	 mov	 DWORD PTR [ebp-28], eax
  00025	89 45 e8	 mov	 DWORD PTR [ebp-24], eax
  00028	89 45 ec	 mov	 DWORD PTR [ebp-20], eax
  0002b	89 45 f0	 mov	 DWORD PTR [ebp-16], eax
  0002e	c7 45 e4 00 00
	00 00		 mov	 DWORD PTR $T195330[ebp], 0

; 2024 : 		CStringT strResult( str1.GetManager() );

  00035	8b f4		 mov	 esi, esp
  00037	8b 4d 0c	 mov	 ecx, DWORD PTR _str1$[ebp]
  0003a	ff 15 00 00 00
	00		 call	 DWORD PTR __imp_?GetManager@?$CSimpleStringT@D$00@ATL@@QBEPAUIAtlStringMgr@2@XZ
  00040	3b f4		 cmp	 esi, esp
  00042	e8 00 00 00 00	 call	 __RTC_CheckEsp
  00047	8b f4		 mov	 esi, esp
  00049	50		 push	 eax
  0004a	8d 4d ec	 lea	 ecx, DWORD PTR _strResult$[ebp]
  0004d	ff 15 00 00 00
	00		 call	 DWORD PTR __imp_??0?$CStringT@DV?$StrTraitMFC_DLL@DV?$ChTraitsCRT@D@ATL@@@@@ATL@@QAE@PAUIAtlStringMgr@1@@Z
  00053	3b f4		 cmp	 esi, esp
  00055	e8 00 00 00 00	 call	 __RTC_CheckEsp
  0005a	c7 45 fc 00 00
	00 00		 mov	 DWORD PTR __$EHRec$[ebp+8], 0

; 2025 : 
; 2026 : 		Concatenate( strResult, str1, str1.GetLength(), psz2, StringLength( psz2 ) );

  00061	8b f4		 mov	 esi, esp
  00063	8b 45 10	 mov	 eax, DWORD PTR _psz2$[ebp]
  00066	50		 push	 eax
  00067	ff 15 00 00 00
	00		 call	 DWORD PTR __imp_?StringLength@?$CSimpleStringT@D$00@ATL@@SAHPBD@Z
  0006d	83 c4 04	 add	 esp, 4
  00070	3b f4		 cmp	 esi, esp
  00072	e8 00 00 00 00	 call	 __RTC_CheckEsp
  00077	8b f4		 mov	 esi, esp
  00079	50		 push	 eax
  0007a	8b 4d 10	 mov	 ecx, DWORD PTR _psz2$[ebp]
  0007d	51		 push	 ecx
  0007e	8b fc		 mov	 edi, esp
  00080	8b 4d 0c	 mov	 ecx, DWORD PTR _str1$[ebp]
  00083	ff 15 00 00 00
	00		 call	 DWORD PTR __imp_?GetLength@?$CSimpleStringT@D$00@ATL@@QBEHXZ
  00089	3b fc		 cmp	 edi, esp
  0008b	e8 00 00 00 00	 call	 __RTC_CheckEsp
  00090	50		 push	 eax
  00091	8b fc		 mov	 edi, esp
  00093	8b 4d 0c	 mov	 ecx, DWORD PTR _str1$[ebp]
  00096	ff 15 00 00 00
	00		 call	 DWORD PTR __imp_??B?$CSimpleStringT@D$00@ATL@@QBEPBDXZ
  0009c	3b fc		 cmp	 edi, esp
  0009e	e8 00 00 00 00	 call	 __RTC_CheckEsp
  000a3	50		 push	 eax
  000a4	8d 55 ec	 lea	 edx, DWORD PTR _strResult$[ebp]
  000a7	52		 push	 edx
  000a8	ff 15 00 00 00
	00		 call	 DWORD PTR __imp_?Concatenate@?$CSimpleStringT@D$00@ATL@@KAXAAV12@PBDH1H@Z
  000ae	83 c4 14	 add	 esp, 20			; 00000014H
  000b1	3b f4		 cmp	 esi, esp
  000b3	e8 00 00 00 00	 call	 __RTC_CheckEsp

; 2027 : 
; 2028 : 		return( strResult );

  000b8	8b f4		 mov	 esi, esp
  000ba	8d 45 ec	 lea	 eax, DWORD PTR _strResult$[ebp]
  000bd	50		 push	 eax
  000be	8b 4d 08	 mov	 ecx, DWORD PTR ___$ReturnUdt$[ebp]
  000c1	ff 15 00 00 00
	00		 call	 DWORD PTR __imp_??0?$CStringT@DV?$StrTraitMFC_DLL@DV?$ChTraitsCRT@D@ATL@@@@@ATL@@QAE@ABV01@@Z
  000c7	3b f4		 cmp	 esi, esp
  000c9	e8 00 00 00 00	 call	 __RTC_CheckEsp
  000ce	8b 4d e4	 mov	 ecx, DWORD PTR $T195330[ebp]
  000d1	83 c9 01	 or	 ecx, 1
  000d4	89 4d e4	 mov	 DWORD PTR $T195330[ebp], ecx
  000d7	c7 45 fc ff ff
	ff ff		 mov	 DWORD PTR __$EHRec$[ebp+8], -1
  000de	8b f4		 mov	 esi, esp
  000e0	8d 4d ec	 lea	 ecx, DWORD PTR _strResult$[ebp]
  000e3	ff 15 00 00 00
	00		 call	 DWORD PTR __imp_??1?$CStringT@DV?$StrTraitMFC_DLL@DV?$ChTraitsCRT@D@ATL@@@@@ATL@@QAE@XZ
  000e9	3b f4		 cmp	 esi, esp
  000eb	e8 00 00 00 00	 call	 __RTC_CheckEsp
  000f0	8b 45 08	 mov	 eax, DWORD PTR ___$ReturnUdt$[ebp]

; 2029 : 	}

  000f3	52		 push	 edx
  000f4	8b cd		 mov	 ecx, ebp
  000f6	50		 push	 eax
  000f7	8d 15 00 00 00
	00		 lea	 edx, DWORD PTR $L195337
  000fd	e8 00 00 00 00	 call	 @_RTC_CheckStackVars@8
  00102	58		 pop	 eax
  00103	5a		 pop	 edx
  00104	8b 4d f4	 mov	 ecx, DWORD PTR __$EHRec$[ebp]
  00107	64 89 0d 00 00
	00 00		 mov	 DWORD PTR fs:__except_list, ecx
  0010e	5f		 pop	 edi
  0010f	5e		 pop	 esi
  00110	83 c4 1c	 add	 esp, 28			; 0000001cH
  00113	3b ec		 cmp	 ebp, esp
  00115	e8 00 00 00 00	 call	 __RTC_CheckEsp
  0011a	8b e5		 mov	 esp, ebp
  0011c	5d		 pop	 ebp
  0011d	c3		 ret	 0
$L195337:
  0011e	01 00 00 00	 DD	 1
  00122	00 00 00 00	 DD	 $L195336
$L195336:
  00126	ec ff ff ff	 DD	 -20			; ffffffecH
  0012a	04 00 00 00	 DD	 4
  0012e	00 00 00 00	 DD	 $L195334
$L195334:
  00132	73		 DB	 115			; 00000073H
  00133	74		 DB	 116			; 00000074H
  00134	72		 DB	 114			; 00000072H
  00135	52		 DB	 82			; 00000052H
  00136	65		 DB	 101			; 00000065H
  00137	73		 DB	 115			; 00000073H
  00138	75		 DB	 117			; 00000075H
  00139	6c		 DB	 108			; 0000006cH
  0013a	74		 DB	 116			; 00000074H
  0013b	00		 DB	 0
_TEXT	ENDS
;	COMDAT text$x
text$x	SEGMENT
$L195328:
  00000	8b f4		 mov	 esi, esp
  00002	8d 4d ec	 lea	 ecx, DWORD PTR _strResult$[ebp]
  00005	ff 15 00 00 00
	00		 call	 DWORD PTR __imp_??1?$CStringT@DV?$StrTraitMFC_DLL@DV?$ChTraitsCRT@D@ATL@@@@@ATL@@QAE@XZ
  0000b	3b f4		 cmp	 esi, esp
  0000d	e9 00 00 00 00	 jmp	 __RTC_CheckEsp
__ehhandler$??HATL@@YA?AV?$CStringT@DV?$StrTraitMFC_DLL@DV?$ChTraitsCRT@D@ATL@@@@@0@ABV10@PBD@Z:
  00012	b8 00 00 00 00	 mov	 eax, OFFSET FLAT:$T195333
  00017	e9 00 00 00 00	 jmp	 ___CxxFrameHandler
text$x	ENDS
??HATL@@YA?AV?$CStringT@DV?$StrTraitMFC_DLL@DV?$ChTraitsCRT@D@ATL@@@@@0@ABV10@PBD@Z ENDP ; ATL::operator+
;	COMDAT xdata$x
xdata$x	SEGMENT
$T195352 DD	0ffffffffH
	DD	FLAT:$L195342
$T195347 DD	019930520H
	DD	01H
	DD	FLAT:$T195352
	DD	2 DUP(00H)
	DD	2 DUP(00H)
; Function compile flags: /Odt /RTCsu
xdata$x	ENDS
;	COMDAT ??HATL@@YA?AV?$CStringT@DV?$StrTraitMFC_DLL@DV?$ChTraitsCRT@D@ATL@@@@@0@PBDABV10@@Z
_TEXT	SEGMENT
$T195344 = -28						; size = 4
_strResult$ = -20					; size = 4
__$EHRec$ = -12						; size = 12
___$ReturnUdt$ = 8					; size = 4
_psz1$ = 12						; size = 4
_str2$ = 16						; size = 4
??HATL@@YA?AV?$CStringT@DV?$StrTraitMFC_DLL@DV?$ChTraitsCRT@D@ATL@@@@@0@PBDABV10@@Z PROC NEAR ; ATL::operator+, COMDAT

; 2032 : 	{

  00000	55		 push	 ebp
  00001	8b ec		 mov	 ebp, esp
  00003	6a ff		 push	 -1
  00005	68 00 00 00 00	 push	 __ehhandler$??HATL@@YA?AV?$CStringT@DV?$StrTraitMFC_DLL@DV?$ChTraitsCRT@D@ATL@@@@@0@PBDABV10@@Z
  0000a	64 a1 00 00 00
	00		 mov	 eax, DWORD PTR fs:__except_list
  00010	50		 push	 eax
  00011	64 89 25 00 00
	00 00		 mov	 DWORD PTR fs:__except_list, esp
  00018	83 ec 10	 sub	 esp, 16			; 00000010H
  0001b	56		 push	 esi
  0001c	57		 push	 edi
  0001d	b8 cc cc cc cc	 mov	 eax, -858993460		; ccccccccH
  00022	89 45 e4	 mov	 DWORD PTR [ebp-28], eax
  00025	89 45 e8	 mov	 DWORD PTR [ebp-24], eax
  00028	89 45 ec	 mov	 DWORD PTR [ebp-20], eax
  0002b	89 45 f0	 mov	 DWORD PTR [ebp-16], eax
  0002e	c7 45 e4 00 00
	00 00		 mov	 DWORD PTR $T195344[ebp], 0

; 2033 : 		CStringT strResult( str2.GetManager() );

  00035	8b f4		 mov	 esi, esp
  00037	8b 4d 10	 mov	 ecx, DWORD PTR _str2$[ebp]
  0003a	ff 15 00 00 00
	00		 call	 DWORD PTR __imp_?GetManager@?$CSimpleStringT@D$00@ATL@@QBEPAUIAtlStringMgr@2@XZ
  00040	3b f4		 cmp	 esi, esp
  00042	e8 00 00 00 00	 call	 __RTC_CheckEsp
  00047	8b f4		 mov	 esi, esp
  00049	50		 push	 eax
  0004a	8d 4d ec	 lea	 ecx, DWORD PTR _strResult$[ebp]
  0004d	ff 15 00 00 00
	00		 call	 DWORD PTR __imp_??0?$CStringT@DV?$StrTraitMFC_DLL@DV?$ChTraitsCRT@D@ATL@@@@@ATL@@QAE@PAUIAtlStringMgr@1@@Z
  00053	3b f4		 cmp	 esi, esp
  00055	e8 00 00 00 00	 call	 __RTC_CheckEsp
  0005a	c7 45 fc 00 00
	00 00		 mov	 DWORD PTR __$EHRec$[ebp+8], 0

; 2034 : 
; 2035 : 		Concatenate( strResult, psz1, StringLength( psz1 ), str2, str2.GetLength() );

  00061	8b f4		 mov	 esi, esp
  00063	8b 4d 10	 mov	 ecx, DWORD PTR _str2$[ebp]
  00066	ff 15 00 00 00
	00		 call	 DWORD PTR __imp_?GetLength@?$CSimpleStringT@D$00@ATL@@QBEHXZ
  0006c	3b f4		 cmp	 esi, esp
  0006e	e8 00 00 00 00	 call	 __RTC_CheckEsp
  00073	8b f4		 mov	 esi, esp
  00075	50		 push	 eax
  00076	8b fc		 mov	 edi, esp
  00078	8b 4d 10	 mov	 ecx, DWORD PTR _str2$[ebp]
  0007b	ff 15 00 00 00
	00		 call	 DWORD PTR __imp_??B?$CSimpleStringT@D$00@ATL@@QBEPBDXZ
  00081	3b fc		 cmp	 edi, esp
  00083	e8 00 00 00 00	 call	 __RTC_CheckEsp
  00088	50		 push	 eax
  00089	8b fc		 mov	 edi, esp
  0008b	8b 45 0c	 mov	 eax, DWORD PTR _psz1$[ebp]
  0008e	50		 push	 eax
  0008f	ff 15 00 00 00
	00		 call	 DWORD PTR __imp_?StringLength@?$CSimpleStringT@D$00@ATL@@SAHPBD@Z
  00095	83 c4 04	 add	 esp, 4
  00098	3b fc		 cmp	 edi, esp
  0009a	e8 00 00 00 00	 call	 __RTC_CheckEsp
  0009f	50		 push	 eax
  000a0	8b 4d 0c	 mov	 ecx, DWORD PTR _psz1$[ebp]
  000a3	51		 push	 ecx
  000a4	8d 55 ec	 lea	 edx, DWORD PTR _strResult$[ebp]
  000a7	52		 push	 edx
  000a8	ff 15 00 00 00
	00		 call	 DWORD PTR __imp_?Concatenate@?$CSimpleStringT@D$00@ATL@@KAXAAV12@PBDH1H@Z
  000ae	83 c4 14	 add	 esp, 20			; 00000014H
  000b1	3b f4		 cmp	 esi, esp
  000b3	e8 00 00 00 00	 call	 __RTC_CheckEsp

; 2036 : 
; 2037 : 		return( strResult );

  000b8	8b f4		 mov	 esi, esp
  000ba	8d 45 ec	 lea	 eax, DWORD PTR _strResult$[ebp]
  000bd	50		 push	 eax
  000be	8b 4d 08	 mov	 ecx, DWORD PTR ___$ReturnUdt$[ebp]
  000c1	ff 15 00 00 00
	00		 call	 DWORD PTR __imp_??0?$CStringT@DV?$StrTraitMFC_DLL@DV?$ChTraitsCRT@D@ATL@@@@@ATL@@QAE@ABV01@@Z
  000c7	3b f4		 cmp	 esi, esp
  000c9	e8 00 00 00 00	 call	 __RTC_CheckEsp
  000ce	8b 4d e4	 mov	 ecx, DWORD PTR $T195344[ebp]
  000d1	83 c9 01	 or	 ecx, 1
  000d4	89 4d e4	 mov	 DWORD PTR $T195344[ebp], ecx
  000d7	c7 45 fc ff ff
	ff ff		 mov	 DWORD PTR __$EHRec$[ebp+8], -1
  000de	8b f4		 mov	 esi, esp
  000e0	8d 4d ec	 lea	 ecx, DWORD PTR _strResult$[ebp]
  000e3	ff 15 00 00 00
	00		 call	 DWORD PTR __imp_??1?$CStringT@DV?$StrTraitMFC_DLL@DV?$ChTraitsCRT@D@ATL@@@@@ATL@@QAE@XZ
  000e9	3b f4		 cmp	 esi, esp
  000eb	e8 00 00 00 00	 call	 __RTC_CheckEsp
  000f0	8b 45 08	 mov	 eax, DWORD PTR ___$ReturnUdt$[ebp]

; 2038 : 	}

  000f3	52		 push	 edx
  000f4	8b cd		 mov	 ecx, ebp
  000f6	50		 push	 eax
  000f7	8d 15 00 00 00
	00		 lea	 edx, DWORD PTR $L195351
  000fd	e8 00 00 00 00	 call	 @_RTC_CheckStackVars@8
  00102	58		 pop	 eax
  00103	5a		 pop	 edx
  00104	8b 4d f4	 mov	 ecx, DWORD PTR __$EHRec$[ebp]
  00107	64 89 0d 00 00
	00 00		 mov	 DWORD PTR fs:__except_list, ecx
  0010e	5f		 pop	 edi
  0010f	5e		 pop	 esi
  00110	83 c4 1c	 add	 esp, 28			; 0000001cH
  00113	3b ec		 cmp	 ebp, esp
  00115	e8 00 00 00 00	 call	 __RTC_CheckEsp
  0011a	8b e5		 mov	 esp, ebp
  0011c	5d		 pop	 ebp
  0011d	c3		 ret	 0
$L195351:
  0011e	01 00 00 00	 DD	 1
  00122	00 00 00 00	 DD	 $L195350
$L195350:
  00126	ec ff ff ff	 DD	 -20			; ffffffecH
  0012a	04 00 00 00	 DD	 4
  0012e	00 00 00 00	 DD	 $L195348
$L195348:
  00132	73		 DB	 115			; 00000073H
  00133	74		 DB	 116			; 00000074H
  00134	72		 DB	 114			; 00000072H
  00135	52		 DB	 82			; 00000052H
  00136	65		 DB	 101			; 00000065H
  00137	73		 DB	 115			; 00000073H
  00138	75		 DB	 117			; 00000075H
  00139	6c		 DB	 108			; 0000006cH
  0013a	74		 DB	 116			; 00000074H
  0013b	00		 DB	 0
_TEXT	ENDS
;	COMDAT text$x
text$x	SEGMENT
$L195342:
  00000	8b f4		 mov	 esi, esp
  00002	8d 4d ec	 lea	 ecx, DWORD PTR _strResult$[ebp]
  00005	ff 15 00 00 00
	00		 call	 DWORD PTR __imp_??1?$CStringT@DV?$StrTraitMFC_DLL@DV?$ChTraitsCRT@D@ATL@@@@@ATL@@QAE@XZ
  0000b	3b f4		 cmp	 esi, esp
  0000d	e9 00 00 00 00	 jmp	 __RTC_CheckEsp
__ehhandler$??HATL@@YA?AV?$CStringT@DV?$StrTraitMFC_DLL@DV?$ChTraitsCRT@D@ATL@@@@@0@PBDABV10@@Z:
  00012	b8 00 00 00 00	 mov	 eax, OFFSET FLAT:$T195347
  00017	e9 00 00 00 00	 jmp	 ___CxxFrameHandler
text$x	ENDS
??HATL@@YA?AV?$CStringT@DV?$StrTraitMFC_DLL@DV?$ChTraitsCRT@D@ATL@@@@@0@PBDABV10@@Z ENDP ; ATL::operator+
EXTRN	__imp_?Compare@?$CStringT@DV?$StrTraitMFC_DLL@DV?$ChTraitsCRT@D@ATL@@@@@ATL@@QBEHPBD@Z:NEAR
; Function compile flags: /Odt /RTCsu
;	COMDAT ??9ATL@@YA_NABV?$CStringT@DV?$StrTraitMFC_DLL@DV?$ChTraitsCRT@D@ATL@@@@@0@PBD@Z
_TEXT	SEGMENT
_str1$ = 8						; size = 4
_psz2$ = 12						; size = 4
??9ATL@@YA_NABV?$CStringT@DV?$StrTraitMFC_DLL@DV?$ChTraitsCRT@D@ATL@@@@@0@PBD@Z PROC NEAR ; ATL::operator!=, COMDAT

; 2121 : 	{

  00000	55		 push	 ebp
  00001	8b ec		 mov	 ebp, esp
  00003	56		 push	 esi

; 2122 : 		return( str1.Compare( psz2 ) != 0 );

  00004	8b f4		 mov	 esi, esp
  00006	8b 45 0c	 mov	 eax, DWORD PTR _psz2$[ebp]
  00009	50		 push	 eax
  0000a	8b 4d 08	 mov	 ecx, DWORD PTR _str1$[ebp]
  0000d	ff 15 00 00 00
	00		 call	 DWORD PTR __imp_?Compare@?$CStringT@DV?$StrTraitMFC_DLL@DV?$ChTraitsCRT@D@ATL@@@@@ATL@@QBEHPBD@Z
  00013	3b f4		 cmp	 esi, esp
  00015	e8 00 00 00 00	 call	 __RTC_CheckEsp
  0001a	f7 d8		 neg	 eax
  0001c	1b c0		 sbb	 eax, eax
  0001e	f7 d8		 neg	 eax

; 2123 : 	}

  00020	5e		 pop	 esi
  00021	3b ec		 cmp	 ebp, esp
  00023	e8 00 00 00 00	 call	 __RTC_CheckEsp
  00028	5d		 pop	 ebp
  00029	c3		 ret	 0
??9ATL@@YA_NABV?$CStringT@DV?$StrTraitMFC_DLL@DV?$ChTraitsCRT@D@ATL@@@@@0@PBD@Z ENDP ; ATL::operator!=
; Function compile flags: /Odt /RTCsu
; File d:\program files (x86)\microsoft visual studio .net 2003\vc7\include\vector
_TEXT	ENDS
;	COMDAT ?size@?$vector@UOneSubject@@V?$allocator@UOneSubject@@@std@@@std@@QBEIXZ
_TEXT	SEGMENT
tv70 = -8						; size = 4
_this$ = -4						; size = 4
?size@?$vector@UOneSubject@@V?$allocator@UOneSubject@@@std@@@std@@QBEIXZ PROC NEAR ; std::vector<OneSubject,std::allocator<OneSubject> >::size, COMDAT
; _this$ = ecx

; 515  : 		{	// return length of sequence

  00000	55		 push	 ebp
  00001	8b ec		 mov	 ebp, esp
  00003	83 ec 08	 sub	 esp, 8
  00006	c7 45 f8 cc cc
	cc cc		 mov	 DWORD PTR [ebp-8], -858993460 ; ccccccccH
  0000d	c7 45 fc cc cc
	cc cc		 mov	 DWORD PTR [ebp-4], -858993460 ; ccccccccH
  00014	89 4d fc	 mov	 DWORD PTR _this$[ebp], ecx

; 516  : 		return (_Myfirst == 0 ? 0 : _Mylast - _Myfirst);

  00017	8b 45 fc	 mov	 eax, DWORD PTR _this$[ebp]
  0001a	83 78 04 00	 cmp	 DWORD PTR [eax+4], 0
  0001e	75 09		 jne	 SHORT $L195357
  00020	c7 45 f8 00 00
	00 00		 mov	 DWORD PTR tv70[ebp], 0
  00027	eb 17		 jmp	 SHORT $L195358
$L195357:
  00029	8b 4d fc	 mov	 ecx, DWORD PTR _this$[ebp]
  0002c	8b 55 fc	 mov	 edx, DWORD PTR _this$[ebp]
  0002f	8b 41 08	 mov	 eax, DWORD PTR [ecx+8]
  00032	2b 42 04	 sub	 eax, DWORD PTR [edx+4]
  00035	99		 cdq
  00036	b9 98 00 00 00	 mov	 ecx, 152		; 00000098H
  0003b	f7 f9		 idiv	 ecx
  0003d	89 45 f8	 mov	 DWORD PTR tv70[ebp], eax
$L195358:
  00040	8b 45 f8	 mov	 eax, DWORD PTR tv70[ebp]

; 517  : 		}

  00043	8b e5		 mov	 esp, ebp
  00045	5d		 pop	 ebp
  00046	c3		 ret	 0
?size@?$vector@UOneSubject@@V?$allocator@UOneSubject@@@std@@@std@@QBEIXZ ENDP ; std::vector<OneSubject,std::allocator<OneSubject> >::size
_TEXT	ENDS
PUBLIC	??Diterator@?$vector@UOneSubject@@V?$allocator@UOneSubject@@@std@@@std@@QBEAAUOneSubject@@XZ ; std::vector<OneSubject,std::allocator<OneSubject> >::iterator::operator*
PUBLIC	??Hiterator@?$vector@UOneSubject@@V?$allocator@UOneSubject@@@std@@@std@@QBE?AV012@H@Z ; std::vector<OneSubject,std::allocator<OneSubject> >::iterator::operator+
PUBLIC	?begin@?$vector@UOneSubject@@V?$allocator@UOneSubject@@@std@@@std@@QAE?AViterator@12@XZ ; std::vector<OneSubject,std::allocator<OneSubject> >::begin
; Function compile flags: /Odt /RTCsu
;	COMDAT ??A?$vector@UOneSubject@@V?$allocator@UOneSubject@@@std@@@std@@QAEAAUOneSubject@@I@Z
_TEXT	SEGMENT
$T195361 = -12						; size = 4
$T195360 = -8						; size = 4
_this$ = -4						; size = 4
__Pos$ = 8						; size = 4
??A?$vector@UOneSubject@@V?$allocator@UOneSubject@@@std@@@std@@QAEAAUOneSubject@@I@Z PROC NEAR ; std::vector<OneSubject,std::allocator<OneSubject> >::operator[], COMDAT
; _this$ = ecx

; 554  : 		{	// subscript mutable sequence

  00000	55		 push	 ebp
  00001	8b ec		 mov	 ebp, esp
  00003	83 ec 0c	 sub	 esp, 12			; 0000000cH
  00006	c7 45 f4 cc cc
	cc cc		 mov	 DWORD PTR [ebp-12], -858993460 ; ccccccccH
  0000d	c7 45 f8 cc cc
	cc cc		 mov	 DWORD PTR [ebp-8], -858993460 ; ccccccccH
  00014	c7 45 fc cc cc
	cc cc		 mov	 DWORD PTR [ebp-4], -858993460 ; ccccccccH
  0001b	89 4d fc	 mov	 DWORD PTR _this$[ebp], ecx

; 555  : 		return (*(begin() + _Pos));

  0001e	8b 45 08	 mov	 eax, DWORD PTR __Pos$[ebp]
  00021	50		 push	 eax
  00022	8d 4d f4	 lea	 ecx, DWORD PTR $T195361[ebp]
  00025	51		 push	 ecx
  00026	8d 55 f8	 lea	 edx, DWORD PTR $T195360[ebp]
  00029	52		 push	 edx
  0002a	8b 4d fc	 mov	 ecx, DWORD PTR _this$[ebp]
  0002d	e8 00 00 00 00	 call	 ?begin@?$vector@UOneSubject@@V?$allocator@UOneSubject@@@std@@@std@@QAE?AViterator@12@XZ ; std::vector<OneSubject,std::allocator<OneSubject> >::begin
  00032	8b c8		 mov	 ecx, eax
  00034	e8 00 00 00 00	 call	 ??Hiterator@?$vector@UOneSubject@@V?$allocator@UOneSubject@@@std@@@std@@QBE?AV012@H@Z ; std::vector<OneSubject,std::allocator<OneSubject> >::iterator::operator+
  00039	8b c8		 mov	 ecx, eax
  0003b	e8 00 00 00 00	 call	 ??Diterator@?$vector@UOneSubject@@V?$allocator@UOneSubject@@@std@@@std@@QBEAAUOneSubject@@XZ ; std::vector<OneSubject,std::allocator<OneSubject> >::iterator::operator*

; 556  : 		}

  00040	83 c4 0c	 add	 esp, 12			; 0000000cH
  00043	3b ec		 cmp	 ebp, esp
  00045	e8 00 00 00 00	 call	 __RTC_CheckEsp
  0004a	8b e5		 mov	 esp, ebp
  0004c	5d		 pop	 ebp
  0004d	c2 04 00	 ret	 4
??A?$vector@UOneSubject@@V?$allocator@UOneSubject@@@std@@@std@@QAEAAUOneSubject@@I@Z ENDP ; std::vector<OneSubject,std::allocator<OneSubject> >::operator[]
_TEXT	ENDS
PUBLIC	??0?$_Vector_val@PAVIChangeSkinEventListener@@V?$allocator@PAVIChangeSkinEventListener@@@std@@@std@@IAE@V?$allocator@PAVIChangeSkinEventListener@@@1@@Z ; std::_Vector_val<IChangeSkinEventListener *,std::allocator<IChangeSkinEventListener *> >::_Vector_val<IChangeSkinEventListener *,std::allocator<IChangeSkinEventListener *> >
PUBLIC	??0?$allocator@PAVIChangeSkinEventListener@@@std@@QAE@XZ ; std::allocator<IChangeSkinEventListener *>::allocator<IChangeSkinEventListener *>
PUBLIC	?_Buy@?$vector@PAVIChangeSkinEventListener@@V?$allocator@PAVIChangeSkinEventListener@@@std@@@std@@IAE_NI@Z ; std::vector<IChangeSkinEventListener *,std::allocator<IChangeSkinEventListener *> >::_Buy
; Function compile flags: /Odt /RTCsu
;	COMDAT ??0?$vector@PAVIChangeSkinEventListener@@V?$allocator@PAVIChangeSkinEventListener@@@std@@@std@@QAE@XZ
_TEXT	SEGMENT
_this$ = -4						; size = 4
??0?$vector@PAVIChangeSkinEventListener@@V?$allocator@PAVIChangeSkinEventListener@@@std@@@std@@QAE@XZ PROC NEAR ; std::vector<IChangeSkinEventListener *,std::allocator<IChangeSkinEventListener *> >::vector<IChangeSkinEventListener *,std::allocator<IChangeSkinEventListener *> >, COMDAT
; _this$ = ecx

; 299  : 		{	// construct empty vector

  00000	55		 push	 ebp
  00001	8b ec		 mov	 ebp, esp
  00003	83 ec 08	 sub	 esp, 8
  00006	c7 45 f8 cc cc
	cc cc		 mov	 DWORD PTR [ebp-8], -858993460 ; ccccccccH
  0000d	c7 45 fc cc cc
	cc cc		 mov	 DWORD PTR [ebp-4], -858993460 ; ccccccccH
  00014	89 4d fc	 mov	 DWORD PTR _this$[ebp], ecx
  00017	51		 push	 ecx
  00018	8b cc		 mov	 ecx, esp
  0001a	e8 00 00 00 00	 call	 ??0?$allocator@PAVIChangeSkinEventListener@@@std@@QAE@XZ ; std::allocator<IChangeSkinEventListener *>::allocator<IChangeSkinEventListener *>
  0001f	8b 4d fc	 mov	 ecx, DWORD PTR _this$[ebp]
  00022	e8 00 00 00 00	 call	 ??0?$_Vector_val@PAVIChangeSkinEventListener@@V?$allocator@PAVIChangeSkinEventListener@@@std@@@std@@IAE@V?$allocator@PAVIChangeSkinEventListener@@@1@@Z ; std::_Vector_val<IChangeSkinEventListener *,std::allocator<IChangeSkinEventListener *> >::_Vector_val<IChangeSkinEventListener *,std::allocator<IChangeSkinEventListener *> >

; 300  : 		_Buy(0);

  00027	6a 00		 push	 0
  00029	8b 4d fc	 mov	 ecx, DWORD PTR _this$[ebp]
  0002c	e8 00 00 00 00	 call	 ?_Buy@?$vector@PAVIChangeSkinEventListener@@V?$allocator@PAVIChangeSkinEventListener@@@std@@@std@@IAE_NI@Z ; std::vector<IChangeSkinEventListener *,std::allocator<IChangeSkinEventListener *> >::_Buy

; 301  : 		}

  00031	8b 45 fc	 mov	 eax, DWORD PTR _this$[ebp]
  00034	83 c4 08	 add	 esp, 8
  00037	3b ec		 cmp	 ebp, esp
  00039	e8 00 00 00 00	 call	 __RTC_CheckEsp
  0003e	8b e5		 mov	 esp, ebp
  00040	5d		 pop	 ebp
  00041	c3		 ret	 0
??0?$vector@PAVIChangeSkinEventListener@@V?$allocator@PAVIChangeSkinEventListener@@@std@@@std@@QAE@XZ ENDP ; std::vector<IChangeSkinEventListener *,std::allocator<IChangeSkinEventListener *> >::vector<IChangeSkinEventListener *,std::allocator<IChangeSkinEventListener *> >
_TEXT	ENDS
PUBLIC	?_Tidy@?$vector@PAVIChangeSkinEventListener@@V?$allocator@PAVIChangeSkinEventListener@@@std@@@std@@IAEXXZ ; std::vector<IChangeSkinEventListener *,std::allocator<IChangeSkinEventListener *> >::_Tidy
; Function compile flags: /Odt /RTCsu
;	COMDAT ??1?$vector@PAVIChangeSkinEventListener@@V?$allocator@PAVIChangeSkinEventListener@@@std@@@std@@QAE@XZ
_TEXT	SEGMENT
_this$ = -4						; size = 4
??1?$vector@PAVIChangeSkinEventListener@@V?$allocator@PAVIChangeSkinEventListener@@@std@@@std@@QAE@XZ PROC NEAR ; std::vector<IChangeSkinEventListener *,std::allocator<IChangeSkinEventListener *> >::~vector<IChangeSkinEventListener *,std::allocator<IChangeSkinEventListener *> >, COMDAT
; _this$ = ecx

; 387  : 		{	// destroy the object

  00000	55		 push	 ebp
  00001	8b ec		 mov	 ebp, esp
  00003	51		 push	 ecx
  00004	c7 45 fc cc cc
	cc cc		 mov	 DWORD PTR [ebp-4], -858993460 ; ccccccccH
  0000b	89 4d fc	 mov	 DWORD PTR _this$[ebp], ecx

; 388  : 		_Tidy();

  0000e	8b 4d fc	 mov	 ecx, DWORD PTR _this$[ebp]
  00011	e8 00 00 00 00	 call	 ?_Tidy@?$vector@PAVIChangeSkinEventListener@@V?$allocator@PAVIChangeSkinEventListener@@@std@@@std@@IAEXXZ ; std::vector<IChangeSkinEventListener *,std::allocator<IChangeSkinEventListener *> >::_Tidy

; 389  : 		}

  00016	83 c4 04	 add	 esp, 4
  00019	3b ec		 cmp	 ebp, esp
  0001b	e8 00 00 00 00	 call	 __RTC_CheckEsp
  00020	8b e5		 mov	 esp, ebp
  00022	5d		 pop	 ebp
  00023	c3		 ret	 0
??1?$vector@PAVIChangeSkinEventListener@@V?$allocator@PAVIChangeSkinEventListener@@@std@@@std@@QAE@XZ ENDP ; std::vector<IChangeSkinEventListener *,std::allocator<IChangeSkinEventListener *> >::~vector<IChangeSkinEventListener *,std::allocator<IChangeSkinEventListener *> >
_TEXT	ENDS
PUBLIC	??0iterator@?$vector@PAVIChangeSkinEventListener@@V?$allocator@PAVIChangeSkinEventListener@@@std@@@std@@QAE@PAPAVIChangeSkinEventListener@@@Z ; std::vector<IChangeSkinEventListener *,std::allocator<IChangeSkinEventListener *> >::iterator::iterator
; Function compile flags: /Odt /RTCsu
;	COMDAT ?begin@?$vector@PAVIChangeSkinEventListener@@V?$allocator@PAVIChangeSkinEventListener@@@std@@@std@@QAE?AViterator@12@XZ
_TEXT	SEGMENT
_this$ = -4						; size = 4
___$ReturnUdt$ = 8					; size = 4
?begin@?$vector@PAVIChangeSkinEventListener@@V?$allocator@PAVIChangeSkinEventListener@@@std@@@std@@QAE?AViterator@12@XZ PROC NEAR ; std::vector<IChangeSkinEventListener *,std::allocator<IChangeSkinEventListener *> >::begin, COMDAT
; _this$ = ecx

; 462  : 		{	// return iterator for beginning of mutable sequence

  00000	55		 push	 ebp
  00001	8b ec		 mov	 ebp, esp
  00003	51		 push	 ecx
  00004	c7 45 fc cc cc
	cc cc		 mov	 DWORD PTR [ebp-4], -858993460 ; ccccccccH
  0000b	89 4d fc	 mov	 DWORD PTR _this$[ebp], ecx

; 463  : 		return (iterator(_Myfirst));

  0000e	8b 45 fc	 mov	 eax, DWORD PTR _this$[ebp]
  00011	8b 48 04	 mov	 ecx, DWORD PTR [eax+4]
  00014	51		 push	 ecx
  00015	8b 4d 08	 mov	 ecx, DWORD PTR ___$ReturnUdt$[ebp]
  00018	e8 00 00 00 00	 call	 ??0iterator@?$vector@PAVIChangeSkinEventListener@@V?$allocator@PAVIChangeSkinEventListener@@@std@@@std@@QAE@PAPAVIChangeSkinEventListener@@@Z ; std::vector<IChangeSkinEventListener *,std::allocator<IChangeSkinEventListener *> >::iterator::iterator
  0001d	8b 45 08	 mov	 eax, DWORD PTR ___$ReturnUdt$[ebp]

; 464  : 		}

  00020	83 c4 04	 add	 esp, 4
  00023	3b ec		 cmp	 ebp, esp
  00025	e8 00 00 00 00	 call	 __RTC_CheckEsp
  0002a	8b e5		 mov	 esp, ebp
  0002c	5d		 pop	 ebp
  0002d	c2 04 00	 ret	 4
?begin@?$vector@PAVIChangeSkinEventListener@@V?$allocator@PAVIChangeSkinEventListener@@@std@@@std@@QAE?AViterator@12@XZ ENDP ; std::vector<IChangeSkinEventListener *,std::allocator<IChangeSkinEventListener *> >::begin
; Function compile flags: /Odt /RTCsu
_TEXT	ENDS
;	COMDAT ?end@?$vector@PAVIChangeSkinEventListener@@V?$allocator@PAVIChangeSkinEventListener@@@std@@@std@@QAE?AViterator@12@XZ
_TEXT	SEGMENT
_this$ = -4						; size = 4
___$ReturnUdt$ = 8					; size = 4
?end@?$vector@PAVIChangeSkinEventListener@@V?$allocator@PAVIChangeSkinEventListener@@@std@@@std@@QAE?AViterator@12@XZ PROC NEAR ; std::vector<IChangeSkinEventListener *,std::allocator<IChangeSkinEventListener *> >::end, COMDAT
; _this$ = ecx

; 472  : 		{	// return iterator for end of mutable sequence

  00000	55		 push	 ebp
  00001	8b ec		 mov	 ebp, esp
  00003	51		 push	 ecx
  00004	c7 45 fc cc cc
	cc cc		 mov	 DWORD PTR [ebp-4], -858993460 ; ccccccccH
  0000b	89 4d fc	 mov	 DWORD PTR _this$[ebp], ecx

; 473  : 		return (iterator(_Mylast));

  0000e	8b 45 fc	 mov	 eax, DWORD PTR _this$[ebp]
  00011	8b 48 08	 mov	 ecx, DWORD PTR [eax+8]
  00014	51		 push	 ecx
  00015	8b 4d 08	 mov	 ecx, DWORD PTR ___$ReturnUdt$[ebp]
  00018	e8 00 00 00 00	 call	 ??0iterator@?$vector@PAVIChangeSkinEventListener@@V?$allocator@PAVIChangeSkinEventListener@@@std@@@std@@QAE@PAPAVIChangeSkinEventListener@@@Z ; std::vector<IChangeSkinEventListener *,std::allocator<IChangeSkinEventListener *> >::iterator::iterator
  0001d	8b 45 08	 mov	 eax, DWORD PTR ___$ReturnUdt$[ebp]

; 474  : 		}

  00020	83 c4 04	 add	 esp, 4
  00023	3b ec		 cmp	 ebp, esp
  00025	e8 00 00 00 00	 call	 __RTC_CheckEsp
  0002a	8b e5		 mov	 esp, ebp
  0002c	5d		 pop	 ebp
  0002d	c2 04 00	 ret	 4
?end@?$vector@PAVIChangeSkinEventListener@@V?$allocator@PAVIChangeSkinEventListener@@@std@@@std@@QAE?AViterator@12@XZ ENDP ; std::vector<IChangeSkinEventListener *,std::allocator<IChangeSkinEventListener *> >::end
; Function compile flags: /Odt /RTCsu
_TEXT	ENDS
;	COMDAT ?size@?$vector@PAVIChangeSkinEventListener@@V?$allocator@PAVIChangeSkinEventListener@@@std@@@std@@QBEIXZ
_TEXT	SEGMENT
tv70 = -8						; size = 4
_this$ = -4						; size = 4
?size@?$vector@PAVIChangeSkinEventListener@@V?$allocator@PAVIChangeSkinEventListener@@@std@@@std@@QBEIXZ PROC NEAR ; std::vector<IChangeSkinEventListener *,std::allocator<IChangeSkinEventListener *> >::size, COMDAT
; _this$ = ecx

; 515  : 		{	// return length of sequence

  00000	55		 push	 ebp
  00001	8b ec		 mov	 ebp, esp
  00003	83 ec 08	 sub	 esp, 8
  00006	c7 45 f8 cc cc
	cc cc		 mov	 DWORD PTR [ebp-8], -858993460 ; ccccccccH
  0000d	c7 45 fc cc cc
	cc cc		 mov	 DWORD PTR [ebp-4], -858993460 ; ccccccccH
  00014	89 4d fc	 mov	 DWORD PTR _this$[ebp], ecx

; 516  : 		return (_Myfirst == 0 ? 0 : _Mylast - _Myfirst);

  00017	8b 45 fc	 mov	 eax, DWORD PTR _this$[ebp]
  0001a	83 78 04 00	 cmp	 DWORD PTR [eax+4], 0
  0001e	75 09		 jne	 SHORT $L195368
  00020	c7 45 f8 00 00
	00 00		 mov	 DWORD PTR tv70[ebp], 0
  00027	eb 12		 jmp	 SHORT $L195369
$L195368:
  00029	8b 4d fc	 mov	 ecx, DWORD PTR _this$[ebp]
  0002c	8b 55 fc	 mov	 edx, DWORD PTR _this$[ebp]
  0002f	8b 41 08	 mov	 eax, DWORD PTR [ecx+8]
  00032	2b 42 04	 sub	 eax, DWORD PTR [edx+4]
  00035	c1 f8 02	 sar	 eax, 2
  00038	89 45 f8	 mov	 DWORD PTR tv70[ebp], eax
$L195369:
  0003b	8b 45 f8	 mov	 eax, DWORD PTR tv70[ebp]

; 517  : 		}

  0003e	8b e5		 mov	 esp, ebp
  00040	5d		 pop	 ebp
  00041	c3		 ret	 0
?size@?$vector@PAVIChangeSkinEventListener@@V?$allocator@PAVIChangeSkinEventListener@@@std@@@std@@QBEIXZ ENDP ; std::vector<IChangeSkinEventListener *,std::allocator<IChangeSkinEventListener *> >::size
_TEXT	ENDS
PUBLIC	??Hiterator@?$vector@PAVIChangeSkinEventListener@@V?$allocator@PAVIChangeSkinEventListener@@@std@@@std@@QBE?AV012@H@Z ; std::vector<IChangeSkinEventListener *,std::allocator<IChangeSkinEventListener *> >::iterator::operator+
; Function compile flags: /Odt /RTCsu
;	COMDAT ??A?$vector@PAVIChangeSkinEventListener@@V?$allocator@PAVIChangeSkinEventListener@@@std@@@std@@QAEAAPAVIChangeSkinEventListener@@I@Z
_TEXT	SEGMENT
$T195372 = -12						; size = 4
$T195371 = -8						; size = 4
_this$ = -4						; size = 4
__Pos$ = 8						; size = 4
??A?$vector@PAVIChangeSkinEventListener@@V?$allocator@PAVIChangeSkinEventListener@@@std@@@std@@QAEAAPAVIChangeSkinEventListener@@I@Z PROC NEAR ; std::vector<IChangeSkinEventListener *,std::allocator<IChangeSkinEventListener *> >::operator[], COMDAT
; _this$ = ecx

; 554  : 		{	// subscript mutable sequence

  00000	55		 push	 ebp
  00001	8b ec		 mov	 ebp, esp
  00003	83 ec 0c	 sub	 esp, 12			; 0000000cH
  00006	c7 45 f4 cc cc
	cc cc		 mov	 DWORD PTR [ebp-12], -858993460 ; ccccccccH
  0000d	c7 45 f8 cc cc
	cc cc		 mov	 DWORD PTR [ebp-8], -858993460 ; ccccccccH
  00014	c7 45 fc cc cc
	cc cc		 mov	 DWORD PTR [ebp-4], -858993460 ; ccccccccH
  0001b	89 4d fc	 mov	 DWORD PTR _this$[ebp], ecx

; 555  : 		return (*(begin() + _Pos));

  0001e	8b 45 08	 mov	 eax, DWORD PTR __Pos$[ebp]
  00021	50		 push	 eax
  00022	8d 4d f4	 lea	 ecx, DWORD PTR $T195372[ebp]
  00025	51		 push	 ecx
  00026	8d 55 f8	 lea	 edx, DWORD PTR $T195371[ebp]
  00029	52		 push	 edx
  0002a	8b 4d fc	 mov	 ecx, DWORD PTR _this$[ebp]
  0002d	e8 00 00 00 00	 call	 ?begin@?$vector@PAVIChangeSkinEventListener@@V?$allocator@PAVIChangeSkinEventListener@@@std@@@std@@QAE?AViterator@12@XZ ; std::vector<IChangeSkinEventListener *,std::allocator<IChangeSkinEventListener *> >::begin
  00032	8b c8		 mov	 ecx, eax
  00034	e8 00 00 00 00	 call	 ??Hiterator@?$vector@PAVIChangeSkinEventListener@@V?$allocator@PAVIChangeSkinEventListener@@@std@@@std@@QBE?AV012@H@Z ; std::vector<IChangeSkinEventListener *,std::allocator<IChangeSkinEventListener *> >::iterator::operator+
  00039	8b c8		 mov	 ecx, eax
  0003b	e8 00 00 00 00	 call	 ??Diterator@?$vector@PAVIChangeSkinEventListener@@V?$allocator@PAVIChangeSkinEventListener@@@std@@@std@@QBEAAPAVIChangeSkinEventListener@@XZ ; std::vector<IChangeSkinEventListener *,std::allocator<IChangeSkinEventListener *> >::iterator::operator*

; 556  : 		}

  00040	83 c4 0c	 add	 esp, 12			; 0000000cH
  00043	3b ec		 cmp	 ebp, esp
  00045	e8 00 00 00 00	 call	 __RTC_CheckEsp
  0004a	8b e5		 mov	 esp, ebp
  0004c	5d		 pop	 ebp
  0004d	c2 04 00	 ret	 4
??A?$vector@PAVIChangeSkinEventListener@@V?$allocator@PAVIChangeSkinEventListener@@@std@@@std@@QAEAAPAVIChangeSkinEventListener@@I@Z ENDP ; std::vector<IChangeSkinEventListener *,std::allocator<IChangeSkinEventListener *> >::operator[]
_TEXT	ENDS
PUBLIC	?capacity@?$vector@PAVIChangeSkinEventListener@@V?$allocator@PAVIChangeSkinEventListener@@@std@@@std@@QBEIXZ ; std::vector<IChangeSkinEventListener *,std::allocator<IChangeSkinEventListener *> >::capacity
PUBLIC	?insert@?$vector@PAVIChangeSkinEventListener@@V?$allocator@PAVIChangeSkinEventListener@@@std@@@std@@QAE?AViterator@12@V312@ABQAVIChangeSkinEventListener@@@Z ; std::vector<IChangeSkinEventListener *,std::allocator<IChangeSkinEventListener *> >::insert
PUBLIC	?_Ufill@?$vector@PAVIChangeSkinEventListener@@V?$allocator@PAVIChangeSkinEventListener@@@std@@@std@@IAEPAPAVIChangeSkinEventListener@@PAPAV3@IABQAV3@@Z ; std::vector<IChangeSkinEventListener *,std::allocator<IChangeSkinEventListener *> >::_Ufill
; Function compile flags: /Odt /RTCsu
;	COMDAT ?push_back@?$vector@PAVIChangeSkinEventListener@@V?$allocator@PAVIChangeSkinEventListener@@@std@@@std@@QAEXABQAVIChangeSkinEventListener@@@Z
_TEXT	SEGMENT
$T195375 = -12						; size = 4
$T195374 = -8						; size = 4
_this$ = -4						; size = 4
__Val$ = 8						; size = 4
?push_back@?$vector@PAVIChangeSkinEventListener@@V?$allocator@PAVIChangeSkinEventListener@@@std@@@std@@QAEXABQAVIChangeSkinEventListener@@@Z PROC NEAR ; std::vector<IChangeSkinEventListener *,std::allocator<IChangeSkinEventListener *> >::push_back, COMDAT
; _this$ = ecx

; 579  : 		{	// insert element at end

  00000	55		 push	 ebp
  00001	8b ec		 mov	 ebp, esp
  00003	83 ec 0c	 sub	 esp, 12			; 0000000cH
  00006	56		 push	 esi
  00007	c7 45 f4 cc cc
	cc cc		 mov	 DWORD PTR [ebp-12], -858993460 ; ccccccccH
  0000e	c7 45 f8 cc cc
	cc cc		 mov	 DWORD PTR [ebp-8], -858993460 ; ccccccccH
  00015	c7 45 fc cc cc
	cc cc		 mov	 DWORD PTR [ebp-4], -858993460 ; ccccccccH
  0001c	89 4d fc	 mov	 DWORD PTR _this$[ebp], ecx

; 580  : 		if (size() < capacity())

  0001f	8b 4d fc	 mov	 ecx, DWORD PTR _this$[ebp]
  00022	e8 00 00 00 00	 call	 ?size@?$vector@PAVIChangeSkinEventListener@@V?$allocator@PAVIChangeSkinEventListener@@@std@@@std@@QBEIXZ ; std::vector<IChangeSkinEventListener *,std::allocator<IChangeSkinEventListener *> >::size
  00027	8b f0		 mov	 esi, eax
  00029	8b 4d fc	 mov	 ecx, DWORD PTR _this$[ebp]
  0002c	e8 00 00 00 00	 call	 ?capacity@?$vector@PAVIChangeSkinEventListener@@V?$allocator@PAVIChangeSkinEventListener@@@std@@@std@@QBEIXZ ; std::vector<IChangeSkinEventListener *,std::allocator<IChangeSkinEventListener *> >::capacity
  00031	3b f0		 cmp	 esi, eax
  00033	73 1d		 jae	 SHORT $L193191

; 581  : 			_Mylast = _Ufill(_Mylast, 1, _Val);

  00035	8b 45 08	 mov	 eax, DWORD PTR __Val$[ebp]
  00038	50		 push	 eax
  00039	6a 01		 push	 1
  0003b	8b 4d fc	 mov	 ecx, DWORD PTR _this$[ebp]
  0003e	8b 51 08	 mov	 edx, DWORD PTR [ecx+8]
  00041	52		 push	 edx
  00042	8b 4d fc	 mov	 ecx, DWORD PTR _this$[ebp]
  00045	e8 00 00 00 00	 call	 ?_Ufill@?$vector@PAVIChangeSkinEventListener@@V?$allocator@PAVIChangeSkinEventListener@@@std@@@std@@IAEPAPAVIChangeSkinEventListener@@PAPAV3@IABQAV3@@Z ; std::vector<IChangeSkinEventListener *,std::allocator<IChangeSkinEventListener *> >::_Ufill
  0004a	8b 4d fc	 mov	 ecx, DWORD PTR _this$[ebp]
  0004d	89 41 08	 mov	 DWORD PTR [ecx+8], eax

; 582  : 		else

  00050	eb 1f		 jmp	 SHORT $L193190
$L193191:

; 583  : 			insert(end(), _Val);

  00052	8b 55 08	 mov	 edx, DWORD PTR __Val$[ebp]
  00055	52		 push	 edx
  00056	8d 45 f8	 lea	 eax, DWORD PTR $T195374[ebp]
  00059	50		 push	 eax
  0005a	8b 4d fc	 mov	 ecx, DWORD PTR _this$[ebp]
  0005d	e8 00 00 00 00	 call	 ?end@?$vector@PAVIChangeSkinEventListener@@V?$allocator@PAVIChangeSkinEventListener@@@std@@@std@@QAE?AViterator@12@XZ ; std::vector<IChangeSkinEventListener *,std::allocator<IChangeSkinEventListener *> >::end
  00062	8b 08		 mov	 ecx, DWORD PTR [eax]
  00064	51		 push	 ecx
  00065	8d 55 f4	 lea	 edx, DWORD PTR $T195375[ebp]
  00068	52		 push	 edx
  00069	8b 4d fc	 mov	 ecx, DWORD PTR _this$[ebp]
  0006c	e8 00 00 00 00	 call	 ?insert@?$vector@PAVIChangeSkinEventListener@@V?$allocator@PAVIChangeSkinEventListener@@@std@@@std@@QAE?AViterator@12@V312@ABQAVIChangeSkinEventListener@@@Z ; std::vector<IChangeSkinEventListener *,std::allocator<IChangeSkinEventListener *> >::insert
$L193190:

; 584  : 		}

  00071	5e		 pop	 esi
  00072	83 c4 0c	 add	 esp, 12			; 0000000cH
  00075	3b ec		 cmp	 ebp, esp
  00077	e8 00 00 00 00	 call	 __RTC_CheckEsp
  0007c	8b e5		 mov	 esp, ebp
  0007e	5d		 pop	 ebp
  0007f	c2 04 00	 ret	 4
?push_back@?$vector@PAVIChangeSkinEventListener@@V?$allocator@PAVIChangeSkinEventListener@@@std@@@std@@QAEXABQAVIChangeSkinEventListener@@@Z ENDP ; std::vector<IChangeSkinEventListener *,std::allocator<IChangeSkinEventListener *> >::push_back
_TEXT	ENDS
PUBLIC	??$copy@PAPAVIChangeSkinEventListener@@PAPAV1@@std@@YAPAPAVIChangeSkinEventListener@@PAPAV1@00@Z ; std::copy<IChangeSkinEventListener * *,IChangeSkinEventListener * *>
PUBLIC	?_Destroy@?$vector@PAVIChangeSkinEventListener@@V?$allocator@PAVIChangeSkinEventListener@@@std@@@std@@IAEXPAPAVIChangeSkinEventListener@@0@Z ; std::vector<IChangeSkinEventListener *,std::allocator<IChangeSkinEventListener *> >::_Destroy
; Function compile flags: /Odt /RTCsu
;	COMDAT ?erase@?$vector@PAVIChangeSkinEventListener@@V?$allocator@PAVIChangeSkinEventListener@@@std@@@std@@QAE?AViterator@12@V312@@Z
_TEXT	SEGMENT
_this$ = -4						; size = 4
___$ReturnUdt$ = 8					; size = 4
__Where$ = 12						; size = 4
?erase@?$vector@PAVIChangeSkinEventListener@@V?$allocator@PAVIChangeSkinEventListener@@@std@@@std@@QAE?AViterator@12@V312@@Z PROC NEAR ; std::vector<IChangeSkinEventListener *,std::allocator<IChangeSkinEventListener *> >::erase, COMDAT
; _this$ = ecx

; 723  : 		{	// erase element at where

  00000	55		 push	 ebp
  00001	8b ec		 mov	 ebp, esp
  00003	51		 push	 ecx
  00004	c7 45 fc cc cc
	cc cc		 mov	 DWORD PTR [ebp-4], -858993460 ; ccccccccH
  0000b	89 4d fc	 mov	 DWORD PTR _this$[ebp], ecx

; 724  : 		copy(_ITER_BASE(_Where) + 1, _Mylast, _ITER_BASE(_Where));

  0000e	8b 45 0c	 mov	 eax, DWORD PTR __Where$[ebp]
  00011	50		 push	 eax
  00012	8b 4d fc	 mov	 ecx, DWORD PTR _this$[ebp]
  00015	8b 51 08	 mov	 edx, DWORD PTR [ecx+8]
  00018	52		 push	 edx
  00019	8b 45 0c	 mov	 eax, DWORD PTR __Where$[ebp]
  0001c	83 c0 04	 add	 eax, 4
  0001f	50		 push	 eax
  00020	e8 00 00 00 00	 call	 ??$copy@PAPAVIChangeSkinEventListener@@PAPAV1@@std@@YAPAPAVIChangeSkinEventListener@@PAPAV1@00@Z ; std::copy<IChangeSkinEventListener * *,IChangeSkinEventListener * *>
  00025	83 c4 0c	 add	 esp, 12			; 0000000cH

; 725  : 		_Destroy(_Mylast - 1, _Mylast);

  00028	8b 4d fc	 mov	 ecx, DWORD PTR _this$[ebp]
  0002b	8b 51 08	 mov	 edx, DWORD PTR [ecx+8]
  0002e	52		 push	 edx
  0002f	8b 45 fc	 mov	 eax, DWORD PTR _this$[ebp]
  00032	8b 48 08	 mov	 ecx, DWORD PTR [eax+8]
  00035	83 e9 04	 sub	 ecx, 4
  00038	51		 push	 ecx
  00039	8b 4d fc	 mov	 ecx, DWORD PTR _this$[ebp]
  0003c	e8 00 00 00 00	 call	 ?_Destroy@?$vector@PAVIChangeSkinEventListener@@V?$allocator@PAVIChangeSkinEventListener@@@std@@@std@@IAEXPAPAVIChangeSkinEventListener@@0@Z ; std::vector<IChangeSkinEventListener *,std::allocator<IChangeSkinEventListener *> >::_Destroy

; 726  : 		--_Mylast;

  00041	8b 55 fc	 mov	 edx, DWORD PTR _this$[ebp]
  00044	8b 42 08	 mov	 eax, DWORD PTR [edx+8]
  00047	83 e8 04	 sub	 eax, 4
  0004a	8b 4d fc	 mov	 ecx, DWORD PTR _this$[ebp]
  0004d	89 41 08	 mov	 DWORD PTR [ecx+8], eax

; 727  : 		return (_Where);

  00050	8b 55 08	 mov	 edx, DWORD PTR ___$ReturnUdt$[ebp]
  00053	8b 45 0c	 mov	 eax, DWORD PTR __Where$[ebp]
  00056	89 02		 mov	 DWORD PTR [edx], eax
  00058	8b 45 08	 mov	 eax, DWORD PTR ___$ReturnUdt$[ebp]

; 728  : 		}

  0005b	83 c4 04	 add	 esp, 4
  0005e	3b ec		 cmp	 ebp, esp
  00060	e8 00 00 00 00	 call	 __RTC_CheckEsp
  00065	8b e5		 mov	 esp, ebp
  00067	5d		 pop	 ebp
  00068	c2 08 00	 ret	 8
?erase@?$vector@PAVIChangeSkinEventListener@@V?$allocator@PAVIChangeSkinEventListener@@@std@@@std@@QAE?AViterator@12@V312@@Z ENDP ; std::vector<IChangeSkinEventListener *,std::allocator<IChangeSkinEventListener *> >::erase
_TEXT	ENDS
PUBLIC	??Dconst_iterator@?$vector@PAVIChangeSkinEventListener@@V?$allocator@PAVIChangeSkinEventListener@@@std@@@std@@QBEABQAVIChangeSkinEventListener@@XZ ; std::vector<IChangeSkinEventListener *,std::allocator<IChangeSkinEventListener *> >::const_iterator::operator*
; Function compile flags: /Odt /RTCsu
;	COMDAT ??Diterator@?$vector@PAVIChangeSkinEventListener@@V?$allocator@PAVIChangeSkinEventListener@@@std@@@std@@QBEAAPAVIChangeSkinEventListener@@XZ
_TEXT	SEGMENT
_this$ = -4						; size = 4
??Diterator@?$vector@PAVIChangeSkinEventListener@@V?$allocator@PAVIChangeSkinEventListener@@@std@@@std@@QBEAAPAVIChangeSkinEventListener@@XZ PROC NEAR ; std::vector<IChangeSkinEventListener *,std::allocator<IChangeSkinEventListener *> >::iterator::operator*, COMDAT
; _this$ = ecx

; 219  : 			{	// return designated object

  00000	55		 push	 ebp
  00001	8b ec		 mov	 ebp, esp
  00003	51		 push	 ecx
  00004	c7 45 fc cc cc
	cc cc		 mov	 DWORD PTR [ebp-4], -858993460 ; ccccccccH
  0000b	89 4d fc	 mov	 DWORD PTR _this$[ebp], ecx

; 220  : 			return ((reference)**(const_iterator *)this);

  0000e	8b 4d fc	 mov	 ecx, DWORD PTR _this$[ebp]
  00011	e8 00 00 00 00	 call	 ??Dconst_iterator@?$vector@PAVIChangeSkinEventListener@@V?$allocator@PAVIChangeSkinEventListener@@@std@@@std@@QBEABQAVIChangeSkinEventListener@@XZ ; std::vector<IChangeSkinEventListener *,std::allocator<IChangeSkinEventListener *> >::const_iterator::operator*

; 221  : 			}

  00016	83 c4 04	 add	 esp, 4
  00019	3b ec		 cmp	 ebp, esp
  0001b	e8 00 00 00 00	 call	 __RTC_CheckEsp
  00020	8b e5		 mov	 esp, ebp
  00022	5d		 pop	 ebp
  00023	c3		 ret	 0
??Diterator@?$vector@PAVIChangeSkinEventListener@@V?$allocator@PAVIChangeSkinEventListener@@@std@@@std@@QBEAAPAVIChangeSkinEventListener@@XZ ENDP ; std::vector<IChangeSkinEventListener *,std::allocator<IChangeSkinEventListener *> >::iterator::operator*
_TEXT	ENDS
PUBLIC	??Eiterator@?$vector@PAVIChangeSkinEventListener@@V?$allocator@PAVIChangeSkinEventListener@@@std@@@std@@QAEAAV012@XZ ; std::vector<IChangeSkinEventListener *,std::allocator<IChangeSkinEventListener *> >::iterator::operator++
; Function compile flags: /Odt /RTCsu
;	COMDAT ??Eiterator@?$vector@PAVIChangeSkinEventListener@@V?$allocator@PAVIChangeSkinEventListener@@@std@@@std@@QAE?AV012@H@Z
_TEXT	SEGMENT
__Tmp$ = -12						; size = 4
_this$ = -4						; size = 4
___$ReturnUdt$ = 8					; size = 4
___formal$ = 12						; size = 4
??Eiterator@?$vector@PAVIChangeSkinEventListener@@V?$allocator@PAVIChangeSkinEventListener@@@std@@@std@@QAE?AV012@H@Z PROC NEAR ; std::vector<IChangeSkinEventListener *,std::allocator<IChangeSkinEventListener *> >::iterator::operator++, COMDAT
; _this$ = ecx

; 235  : 			{	// postincrement

  00000	55		 push	 ebp
  00001	8b ec		 mov	 ebp, esp
  00003	83 ec 10	 sub	 esp, 16			; 00000010H
  00006	b8 cc cc cc cc	 mov	 eax, -858993460		; ccccccccH
  0000b	89 45 f0	 mov	 DWORD PTR [ebp-16], eax
  0000e	89 45 f4	 mov	 DWORD PTR [ebp-12], eax
  00011	89 45 f8	 mov	 DWORD PTR [ebp-8], eax
  00014	89 45 fc	 mov	 DWORD PTR [ebp-4], eax
  00017	89 4d fc	 mov	 DWORD PTR _this$[ebp], ecx

; 236  : 			iterator _Tmp = *this;

  0001a	8b 45 fc	 mov	 eax, DWORD PTR _this$[ebp]
  0001d	8b 08		 mov	 ecx, DWORD PTR [eax]
  0001f	89 4d f4	 mov	 DWORD PTR __Tmp$[ebp], ecx

; 237  : 			++*this;

  00022	8b 4d fc	 mov	 ecx, DWORD PTR _this$[ebp]
  00025	e8 00 00 00 00	 call	 ??Eiterator@?$vector@PAVIChangeSkinEventListener@@V?$allocator@PAVIChangeSkinEventListener@@@std@@@std@@QAEAAV012@XZ ; std::vector<IChangeSkinEventListener *,std::allocator<IChangeSkinEventListener *> >::iterator::operator++

; 238  : 			return (_Tmp);

  0002a	8b 55 08	 mov	 edx, DWORD PTR ___$ReturnUdt$[ebp]
  0002d	8b 45 f4	 mov	 eax, DWORD PTR __Tmp$[ebp]
  00030	89 02		 mov	 DWORD PTR [edx], eax
  00032	8b 45 08	 mov	 eax, DWORD PTR ___$ReturnUdt$[ebp]

; 239  : 			}

  00035	52		 push	 edx
  00036	8b cd		 mov	 ecx, ebp
  00038	50		 push	 eax
  00039	8d 15 00 00 00
	00		 lea	 edx, DWORD PTR $L195381
  0003f	e8 00 00 00 00	 call	 @_RTC_CheckStackVars@8
  00044	58		 pop	 eax
  00045	5a		 pop	 edx
  00046	83 c4 10	 add	 esp, 16			; 00000010H
  00049	3b ec		 cmp	 ebp, esp
  0004b	e8 00 00 00 00	 call	 __RTC_CheckEsp
  00050	8b e5		 mov	 esp, ebp
  00052	5d		 pop	 ebp
  00053	c2 08 00	 ret	 8
$L195381:
  00056	01 00 00 00	 DD	 1
  0005a	00 00 00 00	 DD	 $L195380
$L195380:
  0005e	f4 ff ff ff	 DD	 -12			; fffffff4H
  00062	04 00 00 00	 DD	 4
  00066	00 00 00 00	 DD	 $L195379
$L195379:
  0006a	5f		 DB	 95			; 0000005fH
  0006b	54		 DB	 84			; 00000054H
  0006c	6d		 DB	 109			; 0000006dH
  0006d	70		 DB	 112			; 00000070H
  0006e	00		 DB	 0
??Eiterator@?$vector@PAVIChangeSkinEventListener@@V?$allocator@PAVIChangeSkinEventListener@@@std@@@std@@QAE?AV012@H@Z ENDP ; std::vector<IChangeSkinEventListener *,std::allocator<IChangeSkinEventListener *> >::iterator::operator++
_TEXT	ENDS
PUBLIC	??8const_iterator@?$vector@PAVIChangeSkinEventListener@@V?$allocator@PAVIChangeSkinEventListener@@@std@@@std@@QBE_NABV012@@Z ; std::vector<IChangeSkinEventListener *,std::allocator<IChangeSkinEventListener *> >::const_iterator::operator==
; Function compile flags: /Odt /RTCsu
;	COMDAT ??9const_iterator@?$vector@PAVIChangeSkinEventListener@@V?$allocator@PAVIChangeSkinEventListener@@@std@@@std@@QBE_NABV012@@Z
_TEXT	SEGMENT
_this$ = -4						; size = 4
__Right$ = 8						; size = 4
??9const_iterator@?$vector@PAVIChangeSkinEventListener@@V?$allocator@PAVIChangeSkinEventListener@@@std@@@std@@QBE_NABV012@@Z PROC NEAR ; std::vector<IChangeSkinEventListener *,std::allocator<IChangeSkinEventListener *> >::const_iterator::operator!=, COMDAT
; _this$ = ecx

; 159  : 			{	// test for iterator inequality

  00000	55		 push	 ebp
  00001	8b ec		 mov	 ebp, esp
  00003	51		 push	 ecx
  00004	c7 45 fc cc cc
	cc cc		 mov	 DWORD PTR [ebp-4], -858993460 ; ccccccccH
  0000b	89 4d fc	 mov	 DWORD PTR _this$[ebp], ecx

; 160  : 			return (!(*this == _Right));

  0000e	8b 45 08	 mov	 eax, DWORD PTR __Right$[ebp]
  00011	50		 push	 eax
  00012	8b 4d fc	 mov	 ecx, DWORD PTR _this$[ebp]
  00015	e8 00 00 00 00	 call	 ??8const_iterator@?$vector@PAVIChangeSkinEventListener@@V?$allocator@PAVIChangeSkinEventListener@@@std@@@std@@QBE_NABV012@@Z ; std::vector<IChangeSkinEventListener *,std::allocator<IChangeSkinEventListener *> >::const_iterator::operator==
  0001a	0f b6 c0	 movzx	 eax, al
  0001d	f7 d8		 neg	 eax
  0001f	1b c0		 sbb	 eax, eax
  00021	40		 inc	 eax

; 161  : 			}

  00022	83 c4 04	 add	 esp, 4
  00025	3b ec		 cmp	 ebp, esp
  00027	e8 00 00 00 00	 call	 __RTC_CheckEsp
  0002c	8b e5		 mov	 esp, ebp
  0002e	5d		 pop	 ebp
  0002f	c2 04 00	 ret	 4
??9const_iterator@?$vector@PAVIChangeSkinEventListener@@V?$allocator@PAVIChangeSkinEventListener@@@std@@@std@@QBE_NABV012@@Z ENDP ; std::vector<IChangeSkinEventListener *,std::allocator<IChangeSkinEventListener *> >::const_iterator::operator!=
_TEXT	ENDS
PUBLIC	?_Buy@?$vector@V?$basic_string@DU?$char_traits@D@std@@V?$allocator@D@2@@std@@V?$allocator@V?$basic_string@DU?$char_traits@D@std@@V?$allocator@D@2@@std@@@2@@std@@IAE_NI@Z ; std::vector<std::basic_string<char,std::char_traits<char>,std::allocator<char> >,std::allocator<std::basic_string<char,std::char_traits<char>,std::allocator<char> > > >::_Buy
PUBLIC	??0?$allocator@V?$basic_string@DU?$char_traits@D@std@@V?$allocator@D@2@@std@@@std@@QAE@XZ ; std::allocator<std::basic_string<char,std::char_traits<char>,std::allocator<char> > >::allocator<std::basic_string<char,std::char_traits<char>,std::allocator<char> > >
PUBLIC	??0?$_Vector_val@V?$basic_string@DU?$char_traits@D@std@@V?$allocator@D@2@@std@@V?$allocator@V?$basic_string@DU?$char_traits@D@std@@V?$allocator@D@2@@std@@@2@@std@@IAE@V?$allocator@V?$basic_string@DU?$char_traits@D@std@@V?$allocator@D@2@@std@@@1@@Z ; std::_Vector_val<std::basic_string<char,std::char_traits<char>,std::allocator<char> >,std::allocator<std::basic_string<char,std::char_traits<char>,std::allocator<char> > > >::_Vector_val<std::basic_string<char,std::char_traits<char>,std::allocator<char> >,std::allocator<std::basic_string<char,std::char_traits<char>,std::allocator<char> > > >
; Function compile flags: /Odt /RTCsu
;	COMDAT ??0?$vector@V?$basic_string@DU?$char_traits@D@std@@V?$allocator@D@2@@std@@V?$allocator@V?$basic_string@DU?$char_traits@D@std@@V?$allocator@D@2@@std@@@2@@std@@QAE@XZ
_TEXT	SEGMENT
_this$ = -4						; size = 4
??0?$vector@V?$basic_string@DU?$char_traits@D@std@@V?$allocator@D@2@@std@@V?$allocator@V?$basic_string@DU?$char_traits@D@std@@V?$allocator@D@2@@std@@@2@@std@@QAE@XZ PROC NEAR ; std::vector<std::basic_string<char,std::char_traits<char>,std::allocator<char> >,std::allocator<std::basic_string<char,std::char_traits<char>,std::allocator<char> > > >::vector<std::basic_string<char,std::char_traits<char>,std::allocator<char> >,std::allocator<std::basic_string<char,std::char_traits<char>,std::allocator<char> > > >, COMDAT
; _this$ = ecx

; 299  : 		{	// construct empty vector

  00000	55		 push	 ebp
  00001	8b ec		 mov	 ebp, esp
  00003	83 ec 08	 sub	 esp, 8
  00006	c7 45 f8 cc cc
	cc cc		 mov	 DWORD PTR [ebp-8], -858993460 ; ccccccccH
  0000d	c7 45 fc cc cc
	cc cc		 mov	 DWORD PTR [ebp-4], -858993460 ; ccccccccH
  00014	89 4d fc	 mov	 DWORD PTR _this$[ebp], ecx
  00017	51		 push	 ecx
  00018	8b cc		 mov	 ecx, esp
  0001a	e8 00 00 00 00	 call	 ??0?$allocator@V?$basic_string@DU?$char_traits@D@std@@V?$allocator@D@2@@std@@@std@@QAE@XZ ; std::allocator<std::basic_string<char,std::char_traits<char>,std::allocator<char> > >::allocator<std::basic_string<char,std::char_traits<char>,std::allocator<char> > >
  0001f	8b 4d fc	 mov	 ecx, DWORD PTR _this$[ebp]
  00022	e8 00 00 00 00	 call	 ??0?$_Vector_val@V?$basic_string@DU?$char_traits@D@std@@V?$allocator@D@2@@std@@V?$allocator@V?$basic_string@DU?$char_traits@D@std@@V?$allocator@D@2@@std@@@2@@std@@IAE@V?$allocator@V?$basic_string@DU?$char_traits@D@std@@V?$allocator@D@2@@std@@@1@@Z ; std::_Vector_val<std::basic_string<char,std::char_traits<char>,std::allocator<char> >,std::allocator<std::basic_string<char,std::char_traits<char>,std::allocator<char> > > >::_Vector_val<std::basic_string<char,std::char_traits<char>,std::allocator<char> >,std::allocator<std::basic_string<char,std::char_traits<char>,std::allocator<char> > > >

; 300  : 		_Buy(0);

  00027	6a 00		 push	 0
  00029	8b 4d fc	 mov	 ecx, DWORD PTR _this$[ebp]
  0002c	e8 00 00 00 00	 call	 ?_Buy@?$vector@V?$basic_string@DU?$char_traits@D@std@@V?$allocator@D@2@@std@@V?$allocator@V?$basic_string@DU?$char_traits@D@std@@V?$allocator@D@2@@std@@@2@@std@@IAE_NI@Z ; std::vector<std::basic_string<char,std::char_traits<char>,std::allocator<char> >,std::allocator<std::basic_string<char,std::char_traits<char>,std::allocator<char> > > >::_Buy

; 301  : 		}

  00031	8b 45 fc	 mov	 eax, DWORD PTR _this$[ebp]
  00034	83 c4 08	 add	 esp, 8
  00037	3b ec		 cmp	 ebp, esp
  00039	e8 00 00 00 00	 call	 __RTC_CheckEsp
  0003e	8b e5		 mov	 esp, ebp
  00040	5d		 pop	 ebp
  00041	c3		 ret	 0
??0?$vector@V?$basic_string@DU?$char_traits@D@std@@V?$allocator@D@2@@std@@V?$allocator@V?$basic_string@DU?$char_traits@D@std@@V?$allocator@D@2@@std@@@2@@std@@QAE@XZ ENDP ; std::vector<std::basic_string<char,std::char_traits<char>,std::allocator<char> >,std::allocator<std::basic_string<char,std::char_traits<char>,std::allocator<char> > > >::vector<std::basic_string<char,std::char_traits<char>,std::allocator<char> >,std::allocator<std::basic_string<char,std::char_traits<char>,std::allocator<char> > > >
_TEXT	ENDS
PUBLIC	?_Tidy@?$vector@V?$basic_string@DU?$char_traits@D@std@@V?$allocator@D@2@@std@@V?$allocator@V?$basic_string@DU?$char_traits@D@std@@V?$allocator@D@2@@std@@@2@@std@@IAEXXZ ; std::vector<std::basic_string<char,std::char_traits<char>,std::allocator<char> >,std::allocator<std::basic_string<char,std::char_traits<char>,std::allocator<char> > > >::_Tidy
; Function compile flags: /Odt /RTCsu
;	COMDAT ??1?$vector@V?$basic_string@DU?$char_traits@D@std@@V?$allocator@D@2@@std@@V?$allocator@V?$basic_string@DU?$char_traits@D@std@@V?$allocator@D@2@@std@@@2@@std@@QAE@XZ
_TEXT	SEGMENT
_this$ = -4						; size = 4
??1?$vector@V?$basic_string@DU?$char_traits@D@std@@V?$allocator@D@2@@std@@V?$allocator@V?$basic_string@DU?$char_traits@D@std@@V?$allocator@D@2@@std@@@2@@std@@QAE@XZ PROC NEAR ; std::vector<std::basic_string<char,std::char_traits<char>,std::allocator<char> >,std::allocator<std::basic_string<char,std::char_traits<char>,std::allocator<char> > > >::~vector<std::basic_string<char,std::char_traits<char>,std::allocator<char> >,std::allocator<std::basic_string<char,std::char_traits<char>,std::allocator<char> > > >, COMDAT
; _this$ = ecx

; 387  : 		{	// destroy the object

  00000	55		 push	 ebp
  00001	8b ec		 mov	 ebp, esp
  00003	51		 push	 ecx
  00004	c7 45 fc cc cc
	cc cc		 mov	 DWORD PTR [ebp-4], -858993460 ; ccccccccH
  0000b	89 4d fc	 mov	 DWORD PTR _this$[ebp], ecx

; 388  : 		_Tidy();

  0000e	8b 4d fc	 mov	 ecx, DWORD PTR _this$[ebp]
  00011	e8 00 00 00 00	 call	 ?_Tidy@?$vector@V?$basic_string@DU?$char_traits@D@std@@V?$allocator@D@2@@std@@V?$allocator@V?$basic_string@DU?$char_traits@D@std@@V?$allocator@D@2@@std@@@2@@std@@IAEXXZ ; std::vector<std::basic_string<char,std::char_traits<char>,std::allocator<char> >,std::allocator<std::basic_string<char,std::char_traits<char>,std::allocator<char> > > >::_Tidy

; 389  : 		}

  00016	83 c4 04	 add	 esp, 4
  00019	3b ec		 cmp	 ebp, esp
  0001b	e8 00 00 00 00	 call	 __RTC_CheckEsp
  00020	8b e5		 mov	 esp, ebp
  00022	5d		 pop	 ebp
  00023	c3		 ret	 0
??1?$vector@V?$basic_string@DU?$char_traits@D@std@@V?$allocator@D@2@@std@@V?$allocator@V?$basic_string@DU?$char_traits@D@std@@V?$allocator@D@2@@std@@@2@@std@@QAE@XZ ENDP ; std::vector<std::basic_string<char,std::char_traits<char>,std::allocator<char> >,std::allocator<std::basic_string<char,std::char_traits<char>,std::allocator<char> > > >::~vector<std::basic_string<char,std::char_traits<char>,std::allocator<char> >,std::allocator<std::basic_string<char,std::char_traits<char>,std::allocator<char> > > >
_TEXT	ENDS
PUBLIC	??0iterator@?$vector@UOneSubject@@V?$allocator@UOneSubject@@@std@@@std@@QAE@PAUOneSubject@@@Z ; std::vector<OneSubject,std::allocator<OneSubject> >::iterator::iterator
; Function compile flags: /Odt /RTCsu
;	COMDAT ?begin@?$vector@UOneSubject@@V?$allocator@UOneSubject@@@std@@@std@@QAE?AViterator@12@XZ
_TEXT	SEGMENT
_this$ = -4						; size = 4
___$ReturnUdt$ = 8					; size = 4
?begin@?$vector@UOneSubject@@V?$allocator@UOneSubject@@@std@@@std@@QAE?AViterator@12@XZ PROC NEAR ; std::vector<OneSubject,std::allocator<OneSubject> >::begin, COMDAT
; _this$ = ecx

; 462  : 		{	// return iterator for beginning of mutable sequence

  00000	55		 push	 ebp
  00001	8b ec		 mov	 ebp, esp
  00003	51		 push	 ecx
  00004	c7 45 fc cc cc
	cc cc		 mov	 DWORD PTR [ebp-4], -858993460 ; ccccccccH
  0000b	89 4d fc	 mov	 DWORD PTR _this$[ebp], ecx

; 463  : 		return (iterator(_Myfirst));

  0000e	8b 45 fc	 mov	 eax, DWORD PTR _this$[ebp]
  00011	8b 48 04	 mov	 ecx, DWORD PTR [eax+4]
  00014	51		 push	 ecx
  00015	8b 4d 08	 mov	 ecx, DWORD PTR ___$ReturnUdt$[ebp]
  00018	e8 00 00 00 00	 call	 ??0iterator@?$vector@UOneSubject@@V?$allocator@UOneSubject@@@std@@@std@@QAE@PAUOneSubject@@@Z ; std::vector<OneSubject,std::allocator<OneSubject> >::iterator::iterator
  0001d	8b 45 08	 mov	 eax, DWORD PTR ___$ReturnUdt$[ebp]

; 464  : 		}

  00020	83 c4 04	 add	 esp, 4
  00023	3b ec		 cmp	 ebp, esp
  00025	e8 00 00 00 00	 call	 __RTC_CheckEsp
  0002a	8b e5		 mov	 esp, ebp
  0002c	5d		 pop	 ebp
  0002d	c2 04 00	 ret	 4
?begin@?$vector@UOneSubject@@V?$allocator@UOneSubject@@@std@@@std@@QAE?AViterator@12@XZ ENDP ; std::vector<OneSubject,std::allocator<OneSubject> >::begin
; Function compile flags: /Odt /RTCsu
; File d:\program files (x86)\microsoft visual studio .net 2003\vc7\include\xmemory
_TEXT	ENDS
;	COMDAT ??0?$allocator@V?$basic_string@DU?$char_traits@D@std@@V?$allocator@D@2@@std@@@std@@QAE@XZ
_TEXT	SEGMENT
_this$ = -4						; size = 4
??0?$allocator@V?$basic_string@DU?$char_traits@D@std@@V?$allocator@D@2@@std@@@std@@QAE@XZ PROC NEAR ; std::allocator<std::basic_string<char,std::char_traits<char>,std::allocator<char> > >::allocator<std::basic_string<char,std::char_traits<char>,std::allocator<char> > >, COMDAT
; _this$ = ecx

; 111  : 	allocator()

  00000	55		 push	 ebp
  00001	8b ec		 mov	 ebp, esp
  00003	51		 push	 ecx
  00004	c7 45 fc cc cc
	cc cc		 mov	 DWORD PTR [ebp-4], -858993460 ; ccccccccH
  0000b	89 4d fc	 mov	 DWORD PTR _this$[ebp], ecx

; 112  : 		{	// construct default allocator (do nothing)
; 113  : 		}

  0000e	8b 45 fc	 mov	 eax, DWORD PTR _this$[ebp]
  00011	8b e5		 mov	 esp, ebp
  00013	5d		 pop	 ebp
  00014	c3		 ret	 0
??0?$allocator@V?$basic_string@DU?$char_traits@D@std@@V?$allocator@D@2@@std@@@std@@QAE@XZ ENDP ; std::allocator<std::basic_string<char,std::char_traits<char>,std::allocator<char> > >::allocator<std::basic_string<char,std::char_traits<char>,std::allocator<char> > >
; Function compile flags: /Odt /RTCsu
; File d:\program files (x86)\microsoft visual studio .net 2003\vc7\include\vector
_TEXT	ENDS
;	COMDAT ?capacity@?$vector@PAVIChangeSkinEventListener@@V?$allocator@PAVIChangeSkinEventListener@@@std@@@std@@QBEIXZ
_TEXT	SEGMENT
tv70 = -8						; size = 4
_this$ = -4						; size = 4
?capacity@?$vector@PAVIChangeSkinEventListener@@V?$allocator@PAVIChangeSkinEventListener@@@std@@@std@@QBEIXZ PROC NEAR ; std::vector<IChangeSkinEventListener *,std::allocator<IChangeSkinEventListener *> >::capacity, COMDAT
; _this$ = ecx

; 457  : 		{	// return current length of allocated storage

  00000	55		 push	 ebp
  00001	8b ec		 mov	 ebp, esp
  00003	83 ec 08	 sub	 esp, 8
  00006	c7 45 f8 cc cc
	cc cc		 mov	 DWORD PTR [ebp-8], -858993460 ; ccccccccH
  0000d	c7 45 fc cc cc
	cc cc		 mov	 DWORD PTR [ebp-4], -858993460 ; ccccccccH
  00014	89 4d fc	 mov	 DWORD PTR _this$[ebp], ecx

; 458  : 		return (_Myfirst == 0 ? 0 : _Myend - _Myfirst);

  00017	8b 45 fc	 mov	 eax, DWORD PTR _this$[ebp]
  0001a	83 78 04 00	 cmp	 DWORD PTR [eax+4], 0
  0001e	75 09		 jne	 SHORT $L195389
  00020	c7 45 f8 00 00
	00 00		 mov	 DWORD PTR tv70[ebp], 0
  00027	eb 12		 jmp	 SHORT $L195390
$L195389:
  00029	8b 4d fc	 mov	 ecx, DWORD PTR _this$[ebp]
  0002c	8b 55 fc	 mov	 edx, DWORD PTR _this$[ebp]
  0002f	8b 41 0c	 mov	 eax, DWORD PTR [ecx+12]
  00032	2b 42 04	 sub	 eax, DWORD PTR [edx+4]
  00035	c1 f8 02	 sar	 eax, 2
  00038	89 45 f8	 mov	 DWORD PTR tv70[ebp], eax
$L195390:
  0003b	8b 45 f8	 mov	 eax, DWORD PTR tv70[ebp]

; 459  : 		}

  0003e	8b e5		 mov	 esp, ebp
  00040	5d		 pop	 ebp
  00041	c3		 ret	 0
?capacity@?$vector@PAVIChangeSkinEventListener@@V?$allocator@PAVIChangeSkinEventListener@@@std@@@std@@QBEIXZ ENDP ; std::vector<IChangeSkinEventListener *,std::allocator<IChangeSkinEventListener *> >::capacity
_TEXT	ENDS
PUBLIC	??Giterator@?$vector@PAVIChangeSkinEventListener@@V?$allocator@PAVIChangeSkinEventListener@@@std@@@std@@QBEHABVconst_iterator@12@@Z ; std::vector<IChangeSkinEventListener *,std::allocator<IChangeSkinEventListener *> >::iterator::operator-
PUBLIC	?_Insert_n@?$vector@PAVIChangeSkinEventListener@@V?$allocator@PAVIChangeSkinEventListener@@@std@@@std@@IAEXViterator@12@IABQAVIChangeSkinEventListener@@@Z ; std::vector<IChangeSkinEventListener *,std::allocator<IChangeSkinEventListener *> >::_Insert_n
; Function compile flags: /Odt /RTCsu
;	COMDAT ?insert@?$vector@PAVIChangeSkinEventListener@@V?$allocator@PAVIChangeSkinEventListener@@@std@@@std@@QAE?AViterator@12@V312@ABQAVIChangeSkinEventListener@@@Z
_TEXT	SEGMENT
tv73 = -20						; size = 4
$T195395 = -16						; size = 4
$T195392 = -12						; size = 4
__Off$ = -8						; size = 4
_this$ = -4						; size = 4
___$ReturnUdt$ = 8					; size = 4
__Where$ = 12						; size = 4
__Val$ = 16						; size = 4
?insert@?$vector@PAVIChangeSkinEventListener@@V?$allocator@PAVIChangeSkinEventListener@@@std@@@std@@QAE?AViterator@12@V312@ABQAVIChangeSkinEventListener@@@Z PROC NEAR ; std::vector<IChangeSkinEventListener *,std::allocator<IChangeSkinEventListener *> >::insert, COMDAT
; _this$ = ecx

; 620  : 		{	// insert _Val at _Where

  00000	55		 push	 ebp
  00001	8b ec		 mov	 ebp, esp
  00003	83 ec 14	 sub	 esp, 20			; 00000014H
  00006	b8 cc cc cc cc	 mov	 eax, -858993460		; ccccccccH
  0000b	89 45 ec	 mov	 DWORD PTR [ebp-20], eax
  0000e	89 45 f0	 mov	 DWORD PTR [ebp-16], eax
  00011	89 45 f4	 mov	 DWORD PTR [ebp-12], eax
  00014	89 45 f8	 mov	 DWORD PTR [ebp-8], eax
  00017	89 45 fc	 mov	 DWORD PTR [ebp-4], eax
  0001a	89 4d fc	 mov	 DWORD PTR _this$[ebp], ecx

; 621  : 		size_type _Off = size() == 0 ? 0 : _Where - begin();

  0001d	8b 4d fc	 mov	 ecx, DWORD PTR _this$[ebp]
  00020	e8 00 00 00 00	 call	 ?size@?$vector@PAVIChangeSkinEventListener@@V?$allocator@PAVIChangeSkinEventListener@@@std@@@std@@QBEIXZ ; std::vector<IChangeSkinEventListener *,std::allocator<IChangeSkinEventListener *> >::size
  00025	85 c0		 test	 eax, eax
  00027	75 09		 jne	 SHORT $L195393
  00029	c7 45 ec 00 00
	00 00		 mov	 DWORD PTR tv73[ebp], 0
  00030	eb 18		 jmp	 SHORT $L195394
$L195393:
  00032	8d 45 f4	 lea	 eax, DWORD PTR $T195392[ebp]
  00035	50		 push	 eax
  00036	8b 4d fc	 mov	 ecx, DWORD PTR _this$[ebp]
  00039	e8 00 00 00 00	 call	 ?begin@?$vector@PAVIChangeSkinEventListener@@V?$allocator@PAVIChangeSkinEventListener@@@std@@@std@@QAE?AViterator@12@XZ ; std::vector<IChangeSkinEventListener *,std::allocator<IChangeSkinEventListener *> >::begin
  0003e	50		 push	 eax
  0003f	8d 4d 0c	 lea	 ecx, DWORD PTR __Where$[ebp]
  00042	e8 00 00 00 00	 call	 ??Giterator@?$vector@PAVIChangeSkinEventListener@@V?$allocator@PAVIChangeSkinEventListener@@@std@@@std@@QBEHABVconst_iterator@12@@Z ; std::vector<IChangeSkinEventListener *,std::allocator<IChangeSkinEventListener *> >::iterator::operator-
  00047	89 45 ec	 mov	 DWORD PTR tv73[ebp], eax
$L195394:
  0004a	8b 4d ec	 mov	 ecx, DWORD PTR tv73[ebp]
  0004d	89 4d f8	 mov	 DWORD PTR __Off$[ebp], ecx

; 622  : 		_Insert_n(_Where, (size_type)1, _Val);

  00050	8b 55 10	 mov	 edx, DWORD PTR __Val$[ebp]
  00053	52		 push	 edx
  00054	6a 01		 push	 1
  00056	8b 45 0c	 mov	 eax, DWORD PTR __Where$[ebp]
  00059	50		 push	 eax
  0005a	8b 4d fc	 mov	 ecx, DWORD PTR _this$[ebp]
  0005d	e8 00 00 00 00	 call	 ?_Insert_n@?$vector@PAVIChangeSkinEventListener@@V?$allocator@PAVIChangeSkinEventListener@@@std@@@std@@IAEXViterator@12@IABQAVIChangeSkinEventListener@@@Z ; std::vector<IChangeSkinEventListener *,std::allocator<IChangeSkinEventListener *> >::_Insert_n

; 623  : 		return (begin() + _Off);

  00062	8b 4d f8	 mov	 ecx, DWORD PTR __Off$[ebp]
  00065	51		 push	 ecx
  00066	8b 55 08	 mov	 edx, DWORD PTR ___$ReturnUdt$[ebp]
  00069	52		 push	 edx
  0006a	8d 45 f0	 lea	 eax, DWORD PTR $T195395[ebp]
  0006d	50		 push	 eax
  0006e	8b 4d fc	 mov	 ecx, DWORD PTR _this$[ebp]
  00071	e8 00 00 00 00	 call	 ?begin@?$vector@PAVIChangeSkinEventListener@@V?$allocator@PAVIChangeSkinEventListener@@@std@@@std@@QAE?AViterator@12@XZ ; std::vector<IChangeSkinEventListener *,std::allocator<IChangeSkinEventListener *> >::begin
  00076	8b c8		 mov	 ecx, eax
  00078	e8 00 00 00 00	 call	 ??Hiterator@?$vector@PAVIChangeSkinEventListener@@V?$allocator@PAVIChangeSkinEventListener@@@std@@@std@@QBE?AV012@H@Z ; std::vector<IChangeSkinEventListener *,std::allocator<IChangeSkinEventListener *> >::iterator::operator+
  0007d	8b 45 08	 mov	 eax, DWORD PTR ___$ReturnUdt$[ebp]

; 624  : 		}

  00080	83 c4 14	 add	 esp, 20			; 00000014H
  00083	3b ec		 cmp	 ebp, esp
  00085	e8 00 00 00 00	 call	 __RTC_CheckEsp
  0008a	8b e5		 mov	 esp, ebp
  0008c	5d		 pop	 ebp
  0008d	c2 0c 00	 ret	 12			; 0000000cH
?insert@?$vector@PAVIChangeSkinEventListener@@V?$allocator@PAVIChangeSkinEventListener@@@std@@@std@@QAE?AViterator@12@V312@ABQAVIChangeSkinEventListener@@@Z ENDP ; std::vector<IChangeSkinEventListener *,std::allocator<IChangeSkinEventListener *> >::insert
_TEXT	ENDS
PUBLIC	?allocate@?$allocator@PAVIChangeSkinEventListener@@@std@@QAEPAPAVIChangeSkinEventListener@@I@Z ; std::allocator<IChangeSkinEventListener *>::allocate
PUBLIC	?max_size@?$vector@PAVIChangeSkinEventListener@@V?$allocator@PAVIChangeSkinEventListener@@@std@@@std@@QBEIXZ ; std::vector<IChangeSkinEventListener *,std::allocator<IChangeSkinEventListener *> >::max_size
PUBLIC	?_Xlen@?$vector@PAVIChangeSkinEventListener@@V?$allocator@PAVIChangeSkinEventListener@@@std@@@std@@IBEXXZ ; std::vector<IChangeSkinEventListener *,std::allocator<IChangeSkinEventListener *> >::_Xlen
; Function compile flags: /Odt /RTCsu
;	COMDAT ?_Buy@?$vector@PAVIChangeSkinEventListener@@V?$allocator@PAVIChangeSkinEventListener@@@std@@@std@@IAE_NI@Z
_TEXT	SEGMENT
_this$ = -4						; size = 4
__Capacity$ = 8						; size = 4
?_Buy@?$vector@PAVIChangeSkinEventListener@@V?$allocator@PAVIChangeSkinEventListener@@@std@@@std@@IAE_NI@Z PROC NEAR ; std::vector<IChangeSkinEventListener *,std::allocator<IChangeSkinEventListener *> >::_Buy, COMDAT
; _this$ = ecx

; 770  : 		{	// allocate array with _Capacity elements

  00000	55		 push	 ebp
  00001	8b ec		 mov	 ebp, esp
  00003	51		 push	 ecx
  00004	c7 45 fc cc cc
	cc cc		 mov	 DWORD PTR [ebp-4], -858993460 ; ccccccccH
  0000b	89 4d fc	 mov	 DWORD PTR _this$[ebp], ecx

; 771  : 		_Myfirst = 0, _Mylast = 0, _Myend = 0;

  0000e	8b 45 fc	 mov	 eax, DWORD PTR _this$[ebp]
  00011	c7 40 04 00 00
	00 00		 mov	 DWORD PTR [eax+4], 0
  00018	8b 4d fc	 mov	 ecx, DWORD PTR _this$[ebp]
  0001b	c7 41 08 00 00
	00 00		 mov	 DWORD PTR [ecx+8], 0
  00022	8b 55 fc	 mov	 edx, DWORD PTR _this$[ebp]
  00025	c7 42 0c 00 00
	00 00		 mov	 DWORD PTR [edx+12], 0

; 772  : 		if (_Capacity == 0)

  0002c	83 7d 08 00	 cmp	 DWORD PTR __Capacity$[ebp], 0
  00030	75 04		 jne	 SHORT $L193315

; 773  : 			return (false);

  00032	32 c0		 xor	 al, al
  00034	eb 49		 jmp	 SHORT $L193314
$L193315:

; 774  : 		else if (max_size() < _Capacity)

  00036	8b 4d fc	 mov	 ecx, DWORD PTR _this$[ebp]
  00039	e8 00 00 00 00	 call	 ?max_size@?$vector@PAVIChangeSkinEventListener@@V?$allocator@PAVIChangeSkinEventListener@@@std@@@std@@QBEIXZ ; std::vector<IChangeSkinEventListener *,std::allocator<IChangeSkinEventListener *> >::max_size
  0003e	3b 45 08	 cmp	 eax, DWORD PTR __Capacity$[ebp]
  00041	73 0a		 jae	 SHORT $L193317

; 775  : 			_Xlen();	// result too long

  00043	8b 4d fc	 mov	 ecx, DWORD PTR _this$[ebp]
  00046	e8 00 00 00 00	 call	 ?_Xlen@?$vector@PAVIChangeSkinEventListener@@V?$allocator@PAVIChangeSkinEventListener@@@std@@@std@@IBEXXZ ; std::vector<IChangeSkinEventListener *,std::allocator<IChangeSkinEventListener *> >::_Xlen

; 776  : 		else

  0004b	eb 30		 jmp	 SHORT $L193316
$L193317:

; 777  : 			{	// nonempty array, allocate storage
; 778  : 			_Myfirst = this->_Alval.allocate(_Capacity);

  0004d	8b 45 08	 mov	 eax, DWORD PTR __Capacity$[ebp]
  00050	50		 push	 eax
  00051	8b 4d fc	 mov	 ecx, DWORD PTR _this$[ebp]
  00054	e8 00 00 00 00	 call	 ?allocate@?$allocator@PAVIChangeSkinEventListener@@@std@@QAEPAPAVIChangeSkinEventListener@@I@Z ; std::allocator<IChangeSkinEventListener *>::allocate
  00059	8b 4d fc	 mov	 ecx, DWORD PTR _this$[ebp]
  0005c	89 41 04	 mov	 DWORD PTR [ecx+4], eax

; 779  : 			_Mylast = _Myfirst;

  0005f	8b 55 fc	 mov	 edx, DWORD PTR _this$[ebp]
  00062	8b 45 fc	 mov	 eax, DWORD PTR _this$[ebp]
  00065	8b 48 04	 mov	 ecx, DWORD PTR [eax+4]
  00068	89 4a 08	 mov	 DWORD PTR [edx+8], ecx

; 780  : 			_Myend = _Myfirst + _Capacity;

  0006b	8b 55 fc	 mov	 edx, DWORD PTR _this$[ebp]
  0006e	8b 42 04	 mov	 eax, DWORD PTR [edx+4]
  00071	8b 4d 08	 mov	 ecx, DWORD PTR __Capacity$[ebp]
  00074	8d 14 88	 lea	 edx, DWORD PTR [eax+ecx*4]
  00077	8b 45 fc	 mov	 eax, DWORD PTR _this$[ebp]
  0007a	89 50 0c	 mov	 DWORD PTR [eax+12], edx
$L193316:

; 781  : 			}
; 782  : 		return (true);

  0007d	b0 01		 mov	 al, 1
$L193314:

; 783  : 		}

  0007f	83 c4 04	 add	 esp, 4
  00082	3b ec		 cmp	 ebp, esp
  00084	e8 00 00 00 00	 call	 __RTC_CheckEsp
  00089	8b e5		 mov	 esp, ebp
  0008b	5d		 pop	 ebp
  0008c	c2 04 00	 ret	 4
?_Buy@?$vector@PAVIChangeSkinEventListener@@V?$allocator@PAVIChangeSkinEventListener@@@std@@@std@@IAE_NI@Z ENDP ; std::vector<IChangeSkinEventListener *,std::allocator<IChangeSkinEventListener *> >::_Buy
_TEXT	ENDS
PUBLIC	??$_Destroy_range@PAVIChangeSkinEventListener@@V?$allocator@PAVIChangeSkinEventListener@@@std@@@std@@YAXPAPAVIChangeSkinEventListener@@0AAV?$allocator@PAVIChangeSkinEventListener@@@0@@Z ; std::_Destroy_range<IChangeSkinEventListener *,std::allocator<IChangeSkinEventListener *> >
; Function compile flags: /Odt /RTCsu
;	COMDAT ?_Destroy@?$vector@PAVIChangeSkinEventListener@@V?$allocator@PAVIChangeSkinEventListener@@@std@@@std@@IAEXPAPAVIChangeSkinEventListener@@0@Z
_TEXT	SEGMENT
_this$ = -4						; size = 4
__First$ = 8						; size = 4
__Last$ = 12						; size = 4
?_Destroy@?$vector@PAVIChangeSkinEventListener@@V?$allocator@PAVIChangeSkinEventListener@@@std@@@std@@IAEXPAPAVIChangeSkinEventListener@@0@Z PROC NEAR ; std::vector<IChangeSkinEventListener *,std::allocator<IChangeSkinEventListener *> >::_Destroy, COMDAT
; _this$ = ecx

; 786  : 		{	// destroy [_First, _Last) using allocator

  00000	55		 push	 ebp
  00001	8b ec		 mov	 ebp, esp
  00003	51		 push	 ecx
  00004	c7 45 fc cc cc
	cc cc		 mov	 DWORD PTR [ebp-4], -858993460 ; ccccccccH
  0000b	89 4d fc	 mov	 DWORD PTR _this$[ebp], ecx

; 787  : 		_Destroy_range(_First, _Last, this->_Alval);

  0000e	8b 45 fc	 mov	 eax, DWORD PTR _this$[ebp]
  00011	50		 push	 eax
  00012	8b 4d 0c	 mov	 ecx, DWORD PTR __Last$[ebp]
  00015	51		 push	 ecx
  00016	8b 55 08	 mov	 edx, DWORD PTR __First$[ebp]
  00019	52		 push	 edx
  0001a	e8 00 00 00 00	 call	 ??$_Destroy_range@PAVIChangeSkinEventListener@@V?$allocator@PAVIChangeSkinEventListener@@@std@@@std@@YAXPAPAVIChangeSkinEventListener@@0AAV?$allocator@PAVIChangeSkinEventListener@@@0@@Z ; std::_Destroy_range<IChangeSkinEventListener *,std::allocator<IChangeSkinEventListener *> >
  0001f	83 c4 0c	 add	 esp, 12			; 0000000cH

; 788  : 		}

  00022	83 c4 04	 add	 esp, 4
  00025	3b ec		 cmp	 ebp, esp
  00027	e8 00 00 00 00	 call	 __RTC_CheckEsp
  0002c	8b e5		 mov	 esp, ebp
  0002e	5d		 pop	 ebp
  0002f	c2 08 00	 ret	 8
?_Destroy@?$vector@PAVIChangeSkinEventListener@@V?$allocator@PAVIChangeSkinEventListener@@@std@@@std@@IAEXPAPAVIChangeSkinEventListener@@0@Z ENDP ; std::vector<IChangeSkinEventListener *,std::allocator<IChangeSkinEventListener *> >::_Destroy
_TEXT	ENDS
PUBLIC	?deallocate@?$allocator@PAVIChangeSkinEventListener@@@std@@QAEXPAPAVIChangeSkinEventListener@@I@Z ; std::allocator<IChangeSkinEventListener *>::deallocate
; Function compile flags: /Odt /RTCsu
;	COMDAT ?_Tidy@?$vector@PAVIChangeSkinEventListener@@V?$allocator@PAVIChangeSkinEventListener@@@std@@@std@@IAEXXZ
_TEXT	SEGMENT
_this$ = -4						; size = 4
?_Tidy@?$vector@PAVIChangeSkinEventListener@@V?$allocator@PAVIChangeSkinEventListener@@@std@@@std@@IAEXXZ PROC NEAR ; std::vector<IChangeSkinEventListener *,std::allocator<IChangeSkinEventListener *> >::_Tidy, COMDAT
; _this$ = ecx

; 791  : 		{	// free all storage

  00000	55		 push	 ebp
  00001	8b ec		 mov	 ebp, esp
  00003	51		 push	 ecx
  00004	c7 45 fc cc cc
	cc cc		 mov	 DWORD PTR [ebp-4], -858993460 ; ccccccccH
  0000b	89 4d fc	 mov	 DWORD PTR _this$[ebp], ecx

; 792  : 		if (_Myfirst != 0)

  0000e	8b 45 fc	 mov	 eax, DWORD PTR _this$[ebp]
  00011	83 78 04 00	 cmp	 DWORD PTR [eax+4], 0
  00015	74 35		 je	 SHORT $L193330

; 793  : 			{	// something to free, destroy and deallocate it
; 794  : 			_Destroy(_Myfirst, _Mylast);

  00017	8b 4d fc	 mov	 ecx, DWORD PTR _this$[ebp]
  0001a	8b 51 08	 mov	 edx, DWORD PTR [ecx+8]
  0001d	52		 push	 edx
  0001e	8b 45 fc	 mov	 eax, DWORD PTR _this$[ebp]
  00021	8b 48 04	 mov	 ecx, DWORD PTR [eax+4]
  00024	51		 push	 ecx
  00025	8b 4d fc	 mov	 ecx, DWORD PTR _this$[ebp]
  00028	e8 00 00 00 00	 call	 ?_Destroy@?$vector@PAVIChangeSkinEventListener@@V?$allocator@PAVIChangeSkinEventListener@@@std@@@std@@IAEXPAPAVIChangeSkinEventListener@@0@Z ; std::vector<IChangeSkinEventListener *,std::allocator<IChangeSkinEventListener *> >::_Destroy

; 795  : 			this->_Alval.deallocate(_Myfirst, _Myend - _Myfirst);

  0002d	8b 55 fc	 mov	 edx, DWORD PTR _this$[ebp]
  00030	8b 45 fc	 mov	 eax, DWORD PTR _this$[ebp]
  00033	8b 4a 0c	 mov	 ecx, DWORD PTR [edx+12]
  00036	2b 48 04	 sub	 ecx, DWORD PTR [eax+4]
  00039	c1 f9 02	 sar	 ecx, 2
  0003c	51		 push	 ecx
  0003d	8b 55 fc	 mov	 edx, DWORD PTR _this$[ebp]
  00040	8b 42 04	 mov	 eax, DWORD PTR [edx+4]
  00043	50		 push	 eax
  00044	8b 4d fc	 mov	 ecx, DWORD PTR _this$[ebp]
  00047	e8 00 00 00 00	 call	 ?deallocate@?$allocator@PAVIChangeSkinEventListener@@@std@@QAEXPAPAVIChangeSkinEventListener@@I@Z ; std::allocator<IChangeSkinEventListener *>::deallocate
$L193330:

; 796  : 			}
; 797  : 		_Myfirst = 0, _Mylast = 0, _Myend = 0;

  0004c	8b 4d fc	 mov	 ecx, DWORD PTR _this$[ebp]
  0004f	c7 41 04 00 00
	00 00		 mov	 DWORD PTR [ecx+4], 0
  00056	8b 55 fc	 mov	 edx, DWORD PTR _this$[ebp]
  00059	c7 42 08 00 00
	00 00		 mov	 DWORD PTR [edx+8], 0
  00060	8b 45 fc	 mov	 eax, DWORD PTR _this$[ebp]
  00063	c7 40 0c 00 00
	00 00		 mov	 DWORD PTR [eax+12], 0

; 798  : 		}

  0006a	83 c4 04	 add	 esp, 4
  0006d	3b ec		 cmp	 ebp, esp
  0006f	e8 00 00 00 00	 call	 __RTC_CheckEsp
  00074	8b e5		 mov	 esp, ebp
  00076	5d		 pop	 ebp
  00077	c3		 ret	 0
?_Tidy@?$vector@PAVIChangeSkinEventListener@@V?$allocator@PAVIChangeSkinEventListener@@@std@@@std@@IAEXXZ ENDP ; std::vector<IChangeSkinEventListener *,std::allocator<IChangeSkinEventListener *> >::_Tidy
_TEXT	ENDS
PUBLIC	??$_Uninitialized_fill_n@PAPAVIChangeSkinEventListener@@IPAV1@V?$allocator@PAVIChangeSkinEventListener@@@std@@@std@@YAXPAPAVIChangeSkinEventListener@@IABQAV1@AAV?$allocator@PAVIChangeSkinEventListener@@@0@@Z ; std::_Uninitialized_fill_n<IChangeSkinEventListener * *,unsigned int,IChangeSkinEventListener *,std::allocator<IChangeSkinEventListener *> >
; Function compile flags: /Odt /RTCsu
;	COMDAT ?_Ufill@?$vector@PAVIChangeSkinEventListener@@V?$allocator@PAVIChangeSkinEventListener@@@std@@@std@@IAEPAPAVIChangeSkinEventListener@@PAPAV3@IABQAV3@@Z
_TEXT	SEGMENT
_this$ = -4						; size = 4
__Ptr$ = 8						; size = 4
__Count$ = 12						; size = 4
__Val$ = 16						; size = 4
?_Ufill@?$vector@PAVIChangeSkinEventListener@@V?$allocator@PAVIChangeSkinEventListener@@@std@@@std@@IAEPAPAVIChangeSkinEventListener@@PAPAV3@IABQAV3@@Z PROC NEAR ; std::vector<IChangeSkinEventListener *,std::allocator<IChangeSkinEventListener *> >::_Ufill, COMDAT
; _this$ = ecx

; 877  : 		{	// copy initializing _Count * _Val, using allocator

  00000	55		 push	 ebp
  00001	8b ec		 mov	 ebp, esp
  00003	51		 push	 ecx
  00004	c7 45 fc cc cc
	cc cc		 mov	 DWORD PTR [ebp-4], -858993460 ; ccccccccH
  0000b	89 4d fc	 mov	 DWORD PTR _this$[ebp], ecx

; 878  : 		_Uninitialized_fill_n(_Ptr, _Count, _Val, this->_Alval);

  0000e	8b 45 fc	 mov	 eax, DWORD PTR _this$[ebp]
  00011	50		 push	 eax
  00012	8b 4d 10	 mov	 ecx, DWORD PTR __Val$[ebp]
  00015	51		 push	 ecx
  00016	8b 55 0c	 mov	 edx, DWORD PTR __Count$[ebp]
  00019	52		 push	 edx
  0001a	8b 45 08	 mov	 eax, DWORD PTR __Ptr$[ebp]
  0001d	50		 push	 eax
  0001e	e8 00 00 00 00	 call	 ??$_Uninitialized_fill_n@PAPAVIChangeSkinEventListener@@IPAV1@V?$allocator@PAVIChangeSkinEventListener@@@std@@@std@@YAXPAPAVIChangeSkinEventListener@@IABQAV1@AAV?$allocator@PAVIChangeSkinEventListener@@@0@@Z ; std::_Uninitialized_fill_n<IChangeSkinEventListener * *,unsigned int,IChangeSkinEventListener *,std::allocator<IChangeSkinEventListener *> >
  00023	83 c4 10	 add	 esp, 16			; 00000010H

; 879  : 		return (_Ptr + _Count);

  00026	8b 4d 0c	 mov	 ecx, DWORD PTR __Count$[ebp]
  00029	8b 55 08	 mov	 edx, DWORD PTR __Ptr$[ebp]
  0002c	8d 04 8a	 lea	 eax, DWORD PTR [edx+ecx*4]

; 880  : 		}

  0002f	83 c4 04	 add	 esp, 4
  00032	3b ec		 cmp	 ebp, esp
  00034	e8 00 00 00 00	 call	 __RTC_CheckEsp
  00039	8b e5		 mov	 esp, ebp
  0003b	5d		 pop	 ebp
  0003c	c2 0c 00	 ret	 12			; 0000000cH
?_Ufill@?$vector@PAVIChangeSkinEventListener@@V?$allocator@PAVIChangeSkinEventListener@@@std@@@std@@IAEPAPAVIChangeSkinEventListener@@PAPAV3@IABQAV3@@Z ENDP ; std::vector<IChangeSkinEventListener *,std::allocator<IChangeSkinEventListener *> >::_Ufill
_TEXT	ENDS
PUBLIC	??0?$allocator@PAVIChangeSkinEventListener@@@std@@QAE@ABV01@@Z ; std::allocator<IChangeSkinEventListener *>::allocator<IChangeSkinEventListener *>
; Function compile flags: /Odt /RTCsu
;	COMDAT ??0?$_Vector_val@PAVIChangeSkinEventListener@@V?$allocator@PAVIChangeSkinEventListener@@@std@@@std@@IAE@V?$allocator@PAVIChangeSkinEventListener@@@1@@Z
_TEXT	SEGMENT
_this$ = -4						; size = 4
__Al$ = 8						; size = 1
??0?$_Vector_val@PAVIChangeSkinEventListener@@V?$allocator@PAVIChangeSkinEventListener@@@std@@@std@@IAE@V?$allocator@PAVIChangeSkinEventListener@@@1@@Z PROC NEAR ; std::_Vector_val<IChangeSkinEventListener *,std::allocator<IChangeSkinEventListener *> >::_Vector_val<IChangeSkinEventListener *,std::allocator<IChangeSkinEventListener *> >, COMDAT
; _this$ = ecx

; 21   : 		{	// construct allocator from _Al

  00000	55		 push	 ebp
  00001	8b ec		 mov	 ebp, esp
  00003	51		 push	 ecx
  00004	c7 45 fc cc cc
	cc cc		 mov	 DWORD PTR [ebp-4], -858993460 ; ccccccccH
  0000b	89 4d fc	 mov	 DWORD PTR _this$[ebp], ecx
  0000e	8d 45 08	 lea	 eax, DWORD PTR __Al$[ebp]
  00011	50		 push	 eax
  00012	8b 4d fc	 mov	 ecx, DWORD PTR _this$[ebp]
  00015	e8 00 00 00 00	 call	 ??0?$allocator@PAVIChangeSkinEventListener@@@std@@QAE@ABV01@@Z ; std::allocator<IChangeSkinEventListener *>::allocator<IChangeSkinEventListener *>

; 22   : 		}

  0001a	8b 45 fc	 mov	 eax, DWORD PTR _this$[ebp]
  0001d	83 c4 04	 add	 esp, 4
  00020	3b ec		 cmp	 ebp, esp
  00022	e8 00 00 00 00	 call	 __RTC_CheckEsp
  00027	8b e5		 mov	 esp, ebp
  00029	5d		 pop	 ebp
  0002a	c2 04 00	 ret	 4
??0?$_Vector_val@PAVIChangeSkinEventListener@@V?$allocator@PAVIChangeSkinEventListener@@@std@@@std@@IAE@V?$allocator@PAVIChangeSkinEventListener@@@1@@Z ENDP ; std::_Vector_val<IChangeSkinEventListener *,std::allocator<IChangeSkinEventListener *> >::_Vector_val<IChangeSkinEventListener *,std::allocator<IChangeSkinEventListener *> >
; Function compile flags: /Odt /RTCsu
; File d:\program files (x86)\microsoft visual studio .net 2003\vc7\include\xmemory
_TEXT	ENDS
;	COMDAT ??0?$allocator@PAVIChangeSkinEventListener@@@std@@QAE@XZ
_TEXT	SEGMENT
_this$ = -4						; size = 4
??0?$allocator@PAVIChangeSkinEventListener@@@std@@QAE@XZ PROC NEAR ; std::allocator<IChangeSkinEventListener *>::allocator<IChangeSkinEventListener *>, COMDAT
; _this$ = ecx

; 111  : 	allocator()

  00000	55		 push	 ebp
  00001	8b ec		 mov	 ebp, esp
  00003	51		 push	 ecx
  00004	c7 45 fc cc cc
	cc cc		 mov	 DWORD PTR [ebp-4], -858993460 ; ccccccccH
  0000b	89 4d fc	 mov	 DWORD PTR _this$[ebp], ecx

; 112  : 		{	// construct default allocator (do nothing)
; 113  : 		}

  0000e	8b 45 fc	 mov	 eax, DWORD PTR _this$[ebp]
  00011	8b e5		 mov	 esp, ebp
  00013	5d		 pop	 ebp
  00014	c3		 ret	 0
??0?$allocator@PAVIChangeSkinEventListener@@@std@@QAE@XZ ENDP ; std::allocator<IChangeSkinEventListener *>::allocator<IChangeSkinEventListener *>
_TEXT	ENDS
PUBLIC	??0const_iterator@?$vector@PAVIChangeSkinEventListener@@V?$allocator@PAVIChangeSkinEventListener@@@std@@@std@@QAE@PAPAVIChangeSkinEventListener@@@Z ; std::vector<IChangeSkinEventListener *,std::allocator<IChangeSkinEventListener *> >::const_iterator::const_iterator
; Function compile flags: /Odt /RTCsu
; File d:\program files (x86)\microsoft visual studio .net 2003\vc7\include\vector
;	COMDAT ??0iterator@?$vector@PAVIChangeSkinEventListener@@V?$allocator@PAVIChangeSkinEventListener@@@std@@@std@@QAE@PAPAVIChangeSkinEventListener@@@Z
_TEXT	SEGMENT
_this$ = -4						; size = 4
__Ptr$ = 8						; size = 4
??0iterator@?$vector@PAVIChangeSkinEventListener@@V?$allocator@PAVIChangeSkinEventListener@@@std@@@std@@QAE@PAPAVIChangeSkinEventListener@@@Z PROC NEAR ; std::vector<IChangeSkinEventListener *,std::allocator<IChangeSkinEventListener *> >::iterator::iterator, COMDAT
; _this$ = ecx

; 215  : 			{	// construct with pointer _Ptr

  00000	55		 push	 ebp
  00001	8b ec		 mov	 ebp, esp
  00003	51		 push	 ecx
  00004	c7 45 fc cc cc
	cc cc		 mov	 DWORD PTR [ebp-4], -858993460 ; ccccccccH
  0000b	89 4d fc	 mov	 DWORD PTR _this$[ebp], ecx
  0000e	8b 45 08	 mov	 eax, DWORD PTR __Ptr$[ebp]
  00011	50		 push	 eax
  00012	8b 4d fc	 mov	 ecx, DWORD PTR _this$[ebp]
  00015	e8 00 00 00 00	 call	 ??0const_iterator@?$vector@PAVIChangeSkinEventListener@@V?$allocator@PAVIChangeSkinEventListener@@@std@@@std@@QAE@PAPAVIChangeSkinEventListener@@@Z ; std::vector<IChangeSkinEventListener *,std::allocator<IChangeSkinEventListener *> >::const_iterator::const_iterator

; 216  : 			}

  0001a	8b 45 fc	 mov	 eax, DWORD PTR _this$[ebp]
  0001d	83 c4 04	 add	 esp, 4
  00020	3b ec		 cmp	 ebp, esp
  00022	e8 00 00 00 00	 call	 __RTC_CheckEsp
  00027	8b e5		 mov	 esp, ebp
  00029	5d		 pop	 ebp
  0002a	c2 04 00	 ret	 4
??0iterator@?$vector@PAVIChangeSkinEventListener@@V?$allocator@PAVIChangeSkinEventListener@@@std@@@std@@QAE@PAPAVIChangeSkinEventListener@@@Z ENDP ; std::vector<IChangeSkinEventListener *,std::allocator<IChangeSkinEventListener *> >::iterator::iterator
; Function compile flags: /Odt /RTCsu
_TEXT	ENDS
;	COMDAT ??Eiterator@?$vector@PAVIChangeSkinEventListener@@V?$allocator@PAVIChangeSkinEventListener@@@std@@@std@@QAEAAV012@XZ
_TEXT	SEGMENT
_this$ = -4						; size = 4
??Eiterator@?$vector@PAVIChangeSkinEventListener@@V?$allocator@PAVIChangeSkinEventListener@@@std@@@std@@QAEAAV012@XZ PROC NEAR ; std::vector<IChangeSkinEventListener *,std::allocator<IChangeSkinEventListener *> >::iterator::operator++, COMDAT
; _this$ = ecx

; 229  : 			{	// preincrement

  00000	55		 push	 ebp
  00001	8b ec		 mov	 ebp, esp
  00003	51		 push	 ecx
  00004	c7 45 fc cc cc
	cc cc		 mov	 DWORD PTR [ebp-4], -858993460 ; ccccccccH
  0000b	89 4d fc	 mov	 DWORD PTR _this$[ebp], ecx

; 230  : 			++this->_Myptr;

  0000e	8b 45 fc	 mov	 eax, DWORD PTR _this$[ebp]
  00011	8b 08		 mov	 ecx, DWORD PTR [eax]
  00013	83 c1 04	 add	 ecx, 4
  00016	8b 55 fc	 mov	 edx, DWORD PTR _this$[ebp]
  00019	89 0a		 mov	 DWORD PTR [edx], ecx

; 231  : 			return (*this);

  0001b	8b 45 fc	 mov	 eax, DWORD PTR _this$[ebp]

; 232  : 			}

  0001e	8b e5		 mov	 esp, ebp
  00020	5d		 pop	 ebp
  00021	c3		 ret	 0
??Eiterator@?$vector@PAVIChangeSkinEventListener@@V?$allocator@PAVIChangeSkinEventListener@@@std@@@std@@QAEAAV012@XZ ENDP ; std::vector<IChangeSkinEventListener *,std::allocator<IChangeSkinEventListener *> >::iterator::operator++
_TEXT	ENDS
PUBLIC	??Yiterator@?$vector@PAVIChangeSkinEventListener@@V?$allocator@PAVIChangeSkinEventListener@@@std@@@std@@QAEAAV012@H@Z ; std::vector<IChangeSkinEventListener *,std::allocator<IChangeSkinEventListener *> >::iterator::operator+=
; Function compile flags: /Odt /RTCsu
;	COMDAT ??Hiterator@?$vector@PAVIChangeSkinEventListener@@V?$allocator@PAVIChangeSkinEventListener@@@std@@@std@@QBE?AV012@H@Z
_TEXT	SEGMENT
__Tmp$ = -12						; size = 4
_this$ = -4						; size = 4
___$ReturnUdt$ = 8					; size = 4
__Off$ = 12						; size = 4
??Hiterator@?$vector@PAVIChangeSkinEventListener@@V?$allocator@PAVIChangeSkinEventListener@@@std@@@std@@QBE?AV012@H@Z PROC NEAR ; std::vector<IChangeSkinEventListener *,std::allocator<IChangeSkinEventListener *> >::iterator::operator+, COMDAT
; _this$ = ecx

; 261  : 			{	// return this + integer

  00000	55		 push	 ebp
  00001	8b ec		 mov	 ebp, esp
  00003	83 ec 10	 sub	 esp, 16			; 00000010H
  00006	b8 cc cc cc cc	 mov	 eax, -858993460		; ccccccccH
  0000b	89 45 f0	 mov	 DWORD PTR [ebp-16], eax
  0000e	89 45 f4	 mov	 DWORD PTR [ebp-12], eax
  00011	89 45 f8	 mov	 DWORD PTR [ebp-8], eax
  00014	89 45 fc	 mov	 DWORD PTR [ebp-4], eax
  00017	89 4d fc	 mov	 DWORD PTR _this$[ebp], ecx

; 262  : 			iterator _Tmp = *this;

  0001a	8b 45 fc	 mov	 eax, DWORD PTR _this$[ebp]
  0001d	8b 08		 mov	 ecx, DWORD PTR [eax]
  0001f	89 4d f4	 mov	 DWORD PTR __Tmp$[ebp], ecx

; 263  : 			return (_Tmp += _Off);

  00022	8b 55 0c	 mov	 edx, DWORD PTR __Off$[ebp]
  00025	52		 push	 edx
  00026	8d 4d f4	 lea	 ecx, DWORD PTR __Tmp$[ebp]
  00029	e8 00 00 00 00	 call	 ??Yiterator@?$vector@PAVIChangeSkinEventListener@@V?$allocator@PAVIChangeSkinEventListener@@@std@@@std@@QAEAAV012@H@Z ; std::vector<IChangeSkinEventListener *,std::allocator<IChangeSkinEventListener *> >::iterator::operator+=
  0002e	8b 00		 mov	 eax, DWORD PTR [eax]
  00030	8b 4d 08	 mov	 ecx, DWORD PTR ___$ReturnUdt$[ebp]
  00033	89 01		 mov	 DWORD PTR [ecx], eax
  00035	8b 45 08	 mov	 eax, DWORD PTR ___$ReturnUdt$[ebp]

; 264  : 			}

  00038	52		 push	 edx
  00039	8b cd		 mov	 ecx, ebp
  0003b	50		 push	 eax
  0003c	8d 15 00 00 00
	00		 lea	 edx, DWORD PTR $L195407
  00042	e8 00 00 00 00	 call	 @_RTC_CheckStackVars@8
  00047	58		 pop	 eax
  00048	5a		 pop	 edx
  00049	83 c4 10	 add	 esp, 16			; 00000010H
  0004c	3b ec		 cmp	 ebp, esp
  0004e	e8 00 00 00 00	 call	 __RTC_CheckEsp
  00053	8b e5		 mov	 esp, ebp
  00055	5d		 pop	 ebp
  00056	c2 08 00	 ret	 8
$L195407:
  00059	01 00 00 00	 DD	 1
  0005d	00 00 00 00	 DD	 $L195406
$L195406:
  00061	f4 ff ff ff	 DD	 -12			; fffffff4H
  00065	04 00 00 00	 DD	 4
  00069	00 00 00 00	 DD	 $L195405
$L195405:
  0006d	5f		 DB	 95			; 0000005fH
  0006e	54		 DB	 84			; 00000054H
  0006f	6d		 DB	 109			; 0000006dH
  00070	70		 DB	 112			; 00000070H
  00071	00		 DB	 0
??Hiterator@?$vector@PAVIChangeSkinEventListener@@V?$allocator@PAVIChangeSkinEventListener@@@std@@@std@@QBE?AV012@H@Z ENDP ; std::vector<IChangeSkinEventListener *,std::allocator<IChangeSkinEventListener *> >::iterator::operator+
; Function compile flags: /Odt /RTCsu
_TEXT	ENDS
;	COMDAT ??Dconst_iterator@?$vector@PAVIChangeSkinEventListener@@V?$allocator@PAVIChangeSkinEventListener@@@std@@@std@@QBEABQAVIChangeSkinEventListener@@XZ
_TEXT	SEGMENT
_this$ = -4						; size = 4
??Dconst_iterator@?$vector@PAVIChangeSkinEventListener@@V?$allocator@PAVIChangeSkinEventListener@@@std@@@std@@QBEABQAVIChangeSkinEventListener@@XZ PROC NEAR ; std::vector<IChangeSkinEventListener *,std::allocator<IChangeSkinEventListener *> >::const_iterator::operator*, COMDAT
; _this$ = ecx

; 79   : 			{	// return designated object

  00000	55		 push	 ebp
  00001	8b ec		 mov	 ebp, esp
  00003	51		 push	 ecx
  00004	c7 45 fc cc cc
	cc cc		 mov	 DWORD PTR [ebp-4], -858993460 ; ccccccccH
  0000b	89 4d fc	 mov	 DWORD PTR _this$[ebp], ecx

; 80   : 
; 81   : 
; 82   : 			return (*_Myptr);

  0000e	8b 45 fc	 mov	 eax, DWORD PTR _this$[ebp]
  00011	8b 00		 mov	 eax, DWORD PTR [eax]

; 83   : 			}

  00013	8b e5		 mov	 esp, ebp
  00015	5d		 pop	 ebp
  00016	c3		 ret	 0
??Dconst_iterator@?$vector@PAVIChangeSkinEventListener@@V?$allocator@PAVIChangeSkinEventListener@@@std@@@std@@QBEABQAVIChangeSkinEventListener@@XZ ENDP ; std::vector<IChangeSkinEventListener *,std::allocator<IChangeSkinEventListener *> >::const_iterator::operator*
; Function compile flags: /Odt /RTCsu
_TEXT	ENDS
;	COMDAT ??8const_iterator@?$vector@PAVIChangeSkinEventListener@@V?$allocator@PAVIChangeSkinEventListener@@@std@@@std@@QBE_NABV012@@Z
_TEXT	SEGMENT
_this$ = -4						; size = 4
__Right$ = 8						; size = 4
??8const_iterator@?$vector@PAVIChangeSkinEventListener@@V?$allocator@PAVIChangeSkinEventListener@@@std@@@std@@QBE_NABV012@@Z PROC NEAR ; std::vector<IChangeSkinEventListener *,std::allocator<IChangeSkinEventListener *> >::const_iterator::operator==, COMDAT
; _this$ = ecx

; 152  : 			{	// test for iterator equality

  00000	55		 push	 ebp
  00001	8b ec		 mov	 ebp, esp
  00003	51		 push	 ecx
  00004	c7 45 fc cc cc
	cc cc		 mov	 DWORD PTR [ebp-4], -858993460 ; ccccccccH
  0000b	89 4d fc	 mov	 DWORD PTR _this$[ebp], ecx

; 153  : 
; 154  : 
; 155  : 			return (_Myptr == _Right._Myptr);

  0000e	8b 45 fc	 mov	 eax, DWORD PTR _this$[ebp]
  00011	8b 4d 08	 mov	 ecx, DWORD PTR __Right$[ebp]
  00014	8b 00		 mov	 eax, DWORD PTR [eax]
  00016	2b 01		 sub	 eax, DWORD PTR [ecx]
  00018	f7 d8		 neg	 eax
  0001a	1b c0		 sbb	 eax, eax
  0001c	40		 inc	 eax

; 156  : 			}

  0001d	8b e5		 mov	 esp, ebp
  0001f	5d		 pop	 ebp
  00020	c2 04 00	 ret	 4
??8const_iterator@?$vector@PAVIChangeSkinEventListener@@V?$allocator@PAVIChangeSkinEventListener@@@std@@@std@@QBE_NABV012@@Z ENDP ; std::vector<IChangeSkinEventListener *,std::allocator<IChangeSkinEventListener *> >::const_iterator::operator==
_TEXT	ENDS
PUBLIC	?max_size@?$vector@V?$basic_string@DU?$char_traits@D@std@@V?$allocator@D@2@@std@@V?$allocator@V?$basic_string@DU?$char_traits@D@std@@V?$allocator@D@2@@std@@@2@@std@@QBEIXZ ; std::vector<std::basic_string<char,std::char_traits<char>,std::allocator<char> >,std::allocator<std::basic_string<char,std::char_traits<char>,std::allocator<char> > > >::max_size
PUBLIC	?_Xlen@?$vector@V?$basic_string@DU?$char_traits@D@std@@V?$allocator@D@2@@std@@V?$allocator@V?$basic_string@DU?$char_traits@D@std@@V?$allocator@D@2@@std@@@2@@std@@IBEXXZ ; std::vector<std::basic_string<char,std::char_traits<char>,std::allocator<char> >,std::allocator<std::basic_string<char,std::char_traits<char>,std::allocator<char> > > >::_Xlen
PUBLIC	?allocate@?$allocator@V?$basic_string@DU?$char_traits@D@std@@V?$allocator@D@2@@std@@@std@@QAEPAV?$basic_string@DU?$char_traits@D@std@@V?$allocator@D@2@@2@I@Z ; std::allocator<std::basic_string<char,std::char_traits<char>,std::allocator<char> > >::allocate
; Function compile flags: /Odt /RTCsu
;	COMDAT ?_Buy@?$vector@V?$basic_string@DU?$char_traits@D@std@@V?$allocator@D@2@@std@@V?$allocator@V?$basic_string@DU?$char_traits@D@std@@V?$allocator@D@2@@std@@@2@@std@@IAE_NI@Z
_TEXT	SEGMENT
_this$ = -4						; size = 4
__Capacity$ = 8						; size = 4
?_Buy@?$vector@V?$basic_string@DU?$char_traits@D@std@@V?$allocator@D@2@@std@@V?$allocator@V?$basic_string@DU?$char_traits@D@std@@V?$allocator@D@2@@std@@@2@@std@@IAE_NI@Z PROC NEAR ; std::vector<std::basic_string<char,std::char_traits<char>,std::allocator<char> >,std::allocator<std::basic_string<char,std::char_traits<char>,std::allocator<char> > > >::_Buy, COMDAT
; _this$ = ecx

; 770  : 		{	// allocate array with _Capacity elements

  00000	55		 push	 ebp
  00001	8b ec		 mov	 ebp, esp
  00003	51		 push	 ecx
  00004	c7 45 fc cc cc
	cc cc		 mov	 DWORD PTR [ebp-4], -858993460 ; ccccccccH
  0000b	89 4d fc	 mov	 DWORD PTR _this$[ebp], ecx

; 771  : 		_Myfirst = 0, _Mylast = 0, _Myend = 0;

  0000e	8b 45 fc	 mov	 eax, DWORD PTR _this$[ebp]
  00011	c7 40 04 00 00
	00 00		 mov	 DWORD PTR [eax+4], 0
  00018	8b 4d fc	 mov	 ecx, DWORD PTR _this$[ebp]
  0001b	c7 41 08 00 00
	00 00		 mov	 DWORD PTR [ecx+8], 0
  00022	8b 55 fc	 mov	 edx, DWORD PTR _this$[ebp]
  00025	c7 42 0c 00 00
	00 00		 mov	 DWORD PTR [edx+12], 0

; 772  : 		if (_Capacity == 0)

  0002c	83 7d 08 00	 cmp	 DWORD PTR __Capacity$[ebp], 0
  00030	75 04		 jne	 SHORT $L193361

; 773  : 			return (false);

  00032	32 c0		 xor	 al, al
  00034	eb 49		 jmp	 SHORT $L193360
$L193361:

; 774  : 		else if (max_size() < _Capacity)

  00036	8b 4d fc	 mov	 ecx, DWORD PTR _this$[ebp]
  00039	e8 00 00 00 00	 call	 ?max_size@?$vector@V?$basic_string@DU?$char_traits@D@std@@V?$allocator@D@2@@std@@V?$allocator@V?$basic_string@DU?$char_traits@D@std@@V?$allocator@D@2@@std@@@2@@std@@QBEIXZ ; std::vector<std::basic_string<char,std::char_traits<char>,std::allocator<char> >,std::allocator<std::basic_string<char,std::char_traits<char>,std::allocator<char> > > >::max_size
  0003e	3b 45 08	 cmp	 eax, DWORD PTR __Capacity$[ebp]
  00041	73 0a		 jae	 SHORT $L193363

; 775  : 			_Xlen();	// result too long

  00043	8b 4d fc	 mov	 ecx, DWORD PTR _this$[ebp]
  00046	e8 00 00 00 00	 call	 ?_Xlen@?$vector@V?$basic_string@DU?$char_traits@D@std@@V?$allocator@D@2@@std@@V?$allocator@V?$basic_string@DU?$char_traits@D@std@@V?$allocator@D@2@@std@@@2@@std@@IBEXXZ ; std::vector<std::basic_string<char,std::char_traits<char>,std::allocator<char> >,std::allocator<std::basic_string<char,std::char_traits<char>,std::allocator<char> > > >::_Xlen

; 776  : 		else

  0004b	eb 30		 jmp	 SHORT $L193362
$L193363:

; 777  : 			{	// nonempty array, allocate storage
; 778  : 			_Myfirst = this->_Alval.allocate(_Capacity);

  0004d	8b 45 08	 mov	 eax, DWORD PTR __Capacity$[ebp]
  00050	50		 push	 eax
  00051	8b 4d fc	 mov	 ecx, DWORD PTR _this$[ebp]
  00054	e8 00 00 00 00	 call	 ?allocate@?$allocator@V?$basic_string@DU?$char_traits@D@std@@V?$allocator@D@2@@std@@@std@@QAEPAV?$basic_string@DU?$char_traits@D@std@@V?$allocator@D@2@@2@I@Z ; std::allocator<std::basic_string<char,std::char_traits<char>,std::allocator<char> > >::allocate
  00059	8b 4d fc	 mov	 ecx, DWORD PTR _this$[ebp]
  0005c	89 41 04	 mov	 DWORD PTR [ecx+4], eax

; 779  : 			_Mylast = _Myfirst;

  0005f	8b 55 fc	 mov	 edx, DWORD PTR _this$[ebp]
  00062	8b 45 fc	 mov	 eax, DWORD PTR _this$[ebp]
  00065	8b 48 04	 mov	 ecx, DWORD PTR [eax+4]
  00068	89 4a 08	 mov	 DWORD PTR [edx+8], ecx

; 780  : 			_Myend = _Myfirst + _Capacity;

  0006b	8b 55 08	 mov	 edx, DWORD PTR __Capacity$[ebp]
  0006e	6b d2 1c	 imul	 edx, 28			; 0000001cH
  00071	8b 45 fc	 mov	 eax, DWORD PTR _this$[ebp]
  00074	03 50 04	 add	 edx, DWORD PTR [eax+4]
  00077	8b 4d fc	 mov	 ecx, DWORD PTR _this$[ebp]
  0007a	89 51 0c	 mov	 DWORD PTR [ecx+12], edx
$L193362:

; 781  : 			}
; 782  : 		return (true);

  0007d	b0 01		 mov	 al, 1
$L193360:

; 783  : 		}

  0007f	83 c4 04	 add	 esp, 4
  00082	3b ec		 cmp	 ebp, esp
  00084	e8 00 00 00 00	 call	 __RTC_CheckEsp
  00089	8b e5		 mov	 esp, ebp
  0008b	5d		 pop	 ebp
  0008c	c2 04 00	 ret	 4
?_Buy@?$vector@V?$basic_string@DU?$char_traits@D@std@@V?$allocator@D@2@@std@@V?$allocator@V?$basic_string@DU?$char_traits@D@std@@V?$allocator@D@2@@std@@@2@@std@@IAE_NI@Z ENDP ; std::vector<std::basic_string<char,std::char_traits<char>,std::allocator<char> >,std::allocator<std::basic_string<char,std::char_traits<char>,std::allocator<char> > > >::_Buy
_TEXT	ENDS
PUBLIC	?_Destroy@?$vector@V?$basic_string@DU?$char_traits@D@std@@V?$allocator@D@2@@std@@V?$allocator@V?$basic_string@DU?$char_traits@D@std@@V?$allocator@D@2@@std@@@2@@std@@IAEXPAV?$basic_string@DU?$char_traits@D@std@@V?$allocator@D@2@@2@0@Z ; std::vector<std::basic_string<char,std::char_traits<char>,std::allocator<char> >,std::allocator<std::basic_string<char,std::char_traits<char>,std::allocator<char> > > >::_Destroy
PUBLIC	?deallocate@?$allocator@V?$basic_string@DU?$char_traits@D@std@@V?$allocator@D@2@@std@@@std@@QAEXPAV?$basic_string@DU?$char_traits@D@std@@V?$allocator@D@2@@2@I@Z ; std::allocator<std::basic_string<char,std::char_traits<char>,std::allocator<char> > >::deallocate
; Function compile flags: /Odt /RTCsu
;	COMDAT ?_Tidy@?$vector@V?$basic_string@DU?$char_traits@D@std@@V?$allocator@D@2@@std@@V?$allocator@V?$basic_string@DU?$char_traits@D@std@@V?$allocator@D@2@@std@@@2@@std@@IAEXXZ
_TEXT	SEGMENT
_this$ = -4						; size = 4
?_Tidy@?$vector@V?$basic_string@DU?$char_traits@D@std@@V?$allocator@D@2@@std@@V?$allocator@V?$basic_string@DU?$char_traits@D@std@@V?$allocator@D@2@@std@@@2@@std@@IAEXXZ PROC NEAR ; std::vector<std::basic_string<char,std::char_traits<char>,std::allocator<char> >,std::allocator<std::basic_string<char,std::char_traits<char>,std::allocator<char> > > >::_Tidy, COMDAT
; _this$ = ecx

; 791  : 		{	// free all storage

  00000	55		 push	 ebp
  00001	8b ec		 mov	 ebp, esp
  00003	51		 push	 ecx
  00004	c7 45 fc cc cc
	cc cc		 mov	 DWORD PTR [ebp-4], -858993460 ; ccccccccH
  0000b	89 4d fc	 mov	 DWORD PTR _this$[ebp], ecx

; 792  : 		if (_Myfirst != 0)

  0000e	8b 45 fc	 mov	 eax, DWORD PTR _this$[ebp]
  00011	83 78 04 00	 cmp	 DWORD PTR [eax+4], 0
  00015	74 3c		 je	 SHORT $L193367

; 793  : 			{	// something to free, destroy and deallocate it
; 794  : 			_Destroy(_Myfirst, _Mylast);

  00017	8b 4d fc	 mov	 ecx, DWORD PTR _this$[ebp]
  0001a	8b 51 08	 mov	 edx, DWORD PTR [ecx+8]
  0001d	52		 push	 edx
  0001e	8b 45 fc	 mov	 eax, DWORD PTR _this$[ebp]
  00021	8b 48 04	 mov	 ecx, DWORD PTR [eax+4]
  00024	51		 push	 ecx
  00025	8b 4d fc	 mov	 ecx, DWORD PTR _this$[ebp]
  00028	e8 00 00 00 00	 call	 ?_Destroy@?$vector@V?$basic_string@DU?$char_traits@D@std@@V?$allocator@D@2@@std@@V?$allocator@V?$basic_string@DU?$char_traits@D@std@@V?$allocator@D@2@@std@@@2@@std@@IAEXPAV?$basic_string@DU?$char_traits@D@std@@V?$allocator@D@2@@2@0@Z ; std::vector<std::basic_string<char,std::char_traits<char>,std::allocator<char> >,std::allocator<std::basic_string<char,std::char_traits<char>,std::allocator<char> > > >::_Destroy

; 795  : 			this->_Alval.deallocate(_Myfirst, _Myend - _Myfirst);

  0002d	8b 55 fc	 mov	 edx, DWORD PTR _this$[ebp]
  00030	8b 45 fc	 mov	 eax, DWORD PTR _this$[ebp]
  00033	8b 4a 0c	 mov	 ecx, DWORD PTR [edx+12]
  00036	2b 48 04	 sub	 ecx, DWORD PTR [eax+4]
  00039	8b c1		 mov	 eax, ecx
  0003b	99		 cdq
  0003c	b9 1c 00 00 00	 mov	 ecx, 28			; 0000001cH
  00041	f7 f9		 idiv	 ecx
  00043	50		 push	 eax
  00044	8b 55 fc	 mov	 edx, DWORD PTR _this$[ebp]
  00047	8b 42 04	 mov	 eax, DWORD PTR [edx+4]
  0004a	50		 push	 eax
  0004b	8b 4d fc	 mov	 ecx, DWORD PTR _this$[ebp]
  0004e	e8 00 00 00 00	 call	 ?deallocate@?$allocator@V?$basic_string@DU?$char_traits@D@std@@V?$allocator@D@2@@std@@@std@@QAEXPAV?$basic_string@DU?$char_traits@D@std@@V?$allocator@D@2@@2@I@Z ; std::allocator<std::basic_string<char,std::char_traits<char>,std::allocator<char> > >::deallocate
$L193367:

; 796  : 			}
; 797  : 		_Myfirst = 0, _Mylast = 0, _Myend = 0;

  00053	8b 4d fc	 mov	 ecx, DWORD PTR _this$[ebp]
  00056	c7 41 04 00 00
	00 00		 mov	 DWORD PTR [ecx+4], 0
  0005d	8b 55 fc	 mov	 edx, DWORD PTR _this$[ebp]
  00060	c7 42 08 00 00
	00 00		 mov	 DWORD PTR [edx+8], 0
  00067	8b 45 fc	 mov	 eax, DWORD PTR _this$[ebp]
  0006a	c7 40 0c 00 00
	00 00		 mov	 DWORD PTR [eax+12], 0

; 798  : 		}

  00071	83 c4 04	 add	 esp, 4
  00074	3b ec		 cmp	 ebp, esp
  00076	e8 00 00 00 00	 call	 __RTC_CheckEsp
  0007b	8b e5		 mov	 esp, ebp
  0007d	5d		 pop	 ebp
  0007e	c3		 ret	 0
?_Tidy@?$vector@V?$basic_string@DU?$char_traits@D@std@@V?$allocator@D@2@@std@@V?$allocator@V?$basic_string@DU?$char_traits@D@std@@V?$allocator@D@2@@std@@@2@@std@@IAEXXZ ENDP ; std::vector<std::basic_string<char,std::char_traits<char>,std::allocator<char> >,std::allocator<std::basic_string<char,std::char_traits<char>,std::allocator<char> > > >::_Tidy
_TEXT	ENDS
PUBLIC	??0?$allocator@V?$basic_string@DU?$char_traits@D@std@@V?$allocator@D@2@@std@@@std@@QAE@ABV01@@Z ; std::allocator<std::basic_string<char,std::char_traits<char>,std::allocator<char> > >::allocator<std::basic_string<char,std::char_traits<char>,std::allocator<char> > >
; Function compile flags: /Odt /RTCsu
;	COMDAT ??0?$_Vector_val@V?$basic_string@DU?$char_traits@D@std@@V?$allocator@D@2@@std@@V?$allocator@V?$basic_string@DU?$char_traits@D@std@@V?$allocator@D@2@@std@@@2@@std@@IAE@V?$allocator@V?$basic_string@DU?$char_traits@D@std@@V?$allocator@D@2@@std@@@1@@Z
_TEXT	SEGMENT
_this$ = -4						; size = 4
__Al$ = 8						; size = 1
??0?$_Vector_val@V?$basic_string@DU?$char_traits@D@std@@V?$allocator@D@2@@std@@V?$allocator@V?$basic_string@DU?$char_traits@D@std@@V?$allocator@D@2@@std@@@2@@std@@IAE@V?$allocator@V?$basic_string@DU?$char_traits@D@std@@V?$allocator@D@2@@std@@@1@@Z PROC NEAR ; std::_Vector_val<std::basic_string<char,std::char_traits<char>,std::allocator<char> >,std::allocator<std::basic_string<char,std::char_traits<char>,std::allocator<char> > > >::_Vector_val<std::basic_string<char,std::char_traits<char>,std::allocator<char> >,std::allocator<std::basic_string<char,std::char_traits<char>,std::allocator<char> > > >, COMDAT
; _this$ = ecx

; 21   : 		{	// construct allocator from _Al

  00000	55		 push	 ebp
  00001	8b ec		 mov	 ebp, esp
  00003	51		 push	 ecx
  00004	c7 45 fc cc cc
	cc cc		 mov	 DWORD PTR [ebp-4], -858993460 ; ccccccccH
  0000b	89 4d fc	 mov	 DWORD PTR _this$[ebp], ecx
  0000e	8d 45 08	 lea	 eax, DWORD PTR __Al$[ebp]
  00011	50		 push	 eax
  00012	8b 4d fc	 mov	 ecx, DWORD PTR _this$[ebp]
  00015	e8 00 00 00 00	 call	 ??0?$allocator@V?$basic_string@DU?$char_traits@D@std@@V?$allocator@D@2@@std@@@std@@QAE@ABV01@@Z ; std::allocator<std::basic_string<char,std::char_traits<char>,std::allocator<char> > >::allocator<std::basic_string<char,std::char_traits<char>,std::allocator<char> > >

; 22   : 		}

  0001a	8b 45 fc	 mov	 eax, DWORD PTR _this$[ebp]
  0001d	83 c4 04	 add	 esp, 4
  00020	3b ec		 cmp	 ebp, esp
  00022	e8 00 00 00 00	 call	 __RTC_CheckEsp
  00027	8b e5		 mov	 esp, ebp
  00029	5d		 pop	 ebp
  0002a	c2 04 00	 ret	 4
??0?$_Vector_val@V?$basic_string@DU?$char_traits@D@std@@V?$allocator@D@2@@std@@V?$allocator@V?$basic_string@DU?$char_traits@D@std@@V?$allocator@D@2@@std@@@2@@std@@IAE@V?$allocator@V?$basic_string@DU?$char_traits@D@std@@V?$allocator@D@2@@std@@@1@@Z ENDP ; std::_Vector_val<std::basic_string<char,std::char_traits<char>,std::allocator<char> >,std::allocator<std::basic_string<char,std::char_traits<char>,std::allocator<char> > > >::_Vector_val<std::basic_string<char,std::char_traits<char>,std::allocator<char> >,std::allocator<std::basic_string<char,std::char_traits<char>,std::allocator<char> > > >
_TEXT	ENDS
PUBLIC	??Dconst_iterator@?$vector@UOneSubject@@V?$allocator@UOneSubject@@@std@@@std@@QBEABUOneSubject@@XZ ; std::vector<OneSubject,std::allocator<OneSubject> >::const_iterator::operator*
; Function compile flags: /Odt /RTCsu
;	COMDAT ??Diterator@?$vector@UOneSubject@@V?$allocator@UOneSubject@@@std@@@std@@QBEAAUOneSubject@@XZ
_TEXT	SEGMENT
_this$ = -4						; size = 4
??Diterator@?$vector@UOneSubject@@V?$allocator@UOneSubject@@@std@@@std@@QBEAAUOneSubject@@XZ PROC NEAR ; std::vector<OneSubject,std::allocator<OneSubject> >::iterator::operator*, COMDAT
; _this$ = ecx

; 219  : 			{	// return designated object

  00000	55		 push	 ebp
  00001	8b ec		 mov	 ebp, esp
  00003	51		 push	 ecx
  00004	c7 45 fc cc cc
	cc cc		 mov	 DWORD PTR [ebp-4], -858993460 ; ccccccccH
  0000b	89 4d fc	 mov	 DWORD PTR _this$[ebp], ecx

; 220  : 			return ((reference)**(const_iterator *)this);

  0000e	8b 4d fc	 mov	 ecx, DWORD PTR _this$[ebp]
  00011	e8 00 00 00 00	 call	 ??Dconst_iterator@?$vector@UOneSubject@@V?$allocator@UOneSubject@@@std@@@std@@QBEABUOneSubject@@XZ ; std::vector<OneSubject,std::allocator<OneSubject> >::const_iterator::operator*

; 221  : 			}

  00016	83 c4 04	 add	 esp, 4
  00019	3b ec		 cmp	 ebp, esp
  0001b	e8 00 00 00 00	 call	 __RTC_CheckEsp
  00020	8b e5		 mov	 esp, ebp
  00022	5d		 pop	 ebp
  00023	c3		 ret	 0
??Diterator@?$vector@UOneSubject@@V?$allocator@UOneSubject@@@std@@@std@@QBEAAUOneSubject@@XZ ENDP ; std::vector<OneSubject,std::allocator<OneSubject> >::iterator::operator*
_TEXT	ENDS
PUBLIC	??Yiterator@?$vector@UOneSubject@@V?$allocator@UOneSubject@@@std@@@std@@QAEAAV012@H@Z ; std::vector<OneSubject,std::allocator<OneSubject> >::iterator::operator+=
; Function compile flags: /Odt /RTCsu
;	COMDAT ??Hiterator@?$vector@UOneSubject@@V?$allocator@UOneSubject@@@std@@@std@@QBE?AV012@H@Z
_TEXT	SEGMENT
__Tmp$ = -12						; size = 4
_this$ = -4						; size = 4
___$ReturnUdt$ = 8					; size = 4
__Off$ = 12						; size = 4
??Hiterator@?$vector@UOneSubject@@V?$allocator@UOneSubject@@@std@@@std@@QBE?AV012@H@Z PROC NEAR ; std::vector<OneSubject,std::allocator<OneSubject> >::iterator::operator+, COMDAT
; _this$ = ecx

; 261  : 			{	// return this + integer

  00000	55		 push	 ebp
  00001	8b ec		 mov	 ebp, esp
  00003	83 ec 10	 sub	 esp, 16			; 00000010H
  00006	b8 cc cc cc cc	 mov	 eax, -858993460		; ccccccccH
  0000b	89 45 f0	 mov	 DWORD PTR [ebp-16], eax
  0000e	89 45 f4	 mov	 DWORD PTR [ebp-12], eax
  00011	89 45 f8	 mov	 DWORD PTR [ebp-8], eax
  00014	89 45 fc	 mov	 DWORD PTR [ebp-4], eax
  00017	89 4d fc	 mov	 DWORD PTR _this$[ebp], ecx

; 262  : 			iterator _Tmp = *this;

  0001a	8b 45 fc	 mov	 eax, DWORD PTR _this$[ebp]
  0001d	8b 08		 mov	 ecx, DWORD PTR [eax]
  0001f	89 4d f4	 mov	 DWORD PTR __Tmp$[ebp], ecx

; 263  : 			return (_Tmp += _Off);

  00022	8b 55 0c	 mov	 edx, DWORD PTR __Off$[ebp]
  00025	52		 push	 edx
  00026	8d 4d f4	 lea	 ecx, DWORD PTR __Tmp$[ebp]
  00029	e8 00 00 00 00	 call	 ??Yiterator@?$vector@UOneSubject@@V?$allocator@UOneSubject@@@std@@@std@@QAEAAV012@H@Z ; std::vector<OneSubject,std::allocator<OneSubject> >::iterator::operator+=
  0002e	8b 00		 mov	 eax, DWORD PTR [eax]
  00030	8b 4d 08	 mov	 ecx, DWORD PTR ___$ReturnUdt$[ebp]
  00033	89 01		 mov	 DWORD PTR [ecx], eax
  00035	8b 45 08	 mov	 eax, DWORD PTR ___$ReturnUdt$[ebp]

; 264  : 			}

  00038	52		 push	 edx
  00039	8b cd		 mov	 ecx, ebp
  0003b	50		 push	 eax
  0003c	8d 15 00 00 00
	00		 lea	 edx, DWORD PTR $L195417
  00042	e8 00 00 00 00	 call	 @_RTC_CheckStackVars@8
  00047	58		 pop	 eax
  00048	5a		 pop	 edx
  00049	83 c4 10	 add	 esp, 16			; 00000010H
  0004c	3b ec		 cmp	 ebp, esp
  0004e	e8 00 00 00 00	 call	 __RTC_CheckEsp
  00053	8b e5		 mov	 esp, ebp
  00055	5d		 pop	 ebp
  00056	c2 08 00	 ret	 8
$L195417:
  00059	01 00 00 00	 DD	 1
  0005d	00 00 00 00	 DD	 $L195416
$L195416:
  00061	f4 ff ff ff	 DD	 -12			; fffffff4H
  00065	04 00 00 00	 DD	 4
  00069	00 00 00 00	 DD	 $L195415
$L195415:
  0006d	5f		 DB	 95			; 0000005fH
  0006e	54		 DB	 84			; 00000054H
  0006f	6d		 DB	 109			; 0000006dH
  00070	70		 DB	 112			; 00000070H
  00071	00		 DB	 0
??Hiterator@?$vector@UOneSubject@@V?$allocator@UOneSubject@@@std@@@std@@QBE?AV012@H@Z ENDP ; std::vector<OneSubject,std::allocator<OneSubject> >::iterator::operator+
; Function compile flags: /Odt /RTCsu
; File d:\program files (x86)\microsoft visual studio .net 2003\vc7\include\xmemory
_TEXT	ENDS
;	COMDAT ??0?$allocator@V?$basic_string@DU?$char_traits@D@std@@V?$allocator@D@2@@std@@@std@@QAE@ABV01@@Z
_TEXT	SEGMENT
_this$ = -4						; size = 4
___formal$ = 8						; size = 4
??0?$allocator@V?$basic_string@DU?$char_traits@D@std@@V?$allocator@D@2@@std@@@std@@QAE@ABV01@@Z PROC NEAR ; std::allocator<std::basic_string<char,std::char_traits<char>,std::allocator<char> > >::allocator<std::basic_string<char,std::char_traits<char>,std::allocator<char> > >, COMDAT
; _this$ = ecx

; 115  : 	allocator(const allocator<_Ty>&)

  00000	55		 push	 ebp
  00001	8b ec		 mov	 ebp, esp
  00003	51		 push	 ecx
  00004	c7 45 fc cc cc
	cc cc		 mov	 DWORD PTR [ebp-4], -858993460 ; ccccccccH
  0000b	89 4d fc	 mov	 DWORD PTR _this$[ebp], ecx

; 116  : 		{	// construct by copying (do nothing)
; 117  : 		}

  0000e	8b 45 fc	 mov	 eax, DWORD PTR _this$[ebp]
  00011	8b e5		 mov	 esp, ebp
  00013	5d		 pop	 ebp
  00014	c2 04 00	 ret	 4
??0?$allocator@V?$basic_string@DU?$char_traits@D@std@@V?$allocator@D@2@@std@@@std@@QAE@ABV01@@Z ENDP ; std::allocator<std::basic_string<char,std::char_traits<char>,std::allocator<char> > >::allocator<std::basic_string<char,std::char_traits<char>,std::allocator<char> > >
; Function compile flags: /Odt /RTCsu
_TEXT	ENDS
;	COMDAT ?deallocate@?$allocator@V?$basic_string@DU?$char_traits@D@std@@V?$allocator@D@2@@std@@@std@@QAEXPAV?$basic_string@DU?$char_traits@D@std@@V?$allocator@D@2@@2@I@Z
_TEXT	SEGMENT
_this$ = -4						; size = 4
__Ptr$ = 8						; size = 4
___formal$ = 12						; size = 4
?deallocate@?$allocator@V?$basic_string@DU?$char_traits@D@std@@V?$allocator@D@2@@std@@@std@@QAEXPAV?$basic_string@DU?$char_traits@D@std@@V?$allocator@D@2@@2@I@Z PROC NEAR ; std::allocator<std::basic_string<char,std::char_traits<char>,std::allocator<char> > >::deallocate, COMDAT
; _this$ = ecx

; 131  : 		{	// deallocate object at _Ptr, ignore size

  00000	55		 push	 ebp
  00001	8b ec		 mov	 ebp, esp
  00003	51		 push	 ecx
  00004	c7 45 fc cc cc
	cc cc		 mov	 DWORD PTR [ebp-4], -858993460 ; ccccccccH
  0000b	89 4d fc	 mov	 DWORD PTR _this$[ebp], ecx

; 132  : 		operator delete(_Ptr);

  0000e	8b 45 08	 mov	 eax, DWORD PTR __Ptr$[ebp]
  00011	50		 push	 eax
  00012	e8 00 00 00 00	 call	 ??3@YAXPAX@Z		; operator delete
  00017	83 c4 04	 add	 esp, 4

; 133  : 		}

  0001a	83 c4 04	 add	 esp, 4
  0001d	3b ec		 cmp	 ebp, esp
  0001f	e8 00 00 00 00	 call	 __RTC_CheckEsp
  00024	8b e5		 mov	 esp, ebp
  00026	5d		 pop	 ebp
  00027	c2 08 00	 ret	 8
?deallocate@?$allocator@V?$basic_string@DU?$char_traits@D@std@@V?$allocator@D@2@@std@@@std@@QAEXPAV?$basic_string@DU?$char_traits@D@std@@V?$allocator@D@2@@2@I@Z ENDP ; std::allocator<std::basic_string<char,std::char_traits<char>,std::allocator<char> > >::deallocate
_TEXT	ENDS
PUBLIC	??$_Allocate@V?$basic_string@DU?$char_traits@D@std@@V?$allocator@D@2@@std@@@std@@YAPAV?$basic_string@DU?$char_traits@D@std@@V?$allocator@D@2@@0@IPAV10@@Z ; std::_Allocate<std::basic_string<char,std::char_traits<char>,std::allocator<char> > >
; Function compile flags: /Odt /RTCsu
;	COMDAT ?allocate@?$allocator@V?$basic_string@DU?$char_traits@D@std@@V?$allocator@D@2@@std@@@std@@QAEPAV?$basic_string@DU?$char_traits@D@std@@V?$allocator@D@2@@2@I@Z
_TEXT	SEGMENT
_this$ = -4						; size = 4
__Count$ = 8						; size = 4
?allocate@?$allocator@V?$basic_string@DU?$char_traits@D@std@@V?$allocator@D@2@@std@@@std@@QAEPAV?$basic_string@DU?$char_traits@D@std@@V?$allocator@D@2@@2@I@Z PROC NEAR ; std::allocator<std::basic_string<char,std::char_traits<char>,std::allocator<char> > >::allocate, COMDAT
; _this$ = ecx

; 136  : 		{	// allocate array of _Count elements

  00000	55		 push	 ebp
  00001	8b ec		 mov	 ebp, esp
  00003	51		 push	 ecx
  00004	c7 45 fc cc cc
	cc cc		 mov	 DWORD PTR [ebp-4], -858993460 ; ccccccccH
  0000b	89 4d fc	 mov	 DWORD PTR _this$[ebp], ecx

; 137  : 		return (_Allocate(_Count, (pointer)0));

  0000e	6a 00		 push	 0
  00010	8b 45 08	 mov	 eax, DWORD PTR __Count$[ebp]
  00013	50		 push	 eax
  00014	e8 00 00 00 00	 call	 ??$_Allocate@V?$basic_string@DU?$char_traits@D@std@@V?$allocator@D@2@@std@@@std@@YAPAV?$basic_string@DU?$char_traits@D@std@@V?$allocator@D@2@@0@IPAV10@@Z ; std::_Allocate<std::basic_string<char,std::char_traits<char>,std::allocator<char> > >
  00019	83 c4 08	 add	 esp, 8

; 138  : 		}

  0001c	83 c4 04	 add	 esp, 4
  0001f	3b ec		 cmp	 ebp, esp
  00021	e8 00 00 00 00	 call	 __RTC_CheckEsp
  00026	8b e5		 mov	 esp, ebp
  00028	5d		 pop	 ebp
  00029	c2 04 00	 ret	 4
?allocate@?$allocator@V?$basic_string@DU?$char_traits@D@std@@V?$allocator@D@2@@std@@@std@@QAEPAV?$basic_string@DU?$char_traits@D@std@@V?$allocator@D@2@@2@I@Z ENDP ; std::allocator<std::basic_string<char,std::char_traits<char>,std::allocator<char> > >::allocate
_TEXT	ENDS
PUBLIC	?max_size@?$allocator@PAVIChangeSkinEventListener@@@std@@QBEIXZ ; std::allocator<IChangeSkinEventListener *>::max_size
; Function compile flags: /Odt /RTCsu
; File d:\program files (x86)\microsoft visual studio .net 2003\vc7\include\vector
;	COMDAT ?max_size@?$vector@PAVIChangeSkinEventListener@@V?$allocator@PAVIChangeSkinEventListener@@@std@@@std@@QBEIXZ
_TEXT	SEGMENT
_this$ = -4						; size = 4
?max_size@?$vector@PAVIChangeSkinEventListener@@V?$allocator@PAVIChangeSkinEventListener@@@std@@@std@@QBEIXZ PROC NEAR ; std::vector<IChangeSkinEventListener *,std::allocator<IChangeSkinEventListener *> >::max_size, COMDAT
; _this$ = ecx

; 520  : 		{	// return maximum possible length of sequence

  00000	55		 push	 ebp
  00001	8b ec		 mov	 ebp, esp
  00003	51		 push	 ecx
  00004	c7 45 fc cc cc
	cc cc		 mov	 DWORD PTR [ebp-4], -858993460 ; ccccccccH
  0000b	89 4d fc	 mov	 DWORD PTR _this$[ebp], ecx

; 521  : 		return (this->_Alval.max_size());

  0000e	8b 4d fc	 mov	 ecx, DWORD PTR _this$[ebp]
  00011	e8 00 00 00 00	 call	 ?max_size@?$allocator@PAVIChangeSkinEventListener@@@std@@QBEIXZ ; std::allocator<IChangeSkinEventListener *>::max_size

; 522  : 		}

  00016	83 c4 04	 add	 esp, 4
  00019	3b ec		 cmp	 ebp, esp
  0001b	e8 00 00 00 00	 call	 __RTC_CheckEsp
  00020	8b e5		 mov	 esp, ebp
  00022	5d		 pop	 ebp
  00023	c3		 ret	 0
?max_size@?$vector@PAVIChangeSkinEventListener@@V?$allocator@PAVIChangeSkinEventListener@@@std@@@std@@QBEIXZ ENDP ; std::vector<IChangeSkinEventListener *,std::allocator<IChangeSkinEventListener *> >::max_size
_TEXT	ENDS
PUBLIC	??$_Ucopy@PAPAVIChangeSkinEventListener@@@?$vector@PAVIChangeSkinEventListener@@V?$allocator@PAVIChangeSkinEventListener@@@std@@@std@@IAEPAPAVIChangeSkinEventListener@@PAPAV2@00@Z ; std::vector<IChangeSkinEventListener *,std::allocator<IChangeSkinEventListener *> >::_Ucopy<IChangeSkinEventListener * *>
PUBLIC	??$fill@PAPAVIChangeSkinEventListener@@PAV1@@std@@YAXPAPAVIChangeSkinEventListener@@0ABQAV1@@Z ; std::fill<IChangeSkinEventListener * *,IChangeSkinEventListener *>
PUBLIC	??$copy_backward@PAPAVIChangeSkinEventListener@@PAPAV1@@std@@YAPAPAVIChangeSkinEventListener@@PAPAV1@00@Z ; std::copy_backward<IChangeSkinEventListener * *,IChangeSkinEventListener * *>
EXTRN	__CxxThrowException@8:NEAR
;	COMDAT xdata$x
xdata$x	SEGMENT
$T195436 DD	0ffffffffH
	DD	00H
	DD	0ffffffffH
	DD	00H
	DD	0ffffffffH
	DD	00H
	DD	0ffffffffH
	DD	00H
$T195438 DD	00H
	DD	00H
	DD	00H
	DD	FLAT:$L195427
$T195439 DD	00H
	DD	00H
	DD	00H
	DD	FLAT:$L195429
$T195437 DD	00H
	DD	00H
	DD	01H
	DD	01H
	DD	FLAT:$T195438
	DD	02H
	DD	02H
	DD	03H
	DD	01H
	DD	FLAT:$T195439
$T195431 DD	019930520H
	DD	04H
	DD	FLAT:$T195436
	DD	02H
	DD	FLAT:$T195437
	DD	2 DUP(00H)
; Function compile flags: /Odt /RTCsu
xdata$x	ENDS
;	COMDAT ?_Insert_n@?$vector@PAVIChangeSkinEventListener@@V?$allocator@PAVIChangeSkinEventListener@@@std@@@std@@IAEXViterator@12@IABQAVIChangeSkinEventListener@@@Z
_TEXT	SEGMENT
tv240 = -60						; size = 4
tv239 = -56						; size = 4
tv85 = -52						; size = 4
__Oldend$193474 = -48					; size = 4
__Ptr$193454 = -44					; size = 4
__Newvec$193453 = -40					; size = 4
__Capacity$ = -36					; size = 4
__Tmp$ = -28						; size = 4
_this$ = -20						; size = 4
__$EHRec$ = -16						; size = 16
__Where$ = 8						; size = 4
__Count$ = 12						; size = 4
__Val$ = 16						; size = 4
?_Insert_n@?$vector@PAVIChangeSkinEventListener@@V?$allocator@PAVIChangeSkinEventListener@@@std@@@std@@IAEXViterator@12@IABQAVIChangeSkinEventListener@@@Z PROC NEAR ; std::vector<IChangeSkinEventListener *,std::allocator<IChangeSkinEventListener *> >::_Insert_n, COMDAT
; _this$ = ecx

; 809  : 		{	// insert _Count * _Val at _Where

  00000	55		 push	 ebp
  00001	8b ec		 mov	 ebp, esp
  00003	6a ff		 push	 -1
  00005	68 00 00 00 00	 push	 __ehhandler$?_Insert_n@?$vector@PAVIChangeSkinEventListener@@V?$allocator@PAVIChangeSkinEventListener@@@std@@@std@@IAEXViterator@12@IABQAVIChangeSkinEventListener@@@Z
  0000a	64 a1 00 00 00
	00		 mov	 eax, DWORD PTR fs:__except_list
  00010	50		 push	 eax
  00011	64 89 25 00 00
	00 00		 mov	 DWORD PTR fs:__except_list, esp
  00018	51		 push	 ecx
  00019	83 ec 2c	 sub	 esp, 44			; 0000002cH
  0001c	53		 push	 ebx
  0001d	56		 push	 esi
  0001e	57		 push	 edi
  0001f	51		 push	 ecx
  00020	8d 7d c4	 lea	 edi, DWORD PTR [ebp-60]
  00023	b9 0b 00 00 00	 mov	 ecx, 11			; 0000000bH
  00028	b8 cc cc cc cc	 mov	 eax, -858993460		; ccccccccH
  0002d	f3 ab		 rep stosd
  0002f	59		 pop	 ecx
  00030	89 65 f0	 mov	 DWORD PTR __$EHRec$[ebp], esp
  00033	89 4d ec	 mov	 DWORD PTR _this$[ebp], ecx

; 810  : 		_Ty _Tmp = _Val;	// in case _Val is in sequence

  00036	8b 45 10	 mov	 eax, DWORD PTR __Val$[ebp]
  00039	8b 08		 mov	 ecx, DWORD PTR [eax]
  0003b	89 4d e4	 mov	 DWORD PTR __Tmp$[ebp], ecx

; 811  : 		size_type _Capacity = capacity();

  0003e	8b 4d ec	 mov	 ecx, DWORD PTR _this$[ebp]
  00041	e8 00 00 00 00	 call	 ?capacity@?$vector@PAVIChangeSkinEventListener@@V?$allocator@PAVIChangeSkinEventListener@@@std@@@std@@QBEIXZ ; std::vector<IChangeSkinEventListener *,std::allocator<IChangeSkinEventListener *> >::capacity
  00046	89 45 dc	 mov	 DWORD PTR __Capacity$[ebp], eax

; 812  : 
; 813  : 		if (_Count == 0)

  00049	83 7d 0c 00	 cmp	 DWORD PTR __Count$[ebp], 0
  0004d	75 05		 jne	 SHORT $L193447

; 814  : 			;
; 815  : 		else if (max_size() - size() < _Count)

  0004f	e9 c6 02 00 00	 jmp	 $L195422
$L193447:
  00054	8b 4d ec	 mov	 ecx, DWORD PTR _this$[ebp]
  00057	e8 00 00 00 00	 call	 ?size@?$vector@PAVIChangeSkinEventListener@@V?$allocator@PAVIChangeSkinEventListener@@@std@@@std@@QBEIXZ ; std::vector<IChangeSkinEventListener *,std::allocator<IChangeSkinEventListener *> >::size
  0005c	8b f0		 mov	 esi, eax
  0005e	8b 4d ec	 mov	 ecx, DWORD PTR _this$[ebp]
  00061	e8 00 00 00 00	 call	 ?max_size@?$vector@PAVIChangeSkinEventListener@@V?$allocator@PAVIChangeSkinEventListener@@@std@@@std@@QBEIXZ ; std::vector<IChangeSkinEventListener *,std::allocator<IChangeSkinEventListener *> >::max_size
  00066	2b c6		 sub	 eax, esi
  00068	3b 45 0c	 cmp	 eax, DWORD PTR __Count$[ebp]
  0006b	73 0d		 jae	 SHORT $L193449

; 816  : 			_Xlen();	// result too long

  0006d	8b 4d ec	 mov	 ecx, DWORD PTR _this$[ebp]
  00070	e8 00 00 00 00	 call	 ?_Xlen@?$vector@PAVIChangeSkinEventListener@@V?$allocator@PAVIChangeSkinEventListener@@@std@@@std@@IBEXXZ ; std::vector<IChangeSkinEventListener *,std::allocator<IChangeSkinEventListener *> >::_Xlen

; 817  : 		else if (_Capacity < size() + _Count)

  00075	e9 a0 02 00 00	 jmp	 $L195422
$L193449:
  0007a	8b 4d ec	 mov	 ecx, DWORD PTR _this$[ebp]
  0007d	e8 00 00 00 00	 call	 ?size@?$vector@PAVIChangeSkinEventListener@@V?$allocator@PAVIChangeSkinEventListener@@@std@@@std@@QBEIXZ ; std::vector<IChangeSkinEventListener *,std::allocator<IChangeSkinEventListener *> >::size
  00082	03 45 0c	 add	 eax, DWORD PTR __Count$[ebp]
  00085	39 45 dc	 cmp	 DWORD PTR __Capacity$[ebp], eax
  00088	0f 83 66 01 00
	00		 jae	 $L193451

; 818  : 			{	// not enough room, reallocate
; 819  : 			_Capacity = max_size() - _Capacity / 2 < _Capacity
; 820  : 				? 0 : _Capacity + _Capacity / 2;	// try to grow by 50%

  0008e	8b 75 dc	 mov	 esi, DWORD PTR __Capacity$[ebp]
  00091	d1 ee		 shr	 esi, 1
  00093	8b 4d ec	 mov	 ecx, DWORD PTR _this$[ebp]
  00096	e8 00 00 00 00	 call	 ?max_size@?$vector@PAVIChangeSkinEventListener@@V?$allocator@PAVIChangeSkinEventListener@@@std@@@std@@QBEIXZ ; std::vector<IChangeSkinEventListener *,std::allocator<IChangeSkinEventListener *> >::max_size
  0009b	2b c6		 sub	 eax, esi
  0009d	3b 45 dc	 cmp	 eax, DWORD PTR __Capacity$[ebp]
  000a0	73 09		 jae	 SHORT $L195423
  000a2	c7 45 cc 00 00
	00 00		 mov	 DWORD PTR tv85[ebp], 0
  000a9	eb 0b		 jmp	 SHORT $L195424
$L195423:
  000ab	8b 55 dc	 mov	 edx, DWORD PTR __Capacity$[ebp]
  000ae	d1 ea		 shr	 edx, 1
  000b0	03 55 dc	 add	 edx, DWORD PTR __Capacity$[ebp]
  000b3	89 55 cc	 mov	 DWORD PTR tv85[ebp], edx
$L195424:
  000b6	8b 45 cc	 mov	 eax, DWORD PTR tv85[ebp]
  000b9	89 45 dc	 mov	 DWORD PTR __Capacity$[ebp], eax

; 821  : 			if (_Capacity < size() + _Count)

  000bc	8b 4d ec	 mov	 ecx, DWORD PTR _this$[ebp]
  000bf	e8 00 00 00 00	 call	 ?size@?$vector@PAVIChangeSkinEventListener@@V?$allocator@PAVIChangeSkinEventListener@@@std@@@std@@QBEIXZ ; std::vector<IChangeSkinEventListener *,std::allocator<IChangeSkinEventListener *> >::size
  000c4	03 45 0c	 add	 eax, DWORD PTR __Count$[ebp]
  000c7	39 45 dc	 cmp	 DWORD PTR __Capacity$[ebp], eax
  000ca	73 0e		 jae	 SHORT $L193452

; 822  : 				_Capacity = size() + _Count;

  000cc	8b 4d ec	 mov	 ecx, DWORD PTR _this$[ebp]
  000cf	e8 00 00 00 00	 call	 ?size@?$vector@PAVIChangeSkinEventListener@@V?$allocator@PAVIChangeSkinEventListener@@@std@@@std@@QBEIXZ ; std::vector<IChangeSkinEventListener *,std::allocator<IChangeSkinEventListener *> >::size
  000d4	03 45 0c	 add	 eax, DWORD PTR __Count$[ebp]
  000d7	89 45 dc	 mov	 DWORD PTR __Capacity$[ebp], eax
$L193452:

; 823  : 			pointer _Newvec = this->_Alval.allocate(_Capacity);

  000da	8b 4d dc	 mov	 ecx, DWORD PTR __Capacity$[ebp]
  000dd	51		 push	 ecx
  000de	8b 4d ec	 mov	 ecx, DWORD PTR _this$[ebp]
  000e1	e8 00 00 00 00	 call	 ?allocate@?$allocator@PAVIChangeSkinEventListener@@@std@@QAEPAPAVIChangeSkinEventListener@@I@Z ; std::allocator<IChangeSkinEventListener *>::allocate
  000e6	89 45 d8	 mov	 DWORD PTR __Newvec$193453[ebp], eax

; 824  : 			pointer _Ptr = _Newvec;

  000e9	8b 55 d8	 mov	 edx, DWORD PTR __Newvec$193453[ebp]
  000ec	89 55 d4	 mov	 DWORD PTR __Ptr$193454[ebp], edx

; 825  : 
; 826  : 			_TRY_BEGIN

  000ef	c7 45 fc 00 00
	00 00		 mov	 DWORD PTR __$EHRec$[ebp+12], 0

; 827  : 			_Ptr = _Ucopy(_Myfirst, _ITER_BASE(_Where),
; 828  : 				_Newvec);	// copy prefix

  000f6	8b 45 d8	 mov	 eax, DWORD PTR __Newvec$193453[ebp]
  000f9	50		 push	 eax
  000fa	8b 4d 08	 mov	 ecx, DWORD PTR __Where$[ebp]
  000fd	51		 push	 ecx
  000fe	8b 55 ec	 mov	 edx, DWORD PTR _this$[ebp]
  00101	8b 42 04	 mov	 eax, DWORD PTR [edx+4]
  00104	50		 push	 eax
  00105	8b 4d ec	 mov	 ecx, DWORD PTR _this$[ebp]
  00108	e8 00 00 00 00	 call	 ??$_Ucopy@PAPAVIChangeSkinEventListener@@@?$vector@PAVIChangeSkinEventListener@@V?$allocator@PAVIChangeSkinEventListener@@@std@@@std@@IAEPAPAVIChangeSkinEventListener@@PAPAV2@00@Z ; std::vector<IChangeSkinEventListener *,std::allocator<IChangeSkinEventListener *> >::_Ucopy<IChangeSkinEventListener * *>
  0010d	89 45 c8	 mov	 DWORD PTR tv239[ebp], eax
  00110	8b 4d c8	 mov	 ecx, DWORD PTR tv239[ebp]
  00113	89 4d d4	 mov	 DWORD PTR __Ptr$193454[ebp], ecx

; 829  : 			_Ptr = _Ufill(_Ptr, _Count, _Tmp);	// add new stuff

  00116	8d 55 e4	 lea	 edx, DWORD PTR __Tmp$[ebp]
  00119	52		 push	 edx
  0011a	8b 45 0c	 mov	 eax, DWORD PTR __Count$[ebp]
  0011d	50		 push	 eax
  0011e	8b 4d d4	 mov	 ecx, DWORD PTR __Ptr$193454[ebp]
  00121	51		 push	 ecx
  00122	8b 4d ec	 mov	 ecx, DWORD PTR _this$[ebp]
  00125	e8 00 00 00 00	 call	 ?_Ufill@?$vector@PAVIChangeSkinEventListener@@V?$allocator@PAVIChangeSkinEventListener@@@std@@@std@@IAEPAPAVIChangeSkinEventListener@@PAPAV3@IABQAV3@@Z ; std::vector<IChangeSkinEventListener *,std::allocator<IChangeSkinEventListener *> >::_Ufill
  0012a	89 45 c4	 mov	 DWORD PTR tv240[ebp], eax
  0012d	8b 55 c4	 mov	 edx, DWORD PTR tv240[ebp]
  00130	89 55 d4	 mov	 DWORD PTR __Ptr$193454[ebp], edx

; 830  : 			_Ucopy(_ITER_BASE(_Where), _Mylast, _Ptr);	// copy suffix

  00133	8b 45 d4	 mov	 eax, DWORD PTR __Ptr$193454[ebp]
  00136	50		 push	 eax
  00137	8b 4d ec	 mov	 ecx, DWORD PTR _this$[ebp]
  0013a	8b 51 08	 mov	 edx, DWORD PTR [ecx+8]
  0013d	52		 push	 edx
  0013e	8b 45 08	 mov	 eax, DWORD PTR __Where$[ebp]
  00141	50		 push	 eax
  00142	8b 4d ec	 mov	 ecx, DWORD PTR _this$[ebp]
  00145	e8 00 00 00 00	 call	 ??$_Ucopy@PAPAVIChangeSkinEventListener@@@?$vector@PAVIChangeSkinEventListener@@V?$allocator@PAVIChangeSkinEventListener@@@std@@@std@@IAEPAPAVIChangeSkinEventListener@@PAPAV2@00@Z ; std::vector<IChangeSkinEventListener *,std::allocator<IChangeSkinEventListener *> >::_Ucopy<IChangeSkinEventListener * *>
  0014a	eb 29		 jmp	 SHORT $L195426
$L195427:

; 831  : 			_CATCH_ALL
; 832  : 			_Destroy(_Newvec, _Ptr);

  0014c	8b 4d d4	 mov	 ecx, DWORD PTR __Ptr$193454[ebp]
  0014f	51		 push	 ecx
  00150	8b 55 d8	 mov	 edx, DWORD PTR __Newvec$193453[ebp]
  00153	52		 push	 edx
  00154	8b 4d ec	 mov	 ecx, DWORD PTR _this$[ebp]
  00157	e8 00 00 00 00	 call	 ?_Destroy@?$vector@PAVIChangeSkinEventListener@@V?$allocator@PAVIChangeSkinEventListener@@@std@@@std@@IAEXPAPAVIChangeSkinEventListener@@0@Z ; std::vector<IChangeSkinEventListener *,std::allocator<IChangeSkinEventListener *> >::_Destroy

; 833  : 			this->_Alval.deallocate(_Newvec, _Capacity);

  0015c	8b 45 dc	 mov	 eax, DWORD PTR __Capacity$[ebp]
  0015f	50		 push	 eax
  00160	8b 4d d8	 mov	 ecx, DWORD PTR __Newvec$193453[ebp]
  00163	51		 push	 ecx
  00164	8b 4d ec	 mov	 ecx, DWORD PTR _this$[ebp]
  00167	e8 00 00 00 00	 call	 ?deallocate@?$allocator@PAVIChangeSkinEventListener@@@std@@QAEXPAPAVIChangeSkinEventListener@@I@Z ; std::allocator<IChangeSkinEventListener *>::deallocate

; 834  : 			_RERAISE;

  0016c	6a 00		 push	 0
  0016e	6a 00		 push	 0
  00170	e8 00 00 00 00	 call	 __CxxThrowException@8
$L195426:

; 835  : 			_CATCH_END

  00175	c7 45 fc ff ff
	ff ff		 mov	 DWORD PTR __$EHRec$[ebp+12], -1

; 836  : 
; 837  : 			_Count += size();

  0017c	8b 4d ec	 mov	 ecx, DWORD PTR _this$[ebp]
  0017f	e8 00 00 00 00	 call	 ?size@?$vector@PAVIChangeSkinEventListener@@V?$allocator@PAVIChangeSkinEventListener@@@std@@@std@@QBEIXZ ; std::vector<IChangeSkinEventListener *,std::allocator<IChangeSkinEventListener *> >::size
  00184	03 45 0c	 add	 eax, DWORD PTR __Count$[ebp]
  00187	89 45 0c	 mov	 DWORD PTR __Count$[ebp], eax

; 838  : 			if (_Myfirst != 0)

  0018a	8b 55 ec	 mov	 edx, DWORD PTR _this$[ebp]
  0018d	83 7a 04 00	 cmp	 DWORD PTR [edx+4], 0
  00191	74 35		 je	 SHORT $L193461

; 839  : 				{	// destroy and deallocate old array
; 840  : 				_Destroy(_Myfirst, _Mylast);

  00193	8b 45 ec	 mov	 eax, DWORD PTR _this$[ebp]
  00196	8b 48 08	 mov	 ecx, DWORD PTR [eax+8]
  00199	51		 push	 ecx
  0019a	8b 55 ec	 mov	 edx, DWORD PTR _this$[ebp]
  0019d	8b 42 04	 mov	 eax, DWORD PTR [edx+4]
  001a0	50		 push	 eax
  001a1	8b 4d ec	 mov	 ecx, DWORD PTR _this$[ebp]
  001a4	e8 00 00 00 00	 call	 ?_Destroy@?$vector@PAVIChangeSkinEventListener@@V?$allocator@PAVIChangeSkinEventListener@@@std@@@std@@IAEXPAPAVIChangeSkinEventListener@@0@Z ; std::vector<IChangeSkinEventListener *,std::allocator<IChangeSkinEventListener *> >::_Destroy

; 841  : 				this->_Alval.deallocate(_Myfirst, _Myend - _Myfirst);

  001a9	8b 4d ec	 mov	 ecx, DWORD PTR _this$[ebp]
  001ac	8b 55 ec	 mov	 edx, DWORD PTR _this$[ebp]
  001af	8b 41 0c	 mov	 eax, DWORD PTR [ecx+12]
  001b2	2b 42 04	 sub	 eax, DWORD PTR [edx+4]
  001b5	c1 f8 02	 sar	 eax, 2
  001b8	50		 push	 eax
  001b9	8b 4d ec	 mov	 ecx, DWORD PTR _this$[ebp]
  001bc	8b 51 04	 mov	 edx, DWORD PTR [ecx+4]
  001bf	52		 push	 edx
  001c0	8b 4d ec	 mov	 ecx, DWORD PTR _this$[ebp]
  001c3	e8 00 00 00 00	 call	 ?deallocate@?$allocator@PAVIChangeSkinEventListener@@@std@@QAEXPAPAVIChangeSkinEventListener@@I@Z ; std::allocator<IChangeSkinEventListener *>::deallocate
$L193461:

; 842  : 				}
; 843  : 			_Myend = _Newvec + _Capacity;

  001c8	8b 45 dc	 mov	 eax, DWORD PTR __Capacity$[ebp]
  001cb	8b 4d d8	 mov	 ecx, DWORD PTR __Newvec$193453[ebp]
  001ce	8d 14 81	 lea	 edx, DWORD PTR [ecx+eax*4]
  001d1	8b 45 ec	 mov	 eax, DWORD PTR _this$[ebp]
  001d4	89 50 0c	 mov	 DWORD PTR [eax+12], edx

; 844  : 			_Mylast = _Newvec + _Count;

  001d7	8b 4d 0c	 mov	 ecx, DWORD PTR __Count$[ebp]
  001da	8b 55 d8	 mov	 edx, DWORD PTR __Newvec$193453[ebp]
  001dd	8d 04 8a	 lea	 eax, DWORD PTR [edx+ecx*4]
  001e0	8b 4d ec	 mov	 ecx, DWORD PTR _this$[ebp]
  001e3	89 41 08	 mov	 DWORD PTR [ecx+8], eax

; 845  : 			_Myfirst = _Newvec;

  001e6	8b 55 ec	 mov	 edx, DWORD PTR _this$[ebp]
  001e9	8b 45 d8	 mov	 eax, DWORD PTR __Newvec$193453[ebp]
  001ec	89 42 04	 mov	 DWORD PTR [edx+4], eax

; 846  : 			}
; 847  : 		else if ((size_type)(_Mylast - _ITER_BASE(_Where)) < _Count)

  001ef	e9 26 01 00 00	 jmp	 $L195422
$L193451:
  001f4	8b 4d ec	 mov	 ecx, DWORD PTR _this$[ebp]
  001f7	8b 51 08	 mov	 edx, DWORD PTR [ecx+8]
  001fa	2b 55 08	 sub	 edx, DWORD PTR __Where$[ebp]
  001fd	c1 fa 02	 sar	 edx, 2
  00200	3b 55 0c	 cmp	 edx, DWORD PTR __Count$[ebp]
  00203	0f 83 ad 00 00
	00		 jae	 $L193464

; 848  : 			{	// new stuff spills off end
; 849  : 			_Ucopy(_ITER_BASE(_Where), _Mylast,
; 850  : 				_ITER_BASE(_Where) + _Count);	// copy suffix

  00209	8b 45 0c	 mov	 eax, DWORD PTR __Count$[ebp]
  0020c	8b 4d 08	 mov	 ecx, DWORD PTR __Where$[ebp]
  0020f	8d 14 81	 lea	 edx, DWORD PTR [ecx+eax*4]
  00212	52		 push	 edx
  00213	8b 45 ec	 mov	 eax, DWORD PTR _this$[ebp]
  00216	8b 48 08	 mov	 ecx, DWORD PTR [eax+8]
  00219	51		 push	 ecx
  0021a	8b 55 08	 mov	 edx, DWORD PTR __Where$[ebp]
  0021d	52		 push	 edx
  0021e	8b 4d ec	 mov	 ecx, DWORD PTR _this$[ebp]
  00221	e8 00 00 00 00	 call	 ??$_Ucopy@PAPAVIChangeSkinEventListener@@@?$vector@PAVIChangeSkinEventListener@@V?$allocator@PAVIChangeSkinEventListener@@@std@@@std@@IAEPAPAVIChangeSkinEventListener@@PAPAV2@00@Z ; std::vector<IChangeSkinEventListener *,std::allocator<IChangeSkinEventListener *> >::_Ucopy<IChangeSkinEventListener * *>

; 851  : 
; 852  : 			_TRY_BEGIN

  00226	c7 45 fc 02 00
	00 00		 mov	 DWORD PTR __$EHRec$[ebp+12], 2

; 853  : 			_Ufill(_Mylast, _Count - (_Mylast - _ITER_BASE(_Where)),
; 854  : 				_Tmp);	// insert new stuff off end

  0022d	8d 45 e4	 lea	 eax, DWORD PTR __Tmp$[ebp]
  00230	50		 push	 eax
  00231	8b 4d ec	 mov	 ecx, DWORD PTR _this$[ebp]
  00234	8b 51 08	 mov	 edx, DWORD PTR [ecx+8]
  00237	2b 55 08	 sub	 edx, DWORD PTR __Where$[ebp]
  0023a	c1 fa 02	 sar	 edx, 2
  0023d	8b 45 0c	 mov	 eax, DWORD PTR __Count$[ebp]
  00240	2b c2		 sub	 eax, edx
  00242	50		 push	 eax
  00243	8b 4d ec	 mov	 ecx, DWORD PTR _this$[ebp]
  00246	8b 51 08	 mov	 edx, DWORD PTR [ecx+8]
  00249	52		 push	 edx
  0024a	8b 4d ec	 mov	 ecx, DWORD PTR _this$[ebp]
  0024d	e8 00 00 00 00	 call	 ?_Ufill@?$vector@PAVIChangeSkinEventListener@@V?$allocator@PAVIChangeSkinEventListener@@@std@@@std@@IAEPAPAVIChangeSkinEventListener@@PAPAV3@IABQAV3@@Z ; std::vector<IChangeSkinEventListener *,std::allocator<IChangeSkinEventListener *> >::_Ufill
  00252	eb 28		 jmp	 SHORT $L195428
$L195429:

; 855  : 			_CATCH_ALL
; 856  : 			_Destroy(_ITER_BASE(_Where) + _Count, _Mylast + _Count);

  00254	8b 45 ec	 mov	 eax, DWORD PTR _this$[ebp]
  00257	8b 48 08	 mov	 ecx, DWORD PTR [eax+8]
  0025a	8b 55 0c	 mov	 edx, DWORD PTR __Count$[ebp]
  0025d	8d 04 91	 lea	 eax, DWORD PTR [ecx+edx*4]
  00260	50		 push	 eax
  00261	8b 4d 0c	 mov	 ecx, DWORD PTR __Count$[ebp]
  00264	8b 55 08	 mov	 edx, DWORD PTR __Where$[ebp]
  00267	8d 04 8a	 lea	 eax, DWORD PTR [edx+ecx*4]
  0026a	50		 push	 eax
  0026b	8b 4d ec	 mov	 ecx, DWORD PTR _this$[ebp]
  0026e	e8 00 00 00 00	 call	 ?_Destroy@?$vector@PAVIChangeSkinEventListener@@V?$allocator@PAVIChangeSkinEventListener@@@std@@@std@@IAEXPAPAVIChangeSkinEventListener@@0@Z ; std::vector<IChangeSkinEventListener *,std::allocator<IChangeSkinEventListener *> >::_Destroy

; 857  : 			_RERAISE;

  00273	6a 00		 push	 0
  00275	6a 00		 push	 0
  00277	e8 00 00 00 00	 call	 __CxxThrowException@8
$L195428:

; 858  : 			_CATCH_END

  0027c	c7 45 fc ff ff
	ff ff		 mov	 DWORD PTR __$EHRec$[ebp+12], -1

; 859  : 
; 860  : 			_Mylast += _Count;

  00283	8b 4d ec	 mov	 ecx, DWORD PTR _this$[ebp]
  00286	8b 51 08	 mov	 edx, DWORD PTR [ecx+8]
  00289	8b 45 0c	 mov	 eax, DWORD PTR __Count$[ebp]
  0028c	8d 0c 82	 lea	 ecx, DWORD PTR [edx+eax*4]
  0028f	8b 55 ec	 mov	 edx, DWORD PTR _this$[ebp]
  00292	89 4a 08	 mov	 DWORD PTR [edx+8], ecx

; 861  : 			fill(_ITER_BASE(_Where), _Mylast - _Count,
; 862  : 				_Tmp);	// insert up to old end

  00295	8d 45 e4	 lea	 eax, DWORD PTR __Tmp$[ebp]
  00298	50		 push	 eax
  00299	8b 4d 0c	 mov	 ecx, DWORD PTR __Count$[ebp]
  0029c	c1 e1 02	 shl	 ecx, 2
  0029f	8b 55 ec	 mov	 edx, DWORD PTR _this$[ebp]
  002a2	8b 42 08	 mov	 eax, DWORD PTR [edx+8]
  002a5	2b c1		 sub	 eax, ecx
  002a7	50		 push	 eax
  002a8	8b 4d 08	 mov	 ecx, DWORD PTR __Where$[ebp]
  002ab	51		 push	 ecx
  002ac	e8 00 00 00 00	 call	 ??$fill@PAPAVIChangeSkinEventListener@@PAV1@@std@@YAXPAPAVIChangeSkinEventListener@@0ABQAV1@@Z ; std::fill<IChangeSkinEventListener * *,IChangeSkinEventListener *>
  002b1	83 c4 0c	 add	 esp, 12			; 0000000cH

; 863  : 			}
; 864  : 		else

  002b4	eb 64		 jmp	 SHORT $L195422
$L193464:

; 865  : 			{	// new stuff can all be assigned
; 866  : 			pointer _Oldend = _Mylast;

  002b6	8b 55 ec	 mov	 edx, DWORD PTR _this$[ebp]
  002b9	8b 42 08	 mov	 eax, DWORD PTR [edx+8]
  002bc	89 45 d0	 mov	 DWORD PTR __Oldend$193474[ebp], eax

; 867  : 			_Mylast = _Ucopy(_Oldend - _Count, _Oldend,
; 868  : 				_Mylast);	// copy suffix

  002bf	8b 4d ec	 mov	 ecx, DWORD PTR _this$[ebp]
  002c2	8b 51 08	 mov	 edx, DWORD PTR [ecx+8]
  002c5	52		 push	 edx
  002c6	8b 45 d0	 mov	 eax, DWORD PTR __Oldend$193474[ebp]
  002c9	50		 push	 eax
  002ca	8b 4d 0c	 mov	 ecx, DWORD PTR __Count$[ebp]
  002cd	c1 e1 02	 shl	 ecx, 2
  002d0	8b 55 d0	 mov	 edx, DWORD PTR __Oldend$193474[ebp]
  002d3	2b d1		 sub	 edx, ecx
  002d5	52		 push	 edx
  002d6	8b 4d ec	 mov	 ecx, DWORD PTR _this$[ebp]
  002d9	e8 00 00 00 00	 call	 ??$_Ucopy@PAPAVIChangeSkinEventListener@@@?$vector@PAVIChangeSkinEventListener@@V?$allocator@PAVIChangeSkinEventListener@@@std@@@std@@IAEPAPAVIChangeSkinEventListener@@PAPAV2@00@Z ; std::vector<IChangeSkinEventListener *,std::allocator<IChangeSkinEventListener *> >::_Ucopy<IChangeSkinEventListener * *>
  002de	8b 4d ec	 mov	 ecx, DWORD PTR _this$[ebp]
  002e1	89 41 08	 mov	 DWORD PTR [ecx+8], eax

; 869  : 			copy_backward(_ITER_BASE(_Where), _Oldend - _Count,
; 870  : 				_Oldend);	// copy hole

  002e4	8b 55 d0	 mov	 edx, DWORD PTR __Oldend$193474[ebp]
  002e7	52		 push	 edx
  002e8	8b 45 0c	 mov	 eax, DWORD PTR __Count$[ebp]
  002eb	c1 e0 02	 shl	 eax, 2
  002ee	8b 4d d0	 mov	 ecx, DWORD PTR __Oldend$193474[ebp]
  002f1	2b c8		 sub	 ecx, eax
  002f3	51		 push	 ecx
  002f4	8b 55 08	 mov	 edx, DWORD PTR __Where$[ebp]
  002f7	52		 push	 edx
  002f8	e8 00 00 00 00	 call	 ??$copy_backward@PAPAVIChangeSkinEventListener@@PAPAV1@@std@@YAPAPAVIChangeSkinEventListener@@PAPAV1@00@Z ; std::copy_backward<IChangeSkinEventListener * *,IChangeSkinEventListener * *>
  002fd	83 c4 0c	 add	 esp, 12			; 0000000cH

; 871  : 			fill(_ITER_BASE(_Where), _ITER_BASE(_Where) + _Count,
; 872  : 				_Tmp);	// insert into hole

  00300	8d 45 e4	 lea	 eax, DWORD PTR __Tmp$[ebp]
  00303	50		 push	 eax
  00304	8b 4d 0c	 mov	 ecx, DWORD PTR __Count$[ebp]
  00307	8b 55 08	 mov	 edx, DWORD PTR __Where$[ebp]
  0030a	8d 04 8a	 lea	 eax, DWORD PTR [edx+ecx*4]
  0030d	50		 push	 eax
  0030e	8b 4d 08	 mov	 ecx, DWORD PTR __Where$[ebp]
  00311	51		 push	 ecx
  00312	e8 00 00 00 00	 call	 ??$fill@PAPAVIChangeSkinEventListener@@PAV1@@std@@YAXPAPAVIChangeSkinEventListener@@0ABQAV1@@Z ; std::fill<IChangeSkinEventListener * *,IChangeSkinEventListener *>
  00317	83 c4 0c	 add	 esp, 12			; 0000000cH
$L195422:

; 873  : 			}
; 874  : 		}

  0031a	52		 push	 edx
  0031b	8b cd		 mov	 ecx, ebp
  0031d	50		 push	 eax
  0031e	8d 15 00 00 00
	00		 lea	 edx, DWORD PTR $L195435
  00324	e8 00 00 00 00	 call	 @_RTC_CheckStackVars@8
  00329	58		 pop	 eax
  0032a	5a		 pop	 edx
  0032b	8b 4d f4	 mov	 ecx, DWORD PTR __$EHRec$[ebp+4]
  0032e	64 89 0d 00 00
	00 00		 mov	 DWORD PTR fs:__except_list, ecx
  00335	5f		 pop	 edi
  00336	5e		 pop	 esi
  00337	5b		 pop	 ebx
  00338	83 c4 3c	 add	 esp, 60			; 0000003cH
  0033b	3b ec		 cmp	 ebp, esp
  0033d	e8 00 00 00 00	 call	 __RTC_CheckEsp
  00342	8b e5		 mov	 esp, ebp
  00344	5d		 pop	 ebp
  00345	c2 0c 00	 ret	 12			; 0000000cH
$L195435:
  00348	01 00 00 00	 DD	 1
  0034c	00 00 00 00	 DD	 $L195434
$L195434:
  00350	e4 ff ff ff	 DD	 -28			; ffffffe4H
  00354	04 00 00 00	 DD	 4
  00358	00 00 00 00	 DD	 $L195432
$L195432:
  0035c	5f		 DB	 95			; 0000005fH
  0035d	54		 DB	 84			; 00000054H
  0035e	6d		 DB	 109			; 0000006dH
  0035f	70		 DB	 112			; 00000070H
  00360	00		 DB	 0
_TEXT	ENDS
;	COMDAT text$x
text$x	SEGMENT
__ehhandler$?_Insert_n@?$vector@PAVIChangeSkinEventListener@@V?$allocator@PAVIChangeSkinEventListener@@@std@@@std@@IAEXViterator@12@IABQAVIChangeSkinEventListener@@@Z:
  00000	b8 00 00 00 00	 mov	 eax, OFFSET FLAT:$T195431
  00005	e9 00 00 00 00	 jmp	 ___CxxFrameHandler
text$x	ENDS
?_Insert_n@?$vector@PAVIChangeSkinEventListener@@V?$allocator@PAVIChangeSkinEventListener@@@std@@@std@@IAEXViterator@12@IABQAVIChangeSkinEventListener@@@Z ENDP ; std::vector<IChangeSkinEventListener *,std::allocator<IChangeSkinEventListener *> >::_Insert_n
PUBLIC	??_R0?AVlogic_error@std@@@8			; std::logic_error `RTTI Type Descriptor'
PUBLIC	__CT??_R0?AVlogic_error@std@@@8??0logic_error@std@@QAE@ABV01@@Z40
PUBLIC	??_R0?AVexception@@@8				; exception `RTTI Type Descriptor'
PUBLIC	__CT??_R0?AVexception@@@8??0exception@@QAE@ABV0@@Z12
PUBLIC	??_R0?AVlength_error@std@@@8			; std::length_error `RTTI Type Descriptor'
PUBLIC	??0logic_error@std@@QAE@ABV01@@Z		; std::logic_error::logic_error
PUBLIC	??0length_error@std@@QAE@ABV?$basic_string@DU?$char_traits@D@std@@V?$allocator@D@2@@1@@Z ; std::length_error::length_error
PUBLIC	??1length_error@std@@UAE@XZ			; std::length_error::~length_error
PUBLIC	??0length_error@std@@QAE@ABV01@@Z		; std::length_error::length_error
PUBLIC	__TI3?AVlength_error@std@@
PUBLIC	__CTA3?AVlength_error@std@@
PUBLIC	__CT??_R0?AVlength_error@std@@@8??0length_error@std@@QAE@ABV01@@Z40
PUBLIC	??_C@_0BD@OLBABOEK@vector?$DMT?$DO?5too?5long?$AA@ ; `string'
EXTRN	??0exception@@QAE@ABV0@@Z:NEAR			; exception::exception
;	COMDAT xdata$x
xdata$x	SEGMENT
$T195449 DD	0ffffffffH
	DD	FLAT:$L195445
$T195447 DD	019930520H
	DD	01H
	DD	FLAT:$T195449
	DD	2 DUP(00H)
	DD	2 DUP(00H)
xdata$x	ENDS
;	COMDAT ??_C@_0BD@OLBABOEK@vector?$DMT?$DO?5too?5long?$AA@
CONST	SEGMENT
??_C@_0BD@OLBABOEK@vector?$DMT?$DO?5too?5long?$AA@ DB 'vector<T> too long'
	DB	00H						; `string'
CONST	ENDS
;	COMDAT __TI3?AVlength_error@std@@
xdata$x	SEGMENT
__TI3?AVlength_error@std@@ DD 00H
	DD	FLAT:??1length_error@std@@UAE@XZ
	DD	00H
	DD	FLAT:__CTA3?AVlength_error@std@@
xdata$x	ENDS
;	COMDAT __CTA3?AVlength_error@std@@
xdata$x	SEGMENT
__CTA3?AVlength_error@std@@ DD 03H
	DD	FLAT:__CT??_R0?AVlength_error@std@@@8??0length_error@std@@QAE@ABV01@@Z40
	DD	FLAT:__CT??_R0?AVlogic_error@std@@@8??0logic_error@std@@QAE@ABV01@@Z40
	DD	FLAT:__CT??_R0?AVexception@@@8??0exception@@QAE@ABV0@@Z12
xdata$x	ENDS
;	COMDAT __CT??_R0?AVlength_error@std@@@8??0length_error@std@@QAE@ABV01@@Z40
xdata$x	SEGMENT
__CT??_R0?AVlength_error@std@@@8??0length_error@std@@QAE@ABV01@@Z40 DD 00H
	DD	FLAT:??_R0?AVlength_error@std@@@8
	DD	00H
	DD	0ffffffffH
	ORG $+4
	DD	028H
	DD	FLAT:??0length_error@std@@QAE@ABV01@@Z
xdata$x	ENDS
;	COMDAT ??_R0?AVlength_error@std@@@8
_DATA	SEGMENT
??_R0?AVlength_error@std@@@8 DD FLAT:??_7type_info@@6B@	; std::length_error `RTTI Type Descriptor'
	DD	00H
	DB	'.?AVlength_error@std@@', 00H
	ORG $-31
	DD	FLAT:??_7type_info@@6B@
	DD	00H
	DB	'.?AVlength_error@std@@', 00H
_DATA	ENDS
;	COMDAT __CT??_R0?AVlogic_error@std@@@8??0logic_error@std@@QAE@ABV01@@Z40
xdata$x	SEGMENT
__CT??_R0?AVlogic_error@std@@@8??0logic_error@std@@QAE@ABV01@@Z40 DD 00H
	DD	FLAT:??_R0?AVlogic_error@std@@@8
	DD	00H
	DD	0ffffffffH
	ORG $+4
	DD	028H
	DD	FLAT:??0logic_error@std@@QAE@ABV01@@Z
xdata$x	ENDS
;	COMDAT ??_R0?AVlogic_error@std@@@8
_DATA	SEGMENT
??_R0?AVlogic_error@std@@@8 DD FLAT:??_7type_info@@6B@	; std::logic_error `RTTI Type Descriptor'
	DD	00H
	DB	'.?AVlogic_error@std@@', 00H
	ORG $-30
	DD	FLAT:??_7type_info@@6B@
	DD	00H
	DB	'.?AVlogic_error@std@@', 00H
_DATA	ENDS
;	COMDAT __CT??_R0?AVexception@@@8??0exception@@QAE@ABV0@@Z12
xdata$x	SEGMENT
__CT??_R0?AVexception@@@8??0exception@@QAE@ABV0@@Z12 DD 00H
	DD	FLAT:??_R0?AVexception@@@8
	DD	00H
	DD	0ffffffffH
	ORG $+4
	DD	0cH
	DD	FLAT:??0exception@@QAE@ABV0@@Z
xdata$x	ENDS
;	COMDAT ??_R0?AVexception@@@8
_DATA	SEGMENT
??_R0?AVexception@@@8 DD FLAT:??_7type_info@@6B@	; exception `RTTI Type Descriptor'
	DD	00H
	DB	'.?AVexception@@', 00H
	ORG $-24
	DD	FLAT:??_7type_info@@6B@
	DD	00H
	DB	'.?AVexception@@', 00H
; Function compile flags: /Odt /RTCsu
_DATA	ENDS
;	COMDAT ?_Xlen@?$vector@PAVIChangeSkinEventListener@@V?$allocator@PAVIChangeSkinEventListener@@@std@@@std@@IBEXXZ
_TEXT	SEGMENT
$T195444 = -84						; size = 28
$T195443 = -56						; size = 40
_this$ = -16						; size = 4
__$EHRec$ = -12						; size = 12
?_Xlen@?$vector@PAVIChangeSkinEventListener@@V?$allocator@PAVIChangeSkinEventListener@@@std@@@std@@IBEXXZ PROC NEAR ; std::vector<IChangeSkinEventListener *,std::allocator<IChangeSkinEventListener *> >::_Xlen, COMDAT
; _this$ = ecx

; 883  : 		{	// report a length_error

  00000	55		 push	 ebp
  00001	8b ec		 mov	 ebp, esp
  00003	6a ff		 push	 -1
  00005	68 00 00 00 00	 push	 __ehhandler$?_Xlen@?$vector@PAVIChangeSkinEventListener@@V?$allocator@PAVIChangeSkinEventListener@@@std@@@std@@IBEXXZ
  0000a	64 a1 00 00 00
	00		 mov	 eax, DWORD PTR fs:__except_list
  00010	50		 push	 eax
  00011	64 89 25 00 00
	00 00		 mov	 DWORD PTR fs:__except_list, esp
  00018	83 ec 48	 sub	 esp, 72			; 00000048H
  0001b	56		 push	 esi
  0001c	57		 push	 edi
  0001d	51		 push	 ecx
  0001e	8d 7d ac	 lea	 edi, DWORD PTR [ebp-84]
  00021	b9 12 00 00 00	 mov	 ecx, 18			; 00000012H
  00026	b8 cc cc cc cc	 mov	 eax, -858993460		; ccccccccH
  0002b	f3 ab		 rep stosd
  0002d	59		 pop	 ecx
  0002e	89 4d f0	 mov	 DWORD PTR _this$[ebp], ecx

; 884  : 		_THROW(length_error, "vector<T> too long");

  00031	8b f4		 mov	 esi, esp
  00033	68 00 00 00 00	 push	 OFFSET FLAT:??_C@_0BD@OLBABOEK@vector?$DMT?$DO?5too?5long?$AA@
  00038	8d 4d ac	 lea	 ecx, DWORD PTR $T195444[ebp]
  0003b	ff 15 00 00 00
	00		 call	 DWORD PTR __imp_??0?$basic_string@DU?$char_traits@D@std@@V?$allocator@D@2@@std@@QAE@PBD@Z
  00041	3b f4		 cmp	 esi, esp
  00043	e8 00 00 00 00	 call	 __RTC_CheckEsp
  00048	c7 45 fc 00 00
	00 00		 mov	 DWORD PTR __$EHRec$[ebp+8], 0
  0004f	8d 45 ac	 lea	 eax, DWORD PTR $T195444[ebp]
  00052	50		 push	 eax
  00053	8d 4d c8	 lea	 ecx, DWORD PTR $T195443[ebp]
  00056	e8 00 00 00 00	 call	 ??0length_error@std@@QAE@ABV?$basic_string@DU?$char_traits@D@std@@V?$allocator@D@2@@1@@Z ; std::length_error::length_error
  0005b	68 00 00 00 00	 push	 OFFSET FLAT:__TI3?AVlength_error@std@@
  00060	8d 4d c8	 lea	 ecx, DWORD PTR $T195443[ebp]
  00063	51		 push	 ecx
  00064	e8 00 00 00 00	 call	 __CxxThrowException@8
$L195442:

; 885  : 		}

  00069	8b 4d f4	 mov	 ecx, DWORD PTR __$EHRec$[ebp]
  0006c	64 89 0d 00 00
	00 00		 mov	 DWORD PTR fs:__except_list, ecx
  00073	5f		 pop	 edi
  00074	5e		 pop	 esi
  00075	83 c4 54	 add	 esp, 84			; 00000054H
  00078	3b ec		 cmp	 ebp, esp
  0007a	e8 00 00 00 00	 call	 __RTC_CheckEsp
  0007f	8b e5		 mov	 esp, ebp
  00081	5d		 pop	 ebp
  00082	c3		 ret	 0
_TEXT	ENDS
;	COMDAT text$x
text$x	SEGMENT
$L195445:
  00000	8b f4		 mov	 esi, esp
  00002	8d 4d ac	 lea	 ecx, DWORD PTR $T195444[ebp]
  00005	ff 15 00 00 00
	00		 call	 DWORD PTR __imp_??1?$basic_string@DU?$char_traits@D@std@@V?$allocator@D@2@@std@@QAE@XZ
  0000b	3b f4		 cmp	 esi, esp
  0000d	e9 00 00 00 00	 jmp	 __RTC_CheckEsp
__ehhandler$?_Xlen@?$vector@PAVIChangeSkinEventListener@@V?$allocator@PAVIChangeSkinEventListener@@@std@@@std@@IBEXXZ:
  00012	b8 00 00 00 00	 mov	 eax, OFFSET FLAT:$T195447
  00017	e9 00 00 00 00	 jmp	 ___CxxFrameHandler
text$x	ENDS
?_Xlen@?$vector@PAVIChangeSkinEventListener@@V?$allocator@PAVIChangeSkinEventListener@@@std@@@std@@IBEXXZ ENDP ; std::vector<IChangeSkinEventListener *,std::allocator<IChangeSkinEventListener *> >::_Xlen
; Function compile flags: /Odt /RTCsu
; File d:\program files (x86)\microsoft visual studio .net 2003\vc7\include\xmemory
;	COMDAT ??0?$allocator@PAVIChangeSkinEventListener@@@std@@QAE@ABV01@@Z
_TEXT	SEGMENT
_this$ = -4						; size = 4
___formal$ = 8						; size = 4
??0?$allocator@PAVIChangeSkinEventListener@@@std@@QAE@ABV01@@Z PROC NEAR ; std::allocator<IChangeSkinEventListener *>::allocator<IChangeSkinEventListener *>, COMDAT
; _this$ = ecx

; 115  : 	allocator(const allocator<_Ty>&)

  00000	55		 push	 ebp
  00001	8b ec		 mov	 ebp, esp
  00003	51		 push	 ecx
  00004	c7 45 fc cc cc
	cc cc		 mov	 DWORD PTR [ebp-4], -858993460 ; ccccccccH
  0000b	89 4d fc	 mov	 DWORD PTR _this$[ebp], ecx

; 116  : 		{	// construct by copying (do nothing)
; 117  : 		}

  0000e	8b 45 fc	 mov	 eax, DWORD PTR _this$[ebp]
  00011	8b e5		 mov	 esp, ebp
  00013	5d		 pop	 ebp
  00014	c2 04 00	 ret	 4
??0?$allocator@PAVIChangeSkinEventListener@@@std@@QAE@ABV01@@Z ENDP ; std::allocator<IChangeSkinEventListener *>::allocator<IChangeSkinEventListener *>
; Function compile flags: /Odt /RTCsu
_TEXT	ENDS
;	COMDAT ?deallocate@?$allocator@PAVIChangeSkinEventListener@@@std@@QAEXPAPAVIChangeSkinEventListener@@I@Z
_TEXT	SEGMENT
_this$ = -4						; size = 4
__Ptr$ = 8						; size = 4
___formal$ = 12						; size = 4
?deallocate@?$allocator@PAVIChangeSkinEventListener@@@std@@QAEXPAPAVIChangeSkinEventListener@@I@Z PROC NEAR ; std::allocator<IChangeSkinEventListener *>::deallocate, COMDAT
; _this$ = ecx

; 131  : 		{	// deallocate object at _Ptr, ignore size

  00000	55		 push	 ebp
  00001	8b ec		 mov	 ebp, esp
  00003	51		 push	 ecx
  00004	c7 45 fc cc cc
	cc cc		 mov	 DWORD PTR [ebp-4], -858993460 ; ccccccccH
  0000b	89 4d fc	 mov	 DWORD PTR _this$[ebp], ecx

; 132  : 		operator delete(_Ptr);

  0000e	8b 45 08	 mov	 eax, DWORD PTR __Ptr$[ebp]
  00011	50		 push	 eax
  00012	e8 00 00 00 00	 call	 ??3@YAXPAX@Z		; operator delete
  00017	83 c4 04	 add	 esp, 4

; 133  : 		}

  0001a	83 c4 04	 add	 esp, 4
  0001d	3b ec		 cmp	 ebp, esp
  0001f	e8 00 00 00 00	 call	 __RTC_CheckEsp
  00024	8b e5		 mov	 esp, ebp
  00026	5d		 pop	 ebp
  00027	c2 08 00	 ret	 8
?deallocate@?$allocator@PAVIChangeSkinEventListener@@@std@@QAEXPAPAVIChangeSkinEventListener@@I@Z ENDP ; std::allocator<IChangeSkinEventListener *>::deallocate
_TEXT	ENDS
PUBLIC	??$_Allocate@PAVIChangeSkinEventListener@@@std@@YAPAPAVIChangeSkinEventListener@@IPAPAV1@@Z ; std::_Allocate<IChangeSkinEventListener *>
; Function compile flags: /Odt /RTCsu
;	COMDAT ?allocate@?$allocator@PAVIChangeSkinEventListener@@@std@@QAEPAPAVIChangeSkinEventListener@@I@Z
_TEXT	SEGMENT
_this$ = -4						; size = 4
__Count$ = 8						; size = 4
?allocate@?$allocator@PAVIChangeSkinEventListener@@@std@@QAEPAPAVIChangeSkinEventListener@@I@Z PROC NEAR ; std::allocator<IChangeSkinEventListener *>::allocate, COMDAT
; _this$ = ecx

; 136  : 		{	// allocate array of _Count elements

  00000	55		 push	 ebp
  00001	8b ec		 mov	 ebp, esp
  00003	51		 push	 ecx
  00004	c7 45 fc cc cc
	cc cc		 mov	 DWORD PTR [ebp-4], -858993460 ; ccccccccH
  0000b	89 4d fc	 mov	 DWORD PTR _this$[ebp], ecx

; 137  : 		return (_Allocate(_Count, (pointer)0));

  0000e	6a 00		 push	 0
  00010	8b 45 08	 mov	 eax, DWORD PTR __Count$[ebp]
  00013	50		 push	 eax
  00014	e8 00 00 00 00	 call	 ??$_Allocate@PAVIChangeSkinEventListener@@@std@@YAPAPAVIChangeSkinEventListener@@IPAPAV1@@Z ; std::_Allocate<IChangeSkinEventListener *>
  00019	83 c4 08	 add	 esp, 8

; 138  : 		}

  0001c	83 c4 04	 add	 esp, 4
  0001f	3b ec		 cmp	 ebp, esp
  00021	e8 00 00 00 00	 call	 __RTC_CheckEsp
  00026	8b e5		 mov	 esp, ebp
  00028	5d		 pop	 ebp
  00029	c2 04 00	 ret	 4
?allocate@?$allocator@PAVIChangeSkinEventListener@@@std@@QAEPAPAVIChangeSkinEventListener@@I@Z ENDP ; std::allocator<IChangeSkinEventListener *>::allocate
; Function compile flags: /Odt /RTCsu
; File d:\program files (x86)\microsoft visual studio .net 2003\vc7\include\vector
_TEXT	ENDS
;	COMDAT ??Yiterator@?$vector@PAVIChangeSkinEventListener@@V?$allocator@PAVIChangeSkinEventListener@@@std@@@std@@QAEAAV012@H@Z
_TEXT	SEGMENT
_this$ = -4						; size = 4
__Off$ = 8						; size = 4
??Yiterator@?$vector@PAVIChangeSkinEventListener@@V?$allocator@PAVIChangeSkinEventListener@@@std@@@std@@QAEAAV012@H@Z PROC NEAR ; std::vector<IChangeSkinEventListener *,std::allocator<IChangeSkinEventListener *> >::iterator::operator+=, COMDAT
; _this$ = ecx

; 255  : 			{	// increment by integer

  00000	55		 push	 ebp
  00001	8b ec		 mov	 ebp, esp
  00003	51		 push	 ecx
  00004	c7 45 fc cc cc
	cc cc		 mov	 DWORD PTR [ebp-4], -858993460 ; ccccccccH
  0000b	89 4d fc	 mov	 DWORD PTR _this$[ebp], ecx

; 256  : 			this->_Myptr += _Off;

  0000e	8b 45 fc	 mov	 eax, DWORD PTR _this$[ebp]
  00011	8b 08		 mov	 ecx, DWORD PTR [eax]
  00013	8b 55 08	 mov	 edx, DWORD PTR __Off$[ebp]
  00016	8d 04 91	 lea	 eax, DWORD PTR [ecx+edx*4]
  00019	8b 4d fc	 mov	 ecx, DWORD PTR _this$[ebp]
  0001c	89 01		 mov	 DWORD PTR [ecx], eax

; 257  : 			return (*this);

  0001e	8b 45 fc	 mov	 eax, DWORD PTR _this$[ebp]

; 258  : 			}

  00021	8b e5		 mov	 esp, ebp
  00023	5d		 pop	 ebp
  00024	c2 04 00	 ret	 4
??Yiterator@?$vector@PAVIChangeSkinEventListener@@V?$allocator@PAVIChangeSkinEventListener@@@std@@@std@@QAEAAV012@H@Z ENDP ; std::vector<IChangeSkinEventListener *,std::allocator<IChangeSkinEventListener *> >::iterator::operator+=
_TEXT	ENDS
PUBLIC	??Gconst_iterator@?$vector@PAVIChangeSkinEventListener@@V?$allocator@PAVIChangeSkinEventListener@@@std@@@std@@QBEHABV012@@Z ; std::vector<IChangeSkinEventListener *,std::allocator<IChangeSkinEventListener *> >::const_iterator::operator-
; Function compile flags: /Odt /RTCsu
;	COMDAT ??Giterator@?$vector@PAVIChangeSkinEventListener@@V?$allocator@PAVIChangeSkinEventListener@@@std@@@std@@QBEHABVconst_iterator@12@@Z
_TEXT	SEGMENT
$T195457 = -8						; size = 4
_this$ = -4						; size = 4
__Right$ = 8						; size = 4
??Giterator@?$vector@PAVIChangeSkinEventListener@@V?$allocator@PAVIChangeSkinEventListener@@@std@@@std@@QBEHABVconst_iterator@12@@Z PROC NEAR ; std::vector<IChangeSkinEventListener *,std::allocator<IChangeSkinEventListener *> >::iterator::operator-, COMDAT
; _this$ = ecx

; 278  : 			{	// return difference of iterators

  00000	55		 push	 ebp
  00001	8b ec		 mov	 ebp, esp
  00003	83 ec 08	 sub	 esp, 8
  00006	c7 45 f8 cc cc
	cc cc		 mov	 DWORD PTR [ebp-8], -858993460 ; ccccccccH
  0000d	c7 45 fc cc cc
	cc cc		 mov	 DWORD PTR [ebp-4], -858993460 ; ccccccccH
  00014	89 4d fc	 mov	 DWORD PTR _this$[ebp], ecx

; 279  : 			return ((const_iterator)*this - _Right);

  00017	8b 45 fc	 mov	 eax, DWORD PTR _this$[ebp]
  0001a	8b 08		 mov	 ecx, DWORD PTR [eax]
  0001c	89 4d f8	 mov	 DWORD PTR $T195457[ebp], ecx
  0001f	8b 55 08	 mov	 edx, DWORD PTR __Right$[ebp]
  00022	52		 push	 edx
  00023	8d 4d f8	 lea	 ecx, DWORD PTR $T195457[ebp]
  00026	e8 00 00 00 00	 call	 ??Gconst_iterator@?$vector@PAVIChangeSkinEventListener@@V?$allocator@PAVIChangeSkinEventListener@@@std@@@std@@QBEHABV012@@Z ; std::vector<IChangeSkinEventListener *,std::allocator<IChangeSkinEventListener *> >::const_iterator::operator-

; 280  : 			}

  0002b	83 c4 08	 add	 esp, 8
  0002e	3b ec		 cmp	 ebp, esp
  00030	e8 00 00 00 00	 call	 __RTC_CheckEsp
  00035	8b e5		 mov	 esp, ebp
  00037	5d		 pop	 ebp
  00038	c2 04 00	 ret	 4
??Giterator@?$vector@PAVIChangeSkinEventListener@@V?$allocator@PAVIChangeSkinEventListener@@@std@@@std@@QBEHABVconst_iterator@12@@Z ENDP ; std::vector<IChangeSkinEventListener *,std::allocator<IChangeSkinEventListener *> >::iterator::operator-
; Function compile flags: /Odt /RTCsu
_TEXT	ENDS
;	COMDAT ??0const_iterator@?$vector@PAVIChangeSkinEventListener@@V?$allocator@PAVIChangeSkinEventListener@@@std@@@std@@QAE@PAPAVIChangeSkinEventListener@@@Z
_TEXT	SEGMENT
_this$ = -4						; size = 4
__Ptr$ = 8						; size = 4
??0const_iterator@?$vector@PAVIChangeSkinEventListener@@V?$allocator@PAVIChangeSkinEventListener@@@std@@@std@@QAE@PAPAVIChangeSkinEventListener@@@Z PROC NEAR ; std::vector<IChangeSkinEventListener *,std::allocator<IChangeSkinEventListener *> >::const_iterator::const_iterator, COMDAT
; _this$ = ecx

; 73   : 		const_iterator(_Tptr _Ptr)

  00000	55		 push	 ebp
  00001	8b ec		 mov	 ebp, esp
  00003	51		 push	 ecx
  00004	c7 45 fc cc cc
	cc cc		 mov	 DWORD PTR [ebp-4], -858993460 ; ccccccccH
  0000b	89 4d fc	 mov	 DWORD PTR _this$[ebp], ecx

; 74   : 			{	// construct with pointer _Ptr
; 75   : 			_Myptr = _Ptr;

  0000e	8b 45 fc	 mov	 eax, DWORD PTR _this$[ebp]
  00011	8b 4d 08	 mov	 ecx, DWORD PTR __Ptr$[ebp]
  00014	89 08		 mov	 DWORD PTR [eax], ecx

; 76   : 			}

  00016	8b 45 fc	 mov	 eax, DWORD PTR _this$[ebp]
  00019	8b e5		 mov	 esp, ebp
  0001b	5d		 pop	 ebp
  0001c	c2 04 00	 ret	 4
??0const_iterator@?$vector@PAVIChangeSkinEventListener@@V?$allocator@PAVIChangeSkinEventListener@@@std@@@std@@QAE@PAPAVIChangeSkinEventListener@@@Z ENDP ; std::vector<IChangeSkinEventListener *,std::allocator<IChangeSkinEventListener *> >::const_iterator::const_iterator
_TEXT	ENDS
PUBLIC	?max_size@?$allocator@V?$basic_string@DU?$char_traits@D@std@@V?$allocator@D@2@@std@@@std@@QBEIXZ ; std::allocator<std::basic_string<char,std::char_traits<char>,std::allocator<char> > >::max_size
; Function compile flags: /Odt /RTCsu
;	COMDAT ?max_size@?$vector@V?$basic_string@DU?$char_traits@D@std@@V?$allocator@D@2@@std@@V?$allocator@V?$basic_string@DU?$char_traits@D@std@@V?$allocator@D@2@@std@@@2@@std@@QBEIXZ
_TEXT	SEGMENT
_this$ = -4						; size = 4
?max_size@?$vector@V?$basic_string@DU?$char_traits@D@std@@V?$allocator@D@2@@std@@V?$allocator@V?$basic_string@DU?$char_traits@D@std@@V?$allocator@D@2@@std@@@2@@std@@QBEIXZ PROC NEAR ; std::vector<std::basic_string<char,std::char_traits<char>,std::allocator<char> >,std::allocator<std::basic_string<char,std::char_traits<char>,std::allocator<char> > > >::max_size, COMDAT
; _this$ = ecx

; 520  : 		{	// return maximum possible length of sequence

  00000	55		 push	 ebp
  00001	8b ec		 mov	 ebp, esp
  00003	51		 push	 ecx
  00004	c7 45 fc cc cc
	cc cc		 mov	 DWORD PTR [ebp-4], -858993460 ; ccccccccH
  0000b	89 4d fc	 mov	 DWORD PTR _this$[ebp], ecx

; 521  : 		return (this->_Alval.max_size());

  0000e	8b 4d fc	 mov	 ecx, DWORD PTR _this$[ebp]
  00011	e8 00 00 00 00	 call	 ?max_size@?$allocator@V?$basic_string@DU?$char_traits@D@std@@V?$allocator@D@2@@std@@@std@@QBEIXZ ; std::allocator<std::basic_string<char,std::char_traits<char>,std::allocator<char> > >::max_size

; 522  : 		}

  00016	83 c4 04	 add	 esp, 4
  00019	3b ec		 cmp	 ebp, esp
  0001b	e8 00 00 00 00	 call	 __RTC_CheckEsp
  00020	8b e5		 mov	 esp, ebp
  00022	5d		 pop	 ebp
  00023	c3		 ret	 0
?max_size@?$vector@V?$basic_string@DU?$char_traits@D@std@@V?$allocator@D@2@@std@@V?$allocator@V?$basic_string@DU?$char_traits@D@std@@V?$allocator@D@2@@std@@@2@@std@@QBEIXZ ENDP ; std::vector<std::basic_string<char,std::char_traits<char>,std::allocator<char> >,std::allocator<std::basic_string<char,std::char_traits<char>,std::allocator<char> > > >::max_size
_TEXT	ENDS
PUBLIC	??$_Destroy_range@V?$basic_string@DU?$char_traits@D@std@@V?$allocator@D@2@@std@@V?$allocator@V?$basic_string@DU?$char_traits@D@std@@V?$allocator@D@2@@std@@@2@@std@@YAXPAV?$basic_string@DU?$char_traits@D@std@@V?$allocator@D@2@@0@0AAV?$allocator@V?$basic_string@DU?$char_traits@D@std@@V?$allocator@D@2@@std@@@0@@Z ; std::_Destroy_range<std::basic_string<char,std::char_traits<char>,std::allocator<char> >,std::allocator<std::basic_string<char,std::char_traits<char>,std::allocator<char> > > >
; Function compile flags: /Odt /RTCsu
;	COMDAT ?_Destroy@?$vector@V?$basic_string@DU?$char_traits@D@std@@V?$allocator@D@2@@std@@V?$allocator@V?$basic_string@DU?$char_traits@D@std@@V?$allocator@D@2@@std@@@2@@std@@IAEXPAV?$basic_string@DU?$char_traits@D@std@@V?$allocator@D@2@@2@0@Z
_TEXT	SEGMENT
_this$ = -4						; size = 4
__First$ = 8						; size = 4
__Last$ = 12						; size = 4
?_Destroy@?$vector@V?$basic_string@DU?$char_traits@D@std@@V?$allocator@D@2@@std@@V?$allocator@V?$basic_string@DU?$char_traits@D@std@@V?$allocator@D@2@@std@@@2@@std@@IAEXPAV?$basic_string@DU?$char_traits@D@std@@V?$allocator@D@2@@2@0@Z PROC NEAR ; std::vector<std::basic_string<char,std::char_traits<char>,std::allocator<char> >,std::allocator<std::basic_string<char,std::char_traits<char>,std::allocator<char> > > >::_Destroy, COMDAT
; _this$ = ecx

; 786  : 		{	// destroy [_First, _Last) using allocator

  00000	55		 push	 ebp
  00001	8b ec		 mov	 ebp, esp
  00003	51		 push	 ecx
  00004	c7 45 fc cc cc
	cc cc		 mov	 DWORD PTR [ebp-4], -858993460 ; ccccccccH
  0000b	89 4d fc	 mov	 DWORD PTR _this$[ebp], ecx

; 787  : 		_Destroy_range(_First, _Last, this->_Alval);

  0000e	8b 45 fc	 mov	 eax, DWORD PTR _this$[ebp]
  00011	50		 push	 eax
  00012	8b 4d 0c	 mov	 ecx, DWORD PTR __Last$[ebp]
  00015	51		 push	 ecx
  00016	8b 55 08	 mov	 edx, DWORD PTR __First$[ebp]
  00019	52		 push	 edx
  0001a	e8 00 00 00 00	 call	 ??$_Destroy_range@V?$basic_string@DU?$char_traits@D@std@@V?$allocator@D@2@@std@@V?$allocator@V?$basic_string@DU?$char_traits@D@std@@V?$allocator@D@2@@std@@@2@@std@@YAXPAV?$basic_string@DU?$char_traits@D@std@@V?$allocator@D@2@@0@0AAV?$allocator@V?$basic_string@DU?$char_traits@D@std@@V?$allocator@D@2@@std@@@0@@Z ; std::_Destroy_range<std::basic_string<char,std::char_traits<char>,std::allocator<char> >,std::allocator<std::basic_string<char,std::char_traits<char>,std::allocator<char> > > >
  0001f	83 c4 0c	 add	 esp, 12			; 0000000cH

; 788  : 		}

  00022	83 c4 04	 add	 esp, 4
  00025	3b ec		 cmp	 ebp, esp
  00027	e8 00 00 00 00	 call	 __RTC_CheckEsp
  0002c	8b e5		 mov	 esp, ebp
  0002e	5d		 pop	 ebp
  0002f	c2 08 00	 ret	 8
?_Destroy@?$vector@V?$basic_string@DU?$char_traits@D@std@@V?$allocator@D@2@@std@@V?$allocator@V?$basic_string@DU?$char_traits@D@std@@V?$allocator@D@2@@std@@@2@@std@@IAEXPAV?$basic_string@DU?$char_traits@D@std@@V?$allocator@D@2@@2@0@Z ENDP ; std::vector<std::basic_string<char,std::char_traits<char>,std::allocator<char> >,std::allocator<std::basic_string<char,std::char_traits<char>,std::allocator<char> > > >::_Destroy
_TEXT	ENDS
;	COMDAT xdata$x
xdata$x	SEGMENT
$T195468 DD	0ffffffffH
	DD	FLAT:$L195464
$T195466 DD	019930520H
	DD	01H
	DD	FLAT:$T195468
	DD	2 DUP(00H)
	DD	2 DUP(00H)
; Function compile flags: /Odt /RTCsu
xdata$x	ENDS
;	COMDAT ?_Xlen@?$vector@V?$basic_string@DU?$char_traits@D@std@@V?$allocator@D@2@@std@@V?$allocator@V?$basic_string@DU?$char_traits@D@std@@V?$allocator@D@2@@std@@@2@@std@@IBEXXZ
_TEXT	SEGMENT
$T195463 = -84						; size = 28
$T195462 = -56						; size = 40
_this$ = -16						; size = 4
__$EHRec$ = -12						; size = 12
?_Xlen@?$vector@V?$basic_string@DU?$char_traits@D@std@@V?$allocator@D@2@@std@@V?$allocator@V?$basic_string@DU?$char_traits@D@std@@V?$allocator@D@2@@std@@@2@@std@@IBEXXZ PROC NEAR ; std::vector<std::basic_string<char,std::char_traits<char>,std::allocator<char> >,std::allocator<std::basic_string<char,std::char_traits<char>,std::allocator<char> > > >::_Xlen, COMDAT
; _this$ = ecx

; 883  : 		{	// report a length_error

  00000	55		 push	 ebp
  00001	8b ec		 mov	 ebp, esp
  00003	6a ff		 push	 -1
  00005	68 00 00 00 00	 push	 __ehhandler$?_Xlen@?$vector@V?$basic_string@DU?$char_traits@D@std@@V?$allocator@D@2@@std@@V?$allocator@V?$basic_string@DU?$char_traits@D@std@@V?$allocator@D@2@@std@@@2@@std@@IBEXXZ
  0000a	64 a1 00 00 00
	00		 mov	 eax, DWORD PTR fs:__except_list
  00010	50		 push	 eax
  00011	64 89 25 00 00
	00 00		 mov	 DWORD PTR fs:__except_list, esp
  00018	83 ec 48	 sub	 esp, 72			; 00000048H
  0001b	56		 push	 esi
  0001c	57		 push	 edi
  0001d	51		 push	 ecx
  0001e	8d 7d ac	 lea	 edi, DWORD PTR [ebp-84]
  00021	b9 12 00 00 00	 mov	 ecx, 18			; 00000012H
  00026	b8 cc cc cc cc	 mov	 eax, -858993460		; ccccccccH
  0002b	f3 ab		 rep stosd
  0002d	59		 pop	 ecx
  0002e	89 4d f0	 mov	 DWORD PTR _this$[ebp], ecx

; 884  : 		_THROW(length_error, "vector<T> too long");

  00031	8b f4		 mov	 esi, esp
  00033	68 00 00 00 00	 push	 OFFSET FLAT:??_C@_0BD@OLBABOEK@vector?$DMT?$DO?5too?5long?$AA@
  00038	8d 4d ac	 lea	 ecx, DWORD PTR $T195463[ebp]
  0003b	ff 15 00 00 00
	00		 call	 DWORD PTR __imp_??0?$basic_string@DU?$char_traits@D@std@@V?$allocator@D@2@@std@@QAE@PBD@Z
  00041	3b f4		 cmp	 esi, esp
  00043	e8 00 00 00 00	 call	 __RTC_CheckEsp
  00048	c7 45 fc 00 00
	00 00		 mov	 DWORD PTR __$EHRec$[ebp+8], 0
  0004f	8d 45 ac	 lea	 eax, DWORD PTR $T195463[ebp]
  00052	50		 push	 eax
  00053	8d 4d c8	 lea	 ecx, DWORD PTR $T195462[ebp]
  00056	e8 00 00 00 00	 call	 ??0length_error@std@@QAE@ABV?$basic_string@DU?$char_traits@D@std@@V?$allocator@D@2@@1@@Z ; std::length_error::length_error
  0005b	68 00 00 00 00	 push	 OFFSET FLAT:__TI3?AVlength_error@std@@
  00060	8d 4d c8	 lea	 ecx, DWORD PTR $T195462[ebp]
  00063	51		 push	 ecx
  00064	e8 00 00 00 00	 call	 __CxxThrowException@8
$L195461:

; 885  : 		}

  00069	8b 4d f4	 mov	 ecx, DWORD PTR __$EHRec$[ebp]
  0006c	64 89 0d 00 00
	00 00		 mov	 DWORD PTR fs:__except_list, ecx
  00073	5f		 pop	 edi
  00074	5e		 pop	 esi
  00075	83 c4 54	 add	 esp, 84			; 00000054H
  00078	3b ec		 cmp	 ebp, esp
  0007a	e8 00 00 00 00	 call	 __RTC_CheckEsp
  0007f	8b e5		 mov	 esp, ebp
  00081	5d		 pop	 ebp
  00082	c3		 ret	 0
_TEXT	ENDS
;	COMDAT text$x
text$x	SEGMENT
$L195464:
  00000	8b f4		 mov	 esi, esp
  00002	8d 4d ac	 lea	 ecx, DWORD PTR $T195463[ebp]
  00005	ff 15 00 00 00
	00		 call	 DWORD PTR __imp_??1?$basic_string@DU?$char_traits@D@std@@V?$allocator@D@2@@std@@QAE@XZ
  0000b	3b f4		 cmp	 esi, esp
  0000d	e9 00 00 00 00	 jmp	 __RTC_CheckEsp
__ehhandler$?_Xlen@?$vector@V?$basic_string@DU?$char_traits@D@std@@V?$allocator@D@2@@std@@V?$allocator@V?$basic_string@DU?$char_traits@D@std@@V?$allocator@D@2@@std@@@2@@std@@IBEXXZ:
  00012	b8 00 00 00 00	 mov	 eax, OFFSET FLAT:$T195466
  00017	e9 00 00 00 00	 jmp	 ___CxxFrameHandler
text$x	ENDS
?_Xlen@?$vector@V?$basic_string@DU?$char_traits@D@std@@V?$allocator@D@2@@std@@V?$allocator@V?$basic_string@DU?$char_traits@D@std@@V?$allocator@D@2@@std@@@2@@std@@IBEXXZ ENDP ; std::vector<std::basic_string<char,std::char_traits<char>,std::allocator<char> >,std::allocator<std::basic_string<char,std::char_traits<char>,std::allocator<char> > > >::_Xlen
PUBLIC	??0const_iterator@?$vector@UOneSubject@@V?$allocator@UOneSubject@@@std@@@std@@QAE@PAUOneSubject@@@Z ; std::vector<OneSubject,std::allocator<OneSubject> >::const_iterator::const_iterator
; Function compile flags: /Odt /RTCsu
;	COMDAT ??0iterator@?$vector@UOneSubject@@V?$allocator@UOneSubject@@@std@@@std@@QAE@PAUOneSubject@@@Z
_TEXT	SEGMENT
_this$ = -4						; size = 4
__Ptr$ = 8						; size = 4
??0iterator@?$vector@UOneSubject@@V?$allocator@UOneSubject@@@std@@@std@@QAE@PAUOneSubject@@@Z PROC NEAR ; std::vector<OneSubject,std::allocator<OneSubject> >::iterator::iterator, COMDAT
; _this$ = ecx

; 215  : 			{	// construct with pointer _Ptr

  00000	55		 push	 ebp
  00001	8b ec		 mov	 ebp, esp
  00003	51		 push	 ecx
  00004	c7 45 fc cc cc
	cc cc		 mov	 DWORD PTR [ebp-4], -858993460 ; ccccccccH
  0000b	89 4d fc	 mov	 DWORD PTR _this$[ebp], ecx
  0000e	8b 45 08	 mov	 eax, DWORD PTR __Ptr$[ebp]
  00011	50		 push	 eax
  00012	8b 4d fc	 mov	 ecx, DWORD PTR _this$[ebp]
  00015	e8 00 00 00 00	 call	 ??0const_iterator@?$vector@UOneSubject@@V?$allocator@UOneSubject@@@std@@@std@@QAE@PAUOneSubject@@@Z ; std::vector<OneSubject,std::allocator<OneSubject> >::const_iterator::const_iterator

; 216  : 			}

  0001a	8b 45 fc	 mov	 eax, DWORD PTR _this$[ebp]
  0001d	83 c4 04	 add	 esp, 4
  00020	3b ec		 cmp	 ebp, esp
  00022	e8 00 00 00 00	 call	 __RTC_CheckEsp
  00027	8b e5		 mov	 esp, ebp
  00029	5d		 pop	 ebp
  0002a	c2 04 00	 ret	 4
??0iterator@?$vector@UOneSubject@@V?$allocator@UOneSubject@@@std@@@std@@QAE@PAUOneSubject@@@Z ENDP ; std::vector<OneSubject,std::allocator<OneSubject> >::iterator::iterator
; Function compile flags: /Odt /RTCsu
_TEXT	ENDS
;	COMDAT ??Yiterator@?$vector@UOneSubject@@V?$allocator@UOneSubject@@@std@@@std@@QAEAAV012@H@Z
_TEXT	SEGMENT
_this$ = -4						; size = 4
__Off$ = 8						; size = 4
??Yiterator@?$vector@UOneSubject@@V?$allocator@UOneSubject@@@std@@@std@@QAEAAV012@H@Z PROC NEAR ; std::vector<OneSubject,std::allocator<OneSubject> >::iterator::operator+=, COMDAT
; _this$ = ecx

; 255  : 			{	// increment by integer

  00000	55		 push	 ebp
  00001	8b ec		 mov	 ebp, esp
  00003	51		 push	 ecx
  00004	c7 45 fc cc cc
	cc cc		 mov	 DWORD PTR [ebp-4], -858993460 ; ccccccccH
  0000b	89 4d fc	 mov	 DWORD PTR _this$[ebp], ecx

; 256  : 			this->_Myptr += _Off;

  0000e	8b 45 08	 mov	 eax, DWORD PTR __Off$[ebp]
  00011	69 c0 98 00 00
	00		 imul	 eax, 152		; 00000098H
  00017	8b 4d fc	 mov	 ecx, DWORD PTR _this$[ebp]
  0001a	03 01		 add	 eax, DWORD PTR [ecx]
  0001c	8b 55 fc	 mov	 edx, DWORD PTR _this$[ebp]
  0001f	89 02		 mov	 DWORD PTR [edx], eax

; 257  : 			return (*this);

  00021	8b 45 fc	 mov	 eax, DWORD PTR _this$[ebp]

; 258  : 			}

  00024	8b e5		 mov	 esp, ebp
  00026	5d		 pop	 ebp
  00027	c2 04 00	 ret	 4
??Yiterator@?$vector@UOneSubject@@V?$allocator@UOneSubject@@@std@@@std@@QAEAAV012@H@Z ENDP ; std::vector<OneSubject,std::allocator<OneSubject> >::iterator::operator+=
; Function compile flags: /Odt /RTCsu
_TEXT	ENDS
;	COMDAT ??Dconst_iterator@?$vector@UOneSubject@@V?$allocator@UOneSubject@@@std@@@std@@QBEABUOneSubject@@XZ
_TEXT	SEGMENT
_this$ = -4						; size = 4
??Dconst_iterator@?$vector@UOneSubject@@V?$allocator@UOneSubject@@@std@@@std@@QBEABUOneSubject@@XZ PROC NEAR ; std::vector<OneSubject,std::allocator<OneSubject> >::const_iterator::operator*, COMDAT
; _this$ = ecx

; 79   : 			{	// return designated object

  00000	55		 push	 ebp
  00001	8b ec		 mov	 ebp, esp
  00003	51		 push	 ecx
  00004	c7 45 fc cc cc
	cc cc		 mov	 DWORD PTR [ebp-4], -858993460 ; ccccccccH
  0000b	89 4d fc	 mov	 DWORD PTR _this$[ebp], ecx

; 80   : 
; 81   : 
; 82   : 			return (*_Myptr);

  0000e	8b 45 fc	 mov	 eax, DWORD PTR _this$[ebp]
  00011	8b 00		 mov	 eax, DWORD PTR [eax]

; 83   : 			}

  00013	8b e5		 mov	 esp, ebp
  00015	5d		 pop	 ebp
  00016	c3		 ret	 0
??Dconst_iterator@?$vector@UOneSubject@@V?$allocator@UOneSubject@@@std@@@std@@QBEABUOneSubject@@XZ ENDP ; std::vector<OneSubject,std::allocator<OneSubject> >::const_iterator::operator*
_TEXT	ENDS
PUBLIC	??_R1A@?0A@A@exception@@8			; exception::`RTTI Base Class Descriptor at (0,-1,0,0)'
PUBLIC	??_R1A@?0A@A@logic_error@std@@8			; std::logic_error::`RTTI Base Class Descriptor at (0,-1,0,0)'
PUBLIC	??_R4length_error@std@@6B@			; std::length_error::`RTTI Complete Object Locator'
PUBLIC	??_R3length_error@std@@8			; std::length_error::`RTTI Class Hierarchy Descriptor'
PUBLIC	??_R2length_error@std@@8			; std::length_error::`RTTI Base Class Array'
PUBLIC	??_R1A@?0A@A@length_error@std@@8		; std::length_error::`RTTI Base Class Descriptor at (0,-1,0,0)'
PUBLIC	?what@logic_error@std@@UBEPBDXZ			; std::logic_error::what
PUBLIC	??_7length_error@std@@6B@			; std::length_error::`vftable'
PUBLIC	??_Glength_error@std@@UAEPAXI@Z			; std::length_error::`scalar deleting destructor'
EXTRN	??_Elength_error@std@@UAEPAXI@Z:NEAR		; std::length_error::`vector deleting destructor'
;	COMDAT ??_7length_error@std@@6B@
CONST	SEGMENT
??_7length_error@std@@6B@ DD FLAT:??_R4length_error@std@@6B@ ; std::length_error::`vftable'
	DD	FLAT:??_Elength_error@std@@UAEPAXI@Z
	DD	FLAT:?what@logic_error@std@@UBEPBDXZ
CONST	ENDS
;	COMDAT ??_R4length_error@std@@6B@
rdata$r	SEGMENT
??_R4length_error@std@@6B@ DD 00H			; std::length_error::`RTTI Complete Object Locator'
	DD	00H
	DD	00H
	DD	FLAT:??_R0?AVlength_error@std@@@8
	DD	FLAT:??_R3length_error@std@@8
rdata$r	ENDS
;	COMDAT ??_R3length_error@std@@8
rdata$r	SEGMENT
??_R3length_error@std@@8 DD 00H				; std::length_error::`RTTI Class Hierarchy Descriptor'
	DD	00H
	DD	03H
	DD	FLAT:??_R2length_error@std@@8
rdata$r	ENDS
;	COMDAT ??_R2length_error@std@@8
rdata$r	SEGMENT
??_R2length_error@std@@8 DD FLAT:??_R1A@?0A@A@length_error@std@@8 ; std::length_error::`RTTI Base Class Array'
	DD	FLAT:??_R1A@?0A@A@logic_error@std@@8
	DD	FLAT:??_R1A@?0A@A@exception@@8
rdata$r	ENDS
;	COMDAT ??_R1A@?0A@A@length_error@std@@8
rdata$r	SEGMENT
??_R1A@?0A@A@length_error@std@@8 DD FLAT:??_R0?AVlength_error@std@@@8 ; std::length_error::`RTTI Base Class Descriptor at (0,-1,0,0)'
	DD	02H
	DD	00H
	DD	0ffffffffH
	DD	00H
	DD	00H
rdata$r	ENDS
;	COMDAT ??_R1A@?0A@A@logic_error@std@@8
rdata$r	SEGMENT
??_R1A@?0A@A@logic_error@std@@8 DD FLAT:??_R0?AVlogic_error@std@@@8 ; std::logic_error::`RTTI Base Class Descriptor at (0,-1,0,0)'
	DD	01H
	DD	00H
	DD	0ffffffffH
	DD	00H
	DD	00H
rdata$r	ENDS
;	COMDAT ??_R1A@?0A@A@exception@@8
rdata$r	SEGMENT
??_R1A@?0A@A@exception@@8 DD FLAT:??_R0?AVexception@@@8	; exception::`RTTI Base Class Descriptor at (0,-1,0,0)'
	DD	00H
	DD	00H
	DD	0ffffffffH
	DD	00H
	DD	00H
; Function compile flags: /Odt /RTCsu
rdata$r	ENDS
;	COMDAT ??0length_error@std@@QAE@ABV01@@Z
_TEXT	SEGMENT
_this$ = -4						; size = 4
___that$ = 8						; size = 4
??0length_error@std@@QAE@ABV01@@Z PROC NEAR		; std::length_error::length_error, COMDAT
; _this$ = ecx
  00000	55		 push	 ebp
  00001	8b ec		 mov	 ebp, esp
  00003	51		 push	 ecx
  00004	c7 45 fc cc cc
	cc cc		 mov	 DWORD PTR [ebp-4], -858993460 ; ccccccccH
  0000b	89 4d fc	 mov	 DWORD PTR _this$[ebp], ecx
  0000e	8b 45 08	 mov	 eax, DWORD PTR ___that$[ebp]
  00011	50		 push	 eax
  00012	8b 4d fc	 mov	 ecx, DWORD PTR _this$[ebp]
  00015	e8 00 00 00 00	 call	 ??0logic_error@std@@QAE@ABV01@@Z
  0001a	8b 4d fc	 mov	 ecx, DWORD PTR _this$[ebp]
  0001d	c7 01 00 00 00
	00		 mov	 DWORD PTR [ecx], OFFSET FLAT:??_7length_error@std@@6B@
  00023	8b 45 fc	 mov	 eax, DWORD PTR _this$[ebp]
  00026	83 c4 04	 add	 esp, 4
  00029	3b ec		 cmp	 ebp, esp
  0002b	e8 00 00 00 00	 call	 __RTC_CheckEsp
  00030	8b e5		 mov	 esp, ebp
  00032	5d		 pop	 ebp
  00033	c2 04 00	 ret	 4
??0length_error@std@@QAE@ABV01@@Z ENDP			; std::length_error::length_error
; Function compile flags: /Odt /RTCsu
; File d:\program files (x86)\microsoft visual studio .net 2003\vc7\include\xmemory
_TEXT	ENDS
;	COMDAT ?max_size@?$allocator@V?$basic_string@DU?$char_traits@D@std@@V?$allocator@D@2@@std@@@std@@QBEIXZ
_TEXT	SEGMENT
tv65 = -12						; size = 4
__Count$ = -8						; size = 4
_this$ = -4						; size = 4
?max_size@?$allocator@V?$basic_string@DU?$char_traits@D@std@@V?$allocator@D@2@@std@@@std@@QBEIXZ PROC NEAR ; std::allocator<std::basic_string<char,std::char_traits<char>,std::allocator<char> > >::max_size, COMDAT
; _this$ = ecx

; 156  : 		{	// estimate maximum array size

  00000	55		 push	 ebp
  00001	8b ec		 mov	 ebp, esp
  00003	83 ec 0c	 sub	 esp, 12			; 0000000cH
  00006	c7 45 f4 cc cc
	cc cc		 mov	 DWORD PTR [ebp-12], -858993460 ; ccccccccH
  0000d	c7 45 f8 cc cc
	cc cc		 mov	 DWORD PTR [ebp-8], -858993460 ; ccccccccH
  00014	c7 45 fc cc cc
	cc cc		 mov	 DWORD PTR [ebp-4], -858993460 ; ccccccccH
  0001b	89 4d fc	 mov	 DWORD PTR _this$[ebp], ecx

; 157  : 		_SIZT _Count = (_SIZT)(-1) / sizeof (_Ty);

  0001e	c7 45 f8 49 92
	24 09		 mov	 DWORD PTR __Count$[ebp], 153391689 ; 09249249H

; 158  : 		return (0 < _Count ? _Count : 1);

  00025	83 7d f8 00	 cmp	 DWORD PTR __Count$[ebp], 0
  00029	76 08		 jbe	 SHORT $L195477
  0002b	8b 45 f8	 mov	 eax, DWORD PTR __Count$[ebp]
  0002e	89 45 f4	 mov	 DWORD PTR tv65[ebp], eax
  00031	eb 07		 jmp	 SHORT $L195478
$L195477:
  00033	c7 45 f4 01 00
	00 00		 mov	 DWORD PTR tv65[ebp], 1
$L195478:
  0003a	8b 45 f4	 mov	 eax, DWORD PTR tv65[ebp]

; 159  : 		}

  0003d	8b e5		 mov	 esp, ebp
  0003f	5d		 pop	 ebp
  00040	c3		 ret	 0
?max_size@?$allocator@V?$basic_string@DU?$char_traits@D@std@@V?$allocator@D@2@@std@@@std@@QBEIXZ ENDP ; std::allocator<std::basic_string<char,std::char_traits<char>,std::allocator<char> > >::max_size
; Function compile flags: /Odt /RTCsu
_TEXT	ENDS
;	COMDAT ?max_size@?$allocator@PAVIChangeSkinEventListener@@@std@@QBEIXZ
_TEXT	SEGMENT
tv65 = -12						; size = 4
__Count$ = -8						; size = 4
_this$ = -4						; size = 4
?max_size@?$allocator@PAVIChangeSkinEventListener@@@std@@QBEIXZ PROC NEAR ; std::allocator<IChangeSkinEventListener *>::max_size, COMDAT
; _this$ = ecx

; 156  : 		{	// estimate maximum array size

  00000	55		 push	 ebp
  00001	8b ec		 mov	 ebp, esp
  00003	83 ec 0c	 sub	 esp, 12			; 0000000cH
  00006	c7 45 f4 cc cc
	cc cc		 mov	 DWORD PTR [ebp-12], -858993460 ; ccccccccH
  0000d	c7 45 f8 cc cc
	cc cc		 mov	 DWORD PTR [ebp-8], -858993460 ; ccccccccH
  00014	c7 45 fc cc cc
	cc cc		 mov	 DWORD PTR [ebp-4], -858993460 ; ccccccccH
  0001b	89 4d fc	 mov	 DWORD PTR _this$[ebp], ecx

; 157  : 		_SIZT _Count = (_SIZT)(-1) / sizeof (_Ty);

  0001e	c7 45 f8 ff ff
	ff 3f		 mov	 DWORD PTR __Count$[ebp], 1073741823 ; 3fffffffH

; 158  : 		return (0 < _Count ? _Count : 1);

  00025	83 7d f8 00	 cmp	 DWORD PTR __Count$[ebp], 0
  00029	76 08		 jbe	 SHORT $L195480
  0002b	8b 45 f8	 mov	 eax, DWORD PTR __Count$[ebp]
  0002e	89 45 f4	 mov	 DWORD PTR tv65[ebp], eax
  00031	eb 07		 jmp	 SHORT $L195481
$L195480:
  00033	c7 45 f4 01 00
	00 00		 mov	 DWORD PTR tv65[ebp], 1
$L195481:
  0003a	8b 45 f4	 mov	 eax, DWORD PTR tv65[ebp]

; 159  : 		}

  0003d	8b e5		 mov	 esp, ebp
  0003f	5d		 pop	 ebp
  00040	c3		 ret	 0
?max_size@?$allocator@PAVIChangeSkinEventListener@@@std@@QBEIXZ ENDP ; std::allocator<IChangeSkinEventListener *>::max_size
; Function compile flags: /Odt /RTCsu
; File d:\program files (x86)\microsoft visual studio .net 2003\vc7\include\vector
_TEXT	ENDS
;	COMDAT ??Gconst_iterator@?$vector@PAVIChangeSkinEventListener@@V?$allocator@PAVIChangeSkinEventListener@@@std@@@std@@QBEHABV012@@Z
_TEXT	SEGMENT
_this$ = -4						; size = 4
__Right$ = 8						; size = 4
??Gconst_iterator@?$vector@PAVIChangeSkinEventListener@@V?$allocator@PAVIChangeSkinEventListener@@@std@@@std@@QBEHABV012@@Z PROC NEAR ; std::vector<IChangeSkinEventListener *,std::allocator<IChangeSkinEventListener *> >::const_iterator::operator-, COMDAT
; _this$ = ecx

; 140  : 			{	// return difference of iterators

  00000	55		 push	 ebp
  00001	8b ec		 mov	 ebp, esp
  00003	51		 push	 ecx
  00004	c7 45 fc cc cc
	cc cc		 mov	 DWORD PTR [ebp-4], -858993460 ; ccccccccH
  0000b	89 4d fc	 mov	 DWORD PTR _this$[ebp], ecx

; 141  : 
; 142  : 
; 143  : 			return (_Myptr - _Right._Myptr);

  0000e	8b 45 fc	 mov	 eax, DWORD PTR _this$[ebp]
  00011	8b 4d 08	 mov	 ecx, DWORD PTR __Right$[ebp]
  00014	8b 00		 mov	 eax, DWORD PTR [eax]
  00016	2b 01		 sub	 eax, DWORD PTR [ecx]
  00018	c1 f8 02	 sar	 eax, 2

; 144  : 			}

  0001b	8b e5		 mov	 esp, ebp
  0001d	5d		 pop	 ebp
  0001e	c2 04 00	 ret	 4
??Gconst_iterator@?$vector@PAVIChangeSkinEventListener@@V?$allocator@PAVIChangeSkinEventListener@@@std@@@std@@QBEHABV012@@Z ENDP ; std::vector<IChangeSkinEventListener *,std::allocator<IChangeSkinEventListener *> >::const_iterator::operator-
; Function compile flags: /Odt /RTCsu
_TEXT	ENDS
;	COMDAT ??0const_iterator@?$vector@UOneSubject@@V?$allocator@UOneSubject@@@std@@@std@@QAE@PAUOneSubject@@@Z
_TEXT	SEGMENT
_this$ = -4						; size = 4
__Ptr$ = 8						; size = 4
??0const_iterator@?$vector@UOneSubject@@V?$allocator@UOneSubject@@@std@@@std@@QAE@PAUOneSubject@@@Z PROC NEAR ; std::vector<OneSubject,std::allocator<OneSubject> >::const_iterator::const_iterator, COMDAT
; _this$ = ecx

; 73   : 		const_iterator(_Tptr _Ptr)

  00000	55		 push	 ebp
  00001	8b ec		 mov	 ebp, esp
  00003	51		 push	 ecx
  00004	c7 45 fc cc cc
	cc cc		 mov	 DWORD PTR [ebp-4], -858993460 ; ccccccccH
  0000b	89 4d fc	 mov	 DWORD PTR _this$[ebp], ecx

; 74   : 			{	// construct with pointer _Ptr
; 75   : 			_Myptr = _Ptr;

  0000e	8b 45 fc	 mov	 eax, DWORD PTR _this$[ebp]
  00011	8b 4d 08	 mov	 ecx, DWORD PTR __Ptr$[ebp]
  00014	89 08		 mov	 DWORD PTR [eax], ecx

; 76   : 			}

  00016	8b 45 fc	 mov	 eax, DWORD PTR _this$[ebp]
  00019	8b e5		 mov	 esp, ebp
  0001b	5d		 pop	 ebp
  0001c	c2 04 00	 ret	 4
??0const_iterator@?$vector@UOneSubject@@V?$allocator@UOneSubject@@@std@@@std@@QAE@PAUOneSubject@@@Z ENDP ; std::vector<OneSubject,std::allocator<OneSubject> >::const_iterator::const_iterator
_TEXT	ENDS
PUBLIC	??$_Ptr_cat@VIChangeSkinEventListener@@@std@@YA?AU_Scalar_ptr_iterator_tag@0@PAPAVIChangeSkinEventListener@@0@Z ; std::_Ptr_cat<IChangeSkinEventListener>
PUBLIC	??$_Copy_opt@PAPAVIChangeSkinEventListener@@PAPAV1@@std@@YAPAPAVIChangeSkinEventListener@@PAPAV1@00U_Scalar_ptr_iterator_tag@0@@Z ; std::_Copy_opt<IChangeSkinEventListener * *,IChangeSkinEventListener * *>
; Function compile flags: /Odt /RTCsu
; File d:\program files (x86)\microsoft visual studio .net 2003\vc7\include\xutility
;	COMDAT ??$copy@PAPAVIChangeSkinEventListener@@PAPAV1@@std@@YAPAPAVIChangeSkinEventListener@@PAPAV1@00@Z
_TEXT	SEGMENT
$T195485 = -1						; size = 1
__First$ = 8						; size = 4
__Last$ = 12						; size = 4
__Dest$ = 16						; size = 4
??$copy@PAPAVIChangeSkinEventListener@@PAPAV1@@std@@YAPAPAVIChangeSkinEventListener@@PAPAV1@00@Z PROC NEAR ; std::copy<IChangeSkinEventListener * *,IChangeSkinEventListener * *>, COMDAT

; 1039 : 	{	// copy [_First, _Last) to [_Dest, ...)

  00000	55		 push	 ebp
  00001	8b ec		 mov	 ebp, esp
  00003	51		 push	 ecx
  00004	c7 45 fc cc cc
	cc cc		 mov	 DWORD PTR [ebp-4], -858993460 ; ccccccccH

; 1040 : 	return (_Copy_opt(_First, _Last, _Dest, _Ptr_cat(_First, _Dest)));

  0000b	8b 45 10	 mov	 eax, DWORD PTR __Dest$[ebp]
  0000e	50		 push	 eax
  0000f	8b 4d 08	 mov	 ecx, DWORD PTR __First$[ebp]
  00012	51		 push	 ecx
  00013	e8 00 00 00 00	 call	 ??$_Ptr_cat@VIChangeSkinEventListener@@@std@@YA?AU_Scalar_ptr_iterator_tag@0@PAPAVIChangeSkinEventListener@@0@Z ; std::_Ptr_cat<IChangeSkinEventListener>
  00018	83 c4 08	 add	 esp, 8
  0001b	88 45 ff	 mov	 BYTE PTR $T195485[ebp], al
  0001e	8a 55 ff	 mov	 dl, BYTE PTR $T195485[ebp]
  00021	52		 push	 edx
  00022	8b 45 10	 mov	 eax, DWORD PTR __Dest$[ebp]
  00025	50		 push	 eax
  00026	8b 4d 0c	 mov	 ecx, DWORD PTR __Last$[ebp]
  00029	51		 push	 ecx
  0002a	8b 55 08	 mov	 edx, DWORD PTR __First$[ebp]
  0002d	52		 push	 edx
  0002e	e8 00 00 00 00	 call	 ??$_Copy_opt@PAPAVIChangeSkinEventListener@@PAPAV1@@std@@YAPAPAVIChangeSkinEventListener@@PAPAV1@00U_Scalar_ptr_iterator_tag@0@@Z ; std::_Copy_opt<IChangeSkinEventListener * *,IChangeSkinEventListener * *>
  00033	83 c4 10	 add	 esp, 16			; 00000010H

; 1041 : 	}

  00036	83 c4 04	 add	 esp, 4
  00039	3b ec		 cmp	 ebp, esp
  0003b	e8 00 00 00 00	 call	 __RTC_CheckEsp
  00040	8b e5		 mov	 esp, ebp
  00042	5d		 pop	 ebp
  00043	c3		 ret	 0
??$copy@PAPAVIChangeSkinEventListener@@PAPAV1@@std@@YAPAPAVIChangeSkinEventListener@@PAPAV1@00@Z ENDP ; std::copy<IChangeSkinEventListener * *,IChangeSkinEventListener * *>
_TEXT	ENDS
PUBLIC	??$_Destroy_range@PAVIChangeSkinEventListener@@V?$allocator@PAVIChangeSkinEventListener@@@std@@@std@@YAXPAPAVIChangeSkinEventListener@@0AAV?$allocator@PAVIChangeSkinEventListener@@@0@U_Scalar_ptr_iterator_tag@0@@Z ; std::_Destroy_range<IChangeSkinEventListener *,std::allocator<IChangeSkinEventListener *> >
; Function compile flags: /Odt /RTCsu
; File d:\program files (x86)\microsoft visual studio .net 2003\vc7\include\xmemory
;	COMDAT ??$_Destroy_range@PAVIChangeSkinEventListener@@V?$allocator@PAVIChangeSkinEventListener@@@std@@@std@@YAXPAPAVIChangeSkinEventListener@@0AAV?$allocator@PAVIChangeSkinEventListener@@@0@@Z
_TEXT	SEGMENT
$T195487 = -1						; size = 1
__First$ = 8						; size = 4
__Last$ = 12						; size = 4
__Al$ = 16						; size = 4
??$_Destroy_range@PAVIChangeSkinEventListener@@V?$allocator@PAVIChangeSkinEventListener@@@std@@@std@@YAXPAPAVIChangeSkinEventListener@@0AAV?$allocator@PAVIChangeSkinEventListener@@@0@@Z PROC NEAR ; std::_Destroy_range<IChangeSkinEventListener *,std::allocator<IChangeSkinEventListener *> >, COMDAT

; 216  : 	{	// destroy [_First, _Last)

  00000	55		 push	 ebp
  00001	8b ec		 mov	 ebp, esp
  00003	51		 push	 ecx
  00004	c7 45 fc cc cc
	cc cc		 mov	 DWORD PTR [ebp-4], -858993460 ; ccccccccH

; 217  : 	_Destroy_range(_First, _Last, _Al, _Ptr_cat(_First, _Last));

  0000b	8b 45 0c	 mov	 eax, DWORD PTR __Last$[ebp]
  0000e	50		 push	 eax
  0000f	8b 4d 08	 mov	 ecx, DWORD PTR __First$[ebp]
  00012	51		 push	 ecx
  00013	e8 00 00 00 00	 call	 ??$_Ptr_cat@VIChangeSkinEventListener@@@std@@YA?AU_Scalar_ptr_iterator_tag@0@PAPAVIChangeSkinEventListener@@0@Z ; std::_Ptr_cat<IChangeSkinEventListener>
  00018	83 c4 08	 add	 esp, 8
  0001b	88 45 ff	 mov	 BYTE PTR $T195487[ebp], al
  0001e	8a 55 ff	 mov	 dl, BYTE PTR $T195487[ebp]
  00021	52		 push	 edx
  00022	8b 45 10	 mov	 eax, DWORD PTR __Al$[ebp]
  00025	50		 push	 eax
  00026	8b 4d 0c	 mov	 ecx, DWORD PTR __Last$[ebp]
  00029	51		 push	 ecx
  0002a	8b 55 08	 mov	 edx, DWORD PTR __First$[ebp]
  0002d	52		 push	 edx
  0002e	e8 00 00 00 00	 call	 ??$_Destroy_range@PAVIChangeSkinEventListener@@V?$allocator@PAVIChangeSkinEventListener@@@std@@@std@@YAXPAPAVIChangeSkinEventListener@@0AAV?$allocator@PAVIChangeSkinEventListener@@@0@U_Scalar_ptr_iterator_tag@0@@Z ; std::_Destroy_range<IChangeSkinEventListener *,std::allocator<IChangeSkinEventListener *> >
  00033	83 c4 10	 add	 esp, 16			; 00000010H

; 218  : 	}

  00036	83 c4 04	 add	 esp, 4
  00039	3b ec		 cmp	 ebp, esp
  0003b	e8 00 00 00 00	 call	 __RTC_CheckEsp
  00040	8b e5		 mov	 esp, ebp
  00042	5d		 pop	 ebp
  00043	c3		 ret	 0
??$_Destroy_range@PAVIChangeSkinEventListener@@V?$allocator@PAVIChangeSkinEventListener@@@std@@@std@@YAXPAPAVIChangeSkinEventListener@@0AAV?$allocator@PAVIChangeSkinEventListener@@@0@@Z ENDP ; std::_Destroy_range<IChangeSkinEventListener *,std::allocator<IChangeSkinEventListener *> >
_TEXT	ENDS
PUBLIC	??$_Uninit_fill_n@PAVIChangeSkinEventListener@@IPAV1@@std@@YAXPAPAVIChangeSkinEventListener@@IABQAV1@AAV?$allocator@PAVIChangeSkinEventListener@@@0@U_Scalar_ptr_iterator_tag@0@@Z ; std::_Uninit_fill_n<IChangeSkinEventListener *,unsigned int,IChangeSkinEventListener *>
; Function compile flags: /Odt /RTCsu
; File d:\program files (x86)\microsoft visual studio .net 2003\vc7\include\memory
;	COMDAT ??$_Uninitialized_fill_n@PAPAVIChangeSkinEventListener@@IPAV1@V?$allocator@PAVIChangeSkinEventListener@@@std@@@std@@YAXPAPAVIChangeSkinEventListener@@IABQAV1@AAV?$allocator@PAVIChangeSkinEventListener@@@0@@Z
_TEXT	SEGMENT
$T195489 = -1						; size = 1
__First$ = 8						; size = 4
__Count$ = 12						; size = 4
__Val$ = 16						; size = 4
__Al$ = 20						; size = 4
??$_Uninitialized_fill_n@PAPAVIChangeSkinEventListener@@IPAV1@V?$allocator@PAVIChangeSkinEventListener@@@std@@@std@@YAXPAPAVIChangeSkinEventListener@@IABQAV1@AAV?$allocator@PAVIChangeSkinEventListener@@@0@@Z PROC NEAR ; std::_Uninitialized_fill_n<IChangeSkinEventListener * *,unsigned int,IChangeSkinEventListener *,std::allocator<IChangeSkinEventListener *> >, COMDAT

; 255  : 	{	// copy _Count *_Val to raw _First, using _Al

  00000	55		 push	 ebp
  00001	8b ec		 mov	 ebp, esp
  00003	51		 push	 ecx
  00004	c7 45 fc cc cc
	cc cc		 mov	 DWORD PTR [ebp-4], -858993460 ; ccccccccH

; 256  : 	_Uninit_fill_n(_First, _Count, _Val, _Al,
; 257  : 		_Ptr_cat(_First, _First));

  0000b	8b 45 08	 mov	 eax, DWORD PTR __First$[ebp]
  0000e	50		 push	 eax
  0000f	8b 4d 08	 mov	 ecx, DWORD PTR __First$[ebp]
  00012	51		 push	 ecx
  00013	e8 00 00 00 00	 call	 ??$_Ptr_cat@VIChangeSkinEventListener@@@std@@YA?AU_Scalar_ptr_iterator_tag@0@PAPAVIChangeSkinEventListener@@0@Z ; std::_Ptr_cat<IChangeSkinEventListener>
  00018	83 c4 08	 add	 esp, 8
  0001b	88 45 ff	 mov	 BYTE PTR $T195489[ebp], al
  0001e	8a 55 ff	 mov	 dl, BYTE PTR $T195489[ebp]
  00021	52		 push	 edx
  00022	8b 45 14	 mov	 eax, DWORD PTR __Al$[ebp]
  00025	50		 push	 eax
  00026	8b 4d 10	 mov	 ecx, DWORD PTR __Val$[ebp]
  00029	51		 push	 ecx
  0002a	8b 55 0c	 mov	 edx, DWORD PTR __Count$[ebp]
  0002d	52		 push	 edx
  0002e	8b 45 08	 mov	 eax, DWORD PTR __First$[ebp]
  00031	50		 push	 eax
  00032	e8 00 00 00 00	 call	 ??$_Uninit_fill_n@PAVIChangeSkinEventListener@@IPAV1@@std@@YAXPAPAVIChangeSkinEventListener@@IABQAV1@AAV?$allocator@PAVIChangeSkinEventListener@@@0@U_Scalar_ptr_iterator_tag@0@@Z ; std::_Uninit_fill_n<IChangeSkinEventListener *,unsigned int,IChangeSkinEventListener *>
  00037	83 c4 14	 add	 esp, 20			; 00000014H

; 258  : 	}

  0003a	83 c4 04	 add	 esp, 4
  0003d	3b ec		 cmp	 ebp, esp
  0003f	e8 00 00 00 00	 call	 __RTC_CheckEsp
  00044	8b e5		 mov	 esp, ebp
  00046	5d		 pop	 ebp
  00047	c3		 ret	 0
??$_Uninitialized_fill_n@PAPAVIChangeSkinEventListener@@IPAV1@V?$allocator@PAVIChangeSkinEventListener@@@std@@@std@@YAXPAPAVIChangeSkinEventListener@@IABQAV1@AAV?$allocator@PAVIChangeSkinEventListener@@@0@@Z ENDP ; std::_Uninitialized_fill_n<IChangeSkinEventListener * *,unsigned int,IChangeSkinEventListener *,std::allocator<IChangeSkinEventListener *> >
; Function compile flags: /Odt /RTCsu
; File d:\program files (x86)\microsoft visual studio .net 2003\vc7\include\xmemory
_TEXT	ENDS
;	COMDAT ??$_Allocate@V?$basic_string@DU?$char_traits@D@std@@V?$allocator@D@2@@std@@@std@@YAPAV?$basic_string@DU?$char_traits@D@std@@V?$allocator@D@2@@0@IPAV10@@Z
_TEXT	SEGMENT
__Count$ = 8						; size = 4
___formal$ = 12						; size = 4
??$_Allocate@V?$basic_string@DU?$char_traits@D@std@@V?$allocator@D@2@@std@@@std@@YAPAV?$basic_string@DU?$char_traits@D@std@@V?$allocator@D@2@@0@IPAV10@@Z PROC NEAR ; std::_Allocate<std::basic_string<char,std::char_traits<char>,std::allocator<char> > >, COMDAT

; 33   : 	{	// allocate storage for _Count elements of type _Ty

  00000	55		 push	 ebp
  00001	8b ec		 mov	 ebp, esp

; 34   : 	return ((_Ty _FARQ *)operator new(_Count * sizeof (_Ty)));

  00003	8b 45 08	 mov	 eax, DWORD PTR __Count$[ebp]
  00006	6b c0 1c	 imul	 eax, 28			; 0000001cH
  00009	50		 push	 eax
  0000a	e8 00 00 00 00	 call	 ??2@YAPAXI@Z		; operator new
  0000f	83 c4 04	 add	 esp, 4

; 35   : 	}

  00012	3b ec		 cmp	 ebp, esp
  00014	e8 00 00 00 00	 call	 __RTC_CheckEsp
  00019	5d		 pop	 ebp
  0001a	c3		 ret	 0
??$_Allocate@V?$basic_string@DU?$char_traits@D@std@@V?$allocator@D@2@@std@@@std@@YAPAV?$basic_string@DU?$char_traits@D@std@@V?$allocator@D@2@@0@IPAV10@@Z ENDP ; std::_Allocate<std::basic_string<char,std::char_traits<char>,std::allocator<char> > >
_TEXT	ENDS
PUBLIC	??$_Uninitialized_copy@PAPAVIChangeSkinEventListener@@PAPAV1@V?$allocator@PAVIChangeSkinEventListener@@@std@@@std@@YAPAPAVIChangeSkinEventListener@@PAPAV1@00AAV?$allocator@PAVIChangeSkinEventListener@@@0@@Z ; std::_Uninitialized_copy<IChangeSkinEventListener * *,IChangeSkinEventListener * *,std::allocator<IChangeSkinEventListener *> >
; Function compile flags: /Odt /RTCsu
; File d:\program files (x86)\microsoft visual studio .net 2003\vc7\include\vector
;	COMDAT ??$_Ucopy@PAPAVIChangeSkinEventListener@@@?$vector@PAVIChangeSkinEventListener@@V?$allocator@PAVIChangeSkinEventListener@@@std@@@std@@IAEPAPAVIChangeSkinEventListener@@PAPAV2@00@Z
_TEXT	SEGMENT
_this$ = -4						; size = 4
__First$ = 8						; size = 4
__Last$ = 12						; size = 4
__Ptr$ = 16						; size = 4
??$_Ucopy@PAPAVIChangeSkinEventListener@@@?$vector@PAVIChangeSkinEventListener@@V?$allocator@PAVIChangeSkinEventListener@@@std@@@std@@IAEPAPAVIChangeSkinEventListener@@PAPAV2@00@Z PROC NEAR ; std::vector<IChangeSkinEventListener *,std::allocator<IChangeSkinEventListener *> >::_Ucopy<IChangeSkinEventListener * *>, COMDAT
; _this$ = ecx

; 801  : 		pointer _Ucopy(_Iter _First, _Iter _Last, pointer _Ptr)

  00000	55		 push	 ebp
  00001	8b ec		 mov	 ebp, esp
  00003	51		 push	 ecx
  00004	c7 45 fc cc cc
	cc cc		 mov	 DWORD PTR [ebp-4], -858993460 ; ccccccccH
  0000b	89 4d fc	 mov	 DWORD PTR _this$[ebp], ecx

; 802  : 		{	// copy initializing [_First, _Last), using allocator
; 803  : 		return (_Uninitialized_copy(_First, _Last,
; 804  : 			_Ptr, this->_Alval));

  0000e	8b 45 fc	 mov	 eax, DWORD PTR _this$[ebp]
  00011	50		 push	 eax
  00012	8b 4d 10	 mov	 ecx, DWORD PTR __Ptr$[ebp]
  00015	51		 push	 ecx
  00016	8b 55 0c	 mov	 edx, DWORD PTR __Last$[ebp]
  00019	52		 push	 edx
  0001a	8b 45 08	 mov	 eax, DWORD PTR __First$[ebp]
  0001d	50		 push	 eax
  0001e	e8 00 00 00 00	 call	 ??$_Uninitialized_copy@PAPAVIChangeSkinEventListener@@PAPAV1@V?$allocator@PAVIChangeSkinEventListener@@@std@@@std@@YAPAPAVIChangeSkinEventListener@@PAPAV1@00AAV?$allocator@PAVIChangeSkinEventListener@@@0@@Z ; std::_Uninitialized_copy<IChangeSkinEventListener * *,IChangeSkinEventListener * *,std::allocator<IChangeSkinEventListener *> >
  00023	83 c4 10	 add	 esp, 16			; 00000010H

; 805  : 		}

  00026	83 c4 04	 add	 esp, 4
  00029	3b ec		 cmp	 ebp, esp
  0002b	e8 00 00 00 00	 call	 __RTC_CheckEsp
  00030	8b e5		 mov	 esp, ebp
  00032	5d		 pop	 ebp
  00033	c2 0c 00	 ret	 12			; 0000000cH
??$_Ucopy@PAPAVIChangeSkinEventListener@@@?$vector@PAVIChangeSkinEventListener@@V?$allocator@PAVIChangeSkinEventListener@@@std@@@std@@IAEPAPAVIChangeSkinEventListener@@PAPAV2@00@Z ENDP ; std::vector<IChangeSkinEventListener *,std::allocator<IChangeSkinEventListener *> >::_Ucopy<IChangeSkinEventListener * *>
; Function compile flags: /Odt /RTCsu
; File d:\program files (x86)\microsoft visual studio .net 2003\vc7\include\xutility
_TEXT	ENDS
;	COMDAT ??$fill@PAPAVIChangeSkinEventListener@@PAV1@@std@@YAXPAPAVIChangeSkinEventListener@@0ABQAV1@@Z
_TEXT	SEGMENT
__First$ = 8						; size = 4
__Last$ = 12						; size = 4
__Val$ = 16						; size = 4
??$fill@PAPAVIChangeSkinEventListener@@PAV1@@std@@YAXPAPAVIChangeSkinEventListener@@0ABQAV1@@Z PROC NEAR ; std::fill<IChangeSkinEventListener * *,IChangeSkinEventListener *>, COMDAT

; 1134 : 	{	// copy _Val through [_First, _Last)

  00000	55		 push	 ebp
  00001	8b ec		 mov	 ebp, esp

; 1135 : 	for (; _First != _Last; ++_First)

  00003	eb 09		 jmp	 SHORT $L193741
$L193742:
  00005	8b 45 08	 mov	 eax, DWORD PTR __First$[ebp]
  00008	83 c0 04	 add	 eax, 4
  0000b	89 45 08	 mov	 DWORD PTR __First$[ebp], eax
$L193741:
  0000e	8b 4d 08	 mov	 ecx, DWORD PTR __First$[ebp]
  00011	3b 4d 0c	 cmp	 ecx, DWORD PTR __Last$[ebp]
  00014	74 0c		 je	 SHORT $L193740

; 1136 : 		*_First = _Val;

  00016	8b 55 08	 mov	 edx, DWORD PTR __First$[ebp]
  00019	8b 45 10	 mov	 eax, DWORD PTR __Val$[ebp]
  0001c	8b 08		 mov	 ecx, DWORD PTR [eax]
  0001e	89 0a		 mov	 DWORD PTR [edx], ecx
  00020	eb e3		 jmp	 SHORT $L193742
$L193740:

; 1137 : 	}

  00022	5d		 pop	 ebp
  00023	c3		 ret	 0
??$fill@PAPAVIChangeSkinEventListener@@PAV1@@std@@YAXPAPAVIChangeSkinEventListener@@0ABQAV1@@Z ENDP ; std::fill<IChangeSkinEventListener * *,IChangeSkinEventListener *>
_TEXT	ENDS
PUBLIC	??$_Copy_backward_opt@PAPAVIChangeSkinEventListener@@PAPAV1@@std@@YAPAPAVIChangeSkinEventListener@@PAPAV1@00U_Scalar_ptr_iterator_tag@0@@Z ; std::_Copy_backward_opt<IChangeSkinEventListener * *,IChangeSkinEventListener * *>
; Function compile flags: /Odt /RTCsu
;	COMDAT ??$copy_backward@PAPAVIChangeSkinEventListener@@PAPAV1@@std@@YAPAPAVIChangeSkinEventListener@@PAPAV1@00@Z
_TEXT	SEGMENT
$T195494 = -1						; size = 1
__First$ = 8						; size = 4
__Last$ = 12						; size = 4
__Dest$ = 16						; size = 4
??$copy_backward@PAPAVIChangeSkinEventListener@@PAPAV1@@std@@YAPAPAVIChangeSkinEventListener@@PAPAV1@00@Z PROC NEAR ; std::copy_backward<IChangeSkinEventListener * *,IChangeSkinEventListener * *>, COMDAT

; 1067 : 	{	// copy [_First, _Last) backwards to [..., _Dest)

  00000	55		 push	 ebp
  00001	8b ec		 mov	 ebp, esp
  00003	51		 push	 ecx
  00004	c7 45 fc cc cc
	cc cc		 mov	 DWORD PTR [ebp-4], -858993460 ; ccccccccH

; 1068 : 	return (_Copy_backward_opt(_First, _Last, _Dest,
; 1069 : 		_Ptr_cat(_First, _Dest)));

  0000b	8b 45 10	 mov	 eax, DWORD PTR __Dest$[ebp]
  0000e	50		 push	 eax
  0000f	8b 4d 08	 mov	 ecx, DWORD PTR __First$[ebp]
  00012	51		 push	 ecx
  00013	e8 00 00 00 00	 call	 ??$_Ptr_cat@VIChangeSkinEventListener@@@std@@YA?AU_Scalar_ptr_iterator_tag@0@PAPAVIChangeSkinEventListener@@0@Z ; std::_Ptr_cat<IChangeSkinEventListener>
  00018	83 c4 08	 add	 esp, 8
  0001b	88 45 ff	 mov	 BYTE PTR $T195494[ebp], al
  0001e	8a 55 ff	 mov	 dl, BYTE PTR $T195494[ebp]
  00021	52		 push	 edx
  00022	8b 45 10	 mov	 eax, DWORD PTR __Dest$[ebp]
  00025	50		 push	 eax
  00026	8b 4d 0c	 mov	 ecx, DWORD PTR __Last$[ebp]
  00029	51		 push	 ecx
  0002a	8b 55 08	 mov	 edx, DWORD PTR __First$[ebp]
  0002d	52		 push	 edx
  0002e	e8 00 00 00 00	 call	 ??$_Copy_backward_opt@PAPAVIChangeSkinEventListener@@PAPAV1@@std@@YAPAPAVIChangeSkinEventListener@@PAPAV1@00U_Scalar_ptr_iterator_tag@0@@Z ; std::_Copy_backward_opt<IChangeSkinEventListener * *,IChangeSkinEventListener * *>
  00033	83 c4 10	 add	 esp, 16			; 00000010H

; 1070 : 	}

  00036	83 c4 04	 add	 esp, 4
  00039	3b ec		 cmp	 ebp, esp
  0003b	e8 00 00 00 00	 call	 __RTC_CheckEsp
  00040	8b e5		 mov	 esp, ebp
  00042	5d		 pop	 ebp
  00043	c3		 ret	 0
??$copy_backward@PAPAVIChangeSkinEventListener@@PAPAV1@@std@@YAPAPAVIChangeSkinEventListener@@PAPAV1@00@Z ENDP ; std::copy_backward<IChangeSkinEventListener * *,IChangeSkinEventListener * *>
; Function compile flags: /Odt /RTCsu
; File d:\program files (x86)\microsoft visual studio .net 2003\vc7\include\xmemory
_TEXT	ENDS
;	COMDAT ??$_Allocate@PAVIChangeSkinEventListener@@@std@@YAPAPAVIChangeSkinEventListener@@IPAPAV1@@Z
_TEXT	SEGMENT
__Count$ = 8						; size = 4
___formal$ = 12						; size = 4
??$_Allocate@PAVIChangeSkinEventListener@@@std@@YAPAPAVIChangeSkinEventListener@@IPAPAV1@@Z PROC NEAR ; std::_Allocate<IChangeSkinEventListener *>, COMDAT

; 33   : 	{	// allocate storage for _Count elements of type _Ty

  00000	55		 push	 ebp
  00001	8b ec		 mov	 ebp, esp

; 34   : 	return ((_Ty _FARQ *)operator new(_Count * sizeof (_Ty)));

  00003	8b 45 08	 mov	 eax, DWORD PTR __Count$[ebp]
  00006	c1 e0 02	 shl	 eax, 2
  00009	50		 push	 eax
  0000a	e8 00 00 00 00	 call	 ??2@YAPAXI@Z		; operator new
  0000f	83 c4 04	 add	 esp, 4

; 35   : 	}

  00012	3b ec		 cmp	 ebp, esp
  00014	e8 00 00 00 00	 call	 __RTC_CheckEsp
  00019	5d		 pop	 ebp
  0001a	c3		 ret	 0
??$_Allocate@PAVIChangeSkinEventListener@@@std@@YAPAPAVIChangeSkinEventListener@@IPAPAV1@@Z ENDP ; std::_Allocate<IChangeSkinEventListener *>
_TEXT	ENDS
PUBLIC	??$_Ptr_cat@PAV?$basic_string@DU?$char_traits@D@std@@V?$allocator@D@2@@std@@PAV12@@std@@YA?AU_Nonscalar_ptr_iterator_tag@0@AAPAV?$basic_string@DU?$char_traits@D@std@@V?$allocator@D@2@@0@0@Z ; std::_Ptr_cat<std::basic_string<char,std::char_traits<char>,std::allocator<char> > *,std::basic_string<char,std::char_traits<char>,std::allocator<char> > *>
PUBLIC	??$_Destroy_range@V?$basic_string@DU?$char_traits@D@std@@V?$allocator@D@2@@std@@V?$allocator@V?$basic_string@DU?$char_traits@D@std@@V?$allocator@D@2@@std@@@2@@std@@YAXPAV?$basic_string@DU?$char_traits@D@std@@V?$allocator@D@2@@0@0AAV?$allocator@V?$basic_string@DU?$char_traits@D@std@@V?$allocator@D@2@@std@@@0@U_Nonscalar_ptr_iterator_tag@0@@Z ; std::_Destroy_range<std::basic_string<char,std::char_traits<char>,std::allocator<char> >,std::allocator<std::basic_string<char,std::char_traits<char>,std::allocator<char> > > >
; Function compile flags: /Odt /RTCsu
;	COMDAT ??$_Destroy_range@V?$basic_string@DU?$char_traits@D@std@@V?$allocator@D@2@@std@@V?$allocator@V?$basic_string@DU?$char_traits@D@std@@V?$allocator@D@2@@std@@@2@@std@@YAXPAV?$basic_string@DU?$char_traits@D@std@@V?$allocator@D@2@@0@0AAV?$allocator@V?$basic_string@DU?$char_traits@D@std@@V?$allocator@D@2@@std@@@0@@Z
_TEXT	SEGMENT
$T195497 = -1						; size = 1
__First$ = 8						; size = 4
__Last$ = 12						; size = 4
__Al$ = 16						; size = 4
??$_Destroy_range@V?$basic_string@DU?$char_traits@D@std@@V?$allocator@D@2@@std@@V?$allocator@V?$basic_string@DU?$char_traits@D@std@@V?$allocator@D@2@@std@@@2@@std@@YAXPAV?$basic_string@DU?$char_traits@D@std@@V?$allocator@D@2@@0@0AAV?$allocator@V?$basic_string@DU?$char_traits@D@std@@V?$allocator@D@2@@std@@@0@@Z PROC NEAR ; std::_Destroy_range<std::basic_string<char,std::char_traits<char>,std::allocator<char> >,std::allocator<std::basic_string<char,std::char_traits<char>,std::allocator<char> > > >, COMDAT

; 216  : 	{	// destroy [_First, _Last)

  00000	55		 push	 ebp
  00001	8b ec		 mov	 ebp, esp
  00003	51		 push	 ecx
  00004	c7 45 fc cc cc
	cc cc		 mov	 DWORD PTR [ebp-4], -858993460 ; ccccccccH

; 217  : 	_Destroy_range(_First, _Last, _Al, _Ptr_cat(_First, _Last));

  0000b	8d 45 0c	 lea	 eax, DWORD PTR __Last$[ebp]
  0000e	50		 push	 eax
  0000f	8d 4d 08	 lea	 ecx, DWORD PTR __First$[ebp]
  00012	51		 push	 ecx
  00013	e8 00 00 00 00	 call	 ??$_Ptr_cat@PAV?$basic_string@DU?$char_traits@D@std@@V?$allocator@D@2@@std@@PAV12@@std@@YA?AU_Nonscalar_ptr_iterator_tag@0@AAPAV?$basic_string@DU?$char_traits@D@std@@V?$allocator@D@2@@0@0@Z ; std::_Ptr_cat<std::basic_string<char,std::char_traits<char>,std::allocator<char> > *,std::basic_string<char,std::char_traits<char>,std::allocator<char> > *>
  00018	83 c4 08	 add	 esp, 8
  0001b	88 45 ff	 mov	 BYTE PTR $T195497[ebp], al
  0001e	8a 55 ff	 mov	 dl, BYTE PTR $T195497[ebp]
  00021	52		 push	 edx
  00022	8b 45 10	 mov	 eax, DWORD PTR __Al$[ebp]
  00025	50		 push	 eax
  00026	8b 4d 0c	 mov	 ecx, DWORD PTR __Last$[ebp]
  00029	51		 push	 ecx
  0002a	8b 55 08	 mov	 edx, DWORD PTR __First$[ebp]
  0002d	52		 push	 edx
  0002e	e8 00 00 00 00	 call	 ??$_Destroy_range@V?$basic_string@DU?$char_traits@D@std@@V?$allocator@D@2@@std@@V?$allocator@V?$basic_string@DU?$char_traits@D@std@@V?$allocator@D@2@@std@@@2@@std@@YAXPAV?$basic_string@DU?$char_traits@D@std@@V?$allocator@D@2@@0@0AAV?$allocator@V?$basic_string@DU?$char_traits@D@std@@V?$allocator@D@2@@std@@@0@U_Nonscalar_ptr_iterator_tag@0@@Z ; std::_Destroy_range<std::basic_string<char,std::char_traits<char>,std::allocator<char> >,std::allocator<std::basic_string<char,std::char_traits<char>,std::allocator<char> > > >
  00033	83 c4 10	 add	 esp, 16			; 00000010H

; 218  : 	}

  00036	83 c4 04	 add	 esp, 4
  00039	3b ec		 cmp	 ebp, esp
  0003b	e8 00 00 00 00	 call	 __RTC_CheckEsp
  00040	8b e5		 mov	 esp, ebp
  00042	5d		 pop	 ebp
  00043	c3		 ret	 0
??$_Destroy_range@V?$basic_string@DU?$char_traits@D@std@@V?$allocator@D@2@@std@@V?$allocator@V?$basic_string@DU?$char_traits@D@std@@V?$allocator@D@2@@std@@@2@@std@@YAXPAV?$basic_string@DU?$char_traits@D@std@@V?$allocator@D@2@@0@0AAV?$allocator@V?$basic_string@DU?$char_traits@D@std@@V?$allocator@D@2@@std@@@0@@Z ENDP ; std::_Destroy_range<std::basic_string<char,std::char_traits<char>,std::allocator<char> >,std::allocator<std::basic_string<char,std::char_traits<char>,std::allocator<char> > > >
; Function compile flags: /Odt /RTCsu
; File d:\program files (x86)\microsoft visual studio .net 2003\vc7\include\xutility
_TEXT	ENDS
;	COMDAT ??$_Ptr_cat@VIChangeSkinEventListener@@@std@@YA?AU_Scalar_ptr_iterator_tag@0@PAPAVIChangeSkinEventListener@@0@Z
_TEXT	SEGMENT
__Cat$ = -5						; size = 1
___formal$ = 8						; size = 4
___formal$ = 12						; size = 4
??$_Ptr_cat@VIChangeSkinEventListener@@@std@@YA?AU_Scalar_ptr_iterator_tag@0@PAPAVIChangeSkinEventListener@@0@Z PROC NEAR ; std::_Ptr_cat<IChangeSkinEventListener>, COMDAT

; 218  : 	{	// return pointer category from pointer to pointer arguments

  00000	55		 push	 ebp
  00001	8b ec		 mov	 ebp, esp
  00003	83 ec 0c	 sub	 esp, 12			; 0000000cH
  00006	c7 45 f4 cc cc
	cc cc		 mov	 DWORD PTR [ebp-12], -858993460 ; ccccccccH
  0000d	c7 45 f8 cc cc
	cc cc		 mov	 DWORD PTR [ebp-8], -858993460 ; ccccccccH
  00014	c7 45 fc cc cc
	cc cc		 mov	 DWORD PTR [ebp-4], -858993460 ; ccccccccH

; 219  : 	_Scalar_ptr_iterator_tag _Cat;
; 220  : 	return (_Cat);

  0001b	8a 45 fb	 mov	 al, BYTE PTR __Cat$[ebp]

; 221  : 	}

  0001e	52		 push	 edx
  0001f	8b cd		 mov	 ecx, ebp
  00021	50		 push	 eax
  00022	8d 15 00 00 00
	00		 lea	 edx, DWORD PTR $L195501
  00028	e8 00 00 00 00	 call	 @_RTC_CheckStackVars@8
  0002d	58		 pop	 eax
  0002e	5a		 pop	 edx
  0002f	8b e5		 mov	 esp, ebp
  00031	5d		 pop	 ebp
  00032	c3		 ret	 0
$L195501:
  00033	01 00 00 00	 DD	 1
  00037	00 00 00 00	 DD	 $L195500
$L195500:
  0003b	fb ff ff ff	 DD	 -5			; fffffffbH
  0003f	01 00 00 00	 DD	 1
  00043	00 00 00 00	 DD	 $L195499
$L195499:
  00047	5f		 DB	 95			; 0000005fH
  00048	43		 DB	 67			; 00000043H
  00049	61		 DB	 97			; 00000061H
  0004a	74		 DB	 116			; 00000074H
  0004b	00		 DB	 0
??$_Ptr_cat@VIChangeSkinEventListener@@@std@@YA?AU_Scalar_ptr_iterator_tag@0@PAPAVIChangeSkinEventListener@@0@Z ENDP ; std::_Ptr_cat<IChangeSkinEventListener>
_TEXT	ENDS
EXTRN	__imp__memmove:NEAR
; Function compile flags: /Odt /RTCsu
;	COMDAT ??$_Copy_opt@PAPAVIChangeSkinEventListener@@PAPAV1@@std@@YAPAPAVIChangeSkinEventListener@@PAPAV1@00U_Scalar_ptr_iterator_tag@0@@Z
_TEXT	SEGMENT
__Off$ = -4						; size = 4
__First$ = 8						; size = 4
__Last$ = 12						; size = 4
__Dest$ = 16						; size = 4
___formal$ = 20						; size = 1
??$_Copy_opt@PAPAVIChangeSkinEventListener@@PAPAV1@@std@@YAPAPAVIChangeSkinEventListener@@PAPAV1@00U_Scalar_ptr_iterator_tag@0@@Z PROC NEAR ; std::_Copy_opt<IChangeSkinEventListener * *,IChangeSkinEventListener * *>, COMDAT

; 1030 : 	{	// copy [_First, _Last) to [_Dest, ...), pointers to scalars

  00000	55		 push	 ebp
  00001	8b ec		 mov	 ebp, esp
  00003	51		 push	 ecx
  00004	56		 push	 esi
  00005	c7 45 fc cc cc
	cc cc		 mov	 DWORD PTR [ebp-4], -858993460 ; ccccccccH

; 1031 : 	ptrdiff_t _Off = _Last - _First;	// NB: non-overlapping move

  0000c	8b 45 0c	 mov	 eax, DWORD PTR __Last$[ebp]
  0000f	2b 45 08	 sub	 eax, DWORD PTR __First$[ebp]
  00012	c1 f8 02	 sar	 eax, 2
  00015	89 45 fc	 mov	 DWORD PTR __Off$[ebp], eax

; 1032 : 	return ((_OutIt)::memmove(&*_Dest, &*_First,
; 1033 : 		_Off * sizeof (*_First)) + _Off);

  00018	8b 4d fc	 mov	 ecx, DWORD PTR __Off$[ebp]
  0001b	c1 e1 02	 shl	 ecx, 2
  0001e	8b f4		 mov	 esi, esp
  00020	51		 push	 ecx
  00021	8b 55 08	 mov	 edx, DWORD PTR __First$[ebp]
  00024	52		 push	 edx
  00025	8b 45 10	 mov	 eax, DWORD PTR __Dest$[ebp]
  00028	50		 push	 eax
  00029	ff 15 00 00 00
	00		 call	 DWORD PTR __imp__memmove
  0002f	83 c4 0c	 add	 esp, 12			; 0000000cH
  00032	3b f4		 cmp	 esi, esp
  00034	e8 00 00 00 00	 call	 __RTC_CheckEsp
  00039	8b 4d fc	 mov	 ecx, DWORD PTR __Off$[ebp]
  0003c	8d 04 88	 lea	 eax, DWORD PTR [eax+ecx*4]

; 1034 : 	}

  0003f	5e		 pop	 esi
  00040	83 c4 04	 add	 esp, 4
  00043	3b ec		 cmp	 ebp, esp
  00045	e8 00 00 00 00	 call	 __RTC_CheckEsp
  0004a	8b e5		 mov	 esp, ebp
  0004c	5d		 pop	 ebp
  0004d	c3		 ret	 0
??$_Copy_opt@PAPAVIChangeSkinEventListener@@PAPAV1@@std@@YAPAPAVIChangeSkinEventListener@@PAPAV1@00U_Scalar_ptr_iterator_tag@0@@Z ENDP ; std::_Copy_opt<IChangeSkinEventListener * *,IChangeSkinEventListener * *>
; Function compile flags: /Odt /RTCsu
; File d:\program files (x86)\microsoft visual studio .net 2003\vc7\include\xmemory
_TEXT	ENDS
;	COMDAT ??$_Destroy_range@PAVIChangeSkinEventListener@@V?$allocator@PAVIChangeSkinEventListener@@@std@@@std@@YAXPAPAVIChangeSkinEventListener@@0AAV?$allocator@PAVIChangeSkinEventListener@@@0@U_Scalar_ptr_iterator_tag@0@@Z
_TEXT	SEGMENT
__First$ = 8						; size = 4
__Last$ = 12						; size = 4
__Al$ = 16						; size = 4
___formal$ = 20						; size = 1
??$_Destroy_range@PAVIChangeSkinEventListener@@V?$allocator@PAVIChangeSkinEventListener@@@std@@@std@@YAXPAPAVIChangeSkinEventListener@@0AAV?$allocator@PAVIChangeSkinEventListener@@@0@U_Scalar_ptr_iterator_tag@0@@Z PROC NEAR ; std::_Destroy_range<IChangeSkinEventListener *,std::allocator<IChangeSkinEventListener *> >, COMDAT

; 233  : 	{	// destroy [_First, _Last), scalar type (do nothing)

  00000	55		 push	 ebp
  00001	8b ec		 mov	 ebp, esp

; 234  : 	}

  00003	5d		 pop	 ebp
  00004	c3		 ret	 0
??$_Destroy_range@PAVIChangeSkinEventListener@@V?$allocator@PAVIChangeSkinEventListener@@@std@@@std@@YAXPAPAVIChangeSkinEventListener@@0AAV?$allocator@PAVIChangeSkinEventListener@@@0@U_Scalar_ptr_iterator_tag@0@@Z ENDP ; std::_Destroy_range<IChangeSkinEventListener *,std::allocator<IChangeSkinEventListener *> >
_TEXT	ENDS
PUBLIC	??$fill_n@PAPAVIChangeSkinEventListener@@IPAV1@@std@@YAXPAPAVIChangeSkinEventListener@@IABQAV1@@Z ; std::fill_n<IChangeSkinEventListener * *,unsigned int,IChangeSkinEventListener *>
; Function compile flags: /Odt /RTCsu
; File d:\program files (x86)\microsoft visual studio .net 2003\vc7\include\memory
;	COMDAT ??$_Uninit_fill_n@PAVIChangeSkinEventListener@@IPAV1@@std@@YAXPAPAVIChangeSkinEventListener@@IABQAV1@AAV?$allocator@PAVIChangeSkinEventListener@@@0@U_Scalar_ptr_iterator_tag@0@@Z
_TEXT	SEGMENT
__First$ = 8						; size = 4
__Count$ = 12						; size = 4
__Val$ = 16						; size = 4
___formal$ = 20						; size = 4
___formal$ = 24						; size = 1
??$_Uninit_fill_n@PAVIChangeSkinEventListener@@IPAV1@@std@@YAXPAPAVIChangeSkinEventListener@@IABQAV1@AAV?$allocator@PAVIChangeSkinEventListener@@@0@U_Scalar_ptr_iterator_tag@0@@Z PROC NEAR ; std::_Uninit_fill_n<IChangeSkinEventListener *,unsigned int,IChangeSkinEventListener *>, COMDAT

; 236  : 	{	// copy _Count *_Val to raw _First, using _Al, scalar type

  00000	55		 push	 ebp
  00001	8b ec		 mov	 ebp, esp

; 237  : 	fill_n(_First, _Count, _Val);

  00003	8b 45 10	 mov	 eax, DWORD PTR __Val$[ebp]
  00006	50		 push	 eax
  00007	8b 4d 0c	 mov	 ecx, DWORD PTR __Count$[ebp]
  0000a	51		 push	 ecx
  0000b	8b 55 08	 mov	 edx, DWORD PTR __First$[ebp]
  0000e	52		 push	 edx
  0000f	e8 00 00 00 00	 call	 ??$fill_n@PAPAVIChangeSkinEventListener@@IPAV1@@std@@YAXPAPAVIChangeSkinEventListener@@IABQAV1@@Z ; std::fill_n<IChangeSkinEventListener * *,unsigned int,IChangeSkinEventListener *>
  00014	83 c4 0c	 add	 esp, 12			; 0000000cH

; 238  : 	}

  00017	3b ec		 cmp	 ebp, esp
  00019	e8 00 00 00 00	 call	 __RTC_CheckEsp
  0001e	5d		 pop	 ebp
  0001f	c3		 ret	 0
??$_Uninit_fill_n@PAVIChangeSkinEventListener@@IPAV1@@std@@YAXPAPAVIChangeSkinEventListener@@IABQAV1@AAV?$allocator@PAVIChangeSkinEventListener@@@0@U_Scalar_ptr_iterator_tag@0@@Z ENDP ; std::_Uninit_fill_n<IChangeSkinEventListener *,unsigned int,IChangeSkinEventListener *>
_TEXT	ENDS
PUBLIC	??$_Uninit_copy@PAVIChangeSkinEventListener@@PAV1@@std@@YAPAPAVIChangeSkinEventListener@@PAPAV1@00AAV?$allocator@PAVIChangeSkinEventListener@@@0@U_Scalar_ptr_iterator_tag@0@@Z ; std::_Uninit_copy<IChangeSkinEventListener *,IChangeSkinEventListener *>
; Function compile flags: /Odt /RTCsu
;	COMDAT ??$_Uninitialized_copy@PAPAVIChangeSkinEventListener@@PAPAV1@V?$allocator@PAVIChangeSkinEventListener@@@std@@@std@@YAPAPAVIChangeSkinEventListener@@PAPAV1@00AAV?$allocator@PAVIChangeSkinEventListener@@@0@@Z
_TEXT	SEGMENT
$T195506 = -1						; size = 1
__First$ = 8						; size = 4
__Last$ = 12						; size = 4
__Dest$ = 16						; size = 4
__Al$ = 20						; size = 4
??$_Uninitialized_copy@PAPAVIChangeSkinEventListener@@PAPAV1@V?$allocator@PAVIChangeSkinEventListener@@@std@@@std@@YAPAPAVIChangeSkinEventListener@@PAPAV1@00AAV?$allocator@PAVIChangeSkinEventListener@@@0@@Z PROC NEAR ; std::_Uninitialized_copy<IChangeSkinEventListener * *,IChangeSkinEventListener * *,std::allocator<IChangeSkinEventListener *> >, COMDAT

; 126  : 	{	// copy [_First, _Last) to raw _Dest, using _Al

  00000	55		 push	 ebp
  00001	8b ec		 mov	 ebp, esp
  00003	51		 push	 ecx
  00004	c7 45 fc cc cc
	cc cc		 mov	 DWORD PTR [ebp-4], -858993460 ; ccccccccH

; 127  : 	return (_Uninit_copy(_First, _Last, _Dest, _Al,
; 128  : 		_Ptr_cat(_First, _Dest)));

  0000b	8b 45 10	 mov	 eax, DWORD PTR __Dest$[ebp]
  0000e	50		 push	 eax
  0000f	8b 4d 08	 mov	 ecx, DWORD PTR __First$[ebp]
  00012	51		 push	 ecx
  00013	e8 00 00 00 00	 call	 ??$_Ptr_cat@VIChangeSkinEventListener@@@std@@YA?AU_Scalar_ptr_iterator_tag@0@PAPAVIChangeSkinEventListener@@0@Z ; std::_Ptr_cat<IChangeSkinEventListener>
  00018	83 c4 08	 add	 esp, 8
  0001b	88 45 ff	 mov	 BYTE PTR $T195506[ebp], al
  0001e	8a 55 ff	 mov	 dl, BYTE PTR $T195506[ebp]
  00021	52		 push	 edx
  00022	8b 45 14	 mov	 eax, DWORD PTR __Al$[ebp]
  00025	50		 push	 eax
  00026	8b 4d 10	 mov	 ecx, DWORD PTR __Dest$[ebp]
  00029	51		 push	 ecx
  0002a	8b 55 0c	 mov	 edx, DWORD PTR __Last$[ebp]
  0002d	52		 push	 edx
  0002e	8b 45 08	 mov	 eax, DWORD PTR __First$[ebp]
  00031	50		 push	 eax
  00032	e8 00 00 00 00	 call	 ??$_Uninit_copy@PAVIChangeSkinEventListener@@PAV1@@std@@YAPAPAVIChangeSkinEventListener@@PAPAV1@00AAV?$allocator@PAVIChangeSkinEventListener@@@0@U_Scalar_ptr_iterator_tag@0@@Z ; std::_Uninit_copy<IChangeSkinEventListener *,IChangeSkinEventListener *>
  00037	83 c4 14	 add	 esp, 20			; 00000014H

; 129  : 	}

  0003a	83 c4 04	 add	 esp, 4
  0003d	3b ec		 cmp	 ebp, esp
  0003f	e8 00 00 00 00	 call	 __RTC_CheckEsp
  00044	8b e5		 mov	 esp, ebp
  00046	5d		 pop	 ebp
  00047	c3		 ret	 0
??$_Uninitialized_copy@PAPAVIChangeSkinEventListener@@PAPAV1@V?$allocator@PAVIChangeSkinEventListener@@@std@@@std@@YAPAPAVIChangeSkinEventListener@@PAPAV1@00AAV?$allocator@PAVIChangeSkinEventListener@@@0@@Z ENDP ; std::_Uninitialized_copy<IChangeSkinEventListener * *,IChangeSkinEventListener * *,std::allocator<IChangeSkinEventListener *> >
; Function compile flags: /Odt /RTCsu
; File d:\program files (x86)\microsoft visual studio .net 2003\vc7\include\xutility
_TEXT	ENDS
;	COMDAT ??$_Copy_backward_opt@PAPAVIChangeSkinEventListener@@PAPAV1@@std@@YAPAPAVIChangeSkinEventListener@@PAPAV1@00U_Scalar_ptr_iterator_tag@0@@Z
_TEXT	SEGMENT
__Off$ = -4						; size = 4
__First$ = 8						; size = 4
__Last$ = 12						; size = 4
__Dest$ = 16						; size = 4
___formal$ = 20						; size = 1
??$_Copy_backward_opt@PAPAVIChangeSkinEventListener@@PAPAV1@@std@@YAPAPAVIChangeSkinEventListener@@PAPAV1@00U_Scalar_ptr_iterator_tag@0@@Z PROC NEAR ; std::_Copy_backward_opt<IChangeSkinEventListener * *,IChangeSkinEventListener * *>, COMDAT

; 1058 : 	{	// copy [_First, _Last) backwards to [..., _Dest), pointers to scalars

  00000	55		 push	 ebp
  00001	8b ec		 mov	 ebp, esp
  00003	51		 push	 ecx
  00004	56		 push	 esi
  00005	c7 45 fc cc cc
	cc cc		 mov	 DWORD PTR [ebp-4], -858993460 ; ccccccccH

; 1059 : 	ptrdiff_t _Off = _Last - _First;	// NB: non-overlapping move

  0000c	8b 45 0c	 mov	 eax, DWORD PTR __Last$[ebp]
  0000f	2b 45 08	 sub	 eax, DWORD PTR __First$[ebp]
  00012	c1 f8 02	 sar	 eax, 2
  00015	89 45 fc	 mov	 DWORD PTR __Off$[ebp], eax

; 1060 : 	return ((_OutIt)memmove(&*_Dest - _Off, &*_First,
; 1061 : 		_Off * sizeof (*_First)));

  00018	8b 4d fc	 mov	 ecx, DWORD PTR __Off$[ebp]
  0001b	c1 e1 02	 shl	 ecx, 2
  0001e	8b f4		 mov	 esi, esp
  00020	51		 push	 ecx
  00021	8b 55 08	 mov	 edx, DWORD PTR __First$[ebp]
  00024	52		 push	 edx
  00025	8b 45 fc	 mov	 eax, DWORD PTR __Off$[ebp]
  00028	c1 e0 02	 shl	 eax, 2
  0002b	8b 4d 10	 mov	 ecx, DWORD PTR __Dest$[ebp]
  0002e	2b c8		 sub	 ecx, eax
  00030	51		 push	 ecx
  00031	ff 15 00 00 00
	00		 call	 DWORD PTR __imp__memmove
  00037	83 c4 0c	 add	 esp, 12			; 0000000cH
  0003a	3b f4		 cmp	 esi, esp
  0003c	e8 00 00 00 00	 call	 __RTC_CheckEsp

; 1062 : 	}

  00041	5e		 pop	 esi
  00042	83 c4 04	 add	 esp, 4
  00045	3b ec		 cmp	 ebp, esp
  00047	e8 00 00 00 00	 call	 __RTC_CheckEsp
  0004c	8b e5		 mov	 esp, ebp
  0004e	5d		 pop	 ebp
  0004f	c3		 ret	 0
??$_Copy_backward_opt@PAPAVIChangeSkinEventListener@@PAPAV1@@std@@YAPAPAVIChangeSkinEventListener@@PAPAV1@00U_Scalar_ptr_iterator_tag@0@@Z ENDP ; std::_Copy_backward_opt<IChangeSkinEventListener * *,IChangeSkinEventListener * *>
; Function compile flags: /Odt /RTCsu
_TEXT	ENDS
;	COMDAT ??$_Ptr_cat@PAV?$basic_string@DU?$char_traits@D@std@@V?$allocator@D@2@@std@@PAV12@@std@@YA?AU_Nonscalar_ptr_iterator_tag@0@AAPAV?$basic_string@DU?$char_traits@D@std@@V?$allocator@D@2@@0@0@Z
_TEXT	SEGMENT
__Cat$ = -5						; size = 1
___formal$ = 8						; size = 4
___formal$ = 12						; size = 4
??$_Ptr_cat@PAV?$basic_string@DU?$char_traits@D@std@@V?$allocator@D@2@@std@@PAV12@@std@@YA?AU_Nonscalar_ptr_iterator_tag@0@AAPAV?$basic_string@DU?$char_traits@D@std@@V?$allocator@D@2@@0@0@Z PROC NEAR ; std::_Ptr_cat<std::basic_string<char,std::char_traits<char>,std::allocator<char> > *,std::basic_string<char,std::char_traits<char>,std::allocator<char> > *>, COMDAT

; 211  : 	{	// return pointer category from arbitrary arguments

  00000	55		 push	 ebp
  00001	8b ec		 mov	 ebp, esp
  00003	83 ec 0c	 sub	 esp, 12			; 0000000cH
  00006	c7 45 f4 cc cc
	cc cc		 mov	 DWORD PTR [ebp-12], -858993460 ; ccccccccH
  0000d	c7 45 f8 cc cc
	cc cc		 mov	 DWORD PTR [ebp-8], -858993460 ; ccccccccH
  00014	c7 45 fc cc cc
	cc cc		 mov	 DWORD PTR [ebp-4], -858993460 ; ccccccccH

; 212  : 	_Nonscalar_ptr_iterator_tag _Cat;
; 213  : 	return (_Cat);

  0001b	8a 45 fb	 mov	 al, BYTE PTR __Cat$[ebp]

; 214  : 	}

  0001e	52		 push	 edx
  0001f	8b cd		 mov	 ecx, ebp
  00021	50		 push	 eax
  00022	8d 15 00 00 00
	00		 lea	 edx, DWORD PTR $L195511
  00028	e8 00 00 00 00	 call	 @_RTC_CheckStackVars@8
  0002d	58		 pop	 eax
  0002e	5a		 pop	 edx
  0002f	8b e5		 mov	 esp, ebp
  00031	5d		 pop	 ebp
  00032	c3		 ret	 0
$L195511:
  00033	01 00 00 00	 DD	 1
  00037	00 00 00 00	 DD	 $L195510
$L195510:
  0003b	fb ff ff ff	 DD	 -5			; fffffffbH
  0003f	01 00 00 00	 DD	 1
  00043	00 00 00 00	 DD	 $L195509
$L195509:
  00047	5f		 DB	 95			; 0000005fH
  00048	43		 DB	 67			; 00000043H
  00049	61		 DB	 97			; 00000061H
  0004a	74		 DB	 116			; 00000074H
  0004b	00		 DB	 0
??$_Ptr_cat@PAV?$basic_string@DU?$char_traits@D@std@@V?$allocator@D@2@@std@@PAV12@@std@@YA?AU_Nonscalar_ptr_iterator_tag@0@AAPAV?$basic_string@DU?$char_traits@D@std@@V?$allocator@D@2@@0@0@Z ENDP ; std::_Ptr_cat<std::basic_string<char,std::char_traits<char>,std::allocator<char> > *,std::basic_string<char,std::char_traits<char>,std::allocator<char> > *>
_TEXT	ENDS
PUBLIC	?destroy@?$allocator@V?$basic_string@DU?$char_traits@D@std@@V?$allocator@D@2@@std@@@std@@QAEXPAV?$basic_string@DU?$char_traits@D@std@@V?$allocator@D@2@@2@@Z ; std::allocator<std::basic_string<char,std::char_traits<char>,std::allocator<char> > >::destroy
; Function compile flags: /Odt /RTCsu
; File d:\program files (x86)\microsoft visual studio .net 2003\vc7\include\xmemory
;	COMDAT ??$_Destroy_range@V?$basic_string@DU?$char_traits@D@std@@V?$allocator@D@2@@std@@V?$allocator@V?$basic_string@DU?$char_traits@D@std@@V?$allocator@D@2@@std@@@2@@std@@YAXPAV?$basic_string@DU?$char_traits@D@std@@V?$allocator@D@2@@0@0AAV?$allocator@V?$basic_string@DU?$char_traits@D@std@@V?$allocator@D@2@@std@@@0@U_Nonscalar_ptr_iterator_tag@0@@Z
_TEXT	SEGMENT
__First$ = 8						; size = 4
__Last$ = 12						; size = 4
__Al$ = 16						; size = 4
___formal$ = 20						; size = 1
??$_Destroy_range@V?$basic_string@DU?$char_traits@D@std@@V?$allocator@D@2@@std@@V?$allocator@V?$basic_string@DU?$char_traits@D@std@@V?$allocator@D@2@@std@@@2@@std@@YAXPAV?$basic_string@DU?$char_traits@D@std@@V?$allocator@D@2@@0@0AAV?$allocator@V?$basic_string@DU?$char_traits@D@std@@V?$allocator@D@2@@std@@@0@U_Nonscalar_ptr_iterator_tag@0@@Z PROC NEAR ; std::_Destroy_range<std::basic_string<char,std::char_traits<char>,std::allocator<char> >,std::allocator<std::basic_string<char,std::char_traits<char>,std::allocator<char> > > >, COMDAT

; 224  : 	{	// destroy [_First, _Last), arbitrary type

  00000	55		 push	 ebp
  00001	8b ec		 mov	 ebp, esp

; 225  : 	for (; _First != _Last; ++_First)

  00003	eb 09		 jmp	 SHORT $L193851
$L193852:
  00005	8b 45 08	 mov	 eax, DWORD PTR __First$[ebp]
  00008	83 c0 1c	 add	 eax, 28			; 0000001cH
  0000b	89 45 08	 mov	 DWORD PTR __First$[ebp], eax
$L193851:
  0000e	8b 4d 08	 mov	 ecx, DWORD PTR __First$[ebp]
  00011	3b 4d 0c	 cmp	 ecx, DWORD PTR __Last$[ebp]
  00014	74 0e		 je	 SHORT $L193850

; 226  : 		_Al.destroy(_First);

  00016	8b 55 08	 mov	 edx, DWORD PTR __First$[ebp]
  00019	52		 push	 edx
  0001a	8b 4d 10	 mov	 ecx, DWORD PTR __Al$[ebp]
  0001d	e8 00 00 00 00	 call	 ?destroy@?$allocator@V?$basic_string@DU?$char_traits@D@std@@V?$allocator@D@2@@std@@@std@@QAEXPAV?$basic_string@DU?$char_traits@D@std@@V?$allocator@D@2@@2@@Z ; std::allocator<std::basic_string<char,std::char_traits<char>,std::allocator<char> > >::destroy
  00022	eb e1		 jmp	 SHORT $L193852
$L193850:

; 227  : 	}

  00024	3b ec		 cmp	 ebp, esp
  00026	e8 00 00 00 00	 call	 __RTC_CheckEsp
  0002b	5d		 pop	 ebp
  0002c	c3		 ret	 0
??$_Destroy_range@V?$basic_string@DU?$char_traits@D@std@@V?$allocator@D@2@@std@@V?$allocator@V?$basic_string@DU?$char_traits@D@std@@V?$allocator@D@2@@std@@@2@@std@@YAXPAV?$basic_string@DU?$char_traits@D@std@@V?$allocator@D@2@@0@0AAV?$allocator@V?$basic_string@DU?$char_traits@D@std@@V?$allocator@D@2@@std@@@0@U_Nonscalar_ptr_iterator_tag@0@@Z ENDP ; std::_Destroy_range<std::basic_string<char,std::char_traits<char>,std::allocator<char> >,std::allocator<std::basic_string<char,std::char_traits<char>,std::allocator<char> > > >
_TEXT	ENDS
PUBLIC	??$_Destroy@V?$basic_string@DU?$char_traits@D@std@@V?$allocator@D@2@@std@@@std@@YAXPAV?$basic_string@DU?$char_traits@D@std@@V?$allocator@D@2@@0@@Z ; std::_Destroy<std::basic_string<char,std::char_traits<char>,std::allocator<char> > >
; Function compile flags: /Odt /RTCsu
;	COMDAT ?destroy@?$allocator@V?$basic_string@DU?$char_traits@D@std@@V?$allocator@D@2@@std@@@std@@QAEXPAV?$basic_string@DU?$char_traits@D@std@@V?$allocator@D@2@@2@@Z
_TEXT	SEGMENT
_this$ = -4						; size = 4
__Ptr$ = 8						; size = 4
?destroy@?$allocator@V?$basic_string@DU?$char_traits@D@std@@V?$allocator@D@2@@std@@@std@@QAEXPAV?$basic_string@DU?$char_traits@D@std@@V?$allocator@D@2@@2@@Z PROC NEAR ; std::allocator<std::basic_string<char,std::char_traits<char>,std::allocator<char> > >::destroy, COMDAT
; _this$ = ecx

; 151  : 		{	// destroy object at _Ptr

  00000	55		 push	 ebp
  00001	8b ec		 mov	 ebp, esp
  00003	51		 push	 ecx
  00004	c7 45 fc cc cc
	cc cc		 mov	 DWORD PTR [ebp-4], -858993460 ; ccccccccH
  0000b	89 4d fc	 mov	 DWORD PTR _this$[ebp], ecx

; 152  : 		_Destroy(_Ptr);

  0000e	8b 45 08	 mov	 eax, DWORD PTR __Ptr$[ebp]
  00011	50		 push	 eax
  00012	e8 00 00 00 00	 call	 ??$_Destroy@V?$basic_string@DU?$char_traits@D@std@@V?$allocator@D@2@@std@@@std@@YAXPAV?$basic_string@DU?$char_traits@D@std@@V?$allocator@D@2@@0@@Z ; std::_Destroy<std::basic_string<char,std::char_traits<char>,std::allocator<char> > >
  00017	83 c4 04	 add	 esp, 4

; 153  : 		}

  0001a	83 c4 04	 add	 esp, 4
  0001d	3b ec		 cmp	 ebp, esp
  0001f	e8 00 00 00 00	 call	 __RTC_CheckEsp
  00024	8b e5		 mov	 esp, ebp
  00026	5d		 pop	 ebp
  00027	c2 04 00	 ret	 4
?destroy@?$allocator@V?$basic_string@DU?$char_traits@D@std@@V?$allocator@D@2@@std@@@std@@QAEXPAV?$basic_string@DU?$char_traits@D@std@@V?$allocator@D@2@@2@@Z ENDP ; std::allocator<std::basic_string<char,std::char_traits<char>,std::allocator<char> > >::destroy
; Function compile flags: /Odt /RTCsu
; File d:\program files (x86)\microsoft visual studio .net 2003\vc7\include\xutility
_TEXT	ENDS
;	COMDAT ??$fill_n@PAPAVIChangeSkinEventListener@@IPAV1@@std@@YAXPAPAVIChangeSkinEventListener@@IABQAV1@@Z
_TEXT	SEGMENT
__First$ = 8						; size = 4
__Count$ = 12						; size = 4
__Val$ = 16						; size = 4
??$fill_n@PAPAVIChangeSkinEventListener@@IPAV1@@std@@YAXPAPAVIChangeSkinEventListener@@IABQAV1@@Z PROC NEAR ; std::fill_n<IChangeSkinEventListener * *,unsigned int,IChangeSkinEventListener *>, COMDAT

; 1159 : 	{	// copy _Val _Count times through [_First, ...)

  00000	55		 push	 ebp
  00001	8b ec		 mov	 ebp, esp

; 1160 : 	for (; 0 < _Count; --_Count, ++_First)

  00003	eb 12		 jmp	 SHORT $L193861
$L193862:
  00005	8b 45 0c	 mov	 eax, DWORD PTR __Count$[ebp]
  00008	83 e8 01	 sub	 eax, 1
  0000b	89 45 0c	 mov	 DWORD PTR __Count$[ebp], eax
  0000e	8b 4d 08	 mov	 ecx, DWORD PTR __First$[ebp]
  00011	83 c1 04	 add	 ecx, 4
  00014	89 4d 08	 mov	 DWORD PTR __First$[ebp], ecx
$L193861:
  00017	83 7d 0c 00	 cmp	 DWORD PTR __Count$[ebp], 0
  0001b	76 0c		 jbe	 SHORT $L193860

; 1161 : 		*_First = _Val;

  0001d	8b 55 08	 mov	 edx, DWORD PTR __First$[ebp]
  00020	8b 45 10	 mov	 eax, DWORD PTR __Val$[ebp]
  00023	8b 08		 mov	 ecx, DWORD PTR [eax]
  00025	89 0a		 mov	 DWORD PTR [edx], ecx
  00027	eb dc		 jmp	 SHORT $L193862
$L193860:

; 1162 : 	}

  00029	5d		 pop	 ebp
  0002a	c3		 ret	 0
??$fill_n@PAPAVIChangeSkinEventListener@@IPAV1@@std@@YAXPAPAVIChangeSkinEventListener@@IABQAV1@@Z ENDP ; std::fill_n<IChangeSkinEventListener * *,unsigned int,IChangeSkinEventListener *>
; Function compile flags: /Odt /RTCsu
; File d:\program files (x86)\microsoft visual studio .net 2003\vc7\include\memory
_TEXT	ENDS
;	COMDAT ??$_Uninit_copy@PAVIChangeSkinEventListener@@PAV1@@std@@YAPAPAVIChangeSkinEventListener@@PAPAV1@00AAV?$allocator@PAVIChangeSkinEventListener@@@0@U_Scalar_ptr_iterator_tag@0@@Z
_TEXT	SEGMENT
__Count$ = -4						; size = 4
__First$ = 8						; size = 4
__Last$ = 12						; size = 4
__Dest$ = 16						; size = 4
___formal$ = 20						; size = 4
___formal$ = 24						; size = 1
??$_Uninit_copy@PAVIChangeSkinEventListener@@PAV1@@std@@YAPAPAVIChangeSkinEventListener@@PAPAV1@00AAV?$allocator@PAVIChangeSkinEventListener@@@0@U_Scalar_ptr_iterator_tag@0@@Z PROC NEAR ; std::_Uninit_copy<IChangeSkinEventListener *,IChangeSkinEventListener *>, COMDAT

; 105  : 	{	// copy [_First, _Last) to raw _Dest, (const) scalar type

  00000	55		 push	 ebp
  00001	8b ec		 mov	 ebp, esp
  00003	51		 push	 ecx
  00004	56		 push	 esi
  00005	c7 45 fc cc cc
	cc cc		 mov	 DWORD PTR [ebp-4], -858993460 ; ccccccccH

; 106  : 	size_t _Count = (size_t)(_Last - _First);

  0000c	8b 45 0c	 mov	 eax, DWORD PTR __Last$[ebp]
  0000f	2b 45 08	 sub	 eax, DWORD PTR __First$[ebp]
  00012	c1 f8 02	 sar	 eax, 2
  00015	89 45 fc	 mov	 DWORD PTR __Count$[ebp], eax

; 107  : 	return ((_Ty2 *)memmove(&*_Dest, &*_First,
; 108  : 		_Count * sizeof (*_First)) + _Count);	// NB: non-overlapping move

  00018	8b 4d fc	 mov	 ecx, DWORD PTR __Count$[ebp]
  0001b	c1 e1 02	 shl	 ecx, 2
  0001e	8b f4		 mov	 esi, esp
  00020	51		 push	 ecx
  00021	8b 55 08	 mov	 edx, DWORD PTR __First$[ebp]
  00024	52		 push	 edx
  00025	8b 45 10	 mov	 eax, DWORD PTR __Dest$[ebp]
  00028	50		 push	 eax
  00029	ff 15 00 00 00
	00		 call	 DWORD PTR __imp__memmove
  0002f	83 c4 0c	 add	 esp, 12			; 0000000cH
  00032	3b f4		 cmp	 esi, esp
  00034	e8 00 00 00 00	 call	 __RTC_CheckEsp
  00039	8b 4d fc	 mov	 ecx, DWORD PTR __Count$[ebp]
  0003c	8d 04 88	 lea	 eax, DWORD PTR [eax+ecx*4]

; 109  : 	}

  0003f	5e		 pop	 esi
  00040	83 c4 04	 add	 esp, 4
  00043	3b ec		 cmp	 ebp, esp
  00045	e8 00 00 00 00	 call	 __RTC_CheckEsp
  0004a	8b e5		 mov	 esp, ebp
  0004c	5d		 pop	 ebp
  0004d	c3		 ret	 0
??$_Uninit_copy@PAVIChangeSkinEventListener@@PAV1@@std@@YAPAPAVIChangeSkinEventListener@@PAPAV1@00AAV?$allocator@PAVIChangeSkinEventListener@@@0@U_Scalar_ptr_iterator_tag@0@@Z ENDP ; std::_Uninit_copy<IChangeSkinEventListener *,IChangeSkinEventListener *>
_TEXT	ENDS
PUBLIC	??_G?$basic_string@DU?$char_traits@D@std@@V?$allocator@D@2@@std@@QAEPAXI@Z ; std::basic_string<char,std::char_traits<char>,std::allocator<char> >::`scalar deleting destructor'
; Function compile flags: /Odt /RTCsu
; File d:\program files (x86)\microsoft visual studio .net 2003\vc7\include\xmemory
;	COMDAT ??$_Destroy@V?$basic_string@DU?$char_traits@D@std@@V?$allocator@D@2@@std@@@std@@YAXPAV?$basic_string@DU?$char_traits@D@std@@V?$allocator@D@2@@0@@Z
_TEXT	SEGMENT
__Ptr$ = 8						; size = 4
??$_Destroy@V?$basic_string@DU?$char_traits@D@std@@V?$allocator@D@2@@std@@@std@@YAXPAV?$basic_string@DU?$char_traits@D@std@@V?$allocator@D@2@@0@@Z PROC NEAR ; std::_Destroy<std::basic_string<char,std::char_traits<char>,std::allocator<char> > >, COMDAT

; 48   : 	{	// destroy object at _Ptr

  00000	55		 push	 ebp
  00001	8b ec		 mov	 ebp, esp

; 49   : 	_DESTRUCTOR(_Ty, _Ptr);

  00003	6a 00		 push	 0
  00005	8b 4d 08	 mov	 ecx, DWORD PTR __Ptr$[ebp]
  00008	e8 00 00 00 00	 call	 ??_G?$basic_string@DU?$char_traits@D@std@@V?$allocator@D@2@@std@@QAEPAXI@Z

; 50   : 	}

  0000d	3b ec		 cmp	 ebp, esp
  0000f	e8 00 00 00 00	 call	 __RTC_CheckEsp
  00014	5d		 pop	 ebp
  00015	c3		 ret	 0
??$_Destroy@V?$basic_string@DU?$char_traits@D@std@@V?$allocator@D@2@@std@@@std@@YAXPAV?$basic_string@DU?$char_traits@D@std@@V?$allocator@D@2@@0@@Z ENDP ; std::_Destroy<std::basic_string<char,std::char_traits<char>,std::allocator<char> > >
; Function compile flags: /Odt /RTCsu
_TEXT	ENDS
;	COMDAT ??_G?$basic_string@DU?$char_traits@D@std@@V?$allocator@D@2@@std@@QAEPAXI@Z
_TEXT	SEGMENT
_this$ = -4						; size = 4
___flags$ = 8						; size = 4
??_G?$basic_string@DU?$char_traits@D@std@@V?$allocator@D@2@@std@@QAEPAXI@Z PROC NEAR ; std::basic_string<char,std::char_traits<char>,std::allocator<char> >::`scalar deleting destructor', COMDAT
; _this$ = ecx
  00000	55		 push	 ebp
  00001	8b ec		 mov	 ebp, esp
  00003	51		 push	 ecx
  00004	56		 push	 esi
  00005	c7 45 fc cc cc
	cc cc		 mov	 DWORD PTR [ebp-4], -858993460 ; ccccccccH
  0000c	89 4d fc	 mov	 DWORD PTR _this$[ebp], ecx
  0000f	8b f4		 mov	 esi, esp
  00011	8b 4d fc	 mov	 ecx, DWORD PTR _this$[ebp]
  00014	ff 15 00 00 00
	00		 call	 DWORD PTR __imp_??1?$basic_string@DU?$char_traits@D@std@@V?$allocator@D@2@@std@@QAE@XZ
  0001a	3b f4		 cmp	 esi, esp
  0001c	e8 00 00 00 00	 call	 __RTC_CheckEsp
  00021	8b 45 08	 mov	 eax, DWORD PTR ___flags$[ebp]
  00024	83 e0 01	 and	 eax, 1
  00027	74 0c		 je	 SHORT $L193872
  00029	8b 4d fc	 mov	 ecx, DWORD PTR _this$[ebp]
  0002c	51		 push	 ecx
  0002d	e8 00 00 00 00	 call	 ??3@YAXPAX@Z		; operator delete
  00032	83 c4 04	 add	 esp, 4
$L193872:
  00035	8b 45 fc	 mov	 eax, DWORD PTR _this$[ebp]
  00038	5e		 pop	 esi
  00039	83 c4 04	 add	 esp, 4
  0003c	3b ec		 cmp	 ebp, esp
  0003e	e8 00 00 00 00	 call	 __RTC_CheckEsp
  00043	8b e5		 mov	 esp, ebp
  00045	5d		 pop	 ebp
  00046	c2 04 00	 ret	 4
??_G?$basic_string@DU?$char_traits@D@std@@V?$allocator@D@2@@std@@QAEPAXI@Z ENDP ; std::basic_string<char,std::char_traits<char>,std::allocator<char> >::`scalar deleting destructor'
_TEXT	ENDS
PUBLIC	??_GCSkinMgrV1@@UAEPAXI@Z			; CSkinMgrV1::`scalar deleting destructor'
EXTRN	??_ECSkinMgrV1@@UAEPAXI@Z:NEAR			; CSkinMgrV1::`vector deleting destructor'
; Function compile flags: /Odt /RTCsu
;	COMDAT ??_ECSkinMgrV1@@W7AEPAXI@Z
_TEXT	SEGMENT
??_ECSkinMgrV1@@W7AEPAXI@Z PROC NEAR			; [thunk]:CSkinMgrV1::`vector deleting destructor', COMDAT
  00000	83 e9 08	 sub	 ecx, 8
  00003	e9 00 00 00 00	 jmp	 ??_ECSkinMgrV1@@UAEPAXI@Z
??_ECSkinMgrV1@@W7AEPAXI@Z ENDP				; [thunk]:CSkinMgrV1::`vector deleting destructor'
; Function compile flags: /Odt /RTCsu
_TEXT	ENDS
;	COMDAT ??_GCSkinMgrV1@@UAEPAXI@Z
_TEXT	SEGMENT
_this$ = -4						; size = 4
___flags$ = 8						; size = 4
??_GCSkinMgrV1@@UAEPAXI@Z PROC NEAR			; CSkinMgrV1::`scalar deleting destructor', COMDAT
; _this$ = ecx
  00000	55		 push	 ebp
  00001	8b ec		 mov	 ebp, esp
  00003	51		 push	 ecx
  00004	c7 45 fc cc cc
	cc cc		 mov	 DWORD PTR [ebp-4], -858993460 ; ccccccccH
  0000b	89 4d fc	 mov	 DWORD PTR _this$[ebp], ecx
  0000e	8b 4d fc	 mov	 ecx, DWORD PTR _this$[ebp]
  00011	e8 00 00 00 00	 call	 ??1CSkinMgrV1@@UAE@XZ	; CSkinMgrV1::~CSkinMgrV1
  00016	8b 45 08	 mov	 eax, DWORD PTR ___flags$[ebp]
  00019	83 e0 01	 and	 eax, 1
  0001c	74 0c		 je	 SHORT $L191888
  0001e	8b 4d fc	 mov	 ecx, DWORD PTR _this$[ebp]
  00021	51		 push	 ecx
  00022	e8 00 00 00 00	 call	 ??3@YAXPAX@Z		; operator delete
  00027	83 c4 04	 add	 esp, 4
$L191888:
  0002a	8b 45 fc	 mov	 eax, DWORD PTR _this$[ebp]
  0002d	83 c4 04	 add	 esp, 4
  00030	3b ec		 cmp	 ebp, esp
  00032	e8 00 00 00 00	 call	 __RTC_CheckEsp
  00037	8b e5		 mov	 esp, ebp
  00039	5d		 pop	 ebp
  0003a	c2 04 00	 ret	 4
??_GCSkinMgrV1@@UAEPAXI@Z ENDP				; CSkinMgrV1::`scalar deleting destructor'
; Function compile flags: /Odt /RTCsu
_TEXT	ENDS
;	COMDAT ??_ECSkinMgrV1@@WM@AEPAXI@Z
_TEXT	SEGMENT
??_ECSkinMgrV1@@WM@AEPAXI@Z PROC NEAR			; [thunk]:CSkinMgrV1::`vector deleting destructor', COMDAT
  00000	83 e9 0c	 sub	 ecx, 12			; 0000000cH
  00003	e9 00 00 00 00	 jmp	 ??_ECSkinMgrV1@@UAEPAXI@Z
??_ECSkinMgrV1@@WM@AEPAXI@Z ENDP			; [thunk]:CSkinMgrV1::`vector deleting destructor'
; Function compile flags: /Odt /RTCsu
; File d:\program files (x86)\microsoft visual studio .net 2003\vc7\include\stdexcept
_TEXT	ENDS
;	COMDAT ?what@logic_error@std@@UBEPBDXZ
_TEXT	SEGMENT
_this$ = -4						; size = 4
?what@logic_error@std@@UBEPBDXZ PROC NEAR		; std::logic_error::what, COMDAT
; _this$ = ecx

; 26   : 		{	// return pointer to message string

  00000	55		 push	 ebp
  00001	8b ec		 mov	 ebp, esp
  00003	51		 push	 ecx
  00004	56		 push	 esi
  00005	c7 45 fc cc cc
	cc cc		 mov	 DWORD PTR [ebp-4], -858993460 ; ccccccccH
  0000c	89 4d fc	 mov	 DWORD PTR _this$[ebp], ecx

; 27   : 		return (_Str.c_str());

  0000f	8b 4d fc	 mov	 ecx, DWORD PTR _this$[ebp]
  00012	83 c1 0c	 add	 ecx, 12			; 0000000cH
  00015	8b f4		 mov	 esi, esp
  00017	ff 15 00 00 00
	00		 call	 DWORD PTR __imp_?c_str@?$basic_string@DU?$char_traits@D@std@@V?$allocator@D@2@@std@@QBEPBDXZ
  0001d	3b f4		 cmp	 esi, esp
  0001f	e8 00 00 00 00	 call	 __RTC_CheckEsp

; 28   : 		}

  00024	5e		 pop	 esi
  00025	83 c4 04	 add	 esp, 4
  00028	3b ec		 cmp	 ebp, esp
  0002a	e8 00 00 00 00	 call	 __RTC_CheckEsp
  0002f	8b e5		 mov	 esp, ebp
  00031	5d		 pop	 ebp
  00032	c3		 ret	 0
?what@logic_error@std@@UBEPBDXZ ENDP			; std::logic_error::what
_TEXT	ENDS
PUBLIC	??0logic_error@std@@QAE@ABV?$basic_string@DU?$char_traits@D@std@@V?$allocator@D@2@@1@@Z ; std::logic_error::logic_error
; Function compile flags: /Odt /RTCsu
;	COMDAT ??0length_error@std@@QAE@ABV?$basic_string@DU?$char_traits@D@std@@V?$allocator@D@2@@1@@Z
_TEXT	SEGMENT
_this$ = -4						; size = 4
__Message$ = 8						; size = 4
??0length_error@std@@QAE@ABV?$basic_string@DU?$char_traits@D@std@@V?$allocator@D@2@@1@@Z PROC NEAR ; std::length_error::length_error, COMDAT
; _this$ = ecx

; 95   : 		{	// construct from message string

  00000	55		 push	 ebp
  00001	8b ec		 mov	 ebp, esp
  00003	51		 push	 ecx
  00004	c7 45 fc cc cc
	cc cc		 mov	 DWORD PTR [ebp-4], -858993460 ; ccccccccH
  0000b	89 4d fc	 mov	 DWORD PTR _this$[ebp], ecx
  0000e	8b 45 08	 mov	 eax, DWORD PTR __Message$[ebp]
  00011	50		 push	 eax
  00012	8b 4d fc	 mov	 ecx, DWORD PTR _this$[ebp]
  00015	e8 00 00 00 00	 call	 ??0logic_error@std@@QAE@ABV?$basic_string@DU?$char_traits@D@std@@V?$allocator@D@2@@1@@Z ; std::logic_error::logic_error
  0001a	8b 4d fc	 mov	 ecx, DWORD PTR _this$[ebp]
  0001d	c7 01 00 00 00
	00		 mov	 DWORD PTR [ecx], OFFSET FLAT:??_7length_error@std@@6B@

; 96   : 		}

  00023	8b 45 fc	 mov	 eax, DWORD PTR _this$[ebp]
  00026	83 c4 04	 add	 esp, 4
  00029	3b ec		 cmp	 ebp, esp
  0002b	e8 00 00 00 00	 call	 __RTC_CheckEsp
  00030	8b e5		 mov	 esp, ebp
  00032	5d		 pop	 ebp
  00033	c2 04 00	 ret	 4
??0length_error@std@@QAE@ABV?$basic_string@DU?$char_traits@D@std@@V?$allocator@D@2@@1@@Z ENDP ; std::length_error::length_error
_TEXT	ENDS
PUBLIC	??_7logic_error@std@@6B@			; std::logic_error::`vftable'
PUBLIC	??_Glogic_error@std@@UAEPAXI@Z			; std::logic_error::`scalar deleting destructor'
PUBLIC	??_R4logic_error@std@@6B@			; std::logic_error::`RTTI Complete Object Locator'
PUBLIC	??_R3logic_error@std@@8				; std::logic_error::`RTTI Class Hierarchy Descriptor'
PUBLIC	??_R2logic_error@std@@8				; std::logic_error::`RTTI Base Class Array'
EXTRN	__imp_??0exception@@QAE@XZ:NEAR
EXTRN	__imp_??1exception@@UAE@XZ:NEAR
EXTRN	??_Elogic_error@std@@UAEPAXI@Z:NEAR		; std::logic_error::`vector deleting destructor'
;	COMDAT xdata$x
xdata$x	SEGMENT
$T195530 DD	0ffffffffH
	DD	FLAT:$L195525
$T195528 DD	019930520H
	DD	01H
	DD	FLAT:$T195530
	DD	2 DUP(00H)
	DD	2 DUP(00H)
xdata$x	ENDS
;	COMDAT ??_7logic_error@std@@6B@
CONST	SEGMENT
??_7logic_error@std@@6B@ DD FLAT:??_R4logic_error@std@@6B@ ; std::logic_error::`vftable'
	DD	FLAT:??_Elogic_error@std@@UAEPAXI@Z
	DD	FLAT:?what@logic_error@std@@UBEPBDXZ
CONST	ENDS
;	COMDAT ??_R4logic_error@std@@6B@
rdata$r	SEGMENT
??_R4logic_error@std@@6B@ DD 00H			; std::logic_error::`RTTI Complete Object Locator'
	DD	00H
	DD	00H
	DD	FLAT:??_R0?AVlogic_error@std@@@8
	DD	FLAT:??_R3logic_error@std@@8
rdata$r	ENDS
;	COMDAT ??_R3logic_error@std@@8
rdata$r	SEGMENT
??_R3logic_error@std@@8 DD 00H				; std::logic_error::`RTTI Class Hierarchy Descriptor'
	DD	00H
	DD	02H
	DD	FLAT:??_R2logic_error@std@@8
rdata$r	ENDS
;	COMDAT ??_R2logic_error@std@@8
rdata$r	SEGMENT
??_R2logic_error@std@@8 DD FLAT:??_R1A@?0A@A@logic_error@std@@8 ; std::logic_error::`RTTI Base Class Array'
	DD	FLAT:??_R1A@?0A@A@exception@@8
; Function compile flags: /Odt /RTCsu
rdata$r	ENDS
;	COMDAT ??0logic_error@std@@QAE@ABV?$basic_string@DU?$char_traits@D@std@@V?$allocator@D@2@@1@@Z
_TEXT	SEGMENT
_this$ = -16						; size = 4
__$EHRec$ = -12						; size = 12
__Message$ = 8						; size = 4
??0logic_error@std@@QAE@ABV?$basic_string@DU?$char_traits@D@std@@V?$allocator@D@2@@1@@Z PROC NEAR ; std::logic_error::logic_error, COMDAT
; _this$ = ecx

; 19   : 		{	// construct from message string

  00000	55		 push	 ebp
  00001	8b ec		 mov	 ebp, esp
  00003	6a ff		 push	 -1
  00005	68 00 00 00 00	 push	 __ehhandler$??0logic_error@std@@QAE@ABV?$basic_string@DU?$char_traits@D@std@@V?$allocator@D@2@@1@@Z
  0000a	64 a1 00 00 00
	00		 mov	 eax, DWORD PTR fs:__except_list
  00010	50		 push	 eax
  00011	64 89 25 00 00
	00 00		 mov	 DWORD PTR fs:__except_list, esp
  00018	51		 push	 ecx
  00019	56		 push	 esi
  0001a	c7 45 f0 cc cc
	cc cc		 mov	 DWORD PTR [ebp-16], -858993460 ; ccccccccH
  00021	89 4d f0	 mov	 DWORD PTR _this$[ebp], ecx
  00024	8b f4		 mov	 esi, esp
  00026	8b 4d f0	 mov	 ecx, DWORD PTR _this$[ebp]
  00029	ff 15 00 00 00
	00		 call	 DWORD PTR __imp_??0exception@@QAE@XZ
  0002f	3b f4		 cmp	 esi, esp
  00031	e8 00 00 00 00	 call	 __RTC_CheckEsp
  00036	c7 45 fc 00 00
	00 00		 mov	 DWORD PTR __$EHRec$[ebp+8], 0
  0003d	8b 45 f0	 mov	 eax, DWORD PTR _this$[ebp]
  00040	c7 00 00 00 00
	00		 mov	 DWORD PTR [eax], OFFSET FLAT:??_7logic_error@std@@6B@
  00046	8b f4		 mov	 esi, esp
  00048	8b 4d 08	 mov	 ecx, DWORD PTR __Message$[ebp]
  0004b	51		 push	 ecx
  0004c	8b 4d f0	 mov	 ecx, DWORD PTR _this$[ebp]
  0004f	83 c1 0c	 add	 ecx, 12			; 0000000cH
  00052	ff 15 00 00 00
	00		 call	 DWORD PTR __imp_??0?$basic_string@DU?$char_traits@D@std@@V?$allocator@D@2@@std@@QAE@ABV01@@Z
  00058	3b f4		 cmp	 esi, esp
  0005a	e8 00 00 00 00	 call	 __RTC_CheckEsp

; 20   : 		}

  0005f	c7 45 fc ff ff
	ff ff		 mov	 DWORD PTR __$EHRec$[ebp+8], -1
  00066	8b 45 f0	 mov	 eax, DWORD PTR _this$[ebp]
  00069	8b 4d f4	 mov	 ecx, DWORD PTR __$EHRec$[ebp]
  0006c	64 89 0d 00 00
	00 00		 mov	 DWORD PTR fs:__except_list, ecx
  00073	5e		 pop	 esi
  00074	83 c4 10	 add	 esp, 16			; 00000010H
  00077	3b ec		 cmp	 ebp, esp
  00079	e8 00 00 00 00	 call	 __RTC_CheckEsp
  0007e	8b e5		 mov	 esp, ebp
  00080	5d		 pop	 ebp
  00081	c2 04 00	 ret	 4
_TEXT	ENDS
;	COMDAT text$x
text$x	SEGMENT
$L195525:
  00000	8b f4		 mov	 esi, esp
  00002	8b 4d f0	 mov	 ecx, DWORD PTR _this$[ebp]
  00005	ff 15 00 00 00
	00		 call	 DWORD PTR __imp_??1exception@@UAE@XZ
  0000b	3b f4		 cmp	 esi, esp
  0000d	e9 00 00 00 00	 jmp	 __RTC_CheckEsp
__ehhandler$??0logic_error@std@@QAE@ABV?$basic_string@DU?$char_traits@D@std@@V?$allocator@D@2@@1@@Z:
  00012	b8 00 00 00 00	 mov	 eax, OFFSET FLAT:$T195528
  00017	e9 00 00 00 00	 jmp	 ___CxxFrameHandler
text$x	ENDS
??0logic_error@std@@QAE@ABV?$basic_string@DU?$char_traits@D@std@@V?$allocator@D@2@@1@@Z ENDP ; std::logic_error::logic_error
PUBLIC	??1logic_error@std@@UAE@XZ			; std::logic_error::~logic_error
; Function compile flags: /Odt /RTCsu
;	COMDAT ??_Glogic_error@std@@UAEPAXI@Z
_TEXT	SEGMENT
_this$ = -4						; size = 4
___flags$ = 8						; size = 4
??_Glogic_error@std@@UAEPAXI@Z PROC NEAR		; std::logic_error::`scalar deleting destructor', COMDAT
; _this$ = ecx
  00000	55		 push	 ebp
  00001	8b ec		 mov	 ebp, esp
  00003	51		 push	 ecx
  00004	c7 45 fc cc cc
	cc cc		 mov	 DWORD PTR [ebp-4], -858993460 ; ccccccccH
  0000b	89 4d fc	 mov	 DWORD PTR _this$[ebp], ecx
  0000e	8b 4d fc	 mov	 ecx, DWORD PTR _this$[ebp]
  00011	e8 00 00 00 00	 call	 ??1logic_error@std@@UAE@XZ ; std::logic_error::~logic_error
  00016	8b 45 08	 mov	 eax, DWORD PTR ___flags$[ebp]
  00019	83 e0 01	 and	 eax, 1
  0001c	74 0c		 je	 SHORT $L91647
  0001e	8b 4d fc	 mov	 ecx, DWORD PTR _this$[ebp]
  00021	51		 push	 ecx
  00022	e8 00 00 00 00	 call	 ??3@YAXPAX@Z		; operator delete
  00027	83 c4 04	 add	 esp, 4
$L91647:
  0002a	8b 45 fc	 mov	 eax, DWORD PTR _this$[ebp]
  0002d	83 c4 04	 add	 esp, 4
  00030	3b ec		 cmp	 ebp, esp
  00032	e8 00 00 00 00	 call	 __RTC_CheckEsp
  00037	8b e5		 mov	 esp, ebp
  00039	5d		 pop	 ebp
  0003a	c2 04 00	 ret	 4
??_Glogic_error@std@@UAEPAXI@Z ENDP			; std::logic_error::`scalar deleting destructor'
_TEXT	ENDS
;	COMDAT xdata$x
xdata$x	SEGMENT
$T195540 DD	0ffffffffH
	DD	FLAT:$L195535
$T195538 DD	019930520H
	DD	01H
	DD	FLAT:$T195540
	DD	2 DUP(00H)
	DD	2 DUP(00H)
; Function compile flags: /Odt /RTCsu
xdata$x	ENDS
;	COMDAT ??1logic_error@std@@UAE@XZ
_TEXT	SEGMENT
_this$ = -16						; size = 4
__$EHRec$ = -12						; size = 12
??1logic_error@std@@UAE@XZ PROC NEAR			; std::logic_error::~logic_error, COMDAT
; _this$ = ecx

; 23   : 		{}	// destroy the object

  00000	55		 push	 ebp
  00001	8b ec		 mov	 ebp, esp
  00003	6a ff		 push	 -1
  00005	68 00 00 00 00	 push	 __ehhandler$??1logic_error@std@@UAE@XZ
  0000a	64 a1 00 00 00
	00		 mov	 eax, DWORD PTR fs:__except_list
  00010	50		 push	 eax
  00011	64 89 25 00 00
	00 00		 mov	 DWORD PTR fs:__except_list, esp
  00018	51		 push	 ecx
  00019	56		 push	 esi
  0001a	c7 45 f0 cc cc
	cc cc		 mov	 DWORD PTR [ebp-16], -858993460 ; ccccccccH
  00021	89 4d f0	 mov	 DWORD PTR _this$[ebp], ecx
  00024	8b 45 f0	 mov	 eax, DWORD PTR _this$[ebp]
  00027	c7 00 00 00 00
	00		 mov	 DWORD PTR [eax], OFFSET FLAT:??_7logic_error@std@@6B@
  0002d	c7 45 fc 00 00
	00 00		 mov	 DWORD PTR __$EHRec$[ebp+8], 0
  00034	8b 4d f0	 mov	 ecx, DWORD PTR _this$[ebp]
  00037	83 c1 0c	 add	 ecx, 12			; 0000000cH
  0003a	8b f4		 mov	 esi, esp
  0003c	ff 15 00 00 00
	00		 call	 DWORD PTR __imp_??1?$basic_string@DU?$char_traits@D@std@@V?$allocator@D@2@@std@@QAE@XZ
  00042	3b f4		 cmp	 esi, esp
  00044	e8 00 00 00 00	 call	 __RTC_CheckEsp
  00049	c7 45 fc ff ff
	ff ff		 mov	 DWORD PTR __$EHRec$[ebp+8], -1
  00050	8b f4		 mov	 esi, esp
  00052	8b 4d f0	 mov	 ecx, DWORD PTR _this$[ebp]
  00055	ff 15 00 00 00
	00		 call	 DWORD PTR __imp_??1exception@@UAE@XZ
  0005b	3b f4		 cmp	 esi, esp
  0005d	e8 00 00 00 00	 call	 __RTC_CheckEsp
  00062	8b 4d f4	 mov	 ecx, DWORD PTR __$EHRec$[ebp]
  00065	64 89 0d 00 00
	00 00		 mov	 DWORD PTR fs:__except_list, ecx
  0006c	5e		 pop	 esi
  0006d	83 c4 10	 add	 esp, 16			; 00000010H
  00070	3b ec		 cmp	 ebp, esp
  00072	e8 00 00 00 00	 call	 __RTC_CheckEsp
  00077	8b e5		 mov	 esp, ebp
  00079	5d		 pop	 ebp
  0007a	c3		 ret	 0
_TEXT	ENDS
;	COMDAT text$x
text$x	SEGMENT
$L195535:
  00000	8b f4		 mov	 esi, esp
  00002	8b 4d f0	 mov	 ecx, DWORD PTR _this$[ebp]
  00005	ff 15 00 00 00
	00		 call	 DWORD PTR __imp_??1exception@@UAE@XZ
  0000b	3b f4		 cmp	 esi, esp
  0000d	e9 00 00 00 00	 jmp	 __RTC_CheckEsp
__ehhandler$??1logic_error@std@@UAE@XZ:
  00012	b8 00 00 00 00	 mov	 eax, OFFSET FLAT:$T195538
  00017	e9 00 00 00 00	 jmp	 ___CxxFrameHandler
text$x	ENDS
??1logic_error@std@@UAE@XZ ENDP				; std::logic_error::~logic_error
; Function compile flags: /Odt /RTCsu
;	COMDAT ??1length_error@std@@UAE@XZ
_TEXT	SEGMENT
_this$ = -4						; size = 4
??1length_error@std@@UAE@XZ PROC NEAR			; std::length_error::~length_error, COMDAT
; _this$ = ecx

; 99   : 		{}	// destroy the object

  00000	55		 push	 ebp
  00001	8b ec		 mov	 ebp, esp
  00003	51		 push	 ecx
  00004	c7 45 fc cc cc
	cc cc		 mov	 DWORD PTR [ebp-4], -858993460 ; ccccccccH
  0000b	89 4d fc	 mov	 DWORD PTR _this$[ebp], ecx
  0000e	8b 45 fc	 mov	 eax, DWORD PTR _this$[ebp]
  00011	c7 00 00 00 00
	00		 mov	 DWORD PTR [eax], OFFSET FLAT:??_7length_error@std@@6B@
  00017	8b 4d fc	 mov	 ecx, DWORD PTR _this$[ebp]
  0001a	e8 00 00 00 00	 call	 ??1logic_error@std@@UAE@XZ ; std::logic_error::~logic_error
  0001f	83 c4 04	 add	 esp, 4
  00022	3b ec		 cmp	 ebp, esp
  00024	e8 00 00 00 00	 call	 __RTC_CheckEsp
  00029	8b e5		 mov	 esp, ebp
  0002b	5d		 pop	 ebp
  0002c	c3		 ret	 0
??1length_error@std@@UAE@XZ ENDP			; std::length_error::~length_error
; Function compile flags: /Odt /RTCsu
_TEXT	ENDS
;	COMDAT ??_Glength_error@std@@UAEPAXI@Z
_TEXT	SEGMENT
_this$ = -4						; size = 4
___flags$ = 8						; size = 4
??_Glength_error@std@@UAEPAXI@Z PROC NEAR		; std::length_error::`scalar deleting destructor', COMDAT
; _this$ = ecx
  00000	55		 push	 ebp
  00001	8b ec		 mov	 ebp, esp
  00003	51		 push	 ecx
  00004	c7 45 fc cc cc
	cc cc		 mov	 DWORD PTR [ebp-4], -858993460 ; ccccccccH
  0000b	89 4d fc	 mov	 DWORD PTR _this$[ebp], ecx
  0000e	8b 4d fc	 mov	 ecx, DWORD PTR _this$[ebp]
  00011	e8 00 00 00 00	 call	 ??1length_error@std@@UAE@XZ ; std::length_error::~length_error
  00016	8b 45 08	 mov	 eax, DWORD PTR ___flags$[ebp]
  00019	83 e0 01	 and	 eax, 1
  0001c	74 0c		 je	 SHORT $L91713
  0001e	8b 4d fc	 mov	 ecx, DWORD PTR _this$[ebp]
  00021	51		 push	 ecx
  00022	e8 00 00 00 00	 call	 ??3@YAXPAX@Z		; operator delete
  00027	83 c4 04	 add	 esp, 4
$L91713:
  0002a	8b 45 fc	 mov	 eax, DWORD PTR _this$[ebp]
  0002d	83 c4 04	 add	 esp, 4
  00030	3b ec		 cmp	 ebp, esp
  00032	e8 00 00 00 00	 call	 __RTC_CheckEsp
  00037	8b e5		 mov	 esp, ebp
  00039	5d		 pop	 ebp
  0003a	c2 04 00	 ret	 4
??_Glength_error@std@@UAEPAXI@Z ENDP			; std::length_error::`scalar deleting destructor'
; Function compile flags: /Odt /RTCsu
; File d:\boxgit\playbox\playbox\dev\prj\playbox\src\core\imessageobserver.h
_TEXT	ENDS
;	COMDAT ??1IMessageObserver@@UAE@XZ
_TEXT	SEGMENT
_this$ = -4						; size = 4
??1IMessageObserver@@UAE@XZ PROC NEAR			; IMessageObserver::~IMessageObserver, COMDAT
; _this$ = ecx

; 16   : 	virtual ~IMessageObserver(){};

  00000	55		 push	 ebp
  00001	8b ec		 mov	 ebp, esp
  00003	51		 push	 ecx
  00004	c7 45 fc cc cc
	cc cc		 mov	 DWORD PTR [ebp-4], -858993460 ; ccccccccH
  0000b	89 4d fc	 mov	 DWORD PTR _this$[ebp], ecx
  0000e	8b 45 fc	 mov	 eax, DWORD PTR _this$[ebp]
  00011	c7 00 00 00 00
	00		 mov	 DWORD PTR [eax], OFFSET FLAT:??_7IMessageObserver@@6B@
  00017	8b e5		 mov	 esp, ebp
  00019	5d		 pop	 ebp
  0001a	c3		 ret	 0
??1IMessageObserver@@UAE@XZ ENDP			; IMessageObserver::~IMessageObserver
; Function compile flags: /Odt /RTCsu
_TEXT	ENDS
;	COMDAT ??_GIMessageObserver@@UAEPAXI@Z
_TEXT	SEGMENT
_this$ = -4						; size = 4
___flags$ = 8						; size = 4
??_GIMessageObserver@@UAEPAXI@Z PROC NEAR		; IMessageObserver::`scalar deleting destructor', COMDAT
; _this$ = ecx
  00000	55		 push	 ebp
  00001	8b ec		 mov	 ebp, esp
  00003	51		 push	 ecx
  00004	c7 45 fc cc cc
	cc cc		 mov	 DWORD PTR [ebp-4], -858993460 ; ccccccccH
  0000b	89 4d fc	 mov	 DWORD PTR _this$[ebp], ecx
  0000e	8b 4d fc	 mov	 ecx, DWORD PTR _this$[ebp]
  00011	e8 00 00 00 00	 call	 ??1IMessageObserver@@UAE@XZ ; IMessageObserver::~IMessageObserver
  00016	8b 45 08	 mov	 eax, DWORD PTR ___flags$[ebp]
  00019	83 e0 01	 and	 eax, 1
  0001c	74 0c		 je	 SHORT $L99513
  0001e	8b 4d fc	 mov	 ecx, DWORD PTR _this$[ebp]
  00021	51		 push	 ecx
  00022	e8 00 00 00 00	 call	 ??3@YAXPAX@Z		; operator delete
  00027	83 c4 04	 add	 esp, 4
$L99513:
  0002a	8b 45 fc	 mov	 eax, DWORD PTR _this$[ebp]
  0002d	83 c4 04	 add	 esp, 4
  00030	3b ec		 cmp	 ebp, esp
  00032	e8 00 00 00 00	 call	 __RTC_CheckEsp
  00037	8b e5		 mov	 esp, ebp
  00039	5d		 pop	 ebp
  0003a	c2 04 00	 ret	 4
??_GIMessageObserver@@UAEPAXI@Z ENDP			; IMessageObserver::`scalar deleting destructor'
_TEXT	ENDS
EXTRN	__imp_??0exception@@QAE@ABV0@@Z:NEAR
;	COMDAT xdata$x
xdata$x	SEGMENT
$T195554 DD	0ffffffffH
	DD	FLAT:$L195549
$T195552 DD	019930520H
	DD	01H
	DD	FLAT:$T195554
	DD	2 DUP(00H)
	DD	2 DUP(00H)
; Function compile flags: /Odt /RTCsu
xdata$x	ENDS
;	COMDAT ??0logic_error@std@@QAE@ABV01@@Z
_TEXT	SEGMENT
_this$ = -16						; size = 4
__$EHRec$ = -12						; size = 12
___that$ = 8						; size = 4
??0logic_error@std@@QAE@ABV01@@Z PROC NEAR		; std::logic_error::logic_error, COMDAT
; _this$ = ecx
  00000	55		 push	 ebp
  00001	8b ec		 mov	 ebp, esp
  00003	6a ff		 push	 -1
  00005	68 00 00 00 00	 push	 __ehhandler$??0logic_error@std@@QAE@ABV01@@Z
  0000a	64 a1 00 00 00
	00		 mov	 eax, DWORD PTR fs:__except_list
  00010	50		 push	 eax
  00011	64 89 25 00 00
	00 00		 mov	 DWORD PTR fs:__except_list, esp
  00018	51		 push	 ecx
  00019	56		 push	 esi
  0001a	c7 45 f0 cc cc
	cc cc		 mov	 DWORD PTR [ebp-16], -858993460 ; ccccccccH
  00021	89 4d f0	 mov	 DWORD PTR _this$[ebp], ecx
  00024	8b f4		 mov	 esi, esp
  00026	8b 45 08	 mov	 eax, DWORD PTR ___that$[ebp]
  00029	50		 push	 eax
  0002a	8b 4d f0	 mov	 ecx, DWORD PTR _this$[ebp]
  0002d	ff 15 00 00 00
	00		 call	 DWORD PTR __imp_??0exception@@QAE@ABV0@@Z
  00033	3b f4		 cmp	 esi, esp
  00035	e8 00 00 00 00	 call	 __RTC_CheckEsp
  0003a	c7 45 fc 00 00
	00 00		 mov	 DWORD PTR __$EHRec$[ebp+8], 0
  00041	8b 4d f0	 mov	 ecx, DWORD PTR _this$[ebp]
  00044	c7 01 00 00 00
	00		 mov	 DWORD PTR [ecx], OFFSET FLAT:??_7logic_error@std@@6B@
  0004a	8b 55 08	 mov	 edx, DWORD PTR ___that$[ebp]
  0004d	83 c2 0c	 add	 edx, 12			; 0000000cH
  00050	8b f4		 mov	 esi, esp
  00052	52		 push	 edx
  00053	8b 4d f0	 mov	 ecx, DWORD PTR _this$[ebp]
  00056	83 c1 0c	 add	 ecx, 12			; 0000000cH
  00059	ff 15 00 00 00
	00		 call	 DWORD PTR __imp_??0?$basic_string@DU?$char_traits@D@std@@V?$allocator@D@2@@std@@QAE@ABV01@@Z
  0005f	3b f4		 cmp	 esi, esp
  00061	e8 00 00 00 00	 call	 __RTC_CheckEsp
  00066	c7 45 fc ff ff
	ff ff		 mov	 DWORD PTR __$EHRec$[ebp+8], -1
  0006d	8b 45 f0	 mov	 eax, DWORD PTR _this$[ebp]
  00070	8b 4d f4	 mov	 ecx, DWORD PTR __$EHRec$[ebp]
  00073	64 89 0d 00 00
	00 00		 mov	 DWORD PTR fs:__except_list, ecx
  0007a	5e		 pop	 esi
  0007b	83 c4 10	 add	 esp, 16			; 00000010H
  0007e	3b ec		 cmp	 ebp, esp
  00080	e8 00 00 00 00	 call	 __RTC_CheckEsp
  00085	8b e5		 mov	 esp, ebp
  00087	5d		 pop	 ebp
  00088	c2 04 00	 ret	 4
_TEXT	ENDS
;	COMDAT text$x
text$x	SEGMENT
$L195549:
  00000	8b f4		 mov	 esi, esp
  00002	8b 4d f0	 mov	 ecx, DWORD PTR _this$[ebp]
  00005	ff 15 00 00 00
	00		 call	 DWORD PTR __imp_??1exception@@UAE@XZ
  0000b	3b f4		 cmp	 esi, esp
  0000d	e9 00 00 00 00	 jmp	 __RTC_CheckEsp
__ehhandler$??0logic_error@std@@QAE@ABV01@@Z:
  00012	b8 00 00 00 00	 mov	 eax, OFFSET FLAT:$T195552
  00017	e9 00 00 00 00	 jmp	 ___CxxFrameHandler
text$x	ENDS
??0logic_error@std@@QAE@ABV01@@Z ENDP			; std::logic_error::logic_error
CRT$XCU	SEGMENT
_$S6	DD	FLAT:_$E5
; Function compile flags: /Odt /RTCsu
; File d:\boxgit\playbox\playbox\dev\prj\playbox\src\appconfig\config\configsettingdef.h
CRT$XCU	ENDS
;	COMDAT _$E5
text$yc	SEGMENT
_$E5	PROC NEAR					; COMDAT

; 25   : 	CONF_SETTING_SKIN_IDX,				TYPE_CONFIG_STR,

  00000	55		 push	 ebp
  00001	8b ec		 mov	 ebp, esp
  00003	a1 00 00 00 00	 mov	 eax, DWORD PTR _CONF_SETTING_SKIN_IDX
  00008	a3 00 00 00 00	 mov	 DWORD PTR _CONF_SETTING, eax
  0000d	8b 0d 00 00 00
	00		 mov	 ecx, DWORD PTR _TYPE_CONFIG_STR
  00013	89 0d 04 00 00
	00		 mov	 DWORD PTR _CONF_SETTING+4, ecx

; 26   : 	CONF_SETTING_CONFIG_MAIN_PAGE,		TYPE_CONFIG_STR,

  00019	8b 15 00 00 00
	00		 mov	 edx, DWORD PTR _CONF_SETTING_CONFIG_MAIN_PAGE
  0001f	89 15 08 00 00
	00		 mov	 DWORD PTR _CONF_SETTING+8, edx
  00025	a1 00 00 00 00	 mov	 eax, DWORD PTR _TYPE_CONFIG_STR
  0002a	a3 0c 00 00 00	 mov	 DWORD PTR _CONF_SETTING+12, eax

; 27   : 	CONF_SETTING_CONFIG_PROBLEM_REPORT,	TYPE_CONFIG_STR,

  0002f	8b 0d 00 00 00
	00		 mov	 ecx, DWORD PTR _CONF_SETTING_CONFIG_PROBLEM_REPORT
  00035	89 0d 10 00 00
	00		 mov	 DWORD PTR _CONF_SETTING+16, ecx
  0003b	8b 15 00 00 00
	00		 mov	 edx, DWORD PTR _TYPE_CONFIG_STR
  00041	89 15 14 00 00
	00		 mov	 DWORD PTR _CONF_SETTING+20, edx

; 28   : 	CONF_SETTING_CONFIG_HOME_PAGE,		TYPE_CONFIG_STR,

  00047	a1 00 00 00 00	 mov	 eax, DWORD PTR _CONF_SETTING_CONFIG_HOME_PAGE
  0004c	a3 18 00 00 00	 mov	 DWORD PTR _CONF_SETTING+24, eax
  00051	8b 0d 00 00 00
	00		 mov	 ecx, DWORD PTR _TYPE_CONFIG_STR
  00057	89 0d 1c 00 00
	00		 mov	 DWORD PTR _CONF_SETTING+28, ecx

; 29   : 	CONF_SETTING_CONFIG_IFASKEXIT,		TYPE_CONFIG_BOOL,

  0005d	8b 15 00 00 00
	00		 mov	 edx, DWORD PTR _CONF_SETTING_CONFIG_IFASKEXIT
  00063	89 15 20 00 00
	00		 mov	 DWORD PTR _CONF_SETTING+32, edx
  00069	a1 00 00 00 00	 mov	 eax, DWORD PTR _TYPE_CONFIG_BOOL
  0006e	a3 24 00 00 00	 mov	 DWORD PTR _CONF_SETTING+36, eax

; 30   : 	CONF_SETTING_CONFIG_EXITCHOICE,		TYPE_CONFIG_BOOL,

  00073	8b 0d 00 00 00
	00		 mov	 ecx, DWORD PTR _CONF_SETTING_CONFIG_EXITCHOICE
  00079	89 0d 28 00 00
	00		 mov	 DWORD PTR _CONF_SETTING+40, ecx
  0007f	8b 15 00 00 00
	00		 mov	 edx, DWORD PTR _TYPE_CONFIG_BOOL
  00085	89 15 2c 00 00
	00		 mov	 DWORD PTR _CONF_SETTING+44, edx

; 31   : 	CONF_SETTING_LOGIN_USER_NAME,		TYPE_CONFIG_STR,

  0008b	a1 00 00 00 00	 mov	 eax, DWORD PTR _CONF_SETTING_LOGIN_USER_NAME
  00090	a3 30 00 00 00	 mov	 DWORD PTR _CONF_SETTING+48, eax
  00095	8b 0d 00 00 00
	00		 mov	 ecx, DWORD PTR _TYPE_CONFIG_STR
  0009b	89 0d 34 00 00
	00		 mov	 DWORD PTR _CONF_SETTING+52, ecx

; 32   : 	CONF_SETTING_LOGIN_PASSWORD,		TYPE_CONFIG_STR,

  000a1	8b 15 00 00 00
	00		 mov	 edx, DWORD PTR _CONF_SETTING_LOGIN_PASSWORD
  000a7	89 15 38 00 00
	00		 mov	 DWORD PTR _CONF_SETTING+56, edx
  000ad	a1 00 00 00 00	 mov	 eax, DWORD PTR _TYPE_CONFIG_STR
  000b2	a3 3c 00 00 00	 mov	 DWORD PTR _CONF_SETTING+60, eax

; 33   : 	CONF_SETTING_NETID,					TYPE_CONFIG_STR,

  000b7	8b 0d 00 00 00
	00		 mov	 ecx, DWORD PTR _CONF_SETTING_NETID
  000bd	89 0d 40 00 00
	00		 mov	 DWORD PTR _CONF_SETTING+64, ecx
  000c3	8b 15 00 00 00
	00		 mov	 edx, DWORD PTR _TYPE_CONFIG_STR
  000c9	89 15 44 00 00
	00		 mov	 DWORD PTR _CONF_SETTING+68, edx

; 34   : 	CONF_SETTING_COLOR,					TYPE_CONFIG_INT,

  000cf	a1 00 00 00 00	 mov	 eax, DWORD PTR _CONF_SETTING_COLOR
  000d4	a3 48 00 00 00	 mov	 DWORD PTR _CONF_SETTING+72, eax
  000d9	8b 0d 00 00 00
	00		 mov	 ecx, DWORD PTR _TYPE_CONFIG_INT
  000df	89 0d 4c 00 00
	00		 mov	 DWORD PTR _CONF_SETTING+76, ecx

; 35   : 	CONF_SETTING_LIGHT,					TYPE_CONFIG_INT,

  000e5	8b 15 00 00 00
	00		 mov	 edx, DWORD PTR _CONF_SETTING_LIGHT
  000eb	89 15 50 00 00
	00		 mov	 DWORD PTR _CONF_SETTING+80, edx
  000f1	a1 00 00 00 00	 mov	 eax, DWORD PTR _TYPE_CONFIG_INT
  000f6	a3 54 00 00 00	 mov	 DWORD PTR _CONF_SETTING+84, eax

; 36   : 	CONF_SETTING_COLOR_BTN_INDEX,		TYPE_CONFIG_INT,

  000fb	8b 0d 00 00 00
	00		 mov	 ecx, DWORD PTR _CONF_SETTING_COLOR_BTN_INDEX
  00101	89 0d 58 00 00
	00		 mov	 DWORD PTR _CONF_SETTING+88, ecx
  00107	8b 15 00 00 00
	00		 mov	 edx, DWORD PTR _TYPE_CONFIG_INT
  0010d	89 15 5c 00 00
	00		 mov	 DWORD PTR _CONF_SETTING+92, edx

; 37   : 	CONF_SETTING_COLOR_USER,			TYPE_CONFIG_INT,

  00113	a1 00 00 00 00	 mov	 eax, DWORD PTR _CONF_SETTING_COLOR_USER
  00118	a3 60 00 00 00	 mov	 DWORD PTR _CONF_SETTING+96, eax
  0011d	8b 0d 00 00 00
	00		 mov	 ecx, DWORD PTR _TYPE_CONFIG_INT
  00123	89 0d 64 00 00
	00		 mov	 DWORD PTR _CONF_SETTING+100, ecx

; 38   : 	CONF_SETTING_FIRST_TIME_CHANGESKIN, TYPE_CONFIG_BOOL

  00129	8b 15 00 00 00
	00		 mov	 edx, DWORD PTR _CONF_SETTING_FIRST_TIME_CHANGESKIN
  0012f	89 15 68 00 00
	00		 mov	 DWORD PTR _CONF_SETTING+104, edx

; 39   : };

  00135	a1 00 00 00 00	 mov	 eax, DWORD PTR _TYPE_CONFIG_BOOL
  0013a	a3 6c 00 00 00	 mov	 DWORD PTR _CONF_SETTING+108, eax
  0013f	5d		 pop	 ebp
  00140	c3		 ret	 0
_$E5	ENDP
text$yc	ENDS
_BSS	SEGMENT
_CONF_SETTING DD 01cH DUP (?)
_BSS	ENDS
END
