; Listing generated by Microsoft (R) Optimizing Compiler Version 13.10.3077 

	TITLE	.\src\Gui\CommonControl\ie_explorer.cpp
	.386P
include listing.inc
if @Version gt 510
.model FLAT
else
_TEXT	SEGMENT PARA USE32 PUBLIC 'CODE'
_TEXT	ENDS
_DATA	SEGMENT DWORD USE32 PUBLIC 'DATA'
_DATA	ENDS
CONST	SEGMENT DWORD USE32 PUBLIC 'CONST'
CONST	ENDS
_BSS	SEGMENT DWORD USE32 PUBLIC 'BSS'
_BSS	ENDS
$$SYMBOLS	SEGMENT BYTE USE32 'DEBSYM'
$$SYMBOLS	ENDS
_TLS	SEGMENT DWORD USE32 PUBLIC 'TLS'
_TLS	ENDS
;	COMDAT ??_C@_0EP@OKNBEAEK@D?3?2Program?5Files?5?$CIx86?$CJ?2Microsoft@
CONST	SEGMENT DWORD USE32 PUBLIC 'CONST'
CONST	ENDS
;	COMDAT ??_C@_0CD@DIDNGAPJ@s?5?$DN?$DN?50?5?$HM?$HM?5?$CIconst?5char?$CK?$CJ?5?$CKthis?5?$CB?$DN@
CONST	SEGMENT DWORD USE32 PUBLIC 'CONST'
CONST	ENDS
;	COMDAT ??_C@_0CG@PAOIECBF@s?5?$DN?$DN?50?5?$HM?$HM?5?$CIconst?5wchar_t?$CK?$CJ?5?$CKthis@
CONST	SEGMENT DWORD USE32 PUBLIC 'CONST'
CONST	ENDS
;	COMDAT ??_C@_0DD@NCNHACCB@s?5?$DN?$DN?50?5?$HM?$HM?5m_Data?5?$DN?$DN?50?5?$HM?$HM?5m_Data?9@
CONST	SEGMENT DWORD USE32 PUBLIC 'CONST'
CONST	ENDS
;	COMDAT ??_C@_0CH@LJMJHPFK@m_Data?5?$CB?$DN?50?5?$CG?$CG?5m_Data?9?$DORefCount?$CI@
CONST	SEGMENT DWORD USE32 PUBLIC 'CONST'
CONST	ENDS
;	COMDAT ??_C@_0FG@GKIPNLEE@?$CI?$CIthis?$CJ?9?$DOvt?$CJ?5?$CB?$DN?5VT_BSTR?5?$HM?$HM?5?$CIBSTR@
CONST	SEGMENT DWORD USE32 PUBLIC 'CONST'
CONST	ENDS
;	COMDAT ??_C@_0EC@EDNDDDBI@?$CI?$CIthis?$CJ?9?$DOvt?$CJ?5?$CB?$DN?5VT_BSTR?5?$HM?$HM?5pSrc?5@
CONST	SEGMENT DWORD USE32 PUBLIC 'CONST'
CONST	ENDS
;	COMDAT ??_C@_0EL@EEEMIENH@?$CI?$CIthis?$CJ?9?$DOvt?$CJ?5?$CB?$DN?5?$CIVT_I1?5?$HM?5VT_BYRE@
CONST	SEGMENT DWORD USE32 PUBLIC 'CONST'
CONST	ENDS
;	COMDAT ??_C@_0EH@IHHPLLAD@?$CI?$CIthis?$CJ?9?$DOvt?$CJ?5?$CB?$DN?5VT_DISPATCH?5?$HM?$HM?5p@
CONST	SEGMENT DWORD USE32 PUBLIC 'CONST'
CONST	ENDS
;	COMDAT ??_C@_0EF@LJOMBHMP@?$CI?$CIthis?$CJ?9?$DOvt?$CJ?5?$CB?$DN?5VT_UNKNOWN?5?$HM?$HM?5pS@
CONST	SEGMENT DWORD USE32 PUBLIC 'CONST'
CONST	ENDS
;	COMDAT ??_C@_0BE@NNIJINN@IDispatch?5error?5?$CD?$CFd?$AA@
CONST	SEGMENT DWORD USE32 PUBLIC 'CONST'
CONST	ENDS
;	COMDAT ??_C@_0BF@IPPGFENJ@Unknown?5error?50x?$CF0lX?$AA@
CONST	SEGMENT DWORD USE32 PUBLIC 'CONST'
CONST	ENDS
;	COMDAT ??_C@_0EN@IBFBLEEG@D?3?2Program?5Files?5?$CIx86?$CJ?2Microsoft@
CONST	SEGMENT DWORD USE32 PUBLIC 'CONST'
CONST	ENDS
rdata$r	SEGMENT DWORD USE32 PUBLIC 'CONST'
rdata$r	ENDS
xdata$x	SEGMENT DWORD USE32 PUBLIC 'CONST'
xdata$x	ENDS
text$AFX_COL1	SEGMENT PARA USE32 PUBLIC ''
text$AFX_COL1	ENDS
text$yc	SEGMENT PARA USE32 PUBLIC 'CODE'
text$yc	ENDS
CRT$XCA	SEGMENT DWORD USE32 PUBLIC 'DATA'
CRT$XCA	ENDS
CRT$XCU	SEGMENT DWORD USE32 PUBLIC 'DATA'
CRT$XCU	ENDS
CRT$XCL	SEGMENT DWORD USE32 PUBLIC 'DATA'
CRT$XCL	ENDS
CRT$XCC	SEGMENT DWORD USE32 PUBLIC 'DATA'
CRT$XCC	ENDS
CRT$XCZ	SEGMENT DWORD USE32 PUBLIC 'DATA'
CRT$XCZ	ENDS
text$yd	SEGMENT PARA USE32 PUBLIC 'CODE'
text$yd	ENDS
ATL$__m	SEGMENT DWORD USE32 PUBLIC ''
ATL$__m	ENDS
ATL$__z	SEGMENT DWORD USE32 PUBLIC ''
ATL$__z	ENDS
ATL$__a	SEGMENT DWORD USE32 PUBLIC ''
ATL$__a	ENDS
;	COMDAT ?GetClsid@CWebBrowser@@QAEABU_GUID@@XZ
_TEXT	SEGMENT PARA USE32 PUBLIC 'CODE'
_TEXT	ENDS
;	COMDAT ?Create@CWebBrowser@@UAEHPBD0KABUtagRECT@@PAVCWnd@@IPAUCCreateContext@@@Z
_TEXT	SEGMENT PARA USE32 PUBLIC 'CODE'
_TEXT	ENDS
;	COMDAT ?get_Document@CWebBrowser@@QAEPAUIDispatch@@XZ
_TEXT	SEGMENT PARA USE32 PUBLIC 'CODE'
_TEXT	ENDS
;	COMDAT ?CheckError@_com_util@@YAXJ@Z
_TEXT	SEGMENT PARA USE32 PUBLIC 'CODE'
_TEXT	ENDS
;	COMDAT ??0_bstr_t@@QAE@ABV0@@Z
_TEXT	SEGMENT PARA USE32 PUBLIC 'CODE'
_TEXT	ENDS
;	COMDAT ??0_bstr_t@@QAE@PBD@Z
_TEXT	SEGMENT PARA USE32 PUBLIC 'CODE'
_TEXT	ENDS
;	COMDAT ??0_bstr_t@@QAE@PB_W@Z
_TEXT	SEGMENT PARA USE32 PUBLIC 'CODE'
_TEXT	ENDS
;	COMDAT ??0_bstr_t@@QAE@PA_W_N@Z
_TEXT	SEGMENT PARA USE32 PUBLIC 'CODE'
_TEXT	ENDS
;	COMDAT ??1_bstr_t@@QAE@XZ
_TEXT	SEGMENT PARA USE32 PUBLIC 'CODE'
_TEXT	ENDS
;	COMDAT ??4_bstr_t@@QAEAAV0@PB_W@Z
_TEXT	SEGMENT PARA USE32 PUBLIC 'CODE'
_TEXT	ENDS
;	COMDAT ??Y_bstr_t@@QAEAAV0@ABV0@@Z
_TEXT	SEGMENT PARA USE32 PUBLIC 'CODE'
_TEXT	ENDS
;	COMDAT ??B_bstr_t@@QBEPB_WXZ
_TEXT	SEGMENT PARA USE32 PUBLIC 'CODE'
_TEXT	ENDS
;	COMDAT ??B_bstr_t@@QBEPA_WXZ
_TEXT	SEGMENT PARA USE32 PUBLIC 'CODE'
_TEXT	ENDS
;	COMDAT ??B_bstr_t@@QBEPBDXZ
_TEXT	SEGMENT PARA USE32 PUBLIC 'CODE'
_TEXT	ENDS
;	COMDAT ??7_bstr_t@@QBE_NXZ
_TEXT	SEGMENT PARA USE32 PUBLIC 'CODE'
_TEXT	ENDS
;	COMDAT ?length@_bstr_t@@QBEIXZ
_TEXT	SEGMENT PARA USE32 PUBLIC 'CODE'
_TEXT	ENDS
;	COMDAT ?Attach@_bstr_t@@QAEXPA_W@Z
_TEXT	SEGMENT PARA USE32 PUBLIC 'CODE'
_TEXT	ENDS
;	COMDAT ?_AddRef@_bstr_t@@AAEXXZ
_TEXT	SEGMENT PARA USE32 PUBLIC 'CODE'
_TEXT	ENDS
;	COMDAT ?_Free@_bstr_t@@AAEXXZ
_TEXT	SEGMENT PARA USE32 PUBLIC 'CODE'
_TEXT	ENDS
;	COMDAT ?_Compare@_bstr_t@@ABEHABV1@@Z
_TEXT	SEGMENT PARA USE32 PUBLIC 'CODE'
_TEXT	ENDS
;	COMDAT ??0Data_t@_bstr_t@@QAE@PBD@Z
_TEXT	SEGMENT PARA USE32 PUBLIC 'CODE'
_TEXT	ENDS
;	COMDAT ??0Data_t@_bstr_t@@QAE@PB_W@Z
_TEXT	SEGMENT PARA USE32 PUBLIC 'CODE'
_TEXT	ENDS
;	COMDAT ??0Data_t@_bstr_t@@QAE@PA_W_N@Z
_TEXT	SEGMENT PARA USE32 PUBLIC 'CODE'
_TEXT	ENDS
;	COMDAT ??0Data_t@_bstr_t@@QAE@ABV1@0@Z
_TEXT	SEGMENT PARA USE32 PUBLIC 'CODE'
_TEXT	ENDS
;	COMDAT ?AddRef@Data_t@_bstr_t@@QAEKXZ
_TEXT	SEGMENT PARA USE32 PUBLIC 'CODE'
_TEXT	ENDS
;	COMDAT ?Release@Data_t@_bstr_t@@QAEKXZ
_TEXT	SEGMENT PARA USE32 PUBLIC 'CODE'
_TEXT	ENDS
;	COMDAT ??_GData_t@_bstr_t@@AAEPAXI@Z
_TEXT	SEGMENT PARA USE32 PUBLIC 'CODE'
_TEXT	ENDS
;	COMDAT ?RefCount@Data_t@_bstr_t@@QBEKXZ
_TEXT	SEGMENT PARA USE32 PUBLIC 'CODE'
_TEXT	ENDS
;	COMDAT ?GetWString@Data_t@_bstr_t@@QAEAAPA_WXZ
_TEXT	SEGMENT PARA USE32 PUBLIC 'CODE'
_TEXT	ENDS
;	COMDAT ?GetString@Data_t@_bstr_t@@QBEPBDXZ
_TEXT	SEGMENT PARA USE32 PUBLIC 'CODE'
_TEXT	ENDS
;	COMDAT ?Copy@Data_t@_bstr_t@@QBEPA_WXZ
_TEXT	SEGMENT PARA USE32 PUBLIC 'CODE'
_TEXT	ENDS
;	COMDAT ?Length@Data_t@_bstr_t@@QBEIXZ
_TEXT	SEGMENT PARA USE32 PUBLIC 'CODE'
_TEXT	ENDS
;	COMDAT ?Compare@Data_t@_bstr_t@@QBEHABV12@@Z
_TEXT	SEGMENT PARA USE32 PUBLIC 'CODE'
_TEXT	ENDS
;	COMDAT ??2Data_t@_bstr_t@@SAPAXI@Z
_TEXT	SEGMENT PARA USE32 PUBLIC 'CODE'
_TEXT	ENDS
;	COMDAT ??1Data_t@_bstr_t@@AAE@XZ
_TEXT	SEGMENT PARA USE32 PUBLIC 'CODE'
_TEXT	ENDS
;	COMDAT ?_Free@Data_t@_bstr_t@@AAEXXZ
_TEXT	SEGMENT PARA USE32 PUBLIC 'CODE'
_TEXT	ENDS
;	COMDAT ??0_variant_t@@QAE@XZ
_TEXT	SEGMENT PARA USE32 PUBLIC 'CODE'
_TEXT	ENDS
;	COMDAT ??4_variant_t@@QAEAAV0@PBD@Z
_TEXT	SEGMENT PARA USE32 PUBLIC 'CODE'
_TEXT	ENDS
;	COMDAT ??8_variant_t@@QBE_NPBUtagVARIANT@@@Z
_TEXT	SEGMENT PARA USE32 PUBLIC 'CODE'
_TEXT	ENDS
;	COMDAT ?Clear@_variant_t@@QAEXXZ
_TEXT	SEGMENT PARA USE32 PUBLIC 'CODE'
_TEXT	ENDS
;	COMDAT ?ChangeType@_variant_t@@QAEXGPBV1@@Z
_TEXT	SEGMENT PARA USE32 PUBLIC 'CODE'
_TEXT	ENDS
;	COMDAT ??1_variant_t@@QAE@XZ
_TEXT	SEGMENT PARA USE32 PUBLIC 'CODE'
_TEXT	ENDS
;	COMDAT ??_G_com_error@@UAEPAXI@Z
_TEXT	SEGMENT PARA USE32 PUBLIC 'CODE'
_TEXT	ENDS
;	COMDAT ??0_com_error@@QAE@ABV0@@Z
_TEXT	SEGMENT PARA USE32 PUBLIC 'CODE'
_TEXT	ENDS
;	COMDAT ??1_com_error@@UAE@XZ
_TEXT	SEGMENT PARA USE32 PUBLIC 'CODE'
_TEXT	ENDS
;	COMDAT ?WCode@_com_error@@QBEGXZ
_TEXT	SEGMENT PARA USE32 PUBLIC 'CODE'
_TEXT	ENDS
;	COMDAT ?HRESULTToWCode@_com_error@@SAGJ@Z
_TEXT	SEGMENT PARA USE32 PUBLIC 'CODE'
_TEXT	ENDS
;	COMDAT ??0CWebBrowser@@QAE@XZ
_TEXT	SEGMENT PARA USE32 PUBLIC 'CODE'
_TEXT	ENDS
;	COMDAT ??_GCWebBrowser@@UAEPAXI@Z
_TEXT	SEGMENT PARA USE32 PUBLIC 'CODE'
_TEXT	ENDS
;	COMDAT ??1CWebBrowser@@UAE@XZ
_TEXT	SEGMENT PARA USE32 PUBLIC 'CODE'
_TEXT	ENDS
;	COMDAT ??1?$CComQIPtr@UIHTMLDocument2@@$1?IID_IHTMLDocument2@@3U_GUID@@B@ATL@@QAE@XZ
_TEXT	SEGMENT PARA USE32 PUBLIC 'CODE'
_TEXT	ENDS
;	COMDAT ??1?$CComPtr@UIHTMLElement@@@ATL@@QAE@XZ
_TEXT	SEGMENT PARA USE32 PUBLIC 'CODE'
_TEXT	ENDS
;	COMDAT ??1?$CComPtr@UIHTMLStyle@@@ATL@@QAE@XZ
_TEXT	SEGMENT PARA USE32 PUBLIC 'CODE'
_TEXT	ENDS
;	COMDAT ??1?$CComPtr@UIHTMLDocument2@@@ATL@@QAE@XZ
_TEXT	SEGMENT PARA USE32 PUBLIC 'CODE'
_TEXT	ENDS
;	COMDAT ??B?$CComPtrBase@UIDispatch@@@ATL@@QBEPAUIDispatch@@XZ
_TEXT	SEGMENT PARA USE32 PUBLIC 'CODE'
_TEXT	ENDS
;	COMDAT ??B?$CComPtrBase@UITypeInfo2@@@ATL@@QBEPAUITypeInfo2@@XZ
_TEXT	SEGMENT PARA USE32 PUBLIC 'CODE'
_TEXT	ENDS
;	COMDAT ??1?$CComPtrBase@UIHTMLDocument2@@@ATL@@QAE@XZ
_TEXT	SEGMENT PARA USE32 PUBLIC 'CODE'
_TEXT	ENDS
;	COMDAT ??C?$CComPtrBase@UIHTMLDocument2@@@ATL@@QBEPAV?$_NoAddRefReleaseOnCComPtr@UIHTMLDocument2@@@1@XZ
_TEXT	SEGMENT PARA USE32 PUBLIC 'CODE'
_TEXT	ENDS
;	COMDAT ?equal@?$istreambuf_iterator@DU?$char_traits@D@std@@@std@@QBE_NABV12@@Z
_TEXT	SEGMENT PARA USE32 PUBLIC 'CODE'
_TEXT	ENDS
;	COMDAT ?equal@?$istreambuf_iterator@_WU?$char_traits@_W@std@@@std@@QBE_NABV12@@Z
_TEXT	SEGMENT PARA USE32 PUBLIC 'CODE'
_TEXT	ENDS
;	COMDAT ??0?$CComQIPtr@UIHTMLDocument2@@$1?IID_IHTMLDocument2@@3U_GUID@@B@ATL@@QAE@XZ
_TEXT	SEGMENT PARA USE32 PUBLIC 'CODE'
_TEXT	ENDS
;	COMDAT ??4?$CComQIPtr@UIHTMLDocument2@@$1?IID_IHTMLDocument2@@3U_GUID@@B@ATL@@QAEPAUIHTMLDocument2@@PAUIUnknown@@@Z
_TEXT	SEGMENT PARA USE32 PUBLIC 'CODE'
_TEXT	ENDS
;	COMDAT ??0?$CComPtr@UIHTMLElement@@@ATL@@QAE@XZ
_TEXT	SEGMENT PARA USE32 PUBLIC 'CODE'
_TEXT	ENDS
;	COMDAT ??1?$CComPtrBase@UIHTMLElement@@@ATL@@QAE@XZ
_TEXT	SEGMENT PARA USE32 PUBLIC 'CODE'
_TEXT	ENDS
;	COMDAT ??I?$CComPtrBase@UIHTMLElement@@@ATL@@QAEPAPAUIHTMLElement@@XZ
_TEXT	SEGMENT PARA USE32 PUBLIC 'CODE'
_TEXT	ENDS
;	COMDAT ??C?$CComPtrBase@UIHTMLElement@@@ATL@@QBEPAV?$_NoAddRefReleaseOnCComPtr@UIHTMLElement@@@1@XZ
_TEXT	SEGMENT PARA USE32 PUBLIC 'CODE'
_TEXT	ENDS
;	COMDAT ??0?$CComPtr@UIHTMLStyle@@@ATL@@QAE@XZ
_TEXT	SEGMENT PARA USE32 PUBLIC 'CODE'
_TEXT	ENDS
;	COMDAT ??1?$CComPtrBase@UIHTMLStyle@@@ATL@@QAE@XZ
_TEXT	SEGMENT PARA USE32 PUBLIC 'CODE'
_TEXT	ENDS
;	COMDAT ??I?$CComPtrBase@UIHTMLStyle@@@ATL@@QAEPAPAUIHTMLStyle@@XZ
_TEXT	SEGMENT PARA USE32 PUBLIC 'CODE'
_TEXT	ENDS
;	COMDAT ??C?$CComPtrBase@UIHTMLStyle@@@ATL@@QBEPAV?$_NoAddRefReleaseOnCComPtr@UIHTMLStyle@@@1@XZ
_TEXT	SEGMENT PARA USE32 PUBLIC 'CODE'
_TEXT	ENDS
;	COMDAT ?AllocSysString@?$ChTraitsCRT@D@ATL@@SAPA_WPBDH@Z
_TEXT	SEGMENT PARA USE32 PUBLIC 'CODE'
_TEXT	ENDS
;	COMDAT ??0?$CComPtr@UIHTMLDocument2@@@ATL@@QAE@XZ
_TEXT	SEGMENT PARA USE32 PUBLIC 'CODE'
_TEXT	ENDS
;	COMDAT ??0?$CComPtrBase@UIHTMLElement@@@ATL@@IAE@XZ
_TEXT	SEGMENT PARA USE32 PUBLIC 'CODE'
_TEXT	ENDS
;	COMDAT ??0?$CComPtrBase@UIHTMLStyle@@@ATL@@IAE@XZ
_TEXT	SEGMENT PARA USE32 PUBLIC 'CODE'
_TEXT	ENDS
;	COMDAT ??0?$CComPtrBase@UIHTMLDocument2@@@ATL@@IAE@XZ
_TEXT	SEGMENT PARA USE32 PUBLIC 'CODE'
_TEXT	ENDS
;	COMDAT ?Unlock@?$CComCritSecLock@VCComCriticalSection@ATL@@@ATL@@QAEXXZ
_TEXT	SEGMENT PARA USE32 PUBLIC 'CODE'
_TEXT	ENDS
;	COMDAT ??$_Maklocstr@D@std@@YAPADPBDPADABU_Cvtvec@@@Z
_TEXT	SEGMENT PARA USE32 PUBLIC 'CODE'
_TEXT	ENDS
;	COMDAT ??_R3CWebBrowser@@8
rdata$r	SEGMENT DWORD USE32 PUBLIC 'CONST'
rdata$r	ENDS
;	COMDAT ??_R3_com_error@@8
rdata$r	SEGMENT DWORD USE32 PUBLIC 'CONST'
rdata$r	ENDS
;	COMDAT ??_R3?$numpunct@_W@std@@8
rdata$r	SEGMENT DWORD USE32 PUBLIC 'CONST'
rdata$r	ENDS
;	COMDAT ??_R3?$numpunct@D@std@@8
rdata$r	SEGMENT DWORD USE32 PUBLIC 'CONST'
rdata$r	ENDS
;	COMDAT ??_R2CWebBrowser@@8
rdata$r	SEGMENT DWORD USE32 PUBLIC 'CONST'
rdata$r	ENDS
;	COMDAT ??_R2_com_error@@8
rdata$r	SEGMENT DWORD USE32 PUBLIC 'CONST'
rdata$r	ENDS
;	COMDAT ??_R2?$numpunct@_W@std@@8
rdata$r	SEGMENT DWORD USE32 PUBLIC 'CONST'
rdata$r	ENDS
;	COMDAT ??_R2?$numpunct@D@std@@8
rdata$r	SEGMENT DWORD USE32 PUBLIC 'CONST'
rdata$r	ENDS
;	COMDAT ??_R1A@?0A@A@CObject@@8
rdata$r	SEGMENT DWORD USE32 PUBLIC 'CONST'
rdata$r	ENDS
;	COMDAT ??_R0?AVCObject@@@8
_DATA	SEGMENT DWORD USE32 PUBLIC 'DATA'
_DATA	ENDS
;	COMDAT ??_R1A@?0A@A@CCmdTarget@@8
rdata$r	SEGMENT DWORD USE32 PUBLIC 'CONST'
rdata$r	ENDS
;	COMDAT ??_R0?AVCCmdTarget@@@8
_DATA	SEGMENT DWORD USE32 PUBLIC 'DATA'
_DATA	ENDS
;	COMDAT ??_R1A@?0A@A@CWnd@@8
rdata$r	SEGMENT DWORD USE32 PUBLIC 'CONST'
rdata$r	ENDS
;	COMDAT ??_R0?AVCWnd@@@8
_DATA	SEGMENT DWORD USE32 PUBLIC 'DATA'
_DATA	ENDS
;	COMDAT ??_R1A@?0A@A@CWebBrowser@@8
rdata$r	SEGMENT DWORD USE32 PUBLIC 'CONST'
rdata$r	ENDS
;	COMDAT ??_R1A@?0A@A@_com_error@@8
rdata$r	SEGMENT DWORD USE32 PUBLIC 'CONST'
rdata$r	ENDS
;	COMDAT ??_R1A@?0A@A@?$numpunct@_W@std@@8
rdata$r	SEGMENT DWORD USE32 PUBLIC 'CONST'
rdata$r	ENDS
;	COMDAT ??_R1A@?0A@A@facet@locale@std@@8
rdata$r	SEGMENT DWORD USE32 PUBLIC 'CONST'
rdata$r	ENDS
;	COMDAT ??_R0?AVfacet@locale@std@@@8
_DATA	SEGMENT DWORD USE32 PUBLIC 'DATA'
_DATA	ENDS
;	COMDAT ??_R1A@?0A@A@?$numpunct@D@std@@8
rdata$r	SEGMENT DWORD USE32 PUBLIC 'CONST'
rdata$r	ENDS
;	COMDAT ??_R0?AVCWebBrowser@@@8
_DATA	SEGMENT DWORD USE32 PUBLIC 'DATA'
_DATA	ENDS
;	COMDAT ??_R0?AV_com_error@@@8
_DATA	SEGMENT DWORD USE32 PUBLIC 'DATA'
_DATA	ENDS
;	COMDAT ??_R0?AV?$numpunct@_W@std@@@8
_DATA	SEGMENT DWORD USE32 PUBLIC 'DATA'
_DATA	ENDS
;	COMDAT ??_R0?AV?$numpunct@D@std@@@8
_DATA	SEGMENT DWORD USE32 PUBLIC 'DATA'
_DATA	ENDS
;	COMDAT ??_R4CWebBrowser@@6B@
rdata$r	SEGMENT DWORD USE32 PUBLIC 'CONST'
rdata$r	ENDS
;	COMDAT ??_R4_com_error@@6B@
rdata$r	SEGMENT DWORD USE32 PUBLIC 'CONST'
rdata$r	ENDS
;	COMDAT ??0?$allocator@_W@std@@QAE@XZ
_TEXT	SEGMENT PARA USE32 PUBLIC 'CODE'
_TEXT	ENDS
;	COMDAT ??0?$allocator@D@std@@QAE@ABV01@@Z
_TEXT	SEGMENT PARA USE32 PUBLIC 'CODE'
_TEXT	ENDS
;	COMDAT ??0?$allocator@D@std@@QAE@XZ
_TEXT	SEGMENT PARA USE32 PUBLIC 'CODE'
_TEXT	ENDS
;	COMDAT ?deallocate@?$allocator@D@std@@QAEXPADI@Z
_TEXT	SEGMENT PARA USE32 PUBLIC 'CODE'
_TEXT	ENDS
;	COMDAT ?max_size@?$allocator@D@std@@QBEIXZ
_TEXT	SEGMENT PARA USE32 PUBLIC 'CODE'
_TEXT	ENDS
;	COMDAT ?allocate@?$allocator@D@std@@QAEPADI@Z
_TEXT	SEGMENT PARA USE32 PUBLIC 'CODE'
_TEXT	ENDS
;	COMDAT ??$_Allocate@D@std@@YAPADIPAD@Z
_TEXT	SEGMENT PARA USE32 PUBLIC 'CODE'
_TEXT	ENDS
;	COMDAT ??_G?$numpunct@_W@std@@MAEPAXI@Z
_TEXT	SEGMENT PARA USE32 PUBLIC 'CODE'
_TEXT	ENDS
;	COMDAT ??_R4?$numpunct@_W@std@@6B@
rdata$r	SEGMENT DWORD USE32 PUBLIC 'CONST'
rdata$r	ENDS
;	COMDAT ??_G?$numpunct@D@std@@MAEPAXI@Z
_TEXT	SEGMENT PARA USE32 PUBLIC 'CODE'
_TEXT	ENDS
;	COMDAT ??_R4?$numpunct@D@std@@6B@
rdata$r	SEGMENT DWORD USE32 PUBLIC 'CONST'
rdata$r	ENDS
;	COMDAT ??_C@_0EN@CBMLGOH@D?3?2Program?5Files?5?$CIx86?$CJ?2Microsoft@
CONST	SEGMENT DWORD USE32 PUBLIC 'CONST'
CONST	ENDS
;	COMDAT ?_Psave@?$_Facetptr@V?$numpunct@_W@std@@@std@@2PBVfacet@locale@2@B
_DATA	SEGMENT DWORD USE32 PUBLIC 'DATA'
_DATA	ENDS
;	COMDAT ?_Psave@?$_Facetptr@V?$numpunct@D@std@@@std@@2PBVfacet@locale@2@B
_DATA	SEGMENT DWORD USE32 PUBLIC 'DATA'
_DATA	ENDS
;	COMDAT ?Unlock@CComCriticalSection@ATL@@QAEJXZ
_TEXT	SEGMENT PARA USE32 PUBLIC 'CODE'
_TEXT	ENDS
;	COMDAT ??_C@_0FG@LDNDNCJM@D?3?2Program?5Files?5?$CIx86?$CJ?2Microsoft@
CONST	SEGMENT DWORD USE32 PUBLIC 'CONST'
CONST	ENDS
;	COMDAT ??_C@_09HIEJFN@m_bLocked?$AA@
CONST	SEGMENT DWORD USE32 PUBLIC 'CONST'
CONST	ENDS
;	COMDAT ?_Psave@?$_Facetptr@V?$ctype@_W@std@@@std@@2PBVfacet@locale@2@B
_DATA	SEGMENT DWORD USE32 PUBLIC 'DATA'
_DATA	ENDS
;	COMDAT ?_Psave@?$_Facetptr@V?$ctype@D@std@@@std@@2PBVfacet@locale@2@B
_DATA	SEGMENT DWORD USE32 PUBLIC 'DATA'
_DATA	ENDS
;	COMDAT ??$_Maklocchr@_W@std@@YA_WDPA_WABU_Cvtvec@@@Z
_TEXT	SEGMENT PARA USE32 PUBLIC 'CODE'
_TEXT	ENDS
;	COMDAT ??$_DebugHeapDelete@X@std@@YAXPAX@Z
_TEXT	SEGMENT PARA USE32 PUBLIC 'CODE'
_TEXT	ENDS
;	COMDAT ??$_Maklocstr@_W@std@@YAPA_WPBDPA_WABU_Cvtvec@@@Z
_TEXT	SEGMENT PARA USE32 PUBLIC 'CODE'
_TEXT	ENDS
;	COMDAT ??$_Maklocchr@D@std@@YADDPADABU_Cvtvec@@@Z
_TEXT	SEGMENT PARA USE32 PUBLIC 'CODE'
_TEXT	ENDS
;	COMDAT ??_C@_04LOAJBDKD@true?$AA@
CONST	SEGMENT DWORD USE32 PUBLIC 'CONST'
CONST	ENDS
;	COMDAT ??_C@_05LAPONLG@false?$AA@
CONST	SEGMENT DWORD USE32 PUBLIC 'CONST'
CONST	ENDS
;	COMDAT _wmemcpy
_TEXT	SEGMENT PARA USE32 PUBLIC 'CODE'
_TEXT	ENDS
;	COMDAT ?max_size@?$allocator@_W@std@@QBEIXZ
_TEXT	SEGMENT PARA USE32 PUBLIC 'CODE'
_TEXT	ENDS
;	COMDAT ?allocate@?$allocator@_W@std@@QAEPA_WI@Z
_TEXT	SEGMENT PARA USE32 PUBLIC 'CODE'
_TEXT	ENDS
;	COMDAT ??$_Allocate@_W@std@@YAPA_WIPA_W@Z
_TEXT	SEGMENT PARA USE32 PUBLIC 'CODE'
_TEXT	ENDS
;	COMDAT ??_C@_01GFHCPBMG@C?$AA@
CONST	SEGMENT DWORD USE32 PUBLIC 'CONST'
CONST	ENDS
;	COMDAT ?_AtlGetConversionACP@ATL@@YGIXZ
_TEXT	SEGMENT PARA USE32 PUBLIC 'CODE'
_TEXT	ENDS
;	COMDAT ?g_pfnGetThreadACP@ATL@@3P6GIXZA
_DATA	SEGMENT DWORD USE32 PUBLIC 'DATA'
_DATA	ENDS
;	COMDAT ?_AtlGetThreadACPThunk@ATL@@YGIXZ
_TEXT	SEGMENT PARA USE32 PUBLIC 'CODE'
_TEXT	ENDS
;	COMDAT ?_AtlGetThreadACPReal@ATL@@YGIXZ
_TEXT	SEGMENT PARA USE32 PUBLIC 'CODE'
_TEXT	ENDS
;	COMDAT ?_AtlGetThreadACPFake@ATL@@YGIXZ
_TEXT	SEGMENT PARA USE32 PUBLIC 'CODE'
_TEXT	ENDS
;	COMDAT ?InterlockedExchangePointer@@YGPAXPAPAXPAX@Z
_TEXT	SEGMENT PARA USE32 PUBLIC 'CODE'
_TEXT	ENDS
;	COMDAT ??_C@_04DBLLIIGB@p?$DN?$DN0?$AA@
CONST	SEGMENT DWORD USE32 PUBLIC 'CONST'
CONST	ENDS
;	COMDAT ?AtlComQIPtrAssign@ATL@@YGPAUIUnknown@@PAPAU2@PAU2@ABU_GUID@@@Z
_TEXT	SEGMENT PARA USE32 PUBLIC 'CODE'
_TEXT	ENDS
;	COMDAT ?_Peek@?$istreambuf_iterator@_WU?$char_traits@_W@std@@@std@@AAE_WXZ
_TEXT	SEGMENT PARA USE32 PUBLIC 'CODE'
_TEXT	ENDS
;	COMDAT ?_Peek@?$istreambuf_iterator@DU?$char_traits@D@std@@@std@@AAEDXZ
_TEXT	SEGMENT PARA USE32 PUBLIC 'CODE'
_TEXT	ENDS
;	COMDAT ??_C@_0FI@FDBICBML@D?3?2Program?5Files?5?$CIx86?$CJ?2Microsoft@
CONST	SEGMENT DWORD USE32 PUBLIC 'CONST'
CONST	ENDS
;	COMDAT ??_C@_04CLHEGAEG@p?$CB?$DN0?$AA@
CONST	SEGMENT DWORD USE32 PUBLIC 'CONST'
CONST	ENDS
;	COMDAT ??$use_facet@V?$ctype@_W@std@@@std@@YAABV?$ctype@_W@0@ABVlocale@0@@Z
_TEXT	SEGMENT PARA USE32 PUBLIC 'CODE'
_TEXT	ENDS
;	COMDAT ??_S?$ctype@_W@std@@6B@
CONST	SEGMENT DWORD USE32 PUBLIC 'CONST'
CONST	ENDS
;	COMDAT ??_R4?$ctype@_W@std@@6B@
rdata$r	SEGMENT DWORD USE32 PUBLIC 'CONST'
rdata$r	ENDS
;	COMDAT ??_R0?AV?$ctype@_W@std@@@8
_DATA	SEGMENT DWORD USE32 PUBLIC 'DATA'
_DATA	ENDS
;	COMDAT ??_R3?$ctype@_W@std@@8
rdata$r	SEGMENT DWORD USE32 PUBLIC 'CONST'
rdata$r	ENDS
;	COMDAT ??_R2?$ctype@_W@std@@8
rdata$r	SEGMENT DWORD USE32 PUBLIC 'CONST'
rdata$r	ENDS
;	COMDAT ??_R1A@?0A@A@?$ctype@_W@std@@8
rdata$r	SEGMENT DWORD USE32 PUBLIC 'CONST'
rdata$r	ENDS
;	COMDAT ??_R1A@?0A@A@ctype_base@std@@8
rdata$r	SEGMENT DWORD USE32 PUBLIC 'CONST'
rdata$r	ENDS
;	COMDAT ??_R0?AUctype_base@std@@@8
_DATA	SEGMENT DWORD USE32 PUBLIC 'DATA'
_DATA	ENDS
;	COMDAT ??_G?$ctype@_W@std@@MAEPAXI@Z
_TEXT	SEGMENT PARA USE32 PUBLIC 'CODE'
_TEXT	ENDS
;	COMDAT ??_C@_08EPJLHIJG@bad?5cast?$AA@
CONST	SEGMENT DWORD USE32 PUBLIC 'CONST'
CONST	ENDS
;	COMDAT __TI2?AVbad_cast@@
xdata$x	SEGMENT DWORD USE32 PUBLIC 'CONST'
xdata$x	ENDS
;	COMDAT __CTA2?AVbad_cast@@
xdata$x	SEGMENT DWORD USE32 PUBLIC 'CONST'
xdata$x	ENDS
;	COMDAT __CT??_R0?AVbad_cast@@@8??0bad_cast@@QAE@ABV0@@Z12
xdata$x	SEGMENT DWORD USE32 PUBLIC 'CONST'
xdata$x	ENDS
;	COMDAT ??_R0?AVbad_cast@@@8
_DATA	SEGMENT DWORD USE32 PUBLIC 'DATA'
_DATA	ENDS
;	COMDAT __CT??_R0?AVexception@@@8??0exception@@QAE@ABV0@@Z12
xdata$x	SEGMENT DWORD USE32 PUBLIC 'CONST'
xdata$x	ENDS
;	COMDAT ??_R0?AVexception@@@8
_DATA	SEGMENT DWORD USE32 PUBLIC 'DATA'
_DATA	ENDS
;	COMDAT ??$_DebugHeapDelete@Vfacet@locale@std@@@std@@YAXPAVfacet@locale@0@@Z
_TEXT	SEGMENT PARA USE32 PUBLIC 'CODE'
_TEXT	ENDS
;	COMDAT ??$use_facet@V?$ctype@D@std@@@std@@YAABV?$ctype@D@0@ABVlocale@0@@Z
_TEXT	SEGMENT PARA USE32 PUBLIC 'CODE'
_TEXT	ENDS
;	COMDAT ??_S?$ctype@D@std@@6B@
CONST	SEGMENT DWORD USE32 PUBLIC 'CONST'
CONST	ENDS
;	COMDAT ??_R4?$ctype@D@std@@6B@
rdata$r	SEGMENT DWORD USE32 PUBLIC 'CONST'
rdata$r	ENDS
;	COMDAT ??_R0?AV?$ctype@D@std@@@8
_DATA	SEGMENT DWORD USE32 PUBLIC 'DATA'
_DATA	ENDS
;	COMDAT ??_R3?$ctype@D@std@@8
rdata$r	SEGMENT DWORD USE32 PUBLIC 'CONST'
rdata$r	ENDS
;	COMDAT ??_R2?$ctype@D@std@@8
rdata$r	SEGMENT DWORD USE32 PUBLIC 'CONST'
rdata$r	ENDS
;	COMDAT ??_R1A@?0A@A@?$ctype@D@std@@8
rdata$r	SEGMENT DWORD USE32 PUBLIC 'CONST'
rdata$r	ENDS
;	COMDAT ??_G?$ctype@D@std@@MAEPAXI@Z
_TEXT	SEGMENT PARA USE32 PUBLIC 'CODE'
_TEXT	ENDS
;	COMDAT ??_S?$numpunct@_W@std@@6B@
CONST	SEGMENT DWORD USE32 PUBLIC 'CONST'
CONST	ENDS
;	COMDAT ??_S?$numpunct@D@std@@6B@
CONST	SEGMENT DWORD USE32 PUBLIC 'CONST'
CONST	ENDS
;	COMDAT _wmemmove
_TEXT	SEGMENT PARA USE32 PUBLIC 'CODE'
_TEXT	ENDS
;	COMDAT ?deallocate@?$allocator@_W@std@@QAEXPA_WI@Z
_TEXT	SEGMENT PARA USE32 PUBLIC 'CODE'
_TEXT	ENDS
;	COMDAT ??0?$allocator@_W@std@@QAE@ABV01@@Z
_TEXT	SEGMENT PARA USE32 PUBLIC 'CODE'
_TEXT	ENDS
;	COMDAT ?AtlThrow@ATL@@YGXJ@Z
_TEXT	SEGMENT PARA USE32 PUBLIC 'CODE'
_TEXT	ENDS
;	COMDAT ??RCTraceFileAndLineInfo@ATL@@QBAXKIPBDZZ
_TEXT	SEGMENT PARA USE32 PUBLIC 'CODE'
_TEXT	ENDS
;	COMDAT ?TraceV@CTrace@ATL@@QBAXPBDHKI0PAD@Z
_TEXT	SEGMENT PARA USE32 PUBLIC 'CODE'
_TEXT	ENDS
;	COMDAT ??0CTraceFileAndLineInfo@ATL@@QAE@PBDH@Z
_TEXT	SEGMENT PARA USE32 PUBLIC 'CODE'
_TEXT	ENDS
;	COMDAT ??_C@_0FI@NHHJANPC@D?3?2Program?5Files?5?$CIx86?$CJ?2Microsoft@
CONST	SEGMENT DWORD USE32 PUBLIC 'CONST'
CONST	ENDS
;	COMDAT ??_C@_0BF@IAAKIJDJ@AtlThrow?3?5hr?5?$DN?50x?$CFx?6?$AA@
CONST	SEGMENT DWORD USE32 PUBLIC 'CONST'
CONST	ENDS
;	COMDAT ??BCTraceCategory@ATL@@QBEKXZ
_TEXT	SEGMENT PARA USE32 PUBLIC 'CODE'
_TEXT	ENDS
;	COMDAT ?A2BSTR@@YAPA_WPBD@Z
_TEXT	SEGMENT PARA USE32 PUBLIC 'CODE'
_TEXT	ENDS
;	COMDAT ?A2WBSTR@@YAPA_WPBDH@Z
_TEXT	SEGMENT PARA USE32 PUBLIC 'CODE'
_TEXT	ENDS
;	COMDAT ??0?$CAtlSafeAllocBufferManager@VCCRTAllocator@ATL@@@_ATL_SAFE_ALLOCA_IMPL@ATL@@QAE@XZ
_TEXT	SEGMENT PARA USE32 PUBLIC 'CODE'
_TEXT	ENDS
;	COMDAT ??1?$CAtlSafeAllocBufferManager@VCCRTAllocator@ATL@@@_ATL_SAFE_ALLOCA_IMPL@ATL@@QAE@XZ
_TEXT	SEGMENT PARA USE32 PUBLIC 'CODE'
_TEXT	ENDS
;	COMDAT ?Free@CCRTAllocator@ATL@@SAXPAX@Z
_TEXT	SEGMENT PARA USE32 PUBLIC 'CODE'
_TEXT	ENDS
;	COMDAT ??_C@_0BJ@OGJFCAD@nResult?5?$DN?$DN?5nConvertedLen?$AA@
CONST	SEGMENT DWORD USE32 PUBLIC 'CONST'
CONST	ENDS
;	COMDAT ??_C@_0FG@PFHCBDBK@D?3?2Program?5Files?5?$CIx86?$CJ?2Microsoft@
CONST	SEGMENT DWORD USE32 PUBLIC 'CONST'
CONST	ENDS
;	COMDAT ??4?$CComPtr@UIDispatch@@@ATL@@QAEPAUIDispatch@@PAU2@@Z
_TEXT	SEGMENT PARA USE32 PUBLIC 'CODE'
_TEXT	ENDS
;	COMDAT ?AtlComPtrAssign@ATL@@YGPAUIUnknown@@PAPAU2@PAU2@@Z
_TEXT	SEGMENT PARA USE32 PUBLIC 'CODE'
_TEXT	ENDS
;	COMDAT ??1?$CComPtr@UIDispatch@@@ATL@@QAE@XZ
_TEXT	SEGMENT PARA USE32 PUBLIC 'CODE'
_TEXT	ENDS
;	COMDAT ??1?$CComPtrBase@UIDispatch@@@ATL@@QAE@XZ
_TEXT	SEGMENT PARA USE32 PUBLIC 'CODE'
_TEXT	ENDS
;	COMDAT ??0?$CComPtr@UIDispatch@@@ATL@@QAE@XZ
_TEXT	SEGMENT PARA USE32 PUBLIC 'CODE'
_TEXT	ENDS
;	COMDAT ??0?$CComPtrBase@UIDispatch@@@ATL@@IAE@XZ
_TEXT	SEGMENT PARA USE32 PUBLIC 'CODE'
_TEXT	ENDS
;	COMDAT ?_eventsinkEntryCount@CWebBrowser@@0IA
_DATA	SEGMENT DWORD USE32 PUBLIC 'DATA'
_DATA	ENDS
;	COMDAT ?_eventsinkEntries@CWebBrowser@@0QBUAFX_EVENTSINKMAP_ENTRY@@B
CONST	SEGMENT DWORD USE32 PUBLIC 'CONST'
CONST	ENDS
;	COMDAT ?eventsinkMap@CWebBrowser@@1UAFX_EVENTSINKMAP@@B
CONST	SEGMENT DWORD USE32 PUBLIC 'CONST'
CONST	ENDS
;	COMDAT ?classCWebBrowser@CWebBrowser@@2UCRuntimeClass@@B
CONST	SEGMENT DWORD USE32 PUBLIC 'CONST'
CONST	ENDS
;	COMDAT ??_7CWebBrowser@@6B@
CONST	SEGMENT DWORD USE32 PUBLIC 'CONST'
CONST	ENDS
;	COMDAT __GUID_00000000_0000_0000_0000_000000000000
CONST	SEGMENT DWORD USE32 PUBLIC 'CONST'
CONST	ENDS
;	COMDAT ??_7_com_error@@6B@
CONST	SEGMENT DWORD USE32 PUBLIC 'CONST'
CONST	ENDS
;	COMDAT ?parms@?1??put_Resizable@CWebBrowser@@QAEXH@Z@4PAEA
_DATA	SEGMENT DWORD USE32 PUBLIC 'DATA'
_DATA	ENDS
;	COMDAT ?parms@?1??put_AddressBar@CWebBrowser@@QAEXH@Z@4PAEA
_DATA	SEGMENT DWORD USE32 PUBLIC 'DATA'
_DATA	ENDS
;	COMDAT ?parms@?1??put_TheaterMode@CWebBrowser@@QAEXH@Z@4PAEA
_DATA	SEGMENT DWORD USE32 PUBLIC 'DATA'
_DATA	ENDS
;	COMDAT ?parms@?1??put_RegisterAsDropTarget@CWebBrowser@@QAEXH@Z@4PAEA
_DATA	SEGMENT DWORD USE32 PUBLIC 'DATA'
_DATA	ENDS
;	COMDAT ?parms@?1??put_RegisterAsBrowser@CWebBrowser@@QAEXH@Z@4PAEA
_DATA	SEGMENT DWORD USE32 PUBLIC 'DATA'
_DATA	ENDS
;	COMDAT ?parms@?1??put_Silent@CWebBrowser@@QAEXH@Z@4PAEA
_DATA	SEGMENT DWORD USE32 PUBLIC 'DATA'
_DATA	ENDS
;	COMDAT ?parms@?1??put_Offline@CWebBrowser@@QAEXH@Z@4PAEA
_DATA	SEGMENT DWORD USE32 PUBLIC 'DATA'
_DATA	ENDS
;	COMDAT ?parms@?1??ShowBrowserBar@CWebBrowser@@QAEXPAUtagVARIANT@@00@Z@4PAEA
_DATA	SEGMENT DWORD USE32 PUBLIC 'DATA'
_DATA	ENDS
;	COMDAT ?parms@?1??ExecWB@CWebBrowser@@QAEXJJPAUtagVARIANT@@0@Z@4PAEA
_DATA	SEGMENT DWORD USE32 PUBLIC 'DATA'
_DATA	ENDS
;	COMDAT ?parms@?1??QueryStatusWB@CWebBrowser@@QAEJJ@Z@4PAEA
_DATA	SEGMENT DWORD USE32 PUBLIC 'DATA'
_DATA	ENDS
;	COMDAT ?parms@?1??Navigate2@CWebBrowser@@QAEXPAUtagVARIANT@@0000@Z@4PAEA
_DATA	SEGMENT DWORD USE32 PUBLIC 'DATA'
_DATA	ENDS
;	COMDAT ?parms@?1??put_FullScreen@CWebBrowser@@QAEXH@Z@4PAEA
_DATA	SEGMENT DWORD USE32 PUBLIC 'DATA'
_DATA	ENDS
;	COMDAT ?parms@?1??put_MenuBar@CWebBrowser@@QAEXH@Z@4PAEA
_DATA	SEGMENT DWORD USE32 PUBLIC 'DATA'
_DATA	ENDS
;	COMDAT ?parms@?1??put_ToolBar@CWebBrowser@@QAEXJ@Z@4PAEA
_DATA	SEGMENT DWORD USE32 PUBLIC 'DATA'
_DATA	ENDS
;	COMDAT ?parms@?1??put_StatusText@CWebBrowser@@QAEXPBD@Z@4PAEA
_DATA	SEGMENT DWORD USE32 PUBLIC 'DATA'
_DATA	ENDS
;	COMDAT ?parms@?1??put_StatusBar@CWebBrowser@@QAEXH@Z@4PAEA
_DATA	SEGMENT DWORD USE32 PUBLIC 'DATA'
_DATA	ENDS
;	COMDAT ?parms@?1??put_Visible@CWebBrowser@@QAEXH@Z@4PAEA
_DATA	SEGMENT DWORD USE32 PUBLIC 'DATA'
_DATA	ENDS
;	COMDAT ?parms@?1??GetProperty@CWebBrowser@@QAE?AUtagVARIANT@@PBD@Z@4PAEA
_DATA	SEGMENT DWORD USE32 PUBLIC 'DATA'
_DATA	ENDS
;	COMDAT ?parms@?1??PutProperty@CWebBrowser@@QAEXPBDUtagVARIANT@@@Z@4PAEA
_DATA	SEGMENT DWORD USE32 PUBLIC 'DATA'
_DATA	ENDS
;	COMDAT ?parms@?1??ClientToWindow@CWebBrowser@@QAEXPAJ0@Z@4PAEA
_DATA	SEGMENT DWORD USE32 PUBLIC 'DATA'
_DATA	ENDS
;	COMDAT ?parms@?1??put_Height@CWebBrowser@@QAEXJ@Z@4PAEA
_DATA	SEGMENT DWORD USE32 PUBLIC 'DATA'
_DATA	ENDS
;	COMDAT ?parms@?1??put_Width@CWebBrowser@@QAEXJ@Z@4PAEA
_DATA	SEGMENT DWORD USE32 PUBLIC 'DATA'
_DATA	ENDS
;	COMDAT ?parms@?1??put_Top@CWebBrowser@@QAEXJ@Z@4PAEA
_DATA	SEGMENT DWORD USE32 PUBLIC 'DATA'
_DATA	ENDS
;	COMDAT ?parms@?1??put_Left@CWebBrowser@@QAEXJ@Z@4PAEA
_DATA	SEGMENT DWORD USE32 PUBLIC 'DATA'
_DATA	ENDS
;	COMDAT ?IsLocked@CStringData@ATL@@QBE_NXZ
_TEXT	SEGMENT PARA USE32 PUBLIC 'CODE'
_TEXT	ENDS
;	COMDAT ?AddRef@CStringData@ATL@@QAEXXZ
_TEXT	SEGMENT PARA USE32 PUBLIC 'CODE'
_TEXT	ENDS
;	COMDAT ??_C@_09EEBKLCFA@nRefs?5?$DO?50?$AA@
CONST	SEGMENT DWORD USE32 PUBLIC 'CONST'
CONST	ENDS
;	COMDAT ??_C@_0FJ@DMHPDOJC@D?3?2Program?5Files?5?$CIx86?$CJ?2Microsoft@
CONST	SEGMENT DWORD USE32 PUBLIC 'CONST'
CONST	ENDS
;	COMDAT ?data@CStringData@ATL@@QAEPAXXZ
_TEXT	SEGMENT PARA USE32 PUBLIC 'CODE'
_TEXT	ENDS
;	COMDAT ?Release@CStringData@ATL@@QAEXXZ
_TEXT	SEGMENT PARA USE32 PUBLIC 'CODE'
_TEXT	ENDS
;	COMDAT ??_C@_0L@OIIMFBNE@nRefs?5?$CB?$DN?50?$AA@
CONST	SEGMENT DWORD USE32 PUBLIC 'CONST'
CONST	ENDS
;	COMDAT ??_C@_0BA@GOIMFHNK@pStringMgr?5?$CB?$DN?50?$AA@
CONST	SEGMENT DWORD USE32 PUBLIC 'CONST'
CONST	ENDS
;	COMDAT ?GetDefaultManager@?$StrTraitMFC_DLL@DV?$ChTraitsCRT@D@ATL@@@@SAPAUIAtlStringMgr@ATL@@XZ
_TEXT	SEGMENT PARA USE32 PUBLIC 'CODE'
_TEXT	ENDS
;	COMDAT ?parms@?1??Refresh2@CWebBrowser@@QAEXPAUtagVARIANT@@@Z@4PAEA
_DATA	SEGMENT DWORD USE32 PUBLIC 'DATA'
_DATA	ENDS
;	COMDAT ?parms@?1??Navigate@CWebBrowser@@QAEXPBDPAUtagVARIANT@@111@Z@4PAEA
_DATA	SEGMENT DWORD USE32 PUBLIC 'DATA'
_DATA	ENDS
;	COMDAT ?clsid@?1??GetClsid@CWebBrowser@@QAEABU_GUID@@XZ@4U3@B
CONST	SEGMENT DWORD USE32 PUBLIC 'CONST'
CONST	ENDS
sxdata	SEGMENT DWORD USE32 'SXDATA'
sxdata	ENDS
FLAT	GROUP _DATA, CONST, _BSS
	ASSUME	CS: FLAT, DS: FLAT, SS: FLAT
endif

INCLUDELIB MSVCRTD
INCLUDELIB OLDNAMES

PUBLIC	?g_pfnGetThreadACP@ATL@@3P6GIXZA		; ATL::g_pfnGetThreadACP
PUBLIC	?_AtlGetThreadACPThunk@ATL@@YGIXZ		; ATL::_AtlGetThreadACPThunk
PUBLIC	?classCWebBrowser@CWebBrowser@@2UCRuntimeClass@@B ; CWebBrowser::classCWebBrowser
PUBLIC	?CreateObject@CWebBrowser@@SGPAVCObject@@XZ	; CWebBrowser::CreateObject
PUBLIC	?_eventsinkEntries@CWebBrowser@@0QBUAFX_EVENTSINKMAP_ENTRY@@B ; CWebBrowser::_eventsinkEntries
PUBLIC	?_eventsinkEntryCount@CWebBrowser@@0IA		; CWebBrowser::_eventsinkEntryCount
PUBLIC	?eventsinkMap@CWebBrowser@@1UAFX_EVENTSINKMAP@@B ; CWebBrowser::eventsinkMap
PUBLIC	?OnDocumentComplete@CWebBrowser@@QAEXPAUIDispatch@@PAUtagVARIANT@@@Z ; CWebBrowser::OnDocumentComplete
EXTRN	?GetThisEventSinkMap@CCmdTarget@@KGPBUAFX_EVENTSINKMAP@@XZ:NEAR ; CCmdTarget::GetThisEventSinkMap
EXTRN	?GetThisClass@CWnd@@SGPAUCRuntimeClass@@XZ:NEAR	; CWnd::GetThisClass
CONST	SEGMENT
$SG190597 DB	'CWebBrowser', 00H
CONST	ENDS
;	COMDAT ?classCWebBrowser@CWebBrowser@@2UCRuntimeClass@@B
CONST	SEGMENT
?classCWebBrowser@CWebBrowser@@2UCRuntimeClass@@B DD FLAT:$SG190597 ; CWebBrowser::classCWebBrowser
	DD	074H
	DD	0ffffH
	DD	FLAT:?CreateObject@CWebBrowser@@SGPAVCObject@@XZ
	DD	FLAT:?GetThisClass@CWnd@@SGPAUCRuntimeClass@@XZ
	DD	00H
	DD	00H
CONST	ENDS
CONST	SEGMENT
$SG190612 DB	00H
	ORG $+3
$SG190613 DB	09H, 'L', 00H
CONST	ENDS
;	COMDAT ?_eventsinkEntries@CWebBrowser@@0QBUAFX_EVENTSINKMAP_ENTRY@@B
CONST	SEGMENT
?_eventsinkEntries@CWebBrowser@@0QBUAFX_EVENTSINKMAP_ENTRY@@B DD FLAT:$SG190612 ; CWebBrowser::_eventsinkEntries
	DD	0103H
	DD	FLAT:$SG190613
	DW	0bH
	ORG $+2
	DD	FLAT:?OnDocumentComplete@CWebBrowser@@QAEXPAUIDispatch@@PAUtagVARIANT@@@Z
	DD	00H
	DD	00H
	DD	00H
	DD	02713H
	DD	0ffffffffH
	DD	00H
	DD	0ffffffffH
	DD	00H
	DW	018H
	ORG $+2
	DD	00H
	DD	00H
	DD	0ffffffffH
	DD	00H
	DD	0ffffffffH
	DD	00H
CONST	ENDS
;	COMDAT ?_eventsinkEntryCount@CWebBrowser@@0IA
_DATA	SEGMENT
?_eventsinkEntryCount@CWebBrowser@@0IA DD 0ffffffffH	; CWebBrowser::_eventsinkEntryCount
_DATA	ENDS
;	COMDAT ?eventsinkMap@CWebBrowser@@1UAFX_EVENTSINKMAP@@B
CONST	SEGMENT
?eventsinkMap@CWebBrowser@@1UAFX_EVENTSINKMAP@@B DD FLAT:?GetThisEventSinkMap@CCmdTarget@@KGPBUAFX_EVENTSINKMAP@@XZ ; CWebBrowser::eventsinkMap
	DD	FLAT:?_eventsinkEntries@CWebBrowser@@0QBUAFX_EVENTSINKMAP_ENTRY@@B
	DD	FLAT:?_eventsinkEntryCount@CWebBrowser@@0IA
CONST	ENDS
CONST	SEGMENT
	ORG $+1
$SG190847 DB	'none', 00H
CONST	ENDS
;	COMDAT ?g_pfnGetThreadACP@ATL@@3P6GIXZA
_DATA	SEGMENT
?g_pfnGetThreadACP@ATL@@3P6GIXZA DD FLAT:?_AtlGetThreadACPThunk@ATL@@YGIXZ ; ATL::g_pfnGetThreadACP
_DATA	ENDS
PUBLIC	?InterlockedExchangePointer@@YGPAXPAPAXPAX@Z	; InterlockedExchangePointer
PUBLIC	?_AtlGetThreadACPFake@ATL@@YGIXZ		; ATL::_AtlGetThreadACPFake
PUBLIC	?_AtlGetThreadACPReal@ATL@@YGIXZ		; ATL::_AtlGetThreadACPReal
EXTRN	__RTC_InitBase:NEAR
EXTRN	__RTC_Shutdown:NEAR
EXTRN	__RTC_CheckEsp:NEAR
EXTRN	___security_cookie:DWORD
EXTRN	@_RTC_CheckStackVars@8:NEAR
EXTRN	@__security_check_cookie@4:NEAR
EXTRN	__imp__GetVersionExA@4:NEAR
;	COMDAT rtc$IMZ
; File d:\program files (x86)\microsoft visual studio .net 2003\vc7\atlmfc\include\atlconv.h
rtc$IMZ	SEGMENT
__RTC_InitBase.rtc$IMZ DD FLAT:__RTC_InitBase
rtc$IMZ	ENDS
;	COMDAT rtc$TMZ
rtc$TMZ	SEGMENT
__RTC_Shutdown.rtc$TMZ DD FLAT:__RTC_Shutdown
; Function compile flags: /Odt /RTCsu
rtc$TMZ	ENDS
;	COMDAT ?_AtlGetThreadACPThunk@ATL@@YGIXZ
_TEXT	SEGMENT
_pfnGetThreadACP$ = -164				; size = 4
_ver$ = -156						; size = 148
__$ArrayPad$ = -4					; size = 4
__$ReturnAddr$ = 4					; size = 4
?_AtlGetThreadACPThunk@ATL@@YGIXZ PROC NEAR		; ATL::_AtlGetThreadACPThunk, COMDAT

; 134  : {

  00000	55		 push	 ebp
  00001	8b ec		 mov	 ebp, esp
  00003	81 ec a4 00 00
	00		 sub	 esp, 164		; 000000a4H
  00009	56		 push	 esi
  0000a	57		 push	 edi
  0000b	8d bd 5c ff ff
	ff		 lea	 edi, DWORD PTR [ebp-164]
  00011	b9 29 00 00 00	 mov	 ecx, 41			; 00000029H
  00016	b8 cc cc cc cc	 mov	 eax, -858993460		; ccccccccH
  0001b	f3 ab		 rep stosd
  0001d	a1 00 00 00 00	 mov	 eax, DWORD PTR ___security_cookie
  00022	89 45 fc	 mov	 DWORD PTR __$ArrayPad$[ebp], eax

; 135  : 	OSVERSIONINFO ver;
; 136  : 	ATLGETTHREADACP pfnGetThreadACP;
; 137  : 
; 138  : 	ver.dwOSVersionInfoSize = sizeof( ver );

  00025	c7 85 64 ff ff
	ff 94 00 00 00	 mov	 DWORD PTR _ver$[ebp], 148 ; 00000094H

; 139  : 	::GetVersionEx( &ver );

  0002f	8b f4		 mov	 esi, esp
  00031	8d 85 64 ff ff
	ff		 lea	 eax, DWORD PTR _ver$[ebp]
  00037	50		 push	 eax
  00038	ff 15 00 00 00
	00		 call	 DWORD PTR __imp__GetVersionExA@4
  0003e	3b f4		 cmp	 esi, esp
  00040	e8 00 00 00 00	 call	 __RTC_CheckEsp

; 140  : 	if( (ver.dwPlatformId == VER_PLATFORM_WIN32_NT) && (ver.dwMajorVersion >= 5) )

  00045	83 bd 74 ff ff
	ff 02		 cmp	 DWORD PTR _ver$[ebp+16], 2
  0004c	75 15		 jne	 SHORT $L24163
  0004e	83 bd 68 ff ff
	ff 05		 cmp	 DWORD PTR _ver$[ebp+4], 5
  00055	72 0c		 jb	 SHORT $L24163

; 141  : 	{
; 142  : 		// On Win2K, CP_THREAD_ACP is supported
; 143  : 		pfnGetThreadACP = _AtlGetThreadACPReal;

  00057	c7 85 5c ff ff
	ff 00 00 00 00	 mov	 DWORD PTR _pfnGetThreadACP$[ebp], OFFSET FLAT:?_AtlGetThreadACPReal@ATL@@YGIXZ ; ATL::_AtlGetThreadACPReal

; 144  : 	}
; 145  : 	else

  00061	eb 0a		 jmp	 SHORT $L24164
$L24163:

; 146  : 	{
; 147  : 		pfnGetThreadACP = _AtlGetThreadACPFake;

  00063	c7 85 5c ff ff
	ff 00 00 00 00	 mov	 DWORD PTR _pfnGetThreadACP$[ebp], OFFSET FLAT:?_AtlGetThreadACPFake@ATL@@YGIXZ ; ATL::_AtlGetThreadACPFake
$L24164:

; 148  : 	}
; 149  : 	InterlockedExchangePointer( reinterpret_cast< void** >(&g_pfnGetThreadACP), pfnGetThreadACP );

  0006d	8b 8d 5c ff ff
	ff		 mov	 ecx, DWORD PTR _pfnGetThreadACP$[ebp]
  00073	51		 push	 ecx
  00074	68 00 00 00 00	 push	 OFFSET FLAT:?g_pfnGetThreadACP@ATL@@3P6GIXZA ; ATL::g_pfnGetThreadACP
  00079	e8 00 00 00 00	 call	 ?InterlockedExchangePointer@@YGPAXPAPAXPAX@Z ; InterlockedExchangePointer

; 150  : 
; 151  : 	return( g_pfnGetThreadACP() );

  0007e	8b f4		 mov	 esi, esp
  00080	ff 15 00 00 00
	00		 call	 DWORD PTR ?g_pfnGetThreadACP@ATL@@3P6GIXZA ; ATL::g_pfnGetThreadACP
  00086	3b f4		 cmp	 esi, esp
  00088	e8 00 00 00 00	 call	 __RTC_CheckEsp

; 152  : }

  0008d	52		 push	 edx
  0008e	8b cd		 mov	 ecx, ebp
  00090	50		 push	 eax
  00091	8d 15 00 00 00
	00		 lea	 edx, DWORD PTR $L191568
  00097	e8 00 00 00 00	 call	 @_RTC_CheckStackVars@8
  0009c	58		 pop	 eax
  0009d	5a		 pop	 edx
  0009e	8b 4d fc	 mov	 ecx, DWORD PTR __$ArrayPad$[ebp]
  000a1	e8 00 00 00 00	 call	 @__security_check_cookie@4
  000a6	5f		 pop	 edi
  000a7	5e		 pop	 esi
  000a8	81 c4 a4 00 00
	00		 add	 esp, 164		; 000000a4H
  000ae	3b ec		 cmp	 ebp, esp
  000b0	e8 00 00 00 00	 call	 __RTC_CheckEsp
  000b5	8b e5		 mov	 esp, ebp
  000b7	5d		 pop	 ebp
  000b8	c3		 ret	 0
$L191568:
  000b9	01 00 00 00	 DD	 1
  000bd	00 00 00 00	 DD	 $L191567
$L191567:
  000c1	64 ff ff ff	 DD	 -156			; ffffff64H
  000c5	94 00 00 00	 DD	 148			; 00000094H
  000c9	00 00 00 00	 DD	 $L191564
$L191564:
  000cd	76		 DB	 118			; 00000076H
  000ce	65		 DB	 101			; 00000065H
  000cf	72		 DB	 114			; 00000072H
  000d0	00		 DB	 0
?_AtlGetThreadACPThunk@ATL@@YGIXZ ENDP			; ATL::_AtlGetThreadACPThunk
_TEXT	ENDS
EXTRN	__imp__InterlockedExchange@8:NEAR
; Function compile flags: /Odt /RTCsu
;	COMDAT ?InterlockedExchangePointer@@YGPAXPAPAXPAX@Z
_TEXT	SEGMENT
_pp$ = 8						; size = 4
_pNew$ = 12						; size = 4
?InterlockedExchangePointer@@YGPAXPAPAXPAX@Z PROC NEAR	; InterlockedExchangePointer, COMDAT

; 91   : {

  00000	55		 push	 ebp
  00001	8b ec		 mov	 ebp, esp
  00003	56		 push	 esi

; 92   : 	return( reinterpret_cast<void*>(static_cast<LONG_PTR>(::InterlockedExchange(reinterpret_cast<LONG*>(pp), static_cast<LONG>(reinterpret_cast<LONG_PTR>(pNew))))) );

  00004	8b f4		 mov	 esi, esp
  00006	8b 45 0c	 mov	 eax, DWORD PTR _pNew$[ebp]
  00009	50		 push	 eax
  0000a	8b 4d 08	 mov	 ecx, DWORD PTR _pp$[ebp]
  0000d	51		 push	 ecx
  0000e	ff 15 00 00 00
	00		 call	 DWORD PTR __imp__InterlockedExchange@8
  00014	3b f4		 cmp	 esi, esp
  00016	e8 00 00 00 00	 call	 __RTC_CheckEsp

; 93   : }

  0001b	5e		 pop	 esi
  0001c	3b ec		 cmp	 ebp, esp
  0001e	e8 00 00 00 00	 call	 __RTC_CheckEsp
  00023	5d		 pop	 ebp
  00024	c2 08 00	 ret	 8
?InterlockedExchangePointer@@YGPAXPAPAXPAX@Z ENDP	; InterlockedExchangePointer
_TEXT	ENDS
EXTRN	__imp__GetACP@0:NEAR
EXTRN	__imp__GetLocaleInfoA@16:NEAR
EXTRN	__imp__GetThreadLocale@0:NEAR
; Function compile flags: /Odt /RTCsu
;	COMDAT ?_AtlGetThreadACPFake@ATL@@YGIXZ
_TEXT	SEGMENT
_pch$24151 = -32					; size = 4
_szACP$ = -24						; size = 7
_lcidThread$ = -12					; size = 4
_nACP$ = -8						; size = 4
__$ArrayPad$ = -4					; size = 4
__$ReturnAddr$ = 4					; size = 4
?_AtlGetThreadACPFake@ATL@@YGIXZ PROC NEAR		; ATL::_AtlGetThreadACPFake, COMDAT

; 101  : {

  00000	55		 push	 ebp
  00001	8b ec		 mov	 ebp, esp
  00003	83 ec 20	 sub	 esp, 32			; 00000020H
  00006	56		 push	 esi
  00007	b8 cc cc cc cc	 mov	 eax, -858993460		; ccccccccH
  0000c	89 45 e0	 mov	 DWORD PTR [ebp-32], eax
  0000f	89 45 e4	 mov	 DWORD PTR [ebp-28], eax
  00012	89 45 e8	 mov	 DWORD PTR [ebp-24], eax
  00015	89 45 ec	 mov	 DWORD PTR [ebp-20], eax
  00018	89 45 f0	 mov	 DWORD PTR [ebp-16], eax
  0001b	89 45 f4	 mov	 DWORD PTR [ebp-12], eax
  0001e	89 45 f8	 mov	 DWORD PTR [ebp-8], eax
  00021	89 45 fc	 mov	 DWORD PTR [ebp-4], eax
  00024	a1 00 00 00 00	 mov	 eax, DWORD PTR ___security_cookie
  00029	89 45 fc	 mov	 DWORD PTR __$ArrayPad$[ebp], eax

; 102  : 	UINT nACP = 0;

  0002c	c7 45 f8 00 00
	00 00		 mov	 DWORD PTR _nACP$[ebp], 0

; 103  : 
; 104  : 	LCID lcidThread = ::GetThreadLocale();

  00033	8b f4		 mov	 esi, esp
  00035	ff 15 00 00 00
	00		 call	 DWORD PTR __imp__GetThreadLocale@0
  0003b	3b f4		 cmp	 esi, esp
  0003d	e8 00 00 00 00	 call	 __RTC_CheckEsp
  00042	89 45 f4	 mov	 DWORD PTR _lcidThread$[ebp], eax

; 105  : 
; 106  : 	char szACP[7];
; 107  : 	// GetLocaleInfoA will fail for a Unicode-only LCID, but those are only supported on 
; 108  : 	// Windows 2000.  Since Windows 2000 supports CP_THREAD_ACP, this code path is never
; 109  : 	// executed on Windows 2000.
; 110  : 	if (::GetLocaleInfoA(lcidThread, LOCALE_IDEFAULTANSICODEPAGE, szACP, 7) != 0)

  00045	8b f4		 mov	 esi, esp
  00047	6a 07		 push	 7
  00049	8d 45 e8	 lea	 eax, DWORD PTR _szACP$[ebp]
  0004c	50		 push	 eax
  0004d	68 04 10 00 00	 push	 4100			; 00001004H
  00052	8b 4d f4	 mov	 ecx, DWORD PTR _lcidThread$[ebp]
  00055	51		 push	 ecx
  00056	ff 15 00 00 00
	00		 call	 DWORD PTR __imp__GetLocaleInfoA@16
  0005c	3b f4		 cmp	 esi, esp
  0005e	e8 00 00 00 00	 call	 __RTC_CheckEsp
  00063	85 c0		 test	 eax, eax
  00065	74 34		 je	 SHORT $L24150

; 111  : 	{
; 112  : 		char* pch = szACP;

  00067	8d 55 e8	 lea	 edx, DWORD PTR _szACP$[ebp]
  0006a	89 55 e0	 mov	 DWORD PTR _pch$24151[ebp], edx
$L24153:

; 113  : 		while (*pch != '\0')

  0006d	8b 45 e0	 mov	 eax, DWORD PTR _pch$24151[ebp]
  00070	0f be 08	 movsx	 ecx, BYTE PTR [eax]
  00073	85 c9		 test	 ecx, ecx
  00075	74 24		 je	 SHORT $L24150

; 114  : 		{
; 115  : 			nACP *= 10;

  00077	8b 55 f8	 mov	 edx, DWORD PTR _nACP$[ebp]
  0007a	6b d2 0a	 imul	 edx, 10			; 0000000aH
  0007d	89 55 f8	 mov	 DWORD PTR _nACP$[ebp], edx

; 116  : 			nACP += *pch++ - '0';

  00080	8b 45 e0	 mov	 eax, DWORD PTR _pch$24151[ebp]
  00083	0f be 08	 movsx	 ecx, BYTE PTR [eax]
  00086	8b 55 f8	 mov	 edx, DWORD PTR _nACP$[ebp]
  00089	8d 44 0a d0	 lea	 eax, DWORD PTR [edx+ecx-48]
  0008d	89 45 f8	 mov	 DWORD PTR _nACP$[ebp], eax
  00090	8b 4d e0	 mov	 ecx, DWORD PTR _pch$24151[ebp]
  00093	83 c1 01	 add	 ecx, 1
  00096	89 4d e0	 mov	 DWORD PTR _pch$24151[ebp], ecx

; 117  : 		}

  00099	eb d2		 jmp	 SHORT $L24153
$L24150:

; 118  : 	}
; 119  : 	// Use the Default ANSI Code Page if we were unable to get the thread ACP or if one does not exist.
; 120  : 	if (nACP == 0)

  0009b	83 7d f8 00	 cmp	 DWORD PTR _nACP$[ebp], 0
  0009f	75 12		 jne	 SHORT $L24155

; 121  : 		nACP = ::GetACP();

  000a1	8b f4		 mov	 esi, esp
  000a3	ff 15 00 00 00
	00		 call	 DWORD PTR __imp__GetACP@0
  000a9	3b f4		 cmp	 esi, esp
  000ab	e8 00 00 00 00	 call	 __RTC_CheckEsp
  000b0	89 45 f8	 mov	 DWORD PTR _nACP$[ebp], eax
$L24155:

; 122  : 
; 123  : 	return nACP;

  000b3	8b 45 f8	 mov	 eax, DWORD PTR _nACP$[ebp]

; 124  : }

  000b6	52		 push	 edx
  000b7	8b cd		 mov	 ecx, ebp
  000b9	50		 push	 eax
  000ba	8d 15 00 00 00
	00		 lea	 edx, DWORD PTR $L191579
  000c0	e8 00 00 00 00	 call	 @_RTC_CheckStackVars@8
  000c5	58		 pop	 eax
  000c6	5a		 pop	 edx
  000c7	8b 4d fc	 mov	 ecx, DWORD PTR __$ArrayPad$[ebp]
  000ca	e8 00 00 00 00	 call	 @__security_check_cookie@4
  000cf	5e		 pop	 esi
  000d0	83 c4 20	 add	 esp, 32			; 00000020H
  000d3	3b ec		 cmp	 ebp, esp
  000d5	e8 00 00 00 00	 call	 __RTC_CheckEsp
  000da	8b e5		 mov	 esp, ebp
  000dc	5d		 pop	 ebp
  000dd	c3		 ret	 0
$L191579:
  000de	01 00 00 00	 DD	 1
  000e2	00 00 00 00	 DD	 $L191578
$L191578:
  000e6	e8 ff ff ff	 DD	 -24			; ffffffe8H
  000ea	07 00 00 00	 DD	 7
  000ee	00 00 00 00	 DD	 $L191576
$L191576:
  000f2	73		 DB	 115			; 00000073H
  000f3	7a		 DB	 122			; 0000007aH
  000f4	41		 DB	 65			; 00000041H
  000f5	43		 DB	 67			; 00000043H
  000f6	50		 DB	 80			; 00000050H
  000f7	00		 DB	 0
?_AtlGetThreadACPFake@ATL@@YGIXZ ENDP			; ATL::_AtlGetThreadACPFake
; Function compile flags: /Odt /RTCsu
_TEXT	ENDS
;	COMDAT ?_AtlGetThreadACPReal@ATL@@YGIXZ
_TEXT	SEGMENT
?_AtlGetThreadACPReal@ATL@@YGIXZ PROC NEAR		; ATL::_AtlGetThreadACPReal, COMDAT

; 127  : {

  00000	55		 push	 ebp
  00001	8b ec		 mov	 ebp, esp

; 128  : 	return( CP_THREAD_ACP );

  00003	b8 03 00 00 00	 mov	 eax, 3

; 129  : }

  00008	5d		 pop	 ebp
  00009	c3		 ret	 0
?_AtlGetThreadACPReal@ATL@@YGIXZ ENDP			; ATL::_AtlGetThreadACPReal
_TEXT	ENDS
PUBLIC	??0CWebBrowser@@QAE@XZ				; CWebBrowser::CWebBrowser
EXTRN	__except_list:DWORD
EXTRN	___CxxFrameHandler:NEAR
EXTRN	??2CObject@@SGPAXI@Z:NEAR			; CObject::operator new
EXTRN	??3CObject@@SGXPAX@Z:NEAR			; CObject::operator delete
xdata$x	SEGMENT
$T191593 DD	0ffffffffH
	DD	FLAT:$L191586
$T191590 DD	019930520H
	DD	01H
	DD	FLAT:$T191593
	DD	2 DUP(00H)
	DD	2 DUP(00H)
; Function compile flags: /Odt /RTCsu
; File d:\boxgit\playbox\playbox\dev\prj\playbox\src\gui\commoncontrol\ie_explorer.cpp
xdata$x	ENDS
_TEXT	SEGMENT
tv71 = -24						; size = 4
$T191583 = -20						; size = 4
$T191582 = -16						; size = 4
__$EHRec$ = -12						; size = 12
?CreateObject@CWebBrowser@@SGPAVCObject@@XZ PROC NEAR	; CWebBrowser::CreateObject

; 15   : IMPLEMENT_DYNCREATE(CWebBrowser, CWnd)

  00000	55		 push	 ebp
  00001	8b ec		 mov	 ebp, esp
  00003	6a ff		 push	 -1
  00005	68 00 00 00 00	 push	 __ehhandler$?CreateObject@CWebBrowser@@SGPAVCObject@@XZ
  0000a	64 a1 00 00 00
	00		 mov	 eax, DWORD PTR fs:__except_list
  00010	50		 push	 eax
  00011	64 89 25 00 00
	00 00		 mov	 DWORD PTR fs:__except_list, esp
  00018	83 ec 0c	 sub	 esp, 12			; 0000000cH
  0001b	c7 45 e8 cc cc
	cc cc		 mov	 DWORD PTR [ebp-24], -858993460 ; ccccccccH
  00022	c7 45 ec cc cc
	cc cc		 mov	 DWORD PTR [ebp-20], -858993460 ; ccccccccH
  00029	c7 45 f0 cc cc
	cc cc		 mov	 DWORD PTR [ebp-16], -858993460 ; ccccccccH
  00030	6a 74		 push	 116			; 00000074H
  00032	e8 00 00 00 00	 call	 ??2CObject@@SGPAXI@Z	; CObject::operator new
  00037	89 45 ec	 mov	 DWORD PTR $T191583[ebp], eax
  0003a	c7 45 fc 00 00
	00 00		 mov	 DWORD PTR __$EHRec$[ebp+8], 0
  00041	83 7d ec 00	 cmp	 DWORD PTR $T191583[ebp], 0
  00045	74 0d		 je	 SHORT $L191584
  00047	8b 4d ec	 mov	 ecx, DWORD PTR $T191583[ebp]
  0004a	e8 00 00 00 00	 call	 ??0CWebBrowser@@QAE@XZ
  0004f	89 45 e8	 mov	 DWORD PTR tv71[ebp], eax
  00052	eb 07		 jmp	 SHORT $L191585
$L191584:
  00054	c7 45 e8 00 00
	00 00		 mov	 DWORD PTR tv71[ebp], 0
$L191585:
  0005b	8b 45 e8	 mov	 eax, DWORD PTR tv71[ebp]
  0005e	89 45 f0	 mov	 DWORD PTR $T191582[ebp], eax
  00061	c7 45 fc ff ff
	ff ff		 mov	 DWORD PTR __$EHRec$[ebp+8], -1
  00068	8b 45 f0	 mov	 eax, DWORD PTR $T191582[ebp]
  0006b	8b 4d f4	 mov	 ecx, DWORD PTR __$EHRec$[ebp]
  0006e	64 89 0d 00 00
	00 00		 mov	 DWORD PTR fs:__except_list, ecx
  00075	83 c4 18	 add	 esp, 24			; 00000018H
  00078	3b ec		 cmp	 ebp, esp
  0007a	e8 00 00 00 00	 call	 __RTC_CheckEsp
  0007f	8b e5		 mov	 esp, ebp
  00081	5d		 pop	 ebp
  00082	c3		 ret	 0
_TEXT	ENDS
text$x	SEGMENT
$L191586:
  00000	8b 45 ec	 mov	 eax, DWORD PTR $T191583[ebp]
  00003	50		 push	 eax
  00004	e8 00 00 00 00	 call	 ??3CObject@@SGXPAX@Z	; CObject::operator delete
  00009	c3		 ret	 0
__ehhandler$?CreateObject@CWebBrowser@@SGPAVCObject@@XZ:
  0000a	b8 00 00 00 00	 mov	 eax, OFFSET FLAT:$T191590
  0000f	e9 00 00 00 00	 jmp	 ___CxxFrameHandler
text$x	ENDS
?CreateObject@CWebBrowser@@SGPAVCObject@@XZ ENDP	; CWebBrowser::CreateObject
PUBLIC	??_R1A@?0A@A@CWnd@@8				; CWnd::`RTTI Base Class Descriptor at (0,-1,0,0)'
PUBLIC	??_R0?AVCWnd@@@8				; CWnd `RTTI Type Descriptor'
PUBLIC	??_R1A@?0A@A@CCmdTarget@@8			; CCmdTarget::`RTTI Base Class Descriptor at (0,-1,0,0)'
PUBLIC	??_R0?AVCCmdTarget@@@8				; CCmdTarget `RTTI Type Descriptor'
PUBLIC	??_R1A@?0A@A@CObject@@8				; CObject::`RTTI Base Class Descriptor at (0,-1,0,0)'
PUBLIC	??_R0?AVCObject@@@8				; CObject `RTTI Type Descriptor'
PUBLIC	??_R4CWebBrowser@@6B@				; CWebBrowser::`RTTI Complete Object Locator'
PUBLIC	??_R0?AVCWebBrowser@@@8				; CWebBrowser `RTTI Type Descriptor'
PUBLIC	??_R3CWebBrowser@@8				; CWebBrowser::`RTTI Class Hierarchy Descriptor'
PUBLIC	??_R2CWebBrowser@@8				; CWebBrowser::`RTTI Base Class Array'
PUBLIC	??_R1A@?0A@A@CWebBrowser@@8			; CWebBrowser::`RTTI Base Class Descriptor at (0,-1,0,0)'
PUBLIC	?GetRuntimeClass@CWebBrowser@@UBEPAUCRuntimeClass@@XZ ; CWebBrowser::GetRuntimeClass
PUBLIC	?GetEventSinkMap@CWebBrowser@@MBEPBUAFX_EVENTSINKMAP@@XZ ; CWebBrowser::GetEventSinkMap
PUBLIC	?Create@CWebBrowser@@UAEHPBD0KABUtagRECT@@PAVCWnd@@IPAUCCreateContext@@@Z ; CWebBrowser::Create
PUBLIC	??_7CWebBrowser@@6B@				; CWebBrowser::`vftable'
PUBLIC	??_GCWebBrowser@@UAEPAXI@Z			; CWebBrowser::`scalar deleting destructor'
EXTRN	?GetInterfaceMap@CWnd@@MBEPBUAFX_INTERFACEMAP@@XZ:NEAR ; CWnd::GetInterfaceMap
EXTRN	?EnsureStdObj@CWnd@@UAEJXZ:NEAR			; CWnd::EnsureStdObj
EXTRN	?get_accParent@CWnd@@UAEJPAPAUIDispatch@@@Z:NEAR ; CWnd::get_accParent
EXTRN	?OnCmdMsg@CCmdTarget@@UAEHIHPAXPAUAFX_CMDHANDLERINFO@@@Z:NEAR ; CCmdTarget::OnCmdMsg
EXTRN	?get_accChildCount@CWnd@@UAEJPAJ@Z:NEAR		; CWnd::get_accChildCount
EXTRN	?IsInvokeAllowed@CCmdTarget@@UAEHJ@Z:NEAR	; CCmdTarget::IsInvokeAllowed
EXTRN	?get_accChild@CWnd@@UAEJUtagVARIANT@@PAPAUIDispatch@@@Z:NEAR ; CWnd::get_accChild
EXTRN	?get_accName@CWnd@@UAEJUtagVARIANT@@PAPA_W@Z:NEAR ; CWnd::get_accName
EXTRN	?get_accValue@CWnd@@UAEJUtagVARIANT@@PAPA_W@Z:NEAR ; CWnd::get_accValue
EXTRN	?GetDispatchIID@CCmdTarget@@UAEHPAU_GUID@@@Z:NEAR ; CCmdTarget::GetDispatchIID
EXTRN	?GetTypeInfoCount@CCmdTarget@@UAEIXZ:NEAR	; CCmdTarget::GetTypeInfoCount
EXTRN	?GetTypeLibCache@CCmdTarget@@UAEPAVCTypeLibCache@@XZ:NEAR ; CCmdTarget::GetTypeLibCache
EXTRN	?get_accDescription@CWnd@@UAEJUtagVARIANT@@PAPA_W@Z:NEAR ; CWnd::get_accDescription
EXTRN	?GetTypeLib@CCmdTarget@@UAEJKPAPAUITypeLib@@@Z:NEAR ; CCmdTarget::GetTypeLib
EXTRN	?get_accRole@CWnd@@UAEJUtagVARIANT@@PAU2@@Z:NEAR ; CWnd::get_accRole
EXTRN	?get_accState@CWnd@@UAEJUtagVARIANT@@PAU2@@Z:NEAR ; CWnd::get_accState
EXTRN	?get_accHelp@CWnd@@UAEJUtagVARIANT@@PAPA_W@Z:NEAR ; CWnd::get_accHelp
EXTRN	?get_accHelpTopic@CWnd@@UAEJPAPA_WUtagVARIANT@@PAJ@Z:NEAR ; CWnd::get_accHelpTopic
EXTRN	?get_accKeyboardShortcut@CWnd@@UAEJUtagVARIANT@@PAPA_W@Z:NEAR ; CWnd::get_accKeyboardShortcut
EXTRN	?get_accFocus@CWnd@@UAEJPAUtagVARIANT@@@Z:NEAR	; CWnd::get_accFocus
EXTRN	?get_accSelection@CWnd@@UAEJPAUtagVARIANT@@@Z:NEAR ; CWnd::get_accSelection
EXTRN	?get_accDefaultAction@CWnd@@UAEJUtagVARIANT@@PAPA_W@Z:NEAR ; CWnd::get_accDefaultAction
EXTRN	?GetCommandMap@CCmdTarget@@MBEPBUAFX_OLECMDMAP@@XZ:NEAR ; CCmdTarget::GetCommandMap
EXTRN	?accSelect@CWnd@@UAEJJUtagVARIANT@@@Z:NEAR	; CWnd::accSelect
EXTRN	?accLocation@CWnd@@UAEJPAJ000UtagVARIANT@@@Z:NEAR ; CWnd::accLocation
EXTRN	?GetDispatchMap@CCmdTarget@@MBEPBUAFX_DISPMAP@@XZ:NEAR ; CCmdTarget::GetDispatchMap
EXTRN	?accNavigate@CWnd@@UAEJJUtagVARIANT@@PAU2@@Z:NEAR ; CWnd::accNavigate
EXTRN	?accHitTest@CWnd@@UAEJJJPAUtagVARIANT@@@Z:NEAR	; CWnd::accHitTest
EXTRN	?GetConnectionMap@CCmdTarget@@MBEPBUAFX_CONNECTIONMAP@@XZ:NEAR ; CCmdTarget::GetConnectionMap
EXTRN	?accDoDefaultAction@CWnd@@UAEJUtagVARIANT@@@Z:NEAR ; CWnd::accDoDefaultAction
EXTRN	?put_accName@CWnd@@UAEJUtagVARIANT@@PA_W@Z:NEAR	; CWnd::put_accName
EXTRN	?put_accValue@CWnd@@UAEJUtagVARIANT@@PA_W@Z:NEAR ; CWnd::put_accValue
EXTRN	?SetProxy@CWnd@@UAEJPAUIAccessibleProxy@@@Z:NEAR ; CWnd::SetProxy
EXTRN	?CreateAccessibleProxy@CWnd@@UAEJIJPAJ@Z:NEAR	; CWnd::CreateAccessibleProxy
EXTRN	?OnCreateAggregates@CCmdTarget@@UAEHXZ:NEAR	; CCmdTarget::OnCreateAggregates
EXTRN	?OnCommand@CWnd@@MAEHIJ@Z:NEAR			; CWnd::OnCommand
EXTRN	?GetInterfaceHook@CCmdTarget@@UAEPAUIUnknown@@PBX@Z:NEAR ; CCmdTarget::GetInterfaceHook
EXTRN	?OnNotify@CWnd@@MAEHIJPAJ@Z:NEAR		; CWnd::OnNotify
EXTRN	?GetExtraConnectionPoints@CCmdTarget@@MAEHPAVCPtrArray@@@Z:NEAR ; CCmdTarget::GetExtraConnectionPoints
EXTRN	?GetConnectionHook@CCmdTarget@@MAEPAUIConnectionPoint@@ABU_GUID@@@Z:NEAR ; CCmdTarget::GetConnectionHook
EXTRN	??0CWnd@@QAE@XZ:NEAR				; CWnd::CWnd
EXTRN	?PreSubclassWindow@CWnd@@UAEXXZ:NEAR		; CWnd::PreSubclassWindow
EXTRN	?CreateEx@CWnd@@UAEHKPBD0KHHHHPAUHWND__@@PAUHMENU__@@PAX@Z:NEAR ; CWnd::CreateEx
EXTRN	?CreateEx@CWnd@@UAEHKPBD0KABUtagRECT@@PAV1@IPAX@Z:NEAR ; CWnd::CreateEx
EXTRN	?Serialize@CObject@@UAEXAAVCArchive@@@Z:NEAR	; CObject::Serialize
EXTRN	?DestroyWindow@CWnd@@UAEHXZ:NEAR		; CWnd::DestroyWindow
EXTRN	?PreCreateWindow@CWnd@@UAEHAAUtagCREATESTRUCTA@@@Z:NEAR ; CWnd::PreCreateWindow
EXTRN	?CalcWindowRect@CWnd@@UAEXPAUtagRECT@@I@Z:NEAR	; CWnd::CalcWindowRect
EXTRN	?GetSuperWndProcAddr@CWnd@@MAEPAP6GJPAUHWND__@@IIJ@ZXZ:NEAR ; CWnd::GetSuperWndProcAddr
EXTRN	?DoDataExchange@CWnd@@MAEXPAVCDataExchange@@@Z:NEAR ; CWnd::DoDataExchange
EXTRN	?BeginModalState@CWnd@@UAEXXZ:NEAR		; CWnd::BeginModalState
EXTRN	?EndModalState@CWnd@@UAEXXZ:NEAR		; CWnd::EndModalState
EXTRN	?PreTranslateMessage@CWnd@@UAEHPAUtagMSG@@@Z:NEAR ; CWnd::PreTranslateMessage
EXTRN	?OnAmbientProperty@CWnd@@UAEHPAVCOleControlSite@@JPAUtagVARIANT@@@Z:NEAR ; CWnd::OnAmbientProperty
EXTRN	?WindowProc@CWnd@@MAEJIIJ@Z:NEAR		; CWnd::WindowProc
EXTRN	?OnWndMsg@CWnd@@MAEHIIJPAJ@Z:NEAR		; CWnd::OnWndMsg
EXTRN	?DefWindowProcA@CWnd@@MAEJIIJ@Z:NEAR		; CWnd::DefWindowProcA
EXTRN	?PostNcDestroy@CWnd@@MAEXXZ:NEAR		; CWnd::PostNcDestroy
EXTRN	?OnChildNotify@CWnd@@MAEHIIJPAJ@Z:NEAR		; CWnd::OnChildNotify
EXTRN	?CheckAutoCenter@CWnd@@UAEHXZ:NEAR		; CWnd::CheckAutoCenter
EXTRN	?AssertValid@CWnd@@UBEXXZ:NEAR			; CWnd::AssertValid
EXTRN	?Dump@CWnd@@UBEXAAVCDumpContext@@@Z:NEAR	; CWnd::Dump
EXTRN	?IsFrameWnd@CWnd@@UBEHXZ:NEAR			; CWnd::IsFrameWnd
EXTRN	?OnFinalRelease@CWnd@@UAEXXZ:NEAR		; CWnd::OnFinalRelease
EXTRN	?CreateControlContainer@CWnd@@MAEHPAPAVCOleControlContainer@@@Z:NEAR ; CWnd::CreateControlContainer
EXTRN	?CreateControlSite@CWnd@@MAEHPAVCOleControlContainer@@PAPAVCOleControlSite@@IABU_GUID@@@Z:NEAR ; CWnd::CreateControlSite
EXTRN	?SetOccDialogInfo@CWnd@@MAEHPAU_AFX_OCC_DIALOG_INFO@@@Z:NEAR ; CWnd::SetOccDialogInfo
EXTRN	?GetMessageMap@CWnd@@MBEPBUAFX_MSGMAP@@XZ:NEAR	; CWnd::GetMessageMap
EXTRN	?OnToolHitTest@CWnd@@UBEHVCPoint@@PAUtagTOOLINFOA@@@Z:NEAR ; CWnd::OnToolHitTest
EXTRN	?GetScrollBarCtrl@CWnd@@UBEPAVCScrollBar@@H@Z:NEAR ; CWnd::GetScrollBarCtrl
EXTRN	??_ECWebBrowser@@UAEPAXI@Z:NEAR			; CWebBrowser::`vector deleting destructor'
EXTRN	?WinHelpA@CWnd@@UAEXKI@Z:NEAR			; CWnd::WinHelpA
EXTRN	?HtmlHelpA@CWnd@@UAEXKI@Z:NEAR			; CWnd::HtmlHelpA
EXTRN	??_7type_info@@6B@:QWORD			; type_info::`vftable'
EXTRN	?WinHelpInternal@CWnd@@UAEXKI@Z:NEAR		; CWnd::WinHelpInternal
EXTRN	?ContinueModal@CWnd@@UAEHXZ:NEAR		; CWnd::ContinueModal
EXTRN	?EndModalLoop@CWnd@@UAEXH@Z:NEAR		; CWnd::EndModalLoop
;	COMDAT ??_7CWebBrowser@@6B@
CONST	SEGMENT
??_7CWebBrowser@@6B@ DD FLAT:??_R4CWebBrowser@@6B@	; CWebBrowser::`vftable'
	DD	FLAT:?GetRuntimeClass@CWebBrowser@@UBEPAUCRuntimeClass@@XZ
	DD	FLAT:??_ECWebBrowser@@UAEPAXI@Z
	DD	FLAT:?Serialize@CObject@@UAEXAAVCArchive@@@Z
	DD	FLAT:?AssertValid@CWnd@@UBEXXZ
	DD	FLAT:?Dump@CWnd@@UBEXAAVCDumpContext@@@Z
	DD	FLAT:?OnCmdMsg@CCmdTarget@@UAEHIHPAXPAUAFX_CMDHANDLERINFO@@@Z
	DD	FLAT:?OnFinalRelease@CWnd@@UAEXXZ
	DD	FLAT:?IsInvokeAllowed@CCmdTarget@@UAEHJ@Z
	DD	FLAT:?GetDispatchIID@CCmdTarget@@UAEHPAU_GUID@@@Z
	DD	FLAT:?GetTypeInfoCount@CCmdTarget@@UAEIXZ
	DD	FLAT:?GetTypeLibCache@CCmdTarget@@UAEPAVCTypeLibCache@@XZ
	DD	FLAT:?GetTypeLib@CCmdTarget@@UAEJKPAPAUITypeLib@@@Z
	DD	FLAT:?GetMessageMap@CWnd@@MBEPBUAFX_MSGMAP@@XZ
	DD	FLAT:?GetCommandMap@CCmdTarget@@MBEPBUAFX_OLECMDMAP@@XZ
	DD	FLAT:?GetDispatchMap@CCmdTarget@@MBEPBUAFX_DISPMAP@@XZ
	DD	FLAT:?GetConnectionMap@CCmdTarget@@MBEPBUAFX_CONNECTIONMAP@@XZ
	DD	FLAT:?GetInterfaceMap@CWnd@@MBEPBUAFX_INTERFACEMAP@@XZ
	DD	FLAT:?GetEventSinkMap@CWebBrowser@@MBEPBUAFX_EVENTSINKMAP@@XZ
	DD	FLAT:?OnCreateAggregates@CCmdTarget@@UAEHXZ
	DD	FLAT:?GetInterfaceHook@CCmdTarget@@UAEPAUIUnknown@@PBX@Z
	DD	FLAT:?GetExtraConnectionPoints@CCmdTarget@@MAEHPAVCPtrArray@@@Z
	DD	FLAT:?GetConnectionHook@CCmdTarget@@MAEPAUIConnectionPoint@@ABU_GUID@@@Z
	DD	FLAT:?PreSubclassWindow@CWnd@@UAEXXZ
	DD	FLAT:?Create@CWebBrowser@@UAEHPBD0KABUtagRECT@@PAVCWnd@@IPAUCCreateContext@@@Z
	DD	FLAT:?CreateEx@CWnd@@UAEHKPBD0KABUtagRECT@@PAV1@IPAX@Z
	DD	FLAT:?CreateEx@CWnd@@UAEHKPBD0KHHHHPAUHWND__@@PAUHMENU__@@PAX@Z
	DD	FLAT:?DestroyWindow@CWnd@@UAEHXZ
	DD	FLAT:?PreCreateWindow@CWnd@@UAEHAAUtagCREATESTRUCTA@@@Z
	DD	FLAT:?CalcWindowRect@CWnd@@UAEXPAUtagRECT@@I@Z
	DD	FLAT:?OnToolHitTest@CWnd@@UBEHVCPoint@@PAUtagTOOLINFOA@@@Z
	DD	FLAT:?GetScrollBarCtrl@CWnd@@UBEPAVCScrollBar@@H@Z
	DD	FLAT:?WinHelpA@CWnd@@UAEXKI@Z
	DD	FLAT:?HtmlHelpA@CWnd@@UAEXKI@Z
	DD	FLAT:?WinHelpInternal@CWnd@@UAEXKI@Z
	DD	FLAT:?ContinueModal@CWnd@@UAEHXZ
	DD	FLAT:?EndModalLoop@CWnd@@UAEXH@Z
	DD	FLAT:?EnsureStdObj@CWnd@@UAEJXZ
	DD	FLAT:?get_accParent@CWnd@@UAEJPAPAUIDispatch@@@Z
	DD	FLAT:?get_accChildCount@CWnd@@UAEJPAJ@Z
	DD	FLAT:?get_accChild@CWnd@@UAEJUtagVARIANT@@PAPAUIDispatch@@@Z
	DD	FLAT:?get_accName@CWnd@@UAEJUtagVARIANT@@PAPA_W@Z
	DD	FLAT:?get_accValue@CWnd@@UAEJUtagVARIANT@@PAPA_W@Z
	DD	FLAT:?get_accDescription@CWnd@@UAEJUtagVARIANT@@PAPA_W@Z
	DD	FLAT:?get_accRole@CWnd@@UAEJUtagVARIANT@@PAU2@@Z
	DD	FLAT:?get_accState@CWnd@@UAEJUtagVARIANT@@PAU2@@Z
	DD	FLAT:?get_accHelp@CWnd@@UAEJUtagVARIANT@@PAPA_W@Z
	DD	FLAT:?get_accHelpTopic@CWnd@@UAEJPAPA_WUtagVARIANT@@PAJ@Z
	DD	FLAT:?get_accKeyboardShortcut@CWnd@@UAEJUtagVARIANT@@PAPA_W@Z
	DD	FLAT:?get_accFocus@CWnd@@UAEJPAUtagVARIANT@@@Z
	DD	FLAT:?get_accSelection@CWnd@@UAEJPAUtagVARIANT@@@Z
	DD	FLAT:?get_accDefaultAction@CWnd@@UAEJUtagVARIANT@@PAPA_W@Z
	DD	FLAT:?accSelect@CWnd@@UAEJJUtagVARIANT@@@Z
	DD	FLAT:?accLocation@CWnd@@UAEJPAJ000UtagVARIANT@@@Z
	DD	FLAT:?accNavigate@CWnd@@UAEJJUtagVARIANT@@PAU2@@Z
	DD	FLAT:?accHitTest@CWnd@@UAEJJJPAUtagVARIANT@@@Z
	DD	FLAT:?accDoDefaultAction@CWnd@@UAEJUtagVARIANT@@@Z
	DD	FLAT:?put_accName@CWnd@@UAEJUtagVARIANT@@PA_W@Z
	DD	FLAT:?put_accValue@CWnd@@UAEJUtagVARIANT@@PA_W@Z
	DD	FLAT:?SetProxy@CWnd@@UAEJPAUIAccessibleProxy@@@Z
	DD	FLAT:?CreateAccessibleProxy@CWnd@@UAEJIJPAJ@Z
	DD	FLAT:?OnCommand@CWnd@@MAEHIJ@Z
	DD	FLAT:?OnNotify@CWnd@@MAEHIJPAJ@Z
	DD	FLAT:?GetSuperWndProcAddr@CWnd@@MAEPAP6GJPAUHWND__@@IIJ@ZXZ
	DD	FLAT:?DoDataExchange@CWnd@@MAEXPAVCDataExchange@@@Z
	DD	FLAT:?BeginModalState@CWnd@@UAEXXZ
	DD	FLAT:?EndModalState@CWnd@@UAEXXZ
	DD	FLAT:?PreTranslateMessage@CWnd@@UAEHPAUtagMSG@@@Z
	DD	FLAT:?OnAmbientProperty@CWnd@@UAEHPAVCOleControlSite@@JPAUtagVARIANT@@@Z
	DD	FLAT:?WindowProc@CWnd@@MAEJIIJ@Z
	DD	FLAT:?OnWndMsg@CWnd@@MAEHIIJPAJ@Z
	DD	FLAT:?DefWindowProcA@CWnd@@MAEJIIJ@Z
	DD	FLAT:?PostNcDestroy@CWnd@@MAEXXZ
	DD	FLAT:?OnChildNotify@CWnd@@MAEHIIJPAJ@Z
	DD	FLAT:?CheckAutoCenter@CWnd@@UAEHXZ
	DD	FLAT:?IsFrameWnd@CWnd@@UBEHXZ
	DD	FLAT:?CreateControlContainer@CWnd@@MAEHPAPAVCOleControlContainer@@@Z
	DD	FLAT:?CreateControlSite@CWnd@@MAEHPAVCOleControlContainer@@PAPAVCOleControlSite@@IABU_GUID@@@Z
	DD	FLAT:?SetOccDialogInfo@CWnd@@MAEHPAU_AFX_OCC_DIALOG_INFO@@@Z
CONST	ENDS
;	COMDAT ??_R4CWebBrowser@@6B@
rdata$r	SEGMENT
??_R4CWebBrowser@@6B@ DD 00H				; CWebBrowser::`RTTI Complete Object Locator'
	DD	00H
	DD	00H
	DD	FLAT:??_R0?AVCWebBrowser@@@8
	DD	FLAT:??_R3CWebBrowser@@8
rdata$r	ENDS
;	COMDAT ??_R0?AVCWebBrowser@@@8
_DATA	SEGMENT
??_R0?AVCWebBrowser@@@8 DD FLAT:??_7type_info@@6B@	; CWebBrowser `RTTI Type Descriptor'
	DD	00H
	DB	'.?AVCWebBrowser@@', 00H
_DATA	ENDS
;	COMDAT ??_R3CWebBrowser@@8
rdata$r	SEGMENT
??_R3CWebBrowser@@8 DD 00H				; CWebBrowser::`RTTI Class Hierarchy Descriptor'
	DD	00H
	DD	04H
	DD	FLAT:??_R2CWebBrowser@@8
rdata$r	ENDS
;	COMDAT ??_R2CWebBrowser@@8
rdata$r	SEGMENT
??_R2CWebBrowser@@8 DD FLAT:??_R1A@?0A@A@CWebBrowser@@8	; CWebBrowser::`RTTI Base Class Array'
	DD	FLAT:??_R1A@?0A@A@CWnd@@8
	DD	FLAT:??_R1A@?0A@A@CCmdTarget@@8
	DD	FLAT:??_R1A@?0A@A@CObject@@8
rdata$r	ENDS
;	COMDAT ??_R1A@?0A@A@CWebBrowser@@8
rdata$r	SEGMENT
??_R1A@?0A@A@CWebBrowser@@8 DD FLAT:??_R0?AVCWebBrowser@@@8 ; CWebBrowser::`RTTI Base Class Descriptor at (0,-1,0,0)'
	DD	03H
	DD	00H
	DD	0ffffffffH
	DD	00H
	DD	00H
rdata$r	ENDS
;	COMDAT ??_R1A@?0A@A@CWnd@@8
rdata$r	SEGMENT
??_R1A@?0A@A@CWnd@@8 DD FLAT:??_R0?AVCWnd@@@8		; CWnd::`RTTI Base Class Descriptor at (0,-1,0,0)'
	DD	02H
	DD	00H
	DD	0ffffffffH
	DD	00H
	DD	00H
rdata$r	ENDS
;	COMDAT ??_R0?AVCWnd@@@8
_DATA	SEGMENT
??_R0?AVCWnd@@@8 DD FLAT:??_7type_info@@6B@		; CWnd `RTTI Type Descriptor'
	DD	00H
	DB	'.?AVCWnd@@', 00H
_DATA	ENDS
;	COMDAT ??_R1A@?0A@A@CCmdTarget@@8
rdata$r	SEGMENT
??_R1A@?0A@A@CCmdTarget@@8 DD FLAT:??_R0?AVCCmdTarget@@@8 ; CCmdTarget::`RTTI Base Class Descriptor at (0,-1,0,0)'
	DD	01H
	DD	00H
	DD	0ffffffffH
	DD	00H
	DD	00H
rdata$r	ENDS
;	COMDAT ??_R0?AVCCmdTarget@@@8
_DATA	SEGMENT
??_R0?AVCCmdTarget@@@8 DD FLAT:??_7type_info@@6B@	; CCmdTarget `RTTI Type Descriptor'
	DD	00H
	DB	'.?AVCCmdTarget@@', 00H
_DATA	ENDS
;	COMDAT ??_R1A@?0A@A@CObject@@8
rdata$r	SEGMENT
??_R1A@?0A@A@CObject@@8 DD FLAT:??_R0?AVCObject@@@8	; CObject::`RTTI Base Class Descriptor at (0,-1,0,0)'
	DD	00H
	DD	00H
	DD	0ffffffffH
	DD	00H
	DD	00H
rdata$r	ENDS
;	COMDAT ??_R0?AVCObject@@@8
_DATA	SEGMENT
??_R0?AVCObject@@@8 DD FLAT:??_7type_info@@6B@		; CObject `RTTI Type Descriptor'
	DD	00H
	DB	'.?AVCObject@@', 00H
; Function compile flags: /Odt /RTCsu
_DATA	ENDS
;	COMDAT ??0CWebBrowser@@QAE@XZ
_TEXT	SEGMENT
_this$ = -4						; size = 4
??0CWebBrowser@@QAE@XZ PROC NEAR			; CWebBrowser::CWebBrowser, COMDAT
; _this$ = ecx
  00000	55		 push	 ebp
  00001	8b ec		 mov	 ebp, esp
  00003	51		 push	 ecx
  00004	c7 45 fc cc cc
	cc cc		 mov	 DWORD PTR [ebp-4], -858993460 ; ccccccccH
  0000b	89 4d fc	 mov	 DWORD PTR _this$[ebp], ecx
  0000e	8b 4d fc	 mov	 ecx, DWORD PTR _this$[ebp]
  00011	e8 00 00 00 00	 call	 ??0CWnd@@QAE@XZ		; CWnd::CWnd
  00016	8b 45 fc	 mov	 eax, DWORD PTR _this$[ebp]
  00019	c7 00 00 00 00
	00		 mov	 DWORD PTR [eax], OFFSET FLAT:??_7CWebBrowser@@6B@
  0001f	8b 45 fc	 mov	 eax, DWORD PTR _this$[ebp]
  00022	83 c4 04	 add	 esp, 4
  00025	3b ec		 cmp	 ebp, esp
  00027	e8 00 00 00 00	 call	 __RTC_CheckEsp
  0002c	8b e5		 mov	 esp, ebp
  0002e	5d		 pop	 ebp
  0002f	c3		 ret	 0
??0CWebBrowser@@QAE@XZ ENDP				; CWebBrowser::CWebBrowser
_TEXT	ENDS
PUBLIC	?GetClsid@CWebBrowser@@QAEABU_GUID@@XZ		; CWebBrowser::GetClsid
EXTRN	?CreateControl@CWnd@@QAEHABU_GUID@@PBDKABUtagRECT@@PAV1@IPAVCFile@@HPA_W@Z:NEAR ; CWnd::CreateControl
; Function compile flags: /Odt /RTCsu
; File d:\boxgit\playbox\playbox\dev\prj\playbox\src\gui\commoncontrol\ie_explorer.h
;	COMDAT ?Create@CWebBrowser@@UAEHPBD0KABUtagRECT@@PAVCWnd@@IPAUCCreateContext@@@Z
_TEXT	SEGMENT
_this$ = -4						; size = 4
_lpszClassName$ = 8					; size = 4
_lpszWindowName$ = 12					; size = 4
_dwStyle$ = 16						; size = 4
_rect$ = 20						; size = 4
_pParentWnd$ = 24					; size = 4
_nID$ = 28						; size = 4
_pContext$ = 32						; size = 4
?Create@CWebBrowser@@UAEHPBD0KABUtagRECT@@PAVCWnd@@IPAUCCreateContext@@@Z PROC NEAR ; CWebBrowser::Create, COMDAT
; _this$ = ecx

; 29   : 	{ 

  00000	55		 push	 ebp
  00001	8b ec		 mov	 ebp, esp
  00003	51		 push	 ecx
  00004	c7 45 fc cc cc
	cc cc		 mov	 DWORD PTR [ebp-4], -858993460 ; ccccccccH
  0000b	89 4d fc	 mov	 DWORD PTR _this$[ebp], ecx

; 30   : 		return CreateControl(GetClsid(), lpszWindowName, dwStyle, rect, pParentWnd, nID); 

  0000e	6a 00		 push	 0
  00010	6a 00		 push	 0
  00012	6a 00		 push	 0
  00014	8b 45 1c	 mov	 eax, DWORD PTR _nID$[ebp]
  00017	50		 push	 eax
  00018	8b 4d 18	 mov	 ecx, DWORD PTR _pParentWnd$[ebp]
  0001b	51		 push	 ecx
  0001c	8b 55 14	 mov	 edx, DWORD PTR _rect$[ebp]
  0001f	52		 push	 edx
  00020	8b 45 10	 mov	 eax, DWORD PTR _dwStyle$[ebp]
  00023	50		 push	 eax
  00024	8b 4d 0c	 mov	 ecx, DWORD PTR _lpszWindowName$[ebp]
  00027	51		 push	 ecx
  00028	8b 4d fc	 mov	 ecx, DWORD PTR _this$[ebp]
  0002b	e8 00 00 00 00	 call	 ?GetClsid@CWebBrowser@@QAEABU_GUID@@XZ ; CWebBrowser::GetClsid
  00030	50		 push	 eax
  00031	8b 4d fc	 mov	 ecx, DWORD PTR _this$[ebp]
  00034	e8 00 00 00 00	 call	 ?CreateControl@CWnd@@QAEHABU_GUID@@PBDKABUtagRECT@@PAV1@IPAVCFile@@HPA_W@Z ; CWnd::CreateControl

; 31   : 	}

  00039	83 c4 04	 add	 esp, 4
  0003c	3b ec		 cmp	 ebp, esp
  0003e	e8 00 00 00 00	 call	 __RTC_CheckEsp
  00043	8b e5		 mov	 esp, ebp
  00045	5d		 pop	 ebp
  00046	c2 1c 00	 ret	 28			; 0000001cH
?Create@CWebBrowser@@UAEHPBD0KABUtagRECT@@PAVCWnd@@IPAUCCreateContext@@@Z ENDP ; CWebBrowser::Create
_TEXT	ENDS
PUBLIC	?clsid@?1??GetClsid@CWebBrowser@@QAEABU_GUID@@XZ@4U3@B ; `CWebBrowser::GetClsid'::`2'::clsid
;	COMDAT ?clsid@?1??GetClsid@CWebBrowser@@QAEABU_GUID@@XZ@4U3@B
CONST	SEGMENT
?clsid@?1??GetClsid@CWebBrowser@@QAEABU_GUID@@XZ@4U3@B DD 08856f961H ; `CWebBrowser::GetClsid'::`2'::clsid
	DW	0340aH
	DW	011d0H
	DB	0a9H
	DB	06bH
	DB	00H
	DB	0c0H
	DB	04fH
	DB	0d7H
	DB	05H
	DB	0a2H
; Function compile flags: /Odt /RTCsu
CONST	ENDS
;	COMDAT ?GetClsid@CWebBrowser@@QAEABU_GUID@@XZ
_TEXT	SEGMENT
_this$ = -4						; size = 4
?GetClsid@CWebBrowser@@QAEABU_GUID@@XZ PROC NEAR	; CWebBrowser::GetClsid, COMDAT
; _this$ = ecx

; 21   : 	{

  00000	55		 push	 ebp
  00001	8b ec		 mov	 ebp, esp
  00003	51		 push	 ecx
  00004	c7 45 fc cc cc
	cc cc		 mov	 DWORD PTR [ebp-4], -858993460 ; ccccccccH
  0000b	89 4d fc	 mov	 DWORD PTR _this$[ebp], ecx

; 22   : 		static CLSID const clsid
; 23   : 			= { 0x8856F961, 0x340A, 0x11D0, { 0xA9, 0x6B, 0x0, 0xC0, 0x4F, 0xD7, 0x5, 0xA2 } };
; 24   : 		return clsid;

  0000e	b8 00 00 00 00	 mov	 eax, OFFSET FLAT:?clsid@?1??GetClsid@CWebBrowser@@QAEABU_GUID@@XZ@4U3@B ; `CWebBrowser::GetClsid'::`2'::clsid

; 25   : 	}

  00013	8b e5		 mov	 esp, ebp
  00015	5d		 pop	 ebp
  00016	c3		 ret	 0
?GetClsid@CWebBrowser@@QAEABU_GUID@@XZ ENDP		; CWebBrowser::GetClsid
_TEXT	ENDS
PUBLIC	??1CWebBrowser@@UAE@XZ				; CWebBrowser::~CWebBrowser
; Function compile flags: /Odt /RTCsu
;	COMDAT ??_GCWebBrowser@@UAEPAXI@Z
_TEXT	SEGMENT
_this$ = -4						; size = 4
___flags$ = 8						; size = 4
??_GCWebBrowser@@UAEPAXI@Z PROC NEAR			; CWebBrowser::`scalar deleting destructor', COMDAT
; _this$ = ecx
  00000	55		 push	 ebp
  00001	8b ec		 mov	 ebp, esp
  00003	51		 push	 ecx
  00004	c7 45 fc cc cc
	cc cc		 mov	 DWORD PTR [ebp-4], -858993460 ; ccccccccH
  0000b	89 4d fc	 mov	 DWORD PTR _this$[ebp], ecx
  0000e	8b 4d fc	 mov	 ecx, DWORD PTR _this$[ebp]
  00011	e8 00 00 00 00	 call	 ??1CWebBrowser@@UAE@XZ
  00016	8b 45 08	 mov	 eax, DWORD PTR ___flags$[ebp]
  00019	83 e0 01	 and	 eax, 1
  0001c	74 09		 je	 SHORT $L190594
  0001e	8b 4d fc	 mov	 ecx, DWORD PTR _this$[ebp]
  00021	51		 push	 ecx
  00022	e8 00 00 00 00	 call	 ??3CObject@@SGXPAX@Z	; CObject::operator delete
$L190594:
  00027	8b 45 fc	 mov	 eax, DWORD PTR _this$[ebp]
  0002a	83 c4 04	 add	 esp, 4
  0002d	3b ec		 cmp	 ebp, esp
  0002f	e8 00 00 00 00	 call	 __RTC_CheckEsp
  00034	8b e5		 mov	 esp, ebp
  00036	5d		 pop	 ebp
  00037	c2 04 00	 ret	 4
??_GCWebBrowser@@UAEPAXI@Z ENDP				; CWebBrowser::`scalar deleting destructor'
_TEXT	ENDS
EXTRN	??1CWnd@@UAE@XZ:NEAR				; CWnd::~CWnd
; Function compile flags: /Odt /RTCsu
;	COMDAT ??1CWebBrowser@@UAE@XZ
_TEXT	SEGMENT
_this$ = -4						; size = 4
??1CWebBrowser@@UAE@XZ PROC NEAR			; CWebBrowser::~CWebBrowser, COMDAT
; _this$ = ecx
  00000	55		 push	 ebp
  00001	8b ec		 mov	 ebp, esp
  00003	51		 push	 ecx
  00004	c7 45 fc cc cc
	cc cc		 mov	 DWORD PTR [ebp-4], -858993460 ; ccccccccH
  0000b	89 4d fc	 mov	 DWORD PTR _this$[ebp], ecx
  0000e	8b 4d fc	 mov	 ecx, DWORD PTR _this$[ebp]
  00011	e8 00 00 00 00	 call	 ??1CWnd@@UAE@XZ		; CWnd::~CWnd
  00016	83 c4 04	 add	 esp, 4
  00019	3b ec		 cmp	 ebp, esp
  0001b	e8 00 00 00 00	 call	 __RTC_CheckEsp
  00020	8b e5		 mov	 esp, ebp
  00022	5d		 pop	 ebp
  00023	c3		 ret	 0
??1CWebBrowser@@UAE@XZ ENDP				; CWebBrowser::~CWebBrowser
_TEXT	ENDS
PUBLIC	?GetThisClass@CWebBrowser@@SGPAUCRuntimeClass@@XZ ; CWebBrowser::GetThisClass
; Function compile flags: /Odt /RTCsu
; File d:\boxgit\playbox\playbox\dev\prj\playbox\src\gui\commoncontrol\ie_explorer.cpp
_TEXT	SEGMENT
?GetThisClass@CWebBrowser@@SGPAUCRuntimeClass@@XZ PROC NEAR ; CWebBrowser::GetThisClass

; 15   : IMPLEMENT_DYNCREATE(CWebBrowser, CWnd)

  00090	55		 push	 ebp
  00091	8b ec		 mov	 ebp, esp
  00093	b8 00 00 00 00	 mov	 eax, OFFSET FLAT:?classCWebBrowser@CWebBrowser@@2UCRuntimeClass@@B ; CWebBrowser::classCWebBrowser
  00098	5d		 pop	 ebp
  00099	c3		 ret	 0
?GetThisClass@CWebBrowser@@SGPAUCRuntimeClass@@XZ ENDP	; CWebBrowser::GetThisClass
; Function compile flags: /Odt /RTCsu
_this$ = -4						; size = 4
?GetRuntimeClass@CWebBrowser@@UBEPAUCRuntimeClass@@XZ PROC NEAR ; CWebBrowser::GetRuntimeClass
; _this$ = ecx

; 15   : IMPLEMENT_DYNCREATE(CWebBrowser, CWnd)

  000a0	55		 push	 ebp
  000a1	8b ec		 mov	 ebp, esp
  000a3	51		 push	 ecx
  000a4	c7 45 fc cc cc
	cc cc		 mov	 DWORD PTR [ebp-4], -858993460 ; ccccccccH
  000ab	89 4d fc	 mov	 DWORD PTR _this$[ebp], ecx
  000ae	b8 00 00 00 00	 mov	 eax, OFFSET FLAT:?classCWebBrowser@CWebBrowser@@2UCRuntimeClass@@B ; CWebBrowser::classCWebBrowser
  000b3	8b e5		 mov	 esp, ebp
  000b5	5d		 pop	 ebp
  000b6	c3		 ret	 0
?GetRuntimeClass@CWebBrowser@@UBEPAUCRuntimeClass@@XZ ENDP ; CWebBrowser::GetRuntimeClass
_TEXT	ENDS
PUBLIC	?GetThisEventSinkMap@CWebBrowser@@KGPBUAFX_EVENTSINKMAP@@XZ ; CWebBrowser::GetThisEventSinkMap
; Function compile flags: /Odt /RTCsu
_TEXT	SEGMENT
?GetThisEventSinkMap@CWebBrowser@@KGPBUAFX_EVENTSINKMAP@@XZ PROC NEAR ; CWebBrowser::GetThisEventSinkMap

; 17   : BEGIN_EVENTSINK_MAP(CWebBrowser, CWnd)

  000c0	55		 push	 ebp
  000c1	8b ec		 mov	 ebp, esp
  000c3	b8 00 00 00 00	 mov	 eax, OFFSET FLAT:?eventsinkMap@CWebBrowser@@1UAFX_EVENTSINKMAP@@B ; CWebBrowser::eventsinkMap
  000c8	5d		 pop	 ebp
  000c9	c3		 ret	 0
?GetThisEventSinkMap@CWebBrowser@@KGPBUAFX_EVENTSINKMAP@@XZ ENDP ; CWebBrowser::GetThisEventSinkMap
; Function compile flags: /Odt /RTCsu
_this$ = -4						; size = 4
?GetEventSinkMap@CWebBrowser@@MBEPBUAFX_EVENTSINKMAP@@XZ PROC NEAR ; CWebBrowser::GetEventSinkMap
; _this$ = ecx

; 17   : BEGIN_EVENTSINK_MAP(CWebBrowser, CWnd)

  000d0	55		 push	 ebp
  000d1	8b ec		 mov	 ebp, esp
  000d3	51		 push	 ecx
  000d4	c7 45 fc cc cc
	cc cc		 mov	 DWORD PTR [ebp-4], -858993460 ; ccccccccH
  000db	89 4d fc	 mov	 DWORD PTR _this$[ebp], ecx
  000de	b8 00 00 00 00	 mov	 eax, OFFSET FLAT:?eventsinkMap@CWebBrowser@@1UAFX_EVENTSINKMAP@@B ; CWebBrowser::eventsinkMap
  000e3	8b e5		 mov	 esp, ebp
  000e5	5d		 pop	 ebp
  000e6	c3		 ret	 0
?GetEventSinkMap@CWebBrowser@@MBEPBUAFX_EVENTSINKMAP@@XZ ENDP ; CWebBrowser::GetEventSinkMap
_TEXT	ENDS
PUBLIC	?NavigateImage@CWebBrowser@@QAEXV?$CStringT@DV?$StrTraitMFC_DLL@DV?$ChTraitsCRT@D@ATL@@@@@ATL@@JJ@Z ; CWebBrowser::NavigateImage
EXTRN	__imp_??1?$CStringT@DV?$StrTraitMFC_DLL@DV?$ChTraitsCRT@D@ATL@@@@@ATL@@QAE@XZ:NEAR
; Function compile flags: /Odt /RTCsu
_TEXT	SEGMENT
_this$ = -4						; size = 4
_strImagePath$ = 8					; size = 4
_ImageWidth$ = 12					; size = 4
_ImageHeight$ = 16					; size = 4
?NavigateImage@CWebBrowser@@QAEXV?$CStringT@DV?$StrTraitMFC_DLL@DV?$ChTraitsCRT@D@ATL@@@@@ATL@@JJ@Z PROC NEAR ; CWebBrowser::NavigateImage
; _this$ = ecx

; 28   : {

  000f0	55		 push	 ebp
  000f1	8b ec		 mov	 ebp, esp
  000f3	51		 push	 ecx
  000f4	56		 push	 esi
  000f5	c7 45 fc cc cc
	cc cc		 mov	 DWORD PTR [ebp-4], -858993460 ; ccccccccH
  000fc	89 4d fc	 mov	 DWORD PTR _this$[ebp], ecx

; 29   : 	//  IE 
; 30   : 	//
; 31   : 	//// 
; 32   : 	//put_Width(ImageWidth);
; 33   : 	//put_Height(ImageHeight);
; 34   : 	//// 
; 35   : 	//Navigate("about:blank", NULL, NULL, NULL, NULL);
; 36   : 	//
; 37   : 	//Sleep(5*1000);
; 38   : 	//CComPtr<IDispatch> spDispatch;
; 39   : 	//CComQIPtr<IHTMLDocument2, &IID_IHTMLDocument2> pDoc2;
; 40   : 
; 41   : 	//// 
; 42   : 	//if((spDispatch = get_Document()) != NULL)
; 43   : 	//{
; 44   : 	//	pDoc2 = spDispatch;
; 45   : 	//	if(pDoc2.p != NULL)
; 46   : 	//	{
; 47   : 	//		Writeln(pDoc2, "<HTML>");
; 48   : 	//		Writeln(pDoc2, "<BODY scroll = \"no\"\
; 49   : 	//					   bottomMargin=\"0\" leftMargin=\"0\" topMargin=\"0\" rightMargin=\"0\">");/*oncontextmenu=self.event.returnValue=false*/
; 50   : 	//		CString img;
; 51   : 	//		img = "<div ><img src = \"" + strImagePath + "\">";
; 52   : 	//		Writeln(pDoc2, img);
; 53   : 	//		Writeln(pDoc2, "</BODY>");
; 54   : 	//		Writeln(pDoc2, "</HTML>");
; 55   : 	//	}
; 56   : 	//}
; 57   : 	//SetFlatStyle();
; 58   : }

  000ff	8b f4		 mov	 esi, esp
  00101	8d 4d 08	 lea	 ecx, DWORD PTR _strImagePath$[ebp]
  00104	ff 15 00 00 00
	00		 call	 DWORD PTR __imp_??1?$CStringT@DV?$StrTraitMFC_DLL@DV?$ChTraitsCRT@D@ATL@@@@@ATL@@QAE@XZ
  0010a	3b f4		 cmp	 esi, esp
  0010c	e8 00 00 00 00	 call	 __RTC_CheckEsp
  00111	5e		 pop	 esi
  00112	83 c4 04	 add	 esp, 4
  00115	3b ec		 cmp	 ebp, esp
  00117	e8 00 00 00 00	 call	 __RTC_CheckEsp
  0011c	8b e5		 mov	 esp, ebp
  0011e	5d		 pop	 ebp
  0011f	c2 0c 00	 ret	 12			; 0000000cH
?NavigateImage@CWebBrowser@@QAEXV?$CStringT@DV?$StrTraitMFC_DLL@DV?$ChTraitsCRT@D@ATL@@@@@ATL@@JJ@Z ENDP ; CWebBrowser::NavigateImage
_TEXT	ENDS
PUBLIC	?Writeln@CWebBrowser@@AAEJPAUIHTMLDocument2@@V?$CStringT@DV?$StrTraitMFC_DLL@DV?$ChTraitsCRT@D@ATL@@@@@ATL@@@Z ; CWebBrowser::Writeln
EXTRN	__imp_?AllocSysString@?$CStringT@DV?$StrTraitMFC_DLL@DV?$ChTraitsCRT@D@ATL@@@@@ATL@@QBEPA_WXZ:NEAR
EXTRN	__imp__SysFreeString@4:NEAR
EXTRN	__imp__SafeArrayDestroy@4:NEAR
EXTRN	__imp__SafeArrayAccessData@8:NEAR
EXTRN	__imp__SafeArrayUnaccessData@4:NEAR
EXTRN	__imp__SafeArrayCreateVector@12:NEAR
xdata$x	SEGMENT
$T191619 DD	0ffffffffH
	DD	FLAT:$L191612
$T191614 DD	019930520H
	DD	01H
	DD	FLAT:$T191619
	DD	2 DUP(00H)
	DD	2 DUP(00H)
; Function compile flags: /Odt /RTCsu
xdata$x	ENDS
_TEXT	SEGMENT
$T191611 = -52						; size = 4
$T191610 = -48						; size = 4
$T191609 = -44						; size = 4
_bstr$ = -40						; size = 4
_sfArray$ = -36						; size = 4
_param$ = -28						; size = 4
_hr$ = -20						; size = 4
_this$ = -16						; size = 4
__$EHRec$ = -12						; size = 12
_pDoc$ = 8						; size = 4
_html$ = 12						; size = 4
?Writeln@CWebBrowser@@AAEJPAUIHTMLDocument2@@V?$CStringT@DV?$StrTraitMFC_DLL@DV?$ChTraitsCRT@D@ATL@@@@@ATL@@@Z PROC NEAR ; CWebBrowser::Writeln
; _this$ = ecx

; 61   : {

  00130	55		 push	 ebp
  00131	8b ec		 mov	 ebp, esp
  00133	6a ff		 push	 -1
  00135	68 00 00 00 00	 push	 __ehhandler$?Writeln@CWebBrowser@@AAEJPAUIHTMLDocument2@@V?$CStringT@DV?$StrTraitMFC_DLL@DV?$ChTraitsCRT@D@ATL@@@@@ATL@@@Z
  0013a	64 a1 00 00 00
	00		 mov	 eax, DWORD PTR fs:__except_list
  00140	50		 push	 eax
  00141	64 89 25 00 00
	00 00		 mov	 DWORD PTR fs:__except_list, esp
  00148	83 ec 28	 sub	 esp, 40			; 00000028H
  0014b	56		 push	 esi
  0014c	57		 push	 edi
  0014d	51		 push	 ecx
  0014e	8d 7d cc	 lea	 edi, DWORD PTR [ebp-52]
  00151	b9 0a 00 00 00	 mov	 ecx, 10			; 0000000aH
  00156	b8 cc cc cc cc	 mov	 eax, -858993460		; ccccccccH
  0015b	f3 ab		 rep stosd
  0015d	59		 pop	 ecx
  0015e	89 4d f0	 mov	 DWORD PTR _this$[ebp], ecx
  00161	c7 45 fc 00 00
	00 00		 mov	 DWORD PTR __$EHRec$[ebp+8], 0

; 62   : 	HRESULT hr = S_OK;

  00168	c7 45 ec 00 00
	00 00		 mov	 DWORD PTR _hr$[ebp], 0

; 63   : 	VARIANT *param;
; 64   : 	SAFEARRAY *sfArray;
; 65   : 
; 66   : 	if(pDoc == NULL)

  0016f	83 7d 08 00	 cmp	 DWORD PTR _pDoc$[ebp], 0
  00173	75 28		 jne	 SHORT $L190638

; 67   : 		return E_FAIL;

  00175	c7 45 d4 05 40
	00 80		 mov	 DWORD PTR $T191609[ebp], -2147467259 ; 80004005H
  0017c	c7 45 fc ff ff
	ff ff		 mov	 DWORD PTR __$EHRec$[ebp+8], -1
  00183	8b f4		 mov	 esi, esp
  00185	8d 4d 0c	 lea	 ecx, DWORD PTR _html$[ebp]
  00188	ff 15 00 00 00
	00		 call	 DWORD PTR __imp_??1?$CStringT@DV?$StrTraitMFC_DLL@DV?$ChTraitsCRT@D@ATL@@@@@ATL@@QAE@XZ
  0018e	3b f4		 cmp	 esi, esp
  00190	e8 00 00 00 00	 call	 __RTC_CheckEsp
  00195	8b 45 d4	 mov	 eax, DWORD PTR $T191609[ebp]
  00198	e9 09 01 00 00	 jmp	 $L190633
$L190638:

; 68   : 	
; 69   : 	// Creates a new one-dimensional array
; 70   : 	sfArray = SafeArrayCreateVector(VT_VARIANT, 0, 1);

  0019d	8b f4		 mov	 esi, esp
  0019f	6a 01		 push	 1
  001a1	6a 00		 push	 0
  001a3	6a 0c		 push	 12			; 0000000cH
  001a5	ff 15 00 00 00
	00		 call	 DWORD PTR __imp__SafeArrayCreateVector@12
  001ab	3b f4		 cmp	 esi, esp
  001ad	e8 00 00 00 00	 call	 __RTC_CheckEsp
  001b2	89 45 dc	 mov	 DWORD PTR _sfArray$[ebp], eax

; 71   : 	if (sfArray == NULL ) 

  001b5	83 7d dc 00	 cmp	 DWORD PTR _sfArray$[ebp], 0
  001b9	75 28		 jne	 SHORT $L190641

; 72   : 		return E_FAIL;

  001bb	c7 45 d0 05 40
	00 80		 mov	 DWORD PTR $T191610[ebp], -2147467259 ; 80004005H
  001c2	c7 45 fc ff ff
	ff ff		 mov	 DWORD PTR __$EHRec$[ebp+8], -1
  001c9	8b f4		 mov	 esi, esp
  001cb	8d 4d 0c	 lea	 ecx, DWORD PTR _html$[ebp]
  001ce	ff 15 00 00 00
	00		 call	 DWORD PTR __imp_??1?$CStringT@DV?$StrTraitMFC_DLL@DV?$ChTraitsCRT@D@ATL@@@@@ATL@@QAE@XZ
  001d4	3b f4		 cmp	 esi, esp
  001d6	e8 00 00 00 00	 call	 __RTC_CheckEsp
  001db	8b 45 d0	 mov	 eax, DWORD PTR $T191610[ebp]
  001de	e9 c3 00 00 00	 jmp	 $L190633
$L190641:

; 73   : 	
; 74   : 	BSTR bstr = html.AllocSysString();

  001e3	8b f4		 mov	 esi, esp
  001e5	8d 4d 0c	 lea	 ecx, DWORD PTR _html$[ebp]
  001e8	ff 15 00 00 00
	00		 call	 DWORD PTR __imp_?AllocSysString@?$CStringT@DV?$StrTraitMFC_DLL@DV?$ChTraitsCRT@D@ATL@@@@@ATL@@QBEPA_WXZ
  001ee	3b f4		 cmp	 esi, esp
  001f0	e8 00 00 00 00	 call	 __RTC_CheckEsp
  001f5	89 45 d8	 mov	 DWORD PTR _bstr$[ebp], eax

; 75   : 	hr = SafeArrayAccessData(sfArray,(LPVOID*) & param);

  001f8	8b f4		 mov	 esi, esp
  001fa	8d 45 e4	 lea	 eax, DWORD PTR _param$[ebp]
  001fd	50		 push	 eax
  001fe	8b 4d dc	 mov	 ecx, DWORD PTR _sfArray$[ebp]
  00201	51		 push	 ecx
  00202	ff 15 00 00 00
	00		 call	 DWORD PTR __imp__SafeArrayAccessData@8
  00208	3b f4		 cmp	 esi, esp
  0020a	e8 00 00 00 00	 call	 __RTC_CheckEsp
  0020f	89 45 ec	 mov	 DWORD PTR _hr$[ebp], eax

; 76   : 	param->vt = VT_BSTR;

  00212	8b 55 e4	 mov	 edx, DWORD PTR _param$[ebp]
  00215	66 c7 02 08 00	 mov	 WORD PTR [edx], 8

; 77   : 	param->bstrVal = bstr;

  0021a	8b 45 e4	 mov	 eax, DWORD PTR _param$[ebp]
  0021d	8b 4d d8	 mov	 ecx, DWORD PTR _bstr$[ebp]
  00220	89 48 08	 mov	 DWORD PTR [eax+8], ecx

; 78   : 	hr = SafeArrayUnaccessData(sfArray);

  00223	8b f4		 mov	 esi, esp
  00225	8b 55 dc	 mov	 edx, DWORD PTR _sfArray$[ebp]
  00228	52		 push	 edx
  00229	ff 15 00 00 00
	00		 call	 DWORD PTR __imp__SafeArrayUnaccessData@4
  0022f	3b f4		 cmp	 esi, esp
  00231	e8 00 00 00 00	 call	 __RTC_CheckEsp
  00236	89 45 ec	 mov	 DWORD PTR _hr$[ebp], eax

; 79   : 	hr = pDoc->writeln(sfArray);

  00239	8b f4		 mov	 esi, esp
  0023b	8b 45 dc	 mov	 eax, DWORD PTR _sfArray$[ebp]
  0023e	50		 push	 eax
  0023f	8b 4d 08	 mov	 ecx, DWORD PTR _pDoc$[ebp]
  00242	8b 11		 mov	 edx, DWORD PTR [ecx]
  00244	8b 45 08	 mov	 eax, DWORD PTR _pDoc$[ebp]
  00247	50		 push	 eax
  00248	ff 92 f0 00 00
	00		 call	 DWORD PTR [edx+240]
  0024e	3b f4		 cmp	 esi, esp
  00250	e8 00 00 00 00	 call	 __RTC_CheckEsp
  00255	89 45 ec	 mov	 DWORD PTR _hr$[ebp], eax

; 80   : 
; 81   : 	SysFreeString(bstr);

  00258	8b f4		 mov	 esi, esp
  0025a	8b 4d d8	 mov	 ecx, DWORD PTR _bstr$[ebp]
  0025d	51		 push	 ecx
  0025e	ff 15 00 00 00
	00		 call	 DWORD PTR __imp__SysFreeString@4
  00264	3b f4		 cmp	 esi, esp
  00266	e8 00 00 00 00	 call	 __RTC_CheckEsp

; 82   : 	if (sfArray != NULL) 

  0026b	83 7d dc 00	 cmp	 DWORD PTR _sfArray$[ebp], 0
  0026f	74 13		 je	 SHORT $L190646

; 83   : 	{
; 84   : 		SafeArrayDestroy(sfArray);

  00271	8b f4		 mov	 esi, esp
  00273	8b 55 dc	 mov	 edx, DWORD PTR _sfArray$[ebp]
  00276	52		 push	 edx
  00277	ff 15 00 00 00
	00		 call	 DWORD PTR __imp__SafeArrayDestroy@4
  0027d	3b f4		 cmp	 esi, esp
  0027f	e8 00 00 00 00	 call	 __RTC_CheckEsp
$L190646:

; 85   : 	}
; 86   : 	return hr;

  00284	8b 45 ec	 mov	 eax, DWORD PTR _hr$[ebp]
  00287	89 45 cc	 mov	 DWORD PTR $T191611[ebp], eax
  0028a	c7 45 fc ff ff
	ff ff		 mov	 DWORD PTR __$EHRec$[ebp+8], -1
  00291	8b f4		 mov	 esi, esp
  00293	8d 4d 0c	 lea	 ecx, DWORD PTR _html$[ebp]
  00296	ff 15 00 00 00
	00		 call	 DWORD PTR __imp_??1?$CStringT@DV?$StrTraitMFC_DLL@DV?$ChTraitsCRT@D@ATL@@@@@ATL@@QAE@XZ
  0029c	3b f4		 cmp	 esi, esp
  0029e	e8 00 00 00 00	 call	 __RTC_CheckEsp
  002a3	8b 45 cc	 mov	 eax, DWORD PTR $T191611[ebp]
$L190633:

; 87   : }

  002a6	52		 push	 edx
  002a7	8b cd		 mov	 ecx, ebp
  002a9	50		 push	 eax
  002aa	8d 15 00 00 00
	00		 lea	 edx, DWORD PTR $L191618
  002b0	e8 00 00 00 00	 call	 @_RTC_CheckStackVars@8
  002b5	58		 pop	 eax
  002b6	5a		 pop	 edx
  002b7	8b 4d f4	 mov	 ecx, DWORD PTR __$EHRec$[ebp]
  002ba	64 89 0d 00 00
	00 00		 mov	 DWORD PTR fs:__except_list, ecx
  002c1	5f		 pop	 edi
  002c2	5e		 pop	 esi
  002c3	83 c4 34	 add	 esp, 52			; 00000034H
  002c6	3b ec		 cmp	 ebp, esp
  002c8	e8 00 00 00 00	 call	 __RTC_CheckEsp
  002cd	8b e5		 mov	 esp, ebp
  002cf	5d		 pop	 ebp
  002d0	c2 08 00	 ret	 8
$L191618:
  002d3	01 00 00 00	 DD	 1
  002d7	00 00 00 00	 DD	 $L191617
$L191617:
  002db	e4 ff ff ff	 DD	 -28			; ffffffe4H
  002df	04 00 00 00	 DD	 4
  002e3	00 00 00 00	 DD	 $L191615
$L191615:
  002e7	70		 DB	 112			; 00000070H
  002e8	61		 DB	 97			; 00000061H
  002e9	72		 DB	 114			; 00000072H
  002ea	61		 DB	 97			; 00000061H
  002eb	6d		 DB	 109			; 0000006dH
  002ec	00		 DB	 0
_TEXT	ENDS
text$x	SEGMENT
$L191612:
  00014	8b f4		 mov	 esi, esp
  00016	8d 4d 0c	 lea	 ecx, DWORD PTR _html$[ebp]
  00019	ff 15 00 00 00
	00		 call	 DWORD PTR __imp_??1?$CStringT@DV?$StrTraitMFC_DLL@DV?$ChTraitsCRT@D@ATL@@@@@ATL@@QAE@XZ
  0001f	3b f4		 cmp	 esi, esp
  00021	e9 00 00 00 00	 jmp	 __RTC_CheckEsp
__ehhandler$?Writeln@CWebBrowser@@AAEJPAUIHTMLDocument2@@V?$CStringT@DV?$StrTraitMFC_DLL@DV?$ChTraitsCRT@D@ATL@@@@@ATL@@@Z:
  00026	b8 00 00 00 00	 mov	 eax, OFFSET FLAT:$T191614
  0002b	e9 00 00 00 00	 jmp	 ___CxxFrameHandler
text$x	ENDS
?Writeln@CWebBrowser@@AAEJPAUIHTMLDocument2@@V?$CStringT@DV?$StrTraitMFC_DLL@DV?$ChTraitsCRT@D@ATL@@@@@ATL@@@Z ENDP ; CWebBrowser::Writeln
PUBLIC	??0?$CComQIPtr@UIHTMLDocument2@@$1?IID_IHTMLDocument2@@3U_GUID@@B@ATL@@QAE@XZ ; ATL::CComQIPtr<IHTMLDocument2,&IID_IHTMLDocument2>::CComQIPtr<IHTMLDocument2,&IID_IHTMLDocument2>
PUBLIC	??4?$CComQIPtr@UIHTMLDocument2@@$1?IID_IHTMLDocument2@@3U_GUID@@B@ATL@@QAEPAUIHTMLDocument2@@PAUIUnknown@@@Z ; ATL::CComQIPtr<IHTMLDocument2,&IID_IHTMLDocument2>::operator=
PUBLIC	??1?$CComQIPtr@UIHTMLDocument2@@$1?IID_IHTMLDocument2@@3U_GUID@@B@ATL@@QAE@XZ ; ATL::CComQIPtr<IHTMLDocument2,&IID_IHTMLDocument2>::~CComQIPtr<IHTMLDocument2,&IID_IHTMLDocument2>
PUBLIC	??I?$CComPtrBase@UIHTMLElement@@@ATL@@QAEPAPAUIHTMLElement@@XZ ; ATL::CComPtrBase<IHTMLElement>::operator&
PUBLIC	??C?$CComPtrBase@UIHTMLElement@@@ATL@@QBEPAV?$_NoAddRefReleaseOnCComPtr@UIHTMLElement@@@1@XZ ; ATL::CComPtrBase<IHTMLElement>::operator->
PUBLIC	??0?$CComPtr@UIHTMLElement@@@ATL@@QAE@XZ	; ATL::CComPtr<IHTMLElement>::CComPtr<IHTMLElement>
PUBLIC	??B?$CComPtrBase@UIDispatch@@@ATL@@QBEPAUIDispatch@@XZ ; ATL::CComPtrBase<IDispatch>::operator IDispatch *
PUBLIC	??1?$CComPtr@UIHTMLElement@@@ATL@@QAE@XZ	; ATL::CComPtr<IHTMLElement>::~CComPtr<IHTMLElement>
PUBLIC	??I?$CComPtrBase@UIHTMLStyle@@@ATL@@QAEPAPAUIHTMLStyle@@XZ ; ATL::CComPtrBase<IHTMLStyle>::operator&
PUBLIC	??C?$CComPtrBase@UIHTMLStyle@@@ATL@@QBEPAV?$_NoAddRefReleaseOnCComPtr@UIHTMLStyle@@@1@XZ ; ATL::CComPtrBase<IHTMLStyle>::operator->
PUBLIC	??0?$CComPtr@UIDispatch@@@ATL@@QAE@XZ		; ATL::CComPtr<IDispatch>::CComPtr<IDispatch>
PUBLIC	??4?$CComPtr@UIDispatch@@@ATL@@QAEPAUIDispatch@@PAU2@@Z ; ATL::CComPtr<IDispatch>::operator=
PUBLIC	??0?$CComPtr@UIHTMLStyle@@@ATL@@QAE@XZ		; ATL::CComPtr<IHTMLStyle>::CComPtr<IHTMLStyle>
PUBLIC	??1?$CComPtr@UIHTMLStyle@@@ATL@@QAE@XZ		; ATL::CComPtr<IHTMLStyle>::~CComPtr<IHTMLStyle>
PUBLIC	??1?$CComPtr@UIDispatch@@@ATL@@QAE@XZ		; ATL::CComPtr<IDispatch>::~CComPtr<IDispatch>
PUBLIC	?SetFlatStyle@CWebBrowser@@QAEXXZ		; CWebBrowser::SetFlatStyle
PUBLIC	??C?$CComPtrBase@UIHTMLDocument2@@@ATL@@QBEPAV?$_NoAddRefReleaseOnCComPtr@UIHTMLDocument2@@@1@XZ ; ATL::CComPtrBase<IHTMLDocument2>::operator->
PUBLIC	?get_Document@CWebBrowser@@QAEPAUIDispatch@@XZ	; CWebBrowser::get_Document
PUBLIC	?A2BSTR@@YAPA_WPBD@Z				; A2BSTR
xdata$x	SEGMENT
$T191634 DD	0ffffffffH
	DD	FLAT:$L191621
	DD	00H
	DD	FLAT:$L191622
	DD	01H
	DD	FLAT:$L191623
	DD	02H
	DD	FLAT:$L191624
$T191626 DD	019930520H
	DD	04H
	DD	FLAT:$T191634
	DD	2 DUP(00H)
	DD	2 DUP(00H)
; Function compile flags: /Odt /RTCsu
xdata$x	ENDS
_TEXT	SEGMENT
tv144 = -80						; size = 4
tv132 = -76						; size = 4
tv87 = -72						; size = 4
_lbstrValve$190846 = -68				; size = 4
_pStyle$190833 = -60					; size = 4
_pElement$190748 = -48					; size = 4
_pDoc2$ = -36						; size = 4
_spDispatch$ = -24					; size = 4
_this$ = -16						; size = 4
__$EHRec$ = -12						; size = 12
?SetFlatStyle@CWebBrowser@@QAEXXZ PROC NEAR		; CWebBrowser::SetFlatStyle
; _this$ = ecx

; 89   : {

  002f0	55		 push	 ebp
  002f1	8b ec		 mov	 ebp, esp
  002f3	6a ff		 push	 -1
  002f5	68 00 00 00 00	 push	 __ehhandler$?SetFlatStyle@CWebBrowser@@QAEXXZ
  002fa	64 a1 00 00 00
	00		 mov	 eax, DWORD PTR fs:__except_list
  00300	50		 push	 eax
  00301	64 89 25 00 00
	00 00		 mov	 DWORD PTR fs:__except_list, esp
  00308	83 ec 44	 sub	 esp, 68			; 00000044H
  0030b	56		 push	 esi
  0030c	57		 push	 edi
  0030d	51		 push	 ecx
  0030e	8d 7d b0	 lea	 edi, DWORD PTR [ebp-80]
  00311	b9 11 00 00 00	 mov	 ecx, 17			; 00000011H
  00316	b8 cc cc cc cc	 mov	 eax, -858993460		; ccccccccH
  0031b	f3 ab		 rep stosd
  0031d	59		 pop	 ecx
  0031e	89 4d f0	 mov	 DWORD PTR _this$[ebp], ecx

; 90   : 	CComPtr<IDispatch> spDispatch;

  00321	8d 4d e8	 lea	 ecx, DWORD PTR _spDispatch$[ebp]
  00324	e8 00 00 00 00	 call	 ??0?$CComPtr@UIDispatch@@@ATL@@QAE@XZ ; ATL::CComPtr<IDispatch>::CComPtr<IDispatch>
  00329	c7 45 fc 00 00
	00 00		 mov	 DWORD PTR __$EHRec$[ebp+8], 0

; 91   : 	CComQIPtr<IHTMLDocument2, &IID_IHTMLDocument2> pDoc2;

  00330	8d 4d dc	 lea	 ecx, DWORD PTR _pDoc2$[ebp]
  00333	e8 00 00 00 00	 call	 ??0?$CComQIPtr@UIHTMLDocument2@@$1?IID_IHTMLDocument2@@3U_GUID@@B@ATL@@QAE@XZ ; ATL::CComQIPtr<IHTMLDocument2,&IID_IHTMLDocument2>::CComQIPtr<IHTMLDocument2,&IID_IHTMLDocument2>
  00338	c6 45 fc 01	 mov	 BYTE PTR __$EHRec$[ebp+8], 1

; 92   : 
; 93   : 	// 
; 94   : 	if((spDispatch = get_Document()) != NULL)

  0033c	8b 4d f0	 mov	 ecx, DWORD PTR _this$[ebp]
  0033f	e8 00 00 00 00	 call	 ?get_Document@CWebBrowser@@QAEPAUIDispatch@@XZ ; CWebBrowser::get_Document
  00344	50		 push	 eax
  00345	8d 4d e8	 lea	 ecx, DWORD PTR _spDispatch$[ebp]
  00348	e8 00 00 00 00	 call	 ??4?$CComPtr@UIDispatch@@@ATL@@QAEPAUIDispatch@@PAU2@@Z ; ATL::CComPtr<IDispatch>::operator=
  0034d	85 c0		 test	 eax, eax
  0034f	0f 84 e0 00 00
	00		 je	 $L190674

; 95   : 	{
; 96   : 		pDoc2 = spDispatch;

  00355	8d 4d e8	 lea	 ecx, DWORD PTR _spDispatch$[ebp]
  00358	e8 00 00 00 00	 call	 ??B?$CComPtrBase@UIDispatch@@@ATL@@QBEPAUIDispatch@@XZ ; ATL::CComPtrBase<IDispatch>::operator IDispatch *
  0035d	50		 push	 eax
  0035e	8d 4d dc	 lea	 ecx, DWORD PTR _pDoc2$[ebp]
  00361	e8 00 00 00 00	 call	 ??4?$CComQIPtr@UIHTMLDocument2@@$1?IID_IHTMLDocument2@@3U_GUID@@B@ATL@@QAEPAUIHTMLDocument2@@PAUIUnknown@@@Z ; ATL::CComQIPtr<IHTMLDocument2,&IID_IHTMLDocument2>::operator=

; 97   : 		if(pDoc2.p != NULL)

  00366	83 7d dc 00	 cmp	 DWORD PTR _pDoc2$[ebp], 0
  0036a	0f 84 c5 00 00
	00		 je	 $L190674

; 98   : 		{
; 99   : 			CComPtr<IHTMLElement> pElement;

  00370	8d 4d d0	 lea	 ecx, DWORD PTR _pElement$190748[ebp]
  00373	e8 00 00 00 00	 call	 ??0?$CComPtr@UIHTMLElement@@@ATL@@QAE@XZ ; ATL::CComPtr<IHTMLElement>::CComPtr<IHTMLElement>
  00378	c6 45 fc 02	 mov	 BYTE PTR __$EHRec$[ebp+8], 2

; 100  : 			pDoc2->get_body(&pElement);

  0037c	8d 4d dc	 lea	 ecx, DWORD PTR _pDoc2$[ebp]
  0037f	e8 00 00 00 00	 call	 ??C?$CComPtrBase@UIHTMLDocument2@@@ATL@@QBEPAV?$_NoAddRefReleaseOnCComPtr@UIHTMLDocument2@@@1@XZ ; ATL::CComPtrBase<IHTMLDocument2>::operator->
  00384	89 45 b8	 mov	 DWORD PTR tv87[ebp], eax
  00387	8d 4d d0	 lea	 ecx, DWORD PTR _pElement$190748[ebp]
  0038a	e8 00 00 00 00	 call	 ??I?$CComPtrBase@UIHTMLElement@@@ATL@@QAEPAPAUIHTMLElement@@XZ ; ATL::CComPtrBase<IHTMLElement>::operator&
  0038f	8b f4		 mov	 esi, esp
  00391	50		 push	 eax
  00392	8b 45 b8	 mov	 eax, DWORD PTR tv87[ebp]
  00395	50		 push	 eax
  00396	8b 4d b8	 mov	 ecx, DWORD PTR tv87[ebp]
  00399	8b 11		 mov	 edx, DWORD PTR [ecx]
  0039b	ff 52 24	 call	 DWORD PTR [edx+36]
  0039e	3b f4		 cmp	 esi, esp
  003a0	e8 00 00 00 00	 call	 __RTC_CheckEsp

; 101  : 			if(pElement.p != NULL)

  003a5	83 7d d0 00	 cmp	 DWORD PTR _pElement$190748[ebp], 0
  003a9	74 7e		 je	 SHORT $L190760

; 102  : 			{
; 103  : 				CComPtr<IHTMLStyle> pStyle;

  003ab	8d 4d c4	 lea	 ecx, DWORD PTR _pStyle$190833[ebp]
  003ae	e8 00 00 00 00	 call	 ??0?$CComPtr@UIHTMLStyle@@@ATL@@QAE@XZ ; ATL::CComPtr<IHTMLStyle>::CComPtr<IHTMLStyle>
  003b3	c6 45 fc 03	 mov	 BYTE PTR __$EHRec$[ebp+8], 3

; 104  : 				pElement->get_style(&pStyle);

  003b7	8d 4d d0	 lea	 ecx, DWORD PTR _pElement$190748[ebp]
  003ba	e8 00 00 00 00	 call	 ??C?$CComPtrBase@UIHTMLElement@@@ATL@@QBEPAV?$_NoAddRefReleaseOnCComPtr@UIHTMLElement@@@1@XZ ; ATL::CComPtrBase<IHTMLElement>::operator->
  003bf	89 45 b4	 mov	 DWORD PTR tv132[ebp], eax
  003c2	8d 4d c4	 lea	 ecx, DWORD PTR _pStyle$190833[ebp]
  003c5	e8 00 00 00 00	 call	 ??I?$CComPtrBase@UIHTMLStyle@@@ATL@@QAEPAPAUIHTMLStyle@@XZ ; ATL::CComPtrBase<IHTMLStyle>::operator&
  003ca	8b f4		 mov	 esi, esp
  003cc	50		 push	 eax
  003cd	8b 45 b4	 mov	 eax, DWORD PTR tv132[ebp]
  003d0	50		 push	 eax
  003d1	8b 4d b4	 mov	 ecx, DWORD PTR tv132[ebp]
  003d4	8b 11		 mov	 edx, DWORD PTR [ecx]
  003d6	ff 52 40	 call	 DWORD PTR [edx+64]
  003d9	3b f4		 cmp	 esi, esp
  003db	e8 00 00 00 00	 call	 __RTC_CheckEsp

; 105  : 				if(pStyle.p)

  003e0	83 7d c4 00	 cmp	 DWORD PTR _pStyle$190833[ebp], 0
  003e4	74 37		 je	 SHORT $L190845

; 106  : 				{
; 107  : 					BSTR lbstrValve = A2BSTR( "none" );

  003e6	68 00 00 00 00	 push	 OFFSET FLAT:$SG190847
  003eb	e8 00 00 00 00	 call	 ?A2BSTR@@YAPA_WPBD@Z	; A2BSTR
  003f0	83 c4 04	 add	 esp, 4
  003f3	89 45 bc	 mov	 DWORD PTR _lbstrValve$190846[ebp], eax

; 108  : 					pStyle->put_borderStyle(lbstrValve);

  003f6	8d 4d c4	 lea	 ecx, DWORD PTR _pStyle$190833[ebp]
  003f9	e8 00 00 00 00	 call	 ??C?$CComPtrBase@UIHTMLStyle@@@ATL@@QBEPAV?$_NoAddRefReleaseOnCComPtr@UIHTMLStyle@@@1@XZ ; ATL::CComPtrBase<IHTMLStyle>::operator->
  003fe	89 45 b0	 mov	 DWORD PTR tv144[ebp], eax
  00401	8b f4		 mov	 esi, esp
  00403	8b 45 bc	 mov	 eax, DWORD PTR _lbstrValve$190846[ebp]
  00406	50		 push	 eax
  00407	8b 4d b0	 mov	 ecx, DWORD PTR tv144[ebp]
  0040a	51		 push	 ecx
  0040b	8b 55 b0	 mov	 edx, DWORD PTR tv144[ebp]
  0040e	8b 02		 mov	 eax, DWORD PTR [edx]
  00410	ff 90 c4 01 00
	00		 call	 DWORD PTR [eax+452]
  00416	3b f4		 cmp	 esi, esp
  00418	e8 00 00 00 00	 call	 __RTC_CheckEsp
$L190845:

; 109  : 				}
; 110  : 			}

  0041d	c6 45 fc 02	 mov	 BYTE PTR __$EHRec$[ebp+8], 2
  00421	8d 4d c4	 lea	 ecx, DWORD PTR _pStyle$190833[ebp]
  00424	e8 00 00 00 00	 call	 ??1?$CComPtr@UIHTMLStyle@@@ATL@@QAE@XZ
$L190760:

; 111  : 		}

  00429	c6 45 fc 01	 mov	 BYTE PTR __$EHRec$[ebp+8], 1
  0042d	8d 4d d0	 lea	 ecx, DWORD PTR _pElement$190748[ebp]
  00430	e8 00 00 00 00	 call	 ??1?$CComPtr@UIHTMLElement@@@ATL@@QAE@XZ
$L190674:

; 112  : 	}
; 113  : }

  00435	c6 45 fc 00	 mov	 BYTE PTR __$EHRec$[ebp+8], 0
  00439	8d 4d dc	 lea	 ecx, DWORD PTR _pDoc2$[ebp]
  0043c	e8 00 00 00 00	 call	 ??1?$CComQIPtr@UIHTMLDocument2@@$1?IID_IHTMLDocument2@@3U_GUID@@B@ATL@@QAE@XZ
  00441	c7 45 fc ff ff
	ff ff		 mov	 DWORD PTR __$EHRec$[ebp+8], -1
  00448	8d 4d e8	 lea	 ecx, DWORD PTR _spDispatch$[ebp]
  0044b	e8 00 00 00 00	 call	 ??1?$CComPtr@UIDispatch@@@ATL@@QAE@XZ
  00450	52		 push	 edx
  00451	8b cd		 mov	 ecx, ebp
  00453	50		 push	 eax
  00454	8d 15 00 00 00
	00		 lea	 edx, DWORD PTR $L191633
  0045a	e8 00 00 00 00	 call	 @_RTC_CheckStackVars@8
  0045f	58		 pop	 eax
  00460	5a		 pop	 edx
  00461	8b 4d f4	 mov	 ecx, DWORD PTR __$EHRec$[ebp]
  00464	64 89 0d 00 00
	00 00		 mov	 DWORD PTR fs:__except_list, ecx
  0046b	5f		 pop	 edi
  0046c	5e		 pop	 esi
  0046d	83 c4 50	 add	 esp, 80			; 00000050H
  00470	3b ec		 cmp	 ebp, esp
  00472	e8 00 00 00 00	 call	 __RTC_CheckEsp
  00477	8b e5		 mov	 esp, ebp
  00479	5d		 pop	 ebp
  0047a	c3		 ret	 0
$L191633:
  0047b	04 00 00 00	 DD	 4
  0047f	00 00 00 00	 DD	 $L191632
$L191632:
  00483	e8 ff ff ff	 DD	 -24			; ffffffe8H
  00487	04 00 00 00	 DD	 4
  0048b	00 00 00 00	 DD	 $L191627
  0048f	dc ff ff ff	 DD	 -36			; ffffffdcH
  00493	04 00 00 00	 DD	 4
  00497	00 00 00 00	 DD	 $L191628
  0049b	d0 ff ff ff	 DD	 -48			; ffffffd0H
  0049f	04 00 00 00	 DD	 4
  004a3	00 00 00 00	 DD	 $L191629
  004a7	c4 ff ff ff	 DD	 -60			; ffffffc4H
  004ab	04 00 00 00	 DD	 4
  004af	00 00 00 00	 DD	 $L191630
$L191630:
  004b3	70		 DB	 112			; 00000070H
  004b4	53		 DB	 83			; 00000053H
  004b5	74		 DB	 116			; 00000074H
  004b6	79		 DB	 121			; 00000079H
  004b7	6c		 DB	 108			; 0000006cH
  004b8	65		 DB	 101			; 00000065H
  004b9	00		 DB	 0
$L191629:
  004ba	70		 DB	 112			; 00000070H
  004bb	45		 DB	 69			; 00000045H
  004bc	6c		 DB	 108			; 0000006cH
  004bd	65		 DB	 101			; 00000065H
  004be	6d		 DB	 109			; 0000006dH
  004bf	65		 DB	 101			; 00000065H
  004c0	6e		 DB	 110			; 0000006eH
  004c1	74		 DB	 116			; 00000074H
  004c2	00		 DB	 0
$L191628:
  004c3	70		 DB	 112			; 00000070H
  004c4	44		 DB	 68			; 00000044H
  004c5	6f		 DB	 111			; 0000006fH
  004c6	63		 DB	 99			; 00000063H
  004c7	32		 DB	 50			; 00000032H
  004c8	00		 DB	 0
$L191627:
  004c9	73		 DB	 115			; 00000073H
  004ca	70		 DB	 112			; 00000070H
  004cb	44		 DB	 68			; 00000044H
  004cc	69		 DB	 105			; 00000069H
  004cd	73		 DB	 115			; 00000073H
  004ce	70		 DB	 112			; 00000070H
  004cf	61		 DB	 97			; 00000061H
  004d0	74		 DB	 116			; 00000074H
  004d1	63		 DB	 99			; 00000063H
  004d2	68		 DB	 104			; 00000068H
  004d3	00		 DB	 0
_TEXT	ENDS
text$x	SEGMENT
$L191621:
  00030	8d 4d e8	 lea	 ecx, DWORD PTR _spDispatch$[ebp]
  00033	e9 00 00 00 00	 jmp	 ??1?$CComPtr@UIDispatch@@@ATL@@QAE@XZ
$L191622:
  00038	8d 4d dc	 lea	 ecx, DWORD PTR _pDoc2$[ebp]
  0003b	e9 00 00 00 00	 jmp	 ??1?$CComQIPtr@UIHTMLDocument2@@$1?IID_IHTMLDocument2@@3U_GUID@@B@ATL@@QAE@XZ
$L191623:
  00040	8d 4d d0	 lea	 ecx, DWORD PTR _pElement$190748[ebp]
  00043	e9 00 00 00 00	 jmp	 ??1?$CComPtr@UIHTMLElement@@@ATL@@QAE@XZ
$L191624:
  00048	8d 4d c4	 lea	 ecx, DWORD PTR _pStyle$190833[ebp]
  0004b	e9 00 00 00 00	 jmp	 ??1?$CComPtr@UIHTMLStyle@@@ATL@@QAE@XZ
__ehhandler$?SetFlatStyle@CWebBrowser@@QAEXXZ:
  00050	b8 00 00 00 00	 mov	 eax, OFFSET FLAT:$T191626
  00055	e9 00 00 00 00	 jmp	 ___CxxFrameHandler
text$x	ENDS
?SetFlatStyle@CWebBrowser@@QAEXXZ ENDP			; CWebBrowser::SetFlatStyle
EXTRN	?InvokeHelper@CWnd@@QAAXJGGPAXPBEZZ:NEAR	; CWnd::InvokeHelper
; Function compile flags: /Odt /RTCsu
; File d:\boxgit\playbox\playbox\dev\prj\playbox\src\gui\commoncontrol\ie_explorer.h
;	COMDAT ?get_Document@CWebBrowser@@QAEPAUIDispatch@@XZ
_TEXT	SEGMENT
_result$ = -12						; size = 4
_this$ = -4						; size = 4
?get_Document@CWebBrowser@@QAEPAUIDispatch@@XZ PROC NEAR ; CWebBrowser::get_Document, COMDAT
; _this$ = ecx

; 222  : 	{

  00000	55		 push	 ebp
  00001	8b ec		 mov	 ebp, esp
  00003	83 ec 10	 sub	 esp, 16			; 00000010H
  00006	b8 cc cc cc cc	 mov	 eax, -858993460		; ccccccccH
  0000b	89 45 f0	 mov	 DWORD PTR [ebp-16], eax
  0000e	89 45 f4	 mov	 DWORD PTR [ebp-12], eax
  00011	89 45 f8	 mov	 DWORD PTR [ebp-8], eax
  00014	89 45 fc	 mov	 DWORD PTR [ebp-4], eax
  00017	89 4d fc	 mov	 DWORD PTR _this$[ebp], ecx

; 223  : 		LPDISPATCH result;
; 224  : 		InvokeHelper(0xcb, DISPATCH_PROPERTYGET, VT_DISPATCH, (void*)&result, NULL);

  0001a	6a 00		 push	 0
  0001c	8d 45 f4	 lea	 eax, DWORD PTR _result$[ebp]
  0001f	50		 push	 eax
  00020	6a 09		 push	 9
  00022	6a 02		 push	 2
  00024	68 cb 00 00 00	 push	 203			; 000000cbH
  00029	8b 4d fc	 mov	 ecx, DWORD PTR _this$[ebp]
  0002c	51		 push	 ecx
  0002d	e8 00 00 00 00	 call	 ?InvokeHelper@CWnd@@QAAXJGGPAXPBEZZ ; CWnd::InvokeHelper
  00032	83 c4 18	 add	 esp, 24			; 00000018H

; 225  : 		return result;

  00035	8b 45 f4	 mov	 eax, DWORD PTR _result$[ebp]

; 226  : 	}

  00038	52		 push	 edx
  00039	8b cd		 mov	 ecx, ebp
  0003b	50		 push	 eax
  0003c	8d 15 00 00 00
	00		 lea	 edx, DWORD PTR $L191638
  00042	e8 00 00 00 00	 call	 @_RTC_CheckStackVars@8
  00047	58		 pop	 eax
  00048	5a		 pop	 edx
  00049	83 c4 10	 add	 esp, 16			; 00000010H
  0004c	3b ec		 cmp	 ebp, esp
  0004e	e8 00 00 00 00	 call	 __RTC_CheckEsp
  00053	8b e5		 mov	 esp, ebp
  00055	5d		 pop	 ebp
  00056	c3		 ret	 0
$L191638:
  00057	01 00 00 00	 DD	 1
  0005b	00 00 00 00	 DD	 $L191637
$L191637:
  0005f	f4 ff ff ff	 DD	 -12			; fffffff4H
  00063	04 00 00 00	 DD	 4
  00067	00 00 00 00	 DD	 $L191636
$L191636:
  0006b	72		 DB	 114			; 00000072H
  0006c	65		 DB	 101			; 00000065H
  0006d	73		 DB	 115			; 00000073H
  0006e	75		 DB	 117			; 00000075H
  0006f	6c		 DB	 108			; 0000006cH
  00070	74		 DB	 116			; 00000074H
  00071	00		 DB	 0
?get_Document@CWebBrowser@@QAEPAUIDispatch@@XZ ENDP	; CWebBrowser::get_Document
_TEXT	ENDS
PUBLIC	?_AtlGetConversionACP@ATL@@YGIXZ		; ATL::_AtlGetConversionACP
PUBLIC	?A2WBSTR@@YAPA_WPBDH@Z				; A2WBSTR
; Function compile flags: /Odt /RTCsu
; File d:\program files (x86)\microsoft visual studio .net 2003\vc7\atlmfc\include\atlconv.h
;	COMDAT ?A2BSTR@@YAPA_WPBD@Z
_TEXT	SEGMENT
__lpa$ = -16						; size = 4
__lpw$ = -12						; size = 4
__acp$ = -8						; size = 4
__convert$ = -4						; size = 4
_lp$ = 8						; size = 4
?A2BSTR@@YAPA_WPBD@Z PROC NEAR				; A2BSTR, COMDAT

; 825  : 	inline BSTR A2BSTR(LPCSTR lp) {USES_CONVERSION; return A2WBSTR(lp);}

  00000	55		 push	 ebp
  00001	8b ec		 mov	 ebp, esp
  00003	83 ec 10	 sub	 esp, 16			; 00000010H
  00006	b8 cc cc cc cc	 mov	 eax, -858993460		; ccccccccH
  0000b	89 45 f0	 mov	 DWORD PTR [ebp-16], eax
  0000e	89 45 f4	 mov	 DWORD PTR [ebp-12], eax
  00011	89 45 f8	 mov	 DWORD PTR [ebp-8], eax
  00014	89 45 fc	 mov	 DWORD PTR [ebp-4], eax
  00017	c7 45 fc 00 00
	00 00		 mov	 DWORD PTR __convert$[ebp], 0
  0001e	e8 00 00 00 00	 call	 ?_AtlGetConversionACP@ATL@@YGIXZ ; ATL::_AtlGetConversionACP
  00023	89 45 f8	 mov	 DWORD PTR __acp$[ebp], eax
  00026	c7 45 f4 00 00
	00 00		 mov	 DWORD PTR __lpw$[ebp], 0
  0002d	c7 45 f0 00 00
	00 00		 mov	 DWORD PTR __lpa$[ebp], 0
  00034	6a ff		 push	 -1
  00036	8b 45 08	 mov	 eax, DWORD PTR _lp$[ebp]
  00039	50		 push	 eax
  0003a	e8 00 00 00 00	 call	 ?A2WBSTR@@YAPA_WPBDH@Z	; A2WBSTR
  0003f	83 c4 08	 add	 esp, 8
  00042	83 c4 10	 add	 esp, 16			; 00000010H
  00045	3b ec		 cmp	 ebp, esp
  00047	e8 00 00 00 00	 call	 __RTC_CheckEsp
  0004c	8b e5		 mov	 esp, ebp
  0004e	5d		 pop	 ebp
  0004f	c3		 ret	 0
?A2BSTR@@YAPA_WPBD@Z ENDP				; A2BSTR
; Function compile flags: /Odt /RTCsu
_TEXT	ENDS
;	COMDAT ?_AtlGetConversionACP@ATL@@YGIXZ
_TEXT	SEGMENT
?_AtlGetConversionACP@ATL@@YGIXZ PROC NEAR		; ATL::_AtlGetConversionACP, COMDAT

; 157  : {

  00000	55		 push	 ebp
  00001	8b ec		 mov	 ebp, esp
  00003	56		 push	 esi

; 158  : 	return( g_pfnGetThreadACP() );

  00004	8b f4		 mov	 esi, esp
  00006	ff 15 00 00 00
	00		 call	 DWORD PTR ?g_pfnGetThreadACP@ATL@@3P6GIXZA ; ATL::g_pfnGetThreadACP
  0000c	3b f4		 cmp	 esi, esp
  0000e	e8 00 00 00 00	 call	 __RTC_CheckEsp

; 159  : }

  00013	5e		 pop	 esi
  00014	3b ec		 cmp	 ebp, esp
  00016	e8 00 00 00 00	 call	 __RTC_CheckEsp
  0001b	5d		 pop	 ebp
  0001c	c3		 ret	 0
?_AtlGetConversionACP@ATL@@YGIXZ ENDP			; ATL::_AtlGetConversionACP
_TEXT	ENDS
PUBLIC	??_C@_0FG@PFHCBDBK@D?3?2Program?5Files?5?$CIx86?$CJ?2Microsoft@ ; `string'
PUBLIC	??0?$CAtlSafeAllocBufferManager@VCCRTAllocator@ATL@@@_ATL_SAFE_ALLOCA_IMPL@ATL@@QAE@XZ ; ATL::_ATL_SAFE_ALLOCA_IMPL::CAtlSafeAllocBufferManager<ATL::CCRTAllocator>::CAtlSafeAllocBufferManager<ATL::CCRTAllocator>
PUBLIC	??1?$CAtlSafeAllocBufferManager@VCCRTAllocator@ATL@@@_ATL_SAFE_ALLOCA_IMPL@ATL@@QAE@XZ ; ATL::_ATL_SAFE_ALLOCA_IMPL::CAtlSafeAllocBufferManager<ATL::CCRTAllocator>::~CAtlSafeAllocBufferManager<ATL::CCRTAllocator>
PUBLIC	??_C@_0BJ@OGJFCAD@nResult?5?$DN?$DN?5nConvertedLen?$AA@ ; `string'
EXTRN	__imp___CrtDbgReport:NEAR
EXTRN	__imp__MultiByteToWideChar@24:NEAR
EXTRN	__imp__SysAllocStringLen@8:NEAR
;	COMDAT xdata$x
xdata$x	SEGMENT
$T191652 DD	0ffffffffH
	DD	FLAT:$L191645
$T191647 DD	019930520H
	DD	01H
	DD	FLAT:$T191652
	DD	2 DUP(00H)
	DD	2 DUP(00H)
xdata$x	ENDS
;	COMDAT ??_C@_0BJ@OGJFCAD@nResult?5?$DN?$DN?5nConvertedLen?$AA@
CONST	SEGMENT
??_C@_0BJ@OGJFCAD@nResult?5?$DN?$DN?5nConvertedLen?$AA@ DB 'nResult == nC'
	DB	'onvertedLen', 00H				; `string'
CONST	ENDS
;	COMDAT ??_C@_0FG@PFHCBDBK@D?3?2Program?5Files?5?$CIx86?$CJ?2Microsoft@
CONST	SEGMENT
??_C@_0FG@PFHCBDBK@D?3?2Program?5Files?5?$CIx86?$CJ?2Microsoft@ DB 'D:\Pr'
	DB	'ogram Files (x86)\Microsoft Visual Studio .NET 2003\Vc7\atlmf'
	DB	'c\include\atlconv.h', 00H			; `string'
; Function compile flags: /Odt /RTCsu
CONST	ENDS
;	COMDAT ?A2WBSTR@@YAPA_WPBDH@Z
_TEXT	SEGMENT
$T191644 = -64						; size = 4
$T191643 = -60						; size = 4
_nResult$24434 = -56					; size = 4
_nAllocLen$ = -52					; size = 4
_nConvertedLen$ = -48					; size = 4
_str$ = -44						; size = 4
__AtlSafeAllocaManager$ = -36				; size = 4
__lpa_ex$ = -28						; size = 4
__lpw_ex$ = -24						; size = 4
__acp_ex$ = -20						; size = 4
__convert_ex$ = -16					; size = 4
__$EHRec$ = -12						; size = 12
_lp$ = 8						; size = 4
_nLen$ = 12						; size = 4
?A2WBSTR@@YAPA_WPBDH@Z PROC NEAR			; A2WBSTR, COMDAT

; 775  : {

  00000	55		 push	 ebp
  00001	8b ec		 mov	 ebp, esp
  00003	6a ff		 push	 -1
  00005	68 00 00 00 00	 push	 __ehhandler$?A2WBSTR@@YAPA_WPBDH@Z
  0000a	64 a1 00 00 00
	00		 mov	 eax, DWORD PTR fs:__except_list
  00010	50		 push	 eax
  00011	64 89 25 00 00
	00 00		 mov	 DWORD PTR fs:__except_list, esp
  00018	83 ec 34	 sub	 esp, 52			; 00000034H
  0001b	56		 push	 esi
  0001c	57		 push	 edi
  0001d	8d 7d c0	 lea	 edi, DWORD PTR [ebp-64]
  00020	b9 0d 00 00 00	 mov	 ecx, 13			; 0000000dH
  00025	b8 cc cc cc cc	 mov	 eax, -858993460		; ccccccccH
  0002a	f3 ab		 rep stosd

; 776  : 	if (lp == NULL || nLen == 0)

  0002c	83 7d 08 00	 cmp	 DWORD PTR _lp$[ebp], 0
  00030	74 06		 je	 SHORT $L24407
  00032	83 7d 0c 00	 cmp	 DWORD PTR _nLen$[ebp], 0
  00036	75 07		 jne	 SHORT $L24406
$L24407:

; 777  : 		return NULL;

  00038	33 c0		 xor	 eax, eax
  0003a	e9 37 01 00 00	 jmp	 $L24405
$L24406:

; 778  : 	USES_CONVERSION_EX;

  0003f	c7 45 f0 00 00
	00 00		 mov	 DWORD PTR __convert_ex$[ebp], 0
  00046	e8 00 00 00 00	 call	 ?_AtlGetConversionACP@ATL@@YGIXZ ; ATL::_AtlGetConversionACP
  0004b	89 45 ec	 mov	 DWORD PTR __acp_ex$[ebp], eax
  0004e	c7 45 e8 00 00
	00 00		 mov	 DWORD PTR __lpw_ex$[ebp], 0
  00055	c7 45 e4 00 00
	00 00		 mov	 DWORD PTR __lpa_ex$[ebp], 0
  0005c	8d 4d dc	 lea	 ecx, DWORD PTR __AtlSafeAllocaManager$[ebp]
  0005f	e8 00 00 00 00	 call	 ??0?$CAtlSafeAllocBufferManager@VCCRTAllocator@ATL@@@_ATL_SAFE_ALLOCA_IMPL@ATL@@QAE@XZ ; ATL::_ATL_SAFE_ALLOCA_IMPL::CAtlSafeAllocBufferManager<ATL::CCRTAllocator>::CAtlSafeAllocBufferManager<ATL::CCRTAllocator>
  00064	c7 45 fc 00 00
	00 00		 mov	 DWORD PTR __$EHRec$[ebp+8], 0

; 779  : 	BSTR str = NULL;

  0006b	c7 45 d4 00 00
	00 00		 mov	 DWORD PTR _str$[ebp], 0

; 780  : 	int nConvertedLen = MultiByteToWideChar(_acp_ex, 0, lp,
; 781  : 		nLen, NULL, NULL);

  00072	8b f4		 mov	 esi, esp
  00074	6a 00		 push	 0
  00076	6a 00		 push	 0
  00078	8b 45 0c	 mov	 eax, DWORD PTR _nLen$[ebp]
  0007b	50		 push	 eax
  0007c	8b 4d 08	 mov	 ecx, DWORD PTR _lp$[ebp]
  0007f	51		 push	 ecx
  00080	6a 00		 push	 0
  00082	8b 55 ec	 mov	 edx, DWORD PTR __acp_ex$[ebp]
  00085	52		 push	 edx
  00086	ff 15 00 00 00
	00		 call	 DWORD PTR __imp__MultiByteToWideChar@24
  0008c	3b f4		 cmp	 esi, esp
  0008e	e8 00 00 00 00	 call	 __RTC_CheckEsp
  00093	89 45 d0	 mov	 DWORD PTR _nConvertedLen$[ebp], eax

; 782  : 	int nAllocLen = nConvertedLen;

  00096	8b 45 d0	 mov	 eax, DWORD PTR _nConvertedLen$[ebp]
  00099	89 45 cc	 mov	 DWORD PTR _nAllocLen$[ebp], eax

; 783  : 	if (nLen == -1)

  0009c	83 7d 0c ff	 cmp	 DWORD PTR _nLen$[ebp], -1
  000a0	75 09		 jne	 SHORT $L24432

; 784  : 		nAllocLen -= 1;  // Don't allocate terminating '\0'

  000a2	8b 4d cc	 mov	 ecx, DWORD PTR _nAllocLen$[ebp]
  000a5	83 e9 01	 sub	 ecx, 1
  000a8	89 4d cc	 mov	 DWORD PTR _nAllocLen$[ebp], ecx
$L24432:

; 785  : 	str = ::SysAllocStringLen(NULL, nAllocLen);

  000ab	8b f4		 mov	 esi, esp
  000ad	8b 55 cc	 mov	 edx, DWORD PTR _nAllocLen$[ebp]
  000b0	52		 push	 edx
  000b1	6a 00		 push	 0
  000b3	ff 15 00 00 00
	00		 call	 DWORD PTR __imp__SysAllocStringLen@8
  000b9	3b f4		 cmp	 esi, esp
  000bb	e8 00 00 00 00	 call	 __RTC_CheckEsp
  000c0	89 45 d4	 mov	 DWORD PTR _str$[ebp], eax

; 786  : 
; 787  : 	if (str != NULL)

  000c3	83 7d d4 00	 cmp	 DWORD PTR _str$[ebp], 0
  000c7	0f 84 91 00 00
	00		 je	 $L24433

; 788  : 	{
; 789  : 		int nResult;
; 790  : 		nResult = MultiByteToWideChar(_acp_ex, 0, lp, nLen, str, nConvertedLen);

  000cd	8b f4		 mov	 esi, esp
  000cf	8b 45 d0	 mov	 eax, DWORD PTR _nConvertedLen$[ebp]
  000d2	50		 push	 eax
  000d3	8b 4d d4	 mov	 ecx, DWORD PTR _str$[ebp]
  000d6	51		 push	 ecx
  000d7	8b 55 0c	 mov	 edx, DWORD PTR _nLen$[ebp]
  000da	52		 push	 edx
  000db	8b 45 08	 mov	 eax, DWORD PTR _lp$[ebp]
  000de	50		 push	 eax
  000df	6a 00		 push	 0
  000e1	8b 4d ec	 mov	 ecx, DWORD PTR __acp_ex$[ebp]
  000e4	51		 push	 ecx
  000e5	ff 15 00 00 00
	00		 call	 DWORD PTR __imp__MultiByteToWideChar@24
  000eb	3b f4		 cmp	 esi, esp
  000ed	e8 00 00 00 00	 call	 __RTC_CheckEsp
  000f2	89 45 c8	 mov	 DWORD PTR _nResult$24434[ebp], eax

; 791  : 		ATLASSERT(nResult == nConvertedLen);

  000f5	8b 55 c8	 mov	 edx, DWORD PTR _nResult$24434[ebp]
  000f8	3b 55 d0	 cmp	 edx, DWORD PTR _nConvertedLen$[ebp]
  000fb	74 2b		 je	 SHORT $L191642
  000fd	8b f4		 mov	 esi, esp
  000ff	68 00 00 00 00	 push	 OFFSET FLAT:??_C@_0BJ@OGJFCAD@nResult?5?$DN?$DN?5nConvertedLen?$AA@
  00104	6a 00		 push	 0
  00106	68 17 03 00 00	 push	 791			; 00000317H
  0010b	68 00 00 00 00	 push	 OFFSET FLAT:??_C@_0FG@PFHCBDBK@D?3?2Program?5Files?5?$CIx86?$CJ?2Microsoft@
  00110	6a 02		 push	 2
  00112	ff 15 00 00 00
	00		 call	 DWORD PTR __imp___CrtDbgReport
  00118	83 c4 14	 add	 esp, 20			; 00000014H
  0011b	3b f4		 cmp	 esi, esp
  0011d	e8 00 00 00 00	 call	 __RTC_CheckEsp
  00122	83 f8 01	 cmp	 eax, 1
  00125	75 01		 jne	 SHORT $L191642
  00127	cc		 int	 3
$L191642:

; 792  : 		if(nResult != nConvertedLen)

  00128	8b 4d c8	 mov	 ecx, DWORD PTR _nResult$24434[ebp]
  0012b	3b 4d d0	 cmp	 ecx, DWORD PTR _nConvertedLen$[ebp]
  0012e	74 2e		 je	 SHORT $L24433

; 793  : 		{
; 794  : 			SysFreeString(str);

  00130	8b f4		 mov	 esi, esp
  00132	8b 55 d4	 mov	 edx, DWORD PTR _str$[ebp]
  00135	52		 push	 edx
  00136	ff 15 00 00 00
	00		 call	 DWORD PTR __imp__SysFreeString@4
  0013c	3b f4		 cmp	 esi, esp
  0013e	e8 00 00 00 00	 call	 __RTC_CheckEsp

; 795  : 			return NULL;

  00143	c7 45 c4 00 00
	00 00		 mov	 DWORD PTR $T191643[ebp], 0
  0014a	c7 45 fc ff ff
	ff ff		 mov	 DWORD PTR __$EHRec$[ebp+8], -1
  00151	8d 4d dc	 lea	 ecx, DWORD PTR __AtlSafeAllocaManager$[ebp]
  00154	e8 00 00 00 00	 call	 ??1?$CAtlSafeAllocBufferManager@VCCRTAllocator@ATL@@@_ATL_SAFE_ALLOCA_IMPL@ATL@@QAE@XZ ; ATL::_ATL_SAFE_ALLOCA_IMPL::CAtlSafeAllocBufferManager<ATL::CCRTAllocator>::~CAtlSafeAllocBufferManager<ATL::CCRTAllocator>
  00159	8b 45 c4	 mov	 eax, DWORD PTR $T191643[ebp]
  0015c	eb 18		 jmp	 SHORT $L24405
$L24433:

; 796  : 		}
; 797  : 
; 798  : 	}
; 799  : 	return str;

  0015e	8b 45 d4	 mov	 eax, DWORD PTR _str$[ebp]
  00161	89 45 c0	 mov	 DWORD PTR $T191644[ebp], eax
  00164	c7 45 fc ff ff
	ff ff		 mov	 DWORD PTR __$EHRec$[ebp+8], -1
  0016b	8d 4d dc	 lea	 ecx, DWORD PTR __AtlSafeAllocaManager$[ebp]
  0016e	e8 00 00 00 00	 call	 ??1?$CAtlSafeAllocBufferManager@VCCRTAllocator@ATL@@@_ATL_SAFE_ALLOCA_IMPL@ATL@@QAE@XZ ; ATL::_ATL_SAFE_ALLOCA_IMPL::CAtlSafeAllocBufferManager<ATL::CCRTAllocator>::~CAtlSafeAllocBufferManager<ATL::CCRTAllocator>
  00173	8b 45 c0	 mov	 eax, DWORD PTR $T191644[ebp]
$L24405:

; 800  : }

  00176	52		 push	 edx
  00177	8b cd		 mov	 ecx, ebp
  00179	50		 push	 eax
  0017a	8d 15 00 00 00
	00		 lea	 edx, DWORD PTR $L191651
  00180	e8 00 00 00 00	 call	 @_RTC_CheckStackVars@8
  00185	58		 pop	 eax
  00186	5a		 pop	 edx
  00187	8b 4d f4	 mov	 ecx, DWORD PTR __$EHRec$[ebp]
  0018a	64 89 0d 00 00
	00 00		 mov	 DWORD PTR fs:__except_list, ecx
  00191	5f		 pop	 edi
  00192	5e		 pop	 esi
  00193	83 c4 40	 add	 esp, 64			; 00000040H
  00196	3b ec		 cmp	 ebp, esp
  00198	e8 00 00 00 00	 call	 __RTC_CheckEsp
  0019d	8b e5		 mov	 esp, ebp
  0019f	5d		 pop	 ebp
  001a0	c3		 ret	 0
$L191651:
  001a1	01 00 00 00	 DD	 1
  001a5	00 00 00 00	 DD	 $L191650
$L191650:
  001a9	dc ff ff ff	 DD	 -36			; ffffffdcH
  001ad	04 00 00 00	 DD	 4
  001b1	00 00 00 00	 DD	 $L191648
$L191648:
  001b5	5f		 DB	 95			; 0000005fH
  001b6	41		 DB	 65			; 00000041H
  001b7	74		 DB	 116			; 00000074H
  001b8	6c		 DB	 108			; 0000006cH
  001b9	53		 DB	 83			; 00000053H
  001ba	61		 DB	 97			; 00000061H
  001bb	66		 DB	 102			; 00000066H
  001bc	65		 DB	 101			; 00000065H
  001bd	41		 DB	 65			; 00000041H
  001be	6c		 DB	 108			; 0000006cH
  001bf	6c		 DB	 108			; 0000006cH
  001c0	6f		 DB	 111			; 0000006fH
  001c1	63		 DB	 99			; 00000063H
  001c2	61		 DB	 97			; 00000061H
  001c3	4d		 DB	 77			; 0000004dH
  001c4	61		 DB	 97			; 00000061H
  001c5	6e		 DB	 110			; 0000006eH
  001c6	61		 DB	 97			; 00000061H
  001c7	67		 DB	 103			; 00000067H
  001c8	65		 DB	 101			; 00000065H
  001c9	72		 DB	 114			; 00000072H
  001ca	00		 DB	 0
_TEXT	ENDS
;	COMDAT text$x
text$x	SEGMENT
$L191645:
  00000	8d 4d dc	 lea	 ecx, DWORD PTR __AtlSafeAllocaManager$[ebp]
  00003	e9 00 00 00 00	 jmp	 ??1?$CAtlSafeAllocBufferManager@VCCRTAllocator@ATL@@@_ATL_SAFE_ALLOCA_IMPL@ATL@@QAE@XZ ; ATL::_ATL_SAFE_ALLOCA_IMPL::CAtlSafeAllocBufferManager<ATL::CCRTAllocator>::~CAtlSafeAllocBufferManager<ATL::CCRTAllocator>
__ehhandler$?A2WBSTR@@YAPA_WPBDH@Z:
  00008	b8 00 00 00 00	 mov	 eax, OFFSET FLAT:$T191647
  0000d	e9 00 00 00 00	 jmp	 ___CxxFrameHandler
text$x	ENDS
?A2WBSTR@@YAPA_WPBDH@Z ENDP				; A2WBSTR
PUBLIC	??1?$CComPtr@UIHTMLDocument2@@@ATL@@QAE@XZ	; ATL::CComPtr<IHTMLDocument2>::~CComPtr<IHTMLDocument2>
; Function compile flags: /Odt /RTCsu
;	COMDAT ??1?$CComQIPtr@UIHTMLDocument2@@$1?IID_IHTMLDocument2@@3U_GUID@@B@ATL@@QAE@XZ
_TEXT	SEGMENT
_this$ = -4						; size = 4
??1?$CComQIPtr@UIHTMLDocument2@@$1?IID_IHTMLDocument2@@3U_GUID@@B@ATL@@QAE@XZ PROC NEAR ; ATL::CComQIPtr<IHTMLDocument2,&IID_IHTMLDocument2>::~CComQIPtr<IHTMLDocument2,&IID_IHTMLDocument2>, COMDAT
; _this$ = ecx
  00000	55		 push	 ebp
  00001	8b ec		 mov	 ebp, esp
  00003	51		 push	 ecx
  00004	c7 45 fc cc cc
	cc cc		 mov	 DWORD PTR [ebp-4], -858993460 ; ccccccccH
  0000b	89 4d fc	 mov	 DWORD PTR _this$[ebp], ecx
  0000e	8b 4d fc	 mov	 ecx, DWORD PTR _this$[ebp]
  00011	e8 00 00 00 00	 call	 ??1?$CComPtr@UIHTMLDocument2@@@ATL@@QAE@XZ
  00016	83 c4 04	 add	 esp, 4
  00019	3b ec		 cmp	 ebp, esp
  0001b	e8 00 00 00 00	 call	 __RTC_CheckEsp
  00020	8b e5		 mov	 esp, ebp
  00022	5d		 pop	 ebp
  00023	c3		 ret	 0
??1?$CComQIPtr@UIHTMLDocument2@@$1?IID_IHTMLDocument2@@3U_GUID@@B@ATL@@QAE@XZ ENDP ; ATL::CComQIPtr<IHTMLDocument2,&IID_IHTMLDocument2>::~CComQIPtr<IHTMLDocument2,&IID_IHTMLDocument2>
_TEXT	ENDS
PUBLIC	??1?$CComPtrBase@UIHTMLElement@@@ATL@@QAE@XZ	; ATL::CComPtrBase<IHTMLElement>::~CComPtrBase<IHTMLElement>
; Function compile flags: /Odt /RTCsu
;	COMDAT ??1?$CComPtr@UIHTMLElement@@@ATL@@QAE@XZ
_TEXT	SEGMENT
_this$ = -4						; size = 4
??1?$CComPtr@UIHTMLElement@@@ATL@@QAE@XZ PROC NEAR	; ATL::CComPtr<IHTMLElement>::~CComPtr<IHTMLElement>, COMDAT
; _this$ = ecx
  00000	55		 push	 ebp
  00001	8b ec		 mov	 ebp, esp
  00003	51		 push	 ecx
  00004	c7 45 fc cc cc
	cc cc		 mov	 DWORD PTR [ebp-4], -858993460 ; ccccccccH
  0000b	89 4d fc	 mov	 DWORD PTR _this$[ebp], ecx
  0000e	8b 4d fc	 mov	 ecx, DWORD PTR _this$[ebp]
  00011	e8 00 00 00 00	 call	 ??1?$CComPtrBase@UIHTMLElement@@@ATL@@QAE@XZ ; ATL::CComPtrBase<IHTMLElement>::~CComPtrBase<IHTMLElement>
  00016	83 c4 04	 add	 esp, 4
  00019	3b ec		 cmp	 ebp, esp
  0001b	e8 00 00 00 00	 call	 __RTC_CheckEsp
  00020	8b e5		 mov	 esp, ebp
  00022	5d		 pop	 ebp
  00023	c3		 ret	 0
??1?$CComPtr@UIHTMLElement@@@ATL@@QAE@XZ ENDP		; ATL::CComPtr<IHTMLElement>::~CComPtr<IHTMLElement>
_TEXT	ENDS
PUBLIC	??1?$CComPtrBase@UIHTMLStyle@@@ATL@@QAE@XZ	; ATL::CComPtrBase<IHTMLStyle>::~CComPtrBase<IHTMLStyle>
; Function compile flags: /Odt /RTCsu
;	COMDAT ??1?$CComPtr@UIHTMLStyle@@@ATL@@QAE@XZ
_TEXT	SEGMENT
_this$ = -4						; size = 4
??1?$CComPtr@UIHTMLStyle@@@ATL@@QAE@XZ PROC NEAR	; ATL::CComPtr<IHTMLStyle>::~CComPtr<IHTMLStyle>, COMDAT
; _this$ = ecx
  00000	55		 push	 ebp
  00001	8b ec		 mov	 ebp, esp
  00003	51		 push	 ecx
  00004	c7 45 fc cc cc
	cc cc		 mov	 DWORD PTR [ebp-4], -858993460 ; ccccccccH
  0000b	89 4d fc	 mov	 DWORD PTR _this$[ebp], ecx
  0000e	8b 4d fc	 mov	 ecx, DWORD PTR _this$[ebp]
  00011	e8 00 00 00 00	 call	 ??1?$CComPtrBase@UIHTMLStyle@@@ATL@@QAE@XZ ; ATL::CComPtrBase<IHTMLStyle>::~CComPtrBase<IHTMLStyle>
  00016	83 c4 04	 add	 esp, 4
  00019	3b ec		 cmp	 ebp, esp
  0001b	e8 00 00 00 00	 call	 __RTC_CheckEsp
  00020	8b e5		 mov	 esp, ebp
  00022	5d		 pop	 ebp
  00023	c3		 ret	 0
??1?$CComPtr@UIHTMLStyle@@@ATL@@QAE@XZ ENDP		; ATL::CComPtr<IHTMLStyle>::~CComPtr<IHTMLStyle>
_TEXT	ENDS
PUBLIC	??1?$CComPtrBase@UIHTMLDocument2@@@ATL@@QAE@XZ	; ATL::CComPtrBase<IHTMLDocument2>::~CComPtrBase<IHTMLDocument2>
; Function compile flags: /Odt /RTCsu
;	COMDAT ??1?$CComPtr@UIHTMLDocument2@@@ATL@@QAE@XZ
_TEXT	SEGMENT
_this$ = -4						; size = 4
??1?$CComPtr@UIHTMLDocument2@@@ATL@@QAE@XZ PROC NEAR	; ATL::CComPtr<IHTMLDocument2>::~CComPtr<IHTMLDocument2>, COMDAT
; _this$ = ecx
  00000	55		 push	 ebp
  00001	8b ec		 mov	 ebp, esp
  00003	51		 push	 ecx
  00004	c7 45 fc cc cc
	cc cc		 mov	 DWORD PTR [ebp-4], -858993460 ; ccccccccH
  0000b	89 4d fc	 mov	 DWORD PTR _this$[ebp], ecx
  0000e	8b 4d fc	 mov	 ecx, DWORD PTR _this$[ebp]
  00011	e8 00 00 00 00	 call	 ??1?$CComPtrBase@UIHTMLDocument2@@@ATL@@QAE@XZ ; ATL::CComPtrBase<IHTMLDocument2>::~CComPtrBase<IHTMLDocument2>
  00016	83 c4 04	 add	 esp, 4
  00019	3b ec		 cmp	 ebp, esp
  0001b	e8 00 00 00 00	 call	 __RTC_CheckEsp
  00020	8b e5		 mov	 esp, ebp
  00022	5d		 pop	 ebp
  00023	c3		 ret	 0
??1?$CComPtr@UIHTMLDocument2@@@ATL@@QAE@XZ ENDP		; ATL::CComPtr<IHTMLDocument2>::~CComPtr<IHTMLDocument2>
_TEXT	ENDS
EXTRN	?ShowWindow@CWnd@@QAEHH@Z:NEAR			; CWnd::ShowWindow
EXTRN	?GetParent@CWnd@@QBEPAV1@XZ:NEAR		; CWnd::GetParent
; Function compile flags: /Odt /RTCsu
; File d:\boxgit\playbox\playbox\dev\prj\playbox\src\gui\commoncontrol\ie_explorer.cpp
_TEXT	SEGMENT
_pWnd$ = -8						; size = 4
_this$ = -4						; size = 4
_lpDisp$ = 8						; size = 4
_URL$ = 12						; size = 4
?OnDocumentComplete@CWebBrowser@@QAEXPAUIDispatch@@PAUtagVARIANT@@@Z PROC NEAR ; CWebBrowser::OnDocumentComplete
; _this$ = ecx

; 116  : {

  004e0	55		 push	 ebp
  004e1	8b ec		 mov	 ebp, esp
  004e3	83 ec 08	 sub	 esp, 8
  004e6	c7 45 f8 cc cc
	cc cc		 mov	 DWORD PTR [ebp-8], -858993460 ; ccccccccH
  004ed	c7 45 fc cc cc
	cc cc		 mov	 DWORD PTR [ebp-4], -858993460 ; ccccccccH
  004f4	89 4d fc	 mov	 DWORD PTR _this$[ebp], ecx

; 117  : 	CWnd *pWnd = GetParent();

  004f7	8b 4d fc	 mov	 ecx, DWORD PTR _this$[ebp]
  004fa	e8 00 00 00 00	 call	 ?GetParent@CWnd@@QBEPAV1@XZ ; CWnd::GetParent
  004ff	89 45 f8	 mov	 DWORD PTR _pWnd$[ebp], eax

; 118  : 	if(pWnd != NULL && URL != NULL)

  00502	83 7d f8 00	 cmp	 DWORD PTR _pWnd$[ebp], 0
  00506	74 10		 je	 SHORT $L190871
  00508	83 7d 0c 00	 cmp	 DWORD PTR _URL$[ebp], 0
  0050c	74 0a		 je	 SHORT $L190871

; 119  : 	{
; 120  : 		pWnd->ShowWindow(SW_SHOWNOACTIVATE);

  0050e	6a 04		 push	 4
  00510	8b 4d f8	 mov	 ecx, DWORD PTR _pWnd$[ebp]
  00513	e8 00 00 00 00	 call	 ?ShowWindow@CWnd@@QAEHH@Z ; CWnd::ShowWindow
$L190871:

; 121  : 	}
; 122  : }

  00518	83 c4 08	 add	 esp, 8
  0051b	3b ec		 cmp	 ebp, esp
  0051d	e8 00 00 00 00	 call	 __RTC_CheckEsp
  00522	8b e5		 mov	 esp, ebp
  00524	5d		 pop	 ebp
  00525	c2 08 00	 ret	 8
?OnDocumentComplete@CWebBrowser@@QAEXPAUIDispatch@@PAUtagVARIANT@@@Z ENDP ; CWebBrowser::OnDocumentComplete
; Function compile flags: /Odt /RTCsu
; File d:\program files (x86)\microsoft visual studio .net 2003\vc7\atlmfc\include\atlcomcli.h
_TEXT	ENDS
;	COMDAT ??B?$CComPtrBase@UIDispatch@@@ATL@@QBEPAUIDispatch@@XZ
_TEXT	SEGMENT
_this$ = -4						; size = 4
??B?$CComPtrBase@UIDispatch@@@ATL@@QBEPAUIDispatch@@XZ PROC NEAR ; ATL::CComPtrBase<IDispatch>::operator IDispatch *, COMDAT
; _this$ = ecx

; 131  : 	{

  00000	55		 push	 ebp
  00001	8b ec		 mov	 ebp, esp
  00003	51		 push	 ecx
  00004	c7 45 fc cc cc
	cc cc		 mov	 DWORD PTR [ebp-4], -858993460 ; ccccccccH
  0000b	89 4d fc	 mov	 DWORD PTR _this$[ebp], ecx

; 132  : 		return p;

  0000e	8b 45 fc	 mov	 eax, DWORD PTR _this$[ebp]
  00011	8b 00		 mov	 eax, DWORD PTR [eax]

; 133  : 	}

  00013	8b e5		 mov	 esp, ebp
  00015	5d		 pop	 ebp
  00016	c3		 ret	 0
??B?$CComPtrBase@UIDispatch@@@ATL@@QBEPAUIDispatch@@XZ ENDP ; ATL::CComPtrBase<IDispatch>::operator IDispatch *
; Function compile flags: /Odt /RTCsu
_TEXT	ENDS
;	COMDAT ??1?$CComPtrBase@UIHTMLDocument2@@@ATL@@QAE@XZ
_TEXT	SEGMENT
_this$ = -4						; size = 4
??1?$CComPtrBase@UIHTMLDocument2@@@ATL@@QAE@XZ PROC NEAR ; ATL::CComPtrBase<IHTMLDocument2>::~CComPtrBase<IHTMLDocument2>, COMDAT
; _this$ = ecx

; 126  : 	{

  00000	55		 push	 ebp
  00001	8b ec		 mov	 ebp, esp
  00003	51		 push	 ecx
  00004	56		 push	 esi
  00005	c7 45 fc cc cc
	cc cc		 mov	 DWORD PTR [ebp-4], -858993460 ; ccccccccH
  0000c	89 4d fc	 mov	 DWORD PTR _this$[ebp], ecx

; 127  : 		if (p)

  0000f	8b 45 fc	 mov	 eax, DWORD PTR _this$[ebp]
  00012	83 38 00	 cmp	 DWORD PTR [eax], 0
  00015	74 19		 je	 SHORT $L190925

; 128  : 			p->Release();

  00017	8b 4d fc	 mov	 ecx, DWORD PTR _this$[ebp]
  0001a	8b 11		 mov	 edx, DWORD PTR [ecx]
  0001c	8b 45 fc	 mov	 eax, DWORD PTR _this$[ebp]
  0001f	8b 08		 mov	 ecx, DWORD PTR [eax]
  00021	8b 12		 mov	 edx, DWORD PTR [edx]
  00023	8b f4		 mov	 esi, esp
  00025	51		 push	 ecx
  00026	ff 52 08	 call	 DWORD PTR [edx+8]
  00029	3b f4		 cmp	 esi, esp
  0002b	e8 00 00 00 00	 call	 __RTC_CheckEsp
$L190925:

; 129  : 	}

  00030	5e		 pop	 esi
  00031	83 c4 04	 add	 esp, 4
  00034	3b ec		 cmp	 ebp, esp
  00036	e8 00 00 00 00	 call	 __RTC_CheckEsp
  0003b	8b e5		 mov	 esp, ebp
  0003d	5d		 pop	 ebp
  0003e	c3		 ret	 0
??1?$CComPtrBase@UIHTMLDocument2@@@ATL@@QAE@XZ ENDP	; ATL::CComPtrBase<IHTMLDocument2>::~CComPtrBase<IHTMLDocument2>
_TEXT	ENDS
PUBLIC	??_C@_0FI@FDBICBML@D?3?2Program?5Files?5?$CIx86?$CJ?2Microsoft@ ; `string'
PUBLIC	??_C@_04CLHEGAEG@p?$CB?$DN0?$AA@		; `string'
;	COMDAT ??_C@_04CLHEGAEG@p?$CB?$DN0?$AA@
CONST	SEGMENT
??_C@_04CLHEGAEG@p?$CB?$DN0?$AA@ DB 'p!=0', 00H		; `string'
CONST	ENDS
;	COMDAT ??_C@_0FI@FDBICBML@D?3?2Program?5Files?5?$CIx86?$CJ?2Microsoft@
CONST	SEGMENT
??_C@_0FI@FDBICBML@D?3?2Program?5Files?5?$CIx86?$CJ?2Microsoft@ DB 'D:\Pr'
	DB	'ogram Files (x86)\Microsoft Visual Studio .NET 2003\Vc7\atlmf'
	DB	'c\include\atlcomcli.h', 00H			; `string'
; Function compile flags: /Odt /RTCsu
CONST	ENDS
;	COMDAT ??C?$CComPtrBase@UIHTMLDocument2@@@ATL@@QBEPAV?$_NoAddRefReleaseOnCComPtr@UIHTMLDocument2@@@1@XZ
_TEXT	SEGMENT
_this$ = -4						; size = 4
??C?$CComPtrBase@UIHTMLDocument2@@@ATL@@QBEPAV?$_NoAddRefReleaseOnCComPtr@UIHTMLDocument2@@@1@XZ PROC NEAR ; ATL::CComPtrBase<IHTMLDocument2>::operator->, COMDAT
; _this$ = ecx

; 147  : 	{

  00000	55		 push	 ebp
  00001	8b ec		 mov	 ebp, esp
  00003	51		 push	 ecx
  00004	56		 push	 esi
  00005	c7 45 fc cc cc
	cc cc		 mov	 DWORD PTR [ebp-4], -858993460 ; ccccccccH
  0000c	89 4d fc	 mov	 DWORD PTR _this$[ebp], ecx

; 148  : 		ATLASSERT(p!=NULL);

  0000f	8b 45 fc	 mov	 eax, DWORD PTR _this$[ebp]
  00012	83 38 00	 cmp	 DWORD PTR [eax], 0
  00015	75 2b		 jne	 SHORT $L191663
  00017	8b f4		 mov	 esi, esp
  00019	68 00 00 00 00	 push	 OFFSET FLAT:??_C@_04CLHEGAEG@p?$CB?$DN0?$AA@
  0001e	6a 00		 push	 0
  00020	68 94 00 00 00	 push	 148			; 00000094H
  00025	68 00 00 00 00	 push	 OFFSET FLAT:??_C@_0FI@FDBICBML@D?3?2Program?5Files?5?$CIx86?$CJ?2Microsoft@
  0002a	6a 02		 push	 2
  0002c	ff 15 00 00 00
	00		 call	 DWORD PTR __imp___CrtDbgReport
  00032	83 c4 14	 add	 esp, 20			; 00000014H
  00035	3b f4		 cmp	 esi, esp
  00037	e8 00 00 00 00	 call	 __RTC_CheckEsp
  0003c	83 f8 01	 cmp	 eax, 1
  0003f	75 01		 jne	 SHORT $L191663
  00041	cc		 int	 3
$L191663:

; 149  : 		return (_NoAddRefReleaseOnCComPtr<T>*)p;

  00042	8b 55 fc	 mov	 edx, DWORD PTR _this$[ebp]
  00045	8b 02		 mov	 eax, DWORD PTR [edx]

; 150  : 	}

  00047	5e		 pop	 esi
  00048	83 c4 04	 add	 esp, 4
  0004b	3b ec		 cmp	 ebp, esp
  0004d	e8 00 00 00 00	 call	 __RTC_CheckEsp
  00052	8b e5		 mov	 esp, ebp
  00054	5d		 pop	 ebp
  00055	c3		 ret	 0
??C?$CComPtrBase@UIHTMLDocument2@@@ATL@@QBEPAV?$_NoAddRefReleaseOnCComPtr@UIHTMLDocument2@@@1@XZ ENDP ; ATL::CComPtrBase<IHTMLDocument2>::operator->
_TEXT	ENDS
PUBLIC	??0?$CComPtr@UIHTMLDocument2@@@ATL@@QAE@XZ	; ATL::CComPtr<IHTMLDocument2>::CComPtr<IHTMLDocument2>
; Function compile flags: /Odt /RTCsu
;	COMDAT ??0?$CComQIPtr@UIHTMLDocument2@@$1?IID_IHTMLDocument2@@3U_GUID@@B@ATL@@QAE@XZ
_TEXT	SEGMENT
_this$ = -4						; size = 4
??0?$CComQIPtr@UIHTMLDocument2@@$1?IID_IHTMLDocument2@@3U_GUID@@B@ATL@@QAE@XZ PROC NEAR ; ATL::CComQIPtr<IHTMLDocument2,&IID_IHTMLDocument2>::CComQIPtr<IHTMLDocument2,&IID_IHTMLDocument2>, COMDAT
; _this$ = ecx

; 475  : 	CComQIPtr() throw()

  00000	55		 push	 ebp
  00001	8b ec		 mov	 ebp, esp
  00003	51		 push	 ecx
  00004	c7 45 fc cc cc
	cc cc		 mov	 DWORD PTR [ebp-4], -858993460 ; ccccccccH
  0000b	89 4d fc	 mov	 DWORD PTR _this$[ebp], ecx
  0000e	8b 4d fc	 mov	 ecx, DWORD PTR _this$[ebp]
  00011	e8 00 00 00 00	 call	 ??0?$CComPtr@UIHTMLDocument2@@@ATL@@QAE@XZ ; ATL::CComPtr<IHTMLDocument2>::CComPtr<IHTMLDocument2>

; 476  : 	{
; 477  : 	}

  00016	8b 45 fc	 mov	 eax, DWORD PTR _this$[ebp]
  00019	83 c4 04	 add	 esp, 4
  0001c	3b ec		 cmp	 ebp, esp
  0001e	e8 00 00 00 00	 call	 __RTC_CheckEsp
  00023	8b e5		 mov	 esp, ebp
  00025	5d		 pop	 ebp
  00026	c3		 ret	 0
??0?$CComQIPtr@UIHTMLDocument2@@$1?IID_IHTMLDocument2@@3U_GUID@@B@ATL@@QAE@XZ ENDP ; ATL::CComQIPtr<IHTMLDocument2,&IID_IHTMLDocument2>::CComQIPtr<IHTMLDocument2,&IID_IHTMLDocument2>
_TEXT	ENDS
PUBLIC	?AtlComQIPtrAssign@ATL@@YGPAUIUnknown@@PAPAU2@PAU2@ABU_GUID@@@Z ; ATL::AtlComQIPtrAssign
EXTRN	_IID_IHTMLDocument2:BYTE
; Function compile flags: /Odt /RTCsu
;	COMDAT ??4?$CComQIPtr@UIHTMLDocument2@@$1?IID_IHTMLDocument2@@3U_GUID@@B@ATL@@QAEPAUIHTMLDocument2@@PAUIUnknown@@@Z
_TEXT	SEGMENT
_this$ = -4						; size = 4
_lp$ = 8						; size = 4
??4?$CComQIPtr@UIHTMLDocument2@@$1?IID_IHTMLDocument2@@3U_GUID@@B@ATL@@QAEPAUIHTMLDocument2@@PAUIUnknown@@@Z PROC NEAR ; ATL::CComQIPtr<IHTMLDocument2,&IID_IHTMLDocument2>::operator=, COMDAT
; _this$ = ecx

; 500  : 	{

  00000	55		 push	 ebp
  00001	8b ec		 mov	 ebp, esp
  00003	51		 push	 ecx
  00004	c7 45 fc cc cc
	cc cc		 mov	 DWORD PTR [ebp-4], -858993460 ; ccccccccH
  0000b	89 4d fc	 mov	 DWORD PTR _this$[ebp], ecx

; 501  : 		return static_cast<T*>(AtlComQIPtrAssign((IUnknown**)&p, lp, *piid));

  0000e	68 00 00 00 00	 push	 OFFSET FLAT:_IID_IHTMLDocument2
  00013	8b 45 08	 mov	 eax, DWORD PTR _lp$[ebp]
  00016	50		 push	 eax
  00017	8b 4d fc	 mov	 ecx, DWORD PTR _this$[ebp]
  0001a	51		 push	 ecx
  0001b	e8 00 00 00 00	 call	 ?AtlComQIPtrAssign@ATL@@YGPAUIUnknown@@PAPAU2@PAU2@ABU_GUID@@@Z ; ATL::AtlComQIPtrAssign

; 502  : 	}

  00020	83 c4 04	 add	 esp, 4
  00023	3b ec		 cmp	 ebp, esp
  00025	e8 00 00 00 00	 call	 __RTC_CheckEsp
  0002a	8b e5		 mov	 esp, ebp
  0002c	5d		 pop	 ebp
  0002d	c2 04 00	 ret	 4
??4?$CComQIPtr@UIHTMLDocument2@@$1?IID_IHTMLDocument2@@3U_GUID@@B@ATL@@QAEPAUIHTMLDocument2@@PAUIUnknown@@@Z ENDP ; ATL::CComQIPtr<IHTMLDocument2,&IID_IHTMLDocument2>::operator=
_TEXT	ENDS
PUBLIC	??0?$CComPtrBase@UIHTMLElement@@@ATL@@IAE@XZ	; ATL::CComPtrBase<IHTMLElement>::CComPtrBase<IHTMLElement>
; Function compile flags: /Odt /RTCsu
;	COMDAT ??0?$CComPtr@UIHTMLElement@@@ATL@@QAE@XZ
_TEXT	SEGMENT
_this$ = -4						; size = 4
??0?$CComPtr@UIHTMLElement@@@ATL@@QAE@XZ PROC NEAR	; ATL::CComPtr<IHTMLElement>::CComPtr<IHTMLElement>, COMDAT
; _this$ = ecx

; 248  : 	CComPtr() throw()

  00000	55		 push	 ebp
  00001	8b ec		 mov	 ebp, esp
  00003	51		 push	 ecx
  00004	c7 45 fc cc cc
	cc cc		 mov	 DWORD PTR [ebp-4], -858993460 ; ccccccccH
  0000b	89 4d fc	 mov	 DWORD PTR _this$[ebp], ecx
  0000e	8b 4d fc	 mov	 ecx, DWORD PTR _this$[ebp]
  00011	e8 00 00 00 00	 call	 ??0?$CComPtrBase@UIHTMLElement@@@ATL@@IAE@XZ ; ATL::CComPtrBase<IHTMLElement>::CComPtrBase<IHTMLElement>

; 249  : 	{
; 250  : 	}

  00016	8b 45 fc	 mov	 eax, DWORD PTR _this$[ebp]
  00019	83 c4 04	 add	 esp, 4
  0001c	3b ec		 cmp	 ebp, esp
  0001e	e8 00 00 00 00	 call	 __RTC_CheckEsp
  00023	8b e5		 mov	 esp, ebp
  00025	5d		 pop	 ebp
  00026	c3		 ret	 0
??0?$CComPtr@UIHTMLElement@@@ATL@@QAE@XZ ENDP		; ATL::CComPtr<IHTMLElement>::CComPtr<IHTMLElement>
; Function compile flags: /Odt /RTCsu
_TEXT	ENDS
;	COMDAT ??1?$CComPtrBase@UIHTMLElement@@@ATL@@QAE@XZ
_TEXT	SEGMENT
_this$ = -4						; size = 4
??1?$CComPtrBase@UIHTMLElement@@@ATL@@QAE@XZ PROC NEAR	; ATL::CComPtrBase<IHTMLElement>::~CComPtrBase<IHTMLElement>, COMDAT
; _this$ = ecx

; 126  : 	{

  00000	55		 push	 ebp
  00001	8b ec		 mov	 ebp, esp
  00003	51		 push	 ecx
  00004	56		 push	 esi
  00005	c7 45 fc cc cc
	cc cc		 mov	 DWORD PTR [ebp-4], -858993460 ; ccccccccH
  0000c	89 4d fc	 mov	 DWORD PTR _this$[ebp], ecx

; 127  : 		if (p)

  0000f	8b 45 fc	 mov	 eax, DWORD PTR _this$[ebp]
  00012	83 38 00	 cmp	 DWORD PTR [eax], 0
  00015	74 19		 je	 SHORT $L190952

; 128  : 			p->Release();

  00017	8b 4d fc	 mov	 ecx, DWORD PTR _this$[ebp]
  0001a	8b 11		 mov	 edx, DWORD PTR [ecx]
  0001c	8b 45 fc	 mov	 eax, DWORD PTR _this$[ebp]
  0001f	8b 08		 mov	 ecx, DWORD PTR [eax]
  00021	8b 12		 mov	 edx, DWORD PTR [edx]
  00023	8b f4		 mov	 esi, esp
  00025	51		 push	 ecx
  00026	ff 52 08	 call	 DWORD PTR [edx+8]
  00029	3b f4		 cmp	 esi, esp
  0002b	e8 00 00 00 00	 call	 __RTC_CheckEsp
$L190952:

; 129  : 	}

  00030	5e		 pop	 esi
  00031	83 c4 04	 add	 esp, 4
  00034	3b ec		 cmp	 ebp, esp
  00036	e8 00 00 00 00	 call	 __RTC_CheckEsp
  0003b	8b e5		 mov	 esp, ebp
  0003d	5d		 pop	 ebp
  0003e	c3		 ret	 0
??1?$CComPtrBase@UIHTMLElement@@@ATL@@QAE@XZ ENDP	; ATL::CComPtrBase<IHTMLElement>::~CComPtrBase<IHTMLElement>
_TEXT	ENDS
PUBLIC	??_C@_04DBLLIIGB@p?$DN?$DN0?$AA@		; `string'
;	COMDAT ??_C@_04DBLLIIGB@p?$DN?$DN0?$AA@
CONST	SEGMENT
??_C@_04DBLLIIGB@p?$DN?$DN0?$AA@ DB 'p==0', 00H		; `string'
; Function compile flags: /Odt /RTCsu
CONST	ENDS
;	COMDAT ??I?$CComPtrBase@UIHTMLElement@@@ATL@@QAEPAPAUIHTMLElement@@XZ
_TEXT	SEGMENT
_this$ = -4						; size = 4
??I?$CComPtrBase@UIHTMLElement@@@ATL@@QAEPAPAUIHTMLElement@@XZ PROC NEAR ; ATL::CComPtrBase<IHTMLElement>::operator&, COMDAT
; _this$ = ecx

; 142  : 	{

  00000	55		 push	 ebp
  00001	8b ec		 mov	 ebp, esp
  00003	51		 push	 ecx
  00004	56		 push	 esi
  00005	c7 45 fc cc cc
	cc cc		 mov	 DWORD PTR [ebp-4], -858993460 ; ccccccccH
  0000c	89 4d fc	 mov	 DWORD PTR _this$[ebp], ecx

; 143  : 		ATLASSERT(p==NULL);

  0000f	8b 45 fc	 mov	 eax, DWORD PTR _this$[ebp]
  00012	83 38 00	 cmp	 DWORD PTR [eax], 0
  00015	74 2b		 je	 SHORT $L191669
  00017	8b f4		 mov	 esi, esp
  00019	68 00 00 00 00	 push	 OFFSET FLAT:??_C@_04DBLLIIGB@p?$DN?$DN0?$AA@
  0001e	6a 00		 push	 0
  00020	68 8f 00 00 00	 push	 143			; 0000008fH
  00025	68 00 00 00 00	 push	 OFFSET FLAT:??_C@_0FI@FDBICBML@D?3?2Program?5Files?5?$CIx86?$CJ?2Microsoft@
  0002a	6a 02		 push	 2
  0002c	ff 15 00 00 00
	00		 call	 DWORD PTR __imp___CrtDbgReport
  00032	83 c4 14	 add	 esp, 20			; 00000014H
  00035	3b f4		 cmp	 esi, esp
  00037	e8 00 00 00 00	 call	 __RTC_CheckEsp
  0003c	83 f8 01	 cmp	 eax, 1
  0003f	75 01		 jne	 SHORT $L191669
  00041	cc		 int	 3
$L191669:

; 144  : 		return &p;

  00042	8b 45 fc	 mov	 eax, DWORD PTR _this$[ebp]

; 145  : 	}

  00045	5e		 pop	 esi
  00046	83 c4 04	 add	 esp, 4
  00049	3b ec		 cmp	 ebp, esp
  0004b	e8 00 00 00 00	 call	 __RTC_CheckEsp
  00050	8b e5		 mov	 esp, ebp
  00052	5d		 pop	 ebp
  00053	c3		 ret	 0
??I?$CComPtrBase@UIHTMLElement@@@ATL@@QAEPAPAUIHTMLElement@@XZ ENDP ; ATL::CComPtrBase<IHTMLElement>::operator&
; Function compile flags: /Odt /RTCsu
_TEXT	ENDS
;	COMDAT ??C?$CComPtrBase@UIHTMLElement@@@ATL@@QBEPAV?$_NoAddRefReleaseOnCComPtr@UIHTMLElement@@@1@XZ
_TEXT	SEGMENT
_this$ = -4						; size = 4
??C?$CComPtrBase@UIHTMLElement@@@ATL@@QBEPAV?$_NoAddRefReleaseOnCComPtr@UIHTMLElement@@@1@XZ PROC NEAR ; ATL::CComPtrBase<IHTMLElement>::operator->, COMDAT
; _this$ = ecx

; 147  : 	{

  00000	55		 push	 ebp
  00001	8b ec		 mov	 ebp, esp
  00003	51		 push	 ecx
  00004	56		 push	 esi
  00005	c7 45 fc cc cc
	cc cc		 mov	 DWORD PTR [ebp-4], -858993460 ; ccccccccH
  0000c	89 4d fc	 mov	 DWORD PTR _this$[ebp], ecx

; 148  : 		ATLASSERT(p!=NULL);

  0000f	8b 45 fc	 mov	 eax, DWORD PTR _this$[ebp]
  00012	83 38 00	 cmp	 DWORD PTR [eax], 0
  00015	75 2b		 jne	 SHORT $L191671
  00017	8b f4		 mov	 esi, esp
  00019	68 00 00 00 00	 push	 OFFSET FLAT:??_C@_04CLHEGAEG@p?$CB?$DN0?$AA@
  0001e	6a 00		 push	 0
  00020	68 94 00 00 00	 push	 148			; 00000094H
  00025	68 00 00 00 00	 push	 OFFSET FLAT:??_C@_0FI@FDBICBML@D?3?2Program?5Files?5?$CIx86?$CJ?2Microsoft@
  0002a	6a 02		 push	 2
  0002c	ff 15 00 00 00
	00		 call	 DWORD PTR __imp___CrtDbgReport
  00032	83 c4 14	 add	 esp, 20			; 00000014H
  00035	3b f4		 cmp	 esi, esp
  00037	e8 00 00 00 00	 call	 __RTC_CheckEsp
  0003c	83 f8 01	 cmp	 eax, 1
  0003f	75 01		 jne	 SHORT $L191671
  00041	cc		 int	 3
$L191671:

; 149  : 		return (_NoAddRefReleaseOnCComPtr<T>*)p;

  00042	8b 55 fc	 mov	 edx, DWORD PTR _this$[ebp]
  00045	8b 02		 mov	 eax, DWORD PTR [edx]

; 150  : 	}

  00047	5e		 pop	 esi
  00048	83 c4 04	 add	 esp, 4
  0004b	3b ec		 cmp	 ebp, esp
  0004d	e8 00 00 00 00	 call	 __RTC_CheckEsp
  00052	8b e5		 mov	 esp, ebp
  00054	5d		 pop	 ebp
  00055	c3		 ret	 0
??C?$CComPtrBase@UIHTMLElement@@@ATL@@QBEPAV?$_NoAddRefReleaseOnCComPtr@UIHTMLElement@@@1@XZ ENDP ; ATL::CComPtrBase<IHTMLElement>::operator->
_TEXT	ENDS
PUBLIC	??0?$CComPtrBase@UIHTMLStyle@@@ATL@@IAE@XZ	; ATL::CComPtrBase<IHTMLStyle>::CComPtrBase<IHTMLStyle>
; Function compile flags: /Odt /RTCsu
;	COMDAT ??0?$CComPtr@UIHTMLStyle@@@ATL@@QAE@XZ
_TEXT	SEGMENT
_this$ = -4						; size = 4
??0?$CComPtr@UIHTMLStyle@@@ATL@@QAE@XZ PROC NEAR	; ATL::CComPtr<IHTMLStyle>::CComPtr<IHTMLStyle>, COMDAT
; _this$ = ecx

; 248  : 	CComPtr() throw()

  00000	55		 push	 ebp
  00001	8b ec		 mov	 ebp, esp
  00003	51		 push	 ecx
  00004	c7 45 fc cc cc
	cc cc		 mov	 DWORD PTR [ebp-4], -858993460 ; ccccccccH
  0000b	89 4d fc	 mov	 DWORD PTR _this$[ebp], ecx
  0000e	8b 4d fc	 mov	 ecx, DWORD PTR _this$[ebp]
  00011	e8 00 00 00 00	 call	 ??0?$CComPtrBase@UIHTMLStyle@@@ATL@@IAE@XZ ; ATL::CComPtrBase<IHTMLStyle>::CComPtrBase<IHTMLStyle>

; 249  : 	{
; 250  : 	}

  00016	8b 45 fc	 mov	 eax, DWORD PTR _this$[ebp]
  00019	83 c4 04	 add	 esp, 4
  0001c	3b ec		 cmp	 ebp, esp
  0001e	e8 00 00 00 00	 call	 __RTC_CheckEsp
  00023	8b e5		 mov	 esp, ebp
  00025	5d		 pop	 ebp
  00026	c3		 ret	 0
??0?$CComPtr@UIHTMLStyle@@@ATL@@QAE@XZ ENDP		; ATL::CComPtr<IHTMLStyle>::CComPtr<IHTMLStyle>
; Function compile flags: /Odt /RTCsu
_TEXT	ENDS
;	COMDAT ??1?$CComPtrBase@UIHTMLStyle@@@ATL@@QAE@XZ
_TEXT	SEGMENT
_this$ = -4						; size = 4
??1?$CComPtrBase@UIHTMLStyle@@@ATL@@QAE@XZ PROC NEAR	; ATL::CComPtrBase<IHTMLStyle>::~CComPtrBase<IHTMLStyle>, COMDAT
; _this$ = ecx

; 126  : 	{

  00000	55		 push	 ebp
  00001	8b ec		 mov	 ebp, esp
  00003	51		 push	 ecx
  00004	56		 push	 esi
  00005	c7 45 fc cc cc
	cc cc		 mov	 DWORD PTR [ebp-4], -858993460 ; ccccccccH
  0000c	89 4d fc	 mov	 DWORD PTR _this$[ebp], ecx

; 127  : 		if (p)

  0000f	8b 45 fc	 mov	 eax, DWORD PTR _this$[ebp]
  00012	83 38 00	 cmp	 DWORD PTR [eax], 0
  00015	74 19		 je	 SHORT $L190964

; 128  : 			p->Release();

  00017	8b 4d fc	 mov	 ecx, DWORD PTR _this$[ebp]
  0001a	8b 11		 mov	 edx, DWORD PTR [ecx]
  0001c	8b 45 fc	 mov	 eax, DWORD PTR _this$[ebp]
  0001f	8b 08		 mov	 ecx, DWORD PTR [eax]
  00021	8b 12		 mov	 edx, DWORD PTR [edx]
  00023	8b f4		 mov	 esi, esp
  00025	51		 push	 ecx
  00026	ff 52 08	 call	 DWORD PTR [edx+8]
  00029	3b f4		 cmp	 esi, esp
  0002b	e8 00 00 00 00	 call	 __RTC_CheckEsp
$L190964:

; 129  : 	}

  00030	5e		 pop	 esi
  00031	83 c4 04	 add	 esp, 4
  00034	3b ec		 cmp	 ebp, esp
  00036	e8 00 00 00 00	 call	 __RTC_CheckEsp
  0003b	8b e5		 mov	 esp, ebp
  0003d	5d		 pop	 ebp
  0003e	c3		 ret	 0
??1?$CComPtrBase@UIHTMLStyle@@@ATL@@QAE@XZ ENDP		; ATL::CComPtrBase<IHTMLStyle>::~CComPtrBase<IHTMLStyle>
; Function compile flags: /Odt /RTCsu
_TEXT	ENDS
;	COMDAT ??I?$CComPtrBase@UIHTMLStyle@@@ATL@@QAEPAPAUIHTMLStyle@@XZ
_TEXT	SEGMENT
_this$ = -4						; size = 4
??I?$CComPtrBase@UIHTMLStyle@@@ATL@@QAEPAPAUIHTMLStyle@@XZ PROC NEAR ; ATL::CComPtrBase<IHTMLStyle>::operator&, COMDAT
; _this$ = ecx

; 142  : 	{

  00000	55		 push	 ebp
  00001	8b ec		 mov	 ebp, esp
  00003	51		 push	 ecx
  00004	56		 push	 esi
  00005	c7 45 fc cc cc
	cc cc		 mov	 DWORD PTR [ebp-4], -858993460 ; ccccccccH
  0000c	89 4d fc	 mov	 DWORD PTR _this$[ebp], ecx

; 143  : 		ATLASSERT(p==NULL);

  0000f	8b 45 fc	 mov	 eax, DWORD PTR _this$[ebp]
  00012	83 38 00	 cmp	 DWORD PTR [eax], 0
  00015	74 2b		 je	 SHORT $L191675
  00017	8b f4		 mov	 esi, esp
  00019	68 00 00 00 00	 push	 OFFSET FLAT:??_C@_04DBLLIIGB@p?$DN?$DN0?$AA@
  0001e	6a 00		 push	 0
  00020	68 8f 00 00 00	 push	 143			; 0000008fH
  00025	68 00 00 00 00	 push	 OFFSET FLAT:??_C@_0FI@FDBICBML@D?3?2Program?5Files?5?$CIx86?$CJ?2Microsoft@
  0002a	6a 02		 push	 2
  0002c	ff 15 00 00 00
	00		 call	 DWORD PTR __imp___CrtDbgReport
  00032	83 c4 14	 add	 esp, 20			; 00000014H
  00035	3b f4		 cmp	 esi, esp
  00037	e8 00 00 00 00	 call	 __RTC_CheckEsp
  0003c	83 f8 01	 cmp	 eax, 1
  0003f	75 01		 jne	 SHORT $L191675
  00041	cc		 int	 3
$L191675:

; 144  : 		return &p;

  00042	8b 45 fc	 mov	 eax, DWORD PTR _this$[ebp]

; 145  : 	}

  00045	5e		 pop	 esi
  00046	83 c4 04	 add	 esp, 4
  00049	3b ec		 cmp	 ebp, esp
  0004b	e8 00 00 00 00	 call	 __RTC_CheckEsp
  00050	8b e5		 mov	 esp, ebp
  00052	5d		 pop	 ebp
  00053	c3		 ret	 0
??I?$CComPtrBase@UIHTMLStyle@@@ATL@@QAEPAPAUIHTMLStyle@@XZ ENDP ; ATL::CComPtrBase<IHTMLStyle>::operator&
; Function compile flags: /Odt /RTCsu
_TEXT	ENDS
;	COMDAT ??C?$CComPtrBase@UIHTMLStyle@@@ATL@@QBEPAV?$_NoAddRefReleaseOnCComPtr@UIHTMLStyle@@@1@XZ
_TEXT	SEGMENT
_this$ = -4						; size = 4
??C?$CComPtrBase@UIHTMLStyle@@@ATL@@QBEPAV?$_NoAddRefReleaseOnCComPtr@UIHTMLStyle@@@1@XZ PROC NEAR ; ATL::CComPtrBase<IHTMLStyle>::operator->, COMDAT
; _this$ = ecx

; 147  : 	{

  00000	55		 push	 ebp
  00001	8b ec		 mov	 ebp, esp
  00003	51		 push	 ecx
  00004	56		 push	 esi
  00005	c7 45 fc cc cc
	cc cc		 mov	 DWORD PTR [ebp-4], -858993460 ; ccccccccH
  0000c	89 4d fc	 mov	 DWORD PTR _this$[ebp], ecx

; 148  : 		ATLASSERT(p!=NULL);

  0000f	8b 45 fc	 mov	 eax, DWORD PTR _this$[ebp]
  00012	83 38 00	 cmp	 DWORD PTR [eax], 0
  00015	75 2b		 jne	 SHORT $L191677
  00017	8b f4		 mov	 esi, esp
  00019	68 00 00 00 00	 push	 OFFSET FLAT:??_C@_04CLHEGAEG@p?$CB?$DN0?$AA@
  0001e	6a 00		 push	 0
  00020	68 94 00 00 00	 push	 148			; 00000094H
  00025	68 00 00 00 00	 push	 OFFSET FLAT:??_C@_0FI@FDBICBML@D?3?2Program?5Files?5?$CIx86?$CJ?2Microsoft@
  0002a	6a 02		 push	 2
  0002c	ff 15 00 00 00
	00		 call	 DWORD PTR __imp___CrtDbgReport
  00032	83 c4 14	 add	 esp, 20			; 00000014H
  00035	3b f4		 cmp	 esi, esp
  00037	e8 00 00 00 00	 call	 __RTC_CheckEsp
  0003c	83 f8 01	 cmp	 eax, 1
  0003f	75 01		 jne	 SHORT $L191677
  00041	cc		 int	 3
$L191677:

; 149  : 		return (_NoAddRefReleaseOnCComPtr<T>*)p;

  00042	8b 55 fc	 mov	 edx, DWORD PTR _this$[ebp]
  00045	8b 02		 mov	 eax, DWORD PTR [edx]

; 150  : 	}

  00047	5e		 pop	 esi
  00048	83 c4 04	 add	 esp, 4
  0004b	3b ec		 cmp	 ebp, esp
  0004d	e8 00 00 00 00	 call	 __RTC_CheckEsp
  00052	8b e5		 mov	 esp, ebp
  00054	5d		 pop	 ebp
  00055	c3		 ret	 0
??C?$CComPtrBase@UIHTMLStyle@@@ATL@@QBEPAV?$_NoAddRefReleaseOnCComPtr@UIHTMLStyle@@@1@XZ ENDP ; ATL::CComPtrBase<IHTMLStyle>::operator->
_TEXT	ENDS
PUBLIC	??0?$CComPtrBase@UIHTMLDocument2@@@ATL@@IAE@XZ	; ATL::CComPtrBase<IHTMLDocument2>::CComPtrBase<IHTMLDocument2>
; Function compile flags: /Odt /RTCsu
;	COMDAT ??0?$CComPtr@UIHTMLDocument2@@@ATL@@QAE@XZ
_TEXT	SEGMENT
_this$ = -4						; size = 4
??0?$CComPtr@UIHTMLDocument2@@@ATL@@QAE@XZ PROC NEAR	; ATL::CComPtr<IHTMLDocument2>::CComPtr<IHTMLDocument2>, COMDAT
; _this$ = ecx

; 248  : 	CComPtr() throw()

  00000	55		 push	 ebp
  00001	8b ec		 mov	 ebp, esp
  00003	51		 push	 ecx
  00004	c7 45 fc cc cc
	cc cc		 mov	 DWORD PTR [ebp-4], -858993460 ; ccccccccH
  0000b	89 4d fc	 mov	 DWORD PTR _this$[ebp], ecx
  0000e	8b 4d fc	 mov	 ecx, DWORD PTR _this$[ebp]
  00011	e8 00 00 00 00	 call	 ??0?$CComPtrBase@UIHTMLDocument2@@@ATL@@IAE@XZ ; ATL::CComPtrBase<IHTMLDocument2>::CComPtrBase<IHTMLDocument2>

; 249  : 	{
; 250  : 	}

  00016	8b 45 fc	 mov	 eax, DWORD PTR _this$[ebp]
  00019	83 c4 04	 add	 esp, 4
  0001c	3b ec		 cmp	 ebp, esp
  0001e	e8 00 00 00 00	 call	 __RTC_CheckEsp
  00023	8b e5		 mov	 esp, ebp
  00025	5d		 pop	 ebp
  00026	c3		 ret	 0
??0?$CComPtr@UIHTMLDocument2@@@ATL@@QAE@XZ ENDP		; ATL::CComPtr<IHTMLDocument2>::CComPtr<IHTMLDocument2>
; Function compile flags: /Odt /RTCsu
_TEXT	ENDS
;	COMDAT ??0?$CComPtrBase@UIHTMLElement@@@ATL@@IAE@XZ
_TEXT	SEGMENT
_this$ = -4						; size = 4
??0?$CComPtrBase@UIHTMLElement@@@ATL@@IAE@XZ PROC NEAR	; ATL::CComPtrBase<IHTMLElement>::CComPtrBase<IHTMLElement>, COMDAT
; _this$ = ecx

; 107  : 	CComPtrBase() throw()

  00000	55		 push	 ebp
  00001	8b ec		 mov	 ebp, esp
  00003	51		 push	 ecx
  00004	c7 45 fc cc cc
	cc cc		 mov	 DWORD PTR [ebp-4], -858993460 ; ccccccccH
  0000b	89 4d fc	 mov	 DWORD PTR _this$[ebp], ecx

; 108  : 	{
; 109  : 		p = NULL;

  0000e	8b 45 fc	 mov	 eax, DWORD PTR _this$[ebp]
  00011	c7 00 00 00 00
	00		 mov	 DWORD PTR [eax], 0

; 110  : 	}

  00017	8b 45 fc	 mov	 eax, DWORD PTR _this$[ebp]
  0001a	8b e5		 mov	 esp, ebp
  0001c	5d		 pop	 ebp
  0001d	c3		 ret	 0
??0?$CComPtrBase@UIHTMLElement@@@ATL@@IAE@XZ ENDP	; ATL::CComPtrBase<IHTMLElement>::CComPtrBase<IHTMLElement>
; Function compile flags: /Odt /RTCsu
_TEXT	ENDS
;	COMDAT ??0?$CComPtrBase@UIHTMLStyle@@@ATL@@IAE@XZ
_TEXT	SEGMENT
_this$ = -4						; size = 4
??0?$CComPtrBase@UIHTMLStyle@@@ATL@@IAE@XZ PROC NEAR	; ATL::CComPtrBase<IHTMLStyle>::CComPtrBase<IHTMLStyle>, COMDAT
; _this$ = ecx

; 107  : 	CComPtrBase() throw()

  00000	55		 push	 ebp
  00001	8b ec		 mov	 ebp, esp
  00003	51		 push	 ecx
  00004	c7 45 fc cc cc
	cc cc		 mov	 DWORD PTR [ebp-4], -858993460 ; ccccccccH
  0000b	89 4d fc	 mov	 DWORD PTR _this$[ebp], ecx

; 108  : 	{
; 109  : 		p = NULL;

  0000e	8b 45 fc	 mov	 eax, DWORD PTR _this$[ebp]
  00011	c7 00 00 00 00
	00		 mov	 DWORD PTR [eax], 0

; 110  : 	}

  00017	8b 45 fc	 mov	 eax, DWORD PTR _this$[ebp]
  0001a	8b e5		 mov	 esp, ebp
  0001c	5d		 pop	 ebp
  0001d	c3		 ret	 0
??0?$CComPtrBase@UIHTMLStyle@@@ATL@@IAE@XZ ENDP		; ATL::CComPtrBase<IHTMLStyle>::CComPtrBase<IHTMLStyle>
; Function compile flags: /Odt /RTCsu
_TEXT	ENDS
;	COMDAT ??0?$CComPtrBase@UIHTMLDocument2@@@ATL@@IAE@XZ
_TEXT	SEGMENT
_this$ = -4						; size = 4
??0?$CComPtrBase@UIHTMLDocument2@@@ATL@@IAE@XZ PROC NEAR ; ATL::CComPtrBase<IHTMLDocument2>::CComPtrBase<IHTMLDocument2>, COMDAT
; _this$ = ecx

; 107  : 	CComPtrBase() throw()

  00000	55		 push	 ebp
  00001	8b ec		 mov	 ebp, esp
  00003	51		 push	 ecx
  00004	c7 45 fc cc cc
	cc cc		 mov	 DWORD PTR [ebp-4], -858993460 ; ccccccccH
  0000b	89 4d fc	 mov	 DWORD PTR _this$[ebp], ecx

; 108  : 	{
; 109  : 		p = NULL;

  0000e	8b 45 fc	 mov	 eax, DWORD PTR _this$[ebp]
  00011	c7 00 00 00 00
	00		 mov	 DWORD PTR [eax], 0

; 110  : 	}

  00017	8b 45 fc	 mov	 eax, DWORD PTR _this$[ebp]
  0001a	8b e5		 mov	 esp, ebp
  0001c	5d		 pop	 ebp
  0001d	c3		 ret	 0
??0?$CComPtrBase@UIHTMLDocument2@@@ATL@@IAE@XZ ENDP	; ATL::CComPtrBase<IHTMLDocument2>::CComPtrBase<IHTMLDocument2>
; Function compile flags: /Odt /RTCsu
_TEXT	ENDS
;	COMDAT ?AtlComQIPtrAssign@ATL@@YGPAUIUnknown@@PAPAU2@PAU2@ABU_GUID@@@Z
_TEXT	SEGMENT
_pTemp$ = -4						; size = 4
_pp$ = 8						; size = 4
_lp$ = 12						; size = 4
_riid$ = 16						; size = 4
?AtlComQIPtrAssign@ATL@@YGPAUIUnknown@@PAPAU2@PAU2@ABU_GUID@@@Z PROC NEAR ; ATL::AtlComQIPtrAssign, COMDAT

; 58   : {

  00000	55		 push	 ebp
  00001	8b ec		 mov	 ebp, esp
  00003	51		 push	 ecx
  00004	56		 push	 esi
  00005	c7 45 fc cc cc
	cc cc		 mov	 DWORD PTR [ebp-4], -858993460 ; ccccccccH

; 59   : 	if (pp == NULL)

  0000c	83 7d 08 00	 cmp	 DWORD PTR _pp$[ebp], 0
  00010	75 04		 jne	 SHORT $L82106

; 60   : 		return NULL;

  00012	33 c0		 xor	 eax, eax
  00014	eb 53		 jmp	 SHORT $L82105
$L82106:

; 61   : 
; 62   : 	IUnknown* pTemp = *pp;

  00016	8b 45 08	 mov	 eax, DWORD PTR _pp$[ebp]
  00019	8b 08		 mov	 ecx, DWORD PTR [eax]
  0001b	89 4d fc	 mov	 DWORD PTR _pTemp$[ebp], ecx

; 63   : 	*pp = NULL;

  0001e	8b 55 08	 mov	 edx, DWORD PTR _pp$[ebp]
  00021	c7 02 00 00 00
	00		 mov	 DWORD PTR [edx], 0

; 64   : 	if (lp != NULL)

  00027	83 7d 0c 00	 cmp	 DWORD PTR _lp$[ebp], 0
  0002b	74 1c		 je	 SHORT $L82108

; 65   : 		lp->QueryInterface(riid, (void**)pp);

  0002d	8b f4		 mov	 esi, esp
  0002f	8b 45 08	 mov	 eax, DWORD PTR _pp$[ebp]
  00032	50		 push	 eax
  00033	8b 4d 10	 mov	 ecx, DWORD PTR _riid$[ebp]
  00036	51		 push	 ecx
  00037	8b 55 0c	 mov	 edx, DWORD PTR _lp$[ebp]
  0003a	8b 02		 mov	 eax, DWORD PTR [edx]
  0003c	8b 4d 0c	 mov	 ecx, DWORD PTR _lp$[ebp]
  0003f	51		 push	 ecx
  00040	ff 10		 call	 DWORD PTR [eax]
  00042	3b f4		 cmp	 esi, esp
  00044	e8 00 00 00 00	 call	 __RTC_CheckEsp
$L82108:

; 66   : 	if (pTemp)

  00049	83 7d fc 00	 cmp	 DWORD PTR _pTemp$[ebp], 0
  0004d	74 15		 je	 SHORT $L82110

; 67   : 		pTemp->Release();

  0004f	8b 55 fc	 mov	 edx, DWORD PTR _pTemp$[ebp]
  00052	8b 02		 mov	 eax, DWORD PTR [edx]
  00054	8b f4		 mov	 esi, esp
  00056	8b 4d fc	 mov	 ecx, DWORD PTR _pTemp$[ebp]
  00059	51		 push	 ecx
  0005a	ff 50 08	 call	 DWORD PTR [eax+8]
  0005d	3b f4		 cmp	 esi, esp
  0005f	e8 00 00 00 00	 call	 __RTC_CheckEsp
$L82110:

; 68   : 	return *pp;

  00064	8b 55 08	 mov	 edx, DWORD PTR _pp$[ebp]
  00067	8b 02		 mov	 eax, DWORD PTR [edx]
$L82105:

; 69   : }

  00069	5e		 pop	 esi
  0006a	83 c4 04	 add	 esp, 4
  0006d	3b ec		 cmp	 ebp, esp
  0006f	e8 00 00 00 00	 call	 __RTC_CheckEsp
  00074	8b e5		 mov	 esp, ebp
  00076	5d		 pop	 ebp
  00077	c2 0c 00	 ret	 12			; 0000000cH
?AtlComQIPtrAssign@ATL@@YGPAUIUnknown@@PAPAU2@PAU2@ABU_GUID@@@Z ENDP ; ATL::AtlComQIPtrAssign
_TEXT	ENDS
PUBLIC	??0?$CComPtrBase@UIDispatch@@@ATL@@IAE@XZ	; ATL::CComPtrBase<IDispatch>::CComPtrBase<IDispatch>
; Function compile flags: /Odt /RTCsu
;	COMDAT ??0?$CComPtr@UIDispatch@@@ATL@@QAE@XZ
_TEXT	SEGMENT
_this$ = -4						; size = 4
??0?$CComPtr@UIDispatch@@@ATL@@QAE@XZ PROC NEAR		; ATL::CComPtr<IDispatch>::CComPtr<IDispatch>, COMDAT
; _this$ = ecx

; 311  : 	CComPtr() throw()

  00000	55		 push	 ebp
  00001	8b ec		 mov	 ebp, esp
  00003	51		 push	 ecx
  00004	c7 45 fc cc cc
	cc cc		 mov	 DWORD PTR [ebp-4], -858993460 ; ccccccccH
  0000b	89 4d fc	 mov	 DWORD PTR _this$[ebp], ecx
  0000e	8b 4d fc	 mov	 ecx, DWORD PTR _this$[ebp]
  00011	e8 00 00 00 00	 call	 ??0?$CComPtrBase@UIDispatch@@@ATL@@IAE@XZ ; ATL::CComPtrBase<IDispatch>::CComPtrBase<IDispatch>

; 312  : 	{
; 313  : 	}

  00016	8b 45 fc	 mov	 eax, DWORD PTR _this$[ebp]
  00019	83 c4 04	 add	 esp, 4
  0001c	3b ec		 cmp	 ebp, esp
  0001e	e8 00 00 00 00	 call	 __RTC_CheckEsp
  00023	8b e5		 mov	 esp, ebp
  00025	5d		 pop	 ebp
  00026	c3		 ret	 0
??0?$CComPtr@UIDispatch@@@ATL@@QAE@XZ ENDP		; ATL::CComPtr<IDispatch>::CComPtr<IDispatch>
_TEXT	ENDS
PUBLIC	?AtlComPtrAssign@ATL@@YGPAUIUnknown@@PAPAU2@PAU2@@Z ; ATL::AtlComPtrAssign
; Function compile flags: /Odt /RTCsu
;	COMDAT ??4?$CComPtr@UIDispatch@@@ATL@@QAEPAUIDispatch@@PAU2@@Z
_TEXT	SEGMENT
_this$ = -4						; size = 4
_lp$ = 8						; size = 4
??4?$CComPtr@UIDispatch@@@ATL@@QAEPAUIDispatch@@PAU2@@Z PROC NEAR ; ATL::CComPtr<IDispatch>::operator=, COMDAT
; _this$ = ecx

; 323  : 	{

  00000	55		 push	 ebp
  00001	8b ec		 mov	 ebp, esp
  00003	51		 push	 ecx
  00004	c7 45 fc cc cc
	cc cc		 mov	 DWORD PTR [ebp-4], -858993460 ; ccccccccH
  0000b	89 4d fc	 mov	 DWORD PTR _this$[ebp], ecx

; 324  : 		return static_cast<IDispatch*>(AtlComPtrAssign((IUnknown**)&p, lp));

  0000e	8b 45 08	 mov	 eax, DWORD PTR _lp$[ebp]
  00011	50		 push	 eax
  00012	8b 4d fc	 mov	 ecx, DWORD PTR _this$[ebp]
  00015	51		 push	 ecx
  00016	e8 00 00 00 00	 call	 ?AtlComPtrAssign@ATL@@YGPAUIUnknown@@PAPAU2@PAU2@@Z ; ATL::AtlComPtrAssign

; 325  : 	}

  0001b	83 c4 04	 add	 esp, 4
  0001e	3b ec		 cmp	 ebp, esp
  00020	e8 00 00 00 00	 call	 __RTC_CheckEsp
  00025	8b e5		 mov	 esp, ebp
  00027	5d		 pop	 ebp
  00028	c2 04 00	 ret	 4
??4?$CComPtr@UIDispatch@@@ATL@@QAEPAUIDispatch@@PAU2@@Z ENDP ; ATL::CComPtr<IDispatch>::operator=
; Function compile flags: /Odt /RTCsu
_TEXT	ENDS
;	COMDAT ?AtlComPtrAssign@ATL@@YGPAUIUnknown@@PAPAU2@PAU2@@Z
_TEXT	SEGMENT
_pp$ = 8						; size = 4
_lp$ = 12						; size = 4
?AtlComPtrAssign@ATL@@YGPAUIUnknown@@PAPAU2@PAU2@@Z PROC NEAR ; ATL::AtlComPtrAssign, COMDAT

; 45   : {

  00000	55		 push	 ebp
  00001	8b ec		 mov	 ebp, esp
  00003	56		 push	 esi

; 46   : 	if (pp == NULL)

  00004	83 7d 08 00	 cmp	 DWORD PTR _pp$[ebp], 0
  00008	75 04		 jne	 SHORT $L82098

; 47   : 		return NULL;

  0000a	33 c0		 xor	 eax, eax
  0000c	eb 47		 jmp	 SHORT $L82097
$L82098:

; 48   : 		
; 49   : 	if (lp != NULL)

  0000e	83 7d 0c 00	 cmp	 DWORD PTR _lp$[ebp], 0
  00012	74 15		 je	 SHORT $L82099

; 50   : 		lp->AddRef();

  00014	8b 45 0c	 mov	 eax, DWORD PTR _lp$[ebp]
  00017	8b 08		 mov	 ecx, DWORD PTR [eax]
  00019	8b f4		 mov	 esi, esp
  0001b	8b 55 0c	 mov	 edx, DWORD PTR _lp$[ebp]
  0001e	52		 push	 edx
  0001f	ff 51 04	 call	 DWORD PTR [ecx+4]
  00022	3b f4		 cmp	 esi, esp
  00024	e8 00 00 00 00	 call	 __RTC_CheckEsp
$L82099:

; 51   : 	if (*pp)

  00029	8b 45 08	 mov	 eax, DWORD PTR _pp$[ebp]
  0002c	83 38 00	 cmp	 DWORD PTR [eax], 0
  0002f	74 19		 je	 SHORT $L82100

; 52   : 		(*pp)->Release();

  00031	8b 4d 08	 mov	 ecx, DWORD PTR _pp$[ebp]
  00034	8b 11		 mov	 edx, DWORD PTR [ecx]
  00036	8b 45 08	 mov	 eax, DWORD PTR _pp$[ebp]
  00039	8b 08		 mov	 ecx, DWORD PTR [eax]
  0003b	8b 12		 mov	 edx, DWORD PTR [edx]
  0003d	8b f4		 mov	 esi, esp
  0003f	51		 push	 ecx
  00040	ff 52 08	 call	 DWORD PTR [edx+8]
  00043	3b f4		 cmp	 esi, esp
  00045	e8 00 00 00 00	 call	 __RTC_CheckEsp
$L82100:

; 53   : 	*pp = lp;

  0004a	8b 45 08	 mov	 eax, DWORD PTR _pp$[ebp]
  0004d	8b 4d 0c	 mov	 ecx, DWORD PTR _lp$[ebp]
  00050	89 08		 mov	 DWORD PTR [eax], ecx

; 54   : 	return lp;

  00052	8b 45 0c	 mov	 eax, DWORD PTR _lp$[ebp]
$L82097:

; 55   : }

  00055	5e		 pop	 esi
  00056	3b ec		 cmp	 ebp, esp
  00058	e8 00 00 00 00	 call	 __RTC_CheckEsp
  0005d	5d		 pop	 ebp
  0005e	c2 08 00	 ret	 8
?AtlComPtrAssign@ATL@@YGPAUIUnknown@@PAPAU2@PAU2@@Z ENDP ; ATL::AtlComPtrAssign
_TEXT	ENDS
PUBLIC	??1?$CComPtrBase@UIDispatch@@@ATL@@QAE@XZ	; ATL::CComPtrBase<IDispatch>::~CComPtrBase<IDispatch>
; Function compile flags: /Odt /RTCsu
;	COMDAT ??1?$CComPtr@UIDispatch@@@ATL@@QAE@XZ
_TEXT	SEGMENT
_this$ = -4						; size = 4
??1?$CComPtr@UIDispatch@@@ATL@@QAE@XZ PROC NEAR		; ATL::CComPtr<IDispatch>::~CComPtr<IDispatch>, COMDAT
; _this$ = ecx
  00000	55		 push	 ebp
  00001	8b ec		 mov	 ebp, esp
  00003	51		 push	 ecx
  00004	c7 45 fc cc cc
	cc cc		 mov	 DWORD PTR [ebp-4], -858993460 ; ccccccccH
  0000b	89 4d fc	 mov	 DWORD PTR _this$[ebp], ecx
  0000e	8b 4d fc	 mov	 ecx, DWORD PTR _this$[ebp]
  00011	e8 00 00 00 00	 call	 ??1?$CComPtrBase@UIDispatch@@@ATL@@QAE@XZ ; ATL::CComPtrBase<IDispatch>::~CComPtrBase<IDispatch>
  00016	83 c4 04	 add	 esp, 4
  00019	3b ec		 cmp	 ebp, esp
  0001b	e8 00 00 00 00	 call	 __RTC_CheckEsp
  00020	8b e5		 mov	 esp, ebp
  00022	5d		 pop	 ebp
  00023	c3		 ret	 0
??1?$CComPtr@UIDispatch@@@ATL@@QAE@XZ ENDP		; ATL::CComPtr<IDispatch>::~CComPtr<IDispatch>
; Function compile flags: /Odt /RTCsu
; File d:\program files (x86)\microsoft visual studio .net 2003\vc7\atlmfc\include\atlalloc.h
_TEXT	ENDS
;	COMDAT ??0?$CAtlSafeAllocBufferManager@VCCRTAllocator@ATL@@@_ATL_SAFE_ALLOCA_IMPL@ATL@@QAE@XZ
_TEXT	SEGMENT
_this$ = -4						; size = 4
??0?$CAtlSafeAllocBufferManager@VCCRTAllocator@ATL@@@_ATL_SAFE_ALLOCA_IMPL@ATL@@QAE@XZ PROC NEAR ; ATL::_ATL_SAFE_ALLOCA_IMPL::CAtlSafeAllocBufferManager<ATL::CCRTAllocator>::CAtlSafeAllocBufferManager<ATL::CCRTAllocator>, COMDAT
; _this$ = ecx

; 373  : 	CAtlSafeAllocBufferManager() : m_pHead(NULL) {};

  00000	55		 push	 ebp
  00001	8b ec		 mov	 ebp, esp
  00003	51		 push	 ecx
  00004	c7 45 fc cc cc
	cc cc		 mov	 DWORD PTR [ebp-4], -858993460 ; ccccccccH
  0000b	89 4d fc	 mov	 DWORD PTR _this$[ebp], ecx
  0000e	8b 45 fc	 mov	 eax, DWORD PTR _this$[ebp]
  00011	c7 00 00 00 00
	00		 mov	 DWORD PTR [eax], 0
  00017	8b 45 fc	 mov	 eax, DWORD PTR _this$[ebp]
  0001a	8b e5		 mov	 esp, ebp
  0001c	5d		 pop	 ebp
  0001d	c3		 ret	 0
??0?$CAtlSafeAllocBufferManager@VCCRTAllocator@ATL@@@_ATL_SAFE_ALLOCA_IMPL@ATL@@QAE@XZ ENDP ; ATL::_ATL_SAFE_ALLOCA_IMPL::CAtlSafeAllocBufferManager<ATL::CCRTAllocator>::CAtlSafeAllocBufferManager<ATL::CCRTAllocator>
_TEXT	ENDS
PUBLIC	?Free@CCRTAllocator@ATL@@SAXPAX@Z		; ATL::CCRTAllocator::Free
; Function compile flags: /Odt /RTCsu
;	COMDAT ??1?$CAtlSafeAllocBufferManager@VCCRTAllocator@ATL@@@_ATL_SAFE_ALLOCA_IMPL@ATL@@QAE@XZ
_TEXT	SEGMENT
_p$181574 = -8						; size = 4
_this$ = -4						; size = 4
??1?$CAtlSafeAllocBufferManager@VCCRTAllocator@ATL@@@_ATL_SAFE_ALLOCA_IMPL@ATL@@QAE@XZ PROC NEAR ; ATL::_ATL_SAFE_ALLOCA_IMPL::CAtlSafeAllocBufferManager<ATL::CCRTAllocator>::~CAtlSafeAllocBufferManager<ATL::CCRTAllocator>, COMDAT
; _this$ = ecx

; 387  : 	{

  00000	55		 push	 ebp
  00001	8b ec		 mov	 ebp, esp
  00003	83 ec 08	 sub	 esp, 8
  00006	c7 45 f8 cc cc
	cc cc		 mov	 DWORD PTR [ebp-8], -858993460 ; ccccccccH
  0000d	c7 45 fc cc cc
	cc cc		 mov	 DWORD PTR [ebp-4], -858993460 ; ccccccccH
  00014	89 4d fc	 mov	 DWORD PTR _this$[ebp], ecx
$L181572:

; 388  : 		// Walk the list and free the buffers
; 389  : 		while (m_pHead != NULL)

  00017	8b 45 fc	 mov	 eax, DWORD PTR _this$[ebp]
  0001a	83 38 00	 cmp	 DWORD PTR [eax], 0
  0001d	74 22		 je	 SHORT $L181570

; 390  : 		{
; 391  : 			CAtlSafeAllocBufferNode* p = m_pHead;

  0001f	8b 4d fc	 mov	 ecx, DWORD PTR _this$[ebp]
  00022	8b 11		 mov	 edx, DWORD PTR [ecx]
  00024	89 55 f8	 mov	 DWORD PTR _p$181574[ebp], edx

; 392  : 			m_pHead = m_pHead->m_pNext;

  00027	8b 45 fc	 mov	 eax, DWORD PTR _this$[ebp]
  0002a	8b 08		 mov	 ecx, DWORD PTR [eax]
  0002c	8b 55 fc	 mov	 edx, DWORD PTR _this$[ebp]
  0002f	8b 01		 mov	 eax, DWORD PTR [ecx]
  00031	89 02		 mov	 DWORD PTR [edx], eax

; 393  : 			Allocator::Free(p);

  00033	8b 4d f8	 mov	 ecx, DWORD PTR _p$181574[ebp]
  00036	51		 push	 ecx
  00037	e8 00 00 00 00	 call	 ?Free@CCRTAllocator@ATL@@SAXPAX@Z ; ATL::CCRTAllocator::Free
  0003c	83 c4 04	 add	 esp, 4

; 394  : 		}

  0003f	eb d6		 jmp	 SHORT $L181572
$L181570:

; 395  : 	}

  00041	83 c4 08	 add	 esp, 8
  00044	3b ec		 cmp	 ebp, esp
  00046	e8 00 00 00 00	 call	 __RTC_CheckEsp
  0004b	8b e5		 mov	 esp, ebp
  0004d	5d		 pop	 ebp
  0004e	c3		 ret	 0
??1?$CAtlSafeAllocBufferManager@VCCRTAllocator@ATL@@@_ATL_SAFE_ALLOCA_IMPL@ATL@@QAE@XZ ENDP ; ATL::_ATL_SAFE_ALLOCA_IMPL::CAtlSafeAllocBufferManager<ATL::CCRTAllocator>::~CAtlSafeAllocBufferManager<ATL::CCRTAllocator>
_TEXT	ENDS
EXTRN	__imp__free:NEAR
; Function compile flags: /Odt /RTCsu
;	COMDAT ?Free@CCRTAllocator@ATL@@SAXPAX@Z
_TEXT	SEGMENT
_p$ = 8							; size = 4
?Free@CCRTAllocator@ATL@@SAXPAX@Z PROC NEAR		; ATL::CCRTAllocator::Free, COMDAT

; 35   : 	{

  00000	55		 push	 ebp
  00001	8b ec		 mov	 ebp, esp
  00003	56		 push	 esi

; 36   : 		free(p);

  00004	8b f4		 mov	 esi, esp
  00006	8b 45 08	 mov	 eax, DWORD PTR _p$[ebp]
  00009	50		 push	 eax
  0000a	ff 15 00 00 00
	00		 call	 DWORD PTR __imp__free
  00010	83 c4 04	 add	 esp, 4
  00013	3b f4		 cmp	 esi, esp
  00015	e8 00 00 00 00	 call	 __RTC_CheckEsp

; 37   : 	}

  0001a	5e		 pop	 esi
  0001b	3b ec		 cmp	 ebp, esp
  0001d	e8 00 00 00 00	 call	 __RTC_CheckEsp
  00022	5d		 pop	 ebp
  00023	c3		 ret	 0
?Free@CCRTAllocator@ATL@@SAXPAX@Z ENDP			; ATL::CCRTAllocator::Free
; Function compile flags: /Odt /RTCsu
; File d:\program files (x86)\microsoft visual studio .net 2003\vc7\atlmfc\include\atlcomcli.h
_TEXT	ENDS
;	COMDAT ??0?$CComPtrBase@UIDispatch@@@ATL@@IAE@XZ
_TEXT	SEGMENT
_this$ = -4						; size = 4
??0?$CComPtrBase@UIDispatch@@@ATL@@IAE@XZ PROC NEAR	; ATL::CComPtrBase<IDispatch>::CComPtrBase<IDispatch>, COMDAT
; _this$ = ecx

; 107  : 	CComPtrBase() throw()

  00000	55		 push	 ebp
  00001	8b ec		 mov	 ebp, esp
  00003	51		 push	 ecx
  00004	c7 45 fc cc cc
	cc cc		 mov	 DWORD PTR [ebp-4], -858993460 ; ccccccccH
  0000b	89 4d fc	 mov	 DWORD PTR _this$[ebp], ecx

; 108  : 	{
; 109  : 		p = NULL;

  0000e	8b 45 fc	 mov	 eax, DWORD PTR _this$[ebp]
  00011	c7 00 00 00 00
	00		 mov	 DWORD PTR [eax], 0

; 110  : 	}

  00017	8b 45 fc	 mov	 eax, DWORD PTR _this$[ebp]
  0001a	8b e5		 mov	 esp, ebp
  0001c	5d		 pop	 ebp
  0001d	c3		 ret	 0
??0?$CComPtrBase@UIDispatch@@@ATL@@IAE@XZ ENDP		; ATL::CComPtrBase<IDispatch>::CComPtrBase<IDispatch>
; Function compile flags: /Odt /RTCsu
_TEXT	ENDS
;	COMDAT ??1?$CComPtrBase@UIDispatch@@@ATL@@QAE@XZ
_TEXT	SEGMENT
_this$ = -4						; size = 4
??1?$CComPtrBase@UIDispatch@@@ATL@@QAE@XZ PROC NEAR	; ATL::CComPtrBase<IDispatch>::~CComPtrBase<IDispatch>, COMDAT
; _this$ = ecx

; 126  : 	{

  00000	55		 push	 ebp
  00001	8b ec		 mov	 ebp, esp
  00003	51		 push	 ecx
  00004	56		 push	 esi
  00005	c7 45 fc cc cc
	cc cc		 mov	 DWORD PTR [ebp-4], -858993460 ; ccccccccH
  0000c	89 4d fc	 mov	 DWORD PTR _this$[ebp], ecx

; 127  : 		if (p)

  0000f	8b 45 fc	 mov	 eax, DWORD PTR _this$[ebp]
  00012	83 38 00	 cmp	 DWORD PTR [eax], 0
  00015	74 19		 je	 SHORT $L181682

; 128  : 			p->Release();

  00017	8b 4d fc	 mov	 ecx, DWORD PTR _this$[ebp]
  0001a	8b 11		 mov	 edx, DWORD PTR [ecx]
  0001c	8b 45 fc	 mov	 eax, DWORD PTR _this$[ebp]
  0001f	8b 08		 mov	 ecx, DWORD PTR [eax]
  00021	8b 12		 mov	 edx, DWORD PTR [edx]
  00023	8b f4		 mov	 esi, esp
  00025	51		 push	 ecx
  00026	ff 52 08	 call	 DWORD PTR [edx+8]
  00029	3b f4		 cmp	 esi, esp
  0002b	e8 00 00 00 00	 call	 __RTC_CheckEsp
$L181682:

; 129  : 	}

  00030	5e		 pop	 esi
  00031	83 c4 04	 add	 esp, 4
  00034	3b ec		 cmp	 ebp, esp
  00036	e8 00 00 00 00	 call	 __RTC_CheckEsp
  0003b	8b e5		 mov	 esp, ebp
  0003d	5d		 pop	 ebp
  0003e	c3		 ret	 0
??1?$CComPtrBase@UIDispatch@@@ATL@@QAE@XZ ENDP		; ATL::CComPtrBase<IDispatch>::~CComPtrBase<IDispatch>
_TEXT	ENDS
END
