; Listing generated by Microsoft (R) Optimizing Compiler Version 13.10.3077 

	TITLE	\boxgit\PlayBox\CommonLib\common\LhcImg.cpp
	.386P
include listing.inc
if @Version gt 510
.model FLAT
else
_TEXT	SEGMENT PARA USE32 PUBLIC 'CODE'
_TEXT	ENDS
_DATA	SEGMENT DWORD USE32 PUBLIC 'DATA'
_DATA	ENDS
CONST	SEGMENT DWORD USE32 PUBLIC 'CONST'
CONST	ENDS
_BSS	SEGMENT DWORD USE32 PUBLIC 'BSS'
_BSS	ENDS
$$SYMBOLS	SEGMENT BYTE USE32 'DEBSYM'
$$SYMBOLS	ENDS
_TLS	SEGMENT DWORD USE32 PUBLIC 'TLS'
_TLS	ENDS
;	COMDAT ??_C@_0FG@EOHGAEB@?3Sun?3Sunday?3Mon?3Monday?3Tue?3Tuesd@
CONST	SEGMENT DWORD USE32 PUBLIC 'CONST'
CONST	ENDS
;	COMDAT ??_C@_0IH@HPGJLCCK@?3Jan?3January?3Feb?3February?3Mar?3Ma@
CONST	SEGMENT DWORD USE32 PUBLIC 'CONST'
CONST	ENDS
;	COMDAT ??_C@_05LAPONLG@false?$AA@
CONST	SEGMENT DWORD USE32 PUBLIC 'CONST'
CONST	ENDS
;	COMDAT ??_C@_04LOAJBDKD@true?$AA@
CONST	SEGMENT DWORD USE32 PUBLIC 'CONST'
CONST	ENDS
;	COMDAT ??_C@_0EN@CBMLGOH@D?3?2Program?5Files?5?$CIx86?$CJ?2Microsoft@
CONST	SEGMENT DWORD USE32 PUBLIC 'CONST'
CONST	ENDS
;	COMDAT ??_C@_01GFHCPBMG@C?$AA@
CONST	SEGMENT DWORD USE32 PUBLIC 'CONST'
CONST	ENDS
;	COMDAT ??_C@_08DMHHBMMN@lpa?5?$CB?$DN?50?$AA@
CONST	SEGMENT DWORD USE32 PUBLIC 'CONST'
CONST	ENDS
;	COMDAT ??_C@_0FG@PFHCBDBK@D?3?2Program?5Files?5?$CIx86?$CJ?2Microsoft@
CONST	SEGMENT DWORD USE32 PUBLIC 'CONST'
CONST	ENDS
;	COMDAT ??_C@_08DIHJLFDJ@lpw?5?$CB?$DN?50?$AA@
CONST	SEGMENT DWORD USE32 PUBLIC 'CONST'
CONST	ENDS
;	COMDAT ??_C@_01GBGANLPD@0?$AA@
CONST	SEGMENT DWORD USE32 PUBLIC 'CONST'
CONST	ENDS
;	COMDAT ??_C@_0BJ@OGJFCAD@nResult?5?$DN?$DN?5nConvertedLen?$AA@
CONST	SEGMENT DWORD USE32 PUBLIC 'CONST'
CONST	ENDS
;	COMDAT ??_C@_0BA@FHEEPEEM@lpDevModeW?5?$CB?$DN?50?$AA@
CONST	SEGMENT DWORD USE32 PUBLIC 'CONST'
CONST	ENDS
;	COMDAT ??_C@_0L@CGGLGMBD@lptmW?5?$CB?$DN?50?$AA@
CONST	SEGMENT DWORD USE32 PUBLIC 'CONST'
CONST	ENDS
;	COMDAT ??_C@_0L@CCGFMFOH@lptmA?5?$CB?$DN?50?$AA@
CONST	SEGMENT DWORD USE32 PUBLIC 'CONST'
CONST	ENDS
;	COMDAT ??_C@_0BA@FDEKFNLI@lpDevModeA?5?$CB?$DN?50?$AA@
CONST	SEGMENT DWORD USE32 PUBLIC 'CONST'
CONST	ENDS
;	COMDAT ??_C@_0BE@CDEHHFHP@pnLevel?5?$CG?$CG?5peStatus?$AA@
CONST	SEGMENT DWORD USE32 PUBLIC 'CONST'
CONST	ENDS
;	COMDAT ??_C@_0FH@EBJACLJD@D?3?2Program?5Files?5?$CIx86?$CJ?2Microsoft@
CONST	SEGMENT DWORD USE32 PUBLIC 'CONST'
CONST	ENDS
;	COMDAT ??_C@_0BD@FDEIOFCE@s_pfnPrevHook?5?$DN?$DN?50?$AA@
CONST	SEGMENT DWORD USE32 PUBLIC 'CONST'
CONST	ENDS
;	COMDAT ??_C@_0BC@LAJJFBKD@ASSERTION?5FAILED?6?$AA@
CONST	SEGMENT DWORD USE32 PUBLIC 'CONST'
CONST	ENDS
;	COMDAT ??_C@_0FI@NHHJANPC@D?3?2Program?5Files?5?$CIx86?$CJ?2Microsoft@
CONST	SEGMENT DWORD USE32 PUBLIC 'CONST'
CONST	ENDS
;	COMDAT ??_C@_0BF@IAAKIJDJ@AtlThrow?3?5hr?5?$DN?50x?$CFx?6?$AA@
CONST	SEGMENT DWORD USE32 PUBLIC 'CONST'
CONST	ENDS
;	COMDAT ??_C@_0CK@KDAMANMH@lpType?5?$CB?$DN?5?$CILPSTR?$CJ?$CI?$CIULONG_PTR?$CJ?$CI?$CIW@
CONST	SEGMENT DWORD USE32 PUBLIC 'CONST'
CONST	ENDS
;	COMDAT ??_C@_0FG@BCMOJBOI@D?3?2Program?5Files?5?$CIx86?$CJ?2Microsoft@
CONST	SEGMENT DWORD USE32 PUBLIC 'CONST'
CONST	ENDS
;	COMDAT ??_C@_01JBBJJEPG@p?$AA@
CONST	SEGMENT DWORD USE32 PUBLIC 'CONST'
CONST	ENDS
;	COMDAT ??_C@_0FI@FDBICBML@D?3?2Program?5Files?5?$CIx86?$CJ?2Microsoft@
CONST	SEGMENT DWORD USE32 PUBLIC 'CONST'
CONST	ENDS
;	COMDAT ??_C@_04HKHFACDA@pVar?$AA@
CONST	SEGMENT DWORD USE32 PUBLIC 'CONST'
CONST	ENDS
;	COMDAT ??_C@_09JCIFBICH@pVar?5?$CB?$DN?50?$AA@
CONST	SEGMENT DWORD USE32 PUBLIC 'CONST'
CONST	ENDS
;	COMDAT ??_C@_0BO@OKMCOHNI@CPropertyHelper?3?3PutProperty?6?$AA@
CONST	SEGMENT DWORD USE32 PUBLIC 'CONST'
CONST	ENDS
;	COMDAT ??_C@_0BO@CPKOKKKG@CPropertyHelper?3?3GetProperty?6?$AA@
CONST	SEGMENT DWORD USE32 PUBLIC 'CONST'
CONST	ENDS
;	COMDAT ??_C@_0L@DLMMDKDI@pbstr?5?$CB?$DN?50?$AA@
CONST	SEGMENT DWORD USE32 PUBLIC 'CONST'
CONST	ENDS
;	COMDAT ??_C@_0O@GOJJAPOG@pvarDest?5?$CB?$DN?50?$AA@
CONST	SEGMENT DWORD USE32 PUBLIC 'CONST'
CONST	ENDS
;	COMDAT ??_C@_0L@NMJIPIKP@nNull?5?$DN?$DN?50?$AA@
CONST	SEGMENT DWORD USE32 PUBLIC 'CONST'
CONST	ENDS
;	COMDAT ??_C@_0N@EDEOCDNH@pStream?5?$CB?$DN?50?$AA@
CONST	SEGMENT DWORD USE32 PUBLIC 'CONST'
CONST	ENDS
;	COMDAT ??_C@_0L@GGLDMAPP@m_str?5?$DN?$DN?50?$AA@
CONST	SEGMENT DWORD USE32 PUBLIC 'CONST'
CONST	ENDS
;	COMDAT ??_C@_0O@LPAFDJOF@bstrText?5?$DN?$DN?50?$AA@
CONST	SEGMENT DWORD USE32 PUBLIC 'CONST'
CONST	ENDS
;	COMDAT ??_C@_0CC@EFNKCNDJ@vtSrc?5?$DN?$DN?5VT_I4?5?$HM?$HM?5vtSrc?5?$DN?$DN?5VT_IN@
CONST	SEGMENT DWORD USE32 PUBLIC 'CONST'
CONST	ENDS
;	COMDAT ??_C@_0CE@EPKJIEBK@vtSrc?5?$DN?$DN?5VT_I4?5?$HM?$HM?5vtSrc?5?$DN?$DN?5VT_ER@
CONST	SEGMENT DWORD USE32 PUBLIC 'CONST'
CONST	ENDS
;	COMDAT ??_C@_0CD@OAHBHENF@vtSrc?5?$DN?$DN?5VT_R8?5?$HM?$HM?5vtSrc?5?$DN?$DN?5VT_DA@
CONST	SEGMENT DWORD USE32 PUBLIC 'CONST'
CONST	ENDS
;	COMDAT ??_C@_0CE@PICECHPM@vtSrc?5?$DN?$DN?5VT_UI4?5?$HM?$HM?5vtSrc?5?$DN?$DN?5VT_U@
CONST	SEGMENT DWORD USE32 PUBLIC 'CONST'
CONST	ENDS
;	COMDAT ??_C@_0BP@JBPFIBMK@pstrDest?5?$CB?$DN?50?5?$CG?$CG?5vt?5?$DN?$DN?5VT_BSTR?$AA@
CONST	SEGMENT DWORD USE32 PUBLIC 'CONST'
CONST	ENDS
;	COMDAT ??_C@_0L@MPEAEOHH@pDest?5?$CB?$DN?50?$AA@
CONST	SEGMENT DWORD USE32 PUBLIC 'CONST'
CONST	ENDS
;	COMDAT ??_C@_0BF@CCFFBNDL@?$CI?$CIHRESULT?$CJ?$CIhr?$CJ?5?$DO?$DN?50?$CJ?$AA@
CONST	SEGMENT DWORD USE32 PUBLIC 'CONST'
CONST	ENDS
;	COMDAT ??_C@_06CIAHICCP@pThunk?$AA@
CONST	SEGMENT DWORD USE32 PUBLIC 'CONST'
CONST	ENDS
;	COMDAT ??_C@_0FG@LDNDNCJM@D?3?2Program?5Files?5?$CIx86?$CJ?2Microsoft@
CONST	SEGMENT DWORD USE32 PUBLIC 'CONST'
CONST	ENDS
;	COMDAT ??_C@_08DLNCEHCE@m_h?5?$DN?$DN?50?$AA@
CONST	SEGMENT DWORD USE32 PUBLIC 'CONST'
CONST	ENDS
;	COMDAT ??_C@_0L@MPGHMANA@?$CBm_bLocked?$AA@
CONST	SEGMENT DWORD USE32 PUBLIC 'CONST'
CONST	ENDS
;	COMDAT ??_C@_09HIEJFN@m_bLocked?$AA@
CONST	SEGMENT DWORD USE32 PUBLIC 'CONST'
CONST	ENDS
;	COMDAT ??_C@_0EA@EJEMLPD@ERROR?5?3?5Unable?5to?5initialize?5cri@
CONST	SEGMENT DWORD USE32 PUBLIC 'CONST'
CONST	ENDS
;	COMDAT ??_C@_0BB@JLCMIEMB@_pAtlModule?5?$DN?$DN?50?$AA@
CONST	SEGMENT DWORD USE32 PUBLIC 'CONST'
CONST	ENDS
;	COMDAT ??_C@_0DN@JALIHHGH@ERROR?5?3?5Unable?5to?5initialize?5cri@
CONST	SEGMENT DWORD USE32 PUBLIC 'CONST'
CONST	ENDS
;	COMDAT ??_C@_0L@NJOPLADJ@ppGIT?5?$CB?$DN?50?$AA@
CONST	SEGMENT DWORD USE32 PUBLIC 'CONST'
CONST	ENDS
;	COMDAT ??_C@_0M@GKCENBEN@m_pGIT?5?$CB?$DN?50?$AA@
CONST	SEGMENT DWORD USE32 PUBLIC 'CONST'
CONST	ENDS
;	COMDAT ??_C@_0O@PGKIMHP@_pModule?5?$DN?$DN?50?$AA@
CONST	SEGMENT DWORD USE32 PUBLIC 'CONST'
CONST	ENDS
;	COMDAT ??_C@_0BL@EIHFIEO@CComModule?3?3CreateInstance?$AA@
CONST	SEGMENT DWORD USE32 PUBLIC 'CONST'
CONST	ENDS
;	COMDAT ??_C@_0BK@HFBNDALM@ATL?3?5?$CFs?5not?5implemented?4?6?$AA@
CONST	SEGMENT DWORD USE32 PUBLIC 'CONST'
CONST	ENDS
;	COMDAT ??_C@_07KHHCAHPK@pv?5?$CB?$DN?50?$AA@
CONST	SEGMENT DWORD USE32 PUBLIC 'CONST'
CONST	ENDS
;	COMDAT ??_C@_0BP@BGNHADPA@Object?5created?5on?5thread?5?$DN?5?$CFd?6?$AA@
CONST	SEGMENT DWORD USE32 PUBLIC 'CONST'
CONST	ENDS
;	COMDAT ??_C@_0CI@FFDALPMI@Failed?5to?5create?5Object?5on?5threa@
CONST	SEGMENT DWORD USE32 PUBLIC 'CONST'
CONST	ENDS
;	COMDAT ??_C@_0M@BNMKLGID@m_hKey?5?$DN?$DN?50?$AA@
CONST	SEGMENT DWORD USE32 PUBLIC 'CONST'
CONST	ENDS
;	COMDAT ??_C@_0M@LINKMMAA@m_hKey?5?$CB?$DN?50?$AA@
CONST	SEGMENT DWORD USE32 PUBLIC 'CONST'
CONST	ENDS
;	COMDAT ??_C@_0BJ@BODJNDIN@?$CIhEvent?5?$CB?$DN?50?$CJ?5?$HM?$HM?5?$CBbAsync?$AA@
CONST	SEGMENT DWORD USE32 PUBLIC 'CONST'
CONST	ENDS
;	COMDAT ??_C@_0BA@PCGOHLCP@hKeyParent?5?$CB?$DN?50?$AA@
CONST	SEGMENT DWORD USE32 PUBLIC 'CONST'
CONST	ENDS
;	COMDAT ??_C@_0L@LBABFFHO@lRes?5?$DN?$DN?50L?$AA@
CONST	SEGMENT DWORD USE32 PUBLIC 'CONST'
CONST	ENDS
;	COMDAT ??_C@_0CA@PAMKJKCN@?$CIlRes?$CB?$DN0L?$CJ?5?$HM?$HM?5?$CIdwType?5?$DN?$DN?5?$CI?54?5?$CJ?$CJ?$AA@
CONST	SEGMENT DWORD USE32 PUBLIC 'CONST'
CONST	ENDS
;	COMDAT ??_C@_0CJ@IMLJDBBO@?$CIlRes?$CB?$DN0L?$CJ?5?$HM?$HM?5?$CIdwCount?5?$DN?$DN?5sizeof@
CONST	SEGMENT DWORD USE32 PUBLIC 'CONST'
CONST	ENDS
;	COMDAT ??_C@_0O@EMMAFOBL@pdwCount?5?$CB?$DN?50?$AA@
CONST	SEGMENT DWORD USE32 PUBLIC 'CONST'
CONST	ENDS
;	COMDAT ??_C@_0EK@HOEOJCDI@?$CIlRes?$CB?$DN0L?$CJ?5?$HM?$HM?5?$CIdwType?5?$DN?$DN?5?$CI?51?5?$CJ?$CJ?5@
CONST	SEGMENT DWORD USE32 PUBLIC 'CONST'
CONST	ENDS
;	COMDAT ??_C@_0N@PJOHNBMO@pnBytes?5?$CB?$DN?50?$AA@
CONST	SEGMENT DWORD USE32 PUBLIC 'CONST'
CONST	ENDS
;	COMDAT ??_C@_0N@GACMNLNE@pnChars?5?$CB?$DN?50?$AA@
CONST	SEGMENT DWORD USE32 PUBLIC 'CONST'
CONST	ENDS
;	COMDAT ??_C@_0P@DLMLHPEH@lpszValue?5?$CB?$DN?50?$AA@
CONST	SEGMENT DWORD USE32 PUBLIC 'CONST'
CONST	ENDS
;	COMDAT ??_C@_0O@DKGIOJGA@pszValue?5?$CB?$DN?50?$AA@
CONST	SEGMENT DWORD USE32 PUBLIC 'CONST'
CONST	ENDS
;	COMDAT ??_C@_0CH@EEDIHPHE@?$CIdwType?5?$DN?$DN?5?$CI?51?5?$CJ?$CJ?5?$HM?$HM?5?$CIdwType?5?$DN?$DN?5@
CONST	SEGMENT DWORD USE32 PUBLIC 'CONST'
CONST	ENDS
;	COMDAT ??_C@_08KKDEIFOM@psd?5?$CB?$DN?50?$AA@
CONST	SEGMENT DWORD USE32 PUBLIC 'CONST'
CONST	ENDS
;	COMDAT ??_C@_0DP@JOHDIOJH@CRegKey?3?3RecurseDeleteKey?5?3?5Fail@
CONST	SEGMENT DWORD USE32 PUBLIC 'CONST'
CONST	ENDS
;	COMDAT ??_C@_05GIBEAPNE@CLSID?$AA@
CONST	SEGMENT DWORD USE32 PUBLIC 'CONST'
CONST	ENDS
;	COMDAT ??_C@_05PDIKPLII@AppID?$AA@
CONST	SEGMENT DWORD USE32 PUBLIC 'CONST'
CONST	ENDS
;	COMDAT ??_C@_0DP@OEMAGGO@CComModule?3?3RegisterAppId?5?3?5Fail@
CONST	SEGMENT DWORD USE32 PUBLIC 'CONST'
CONST	ENDS
;	COMDAT ??_C@_0DM@OFJHIFEH@CComModule?3?3RegisterAppId?5?3?5Fail@
CONST	SEGMENT DWORD USE32 PUBLIC 'CONST'
CONST	ENDS
;	COMDAT ??_C@_0EC@EGIOPFCF@CComModule?3?3RegisterAppId?5?3?5Fail@
CONST	SEGMENT DWORD USE32 PUBLIC 'CONST'
CONST	ENDS
;	COMDAT ??_C@_0DJ@PCILIHOA@CComModule?3?3RegisterAppId?5?3?5Fail@
CONST	SEGMENT DWORD USE32 PUBLIC 'CONST'
CONST	ENDS
;	COMDAT ??_C@_0EG@ECHMLFAI@CComModule?3?3RegisterAppId?5?3?5Fail@
CONST	SEGMENT DWORD USE32 PUBLIC 'CONST'
CONST	ENDS
;	COMDAT ??_C@_0DH@DPJFPIFM@CComModule?3?3RegisterAppId?5?3?5Fail@
CONST	SEGMENT DWORD USE32 PUBLIC 'CONST'
CONST	ENDS
;	COMDAT ??_C@_0DJ@OHJDIKNP@CComModule?3?3RegisterAppId?5?3?5Fail@
CONST	SEGMENT DWORD USE32 PUBLIC 'CONST'
CONST	ENDS
;	COMDAT ??_C@_0EI@PKEBHBCF@CComModule?3?3UnregisterAppId?5?3?5Fa@
CONST	SEGMENT DWORD USE32 PUBLIC 'CONST'
CONST	ENDS
;	COMDAT ??_C@_0DJ@NOMBKAIF@CComModule?3?3UnregisterAppId?5?3?5Fa@
CONST	SEGMENT DWORD USE32 PUBLIC 'CONST'
CONST	ENDS
;	COMDAT ??_C@_0DL@NCNJMMBL@CComModule?3?3UnregisterAppId?5?3?5Fa@
CONST	SEGMENT DWORD USE32 PUBLIC 'CONST'
CONST	ENDS
;	COMDAT ??_C@_0BP@DILLEFPO@lpszKey?5?$CB?$DN?50?5?$CG?$CG?5lpszValue?5?$CB?$DN?50?$AA@
CONST	SEGMENT DWORD USE32 PUBLIC 'CONST'
CONST	ENDS
;	COMDAT ??_C@_0FG@MPGIOFPA@D?3?2Program?5Files?5?$CIx86?$CJ?2Microsoft@
CONST	SEGMENT DWORD USE32 PUBLIC 'CONST'
CONST	ENDS
;	COMDAT ??_C@_06JALMKDEH@p?5?$CB?$DN?50?$AA@
CONST	SEGMENT DWORD USE32 PUBLIC 'CONST'
CONST	ENDS
;	COMDAT ??_C@_0EO@FOFJGMBM@statically?5linked?5in?5CRegObject?5@
CONST	SEGMENT DWORD USE32 PUBLIC 'CONST'
CONST	ENDS
;	COMDAT ??_C@_0FA@KFANAKFG@?$CCstatically?5linked?5in?5CRegObject@
CONST	SEGMENT DWORD USE32 PUBLIC 'CONST'
CONST	ENDS
;	COMDAT ??_C@_0BN@HGJLNPOD@Failed?5to?5LoadLibrary?5on?5?$CFs?6?$AA@
CONST	SEGMENT DWORD USE32 PUBLIC 'CONST'
CONST	ENDS
;	COMDAT ??_C@_0CJ@KJDBLEOI@Failed?5to?5FindResource?5on?5ID?3?$CFd?5@
CONST	SEGMENT DWORD USE32 PUBLIC 'CONST'
CONST	ENDS
;	COMDAT ??_C@_0CJ@COPMGFKA@Failed?5to?5FindResource?5on?5ID?3?$CFs?5@
CONST	SEGMENT DWORD USE32 PUBLIC 'CONST'
CONST	ENDS
;	COMDAT ??_C@_0BI@LNHJMEOP@Failed?5to?5LoadResource?6?$AA@
CONST	SEGMENT DWORD USE32 PUBLIC 'CONST'
CONST	ENDS
;	COMDAT ??_C@_0BF@KHDDAOIJ@Map?5Entry?5not?5found?6?$AA@
CONST	SEGMENT DWORD USE32 PUBLIC 'CONST'
CONST	ENDS
;	COMDAT ??_C@_0BM@GPEAKKFD@Failed?5to?5CreateFile?5on?5?$CFs?6?$AA@
CONST	SEGMENT DWORD USE32 PUBLIC 'CONST'
CONST	ENDS
;	COMDAT ??_C@_0BH@DIPIMAII@Read?5Failed?5on?5file?$CFs?6?$AA@
CONST	SEGMENT DWORD USE32 PUBLIC 'CONST'
CONST	ENDS
;	COMDAT ??_C@_0CL@PILPOMLI@Bogus?5value?5?$CFc?5passed?5as?5binary?5@
CONST	SEGMENT DWORD USE32 PUBLIC 'CONST'
CONST	ENDS
;	COMDAT ??_C@_04OHBKMIBJ@HKCR?$AA@
CONST	SEGMENT DWORD USE32 PUBLIC 'CONST'
CONST	ENDS
;	COMDAT ??_C@_04KIFLFONO@HKCU?$AA@
CONST	SEGMENT DWORD USE32 PUBLIC 'CONST'
CONST	ENDS
;	COMDAT ??_C@_04CBBMIBLK@HKLM?$AA@
CONST	SEGMENT DWORD USE32 PUBLIC 'CONST'
CONST	ENDS
;	COMDAT ??_C@_03DLBIJLAB@HKU?$AA@
CONST	SEGMENT DWORD USE32 PUBLIC 'CONST'
CONST	ENDS
;	COMDAT ??_C@_04OFOCGAOH@HKPD?$AA@
CONST	SEGMENT DWORD USE32 PUBLIC 'CONST'
CONST	ENDS
;	COMDAT ??_C@_04POMNGLEL@HKDD?$AA@
CONST	SEGMENT DWORD USE32 PUBLIC 'CONST'
CONST	ENDS
;	COMDAT ??_C@_04LEMDOLAJ@HKCC?$AA@
CONST	SEGMENT DWORD USE32 PUBLIC 'CONST'
CONST	ENDS
;	COMDAT ??_C@_0BC@JBJOLKMF@HKEY_CLASSES_ROOT?$AA@
CONST	SEGMENT DWORD USE32 PUBLIC 'CONST'
CONST	ENDS
;	COMDAT ??_C@_0BC@GMMMKLBI@HKEY_CURRENT_USER?$AA@
CONST	SEGMENT DWORD USE32 PUBLIC 'CONST'
CONST	ENDS
;	COMDAT ??_C@_0BD@GIIFIKDM@HKEY_LOCAL_MACHINE?$AA@
CONST	SEGMENT DWORD USE32 PUBLIC 'CONST'
CONST	ENDS
;	COMDAT ??_C@_0L@OEMMANAM@HKEY_USERS?$AA@
CONST	SEGMENT DWORD USE32 PUBLIC 'CONST'
CONST	ENDS
;	COMDAT ??_C@_0BG@IDBEHNDO@HKEY_PERFORMANCE_DATA?$AA@
CONST	SEGMENT DWORD USE32 PUBLIC 'CONST'
CONST	ENDS
;	COMDAT ??_C@_0O@MJDLIIGK@HKEY_DYN_DATA?$AA@
CONST	SEGMENT DWORD USE32 PUBLIC 'CONST'
CONST	ENDS
;	COMDAT ??_C@_0BE@NLNNHLLF@HKEY_CURRENT_CONFIG?$AA@
CONST	SEGMENT DWORD USE32 PUBLIC 'CONST'
CONST	ENDS
;	COMDAT ??_C@_0CE@HPLFHOFC@NextToken?5?3?5Unexpected?5End?5of?5Fi@
CONST	SEGMENT DWORD USE32 PUBLIC 'CONST'
CONST	ENDS
;	COMDAT ??_C@_0BH@IHOFLOMJ@?$CFs?5Type?5not?5supported?6?$AA@
CONST	SEGMENT DWORD USE32 PUBLIC 'CONST'
CONST	ENDS
;	COMDAT ??_C@_07DLHCIBDH@default?$AA@
CONST	SEGMENT DWORD USE32 PUBLIC 'CONST'
CONST	ENDS
;	COMDAT ??_C@_0BI@MFJDFJCO@Setting?5Value?5?$CFs?5at?5?$CFs?6?$AA@
CONST	SEGMENT DWORD USE32 PUBLIC 'CONST'
CONST	ENDS
;	COMDAT ??_C@_0BI@NDCHGJG@Setting?5Value?5?$CFd?5at?5?$CFs?6?$AA@
CONST	SEGMENT DWORD USE32 PUBLIC 'CONST'
CONST	ENDS
;	COMDAT ??_C@_0CN@BAKOHBFP@Binary?5Data?5does?5not?5fall?5on?5BYT@
CONST	SEGMENT DWORD USE32 PUBLIC 'CONST'
CONST	ENDS
;	COMDAT ??_C@_0BG@OFKLEKA@Should?5not?5be?5here?$CB?$CB?6?$AA@
CONST	SEGMENT DWORD USE32 PUBLIC 'CONST'
CONST	ENDS
;	COMDAT ??_C@_0BI@LBDGDLAN@RegQueryInfoKey?5Failed?5?$AA@
CONST	SEGMENT DWORD USE32 PUBLIC 'CONST'
CONST	ENDS
;	COMDAT ??_C@_0N@FCNKJMCG@lpszReg?5?$CB?$DN?50?$AA@
CONST	SEGMENT DWORD USE32 PUBLIC 'CONST'
CONST	ENDS
;	COMDAT ??_C@_0N@HMGHIDAH@ppszReg?5?$CB?$DN?50?$AA@
CONST	SEGMENT DWORD USE32 PUBLIC 'CONST'
CONST	ENDS
;	COMDAT ??_C@_0BK@LLGNALDE@Error?5no?5closing?5?$CF?5found?6?$AA@
CONST	SEGMENT DWORD USE32 PUBLIC 'CONST'
CONST	ENDS
;	COMDAT ??_C@_01EEMJAFIK@?6?$AA@
CONST	SEGMENT DWORD USE32 PUBLIC 'CONST'
CONST	ENDS
;	COMDAT ??_C@_0BN@HJIJAHEL@HKeyFromString?5failed?5on?5?$CFs?6?$AA@
CONST	SEGMENT DWORD USE32 PUBLIC 'CONST'
CONST	ENDS
;	COMDAT ??_C@_0CJ@JJEGIHLG@Syntax?5error?0?5expecting?5a?5?$HL?0?5fou@
CONST	SEGMENT DWORD USE32 PUBLIC 'CONST'
CONST	ENDS
;	COMDAT ??_C@_0CC@MOJNOPNN@Failed?5to?5register?0?5cleaning?5up?$CB@
CONST	SEGMENT DWORD USE32 PUBLIC 'CONST'
CONST	ENDS
;	COMDAT ??_C@_0O@EHICPHFJ@Num?5Els?5?$DN?5?$CFd?6?$AA@
CONST	SEGMENT DWORD USE32 PUBLIC 'CONST'
CONST	ENDS
;	COMDAT ??_C@_0N@GKIPNAL@Deleting?5?$CFs?6?$AA@
CONST	SEGMENT DWORD USE32 PUBLIC 'CONST'
CONST	ENDS
;	COMDAT ??_C@_0BB@POOIJOEN@Creating?5key?5?$CFs?6?$AA@
CONST	SEGMENT DWORD USE32 PUBLIC 'CONST'
CONST	ENDS
;	COMDAT ??_C@_0P@IONAJCEO@Opened?5Key?5?$CFs?6?$AA@
CONST	SEGMENT DWORD USE32 PUBLIC 'CONST'
CONST	ENDS
;	COMDAT ??_C@_0CM@LEFFDKCG@Ignoring?5Open?5key?5on?5?$CFs?5?3?5In?5Rec@
CONST	SEGMENT DWORD USE32 PUBLIC 'CONST'
CONST	ENDS
;	COMDAT ??_C@_0BG@OEFMOOAA@Ending?5Recovery?5Mode?6?$AA@
CONST	SEGMENT DWORD USE32 PUBLIC 'CONST'
CONST	ENDS
;	COMDAT ??_C@_0CH@OEJDLABI@Deleting?5non?9empty?5subkey?5?$CFs?5by?5@
CONST	SEGMENT DWORD USE32 PUBLIC 'CONST'
CONST	ENDS
;	COMDAT ??_C@_0BB@FDAMNOMP@Deleting?5Key?5?$CFs?6?$AA@
CONST	SEGMENT DWORD USE32 PUBLIC 'CONST'
CONST	ENDS
;	COMDAT ??_C@_0BJ@MKNPNODP@0?5?$CB?$DN?5pMapEntries?9?$DOszData?$AA@
CONST	SEGMENT DWORD USE32 PUBLIC 'CONST'
CONST	ENDS
;	COMDAT ??_C@_1O@MNLDABAF@?$AAM?$AAo?$AAd?$AAu?$AAl?$AAe?$AA?$AA@
CONST	SEGMENT DWORD USE32 PUBLIC 'CONST'
CONST	ENDS
;	COMDAT ??_C@_1BG@JBACFMF@?$AAM?$AAo?$AAd?$AAu?$AAl?$AAe?$AA_?$AAR?$AAa?$AAw?$AA?$AA@
CONST	SEGMENT DWORD USE32 PUBLIC 'CONST'
CONST	ENDS
;	COMDAT ??_C@_1BC@KAILKFFG@?$AAR?$AAE?$AAG?$AAI?$AAS?$AAT?$AAR?$AAY?$AA?$AA@
CONST	SEGMENT DWORD USE32 PUBLIC 'CONST'
CONST	ENDS
;	COMDAT ??_C@_00CNPNBAHC@?$AA@
CONST	SEGMENT DWORD USE32 PUBLIC 'CONST'
CONST	ENDS
;	COMDAT ??_C@_0CC@KGIPKMFP@Failed?5to?5Unregister?5ProgID?5?3?5?$CFs@
CONST	SEGMENT DWORD USE32 PUBLIC 'CONST'
CONST	ENDS
;	COMDAT ??_C@_0DG@CANCBFIN@Failed?5to?5Unregister?5Version?5Ind@
CONST	SEGMENT DWORD USE32 PUBLIC 'CONST'
CONST	ENDS
;	COMDAT ??_C@_0BN@DODAGKFC@Failed?5to?5delete?5CLSID?5?3?5?$CFs?6?$AA@
CONST	SEGMENT DWORD USE32 PUBLIC 'CONST'
CONST	ENDS
;	COMDAT ??_C@_0EM@CMPPGOKB@Failed?5to?5delete?5CLSID?5?3?5?$HL?$CF08x?9?$CF@
CONST	SEGMENT DWORD USE32 PUBLIC 'CONST'
CONST	ENDS
;	COMDAT ??_C@_0CB@IHBDCFNI@pbstrPath?5?$CB?$DN?50?5?$CG?$CG?5ppTypeLib?5?$CB?$DN?50@
CONST	SEGMENT DWORD USE32 PUBLIC 'CONST'
CONST	ENDS
;	COMDAT ??_C@_0BC@OFPPHOIH@hInstTypeLib?5?$CB?$DN?50?$AA@
CONST	SEGMENT DWORD USE32 PUBLIC 'CONST'
CONST	ENDS
;	COMDAT ??_C@_04LFHHJFCN@?4tlb?$AA@
CONST	SEGMENT DWORD USE32 PUBLIC 'CONST'
CONST	ENDS
;	COMDAT ??_C@_0BA@MLGHOEGD@pComModule?5?$CB?$DN?50?$AA@
CONST	SEGMENT DWORD USE32 PUBLIC 'CONST'
CONST	ENDS
;	COMDAT ??_C@_0CA@JANIBNGM@pComModule?9?$DOm_hInstTypeLib?5?$CB?$DN?50?$AA@
CONST	SEGMENT DWORD USE32 PUBLIC 'CONST'
CONST	ENDS
;	COMDAT ??_C@_0HE@GOKGCPDA@0?5?$CG?$CG?5?$CCUse?5OBJECT_ENTRY_NON_CREAT@
CONST	SEGMENT DWORD USE32 PUBLIC 'CONST'
CONST	ENDS
;	COMDAT ??_C@_0BD@OCKIHNLB@pEntry?9?$DOiType?5?$DN?$DN?52?$AA@
CONST	SEGMENT DWORD USE32 PUBLIC 'CONST'
CONST	ENDS
;	COMDAT ??_C@_06JHNIBAJK@CLSID?2?$AA@
CONST	SEGMENT DWORD USE32 PUBLIC 'CONST'
CONST	ENDS
;	COMDAT ??_C@_0BF@CCIMKLEB@?2Required?5Categories?$AA@
CONST	SEGMENT DWORD USE32 PUBLIC 'CONST'
CONST	ENDS
;	COMDAT ??_C@_0BI@LFOHFLDB@?2Implemented?5Categories?$AA@
CONST	SEGMENT DWORD USE32 PUBLIC 'CONST'
CONST	ENDS
;	COMDAT ??_C@_0DK@FCBCGFPF@?$CB?3?3IsBadWritePtr?$CIpDllVersionInfo@
CONST	SEGMENT DWORD USE32 PUBLIC 'CONST'
CONST	ENDS
;	COMDAT ??_C@_0O@OGDGDABE@DllGetVersion?$AA@
CONST	SEGMENT DWORD USE32 PUBLIC 'CONST'
CONST	ENDS
;	COMDAT ??_C@_0FH@DJAHKCPC@?$CB?3?3IsBadWritePtr?$CIpdwMajor?0?5sizeo@
CONST	SEGMENT DWORD USE32 PUBLIC 'CONST'
CONST	ENDS
;	COMDAT ??_C@_0N@OGEBEC@comctl32?4dll?$AA@
CONST	SEGMENT DWORD USE32 PUBLIC 'CONST'
CONST	ENDS
;	COMDAT ??_C@_0M@KFDNOLCO@shell32?4dll?$AA@
CONST	SEGMENT DWORD USE32 PUBLIC 'CONST'
CONST	ENDS
;	COMDAT ??_C@_08NEPKAPOI@ppv?5?$CB?$DN?50?$AA@
CONST	SEGMENT DWORD USE32 PUBLIC 'CONST'
CONST	ENDS
;	COMDAT ??_C@_0EH@BABLPHCB@ERROR?5?3?5Unable?5to?5lock?5critical?5@
CONST	SEGMENT DWORD USE32 PUBLIC 'CONST'
CONST	ENDS
;	COMDAT ??_C@_0L@LJIJJDC@hHeap?5?$CB?$DN?50?$AA@
CONST	SEGMENT DWORD USE32 PUBLIC 'CONST'
CONST	ENDS
;	COMDAT ??_C@_0FF@JIDNOFIJ@D?3?2Program?5Files?5?$CIx86?$CJ?2Microsoft@
CONST	SEGMENT DWORD USE32 PUBLIC 'CONST'
CONST	ENDS
;	COMDAT ??_C@_0BG@LJDNKGDC@?$CB?$CIdwFlags?$CG0x00000004?$CJ?$AA@
CONST	SEGMENT DWORD USE32 PUBLIC 'CONST'
CONST	ENDS
;	COMDAT ??_C@_08DFMCLO@bSuccess?$AA@
CONST	SEGMENT DWORD USE32 PUBLIC 'CONST'
CONST	ENDS
;	COMDAT ??_C@_0N@MNELGLIC@m_hHeap?5?$DN?$DN?50?$AA@
CONST	SEGMENT DWORD USE32 PUBLIC 'CONST'
CONST	ENDS
;	COMDAT ??_C@_09BBJEMDLA@nRet?5?$CB?$DN?50?$AA@
CONST	SEGMENT DWORD USE32 PUBLIC 'CONST'
CONST	ENDS
;	COMDAT ??_C@_0FI@OLGALFJN@D?3?2Program?5Files?5?$CIx86?$CJ?2Microsoft@
CONST	SEGMENT DWORD USE32 PUBLIC 'CONST'
CONST	ENDS
;	COMDAT ??_C@_09EEBKLCFA@nRefs?5?$DO?50?$AA@
CONST	SEGMENT DWORD USE32 PUBLIC 'CONST'
CONST	ENDS
;	COMDAT ??_C@_0FJ@DMHPDOJC@D?3?2Program?5Files?5?$CIx86?$CJ?2Microsoft@
CONST	SEGMENT DWORD USE32 PUBLIC 'CONST'
CONST	ENDS
;	COMDAT ??_C@_0L@GJOHDDKG@nRefs?5?$DM?$DN?51?$AA@
CONST	SEGMENT DWORD USE32 PUBLIC 'CONST'
CONST	ENDS
;	COMDAT ??_C@_0L@OIIMFBNE@nRefs?5?$CB?$DN?50?$AA@
CONST	SEGMENT DWORD USE32 PUBLIC 'CONST'
CONST	ENDS
;	COMDAT ??_C@_0L@FKINKMNN@IsLocked?$CI?$CJ?$AA@
CONST	SEGMENT DWORD USE32 PUBLIC 'CONST'
CONST	ENDS
;	COMDAT ??_C@_0BA@MLJMCNFJ@pStringMgr?5?$DN?$DN?50?$AA@
CONST	SEGMENT DWORD USE32 PUBLIC 'CONST'
CONST	ENDS
;	COMDAT ??_C@_0CD@HFEEKIIE@mbstr?5?$DN?$DN?50?5?$HM?$HM?5result?5?$DM?$DN?5?$CIint?$CJcou@
CONST	SEGMENT DWORD USE32 PUBLIC 'CONST'
CONST	ENDS
;	COMDAT ??_C@_0FH@KDPNIMBO@D?3?2Program?5Files?5?$CIx86?$CJ?2Microsoft@
CONST	SEGMENT DWORD USE32 PUBLIC 'CONST'
CONST	ENDS
;	COMDAT ??_C@_0CD@JADEDFCN@wcstr?5?$DN?$DN?50?5?$HM?$HM?5result?5?$DM?$DN?5?$CIint?$CJcou@
CONST	SEGMENT DWORD USE32 PUBLIC 'CONST'
CONST	ENDS
;	COMDAT ??_C@_0BA@CLMJJCOM@nSize?5?$DO?$DN?5nSizeW?$AA@
CONST	SEGMENT DWORD USE32 PUBLIC 'CONST'
CONST	ENDS
;	COMDAT ??_C@_0BF@DFFCODPF@m_pData?9?$DOnRefs?5?$DN?$DN?5?91?$AA@
CONST	SEGMENT DWORD USE32 PUBLIC 'CONST'
CONST	ENDS
;	COMDAT ??_C@_0BK@KFNMPDFA@m_pData?9?$DOnDataLength?5?$DN?$DN?50?$AA@
CONST	SEGMENT DWORD USE32 PUBLIC 'CONST'
CONST	ENDS
;	COMDAT ??_C@_0BC@JINHKJCC@pData?9?$DOnRefs?5?$DM?$DN?50?$AA@
CONST	SEGMENT DWORD USE32 PUBLIC 'CONST'
CONST	ENDS
;	COMDAT ??_C@_0BB@HNGMIMJM@pData?9?$DOnRefs?5?$DM?50?$AA@
CONST	SEGMENT DWORD USE32 PUBLIC 'CONST'
CONST	ENDS
;	COMDAT ??_C@_0FB@EIPLHBJE@CFixedStringMgr?3?3Allocate?$CI?$CJ?5spil@
CONST	SEGMENT DWORD USE32 PUBLIC 'CONST'
CONST	ENDS
;	COMDAT ??_C@_0FD@PINPFILO@CFixedStringMgr?3?3Reallocate?$CI?$CJ?5sp@
CONST	SEGMENT DWORD USE32 PUBLIC 'CONST'
CONST	ENDS
;	COMDAT ??_C@_0P@MDHCGOCC@m_pMemMgr?5?$DN?$DN?50?$AA@
CONST	SEGMENT DWORD USE32 PUBLIC 'CONST'
CONST	ENDS
;	COMDAT ??_C@_0FF@PEBLHPJJ@D?3?2Program?5Files?5?$CIx86?$CJ?2Microsoft@
CONST	SEGMENT DWORD USE32 PUBLIC 'CONST'
CONST	ENDS
;	COMDAT ??_C@_0BK@KICONMKH@pData?9?$DOpStringMgr?5?$DN?$DN?5this?$AA@
CONST	SEGMENT DWORD USE32 PUBLIC 'CONST'
CONST	ENDS
;	COMDAT ??_C@_0CG@HPMMCKHL@?$CI?$CIWORD?$CJ?$CI?$CIDWORD_PTR?$CJ?$CIpsz?$CJ?5?$DO?$DO?516?$CJ?$CJ@
CONST	SEGMENT DWORD USE32 PUBLIC 'CONST'
CONST	ENDS
;	COMDAT ??_C@_0N@BDLMIBLB@pFormat?5?$CB?$DN?50?$AA@
CONST	SEGMENT DWORD USE32 PUBLIC 'CONST'
CONST	ENDS
;	COMDAT ??_C@_0FG@IEFONAOG@D?3?2Program?5Files?5?$CIx86?$CJ?2Microsoft@
CONST	SEGMENT DWORD USE32 PUBLIC 'CONST'
CONST	ENDS
;	COMDAT ??_C@_05LLAMLEHD@?$CFI64d?$AA@
CONST	SEGMENT DWORD USE32 PUBLIC 'CONST'
CONST	ENDS
;	COMDAT ??_C@_05KCADNOJC@?$CF02ld?$AA@
CONST	SEGMENT DWORD USE32 PUBLIC 'CONST'
CONST	ENDS
;	COMDAT ??_C@_0CB@FKADHJGH@strFormat?4LoadStringA?$CInFormatID?$CJ@
CONST	SEGMENT DWORD USE32 PUBLIC 'CONST'
CONST	ENDS
;	COMDAT ??_C@_02EAOCLKAK@ld?$AA@
CONST	SEGMENT DWORD USE32 PUBLIC 'CONST'
CONST	ENDS
;	COMDAT ??_C@_02BDDLJJBK@lu?$AA@
CONST	SEGMENT DWORD USE32 PUBLIC 'CONST'
CONST	ENDS
;	COMDAT ??_C@_02HIKPPMOK@Ld?$AA@
CONST	SEGMENT DWORD USE32 PUBLIC 'CONST'
CONST	ENDS
;	COMDAT ??_C@_02CLHGNPPK@Lu?$AA@
CONST	SEGMENT DWORD USE32 PUBLIC 'CONST'
CONST	ENDS
;	COMDAT ??_C@_02BBAHNLBA@?$CFp?$AA@
CONST	SEGMENT DWORD USE32 PUBLIC 'CONST'
CONST	ENDS
;	COMDAT ??_C@_04DBLLIIGB@p?$DN?$DN0?$AA@
CONST	SEGMENT DWORD USE32 PUBLIC 'CONST'
CONST	ENDS
;	COMDAT ??_C@_04CLHEGAEG@p?$CB?$DN0?$AA@
CONST	SEGMENT DWORD USE32 PUBLIC 'CONST'
CONST	ENDS
;	COMDAT ??_C@_0CA@CLKCNBMB@nIndex?5?$DO?$DN?50?5?$CG?$CG?5nIndex?5?$DM?5m_nSize?$AA@
CONST	SEGMENT DWORD USE32 PUBLIC 'CONST'
CONST	ENDS
;	COMDAT ??_C@_0FK@CHAMEKEI@D?3?2Program?5Files?5?$CIx86?$CJ?2Microsoft@
CONST	SEGMENT DWORD USE32 PUBLIC 'CONST'
CONST	ENDS
;	COMDAT ??_C@_1M@PPPPCDEP@?$AAA?$AAP?$AAP?$AAI?$AAD?$AA?$AA@
CONST	SEGMENT DWORD USE32 PUBLIC 'CONST'
CONST	ENDS
;	COMDAT ??_C@_0M@HHBDEBO@ppvObj?5?$CB?$DN?50?$AA@
CONST	SEGMENT DWORD USE32 PUBLIC 'CONST'
CONST	ENDS
;	COMDAT ??_C@_0BO@OBIGOAOM@AtlIsValidString?$CI?5pszFormat?5?$CJ?$AA@
CONST	SEGMENT DWORD USE32 PUBLIC 'CONST'
CONST	ENDS
;	COMDAT ??_C@_0BH@HHDGIIFB@0123456789abcdefABCDEF?$AA@
CONST	SEGMENT DWORD USE32 PUBLIC 'CONST'
CONST	ENDS
;	COMDAT ??_C@_01DDCIFGEA@E?$AA@
CONST	SEGMENT DWORD USE32 PUBLIC 'CONST'
CONST	ENDS
;	COMDAT ??_C@_01KGKMHCOC@e?$AA@
CONST	SEGMENT DWORD USE32 PUBLIC 'CONST'
CONST	ENDS
;	COMDAT ??_C@_08GPODJFIN@m_p?5?$DN?$DN?50?$AA@
CONST	SEGMENT DWORD USE32 PUBLIC 'CONST'
CONST	ENDS
;	COMDAT ??_C@_0FH@BOCPFCEM@D?3?2Program?5Files?5?$CIx86?$CJ?2Microsoft@
CONST	SEGMENT DWORD USE32 PUBLIC 'CONST'
CONST	ENDS
;	COMDAT ??_C@_11LOCGONAA@?$AA?$AA@
CONST	SEGMENT DWORD USE32 PUBLIC 'CONST'
CONST	ENDS
;	COMDAT ??_C@_0CJ@FJEKGMMD@Warning?3?5implicit?5LoadString?$CI?$CFu?$CJ@
CONST	SEGMENT DWORD USE32 PUBLIC 'CONST'
CONST	ENDS
;	COMDAT ??_C@_0BA@GOIMFHNK@pStringMgr?5?$CB?$DN?50?$AA@
CONST	SEGMENT DWORD USE32 PUBLIC 'CONST'
CONST	ENDS
;	COMDAT ??_C@_0BA@GNIEOBOF@nNewLength?5?$DO?$DN?50?$AA@
CONST	SEGMENT DWORD USE32 PUBLIC 'CONST'
CONST	ENDS
;	COMDAT ??_C@_0CB@GFHAPKDK@pOldData?9?$DOnAllocLength?5?$DM?5nLength@
CONST	SEGMENT DWORD USE32 PUBLIC 'CONST'
CONST	ENDS
;	COMDAT ??_C@_0N@ILOMLJGA@nLength?5?$DO?$DN?50?$AA@
CONST	SEGMENT DWORD USE32 PUBLIC 'CONST'
CONST	ENDS
;	COMDAT ??_C@_0CD@EEFFJEGJ@nLength?5?$DM?$DN?5GetData?$CI?$CJ?9?$DOnAllocLeng@
CONST	SEGMENT DWORD USE32 PUBLIC 'CONST'
CONST	ENDS
;	COMDAT ??_C@_0EM@KKHJFHNK@D?3?2Program?5Files?5?$CIx86?$CJ?2Microsoft@
CONST	SEGMENT DWORD USE32 PUBLIC 'CONST'
CONST	ENDS
;	COMDAT ??_C@_08EPJLHIJG@bad?5cast?$AA@
CONST	SEGMENT DWORD USE32 PUBLIC 'CONST'
CONST	ENDS
;	COMDAT ??_C@_0EN@IBFBLEEG@D?3?2Program?5Files?5?$CIx86?$CJ?2Microsoft@
CONST	SEGMENT DWORD USE32 PUBLIC 'CONST'
CONST	ENDS
rdata$r	SEGMENT DWORD USE32 PUBLIC 'CONST'
rdata$r	ENDS
SHARED	SEGMENT DWORD USE32 PUBLIC ''
SHARED	ENDS
text$yc	SEGMENT PARA USE32 PUBLIC 'CODE'
text$yc	ENDS
CRT$XCA	SEGMENT DWORD USE32 PUBLIC 'DATA'
CRT$XCA	ENDS
CRT$XCU	SEGMENT DWORD USE32 PUBLIC 'DATA'
CRT$XCU	ENDS
CRT$XCL	SEGMENT DWORD USE32 PUBLIC 'DATA'
CRT$XCL	ENDS
CRT$XCC	SEGMENT DWORD USE32 PUBLIC 'DATA'
CRT$XCC	ENDS
CRT$XCZ	SEGMENT DWORD USE32 PUBLIC 'DATA'
CRT$XCZ	ENDS
text$yd	SEGMENT PARA USE32 PUBLIC 'CODE'
text$yd	ENDS
ATL$__m	SEGMENT DWORD USE32 PUBLIC ''
ATL$__m	ENDS
ATL$__z	SEGMENT DWORD USE32 PUBLIC ''
ATL$__z	ENDS
ATL$__a	SEGMENT DWORD USE32 PUBLIC ''
ATL$__a	ENDS
xdata$x	SEGMENT DWORD USE32 PUBLIC 'CONST'
xdata$x	ENDS
;	COMDAT _InlineIsEqualGUID
_TEXT	SEGMENT PARA USE32 PUBLIC 'CODE'
_TEXT	ENDS
;	COMDAT _IsEqualGUID
_TEXT	SEGMENT PARA USE32 PUBLIC 'CODE'
_TEXT	ENDS
;	COMDAT _==
_TEXT	SEGMENT PARA USE32 PUBLIC 'CODE'
_TEXT	ENDS
;	COMDAT ??1bad_exception@std@@UAE@XZ
_TEXT	SEGMENT PARA USE32 PUBLIC 'CODE'
_TEXT	ENDS
;	COMDAT ??_Gbad_exception@std@@UAEPAXI@Z
_TEXT	SEGMENT PARA USE32 PUBLIC 'CODE'
_TEXT	ENDS
;	COMDAT ??1bad_alloc@std@@UAE@XZ
_TEXT	SEGMENT PARA USE32 PUBLIC 'CODE'
_TEXT	ENDS
;	COMDAT ??_Gbad_alloc@std@@UAEPAXI@Z
_TEXT	SEGMENT PARA USE32 PUBLIC 'CODE'
_TEXT	ENDS
;	COMDAT _wmemchr
_TEXT	SEGMENT PARA USE32 PUBLIC 'CODE'
_TEXT	ENDS
;	COMDAT _wmemcmp
_TEXT	SEGMENT PARA USE32 PUBLIC 'CODE'
_TEXT	ENDS
;	COMDAT _wmemcpy
_TEXT	SEGMENT PARA USE32 PUBLIC 'CODE'
_TEXT	ENDS
;	COMDAT _wmemmove
_TEXT	SEGMENT PARA USE32 PUBLIC 'CODE'
_TEXT	ENDS
;	COMDAT _wmemset
_TEXT	SEGMENT PARA USE32 PUBLIC 'CODE'
_TEXT	ENDS
;	COMDAT ??0logic_error@std@@QAE@ABV?$basic_string@DU?$char_traits@D@std@@V?$allocator@D@2@@1@@Z
_TEXT	SEGMENT PARA USE32 PUBLIC 'CODE'
_TEXT	ENDS
;	COMDAT ??1logic_error@std@@UAE@XZ
_TEXT	SEGMENT PARA USE32 PUBLIC 'CODE'
_TEXT	ENDS
;	COMDAT ?what@logic_error@std@@UBEPBDXZ
_TEXT	SEGMENT PARA USE32 PUBLIC 'CODE'
_TEXT	ENDS
;	COMDAT ??_Glogic_error@std@@UAEPAXI@Z
_TEXT	SEGMENT PARA USE32 PUBLIC 'CODE'
_TEXT	ENDS
;	COMDAT ??1domain_error@std@@UAE@XZ
_TEXT	SEGMENT PARA USE32 PUBLIC 'CODE'
_TEXT	ENDS
;	COMDAT ??_Gdomain_error@std@@UAEPAXI@Z
_TEXT	SEGMENT PARA USE32 PUBLIC 'CODE'
_TEXT	ENDS
;	COMDAT ??1invalid_argument@std@@UAE@XZ
_TEXT	SEGMENT PARA USE32 PUBLIC 'CODE'
_TEXT	ENDS
;	COMDAT ??_Ginvalid_argument@std@@UAEPAXI@Z
_TEXT	SEGMENT PARA USE32 PUBLIC 'CODE'
_TEXT	ENDS
;	COMDAT ??1length_error@std@@UAE@XZ
_TEXT	SEGMENT PARA USE32 PUBLIC 'CODE'
_TEXT	ENDS
;	COMDAT ??_Glength_error@std@@UAEPAXI@Z
_TEXT	SEGMENT PARA USE32 PUBLIC 'CODE'
_TEXT	ENDS
;	COMDAT ??1out_of_range@std@@UAE@XZ
_TEXT	SEGMENT PARA USE32 PUBLIC 'CODE'
_TEXT	ENDS
;	COMDAT ??_Gout_of_range@std@@UAEPAXI@Z
_TEXT	SEGMENT PARA USE32 PUBLIC 'CODE'
_TEXT	ENDS
;	COMDAT ??0runtime_error@std@@QAE@ABV?$basic_string@DU?$char_traits@D@std@@V?$allocator@D@2@@1@@Z
_TEXT	SEGMENT PARA USE32 PUBLIC 'CODE'
_TEXT	ENDS
;	COMDAT ??1runtime_error@std@@UAE@XZ
_TEXT	SEGMENT PARA USE32 PUBLIC 'CODE'
_TEXT	ENDS
;	COMDAT ?what@runtime_error@std@@UBEPBDXZ
_TEXT	SEGMENT PARA USE32 PUBLIC 'CODE'
_TEXT	ENDS
;	COMDAT ??_Gruntime_error@std@@UAEPAXI@Z
_TEXT	SEGMENT PARA USE32 PUBLIC 'CODE'
_TEXT	ENDS
;	COMDAT ??1overflow_error@std@@UAE@XZ
_TEXT	SEGMENT PARA USE32 PUBLIC 'CODE'
_TEXT	ENDS
;	COMDAT ??_Goverflow_error@std@@UAEPAXI@Z
_TEXT	SEGMENT PARA USE32 PUBLIC 'CODE'
_TEXT	ENDS
;	COMDAT ??1underflow_error@std@@UAE@XZ
_TEXT	SEGMENT PARA USE32 PUBLIC 'CODE'
_TEXT	ENDS
;	COMDAT ??_Gunderflow_error@std@@UAEPAXI@Z
_TEXT	SEGMENT PARA USE32 PUBLIC 'CODE'
_TEXT	ENDS
;	COMDAT ??1range_error@std@@UAE@XZ
_TEXT	SEGMENT PARA USE32 PUBLIC 'CODE'
_TEXT	ENDS
;	COMDAT ??_Grange_error@std@@UAEPAXI@Z
_TEXT	SEGMENT PARA USE32 PUBLIC 'CODE'
_TEXT	ENDS
;	COMDAT ??B_DebugHeapString@std@@QBE?AV?$basic_string@DU?$char_traits@D@std@@V?$allocator@D@2@@1@XZ
_TEXT	SEGMENT PARA USE32 PUBLIC 'CODE'
_TEXT	ENDS
;	COMDAT ??$_Maklocbyte@_W@std@@YAD_WABU_Cvtvec@@@Z
_TEXT	SEGMENT PARA USE32 PUBLIC 'CODE'
_TEXT	ENDS
;	COMDAT ??$_Maklocchr@_W@std@@YA_WDPA_WABU_Cvtvec@@@Z
_TEXT	SEGMENT PARA USE32 PUBLIC 'CODE'
_TEXT	ENDS
;	COMDAT ??$_Maklocstr@_W@std@@YAPA_WPBDPA_WABU_Cvtvec@@@Z
_TEXT	SEGMENT PARA USE32 PUBLIC 'CODE'
_TEXT	ENDS
;	COMDAT ??_G?$codecvt@_WDH@std@@MAEPAXI@Z
_TEXT	SEGMENT PARA USE32 PUBLIC 'CODE'
_TEXT	ENDS
;	COMDAT ??_G?$ctype@D@std@@MAEPAXI@Z
_TEXT	SEGMENT PARA USE32 PUBLIC 'CODE'
_TEXT	ENDS
;	COMDAT ??_G?$ctype@_W@std@@MAEPAXI@Z
_TEXT	SEGMENT PARA USE32 PUBLIC 'CODE'
_TEXT	ENDS
;	COMDAT ??1failure@ios_base@std@@UAE@XZ
_TEXT	SEGMENT PARA USE32 PUBLIC 'CODE'
_TEXT	ENDS
;	COMDAT ??_Gfailure@ios_base@std@@UAEPAXI@Z
_TEXT	SEGMENT PARA USE32 PUBLIC 'CODE'
_TEXT	ENDS
;	COMDAT ??1sentry@?$basic_istream@DU?$char_traits@D@std@@@std@@QAE@XZ
_TEXT	SEGMENT PARA USE32 PUBLIC 'CODE'
_TEXT	ENDS
;	COMDAT ??1sentry@?$basic_istream@_WU?$char_traits@_W@std@@@std@@QAE@XZ
_TEXT	SEGMENT PARA USE32 PUBLIC 'CODE'
_TEXT	ENDS
;	COMDAT ?Allocate@CCRTAllocator@ATL@@SAPAXI@Z
_TEXT	SEGMENT PARA USE32 PUBLIC 'CODE'
_TEXT	ENDS
;	COMDAT ?Free@CCRTAllocator@ATL@@SAXPAX@Z
_TEXT	SEGMENT PARA USE32 PUBLIC 'CODE'
_TEXT	ENDS
;	COMDAT ?_AtlVerifyStackAvailable@_ATL_SAFE_ALLOCA_IMPL@ATL@@YA_NK@Z
_TEXT	SEGMENT PARA USE32 PUBLIC 'CODE'
_TEXT	ENDS
;	COMDAT ?InterlockedExchangePointer@@YGPAXPAPAXPAX@Z
_TEXT	SEGMENT PARA USE32 PUBLIC 'CODE'
_TEXT	ENDS
;	COMDAT ?_AtlGetThreadACPFake@ATL@@YGIXZ
_TEXT	SEGMENT PARA USE32 PUBLIC 'CODE'
_TEXT	ENDS
;	COMDAT ?_AtlGetThreadACPReal@ATL@@YGIXZ
_TEXT	SEGMENT PARA USE32 PUBLIC 'CODE'
_TEXT	ENDS
;	COMDAT ?_AtlGetThreadACPThunk@ATL@@YGIXZ
_TEXT	SEGMENT PARA USE32 PUBLIC 'CODE'
_TEXT	ENDS
;	COMDAT ?_AtlGetConversionACP@ATL@@YGIXZ
_TEXT	SEGMENT PARA USE32 PUBLIC 'CODE'
_TEXT	ENDS
;	COMDAT ?AtlA2WHelper@@YGPA_WPA_WPBDHI@Z
_TEXT	SEGMENT PARA USE32 PUBLIC 'CODE'
_TEXT	ENDS
;	COMDAT ?AtlW2AHelper@@YGPADPADPB_WHI@Z
_TEXT	SEGMENT PARA USE32 PUBLIC 'CODE'
_TEXT	ENDS
;	COMDAT ?ocslen@@YAHPB_W@Z
_TEXT	SEGMENT PARA USE32 PUBLIC 'CODE'
_TEXT	ENDS
;	COMDAT ?ocscpy@@YAPA_WPA_WPB_W@Z
_TEXT	SEGMENT PARA USE32 PUBLIC 'CODE'
_TEXT	ENDS
;	COMDAT ?CharNextO@@YAPA_WPB_W@Z
_TEXT	SEGMENT PARA USE32 PUBLIC 'CODE'
_TEXT	ENDS
;	COMDAT ?A2WBSTR@@YAPA_WPBDH@Z
_TEXT	SEGMENT PARA USE32 PUBLIC 'CODE'
_TEXT	ENDS
;	COMDAT ?ChangeCategory@CTrace@ATL@@QAE_NKIW4ATLTRACESTATUS@2@@Z
_TEXT	SEGMENT PARA USE32 PUBLIC 'CODE'
_TEXT	ENDS
;	COMDAT ?GetCategory@CTrace@ATL@@QAE_NKPAIPAW4ATLTRACESTATUS@2@@Z
_TEXT	SEGMENT PARA USE32 PUBLIC 'CODE'
_TEXT	ENDS
;	COMDAT ?TraceV@CTrace@ATL@@QBAXPBDHKI0PAD@Z
_TEXT	SEGMENT PARA USE32 PUBLIC 'CODE'
_TEXT	ENDS
;	COMDAT ?TraceV@CTrace@ATL@@QBAXPBDHKIPB_WPAD@Z
_TEXT	SEGMENT PARA USE32 PUBLIC 'CODE'
_TEXT	ENDS
;	COMDAT ?RegisterCategory@CTrace@ATL@@QAEKPBD@Z
_TEXT	SEGMENT PARA USE32 PUBLIC 'CODE'
_TEXT	ENDS
;	COMDAT ??0CTraceFileAndLineInfo@ATL@@QAE@PBDH@Z
_TEXT	SEGMENT PARA USE32 PUBLIC 'CODE'
_TEXT	ENDS
;	COMDAT ??RCTraceFileAndLineInfo@ATL@@QBAXKIPBDZZ
_TEXT	SEGMENT PARA USE32 PUBLIC 'CODE'
_TEXT	ENDS
;	COMDAT ??BCTraceCategory@ATL@@QBEKXZ
_TEXT	SEGMENT PARA USE32 PUBLIC 'CODE'
_TEXT	ENDS
;	COMDAT ?CrtHookProc@CNoUIAssertHook@ATL@@CAHHPADPAH@Z
_TEXT	SEGMENT PARA USE32 PUBLIC 'CODE'
_TEXT	ENDS
;	COMDAT ?_AtlRaiseException@ATL@@YAXKK@Z
_TEXT	SEGMENT PARA USE32 PUBLIC 'CODE'
_TEXT	ENDS
;	COMDAT ??0CAtlException@ATL@@QAE@J@Z
_TEXT	SEGMENT PARA USE32 PUBLIC 'CODE'
_TEXT	ENDS
;	COMDAT ?AtlThrow@ATL@@YGXJ@Z
_TEXT	SEGMENT PARA USE32 PUBLIC 'CODE'
_TEXT	ENDS
;	COMDAT ?AtlThrowLastWin32@ATL@@YGXXZ
_TEXT	SEGMENT PARA USE32 PUBLIC 'CODE'
_TEXT	ENDS
;	COMDAT ?AtlIsValidString@ATL@@YAHPBDI@Z
_TEXT	SEGMENT PARA USE32 PUBLIC 'CODE'
_TEXT	ENDS
;	COMDAT ??0CComCriticalSection@ATL@@QAE@XZ
_TEXT	SEGMENT PARA USE32 PUBLIC 'CODE'
_TEXT	ENDS
;	COMDAT ?Lock@CComCriticalSection@ATL@@QAEJXZ
_TEXT	SEGMENT PARA USE32 PUBLIC 'CODE'
_TEXT	ENDS
;	COMDAT ?Unlock@CComCriticalSection@ATL@@QAEJXZ
_TEXT	SEGMENT PARA USE32 PUBLIC 'CODE'
_TEXT	ENDS
;	COMDAT ?Init@CComCriticalSection@ATL@@QAEJXZ
_TEXT	SEGMENT PARA USE32 PUBLIC 'CODE'
_TEXT	ENDS
;	COMDAT ?Term@CComCriticalSection@ATL@@QAEJXZ
_TEXT	SEGMENT PARA USE32 PUBLIC 'CODE'
_TEXT	ENDS
;	COMDAT ??0CComAutoCriticalSection@ATL@@QAE@XZ
_TEXT	SEGMENT PARA USE32 PUBLIC 'CODE'
_TEXT	ENDS
;	COMDAT ??1CComAutoCriticalSection@ATL@@QAE@XZ
_TEXT	SEGMENT PARA USE32 PUBLIC 'CODE'
_TEXT	ENDS
;	COMDAT ?GetModuleInstance@CAtlBaseModule@ATL@@QAEPAUHINSTANCE__@@XZ
_TEXT	SEGMENT PARA USE32 PUBLIC 'CODE'
_TEXT	ENDS
;	COMDAT ?SetResourceInstance@CAtlBaseModule@ATL@@QAEPAUHINSTANCE__@@PAU3@@Z
_TEXT	SEGMENT PARA USE32 PUBLIC 'CODE'
_TEXT	ENDS
;	COMDAT ?_AtlGetStringResourceImage@ATL@@YAPBUATLSTRINGRESOURCEIMAGE@1@PAUHINSTANCE__@@PAUHRSRC__@@I@Z
_TEXT	SEGMENT PARA USE32 PUBLIC 'CODE'
_TEXT	ENDS
;	COMDAT ?AtlGetStringResourceImage@ATL@@YAPBUATLSTRINGRESOURCEIMAGE@1@PAUHINSTANCE__@@I@Z
_TEXT	SEGMENT PARA USE32 PUBLIC 'CODE'
_TEXT	ENDS
;	COMDAT ?AtlGetStringResourceImage@ATL@@YAPBUATLSTRINGRESOURCEIMAGE@1@PAUHINSTANCE__@@IG@Z
_TEXT	SEGMENT PARA USE32 PUBLIC 'CODE'
_TEXT	ENDS
;	COMDAT ?AtlGetStringResourceImage@ATL@@YAPBUATLSTRINGRESOURCEIMAGE@1@I@Z
_TEXT	SEGMENT PARA USE32 PUBLIC 'CODE'
_TEXT	ENDS
;	COMDAT ?AtlFindResourceInstance@ATL@@YAPAUHINSTANCE__@@PBD0G@Z
_TEXT	SEGMENT PARA USE32 PUBLIC 'CODE'
_TEXT	ENDS
;	COMDAT ?AtlFindStringResourceInstance@ATL@@YAPAUHINSTANCE__@@IG@Z
_TEXT	SEGMENT PARA USE32 PUBLIC 'CODE'
_TEXT	ENDS
;	COMDAT ?AtlHresultFromLastError@ATL@@YAJXZ
_TEXT	SEGMENT PARA USE32 PUBLIC 'CODE'
_TEXT	ENDS
;	COMDAT ?AtlHresultFromWin32@ATL@@YAJK@Z
_TEXT	SEGMENT PARA USE32 PUBLIC 'CODE'
_TEXT	ENDS
;	COMDAT ?AtlComPtrAssign@ATL@@YGPAUIUnknown@@PAPAU2@PAU2@@Z
_TEXT	SEGMENT PARA USE32 PUBLIC 'CODE'
_TEXT	ENDS
;	COMDAT ?AtlComQIPtrAssign@ATL@@YGPAUIUnknown@@PAPAU2@PAU2@ABU_GUID@@@Z
_TEXT	SEGMENT PARA USE32 PUBLIC 'CODE'
_TEXT	ENDS
;	COMDAT ?GetProperty@?$CComPtr@UIDispatch@@@ATL@@QAEJJPAUtagVARIANT@@@Z
_TEXT	SEGMENT PARA USE32 PUBLIC 'CODE'
_TEXT	ENDS
;	COMDAT ?PutProperty@?$CComPtr@UIDispatch@@@ATL@@QAEJJPAUtagVARIANT@@@Z
_TEXT	SEGMENT PARA USE32 PUBLIC 'CODE'
_TEXT	ENDS
;	COMDAT ?GetIDOfName@?$CComPtr@UIDispatch@@@ATL@@QAEJPB_WPAJ@Z
_TEXT	SEGMENT PARA USE32 PUBLIC 'CODE'
_TEXT	ENDS
;	COMDAT ?Invoke0@?$CComPtr@UIDispatch@@@ATL@@QAEJJPAUtagVARIANT@@@Z
_TEXT	SEGMENT PARA USE32 PUBLIC 'CODE'
_TEXT	ENDS
;	COMDAT ?Invoke1@?$CComPtr@UIDispatch@@@ATL@@QAEJJPAUtagVARIANT@@0@Z
_TEXT	SEGMENT PARA USE32 PUBLIC 'CODE'
_TEXT	ENDS
;	COMDAT ?InvokeN@?$CComPtr@UIDispatch@@@ATL@@QAEJJPAUtagVARIANT@@H0@Z
_TEXT	SEGMENT PARA USE32 PUBLIC 'CODE'
_TEXT	ENDS
;	COMDAT ?PutProperty@?$CComPtr@UIDispatch@@@ATL@@SAJPAUIDispatch@@JPAUtagVARIANT@@@Z
_TEXT	SEGMENT PARA USE32 PUBLIC 'CODE'
_TEXT	ENDS
;	COMDAT ?GetProperty@?$CComPtr@UIDispatch@@@ATL@@SAJPAUIDispatch@@JPAUtagVARIANT@@@Z
_TEXT	SEGMENT PARA USE32 PUBLIC 'CODE'
_TEXT	ENDS
;	COMDAT ??1?$CComPtr@UIUnknown@@@ATL@@QAE@XZ
_TEXT	SEGMENT PARA USE32 PUBLIC 'CODE'
_TEXT	ENDS
;	COMDAT ??0CComBSTR@ATL@@QAE@XZ
_TEXT	SEGMENT PARA USE32 PUBLIC 'CODE'
_TEXT	ENDS
;	COMDAT ??0CComBSTR@ATL@@QAE@PB_W@Z
_TEXT	SEGMENT PARA USE32 PUBLIC 'CODE'
_TEXT	ENDS
;	COMDAT ??1CComBSTR@ATL@@QAE@XZ
_TEXT	SEGMENT PARA USE32 PUBLIC 'CODE'
_TEXT	ENDS
;	COMDAT ?Length@CComBSTR@ATL@@QBEIXZ
_TEXT	SEGMENT PARA USE32 PUBLIC 'CODE'
_TEXT	ENDS
;	COMDAT ?ByteLength@CComBSTR@ATL@@QBEIXZ
_TEXT	SEGMENT PARA USE32 PUBLIC 'CODE'
_TEXT	ENDS
;	COMDAT ??BCComBSTR@ATL@@QBEPA_WXZ
_TEXT	SEGMENT PARA USE32 PUBLIC 'CODE'
_TEXT	ENDS
;	COMDAT ??ICComBSTR@ATL@@QAEPAPA_WXZ
_TEXT	SEGMENT PARA USE32 PUBLIC 'CODE'
_TEXT	ENDS
;	COMDAT ?Copy@CComBSTR@ATL@@QBEPA_WXZ
_TEXT	SEGMENT PARA USE32 PUBLIC 'CODE'
_TEXT	ENDS
;	COMDAT ?Attach@CComBSTR@ATL@@QAEXPA_W@Z
_TEXT	SEGMENT PARA USE32 PUBLIC 'CODE'
_TEXT	ENDS
;	COMDAT ?Detach@CComBSTR@ATL@@QAEPA_WXZ
_TEXT	SEGMENT PARA USE32 PUBLIC 'CODE'
_TEXT	ENDS
;	COMDAT ?Empty@CComBSTR@ATL@@QAEXXZ
_TEXT	SEGMENT PARA USE32 PUBLIC 'CODE'
_TEXT	ENDS
;	COMDAT ??7CComBSTR@ATL@@QBE_NXZ
_TEXT	SEGMENT PARA USE32 PUBLIC 'CODE'
_TEXT	ENDS
;	COMDAT ?Append@CComBSTR@ATL@@QAEJABV12@@Z
_TEXT	SEGMENT PARA USE32 PUBLIC 'CODE'
_TEXT	ENDS
;	COMDAT ?Append@CComBSTR@ATL@@QAEJPB_W@Z
_TEXT	SEGMENT PARA USE32 PUBLIC 'CODE'
_TEXT	ENDS
;	COMDAT ?AppendBSTR@CComBSTR@ATL@@QAEJPA_W@Z
_TEXT	SEGMENT PARA USE32 PUBLIC 'CODE'
_TEXT	ENDS
;	COMDAT ?Append@CComBSTR@ATL@@QAEJPB_WH@Z
_TEXT	SEGMENT PARA USE32 PUBLIC 'CODE'
_TEXT	ENDS
;	COMDAT ??MCComBSTR@ATL@@QBE_NABV01@@Z
_TEXT	SEGMENT PARA USE32 PUBLIC 'CODE'
_TEXT	ENDS
;	COMDAT ??MCComBSTR@ATL@@QBE_NPB_W@Z
_TEXT	SEGMENT PARA USE32 PUBLIC 'CODE'
_TEXT	ENDS
;	COMDAT ??OCComBSTR@ATL@@QBE_NABV01@@Z
_TEXT	SEGMENT PARA USE32 PUBLIC 'CODE'
_TEXT	ENDS
;	COMDAT ??OCComBSTR@ATL@@QBE_NPB_W@Z
_TEXT	SEGMENT PARA USE32 PUBLIC 'CODE'
_TEXT	ENDS
;	COMDAT ??9CComBSTR@ATL@@QBE_NPB_W@Z
_TEXT	SEGMENT PARA USE32 PUBLIC 'CODE'
_TEXT	ENDS
;	COMDAT ??8CComBSTR@ATL@@QBE_NABV01@@Z
_TEXT	SEGMENT PARA USE32 PUBLIC 'CODE'
_TEXT	ENDS
;	COMDAT ??8CComBSTR@ATL@@QBE_NPB_W@Z
_TEXT	SEGMENT PARA USE32 PUBLIC 'CODE'
_TEXT	ENDS
;	COMDAT ??8CComBSTR@ATL@@QBE_NH@Z
_TEXT	SEGMENT PARA USE32 PUBLIC 'CODE'
_TEXT	ENDS
;	COMDAT ??0CComBSTR@ATL@@QAE@PBD@Z
_TEXT	SEGMENT PARA USE32 PUBLIC 'CODE'
_TEXT	ENDS
;	COMDAT ??4CComBSTR@ATL@@QAEAAV01@PBD@Z
_TEXT	SEGMENT PARA USE32 PUBLIC 'CODE'
_TEXT	ENDS
;	COMDAT ??8CComBSTR@ATL@@QBE_NPBD@Z
_TEXT	SEGMENT PARA USE32 PUBLIC 'CODE'
_TEXT	ENDS
;	COMDAT ?WriteToStream@CComBSTR@ATL@@QAEJPAUIStream@@@Z
_TEXT	SEGMENT PARA USE32 PUBLIC 'CODE'
_TEXT	ENDS
;	COMDAT ?ReadFromStream@CComBSTR@ATL@@QAEJPAUIStream@@@Z
_TEXT	SEGMENT PARA USE32 PUBLIC 'CODE'
_TEXT	ENDS
;	COMDAT ?LoadStringResource@CComBSTR@ATL@@SA_NPAUHINSTANCE__@@IAAPA_W@Z
_TEXT	SEGMENT PARA USE32 PUBLIC 'CODE'
_TEXT	ENDS
;	COMDAT ?LoadStringResource@CComBSTR@ATL@@SA_NIAAPA_W@Z
_TEXT	SEGMENT PARA USE32 PUBLIC 'CODE'
_TEXT	ENDS
;	COMDAT ??0CComVariant@ATL@@QAE@XZ
_TEXT	SEGMENT PARA USE32 PUBLIC 'CODE'
_TEXT	ENDS
;	COMDAT ??1CComVariant@ATL@@QAE@XZ
_TEXT	SEGMENT PARA USE32 PUBLIC 'CODE'
_TEXT	ENDS
;	COMDAT ??0CComVariant@ATL@@QAE@ABUtagVARIANT@@@Z
_TEXT	SEGMENT PARA USE32 PUBLIC 'CODE'
_TEXT	ENDS
;	COMDAT ??4CComVariant@ATL@@QAEAAV01@ABVCComBSTR@1@@Z
_TEXT	SEGMENT PARA USE32 PUBLIC 'CODE'
_TEXT	ENDS
;	COMDAT ??4CComVariant@ATL@@QAEAAV01@PB_W@Z
_TEXT	SEGMENT PARA USE32 PUBLIC 'CODE'
_TEXT	ENDS
;	COMDAT ??4CComVariant@ATL@@QAEAAV01@PBD@Z
_TEXT	SEGMENT PARA USE32 PUBLIC 'CODE'
_TEXT	ENDS
;	COMDAT ??8CComVariant@ATL@@QBE_NABUtagVARIANT@@@Z
_TEXT	SEGMENT PARA USE32 PUBLIC 'CODE'
_TEXT	ENDS
;	COMDAT ?Clear@CComVariant@ATL@@QAEJXZ
_TEXT	SEGMENT PARA USE32 PUBLIC 'CODE'
_TEXT	ENDS
;	COMDAT ?Copy@CComVariant@ATL@@QAEJPBUtagVARIANT@@@Z
_TEXT	SEGMENT PARA USE32 PUBLIC 'CODE'
_TEXT	ENDS
;	COMDAT ?ChangeType@CComVariant@ATL@@QAEJGPBUtagVARIANT@@@Z
_TEXT	SEGMENT PARA USE32 PUBLIC 'CODE'
_TEXT	ENDS
;	COMDAT ?InternalCopy@CComVariant@ATL@@QAEXPBUtagVARIANT@@@Z
_TEXT	SEGMENT PARA USE32 PUBLIC 'CODE'
_TEXT	ENDS
;	COMDAT ??1?$CComPtr@UIPersistStream@@@ATL@@QAE@XZ
_TEXT	SEGMENT PARA USE32 PUBLIC 'CODE'
_TEXT	ENDS
;	COMDAT ?Invoke2@?$CComPtr@UIDispatch@@@ATL@@QAEJJPAUtagVARIANT@@00@Z
_TEXT	SEGMENT PARA USE32 PUBLIC 'CODE'
_TEXT	ENDS
;	COMDAT ?RevokeClassObject@_ATL_OBJMAP_ENTRY30@ATL@@QAGJXZ
_TEXT	SEGMENT PARA USE32 PUBLIC 'CODE'
_TEXT	ENDS
;	COMDAT ?RegisterClassObject@_ATL_OBJMAP_ENTRY30@ATL@@QAGJKK@Z
_TEXT	SEGMENT PARA USE32 PUBLIC 'CODE'
_TEXT	ENDS
;	COMDAT ?Increment@CComMultiThreadModel@ATL@@SGKPAJ@Z
_TEXT	SEGMENT PARA USE32 PUBLIC 'CODE'
_TEXT	ENDS
;	COMDAT ?Decrement@CComMultiThreadModel@ATL@@SGKPAJ@Z
_TEXT	SEGMENT PARA USE32 PUBLIC 'CODE'
_TEXT	ENDS
;	COMDAT ?Init@_stdcallthunk@ATL@@QAEXKPAX@Z
_TEXT	SEGMENT PARA USE32 PUBLIC 'CODE'
_TEXT	ENDS
;	COMDAT ?GetCodeAddress@_stdcallthunk@ATL@@QAEPAXXZ
_TEXT	SEGMENT PARA USE32 PUBLIC 'CODE'
_TEXT	ENDS
;	COMDAT ?Attach@CHandle@ATL@@QAEXPAX@Z
_TEXT	SEGMENT PARA USE32 PUBLIC 'CODE'
_TEXT	ENDS
;	COMDAT ?Detach@CHandle@ATL@@QAEPAXXZ
_TEXT	SEGMENT PARA USE32 PUBLIC 'CODE'
_TEXT	ENDS
;	COMDAT ?Close@CHandle@ATL@@QAEXXZ
_TEXT	SEGMENT PARA USE32 PUBLIC 'CODE'
_TEXT	ENDS
;	COMDAT ?Lock@CCritSecLock@ATL@@QAEXXZ
_TEXT	SEGMENT PARA USE32 PUBLIC 'CODE'
_TEXT	ENDS
;	COMDAT ?Unlock@CCritSecLock@ATL@@QAEXXZ
_TEXT	SEGMENT PARA USE32 PUBLIC 'CODE'
_TEXT	ENDS
;	COMDAT ?Term@CAtlComModule@ATL@@QAEXXZ
_TEXT	SEGMENT PARA USE32 PUBLIC 'CODE'
_TEXT	ENDS
;	COMDAT ?RegisterTypeLib@CAtlComModule@ATL@@QAEJXZ
_TEXT	SEGMENT PARA USE32 PUBLIC 'CODE'
_TEXT	ENDS
;	COMDAT ?RegisterTypeLib@CAtlComModule@ATL@@QAEJPBD@Z
_TEXT	SEGMENT PARA USE32 PUBLIC 'CODE'
_TEXT	ENDS
;	COMDAT ?UnRegisterTypeLib@CAtlComModule@ATL@@QAEJXZ
_TEXT	SEGMENT PARA USE32 PUBLIC 'CODE'
_TEXT	ENDS
;	COMDAT ?UnRegisterTypeLib@CAtlComModule@ATL@@QAEJPBD@Z
_TEXT	SEGMENT PARA USE32 PUBLIC 'CODE'
_TEXT	ENDS
;	COMDAT ?RegisterServer@CAtlComModule@ATL@@QAEJHPBU_GUID@@@Z
_TEXT	SEGMENT PARA USE32 PUBLIC 'CODE'
_TEXT	ENDS
;	COMDAT ?UnregisterServer@CAtlComModule@ATL@@QAEJHPBU_GUID@@@Z
_TEXT	SEGMENT PARA USE32 PUBLIC 'CODE'
_TEXT	ENDS
;	COMDAT ??0_ATL_COM_MODULE70@ATL@@QAE@XZ
_TEXT	SEGMENT PARA USE32 PUBLIC 'CODE'
_TEXT	ENDS
;	COMDAT ??0CAtlWinModule@ATL@@QAE@XZ
_TEXT	SEGMENT PARA USE32 PUBLIC 'CODE'
_TEXT	ENDS
;	COMDAT ??1CAtlWinModule@ATL@@QAE@XZ
_TEXT	SEGMENT PARA USE32 PUBLIC 'CODE'
_TEXT	ENDS
;	COMDAT ?Term@CAtlWinModule@ATL@@QAEXXZ
_TEXT	SEGMENT PARA USE32 PUBLIC 'CODE'
_TEXT	ENDS
;	COMDAT ?AddCreateWndData@CAtlWinModule@ATL@@QAEXPAU_AtlCreateWndData@2@PAX@Z
_TEXT	SEGMENT PARA USE32 PUBLIC 'CODE'
_TEXT	ENDS
;	COMDAT ?ExtractCreateWndData@CAtlWinModule@ATL@@QAEPAXXZ
_TEXT	SEGMENT PARA USE32 PUBLIC 'CODE'
_TEXT	ENDS
;	COMDAT ??0_ATL_WIN_MODULE70@ATL@@QAE@XZ
_TEXT	SEGMENT PARA USE32 PUBLIC 'CODE'
_TEXT	ENDS
;	COMDAT ??1_ATL_WIN_MODULE70@ATL@@QAE@XZ
_TEXT	SEGMENT PARA USE32 PUBLIC 'CODE'
_TEXT	ENDS
;	COMDAT _$E1
text$yc	SEGMENT PARA USE32 PUBLIC 'CODE'
text$yc	ENDS
;	COMDAT _$E2
text$yd	SEGMENT PARA USE32 PUBLIC 'CODE'
text$yd	ENDS
;	COMDAT ??0CAtlModule@ATL@@QAE@XZ
_TEXT	SEGMENT PARA USE32 PUBLIC 'CODE'
_TEXT	ENDS
;	COMDAT ?Term@CAtlModule@ATL@@QAEXXZ
_TEXT	SEGMENT PARA USE32 PUBLIC 'CODE'
_TEXT	ENDS
;	COMDAT ??1CAtlModule@ATL@@UAE@XZ
_TEXT	SEGMENT PARA USE32 PUBLIC 'CODE'
_TEXT	ENDS
;	COMDAT ?Lock@CAtlModule@ATL@@UAEJXZ
_TEXT	SEGMENT PARA USE32 PUBLIC 'CODE'
_TEXT	ENDS
;	COMDAT ?Unlock@CAtlModule@ATL@@UAEJXZ
_TEXT	SEGMENT PARA USE32 PUBLIC 'CODE'
_TEXT	ENDS
;	COMDAT ?GetLockCount@CAtlModule@ATL@@UAEJXZ
_TEXT	SEGMENT PARA USE32 PUBLIC 'CODE'
_TEXT	ENDS
;	COMDAT ?GetGITPtr@CAtlModule@ATL@@UAEJPAPAUIGlobalInterfaceTable@@@Z
_TEXT	SEGMENT PARA USE32 PUBLIC 'CODE'
_TEXT	ENDS
;	COMDAT ?EscapeSingleQuote@CAtlModule@ATL@@SAXPA_WPB_W@Z
_TEXT	SEGMENT PARA USE32 PUBLIC 'CODE'
_TEXT	ENDS
;	COMDAT ??_GCAtlModule@ATL@@UAEPAXI@Z
_TEXT	SEGMENT PARA USE32 PUBLIC 'CODE'
_TEXT	ENDS
;	COMDAT ??0_ATL_MODULE70@ATL@@QAE@XZ
_TEXT	SEGMENT PARA USE32 PUBLIC 'CODE'
_TEXT	ENDS
;	COMDAT ?get_m_hInst@CComModule@ATL@@QBEAAPAUHINSTANCE__@@XZ
_TEXT	SEGMENT PARA USE32 PUBLIC 'CODE'
_TEXT	ENDS
;	COMDAT ?GetModuleInstance@CComModule@ATL@@QAEPAUHINSTANCE__@@XZ
_TEXT	SEGMENT PARA USE32 PUBLIC 'CODE'
_TEXT	ENDS
;	COMDAT ?UpdateRegistryFromResourceD@CComModule@ATL@@UAGJPBDHPAU_ATL_REGMAP_ENTRY@2@@Z
_TEXT	SEGMENT PARA USE32 PUBLIC 'CODE'
_TEXT	ENDS
;	COMDAT ?UpdateRegistryFromResourceD@CComModule@ATL@@UAGJIHPAU_ATL_REGMAP_ENTRY@2@@Z
_TEXT	SEGMENT PARA USE32 PUBLIC 'CODE'
_TEXT	ENDS
;	COMDAT ?UpdateRegistryFromResourceS@CComModule@ATL@@UAGJPBDHPAU_ATL_REGMAP_ENTRY@2@@Z
_TEXT	SEGMENT PARA USE32 PUBLIC 'CODE'
_TEXT	ENDS
;	COMDAT ?UpdateRegistryFromResourceS@CComModule@ATL@@UAGJIHPAU_ATL_REGMAP_ENTRY@2@@Z
_TEXT	SEGMENT PARA USE32 PUBLIC 'CODE'
_TEXT	ENDS
;	COMDAT ??_GCComModule@ATL@@UAEPAXI@Z
_TEXT	SEGMENT PARA USE32 PUBLIC 'CODE'
_TEXT	ENDS
;	COMDAT ??1?$CAtlModuleT@VCComModule@ATL@@@ATL@@UAE@XZ
_TEXT	SEGMENT PARA USE32 PUBLIC 'CODE'
_TEXT	ENDS
;	COMDAT ??1CComModule@ATL@@UAE@XZ
_TEXT	SEGMENT PARA USE32 PUBLIC 'CODE'
_TEXT	ENDS
;	COMDAT ?Apartment@CComApartment@ATL@@QAEKXZ
_TEXT	SEGMENT PARA USE32 PUBLIC 'CODE'
_TEXT	ENDS
;	COMDAT ?GetThread@CComSimpleThreadAllocator@ATL@@QAEHPAVCComApartment@2@H@Z
_TEXT	SEGMENT PARA USE32 PUBLIC 'CODE'
_TEXT	ENDS
;	COMDAT ??0CRegKey@ATL@@QAE@XZ
_TEXT	SEGMENT PARA USE32 PUBLIC 'CODE'
_TEXT	ENDS
;	COMDAT ??0CRegKey@ATL@@QAE@PAUHKEY__@@@Z
_TEXT	SEGMENT PARA USE32 PUBLIC 'CODE'
_TEXT	ENDS
;	COMDAT ??1CRegKey@ATL@@QAE@XZ
_TEXT	SEGMENT PARA USE32 PUBLIC 'CODE'
_TEXT	ENDS
;	COMDAT ??BCRegKey@ATL@@QBEPAUHKEY__@@XZ
_TEXT	SEGMENT PARA USE32 PUBLIC 'CODE'
_TEXT	ENDS
;	COMDAT ?Detach@CRegKey@ATL@@QAEPAUHKEY__@@XZ
_TEXT	SEGMENT PARA USE32 PUBLIC 'CODE'
_TEXT	ENDS
;	COMDAT ?Attach@CRegKey@ATL@@QAEXPAUHKEY__@@@Z
_TEXT	SEGMENT PARA USE32 PUBLIC 'CODE'
_TEXT	ENDS
;	COMDAT ?DeleteSubKey@CRegKey@ATL@@QAEJPBD@Z
_TEXT	SEGMENT PARA USE32 PUBLIC 'CODE'
_TEXT	ENDS
;	COMDAT ?DeleteValue@CRegKey@ATL@@QAEJPBD@Z
_TEXT	SEGMENT PARA USE32 PUBLIC 'CODE'
_TEXT	ENDS
;	COMDAT ?Close@CRegKey@ATL@@QAEJXZ
_TEXT	SEGMENT PARA USE32 PUBLIC 'CODE'
_TEXT	ENDS
;	COMDAT ?Create@CRegKey@ATL@@QAEJPAUHKEY__@@PBDPADKKPAU_SECURITY_ATTRIBUTES@@PAK@Z
_TEXT	SEGMENT PARA USE32 PUBLIC 'CODE'
_TEXT	ENDS
;	COMDAT ?Open@CRegKey@ATL@@QAEJPAUHKEY__@@PBDK@Z
_TEXT	SEGMENT PARA USE32 PUBLIC 'CODE'
_TEXT	ENDS
;	COMDAT ?QueryStringValue@CRegKey@ATL@@QAEJPBDPADPAK@Z
_TEXT	SEGMENT PARA USE32 PUBLIC 'CODE'
_TEXT	ENDS
;	COMDAT ?SetKeyValue@CRegKey@ATL@@QAEJPBD00@Z
_TEXT	SEGMENT PARA USE32 PUBLIC 'CODE'
_TEXT	ENDS
;	COMDAT ?SetDWORDValue@CRegKey@ATL@@QAEJPBDK@Z
_TEXT	SEGMENT PARA USE32 PUBLIC 'CODE'
_TEXT	ENDS
;	COMDAT ?SetStringValue@CRegKey@ATL@@QAEJPBD0K@Z
_TEXT	SEGMENT PARA USE32 PUBLIC 'CODE'
_TEXT	ENDS
;	COMDAT ?SetMultiStringValue@CRegKey@ATL@@QAEJPBD0@Z
_TEXT	SEGMENT PARA USE32 PUBLIC 'CODE'
_TEXT	ENDS
;	COMDAT ?RecurseDeleteKey@CRegKey@ATL@@QAEJPBD@Z
_TEXT	SEGMENT PARA USE32 PUBLIC 'CODE'
_TEXT	ENDS
;	COMDAT ?RegisterProgID@CComModule@ATL@@SAJPBD00@Z
_TEXT	SEGMENT PARA USE32 PUBLIC 'CODE'
_TEXT	ENDS
;	COMDAT ?IsEqualKey@CExpansionVectorEqualHelper@ATL@@SA_NQAD0@Z
_TEXT	SEGMENT PARA USE32 PUBLIC 'CODE'
_TEXT	ENDS
;	COMDAT ??1CExpansionVector@ATL@@QAE@XZ
_TEXT	SEGMENT PARA USE32 PUBLIC 'CODE'
_TEXT	ENDS
;	COMDAT ?Add@CExpansionVector@ATL@@QAEHPBDPB_W@Z
_TEXT	SEGMENT PARA USE32 PUBLIC 'CODE'
_TEXT	ENDS
;	COMDAT ?ClearReplacements@CExpansionVector@ATL@@QAEJXZ
_TEXT	SEGMENT PARA USE32 PUBLIC 'CODE'
_TEXT	ENDS
;	COMDAT ?GenerateError@CRegParser@ATL@@IAEJI@Z
_TEXT	SEGMENT PARA USE32 PUBLIC 'CODE'
_TEXT	ENDS
;	COMDAT ?EndOfVar@CRegParser@ATL@@IAEHXZ
_TEXT	SEGMENT PARA USE32 PUBLIC 'CODE'
_TEXT	ENDS
;	COMDAT ??0CParseBuffer@CRegParser@ATL@@QAE@H@Z
_TEXT	SEGMENT PARA USE32 PUBLIC 'CODE'
_TEXT	ENDS
;	COMDAT ??1CParseBuffer@CRegParser@ATL@@QAE@XZ
_TEXT	SEGMENT PARA USE32 PUBLIC 'CODE'
_TEXT	ENDS
;	COMDAT ?Append@CParseBuffer@CRegParser@ATL@@QAEHPBDH@Z
_TEXT	SEGMENT PARA USE32 PUBLIC 'CODE'
_TEXT	ENDS
;	COMDAT ?AddChar@CParseBuffer@CRegParser@ATL@@QAEHPBD@Z
_TEXT	SEGMENT PARA USE32 PUBLIC 'CODE'
_TEXT	ENDS
;	COMDAT ?AddString@CParseBuffer@CRegParser@ATL@@QAEHPB_W@Z
_TEXT	SEGMENT PARA USE32 PUBLIC 'CODE'
_TEXT	ENDS
;	COMDAT ?Detach@CParseBuffer@CRegParser@ATL@@QAEPADXZ
_TEXT	SEGMENT PARA USE32 PUBLIC 'CODE'
_TEXT	ENDS
;	COMDAT ?QueryInterface@CRegObject@ATL@@UAGJABU_GUID@@PAPAX@Z
_TEXT	SEGMENT PARA USE32 PUBLIC 'CODE'
_TEXT	ENDS
;	COMDAT ?AddRef@CRegObject@ATL@@UAGKXZ
_TEXT	SEGMENT PARA USE32 PUBLIC 'CODE'
_TEXT	ENDS
;	COMDAT ?Release@CRegObject@ATL@@UAGKXZ
_TEXT	SEGMENT PARA USE32 PUBLIC 'CODE'
_TEXT	ENDS
;	COMDAT ??1CRegObject@ATL@@UAE@XZ
_TEXT	SEGMENT PARA USE32 PUBLIC 'CODE'
_TEXT	ENDS
;	COMDAT ??_GCRegObject@ATL@@UAEPAXI@Z
_TEXT	SEGMENT PARA USE32 PUBLIC 'CODE'
_TEXT	ENDS
;	COMDAT ?AddReplacement@CRegObject@ATL@@UAGJPB_W0@Z
_TEXT	SEGMENT PARA USE32 PUBLIC 'CODE'
_TEXT	ENDS
;	COMDAT ?RegisterFromResource@CRegObject@ATL@@IAEJPB_WPBD1H@Z
_TEXT	SEGMENT PARA USE32 PUBLIC 'CODE'
_TEXT	ENDS
;	COMDAT ?ResourceRegister@CRegObject@ATL@@QAGJPB_WI0@Z
_TEXT	SEGMENT PARA USE32 PUBLIC 'CODE'
_TEXT	ENDS
;	COMDAT ?ResourceRegisterSz@CRegObject@ATL@@QAGJPB_W00@Z
_TEXT	SEGMENT PARA USE32 PUBLIC 'CODE'
_TEXT	ENDS
;	COMDAT ?ResourceUnregister@CRegObject@ATL@@QAGJPB_WI0@Z
_TEXT	SEGMENT PARA USE32 PUBLIC 'CODE'
_TEXT	ENDS
;	COMDAT ?ResourceUnregisterSz@CRegObject@ATL@@QAGJPB_W00@Z
_TEXT	SEGMENT PARA USE32 PUBLIC 'CODE'
_TEXT	ENDS
;	COMDAT ?RegisterWithString@CRegObject@ATL@@IAEJPB_WH@Z
_TEXT	SEGMENT PARA USE32 PUBLIC 'CODE'
_TEXT	ENDS
;	COMDAT ?ClearReplacements@CRegObject@ATL@@UAGJXZ
_TEXT	SEGMENT PARA USE32 PUBLIC 'CODE'
_TEXT	ENDS
;	COMDAT ?StrFromMap@CRegObject@ATL@@QAEPB_WPAD@Z
_TEXT	SEGMENT PARA USE32 PUBLIC 'CODE'
_TEXT	ENDS
;	COMDAT ?CommonFileRegister@CRegObject@ATL@@IAEJPB_WH@Z
_TEXT	SEGMENT PARA USE32 PUBLIC 'CODE'
_TEXT	ENDS
;	COMDAT ?VTFromRegType@CRegParser@ATL@@KAHPBDAAG@Z
_TEXT	SEGMENT PARA USE32 PUBLIC 'CODE'
_TEXT	ENDS
;	COMDAT ?ChToByte@CRegParser@ATL@@KAED@Z
_TEXT	SEGMENT PARA USE32 PUBLIC 'CODE'
_TEXT	ENDS
;	COMDAT ?HKeyFromString@CRegParser@ATL@@KAPAUHKEY__@@PAD@Z
_TEXT	SEGMENT PARA USE32 PUBLIC 'CODE'
_TEXT	ENDS
;	COMDAT ?StrChrA@CRegParser@ATL@@KAPADPADD@Z
_TEXT	SEGMENT PARA USE32 PUBLIC 'CODE'
_TEXT	ENDS
;	COMDAT ??0CRegParser@ATL@@QAE@PAVCRegObject@1@@Z
_TEXT	SEGMENT PARA USE32 PUBLIC 'CODE'
_TEXT	ENDS
;	COMDAT ?IsSpace@CRegParser@ATL@@IAEHD@Z
_TEXT	SEGMENT PARA USE32 PUBLIC 'CODE'
_TEXT	ENDS
;	COMDAT ?SkipWhiteSpace@CRegParser@ATL@@IAEXXZ
_TEXT	SEGMENT PARA USE32 PUBLIC 'CODE'
_TEXT	ENDS
;	COMDAT ?NextToken@CRegParser@ATL@@IAEJPAD@Z
_TEXT	SEGMENT PARA USE32 PUBLIC 'CODE'
_TEXT	ENDS
;	COMDAT ?AddValue@CRegParser@ATL@@IAEJAAVCRegKey@2@PBDPAD@Z
_TEXT	SEGMENT PARA USE32 PUBLIC 'CODE'
_TEXT	ENDS
;	COMDAT ?CanForceRemoveKey@CRegParser@ATL@@IAEHPBD@Z
_TEXT	SEGMENT PARA USE32 PUBLIC 'CODE'
_TEXT	ENDS
;	COMDAT ?HasSubKeys@CRegParser@ATL@@IAEHPAUHKEY__@@@Z
_TEXT	SEGMENT PARA USE32 PUBLIC 'CODE'
_TEXT	ENDS
;	COMDAT ?SkipAssignment@CRegParser@ATL@@IAEJPAD@Z
_TEXT	SEGMENT PARA USE32 PUBLIC 'CODE'
_TEXT	ENDS
;	COMDAT ?PreProcessBuffer@CRegParser@ATL@@QAEJPADPAPAD@Z
_TEXT	SEGMENT PARA USE32 PUBLIC 'CODE'
_TEXT	ENDS
;	COMDAT ?RegisterBuffer@CRegParser@ATL@@QAEJPADH@Z
_TEXT	SEGMENT PARA USE32 PUBLIC 'CODE'
_TEXT	ENDS
;	COMDAT ?RegisterSubkeys@CRegParser@ATL@@IAEJPADPAUHKEY__@@HH@Z
_TEXT	SEGMENT PARA USE32 PUBLIC 'CODE'
_TEXT	ENDS
;	COMDAT ?UpdateRegistryFromResourceS@CAtlModule@ATL@@QAGJPBDHPAU_ATL_REGMAP_ENTRY@2@@Z
_TEXT	SEGMENT PARA USE32 PUBLIC 'CODE'
_TEXT	ENDS
;	COMDAT ??0CRegObject@ATL@@QAE@XZ
_TEXT	SEGMENT PARA USE32 PUBLIC 'CODE'
_TEXT	ENDS
;	COMDAT ??0IRegistrarBase@@QAE@XZ
_TEXT	SEGMENT PARA USE32 PUBLIC 'CODE'
_TEXT	ENDS
;	COMDAT ??0CExpansionVector@ATL@@QAE@XZ
_TEXT	SEGMENT PARA USE32 PUBLIC 'CODE'
_TEXT	ENDS
;	COMDAT ??0IUnknown@@QAE@XZ
_TEXT	SEGMENT PARA USE32 PUBLIC 'CODE'
_TEXT	ENDS
;	COMDAT ?UpdateRegistryFromResourceS@CAtlModule@ATL@@QAGJIHPAU_ATL_REGMAP_ENTRY@2@@Z
_TEXT	SEGMENT PARA USE32 PUBLIC 'CODE'
_TEXT	ENDS
;	COMDAT ?RegisterClassHelper@CComModule@ATL@@QAGJABU_GUID@@PBD11K@Z
_TEXT	SEGMENT PARA USE32 PUBLIC 'CODE'
_TEXT	ENDS
;	COMDAT ?UnregisterClassHelper@CComModule@ATL@@QAGJABU_GUID@@PBD1@Z
_TEXT	SEGMENT PARA USE32 PUBLIC 'CODE'
_TEXT	ENDS
;	COMDAT ?AtlLoadTypeLib@ATL@@YGJPAUHINSTANCE__@@PB_WPAPA_WPAPAUITypeLib@@@Z
_TEXT	SEGMENT PARA USE32 PUBLIC 'CODE'
_TEXT	ENDS
;	COMDAT ?AtlUnRegisterTypeLib@ATL@@YGJPAUHINSTANCE__@@PB_W@Z
_TEXT	SEGMENT PARA USE32 PUBLIC 'CODE'
_TEXT	ENDS
;	COMDAT ??1?$CComPtr@UITypeLib@@@ATL@@QAE@XZ
_TEXT	SEGMENT PARA USE32 PUBLIC 'CODE'
_TEXT	ENDS
;	COMDAT ?AtlRegisterTypeLib@ATL@@YGJPAUHINSTANCE__@@PB_W@Z
_TEXT	SEGMENT PARA USE32 PUBLIC 'CODE'
_TEXT	ENDS
;	COMDAT ?AtlComModuleRegisterServer@ATL@@YGJPAU_ATL_COM_MODULE70@1@HPBU_GUID@@@Z
_TEXT	SEGMENT PARA USE32 PUBLIC 'CODE'
_TEXT	ENDS
;	COMDAT ?AtlComModuleUnregisterServer@ATL@@YGJPAU_ATL_COM_MODULE70@1@HPBU_GUID@@@Z
_TEXT	SEGMENT PARA USE32 PUBLIC 'CODE'
_TEXT	ENDS
;	COMDAT ?AtlRegisterClassCategoriesHelper@ATL@@YGJABU_GUID@@PBU_ATL_CATMAP_ENTRY@1@H@Z
_TEXT	SEGMENT PARA USE32 PUBLIC 'CODE'
_TEXT	ENDS
;	COMDAT ??1?$CComPtr@UICatRegister@@@ATL@@QAE@XZ
_TEXT	SEGMENT PARA USE32 PUBLIC 'CODE'
_TEXT	ENDS
;	COMDAT ?AtlWinModuleTerm@ATL@@YGJPAU_ATL_WIN_MODULE70@1@PAUHINSTANCE__@@@Z
_TEXT	SEGMENT PARA USE32 PUBLIC 'CODE'
_TEXT	ENDS
;	COMDAT ?AtlGetDllVersion@ATL@@YAJPAUHINSTANCE__@@PAU_DLLVERSIONINFO@@@Z
_TEXT	SEGMENT PARA USE32 PUBLIC 'CODE'
_TEXT	ENDS
;	COMDAT ?AtlGetDllVersion@ATL@@YAJPBDPAU_DLLVERSIONINFO@@@Z
_TEXT	SEGMENT PARA USE32 PUBLIC 'CODE'
_TEXT	ENDS
;	COMDAT ?get_m_csStaticDataInit@CComModule@ATL@@QAEAAU_RTL_CRITICAL_SECTION@@XZ
_TEXT	SEGMENT PARA USE32 PUBLIC 'CODE'
_TEXT	ENDS
;	COMDAT ?Init@CComModule@ATL@@QAEJPAU_ATL_OBJMAP_ENTRY30@2@PAUHINSTANCE__@@PBU_GUID@@@Z
_TEXT	SEGMENT PARA USE32 PUBLIC 'CODE'
_TEXT	ENDS
;	COMDAT ?Term@CComModule@ATL@@QAEXXZ
_TEXT	SEGMENT PARA USE32 PUBLIC 'CODE'
_TEXT	ENDS
;	COMDAT ?GetClassObject@CComModule@ATL@@QAEJABU_GUID@@0PAPAX@Z
_TEXT	SEGMENT PARA USE32 PUBLIC 'CODE'
_TEXT	ENDS
;	COMDAT ?RegisterServer@CComModule@ATL@@QAEJHPBU_GUID@@@Z
_TEXT	SEGMENT PARA USE32 PUBLIC 'CODE'
_TEXT	ENDS
;	COMDAT ?UnregisterServer@CComModule@ATL@@QAEJHPBU_GUID@@@Z
_TEXT	SEGMENT PARA USE32 PUBLIC 'CODE'
_TEXT	ENDS
;	COMDAT ??1CWin32Heap@ATL@@UAE@XZ
_TEXT	SEGMENT PARA USE32 PUBLIC 'CODE'
_TEXT	ENDS
;	COMDAT ?Allocate@CWin32Heap@ATL@@UAEPAXI@Z
_TEXT	SEGMENT PARA USE32 PUBLIC 'CODE'
_TEXT	ENDS
;	COMDAT ?Free@CWin32Heap@ATL@@UAEXPAX@Z
_TEXT	SEGMENT PARA USE32 PUBLIC 'CODE'
_TEXT	ENDS
;	COMDAT ?Reallocate@CWin32Heap@ATL@@UAEPAXPAXI@Z
_TEXT	SEGMENT PARA USE32 PUBLIC 'CODE'
_TEXT	ENDS
;	COMDAT ?GetSize@CWin32Heap@ATL@@UAEIPAX@Z
_TEXT	SEGMENT PARA USE32 PUBLIC 'CODE'
_TEXT	ENDS
;	COMDAT ??_GCWin32Heap@ATL@@UAEPAXI@Z
_TEXT	SEGMENT PARA USE32 PUBLIC 'CODE'
_TEXT	ENDS
;	COMDAT ??1?$CComPtr@UIMalloc@@@ATL@@QAE@XZ
_TEXT	SEGMENT PARA USE32 PUBLIC 'CODE'
_TEXT	ENDS
;	COMDAT ?data@CStringData@ATL@@QAEPAXXZ
_TEXT	SEGMENT PARA USE32 PUBLIC 'CODE'
_TEXT	ENDS
;	COMDAT ?AddRef@CStringData@ATL@@QAEXXZ
_TEXT	SEGMENT PARA USE32 PUBLIC 'CODE'
_TEXT	ENDS
;	COMDAT ?IsLocked@CStringData@ATL@@QBE_NXZ
_TEXT	SEGMENT PARA USE32 PUBLIC 'CODE'
_TEXT	ENDS
;	COMDAT ?IsShared@CStringData@ATL@@QBE_NXZ
_TEXT	SEGMENT PARA USE32 PUBLIC 'CODE'
_TEXT	ENDS
;	COMDAT ?Release@CStringData@ATL@@QAEXXZ
_TEXT	SEGMENT PARA USE32 PUBLIC 'CODE'
_TEXT	ENDS
;	COMDAT ??0CNilStringData@ATL@@QAE@XZ
_TEXT	SEGMENT PARA USE32 PUBLIC 'CODE'
_TEXT	ENDS
;	COMDAT ?SetManager@CNilStringData@ATL@@QAEXPAUIAtlStringMgr@2@@Z
_TEXT	SEGMENT PARA USE32 PUBLIC 'CODE'
_TEXT	ENDS
;	COMDAT ?_AtlInstallStringThunk@ATL@@YAXPAPAXPAX1@Z
_TEXT	SEGMENT PARA USE32 PUBLIC 'CODE'
_TEXT	ENDS
;	COMDAT ?GetEnvironmentVariableWFake@ATL@@YGKPB_WPA_WK@Z
_TEXT	SEGMENT PARA USE32 PUBLIC 'CODE'
_TEXT	ENDS
;	COMDAT ?GetEnvironmentVariableWThunk@ATL@@YGKPB_WPA_WK@Z
_TEXT	SEGMENT PARA USE32 PUBLIC 'CODE'
_TEXT	ENDS
;	COMDAT ?CompareStringWFake@ATL@@YGHKKPB_WH0H@Z
_TEXT	SEGMENT PARA USE32 PUBLIC 'CODE'
_TEXT	ENDS
;	COMDAT ?CompareStringWThunk@ATL@@YGHKKPB_WH0H@Z
_TEXT	SEGMENT PARA USE32 PUBLIC 'CODE'
_TEXT	ENDS
;	COMDAT ?GetStringTypeExWFake@ATL@@YGHKKPB_WHPAG@Z
_TEXT	SEGMENT PARA USE32 PUBLIC 'CODE'
_TEXT	ENDS
;	COMDAT ?GetStringTypeExWThunk@ATL@@YGHKKPB_WHPAG@Z
_TEXT	SEGMENT PARA USE32 PUBLIC 'CODE'
_TEXT	ENDS
;	COMDAT ?lstrcmpiWFake@ATL@@YGHPB_W0@Z
_TEXT	SEGMENT PARA USE32 PUBLIC 'CODE'
_TEXT	ENDS
;	COMDAT ?lstrcmpiWThunk@ATL@@YGHPB_W0@Z
_TEXT	SEGMENT PARA USE32 PUBLIC 'CODE'
_TEXT	ENDS
;	COMDAT ?CharLowerWFake@ATL@@YGPA_WPA_W@Z
_TEXT	SEGMENT PARA USE32 PUBLIC 'CODE'
_TEXT	ENDS
;	COMDAT ?CharLowerWThunk@ATL@@YGPA_WPA_W@Z
_TEXT	SEGMENT PARA USE32 PUBLIC 'CODE'
_TEXT	ENDS
;	COMDAT ?CharUpperWFake@ATL@@YGPA_WPA_W@Z
_TEXT	SEGMENT PARA USE32 PUBLIC 'CODE'
_TEXT	ENDS
;	COMDAT ?CharUpperWThunk@ATL@@YGPA_WPA_W@Z
_TEXT	SEGMENT PARA USE32 PUBLIC 'CODE'
_TEXT	ENDS
;	COMDAT ?_GetEnvironmentVariableW@?$ChTraitsCRT@_W@ATL@@CGKPB_WPA_WK@Z
_TEXT	SEGMENT PARA USE32 PUBLIC 'CODE'
_TEXT	ENDS
;	COMDAT ?StringFindString@?$ChTraitsCRT@_W@ATL@@SAPB_WPB_W0@Z
_TEXT	SEGMENT PARA USE32 PUBLIC 'CODE'
_TEXT	ENDS
;	COMDAT ??1CFixedStringMgr@ATL@@UAE@XZ
_TEXT	SEGMENT PARA USE32 PUBLIC 'CODE'
_TEXT	ENDS
;	COMDAT ?Allocate@CFixedStringMgr@ATL@@UAEPAUCStringData@2@HH@Z
_TEXT	SEGMENT PARA USE32 PUBLIC 'CODE'
_TEXT	ENDS
;	COMDAT ?Free@CFixedStringMgr@ATL@@UAEXPAUCStringData@2@@Z
_TEXT	SEGMENT PARA USE32 PUBLIC 'CODE'
_TEXT	ENDS
;	COMDAT ?Reallocate@CFixedStringMgr@ATL@@UAEPAUCStringData@2@PAU32@HH@Z
_TEXT	SEGMENT PARA USE32 PUBLIC 'CODE'
_TEXT	ENDS
;	COMDAT ?GetNilString@CFixedStringMgr@ATL@@UAEPAUCStringData@2@XZ
_TEXT	SEGMENT PARA USE32 PUBLIC 'CODE'
_TEXT	ENDS
;	COMDAT ?Clone@CFixedStringMgr@ATL@@UAEPAUIAtlStringMgr@2@XZ
_TEXT	SEGMENT PARA USE32 PUBLIC 'CODE'
_TEXT	ENDS
;	COMDAT ??_GCFixedStringMgr@ATL@@UAEPAXI@Z
_TEXT	SEGMENT PARA USE32 PUBLIC 'CODE'
_TEXT	ENDS
;	COMDAT ??1CFixedStringLog@ATL@@UAE@XZ
_TEXT	SEGMENT PARA USE32 PUBLIC 'CODE'
_TEXT	ENDS
;	COMDAT ?OnAllocateSpill@CFixedStringLog@ATL@@UAEXHHPBUCStringData@2@@Z
_TEXT	SEGMENT PARA USE32 PUBLIC 'CODE'
_TEXT	ENDS
;	COMDAT ?OnReallocateSpill@CFixedStringLog@ATL@@UAEXHHPBUCStringData@2@@Z
_TEXT	SEGMENT PARA USE32 PUBLIC 'CODE'
_TEXT	ENDS
;	COMDAT ??_GCFixedStringLog@ATL@@UAEPAXI@Z
_TEXT	SEGMENT PARA USE32 PUBLIC 'CODE'
_TEXT	ENDS
;	COMDAT ??0IFixedStringLog@ATL@@QAE@XZ
_TEXT	SEGMENT PARA USE32 PUBLIC 'CODE'
_TEXT	ENDS
;	COMDAT ??1CAtlStringMgr@ATL@@UAE@XZ
_TEXT	SEGMENT PARA USE32 PUBLIC 'CODE'
_TEXT	ENDS
;	COMDAT ?Allocate@CAtlStringMgr@ATL@@UAEPAUCStringData@2@HH@Z
_TEXT	SEGMENT PARA USE32 PUBLIC 'CODE'
_TEXT	ENDS
;	COMDAT ?Free@CAtlStringMgr@ATL@@UAEXPAUCStringData@2@@Z
_TEXT	SEGMENT PARA USE32 PUBLIC 'CODE'
_TEXT	ENDS
;	COMDAT ?Reallocate@CAtlStringMgr@ATL@@UAEPAUCStringData@2@PAU32@HH@Z
_TEXT	SEGMENT PARA USE32 PUBLIC 'CODE'
_TEXT	ENDS
;	COMDAT ?GetNilString@CAtlStringMgr@ATL@@UAEPAUCStringData@2@XZ
_TEXT	SEGMENT PARA USE32 PUBLIC 'CODE'
_TEXT	ENDS
;	COMDAT ?Clone@CAtlStringMgr@ATL@@UAEPAUIAtlStringMgr@2@XZ
_TEXT	SEGMENT PARA USE32 PUBLIC 'CODE'
_TEXT	ENDS
;	COMDAT ??_GCAtlStringMgr@ATL@@UAEPAXI@Z
_TEXT	SEGMENT PARA USE32 PUBLIC 'CODE'
_TEXT	ENDS
;	COMDAT ?CompareStringW@?$ChTraitsOS@_W@ATL@@KGHKKPB_WH0H@Z
_TEXT	SEGMENT PARA USE32 PUBLIC 'CODE'
_TEXT	ENDS
;	COMDAT ?GetStringTypeExW@?$ChTraitsOS@_W@ATL@@KGHKKPB_WHPAG@Z
_TEXT	SEGMENT PARA USE32 PUBLIC 'CODE'
_TEXT	ENDS
;	COMDAT ?lstrcmpiW@?$ChTraitsOS@_W@ATL@@KGHPB_W0@Z
_TEXT	SEGMENT PARA USE32 PUBLIC 'CODE'
_TEXT	ENDS
;	COMDAT ?CharLowerW@?$ChTraitsOS@_W@ATL@@KGPA_WPA_W@Z
_TEXT	SEGMENT PARA USE32 PUBLIC 'CODE'
_TEXT	ENDS
;	COMDAT ?CharUpperW@?$ChTraitsOS@_W@ATL@@KGPA_WPA_W@Z
_TEXT	SEGMENT PARA USE32 PUBLIC 'CODE'
_TEXT	ENDS
;	COMDAT ?strchr@?$ChTraitsOS@_W@ATL@@SAPB_WPB_W_W@Z
_TEXT	SEGMENT PARA USE32 PUBLIC 'CODE'
_TEXT	ENDS
;	COMDAT ?strrchr@?$ChTraitsOS@_W@ATL@@SAPB_WPB_W_W@Z
_TEXT	SEGMENT PARA USE32 PUBLIC 'CODE'
_TEXT	ENDS
;	COMDAT ?_strrev@?$ChTraitsOS@_W@ATL@@SAPA_WPA_W@Z
_TEXT	SEGMENT PARA USE32 PUBLIC 'CODE'
_TEXT	ENDS
;	COMDAT ?strstr@?$ChTraitsOS@_W@ATL@@SAPB_WPB_W0@Z
_TEXT	SEGMENT PARA USE32 PUBLIC 'CODE'
_TEXT	ENDS
;	COMDAT ?strspn@?$ChTraitsOS@_W@ATL@@SAHPB_W0@Z
_TEXT	SEGMENT PARA USE32 PUBLIC 'CODE'
_TEXT	ENDS
;	COMDAT ?strcspn@?$ChTraitsOS@_W@ATL@@SAHPB_W0@Z
_TEXT	SEGMENT PARA USE32 PUBLIC 'CODE'
_TEXT	ENDS
;	COMDAT ?strpbrk@?$ChTraitsOS@_W@ATL@@SAPB_WPB_W0@Z
_TEXT	SEGMENT PARA USE32 PUBLIC 'CODE'
_TEXT	ENDS
;	COMDAT ?StringFindString@?$ChTraitsOS@_W@ATL@@SAPB_WPB_W0@Z
_TEXT	SEGMENT PARA USE32 PUBLIC 'CODE'
_TEXT	ENDS
;	COMDAT ?Format@CTimeSpan@ATL@@QBE?AV?$CStringT@DV?$StrTraitATL@DV?$ChTraitsCRT@D@ATL@@@ATL@@@2@PBD@Z
_TEXT	SEGMENT PARA USE32 PUBLIC 'CODE'
_TEXT	ENDS
;	COMDAT ?Format@CTime@ATL@@QBE?AV?$CStringT@DV?$StrTraitATL@DV?$ChTraitsCRT@D@ATL@@@ATL@@@2@PBD@Z
_TEXT	SEGMENT PARA USE32 PUBLIC 'CODE'
_TEXT	ENDS
;	COMDAT ?FormatGmt@CTime@ATL@@QBE?AV?$CStringT@DV?$StrTraitATL@DV?$ChTraitsCRT@D@ATL@@@ATL@@@2@PBD@Z
_TEXT	SEGMENT PARA USE32 PUBLIC 'CODE'
_TEXT	ENDS
;	COMDAT ??0?$allocator@D@std@@QAE@XZ
_TEXT	SEGMENT PARA USE32 PUBLIC 'CODE'
_TEXT	ENDS
;	COMDAT ??0?$allocator@D@std@@QAE@ABV01@@Z
_TEXT	SEGMENT PARA USE32 PUBLIC 'CODE'
_TEXT	ENDS
;	COMDAT ??0?$allocator@_W@std@@QAE@XZ
_TEXT	SEGMENT PARA USE32 PUBLIC 'CODE'
_TEXT	ENDS
;	COMDAT ??0?$allocator@_W@std@@QAE@ABV01@@Z
_TEXT	SEGMENT PARA USE32 PUBLIC 'CODE'
_TEXT	ENDS
;	COMDAT ??0?$basic_string@DU?$char_traits@D@std@@V?$_DebugHeapAllocator@D@2@@std@@QAE@XZ
_TEXT	SEGMENT PARA USE32 PUBLIC 'CODE'
_TEXT	ENDS
;	COMDAT ??0?$basic_string@DU?$char_traits@D@std@@V?$_DebugHeapAllocator@D@2@@std@@QAE@ABV01@@Z
_TEXT	SEGMENT PARA USE32 PUBLIC 'CODE'
_TEXT	ENDS
;	COMDAT ??0?$basic_string@DU?$char_traits@D@std@@V?$_DebugHeapAllocator@D@2@@std@@QAE@PBD@Z
_TEXT	SEGMENT PARA USE32 PUBLIC 'CODE'
_TEXT	ENDS
;	COMDAT ??1?$basic_string@DU?$char_traits@D@std@@V?$_DebugHeapAllocator@D@2@@std@@QAE@XZ
_TEXT	SEGMENT PARA USE32 PUBLIC 'CODE'
_TEXT	ENDS
;	COMDAT ?c_str@?$basic_string@DU?$char_traits@D@std@@V?$_DebugHeapAllocator@D@2@@std@@QBEPBDXZ
_TEXT	SEGMENT PARA USE32 PUBLIC 'CODE'
_TEXT	ENDS
;	COMDAT ??0sentry@?$basic_istream@DU?$char_traits@D@std@@@std@@QAE@AAV12@_N@Z
_TEXT	SEGMENT PARA USE32 PUBLIC 'CODE'
_TEXT	ENDS
;	COMDAT ??Bsentry@?$basic_istream@DU?$char_traits@D@std@@@std@@QBE_NXZ
_TEXT	SEGMENT PARA USE32 PUBLIC 'CODE'
_TEXT	ENDS
;	COMDAT ??1_Sentry_base@?$basic_istream@DU?$char_traits@D@std@@@std@@QAE@XZ
_TEXT	SEGMENT PARA USE32 PUBLIC 'CODE'
_TEXT	ENDS
;	COMDAT ??0sentry@?$basic_istream@_WU?$char_traits@_W@std@@@std@@QAE@AAV12@_N@Z
_TEXT	SEGMENT PARA USE32 PUBLIC 'CODE'
_TEXT	ENDS
;	COMDAT ??Bsentry@?$basic_istream@_WU?$char_traits@_W@std@@@std@@QBE_NXZ
_TEXT	SEGMENT PARA USE32 PUBLIC 'CODE'
_TEXT	ENDS
;	COMDAT ??1_Sentry_base@?$basic_istream@_WU?$char_traits@_W@std@@@std@@QAE@XZ
_TEXT	SEGMENT PARA USE32 PUBLIC 'CODE'
_TEXT	ENDS
;	COMDAT ??0?$CAtlSafeAllocBufferManager@VCCRTAllocator@ATL@@@_ATL_SAFE_ALLOCA_IMPL@ATL@@QAE@XZ
_TEXT	SEGMENT PARA USE32 PUBLIC 'CODE'
_TEXT	ENDS
;	COMDAT ?Allocate@?$CAtlSafeAllocBufferManager@VCCRTAllocator@ATL@@@_ATL_SAFE_ALLOCA_IMPL@ATL@@QAEPAXK@Z
_TEXT	SEGMENT PARA USE32 PUBLIC 'CODE'
_TEXT	ENDS
;	COMDAT ??1?$CAtlSafeAllocBufferManager@VCCRTAllocator@ATL@@@_ATL_SAFE_ALLOCA_IMPL@ATL@@QAE@XZ
_TEXT	SEGMENT PARA USE32 PUBLIC 'CODE'
_TEXT	ENDS
;	COMDAT ??0?$CComPtrBase@UIDispatch@@@ATL@@IAE@XZ
_TEXT	SEGMENT PARA USE32 PUBLIC 'CODE'
_TEXT	ENDS
;	COMDAT ??0?$CComPtrBase@UIDispatch@@@ATL@@IAE@PAUIDispatch@@@Z
_TEXT	SEGMENT PARA USE32 PUBLIC 'CODE'
_TEXT	ENDS
;	COMDAT ??1?$CComPtrBase@UIDispatch@@@ATL@@QAE@XZ
_TEXT	SEGMENT PARA USE32 PUBLIC 'CODE'
_TEXT	ENDS
;	COMDAT ??0?$CComPtr@UIUnknown@@@ATL@@QAE@XZ
_TEXT	SEGMENT PARA USE32 PUBLIC 'CODE'
_TEXT	ENDS
;	COMDAT ??0?$CComPtr@UIUnknown@@@ATL@@QAE@PAUIUnknown@@@Z
_TEXT	SEGMENT PARA USE32 PUBLIC 'CODE'
_TEXT	ENDS
;	COMDAT ??1?$CComPtrBase@UIUnknown@@@ATL@@QAE@XZ
_TEXT	SEGMENT PARA USE32 PUBLIC 'CODE'
_TEXT	ENDS
;	COMDAT ??0?$CTempBuffer@D$0IA@VCCRTAllocator@ATL@@@ATL@@QAE@XZ
_TEXT	SEGMENT PARA USE32 PUBLIC 'CODE'
_TEXT	ENDS
;	COMDAT ??1?$CTempBuffer@D$0IA@VCCRTAllocator@ATL@@@ATL@@QAE@XZ
_TEXT	SEGMENT PARA USE32 PUBLIC 'CODE'
_TEXT	ENDS
;	COMDAT ??B?$CTempBuffer@D$0IA@VCCRTAllocator@ATL@@@ATL@@QBEPADXZ
_TEXT	SEGMENT PARA USE32 PUBLIC 'CODE'
_TEXT	ENDS
;	COMDAT ?Allocate@?$CTempBuffer@D$0IA@VCCRTAllocator@ATL@@@ATL@@QAEPADI@Z
_TEXT	SEGMENT PARA USE32 PUBLIC 'CODE'
_TEXT	ENDS
;	COMDAT ??0?$CTempBuffer@_W$0IA@VCCRTAllocator@ATL@@@ATL@@QAE@XZ
_TEXT	SEGMENT PARA USE32 PUBLIC 'CODE'
_TEXT	ENDS
;	COMDAT ??1?$CTempBuffer@_W$0IA@VCCRTAllocator@ATL@@@ATL@@QAE@XZ
_TEXT	SEGMENT PARA USE32 PUBLIC 'CODE'
_TEXT	ENDS
;	COMDAT ??B?$CTempBuffer@_W$0IA@VCCRTAllocator@ATL@@@ATL@@QBEPA_WXZ
_TEXT	SEGMENT PARA USE32 PUBLIC 'CODE'
_TEXT	ENDS
;	COMDAT ?Allocate@?$CTempBuffer@_W$0IA@VCCRTAllocator@ATL@@@ATL@@QAEPA_WI@Z
_TEXT	SEGMENT PARA USE32 PUBLIC 'CODE'
_TEXT	ENDS
;	COMDAT ??0?$CComPtr@UIPersistStream@@@ATL@@QAE@XZ
_TEXT	SEGMENT PARA USE32 PUBLIC 'CODE'
_TEXT	ENDS
;	COMDAT ??1?$CComPtrBase@UIPersistStream@@@ATL@@QAE@XZ
_TEXT	SEGMENT PARA USE32 PUBLIC 'CODE'
_TEXT	ENDS
;	COMDAT ??B?$CComPtrBase@UIPersistStream@@@ATL@@QBEPAUIPersistStream@@XZ
_TEXT	SEGMENT PARA USE32 PUBLIC 'CODE'
_TEXT	ENDS
;	COMDAT ??I?$CComPtrBase@UIPersistStream@@@ATL@@QAEPAPAUIPersistStream@@XZ
_TEXT	SEGMENT PARA USE32 PUBLIC 'CODE'
_TEXT	ENDS
;	COMDAT ??C?$CComPtrBase@UIPersistStream@@@ATL@@QBEPAV?$_NoAddRefReleaseOnCComPtr@UIPersistStream@@@1@XZ
_TEXT	SEGMENT PARA USE32 PUBLIC 'CODE'
_TEXT	ENDS
;	COMDAT ??0?$CSimpleArray@GV?$CSimpleArrayEqualHelper@G@ATL@@@ATL@@QAE@XZ
_TEXT	SEGMENT PARA USE32 PUBLIC 'CODE'
_TEXT	ENDS
;	COMDAT ??1?$CSimpleArray@GV?$CSimpleArrayEqualHelper@G@ATL@@@ATL@@QAE@XZ
_TEXT	SEGMENT PARA USE32 PUBLIC 'CODE'
_TEXT	ENDS
;	COMDAT ?GetSize@?$CSimpleArray@GV?$CSimpleArrayEqualHelper@G@ATL@@@ATL@@QBEHXZ
_TEXT	SEGMENT PARA USE32 PUBLIC 'CODE'
_TEXT	ENDS
;	COMDAT ?RemoveAll@?$CSimpleArray@GV?$CSimpleArrayEqualHelper@G@ATL@@@ATL@@QAEXXZ
_TEXT	SEGMENT PARA USE32 PUBLIC 'CODE'
_TEXT	ENDS
;	COMDAT ??A?$CSimpleArray@GV?$CSimpleArrayEqualHelper@G@ATL@@@ATL@@QAEAAGH@Z
_TEXT	SEGMENT PARA USE32 PUBLIC 'CODE'
_TEXT	ENDS
;	COMDAT ??0?$CAtlModuleT@VCComModule@ATL@@@ATL@@QAE@XZ
_TEXT	SEGMENT PARA USE32 PUBLIC 'CODE'
_TEXT	ENDS
;	COMDAT ?RegisterServer@?$CAtlModuleT@VCComModule@ATL@@@ATL@@QAEJHPBU_GUID@@@Z
_TEXT	SEGMENT PARA USE32 PUBLIC 'CODE'
_TEXT	ENDS
;	COMDAT ?UnregisterServer@?$CAtlModuleT@VCComModule@ATL@@@ATL@@QAEJHPBU_GUID@@@Z
_TEXT	SEGMENT PARA USE32 PUBLIC 'CODE'
_TEXT	ENDS
;	COMDAT ?AddCommonRGSReplacements@?$CAtlModuleT@VCComModule@ATL@@@ATL@@UAEJPAUIRegistrarBase@@@Z
_TEXT	SEGMENT PARA USE32 PUBLIC 'CODE'
_TEXT	ENDS
;	COMDAT ??1?$CAtlAutoThreadModuleT@VCAtlAutoThreadModule@ATL@@VCComSimpleThreadAllocator@2@$0PPPPPPPP@@ATL@@UAE@XZ
_TEXT	SEGMENT PARA USE32 PUBLIC 'CODE'
_TEXT	ENDS
;	COMDAT ?CreateInstance@?$CAtlAutoThreadModuleT@VCAtlAutoThreadModule@ATL@@VCComSimpleThreadAllocator@2@$0PPPPPPPP@@ATL@@UAEJPAXABU_GUID@@PAPAX@Z
_TEXT	SEGMENT PARA USE32 PUBLIC 'CODE'
_TEXT	ENDS
;	COMDAT ??0?$CSimpleMap@PADPA_WVCExpansionVectorEqualHelper@ATL@@@ATL@@QAE@XZ
_TEXT	SEGMENT PARA USE32 PUBLIC 'CODE'
_TEXT	ENDS
;	COMDAT ??1?$CSimpleMap@PADPA_WVCExpansionVectorEqualHelper@ATL@@@ATL@@QAE@XZ
_TEXT	SEGMENT PARA USE32 PUBLIC 'CODE'
_TEXT	ENDS
;	COMDAT ?GetSize@?$CSimpleMap@PADPA_WVCExpansionVectorEqualHelper@ATL@@@ATL@@QBEHXZ
_TEXT	SEGMENT PARA USE32 PUBLIC 'CODE'
_TEXT	ENDS
;	COMDAT ?Add@?$CSimpleMap@PADPA_WVCExpansionVectorEqualHelper@ATL@@@ATL@@QAEHABQADABQA_W@Z
_TEXT	SEGMENT PARA USE32 PUBLIC 'CODE'
_TEXT	ENDS
;	COMDAT ?RemoveAll@?$CSimpleMap@PADPA_WVCExpansionVectorEqualHelper@ATL@@@ATL@@QAEXXZ
_TEXT	SEGMENT PARA USE32 PUBLIC 'CODE'
_TEXT	ENDS
;	COMDAT ?Lookup@?$CSimpleMap@PADPA_WVCExpansionVectorEqualHelper@ATL@@@ATL@@QBEPA_WABQAD@Z
_TEXT	SEGMENT PARA USE32 PUBLIC 'CODE'
_TEXT	ENDS
;	COMDAT ?GetKeyAt@?$CSimpleMap@PADPA_WVCExpansionVectorEqualHelper@ATL@@@ATL@@QBEAAPADH@Z
_TEXT	SEGMENT PARA USE32 PUBLIC 'CODE'
_TEXT	ENDS
;	COMDAT ?GetValueAt@?$CSimpleMap@PADPA_WVCExpansionVectorEqualHelper@ATL@@@ATL@@QBEAAPA_WH@Z
_TEXT	SEGMENT PARA USE32 PUBLIC 'CODE'
_TEXT	ENDS
;	COMDAT ??0?$CTempBuffer@D$0EAA@VCCRTAllocator@ATL@@@ATL@@QAE@XZ
_TEXT	SEGMENT PARA USE32 PUBLIC 'CODE'
_TEXT	ENDS
;	COMDAT ??1?$CTempBuffer@D$0EAA@VCCRTAllocator@ATL@@@ATL@@QAE@XZ
_TEXT	SEGMENT PARA USE32 PUBLIC 'CODE'
_TEXT	ENDS
;	COMDAT ??B?$CTempBuffer@D$0EAA@VCCRTAllocator@ATL@@@ATL@@QBEPADXZ
_TEXT	SEGMENT PARA USE32 PUBLIC 'CODE'
_TEXT	ENDS
;	COMDAT ?Allocate@?$CTempBuffer@D$0EAA@VCCRTAllocator@ATL@@@ATL@@QAEPADI@Z
_TEXT	SEGMENT PARA USE32 PUBLIC 'CODE'
_TEXT	ENDS
;	COMDAT ??0?$CTempBuffer@D$0BAA@VCCRTAllocator@ATL@@@ATL@@QAE@XZ
_TEXT	SEGMENT PARA USE32 PUBLIC 'CODE'
_TEXT	ENDS
;	COMDAT ??1?$CTempBuffer@D$0BAA@VCCRTAllocator@ATL@@@ATL@@QAE@XZ
_TEXT	SEGMENT PARA USE32 PUBLIC 'CODE'
_TEXT	ENDS
;	COMDAT ??B?$CTempBuffer@D$0BAA@VCCRTAllocator@ATL@@@ATL@@QBEPADXZ
_TEXT	SEGMENT PARA USE32 PUBLIC 'CODE'
_TEXT	ENDS
;	COMDAT ?Allocate@?$CTempBuffer@D$0BAA@VCCRTAllocator@ATL@@@ATL@@QAEPADI@Z
_TEXT	SEGMENT PARA USE32 PUBLIC 'CODE'
_TEXT	ENDS
;	COMDAT ??0?$CTempBuffer@E$0BAA@VCCRTAllocator@ATL@@@ATL@@QAE@XZ
_TEXT	SEGMENT PARA USE32 PUBLIC 'CODE'
_TEXT	ENDS
;	COMDAT ??1?$CTempBuffer@E$0BAA@VCCRTAllocator@ATL@@@ATL@@QAE@XZ
_TEXT	SEGMENT PARA USE32 PUBLIC 'CODE'
_TEXT	ENDS
;	COMDAT ??B?$CTempBuffer@E$0BAA@VCCRTAllocator@ATL@@@ATL@@QBEPAEXZ
_TEXT	SEGMENT PARA USE32 PUBLIC 'CODE'
_TEXT	ENDS
;	COMDAT ?Allocate@?$CTempBuffer@E$0BAA@VCCRTAllocator@ATL@@@ATL@@QAEPAEI@Z
_TEXT	SEGMENT PARA USE32 PUBLIC 'CODE'
_TEXT	ENDS
;	COMDAT ??0?$CComPtr@UITypeLib@@@ATL@@QAE@XZ
_TEXT	SEGMENT PARA USE32 PUBLIC 'CODE'
_TEXT	ENDS
;	COMDAT ??1?$CComPtrBase@UITypeLib@@@ATL@@QAE@XZ
_TEXT	SEGMENT PARA USE32 PUBLIC 'CODE'
_TEXT	ENDS
;	COMDAT ??B?$CComPtrBase@UITypeLib@@@ATL@@QBEPAUITypeLib@@XZ
_TEXT	SEGMENT PARA USE32 PUBLIC 'CODE'
_TEXT	ENDS
;	COMDAT ??I?$CComPtrBase@UITypeLib@@@ATL@@QAEPAPAUITypeLib@@XZ
_TEXT	SEGMENT PARA USE32 PUBLIC 'CODE'
_TEXT	ENDS
;	COMDAT ??C?$CComPtrBase@UITypeLib@@@ATL@@QBEPAV?$_NoAddRefReleaseOnCComPtr@UITypeLib@@@1@XZ
_TEXT	SEGMENT PARA USE32 PUBLIC 'CODE'
_TEXT	ENDS
;	COMDAT ??0?$CComPtr@UICatRegister@@@ATL@@QAE@XZ
_TEXT	SEGMENT PARA USE32 PUBLIC 'CODE'
_TEXT	ENDS
;	COMDAT ??1?$CComPtrBase@UICatRegister@@@ATL@@QAE@XZ
_TEXT	SEGMENT PARA USE32 PUBLIC 'CODE'
_TEXT	ENDS
;	COMDAT ??I?$CComPtrBase@UICatRegister@@@ATL@@QAEPAPAUICatRegister@@XZ
_TEXT	SEGMENT PARA USE32 PUBLIC 'CODE'
_TEXT	ENDS
;	COMDAT ??C?$CComPtrBase@UICatRegister@@@ATL@@QBEPAV?$_NoAddRefReleaseOnCComPtr@UICatRegister@@@1@XZ
_TEXT	SEGMENT PARA USE32 PUBLIC 'CODE'
_TEXT	ENDS
;	COMDAT ??0?$CComPtr@UIMalloc@@@ATL@@QAE@XZ
_TEXT	SEGMENT PARA USE32 PUBLIC 'CODE'
_TEXT	ENDS
;	COMDAT ??1?$CComPtrBase@UIMalloc@@@ATL@@QAE@XZ
_TEXT	SEGMENT PARA USE32 PUBLIC 'CODE'
_TEXT	ENDS
;	COMDAT ??I?$CComPtrBase@UIMalloc@@@ATL@@QAEPAPAUIMalloc@@XZ
_TEXT	SEGMENT PARA USE32 PUBLIC 'CODE'
_TEXT	ENDS
;	COMDAT ??C?$CComPtrBase@UIMalloc@@@ATL@@QBEPAV?$_NoAddRefReleaseOnCComPtr@UIMalloc@@@1@XZ
_TEXT	SEGMENT PARA USE32 PUBLIC 'CODE'
_TEXT	ENDS
;	COMDAT ??0?$CW2AEX@$0IA@@ATL@@QAE@PB_W@Z
_TEXT	SEGMENT PARA USE32 PUBLIC 'CODE'
_TEXT	ENDS
;	COMDAT ??1?$CW2AEX@$0IA@@ATL@@QAE@XZ
_TEXT	SEGMENT PARA USE32 PUBLIC 'CODE'
_TEXT	ENDS
;	COMDAT ??B?$CW2AEX@$0IA@@ATL@@QBEPADXZ
_TEXT	SEGMENT PARA USE32 PUBLIC 'CODE'
_TEXT	ENDS
;	COMDAT ??0?$CStringT@DV?$StrTraitATL@DV?$ChTraitsCRT@D@ATL@@@ATL@@@ATL@@QAE@XZ
_TEXT	SEGMENT PARA USE32 PUBLIC 'CODE'
_TEXT	ENDS
;	COMDAT ??0?$CStringT@DV?$StrTraitATL@DV?$ChTraitsCRT@D@ATL@@@ATL@@@ATL@@QAE@ABV01@@Z
_TEXT	SEGMENT PARA USE32 PUBLIC 'CODE'
_TEXT	ENDS
;	COMDAT ??0?$CStringT@DV?$StrTraitATL@DV?$ChTraitsCRT@D@ATL@@@ATL@@@ATL@@QAE@PBD@Z
_TEXT	SEGMENT PARA USE32 PUBLIC 'CODE'
_TEXT	ENDS
;	COMDAT ??1?$CStringT@DV?$StrTraitATL@DV?$ChTraitsCRT@D@ATL@@@ATL@@@ATL@@QAE@XZ
_TEXT	SEGMENT PARA USE32 PUBLIC 'CODE'
_TEXT	ENDS
;	COMDAT ??Y?$CStringT@DV?$StrTraitATL@DV?$ChTraitsCRT@D@ATL@@@ATL@@@ATL@@QAEAAV01@D@Z
_TEXT	SEGMENT PARA USE32 PUBLIC 'CODE'
_TEXT	ENDS
;	COMDAT ?AppendFormat@?$CStringT@DV?$StrTraitATL@DV?$ChTraitsCRT@D@ATL@@@ATL@@@ATL@@QAAXPBDZZ
_TEXT	SEGMENT PARA USE32 PUBLIC 'CODE'
_TEXT	ENDS
;	COMDAT ?LoadStringA@?$CStringT@DV?$StrTraitATL@DV?$ChTraitsCRT@D@ATL@@@ATL@@@ATL@@QAEHI@Z
_TEXT	SEGMENT PARA USE32 PUBLIC 'CODE'
_TEXT	ENDS
;	COMDAT ??B?$CSimpleStringT@D$0A@@ATL@@QBEPBDXZ
_TEXT	SEGMENT PARA USE32 PUBLIC 'CODE'
_TEXT	ENDS
;	COMDAT ?Preallocate@?$CSimpleStringT@D$0A@@ATL@@QAEXH@Z
_TEXT	SEGMENT PARA USE32 PUBLIC 'CODE'
_TEXT	ENDS
;	COMDAT ??0?$_DebugHeapAllocator@D@std@@QAE@XZ
_TEXT	SEGMENT PARA USE32 PUBLIC 'CODE'
_TEXT	ENDS
;	COMDAT ??0?$_DebugHeapAllocator@D@std@@QAE@ABV01@@Z
_TEXT	SEGMENT PARA USE32 PUBLIC 'CODE'
_TEXT	ENDS
;	COMDAT ??_G?$numpunct@D@std@@MAEPAXI@Z
_TEXT	SEGMENT PARA USE32 PUBLIC 'CODE'
_TEXT	ENDS
;	COMDAT ??_G?$numpunct@_W@std@@MAEPAXI@Z
_TEXT	SEGMENT PARA USE32 PUBLIC 'CODE'
_TEXT	ENDS
;	COMDAT ??_G?$CAtlModuleT@VCComModule@ATL@@@ATL@@UAEPAXI@Z
_TEXT	SEGMENT PARA USE32 PUBLIC 'CODE'
_TEXT	ENDS
;	COMDAT ??_G?$CAtlAutoThreadModuleT@VCAtlAutoThreadModule@ATL@@VCComSimpleThreadAllocator@2@$0PPPPPPPP@@ATL@@UAEPAXI@Z
_TEXT	SEGMENT PARA USE32 PUBLIC 'CODE'
_TEXT	ENDS
;	COMDAT ?assign@?$basic_string@DU?$char_traits@D@std@@V?$_DebugHeapAllocator@D@2@@std@@QAEAAV12@ABV12@II@Z
_TEXT	SEGMENT PARA USE32 PUBLIC 'CODE'
_TEXT	ENDS
;	COMDAT ?assign@?$basic_string@DU?$char_traits@D@std@@V?$_DebugHeapAllocator@D@2@@std@@QAEAAV12@PBD@Z
_TEXT	SEGMENT PARA USE32 PUBLIC 'CODE'
_TEXT	ENDS
;	COMDAT ?_Tidy@?$basic_string@DU?$char_traits@D@std@@V?$_DebugHeapAllocator@D@2@@std@@IAEX_NI@Z
_TEXT	SEGMENT PARA USE32 PUBLIC 'CODE'
_TEXT	ENDS
;	COMDAT ?_Myptr@?$basic_string@DU?$char_traits@D@std@@V?$_DebugHeapAllocator@D@2@@std@@QBEPBDXZ
_TEXT	SEGMENT PARA USE32 PUBLIC 'CODE'
_TEXT	ENDS
;	COMDAT ??0?$_String_val@DV?$_DebugHeapAllocator@D@std@@@std@@IAE@V?$_DebugHeapAllocator@D@1@@Z
_TEXT	SEGMENT PARA USE32 PUBLIC 'CODE'
_TEXT	ENDS
;	COMDAT ??0_Sentry_base@?$basic_istream@DU?$char_traits@D@std@@@std@@QAE@AAV12@@Z
_TEXT	SEGMENT PARA USE32 PUBLIC 'CODE'
_TEXT	ENDS
;	COMDAT ??0_Sentry_base@?$basic_istream@_WU?$char_traits@_W@std@@@std@@QAE@AAV12@@Z
_TEXT	SEGMENT PARA USE32 PUBLIC 'CODE'
_TEXT	ENDS
;	COMDAT ??0?$CComPtrBase@UIUnknown@@@ATL@@IAE@XZ
_TEXT	SEGMENT PARA USE32 PUBLIC 'CODE'
_TEXT	ENDS
;	COMDAT ??0?$CComPtrBase@UIUnknown@@@ATL@@IAE@PAUIUnknown@@@Z
_TEXT	SEGMENT PARA USE32 PUBLIC 'CODE'
_TEXT	ENDS
;	COMDAT ?AllocateBytes@?$CTempBuffer@D$0IA@VCCRTAllocator@ATL@@@ATL@@QAEPADI@Z
_TEXT	SEGMENT PARA USE32 PUBLIC 'CODE'
_TEXT	ENDS
;	COMDAT ?FreeHeap@?$CTempBuffer@D$0IA@VCCRTAllocator@ATL@@@ATL@@AAEXXZ
_TEXT	SEGMENT PARA USE32 PUBLIC 'CODE'
_TEXT	ENDS
;	COMDAT ?AllocateBytes@?$CTempBuffer@_W$0IA@VCCRTAllocator@ATL@@@ATL@@QAEPA_WI@Z
_TEXT	SEGMENT PARA USE32 PUBLIC 'CODE'
_TEXT	ENDS
;	COMDAT ?FreeHeap@?$CTempBuffer@_W$0IA@VCCRTAllocator@ATL@@@ATL@@AAEXXZ
_TEXT	SEGMENT PARA USE32 PUBLIC 'CODE'
_TEXT	ENDS
;	COMDAT ??0?$CComPtrBase@UIPersistStream@@@ATL@@IAE@XZ
_TEXT	SEGMENT PARA USE32 PUBLIC 'CODE'
_TEXT	ENDS
;	COMDAT ?InitLibId@?$CAtlModuleT@VCComModule@ATL@@@ATL@@SAXXZ
_TEXT	SEGMENT PARA USE32 PUBLIC 'CODE'
_TEXT	ENDS
;	COMDAT ?GetAppId@?$CAtlModuleT@VCComModule@ATL@@@ATL@@SAPB_WXZ
_TEXT	SEGMENT PARA USE32 PUBLIC 'CODE'
_TEXT	ENDS
;	COMDAT ?FindKey@?$CSimpleMap@PADPA_WVCExpansionVectorEqualHelper@ATL@@@ATL@@QBEHABQAD@Z
_TEXT	SEGMENT PARA USE32 PUBLIC 'CODE'
_TEXT	ENDS
;	COMDAT ?InternalSetAtIndex@?$CSimpleMap@PADPA_WVCExpansionVectorEqualHelper@ATL@@@ATL@@QAEXHABQADABQA_W@Z
_TEXT	SEGMENT PARA USE32 PUBLIC 'CODE'
_TEXT	ENDS
;	COMDAT ?AllocateBytes@?$CTempBuffer@D$0EAA@VCCRTAllocator@ATL@@@ATL@@QAEPADI@Z
_TEXT	SEGMENT PARA USE32 PUBLIC 'CODE'
_TEXT	ENDS
;	COMDAT ?FreeHeap@?$CTempBuffer@D$0EAA@VCCRTAllocator@ATL@@@ATL@@AAEXXZ
_TEXT	SEGMENT PARA USE32 PUBLIC 'CODE'
_TEXT	ENDS
;	COMDAT ?AllocateBytes@?$CTempBuffer@D$0BAA@VCCRTAllocator@ATL@@@ATL@@QAEPADI@Z
_TEXT	SEGMENT PARA USE32 PUBLIC 'CODE'
_TEXT	ENDS
;	COMDAT ?FreeHeap@?$CTempBuffer@D$0BAA@VCCRTAllocator@ATL@@@ATL@@AAEXXZ
_TEXT	SEGMENT PARA USE32 PUBLIC 'CODE'
_TEXT	ENDS
;	COMDAT ?AllocateBytes@?$CTempBuffer@E$0BAA@VCCRTAllocator@ATL@@@ATL@@QAEPAEI@Z
_TEXT	SEGMENT PARA USE32 PUBLIC 'CODE'
_TEXT	ENDS
;	COMDAT ?FreeHeap@?$CTempBuffer@E$0BAA@VCCRTAllocator@ATL@@@ATL@@AAEXXZ
_TEXT	SEGMENT PARA USE32 PUBLIC 'CODE'
_TEXT	ENDS
;	COMDAT ??0?$CComPtrBase@UITypeLib@@@ATL@@IAE@XZ
_TEXT	SEGMENT PARA USE32 PUBLIC 'CODE'
_TEXT	ENDS
;	COMDAT ??0?$CComPtrBase@UICatRegister@@@ATL@@IAE@XZ
_TEXT	SEGMENT PARA USE32 PUBLIC 'CODE'
_TEXT	ENDS
;	COMDAT ??0?$CComPtrBase@UIMalloc@@@ATL@@IAE@XZ
_TEXT	SEGMENT PARA USE32 PUBLIC 'CODE'
_TEXT	ENDS
;	COMDAT ?Init@?$CW2AEX@$0IA@@ATL@@AAEXPB_WI@Z
_TEXT	SEGMENT PARA USE32 PUBLIC 'CODE'
_TEXT	ENDS
;	COMDAT ??4?$CStringT@DV?$StrTraitATL@DV?$ChTraitsCRT@D@ATL@@@ATL@@@ATL@@QAEAAV01@PBD@Z
_TEXT	SEGMENT PARA USE32 PUBLIC 'CODE'
_TEXT	ENDS
;	COMDAT ?AppendFormatV@?$CStringT@DV?$StrTraitATL@DV?$ChTraitsCRT@D@ATL@@@ATL@@@ATL@@QAEXPBDPAD@Z
_TEXT	SEGMENT PARA USE32 PUBLIC 'CODE'
_TEXT	ENDS
;	COMDAT ?LoadStringA@?$CStringT@DV?$StrTraitATL@DV?$ChTraitsCRT@D@ATL@@@ATL@@@ATL@@QAEHPAUHINSTANCE__@@I@Z
_TEXT	SEGMENT PARA USE32 PUBLIC 'CODE'
_TEXT	ENDS
;	COMDAT ?CheckImplicitLoad@?$CStringT@DV?$StrTraitATL@DV?$ChTraitsCRT@D@ATL@@@ATL@@@ATL@@AAE_NPBX@Z
_TEXT	SEGMENT PARA USE32 PUBLIC 'CODE'
_TEXT	ENDS
;	COMDAT ??0?$CSimpleStringT@D$0A@@ATL@@QAE@PAUIAtlStringMgr@1@@Z
_TEXT	SEGMENT PARA USE32 PUBLIC 'CODE'
_TEXT	ENDS
;	COMDAT ??0?$CSimpleStringT@D$0A@@ATL@@QAE@ABV01@@Z
_TEXT	SEGMENT PARA USE32 PUBLIC 'CODE'
_TEXT	ENDS
;	COMDAT ??1?$CSimpleStringT@D$0A@@ATL@@QAE@XZ
_TEXT	SEGMENT PARA USE32 PUBLIC 'CODE'
_TEXT	ENDS
;	COMDAT ??Y?$CSimpleStringT@D$0A@@ATL@@QAEAAV01@D@Z
_TEXT	SEGMENT PARA USE32 PUBLIC 'CODE'
_TEXT	ENDS
;	COMDAT ?PrepareWrite@?$CSimpleStringT@D$0A@@ATL@@AAEPADH@Z
_TEXT	SEGMENT PARA USE32 PUBLIC 'CODE'
_TEXT	ENDS
;	COMDAT ?FindStringResourceInstance@?$StrTraitATL@DV?$ChTraitsCRT@D@ATL@@@ATL@@SAPAUHINSTANCE__@@I@Z
_TEXT	SEGMENT PARA USE32 PUBLIC 'CODE'
_TEXT	ENDS
;	COMDAT ?GetDefaultManager@?$StrTraitATL@DV?$ChTraitsCRT@D@ATL@@@ATL@@SAPAUIAtlStringMgr@2@XZ
_TEXT	SEGMENT PARA USE32 PUBLIC 'CODE'
_TEXT	ENDS
;	COMDAT ??0?$fpos@H@std@@QAE@J@Z
_TEXT	SEGMENT PARA USE32 PUBLIC 'CODE'
_TEXT	ENDS
;	COMDAT ??0sentry@?$basic_ostream@DU?$char_traits@D@std@@@std@@QAE@AAV12@@Z
_TEXT	SEGMENT PARA USE32 PUBLIC 'CODE'
_TEXT	ENDS
;	COMDAT ??1sentry@?$basic_ostream@DU?$char_traits@D@std@@@std@@QAE@XZ
_TEXT	SEGMENT PARA USE32 PUBLIC 'CODE'
_TEXT	ENDS
;	COMDAT ??Bsentry@?$basic_ostream@DU?$char_traits@D@std@@@std@@QBE_NXZ
_TEXT	SEGMENT PARA USE32 PUBLIC 'CODE'
_TEXT	ENDS
;	COMDAT ??0sentry@?$basic_ostream@_WU?$char_traits@_W@std@@@std@@QAE@AAV12@@Z
_TEXT	SEGMENT PARA USE32 PUBLIC 'CODE'
_TEXT	ENDS
;	COMDAT ??1sentry@?$basic_ostream@_WU?$char_traits@_W@std@@@std@@QAE@XZ
_TEXT	SEGMENT PARA USE32 PUBLIC 'CODE'
_TEXT	ENDS
;	COMDAT ??Bsentry@?$basic_ostream@_WU?$char_traits@_W@std@@@std@@QBE_NXZ
_TEXT	SEGMENT PARA USE32 PUBLIC 'CODE'
_TEXT	ENDS
;	COMDAT ?GetData@CAtlSafeAllocBufferNode@?$CAtlSafeAllocBufferManager@VCCRTAllocator@ATL@@@_ATL_SAFE_ALLOCA_IMPL@ATL@@QAEPAXXZ
_TEXT	SEGMENT PARA USE32 PUBLIC 'CODE'
_TEXT	ENDS
;	COMDAT ?deallocate@?$allocator@D@std@@QAEXPADI@Z
_TEXT	SEGMENT PARA USE32 PUBLIC 'CODE'
_TEXT	ENDS
;	COMDAT ?assign@?$basic_string@DU?$char_traits@D@std@@V?$_DebugHeapAllocator@D@2@@std@@QAEAAV12@PBDI@Z
_TEXT	SEGMENT PARA USE32 PUBLIC 'CODE'
_TEXT	ENDS
;	COMDAT ?erase@?$basic_string@DU?$char_traits@D@std@@V?$_DebugHeapAllocator@D@2@@std@@QAEAAV12@II@Z
_TEXT	SEGMENT PARA USE32 PUBLIC 'CODE'
_TEXT	ENDS
;	COMDAT ?size@?$basic_string@DU?$char_traits@D@std@@V?$_DebugHeapAllocator@D@2@@std@@QBEIXZ
_TEXT	SEGMENT PARA USE32 PUBLIC 'CODE'
_TEXT	ENDS
;	COMDAT ?_Eos@?$basic_string@DU?$char_traits@D@std@@V?$_DebugHeapAllocator@D@2@@std@@IAEXI@Z
_TEXT	SEGMENT PARA USE32 PUBLIC 'CODE'
_TEXT	ENDS
;	COMDAT ?_Grow@?$basic_string@DU?$char_traits@D@std@@V?$_DebugHeapAllocator@D@2@@std@@IAE_NI_N@Z
_TEXT	SEGMENT PARA USE32 PUBLIC 'CODE'
_TEXT	ENDS
;	COMDAT ?_Myptr@?$basic_string@DU?$char_traits@D@std@@V?$_DebugHeapAllocator@D@2@@std@@QAEPADXZ
_TEXT	SEGMENT PARA USE32 PUBLIC 'CODE'
_TEXT	ENDS
;	COMDAT ?deallocate@?$_DebugHeapAllocator@D@std@@QAEXPADI@Z
_TEXT	SEGMENT PARA USE32 PUBLIC 'CODE'
_TEXT	ENDS
;	COMDAT ?AllocateHeap@?$CTempBuffer@D$0IA@VCCRTAllocator@ATL@@@ATL@@AAEXI@Z
_TEXT	SEGMENT PARA USE32 PUBLIC 'CODE'
_TEXT	ENDS
;	COMDAT ?AllocateHeap@?$CTempBuffer@_W$0IA@VCCRTAllocator@ATL@@@ATL@@AAEXI@Z
_TEXT	SEGMENT PARA USE32 PUBLIC 'CODE'
_TEXT	ENDS
;	COMDAT ?AllocateHeap@?$CTempBuffer@D$0EAA@VCCRTAllocator@ATL@@@ATL@@AAEXI@Z
_TEXT	SEGMENT PARA USE32 PUBLIC 'CODE'
_TEXT	ENDS
;	COMDAT ?AllocateHeap@?$CTempBuffer@D$0BAA@VCCRTAllocator@ATL@@@ATL@@AAEXI@Z
_TEXT	SEGMENT PARA USE32 PUBLIC 'CODE'
_TEXT	ENDS
;	COMDAT ?AllocateHeap@?$CTempBuffer@E$0BAA@VCCRTAllocator@ATL@@@ATL@@AAEXI@Z
_TEXT	SEGMENT PARA USE32 PUBLIC 'CODE'
_TEXT	ENDS
;	COMDAT ??4?$CSimpleStringT@D$0A@@ATL@@QAEAAV01@PBD@Z
_TEXT	SEGMENT PARA USE32 PUBLIC 'CODE'
_TEXT	ENDS
;	COMDAT ?AppendChar@?$CSimpleStringT@D$0A@@ATL@@QAEXD@Z
_TEXT	SEGMENT PARA USE32 PUBLIC 'CODE'
_TEXT	ENDS
;	COMDAT ?GetBuffer@?$CSimpleStringT@D$0A@@ATL@@QAEPADH@Z
_TEXT	SEGMENT PARA USE32 PUBLIC 'CODE'
_TEXT	ENDS
;	COMDAT ?GetLength@?$CSimpleStringT@D$0A@@ATL@@QBEHXZ
_TEXT	SEGMENT PARA USE32 PUBLIC 'CODE'
_TEXT	ENDS
;	COMDAT ?ReleaseBufferSetLength@?$CSimpleStringT@D$0A@@ATL@@QAEXH@Z
_TEXT	SEGMENT PARA USE32 PUBLIC 'CODE'
_TEXT	ENDS
;	COMDAT ?Attach@?$CSimpleStringT@D$0A@@ATL@@AAEXPAUCStringData@2@@Z
_TEXT	SEGMENT PARA USE32 PUBLIC 'CODE'
_TEXT	ENDS
;	COMDAT ?GetData@?$CSimpleStringT@D$0A@@ATL@@ABEPAUCStringData@2@XZ
_TEXT	SEGMENT PARA USE32 PUBLIC 'CODE'
_TEXT	ENDS
;	COMDAT ?PrepareWrite2@?$CSimpleStringT@D$0A@@ATL@@AAEXH@Z
_TEXT	SEGMENT PARA USE32 PUBLIC 'CODE'
_TEXT	ENDS
;	COMDAT ?CloneData@?$CSimpleStringT@D$0A@@ATL@@CAPAUCStringData@2@PAU32@@Z
_TEXT	SEGMENT PARA USE32 PUBLIC 'CODE'
_TEXT	ENDS
;	COMDAT ?GetFormattedLength@?$ChTraitsCRT@D@ATL@@SAHPBDPAD@Z
_TEXT	SEGMENT PARA USE32 PUBLIC 'CODE'
_TEXT	ENDS
;	COMDAT ?Format@?$ChTraitsCRT@D@ATL@@SAHPADPBD0@Z
_TEXT	SEGMENT PARA USE32 PUBLIC 'CODE'
_TEXT	ENDS
;	COMDAT ?GetBaseTypeLength@?$ChTraitsCRT@D@ATL@@SAHPB_WH@Z
_TEXT	SEGMENT PARA USE32 PUBLIC 'CODE'
_TEXT	ENDS
;	COMDAT ?ConvertToBaseType@?$ChTraitsCRT@D@ATL@@SAXPADHPB_WH@Z
_TEXT	SEGMENT PARA USE32 PUBLIC 'CODE'
_TEXT	ENDS
;	COMDAT ??D?$istreambuf_iterator@DU?$char_traits@D@std@@@std@@QBEDXZ
_TEXT	SEGMENT PARA USE32 PUBLIC 'CODE'
_TEXT	ENDS
;	COMDAT ??E?$istreambuf_iterator@DU?$char_traits@D@std@@@std@@QAEAAV01@XZ
_TEXT	SEGMENT PARA USE32 PUBLIC 'CODE'
_TEXT	ENDS
;	COMDAT ??4?$ostreambuf_iterator@DU?$char_traits@D@std@@@std@@QAEAAV01@D@Z
_TEXT	SEGMENT PARA USE32 PUBLIC 'CODE'
_TEXT	ENDS
;	COMDAT ??D?$ostreambuf_iterator@DU?$char_traits@D@std@@@std@@QAEAAV01@XZ
_TEXT	SEGMENT PARA USE32 PUBLIC 'CODE'
_TEXT	ENDS
;	COMDAT ??E?$ostreambuf_iterator@DU?$char_traits@D@std@@@std@@QAEAAV01@XZ
_TEXT	SEGMENT PARA USE32 PUBLIC 'CODE'
_TEXT	ENDS
;	COMDAT ??D?$istreambuf_iterator@_WU?$char_traits@_W@std@@@std@@QBE_WXZ
_TEXT	SEGMENT PARA USE32 PUBLIC 'CODE'
_TEXT	ENDS
;	COMDAT ??E?$istreambuf_iterator@_WU?$char_traits@_W@std@@@std@@QAEAAV01@XZ
_TEXT	SEGMENT PARA USE32 PUBLIC 'CODE'
_TEXT	ENDS
;	COMDAT ??4?$ostreambuf_iterator@_WU?$char_traits@_W@std@@@std@@QAEAAV01@_W@Z
_TEXT	SEGMENT PARA USE32 PUBLIC 'CODE'
_TEXT	ENDS
;	COMDAT ??D?$ostreambuf_iterator@_WU?$char_traits@_W@std@@@std@@QAEAAV01@XZ
_TEXT	SEGMENT PARA USE32 PUBLIC 'CODE'
_TEXT	ENDS
;	COMDAT ??E?$ostreambuf_iterator@_WU?$char_traits@_W@std@@@std@@QAEAAV01@XZ
_TEXT	SEGMENT PARA USE32 PUBLIC 'CODE'
_TEXT	ENDS
;	COMDAT ??0_Sentry_base@?$basic_ostream@DU?$char_traits@D@std@@@std@@QAE@AAV12@@Z
_TEXT	SEGMENT PARA USE32 PUBLIC 'CODE'
_TEXT	ENDS
;	COMDAT ??1_Sentry_base@?$basic_ostream@DU?$char_traits@D@std@@@std@@QAE@XZ
_TEXT	SEGMENT PARA USE32 PUBLIC 'CODE'
_TEXT	ENDS
;	COMDAT ??0_Sentry_base@?$basic_ostream@_WU?$char_traits@_W@std@@@std@@QAE@AAV12@@Z
_TEXT	SEGMENT PARA USE32 PUBLIC 'CODE'
_TEXT	ENDS
;	COMDAT ??1_Sentry_base@?$basic_ostream@_WU?$char_traits@_W@std@@@std@@QAE@XZ
_TEXT	SEGMENT PARA USE32 PUBLIC 'CODE'
_TEXT	ENDS
;	COMDAT ??0?$Wrapper@PAD@?$CSimpleMap@PADPA_WVCExpansionVectorEqualHelper@ATL@@@ATL@@QAE@ABQAD@Z
_TEXT	SEGMENT PARA USE32 PUBLIC 'CODE'
_TEXT	ENDS
;	COMDAT ??0?$Wrapper@PA_W@?$CSimpleMap@PADPA_WVCExpansionVectorEqualHelper@ATL@@@ATL@@QAE@ABQA_W@Z
_TEXT	SEGMENT PARA USE32 PUBLIC 'CODE'
_TEXT	ENDS
;	COMDAT ?deallocate@?$allocator@_W@std@@QAEXPA_WI@Z
_TEXT	SEGMENT PARA USE32 PUBLIC 'CODE'
_TEXT	ENDS
;	COMDAT ?max_size@?$basic_string@DU?$char_traits@D@std@@V?$_DebugHeapAllocator@D@2@@std@@QBEIXZ
_TEXT	SEGMENT PARA USE32 PUBLIC 'CODE'
_TEXT	ENDS
;	COMDAT ?_Copy@?$basic_string@DU?$char_traits@D@std@@V?$_DebugHeapAllocator@D@2@@std@@IAEXII@Z
_TEXT	SEGMENT PARA USE32 PUBLIC 'CODE'
_TEXT	ENDS
;	COMDAT ?_Inside@?$basic_string@DU?$char_traits@D@std@@V?$_DebugHeapAllocator@D@2@@std@@IAE_NPBD@Z
_TEXT	SEGMENT PARA USE32 PUBLIC 'CODE'
_TEXT	ENDS
;	COMDAT ?SetString@?$CSimpleStringT@D$0A@@ATL@@QAEXPBD@Z
_TEXT	SEGMENT PARA USE32 PUBLIC 'CODE'
_TEXT	ENDS
;	COMDAT ?CopyChars@?$CSimpleStringT@D$0A@@ATL@@SAXPADPBDH@Z
_TEXT	SEGMENT PARA USE32 PUBLIC 'CODE'
_TEXT	ENDS
;	COMDAT ?ThrowMemoryException@?$CSimpleStringT@D$0A@@ATL@@KAXXZ
_TEXT	SEGMENT PARA USE32 PUBLIC 'CODE'
_TEXT	ENDS
;	COMDAT ?Fork@?$CSimpleStringT@D$0A@@ATL@@AAEXH@Z
_TEXT	SEGMENT PARA USE32 PUBLIC 'CODE'
_TEXT	ENDS
;	COMDAT ?Reallocate@?$CSimpleStringT@D$0A@@ATL@@AAEXH@Z
_TEXT	SEGMENT PARA USE32 PUBLIC 'CODE'
_TEXT	ENDS
;	COMDAT ?SetLength@?$CSimpleStringT@D$0A@@ATL@@AAEXH@Z
_TEXT	SEGMENT PARA USE32 PUBLIC 'CODE'
_TEXT	ENDS
;	COMDAT ?_Inc@?$istreambuf_iterator@DU?$char_traits@D@std@@@std@@AAEXXZ
_TEXT	SEGMENT PARA USE32 PUBLIC 'CODE'
_TEXT	ENDS
;	COMDAT ?_Peek@?$istreambuf_iterator@DU?$char_traits@D@std@@@std@@AAEDXZ
_TEXT	SEGMENT PARA USE32 PUBLIC 'CODE'
_TEXT	ENDS
;	COMDAT ?_Inc@?$istreambuf_iterator@_WU?$char_traits@_W@std@@@std@@AAEXXZ
_TEXT	SEGMENT PARA USE32 PUBLIC 'CODE'
_TEXT	ENDS
;	COMDAT ?_Peek@?$istreambuf_iterator@_WU?$char_traits@_W@std@@@std@@AAE_WXZ
_TEXT	SEGMENT PARA USE32 PUBLIC 'CODE'
_TEXT	ENDS
;	COMDAT ?allocate@?$allocator@D@std@@QAEPADI@Z
_TEXT	SEGMENT PARA USE32 PUBLIC 'CODE'
_TEXT	ENDS
;	COMDAT ?max_size@?$allocator@D@std@@QBEIXZ
_TEXT	SEGMENT PARA USE32 PUBLIC 'CODE'
_TEXT	ENDS
;	COMDAT ?allocate@?$_DebugHeapAllocator@D@std@@QAEPADI@Z
_TEXT	SEGMENT PARA USE32 PUBLIC 'CODE'
_TEXT	ENDS
;	COMDAT ?SetString@?$CSimpleStringT@D$0A@@ATL@@QAEXPBDH@Z
_TEXT	SEGMENT PARA USE32 PUBLIC 'CODE'
_TEXT	ENDS
;	COMDAT ?StringLength@?$CSimpleStringT@D$0A@@ATL@@SAHPBD@Z
_TEXT	SEGMENT PARA USE32 PUBLIC 'CODE'
_TEXT	ENDS
;	COMDAT ?allocate@?$allocator@_W@std@@QAEPA_WI@Z
_TEXT	SEGMENT PARA USE32 PUBLIC 'CODE'
_TEXT	ENDS
;	COMDAT ?max_size@?$allocator@_W@std@@QBEIXZ
_TEXT	SEGMENT PARA USE32 PUBLIC 'CODE'
_TEXT	ENDS
;	COMDAT ?Empty@?$CSimpleStringT@D$0A@@ATL@@QAEXXZ
_TEXT	SEGMENT PARA USE32 PUBLIC 'CODE'
_TEXT	ENDS
;	COMDAT ?GetString@?$CSimpleStringT@D$0A@@ATL@@QBEPBDXZ
_TEXT	SEGMENT PARA USE32 PUBLIC 'CODE'
_TEXT	ENDS
;	COMDAT ?CopyCharsOverlapped@?$CSimpleStringT@D$0A@@ATL@@SAXPADPBDH@Z
_TEXT	SEGMENT PARA USE32 PUBLIC 'CODE'
_TEXT	ENDS
;	COMDAT ??$_DebugHeapDelete@Vfacet@locale@std@@@std@@YAXPAVfacet@locale@0@@Z
_TEXT	SEGMENT PARA USE32 PUBLIC 'CODE'
_TEXT	ENDS
;	COMDAT ??$use_facet@V?$ctype@D@std@@@std@@YAABV?$ctype@D@0@ABVlocale@0@@Z
_TEXT	SEGMENT PARA USE32 PUBLIC 'CODE'
_TEXT	ENDS
;	COMDAT ??$use_facet@V?$ctype@_W@std@@@std@@YAABV?$ctype@_W@0@ABVlocale@0@@Z
_TEXT	SEGMENT PARA USE32 PUBLIC 'CODE'
_TEXT	ENDS
;	COMDAT ??$?HDU?$char_traits@D@std@@V?$allocator@D@1@@std@@YA?AV?$basic_string@DU?$char_traits@D@std@@V?$allocator@D@2@@0@ABV10@0@Z
_TEXT	SEGMENT PARA USE32 PUBLIC 'CODE'
_TEXT	ENDS
;	COMDAT ??$?HDU?$char_traits@D@std@@V?$allocator@D@1@@std@@YA?AV?$basic_string@DU?$char_traits@D@std@@V?$allocator@D@2@@0@PBDABV10@@Z
_TEXT	SEGMENT PARA USE32 PUBLIC 'CODE'
_TEXT	ENDS
;	COMDAT ??$?HDU?$char_traits@D@std@@V?$allocator@D@1@@std@@YA?AV?$basic_string@DU?$char_traits@D@std@@V?$allocator@D@2@@0@DABV10@@Z
_TEXT	SEGMENT PARA USE32 PUBLIC 'CODE'
_TEXT	ENDS
;	COMDAT ??$?HDU?$char_traits@D@std@@V?$allocator@D@1@@std@@YA?AV?$basic_string@DU?$char_traits@D@std@@V?$allocator@D@2@@0@ABV10@PBD@Z
_TEXT	SEGMENT PARA USE32 PUBLIC 'CODE'
_TEXT	ENDS
;	COMDAT ??$?HDU?$char_traits@D@std@@V?$allocator@D@1@@std@@YA?AV?$basic_string@DU?$char_traits@D@std@@V?$allocator@D@2@@0@ABV10@D@Z
_TEXT	SEGMENT PARA USE32 PUBLIC 'CODE'
_TEXT	ENDS
;	COMDAT ??$?H_WU?$char_traits@_W@std@@V?$allocator@_W@1@@std@@YA?AV?$basic_string@_WU?$char_traits@_W@std@@V?$allocator@_W@2@@0@ABV10@0@Z
_TEXT	SEGMENT PARA USE32 PUBLIC 'CODE'
_TEXT	ENDS
;	COMDAT ??$?H_WU?$char_traits@_W@std@@V?$allocator@_W@1@@std@@YA?AV?$basic_string@_WU?$char_traits@_W@std@@V?$allocator@_W@2@@0@PB_WABV10@@Z
_TEXT	SEGMENT PARA USE32 PUBLIC 'CODE'
_TEXT	ENDS
;	COMDAT ??$?H_WU?$char_traits@_W@std@@V?$allocator@_W@1@@std@@YA?AV?$basic_string@_WU?$char_traits@_W@std@@V?$allocator@_W@2@@0@_WABV10@@Z
_TEXT	SEGMENT PARA USE32 PUBLIC 'CODE'
_TEXT	ENDS
;	COMDAT ??$?H_WU?$char_traits@_W@std@@V?$allocator@_W@1@@std@@YA?AV?$basic_string@_WU?$char_traits@_W@std@@V?$allocator@_W@2@@0@ABV10@PB_W@Z
_TEXT	SEGMENT PARA USE32 PUBLIC 'CODE'
_TEXT	ENDS
;	COMDAT ??$?H_WU?$char_traits@_W@std@@V?$allocator@_W@1@@std@@YA?AV?$basic_string@_WU?$char_traits@_W@std@@V?$allocator@_W@2@@0@ABV10@_W@Z
_TEXT	SEGMENT PARA USE32 PUBLIC 'CODE'
_TEXT	ENDS
;	COMDAT ??$?5DU?$char_traits@D@std@@V?$allocator@D@1@@std@@YAAAV?$basic_istream@DU?$char_traits@D@std@@@0@AAV10@AAV?$basic_string@DU?$char_traits@D@std@@V?$allocator@D@2@@0@@Z
_TEXT	SEGMENT PARA USE32 PUBLIC 'CODE'
_TEXT	ENDS
;	COMDAT ??$getline@DU?$char_traits@D@std@@V?$allocator@D@2@@std@@YAAAV?$basic_istream@DU?$char_traits@D@std@@@0@AAV10@AAV?$basic_string@DU?$char_traits@D@std@@V?$allocator@D@2@@0@@Z
_TEXT	SEGMENT PARA USE32 PUBLIC 'CODE'
_TEXT	ENDS
;	COMDAT ??$getline@DU?$char_traits@D@std@@V?$allocator@D@2@@std@@YAAAV?$basic_istream@DU?$char_traits@D@std@@@0@AAV10@AAV?$basic_string@DU?$char_traits@D@std@@V?$allocator@D@2@@0@D@Z
_TEXT	SEGMENT PARA USE32 PUBLIC 'CODE'
_TEXT	ENDS
;	COMDAT ??$?6DU?$char_traits@D@std@@V?$allocator@D@1@@std@@YAAAV?$basic_ostream@DU?$char_traits@D@std@@@0@AAV10@ABV?$basic_string@DU?$char_traits@D@std@@V?$allocator@D@2@@0@@Z
_TEXT	SEGMENT PARA USE32 PUBLIC 'CODE'
_TEXT	ENDS
;	COMDAT ??$?5_WU?$char_traits@_W@std@@V?$allocator@_W@1@@std@@YAAAV?$basic_istream@_WU?$char_traits@_W@std@@@0@AAV10@AAV?$basic_string@_WU?$char_traits@_W@std@@V?$allocator@_W@2@@0@@Z
_TEXT	SEGMENT PARA USE32 PUBLIC 'CODE'
_TEXT	ENDS
;	COMDAT ??$getline@_WU?$char_traits@_W@std@@V?$allocator@_W@2@@std@@YAAAV?$basic_istream@_WU?$char_traits@_W@std@@@0@AAV10@AAV?$basic_string@_WU?$char_traits@_W@std@@V?$allocator@_W@2@@0@@Z
_TEXT	SEGMENT PARA USE32 PUBLIC 'CODE'
_TEXT	ENDS
;	COMDAT ??$getline@_WU?$char_traits@_W@std@@V?$allocator@_W@2@@std@@YAAAV?$basic_istream@_WU?$char_traits@_W@std@@@0@AAV10@AAV?$basic_string@_WU?$char_traits@_W@std@@V?$allocator@_W@2@@0@_W@Z
_TEXT	SEGMENT PARA USE32 PUBLIC 'CODE'
_TEXT	ENDS
;	COMDAT ??$?6_WU?$char_traits@_W@std@@V?$allocator@_W@1@@std@@YAAAV?$basic_ostream@_WU?$char_traits@_W@std@@@0@AAV10@ABV?$basic_string@_WU?$char_traits@_W@std@@V?$allocator@_W@2@@0@@Z
_TEXT	SEGMENT PARA USE32 PUBLIC 'CODE'
_TEXT	ENDS
;	COMDAT ??0?$CComCritSecLock@VCComCriticalSection@ATL@@@ATL@@QAE@AAVCComCriticalSection@1@_N@Z
_TEXT	SEGMENT PARA USE32 PUBLIC 'CODE'
_TEXT	ENDS
;	COMDAT ??1?$CComCritSecLock@VCComCriticalSection@ATL@@@ATL@@QAE@XZ
_TEXT	SEGMENT PARA USE32 PUBLIC 'CODE'
_TEXT	ENDS
;	COMDAT ?Lock@?$CComCritSecLock@VCComCriticalSection@ATL@@@ATL@@QAEJXZ
_TEXT	SEGMENT PARA USE32 PUBLIC 'CODE'
_TEXT	ENDS
;	COMDAT ??$AtlAlignUp@H@ATL@@YGHHK@Z
_TEXT	SEGMENT PARA USE32 PUBLIC 'CODE'
_TEXT	ENDS
;	COMDAT ??$_DebugHeapDelete@Vlocale@std@@@std@@YAXPAVlocale@0@@Z
_TEXT	SEGMENT PARA USE32 PUBLIC 'CODE'
_TEXT	ENDS
;	COMDAT ??$use_facet@V?$numpunct@D@std@@@std@@YAABV?$numpunct@D@0@ABVlocale@0@@Z
_TEXT	SEGMENT PARA USE32 PUBLIC 'CODE'
_TEXT	ENDS
;	COMDAT ??$_Getloctxt@DV?$istreambuf_iterator@DU?$char_traits@D@std@@@std@@@std@@YAHAAV?$istreambuf_iterator@DU?$char_traits@D@std@@@0@0IPBD@Z
_TEXT	SEGMENT PARA USE32 PUBLIC 'CODE'
_TEXT	ENDS
;	COMDAT ??$?8DU?$char_traits@D@std@@@std@@YA_NABV?$istreambuf_iterator@DU?$char_traits@D@std@@@0@0@Z
_TEXT	SEGMENT PARA USE32 PUBLIC 'CODE'
_TEXT	ENDS
;	COMDAT ??$use_facet@V?$numpunct@_W@std@@@std@@YAABV?$numpunct@_W@0@ABVlocale@0@@Z
_TEXT	SEGMENT PARA USE32 PUBLIC 'CODE'
_TEXT	ENDS
;	COMDAT ??$_Getloctxt@_WV?$istreambuf_iterator@_WU?$char_traits@_W@std@@@std@@@std@@YAHAAV?$istreambuf_iterator@_WU?$char_traits@_W@std@@@0@0IPB_W@Z
_TEXT	SEGMENT PARA USE32 PUBLIC 'CODE'
_TEXT	ENDS
;	COMDAT ??$?8_WU?$char_traits@_W@std@@@std@@YA_NABV?$istreambuf_iterator@_WU?$char_traits@_W@std@@@0@0@Z
_TEXT	SEGMENT PARA USE32 PUBLIC 'CODE'
_TEXT	ENDS
;	COMDAT ??$_DebugHeapDelete@X@std@@YAXPAX@Z
_TEXT	SEGMENT PARA USE32 PUBLIC 'CODE'
_TEXT	ENDS
;	COMDAT ??$_Maklocchr@D@std@@YADDPADABU_Cvtvec@@@Z
_TEXT	SEGMENT PARA USE32 PUBLIC 'CODE'
_TEXT	ENDS
;	COMDAT ??$?9DU?$char_traits@D@std@@@std@@YA_NABV?$istreambuf_iterator@DU?$char_traits@D@std@@@0@0@Z
_TEXT	SEGMENT PARA USE32 PUBLIC 'CODE'
_TEXT	ENDS
;	COMDAT ??$_Maklocbyte@D@std@@YADDABU_Cvtvec@@@Z
_TEXT	SEGMENT PARA USE32 PUBLIC 'CODE'
_TEXT	ENDS
;	COMDAT ??$?9_WU?$char_traits@_W@std@@@std@@YA_NABV?$istreambuf_iterator@_WU?$char_traits@_W@std@@@0@0@Z
_TEXT	SEGMENT PARA USE32 PUBLIC 'CODE'
_TEXT	ENDS
;	COMDAT ??$?2PAD@?$Wrapper@PAD@?$CSimpleMap@PADPA_WVCExpansionVectorEqualHelper@ATL@@@ATL@@SAPAXIPAPAD@Z
_TEXT	SEGMENT PARA USE32 PUBLIC 'CODE'
_TEXT	ENDS
;	COMDAT ??$?3PAD@?$Wrapper@PAD@?$CSimpleMap@PADPA_WVCExpansionVectorEqualHelper@ATL@@@ATL@@SAXPAXPAPAD@Z
_TEXT	SEGMENT PARA USE32 PUBLIC 'CODE'
_TEXT	ENDS
;	COMDAT ??$?2PA_W@?$Wrapper@PA_W@?$CSimpleMap@PADPA_WVCExpansionVectorEqualHelper@ATL@@@ATL@@SAPAXIPAPA_W@Z
_TEXT	SEGMENT PARA USE32 PUBLIC 'CODE'
_TEXT	ENDS
;	COMDAT ??$?3PA_W@?$Wrapper@PA_W@?$CSimpleMap@PADPA_WVCExpansionVectorEqualHelper@ATL@@@ATL@@SAXPAXPAPA_W@Z
_TEXT	SEGMENT PARA USE32 PUBLIC 'CODE'
_TEXT	ENDS
;	COMDAT ??$_Allocate@D@std@@YAPADIPAD@Z
_TEXT	SEGMENT PARA USE32 PUBLIC 'CODE'
_TEXT	ENDS
;	COMDAT ??$_Allocate@_W@std@@YAPA_WIPA_W@Z
_TEXT	SEGMENT PARA USE32 PUBLIC 'CODE'
_TEXT	ENDS
;	COMDAT ??_Glocale@std@@QAEPAXI@Z
_TEXT	SEGMENT PARA USE32 PUBLIC 'CODE'
_TEXT	ENDS
;	COMDAT ?equal@?$istreambuf_iterator@DU?$char_traits@D@std@@@std@@QBE_NABV12@@Z
_TEXT	SEGMENT PARA USE32 PUBLIC 'CODE'
_TEXT	ENDS
;	COMDAT ?equal@?$istreambuf_iterator@_WU?$char_traits@_W@std@@@std@@QBE_NABV12@@Z
_TEXT	SEGMENT PARA USE32 PUBLIC 'CODE'
_TEXT	ENDS
;	COMDAT ?Unlock@?$CComCritSecLock@VCComCriticalSection@ATL@@@ATL@@QAEXXZ
_TEXT	SEGMENT PARA USE32 PUBLIC 'CODE'
_TEXT	ENDS
;	COMDAT ??$_Maklocstr@D@std@@YAPADPBDPADABU_Cvtvec@@@Z
_TEXT	SEGMENT PARA USE32 PUBLIC 'CODE'
_TEXT	ENDS
;	COMDAT ??_R4out_of_range@std@@6B@
rdata$r	SEGMENT DWORD USE32 PUBLIC 'CONST'
rdata$r	ENDS
;	COMDAT ??_R0?AVout_of_range@std@@@8
_DATA	SEGMENT DWORD USE32 PUBLIC 'DATA'
_DATA	ENDS
;	COMDAT __GUID_00020400_0000_0000_c000_000000000046
CONST	SEGMENT DWORD USE32 PUBLIC 'CONST'
CONST	ENDS
;	COMDAT ??_R0?AVCWin32Heap@ATL@@@8
_DATA	SEGMENT DWORD USE32 PUBLIC 'DATA'
_DATA	ENDS
;	COMDAT ??_R4IFixedStringLog@ATL@@6B@
rdata$r	SEGMENT DWORD USE32 PUBLIC 'CONST'
rdata$r	ENDS
;	COMDAT ??_R3?$ctype@D@std@@8
rdata$r	SEGMENT DWORD USE32 PUBLIC 'CONST'
rdata$r	ENDS
;	COMDAT ??_R3CAtlStringMgr@ATL@@8
rdata$r	SEGMENT DWORD USE32 PUBLIC 'CONST'
rdata$r	ENDS
;	COMDAT ??_R1A@?0A@A@overflow_error@std@@8
rdata$r	SEGMENT DWORD USE32 PUBLIC 'CONST'
rdata$r	ENDS
;	COMDAT ??_R1A@?0A@A@out_of_range@std@@8
rdata$r	SEGMENT DWORD USE32 PUBLIC 'CONST'
rdata$r	ENDS
;	COMDAT ??_R1A@?0A@A@?$numpunct@D@std@@8
rdata$r	SEGMENT DWORD USE32 PUBLIC 'CONST'
rdata$r	ENDS
;	COMDAT ?szThreadingModel@?1??RegisterClassHelper@CComModule@ATL@@QAGJABU_GUID@@PBD11K@Z@4QBDB
CONST	SEGMENT DWORD USE32 PUBLIC 'CONST'
CONST	ENDS
;	COMDAT __GUID_00000000_0000_0000_c000_000000000046
CONST	SEGMENT DWORD USE32 PUBLIC 'CONST'
CONST	ENDS
;	COMDAT ??_R2domain_error@std@@8
rdata$r	SEGMENT DWORD USE32 PUBLIC 'CONST'
rdata$r	ENDS
;	COMDAT ??_R1A@?0A@A@facet@locale@std@@8
rdata$r	SEGMENT DWORD USE32 PUBLIC 'CONST'
rdata$r	ENDS
;	COMDAT __GUID_0002e012_0000_0000_c000_000000000046
CONST	SEGMENT DWORD USE32 PUBLIC 'CONST'
CONST	ENDS
;	COMDAT ??_R0?AVdomain_error@std@@@8
_DATA	SEGMENT DWORD USE32 PUBLIC 'DATA'
_DATA	ENDS
;	COMDAT ??_R3underflow_error@std@@8
rdata$r	SEGMENT DWORD USE32 PUBLIC 'CONST'
rdata$r	ENDS
;	COMDAT ??_R0?AV?$numpunct@_W@std@@@8
_DATA	SEGMENT DWORD USE32 PUBLIC 'DATA'
_DATA	ENDS
;	COMDAT ??_R1A@?0A@A@CComModule@ATL@@8
rdata$r	SEGMENT DWORD USE32 PUBLIC 'CONST'
rdata$r	ENDS
;	COMDAT ?s_bWin9x@?1??_AtlInstallStringThunk@ATL@@YAXPAPAXPAX1@Z@4_NA
_BSS	SEGMENT DWORD USE32 PUBLIC 'BSS'
_BSS	ENDS
;	COMDAT ??_R0?AVrange_error@std@@@8
_DATA	SEGMENT DWORD USE32 PUBLIC 'DATA'
_DATA	ENDS
;	COMDAT ?szBoth@?1??RegisterClassHelper@CComModule@ATL@@QAGJABU_GUID@@PBD11K@Z@4QBDB
CONST	SEGMENT DWORD USE32 PUBLIC 'CONST'
CONST	ENDS
;	COMDAT ??_R2?$numpunct@D@std@@8
rdata$r	SEGMENT DWORD USE32 PUBLIC 'CONST'
rdata$r	ENDS
;	COMDAT ??_R1A@?0A@A@codecvt_base@std@@8
rdata$r	SEGMENT DWORD USE32 PUBLIC 'CONST'
rdata$r	ENDS
;	COMDAT ??_R4CComModule@ATL@@6B@
rdata$r	SEGMENT DWORD USE32 PUBLIC 'CONST'
rdata$r	ENDS
;	COMDAT ??_R2length_error@std@@8
rdata$r	SEGMENT DWORD USE32 PUBLIC 'CONST'
rdata$r	ENDS
;	COMDAT ??_R2runtime_error@std@@8
rdata$r	SEGMENT DWORD USE32 PUBLIC 'CONST'
rdata$r	ENDS
;	COMDAT ??_R0?AVCAtlModule@ATL@@@8
_DATA	SEGMENT DWORD USE32 PUBLIC 'DATA'
_DATA	ENDS
;	COMDAT ??_R3?$CAtlAutoThreadModuleT@VCAtlAutoThreadModule@ATL@@VCComSimpleThreadAllocator@2@$0PPPPPPPP@@ATL@@8
rdata$r	SEGMENT DWORD USE32 PUBLIC 'CONST'
rdata$r	ENDS
;	COMDAT ??_R3CRegObject@ATL@@8
rdata$r	SEGMENT DWORD USE32 PUBLIC 'CONST'
rdata$r	ENDS
;	COMDAT ??_R2failure@ios_base@std@@8
rdata$r	SEGMENT DWORD USE32 PUBLIC 'CONST'
rdata$r	ENDS
;	COMDAT ??_R1A@?0A@A@bad_alloc@std@@8
rdata$r	SEGMENT DWORD USE32 PUBLIC 'CONST'
rdata$r	ENDS
;	COMDAT ??_R4?$numpunct@D@std@@6B@
rdata$r	SEGMENT DWORD USE32 PUBLIC 'CONST'
rdata$r	ENDS
;	COMDAT ??_R0?AVcodecvt_base@std@@@8
_DATA	SEGMENT DWORD USE32 PUBLIC 'DATA'
_DATA	ENDS
;	COMDAT ??_R0?AVCFixedStringLog@ATL@@@8
_DATA	SEGMENT DWORD USE32 PUBLIC 'DATA'
_DATA	ENDS
;	COMDAT ??_R2bad_alloc@std@@8
rdata$r	SEGMENT DWORD USE32 PUBLIC 'CONST'
rdata$r	ENDS
;	COMDAT ??_R2?$ctype@_W@std@@8
rdata$r	SEGMENT DWORD USE32 PUBLIC 'CONST'
rdata$r	ENDS
;	COMDAT ??_R0?AU_ATL_MODULE70@ATL@@@8
_DATA	SEGMENT DWORD USE32 PUBLIC 'DATA'
_DATA	ENDS
;	COMDAT ??_R0?AV?$codecvt@_WDH@std@@@8
_DATA	SEGMENT DWORD USE32 PUBLIC 'DATA'
_DATA	ENDS
;	COMDAT ??_R1A@?0A@A@exception@@8
rdata$r	SEGMENT DWORD USE32 PUBLIC 'CONST'
rdata$r	ENDS
;	COMDAT __CT??_R0?AVexception@@@8??0exception@@QAE@ABV0@@Z12
xdata$x	SEGMENT DWORD USE32 PUBLIC 'CONST'
xdata$x	ENDS
;	COMDAT ??_R1A@?0A@A@?$codecvt@_WDH@std@@8
rdata$r	SEGMENT DWORD USE32 PUBLIC 'CONST'
rdata$r	ENDS
;	COMDAT ??_R0?AUIAtlMemMgr@ATL@@@8
_DATA	SEGMENT DWORD USE32 PUBLIC 'DATA'
_DATA	ENDS
;	COMDAT ??_R3CWin32Heap@ATL@@8
rdata$r	SEGMENT DWORD USE32 PUBLIC 'CONST'
rdata$r	ENDS
;	COMDAT ??_R4underflow_error@std@@6B@
rdata$r	SEGMENT DWORD USE32 PUBLIC 'CONST'
rdata$r	ENDS
;	COMDAT ??_R1A@?0A@A@IRegistrarBase@@8
rdata$r	SEGMENT DWORD USE32 PUBLIC 'CONST'
rdata$r	ENDS
;	COMDAT ??_R2overflow_error@std@@8
rdata$r	SEGMENT DWORD USE32 PUBLIC 'CONST'
rdata$r	ENDS
;	COMDAT ??_R0?AV?$CAtlAutoThreadModuleT@VCAtlAutoThreadModule@ATL@@VCComSimpleThreadAllocator@2@$0PPPPPPPP@@ATL@@@8
_DATA	SEGMENT DWORD USE32 PUBLIC 'DATA'
_DATA	ENDS
;	COMDAT ??_R3IUnknown@@8
rdata$r	SEGMENT DWORD USE32 PUBLIC 'CONST'
rdata$r	ENDS
;	COMDAT ??_R4length_error@std@@6B@
rdata$r	SEGMENT DWORD USE32 PUBLIC 'CONST'
rdata$r	ENDS
;	COMDAT ??_R1A@?0A@A@range_error@std@@8
rdata$r	SEGMENT DWORD USE32 PUBLIC 'CONST'
rdata$r	ENDS
;	COMDAT ??_R4CFixedStringMgr@ATL@@6B@
rdata$r	SEGMENT DWORD USE32 PUBLIC 'CONST'
rdata$r	ENDS
;	COMDAT ??_R4?$ctype@D@std@@6B@
rdata$r	SEGMENT DWORD USE32 PUBLIC 'CONST'
rdata$r	ENDS
;	COMDAT ??_R0?AV?$ctype@_W@std@@@8
_DATA	SEGMENT DWORD USE32 PUBLIC 'DATA'
_DATA	ENDS
;	COMDAT ??_R3invalid_argument@std@@8
rdata$r	SEGMENT DWORD USE32 PUBLIC 'CONST'
rdata$r	ENDS
;	COMDAT ??_R0?AVfailure@ios_base@std@@@8
_DATA	SEGMENT DWORD USE32 PUBLIC 'DATA'
_DATA	ENDS
;	COMDAT ??_R3overflow_error@std@@8
rdata$r	SEGMENT DWORD USE32 PUBLIC 'CONST'
rdata$r	ENDS
;	COMDAT ??_R2out_of_range@std@@8
rdata$r	SEGMENT DWORD USE32 PUBLIC 'CONST'
rdata$r	ENDS
;	COMDAT _IID_IAxWinHostWindow
CONST	SEGMENT DWORD USE32 PUBLIC 'CONST'
CONST	ENDS
;	COMDAT ?szAUTPRX32@?1??RegisterClassHelper@CComModule@ATL@@QAGJABU_GUID@@PBD11K@Z@4QBDB
CONST	SEGMENT DWORD USE32 PUBLIC 'CONST'
CONST	ENDS
;	COMDAT ??_R0?AVruntime_error@std@@@8
_DATA	SEGMENT DWORD USE32 PUBLIC 'DATA'
_DATA	ENDS
;	COMDAT ??_R0?AVCRegObject@ATL@@@8
_DATA	SEGMENT DWORD USE32 PUBLIC 'DATA'
_DATA	ENDS
;	COMDAT ??_R4overflow_error@std@@6B@
rdata$r	SEGMENT DWORD USE32 PUBLIC 'CONST'
rdata$r	ENDS
;	COMDAT __TI2?AVbad_cast@@
xdata$x	SEGMENT DWORD USE32 PUBLIC 'CONST'
xdata$x	ENDS
;	COMDAT ??_R1A@?0A@A@IAtlMemMgr@ATL@@8
rdata$r	SEGMENT DWORD USE32 PUBLIC 'CONST'
rdata$r	ENDS
;	COMDAT ??_R0?AVunderflow_error@std@@@8
_DATA	SEGMENT DWORD USE32 PUBLIC 'DATA'
_DATA	ENDS
;	COMDAT ??_R3runtime_error@std@@8
rdata$r	SEGMENT DWORD USE32 PUBLIC 'CONST'
rdata$r	ENDS
;	COMDAT ??_R3CFixedStringMgr@ATL@@8
rdata$r	SEGMENT DWORD USE32 PUBLIC 'CONST'
rdata$r	ENDS
;	COMDAT _IID_IAxWinHostWindowLic
CONST	SEGMENT DWORD USE32 PUBLIC 'CONST'
CONST	ENDS
;	COMDAT ??_R0?AV?$ctype@D@std@@@8
_DATA	SEGMENT DWORD USE32 PUBLIC 'DATA'
_DATA	ENDS
;	COMDAT ??_B?1??_AtlInstallStringThunk@ATL@@YAXPAPAXPAX1@Z@51
_BSS	SEGMENT DWORD USE32 PUBLIC 'BSS'
_BSS	ENDS
;	COMDAT ??_R2IFixedStringLog@ATL@@8
rdata$r	SEGMENT DWORD USE32 PUBLIC 'CONST'
rdata$r	ENDS
;	COMDAT ??_R1A@?0A@A@IAtlAutoThreadModule@ATL@@8
rdata$r	SEGMENT DWORD USE32 PUBLIC 'CONST'
rdata$r	ENDS
;	COMDAT _CLSID_Registrar
CONST	SEGMENT DWORD USE32 PUBLIC 'CONST'
CONST	ENDS
;	COMDAT ??_R2CAtlStringMgr@ATL@@8
rdata$r	SEGMENT DWORD USE32 PUBLIC 'CONST'
rdata$r	ENDS
;	COMDAT ??_R2CAtlModule@ATL@@8
rdata$r	SEGMENT DWORD USE32 PUBLIC 'CONST'
rdata$r	ENDS
;	COMDAT ??_R0?AVIFixedStringLog@ATL@@@8
_DATA	SEGMENT DWORD USE32 PUBLIC 'DATA'
_DATA	ENDS
;	COMDAT ??_R4domain_error@std@@6B@
rdata$r	SEGMENT DWORD USE32 PUBLIC 'CONST'
rdata$r	ENDS
;	COMDAT ??_R0?AV?$CAtlModuleT@VCComModule@ATL@@@ATL@@@8
_DATA	SEGMENT DWORD USE32 PUBLIC 'DATA'
_DATA	ENDS
;	COMDAT ??_R4CWin32Heap@ATL@@6B@
rdata$r	SEGMENT DWORD USE32 PUBLIC 'CONST'
rdata$r	ENDS
;	COMDAT ??_R2IUnknown@@8
rdata$r	SEGMENT DWORD USE32 PUBLIC 'CONST'
rdata$r	ENDS
;	COMDAT ??_R4?$CAtlAutoThreadModuleT@VCAtlAutoThreadModule@ATL@@VCComSimpleThreadAllocator@2@$0PPPPPPPP@@ATL@@6B@
rdata$r	SEGMENT DWORD USE32 PUBLIC 'CONST'
rdata$r	ENDS
;	COMDAT ??_R4?$CAtlModuleT@VCComModule@ATL@@@ATL@@6B@
rdata$r	SEGMENT DWORD USE32 PUBLIC 'CONST'
rdata$r	ENDS
;	COMDAT ??_R3bad_exception@std@@8
rdata$r	SEGMENT DWORD USE32 PUBLIC 'CONST'
rdata$r	ENDS
;	COMDAT ??_R1A@?0A@A@?$numpunct@_W@std@@8
rdata$r	SEGMENT DWORD USE32 PUBLIC 'CONST'
rdata$r	ENDS
;	COMDAT ??_R2range_error@std@@8
rdata$r	SEGMENT DWORD USE32 PUBLIC 'CONST'
rdata$r	ENDS
;	COMDAT ??_R0?AVexception@@@8
_DATA	SEGMENT DWORD USE32 PUBLIC 'DATA'
_DATA	ENDS
;	COMDAT ?szApartment@?1??RegisterClassHelper@CComModule@ATL@@QAGJABU_GUID@@PBD11K@Z@4QBDB
CONST	SEGMENT DWORD USE32 PUBLIC 'CONST'
CONST	ENDS
;	COMDAT ??_R1A@?0A@A@?$ctype@D@std@@8
rdata$r	SEGMENT DWORD USE32 PUBLIC 'CONST'
rdata$r	ENDS
;	COMDAT __CT??_R0?AVbad_cast@@@8??0bad_cast@@QAE@ABV0@@Z12
xdata$x	SEGMENT DWORD USE32 PUBLIC 'CONST'
xdata$x	ENDS
;	COMDAT ??_R1A@?0A@A@CAtlModule@ATL@@8
rdata$r	SEGMENT DWORD USE32 PUBLIC 'CONST'
rdata$r	ENDS
;	COMDAT ??_R3?$ctype@_W@std@@8
rdata$r	SEGMENT DWORD USE32 PUBLIC 'CONST'
rdata$r	ENDS
;	COMDAT ??_R3CFixedStringLog@ATL@@8
rdata$r	SEGMENT DWORD USE32 PUBLIC 'CONST'
rdata$r	ENDS
;	COMDAT ??_R3bad_alloc@std@@8
rdata$r	SEGMENT DWORD USE32 PUBLIC 'CONST'
rdata$r	ENDS
;	COMDAT ??_R3domain_error@std@@8
rdata$r	SEGMENT DWORD USE32 PUBLIC 'CONST'
rdata$r	ENDS
;	COMDAT _IID_IInternalConnection
CONST	SEGMENT DWORD USE32 PUBLIC 'CONST'
CONST	ENDS
;	COMDAT ?szLS32@?1??RegisterClassHelper@CComModule@ATL@@QAGJABU_GUID@@PBD11K@Z@4QBDB
CONST	SEGMENT DWORD USE32 PUBLIC 'CONST'
CONST	ENDS
;	COMDAT ??_R0?AVbad_exception@std@@@8
_DATA	SEGMENT DWORD USE32 PUBLIC 'DATA'
_DATA	ENDS
;	COMDAT __CTA1?AVCAtlException@ATL@@
xdata$x	SEGMENT DWORD USE32 PUBLIC 'CONST'
xdata$x	ENDS
;	COMDAT ??_R0?AUIAtlAutoThreadModule@ATL@@@8
_DATA	SEGMENT DWORD USE32 PUBLIC 'DATA'
_DATA	ENDS
;	COMDAT ??_R0?AUIAtlStringMgr@ATL@@@8
_DATA	SEGMENT DWORD USE32 PUBLIC 'DATA'
_DATA	ENDS
;	COMDAT ??_R2bad_exception@std@@8
rdata$r	SEGMENT DWORD USE32 PUBLIC 'CONST'
rdata$r	ENDS
;	COMDAT ??_R0?AV?$numpunct@D@std@@@8
_DATA	SEGMENT DWORD USE32 PUBLIC 'DATA'
_DATA	ENDS
;	COMDAT ??_R2CWin32Heap@ATL@@8
rdata$r	SEGMENT DWORD USE32 PUBLIC 'CONST'
rdata$r	ENDS
;	COMDAT ??_R3?$CAtlModuleT@VCComModule@ATL@@@ATL@@8
rdata$r	SEGMENT DWORD USE32 PUBLIC 'CONST'
rdata$r	ENDS
;	COMDAT ?_AtlWinModule@ATL@@3VCAtlWinModule@1@A
_BSS	SEGMENT DWORD USE32 PUBLIC 'BSS'
_BSS	ENDS
;	COMDAT CRT$XCU
CRT$XCU	SEGMENT DWORD USE32 PUBLIC 'DATA'
CRT$XCU	ENDS
;	COMDAT ??_R0?AVCAtlStringMgr@ATL@@@8
_DATA	SEGMENT DWORD USE32 PUBLIC 'DATA'
_DATA	ENDS
;	COMDAT ??_R0?AVbad_alloc@std@@@8
_DATA	SEGMENT DWORD USE32 PUBLIC 'DATA'
_DATA	ENDS
;	COMDAT ?szProgID@?1??RegisterClassHelper@CComModule@ATL@@QAGJABU_GUID@@PBD11K@Z@4QBDB
CONST	SEGMENT DWORD USE32 PUBLIC 'CONST'
CONST	ENDS
;	COMDAT ??_R2CFixedStringLog@ATL@@8
rdata$r	SEGMENT DWORD USE32 PUBLIC 'CONST'
rdata$r	ENDS
;	COMDAT ??_R4invalid_argument@std@@6B@
rdata$r	SEGMENT DWORD USE32 PUBLIC 'CONST'
rdata$r	ENDS
;	COMDAT ??_R4?$codecvt@_WDH@std@@6B@
rdata$r	SEGMENT DWORD USE32 PUBLIC 'CONST'
rdata$r	ENDS
;	COMDAT ??_R4range_error@std@@6B@
rdata$r	SEGMENT DWORD USE32 PUBLIC 'CONST'
rdata$r	ENDS
;	COMDAT ??_R1A@?0A@A@IFixedStringLog@ATL@@8
rdata$r	SEGMENT DWORD USE32 PUBLIC 'CONST'
rdata$r	ENDS
;	COMDAT ??_R3?$codecvt@_WDH@std@@8
rdata$r	SEGMENT DWORD USE32 PUBLIC 'CONST'
rdata$r	ENDS
;	COMDAT ??_R1A@?0A@A@logic_error@std@@8
rdata$r	SEGMENT DWORD USE32 PUBLIC 'CONST'
rdata$r	ENDS
;	COMDAT __GUID_00000146_0000_0000_c000_000000000046
CONST	SEGMENT DWORD USE32 PUBLIC 'CONST'
CONST	ENDS
;	COMDAT ??_R1A@?0A@A@IUnknown@@8
rdata$r	SEGMENT DWORD USE32 PUBLIC 'CONST'
rdata$r	ENDS
;	COMDAT __CTA2?AVbad_cast@@
xdata$x	SEGMENT DWORD USE32 PUBLIC 'CONST'
xdata$x	ENDS
;	COMDAT ??_R4logic_error@std@@6B@
rdata$r	SEGMENT DWORD USE32 PUBLIC 'CONST'
rdata$r	ENDS
;	COMDAT ?map@?2??HKeyFromString@CRegParser@ATL@@KAPAUHKEY__@@PAD@Z@4QBUkeymap@23@B
CONST	SEGMENT DWORD USE32 PUBLIC 'CONST'
CONST	ENDS
;	COMDAT ??_R0?AVlength_error@std@@@8
_DATA	SEGMENT DWORD USE32 PUBLIC 'DATA'
_DATA	ENDS
;	COMDAT ??_R1A@?0A@A@CRegObject@ATL@@8
rdata$r	SEGMENT DWORD USE32 PUBLIC 'CONST'
rdata$r	ENDS
;	COMDAT ??_R2CFixedStringMgr@ATL@@8
rdata$r	SEGMENT DWORD USE32 PUBLIC 'CONST'
rdata$r	ENDS
;	COMDAT _IID_IAxWinAmbientDispatch
CONST	SEGMENT DWORD USE32 PUBLIC 'CONST'
CONST	ENDS
;	COMDAT ??_R3out_of_range@std@@8
rdata$r	SEGMENT DWORD USE32 PUBLIC 'CONST'
rdata$r	ENDS
;	COMDAT ??_R2?$numpunct@_W@std@@8
rdata$r	SEGMENT DWORD USE32 PUBLIC 'CONST'
rdata$r	ENDS
;	COMDAT ??_R0?AVbad_cast@@@8
_DATA	SEGMENT DWORD USE32 PUBLIC 'DATA'
_DATA	ENDS
;	COMDAT ??_R1A@?0A@A@runtime_error@std@@8
rdata$r	SEGMENT DWORD USE32 PUBLIC 'CONST'
rdata$r	ENDS
;	COMDAT ??_R1A@?0A@A@invalid_argument@std@@8
rdata$r	SEGMENT DWORD USE32 PUBLIC 'CONST'
rdata$r	ENDS
;	COMDAT ??_R1A@?0A@A@ctype_base@std@@8
rdata$r	SEGMENT DWORD USE32 PUBLIC 'CONST'
rdata$r	ENDS
;	COMDAT _IID_IDocHostUIHandlerDispatch
CONST	SEGMENT DWORD USE32 PUBLIC 'CONST'
CONST	ENDS
;	COMDAT ??_R4CFixedStringLog@ATL@@6B@
rdata$r	SEGMENT DWORD USE32 PUBLIC 'CONST'
rdata$r	ENDS
;	COMDAT ??_R2IRegistrarBase@@8
rdata$r	SEGMENT DWORD USE32 PUBLIC 'CONST'
rdata$r	ENDS
;	COMDAT ??_R2logic_error@std@@8
rdata$r	SEGMENT DWORD USE32 PUBLIC 'CONST'
rdata$r	ENDS
;	COMDAT ??_R13?0A@A@_ATL_MODULE70@ATL@@8
rdata$r	SEGMENT DWORD USE32 PUBLIC 'CONST'
rdata$r	ENDS
;	COMDAT ??_R0?AVCFixedStringMgr@ATL@@@8
_DATA	SEGMENT DWORD USE32 PUBLIC 'DATA'
_DATA	ENDS
;	COMDAT ??_R1A@?0A@A@failure@ios_base@std@@8
rdata$r	SEGMENT DWORD USE32 PUBLIC 'CONST'
rdata$r	ENDS
;	COMDAT ??_R3logic_error@std@@8
rdata$r	SEGMENT DWORD USE32 PUBLIC 'CONST'
rdata$r	ENDS
;	COMDAT ??_R0?AUIUnknown@@@8
_DATA	SEGMENT DWORD USE32 PUBLIC 'DATA'
_DATA	ENDS
;	COMDAT ??_R3CAtlModule@ATL@@8
rdata$r	SEGMENT DWORD USE32 PUBLIC 'CONST'
rdata$r	ENDS
;	COMDAT ??_R0?AVlogic_error@std@@@8
_DATA	SEGMENT DWORD USE32 PUBLIC 'DATA'
_DATA	ENDS
;	COMDAT ??_R4?$ctype@_W@std@@6B@
rdata$r	SEGMENT DWORD USE32 PUBLIC 'CONST'
rdata$r	ENDS
;	COMDAT ??_R3length_error@std@@8
rdata$r	SEGMENT DWORD USE32 PUBLIC 'CONST'
rdata$r	ENDS
;	COMDAT ??_7IUnknown@@6B@
CONST	SEGMENT DWORD USE32 PUBLIC 'CONST'
CONST	ENDS
;	COMDAT ??_R4bad_exception@std@@6B@
rdata$r	SEGMENT DWORD USE32 PUBLIC 'CONST'
rdata$r	ENDS
;	COMDAT ??_R4CRegObject@ATL@@6B@
rdata$r	SEGMENT DWORD USE32 PUBLIC 'CONST'
rdata$r	ENDS
;	COMDAT __GUID_fc4801a3_2ba9_11cf_a229_00aa003d7352
CONST	SEGMENT DWORD USE32 PUBLIC 'CONST'
CONST	ENDS
;	COMDAT ??_R1A@?0A@A@CFixedStringLog@ATL@@8
rdata$r	SEGMENT DWORD USE32 PUBLIC 'CONST'
rdata$r	ENDS
;	COMDAT ??_R2CComModule@ATL@@8
rdata$r	SEGMENT DWORD USE32 PUBLIC 'CONST'
rdata$r	ENDS
;	COMDAT ??_R2?$CAtlAutoThreadModuleT@VCAtlAutoThreadModule@ATL@@VCComSimpleThreadAllocator@2@$0PPPPPPPP@@ATL@@8
rdata$r	SEGMENT DWORD USE32 PUBLIC 'CONST'
rdata$r	ENDS
;	COMDAT ??_R1A@?0A@A@?$CAtlAutoThreadModuleT@VCAtlAutoThreadModule@ATL@@VCComSimpleThreadAllocator@2@$0PPPPPPPP@@ATL@@8
rdata$r	SEGMENT DWORD USE32 PUBLIC 'CONST'
rdata$r	ENDS
;	COMDAT _LIBID_ATLLib
CONST	SEGMENT DWORD USE32 PUBLIC 'CONST'
CONST	ENDS
;	COMDAT __GUID_7fd52380_4e07_101b_ae2d_08002b2ec713
CONST	SEGMENT DWORD USE32 PUBLIC 'CONST'
CONST	ENDS
;	COMDAT ??_R1A@?0A@A@underflow_error@std@@8
rdata$r	SEGMENT DWORD USE32 PUBLIC 'CONST'
rdata$r	ENDS
;	COMDAT ??_R3failure@ios_base@std@@8
rdata$r	SEGMENT DWORD USE32 PUBLIC 'CONST'
rdata$r	ENDS
;	COMDAT ??_R3IRegistrarBase@@8
rdata$r	SEGMENT DWORD USE32 PUBLIC 'CONST'
rdata$r	ENDS
;	COMDAT ??_R1A@?0A@A@?$ctype@_W@std@@8
rdata$r	SEGMENT DWORD USE32 PUBLIC 'CONST'
rdata$r	ENDS
;	COMDAT ??_R4bad_alloc@std@@6B@
rdata$r	SEGMENT DWORD USE32 PUBLIC 'CONST'
rdata$r	ENDS
;	COMDAT ?$S4@?2??VTFromRegType@CRegParser@ATL@@KAHPBDAAG@Z@4IA
_BSS	SEGMENT DWORD USE32 PUBLIC 'BSS'
_BSS	ENDS
;	COMDAT ??_R1A@?0A@A@bad_exception@std@@8
rdata$r	SEGMENT DWORD USE32 PUBLIC 'CONST'
rdata$r	ENDS
;	COMDAT ??_R2underflow_error@std@@8
rdata$r	SEGMENT DWORD USE32 PUBLIC 'CONST'
rdata$r	ENDS
;	COMDAT ??_R0?AUctype_base@std@@@8
_DATA	SEGMENT DWORD USE32 PUBLIC 'DATA'
_DATA	ENDS
;	COMDAT ??_R4IUnknown@@6B@
rdata$r	SEGMENT DWORD USE32 PUBLIC 'CONST'
rdata$r	ENDS
;	COMDAT __TI1?AVCAtlException@ATL@@
xdata$x	SEGMENT DWORD USE32 PUBLIC 'CONST'
xdata$x	ENDS
;	COMDAT ??_R4CAtlModule@ATL@@6B@
rdata$r	SEGMENT DWORD USE32 PUBLIC 'CONST'
rdata$r	ENDS
;	COMDAT ??_R1A@?0A@A@IAtlStringMgr@ATL@@8
rdata$r	SEGMENT DWORD USE32 PUBLIC 'CONST'
rdata$r	ENDS
;	COMDAT _IID_IRegistrar
CONST	SEGMENT DWORD USE32 PUBLIC 'CONST'
CONST	ENDS
;	COMDAT ??_7IRegistrarBase@@6B@
CONST	SEGMENT DWORD USE32 PUBLIC 'CONST'
CONST	ENDS
;	COMDAT _CLSID_StdGlobalInterfaceTable
CONST	SEGMENT DWORD USE32 PUBLIC 'CONST'
CONST	ENDS
;	COMDAT ?szIPS32@?1??RegisterClassHelper@CComModule@ATL@@QAGJABU_GUID@@PBD11K@Z@4QBDB
CONST	SEGMENT DWORD USE32 PUBLIC 'CONST'
CONST	ENDS
;	COMDAT ??_R4failure@ios_base@std@@6B@
rdata$r	SEGMENT DWORD USE32 PUBLIC 'CONST'
rdata$r	ENDS
;	COMDAT ??_R1A@?0A@A@CWin32Heap@ATL@@8
rdata$r	SEGMENT DWORD USE32 PUBLIC 'CONST'
rdata$r	ENDS
;	COMDAT __CT??_R0?AVCAtlException@ATL@@@84
xdata$x	SEGMENT DWORD USE32 PUBLIC 'CONST'
xdata$x	ENDS
;	COMDAT ??_R1A@?0A@A@?$CAtlModuleT@VCComModule@ATL@@@ATL@@8
rdata$r	SEGMENT DWORD USE32 PUBLIC 'CONST'
rdata$r	ENDS
;	COMDAT _IID_IAxWinAmbientDispatchEx
CONST	SEGMENT DWORD USE32 PUBLIC 'CONST'
CONST	ENDS
;	COMDAT ??_R2?$ctype@D@std@@8
rdata$r	SEGMENT DWORD USE32 PUBLIC 'CONST'
rdata$r	ENDS
;	COMDAT ?map@?2??VTFromRegType@CRegParser@ATL@@KAHPBDAAG@Z@4QBUtypemap@23@B
_DATA	SEGMENT DWORD USE32 PUBLIC 'DATA'
_DATA	ENDS
;	COMDAT ??_R4?$numpunct@_W@std@@6B@
rdata$r	SEGMENT DWORD USE32 PUBLIC 'CONST'
rdata$r	ENDS
;	COMDAT ??_R3range_error@std@@8
rdata$r	SEGMENT DWORD USE32 PUBLIC 'CONST'
rdata$r	ENDS
;	COMDAT ?szVIProgID@?1??RegisterClassHelper@CComModule@ATL@@QAGJABU_GUID@@PBD11K@Z@4QBDB
CONST	SEGMENT DWORD USE32 PUBLIC 'CONST'
CONST	ENDS
;	COMDAT ?Day@CFileTime@ATL@@2_KB
CONST	SEGMENT DWORD USE32 PUBLIC 'CONST'
CONST	ENDS
;	COMDAT ?VT@?$CVarTypeInfo@PAF@ATL@@2GB
CONST	SEGMENT DWORD USE32 PUBLIC 'CONST'
CONST	ENDS
;	COMDAT ?VT@?$CVarTypeInfo@PAJ@ATL@@2GB
CONST	SEGMENT DWORD USE32 PUBLIC 'CONST'
CONST	ENDS
;	COMDAT ?VT@?$CVarTypeInfo@PAE@ATL@@2GB
CONST	SEGMENT DWORD USE32 PUBLIC 'CONST'
CONST	ENDS
;	COMDAT ?VT@?$CVarTypeInfo@PAUIDispatch@@@ATL@@2GB
CONST	SEGMENT DWORD USE32 PUBLIC 'CONST'
CONST	ENDS
;	COMDAT ?pmField@?$CVarTypeInfo@PAK@ATL@@2QQtagVARIANT@@PAKQ3@
CONST	SEGMENT DWORD USE32 PUBLIC 'CONST'
CONST	ENDS
;	COMDAT ?cbNeverDelete@CRegParser@ATL@@1HB
CONST	SEGMENT DWORD USE32 PUBLIC 'CONST'
CONST	ENDS
;	COMDAT ?VT@?$CVarTypeInfo@PAM@ATL@@2GB
CONST	SEGMENT DWORD USE32 PUBLIC 'CONST'
CONST	ENDS
;	COMDAT ?VT@?$CVarTypeInfo@D@ATL@@2GB
CONST	SEGMENT DWORD USE32 PUBLIC 'CONST'
CONST	ENDS
;	COMDAT ?pmField@?$CVarTypeInfo@K@ATL@@2QQtagVARIANT@@KQ3@
CONST	SEGMENT DWORD USE32 PUBLIC 'CONST'
CONST	ENDS
;	COMDAT ??_7CFixedStringMgr@ATL@@6B@
CONST	SEGMENT DWORD USE32 PUBLIC 'CONST'
CONST	ENDS
;	COMDAT ?s_pLog@CFixedStringMgr@ATL@@2PAVIFixedStringLog@2@A
_DATA	SEGMENT DWORD USE32 PUBLIC 'DATA'
_DATA	ENDS
;	COMDAT ?ATL_CREATE_OBJECT@CComApartment@ATL@@2IA
_DATA	SEGMENT DWORD USE32 PUBLIC 'DATA'
_DATA	ENDS
;	COMDAT ?pmField@?$CVarTypeInfo@TtagCY@@@ATL@@2QQtagVARIANT@@TtagCY@@Q3@
CONST	SEGMENT DWORD USE32 PUBLIC 'CONST'
CONST	ENDS
;	COMDAT ?pmField@?$CVarTypeInfo@I@ATL@@2QQtagVARIANT@@IQ3@
CONST	SEGMENT DWORD USE32 PUBLIC 'CONST'
CONST	ENDS
;	COMDAT ?MAX_VALUE@CRegParser@ATL@@1HB
CONST	SEGMENT DWORD USE32 PUBLIC 'CONST'
CONST	ENDS
;	COMDAT ?VT@?$CVarTypeInfo@PAPAUIDispatch@@@ATL@@2GB
CONST	SEGMENT DWORD USE32 PUBLIC 'CONST'
CONST	ENDS
;	COMDAT ??_7CComModule@ATL@@6B@
CONST	SEGMENT DWORD USE32 PUBLIC 'CONST'
CONST	ENDS
;	COMDAT ?VT@?$CVarTypeInfo@PAPAUIUnknown@@@ATL@@2GB
CONST	SEGMENT DWORD USE32 PUBLIC 'CONST'
CONST	ENDS
;	COMDAT ?szInvalidDateTimeSpan@ATL@@3QBDB
CONST	SEGMENT DWORD USE32 PUBLIC 'CONST'
CONST	ENDS
;	COMDAT ?Minute@CFileTime@ATL@@2_KB
CONST	SEGMENT DWORD USE32 PUBLIC 'CONST'
CONST	ENDS
;	COMDAT ?VT@?$CVarTypeInfo@K@ATL@@2GB
CONST	SEGMENT DWORD USE32 PUBLIC 'CONST'
CONST	ENDS
;	COMDAT ?pmField@?$CVarTypeInfo@N@ATL@@2QQtagVARIANT@@NQ3@
CONST	SEGMENT DWORD USE32 PUBLIC 'CONST'
CONST	ENDS
;	COMDAT ??_7CAtlModule@ATL@@6B@
CONST	SEGMENT DWORD USE32 PUBLIC 'CONST'
CONST	ENDS
;	COMDAT ?VT@?$CVarTypeInfo@PAD@ATL@@2GB
CONST	SEGMENT DWORD USE32 PUBLIC 'CONST'
CONST	ENDS
;	COMDAT ??_7CFixedStringLog@ATL@@6B@
CONST	SEGMENT DWORD USE32 PUBLIC 'CONST'
CONST	ENDS
;	COMDAT ?pmField@?$CVarTypeInfo@PAD@ATL@@2QQtagVARIANT@@PADQ3@
CONST	SEGMENT DWORD USE32 PUBLIC 'CONST'
CONST	ENDS
;	COMDAT ?pmField@?$CVarTypeInfo@PA_K@ATL@@2QQtagVARIANT@@PA_KQ3@
CONST	SEGMENT DWORD USE32 PUBLIC 'CONST'
CONST	ENDS
;	COMDAT ?VT@?$CVarTypeInfo@PAPA_W@ATL@@2GB
CONST	SEGMENT DWORD USE32 PUBLIC 'CONST'
CONST	ENDS
;	COMDAT ?VT@?$CVarTypeInfo@M@ATL@@2GB
CONST	SEGMENT DWORD USE32 PUBLIC 'CONST'
CONST	ENDS
;	COMDAT ?pmField@?$CVarTypeInfo@PAE@ATL@@2QQtagVARIANT@@PAEQ3@
CONST	SEGMENT DWORD USE32 PUBLIC 'CONST'
CONST	ENDS
;	COMDAT ___pobjMapEntryLast
ATL$__z	SEGMENT DWORD USE32 PUBLIC ''
ATL$__z	ENDS
;	COMDAT ___pobjMapEntryFirst
ATL$__a	SEGMENT DWORD USE32 PUBLIC ''
ATL$__a	ENDS
;	COMDAT ?VT@?$CVarTypeInfo@J@ATL@@2GB
CONST	SEGMENT DWORD USE32 PUBLIC 'CONST'
CONST	ENDS
;	COMDAT ?Week@CFileTime@ATL@@2_KB
CONST	SEGMENT DWORD USE32 PUBLIC 'CONST'
CONST	ENDS
;	COMDAT ?pmField@?$CVarTypeInfo@PAPAUIDispatch@@@ATL@@2QQtagVARIANT@@PAPAUIDispatch@@Q3@
CONST	SEGMENT DWORD USE32 PUBLIC 'CONST'
CONST	ENDS
;	COMDAT ?Hour@CFileTime@ATL@@2_KB
CONST	SEGMENT DWORD USE32 PUBLIC 'CONST'
CONST	ENDS
;	COMDAT ?VT@?$CVarTypeInfo@PAI@ATL@@2GB
CONST	SEGMENT DWORD USE32 PUBLIC 'CONST'
CONST	ENDS
;	COMDAT ?rgszNeverDelete@CRegParser@ATL@@1QBQBDB
CONST	SEGMENT DWORD USE32 PUBLIC 'CONST'
CONST	ENDS
;	COMDAT ?VT@?$CVarTypeInfo@PA_K@ATL@@2GB
CONST	SEGMENT DWORD USE32 PUBLIC 'CONST'
CONST	ENDS
;	COMDAT ?m_bInitFailed@CAtlBaseModule@ATL@@2_NA
_DATA	SEGMENT DWORD USE32 PUBLIC 'DATA'
_DATA	ENDS
;	COMDAT ?VT@?$CVarTypeInfo@I@ATL@@2GB
CONST	SEGMENT DWORD USE32 PUBLIC 'CONST'
CONST	ENDS
;	COMDAT ?VT@?$CVarTypeInfo@H@ATL@@2GB
CONST	SEGMENT DWORD USE32 PUBLIC 'CONST'
CONST	ENDS
;	COMDAT ?m_libid@CAtlModule@ATL@@2U_GUID@@A
_DATA	SEGMENT DWORD USE32 PUBLIC 'DATA'
_DATA	ENDS
;	COMDAT ?VT@?$CVarTypeInfo@_K@ATL@@2GB
CONST	SEGMENT DWORD USE32 PUBLIC 'CONST'
CONST	ENDS
;	COMDAT ?VT@?$CVarTypeInfo@PAG@ATL@@2GB
CONST	SEGMENT DWORD USE32 PUBLIC 'CONST'
CONST	ENDS
;	COMDAT ??_7IFixedStringLog@ATL@@6B@
CONST	SEGMENT DWORD USE32 PUBLIC 'CONST'
CONST	ENDS
;	COMDAT ?s_pfnPrevHook@CNoUIAssertHook@ATL@@0P6AHHPADPAH@ZA
_DATA	SEGMENT DWORD USE32 PUBLIC 'DATA'
_DATA	ENDS
;	COMDAT ??_7CRegObject@ATL@@6B@
CONST	SEGMENT DWORD USE32 PUBLIC 'CONST'
CONST	ENDS
;	COMDAT ?pmField@?$CVarTypeInfo@PAI@ATL@@2QQtagVARIANT@@PAIQ3@
CONST	SEGMENT DWORD USE32 PUBLIC 'CONST'
CONST	ENDS
;	COMDAT ??_7CAtlStringMgr@ATL@@6B@
CONST	SEGMENT DWORD USE32 PUBLIC 'CONST'
CONST	ENDS
;	COMDAT ?pmField@?$CVarTypeInfo@E@ATL@@2QQtagVARIANT@@EQ3@
CONST	SEGMENT DWORD USE32 PUBLIC 'CONST'
CONST	ENDS
;	COMDAT ?Millisecond@CFileTime@ATL@@2_KB
CONST	SEGMENT DWORD USE32 PUBLIC 'CONST'
CONST	ENDS
;	COMDAT ?_pAtlModule@ATL@@3PAVCAtlModule@1@A
_DATA	SEGMENT DWORD USE32 PUBLIC 'DATA'
_DATA	ENDS
;	COMDAT ?VT@?$CVarTypeInfo@N@ATL@@2GB
CONST	SEGMENT DWORD USE32 PUBLIC 'CONST'
CONST	ENDS
;	COMDAT ?VT@?$CVarTypeInfo@PAK@ATL@@2GB
CONST	SEGMENT DWORD USE32 PUBLIC 'CONST'
CONST	ENDS
;	COMDAT ?c_bIsMFCDLLTraits@?$_MFCDLLTraitsCheck@DV?$StrTraitATL@DV?$ChTraitsCRT@D@ATL@@@ATL@@@_CSTRING_IMPL_@ATL@@2_NB
CONST	SEGMENT DWORD USE32 PUBLIC 'CONST'
CONST	ENDS
;	COMDAT ?c_bIsMFCDLLTraits@?$_MFCDLLTraitsCheck@_WV?$StrTraitATL@_WV?$ChTraitsCRT@_W@ATL@@@ATL@@@_CSTRING_IMPL_@ATL@@2_NB
CONST	SEGMENT DWORD USE32 PUBLIC 'CONST'
CONST	ENDS
;	COMDAT ?_pPerfRegFunc@ATL@@3P6AJPAUHINSTANCE__@@@ZA
_DATA	SEGMENT DWORD USE32 PUBLIC 'DATA'
_DATA	ENDS
;	COMDAT ??_7?$CAtlModuleT@VCComModule@ATL@@@ATL@@6B@
CONST	SEGMENT DWORD USE32 PUBLIC 'CONST'
CONST	ENDS
;	COMDAT ?VT@?$CVarTypeInfo@UtagVARIANT@@@ATL@@2GB
CONST	SEGMENT DWORD USE32 PUBLIC 'CONST'
CONST	ENDS
;	COMDAT ?pmField@?$CVarTypeInfo@PA_J@ATL@@2QQtagVARIANT@@PA_JQ3@
CONST	SEGMENT DWORD USE32 PUBLIC 'CONST'
CONST	ENDS
;	COMDAT ?VT@?$CVarTypeInfo@_J@ATL@@2GB
CONST	SEGMENT DWORD USE32 PUBLIC 'CONST'
CONST	ENDS
;	COMDAT ?VT@?$CVarTypeInfo@F@ATL@@2GB
CONST	SEGMENT DWORD USE32 PUBLIC 'CONST'
CONST	ENDS
;	COMDAT ?_strthunks@ATL@@3U_AtlStringThunks@1@A
_DATA	SEGMENT DWORD USE32 PUBLIC 'DATA'
_DATA	ENDS
;	COMDAT ?VT@?$CVarTypeInfo@PA_W@ATL@@2GB
CONST	SEGMENT DWORD USE32 PUBLIC 'CONST'
CONST	ENDS
;	COMDAT ?pmField@?$CVarTypeInfo@PA_W@ATL@@2QQtagVARIANT@@PA_WQ3@
CONST	SEGMENT DWORD USE32 PUBLIC 'CONST'
CONST	ENDS
;	COMDAT ?VT@?$CVarTypeInfo@PAUIUnknown@@@ATL@@2GB
CONST	SEGMENT DWORD USE32 PUBLIC 'CONST'
CONST	ENDS
;	COMDAT ?szInvalidDateTime@ATL@@3QBDB
CONST	SEGMENT DWORD USE32 PUBLIC 'CONST'
CONST	ENDS
;	COMDAT ?VT@?$CVarTypeInfo@G@ATL@@2GB
CONST	SEGMENT DWORD USE32 PUBLIC 'CONST'
CONST	ENDS
;	COMDAT ?_pPerfUnRegFunc@ATL@@3P6AJXZA
_DATA	SEGMENT DWORD USE32 PUBLIC 'DATA'
_DATA	ENDS
;	COMDAT ?pmField@?$CVarTypeInfo@PAJ@ATL@@2QQtagVARIANT@@PAJQ3@
CONST	SEGMENT DWORD USE32 PUBLIC 'CONST'
CONST	ENDS
;	COMDAT ?pmField@?$CVarTypeInfo@PAF@ATL@@2QQtagVARIANT@@PAFQ3@
CONST	SEGMENT DWORD USE32 PUBLIC 'CONST'
CONST	ENDS
;	COMDAT ?VT@?$CVarTypeInfo@E@ATL@@2GB
CONST	SEGMENT DWORD USE32 PUBLIC 'CONST'
CONST	ENDS
;	COMDAT ?pmField@?$CVarTypeInfo@PAUIUnknown@@@ATL@@2QQtagVARIANT@@PAUIUnknown@@Q3@
CONST	SEGMENT DWORD USE32 PUBLIC 'CONST'
CONST	ENDS
;	COMDAT ?_pModule@ATL@@3PAVCComModule@1@A
_DATA	SEGMENT DWORD USE32 PUBLIC 'DATA'
_DATA	ENDS
;	COMDAT ?pmField@?$CVarTypeInfo@PAUIDispatch@@@ATL@@2QQtagVARIANT@@PAUIDispatch@@Q3@
CONST	SEGMENT DWORD USE32 PUBLIC 'CONST'
CONST	ENDS
;	COMDAT ?VT@?$CVarTypeInfo@PA_J@ATL@@2GB
CONST	SEGMENT DWORD USE32 PUBLIC 'CONST'
CONST	ENDS
;	COMDAT ?VT@?$CVarTypeInfo@TtagCY@@@ATL@@2GB
CONST	SEGMENT DWORD USE32 PUBLIC 'CONST'
CONST	ENDS
;	COMDAT ?pmField@?$CVarTypeInfo@PAPAUIUnknown@@@ATL@@2QQtagVARIANT@@PAPAUIUnknown@@Q3@
CONST	SEGMENT DWORD USE32 PUBLIC 'CONST'
CONST	ENDS
;	COMDAT ?pmField@?$CVarTypeInfo@H@ATL@@2QQtagVARIANT@@HQ3@
CONST	SEGMENT DWORD USE32 PUBLIC 'CONST'
CONST	ENDS
;	COMDAT ??_7?$CAtlAutoThreadModuleT@VCAtlAutoThreadModule@ATL@@VCComSimpleThreadAllocator@2@$0PPPPPPPP@@ATL@@6B@
CONST	SEGMENT DWORD USE32 PUBLIC 'CONST'
CONST	ENDS
;	COMDAT ?pmField@?$CVarTypeInfo@PAPA_W@ATL@@2QQtagVARIANT@@PAPA_WQ3@
CONST	SEGMENT DWORD USE32 PUBLIC 'CONST'
CONST	ENDS
;	COMDAT ?pmField@?$CVarTypeInfo@PAG@ATL@@2QQtagVARIANT@@PAGQ3@
CONST	SEGMENT DWORD USE32 PUBLIC 'CONST'
CONST	ENDS
;	COMDAT ?pmField@?$CVarTypeInfo@_K@ATL@@2QQtagVARIANT@@_KQ3@
CONST	SEGMENT DWORD USE32 PUBLIC 'CONST'
CONST	ENDS
;	COMDAT ?MAX_TYPE@CRegParser@ATL@@1HB
CONST	SEGMENT DWORD USE32 PUBLIC 'CONST'
CONST	ENDS
;	COMDAT ?pmField@?$CVarTypeInfo@M@ATL@@2QQtagVARIANT@@MQ3@
CONST	SEGMENT DWORD USE32 PUBLIC 'CONST'
CONST	ENDS
;	COMDAT ?pmField@?$CVarTypeInfo@J@ATL@@2QQtagVARIANT@@JQ3@
CONST	SEGMENT DWORD USE32 PUBLIC 'CONST'
CONST	ENDS
;	COMDAT ?VT@?$CVarTypeInfo@PAN@ATL@@2GB
CONST	SEGMENT DWORD USE32 PUBLIC 'CONST'
CONST	ENDS
;	COMDAT ?pmField@?$CVarTypeInfo@G@ATL@@2QQtagVARIANT@@GQ3@
CONST	SEGMENT DWORD USE32 PUBLIC 'CONST'
CONST	ENDS
;	COMDAT ?pmField@?$CVarTypeInfo@D@ATL@@2QQtagVARIANT@@DQ3@
CONST	SEGMENT DWORD USE32 PUBLIC 'CONST'
CONST	ENDS
;	COMDAT ?pmField@?$CVarTypeInfo@_J@ATL@@2QQtagVARIANT@@_JQ3@
CONST	SEGMENT DWORD USE32 PUBLIC 'CONST'
CONST	ENDS
;	COMDAT ?pmField@?$CVarTypeInfo@PAN@ATL@@2QQtagVARIANT@@PANQ3@
CONST	SEGMENT DWORD USE32 PUBLIC 'CONST'
CONST	ENDS
;	COMDAT ?Second@CFileTime@ATL@@2_KB
CONST	SEGMENT DWORD USE32 PUBLIC 'CONST'
CONST	ENDS
;	COMDAT ?pmField@?$CVarTypeInfo@PAM@ATL@@2QQtagVARIANT@@PAMQ3@
CONST	SEGMENT DWORD USE32 PUBLIC 'CONST'
CONST	ENDS
;	COMDAT ?pmField@?$CVarTypeInfo@PAH@ATL@@2QQtagVARIANT@@PAHQ3@
CONST	SEGMENT DWORD USE32 PUBLIC 'CONST'
CONST	ENDS
;	COMDAT ?pmField@?$CVarTypeInfo@PATtagCY@@@ATL@@2QQtagVARIANT@@PATtagCY@@Q3@
CONST	SEGMENT DWORD USE32 PUBLIC 'CONST'
CONST	ENDS
;	COMDAT ?VT@?$CVarTypeInfo@PATtagCY@@@ATL@@2GB
CONST	SEGMENT DWORD USE32 PUBLIC 'CONST'
CONST	ENDS
;	COMDAT ?VT@?$CVarTypeInfo@PAH@ATL@@2GB
CONST	SEGMENT DWORD USE32 PUBLIC 'CONST'
CONST	ENDS
;	COMDAT ?pmField@?$CVarTypeInfo@F@ATL@@2QQtagVARIANT@@FQ3@
CONST	SEGMENT DWORD USE32 PUBLIC 'CONST'
CONST	ENDS
;	COMDAT ?g_pfnGetThreadACP@ATL@@3P6GIXZA
_DATA	SEGMENT DWORD USE32 PUBLIC 'DATA'
_DATA	ENDS
;	COMDAT ??_7CWin32Heap@ATL@@6B@
CONST	SEGMENT DWORD USE32 PUBLIC 'CONST'
CONST	ENDS
;	COMDAT ?_pAtlAutoThreadModule@ATL@@3PAUIAtlAutoThreadModule@1@A
_BSS	SEGMENT DWORD USE32 PUBLIC 'BSS'
_BSS	ENDS
;	COMDAT ??_R3?$numpunct@D@std@@8
rdata$r	SEGMENT DWORD USE32 PUBLIC 'CONST'
rdata$r	ENDS
;	COMDAT ??_R3CComModule@ATL@@8
rdata$r	SEGMENT DWORD USE32 PUBLIC 'CONST'
rdata$r	ENDS
;	COMDAT ??_R0?AUIRegistrarBase@@@8
_DATA	SEGMENT DWORD USE32 PUBLIC 'DATA'
_DATA	ENDS
;	COMDAT ??_R2?$CAtlModuleT@VCComModule@ATL@@@ATL@@8
rdata$r	SEGMENT DWORD USE32 PUBLIC 'CONST'
rdata$r	ENDS
;	COMDAT ??_R0?AVfacet@locale@std@@@8
_DATA	SEGMENT DWORD USE32 PUBLIC 'DATA'
_DATA	ENDS
;	COMDAT ??_R1A@?0A@A@CAtlStringMgr@ATL@@8
rdata$r	SEGMENT DWORD USE32 PUBLIC 'CONST'
rdata$r	ENDS
;	COMDAT ?binary@?$_Iosb@H@std@@2W4_Openmode@12@B
CONST	SEGMENT DWORD USE32 PUBLIC 'CONST'
CONST	ENDS
;	COMDAT ?_Hardfail@?$_Iosb@H@std@@2W4_Iostate@12@B
CONST	SEGMENT DWORD USE32 PUBLIC 'CONST'
CONST	ENDS
;	COMDAT ?eofbit@?$_Iosb@H@std@@2W4_Iostate@12@B
CONST	SEGMENT DWORD USE32 PUBLIC 'CONST'
CONST	ENDS
;	COMDAT ??_7invalid_argument@std@@6B@
CONST	SEGMENT DWORD USE32 PUBLIC 'CONST'
CONST	ENDS
;	COMDAT ?app@?$_Iosb@H@std@@2W4_Openmode@12@B
CONST	SEGMENT DWORD USE32 PUBLIC 'CONST'
CONST	ENDS
;	COMDAT ?uppercase@?$_Iosb@H@std@@2W4_Fmtflags@12@B
CONST	SEGMENT DWORD USE32 PUBLIC 'CONST'
CONST	ENDS
;	COMDAT ??_S?$numpunct@_W@std@@6B@
CONST	SEGMENT DWORD USE32 PUBLIC 'CONST'
CONST	ENDS
;	COMDAT ??_7out_of_range@std@@6B@
CONST	SEGMENT DWORD USE32 PUBLIC 'CONST'
CONST	ENDS
;	COMDAT ?trunc@?$_Iosb@H@std@@2W4_Openmode@12@B
CONST	SEGMENT DWORD USE32 PUBLIC 'CONST'
CONST	ENDS
;	COMDAT ??_S?$ctype@_W@std@@6B@
CONST	SEGMENT DWORD USE32 PUBLIC 'CONST'
CONST	ENDS
;	COMDAT ??_S?$numpunct@D@std@@6B@
CONST	SEGMENT DWORD USE32 PUBLIC 'CONST'
CONST	ENDS
;	COMDAT ?skipws@?$_Iosb@H@std@@2W4_Fmtflags@12@B
CONST	SEGMENT DWORD USE32 PUBLIC 'CONST'
CONST	ENDS
;	COMDAT ?basefield@?$_Iosb@H@std@@2W4_Fmtflags@12@B
CONST	SEGMENT DWORD USE32 PUBLIC 'CONST'
CONST	ENDS
;	COMDAT ??_7bad_alloc@std@@6B@
CONST	SEGMENT DWORD USE32 PUBLIC 'CONST'
CONST	ENDS
;	COMDAT ?_Stdio@?$_Iosb@H@std@@2W4_Fmtflags@12@B
CONST	SEGMENT DWORD USE32 PUBLIC 'CONST'
CONST	ENDS
;	COMDAT ?left@?$_Iosb@H@std@@2W4_Fmtflags@12@B
CONST	SEGMENT DWORD USE32 PUBLIC 'CONST'
CONST	ENDS
;	COMDAT ??_7runtime_error@std@@6B@
CONST	SEGMENT DWORD USE32 PUBLIC 'CONST'
CONST	ENDS
;	COMDAT ?showpos@?$_Iosb@H@std@@2W4_Fmtflags@12@B
CONST	SEGMENT DWORD USE32 PUBLIC 'CONST'
CONST	ENDS
;	COMDAT ?_Psave@?$_Facetptr@V?$ctype@D@std@@@std@@2PBVfacet@locale@2@B
_DATA	SEGMENT DWORD USE32 PUBLIC 'DATA'
_DATA	ENDS
;	COMDAT ?adjustfield@?$_Iosb@H@std@@2W4_Fmtflags@12@B
CONST	SEGMENT DWORD USE32 PUBLIC 'CONST'
CONST	ENDS
;	COMDAT ??_S?$ctype@D@std@@6B@
CONST	SEGMENT DWORD USE32 PUBLIC 'CONST'
CONST	ENDS
;	COMDAT ?badbit@?$_Iosb@H@std@@2W4_Iostate@12@B
CONST	SEGMENT DWORD USE32 PUBLIC 'CONST'
CONST	ENDS
;	COMDAT ?in@?$_Iosb@H@std@@2W4_Openmode@12@B
CONST	SEGMENT DWORD USE32 PUBLIC 'CONST'
CONST	ENDS
;	COMDAT ??_7underflow_error@std@@6B@
CONST	SEGMENT DWORD USE32 PUBLIC 'CONST'
CONST	ENDS
;	COMDAT ??_7overflow_error@std@@6B@
CONST	SEGMENT DWORD USE32 PUBLIC 'CONST'
CONST	ENDS
;	COMDAT ?_Psave@?$_Facetptr@V?$ctype@_W@std@@@std@@2PBVfacet@locale@2@B
_DATA	SEGMENT DWORD USE32 PUBLIC 'DATA'
_DATA	ENDS
;	COMDAT ?oct@?$_Iosb@H@std@@2W4_Fmtflags@12@B
CONST	SEGMENT DWORD USE32 PUBLIC 'CONST'
CONST	ENDS
;	COMDAT ?hex@?$_Iosb@H@std@@2W4_Fmtflags@12@B
CONST	SEGMENT DWORD USE32 PUBLIC 'CONST'
CONST	ENDS
;	COMDAT ?showbase@?$_Iosb@H@std@@2W4_Fmtflags@12@B
CONST	SEGMENT DWORD USE32 PUBLIC 'CONST'
CONST	ENDS
;	COMDAT ?showpoint@?$_Iosb@H@std@@2W4_Fmtflags@12@B
CONST	SEGMENT DWORD USE32 PUBLIC 'CONST'
CONST	ENDS
;	COMDAT ?collate@?$_Locbase@H@std@@2HB
CONST	SEGMENT DWORD USE32 PUBLIC 'CONST'
CONST	ENDS
;	COMDAT ??_7length_error@std@@6B@
CONST	SEGMENT DWORD USE32 PUBLIC 'CONST'
CONST	ENDS
;	COMDAT ?beg@?$_Iosb@H@std@@2W4_Seekdir@12@B
CONST	SEGMENT DWORD USE32 PUBLIC 'CONST'
CONST	ENDS
;	COMDAT ?failbit@?$_Iosb@H@std@@2W4_Iostate@12@B
CONST	SEGMENT DWORD USE32 PUBLIC 'CONST'
CONST	ENDS
;	COMDAT ?unitbuf@?$_Iosb@H@std@@2W4_Fmtflags@12@B
CONST	SEGMENT DWORD USE32 PUBLIC 'CONST'
CONST	ENDS
;	COMDAT ?right@?$_Iosb@H@std@@2W4_Fmtflags@12@B
CONST	SEGMENT DWORD USE32 PUBLIC 'CONST'
CONST	ENDS
;	COMDAT ?_Stz@?$fpos@H@std@@0HA
_BSS	SEGMENT DWORD USE32 PUBLIC 'BSS'
_BSS	ENDS
;	COMDAT ?ctype@?$_Locbase@H@std@@2HB
CONST	SEGMENT DWORD USE32 PUBLIC 'CONST'
CONST	ENDS
;	COMDAT ?out@?$_Iosb@H@std@@2W4_Openmode@12@B
CONST	SEGMENT DWORD USE32 PUBLIC 'CONST'
CONST	ENDS
;	COMDAT ?_Psave@?$_Facetptr@V?$numpunct@D@std@@@std@@2PBVfacet@locale@2@B
_DATA	SEGMENT DWORD USE32 PUBLIC 'DATA'
_DATA	ENDS
;	COMDAT ?internal@?$_Iosb@H@std@@2W4_Fmtflags@12@B
CONST	SEGMENT DWORD USE32 PUBLIC 'CONST'
CONST	ENDS
;	COMDAT ??_S?$codecvt@_WDH@std@@6B@
CONST	SEGMENT DWORD USE32 PUBLIC 'CONST'
CONST	ENDS
;	COMDAT ?goodbit@?$_Iosb@H@std@@2W4_Iostate@12@B
CONST	SEGMENT DWORD USE32 PUBLIC 'CONST'
CONST	ENDS
;	COMDAT ?npos@?$basic_string@DU?$char_traits@D@std@@V?$_DebugHeapAllocator@D@2@@std@@2IB
CONST	SEGMENT DWORD USE32 PUBLIC 'CONST'
CONST	ENDS
;	COMDAT ??_7bad_exception@std@@6B@
CONST	SEGMENT DWORD USE32 PUBLIC 'CONST'
CONST	ENDS
;	COMDAT ?boolalpha@?$_Iosb@H@std@@2W4_Fmtflags@12@B
CONST	SEGMENT DWORD USE32 PUBLIC 'CONST'
CONST	ENDS
;	COMDAT ?ate@?$_Iosb@H@std@@2W4_Openmode@12@B
CONST	SEGMENT DWORD USE32 PUBLIC 'CONST'
CONST	ENDS
;	COMDAT ?all@?$_Locbase@H@std@@2HB
CONST	SEGMENT DWORD USE32 PUBLIC 'CONST'
CONST	ENDS
;	COMDAT ?numeric@?$_Locbase@H@std@@2HB
CONST	SEGMENT DWORD USE32 PUBLIC 'CONST'
CONST	ENDS
;	COMDAT ?end@?$_Iosb@H@std@@2W4_Seekdir@12@B
CONST	SEGMENT DWORD USE32 PUBLIC 'CONST'
CONST	ENDS
;	COMDAT ?_Noreplace@?$_Iosb@H@std@@2W4_Openmode@12@B
CONST	SEGMENT DWORD USE32 PUBLIC 'CONST'
CONST	ENDS
;	COMDAT ??_7failure@ios_base@std@@6B@
CONST	SEGMENT DWORD USE32 PUBLIC 'CONST'
CONST	ENDS
;	COMDAT ?cur@?$_Iosb@H@std@@2W4_Seekdir@12@B
CONST	SEGMENT DWORD USE32 PUBLIC 'CONST'
CONST	ENDS
;	COMDAT ??_7range_error@std@@6B@
CONST	SEGMENT DWORD USE32 PUBLIC 'CONST'
CONST	ENDS
;	COMDAT ??_7logic_error@std@@6B@
CONST	SEGMENT DWORD USE32 PUBLIC 'CONST'
CONST	ENDS
;	COMDAT ?time@?$_Locbase@H@std@@2HB
CONST	SEGMENT DWORD USE32 PUBLIC 'CONST'
CONST	ENDS
;	COMDAT ?messages@?$_Locbase@H@std@@2HB
CONST	SEGMENT DWORD USE32 PUBLIC 'CONST'
CONST	ENDS
;	COMDAT ??_7domain_error@std@@6B@
CONST	SEGMENT DWORD USE32 PUBLIC 'CONST'
CONST	ENDS
;	COMDAT ?fixed@?$_Iosb@H@std@@2W4_Fmtflags@12@B
CONST	SEGMENT DWORD USE32 PUBLIC 'CONST'
CONST	ENDS
;	COMDAT ?none@?$_Locbase@H@std@@2HB
CONST	SEGMENT DWORD USE32 PUBLIC 'CONST'
CONST	ENDS
;	COMDAT ?floatfield@?$_Iosb@H@std@@2W4_Fmtflags@12@B
CONST	SEGMENT DWORD USE32 PUBLIC 'CONST'
CONST	ENDS
;	COMDAT ?_Nocreate@?$_Iosb@H@std@@2W4_Openmode@12@B
CONST	SEGMENT DWORD USE32 PUBLIC 'CONST'
CONST	ENDS
;	COMDAT ?scientific@?$_Iosb@H@std@@2W4_Fmtflags@12@B
CONST	SEGMENT DWORD USE32 PUBLIC 'CONST'
CONST	ENDS
;	COMDAT ?monetary@?$_Locbase@H@std@@2HB
CONST	SEGMENT DWORD USE32 PUBLIC 'CONST'
CONST	ENDS
;	COMDAT ?_Psave@?$_Facetptr@V?$numpunct@_W@std@@@std@@2PBVfacet@locale@2@B
_DATA	SEGMENT DWORD USE32 PUBLIC 'DATA'
_DATA	ENDS
;	COMDAT ?dec@?$_Iosb@H@std@@2W4_Fmtflags@12@B
CONST	SEGMENT DWORD USE32 PUBLIC 'CONST'
CONST	ENDS
;	COMDAT ??_R3IFixedStringLog@ATL@@8
rdata$r	SEGMENT DWORD USE32 PUBLIC 'CONST'
rdata$r	ENDS
;	COMDAT ??_R1A@?0A@A@CFixedStringMgr@ATL@@8
rdata$r	SEGMENT DWORD USE32 PUBLIC 'CONST'
rdata$r	ENDS
;	COMDAT ??_R2invalid_argument@std@@8
rdata$r	SEGMENT DWORD USE32 PUBLIC 'CONST'
rdata$r	ENDS
;	COMDAT ??_R2?$codecvt@_WDH@std@@8
rdata$r	SEGMENT DWORD USE32 PUBLIC 'CONST'
rdata$r	ENDS
;	COMDAT ??_R4IRegistrarBase@@6B@
rdata$r	SEGMENT DWORD USE32 PUBLIC 'CONST'
rdata$r	ENDS
;	COMDAT ??_R1A@?0A@A@length_error@std@@8
rdata$r	SEGMENT DWORD USE32 PUBLIC 'CONST'
rdata$r	ENDS
;	COMDAT ??_R3?$numpunct@_W@std@@8
rdata$r	SEGMENT DWORD USE32 PUBLIC 'CONST'
rdata$r	ENDS
;	COMDAT ??_R0?AVCComModule@ATL@@@8
_DATA	SEGMENT DWORD USE32 PUBLIC 'DATA'
_DATA	ENDS
;	COMDAT __GUID_00000109_0000_0000_c000_000000000046
CONST	SEGMENT DWORD USE32 PUBLIC 'CONST'
CONST	ENDS
;	COMDAT ??_R4CAtlStringMgr@ATL@@6B@
rdata$r	SEGMENT DWORD USE32 PUBLIC 'CONST'
rdata$r	ENDS
;	COMDAT ??_R4runtime_error@std@@6B@
rdata$r	SEGMENT DWORD USE32 PUBLIC 'CONST'
rdata$r	ENDS
;	COMDAT ??_R0?AVCAtlException@ATL@@@8
_DATA	SEGMENT DWORD USE32 PUBLIC 'DATA'
_DATA	ENDS
;	COMDAT ??_R0?AVinvalid_argument@std@@@8
_DATA	SEGMENT DWORD USE32 PUBLIC 'DATA'
_DATA	ENDS
;	COMDAT ??_R1A@?0A@A@domain_error@std@@8
rdata$r	SEGMENT DWORD USE32 PUBLIC 'CONST'
rdata$r	ENDS
;	COMDAT ??_R0?AVoverflow_error@std@@@8
_DATA	SEGMENT DWORD USE32 PUBLIC 'DATA'
_DATA	ENDS
;	COMDAT ??_R2CRegObject@ATL@@8
rdata$r	SEGMENT DWORD USE32 PUBLIC 'CONST'
rdata$r	ENDS
sxdata	SEGMENT DWORD USE32 'SXDATA'
sxdata	ENDS
FLAT	GROUP _DATA, CONST, _BSS, SHARED, CRT$XCU
	ASSUME	CS: FLAT, DS: FLAT, SS: FLAT
endif

INCLUDELIB MSVCRTD
INCLUDELIB OLDNAMES

PUBLIC	?ATL_CREATE_OBJECT@CComApartment@ATL@@2IA	; ATL::CComApartment::ATL_CREATE_OBJECT
PUBLIC	?rgszNeverDelete@CRegParser@ATL@@1QBQBDB	; ATL::CRegParser::rgszNeverDelete
PUBLIC	?cbNeverDelete@CRegParser@ATL@@1HB		; ATL::CRegParser::cbNeverDelete
PUBLIC	?MAX_VALUE@CRegParser@ATL@@1HB			; ATL::CRegParser::MAX_VALUE
PUBLIC	?MAX_TYPE@CRegParser@ATL@@1HB			; ATL::CRegParser::MAX_TYPE
PUBLIC	_IID_IAxWinAmbientDispatchEx
PUBLIC	?_pAtlAutoThreadModule@ATL@@3PAUIAtlAutoThreadModule@1@A ; ATL::_pAtlAutoThreadModule
PUBLIC	_IID_IInternalConnection
PUBLIC	?VT@?$CVarTypeInfo@D@ATL@@2GB			; ATL::CVarTypeInfo<char>::VT
PUBLIC	?pmField@?$CVarTypeInfo@D@ATL@@2QQtagVARIANT@@DQ3@ ; ATL::CVarTypeInfo<char>::pmField
PUBLIC	?VT@?$CVarTypeInfo@E@ATL@@2GB			; ATL::CVarTypeInfo<unsigned char>::VT
PUBLIC	?pmField@?$CVarTypeInfo@E@ATL@@2QQtagVARIANT@@EQ3@ ; ATL::CVarTypeInfo<unsigned char>::pmField
PUBLIC	?VT@?$CVarTypeInfo@PAD@ATL@@2GB			; ATL::CVarTypeInfo<char *>::VT
PUBLIC	?c_bIsMFCDLLTraits@?$_MFCDLLTraitsCheck@DV?$StrTraitATL@DV?$ChTraitsCRT@D@ATL@@@ATL@@@_CSTRING_IMPL_@ATL@@2_NB ; ATL::_CSTRING_IMPL_::_MFCDLLTraitsCheck<char,ATL::StrTraitATL<char,ATL::ChTraitsCRT<char> > >::c_bIsMFCDLLTraits
PUBLIC	?pmField@?$CVarTypeInfo@PAD@ATL@@2QQtagVARIANT@@PADQ3@ ; ATL::CVarTypeInfo<char *>::pmField
PUBLIC	?VT@?$CVarTypeInfo@PAE@ATL@@2GB			; ATL::CVarTypeInfo<unsigned char *>::VT
PUBLIC	?pmField@?$CVarTypeInfo@PAE@ATL@@2QQtagVARIANT@@PAEQ3@ ; ATL::CVarTypeInfo<unsigned char *>::pmField
PUBLIC	?VT@?$CVarTypeInfo@F@ATL@@2GB			; ATL::CVarTypeInfo<short>::VT
PUBLIC	?pmField@?$CVarTypeInfo@F@ATL@@2QQtagVARIANT@@FQ3@ ; ATL::CVarTypeInfo<short>::pmField
PUBLIC	?VT@?$CVarTypeInfo@PAF@ATL@@2GB			; ATL::CVarTypeInfo<short *>::VT
PUBLIC	?pmField@?$CVarTypeInfo@PAF@ATL@@2QQtagVARIANT@@PAFQ3@ ; ATL::CVarTypeInfo<short *>::pmField
PUBLIC	?skipws@?$_Iosb@H@std@@2W4_Fmtflags@12@B	; std::_Iosb<int>::skipws
PUBLIC	?VT@?$CVarTypeInfo@G@ATL@@2GB			; ATL::CVarTypeInfo<unsigned short>::VT
PUBLIC	?unitbuf@?$_Iosb@H@std@@2W4_Fmtflags@12@B	; std::_Iosb<int>::unitbuf
PUBLIC	?pmField@?$CVarTypeInfo@G@ATL@@2QQtagVARIANT@@GQ3@ ; ATL::CVarTypeInfo<unsigned short>::pmField
PUBLIC	?uppercase@?$_Iosb@H@std@@2W4_Fmtflags@12@B	; std::_Iosb<int>::uppercase
PUBLIC	?showbase@?$_Iosb@H@std@@2W4_Fmtflags@12@B	; std::_Iosb<int>::showbase
PUBLIC	?showpoint@?$_Iosb@H@std@@2W4_Fmtflags@12@B	; std::_Iosb<int>::showpoint
PUBLIC	?VT@?$CVarTypeInfo@PAG@ATL@@2GB			; ATL::CVarTypeInfo<unsigned short *>::VT
PUBLIC	?showpos@?$_Iosb@H@std@@2W4_Fmtflags@12@B	; std::_Iosb<int>::showpos
PUBLIC	?pmField@?$CVarTypeInfo@PAG@ATL@@2QQtagVARIANT@@PAGQ3@ ; ATL::CVarTypeInfo<unsigned short *>::pmField
PUBLIC	?left@?$_Iosb@H@std@@2W4_Fmtflags@12@B		; std::_Iosb<int>::left
PUBLIC	?right@?$_Iosb@H@std@@2W4_Fmtflags@12@B		; std::_Iosb<int>::right
PUBLIC	?internal@?$_Iosb@H@std@@2W4_Fmtflags@12@B	; std::_Iosb<int>::internal
PUBLIC	?VT@?$CVarTypeInfo@H@ATL@@2GB			; ATL::CVarTypeInfo<int>::VT
PUBLIC	?pmField@?$CVarTypeInfo@H@ATL@@2QQtagVARIANT@@HQ3@ ; ATL::CVarTypeInfo<int>::pmField
PUBLIC	?dec@?$_Iosb@H@std@@2W4_Fmtflags@12@B		; std::_Iosb<int>::dec
PUBLIC	?oct@?$_Iosb@H@std@@2W4_Fmtflags@12@B		; std::_Iosb<int>::oct
PUBLIC	?hex@?$_Iosb@H@std@@2W4_Fmtflags@12@B		; std::_Iosb<int>::hex
PUBLIC	?VT@?$CVarTypeInfo@PAH@ATL@@2GB			; ATL::CVarTypeInfo<int *>::VT
PUBLIC	?scientific@?$_Iosb@H@std@@2W4_Fmtflags@12@B	; std::_Iosb<int>::scientific
PUBLIC	?pmField@?$CVarTypeInfo@PAH@ATL@@2QQtagVARIANT@@PAHQ3@ ; ATL::CVarTypeInfo<int *>::pmField
PUBLIC	?fixed@?$_Iosb@H@std@@2W4_Fmtflags@12@B		; std::_Iosb<int>::fixed
PUBLIC	?boolalpha@?$_Iosb@H@std@@2W4_Fmtflags@12@B	; std::_Iosb<int>::boolalpha
PUBLIC	?_Stdio@?$_Iosb@H@std@@2W4_Fmtflags@12@B	; std::_Iosb<int>::_Stdio
PUBLIC	?VT@?$CVarTypeInfo@I@ATL@@2GB			; ATL::CVarTypeInfo<unsigned int>::VT
PUBLIC	?adjustfield@?$_Iosb@H@std@@2W4_Fmtflags@12@B	; std::_Iosb<int>::adjustfield
PUBLIC	?pmField@?$CVarTypeInfo@I@ATL@@2QQtagVARIANT@@IQ3@ ; ATL::CVarTypeInfo<unsigned int>::pmField
PUBLIC	?basefield@?$_Iosb@H@std@@2W4_Fmtflags@12@B	; std::_Iosb<int>::basefield
PUBLIC	?floatfield@?$_Iosb@H@std@@2W4_Fmtflags@12@B	; std::_Iosb<int>::floatfield
PUBLIC	?VT@?$CVarTypeInfo@PAI@ATL@@2GB			; ATL::CVarTypeInfo<unsigned int *>::VT
PUBLIC	?pmField@?$CVarTypeInfo@PAI@ATL@@2QQtagVARIANT@@PAIQ3@ ; ATL::CVarTypeInfo<unsigned int *>::pmField
PUBLIC	?goodbit@?$_Iosb@H@std@@2W4_Iostate@12@B	; std::_Iosb<int>::goodbit
PUBLIC	?eofbit@?$_Iosb@H@std@@2W4_Iostate@12@B		; std::_Iosb<int>::eofbit
PUBLIC	?failbit@?$_Iosb@H@std@@2W4_Iostate@12@B	; std::_Iosb<int>::failbit
PUBLIC	?VT@?$CVarTypeInfo@J@ATL@@2GB			; ATL::CVarTypeInfo<long>::VT
PUBLIC	?badbit@?$_Iosb@H@std@@2W4_Iostate@12@B		; std::_Iosb<int>::badbit
PUBLIC	?pmField@?$CVarTypeInfo@J@ATL@@2QQtagVARIANT@@JQ3@ ; ATL::CVarTypeInfo<long>::pmField
PUBLIC	?_Hardfail@?$_Iosb@H@std@@2W4_Iostate@12@B	; std::_Iosb<int>::_Hardfail
PUBLIC	_CLSID_StdGlobalInterfaceTable
PUBLIC	?in@?$_Iosb@H@std@@2W4_Openmode@12@B		; std::_Iosb<int>::in
PUBLIC	?VT@?$CVarTypeInfo@PAJ@ATL@@2GB			; ATL::CVarTypeInfo<long *>::VT
PUBLIC	?out@?$_Iosb@H@std@@2W4_Openmode@12@B		; std::_Iosb<int>::out
PUBLIC	?pmField@?$CVarTypeInfo@PAJ@ATL@@2QQtagVARIANT@@PAJQ3@ ; ATL::CVarTypeInfo<long *>::pmField
PUBLIC	?ate@?$_Iosb@H@std@@2W4_Openmode@12@B		; std::_Iosb<int>::ate
PUBLIC	?app@?$_Iosb@H@std@@2W4_Openmode@12@B		; std::_Iosb<int>::app
PUBLIC	?trunc@?$_Iosb@H@std@@2W4_Openmode@12@B		; std::_Iosb<int>::trunc
PUBLIC	?VT@?$CVarTypeInfo@K@ATL@@2GB			; ATL::CVarTypeInfo<unsigned long>::VT
PUBLIC	?pmField@?$CVarTypeInfo@K@ATL@@2QQtagVARIANT@@KQ3@ ; ATL::CVarTypeInfo<unsigned long>::pmField
PUBLIC	?_Nocreate@?$_Iosb@H@std@@2W4_Openmode@12@B	; std::_Iosb<int>::_Nocreate
PUBLIC	?_Noreplace@?$_Iosb@H@std@@2W4_Openmode@12@B	; std::_Iosb<int>::_Noreplace
PUBLIC	?binary@?$_Iosb@H@std@@2W4_Openmode@12@B	; std::_Iosb<int>::binary
PUBLIC	?VT@?$CVarTypeInfo@PAK@ATL@@2GB			; ATL::CVarTypeInfo<unsigned long *>::VT
PUBLIC	?pmField@?$CVarTypeInfo@PAK@ATL@@2QQtagVARIANT@@PAKQ3@ ; ATL::CVarTypeInfo<unsigned long *>::pmField
PUBLIC	?beg@?$_Iosb@H@std@@2W4_Seekdir@12@B		; std::_Iosb<int>::beg
PUBLIC	?cur@?$_Iosb@H@std@@2W4_Seekdir@12@B		; std::_Iosb<int>::cur
PUBLIC	?end@?$_Iosb@H@std@@2W4_Seekdir@12@B		; std::_Iosb<int>::end
PUBLIC	?VT@?$CVarTypeInfo@_J@ATL@@2GB			; ATL::CVarTypeInfo<__int64>::VT
PUBLIC	?pmField@?$CVarTypeInfo@_J@ATL@@2QQtagVARIANT@@_JQ3@ ; ATL::CVarTypeInfo<__int64>::pmField
PUBLIC	?VT@?$CVarTypeInfo@PA_J@ATL@@2GB		; ATL::CVarTypeInfo<__int64 *>::VT
PUBLIC	?pmField@?$CVarTypeInfo@PA_J@ATL@@2QQtagVARIANT@@PA_JQ3@ ; ATL::CVarTypeInfo<__int64 *>::pmField
PUBLIC	_CLSID_Registrar
PUBLIC	?VT@?$CVarTypeInfo@_K@ATL@@2GB			; ATL::CVarTypeInfo<unsigned __int64>::VT
PUBLIC	?pmField@?$CVarTypeInfo@_K@ATL@@2QQtagVARIANT@@_KQ3@ ; ATL::CVarTypeInfo<unsigned __int64>::pmField
PUBLIC	?VT@?$CVarTypeInfo@PA_K@ATL@@2GB		; ATL::CVarTypeInfo<unsigned __int64 *>::VT
PUBLIC	?pmField@?$CVarTypeInfo@PA_K@ATL@@2QQtagVARIANT@@PA_KQ3@ ; ATL::CVarTypeInfo<unsigned __int64 *>::pmField
PUBLIC	?VT@?$CVarTypeInfo@M@ATL@@2GB			; ATL::CVarTypeInfo<float>::VT
PUBLIC	?pmField@?$CVarTypeInfo@M@ATL@@2QQtagVARIANT@@MQ3@ ; ATL::CVarTypeInfo<float>::pmField
PUBLIC	_IID_IRegistrar
PUBLIC	?VT@?$CVarTypeInfo@PAM@ATL@@2GB			; ATL::CVarTypeInfo<float *>::VT
PUBLIC	?pmField@?$CVarTypeInfo@PAM@ATL@@2QQtagVARIANT@@PAMQ3@ ; ATL::CVarTypeInfo<float *>::pmField
PUBLIC	?VT@?$CVarTypeInfo@N@ATL@@2GB			; ATL::CVarTypeInfo<double>::VT
PUBLIC	?pmField@?$CVarTypeInfo@N@ATL@@2QQtagVARIANT@@NQ3@ ; ATL::CVarTypeInfo<double>::pmField
PUBLIC	?VT@?$CVarTypeInfo@PAN@ATL@@2GB			; ATL::CVarTypeInfo<double *>::VT
PUBLIC	?pmField@?$CVarTypeInfo@PAN@ATL@@2QQtagVARIANT@@PANQ3@ ; ATL::CVarTypeInfo<double *>::pmField
PUBLIC	?VT@?$CVarTypeInfo@UtagVARIANT@@@ATL@@2GB	; ATL::CVarTypeInfo<tagVARIANT>::VT
PUBLIC	?VT@?$CVarTypeInfo@PA_W@ATL@@2GB		; ATL::CVarTypeInfo<wchar_t *>::VT
PUBLIC	?pmField@?$CVarTypeInfo@PA_W@ATL@@2QQtagVARIANT@@PA_WQ3@ ; ATL::CVarTypeInfo<wchar_t *>::pmField
PUBLIC	?VT@?$CVarTypeInfo@PAPA_W@ATL@@2GB		; ATL::CVarTypeInfo<wchar_t * *>::VT
PUBLIC	?pmField@?$CVarTypeInfo@PAPA_W@ATL@@2QQtagVARIANT@@PAPA_WQ3@ ; ATL::CVarTypeInfo<wchar_t * *>::pmField
PUBLIC	?VT@?$CVarTypeInfo@PAUIUnknown@@@ATL@@2GB	; ATL::CVarTypeInfo<IUnknown *>::VT
PUBLIC	?pmField@?$CVarTypeInfo@PAUIUnknown@@@ATL@@2QQtagVARIANT@@PAUIUnknown@@Q3@ ; ATL::CVarTypeInfo<IUnknown *>::pmField
PUBLIC	?VT@?$CVarTypeInfo@PAPAUIUnknown@@@ATL@@2GB	; ATL::CVarTypeInfo<IUnknown * *>::VT
PUBLIC	?pmField@?$CVarTypeInfo@PAPAUIUnknown@@@ATL@@2QQtagVARIANT@@PAPAUIUnknown@@Q3@ ; ATL::CVarTypeInfo<IUnknown * *>::pmField
PUBLIC	?VT@?$CVarTypeInfo@PAUIDispatch@@@ATL@@2GB	; ATL::CVarTypeInfo<IDispatch *>::VT
PUBLIC	?pmField@?$CVarTypeInfo@PAUIDispatch@@@ATL@@2QQtagVARIANT@@PAUIDispatch@@Q3@ ; ATL::CVarTypeInfo<IDispatch *>::pmField
PUBLIC	?VT@?$CVarTypeInfo@PAPAUIDispatch@@@ATL@@2GB	; ATL::CVarTypeInfo<IDispatch * *>::VT
PUBLIC	?pmField@?$CVarTypeInfo@PAPAUIDispatch@@@ATL@@2QQtagVARIANT@@PAPAUIDispatch@@Q3@ ; ATL::CVarTypeInfo<IDispatch * *>::pmField
PUBLIC	?VT@?$CVarTypeInfo@TtagCY@@@ATL@@2GB		; ATL::CVarTypeInfo<tagCY>::VT
PUBLIC	?pmField@?$CVarTypeInfo@TtagCY@@@ATL@@2QQtagVARIANT@@TtagCY@@Q3@ ; ATL::CVarTypeInfo<tagCY>::pmField
PUBLIC	?VT@?$CVarTypeInfo@PATtagCY@@@ATL@@2GB		; ATL::CVarTypeInfo<tagCY *>::VT
PUBLIC	_IID_IDocHostUIHandlerDispatch
PUBLIC	?pmField@?$CVarTypeInfo@PATtagCY@@@ATL@@2QQtagVARIANT@@PATtagCY@@Q3@ ; ATL::CVarTypeInfo<tagCY *>::pmField
PUBLIC	?_pAtlModule@ATL@@3PAVCAtlModule@1@A		; ATL::_pAtlModule
PUBLIC	?m_libid@CAtlModule@ATL@@2U_GUID@@A		; ATL::CAtlModule::m_libid
PUBLIC	?s_pfnPrevHook@CNoUIAssertHook@ATL@@0P6AHHPADPAH@ZA ; ATL::CNoUIAssertHook::s_pfnPrevHook
PUBLIC	?s_pLog@CFixedStringMgr@ATL@@2PAVIFixedStringLog@2@A ; ATL::CFixedStringMgr::s_pLog
PUBLIC	?Millisecond@CFileTime@ATL@@2_KB		; ATL::CFileTime::Millisecond
PUBLIC	?Second@CFileTime@ATL@@2_KB			; ATL::CFileTime::Second
PUBLIC	?Minute@CFileTime@ATL@@2_KB			; ATL::CFileTime::Minute
PUBLIC	?Hour@CFileTime@ATL@@2_KB			; ATL::CFileTime::Hour
PUBLIC	?Day@CFileTime@ATL@@2_KB			; ATL::CFileTime::Day
PUBLIC	?Week@CFileTime@ATL@@2_KB			; ATL::CFileTime::Week
PUBLIC	?szInvalidDateTime@ATL@@3QBDB			; ATL::szInvalidDateTime
PUBLIC	?szInvalidDateTimeSpan@ATL@@3QBDB		; ATL::szInvalidDateTimeSpan
PUBLIC	_IID_IAxWinHostWindow
PUBLIC	?g_pfnGetThreadACP@ATL@@3P6GIXZA		; ATL::g_pfnGetThreadACP
PUBLIC	?_AtlGetThreadACPThunk@ATL@@YGIXZ		; ATL::_AtlGetThreadACPThunk
PUBLIC	?_pModule@ATL@@3PAVCComModule@1@A		; ATL::_pModule
PUBLIC	_LIBID_ATLLib
PUBLIC	_IID_IAxWinHostWindowLic
PUBLIC	?_strthunks@ATL@@3U_AtlStringThunks@1@A		; ATL::_strthunks
PUBLIC	?c_bIsMFCDLLTraits@?$_MFCDLLTraitsCheck@_WV?$StrTraitATL@_WV?$ChTraitsCRT@_W@ATL@@@ATL@@@_CSTRING_IMPL_@ATL@@2_NB ; ATL::_CSTRING_IMPL_::_MFCDLLTraitsCheck<wchar_t,ATL::StrTraitATL<wchar_t,ATL::ChTraitsCRT<wchar_t> > >::c_bIsMFCDLLTraits
PUBLIC	?GetEnvironmentVariableWThunk@ATL@@YGKPB_WPA_WK@Z ; ATL::GetEnvironmentVariableWThunk
PUBLIC	_IID_IAxWinAmbientDispatch
PUBLIC	___pobjMapEntryFirst
PUBLIC	___pobjMapEntryLast
PUBLIC	?CompareStringWThunk@ATL@@YGHKKPB_WH0H@Z	; ATL::CompareStringWThunk
PUBLIC	?_pPerfRegFunc@ATL@@3P6AJPAUHINSTANCE__@@@ZA	; ATL::_pPerfRegFunc
PUBLIC	?_pPerfUnRegFunc@ATL@@3P6AJXZA			; ATL::_pPerfUnRegFunc
PUBLIC	?GetStringTypeExWThunk@ATL@@YGHKKPB_WHPAG@Z	; ATL::GetStringTypeExWThunk
PUBLIC	?lstrcmpiWThunk@ATL@@YGHPB_W0@Z			; ATL::lstrcmpiWThunk
PUBLIC	?CharLowerWThunk@ATL@@YGPA_WPA_W@Z		; ATL::CharLowerWThunk
PUBLIC	?m_bInitFailed@CAtlBaseModule@ATL@@2_NA		; ATL::CAtlBaseModule::m_bInitFailed
PUBLIC	?collate@?$_Locbase@H@std@@2HB			; std::_Locbase<int>::collate
PUBLIC	?ctype@?$_Locbase@H@std@@2HB			; std::_Locbase<int>::ctype
PUBLIC	?monetary@?$_Locbase@H@std@@2HB			; std::_Locbase<int>::monetary
PUBLIC	?numeric@?$_Locbase@H@std@@2HB			; std::_Locbase<int>::numeric
PUBLIC	?CharUpperWThunk@ATL@@YGPA_WPA_W@Z		; ATL::CharUpperWThunk
PUBLIC	?time@?$_Locbase@H@std@@2HB			; std::_Locbase<int>::time
PUBLIC	?messages@?$_Locbase@H@std@@2HB			; std::_Locbase<int>::messages
PUBLIC	?all@?$_Locbase@H@std@@2HB			; std::_Locbase<int>::all
PUBLIC	?none@?$_Locbase@H@std@@2HB			; std::_Locbase<int>::none
;	COMDAT ?ATL_CREATE_OBJECT@CComApartment@ATL@@2IA
_BSS	SEGMENT
?ATL_CREATE_OBJECT@CComApartment@ATL@@2IA DD 01H DUP (?) ; ATL::CComApartment::ATL_CREATE_OBJECT
_BSS	ENDS
;	COMDAT ?_pAtlAutoThreadModule@ATL@@3PAUIAtlAutoThreadModule@1@A
_BSS	SEGMENT
?_pAtlAutoThreadModule@ATL@@3PAUIAtlAutoThreadModule@1@A DD 01H DUP (?) ; ATL::_pAtlAutoThreadModule
_BSS	ENDS
;	COMDAT ?_pAtlModule@ATL@@3PAVCAtlModule@1@A
_BSS	SEGMENT
?_pAtlModule@ATL@@3PAVCAtlModule@1@A DD 01H DUP (?)	; ATL::_pAtlModule
_BSS	ENDS
;	COMDAT ?m_libid@CAtlModule@ATL@@2U_GUID@@A
_BSS	SEGMENT
?m_libid@CAtlModule@ATL@@2U_GUID@@A DB 010H DUP (?)	; ATL::CAtlModule::m_libid
_BSS	ENDS
;	COMDAT ?s_pfnPrevHook@CNoUIAssertHook@ATL@@0P6AHHPADPAH@ZA
_BSS	SEGMENT
?s_pfnPrevHook@CNoUIAssertHook@ATL@@0P6AHHPADPAH@ZA DD 01H DUP (?) ; ATL::CNoUIAssertHook::s_pfnPrevHook
_BSS	ENDS
;	COMDAT ?s_pLog@CFixedStringMgr@ATL@@2PAVIFixedStringLog@2@A
_BSS	SEGMENT
?s_pLog@CFixedStringMgr@ATL@@2PAVIFixedStringLog@2@A DD 01H DUP (?) ; ATL::CFixedStringMgr::s_pLog
_BSS	ENDS
;	COMDAT ?_pModule@ATL@@3PAVCComModule@1@A
_BSS	SEGMENT
?_pModule@ATL@@3PAVCComModule@1@A DD 01H DUP (?)	; ATL::_pModule
_BSS	ENDS
;	COMDAT ?_pPerfRegFunc@ATL@@3P6AJPAUHINSTANCE__@@@ZA
_BSS	SEGMENT
?_pPerfRegFunc@ATL@@3P6AJPAUHINSTANCE__@@@ZA DD 01H DUP (?) ; ATL::_pPerfRegFunc
_BSS	ENDS
;	COMDAT ?_pPerfUnRegFunc@ATL@@3P6AJXZA
_BSS	SEGMENT
?_pPerfUnRegFunc@ATL@@3P6AJXZA DD 01H DUP (?)		; ATL::_pPerfUnRegFunc
_BSS	ENDS
;	COMDAT ?m_bInitFailed@CAtlBaseModule@ATL@@2_NA
_BSS	SEGMENT
?m_bInitFailed@CAtlBaseModule@ATL@@2_NA DB 01H DUP (?)	; ATL::CAtlBaseModule::m_bInitFailed
_BSS	ENDS
CONST	SEGMENT
$SG55238 DB	'YPLAYBOX', 00H
CONST	ENDS
_DATA	SEGMENT
_g_szSoftName DD FLAT:$SG55238
_DATA	ENDS
CONST	SEGMENT
	ORG $+3
$SG55240 DB	'SOFTWARE\YPLAYBOX', 00H
CONST	ENDS
_DATA	SEGMENT
_STR_REG_SOFT DD FLAT:$SG55240
_DATA	ENDS
CONST	SEGMENT
	ORG $+2
$SG55242 DB	'S', 00H, 'O', 00H, 'F', 00H, 'T', 00H, 'W', 00H, 'A', 00H
	DB	'R', 00H, 'E', 00H, '\', 00H, 'Y', 00H, 'P', 00H, 'L', 00H, 'A'
	DB	00H, 'Y', 00H, 'B', 00H, 'O', 00H, 'X', 00H, 00H, 00H
CONST	ENDS
_DATA	SEGMENT
_STR_WCHAR_REG_SOFT DD FLAT:$SG55242
_DATA	ENDS
CONST	SEGMENT
$SG55244 DB	'SOFTWARE\YPLAYBOX\LOGMSG', 00H
CONST	ENDS
_DATA	SEGMENT
_STR_REG_SOFT_MSG DD FLAT:$SG55244
_DATA	ENDS
CONST	SEGMENT
	ORG $+3
$SG55246 DB	'SOFTWARE\YPLAYBOX\UPDATE', 00H
CONST	ENDS
_DATA	SEGMENT
_STR_REG_UPDATE DD FLAT:$SG55246
_DATA	ENDS
CONST	SEGMENT
	ORG $+3
$SG55248 DB	'SOFTWARE\YPLAYBOX\BHO', 00H
CONST	ENDS
_DATA	SEGMENT
_STR_REG_BHO DD	FLAT:$SG55248
_DATA	ENDS
CONST	SEGMENT
	ORG $+2
$SG55250 DB	'path', 00H
CONST	ENDS
_DATA	SEGMENT
_STR_SOFT_HOME_KEY DD FLAT:$SG55250
_DATA	ENDS
;	COMDAT ?collate@?$_Locbase@H@std@@2HB
CONST	SEGMENT
?collate@?$_Locbase@H@std@@2HB DD 01H			; std::_Locbase<int>::collate
CONST	ENDS
;	COMDAT ?ctype@?$_Locbase@H@std@@2HB
CONST	SEGMENT
?ctype@?$_Locbase@H@std@@2HB DD 02H			; std::_Locbase<int>::ctype
CONST	ENDS
;	COMDAT ?monetary@?$_Locbase@H@std@@2HB
CONST	SEGMENT
?monetary@?$_Locbase@H@std@@2HB DD 04H			; std::_Locbase<int>::monetary
CONST	ENDS
;	COMDAT ?numeric@?$_Locbase@H@std@@2HB
CONST	SEGMENT
?numeric@?$_Locbase@H@std@@2HB DD 08H			; std::_Locbase<int>::numeric
CONST	ENDS
;	COMDAT ?time@?$_Locbase@H@std@@2HB
CONST	SEGMENT
?time@?$_Locbase@H@std@@2HB DD 010H			; std::_Locbase<int>::time
CONST	ENDS
;	COMDAT ?messages@?$_Locbase@H@std@@2HB
CONST	SEGMENT
?messages@?$_Locbase@H@std@@2HB DD 020H			; std::_Locbase<int>::messages
CONST	ENDS
;	COMDAT ?all@?$_Locbase@H@std@@2HB
CONST	SEGMENT
?all@?$_Locbase@H@std@@2HB DD 03fH			; std::_Locbase<int>::all
CONST	ENDS
;	COMDAT ?none@?$_Locbase@H@std@@2HB
CONST	SEGMENT
?none@?$_Locbase@H@std@@2HB DD 00H			; std::_Locbase<int>::none
CONST	ENDS
;	COMDAT ?skipws@?$_Iosb@H@std@@2W4_Fmtflags@12@B
CONST	SEGMENT
?skipws@?$_Iosb@H@std@@2W4_Fmtflags@12@B DD 01H		; std::_Iosb<int>::skipws
CONST	ENDS
;	COMDAT ?unitbuf@?$_Iosb@H@std@@2W4_Fmtflags@12@B
CONST	SEGMENT
?unitbuf@?$_Iosb@H@std@@2W4_Fmtflags@12@B DD 02H	; std::_Iosb<int>::unitbuf
CONST	ENDS
;	COMDAT ?uppercase@?$_Iosb@H@std@@2W4_Fmtflags@12@B
CONST	SEGMENT
?uppercase@?$_Iosb@H@std@@2W4_Fmtflags@12@B DD 04H	; std::_Iosb<int>::uppercase
CONST	ENDS
;	COMDAT ?showbase@?$_Iosb@H@std@@2W4_Fmtflags@12@B
CONST	SEGMENT
?showbase@?$_Iosb@H@std@@2W4_Fmtflags@12@B DD 08H	; std::_Iosb<int>::showbase
CONST	ENDS
;	COMDAT ?showpoint@?$_Iosb@H@std@@2W4_Fmtflags@12@B
CONST	SEGMENT
?showpoint@?$_Iosb@H@std@@2W4_Fmtflags@12@B DD 010H	; std::_Iosb<int>::showpoint
CONST	ENDS
;	COMDAT ?showpos@?$_Iosb@H@std@@2W4_Fmtflags@12@B
CONST	SEGMENT
?showpos@?$_Iosb@H@std@@2W4_Fmtflags@12@B DD 020H	; std::_Iosb<int>::showpos
CONST	ENDS
;	COMDAT ?left@?$_Iosb@H@std@@2W4_Fmtflags@12@B
CONST	SEGMENT
?left@?$_Iosb@H@std@@2W4_Fmtflags@12@B DD 040H		; std::_Iosb<int>::left
CONST	ENDS
;	COMDAT ?right@?$_Iosb@H@std@@2W4_Fmtflags@12@B
CONST	SEGMENT
?right@?$_Iosb@H@std@@2W4_Fmtflags@12@B DD 080H		; std::_Iosb<int>::right
CONST	ENDS
;	COMDAT ?internal@?$_Iosb@H@std@@2W4_Fmtflags@12@B
CONST	SEGMENT
?internal@?$_Iosb@H@std@@2W4_Fmtflags@12@B DD 0100H	; std::_Iosb<int>::internal
CONST	ENDS
;	COMDAT ?dec@?$_Iosb@H@std@@2W4_Fmtflags@12@B
CONST	SEGMENT
?dec@?$_Iosb@H@std@@2W4_Fmtflags@12@B DD 0200H		; std::_Iosb<int>::dec
CONST	ENDS
;	COMDAT ?oct@?$_Iosb@H@std@@2W4_Fmtflags@12@B
CONST	SEGMENT
?oct@?$_Iosb@H@std@@2W4_Fmtflags@12@B DD 0400H		; std::_Iosb<int>::oct
CONST	ENDS
;	COMDAT ?hex@?$_Iosb@H@std@@2W4_Fmtflags@12@B
CONST	SEGMENT
?hex@?$_Iosb@H@std@@2W4_Fmtflags@12@B DD 0800H		; std::_Iosb<int>::hex
CONST	ENDS
;	COMDAT ?scientific@?$_Iosb@H@std@@2W4_Fmtflags@12@B
CONST	SEGMENT
?scientific@?$_Iosb@H@std@@2W4_Fmtflags@12@B DD 01000H	; std::_Iosb<int>::scientific
CONST	ENDS
;	COMDAT ?fixed@?$_Iosb@H@std@@2W4_Fmtflags@12@B
CONST	SEGMENT
?fixed@?$_Iosb@H@std@@2W4_Fmtflags@12@B DD 02000H	; std::_Iosb<int>::fixed
CONST	ENDS
;	COMDAT ?boolalpha@?$_Iosb@H@std@@2W4_Fmtflags@12@B
CONST	SEGMENT
?boolalpha@?$_Iosb@H@std@@2W4_Fmtflags@12@B DD 04000H	; std::_Iosb<int>::boolalpha
CONST	ENDS
;	COMDAT ?_Stdio@?$_Iosb@H@std@@2W4_Fmtflags@12@B
CONST	SEGMENT
?_Stdio@?$_Iosb@H@std@@2W4_Fmtflags@12@B DD 08000H	; std::_Iosb<int>::_Stdio
CONST	ENDS
;	COMDAT ?adjustfield@?$_Iosb@H@std@@2W4_Fmtflags@12@B
CONST	SEGMENT
?adjustfield@?$_Iosb@H@std@@2W4_Fmtflags@12@B DD 01c0H	; std::_Iosb<int>::adjustfield
CONST	ENDS
;	COMDAT ?basefield@?$_Iosb@H@std@@2W4_Fmtflags@12@B
CONST	SEGMENT
?basefield@?$_Iosb@H@std@@2W4_Fmtflags@12@B DD 0e00H	; std::_Iosb<int>::basefield
CONST	ENDS
;	COMDAT ?floatfield@?$_Iosb@H@std@@2W4_Fmtflags@12@B
CONST	SEGMENT
?floatfield@?$_Iosb@H@std@@2W4_Fmtflags@12@B DD 03000H	; std::_Iosb<int>::floatfield
CONST	ENDS
;	COMDAT ?goodbit@?$_Iosb@H@std@@2W4_Iostate@12@B
CONST	SEGMENT
?goodbit@?$_Iosb@H@std@@2W4_Iostate@12@B DD 00H		; std::_Iosb<int>::goodbit
CONST	ENDS
;	COMDAT ?eofbit@?$_Iosb@H@std@@2W4_Iostate@12@B
CONST	SEGMENT
?eofbit@?$_Iosb@H@std@@2W4_Iostate@12@B DD 01H		; std::_Iosb<int>::eofbit
CONST	ENDS
;	COMDAT ?failbit@?$_Iosb@H@std@@2W4_Iostate@12@B
CONST	SEGMENT
?failbit@?$_Iosb@H@std@@2W4_Iostate@12@B DD 02H		; std::_Iosb<int>::failbit
CONST	ENDS
;	COMDAT ?badbit@?$_Iosb@H@std@@2W4_Iostate@12@B
CONST	SEGMENT
?badbit@?$_Iosb@H@std@@2W4_Iostate@12@B DD 04H		; std::_Iosb<int>::badbit
CONST	ENDS
;	COMDAT ?_Hardfail@?$_Iosb@H@std@@2W4_Iostate@12@B
CONST	SEGMENT
?_Hardfail@?$_Iosb@H@std@@2W4_Iostate@12@B DD 010H	; std::_Iosb<int>::_Hardfail
CONST	ENDS
;	COMDAT ?in@?$_Iosb@H@std@@2W4_Openmode@12@B
CONST	SEGMENT
?in@?$_Iosb@H@std@@2W4_Openmode@12@B DD 01H		; std::_Iosb<int>::in
CONST	ENDS
;	COMDAT ?out@?$_Iosb@H@std@@2W4_Openmode@12@B
CONST	SEGMENT
?out@?$_Iosb@H@std@@2W4_Openmode@12@B DD 02H		; std::_Iosb<int>::out
CONST	ENDS
;	COMDAT ?ate@?$_Iosb@H@std@@2W4_Openmode@12@B
CONST	SEGMENT
?ate@?$_Iosb@H@std@@2W4_Openmode@12@B DD 04H		; std::_Iosb<int>::ate
CONST	ENDS
;	COMDAT ?app@?$_Iosb@H@std@@2W4_Openmode@12@B
CONST	SEGMENT
?app@?$_Iosb@H@std@@2W4_Openmode@12@B DD 08H		; std::_Iosb<int>::app
CONST	ENDS
;	COMDAT ?trunc@?$_Iosb@H@std@@2W4_Openmode@12@B
CONST	SEGMENT
?trunc@?$_Iosb@H@std@@2W4_Openmode@12@B DD 010H		; std::_Iosb<int>::trunc
CONST	ENDS
;	COMDAT ?_Nocreate@?$_Iosb@H@std@@2W4_Openmode@12@B
CONST	SEGMENT
?_Nocreate@?$_Iosb@H@std@@2W4_Openmode@12@B DD 040H	; std::_Iosb<int>::_Nocreate
CONST	ENDS
;	COMDAT ?_Noreplace@?$_Iosb@H@std@@2W4_Openmode@12@B
CONST	SEGMENT
?_Noreplace@?$_Iosb@H@std@@2W4_Openmode@12@B DD 080H	; std::_Iosb<int>::_Noreplace
CONST	ENDS
;	COMDAT ?binary@?$_Iosb@H@std@@2W4_Openmode@12@B
CONST	SEGMENT
?binary@?$_Iosb@H@std@@2W4_Openmode@12@B DD 020H	; std::_Iosb<int>::binary
CONST	ENDS
;	COMDAT ?beg@?$_Iosb@H@std@@2W4_Seekdir@12@B
CONST	SEGMENT
?beg@?$_Iosb@H@std@@2W4_Seekdir@12@B DD 00H		; std::_Iosb<int>::beg
CONST	ENDS
;	COMDAT ?cur@?$_Iosb@H@std@@2W4_Seekdir@12@B
CONST	SEGMENT
?cur@?$_Iosb@H@std@@2W4_Seekdir@12@B DD 01H		; std::_Iosb<int>::cur
CONST	ENDS
;	COMDAT ?end@?$_Iosb@H@std@@2W4_Seekdir@12@B
CONST	SEGMENT
?end@?$_Iosb@H@std@@2W4_Seekdir@12@B DD 02H		; std::_Iosb<int>::end
CONST	ENDS
;	COMDAT ?g_pfnGetThreadACP@ATL@@3P6GIXZA
_DATA	SEGMENT
?g_pfnGetThreadACP@ATL@@3P6GIXZA DD FLAT:?_AtlGetThreadACPThunk@ATL@@YGIXZ ; ATL::g_pfnGetThreadACP
_DATA	ENDS
;	COMDAT ?VT@?$CVarTypeInfo@D@ATL@@2GB
CONST	SEGMENT
?VT@?$CVarTypeInfo@D@ATL@@2GB DW 010H			; ATL::CVarTypeInfo<char>::VT
CONST	ENDS
;	COMDAT ?pmField@?$CVarTypeInfo@D@ATL@@2QQtagVARIANT@@DQ3@
CONST	SEGMENT
?pmField@?$CVarTypeInfo@D@ATL@@2QQtagVARIANT@@DQ3@ DD 08H ; ATL::CVarTypeInfo<char>::pmField
CONST	ENDS
;	COMDAT ?VT@?$CVarTypeInfo@E@ATL@@2GB
CONST	SEGMENT
?VT@?$CVarTypeInfo@E@ATL@@2GB DW 011H			; ATL::CVarTypeInfo<unsigned char>::VT
CONST	ENDS
;	COMDAT ?pmField@?$CVarTypeInfo@E@ATL@@2QQtagVARIANT@@EQ3@
CONST	SEGMENT
?pmField@?$CVarTypeInfo@E@ATL@@2QQtagVARIANT@@EQ3@ DD 08H ; ATL::CVarTypeInfo<unsigned char>::pmField
CONST	ENDS
;	COMDAT ?VT@?$CVarTypeInfo@PAD@ATL@@2GB
CONST	SEGMENT
?VT@?$CVarTypeInfo@PAD@ATL@@2GB DW 04010H		; ATL::CVarTypeInfo<char *>::VT
CONST	ENDS
;	COMDAT ?pmField@?$CVarTypeInfo@PAD@ATL@@2QQtagVARIANT@@PADQ3@
CONST	SEGMENT
?pmField@?$CVarTypeInfo@PAD@ATL@@2QQtagVARIANT@@PADQ3@ DD 08H ; ATL::CVarTypeInfo<char *>::pmField
CONST	ENDS
;	COMDAT ?VT@?$CVarTypeInfo@PAE@ATL@@2GB
CONST	SEGMENT
?VT@?$CVarTypeInfo@PAE@ATL@@2GB DW 04011H		; ATL::CVarTypeInfo<unsigned char *>::VT
CONST	ENDS
;	COMDAT ?pmField@?$CVarTypeInfo@PAE@ATL@@2QQtagVARIANT@@PAEQ3@
CONST	SEGMENT
?pmField@?$CVarTypeInfo@PAE@ATL@@2QQtagVARIANT@@PAEQ3@ DD 08H ; ATL::CVarTypeInfo<unsigned char *>::pmField
CONST	ENDS
;	COMDAT ?VT@?$CVarTypeInfo@F@ATL@@2GB
CONST	SEGMENT
?VT@?$CVarTypeInfo@F@ATL@@2GB DW 02H			; ATL::CVarTypeInfo<short>::VT
CONST	ENDS
;	COMDAT ?pmField@?$CVarTypeInfo@F@ATL@@2QQtagVARIANT@@FQ3@
CONST	SEGMENT
?pmField@?$CVarTypeInfo@F@ATL@@2QQtagVARIANT@@FQ3@ DD 08H ; ATL::CVarTypeInfo<short>::pmField
CONST	ENDS
;	COMDAT ?VT@?$CVarTypeInfo@PAF@ATL@@2GB
CONST	SEGMENT
?VT@?$CVarTypeInfo@PAF@ATL@@2GB DW 04002H		; ATL::CVarTypeInfo<short *>::VT
CONST	ENDS
;	COMDAT ?pmField@?$CVarTypeInfo@PAF@ATL@@2QQtagVARIANT@@PAFQ3@
CONST	SEGMENT
?pmField@?$CVarTypeInfo@PAF@ATL@@2QQtagVARIANT@@PAFQ3@ DD 08H ; ATL::CVarTypeInfo<short *>::pmField
CONST	ENDS
;	COMDAT ?VT@?$CVarTypeInfo@G@ATL@@2GB
CONST	SEGMENT
?VT@?$CVarTypeInfo@G@ATL@@2GB DW 012H			; ATL::CVarTypeInfo<unsigned short>::VT
CONST	ENDS
;	COMDAT ?pmField@?$CVarTypeInfo@G@ATL@@2QQtagVARIANT@@GQ3@
CONST	SEGMENT
?pmField@?$CVarTypeInfo@G@ATL@@2QQtagVARIANT@@GQ3@ DD 08H ; ATL::CVarTypeInfo<unsigned short>::pmField
CONST	ENDS
;	COMDAT ?VT@?$CVarTypeInfo@PAG@ATL@@2GB
CONST	SEGMENT
?VT@?$CVarTypeInfo@PAG@ATL@@2GB DW 04012H		; ATL::CVarTypeInfo<unsigned short *>::VT
CONST	ENDS
;	COMDAT ?pmField@?$CVarTypeInfo@PAG@ATL@@2QQtagVARIANT@@PAGQ3@
CONST	SEGMENT
?pmField@?$CVarTypeInfo@PAG@ATL@@2QQtagVARIANT@@PAGQ3@ DD 08H ; ATL::CVarTypeInfo<unsigned short *>::pmField
CONST	ENDS
;	COMDAT ?VT@?$CVarTypeInfo@H@ATL@@2GB
CONST	SEGMENT
?VT@?$CVarTypeInfo@H@ATL@@2GB DW 03H			; ATL::CVarTypeInfo<int>::VT
CONST	ENDS
;	COMDAT ?pmField@?$CVarTypeInfo@H@ATL@@2QQtagVARIANT@@HQ3@
CONST	SEGMENT
?pmField@?$CVarTypeInfo@H@ATL@@2QQtagVARIANT@@HQ3@ DD 08H ; ATL::CVarTypeInfo<int>::pmField
CONST	ENDS
;	COMDAT ?VT@?$CVarTypeInfo@PAH@ATL@@2GB
CONST	SEGMENT
?VT@?$CVarTypeInfo@PAH@ATL@@2GB DW 04003H		; ATL::CVarTypeInfo<int *>::VT
CONST	ENDS
;	COMDAT ?pmField@?$CVarTypeInfo@PAH@ATL@@2QQtagVARIANT@@PAHQ3@
CONST	SEGMENT
?pmField@?$CVarTypeInfo@PAH@ATL@@2QQtagVARIANT@@PAHQ3@ DD 08H ; ATL::CVarTypeInfo<int *>::pmField
CONST	ENDS
;	COMDAT ?VT@?$CVarTypeInfo@I@ATL@@2GB
CONST	SEGMENT
?VT@?$CVarTypeInfo@I@ATL@@2GB DW 013H			; ATL::CVarTypeInfo<unsigned int>::VT
CONST	ENDS
;	COMDAT ?pmField@?$CVarTypeInfo@I@ATL@@2QQtagVARIANT@@IQ3@
CONST	SEGMENT
?pmField@?$CVarTypeInfo@I@ATL@@2QQtagVARIANT@@IQ3@ DD 08H ; ATL::CVarTypeInfo<unsigned int>::pmField
CONST	ENDS
;	COMDAT ?VT@?$CVarTypeInfo@PAI@ATL@@2GB
CONST	SEGMENT
?VT@?$CVarTypeInfo@PAI@ATL@@2GB DW 04013H		; ATL::CVarTypeInfo<unsigned int *>::VT
CONST	ENDS
;	COMDAT ?pmField@?$CVarTypeInfo@PAI@ATL@@2QQtagVARIANT@@PAIQ3@
CONST	SEGMENT
?pmField@?$CVarTypeInfo@PAI@ATL@@2QQtagVARIANT@@PAIQ3@ DD 08H ; ATL::CVarTypeInfo<unsigned int *>::pmField
CONST	ENDS
;	COMDAT ?VT@?$CVarTypeInfo@J@ATL@@2GB
CONST	SEGMENT
?VT@?$CVarTypeInfo@J@ATL@@2GB DW 03H			; ATL::CVarTypeInfo<long>::VT
CONST	ENDS
;	COMDAT ?pmField@?$CVarTypeInfo@J@ATL@@2QQtagVARIANT@@JQ3@
CONST	SEGMENT
?pmField@?$CVarTypeInfo@J@ATL@@2QQtagVARIANT@@JQ3@ DD 08H ; ATL::CVarTypeInfo<long>::pmField
CONST	ENDS
;	COMDAT ?VT@?$CVarTypeInfo@PAJ@ATL@@2GB
CONST	SEGMENT
?VT@?$CVarTypeInfo@PAJ@ATL@@2GB DW 04003H		; ATL::CVarTypeInfo<long *>::VT
CONST	ENDS
;	COMDAT ?pmField@?$CVarTypeInfo@PAJ@ATL@@2QQtagVARIANT@@PAJQ3@
CONST	SEGMENT
?pmField@?$CVarTypeInfo@PAJ@ATL@@2QQtagVARIANT@@PAJQ3@ DD 08H ; ATL::CVarTypeInfo<long *>::pmField
CONST	ENDS
;	COMDAT ?VT@?$CVarTypeInfo@K@ATL@@2GB
CONST	SEGMENT
?VT@?$CVarTypeInfo@K@ATL@@2GB DW 013H			; ATL::CVarTypeInfo<unsigned long>::VT
CONST	ENDS
;	COMDAT ?pmField@?$CVarTypeInfo@K@ATL@@2QQtagVARIANT@@KQ3@
CONST	SEGMENT
?pmField@?$CVarTypeInfo@K@ATL@@2QQtagVARIANT@@KQ3@ DD 08H ; ATL::CVarTypeInfo<unsigned long>::pmField
CONST	ENDS
;	COMDAT ?VT@?$CVarTypeInfo@PAK@ATL@@2GB
CONST	SEGMENT
?VT@?$CVarTypeInfo@PAK@ATL@@2GB DW 04013H		; ATL::CVarTypeInfo<unsigned long *>::VT
CONST	ENDS
;	COMDAT ?pmField@?$CVarTypeInfo@PAK@ATL@@2QQtagVARIANT@@PAKQ3@
CONST	SEGMENT
?pmField@?$CVarTypeInfo@PAK@ATL@@2QQtagVARIANT@@PAKQ3@ DD 08H ; ATL::CVarTypeInfo<unsigned long *>::pmField
CONST	ENDS
;	COMDAT ?VT@?$CVarTypeInfo@_J@ATL@@2GB
CONST	SEGMENT
?VT@?$CVarTypeInfo@_J@ATL@@2GB DW 014H			; ATL::CVarTypeInfo<__int64>::VT
CONST	ENDS
;	COMDAT ?pmField@?$CVarTypeInfo@_J@ATL@@2QQtagVARIANT@@_JQ3@
CONST	SEGMENT
?pmField@?$CVarTypeInfo@_J@ATL@@2QQtagVARIANT@@_JQ3@ DD 08H ; ATL::CVarTypeInfo<__int64>::pmField
CONST	ENDS
;	COMDAT ?VT@?$CVarTypeInfo@PA_J@ATL@@2GB
CONST	SEGMENT
?VT@?$CVarTypeInfo@PA_J@ATL@@2GB DW 04014H		; ATL::CVarTypeInfo<__int64 *>::VT
CONST	ENDS
;	COMDAT ?pmField@?$CVarTypeInfo@PA_J@ATL@@2QQtagVARIANT@@PA_JQ3@
CONST	SEGMENT
?pmField@?$CVarTypeInfo@PA_J@ATL@@2QQtagVARIANT@@PA_JQ3@ DD 08H ; ATL::CVarTypeInfo<__int64 *>::pmField
CONST	ENDS
;	COMDAT ?VT@?$CVarTypeInfo@_K@ATL@@2GB
CONST	SEGMENT
?VT@?$CVarTypeInfo@_K@ATL@@2GB DW 015H			; ATL::CVarTypeInfo<unsigned __int64>::VT
CONST	ENDS
;	COMDAT ?pmField@?$CVarTypeInfo@_K@ATL@@2QQtagVARIANT@@_KQ3@
CONST	SEGMENT
?pmField@?$CVarTypeInfo@_K@ATL@@2QQtagVARIANT@@_KQ3@ DD 08H ; ATL::CVarTypeInfo<unsigned __int64>::pmField
CONST	ENDS
;	COMDAT ?VT@?$CVarTypeInfo@PA_K@ATL@@2GB
CONST	SEGMENT
?VT@?$CVarTypeInfo@PA_K@ATL@@2GB DW 04015H		; ATL::CVarTypeInfo<unsigned __int64 *>::VT
CONST	ENDS
;	COMDAT ?pmField@?$CVarTypeInfo@PA_K@ATL@@2QQtagVARIANT@@PA_KQ3@
CONST	SEGMENT
?pmField@?$CVarTypeInfo@PA_K@ATL@@2QQtagVARIANT@@PA_KQ3@ DD 08H ; ATL::CVarTypeInfo<unsigned __int64 *>::pmField
CONST	ENDS
;	COMDAT ?VT@?$CVarTypeInfo@M@ATL@@2GB
CONST	SEGMENT
?VT@?$CVarTypeInfo@M@ATL@@2GB DW 04H			; ATL::CVarTypeInfo<float>::VT
CONST	ENDS
;	COMDAT ?pmField@?$CVarTypeInfo@M@ATL@@2QQtagVARIANT@@MQ3@
CONST	SEGMENT
?pmField@?$CVarTypeInfo@M@ATL@@2QQtagVARIANT@@MQ3@ DD 08H ; ATL::CVarTypeInfo<float>::pmField
CONST	ENDS
;	COMDAT ?VT@?$CVarTypeInfo@PAM@ATL@@2GB
CONST	SEGMENT
?VT@?$CVarTypeInfo@PAM@ATL@@2GB DW 04004H		; ATL::CVarTypeInfo<float *>::VT
CONST	ENDS
;	COMDAT ?pmField@?$CVarTypeInfo@PAM@ATL@@2QQtagVARIANT@@PAMQ3@
CONST	SEGMENT
?pmField@?$CVarTypeInfo@PAM@ATL@@2QQtagVARIANT@@PAMQ3@ DD 08H ; ATL::CVarTypeInfo<float *>::pmField
CONST	ENDS
;	COMDAT ?VT@?$CVarTypeInfo@N@ATL@@2GB
CONST	SEGMENT
?VT@?$CVarTypeInfo@N@ATL@@2GB DW 05H			; ATL::CVarTypeInfo<double>::VT
CONST	ENDS
;	COMDAT ?pmField@?$CVarTypeInfo@N@ATL@@2QQtagVARIANT@@NQ3@
CONST	SEGMENT
?pmField@?$CVarTypeInfo@N@ATL@@2QQtagVARIANT@@NQ3@ DD 08H ; ATL::CVarTypeInfo<double>::pmField
CONST	ENDS
;	COMDAT ?VT@?$CVarTypeInfo@PAN@ATL@@2GB
CONST	SEGMENT
?VT@?$CVarTypeInfo@PAN@ATL@@2GB DW 04005H		; ATL::CVarTypeInfo<double *>::VT
CONST	ENDS
;	COMDAT ?pmField@?$CVarTypeInfo@PAN@ATL@@2QQtagVARIANT@@PANQ3@
CONST	SEGMENT
?pmField@?$CVarTypeInfo@PAN@ATL@@2QQtagVARIANT@@PANQ3@ DD 08H ; ATL::CVarTypeInfo<double *>::pmField
CONST	ENDS
;	COMDAT ?VT@?$CVarTypeInfo@UtagVARIANT@@@ATL@@2GB
CONST	SEGMENT
?VT@?$CVarTypeInfo@UtagVARIANT@@@ATL@@2GB DW 0cH	; ATL::CVarTypeInfo<tagVARIANT>::VT
CONST	ENDS
;	COMDAT ?VT@?$CVarTypeInfo@PA_W@ATL@@2GB
CONST	SEGMENT
?VT@?$CVarTypeInfo@PA_W@ATL@@2GB DW 08H			; ATL::CVarTypeInfo<wchar_t *>::VT
CONST	ENDS
;	COMDAT ?pmField@?$CVarTypeInfo@PA_W@ATL@@2QQtagVARIANT@@PA_WQ3@
CONST	SEGMENT
?pmField@?$CVarTypeInfo@PA_W@ATL@@2QQtagVARIANT@@PA_WQ3@ DD 08H ; ATL::CVarTypeInfo<wchar_t *>::pmField
CONST	ENDS
;	COMDAT ?VT@?$CVarTypeInfo@PAPA_W@ATL@@2GB
CONST	SEGMENT
?VT@?$CVarTypeInfo@PAPA_W@ATL@@2GB DW 04008H		; ATL::CVarTypeInfo<wchar_t * *>::VT
CONST	ENDS
;	COMDAT ?pmField@?$CVarTypeInfo@PAPA_W@ATL@@2QQtagVARIANT@@PAPA_WQ3@
CONST	SEGMENT
?pmField@?$CVarTypeInfo@PAPA_W@ATL@@2QQtagVARIANT@@PAPA_WQ3@ DD 08H ; ATL::CVarTypeInfo<wchar_t * *>::pmField
CONST	ENDS
;	COMDAT ?VT@?$CVarTypeInfo@PAUIUnknown@@@ATL@@2GB
CONST	SEGMENT
?VT@?$CVarTypeInfo@PAUIUnknown@@@ATL@@2GB DW 0dH	; ATL::CVarTypeInfo<IUnknown *>::VT
CONST	ENDS
;	COMDAT ?pmField@?$CVarTypeInfo@PAUIUnknown@@@ATL@@2QQtagVARIANT@@PAUIUnknown@@Q3@
CONST	SEGMENT
?pmField@?$CVarTypeInfo@PAUIUnknown@@@ATL@@2QQtagVARIANT@@PAUIUnknown@@Q3@ DD 08H ; ATL::CVarTypeInfo<IUnknown *>::pmField
CONST	ENDS
;	COMDAT ?VT@?$CVarTypeInfo@PAPAUIUnknown@@@ATL@@2GB
CONST	SEGMENT
?VT@?$CVarTypeInfo@PAPAUIUnknown@@@ATL@@2GB DW 0400dH	; ATL::CVarTypeInfo<IUnknown * *>::VT
CONST	ENDS
;	COMDAT ?pmField@?$CVarTypeInfo@PAPAUIUnknown@@@ATL@@2QQtagVARIANT@@PAPAUIUnknown@@Q3@
CONST	SEGMENT
?pmField@?$CVarTypeInfo@PAPAUIUnknown@@@ATL@@2QQtagVARIANT@@PAPAUIUnknown@@Q3@ DD 08H ; ATL::CVarTypeInfo<IUnknown * *>::pmField
CONST	ENDS
;	COMDAT ?VT@?$CVarTypeInfo@PAUIDispatch@@@ATL@@2GB
CONST	SEGMENT
?VT@?$CVarTypeInfo@PAUIDispatch@@@ATL@@2GB DW 09H	; ATL::CVarTypeInfo<IDispatch *>::VT
CONST	ENDS
;	COMDAT ?pmField@?$CVarTypeInfo@PAUIDispatch@@@ATL@@2QQtagVARIANT@@PAUIDispatch@@Q3@
CONST	SEGMENT
?pmField@?$CVarTypeInfo@PAUIDispatch@@@ATL@@2QQtagVARIANT@@PAUIDispatch@@Q3@ DD 08H ; ATL::CVarTypeInfo<IDispatch *>::pmField
CONST	ENDS
;	COMDAT ?VT@?$CVarTypeInfo@PAPAUIDispatch@@@ATL@@2GB
CONST	SEGMENT
?VT@?$CVarTypeInfo@PAPAUIDispatch@@@ATL@@2GB DW 04009H	; ATL::CVarTypeInfo<IDispatch * *>::VT
CONST	ENDS
;	COMDAT ?pmField@?$CVarTypeInfo@PAPAUIDispatch@@@ATL@@2QQtagVARIANT@@PAPAUIDispatch@@Q3@
CONST	SEGMENT
?pmField@?$CVarTypeInfo@PAPAUIDispatch@@@ATL@@2QQtagVARIANT@@PAPAUIDispatch@@Q3@ DD 08H ; ATL::CVarTypeInfo<IDispatch * *>::pmField
CONST	ENDS
;	COMDAT ?VT@?$CVarTypeInfo@TtagCY@@@ATL@@2GB
CONST	SEGMENT
?VT@?$CVarTypeInfo@TtagCY@@@ATL@@2GB DW 06H		; ATL::CVarTypeInfo<tagCY>::VT
CONST	ENDS
;	COMDAT ?pmField@?$CVarTypeInfo@TtagCY@@@ATL@@2QQtagVARIANT@@TtagCY@@Q3@
CONST	SEGMENT
?pmField@?$CVarTypeInfo@TtagCY@@@ATL@@2QQtagVARIANT@@TtagCY@@Q3@ DD 08H ; ATL::CVarTypeInfo<tagCY>::pmField
CONST	ENDS
;	COMDAT ?VT@?$CVarTypeInfo@PATtagCY@@@ATL@@2GB
CONST	SEGMENT
?VT@?$CVarTypeInfo@PATtagCY@@@ATL@@2GB DW 04006H	; ATL::CVarTypeInfo<tagCY *>::VT
CONST	ENDS
;	COMDAT ?pmField@?$CVarTypeInfo@PATtagCY@@@ATL@@2QQtagVARIANT@@PATtagCY@@Q3@
CONST	SEGMENT
?pmField@?$CVarTypeInfo@PATtagCY@@@ATL@@2QQtagVARIANT@@PATtagCY@@Q3@ DD 08H ; ATL::CVarTypeInfo<tagCY *>::pmField
CONST	ENDS
;	COMDAT _LIBID_ATLLib
CONST	SEGMENT
_LIBID_ATLLib DD 044ec0535H
	DW	0400fH
	DW	011d0H
	DB	09dH
	DB	0cdH
	DB	00H
	DB	0a0H
	DB	0c9H
	DB	03H
	DB	091H
	DB	0d3H
CONST	ENDS
;	COMDAT _CLSID_Registrar
CONST	SEGMENT
_CLSID_Registrar DD 044ec053aH
	DW	0400fH
	DW	011d0H
	DB	09dH
	DB	0cdH
	DB	00H
	DB	0a0H
	DB	0c9H
	DB	03H
	DB	091H
	DB	0d3H
CONST	ENDS
;	COMDAT _IID_IRegistrar
CONST	SEGMENT
_IID_IRegistrar DD 044ec053bH
	DW	0400fH
	DW	011d0H
	DB	09dH
	DB	0cdH
	DB	00H
	DB	0a0H
	DB	0c9H
	DB	03H
	DB	091H
	DB	0d3H
CONST	ENDS
;	COMDAT _IID_IAxWinHostWindow
CONST	SEGMENT
_IID_IAxWinHostWindow DD 0b6ea2050H
	DW	048aH
	DW	011d1H
	DB	082H
	DB	0b9H
	DB	00H
	DB	0c0H
	DB	04fH
	DB	0b9H
	DB	094H
	DB	02eH
CONST	ENDS
;	COMDAT _IID_IAxWinAmbientDispatch
CONST	SEGMENT
_IID_IAxWinAmbientDispatch DD 0b6ea2051H
	DW	048aH
	DW	011d1H
	DB	082H
	DB	0b9H
	DB	00H
	DB	0c0H
	DB	04fH
	DB	0b9H
	DB	094H
	DB	02eH
CONST	ENDS
;	COMDAT _IID_IInternalConnection
CONST	SEGMENT
_IID_IInternalConnection DD 072ad0770H
	DW	06a9fH
	DW	011d1H
	DB	0bcH
	DB	0ecH
	DB	00H
	DB	060H
	DB	08H
	DB	08fH
	DB	044H
	DB	04eH
CONST	ENDS
;	COMDAT _IID_IDocHostUIHandlerDispatch
CONST	SEGMENT
_IID_IDocHostUIHandlerDispatch DD 0425b5af0H
	DW	065f1H
	DW	011d1H
	DB	096H
	DB	011H
	DB	00H
	DB	00H
	DB	0f8H
	DB	01eH
	DB	0dH
	DB	0dH
CONST	ENDS
;	COMDAT _IID_IAxWinHostWindowLic
CONST	SEGMENT
_IID_IAxWinHostWindowLic DD 03935bda8H
	DW	04ed9H
	DW	0495cH
	DB	086H
	DB	050H
	DB	0e0H
	DB	01fH
	DB	0c1H
	DB	0e3H
	DB	08aH
	DB	04bH
CONST	ENDS
;	COMDAT _IID_IAxWinAmbientDispatchEx
CONST	SEGMENT
_IID_IAxWinAmbientDispatchEx DD 0b2d0778bH
	DW	0ac99H
	DW	04c58H
	DB	0a5H
	DB	0c8H
	DB	0e7H
	DB	072H
	DB	04eH
	DB	053H
	DB	016H
	DB	0b5H
CONST	ENDS
;	COMDAT _CLSID_StdGlobalInterfaceTable
CONST	SEGMENT
_CLSID_StdGlobalInterfaceTable DD 0323H
	DW	00H
	DW	00H
	DB	0c0H
	DB	00H
	DB	00H
	DB	00H
	DB	00H
	DB	00H
	DB	00H
	DB	046H
CONST	ENDS
;	COMDAT ___pobjMapEntryFirst
ATL$__a	SEGMENT
___pobjMapEntryFirst DD 00H
ATL$__a	ENDS
;	COMDAT ___pobjMapEntryLast
ATL$__z	SEGMENT
___pobjMapEntryLast DD 00H
ATL$__z	ENDS
CONST	SEGMENT
	ORG $+3
$SG78743 DB	'S', 00H
	ORG $+2
_szStringVal DD	FLAT:$SG78743
$SG78745 DB	'M', 00H
	ORG $+2
_multiszStringVal DD FLAT:$SG78745
$SG78747 DB	'D', 00H
	ORG $+2
_szDwordVal DD	FLAT:$SG78747
$SG78749 DB	'B', 00H
	ORG $+2
_szBinaryVal DD	FLAT:$SG78749
$SG78751 DB	'Val', 00H
_szValToken DD	FLAT:$SG78751
$SG78753 DB	'ForceRemove', 00H
_szForceRemove DD FLAT:$SG78753
$SG78755 DB	'NoRemove', 00H
	ORG $+3
_szNoRemove DD	FLAT:$SG78755
$SG78757 DB	'Delete', 00H
	ORG $+1
_szDelete DD	FLAT:$SG78757
CONST	ENDS
;	COMDAT ?MAX_VALUE@CRegParser@ATL@@1HB
CONST	SEGMENT
?MAX_VALUE@CRegParser@ATL@@1HB DD 01000H		; ATL::CRegParser::MAX_VALUE
CONST	ENDS
;	COMDAT ?MAX_TYPE@CRegParser@ATL@@1HB
CONST	SEGMENT
?MAX_TYPE@CRegParser@ATL@@1HB DD 01000H			; ATL::CRegParser::MAX_TYPE
CONST	ENDS
CONST	SEGMENT
$SG79404 DB	'AppID', 00H
	ORG $+2
$SG79405 DB	'CLSID', 00H
	ORG $+2
$SG79406 DB	'Component Categories', 00H
	ORG $+3
$SG79407 DB	'FileType', 00H
	ORG $+3
$SG79408 DB	'Interface', 00H
	ORG $+2
$SG79409 DB	'Hardware', 00H
	ORG $+3
$SG79410 DB	'Mime', 00H
	ORG $+3
$SG79411 DB	'SAM', 00H
$SG79412 DB	'SECURITY', 00H
	ORG $+3
$SG79413 DB	'SYSTEM', 00H
	ORG $+1
$SG79414 DB	'Software', 00H
	ORG $+3
$SG79415 DB	'TypeLib', 00H
CONST	ENDS
;	COMDAT ?rgszNeverDelete@CRegParser@ATL@@1QBQBDB
CONST	SEGMENT
?rgszNeverDelete@CRegParser@ATL@@1QBQBDB DD FLAT:$SG79404 ; ATL::CRegParser::rgszNeverDelete
	DD	FLAT:$SG79405
	DD	FLAT:$SG79406
	DD	FLAT:$SG79407
	DD	FLAT:$SG79408
	DD	FLAT:$SG79409
	DD	FLAT:$SG79410
	DD	FLAT:$SG79411
	DD	FLAT:$SG79412
	DD	FLAT:$SG79413
	DD	FLAT:$SG79414
	DD	FLAT:$SG79415
CONST	ENDS
;	COMDAT ?cbNeverDelete@CRegParser@ATL@@1HB
CONST	SEGMENT
?cbNeverDelete@CRegParser@ATL@@1HB DD 0cH		; ATL::CRegParser::cbNeverDelete
CONST	ENDS
CONST	SEGMENT
$SG80273 DB	'lpszPathName != 0', 00H
	ORG $+6
$SG80274 DB	'D:\Program Files (x86)\Microsoft Visual Studio .NET 2003'
	DB	'\Vc7\atlmfc\include\atlbase.h', 00H
CONST	ENDS
;	COMDAT ?_strthunks@ATL@@3U_AtlStringThunks@1@A
_DATA	SEGMENT
?_strthunks@ATL@@3U_AtlStringThunks@1@A DD FLAT:?CompareStringWThunk@ATL@@YGHKKPB_WH0H@Z ; ATL::_strthunks
	DD	FLAT:?GetStringTypeExWThunk@ATL@@YGHKKPB_WHPAG@Z
	DD	FLAT:?lstrcmpiWThunk@ATL@@YGHPB_W0@Z
	DD	FLAT:?CharLowerWThunk@ATL@@YGPA_WPA_W@Z
	DD	FLAT:?CharUpperWThunk@ATL@@YGPA_WPA_W@Z
	DD	FLAT:?GetEnvironmentVariableWThunk@ATL@@YGKPB_WPA_WK@Z
_DATA	ENDS
;	COMDAT ?c_bIsMFCDLLTraits@?$_MFCDLLTraitsCheck@DV?$StrTraitATL@DV?$ChTraitsCRT@D@ATL@@@ATL@@@_CSTRING_IMPL_@ATL@@2_NB
CONST	SEGMENT
?c_bIsMFCDLLTraits@?$_MFCDLLTraitsCheck@DV?$StrTraitATL@DV?$ChTraitsCRT@D@ATL@@@ATL@@@_CSTRING_IMPL_@ATL@@2_NB DB 00H ; ATL::_CSTRING_IMPL_::_MFCDLLTraitsCheck<char,ATL::StrTraitATL<char,ATL::ChTraitsCRT<char> > >::c_bIsMFCDLLTraits
CONST	ENDS
;	COMDAT ?c_bIsMFCDLLTraits@?$_MFCDLLTraitsCheck@_WV?$StrTraitATL@_WV?$ChTraitsCRT@_W@ATL@@@ATL@@@_CSTRING_IMPL_@ATL@@2_NB
CONST	SEGMENT
?c_bIsMFCDLLTraits@?$_MFCDLLTraitsCheck@_WV?$StrTraitATL@_WV?$ChTraitsCRT@_W@ATL@@@ATL@@@_CSTRING_IMPL_@ATL@@2_NB DB 00H ; ATL::_CSTRING_IMPL_::_MFCDLLTraitsCheck<wchar_t,ATL::StrTraitATL<wchar_t,ATL::ChTraitsCRT<wchar_t> > >::c_bIsMFCDLLTraits
CONST	ENDS
;	COMDAT ?Millisecond@CFileTime@ATL@@2_KB
CONST	SEGMENT
?Millisecond@CFileTime@ATL@@2_KB DQ 0000000000002710H	; ATL::CFileTime::Millisecond
CONST	ENDS
;	COMDAT ?Second@CFileTime@ATL@@2_KB
CONST	SEGMENT
?Second@CFileTime@ATL@@2_KB DQ 0000000000989680H	; ATL::CFileTime::Second
CONST	ENDS
;	COMDAT ?Minute@CFileTime@ATL@@2_KB
CONST	SEGMENT
?Minute@CFileTime@ATL@@2_KB DQ 0000000023c34600H	; ATL::CFileTime::Minute
CONST	ENDS
;	COMDAT ?Hour@CFileTime@ATL@@2_KB
CONST	SEGMENT
?Hour@CFileTime@ATL@@2_KB DQ 0000000861c46800H		; ATL::CFileTime::Hour
CONST	ENDS
;	COMDAT ?Day@CFileTime@ATL@@2_KB
CONST	SEGMENT
?Day@CFileTime@ATL@@2_KB DQ 000000c92a69c000H		; ATL::CFileTime::Day
CONST	ENDS
;	COMDAT ?Week@CFileTime@ATL@@2_KB
CONST	SEGMENT
?Week@CFileTime@ATL@@2_KB DQ 0000058028e44000H		; ATL::CFileTime::Week
CONST	ENDS
CONST	SEGMENT
	ORG $+2
$SG86608 DB	'Invalid DateTime', 00H
CONST	ENDS
;	COMDAT ?szInvalidDateTime@ATL@@3QBDB
CONST	SEGMENT
?szInvalidDateTime@ATL@@3QBDB DD FLAT:$SG86608		; ATL::szInvalidDateTime
CONST	ENDS
CONST	SEGMENT
	ORG $+3
$SG86610 DB	'Invalid DateTimeSpan', 00H
CONST	ENDS
;	COMDAT ?szInvalidDateTimeSpan@ATL@@3QBDB
CONST	SEGMENT
?szInvalidDateTimeSpan@ATL@@3QBDB DD FLAT:$SG86610	; ATL::szInvalidDateTimeSpan
CONST	ENDS
CONST	SEGMENT
	ORG $+3
$SG86858 DB	'%s', 00H
	ORG $+1
$SG86864 DB	'%s', 00H
	ORG $+1
$SG86872 DB	'%s\Formats\', 00H
$SG86879 DB	'%stips.ini', 00H
	ORG $+1
$SG86886 DB	'\skin\svr.img', 00H
	ORG $+2
$SG86887 DB	'%s%s', 00H
	ORG $+3
$SG86892 DB	'regsvr', 00H
	ORG $+1
$SG86893 DB	'RegServer', 00H
	ORG $+2
$SG86898 DB	'updatesvr', 00H
	ORG $+2
$SG86899 DB	'UpdateServer', 00H
	ORG $+3
$SG86904 DB	'reallogserver', 00H
	ORG $+2
$SG86905 DB	'LogMsg', 00H
	ORG $+1
$SG86910 DB	'uplogsvr', 00H
	ORG $+3
$SG86911 DB	'LogServer', 00H
	ORG $+2
$SG86916 DB	'confsvr', 00H
$SG86917 DB	'ConfigServer', 00H
	ORG $+3
$SG86922 DB	'Version', 00H
$SG86923 DB	'Config', 00H
	ORG $+1
$SG86930 DB	'\log\act.log', 00H
	ORG $+3
$SG86931 DB	'%s%s', 00H
	ORG $+3
$SG86944 DB	'ADDataServer', 00H
	ORG $+3
$SG86945 DB	'ADDataSvr', 00H
	ORG $+2
$SG86954 DB	'AD_DATE', 00H
$SG86967 DB	'AD_DATE', 00H
$SG86971 DB	'delay', 00H
	ORG $+2
$SG86972 DB	'UpdateTips', 00H
CONST	ENDS
PUBLIC	?InterlockedExchangePointer@@YGPAXPAPAXPAX@Z	; InterlockedExchangePointer
PUBLIC	?_AtlGetThreadACPFake@ATL@@YGIXZ		; ATL::_AtlGetThreadACPFake
PUBLIC	?_AtlGetThreadACPReal@ATL@@YGIXZ		; ATL::_AtlGetThreadACPReal
EXTRN	__RTC_InitBase:NEAR
EXTRN	__RTC_Shutdown:NEAR
EXTRN	__RTC_CheckEsp:NEAR
EXTRN	___security_cookie:DWORD
EXTRN	__imp__GetVersionExA@4:NEAR
EXTRN	@_RTC_CheckStackVars@8:NEAR
EXTRN	@__security_check_cookie@4:NEAR
;	COMDAT rtc$IMZ
; File d:\program files (x86)\microsoft visual studio .net 2003\vc7\atlmfc\include\atlconv.h
rtc$IMZ	SEGMENT
__RTC_InitBase.rtc$IMZ DD FLAT:__RTC_InitBase
rtc$IMZ	ENDS
;	COMDAT rtc$TMZ
rtc$TMZ	SEGMENT
__RTC_Shutdown.rtc$TMZ DD FLAT:__RTC_Shutdown
; Function compile flags: /Odt /RTCsu
rtc$TMZ	ENDS
;	COMDAT ?_AtlGetThreadACPThunk@ATL@@YGIXZ
_TEXT	SEGMENT
_pfnGetThreadACP$ = -164				; size = 4
_ver$ = -156						; size = 148
__$ArrayPad$ = -4					; size = 4
__$ReturnAddr$ = 4					; size = 4
?_AtlGetThreadACPThunk@ATL@@YGIXZ PROC NEAR		; ATL::_AtlGetThreadACPThunk, COMDAT

; 134  : {

  00000	55		 push	 ebp
  00001	8b ec		 mov	 ebp, esp
  00003	81 ec a4 00 00
	00		 sub	 esp, 164		; 000000a4H
  00009	56		 push	 esi
  0000a	57		 push	 edi
  0000b	8d bd 5c ff ff
	ff		 lea	 edi, DWORD PTR [ebp-164]
  00011	b9 29 00 00 00	 mov	 ecx, 41			; 00000029H
  00016	b8 cc cc cc cc	 mov	 eax, -858993460		; ccccccccH
  0001b	f3 ab		 rep stosd
  0001d	a1 00 00 00 00	 mov	 eax, DWORD PTR ___security_cookie
  00022	89 45 fc	 mov	 DWORD PTR __$ArrayPad$[ebp], eax

; 135  : 	OSVERSIONINFO ver;
; 136  : 	ATLGETTHREADACP pfnGetThreadACP;
; 137  : 
; 138  : 	ver.dwOSVersionInfoSize = sizeof( ver );

  00025	c7 85 64 ff ff
	ff 94 00 00 00	 mov	 DWORD PTR _ver$[ebp], 148 ; 00000094H

; 139  : 	::GetVersionEx( &ver );

  0002f	8b f4		 mov	 esi, esp
  00031	8d 85 64 ff ff
	ff		 lea	 eax, DWORD PTR _ver$[ebp]
  00037	50		 push	 eax
  00038	ff 15 00 00 00
	00		 call	 DWORD PTR __imp__GetVersionExA@4
  0003e	3b f4		 cmp	 esi, esp
  00040	e8 00 00 00 00	 call	 __RTC_CheckEsp

; 140  : 	if( (ver.dwPlatformId == VER_PLATFORM_WIN32_NT) && (ver.dwMajorVersion >= 5) )

  00045	83 bd 74 ff ff
	ff 02		 cmp	 DWORD PTR _ver$[ebp+16], 2
  0004c	75 15		 jne	 SHORT $L66309
  0004e	83 bd 68 ff ff
	ff 05		 cmp	 DWORD PTR _ver$[ebp+4], 5
  00055	72 0c		 jb	 SHORT $L66309

; 141  : 	{
; 142  : 		// On Win2K, CP_THREAD_ACP is supported
; 143  : 		pfnGetThreadACP = _AtlGetThreadACPReal;

  00057	c7 85 5c ff ff
	ff 00 00 00 00	 mov	 DWORD PTR _pfnGetThreadACP$[ebp], OFFSET FLAT:?_AtlGetThreadACPReal@ATL@@YGIXZ ; ATL::_AtlGetThreadACPReal

; 144  : 	}
; 145  : 	else

  00061	eb 0a		 jmp	 SHORT $L66310
$L66309:

; 146  : 	{
; 147  : 		pfnGetThreadACP = _AtlGetThreadACPFake;

  00063	c7 85 5c ff ff
	ff 00 00 00 00	 mov	 DWORD PTR _pfnGetThreadACP$[ebp], OFFSET FLAT:?_AtlGetThreadACPFake@ATL@@YGIXZ ; ATL::_AtlGetThreadACPFake
$L66310:

; 148  : 	}
; 149  : 	InterlockedExchangePointer( reinterpret_cast< void** >(&g_pfnGetThreadACP), pfnGetThreadACP );

  0006d	8b 8d 5c ff ff
	ff		 mov	 ecx, DWORD PTR _pfnGetThreadACP$[ebp]
  00073	51		 push	 ecx
  00074	68 00 00 00 00	 push	 OFFSET FLAT:?g_pfnGetThreadACP@ATL@@3P6GIXZA ; ATL::g_pfnGetThreadACP
  00079	e8 00 00 00 00	 call	 ?InterlockedExchangePointer@@YGPAXPAPAXPAX@Z ; InterlockedExchangePointer

; 150  : 
; 151  : 	return( g_pfnGetThreadACP() );

  0007e	8b f4		 mov	 esi, esp
  00080	ff 15 00 00 00
	00		 call	 DWORD PTR ?g_pfnGetThreadACP@ATL@@3P6GIXZA ; ATL::g_pfnGetThreadACP
  00086	3b f4		 cmp	 esi, esp
  00088	e8 00 00 00 00	 call	 __RTC_CheckEsp

; 152  : }

  0008d	52		 push	 edx
  0008e	8b cd		 mov	 ecx, ebp
  00090	50		 push	 eax
  00091	8d 15 00 00 00
	00		 lea	 edx, DWORD PTR $L92918
  00097	e8 00 00 00 00	 call	 @_RTC_CheckStackVars@8
  0009c	58		 pop	 eax
  0009d	5a		 pop	 edx
  0009e	8b 4d fc	 mov	 ecx, DWORD PTR __$ArrayPad$[ebp]
  000a1	e8 00 00 00 00	 call	 @__security_check_cookie@4
  000a6	5f		 pop	 edi
  000a7	5e		 pop	 esi
  000a8	81 c4 a4 00 00
	00		 add	 esp, 164		; 000000a4H
  000ae	3b ec		 cmp	 ebp, esp
  000b0	e8 00 00 00 00	 call	 __RTC_CheckEsp
  000b5	8b e5		 mov	 esp, ebp
  000b7	5d		 pop	 ebp
  000b8	c3		 ret	 0
$L92918:
  000b9	01 00 00 00	 DD	 1
  000bd	00 00 00 00	 DD	 $L92917
$L92917:
  000c1	64 ff ff ff	 DD	 -156			; ffffff64H
  000c5	94 00 00 00	 DD	 148			; 00000094H
  000c9	00 00 00 00	 DD	 $L92914
$L92914:
  000cd	76		 DB	 118			; 00000076H
  000ce	65		 DB	 101			; 00000065H
  000cf	72		 DB	 114			; 00000072H
  000d0	00		 DB	 0
?_AtlGetThreadACPThunk@ATL@@YGIXZ ENDP			; ATL::_AtlGetThreadACPThunk
_TEXT	ENDS
EXTRN	__imp__InterlockedExchange@8:NEAR
; Function compile flags: /Odt /RTCsu
;	COMDAT ?InterlockedExchangePointer@@YGPAXPAPAXPAX@Z
_TEXT	SEGMENT
_pp$ = 8						; size = 4
_pNew$ = 12						; size = 4
?InterlockedExchangePointer@@YGPAXPAPAXPAX@Z PROC NEAR	; InterlockedExchangePointer, COMDAT

; 91   : {

  00000	55		 push	 ebp
  00001	8b ec		 mov	 ebp, esp
  00003	56		 push	 esi

; 92   : 	return( reinterpret_cast<void*>(static_cast<LONG_PTR>(::InterlockedExchange(reinterpret_cast<LONG*>(pp), static_cast<LONG>(reinterpret_cast<LONG_PTR>(pNew))))) );

  00004	8b f4		 mov	 esi, esp
  00006	8b 45 0c	 mov	 eax, DWORD PTR _pNew$[ebp]
  00009	50		 push	 eax
  0000a	8b 4d 08	 mov	 ecx, DWORD PTR _pp$[ebp]
  0000d	51		 push	 ecx
  0000e	ff 15 00 00 00
	00		 call	 DWORD PTR __imp__InterlockedExchange@8
  00014	3b f4		 cmp	 esi, esp
  00016	e8 00 00 00 00	 call	 __RTC_CheckEsp

; 93   : }

  0001b	5e		 pop	 esi
  0001c	3b ec		 cmp	 ebp, esp
  0001e	e8 00 00 00 00	 call	 __RTC_CheckEsp
  00023	5d		 pop	 ebp
  00024	c2 08 00	 ret	 8
?InterlockedExchangePointer@@YGPAXPAPAXPAX@Z ENDP	; InterlockedExchangePointer
_TEXT	ENDS
EXTRN	__imp__GetACP@0:NEAR
EXTRN	__imp__GetLocaleInfoA@16:NEAR
EXTRN	__imp__GetThreadLocale@0:NEAR
; Function compile flags: /Odt /RTCsu
;	COMDAT ?_AtlGetThreadACPFake@ATL@@YGIXZ
_TEXT	SEGMENT
_pch$66297 = -32					; size = 4
_szACP$ = -24						; size = 7
_lcidThread$ = -12					; size = 4
_nACP$ = -8						; size = 4
__$ArrayPad$ = -4					; size = 4
__$ReturnAddr$ = 4					; size = 4
?_AtlGetThreadACPFake@ATL@@YGIXZ PROC NEAR		; ATL::_AtlGetThreadACPFake, COMDAT

; 101  : {

  00000	55		 push	 ebp
  00001	8b ec		 mov	 ebp, esp
  00003	83 ec 20	 sub	 esp, 32			; 00000020H
  00006	56		 push	 esi
  00007	b8 cc cc cc cc	 mov	 eax, -858993460		; ccccccccH
  0000c	89 45 e0	 mov	 DWORD PTR [ebp-32], eax
  0000f	89 45 e4	 mov	 DWORD PTR [ebp-28], eax
  00012	89 45 e8	 mov	 DWORD PTR [ebp-24], eax
  00015	89 45 ec	 mov	 DWORD PTR [ebp-20], eax
  00018	89 45 f0	 mov	 DWORD PTR [ebp-16], eax
  0001b	89 45 f4	 mov	 DWORD PTR [ebp-12], eax
  0001e	89 45 f8	 mov	 DWORD PTR [ebp-8], eax
  00021	89 45 fc	 mov	 DWORD PTR [ebp-4], eax
  00024	a1 00 00 00 00	 mov	 eax, DWORD PTR ___security_cookie
  00029	89 45 fc	 mov	 DWORD PTR __$ArrayPad$[ebp], eax

; 102  : 	UINT nACP = 0;

  0002c	c7 45 f8 00 00
	00 00		 mov	 DWORD PTR _nACP$[ebp], 0

; 103  : 
; 104  : 	LCID lcidThread = ::GetThreadLocale();

  00033	8b f4		 mov	 esi, esp
  00035	ff 15 00 00 00
	00		 call	 DWORD PTR __imp__GetThreadLocale@0
  0003b	3b f4		 cmp	 esi, esp
  0003d	e8 00 00 00 00	 call	 __RTC_CheckEsp
  00042	89 45 f4	 mov	 DWORD PTR _lcidThread$[ebp], eax

; 105  : 
; 106  : 	char szACP[7];
; 107  : 	// GetLocaleInfoA will fail for a Unicode-only LCID, but those are only supported on 
; 108  : 	// Windows 2000.  Since Windows 2000 supports CP_THREAD_ACP, this code path is never
; 109  : 	// executed on Windows 2000.
; 110  : 	if (::GetLocaleInfoA(lcidThread, LOCALE_IDEFAULTANSICODEPAGE, szACP, 7) != 0)

  00045	8b f4		 mov	 esi, esp
  00047	6a 07		 push	 7
  00049	8d 45 e8	 lea	 eax, DWORD PTR _szACP$[ebp]
  0004c	50		 push	 eax
  0004d	68 04 10 00 00	 push	 4100			; 00001004H
  00052	8b 4d f4	 mov	 ecx, DWORD PTR _lcidThread$[ebp]
  00055	51		 push	 ecx
  00056	ff 15 00 00 00
	00		 call	 DWORD PTR __imp__GetLocaleInfoA@16
  0005c	3b f4		 cmp	 esi, esp
  0005e	e8 00 00 00 00	 call	 __RTC_CheckEsp
  00063	85 c0		 test	 eax, eax
  00065	74 34		 je	 SHORT $L66296

; 111  : 	{
; 112  : 		char* pch = szACP;

  00067	8d 55 e8	 lea	 edx, DWORD PTR _szACP$[ebp]
  0006a	89 55 e0	 mov	 DWORD PTR _pch$66297[ebp], edx
$L66299:

; 113  : 		while (*pch != '\0')

  0006d	8b 45 e0	 mov	 eax, DWORD PTR _pch$66297[ebp]
  00070	0f be 08	 movsx	 ecx, BYTE PTR [eax]
  00073	85 c9		 test	 ecx, ecx
  00075	74 24		 je	 SHORT $L66296

; 114  : 		{
; 115  : 			nACP *= 10;

  00077	8b 55 f8	 mov	 edx, DWORD PTR _nACP$[ebp]
  0007a	6b d2 0a	 imul	 edx, 10			; 0000000aH
  0007d	89 55 f8	 mov	 DWORD PTR _nACP$[ebp], edx

; 116  : 			nACP += *pch++ - '0';

  00080	8b 45 e0	 mov	 eax, DWORD PTR _pch$66297[ebp]
  00083	0f be 08	 movsx	 ecx, BYTE PTR [eax]
  00086	8b 55 f8	 mov	 edx, DWORD PTR _nACP$[ebp]
  00089	8d 44 0a d0	 lea	 eax, DWORD PTR [edx+ecx-48]
  0008d	89 45 f8	 mov	 DWORD PTR _nACP$[ebp], eax
  00090	8b 4d e0	 mov	 ecx, DWORD PTR _pch$66297[ebp]
  00093	83 c1 01	 add	 ecx, 1
  00096	89 4d e0	 mov	 DWORD PTR _pch$66297[ebp], ecx

; 117  : 		}

  00099	eb d2		 jmp	 SHORT $L66299
$L66296:

; 118  : 	}
; 119  : 	// Use the Default ANSI Code Page if we were unable to get the thread ACP or if one does not exist.
; 120  : 	if (nACP == 0)

  0009b	83 7d f8 00	 cmp	 DWORD PTR _nACP$[ebp], 0
  0009f	75 12		 jne	 SHORT $L66301

; 121  : 		nACP = ::GetACP();

  000a1	8b f4		 mov	 esi, esp
  000a3	ff 15 00 00 00
	00		 call	 DWORD PTR __imp__GetACP@0
  000a9	3b f4		 cmp	 esi, esp
  000ab	e8 00 00 00 00	 call	 __RTC_CheckEsp
  000b0	89 45 f8	 mov	 DWORD PTR _nACP$[ebp], eax
$L66301:

; 122  : 
; 123  : 	return nACP;

  000b3	8b 45 f8	 mov	 eax, DWORD PTR _nACP$[ebp]

; 124  : }

  000b6	52		 push	 edx
  000b7	8b cd		 mov	 ecx, ebp
  000b9	50		 push	 eax
  000ba	8d 15 00 00 00
	00		 lea	 edx, DWORD PTR $L92929
  000c0	e8 00 00 00 00	 call	 @_RTC_CheckStackVars@8
  000c5	58		 pop	 eax
  000c6	5a		 pop	 edx
  000c7	8b 4d fc	 mov	 ecx, DWORD PTR __$ArrayPad$[ebp]
  000ca	e8 00 00 00 00	 call	 @__security_check_cookie@4
  000cf	5e		 pop	 esi
  000d0	83 c4 20	 add	 esp, 32			; 00000020H
  000d3	3b ec		 cmp	 ebp, esp
  000d5	e8 00 00 00 00	 call	 __RTC_CheckEsp
  000da	8b e5		 mov	 esp, ebp
  000dc	5d		 pop	 ebp
  000dd	c3		 ret	 0
$L92929:
  000de	01 00 00 00	 DD	 1
  000e2	00 00 00 00	 DD	 $L92928
$L92928:
  000e6	e8 ff ff ff	 DD	 -24			; ffffffe8H
  000ea	07 00 00 00	 DD	 7
  000ee	00 00 00 00	 DD	 $L92926
$L92926:
  000f2	73		 DB	 115			; 00000073H
  000f3	7a		 DB	 122			; 0000007aH
  000f4	41		 DB	 65			; 00000041H
  000f5	43		 DB	 67			; 00000043H
  000f6	50		 DB	 80			; 00000050H
  000f7	00		 DB	 0
?_AtlGetThreadACPFake@ATL@@YGIXZ ENDP			; ATL::_AtlGetThreadACPFake
; Function compile flags: /Odt /RTCsu
_TEXT	ENDS
;	COMDAT ?_AtlGetThreadACPReal@ATL@@YGIXZ
_TEXT	SEGMENT
?_AtlGetThreadACPReal@ATL@@YGIXZ PROC NEAR		; ATL::_AtlGetThreadACPReal, COMDAT

; 127  : {

  00000	55		 push	 ebp
  00001	8b ec		 mov	 ebp, esp

; 128  : 	return( CP_THREAD_ACP );

  00003	b8 03 00 00 00	 mov	 eax, 3

; 129  : }

  00008	5d		 pop	 ebp
  00009	c3		 ret	 0
?_AtlGetThreadACPReal@ATL@@YGIXZ ENDP			; ATL::_AtlGetThreadACPReal
_TEXT	ENDS
PUBLIC	?_AtlInstallStringThunk@ATL@@YAXPAPAXPAX1@Z	; ATL::_AtlInstallStringThunk
PUBLIC	?GetEnvironmentVariableWFake@ATL@@YGKPB_WPA_WK@Z ; ATL::GetEnvironmentVariableWFake
EXTRN	__imp__GetEnvironmentVariableW@12:NEAR
; Function compile flags: /Odt /RTCsu
; File d:\program files (x86)\microsoft visual studio .net 2003\vc7\atlmfc\include\cstringt.h
;	COMDAT ?GetEnvironmentVariableWThunk@ATL@@YGKPB_WPA_WK@Z
_TEXT	SEGMENT
_pszName$ = 8						; size = 4
_pszBuffer$ = 12					; size = 4
_nSize$ = 16						; size = 4
?GetEnvironmentVariableWThunk@ATL@@YGKPB_WPA_WK@Z PROC NEAR ; ATL::GetEnvironmentVariableWThunk, COMDAT

; 183  : {

  00000	55		 push	 ebp
  00001	8b ec		 mov	 ebp, esp
  00003	56		 push	 esi

; 184  : 	_AtlInstallStringThunk(reinterpret_cast<void**>(&_strthunks.pfnGetEnvironmentVariableW), 
; 185  : 		GetEnvironmentVariableWFake, ::GetEnvironmentVariableW);

  00004	a1 00 00 00 00	 mov	 eax, DWORD PTR __imp__GetEnvironmentVariableW@12
  00009	50		 push	 eax
  0000a	68 00 00 00 00	 push	 OFFSET FLAT:?GetEnvironmentVariableWFake@ATL@@YGKPB_WPA_WK@Z ; ATL::GetEnvironmentVariableWFake
  0000f	68 14 00 00 00	 push	 OFFSET FLAT:?_strthunks@ATL@@3U_AtlStringThunks@1@A+20
  00014	e8 00 00 00 00	 call	 ?_AtlInstallStringThunk@ATL@@YAXPAPAXPAX1@Z ; ATL::_AtlInstallStringThunk
  00019	83 c4 0c	 add	 esp, 12			; 0000000cH

; 186  : 
; 187  : 	return _strthunks.pfnGetEnvironmentVariableW(pszName, pszBuffer, nSize);

  0001c	8b f4		 mov	 esi, esp
  0001e	8b 4d 10	 mov	 ecx, DWORD PTR _nSize$[ebp]
  00021	51		 push	 ecx
  00022	8b 55 0c	 mov	 edx, DWORD PTR _pszBuffer$[ebp]
  00025	52		 push	 edx
  00026	8b 45 08	 mov	 eax, DWORD PTR _pszName$[ebp]
  00029	50		 push	 eax
  0002a	ff 15 14 00 00
	00		 call	 DWORD PTR ?_strthunks@ATL@@3U_AtlStringThunks@1@A+20
  00030	3b f4		 cmp	 esi, esp
  00032	e8 00 00 00 00	 call	 __RTC_CheckEsp

; 188  : }

  00037	5e		 pop	 esi
  00038	3b ec		 cmp	 ebp, esp
  0003a	e8 00 00 00 00	 call	 __RTC_CheckEsp
  0003f	5d		 pop	 ebp
  00040	c2 0c 00	 ret	 12			; 0000000cH
?GetEnvironmentVariableWThunk@ATL@@YGKPB_WPA_WK@Z ENDP	; ATL::GetEnvironmentVariableWThunk
_TEXT	ENDS
PUBLIC	?s_bWin9x@?1??_AtlInstallStringThunk@ATL@@YAXPAPAXPAX1@Z@4_NA ; `ATL::_AtlInstallStringThunk'::`2'::s_bWin9x
PUBLIC	??_B?1??_AtlInstallStringThunk@ATL@@YAXPAPAXPAX1@Z@51 ; `ATL::_AtlInstallStringThunk'::`2'::`local static guard'
EXTRN	__imp__GetVersion@0:NEAR
;	COMDAT ?s_bWin9x@?1??_AtlInstallStringThunk@ATL@@YAXPAPAXPAX1@Z@4_NA
_BSS	SEGMENT
?s_bWin9x@?1??_AtlInstallStringThunk@ATL@@YAXPAPAXPAX1@Z@4_NA DB 01H DUP (?) ; `ATL::_AtlInstallStringThunk'::`2'::s_bWin9x
_BSS	ENDS
;	COMDAT ??_B?1??_AtlInstallStringThunk@ATL@@YAXPAPAXPAX1@Z@51
_BSS	SEGMENT
??_B?1??_AtlInstallStringThunk@ATL@@YAXPAPAXPAX1@Z@51 DD 01H DUP (?) ; `ATL::_AtlInstallStringThunk'::`2'::`local static guard'
; Function compile flags: /Odt /RTCsu
_BSS	ENDS
;	COMDAT ?_AtlInstallStringThunk@ATL@@YAXPAPAXPAX1@Z
_TEXT	SEGMENT
_pfn$ = -4						; size = 4
_ppThunk$ = 8						; size = 4
_pfnWin9x$ = 12						; size = 4
_pfnNT$ = 16						; size = 4
?_AtlInstallStringThunk@ATL@@YAXPAPAXPAX1@Z PROC NEAR	; ATL::_AtlInstallStringThunk, COMDAT

; 115  : {

  00000	55		 push	 ebp
  00001	8b ec		 mov	 ebp, esp
  00003	51		 push	 ecx
  00004	56		 push	 esi
  00005	c7 45 fc cc cc
	cc cc		 mov	 DWORD PTR [ebp-4], -858993460 ; ccccccccH

; 116  : #pragma warning (push)
; 117  : #pragma warning (disable : 4640)	// construction of local static object is not thread-safe
; 118  : 
; 119  : 	static bool s_bWin9x = (::GetVersion()&0x80000000) != 0;

  0000c	a1 00 00 00 00	 mov	 eax, DWORD PTR ??_B?1??_AtlInstallStringThunk@ATL@@YAXPAPAXPAX1@Z@51
  00011	83 e0 01	 and	 eax, 1
  00014	75 2e		 jne	 SHORT $L81678
  00016	8b 0d 00 00 00
	00		 mov	 ecx, DWORD PTR ??_B?1??_AtlInstallStringThunk@ATL@@YAXPAPAXPAX1@Z@51
  0001c	83 c9 01	 or	 ecx, 1
  0001f	89 0d 00 00 00
	00		 mov	 DWORD PTR ??_B?1??_AtlInstallStringThunk@ATL@@YAXPAPAXPAX1@Z@51, ecx
  00025	8b f4		 mov	 esi, esp
  00027	ff 15 00 00 00
	00		 call	 DWORD PTR __imp__GetVersion@0
  0002d	3b f4		 cmp	 esi, esp
  0002f	e8 00 00 00 00	 call	 __RTC_CheckEsp
  00034	25 00 00 00 80	 and	 eax, -2147483648	; 80000000H
  00039	f7 d8		 neg	 eax
  0003b	1b c0		 sbb	 eax, eax
  0003d	f7 d8		 neg	 eax
  0003f	a2 00 00 00 00	 mov	 BYTE PTR ?s_bWin9x@?1??_AtlInstallStringThunk@ATL@@YAXPAPAXPAX1@Z@4_NA, al ; `ATL::_AtlInstallStringThunk'::`2'::s_bWin9x
$L81678:

; 120  : 	
; 121  : #pragma warning (pop)
; 122  : 
; 123  : 	void* pfn;
; 124  : 	if (s_bWin9x)

  00044	0f b6 15 00 00
	00 00		 movzx	 edx, BYTE PTR ?s_bWin9x@?1??_AtlInstallStringThunk@ATL@@YAXPAPAXPAX1@Z@4_NA ; `ATL::_AtlInstallStringThunk'::`2'::s_bWin9x
  0004b	85 d2		 test	 edx, edx
  0004d	74 08		 je	 SHORT $L81680

; 125  : 		pfn = pfnWin9x;

  0004f	8b 45 0c	 mov	 eax, DWORD PTR _pfnWin9x$[ebp]
  00052	89 45 fc	 mov	 DWORD PTR _pfn$[ebp], eax

; 126  : 	else

  00055	eb 06		 jmp	 SHORT $L81681
$L81680:

; 127  : 	{
; 128  : #ifdef _CSTRING_ALWAYS_THUNK
; 129  : 		pfn = pfnWin9x;
; 130  : 		(void)pfnNT;
; 131  : #else
; 132  : 		pfn = pfnNT;

  00057	8b 4d 10	 mov	 ecx, DWORD PTR _pfnNT$[ebp]
  0005a	89 4d fc	 mov	 DWORD PTR _pfn$[ebp], ecx
$L81681:

; 133  : #endif
; 134  : 	}
; 135  : 	InterlockedExchangePointer(ppThunk, pfn);

  0005d	8b 55 fc	 mov	 edx, DWORD PTR _pfn$[ebp]
  00060	52		 push	 edx
  00061	8b 45 08	 mov	 eax, DWORD PTR _ppThunk$[ebp]
  00064	50		 push	 eax
  00065	e8 00 00 00 00	 call	 ?InterlockedExchangePointer@@YGPAXPAPAXPAX@Z ; InterlockedExchangePointer

; 136  : }

  0006a	5e		 pop	 esi
  0006b	83 c4 04	 add	 esp, 4
  0006e	3b ec		 cmp	 ebp, esp
  00070	e8 00 00 00 00	 call	 __RTC_CheckEsp
  00075	8b e5		 mov	 esp, ebp
  00077	5d		 pop	 ebp
  00078	c3		 ret	 0
?_AtlInstallStringThunk@ATL@@YAXPAPAXPAX1@Z ENDP	; ATL::_AtlInstallStringThunk
_TEXT	ENDS
PUBLIC	??_C@_0FH@KDPNIMBO@D?3?2Program?5Files?5?$CIx86?$CJ?2Microsoft@ ; `string'
PUBLIC	?_AtlGetConversionACP@ATL@@YGIXZ		; ATL::_AtlGetConversionACP
PUBLIC	??0?$CW2AEX@$0IA@@ATL@@QAE@PB_W@Z		; ATL::CW2AEX<128>::CW2AEX<128>
PUBLIC	??1?$CW2AEX@$0IA@@ATL@@QAE@XZ			; ATL::CW2AEX<128>::~CW2AEX<128>
PUBLIC	??B?$CW2AEX@$0IA@@ATL@@QBEPADXZ			; ATL::CW2AEX<128>::operator char *
PUBLIC	??_C@_0BA@CLMJJCOM@nSize?5?$DO?$DN?5nSizeW?$AA@	; `string'
PUBLIC	??0?$CTempBuffer@D$0IA@VCCRTAllocator@ATL@@@ATL@@QAE@XZ ; ATL::CTempBuffer<char,128,ATL::CCRTAllocator>::CTempBuffer<char,128,ATL::CCRTAllocator>
PUBLIC	??1?$CTempBuffer@D$0IA@VCCRTAllocator@ATL@@@ATL@@QAE@XZ ; ATL::CTempBuffer<char,128,ATL::CCRTAllocator>::~CTempBuffer<char,128,ATL::CCRTAllocator>
PUBLIC	??B?$CTempBuffer@D$0IA@VCCRTAllocator@ATL@@@ATL@@QBEPADXZ ; ATL::CTempBuffer<char,128,ATL::CCRTAllocator>::operator char *
PUBLIC	?Allocate@?$CTempBuffer@D$0IA@VCCRTAllocator@ATL@@@ATL@@QAEPADI@Z ; ATL::CTempBuffer<char,128,ATL::CCRTAllocator>::Allocate
EXTRN	__imp__GetEnvironmentVariableA@12:NEAR
EXTRN	__imp___CrtDbgReport:NEAR
EXTRN	__imp__MultiByteToWideChar@24:NEAR
EXTRN	__except_list:DWORD
EXTRN	___CxxFrameHandler:NEAR
;	COMDAT xdata$x
xdata$x	SEGMENT
$T92952	DD	0ffffffffH
	DD	FLAT:$L92939
	DD	00H
	DD	FLAT:$L92940
$T92944	DD	019930520H
	DD	02H
	DD	FLAT:$T92952
	DD	2 DUP(00H)
	DD	2 DUP(00H)
xdata$x	ENDS
;	COMDAT ??_C@_0BA@CLMJJCOM@nSize?5?$DO?$DN?5nSizeW?$AA@
CONST	SEGMENT
??_C@_0BA@CLMJJCOM@nSize?5?$DO?$DN?5nSizeW?$AA@ DB 'nSize >= nSizeW', 00H ; `string'
CONST	ENDS
;	COMDAT ??_C@_0FH@KDPNIMBO@D?3?2Program?5Files?5?$CIx86?$CJ?2Microsoft@
CONST	SEGMENT
??_C@_0FH@KDPNIMBO@D?3?2Program?5Files?5?$CIx86?$CJ?2Microsoft@ DB 'D:\Pr'
	DB	'ogram Files (x86)\Microsoft Visual Studio .NET 2003\Vc7\atlmf'
	DB	'c\include\cstringt.h', 00H			; `string'
; Function compile flags: /Odt /RTCsu
CONST	ENDS
;	COMDAT ?GetEnvironmentVariableWFake@ATL@@YGKPB_WPA_WK@Z
_TEXT	SEGMENT
$T92938 = -316						; size = 4
$T92936 = -312						; size = 4
$T92935 = -308						; size = 4
_pszNameA$ = -300					; size = 132
_pszBufferA$ = -160					; size = 132
_nSizeW$ = -24						; size = 4
_nSizeA$ = -20						; size = 4
__$ArrayPad$ = -16					; size = 4
__$EHRec$ = -12						; size = 12
__$ReturnAddr$ = 4					; size = 4
_pszName$ = 8						; size = 4
_pszBuffer$ = 12					; size = 4
_nSize$ = 16						; size = 4
?GetEnvironmentVariableWFake@ATL@@YGKPB_WPA_WK@Z PROC NEAR ; ATL::GetEnvironmentVariableWFake, COMDAT

; 159  : {

  00000	55		 push	 ebp
  00001	8b ec		 mov	 ebp, esp
  00003	6a ff		 push	 -1
  00005	68 00 00 00 00	 push	 __ehhandler$?GetEnvironmentVariableWFake@ATL@@YGKPB_WPA_WK@Z
  0000a	64 a1 00 00 00
	00		 mov	 eax, DWORD PTR fs:__except_list
  00010	50		 push	 eax
  00011	64 89 25 00 00
	00 00		 mov	 DWORD PTR fs:__except_list, esp
  00018	81 ec 30 01 00
	00		 sub	 esp, 304		; 00000130H
  0001e	56		 push	 esi
  0001f	57		 push	 edi
  00020	8d bd c4 fe ff
	ff		 lea	 edi, DWORD PTR [ebp-316]
  00026	b9 4c 00 00 00	 mov	 ecx, 76			; 0000004cH
  0002b	b8 cc cc cc cc	 mov	 eax, -858993460		; ccccccccH
  00030	f3 ab		 rep stosd
  00032	a1 00 00 00 00	 mov	 eax, DWORD PTR ___security_cookie
  00037	89 45 f0	 mov	 DWORD PTR __$ArrayPad$[ebp], eax

; 160  : 	ULONG nSizeA;
; 161  : 	ULONG nSizeW;
; 162  : 	CTempBuffer<char> pszBufferA;

  0003a	8d 8d 60 ff ff
	ff		 lea	 ecx, DWORD PTR _pszBufferA$[ebp]
  00040	e8 00 00 00 00	 call	 ??0?$CTempBuffer@D$0IA@VCCRTAllocator@ATL@@@ATL@@QAE@XZ ; ATL::CTempBuffer<char,128,ATL::CCRTAllocator>::CTempBuffer<char,128,ATL::CCRTAllocator>
  00045	c7 45 fc 00 00
	00 00		 mov	 DWORD PTR __$EHRec$[ebp+8], 0

; 163  : 	CW2A pszNameA(pszName);

  0004c	8b 45 08	 mov	 eax, DWORD PTR _pszName$[ebp]
  0004f	50		 push	 eax
  00050	8d 8d d4 fe ff
	ff		 lea	 ecx, DWORD PTR _pszNameA$[ebp]
  00056	e8 00 00 00 00	 call	 ??0?$CW2AEX@$0IA@@ATL@@QAE@PB_W@Z ; ATL::CW2AEX<128>::CW2AEX<128>
  0005b	c6 45 fc 01	 mov	 BYTE PTR __$EHRec$[ebp+8], 1

; 164  : 
; 165  : 	nSizeA = ::GetEnvironmentVariableA(pszNameA, NULL, 0);

  0005f	8b f4		 mov	 esi, esp
  00061	6a 00		 push	 0
  00063	6a 00		 push	 0
  00065	8d 8d d4 fe ff
	ff		 lea	 ecx, DWORD PTR _pszNameA$[ebp]
  0006b	e8 00 00 00 00	 call	 ??B?$CW2AEX@$0IA@@ATL@@QBEPADXZ ; ATL::CW2AEX<128>::operator char *
  00070	50		 push	 eax
  00071	ff 15 00 00 00
	00		 call	 DWORD PTR __imp__GetEnvironmentVariableA@12
  00077	3b f4		 cmp	 esi, esp
  00079	e8 00 00 00 00	 call	 __RTC_CheckEsp
  0007e	89 45 ec	 mov	 DWORD PTR _nSizeA$[ebp], eax

; 166  : 	if (nSizeA == 0)

  00081	83 7d ec 00	 cmp	 DWORD PTR _nSizeA$[ebp], 0
  00085	75 36		 jne	 SHORT $L81752

; 167  : 		return 0;

  00087	c7 85 cc fe ff
	ff 00 00 00 00	 mov	 DWORD PTR $T92935[ebp], 0
  00091	c6 45 fc 00	 mov	 BYTE PTR __$EHRec$[ebp+8], 0
  00095	8d 8d d4 fe ff
	ff		 lea	 ecx, DWORD PTR _pszNameA$[ebp]
  0009b	e8 00 00 00 00	 call	 ??1?$CW2AEX@$0IA@@ATL@@QAE@XZ ; ATL::CW2AEX<128>::~CW2AEX<128>
  000a0	c7 45 fc ff ff
	ff ff		 mov	 DWORD PTR __$EHRec$[ebp+8], -1
  000a7	8d 8d 60 ff ff
	ff		 lea	 ecx, DWORD PTR _pszBufferA$[ebp]
  000ad	e8 00 00 00 00	 call	 ??1?$CTempBuffer@D$0IA@VCCRTAllocator@ATL@@@ATL@@QAE@XZ ; ATL::CTempBuffer<char,128,ATL::CCRTAllocator>::~CTempBuffer<char,128,ATL::CCRTAllocator>
  000b2	8b 85 cc fe ff
	ff		 mov	 eax, DWORD PTR $T92935[ebp]
  000b8	e9 33 01 00 00	 jmp	 $L81724
$L81752:

; 168  : 
; 169  : 	pszBufferA.Allocate(nSizeA*2);

  000bd	8b 4d ec	 mov	 ecx, DWORD PTR _nSizeA$[ebp]
  000c0	d1 e1		 shl	 ecx, 1
  000c2	51		 push	 ecx
  000c3	8d 8d 60 ff ff
	ff		 lea	 ecx, DWORD PTR _pszBufferA$[ebp]
  000c9	e8 00 00 00 00	 call	 ?Allocate@?$CTempBuffer@D$0IA@VCCRTAllocator@ATL@@@ATL@@QAEPADI@Z ; ATL::CTempBuffer<char,128,ATL::CCRTAllocator>::Allocate

; 170  : 	::GetEnvironmentVariableA(pszNameA, pszBufferA, nSizeA);

  000ce	8b f4		 mov	 esi, esp
  000d0	8b 55 ec	 mov	 edx, DWORD PTR _nSizeA$[ebp]
  000d3	52		 push	 edx
  000d4	8d 8d 60 ff ff
	ff		 lea	 ecx, DWORD PTR _pszBufferA$[ebp]
  000da	e8 00 00 00 00	 call	 ??B?$CTempBuffer@D$0IA@VCCRTAllocator@ATL@@@ATL@@QBEPADXZ ; ATL::CTempBuffer<char,128,ATL::CCRTAllocator>::operator char *
  000df	50		 push	 eax
  000e0	8d 8d d4 fe ff
	ff		 lea	 ecx, DWORD PTR _pszNameA$[ebp]
  000e6	e8 00 00 00 00	 call	 ??B?$CW2AEX@$0IA@@ATL@@QBEPADXZ ; ATL::CW2AEX<128>::operator char *
  000eb	50		 push	 eax
  000ec	ff 15 00 00 00
	00		 call	 DWORD PTR __imp__GetEnvironmentVariableA@12
  000f2	3b f4		 cmp	 esi, esp
  000f4	e8 00 00 00 00	 call	 __RTC_CheckEsp

; 171  : 
; 172  : 	nSizeW = ::MultiByteToWideChar(_AtlGetConversionACP(), 0, pszBufferA, -1, NULL, 0);

  000f9	8b f4		 mov	 esi, esp
  000fb	6a 00		 push	 0
  000fd	6a 00		 push	 0
  000ff	6a ff		 push	 -1
  00101	8d 8d 60 ff ff
	ff		 lea	 ecx, DWORD PTR _pszBufferA$[ebp]
  00107	e8 00 00 00 00	 call	 ??B?$CTempBuffer@D$0IA@VCCRTAllocator@ATL@@@ATL@@QBEPADXZ ; ATL::CTempBuffer<char,128,ATL::CCRTAllocator>::operator char *
  0010c	50		 push	 eax
  0010d	6a 00		 push	 0
  0010f	e8 00 00 00 00	 call	 ?_AtlGetConversionACP@ATL@@YGIXZ ; ATL::_AtlGetConversionACP
  00114	50		 push	 eax
  00115	ff 15 00 00 00
	00		 call	 DWORD PTR __imp__MultiByteToWideChar@24
  0011b	3b f4		 cmp	 esi, esp
  0011d	e8 00 00 00 00	 call	 __RTC_CheckEsp
  00122	89 45 e8	 mov	 DWORD PTR _nSizeW$[ebp], eax

; 173  : 	if (nSize == 0)

  00125	83 7d 10 00	 cmp	 DWORD PTR _nSize$[ebp], 0
  00129	75 35		 jne	 SHORT $L81754

; 174  : 		return nSizeW;

  0012b	8b 45 e8	 mov	 eax, DWORD PTR _nSizeW$[ebp]
  0012e	89 85 c8 fe ff
	ff		 mov	 DWORD PTR $T92936[ebp], eax
  00134	c6 45 fc 00	 mov	 BYTE PTR __$EHRec$[ebp+8], 0
  00138	8d 8d d4 fe ff
	ff		 lea	 ecx, DWORD PTR _pszNameA$[ebp]
  0013e	e8 00 00 00 00	 call	 ??1?$CW2AEX@$0IA@@ATL@@QAE@XZ ; ATL::CW2AEX<128>::~CW2AEX<128>
  00143	c7 45 fc ff ff
	ff ff		 mov	 DWORD PTR __$EHRec$[ebp+8], -1
  0014a	8d 8d 60 ff ff
	ff		 lea	 ecx, DWORD PTR _pszBufferA$[ebp]
  00150	e8 00 00 00 00	 call	 ??1?$CTempBuffer@D$0IA@VCCRTAllocator@ATL@@@ATL@@QAE@XZ ; ATL::CTempBuffer<char,128,ATL::CCRTAllocator>::~CTempBuffer<char,128,ATL::CCRTAllocator>
  00155	8b 85 c8 fe ff
	ff		 mov	 eax, DWORD PTR $T92936[ebp]
  0015b	e9 90 00 00 00	 jmp	 $L81724
$L81754:

; 175  : 	ATLASSERT(nSize >= nSizeW);

  00160	8b 4d 10	 mov	 ecx, DWORD PTR _nSize$[ebp]
  00163	3b 4d e8	 cmp	 ecx, DWORD PTR _nSizeW$[ebp]
  00166	73 2b		 jae	 SHORT $L92937
  00168	8b f4		 mov	 esi, esp
  0016a	68 00 00 00 00	 push	 OFFSET FLAT:??_C@_0BA@CLMJJCOM@nSize?5?$DO?$DN?5nSizeW?$AA@
  0016f	6a 00		 push	 0
  00171	68 af 00 00 00	 push	 175			; 000000afH
  00176	68 00 00 00 00	 push	 OFFSET FLAT:??_C@_0FH@KDPNIMBO@D?3?2Program?5Files?5?$CIx86?$CJ?2Microsoft@
  0017b	6a 02		 push	 2
  0017d	ff 15 00 00 00
	00		 call	 DWORD PTR __imp___CrtDbgReport
  00183	83 c4 14	 add	 esp, 20			; 00000014H
  00186	3b f4		 cmp	 esi, esp
  00188	e8 00 00 00 00	 call	 __RTC_CheckEsp
  0018d	83 f8 01	 cmp	 eax, 1
  00190	75 01		 jne	 SHORT $L92937
  00192	cc		 int	 3
$L92937:

; 176  : 	::MultiByteToWideChar(_AtlGetConversionACP(), 0, pszBufferA, -1, pszBuffer, nSizeW);

  00193	8b f4		 mov	 esi, esp
  00195	8b 45 e8	 mov	 eax, DWORD PTR _nSizeW$[ebp]
  00198	50		 push	 eax
  00199	8b 4d 0c	 mov	 ecx, DWORD PTR _pszBuffer$[ebp]
  0019c	51		 push	 ecx
  0019d	6a ff		 push	 -1
  0019f	8d 8d 60 ff ff
	ff		 lea	 ecx, DWORD PTR _pszBufferA$[ebp]
  001a5	e8 00 00 00 00	 call	 ??B?$CTempBuffer@D$0IA@VCCRTAllocator@ATL@@@ATL@@QBEPADXZ ; ATL::CTempBuffer<char,128,ATL::CCRTAllocator>::operator char *
  001aa	50		 push	 eax
  001ab	6a 00		 push	 0
  001ad	e8 00 00 00 00	 call	 ?_AtlGetConversionACP@ATL@@YGIXZ ; ATL::_AtlGetConversionACP
  001b2	50		 push	 eax
  001b3	ff 15 00 00 00
	00		 call	 DWORD PTR __imp__MultiByteToWideChar@24
  001b9	3b f4		 cmp	 esi, esp
  001bb	e8 00 00 00 00	 call	 __RTC_CheckEsp

; 177  : 
; 178  : 	return nSizeW;

  001c0	8b 55 e8	 mov	 edx, DWORD PTR _nSizeW$[ebp]
  001c3	89 95 c4 fe ff
	ff		 mov	 DWORD PTR $T92938[ebp], edx
  001c9	c6 45 fc 00	 mov	 BYTE PTR __$EHRec$[ebp+8], 0
  001cd	8d 8d d4 fe ff
	ff		 lea	 ecx, DWORD PTR _pszNameA$[ebp]
  001d3	e8 00 00 00 00	 call	 ??1?$CW2AEX@$0IA@@ATL@@QAE@XZ ; ATL::CW2AEX<128>::~CW2AEX<128>
  001d8	c7 45 fc ff ff
	ff ff		 mov	 DWORD PTR __$EHRec$[ebp+8], -1
  001df	8d 8d 60 ff ff
	ff		 lea	 ecx, DWORD PTR _pszBufferA$[ebp]
  001e5	e8 00 00 00 00	 call	 ??1?$CTempBuffer@D$0IA@VCCRTAllocator@ATL@@@ATL@@QAE@XZ ; ATL::CTempBuffer<char,128,ATL::CCRTAllocator>::~CTempBuffer<char,128,ATL::CCRTAllocator>
  001ea	8b 85 c4 fe ff
	ff		 mov	 eax, DWORD PTR $T92938[ebp]
$L81724:

; 179  : }

  001f0	52		 push	 edx
  001f1	8b cd		 mov	 ecx, ebp
  001f3	50		 push	 eax
  001f4	8d 15 00 00 00
	00		 lea	 edx, DWORD PTR $L92951
  001fa	e8 00 00 00 00	 call	 @_RTC_CheckStackVars@8
  001ff	58		 pop	 eax
  00200	5a		 pop	 edx
  00201	8b 4d f4	 mov	 ecx, DWORD PTR __$EHRec$[ebp]
  00204	64 89 0d 00 00
	00 00		 mov	 DWORD PTR fs:__except_list, ecx
  0020b	8b 4d f0	 mov	 ecx, DWORD PTR __$ArrayPad$[ebp]
  0020e	e8 00 00 00 00	 call	 @__security_check_cookie@4
  00213	5f		 pop	 edi
  00214	5e		 pop	 esi
  00215	81 c4 3c 01 00
	00		 add	 esp, 316		; 0000013cH
  0021b	3b ec		 cmp	 ebp, esp
  0021d	e8 00 00 00 00	 call	 __RTC_CheckEsp
  00222	8b e5		 mov	 esp, ebp
  00224	5d		 pop	 ebp
  00225	c2 0c 00	 ret	 12			; 0000000cH
$L92951:
  00228	02 00 00 00	 DD	 2
  0022c	00 00 00 00	 DD	 $L92950
$L92950:
  00230	60 ff ff ff	 DD	 -160			; ffffff60H
  00234	84 00 00 00	 DD	 132			; 00000084H
  00238	00 00 00 00	 DD	 $L92945
  0023c	d4 fe ff ff	 DD	 -300			; fffffed4H
  00240	84 00 00 00	 DD	 132			; 00000084H
  00244	00 00 00 00	 DD	 $L92946
$L92946:
  00248	70		 DB	 112			; 00000070H
  00249	73		 DB	 115			; 00000073H
  0024a	7a		 DB	 122			; 0000007aH
  0024b	4e		 DB	 78			; 0000004eH
  0024c	61		 DB	 97			; 00000061H
  0024d	6d		 DB	 109			; 0000006dH
  0024e	65		 DB	 101			; 00000065H
  0024f	41		 DB	 65			; 00000041H
  00250	00		 DB	 0
$L92945:
  00251	70		 DB	 112			; 00000070H
  00252	73		 DB	 115			; 00000073H
  00253	7a		 DB	 122			; 0000007aH
  00254	42		 DB	 66			; 00000042H
  00255	75		 DB	 117			; 00000075H
  00256	66		 DB	 102			; 00000066H
  00257	66		 DB	 102			; 00000066H
  00258	65		 DB	 101			; 00000065H
  00259	72		 DB	 114			; 00000072H
  0025a	41		 DB	 65			; 00000041H
  0025b	00		 DB	 0
_TEXT	ENDS
;	COMDAT text$x
text$x	SEGMENT
$L92939:
  00000	8d 8d 60 ff ff
	ff		 lea	 ecx, DWORD PTR _pszBufferA$[ebp]
  00006	e9 00 00 00 00	 jmp	 ??1?$CTempBuffer@D$0IA@VCCRTAllocator@ATL@@@ATL@@QAE@XZ ; ATL::CTempBuffer<char,128,ATL::CCRTAllocator>::~CTempBuffer<char,128,ATL::CCRTAllocator>
$L92940:
  0000b	8d 8d d4 fe ff
	ff		 lea	 ecx, DWORD PTR _pszNameA$[ebp]
  00011	e9 00 00 00 00	 jmp	 ??1?$CW2AEX@$0IA@@ATL@@QAE@XZ ; ATL::CW2AEX<128>::~CW2AEX<128>
__ehhandler$?GetEnvironmentVariableWFake@ATL@@YGKPB_WPA_WK@Z:
  00016	b8 00 00 00 00	 mov	 eax, OFFSET FLAT:$T92944
  0001b	e9 00 00 00 00	 jmp	 ___CxxFrameHandler
text$x	ENDS
?GetEnvironmentVariableWFake@ATL@@YGKPB_WPA_WK@Z ENDP	; ATL::GetEnvironmentVariableWFake
; Function compile flags: /Odt /RTCsu
; File d:\program files (x86)\microsoft visual studio .net 2003\vc7\atlmfc\include\atlconv.h
;	COMDAT ?_AtlGetConversionACP@ATL@@YGIXZ
_TEXT	SEGMENT
?_AtlGetConversionACP@ATL@@YGIXZ PROC NEAR		; ATL::_AtlGetConversionACP, COMDAT

; 157  : {

  00000	55		 push	 ebp
  00001	8b ec		 mov	 ebp, esp
  00003	56		 push	 esi

; 158  : 	return( g_pfnGetThreadACP() );

  00004	8b f4		 mov	 esi, esp
  00006	ff 15 00 00 00
	00		 call	 DWORD PTR ?g_pfnGetThreadACP@ATL@@3P6GIXZA ; ATL::g_pfnGetThreadACP
  0000c	3b f4		 cmp	 esi, esp
  0000e	e8 00 00 00 00	 call	 __RTC_CheckEsp

; 159  : }

  00013	5e		 pop	 esi
  00014	3b ec		 cmp	 ebp, esp
  00016	e8 00 00 00 00	 call	 __RTC_CheckEsp
  0001b	5d		 pop	 ebp
  0001c	c3		 ret	 0
?_AtlGetConversionACP@ATL@@YGIXZ ENDP			; ATL::_AtlGetConversionACP
_TEXT	ENDS
PUBLIC	?CompareStringWFake@ATL@@YGHKKPB_WH0H@Z		; ATL::CompareStringWFake
EXTRN	__imp__CompareStringW@24:NEAR
; Function compile flags: /Odt /RTCsu
; File d:\program files (x86)\microsoft visual studio .net 2003\vc7\atlmfc\include\cstringt.h
;	COMDAT ?CompareStringWThunk@ATL@@YGHKKPB_WH0H@Z
_TEXT	SEGMENT
_lcid$ = 8						; size = 4
_dwFlags$ = 12						; size = 4
_pszString1$ = 16					; size = 4
_nLength1$ = 20						; size = 4
_pszString2$ = 24					; size = 4
_nLength2$ = 28						; size = 4
?CompareStringWThunk@ATL@@YGHKKPB_WH0H@Z PROC NEAR	; ATL::CompareStringWThunk, COMDAT

; 216  : {

  00000	55		 push	 ebp
  00001	8b ec		 mov	 ebp, esp
  00003	56		 push	 esi

; 217  : 	_AtlInstallStringThunk(reinterpret_cast<void**>(&_strthunks.pfnCompareStringW), CompareStringWFake, ::CompareStringW);

  00004	a1 00 00 00 00	 mov	 eax, DWORD PTR __imp__CompareStringW@24
  00009	50		 push	 eax
  0000a	68 00 00 00 00	 push	 OFFSET FLAT:?CompareStringWFake@ATL@@YGHKKPB_WH0H@Z ; ATL::CompareStringWFake
  0000f	68 00 00 00 00	 push	 OFFSET FLAT:?_strthunks@ATL@@3U_AtlStringThunks@1@A ; ATL::_strthunks
  00014	e8 00 00 00 00	 call	 ?_AtlInstallStringThunk@ATL@@YAXPAPAXPAX1@Z ; ATL::_AtlInstallStringThunk
  00019	83 c4 0c	 add	 esp, 12			; 0000000cH

; 218  : 
; 219  : 	return _strthunks.pfnCompareStringW(lcid, dwFlags, pszString1, nLength1, pszString2, nLength2);

  0001c	8b f4		 mov	 esi, esp
  0001e	8b 4d 1c	 mov	 ecx, DWORD PTR _nLength2$[ebp]
  00021	51		 push	 ecx
  00022	8b 55 18	 mov	 edx, DWORD PTR _pszString2$[ebp]
  00025	52		 push	 edx
  00026	8b 45 14	 mov	 eax, DWORD PTR _nLength1$[ebp]
  00029	50		 push	 eax
  0002a	8b 4d 10	 mov	 ecx, DWORD PTR _pszString1$[ebp]
  0002d	51		 push	 ecx
  0002e	8b 55 0c	 mov	 edx, DWORD PTR _dwFlags$[ebp]
  00031	52		 push	 edx
  00032	8b 45 08	 mov	 eax, DWORD PTR _lcid$[ebp]
  00035	50		 push	 eax
  00036	ff 15 00 00 00
	00		 call	 DWORD PTR ?_strthunks@ATL@@3U_AtlStringThunks@1@A
  0003c	3b f4		 cmp	 esi, esp
  0003e	e8 00 00 00 00	 call	 __RTC_CheckEsp

; 220  : }

  00043	5e		 pop	 esi
  00044	3b ec		 cmp	 ebp, esp
  00046	e8 00 00 00 00	 call	 __RTC_CheckEsp
  0004b	5d		 pop	 ebp
  0004c	c2 18 00	 ret	 24			; 00000018H
?CompareStringWThunk@ATL@@YGHKKPB_WH0H@Z ENDP		; ATL::CompareStringWThunk
_TEXT	ENDS
PUBLIC	??0?$CAtlSafeAllocBufferManager@VCCRTAllocator@ATL@@@_ATL_SAFE_ALLOCA_IMPL@ATL@@QAE@XZ ; ATL::_ATL_SAFE_ALLOCA_IMPL::CAtlSafeAllocBufferManager<ATL::CCRTAllocator>::CAtlSafeAllocBufferManager<ATL::CCRTAllocator>
PUBLIC	?Allocate@?$CAtlSafeAllocBufferManager@VCCRTAllocator@ATL@@@_ATL_SAFE_ALLOCA_IMPL@ATL@@QAEPAXK@Z ; ATL::_ATL_SAFE_ALLOCA_IMPL::CAtlSafeAllocBufferManager<ATL::CCRTAllocator>::Allocate
PUBLIC	??1?$CAtlSafeAllocBufferManager@VCCRTAllocator@ATL@@@_ATL_SAFE_ALLOCA_IMPL@ATL@@QAE@XZ ; ATL::_ATL_SAFE_ALLOCA_IMPL::CAtlSafeAllocBufferManager<ATL::CCRTAllocator>::~CAtlSafeAllocBufferManager<ATL::CCRTAllocator>
PUBLIC	?AtlThrow@ATL@@YGXJ@Z				; ATL::AtlThrow
PUBLIC	?_AtlVerifyStackAvailable@_ATL_SAFE_ALLOCA_IMPL@ATL@@YA_NK@Z ; ATL::_ATL_SAFE_ALLOCA_IMPL::_AtlVerifyStackAvailable
PUBLIC	?AtlW2AHelper@@YGPADPADPB_WHI@Z			; AtlW2AHelper
EXTRN	__imp__lstrlenW@4:NEAR
EXTRN	__imp__CompareStringA@24:NEAR
EXTRN	__alloca_probe:NEAR
;	COMDAT xdata$x
xdata$x	SEGMENT
$T92976	DD	0ffffffffH
	DD	FLAT:$L92968
$T92970	DD	019930520H
	DD	01H
	DD	FLAT:$T92976
	DD	2 DUP(00H)
	DD	2 DUP(00H)
; Function compile flags: /Odt /RTCsu
xdata$x	ENDS
;	COMDAT ?CompareStringWFake@ATL@@YGHKKPB_WH0H@Z
_TEXT	SEGMENT
tv147 = -76						; size = 4
tv142 = -72						; size = 4
tv149 = -68						; size = 4
tv89 = -64						; size = 4
tv84 = -60						; size = 4
tv91 = -56						; size = 4
$T92967 = -52						; size = 4
_pszAString2$ = -48					; size = 4
_pszAString1$ = -44					; size = 4
__AtlSafeAllocaManager$ = -36				; size = 4
__lpa_ex$ = -28						; size = 4
__lpw_ex$ = -24						; size = 4
__acp_ex$ = -20						; size = 4
__convert_ex$ = -16					; size = 4
__$EHRec$ = -12						; size = 12
_lcid$ = 8						; size = 4
_dwFlags$ = 12						; size = 4
_pszString1$ = 16					; size = 4
_nLength1$ = 20						; size = 4
_pszString2$ = 24					; size = 4
_nLength2$ = 28						; size = 4
?CompareStringWFake@ATL@@YGHKKPB_WH0H@Z PROC NEAR	; ATL::CompareStringWFake, COMDAT

; 192  : {

  00000	55		 push	 ebp
  00001	8b ec		 mov	 ebp, esp
  00003	6a ff		 push	 -1
  00005	68 00 00 00 00	 push	 __ehhandler$?CompareStringWFake@ATL@@YGHKKPB_WH0H@Z
  0000a	64 a1 00 00 00
	00		 mov	 eax, DWORD PTR fs:__except_list
  00010	50		 push	 eax
  00011	64 89 25 00 00
	00 00		 mov	 DWORD PTR fs:__except_list, esp
  00018	83 ec 40	 sub	 esp, 64			; 00000040H
  0001b	56		 push	 esi
  0001c	57		 push	 edi
  0001d	8d 7d b4	 lea	 edi, DWORD PTR [ebp-76]
  00020	b9 10 00 00 00	 mov	 ecx, 16			; 00000010H
  00025	b8 cc cc cc cc	 mov	 eax, -858993460		; ccccccccH
  0002a	f3 ab		 rep stosd

; 193  : 	USES_CONVERSION_EX;

  0002c	c7 45 f0 00 00
	00 00		 mov	 DWORD PTR __convert_ex$[ebp], 0
  00033	e8 00 00 00 00	 call	 ?_AtlGetConversionACP@ATL@@YGIXZ ; ATL::_AtlGetConversionACP
  00038	89 45 ec	 mov	 DWORD PTR __acp_ex$[ebp], eax
  0003b	c7 45 e8 00 00
	00 00		 mov	 DWORD PTR __lpw_ex$[ebp], 0
  00042	c7 45 e4 00 00
	00 00		 mov	 DWORD PTR __lpa_ex$[ebp], 0
  00049	8d 4d dc	 lea	 ecx, DWORD PTR __AtlSafeAllocaManager$[ebp]
  0004c	e8 00 00 00 00	 call	 ??0?$CAtlSafeAllocBufferManager@VCCRTAllocator@ATL@@@_ATL_SAFE_ALLOCA_IMPL@ATL@@QAE@XZ ; ATL::_ATL_SAFE_ALLOCA_IMPL::CAtlSafeAllocBufferManager<ATL::CCRTAllocator>::CAtlSafeAllocBufferManager<ATL::CCRTAllocator>
  00051	c7 45 fc 00 00
	00 00		 mov	 DWORD PTR __$EHRec$[ebp+8], 0

; 194  : 	
; 195  : 	LPCSTR pszAString1 = NULL;

  00058	c7 45 d4 00 00
	00 00		 mov	 DWORD PTR _pszAString1$[ebp], 0

; 196  : 	if(pszString1 != NULL)

  0005f	83 7d 10 00	 cmp	 DWORD PTR _pszString1$[ebp], 0
  00063	0f 84 a1 00 00
	00		 je	 $L81779

; 197  : 	{
; 198  : 		pszAString1 = W2A_EX(pszString1,_ATL_SAFE_ALLOCA_DEF_THRESHOLD);

  00069	8b 45 10	 mov	 eax, DWORD PTR _pszString1$[ebp]
  0006c	89 45 e8	 mov	 DWORD PTR __lpw_ex$[ebp], eax
  0006f	83 7d e8 00	 cmp	 DWORD PTR __lpw_ex$[ebp], 0
  00073	75 09		 jne	 SHORT $L92961
  00075	c7 45 c8 00 00
	00 00		 mov	 DWORD PTR tv91[ebp], 0
  0007c	eb 76		 jmp	 SHORT $L92962
$L92961:
  0007e	8b f4		 mov	 esi, esp
  00080	8b 4d e8	 mov	 ecx, DWORD PTR __lpw_ex$[ebp]
  00083	51		 push	 ecx
  00084	ff 15 00 00 00
	00		 call	 DWORD PTR __imp__lstrlenW@4
  0008a	3b f4		 cmp	 esi, esp
  0008c	e8 00 00 00 00	 call	 __RTC_CheckEsp
  00091	8d 54 00 02	 lea	 edx, DWORD PTR [eax+eax+2]
  00095	89 55 f0	 mov	 DWORD PTR __convert_ex$[ebp], edx
  00098	81 7d f0 00 04
	00 00		 cmp	 DWORD PTR __convert_ex$[ebp], 1024 ; 00000400H
  0009f	7f 2c		 jg	 SHORT $L92959
  000a1	8b 45 f0	 mov	 eax, DWORD PTR __convert_ex$[ebp]
  000a4	50		 push	 eax
  000a5	e8 00 00 00 00	 call	 ?_AtlVerifyStackAvailable@_ATL_SAFE_ALLOCA_IMPL@ATL@@YA_NK@Z ; ATL::_ATL_SAFE_ALLOCA_IMPL::_AtlVerifyStackAvailable
  000aa	83 c4 04	 add	 esp, 4
  000ad	0f b6 c8	 movzx	 ecx, al
  000b0	85 c9		 test	 ecx, ecx
  000b2	74 19		 je	 SHORT $L92959
  000b4	8b 45 f0	 mov	 eax, DWORD PTR __convert_ex$[ebp]
  000b7	83 c0 03	 add	 eax, 3
  000ba	83 e0 fc	 and	 eax, -4			; fffffffcH
  000bd	e8 00 00 00 00	 call	 __alloca_probe
  000c2	89 65 c4	 mov	 DWORD PTR tv84[ebp], esp
  000c5	8b 55 c4	 mov	 edx, DWORD PTR tv84[ebp]
  000c8	89 55 c0	 mov	 DWORD PTR tv89[ebp], edx
  000cb	eb 0f		 jmp	 SHORT $L92960
$L92959:
  000cd	8b 45 f0	 mov	 eax, DWORD PTR __convert_ex$[ebp]
  000d0	50		 push	 eax
  000d1	8d 4d dc	 lea	 ecx, DWORD PTR __AtlSafeAllocaManager$[ebp]
  000d4	e8 00 00 00 00	 call	 ?Allocate@?$CAtlSafeAllocBufferManager@VCCRTAllocator@ATL@@@_ATL_SAFE_ALLOCA_IMPL@ATL@@QAEPAXK@Z ; ATL::_ATL_SAFE_ALLOCA_IMPL::CAtlSafeAllocBufferManager<ATL::CCRTAllocator>::Allocate
  000d9	89 45 c0	 mov	 DWORD PTR tv89[ebp], eax
$L92960:
  000dc	8b 4d ec	 mov	 ecx, DWORD PTR __acp_ex$[ebp]
  000df	51		 push	 ecx
  000e0	8b 55 f0	 mov	 edx, DWORD PTR __convert_ex$[ebp]
  000e3	52		 push	 edx
  000e4	8b 45 e8	 mov	 eax, DWORD PTR __lpw_ex$[ebp]
  000e7	50		 push	 eax
  000e8	8b 4d c0	 mov	 ecx, DWORD PTR tv89[ebp]
  000eb	51		 push	 ecx
  000ec	e8 00 00 00 00	 call	 ?AtlW2AHelper@@YGPADPADPB_WHI@Z ; AtlW2AHelper
  000f1	89 45 c8	 mov	 DWORD PTR tv91[ebp], eax
$L92962:
  000f4	8b 55 c8	 mov	 edx, DWORD PTR tv91[ebp]
  000f7	89 55 d4	 mov	 DWORD PTR _pszAString1$[ebp], edx

; 199  : 		if(pszAString1 == NULL)

  000fa	83 7d d4 00	 cmp	 DWORD PTR _pszAString1$[ebp], 0
  000fe	75 0a		 jne	 SHORT $L81779

; 200  : 			AtlThrow(E_OUTOFMEMORY);

  00100	68 0e 00 07 80	 push	 -2147024882		; 8007000eH
  00105	e8 00 00 00 00	 call	 ?AtlThrow@ATL@@YGXJ@Z	; ATL::AtlThrow
$L81779:

; 201  : 	}
; 202  : 
; 203  : 	LPCSTR pszAString2 = NULL;

  0010a	c7 45 d0 00 00
	00 00		 mov	 DWORD PTR _pszAString2$[ebp], 0

; 204  : 	if(pszString2 != NULL)

  00111	83 7d 18 00	 cmp	 DWORD PTR _pszString2$[ebp], 0
  00115	0f 84 a1 00 00
	00		 je	 $L81785

; 205  : 	{
; 206  : 		pszAString2 = W2A_EX(pszString2,_ATL_SAFE_ALLOCA_DEF_THRESHOLD);

  0011b	8b 45 18	 mov	 eax, DWORD PTR _pszString2$[ebp]
  0011e	89 45 e8	 mov	 DWORD PTR __lpw_ex$[ebp], eax
  00121	83 7d e8 00	 cmp	 DWORD PTR __lpw_ex$[ebp], 0
  00125	75 09		 jne	 SHORT $L92965
  00127	c7 45 bc 00 00
	00 00		 mov	 DWORD PTR tv149[ebp], 0
  0012e	eb 76		 jmp	 SHORT $L92966
$L92965:
  00130	8b f4		 mov	 esi, esp
  00132	8b 4d e8	 mov	 ecx, DWORD PTR __lpw_ex$[ebp]
  00135	51		 push	 ecx
  00136	ff 15 00 00 00
	00		 call	 DWORD PTR __imp__lstrlenW@4
  0013c	3b f4		 cmp	 esi, esp
  0013e	e8 00 00 00 00	 call	 __RTC_CheckEsp
  00143	8d 54 00 02	 lea	 edx, DWORD PTR [eax+eax+2]
  00147	89 55 f0	 mov	 DWORD PTR __convert_ex$[ebp], edx
  0014a	81 7d f0 00 04
	00 00		 cmp	 DWORD PTR __convert_ex$[ebp], 1024 ; 00000400H
  00151	7f 2c		 jg	 SHORT $L92963
  00153	8b 45 f0	 mov	 eax, DWORD PTR __convert_ex$[ebp]
  00156	50		 push	 eax
  00157	e8 00 00 00 00	 call	 ?_AtlVerifyStackAvailable@_ATL_SAFE_ALLOCA_IMPL@ATL@@YA_NK@Z ; ATL::_ATL_SAFE_ALLOCA_IMPL::_AtlVerifyStackAvailable
  0015c	83 c4 04	 add	 esp, 4
  0015f	0f b6 c8	 movzx	 ecx, al
  00162	85 c9		 test	 ecx, ecx
  00164	74 19		 je	 SHORT $L92963
  00166	8b 45 f0	 mov	 eax, DWORD PTR __convert_ex$[ebp]
  00169	83 c0 03	 add	 eax, 3
  0016c	83 e0 fc	 and	 eax, -4			; fffffffcH
  0016f	e8 00 00 00 00	 call	 __alloca_probe
  00174	89 65 b8	 mov	 DWORD PTR tv142[ebp], esp
  00177	8b 55 b8	 mov	 edx, DWORD PTR tv142[ebp]
  0017a	89 55 b4	 mov	 DWORD PTR tv147[ebp], edx
  0017d	eb 0f		 jmp	 SHORT $L92964
$L92963:
  0017f	8b 45 f0	 mov	 eax, DWORD PTR __convert_ex$[ebp]
  00182	50		 push	 eax
  00183	8d 4d dc	 lea	 ecx, DWORD PTR __AtlSafeAllocaManager$[ebp]
  00186	e8 00 00 00 00	 call	 ?Allocate@?$CAtlSafeAllocBufferManager@VCCRTAllocator@ATL@@@_ATL_SAFE_ALLOCA_IMPL@ATL@@QAEPAXK@Z ; ATL::_ATL_SAFE_ALLOCA_IMPL::CAtlSafeAllocBufferManager<ATL::CCRTAllocator>::Allocate
  0018b	89 45 b4	 mov	 DWORD PTR tv147[ebp], eax
$L92964:
  0018e	8b 4d ec	 mov	 ecx, DWORD PTR __acp_ex$[ebp]
  00191	51		 push	 ecx
  00192	8b 55 f0	 mov	 edx, DWORD PTR __convert_ex$[ebp]
  00195	52		 push	 edx
  00196	8b 45 e8	 mov	 eax, DWORD PTR __lpw_ex$[ebp]
  00199	50		 push	 eax
  0019a	8b 4d b4	 mov	 ecx, DWORD PTR tv147[ebp]
  0019d	51		 push	 ecx
  0019e	e8 00 00 00 00	 call	 ?AtlW2AHelper@@YGPADPADPB_WHI@Z ; AtlW2AHelper
  001a3	89 45 bc	 mov	 DWORD PTR tv149[ebp], eax
$L92966:
  001a6	8b 55 bc	 mov	 edx, DWORD PTR tv149[ebp]
  001a9	89 55 d0	 mov	 DWORD PTR _pszAString2$[ebp], edx

; 207  : 		if(pszAString2 == NULL)

  001ac	83 7d d0 00	 cmp	 DWORD PTR _pszAString2$[ebp], 0
  001b0	75 0a		 jne	 SHORT $L81785

; 208  : 			AtlThrow(E_OUTOFMEMORY);

  001b2	68 0e 00 07 80	 push	 -2147024882		; 8007000eH
  001b7	e8 00 00 00 00	 call	 ?AtlThrow@ATL@@YGXJ@Z	; ATL::AtlThrow
$L81785:

; 209  : 	}
; 210  : 
; 211  : 	return ::CompareStringA(lcid, dwFlags, pszAString1, nLength1, pszAString2, nLength2);

  001bc	8b f4		 mov	 esi, esp
  001be	8b 45 1c	 mov	 eax, DWORD PTR _nLength2$[ebp]
  001c1	50		 push	 eax
  001c2	8b 4d d0	 mov	 ecx, DWORD PTR _pszAString2$[ebp]
  001c5	51		 push	 ecx
  001c6	8b 55 14	 mov	 edx, DWORD PTR _nLength1$[ebp]
  001c9	52		 push	 edx
  001ca	8b 45 d4	 mov	 eax, DWORD PTR _pszAString1$[ebp]
  001cd	50		 push	 eax
  001ce	8b 4d 0c	 mov	 ecx, DWORD PTR _dwFlags$[ebp]
  001d1	51		 push	 ecx
  001d2	8b 55 08	 mov	 edx, DWORD PTR _lcid$[ebp]
  001d5	52		 push	 edx
  001d6	ff 15 00 00 00
	00		 call	 DWORD PTR __imp__CompareStringA@24
  001dc	3b f4		 cmp	 esi, esp
  001de	e8 00 00 00 00	 call	 __RTC_CheckEsp
  001e3	89 45 cc	 mov	 DWORD PTR $T92967[ebp], eax
  001e6	c7 45 fc ff ff
	ff ff		 mov	 DWORD PTR __$EHRec$[ebp+8], -1
  001ed	8d 4d dc	 lea	 ecx, DWORD PTR __AtlSafeAllocaManager$[ebp]
  001f0	e8 00 00 00 00	 call	 ??1?$CAtlSafeAllocBufferManager@VCCRTAllocator@ATL@@@_ATL_SAFE_ALLOCA_IMPL@ATL@@QAE@XZ ; ATL::_ATL_SAFE_ALLOCA_IMPL::CAtlSafeAllocBufferManager<ATL::CCRTAllocator>::~CAtlSafeAllocBufferManager<ATL::CCRTAllocator>
  001f5	8b 45 cc	 mov	 eax, DWORD PTR $T92967[ebp]
$L92958:

; 212  : }

  001f8	8d 65 ac	 lea	 esp, DWORD PTR [ebp-84]
  001fb	52		 push	 edx
  001fc	8b cd		 mov	 ecx, ebp
  001fe	50		 push	 eax
  001ff	8d 15 00 00 00
	00		 lea	 edx, DWORD PTR $L92975
  00205	e8 00 00 00 00	 call	 @_RTC_CheckStackVars@8
  0020a	58		 pop	 eax
  0020b	5a		 pop	 edx
  0020c	8b 4d f4	 mov	 ecx, DWORD PTR __$EHRec$[ebp]
  0020f	64 89 0d 00 00
	00 00		 mov	 DWORD PTR fs:__except_list, ecx
  00216	5f		 pop	 edi
  00217	5e		 pop	 esi
  00218	8b e5		 mov	 esp, ebp
  0021a	5d		 pop	 ebp
  0021b	c2 18 00	 ret	 24			; 00000018H
$L92975:
  0021e	01 00 00 00	 DD	 1
  00222	00 00 00 00	 DD	 $L92974
$L92974:
  00226	dc ff ff ff	 DD	 -36			; ffffffdcH
  0022a	04 00 00 00	 DD	 4
  0022e	00 00 00 00	 DD	 $L92972
$L92972:
  00232	5f		 DB	 95			; 0000005fH
  00233	41		 DB	 65			; 00000041H
  00234	74		 DB	 116			; 00000074H
  00235	6c		 DB	 108			; 0000006cH
  00236	53		 DB	 83			; 00000053H
  00237	61		 DB	 97			; 00000061H
  00238	66		 DB	 102			; 00000066H
  00239	65		 DB	 101			; 00000065H
  0023a	41		 DB	 65			; 00000041H
  0023b	6c		 DB	 108			; 0000006cH
  0023c	6c		 DB	 108			; 0000006cH
  0023d	6f		 DB	 111			; 0000006fH
  0023e	63		 DB	 99			; 00000063H
  0023f	61		 DB	 97			; 00000061H
  00240	4d		 DB	 77			; 0000004dH
  00241	61		 DB	 97			; 00000061H
  00242	6e		 DB	 110			; 0000006eH
  00243	61		 DB	 97			; 00000061H
  00244	67		 DB	 103			; 00000067H
  00245	65		 DB	 101			; 00000065H
  00246	72		 DB	 114			; 00000072H
  00247	00		 DB	 0
_TEXT	ENDS
;	COMDAT text$x
text$x	SEGMENT
$L92968:
  00000	8d 4d dc	 lea	 ecx, DWORD PTR __AtlSafeAllocaManager$[ebp]
  00003	e9 00 00 00 00	 jmp	 ??1?$CAtlSafeAllocBufferManager@VCCRTAllocator@ATL@@@_ATL_SAFE_ALLOCA_IMPL@ATL@@QAE@XZ ; ATL::_ATL_SAFE_ALLOCA_IMPL::CAtlSafeAllocBufferManager<ATL::CCRTAllocator>::~CAtlSafeAllocBufferManager<ATL::CCRTAllocator>
__ehhandler$?CompareStringWFake@ATL@@YGHKKPB_WH0H@Z:
  00008	b8 00 00 00 00	 mov	 eax, OFFSET FLAT:$T92970
  0000d	e9 00 00 00 00	 jmp	 ___CxxFrameHandler
text$x	ENDS
?CompareStringWFake@ATL@@YGHKKPB_WH0H@Z ENDP		; ATL::CompareStringWFake
EXTRN	__imp___resetstkoflw:NEAR
EXTRN	__except_handler3:NEAR
;	COMDAT CONST
; File d:\program files (x86)\microsoft visual studio .net 2003\vc7\atlmfc\include\atlalloc.h
CONST	SEGMENT
$T92986	DD	0ffffffffH
	DD	FLAT:$L92981
	DD	FLAT:$L92982
; Function compile flags: /Odt /RTCsu
CONST	ENDS
;	COMDAT ?_AtlVerifyStackAvailable@_ATL_SAFE_ALLOCA_IMPL@ATL@@YA_NK@Z
_TEXT	SEGMENT
tv65 = -48						; size = 4
$T92985 = -44						; size = 4
_p$66268 = -36						; size = 4
_bStackAvailable$ = -25					; size = 1
__$SEHRec$ = -24					; size = 24
_Size$ = 8						; size = 4
?_AtlVerifyStackAvailable@_ATL_SAFE_ALLOCA_IMPL@ATL@@YA_NK@Z PROC NEAR ; ATL::_ATL_SAFE_ALLOCA_IMPL::_AtlVerifyStackAvailable, COMDAT

; 331  : {

  00000	55		 push	 ebp
  00001	8b ec		 mov	 ebp, esp
  00003	6a ff		 push	 -1
  00005	68 00 00 00 00	 push	 OFFSET FLAT:$T92986
  0000a	68 00 00 00 00	 push	 OFFSET FLAT:__except_handler3
  0000f	64 a1 00 00 00
	00		 mov	 eax, DWORD PTR fs:__except_list
  00015	50		 push	 eax
  00016	64 89 25 00 00
	00 00		 mov	 DWORD PTR fs:__except_list, esp
  0001d	83 c4 e0	 add	 esp, -32		; ffffffe0H
  00020	53		 push	 ebx
  00021	56		 push	 esi
  00022	57		 push	 edi
  00023	b8 cc cc cc cc	 mov	 eax, -858993460		; ccccccccH
  00028	89 45 d0	 mov	 DWORD PTR [ebp-48], eax
  0002b	89 45 d4	 mov	 DWORD PTR [ebp-44], eax
  0002e	89 45 d8	 mov	 DWORD PTR [ebp-40], eax
  00031	89 45 dc	 mov	 DWORD PTR [ebp-36], eax
  00034	89 45 e0	 mov	 DWORD PTR [ebp-32], eax
  00037	89 45 e4	 mov	 DWORD PTR [ebp-28], eax
  0003a	89 65 e8	 mov	 DWORD PTR __$SEHRec$[ebp], esp

; 332  :     bool bStackAvailable = true;

  0003d	c6 45 e7 01	 mov	 BYTE PTR _bStackAvailable$[ebp], 1

; 333  : 
; 334  :     __try

  00041	c7 45 fc 00 00
	00 00		 mov	 DWORD PTR __$SEHRec$[ebp+20], 0

; 335  :     {
; 336  :         PVOID p = _alloca(Size + _ATL_STACK_MARGIN);

  00048	8b 45 08	 mov	 eax, DWORD PTR _Size$[ebp]
  0004b	05 03 20 00 00	 add	 eax, 8195		; 00002003H
  00050	83 e0 fc	 and	 eax, -4			; fffffffcH
  00053	e8 00 00 00 00	 call	 __alloca_probe
  00058	89 65 d0	 mov	 DWORD PTR tv65[ebp], esp
  0005b	89 65 e8	 mov	 DWORD PTR __$SEHRec$[ebp], esp
  0005e	8b 45 d0	 mov	 eax, DWORD PTR tv65[ebp]
  00061	89 45 dc	 mov	 DWORD PTR _p$66268[ebp], eax
  00064	c7 45 fc ff ff
	ff ff		 mov	 DWORD PTR __$SEHRec$[ebp+20], -1
  0006b	eb 35		 jmp	 SHORT $L92984
$L92981:

; 337  :         (p);
; 338  :     }
; 339  :     __except ((EXCEPTION_STACK_OVERFLOW == GetExceptionCode()) ?
; 340  :                    EXCEPTION_EXECUTE_HANDLER :
; 341  :                    EXCEPTION_CONTINUE_SEARCH)

  0006d	8b 4d ec	 mov	 ecx, DWORD PTR __$SEHRec$[ebp+4]
  00070	8b 11		 mov	 edx, DWORD PTR [ecx]
  00072	8b 02		 mov	 eax, DWORD PTR [edx]
  00074	89 45 d4	 mov	 DWORD PTR $T92985[ebp], eax
  00077	8b 45 d4	 mov	 eax, DWORD PTR $T92985[ebp]
  0007a	2d fd 00 00 c0	 sub	 eax, -1073741571	; c00000fdH
  0007f	f7 d8		 neg	 eax
  00081	1b c0		 sbb	 eax, eax
  00083	40		 inc	 eax
$L92983:
  00084	c3		 ret	 0
$L92982:
  00085	8b 65 e8	 mov	 esp, DWORD PTR __$SEHRec$[ebp]

; 342  :     {
; 343  :         bStackAvailable = false;

  00088	c6 45 e7 00	 mov	 BYTE PTR _bStackAvailable$[ebp], 0

; 344  :         _resetstkoflw();

  0008c	8b f4		 mov	 esi, esp
  0008e	ff 15 00 00 00
	00		 call	 DWORD PTR __imp___resetstkoflw
  00094	3b f4		 cmp	 esi, esp
  00096	e8 00 00 00 00	 call	 __RTC_CheckEsp
  0009b	c7 45 fc ff ff
	ff ff		 mov	 DWORD PTR __$SEHRec$[ebp+20], -1
$L92984:

; 345  :     }
; 346  :     return bStackAvailable;

  000a2	8a 45 e7	 mov	 al, BYTE PTR _bStackAvailable$[ebp]
$L92980:

; 347  : }

  000a5	8d 65 c4	 lea	 esp, DWORD PTR [ebp-60]
  000a8	52		 push	 edx
  000a9	8b cd		 mov	 ecx, ebp
  000ab	50		 push	 eax
  000ac	8d 15 00 00 00
	00		 lea	 edx, DWORD PTR $L92991
  000b2	e8 00 00 00 00	 call	 @_RTC_CheckStackVars@8
  000b7	58		 pop	 eax
  000b8	5a		 pop	 edx
  000b9	8b 4d f0	 mov	 ecx, DWORD PTR __$SEHRec$[ebp+8]
  000bc	64 89 0d 00 00
	00 00		 mov	 DWORD PTR fs:__except_list, ecx
  000c3	5f		 pop	 edi
  000c4	5e		 pop	 esi
  000c5	5b		 pop	 ebx
  000c6	8b e5		 mov	 esp, ebp
  000c8	5d		 pop	 ebp
  000c9	c3		 ret	 0
$L92991:
  000ca	01 00 00 00	 DD	 1
  000ce	00 00 00 00	 DD	 $L92990
$L92990:
  000d2	dc ff ff ff	 DD	 -36			; ffffffdcH
  000d6	04 00 00 00	 DD	 4
  000da	00 00 00 00	 DD	 $L92988
$L92988:
  000de	70		 DB	 112			; 00000070H
  000df	00		 DB	 0
?_AtlVerifyStackAvailable@_ATL_SAFE_ALLOCA_IMPL@ATL@@YA_NK@Z ENDP ; ATL::_ATL_SAFE_ALLOCA_IMPL::_AtlVerifyStackAvailable
_TEXT	ENDS
PUBLIC	??_C@_08DMHHBMMN@lpa?5?$CB?$DN?50?$AA@		; `string'
PUBLIC	??_C@_0FG@PFHCBDBK@D?3?2Program?5Files?5?$CIx86?$CJ?2Microsoft@ ; `string'
PUBLIC	??_C@_08DIHJLFDJ@lpw?5?$CB?$DN?50?$AA@		; `string'
PUBLIC	??_C@_01GBGANLPD@0?$AA@				; `string'
EXTRN	__imp__WideCharToMultiByte@32:NEAR
;	COMDAT ??_C@_08DIHJLFDJ@lpw?5?$CB?$DN?50?$AA@
; File d:\program files (x86)\microsoft visual studio .net 2003\vc7\atlmfc\include\atlconv.h
CONST	SEGMENT
??_C@_08DIHJLFDJ@lpw?5?$CB?$DN?50?$AA@ DB 'lpw != 0', 00H ; `string'
CONST	ENDS
;	COMDAT ??_C@_0FG@PFHCBDBK@D?3?2Program?5Files?5?$CIx86?$CJ?2Microsoft@
CONST	SEGMENT
??_C@_0FG@PFHCBDBK@D?3?2Program?5Files?5?$CIx86?$CJ?2Microsoft@ DB 'D:\Pr'
	DB	'ogram Files (x86)\Microsoft Visual Studio .NET 2003\Vc7\atlmf'
	DB	'c\include\atlconv.h', 00H			; `string'
CONST	ENDS
;	COMDAT ??_C@_08DMHHBMMN@lpa?5?$CB?$DN?50?$AA@
CONST	SEGMENT
??_C@_08DMHHBMMN@lpa?5?$CB?$DN?50?$AA@ DB 'lpa != 0', 00H ; `string'
CONST	ENDS
;	COMDAT ??_C@_01GBGANLPD@0?$AA@
CONST	SEGMENT
??_C@_01GBGANLPD@0?$AA@ DB '0', 00H			; `string'
; Function compile flags: /Odt /RTCsu
CONST	ENDS
;	COMDAT ?AtlW2AHelper@@YGPADPADPB_WHI@Z
_TEXT	SEGMENT
_ret$ = -4						; size = 4
_lpa$ = 8						; size = 4
_lpw$ = 12						; size = 4
_nChars$ = 16						; size = 4
_acp$ = 20						; size = 4
?AtlW2AHelper@@YGPADPADPB_WHI@Z PROC NEAR		; AtlW2AHelper, COMDAT

; 573  : {

  00000	55		 push	 ebp
  00001	8b ec		 mov	 ebp, esp
  00003	51		 push	 ecx
  00004	56		 push	 esi
  00005	c7 45 fc cc cc
	cc cc		 mov	 DWORD PTR [ebp-4], -858993460 ; ccccccccH

; 574  : 	ATLASSERT(lpw != NULL);

  0000c	83 7d 0c 00	 cmp	 DWORD PTR _lpw$[ebp], 0
  00010	75 2b		 jne	 SHORT $L92995
  00012	8b f4		 mov	 esi, esp
  00014	68 00 00 00 00	 push	 OFFSET FLAT:??_C@_08DIHJLFDJ@lpw?5?$CB?$DN?50?$AA@
  00019	6a 00		 push	 0
  0001b	68 3e 02 00 00	 push	 574			; 0000023eH
  00020	68 00 00 00 00	 push	 OFFSET FLAT:??_C@_0FG@PFHCBDBK@D?3?2Program?5Files?5?$CIx86?$CJ?2Microsoft@
  00025	6a 02		 push	 2
  00027	ff 15 00 00 00
	00		 call	 DWORD PTR __imp___CrtDbgReport
  0002d	83 c4 14	 add	 esp, 20			; 00000014H
  00030	3b f4		 cmp	 esi, esp
  00032	e8 00 00 00 00	 call	 __RTC_CheckEsp
  00037	83 f8 01	 cmp	 eax, 1
  0003a	75 01		 jne	 SHORT $L92995
  0003c	cc		 int	 3
$L92995:

; 575  : 	ATLASSERT(lpa != NULL);

  0003d	83 7d 08 00	 cmp	 DWORD PTR _lpa$[ebp], 0
  00041	75 2b		 jne	 SHORT $L92996
  00043	8b f4		 mov	 esi, esp
  00045	68 00 00 00 00	 push	 OFFSET FLAT:??_C@_08DMHHBMMN@lpa?5?$CB?$DN?50?$AA@
  0004a	6a 00		 push	 0
  0004c	68 3f 02 00 00	 push	 575			; 0000023fH
  00051	68 00 00 00 00	 push	 OFFSET FLAT:??_C@_0FG@PFHCBDBK@D?3?2Program?5Files?5?$CIx86?$CJ?2Microsoft@
  00056	6a 02		 push	 2
  00058	ff 15 00 00 00
	00		 call	 DWORD PTR __imp___CrtDbgReport
  0005e	83 c4 14	 add	 esp, 20			; 00000014H
  00061	3b f4		 cmp	 esi, esp
  00063	e8 00 00 00 00	 call	 __RTC_CheckEsp
  00068	83 f8 01	 cmp	 eax, 1
  0006b	75 01		 jne	 SHORT $L92996
  0006d	cc		 int	 3
$L92996:

; 576  : 	if (lpa == NULL || lpw == NULL)

  0006e	83 7d 08 00	 cmp	 DWORD PTR _lpa$[ebp], 0
  00072	74 06		 je	 SHORT $L66459
  00074	83 7d 0c 00	 cmp	 DWORD PTR _lpw$[ebp], 0
  00078	75 04		 jne	 SHORT $L66458
$L66459:

; 577  : 		return NULL;

  0007a	33 c0		 xor	 eax, eax
  0007c	eb 6c		 jmp	 SHORT $L66455
$L66458:

; 578  : 	// verify that no illegal character present
; 579  : 	// since lpa was allocated based on the size of lpw
; 580  : 	// don't worry about the number of chars
; 581  : 	lpa[0] = '\0';

  0007e	8b 55 08	 mov	 edx, DWORD PTR _lpa$[ebp]
  00081	c6 02 00	 mov	 BYTE PTR [edx], 0

; 582  : 	int ret = WideCharToMultiByte(acp, 0, lpw, -1, lpa, nChars, NULL, NULL);

  00084	8b f4		 mov	 esi, esp
  00086	6a 00		 push	 0
  00088	6a 00		 push	 0
  0008a	8b 45 10	 mov	 eax, DWORD PTR _nChars$[ebp]
  0008d	50		 push	 eax
  0008e	8b 4d 08	 mov	 ecx, DWORD PTR _lpa$[ebp]
  00091	51		 push	 ecx
  00092	6a ff		 push	 -1
  00094	8b 55 0c	 mov	 edx, DWORD PTR _lpw$[ebp]
  00097	52		 push	 edx
  00098	6a 00		 push	 0
  0009a	8b 45 14	 mov	 eax, DWORD PTR _acp$[ebp]
  0009d	50		 push	 eax
  0009e	ff 15 00 00 00
	00		 call	 DWORD PTR __imp__WideCharToMultiByte@32
  000a4	3b f4		 cmp	 esi, esp
  000a6	e8 00 00 00 00	 call	 __RTC_CheckEsp
  000ab	89 45 fc	 mov	 DWORD PTR _ret$[ebp], eax

; 583  : 	if(ret == 0)

  000ae	83 7d fc 00	 cmp	 DWORD PTR _ret$[ebp], 0
  000b2	75 33		 jne	 SHORT $L66461

; 584  : 	{
; 585  : 		ATLASSERT(FALSE);

  000b4	33 c9		 xor	 ecx, ecx
  000b6	75 2b		 jne	 SHORT $L92997
  000b8	8b f4		 mov	 esi, esp
  000ba	68 00 00 00 00	 push	 OFFSET FLAT:??_C@_01GBGANLPD@0?$AA@
  000bf	6a 00		 push	 0
  000c1	68 49 02 00 00	 push	 585			; 00000249H
  000c6	68 00 00 00 00	 push	 OFFSET FLAT:??_C@_0FG@PFHCBDBK@D?3?2Program?5Files?5?$CIx86?$CJ?2Microsoft@
  000cb	6a 02		 push	 2
  000cd	ff 15 00 00 00
	00		 call	 DWORD PTR __imp___CrtDbgReport
  000d3	83 c4 14	 add	 esp, 20			; 00000014H
  000d6	3b f4		 cmp	 esi, esp
  000d8	e8 00 00 00 00	 call	 __RTC_CheckEsp
  000dd	83 f8 01	 cmp	 eax, 1
  000e0	75 01		 jne	 SHORT $L92997
  000e2	cc		 int	 3
$L92997:

; 586  : 		return NULL;

  000e3	33 c0		 xor	 eax, eax
  000e5	eb 03		 jmp	 SHORT $L66455
$L66461:

; 587  : 	}
; 588  : 	return lpa;

  000e7	8b 45 08	 mov	 eax, DWORD PTR _lpa$[ebp]
$L66455:

; 589  : }

  000ea	5e		 pop	 esi
  000eb	83 c4 04	 add	 esp, 4
  000ee	3b ec		 cmp	 ebp, esp
  000f0	e8 00 00 00 00	 call	 __RTC_CheckEsp
  000f5	8b e5		 mov	 esp, ebp
  000f7	5d		 pop	 ebp
  000f8	c2 10 00	 ret	 16			; 00000010H
?AtlW2AHelper@@YGPADPADPB_WHI@Z ENDP			; AtlW2AHelper
_TEXT	ENDS
PUBLIC	??BCTraceCategory@ATL@@QBEKXZ			; ATL::CTraceCategory::operator unsigned long
PUBLIC	??0CTraceFileAndLineInfo@ATL@@QAE@PBDH@Z	; ATL::CTraceFileAndLineInfo::CTraceFileAndLineInfo
PUBLIC	??RCTraceFileAndLineInfo@ATL@@QBAXKIPBDZZ	; ATL::CTraceFileAndLineInfo::operator()
PUBLIC	??0CAtlException@ATL@@QAE@J@Z			; ATL::CAtlException::CAtlException
PUBLIC	??_C@_0FI@NHHJANPC@D?3?2Program?5Files?5?$CIx86?$CJ?2Microsoft@ ; `string'
PUBLIC	??_C@_0BF@IAAKIJDJ@AtlThrow?3?5hr?5?$DN?50x?$CFx?6?$AA@ ; `string'
PUBLIC	__TI1?AVCAtlException@ATL@@
PUBLIC	__CTA1?AVCAtlException@ATL@@
PUBLIC	??_R0?AVCAtlException@ATL@@@8			; ATL::CAtlException `RTTI Type Descriptor'
PUBLIC	__CT??_R0?AVCAtlException@ATL@@@84
EXTRN	?atlTraceException@ATL@@3VCTraceCategory@1@A:DWORD ; ATL::atlTraceException
EXTRN	__CxxThrowException@8:NEAR
EXTRN	??_7type_info@@6B@:QWORD			; type_info::`vftable'
;	COMDAT ??_C@_0BF@IAAKIJDJ@AtlThrow?3?5hr?5?$DN?50x?$CFx?6?$AA@
; File d:\program files (x86)\microsoft visual studio .net 2003\vc7\atlmfc\include\atlexcept.h
CONST	SEGMENT
??_C@_0BF@IAAKIJDJ@AtlThrow?3?5hr?5?$DN?50x?$CFx?6?$AA@ DB 'AtlThrow: hr '
	DB	'= 0x%x', 0aH, 00H				; `string'
CONST	ENDS
;	COMDAT ??_C@_0FI@NHHJANPC@D?3?2Program?5Files?5?$CIx86?$CJ?2Microsoft@
CONST	SEGMENT
??_C@_0FI@NHHJANPC@D?3?2Program?5Files?5?$CIx86?$CJ?2Microsoft@ DB 'D:\Pr'
	DB	'ogram Files (x86)\Microsoft Visual Studio .NET 2003\Vc7\atlmf'
	DB	'c\include\atlexcept.h', 00H			; `string'
CONST	ENDS
;	COMDAT __TI1?AVCAtlException@ATL@@
xdata$x	SEGMENT
__TI1?AVCAtlException@ATL@@ DD 00H
	DD	00H
	DD	00H
	DD	FLAT:__CTA1?AVCAtlException@ATL@@
xdata$x	ENDS
;	COMDAT __CTA1?AVCAtlException@ATL@@
xdata$x	SEGMENT
__CTA1?AVCAtlException@ATL@@ DD 01H
	DD	FLAT:__CT??_R0?AVCAtlException@ATL@@@84
xdata$x	ENDS
;	COMDAT __CT??_R0?AVCAtlException@ATL@@@84
xdata$x	SEGMENT
__CT??_R0?AVCAtlException@ATL@@@84 DD 00H
	DD	FLAT:??_R0?AVCAtlException@ATL@@@8
	DD	00H
	DD	0ffffffffH
	ORG $+4
	DD	04H
	DD	00H
xdata$x	ENDS
;	COMDAT ??_R0?AVCAtlException@ATL@@@8
_DATA	SEGMENT
??_R0?AVCAtlException@ATL@@@8 DD FLAT:??_7type_info@@6B@ ; ATL::CAtlException `RTTI Type Descriptor'
	DD	00H
	DB	'.?AVCAtlException@ATL@@', 00H
; Function compile flags: /Odt /RTCsu
_DATA	ENDS
;	COMDAT ?AtlThrow@ATL@@YGXJ@Z
_TEXT	SEGMENT
$T93001 = -16						; size = 4
$T93000 = -12						; size = 4
$T92999 = -8						; size = 8
_hr$ = 8						; size = 4
?AtlThrow@ATL@@YGXJ@Z PROC NEAR				; ATL::AtlThrow, COMDAT

; 61   : {

  00000	55		 push	 ebp
  00001	8b ec		 mov	 ebp, esp
  00003	83 ec 10	 sub	 esp, 16			; 00000010H
  00006	b8 cc cc cc cc	 mov	 eax, -858993460		; ccccccccH
  0000b	89 45 f0	 mov	 DWORD PTR [ebp-16], eax
  0000e	89 45 f4	 mov	 DWORD PTR [ebp-12], eax
  00011	89 45 f8	 mov	 DWORD PTR [ebp-8], eax
  00014	89 45 fc	 mov	 DWORD PTR [ebp-4], eax

; 62   : 	ATLTRACE(atlTraceException, 0, _T("AtlThrow: hr = 0x%x\n"), hr );

  00017	8b 45 08	 mov	 eax, DWORD PTR _hr$[ebp]
  0001a	50		 push	 eax
  0001b	68 00 00 00 00	 push	 OFFSET FLAT:??_C@_0BF@IAAKIJDJ@AtlThrow?3?5hr?5?$DN?50x?$CFx?6?$AA@
  00020	6a 00		 push	 0
  00022	b9 00 00 00 00	 mov	 ecx, OFFSET FLAT:?atlTraceException@ATL@@3VCTraceCategory@1@A ; ATL::atlTraceException
  00027	e8 00 00 00 00	 call	 ??BCTraceCategory@ATL@@QBEKXZ ; ATL::CTraceCategory::operator unsigned long
  0002c	50		 push	 eax
  0002d	6a 3e		 push	 62			; 0000003eH
  0002f	68 00 00 00 00	 push	 OFFSET FLAT:??_C@_0FI@NHHJANPC@D?3?2Program?5Files?5?$CIx86?$CJ?2Microsoft@
  00034	8d 4d f8	 lea	 ecx, DWORD PTR $T92999[ebp]
  00037	e8 00 00 00 00	 call	 ??0CTraceFileAndLineInfo@ATL@@QAE@PBDH@Z ; ATL::CTraceFileAndLineInfo::CTraceFileAndLineInfo
  0003c	50		 push	 eax
  0003d	e8 00 00 00 00	 call	 ??RCTraceFileAndLineInfo@ATL@@QBAXKIPBDZZ ; ATL::CTraceFileAndLineInfo::operator()
  00042	83 c4 14	 add	 esp, 20			; 00000014H

; 63   : #ifdef _AFX
; 64   : 	if( hr == E_OUTOFMEMORY )
; 65   : 	{
; 66   : 		AfxThrowMemoryException();
; 67   : 	}
; 68   : 	else
; 69   : 	{
; 70   : 		AfxThrowOleException( hr );
; 71   : 	}
; 72   : #else
; 73   : 	throw CAtlException( hr );

  00045	8b 4d 08	 mov	 ecx, DWORD PTR _hr$[ebp]
  00048	51		 push	 ecx
  00049	8d 4d f0	 lea	 ecx, DWORD PTR $T93001[ebp]
  0004c	e8 00 00 00 00	 call	 ??0CAtlException@ATL@@QAE@J@Z ; ATL::CAtlException::CAtlException
  00051	8b 10		 mov	 edx, DWORD PTR [eax]
  00053	89 55 f4	 mov	 DWORD PTR $T93000[ebp], edx
  00056	68 00 00 00 00	 push	 OFFSET FLAT:__TI1?AVCAtlException@ATL@@
  0005b	8d 45 f4	 lea	 eax, DWORD PTR $T93000[ebp]
  0005e	50		 push	 eax
  0005f	e8 00 00 00 00	 call	 __CxxThrowException@8
$L92998:

; 74   : #endif
; 75   : };

  00064	83 c4 10	 add	 esp, 16			; 00000010H
  00067	3b ec		 cmp	 ebp, esp
  00069	e8 00 00 00 00	 call	 __RTC_CheckEsp
  0006e	8b e5		 mov	 esp, ebp
  00070	5d		 pop	 ebp
  00071	c2 04 00	 ret	 4
?AtlThrow@ATL@@YGXJ@Z ENDP				; ATL::AtlThrow
; Function compile flags: /Odt /RTCsu
; File d:\program files (x86)\microsoft visual studio .net 2003\vc7\atlmfc\include\atltrace.h
_TEXT	ENDS
;	COMDAT ??0CTraceFileAndLineInfo@ATL@@QAE@PBDH@Z
_TEXT	SEGMENT
_this$ = -4						; size = 4
_pszFileName$ = 8					; size = 4
_nLineNo$ = 12						; size = 4
??0CTraceFileAndLineInfo@ATL@@QAE@PBDH@Z PROC NEAR	; ATL::CTraceFileAndLineInfo::CTraceFileAndLineInfo, COMDAT
; _this$ = ecx

; 158  : 	{}

  00000	55		 push	 ebp
  00001	8b ec		 mov	 ebp, esp
  00003	51		 push	 ecx
  00004	c7 45 fc cc cc
	cc cc		 mov	 DWORD PTR [ebp-4], -858993460 ; ccccccccH
  0000b	89 4d fc	 mov	 DWORD PTR _this$[ebp], ecx
  0000e	8b 45 fc	 mov	 eax, DWORD PTR _this$[ebp]
  00011	8b 4d 08	 mov	 ecx, DWORD PTR _pszFileName$[ebp]
  00014	89 08		 mov	 DWORD PTR [eax], ecx
  00016	8b 55 fc	 mov	 edx, DWORD PTR _this$[ebp]
  00019	8b 45 0c	 mov	 eax, DWORD PTR _nLineNo$[ebp]
  0001c	89 42 04	 mov	 DWORD PTR [edx+4], eax
  0001f	8b 45 fc	 mov	 eax, DWORD PTR _this$[ebp]
  00022	8b e5		 mov	 esp, ebp
  00024	5d		 pop	 ebp
  00025	c2 08 00	 ret	 8
??0CTraceFileAndLineInfo@ATL@@QAE@PBDH@Z ENDP		; ATL::CTraceFileAndLineInfo::CTraceFileAndLineInfo
_TEXT	ENDS
PUBLIC	?TraceV@CTrace@ATL@@QBAXPBDHKI0PAD@Z		; ATL::CTrace::TraceV
EXTRN	?s_trace@CTrace@ATL@@2V12@A:QWORD		; ATL::CTrace::s_trace
; Function compile flags: /Odt /RTCsu
;	COMDAT ??RCTraceFileAndLineInfo@ATL@@QBAXKIPBDZZ
_TEXT	SEGMENT
_ptr$ = -4						; size = 4
_this$ = 8						; size = 4
_dwCategory$ = 12					; size = 4
_nLevel$ = 16						; size = 4
_pszFmt$ = 20						; size = 4
??RCTraceFileAndLineInfo@ATL@@QBAXKIPBDZZ PROC NEAR	; ATL::CTraceFileAndLineInfo::operator(), COMDAT

; 161  : 	{

  00000	55		 push	 ebp
  00001	8b ec		 mov	 ebp, esp
  00003	51		 push	 ecx
  00004	c7 45 fc cc cc
	cc cc		 mov	 DWORD PTR [ebp-4], -858993460 ; ccccccccH

; 162  : 		va_list ptr; va_start(ptr, pszFmt);

  0000b	8d 45 18	 lea	 eax, DWORD PTR _pszFmt$[ebp+4]
  0000e	89 45 fc	 mov	 DWORD PTR _ptr$[ebp], eax

; 163  : 		ATL::CTrace::s_trace.TraceV(m_pszFileName, m_nLineNo, dwCategory, nLevel, pszFmt, ptr);

  00011	8b 4d fc	 mov	 ecx, DWORD PTR _ptr$[ebp]
  00014	51		 push	 ecx
  00015	8b 55 14	 mov	 edx, DWORD PTR _pszFmt$[ebp]
  00018	52		 push	 edx
  00019	8b 45 10	 mov	 eax, DWORD PTR _nLevel$[ebp]
  0001c	50		 push	 eax
  0001d	8b 4d 0c	 mov	 ecx, DWORD PTR _dwCategory$[ebp]
  00020	51		 push	 ecx
  00021	8b 55 08	 mov	 edx, DWORD PTR _this$[ebp]
  00024	8b 42 04	 mov	 eax, DWORD PTR [edx+4]
  00027	50		 push	 eax
  00028	8b 4d 08	 mov	 ecx, DWORD PTR _this$[ebp]
  0002b	8b 11		 mov	 edx, DWORD PTR [ecx]
  0002d	52		 push	 edx
  0002e	68 00 00 00 00	 push	 OFFSET FLAT:?s_trace@CTrace@ATL@@2V12@A
  00033	e8 00 00 00 00	 call	 ?TraceV@CTrace@ATL@@QBAXPBDHKI0PAD@Z ; ATL::CTrace::TraceV
  00038	83 c4 1c	 add	 esp, 28			; 0000001cH

; 164  : 		va_end(ptr);

  0003b	c7 45 fc 00 00
	00 00		 mov	 DWORD PTR _ptr$[ebp], 0

; 165  : 	}

  00042	83 c4 04	 add	 esp, 4
  00045	3b ec		 cmp	 ebp, esp
  00047	e8 00 00 00 00	 call	 __RTC_CheckEsp
  0004c	8b e5		 mov	 esp, ebp
  0004e	5d		 pop	 ebp
  0004f	c3		 ret	 0
??RCTraceFileAndLineInfo@ATL@@QBAXKIPBDZZ ENDP		; ATL::CTraceFileAndLineInfo::operator()
_TEXT	ENDS
EXTRN	_AtlTraceVA:NEAR
; Function compile flags: /Odt /RTCsu
;	COMDAT ?TraceV@CTrace@ATL@@QBAXPBDHKI0PAD@Z
_TEXT	SEGMENT
_this$ = 8						; size = 4
_pszFileName$ = 12					; size = 4
_nLine$ = 16						; size = 4
_dwCategory$ = 20					; size = 4
_nLevel$ = 24						; size = 4
_pszFmt$ = 28						; size = 4
_args$ = 32						; size = 4
?TraceV@CTrace@ATL@@QBAXPBDHKI0PAD@Z PROC NEAR		; ATL::CTrace::TraceV, COMDAT

; 121  : 	{

  00000	55		 push	 ebp
  00001	8b ec		 mov	 ebp, esp

; 122  : 		AtlTraceVA(m_dwModule, pszFileName, nLine, dwCategory, nLevel, pszFmt, args);

  00003	8b 45 20	 mov	 eax, DWORD PTR _args$[ebp]
  00006	50		 push	 eax
  00007	8b 4d 1c	 mov	 ecx, DWORD PTR _pszFmt$[ebp]
  0000a	51		 push	 ecx
  0000b	8b 55 18	 mov	 edx, DWORD PTR _nLevel$[ebp]
  0000e	52		 push	 edx
  0000f	8b 45 14	 mov	 eax, DWORD PTR _dwCategory$[ebp]
  00012	50		 push	 eax
  00013	8b 4d 10	 mov	 ecx, DWORD PTR _nLine$[ebp]
  00016	51		 push	 ecx
  00017	8b 55 0c	 mov	 edx, DWORD PTR _pszFileName$[ebp]
  0001a	52		 push	 edx
  0001b	8b 45 08	 mov	 eax, DWORD PTR _this$[ebp]
  0001e	8b 48 04	 mov	 ecx, DWORD PTR [eax+4]
  00021	51		 push	 ecx
  00022	e8 00 00 00 00	 call	 _AtlTraceVA
  00027	83 c4 1c	 add	 esp, 28			; 0000001cH

; 123  : 	}

  0002a	3b ec		 cmp	 ebp, esp
  0002c	e8 00 00 00 00	 call	 __RTC_CheckEsp
  00031	5d		 pop	 ebp
  00032	c3		 ret	 0
?TraceV@CTrace@ATL@@QBAXPBDHKI0PAD@Z ENDP		; ATL::CTrace::TraceV
; Function compile flags: /Odt /RTCsu
_TEXT	ENDS
;	COMDAT ??BCTraceCategory@ATL@@QBEKXZ
_TEXT	SEGMENT
_this$ = -4						; size = 4
??BCTraceCategory@ATL@@QBEKXZ PROC NEAR			; ATL::CTraceCategory::operator unsigned long, COMDAT
; _this$ = ecx

; 202  : {

  00000	55		 push	 ebp
  00001	8b ec		 mov	 ebp, esp
  00003	51		 push	 ecx
  00004	c7 45 fc cc cc
	cc cc		 mov	 DWORD PTR [ebp-4], -858993460 ; ccccccccH
  0000b	89 4d fc	 mov	 DWORD PTR _this$[ebp], ecx

; 203  : 	return( m_dwCategory );

  0000e	8b 45 fc	 mov	 eax, DWORD PTR _this$[ebp]
  00011	8b 00		 mov	 eax, DWORD PTR [eax]

; 204  : }

  00013	8b e5		 mov	 esp, ebp
  00015	5d		 pop	 ebp
  00016	c3		 ret	 0
??BCTraceCategory@ATL@@QBEKXZ ENDP			; ATL::CTraceCategory::operator unsigned long
; Function compile flags: /Odt /RTCsu
; File d:\program files (x86)\microsoft visual studio .net 2003\vc7\atlmfc\include\atlexcept.h
_TEXT	ENDS
;	COMDAT ??0CAtlException@ATL@@QAE@J@Z
_TEXT	SEGMENT
_this$ = -4						; size = 4
_hr$ = 8						; size = 4
??0CAtlException@ATL@@QAE@J@Z PROC NEAR			; ATL::CAtlException::CAtlException, COMDAT
; _this$ = ecx

; 40   : 	{

  00000	55		 push	 ebp
  00001	8b ec		 mov	 ebp, esp
  00003	51		 push	 ecx
  00004	c7 45 fc cc cc
	cc cc		 mov	 DWORD PTR [ebp-4], -858993460 ; ccccccccH
  0000b	89 4d fc	 mov	 DWORD PTR _this$[ebp], ecx
  0000e	8b 45 fc	 mov	 eax, DWORD PTR _this$[ebp]
  00011	8b 4d 08	 mov	 ecx, DWORD PTR _hr$[ebp]
  00014	89 08		 mov	 DWORD PTR [eax], ecx

; 41   : 	}

  00016	8b 45 fc	 mov	 eax, DWORD PTR _this$[ebp]
  00019	8b e5		 mov	 esp, ebp
  0001b	5d		 pop	 ebp
  0001c	c2 04 00	 ret	 4
??0CAtlException@ATL@@QAE@J@Z ENDP			; ATL::CAtlException::CAtlException
_TEXT	ENDS
PUBLIC	?GetStringTypeExWFake@ATL@@YGHKKPB_WHPAG@Z	; ATL::GetStringTypeExWFake
EXTRN	__imp__GetStringTypeExW@20:NEAR
; Function compile flags: /Odt /RTCsu
; File d:\program files (x86)\microsoft visual studio .net 2003\vc7\atlmfc\include\cstringt.h
;	COMDAT ?GetStringTypeExWThunk@ATL@@YGHKKPB_WHPAG@Z
_TEXT	SEGMENT
_lcid$ = 8						; size = 4
_dwInfoType$ = 12					; size = 4
_pszSrc$ = 16						; size = 4
_nLength$ = 20						; size = 4
_pwCharType$ = 24					; size = 4
?GetStringTypeExWThunk@ATL@@YGHKKPB_WHPAG@Z PROC NEAR	; ATL::GetStringTypeExWThunk, COMDAT

; 240  : {

  00000	55		 push	 ebp
  00001	8b ec		 mov	 ebp, esp
  00003	56		 push	 esi

; 241  : 	_AtlInstallStringThunk(reinterpret_cast<void**>(&_strthunks.pfnGetStringTypeExW), GetStringTypeExWFake, ::GetStringTypeExW);

  00004	a1 00 00 00 00	 mov	 eax, DWORD PTR __imp__GetStringTypeExW@20
  00009	50		 push	 eax
  0000a	68 00 00 00 00	 push	 OFFSET FLAT:?GetStringTypeExWFake@ATL@@YGHKKPB_WHPAG@Z ; ATL::GetStringTypeExWFake
  0000f	68 04 00 00 00	 push	 OFFSET FLAT:?_strthunks@ATL@@3U_AtlStringThunks@1@A+4
  00014	e8 00 00 00 00	 call	 ?_AtlInstallStringThunk@ATL@@YAXPAPAXPAX1@Z ; ATL::_AtlInstallStringThunk
  00019	83 c4 0c	 add	 esp, 12			; 0000000cH

; 242  : 
; 243  : 	return _strthunks.pfnGetStringTypeExW(lcid, dwInfoType, pszSrc, nLength, pwCharType);

  0001c	8b f4		 mov	 esi, esp
  0001e	8b 4d 18	 mov	 ecx, DWORD PTR _pwCharType$[ebp]
  00021	51		 push	 ecx
  00022	8b 55 14	 mov	 edx, DWORD PTR _nLength$[ebp]
  00025	52		 push	 edx
  00026	8b 45 10	 mov	 eax, DWORD PTR _pszSrc$[ebp]
  00029	50		 push	 eax
  0002a	8b 4d 0c	 mov	 ecx, DWORD PTR _dwInfoType$[ebp]
  0002d	51		 push	 ecx
  0002e	8b 55 08	 mov	 edx, DWORD PTR _lcid$[ebp]
  00031	52		 push	 edx
  00032	ff 15 04 00 00
	00		 call	 DWORD PTR ?_strthunks@ATL@@3U_AtlStringThunks@1@A+4
  00038	3b f4		 cmp	 esi, esp
  0003a	e8 00 00 00 00	 call	 __RTC_CheckEsp

; 244  : }

  0003f	5e		 pop	 esi
  00040	3b ec		 cmp	 ebp, esp
  00042	e8 00 00 00 00	 call	 __RTC_CheckEsp
  00047	5d		 pop	 ebp
  00048	c2 14 00	 ret	 20			; 00000014H
?GetStringTypeExWThunk@ATL@@YGHKKPB_WHPAG@Z ENDP	; ATL::GetStringTypeExWThunk
_TEXT	ENDS
EXTRN	__imp__GetStringTypeExA@20:NEAR
;	COMDAT xdata$x
xdata$x	SEGMENT
$T93020	DD	0ffffffffH
	DD	FLAT:$L93012
$T93014	DD	019930520H
	DD	01H
	DD	FLAT:$T93020
	DD	2 DUP(00H)
	DD	2 DUP(00H)
; Function compile flags: /Odt /RTCsu
xdata$x	ENDS
;	COMDAT ?GetStringTypeExWFake@ATL@@YGHKKPB_WHPAG@Z
_TEXT	SEGMENT
$T93011 = -164						; size = 4
_pszA$ = -156						; size = 132
_nLengthA$ = -20					; size = 4
__$ArrayPad$ = -16					; size = 4
__$EHRec$ = -12						; size = 12
__$ReturnAddr$ = 4					; size = 4
_lcid$ = 8						; size = 4
_dwInfoType$ = 12					; size = 4
_pszSrc$ = 16						; size = 4
_nLength$ = 20						; size = 4
_pwCharType$ = 24					; size = 4
?GetStringTypeExWFake@ATL@@YGHKKPB_WHPAG@Z PROC NEAR	; ATL::GetStringTypeExWFake, COMDAT

; 224  : {

  00000	55		 push	 ebp
  00001	8b ec		 mov	 ebp, esp
  00003	6a ff		 push	 -1
  00005	68 00 00 00 00	 push	 __ehhandler$?GetStringTypeExWFake@ATL@@YGHKKPB_WHPAG@Z
  0000a	64 a1 00 00 00
	00		 mov	 eax, DWORD PTR fs:__except_list
  00010	50		 push	 eax
  00011	64 89 25 00 00
	00 00		 mov	 DWORD PTR fs:__except_list, esp
  00018	81 ec 98 00 00
	00		 sub	 esp, 152		; 00000098H
  0001e	56		 push	 esi
  0001f	57		 push	 edi
  00020	8d bd 5c ff ff
	ff		 lea	 edi, DWORD PTR [ebp-164]
  00026	b9 26 00 00 00	 mov	 ecx, 38			; 00000026H
  0002b	b8 cc cc cc cc	 mov	 eax, -858993460		; ccccccccH
  00030	f3 ab		 rep stosd
  00032	a1 00 00 00 00	 mov	 eax, DWORD PTR ___security_cookie
  00037	89 45 f0	 mov	 DWORD PTR __$ArrayPad$[ebp], eax

; 225  : 	int nLengthA;
; 226  : 	CTempBuffer<char> pszA;

  0003a	8d 8d 64 ff ff
	ff		 lea	 ecx, DWORD PTR _pszA$[ebp]
  00040	e8 00 00 00 00	 call	 ??0?$CTempBuffer@D$0IA@VCCRTAllocator@ATL@@@ATL@@QAE@XZ ; ATL::CTempBuffer<char,128,ATL::CCRTAllocator>::CTempBuffer<char,128,ATL::CCRTAllocator>
  00045	c7 45 fc 00 00
	00 00		 mov	 DWORD PTR __$EHRec$[ebp+8], 0

; 227  : 
; 228  : 	nLengthA = ::WideCharToMultiByte(_AtlGetConversionACP(), 0, pszSrc, nLength, NULL, 0, NULL, NULL);

  0004c	8b f4		 mov	 esi, esp
  0004e	6a 00		 push	 0
  00050	6a 00		 push	 0
  00052	6a 00		 push	 0
  00054	6a 00		 push	 0
  00056	8b 45 14	 mov	 eax, DWORD PTR _nLength$[ebp]
  00059	50		 push	 eax
  0005a	8b 4d 10	 mov	 ecx, DWORD PTR _pszSrc$[ebp]
  0005d	51		 push	 ecx
  0005e	6a 00		 push	 0
  00060	e8 00 00 00 00	 call	 ?_AtlGetConversionACP@ATL@@YGIXZ ; ATL::_AtlGetConversionACP
  00065	50		 push	 eax
  00066	ff 15 00 00 00
	00		 call	 DWORD PTR __imp__WideCharToMultiByte@32
  0006c	3b f4		 cmp	 esi, esp
  0006e	e8 00 00 00 00	 call	 __RTC_CheckEsp
  00073	89 45 ec	 mov	 DWORD PTR _nLengthA$[ebp], eax

; 229  : 	pszA.Allocate(nLengthA);

  00076	8b 55 ec	 mov	 edx, DWORD PTR _nLengthA$[ebp]
  00079	52		 push	 edx
  0007a	8d 8d 64 ff ff
	ff		 lea	 ecx, DWORD PTR _pszA$[ebp]
  00080	e8 00 00 00 00	 call	 ?Allocate@?$CTempBuffer@D$0IA@VCCRTAllocator@ATL@@@ATL@@QAEPADI@Z ; ATL::CTempBuffer<char,128,ATL::CCRTAllocator>::Allocate

; 230  : 	::WideCharToMultiByte(_AtlGetConversionACP(), 0, pszSrc, nLength, pszA, nLengthA, NULL, NULL);

  00085	8b f4		 mov	 esi, esp
  00087	6a 00		 push	 0
  00089	6a 00		 push	 0
  0008b	8b 45 ec	 mov	 eax, DWORD PTR _nLengthA$[ebp]
  0008e	50		 push	 eax
  0008f	8d 8d 64 ff ff
	ff		 lea	 ecx, DWORD PTR _pszA$[ebp]
  00095	e8 00 00 00 00	 call	 ??B?$CTempBuffer@D$0IA@VCCRTAllocator@ATL@@@ATL@@QBEPADXZ ; ATL::CTempBuffer<char,128,ATL::CCRTAllocator>::operator char *
  0009a	50		 push	 eax
  0009b	8b 4d 14	 mov	 ecx, DWORD PTR _nLength$[ebp]
  0009e	51		 push	 ecx
  0009f	8b 55 10	 mov	 edx, DWORD PTR _pszSrc$[ebp]
  000a2	52		 push	 edx
  000a3	6a 00		 push	 0
  000a5	e8 00 00 00 00	 call	 ?_AtlGetConversionACP@ATL@@YGIXZ ; ATL::_AtlGetConversionACP
  000aa	50		 push	 eax
  000ab	ff 15 00 00 00
	00		 call	 DWORD PTR __imp__WideCharToMultiByte@32
  000b1	3b f4		 cmp	 esi, esp
  000b3	e8 00 00 00 00	 call	 __RTC_CheckEsp

; 231  : 
; 232  : 	if (nLength == -1)

  000b8	83 7d 14 ff	 cmp	 DWORD PTR _nLength$[ebp], -1
  000bc	75 07		 jne	 SHORT $L81811

; 233  : 		nLengthA = -1;

  000be	c7 45 ec ff ff
	ff ff		 mov	 DWORD PTR _nLengthA$[ebp], -1
$L81811:

; 234  : 
; 235  : 	return ::GetStringTypeExA(lcid, dwInfoType, pszA, nLengthA, pwCharType);

  000c5	8b f4		 mov	 esi, esp
  000c7	8b 45 18	 mov	 eax, DWORD PTR _pwCharType$[ebp]
  000ca	50		 push	 eax
  000cb	8b 4d ec	 mov	 ecx, DWORD PTR _nLengthA$[ebp]
  000ce	51		 push	 ecx
  000cf	8d 8d 64 ff ff
	ff		 lea	 ecx, DWORD PTR _pszA$[ebp]
  000d5	e8 00 00 00 00	 call	 ??B?$CTempBuffer@D$0IA@VCCRTAllocator@ATL@@@ATL@@QBEPADXZ ; ATL::CTempBuffer<char,128,ATL::CCRTAllocator>::operator char *
  000da	50		 push	 eax
  000db	8b 55 0c	 mov	 edx, DWORD PTR _dwInfoType$[ebp]
  000de	52		 push	 edx
  000df	8b 45 08	 mov	 eax, DWORD PTR _lcid$[ebp]
  000e2	50		 push	 eax
  000e3	ff 15 00 00 00
	00		 call	 DWORD PTR __imp__GetStringTypeExA@20
  000e9	3b f4		 cmp	 esi, esp
  000eb	e8 00 00 00 00	 call	 __RTC_CheckEsp
  000f0	89 85 5c ff ff
	ff		 mov	 DWORD PTR $T93011[ebp], eax
  000f6	c7 45 fc ff ff
	ff ff		 mov	 DWORD PTR __$EHRec$[ebp+8], -1
  000fd	8d 8d 64 ff ff
	ff		 lea	 ecx, DWORD PTR _pszA$[ebp]
  00103	e8 00 00 00 00	 call	 ??1?$CTempBuffer@D$0IA@VCCRTAllocator@ATL@@@ATL@@QAE@XZ ; ATL::CTempBuffer<char,128,ATL::CCRTAllocator>::~CTempBuffer<char,128,ATL::CCRTAllocator>
  00108	8b 85 5c ff ff
	ff		 mov	 eax, DWORD PTR $T93011[ebp]

; 236  : }

  0010e	52		 push	 edx
  0010f	8b cd		 mov	 ecx, ebp
  00111	50		 push	 eax
  00112	8d 15 00 00 00
	00		 lea	 edx, DWORD PTR $L93019
  00118	e8 00 00 00 00	 call	 @_RTC_CheckStackVars@8
  0011d	58		 pop	 eax
  0011e	5a		 pop	 edx
  0011f	8b 4d f4	 mov	 ecx, DWORD PTR __$EHRec$[ebp]
  00122	64 89 0d 00 00
	00 00		 mov	 DWORD PTR fs:__except_list, ecx
  00129	8b 4d f0	 mov	 ecx, DWORD PTR __$ArrayPad$[ebp]
  0012c	e8 00 00 00 00	 call	 @__security_check_cookie@4
  00131	5f		 pop	 edi
  00132	5e		 pop	 esi
  00133	81 c4 a4 00 00
	00		 add	 esp, 164		; 000000a4H
  00139	3b ec		 cmp	 ebp, esp
  0013b	e8 00 00 00 00	 call	 __RTC_CheckEsp
  00140	8b e5		 mov	 esp, ebp
  00142	5d		 pop	 ebp
  00143	c2 14 00	 ret	 20			; 00000014H
$L93019:
  00146	01 00 00 00	 DD	 1
  0014a	00 00 00 00	 DD	 $L93018
$L93018:
  0014e	64 ff ff ff	 DD	 -156			; ffffff64H
  00152	84 00 00 00	 DD	 132			; 00000084H
  00156	00 00 00 00	 DD	 $L93015
$L93015:
  0015a	70		 DB	 112			; 00000070H
  0015b	73		 DB	 115			; 00000073H
  0015c	7a		 DB	 122			; 0000007aH
  0015d	41		 DB	 65			; 00000041H
  0015e	00		 DB	 0
_TEXT	ENDS
;	COMDAT text$x
text$x	SEGMENT
$L93012:
  00000	8d 8d 64 ff ff
	ff		 lea	 ecx, DWORD PTR _pszA$[ebp]
  00006	e9 00 00 00 00	 jmp	 ??1?$CTempBuffer@D$0IA@VCCRTAllocator@ATL@@@ATL@@QAE@XZ ; ATL::CTempBuffer<char,128,ATL::CCRTAllocator>::~CTempBuffer<char,128,ATL::CCRTAllocator>
__ehhandler$?GetStringTypeExWFake@ATL@@YGHKKPB_WHPAG@Z:
  0000b	b8 00 00 00 00	 mov	 eax, OFFSET FLAT:$T93014
  00010	e9 00 00 00 00	 jmp	 ___CxxFrameHandler
text$x	ENDS
?GetStringTypeExWFake@ATL@@YGHKKPB_WHPAG@Z ENDP		; ATL::GetStringTypeExWFake
PUBLIC	?lstrcmpiWFake@ATL@@YGHPB_W0@Z			; ATL::lstrcmpiWFake
EXTRN	__imp__lstrcmpiW@8:NEAR
; Function compile flags: /Odt /RTCsu
;	COMDAT ?lstrcmpiWThunk@ATL@@YGHPB_W0@Z
_TEXT	SEGMENT
_psz1$ = 8						; size = 4
_psz2$ = 12						; size = 4
?lstrcmpiWThunk@ATL@@YGHPB_W0@Z PROC NEAR		; ATL::lstrcmpiWThunk, COMDAT

; 254  : {

  00000	55		 push	 ebp
  00001	8b ec		 mov	 ebp, esp
  00003	56		 push	 esi

; 255  : 	_AtlInstallStringThunk(reinterpret_cast<void**>(&_strthunks.pfnlstrcmpiW), lstrcmpiWFake, ::lstrcmpiW);

  00004	a1 00 00 00 00	 mov	 eax, DWORD PTR __imp__lstrcmpiW@8
  00009	50		 push	 eax
  0000a	68 00 00 00 00	 push	 OFFSET FLAT:?lstrcmpiWFake@ATL@@YGHPB_W0@Z ; ATL::lstrcmpiWFake
  0000f	68 08 00 00 00	 push	 OFFSET FLAT:?_strthunks@ATL@@3U_AtlStringThunks@1@A+8
  00014	e8 00 00 00 00	 call	 ?_AtlInstallStringThunk@ATL@@YAXPAPAXPAX1@Z ; ATL::_AtlInstallStringThunk
  00019	83 c4 0c	 add	 esp, 12			; 0000000cH

; 256  : 
; 257  : 	return _strthunks.pfnlstrcmpiW(psz1, psz2);

  0001c	8b f4		 mov	 esi, esp
  0001e	8b 4d 0c	 mov	 ecx, DWORD PTR _psz2$[ebp]
  00021	51		 push	 ecx
  00022	8b 55 08	 mov	 edx, DWORD PTR _psz1$[ebp]
  00025	52		 push	 edx
  00026	ff 15 08 00 00
	00		 call	 DWORD PTR ?_strthunks@ATL@@3U_AtlStringThunks@1@A+8
  0002c	3b f4		 cmp	 esi, esp
  0002e	e8 00 00 00 00	 call	 __RTC_CheckEsp

; 258  : }

  00033	5e		 pop	 esi
  00034	3b ec		 cmp	 ebp, esp
  00036	e8 00 00 00 00	 call	 __RTC_CheckEsp
  0003b	5d		 pop	 ebp
  0003c	c2 08 00	 ret	 8
?lstrcmpiWThunk@ATL@@YGHPB_W0@Z ENDP			; ATL::lstrcmpiWThunk
_TEXT	ENDS
EXTRN	__imp__lstrcmpiA@8:NEAR
; Function compile flags: /Odt /RTCsu
;	COMDAT ?lstrcmpiWFake@ATL@@YGHPB_W0@Z
_TEXT	SEGMENT
tv91 = -32						; size = 4
tv94 = -28						; size = 4
tv76 = -24						; size = 4
tv79 = -20						; size = 4
__lpa$ = -16						; size = 4
__lpw$ = -12						; size = 4
__acp$ = -8						; size = 4
__convert$ = -4						; size = 4
_psz1$ = 8						; size = 4
_psz2$ = 12						; size = 4
?lstrcmpiWFake@ATL@@YGHPB_W0@Z PROC NEAR		; ATL::lstrcmpiWFake, COMDAT

; 247  : {

  00000	55		 push	 ebp
  00001	8b ec		 mov	 ebp, esp
  00003	83 ec 20	 sub	 esp, 32			; 00000020H
  00006	56		 push	 esi
  00007	b8 cc cc cc cc	 mov	 eax, -858993460		; ccccccccH
  0000c	89 45 e0	 mov	 DWORD PTR [ebp-32], eax
  0000f	89 45 e4	 mov	 DWORD PTR [ebp-28], eax
  00012	89 45 e8	 mov	 DWORD PTR [ebp-24], eax
  00015	89 45 ec	 mov	 DWORD PTR [ebp-20], eax
  00018	89 45 f0	 mov	 DWORD PTR [ebp-16], eax
  0001b	89 45 f4	 mov	 DWORD PTR [ebp-12], eax
  0001e	89 45 f8	 mov	 DWORD PTR [ebp-8], eax
  00021	89 45 fc	 mov	 DWORD PTR [ebp-4], eax

; 248  : 	USES_CONVERSION;

  00024	c7 45 fc 00 00
	00 00		 mov	 DWORD PTR __convert$[ebp], 0
  0002b	e8 00 00 00 00	 call	 ?_AtlGetConversionACP@ATL@@YGIXZ ; ATL::_AtlGetConversionACP
  00030	89 45 f8	 mov	 DWORD PTR __acp$[ebp], eax
  00033	c7 45 f4 00 00
	00 00		 mov	 DWORD PTR __lpw$[ebp], 0
  0003a	c7 45 f0 00 00
	00 00		 mov	 DWORD PTR __lpa$[ebp], 0

; 249  : 
; 250  : 	return ::lstrcmpiA(W2A(psz1), W2A(psz2));

  00041	8b 45 0c	 mov	 eax, DWORD PTR _psz2$[ebp]
  00044	89 45 f4	 mov	 DWORD PTR __lpw$[ebp], eax
  00047	83 7d f4 00	 cmp	 DWORD PTR __lpw$[ebp], 0
  0004b	75 09		 jne	 SHORT $L93025
  0004d	c7 45 ec 00 00
	00 00		 mov	 DWORD PTR tv79[ebp], 0
  00054	eb 43		 jmp	 SHORT $L93026
$L93025:
  00056	8b f4		 mov	 esi, esp
  00058	8b 4d f4	 mov	 ecx, DWORD PTR __lpw$[ebp]
  0005b	51		 push	 ecx
  0005c	ff 15 00 00 00
	00		 call	 DWORD PTR __imp__lstrlenW@4
  00062	3b f4		 cmp	 esi, esp
  00064	e8 00 00 00 00	 call	 __RTC_CheckEsp
  00069	8d 54 00 02	 lea	 edx, DWORD PTR [eax+eax+2]
  0006d	89 55 fc	 mov	 DWORD PTR __convert$[ebp], edx
  00070	8b 45 fc	 mov	 eax, DWORD PTR __convert$[ebp]
  00073	83 c0 03	 add	 eax, 3
  00076	83 e0 fc	 and	 eax, -4			; fffffffcH
  00079	e8 00 00 00 00	 call	 __alloca_probe
  0007e	89 65 e8	 mov	 DWORD PTR tv76[ebp], esp
  00081	8b 45 f8	 mov	 eax, DWORD PTR __acp$[ebp]
  00084	50		 push	 eax
  00085	8b 4d fc	 mov	 ecx, DWORD PTR __convert$[ebp]
  00088	51		 push	 ecx
  00089	8b 55 f4	 mov	 edx, DWORD PTR __lpw$[ebp]
  0008c	52		 push	 edx
  0008d	8b 45 e8	 mov	 eax, DWORD PTR tv76[ebp]
  00090	50		 push	 eax
  00091	e8 00 00 00 00	 call	 ?AtlW2AHelper@@YGPADPADPB_WHI@Z ; AtlW2AHelper
  00096	89 45 ec	 mov	 DWORD PTR tv79[ebp], eax
$L93026:
  00099	8b 4d 08	 mov	 ecx, DWORD PTR _psz1$[ebp]
  0009c	89 4d f4	 mov	 DWORD PTR __lpw$[ebp], ecx
  0009f	83 7d f4 00	 cmp	 DWORD PTR __lpw$[ebp], 0
  000a3	75 09		 jne	 SHORT $L93027
  000a5	c7 45 e4 00 00
	00 00		 mov	 DWORD PTR tv94[ebp], 0
  000ac	eb 43		 jmp	 SHORT $L93028
$L93027:
  000ae	8b f4		 mov	 esi, esp
  000b0	8b 55 f4	 mov	 edx, DWORD PTR __lpw$[ebp]
  000b3	52		 push	 edx
  000b4	ff 15 00 00 00
	00		 call	 DWORD PTR __imp__lstrlenW@4
  000ba	3b f4		 cmp	 esi, esp
  000bc	e8 00 00 00 00	 call	 __RTC_CheckEsp
  000c1	8d 44 00 02	 lea	 eax, DWORD PTR [eax+eax+2]
  000c5	89 45 fc	 mov	 DWORD PTR __convert$[ebp], eax
  000c8	8b 45 fc	 mov	 eax, DWORD PTR __convert$[ebp]
  000cb	83 c0 03	 add	 eax, 3
  000ce	83 e0 fc	 and	 eax, -4			; fffffffcH
  000d1	e8 00 00 00 00	 call	 __alloca_probe
  000d6	89 65 e0	 mov	 DWORD PTR tv91[ebp], esp
  000d9	8b 4d f8	 mov	 ecx, DWORD PTR __acp$[ebp]
  000dc	51		 push	 ecx
  000dd	8b 55 fc	 mov	 edx, DWORD PTR __convert$[ebp]
  000e0	52		 push	 edx
  000e1	8b 45 f4	 mov	 eax, DWORD PTR __lpw$[ebp]
  000e4	50		 push	 eax
  000e5	8b 4d e0	 mov	 ecx, DWORD PTR tv91[ebp]
  000e8	51		 push	 ecx
  000e9	e8 00 00 00 00	 call	 ?AtlW2AHelper@@YGPADPADPB_WHI@Z ; AtlW2AHelper
  000ee	89 45 e4	 mov	 DWORD PTR tv94[ebp], eax
$L93028:
  000f1	8b f4		 mov	 esi, esp
  000f3	8b 55 ec	 mov	 edx, DWORD PTR tv79[ebp]
  000f6	52		 push	 edx
  000f7	8b 45 e4	 mov	 eax, DWORD PTR tv94[ebp]
  000fa	50		 push	 eax
  000fb	ff 15 00 00 00
	00		 call	 DWORD PTR __imp__lstrcmpiA@8
  00101	3b f4		 cmp	 esi, esp
  00103	e8 00 00 00 00	 call	 __RTC_CheckEsp

; 251  : }

  00108	8d 65 dc	 lea	 esp, DWORD PTR [ebp-36]
  0010b	5e		 pop	 esi
  0010c	8b e5		 mov	 esp, ebp
  0010e	5d		 pop	 ebp
  0010f	c2 08 00	 ret	 8
?lstrcmpiWFake@ATL@@YGHPB_W0@Z ENDP			; ATL::lstrcmpiWFake
_TEXT	ENDS
PUBLIC	?CharLowerWFake@ATL@@YGPA_WPA_W@Z		; ATL::CharLowerWFake
EXTRN	__imp__CharLowerW@4:NEAR
; Function compile flags: /Odt /RTCsu
;	COMDAT ?CharLowerWThunk@ATL@@YGPA_WPA_W@Z
_TEXT	SEGMENT
_psz$ = 8						; size = 4
?CharLowerWThunk@ATL@@YGPA_WPA_W@Z PROC NEAR		; ATL::CharLowerWThunk, COMDAT

; 273  : {

  00000	55		 push	 ebp
  00001	8b ec		 mov	 ebp, esp
  00003	56		 push	 esi

; 274  : 	_AtlInstallStringThunk(reinterpret_cast<void**>(&_strthunks.pfnCharLowerW), CharLowerWFake, ::CharLowerW);

  00004	a1 00 00 00 00	 mov	 eax, DWORD PTR __imp__CharLowerW@4
  00009	50		 push	 eax
  0000a	68 00 00 00 00	 push	 OFFSET FLAT:?CharLowerWFake@ATL@@YGPA_WPA_W@Z ; ATL::CharLowerWFake
  0000f	68 0c 00 00 00	 push	 OFFSET FLAT:?_strthunks@ATL@@3U_AtlStringThunks@1@A+12
  00014	e8 00 00 00 00	 call	 ?_AtlInstallStringThunk@ATL@@YAXPAPAXPAX1@Z ; ATL::_AtlInstallStringThunk
  00019	83 c4 0c	 add	 esp, 12			; 0000000cH

; 275  : 
; 276  : 	return _strthunks.pfnCharLowerW(psz);

  0001c	8b f4		 mov	 esi, esp
  0001e	8b 4d 08	 mov	 ecx, DWORD PTR _psz$[ebp]
  00021	51		 push	 ecx
  00022	ff 15 0c 00 00
	00		 call	 DWORD PTR ?_strthunks@ATL@@3U_AtlStringThunks@1@A+12
  00028	3b f4		 cmp	 esi, esp
  0002a	e8 00 00 00 00	 call	 __RTC_CheckEsp

; 277  : }

  0002f	5e		 pop	 esi
  00030	3b ec		 cmp	 ebp, esp
  00032	e8 00 00 00 00	 call	 __RTC_CheckEsp
  00037	5d		 pop	 ebp
  00038	c2 04 00	 ret	 4
?CharLowerWThunk@ATL@@YGPA_WPA_W@Z ENDP			; ATL::CharLowerWThunk
_TEXT	ENDS
PUBLIC	?AtlA2WHelper@@YGPA_WPA_WPBDHI@Z		; AtlA2WHelper
EXTRN	__imp__lstrlenA@4:NEAR
EXTRN	__imp__CharLowerA@4:NEAR
EXTRN	__imp__wcscpy:NEAR
; Function compile flags: /Odt /RTCsu
;	COMDAT ?CharLowerWFake@ATL@@YGPA_WPA_W@Z
_TEXT	SEGMENT
tv90 = -36						; size = 4
tv94 = -32						; size = 4
tv75 = -28						; size = 4
tv78 = -24						; size = 4
_pszA$ = -20						; size = 4
__lpa$ = -16						; size = 4
__lpw$ = -12						; size = 4
__acp$ = -8						; size = 4
__convert$ = -4						; size = 4
_psz$ = 8						; size = 4
?CharLowerWFake@ATL@@YGPA_WPA_W@Z PROC NEAR		; ATL::CharLowerWFake, COMDAT

; 261  : {

  00000	55		 push	 ebp
  00001	8b ec		 mov	 ebp, esp
  00003	83 ec 24	 sub	 esp, 36			; 00000024H
  00006	56		 push	 esi
  00007	b8 cc cc cc cc	 mov	 eax, -858993460		; ccccccccH
  0000c	89 45 dc	 mov	 DWORD PTR [ebp-36], eax
  0000f	89 45 e0	 mov	 DWORD PTR [ebp-32], eax
  00012	89 45 e4	 mov	 DWORD PTR [ebp-28], eax
  00015	89 45 e8	 mov	 DWORD PTR [ebp-24], eax
  00018	89 45 ec	 mov	 DWORD PTR [ebp-20], eax
  0001b	89 45 f0	 mov	 DWORD PTR [ebp-16], eax
  0001e	89 45 f4	 mov	 DWORD PTR [ebp-12], eax
  00021	89 45 f8	 mov	 DWORD PTR [ebp-8], eax
  00024	89 45 fc	 mov	 DWORD PTR [ebp-4], eax

; 262  : 	USES_CONVERSION;

  00027	c7 45 fc 00 00
	00 00		 mov	 DWORD PTR __convert$[ebp], 0
  0002e	e8 00 00 00 00	 call	 ?_AtlGetConversionACP@ATL@@YGIXZ ; ATL::_AtlGetConversionACP
  00033	89 45 f8	 mov	 DWORD PTR __acp$[ebp], eax
  00036	c7 45 f4 00 00
	00 00		 mov	 DWORD PTR __lpw$[ebp], 0
  0003d	c7 45 f0 00 00
	00 00		 mov	 DWORD PTR __lpa$[ebp], 0

; 263  : 	LPSTR pszA;
; 264  : 
; 265  : 	pszA = W2A(psz);

  00044	8b 45 08	 mov	 eax, DWORD PTR _psz$[ebp]
  00047	89 45 f4	 mov	 DWORD PTR __lpw$[ebp], eax
  0004a	83 7d f4 00	 cmp	 DWORD PTR __lpw$[ebp], 0
  0004e	75 09		 jne	 SHORT $L93031
  00050	c7 45 e8 00 00
	00 00		 mov	 DWORD PTR tv78[ebp], 0
  00057	eb 43		 jmp	 SHORT $L93032
$L93031:
  00059	8b f4		 mov	 esi, esp
  0005b	8b 4d f4	 mov	 ecx, DWORD PTR __lpw$[ebp]
  0005e	51		 push	 ecx
  0005f	ff 15 00 00 00
	00		 call	 DWORD PTR __imp__lstrlenW@4
  00065	3b f4		 cmp	 esi, esp
  00067	e8 00 00 00 00	 call	 __RTC_CheckEsp
  0006c	8d 54 00 02	 lea	 edx, DWORD PTR [eax+eax+2]
  00070	89 55 fc	 mov	 DWORD PTR __convert$[ebp], edx
  00073	8b 45 fc	 mov	 eax, DWORD PTR __convert$[ebp]
  00076	83 c0 03	 add	 eax, 3
  00079	83 e0 fc	 and	 eax, -4			; fffffffcH
  0007c	e8 00 00 00 00	 call	 __alloca_probe
  00081	89 65 e4	 mov	 DWORD PTR tv75[ebp], esp
  00084	8b 45 f8	 mov	 eax, DWORD PTR __acp$[ebp]
  00087	50		 push	 eax
  00088	8b 4d fc	 mov	 ecx, DWORD PTR __convert$[ebp]
  0008b	51		 push	 ecx
  0008c	8b 55 f4	 mov	 edx, DWORD PTR __lpw$[ebp]
  0008f	52		 push	 edx
  00090	8b 45 e4	 mov	 eax, DWORD PTR tv75[ebp]
  00093	50		 push	 eax
  00094	e8 00 00 00 00	 call	 ?AtlW2AHelper@@YGPADPADPB_WHI@Z ; AtlW2AHelper
  00099	89 45 e8	 mov	 DWORD PTR tv78[ebp], eax
$L93032:
  0009c	8b 4d e8	 mov	 ecx, DWORD PTR tv78[ebp]
  0009f	89 4d ec	 mov	 DWORD PTR _pszA$[ebp], ecx

; 266  : 	::CharLowerA(pszA);

  000a2	8b f4		 mov	 esi, esp
  000a4	8b 55 ec	 mov	 edx, DWORD PTR _pszA$[ebp]
  000a7	52		 push	 edx
  000a8	ff 15 00 00 00
	00		 call	 DWORD PTR __imp__CharLowerA@4
  000ae	3b f4		 cmp	 esi, esp
  000b0	e8 00 00 00 00	 call	 __RTC_CheckEsp

; 267  : 	wcscpy(psz, A2W(pszA));

  000b5	8b 45 ec	 mov	 eax, DWORD PTR _pszA$[ebp]
  000b8	89 45 f0	 mov	 DWORD PTR __lpa$[ebp], eax
  000bb	83 7d f0 00	 cmp	 DWORD PTR __lpa$[ebp], 0
  000bf	75 09		 jne	 SHORT $L93033
  000c1	c7 45 e0 00 00
	00 00		 mov	 DWORD PTR tv94[ebp], 0
  000c8	eb 44		 jmp	 SHORT $L93034
$L93033:
  000ca	8b f4		 mov	 esi, esp
  000cc	8b 4d f0	 mov	 ecx, DWORD PTR __lpa$[ebp]
  000cf	51		 push	 ecx
  000d0	ff 15 00 00 00
	00		 call	 DWORD PTR __imp__lstrlenA@4
  000d6	3b f4		 cmp	 esi, esp
  000d8	e8 00 00 00 00	 call	 __RTC_CheckEsp
  000dd	83 c0 01	 add	 eax, 1
  000e0	89 45 fc	 mov	 DWORD PTR __convert$[ebp], eax
  000e3	8b 45 fc	 mov	 eax, DWORD PTR __convert$[ebp]
  000e6	d1 e0		 shl	 eax, 1
  000e8	83 c0 03	 add	 eax, 3
  000eb	83 e0 fc	 and	 eax, -4			; fffffffcH
  000ee	e8 00 00 00 00	 call	 __alloca_probe
  000f3	89 65 dc	 mov	 DWORD PTR tv90[ebp], esp
  000f6	8b 55 f8	 mov	 edx, DWORD PTR __acp$[ebp]
  000f9	52		 push	 edx
  000fa	8b 45 fc	 mov	 eax, DWORD PTR __convert$[ebp]
  000fd	50		 push	 eax
  000fe	8b 4d f0	 mov	 ecx, DWORD PTR __lpa$[ebp]
  00101	51		 push	 ecx
  00102	8b 55 dc	 mov	 edx, DWORD PTR tv90[ebp]
  00105	52		 push	 edx
  00106	e8 00 00 00 00	 call	 ?AtlA2WHelper@@YGPA_WPA_WPBDHI@Z ; AtlA2WHelper
  0010b	89 45 e0	 mov	 DWORD PTR tv94[ebp], eax
$L93034:
  0010e	8b f4		 mov	 esi, esp
  00110	8b 45 e0	 mov	 eax, DWORD PTR tv94[ebp]
  00113	50		 push	 eax
  00114	8b 4d 08	 mov	 ecx, DWORD PTR _psz$[ebp]
  00117	51		 push	 ecx
  00118	ff 15 00 00 00
	00		 call	 DWORD PTR __imp__wcscpy
  0011e	83 c4 08	 add	 esp, 8
  00121	3b f4		 cmp	 esi, esp
  00123	e8 00 00 00 00	 call	 __RTC_CheckEsp

; 268  : 
; 269  : 	return psz;

  00128	8b 45 08	 mov	 eax, DWORD PTR _psz$[ebp]

; 270  : }

  0012b	8d 65 d8	 lea	 esp, DWORD PTR [ebp-40]
  0012e	5e		 pop	 esi
  0012f	8b e5		 mov	 esp, ebp
  00131	5d		 pop	 ebp
  00132	c2 04 00	 ret	 4
?CharLowerWFake@ATL@@YGPA_WPA_W@Z ENDP			; ATL::CharLowerWFake
; Function compile flags: /Odt /RTCsu
; File d:\program files (x86)\microsoft visual studio .net 2003\vc7\atlmfc\include\atlconv.h
_TEXT	ENDS
;	COMDAT ?AtlA2WHelper@@YGPA_WPA_WPBDHI@Z
_TEXT	SEGMENT
_ret$ = -4						; size = 4
_lpw$ = 8						; size = 4
_lpa$ = 12						; size = 4
_nChars$ = 16						; size = 4
_acp$ = 20						; size = 4
?AtlA2WHelper@@YGPA_WPA_WPBDHI@Z PROC NEAR		; AtlA2WHelper, COMDAT

; 554  : {

  00000	55		 push	 ebp
  00001	8b ec		 mov	 ebp, esp
  00003	51		 push	 ecx
  00004	56		 push	 esi
  00005	c7 45 fc cc cc
	cc cc		 mov	 DWORD PTR [ebp-4], -858993460 ; ccccccccH

; 555  : 	ATLASSERT(lpa != NULL);

  0000c	83 7d 0c 00	 cmp	 DWORD PTR _lpa$[ebp], 0
  00010	75 2b		 jne	 SHORT $L93036
  00012	8b f4		 mov	 esi, esp
  00014	68 00 00 00 00	 push	 OFFSET FLAT:??_C@_08DMHHBMMN@lpa?5?$CB?$DN?50?$AA@
  00019	6a 00		 push	 0
  0001b	68 2b 02 00 00	 push	 555			; 0000022bH
  00020	68 00 00 00 00	 push	 OFFSET FLAT:??_C@_0FG@PFHCBDBK@D?3?2Program?5Files?5?$CIx86?$CJ?2Microsoft@
  00025	6a 02		 push	 2
  00027	ff 15 00 00 00
	00		 call	 DWORD PTR __imp___CrtDbgReport
  0002d	83 c4 14	 add	 esp, 20			; 00000014H
  00030	3b f4		 cmp	 esi, esp
  00032	e8 00 00 00 00	 call	 __RTC_CheckEsp
  00037	83 f8 01	 cmp	 eax, 1
  0003a	75 01		 jne	 SHORT $L93036
  0003c	cc		 int	 3
$L93036:

; 556  : 	ATLASSERT(lpw != NULL);

  0003d	83 7d 08 00	 cmp	 DWORD PTR _lpw$[ebp], 0
  00041	75 2b		 jne	 SHORT $L93037
  00043	8b f4		 mov	 esi, esp
  00045	68 00 00 00 00	 push	 OFFSET FLAT:??_C@_08DIHJLFDJ@lpw?5?$CB?$DN?50?$AA@
  0004a	6a 00		 push	 0
  0004c	68 2c 02 00 00	 push	 556			; 0000022cH
  00051	68 00 00 00 00	 push	 OFFSET FLAT:??_C@_0FG@PFHCBDBK@D?3?2Program?5Files?5?$CIx86?$CJ?2Microsoft@
  00056	6a 02		 push	 2
  00058	ff 15 00 00 00
	00		 call	 DWORD PTR __imp___CrtDbgReport
  0005e	83 c4 14	 add	 esp, 20			; 00000014H
  00061	3b f4		 cmp	 esi, esp
  00063	e8 00 00 00 00	 call	 __RTC_CheckEsp
  00068	83 f8 01	 cmp	 eax, 1
  0006b	75 01		 jne	 SHORT $L93037
  0006d	cc		 int	 3
$L93037:

; 557  : 	if (lpw == NULL || lpa == NULL)

  0006e	83 7d 08 00	 cmp	 DWORD PTR _lpw$[ebp], 0
  00072	74 06		 je	 SHORT $L66445
  00074	83 7d 0c 00	 cmp	 DWORD PTR _lpa$[ebp], 0
  00078	75 04		 jne	 SHORT $L66444
$L66445:

; 558  : 		return NULL;

  0007a	33 c0		 xor	 eax, eax
  0007c	eb 6a		 jmp	 SHORT $L66438
$L66444:

; 559  : 	// verify that no illegal character present
; 560  : 	// since lpw was allocated based on the size of lpa
; 561  : 	// don't worry about the number of chars
; 562  : 	lpw[0] = '\0';

  0007e	8b 55 08	 mov	 edx, DWORD PTR _lpw$[ebp]
  00081	66 c7 02 00 00	 mov	 WORD PTR [edx], 0

; 563  : 	int ret = MultiByteToWideChar(acp, 0, lpa, -1, lpw, nChars);

  00086	8b f4		 mov	 esi, esp
  00088	8b 45 10	 mov	 eax, DWORD PTR _nChars$[ebp]
  0008b	50		 push	 eax
  0008c	8b 4d 08	 mov	 ecx, DWORD PTR _lpw$[ebp]
  0008f	51		 push	 ecx
  00090	6a ff		 push	 -1
  00092	8b 55 0c	 mov	 edx, DWORD PTR _lpa$[ebp]
  00095	52		 push	 edx
  00096	6a 00		 push	 0
  00098	8b 45 14	 mov	 eax, DWORD PTR _acp$[ebp]
  0009b	50		 push	 eax
  0009c	ff 15 00 00 00
	00		 call	 DWORD PTR __imp__MultiByteToWideChar@24
  000a2	3b f4		 cmp	 esi, esp
  000a4	e8 00 00 00 00	 call	 __RTC_CheckEsp
  000a9	89 45 fc	 mov	 DWORD PTR _ret$[ebp], eax

; 564  : 	if(ret == 0)

  000ac	83 7d fc 00	 cmp	 DWORD PTR _ret$[ebp], 0
  000b0	75 33		 jne	 SHORT $L66447

; 565  : 	{
; 566  : 		ATLASSERT(FALSE);

  000b2	33 c9		 xor	 ecx, ecx
  000b4	75 2b		 jne	 SHORT $L93038
  000b6	8b f4		 mov	 esi, esp
  000b8	68 00 00 00 00	 push	 OFFSET FLAT:??_C@_01GBGANLPD@0?$AA@
  000bd	6a 00		 push	 0
  000bf	68 36 02 00 00	 push	 566			; 00000236H
  000c4	68 00 00 00 00	 push	 OFFSET FLAT:??_C@_0FG@PFHCBDBK@D?3?2Program?5Files?5?$CIx86?$CJ?2Microsoft@
  000c9	6a 02		 push	 2
  000cb	ff 15 00 00 00
	00		 call	 DWORD PTR __imp___CrtDbgReport
  000d1	83 c4 14	 add	 esp, 20			; 00000014H
  000d4	3b f4		 cmp	 esi, esp
  000d6	e8 00 00 00 00	 call	 __RTC_CheckEsp
  000db	83 f8 01	 cmp	 eax, 1
  000de	75 01		 jne	 SHORT $L93038
  000e0	cc		 int	 3
$L93038:

; 567  : 		return NULL;

  000e1	33 c0		 xor	 eax, eax
  000e3	eb 03		 jmp	 SHORT $L66438
$L66447:

; 568  : 	}		
; 569  : 	return lpw;

  000e5	8b 45 08	 mov	 eax, DWORD PTR _lpw$[ebp]
$L66438:

; 570  : }

  000e8	5e		 pop	 esi
  000e9	83 c4 04	 add	 esp, 4
  000ec	3b ec		 cmp	 ebp, esp
  000ee	e8 00 00 00 00	 call	 __RTC_CheckEsp
  000f3	8b e5		 mov	 esp, ebp
  000f5	5d		 pop	 ebp
  000f6	c2 10 00	 ret	 16			; 00000010H
?AtlA2WHelper@@YGPA_WPA_WPBDHI@Z ENDP			; AtlA2WHelper
_TEXT	ENDS
PUBLIC	?CharUpperWFake@ATL@@YGPA_WPA_W@Z		; ATL::CharUpperWFake
EXTRN	__imp__CharUpperW@4:NEAR
; Function compile flags: /Odt /RTCsu
; File d:\program files (x86)\microsoft visual studio .net 2003\vc7\atlmfc\include\cstringt.h
;	COMDAT ?CharUpperWThunk@ATL@@YGPA_WPA_W@Z
_TEXT	SEGMENT
_psz$ = 8						; size = 4
?CharUpperWThunk@ATL@@YGPA_WPA_W@Z PROC NEAR		; ATL::CharUpperWThunk, COMDAT

; 292  : {

  00000	55		 push	 ebp
  00001	8b ec		 mov	 ebp, esp
  00003	56		 push	 esi

; 293  : 	_AtlInstallStringThunk(reinterpret_cast<void**>(&_strthunks.pfnCharUpperW), CharUpperWFake, ::CharUpperW);

  00004	a1 00 00 00 00	 mov	 eax, DWORD PTR __imp__CharUpperW@4
  00009	50		 push	 eax
  0000a	68 00 00 00 00	 push	 OFFSET FLAT:?CharUpperWFake@ATL@@YGPA_WPA_W@Z ; ATL::CharUpperWFake
  0000f	68 10 00 00 00	 push	 OFFSET FLAT:?_strthunks@ATL@@3U_AtlStringThunks@1@A+16
  00014	e8 00 00 00 00	 call	 ?_AtlInstallStringThunk@ATL@@YAXPAPAXPAX1@Z ; ATL::_AtlInstallStringThunk
  00019	83 c4 0c	 add	 esp, 12			; 0000000cH

; 294  : 
; 295  : 	return _strthunks.pfnCharUpperW(psz);

  0001c	8b f4		 mov	 esi, esp
  0001e	8b 4d 08	 mov	 ecx, DWORD PTR _psz$[ebp]
  00021	51		 push	 ecx
  00022	ff 15 10 00 00
	00		 call	 DWORD PTR ?_strthunks@ATL@@3U_AtlStringThunks@1@A+16
  00028	3b f4		 cmp	 esi, esp
  0002a	e8 00 00 00 00	 call	 __RTC_CheckEsp

; 296  : }

  0002f	5e		 pop	 esi
  00030	3b ec		 cmp	 ebp, esp
  00032	e8 00 00 00 00	 call	 __RTC_CheckEsp
  00037	5d		 pop	 ebp
  00038	c2 04 00	 ret	 4
?CharUpperWThunk@ATL@@YGPA_WPA_W@Z ENDP			; ATL::CharUpperWThunk
_TEXT	ENDS
EXTRN	__imp__CharUpperA@4:NEAR
; Function compile flags: /Odt /RTCsu
;	COMDAT ?CharUpperWFake@ATL@@YGPA_WPA_W@Z
_TEXT	SEGMENT
tv90 = -36						; size = 4
tv94 = -32						; size = 4
tv75 = -28						; size = 4
tv78 = -24						; size = 4
_pszA$ = -20						; size = 4
__lpa$ = -16						; size = 4
__lpw$ = -12						; size = 4
__acp$ = -8						; size = 4
__convert$ = -4						; size = 4
_psz$ = 8						; size = 4
?CharUpperWFake@ATL@@YGPA_WPA_W@Z PROC NEAR		; ATL::CharUpperWFake, COMDAT

; 280  : {

  00000	55		 push	 ebp
  00001	8b ec		 mov	 ebp, esp
  00003	83 ec 24	 sub	 esp, 36			; 00000024H
  00006	56		 push	 esi
  00007	b8 cc cc cc cc	 mov	 eax, -858993460		; ccccccccH
  0000c	89 45 dc	 mov	 DWORD PTR [ebp-36], eax
  0000f	89 45 e0	 mov	 DWORD PTR [ebp-32], eax
  00012	89 45 e4	 mov	 DWORD PTR [ebp-28], eax
  00015	89 45 e8	 mov	 DWORD PTR [ebp-24], eax
  00018	89 45 ec	 mov	 DWORD PTR [ebp-20], eax
  0001b	89 45 f0	 mov	 DWORD PTR [ebp-16], eax
  0001e	89 45 f4	 mov	 DWORD PTR [ebp-12], eax
  00021	89 45 f8	 mov	 DWORD PTR [ebp-8], eax
  00024	89 45 fc	 mov	 DWORD PTR [ebp-4], eax

; 281  : 	USES_CONVERSION;

  00027	c7 45 fc 00 00
	00 00		 mov	 DWORD PTR __convert$[ebp], 0
  0002e	e8 00 00 00 00	 call	 ?_AtlGetConversionACP@ATL@@YGIXZ ; ATL::_AtlGetConversionACP
  00033	89 45 f8	 mov	 DWORD PTR __acp$[ebp], eax
  00036	c7 45 f4 00 00
	00 00		 mov	 DWORD PTR __lpw$[ebp], 0
  0003d	c7 45 f0 00 00
	00 00		 mov	 DWORD PTR __lpa$[ebp], 0

; 282  : 	LPSTR pszA;
; 283  : 
; 284  : 	pszA = W2A(psz);

  00044	8b 45 08	 mov	 eax, DWORD PTR _psz$[ebp]
  00047	89 45 f4	 mov	 DWORD PTR __lpw$[ebp], eax
  0004a	83 7d f4 00	 cmp	 DWORD PTR __lpw$[ebp], 0
  0004e	75 09		 jne	 SHORT $L93041
  00050	c7 45 e8 00 00
	00 00		 mov	 DWORD PTR tv78[ebp], 0
  00057	eb 43		 jmp	 SHORT $L93042
$L93041:
  00059	8b f4		 mov	 esi, esp
  0005b	8b 4d f4	 mov	 ecx, DWORD PTR __lpw$[ebp]
  0005e	51		 push	 ecx
  0005f	ff 15 00 00 00
	00		 call	 DWORD PTR __imp__lstrlenW@4
  00065	3b f4		 cmp	 esi, esp
  00067	e8 00 00 00 00	 call	 __RTC_CheckEsp
  0006c	8d 54 00 02	 lea	 edx, DWORD PTR [eax+eax+2]
  00070	89 55 fc	 mov	 DWORD PTR __convert$[ebp], edx
  00073	8b 45 fc	 mov	 eax, DWORD PTR __convert$[ebp]
  00076	83 c0 03	 add	 eax, 3
  00079	83 e0 fc	 and	 eax, -4			; fffffffcH
  0007c	e8 00 00 00 00	 call	 __alloca_probe
  00081	89 65 e4	 mov	 DWORD PTR tv75[ebp], esp
  00084	8b 45 f8	 mov	 eax, DWORD PTR __acp$[ebp]
  00087	50		 push	 eax
  00088	8b 4d fc	 mov	 ecx, DWORD PTR __convert$[ebp]
  0008b	51		 push	 ecx
  0008c	8b 55 f4	 mov	 edx, DWORD PTR __lpw$[ebp]
  0008f	52		 push	 edx
  00090	8b 45 e4	 mov	 eax, DWORD PTR tv75[ebp]
  00093	50		 push	 eax
  00094	e8 00 00 00 00	 call	 ?AtlW2AHelper@@YGPADPADPB_WHI@Z ; AtlW2AHelper
  00099	89 45 e8	 mov	 DWORD PTR tv78[ebp], eax
$L93042:
  0009c	8b 4d e8	 mov	 ecx, DWORD PTR tv78[ebp]
  0009f	89 4d ec	 mov	 DWORD PTR _pszA$[ebp], ecx

; 285  : 	::CharUpperA(pszA);

  000a2	8b f4		 mov	 esi, esp
  000a4	8b 55 ec	 mov	 edx, DWORD PTR _pszA$[ebp]
  000a7	52		 push	 edx
  000a8	ff 15 00 00 00
	00		 call	 DWORD PTR __imp__CharUpperA@4
  000ae	3b f4		 cmp	 esi, esp
  000b0	e8 00 00 00 00	 call	 __RTC_CheckEsp

; 286  : 	wcscpy(psz, A2W(pszA));

  000b5	8b 45 ec	 mov	 eax, DWORD PTR _pszA$[ebp]
  000b8	89 45 f0	 mov	 DWORD PTR __lpa$[ebp], eax
  000bb	83 7d f0 00	 cmp	 DWORD PTR __lpa$[ebp], 0
  000bf	75 09		 jne	 SHORT $L93043
  000c1	c7 45 e0 00 00
	00 00		 mov	 DWORD PTR tv94[ebp], 0
  000c8	eb 44		 jmp	 SHORT $L93044
$L93043:
  000ca	8b f4		 mov	 esi, esp
  000cc	8b 4d f0	 mov	 ecx, DWORD PTR __lpa$[ebp]
  000cf	51		 push	 ecx
  000d0	ff 15 00 00 00
	00		 call	 DWORD PTR __imp__lstrlenA@4
  000d6	3b f4		 cmp	 esi, esp
  000d8	e8 00 00 00 00	 call	 __RTC_CheckEsp
  000dd	83 c0 01	 add	 eax, 1
  000e0	89 45 fc	 mov	 DWORD PTR __convert$[ebp], eax
  000e3	8b 45 fc	 mov	 eax, DWORD PTR __convert$[ebp]
  000e6	d1 e0		 shl	 eax, 1
  000e8	83 c0 03	 add	 eax, 3
  000eb	83 e0 fc	 and	 eax, -4			; fffffffcH
  000ee	e8 00 00 00 00	 call	 __alloca_probe
  000f3	89 65 dc	 mov	 DWORD PTR tv90[ebp], esp
  000f6	8b 55 f8	 mov	 edx, DWORD PTR __acp$[ebp]
  000f9	52		 push	 edx
  000fa	8b 45 fc	 mov	 eax, DWORD PTR __convert$[ebp]
  000fd	50		 push	 eax
  000fe	8b 4d f0	 mov	 ecx, DWORD PTR __lpa$[ebp]
  00101	51		 push	 ecx
  00102	8b 55 dc	 mov	 edx, DWORD PTR tv90[ebp]
  00105	52		 push	 edx
  00106	e8 00 00 00 00	 call	 ?AtlA2WHelper@@YGPA_WPA_WPBDHI@Z ; AtlA2WHelper
  0010b	89 45 e0	 mov	 DWORD PTR tv94[ebp], eax
$L93044:
  0010e	8b f4		 mov	 esi, esp
  00110	8b 45 e0	 mov	 eax, DWORD PTR tv94[ebp]
  00113	50		 push	 eax
  00114	8b 4d 08	 mov	 ecx, DWORD PTR _psz$[ebp]
  00117	51		 push	 ecx
  00118	ff 15 00 00 00
	00		 call	 DWORD PTR __imp__wcscpy
  0011e	83 c4 08	 add	 esp, 8
  00121	3b f4		 cmp	 esi, esp
  00123	e8 00 00 00 00	 call	 __RTC_CheckEsp

; 287  : 
; 288  : 	return psz;

  00128	8b 45 08	 mov	 eax, DWORD PTR _psz$[ebp]

; 289  : }

  0012b	8d 65 d8	 lea	 esp, DWORD PTR [ebp-40]
  0012e	5e		 pop	 esi
  0012f	8b e5		 mov	 esp, ebp
  00131	5d		 pop	 ebp
  00132	c2 04 00	 ret	 4
?CharUpperWFake@ATL@@YGPA_WPA_W@Z ENDP			; ATL::CharUpperWFake
_TEXT	ENDS
PUBLIC	?GetHomePath@CLhcImg@@SA_NQADH@Z		; CLhcImg::GetHomePath
EXTRN	__imp_??A?$basic_string@DU?$char_traits@D@std@@V?$allocator@D@2@@std@@QAEAADI@Z:NEAR
EXTRN	__imp_?c_str@?$basic_string@DU?$char_traits@D@std@@V?$allocator@D@2@@std@@QBEPBDXZ:NEAR
EXTRN	__imp_?length@?$basic_string@DU?$char_traits@D@std@@V?$allocator@D@2@@std@@QBEIXZ:NEAR
EXTRN	__imp_?substr@?$basic_string@DU?$char_traits@D@std@@V?$allocator@D@2@@std@@QBE?AV12@II@Z:NEAR
EXTRN	__imp___snprintf:NEAR
EXTRN	?GetExePath@@YA?AV?$basic_string@DU?$char_traits@D@std@@V?$allocator@D@2@@std@@XZ:NEAR ; GetExePath
EXTRN	?WriteString@YL_RegInfo@@SA_NPAUHKEY__@@PBD11@Z:NEAR ; YL_RegInfo::WriteString
EXTRN	?ReadString@YL_RegInfo@@SA_NPAUHKEY__@@PBD1QADI@Z:NEAR ; YL_RegInfo::ReadString
EXTRN	_memset:NEAR
EXTRN	_strlen:NEAR
EXTRN	__imp_??1?$basic_string@DU?$char_traits@D@std@@V?$allocator@D@2@@std@@QAE@XZ:NEAR
EXTRN	__imp_??4?$basic_string@DU?$char_traits@D@std@@V?$allocator@D@2@@std@@QAEAAV01@ABV01@@Z:NEAR
xdata$x	SEGMENT
$T93058	DD	0ffffffffH
	DD	FLAT:$L93049
	DD	00H
	DD	FLAT:$L93050
$T93052	DD	019930520H
	DD	02H
	DD	FLAT:$T93058
	DD	2 DUP(00H)
	DD	2 DUP(00H)
; Function compile flags: /Odt /RTCsu
; File d:\boxgit\playbox\commonlib\common\lhcimg.cpp
xdata$x	ENDS
_TEXT	SEGMENT
tv151 = -92						; size = 4
tv153 = -88						; size = 4
$T93048 = -84						; size = 28
$T93047 = -53						; size = 1
_str$86848 = -48					; size = 28
__$ArrayPad$ = -16					; size = 4
__$EHRec$ = -12						; size = 12
__$ReturnAddr$ = 4					; size = 4
_szPath$ = 8						; size = 4
_pathlen$ = 12						; size = 4
?GetHomePath@CLhcImg@@SA_NQADH@Z PROC NEAR		; CLhcImg::GetHomePath

; 25   : {

  00000	55		 push	 ebp
  00001	8b ec		 mov	 ebp, esp
  00003	6a ff		 push	 -1
  00005	68 00 00 00 00	 push	 __ehhandler$?GetHomePath@CLhcImg@@SA_NQADH@Z
  0000a	64 a1 00 00 00
	00		 mov	 eax, DWORD PTR fs:__except_list
  00010	50		 push	 eax
  00011	64 89 25 00 00
	00 00		 mov	 DWORD PTR fs:__except_list, esp
  00018	83 ec 50	 sub	 esp, 80			; 00000050H
  0001b	56		 push	 esi
  0001c	57		 push	 edi
  0001d	8d 7d a4	 lea	 edi, DWORD PTR [ebp-92]
  00020	b9 14 00 00 00	 mov	 ecx, 20			; 00000014H
  00025	b8 cc cc cc cc	 mov	 eax, -858993460		; ccccccccH
  0002a	f3 ab		 rep stosd
  0002c	a1 00 00 00 00	 mov	 eax, DWORD PTR ___security_cookie
  00031	89 45 f0	 mov	 DWORD PTR __$ArrayPad$[ebp], eax

; 26   : 	memset(szPath, 0, pathlen);	

  00034	8b 45 0c	 mov	 eax, DWORD PTR _pathlen$[ebp]
  00037	50		 push	 eax
  00038	6a 00		 push	 0
  0003a	8b 4d 08	 mov	 ecx, DWORD PTR _szPath$[ebp]
  0003d	51		 push	 ecx
  0003e	e8 00 00 00 00	 call	 _memset
  00043	83 c4 0c	 add	 esp, 12			; 0000000cH

; 27   : 	YL_RegInfo::ReadString(HKEY_PLAYBOX_ROOT, STR_REG_SOFT, STR_SOFT_HOME_KEY, szPath, pathlen);

  00046	8b 55 0c	 mov	 edx, DWORD PTR _pathlen$[ebp]
  00049	52		 push	 edx
  0004a	8b 45 08	 mov	 eax, DWORD PTR _szPath$[ebp]
  0004d	50		 push	 eax
  0004e	8b 0d 00 00 00
	00		 mov	 ecx, DWORD PTR _STR_SOFT_HOME_KEY
  00054	51		 push	 ecx
  00055	8b 15 00 00 00
	00		 mov	 edx, DWORD PTR _STR_REG_SOFT
  0005b	52		 push	 edx
  0005c	68 02 00 00 80	 push	 -2147483646		; 80000002H
  00061	e8 00 00 00 00	 call	 ?ReadString@YL_RegInfo@@SA_NPAUHKEY__@@PBD1QADI@Z ; YL_RegInfo::ReadString
  00066	83 c4 14	 add	 esp, 20			; 00000014H

; 28   : 	if(strlen(szPath) <= 0)

  00069	8b 45 08	 mov	 eax, DWORD PTR _szPath$[ebp]
  0006c	50		 push	 eax
  0006d	e8 00 00 00 00	 call	 _strlen
  00072	83 c4 04	 add	 esp, 4
  00075	85 c0		 test	 eax, eax
  00077	0f 87 60 01 00
	00		 ja	 $L86847

; 29   : 	{
; 30   : 		string str = GetExePath();

  0007d	8d 4d d0	 lea	 ecx, DWORD PTR _str$86848[ebp]
  00080	51		 push	 ecx
  00081	e8 00 00 00 00	 call	 ?GetExePath@@YA?AV?$basic_string@DU?$char_traits@D@std@@V?$allocator@D@2@@std@@XZ ; GetExePath
  00086	83 c4 04	 add	 esp, 4
  00089	c7 45 fc 00 00
	00 00		 mov	 DWORD PTR __$EHRec$[ebp+8], 0

; 31   : 		if(str.length() <= 0)

  00090	8b f4		 mov	 esi, esp
  00092	8d 4d d0	 lea	 ecx, DWORD PTR _str$86848[ebp]
  00095	ff 15 00 00 00
	00		 call	 DWORD PTR __imp_?length@?$basic_string@DU?$char_traits@D@std@@V?$allocator@D@2@@std@@QBEIXZ
  0009b	3b f4		 cmp	 esi, esp
  0009d	e8 00 00 00 00	 call	 __RTC_CheckEsp
  000a2	85 c0		 test	 eax, eax
  000a4	77 25		 ja	 SHORT $L86850

; 32   : 			return false;

  000a6	c6 45 cb 00	 mov	 BYTE PTR $T93047[ebp], 0
  000aa	c7 45 fc ff ff
	ff ff		 mov	 DWORD PTR __$EHRec$[ebp+8], -1
  000b1	8b f4		 mov	 esi, esp
  000b3	8d 4d d0	 lea	 ecx, DWORD PTR _str$86848[ebp]
  000b6	ff 15 00 00 00
	00		 call	 DWORD PTR __imp_??1?$basic_string@DU?$char_traits@D@std@@V?$allocator@D@2@@std@@QAE@XZ
  000bc	3b f4		 cmp	 esi, esp
  000be	e8 00 00 00 00	 call	 __RTC_CheckEsp
  000c3	8a 45 cb	 mov	 al, BYTE PTR $T93047[ebp]
  000c6	e9 1e 01 00 00	 jmp	 $L86843
$L86850:

; 33   : 		else if(str[str.length()-1] == '\\')

  000cb	8b f4		 mov	 esi, esp
  000cd	8d 4d d0	 lea	 ecx, DWORD PTR _str$86848[ebp]
  000d0	ff 15 00 00 00
	00		 call	 DWORD PTR __imp_?length@?$basic_string@DU?$char_traits@D@std@@V?$allocator@D@2@@std@@QBEIXZ
  000d6	3b f4		 cmp	 esi, esp
  000d8	e8 00 00 00 00	 call	 __RTC_CheckEsp
  000dd	83 e8 01	 sub	 eax, 1
  000e0	8b f4		 mov	 esi, esp
  000e2	50		 push	 eax
  000e3	8d 4d d0	 lea	 ecx, DWORD PTR _str$86848[ebp]
  000e6	ff 15 00 00 00
	00		 call	 DWORD PTR __imp_??A?$basic_string@DU?$char_traits@D@std@@V?$allocator@D@2@@std@@QAEAADI@Z
  000ec	3b f4		 cmp	 esi, esp
  000ee	e8 00 00 00 00	 call	 __RTC_CheckEsp
  000f3	0f be 10	 movsx	 edx, BYTE PTR [eax]
  000f6	83 fa 5c	 cmp	 edx, 92			; 0000005cH
  000f9	75 67		 jne	 SHORT $L86852

; 34   : 		{
; 35   : 			str = str.substr(0, str.length()-1);

  000fb	8b f4		 mov	 esi, esp
  000fd	8d 4d d0	 lea	 ecx, DWORD PTR _str$86848[ebp]
  00100	ff 15 00 00 00
	00		 call	 DWORD PTR __imp_?length@?$basic_string@DU?$char_traits@D@std@@V?$allocator@D@2@@std@@QBEIXZ
  00106	3b f4		 cmp	 esi, esp
  00108	e8 00 00 00 00	 call	 __RTC_CheckEsp
  0010d	83 e8 01	 sub	 eax, 1
  00110	8b f4		 mov	 esi, esp
  00112	50		 push	 eax
  00113	6a 00		 push	 0
  00115	8d 45 ac	 lea	 eax, DWORD PTR $T93048[ebp]
  00118	50		 push	 eax
  00119	8d 4d d0	 lea	 ecx, DWORD PTR _str$86848[ebp]
  0011c	ff 15 00 00 00
	00		 call	 DWORD PTR __imp_?substr@?$basic_string@DU?$char_traits@D@std@@V?$allocator@D@2@@std@@QBE?AV12@II@Z
  00122	3b f4		 cmp	 esi, esp
  00124	e8 00 00 00 00	 call	 __RTC_CheckEsp
  00129	89 45 a8	 mov	 DWORD PTR tv153[ebp], eax
  0012c	8b 4d a8	 mov	 ecx, DWORD PTR tv153[ebp]
  0012f	89 4d a4	 mov	 DWORD PTR tv151[ebp], ecx
  00132	c6 45 fc 01	 mov	 BYTE PTR __$EHRec$[ebp+8], 1
  00136	8b f4		 mov	 esi, esp
  00138	8b 55 a4	 mov	 edx, DWORD PTR tv151[ebp]
  0013b	52		 push	 edx
  0013c	8d 4d d0	 lea	 ecx, DWORD PTR _str$86848[ebp]
  0013f	ff 15 00 00 00
	00		 call	 DWORD PTR __imp_??4?$basic_string@DU?$char_traits@D@std@@V?$allocator@D@2@@std@@QAEAAV01@ABV01@@Z
  00145	3b f4		 cmp	 esi, esp
  00147	e8 00 00 00 00	 call	 __RTC_CheckEsp
  0014c	c6 45 fc 00	 mov	 BYTE PTR __$EHRec$[ebp+8], 0
  00150	8b f4		 mov	 esi, esp
  00152	8d 4d ac	 lea	 ecx, DWORD PTR $T93048[ebp]
  00155	ff 15 00 00 00
	00		 call	 DWORD PTR __imp_??1?$basic_string@DU?$char_traits@D@std@@V?$allocator@D@2@@std@@QAE@XZ
  0015b	3b f4		 cmp	 esi, esp
  0015d	e8 00 00 00 00	 call	 __RTC_CheckEsp
$L86852:

; 36   : 		}
; 37   : 		YL_RegInfo::WriteString(HKEY_PLAYBOX_ROOT, STR_REG_SOFT, STR_SOFT_HOME_KEY, str.c_str());

  00162	8b f4		 mov	 esi, esp
  00164	8d 4d d0	 lea	 ecx, DWORD PTR _str$86848[ebp]
  00167	ff 15 00 00 00
	00		 call	 DWORD PTR __imp_?c_str@?$basic_string@DU?$char_traits@D@std@@V?$allocator@D@2@@std@@QBEPBDXZ
  0016d	3b f4		 cmp	 esi, esp
  0016f	e8 00 00 00 00	 call	 __RTC_CheckEsp
  00174	50		 push	 eax
  00175	a1 00 00 00 00	 mov	 eax, DWORD PTR _STR_SOFT_HOME_KEY
  0017a	50		 push	 eax
  0017b	8b 0d 00 00 00
	00		 mov	 ecx, DWORD PTR _STR_REG_SOFT
  00181	51		 push	 ecx
  00182	68 02 00 00 80	 push	 -2147483646		; 80000002H
  00187	e8 00 00 00 00	 call	 ?WriteString@YL_RegInfo@@SA_NPAUHKEY__@@PBD11@Z ; YL_RegInfo::WriteString
  0018c	83 c4 10	 add	 esp, 16			; 00000010H

; 38   : 		_snprintf(szPath, pathlen-1, "%s", str.c_str());

  0018f	8b f4		 mov	 esi, esp
  00191	8d 4d d0	 lea	 ecx, DWORD PTR _str$86848[ebp]
  00194	ff 15 00 00 00
	00		 call	 DWORD PTR __imp_?c_str@?$basic_string@DU?$char_traits@D@std@@V?$allocator@D@2@@std@@QBEPBDXZ
  0019a	3b f4		 cmp	 esi, esp
  0019c	e8 00 00 00 00	 call	 __RTC_CheckEsp
  001a1	8b f4		 mov	 esi, esp
  001a3	50		 push	 eax
  001a4	68 00 00 00 00	 push	 OFFSET FLAT:$SG86858
  001a9	8b 55 0c	 mov	 edx, DWORD PTR _pathlen$[ebp]
  001ac	83 ea 01	 sub	 edx, 1
  001af	52		 push	 edx
  001b0	8b 45 08	 mov	 eax, DWORD PTR _szPath$[ebp]
  001b3	50		 push	 eax
  001b4	ff 15 00 00 00
	00		 call	 DWORD PTR __imp___snprintf
  001ba	83 c4 10	 add	 esp, 16			; 00000010H
  001bd	3b f4		 cmp	 esi, esp
  001bf	e8 00 00 00 00	 call	 __RTC_CheckEsp

; 39   : 	}

  001c4	c7 45 fc ff ff
	ff ff		 mov	 DWORD PTR __$EHRec$[ebp+8], -1
  001cb	8b f4		 mov	 esi, esp
  001cd	8d 4d d0	 lea	 ecx, DWORD PTR _str$86848[ebp]
  001d0	ff 15 00 00 00
	00		 call	 DWORD PTR __imp_??1?$basic_string@DU?$char_traits@D@std@@V?$allocator@D@2@@std@@QAE@XZ
  001d6	3b f4		 cmp	 esi, esp
  001d8	e8 00 00 00 00	 call	 __RTC_CheckEsp
$L86847:

; 40   : 	szPath[pathlen-1] = '\0';

  001dd	8b 4d 08	 mov	 ecx, DWORD PTR _szPath$[ebp]
  001e0	03 4d 0c	 add	 ecx, DWORD PTR _pathlen$[ebp]
  001e3	c6 41 ff 00	 mov	 BYTE PTR [ecx-1], 0

; 41   : 	return true;

  001e7	b0 01		 mov	 al, 1
$L86843:

; 42   : }

  001e9	52		 push	 edx
  001ea	8b cd		 mov	 ecx, ebp
  001ec	50		 push	 eax
  001ed	8d 15 00 00 00
	00		 lea	 edx, DWORD PTR $L93057
  001f3	e8 00 00 00 00	 call	 @_RTC_CheckStackVars@8
  001f8	58		 pop	 eax
  001f9	5a		 pop	 edx
  001fa	8b 4d f4	 mov	 ecx, DWORD PTR __$EHRec$[ebp]
  001fd	64 89 0d 00 00
	00 00		 mov	 DWORD PTR fs:__except_list, ecx
  00204	8b 4d f0	 mov	 ecx, DWORD PTR __$ArrayPad$[ebp]
  00207	e8 00 00 00 00	 call	 @__security_check_cookie@4
  0020c	5f		 pop	 edi
  0020d	5e		 pop	 esi
  0020e	83 c4 5c	 add	 esp, 92			; 0000005cH
  00211	3b ec		 cmp	 ebp, esp
  00213	e8 00 00 00 00	 call	 __RTC_CheckEsp
  00218	8b e5		 mov	 esp, ebp
  0021a	5d		 pop	 ebp
  0021b	c3		 ret	 0
$L93057:
  0021c	01 00 00 00	 DD	 1
  00220	00 00 00 00	 DD	 $L93056
$L93056:
  00224	d0 ff ff ff	 DD	 -48			; ffffffd0H
  00228	1c 00 00 00	 DD	 28			; 0000001cH
  0022c	00 00 00 00	 DD	 $L93053
$L93053:
  00230	73		 DB	 115			; 00000073H
  00231	74		 DB	 116			; 00000074H
  00232	72		 DB	 114			; 00000072H
  00233	00		 DB	 0
_TEXT	ENDS
text$x	SEGMENT
$L93049:
  00000	8b f4		 mov	 esi, esp
  00002	8d 4d d0	 lea	 ecx, DWORD PTR _str$86848[ebp]
  00005	ff 15 00 00 00
	00		 call	 DWORD PTR __imp_??1?$basic_string@DU?$char_traits@D@std@@V?$allocator@D@2@@std@@QAE@XZ
  0000b	3b f4		 cmp	 esi, esp
  0000d	e9 00 00 00 00	 jmp	 __RTC_CheckEsp
$L93050:
  00012	8b f4		 mov	 esi, esp
  00014	8d 4d ac	 lea	 ecx, DWORD PTR $T93048[ebp]
  00017	ff 15 00 00 00
	00		 call	 DWORD PTR __imp_??1?$basic_string@DU?$char_traits@D@std@@V?$allocator@D@2@@std@@QAE@XZ
  0001d	3b f4		 cmp	 esi, esp
  0001f	e9 00 00 00 00	 jmp	 __RTC_CheckEsp
__ehhandler$?GetHomePath@CLhcImg@@SA_NQADH@Z:
  00024	b8 00 00 00 00	 mov	 eax, OFFSET FLAT:$T93052
  00029	e9 00 00 00 00	 jmp	 ___CxxFrameHandler
text$x	ENDS
?GetHomePath@CLhcImg@@SA_NQADH@Z ENDP			; CLhcImg::GetHomePath
PUBLIC	?GetConfigPath@CLhcImg@@SA_NQADH@Z		; CLhcImg::GetConfigPath
EXTRN	?GetEncFilePath@YL_EncFileReg@@SA_NAAV?$basic_string@DU?$char_traits@D@std@@V?$allocator@D@2@@std@@@Z:NEAR ; YL_EncFileReg::GetEncFilePath
EXTRN	__imp_??0?$basic_string@DU?$char_traits@D@std@@V?$allocator@D@2@@std@@QAE@XZ:NEAR
xdata$x	SEGMENT
$T93070	DD	0ffffffffH
	DD	FLAT:$L93062
$T93064	DD	019930520H
	DD	01H
	DD	FLAT:$T93070
	DD	2 DUP(00H)
	DD	2 DUP(00H)
; Function compile flags: /Odt /RTCsu
xdata$x	ENDS
_TEXT	SEGMENT
$T93061 = -53						; size = 1
_strPath$ = -48						; size = 28
__$ArrayPad$ = -16					; size = 4
__$EHRec$ = -12						; size = 12
__$ReturnAddr$ = 4					; size = 4
_szFilePath$ = 8					; size = 4
_pathlen$ = 12						; size = 4
?GetConfigPath@CLhcImg@@SA_NQADH@Z PROC NEAR		; CLhcImg::GetConfigPath

; 45   : {

  00240	55		 push	 ebp
  00241	8b ec		 mov	 ebp, esp
  00243	6a ff		 push	 -1
  00245	68 00 00 00 00	 push	 __ehhandler$?GetConfigPath@CLhcImg@@SA_NQADH@Z
  0024a	64 a1 00 00 00
	00		 mov	 eax, DWORD PTR fs:__except_list
  00250	50		 push	 eax
  00251	64 89 25 00 00
	00 00		 mov	 DWORD PTR fs:__except_list, esp
  00258	83 ec 2c	 sub	 esp, 44			; 0000002cH
  0025b	56		 push	 esi
  0025c	57		 push	 edi
  0025d	8d 7d c8	 lea	 edi, DWORD PTR [ebp-56]
  00260	b9 0b 00 00 00	 mov	 ecx, 11			; 0000000bH
  00265	b8 cc cc cc cc	 mov	 eax, -858993460		; ccccccccH
  0026a	f3 ab		 rep stosd
  0026c	a1 00 00 00 00	 mov	 eax, DWORD PTR ___security_cookie
  00271	89 45 f0	 mov	 DWORD PTR __$ArrayPad$[ebp], eax

; 46   : 	string strPath;

  00274	8b f4		 mov	 esi, esp
  00276	8d 4d d0	 lea	 ecx, DWORD PTR _strPath$[ebp]
  00279	ff 15 00 00 00
	00		 call	 DWORD PTR __imp_??0?$basic_string@DU?$char_traits@D@std@@V?$allocator@D@2@@std@@QAE@XZ
  0027f	3b f4		 cmp	 esi, esp
  00281	e8 00 00 00 00	 call	 __RTC_CheckEsp
  00286	c7 45 fc 00 00
	00 00		 mov	 DWORD PTR __$EHRec$[ebp+8], 0

; 47   : 	YL_EncFileReg::GetEncFilePath( strPath );

  0028d	8d 45 d0	 lea	 eax, DWORD PTR _strPath$[ebp]
  00290	50		 push	 eax
  00291	e8 00 00 00 00	 call	 ?GetEncFilePath@YL_EncFileReg@@SA_NAAV?$basic_string@DU?$char_traits@D@std@@V?$allocator@D@2@@std@@@Z ; YL_EncFileReg::GetEncFilePath
  00296	83 c4 04	 add	 esp, 4

; 48   : 	_snprintf( szFilePath, pathlen, "%s", strPath.c_str() );

  00299	8b f4		 mov	 esi, esp
  0029b	8d 4d d0	 lea	 ecx, DWORD PTR _strPath$[ebp]
  0029e	ff 15 00 00 00
	00		 call	 DWORD PTR __imp_?c_str@?$basic_string@DU?$char_traits@D@std@@V?$allocator@D@2@@std@@QBEPBDXZ
  002a4	3b f4		 cmp	 esi, esp
  002a6	e8 00 00 00 00	 call	 __RTC_CheckEsp
  002ab	8b f4		 mov	 esi, esp
  002ad	50		 push	 eax
  002ae	68 00 00 00 00	 push	 OFFSET FLAT:$SG86864
  002b3	8b 4d 0c	 mov	 ecx, DWORD PTR _pathlen$[ebp]
  002b6	51		 push	 ecx
  002b7	8b 55 08	 mov	 edx, DWORD PTR _szFilePath$[ebp]
  002ba	52		 push	 edx
  002bb	ff 15 00 00 00
	00		 call	 DWORD PTR __imp___snprintf
  002c1	83 c4 10	 add	 esp, 16			; 00000010H
  002c4	3b f4		 cmp	 esi, esp
  002c6	e8 00 00 00 00	 call	 __RTC_CheckEsp

; 49   : 	return true;

  002cb	c6 45 cb 01	 mov	 BYTE PTR $T93061[ebp], 1
  002cf	c7 45 fc ff ff
	ff ff		 mov	 DWORD PTR __$EHRec$[ebp+8], -1
  002d6	8b f4		 mov	 esi, esp
  002d8	8d 4d d0	 lea	 ecx, DWORD PTR _strPath$[ebp]
  002db	ff 15 00 00 00
	00		 call	 DWORD PTR __imp_??1?$basic_string@DU?$char_traits@D@std@@V?$allocator@D@2@@std@@QAE@XZ
  002e1	3b f4		 cmp	 esi, esp
  002e3	e8 00 00 00 00	 call	 __RTC_CheckEsp
  002e8	8a 45 cb	 mov	 al, BYTE PTR $T93061[ebp]

; 50   : }

  002eb	52		 push	 edx
  002ec	8b cd		 mov	 ecx, ebp
  002ee	50		 push	 eax
  002ef	8d 15 00 00 00
	00		 lea	 edx, DWORD PTR $L93069
  002f5	e8 00 00 00 00	 call	 @_RTC_CheckStackVars@8
  002fa	58		 pop	 eax
  002fb	5a		 pop	 edx
  002fc	8b 4d f4	 mov	 ecx, DWORD PTR __$EHRec$[ebp]
  002ff	64 89 0d 00 00
	00 00		 mov	 DWORD PTR fs:__except_list, ecx
  00306	8b 4d f0	 mov	 ecx, DWORD PTR __$ArrayPad$[ebp]
  00309	e8 00 00 00 00	 call	 @__security_check_cookie@4
  0030e	5f		 pop	 edi
  0030f	5e		 pop	 esi
  00310	83 c4 38	 add	 esp, 56			; 00000038H
  00313	3b ec		 cmp	 ebp, esp
  00315	e8 00 00 00 00	 call	 __RTC_CheckEsp
  0031a	8b e5		 mov	 esp, ebp
  0031c	5d		 pop	 ebp
  0031d	c3		 ret	 0
$L93069:
  0031e	01 00 00 00	 DD	 1
  00322	00 00 00 00	 DD	 $L93068
$L93068:
  00326	d0 ff ff ff	 DD	 -48			; ffffffd0H
  0032a	1c 00 00 00	 DD	 28			; 0000001cH
  0032e	00 00 00 00	 DD	 $L93065
$L93065:
  00332	73		 DB	 115			; 00000073H
  00333	74		 DB	 116			; 00000074H
  00334	72		 DB	 114			; 00000072H
  00335	50		 DB	 80			; 00000050H
  00336	61		 DB	 97			; 00000061H
  00337	74		 DB	 116			; 00000074H
  00338	68		 DB	 104			; 00000068H
  00339	00		 DB	 0
_TEXT	ENDS
text$x	SEGMENT
$L93062:
  0002e	8b f4		 mov	 esi, esp
  00030	8d 4d d0	 lea	 ecx, DWORD PTR _strPath$[ebp]
  00033	ff 15 00 00 00
	00		 call	 DWORD PTR __imp_??1?$basic_string@DU?$char_traits@D@std@@V?$allocator@D@2@@std@@QAE@XZ
  00039	3b f4		 cmp	 esi, esp
  0003b	e9 00 00 00 00	 jmp	 __RTC_CheckEsp
__ehhandler$?GetConfigPath@CLhcImg@@SA_NQADH@Z:
  00040	b8 00 00 00 00	 mov	 eax, OFFSET FLAT:$T93064
  00045	e9 00 00 00 00	 jmp	 ___CxxFrameHandler
text$x	ENDS
?GetConfigPath@CLhcImg@@SA_NQADH@Z ENDP			; CLhcImg::GetConfigPath
PUBLIC	?GetAdPath@CLhcImg@@SA_NQADH@Z			; CLhcImg::GetAdPath
; Function compile flags: /Odt /RTCsu
_TEXT	SEGMENT
_szBuffer$ = -268					; size = 260
__$ArrayPad$ = -4					; size = 4
__$ReturnAddr$ = 4					; size = 4
_szPath$ = 8						; size = 4
_pathlen$ = 12						; size = 4
?GetAdPath@CLhcImg@@SA_NQADH@Z PROC NEAR		; CLhcImg::GetAdPath

; 53   : {

  00340	55		 push	 ebp
  00341	8b ec		 mov	 ebp, esp
  00343	81 ec 10 01 00
	00		 sub	 esp, 272		; 00000110H
  00349	56		 push	 esi
  0034a	57		 push	 edi
  0034b	8d bd f0 fe ff
	ff		 lea	 edi, DWORD PTR [ebp-272]
  00351	b9 44 00 00 00	 mov	 ecx, 68			; 00000044H
  00356	b8 cc cc cc cc	 mov	 eax, -858993460		; ccccccccH
  0035b	f3 ab		 rep stosd
  0035d	a1 00 00 00 00	 mov	 eax, DWORD PTR ___security_cookie
  00362	89 45 fc	 mov	 DWORD PTR __$ArrayPad$[ebp], eax

; 54   : 	char szBuffer[MAX_PATH];
; 55   : 	if( !GetHomePath( szBuffer,MAX_PATH ) )

  00365	68 04 01 00 00	 push	 260			; 00000104H
  0036a	8d 85 f4 fe ff
	ff		 lea	 eax, DWORD PTR _szBuffer$[ebp]
  00370	50		 push	 eax
  00371	e8 00 00 00 00	 call	 ?GetHomePath@CLhcImg@@SA_NQADH@Z ; CLhcImg::GetHomePath
  00376	83 c4 08	 add	 esp, 8
  00379	0f b6 c8	 movzx	 ecx, al
  0037c	85 c9		 test	 ecx, ecx
  0037e	75 04		 jne	 SHORT $L86871

; 56   : 		return false;

  00380	32 c0		 xor	 al, al
  00382	eb 2b		 jmp	 SHORT $L86869
$L86871:

; 57   : 	_snprintf(szPath, pathlen-1, "%s\\Formats\\", szBuffer);

  00384	8b f4		 mov	 esi, esp
  00386	8d 95 f4 fe ff
	ff		 lea	 edx, DWORD PTR _szBuffer$[ebp]
  0038c	52		 push	 edx
  0038d	68 00 00 00 00	 push	 OFFSET FLAT:$SG86872
  00392	8b 45 0c	 mov	 eax, DWORD PTR _pathlen$[ebp]
  00395	83 e8 01	 sub	 eax, 1
  00398	50		 push	 eax
  00399	8b 4d 08	 mov	 ecx, DWORD PTR _szPath$[ebp]
  0039c	51		 push	 ecx
  0039d	ff 15 00 00 00
	00		 call	 DWORD PTR __imp___snprintf
  003a3	83 c4 10	 add	 esp, 16			; 00000010H
  003a6	3b f4		 cmp	 esi, esp
  003a8	e8 00 00 00 00	 call	 __RTC_CheckEsp

; 58   : 	return true;

  003ad	b0 01		 mov	 al, 1
$L86869:

; 59   : }

  003af	52		 push	 edx
  003b0	8b cd		 mov	 ecx, ebp
  003b2	50		 push	 eax
  003b3	8d 15 00 00 00
	00		 lea	 edx, DWORD PTR $L93076
  003b9	e8 00 00 00 00	 call	 @_RTC_CheckStackVars@8
  003be	58		 pop	 eax
  003bf	5a		 pop	 edx
  003c0	8b 4d fc	 mov	 ecx, DWORD PTR __$ArrayPad$[ebp]
  003c3	e8 00 00 00 00	 call	 @__security_check_cookie@4
  003c8	5f		 pop	 edi
  003c9	5e		 pop	 esi
  003ca	81 c4 10 01 00
	00		 add	 esp, 272		; 00000110H
  003d0	3b ec		 cmp	 ebp, esp
  003d2	e8 00 00 00 00	 call	 __RTC_CheckEsp
  003d7	8b e5		 mov	 esp, ebp
  003d9	5d		 pop	 ebp
  003da	c3		 ret	 0
$L93076:
  003db	01 00 00 00	 DD	 1
  003df	00 00 00 00	 DD	 $L93075
$L93075:
  003e3	f4 fe ff ff	 DD	 -268			; fffffef4H
  003e7	04 01 00 00	 DD	 260			; 00000104H
  003eb	00 00 00 00	 DD	 $L93073
$L93073:
  003ef	73		 DB	 115			; 00000073H
  003f0	7a		 DB	 122			; 0000007aH
  003f1	42		 DB	 66			; 00000042H
  003f2	75		 DB	 117			; 00000075H
  003f3	66		 DB	 102			; 00000066H
  003f4	66		 DB	 102			; 00000066H
  003f5	65		 DB	 101			; 00000065H
  003f6	72		 DB	 114			; 00000072H
  003f7	00		 DB	 0
?GetAdPath@CLhcImg@@SA_NQADH@Z ENDP			; CLhcImg::GetAdPath
_TEXT	ENDS
PUBLIC	?GetAdConfigPath@CLhcImg@@SA_NQADH@Z		; CLhcImg::GetAdConfigPath
; Function compile flags: /Odt /RTCsu
_TEXT	SEGMENT
_szBuffer$ = -268					; size = 260
__$ArrayPad$ = -4					; size = 4
__$ReturnAddr$ = 4					; size = 4
_szPath$ = 8						; size = 4
_pathlen$ = 12						; size = 4
?GetAdConfigPath@CLhcImg@@SA_NQADH@Z PROC NEAR		; CLhcImg::GetAdConfigPath

; 62   : {

  00400	55		 push	 ebp
  00401	8b ec		 mov	 ebp, esp
  00403	81 ec 10 01 00
	00		 sub	 esp, 272		; 00000110H
  00409	56		 push	 esi
  0040a	57		 push	 edi
  0040b	8d bd f0 fe ff
	ff		 lea	 edi, DWORD PTR [ebp-272]
  00411	b9 44 00 00 00	 mov	 ecx, 68			; 00000044H
  00416	b8 cc cc cc cc	 mov	 eax, -858993460		; ccccccccH
  0041b	f3 ab		 rep stosd
  0041d	a1 00 00 00 00	 mov	 eax, DWORD PTR ___security_cookie
  00422	89 45 fc	 mov	 DWORD PTR __$ArrayPad$[ebp], eax

; 63   : 	char szBuffer[MAX_PATH];
; 64   : 	if( !GetAdPath( szBuffer,MAX_PATH ) )

  00425	68 04 01 00 00	 push	 260			; 00000104H
  0042a	8d 85 f4 fe ff
	ff		 lea	 eax, DWORD PTR _szBuffer$[ebp]
  00430	50		 push	 eax
  00431	e8 00 00 00 00	 call	 ?GetAdPath@CLhcImg@@SA_NQADH@Z ; CLhcImg::GetAdPath
  00436	83 c4 08	 add	 esp, 8
  00439	0f b6 c8	 movzx	 ecx, al
  0043c	85 c9		 test	 ecx, ecx
  0043e	75 04		 jne	 SHORT $L86878

; 65   : 		return false;

  00440	32 c0		 xor	 al, al
  00442	eb 2b		 jmp	 SHORT $L86876
$L86878:

; 66   : 	_snprintf(szPath, pathlen-1, "%stips.ini", szBuffer);

  00444	8b f4		 mov	 esi, esp
  00446	8d 95 f4 fe ff
	ff		 lea	 edx, DWORD PTR _szBuffer$[ebp]
  0044c	52		 push	 edx
  0044d	68 00 00 00 00	 push	 OFFSET FLAT:$SG86879
  00452	8b 45 0c	 mov	 eax, DWORD PTR _pathlen$[ebp]
  00455	83 e8 01	 sub	 eax, 1
  00458	50		 push	 eax
  00459	8b 4d 08	 mov	 ecx, DWORD PTR _szPath$[ebp]
  0045c	51		 push	 ecx
  0045d	ff 15 00 00 00
	00		 call	 DWORD PTR __imp___snprintf
  00463	83 c4 10	 add	 esp, 16			; 00000010H
  00466	3b f4		 cmp	 esi, esp
  00468	e8 00 00 00 00	 call	 __RTC_CheckEsp

; 67   : 	return true;

  0046d	b0 01		 mov	 al, 1
$L86876:

; 68   : }

  0046f	52		 push	 edx
  00470	8b cd		 mov	 ecx, ebp
  00472	50		 push	 eax
  00473	8d 15 00 00 00
	00		 lea	 edx, DWORD PTR $L93082
  00479	e8 00 00 00 00	 call	 @_RTC_CheckStackVars@8
  0047e	58		 pop	 eax
  0047f	5a		 pop	 edx
  00480	8b 4d fc	 mov	 ecx, DWORD PTR __$ArrayPad$[ebp]
  00483	e8 00 00 00 00	 call	 @__security_check_cookie@4
  00488	5f		 pop	 edi
  00489	5e		 pop	 esi
  0048a	81 c4 10 01 00
	00		 add	 esp, 272		; 00000110H
  00490	3b ec		 cmp	 ebp, esp
  00492	e8 00 00 00 00	 call	 __RTC_CheckEsp
  00497	8b e5		 mov	 esp, ebp
  00499	5d		 pop	 ebp
  0049a	c3		 ret	 0
$L93082:
  0049b	01 00 00 00	 DD	 1
  0049f	00 00 00 00	 DD	 $L93081
$L93081:
  004a3	f4 fe ff ff	 DD	 -268			; fffffef4H
  004a7	04 01 00 00	 DD	 260			; 00000104H
  004ab	00 00 00 00	 DD	 $L93079
$L93079:
  004af	73		 DB	 115			; 00000073H
  004b0	7a		 DB	 122			; 0000007aH
  004b1	42		 DB	 66			; 00000042H
  004b2	75		 DB	 117			; 00000075H
  004b3	66		 DB	 102			; 00000066H
  004b4	66		 DB	 102			; 00000066H
  004b5	65		 DB	 101			; 00000065H
  004b6	72		 DB	 114			; 00000072H
  004b7	00		 DB	 0
?GetAdConfigPath@CLhcImg@@SA_NQADH@Z ENDP		; CLhcImg::GetAdConfigPath
_TEXT	ENDS
PUBLIC	?GetTempConfigPath@CLhcImg@@SA_NQADH@Z		; CLhcImg::GetTempConfigPath
; Function compile flags: /Odt /RTCsu
_TEXT	SEGMENT
_dir$ = -268						; size = 260
__$ArrayPad$ = -4					; size = 4
__$ReturnAddr$ = 4					; size = 4
_szFilePath$ = 8					; size = 4
_pathlen$ = 12						; size = 4
?GetTempConfigPath@CLhcImg@@SA_NQADH@Z PROC NEAR	; CLhcImg::GetTempConfigPath

; 71   : {

  004c0	55		 push	 ebp
  004c1	8b ec		 mov	 ebp, esp
  004c3	81 ec 10 01 00
	00		 sub	 esp, 272		; 00000110H
  004c9	56		 push	 esi
  004ca	57		 push	 edi
  004cb	8d bd f0 fe ff
	ff		 lea	 edi, DWORD PTR [ebp-272]
  004d1	b9 44 00 00 00	 mov	 ecx, 68			; 00000044H
  004d6	b8 cc cc cc cc	 mov	 eax, -858993460		; ccccccccH
  004db	f3 ab		 rep stosd
  004dd	a1 00 00 00 00	 mov	 eax, DWORD PTR ___security_cookie
  004e2	89 45 fc	 mov	 DWORD PTR __$ArrayPad$[ebp], eax

; 72   : 	char dir[MAX_PATH];
; 73   : 	memset(szFilePath, 0, pathlen);

  004e5	8b 45 0c	 mov	 eax, DWORD PTR _pathlen$[ebp]
  004e8	50		 push	 eax
  004e9	6a 00		 push	 0
  004eb	8b 4d 08	 mov	 ecx, DWORD PTR _szFilePath$[ebp]
  004ee	51		 push	 ecx
  004ef	e8 00 00 00 00	 call	 _memset
  004f4	83 c4 0c	 add	 esp, 12			; 0000000cH

; 74   : 	if(!GetHomePath(dir, MAX_PATH))

  004f7	68 04 01 00 00	 push	 260			; 00000104H
  004fc	8d 95 f4 fe ff
	ff		 lea	 edx, DWORD PTR _dir$[ebp]
  00502	52		 push	 edx
  00503	e8 00 00 00 00	 call	 ?GetHomePath@CLhcImg@@SA_NQADH@Z ; CLhcImg::GetHomePath
  00508	83 c4 08	 add	 esp, 8
  0050b	0f b6 c0	 movzx	 eax, al
  0050e	85 c0		 test	 eax, eax
  00510	75 04		 jne	 SHORT $L86885

; 75   : 		return false;

  00512	32 c0		 xor	 al, al
  00514	eb 30		 jmp	 SHORT $L86883
$L86885:

; 76   : 	_snprintf(szFilePath, pathlen-1, "%s%s", dir, "\\skin\\svr.img");

  00516	8b f4		 mov	 esi, esp
  00518	68 00 00 00 00	 push	 OFFSET FLAT:$SG86886
  0051d	8d 8d f4 fe ff
	ff		 lea	 ecx, DWORD PTR _dir$[ebp]
  00523	51		 push	 ecx
  00524	68 00 00 00 00	 push	 OFFSET FLAT:$SG86887
  00529	8b 55 0c	 mov	 edx, DWORD PTR _pathlen$[ebp]
  0052c	83 ea 01	 sub	 edx, 1
  0052f	52		 push	 edx
  00530	8b 45 08	 mov	 eax, DWORD PTR _szFilePath$[ebp]
  00533	50		 push	 eax
  00534	ff 15 00 00 00
	00		 call	 DWORD PTR __imp___snprintf
  0053a	83 c4 14	 add	 esp, 20			; 00000014H
  0053d	3b f4		 cmp	 esi, esp
  0053f	e8 00 00 00 00	 call	 __RTC_CheckEsp

; 77   : 	return true;

  00544	b0 01		 mov	 al, 1
$L86883:

; 78   : }

  00546	52		 push	 edx
  00547	8b cd		 mov	 ecx, ebp
  00549	50		 push	 eax
  0054a	8d 15 00 00 00
	00		 lea	 edx, DWORD PTR $L93088
  00550	e8 00 00 00 00	 call	 @_RTC_CheckStackVars@8
  00555	58		 pop	 eax
  00556	5a		 pop	 edx
  00557	8b 4d fc	 mov	 ecx, DWORD PTR __$ArrayPad$[ebp]
  0055a	e8 00 00 00 00	 call	 @__security_check_cookie@4
  0055f	5f		 pop	 edi
  00560	5e		 pop	 esi
  00561	81 c4 10 01 00
	00		 add	 esp, 272		; 00000110H
  00567	3b ec		 cmp	 ebp, esp
  00569	e8 00 00 00 00	 call	 __RTC_CheckEsp
  0056e	8b e5		 mov	 esp, ebp
  00570	5d		 pop	 ebp
  00571	c3		 ret	 0
$L93088:
  00572	01 00 00 00	 DD	 1
  00576	00 00 00 00	 DD	 $L93087
$L93087:
  0057a	f4 fe ff ff	 DD	 -268			; fffffef4H
  0057e	04 01 00 00	 DD	 260			; 00000104H
  00582	00 00 00 00	 DD	 $L93085
$L93085:
  00586	64		 DB	 100			; 00000064H
  00587	69		 DB	 105			; 00000069H
  00588	72		 DB	 114			; 00000072H
  00589	00		 DB	 0
?GetTempConfigPath@CLhcImg@@SA_NQADH@Z ENDP		; CLhcImg::GetTempConfigPath
_TEXT	ENDS
PUBLIC	?GetRegServer@CLhcImg@@SA_NQADH@Z		; CLhcImg::GetRegServer
EXTRN	?GetString@YL_EncFileReg@@SAKPBD0PADK0@Z:NEAR	; YL_EncFileReg::GetString
; Function compile flags: /Odt /RTCsu
_TEXT	SEGMENT
_szSvr$ = 8						; size = 4
_svrlen$ = 12						; size = 4
?GetRegServer@CLhcImg@@SA_NQADH@Z PROC NEAR		; CLhcImg::GetRegServer

; 81   : {

  00590	55		 push	 ebp
  00591	8b ec		 mov	 ebp, esp

; 82   : 	YL_EncFileReg::GetString( "RegServer", "regsvr", szSvr, svrlen );

  00593	6a 00		 push	 0
  00595	8b 45 0c	 mov	 eax, DWORD PTR _svrlen$[ebp]
  00598	50		 push	 eax
  00599	8b 4d 08	 mov	 ecx, DWORD PTR _szSvr$[ebp]
  0059c	51		 push	 ecx
  0059d	68 00 00 00 00	 push	 OFFSET FLAT:$SG86892
  005a2	68 00 00 00 00	 push	 OFFSET FLAT:$SG86893
  005a7	e8 00 00 00 00	 call	 ?GetString@YL_EncFileReg@@SAKPBD0PADK0@Z ; YL_EncFileReg::GetString
  005ac	83 c4 14	 add	 esp, 20			; 00000014H

; 83   : 	return true;

  005af	b0 01		 mov	 al, 1

; 84   : }

  005b1	3b ec		 cmp	 ebp, esp
  005b3	e8 00 00 00 00	 call	 __RTC_CheckEsp
  005b8	5d		 pop	 ebp
  005b9	c3		 ret	 0
?GetRegServer@CLhcImg@@SA_NQADH@Z ENDP			; CLhcImg::GetRegServer
_TEXT	ENDS
PUBLIC	?GetUpdateServer@CLhcImg@@SA_NQADH@Z		; CLhcImg::GetUpdateServer
; Function compile flags: /Odt /RTCsu
_TEXT	SEGMENT
_szSvr$ = 8						; size = 4
_svrlen$ = 12						; size = 4
?GetUpdateServer@CLhcImg@@SA_NQADH@Z PROC NEAR		; CLhcImg::GetUpdateServer

; 87   : {

  005c0	55		 push	 ebp
  005c1	8b ec		 mov	 ebp, esp

; 88   : 	YL_EncFileReg::GetString( "UpdateServer", "updatesvr", szSvr, svrlen );

  005c3	6a 00		 push	 0
  005c5	8b 45 0c	 mov	 eax, DWORD PTR _svrlen$[ebp]
  005c8	50		 push	 eax
  005c9	8b 4d 08	 mov	 ecx, DWORD PTR _szSvr$[ebp]
  005cc	51		 push	 ecx
  005cd	68 00 00 00 00	 push	 OFFSET FLAT:$SG86898
  005d2	68 00 00 00 00	 push	 OFFSET FLAT:$SG86899
  005d7	e8 00 00 00 00	 call	 ?GetString@YL_EncFileReg@@SAKPBD0PADK0@Z ; YL_EncFileReg::GetString
  005dc	83 c4 14	 add	 esp, 20			; 00000014H

; 89   : 	return true;

  005df	b0 01		 mov	 al, 1

; 90   : }

  005e1	3b ec		 cmp	 ebp, esp
  005e3	e8 00 00 00 00	 call	 __RTC_CheckEsp
  005e8	5d		 pop	 ebp
  005e9	c3		 ret	 0
?GetUpdateServer@CLhcImg@@SA_NQADH@Z ENDP		; CLhcImg::GetUpdateServer
_TEXT	ENDS
PUBLIC	?GetLogServer@CLhcImg@@SA_NQADH@Z		; CLhcImg::GetLogServer
; Function compile flags: /Odt /RTCsu
_TEXT	SEGMENT
_szUrl$ = 8						; size = 4
_urllen$ = 12						; size = 4
?GetLogServer@CLhcImg@@SA_NQADH@Z PROC NEAR		; CLhcImg::GetLogServer

; 93   : {

  005f0	55		 push	 ebp
  005f1	8b ec		 mov	 ebp, esp

; 94   : 	YL_EncFileReg::GetString( "LogMsg", "reallogserver", szUrl, urllen );

  005f3	6a 00		 push	 0
  005f5	8b 45 0c	 mov	 eax, DWORD PTR _urllen$[ebp]
  005f8	50		 push	 eax
  005f9	8b 4d 08	 mov	 ecx, DWORD PTR _szUrl$[ebp]
  005fc	51		 push	 ecx
  005fd	68 00 00 00 00	 push	 OFFSET FLAT:$SG86904
  00602	68 00 00 00 00	 push	 OFFSET FLAT:$SG86905
  00607	e8 00 00 00 00	 call	 ?GetString@YL_EncFileReg@@SAKPBD0PADK0@Z ; YL_EncFileReg::GetString
  0060c	83 c4 14	 add	 esp, 20			; 00000014H

; 95   : 	return true;

  0060f	b0 01		 mov	 al, 1

; 96   : }

  00611	3b ec		 cmp	 ebp, esp
  00613	e8 00 00 00 00	 call	 __RTC_CheckEsp
  00618	5d		 pop	 ebp
  00619	c3		 ret	 0
?GetLogServer@CLhcImg@@SA_NQADH@Z ENDP			; CLhcImg::GetLogServer
_TEXT	ENDS
PUBLIC	?GetUpLogServer@CLhcImg@@SA_NQADH@Z		; CLhcImg::GetUpLogServer
; Function compile flags: /Odt /RTCsu
_TEXT	SEGMENT
_szUrl$ = 8						; size = 4
_urllen$ = 12						; size = 4
?GetUpLogServer@CLhcImg@@SA_NQADH@Z PROC NEAR		; CLhcImg::GetUpLogServer

; 99   : {

  00620	55		 push	 ebp
  00621	8b ec		 mov	 ebp, esp

; 100  : 	YL_EncFileReg::GetString( "LogServer", "uplogsvr", szUrl, urllen );

  00623	6a 00		 push	 0
  00625	8b 45 0c	 mov	 eax, DWORD PTR _urllen$[ebp]
  00628	50		 push	 eax
  00629	8b 4d 08	 mov	 ecx, DWORD PTR _szUrl$[ebp]
  0062c	51		 push	 ecx
  0062d	68 00 00 00 00	 push	 OFFSET FLAT:$SG86910
  00632	68 00 00 00 00	 push	 OFFSET FLAT:$SG86911
  00637	e8 00 00 00 00	 call	 ?GetString@YL_EncFileReg@@SAKPBD0PADK0@Z ; YL_EncFileReg::GetString
  0063c	83 c4 14	 add	 esp, 20			; 00000014H

; 101  : 	return true;

  0063f	b0 01		 mov	 al, 1

; 102  : }

  00641	3b ec		 cmp	 ebp, esp
  00643	e8 00 00 00 00	 call	 __RTC_CheckEsp
  00648	5d		 pop	 ebp
  00649	c3		 ret	 0
?GetUpLogServer@CLhcImg@@SA_NQADH@Z ENDP		; CLhcImg::GetUpLogServer
_TEXT	ENDS
PUBLIC	?GetConfigServer@CLhcImg@@SA_NQADH@Z		; CLhcImg::GetConfigServer
; Function compile flags: /Odt /RTCsu
_TEXT	SEGMENT
_szUrl$ = 8						; size = 4
_urllen$ = 12						; size = 4
?GetConfigServer@CLhcImg@@SA_NQADH@Z PROC NEAR		; CLhcImg::GetConfigServer

; 105  : {

  00650	55		 push	 ebp
  00651	8b ec		 mov	 ebp, esp

; 106  : 	YL_EncFileReg::GetString( "ConfigServer", "confsvr", szUrl, urllen );

  00653	6a 00		 push	 0
  00655	8b 45 0c	 mov	 eax, DWORD PTR _urllen$[ebp]
  00658	50		 push	 eax
  00659	8b 4d 08	 mov	 ecx, DWORD PTR _szUrl$[ebp]
  0065c	51		 push	 ecx
  0065d	68 00 00 00 00	 push	 OFFSET FLAT:$SG86916
  00662	68 00 00 00 00	 push	 OFFSET FLAT:$SG86917
  00667	e8 00 00 00 00	 call	 ?GetString@YL_EncFileReg@@SAKPBD0PADK0@Z ; YL_EncFileReg::GetString
  0066c	83 c4 14	 add	 esp, 20			; 00000014H

; 107  : 	return true;

  0066f	b0 01		 mov	 al, 1

; 108  : }

  00671	3b ec		 cmp	 ebp, esp
  00673	e8 00 00 00 00	 call	 __RTC_CheckEsp
  00678	5d		 pop	 ebp
  00679	c3		 ret	 0
?GetConfigServer@CLhcImg@@SA_NQADH@Z ENDP		; CLhcImg::GetConfigServer
_TEXT	ENDS
PUBLIC	?GetSoftwareVersion@CLhcImg@@SA_NQADH@Z		; CLhcImg::GetSoftwareVersion
; Function compile flags: /Odt /RTCsu
_TEXT	SEGMENT
_szSoftVersion$ = 8					; size = 4
_verlen$ = 12						; size = 4
?GetSoftwareVersion@CLhcImg@@SA_NQADH@Z PROC NEAR	; CLhcImg::GetSoftwareVersion

; 111  : {

  00680	55		 push	 ebp
  00681	8b ec		 mov	 ebp, esp

; 112  : 	YL_EncFileReg::GetString( "Config", "Version", szSoftVersion, verlen );

  00683	6a 00		 push	 0
  00685	8b 45 0c	 mov	 eax, DWORD PTR _verlen$[ebp]
  00688	50		 push	 eax
  00689	8b 4d 08	 mov	 ecx, DWORD PTR _szSoftVersion$[ebp]
  0068c	51		 push	 ecx
  0068d	68 00 00 00 00	 push	 OFFSET FLAT:$SG86922
  00692	68 00 00 00 00	 push	 OFFSET FLAT:$SG86923
  00697	e8 00 00 00 00	 call	 ?GetString@YL_EncFileReg@@SAKPBD0PADK0@Z ; YL_EncFileReg::GetString
  0069c	83 c4 14	 add	 esp, 20			; 00000014H

; 113  : 	return true;

  0069f	b0 01		 mov	 al, 1

; 114  : }

  006a1	3b ec		 cmp	 ebp, esp
  006a3	e8 00 00 00 00	 call	 __RTC_CheckEsp
  006a8	5d		 pop	 ebp
  006a9	c3		 ret	 0
?GetSoftwareVersion@CLhcImg@@SA_NQADH@Z ENDP		; CLhcImg::GetSoftwareVersion
_TEXT	ENDS
PUBLIC	?GetLogFilePath@CLhcImg@@SA_NQADH@Z		; CLhcImg::GetLogFilePath
; Function compile flags: /Odt /RTCsu
_TEXT	SEGMENT
_dir$ = -268						; size = 260
__$ArrayPad$ = -4					; size = 4
__$ReturnAddr$ = 4					; size = 4
_szFilePath$ = 8					; size = 4
_pathlen$ = 12						; size = 4
?GetLogFilePath@CLhcImg@@SA_NQADH@Z PROC NEAR		; CLhcImg::GetLogFilePath

; 117  : {

  006b0	55		 push	 ebp
  006b1	8b ec		 mov	 ebp, esp
  006b3	81 ec 10 01 00
	00		 sub	 esp, 272		; 00000110H
  006b9	56		 push	 esi
  006ba	57		 push	 edi
  006bb	8d bd f0 fe ff
	ff		 lea	 edi, DWORD PTR [ebp-272]
  006c1	b9 44 00 00 00	 mov	 ecx, 68			; 00000044H
  006c6	b8 cc cc cc cc	 mov	 eax, -858993460		; ccccccccH
  006cb	f3 ab		 rep stosd
  006cd	a1 00 00 00 00	 mov	 eax, DWORD PTR ___security_cookie
  006d2	89 45 fc	 mov	 DWORD PTR __$ArrayPad$[ebp], eax

; 118  : 	char dir[MAX_PATH];
; 119  : 	memset(szFilePath, 0, pathlen);

  006d5	8b 45 0c	 mov	 eax, DWORD PTR _pathlen$[ebp]
  006d8	50		 push	 eax
  006d9	6a 00		 push	 0
  006db	8b 4d 08	 mov	 ecx, DWORD PTR _szFilePath$[ebp]
  006de	51		 push	 ecx
  006df	e8 00 00 00 00	 call	 _memset
  006e4	83 c4 0c	 add	 esp, 12			; 0000000cH

; 120  : 	if(!GetHomePath(dir, MAX_PATH))

  006e7	68 04 01 00 00	 push	 260			; 00000104H
  006ec	8d 95 f4 fe ff
	ff		 lea	 edx, DWORD PTR _dir$[ebp]
  006f2	52		 push	 edx
  006f3	e8 00 00 00 00	 call	 ?GetHomePath@CLhcImg@@SA_NQADH@Z ; CLhcImg::GetHomePath
  006f8	83 c4 08	 add	 esp, 8
  006fb	0f b6 c0	 movzx	 eax, al
  006fe	85 c0		 test	 eax, eax
  00700	75 04		 jne	 SHORT $L86929

; 121  : 	{
; 122  : 		return false;

  00702	32 c0		 xor	 al, al
  00704	eb 30		 jmp	 SHORT $L86927
$L86929:

; 123  : 	}
; 124  : 	_snprintf(szFilePath, pathlen-1, "%s%s", dir, "\\log\\act.log");

  00706	8b f4		 mov	 esi, esp
  00708	68 00 00 00 00	 push	 OFFSET FLAT:$SG86930
  0070d	8d 8d f4 fe ff
	ff		 lea	 ecx, DWORD PTR _dir$[ebp]
  00713	51		 push	 ecx
  00714	68 00 00 00 00	 push	 OFFSET FLAT:$SG86931
  00719	8b 55 0c	 mov	 edx, DWORD PTR _pathlen$[ebp]
  0071c	83 ea 01	 sub	 edx, 1
  0071f	52		 push	 edx
  00720	8b 45 08	 mov	 eax, DWORD PTR _szFilePath$[ebp]
  00723	50		 push	 eax
  00724	ff 15 00 00 00
	00		 call	 DWORD PTR __imp___snprintf
  0072a	83 c4 14	 add	 esp, 20			; 00000014H
  0072d	3b f4		 cmp	 esi, esp
  0072f	e8 00 00 00 00	 call	 __RTC_CheckEsp

; 125  : 	return true;

  00734	b0 01		 mov	 al, 1
$L86927:

; 126  : }

  00736	52		 push	 edx
  00737	8b cd		 mov	 ecx, ebp
  00739	50		 push	 eax
  0073a	8d 15 00 00 00
	00		 lea	 edx, DWORD PTR $L93100
  00740	e8 00 00 00 00	 call	 @_RTC_CheckStackVars@8
  00745	58		 pop	 eax
  00746	5a		 pop	 edx
  00747	8b 4d fc	 mov	 ecx, DWORD PTR __$ArrayPad$[ebp]
  0074a	e8 00 00 00 00	 call	 @__security_check_cookie@4
  0074f	5f		 pop	 edi
  00750	5e		 pop	 esi
  00751	81 c4 10 01 00
	00		 add	 esp, 272		; 00000110H
  00757	3b ec		 cmp	 ebp, esp
  00759	e8 00 00 00 00	 call	 __RTC_CheckEsp
  0075e	8b e5		 mov	 esp, ebp
  00760	5d		 pop	 ebp
  00761	c3		 ret	 0
$L93100:
  00762	01 00 00 00	 DD	 1
  00766	00 00 00 00	 DD	 $L93099
$L93099:
  0076a	f4 fe ff ff	 DD	 -268			; fffffef4H
  0076e	04 01 00 00	 DD	 260			; 00000104H
  00772	00 00 00 00	 DD	 $L93097
$L93097:
  00776	64		 DB	 100			; 00000064H
  00777	69		 DB	 105			; 00000069H
  00778	72		 DB	 114			; 00000072H
  00779	00		 DB	 0
?GetLogFilePath@CLhcImg@@SA_NQADH@Z ENDP		; CLhcImg::GetLogFilePath
_TEXT	ENDS
PUBLIC	?GetUserID@CLhcImg@@SA_NQADH@Z			; CLhcImg::GetUserID
EXTRN	?GetUserID@YL_UserId@@SA_NQADH@Z:NEAR		; YL_UserId::GetUserID
; Function compile flags: /Odt /RTCsu
_TEXT	SEGMENT
_szID$ = 8						; size = 4
_idlen$ = 12						; size = 4
?GetUserID@CLhcImg@@SA_NQADH@Z PROC NEAR		; CLhcImg::GetUserID

; 129  : {

  00780	55		 push	 ebp
  00781	8b ec		 mov	 ebp, esp

; 130  : 	return YL_UserId::GetUserID(szID, idlen);

  00783	8b 45 0c	 mov	 eax, DWORD PTR _idlen$[ebp]
  00786	50		 push	 eax
  00787	8b 4d 08	 mov	 ecx, DWORD PTR _szID$[ebp]
  0078a	51		 push	 ecx
  0078b	e8 00 00 00 00	 call	 ?GetUserID@YL_UserId@@SA_NQADH@Z ; YL_UserId::GetUserID
  00790	83 c4 08	 add	 esp, 8

; 131  : }

  00793	3b ec		 cmp	 ebp, esp
  00795	e8 00 00 00 00	 call	 __RTC_CheckEsp
  0079a	5d		 pop	 ebp
  0079b	c3		 ret	 0
?GetUserID@CLhcImg@@SA_NQADH@Z ENDP			; CLhcImg::GetUserID
_TEXT	ENDS
PUBLIC	?GetInstallSRC@CLhcImg@@SA_NQADH@Z		; CLhcImg::GetInstallSRC
EXTRN	?GetInstallSRC@YL_UserId@@SA_NQADH@Z:NEAR	; YL_UserId::GetInstallSRC
; Function compile flags: /Odt /RTCsu
_TEXT	SEGMENT
_szSRC$ = 8						; size = 4
_srclen$ = 12						; size = 4
?GetInstallSRC@CLhcImg@@SA_NQADH@Z PROC NEAR		; CLhcImg::GetInstallSRC

; 134  : {

  007a0	55		 push	 ebp
  007a1	8b ec		 mov	 ebp, esp

; 135  : 	return YL_UserId::GetInstallSRC(szSRC, srclen);

  007a3	8b 45 0c	 mov	 eax, DWORD PTR _srclen$[ebp]
  007a6	50		 push	 eax
  007a7	8b 4d 08	 mov	 ecx, DWORD PTR _szSRC$[ebp]
  007aa	51		 push	 ecx
  007ab	e8 00 00 00 00	 call	 ?GetInstallSRC@YL_UserId@@SA_NQADH@Z ; YL_UserId::GetInstallSRC
  007b0	83 c4 08	 add	 esp, 8

; 136  : }

  007b3	3b ec		 cmp	 ebp, esp
  007b5	e8 00 00 00 00	 call	 __RTC_CheckEsp
  007ba	5d		 pop	 ebp
  007bb	c3		 ret	 0
?GetInstallSRC@CLhcImg@@SA_NQADH@Z ENDP			; CLhcImg::GetInstallSRC
_TEXT	ENDS
PUBLIC	?GetAdDataServer@CLhcImg@@SA_NAAV?$basic_string@DU?$char_traits@D@std@@V?$allocator@D@2@@std@@@Z ; CLhcImg::GetAdDataServer
EXTRN	__imp_??4?$basic_string@DU?$char_traits@D@std@@V?$allocator@D@2@@std@@QAEAAV01@PBD@Z:NEAR
; Function compile flags: /Odt /RTCsu
_TEXT	SEGMENT
_szAdDataSvr$ = -268					; size = 260
__$ArrayPad$ = -4					; size = 4
__$ReturnAddr$ = 4					; size = 4
_strSvr$ = 8						; size = 4
?GetAdDataServer@CLhcImg@@SA_NAAV?$basic_string@DU?$char_traits@D@std@@V?$allocator@D@2@@std@@@Z PROC NEAR ; CLhcImg::GetAdDataServer

; 139  : {

  007c0	55		 push	 ebp
  007c1	8b ec		 mov	 ebp, esp
  007c3	81 ec 10 01 00
	00		 sub	 esp, 272		; 00000110H
  007c9	56		 push	 esi
  007ca	57		 push	 edi
  007cb	8d bd f0 fe ff
	ff		 lea	 edi, DWORD PTR [ebp-272]
  007d1	b9 44 00 00 00	 mov	 ecx, 68			; 00000044H
  007d6	b8 cc cc cc cc	 mov	 eax, -858993460		; ccccccccH
  007db	f3 ab		 rep stosd
  007dd	a1 00 00 00 00	 mov	 eax, DWORD PTR ___security_cookie
  007e2	89 45 fc	 mov	 DWORD PTR __$ArrayPad$[ebp], eax

; 140  : 	char szAdDataSvr[MAX_PATH];
; 141  : 	memset(szAdDataSvr, 0, MAX_PATH);

  007e5	68 04 01 00 00	 push	 260			; 00000104H
  007ea	6a 00		 push	 0
  007ec	8d 85 f4 fe ff
	ff		 lea	 eax, DWORD PTR _szAdDataSvr$[ebp]
  007f2	50		 push	 eax
  007f3	e8 00 00 00 00	 call	 _memset
  007f8	83 c4 0c	 add	 esp, 12			; 0000000cH

; 142  : 	YL_EncFileReg::GetString( "ADDataSvr", "ADDataServer", szAdDataSvr, MAX_PATH );

  007fb	6a 00		 push	 0
  007fd	68 04 01 00 00	 push	 260			; 00000104H
  00802	8d 8d f4 fe ff
	ff		 lea	 ecx, DWORD PTR _szAdDataSvr$[ebp]
  00808	51		 push	 ecx
  00809	68 00 00 00 00	 push	 OFFSET FLAT:$SG86944
  0080e	68 00 00 00 00	 push	 OFFSET FLAT:$SG86945
  00813	e8 00 00 00 00	 call	 ?GetString@YL_EncFileReg@@SAKPBD0PADK0@Z ; YL_EncFileReg::GetString
  00818	83 c4 14	 add	 esp, 20			; 00000014H

; 143  : 	strSvr = szAdDataSvr;

  0081b	8b f4		 mov	 esi, esp
  0081d	8d 95 f4 fe ff
	ff		 lea	 edx, DWORD PTR _szAdDataSvr$[ebp]
  00823	52		 push	 edx
  00824	8b 4d 08	 mov	 ecx, DWORD PTR _strSvr$[ebp]
  00827	ff 15 00 00 00
	00		 call	 DWORD PTR __imp_??4?$basic_string@DU?$char_traits@D@std@@V?$allocator@D@2@@std@@QAEAAV01@PBD@Z
  0082d	3b f4		 cmp	 esi, esp
  0082f	e8 00 00 00 00	 call	 __RTC_CheckEsp

; 144  : 	return true;

  00834	b0 01		 mov	 al, 1

; 145  : }

  00836	52		 push	 edx
  00837	8b cd		 mov	 ecx, ebp
  00839	50		 push	 eax
  0083a	8d 15 00 00 00
	00		 lea	 edx, DWORD PTR $L93108
  00840	e8 00 00 00 00	 call	 @_RTC_CheckStackVars@8
  00845	58		 pop	 eax
  00846	5a		 pop	 edx
  00847	8b 4d fc	 mov	 ecx, DWORD PTR __$ArrayPad$[ebp]
  0084a	e8 00 00 00 00	 call	 @__security_check_cookie@4
  0084f	5f		 pop	 edi
  00850	5e		 pop	 esi
  00851	81 c4 10 01 00
	00		 add	 esp, 272		; 00000110H
  00857	3b ec		 cmp	 ebp, esp
  00859	e8 00 00 00 00	 call	 __RTC_CheckEsp
  0085e	8b e5		 mov	 esp, ebp
  00860	5d		 pop	 ebp
  00861	c3		 ret	 0
$L93108:
  00862	01 00 00 00	 DD	 1
  00866	00 00 00 00	 DD	 $L93107
$L93107:
  0086a	f4 fe ff ff	 DD	 -268			; fffffef4H
  0086e	04 01 00 00	 DD	 260			; 00000104H
  00872	00 00 00 00	 DD	 $L93105
$L93105:
  00876	73		 DB	 115			; 00000073H
  00877	7a		 DB	 122			; 0000007aH
  00878	41		 DB	 65			; 00000041H
  00879	64		 DB	 100			; 00000064H
  0087a	44		 DB	 68			; 00000044H
  0087b	61		 DB	 97			; 00000061H
  0087c	74		 DB	 116			; 00000074H
  0087d	61		 DB	 97			; 00000061H
  0087e	53		 DB	 83			; 00000053H
  0087f	76		 DB	 118			; 00000076H
  00880	72		 DB	 114			; 00000072H
  00881	00		 DB	 0
?GetAdDataServer@CLhcImg@@SA_NAAV?$basic_string@DU?$char_traits@D@std@@V?$allocator@D@2@@std@@@Z ENDP ; CLhcImg::GetAdDataServer
_TEXT	ENDS
PUBLIC	?CheckUpdateADData@CLhcImg@@SA_NXZ		; CLhcImg::CheckUpdateADData
EXTRN	?GetTickCount@CTime@ATL@@SG?AV12@XZ:NEAR	; ATL::CTime::GetTickCount
EXTRN	??0CTime@ATL@@QAE@XZ:NEAR			; ATL::CTime::CTime
EXTRN	?GetYear@CTime@ATL@@QBEHXZ:NEAR			; ATL::CTime::GetYear
EXTRN	?GetMonth@CTime@ATL@@QBEHXZ:NEAR		; ATL::CTime::GetMonth
EXTRN	?GetDay@CTime@ATL@@QBEHXZ:NEAR			; ATL::CTime::GetDay
EXTRN	?ReadDWORD@YL_EncFileReg@@SA_NPAUHKEY__@@PBD1AAI@Z:NEAR ; YL_EncFileReg::ReadDWORD
; Function compile flags: /Odt /RTCsu
_TEXT	SEGMENT
$T93110 = -40						; size = 8
_tm$ = -28						; size = 8
_dwCurDate$ = -16					; size = 4
_dwDate$ = -8						; size = 4
?CheckUpdateADData@CLhcImg@@SA_NXZ PROC NEAR		; CLhcImg::CheckUpdateADData

; 148  : {

  00890	55		 push	 ebp
  00891	8b ec		 mov	 ebp, esp
  00893	83 ec 28	 sub	 esp, 40			; 00000028H
  00896	56		 push	 esi
  00897	57		 push	 edi
  00898	8d 7d d8	 lea	 edi, DWORD PTR [ebp-40]
  0089b	b9 0a 00 00 00	 mov	 ecx, 10			; 0000000aH
  008a0	b8 cc cc cc cc	 mov	 eax, -858993460		; ccccccccH
  008a5	f3 ab		 rep stosd

; 149  : 	unsigned int dwDate, dwCurDate;
; 150  : 	if(!YL_EncFileReg::ReadDWORD(HKEY_PLAYBOX_ROOT, STR_REG_UPDATE, "AD_DATE", dwDate))

  008a7	8d 45 f8	 lea	 eax, DWORD PTR _dwDate$[ebp]
  008aa	50		 push	 eax
  008ab	68 00 00 00 00	 push	 OFFSET FLAT:$SG86954
  008b0	8b 0d 00 00 00
	00		 mov	 ecx, DWORD PTR _STR_REG_UPDATE
  008b6	51		 push	 ecx
  008b7	68 02 00 00 80	 push	 -2147483646		; 80000002H
  008bc	e8 00 00 00 00	 call	 ?ReadDWORD@YL_EncFileReg@@SA_NPAUHKEY__@@PBD1AAI@Z ; YL_EncFileReg::ReadDWORD
  008c1	83 c4 10	 add	 esp, 16			; 00000010H
  008c4	0f b6 d0	 movzx	 edx, al
  008c7	85 d2		 test	 edx, edx
  008c9	75 04		 jne	 SHORT $L86953

; 151  : 		return true;

  008cb	b0 01		 mov	 al, 1
  008cd	eb 54		 jmp	 SHORT $L86947
$L86953:

; 152  : 
; 153  : 	CTime tm;

  008cf	8d 4d e4	 lea	 ecx, DWORD PTR _tm$[ebp]
  008d2	e8 00 00 00 00	 call	 ??0CTime@ATL@@QAE@XZ	; ATL::CTime::CTime

; 154  : 	tm=CTime::GetCurrentTime();

  008d7	8d 45 d8	 lea	 eax, DWORD PTR $T93110[ebp]
  008da	50		 push	 eax
  008db	e8 00 00 00 00	 call	 ?GetTickCount@CTime@ATL@@SG?AV12@XZ ; ATL::CTime::GetTickCount
  008e0	8b 08		 mov	 ecx, DWORD PTR [eax]
  008e2	8b 50 04	 mov	 edx, DWORD PTR [eax+4]
  008e5	89 4d e4	 mov	 DWORD PTR _tm$[ebp], ecx
  008e8	89 55 e8	 mov	 DWORD PTR _tm$[ebp+4], edx

; 155  : 	dwCurDate = tm.GetYear()*10000+tm.GetMonth()*100+tm.GetDay();

  008eb	8d 4d e4	 lea	 ecx, DWORD PTR _tm$[ebp]
  008ee	e8 00 00 00 00	 call	 ?GetYear@CTime@ATL@@QBEHXZ ; ATL::CTime::GetYear
  008f3	8b f0		 mov	 esi, eax
  008f5	69 f6 10 27 00
	00		 imul	 esi, 10000		; 00002710H
  008fb	8d 4d e4	 lea	 ecx, DWORD PTR _tm$[ebp]
  008fe	e8 00 00 00 00	 call	 ?GetMonth@CTime@ATL@@QBEHXZ ; ATL::CTime::GetMonth
  00903	6b c0 64	 imul	 eax, 100		; 00000064H
  00906	03 f0		 add	 esi, eax
  00908	8d 4d e4	 lea	 ecx, DWORD PTR _tm$[ebp]
  0090b	e8 00 00 00 00	 call	 ?GetDay@CTime@ATL@@QBEHXZ ; ATL::CTime::GetDay
  00910	03 f0		 add	 esi, eax
  00912	89 75 f0	 mov	 DWORD PTR _dwCurDate$[ebp], esi

; 156  : 	if (dwCurDate-dwDate!=0)

  00915	8b 45 f0	 mov	 eax, DWORD PTR _dwCurDate$[ebp]
  00918	2b 45 f8	 sub	 eax, DWORD PTR _dwDate$[ebp]
  0091b	74 04		 je	 SHORT $L86957

; 157  : 		return true;

  0091d	b0 01		 mov	 al, 1
  0091f	eb 02		 jmp	 SHORT $L86947
$L86957:

; 158  : 	return false;

  00921	32 c0		 xor	 al, al
$L86947:

; 159  : }

  00923	52		 push	 edx
  00924	8b cd		 mov	 ecx, ebp
  00926	50		 push	 eax
  00927	8d 15 00 00 00
	00		 lea	 edx, DWORD PTR $L93114
  0092d	e8 00 00 00 00	 call	 @_RTC_CheckStackVars@8
  00932	58		 pop	 eax
  00933	5a		 pop	 edx
  00934	5f		 pop	 edi
  00935	5e		 pop	 esi
  00936	83 c4 28	 add	 esp, 40			; 00000028H
  00939	3b ec		 cmp	 ebp, esp
  0093b	e8 00 00 00 00	 call	 __RTC_CheckEsp
  00940	8b e5		 mov	 esp, ebp
  00942	5d		 pop	 ebp
  00943	c3		 ret	 0
$L93114:
  00944	02 00 00 00	 DD	 2
  00948	00 00 00 00	 DD	 $L93113
$L93113:
  0094c	f8 ff ff ff	 DD	 -8			; fffffff8H
  00950	04 00 00 00	 DD	 4
  00954	00 00 00 00	 DD	 $L93111
  00958	e4 ff ff ff	 DD	 -28			; ffffffe4H
  0095c	08 00 00 00	 DD	 8
  00960	00 00 00 00	 DD	 $L93112
$L93112:
  00964	74		 DB	 116			; 00000074H
  00965	6d		 DB	 109			; 0000006dH
  00966	00		 DB	 0
$L93111:
  00967	64		 DB	 100			; 00000064H
  00968	77		 DB	 119			; 00000077H
  00969	44		 DB	 68			; 00000044H
  0096a	61		 DB	 97			; 00000061H
  0096b	74		 DB	 116			; 00000074H
  0096c	65		 DB	 101			; 00000065H
  0096d	00		 DB	 0
?CheckUpdateADData@CLhcImg@@SA_NXZ ENDP			; CLhcImg::CheckUpdateADData
_TEXT	ENDS
PUBLIC	?SetUpdateADData@CLhcImg@@SA_NXZ		; CLhcImg::SetUpdateADData
EXTRN	?WriteDWORD@YL_EncFileReg@@SA_NPAUHKEY__@@PBD1ABI@Z:NEAR ; YL_EncFileReg::WriteDWORD
; Function compile flags: /Odt /RTCsu
_TEXT	SEGMENT
$T93117 = -32						; size = 4
$T93116 = -28						; size = 8
_dwCurDate$ = -20					; size = 4
_tm$ = -12						; size = 8
?SetUpdateADData@CLhcImg@@SA_NXZ PROC NEAR		; CLhcImg::SetUpdateADData

; 162  : {

  00970	55		 push	 ebp
  00971	8b ec		 mov	 ebp, esp
  00973	83 ec 20	 sub	 esp, 32			; 00000020H
  00976	56		 push	 esi
  00977	b8 cc cc cc cc	 mov	 eax, -858993460		; ccccccccH
  0097c	89 45 e0	 mov	 DWORD PTR [ebp-32], eax
  0097f	89 45 e4	 mov	 DWORD PTR [ebp-28], eax
  00982	89 45 e8	 mov	 DWORD PTR [ebp-24], eax
  00985	89 45 ec	 mov	 DWORD PTR [ebp-20], eax
  00988	89 45 f0	 mov	 DWORD PTR [ebp-16], eax
  0098b	89 45 f4	 mov	 DWORD PTR [ebp-12], eax
  0098e	89 45 f8	 mov	 DWORD PTR [ebp-8], eax
  00991	89 45 fc	 mov	 DWORD PTR [ebp-4], eax

; 163  : 	//
; 164  : 	CTime tm;

  00994	8d 4d f4	 lea	 ecx, DWORD PTR _tm$[ebp]
  00997	e8 00 00 00 00	 call	 ??0CTime@ATL@@QAE@XZ	; ATL::CTime::CTime

; 165  : 	tm=CTime::GetCurrentTime();

  0099c	8d 45 e4	 lea	 eax, DWORD PTR $T93116[ebp]
  0099f	50		 push	 eax
  009a0	e8 00 00 00 00	 call	 ?GetTickCount@CTime@ATL@@SG?AV12@XZ ; ATL::CTime::GetTickCount
  009a5	8b 08		 mov	 ecx, DWORD PTR [eax]
  009a7	8b 50 04	 mov	 edx, DWORD PTR [eax+4]
  009aa	89 4d f4	 mov	 DWORD PTR _tm$[ebp], ecx
  009ad	89 55 f8	 mov	 DWORD PTR _tm$[ebp+4], edx

; 166  : 	DWORD dwCurDate = tm.GetYear()*10000+tm.GetMonth()*100+tm.GetDay();

  009b0	8d 4d f4	 lea	 ecx, DWORD PTR _tm$[ebp]
  009b3	e8 00 00 00 00	 call	 ?GetYear@CTime@ATL@@QBEHXZ ; ATL::CTime::GetYear
  009b8	8b f0		 mov	 esi, eax
  009ba	69 f6 10 27 00
	00		 imul	 esi, 10000		; 00002710H
  009c0	8d 4d f4	 lea	 ecx, DWORD PTR _tm$[ebp]
  009c3	e8 00 00 00 00	 call	 ?GetMonth@CTime@ATL@@QBEHXZ ; ATL::CTime::GetMonth
  009c8	6b c0 64	 imul	 eax, 100		; 00000064H
  009cb	03 f0		 add	 esi, eax
  009cd	8d 4d f4	 lea	 ecx, DWORD PTR _tm$[ebp]
  009d0	e8 00 00 00 00	 call	 ?GetDay@CTime@ATL@@QBEHXZ ; ATL::CTime::GetDay
  009d5	03 f0		 add	 esi, eax
  009d7	89 75 ec	 mov	 DWORD PTR _dwCurDate$[ebp], esi

; 167  : 
; 168  : 	return YL_EncFileReg::WriteDWORD(HKEY_PLAYBOX_ROOT, STR_REG_UPDATE, "AD_DATE", dwCurDate);

  009da	8b 45 ec	 mov	 eax, DWORD PTR _dwCurDate$[ebp]
  009dd	89 45 e0	 mov	 DWORD PTR $T93117[ebp], eax
  009e0	8d 4d e0	 lea	 ecx, DWORD PTR $T93117[ebp]
  009e3	51		 push	 ecx
  009e4	68 00 00 00 00	 push	 OFFSET FLAT:$SG86967
  009e9	8b 15 00 00 00
	00		 mov	 edx, DWORD PTR _STR_REG_UPDATE
  009ef	52		 push	 edx
  009f0	68 02 00 00 80	 push	 -2147483646		; 80000002H
  009f5	e8 00 00 00 00	 call	 ?WriteDWORD@YL_EncFileReg@@SA_NPAUHKEY__@@PBD1ABI@Z ; YL_EncFileReg::WriteDWORD
  009fa	83 c4 10	 add	 esp, 16			; 00000010H

; 169  : }

  009fd	52		 push	 edx
  009fe	8b cd		 mov	 ecx, ebp
  00a00	50		 push	 eax
  00a01	8d 15 00 00 00
	00		 lea	 edx, DWORD PTR $L93120
  00a07	e8 00 00 00 00	 call	 @_RTC_CheckStackVars@8
  00a0c	58		 pop	 eax
  00a0d	5a		 pop	 edx
  00a0e	5e		 pop	 esi
  00a0f	83 c4 20	 add	 esp, 32			; 00000020H
  00a12	3b ec		 cmp	 ebp, esp
  00a14	e8 00 00 00 00	 call	 __RTC_CheckEsp
  00a19	8b e5		 mov	 esp, ebp
  00a1b	5d		 pop	 ebp
  00a1c	c3		 ret	 0
$L93120:
  00a1d	01 00 00 00	 DD	 1
  00a21	00 00 00 00	 DD	 $L93119
$L93119:
  00a25	f4 ff ff ff	 DD	 -12			; fffffff4H
  00a29	08 00 00 00	 DD	 8
  00a2d	00 00 00 00	 DD	 $L93118
$L93118:
  00a31	74		 DB	 116			; 00000074H
  00a32	6d		 DB	 109			; 0000006dH
  00a33	00		 DB	 0
?SetUpdateADData@CLhcImg@@SA_NXZ ENDP			; CLhcImg::SetUpdateADData
_TEXT	ENDS
PUBLIC	?GetUpdateTipsDelay@CLhcImg@@SAHXZ		; CLhcImg::GetUpdateTipsDelay
EXTRN	__imp__atoi:NEAR
; Function compile flags: /Odt /RTCsu
_TEXT	SEGMENT
_nRet$ = -276						; size = 4
_szText$ = -268						; size = 260
__$ArrayPad$ = -4					; size = 4
__$ReturnAddr$ = 4					; size = 4
?GetUpdateTipsDelay@CLhcImg@@SAHXZ PROC NEAR		; CLhcImg::GetUpdateTipsDelay

; 172  : {

  00a40	55		 push	 ebp
  00a41	8b ec		 mov	 ebp, esp
  00a43	81 ec 14 01 00
	00		 sub	 esp, 276		; 00000114H
  00a49	56		 push	 esi
  00a4a	57		 push	 edi
  00a4b	8d bd ec fe ff
	ff		 lea	 edi, DWORD PTR [ebp-276]
  00a51	b9 45 00 00 00	 mov	 ecx, 69			; 00000045H
  00a56	b8 cc cc cc cc	 mov	 eax, -858993460		; ccccccccH
  00a5b	f3 ab		 rep stosd
  00a5d	a1 00 00 00 00	 mov	 eax, DWORD PTR ___security_cookie
  00a62	89 45 fc	 mov	 DWORD PTR __$ArrayPad$[ebp], eax

; 173  : 	char szText[MAX_PATH];
; 174  : 	memset(szText, 0, MAX_PATH);

  00a65	68 04 01 00 00	 push	 260			; 00000104H
  00a6a	6a 00		 push	 0
  00a6c	8d 85 f4 fe ff
	ff		 lea	 eax, DWORD PTR _szText$[ebp]
  00a72	50		 push	 eax
  00a73	e8 00 00 00 00	 call	 _memset
  00a78	83 c4 0c	 add	 esp, 12			; 0000000cH

; 175  : 	YL_EncFileReg::GetString( "UpdateTips", "delay", szText, MAX_PATH );

  00a7b	6a 00		 push	 0
  00a7d	68 04 01 00 00	 push	 260			; 00000104H
  00a82	8d 8d f4 fe ff
	ff		 lea	 ecx, DWORD PTR _szText$[ebp]
  00a88	51		 push	 ecx
  00a89	68 00 00 00 00	 push	 OFFSET FLAT:$SG86971
  00a8e	68 00 00 00 00	 push	 OFFSET FLAT:$SG86972
  00a93	e8 00 00 00 00	 call	 ?GetString@YL_EncFileReg@@SAKPBD0PADK0@Z ; YL_EncFileReg::GetString
  00a98	83 c4 14	 add	 esp, 20			; 00000014H

; 176  : 	int nRet = (int)atoi(szText);

  00a9b	8b f4		 mov	 esi, esp
  00a9d	8d 95 f4 fe ff
	ff		 lea	 edx, DWORD PTR _szText$[ebp]
  00aa3	52		 push	 edx
  00aa4	ff 15 00 00 00
	00		 call	 DWORD PTR __imp__atoi
  00aaa	83 c4 04	 add	 esp, 4
  00aad	3b f4		 cmp	 esi, esp
  00aaf	e8 00 00 00 00	 call	 __RTC_CheckEsp
  00ab4	89 85 ec fe ff
	ff		 mov	 DWORD PTR _nRet$[ebp], eax

; 177  : 	return nRet;

  00aba	8b 85 ec fe ff
	ff		 mov	 eax, DWORD PTR _nRet$[ebp]

; 178  : }

  00ac0	52		 push	 edx
  00ac1	8b cd		 mov	 ecx, ebp
  00ac3	50		 push	 eax
  00ac4	8d 15 00 00 00
	00		 lea	 edx, DWORD PTR $L93126
  00aca	e8 00 00 00 00	 call	 @_RTC_CheckStackVars@8
  00acf	58		 pop	 eax
  00ad0	5a		 pop	 edx
  00ad1	8b 4d fc	 mov	 ecx, DWORD PTR __$ArrayPad$[ebp]
  00ad4	e8 00 00 00 00	 call	 @__security_check_cookie@4
  00ad9	5f		 pop	 edi
  00ada	5e		 pop	 esi
  00adb	81 c4 14 01 00
	00		 add	 esp, 276		; 00000114H
  00ae1	3b ec		 cmp	 ebp, esp
  00ae3	e8 00 00 00 00	 call	 __RTC_CheckEsp
  00ae8	8b e5		 mov	 esp, ebp
  00aea	5d		 pop	 ebp
  00aeb	c3		 ret	 0
$L93126:
  00aec	01 00 00 00	 DD	 1
  00af0	00 00 00 00	 DD	 $L93125
$L93125:
  00af4	f4 fe ff ff	 DD	 -268			; fffffef4H
  00af8	04 01 00 00	 DD	 260			; 00000104H
  00afc	00 00 00 00	 DD	 $L93123
$L93123:
  00b00	73		 DB	 115			; 00000073H
  00b01	7a		 DB	 122			; 0000007aH
  00b02	54		 DB	 84			; 00000054H
  00b03	65		 DB	 101			; 00000065H
  00b04	78		 DB	 120			; 00000078H
  00b05	74		 DB	 116			; 00000074H
  00b06	00		 DB	 0
?GetUpdateTipsDelay@CLhcImg@@SAHXZ ENDP			; CLhcImg::GetUpdateTipsDelay
; Function compile flags: /Odt /RTCsu
; File d:\program files (x86)\microsoft visual studio .net 2003\vc7\atlmfc\include\atlalloc.h
_TEXT	ENDS
;	COMDAT ??0?$CAtlSafeAllocBufferManager@VCCRTAllocator@ATL@@@_ATL_SAFE_ALLOCA_IMPL@ATL@@QAE@XZ
_TEXT	SEGMENT
_this$ = -4						; size = 4
??0?$CAtlSafeAllocBufferManager@VCCRTAllocator@ATL@@@_ATL_SAFE_ALLOCA_IMPL@ATL@@QAE@XZ PROC NEAR ; ATL::_ATL_SAFE_ALLOCA_IMPL::CAtlSafeAllocBufferManager<ATL::CCRTAllocator>::CAtlSafeAllocBufferManager<ATL::CCRTAllocator>, COMDAT
; _this$ = ecx

; 373  : 	CAtlSafeAllocBufferManager() : m_pHead(NULL) {};

  00000	55		 push	 ebp
  00001	8b ec		 mov	 ebp, esp
  00003	51		 push	 ecx
  00004	c7 45 fc cc cc
	cc cc		 mov	 DWORD PTR [ebp-4], -858993460 ; ccccccccH
  0000b	89 4d fc	 mov	 DWORD PTR _this$[ebp], ecx
  0000e	8b 45 fc	 mov	 eax, DWORD PTR _this$[ebp]
  00011	c7 00 00 00 00
	00		 mov	 DWORD PTR [eax], 0
  00017	8b 45 fc	 mov	 eax, DWORD PTR _this$[ebp]
  0001a	8b e5		 mov	 esp, ebp
  0001c	5d		 pop	 ebp
  0001d	c3		 ret	 0
??0?$CAtlSafeAllocBufferManager@VCCRTAllocator@ATL@@@_ATL_SAFE_ALLOCA_IMPL@ATL@@QAE@XZ ENDP ; ATL::_ATL_SAFE_ALLOCA_IMPL::CAtlSafeAllocBufferManager<ATL::CCRTAllocator>::CAtlSafeAllocBufferManager<ATL::CCRTAllocator>
_TEXT	ENDS
PUBLIC	?GetData@CAtlSafeAllocBufferNode@?$CAtlSafeAllocBufferManager@VCCRTAllocator@ATL@@@_ATL_SAFE_ALLOCA_IMPL@ATL@@QAEPAXXZ ; ATL::_ATL_SAFE_ALLOCA_IMPL::CAtlSafeAllocBufferManager<ATL::CCRTAllocator>::CAtlSafeAllocBufferNode::GetData
PUBLIC	?Allocate@CCRTAllocator@ATL@@SAPAXI@Z		; ATL::CCRTAllocator::Allocate
; Function compile flags: /Odt /RTCsu
;	COMDAT ?Allocate@?$CAtlSafeAllocBufferManager@VCCRTAllocator@ATL@@@_ATL_SAFE_ALLOCA_IMPL@ATL@@QAEPAXK@Z
_TEXT	SEGMENT
_p$ = -8						; size = 4
_this$ = -4						; size = 4
_nRequestedSize$ = 8					; size = 4
?Allocate@?$CAtlSafeAllocBufferManager@VCCRTAllocator@ATL@@@_ATL_SAFE_ALLOCA_IMPL@ATL@@QAEPAXK@Z PROC NEAR ; ATL::_ATL_SAFE_ALLOCA_IMPL::CAtlSafeAllocBufferManager<ATL::CCRTAllocator>::Allocate, COMDAT
; _this$ = ecx

; 375  : 	{

  00000	55		 push	 ebp
  00001	8b ec		 mov	 ebp, esp
  00003	83 ec 08	 sub	 esp, 8
  00006	c7 45 f8 cc cc
	cc cc		 mov	 DWORD PTR [ebp-8], -858993460 ; ccccccccH
  0000d	c7 45 fc cc cc
	cc cc		 mov	 DWORD PTR [ebp-4], -858993460 ; ccccccccH
  00014	89 4d fc	 mov	 DWORD PTR _this$[ebp], ecx

; 376  : 		CAtlSafeAllocBufferNode *p = (CAtlSafeAllocBufferNode*)Allocator::Allocate(nRequestedSize + sizeof(CAtlSafeAllocBufferNode));

  00017	8b 45 08	 mov	 eax, DWORD PTR _nRequestedSize$[ebp]
  0001a	83 c0 08	 add	 eax, 8
  0001d	50		 push	 eax
  0001e	e8 00 00 00 00	 call	 ?Allocate@CCRTAllocator@ATL@@SAPAXI@Z ; ATL::CCRTAllocator::Allocate
  00023	83 c4 04	 add	 esp, 4
  00026	89 45 f8	 mov	 DWORD PTR _p$[ebp], eax

; 377  : 		if (p == NULL)

  00029	83 7d f8 00	 cmp	 DWORD PTR _p$[ebp], 0
  0002d	75 04		 jne	 SHORT $L88217

; 378  : 			return NULL;

  0002f	33 c0		 xor	 eax, eax
  00031	eb 1a		 jmp	 SHORT $L88204
$L88217:

; 379  : 		
; 380  : 		// Add buffer to the list
; 381  : 		p->m_pNext = m_pHead;

  00033	8b 4d f8	 mov	 ecx, DWORD PTR _p$[ebp]
  00036	8b 55 fc	 mov	 edx, DWORD PTR _this$[ebp]
  00039	8b 02		 mov	 eax, DWORD PTR [edx]
  0003b	89 01		 mov	 DWORD PTR [ecx], eax

; 382  : 		m_pHead = p;

  0003d	8b 4d fc	 mov	 ecx, DWORD PTR _this$[ebp]
  00040	8b 55 f8	 mov	 edx, DWORD PTR _p$[ebp]
  00043	89 11		 mov	 DWORD PTR [ecx], edx

; 383  : 		
; 384  : 		return p->GetData();

  00045	8b 4d f8	 mov	 ecx, DWORD PTR _p$[ebp]
  00048	e8 00 00 00 00	 call	 ?GetData@CAtlSafeAllocBufferNode@?$CAtlSafeAllocBufferManager@VCCRTAllocator@ATL@@@_ATL_SAFE_ALLOCA_IMPL@ATL@@QAEPAXXZ ; ATL::_ATL_SAFE_ALLOCA_IMPL::CAtlSafeAllocBufferManager<ATL::CCRTAllocator>::CAtlSafeAllocBufferNode::GetData
$L88204:

; 385  : 	}

  0004d	83 c4 08	 add	 esp, 8
  00050	3b ec		 cmp	 ebp, esp
  00052	e8 00 00 00 00	 call	 __RTC_CheckEsp
  00057	8b e5		 mov	 esp, ebp
  00059	5d		 pop	 ebp
  0005a	c2 04 00	 ret	 4
?Allocate@?$CAtlSafeAllocBufferManager@VCCRTAllocator@ATL@@@_ATL_SAFE_ALLOCA_IMPL@ATL@@QAEPAXK@Z ENDP ; ATL::_ATL_SAFE_ALLOCA_IMPL::CAtlSafeAllocBufferManager<ATL::CCRTAllocator>::Allocate
_TEXT	ENDS
EXTRN	__imp__malloc:NEAR
; Function compile flags: /Odt /RTCsu
;	COMDAT ?Allocate@CCRTAllocator@ATL@@SAPAXI@Z
_TEXT	SEGMENT
_nBytes$ = 8						; size = 4
?Allocate@CCRTAllocator@ATL@@SAPAXI@Z PROC NEAR		; ATL::CCRTAllocator::Allocate, COMDAT

; 30   : 	{

  00000	55		 push	 ebp
  00001	8b ec		 mov	 ebp, esp
  00003	56		 push	 esi

; 31   : 		return malloc(nBytes);

  00004	8b f4		 mov	 esi, esp
  00006	8b 45 08	 mov	 eax, DWORD PTR _nBytes$[ebp]
  00009	50		 push	 eax
  0000a	ff 15 00 00 00
	00		 call	 DWORD PTR __imp__malloc
  00010	83 c4 04	 add	 esp, 4
  00013	3b f4		 cmp	 esi, esp
  00015	e8 00 00 00 00	 call	 __RTC_CheckEsp

; 32   : 	}

  0001a	5e		 pop	 esi
  0001b	3b ec		 cmp	 ebp, esp
  0001d	e8 00 00 00 00	 call	 __RTC_CheckEsp
  00022	5d		 pop	 ebp
  00023	c3		 ret	 0
?Allocate@CCRTAllocator@ATL@@SAPAXI@Z ENDP		; ATL::CCRTAllocator::Allocate
_TEXT	ENDS
PUBLIC	?Free@CCRTAllocator@ATL@@SAXPAX@Z		; ATL::CCRTAllocator::Free
; Function compile flags: /Odt /RTCsu
;	COMDAT ??1?$CAtlSafeAllocBufferManager@VCCRTAllocator@ATL@@@_ATL_SAFE_ALLOCA_IMPL@ATL@@QAE@XZ
_TEXT	SEGMENT
_p$88223 = -8						; size = 4
_this$ = -4						; size = 4
??1?$CAtlSafeAllocBufferManager@VCCRTAllocator@ATL@@@_ATL_SAFE_ALLOCA_IMPL@ATL@@QAE@XZ PROC NEAR ; ATL::_ATL_SAFE_ALLOCA_IMPL::CAtlSafeAllocBufferManager<ATL::CCRTAllocator>::~CAtlSafeAllocBufferManager<ATL::CCRTAllocator>, COMDAT
; _this$ = ecx

; 387  : 	{

  00000	55		 push	 ebp
  00001	8b ec		 mov	 ebp, esp
  00003	83 ec 08	 sub	 esp, 8
  00006	c7 45 f8 cc cc
	cc cc		 mov	 DWORD PTR [ebp-8], -858993460 ; ccccccccH
  0000d	c7 45 fc cc cc
	cc cc		 mov	 DWORD PTR [ebp-4], -858993460 ; ccccccccH
  00014	89 4d fc	 mov	 DWORD PTR _this$[ebp], ecx
$L88221:

; 388  : 		// Walk the list and free the buffers
; 389  : 		while (m_pHead != NULL)

  00017	8b 45 fc	 mov	 eax, DWORD PTR _this$[ebp]
  0001a	83 38 00	 cmp	 DWORD PTR [eax], 0
  0001d	74 22		 je	 SHORT $L88219

; 390  : 		{
; 391  : 			CAtlSafeAllocBufferNode* p = m_pHead;

  0001f	8b 4d fc	 mov	 ecx, DWORD PTR _this$[ebp]
  00022	8b 11		 mov	 edx, DWORD PTR [ecx]
  00024	89 55 f8	 mov	 DWORD PTR _p$88223[ebp], edx

; 392  : 			m_pHead = m_pHead->m_pNext;

  00027	8b 45 fc	 mov	 eax, DWORD PTR _this$[ebp]
  0002a	8b 08		 mov	 ecx, DWORD PTR [eax]
  0002c	8b 55 fc	 mov	 edx, DWORD PTR _this$[ebp]
  0002f	8b 01		 mov	 eax, DWORD PTR [ecx]
  00031	89 02		 mov	 DWORD PTR [edx], eax

; 393  : 			Allocator::Free(p);

  00033	8b 4d f8	 mov	 ecx, DWORD PTR _p$88223[ebp]
  00036	51		 push	 ecx
  00037	e8 00 00 00 00	 call	 ?Free@CCRTAllocator@ATL@@SAXPAX@Z ; ATL::CCRTAllocator::Free
  0003c	83 c4 04	 add	 esp, 4

; 394  : 		}

  0003f	eb d6		 jmp	 SHORT $L88221
$L88219:

; 395  : 	}

  00041	83 c4 08	 add	 esp, 8
  00044	3b ec		 cmp	 ebp, esp
  00046	e8 00 00 00 00	 call	 __RTC_CheckEsp
  0004b	8b e5		 mov	 esp, ebp
  0004d	5d		 pop	 ebp
  0004e	c3		 ret	 0
??1?$CAtlSafeAllocBufferManager@VCCRTAllocator@ATL@@@_ATL_SAFE_ALLOCA_IMPL@ATL@@QAE@XZ ENDP ; ATL::_ATL_SAFE_ALLOCA_IMPL::CAtlSafeAllocBufferManager<ATL::CCRTAllocator>::~CAtlSafeAllocBufferManager<ATL::CCRTAllocator>
_TEXT	ENDS
EXTRN	__imp__free:NEAR
; Function compile flags: /Odt /RTCsu
;	COMDAT ?Free@CCRTAllocator@ATL@@SAXPAX@Z
_TEXT	SEGMENT
_p$ = 8							; size = 4
?Free@CCRTAllocator@ATL@@SAXPAX@Z PROC NEAR		; ATL::CCRTAllocator::Free, COMDAT

; 35   : 	{

  00000	55		 push	 ebp
  00001	8b ec		 mov	 ebp, esp
  00003	56		 push	 esi

; 36   : 		free(p);

  00004	8b f4		 mov	 esi, esp
  00006	8b 45 08	 mov	 eax, DWORD PTR _p$[ebp]
  00009	50		 push	 eax
  0000a	ff 15 00 00 00
	00		 call	 DWORD PTR __imp__free
  00010	83 c4 04	 add	 esp, 4
  00013	3b f4		 cmp	 esi, esp
  00015	e8 00 00 00 00	 call	 __RTC_CheckEsp

; 37   : 	}

  0001a	5e		 pop	 esi
  0001b	3b ec		 cmp	 ebp, esp
  0001d	e8 00 00 00 00	 call	 __RTC_CheckEsp
  00022	5d		 pop	 ebp
  00023	c3		 ret	 0
?Free@CCRTAllocator@ATL@@SAXPAX@Z ENDP			; ATL::CCRTAllocator::Free
; Function compile flags: /Odt /RTCsu
_TEXT	ENDS
;	COMDAT ??0?$CTempBuffer@D$0IA@VCCRTAllocator@ATL@@@ATL@@QAE@XZ
_TEXT	SEGMENT
_this$ = -4						; size = 4
??0?$CTempBuffer@D$0IA@VCCRTAllocator@ATL@@@ATL@@QAE@XZ PROC NEAR ; ATL::CTempBuffer<char,128,ATL::CCRTAllocator>::CTempBuffer<char,128,ATL::CCRTAllocator>, COMDAT
; _this$ = ecx

; 216  : 	{

  00000	55		 push	 ebp
  00001	8b ec		 mov	 ebp, esp
  00003	51		 push	 ecx
  00004	c7 45 fc cc cc
	cc cc		 mov	 DWORD PTR [ebp-4], -858993460 ; ccccccccH
  0000b	89 4d fc	 mov	 DWORD PTR _this$[ebp], ecx
  0000e	8b 45 fc	 mov	 eax, DWORD PTR _this$[ebp]
  00011	c7 00 00 00 00
	00		 mov	 DWORD PTR [eax], 0

; 217  : 	}

  00017	8b 45 fc	 mov	 eax, DWORD PTR _this$[ebp]
  0001a	8b e5		 mov	 esp, ebp
  0001c	5d		 pop	 ebp
  0001d	c3		 ret	 0
??0?$CTempBuffer@D$0IA@VCCRTAllocator@ATL@@@ATL@@QAE@XZ ENDP ; ATL::CTempBuffer<char,128,ATL::CCRTAllocator>::CTempBuffer<char,128,ATL::CCRTAllocator>
_TEXT	ENDS
PUBLIC	?FreeHeap@?$CTempBuffer@D$0IA@VCCRTAllocator@ATL@@@ATL@@AAEXXZ ; ATL::CTempBuffer<char,128,ATL::CCRTAllocator>::FreeHeap
; Function compile flags: /Odt /RTCsu
;	COMDAT ??1?$CTempBuffer@D$0IA@VCCRTAllocator@ATL@@@ATL@@QAE@XZ
_TEXT	SEGMENT
_this$ = -4						; size = 4
??1?$CTempBuffer@D$0IA@VCCRTAllocator@ATL@@@ATL@@QAE@XZ PROC NEAR ; ATL::CTempBuffer<char,128,ATL::CCRTAllocator>::~CTempBuffer<char,128,ATL::CCRTAllocator>, COMDAT
; _this$ = ecx

; 225  : 	{

  00000	55		 push	 ebp
  00001	8b ec		 mov	 ebp, esp
  00003	51		 push	 ecx
  00004	c7 45 fc cc cc
	cc cc		 mov	 DWORD PTR [ebp-4], -858993460 ; ccccccccH
  0000b	89 4d fc	 mov	 DWORD PTR _this$[ebp], ecx

; 226  : 		if( m_p != reinterpret_cast< T* >( m_abFixedBuffer ) )

  0000e	8b 45 fc	 mov	 eax, DWORD PTR _this$[ebp]
  00011	83 c0 04	 add	 eax, 4
  00014	8b 4d fc	 mov	 ecx, DWORD PTR _this$[ebp]
  00017	39 01		 cmp	 DWORD PTR [ecx], eax
  00019	74 08		 je	 SHORT $L88242

; 227  : 		{
; 228  : 			FreeHeap();

  0001b	8b 4d fc	 mov	 ecx, DWORD PTR _this$[ebp]
  0001e	e8 00 00 00 00	 call	 ?FreeHeap@?$CTempBuffer@D$0IA@VCCRTAllocator@ATL@@@ATL@@AAEXXZ ; ATL::CTempBuffer<char,128,ATL::CCRTAllocator>::FreeHeap
$L88242:

; 229  : 		}
; 230  : 	}

  00023	83 c4 04	 add	 esp, 4
  00026	3b ec		 cmp	 ebp, esp
  00028	e8 00 00 00 00	 call	 __RTC_CheckEsp
  0002d	8b e5		 mov	 esp, ebp
  0002f	5d		 pop	 ebp
  00030	c3		 ret	 0
??1?$CTempBuffer@D$0IA@VCCRTAllocator@ATL@@@ATL@@QAE@XZ ENDP ; ATL::CTempBuffer<char,128,ATL::CCRTAllocator>::~CTempBuffer<char,128,ATL::CCRTAllocator>
; Function compile flags: /Odt /RTCsu
_TEXT	ENDS
;	COMDAT ??B?$CTempBuffer@D$0IA@VCCRTAllocator@ATL@@@ATL@@QBEPADXZ
_TEXT	SEGMENT
_this$ = -4						; size = 4
??B?$CTempBuffer@D$0IA@VCCRTAllocator@ATL@@@ATL@@QBEPADXZ PROC NEAR ; ATL::CTempBuffer<char,128,ATL::CCRTAllocator>::operator char *, COMDAT
; _this$ = ecx

; 233  : 	{

  00000	55		 push	 ebp
  00001	8b ec		 mov	 ebp, esp
  00003	51		 push	 ecx
  00004	c7 45 fc cc cc
	cc cc		 mov	 DWORD PTR [ebp-4], -858993460 ; ccccccccH
  0000b	89 4d fc	 mov	 DWORD PTR _this$[ebp], ecx

; 234  : 		return( m_p );

  0000e	8b 45 fc	 mov	 eax, DWORD PTR _this$[ebp]
  00011	8b 00		 mov	 eax, DWORD PTR [eax]

; 235  : 	}

  00013	8b e5		 mov	 esp, ebp
  00015	5d		 pop	 ebp
  00016	c3		 ret	 0
??B?$CTempBuffer@D$0IA@VCCRTAllocator@ATL@@@ATL@@QBEPADXZ ENDP ; ATL::CTempBuffer<char,128,ATL::CCRTAllocator>::operator char *
_TEXT	ENDS
PUBLIC	?AllocateBytes@?$CTempBuffer@D$0IA@VCCRTAllocator@ATL@@@ATL@@QAEPADI@Z ; ATL::CTempBuffer<char,128,ATL::CCRTAllocator>::AllocateBytes
; Function compile flags: /Odt /RTCsu
;	COMDAT ?Allocate@?$CTempBuffer@D$0IA@VCCRTAllocator@ATL@@@ATL@@QAEPADI@Z
_TEXT	SEGMENT
_this$ = -4						; size = 4
_nElements$ = 8						; size = 4
?Allocate@?$CTempBuffer@D$0IA@VCCRTAllocator@ATL@@@ATL@@QAEPADI@Z PROC NEAR ; ATL::CTempBuffer<char,128,ATL::CCRTAllocator>::Allocate, COMDAT
; _this$ = ecx

; 243  : 	{

  00000	55		 push	 ebp
  00001	8b ec		 mov	 ebp, esp
  00003	51		 push	 ecx
  00004	c7 45 fc cc cc
	cc cc		 mov	 DWORD PTR [ebp-4], -858993460 ; ccccccccH
  0000b	89 4d fc	 mov	 DWORD PTR _this$[ebp], ecx

; 244  : 		return( AllocateBytes( nElements*sizeof( T ) ) );

  0000e	8b 45 08	 mov	 eax, DWORD PTR _nElements$[ebp]
  00011	50		 push	 eax
  00012	8b 4d fc	 mov	 ecx, DWORD PTR _this$[ebp]
  00015	e8 00 00 00 00	 call	 ?AllocateBytes@?$CTempBuffer@D$0IA@VCCRTAllocator@ATL@@@ATL@@QAEPADI@Z ; ATL::CTempBuffer<char,128,ATL::CCRTAllocator>::AllocateBytes

; 245  : 	}

  0001a	83 c4 04	 add	 esp, 4
  0001d	3b ec		 cmp	 ebp, esp
  0001f	e8 00 00 00 00	 call	 __RTC_CheckEsp
  00024	8b e5		 mov	 esp, ebp
  00026	5d		 pop	 ebp
  00027	c2 04 00	 ret	 4
?Allocate@?$CTempBuffer@D$0IA@VCCRTAllocator@ATL@@@ATL@@QAEPADI@Z ENDP ; ATL::CTempBuffer<char,128,ATL::CCRTAllocator>::Allocate
_TEXT	ENDS
PUBLIC	?Init@?$CW2AEX@$0IA@@ATL@@AAEXPB_WI@Z		; ATL::CW2AEX<128>::Init
; Function compile flags: /Odt /RTCsu
; File d:\program files (x86)\microsoft visual studio .net 2003\vc7\atlmfc\include\atlconv.h
;	COMDAT ??0?$CW2AEX@$0IA@@ATL@@QAE@PB_W@Z
_TEXT	SEGMENT
_this$ = -4						; size = 4
_psz$ = 8						; size = 4
??0?$CW2AEX@$0IA@@ATL@@QAE@PB_W@Z PROC NEAR		; ATL::CW2AEX<128>::CW2AEX<128>, COMDAT
; _this$ = ecx

; 419  : 	{

  00000	55		 push	 ebp
  00001	8b ec		 mov	 ebp, esp
  00003	51		 push	 ecx
  00004	c7 45 fc cc cc
	cc cc		 mov	 DWORD PTR [ebp-4], -858993460 ; ccccccccH
  0000b	89 4d fc	 mov	 DWORD PTR _this$[ebp], ecx
  0000e	8b 45 fc	 mov	 eax, DWORD PTR _this$[ebp]
  00011	83 c0 04	 add	 eax, 4
  00014	8b 4d fc	 mov	 ecx, DWORD PTR _this$[ebp]
  00017	89 01		 mov	 DWORD PTR [ecx], eax

; 420  : 		Init( psz, _AtlGetConversionACP() );

  00019	e8 00 00 00 00	 call	 ?_AtlGetConversionACP@ATL@@YGIXZ ; ATL::_AtlGetConversionACP
  0001e	50		 push	 eax
  0001f	8b 55 08	 mov	 edx, DWORD PTR _psz$[ebp]
  00022	52		 push	 edx
  00023	8b 4d fc	 mov	 ecx, DWORD PTR _this$[ebp]
  00026	e8 00 00 00 00	 call	 ?Init@?$CW2AEX@$0IA@@ATL@@AAEXPB_WI@Z ; ATL::CW2AEX<128>::Init

; 421  : 	}

  0002b	8b 45 fc	 mov	 eax, DWORD PTR _this$[ebp]
  0002e	83 c4 04	 add	 esp, 4
  00031	3b ec		 cmp	 ebp, esp
  00033	e8 00 00 00 00	 call	 __RTC_CheckEsp
  00038	8b e5		 mov	 esp, ebp
  0003a	5d		 pop	 ebp
  0003b	c2 04 00	 ret	 4
??0?$CW2AEX@$0IA@@ATL@@QAE@PB_W@Z ENDP			; ATL::CW2AEX<128>::CW2AEX<128>
; Function compile flags: /Odt /RTCsu
_TEXT	ENDS
;	COMDAT ??1?$CW2AEX@$0IA@@ATL@@QAE@XZ
_TEXT	SEGMENT
_this$ = -4						; size = 4
??1?$CW2AEX@$0IA@@ATL@@QAE@XZ PROC NEAR			; ATL::CW2AEX<128>::~CW2AEX<128>, COMDAT
; _this$ = ecx

; 428  : 	{

  00000	55		 push	 ebp
  00001	8b ec		 mov	 ebp, esp
  00003	51		 push	 ecx
  00004	56		 push	 esi
  00005	c7 45 fc cc cc
	cc cc		 mov	 DWORD PTR [ebp-4], -858993460 ; ccccccccH
  0000c	89 4d fc	 mov	 DWORD PTR _this$[ebp], ecx

; 429  : 		if( m_psz != m_szBuffer )

  0000f	8b 45 fc	 mov	 eax, DWORD PTR _this$[ebp]
  00012	83 c0 04	 add	 eax, 4
  00015	8b 4d fc	 mov	 ecx, DWORD PTR _this$[ebp]
  00018	39 01		 cmp	 DWORD PTR [ecx], eax
  0001a	74 18		 je	 SHORT $L88468

; 430  : 		{
; 431  : 			free( m_psz );

  0001c	8b f4		 mov	 esi, esp
  0001e	8b 55 fc	 mov	 edx, DWORD PTR _this$[ebp]
  00021	8b 02		 mov	 eax, DWORD PTR [edx]
  00023	50		 push	 eax
  00024	ff 15 00 00 00
	00		 call	 DWORD PTR __imp__free
  0002a	83 c4 04	 add	 esp, 4
  0002d	3b f4		 cmp	 esi, esp
  0002f	e8 00 00 00 00	 call	 __RTC_CheckEsp
$L88468:

; 432  : 		}
; 433  : 	}

  00034	5e		 pop	 esi
  00035	83 c4 04	 add	 esp, 4
  00038	3b ec		 cmp	 ebp, esp
  0003a	e8 00 00 00 00	 call	 __RTC_CheckEsp
  0003f	8b e5		 mov	 esp, ebp
  00041	5d		 pop	 ebp
  00042	c3		 ret	 0
??1?$CW2AEX@$0IA@@ATL@@QAE@XZ ENDP			; ATL::CW2AEX<128>::~CW2AEX<128>
; Function compile flags: /Odt /RTCsu
_TEXT	ENDS
;	COMDAT ??B?$CW2AEX@$0IA@@ATL@@QBEPADXZ
_TEXT	SEGMENT
_this$ = -4						; size = 4
??B?$CW2AEX@$0IA@@ATL@@QBEPADXZ PROC NEAR		; ATL::CW2AEX<128>::operator char *, COMDAT
; _this$ = ecx

; 436  : 	{

  00000	55		 push	 ebp
  00001	8b ec		 mov	 ebp, esp
  00003	51		 push	 ecx
  00004	c7 45 fc cc cc
	cc cc		 mov	 DWORD PTR [ebp-4], -858993460 ; ccccccccH
  0000b	89 4d fc	 mov	 DWORD PTR _this$[ebp], ecx

; 437  : 		return( m_psz );

  0000e	8b 45 fc	 mov	 eax, DWORD PTR _this$[ebp]
  00011	8b 00		 mov	 eax, DWORD PTR [eax]

; 438  : 	}

  00013	8b e5		 mov	 esp, ebp
  00015	5d		 pop	 ebp
  00016	c3		 ret	 0
??B?$CW2AEX@$0IA@@ATL@@QBEPADXZ ENDP			; ATL::CW2AEX<128>::operator char *
_TEXT	ENDS
PUBLIC	??_C@_08GPODJFIN@m_p?5?$DN?$DN?50?$AA@		; `string'
PUBLIC	??_C@_0FH@BOCPFCEM@D?3?2Program?5Files?5?$CIx86?$CJ?2Microsoft@ ; `string'
PUBLIC	?AllocateHeap@?$CTempBuffer@D$0IA@VCCRTAllocator@ATL@@@ATL@@AAEXI@Z ; ATL::CTempBuffer<char,128,ATL::CCRTAllocator>::AllocateHeap
;	COMDAT ??_C@_08GPODJFIN@m_p?5?$DN?$DN?50?$AA@
; File d:\program files (x86)\microsoft visual studio .net 2003\vc7\atlmfc\include\atlalloc.h
CONST	SEGMENT
??_C@_08GPODJFIN@m_p?5?$DN?$DN?50?$AA@ DB 'm_p == 0', 00H ; `string'
CONST	ENDS
;	COMDAT ??_C@_0FH@BOCPFCEM@D?3?2Program?5Files?5?$CIx86?$CJ?2Microsoft@
CONST	SEGMENT
??_C@_0FH@BOCPFCEM@D?3?2Program?5Files?5?$CIx86?$CJ?2Microsoft@ DB 'D:\Pr'
	DB	'ogram Files (x86)\Microsoft Visual Studio .NET 2003\Vc7\atlmf'
	DB	'c\include\atlalloc.h', 00H			; `string'
; Function compile flags: /Odt /RTCsu
CONST	ENDS
;	COMDAT ?AllocateBytes@?$CTempBuffer@D$0IA@VCCRTAllocator@ATL@@@ATL@@QAEPADI@Z
_TEXT	SEGMENT
_this$ = -4						; size = 4
_nBytes$ = 8						; size = 4
?AllocateBytes@?$CTempBuffer@D$0IA@VCCRTAllocator@ATL@@@ATL@@QAEPADI@Z PROC NEAR ; ATL::CTempBuffer<char,128,ATL::CCRTAllocator>::AllocateBytes, COMDAT
; _this$ = ecx

; 276  : 	{

  00000	55		 push	 ebp
  00001	8b ec		 mov	 ebp, esp
  00003	51		 push	 ecx
  00004	56		 push	 esi
  00005	c7 45 fc cc cc
	cc cc		 mov	 DWORD PTR [ebp-4], -858993460 ; ccccccccH
  0000c	89 4d fc	 mov	 DWORD PTR _this$[ebp], ecx

; 277  : 		ATLASSERT( m_p == NULL );

  0000f	8b 45 fc	 mov	 eax, DWORD PTR _this$[ebp]
  00012	83 38 00	 cmp	 DWORD PTR [eax], 0
  00015	74 2b		 je	 SHORT $L93140
  00017	8b f4		 mov	 esi, esp
  00019	68 00 00 00 00	 push	 OFFSET FLAT:??_C@_08GPODJFIN@m_p?5?$DN?$DN?50?$AA@
  0001e	6a 00		 push	 0
  00020	68 15 01 00 00	 push	 277			; 00000115H
  00025	68 00 00 00 00	 push	 OFFSET FLAT:??_C@_0FH@BOCPFCEM@D?3?2Program?5Files?5?$CIx86?$CJ?2Microsoft@
  0002a	6a 02		 push	 2
  0002c	ff 15 00 00 00
	00		 call	 DWORD PTR __imp___CrtDbgReport
  00032	83 c4 14	 add	 esp, 20			; 00000014H
  00035	3b f4		 cmp	 esi, esp
  00037	e8 00 00 00 00	 call	 __RTC_CheckEsp
  0003c	83 f8 01	 cmp	 eax, 1
  0003f	75 01		 jne	 SHORT $L93140
  00041	cc		 int	 3
$L93140:

; 278  : 		if( nBytes > t_nFixedBytes )

  00042	81 7d 08 80 00
	00 00		 cmp	 DWORD PTR _nBytes$[ebp], 128 ; 00000080H
  00049	76 0e		 jbe	 SHORT $L89517

; 279  : 		{
; 280  : 			AllocateHeap( nBytes );

  0004b	8b 55 08	 mov	 edx, DWORD PTR _nBytes$[ebp]
  0004e	52		 push	 edx
  0004f	8b 4d fc	 mov	 ecx, DWORD PTR _this$[ebp]
  00052	e8 00 00 00 00	 call	 ?AllocateHeap@?$CTempBuffer@D$0IA@VCCRTAllocator@ATL@@@ATL@@AAEXI@Z ; ATL::CTempBuffer<char,128,ATL::CCRTAllocator>::AllocateHeap

; 281  : 		}
; 282  : 		else

  00057	eb 0b		 jmp	 SHORT $L89518
$L89517:

; 283  : 		{
; 284  : 			m_p = reinterpret_cast< T* >( m_abFixedBuffer );

  00059	8b 45 fc	 mov	 eax, DWORD PTR _this$[ebp]
  0005c	83 c0 04	 add	 eax, 4
  0005f	8b 4d fc	 mov	 ecx, DWORD PTR _this$[ebp]
  00062	89 01		 mov	 DWORD PTR [ecx], eax
$L89518:

; 285  : 		}
; 286  : 
; 287  : 		return( m_p );

  00064	8b 55 fc	 mov	 edx, DWORD PTR _this$[ebp]
  00067	8b 02		 mov	 eax, DWORD PTR [edx]

; 288  : 	}

  00069	5e		 pop	 esi
  0006a	83 c4 04	 add	 esp, 4
  0006d	3b ec		 cmp	 ebp, esp
  0006f	e8 00 00 00 00	 call	 __RTC_CheckEsp
  00074	8b e5		 mov	 esp, ebp
  00076	5d		 pop	 ebp
  00077	c2 04 00	 ret	 4
?AllocateBytes@?$CTempBuffer@D$0IA@VCCRTAllocator@ATL@@@ATL@@QAEPADI@Z ENDP ; ATL::CTempBuffer<char,128,ATL::CCRTAllocator>::AllocateBytes
; Function compile flags: /Odt /RTCsu
_TEXT	ENDS
;	COMDAT ?FreeHeap@?$CTempBuffer@D$0IA@VCCRTAllocator@ATL@@@ATL@@AAEXXZ
_TEXT	SEGMENT
_this$ = -4						; size = 4
?FreeHeap@?$CTempBuffer@D$0IA@VCCRTAllocator@ATL@@@ATL@@AAEXXZ PROC NEAR ; ATL::CTempBuffer<char,128,ATL::CCRTAllocator>::FreeHeap, COMDAT
; _this$ = ecx

; 312  : 	{

  00000	55		 push	 ebp
  00001	8b ec		 mov	 ebp, esp
  00003	51		 push	 ecx
  00004	c7 45 fc cc cc
	cc cc		 mov	 DWORD PTR [ebp-4], -858993460 ; ccccccccH
  0000b	89 4d fc	 mov	 DWORD PTR _this$[ebp], ecx

; 313  : 		Allocator::Free( m_p );

  0000e	8b 45 fc	 mov	 eax, DWORD PTR _this$[ebp]
  00011	8b 08		 mov	 ecx, DWORD PTR [eax]
  00013	51		 push	 ecx
  00014	e8 00 00 00 00	 call	 ?Free@CCRTAllocator@ATL@@SAXPAX@Z ; ATL::CCRTAllocator::Free
  00019	83 c4 04	 add	 esp, 4

; 314  : 	}

  0001c	83 c4 04	 add	 esp, 4
  0001f	3b ec		 cmp	 ebp, esp
  00021	e8 00 00 00 00	 call	 __RTC_CheckEsp
  00026	8b e5		 mov	 esp, ebp
  00028	5d		 pop	 ebp
  00029	c3		 ret	 0
?FreeHeap@?$CTempBuffer@D$0IA@VCCRTAllocator@ATL@@@ATL@@AAEXXZ ENDP ; ATL::CTempBuffer<char,128,ATL::CCRTAllocator>::FreeHeap
_TEXT	ENDS
PUBLIC	?AtlThrowLastWin32@ATL@@YGXXZ			; ATL::AtlThrowLastWin32
; Function compile flags: /Odt /RTCsu
; File d:\program files (x86)\microsoft visual studio .net 2003\vc7\atlmfc\include\atlconv.h
;	COMDAT ?Init@?$CW2AEX@$0IA@@ATL@@AAEXPB_WI@Z
_TEXT	SEGMENT
_nLengthA$ = -12					; size = 4
_nLengthW$ = -8						; size = 4
_this$ = -4						; size = 4
_psz$ = 8						; size = 4
_nCodePage$ = 12					; size = 4
?Init@?$CW2AEX@$0IA@@ATL@@AAEXPB_WI@Z PROC NEAR		; ATL::CW2AEX<128>::Init, COMDAT
; _this$ = ecx

; 442  : 	{

  00000	55		 push	 ebp
  00001	8b ec		 mov	 ebp, esp
  00003	83 ec 0c	 sub	 esp, 12			; 0000000cH
  00006	56		 push	 esi
  00007	c7 45 f4 cc cc
	cc cc		 mov	 DWORD PTR [ebp-12], -858993460 ; ccccccccH
  0000e	c7 45 f8 cc cc
	cc cc		 mov	 DWORD PTR [ebp-8], -858993460 ; ccccccccH
  00015	c7 45 fc cc cc
	cc cc		 mov	 DWORD PTR [ebp-4], -858993460 ; ccccccccH
  0001c	89 4d fc	 mov	 DWORD PTR _this$[ebp], ecx

; 443  : 		if (psz == NULL)

  0001f	83 7d 08 00	 cmp	 DWORD PTR _psz$[ebp], 0
  00023	75 0e		 jne	 SHORT $L89638

; 444  : 		{
; 445  : 			m_psz = NULL;

  00025	8b 45 fc	 mov	 eax, DWORD PTR _this$[ebp]
  00028	c7 00 00 00 00
	00		 mov	 DWORD PTR [eax], 0

; 446  : 			return;

  0002e	e9 8b 00 00 00	 jmp	 $L93142
$L89638:

; 447  : 		}
; 448  : 		int nLengthW = lstrlenW( psz )+1;

  00033	8b f4		 mov	 esi, esp
  00035	8b 4d 08	 mov	 ecx, DWORD PTR _psz$[ebp]
  00038	51		 push	 ecx
  00039	ff 15 00 00 00
	00		 call	 DWORD PTR __imp__lstrlenW@4
  0003f	3b f4		 cmp	 esi, esp
  00041	e8 00 00 00 00	 call	 __RTC_CheckEsp
  00046	83 c0 01	 add	 eax, 1
  00049	89 45 f8	 mov	 DWORD PTR _nLengthW$[ebp], eax

; 449  : 		int nLengthA = nLengthW*2;

  0004c	8b 55 f8	 mov	 edx, DWORD PTR _nLengthW$[ebp]
  0004f	d1 e2		 shl	 edx, 1
  00051	89 55 f4	 mov	 DWORD PTR _nLengthA$[ebp], edx

; 450  : 
; 451  : 		if( nLengthA > t_nBufferLength )

  00054	81 7d f4 80 00
	00 00		 cmp	 DWORD PTR _nLengthA$[ebp], 128 ; 00000080H
  0005b	7e 2d		 jle	 SHORT $L89641

; 452  : 		{
; 453  : 			m_psz = static_cast< LPSTR >( malloc( nLengthA*sizeof( char ) ) );

  0005d	8b f4		 mov	 esi, esp
  0005f	8b 45 f4	 mov	 eax, DWORD PTR _nLengthA$[ebp]
  00062	50		 push	 eax
  00063	ff 15 00 00 00
	00		 call	 DWORD PTR __imp__malloc
  00069	83 c4 04	 add	 esp, 4
  0006c	3b f4		 cmp	 esi, esp
  0006e	e8 00 00 00 00	 call	 __RTC_CheckEsp
  00073	8b 4d fc	 mov	 ecx, DWORD PTR _this$[ebp]
  00076	89 01		 mov	 DWORD PTR [ecx], eax

; 454  : 			if (m_psz == NULL)

  00078	8b 55 fc	 mov	 edx, DWORD PTR _this$[ebp]
  0007b	83 3a 00	 cmp	 DWORD PTR [edx], 0
  0007e	75 0a		 jne	 SHORT $L89641

; 455  : 			{
; 456  : 				AtlThrow( E_OUTOFMEMORY );

  00080	68 0e 00 07 80	 push	 -2147024882		; 8007000eH
  00085	e8 00 00 00 00	 call	 ?AtlThrow@ATL@@YGXJ@Z	; ATL::AtlThrow
$L89641:

; 457  : 			}
; 458  : 		}
; 459  : 
; 460  : 		if (::WideCharToMultiByte( nCodePage, 0, psz, nLengthW, m_psz, nLengthA, NULL, NULL ) == 0)

  0008a	8b f4		 mov	 esi, esp
  0008c	6a 00		 push	 0
  0008e	6a 00		 push	 0
  00090	8b 45 f4	 mov	 eax, DWORD PTR _nLengthA$[ebp]
  00093	50		 push	 eax
  00094	8b 4d fc	 mov	 ecx, DWORD PTR _this$[ebp]
  00097	8b 11		 mov	 edx, DWORD PTR [ecx]
  00099	52		 push	 edx
  0009a	8b 45 f8	 mov	 eax, DWORD PTR _nLengthW$[ebp]
  0009d	50		 push	 eax
  0009e	8b 4d 08	 mov	 ecx, DWORD PTR _psz$[ebp]
  000a1	51		 push	 ecx
  000a2	6a 00		 push	 0
  000a4	8b 55 0c	 mov	 edx, DWORD PTR _nCodePage$[ebp]
  000a7	52		 push	 edx
  000a8	ff 15 00 00 00
	00		 call	 DWORD PTR __imp__WideCharToMultiByte@32
  000ae	3b f4		 cmp	 esi, esp
  000b0	e8 00 00 00 00	 call	 __RTC_CheckEsp
  000b5	85 c0		 test	 eax, eax
  000b7	75 05		 jne	 SHORT $L93142

; 461  : 		{
; 462  : 			AtlThrowLastWin32();

  000b9	e8 00 00 00 00	 call	 ?AtlThrowLastWin32@ATL@@YGXXZ ; ATL::AtlThrowLastWin32
$L93142:

; 463  : 		}
; 464  : 	}

  000be	5e		 pop	 esi
  000bf	83 c4 0c	 add	 esp, 12			; 0000000cH
  000c2	3b ec		 cmp	 ebp, esp
  000c4	e8 00 00 00 00	 call	 __RTC_CheckEsp
  000c9	8b e5		 mov	 esp, ebp
  000cb	5d		 pop	 ebp
  000cc	c2 08 00	 ret	 8
?Init@?$CW2AEX@$0IA@@ATL@@AAEXPB_WI@Z ENDP		; ATL::CW2AEX<128>::Init
_TEXT	ENDS
EXTRN	__imp__GetLastError@0:NEAR
; Function compile flags: /Odt /RTCsu
; File d:\program files (x86)\microsoft visual studio .net 2003\vc7\atlmfc\include\atlexcept.h
;	COMDAT ?AtlThrowLastWin32@ATL@@YGXXZ
_TEXT	SEGMENT
tv69 = -8						; size = 4
_dwError$ = -4						; size = 4
?AtlThrowLastWin32@ATL@@YGXXZ PROC NEAR			; ATL::AtlThrowLastWin32, COMDAT

; 80   : {

  00000	55		 push	 ebp
  00001	8b ec		 mov	 ebp, esp
  00003	83 ec 08	 sub	 esp, 8
  00006	56		 push	 esi
  00007	c7 45 f8 cc cc
	cc cc		 mov	 DWORD PTR [ebp-8], -858993460 ; ccccccccH
  0000e	c7 45 fc cc cc
	cc cc		 mov	 DWORD PTR [ebp-4], -858993460 ; ccccccccH

; 81   : 	DWORD dwError = ::GetLastError();

  00015	8b f4		 mov	 esi, esp
  00017	ff 15 00 00 00
	00		 call	 DWORD PTR __imp__GetLastError@0
  0001d	3b f4		 cmp	 esi, esp
  0001f	e8 00 00 00 00	 call	 __RTC_CheckEsp
  00024	89 45 fc	 mov	 DWORD PTR _dwError$[ebp], eax

; 82   : 	AtlThrow( HRESULT_FROM_WIN32( dwError ) );

  00027	83 7d fc 00	 cmp	 DWORD PTR _dwError$[ebp], 0
  0002b	7f 08		 jg	 SHORT $L93144
  0002d	8b 45 fc	 mov	 eax, DWORD PTR _dwError$[ebp]
  00030	89 45 f8	 mov	 DWORD PTR tv69[ebp], eax
  00033	eb 18		 jmp	 SHORT $L93145
$L93144:
  00035	8b 4d fc	 mov	 ecx, DWORD PTR _dwError$[ebp]
  00038	81 e1 ff ff 00
	00		 and	 ecx, 65535		; 0000ffffH
  0003e	81 c9 00 00 07
	00		 or	 ecx, 458752		; 00070000H
  00044	81 c9 00 00 00
	80		 or	 ecx, -2147483648	; 80000000H
  0004a	89 4d f8	 mov	 DWORD PTR tv69[ebp], ecx
$L93145:
  0004d	8b 55 f8	 mov	 edx, DWORD PTR tv69[ebp]
  00050	52		 push	 edx
  00051	e8 00 00 00 00	 call	 ?AtlThrow@ATL@@YGXJ@Z	; ATL::AtlThrow
$L93143:

; 83   : }

  00056	5e		 pop	 esi
  00057	83 c4 08	 add	 esp, 8
  0005a	3b ec		 cmp	 ebp, esp
  0005c	e8 00 00 00 00	 call	 __RTC_CheckEsp
  00061	8b e5		 mov	 esp, ebp
  00063	5d		 pop	 ebp
  00064	c3		 ret	 0
?AtlThrowLastWin32@ATL@@YGXXZ ENDP			; ATL::AtlThrowLastWin32
; Function compile flags: /Odt /RTCsu
; File d:\program files (x86)\microsoft visual studio .net 2003\vc7\atlmfc\include\atlalloc.h
_TEXT	ENDS
;	COMDAT ?GetData@CAtlSafeAllocBufferNode@?$CAtlSafeAllocBufferManager@VCCRTAllocator@ATL@@@_ATL_SAFE_ALLOCA_IMPL@ATL@@QAEPAXXZ
_TEXT	SEGMENT
_this$ = -4						; size = 4
?GetData@CAtlSafeAllocBufferNode@?$CAtlSafeAllocBufferManager@VCCRTAllocator@ATL@@@_ATL_SAFE_ALLOCA_IMPL@ATL@@QAEPAXXZ PROC NEAR ; ATL::_ATL_SAFE_ALLOCA_IMPL::CAtlSafeAllocBufferManager<ATL::CCRTAllocator>::CAtlSafeAllocBufferNode::GetData, COMDAT
; _this$ = ecx

; 365  : 		{

  00000	55		 push	 ebp
  00001	8b ec		 mov	 ebp, esp
  00003	51		 push	 ecx
  00004	c7 45 fc cc cc
	cc cc		 mov	 DWORD PTR [ebp-4], -858993460 ; ccccccccH
  0000b	89 4d fc	 mov	 DWORD PTR _this$[ebp], ecx

; 366  : 			return (this + 1);

  0000e	8b 45 fc	 mov	 eax, DWORD PTR _this$[ebp]
  00011	83 c0 08	 add	 eax, 8

; 367  : 		}

  00014	8b e5		 mov	 esp, ebp
  00016	5d		 pop	 ebp
  00017	c3		 ret	 0
?GetData@CAtlSafeAllocBufferNode@?$CAtlSafeAllocBufferManager@VCCRTAllocator@ATL@@@_ATL_SAFE_ALLOCA_IMPL@ATL@@QAEPAXXZ ENDP ; ATL::_ATL_SAFE_ALLOCA_IMPL::CAtlSafeAllocBufferManager<ATL::CCRTAllocator>::CAtlSafeAllocBufferNode::GetData
; Function compile flags: /Odt /RTCsu
_TEXT	ENDS
;	COMDAT ?AllocateHeap@?$CTempBuffer@D$0IA@VCCRTAllocator@ATL@@@ATL@@AAEXI@Z
_TEXT	SEGMENT
_p$ = -8						; size = 4
_this$ = -4						; size = 4
_nBytes$ = 8						; size = 4
?AllocateHeap@?$CTempBuffer@D$0IA@VCCRTAllocator@ATL@@@ATL@@AAEXI@Z PROC NEAR ; ATL::CTempBuffer<char,128,ATL::CCRTAllocator>::AllocateHeap, COMDAT
; _this$ = ecx

; 292  : 	{

  00000	55		 push	 ebp
  00001	8b ec		 mov	 ebp, esp
  00003	83 ec 08	 sub	 esp, 8
  00006	c7 45 f8 cc cc
	cc cc		 mov	 DWORD PTR [ebp-8], -858993460 ; ccccccccH
  0000d	c7 45 fc cc cc
	cc cc		 mov	 DWORD PTR [ebp-4], -858993460 ; ccccccccH
  00014	89 4d fc	 mov	 DWORD PTR _this$[ebp], ecx

; 293  : 		T* p = static_cast< T* >( Allocator::Allocate( nBytes ) );

  00017	8b 45 08	 mov	 eax, DWORD PTR _nBytes$[ebp]
  0001a	50		 push	 eax
  0001b	e8 00 00 00 00	 call	 ?Allocate@CCRTAllocator@ATL@@SAPAXI@Z ; ATL::CCRTAllocator::Allocate
  00020	83 c4 04	 add	 esp, 4
  00023	89 45 f8	 mov	 DWORD PTR _p$[ebp], eax

; 294  : 		if( p == NULL )

  00026	83 7d f8 00	 cmp	 DWORD PTR _p$[ebp], 0
  0002a	75 0a		 jne	 SHORT $L89937

; 295  : 		{
; 296  : 			AtlThrow( E_OUTOFMEMORY );

  0002c	68 0e 00 07 80	 push	 -2147024882		; 8007000eH
  00031	e8 00 00 00 00	 call	 ?AtlThrow@ATL@@YGXJ@Z	; ATL::AtlThrow
$L89937:

; 297  : 		}
; 298  : 		m_p = p;

  00036	8b 4d fc	 mov	 ecx, DWORD PTR _this$[ebp]
  00039	8b 55 f8	 mov	 edx, DWORD PTR _p$[ebp]
  0003c	89 11		 mov	 DWORD PTR [ecx], edx
$L93147:

; 299  : 	}

  0003e	83 c4 08	 add	 esp, 8
  00041	3b ec		 cmp	 ebp, esp
  00043	e8 00 00 00 00	 call	 __RTC_CheckEsp
  00048	8b e5		 mov	 esp, ebp
  0004a	5d		 pop	 ebp
  0004b	c2 04 00	 ret	 4
?AllocateHeap@?$CTempBuffer@D$0IA@VCCRTAllocator@ATL@@@ATL@@AAEXI@Z ENDP ; ATL::CTempBuffer<char,128,ATL::CCRTAllocator>::AllocateHeap
_TEXT	ENDS
PUBLIC	??$?HDU?$char_traits@D@std@@V?$allocator@D@1@@std@@YA?AV?$basic_string@DU?$char_traits@D@std@@V?$allocator@D@2@@0@ABV10@0@Z ; std::operator+<char,std::char_traits<char>,std::allocator<char> >
EXTRN	__imp_??0?$basic_string@DU?$char_traits@D@std@@V?$allocator@D@2@@std@@QAE@ABV01@@Z:NEAR
EXTRN	__imp_??Y?$basic_string@DU?$char_traits@D@std@@V?$allocator@D@2@@std@@QAEAAV01@ABV01@@Z:NEAR
;	COMDAT xdata$x
; File d:\program files (x86)\microsoft visual studio .net 2003\vc7\include\string
xdata$x	SEGMENT
$T93157	DD	0ffffffffH
	DD	FLAT:$L93151
	DD	00H
	DD	FLAT:$L93150
$T93155	DD	019930520H
	DD	02H
	DD	FLAT:$T93157
	DD	2 DUP(00H)
	DD	2 DUP(00H)
; Function compile flags: /Odt /RTCsu
xdata$x	ENDS
;	COMDAT ??$?HDU?$char_traits@D@std@@V?$allocator@D@1@@std@@YA?AV?$basic_string@DU?$char_traits@D@std@@V?$allocator@D@2@@0@ABV10@0@Z
_TEXT	SEGMENT
tv77 = -52						; size = 4
tv82 = -48						; size = 4
$T93152 = -44						; size = 4
$T93149 = -40						; size = 28
__$EHRec$ = -12						; size = 12
___$ReturnUdt$ = 8					; size = 4
__Left$ = 12						; size = 4
__Right$ = 16						; size = 4
??$?HDU?$char_traits@D@std@@V?$allocator@D@1@@std@@YA?AV?$basic_string@DU?$char_traits@D@std@@V?$allocator@D@2@@0@ABV10@0@Z PROC NEAR ; std::operator+<char,std::char_traits<char>,std::allocator<char> >, COMDAT

; 21   : 	{	// return string + string

  00000	55		 push	 ebp
  00001	8b ec		 mov	 ebp, esp
  00003	6a ff		 push	 -1
  00005	68 00 00 00 00	 push	 __ehhandler$??$?HDU?$char_traits@D@std@@V?$allocator@D@1@@std@@YA?AV?$basic_string@DU?$char_traits@D@std@@V?$allocator@D@2@@0@ABV10@0@Z
  0000a	64 a1 00 00 00
	00		 mov	 eax, DWORD PTR fs:__except_list
  00010	50		 push	 eax
  00011	64 89 25 00 00
	00 00		 mov	 DWORD PTR fs:__except_list, esp
  00018	83 ec 28	 sub	 esp, 40			; 00000028H
  0001b	56		 push	 esi
  0001c	57		 push	 edi
  0001d	8d 7d cc	 lea	 edi, DWORD PTR [ebp-52]
  00020	b9 0a 00 00 00	 mov	 ecx, 10			; 0000000aH
  00025	b8 cc cc cc cc	 mov	 eax, -858993460		; ccccccccH
  0002a	f3 ab		 rep stosd
  0002c	c7 45 d4 00 00
	00 00		 mov	 DWORD PTR $T93152[ebp], 0

; 22   : 	return (basic_string<_Elem, _Traits, _Alloc>(_Left) += _Right);

  00033	8b f4		 mov	 esi, esp
  00035	8b 45 0c	 mov	 eax, DWORD PTR __Left$[ebp]
  00038	50		 push	 eax
  00039	8d 4d d8	 lea	 ecx, DWORD PTR $T93149[ebp]
  0003c	ff 15 00 00 00
	00		 call	 DWORD PTR __imp_??0?$basic_string@DU?$char_traits@D@std@@V?$allocator@D@2@@std@@QAE@ABV01@@Z
  00042	3b f4		 cmp	 esi, esp
  00044	e8 00 00 00 00	 call	 __RTC_CheckEsp
  00049	89 45 d0	 mov	 DWORD PTR tv82[ebp], eax
  0004c	8b 4d d0	 mov	 ecx, DWORD PTR tv82[ebp]
  0004f	89 4d cc	 mov	 DWORD PTR tv77[ebp], ecx
  00052	c7 45 fc 01 00
	00 00		 mov	 DWORD PTR __$EHRec$[ebp+8], 1
  00059	8b f4		 mov	 esi, esp
  0005b	8b 55 10	 mov	 edx, DWORD PTR __Right$[ebp]
  0005e	52		 push	 edx
  0005f	8b 4d cc	 mov	 ecx, DWORD PTR tv77[ebp]
  00062	ff 15 00 00 00
	00		 call	 DWORD PTR __imp_??Y?$basic_string@DU?$char_traits@D@std@@V?$allocator@D@2@@std@@QAEAAV01@ABV01@@Z
  00068	3b f4		 cmp	 esi, esp
  0006a	e8 00 00 00 00	 call	 __RTC_CheckEsp
  0006f	8b f4		 mov	 esi, esp
  00071	50		 push	 eax
  00072	8b 4d 08	 mov	 ecx, DWORD PTR ___$ReturnUdt$[ebp]
  00075	ff 15 00 00 00
	00		 call	 DWORD PTR __imp_??0?$basic_string@DU?$char_traits@D@std@@V?$allocator@D@2@@std@@QAE@ABV01@@Z
  0007b	3b f4		 cmp	 esi, esp
  0007d	e8 00 00 00 00	 call	 __RTC_CheckEsp
  00082	8b 45 d4	 mov	 eax, DWORD PTR $T93152[ebp]
  00085	83 c8 01	 or	 eax, 1
  00088	89 45 d4	 mov	 DWORD PTR $T93152[ebp], eax
  0008b	c6 45 fc 00	 mov	 BYTE PTR __$EHRec$[ebp+8], 0
  0008f	8b f4		 mov	 esi, esp
  00091	8d 4d d8	 lea	 ecx, DWORD PTR $T93149[ebp]
  00094	ff 15 00 00 00
	00		 call	 DWORD PTR __imp_??1?$basic_string@DU?$char_traits@D@std@@V?$allocator@D@2@@std@@QAE@XZ
  0009a	3b f4		 cmp	 esi, esp
  0009c	e8 00 00 00 00	 call	 __RTC_CheckEsp
  000a1	8b 45 08	 mov	 eax, DWORD PTR ___$ReturnUdt$[ebp]

; 23   : 	}

  000a4	8b 4d f4	 mov	 ecx, DWORD PTR __$EHRec$[ebp]
  000a7	64 89 0d 00 00
	00 00		 mov	 DWORD PTR fs:__except_list, ecx
  000ae	5f		 pop	 edi
  000af	5e		 pop	 esi
  000b0	83 c4 34	 add	 esp, 52			; 00000034H
  000b3	3b ec		 cmp	 ebp, esp
  000b5	e8 00 00 00 00	 call	 __RTC_CheckEsp
  000ba	8b e5		 mov	 esp, ebp
  000bc	5d		 pop	 ebp
  000bd	c3		 ret	 0
_TEXT	ENDS
;	COMDAT text$x
text$x	SEGMENT
$L93150:
  00000	8b f4		 mov	 esi, esp
  00002	8d 4d d8	 lea	 ecx, DWORD PTR $T93149[ebp]
  00005	ff 15 00 00 00
	00		 call	 DWORD PTR __imp_??1?$basic_string@DU?$char_traits@D@std@@V?$allocator@D@2@@std@@QAE@XZ
  0000b	3b f4		 cmp	 esi, esp
  0000d	e9 00 00 00 00	 jmp	 __RTC_CheckEsp
$L93151:
  00012	8b 45 d4	 mov	 eax, DWORD PTR $T93152[ebp]
  00015	83 e0 01	 and	 eax, 1
  00018	0f 84 16 00 00
	00		 je	 $L93153
  0001e	83 65 d4 fe	 and	 DWORD PTR $T93152[ebp], -2 ; fffffffeH
  00022	8b f4		 mov	 esi, esp
  00024	8b 4d 08	 mov	 ecx, DWORD PTR ___$ReturnUdt$[ebp]
  00027	ff 15 00 00 00
	00		 call	 DWORD PTR __imp_??1?$basic_string@DU?$char_traits@D@std@@V?$allocator@D@2@@std@@QAE@XZ
  0002d	3b f4		 cmp	 esi, esp
  0002f	e9 00 00 00 00	 jmp	 __RTC_CheckEsp
$L93153:
  00034	c3		 ret	 0
__ehhandler$??$?HDU?$char_traits@D@std@@V?$allocator@D@1@@std@@YA?AV?$basic_string@DU?$char_traits@D@std@@V?$allocator@D@2@@0@ABV10@0@Z:
  00035	b8 00 00 00 00	 mov	 eax, OFFSET FLAT:$T93155
  0003a	e9 00 00 00 00	 jmp	 ___CxxFrameHandler
text$x	ENDS
??$?HDU?$char_traits@D@std@@V?$allocator@D@1@@std@@YA?AV?$basic_string@DU?$char_traits@D@std@@V?$allocator@D@2@@0@ABV10@0@Z ENDP ; std::operator+<char,std::char_traits<char>,std::allocator<char> >
PUBLIC	??$?HDU?$char_traits@D@std@@V?$allocator@D@1@@std@@YA?AV?$basic_string@DU?$char_traits@D@std@@V?$allocator@D@2@@0@PBDABV10@@Z ; std::operator+<char,std::char_traits<char>,std::allocator<char> >
EXTRN	__imp_??0?$basic_string@DU?$char_traits@D@std@@V?$allocator@D@2@@std@@QAE@PBD@Z:NEAR
;	COMDAT xdata$x
xdata$x	SEGMENT
$T93169	DD	0ffffffffH
	DD	FLAT:$L93163
	DD	00H
	DD	FLAT:$L93162
$T93167	DD	019930520H
	DD	02H
	DD	FLAT:$T93169
	DD	2 DUP(00H)
	DD	2 DUP(00H)
; Function compile flags: /Odt /RTCsu
xdata$x	ENDS
;	COMDAT ??$?HDU?$char_traits@D@std@@V?$allocator@D@1@@std@@YA?AV?$basic_string@DU?$char_traits@D@std@@V?$allocator@D@2@@0@PBDABV10@@Z
_TEXT	SEGMENT
tv77 = -52						; size = 4
tv82 = -48						; size = 4
$T93164 = -44						; size = 4
$T93161 = -40						; size = 28
__$EHRec$ = -12						; size = 12
___$ReturnUdt$ = 8					; size = 4
__Left$ = 12						; size = 4
__Right$ = 16						; size = 4
??$?HDU?$char_traits@D@std@@V?$allocator@D@1@@std@@YA?AV?$basic_string@DU?$char_traits@D@std@@V?$allocator@D@2@@0@PBDABV10@@Z PROC NEAR ; std::operator+<char,std::char_traits<char>,std::allocator<char> >, COMDAT

; 31   : 	{	// return NTCS + string

  00000	55		 push	 ebp
  00001	8b ec		 mov	 ebp, esp
  00003	6a ff		 push	 -1
  00005	68 00 00 00 00	 push	 __ehhandler$??$?HDU?$char_traits@D@std@@V?$allocator@D@1@@std@@YA?AV?$basic_string@DU?$char_traits@D@std@@V?$allocator@D@2@@0@PBDABV10@@Z
  0000a	64 a1 00 00 00
	00		 mov	 eax, DWORD PTR fs:__except_list
  00010	50		 push	 eax
  00011	64 89 25 00 00
	00 00		 mov	 DWORD PTR fs:__except_list, esp
  00018	83 ec 28	 sub	 esp, 40			; 00000028H
  0001b	56		 push	 esi
  0001c	57		 push	 edi
  0001d	8d 7d cc	 lea	 edi, DWORD PTR [ebp-52]
  00020	b9 0a 00 00 00	 mov	 ecx, 10			; 0000000aH
  00025	b8 cc cc cc cc	 mov	 eax, -858993460		; ccccccccH
  0002a	f3 ab		 rep stosd
  0002c	c7 45 d4 00 00
	00 00		 mov	 DWORD PTR $T93164[ebp], 0

; 32   : 	return (basic_string<_Elem, _Traits, _Alloc>(_Left) += _Right);

  00033	8b f4		 mov	 esi, esp
  00035	8b 45 0c	 mov	 eax, DWORD PTR __Left$[ebp]
  00038	50		 push	 eax
  00039	8d 4d d8	 lea	 ecx, DWORD PTR $T93161[ebp]
  0003c	ff 15 00 00 00
	00		 call	 DWORD PTR __imp_??0?$basic_string@DU?$char_traits@D@std@@V?$allocator@D@2@@std@@QAE@PBD@Z
  00042	3b f4		 cmp	 esi, esp
  00044	e8 00 00 00 00	 call	 __RTC_CheckEsp
  00049	89 45 d0	 mov	 DWORD PTR tv82[ebp], eax
  0004c	8b 4d d0	 mov	 ecx, DWORD PTR tv82[ebp]
  0004f	89 4d cc	 mov	 DWORD PTR tv77[ebp], ecx
  00052	c7 45 fc 01 00
	00 00		 mov	 DWORD PTR __$EHRec$[ebp+8], 1
  00059	8b f4		 mov	 esi, esp
  0005b	8b 55 10	 mov	 edx, DWORD PTR __Right$[ebp]
  0005e	52		 push	 edx
  0005f	8b 4d cc	 mov	 ecx, DWORD PTR tv77[ebp]
  00062	ff 15 00 00 00
	00		 call	 DWORD PTR __imp_??Y?$basic_string@DU?$char_traits@D@std@@V?$allocator@D@2@@std@@QAEAAV01@ABV01@@Z
  00068	3b f4		 cmp	 esi, esp
  0006a	e8 00 00 00 00	 call	 __RTC_CheckEsp
  0006f	8b f4		 mov	 esi, esp
  00071	50		 push	 eax
  00072	8b 4d 08	 mov	 ecx, DWORD PTR ___$ReturnUdt$[ebp]
  00075	ff 15 00 00 00
	00		 call	 DWORD PTR __imp_??0?$basic_string@DU?$char_traits@D@std@@V?$allocator@D@2@@std@@QAE@ABV01@@Z
  0007b	3b f4		 cmp	 esi, esp
  0007d	e8 00 00 00 00	 call	 __RTC_CheckEsp
  00082	8b 45 d4	 mov	 eax, DWORD PTR $T93164[ebp]
  00085	83 c8 01	 or	 eax, 1
  00088	89 45 d4	 mov	 DWORD PTR $T93164[ebp], eax
  0008b	c6 45 fc 00	 mov	 BYTE PTR __$EHRec$[ebp+8], 0
  0008f	8b f4		 mov	 esi, esp
  00091	8d 4d d8	 lea	 ecx, DWORD PTR $T93161[ebp]
  00094	ff 15 00 00 00
	00		 call	 DWORD PTR __imp_??1?$basic_string@DU?$char_traits@D@std@@V?$allocator@D@2@@std@@QAE@XZ
  0009a	3b f4		 cmp	 esi, esp
  0009c	e8 00 00 00 00	 call	 __RTC_CheckEsp
  000a1	8b 45 08	 mov	 eax, DWORD PTR ___$ReturnUdt$[ebp]

; 33   : 	}

  000a4	8b 4d f4	 mov	 ecx, DWORD PTR __$EHRec$[ebp]
  000a7	64 89 0d 00 00
	00 00		 mov	 DWORD PTR fs:__except_list, ecx
  000ae	5f		 pop	 edi
  000af	5e		 pop	 esi
  000b0	83 c4 34	 add	 esp, 52			; 00000034H
  000b3	3b ec		 cmp	 ebp, esp
  000b5	e8 00 00 00 00	 call	 __RTC_CheckEsp
  000ba	8b e5		 mov	 esp, ebp
  000bc	5d		 pop	 ebp
  000bd	c3		 ret	 0
_TEXT	ENDS
;	COMDAT text$x
text$x	SEGMENT
$L93162:
  00000	8b f4		 mov	 esi, esp
  00002	8d 4d d8	 lea	 ecx, DWORD PTR $T93161[ebp]
  00005	ff 15 00 00 00
	00		 call	 DWORD PTR __imp_??1?$basic_string@DU?$char_traits@D@std@@V?$allocator@D@2@@std@@QAE@XZ
  0000b	3b f4		 cmp	 esi, esp
  0000d	e9 00 00 00 00	 jmp	 __RTC_CheckEsp
$L93163:
  00012	8b 45 d4	 mov	 eax, DWORD PTR $T93164[ebp]
  00015	83 e0 01	 and	 eax, 1
  00018	0f 84 16 00 00
	00		 je	 $L93165
  0001e	83 65 d4 fe	 and	 DWORD PTR $T93164[ebp], -2 ; fffffffeH
  00022	8b f4		 mov	 esi, esp
  00024	8b 4d 08	 mov	 ecx, DWORD PTR ___$ReturnUdt$[ebp]
  00027	ff 15 00 00 00
	00		 call	 DWORD PTR __imp_??1?$basic_string@DU?$char_traits@D@std@@V?$allocator@D@2@@std@@QAE@XZ
  0002d	3b f4		 cmp	 esi, esp
  0002f	e9 00 00 00 00	 jmp	 __RTC_CheckEsp
$L93165:
  00034	c3		 ret	 0
__ehhandler$??$?HDU?$char_traits@D@std@@V?$allocator@D@1@@std@@YA?AV?$basic_string@DU?$char_traits@D@std@@V?$allocator@D@2@@0@PBDABV10@@Z:
  00035	b8 00 00 00 00	 mov	 eax, OFFSET FLAT:$T93167
  0003a	e9 00 00 00 00	 jmp	 ___CxxFrameHandler
text$x	ENDS
??$?HDU?$char_traits@D@std@@V?$allocator@D@1@@std@@YA?AV?$basic_string@DU?$char_traits@D@std@@V?$allocator@D@2@@0@PBDABV10@@Z ENDP ; std::operator+<char,std::char_traits<char>,std::allocator<char> >
PUBLIC	??$?HDU?$char_traits@D@std@@V?$allocator@D@1@@std@@YA?AV?$basic_string@DU?$char_traits@D@std@@V?$allocator@D@2@@0@DABV10@@Z ; std::operator+<char,std::char_traits<char>,std::allocator<char> >
EXTRN	__imp_??0?$basic_string@DU?$char_traits@D@std@@V?$allocator@D@2@@std@@QAE@ID@Z:NEAR
;	COMDAT xdata$x
xdata$x	SEGMENT
$T93181	DD	0ffffffffH
	DD	FLAT:$L93175
	DD	00H
	DD	FLAT:$L93174
$T93179	DD	019930520H
	DD	02H
	DD	FLAT:$T93181
	DD	2 DUP(00H)
	DD	2 DUP(00H)
; Function compile flags: /Odt /RTCsu
xdata$x	ENDS
;	COMDAT ??$?HDU?$char_traits@D@std@@V?$allocator@D@1@@std@@YA?AV?$basic_string@DU?$char_traits@D@std@@V?$allocator@D@2@@0@DABV10@@Z
_TEXT	SEGMENT
tv78 = -52						; size = 4
tv83 = -48						; size = 4
$T93176 = -44						; size = 4
$T93173 = -40						; size = 28
__$EHRec$ = -12						; size = 12
___$ReturnUdt$ = 8					; size = 4
__Left$ = 12						; size = 1
__Right$ = 16						; size = 4
??$?HDU?$char_traits@D@std@@V?$allocator@D@1@@std@@YA?AV?$basic_string@DU?$char_traits@D@std@@V?$allocator@D@2@@0@DABV10@@Z PROC NEAR ; std::operator+<char,std::char_traits<char>,std::allocator<char> >, COMDAT

; 41   : 	{	// return character + string

  00000	55		 push	 ebp
  00001	8b ec		 mov	 ebp, esp
  00003	6a ff		 push	 -1
  00005	68 00 00 00 00	 push	 __ehhandler$??$?HDU?$char_traits@D@std@@V?$allocator@D@1@@std@@YA?AV?$basic_string@DU?$char_traits@D@std@@V?$allocator@D@2@@0@DABV10@@Z
  0000a	64 a1 00 00 00
	00		 mov	 eax, DWORD PTR fs:__except_list
  00010	50		 push	 eax
  00011	64 89 25 00 00
	00 00		 mov	 DWORD PTR fs:__except_list, esp
  00018	83 ec 28	 sub	 esp, 40			; 00000028H
  0001b	56		 push	 esi
  0001c	57		 push	 edi
  0001d	8d 7d cc	 lea	 edi, DWORD PTR [ebp-52]
  00020	b9 0a 00 00 00	 mov	 ecx, 10			; 0000000aH
  00025	b8 cc cc cc cc	 mov	 eax, -858993460		; ccccccccH
  0002a	f3 ab		 rep stosd
  0002c	c7 45 d4 00 00
	00 00		 mov	 DWORD PTR $T93176[ebp], 0

; 42   : 	return (basic_string<_Elem, _Traits, _Alloc>(1, _Left) += _Right);

  00033	8b f4		 mov	 esi, esp
  00035	8a 45 0c	 mov	 al, BYTE PTR __Left$[ebp]
  00038	50		 push	 eax
  00039	6a 01		 push	 1
  0003b	8d 4d d8	 lea	 ecx, DWORD PTR $T93173[ebp]
  0003e	ff 15 00 00 00
	00		 call	 DWORD PTR __imp_??0?$basic_string@DU?$char_traits@D@std@@V?$allocator@D@2@@std@@QAE@ID@Z
  00044	3b f4		 cmp	 esi, esp
  00046	e8 00 00 00 00	 call	 __RTC_CheckEsp
  0004b	89 45 d0	 mov	 DWORD PTR tv83[ebp], eax
  0004e	8b 4d d0	 mov	 ecx, DWORD PTR tv83[ebp]
  00051	89 4d cc	 mov	 DWORD PTR tv78[ebp], ecx
  00054	c7 45 fc 01 00
	00 00		 mov	 DWORD PTR __$EHRec$[ebp+8], 1
  0005b	8b f4		 mov	 esi, esp
  0005d	8b 55 10	 mov	 edx, DWORD PTR __Right$[ebp]
  00060	52		 push	 edx
  00061	8b 4d cc	 mov	 ecx, DWORD PTR tv78[ebp]
  00064	ff 15 00 00 00
	00		 call	 DWORD PTR __imp_??Y?$basic_string@DU?$char_traits@D@std@@V?$allocator@D@2@@std@@QAEAAV01@ABV01@@Z
  0006a	3b f4		 cmp	 esi, esp
  0006c	e8 00 00 00 00	 call	 __RTC_CheckEsp
  00071	8b f4		 mov	 esi, esp
  00073	50		 push	 eax
  00074	8b 4d 08	 mov	 ecx, DWORD PTR ___$ReturnUdt$[ebp]
  00077	ff 15 00 00 00
	00		 call	 DWORD PTR __imp_??0?$basic_string@DU?$char_traits@D@std@@V?$allocator@D@2@@std@@QAE@ABV01@@Z
  0007d	3b f4		 cmp	 esi, esp
  0007f	e8 00 00 00 00	 call	 __RTC_CheckEsp
  00084	8b 45 d4	 mov	 eax, DWORD PTR $T93176[ebp]
  00087	83 c8 01	 or	 eax, 1
  0008a	89 45 d4	 mov	 DWORD PTR $T93176[ebp], eax
  0008d	c6 45 fc 00	 mov	 BYTE PTR __$EHRec$[ebp+8], 0
  00091	8b f4		 mov	 esi, esp
  00093	8d 4d d8	 lea	 ecx, DWORD PTR $T93173[ebp]
  00096	ff 15 00 00 00
	00		 call	 DWORD PTR __imp_??1?$basic_string@DU?$char_traits@D@std@@V?$allocator@D@2@@std@@QAE@XZ
  0009c	3b f4		 cmp	 esi, esp
  0009e	e8 00 00 00 00	 call	 __RTC_CheckEsp
  000a3	8b 45 08	 mov	 eax, DWORD PTR ___$ReturnUdt$[ebp]

; 43   : 	}

  000a6	8b 4d f4	 mov	 ecx, DWORD PTR __$EHRec$[ebp]
  000a9	64 89 0d 00 00
	00 00		 mov	 DWORD PTR fs:__except_list, ecx
  000b0	5f		 pop	 edi
  000b1	5e		 pop	 esi
  000b2	83 c4 34	 add	 esp, 52			; 00000034H
  000b5	3b ec		 cmp	 ebp, esp
  000b7	e8 00 00 00 00	 call	 __RTC_CheckEsp
  000bc	8b e5		 mov	 esp, ebp
  000be	5d		 pop	 ebp
  000bf	c3		 ret	 0
_TEXT	ENDS
;	COMDAT text$x
text$x	SEGMENT
$L93174:
  00000	8b f4		 mov	 esi, esp
  00002	8d 4d d8	 lea	 ecx, DWORD PTR $T93173[ebp]
  00005	ff 15 00 00 00
	00		 call	 DWORD PTR __imp_??1?$basic_string@DU?$char_traits@D@std@@V?$allocator@D@2@@std@@QAE@XZ
  0000b	3b f4		 cmp	 esi, esp
  0000d	e9 00 00 00 00	 jmp	 __RTC_CheckEsp
$L93175:
  00012	8b 45 d4	 mov	 eax, DWORD PTR $T93176[ebp]
  00015	83 e0 01	 and	 eax, 1
  00018	0f 84 16 00 00
	00		 je	 $L93177
  0001e	83 65 d4 fe	 and	 DWORD PTR $T93176[ebp], -2 ; fffffffeH
  00022	8b f4		 mov	 esi, esp
  00024	8b 4d 08	 mov	 ecx, DWORD PTR ___$ReturnUdt$[ebp]
  00027	ff 15 00 00 00
	00		 call	 DWORD PTR __imp_??1?$basic_string@DU?$char_traits@D@std@@V?$allocator@D@2@@std@@QAE@XZ
  0002d	3b f4		 cmp	 esi, esp
  0002f	e9 00 00 00 00	 jmp	 __RTC_CheckEsp
$L93177:
  00034	c3		 ret	 0
__ehhandler$??$?HDU?$char_traits@D@std@@V?$allocator@D@1@@std@@YA?AV?$basic_string@DU?$char_traits@D@std@@V?$allocator@D@2@@0@DABV10@@Z:
  00035	b8 00 00 00 00	 mov	 eax, OFFSET FLAT:$T93179
  0003a	e9 00 00 00 00	 jmp	 ___CxxFrameHandler
text$x	ENDS
??$?HDU?$char_traits@D@std@@V?$allocator@D@1@@std@@YA?AV?$basic_string@DU?$char_traits@D@std@@V?$allocator@D@2@@0@DABV10@@Z ENDP ; std::operator+<char,std::char_traits<char>,std::allocator<char> >
PUBLIC	??$?HDU?$char_traits@D@std@@V?$allocator@D@1@@std@@YA?AV?$basic_string@DU?$char_traits@D@std@@V?$allocator@D@2@@0@ABV10@PBD@Z ; std::operator+<char,std::char_traits<char>,std::allocator<char> >
EXTRN	__imp_??Y?$basic_string@DU?$char_traits@D@std@@V?$allocator@D@2@@std@@QAEAAV01@PBD@Z:NEAR
;	COMDAT xdata$x
xdata$x	SEGMENT
$T93193	DD	0ffffffffH
	DD	FLAT:$L93187
	DD	00H
	DD	FLAT:$L93186
$T93191	DD	019930520H
	DD	02H
	DD	FLAT:$T93193
	DD	2 DUP(00H)
	DD	2 DUP(00H)
; Function compile flags: /Odt /RTCsu
xdata$x	ENDS
;	COMDAT ??$?HDU?$char_traits@D@std@@V?$allocator@D@1@@std@@YA?AV?$basic_string@DU?$char_traits@D@std@@V?$allocator@D@2@@0@ABV10@PBD@Z
_TEXT	SEGMENT
tv77 = -52						; size = 4
tv82 = -48						; size = 4
$T93188 = -44						; size = 4
$T93185 = -40						; size = 28
__$EHRec$ = -12						; size = 12
___$ReturnUdt$ = 8					; size = 4
__Left$ = 12						; size = 4
__Right$ = 16						; size = 4
??$?HDU?$char_traits@D@std@@V?$allocator@D@1@@std@@YA?AV?$basic_string@DU?$char_traits@D@std@@V?$allocator@D@2@@0@ABV10@PBD@Z PROC NEAR ; std::operator+<char,std::char_traits<char>,std::allocator<char> >, COMDAT

; 51   : 	{	// return string + NTCS

  00000	55		 push	 ebp
  00001	8b ec		 mov	 ebp, esp
  00003	6a ff		 push	 -1
  00005	68 00 00 00 00	 push	 __ehhandler$??$?HDU?$char_traits@D@std@@V?$allocator@D@1@@std@@YA?AV?$basic_string@DU?$char_traits@D@std@@V?$allocator@D@2@@0@ABV10@PBD@Z
  0000a	64 a1 00 00 00
	00		 mov	 eax, DWORD PTR fs:__except_list
  00010	50		 push	 eax
  00011	64 89 25 00 00
	00 00		 mov	 DWORD PTR fs:__except_list, esp
  00018	83 ec 28	 sub	 esp, 40			; 00000028H
  0001b	56		 push	 esi
  0001c	57		 push	 edi
  0001d	8d 7d cc	 lea	 edi, DWORD PTR [ebp-52]
  00020	b9 0a 00 00 00	 mov	 ecx, 10			; 0000000aH
  00025	b8 cc cc cc cc	 mov	 eax, -858993460		; ccccccccH
  0002a	f3 ab		 rep stosd
  0002c	c7 45 d4 00 00
	00 00		 mov	 DWORD PTR $T93188[ebp], 0

; 52   : 	return (basic_string<_Elem, _Traits, _Alloc>(_Left) += _Right);

  00033	8b f4		 mov	 esi, esp
  00035	8b 45 0c	 mov	 eax, DWORD PTR __Left$[ebp]
  00038	50		 push	 eax
  00039	8d 4d d8	 lea	 ecx, DWORD PTR $T93185[ebp]
  0003c	ff 15 00 00 00
	00		 call	 DWORD PTR __imp_??0?$basic_string@DU?$char_traits@D@std@@V?$allocator@D@2@@std@@QAE@ABV01@@Z
  00042	3b f4		 cmp	 esi, esp
  00044	e8 00 00 00 00	 call	 __RTC_CheckEsp
  00049	89 45 d0	 mov	 DWORD PTR tv82[ebp], eax
  0004c	8b 4d d0	 mov	 ecx, DWORD PTR tv82[ebp]
  0004f	89 4d cc	 mov	 DWORD PTR tv77[ebp], ecx
  00052	c7 45 fc 01 00
	00 00		 mov	 DWORD PTR __$EHRec$[ebp+8], 1
  00059	8b f4		 mov	 esi, esp
  0005b	8b 55 10	 mov	 edx, DWORD PTR __Right$[ebp]
  0005e	52		 push	 edx
  0005f	8b 4d cc	 mov	 ecx, DWORD PTR tv77[ebp]
  00062	ff 15 00 00 00
	00		 call	 DWORD PTR __imp_??Y?$basic_string@DU?$char_traits@D@std@@V?$allocator@D@2@@std@@QAEAAV01@PBD@Z
  00068	3b f4		 cmp	 esi, esp
  0006a	e8 00 00 00 00	 call	 __RTC_CheckEsp
  0006f	8b f4		 mov	 esi, esp
  00071	50		 push	 eax
  00072	8b 4d 08	 mov	 ecx, DWORD PTR ___$ReturnUdt$[ebp]
  00075	ff 15 00 00 00
	00		 call	 DWORD PTR __imp_??0?$basic_string@DU?$char_traits@D@std@@V?$allocator@D@2@@std@@QAE@ABV01@@Z
  0007b	3b f4		 cmp	 esi, esp
  0007d	e8 00 00 00 00	 call	 __RTC_CheckEsp
  00082	8b 45 d4	 mov	 eax, DWORD PTR $T93188[ebp]
  00085	83 c8 01	 or	 eax, 1
  00088	89 45 d4	 mov	 DWORD PTR $T93188[ebp], eax
  0008b	c6 45 fc 00	 mov	 BYTE PTR __$EHRec$[ebp+8], 0
  0008f	8b f4		 mov	 esi, esp
  00091	8d 4d d8	 lea	 ecx, DWORD PTR $T93185[ebp]
  00094	ff 15 00 00 00
	00		 call	 DWORD PTR __imp_??1?$basic_string@DU?$char_traits@D@std@@V?$allocator@D@2@@std@@QAE@XZ
  0009a	3b f4		 cmp	 esi, esp
  0009c	e8 00 00 00 00	 call	 __RTC_CheckEsp
  000a1	8b 45 08	 mov	 eax, DWORD PTR ___$ReturnUdt$[ebp]

; 53   : 	}

  000a4	8b 4d f4	 mov	 ecx, DWORD PTR __$EHRec$[ebp]
  000a7	64 89 0d 00 00
	00 00		 mov	 DWORD PTR fs:__except_list, ecx
  000ae	5f		 pop	 edi
  000af	5e		 pop	 esi
  000b0	83 c4 34	 add	 esp, 52			; 00000034H
  000b3	3b ec		 cmp	 ebp, esp
  000b5	e8 00 00 00 00	 call	 __RTC_CheckEsp
  000ba	8b e5		 mov	 esp, ebp
  000bc	5d		 pop	 ebp
  000bd	c3		 ret	 0
_TEXT	ENDS
;	COMDAT text$x
text$x	SEGMENT
$L93186:
  00000	8b f4		 mov	 esi, esp
  00002	8d 4d d8	 lea	 ecx, DWORD PTR $T93185[ebp]
  00005	ff 15 00 00 00
	00		 call	 DWORD PTR __imp_??1?$basic_string@DU?$char_traits@D@std@@V?$allocator@D@2@@std@@QAE@XZ
  0000b	3b f4		 cmp	 esi, esp
  0000d	e9 00 00 00 00	 jmp	 __RTC_CheckEsp
$L93187:
  00012	8b 45 d4	 mov	 eax, DWORD PTR $T93188[ebp]
  00015	83 e0 01	 and	 eax, 1
  00018	0f 84 16 00 00
	00		 je	 $L93189
  0001e	83 65 d4 fe	 and	 DWORD PTR $T93188[ebp], -2 ; fffffffeH
  00022	8b f4		 mov	 esi, esp
  00024	8b 4d 08	 mov	 ecx, DWORD PTR ___$ReturnUdt$[ebp]
  00027	ff 15 00 00 00
	00		 call	 DWORD PTR __imp_??1?$basic_string@DU?$char_traits@D@std@@V?$allocator@D@2@@std@@QAE@XZ
  0002d	3b f4		 cmp	 esi, esp
  0002f	e9 00 00 00 00	 jmp	 __RTC_CheckEsp
$L93189:
  00034	c3		 ret	 0
__ehhandler$??$?HDU?$char_traits@D@std@@V?$allocator@D@1@@std@@YA?AV?$basic_string@DU?$char_traits@D@std@@V?$allocator@D@2@@0@ABV10@PBD@Z:
  00035	b8 00 00 00 00	 mov	 eax, OFFSET FLAT:$T93191
  0003a	e9 00 00 00 00	 jmp	 ___CxxFrameHandler
text$x	ENDS
??$?HDU?$char_traits@D@std@@V?$allocator@D@1@@std@@YA?AV?$basic_string@DU?$char_traits@D@std@@V?$allocator@D@2@@0@ABV10@PBD@Z ENDP ; std::operator+<char,std::char_traits<char>,std::allocator<char> >
PUBLIC	??$?HDU?$char_traits@D@std@@V?$allocator@D@1@@std@@YA?AV?$basic_string@DU?$char_traits@D@std@@V?$allocator@D@2@@0@ABV10@D@Z ; std::operator+<char,std::char_traits<char>,std::allocator<char> >
EXTRN	__imp_??Y?$basic_string@DU?$char_traits@D@std@@V?$allocator@D@2@@std@@QAEAAV01@D@Z:NEAR
;	COMDAT xdata$x
xdata$x	SEGMENT
$T93205	DD	0ffffffffH
	DD	FLAT:$L93199
	DD	00H
	DD	FLAT:$L93198
$T93203	DD	019930520H
	DD	02H
	DD	FLAT:$T93205
	DD	2 DUP(00H)
	DD	2 DUP(00H)
; Function compile flags: /Odt /RTCsu
xdata$x	ENDS
;	COMDAT ??$?HDU?$char_traits@D@std@@V?$allocator@D@1@@std@@YA?AV?$basic_string@DU?$char_traits@D@std@@V?$allocator@D@2@@0@ABV10@D@Z
_TEXT	SEGMENT
tv77 = -52						; size = 4
tv82 = -48						; size = 4
$T93200 = -44						; size = 4
$T93197 = -40						; size = 28
__$EHRec$ = -12						; size = 12
___$ReturnUdt$ = 8					; size = 4
__Left$ = 12						; size = 4
__Right$ = 16						; size = 1
??$?HDU?$char_traits@D@std@@V?$allocator@D@1@@std@@YA?AV?$basic_string@DU?$char_traits@D@std@@V?$allocator@D@2@@0@ABV10@D@Z PROC NEAR ; std::operator+<char,std::char_traits<char>,std::allocator<char> >, COMDAT

; 61   : 	{	// return string + character

  00000	55		 push	 ebp
  00001	8b ec		 mov	 ebp, esp
  00003	6a ff		 push	 -1
  00005	68 00 00 00 00	 push	 __ehhandler$??$?HDU?$char_traits@D@std@@V?$allocator@D@1@@std@@YA?AV?$basic_string@DU?$char_traits@D@std@@V?$allocator@D@2@@0@ABV10@D@Z
  0000a	64 a1 00 00 00
	00		 mov	 eax, DWORD PTR fs:__except_list
  00010	50		 push	 eax
  00011	64 89 25 00 00
	00 00		 mov	 DWORD PTR fs:__except_list, esp
  00018	83 ec 28	 sub	 esp, 40			; 00000028H
  0001b	56		 push	 esi
  0001c	57		 push	 edi
  0001d	8d 7d cc	 lea	 edi, DWORD PTR [ebp-52]
  00020	b9 0a 00 00 00	 mov	 ecx, 10			; 0000000aH
  00025	b8 cc cc cc cc	 mov	 eax, -858993460		; ccccccccH
  0002a	f3 ab		 rep stosd
  0002c	c7 45 d4 00 00
	00 00		 mov	 DWORD PTR $T93200[ebp], 0

; 62   : 	return (basic_string<_Elem, _Traits, _Alloc>(_Left) += _Right);

  00033	8b f4		 mov	 esi, esp
  00035	8b 45 0c	 mov	 eax, DWORD PTR __Left$[ebp]
  00038	50		 push	 eax
  00039	8d 4d d8	 lea	 ecx, DWORD PTR $T93197[ebp]
  0003c	ff 15 00 00 00
	00		 call	 DWORD PTR __imp_??0?$basic_string@DU?$char_traits@D@std@@V?$allocator@D@2@@std@@QAE@ABV01@@Z
  00042	3b f4		 cmp	 esi, esp
  00044	e8 00 00 00 00	 call	 __RTC_CheckEsp
  00049	89 45 d0	 mov	 DWORD PTR tv82[ebp], eax
  0004c	8b 4d d0	 mov	 ecx, DWORD PTR tv82[ebp]
  0004f	89 4d cc	 mov	 DWORD PTR tv77[ebp], ecx
  00052	c7 45 fc 01 00
	00 00		 mov	 DWORD PTR __$EHRec$[ebp+8], 1
  00059	8b f4		 mov	 esi, esp
  0005b	8a 55 10	 mov	 dl, BYTE PTR __Right$[ebp]
  0005e	52		 push	 edx
  0005f	8b 4d cc	 mov	 ecx, DWORD PTR tv77[ebp]
  00062	ff 15 00 00 00
	00		 call	 DWORD PTR __imp_??Y?$basic_string@DU?$char_traits@D@std@@V?$allocator@D@2@@std@@QAEAAV01@D@Z
  00068	3b f4		 cmp	 esi, esp
  0006a	e8 00 00 00 00	 call	 __RTC_CheckEsp
  0006f	8b f4		 mov	 esi, esp
  00071	50		 push	 eax
  00072	8b 4d 08	 mov	 ecx, DWORD PTR ___$ReturnUdt$[ebp]
  00075	ff 15 00 00 00
	00		 call	 DWORD PTR __imp_??0?$basic_string@DU?$char_traits@D@std@@V?$allocator@D@2@@std@@QAE@ABV01@@Z
  0007b	3b f4		 cmp	 esi, esp
  0007d	e8 00 00 00 00	 call	 __RTC_CheckEsp
  00082	8b 45 d4	 mov	 eax, DWORD PTR $T93200[ebp]
  00085	83 c8 01	 or	 eax, 1
  00088	89 45 d4	 mov	 DWORD PTR $T93200[ebp], eax
  0008b	c6 45 fc 00	 mov	 BYTE PTR __$EHRec$[ebp+8], 0
  0008f	8b f4		 mov	 esi, esp
  00091	8d 4d d8	 lea	 ecx, DWORD PTR $T93197[ebp]
  00094	ff 15 00 00 00
	00		 call	 DWORD PTR __imp_??1?$basic_string@DU?$char_traits@D@std@@V?$allocator@D@2@@std@@QAE@XZ
  0009a	3b f4		 cmp	 esi, esp
  0009c	e8 00 00 00 00	 call	 __RTC_CheckEsp
  000a1	8b 45 08	 mov	 eax, DWORD PTR ___$ReturnUdt$[ebp]

; 63   : 	}

  000a4	8b 4d f4	 mov	 ecx, DWORD PTR __$EHRec$[ebp]
  000a7	64 89 0d 00 00
	00 00		 mov	 DWORD PTR fs:__except_list, ecx
  000ae	5f		 pop	 edi
  000af	5e		 pop	 esi
  000b0	83 c4 34	 add	 esp, 52			; 00000034H
  000b3	3b ec		 cmp	 ebp, esp
  000b5	e8 00 00 00 00	 call	 __RTC_CheckEsp
  000ba	8b e5		 mov	 esp, ebp
  000bc	5d		 pop	 ebp
  000bd	c3		 ret	 0
_TEXT	ENDS
;	COMDAT text$x
text$x	SEGMENT
$L93198:
  00000	8b f4		 mov	 esi, esp
  00002	8d 4d d8	 lea	 ecx, DWORD PTR $T93197[ebp]
  00005	ff 15 00 00 00
	00		 call	 DWORD PTR __imp_??1?$basic_string@DU?$char_traits@D@std@@V?$allocator@D@2@@std@@QAE@XZ
  0000b	3b f4		 cmp	 esi, esp
  0000d	e9 00 00 00 00	 jmp	 __RTC_CheckEsp
$L93199:
  00012	8b 45 d4	 mov	 eax, DWORD PTR $T93200[ebp]
  00015	83 e0 01	 and	 eax, 1
  00018	0f 84 16 00 00
	00		 je	 $L93201
  0001e	83 65 d4 fe	 and	 DWORD PTR $T93200[ebp], -2 ; fffffffeH
  00022	8b f4		 mov	 esi, esp
  00024	8b 4d 08	 mov	 ecx, DWORD PTR ___$ReturnUdt$[ebp]
  00027	ff 15 00 00 00
	00		 call	 DWORD PTR __imp_??1?$basic_string@DU?$char_traits@D@std@@V?$allocator@D@2@@std@@QAE@XZ
  0002d	3b f4		 cmp	 esi, esp
  0002f	e9 00 00 00 00	 jmp	 __RTC_CheckEsp
$L93201:
  00034	c3		 ret	 0
__ehhandler$??$?HDU?$char_traits@D@std@@V?$allocator@D@1@@std@@YA?AV?$basic_string@DU?$char_traits@D@std@@V?$allocator@D@2@@0@ABV10@D@Z:
  00035	b8 00 00 00 00	 mov	 eax, OFFSET FLAT:$T93203
  0003a	e9 00 00 00 00	 jmp	 ___CxxFrameHandler
text$x	ENDS
??$?HDU?$char_traits@D@std@@V?$allocator@D@1@@std@@YA?AV?$basic_string@DU?$char_traits@D@std@@V?$allocator@D@2@@0@ABV10@D@Z ENDP ; std::operator+<char,std::char_traits<char>,std::allocator<char> >
PUBLIC	??$?H_WU?$char_traits@_W@std@@V?$allocator@_W@1@@std@@YA?AV?$basic_string@_WU?$char_traits@_W@std@@V?$allocator@_W@2@@0@ABV10@0@Z ; std::operator+<wchar_t,std::char_traits<wchar_t>,std::allocator<wchar_t> >
EXTRN	__imp_??0?$basic_string@_WU?$char_traits@_W@std@@V?$allocator@_W@2@@std@@QAE@ABV01@@Z:NEAR
EXTRN	__imp_??1?$basic_string@_WU?$char_traits@_W@std@@V?$allocator@_W@2@@std@@QAE@XZ:NEAR
EXTRN	__imp_??Y?$basic_string@_WU?$char_traits@_W@std@@V?$allocator@_W@2@@std@@QAEAAV01@ABV01@@Z:NEAR
;	COMDAT xdata$x
xdata$x	SEGMENT
$T93217	DD	0ffffffffH
	DD	FLAT:$L93211
	DD	00H
	DD	FLAT:$L93210
$T93215	DD	019930520H
	DD	02H
	DD	FLAT:$T93217
	DD	2 DUP(00H)
	DD	2 DUP(00H)
; Function compile flags: /Odt /RTCsu
xdata$x	ENDS
;	COMDAT ??$?H_WU?$char_traits@_W@std@@V?$allocator@_W@1@@std@@YA?AV?$basic_string@_WU?$char_traits@_W@std@@V?$allocator@_W@2@@0@ABV10@0@Z
_TEXT	SEGMENT
tv77 = -52						; size = 4
tv82 = -48						; size = 4
$T93212 = -44						; size = 4
$T93209 = -40						; size = 28
__$EHRec$ = -12						; size = 12
___$ReturnUdt$ = 8					; size = 4
__Left$ = 12						; size = 4
__Right$ = 16						; size = 4
??$?H_WU?$char_traits@_W@std@@V?$allocator@_W@1@@std@@YA?AV?$basic_string@_WU?$char_traits@_W@std@@V?$allocator@_W@2@@0@ABV10@0@Z PROC NEAR ; std::operator+<wchar_t,std::char_traits<wchar_t>,std::allocator<wchar_t> >, COMDAT

; 21   : 	{	// return string + string

  00000	55		 push	 ebp
  00001	8b ec		 mov	 ebp, esp
  00003	6a ff		 push	 -1
  00005	68 00 00 00 00	 push	 __ehhandler$??$?H_WU?$char_traits@_W@std@@V?$allocator@_W@1@@std@@YA?AV?$basic_string@_WU?$char_traits@_W@std@@V?$allocator@_W@2@@0@ABV10@0@Z
  0000a	64 a1 00 00 00
	00		 mov	 eax, DWORD PTR fs:__except_list
  00010	50		 push	 eax
  00011	64 89 25 00 00
	00 00		 mov	 DWORD PTR fs:__except_list, esp
  00018	83 ec 28	 sub	 esp, 40			; 00000028H
  0001b	56		 push	 esi
  0001c	57		 push	 edi
  0001d	8d 7d cc	 lea	 edi, DWORD PTR [ebp-52]
  00020	b9 0a 00 00 00	 mov	 ecx, 10			; 0000000aH
  00025	b8 cc cc cc cc	 mov	 eax, -858993460		; ccccccccH
  0002a	f3 ab		 rep stosd
  0002c	c7 45 d4 00 00
	00 00		 mov	 DWORD PTR $T93212[ebp], 0

; 22   : 	return (basic_string<_Elem, _Traits, _Alloc>(_Left) += _Right);

  00033	8b f4		 mov	 esi, esp
  00035	8b 45 0c	 mov	 eax, DWORD PTR __Left$[ebp]
  00038	50		 push	 eax
  00039	8d 4d d8	 lea	 ecx, DWORD PTR $T93209[ebp]
  0003c	ff 15 00 00 00
	00		 call	 DWORD PTR __imp_??0?$basic_string@_WU?$char_traits@_W@std@@V?$allocator@_W@2@@std@@QAE@ABV01@@Z
  00042	3b f4		 cmp	 esi, esp
  00044	e8 00 00 00 00	 call	 __RTC_CheckEsp
  00049	89 45 d0	 mov	 DWORD PTR tv82[ebp], eax
  0004c	8b 4d d0	 mov	 ecx, DWORD PTR tv82[ebp]
  0004f	89 4d cc	 mov	 DWORD PTR tv77[ebp], ecx
  00052	c7 45 fc 01 00
	00 00		 mov	 DWORD PTR __$EHRec$[ebp+8], 1
  00059	8b f4		 mov	 esi, esp
  0005b	8b 55 10	 mov	 edx, DWORD PTR __Right$[ebp]
  0005e	52		 push	 edx
  0005f	8b 4d cc	 mov	 ecx, DWORD PTR tv77[ebp]
  00062	ff 15 00 00 00
	00		 call	 DWORD PTR __imp_??Y?$basic_string@_WU?$char_traits@_W@std@@V?$allocator@_W@2@@std@@QAEAAV01@ABV01@@Z
  00068	3b f4		 cmp	 esi, esp
  0006a	e8 00 00 00 00	 call	 __RTC_CheckEsp
  0006f	8b f4		 mov	 esi, esp
  00071	50		 push	 eax
  00072	8b 4d 08	 mov	 ecx, DWORD PTR ___$ReturnUdt$[ebp]
  00075	ff 15 00 00 00
	00		 call	 DWORD PTR __imp_??0?$basic_string@_WU?$char_traits@_W@std@@V?$allocator@_W@2@@std@@QAE@ABV01@@Z
  0007b	3b f4		 cmp	 esi, esp
  0007d	e8 00 00 00 00	 call	 __RTC_CheckEsp
  00082	8b 45 d4	 mov	 eax, DWORD PTR $T93212[ebp]
  00085	83 c8 01	 or	 eax, 1
  00088	89 45 d4	 mov	 DWORD PTR $T93212[ebp], eax
  0008b	c6 45 fc 00	 mov	 BYTE PTR __$EHRec$[ebp+8], 0
  0008f	8b f4		 mov	 esi, esp
  00091	8d 4d d8	 lea	 ecx, DWORD PTR $T93209[ebp]
  00094	ff 15 00 00 00
	00		 call	 DWORD PTR __imp_??1?$basic_string@_WU?$char_traits@_W@std@@V?$allocator@_W@2@@std@@QAE@XZ
  0009a	3b f4		 cmp	 esi, esp
  0009c	e8 00 00 00 00	 call	 __RTC_CheckEsp
  000a1	8b 45 08	 mov	 eax, DWORD PTR ___$ReturnUdt$[ebp]

; 23   : 	}

  000a4	8b 4d f4	 mov	 ecx, DWORD PTR __$EHRec$[ebp]
  000a7	64 89 0d 00 00
	00 00		 mov	 DWORD PTR fs:__except_list, ecx
  000ae	5f		 pop	 edi
  000af	5e		 pop	 esi
  000b0	83 c4 34	 add	 esp, 52			; 00000034H
  000b3	3b ec		 cmp	 ebp, esp
  000b5	e8 00 00 00 00	 call	 __RTC_CheckEsp
  000ba	8b e5		 mov	 esp, ebp
  000bc	5d		 pop	 ebp
  000bd	c3		 ret	 0
_TEXT	ENDS
;	COMDAT text$x
text$x	SEGMENT
$L93210:
  00000	8b f4		 mov	 esi, esp
  00002	8d 4d d8	 lea	 ecx, DWORD PTR $T93209[ebp]
  00005	ff 15 00 00 00
	00		 call	 DWORD PTR __imp_??1?$basic_string@_WU?$char_traits@_W@std@@V?$allocator@_W@2@@std@@QAE@XZ
  0000b	3b f4		 cmp	 esi, esp
  0000d	e9 00 00 00 00	 jmp	 __RTC_CheckEsp
$L93211:
  00012	8b 45 d4	 mov	 eax, DWORD PTR $T93212[ebp]
  00015	83 e0 01	 and	 eax, 1
  00018	0f 84 16 00 00
	00		 je	 $L93213
  0001e	83 65 d4 fe	 and	 DWORD PTR $T93212[ebp], -2 ; fffffffeH
  00022	8b f4		 mov	 esi, esp
  00024	8b 4d 08	 mov	 ecx, DWORD PTR ___$ReturnUdt$[ebp]
  00027	ff 15 00 00 00
	00		 call	 DWORD PTR __imp_??1?$basic_string@_WU?$char_traits@_W@std@@V?$allocator@_W@2@@std@@QAE@XZ
  0002d	3b f4		 cmp	 esi, esp
  0002f	e9 00 00 00 00	 jmp	 __RTC_CheckEsp
$L93213:
  00034	c3		 ret	 0
__ehhandler$??$?H_WU?$char_traits@_W@std@@V?$allocator@_W@1@@std@@YA?AV?$basic_string@_WU?$char_traits@_W@std@@V?$allocator@_W@2@@0@ABV10@0@Z:
  00035	b8 00 00 00 00	 mov	 eax, OFFSET FLAT:$T93215
  0003a	e9 00 00 00 00	 jmp	 ___CxxFrameHandler
text$x	ENDS
??$?H_WU?$char_traits@_W@std@@V?$allocator@_W@1@@std@@YA?AV?$basic_string@_WU?$char_traits@_W@std@@V?$allocator@_W@2@@0@ABV10@0@Z ENDP ; std::operator+<wchar_t,std::char_traits<wchar_t>,std::allocator<wchar_t> >
PUBLIC	??$?H_WU?$char_traits@_W@std@@V?$allocator@_W@1@@std@@YA?AV?$basic_string@_WU?$char_traits@_W@std@@V?$allocator@_W@2@@0@PB_WABV10@@Z ; std::operator+<wchar_t,std::char_traits<wchar_t>,std::allocator<wchar_t> >
EXTRN	__imp_??0?$basic_string@_WU?$char_traits@_W@std@@V?$allocator@_W@2@@std@@QAE@PB_W@Z:NEAR
;	COMDAT xdata$x
xdata$x	SEGMENT
$T93229	DD	0ffffffffH
	DD	FLAT:$L93223
	DD	00H
	DD	FLAT:$L93222
$T93227	DD	019930520H
	DD	02H
	DD	FLAT:$T93229
	DD	2 DUP(00H)
	DD	2 DUP(00H)
; Function compile flags: /Odt /RTCsu
xdata$x	ENDS
;	COMDAT ??$?H_WU?$char_traits@_W@std@@V?$allocator@_W@1@@std@@YA?AV?$basic_string@_WU?$char_traits@_W@std@@V?$allocator@_W@2@@0@PB_WABV10@@Z
_TEXT	SEGMENT
tv77 = -52						; size = 4
tv82 = -48						; size = 4
$T93224 = -44						; size = 4
$T93221 = -40						; size = 28
__$EHRec$ = -12						; size = 12
___$ReturnUdt$ = 8					; size = 4
__Left$ = 12						; size = 4
__Right$ = 16						; size = 4
??$?H_WU?$char_traits@_W@std@@V?$allocator@_W@1@@std@@YA?AV?$basic_string@_WU?$char_traits@_W@std@@V?$allocator@_W@2@@0@PB_WABV10@@Z PROC NEAR ; std::operator+<wchar_t,std::char_traits<wchar_t>,std::allocator<wchar_t> >, COMDAT

; 31   : 	{	// return NTCS + string

  00000	55		 push	 ebp
  00001	8b ec		 mov	 ebp, esp
  00003	6a ff		 push	 -1
  00005	68 00 00 00 00	 push	 __ehhandler$??$?H_WU?$char_traits@_W@std@@V?$allocator@_W@1@@std@@YA?AV?$basic_string@_WU?$char_traits@_W@std@@V?$allocator@_W@2@@0@PB_WABV10@@Z
  0000a	64 a1 00 00 00
	00		 mov	 eax, DWORD PTR fs:__except_list
  00010	50		 push	 eax
  00011	64 89 25 00 00
	00 00		 mov	 DWORD PTR fs:__except_list, esp
  00018	83 ec 28	 sub	 esp, 40			; 00000028H
  0001b	56		 push	 esi
  0001c	57		 push	 edi
  0001d	8d 7d cc	 lea	 edi, DWORD PTR [ebp-52]
  00020	b9 0a 00 00 00	 mov	 ecx, 10			; 0000000aH
  00025	b8 cc cc cc cc	 mov	 eax, -858993460		; ccccccccH
  0002a	f3 ab		 rep stosd
  0002c	c7 45 d4 00 00
	00 00		 mov	 DWORD PTR $T93224[ebp], 0

; 32   : 	return (basic_string<_Elem, _Traits, _Alloc>(_Left) += _Right);

  00033	8b f4		 mov	 esi, esp
  00035	8b 45 0c	 mov	 eax, DWORD PTR __Left$[ebp]
  00038	50		 push	 eax
  00039	8d 4d d8	 lea	 ecx, DWORD PTR $T93221[ebp]
  0003c	ff 15 00 00 00
	00		 call	 DWORD PTR __imp_??0?$basic_string@_WU?$char_traits@_W@std@@V?$allocator@_W@2@@std@@QAE@PB_W@Z
  00042	3b f4		 cmp	 esi, esp
  00044	e8 00 00 00 00	 call	 __RTC_CheckEsp
  00049	89 45 d0	 mov	 DWORD PTR tv82[ebp], eax
  0004c	8b 4d d0	 mov	 ecx, DWORD PTR tv82[ebp]
  0004f	89 4d cc	 mov	 DWORD PTR tv77[ebp], ecx
  00052	c7 45 fc 01 00
	00 00		 mov	 DWORD PTR __$EHRec$[ebp+8], 1
  00059	8b f4		 mov	 esi, esp
  0005b	8b 55 10	 mov	 edx, DWORD PTR __Right$[ebp]
  0005e	52		 push	 edx
  0005f	8b 4d cc	 mov	 ecx, DWORD PTR tv77[ebp]
  00062	ff 15 00 00 00
	00		 call	 DWORD PTR __imp_??Y?$basic_string@_WU?$char_traits@_W@std@@V?$allocator@_W@2@@std@@QAEAAV01@ABV01@@Z
  00068	3b f4		 cmp	 esi, esp
  0006a	e8 00 00 00 00	 call	 __RTC_CheckEsp
  0006f	8b f4		 mov	 esi, esp
  00071	50		 push	 eax
  00072	8b 4d 08	 mov	 ecx, DWORD PTR ___$ReturnUdt$[ebp]
  00075	ff 15 00 00 00
	00		 call	 DWORD PTR __imp_??0?$basic_string@_WU?$char_traits@_W@std@@V?$allocator@_W@2@@std@@QAE@ABV01@@Z
  0007b	3b f4		 cmp	 esi, esp
  0007d	e8 00 00 00 00	 call	 __RTC_CheckEsp
  00082	8b 45 d4	 mov	 eax, DWORD PTR $T93224[ebp]
  00085	83 c8 01	 or	 eax, 1
  00088	89 45 d4	 mov	 DWORD PTR $T93224[ebp], eax
  0008b	c6 45 fc 00	 mov	 BYTE PTR __$EHRec$[ebp+8], 0
  0008f	8b f4		 mov	 esi, esp
  00091	8d 4d d8	 lea	 ecx, DWORD PTR $T93221[ebp]
  00094	ff 15 00 00 00
	00		 call	 DWORD PTR __imp_??1?$basic_string@_WU?$char_traits@_W@std@@V?$allocator@_W@2@@std@@QAE@XZ
  0009a	3b f4		 cmp	 esi, esp
  0009c	e8 00 00 00 00	 call	 __RTC_CheckEsp
  000a1	8b 45 08	 mov	 eax, DWORD PTR ___$ReturnUdt$[ebp]

; 33   : 	}

  000a4	8b 4d f4	 mov	 ecx, DWORD PTR __$EHRec$[ebp]
  000a7	64 89 0d 00 00
	00 00		 mov	 DWORD PTR fs:__except_list, ecx
  000ae	5f		 pop	 edi
  000af	5e		 pop	 esi
  000b0	83 c4 34	 add	 esp, 52			; 00000034H
  000b3	3b ec		 cmp	 ebp, esp
  000b5	e8 00 00 00 00	 call	 __RTC_CheckEsp
  000ba	8b e5		 mov	 esp, ebp
  000bc	5d		 pop	 ebp
  000bd	c3		 ret	 0
_TEXT	ENDS
;	COMDAT text$x
text$x	SEGMENT
$L93222:
  00000	8b f4		 mov	 esi, esp
  00002	8d 4d d8	 lea	 ecx, DWORD PTR $T93221[ebp]
  00005	ff 15 00 00 00
	00		 call	 DWORD PTR __imp_??1?$basic_string@_WU?$char_traits@_W@std@@V?$allocator@_W@2@@std@@QAE@XZ
  0000b	3b f4		 cmp	 esi, esp
  0000d	e9 00 00 00 00	 jmp	 __RTC_CheckEsp
$L93223:
  00012	8b 45 d4	 mov	 eax, DWORD PTR $T93224[ebp]
  00015	83 e0 01	 and	 eax, 1
  00018	0f 84 16 00 00
	00		 je	 $L93225
  0001e	83 65 d4 fe	 and	 DWORD PTR $T93224[ebp], -2 ; fffffffeH
  00022	8b f4		 mov	 esi, esp
  00024	8b 4d 08	 mov	 ecx, DWORD PTR ___$ReturnUdt$[ebp]
  00027	ff 15 00 00 00
	00		 call	 DWORD PTR __imp_??1?$basic_string@_WU?$char_traits@_W@std@@V?$allocator@_W@2@@std@@QAE@XZ
  0002d	3b f4		 cmp	 esi, esp
  0002f	e9 00 00 00 00	 jmp	 __RTC_CheckEsp
$L93225:
  00034	c3		 ret	 0
__ehhandler$??$?H_WU?$char_traits@_W@std@@V?$allocator@_W@1@@std@@YA?AV?$basic_string@_WU?$char_traits@_W@std@@V?$allocator@_W@2@@0@PB_WABV10@@Z:
  00035	b8 00 00 00 00	 mov	 eax, OFFSET FLAT:$T93227
  0003a	e9 00 00 00 00	 jmp	 ___CxxFrameHandler
text$x	ENDS
??$?H_WU?$char_traits@_W@std@@V?$allocator@_W@1@@std@@YA?AV?$basic_string@_WU?$char_traits@_W@std@@V?$allocator@_W@2@@0@PB_WABV10@@Z ENDP ; std::operator+<wchar_t,std::char_traits<wchar_t>,std::allocator<wchar_t> >
PUBLIC	??$?H_WU?$char_traits@_W@std@@V?$allocator@_W@1@@std@@YA?AV?$basic_string@_WU?$char_traits@_W@std@@V?$allocator@_W@2@@0@_WABV10@@Z ; std::operator+<wchar_t,std::char_traits<wchar_t>,std::allocator<wchar_t> >
EXTRN	__imp_??0?$basic_string@_WU?$char_traits@_W@std@@V?$allocator@_W@2@@std@@QAE@I_W@Z:NEAR
;	COMDAT xdata$x
xdata$x	SEGMENT
$T93241	DD	0ffffffffH
	DD	FLAT:$L93235
	DD	00H
	DD	FLAT:$L93234
$T93239	DD	019930520H
	DD	02H
	DD	FLAT:$T93241
	DD	2 DUP(00H)
	DD	2 DUP(00H)
; Function compile flags: /Odt /RTCsu
xdata$x	ENDS
;	COMDAT ??$?H_WU?$char_traits@_W@std@@V?$allocator@_W@1@@std@@YA?AV?$basic_string@_WU?$char_traits@_W@std@@V?$allocator@_W@2@@0@_WABV10@@Z
_TEXT	SEGMENT
tv78 = -52						; size = 4
tv83 = -48						; size = 4
$T93236 = -44						; size = 4
$T93233 = -40						; size = 28
__$EHRec$ = -12						; size = 12
___$ReturnUdt$ = 8					; size = 4
__Left$ = 12						; size = 2
__Right$ = 16						; size = 4
??$?H_WU?$char_traits@_W@std@@V?$allocator@_W@1@@std@@YA?AV?$basic_string@_WU?$char_traits@_W@std@@V?$allocator@_W@2@@0@_WABV10@@Z PROC NEAR ; std::operator+<wchar_t,std::char_traits<wchar_t>,std::allocator<wchar_t> >, COMDAT

; 41   : 	{	// return character + string

  00000	55		 push	 ebp
  00001	8b ec		 mov	 ebp, esp
  00003	6a ff		 push	 -1
  00005	68 00 00 00 00	 push	 __ehhandler$??$?H_WU?$char_traits@_W@std@@V?$allocator@_W@1@@std@@YA?AV?$basic_string@_WU?$char_traits@_W@std@@V?$allocator@_W@2@@0@_WABV10@@Z
  0000a	64 a1 00 00 00
	00		 mov	 eax, DWORD PTR fs:__except_list
  00010	50		 push	 eax
  00011	64 89 25 00 00
	00 00		 mov	 DWORD PTR fs:__except_list, esp
  00018	83 ec 28	 sub	 esp, 40			; 00000028H
  0001b	56		 push	 esi
  0001c	57		 push	 edi
  0001d	8d 7d cc	 lea	 edi, DWORD PTR [ebp-52]
  00020	b9 0a 00 00 00	 mov	 ecx, 10			; 0000000aH
  00025	b8 cc cc cc cc	 mov	 eax, -858993460		; ccccccccH
  0002a	f3 ab		 rep stosd
  0002c	c7 45 d4 00 00
	00 00		 mov	 DWORD PTR $T93236[ebp], 0

; 42   : 	return (basic_string<_Elem, _Traits, _Alloc>(1, _Left) += _Right);

  00033	8b f4		 mov	 esi, esp
  00035	66 8b 45 0c	 mov	 ax, WORD PTR __Left$[ebp]
  00039	50		 push	 eax
  0003a	6a 01		 push	 1
  0003c	8d 4d d8	 lea	 ecx, DWORD PTR $T93233[ebp]
  0003f	ff 15 00 00 00
	00		 call	 DWORD PTR __imp_??0?$basic_string@_WU?$char_traits@_W@std@@V?$allocator@_W@2@@std@@QAE@I_W@Z
  00045	3b f4		 cmp	 esi, esp
  00047	e8 00 00 00 00	 call	 __RTC_CheckEsp
  0004c	89 45 d0	 mov	 DWORD PTR tv83[ebp], eax
  0004f	8b 4d d0	 mov	 ecx, DWORD PTR tv83[ebp]
  00052	89 4d cc	 mov	 DWORD PTR tv78[ebp], ecx
  00055	c7 45 fc 01 00
	00 00		 mov	 DWORD PTR __$EHRec$[ebp+8], 1
  0005c	8b f4		 mov	 esi, esp
  0005e	8b 55 10	 mov	 edx, DWORD PTR __Right$[ebp]
  00061	52		 push	 edx
  00062	8b 4d cc	 mov	 ecx, DWORD PTR tv78[ebp]
  00065	ff 15 00 00 00
	00		 call	 DWORD PTR __imp_??Y?$basic_string@_WU?$char_traits@_W@std@@V?$allocator@_W@2@@std@@QAEAAV01@ABV01@@Z
  0006b	3b f4		 cmp	 esi, esp
  0006d	e8 00 00 00 00	 call	 __RTC_CheckEsp
  00072	8b f4		 mov	 esi, esp
  00074	50		 push	 eax
  00075	8b 4d 08	 mov	 ecx, DWORD PTR ___$ReturnUdt$[ebp]
  00078	ff 15 00 00 00
	00		 call	 DWORD PTR __imp_??0?$basic_string@_WU?$char_traits@_W@std@@V?$allocator@_W@2@@std@@QAE@ABV01@@Z
  0007e	3b f4		 cmp	 esi, esp
  00080	e8 00 00 00 00	 call	 __RTC_CheckEsp
  00085	8b 45 d4	 mov	 eax, DWORD PTR $T93236[ebp]
  00088	83 c8 01	 or	 eax, 1
  0008b	89 45 d4	 mov	 DWORD PTR $T93236[ebp], eax
  0008e	c6 45 fc 00	 mov	 BYTE PTR __$EHRec$[ebp+8], 0
  00092	8b f4		 mov	 esi, esp
  00094	8d 4d d8	 lea	 ecx, DWORD PTR $T93233[ebp]
  00097	ff 15 00 00 00
	00		 call	 DWORD PTR __imp_??1?$basic_string@_WU?$char_traits@_W@std@@V?$allocator@_W@2@@std@@QAE@XZ
  0009d	3b f4		 cmp	 esi, esp
  0009f	e8 00 00 00 00	 call	 __RTC_CheckEsp
  000a4	8b 45 08	 mov	 eax, DWORD PTR ___$ReturnUdt$[ebp]

; 43   : 	}

  000a7	8b 4d f4	 mov	 ecx, DWORD PTR __$EHRec$[ebp]
  000aa	64 89 0d 00 00
	00 00		 mov	 DWORD PTR fs:__except_list, ecx
  000b1	5f		 pop	 edi
  000b2	5e		 pop	 esi
  000b3	83 c4 34	 add	 esp, 52			; 00000034H
  000b6	3b ec		 cmp	 ebp, esp
  000b8	e8 00 00 00 00	 call	 __RTC_CheckEsp
  000bd	8b e5		 mov	 esp, ebp
  000bf	5d		 pop	 ebp
  000c0	c3		 ret	 0
_TEXT	ENDS
;	COMDAT text$x
text$x	SEGMENT
$L93234:
  00000	8b f4		 mov	 esi, esp
  00002	8d 4d d8	 lea	 ecx, DWORD PTR $T93233[ebp]
  00005	ff 15 00 00 00
	00		 call	 DWORD PTR __imp_??1?$basic_string@_WU?$char_traits@_W@std@@V?$allocator@_W@2@@std@@QAE@XZ
  0000b	3b f4		 cmp	 esi, esp
  0000d	e9 00 00 00 00	 jmp	 __RTC_CheckEsp
$L93235:
  00012	8b 45 d4	 mov	 eax, DWORD PTR $T93236[ebp]
  00015	83 e0 01	 and	 eax, 1
  00018	0f 84 16 00 00
	00		 je	 $L93237
  0001e	83 65 d4 fe	 and	 DWORD PTR $T93236[ebp], -2 ; fffffffeH
  00022	8b f4		 mov	 esi, esp
  00024	8b 4d 08	 mov	 ecx, DWORD PTR ___$ReturnUdt$[ebp]
  00027	ff 15 00 00 00
	00		 call	 DWORD PTR __imp_??1?$basic_string@_WU?$char_traits@_W@std@@V?$allocator@_W@2@@std@@QAE@XZ
  0002d	3b f4		 cmp	 esi, esp
  0002f	e9 00 00 00 00	 jmp	 __RTC_CheckEsp
$L93237:
  00034	c3		 ret	 0
__ehhandler$??$?H_WU?$char_traits@_W@std@@V?$allocator@_W@1@@std@@YA?AV?$basic_string@_WU?$char_traits@_W@std@@V?$allocator@_W@2@@0@_WABV10@@Z:
  00035	b8 00 00 00 00	 mov	 eax, OFFSET FLAT:$T93239
  0003a	e9 00 00 00 00	 jmp	 ___CxxFrameHandler
text$x	ENDS
??$?H_WU?$char_traits@_W@std@@V?$allocator@_W@1@@std@@YA?AV?$basic_string@_WU?$char_traits@_W@std@@V?$allocator@_W@2@@0@_WABV10@@Z ENDP ; std::operator+<wchar_t,std::char_traits<wchar_t>,std::allocator<wchar_t> >
PUBLIC	??$?H_WU?$char_traits@_W@std@@V?$allocator@_W@1@@std@@YA?AV?$basic_string@_WU?$char_traits@_W@std@@V?$allocator@_W@2@@0@ABV10@PB_W@Z ; std::operator+<wchar_t,std::char_traits<wchar_t>,std::allocator<wchar_t> >
EXTRN	__imp_??Y?$basic_string@_WU?$char_traits@_W@std@@V?$allocator@_W@2@@std@@QAEAAV01@PB_W@Z:NEAR
;	COMDAT xdata$x
xdata$x	SEGMENT
$T93253	DD	0ffffffffH
	DD	FLAT:$L93247
	DD	00H
	DD	FLAT:$L93246
$T93251	DD	019930520H
	DD	02H
	DD	FLAT:$T93253
	DD	2 DUP(00H)
	DD	2 DUP(00H)
; Function compile flags: /Odt /RTCsu
xdata$x	ENDS
;	COMDAT ??$?H_WU?$char_traits@_W@std@@V?$allocator@_W@1@@std@@YA?AV?$basic_string@_WU?$char_traits@_W@std@@V?$allocator@_W@2@@0@ABV10@PB_W@Z
_TEXT	SEGMENT
tv77 = -52						; size = 4
tv82 = -48						; size = 4
$T93248 = -44						; size = 4
$T93245 = -40						; size = 28
__$EHRec$ = -12						; size = 12
___$ReturnUdt$ = 8					; size = 4
__Left$ = 12						; size = 4
__Right$ = 16						; size = 4
??$?H_WU?$char_traits@_W@std@@V?$allocator@_W@1@@std@@YA?AV?$basic_string@_WU?$char_traits@_W@std@@V?$allocator@_W@2@@0@ABV10@PB_W@Z PROC NEAR ; std::operator+<wchar_t,std::char_traits<wchar_t>,std::allocator<wchar_t> >, COMDAT

; 51   : 	{	// return string + NTCS

  00000	55		 push	 ebp
  00001	8b ec		 mov	 ebp, esp
  00003	6a ff		 push	 -1
  00005	68 00 00 00 00	 push	 __ehhandler$??$?H_WU?$char_traits@_W@std@@V?$allocator@_W@1@@std@@YA?AV?$basic_string@_WU?$char_traits@_W@std@@V?$allocator@_W@2@@0@ABV10@PB_W@Z
  0000a	64 a1 00 00 00
	00		 mov	 eax, DWORD PTR fs:__except_list
  00010	50		 push	 eax
  00011	64 89 25 00 00
	00 00		 mov	 DWORD PTR fs:__except_list, esp
  00018	83 ec 28	 sub	 esp, 40			; 00000028H
  0001b	56		 push	 esi
  0001c	57		 push	 edi
  0001d	8d 7d cc	 lea	 edi, DWORD PTR [ebp-52]
  00020	b9 0a 00 00 00	 mov	 ecx, 10			; 0000000aH
  00025	b8 cc cc cc cc	 mov	 eax, -858993460		; ccccccccH
  0002a	f3 ab		 rep stosd
  0002c	c7 45 d4 00 00
	00 00		 mov	 DWORD PTR $T93248[ebp], 0

; 52   : 	return (basic_string<_Elem, _Traits, _Alloc>(_Left) += _Right);

  00033	8b f4		 mov	 esi, esp
  00035	8b 45 0c	 mov	 eax, DWORD PTR __Left$[ebp]
  00038	50		 push	 eax
  00039	8d 4d d8	 lea	 ecx, DWORD PTR $T93245[ebp]
  0003c	ff 15 00 00 00
	00		 call	 DWORD PTR __imp_??0?$basic_string@_WU?$char_traits@_W@std@@V?$allocator@_W@2@@std@@QAE@ABV01@@Z
  00042	3b f4		 cmp	 esi, esp
  00044	e8 00 00 00 00	 call	 __RTC_CheckEsp
  00049	89 45 d0	 mov	 DWORD PTR tv82[ebp], eax
  0004c	8b 4d d0	 mov	 ecx, DWORD PTR tv82[ebp]
  0004f	89 4d cc	 mov	 DWORD PTR tv77[ebp], ecx
  00052	c7 45 fc 01 00
	00 00		 mov	 DWORD PTR __$EHRec$[ebp+8], 1
  00059	8b f4		 mov	 esi, esp
  0005b	8b 55 10	 mov	 edx, DWORD PTR __Right$[ebp]
  0005e	52		 push	 edx
  0005f	8b 4d cc	 mov	 ecx, DWORD PTR tv77[ebp]
  00062	ff 15 00 00 00
	00		 call	 DWORD PTR __imp_??Y?$basic_string@_WU?$char_traits@_W@std@@V?$allocator@_W@2@@std@@QAEAAV01@PB_W@Z
  00068	3b f4		 cmp	 esi, esp
  0006a	e8 00 00 00 00	 call	 __RTC_CheckEsp
  0006f	8b f4		 mov	 esi, esp
  00071	50		 push	 eax
  00072	8b 4d 08	 mov	 ecx, DWORD PTR ___$ReturnUdt$[ebp]
  00075	ff 15 00 00 00
	00		 call	 DWORD PTR __imp_??0?$basic_string@_WU?$char_traits@_W@std@@V?$allocator@_W@2@@std@@QAE@ABV01@@Z
  0007b	3b f4		 cmp	 esi, esp
  0007d	e8 00 00 00 00	 call	 __RTC_CheckEsp
  00082	8b 45 d4	 mov	 eax, DWORD PTR $T93248[ebp]
  00085	83 c8 01	 or	 eax, 1
  00088	89 45 d4	 mov	 DWORD PTR $T93248[ebp], eax
  0008b	c6 45 fc 00	 mov	 BYTE PTR __$EHRec$[ebp+8], 0
  0008f	8b f4		 mov	 esi, esp
  00091	8d 4d d8	 lea	 ecx, DWORD PTR $T93245[ebp]
  00094	ff 15 00 00 00
	00		 call	 DWORD PTR __imp_??1?$basic_string@_WU?$char_traits@_W@std@@V?$allocator@_W@2@@std@@QAE@XZ
  0009a	3b f4		 cmp	 esi, esp
  0009c	e8 00 00 00 00	 call	 __RTC_CheckEsp
  000a1	8b 45 08	 mov	 eax, DWORD PTR ___$ReturnUdt$[ebp]

; 53   : 	}

  000a4	8b 4d f4	 mov	 ecx, DWORD PTR __$EHRec$[ebp]
  000a7	64 89 0d 00 00
	00 00		 mov	 DWORD PTR fs:__except_list, ecx
  000ae	5f		 pop	 edi
  000af	5e		 pop	 esi
  000b0	83 c4 34	 add	 esp, 52			; 00000034H
  000b3	3b ec		 cmp	 ebp, esp
  000b5	e8 00 00 00 00	 call	 __RTC_CheckEsp
  000ba	8b e5		 mov	 esp, ebp
  000bc	5d		 pop	 ebp
  000bd	c3		 ret	 0
_TEXT	ENDS
;	COMDAT text$x
text$x	SEGMENT
$L93246:
  00000	8b f4		 mov	 esi, esp
  00002	8d 4d d8	 lea	 ecx, DWORD PTR $T93245[ebp]
  00005	ff 15 00 00 00
	00		 call	 DWORD PTR __imp_??1?$basic_string@_WU?$char_traits@_W@std@@V?$allocator@_W@2@@std@@QAE@XZ
  0000b	3b f4		 cmp	 esi, esp
  0000d	e9 00 00 00 00	 jmp	 __RTC_CheckEsp
$L93247:
  00012	8b 45 d4	 mov	 eax, DWORD PTR $T93248[ebp]
  00015	83 e0 01	 and	 eax, 1
  00018	0f 84 16 00 00
	00		 je	 $L93249
  0001e	83 65 d4 fe	 and	 DWORD PTR $T93248[ebp], -2 ; fffffffeH
  00022	8b f4		 mov	 esi, esp
  00024	8b 4d 08	 mov	 ecx, DWORD PTR ___$ReturnUdt$[ebp]
  00027	ff 15 00 00 00
	00		 call	 DWORD PTR __imp_??1?$basic_string@_WU?$char_traits@_W@std@@V?$allocator@_W@2@@std@@QAE@XZ
  0002d	3b f4		 cmp	 esi, esp
  0002f	e9 00 00 00 00	 jmp	 __RTC_CheckEsp
$L93249:
  00034	c3		 ret	 0
__ehhandler$??$?H_WU?$char_traits@_W@std@@V?$allocator@_W@1@@std@@YA?AV?$basic_string@_WU?$char_traits@_W@std@@V?$allocator@_W@2@@0@ABV10@PB_W@Z:
  00035	b8 00 00 00 00	 mov	 eax, OFFSET FLAT:$T93251
  0003a	e9 00 00 00 00	 jmp	 ___CxxFrameHandler
text$x	ENDS
??$?H_WU?$char_traits@_W@std@@V?$allocator@_W@1@@std@@YA?AV?$basic_string@_WU?$char_traits@_W@std@@V?$allocator@_W@2@@0@ABV10@PB_W@Z ENDP ; std::operator+<wchar_t,std::char_traits<wchar_t>,std::allocator<wchar_t> >
PUBLIC	??$?H_WU?$char_traits@_W@std@@V?$allocator@_W@1@@std@@YA?AV?$basic_string@_WU?$char_traits@_W@std@@V?$allocator@_W@2@@0@ABV10@_W@Z ; std::operator+<wchar_t,std::char_traits<wchar_t>,std::allocator<wchar_t> >
EXTRN	__imp_??Y?$basic_string@_WU?$char_traits@_W@std@@V?$allocator@_W@2@@std@@QAEAAV01@_W@Z:NEAR
;	COMDAT xdata$x
xdata$x	SEGMENT
$T93265	DD	0ffffffffH
	DD	FLAT:$L93259
	DD	00H
	DD	FLAT:$L93258
$T93263	DD	019930520H
	DD	02H
	DD	FLAT:$T93265
	DD	2 DUP(00H)
	DD	2 DUP(00H)
; Function compile flags: /Odt /RTCsu
xdata$x	ENDS
;	COMDAT ??$?H_WU?$char_traits@_W@std@@V?$allocator@_W@1@@std@@YA?AV?$basic_string@_WU?$char_traits@_W@std@@V?$allocator@_W@2@@0@ABV10@_W@Z
_TEXT	SEGMENT
tv77 = -52						; size = 4
tv82 = -48						; size = 4
$T93260 = -44						; size = 4
$T93257 = -40						; size = 28
__$EHRec$ = -12						; size = 12
___$ReturnUdt$ = 8					; size = 4
__Left$ = 12						; size = 4
__Right$ = 16						; size = 2
??$?H_WU?$char_traits@_W@std@@V?$allocator@_W@1@@std@@YA?AV?$basic_string@_WU?$char_traits@_W@std@@V?$allocator@_W@2@@0@ABV10@_W@Z PROC NEAR ; std::operator+<wchar_t,std::char_traits<wchar_t>,std::allocator<wchar_t> >, COMDAT

; 61   : 	{	// return string + character

  00000	55		 push	 ebp
  00001	8b ec		 mov	 ebp, esp
  00003	6a ff		 push	 -1
  00005	68 00 00 00 00	 push	 __ehhandler$??$?H_WU?$char_traits@_W@std@@V?$allocator@_W@1@@std@@YA?AV?$basic_string@_WU?$char_traits@_W@std@@V?$allocator@_W@2@@0@ABV10@_W@Z
  0000a	64 a1 00 00 00
	00		 mov	 eax, DWORD PTR fs:__except_list
  00010	50		 push	 eax
  00011	64 89 25 00 00
	00 00		 mov	 DWORD PTR fs:__except_list, esp
  00018	83 ec 28	 sub	 esp, 40			; 00000028H
  0001b	56		 push	 esi
  0001c	57		 push	 edi
  0001d	8d 7d cc	 lea	 edi, DWORD PTR [ebp-52]
  00020	b9 0a 00 00 00	 mov	 ecx, 10			; 0000000aH
  00025	b8 cc cc cc cc	 mov	 eax, -858993460		; ccccccccH
  0002a	f3 ab		 rep stosd
  0002c	c7 45 d4 00 00
	00 00		 mov	 DWORD PTR $T93260[ebp], 0

; 62   : 	return (basic_string<_Elem, _Traits, _Alloc>(_Left) += _Right);

  00033	8b f4		 mov	 esi, esp
  00035	8b 45 0c	 mov	 eax, DWORD PTR __Left$[ebp]
  00038	50		 push	 eax
  00039	8d 4d d8	 lea	 ecx, DWORD PTR $T93257[ebp]
  0003c	ff 15 00 00 00
	00		 call	 DWORD PTR __imp_??0?$basic_string@_WU?$char_traits@_W@std@@V?$allocator@_W@2@@std@@QAE@ABV01@@Z
  00042	3b f4		 cmp	 esi, esp
  00044	e8 00 00 00 00	 call	 __RTC_CheckEsp
  00049	89 45 d0	 mov	 DWORD PTR tv82[ebp], eax
  0004c	8b 4d d0	 mov	 ecx, DWORD PTR tv82[ebp]
  0004f	89 4d cc	 mov	 DWORD PTR tv77[ebp], ecx
  00052	c7 45 fc 01 00
	00 00		 mov	 DWORD PTR __$EHRec$[ebp+8], 1
  00059	8b f4		 mov	 esi, esp
  0005b	66 8b 55 10	 mov	 dx, WORD PTR __Right$[ebp]
  0005f	52		 push	 edx
  00060	8b 4d cc	 mov	 ecx, DWORD PTR tv77[ebp]
  00063	ff 15 00 00 00
	00		 call	 DWORD PTR __imp_??Y?$basic_string@_WU?$char_traits@_W@std@@V?$allocator@_W@2@@std@@QAEAAV01@_W@Z
  00069	3b f4		 cmp	 esi, esp
  0006b	e8 00 00 00 00	 call	 __RTC_CheckEsp
  00070	8b f4		 mov	 esi, esp
  00072	50		 push	 eax
  00073	8b 4d 08	 mov	 ecx, DWORD PTR ___$ReturnUdt$[ebp]
  00076	ff 15 00 00 00
	00		 call	 DWORD PTR __imp_??0?$basic_string@_WU?$char_traits@_W@std@@V?$allocator@_W@2@@std@@QAE@ABV01@@Z
  0007c	3b f4		 cmp	 esi, esp
  0007e	e8 00 00 00 00	 call	 __RTC_CheckEsp
  00083	8b 45 d4	 mov	 eax, DWORD PTR $T93260[ebp]
  00086	83 c8 01	 or	 eax, 1
  00089	89 45 d4	 mov	 DWORD PTR $T93260[ebp], eax
  0008c	c6 45 fc 00	 mov	 BYTE PTR __$EHRec$[ebp+8], 0
  00090	8b f4		 mov	 esi, esp
  00092	8d 4d d8	 lea	 ecx, DWORD PTR $T93257[ebp]
  00095	ff 15 00 00 00
	00		 call	 DWORD PTR __imp_??1?$basic_string@_WU?$char_traits@_W@std@@V?$allocator@_W@2@@std@@QAE@XZ
  0009b	3b f4		 cmp	 esi, esp
  0009d	e8 00 00 00 00	 call	 __RTC_CheckEsp
  000a2	8b 45 08	 mov	 eax, DWORD PTR ___$ReturnUdt$[ebp]

; 63   : 	}

  000a5	8b 4d f4	 mov	 ecx, DWORD PTR __$EHRec$[ebp]
  000a8	64 89 0d 00 00
	00 00		 mov	 DWORD PTR fs:__except_list, ecx
  000af	5f		 pop	 edi
  000b0	5e		 pop	 esi
  000b1	83 c4 34	 add	 esp, 52			; 00000034H
  000b4	3b ec		 cmp	 ebp, esp
  000b6	e8 00 00 00 00	 call	 __RTC_CheckEsp
  000bb	8b e5		 mov	 esp, ebp
  000bd	5d		 pop	 ebp
  000be	c3		 ret	 0
_TEXT	ENDS
;	COMDAT text$x
text$x	SEGMENT
$L93258:
  00000	8b f4		 mov	 esi, esp
  00002	8d 4d d8	 lea	 ecx, DWORD PTR $T93257[ebp]
  00005	ff 15 00 00 00
	00		 call	 DWORD PTR __imp_??1?$basic_string@_WU?$char_traits@_W@std@@V?$allocator@_W@2@@std@@QAE@XZ
  0000b	3b f4		 cmp	 esi, esp
  0000d	e9 00 00 00 00	 jmp	 __RTC_CheckEsp
$L93259:
  00012	8b 45 d4	 mov	 eax, DWORD PTR $T93260[ebp]
  00015	83 e0 01	 and	 eax, 1
  00018	0f 84 16 00 00
	00		 je	 $L93261
  0001e	83 65 d4 fe	 and	 DWORD PTR $T93260[ebp], -2 ; fffffffeH
  00022	8b f4		 mov	 esi, esp
  00024	8b 4d 08	 mov	 ecx, DWORD PTR ___$ReturnUdt$[ebp]
  00027	ff 15 00 00 00
	00		 call	 DWORD PTR __imp_??1?$basic_string@_WU?$char_traits@_W@std@@V?$allocator@_W@2@@std@@QAE@XZ
  0002d	3b f4		 cmp	 esi, esp
  0002f	e9 00 00 00 00	 jmp	 __RTC_CheckEsp
$L93261:
  00034	c3		 ret	 0
__ehhandler$??$?H_WU?$char_traits@_W@std@@V?$allocator@_W@1@@std@@YA?AV?$basic_string@_WU?$char_traits@_W@std@@V?$allocator@_W@2@@0@ABV10@_W@Z:
  00035	b8 00 00 00 00	 mov	 eax, OFFSET FLAT:$T93263
  0003a	e9 00 00 00 00	 jmp	 ___CxxFrameHandler
text$x	ENDS
??$?H_WU?$char_traits@_W@std@@V?$allocator@_W@1@@std@@YA?AV?$basic_string@_WU?$char_traits@_W@std@@V?$allocator@_W@2@@0@ABV10@_W@Z ENDP ; std::operator+<wchar_t,std::char_traits<wchar_t>,std::allocator<wchar_t> >
PUBLIC	??0sentry@?$basic_istream@DU?$char_traits@D@std@@@std@@QAE@AAV12@_N@Z ; std::basic_istream<char,std::char_traits<char> >::sentry::sentry
PUBLIC	??Bsentry@?$basic_istream@DU?$char_traits@D@std@@@std@@QBE_NXZ ; std::basic_istream<char,std::char_traits<char> >::sentry::operator bool
PUBLIC	??1sentry@?$basic_istream@DU?$char_traits@D@std@@@std@@QAE@XZ ; std::basic_istream<char,std::char_traits<char> >::sentry::~sentry
PUBLIC	??$?5DU?$char_traits@D@std@@V?$allocator@D@1@@std@@YAAAV?$basic_istream@DU?$char_traits@D@std@@@0@AAV10@AAV?$basic_string@DU?$char_traits@D@std@@V?$allocator@D@2@@0@@Z ; std::operator>><char,std::char_traits<char>,std::allocator<char> >
PUBLIC	??$use_facet@V?$ctype@D@std@@@std@@YAABV?$ctype@D@0@ABVlocale@0@@Z ; std::use_facet<std::ctype<char> >
EXTRN	__imp_?max_size@?$basic_string@DU?$char_traits@D@std@@V?$allocator@D@2@@std@@QBEIXZ:NEAR
EXTRN	__imp_??1locale@std@@QAE@XZ:NEAR
EXTRN	__imp_?to_char_type@?$char_traits@D@std@@SADABH@Z:NEAR
EXTRN	__imp_?eq_int_type@?$char_traits@D@std@@SA_NABH0@Z:NEAR
EXTRN	__imp_?eof@?$char_traits@D@std@@SAHXZ:NEAR
EXTRN	__imp_?setstate@?$basic_ios@DU?$char_traits@D@std@@@std@@QAEXH_N@Z:NEAR
EXTRN	__imp_?rdbuf@?$basic_ios@DU?$char_traits@D@std@@@std@@QBEPAV?$basic_streambuf@DU?$char_traits@D@std@@@2@XZ:NEAR
EXTRN	__imp_?width@ios_base@std@@QBEHXZ:NEAR
EXTRN	__imp_?width@ios_base@std@@QAEHH@Z:NEAR
EXTRN	__imp_?getloc@ios_base@std@@QBE?AVlocale@2@XZ:NEAR
EXTRN	__imp_?is@?$ctype@D@std@@QBE_NFD@Z:NEAR
EXTRN	__imp_?sgetc@?$basic_streambuf@DU?$char_traits@D@std@@@std@@QAEHXZ:NEAR
EXTRN	__imp_?snextc@?$basic_streambuf@DU?$char_traits@D@std@@@std@@QAEHXZ:NEAR
EXTRN	__imp_?npos@?$basic_string@DU?$char_traits@D@std@@V?$allocator@D@2@@std@@2IB:DWORD
EXTRN	__imp_?append@?$basic_string@DU?$char_traits@D@std@@V?$allocator@D@2@@std@@QAEAAV12@ID@Z:NEAR
EXTRN	__imp_?erase@?$basic_string@DU?$char_traits@D@std@@V?$allocator@D@2@@std@@QAEAAV12@II@Z:NEAR
;	COMDAT xdata$x
xdata$x	SEGMENT
$T93285	DD	0ffffffffH
	DD	FLAT:$L93276
	DD	00H
	DD	FLAT:$L93277
	DD	00H
	DD	00H
	DD	00H
	DD	00H
$T93287	DD	00H
	DD	00H
	DD	00H
	DD	FLAT:$L93275
$T93286	DD	02H
	DD	02H
	DD	03H
	DD	01H
	DD	FLAT:$T93287
$T93279	DD	019930520H
	DD	04H
	DD	FLAT:$T93285
	DD	01H
	DD	FLAT:$T93286
	DD	2 DUP(00H)
; Function compile flags: /Odt /RTCsu
xdata$x	ENDS
;	COMDAT ??$?5DU?$char_traits@D@std@@V?$allocator@D@1@@std@@YAAAV?$basic_istream@DU?$char_traits@D@std@@@0@AAV10@AAV?$basic_string@DU?$char_traits@D@std@@V?$allocator@D@2@@0@@Z
_TEXT	SEGMENT
tv207 = -128						; size = 1
tv206 = -127						; size = 1
tv205 = -126						; size = 1
tv204 = -125						; size = 1
tv203 = -124						; size = 4
tv202 = -120						; size = 4
tv201 = -116						; size = 4
tv200 = -112						; size = 4
tv199 = -108						; size = 4
tv198 = -104						; size = 4
tv135 = -100						; size = 4
tv197 = -96						; size = 4
tv196 = -92						; size = 4
tv195 = -88						; size = 4
tv194 = -84						; size = 4
tv189 = -80						; size = 4
tv65 = -76						; size = 4
$T93273 = -72						; size = 4
$T93272 = -68						; size = 4
$T93269 = -64						; size = 4
__Meta$90471 = -56					; size = 4
__Size$90468 = -48					; size = 4
__Ctype_fac$90465 = -44					; size = 4
__Ok$ = -36						; size = 8
__Changed$ = -21					; size = 1
__State$ = -20						; size = 4
__$EHRec$ = -16						; size = 16
__Istr$ = 8						; size = 4
__Str$ = 12						; size = 4
??$?5DU?$char_traits@D@std@@V?$allocator@D@1@@std@@YAAAV?$basic_istream@DU?$char_traits@D@std@@@0@AAV10@AAV?$basic_string@DU?$char_traits@D@std@@V?$allocator@D@2@@0@@Z PROC NEAR ; std::operator>><char,std::char_traits<char>,std::allocator<char> >, COMDAT

; 425  : 	{	// extract a string

  00000	55		 push	 ebp
  00001	8b ec		 mov	 ebp, esp
  00003	6a ff		 push	 -1
  00005	68 00 00 00 00	 push	 __ehhandler$??$?5DU?$char_traits@D@std@@V?$allocator@D@1@@std@@YAAAV?$basic_istream@DU?$char_traits@D@std@@@0@AAV10@AAV?$basic_string@DU?$char_traits@D@std@@V?$allocator@D@2@@0@@Z
  0000a	64 a1 00 00 00
	00		 mov	 eax, DWORD PTR fs:__except_list
  00010	50		 push	 eax
  00011	64 89 25 00 00
	00 00		 mov	 DWORD PTR fs:__except_list, esp
  00018	51		 push	 ecx
  00019	83 ec 70	 sub	 esp, 112		; 00000070H
  0001c	53		 push	 ebx
  0001d	56		 push	 esi
  0001e	57		 push	 edi
  0001f	8d 7d 80	 lea	 edi, DWORD PTR [ebp-128]
  00022	b9 1c 00 00 00	 mov	 ecx, 28			; 0000001cH
  00027	b8 cc cc cc cc	 mov	 eax, -858993460		; ccccccccH
  0002c	f3 ab		 rep stosd
  0002e	89 65 f0	 mov	 DWORD PTR __$EHRec$[ebp], esp

; 426  : 	typedef ctype<_Elem> _Ctype;
; 427  : 	typedef basic_istream<_Elem, _Traits> _Myis;
; 428  : 	typedef basic_string<_Elem, _Traits, _Alloc> _Mystr;
; 429  : 	typedef typename _Mystr::size_type _Mysizt;
; 430  : 
; 431  : 	ios_base::iostate _State = ios_base::goodbit;

  00031	c7 45 ec 00 00
	00 00		 mov	 DWORD PTR __State$[ebp], 0

; 432  : 	bool _Changed = false;

  00038	c6 45 eb 00	 mov	 BYTE PTR __Changed$[ebp], 0

; 433  : 	const typename _Myis::sentry _Ok(_Istr);

  0003c	6a 00		 push	 0
  0003e	8b 45 08	 mov	 eax, DWORD PTR __Istr$[ebp]
  00041	50		 push	 eax
  00042	8d 4d dc	 lea	 ecx, DWORD PTR __Ok$[ebp]
  00045	e8 00 00 00 00	 call	 ??0sentry@?$basic_istream@DU?$char_traits@D@std@@@std@@QAE@AAV12@_N@Z ; std::basic_istream<char,std::char_traits<char> >::sentry::sentry
  0004a	c7 45 fc 00 00
	00 00		 mov	 DWORD PTR __$EHRec$[ebp+12], 0

; 434  : 
; 435  : 	if (_Ok)

  00051	8d 4d dc	 lea	 ecx, DWORD PTR __Ok$[ebp]
  00054	e8 00 00 00 00	 call	 ??Bsentry@?$basic_istream@DU?$char_traits@D@std@@@std@@QBE_NXZ ; std::basic_istream<char,std::char_traits<char> >::sentry::operator bool
  00059	0f b6 c8	 movzx	 ecx, al
  0005c	85 c9		 test	 ecx, ecx
  0005e	0f 84 87 02 00
	00		 je	 $L93274

; 436  : 		{	// state okay, extract characters
; 437  : 		const _Ctype& _Ctype_fac = _USE(_Istr.getloc(), _Ctype);

  00064	8b f4		 mov	 esi, esp
  00066	8d 55 c0	 lea	 edx, DWORD PTR $T93269[ebp]
  00069	52		 push	 edx
  0006a	8b 45 08	 mov	 eax, DWORD PTR __Istr$[ebp]
  0006d	8b 08		 mov	 ecx, DWORD PTR [eax]
  0006f	8b 55 08	 mov	 edx, DWORD PTR __Istr$[ebp]
  00072	03 51 04	 add	 edx, DWORD PTR [ecx+4]
  00075	8b ca		 mov	 ecx, edx
  00077	ff 15 00 00 00
	00		 call	 DWORD PTR __imp_?getloc@ios_base@std@@QBE?AVlocale@2@XZ
  0007d	3b f4		 cmp	 esi, esp
  0007f	e8 00 00 00 00	 call	 __RTC_CheckEsp
  00084	89 45 b4	 mov	 DWORD PTR tv65[ebp], eax
  00087	8b 45 b4	 mov	 eax, DWORD PTR tv65[ebp]
  0008a	89 45 b0	 mov	 DWORD PTR tv189[ebp], eax
  0008d	c6 45 fc 01	 mov	 BYTE PTR __$EHRec$[ebp+12], 1
  00091	8b 4d b0	 mov	 ecx, DWORD PTR tv189[ebp]
  00094	51		 push	 ecx
  00095	e8 00 00 00 00	 call	 ??$use_facet@V?$ctype@D@std@@@std@@YAABV?$ctype@D@0@ABVlocale@0@@Z ; std::use_facet<std::ctype<char> >
  0009a	83 c4 04	 add	 esp, 4
  0009d	89 45 d4	 mov	 DWORD PTR __Ctype_fac$90465[ebp], eax
  000a0	c6 45 fc 00	 mov	 BYTE PTR __$EHRec$[ebp+12], 0
  000a4	8b f4		 mov	 esi, esp
  000a6	8d 4d c0	 lea	 ecx, DWORD PTR $T93269[ebp]
  000a9	ff 15 00 00 00
	00		 call	 DWORD PTR __imp_??1locale@std@@QAE@XZ
  000af	3b f4		 cmp	 esi, esp
  000b1	e8 00 00 00 00	 call	 __RTC_CheckEsp

; 438  : 		_Str.erase();

  000b6	8b f4		 mov	 esi, esp
  000b8	8b 15 00 00 00
	00		 mov	 edx, DWORD PTR __imp_?npos@?$basic_string@DU?$char_traits@D@std@@V?$allocator@D@2@@std@@2IB
  000be	8b 02		 mov	 eax, DWORD PTR [edx]
  000c0	50		 push	 eax
  000c1	6a 00		 push	 0
  000c3	8b 4d 0c	 mov	 ecx, DWORD PTR __Str$[ebp]
  000c6	ff 15 00 00 00
	00		 call	 DWORD PTR __imp_?erase@?$basic_string@DU?$char_traits@D@std@@V?$allocator@D@2@@std@@QAEAAV12@II@Z
  000cc	3b f4		 cmp	 esi, esp
  000ce	e8 00 00 00 00	 call	 __RTC_CheckEsp

; 439  : 
; 440  : 		_TRY_IO_BEGIN

  000d3	c6 45 fc 02	 mov	 BYTE PTR __$EHRec$[ebp+12], 2

; 441  : 		_Mysizt _Size = 0 < _Istr.width()
; 442  : 			&& (_Mysizt)_Istr.width() < _Str.max_size()
; 443  : 				? (_Mysizt)_Istr.width() : _Str.max_size();

  000d7	8b 4d 08	 mov	 ecx, DWORD PTR __Istr$[ebp]
  000da	8b 11		 mov	 edx, DWORD PTR [ecx]
  000dc	8b 4d 08	 mov	 ecx, DWORD PTR __Istr$[ebp]
  000df	03 4a 04	 add	 ecx, DWORD PTR [edx+4]
  000e2	8b f4		 mov	 esi, esp
  000e4	ff 15 00 00 00
	00		 call	 DWORD PTR __imp_?width@ios_base@std@@QBEHXZ
  000ea	3b f4		 cmp	 esi, esp
  000ec	e8 00 00 00 00	 call	 __RTC_CheckEsp
  000f1	89 45 ac	 mov	 DWORD PTR tv194[ebp], eax
  000f4	83 7d ac 00	 cmp	 DWORD PTR tv194[ebp], 0
  000f8	7e 61		 jle	 SHORT $L93270
  000fa	8b 45 08	 mov	 eax, DWORD PTR __Istr$[ebp]
  000fd	8b 08		 mov	 ecx, DWORD PTR [eax]
  000ff	8b 55 08	 mov	 edx, DWORD PTR __Istr$[ebp]
  00102	03 51 04	 add	 edx, DWORD PTR [ecx+4]
  00105	8b f4		 mov	 esi, esp
  00107	8b ca		 mov	 ecx, edx
  00109	ff 15 00 00 00
	00		 call	 DWORD PTR __imp_?width@ios_base@std@@QBEHXZ
  0010f	3b f4		 cmp	 esi, esp
  00111	e8 00 00 00 00	 call	 __RTC_CheckEsp
  00116	89 45 a8	 mov	 DWORD PTR tv195[ebp], eax
  00119	8b f4		 mov	 esi, esp
  0011b	8b 4d 0c	 mov	 ecx, DWORD PTR __Str$[ebp]
  0011e	ff 15 00 00 00
	00		 call	 DWORD PTR __imp_?max_size@?$basic_string@DU?$char_traits@D@std@@V?$allocator@D@2@@std@@QBEIXZ
  00124	3b f4		 cmp	 esi, esp
  00126	e8 00 00 00 00	 call	 __RTC_CheckEsp
  0012b	89 45 a4	 mov	 DWORD PTR tv196[ebp], eax
  0012e	8b 45 a8	 mov	 eax, DWORD PTR tv195[ebp]
  00131	3b 45 a4	 cmp	 eax, DWORD PTR tv196[ebp]
  00134	73 25		 jae	 SHORT $L93270
  00136	8b 4d 08	 mov	 ecx, DWORD PTR __Istr$[ebp]
  00139	8b 11		 mov	 edx, DWORD PTR [ecx]
  0013b	8b 4d 08	 mov	 ecx, DWORD PTR __Istr$[ebp]
  0013e	03 4a 04	 add	 ecx, DWORD PTR [edx+4]
  00141	8b f4		 mov	 esi, esp
  00143	ff 15 00 00 00
	00		 call	 DWORD PTR __imp_?width@ios_base@std@@QBEHXZ
  00149	3b f4		 cmp	 esi, esp
  0014b	e8 00 00 00 00	 call	 __RTC_CheckEsp
  00150	89 45 a0	 mov	 DWORD PTR tv197[ebp], eax
  00153	8b 45 a0	 mov	 eax, DWORD PTR tv197[ebp]
  00156	89 45 9c	 mov	 DWORD PTR tv135[ebp], eax
  00159	eb 1b		 jmp	 SHORT $L93271
$L93270:
  0015b	8b f4		 mov	 esi, esp
  0015d	8b 4d 0c	 mov	 ecx, DWORD PTR __Str$[ebp]
  00160	ff 15 00 00 00
	00		 call	 DWORD PTR __imp_?max_size@?$basic_string@DU?$char_traits@D@std@@V?$allocator@D@2@@std@@QBEIXZ
  00166	3b f4		 cmp	 esi, esp
  00168	e8 00 00 00 00	 call	 __RTC_CheckEsp
  0016d	89 45 98	 mov	 DWORD PTR tv198[ebp], eax
  00170	8b 4d 98	 mov	 ecx, DWORD PTR tv198[ebp]
  00173	89 4d 9c	 mov	 DWORD PTR tv135[ebp], ecx
$L93271:
  00176	8b 55 9c	 mov	 edx, DWORD PTR tv135[ebp]
  00179	89 55 d0	 mov	 DWORD PTR __Size$90468[ebp], edx

; 444  : 		typename _Traits::int_type _Meta = _Istr.rdbuf()->sgetc();

  0017c	8b 45 08	 mov	 eax, DWORD PTR __Istr$[ebp]
  0017f	8b 08		 mov	 ecx, DWORD PTR [eax]
  00181	8b 55 08	 mov	 edx, DWORD PTR __Istr$[ebp]
  00184	03 51 04	 add	 edx, DWORD PTR [ecx+4]
  00187	8b f4		 mov	 esi, esp
  00189	8b ca		 mov	 ecx, edx
  0018b	ff 15 00 00 00
	00		 call	 DWORD PTR __imp_?rdbuf@?$basic_ios@DU?$char_traits@D@std@@@std@@QBEPAV?$basic_streambuf@DU?$char_traits@D@std@@@2@XZ
  00191	3b f4		 cmp	 esi, esp
  00193	e8 00 00 00 00	 call	 __RTC_CheckEsp
  00198	89 45 94	 mov	 DWORD PTR tv199[ebp], eax
  0019b	8b f4		 mov	 esi, esp
  0019d	8b 4d 94	 mov	 ecx, DWORD PTR tv199[ebp]
  001a0	ff 15 00 00 00
	00		 call	 DWORD PTR __imp_?sgetc@?$basic_streambuf@DU?$char_traits@D@std@@@std@@QAEHXZ
  001a6	3b f4		 cmp	 esi, esp
  001a8	e8 00 00 00 00	 call	 __RTC_CheckEsp
  001ad	89 45 90	 mov	 DWORD PTR tv200[ebp], eax
  001b0	8b 45 90	 mov	 eax, DWORD PTR tv200[ebp]
  001b3	89 45 c8	 mov	 DWORD PTR __Meta$90471[ebp], eax

; 445  : 
; 446  : 		for (; 0 < _Size; --_Size, _Meta = _Istr.rdbuf()->snextc())

  001b6	eb 41		 jmp	 SHORT $L90472
$L90473:
  001b8	8b 4d d0	 mov	 ecx, DWORD PTR __Size$90468[ebp]
  001bb	83 e9 01	 sub	 ecx, 1
  001be	89 4d d0	 mov	 DWORD PTR __Size$90468[ebp], ecx
  001c1	8b 55 08	 mov	 edx, DWORD PTR __Istr$[ebp]
  001c4	8b 02		 mov	 eax, DWORD PTR [edx]
  001c6	8b 4d 08	 mov	 ecx, DWORD PTR __Istr$[ebp]
  001c9	03 48 04	 add	 ecx, DWORD PTR [eax+4]
  001cc	8b f4		 mov	 esi, esp
  001ce	ff 15 00 00 00
	00		 call	 DWORD PTR __imp_?rdbuf@?$basic_ios@DU?$char_traits@D@std@@@std@@QBEPAV?$basic_streambuf@DU?$char_traits@D@std@@@2@XZ
  001d4	3b f4		 cmp	 esi, esp
  001d6	e8 00 00 00 00	 call	 __RTC_CheckEsp
  001db	89 45 8c	 mov	 DWORD PTR tv201[ebp], eax
  001de	8b f4		 mov	 esi, esp
  001e0	8b 4d 8c	 mov	 ecx, DWORD PTR tv201[ebp]
  001e3	ff 15 00 00 00
	00		 call	 DWORD PTR __imp_?snextc@?$basic_streambuf@DU?$char_traits@D@std@@@std@@QAEHXZ
  001e9	3b f4		 cmp	 esi, esp
  001eb	e8 00 00 00 00	 call	 __RTC_CheckEsp
  001f0	89 45 88	 mov	 DWORD PTR tv202[ebp], eax
  001f3	8b 4d 88	 mov	 ecx, DWORD PTR tv202[ebp]
  001f6	89 4d c8	 mov	 DWORD PTR __Meta$90471[ebp], ecx
$L90472:
  001f9	83 7d d0 00	 cmp	 DWORD PTR __Size$90468[ebp], 0
  001fd	0f 86 c0 00 00
	00		 jbe	 $L90474

; 447  : 			if(_Traits::eq_int_type(_Traits::eof(), _Meta))

  00203	8b f4		 mov	 esi, esp
  00205	ff 15 00 00 00
	00		 call	 DWORD PTR __imp_?eof@?$char_traits@D@std@@SAHXZ
  0020b	3b f4		 cmp	 esi, esp
  0020d	e8 00 00 00 00	 call	 __RTC_CheckEsp
  00212	89 45 84	 mov	 DWORD PTR tv203[ebp], eax
  00215	8b 55 84	 mov	 edx, DWORD PTR tv203[ebp]
  00218	89 55 bc	 mov	 DWORD PTR $T93272[ebp], edx
  0021b	8b f4		 mov	 esi, esp
  0021d	8d 45 c8	 lea	 eax, DWORD PTR __Meta$90471[ebp]
  00220	50		 push	 eax
  00221	8d 4d bc	 lea	 ecx, DWORD PTR $T93272[ebp]
  00224	51		 push	 ecx
  00225	ff 15 00 00 00
	00		 call	 DWORD PTR __imp_?eq_int_type@?$char_traits@D@std@@SA_NABH0@Z
  0022b	83 c4 08	 add	 esp, 8
  0022e	3b f4		 cmp	 esi, esp
  00230	e8 00 00 00 00	 call	 __RTC_CheckEsp
  00235	88 45 83	 mov	 BYTE PTR tv204[ebp], al
  00238	0f b6 55 83	 movzx	 edx, BYTE PTR tv204[ebp]
  0023c	85 d2		 test	 edx, edx
  0023e	74 0b		 je	 SHORT $L90476

; 448  : 				{	// end of file, quit
; 449  : 				_State |= ios_base::eofbit;

  00240	8b 45 ec	 mov	 eax, DWORD PTR __State$[ebp]
  00243	83 c8 01	 or	 eax, 1
  00246	89 45 ec	 mov	 DWORD PTR __State$[ebp], eax

; 450  : 				break;

  00249	eb 78		 jmp	 SHORT $L90474
$L90476:

; 451  : 				}
; 452  : 			else if (_Ctype_fac.is(_Ctype::space,
; 453  : 				_Traits::to_char_type(_Meta)))

  0024b	8b f4		 mov	 esi, esp
  0024d	8d 4d c8	 lea	 ecx, DWORD PTR __Meta$90471[ebp]
  00250	51		 push	 ecx
  00251	ff 15 00 00 00
	00		 call	 DWORD PTR __imp_?to_char_type@?$char_traits@D@std@@SADABH@Z
  00257	83 c4 04	 add	 esp, 4
  0025a	3b f4		 cmp	 esi, esp
  0025c	e8 00 00 00 00	 call	 __RTC_CheckEsp
  00261	88 45 82	 mov	 BYTE PTR tv205[ebp], al
  00264	8b f4		 mov	 esi, esp
  00266	8a 55 82	 mov	 dl, BYTE PTR tv205[ebp]
  00269	52		 push	 edx
  0026a	6a 48		 push	 72			; 00000048H
  0026c	8b 4d d4	 mov	 ecx, DWORD PTR __Ctype_fac$90465[ebp]
  0026f	ff 15 00 00 00
	00		 call	 DWORD PTR __imp_?is@?$ctype@D@std@@QBE_NFD@Z
  00275	3b f4		 cmp	 esi, esp
  00277	e8 00 00 00 00	 call	 __RTC_CheckEsp
  0027c	88 45 81	 mov	 BYTE PTR tv206[ebp], al
  0027f	0f b6 45 81	 movzx	 eax, BYTE PTR tv206[ebp]
  00283	85 c0		 test	 eax, eax
  00285	74 02		 je	 SHORT $L90478

; 454  : 				break;	// whitespace, quit

  00287	eb 3a		 jmp	 SHORT $L90474
$L90478:

; 455  : 			else
; 456  : 				{	// add character to string
; 457  : 				_Str.append(1, _Traits::to_char_type(_Meta));

  00289	8b f4		 mov	 esi, esp
  0028b	8d 4d c8	 lea	 ecx, DWORD PTR __Meta$90471[ebp]
  0028e	51		 push	 ecx
  0028f	ff 15 00 00 00
	00		 call	 DWORD PTR __imp_?to_char_type@?$char_traits@D@std@@SADABH@Z
  00295	83 c4 04	 add	 esp, 4
  00298	3b f4		 cmp	 esi, esp
  0029a	e8 00 00 00 00	 call	 __RTC_CheckEsp
  0029f	88 45 80	 mov	 BYTE PTR tv207[ebp], al
  002a2	8b f4		 mov	 esi, esp
  002a4	8a 55 80	 mov	 dl, BYTE PTR tv207[ebp]
  002a7	52		 push	 edx
  002a8	6a 01		 push	 1
  002aa	8b 4d 0c	 mov	 ecx, DWORD PTR __Str$[ebp]
  002ad	ff 15 00 00 00
	00		 call	 DWORD PTR __imp_?append@?$basic_string@DU?$char_traits@D@std@@V?$allocator@D@2@@std@@QAEAAV12@ID@Z
  002b3	3b f4		 cmp	 esi, esp
  002b5	e8 00 00 00 00	 call	 __RTC_CheckEsp

; 458  : 				_Changed = true;

  002ba	c6 45 eb 01	 mov	 BYTE PTR __Changed$[ebp], 1

; 459  : 				}

  002be	e9 f5 fe ff ff	 jmp	 $L90473
$L90474:
  002c3	eb 26		 jmp	 SHORT $L93274
$L93275:

; 460  : 		_CATCH_IO_(_Istr)

  002c5	8b f4		 mov	 esi, esp
  002c7	6a 01		 push	 1
  002c9	6a 04		 push	 4
  002cb	8b 45 08	 mov	 eax, DWORD PTR __Istr$[ebp]
  002ce	8b 08		 mov	 ecx, DWORD PTR [eax]
  002d0	8b 55 08	 mov	 edx, DWORD PTR __Istr$[ebp]
  002d3	03 51 04	 add	 edx, DWORD PTR [ecx+4]
  002d6	8b ca		 mov	 ecx, edx
  002d8	ff 15 00 00 00
	00		 call	 DWORD PTR __imp_?setstate@?$basic_ios@DU?$char_traits@D@std@@@std@@QAEXH_N@Z
  002de	3b f4		 cmp	 esi, esp
  002e0	e8 00 00 00 00	 call	 __RTC_CheckEsp
  002e5	b8 00 00 00 00	 mov	 eax, $L93274
  002ea	c3		 ret	 0
$L93274:
  002eb	c7 45 fc 00 00
	00 00		 mov	 DWORD PTR __$EHRec$[ebp+12], 0

; 461  : 		}
; 462  : 
; 463  : 	_Istr.width(0);

  002f2	8b f4		 mov	 esi, esp
  002f4	6a 00		 push	 0
  002f6	8b 45 08	 mov	 eax, DWORD PTR __Istr$[ebp]
  002f9	8b 08		 mov	 ecx, DWORD PTR [eax]
  002fb	8b 55 08	 mov	 edx, DWORD PTR __Istr$[ebp]
  002fe	03 51 04	 add	 edx, DWORD PTR [ecx+4]
  00301	8b ca		 mov	 ecx, edx
  00303	ff 15 00 00 00
	00		 call	 DWORD PTR __imp_?width@ios_base@std@@QAEHH@Z
  00309	3b f4		 cmp	 esi, esp
  0030b	e8 00 00 00 00	 call	 __RTC_CheckEsp

; 464  : 	if (!_Changed)

  00310	0f b6 45 eb	 movzx	 eax, BYTE PTR __Changed$[ebp]
  00314	85 c0		 test	 eax, eax
  00316	75 09		 jne	 SHORT $L90480

; 465  : 		_State |= ios_base::failbit;

  00318	8b 4d ec	 mov	 ecx, DWORD PTR __State$[ebp]
  0031b	83 c9 02	 or	 ecx, 2
  0031e	89 4d ec	 mov	 DWORD PTR __State$[ebp], ecx
$L90480:

; 466  : 	_Istr.setstate(_State);

  00321	8b f4		 mov	 esi, esp
  00323	6a 00		 push	 0
  00325	8b 55 ec	 mov	 edx, DWORD PTR __State$[ebp]
  00328	52		 push	 edx
  00329	8b 45 08	 mov	 eax, DWORD PTR __Istr$[ebp]
  0032c	8b 08		 mov	 ecx, DWORD PTR [eax]
  0032e	8b 55 08	 mov	 edx, DWORD PTR __Istr$[ebp]
  00331	03 51 04	 add	 edx, DWORD PTR [ecx+4]
  00334	8b ca		 mov	 ecx, edx
  00336	ff 15 00 00 00
	00		 call	 DWORD PTR __imp_?setstate@?$basic_ios@DU?$char_traits@D@std@@@std@@QAEXH_N@Z
  0033c	3b f4		 cmp	 esi, esp
  0033e	e8 00 00 00 00	 call	 __RTC_CheckEsp

; 467  : 	return (_Istr);

  00343	8b 45 08	 mov	 eax, DWORD PTR __Istr$[ebp]
  00346	89 45 b8	 mov	 DWORD PTR $T93273[ebp], eax
  00349	c7 45 fc ff ff
	ff ff		 mov	 DWORD PTR __$EHRec$[ebp+12], -1
  00350	8d 4d dc	 lea	 ecx, DWORD PTR __Ok$[ebp]
  00353	e8 00 00 00 00	 call	 ??1sentry@?$basic_istream@DU?$char_traits@D@std@@@std@@QAE@XZ
  00358	8b 45 b8	 mov	 eax, DWORD PTR $T93273[ebp]

; 468  : 	}

  0035b	52		 push	 edx
  0035c	8b cd		 mov	 ecx, ebp
  0035e	50		 push	 eax
  0035f	8d 15 00 00 00
	00		 lea	 edx, DWORD PTR $L93284
  00365	e8 00 00 00 00	 call	 @_RTC_CheckStackVars@8
  0036a	58		 pop	 eax
  0036b	5a		 pop	 edx
  0036c	8b 4d f4	 mov	 ecx, DWORD PTR __$EHRec$[ebp+4]
  0036f	64 89 0d 00 00
	00 00		 mov	 DWORD PTR fs:__except_list, ecx
  00376	5f		 pop	 edi
  00377	5e		 pop	 esi
  00378	5b		 pop	 ebx
  00379	81 c4 80 00 00
	00		 add	 esp, 128		; 00000080H
  0037f	3b ec		 cmp	 ebp, esp
  00381	e8 00 00 00 00	 call	 __RTC_CheckEsp
  00386	8b e5		 mov	 esp, ebp
  00388	5d		 pop	 ebp
  00389	c3		 ret	 0
$L93284:
  0038a	02 00 00 00	 DD	 2
  0038e	00 00 00 00	 DD	 $L93283
$L93283:
  00392	dc ff ff ff	 DD	 -36			; ffffffdcH
  00396	08 00 00 00	 DD	 8
  0039a	00 00 00 00	 DD	 $L93280
  0039e	c8 ff ff ff	 DD	 -56			; ffffffc8H
  003a2	04 00 00 00	 DD	 4
  003a6	00 00 00 00	 DD	 $L93281
$L93281:
  003aa	5f		 DB	 95			; 0000005fH
  003ab	4d		 DB	 77			; 0000004dH
  003ac	65		 DB	 101			; 00000065H
  003ad	74		 DB	 116			; 00000074H
  003ae	61		 DB	 97			; 00000061H
  003af	00		 DB	 0
$L93280:
  003b0	5f		 DB	 95			; 0000005fH
  003b1	4f		 DB	 79			; 0000004fH
  003b2	6b		 DB	 107			; 0000006bH
  003b3	00		 DB	 0
_TEXT	ENDS
;	COMDAT text$x
text$x	SEGMENT
$L93276:
  00000	8d 4d dc	 lea	 ecx, DWORD PTR __Ok$[ebp]
  00003	e9 00 00 00 00	 jmp	 ??1sentry@?$basic_istream@DU?$char_traits@D@std@@@std@@QAE@XZ
$L93277:
  00008	8b f4		 mov	 esi, esp
  0000a	8d 4d c0	 lea	 ecx, DWORD PTR $T93269[ebp]
  0000d	ff 15 00 00 00
	00		 call	 DWORD PTR __imp_??1locale@std@@QAE@XZ
  00013	3b f4		 cmp	 esi, esp
  00015	e9 00 00 00 00	 jmp	 __RTC_CheckEsp
__ehhandler$??$?5DU?$char_traits@D@std@@V?$allocator@D@1@@std@@YAAAV?$basic_istream@DU?$char_traits@D@std@@@0@AAV10@AAV?$basic_string@DU?$char_traits@D@std@@V?$allocator@D@2@@0@@Z:
  0001a	b8 00 00 00 00	 mov	 eax, OFFSET FLAT:$T93279
  0001f	e9 00 00 00 00	 jmp	 ___CxxFrameHandler
text$x	ENDS
??$?5DU?$char_traits@D@std@@V?$allocator@D@1@@std@@YAAAV?$basic_istream@DU?$char_traits@D@std@@@0@AAV10@AAV?$basic_string@DU?$char_traits@D@std@@V?$allocator@D@2@@0@@Z ENDP ; std::operator>><char,std::char_traits<char>,std::allocator<char> >
PUBLIC	??1_Sentry_base@?$basic_istream@DU?$char_traits@D@std@@@std@@QAE@XZ ; std::basic_istream<char,std::char_traits<char> >::_Sentry_base::~_Sentry_base
; Function compile flags: /Odt /RTCsu
;	COMDAT ??1sentry@?$basic_istream@DU?$char_traits@D@std@@@std@@QAE@XZ
_TEXT	SEGMENT
_this$ = -4						; size = 4
??1sentry@?$basic_istream@DU?$char_traits@D@std@@@std@@QAE@XZ PROC NEAR ; std::basic_istream<char,std::char_traits<char> >::sentry::~sentry, COMDAT
; _this$ = ecx
  00000	55		 push	 ebp
  00001	8b ec		 mov	 ebp, esp
  00003	51		 push	 ecx
  00004	c7 45 fc cc cc
	cc cc		 mov	 DWORD PTR [ebp-4], -858993460 ; ccccccccH
  0000b	89 4d fc	 mov	 DWORD PTR _this$[ebp], ecx
  0000e	8b 4d fc	 mov	 ecx, DWORD PTR _this$[ebp]
  00011	e8 00 00 00 00	 call	 ??1_Sentry_base@?$basic_istream@DU?$char_traits@D@std@@@std@@QAE@XZ ; std::basic_istream<char,std::char_traits<char> >::_Sentry_base::~_Sentry_base
  00016	83 c4 04	 add	 esp, 4
  00019	3b ec		 cmp	 ebp, esp
  0001b	e8 00 00 00 00	 call	 __RTC_CheckEsp
  00020	8b e5		 mov	 esp, ebp
  00022	5d		 pop	 ebp
  00023	c3		 ret	 0
??1sentry@?$basic_istream@DU?$char_traits@D@std@@@std@@QAE@XZ ENDP ; std::basic_istream<char,std::char_traits<char> >::sentry::~sentry
_TEXT	ENDS
PUBLIC	??0_Sentry_base@?$basic_istream@DU?$char_traits@D@std@@@std@@QAE@AAV12@@Z ; std::basic_istream<char,std::char_traits<char> >::_Sentry_base::_Sentry_base
EXTRN	__imp_?_Ipfx@?$basic_istream@DU?$char_traits@D@std@@@std@@QAE_N_N@Z:NEAR
;	COMDAT xdata$x
; File d:\program files (x86)\microsoft visual studio .net 2003\vc7\include\istream
xdata$x	SEGMENT
$T93297	DD	0ffffffffH
	DD	FLAT:$L93293
$T93295	DD	019930520H
	DD	01H
	DD	FLAT:$T93297
	DD	2 DUP(00H)
	DD	2 DUP(00H)
; Function compile flags: /Odt /RTCsu
xdata$x	ENDS
;	COMDAT ??0sentry@?$basic_istream@DU?$char_traits@D@std@@@std@@QAE@AAV12@_N@Z
_TEXT	SEGMENT
_this$ = -16						; size = 4
__$EHRec$ = -12						; size = 12
__Istr$ = 8						; size = 4
__Noskip$ = 12						; size = 1
??0sentry@?$basic_istream@DU?$char_traits@D@std@@@std@@QAE@AAV12@_N@Z PROC NEAR ; std::basic_istream<char,std::char_traits<char> >::sentry::sentry, COMDAT
; _this$ = ecx

; 72   : 			{	// construct locking and calling _Ipfx

  00000	55		 push	 ebp
  00001	8b ec		 mov	 ebp, esp
  00003	6a ff		 push	 -1
  00005	68 00 00 00 00	 push	 __ehhandler$??0sentry@?$basic_istream@DU?$char_traits@D@std@@@std@@QAE@AAV12@_N@Z
  0000a	64 a1 00 00 00
	00		 mov	 eax, DWORD PTR fs:__except_list
  00010	50		 push	 eax
  00011	64 89 25 00 00
	00 00		 mov	 DWORD PTR fs:__except_list, esp
  00018	51		 push	 ecx
  00019	56		 push	 esi
  0001a	c7 45 f0 cc cc
	cc cc		 mov	 DWORD PTR [ebp-16], -858993460 ; ccccccccH
  00021	89 4d f0	 mov	 DWORD PTR _this$[ebp], ecx
  00024	8b 45 08	 mov	 eax, DWORD PTR __Istr$[ebp]
  00027	50		 push	 eax
  00028	8b 4d f0	 mov	 ecx, DWORD PTR _this$[ebp]
  0002b	e8 00 00 00 00	 call	 ??0_Sentry_base@?$basic_istream@DU?$char_traits@D@std@@@std@@QAE@AAV12@@Z ; std::basic_istream<char,std::char_traits<char> >::_Sentry_base::_Sentry_base
  00030	c7 45 fc 00 00
	00 00		 mov	 DWORD PTR __$EHRec$[ebp+8], 0

; 73   : 			_Ok = this->_Myistr._Ipfx(_Noskip);

  00037	8b f4		 mov	 esi, esp
  00039	8a 4d 0c	 mov	 cl, BYTE PTR __Noskip$[ebp]
  0003c	51		 push	 ecx
  0003d	8b 55 f0	 mov	 edx, DWORD PTR _this$[ebp]
  00040	8b 0a		 mov	 ecx, DWORD PTR [edx]
  00042	ff 15 00 00 00
	00		 call	 DWORD PTR __imp_?_Ipfx@?$basic_istream@DU?$char_traits@D@std@@@std@@QAE_N_N@Z
  00048	3b f4		 cmp	 esi, esp
  0004a	e8 00 00 00 00	 call	 __RTC_CheckEsp
  0004f	8b 4d f0	 mov	 ecx, DWORD PTR _this$[ebp]
  00052	88 41 04	 mov	 BYTE PTR [ecx+4], al

; 74   : 			}

  00055	c7 45 fc ff ff
	ff ff		 mov	 DWORD PTR __$EHRec$[ebp+8], -1
  0005c	8b 45 f0	 mov	 eax, DWORD PTR _this$[ebp]
  0005f	8b 4d f4	 mov	 ecx, DWORD PTR __$EHRec$[ebp]
  00062	64 89 0d 00 00
	00 00		 mov	 DWORD PTR fs:__except_list, ecx
  00069	5e		 pop	 esi
  0006a	83 c4 10	 add	 esp, 16			; 00000010H
  0006d	3b ec		 cmp	 ebp, esp
  0006f	e8 00 00 00 00	 call	 __RTC_CheckEsp
  00074	8b e5		 mov	 esp, ebp
  00076	5d		 pop	 ebp
  00077	c2 08 00	 ret	 8
_TEXT	ENDS
;	COMDAT text$x
text$x	SEGMENT
$L93293:
  00000	8b 4d f0	 mov	 ecx, DWORD PTR _this$[ebp]
  00003	e9 00 00 00 00	 jmp	 ??1_Sentry_base@?$basic_istream@DU?$char_traits@D@std@@@std@@QAE@XZ ; std::basic_istream<char,std::char_traits<char> >::_Sentry_base::~_Sentry_base
__ehhandler$??0sentry@?$basic_istream@DU?$char_traits@D@std@@@std@@QAE@AAV12@_N@Z:
  00008	b8 00 00 00 00	 mov	 eax, OFFSET FLAT:$T93295
  0000d	e9 00 00 00 00	 jmp	 ___CxxFrameHandler
text$x	ENDS
??0sentry@?$basic_istream@DU?$char_traits@D@std@@@std@@QAE@AAV12@_N@Z ENDP ; std::basic_istream<char,std::char_traits<char> >::sentry::sentry
; Function compile flags: /Odt /RTCsu
;	COMDAT ??Bsentry@?$basic_istream@DU?$char_traits@D@std@@@std@@QBE_NXZ
_TEXT	SEGMENT
_this$ = -4						; size = 4
??Bsentry@?$basic_istream@DU?$char_traits@D@std@@@std@@QBE_NXZ PROC NEAR ; std::basic_istream<char,std::char_traits<char> >::sentry::operator bool, COMDAT
; _this$ = ecx

; 77   : 			{	// test if _Ipfx succeeded

  00000	55		 push	 ebp
  00001	8b ec		 mov	 ebp, esp
  00003	51		 push	 ecx
  00004	c7 45 fc cc cc
	cc cc		 mov	 DWORD PTR [ebp-4], -858993460 ; ccccccccH
  0000b	89 4d fc	 mov	 DWORD PTR _this$[ebp], ecx

; 78   : 			return (_Ok);

  0000e	8b 45 fc	 mov	 eax, DWORD PTR _this$[ebp]
  00011	8a 40 04	 mov	 al, BYTE PTR [eax+4]

; 79   : 			}

  00014	8b e5		 mov	 esp, ebp
  00016	5d		 pop	 ebp
  00017	c3		 ret	 0
??Bsentry@?$basic_istream@DU?$char_traits@D@std@@@std@@QBE_NXZ ENDP ; std::basic_istream<char,std::char_traits<char> >::sentry::operator bool
_TEXT	ENDS
EXTRN	__imp_?_Unlock@?$basic_streambuf@DU?$char_traits@D@std@@@std@@QAEXXZ:NEAR
; Function compile flags: /Odt /RTCsu
;	COMDAT ??1_Sentry_base@?$basic_istream@DU?$char_traits@D@std@@@std@@QAE@XZ
_TEXT	SEGMENT
_this$ = -4						; size = 4
??1_Sentry_base@?$basic_istream@DU?$char_traits@D@std@@@std@@QAE@XZ PROC NEAR ; std::basic_istream<char,std::char_traits<char> >::_Sentry_base::~_Sentry_base, COMDAT
; _this$ = ecx

; 58   : 			{	// destroy after unlocking

  00000	55		 push	 ebp
  00001	8b ec		 mov	 ebp, esp
  00003	51		 push	 ecx
  00004	56		 push	 esi
  00005	c7 45 fc cc cc
	cc cc		 mov	 DWORD PTR [ebp-4], -858993460 ; ccccccccH
  0000c	89 4d fc	 mov	 DWORD PTR _this$[ebp], ecx

; 59   : 			if (_Myistr.rdbuf() != 0)

  0000f	8b 45 fc	 mov	 eax, DWORD PTR _this$[ebp]
  00012	8b 08		 mov	 ecx, DWORD PTR [eax]
  00014	8b 11		 mov	 edx, DWORD PTR [ecx]
  00016	8b 45 fc	 mov	 eax, DWORD PTR _this$[ebp]
  00019	8b 08		 mov	 ecx, DWORD PTR [eax]
  0001b	03 4a 04	 add	 ecx, DWORD PTR [edx+4]
  0001e	8b f4		 mov	 esi, esp
  00020	ff 15 00 00 00
	00		 call	 DWORD PTR __imp_?rdbuf@?$basic_ios@DU?$char_traits@D@std@@@std@@QBEPAV?$basic_streambuf@DU?$char_traits@D@std@@@2@XZ
  00026	3b f4		 cmp	 esi, esp
  00028	e8 00 00 00 00	 call	 __RTC_CheckEsp
  0002d	85 c0		 test	 eax, eax
  0002f	74 2f		 je	 SHORT $L88192

; 60   : 				_Myistr.rdbuf()->_Unlock();

  00031	8b 4d fc	 mov	 ecx, DWORD PTR _this$[ebp]
  00034	8b 11		 mov	 edx, DWORD PTR [ecx]
  00036	8b 02		 mov	 eax, DWORD PTR [edx]
  00038	8b 4d fc	 mov	 ecx, DWORD PTR _this$[ebp]
  0003b	8b 09		 mov	 ecx, DWORD PTR [ecx]
  0003d	03 48 04	 add	 ecx, DWORD PTR [eax+4]
  00040	8b f4		 mov	 esi, esp
  00042	ff 15 00 00 00
	00		 call	 DWORD PTR __imp_?rdbuf@?$basic_ios@DU?$char_traits@D@std@@@std@@QBEPAV?$basic_streambuf@DU?$char_traits@D@std@@@2@XZ
  00048	3b f4		 cmp	 esi, esp
  0004a	e8 00 00 00 00	 call	 __RTC_CheckEsp
  0004f	8b f4		 mov	 esi, esp
  00051	8b c8		 mov	 ecx, eax
  00053	ff 15 00 00 00
	00		 call	 DWORD PTR __imp_?_Unlock@?$basic_streambuf@DU?$char_traits@D@std@@@std@@QAEXXZ
  00059	3b f4		 cmp	 esi, esp
  0005b	e8 00 00 00 00	 call	 __RTC_CheckEsp
$L88192:

; 61   : 			}

  00060	5e		 pop	 esi
  00061	83 c4 04	 add	 esp, 4
  00064	3b ec		 cmp	 ebp, esp
  00066	e8 00 00 00 00	 call	 __RTC_CheckEsp
  0006b	8b e5		 mov	 esp, ebp
  0006d	5d		 pop	 ebp
  0006e	c3		 ret	 0
??1_Sentry_base@?$basic_istream@DU?$char_traits@D@std@@@std@@QAE@XZ ENDP ; std::basic_istream<char,std::char_traits<char> >::_Sentry_base::~_Sentry_base
_TEXT	ENDS
EXTRN	__imp_?_Lock@?$basic_streambuf@DU?$char_traits@D@std@@@std@@QAEXXZ:NEAR
; Function compile flags: /Odt /RTCsu
;	COMDAT ??0_Sentry_base@?$basic_istream@DU?$char_traits@D@std@@@std@@QAE@AAV12@@Z
_TEXT	SEGMENT
_this$ = -4						; size = 4
__Istr$ = 8						; size = 4
??0_Sentry_base@?$basic_istream@DU?$char_traits@D@std@@@std@@QAE@AAV12@@Z PROC NEAR ; std::basic_istream<char,std::char_traits<char> >::_Sentry_base::_Sentry_base, COMDAT
; _this$ = ecx

; 52   : 			{	// lock the stream buffer, if there

  00000	55		 push	 ebp
  00001	8b ec		 mov	 ebp, esp
  00003	51		 push	 ecx
  00004	56		 push	 esi
  00005	c7 45 fc cc cc
	cc cc		 mov	 DWORD PTR [ebp-4], -858993460 ; ccccccccH
  0000c	89 4d fc	 mov	 DWORD PTR _this$[ebp], ecx
  0000f	8b 45 fc	 mov	 eax, DWORD PTR _this$[ebp]
  00012	8b 4d 08	 mov	 ecx, DWORD PTR __Istr$[ebp]
  00015	89 08		 mov	 DWORD PTR [eax], ecx

; 53   : 			if (_Myistr.rdbuf() != 0)

  00017	8b 55 fc	 mov	 edx, DWORD PTR _this$[ebp]
  0001a	8b 02		 mov	 eax, DWORD PTR [edx]
  0001c	8b 08		 mov	 ecx, DWORD PTR [eax]
  0001e	8b 55 fc	 mov	 edx, DWORD PTR _this$[ebp]
  00021	8b 02		 mov	 eax, DWORD PTR [edx]
  00023	03 41 04	 add	 eax, DWORD PTR [ecx+4]
  00026	8b f4		 mov	 esi, esp
  00028	8b c8		 mov	 ecx, eax
  0002a	ff 15 00 00 00
	00		 call	 DWORD PTR __imp_?rdbuf@?$basic_ios@DU?$char_traits@D@std@@@std@@QBEPAV?$basic_streambuf@DU?$char_traits@D@std@@@2@XZ
  00030	3b f4		 cmp	 esi, esp
  00032	e8 00 00 00 00	 call	 __RTC_CheckEsp
  00037	85 c0		 test	 eax, eax
  00039	74 2f		 je	 SHORT $L89502

; 54   : 				_Myistr.rdbuf()->_Lock();

  0003b	8b 4d fc	 mov	 ecx, DWORD PTR _this$[ebp]
  0003e	8b 11		 mov	 edx, DWORD PTR [ecx]
  00040	8b 02		 mov	 eax, DWORD PTR [edx]
  00042	8b 4d fc	 mov	 ecx, DWORD PTR _this$[ebp]
  00045	8b 09		 mov	 ecx, DWORD PTR [ecx]
  00047	03 48 04	 add	 ecx, DWORD PTR [eax+4]
  0004a	8b f4		 mov	 esi, esp
  0004c	ff 15 00 00 00
	00		 call	 DWORD PTR __imp_?rdbuf@?$basic_ios@DU?$char_traits@D@std@@@std@@QBEPAV?$basic_streambuf@DU?$char_traits@D@std@@@2@XZ
  00052	3b f4		 cmp	 esi, esp
  00054	e8 00 00 00 00	 call	 __RTC_CheckEsp
  00059	8b f4		 mov	 esi, esp
  0005b	8b c8		 mov	 ecx, eax
  0005d	ff 15 00 00 00
	00		 call	 DWORD PTR __imp_?_Lock@?$basic_streambuf@DU?$char_traits@D@std@@@std@@QAEXXZ
  00063	3b f4		 cmp	 esi, esp
  00065	e8 00 00 00 00	 call	 __RTC_CheckEsp
$L89502:

; 55   : 			}

  0006a	8b 45 fc	 mov	 eax, DWORD PTR _this$[ebp]
  0006d	5e		 pop	 esi
  0006e	83 c4 04	 add	 esp, 4
  00071	3b ec		 cmp	 ebp, esp
  00073	e8 00 00 00 00	 call	 __RTC_CheckEsp
  00078	8b e5		 mov	 esp, ebp
  0007a	5d		 pop	 ebp
  0007b	c2 04 00	 ret	 4
??0_Sentry_base@?$basic_istream@DU?$char_traits@D@std@@@std@@QAE@AAV12@@Z ENDP ; std::basic_istream<char,std::char_traits<char> >::_Sentry_base::_Sentry_base
_TEXT	ENDS
PUBLIC	?_Psave@?$_Facetptr@V?$ctype@D@std@@@std@@2PBVfacet@locale@2@B ; std::_Facetptr<std::ctype<char> >::_Psave
PUBLIC	__TI2?AVbad_cast@@
PUBLIC	__CTA2?AVbad_cast@@
PUBLIC	??_R0?AVbad_cast@@@8				; bad_cast `RTTI Type Descriptor'
PUBLIC	__CT??_R0?AVbad_cast@@@8??0bad_cast@@QAE@ABV0@@Z12
PUBLIC	??_R0?AVexception@@@8				; exception `RTTI Type Descriptor'
PUBLIC	__CT??_R0?AVexception@@@8??0exception@@QAE@ABV0@@Z12
PUBLIC	??_C@_08EPJLHIJG@bad?5cast?$AA@			; `string'
EXTRN	__imp_?_Getfacet@locale@std@@QBEPBVfacet@12@I@Z:NEAR
EXTRN	??0exception@@QAE@ABV0@@Z:NEAR			; exception::exception
EXTRN	??0bad_cast@@QAE@ABV0@@Z:NEAR			; bad_cast::bad_cast
EXTRN	??1bad_cast@@UAE@XZ:NEAR			; bad_cast::~bad_cast
EXTRN	__imp_?id@?$ctype@D@std@@2V0locale@2@A:DWORD
EXTRN	__imp_?_Getcat@?$ctype@D@std@@SAIPAPBVfacet@locale@2@@Z:NEAR
EXTRN	__imp_??Bid@locale@std@@QAEIXZ:NEAR
EXTRN	__imp_??0_Lockit@std@@QAE@H@Z:NEAR
EXTRN	__imp_??1_Lockit@std@@QAE@XZ:NEAR
EXTRN	__imp_?_Incref@facet@locale@std@@QAEXXZ:NEAR
EXTRN	__imp_?_Register@facet@locale@std@@QAEXXZ:NEAR
EXTRN	__imp_??0bad_cast@@QAE@PBD@Z:NEAR
;	COMDAT ?_Psave@?$_Facetptr@V?$ctype@D@std@@@std@@2PBVfacet@locale@2@B
; File d:\program files (x86)\microsoft visual studio .net 2003\vc7\include\xlocale
_BSS	SEGMENT
?_Psave@?$_Facetptr@V?$ctype@D@std@@@std@@2PBVfacet@locale@2@B DD 01H DUP (?) ; std::_Facetptr<std::ctype<char> >::_Psave
_BSS	ENDS
;	COMDAT xdata$x
xdata$x	SEGMENT
$T93314	DD	0ffffffffH
	DD	FLAT:$L93306
$T93308	DD	019930520H
	DD	01H
	DD	FLAT:$T93314
	DD	2 DUP(00H)
	DD	2 DUP(00H)
xdata$x	ENDS
;	COMDAT ??_C@_08EPJLHIJG@bad?5cast?$AA@
CONST	SEGMENT
??_C@_08EPJLHIJG@bad?5cast?$AA@ DB 'bad cast', 00H	; `string'
CONST	ENDS
;	COMDAT __TI2?AVbad_cast@@
xdata$x	SEGMENT
__TI2?AVbad_cast@@ DD 00H
	DD	FLAT:??1bad_cast@@UAE@XZ
	DD	00H
	DD	FLAT:__CTA2?AVbad_cast@@
xdata$x	ENDS
;	COMDAT __CTA2?AVbad_cast@@
xdata$x	SEGMENT
__CTA2?AVbad_cast@@ DD 02H
	DD	FLAT:__CT??_R0?AVbad_cast@@@8??0bad_cast@@QAE@ABV0@@Z12
	DD	FLAT:__CT??_R0?AVexception@@@8??0exception@@QAE@ABV0@@Z12
xdata$x	ENDS
;	COMDAT __CT??_R0?AVbad_cast@@@8??0bad_cast@@QAE@ABV0@@Z12
xdata$x	SEGMENT
__CT??_R0?AVbad_cast@@@8??0bad_cast@@QAE@ABV0@@Z12 DD 00H
	DD	FLAT:??_R0?AVbad_cast@@@8
	DD	00H
	DD	0ffffffffH
	ORG $+4
	DD	0cH
	DD	FLAT:??0bad_cast@@QAE@ABV0@@Z
xdata$x	ENDS
;	COMDAT ??_R0?AVbad_cast@@@8
_DATA	SEGMENT
??_R0?AVbad_cast@@@8 DD FLAT:??_7type_info@@6B@		; bad_cast `RTTI Type Descriptor'
	DD	00H
	DB	'.?AVbad_cast@@', 00H
_DATA	ENDS
;	COMDAT __CT??_R0?AVexception@@@8??0exception@@QAE@ABV0@@Z12
xdata$x	SEGMENT
__CT??_R0?AVexception@@@8??0exception@@QAE@ABV0@@Z12 DD 00H
	DD	FLAT:??_R0?AVexception@@@8
	DD	00H
	DD	0ffffffffH
	ORG $+4
	DD	0cH
	DD	FLAT:??0exception@@QAE@ABV0@@Z
xdata$x	ENDS
;	COMDAT ??_R0?AVexception@@@8
_DATA	SEGMENT
??_R0?AVexception@@@8 DD FLAT:??_7type_info@@6B@	; exception `RTTI Type Descriptor'
	DD	00H
	DB	'.?AVexception@@', 00H
; Function compile flags: /Odt /RTCsu
_DATA	ENDS
;	COMDAT ??$use_facet@V?$ctype@D@std@@@std@@YAABV?$ctype@D@0@ABVlocale@0@@Z
_TEXT	SEGMENT
$T93305 = -64						; size = 4
$T93304 = -60						; size = 12
__Pfmod$90394 = -48					; size = 4
__Pf$ = -44						; size = 4
__Id$ = -40						; size = 4
__Psave$ = -32						; size = 4
__Lock$ = -20						; size = 4
__$EHRec$ = -12						; size = 12
__Loc$ = 8						; size = 4
??$use_facet@V?$ctype@D@std@@@std@@YAABV?$ctype@D@0@ABVlocale@0@@Z PROC NEAR ; std::use_facet<std::ctype<char> >, COMDAT

; 315  : 	{	// get facet reference from locale

  00000	55		 push	 ebp
  00001	8b ec		 mov	 ebp, esp
  00003	6a ff		 push	 -1
  00005	68 00 00 00 00	 push	 __ehhandler$??$use_facet@V?$ctype@D@std@@@std@@YAABV?$ctype@D@0@ABVlocale@0@@Z
  0000a	64 a1 00 00 00
	00		 mov	 eax, DWORD PTR fs:__except_list
  00010	50		 push	 eax
  00011	64 89 25 00 00
	00 00		 mov	 DWORD PTR fs:__except_list, esp
  00018	83 ec 34	 sub	 esp, 52			; 00000034H
  0001b	56		 push	 esi
  0001c	57		 push	 edi
  0001d	8d 7d c0	 lea	 edi, DWORD PTR [ebp-64]
  00020	b9 0d 00 00 00	 mov	 ecx, 13			; 0000000dH
  00025	b8 cc cc cc cc	 mov	 eax, -858993460		; ccccccccH
  0002a	f3 ab		 rep stosd

; 316  : 	_Lockit _Lock(_LOCK_LOCALE);	// the thread lock, make get atomic

  0002c	8b f4		 mov	 esi, esp
  0002e	6a 00		 push	 0
  00030	8d 4d ec	 lea	 ecx, DWORD PTR __Lock$[ebp]
  00033	ff 15 00 00 00
	00		 call	 DWORD PTR __imp_??0_Lockit@std@@QAE@H@Z
  00039	3b f4		 cmp	 esi, esp
  0003b	e8 00 00 00 00	 call	 __RTC_CheckEsp
  00040	c7 45 fc 00 00
	00 00		 mov	 DWORD PTR __$EHRec$[ebp+8], 0

; 317  : 	const locale::facet *_Psave =
; 318  : 		_Facetptr<_Facet>::_Psave;	// static pointer to lazy facet

  00047	a1 00 00 00 00	 mov	 eax, DWORD PTR ?_Psave@?$_Facetptr@V?$ctype@D@std@@@std@@2PBVfacet@locale@2@B ; std::_Facetptr<std::ctype<char> >::_Psave
  0004c	89 45 e0	 mov	 DWORD PTR __Psave$[ebp], eax

; 319  : 
; 320  : 	size_t _Id = _Facet::id;

  0004f	8b f4		 mov	 esi, esp
  00051	8b 0d 00 00 00
	00		 mov	 ecx, DWORD PTR __imp_?id@?$ctype@D@std@@2V0locale@2@A
  00057	ff 15 00 00 00
	00		 call	 DWORD PTR __imp_??Bid@locale@std@@QAEIXZ
  0005d	3b f4		 cmp	 esi, esp
  0005f	e8 00 00 00 00	 call	 __RTC_CheckEsp
  00064	89 45 d8	 mov	 DWORD PTR __Id$[ebp], eax

; 321  : 	const locale::facet *_Pf = _Loc._Getfacet(_Id);

  00067	8b f4		 mov	 esi, esp
  00069	8b 4d d8	 mov	 ecx, DWORD PTR __Id$[ebp]
  0006c	51		 push	 ecx
  0006d	8b 4d 08	 mov	 ecx, DWORD PTR __Loc$[ebp]
  00070	ff 15 00 00 00
	00		 call	 DWORD PTR __imp_?_Getfacet@locale@std@@QBEPBVfacet@12@I@Z
  00076	3b f4		 cmp	 esi, esp
  00078	e8 00 00 00 00	 call	 __RTC_CheckEsp
  0007d	89 45 d4	 mov	 DWORD PTR __Pf$[ebp], eax

; 322  : 
; 323  : 	if (_Pf != 0)

  00080	83 7d d4 00	 cmp	 DWORD PTR __Pf$[ebp], 0
  00084	74 05		 je	 SHORT $L90378

; 324  : 		;	// got facet from locale
; 325  : 	else if (_Psave != 0)

  00086	e9 86 00 00 00	 jmp	 $L90379
$L90378:
  0008b	83 7d e0 00	 cmp	 DWORD PTR __Psave$[ebp], 0
  0008f	74 08		 je	 SHORT $L90380

; 326  : 		_Pf = _Psave;	// lazy facet already allocated

  00091	8b 55 e0	 mov	 edx, DWORD PTR __Psave$[ebp]
  00094	89 55 d4	 mov	 DWORD PTR __Pf$[ebp], edx

; 327  : 	else if (_Facet::_Getcat(&_Psave) == (size_t)(-1))

  00097	eb 78		 jmp	 SHORT $L90379
$L90380:
  00099	8b f4		 mov	 esi, esp
  0009b	8d 45 e0	 lea	 eax, DWORD PTR __Psave$[ebp]
  0009e	50		 push	 eax
  0009f	ff 15 00 00 00
	00		 call	 DWORD PTR __imp_?_Getcat@?$ctype@D@std@@SAIPAPBVfacet@locale@2@@Z
  000a5	83 c4 04	 add	 esp, 4
  000a8	3b f4		 cmp	 esi, esp
  000aa	e8 00 00 00 00	 call	 __RTC_CheckEsp
  000af	83 f8 ff	 cmp	 eax, -1
  000b2	75 25		 jne	 SHORT $L90383

; 328  : 
; 329  :  #if _HAS_EXCEPTIONS
; 330  : 		throw bad_cast();	// lazy disallowed

  000b4	8b f4		 mov	 esi, esp
  000b6	68 00 00 00 00	 push	 OFFSET FLAT:??_C@_08EPJLHIJG@bad?5cast?$AA@
  000bb	8d 4d c4	 lea	 ecx, DWORD PTR $T93304[ebp]
  000be	ff 15 00 00 00
	00		 call	 DWORD PTR __imp_??0bad_cast@@QAE@PBD@Z
  000c4	3b f4		 cmp	 esi, esp
  000c6	e8 00 00 00 00	 call	 __RTC_CheckEsp
  000cb	68 00 00 00 00	 push	 OFFSET FLAT:__TI2?AVbad_cast@@
  000d0	8d 4d c4	 lea	 ecx, DWORD PTR $T93304[ebp]
  000d3	51		 push	 ecx
  000d4	e8 00 00 00 00	 call	 __CxxThrowException@8
$L90383:

; 331  : 
; 332  :  #else /* _HAS_EXCEPTIONS */
; 333  : 		abort();	// lazy disallowed
; 334  :  #endif /* _HAS_EXCEPTIONS */
; 335  : 
; 336  : 	else
; 337  : 		{	// queue up lazy facet for destruction
; 338  : 		_Pf = _Psave;

  000d9	8b 55 e0	 mov	 edx, DWORD PTR __Psave$[ebp]
  000dc	89 55 d4	 mov	 DWORD PTR __Pf$[ebp], edx

; 339  : 		_Facetptr<_Facet>::_Psave = _Psave;

  000df	8b 45 e0	 mov	 eax, DWORD PTR __Psave$[ebp]
  000e2	a3 00 00 00 00	 mov	 DWORD PTR ?_Psave@?$_Facetptr@V?$ctype@D@std@@@std@@2PBVfacet@locale@2@B, eax ; std::_Facetptr<std::ctype<char> >::_Psave

; 340  : 
; 341  : 		locale::facet *_Pfmod = (_Facet *)_Psave;

  000e7	8b 4d e0	 mov	 ecx, DWORD PTR __Psave$[ebp]
  000ea	89 4d d0	 mov	 DWORD PTR __Pfmod$90394[ebp], ecx

; 342  : 		_Pfmod->_Incref();

  000ed	8b f4		 mov	 esi, esp
  000ef	8b 4d d0	 mov	 ecx, DWORD PTR __Pfmod$90394[ebp]
  000f2	ff 15 00 00 00
	00		 call	 DWORD PTR __imp_?_Incref@facet@locale@std@@QAEXXZ
  000f8	3b f4		 cmp	 esi, esp
  000fa	e8 00 00 00 00	 call	 __RTC_CheckEsp

; 343  : 		_Pfmod->_Register();

  000ff	8b f4		 mov	 esi, esp
  00101	8b 4d d0	 mov	 ecx, DWORD PTR __Pfmod$90394[ebp]
  00104	ff 15 00 00 00
	00		 call	 DWORD PTR __imp_?_Register@facet@locale@std@@QAEXXZ
  0010a	3b f4		 cmp	 esi, esp
  0010c	e8 00 00 00 00	 call	 __RTC_CheckEsp
$L90379:

; 344  : 		}
; 345  : 
; 346  : 	return ((const _Facet&)(*_Pf));	// should be dynamic_cast

  00111	8b 55 d4	 mov	 edx, DWORD PTR __Pf$[ebp]
  00114	89 55 c0	 mov	 DWORD PTR $T93305[ebp], edx
  00117	c7 45 fc ff ff
	ff ff		 mov	 DWORD PTR __$EHRec$[ebp+8], -1
  0011e	8b f4		 mov	 esi, esp
  00120	8d 4d ec	 lea	 ecx, DWORD PTR __Lock$[ebp]
  00123	ff 15 00 00 00
	00		 call	 DWORD PTR __imp_??1_Lockit@std@@QAE@XZ
  00129	3b f4		 cmp	 esi, esp
  0012b	e8 00 00 00 00	 call	 __RTC_CheckEsp
  00130	8b 45 c0	 mov	 eax, DWORD PTR $T93305[ebp]
$L93303:

; 347  : 	}

  00133	52		 push	 edx
  00134	8b cd		 mov	 ecx, ebp
  00136	50		 push	 eax
  00137	8d 15 00 00 00
	00		 lea	 edx, DWORD PTR $L93313
  0013d	e8 00 00 00 00	 call	 @_RTC_CheckStackVars@8
  00142	58		 pop	 eax
  00143	5a		 pop	 edx
  00144	8b 4d f4	 mov	 ecx, DWORD PTR __$EHRec$[ebp]
  00147	64 89 0d 00 00
	00 00		 mov	 DWORD PTR fs:__except_list, ecx
  0014e	5f		 pop	 edi
  0014f	5e		 pop	 esi
  00150	83 c4 40	 add	 esp, 64			; 00000040H
  00153	3b ec		 cmp	 ebp, esp
  00155	e8 00 00 00 00	 call	 __RTC_CheckEsp
  0015a	8b e5		 mov	 esp, ebp
  0015c	5d		 pop	 ebp
  0015d	c3		 ret	 0
$L93313:
  0015e	02 00 00 00	 DD	 2
  00162	00 00 00 00	 DD	 $L93312
$L93312:
  00166	ec ff ff ff	 DD	 -20			; ffffffecH
  0016a	04 00 00 00	 DD	 4
  0016e	00 00 00 00	 DD	 $L93309
  00172	e0 ff ff ff	 DD	 -32			; ffffffe0H
  00176	04 00 00 00	 DD	 4
  0017a	00 00 00 00	 DD	 $L93310
$L93310:
  0017e	5f		 DB	 95			; 0000005fH
  0017f	50		 DB	 80			; 00000050H
  00180	73		 DB	 115			; 00000073H
  00181	61		 DB	 97			; 00000061H
  00182	76		 DB	 118			; 00000076H
  00183	65		 DB	 101			; 00000065H
  00184	00		 DB	 0
$L93309:
  00185	5f		 DB	 95			; 0000005fH
  00186	4c		 DB	 76			; 0000004cH
  00187	6f		 DB	 111			; 0000006fH
  00188	63		 DB	 99			; 00000063H
  00189	6b		 DB	 107			; 0000006bH
  0018a	00		 DB	 0
_TEXT	ENDS
;	COMDAT text$x
text$x	SEGMENT
$L93306:
  00000	8b f4		 mov	 esi, esp
  00002	8d 4d ec	 lea	 ecx, DWORD PTR __Lock$[ebp]
  00005	ff 15 00 00 00
	00		 call	 DWORD PTR __imp_??1_Lockit@std@@QAE@XZ
  0000b	3b f4		 cmp	 esi, esp
  0000d	e9 00 00 00 00	 jmp	 __RTC_CheckEsp
__ehhandler$??$use_facet@V?$ctype@D@std@@@std@@YAABV?$ctype@D@0@ABVlocale@0@@Z:
  00012	b8 00 00 00 00	 mov	 eax, OFFSET FLAT:$T93308
  00017	e9 00 00 00 00	 jmp	 ___CxxFrameHandler
text$x	ENDS
??$use_facet@V?$ctype@D@std@@@std@@YAABV?$ctype@D@0@ABVlocale@0@@Z ENDP ; std::use_facet<std::ctype<char> >
PUBLIC	??$getline@DU?$char_traits@D@std@@V?$allocator@D@2@@std@@YAAAV?$basic_istream@DU?$char_traits@D@std@@@0@AAV10@AAV?$basic_string@DU?$char_traits@D@std@@V?$allocator@D@2@@0@@Z ; std::getline<char,std::char_traits<char>,std::allocator<char> >
PUBLIC	??$getline@DU?$char_traits@D@std@@V?$allocator@D@2@@std@@YAAAV?$basic_istream@DU?$char_traits@D@std@@@0@AAV10@AAV?$basic_string@DU?$char_traits@D@std@@V?$allocator@D@2@@0@D@Z ; std::getline<char,std::char_traits<char>,std::allocator<char> >
EXTRN	__imp_?widen@?$basic_ios@DU?$char_traits@D@std@@@std@@QBEDD@Z:NEAR
; Function compile flags: /Odt /RTCsu
; File d:\program files (x86)\microsoft visual studio .net 2003\vc7\include\string
;	COMDAT ??$getline@DU?$char_traits@D@std@@V?$allocator@D@2@@std@@YAAAV?$basic_istream@DU?$char_traits@D@std@@@0@AAV10@AAV?$basic_string@DU?$char_traits@D@std@@V?$allocator@D@2@@0@@Z
_TEXT	SEGMENT
__Istr$ = 8						; size = 4
__Str$ = 12						; size = 4
??$getline@DU?$char_traits@D@std@@V?$allocator@D@2@@std@@YAAAV?$basic_istream@DU?$char_traits@D@std@@@0@AAV10@AAV?$basic_string@DU?$char_traits@D@std@@V?$allocator@D@2@@0@@Z PROC NEAR ; std::getline<char,std::char_traits<char>,std::allocator<char> >, COMDAT

; 528  : 	{	// get characters into string, discard newline

  00000	55		 push	 ebp
  00001	8b ec		 mov	 ebp, esp
  00003	56		 push	 esi

; 529  : 	return (getline(_Istr, _Str, _Istr.widen('\n')));

  00004	8b f4		 mov	 esi, esp
  00006	6a 0a		 push	 10			; 0000000aH
  00008	8b 45 08	 mov	 eax, DWORD PTR __Istr$[ebp]
  0000b	8b 08		 mov	 ecx, DWORD PTR [eax]
  0000d	8b 55 08	 mov	 edx, DWORD PTR __Istr$[ebp]
  00010	03 51 04	 add	 edx, DWORD PTR [ecx+4]
  00013	8b ca		 mov	 ecx, edx
  00015	ff 15 00 00 00
	00		 call	 DWORD PTR __imp_?widen@?$basic_ios@DU?$char_traits@D@std@@@std@@QBEDD@Z
  0001b	3b f4		 cmp	 esi, esp
  0001d	e8 00 00 00 00	 call	 __RTC_CheckEsp
  00022	50		 push	 eax
  00023	8b 45 0c	 mov	 eax, DWORD PTR __Str$[ebp]
  00026	50		 push	 eax
  00027	8b 4d 08	 mov	 ecx, DWORD PTR __Istr$[ebp]
  0002a	51		 push	 ecx
  0002b	e8 00 00 00 00	 call	 ??$getline@DU?$char_traits@D@std@@V?$allocator@D@2@@std@@YAAAV?$basic_istream@DU?$char_traits@D@std@@@0@AAV10@AAV?$basic_string@DU?$char_traits@D@std@@V?$allocator@D@2@@0@D@Z ; std::getline<char,std::char_traits<char>,std::allocator<char> >
  00030	83 c4 0c	 add	 esp, 12			; 0000000cH

; 530  : 	}

  00033	5e		 pop	 esi
  00034	3b ec		 cmp	 ebp, esp
  00036	e8 00 00 00 00	 call	 __RTC_CheckEsp
  0003b	5d		 pop	 ebp
  0003c	c3		 ret	 0
??$getline@DU?$char_traits@D@std@@V?$allocator@D@2@@std@@YAAAV?$basic_istream@DU?$char_traits@D@std@@@0@AAV10@AAV?$basic_string@DU?$char_traits@D@std@@V?$allocator@D@2@@0@@Z ENDP ; std::getline<char,std::char_traits<char>,std::allocator<char> >
_TEXT	ENDS
EXTRN	__imp_?size@?$basic_string@DU?$char_traits@D@std@@V?$allocator@D@2@@std@@QBEIXZ:NEAR
EXTRN	__imp_?to_int_type@?$char_traits@D@std@@SAHABD@Z:NEAR
EXTRN	__imp_?sbumpc@?$basic_streambuf@DU?$char_traits@D@std@@@std@@QAEHXZ:NEAR
;	COMDAT xdata$x
xdata$x	SEGMENT
$T93333	DD	0ffffffffH
	DD	FLAT:$L93324
	DD	00H
	DD	00H
	DD	00H
	DD	00H
$T93335	DD	00H
	DD	00H
	DD	00H
	DD	FLAT:$L93323
$T93334	DD	01H
	DD	01H
	DD	02H
	DD	01H
	DD	FLAT:$T93335
$T93326	DD	019930520H
	DD	03H
	DD	FLAT:$T93333
	DD	01H
	DD	FLAT:$T93334
	DD	2 DUP(00H)
; Function compile flags: /Odt /RTCsu
xdata$x	ENDS
;	COMDAT ??$getline@DU?$char_traits@D@std@@V?$allocator@D@2@@std@@YAAAV?$basic_istream@DU?$char_traits@D@std@@@0@AAV10@AAV?$basic_string@DU?$char_traits@D@std@@V?$allocator@D@2@@0@D@Z
_TEXT	SEGMENT
tv175 = -113						; size = 1
tv174 = -112						; size = 4
tv173 = -108						; size = 4
tv172 = -104						; size = 4
tv171 = -98						; size = 1
tv170 = -97						; size = 1
tv169 = -96						; size = 4
tv168 = -92						; size = 4
tv167 = -88						; size = 4
tv166 = -84						; size = 4
tv165 = -80						; size = 4
tv65 = -76						; size = 4
$T93321 = -72						; size = 4
$T93320 = -68						; size = 4
__Meta$90491 = -60					; size = 4
__Metadelim$90490 = -48					; size = 4
__Ok$ = -36						; size = 8
__Changed$ = -21					; size = 1
__State$ = -20						; size = 4
__$EHRec$ = -16						; size = 16
__Istr$ = 8						; size = 4
__Str$ = 12						; size = 4
__Delim$ = 16						; size = 1
??$getline@DU?$char_traits@D@std@@V?$allocator@D@2@@std@@YAAAV?$basic_istream@DU?$char_traits@D@std@@@0@AAV10@AAV?$basic_string@DU?$char_traits@D@std@@V?$allocator@D@2@@0@D@Z PROC NEAR ; std::getline<char,std::char_traits<char>,std::allocator<char> >, COMDAT

; 477  : 	{	// get characters into string, discard delimiter

  00000	55		 push	 ebp
  00001	8b ec		 mov	 ebp, esp
  00003	6a ff		 push	 -1
  00005	68 00 00 00 00	 push	 __ehhandler$??$getline@DU?$char_traits@D@std@@V?$allocator@D@2@@std@@YAAAV?$basic_istream@DU?$char_traits@D@std@@@0@AAV10@AAV?$basic_string@DU?$char_traits@D@std@@V?$allocator@D@2@@0@D@Z
  0000a	64 a1 00 00 00
	00		 mov	 eax, DWORD PTR fs:__except_list
  00010	50		 push	 eax
  00011	64 89 25 00 00
	00 00		 mov	 DWORD PTR fs:__except_list, esp
  00018	51		 push	 ecx
  00019	83 ec 64	 sub	 esp, 100		; 00000064H
  0001c	53		 push	 ebx
  0001d	56		 push	 esi
  0001e	57		 push	 edi
  0001f	8d 7d 8c	 lea	 edi, DWORD PTR [ebp-116]
  00022	b9 19 00 00 00	 mov	 ecx, 25			; 00000019H
  00027	b8 cc cc cc cc	 mov	 eax, -858993460		; ccccccccH
  0002c	f3 ab		 rep stosd
  0002e	89 65 f0	 mov	 DWORD PTR __$EHRec$[ebp], esp

; 478  : 	typedef basic_istream<_Elem, _Traits> _Myis;
; 479  : 	ios_base::iostate _State = ios_base::goodbit;

  00031	c7 45 ec 00 00
	00 00		 mov	 DWORD PTR __State$[ebp], 0

; 480  : 	bool _Changed = false;

  00038	c6 45 eb 00	 mov	 BYTE PTR __Changed$[ebp], 0

; 481  : 	const typename _Myis::sentry _Ok(_Istr, true);

  0003c	6a 01		 push	 1
  0003e	8b 45 08	 mov	 eax, DWORD PTR __Istr$[ebp]
  00041	50		 push	 eax
  00042	8d 4d dc	 lea	 ecx, DWORD PTR __Ok$[ebp]
  00045	e8 00 00 00 00	 call	 ??0sentry@?$basic_istream@DU?$char_traits@D@std@@@std@@QAE@AAV12@_N@Z ; std::basic_istream<char,std::char_traits<char> >::sentry::sentry
  0004a	c7 45 fc 00 00
	00 00		 mov	 DWORD PTR __$EHRec$[ebp+12], 0

; 482  : 
; 483  : 	if (_Ok)

  00051	8d 4d dc	 lea	 ecx, DWORD PTR __Ok$[ebp]
  00054	e8 00 00 00 00	 call	 ??Bsentry@?$basic_istream@DU?$char_traits@D@std@@@std@@QBE_NXZ ; std::basic_istream<char,std::char_traits<char> >::sentry::operator bool
  00059	0f b6 c8	 movzx	 ecx, al
  0005c	85 c9		 test	 ecx, ecx
  0005e	0f 84 f6 01 00
	00		 je	 $L93322

; 484  : 		{	// state okay, extract characters
; 485  : 		_TRY_IO_BEGIN

  00064	c6 45 fc 01	 mov	 BYTE PTR __$EHRec$[ebp+12], 1

; 486  : 		_Str.erase();

  00068	8b f4		 mov	 esi, esp
  0006a	8b 15 00 00 00
	00		 mov	 edx, DWORD PTR __imp_?npos@?$basic_string@DU?$char_traits@D@std@@V?$allocator@D@2@@std@@2IB
  00070	8b 02		 mov	 eax, DWORD PTR [edx]
  00072	50		 push	 eax
  00073	6a 00		 push	 0
  00075	8b 4d 0c	 mov	 ecx, DWORD PTR __Str$[ebp]
  00078	ff 15 00 00 00
	00		 call	 DWORD PTR __imp_?erase@?$basic_string@DU?$char_traits@D@std@@V?$allocator@D@2@@std@@QAEAAV12@II@Z
  0007e	3b f4		 cmp	 esi, esp
  00080	e8 00 00 00 00	 call	 __RTC_CheckEsp

; 487  : 		const typename _Traits::int_type _Metadelim =
; 488  : 			_Traits::to_int_type(_Delim);

  00085	8b f4		 mov	 esi, esp
  00087	8d 4d 10	 lea	 ecx, DWORD PTR __Delim$[ebp]
  0008a	51		 push	 ecx
  0008b	ff 15 00 00 00
	00		 call	 DWORD PTR __imp_?to_int_type@?$char_traits@D@std@@SAHABD@Z
  00091	83 c4 04	 add	 esp, 4
  00094	3b f4		 cmp	 esi, esp
  00096	e8 00 00 00 00	 call	 __RTC_CheckEsp
  0009b	89 45 b4	 mov	 DWORD PTR tv65[ebp], eax
  0009e	8b 55 b4	 mov	 edx, DWORD PTR tv65[ebp]
  000a1	89 55 d0	 mov	 DWORD PTR __Metadelim$90490[ebp], edx

; 489  : 		typename _Traits::int_type _Meta = _Istr.rdbuf()->sgetc();

  000a4	8b 45 08	 mov	 eax, DWORD PTR __Istr$[ebp]
  000a7	8b 08		 mov	 ecx, DWORD PTR [eax]
  000a9	8b 55 08	 mov	 edx, DWORD PTR __Istr$[ebp]
  000ac	03 51 04	 add	 edx, DWORD PTR [ecx+4]
  000af	8b f4		 mov	 esi, esp
  000b1	8b ca		 mov	 ecx, edx
  000b3	ff 15 00 00 00
	00		 call	 DWORD PTR __imp_?rdbuf@?$basic_ios@DU?$char_traits@D@std@@@std@@QBEPAV?$basic_streambuf@DU?$char_traits@D@std@@@2@XZ
  000b9	3b f4		 cmp	 esi, esp
  000bb	e8 00 00 00 00	 call	 __RTC_CheckEsp
  000c0	89 45 b0	 mov	 DWORD PTR tv165[ebp], eax
  000c3	8b f4		 mov	 esi, esp
  000c5	8b 4d b0	 mov	 ecx, DWORD PTR tv165[ebp]
  000c8	ff 15 00 00 00
	00		 call	 DWORD PTR __imp_?sgetc@?$basic_streambuf@DU?$char_traits@D@std@@@std@@QAEHXZ
  000ce	3b f4		 cmp	 esi, esp
  000d0	e8 00 00 00 00	 call	 __RTC_CheckEsp
  000d5	89 45 ac	 mov	 DWORD PTR tv166[ebp], eax
  000d8	8b 45 ac	 mov	 eax, DWORD PTR tv166[ebp]
  000db	89 45 c4	 mov	 DWORD PTR __Meta$90491[ebp], eax

; 490  : 
; 491  : 		for (; ; _Meta = _Istr.rdbuf()->snextc())

  000de	eb 38		 jmp	 SHORT $L90492
$L90493:
  000e0	8b 4d 08	 mov	 ecx, DWORD PTR __Istr$[ebp]
  000e3	8b 11		 mov	 edx, DWORD PTR [ecx]
  000e5	8b 4d 08	 mov	 ecx, DWORD PTR __Istr$[ebp]
  000e8	03 4a 04	 add	 ecx, DWORD PTR [edx+4]
  000eb	8b f4		 mov	 esi, esp
  000ed	ff 15 00 00 00
	00		 call	 DWORD PTR __imp_?rdbuf@?$basic_ios@DU?$char_traits@D@std@@@std@@QBEPAV?$basic_streambuf@DU?$char_traits@D@std@@@2@XZ
  000f3	3b f4		 cmp	 esi, esp
  000f5	e8 00 00 00 00	 call	 __RTC_CheckEsp
  000fa	89 45 a8	 mov	 DWORD PTR tv167[ebp], eax
  000fd	8b f4		 mov	 esi, esp
  000ff	8b 4d a8	 mov	 ecx, DWORD PTR tv167[ebp]
  00102	ff 15 00 00 00
	00		 call	 DWORD PTR __imp_?snextc@?$basic_streambuf@DU?$char_traits@D@std@@@std@@QAEHXZ
  00108	3b f4		 cmp	 esi, esp
  0010a	e8 00 00 00 00	 call	 __RTC_CheckEsp
  0010f	89 45 a4	 mov	 DWORD PTR tv168[ebp], eax
  00112	8b 45 a4	 mov	 eax, DWORD PTR tv168[ebp]
  00115	89 45 c4	 mov	 DWORD PTR __Meta$90491[ebp], eax
$L90492:

; 492  : 			if (_Traits::eq_int_type(_Traits::eof(), _Meta))

  00118	8b f4		 mov	 esi, esp
  0011a	ff 15 00 00 00
	00		 call	 DWORD PTR __imp_?eof@?$char_traits@D@std@@SAHXZ
  00120	3b f4		 cmp	 esi, esp
  00122	e8 00 00 00 00	 call	 __RTC_CheckEsp
  00127	89 45 a0	 mov	 DWORD PTR tv169[ebp], eax
  0012a	8b 4d a0	 mov	 ecx, DWORD PTR tv169[ebp]
  0012d	89 4d bc	 mov	 DWORD PTR $T93320[ebp], ecx
  00130	8b f4		 mov	 esi, esp
  00132	8d 55 c4	 lea	 edx, DWORD PTR __Meta$90491[ebp]
  00135	52		 push	 edx
  00136	8d 45 bc	 lea	 eax, DWORD PTR $T93320[ebp]
  00139	50		 push	 eax
  0013a	ff 15 00 00 00
	00		 call	 DWORD PTR __imp_?eq_int_type@?$char_traits@D@std@@SA_NABH0@Z
  00140	83 c4 08	 add	 esp, 8
  00143	3b f4		 cmp	 esi, esp
  00145	e8 00 00 00 00	 call	 __RTC_CheckEsp
  0014a	88 45 9f	 mov	 BYTE PTR tv170[ebp], al
  0014d	0f b6 4d 9f	 movzx	 ecx, BYTE PTR tv170[ebp]
  00151	85 c9		 test	 ecx, ecx
  00153	74 0e		 je	 SHORT $L90496

; 493  : 				{	// end of file, quit
; 494  : 				_State |= ios_base::eofbit;

  00155	8b 55 ec	 mov	 edx, DWORD PTR __State$[ebp]
  00158	83 ca 01	 or	 edx, 1
  0015b	89 55 ec	 mov	 DWORD PTR __State$[ebp], edx

; 495  : 				break;

  0015e	e9 d1 00 00 00	 jmp	 $L90494
$L90496:

; 496  : 				}
; 497  : 			else if (_Traits::eq_int_type(_Meta, _Metadelim))

  00163	8b f4		 mov	 esi, esp
  00165	8d 45 d0	 lea	 eax, DWORD PTR __Metadelim$90490[ebp]
  00168	50		 push	 eax
  00169	8d 4d c4	 lea	 ecx, DWORD PTR __Meta$90491[ebp]
  0016c	51		 push	 ecx
  0016d	ff 15 00 00 00
	00		 call	 DWORD PTR __imp_?eq_int_type@?$char_traits@D@std@@SA_NABH0@Z
  00173	83 c4 08	 add	 esp, 8
  00176	3b f4		 cmp	 esi, esp
  00178	e8 00 00 00 00	 call	 __RTC_CheckEsp
  0017d	88 45 9e	 mov	 BYTE PTR tv171[ebp], al
  00180	0f b6 55 9e	 movzx	 edx, BYTE PTR tv171[ebp]
  00184	85 d2		 test	 edx, edx
  00186	74 37		 je	 SHORT $L90498

; 498  : 				{	// got a delimiter, discard it and quit
; 499  : 				_Changed = true;

  00188	c6 45 eb 01	 mov	 BYTE PTR __Changed$[ebp], 1

; 500  : 				_Istr.rdbuf()->sbumpc();

  0018c	8b 45 08	 mov	 eax, DWORD PTR __Istr$[ebp]
  0018f	8b 08		 mov	 ecx, DWORD PTR [eax]
  00191	8b 55 08	 mov	 edx, DWORD PTR __Istr$[ebp]
  00194	03 51 04	 add	 edx, DWORD PTR [ecx+4]
  00197	8b f4		 mov	 esi, esp
  00199	8b ca		 mov	 ecx, edx
  0019b	ff 15 00 00 00
	00		 call	 DWORD PTR __imp_?rdbuf@?$basic_ios@DU?$char_traits@D@std@@@std@@QBEPAV?$basic_streambuf@DU?$char_traits@D@std@@@2@XZ
  001a1	3b f4		 cmp	 esi, esp
  001a3	e8 00 00 00 00	 call	 __RTC_CheckEsp
  001a8	89 45 98	 mov	 DWORD PTR tv172[ebp], eax
  001ab	8b f4		 mov	 esi, esp
  001ad	8b 4d 98	 mov	 ecx, DWORD PTR tv172[ebp]
  001b0	ff 15 00 00 00
	00		 call	 DWORD PTR __imp_?sbumpc@?$basic_streambuf@DU?$char_traits@D@std@@@std@@QAEHXZ
  001b6	3b f4		 cmp	 esi, esp
  001b8	e8 00 00 00 00	 call	 __RTC_CheckEsp

; 501  : 				break;

  001bd	eb 75		 jmp	 SHORT $L90494
$L90498:

; 502  : 				}
; 503  : 			else if (_Str.max_size() <= _Str.size())

  001bf	8b f4		 mov	 esi, esp
  001c1	8b 4d 0c	 mov	 ecx, DWORD PTR __Str$[ebp]
  001c4	ff 15 00 00 00
	00		 call	 DWORD PTR __imp_?max_size@?$basic_string@DU?$char_traits@D@std@@V?$allocator@D@2@@std@@QBEIXZ
  001ca	3b f4		 cmp	 esi, esp
  001cc	e8 00 00 00 00	 call	 __RTC_CheckEsp
  001d1	89 45 94	 mov	 DWORD PTR tv173[ebp], eax
  001d4	8b f4		 mov	 esi, esp
  001d6	8b 4d 0c	 mov	 ecx, DWORD PTR __Str$[ebp]
  001d9	ff 15 00 00 00
	00		 call	 DWORD PTR __imp_?size@?$basic_string@DU?$char_traits@D@std@@V?$allocator@D@2@@std@@QBEIXZ
  001df	3b f4		 cmp	 esi, esp
  001e1	e8 00 00 00 00	 call	 __RTC_CheckEsp
  001e6	89 45 90	 mov	 DWORD PTR tv174[ebp], eax
  001e9	8b 45 94	 mov	 eax, DWORD PTR tv173[ebp]
  001ec	3b 45 90	 cmp	 eax, DWORD PTR tv174[ebp]
  001ef	77 0b		 ja	 SHORT $L90500

; 504  : 				{	// string too large, quit
; 505  : 				_State |= ios_base::failbit;

  001f1	8b 4d ec	 mov	 ecx, DWORD PTR __State$[ebp]
  001f4	83 c9 02	 or	 ecx, 2
  001f7	89 4d ec	 mov	 DWORD PTR __State$[ebp], ecx

; 506  : 				break;

  001fa	eb 38		 jmp	 SHORT $L90494
$L90500:

; 507  : 				}
; 508  : 			else
; 509  : 				{	// got a character, add it to string
; 510  : 				_Str += _Traits::to_char_type(_Meta);

  001fc	8b f4		 mov	 esi, esp
  001fe	8d 55 c4	 lea	 edx, DWORD PTR __Meta$90491[ebp]
  00201	52		 push	 edx
  00202	ff 15 00 00 00
	00		 call	 DWORD PTR __imp_?to_char_type@?$char_traits@D@std@@SADABH@Z
  00208	83 c4 04	 add	 esp, 4
  0020b	3b f4		 cmp	 esi, esp
  0020d	e8 00 00 00 00	 call	 __RTC_CheckEsp
  00212	88 45 8f	 mov	 BYTE PTR tv175[ebp], al
  00215	8b f4		 mov	 esi, esp
  00217	8a 45 8f	 mov	 al, BYTE PTR tv175[ebp]
  0021a	50		 push	 eax
  0021b	8b 4d 0c	 mov	 ecx, DWORD PTR __Str$[ebp]
  0021e	ff 15 00 00 00
	00		 call	 DWORD PTR __imp_??Y?$basic_string@DU?$char_traits@D@std@@V?$allocator@D@2@@std@@QAEAAV01@D@Z
  00224	3b f4		 cmp	 esi, esp
  00226	e8 00 00 00 00	 call	 __RTC_CheckEsp

; 511  : 				_Changed = true;

  0022b	c6 45 eb 01	 mov	 BYTE PTR __Changed$[ebp], 1

; 512  : 				}

  0022f	e9 ac fe ff ff	 jmp	 $L90493
$L90494:
  00234	eb 24		 jmp	 SHORT $L93322
$L93323:

; 513  : 		_CATCH_IO_(_Istr)

  00236	8b f4		 mov	 esi, esp
  00238	6a 01		 push	 1
  0023a	6a 04		 push	 4
  0023c	8b 4d 08	 mov	 ecx, DWORD PTR __Istr$[ebp]
  0023f	8b 11		 mov	 edx, DWORD PTR [ecx]
  00241	8b 4d 08	 mov	 ecx, DWORD PTR __Istr$[ebp]
  00244	03 4a 04	 add	 ecx, DWORD PTR [edx+4]
  00247	ff 15 00 00 00
	00		 call	 DWORD PTR __imp_?setstate@?$basic_ios@DU?$char_traits@D@std@@@std@@QAEXH_N@Z
  0024d	3b f4		 cmp	 esi, esp
  0024f	e8 00 00 00 00	 call	 __RTC_CheckEsp
  00254	b8 00 00 00 00	 mov	 eax, $L93322
  00259	c3		 ret	 0
$L93322:
  0025a	c7 45 fc 00 00
	00 00		 mov	 DWORD PTR __$EHRec$[ebp+12], 0

; 514  : 		}
; 515  : 
; 516  : 	if (!_Changed)

  00261	0f b6 45 eb	 movzx	 eax, BYTE PTR __Changed$[ebp]
  00265	85 c0		 test	 eax, eax
  00267	75 09		 jne	 SHORT $L90502

; 517  : 		_State |= ios_base::failbit;

  00269	8b 4d ec	 mov	 ecx, DWORD PTR __State$[ebp]
  0026c	83 c9 02	 or	 ecx, 2
  0026f	89 4d ec	 mov	 DWORD PTR __State$[ebp], ecx
$L90502:

; 518  : 	_Istr.setstate(_State);

  00272	8b f4		 mov	 esi, esp
  00274	6a 00		 push	 0
  00276	8b 55 ec	 mov	 edx, DWORD PTR __State$[ebp]
  00279	52		 push	 edx
  0027a	8b 45 08	 mov	 eax, DWORD PTR __Istr$[ebp]
  0027d	8b 08		 mov	 ecx, DWORD PTR [eax]
  0027f	8b 55 08	 mov	 edx, DWORD PTR __Istr$[ebp]
  00282	03 51 04	 add	 edx, DWORD PTR [ecx+4]
  00285	8b ca		 mov	 ecx, edx
  00287	ff 15 00 00 00
	00		 call	 DWORD PTR __imp_?setstate@?$basic_ios@DU?$char_traits@D@std@@@std@@QAEXH_N@Z
  0028d	3b f4		 cmp	 esi, esp
  0028f	e8 00 00 00 00	 call	 __RTC_CheckEsp

; 519  : 	return (_Istr);

  00294	8b 45 08	 mov	 eax, DWORD PTR __Istr$[ebp]
  00297	89 45 b8	 mov	 DWORD PTR $T93321[ebp], eax
  0029a	c7 45 fc ff ff
	ff ff		 mov	 DWORD PTR __$EHRec$[ebp+12], -1
  002a1	8d 4d dc	 lea	 ecx, DWORD PTR __Ok$[ebp]
  002a4	e8 00 00 00 00	 call	 ??1sentry@?$basic_istream@DU?$char_traits@D@std@@@std@@QAE@XZ
  002a9	8b 45 b8	 mov	 eax, DWORD PTR $T93321[ebp]

; 520  : 	}

  002ac	52		 push	 edx
  002ad	8b cd		 mov	 ecx, ebp
  002af	50		 push	 eax
  002b0	8d 15 00 00 00
	00		 lea	 edx, DWORD PTR $L93332
  002b6	e8 00 00 00 00	 call	 @_RTC_CheckStackVars@8
  002bb	58		 pop	 eax
  002bc	5a		 pop	 edx
  002bd	8b 4d f4	 mov	 ecx, DWORD PTR __$EHRec$[ebp+4]
  002c0	64 89 0d 00 00
	00 00		 mov	 DWORD PTR fs:__except_list, ecx
  002c7	5f		 pop	 edi
  002c8	5e		 pop	 esi
  002c9	5b		 pop	 ebx
  002ca	83 c4 74	 add	 esp, 116		; 00000074H
  002cd	3b ec		 cmp	 ebp, esp
  002cf	e8 00 00 00 00	 call	 __RTC_CheckEsp
  002d4	8b e5		 mov	 esp, ebp
  002d6	5d		 pop	 ebp
  002d7	c3		 ret	 0
$L93332:
  002d8	03 00 00 00	 DD	 3
  002dc	00 00 00 00	 DD	 $L93331
$L93331:
  002e0	dc ff ff ff	 DD	 -36			; ffffffdcH
  002e4	08 00 00 00	 DD	 8
  002e8	00 00 00 00	 DD	 $L93327
  002ec	d0 ff ff ff	 DD	 -48			; ffffffd0H
  002f0	04 00 00 00	 DD	 4
  002f4	00 00 00 00	 DD	 $L93328
  002f8	c4 ff ff ff	 DD	 -60			; ffffffc4H
  002fc	04 00 00 00	 DD	 4
  00300	00 00 00 00	 DD	 $L93329
$L93329:
  00304	5f		 DB	 95			; 0000005fH
  00305	4d		 DB	 77			; 0000004dH
  00306	65		 DB	 101			; 00000065H
  00307	74		 DB	 116			; 00000074H
  00308	61		 DB	 97			; 00000061H
  00309	00		 DB	 0
$L93328:
  0030a	5f		 DB	 95			; 0000005fH
  0030b	4d		 DB	 77			; 0000004dH
  0030c	65		 DB	 101			; 00000065H
  0030d	74		 DB	 116			; 00000074H
  0030e	61		 DB	 97			; 00000061H
  0030f	64		 DB	 100			; 00000064H
  00310	65		 DB	 101			; 00000065H
  00311	6c		 DB	 108			; 0000006cH
  00312	69		 DB	 105			; 00000069H
  00313	6d		 DB	 109			; 0000006dH
  00314	00		 DB	 0
$L93327:
  00315	5f		 DB	 95			; 0000005fH
  00316	4f		 DB	 79			; 0000004fH
  00317	6b		 DB	 107			; 0000006bH
  00318	00		 DB	 0
_TEXT	ENDS
;	COMDAT text$x
text$x	SEGMENT
$L93324:
  00000	8d 4d dc	 lea	 ecx, DWORD PTR __Ok$[ebp]
  00003	e9 00 00 00 00	 jmp	 ??1sentry@?$basic_istream@DU?$char_traits@D@std@@@std@@QAE@XZ
__ehhandler$??$getline@DU?$char_traits@D@std@@V?$allocator@D@2@@std@@YAAAV?$basic_istream@DU?$char_traits@D@std@@@0@AAV10@AAV?$basic_string@DU?$char_traits@D@std@@V?$allocator@D@2@@0@D@Z:
  00008	b8 00 00 00 00	 mov	 eax, OFFSET FLAT:$T93326
  0000d	e9 00 00 00 00	 jmp	 ___CxxFrameHandler
text$x	ENDS
??$getline@DU?$char_traits@D@std@@V?$allocator@D@2@@std@@YAAAV?$basic_istream@DU?$char_traits@D@std@@@0@AAV10@AAV?$basic_string@DU?$char_traits@D@std@@V?$allocator@D@2@@0@D@Z ENDP ; std::getline<char,std::char_traits<char>,std::allocator<char> >
PUBLIC	??0sentry@?$basic_ostream@DU?$char_traits@D@std@@@std@@QAE@AAV12@@Z ; std::basic_ostream<char,std::char_traits<char> >::sentry::sentry
PUBLIC	??1sentry@?$basic_ostream@DU?$char_traits@D@std@@@std@@QAE@XZ ; std::basic_ostream<char,std::char_traits<char> >::sentry::~sentry
PUBLIC	??Bsentry@?$basic_ostream@DU?$char_traits@D@std@@@std@@QBE_NXZ ; std::basic_ostream<char,std::char_traits<char> >::sentry::operator bool
PUBLIC	??$?6DU?$char_traits@D@std@@V?$allocator@D@1@@std@@YAAAV?$basic_ostream@DU?$char_traits@D@std@@@0@AAV10@ABV?$basic_string@DU?$char_traits@D@std@@V?$allocator@D@2@@0@@Z ; std::operator<<<char,std::char_traits<char>,std::allocator<char> >
EXTRN	__imp_??A?$basic_string@DU?$char_traits@D@std@@V?$allocator@D@2@@std@@QBEABDI@Z:NEAR
EXTRN	__imp_?fill@?$basic_ios@DU?$char_traits@D@std@@@std@@QBEDXZ:NEAR
EXTRN	__imp_?flags@ios_base@std@@QBEHXZ:NEAR
EXTRN	__imp_?sputc@?$basic_streambuf@DU?$char_traits@D@std@@@std@@QAEHD@Z:NEAR
;	COMDAT xdata$x
xdata$x	SEGMENT
$T93357	DD	0ffffffffH
	DD	FLAT:$L93350
	DD	00H
	DD	00H
	DD	00H
	DD	00H
$T93359	DD	00H
	DD	00H
	DD	00H
	DD	FLAT:$L93349
$T93358	DD	01H
	DD	01H
	DD	02H
	DD	01H
	DD	FLAT:$T93359
$T93352	DD	019930520H
	DD	03H
	DD	FLAT:$T93357
	DD	01H
	DD	FLAT:$T93358
	DD	2 DUP(00H)
; Function compile flags: /Odt /RTCsu
xdata$x	ENDS
;	COMDAT ??$?6DU?$char_traits@D@std@@V?$allocator@D@1@@std@@YAAAV?$basic_ostream@DU?$char_traits@D@std@@@0@AAV10@ABV?$basic_string@DU?$char_traits@D@std@@V?$allocator@D@2@@0@@Z
_TEXT	SEGMENT
tv221 = -137						; size = 1
tv220 = -136						; size = 4
tv219 = -132						; size = 4
tv218 = -128						; size = 4
tv217 = -122						; size = 1
tv216 = -121						; size = 1
tv215 = -120						; size = 4
tv214 = -116						; size = 4
tv213 = -112						; size = 4
tv212 = -108						; size = 4
tv211 = -101						; size = 1
tv210 = -100						; size = 4
tv209 = -96						; size = 4
tv208 = -92						; size = 4
tv207 = -85						; size = 1
tv83 = -84						; size = 4
tv81 = -80						; size = 4
$T93347 = -76						; size = 4
$T93346 = -72						; size = 4
$T93345 = -68						; size = 4
$T93344 = -64						; size = 4
$T93343 = -60						; size = 4
$T93342 = -56						; size = 4
$T93341 = -52						; size = 4
__Count$90525 = -48					; size = 4
__Ok$ = -40						; size = 8
__Pad$ = -28						; size = 4
__Size$ = -24						; size = 4
__State$ = -20						; size = 4
__$EHRec$ = -16						; size = 16
__Ostr$ = 8						; size = 4
__Str$ = 12						; size = 4
??$?6DU?$char_traits@D@std@@V?$allocator@D@1@@std@@YAAAV?$basic_ostream@DU?$char_traits@D@std@@@0@AAV10@ABV?$basic_string@DU?$char_traits@D@std@@V?$allocator@D@2@@0@@Z PROC NEAR ; std::operator<<<char,std::char_traits<char>,std::allocator<char> >, COMDAT

; 538  : 	{	// insert a string

  00000	55		 push	 ebp
  00001	8b ec		 mov	 ebp, esp
  00003	6a ff		 push	 -1
  00005	68 00 00 00 00	 push	 __ehhandler$??$?6DU?$char_traits@D@std@@V?$allocator@D@1@@std@@YAAAV?$basic_ostream@DU?$char_traits@D@std@@@0@AAV10@ABV?$basic_string@DU?$char_traits@D@std@@V?$allocator@D@2@@0@@Z
  0000a	64 a1 00 00 00
	00		 mov	 eax, DWORD PTR fs:__except_list
  00010	50		 push	 eax
  00011	64 89 25 00 00
	00 00		 mov	 DWORD PTR fs:__except_list, esp
  00018	51		 push	 ecx
  00019	83 ec 7c	 sub	 esp, 124		; 0000007cH
  0001c	53		 push	 ebx
  0001d	56		 push	 esi
  0001e	57		 push	 edi
  0001f	8d bd 74 ff ff
	ff		 lea	 edi, DWORD PTR [ebp-140]
  00025	b9 1f 00 00 00	 mov	 ecx, 31			; 0000001fH
  0002a	b8 cc cc cc cc	 mov	 eax, -858993460		; ccccccccH
  0002f	f3 ab		 rep stosd
  00031	89 65 f0	 mov	 DWORD PTR __$EHRec$[ebp], esp

; 539  : 	typedef basic_ostream<_Elem, _Traits> _Myos;
; 540  : 	typedef basic_string<_Elem, _Traits, _Alloc> _Mystr;
; 541  : 	typedef typename _Mystr::size_type _Mysizt;
; 542  : 
; 543  : 	ios_base::iostate _State = ios_base::goodbit;

  00034	c7 45 ec 00 00
	00 00		 mov	 DWORD PTR __State$[ebp], 0

; 544  : 	_Mysizt _Size = _Str.size();

  0003b	8b f4		 mov	 esi, esp
  0003d	8b 4d 0c	 mov	 ecx, DWORD PTR __Str$[ebp]
  00040	ff 15 00 00 00
	00		 call	 DWORD PTR __imp_?size@?$basic_string@DU?$char_traits@D@std@@V?$allocator@D@2@@std@@QBEIXZ
  00046	3b f4		 cmp	 esi, esp
  00048	e8 00 00 00 00	 call	 __RTC_CheckEsp
  0004d	89 45 e8	 mov	 DWORD PTR __Size$[ebp], eax

; 545  : 	_Mysizt _Pad = _Ostr.width() <= 0 || (_Mysizt)_Ostr.width() <= _Size
; 546  : 			? 0 : (_Mysizt)_Ostr.width() - _Size;

  00050	8b 45 08	 mov	 eax, DWORD PTR __Ostr$[ebp]
  00053	8b 08		 mov	 ecx, DWORD PTR [eax]
  00055	8b 55 08	 mov	 edx, DWORD PTR __Ostr$[ebp]
  00058	03 51 04	 add	 edx, DWORD PTR [ecx+4]
  0005b	8b f4		 mov	 esi, esp
  0005d	8b ca		 mov	 ecx, edx
  0005f	ff 15 00 00 00
	00		 call	 DWORD PTR __imp_?width@ios_base@std@@QBEHXZ
  00065	3b f4		 cmp	 esi, esp
  00067	e8 00 00 00 00	 call	 __RTC_CheckEsp
  0006c	85 c0		 test	 eax, eax
  0006e	7e 45		 jle	 SHORT $L93339
  00070	8b 45 08	 mov	 eax, DWORD PTR __Ostr$[ebp]
  00073	8b 08		 mov	 ecx, DWORD PTR [eax]
  00075	8b 55 08	 mov	 edx, DWORD PTR __Ostr$[ebp]
  00078	03 51 04	 add	 edx, DWORD PTR [ecx+4]
  0007b	8b f4		 mov	 esi, esp
  0007d	8b ca		 mov	 ecx, edx
  0007f	ff 15 00 00 00
	00		 call	 DWORD PTR __imp_?width@ios_base@std@@QBEHXZ
  00085	3b f4		 cmp	 esi, esp
  00087	e8 00 00 00 00	 call	 __RTC_CheckEsp
  0008c	3b 45 e8	 cmp	 eax, DWORD PTR __Size$[ebp]
  0008f	76 24		 jbe	 SHORT $L93339
  00091	8b 45 08	 mov	 eax, DWORD PTR __Ostr$[ebp]
  00094	8b 08		 mov	 ecx, DWORD PTR [eax]
  00096	8b 55 08	 mov	 edx, DWORD PTR __Ostr$[ebp]
  00099	03 51 04	 add	 edx, DWORD PTR [ecx+4]
  0009c	8b f4		 mov	 esi, esp
  0009e	8b ca		 mov	 ecx, edx
  000a0	ff 15 00 00 00
	00		 call	 DWORD PTR __imp_?width@ios_base@std@@QBEHXZ
  000a6	3b f4		 cmp	 esi, esp
  000a8	e8 00 00 00 00	 call	 __RTC_CheckEsp
  000ad	2b 45 e8	 sub	 eax, DWORD PTR __Size$[ebp]
  000b0	89 45 b0	 mov	 DWORD PTR tv81[ebp], eax
  000b3	eb 07		 jmp	 SHORT $L93340
$L93339:
  000b5	c7 45 b0 00 00
	00 00		 mov	 DWORD PTR tv81[ebp], 0
$L93340:
  000bc	8b 45 b0	 mov	 eax, DWORD PTR tv81[ebp]
  000bf	89 45 e4	 mov	 DWORD PTR __Pad$[ebp], eax

; 547  : 	const typename _Myos::sentry _Ok(_Ostr);

  000c2	8b 4d 08	 mov	 ecx, DWORD PTR __Ostr$[ebp]
  000c5	51		 push	 ecx
  000c6	8d 4d d8	 lea	 ecx, DWORD PTR __Ok$[ebp]
  000c9	e8 00 00 00 00	 call	 ??0sentry@?$basic_ostream@DU?$char_traits@D@std@@@std@@QAE@AAV12@@Z ; std::basic_ostream<char,std::char_traits<char> >::sentry::sentry
  000ce	c7 45 fc 00 00
	00 00		 mov	 DWORD PTR __$EHRec$[ebp+12], 0

; 548  : 
; 549  : 	if (!_Ok)

  000d5	8d 4d d8	 lea	 ecx, DWORD PTR __Ok$[ebp]
  000d8	e8 00 00 00 00	 call	 ??Bsentry@?$basic_ostream@DU?$char_traits@D@std@@@std@@QBE_NXZ ; std::basic_ostream<char,std::char_traits<char> >::sentry::operator bool
  000dd	0f b6 d0	 movzx	 edx, al
  000e0	85 d2		 test	 edx, edx
  000e2	75 0e		 jne	 SHORT $L90514

; 550  : 		_State |= ios_base::badbit;

  000e4	8b 45 ec	 mov	 eax, DWORD PTR __State$[ebp]
  000e7	83 c8 04	 or	 eax, 4
  000ea	89 45 ec	 mov	 DWORD PTR __State$[ebp], eax

; 551  : 	else

  000ed	e9 d8 02 00 00	 jmp	 $L93348
$L90514:

; 552  : 		{	// state okay, insert characters
; 553  : 	_TRY_IO_BEGIN

  000f2	c6 45 fc 01	 mov	 BYTE PTR __$EHRec$[ebp+12], 1

; 554  : 		if ((_Ostr.flags() & ios_base::adjustfield) != ios_base::left)

  000f6	8b 4d 08	 mov	 ecx, DWORD PTR __Ostr$[ebp]
  000f9	8b 11		 mov	 edx, DWORD PTR [ecx]
  000fb	8b 4d 08	 mov	 ecx, DWORD PTR __Ostr$[ebp]
  000fe	03 4a 04	 add	 ecx, DWORD PTR [edx+4]
  00101	8b f4		 mov	 esi, esp
  00103	ff 15 00 00 00
	00		 call	 DWORD PTR __imp_?flags@ios_base@std@@QBEHXZ
  00109	3b f4		 cmp	 esi, esp
  0010b	e8 00 00 00 00	 call	 __RTC_CheckEsp
  00110	89 45 ac	 mov	 DWORD PTR tv83[ebp], eax
  00113	8b 45 ac	 mov	 eax, DWORD PTR tv83[ebp]
  00116	25 c0 01 00 00	 and	 eax, 448		; 000001c0H
  0011b	83 f8 40	 cmp	 eax, 64			; 00000040H
  0011e	0f 84 bb 00 00
	00		 je	 $L90517

; 555  : 			for (; 0 < _Pad; --_Pad)	// pad on left

  00124	eb 09		 jmp	 SHORT $L90518
$L90519:
  00126	8b 4d e4	 mov	 ecx, DWORD PTR __Pad$[ebp]
  00129	83 e9 01	 sub	 ecx, 1
  0012c	89 4d e4	 mov	 DWORD PTR __Pad$[ebp], ecx
$L90518:
  0012f	83 7d e4 00	 cmp	 DWORD PTR __Pad$[ebp], 0
  00133	0f 86 a6 00 00
	00		 jbe	 $L90517

; 556  : 				if (_Traits::eq_int_type(_Traits::eof(),
; 557  : 					_Ostr.rdbuf()->sputc(_Ostr.fill())))

  00139	8b 55 08	 mov	 edx, DWORD PTR __Ostr$[ebp]
  0013c	8b 02		 mov	 eax, DWORD PTR [edx]
  0013e	8b 4d 08	 mov	 ecx, DWORD PTR __Ostr$[ebp]
  00141	03 48 04	 add	 ecx, DWORD PTR [eax+4]
  00144	8b f4		 mov	 esi, esp
  00146	ff 15 00 00 00
	00		 call	 DWORD PTR __imp_?fill@?$basic_ios@DU?$char_traits@D@std@@@std@@QBEDXZ
  0014c	3b f4		 cmp	 esi, esp
  0014e	e8 00 00 00 00	 call	 __RTC_CheckEsp
  00153	88 45 ab	 mov	 BYTE PTR tv207[ebp], al
  00156	8b 4d 08	 mov	 ecx, DWORD PTR __Ostr$[ebp]
  00159	8b 11		 mov	 edx, DWORD PTR [ecx]
  0015b	8b 4d 08	 mov	 ecx, DWORD PTR __Ostr$[ebp]
  0015e	03 4a 04	 add	 ecx, DWORD PTR [edx+4]
  00161	8b f4		 mov	 esi, esp
  00163	ff 15 00 00 00
	00		 call	 DWORD PTR __imp_?rdbuf@?$basic_ios@DU?$char_traits@D@std@@@std@@QBEPAV?$basic_streambuf@DU?$char_traits@D@std@@@2@XZ
  00169	3b f4		 cmp	 esi, esp
  0016b	e8 00 00 00 00	 call	 __RTC_CheckEsp
  00170	89 45 a4	 mov	 DWORD PTR tv208[ebp], eax
  00173	8b f4		 mov	 esi, esp
  00175	8a 45 ab	 mov	 al, BYTE PTR tv207[ebp]
  00178	50		 push	 eax
  00179	8b 4d a4	 mov	 ecx, DWORD PTR tv208[ebp]
  0017c	ff 15 00 00 00
	00		 call	 DWORD PTR __imp_?sputc@?$basic_streambuf@DU?$char_traits@D@std@@@std@@QAEHD@Z
  00182	3b f4		 cmp	 esi, esp
  00184	e8 00 00 00 00	 call	 __RTC_CheckEsp
  00189	89 45 a0	 mov	 DWORD PTR tv209[ebp], eax
  0018c	8b 4d a0	 mov	 ecx, DWORD PTR tv209[ebp]
  0018f	89 4d cc	 mov	 DWORD PTR $T93341[ebp], ecx
  00192	8b f4		 mov	 esi, esp
  00194	ff 15 00 00 00
	00		 call	 DWORD PTR __imp_?eof@?$char_traits@D@std@@SAHXZ
  0019a	3b f4		 cmp	 esi, esp
  0019c	e8 00 00 00 00	 call	 __RTC_CheckEsp
  001a1	89 45 9c	 mov	 DWORD PTR tv210[ebp], eax
  001a4	8b 55 9c	 mov	 edx, DWORD PTR tv210[ebp]
  001a7	89 55 c8	 mov	 DWORD PTR $T93342[ebp], edx
  001aa	8b f4		 mov	 esi, esp
  001ac	8d 45 cc	 lea	 eax, DWORD PTR $T93341[ebp]
  001af	50		 push	 eax
  001b0	8d 4d c8	 lea	 ecx, DWORD PTR $T93342[ebp]
  001b3	51		 push	 ecx
  001b4	ff 15 00 00 00
	00		 call	 DWORD PTR __imp_?eq_int_type@?$char_traits@D@std@@SA_NABH0@Z
  001ba	83 c4 08	 add	 esp, 8
  001bd	3b f4		 cmp	 esi, esp
  001bf	e8 00 00 00 00	 call	 __RTC_CheckEsp
  001c4	88 45 9b	 mov	 BYTE PTR tv211[ebp], al
  001c7	0f b6 55 9b	 movzx	 edx, BYTE PTR tv211[ebp]
  001cb	85 d2		 test	 edx, edx
  001cd	74 0b		 je	 SHORT $L90523

; 558  : 					{	// insertion failed, quit
; 559  : 					_State |= ios_base::badbit;

  001cf	8b 45 ec	 mov	 eax, DWORD PTR __State$[ebp]
  001d2	83 c8 04	 or	 eax, 4
  001d5	89 45 ec	 mov	 DWORD PTR __State$[ebp], eax

; 560  : 					break;

  001d8	eb 05		 jmp	 SHORT $L90517
$L90523:

; 561  : 					}
; 562  : 
; 563  : 		if (_State == ios_base::goodbit)

  001da	e9 47 ff ff ff	 jmp	 $L90519
$L90517:
  001df	83 7d ec 00	 cmp	 DWORD PTR __State$[ebp], 0
  001e3	0f 85 c2 00 00
	00		 jne	 $L90524

; 564  : 			for (_Mysizt _Count = 0; _Count < _Size; ++_Count)

  001e9	c7 45 d0 00 00
	00 00		 mov	 DWORD PTR __Count$90525[ebp], 0
  001f0	eb 09		 jmp	 SHORT $L90526
$L90527:
  001f2	8b 4d d0	 mov	 ecx, DWORD PTR __Count$90525[ebp]
  001f5	83 c1 01	 add	 ecx, 1
  001f8	89 4d d0	 mov	 DWORD PTR __Count$90525[ebp], ecx
$L90526:
  001fb	8b 55 d0	 mov	 edx, DWORD PTR __Count$90525[ebp]
  001fe	3b 55 e8	 cmp	 edx, DWORD PTR __Size$[ebp]
  00201	0f 83 a4 00 00
	00		 jae	 $L90524

; 565  : 				if (_Traits::eq_int_type(_Traits::eof(),
; 566  : 					_Ostr.rdbuf()->sputc(_Str[_Count])))

  00207	8b f4		 mov	 esi, esp
  00209	8b 45 d0	 mov	 eax, DWORD PTR __Count$90525[ebp]
  0020c	50		 push	 eax
  0020d	8b 4d 0c	 mov	 ecx, DWORD PTR __Str$[ebp]
  00210	ff 15 00 00 00
	00		 call	 DWORD PTR __imp_??A?$basic_string@DU?$char_traits@D@std@@V?$allocator@D@2@@std@@QBEABDI@Z
  00216	3b f4		 cmp	 esi, esp
  00218	e8 00 00 00 00	 call	 __RTC_CheckEsp
  0021d	89 45 94	 mov	 DWORD PTR tv212[ebp], eax
  00220	8b 4d 08	 mov	 ecx, DWORD PTR __Ostr$[ebp]
  00223	8b 11		 mov	 edx, DWORD PTR [ecx]
  00225	8b 4d 08	 mov	 ecx, DWORD PTR __Ostr$[ebp]
  00228	03 4a 04	 add	 ecx, DWORD PTR [edx+4]
  0022b	8b f4		 mov	 esi, esp
  0022d	ff 15 00 00 00
	00		 call	 DWORD PTR __imp_?rdbuf@?$basic_ios@DU?$char_traits@D@std@@@std@@QBEPAV?$basic_streambuf@DU?$char_traits@D@std@@@2@XZ
  00233	3b f4		 cmp	 esi, esp
  00235	e8 00 00 00 00	 call	 __RTC_CheckEsp
  0023a	89 45 90	 mov	 DWORD PTR tv213[ebp], eax
  0023d	8b f4		 mov	 esi, esp
  0023f	8b 45 94	 mov	 eax, DWORD PTR tv212[ebp]
  00242	8a 08		 mov	 cl, BYTE PTR [eax]
  00244	51		 push	 ecx
  00245	8b 4d 90	 mov	 ecx, DWORD PTR tv213[ebp]
  00248	ff 15 00 00 00
	00		 call	 DWORD PTR __imp_?sputc@?$basic_streambuf@DU?$char_traits@D@std@@@std@@QAEHD@Z
  0024e	3b f4		 cmp	 esi, esp
  00250	e8 00 00 00 00	 call	 __RTC_CheckEsp
  00255	89 45 8c	 mov	 DWORD PTR tv214[ebp], eax
  00258	8b 55 8c	 mov	 edx, DWORD PTR tv214[ebp]
  0025b	89 55 c4	 mov	 DWORD PTR $T93343[ebp], edx
  0025e	8b f4		 mov	 esi, esp
  00260	ff 15 00 00 00
	00		 call	 DWORD PTR __imp_?eof@?$char_traits@D@std@@SAHXZ
  00266	3b f4		 cmp	 esi, esp
  00268	e8 00 00 00 00	 call	 __RTC_CheckEsp
  0026d	89 45 88	 mov	 DWORD PTR tv215[ebp], eax
  00270	8b 45 88	 mov	 eax, DWORD PTR tv215[ebp]
  00273	89 45 c0	 mov	 DWORD PTR $T93344[ebp], eax
  00276	8b f4		 mov	 esi, esp
  00278	8d 4d c4	 lea	 ecx, DWORD PTR $T93343[ebp]
  0027b	51		 push	 ecx
  0027c	8d 55 c0	 lea	 edx, DWORD PTR $T93344[ebp]
  0027f	52		 push	 edx
  00280	ff 15 00 00 00
	00		 call	 DWORD PTR __imp_?eq_int_type@?$char_traits@D@std@@SA_NABH0@Z
  00286	83 c4 08	 add	 esp, 8
  00289	3b f4		 cmp	 esi, esp
  0028b	e8 00 00 00 00	 call	 __RTC_CheckEsp
  00290	88 45 87	 mov	 BYTE PTR tv216[ebp], al
  00293	0f b6 45 87	 movzx	 eax, BYTE PTR tv216[ebp]
  00297	85 c0		 test	 eax, eax
  00299	74 0b		 je	 SHORT $L90531

; 567  : 					{	// insertion failed, quit
; 568  : 					_State |= ios_base::badbit;

  0029b	8b 4d ec	 mov	 ecx, DWORD PTR __State$[ebp]
  0029e	83 c9 04	 or	 ecx, 4
  002a1	89 4d ec	 mov	 DWORD PTR __State$[ebp], ecx

; 569  : 					break;

  002a4	eb 05		 jmp	 SHORT $L90524
$L90531:

; 570  : 					}
; 571  : 
; 572  : 		if (_State == ios_base::goodbit)

  002a6	e9 47 ff ff ff	 jmp	 $L90527
$L90524:
  002ab	83 7d ec 00	 cmp	 DWORD PTR __State$[ebp], 0
  002af	0f 85 d1 00 00
	00		 jne	 $L90532

; 573  : 			for (; 0 < _Pad; --_Pad)	// pad on right

  002b5	eb 09		 jmp	 SHORT $L90533
$L90534:
  002b7	8b 55 e4	 mov	 edx, DWORD PTR __Pad$[ebp]
  002ba	83 ea 01	 sub	 edx, 1
  002bd	89 55 e4	 mov	 DWORD PTR __Pad$[ebp], edx
$L90533:
  002c0	83 7d e4 00	 cmp	 DWORD PTR __Pad$[ebp], 0
  002c4	0f 86 bc 00 00
	00		 jbe	 $L90532

; 574  : 				if (_Traits::eq_int_type(_Traits::eof(),
; 575  : 					_Ostr.rdbuf()->sputc(_Ostr.fill())))

  002ca	8b 45 08	 mov	 eax, DWORD PTR __Ostr$[ebp]
  002cd	8b 08		 mov	 ecx, DWORD PTR [eax]
  002cf	8b 55 08	 mov	 edx, DWORD PTR __Ostr$[ebp]
  002d2	03 51 04	 add	 edx, DWORD PTR [ecx+4]
  002d5	8b f4		 mov	 esi, esp
  002d7	8b ca		 mov	 ecx, edx
  002d9	ff 15 00 00 00
	00		 call	 DWORD PTR __imp_?fill@?$basic_ios@DU?$char_traits@D@std@@@std@@QBEDXZ
  002df	3b f4		 cmp	 esi, esp
  002e1	e8 00 00 00 00	 call	 __RTC_CheckEsp
  002e6	88 45 86	 mov	 BYTE PTR tv217[ebp], al
  002e9	8b 45 08	 mov	 eax, DWORD PTR __Ostr$[ebp]
  002ec	8b 08		 mov	 ecx, DWORD PTR [eax]
  002ee	8b 55 08	 mov	 edx, DWORD PTR __Ostr$[ebp]
  002f1	03 51 04	 add	 edx, DWORD PTR [ecx+4]
  002f4	8b f4		 mov	 esi, esp
  002f6	8b ca		 mov	 ecx, edx
  002f8	ff 15 00 00 00
	00		 call	 DWORD PTR __imp_?rdbuf@?$basic_ios@DU?$char_traits@D@std@@@std@@QBEPAV?$basic_streambuf@DU?$char_traits@D@std@@@2@XZ
  002fe	3b f4		 cmp	 esi, esp
  00300	e8 00 00 00 00	 call	 __RTC_CheckEsp
  00305	89 45 80	 mov	 DWORD PTR tv218[ebp], eax
  00308	8b f4		 mov	 esi, esp
  0030a	8a 45 86	 mov	 al, BYTE PTR tv217[ebp]
  0030d	50		 push	 eax
  0030e	8b 4d 80	 mov	 ecx, DWORD PTR tv218[ebp]
  00311	ff 15 00 00 00
	00		 call	 DWORD PTR __imp_?sputc@?$basic_streambuf@DU?$char_traits@D@std@@@std@@QAEHD@Z
  00317	3b f4		 cmp	 esi, esp
  00319	e8 00 00 00 00	 call	 __RTC_CheckEsp
  0031e	89 85 7c ff ff
	ff		 mov	 DWORD PTR tv219[ebp], eax
  00324	8b 8d 7c ff ff
	ff		 mov	 ecx, DWORD PTR tv219[ebp]
  0032a	89 4d bc	 mov	 DWORD PTR $T93345[ebp], ecx
  0032d	8b f4		 mov	 esi, esp
  0032f	ff 15 00 00 00
	00		 call	 DWORD PTR __imp_?eof@?$char_traits@D@std@@SAHXZ
  00335	3b f4		 cmp	 esi, esp
  00337	e8 00 00 00 00	 call	 __RTC_CheckEsp
  0033c	89 85 78 ff ff
	ff		 mov	 DWORD PTR tv220[ebp], eax
  00342	8b 95 78 ff ff
	ff		 mov	 edx, DWORD PTR tv220[ebp]
  00348	89 55 b8	 mov	 DWORD PTR $T93346[ebp], edx
  0034b	8b f4		 mov	 esi, esp
  0034d	8d 45 bc	 lea	 eax, DWORD PTR $T93345[ebp]
  00350	50		 push	 eax
  00351	8d 4d b8	 lea	 ecx, DWORD PTR $T93346[ebp]
  00354	51		 push	 ecx
  00355	ff 15 00 00 00
	00		 call	 DWORD PTR __imp_?eq_int_type@?$char_traits@D@std@@SA_NABH0@Z
  0035b	83 c4 08	 add	 esp, 8
  0035e	3b f4		 cmp	 esi, esp
  00360	e8 00 00 00 00	 call	 __RTC_CheckEsp
  00365	88 85 77 ff ff
	ff		 mov	 BYTE PTR tv221[ebp], al
  0036b	0f b6 95 77 ff
	ff ff		 movzx	 edx, BYTE PTR tv221[ebp]
  00372	85 d2		 test	 edx, edx
  00374	74 0b		 je	 SHORT $L90538

; 576  : 					{	// insertion failed, quit
; 577  : 					_State |= ios_base::badbit;

  00376	8b 45 ec	 mov	 eax, DWORD PTR __State$[ebp]
  00379	83 c8 04	 or	 eax, 4
  0037c	89 45 ec	 mov	 DWORD PTR __State$[ebp], eax

; 578  : 					break;

  0037f	eb 05		 jmp	 SHORT $L90532
$L90538:

; 579  : 					}
; 580  : 		_Ostr.width(0);

  00381	e9 31 ff ff ff	 jmp	 $L90534
$L90532:
  00386	8b f4		 mov	 esi, esp
  00388	6a 00		 push	 0
  0038a	8b 4d 08	 mov	 ecx, DWORD PTR __Ostr$[ebp]
  0038d	8b 11		 mov	 edx, DWORD PTR [ecx]
  0038f	8b 4d 08	 mov	 ecx, DWORD PTR __Ostr$[ebp]
  00392	03 4a 04	 add	 ecx, DWORD PTR [edx+4]
  00395	ff 15 00 00 00
	00		 call	 DWORD PTR __imp_?width@ios_base@std@@QAEHH@Z
  0039b	3b f4		 cmp	 esi, esp
  0039d	e8 00 00 00 00	 call	 __RTC_CheckEsp
  003a2	eb 26		 jmp	 SHORT $L93348
$L93349:

; 581  : 		_CATCH_IO_(_Ostr)

  003a4	8b f4		 mov	 esi, esp
  003a6	6a 01		 push	 1
  003a8	6a 04		 push	 4
  003aa	8b 45 08	 mov	 eax, DWORD PTR __Ostr$[ebp]
  003ad	8b 08		 mov	 ecx, DWORD PTR [eax]
  003af	8b 55 08	 mov	 edx, DWORD PTR __Ostr$[ebp]
  003b2	03 51 04	 add	 edx, DWORD PTR [ecx+4]
  003b5	8b ca		 mov	 ecx, edx
  003b7	ff 15 00 00 00
	00		 call	 DWORD PTR __imp_?setstate@?$basic_ios@DU?$char_traits@D@std@@@std@@QAEXH_N@Z
  003bd	3b f4		 cmp	 esi, esp
  003bf	e8 00 00 00 00	 call	 __RTC_CheckEsp
  003c4	b8 00 00 00 00	 mov	 eax, $L93348
  003c9	c3		 ret	 0
$L93348:
  003ca	c7 45 fc 00 00
	00 00		 mov	 DWORD PTR __$EHRec$[ebp+12], 0

; 582  : 		}
; 583  : 
; 584  : 	_Ostr.setstate(_State);

  003d1	8b f4		 mov	 esi, esp
  003d3	6a 00		 push	 0
  003d5	8b 45 ec	 mov	 eax, DWORD PTR __State$[ebp]
  003d8	50		 push	 eax
  003d9	8b 4d 08	 mov	 ecx, DWORD PTR __Ostr$[ebp]
  003dc	8b 11		 mov	 edx, DWORD PTR [ecx]
  003de	8b 4d 08	 mov	 ecx, DWORD PTR __Ostr$[ebp]
  003e1	03 4a 04	 add	 ecx, DWORD PTR [edx+4]
  003e4	ff 15 00 00 00
	00		 call	 DWORD PTR __imp_?setstate@?$basic_ios@DU?$char_traits@D@std@@@std@@QAEXH_N@Z
  003ea	3b f4		 cmp	 esi, esp
  003ec	e8 00 00 00 00	 call	 __RTC_CheckEsp

; 585  : 	return (_Ostr);

  003f1	8b 45 08	 mov	 eax, DWORD PTR __Ostr$[ebp]
  003f4	89 45 b4	 mov	 DWORD PTR $T93347[ebp], eax
  003f7	c7 45 fc ff ff
	ff ff		 mov	 DWORD PTR __$EHRec$[ebp+12], -1
  003fe	8d 4d d8	 lea	 ecx, DWORD PTR __Ok$[ebp]
  00401	e8 00 00 00 00	 call	 ??1sentry@?$basic_ostream@DU?$char_traits@D@std@@@std@@QAE@XZ ; std::basic_ostream<char,std::char_traits<char> >::sentry::~sentry
  00406	8b 45 b4	 mov	 eax, DWORD PTR $T93347[ebp]

; 586  : 	}

  00409	52		 push	 edx
  0040a	8b cd		 mov	 ecx, ebp
  0040c	50		 push	 eax
  0040d	8d 15 00 00 00
	00		 lea	 edx, DWORD PTR $L93356
  00413	e8 00 00 00 00	 call	 @_RTC_CheckStackVars@8
  00418	58		 pop	 eax
  00419	5a		 pop	 edx
  0041a	8b 4d f4	 mov	 ecx, DWORD PTR __$EHRec$[ebp+4]
  0041d	64 89 0d 00 00
	00 00		 mov	 DWORD PTR fs:__except_list, ecx
  00424	5f		 pop	 edi
  00425	5e		 pop	 esi
  00426	5b		 pop	 ebx
  00427	81 c4 8c 00 00
	00		 add	 esp, 140		; 0000008cH
  0042d	3b ec		 cmp	 ebp, esp
  0042f	e8 00 00 00 00	 call	 __RTC_CheckEsp
  00434	8b e5		 mov	 esp, ebp
  00436	5d		 pop	 ebp
  00437	c3		 ret	 0
$L93356:
  00438	01 00 00 00	 DD	 1
  0043c	00 00 00 00	 DD	 $L93355
$L93355:
  00440	d8 ff ff ff	 DD	 -40			; ffffffd8H
  00444	08 00 00 00	 DD	 8
  00448	00 00 00 00	 DD	 $L93353
$L93353:
  0044c	5f		 DB	 95			; 0000005fH
  0044d	4f		 DB	 79			; 0000004fH
  0044e	6b		 DB	 107			; 0000006bH
  0044f	00		 DB	 0
_TEXT	ENDS
;	COMDAT text$x
text$x	SEGMENT
$L93350:
  00000	8d 4d d8	 lea	 ecx, DWORD PTR __Ok$[ebp]
  00003	e9 00 00 00 00	 jmp	 ??1sentry@?$basic_ostream@DU?$char_traits@D@std@@@std@@QAE@XZ ; std::basic_ostream<char,std::char_traits<char> >::sentry::~sentry
__ehhandler$??$?6DU?$char_traits@D@std@@V?$allocator@D@1@@std@@YAAAV?$basic_ostream@DU?$char_traits@D@std@@@0@AAV10@ABV?$basic_string@DU?$char_traits@D@std@@V?$allocator@D@2@@0@@Z:
  00008	b8 00 00 00 00	 mov	 eax, OFFSET FLAT:$T93352
  0000d	e9 00 00 00 00	 jmp	 ___CxxFrameHandler
text$x	ENDS
??$?6DU?$char_traits@D@std@@V?$allocator@D@1@@std@@YAAAV?$basic_ostream@DU?$char_traits@D@std@@@0@AAV10@ABV?$basic_string@DU?$char_traits@D@std@@V?$allocator@D@2@@0@@Z ENDP ; std::operator<<<char,std::char_traits<char>,std::allocator<char> >
PUBLIC	??0_Sentry_base@?$basic_ostream@DU?$char_traits@D@std@@@std@@QAE@AAV12@@Z ; std::basic_ostream<char,std::char_traits<char> >::_Sentry_base::_Sentry_base
PUBLIC	??1_Sentry_base@?$basic_ostream@DU?$char_traits@D@std@@@std@@QAE@XZ ; std::basic_ostream<char,std::char_traits<char> >::_Sentry_base::~_Sentry_base
EXTRN	__imp_?tie@?$basic_ios@DU?$char_traits@D@std@@@std@@QBEPAV?$basic_ostream@DU?$char_traits@D@std@@@2@XZ:NEAR
EXTRN	__imp_?good@ios_base@std@@QBE_NXZ:NEAR
EXTRN	__imp_?flush@?$basic_ostream@DU?$char_traits@D@std@@@std@@QAEAAV12@XZ:NEAR
;	COMDAT xdata$x
; File d:\program files (x86)\microsoft visual studio .net 2003\vc7\include\ostream
xdata$x	SEGMENT
$T93367	DD	0ffffffffH
	DD	FLAT:$L93363
$T93365	DD	019930520H
	DD	01H
	DD	FLAT:$T93367
	DD	2 DUP(00H)
	DD	2 DUP(00H)
; Function compile flags: /Odt /RTCsu
xdata$x	ENDS
;	COMDAT ??0sentry@?$basic_ostream@DU?$char_traits@D@std@@@std@@QAE@AAV12@@Z
_TEXT	SEGMENT
_this$ = -16						; size = 4
__$EHRec$ = -12						; size = 12
__Ostr$ = 8						; size = 4
??0sentry@?$basic_ostream@DU?$char_traits@D@std@@@std@@QAE@AAV12@@Z PROC NEAR ; std::basic_ostream<char,std::char_traits<char> >::sentry::sentry, COMDAT
; _this$ = ecx

; 88   : 			{	// construct locking and testing stream

  00000	55		 push	 ebp
  00001	8b ec		 mov	 ebp, esp
  00003	6a ff		 push	 -1
  00005	68 00 00 00 00	 push	 __ehhandler$??0sentry@?$basic_ostream@DU?$char_traits@D@std@@@std@@QAE@AAV12@@Z
  0000a	64 a1 00 00 00
	00		 mov	 eax, DWORD PTR fs:__except_list
  00010	50		 push	 eax
  00011	64 89 25 00 00
	00 00		 mov	 DWORD PTR fs:__except_list, esp
  00018	51		 push	 ecx
  00019	56		 push	 esi
  0001a	c7 45 f0 cc cc
	cc cc		 mov	 DWORD PTR [ebp-16], -858993460 ; ccccccccH
  00021	89 4d f0	 mov	 DWORD PTR _this$[ebp], ecx
  00024	8b 45 08	 mov	 eax, DWORD PTR __Ostr$[ebp]
  00027	50		 push	 eax
  00028	8b 4d f0	 mov	 ecx, DWORD PTR _this$[ebp]
  0002b	e8 00 00 00 00	 call	 ??0_Sentry_base@?$basic_ostream@DU?$char_traits@D@std@@@std@@QAE@AAV12@@Z ; std::basic_ostream<char,std::char_traits<char> >::_Sentry_base::_Sentry_base
  00030	c7 45 fc 00 00
	00 00		 mov	 DWORD PTR __$EHRec$[ebp+8], 0

; 89   : 			if (_Ostr.good() && _Ostr.tie() != 0)

  00037	8b 4d 08	 mov	 ecx, DWORD PTR __Ostr$[ebp]
  0003a	8b 11		 mov	 edx, DWORD PTR [ecx]
  0003c	8b 4d 08	 mov	 ecx, DWORD PTR __Ostr$[ebp]
  0003f	03 4a 04	 add	 ecx, DWORD PTR [edx+4]
  00042	8b f4		 mov	 esi, esp
  00044	ff 15 00 00 00
	00		 call	 DWORD PTR __imp_?good@ios_base@std@@QBE_NXZ
  0004a	3b f4		 cmp	 esi, esp
  0004c	e8 00 00 00 00	 call	 __RTC_CheckEsp
  00051	0f b6 c0	 movzx	 eax, al
  00054	85 c0		 test	 eax, eax
  00056	74 4b		 je	 SHORT $L89699
  00058	8b 4d 08	 mov	 ecx, DWORD PTR __Ostr$[ebp]
  0005b	8b 11		 mov	 edx, DWORD PTR [ecx]
  0005d	8b 4d 08	 mov	 ecx, DWORD PTR __Ostr$[ebp]
  00060	03 4a 04	 add	 ecx, DWORD PTR [edx+4]
  00063	8b f4		 mov	 esi, esp
  00065	ff 15 00 00 00
	00		 call	 DWORD PTR __imp_?tie@?$basic_ios@DU?$char_traits@D@std@@@std@@QBEPAV?$basic_ostream@DU?$char_traits@D@std@@@2@XZ
  0006b	3b f4		 cmp	 esi, esp
  0006d	e8 00 00 00 00	 call	 __RTC_CheckEsp
  00072	85 c0		 test	 eax, eax
  00074	74 2d		 je	 SHORT $L89699

; 90   : 				_Ostr.tie()->flush();

  00076	8b 45 08	 mov	 eax, DWORD PTR __Ostr$[ebp]
  00079	8b 08		 mov	 ecx, DWORD PTR [eax]
  0007b	8b 55 08	 mov	 edx, DWORD PTR __Ostr$[ebp]
  0007e	03 51 04	 add	 edx, DWORD PTR [ecx+4]
  00081	8b f4		 mov	 esi, esp
  00083	8b ca		 mov	 ecx, edx
  00085	ff 15 00 00 00
	00		 call	 DWORD PTR __imp_?tie@?$basic_ios@DU?$char_traits@D@std@@@std@@QBEPAV?$basic_ostream@DU?$char_traits@D@std@@@2@XZ
  0008b	3b f4		 cmp	 esi, esp
  0008d	e8 00 00 00 00	 call	 __RTC_CheckEsp
  00092	8b f4		 mov	 esi, esp
  00094	8b c8		 mov	 ecx, eax
  00096	ff 15 00 00 00
	00		 call	 DWORD PTR __imp_?flush@?$basic_ostream@DU?$char_traits@D@std@@@std@@QAEAAV12@XZ
  0009c	3b f4		 cmp	 esi, esp
  0009e	e8 00 00 00 00	 call	 __RTC_CheckEsp
$L89699:

; 91   : 			_Ok = _Ostr.good();	// store test only after flushing tie

  000a3	8b 45 08	 mov	 eax, DWORD PTR __Ostr$[ebp]
  000a6	8b 08		 mov	 ecx, DWORD PTR [eax]
  000a8	8b 55 08	 mov	 edx, DWORD PTR __Ostr$[ebp]
  000ab	03 51 04	 add	 edx, DWORD PTR [ecx+4]
  000ae	8b f4		 mov	 esi, esp
  000b0	8b ca		 mov	 ecx, edx
  000b2	ff 15 00 00 00
	00		 call	 DWORD PTR __imp_?good@ios_base@std@@QBE_NXZ
  000b8	3b f4		 cmp	 esi, esp
  000ba	e8 00 00 00 00	 call	 __RTC_CheckEsp
  000bf	8b 4d f0	 mov	 ecx, DWORD PTR _this$[ebp]
  000c2	88 41 04	 mov	 BYTE PTR [ecx+4], al

; 92   : 			}

  000c5	c7 45 fc ff ff
	ff ff		 mov	 DWORD PTR __$EHRec$[ebp+8], -1
  000cc	8b 45 f0	 mov	 eax, DWORD PTR _this$[ebp]
  000cf	8b 4d f4	 mov	 ecx, DWORD PTR __$EHRec$[ebp]
  000d2	64 89 0d 00 00
	00 00		 mov	 DWORD PTR fs:__except_list, ecx
  000d9	5e		 pop	 esi
  000da	83 c4 10	 add	 esp, 16			; 00000010H
  000dd	3b ec		 cmp	 ebp, esp
  000df	e8 00 00 00 00	 call	 __RTC_CheckEsp
  000e4	8b e5		 mov	 esp, ebp
  000e6	5d		 pop	 ebp
  000e7	c2 04 00	 ret	 4
_TEXT	ENDS
;	COMDAT text$x
text$x	SEGMENT
$L93363:
  00000	8b 4d f0	 mov	 ecx, DWORD PTR _this$[ebp]
  00003	e9 00 00 00 00	 jmp	 ??1_Sentry_base@?$basic_ostream@DU?$char_traits@D@std@@@std@@QAE@XZ ; std::basic_ostream<char,std::char_traits<char> >::_Sentry_base::~_Sentry_base
__ehhandler$??0sentry@?$basic_ostream@DU?$char_traits@D@std@@@std@@QAE@AAV12@@Z:
  00008	b8 00 00 00 00	 mov	 eax, OFFSET FLAT:$T93365
  0000d	e9 00 00 00 00	 jmp	 ___CxxFrameHandler
text$x	ENDS
??0sentry@?$basic_ostream@DU?$char_traits@D@std@@@std@@QAE@AAV12@@Z ENDP ; std::basic_ostream<char,std::char_traits<char> >::sentry::sentry
EXTRN	__imp_?_Osfx@?$basic_ostream@DU?$char_traits@D@std@@@std@@QAEXXZ:NEAR
EXTRN	__imp_?uncaught_exception@std@@YA_NXZ:NEAR
;	COMDAT xdata$x
xdata$x	SEGMENT
$T93375	DD	0ffffffffH
	DD	FLAT:$L93371
$T93373	DD	019930520H
	DD	01H
	DD	FLAT:$T93375
	DD	2 DUP(00H)
	DD	2 DUP(00H)
; Function compile flags: /Odt /RTCsu
xdata$x	ENDS
;	COMDAT ??1sentry@?$basic_ostream@DU?$char_traits@D@std@@@std@@QAE@XZ
_TEXT	SEGMENT
_this$ = -16						; size = 4
__$EHRec$ = -12						; size = 12
??1sentry@?$basic_ostream@DU?$char_traits@D@std@@@std@@QAE@XZ PROC NEAR ; std::basic_ostream<char,std::char_traits<char> >::sentry::~sentry, COMDAT
; _this$ = ecx

; 95   : 			{	// destroy the object

  00000	55		 push	 ebp
  00001	8b ec		 mov	 ebp, esp
  00003	6a ff		 push	 -1
  00005	68 00 00 00 00	 push	 __ehhandler$??1sentry@?$basic_ostream@DU?$char_traits@D@std@@@std@@QAE@XZ
  0000a	64 a1 00 00 00
	00		 mov	 eax, DWORD PTR fs:__except_list
  00010	50		 push	 eax
  00011	64 89 25 00 00
	00 00		 mov	 DWORD PTR fs:__except_list, esp
  00018	51		 push	 ecx
  00019	56		 push	 esi
  0001a	c7 45 f0 cc cc
	cc cc		 mov	 DWORD PTR [ebp-16], -858993460 ; ccccccccH
  00021	89 4d f0	 mov	 DWORD PTR _this$[ebp], ecx
  00024	c7 45 fc 00 00
	00 00		 mov	 DWORD PTR __$EHRec$[ebp+8], 0

; 96   : 
; 97   :  #if _HAS_EXCEPTIONS
; 98   : 			if (!uncaught_exception())

  0002b	8b f4		 mov	 esi, esp
  0002d	ff 15 00 00 00
	00		 call	 DWORD PTR __imp_?uncaught_exception@std@@YA_NXZ
  00033	3b f4		 cmp	 esi, esp
  00035	e8 00 00 00 00	 call	 __RTC_CheckEsp
  0003a	0f b6 c0	 movzx	 eax, al
  0003d	85 c0		 test	 eax, eax
  0003f	75 14		 jne	 SHORT $L89701

; 99   : 				this->_Myostr._Osfx();

  00041	8b 4d f0	 mov	 ecx, DWORD PTR _this$[ebp]
  00044	8b 09		 mov	 ecx, DWORD PTR [ecx]
  00046	8b f4		 mov	 esi, esp
  00048	ff 15 00 00 00
	00		 call	 DWORD PTR __imp_?_Osfx@?$basic_ostream@DU?$char_traits@D@std@@@std@@QAEXXZ
  0004e	3b f4		 cmp	 esi, esp
  00050	e8 00 00 00 00	 call	 __RTC_CheckEsp
$L89701:

; 100  : 			}

  00055	c7 45 fc ff ff
	ff ff		 mov	 DWORD PTR __$EHRec$[ebp+8], -1
  0005c	8b 4d f0	 mov	 ecx, DWORD PTR _this$[ebp]
  0005f	e8 00 00 00 00	 call	 ??1_Sentry_base@?$basic_ostream@DU?$char_traits@D@std@@@std@@QAE@XZ ; std::basic_ostream<char,std::char_traits<char> >::_Sentry_base::~_Sentry_base
  00064	8b 4d f4	 mov	 ecx, DWORD PTR __$EHRec$[ebp]
  00067	64 89 0d 00 00
	00 00		 mov	 DWORD PTR fs:__except_list, ecx
  0006e	5e		 pop	 esi
  0006f	83 c4 10	 add	 esp, 16			; 00000010H
  00072	3b ec		 cmp	 ebp, esp
  00074	e8 00 00 00 00	 call	 __RTC_CheckEsp
  00079	8b e5		 mov	 esp, ebp
  0007b	5d		 pop	 ebp
  0007c	c3		 ret	 0
_TEXT	ENDS
;	COMDAT text$x
text$x	SEGMENT
$L93371:
  00000	8b 4d f0	 mov	 ecx, DWORD PTR _this$[ebp]
  00003	e9 00 00 00 00	 jmp	 ??1_Sentry_base@?$basic_ostream@DU?$char_traits@D@std@@@std@@QAE@XZ ; std::basic_ostream<char,std::char_traits<char> >::_Sentry_base::~_Sentry_base
__ehhandler$??1sentry@?$basic_ostream@DU?$char_traits@D@std@@@std@@QAE@XZ:
  00008	b8 00 00 00 00	 mov	 eax, OFFSET FLAT:$T93373
  0000d	e9 00 00 00 00	 jmp	 ___CxxFrameHandler
text$x	ENDS
??1sentry@?$basic_ostream@DU?$char_traits@D@std@@@std@@QAE@XZ ENDP ; std::basic_ostream<char,std::char_traits<char> >::sentry::~sentry
; Function compile flags: /Odt /RTCsu
;	COMDAT ??Bsentry@?$basic_ostream@DU?$char_traits@D@std@@@std@@QBE_NXZ
_TEXT	SEGMENT
_this$ = -4						; size = 4
??Bsentry@?$basic_ostream@DU?$char_traits@D@std@@@std@@QBE_NXZ PROC NEAR ; std::basic_ostream<char,std::char_traits<char> >::sentry::operator bool, COMDAT
; _this$ = ecx

; 108  : 			{	// test if stream state okay

  00000	55		 push	 ebp
  00001	8b ec		 mov	 ebp, esp
  00003	51		 push	 ecx
  00004	c7 45 fc cc cc
	cc cc		 mov	 DWORD PTR [ebp-4], -858993460 ; ccccccccH
  0000b	89 4d fc	 mov	 DWORD PTR _this$[ebp], ecx

; 109  : 			return (_Ok);

  0000e	8b 45 fc	 mov	 eax, DWORD PTR _this$[ebp]
  00011	8a 40 04	 mov	 al, BYTE PTR [eax+4]

; 110  : 			}

  00014	8b e5		 mov	 esp, ebp
  00016	5d		 pop	 ebp
  00017	c3		 ret	 0
??Bsentry@?$basic_ostream@DU?$char_traits@D@std@@@std@@QBE_NXZ ENDP ; std::basic_ostream<char,std::char_traits<char> >::sentry::operator bool
; Function compile flags: /Odt /RTCsu
_TEXT	ENDS
;	COMDAT ??0_Sentry_base@?$basic_ostream@DU?$char_traits@D@std@@@std@@QAE@AAV12@@Z
_TEXT	SEGMENT
_this$ = -4						; size = 4
__Ostr$ = 8						; size = 4
??0_Sentry_base@?$basic_ostream@DU?$char_traits@D@std@@@std@@QAE@AAV12@@Z PROC NEAR ; std::basic_ostream<char,std::char_traits<char> >::_Sentry_base::_Sentry_base, COMDAT
; _this$ = ecx

; 68   : 			{	// lock the stream buffer, if there

  00000	55		 push	 ebp
  00001	8b ec		 mov	 ebp, esp
  00003	51		 push	 ecx
  00004	56		 push	 esi
  00005	c7 45 fc cc cc
	cc cc		 mov	 DWORD PTR [ebp-4], -858993460 ; ccccccccH
  0000c	89 4d fc	 mov	 DWORD PTR _this$[ebp], ecx
  0000f	8b 45 fc	 mov	 eax, DWORD PTR _this$[ebp]
  00012	8b 4d 08	 mov	 ecx, DWORD PTR __Ostr$[ebp]
  00015	89 08		 mov	 DWORD PTR [eax], ecx

; 69   : 			if (_Myostr.rdbuf() != 0)

  00017	8b 55 fc	 mov	 edx, DWORD PTR _this$[ebp]
  0001a	8b 02		 mov	 eax, DWORD PTR [edx]
  0001c	8b 08		 mov	 ecx, DWORD PTR [eax]
  0001e	8b 55 fc	 mov	 edx, DWORD PTR _this$[ebp]
  00021	8b 02		 mov	 eax, DWORD PTR [edx]
  00023	03 41 04	 add	 eax, DWORD PTR [ecx+4]
  00026	8b f4		 mov	 esi, esp
  00028	8b c8		 mov	 ecx, eax
  0002a	ff 15 00 00 00
	00		 call	 DWORD PTR __imp_?rdbuf@?$basic_ios@DU?$char_traits@D@std@@@std@@QBEPAV?$basic_streambuf@DU?$char_traits@D@std@@@2@XZ
  00030	3b f4		 cmp	 esi, esp
  00032	e8 00 00 00 00	 call	 __RTC_CheckEsp
  00037	85 c0		 test	 eax, eax
  00039	74 2f		 je	 SHORT $L90039

; 70   : 				_Myostr.rdbuf()->_Lock();

  0003b	8b 4d fc	 mov	 ecx, DWORD PTR _this$[ebp]
  0003e	8b 11		 mov	 edx, DWORD PTR [ecx]
  00040	8b 02		 mov	 eax, DWORD PTR [edx]
  00042	8b 4d fc	 mov	 ecx, DWORD PTR _this$[ebp]
  00045	8b 09		 mov	 ecx, DWORD PTR [ecx]
  00047	03 48 04	 add	 ecx, DWORD PTR [eax+4]
  0004a	8b f4		 mov	 esi, esp
  0004c	ff 15 00 00 00
	00		 call	 DWORD PTR __imp_?rdbuf@?$basic_ios@DU?$char_traits@D@std@@@std@@QBEPAV?$basic_streambuf@DU?$char_traits@D@std@@@2@XZ
  00052	3b f4		 cmp	 esi, esp
  00054	e8 00 00 00 00	 call	 __RTC_CheckEsp
  00059	8b f4		 mov	 esi, esp
  0005b	8b c8		 mov	 ecx, eax
  0005d	ff 15 00 00 00
	00		 call	 DWORD PTR __imp_?_Lock@?$basic_streambuf@DU?$char_traits@D@std@@@std@@QAEXXZ
  00063	3b f4		 cmp	 esi, esp
  00065	e8 00 00 00 00	 call	 __RTC_CheckEsp
$L90039:

; 71   : 			}

  0006a	8b 45 fc	 mov	 eax, DWORD PTR _this$[ebp]
  0006d	5e		 pop	 esi
  0006e	83 c4 04	 add	 esp, 4
  00071	3b ec		 cmp	 ebp, esp
  00073	e8 00 00 00 00	 call	 __RTC_CheckEsp
  00078	8b e5		 mov	 esp, ebp
  0007a	5d		 pop	 ebp
  0007b	c2 04 00	 ret	 4
??0_Sentry_base@?$basic_ostream@DU?$char_traits@D@std@@@std@@QAE@AAV12@@Z ENDP ; std::basic_ostream<char,std::char_traits<char> >::_Sentry_base::_Sentry_base
; Function compile flags: /Odt /RTCsu
_TEXT	ENDS
;	COMDAT ??1_Sentry_base@?$basic_ostream@DU?$char_traits@D@std@@@std@@QAE@XZ
_TEXT	SEGMENT
_this$ = -4						; size = 4
??1_Sentry_base@?$basic_ostream@DU?$char_traits@D@std@@@std@@QAE@XZ PROC NEAR ; std::basic_ostream<char,std::char_traits<char> >::_Sentry_base::~_Sentry_base, COMDAT
; _this$ = ecx

; 74   : 			{	// destroy after unlocking

  00000	55		 push	 ebp
  00001	8b ec		 mov	 ebp, esp
  00003	51		 push	 ecx
  00004	56		 push	 esi
  00005	c7 45 fc cc cc
	cc cc		 mov	 DWORD PTR [ebp-4], -858993460 ; ccccccccH
  0000c	89 4d fc	 mov	 DWORD PTR _this$[ebp], ecx

; 75   : 			if (_Myostr.rdbuf() != 0)

  0000f	8b 45 fc	 mov	 eax, DWORD PTR _this$[ebp]
  00012	8b 08		 mov	 ecx, DWORD PTR [eax]
  00014	8b 11		 mov	 edx, DWORD PTR [ecx]
  00016	8b 45 fc	 mov	 eax, DWORD PTR _this$[ebp]
  00019	8b 08		 mov	 ecx, DWORD PTR [eax]
  0001b	03 4a 04	 add	 ecx, DWORD PTR [edx+4]
  0001e	8b f4		 mov	 esi, esp
  00020	ff 15 00 00 00
	00		 call	 DWORD PTR __imp_?rdbuf@?$basic_ios@DU?$char_traits@D@std@@@std@@QBEPAV?$basic_streambuf@DU?$char_traits@D@std@@@2@XZ
  00026	3b f4		 cmp	 esi, esp
  00028	e8 00 00 00 00	 call	 __RTC_CheckEsp
  0002d	85 c0		 test	 eax, eax
  0002f	74 2f		 je	 SHORT $L90042

; 76   : 				_Myostr.rdbuf()->_Unlock();

  00031	8b 4d fc	 mov	 ecx, DWORD PTR _this$[ebp]
  00034	8b 11		 mov	 edx, DWORD PTR [ecx]
  00036	8b 02		 mov	 eax, DWORD PTR [edx]
  00038	8b 4d fc	 mov	 ecx, DWORD PTR _this$[ebp]
  0003b	8b 09		 mov	 ecx, DWORD PTR [ecx]
  0003d	03 48 04	 add	 ecx, DWORD PTR [eax+4]
  00040	8b f4		 mov	 esi, esp
  00042	ff 15 00 00 00
	00		 call	 DWORD PTR __imp_?rdbuf@?$basic_ios@DU?$char_traits@D@std@@@std@@QBEPAV?$basic_streambuf@DU?$char_traits@D@std@@@2@XZ
  00048	3b f4		 cmp	 esi, esp
  0004a	e8 00 00 00 00	 call	 __RTC_CheckEsp
  0004f	8b f4		 mov	 esi, esp
  00051	8b c8		 mov	 ecx, eax
  00053	ff 15 00 00 00
	00		 call	 DWORD PTR __imp_?_Unlock@?$basic_streambuf@DU?$char_traits@D@std@@@std@@QAEXXZ
  00059	3b f4		 cmp	 esi, esp
  0005b	e8 00 00 00 00	 call	 __RTC_CheckEsp
$L90042:

; 77   : 			}

  00060	5e		 pop	 esi
  00061	83 c4 04	 add	 esp, 4
  00064	3b ec		 cmp	 ebp, esp
  00066	e8 00 00 00 00	 call	 __RTC_CheckEsp
  0006b	8b e5		 mov	 esp, ebp
  0006d	5d		 pop	 ebp
  0006e	c3		 ret	 0
??1_Sentry_base@?$basic_ostream@DU?$char_traits@D@std@@@std@@QAE@XZ ENDP ; std::basic_ostream<char,std::char_traits<char> >::_Sentry_base::~_Sentry_base
_TEXT	ENDS
PUBLIC	??0sentry@?$basic_istream@_WU?$char_traits@_W@std@@@std@@QAE@AAV12@_N@Z ; std::basic_istream<wchar_t,std::char_traits<wchar_t> >::sentry::sentry
PUBLIC	??Bsentry@?$basic_istream@_WU?$char_traits@_W@std@@@std@@QBE_NXZ ; std::basic_istream<wchar_t,std::char_traits<wchar_t> >::sentry::operator bool
PUBLIC	??1sentry@?$basic_istream@_WU?$char_traits@_W@std@@@std@@QAE@XZ ; std::basic_istream<wchar_t,std::char_traits<wchar_t> >::sentry::~sentry
PUBLIC	??$use_facet@V?$ctype@_W@std@@@std@@YAABV?$ctype@_W@0@ABVlocale@0@@Z ; std::use_facet<std::ctype<wchar_t> >
PUBLIC	??$?5_WU?$char_traits@_W@std@@V?$allocator@_W@1@@std@@YAAAV?$basic_istream@_WU?$char_traits@_W@std@@@0@AAV10@AAV?$basic_string@_WU?$char_traits@_W@std@@V?$allocator@_W@2@@0@@Z ; std::operator>><wchar_t,std::char_traits<wchar_t>,std::allocator<wchar_t> >
EXTRN	__imp_?to_char_type@?$char_traits@_W@std@@SA_WABG@Z:NEAR
EXTRN	__imp_?eq_int_type@?$char_traits@_W@std@@SA_NABG0@Z:NEAR
EXTRN	__imp_?eof@?$char_traits@_W@std@@SAGXZ:NEAR
EXTRN	__imp_?setstate@?$basic_ios@_WU?$char_traits@_W@std@@@std@@QAEXH_N@Z:NEAR
EXTRN	__imp_?rdbuf@?$basic_ios@_WU?$char_traits@_W@std@@@std@@QBEPAV?$basic_streambuf@_WU?$char_traits@_W@std@@@2@XZ:NEAR
EXTRN	__imp_?npos@?$basic_string@_WU?$char_traits@_W@std@@V?$allocator@_W@2@@std@@2IB:DWORD
EXTRN	__imp_?append@?$basic_string@_WU?$char_traits@_W@std@@V?$allocator@_W@2@@std@@QAEAAV12@I_W@Z:NEAR
EXTRN	__imp_?erase@?$basic_string@_WU?$char_traits@_W@std@@V?$allocator@_W@2@@std@@QAEAAV12@II@Z:NEAR
EXTRN	__imp_?max_size@?$basic_string@_WU?$char_traits@_W@std@@V?$allocator@_W@2@@std@@QBEIXZ:NEAR
EXTRN	__imp_?is@?$ctype@_W@std@@QBE_NF_W@Z:NEAR
EXTRN	__imp_?sgetc@?$basic_streambuf@_WU?$char_traits@_W@std@@@std@@QAEGXZ:NEAR
EXTRN	__imp_?snextc@?$basic_streambuf@_WU?$char_traits@_W@std@@@std@@QAEGXZ:NEAR
;	COMDAT xdata$x
; File d:\program files (x86)\microsoft visual studio .net 2003\vc7\include\string
xdata$x	SEGMENT
$T93398	DD	0ffffffffH
	DD	FLAT:$L93389
	DD	00H
	DD	FLAT:$L93390
	DD	00H
	DD	00H
	DD	00H
	DD	00H
$T93400	DD	00H
	DD	00H
	DD	00H
	DD	FLAT:$L93388
$T93399	DD	02H
	DD	02H
	DD	03H
	DD	01H
	DD	FLAT:$T93400
$T93392	DD	019930520H
	DD	04H
	DD	FLAT:$T93398
	DD	01H
	DD	FLAT:$T93399
	DD	2 DUP(00H)
; Function compile flags: /Odt /RTCsu
xdata$x	ENDS
;	COMDAT ??$?5_WU?$char_traits@_W@std@@V?$allocator@_W@1@@std@@YAAAV?$basic_istream@_WU?$char_traits@_W@std@@@0@AAV10@AAV?$basic_string@_WU?$char_traits@_W@std@@V?$allocator@_W@2@@0@@Z
_TEXT	SEGMENT
tv207 = -128						; size = 2
tv206 = -125						; size = 1
tv205 = -124						; size = 2
tv204 = -121						; size = 1
tv203 = -120						; size = 2
tv202 = -118						; size = 2
tv201 = -116						; size = 4
tv200 = -110						; size = 2
tv199 = -108						; size = 4
tv198 = -104						; size = 4
tv135 = -100						; size = 4
tv197 = -96						; size = 4
tv196 = -92						; size = 4
tv195 = -88						; size = 4
tv194 = -84						; size = 4
tv189 = -80						; size = 4
tv65 = -76						; size = 4
$T93386 = -72						; size = 4
$T93385 = -66						; size = 2
$T93382 = -64						; size = 4
__Meta$90555 = -56					; size = 2
__Size$90552 = -48					; size = 4
__Ctype_fac$90549 = -44					; size = 4
__Ok$ = -36						; size = 8
__Changed$ = -21					; size = 1
__State$ = -20						; size = 4
__$EHRec$ = -16						; size = 16
__Istr$ = 8						; size = 4
__Str$ = 12						; size = 4
??$?5_WU?$char_traits@_W@std@@V?$allocator@_W@1@@std@@YAAAV?$basic_istream@_WU?$char_traits@_W@std@@@0@AAV10@AAV?$basic_string@_WU?$char_traits@_W@std@@V?$allocator@_W@2@@0@@Z PROC NEAR ; std::operator>><wchar_t,std::char_traits<wchar_t>,std::allocator<wchar_t> >, COMDAT

; 425  : 	{	// extract a string

  00000	55		 push	 ebp
  00001	8b ec		 mov	 ebp, esp
  00003	6a ff		 push	 -1
  00005	68 00 00 00 00	 push	 __ehhandler$??$?5_WU?$char_traits@_W@std@@V?$allocator@_W@1@@std@@YAAAV?$basic_istream@_WU?$char_traits@_W@std@@@0@AAV10@AAV?$basic_string@_WU?$char_traits@_W@std@@V?$allocator@_W@2@@0@@Z
  0000a	64 a1 00 00 00
	00		 mov	 eax, DWORD PTR fs:__except_list
  00010	50		 push	 eax
  00011	64 89 25 00 00
	00 00		 mov	 DWORD PTR fs:__except_list, esp
  00018	51		 push	 ecx
  00019	83 ec 70	 sub	 esp, 112		; 00000070H
  0001c	53		 push	 ebx
  0001d	56		 push	 esi
  0001e	57		 push	 edi
  0001f	8d 7d 80	 lea	 edi, DWORD PTR [ebp-128]
  00022	b9 1c 00 00 00	 mov	 ecx, 28			; 0000001cH
  00027	b8 cc cc cc cc	 mov	 eax, -858993460		; ccccccccH
  0002c	f3 ab		 rep stosd
  0002e	89 65 f0	 mov	 DWORD PTR __$EHRec$[ebp], esp

; 426  : 	typedef ctype<_Elem> _Ctype;
; 427  : 	typedef basic_istream<_Elem, _Traits> _Myis;
; 428  : 	typedef basic_string<_Elem, _Traits, _Alloc> _Mystr;
; 429  : 	typedef typename _Mystr::size_type _Mysizt;
; 430  : 
; 431  : 	ios_base::iostate _State = ios_base::goodbit;

  00031	c7 45 ec 00 00
	00 00		 mov	 DWORD PTR __State$[ebp], 0

; 432  : 	bool _Changed = false;

  00038	c6 45 eb 00	 mov	 BYTE PTR __Changed$[ebp], 0

; 433  : 	const typename _Myis::sentry _Ok(_Istr);

  0003c	6a 00		 push	 0
  0003e	8b 45 08	 mov	 eax, DWORD PTR __Istr$[ebp]
  00041	50		 push	 eax
  00042	8d 4d dc	 lea	 ecx, DWORD PTR __Ok$[ebp]
  00045	e8 00 00 00 00	 call	 ??0sentry@?$basic_istream@_WU?$char_traits@_W@std@@@std@@QAE@AAV12@_N@Z ; std::basic_istream<wchar_t,std::char_traits<wchar_t> >::sentry::sentry
  0004a	c7 45 fc 00 00
	00 00		 mov	 DWORD PTR __$EHRec$[ebp+12], 0

; 434  : 
; 435  : 	if (_Ok)

  00051	8d 4d dc	 lea	 ecx, DWORD PTR __Ok$[ebp]
  00054	e8 00 00 00 00	 call	 ??Bsentry@?$basic_istream@_WU?$char_traits@_W@std@@@std@@QBE_NXZ ; std::basic_istream<wchar_t,std::char_traits<wchar_t> >::sentry::operator bool
  00059	0f b6 c8	 movzx	 ecx, al
  0005c	85 c9		 test	 ecx, ecx
  0005e	0f 84 94 02 00
	00		 je	 $L93387

; 436  : 		{	// state okay, extract characters
; 437  : 		const _Ctype& _Ctype_fac = _USE(_Istr.getloc(), _Ctype);

  00064	8b f4		 mov	 esi, esp
  00066	8d 55 c0	 lea	 edx, DWORD PTR $T93382[ebp]
  00069	52		 push	 edx
  0006a	8b 45 08	 mov	 eax, DWORD PTR __Istr$[ebp]
  0006d	8b 08		 mov	 ecx, DWORD PTR [eax]
  0006f	8b 55 08	 mov	 edx, DWORD PTR __Istr$[ebp]
  00072	03 51 04	 add	 edx, DWORD PTR [ecx+4]
  00075	8b ca		 mov	 ecx, edx
  00077	ff 15 00 00 00
	00		 call	 DWORD PTR __imp_?getloc@ios_base@std@@QBE?AVlocale@2@XZ
  0007d	3b f4		 cmp	 esi, esp
  0007f	e8 00 00 00 00	 call	 __RTC_CheckEsp
  00084	89 45 b4	 mov	 DWORD PTR tv65[ebp], eax
  00087	8b 45 b4	 mov	 eax, DWORD PTR tv65[ebp]
  0008a	89 45 b0	 mov	 DWORD PTR tv189[ebp], eax
  0008d	c6 45 fc 01	 mov	 BYTE PTR __$EHRec$[ebp+12], 1
  00091	8b 4d b0	 mov	 ecx, DWORD PTR tv189[ebp]
  00094	51		 push	 ecx
  00095	e8 00 00 00 00	 call	 ??$use_facet@V?$ctype@_W@std@@@std@@YAABV?$ctype@_W@0@ABVlocale@0@@Z ; std::use_facet<std::ctype<wchar_t> >
  0009a	83 c4 04	 add	 esp, 4
  0009d	89 45 d4	 mov	 DWORD PTR __Ctype_fac$90549[ebp], eax
  000a0	c6 45 fc 00	 mov	 BYTE PTR __$EHRec$[ebp+12], 0
  000a4	8b f4		 mov	 esi, esp
  000a6	8d 4d c0	 lea	 ecx, DWORD PTR $T93382[ebp]
  000a9	ff 15 00 00 00
	00		 call	 DWORD PTR __imp_??1locale@std@@QAE@XZ
  000af	3b f4		 cmp	 esi, esp
  000b1	e8 00 00 00 00	 call	 __RTC_CheckEsp

; 438  : 		_Str.erase();

  000b6	8b f4		 mov	 esi, esp
  000b8	8b 15 00 00 00
	00		 mov	 edx, DWORD PTR __imp_?npos@?$basic_string@_WU?$char_traits@_W@std@@V?$allocator@_W@2@@std@@2IB
  000be	8b 02		 mov	 eax, DWORD PTR [edx]
  000c0	50		 push	 eax
  000c1	6a 00		 push	 0
  000c3	8b 4d 0c	 mov	 ecx, DWORD PTR __Str$[ebp]
  000c6	ff 15 00 00 00
	00		 call	 DWORD PTR __imp_?erase@?$basic_string@_WU?$char_traits@_W@std@@V?$allocator@_W@2@@std@@QAEAAV12@II@Z
  000cc	3b f4		 cmp	 esi, esp
  000ce	e8 00 00 00 00	 call	 __RTC_CheckEsp

; 439  : 
; 440  : 		_TRY_IO_BEGIN

  000d3	c6 45 fc 02	 mov	 BYTE PTR __$EHRec$[ebp+12], 2

; 441  : 		_Mysizt _Size = 0 < _Istr.width()
; 442  : 			&& (_Mysizt)_Istr.width() < _Str.max_size()
; 443  : 				? (_Mysizt)_Istr.width() : _Str.max_size();

  000d7	8b 4d 08	 mov	 ecx, DWORD PTR __Istr$[ebp]
  000da	8b 11		 mov	 edx, DWORD PTR [ecx]
  000dc	8b 4d 08	 mov	 ecx, DWORD PTR __Istr$[ebp]
  000df	03 4a 04	 add	 ecx, DWORD PTR [edx+4]
  000e2	8b f4		 mov	 esi, esp
  000e4	ff 15 00 00 00
	00		 call	 DWORD PTR __imp_?width@ios_base@std@@QBEHXZ
  000ea	3b f4		 cmp	 esi, esp
  000ec	e8 00 00 00 00	 call	 __RTC_CheckEsp
  000f1	89 45 ac	 mov	 DWORD PTR tv194[ebp], eax
  000f4	83 7d ac 00	 cmp	 DWORD PTR tv194[ebp], 0
  000f8	7e 61		 jle	 SHORT $L93383
  000fa	8b 45 08	 mov	 eax, DWORD PTR __Istr$[ebp]
  000fd	8b 08		 mov	 ecx, DWORD PTR [eax]
  000ff	8b 55 08	 mov	 edx, DWORD PTR __Istr$[ebp]
  00102	03 51 04	 add	 edx, DWORD PTR [ecx+4]
  00105	8b f4		 mov	 esi, esp
  00107	8b ca		 mov	 ecx, edx
  00109	ff 15 00 00 00
	00		 call	 DWORD PTR __imp_?width@ios_base@std@@QBEHXZ
  0010f	3b f4		 cmp	 esi, esp
  00111	e8 00 00 00 00	 call	 __RTC_CheckEsp
  00116	89 45 a8	 mov	 DWORD PTR tv195[ebp], eax
  00119	8b f4		 mov	 esi, esp
  0011b	8b 4d 0c	 mov	 ecx, DWORD PTR __Str$[ebp]
  0011e	ff 15 00 00 00
	00		 call	 DWORD PTR __imp_?max_size@?$basic_string@_WU?$char_traits@_W@std@@V?$allocator@_W@2@@std@@QBEIXZ
  00124	3b f4		 cmp	 esi, esp
  00126	e8 00 00 00 00	 call	 __RTC_CheckEsp
  0012b	89 45 a4	 mov	 DWORD PTR tv196[ebp], eax
  0012e	8b 45 a8	 mov	 eax, DWORD PTR tv195[ebp]
  00131	3b 45 a4	 cmp	 eax, DWORD PTR tv196[ebp]
  00134	73 25		 jae	 SHORT $L93383
  00136	8b 4d 08	 mov	 ecx, DWORD PTR __Istr$[ebp]
  00139	8b 11		 mov	 edx, DWORD PTR [ecx]
  0013b	8b 4d 08	 mov	 ecx, DWORD PTR __Istr$[ebp]
  0013e	03 4a 04	 add	 ecx, DWORD PTR [edx+4]
  00141	8b f4		 mov	 esi, esp
  00143	ff 15 00 00 00
	00		 call	 DWORD PTR __imp_?width@ios_base@std@@QBEHXZ
  00149	3b f4		 cmp	 esi, esp
  0014b	e8 00 00 00 00	 call	 __RTC_CheckEsp
  00150	89 45 a0	 mov	 DWORD PTR tv197[ebp], eax
  00153	8b 45 a0	 mov	 eax, DWORD PTR tv197[ebp]
  00156	89 45 9c	 mov	 DWORD PTR tv135[ebp], eax
  00159	eb 1b		 jmp	 SHORT $L93384
$L93383:
  0015b	8b f4		 mov	 esi, esp
  0015d	8b 4d 0c	 mov	 ecx, DWORD PTR __Str$[ebp]
  00160	ff 15 00 00 00
	00		 call	 DWORD PTR __imp_?max_size@?$basic_string@_WU?$char_traits@_W@std@@V?$allocator@_W@2@@std@@QBEIXZ
  00166	3b f4		 cmp	 esi, esp
  00168	e8 00 00 00 00	 call	 __RTC_CheckEsp
  0016d	89 45 98	 mov	 DWORD PTR tv198[ebp], eax
  00170	8b 4d 98	 mov	 ecx, DWORD PTR tv198[ebp]
  00173	89 4d 9c	 mov	 DWORD PTR tv135[ebp], ecx
$L93384:
  00176	8b 55 9c	 mov	 edx, DWORD PTR tv135[ebp]
  00179	89 55 d0	 mov	 DWORD PTR __Size$90552[ebp], edx

; 444  : 		typename _Traits::int_type _Meta = _Istr.rdbuf()->sgetc();

  0017c	8b 45 08	 mov	 eax, DWORD PTR __Istr$[ebp]
  0017f	8b 08		 mov	 ecx, DWORD PTR [eax]
  00181	8b 55 08	 mov	 edx, DWORD PTR __Istr$[ebp]
  00184	03 51 04	 add	 edx, DWORD PTR [ecx+4]
  00187	8b f4		 mov	 esi, esp
  00189	8b ca		 mov	 ecx, edx
  0018b	ff 15 00 00 00
	00		 call	 DWORD PTR __imp_?rdbuf@?$basic_ios@_WU?$char_traits@_W@std@@@std@@QBEPAV?$basic_streambuf@_WU?$char_traits@_W@std@@@2@XZ
  00191	3b f4		 cmp	 esi, esp
  00193	e8 00 00 00 00	 call	 __RTC_CheckEsp
  00198	89 45 94	 mov	 DWORD PTR tv199[ebp], eax
  0019b	8b f4		 mov	 esi, esp
  0019d	8b 4d 94	 mov	 ecx, DWORD PTR tv199[ebp]
  001a0	ff 15 00 00 00
	00		 call	 DWORD PTR __imp_?sgetc@?$basic_streambuf@_WU?$char_traits@_W@std@@@std@@QAEGXZ
  001a6	3b f4		 cmp	 esi, esp
  001a8	e8 00 00 00 00	 call	 __RTC_CheckEsp
  001ad	66 89 45 92	 mov	 WORD PTR tv200[ebp], ax
  001b1	66 8b 45 92	 mov	 ax, WORD PTR tv200[ebp]
  001b5	66 89 45 c8	 mov	 WORD PTR __Meta$90555[ebp], ax

; 445  : 
; 446  : 		for (; 0 < _Size; --_Size, _Meta = _Istr.rdbuf()->snextc())

  001b9	eb 44		 jmp	 SHORT $L90556
$L90557:
  001bb	8b 4d d0	 mov	 ecx, DWORD PTR __Size$90552[ebp]
  001be	83 e9 01	 sub	 ecx, 1
  001c1	89 4d d0	 mov	 DWORD PTR __Size$90552[ebp], ecx
  001c4	8b 55 08	 mov	 edx, DWORD PTR __Istr$[ebp]
  001c7	8b 02		 mov	 eax, DWORD PTR [edx]
  001c9	8b 4d 08	 mov	 ecx, DWORD PTR __Istr$[ebp]
  001cc	03 48 04	 add	 ecx, DWORD PTR [eax+4]
  001cf	8b f4		 mov	 esi, esp
  001d1	ff 15 00 00 00
	00		 call	 DWORD PTR __imp_?rdbuf@?$basic_ios@_WU?$char_traits@_W@std@@@std@@QBEPAV?$basic_streambuf@_WU?$char_traits@_W@std@@@2@XZ
  001d7	3b f4		 cmp	 esi, esp
  001d9	e8 00 00 00 00	 call	 __RTC_CheckEsp
  001de	89 45 8c	 mov	 DWORD PTR tv201[ebp], eax
  001e1	8b f4		 mov	 esi, esp
  001e3	8b 4d 8c	 mov	 ecx, DWORD PTR tv201[ebp]
  001e6	ff 15 00 00 00
	00		 call	 DWORD PTR __imp_?snextc@?$basic_streambuf@_WU?$char_traits@_W@std@@@std@@QAEGXZ
  001ec	3b f4		 cmp	 esi, esp
  001ee	e8 00 00 00 00	 call	 __RTC_CheckEsp
  001f3	66 89 45 8a	 mov	 WORD PTR tv202[ebp], ax
  001f7	66 8b 4d 8a	 mov	 cx, WORD PTR tv202[ebp]
  001fb	66 89 4d c8	 mov	 WORD PTR __Meta$90555[ebp], cx
$L90556:
  001ff	83 7d d0 00	 cmp	 DWORD PTR __Size$90552[ebp], 0
  00203	0f 86 c7 00 00
	00		 jbe	 $L90558

; 447  : 			if(_Traits::eq_int_type(_Traits::eof(), _Meta))

  00209	8b f4		 mov	 esi, esp
  0020b	ff 15 00 00 00
	00		 call	 DWORD PTR __imp_?eof@?$char_traits@_W@std@@SAGXZ
  00211	3b f4		 cmp	 esi, esp
  00213	e8 00 00 00 00	 call	 __RTC_CheckEsp
  00218	66 89 45 88	 mov	 WORD PTR tv203[ebp], ax
  0021c	66 8b 55 88	 mov	 dx, WORD PTR tv203[ebp]
  00220	66 89 55 be	 mov	 WORD PTR $T93385[ebp], dx
  00224	8b f4		 mov	 esi, esp
  00226	8d 45 c8	 lea	 eax, DWORD PTR __Meta$90555[ebp]
  00229	50		 push	 eax
  0022a	8d 4d be	 lea	 ecx, DWORD PTR $T93385[ebp]
  0022d	51		 push	 ecx
  0022e	ff 15 00 00 00
	00		 call	 DWORD PTR __imp_?eq_int_type@?$char_traits@_W@std@@SA_NABG0@Z
  00234	83 c4 08	 add	 esp, 8
  00237	3b f4		 cmp	 esi, esp
  00239	e8 00 00 00 00	 call	 __RTC_CheckEsp
  0023e	88 45 87	 mov	 BYTE PTR tv204[ebp], al
  00241	0f b6 55 87	 movzx	 edx, BYTE PTR tv204[ebp]
  00245	85 d2		 test	 edx, edx
  00247	74 0b		 je	 SHORT $L90560

; 448  : 				{	// end of file, quit
; 449  : 				_State |= ios_base::eofbit;

  00249	8b 45 ec	 mov	 eax, DWORD PTR __State$[ebp]
  0024c	83 c8 01	 or	 eax, 1
  0024f	89 45 ec	 mov	 DWORD PTR __State$[ebp], eax

; 450  : 				break;

  00252	eb 7c		 jmp	 SHORT $L90558
$L90560:

; 451  : 				}
; 452  : 			else if (_Ctype_fac.is(_Ctype::space,
; 453  : 				_Traits::to_char_type(_Meta)))

  00254	8b f4		 mov	 esi, esp
  00256	8d 4d c8	 lea	 ecx, DWORD PTR __Meta$90555[ebp]
  00259	51		 push	 ecx
  0025a	ff 15 00 00 00
	00		 call	 DWORD PTR __imp_?to_char_type@?$char_traits@_W@std@@SA_WABG@Z
  00260	83 c4 04	 add	 esp, 4
  00263	3b f4		 cmp	 esi, esp
  00265	e8 00 00 00 00	 call	 __RTC_CheckEsp
  0026a	66 89 45 84	 mov	 WORD PTR tv205[ebp], ax
  0026e	8b f4		 mov	 esi, esp
  00270	66 8b 55 84	 mov	 dx, WORD PTR tv205[ebp]
  00274	52		 push	 edx
  00275	6a 48		 push	 72			; 00000048H
  00277	8b 4d d4	 mov	 ecx, DWORD PTR __Ctype_fac$90549[ebp]
  0027a	ff 15 00 00 00
	00		 call	 DWORD PTR __imp_?is@?$ctype@_W@std@@QBE_NF_W@Z
  00280	3b f4		 cmp	 esi, esp
  00282	e8 00 00 00 00	 call	 __RTC_CheckEsp
  00287	88 45 83	 mov	 BYTE PTR tv206[ebp], al
  0028a	0f b6 45 83	 movzx	 eax, BYTE PTR tv206[ebp]
  0028e	85 c0		 test	 eax, eax
  00290	74 02		 je	 SHORT $L90562

; 454  : 				break;	// whitespace, quit

  00292	eb 3c		 jmp	 SHORT $L90558
$L90562:

; 455  : 			else
; 456  : 				{	// add character to string
; 457  : 				_Str.append(1, _Traits::to_char_type(_Meta));

  00294	8b f4		 mov	 esi, esp
  00296	8d 4d c8	 lea	 ecx, DWORD PTR __Meta$90555[ebp]
  00299	51		 push	 ecx
  0029a	ff 15 00 00 00
	00		 call	 DWORD PTR __imp_?to_char_type@?$char_traits@_W@std@@SA_WABG@Z
  002a0	83 c4 04	 add	 esp, 4
  002a3	3b f4		 cmp	 esi, esp
  002a5	e8 00 00 00 00	 call	 __RTC_CheckEsp
  002aa	66 89 45 80	 mov	 WORD PTR tv207[ebp], ax
  002ae	8b f4		 mov	 esi, esp
  002b0	66 8b 55 80	 mov	 dx, WORD PTR tv207[ebp]
  002b4	52		 push	 edx
  002b5	6a 01		 push	 1
  002b7	8b 4d 0c	 mov	 ecx, DWORD PTR __Str$[ebp]
  002ba	ff 15 00 00 00
	00		 call	 DWORD PTR __imp_?append@?$basic_string@_WU?$char_traits@_W@std@@V?$allocator@_W@2@@std@@QAEAAV12@I_W@Z
  002c0	3b f4		 cmp	 esi, esp
  002c2	e8 00 00 00 00	 call	 __RTC_CheckEsp

; 458  : 				_Changed = true;

  002c7	c6 45 eb 01	 mov	 BYTE PTR __Changed$[ebp], 1

; 459  : 				}

  002cb	e9 eb fe ff ff	 jmp	 $L90557
$L90558:
  002d0	eb 26		 jmp	 SHORT $L93387
$L93388:

; 460  : 		_CATCH_IO_(_Istr)

  002d2	8b f4		 mov	 esi, esp
  002d4	6a 01		 push	 1
  002d6	6a 04		 push	 4
  002d8	8b 45 08	 mov	 eax, DWORD PTR __Istr$[ebp]
  002db	8b 08		 mov	 ecx, DWORD PTR [eax]
  002dd	8b 55 08	 mov	 edx, DWORD PTR __Istr$[ebp]
  002e0	03 51 04	 add	 edx, DWORD PTR [ecx+4]
  002e3	8b ca		 mov	 ecx, edx
  002e5	ff 15 00 00 00
	00		 call	 DWORD PTR __imp_?setstate@?$basic_ios@_WU?$char_traits@_W@std@@@std@@QAEXH_N@Z
  002eb	3b f4		 cmp	 esi, esp
  002ed	e8 00 00 00 00	 call	 __RTC_CheckEsp
  002f2	b8 00 00 00 00	 mov	 eax, $L93387
  002f7	c3		 ret	 0
$L93387:
  002f8	c7 45 fc 00 00
	00 00		 mov	 DWORD PTR __$EHRec$[ebp+12], 0

; 461  : 		}
; 462  : 
; 463  : 	_Istr.width(0);

  002ff	8b f4		 mov	 esi, esp
  00301	6a 00		 push	 0
  00303	8b 45 08	 mov	 eax, DWORD PTR __Istr$[ebp]
  00306	8b 08		 mov	 ecx, DWORD PTR [eax]
  00308	8b 55 08	 mov	 edx, DWORD PTR __Istr$[ebp]
  0030b	03 51 04	 add	 edx, DWORD PTR [ecx+4]
  0030e	8b ca		 mov	 ecx, edx
  00310	ff 15 00 00 00
	00		 call	 DWORD PTR __imp_?width@ios_base@std@@QAEHH@Z
  00316	3b f4		 cmp	 esi, esp
  00318	e8 00 00 00 00	 call	 __RTC_CheckEsp

; 464  : 	if (!_Changed)

  0031d	0f b6 45 eb	 movzx	 eax, BYTE PTR __Changed$[ebp]
  00321	85 c0		 test	 eax, eax
  00323	75 09		 jne	 SHORT $L90564

; 465  : 		_State |= ios_base::failbit;

  00325	8b 4d ec	 mov	 ecx, DWORD PTR __State$[ebp]
  00328	83 c9 02	 or	 ecx, 2
  0032b	89 4d ec	 mov	 DWORD PTR __State$[ebp], ecx
$L90564:

; 466  : 	_Istr.setstate(_State);

  0032e	8b f4		 mov	 esi, esp
  00330	6a 00		 push	 0
  00332	8b 55 ec	 mov	 edx, DWORD PTR __State$[ebp]
  00335	52		 push	 edx
  00336	8b 45 08	 mov	 eax, DWORD PTR __Istr$[ebp]
  00339	8b 08		 mov	 ecx, DWORD PTR [eax]
  0033b	8b 55 08	 mov	 edx, DWORD PTR __Istr$[ebp]
  0033e	03 51 04	 add	 edx, DWORD PTR [ecx+4]
  00341	8b ca		 mov	 ecx, edx
  00343	ff 15 00 00 00
	00		 call	 DWORD PTR __imp_?setstate@?$basic_ios@_WU?$char_traits@_W@std@@@std@@QAEXH_N@Z
  00349	3b f4		 cmp	 esi, esp
  0034b	e8 00 00 00 00	 call	 __RTC_CheckEsp

; 467  : 	return (_Istr);

  00350	8b 45 08	 mov	 eax, DWORD PTR __Istr$[ebp]
  00353	89 45 b8	 mov	 DWORD PTR $T93386[ebp], eax
  00356	c7 45 fc ff ff
	ff ff		 mov	 DWORD PTR __$EHRec$[ebp+12], -1
  0035d	8d 4d dc	 lea	 ecx, DWORD PTR __Ok$[ebp]
  00360	e8 00 00 00 00	 call	 ??1sentry@?$basic_istream@_WU?$char_traits@_W@std@@@std@@QAE@XZ
  00365	8b 45 b8	 mov	 eax, DWORD PTR $T93386[ebp]

; 468  : 	}

  00368	52		 push	 edx
  00369	8b cd		 mov	 ecx, ebp
  0036b	50		 push	 eax
  0036c	8d 15 00 00 00
	00		 lea	 edx, DWORD PTR $L93397
  00372	e8 00 00 00 00	 call	 @_RTC_CheckStackVars@8
  00377	58		 pop	 eax
  00378	5a		 pop	 edx
  00379	8b 4d f4	 mov	 ecx, DWORD PTR __$EHRec$[ebp+4]
  0037c	64 89 0d 00 00
	00 00		 mov	 DWORD PTR fs:__except_list, ecx
  00383	5f		 pop	 edi
  00384	5e		 pop	 esi
  00385	5b		 pop	 ebx
  00386	81 c4 80 00 00
	00		 add	 esp, 128		; 00000080H
  0038c	3b ec		 cmp	 ebp, esp
  0038e	e8 00 00 00 00	 call	 __RTC_CheckEsp
  00393	8b e5		 mov	 esp, ebp
  00395	5d		 pop	 ebp
  00396	c3		 ret	 0
$L93397:
  00397	02 00 00 00	 DD	 2
  0039b	00 00 00 00	 DD	 $L93396
$L93396:
  0039f	dc ff ff ff	 DD	 -36			; ffffffdcH
  003a3	08 00 00 00	 DD	 8
  003a7	00 00 00 00	 DD	 $L93393
  003ab	c8 ff ff ff	 DD	 -56			; ffffffc8H
  003af	02 00 00 00	 DD	 2
  003b3	00 00 00 00	 DD	 $L93394
$L93394:
  003b7	5f		 DB	 95			; 0000005fH
  003b8	4d		 DB	 77			; 0000004dH
  003b9	65		 DB	 101			; 00000065H
  003ba	74		 DB	 116			; 00000074H
  003bb	61		 DB	 97			; 00000061H
  003bc	00		 DB	 0
$L93393:
  003bd	5f		 DB	 95			; 0000005fH
  003be	4f		 DB	 79			; 0000004fH
  003bf	6b		 DB	 107			; 0000006bH
  003c0	00		 DB	 0
_TEXT	ENDS
;	COMDAT text$x
text$x	SEGMENT
$L93389:
  00000	8d 4d dc	 lea	 ecx, DWORD PTR __Ok$[ebp]
  00003	e9 00 00 00 00	 jmp	 ??1sentry@?$basic_istream@_WU?$char_traits@_W@std@@@std@@QAE@XZ
$L93390:
  00008	8b f4		 mov	 esi, esp
  0000a	8d 4d c0	 lea	 ecx, DWORD PTR $T93382[ebp]
  0000d	ff 15 00 00 00
	00		 call	 DWORD PTR __imp_??1locale@std@@QAE@XZ
  00013	3b f4		 cmp	 esi, esp
  00015	e9 00 00 00 00	 jmp	 __RTC_CheckEsp
__ehhandler$??$?5_WU?$char_traits@_W@std@@V?$allocator@_W@1@@std@@YAAAV?$basic_istream@_WU?$char_traits@_W@std@@@0@AAV10@AAV?$basic_string@_WU?$char_traits@_W@std@@V?$allocator@_W@2@@0@@Z:
  0001a	b8 00 00 00 00	 mov	 eax, OFFSET FLAT:$T93392
  0001f	e9 00 00 00 00	 jmp	 ___CxxFrameHandler
text$x	ENDS
??$?5_WU?$char_traits@_W@std@@V?$allocator@_W@1@@std@@YAAAV?$basic_istream@_WU?$char_traits@_W@std@@@0@AAV10@AAV?$basic_string@_WU?$char_traits@_W@std@@V?$allocator@_W@2@@0@@Z ENDP ; std::operator>><wchar_t,std::char_traits<wchar_t>,std::allocator<wchar_t> >
PUBLIC	??1_Sentry_base@?$basic_istream@_WU?$char_traits@_W@std@@@std@@QAE@XZ ; std::basic_istream<wchar_t,std::char_traits<wchar_t> >::_Sentry_base::~_Sentry_base
; Function compile flags: /Odt /RTCsu
;	COMDAT ??1sentry@?$basic_istream@_WU?$char_traits@_W@std@@@std@@QAE@XZ
_TEXT	SEGMENT
_this$ = -4						; size = 4
??1sentry@?$basic_istream@_WU?$char_traits@_W@std@@@std@@QAE@XZ PROC NEAR ; std::basic_istream<wchar_t,std::char_traits<wchar_t> >::sentry::~sentry, COMDAT
; _this$ = ecx
  00000	55		 push	 ebp
  00001	8b ec		 mov	 ebp, esp
  00003	51		 push	 ecx
  00004	c7 45 fc cc cc
	cc cc		 mov	 DWORD PTR [ebp-4], -858993460 ; ccccccccH
  0000b	89 4d fc	 mov	 DWORD PTR _this$[ebp], ecx
  0000e	8b 4d fc	 mov	 ecx, DWORD PTR _this$[ebp]
  00011	e8 00 00 00 00	 call	 ??1_Sentry_base@?$basic_istream@_WU?$char_traits@_W@std@@@std@@QAE@XZ ; std::basic_istream<wchar_t,std::char_traits<wchar_t> >::_Sentry_base::~_Sentry_base
  00016	83 c4 04	 add	 esp, 4
  00019	3b ec		 cmp	 ebp, esp
  0001b	e8 00 00 00 00	 call	 __RTC_CheckEsp
  00020	8b e5		 mov	 esp, ebp
  00022	5d		 pop	 ebp
  00023	c3		 ret	 0
??1sentry@?$basic_istream@_WU?$char_traits@_W@std@@@std@@QAE@XZ ENDP ; std::basic_istream<wchar_t,std::char_traits<wchar_t> >::sentry::~sentry
_TEXT	ENDS
PUBLIC	??0_Sentry_base@?$basic_istream@_WU?$char_traits@_W@std@@@std@@QAE@AAV12@@Z ; std::basic_istream<wchar_t,std::char_traits<wchar_t> >::_Sentry_base::_Sentry_base
EXTRN	__imp_?_Ipfx@?$basic_istream@_WU?$char_traits@_W@std@@@std@@QAE_N_N@Z:NEAR
;	COMDAT xdata$x
; File d:\program files (x86)\microsoft visual studio .net 2003\vc7\include\istream
xdata$x	SEGMENT
$T93410	DD	0ffffffffH
	DD	FLAT:$L93406
$T93408	DD	019930520H
	DD	01H
	DD	FLAT:$T93410
	DD	2 DUP(00H)
	DD	2 DUP(00H)
; Function compile flags: /Odt /RTCsu
xdata$x	ENDS
;	COMDAT ??0sentry@?$basic_istream@_WU?$char_traits@_W@std@@@std@@QAE@AAV12@_N@Z
_TEXT	SEGMENT
_this$ = -16						; size = 4
__$EHRec$ = -12						; size = 12
__Istr$ = 8						; size = 4
__Noskip$ = 12						; size = 1
??0sentry@?$basic_istream@_WU?$char_traits@_W@std@@@std@@QAE@AAV12@_N@Z PROC NEAR ; std::basic_istream<wchar_t,std::char_traits<wchar_t> >::sentry::sentry, COMDAT
; _this$ = ecx

; 72   : 			{	// construct locking and calling _Ipfx

  00000	55		 push	 ebp
  00001	8b ec		 mov	 ebp, esp
  00003	6a ff		 push	 -1
  00005	68 00 00 00 00	 push	 __ehhandler$??0sentry@?$basic_istream@_WU?$char_traits@_W@std@@@std@@QAE@AAV12@_N@Z
  0000a	64 a1 00 00 00
	00		 mov	 eax, DWORD PTR fs:__except_list
  00010	50		 push	 eax
  00011	64 89 25 00 00
	00 00		 mov	 DWORD PTR fs:__except_list, esp
  00018	51		 push	 ecx
  00019	56		 push	 esi
  0001a	c7 45 f0 cc cc
	cc cc		 mov	 DWORD PTR [ebp-16], -858993460 ; ccccccccH
  00021	89 4d f0	 mov	 DWORD PTR _this$[ebp], ecx
  00024	8b 45 08	 mov	 eax, DWORD PTR __Istr$[ebp]
  00027	50		 push	 eax
  00028	8b 4d f0	 mov	 ecx, DWORD PTR _this$[ebp]
  0002b	e8 00 00 00 00	 call	 ??0_Sentry_base@?$basic_istream@_WU?$char_traits@_W@std@@@std@@QAE@AAV12@@Z ; std::basic_istream<wchar_t,std::char_traits<wchar_t> >::_Sentry_base::_Sentry_base
  00030	c7 45 fc 00 00
	00 00		 mov	 DWORD PTR __$EHRec$[ebp+8], 0

; 73   : 			_Ok = this->_Myistr._Ipfx(_Noskip);

  00037	8b f4		 mov	 esi, esp
  00039	8a 4d 0c	 mov	 cl, BYTE PTR __Noskip$[ebp]
  0003c	51		 push	 ecx
  0003d	8b 55 f0	 mov	 edx, DWORD PTR _this$[ebp]
  00040	8b 0a		 mov	 ecx, DWORD PTR [edx]
  00042	ff 15 00 00 00
	00		 call	 DWORD PTR __imp_?_Ipfx@?$basic_istream@_WU?$char_traits@_W@std@@@std@@QAE_N_N@Z
  00048	3b f4		 cmp	 esi, esp
  0004a	e8 00 00 00 00	 call	 __RTC_CheckEsp
  0004f	8b 4d f0	 mov	 ecx, DWORD PTR _this$[ebp]
  00052	88 41 04	 mov	 BYTE PTR [ecx+4], al

; 74   : 			}

  00055	c7 45 fc ff ff
	ff ff		 mov	 DWORD PTR __$EHRec$[ebp+8], -1
  0005c	8b 45 f0	 mov	 eax, DWORD PTR _this$[ebp]
  0005f	8b 4d f4	 mov	 ecx, DWORD PTR __$EHRec$[ebp]
  00062	64 89 0d 00 00
	00 00		 mov	 DWORD PTR fs:__except_list, ecx
  00069	5e		 pop	 esi
  0006a	83 c4 10	 add	 esp, 16			; 00000010H
  0006d	3b ec		 cmp	 ebp, esp
  0006f	e8 00 00 00 00	 call	 __RTC_CheckEsp
  00074	8b e5		 mov	 esp, ebp
  00076	5d		 pop	 ebp
  00077	c2 08 00	 ret	 8
_TEXT	ENDS
;	COMDAT text$x
text$x	SEGMENT
$L93406:
  00000	8b 4d f0	 mov	 ecx, DWORD PTR _this$[ebp]
  00003	e9 00 00 00 00	 jmp	 ??1_Sentry_base@?$basic_istream@_WU?$char_traits@_W@std@@@std@@QAE@XZ ; std::basic_istream<wchar_t,std::char_traits<wchar_t> >::_Sentry_base::~_Sentry_base
__ehhandler$??0sentry@?$basic_istream@_WU?$char_traits@_W@std@@@std@@QAE@AAV12@_N@Z:
  00008	b8 00 00 00 00	 mov	 eax, OFFSET FLAT:$T93408
  0000d	e9 00 00 00 00	 jmp	 ___CxxFrameHandler
text$x	ENDS
??0sentry@?$basic_istream@_WU?$char_traits@_W@std@@@std@@QAE@AAV12@_N@Z ENDP ; std::basic_istream<wchar_t,std::char_traits<wchar_t> >::sentry::sentry
; Function compile flags: /Odt /RTCsu
;	COMDAT ??Bsentry@?$basic_istream@_WU?$char_traits@_W@std@@@std@@QBE_NXZ
_TEXT	SEGMENT
_this$ = -4						; size = 4
??Bsentry@?$basic_istream@_WU?$char_traits@_W@std@@@std@@QBE_NXZ PROC NEAR ; std::basic_istream<wchar_t,std::char_traits<wchar_t> >::sentry::operator bool, COMDAT
; _this$ = ecx

; 77   : 			{	// test if _Ipfx succeeded

  00000	55		 push	 ebp
  00001	8b ec		 mov	 ebp, esp
  00003	51		 push	 ecx
  00004	c7 45 fc cc cc
	cc cc		 mov	 DWORD PTR [ebp-4], -858993460 ; ccccccccH
  0000b	89 4d fc	 mov	 DWORD PTR _this$[ebp], ecx

; 78   : 			return (_Ok);

  0000e	8b 45 fc	 mov	 eax, DWORD PTR _this$[ebp]
  00011	8a 40 04	 mov	 al, BYTE PTR [eax+4]

; 79   : 			}

  00014	8b e5		 mov	 esp, ebp
  00016	5d		 pop	 ebp
  00017	c3		 ret	 0
??Bsentry@?$basic_istream@_WU?$char_traits@_W@std@@@std@@QBE_NXZ ENDP ; std::basic_istream<wchar_t,std::char_traits<wchar_t> >::sentry::operator bool
_TEXT	ENDS
EXTRN	__imp_?_Unlock@?$basic_streambuf@_WU?$char_traits@_W@std@@@std@@QAEXXZ:NEAR
; Function compile flags: /Odt /RTCsu
;	COMDAT ??1_Sentry_base@?$basic_istream@_WU?$char_traits@_W@std@@@std@@QAE@XZ
_TEXT	SEGMENT
_this$ = -4						; size = 4
??1_Sentry_base@?$basic_istream@_WU?$char_traits@_W@std@@@std@@QAE@XZ PROC NEAR ; std::basic_istream<wchar_t,std::char_traits<wchar_t> >::_Sentry_base::~_Sentry_base, COMDAT
; _this$ = ecx

; 58   : 			{	// destroy after unlocking

  00000	55		 push	 ebp
  00001	8b ec		 mov	 ebp, esp
  00003	51		 push	 ecx
  00004	56		 push	 esi
  00005	c7 45 fc cc cc
	cc cc		 mov	 DWORD PTR [ebp-4], -858993460 ; ccccccccH
  0000c	89 4d fc	 mov	 DWORD PTR _this$[ebp], ecx

; 59   : 			if (_Myistr.rdbuf() != 0)

  0000f	8b 45 fc	 mov	 eax, DWORD PTR _this$[ebp]
  00012	8b 08		 mov	 ecx, DWORD PTR [eax]
  00014	8b 11		 mov	 edx, DWORD PTR [ecx]
  00016	8b 45 fc	 mov	 eax, DWORD PTR _this$[ebp]
  00019	8b 08		 mov	 ecx, DWORD PTR [eax]
  0001b	03 4a 04	 add	 ecx, DWORD PTR [edx+4]
  0001e	8b f4		 mov	 esi, esp
  00020	ff 15 00 00 00
	00		 call	 DWORD PTR __imp_?rdbuf@?$basic_ios@_WU?$char_traits@_W@std@@@std@@QBEPAV?$basic_streambuf@_WU?$char_traits@_W@std@@@2@XZ
  00026	3b f4		 cmp	 esi, esp
  00028	e8 00 00 00 00	 call	 __RTC_CheckEsp
  0002d	85 c0		 test	 eax, eax
  0002f	74 2f		 je	 SHORT $L88199

; 60   : 				_Myistr.rdbuf()->_Unlock();

  00031	8b 4d fc	 mov	 ecx, DWORD PTR _this$[ebp]
  00034	8b 11		 mov	 edx, DWORD PTR [ecx]
  00036	8b 02		 mov	 eax, DWORD PTR [edx]
  00038	8b 4d fc	 mov	 ecx, DWORD PTR _this$[ebp]
  0003b	8b 09		 mov	 ecx, DWORD PTR [ecx]
  0003d	03 48 04	 add	 ecx, DWORD PTR [eax+4]
  00040	8b f4		 mov	 esi, esp
  00042	ff 15 00 00 00
	00		 call	 DWORD PTR __imp_?rdbuf@?$basic_ios@_WU?$char_traits@_W@std@@@std@@QBEPAV?$basic_streambuf@_WU?$char_traits@_W@std@@@2@XZ
  00048	3b f4		 cmp	 esi, esp
  0004a	e8 00 00 00 00	 call	 __RTC_CheckEsp
  0004f	8b f4		 mov	 esi, esp
  00051	8b c8		 mov	 ecx, eax
  00053	ff 15 00 00 00
	00		 call	 DWORD PTR __imp_?_Unlock@?$basic_streambuf@_WU?$char_traits@_W@std@@@std@@QAEXXZ
  00059	3b f4		 cmp	 esi, esp
  0005b	e8 00 00 00 00	 call	 __RTC_CheckEsp
$L88199:

; 61   : 			}

  00060	5e		 pop	 esi
  00061	83 c4 04	 add	 esp, 4
  00064	3b ec		 cmp	 ebp, esp
  00066	e8 00 00 00 00	 call	 __RTC_CheckEsp
  0006b	8b e5		 mov	 esp, ebp
  0006d	5d		 pop	 ebp
  0006e	c3		 ret	 0
??1_Sentry_base@?$basic_istream@_WU?$char_traits@_W@std@@@std@@QAE@XZ ENDP ; std::basic_istream<wchar_t,std::char_traits<wchar_t> >::_Sentry_base::~_Sentry_base
_TEXT	ENDS
EXTRN	__imp_?_Lock@?$basic_streambuf@_WU?$char_traits@_W@std@@@std@@QAEXXZ:NEAR
; Function compile flags: /Odt /RTCsu
;	COMDAT ??0_Sentry_base@?$basic_istream@_WU?$char_traits@_W@std@@@std@@QAE@AAV12@@Z
_TEXT	SEGMENT
_this$ = -4						; size = 4
__Istr$ = 8						; size = 4
??0_Sentry_base@?$basic_istream@_WU?$char_traits@_W@std@@@std@@QAE@AAV12@@Z PROC NEAR ; std::basic_istream<wchar_t,std::char_traits<wchar_t> >::_Sentry_base::_Sentry_base, COMDAT
; _this$ = ecx

; 52   : 			{	// lock the stream buffer, if there

  00000	55		 push	 ebp
  00001	8b ec		 mov	 ebp, esp
  00003	51		 push	 ecx
  00004	56		 push	 esi
  00005	c7 45 fc cc cc
	cc cc		 mov	 DWORD PTR [ebp-4], -858993460 ; ccccccccH
  0000c	89 4d fc	 mov	 DWORD PTR _this$[ebp], ecx
  0000f	8b 45 fc	 mov	 eax, DWORD PTR _this$[ebp]
  00012	8b 4d 08	 mov	 ecx, DWORD PTR __Istr$[ebp]
  00015	89 08		 mov	 DWORD PTR [eax], ecx

; 53   : 			if (_Myistr.rdbuf() != 0)

  00017	8b 55 fc	 mov	 edx, DWORD PTR _this$[ebp]
  0001a	8b 02		 mov	 eax, DWORD PTR [edx]
  0001c	8b 08		 mov	 ecx, DWORD PTR [eax]
  0001e	8b 55 fc	 mov	 edx, DWORD PTR _this$[ebp]
  00021	8b 02		 mov	 eax, DWORD PTR [edx]
  00023	03 41 04	 add	 eax, DWORD PTR [ecx+4]
  00026	8b f4		 mov	 esi, esp
  00028	8b c8		 mov	 ecx, eax
  0002a	ff 15 00 00 00
	00		 call	 DWORD PTR __imp_?rdbuf@?$basic_ios@_WU?$char_traits@_W@std@@@std@@QBEPAV?$basic_streambuf@_WU?$char_traits@_W@std@@@2@XZ
  00030	3b f4		 cmp	 esi, esp
  00032	e8 00 00 00 00	 call	 __RTC_CheckEsp
  00037	85 c0		 test	 eax, eax
  00039	74 2f		 je	 SHORT $L89505

; 54   : 				_Myistr.rdbuf()->_Lock();

  0003b	8b 4d fc	 mov	 ecx, DWORD PTR _this$[ebp]
  0003e	8b 11		 mov	 edx, DWORD PTR [ecx]
  00040	8b 02		 mov	 eax, DWORD PTR [edx]
  00042	8b 4d fc	 mov	 ecx, DWORD PTR _this$[ebp]
  00045	8b 09		 mov	 ecx, DWORD PTR [ecx]
  00047	03 48 04	 add	 ecx, DWORD PTR [eax+4]
  0004a	8b f4		 mov	 esi, esp
  0004c	ff 15 00 00 00
	00		 call	 DWORD PTR __imp_?rdbuf@?$basic_ios@_WU?$char_traits@_W@std@@@std@@QBEPAV?$basic_streambuf@_WU?$char_traits@_W@std@@@2@XZ
  00052	3b f4		 cmp	 esi, esp
  00054	e8 00 00 00 00	 call	 __RTC_CheckEsp
  00059	8b f4		 mov	 esi, esp
  0005b	8b c8		 mov	 ecx, eax
  0005d	ff 15 00 00 00
	00		 call	 DWORD PTR __imp_?_Lock@?$basic_streambuf@_WU?$char_traits@_W@std@@@std@@QAEXXZ
  00063	3b f4		 cmp	 esi, esp
  00065	e8 00 00 00 00	 call	 __RTC_CheckEsp
$L89505:

; 55   : 			}

  0006a	8b 45 fc	 mov	 eax, DWORD PTR _this$[ebp]
  0006d	5e		 pop	 esi
  0006e	83 c4 04	 add	 esp, 4
  00071	3b ec		 cmp	 ebp, esp
  00073	e8 00 00 00 00	 call	 __RTC_CheckEsp
  00078	8b e5		 mov	 esp, ebp
  0007a	5d		 pop	 ebp
  0007b	c2 04 00	 ret	 4
??0_Sentry_base@?$basic_istream@_WU?$char_traits@_W@std@@@std@@QAE@AAV12@@Z ENDP ; std::basic_istream<wchar_t,std::char_traits<wchar_t> >::_Sentry_base::_Sentry_base
_TEXT	ENDS
PUBLIC	?_Psave@?$_Facetptr@V?$ctype@_W@std@@@std@@2PBVfacet@locale@2@B ; std::_Facetptr<std::ctype<wchar_t> >::_Psave
EXTRN	__imp_?id@?$ctype@_W@std@@2V0locale@2@A:DWORD
EXTRN	__imp_?_Getcat@?$ctype@_W@std@@SAIPAPBVfacet@locale@2@@Z:NEAR
;	COMDAT ?_Psave@?$_Facetptr@V?$ctype@_W@std@@@std@@2PBVfacet@locale@2@B
; File d:\program files (x86)\microsoft visual studio .net 2003\vc7\include\xlocale
_BSS	SEGMENT
?_Psave@?$_Facetptr@V?$ctype@_W@std@@@std@@2PBVfacet@locale@2@B DD 01H DUP (?) ; std::_Facetptr<std::ctype<wchar_t> >::_Psave
_BSS	ENDS
;	COMDAT xdata$x
xdata$x	SEGMENT
$T93427	DD	0ffffffffH
	DD	FLAT:$L93419
$T93421	DD	019930520H
	DD	01H
	DD	FLAT:$T93427
	DD	2 DUP(00H)
	DD	2 DUP(00H)
; Function compile flags: /Odt /RTCsu
xdata$x	ENDS
;	COMDAT ??$use_facet@V?$ctype@_W@std@@@std@@YAABV?$ctype@_W@0@ABVlocale@0@@Z
_TEXT	SEGMENT
$T93418 = -64						; size = 4
$T93417 = -60						; size = 12
__Pfmod$90422 = -48					; size = 4
__Pf$ = -44						; size = 4
__Id$ = -40						; size = 4
__Psave$ = -32						; size = 4
__Lock$ = -20						; size = 4
__$EHRec$ = -12						; size = 12
__Loc$ = 8						; size = 4
??$use_facet@V?$ctype@_W@std@@@std@@YAABV?$ctype@_W@0@ABVlocale@0@@Z PROC NEAR ; std::use_facet<std::ctype<wchar_t> >, COMDAT

; 315  : 	{	// get facet reference from locale

  00000	55		 push	 ebp
  00001	8b ec		 mov	 ebp, esp
  00003	6a ff		 push	 -1
  00005	68 00 00 00 00	 push	 __ehhandler$??$use_facet@V?$ctype@_W@std@@@std@@YAABV?$ctype@_W@0@ABVlocale@0@@Z
  0000a	64 a1 00 00 00
	00		 mov	 eax, DWORD PTR fs:__except_list
  00010	50		 push	 eax
  00011	64 89 25 00 00
	00 00		 mov	 DWORD PTR fs:__except_list, esp
  00018	83 ec 34	 sub	 esp, 52			; 00000034H
  0001b	56		 push	 esi
  0001c	57		 push	 edi
  0001d	8d 7d c0	 lea	 edi, DWORD PTR [ebp-64]
  00020	b9 0d 00 00 00	 mov	 ecx, 13			; 0000000dH
  00025	b8 cc cc cc cc	 mov	 eax, -858993460		; ccccccccH
  0002a	f3 ab		 rep stosd

; 316  : 	_Lockit _Lock(_LOCK_LOCALE);	// the thread lock, make get atomic

  0002c	8b f4		 mov	 esi, esp
  0002e	6a 00		 push	 0
  00030	8d 4d ec	 lea	 ecx, DWORD PTR __Lock$[ebp]
  00033	ff 15 00 00 00
	00		 call	 DWORD PTR __imp_??0_Lockit@std@@QAE@H@Z
  00039	3b f4		 cmp	 esi, esp
  0003b	e8 00 00 00 00	 call	 __RTC_CheckEsp
  00040	c7 45 fc 00 00
	00 00		 mov	 DWORD PTR __$EHRec$[ebp+8], 0

; 317  : 	const locale::facet *_Psave =
; 318  : 		_Facetptr<_Facet>::_Psave;	// static pointer to lazy facet

  00047	a1 00 00 00 00	 mov	 eax, DWORD PTR ?_Psave@?$_Facetptr@V?$ctype@_W@std@@@std@@2PBVfacet@locale@2@B ; std::_Facetptr<std::ctype<wchar_t> >::_Psave
  0004c	89 45 e0	 mov	 DWORD PTR __Psave$[ebp], eax

; 319  : 
; 320  : 	size_t _Id = _Facet::id;

  0004f	8b f4		 mov	 esi, esp
  00051	8b 0d 00 00 00
	00		 mov	 ecx, DWORD PTR __imp_?id@?$ctype@_W@std@@2V0locale@2@A
  00057	ff 15 00 00 00
	00		 call	 DWORD PTR __imp_??Bid@locale@std@@QAEIXZ
  0005d	3b f4		 cmp	 esi, esp
  0005f	e8 00 00 00 00	 call	 __RTC_CheckEsp
  00064	89 45 d8	 mov	 DWORD PTR __Id$[ebp], eax

; 321  : 	const locale::facet *_Pf = _Loc._Getfacet(_Id);

  00067	8b f4		 mov	 esi, esp
  00069	8b 4d d8	 mov	 ecx, DWORD PTR __Id$[ebp]
  0006c	51		 push	 ecx
  0006d	8b 4d 08	 mov	 ecx, DWORD PTR __Loc$[ebp]
  00070	ff 15 00 00 00
	00		 call	 DWORD PTR __imp_?_Getfacet@locale@std@@QBEPBVfacet@12@I@Z
  00076	3b f4		 cmp	 esi, esp
  00078	e8 00 00 00 00	 call	 __RTC_CheckEsp
  0007d	89 45 d4	 mov	 DWORD PTR __Pf$[ebp], eax

; 322  : 
; 323  : 	if (_Pf != 0)

  00080	83 7d d4 00	 cmp	 DWORD PTR __Pf$[ebp], 0
  00084	74 05		 je	 SHORT $L90413

; 324  : 		;	// got facet from locale
; 325  : 	else if (_Psave != 0)

  00086	e9 86 00 00 00	 jmp	 $L90414
$L90413:
  0008b	83 7d e0 00	 cmp	 DWORD PTR __Psave$[ebp], 0
  0008f	74 08		 je	 SHORT $L90415

; 326  : 		_Pf = _Psave;	// lazy facet already allocated

  00091	8b 55 e0	 mov	 edx, DWORD PTR __Psave$[ebp]
  00094	89 55 d4	 mov	 DWORD PTR __Pf$[ebp], edx

; 327  : 	else if (_Facet::_Getcat(&_Psave) == (size_t)(-1))

  00097	eb 78		 jmp	 SHORT $L90414
$L90415:
  00099	8b f4		 mov	 esi, esp
  0009b	8d 45 e0	 lea	 eax, DWORD PTR __Psave$[ebp]
  0009e	50		 push	 eax
  0009f	ff 15 00 00 00
	00		 call	 DWORD PTR __imp_?_Getcat@?$ctype@_W@std@@SAIPAPBVfacet@locale@2@@Z
  000a5	83 c4 04	 add	 esp, 4
  000a8	3b f4		 cmp	 esi, esp
  000aa	e8 00 00 00 00	 call	 __RTC_CheckEsp
  000af	83 f8 ff	 cmp	 eax, -1
  000b2	75 25		 jne	 SHORT $L90418

; 328  : 
; 329  :  #if _HAS_EXCEPTIONS
; 330  : 		throw bad_cast();	// lazy disallowed

  000b4	8b f4		 mov	 esi, esp
  000b6	68 00 00 00 00	 push	 OFFSET FLAT:??_C@_08EPJLHIJG@bad?5cast?$AA@
  000bb	8d 4d c4	 lea	 ecx, DWORD PTR $T93417[ebp]
  000be	ff 15 00 00 00
	00		 call	 DWORD PTR __imp_??0bad_cast@@QAE@PBD@Z
  000c4	3b f4		 cmp	 esi, esp
  000c6	e8 00 00 00 00	 call	 __RTC_CheckEsp
  000cb	68 00 00 00 00	 push	 OFFSET FLAT:__TI2?AVbad_cast@@
  000d0	8d 4d c4	 lea	 ecx, DWORD PTR $T93417[ebp]
  000d3	51		 push	 ecx
  000d4	e8 00 00 00 00	 call	 __CxxThrowException@8
$L90418:

; 331  : 
; 332  :  #else /* _HAS_EXCEPTIONS */
; 333  : 		abort();	// lazy disallowed
; 334  :  #endif /* _HAS_EXCEPTIONS */
; 335  : 
; 336  : 	else
; 337  : 		{	// queue up lazy facet for destruction
; 338  : 		_Pf = _Psave;

  000d9	8b 55 e0	 mov	 edx, DWORD PTR __Psave$[ebp]
  000dc	89 55 d4	 mov	 DWORD PTR __Pf$[ebp], edx

; 339  : 		_Facetptr<_Facet>::_Psave = _Psave;

  000df	8b 45 e0	 mov	 eax, DWORD PTR __Psave$[ebp]
  000e2	a3 00 00 00 00	 mov	 DWORD PTR ?_Psave@?$_Facetptr@V?$ctype@_W@std@@@std@@2PBVfacet@locale@2@B, eax ; std::_Facetptr<std::ctype<wchar_t> >::_Psave

; 340  : 
; 341  : 		locale::facet *_Pfmod = (_Facet *)_Psave;

  000e7	8b 4d e0	 mov	 ecx, DWORD PTR __Psave$[ebp]
  000ea	89 4d d0	 mov	 DWORD PTR __Pfmod$90422[ebp], ecx

; 342  : 		_Pfmod->_Incref();

  000ed	8b f4		 mov	 esi, esp
  000ef	8b 4d d0	 mov	 ecx, DWORD PTR __Pfmod$90422[ebp]
  000f2	ff 15 00 00 00
	00		 call	 DWORD PTR __imp_?_Incref@facet@locale@std@@QAEXXZ
  000f8	3b f4		 cmp	 esi, esp
  000fa	e8 00 00 00 00	 call	 __RTC_CheckEsp

; 343  : 		_Pfmod->_Register();

  000ff	8b f4		 mov	 esi, esp
  00101	8b 4d d0	 mov	 ecx, DWORD PTR __Pfmod$90422[ebp]
  00104	ff 15 00 00 00
	00		 call	 DWORD PTR __imp_?_Register@facet@locale@std@@QAEXXZ
  0010a	3b f4		 cmp	 esi, esp
  0010c	e8 00 00 00 00	 call	 __RTC_CheckEsp
$L90414:

; 344  : 		}
; 345  : 
; 346  : 	return ((const _Facet&)(*_Pf));	// should be dynamic_cast

  00111	8b 55 d4	 mov	 edx, DWORD PTR __Pf$[ebp]
  00114	89 55 c0	 mov	 DWORD PTR $T93418[ebp], edx
  00117	c7 45 fc ff ff
	ff ff		 mov	 DWORD PTR __$EHRec$[ebp+8], -1
  0011e	8b f4		 mov	 esi, esp
  00120	8d 4d ec	 lea	 ecx, DWORD PTR __Lock$[ebp]
  00123	ff 15 00 00 00
	00		 call	 DWORD PTR __imp_??1_Lockit@std@@QAE@XZ
  00129	3b f4		 cmp	 esi, esp
  0012b	e8 00 00 00 00	 call	 __RTC_CheckEsp
  00130	8b 45 c0	 mov	 eax, DWORD PTR $T93418[ebp]
$L93416:

; 347  : 	}

  00133	52		 push	 edx
  00134	8b cd		 mov	 ecx, ebp
  00136	50		 push	 eax
  00137	8d 15 00 00 00
	00		 lea	 edx, DWORD PTR $L93426
  0013d	e8 00 00 00 00	 call	 @_RTC_CheckStackVars@8
  00142	58		 pop	 eax
  00143	5a		 pop	 edx
  00144	8b 4d f4	 mov	 ecx, DWORD PTR __$EHRec$[ebp]
  00147	64 89 0d 00 00
	00 00		 mov	 DWORD PTR fs:__except_list, ecx
  0014e	5f		 pop	 edi
  0014f	5e		 pop	 esi
  00150	83 c4 40	 add	 esp, 64			; 00000040H
  00153	3b ec		 cmp	 ebp, esp
  00155	e8 00 00 00 00	 call	 __RTC_CheckEsp
  0015a	8b e5		 mov	 esp, ebp
  0015c	5d		 pop	 ebp
  0015d	c3		 ret	 0
$L93426:
  0015e	02 00 00 00	 DD	 2
  00162	00 00 00 00	 DD	 $L93425
$L93425:
  00166	ec ff ff ff	 DD	 -20			; ffffffecH
  0016a	04 00 00 00	 DD	 4
  0016e	00 00 00 00	 DD	 $L93422
  00172	e0 ff ff ff	 DD	 -32			; ffffffe0H
  00176	04 00 00 00	 DD	 4
  0017a	00 00 00 00	 DD	 $L93423
$L93423:
  0017e	5f		 DB	 95			; 0000005fH
  0017f	50		 DB	 80			; 00000050H
  00180	73		 DB	 115			; 00000073H
  00181	61		 DB	 97			; 00000061H
  00182	76		 DB	 118			; 00000076H
  00183	65		 DB	 101			; 00000065H
  00184	00		 DB	 0
$L93422:
  00185	5f		 DB	 95			; 0000005fH
  00186	4c		 DB	 76			; 0000004cH
  00187	6f		 DB	 111			; 0000006fH
  00188	63		 DB	 99			; 00000063H
  00189	6b		 DB	 107			; 0000006bH
  0018a	00		 DB	 0
_TEXT	ENDS
;	COMDAT text$x
text$x	SEGMENT
$L93419:
  00000	8b f4		 mov	 esi, esp
  00002	8d 4d ec	 lea	 ecx, DWORD PTR __Lock$[ebp]
  00005	ff 15 00 00 00
	00		 call	 DWORD PTR __imp_??1_Lockit@std@@QAE@XZ
  0000b	3b f4		 cmp	 esi, esp
  0000d	e9 00 00 00 00	 jmp	 __RTC_CheckEsp
__ehhandler$??$use_facet@V?$ctype@_W@std@@@std@@YAABV?$ctype@_W@0@ABVlocale@0@@Z:
  00012	b8 00 00 00 00	 mov	 eax, OFFSET FLAT:$T93421
  00017	e9 00 00 00 00	 jmp	 ___CxxFrameHandler
text$x	ENDS
??$use_facet@V?$ctype@_W@std@@@std@@YAABV?$ctype@_W@0@ABVlocale@0@@Z ENDP ; std::use_facet<std::ctype<wchar_t> >
PUBLIC	??$getline@_WU?$char_traits@_W@std@@V?$allocator@_W@2@@std@@YAAAV?$basic_istream@_WU?$char_traits@_W@std@@@0@AAV10@AAV?$basic_string@_WU?$char_traits@_W@std@@V?$allocator@_W@2@@0@@Z ; std::getline<wchar_t,std::char_traits<wchar_t>,std::allocator<wchar_t> >
PUBLIC	??$getline@_WU?$char_traits@_W@std@@V?$allocator@_W@2@@std@@YAAAV?$basic_istream@_WU?$char_traits@_W@std@@@0@AAV10@AAV?$basic_string@_WU?$char_traits@_W@std@@V?$allocator@_W@2@@0@_W@Z ; std::getline<wchar_t,std::char_traits<wchar_t>,std::allocator<wchar_t> >
EXTRN	__imp_?widen@?$basic_ios@_WU?$char_traits@_W@std@@@std@@QBE_WD@Z:NEAR
; Function compile flags: /Odt /RTCsu
; File d:\program files (x86)\microsoft visual studio .net 2003\vc7\include\string
;	COMDAT ??$getline@_WU?$char_traits@_W@std@@V?$allocator@_W@2@@std@@YAAAV?$basic_istream@_WU?$char_traits@_W@std@@@0@AAV10@AAV?$basic_string@_WU?$char_traits@_W@std@@V?$allocator@_W@2@@0@@Z
_TEXT	SEGMENT
__Istr$ = 8						; size = 4
__Str$ = 12						; size = 4
??$getline@_WU?$char_traits@_W@std@@V?$allocator@_W@2@@std@@YAAAV?$basic_istream@_WU?$char_traits@_W@std@@@0@AAV10@AAV?$basic_string@_WU?$char_traits@_W@std@@V?$allocator@_W@2@@0@@Z PROC NEAR ; std::getline<wchar_t,std::char_traits<wchar_t>,std::allocator<wchar_t> >, COMDAT

; 528  : 	{	// get characters into string, discard newline

  00000	55		 push	 ebp
  00001	8b ec		 mov	 ebp, esp
  00003	56		 push	 esi

; 529  : 	return (getline(_Istr, _Str, _Istr.widen('\n')));

  00004	8b f4		 mov	 esi, esp
  00006	6a 0a		 push	 10			; 0000000aH
  00008	8b 45 08	 mov	 eax, DWORD PTR __Istr$[ebp]
  0000b	8b 08		 mov	 ecx, DWORD PTR [eax]
  0000d	8b 55 08	 mov	 edx, DWORD PTR __Istr$[ebp]
  00010	03 51 04	 add	 edx, DWORD PTR [ecx+4]
  00013	8b ca		 mov	 ecx, edx
  00015	ff 15 00 00 00
	00		 call	 DWORD PTR __imp_?widen@?$basic_ios@_WU?$char_traits@_W@std@@@std@@QBE_WD@Z
  0001b	3b f4		 cmp	 esi, esp
  0001d	e8 00 00 00 00	 call	 __RTC_CheckEsp
  00022	50		 push	 eax
  00023	8b 45 0c	 mov	 eax, DWORD PTR __Str$[ebp]
  00026	50		 push	 eax
  00027	8b 4d 08	 mov	 ecx, DWORD PTR __Istr$[ebp]
  0002a	51		 push	 ecx
  0002b	e8 00 00 00 00	 call	 ??$getline@_WU?$char_traits@_W@std@@V?$allocator@_W@2@@std@@YAAAV?$basic_istream@_WU?$char_traits@_W@std@@@0@AAV10@AAV?$basic_string@_WU?$char_traits@_W@std@@V?$allocator@_W@2@@0@_W@Z ; std::getline<wchar_t,std::char_traits<wchar_t>,std::allocator<wchar_t> >
  00030	83 c4 0c	 add	 esp, 12			; 0000000cH

; 530  : 	}

  00033	5e		 pop	 esi
  00034	3b ec		 cmp	 ebp, esp
  00036	e8 00 00 00 00	 call	 __RTC_CheckEsp
  0003b	5d		 pop	 ebp
  0003c	c3		 ret	 0
??$getline@_WU?$char_traits@_W@std@@V?$allocator@_W@2@@std@@YAAAV?$basic_istream@_WU?$char_traits@_W@std@@@0@AAV10@AAV?$basic_string@_WU?$char_traits@_W@std@@V?$allocator@_W@2@@0@@Z ENDP ; std::getline<wchar_t,std::char_traits<wchar_t>,std::allocator<wchar_t> >
_TEXT	ENDS
EXTRN	__imp_?to_int_type@?$char_traits@_W@std@@SAGAB_W@Z:NEAR
EXTRN	__imp_?size@?$basic_string@_WU?$char_traits@_W@std@@V?$allocator@_W@2@@std@@QBEIXZ:NEAR
EXTRN	__imp_?sbumpc@?$basic_streambuf@_WU?$char_traits@_W@std@@@std@@QAEGXZ:NEAR
;	COMDAT xdata$x
xdata$x	SEGMENT
$T93446	DD	0ffffffffH
	DD	FLAT:$L93437
	DD	00H
	DD	00H
	DD	00H
	DD	00H
$T93448	DD	00H
	DD	00H
	DD	00H
	DD	FLAT:$L93436
$T93447	DD	01H
	DD	01H
	DD	02H
	DD	01H
	DD	FLAT:$T93448
$T93439	DD	019930520H
	DD	03H
	DD	FLAT:$T93446
	DD	01H
	DD	FLAT:$T93447
	DD	2 DUP(00H)
; Function compile flags: /Odt /RTCsu
xdata$x	ENDS
;	COMDAT ??$getline@_WU?$char_traits@_W@std@@V?$allocator@_W@2@@std@@YAAAV?$basic_istream@_WU?$char_traits@_W@std@@@0@AAV10@AAV?$basic_string@_WU?$char_traits@_W@std@@V?$allocator@_W@2@@0@_W@Z
_TEXT	SEGMENT
tv175 = -110						; size = 2
tv174 = -108						; size = 4
tv173 = -104						; size = 4
tv172 = -100						; size = 4
tv171 = -94						; size = 1
tv170 = -93						; size = 1
tv169 = -92						; size = 2
tv168 = -90						; size = 2
tv167 = -88						; size = 4
tv166 = -82						; size = 2
tv165 = -80						; size = 4
tv65 = -74						; size = 2
$T93434 = -72						; size = 4
$T93433 = -66						; size = 2
__Meta$90575 = -60					; size = 2
__Metadelim$90574 = -48					; size = 2
__Ok$ = -36						; size = 8
__Changed$ = -21					; size = 1
__State$ = -20						; size = 4
__$EHRec$ = -16						; size = 16
__Istr$ = 8						; size = 4
__Str$ = 12						; size = 4
__Delim$ = 16						; size = 2
??$getline@_WU?$char_traits@_W@std@@V?$allocator@_W@2@@std@@YAAAV?$basic_istream@_WU?$char_traits@_W@std@@@0@AAV10@AAV?$basic_string@_WU?$char_traits@_W@std@@V?$allocator@_W@2@@0@_W@Z PROC NEAR ; std::getline<wchar_t,std::char_traits<wchar_t>,std::allocator<wchar_t> >, COMDAT

; 477  : 	{	// get characters into string, discard delimiter

  00000	55		 push	 ebp
  00001	8b ec		 mov	 ebp, esp
  00003	6a ff		 push	 -1
  00005	68 00 00 00 00	 push	 __ehhandler$??$getline@_WU?$char_traits@_W@std@@V?$allocator@_W@2@@std@@YAAAV?$basic_istream@_WU?$char_traits@_W@std@@@0@AAV10@AAV?$basic_string@_WU?$char_traits@_W@std@@V?$allocator@_W@2@@0@_W@Z
  0000a	64 a1 00 00 00
	00		 mov	 eax, DWORD PTR fs:__except_list
  00010	50		 push	 eax
  00011	64 89 25 00 00
	00 00		 mov	 DWORD PTR fs:__except_list, esp
  00018	51		 push	 ecx
  00019	83 ec 60	 sub	 esp, 96			; 00000060H
  0001c	53		 push	 ebx
  0001d	56		 push	 esi
  0001e	57		 push	 edi
  0001f	8d 7d 90	 lea	 edi, DWORD PTR [ebp-112]
  00022	b9 18 00 00 00	 mov	 ecx, 24			; 00000018H
  00027	b8 cc cc cc cc	 mov	 eax, -858993460		; ccccccccH
  0002c	f3 ab		 rep stosd
  0002e	89 65 f0	 mov	 DWORD PTR __$EHRec$[ebp], esp

; 478  : 	typedef basic_istream<_Elem, _Traits> _Myis;
; 479  : 	ios_base::iostate _State = ios_base::goodbit;

  00031	c7 45 ec 00 00
	00 00		 mov	 DWORD PTR __State$[ebp], 0

; 480  : 	bool _Changed = false;

  00038	c6 45 eb 00	 mov	 BYTE PTR __Changed$[ebp], 0

; 481  : 	const typename _Myis::sentry _Ok(_Istr, true);

  0003c	6a 01		 push	 1
  0003e	8b 45 08	 mov	 eax, DWORD PTR __Istr$[ebp]
  00041	50		 push	 eax
  00042	8d 4d dc	 lea	 ecx, DWORD PTR __Ok$[ebp]
  00045	e8 00 00 00 00	 call	 ??0sentry@?$basic_istream@_WU?$char_traits@_W@std@@@std@@QAE@AAV12@_N@Z ; std::basic_istream<wchar_t,std::char_traits<wchar_t> >::sentry::sentry
  0004a	c7 45 fc 00 00
	00 00		 mov	 DWORD PTR __$EHRec$[ebp+12], 0

; 482  : 
; 483  : 	if (_Ok)

  00051	8d 4d dc	 lea	 ecx, DWORD PTR __Ok$[ebp]
  00054	e8 00 00 00 00	 call	 ??Bsentry@?$basic_istream@_WU?$char_traits@_W@std@@@std@@QBE_NXZ ; std::basic_istream<wchar_t,std::char_traits<wchar_t> >::sentry::operator bool
  00059	0f b6 c8	 movzx	 ecx, al
  0005c	85 c9		 test	 ecx, ecx
  0005e	0f 84 04 02 00
	00		 je	 $L93435

; 484  : 		{	// state okay, extract characters
; 485  : 		_TRY_IO_BEGIN

  00064	c6 45 fc 01	 mov	 BYTE PTR __$EHRec$[ebp+12], 1

; 486  : 		_Str.erase();

  00068	8b f4		 mov	 esi, esp
  0006a	8b 15 00 00 00
	00		 mov	 edx, DWORD PTR __imp_?npos@?$basic_string@_WU?$char_traits@_W@std@@V?$allocator@_W@2@@std@@2IB
  00070	8b 02		 mov	 eax, DWORD PTR [edx]
  00072	50		 push	 eax
  00073	6a 00		 push	 0
  00075	8b 4d 0c	 mov	 ecx, DWORD PTR __Str$[ebp]
  00078	ff 15 00 00 00
	00		 call	 DWORD PTR __imp_?erase@?$basic_string@_WU?$char_traits@_W@std@@V?$allocator@_W@2@@std@@QAEAAV12@II@Z
  0007e	3b f4		 cmp	 esi, esp
  00080	e8 00 00 00 00	 call	 __RTC_CheckEsp

; 487  : 		const typename _Traits::int_type _Metadelim =
; 488  : 			_Traits::to_int_type(_Delim);

  00085	8b f4		 mov	 esi, esp
  00087	8d 4d 10	 lea	 ecx, DWORD PTR __Delim$[ebp]
  0008a	51		 push	 ecx
  0008b	ff 15 00 00 00
	00		 call	 DWORD PTR __imp_?to_int_type@?$char_traits@_W@std@@SAGAB_W@Z
  00091	83 c4 04	 add	 esp, 4
  00094	3b f4		 cmp	 esi, esp
  00096	e8 00 00 00 00	 call	 __RTC_CheckEsp
  0009b	66 89 45 b6	 mov	 WORD PTR tv65[ebp], ax
  0009f	66 8b 55 b6	 mov	 dx, WORD PTR tv65[ebp]
  000a3	66 89 55 d0	 mov	 WORD PTR __Metadelim$90574[ebp], dx

; 489  : 		typename _Traits::int_type _Meta = _Istr.rdbuf()->sgetc();

  000a7	8b 45 08	 mov	 eax, DWORD PTR __Istr$[ebp]
  000aa	8b 08		 mov	 ecx, DWORD PTR [eax]
  000ac	8b 55 08	 mov	 edx, DWORD PTR __Istr$[ebp]
  000af	03 51 04	 add	 edx, DWORD PTR [ecx+4]
  000b2	8b f4		 mov	 esi, esp
  000b4	8b ca		 mov	 ecx, edx
  000b6	ff 15 00 00 00
	00		 call	 DWORD PTR __imp_?rdbuf@?$basic_ios@_WU?$char_traits@_W@std@@@std@@QBEPAV?$basic_streambuf@_WU?$char_traits@_W@std@@@2@XZ
  000bc	3b f4		 cmp	 esi, esp
  000be	e8 00 00 00 00	 call	 __RTC_CheckEsp
  000c3	89 45 b0	 mov	 DWORD PTR tv165[ebp], eax
  000c6	8b f4		 mov	 esi, esp
  000c8	8b 4d b0	 mov	 ecx, DWORD PTR tv165[ebp]
  000cb	ff 15 00 00 00
	00		 call	 DWORD PTR __imp_?sgetc@?$basic_streambuf@_WU?$char_traits@_W@std@@@std@@QAEGXZ
  000d1	3b f4		 cmp	 esi, esp
  000d3	e8 00 00 00 00	 call	 __RTC_CheckEsp
  000d8	66 89 45 ae	 mov	 WORD PTR tv166[ebp], ax
  000dc	66 8b 45 ae	 mov	 ax, WORD PTR tv166[ebp]
  000e0	66 89 45 c4	 mov	 WORD PTR __Meta$90575[ebp], ax

; 490  : 
; 491  : 		for (; ; _Meta = _Istr.rdbuf()->snextc())

  000e4	eb 3b		 jmp	 SHORT $L90576
$L90577:
  000e6	8b 4d 08	 mov	 ecx, DWORD PTR __Istr$[ebp]
  000e9	8b 11		 mov	 edx, DWORD PTR [ecx]
  000eb	8b 4d 08	 mov	 ecx, DWORD PTR __Istr$[ebp]
  000ee	03 4a 04	 add	 ecx, DWORD PTR [edx+4]
  000f1	8b f4		 mov	 esi, esp
  000f3	ff 15 00 00 00
	00		 call	 DWORD PTR __imp_?rdbuf@?$basic_ios@_WU?$char_traits@_W@std@@@std@@QBEPAV?$basic_streambuf@_WU?$char_traits@_W@std@@@2@XZ
  000f9	3b f4		 cmp	 esi, esp
  000fb	e8 00 00 00 00	 call	 __RTC_CheckEsp
  00100	89 45 a8	 mov	 DWORD PTR tv167[ebp], eax
  00103	8b f4		 mov	 esi, esp
  00105	8b 4d a8	 mov	 ecx, DWORD PTR tv167[ebp]
  00108	ff 15 00 00 00
	00		 call	 DWORD PTR __imp_?snextc@?$basic_streambuf@_WU?$char_traits@_W@std@@@std@@QAEGXZ
  0010e	3b f4		 cmp	 esi, esp
  00110	e8 00 00 00 00	 call	 __RTC_CheckEsp
  00115	66 89 45 a6	 mov	 WORD PTR tv168[ebp], ax
  00119	66 8b 45 a6	 mov	 ax, WORD PTR tv168[ebp]
  0011d	66 89 45 c4	 mov	 WORD PTR __Meta$90575[ebp], ax
$L90576:

; 492  : 			if (_Traits::eq_int_type(_Traits::eof(), _Meta))

  00121	8b f4		 mov	 esi, esp
  00123	ff 15 00 00 00
	00		 call	 DWORD PTR __imp_?eof@?$char_traits@_W@std@@SAGXZ
  00129	3b f4		 cmp	 esi, esp
  0012b	e8 00 00 00 00	 call	 __RTC_CheckEsp
  00130	66 89 45 a4	 mov	 WORD PTR tv169[ebp], ax
  00134	66 8b 4d a4	 mov	 cx, WORD PTR tv169[ebp]
  00138	66 89 4d be	 mov	 WORD PTR $T93433[ebp], cx
  0013c	8b f4		 mov	 esi, esp
  0013e	8d 55 c4	 lea	 edx, DWORD PTR __Meta$90575[ebp]
  00141	52		 push	 edx
  00142	8d 45 be	 lea	 eax, DWORD PTR $T93433[ebp]
  00145	50		 push	 eax
  00146	ff 15 00 00 00
	00		 call	 DWORD PTR __imp_?eq_int_type@?$char_traits@_W@std@@SA_NABG0@Z
  0014c	83 c4 08	 add	 esp, 8
  0014f	3b f4		 cmp	 esi, esp
  00151	e8 00 00 00 00	 call	 __RTC_CheckEsp
  00156	88 45 a3	 mov	 BYTE PTR tv170[ebp], al
  00159	0f b6 4d a3	 movzx	 ecx, BYTE PTR tv170[ebp]
  0015d	85 c9		 test	 ecx, ecx
  0015f	74 0e		 je	 SHORT $L90580

; 493  : 				{	// end of file, quit
; 494  : 				_State |= ios_base::eofbit;

  00161	8b 55 ec	 mov	 edx, DWORD PTR __State$[ebp]
  00164	83 ca 01	 or	 edx, 1
  00167	89 55 ec	 mov	 DWORD PTR __State$[ebp], edx

; 495  : 				break;

  0016a	e9 d3 00 00 00	 jmp	 $L90578
$L90580:

; 496  : 				}
; 497  : 			else if (_Traits::eq_int_type(_Meta, _Metadelim))

  0016f	8b f4		 mov	 esi, esp
  00171	8d 45 d0	 lea	 eax, DWORD PTR __Metadelim$90574[ebp]
  00174	50		 push	 eax
  00175	8d 4d c4	 lea	 ecx, DWORD PTR __Meta$90575[ebp]
  00178	51		 push	 ecx
  00179	ff 15 00 00 00
	00		 call	 DWORD PTR __imp_?eq_int_type@?$char_traits@_W@std@@SA_NABG0@Z
  0017f	83 c4 08	 add	 esp, 8
  00182	3b f4		 cmp	 esi, esp
  00184	e8 00 00 00 00	 call	 __RTC_CheckEsp
  00189	88 45 a2	 mov	 BYTE PTR tv171[ebp], al
  0018c	0f b6 55 a2	 movzx	 edx, BYTE PTR tv171[ebp]
  00190	85 d2		 test	 edx, edx
  00192	74 37		 je	 SHORT $L90582

; 498  : 				{	// got a delimiter, discard it and quit
; 499  : 				_Changed = true;

  00194	c6 45 eb 01	 mov	 BYTE PTR __Changed$[ebp], 1

; 500  : 				_Istr.rdbuf()->sbumpc();

  00198	8b 45 08	 mov	 eax, DWORD PTR __Istr$[ebp]
  0019b	8b 08		 mov	 ecx, DWORD PTR [eax]
  0019d	8b 55 08	 mov	 edx, DWORD PTR __Istr$[ebp]
  001a0	03 51 04	 add	 edx, DWORD PTR [ecx+4]
  001a3	8b f4		 mov	 esi, esp
  001a5	8b ca		 mov	 ecx, edx
  001a7	ff 15 00 00 00
	00		 call	 DWORD PTR __imp_?rdbuf@?$basic_ios@_WU?$char_traits@_W@std@@@std@@QBEPAV?$basic_streambuf@_WU?$char_traits@_W@std@@@2@XZ
  001ad	3b f4		 cmp	 esi, esp
  001af	e8 00 00 00 00	 call	 __RTC_CheckEsp
  001b4	89 45 9c	 mov	 DWORD PTR tv172[ebp], eax
  001b7	8b f4		 mov	 esi, esp
  001b9	8b 4d 9c	 mov	 ecx, DWORD PTR tv172[ebp]
  001bc	ff 15 00 00 00
	00		 call	 DWORD PTR __imp_?sbumpc@?$basic_streambuf@_WU?$char_traits@_W@std@@@std@@QAEGXZ
  001c2	3b f4		 cmp	 esi, esp
  001c4	e8 00 00 00 00	 call	 __RTC_CheckEsp

; 501  : 				break;

  001c9	eb 77		 jmp	 SHORT $L90578
$L90582:

; 502  : 				}
; 503  : 			else if (_Str.max_size() <= _Str.size())

  001cb	8b f4		 mov	 esi, esp
  001cd	8b 4d 0c	 mov	 ecx, DWORD PTR __Str$[ebp]
  001d0	ff 15 00 00 00
	00		 call	 DWORD PTR __imp_?max_size@?$basic_string@_WU?$char_traits@_W@std@@V?$allocator@_W@2@@std@@QBEIXZ
  001d6	3b f4		 cmp	 esi, esp
  001d8	e8 00 00 00 00	 call	 __RTC_CheckEsp
  001dd	89 45 98	 mov	 DWORD PTR tv173[ebp], eax
  001e0	8b f4		 mov	 esi, esp
  001e2	8b 4d 0c	 mov	 ecx, DWORD PTR __Str$[ebp]
  001e5	ff 15 00 00 00
	00		 call	 DWORD PTR __imp_?size@?$basic_string@_WU?$char_traits@_W@std@@V?$allocator@_W@2@@std@@QBEIXZ
  001eb	3b f4		 cmp	 esi, esp
  001ed	e8 00 00 00 00	 call	 __RTC_CheckEsp
  001f2	89 45 94	 mov	 DWORD PTR tv174[ebp], eax
  001f5	8b 45 98	 mov	 eax, DWORD PTR tv173[ebp]
  001f8	3b 45 94	 cmp	 eax, DWORD PTR tv174[ebp]
  001fb	77 0b		 ja	 SHORT $L90584

; 504  : 				{	// string too large, quit
; 505  : 				_State |= ios_base::failbit;

  001fd	8b 4d ec	 mov	 ecx, DWORD PTR __State$[ebp]
  00200	83 c9 02	 or	 ecx, 2
  00203	89 4d ec	 mov	 DWORD PTR __State$[ebp], ecx

; 506  : 				break;

  00206	eb 3a		 jmp	 SHORT $L90578
$L90584:

; 507  : 				}
; 508  : 			else
; 509  : 				{	// got a character, add it to string
; 510  : 				_Str += _Traits::to_char_type(_Meta);

  00208	8b f4		 mov	 esi, esp
  0020a	8d 55 c4	 lea	 edx, DWORD PTR __Meta$90575[ebp]
  0020d	52		 push	 edx
  0020e	ff 15 00 00 00
	00		 call	 DWORD PTR __imp_?to_char_type@?$char_traits@_W@std@@SA_WABG@Z
  00214	83 c4 04	 add	 esp, 4
  00217	3b f4		 cmp	 esi, esp
  00219	e8 00 00 00 00	 call	 __RTC_CheckEsp
  0021e	66 89 45 92	 mov	 WORD PTR tv175[ebp], ax
  00222	8b f4		 mov	 esi, esp
  00224	66 8b 45 92	 mov	 ax, WORD PTR tv175[ebp]
  00228	50		 push	 eax
  00229	8b 4d 0c	 mov	 ecx, DWORD PTR __Str$[ebp]
  0022c	ff 15 00 00 00
	00		 call	 DWORD PTR __imp_??Y?$basic_string@_WU?$char_traits@_W@std@@V?$allocator@_W@2@@std@@QAEAAV01@_W@Z
  00232	3b f4		 cmp	 esi, esp
  00234	e8 00 00 00 00	 call	 __RTC_CheckEsp

; 511  : 				_Changed = true;

  00239	c6 45 eb 01	 mov	 BYTE PTR __Changed$[ebp], 1

; 512  : 				}

  0023d	e9 a4 fe ff ff	 jmp	 $L90577
$L90578:
  00242	eb 24		 jmp	 SHORT $L93435
$L93436:

; 513  : 		_CATCH_IO_(_Istr)

  00244	8b f4		 mov	 esi, esp
  00246	6a 01		 push	 1
  00248	6a 04		 push	 4
  0024a	8b 4d 08	 mov	 ecx, DWORD PTR __Istr$[ebp]
  0024d	8b 11		 mov	 edx, DWORD PTR [ecx]
  0024f	8b 4d 08	 mov	 ecx, DWORD PTR __Istr$[ebp]
  00252	03 4a 04	 add	 ecx, DWORD PTR [edx+4]
  00255	ff 15 00 00 00
	00		 call	 DWORD PTR __imp_?setstate@?$basic_ios@_WU?$char_traits@_W@std@@@std@@QAEXH_N@Z
  0025b	3b f4		 cmp	 esi, esp
  0025d	e8 00 00 00 00	 call	 __RTC_CheckEsp
  00262	b8 00 00 00 00	 mov	 eax, $L93435
  00267	c3		 ret	 0
$L93435:
  00268	c7 45 fc 00 00
	00 00		 mov	 DWORD PTR __$EHRec$[ebp+12], 0

; 514  : 		}
; 515  : 
; 516  : 	if (!_Changed)

  0026f	0f b6 45 eb	 movzx	 eax, BYTE PTR __Changed$[ebp]
  00273	85 c0		 test	 eax, eax
  00275	75 09		 jne	 SHORT $L90586

; 517  : 		_State |= ios_base::failbit;

  00277	8b 4d ec	 mov	 ecx, DWORD PTR __State$[ebp]
  0027a	83 c9 02	 or	 ecx, 2
  0027d	89 4d ec	 mov	 DWORD PTR __State$[ebp], ecx
$L90586:

; 518  : 	_Istr.setstate(_State);

  00280	8b f4		 mov	 esi, esp
  00282	6a 00		 push	 0
  00284	8b 55 ec	 mov	 edx, DWORD PTR __State$[ebp]
  00287	52		 push	 edx
  00288	8b 45 08	 mov	 eax, DWORD PTR __Istr$[ebp]
  0028b	8b 08		 mov	 ecx, DWORD PTR [eax]
  0028d	8b 55 08	 mov	 edx, DWORD PTR __Istr$[ebp]
  00290	03 51 04	 add	 edx, DWORD PTR [ecx+4]
  00293	8b ca		 mov	 ecx, edx
  00295	ff 15 00 00 00
	00		 call	 DWORD PTR __imp_?setstate@?$basic_ios@_WU?$char_traits@_W@std@@@std@@QAEXH_N@Z
  0029b	3b f4		 cmp	 esi, esp
  0029d	e8 00 00 00 00	 call	 __RTC_CheckEsp

; 519  : 	return (_Istr);

  002a2	8b 45 08	 mov	 eax, DWORD PTR __Istr$[ebp]
  002a5	89 45 b8	 mov	 DWORD PTR $T93434[ebp], eax
  002a8	c7 45 fc ff ff
	ff ff		 mov	 DWORD PTR __$EHRec$[ebp+12], -1
  002af	8d 4d dc	 lea	 ecx, DWORD PTR __Ok$[ebp]
  002b2	e8 00 00 00 00	 call	 ??1sentry@?$basic_istream@_WU?$char_traits@_W@std@@@std@@QAE@XZ
  002b7	8b 45 b8	 mov	 eax, DWORD PTR $T93434[ebp]

; 520  : 	}

  002ba	52		 push	 edx
  002bb	8b cd		 mov	 ecx, ebp
  002bd	50		 push	 eax
  002be	8d 15 00 00 00
	00		 lea	 edx, DWORD PTR $L93445
  002c4	e8 00 00 00 00	 call	 @_RTC_CheckStackVars@8
  002c9	58		 pop	 eax
  002ca	5a		 pop	 edx
  002cb	8b 4d f4	 mov	 ecx, DWORD PTR __$EHRec$[ebp+4]
  002ce	64 89 0d 00 00
	00 00		 mov	 DWORD PTR fs:__except_list, ecx
  002d5	5f		 pop	 edi
  002d6	5e		 pop	 esi
  002d7	5b		 pop	 ebx
  002d8	83 c4 70	 add	 esp, 112		; 00000070H
  002db	3b ec		 cmp	 ebp, esp
  002dd	e8 00 00 00 00	 call	 __RTC_CheckEsp
  002e2	8b e5		 mov	 esp, ebp
  002e4	5d		 pop	 ebp
  002e5	c3		 ret	 0
$L93445:
  002e6	03 00 00 00	 DD	 3
  002ea	00 00 00 00	 DD	 $L93444
$L93444:
  002ee	dc ff ff ff	 DD	 -36			; ffffffdcH
  002f2	08 00 00 00	 DD	 8
  002f6	00 00 00 00	 DD	 $L93440
  002fa	d0 ff ff ff	 DD	 -48			; ffffffd0H
  002fe	02 00 00 00	 DD	 2
  00302	00 00 00 00	 DD	 $L93441
  00306	c4 ff ff ff	 DD	 -60			; ffffffc4H
  0030a	02 00 00 00	 DD	 2
  0030e	00 00 00 00	 DD	 $L93442
$L93442:
  00312	5f		 DB	 95			; 0000005fH
  00313	4d		 DB	 77			; 0000004dH
  00314	65		 DB	 101			; 00000065H
  00315	74		 DB	 116			; 00000074H
  00316	61		 DB	 97			; 00000061H
  00317	00		 DB	 0
$L93441:
  00318	5f		 DB	 95			; 0000005fH
  00319	4d		 DB	 77			; 0000004dH
  0031a	65		 DB	 101			; 00000065H
  0031b	74		 DB	 116			; 00000074H
  0031c	61		 DB	 97			; 00000061H
  0031d	64		 DB	 100			; 00000064H
  0031e	65		 DB	 101			; 00000065H
  0031f	6c		 DB	 108			; 0000006cH
  00320	69		 DB	 105			; 00000069H
  00321	6d		 DB	 109			; 0000006dH
  00322	00		 DB	 0
$L93440:
  00323	5f		 DB	 95			; 0000005fH
  00324	4f		 DB	 79			; 0000004fH
  00325	6b		 DB	 107			; 0000006bH
  00326	00		 DB	 0
_TEXT	ENDS
;	COMDAT text$x
text$x	SEGMENT
$L93437:
  00000	8d 4d dc	 lea	 ecx, DWORD PTR __Ok$[ebp]
  00003	e9 00 00 00 00	 jmp	 ??1sentry@?$basic_istream@_WU?$char_traits@_W@std@@@std@@QAE@XZ
__ehhandler$??$getline@_WU?$char_traits@_W@std@@V?$allocator@_W@2@@std@@YAAAV?$basic_istream@_WU?$char_traits@_W@std@@@0@AAV10@AAV?$basic_string@_WU?$char_traits@_W@std@@V?$allocator@_W@2@@0@_W@Z:
  00008	b8 00 00 00 00	 mov	 eax, OFFSET FLAT:$T93439
  0000d	e9 00 00 00 00	 jmp	 ___CxxFrameHandler
text$x	ENDS
??$getline@_WU?$char_traits@_W@std@@V?$allocator@_W@2@@std@@YAAAV?$basic_istream@_WU?$char_traits@_W@std@@@0@AAV10@AAV?$basic_string@_WU?$char_traits@_W@std@@V?$allocator@_W@2@@0@_W@Z ENDP ; std::getline<wchar_t,std::char_traits<wchar_t>,std::allocator<wchar_t> >
PUBLIC	??0sentry@?$basic_ostream@_WU?$char_traits@_W@std@@@std@@QAE@AAV12@@Z ; std::basic_ostream<wchar_t,std::char_traits<wchar_t> >::sentry::sentry
PUBLIC	??1sentry@?$basic_ostream@_WU?$char_traits@_W@std@@@std@@QAE@XZ ; std::basic_ostream<wchar_t,std::char_traits<wchar_t> >::sentry::~sentry
PUBLIC	??Bsentry@?$basic_ostream@_WU?$char_traits@_W@std@@@std@@QBE_NXZ ; std::basic_ostream<wchar_t,std::char_traits<wchar_t> >::sentry::operator bool
PUBLIC	??$?6_WU?$char_traits@_W@std@@V?$allocator@_W@1@@std@@YAAAV?$basic_ostream@_WU?$char_traits@_W@std@@@0@AAV10@ABV?$basic_string@_WU?$char_traits@_W@std@@V?$allocator@_W@2@@0@@Z ; std::operator<<<wchar_t,std::char_traits<wchar_t>,std::allocator<wchar_t> >
EXTRN	__imp_?fill@?$basic_ios@_WU?$char_traits@_W@std@@@std@@QBE_WXZ:NEAR
EXTRN	__imp_??A?$basic_string@_WU?$char_traits@_W@std@@V?$allocator@_W@2@@std@@QBEAB_WI@Z:NEAR
EXTRN	__imp_?sputc@?$basic_streambuf@_WU?$char_traits@_W@std@@@std@@QAEG_W@Z:NEAR
;	COMDAT xdata$x
xdata$x	SEGMENT
$T93470	DD	0ffffffffH
	DD	FLAT:$L93463
	DD	00H
	DD	00H
	DD	00H
	DD	00H
$T93472	DD	00H
	DD	00H
	DD	00H
	DD	FLAT:$L93462
$T93471	DD	01H
	DD	01H
	DD	02H
	DD	01H
	DD	FLAT:$T93472
$T93465	DD	019930520H
	DD	03H
	DD	FLAT:$T93470
	DD	01H
	DD	FLAT:$T93471
	DD	2 DUP(00H)
; Function compile flags: /Odt /RTCsu
xdata$x	ENDS
;	COMDAT ??$?6_WU?$char_traits@_W@std@@V?$allocator@_W@1@@std@@YAAAV?$basic_ostream@_WU?$char_traits@_W@std@@@0@AAV10@ABV?$basic_string@_WU?$char_traits@_W@std@@V?$allocator@_W@2@@0@@Z
_TEXT	SEGMENT
tv221 = -113						; size = 1
tv220 = -112						; size = 2
tv219 = -110						; size = 2
tv218 = -108						; size = 4
tv217 = -104						; size = 2
tv216 = -101						; size = 1
tv215 = -100						; size = 2
tv214 = -98						; size = 2
tv213 = -96						; size = 4
tv212 = -92						; size = 4
tv211 = -85						; size = 1
tv210 = -84						; size = 2
tv209 = -82						; size = 2
tv208 = -80						; size = 4
tv207 = -74						; size = 2
tv83 = -72						; size = 4
tv81 = -68						; size = 4
$T93460 = -64						; size = 4
$T93459 = -60						; size = 2
$T93458 = -58						; size = 2
$T93457 = -56						; size = 2
$T93456 = -54						; size = 2
$T93455 = -52						; size = 2
$T93454 = -50						; size = 2
__Count$90609 = -48					; size = 4
__Ok$ = -40						; size = 8
__Pad$ = -28						; size = 4
__Size$ = -24						; size = 4
__State$ = -20						; size = 4
__$EHRec$ = -16						; size = 16
__Ostr$ = 8						; size = 4
__Str$ = 12						; size = 4
??$?6_WU?$char_traits@_W@std@@V?$allocator@_W@1@@std@@YAAAV?$basic_ostream@_WU?$char_traits@_W@std@@@0@AAV10@ABV?$basic_string@_WU?$char_traits@_W@std@@V?$allocator@_W@2@@0@@Z PROC NEAR ; std::operator<<<wchar_t,std::char_traits<wchar_t>,std::allocator<wchar_t> >, COMDAT

; 538  : 	{	// insert a string

  00000	55		 push	 ebp
  00001	8b ec		 mov	 ebp, esp
  00003	6a ff		 push	 -1
  00005	68 00 00 00 00	 push	 __ehhandler$??$?6_WU?$char_traits@_W@std@@V?$allocator@_W@1@@std@@YAAAV?$basic_ostream@_WU?$char_traits@_W@std@@@0@AAV10@ABV?$basic_string@_WU?$char_traits@_W@std@@V?$allocator@_W@2@@0@@Z
  0000a	64 a1 00 00 00
	00		 mov	 eax, DWORD PTR fs:__except_list
  00010	50		 push	 eax
  00011	64 89 25 00 00
	00 00		 mov	 DWORD PTR fs:__except_list, esp
  00018	51		 push	 ecx
  00019	83 ec 64	 sub	 esp, 100		; 00000064H
  0001c	53		 push	 ebx
  0001d	56		 push	 esi
  0001e	57		 push	 edi
  0001f	8d 7d 8c	 lea	 edi, DWORD PTR [ebp-116]
  00022	b9 19 00 00 00	 mov	 ecx, 25			; 00000019H
  00027	b8 cc cc cc cc	 mov	 eax, -858993460		; ccccccccH
  0002c	f3 ab		 rep stosd
  0002e	89 65 f0	 mov	 DWORD PTR __$EHRec$[ebp], esp

; 539  : 	typedef basic_ostream<_Elem, _Traits> _Myos;
; 540  : 	typedef basic_string<_Elem, _Traits, _Alloc> _Mystr;
; 541  : 	typedef typename _Mystr::size_type _Mysizt;
; 542  : 
; 543  : 	ios_base::iostate _State = ios_base::goodbit;

  00031	c7 45 ec 00 00
	00 00		 mov	 DWORD PTR __State$[ebp], 0

; 544  : 	_Mysizt _Size = _Str.size();

  00038	8b f4		 mov	 esi, esp
  0003a	8b 4d 0c	 mov	 ecx, DWORD PTR __Str$[ebp]
  0003d	ff 15 00 00 00
	00		 call	 DWORD PTR __imp_?size@?$basic_string@_WU?$char_traits@_W@std@@V?$allocator@_W@2@@std@@QBEIXZ
  00043	3b f4		 cmp	 esi, esp
  00045	e8 00 00 00 00	 call	 __RTC_CheckEsp
  0004a	89 45 e8	 mov	 DWORD PTR __Size$[ebp], eax

; 545  : 	_Mysizt _Pad = _Ostr.width() <= 0 || (_Mysizt)_Ostr.width() <= _Size
; 546  : 			? 0 : (_Mysizt)_Ostr.width() - _Size;

  0004d	8b 45 08	 mov	 eax, DWORD PTR __Ostr$[ebp]
  00050	8b 08		 mov	 ecx, DWORD PTR [eax]
  00052	8b 55 08	 mov	 edx, DWORD PTR __Ostr$[ebp]
  00055	03 51 04	 add	 edx, DWORD PTR [ecx+4]
  00058	8b f4		 mov	 esi, esp
  0005a	8b ca		 mov	 ecx, edx
  0005c	ff 15 00 00 00
	00		 call	 DWORD PTR __imp_?width@ios_base@std@@QBEHXZ
  00062	3b f4		 cmp	 esi, esp
  00064	e8 00 00 00 00	 call	 __RTC_CheckEsp
  00069	85 c0		 test	 eax, eax
  0006b	7e 45		 jle	 SHORT $L93452
  0006d	8b 45 08	 mov	 eax, DWORD PTR __Ostr$[ebp]
  00070	8b 08		 mov	 ecx, DWORD PTR [eax]
  00072	8b 55 08	 mov	 edx, DWORD PTR __Ostr$[ebp]
  00075	03 51 04	 add	 edx, DWORD PTR [ecx+4]
  00078	8b f4		 mov	 esi, esp
  0007a	8b ca		 mov	 ecx, edx
  0007c	ff 15 00 00 00
	00		 call	 DWORD PTR __imp_?width@ios_base@std@@QBEHXZ
  00082	3b f4		 cmp	 esi, esp
  00084	e8 00 00 00 00	 call	 __RTC_CheckEsp
  00089	3b 45 e8	 cmp	 eax, DWORD PTR __Size$[ebp]
  0008c	76 24		 jbe	 SHORT $L93452
  0008e	8b 45 08	 mov	 eax, DWORD PTR __Ostr$[ebp]
  00091	8b 08		 mov	 ecx, DWORD PTR [eax]
  00093	8b 55 08	 mov	 edx, DWORD PTR __Ostr$[ebp]
  00096	03 51 04	 add	 edx, DWORD PTR [ecx+4]
  00099	8b f4		 mov	 esi, esp
  0009b	8b ca		 mov	 ecx, edx
  0009d	ff 15 00 00 00
	00		 call	 DWORD PTR __imp_?width@ios_base@std@@QBEHXZ
  000a3	3b f4		 cmp	 esi, esp
  000a5	e8 00 00 00 00	 call	 __RTC_CheckEsp
  000aa	2b 45 e8	 sub	 eax, DWORD PTR __Size$[ebp]
  000ad	89 45 bc	 mov	 DWORD PTR tv81[ebp], eax
  000b0	eb 07		 jmp	 SHORT $L93453
$L93452:
  000b2	c7 45 bc 00 00
	00 00		 mov	 DWORD PTR tv81[ebp], 0
$L93453:
  000b9	8b 45 bc	 mov	 eax, DWORD PTR tv81[ebp]
  000bc	89 45 e4	 mov	 DWORD PTR __Pad$[ebp], eax

; 547  : 	const typename _Myos::sentry _Ok(_Ostr);

  000bf	8b 4d 08	 mov	 ecx, DWORD PTR __Ostr$[ebp]
  000c2	51		 push	 ecx
  000c3	8d 4d d8	 lea	 ecx, DWORD PTR __Ok$[ebp]
  000c6	e8 00 00 00 00	 call	 ??0sentry@?$basic_ostream@_WU?$char_traits@_W@std@@@std@@QAE@AAV12@@Z ; std::basic_ostream<wchar_t,std::char_traits<wchar_t> >::sentry::sentry
  000cb	c7 45 fc 00 00
	00 00		 mov	 DWORD PTR __$EHRec$[ebp+12], 0

; 548  : 
; 549  : 	if (!_Ok)

  000d2	8d 4d d8	 lea	 ecx, DWORD PTR __Ok$[ebp]
  000d5	e8 00 00 00 00	 call	 ??Bsentry@?$basic_ostream@_WU?$char_traits@_W@std@@@std@@QBE_NXZ ; std::basic_ostream<wchar_t,std::char_traits<wchar_t> >::sentry::operator bool
  000da	0f b6 d0	 movzx	 edx, al
  000dd	85 d2		 test	 edx, edx
  000df	75 0e		 jne	 SHORT $L90598

; 550  : 		_State |= ios_base::badbit;

  000e1	8b 45 ec	 mov	 eax, DWORD PTR __State$[ebp]
  000e4	83 c8 04	 or	 eax, 4
  000e7	89 45 ec	 mov	 DWORD PTR __State$[ebp], eax

; 551  : 	else

  000ea	e9 dd 02 00 00	 jmp	 $L93461
$L90598:

; 552  : 		{	// state okay, insert characters
; 553  : 	_TRY_IO_BEGIN

  000ef	c6 45 fc 01	 mov	 BYTE PTR __$EHRec$[ebp+12], 1

; 554  : 		if ((_Ostr.flags() & ios_base::adjustfield) != ios_base::left)

  000f3	8b 4d 08	 mov	 ecx, DWORD PTR __Ostr$[ebp]
  000f6	8b 11		 mov	 edx, DWORD PTR [ecx]
  000f8	8b 4d 08	 mov	 ecx, DWORD PTR __Ostr$[ebp]
  000fb	03 4a 04	 add	 ecx, DWORD PTR [edx+4]
  000fe	8b f4		 mov	 esi, esp
  00100	ff 15 00 00 00
	00		 call	 DWORD PTR __imp_?flags@ios_base@std@@QBEHXZ
  00106	3b f4		 cmp	 esi, esp
  00108	e8 00 00 00 00	 call	 __RTC_CheckEsp
  0010d	89 45 b8	 mov	 DWORD PTR tv83[ebp], eax
  00110	8b 45 b8	 mov	 eax, DWORD PTR tv83[ebp]
  00113	25 c0 01 00 00	 and	 eax, 448		; 000001c0H
  00118	83 f8 40	 cmp	 eax, 64			; 00000040H
  0011b	0f 84 c3 00 00
	00		 je	 $L90601

; 555  : 			for (; 0 < _Pad; --_Pad)	// pad on left

  00121	eb 09		 jmp	 SHORT $L90602
$L90603:
  00123	8b 4d e4	 mov	 ecx, DWORD PTR __Pad$[ebp]
  00126	83 e9 01	 sub	 ecx, 1
  00129	89 4d e4	 mov	 DWORD PTR __Pad$[ebp], ecx
$L90602:
  0012c	83 7d e4 00	 cmp	 DWORD PTR __Pad$[ebp], 0
  00130	0f 86 ae 00 00
	00		 jbe	 $L90601

; 556  : 				if (_Traits::eq_int_type(_Traits::eof(),
; 557  : 					_Ostr.rdbuf()->sputc(_Ostr.fill())))

  00136	8b 55 08	 mov	 edx, DWORD PTR __Ostr$[ebp]
  00139	8b 02		 mov	 eax, DWORD PTR [edx]
  0013b	8b 4d 08	 mov	 ecx, DWORD PTR __Ostr$[ebp]
  0013e	03 48 04	 add	 ecx, DWORD PTR [eax+4]
  00141	8b f4		 mov	 esi, esp
  00143	ff 15 00 00 00
	00		 call	 DWORD PTR __imp_?fill@?$basic_ios@_WU?$char_traits@_W@std@@@std@@QBE_WXZ
  00149	3b f4		 cmp	 esi, esp
  0014b	e8 00 00 00 00	 call	 __RTC_CheckEsp
  00150	66 89 45 b6	 mov	 WORD PTR tv207[ebp], ax
  00154	8b 4d 08	 mov	 ecx, DWORD PTR __Ostr$[ebp]
  00157	8b 11		 mov	 edx, DWORD PTR [ecx]
  00159	8b 4d 08	 mov	 ecx, DWORD PTR __Ostr$[ebp]
  0015c	03 4a 04	 add	 ecx, DWORD PTR [edx+4]
  0015f	8b f4		 mov	 esi, esp
  00161	ff 15 00 00 00
	00		 call	 DWORD PTR __imp_?rdbuf@?$basic_ios@_WU?$char_traits@_W@std@@@std@@QBEPAV?$basic_streambuf@_WU?$char_traits@_W@std@@@2@XZ
  00167	3b f4		 cmp	 esi, esp
  00169	e8 00 00 00 00	 call	 __RTC_CheckEsp
  0016e	89 45 b0	 mov	 DWORD PTR tv208[ebp], eax
  00171	8b f4		 mov	 esi, esp
  00173	66 8b 45 b6	 mov	 ax, WORD PTR tv207[ebp]
  00177	50		 push	 eax
  00178	8b 4d b0	 mov	 ecx, DWORD PTR tv208[ebp]
  0017b	ff 15 00 00 00
	00		 call	 DWORD PTR __imp_?sputc@?$basic_streambuf@_WU?$char_traits@_W@std@@@std@@QAEG_W@Z
  00181	3b f4		 cmp	 esi, esp
  00183	e8 00 00 00 00	 call	 __RTC_CheckEsp
  00188	66 89 45 ae	 mov	 WORD PTR tv209[ebp], ax
  0018c	66 8b 4d ae	 mov	 cx, WORD PTR tv209[ebp]
  00190	66 89 4d ce	 mov	 WORD PTR $T93454[ebp], cx
  00194	8b f4		 mov	 esi, esp
  00196	ff 15 00 00 00
	00		 call	 DWORD PTR __imp_?eof@?$char_traits@_W@std@@SAGXZ
  0019c	3b f4		 cmp	 esi, esp
  0019e	e8 00 00 00 00	 call	 __RTC_CheckEsp
  001a3	66 89 45 ac	 mov	 WORD PTR tv210[ebp], ax
  001a7	66 8b 55 ac	 mov	 dx, WORD PTR tv210[ebp]
  001ab	66 89 55 cc	 mov	 WORD PTR $T93455[ebp], dx
  001af	8b f4		 mov	 esi, esp
  001b1	8d 45 ce	 lea	 eax, DWORD PTR $T93454[ebp]
  001b4	50		 push	 eax
  001b5	8d 4d cc	 lea	 ecx, DWORD PTR $T93455[ebp]
  001b8	51		 push	 ecx
  001b9	ff 15 00 00 00
	00		 call	 DWORD PTR __imp_?eq_int_type@?$char_traits@_W@std@@SA_NABG0@Z
  001bf	83 c4 08	 add	 esp, 8
  001c2	3b f4		 cmp	 esi, esp
  001c4	e8 00 00 00 00	 call	 __RTC_CheckEsp
  001c9	88 45 ab	 mov	 BYTE PTR tv211[ebp], al
  001cc	0f b6 55 ab	 movzx	 edx, BYTE PTR tv211[ebp]
  001d0	85 d2		 test	 edx, edx
  001d2	74 0b		 je	 SHORT $L90607

; 558  : 					{	// insertion failed, quit
; 559  : 					_State |= ios_base::badbit;

  001d4	8b 45 ec	 mov	 eax, DWORD PTR __State$[ebp]
  001d7	83 c8 04	 or	 eax, 4
  001da	89 45 ec	 mov	 DWORD PTR __State$[ebp], eax

; 560  : 					break;

  001dd	eb 05		 jmp	 SHORT $L90601
$L90607:

; 561  : 					}
; 562  : 
; 563  : 		if (_State == ios_base::goodbit)

  001df	e9 3f ff ff ff	 jmp	 $L90603
$L90601:
  001e4	83 7d ec 00	 cmp	 DWORD PTR __State$[ebp], 0
  001e8	0f 85 c9 00 00
	00		 jne	 $L90608

; 564  : 			for (_Mysizt _Count = 0; _Count < _Size; ++_Count)

  001ee	c7 45 d0 00 00
	00 00		 mov	 DWORD PTR __Count$90609[ebp], 0
  001f5	eb 09		 jmp	 SHORT $L90610
$L90611:
  001f7	8b 4d d0	 mov	 ecx, DWORD PTR __Count$90609[ebp]
  001fa	83 c1 01	 add	 ecx, 1
  001fd	89 4d d0	 mov	 DWORD PTR __Count$90609[ebp], ecx
$L90610:
  00200	8b 55 d0	 mov	 edx, DWORD PTR __Count$90609[ebp]
  00203	3b 55 e8	 cmp	 edx, DWORD PTR __Size$[ebp]
  00206	0f 83 ab 00 00
	00		 jae	 $L90608

; 565  : 				if (_Traits::eq_int_type(_Traits::eof(),
; 566  : 					_Ostr.rdbuf()->sputc(_Str[_Count])))

  0020c	8b f4		 mov	 esi, esp
  0020e	8b 45 d0	 mov	 eax, DWORD PTR __Count$90609[ebp]
  00211	50		 push	 eax
  00212	8b 4d 0c	 mov	 ecx, DWORD PTR __Str$[ebp]
  00215	ff 15 00 00 00
	00		 call	 DWORD PTR __imp_??A?$basic_string@_WU?$char_traits@_W@std@@V?$allocator@_W@2@@std@@QBEAB_WI@Z
  0021b	3b f4		 cmp	 esi, esp
  0021d	e8 00 00 00 00	 call	 __RTC_CheckEsp
  00222	89 45 a4	 mov	 DWORD PTR tv212[ebp], eax
  00225	8b 4d 08	 mov	 ecx, DWORD PTR __Ostr$[ebp]
  00228	8b 11		 mov	 edx, DWORD PTR [ecx]
  0022a	8b 4d 08	 mov	 ecx, DWORD PTR __Ostr$[ebp]
  0022d	03 4a 04	 add	 ecx, DWORD PTR [edx+4]
  00230	8b f4		 mov	 esi, esp
  00232	ff 15 00 00 00
	00		 call	 DWORD PTR __imp_?rdbuf@?$basic_ios@_WU?$char_traits@_W@std@@@std@@QBEPAV?$basic_streambuf@_WU?$char_traits@_W@std@@@2@XZ
  00238	3b f4		 cmp	 esi, esp
  0023a	e8 00 00 00 00	 call	 __RTC_CheckEsp
  0023f	89 45 a0	 mov	 DWORD PTR tv213[ebp], eax
  00242	8b f4		 mov	 esi, esp
  00244	8b 45 a4	 mov	 eax, DWORD PTR tv212[ebp]
  00247	66 8b 08	 mov	 cx, WORD PTR [eax]
  0024a	51		 push	 ecx
  0024b	8b 4d a0	 mov	 ecx, DWORD PTR tv213[ebp]
  0024e	ff 15 00 00 00
	00		 call	 DWORD PTR __imp_?sputc@?$basic_streambuf@_WU?$char_traits@_W@std@@@std@@QAEG_W@Z
  00254	3b f4		 cmp	 esi, esp
  00256	e8 00 00 00 00	 call	 __RTC_CheckEsp
  0025b	66 89 45 9e	 mov	 WORD PTR tv214[ebp], ax
  0025f	66 8b 55 9e	 mov	 dx, WORD PTR tv214[ebp]
  00263	66 89 55 ca	 mov	 WORD PTR $T93456[ebp], dx
  00267	8b f4		 mov	 esi, esp
  00269	ff 15 00 00 00
	00		 call	 DWORD PTR __imp_?eof@?$char_traits@_W@std@@SAGXZ
  0026f	3b f4		 cmp	 esi, esp
  00271	e8 00 00 00 00	 call	 __RTC_CheckEsp
  00276	66 89 45 9c	 mov	 WORD PTR tv215[ebp], ax
  0027a	66 8b 45 9c	 mov	 ax, WORD PTR tv215[ebp]
  0027e	66 89 45 c8	 mov	 WORD PTR $T93457[ebp], ax
  00282	8b f4		 mov	 esi, esp
  00284	8d 4d ca	 lea	 ecx, DWORD PTR $T93456[ebp]
  00287	51		 push	 ecx
  00288	8d 55 c8	 lea	 edx, DWORD PTR $T93457[ebp]
  0028b	52		 push	 edx
  0028c	ff 15 00 00 00
	00		 call	 DWORD PTR __imp_?eq_int_type@?$char_traits@_W@std@@SA_NABG0@Z
  00292	83 c4 08	 add	 esp, 8
  00295	3b f4		 cmp	 esi, esp
  00297	e8 00 00 00 00	 call	 __RTC_CheckEsp
  0029c	88 45 9b	 mov	 BYTE PTR tv216[ebp], al
  0029f	0f b6 45 9b	 movzx	 eax, BYTE PTR tv216[ebp]
  002a3	85 c0		 test	 eax, eax
  002a5	74 0b		 je	 SHORT $L90615

; 567  : 					{	// insertion failed, quit
; 568  : 					_State |= ios_base::badbit;

  002a7	8b 4d ec	 mov	 ecx, DWORD PTR __State$[ebp]
  002aa	83 c9 04	 or	 ecx, 4
  002ad	89 4d ec	 mov	 DWORD PTR __State$[ebp], ecx

; 569  : 					break;

  002b0	eb 05		 jmp	 SHORT $L90608
$L90615:

; 570  : 					}
; 571  : 
; 572  : 		if (_State == ios_base::goodbit)

  002b2	e9 40 ff ff ff	 jmp	 $L90611
$L90608:
  002b7	83 7d ec 00	 cmp	 DWORD PTR __State$[ebp], 0
  002bb	0f 85 c7 00 00
	00		 jne	 $L90616

; 573  : 			for (; 0 < _Pad; --_Pad)	// pad on right

  002c1	eb 09		 jmp	 SHORT $L90617
$L90618:
  002c3	8b 55 e4	 mov	 edx, DWORD PTR __Pad$[ebp]
  002c6	83 ea 01	 sub	 edx, 1
  002c9	89 55 e4	 mov	 DWORD PTR __Pad$[ebp], edx
$L90617:
  002cc	83 7d e4 00	 cmp	 DWORD PTR __Pad$[ebp], 0
  002d0	0f 86 b2 00 00
	00		 jbe	 $L90616

; 574  : 				if (_Traits::eq_int_type(_Traits::eof(),
; 575  : 					_Ostr.rdbuf()->sputc(_Ostr.fill())))

  002d6	8b 45 08	 mov	 eax, DWORD PTR __Ostr$[ebp]
  002d9	8b 08		 mov	 ecx, DWORD PTR [eax]
  002db	8b 55 08	 mov	 edx, DWORD PTR __Ostr$[ebp]
  002de	03 51 04	 add	 edx, DWORD PTR [ecx+4]
  002e1	8b f4		 mov	 esi, esp
  002e3	8b ca		 mov	 ecx, edx
  002e5	ff 15 00 00 00
	00		 call	 DWORD PTR __imp_?fill@?$basic_ios@_WU?$char_traits@_W@std@@@std@@QBE_WXZ
  002eb	3b f4		 cmp	 esi, esp
  002ed	e8 00 00 00 00	 call	 __RTC_CheckEsp
  002f2	66 89 45 98	 mov	 WORD PTR tv217[ebp], ax
  002f6	8b 45 08	 mov	 eax, DWORD PTR __Ostr$[ebp]
  002f9	8b 08		 mov	 ecx, DWORD PTR [eax]
  002fb	8b 55 08	 mov	 edx, DWORD PTR __Ostr$[ebp]
  002fe	03 51 04	 add	 edx, DWORD PTR [ecx+4]
  00301	8b f4		 mov	 esi, esp
  00303	8b ca		 mov	 ecx, edx
  00305	ff 15 00 00 00
	00		 call	 DWORD PTR __imp_?rdbuf@?$basic_ios@_WU?$char_traits@_W@std@@@std@@QBEPAV?$basic_streambuf@_WU?$char_traits@_W@std@@@2@XZ
  0030b	3b f4		 cmp	 esi, esp
  0030d	e8 00 00 00 00	 call	 __RTC_CheckEsp
  00312	89 45 94	 mov	 DWORD PTR tv218[ebp], eax
  00315	8b f4		 mov	 esi, esp
  00317	66 8b 45 98	 mov	 ax, WORD PTR tv217[ebp]
  0031b	50		 push	 eax
  0031c	8b 4d 94	 mov	 ecx, DWORD PTR tv218[ebp]
  0031f	ff 15 00 00 00
	00		 call	 DWORD PTR __imp_?sputc@?$basic_streambuf@_WU?$char_traits@_W@std@@@std@@QAEG_W@Z
  00325	3b f4		 cmp	 esi, esp
  00327	e8 00 00 00 00	 call	 __RTC_CheckEsp
  0032c	66 89 45 92	 mov	 WORD PTR tv219[ebp], ax
  00330	66 8b 4d 92	 mov	 cx, WORD PTR tv219[ebp]
  00334	66 89 4d c6	 mov	 WORD PTR $T93458[ebp], cx
  00338	8b f4		 mov	 esi, esp
  0033a	ff 15 00 00 00
	00		 call	 DWORD PTR __imp_?eof@?$char_traits@_W@std@@SAGXZ
  00340	3b f4		 cmp	 esi, esp
  00342	e8 00 00 00 00	 call	 __RTC_CheckEsp
  00347	66 89 45 90	 mov	 WORD PTR tv220[ebp], ax
  0034b	66 8b 55 90	 mov	 dx, WORD PTR tv220[ebp]
  0034f	66 89 55 c4	 mov	 WORD PTR $T93459[ebp], dx
  00353	8b f4		 mov	 esi, esp
  00355	8d 45 c6	 lea	 eax, DWORD PTR $T93458[ebp]
  00358	50		 push	 eax
  00359	8d 4d c4	 lea	 ecx, DWORD PTR $T93459[ebp]
  0035c	51		 push	 ecx
  0035d	ff 15 00 00 00
	00		 call	 DWORD PTR __imp_?eq_int_type@?$char_traits@_W@std@@SA_NABG0@Z
  00363	83 c4 08	 add	 esp, 8
  00366	3b f4		 cmp	 esi, esp
  00368	e8 00 00 00 00	 call	 __RTC_CheckEsp
  0036d	88 45 8f	 mov	 BYTE PTR tv221[ebp], al
  00370	0f b6 55 8f	 movzx	 edx, BYTE PTR tv221[ebp]
  00374	85 d2		 test	 edx, edx
  00376	74 0b		 je	 SHORT $L90622

; 576  : 					{	// insertion failed, quit
; 577  : 					_State |= ios_base::badbit;

  00378	8b 45 ec	 mov	 eax, DWORD PTR __State$[ebp]
  0037b	83 c8 04	 or	 eax, 4
  0037e	89 45 ec	 mov	 DWORD PTR __State$[ebp], eax

; 578  : 					break;

  00381	eb 05		 jmp	 SHORT $L90616
$L90622:

; 579  : 					}
; 580  : 		_Ostr.width(0);

  00383	e9 3b ff ff ff	 jmp	 $L90618
$L90616:
  00388	8b f4		 mov	 esi, esp
  0038a	6a 00		 push	 0
  0038c	8b 4d 08	 mov	 ecx, DWORD PTR __Ostr$[ebp]
  0038f	8b 11		 mov	 edx, DWORD PTR [ecx]
  00391	8b 4d 08	 mov	 ecx, DWORD PTR __Ostr$[ebp]
  00394	03 4a 04	 add	 ecx, DWORD PTR [edx+4]
  00397	ff 15 00 00 00
	00		 call	 DWORD PTR __imp_?width@ios_base@std@@QAEHH@Z
  0039d	3b f4		 cmp	 esi, esp
  0039f	e8 00 00 00 00	 call	 __RTC_CheckEsp
  003a4	eb 26		 jmp	 SHORT $L93461
$L93462:

; 581  : 		_CATCH_IO_(_Ostr)

  003a6	8b f4		 mov	 esi, esp
  003a8	6a 01		 push	 1
  003aa	6a 04		 push	 4
  003ac	8b 45 08	 mov	 eax, DWORD PTR __Ostr$[ebp]
  003af	8b 08		 mov	 ecx, DWORD PTR [eax]
  003b1	8b 55 08	 mov	 edx, DWORD PTR __Ostr$[ebp]
  003b4	03 51 04	 add	 edx, DWORD PTR [ecx+4]
  003b7	8b ca		 mov	 ecx, edx
  003b9	ff 15 00 00 00
	00		 call	 DWORD PTR __imp_?setstate@?$basic_ios@_WU?$char_traits@_W@std@@@std@@QAEXH_N@Z
  003bf	3b f4		 cmp	 esi, esp
  003c1	e8 00 00 00 00	 call	 __RTC_CheckEsp
  003c6	b8 00 00 00 00	 mov	 eax, $L93461
  003cb	c3		 ret	 0
$L93461:
  003cc	c7 45 fc 00 00
	00 00		 mov	 DWORD PTR __$EHRec$[ebp+12], 0

; 582  : 		}
; 583  : 
; 584  : 	_Ostr.setstate(_State);

  003d3	8b f4		 mov	 esi, esp
  003d5	6a 00		 push	 0
  003d7	8b 45 ec	 mov	 eax, DWORD PTR __State$[ebp]
  003da	50		 push	 eax
  003db	8b 4d 08	 mov	 ecx, DWORD PTR __Ostr$[ebp]
  003de	8b 11		 mov	 edx, DWORD PTR [ecx]
  003e0	8b 4d 08	 mov	 ecx, DWORD PTR __Ostr$[ebp]
  003e3	03 4a 04	 add	 ecx, DWORD PTR [edx+4]
  003e6	ff 15 00 00 00
	00		 call	 DWORD PTR __imp_?setstate@?$basic_ios@_WU?$char_traits@_W@std@@@std@@QAEXH_N@Z
  003ec	3b f4		 cmp	 esi, esp
  003ee	e8 00 00 00 00	 call	 __RTC_CheckEsp

; 585  : 	return (_Ostr);

  003f3	8b 45 08	 mov	 eax, DWORD PTR __Ostr$[ebp]
  003f6	89 45 c0	 mov	 DWORD PTR $T93460[ebp], eax
  003f9	c7 45 fc ff ff
	ff ff		 mov	 DWORD PTR __$EHRec$[ebp+12], -1
  00400	8d 4d d8	 lea	 ecx, DWORD PTR __Ok$[ebp]
  00403	e8 00 00 00 00	 call	 ??1sentry@?$basic_ostream@_WU?$char_traits@_W@std@@@std@@QAE@XZ ; std::basic_ostream<wchar_t,std::char_traits<wchar_t> >::sentry::~sentry
  00408	8b 45 c0	 mov	 eax, DWORD PTR $T93460[ebp]

; 586  : 	}

  0040b	52		 push	 edx
  0040c	8b cd		 mov	 ecx, ebp
  0040e	50		 push	 eax
  0040f	8d 15 00 00 00
	00		 lea	 edx, DWORD PTR $L93469
  00415	e8 00 00 00 00	 call	 @_RTC_CheckStackVars@8
  0041a	58		 pop	 eax
  0041b	5a		 pop	 edx
  0041c	8b 4d f4	 mov	 ecx, DWORD PTR __$EHRec$[ebp+4]
  0041f	64 89 0d 00 00
	00 00		 mov	 DWORD PTR fs:__except_list, ecx
  00426	5f		 pop	 edi
  00427	5e		 pop	 esi
  00428	5b		 pop	 ebx
  00429	83 c4 74	 add	 esp, 116		; 00000074H
  0042c	3b ec		 cmp	 ebp, esp
  0042e	e8 00 00 00 00	 call	 __RTC_CheckEsp
  00433	8b e5		 mov	 esp, ebp
  00435	5d		 pop	 ebp
  00436	c3		 ret	 0
$L93469:
  00437	01 00 00 00	 DD	 1
  0043b	00 00 00 00	 DD	 $L93468
$L93468:
  0043f	d8 ff ff ff	 DD	 -40			; ffffffd8H
  00443	08 00 00 00	 DD	 8
  00447	00 00 00 00	 DD	 $L93466
$L93466:
  0044b	5f		 DB	 95			; 0000005fH
  0044c	4f		 DB	 79			; 0000004fH
  0044d	6b		 DB	 107			; 0000006bH
  0044e	00		 DB	 0
_TEXT	ENDS
;	COMDAT text$x
text$x	SEGMENT
$L93463:
  00000	8d 4d d8	 lea	 ecx, DWORD PTR __Ok$[ebp]
  00003	e9 00 00 00 00	 jmp	 ??1sentry@?$basic_ostream@_WU?$char_traits@_W@std@@@std@@QAE@XZ ; std::basic_ostream<wchar_t,std::char_traits<wchar_t> >::sentry::~sentry
__ehhandler$??$?6_WU?$char_traits@_W@std@@V?$allocator@_W@1@@std@@YAAAV?$basic_ostream@_WU?$char_traits@_W@std@@@0@AAV10@ABV?$basic_string@_WU?$char_traits@_W@std@@V?$allocator@_W@2@@0@@Z:
  00008	b8 00 00 00 00	 mov	 eax, OFFSET FLAT:$T93465
  0000d	e9 00 00 00 00	 jmp	 ___CxxFrameHandler
text$x	ENDS
??$?6_WU?$char_traits@_W@std@@V?$allocator@_W@1@@std@@YAAAV?$basic_ostream@_WU?$char_traits@_W@std@@@0@AAV10@ABV?$basic_string@_WU?$char_traits@_W@std@@V?$allocator@_W@2@@0@@Z ENDP ; std::operator<<<wchar_t,std::char_traits<wchar_t>,std::allocator<wchar_t> >
PUBLIC	??0_Sentry_base@?$basic_ostream@_WU?$char_traits@_W@std@@@std@@QAE@AAV12@@Z ; std::basic_ostream<wchar_t,std::char_traits<wchar_t> >::_Sentry_base::_Sentry_base
PUBLIC	??1_Sentry_base@?$basic_ostream@_WU?$char_traits@_W@std@@@std@@QAE@XZ ; std::basic_ostream<wchar_t,std::char_traits<wchar_t> >::_Sentry_base::~_Sentry_base
EXTRN	__imp_?tie@?$basic_ios@_WU?$char_traits@_W@std@@@std@@QBEPAV?$basic_ostream@_WU?$char_traits@_W@std@@@2@XZ:NEAR
EXTRN	__imp_?flush@?$basic_ostream@_WU?$char_traits@_W@std@@@std@@QAEAAV12@XZ:NEAR
;	COMDAT xdata$x
; File d:\program files (x86)\microsoft visual studio .net 2003\vc7\include\ostream
xdata$x	SEGMENT
$T93480	DD	0ffffffffH
	DD	FLAT:$L93476
$T93478	DD	019930520H
	DD	01H
	DD	FLAT:$T93480
	DD	2 DUP(00H)
	DD	2 DUP(00H)
; Function compile flags: /Odt /RTCsu
xdata$x	ENDS
;	COMDAT ??0sentry@?$basic_ostream@_WU?$char_traits@_W@std@@@std@@QAE@AAV12@@Z
_TEXT	SEGMENT
_this$ = -16						; size = 4
__$EHRec$ = -12						; size = 12
__Ostr$ = 8						; size = 4
??0sentry@?$basic_ostream@_WU?$char_traits@_W@std@@@std@@QAE@AAV12@@Z PROC NEAR ; std::basic_ostream<wchar_t,std::char_traits<wchar_t> >::sentry::sentry, COMDAT
; _this$ = ecx

; 88   : 			{	// construct locking and testing stream

  00000	55		 push	 ebp
  00001	8b ec		 mov	 ebp, esp
  00003	6a ff		 push	 -1
  00005	68 00 00 00 00	 push	 __ehhandler$??0sentry@?$basic_ostream@_WU?$char_traits@_W@std@@@std@@QAE@AAV12@@Z
  0000a	64 a1 00 00 00
	00		 mov	 eax, DWORD PTR fs:__except_list
  00010	50		 push	 eax
  00011	64 89 25 00 00
	00 00		 mov	 DWORD PTR fs:__except_list, esp
  00018	51		 push	 ecx
  00019	56		 push	 esi
  0001a	c7 45 f0 cc cc
	cc cc		 mov	 DWORD PTR [ebp-16], -858993460 ; ccccccccH
  00021	89 4d f0	 mov	 DWORD PTR _this$[ebp], ecx
  00024	8b 45 08	 mov	 eax, DWORD PTR __Ostr$[ebp]
  00027	50		 push	 eax
  00028	8b 4d f0	 mov	 ecx, DWORD PTR _this$[ebp]
  0002b	e8 00 00 00 00	 call	 ??0_Sentry_base@?$basic_ostream@_WU?$char_traits@_W@std@@@std@@QAE@AAV12@@Z ; std::basic_ostream<wchar_t,std::char_traits<wchar_t> >::_Sentry_base::_Sentry_base
  00030	c7 45 fc 00 00
	00 00		 mov	 DWORD PTR __$EHRec$[ebp+8], 0

; 89   : 			if (_Ostr.good() && _Ostr.tie() != 0)

  00037	8b 4d 08	 mov	 ecx, DWORD PTR __Ostr$[ebp]
  0003a	8b 11		 mov	 edx, DWORD PTR [ecx]
  0003c	8b 4d 08	 mov	 ecx, DWORD PTR __Ostr$[ebp]
  0003f	03 4a 04	 add	 ecx, DWORD PTR [edx+4]
  00042	8b f4		 mov	 esi, esp
  00044	ff 15 00 00 00
	00		 call	 DWORD PTR __imp_?good@ios_base@std@@QBE_NXZ
  0004a	3b f4		 cmp	 esi, esp
  0004c	e8 00 00 00 00	 call	 __RTC_CheckEsp
  00051	0f b6 c0	 movzx	 eax, al
  00054	85 c0		 test	 eax, eax
  00056	74 4b		 je	 SHORT $L89707
  00058	8b 4d 08	 mov	 ecx, DWORD PTR __Ostr$[ebp]
  0005b	8b 11		 mov	 edx, DWORD PTR [ecx]
  0005d	8b 4d 08	 mov	 ecx, DWORD PTR __Ostr$[ebp]
  00060	03 4a 04	 add	 ecx, DWORD PTR [edx+4]
  00063	8b f4		 mov	 esi, esp
  00065	ff 15 00 00 00
	00		 call	 DWORD PTR __imp_?tie@?$basic_ios@_WU?$char_traits@_W@std@@@std@@QBEPAV?$basic_ostream@_WU?$char_traits@_W@std@@@2@XZ
  0006b	3b f4		 cmp	 esi, esp
  0006d	e8 00 00 00 00	 call	 __RTC_CheckEsp
  00072	85 c0		 test	 eax, eax
  00074	74 2d		 je	 SHORT $L89707

; 90   : 				_Ostr.tie()->flush();

  00076	8b 45 08	 mov	 eax, DWORD PTR __Ostr$[ebp]
  00079	8b 08		 mov	 ecx, DWORD PTR [eax]
  0007b	8b 55 08	 mov	 edx, DWORD PTR __Ostr$[ebp]
  0007e	03 51 04	 add	 edx, DWORD PTR [ecx+4]
  00081	8b f4		 mov	 esi, esp
  00083	8b ca		 mov	 ecx, edx
  00085	ff 15 00 00 00
	00		 call	 DWORD PTR __imp_?tie@?$basic_ios@_WU?$char_traits@_W@std@@@std@@QBEPAV?$basic_ostream@_WU?$char_traits@_W@std@@@2@XZ
  0008b	3b f4		 cmp	 esi, esp
  0008d	e8 00 00 00 00	 call	 __RTC_CheckEsp
  00092	8b f4		 mov	 esi, esp
  00094	8b c8		 mov	 ecx, eax
  00096	ff 15 00 00 00
	00		 call	 DWORD PTR __imp_?flush@?$basic_ostream@_WU?$char_traits@_W@std@@@std@@QAEAAV12@XZ
  0009c	3b f4		 cmp	 esi, esp
  0009e	e8 00 00 00 00	 call	 __RTC_CheckEsp
$L89707:

; 91   : 			_Ok = _Ostr.good();	// store test only after flushing tie

  000a3	8b 45 08	 mov	 eax, DWORD PTR __Ostr$[ebp]
  000a6	8b 08		 mov	 ecx, DWORD PTR [eax]
  000a8	8b 55 08	 mov	 edx, DWORD PTR __Ostr$[ebp]
  000ab	03 51 04	 add	 edx, DWORD PTR [ecx+4]
  000ae	8b f4		 mov	 esi, esp
  000b0	8b ca		 mov	 ecx, edx
  000b2	ff 15 00 00 00
	00		 call	 DWORD PTR __imp_?good@ios_base@std@@QBE_NXZ
  000b8	3b f4		 cmp	 esi, esp
  000ba	e8 00 00 00 00	 call	 __RTC_CheckEsp
  000bf	8b 4d f0	 mov	 ecx, DWORD PTR _this$[ebp]
  000c2	88 41 04	 mov	 BYTE PTR [ecx+4], al

; 92   : 			}

  000c5	c7 45 fc ff ff
	ff ff		 mov	 DWORD PTR __$EHRec$[ebp+8], -1
  000cc	8b 45 f0	 mov	 eax, DWORD PTR _this$[ebp]
  000cf	8b 4d f4	 mov	 ecx, DWORD PTR __$EHRec$[ebp]
  000d2	64 89 0d 00 00
	00 00		 mov	 DWORD PTR fs:__except_list, ecx
  000d9	5e		 pop	 esi
  000da	83 c4 10	 add	 esp, 16			; 00000010H
  000dd	3b ec		 cmp	 ebp, esp
  000df	e8 00 00 00 00	 call	 __RTC_CheckEsp
  000e4	8b e5		 mov	 esp, ebp
  000e6	5d		 pop	 ebp
  000e7	c2 04 00	 ret	 4
_TEXT	ENDS
;	COMDAT text$x
text$x	SEGMENT
$L93476:
  00000	8b 4d f0	 mov	 ecx, DWORD PTR _this$[ebp]
  00003	e9 00 00 00 00	 jmp	 ??1_Sentry_base@?$basic_ostream@_WU?$char_traits@_W@std@@@std@@QAE@XZ ; std::basic_ostream<wchar_t,std::char_traits<wchar_t> >::_Sentry_base::~_Sentry_base
__ehhandler$??0sentry@?$basic_ostream@_WU?$char_traits@_W@std@@@std@@QAE@AAV12@@Z:
  00008	b8 00 00 00 00	 mov	 eax, OFFSET FLAT:$T93478
  0000d	e9 00 00 00 00	 jmp	 ___CxxFrameHandler
text$x	ENDS
??0sentry@?$basic_ostream@_WU?$char_traits@_W@std@@@std@@QAE@AAV12@@Z ENDP ; std::basic_ostream<wchar_t,std::char_traits<wchar_t> >::sentry::sentry
EXTRN	__imp_?_Osfx@?$basic_ostream@_WU?$char_traits@_W@std@@@std@@QAEXXZ:NEAR
;	COMDAT xdata$x
xdata$x	SEGMENT
$T93488	DD	0ffffffffH
	DD	FLAT:$L93484
$T93486	DD	019930520H
	DD	01H
	DD	FLAT:$T93488
	DD	2 DUP(00H)
	DD	2 DUP(00H)
; Function compile flags: /Odt /RTCsu
xdata$x	ENDS
;	COMDAT ??1sentry@?$basic_ostream@_WU?$char_traits@_W@std@@@std@@QAE@XZ
_TEXT	SEGMENT
_this$ = -16						; size = 4
__$EHRec$ = -12						; size = 12
??1sentry@?$basic_ostream@_WU?$char_traits@_W@std@@@std@@QAE@XZ PROC NEAR ; std::basic_ostream<wchar_t,std::char_traits<wchar_t> >::sentry::~sentry, COMDAT
; _this$ = ecx

; 95   : 			{	// destroy the object

  00000	55		 push	 ebp
  00001	8b ec		 mov	 ebp, esp
  00003	6a ff		 push	 -1
  00005	68 00 00 00 00	 push	 __ehhandler$??1sentry@?$basic_ostream@_WU?$char_traits@_W@std@@@std@@QAE@XZ
  0000a	64 a1 00 00 00
	00		 mov	 eax, DWORD PTR fs:__except_list
  00010	50		 push	 eax
  00011	64 89 25 00 00
	00 00		 mov	 DWORD PTR fs:__except_list, esp
  00018	51		 push	 ecx
  00019	56		 push	 esi
  0001a	c7 45 f0 cc cc
	cc cc		 mov	 DWORD PTR [ebp-16], -858993460 ; ccccccccH
  00021	89 4d f0	 mov	 DWORD PTR _this$[ebp], ecx
  00024	c7 45 fc 00 00
	00 00		 mov	 DWORD PTR __$EHRec$[ebp+8], 0

; 96   : 
; 97   :  #if _HAS_EXCEPTIONS
; 98   : 			if (!uncaught_exception())

  0002b	8b f4		 mov	 esi, esp
  0002d	ff 15 00 00 00
	00		 call	 DWORD PTR __imp_?uncaught_exception@std@@YA_NXZ
  00033	3b f4		 cmp	 esi, esp
  00035	e8 00 00 00 00	 call	 __RTC_CheckEsp
  0003a	0f b6 c0	 movzx	 eax, al
  0003d	85 c0		 test	 eax, eax
  0003f	75 14		 jne	 SHORT $L89709

; 99   : 				this->_Myostr._Osfx();

  00041	8b 4d f0	 mov	 ecx, DWORD PTR _this$[ebp]
  00044	8b 09		 mov	 ecx, DWORD PTR [ecx]
  00046	8b f4		 mov	 esi, esp
  00048	ff 15 00 00 00
	00		 call	 DWORD PTR __imp_?_Osfx@?$basic_ostream@_WU?$char_traits@_W@std@@@std@@QAEXXZ
  0004e	3b f4		 cmp	 esi, esp
  00050	e8 00 00 00 00	 call	 __RTC_CheckEsp
$L89709:

; 100  : 			}

  00055	c7 45 fc ff ff
	ff ff		 mov	 DWORD PTR __$EHRec$[ebp+8], -1
  0005c	8b 4d f0	 mov	 ecx, DWORD PTR _this$[ebp]
  0005f	e8 00 00 00 00	 call	 ??1_Sentry_base@?$basic_ostream@_WU?$char_traits@_W@std@@@std@@QAE@XZ ; std::basic_ostream<wchar_t,std::char_traits<wchar_t> >::_Sentry_base::~_Sentry_base
  00064	8b 4d f4	 mov	 ecx, DWORD PTR __$EHRec$[ebp]
  00067	64 89 0d 00 00
	00 00		 mov	 DWORD PTR fs:__except_list, ecx
  0006e	5e		 pop	 esi
  0006f	83 c4 10	 add	 esp, 16			; 00000010H
  00072	3b ec		 cmp	 ebp, esp
  00074	e8 00 00 00 00	 call	 __RTC_CheckEsp
  00079	8b e5		 mov	 esp, ebp
  0007b	5d		 pop	 ebp
  0007c	c3		 ret	 0
_TEXT	ENDS
;	COMDAT text$x
text$x	SEGMENT
$L93484:
  00000	8b 4d f0	 mov	 ecx, DWORD PTR _this$[ebp]
  00003	e9 00 00 00 00	 jmp	 ??1_Sentry_base@?$basic_ostream@_WU?$char_traits@_W@std@@@std@@QAE@XZ ; std::basic_ostream<wchar_t,std::char_traits<wchar_t> >::_Sentry_base::~_Sentry_base
__ehhandler$??1sentry@?$basic_ostream@_WU?$char_traits@_W@std@@@std@@QAE@XZ:
  00008	b8 00 00 00 00	 mov	 eax, OFFSET FLAT:$T93486
  0000d	e9 00 00 00 00	 jmp	 ___CxxFrameHandler
text$x	ENDS
??1sentry@?$basic_ostream@_WU?$char_traits@_W@std@@@std@@QAE@XZ ENDP ; std::basic_ostream<wchar_t,std::char_traits<wchar_t> >::sentry::~sentry
; Function compile flags: /Odt /RTCsu
;	COMDAT ??Bsentry@?$basic_ostream@_WU?$char_traits@_W@std@@@std@@QBE_NXZ
_TEXT	SEGMENT
_this$ = -4						; size = 4
??Bsentry@?$basic_ostream@_WU?$char_traits@_W@std@@@std@@QBE_NXZ PROC NEAR ; std::basic_ostream<wchar_t,std::char_traits<wchar_t> >::sentry::operator bool, COMDAT
; _this$ = ecx

; 108  : 			{	// test if stream state okay

  00000	55		 push	 ebp
  00001	8b ec		 mov	 ebp, esp
  00003	51		 push	 ecx
  00004	c7 45 fc cc cc
	cc cc		 mov	 DWORD PTR [ebp-4], -858993460 ; ccccccccH
  0000b	89 4d fc	 mov	 DWORD PTR _this$[ebp], ecx

; 109  : 			return (_Ok);

  0000e	8b 45 fc	 mov	 eax, DWORD PTR _this$[ebp]
  00011	8a 40 04	 mov	 al, BYTE PTR [eax+4]

; 110  : 			}

  00014	8b e5		 mov	 esp, ebp
  00016	5d		 pop	 ebp
  00017	c3		 ret	 0
??Bsentry@?$basic_ostream@_WU?$char_traits@_W@std@@@std@@QBE_NXZ ENDP ; std::basic_ostream<wchar_t,std::char_traits<wchar_t> >::sentry::operator bool
; Function compile flags: /Odt /RTCsu
_TEXT	ENDS
;	COMDAT ??0_Sentry_base@?$basic_ostream@_WU?$char_traits@_W@std@@@std@@QAE@AAV12@@Z
_TEXT	SEGMENT
_this$ = -4						; size = 4
__Ostr$ = 8						; size = 4
??0_Sentry_base@?$basic_ostream@_WU?$char_traits@_W@std@@@std@@QAE@AAV12@@Z PROC NEAR ; std::basic_ostream<wchar_t,std::char_traits<wchar_t> >::_Sentry_base::_Sentry_base, COMDAT
; _this$ = ecx

; 68   : 			{	// lock the stream buffer, if there

  00000	55		 push	 ebp
  00001	8b ec		 mov	 ebp, esp
  00003	51		 push	 ecx
  00004	56		 push	 esi
  00005	c7 45 fc cc cc
	cc cc		 mov	 DWORD PTR [ebp-4], -858993460 ; ccccccccH
  0000c	89 4d fc	 mov	 DWORD PTR _this$[ebp], ecx
  0000f	8b 45 fc	 mov	 eax, DWORD PTR _this$[ebp]
  00012	8b 4d 08	 mov	 ecx, DWORD PTR __Ostr$[ebp]
  00015	89 08		 mov	 DWORD PTR [eax], ecx

; 69   : 			if (_Myostr.rdbuf() != 0)

  00017	8b 55 fc	 mov	 edx, DWORD PTR _this$[ebp]
  0001a	8b 02		 mov	 eax, DWORD PTR [edx]
  0001c	8b 08		 mov	 ecx, DWORD PTR [eax]
  0001e	8b 55 fc	 mov	 edx, DWORD PTR _this$[ebp]
  00021	8b 02		 mov	 eax, DWORD PTR [edx]
  00023	03 41 04	 add	 eax, DWORD PTR [ecx+4]
  00026	8b f4		 mov	 esi, esp
  00028	8b c8		 mov	 ecx, eax
  0002a	ff 15 00 00 00
	00		 call	 DWORD PTR __imp_?rdbuf@?$basic_ios@_WU?$char_traits@_W@std@@@std@@QBEPAV?$basic_streambuf@_WU?$char_traits@_W@std@@@2@XZ
  00030	3b f4		 cmp	 esi, esp
  00032	e8 00 00 00 00	 call	 __RTC_CheckEsp
  00037	85 c0		 test	 eax, eax
  00039	74 2f		 je	 SHORT $L90045

; 70   : 				_Myostr.rdbuf()->_Lock();

  0003b	8b 4d fc	 mov	 ecx, DWORD PTR _this$[ebp]
  0003e	8b 11		 mov	 edx, DWORD PTR [ecx]
  00040	8b 02		 mov	 eax, DWORD PTR [edx]
  00042	8b 4d fc	 mov	 ecx, DWORD PTR _this$[ebp]
  00045	8b 09		 mov	 ecx, DWORD PTR [ecx]
  00047	03 48 04	 add	 ecx, DWORD PTR [eax+4]
  0004a	8b f4		 mov	 esi, esp
  0004c	ff 15 00 00 00
	00		 call	 DWORD PTR __imp_?rdbuf@?$basic_ios@_WU?$char_traits@_W@std@@@std@@QBEPAV?$basic_streambuf@_WU?$char_traits@_W@std@@@2@XZ
  00052	3b f4		 cmp	 esi, esp
  00054	e8 00 00 00 00	 call	 __RTC_CheckEsp
  00059	8b f4		 mov	 esi, esp
  0005b	8b c8		 mov	 ecx, eax
  0005d	ff 15 00 00 00
	00		 call	 DWORD PTR __imp_?_Lock@?$basic_streambuf@_WU?$char_traits@_W@std@@@std@@QAEXXZ
  00063	3b f4		 cmp	 esi, esp
  00065	e8 00 00 00 00	 call	 __RTC_CheckEsp
$L90045:

; 71   : 			}

  0006a	8b 45 fc	 mov	 eax, DWORD PTR _this$[ebp]
  0006d	5e		 pop	 esi
  0006e	83 c4 04	 add	 esp, 4
  00071	3b ec		 cmp	 ebp, esp
  00073	e8 00 00 00 00	 call	 __RTC_CheckEsp
  00078	8b e5		 mov	 esp, ebp
  0007a	5d		 pop	 ebp
  0007b	c2 04 00	 ret	 4
??0_Sentry_base@?$basic_ostream@_WU?$char_traits@_W@std@@@std@@QAE@AAV12@@Z ENDP ; std::basic_ostream<wchar_t,std::char_traits<wchar_t> >::_Sentry_base::_Sentry_base
; Function compile flags: /Odt /RTCsu
_TEXT	ENDS
;	COMDAT ??1_Sentry_base@?$basic_ostream@_WU?$char_traits@_W@std@@@std@@QAE@XZ
_TEXT	SEGMENT
_this$ = -4						; size = 4
??1_Sentry_base@?$basic_ostream@_WU?$char_traits@_W@std@@@std@@QAE@XZ PROC NEAR ; std::basic_ostream<wchar_t,std::char_traits<wchar_t> >::_Sentry_base::~_Sentry_base, COMDAT
; _this$ = ecx

; 74   : 			{	// destroy after unlocking

  00000	55		 push	 ebp
  00001	8b ec		 mov	 ebp, esp
  00003	51		 push	 ecx
  00004	56		 push	 esi
  00005	c7 45 fc cc cc
	cc cc		 mov	 DWORD PTR [ebp-4], -858993460 ; ccccccccH
  0000c	89 4d fc	 mov	 DWORD PTR _this$[ebp], ecx

; 75   : 			if (_Myostr.rdbuf() != 0)

  0000f	8b 45 fc	 mov	 eax, DWORD PTR _this$[ebp]
  00012	8b 08		 mov	 ecx, DWORD PTR [eax]
  00014	8b 11		 mov	 edx, DWORD PTR [ecx]
  00016	8b 45 fc	 mov	 eax, DWORD PTR _this$[ebp]
  00019	8b 08		 mov	 ecx, DWORD PTR [eax]
  0001b	03 4a 04	 add	 ecx, DWORD PTR [edx+4]
  0001e	8b f4		 mov	 esi, esp
  00020	ff 15 00 00 00
	00		 call	 DWORD PTR __imp_?rdbuf@?$basic_ios@_WU?$char_traits@_W@std@@@std@@QBEPAV?$basic_streambuf@_WU?$char_traits@_W@std@@@2@XZ
  00026	3b f4		 cmp	 esi, esp
  00028	e8 00 00 00 00	 call	 __RTC_CheckEsp
  0002d	85 c0		 test	 eax, eax
  0002f	74 2f		 je	 SHORT $L90048

; 76   : 				_Myostr.rdbuf()->_Unlock();

  00031	8b 4d fc	 mov	 ecx, DWORD PTR _this$[ebp]
  00034	8b 11		 mov	 edx, DWORD PTR [ecx]
  00036	8b 02		 mov	 eax, DWORD PTR [edx]
  00038	8b 4d fc	 mov	 ecx, DWORD PTR _this$[ebp]
  0003b	8b 09		 mov	 ecx, DWORD PTR [ecx]
  0003d	03 48 04	 add	 ecx, DWORD PTR [eax+4]
  00040	8b f4		 mov	 esi, esp
  00042	ff 15 00 00 00
	00		 call	 DWORD PTR __imp_?rdbuf@?$basic_ios@_WU?$char_traits@_W@std@@@std@@QBEPAV?$basic_streambuf@_WU?$char_traits@_W@std@@@2@XZ
  00048	3b f4		 cmp	 esi, esp
  0004a	e8 00 00 00 00	 call	 __RTC_CheckEsp
  0004f	8b f4		 mov	 esi, esp
  00051	8b c8		 mov	 ecx, eax
  00053	ff 15 00 00 00
	00		 call	 DWORD PTR __imp_?_Unlock@?$basic_streambuf@_WU?$char_traits@_W@std@@@std@@QAEXXZ
  00059	3b f4		 cmp	 esi, esp
  0005b	e8 00 00 00 00	 call	 __RTC_CheckEsp
$L90048:

; 77   : 			}

  00060	5e		 pop	 esi
  00061	83 c4 04	 add	 esp, 4
  00064	3b ec		 cmp	 ebp, esp
  00066	e8 00 00 00 00	 call	 __RTC_CheckEsp
  0006b	8b e5		 mov	 esp, ebp
  0006d	5d		 pop	 ebp
  0006e	c3		 ret	 0
??1_Sentry_base@?$basic_ostream@_WU?$char_traits@_W@std@@@std@@QAE@XZ ENDP ; std::basic_ostream<wchar_t,std::char_traits<wchar_t> >::_Sentry_base::~_Sentry_base
_TEXT	ENDS
PUBLIC	??0CAtlWinModule@ATL@@QAE@XZ			; ATL::CAtlWinModule::CAtlWinModule
EXTRN	_atexit:NEAR
;	COMDAT CRT$XCU
; File d:\program files (x86)\microsoft visual studio .net 2003\vc7\atlmfc\include\atlbase.h
CRT$XCU	SEGMENT
_$S3	DD	FLAT:_$E1
; Function compile flags: /Odt /RTCsu
CRT$XCU	ENDS
;	COMDAT _$E1
text$yc	SEGMENT
_$E1	PROC NEAR					; COMDAT

; 2602 : __declspec(selectany) CAtlWinModule _AtlWinModule;

  00000	55		 push	 ebp
  00001	8b ec		 mov	 ebp, esp
  00003	b9 00 00 00 00	 mov	 ecx, OFFSET FLAT:?_AtlWinModule@ATL@@3VCAtlWinModule@1@A
  00008	e8 00 00 00 00	 call	 ??0CAtlWinModule@ATL@@QAE@XZ ; ATL::CAtlWinModule::CAtlWinModule
  0000d	68 00 00 00 00	 push	 OFFSET FLAT:_$E2
  00012	e8 00 00 00 00	 call	 _atexit
  00017	83 c4 04	 add	 esp, 4
  0001a	3b ec		 cmp	 ebp, esp
  0001c	e8 00 00 00 00	 call	 __RTC_CheckEsp
  00021	5d		 pop	 ebp
  00022	c3		 ret	 0
_$E1	ENDP
text$yc	ENDS
PUBLIC	??0_ATL_WIN_MODULE70@ATL@@QAE@XZ		; ATL::_ATL_WIN_MODULE70::_ATL_WIN_MODULE70
EXTRN	?AtlWinModuleInit@ATL@@YGJPAU_ATL_WIN_MODULE70@1@@Z:NEAR ; ATL::AtlWinModuleInit
; Function compile flags: /Odt /RTCsu
;	COMDAT ??0CAtlWinModule@ATL@@QAE@XZ
_TEXT	SEGMENT
_hr$ = -8						; size = 4
_this$ = -4						; size = 4
??0CAtlWinModule@ATL@@QAE@XZ PROC NEAR			; ATL::CAtlWinModule::CAtlWinModule, COMDAT
; _this$ = ecx

; 2573 : 	CAtlWinModule()

  00000	55		 push	 ebp
  00001	8b ec		 mov	 ebp, esp
  00003	83 ec 08	 sub	 esp, 8
  00006	c7 45 f8 cc cc
	cc cc		 mov	 DWORD PTR [ebp-8], -858993460 ; ccccccccH
  0000d	c7 45 fc cc cc
	cc cc		 mov	 DWORD PTR [ebp-4], -858993460 ; ccccccccH
  00014	89 4d fc	 mov	 DWORD PTR _this$[ebp], ecx
  00017	8b 4d fc	 mov	 ecx, DWORD PTR _this$[ebp]
  0001a	e8 00 00 00 00	 call	 ??0_ATL_WIN_MODULE70@ATL@@QAE@XZ

; 2574 : 	{
; 2575 : 		cbSize = sizeof(_ATL_WIN_MODULE);

  0001f	8b 45 fc	 mov	 eax, DWORD PTR _this$[ebp]
  00022	c7 00 2c 00 00
	00		 mov	 DWORD PTR [eax], 44	; 0000002cH

; 2576 : 		HRESULT hr = AtlWinModuleInit(this);

  00028	8b 4d fc	 mov	 ecx, DWORD PTR _this$[ebp]
  0002b	51		 push	 ecx
  0002c	e8 00 00 00 00	 call	 ?AtlWinModuleInit@ATL@@YGJPAU_ATL_WIN_MODULE70@1@@Z ; ATL::AtlWinModuleInit
  00031	89 45 f8	 mov	 DWORD PTR _hr$[ebp], eax

; 2577 : 		if (FAILED(hr))

  00034	83 7d f8 00	 cmp	 DWORD PTR _hr$[ebp], 0
  00038	7d 07		 jge	 SHORT $L77296

; 2578 : 			CAtlBaseModule::m_bInitFailed = true;

  0003a	c6 05 00 00 00
	00 01		 mov	 BYTE PTR ?m_bInitFailed@CAtlBaseModule@ATL@@2_NA, 1 ; ATL::CAtlBaseModule::m_bInitFailed
$L77296:

; 2579 : 	}

  00041	8b 45 fc	 mov	 eax, DWORD PTR _this$[ebp]
  00044	83 c4 08	 add	 esp, 8
  00047	3b ec		 cmp	 ebp, esp
  00049	e8 00 00 00 00	 call	 __RTC_CheckEsp
  0004e	8b e5		 mov	 esp, ebp
  00050	5d		 pop	 ebp
  00051	c3		 ret	 0
??0CAtlWinModule@ATL@@QAE@XZ ENDP			; ATL::CAtlWinModule::CAtlWinModule
_TEXT	ENDS
PUBLIC	??0CComCriticalSection@ATL@@QAE@XZ		; ATL::CComCriticalSection::CComCriticalSection
PUBLIC	??0?$CSimpleArray@GV?$CSimpleArrayEqualHelper@G@ATL@@@ATL@@QAE@XZ ; ATL::CSimpleArray<unsigned short,ATL::CSimpleArrayEqualHelper<unsigned short> >::CSimpleArray<unsigned short,ATL::CSimpleArrayEqualHelper<unsigned short> >
; Function compile flags: /Odt /RTCsu
;	COMDAT ??0_ATL_WIN_MODULE70@ATL@@QAE@XZ
_TEXT	SEGMENT
_this$ = -4						; size = 4
??0_ATL_WIN_MODULE70@ATL@@QAE@XZ PROC NEAR		; ATL::_ATL_WIN_MODULE70::_ATL_WIN_MODULE70, COMDAT
; _this$ = ecx
  00000	55		 push	 ebp
  00001	8b ec		 mov	 ebp, esp
  00003	51		 push	 ecx
  00004	c7 45 fc cc cc
	cc cc		 mov	 DWORD PTR [ebp-4], -858993460 ; ccccccccH
  0000b	89 4d fc	 mov	 DWORD PTR _this$[ebp], ecx
  0000e	8b 4d fc	 mov	 ecx, DWORD PTR _this$[ebp]
  00011	83 c1 04	 add	 ecx, 4
  00014	e8 00 00 00 00	 call	 ??0CComCriticalSection@ATL@@QAE@XZ ; ATL::CComCriticalSection::CComCriticalSection
  00019	8b 4d fc	 mov	 ecx, DWORD PTR _this$[ebp]
  0001c	83 c1 20	 add	 ecx, 32			; 00000020H
  0001f	e8 00 00 00 00	 call	 ??0?$CSimpleArray@GV?$CSimpleArrayEqualHelper@G@ATL@@@ATL@@QAE@XZ ; ATL::CSimpleArray<unsigned short,ATL::CSimpleArrayEqualHelper<unsigned short> >::CSimpleArray<unsigned short,ATL::CSimpleArrayEqualHelper<unsigned short> >
  00024	8b 45 fc	 mov	 eax, DWORD PTR _this$[ebp]
  00027	83 c4 04	 add	 esp, 4
  0002a	3b ec		 cmp	 ebp, esp
  0002c	e8 00 00 00 00	 call	 __RTC_CheckEsp
  00031	8b e5		 mov	 esp, ebp
  00033	5d		 pop	 ebp
  00034	c3		 ret	 0
??0_ATL_WIN_MODULE70@ATL@@QAE@XZ ENDP			; ATL::_ATL_WIN_MODULE70::_ATL_WIN_MODULE70
; Function compile flags: /Odt /RTCsu
; File d:\program files (x86)\microsoft visual studio .net 2003\vc7\atlmfc\include\atlcore.h
_TEXT	ENDS
;	COMDAT ??0CComCriticalSection@ATL@@QAE@XZ
_TEXT	SEGMENT
_this$ = -4						; size = 4
??0CComCriticalSection@ATL@@QAE@XZ PROC NEAR		; ATL::CComCriticalSection::CComCriticalSection, COMDAT
; _this$ = ecx

; 114  : 	CComCriticalSection() throw()

  00000	55		 push	 ebp
  00001	8b ec		 mov	 ebp, esp
  00003	51		 push	 ecx
  00004	c7 45 fc cc cc
	cc cc		 mov	 DWORD PTR [ebp-4], -858993460 ; ccccccccH
  0000b	89 4d fc	 mov	 DWORD PTR _this$[ebp], ecx

; 115  : 	{
; 116  : 		memset(&m_sec, 0, sizeof(CRITICAL_SECTION));

  0000e	6a 18		 push	 24			; 00000018H
  00010	6a 00		 push	 0
  00012	8b 45 fc	 mov	 eax, DWORD PTR _this$[ebp]
  00015	50		 push	 eax
  00016	e8 00 00 00 00	 call	 _memset
  0001b	83 c4 0c	 add	 esp, 12			; 0000000cH

; 117  : 	}

  0001e	8b 45 fc	 mov	 eax, DWORD PTR _this$[ebp]
  00021	83 c4 04	 add	 esp, 4
  00024	3b ec		 cmp	 ebp, esp
  00026	e8 00 00 00 00	 call	 __RTC_CheckEsp
  0002b	8b e5		 mov	 esp, ebp
  0002d	5d		 pop	 ebp
  0002e	c3		 ret	 0
??0CComCriticalSection@ATL@@QAE@XZ ENDP			; ATL::CComCriticalSection::CComCriticalSection
; Function compile flags: /Odt /RTCsu
; File d:\program files (x86)\microsoft visual studio .net 2003\vc7\atlmfc\include\atlsimpcoll.h
_TEXT	ENDS
;	COMDAT ??0?$CSimpleArray@GV?$CSimpleArrayEqualHelper@G@ATL@@@ATL@@QAE@XZ
_TEXT	SEGMENT
_this$ = -4						; size = 4
??0?$CSimpleArray@GV?$CSimpleArrayEqualHelper@G@ATL@@@ATL@@QAE@XZ PROC NEAR ; ATL::CSimpleArray<unsigned short,ATL::CSimpleArrayEqualHelper<unsigned short> >::CSimpleArray<unsigned short,ATL::CSimpleArrayEqualHelper<unsigned short> >, COMDAT
; _this$ = ecx

; 97   : 	{ }

  00000	55		 push	 ebp
  00001	8b ec		 mov	 ebp, esp
  00003	51		 push	 ecx
  00004	c7 45 fc cc cc
	cc cc		 mov	 DWORD PTR [ebp-4], -858993460 ; ccccccccH
  0000b	89 4d fc	 mov	 DWORD PTR _this$[ebp], ecx
  0000e	8b 45 fc	 mov	 eax, DWORD PTR _this$[ebp]
  00011	c7 00 00 00 00
	00		 mov	 DWORD PTR [eax], 0
  00017	8b 4d fc	 mov	 ecx, DWORD PTR _this$[ebp]
  0001a	c7 41 04 00 00
	00 00		 mov	 DWORD PTR [ecx+4], 0
  00021	8b 55 fc	 mov	 edx, DWORD PTR _this$[ebp]
  00024	c7 42 08 00 00
	00 00		 mov	 DWORD PTR [edx+8], 0
  0002b	8b 45 fc	 mov	 eax, DWORD PTR _this$[ebp]
  0002e	8b e5		 mov	 esp, ebp
  00030	5d		 pop	 ebp
  00031	c3		 ret	 0
??0?$CSimpleArray@GV?$CSimpleArrayEqualHelper@G@ATL@@@ATL@@QAE@XZ ENDP ; ATL::CSimpleArray<unsigned short,ATL::CSimpleArrayEqualHelper<unsigned short> >::CSimpleArray<unsigned short,ATL::CSimpleArrayEqualHelper<unsigned short> >
_TEXT	ENDS
PUBLIC	??1CAtlWinModule@ATL@@QAE@XZ			; ATL::CAtlWinModule::~CAtlWinModule
; Function compile flags: /Odt /RTCsu
;	COMDAT _$E2
text$yd	SEGMENT
_$E2	PROC NEAR					; COMDAT
  00000	55		 push	 ebp
  00001	8b ec		 mov	 ebp, esp
  00003	b9 00 00 00 00	 mov	 ecx, OFFSET FLAT:?_AtlWinModule@ATL@@3VCAtlWinModule@1@A
  00008	e8 00 00 00 00	 call	 ??1CAtlWinModule@ATL@@QAE@XZ ; ATL::CAtlWinModule::~CAtlWinModule
  0000d	3b ec		 cmp	 ebp, esp
  0000f	e8 00 00 00 00	 call	 __RTC_CheckEsp
  00014	5d		 pop	 ebp
  00015	c3		 ret	 0
_$E2	ENDP
text$yd	ENDS
PUBLIC	??1_ATL_WIN_MODULE70@ATL@@QAE@XZ		; ATL::_ATL_WIN_MODULE70::~_ATL_WIN_MODULE70
PUBLIC	?Term@CAtlWinModule@ATL@@QAEXXZ			; ATL::CAtlWinModule::Term
;	COMDAT xdata$x
; File d:\program files (x86)\microsoft visual studio .net 2003\vc7\atlmfc\include\atlbase.h
xdata$x	SEGMENT
$T93507	DD	0ffffffffH
	DD	FLAT:$L93503
$T93505	DD	019930520H
	DD	01H
	DD	FLAT:$T93507
	DD	2 DUP(00H)
	DD	2 DUP(00H)
; Function compile flags: /Odt /RTCsu
xdata$x	ENDS
;	COMDAT ??1CAtlWinModule@ATL@@QAE@XZ
_TEXT	SEGMENT
_this$ = -16						; size = 4
__$EHRec$ = -12						; size = 12
??1CAtlWinModule@ATL@@QAE@XZ PROC NEAR			; ATL::CAtlWinModule::~CAtlWinModule, COMDAT
; _this$ = ecx

; 2582 : 	{

  00000	55		 push	 ebp
  00001	8b ec		 mov	 ebp, esp
  00003	6a ff		 push	 -1
  00005	68 00 00 00 00	 push	 __ehhandler$??1CAtlWinModule@ATL@@QAE@XZ
  0000a	64 a1 00 00 00
	00		 mov	 eax, DWORD PTR fs:__except_list
  00010	50		 push	 eax
  00011	64 89 25 00 00
	00 00		 mov	 DWORD PTR fs:__except_list, esp
  00018	51		 push	 ecx
  00019	c7 45 f0 cc cc
	cc cc		 mov	 DWORD PTR [ebp-16], -858993460 ; ccccccccH
  00020	89 4d f0	 mov	 DWORD PTR _this$[ebp], ecx
  00023	c7 45 fc 00 00
	00 00		 mov	 DWORD PTR __$EHRec$[ebp+8], 0

; 2583 : 		Term();

  0002a	8b 4d f0	 mov	 ecx, DWORD PTR _this$[ebp]
  0002d	e8 00 00 00 00	 call	 ?Term@CAtlWinModule@ATL@@QAEXXZ ; ATL::CAtlWinModule::Term

; 2584 : 	}

  00032	c7 45 fc ff ff
	ff ff		 mov	 DWORD PTR __$EHRec$[ebp+8], -1
  00039	8b 4d f0	 mov	 ecx, DWORD PTR _this$[ebp]
  0003c	e8 00 00 00 00	 call	 ??1_ATL_WIN_MODULE70@ATL@@QAE@XZ
  00041	8b 4d f4	 mov	 ecx, DWORD PTR __$EHRec$[ebp]
  00044	64 89 0d 00 00
	00 00		 mov	 DWORD PTR fs:__except_list, ecx
  0004b	83 c4 10	 add	 esp, 16			; 00000010H
  0004e	3b ec		 cmp	 ebp, esp
  00050	e8 00 00 00 00	 call	 __RTC_CheckEsp
  00055	8b e5		 mov	 esp, ebp
  00057	5d		 pop	 ebp
  00058	c3		 ret	 0
_TEXT	ENDS
;	COMDAT text$x
text$x	SEGMENT
$L93503:
  00000	8b 4d f0	 mov	 ecx, DWORD PTR _this$[ebp]
  00003	e9 00 00 00 00	 jmp	 ??1_ATL_WIN_MODULE70@ATL@@QAE@XZ
__ehhandler$??1CAtlWinModule@ATL@@QAE@XZ:
  00008	b8 00 00 00 00	 mov	 eax, OFFSET FLAT:$T93505
  0000d	e9 00 00 00 00	 jmp	 ___CxxFrameHandler
text$x	ENDS
??1CAtlWinModule@ATL@@QAE@XZ ENDP			; ATL::CAtlWinModule::~CAtlWinModule
PUBLIC	?AtlWinModuleTerm@ATL@@YGJPAU_ATL_WIN_MODULE70@1@PAUHINSTANCE__@@@Z ; ATL::AtlWinModuleTerm
PUBLIC	?GetModuleInstance@CAtlBaseModule@ATL@@QAEPAUHINSTANCE__@@XZ ; ATL::CAtlBaseModule::GetModuleInstance
EXTRN	?_AtlBaseModule@ATL@@3VCAtlBaseModule@1@A:BYTE	; ATL::_AtlBaseModule
; Function compile flags: /Odt /RTCsu
;	COMDAT ?Term@CAtlWinModule@ATL@@QAEXXZ
_TEXT	SEGMENT
_this$ = -4						; size = 4
?Term@CAtlWinModule@ATL@@QAEXXZ PROC NEAR		; ATL::CAtlWinModule::Term, COMDAT
; _this$ = ecx

; 2587 : 	{

  00000	55		 push	 ebp
  00001	8b ec		 mov	 ebp, esp
  00003	51		 push	 ecx
  00004	c7 45 fc cc cc
	cc cc		 mov	 DWORD PTR [ebp-4], -858993460 ; ccccccccH
  0000b	89 4d fc	 mov	 DWORD PTR _this$[ebp], ecx

; 2588 : 		AtlWinModuleTerm(this, _AtlBaseModule.GetModuleInstance());

  0000e	b9 00 00 00 00	 mov	 ecx, OFFSET FLAT:?_AtlBaseModule@ATL@@3VCAtlBaseModule@1@A
  00013	e8 00 00 00 00	 call	 ?GetModuleInstance@CAtlBaseModule@ATL@@QAEPAUHINSTANCE__@@XZ ; ATL::CAtlBaseModule::GetModuleInstance
  00018	50		 push	 eax
  00019	8b 45 fc	 mov	 eax, DWORD PTR _this$[ebp]
  0001c	50		 push	 eax
  0001d	e8 00 00 00 00	 call	 ?AtlWinModuleTerm@ATL@@YGJPAU_ATL_WIN_MODULE70@1@PAUHINSTANCE__@@@Z ; ATL::AtlWinModuleTerm

; 2589 : 	}

  00022	83 c4 04	 add	 esp, 4
  00025	3b ec		 cmp	 ebp, esp
  00027	e8 00 00 00 00	 call	 __RTC_CheckEsp
  0002c	8b e5		 mov	 esp, ebp
  0002e	5d		 pop	 ebp
  0002f	c3		 ret	 0
?Term@CAtlWinModule@ATL@@QAEXXZ ENDP			; ATL::CAtlWinModule::Term
; Function compile flags: /Odt /RTCsu
; File d:\program files (x86)\microsoft visual studio .net 2003\vc7\atlmfc\include\atlcore.h
_TEXT	ENDS
;	COMDAT ?GetModuleInstance@CAtlBaseModule@ATL@@QAEPAUHINSTANCE__@@XZ
_TEXT	SEGMENT
_this$ = -4						; size = 4
?GetModuleInstance@CAtlBaseModule@ATL@@QAEPAUHINSTANCE__@@XZ PROC NEAR ; ATL::CAtlBaseModule::GetModuleInstance, COMDAT
; _this$ = ecx

; 206  : 	{

  00000	55		 push	 ebp
  00001	8b ec		 mov	 ebp, esp
  00003	51		 push	 ecx
  00004	c7 45 fc cc cc
	cc cc		 mov	 DWORD PTR [ebp-4], -858993460 ; ccccccccH
  0000b	89 4d fc	 mov	 DWORD PTR _this$[ebp], ecx

; 207  : 		return m_hInst;

  0000e	8b 45 fc	 mov	 eax, DWORD PTR _this$[ebp]
  00011	8b 40 04	 mov	 eax, DWORD PTR [eax+4]

; 208  : 	}

  00014	8b e5		 mov	 esp, ebp
  00016	5d		 pop	 ebp
  00017	c3		 ret	 0
?GetModuleInstance@CAtlBaseModule@ATL@@QAEPAUHINSTANCE__@@XZ ENDP ; ATL::CAtlBaseModule::GetModuleInstance
_TEXT	ENDS
PUBLIC	??1?$CSimpleArray@GV?$CSimpleArrayEqualHelper@G@ATL@@@ATL@@QAE@XZ ; ATL::CSimpleArray<unsigned short,ATL::CSimpleArrayEqualHelper<unsigned short> >::~CSimpleArray<unsigned short,ATL::CSimpleArrayEqualHelper<unsigned short> >
; Function compile flags: /Odt /RTCsu
;	COMDAT ??1_ATL_WIN_MODULE70@ATL@@QAE@XZ
_TEXT	SEGMENT
_this$ = -4						; size = 4
??1_ATL_WIN_MODULE70@ATL@@QAE@XZ PROC NEAR		; ATL::_ATL_WIN_MODULE70::~_ATL_WIN_MODULE70, COMDAT
; _this$ = ecx
  00000	55		 push	 ebp
  00001	8b ec		 mov	 ebp, esp
  00003	51		 push	 ecx
  00004	c7 45 fc cc cc
	cc cc		 mov	 DWORD PTR [ebp-4], -858993460 ; ccccccccH
  0000b	89 4d fc	 mov	 DWORD PTR _this$[ebp], ecx
  0000e	8b 4d fc	 mov	 ecx, DWORD PTR _this$[ebp]
  00011	83 c1 20	 add	 ecx, 32			; 00000020H
  00014	e8 00 00 00 00	 call	 ??1?$CSimpleArray@GV?$CSimpleArrayEqualHelper@G@ATL@@@ATL@@QAE@XZ ; ATL::CSimpleArray<unsigned short,ATL::CSimpleArrayEqualHelper<unsigned short> >::~CSimpleArray<unsigned short,ATL::CSimpleArrayEqualHelper<unsigned short> >
  00019	83 c4 04	 add	 esp, 4
  0001c	3b ec		 cmp	 ebp, esp
  0001e	e8 00 00 00 00	 call	 __RTC_CheckEsp
  00023	8b e5		 mov	 esp, ebp
  00025	5d		 pop	 ebp
  00026	c3		 ret	 0
??1_ATL_WIN_MODULE70@ATL@@QAE@XZ ENDP			; ATL::_ATL_WIN_MODULE70::~_ATL_WIN_MODULE70
_TEXT	ENDS
PUBLIC	?Term@CComCriticalSection@ATL@@QAEJXZ		; ATL::CComCriticalSection::Term
PUBLIC	?GetSize@?$CSimpleArray@GV?$CSimpleArrayEqualHelper@G@ATL@@@ATL@@QBEHXZ ; ATL::CSimpleArray<unsigned short,ATL::CSimpleArrayEqualHelper<unsigned short> >::GetSize
PUBLIC	?RemoveAll@?$CSimpleArray@GV?$CSimpleArrayEqualHelper@G@ATL@@@ATL@@QAEXXZ ; ATL::CSimpleArray<unsigned short,ATL::CSimpleArrayEqualHelper<unsigned short> >::RemoveAll
PUBLIC	??A?$CSimpleArray@GV?$CSimpleArrayEqualHelper@G@ATL@@@ATL@@QAEAAGH@Z ; ATL::CSimpleArray<unsigned short,ATL::CSimpleArrayEqualHelper<unsigned short> >::operator[]
EXTRN	__imp__UnregisterClassA@8:NEAR
; Function compile flags: /Odt /RTCsu
; File d:\program files (x86)\microsoft visual studio .net 2003\vc7\atlmfc\include\atlbase.h
;	COMDAT ?AtlWinModuleTerm@ATL@@YGJPAU_ATL_WIN_MODULE70@1@PAUHINSTANCE__@@@Z
_TEXT	SEGMENT
_i$80683 = -4						; size = 4
_pWinModule$ = 8					; size = 4
_hInst$ = 12						; size = 4
?AtlWinModuleTerm@ATL@@YGJPAU_ATL_WIN_MODULE70@1@PAUHINSTANCE__@@@Z PROC NEAR ; ATL::AtlWinModuleTerm, COMDAT

; 6215 : {

  00000	55		 push	 ebp
  00001	8b ec		 mov	 ebp, esp
  00003	51		 push	 ecx
  00004	56		 push	 esi
  00005	c7 45 fc cc cc
	cc cc		 mov	 DWORD PTR [ebp-4], -858993460 ; ccccccccH

; 6216 : 	if (pWinModule == NULL)

  0000c	83 7d 08 00	 cmp	 DWORD PTR _pWinModule$[ebp], 0
  00010	75 0a		 jne	 SHORT $L80676

; 6217 : 		return E_INVALIDARG;

  00012	b8 57 00 07 80	 mov	 eax, -2147024809	; 80070057H
  00017	e9 86 00 00 00	 jmp	 $L80675
$L80676:

; 6218 : 	if (pWinModule->cbSize == 0)

  0001c	8b 45 08	 mov	 eax, DWORD PTR _pWinModule$[ebp]
  0001f	83 38 00	 cmp	 DWORD PTR [eax], 0
  00022	75 04		 jne	 SHORT $L80678

; 6219 : 		return S_OK;

  00024	33 c0		 xor	 eax, eax
  00026	eb 7a		 jmp	 SHORT $L80675
$L80678:

; 6220 : 	if (pWinModule->cbSize != sizeof(_ATL_WIN_MODULE))

  00028	8b 4d 08	 mov	 ecx, DWORD PTR _pWinModule$[ebp]
  0002b	83 39 2c	 cmp	 DWORD PTR [ecx], 44	; 0000002cH
  0002e	74 07		 je	 SHORT $L80681

; 6221 : 		return E_INVALIDARG;

  00030	b8 57 00 07 80	 mov	 eax, -2147024809	; 80070057H
  00035	eb 6b		 jmp	 SHORT $L80675
$L80681:

; 6222 : 
; 6223 : 	for (int i = 0; i < pWinModule->m_rgWindowClassAtoms.GetSize(); i++)

  00037	c7 45 fc 00 00
	00 00		 mov	 DWORD PTR _i$80683[ebp], 0
  0003e	eb 09		 jmp	 SHORT $L80684
$L80685:
  00040	8b 55 fc	 mov	 edx, DWORD PTR _i$80683[ebp]
  00043	83 c2 01	 add	 edx, 1
  00046	89 55 fc	 mov	 DWORD PTR _i$80683[ebp], edx
$L80684:
  00049	8b 4d 08	 mov	 ecx, DWORD PTR _pWinModule$[ebp]
  0004c	83 c1 20	 add	 ecx, 32			; 00000020H
  0004f	e8 00 00 00 00	 call	 ?GetSize@?$CSimpleArray@GV?$CSimpleArrayEqualHelper@G@ATL@@@ATL@@QBEHXZ ; ATL::CSimpleArray<unsigned short,ATL::CSimpleArrayEqualHelper<unsigned short> >::GetSize
  00054	39 45 fc	 cmp	 DWORD PTR _i$80683[ebp], eax
  00057	7d 28		 jge	 SHORT $L80686

; 6224 : 		UnregisterClass((LPCTSTR)pWinModule->m_rgWindowClassAtoms[i], hInst);

  00059	8b f4		 mov	 esi, esp
  0005b	8b 45 0c	 mov	 eax, DWORD PTR _hInst$[ebp]
  0005e	50		 push	 eax
  0005f	8b 4d fc	 mov	 ecx, DWORD PTR _i$80683[ebp]
  00062	51		 push	 ecx
  00063	8b 4d 08	 mov	 ecx, DWORD PTR _pWinModule$[ebp]
  00066	83 c1 20	 add	 ecx, 32			; 00000020H
  00069	e8 00 00 00 00	 call	 ??A?$CSimpleArray@GV?$CSimpleArrayEqualHelper@G@ATL@@@ATL@@QAEAAGH@Z ; ATL::CSimpleArray<unsigned short,ATL::CSimpleArrayEqualHelper<unsigned short> >::operator[]
  0006e	0f b7 10	 movzx	 edx, WORD PTR [eax]
  00071	52		 push	 edx
  00072	ff 15 00 00 00
	00		 call	 DWORD PTR __imp__UnregisterClassA@8
  00078	3b f4		 cmp	 esi, esp
  0007a	e8 00 00 00 00	 call	 __RTC_CheckEsp
  0007f	eb bf		 jmp	 SHORT $L80685
$L80686:

; 6225 : 	pWinModule->m_rgWindowClassAtoms.RemoveAll();

  00081	8b 4d 08	 mov	 ecx, DWORD PTR _pWinModule$[ebp]
  00084	83 c1 20	 add	 ecx, 32			; 00000020H
  00087	e8 00 00 00 00	 call	 ?RemoveAll@?$CSimpleArray@GV?$CSimpleArrayEqualHelper@G@ATL@@@ATL@@QAEXXZ ; ATL::CSimpleArray<unsigned short,ATL::CSimpleArrayEqualHelper<unsigned short> >::RemoveAll

; 6226 : 	pWinModule->m_csWindowCreate.Term();

  0008c	8b 4d 08	 mov	 ecx, DWORD PTR _pWinModule$[ebp]
  0008f	83 c1 04	 add	 ecx, 4
  00092	e8 00 00 00 00	 call	 ?Term@CComCriticalSection@ATL@@QAEJXZ ; ATL::CComCriticalSection::Term

; 6227 : 	pWinModule->cbSize = 0;

  00097	8b 45 08	 mov	 eax, DWORD PTR _pWinModule$[ebp]
  0009a	c7 00 00 00 00
	00		 mov	 DWORD PTR [eax], 0

; 6228 : 	return S_OK;

  000a0	33 c0		 xor	 eax, eax
$L80675:

; 6229 : }

  000a2	5e		 pop	 esi
  000a3	83 c4 04	 add	 esp, 4
  000a6	3b ec		 cmp	 ebp, esp
  000a8	e8 00 00 00 00	 call	 __RTC_CheckEsp
  000ad	8b e5		 mov	 esp, ebp
  000af	5d		 pop	 ebp
  000b0	c2 08 00	 ret	 8
?AtlWinModuleTerm@ATL@@YGJPAU_ATL_WIN_MODULE70@1@PAUHINSTANCE__@@@Z ENDP ; ATL::AtlWinModuleTerm
_TEXT	ENDS
EXTRN	__imp__DeleteCriticalSection@4:NEAR
; Function compile flags: /Odt /RTCsu
; File d:\program files (x86)\microsoft visual studio .net 2003\vc7\atlmfc\include\atlcore.h
;	COMDAT ?Term@CComCriticalSection@ATL@@QAEJXZ
_TEXT	SEGMENT
_this$ = -4						; size = 4
?Term@CComCriticalSection@ATL@@QAEJXZ PROC NEAR		; ATL::CComCriticalSection::Term, COMDAT
; _this$ = ecx

; 147  : 	{

  00000	55		 push	 ebp
  00001	8b ec		 mov	 ebp, esp
  00003	51		 push	 ecx
  00004	56		 push	 esi
  00005	c7 45 fc cc cc
	cc cc		 mov	 DWORD PTR [ebp-4], -858993460 ; ccccccccH
  0000c	89 4d fc	 mov	 DWORD PTR _this$[ebp], ecx

; 148  : 		DeleteCriticalSection(&m_sec);

  0000f	8b f4		 mov	 esi, esp
  00011	8b 45 fc	 mov	 eax, DWORD PTR _this$[ebp]
  00014	50		 push	 eax
  00015	ff 15 00 00 00
	00		 call	 DWORD PTR __imp__DeleteCriticalSection@4
  0001b	3b f4		 cmp	 esi, esp
  0001d	e8 00 00 00 00	 call	 __RTC_CheckEsp

; 149  : 		return S_OK;

  00022	33 c0		 xor	 eax, eax

; 150  : 	}	

  00024	5e		 pop	 esi
  00025	83 c4 04	 add	 esp, 4
  00028	3b ec		 cmp	 ebp, esp
  0002a	e8 00 00 00 00	 call	 __RTC_CheckEsp
  0002f	8b e5		 mov	 esp, ebp
  00031	5d		 pop	 ebp
  00032	c3		 ret	 0
?Term@CComCriticalSection@ATL@@QAEJXZ ENDP		; ATL::CComCriticalSection::Term
; Function compile flags: /Odt /RTCsu
; File d:\program files (x86)\microsoft visual studio .net 2003\vc7\atlmfc\include\atlsimpcoll.h
_TEXT	ENDS
;	COMDAT ??1?$CSimpleArray@GV?$CSimpleArrayEqualHelper@G@ATL@@@ATL@@QAE@XZ
_TEXT	SEGMENT
_this$ = -4						; size = 4
??1?$CSimpleArray@GV?$CSimpleArrayEqualHelper@G@ATL@@@ATL@@QAE@XZ PROC NEAR ; ATL::CSimpleArray<unsigned short,ATL::CSimpleArrayEqualHelper<unsigned short> >::~CSimpleArray<unsigned short,ATL::CSimpleArrayEqualHelper<unsigned short> >, COMDAT
; _this$ = ecx

; 100  : 	{

  00000	55		 push	 ebp
  00001	8b ec		 mov	 ebp, esp
  00003	51		 push	 ecx
  00004	c7 45 fc cc cc
	cc cc		 mov	 DWORD PTR [ebp-4], -858993460 ; ccccccccH
  0000b	89 4d fc	 mov	 DWORD PTR _this$[ebp], ecx

; 101  : 		RemoveAll();

  0000e	8b 4d fc	 mov	 ecx, DWORD PTR _this$[ebp]
  00011	e8 00 00 00 00	 call	 ?RemoveAll@?$CSimpleArray@GV?$CSimpleArrayEqualHelper@G@ATL@@@ATL@@QAEXXZ ; ATL::CSimpleArray<unsigned short,ATL::CSimpleArrayEqualHelper<unsigned short> >::RemoveAll

; 102  : 	}

  00016	83 c4 04	 add	 esp, 4
  00019	3b ec		 cmp	 ebp, esp
  0001b	e8 00 00 00 00	 call	 __RTC_CheckEsp
  00020	8b e5		 mov	 esp, ebp
  00022	5d		 pop	 ebp
  00023	c3		 ret	 0
??1?$CSimpleArray@GV?$CSimpleArrayEqualHelper@G@ATL@@@ATL@@QAE@XZ ENDP ; ATL::CSimpleArray<unsigned short,ATL::CSimpleArrayEqualHelper<unsigned short> >::~CSimpleArray<unsigned short,ATL::CSimpleArrayEqualHelper<unsigned short> >
; Function compile flags: /Odt /RTCsu
_TEXT	ENDS
;	COMDAT ?GetSize@?$CSimpleArray@GV?$CSimpleArrayEqualHelper@G@ATL@@@ATL@@QBEHXZ
_TEXT	SEGMENT
_this$ = -4						; size = 4
?GetSize@?$CSimpleArray@GV?$CSimpleArrayEqualHelper@G@ATL@@@ATL@@QBEHXZ PROC NEAR ; ATL::CSimpleArray<unsigned short,ATL::CSimpleArrayEqualHelper<unsigned short> >::GetSize, COMDAT
; _this$ = ecx

; 135  : 	{

  00000	55		 push	 ebp
  00001	8b ec		 mov	 ebp, esp
  00003	51		 push	 ecx
  00004	c7 45 fc cc cc
	cc cc		 mov	 DWORD PTR [ebp-4], -858993460 ; ccccccccH
  0000b	89 4d fc	 mov	 DWORD PTR _this$[ebp], ecx

; 136  : 		return m_nSize;

  0000e	8b 45 fc	 mov	 eax, DWORD PTR _this$[ebp]
  00011	8b 40 04	 mov	 eax, DWORD PTR [eax+4]

; 137  : 	}

  00014	8b e5		 mov	 esp, ebp
  00016	5d		 pop	 ebp
  00017	c3		 ret	 0
?GetSize@?$CSimpleArray@GV?$CSimpleArrayEqualHelper@G@ATL@@@ATL@@QBEHXZ ENDP ; ATL::CSimpleArray<unsigned short,ATL::CSimpleArrayEqualHelper<unsigned short> >::GetSize
; Function compile flags: /Odt /RTCsu
_TEXT	ENDS
;	COMDAT ?RemoveAll@?$CSimpleArray@GV?$CSimpleArrayEqualHelper@G@ATL@@@ATL@@QAEXXZ
_TEXT	SEGMENT
_i$88286 = -8						; size = 4
_this$ = -4						; size = 4
?RemoveAll@?$CSimpleArray@GV?$CSimpleArrayEqualHelper@G@ATL@@@ATL@@QAEXXZ PROC NEAR ; ATL::CSimpleArray<unsigned short,ATL::CSimpleArrayEqualHelper<unsigned short> >::RemoveAll, COMDAT
; _this$ = ecx

; 173  : 	{

  00000	55		 push	 ebp
  00001	8b ec		 mov	 ebp, esp
  00003	83 ec 08	 sub	 esp, 8
  00006	56		 push	 esi
  00007	c7 45 f8 cc cc
	cc cc		 mov	 DWORD PTR [ebp-8], -858993460 ; ccccccccH
  0000e	c7 45 fc cc cc
	cc cc		 mov	 DWORD PTR [ebp-4], -858993460 ; ccccccccH
  00015	89 4d fc	 mov	 DWORD PTR _this$[ebp], ecx

; 174  : 		if(m_aT != NULL)

  00018	8b 45 fc	 mov	 eax, DWORD PTR _this$[ebp]
  0001b	83 38 00	 cmp	 DWORD PTR [eax], 0
  0001e	74 40		 je	 SHORT $L88285

; 175  : 		{
; 176  : 			for(int i = 0; i < m_nSize; i++)

  00020	c7 45 f8 00 00
	00 00		 mov	 DWORD PTR _i$88286[ebp], 0
  00027	eb 09		 jmp	 SHORT $L88287
$L88288:
  00029	8b 4d f8	 mov	 ecx, DWORD PTR _i$88286[ebp]
  0002c	83 c1 01	 add	 ecx, 1
  0002f	89 4d f8	 mov	 DWORD PTR _i$88286[ebp], ecx
$L88287:
  00032	8b 55 fc	 mov	 edx, DWORD PTR _this$[ebp]
  00035	8b 45 f8	 mov	 eax, DWORD PTR _i$88286[ebp]
  00038	3b 42 04	 cmp	 eax, DWORD PTR [edx+4]
  0003b	7d 02		 jge	 SHORT $L88289

; 177  : 				m_aT[i].~T();

  0003d	eb ea		 jmp	 SHORT $L88288
$L88289:

; 178  : 			free(m_aT);

  0003f	8b f4		 mov	 esi, esp
  00041	8b 4d fc	 mov	 ecx, DWORD PTR _this$[ebp]
  00044	8b 11		 mov	 edx, DWORD PTR [ecx]
  00046	52		 push	 edx
  00047	ff 15 00 00 00
	00		 call	 DWORD PTR __imp__free
  0004d	83 c4 04	 add	 esp, 4
  00050	3b f4		 cmp	 esi, esp
  00052	e8 00 00 00 00	 call	 __RTC_CheckEsp

; 179  : 			m_aT = NULL;

  00057	8b 45 fc	 mov	 eax, DWORD PTR _this$[ebp]
  0005a	c7 00 00 00 00
	00		 mov	 DWORD PTR [eax], 0
$L88285:

; 180  : 		}
; 181  : 		m_nSize = 0;

  00060	8b 4d fc	 mov	 ecx, DWORD PTR _this$[ebp]
  00063	c7 41 04 00 00
	00 00		 mov	 DWORD PTR [ecx+4], 0

; 182  : 		m_nAllocSize = 0;

  0006a	8b 55 fc	 mov	 edx, DWORD PTR _this$[ebp]
  0006d	c7 42 08 00 00
	00 00		 mov	 DWORD PTR [edx+8], 0

; 183  : 	}

  00074	5e		 pop	 esi
  00075	83 c4 08	 add	 esp, 8
  00078	3b ec		 cmp	 ebp, esp
  0007a	e8 00 00 00 00	 call	 __RTC_CheckEsp
  0007f	8b e5		 mov	 esp, ebp
  00081	5d		 pop	 ebp
  00082	c3		 ret	 0
?RemoveAll@?$CSimpleArray@GV?$CSimpleArrayEqualHelper@G@ATL@@@ATL@@QAEXXZ ENDP ; ATL::CSimpleArray<unsigned short,ATL::CSimpleArrayEqualHelper<unsigned short> >::RemoveAll
_TEXT	ENDS
PUBLIC	??_C@_0CA@CLKCNBMB@nIndex?5?$DO?$DN?50?5?$CG?$CG?5nIndex?5?$DM?5m_nSize?$AA@ ; `string'
PUBLIC	??_C@_0FK@CHAMEKEI@D?3?2Program?5Files?5?$CIx86?$CJ?2Microsoft@ ; `string'
PUBLIC	?_AtlRaiseException@ATL@@YAXKK@Z		; ATL::_AtlRaiseException
;	COMDAT ??_C@_0CA@CLKCNBMB@nIndex?5?$DO?$DN?50?5?$CG?$CG?5nIndex?5?$DM?5m_nSize?$AA@
CONST	SEGMENT
??_C@_0CA@CLKCNBMB@nIndex?5?$DO?$DN?50?5?$CG?$CG?5nIndex?5?$DM?5m_nSize?$AA@ DB 'n'
	DB	'Index >= 0 && nIndex < m_nSize', 00H	; `string'
CONST	ENDS
;	COMDAT ??_C@_0FK@CHAMEKEI@D?3?2Program?5Files?5?$CIx86?$CJ?2Microsoft@
CONST	SEGMENT
??_C@_0FK@CHAMEKEI@D?3?2Program?5Files?5?$CIx86?$CJ?2Microsoft@ DB 'D:\Pr'
	DB	'ogram Files (x86)\Microsoft Visual Studio .NET 2003\Vc7\atlmf'
	DB	'c\include\atlsimpcoll.h', 00H		; `string'
; Function compile flags: /Odt /RTCsu
CONST	ENDS
;	COMDAT ??A?$CSimpleArray@GV?$CSimpleArrayEqualHelper@G@ATL@@@ATL@@QAEAAGH@Z
_TEXT	SEGMENT
_this$ = -4						; size = 4
_nIndex$ = 8						; size = 4
??A?$CSimpleArray@GV?$CSimpleArrayEqualHelper@G@ATL@@@ATL@@QAEAAGH@Z PROC NEAR ; ATL::CSimpleArray<unsigned short,ATL::CSimpleArrayEqualHelper<unsigned short> >::operator[], COMDAT
; _this$ = ecx

; 194  : 	{

  00000	55		 push	 ebp
  00001	8b ec		 mov	 ebp, esp
  00003	51		 push	 ecx
  00004	56		 push	 esi
  00005	c7 45 fc cc cc
	cc cc		 mov	 DWORD PTR [ebp-4], -858993460 ; ccccccccH
  0000c	89 4d fc	 mov	 DWORD PTR _this$[ebp], ecx

; 195  : 		ATLASSERT(nIndex >= 0 && nIndex < m_nSize);

  0000f	83 7d 08 00	 cmp	 DWORD PTR _nIndex$[ebp], 0
  00013	7c 0b		 jl	 SHORT $L93520
  00015	8b 45 fc	 mov	 eax, DWORD PTR _this$[ebp]
  00018	8b 4d 08	 mov	 ecx, DWORD PTR _nIndex$[ebp]
  0001b	3b 48 04	 cmp	 ecx, DWORD PTR [eax+4]
  0001e	7c 2b		 jl	 SHORT $L93521
$L93520:
  00020	8b f4		 mov	 esi, esp
  00022	68 00 00 00 00	 push	 OFFSET FLAT:??_C@_0CA@CLKCNBMB@nIndex?5?$DO?$DN?50?5?$CG?$CG?5nIndex?5?$DM?5m_nSize?$AA@
  00027	6a 00		 push	 0
  00029	68 c3 00 00 00	 push	 195			; 000000c3H
  0002e	68 00 00 00 00	 push	 OFFSET FLAT:??_C@_0FK@CHAMEKEI@D?3?2Program?5Files?5?$CIx86?$CJ?2Microsoft@
  00033	6a 02		 push	 2
  00035	ff 15 00 00 00
	00		 call	 DWORD PTR __imp___CrtDbgReport
  0003b	83 c4 14	 add	 esp, 20			; 00000014H
  0003e	3b f4		 cmp	 esi, esp
  00040	e8 00 00 00 00	 call	 __RTC_CheckEsp
  00045	83 f8 01	 cmp	 eax, 1
  00048	75 01		 jne	 SHORT $L93521
  0004a	cc		 int	 3
$L93521:

; 196  : 		if(nIndex < 0 || nIndex >= m_nSize)

  0004b	83 7d 08 00	 cmp	 DWORD PTR _nIndex$[ebp], 0
  0004f	7c 0b		 jl	 SHORT $L88296
  00051	8b 45 fc	 mov	 eax, DWORD PTR _this$[ebp]
  00054	8b 4d 08	 mov	 ecx, DWORD PTR _nIndex$[ebp]
  00057	3b 48 04	 cmp	 ecx, DWORD PTR [eax+4]
  0005a	7c 0c		 jl	 SHORT $L88295
$L88296:

; 197  : 		{
; 198  : 			_AtlRaiseException(EXCEPTION_ARRAY_BOUNDS_EXCEEDED);					

  0005c	6a 01		 push	 1
  0005e	68 8c 00 00 c0	 push	 -1073741684		; c000008cH
  00063	e8 00 00 00 00	 call	 ?_AtlRaiseException@ATL@@YAXKK@Z ; ATL::_AtlRaiseException
$L88295:

; 199  : 		}
; 200  : 		return m_aT[nIndex];

  00068	8b 55 fc	 mov	 edx, DWORD PTR _this$[ebp]
  0006b	8b 02		 mov	 eax, DWORD PTR [edx]
  0006d	8b 4d 08	 mov	 ecx, DWORD PTR _nIndex$[ebp]
  00070	8d 04 48	 lea	 eax, DWORD PTR [eax+ecx*2]
$L93519:

; 201  : 	}

  00073	5e		 pop	 esi
  00074	83 c4 04	 add	 esp, 4
  00077	3b ec		 cmp	 ebp, esp
  00079	e8 00 00 00 00	 call	 __RTC_CheckEsp
  0007e	8b e5		 mov	 esp, ebp
  00080	5d		 pop	 ebp
  00081	c2 04 00	 ret	 4
??A?$CSimpleArray@GV?$CSimpleArrayEqualHelper@G@ATL@@@ATL@@QAEAAGH@Z ENDP ; ATL::CSimpleArray<unsigned short,ATL::CSimpleArrayEqualHelper<unsigned short> >::operator[]
_TEXT	ENDS
EXTRN	__imp__RaiseException@16:NEAR
; Function compile flags: /Odt /RTCsu
; File d:\program files (x86)\microsoft visual studio .net 2003\vc7\atlmfc\include\atlexcept.h
;	COMDAT ?_AtlRaiseException@ATL@@YAXKK@Z
_TEXT	SEGMENT
_dwExceptionCode$ = 8					; size = 4
_dwExceptionFlags$ = 12					; size = 4
?_AtlRaiseException@ATL@@YAXKK@Z PROC NEAR		; ATL::_AtlRaiseException, COMDAT

; 26   : {

  00000	55		 push	 ebp
  00001	8b ec		 mov	 ebp, esp
  00003	56		 push	 esi

; 27   : 	RaiseException( dwExceptionCode, dwExceptionFlags, 0, NULL );

  00004	8b f4		 mov	 esi, esp
  00006	6a 00		 push	 0
  00008	6a 00		 push	 0
  0000a	8b 45 0c	 mov	 eax, DWORD PTR _dwExceptionFlags$[ebp]
  0000d	50		 push	 eax
  0000e	8b 4d 08	 mov	 ecx, DWORD PTR _dwExceptionCode$[ebp]
  00011	51		 push	 ecx
  00012	ff 15 00 00 00
	00		 call	 DWORD PTR __imp__RaiseException@16
  00018	3b f4		 cmp	 esi, esp
  0001a	e8 00 00 00 00	 call	 __RTC_CheckEsp

; 28   : }

  0001f	5e		 pop	 esi
  00020	3b ec		 cmp	 ebp, esp
  00022	e8 00 00 00 00	 call	 __RTC_CheckEsp
  00027	5d		 pop	 ebp
  00028	c3		 ret	 0
?_AtlRaiseException@ATL@@YAXKK@Z ENDP			; ATL::_AtlRaiseException
_TEXT	ENDS
PUBLIC	?_AtlWinModule@ATL@@3VCAtlWinModule@1@A		; ATL::_AtlWinModule
;	COMDAT ?_AtlWinModule@ATL@@3VCAtlWinModule@1@A
_BSS	SEGMENT
?_AtlWinModule@ATL@@3VCAtlWinModule@1@A DB 02cH DUP (?)	; ATL::_AtlWinModule
_BSS	ENDS
END
