; Listing generated by Microsoft (R) Optimizing Compiler Version 13.10.3077 

	TITLE	.\src\module\httpDown\LocalGameData.cpp
	.386P
include listing.inc
if @Version gt 510
.model FLAT
else
_TEXT	SEGMENT PARA USE32 PUBLIC 'CODE'
_TEXT	ENDS
_DATA	SEGMENT DWORD USE32 PUBLIC 'DATA'
_DATA	ENDS
CONST	SEGMENT DWORD USE32 PUBLIC 'CONST'
CONST	ENDS
_BSS	SEGMENT DWORD USE32 PUBLIC 'BSS'
_BSS	ENDS
$$SYMBOLS	SEGMENT BYTE USE32 'DEBSYM'
$$SYMBOLS	ENDS
_TLS	SEGMENT DWORD USE32 PUBLIC 'TLS'
_TLS	ENDS
;	COMDAT ??_C@_0P@MDHCGOCC@m_pMemMgr?5?$DN?$DN?50?$AA@
CONST	SEGMENT DWORD USE32 PUBLIC 'CONST'
CONST	ENDS
;	COMDAT ??_C@_0FF@PEBLHPJJ@D?3?2Program?5Files?5?$CIx86?$CJ?2Microsoft@
CONST	SEGMENT DWORD USE32 PUBLIC 'CONST'
CONST	ENDS
;	COMDAT ??_C@_0BK@KICONMKH@pData?9?$DOpStringMgr?5?$DN?$DN?5this?$AA@
CONST	SEGMENT DWORD USE32 PUBLIC 'CONST'
CONST	ENDS
;	COMDAT ??_C@_0CG@HPMMCKHL@?$CI?$CIWORD?$CJ?$CI?$CIDWORD_PTR?$CJ?$CIpsz?$CJ?5?$DO?$DO?516?$CJ?$CJ@
CONST	SEGMENT DWORD USE32 PUBLIC 'CONST'
CONST	ENDS
;	COMDAT ??_C@_04JAADICNI@?5?$DN?1?$FL?$AA@
CONST	SEGMENT DWORD USE32 PUBLIC 'CONST'
CONST	ENDS
;	COMDAT ??_C@_0L@GJIJNDEK@ISO?98859?91?$AA@
CONST	SEGMENT DWORD USE32 PUBLIC 'CONST'
CONST	ENDS
;	COMDAT ??_C@_01JLIPDDHJ@?3?$AA@
CONST	SEGMENT DWORD USE32 PUBLIC 'CONST'
CONST	ENDS
;	COMDAT ??_C@_0EN@IBFBLEEG@D?3?2Program?5Files?5?$CIx86?$CJ?2Microsoft@
CONST	SEGMENT DWORD USE32 PUBLIC 'CONST'
CONST	ENDS
;	COMDAT ??_C@_0BD@OLBABOEK@vector?$DMT?$DO?5too?5long?$AA@
CONST	SEGMENT DWORD USE32 PUBLIC 'CONST'
CONST	ENDS
;	COMDAT ??_C@_0FH@BMBEKJNI@D?3?2Program?5Files?5?$CIx86?$CJ?2Microsoft@
CONST	SEGMENT DWORD USE32 PUBLIC 'CONST'
CONST	ENDS
rdata$r	SEGMENT DWORD USE32 PUBLIC 'CONST'
rdata$r	ENDS
xdata$x	SEGMENT DWORD USE32 PUBLIC 'CONST'
xdata$x	ENDS
text$AFX_COL1	SEGMENT PARA USE32 PUBLIC ''
text$AFX_COL1	ENDS
text$yc	SEGMENT PARA USE32 PUBLIC 'CODE'
text$yc	ENDS
CRT$XCA	SEGMENT DWORD USE32 PUBLIC 'DATA'
CRT$XCA	ENDS
CRT$XCU	SEGMENT DWORD USE32 PUBLIC 'DATA'
CRT$XCU	ENDS
CRT$XCL	SEGMENT DWORD USE32 PUBLIC 'DATA'
CRT$XCL	ENDS
CRT$XCC	SEGMENT DWORD USE32 PUBLIC 'DATA'
CRT$XCC	ENDS
CRT$XCZ	SEGMENT DWORD USE32 PUBLIC 'DATA'
CRT$XCZ	ENDS
text$yd	SEGMENT PARA USE32 PUBLIC 'CODE'
text$yd	ENDS
ATL$__m	SEGMENT DWORD USE32 PUBLIC ''
ATL$__m	ENDS
ATL$__z	SEGMENT DWORD USE32 PUBLIC ''
ATL$__z	ENDS
ATL$__a	SEGMENT DWORD USE32 PUBLIC ''
ATL$__a	ENDS
;	COMDAT ??1IData@@MAE@XZ
_TEXT	SEGMENT PARA USE32 PUBLIC 'CODE'
_TEXT	ENDS
;	COMDAT ?DataAppStart@IData@@UAEXXZ
_TEXT	SEGMENT PARA USE32 PUBLIC 'CODE'
_TEXT	ENDS
;	COMDAT ?DataAppExit@IData@@UAEXXZ
_TEXT	SEGMENT PARA USE32 PUBLIC 'CODE'
_TEXT	ENDS
;	COMDAT ??_GIData@@MAEPAXI@Z
_TEXT	SEGMENT PARA USE32 PUBLIC 'CODE'
_TEXT	ENDS
;	COMDAT ??0OneLocalGame@@QAE@XZ
_TEXT	SEGMENT PARA USE32 PUBLIC 'CODE'
_TEXT	ENDS
;	COMDAT ?clear@OneLocalGame@@QAEXXZ
_TEXT	SEGMENT PARA USE32 PUBLIC 'CODE'
_TEXT	ENDS
;	COMDAT ??1CAtlStringMgr@ATL@@UAE@XZ
_TEXT	SEGMENT PARA USE32 PUBLIC 'CODE'
_TEXT	ENDS
;	COMDAT ?Allocate@CAtlStringMgr@ATL@@UAEPAUCStringData@2@HH@Z
_TEXT	SEGMENT PARA USE32 PUBLIC 'CODE'
_TEXT	ENDS
;	COMDAT ?Free@CAtlStringMgr@ATL@@UAEXPAUCStringData@2@@Z
_TEXT	SEGMENT PARA USE32 PUBLIC 'CODE'
_TEXT	ENDS
;	COMDAT ?Reallocate@CAtlStringMgr@ATL@@UAEPAUCStringData@2@PAU32@HH@Z
_TEXT	SEGMENT PARA USE32 PUBLIC 'CODE'
_TEXT	ENDS
;	COMDAT ?GetNilString@CAtlStringMgr@ATL@@UAEPAUCStringData@2@XZ
_TEXT	SEGMENT PARA USE32 PUBLIC 'CODE'
_TEXT	ENDS
;	COMDAT ?Clone@CAtlStringMgr@ATL@@UAEPAUIAtlStringMgr@2@XZ
_TEXT	SEGMENT PARA USE32 PUBLIC 'CODE'
_TEXT	ENDS
;	COMDAT ??_GCAtlStringMgr@ATL@@UAEPAXI@Z
_TEXT	SEGMENT PARA USE32 PUBLIC 'CODE'
_TEXT	ENDS
;	COMDAT ?CompareStringW@?$ChTraitsOS@_W@ATL@@KGHKKPB_WH0H@Z
_TEXT	SEGMENT PARA USE32 PUBLIC 'CODE'
_TEXT	ENDS
;	COMDAT ?GetStringTypeExW@?$ChTraitsOS@_W@ATL@@KGHKKPB_WHPAG@Z
_TEXT	SEGMENT PARA USE32 PUBLIC 'CODE'
_TEXT	ENDS
;	COMDAT ?lstrcmpiW@?$ChTraitsOS@_W@ATL@@KGHPB_W0@Z
_TEXT	SEGMENT PARA USE32 PUBLIC 'CODE'
_TEXT	ENDS
;	COMDAT ?CharLowerW@?$ChTraitsOS@_W@ATL@@KGPA_WPA_W@Z
_TEXT	SEGMENT PARA USE32 PUBLIC 'CODE'
_TEXT	ENDS
;	COMDAT ?CharUpperW@?$ChTraitsOS@_W@ATL@@KGPA_WPA_W@Z
_TEXT	SEGMENT PARA USE32 PUBLIC 'CODE'
_TEXT	ENDS
;	COMDAT ?strchr@?$ChTraitsOS@_W@ATL@@SAPB_WPB_W_W@Z
_TEXT	SEGMENT PARA USE32 PUBLIC 'CODE'
_TEXT	ENDS
;	COMDAT ?strrchr@?$ChTraitsOS@_W@ATL@@SAPB_WPB_W_W@Z
_TEXT	SEGMENT PARA USE32 PUBLIC 'CODE'
_TEXT	ENDS
;	COMDAT ?_strrev@?$ChTraitsOS@_W@ATL@@SAPA_WPA_W@Z
_TEXT	SEGMENT PARA USE32 PUBLIC 'CODE'
_TEXT	ENDS
;	COMDAT ?strstr@?$ChTraitsOS@_W@ATL@@SAPB_WPB_W0@Z
_TEXT	SEGMENT PARA USE32 PUBLIC 'CODE'
_TEXT	ENDS
;	COMDAT ?strspn@?$ChTraitsOS@_W@ATL@@SAHPB_W0@Z
_TEXT	SEGMENT PARA USE32 PUBLIC 'CODE'
_TEXT	ENDS
;	COMDAT ?strcspn@?$ChTraitsOS@_W@ATL@@SAHPB_W0@Z
_TEXT	SEGMENT PARA USE32 PUBLIC 'CODE'
_TEXT	ENDS
;	COMDAT ?strpbrk@?$ChTraitsOS@_W@ATL@@SAPB_WPB_W0@Z
_TEXT	SEGMENT PARA USE32 PUBLIC 'CODE'
_TEXT	ENDS
;	COMDAT ?StringFindString@?$ChTraitsOS@_W@ATL@@SAPB_WPB_W0@Z
_TEXT	SEGMENT PARA USE32 PUBLIC 'CODE'
_TEXT	ENDS
;	COMDAT ??0CMarkup@@QAE@XZ
_TEXT	SEGMENT PARA USE32 PUBLIC 'CODE'
_TEXT	ENDS
;	COMDAT ??1CMarkup@@UAE@XZ
_TEXT	SEGMENT PARA USE32 PUBLIC 'CODE'
_TEXT	ENDS
;	COMDAT ?AddElem@CMarkup@@QAE_NPBD0@Z
_TEXT	SEGMENT PARA USE32 PUBLIC 'CODE'
_TEXT	ENDS
;	COMDAT ?AddChildElem@CMarkup@@QAE_NPBD0@Z
_TEXT	SEGMENT PARA USE32 PUBLIC 'CODE'
_TEXT	ENDS
;	COMDAT ?SetAttrib@CMarkup@@QAE_NPBD0@Z
_TEXT	SEGMENT PARA USE32 PUBLIC 'CODE'
_TEXT	ENDS
;	COMDAT ?ResetPos@CMarkup@@QAEXXZ
_TEXT	SEGMENT PARA USE32 PUBLIC 'CODE'
_TEXT	ENDS
;	COMDAT ?GetAttrib@CMarkup@@QBE?AV?$CStringT@DV?$StrTraitMFC_DLL@DV?$ChTraitsCRT@D@ATL@@@@@ATL@@PBD@Z
_TEXT	SEGMENT PARA USE32 PUBLIC 'CODE'
_TEXT	ENDS
;	COMDAT ??0ElemPos@CMarkup@@QAE@XZ
_TEXT	SEGMENT PARA USE32 PUBLIC 'CODE'
_TEXT	ENDS
;	COMDAT ?Clear@ElemPos@CMarkup@@QAEXXZ
_TEXT	SEGMENT PARA USE32 PUBLIC 'CODE'
_TEXT	ENDS
;	COMDAT ?Clear@TokenPos@CMarkup@@QAEXXZ
_TEXT	SEGMENT PARA USE32 PUBLIC 'CODE'
_TEXT	ENDS
;	COMDAT ?x_SetPos@CMarkup@@IAEXHHH@Z
_TEXT	SEGMENT PARA USE32 PUBLIC 'CODE'
_TEXT	ENDS
;	COMDAT ??_GCMarkup@@UAEPAXI@Z
_TEXT	SEGMENT PARA USE32 PUBLIC 'CODE'
_TEXT	ENDS
;	COMDAT ??0CMarkupArchive@@QAE@K@Z
_TEXT	SEGMENT PARA USE32 PUBLIC 'CODE'
_TEXT	ENDS
;	COMDAT ?AddElem@CMarkupArchive@@UAE_NPBD0@Z
_TEXT	SEGMENT PARA USE32 PUBLIC 'CODE'
_TEXT	ENDS
;	COMDAT ?AddChildElem@CMarkupArchive@@UAE_NPBD0@Z
_TEXT	SEGMENT PARA USE32 PUBLIC 'CODE'
_TEXT	ENDS
;	COMDAT ?FindElem@CMarkupArchive@@UAE_NPBD@Z
_TEXT	SEGMENT PARA USE32 PUBLIC 'CODE'
_TEXT	ENDS
;	COMDAT ?FindChildElem@CMarkupArchive@@UAE_NPBD@Z
_TEXT	SEGMENT PARA USE32 PUBLIC 'CODE'
_TEXT	ENDS
;	COMDAT ??_GCMarkupArchive@@UAEPAXI@Z
_TEXT	SEGMENT PARA USE32 PUBLIC 'CODE'
_TEXT	ENDS
;	COMDAT ??0LocalGameData@@QAE@XZ
_TEXT	SEGMENT PARA USE32 PUBLIC 'CODE'
_TEXT	ENDS
;	COMDAT ??_GLocalGameData@@UAEPAXI@Z
_TEXT	SEGMENT PARA USE32 PUBLIC 'CODE'
_TEXT	ENDS
;	COMDAT ??0ILocalGameData@@QAE@XZ
_TEXT	SEGMENT PARA USE32 PUBLIC 'CODE'
_TEXT	ENDS
;	COMDAT ??1ILocalGameData@@UAE@XZ
_TEXT	SEGMENT PARA USE32 PUBLIC 'CODE'
_TEXT	ENDS
;	COMDAT ??1LocalGameData@@UAE@XZ
_TEXT	SEGMENT PARA USE32 PUBLIC 'CODE'
_TEXT	ENDS
;	COMDAT ??_GILocalGameData@@UAEPAXI@Z
_TEXT	SEGMENT PARA USE32 PUBLIC 'CODE'
_TEXT	ENDS
;	COMDAT ??0IData@@QAE@XZ
_TEXT	SEGMENT PARA USE32 PUBLIC 'CODE'
_TEXT	ENDS
;	COMDAT ??1OneLocalGame@@QAE@XZ
_TEXT	SEGMENT PARA USE32 PUBLIC 'CODE'
_TEXT	ENDS
;	COMDAT ??4OneLocalGame@@QAEAAU0@ABU0@@Z
_TEXT	SEGMENT PARA USE32 PUBLIC 'CODE'
_TEXT	ENDS
;	COMDAT ??HATL@@YA?AV?$CStringT@DV?$StrTraitMFC_DLL@DV?$ChTraitsCRT@D@ATL@@@@@0@ABV10@PBD@Z
_TEXT	SEGMENT PARA USE32 PUBLIC 'CODE'
_TEXT	ENDS
;	COMDAT ??B?$CComPtrBase@UITypeInfo2@@@ATL@@QBEPAUITypeInfo2@@XZ
_TEXT	SEGMENT PARA USE32 PUBLIC 'CODE'
_TEXT	ENDS
;	COMDAT ?equal@?$istreambuf_iterator@DU?$char_traits@D@std@@@std@@QBE_NABV12@@Z
_TEXT	SEGMENT PARA USE32 PUBLIC 'CODE'
_TEXT	ENDS
;	COMDAT ?equal@?$istreambuf_iterator@_WU?$char_traits@_W@std@@@std@@QBE_NABV12@@Z
_TEXT	SEGMENT PARA USE32 PUBLIC 'CODE'
_TEXT	ENDS
;	COMDAT ??0?$vector@UOneLocalGame@@V?$allocator@UOneLocalGame@@@std@@@std@@QAE@XZ
_TEXT	SEGMENT PARA USE32 PUBLIC 'CODE'
_TEXT	ENDS
;	COMDAT ??1?$vector@UOneLocalGame@@V?$allocator@UOneLocalGame@@@std@@@std@@QAE@XZ
_TEXT	SEGMENT PARA USE32 PUBLIC 'CODE'
_TEXT	ENDS
;	COMDAT ?begin@?$vector@UOneLocalGame@@V?$allocator@UOneLocalGame@@@std@@@std@@QAE?AViterator@12@XZ
_TEXT	SEGMENT PARA USE32 PUBLIC 'CODE'
_TEXT	ENDS
;	COMDAT ?end@?$vector@UOneLocalGame@@V?$allocator@UOneLocalGame@@@std@@@std@@QAE?AViterator@12@XZ
_TEXT	SEGMENT PARA USE32 PUBLIC 'CODE'
_TEXT	ENDS
;	COMDAT ?size@?$vector@UOneLocalGame@@V?$allocator@UOneLocalGame@@@std@@@std@@QBEIXZ
_TEXT	SEGMENT PARA USE32 PUBLIC 'CODE'
_TEXT	ENDS
;	COMDAT ?push_back@?$vector@UOneLocalGame@@V?$allocator@UOneLocalGame@@@std@@@std@@QAEXABUOneLocalGame@@@Z
_TEXT	SEGMENT PARA USE32 PUBLIC 'CODE'
_TEXT	ENDS
;	COMDAT ?erase@?$vector@UOneLocalGame@@V?$allocator@UOneLocalGame@@@std@@@std@@QAE?AViterator@12@V312@@Z
_TEXT	SEGMENT PARA USE32 PUBLIC 'CODE'
_TEXT	ENDS
;	COMDAT ?clear@?$vector@UOneLocalGame@@V?$allocator@UOneLocalGame@@@std@@@std@@QAEXXZ
_TEXT	SEGMENT PARA USE32 PUBLIC 'CODE'
_TEXT	ENDS
;	COMDAT ??Diterator@?$vector@UOneLocalGame@@V?$allocator@UOneLocalGame@@@std@@@std@@QBEAAUOneLocalGame@@XZ
_TEXT	SEGMENT PARA USE32 PUBLIC 'CODE'
_TEXT	ENDS
;	COMDAT ??Citerator@?$vector@UOneLocalGame@@V?$allocator@UOneLocalGame@@@std@@@std@@QBEPAUOneLocalGame@@XZ
_TEXT	SEGMENT PARA USE32 PUBLIC 'CODE'
_TEXT	ENDS
;	COMDAT ??Eiterator@?$vector@UOneLocalGame@@V?$allocator@UOneLocalGame@@@std@@@std@@QAE?AV012@H@Z
_TEXT	SEGMENT PARA USE32 PUBLIC 'CODE'
_TEXT	ENDS
;	COMDAT ??9const_iterator@?$vector@UOneLocalGame@@V?$allocator@UOneLocalGame@@@std@@@std@@QBE_NABV012@@Z
_TEXT	SEGMENT PARA USE32 PUBLIC 'CODE'
_TEXT	ENDS
;	COMDAT ??0?$list@PAVIMessageObserver@@V?$allocator@PAVIMessageObserver@@@std@@@std@@QAE@XZ
_TEXT	SEGMENT PARA USE32 PUBLIC 'CODE'
_TEXT	ENDS
;	COMDAT ??1?$list@PAVIMessageObserver@@V?$allocator@PAVIMessageObserver@@@std@@@std@@QAE@XZ
_TEXT	SEGMENT PARA USE32 PUBLIC 'CODE'
_TEXT	ENDS
;	COMDAT ?begin@?$list@PAVIMessageObserver@@V?$allocator@PAVIMessageObserver@@@std@@@std@@QAE?AViterator@12@XZ
_TEXT	SEGMENT PARA USE32 PUBLIC 'CODE'
_TEXT	ENDS
;	COMDAT ?end@?$list@PAVIMessageObserver@@V?$allocator@PAVIMessageObserver@@@std@@@std@@QAE?AViterator@12@XZ
_TEXT	SEGMENT PARA USE32 PUBLIC 'CODE'
_TEXT	ENDS
;	COMDAT ??Diterator@?$list@PAVIMessageObserver@@V?$allocator@PAVIMessageObserver@@@std@@@std@@QBEAAPAVIMessageObserver@@XZ
_TEXT	SEGMENT PARA USE32 PUBLIC 'CODE'
_TEXT	ENDS
;	COMDAT ??Eiterator@?$list@PAVIMessageObserver@@V?$allocator@PAVIMessageObserver@@@std@@@std@@QAE?AV012@H@Z
_TEXT	SEGMENT PARA USE32 PUBLIC 'CODE'
_TEXT	ENDS
;	COMDAT ??9const_iterator@?$list@PAVIMessageObserver@@V?$allocator@PAVIMessageObserver@@@std@@@std@@QBE_NABV012@@Z
_TEXT	SEGMENT PARA USE32 PUBLIC 'CODE'
_TEXT	ENDS
;	COMDAT ?capacity@?$vector@UOneLocalGame@@V?$allocator@UOneLocalGame@@@std@@@std@@QBEIXZ
_TEXT	SEGMENT PARA USE32 PUBLIC 'CODE'
_TEXT	ENDS
;	COMDAT ?insert@?$vector@UOneLocalGame@@V?$allocator@UOneLocalGame@@@std@@@std@@QAE?AViterator@12@V312@ABUOneLocalGame@@@Z
_TEXT	SEGMENT PARA USE32 PUBLIC 'CODE'
_TEXT	ENDS
;	COMDAT ?_Buy@?$vector@UOneLocalGame@@V?$allocator@UOneLocalGame@@@std@@@std@@IAE_NI@Z
_TEXT	SEGMENT PARA USE32 PUBLIC 'CODE'
_TEXT	ENDS
;	COMDAT ?_Destroy@?$vector@UOneLocalGame@@V?$allocator@UOneLocalGame@@@std@@@std@@IAEXPAUOneLocalGame@@0@Z
_TEXT	SEGMENT PARA USE32 PUBLIC 'CODE'
_TEXT	ENDS
;	COMDAT ?_Tidy@?$vector@UOneLocalGame@@V?$allocator@UOneLocalGame@@@std@@@std@@IAEXXZ
_TEXT	SEGMENT PARA USE32 PUBLIC 'CODE'
_TEXT	ENDS
;	COMDAT ?_Ufill@?$vector@UOneLocalGame@@V?$allocator@UOneLocalGame@@@std@@@std@@IAEPAUOneLocalGame@@PAU3@IABU3@@Z
_TEXT	SEGMENT PARA USE32 PUBLIC 'CODE'
_TEXT	ENDS
;	COMDAT ??0?$_Vector_val@UOneLocalGame@@V?$allocator@UOneLocalGame@@@std@@@std@@IAE@V?$allocator@UOneLocalGame@@@1@@Z
_TEXT	SEGMENT PARA USE32 PUBLIC 'CODE'
_TEXT	ENDS
;	COMDAT ??0?$allocator@UOneLocalGame@@@std@@QAE@XZ
_TEXT	SEGMENT PARA USE32 PUBLIC 'CODE'
_TEXT	ENDS
;	COMDAT ??0iterator@?$vector@UOneLocalGame@@V?$allocator@UOneLocalGame@@@std@@@std@@QAE@PAUOneLocalGame@@@Z
_TEXT	SEGMENT PARA USE32 PUBLIC 'CODE'
_TEXT	ENDS
;	COMDAT ??Eiterator@?$vector@UOneLocalGame@@V?$allocator@UOneLocalGame@@@std@@@std@@QAEAAV012@XZ
_TEXT	SEGMENT PARA USE32 PUBLIC 'CODE'
_TEXT	ENDS
;	COMDAT ??Dconst_iterator@?$vector@UOneLocalGame@@V?$allocator@UOneLocalGame@@@std@@@std@@QBEABUOneLocalGame@@XZ
_TEXT	SEGMENT PARA USE32 PUBLIC 'CODE'
_TEXT	ENDS
;	COMDAT ??8const_iterator@?$vector@UOneLocalGame@@V?$allocator@UOneLocalGame@@@std@@@std@@QBE_NABV012@@Z
_TEXT	SEGMENT PARA USE32 PUBLIC 'CODE'
_TEXT	ENDS
;	COMDAT ?_Nextnode@?$list@PAVIMessageObserver@@V?$allocator@PAVIMessageObserver@@@std@@@std@@KAAAPAU_Node@?$_List_nod@PAVIMessageObserver@@V?$allocator@PAVIMessageObserver@@@std@@@2@PAU342@@Z
_TEXT	SEGMENT PARA USE32 PUBLIC 'CODE'
_TEXT	ENDS
;	COMDAT ?_Buynode@?$list@PAVIMessageObserver@@V?$allocator@PAVIMessageObserver@@@std@@@std@@IAEPAU_Node@?$_List_nod@PAVIMessageObserver@@V?$allocator@PAVIMessageObserver@@@std@@@2@XZ
_TEXT	SEGMENT PARA USE32 PUBLIC 'CODE'
_TEXT	ENDS
;	COMDAT ?_Tidy@?$list@PAVIMessageObserver@@V?$allocator@PAVIMessageObserver@@@std@@@std@@IAEXXZ
_TEXT	SEGMENT PARA USE32 PUBLIC 'CODE'
_TEXT	ENDS
;	COMDAT ??0?$_List_val@PAVIMessageObserver@@V?$allocator@PAVIMessageObserver@@@std@@@std@@IAE@V?$allocator@PAVIMessageObserver@@@1@@Z
_TEXT	SEGMENT PARA USE32 PUBLIC 'CODE'
_TEXT	ENDS
;	COMDAT ??0?$allocator@PAVIMessageObserver@@@std@@QAE@XZ
_TEXT	SEGMENT PARA USE32 PUBLIC 'CODE'
_TEXT	ENDS
;	COMDAT ??0iterator@?$list@PAVIMessageObserver@@V?$allocator@PAVIMessageObserver@@@std@@@std@@QAE@PAU_Node@?$_List_nod@PAVIMessageObserver@@V?$allocator@PAVIMessageObserver@@@std@@@2@@Z
_TEXT	SEGMENT PARA USE32 PUBLIC 'CODE'
_TEXT	ENDS
;	COMDAT ??Eiterator@?$list@PAVIMessageObserver@@V?$allocator@PAVIMessageObserver@@@std@@@std@@QAEAAV012@XZ
_TEXT	SEGMENT PARA USE32 PUBLIC 'CODE'
_TEXT	ENDS
;	COMDAT ??Dconst_iterator@?$list@PAVIMessageObserver@@V?$allocator@PAVIMessageObserver@@@std@@@std@@QBEABQAVIMessageObserver@@XZ
_TEXT	SEGMENT PARA USE32 PUBLIC 'CODE'
_TEXT	ENDS
;	COMDAT ??8const_iterator@?$list@PAVIMessageObserver@@V?$allocator@PAVIMessageObserver@@@std@@@std@@QBE_NABV012@@Z
_TEXT	SEGMENT PARA USE32 PUBLIC 'CODE'
_TEXT	ENDS
;	COMDAT ??0iterator@?$basic_string@DU?$char_traits@D@std@@V?$allocator@D@2@@std@@QAE@PAD@Z
_TEXT	SEGMENT PARA USE32 PUBLIC 'CODE'
_TEXT	ENDS
;	COMDAT ?max_size@?$vector@UOneLocalGame@@V?$allocator@UOneLocalGame@@@std@@@std@@QBEIXZ
_TEXT	SEGMENT PARA USE32 PUBLIC 'CODE'
_TEXT	ENDS
;	COMDAT ?_Insert_n@?$vector@UOneLocalGame@@V?$allocator@UOneLocalGame@@@std@@@std@@IAEXViterator@12@IABUOneLocalGame@@@Z
_TEXT	SEGMENT PARA USE32 PUBLIC 'CODE'
_TEXT	ENDS
;	COMDAT ?_Xlen@?$vector@UOneLocalGame@@V?$allocator@UOneLocalGame@@@std@@@std@@IBEXXZ
_TEXT	SEGMENT PARA USE32 PUBLIC 'CODE'
_TEXT	ENDS
;	COMDAT ??0?$allocator@UOneLocalGame@@@std@@QAE@ABV01@@Z
_TEXT	SEGMENT PARA USE32 PUBLIC 'CODE'
_TEXT	ENDS
;	COMDAT ?deallocate@?$allocator@UOneLocalGame@@@std@@QAEXPAUOneLocalGame@@I@Z
_TEXT	SEGMENT PARA USE32 PUBLIC 'CODE'
_TEXT	ENDS
;	COMDAT ?allocate@?$allocator@UOneLocalGame@@@std@@QAEPAUOneLocalGame@@I@Z
_TEXT	SEGMENT PARA USE32 PUBLIC 'CODE'
_TEXT	ENDS
;	COMDAT ??Hiterator@?$vector@UOneLocalGame@@V?$allocator@UOneLocalGame@@@std@@@std@@QBE?AV012@H@Z
_TEXT	SEGMENT PARA USE32 PUBLIC 'CODE'
_TEXT	ENDS
;	COMDAT ??Giterator@?$vector@UOneLocalGame@@V?$allocator@UOneLocalGame@@@std@@@std@@QBEHABVconst_iterator@12@@Z
_TEXT	SEGMENT PARA USE32 PUBLIC 'CODE'
_TEXT	ENDS
;	COMDAT ??0const_iterator@?$vector@UOneLocalGame@@V?$allocator@UOneLocalGame@@@std@@@std@@QAE@PAUOneLocalGame@@@Z
_TEXT	SEGMENT PARA USE32 PUBLIC 'CODE'
_TEXT	ENDS
;	COMDAT ?_Prevnode@?$list@PAVIMessageObserver@@V?$allocator@PAVIMessageObserver@@@std@@@std@@KAAAPAU_Node@?$_List_nod@PAVIMessageObserver@@V?$allocator@PAVIMessageObserver@@@std@@@2@PAU342@@Z
_TEXT	SEGMENT PARA USE32 PUBLIC 'CODE'
_TEXT	ENDS
;	COMDAT ?_Myval@?$list@PAVIMessageObserver@@V?$allocator@PAVIMessageObserver@@@std@@@std@@KAAAPAVIMessageObserver@@PAU_Node@?$_List_nod@PAVIMessageObserver@@V?$allocator@PAVIMessageObserver@@@std@@@2@@Z
_TEXT	SEGMENT PARA USE32 PUBLIC 'CODE'
_TEXT	ENDS
;	COMDAT ?clear@?$list@PAVIMessageObserver@@V?$allocator@PAVIMessageObserver@@@std@@@std@@QAEXXZ
_TEXT	SEGMENT PARA USE32 PUBLIC 'CODE'
_TEXT	ENDS
;	COMDAT ??0?$_List_ptr@PAVIMessageObserver@@V?$allocator@PAVIMessageObserver@@@std@@@std@@IAE@V?$allocator@PAVIMessageObserver@@@1@@Z
_TEXT	SEGMENT PARA USE32 PUBLIC 'CODE'
_TEXT	ENDS
;	COMDAT ??0?$allocator@PAVIMessageObserver@@@std@@QAE@ABV01@@Z
_TEXT	SEGMENT PARA USE32 PUBLIC 'CODE'
_TEXT	ENDS
;	COMDAT ?deallocate@?$allocator@U_Node@?$_List_nod@PAVIMessageObserver@@V?$allocator@PAVIMessageObserver@@@std@@@std@@@std@@QAEXPAU_Node@?$_List_nod@PAVIMessageObserver@@V?$allocator@PAVIMessageObserver@@@std@@@2@I@Z
_TEXT	SEGMENT PARA USE32 PUBLIC 'CODE'
_TEXT	ENDS
;	COMDAT ?allocate@?$allocator@U_Node@?$_List_nod@PAVIMessageObserver@@V?$allocator@PAVIMessageObserver@@@std@@@std@@@std@@QAEPAU_Node@?$_List_nod@PAVIMessageObserver@@V?$allocator@PAVIMessageObserver@@@std@@@2@I@Z
_TEXT	SEGMENT PARA USE32 PUBLIC 'CODE'
_TEXT	ENDS
;	COMDAT ?construct@?$allocator@PAU_Node@?$_List_nod@PAVIMessageObserver@@V?$allocator@PAVIMessageObserver@@@std@@@std@@@std@@QAEXPAPAU_Node@?$_List_nod@PAVIMessageObserver@@V?$allocator@PAVIMessageObserver@@@std@@@2@ABQAU342@@Z
_TEXT	SEGMENT PARA USE32 PUBLIC 'CODE'
_TEXT	ENDS
;	COMDAT ?destroy@?$allocator@PAU_Node@?$_List_nod@PAVIMessageObserver@@V?$allocator@PAVIMessageObserver@@@std@@@std@@@std@@QAEXPAPAU_Node@?$_List_nod@PAVIMessageObserver@@V?$allocator@PAVIMessageObserver@@@std@@@2@@Z
_TEXT	SEGMENT PARA USE32 PUBLIC 'CODE'
_TEXT	ENDS
;	COMDAT ??0const_iterator@?$list@PAVIMessageObserver@@V?$allocator@PAVIMessageObserver@@@std@@@std@@QAE@PAU_Node@?$_List_nod@PAVIMessageObserver@@V?$allocator@PAVIMessageObserver@@@std@@@2@@Z
_TEXT	SEGMENT PARA USE32 PUBLIC 'CODE'
_TEXT	ENDS
;	COMDAT ??Econst_iterator@?$list@PAVIMessageObserver@@V?$allocator@PAVIMessageObserver@@@std@@@std@@QAEAAV012@XZ
_TEXT	SEGMENT PARA USE32 PUBLIC 'CODE'
_TEXT	ENDS
;	COMDAT ??0OneLocalGame@@QAE@ABU0@@Z
_TEXT	SEGMENT PARA USE32 PUBLIC 'CODE'
_TEXT	ENDS
;	COMDAT ??0length_error@std@@QAE@ABV01@@Z
_TEXT	SEGMENT PARA USE32 PUBLIC 'CODE'
_TEXT	ENDS
;	COMDAT ??0const_iterator@?$basic_string@DU?$char_traits@D@std@@V?$allocator@D@2@@std@@QAE@PBD@Z
_TEXT	SEGMENT PARA USE32 PUBLIC 'CODE'
_TEXT	ENDS
;	COMDAT ??Gconst_iterator@?$basic_string@DU?$char_traits@D@std@@V?$allocator@D@2@@std@@QBEHABV012@@Z
_TEXT	SEGMENT PARA USE32 PUBLIC 'CODE'
_TEXT	ENDS
;	COMDAT ?max_size@?$allocator@UOneLocalGame@@@std@@QBEIXZ
_TEXT	SEGMENT PARA USE32 PUBLIC 'CODE'
_TEXT	ENDS
;	COMDAT ??Yiterator@?$vector@UOneLocalGame@@V?$allocator@UOneLocalGame@@@std@@@std@@QAEAAV012@H@Z
_TEXT	SEGMENT PARA USE32 PUBLIC 'CODE'
_TEXT	ENDS
;	COMDAT ??Gconst_iterator@?$vector@UOneLocalGame@@V?$allocator@UOneLocalGame@@@std@@@std@@QBEHABV012@@Z
_TEXT	SEGMENT PARA USE32 PUBLIC 'CODE'
_TEXT	ENDS
;	COMDAT ??0?$_List_nod@PAVIMessageObserver@@V?$allocator@PAVIMessageObserver@@@std@@@std@@IAE@V?$allocator@PAVIMessageObserver@@@1@@Z
_TEXT	SEGMENT PARA USE32 PUBLIC 'CODE'
_TEXT	ENDS
;	COMDAT ?destroy@?$allocator@U_Node@?$_List_nod@PAVIMessageObserver@@V?$allocator@PAVIMessageObserver@@@std@@@std@@@std@@QAEXPAU_Node@?$_List_nod@PAVIMessageObserver@@V?$allocator@PAVIMessageObserver@@@std@@@2@@Z
_TEXT	SEGMENT PARA USE32 PUBLIC 'CODE'
_TEXT	ENDS
;	COMDAT ?Unlock@?$CComCritSecLock@VCComCriticalSection@ATL@@@ATL@@QAEXXZ
_TEXT	SEGMENT PARA USE32 PUBLIC 'CODE'
_TEXT	ENDS
;	COMDAT ??$AtlAlignUp@H@ATL@@YGHHK@Z
_TEXT	SEGMENT PARA USE32 PUBLIC 'CODE'
_TEXT	ENDS
;	COMDAT ??0?$CArray@UElemPos@CMarkup@@AAU12@@@QAE@XZ
_TEXT	SEGMENT PARA USE32 PUBLIC 'CODE'
_TEXT	ENDS
;	COMDAT ??A?$CArray@UElemPos@CMarkup@@AAU12@@@QAEAAUElemPos@CMarkup@@H@Z
_TEXT	SEGMENT PARA USE32 PUBLIC 'CODE'
_TEXT	ENDS
;	COMDAT ??1?$CArray@UElemPos@CMarkup@@AAU12@@@UAE@XZ
_TEXT	SEGMENT PARA USE32 PUBLIC 'CODE'
_TEXT	ENDS
;	COMDAT ?Serialize@?$CArray@UElemPos@CMarkup@@AAU12@@@UAEXAAVCArchive@@@Z
_TEXT	SEGMENT PARA USE32 PUBLIC 'CODE'
_TEXT	ENDS
;	COMDAT ?Dump@?$CArray@UElemPos@CMarkup@@AAU12@@@UBEXAAVCDumpContext@@@Z
_TEXT	SEGMENT PARA USE32 PUBLIC 'CODE'
_TEXT	ENDS
;	COMDAT ?AssertValid@?$CArray@UElemPos@CMarkup@@AAU12@@@UBEXXZ
_TEXT	SEGMENT PARA USE32 PUBLIC 'CODE'
_TEXT	ENDS
;	COMDAT ??$back_inserter@V?$vector@UOneLocalGame@@V?$allocator@UOneLocalGame@@@std@@@std@@@std@@YA?AV?$back_insert_iterator@V?$vector@UOneLocalGame@@V?$allocator@UOneLocalGame@@@std@@@std@@@0@AAV?$vector@UOneLocalGame@@V?$allocator@UOneLocalGame@@@std@@@0@@Z
_TEXT	SEGMENT PARA USE32 PUBLIC 'CODE'
_TEXT	ENDS
;	COMDAT ??$copy@Viterator@?$vector@UOneLocalGame@@V?$allocator@UOneLocalGame@@@std@@@std@@V?$back_insert_iterator@V?$vector@UOneLocalGame@@V?$allocator@UOneLocalGame@@@std@@@std@@@3@@std@@YA?AV?$back_insert_iterator@V?$vector@UOneLocalGame@@V?$allocator@UOneLocalGame@@@std@@@std@@@0@Viterator@?$vector@UOneLocalGame@@V?$allocator@UOneLocalGame@@@std@@@0@0V10@@Z
_TEXT	SEGMENT PARA USE32 PUBLIC 'CODE'
_TEXT	ENDS
;	COMDAT ??$copy@PAUOneLocalGame@@PAU1@@std@@YAPAUOneLocalGame@@PAU1@00@Z
_TEXT	SEGMENT PARA USE32 PUBLIC 'CODE'
_TEXT	ENDS
;	COMDAT ??$_Destroy_range@UOneLocalGame@@V?$allocator@UOneLocalGame@@@std@@@std@@YAXPAUOneLocalGame@@0AAV?$allocator@UOneLocalGame@@@0@@Z
_TEXT	SEGMENT PARA USE32 PUBLIC 'CODE'
_TEXT	ENDS
;	COMDAT ??$_Uninitialized_fill_n@PAUOneLocalGame@@IU1@V?$allocator@UOneLocalGame@@@std@@@std@@YAXPAUOneLocalGame@@IABU1@AAV?$allocator@UOneLocalGame@@@0@@Z
_TEXT	SEGMENT PARA USE32 PUBLIC 'CODE'
_TEXT	ENDS
;	COMDAT ??$_Maklocstr@D@std@@YAPADPBDPADABU_Cvtvec@@@Z
_TEXT	SEGMENT PARA USE32 PUBLIC 'CODE'
_TEXT	ENDS
;	COMDAT ??$_Ucopy@PAUOneLocalGame@@@?$vector@UOneLocalGame@@V?$allocator@UOneLocalGame@@@std@@@std@@IAEPAUOneLocalGame@@PAU2@00@Z
_TEXT	SEGMENT PARA USE32 PUBLIC 'CODE'
_TEXT	ENDS
;	COMDAT ??$fill@PAUOneLocalGame@@U1@@std@@YAXPAUOneLocalGame@@0ABU1@@Z
_TEXT	SEGMENT PARA USE32 PUBLIC 'CODE'
_TEXT	ENDS
;	COMDAT ??$copy_backward@PAUOneLocalGame@@PAU1@@std@@YAPAUOneLocalGame@@PAU1@00@Z
_TEXT	SEGMENT PARA USE32 PUBLIC 'CODE'
_TEXT	ENDS
;	COMDAT ??$_Allocate@UOneLocalGame@@@std@@YAPAUOneLocalGame@@IPAU1@@Z
_TEXT	SEGMENT PARA USE32 PUBLIC 'CODE'
_TEXT	ENDS
;	COMDAT ??$?0PAVIMessageObserver@@@?$allocator@PAU_Node@?$_List_nod@PAVIMessageObserver@@V?$allocator@PAVIMessageObserver@@@std@@@std@@@std@@QAE@ABV?$allocator@PAVIMessageObserver@@@1@@Z
_TEXT	SEGMENT PARA USE32 PUBLIC 'CODE'
_TEXT	ENDS
;	COMDAT ??$_Allocate@U_Node@?$_List_nod@PAVIMessageObserver@@V?$allocator@PAVIMessageObserver@@@std@@@std@@@std@@YAPAU_Node@?$_List_nod@PAVIMessageObserver@@V?$allocator@PAVIMessageObserver@@@std@@@0@IPAU120@@Z
_TEXT	SEGMENT PARA USE32 PUBLIC 'CODE'
_TEXT	ENDS
;	COMDAT ??$_Construct@PAU_Node@?$_List_nod@PAVIMessageObserver@@V?$allocator@PAVIMessageObserver@@@std@@@std@@PAU123@@std@@YAXPAPAU_Node@?$_List_nod@PAVIMessageObserver@@V?$allocator@PAVIMessageObserver@@@std@@@0@ABQAU120@@Z
_TEXT	SEGMENT PARA USE32 PUBLIC 'CODE'
_TEXT	ENDS
;	COMDAT ??$_Destroy@PAU_Node@?$_List_nod@PAVIMessageObserver@@V?$allocator@PAVIMessageObserver@@@std@@@std@@@std@@YAXPAPAU_Node@?$_List_nod@PAVIMessageObserver@@V?$allocator@PAVIMessageObserver@@@std@@@0@@Z
_TEXT	SEGMENT PARA USE32 PUBLIC 'CODE'
_TEXT	ENDS
;	COMDAT ??$?0PAVIMessageObserver@@@?$allocator@U_Node@?$_List_nod@PAVIMessageObserver@@V?$allocator@PAVIMessageObserver@@@std@@@std@@@std@@QAE@ABV?$allocator@PAVIMessageObserver@@@1@@Z
_TEXT	SEGMENT PARA USE32 PUBLIC 'CODE'
_TEXT	ENDS
;	COMDAT ??$_Destroy@U_Node@?$_List_nod@PAVIMessageObserver@@V?$allocator@PAVIMessageObserver@@@std@@@std@@@std@@YAXPAU_Node@?$_List_nod@PAVIMessageObserver@@V?$allocator@PAVIMessageObserver@@@std@@@0@@Z
_TEXT	SEGMENT PARA USE32 PUBLIC 'CODE'
_TEXT	ENDS
;	COMDAT ??_G?$CArray@UElemPos@CMarkup@@AAU12@@@UAEPAXI@Z
_TEXT	SEGMENT PARA USE32 PUBLIC 'CODE'
_TEXT	ENDS
;	COMDAT ??0?$back_insert_iterator@V?$vector@UOneLocalGame@@V?$allocator@UOneLocalGame@@@std@@@std@@@std@@QAE@AAV?$vector@UOneLocalGame@@V?$allocator@UOneLocalGame@@@std@@@1@@Z
_TEXT	SEGMENT PARA USE32 PUBLIC 'CODE'
_TEXT	ENDS
;	COMDAT ?SetSize@?$CArray@UElemPos@CMarkup@@AAU12@@@QAEXHH@Z
_TEXT	SEGMENT PARA USE32 PUBLIC 'CODE'
_TEXT	ENDS
;	COMDAT ?ElementAt@?$CArray@UElemPos@CMarkup@@AAU12@@@QAEAAUElemPos@CMarkup@@H@Z
_TEXT	SEGMENT PARA USE32 PUBLIC 'CODE'
_TEXT	ENDS
;	COMDAT ??$SerializeElements@UElemPos@CMarkup@@@@YGXAAVCArchive@@PAUElemPos@CMarkup@@H@Z
_TEXT	SEGMENT PARA USE32 PUBLIC 'CODE'
_TEXT	ENDS
;	COMDAT ??$DumpElements@UElemPos@CMarkup@@@@YGXAAVCDumpContext@@PBUElemPos@CMarkup@@H@Z
_TEXT	SEGMENT PARA USE32 PUBLIC 'CODE'
_TEXT	ENDS
;	COMDAT ??$_Ptr_cat@Viterator@?$vector@UOneLocalGame@@V?$allocator@UOneLocalGame@@@std@@@std@@V?$back_insert_iterator@V?$vector@UOneLocalGame@@V?$allocator@UOneLocalGame@@@std@@@std@@@3@@std@@YA?AU_Nonscalar_ptr_iterator_tag@0@AAViterator@?$vector@UOneLocalGame@@V?$allocator@UOneLocalGame@@@std@@@0@AAV?$back_insert_iterator@V?$vector@UOneLocalGame@@V?$allocator@UOneLocalGame@@@std@@@std@@@0@@Z
_TEXT	SEGMENT PARA USE32 PUBLIC 'CODE'
_TEXT	ENDS
;	COMDAT ??$_Copy_opt@Viterator@?$vector@UOneLocalGame@@V?$allocator@UOneLocalGame@@@std@@@std@@V?$back_insert_iterator@V?$vector@UOneLocalGame@@V?$allocator@UOneLocalGame@@@std@@@std@@@3@@std@@YA?AV?$back_insert_iterator@V?$vector@UOneLocalGame@@V?$allocator@UOneLocalGame@@@std@@@std@@@0@Viterator@?$vector@UOneLocalGame@@V?$allocator@UOneLocalGame@@@std@@@0@0V10@U_Nonscalar_ptr_iterator_tag@0@@Z
_TEXT	SEGMENT PARA USE32 PUBLIC 'CODE'
_TEXT	ENDS
;	COMDAT ??$_Ptr_cat@PAUOneLocalGame@@PAU1@@std@@YA?AU_Nonscalar_ptr_iterator_tag@0@AAPAUOneLocalGame@@0@Z
_TEXT	SEGMENT PARA USE32 PUBLIC 'CODE'
_TEXT	ENDS
;	COMDAT ??$_Copy_opt@PAUOneLocalGame@@PAU1@@std@@YAPAUOneLocalGame@@PAU1@00U_Nonscalar_ptr_iterator_tag@0@@Z
_TEXT	SEGMENT PARA USE32 PUBLIC 'CODE'
_TEXT	ENDS
;	COMDAT ??$_Destroy_range@UOneLocalGame@@V?$allocator@UOneLocalGame@@@std@@@std@@YAXPAUOneLocalGame@@0AAV?$allocator@UOneLocalGame@@@0@U_Nonscalar_ptr_iterator_tag@0@@Z
_TEXT	SEGMENT PARA USE32 PUBLIC 'CODE'
_TEXT	ENDS
;	COMDAT ??$_Uninit_fill_n@PAUOneLocalGame@@IU1@V?$allocator@UOneLocalGame@@@std@@@std@@YAXPAUOneLocalGame@@IABU1@AAV?$allocator@UOneLocalGame@@@0@U_Nonscalar_ptr_iterator_tag@0@@Z
_TEXT	SEGMENT PARA USE32 PUBLIC 'CODE'
_TEXT	ENDS
;	COMDAT ??$_Uninitialized_copy@PAUOneLocalGame@@PAU1@V?$allocator@UOneLocalGame@@@std@@@std@@YAPAUOneLocalGame@@PAU1@00AAV?$allocator@UOneLocalGame@@@0@@Z
_TEXT	SEGMENT PARA USE32 PUBLIC 'CODE'
_TEXT	ENDS
;	COMDAT ??$_Copy_backward_opt@PAUOneLocalGame@@PAU1@@std@@YAPAUOneLocalGame@@PAU1@00U_Nonscalar_ptr_iterator_tag@0@@Z
_TEXT	SEGMENT PARA USE32 PUBLIC 'CODE'
_TEXT	ENDS
;	COMDAT ?construct@?$allocator@UOneLocalGame@@@std@@QAEXPAUOneLocalGame@@ABU3@@Z
_TEXT	SEGMENT PARA USE32 PUBLIC 'CODE'
_TEXT	ENDS
;	COMDAT ?destroy@?$allocator@UOneLocalGame@@@std@@QAEXPAUOneLocalGame@@@Z
_TEXT	SEGMENT PARA USE32 PUBLIC 'CODE'
_TEXT	ENDS
;	COMDAT ??4?$back_insert_iterator@V?$vector@UOneLocalGame@@V?$allocator@UOneLocalGame@@@std@@@std@@@std@@QAEAAV01@ABUOneLocalGame@@@Z
_TEXT	SEGMENT PARA USE32 PUBLIC 'CODE'
_TEXT	ENDS
;	COMDAT ??D?$back_insert_iterator@V?$vector@UOneLocalGame@@V?$allocator@UOneLocalGame@@@std@@@std@@@std@@QAEAAV01@XZ
_TEXT	SEGMENT PARA USE32 PUBLIC 'CODE'
_TEXT	ENDS
;	COMDAT ??E?$back_insert_iterator@V?$vector@UOneLocalGame@@V?$allocator@UOneLocalGame@@@std@@@std@@@std@@QAEAAV01@XZ
_TEXT	SEGMENT PARA USE32 PUBLIC 'CODE'
_TEXT	ENDS
;	COMDAT ??$_Uninit_copy@PAUOneLocalGame@@PAU1@V?$allocator@UOneLocalGame@@@std@@@std@@YAPAUOneLocalGame@@PAU1@00AAV?$allocator@UOneLocalGame@@@0@U_Nonscalar_ptr_iterator_tag@0@@Z
_TEXT	SEGMENT PARA USE32 PUBLIC 'CODE'
_TEXT	ENDS
;	COMDAT ??$_Construct@UOneLocalGame@@U1@@std@@YAXPAUOneLocalGame@@ABU1@@Z
_TEXT	SEGMENT PARA USE32 PUBLIC 'CODE'
_TEXT	ENDS
;	COMDAT ??$_Destroy@UOneLocalGame@@@std@@YAXPAUOneLocalGame@@@Z
_TEXT	SEGMENT PARA USE32 PUBLIC 'CODE'
_TEXT	ENDS
;	COMDAT ??_GOneLocalGame@@QAEPAXI@Z
_TEXT	SEGMENT PARA USE32 PUBLIC 'CODE'
_TEXT	ENDS
;	COMDAT ??_R3CAtlStringMgr@ATL@@8
rdata$r	SEGMENT DWORD USE32 PUBLIC 'CONST'
rdata$r	ENDS
;	COMDAT ??_R3?$numpunct@_W@std@@8
rdata$r	SEGMENT DWORD USE32 PUBLIC 'CONST'
rdata$r	ENDS
;	COMDAT ??_R3CMarkupArchive@@8
rdata$r	SEGMENT DWORD USE32 PUBLIC 'CONST'
rdata$r	ENDS
;	COMDAT ??_R3?$numpunct@D@std@@8
rdata$r	SEGMENT DWORD USE32 PUBLIC 'CONST'
rdata$r	ENDS
;	COMDAT ??_R3?$CArray@UElemPos@CMarkup@@AAU12@@@8
rdata$r	SEGMENT DWORD USE32 PUBLIC 'CONST'
rdata$r	ENDS
;	COMDAT ??_R3IData@@8
rdata$r	SEGMENT DWORD USE32 PUBLIC 'CONST'
rdata$r	ENDS
;	COMDAT ??_R3LocalGameData@@8
rdata$r	SEGMENT DWORD USE32 PUBLIC 'CONST'
rdata$r	ENDS
;	COMDAT ??_R3CMarkup@@8
rdata$r	SEGMENT DWORD USE32 PUBLIC 'CONST'
rdata$r	ENDS
;	COMDAT ??_R3ILocalGameData@@8
rdata$r	SEGMENT DWORD USE32 PUBLIC 'CONST'
rdata$r	ENDS
;	COMDAT ??_R2CAtlStringMgr@ATL@@8
rdata$r	SEGMENT DWORD USE32 PUBLIC 'CONST'
rdata$r	ENDS
;	COMDAT ??_R2?$numpunct@_W@std@@8
rdata$r	SEGMENT DWORD USE32 PUBLIC 'CONST'
rdata$r	ENDS
;	COMDAT ??_R2CMarkupArchive@@8
rdata$r	SEGMENT DWORD USE32 PUBLIC 'CONST'
rdata$r	ENDS
;	COMDAT ??_R2?$numpunct@D@std@@8
rdata$r	SEGMENT DWORD USE32 PUBLIC 'CONST'
rdata$r	ENDS
;	COMDAT ??_R2?$CArray@UElemPos@CMarkup@@AAU12@@@8
rdata$r	SEGMENT DWORD USE32 PUBLIC 'CONST'
rdata$r	ENDS
;	COMDAT ??_R2IData@@8
rdata$r	SEGMENT DWORD USE32 PUBLIC 'CONST'
rdata$r	ENDS
;	COMDAT ??_R2LocalGameData@@8
rdata$r	SEGMENT DWORD USE32 PUBLIC 'CONST'
rdata$r	ENDS
;	COMDAT ??_R2CMarkup@@8
rdata$r	SEGMENT DWORD USE32 PUBLIC 'CONST'
rdata$r	ENDS
;	COMDAT ??_R2ILocalGameData@@8
rdata$r	SEGMENT DWORD USE32 PUBLIC 'CONST'
rdata$r	ENDS
;	COMDAT ??_R1A@?0A@A@IAtlStringMgr@ATL@@8
rdata$r	SEGMENT DWORD USE32 PUBLIC 'CONST'
rdata$r	ENDS
;	COMDAT ??_R0?AUIAtlStringMgr@ATL@@@8
_DATA	SEGMENT DWORD USE32 PUBLIC 'DATA'
_DATA	ENDS
;	COMDAT ??_R1A@?0A@A@CAtlStringMgr@ATL@@8
rdata$r	SEGMENT DWORD USE32 PUBLIC 'CONST'
rdata$r	ENDS
;	COMDAT ??_R1A@?0A@A@?$numpunct@_W@std@@8
rdata$r	SEGMENT DWORD USE32 PUBLIC 'CONST'
rdata$r	ENDS
;	COMDAT ??_R1A@?0A@A@CMarkupArchive@@8
rdata$r	SEGMENT DWORD USE32 PUBLIC 'CONST'
rdata$r	ENDS
;	COMDAT ??_R1A@?0A@A@facet@locale@std@@8
rdata$r	SEGMENT DWORD USE32 PUBLIC 'CONST'
rdata$r	ENDS
;	COMDAT ??_R0?AVfacet@locale@std@@@8
_DATA	SEGMENT DWORD USE32 PUBLIC 'DATA'
_DATA	ENDS
;	COMDAT ??_R1A@?0A@A@?$numpunct@D@std@@8
rdata$r	SEGMENT DWORD USE32 PUBLIC 'CONST'
rdata$r	ENDS
;	COMDAT ??_R1A@?0A@A@CObject@@8
rdata$r	SEGMENT DWORD USE32 PUBLIC 'CONST'
rdata$r	ENDS
;	COMDAT ??_R0?AVCObject@@@8
_DATA	SEGMENT DWORD USE32 PUBLIC 'DATA'
_DATA	ENDS
;	COMDAT ??_R1A@?0A@A@?$CArray@UElemPos@CMarkup@@AAU12@@@8
rdata$r	SEGMENT DWORD USE32 PUBLIC 'CONST'
rdata$r	ENDS
;	COMDAT ??_R1A@?0A@A@LocalGameData@@8
rdata$r	SEGMENT DWORD USE32 PUBLIC 'CONST'
rdata$r	ENDS
;	COMDAT ??_R1A@?0A@A@CMarkup@@8
rdata$r	SEGMENT DWORD USE32 PUBLIC 'CONST'
rdata$r	ENDS
;	COMDAT ??_R1A@?0A@A@IData@@8
rdata$r	SEGMENT DWORD USE32 PUBLIC 'CONST'
rdata$r	ENDS
;	COMDAT ??_R1A@?0A@A@ILocalGameData@@8
rdata$r	SEGMENT DWORD USE32 PUBLIC 'CONST'
rdata$r	ENDS
;	COMDAT ??_R0?AVCAtlStringMgr@ATL@@@8
_DATA	SEGMENT DWORD USE32 PUBLIC 'DATA'
_DATA	ENDS
;	COMDAT ??_R0?AV?$numpunct@_W@std@@@8
_DATA	SEGMENT DWORD USE32 PUBLIC 'DATA'
_DATA	ENDS
;	COMDAT ??_R0?AVCMarkupArchive@@@8
_DATA	SEGMENT DWORD USE32 PUBLIC 'DATA'
_DATA	ENDS
;	COMDAT ??_R0?AV?$numpunct@D@std@@@8
_DATA	SEGMENT DWORD USE32 PUBLIC 'DATA'
_DATA	ENDS
;	COMDAT ??_R0?AV?$CArray@UElemPos@CMarkup@@AAU12@@@@8
_DATA	SEGMENT DWORD USE32 PUBLIC 'DATA'
_DATA	ENDS
;	COMDAT ??_R0?AVLocalGameData@@@8
_DATA	SEGMENT DWORD USE32 PUBLIC 'DATA'
_DATA	ENDS
;	COMDAT ??_R0?AVCMarkup@@@8
_DATA	SEGMENT DWORD USE32 PUBLIC 'DATA'
_DATA	ENDS
;	COMDAT ??_R0?AVIData@@@8
_DATA	SEGMENT DWORD USE32 PUBLIC 'DATA'
_DATA	ENDS
;	COMDAT ??_R0?AVILocalGameData@@@8
_DATA	SEGMENT DWORD USE32 PUBLIC 'DATA'
_DATA	ENDS
;	COMDAT ??_R4CAtlStringMgr@ATL@@6B@
rdata$r	SEGMENT DWORD USE32 PUBLIC 'CONST'
rdata$r	ENDS
;	COMDAT ??0?$allocator@_W@std@@QAE@XZ
_TEXT	SEGMENT PARA USE32 PUBLIC 'CODE'
_TEXT	ENDS
;	COMDAT ??_G?$numpunct@_W@std@@MAEPAXI@Z
_TEXT	SEGMENT PARA USE32 PUBLIC 'CODE'
_TEXT	ENDS
;	COMDAT ??_R4?$numpunct@_W@std@@6B@
rdata$r	SEGMENT DWORD USE32 PUBLIC 'CONST'
rdata$r	ENDS
;	COMDAT ??_R4CMarkupArchive@@6B@
rdata$r	SEGMENT DWORD USE32 PUBLIC 'CONST'
rdata$r	ENDS
;	COMDAT ??_G?$numpunct@D@std@@MAEPAXI@Z
_TEXT	SEGMENT PARA USE32 PUBLIC 'CODE'
_TEXT	ENDS
;	COMDAT ??_R4?$numpunct@D@std@@6B@
rdata$r	SEGMENT DWORD USE32 PUBLIC 'CONST'
rdata$r	ENDS
;	COMDAT ??_R4?$CArray@UElemPos@CMarkup@@AAU12@@@6B@
rdata$r	SEGMENT DWORD USE32 PUBLIC 'CONST'
rdata$r	ENDS
;	COMDAT ??_R4IData@@6B@
rdata$r	SEGMENT DWORD USE32 PUBLIC 'CONST'
rdata$r	ENDS
;	COMDAT ??_R4LocalGameData@@6B@
rdata$r	SEGMENT DWORD USE32 PUBLIC 'CONST'
rdata$r	ENDS
;	COMDAT ??_R4CMarkup@@6B@
rdata$r	SEGMENT DWORD USE32 PUBLIC 'CONST'
rdata$r	ENDS
;	COMDAT ??_R4ILocalGameData@@6B@
rdata$r	SEGMENT DWORD USE32 PUBLIC 'CONST'
rdata$r	ENDS
;	COMDAT ??3@YAXPAX0@Z
_TEXT	SEGMENT PARA USE32 PUBLIC 'CODE'
_TEXT	ENDS
;	COMDAT ??2@YAPAXIPAX@Z
_TEXT	SEGMENT PARA USE32 PUBLIC 'CODE'
_TEXT	ENDS
;	COMDAT ??_C@_0EN@CBMLGOH@D?3?2Program?5Files?5?$CIx86?$CJ?2Microsoft@
CONST	SEGMENT DWORD USE32 PUBLIC 'CONST'
CONST	ENDS
;	COMDAT ??_7?$CArray@UElemPos@CMarkup@@AAU12@@@6B@
CONST	SEGMENT DWORD USE32 PUBLIC 'CONST'
CONST	ENDS
;	COMDAT ?_Psave@?$_Facetptr@V?$numpunct@_W@std@@@std@@2PBVfacet@locale@2@B
_DATA	SEGMENT DWORD USE32 PUBLIC 'DATA'
_DATA	ENDS
;	COMDAT ?_Psave@?$_Facetptr@V?$numpunct@D@std@@@std@@2PBVfacet@locale@2@B
_DATA	SEGMENT DWORD USE32 PUBLIC 'DATA'
_DATA	ENDS
;	COMDAT ?Unlock@CComCriticalSection@ATL@@QAEJXZ
_TEXT	SEGMENT PARA USE32 PUBLIC 'CODE'
_TEXT	ENDS
;	COMDAT ??_C@_0FG@LDNDNCJM@D?3?2Program?5Files?5?$CIx86?$CJ?2Microsoft@
CONST	SEGMENT DWORD USE32 PUBLIC 'CONST'
CONST	ENDS
;	COMDAT ??_C@_09HIEJFN@m_bLocked?$AA@
CONST	SEGMENT DWORD USE32 PUBLIC 'CONST'
CONST	ENDS
;	COMDAT ?_Psave@?$_Facetptr@V?$ctype@_W@std@@@std@@2PBVfacet@locale@2@B
_DATA	SEGMENT DWORD USE32 PUBLIC 'DATA'
_DATA	ENDS
;	COMDAT ?_Psave@?$_Facetptr@V?$ctype@D@std@@@std@@2PBVfacet@locale@2@B
_DATA	SEGMENT DWORD USE32 PUBLIC 'DATA'
_DATA	ENDS
;	COMDAT ??_7length_error@std@@6B@
CONST	SEGMENT DWORD USE32 PUBLIC 'CONST'
CONST	ENDS
;	COMDAT ??_R4length_error@std@@6B@
rdata$r	SEGMENT DWORD USE32 PUBLIC 'CONST'
rdata$r	ENDS
;	COMDAT ??_R3length_error@std@@8
rdata$r	SEGMENT DWORD USE32 PUBLIC 'CONST'
rdata$r	ENDS
;	COMDAT ??_R2length_error@std@@8
rdata$r	SEGMENT DWORD USE32 PUBLIC 'CONST'
rdata$r	ENDS
;	COMDAT ??_R1A@?0A@A@length_error@std@@8
rdata$r	SEGMENT DWORD USE32 PUBLIC 'CONST'
rdata$r	ENDS
;	COMDAT ??_R1A@?0A@A@logic_error@std@@8
rdata$r	SEGMENT DWORD USE32 PUBLIC 'CONST'
rdata$r	ENDS
;	COMDAT ??_R0?AVlogic_error@std@@@8
_DATA	SEGMENT DWORD USE32 PUBLIC 'DATA'
_DATA	ENDS
;	COMDAT ??_R1A@?0A@A@exception@@8
rdata$r	SEGMENT DWORD USE32 PUBLIC 'CONST'
rdata$r	ENDS
;	COMDAT ??_R0?AVexception@@@8
_DATA	SEGMENT DWORD USE32 PUBLIC 'DATA'
_DATA	ENDS
;	COMDAT ??_Glength_error@std@@UAEPAXI@Z
_TEXT	SEGMENT PARA USE32 PUBLIC 'CODE'
_TEXT	ENDS
;	COMDAT ?what@logic_error@std@@UBEPBDXZ
_TEXT	SEGMENT PARA USE32 PUBLIC 'CODE'
_TEXT	ENDS
;	COMDAT ??1logic_error@std@@UAE@XZ
_TEXT	SEGMENT PARA USE32 PUBLIC 'CODE'
_TEXT	ENDS
;	COMDAT ??_7logic_error@std@@6B@
CONST	SEGMENT DWORD USE32 PUBLIC 'CONST'
CONST	ENDS
;	COMDAT ??_R4logic_error@std@@6B@
rdata$r	SEGMENT DWORD USE32 PUBLIC 'CONST'
rdata$r	ENDS
;	COMDAT ??_R3logic_error@std@@8
rdata$r	SEGMENT DWORD USE32 PUBLIC 'CONST'
rdata$r	ENDS
;	COMDAT ??_R2logic_error@std@@8
rdata$r	SEGMENT DWORD USE32 PUBLIC 'CONST'
rdata$r	ENDS
;	COMDAT ??_Glogic_error@std@@UAEPAXI@Z
_TEXT	SEGMENT PARA USE32 PUBLIC 'CODE'
_TEXT	ENDS
;	COMDAT ??0logic_error@std@@QAE@ABV01@@Z
_TEXT	SEGMENT PARA USE32 PUBLIC 'CODE'
_TEXT	ENDS
;	COMDAT ??0?$allocator@D@std@@QAE@ABV01@@Z
_TEXT	SEGMENT PARA USE32 PUBLIC 'CODE'
_TEXT	ENDS
;	COMDAT ?deallocate@?$allocator@D@std@@QAEXPADI@Z
_TEXT	SEGMENT PARA USE32 PUBLIC 'CODE'
_TEXT	ENDS
;	COMDAT ?max_size@?$allocator@D@std@@QBEIXZ
_TEXT	SEGMENT PARA USE32 PUBLIC 'CODE'
_TEXT	ENDS
;	COMDAT ?allocate@?$allocator@D@std@@QAEPADI@Z
_TEXT	SEGMENT PARA USE32 PUBLIC 'CODE'
_TEXT	ENDS
;	COMDAT ??$_Allocate@D@std@@YAPADIPAD@Z
_TEXT	SEGMENT PARA USE32 PUBLIC 'CODE'
_TEXT	ENDS
;	COMDAT __CTA3?AVlength_error@std@@
xdata$x	SEGMENT DWORD USE32 PUBLIC 'CONST'
xdata$x	ENDS
;	COMDAT ??1length_error@std@@UAE@XZ
_TEXT	SEGMENT PARA USE32 PUBLIC 'CODE'
_TEXT	ENDS
;	COMDAT __CT??_R0?AVexception@@@8??0exception@@QAE@ABV0@@Z12
xdata$x	SEGMENT DWORD USE32 PUBLIC 'CONST'
xdata$x	ENDS
;	COMDAT __CT??_R0?AVlogic_error@std@@@8??0logic_error@std@@QAE@ABV01@@Z40
xdata$x	SEGMENT DWORD USE32 PUBLIC 'CONST'
xdata$x	ENDS
;	COMDAT __CT??_R0?AVlength_error@std@@@8??0length_error@std@@QAE@ABV01@@Z40
xdata$x	SEGMENT DWORD USE32 PUBLIC 'CONST'
xdata$x	ENDS
;	COMDAT ??_R0?AVlength_error@std@@@8
_DATA	SEGMENT DWORD USE32 PUBLIC 'DATA'
_DATA	ENDS
;	COMDAT __TI3?AVlength_error@std@@
xdata$x	SEGMENT DWORD USE32 PUBLIC 'CONST'
xdata$x	ENDS
;	COMDAT ??0length_error@std@@QAE@ABV?$basic_string@DU?$char_traits@D@std@@V?$allocator@D@2@@1@@Z
_TEXT	SEGMENT PARA USE32 PUBLIC 'CODE'
_TEXT	ENDS
;	COMDAT ??0logic_error@std@@QAE@ABV?$basic_string@DU?$char_traits@D@std@@V?$allocator@D@2@@1@@Z
_TEXT	SEGMENT PARA USE32 PUBLIC 'CODE'
_TEXT	ENDS
;	COMDAT ??$_Maklocchr@_W@std@@YA_WDPA_WABU_Cvtvec@@@Z
_TEXT	SEGMENT PARA USE32 PUBLIC 'CODE'
_TEXT	ENDS
;	COMDAT ??$_DebugHeapDelete@X@std@@YAXPAX@Z
_TEXT	SEGMENT PARA USE32 PUBLIC 'CODE'
_TEXT	ENDS
;	COMDAT ??$_Maklocstr@_W@std@@YAPA_WPBDPA_WABU_Cvtvec@@@Z
_TEXT	SEGMENT PARA USE32 PUBLIC 'CODE'
_TEXT	ENDS
;	COMDAT ??$_Maklocchr@D@std@@YADDPADABU_Cvtvec@@@Z
_TEXT	SEGMENT PARA USE32 PUBLIC 'CODE'
_TEXT	ENDS
;	COMDAT ??_C@_04LOAJBDKD@true?$AA@
CONST	SEGMENT DWORD USE32 PUBLIC 'CONST'
CONST	ENDS
;	COMDAT ??_C@_05LAPONLG@false?$AA@
CONST	SEGMENT DWORD USE32 PUBLIC 'CONST'
CONST	ENDS
;	COMDAT _wmemcpy
_TEXT	SEGMENT PARA USE32 PUBLIC 'CODE'
_TEXT	ENDS
;	COMDAT ?max_size@?$allocator@_W@std@@QBEIXZ
_TEXT	SEGMENT PARA USE32 PUBLIC 'CODE'
_TEXT	ENDS
;	COMDAT ?allocate@?$allocator@_W@std@@QAEPA_WI@Z
_TEXT	SEGMENT PARA USE32 PUBLIC 'CODE'
_TEXT	ENDS
;	COMDAT ??$_Allocate@_W@std@@YAPA_WIPA_W@Z
_TEXT	SEGMENT PARA USE32 PUBLIC 'CODE'
_TEXT	ENDS
;	COMDAT ??_C@_0N@ILOMLJGA@nLength?5?$DO?$DN?50?$AA@
CONST	SEGMENT DWORD USE32 PUBLIC 'CONST'
CONST	ENDS
;	COMDAT ??_C@_0CD@EEFFJEGJ@nLength?5?$DM?$DN?5GetData?$CI?$CJ?9?$DOnAllocLeng@
CONST	SEGMENT DWORD USE32 PUBLIC 'CONST'
CONST	ENDS
;	COMDAT ?data@CStringData@ATL@@QAEPAXXZ
_TEXT	SEGMENT PARA USE32 PUBLIC 'CODE'
_TEXT	ENDS
;	COMDAT ?AtlThrow@ATL@@YGXJ@Z
_TEXT	SEGMENT PARA USE32 PUBLIC 'CODE'
_TEXT	ENDS
;	COMDAT ??RCTraceFileAndLineInfo@ATL@@QBAXKIPBDZZ
_TEXT	SEGMENT PARA USE32 PUBLIC 'CODE'
_TEXT	ENDS
;	COMDAT ?TraceV@CTrace@ATL@@QBAXPBDHKI0PAD@Z
_TEXT	SEGMENT PARA USE32 PUBLIC 'CODE'
_TEXT	ENDS
;	COMDAT ??0CTraceFileAndLineInfo@ATL@@QAE@PBDH@Z
_TEXT	SEGMENT PARA USE32 PUBLIC 'CODE'
_TEXT	ENDS
;	COMDAT ??_C@_0FI@NHHJANPC@D?3?2Program?5Files?5?$CIx86?$CJ?2Microsoft@
CONST	SEGMENT DWORD USE32 PUBLIC 'CONST'
CONST	ENDS
;	COMDAT ??_C@_0BF@IAAKIJDJ@AtlThrow?3?5hr?5?$DN?50x?$CFx?6?$AA@
CONST	SEGMENT DWORD USE32 PUBLIC 'CONST'
CONST	ENDS
;	COMDAT ??BCTraceCategory@ATL@@QBEKXZ
_TEXT	SEGMENT PARA USE32 PUBLIC 'CODE'
_TEXT	ENDS
;	COMDAT ??_C@_0FJ@DMHPDOJC@D?3?2Program?5Files?5?$CIx86?$CJ?2Microsoft@
CONST	SEGMENT DWORD USE32 PUBLIC 'CONST'
CONST	ENDS
;	COMDAT ??_C@_0BA@GOIMFHNK@pStringMgr?5?$CB?$DN?50?$AA@
CONST	SEGMENT DWORD USE32 PUBLIC 'CONST'
CONST	ENDS
;	COMDAT ??_C@_01GFHCPBMG@C?$AA@
CONST	SEGMENT DWORD USE32 PUBLIC 'CONST'
CONST	ENDS
;	COMDAT ?Release@CStringData@ATL@@QAEXXZ
_TEXT	SEGMENT PARA USE32 PUBLIC 'CODE'
_TEXT	ENDS
;	COMDAT ??_C@_0L@OIIMFBNE@nRefs?5?$CB?$DN?50?$AA@
CONST	SEGMENT DWORD USE32 PUBLIC 'CONST'
CONST	ENDS
;	COMDAT ??_C@_0BA@GNIEOBOF@nNewLength?5?$DO?$DN?50?$AA@
CONST	SEGMENT DWORD USE32 PUBLIC 'CONST'
CONST	ENDS
;	COMDAT ?IsShared@CStringData@ATL@@QBE_NXZ
_TEXT	SEGMENT PARA USE32 PUBLIC 'CODE'
_TEXT	ENDS
;	COMDAT ??_C@_0CB@GFHAPKDK@pOldData?9?$DOnAllocLength?5?$DM?5nLength@
CONST	SEGMENT DWORD USE32 PUBLIC 'CONST'
CONST	ENDS
;	COMDAT ?_Peek@?$istreambuf_iterator@_WU?$char_traits@_W@std@@@std@@AAE_WXZ
_TEXT	SEGMENT PARA USE32 PUBLIC 'CODE'
_TEXT	ENDS
;	COMDAT ?_Peek@?$istreambuf_iterator@DU?$char_traits@D@std@@@std@@AAEDXZ
_TEXT	SEGMENT PARA USE32 PUBLIC 'CODE'
_TEXT	ENDS
;	COMDAT ??$use_facet@V?$ctype@_W@std@@@std@@YAABV?$ctype@_W@0@ABVlocale@0@@Z
_TEXT	SEGMENT PARA USE32 PUBLIC 'CODE'
_TEXT	ENDS
;	COMDAT ??_S?$ctype@_W@std@@6B@
CONST	SEGMENT DWORD USE32 PUBLIC 'CONST'
CONST	ENDS
;	COMDAT ??_R4?$ctype@_W@std@@6B@
rdata$r	SEGMENT DWORD USE32 PUBLIC 'CONST'
rdata$r	ENDS
;	COMDAT ??_R0?AV?$ctype@_W@std@@@8
_DATA	SEGMENT DWORD USE32 PUBLIC 'DATA'
_DATA	ENDS
;	COMDAT ??_R3?$ctype@_W@std@@8
rdata$r	SEGMENT DWORD USE32 PUBLIC 'CONST'
rdata$r	ENDS
;	COMDAT ??_R2?$ctype@_W@std@@8
rdata$r	SEGMENT DWORD USE32 PUBLIC 'CONST'
rdata$r	ENDS
;	COMDAT ??_R1A@?0A@A@?$ctype@_W@std@@8
rdata$r	SEGMENT DWORD USE32 PUBLIC 'CONST'
rdata$r	ENDS
;	COMDAT ??_R1A@?0A@A@ctype_base@std@@8
rdata$r	SEGMENT DWORD USE32 PUBLIC 'CONST'
rdata$r	ENDS
;	COMDAT ??_R0?AUctype_base@std@@@8
_DATA	SEGMENT DWORD USE32 PUBLIC 'DATA'
_DATA	ENDS
;	COMDAT ??_G?$ctype@_W@std@@MAEPAXI@Z
_TEXT	SEGMENT PARA USE32 PUBLIC 'CODE'
_TEXT	ENDS
;	COMDAT ??_C@_08EPJLHIJG@bad?5cast?$AA@
CONST	SEGMENT DWORD USE32 PUBLIC 'CONST'
CONST	ENDS
;	COMDAT __TI2?AVbad_cast@@
xdata$x	SEGMENT DWORD USE32 PUBLIC 'CONST'
xdata$x	ENDS
;	COMDAT __CTA2?AVbad_cast@@
xdata$x	SEGMENT DWORD USE32 PUBLIC 'CONST'
xdata$x	ENDS
;	COMDAT __CT??_R0?AVbad_cast@@@8??0bad_cast@@QAE@ABV0@@Z12
xdata$x	SEGMENT DWORD USE32 PUBLIC 'CONST'
xdata$x	ENDS
;	COMDAT ??_R0?AVbad_cast@@@8
_DATA	SEGMENT DWORD USE32 PUBLIC 'DATA'
_DATA	ENDS
;	COMDAT ??$_DebugHeapDelete@Vfacet@locale@std@@@std@@YAXPAVfacet@locale@0@@Z
_TEXT	SEGMENT PARA USE32 PUBLIC 'CODE'
_TEXT	ENDS
;	COMDAT ??$use_facet@V?$ctype@D@std@@@std@@YAABV?$ctype@D@0@ABVlocale@0@@Z
_TEXT	SEGMENT PARA USE32 PUBLIC 'CODE'
_TEXT	ENDS
;	COMDAT ??_S?$ctype@D@std@@6B@
CONST	SEGMENT DWORD USE32 PUBLIC 'CONST'
CONST	ENDS
;	COMDAT ??_R4?$ctype@D@std@@6B@
rdata$r	SEGMENT DWORD USE32 PUBLIC 'CONST'
rdata$r	ENDS
;	COMDAT ??_R0?AV?$ctype@D@std@@@8
_DATA	SEGMENT DWORD USE32 PUBLIC 'DATA'
_DATA	ENDS
;	COMDAT ??_R3?$ctype@D@std@@8
rdata$r	SEGMENT DWORD USE32 PUBLIC 'CONST'
rdata$r	ENDS
;	COMDAT ??_R2?$ctype@D@std@@8
rdata$r	SEGMENT DWORD USE32 PUBLIC 'CONST'
rdata$r	ENDS
;	COMDAT ??_R1A@?0A@A@?$ctype@D@std@@8
rdata$r	SEGMENT DWORD USE32 PUBLIC 'CONST'
rdata$r	ENDS
;	COMDAT ??_G?$ctype@D@std@@MAEPAXI@Z
_TEXT	SEGMENT PARA USE32 PUBLIC 'CODE'
_TEXT	ENDS
;	COMDAT ??_S?$numpunct@_W@std@@6B@
CONST	SEGMENT DWORD USE32 PUBLIC 'CONST'
CONST	ENDS
;	COMDAT ??_S?$numpunct@D@std@@6B@
CONST	SEGMENT DWORD USE32 PUBLIC 'CONST'
CONST	ENDS
;	COMDAT _wmemmove
_TEXT	SEGMENT PARA USE32 PUBLIC 'CODE'
_TEXT	ENDS
;	COMDAT ?deallocate@?$allocator@_W@std@@QAEXPA_WI@Z
_TEXT	SEGMENT PARA USE32 PUBLIC 'CODE'
_TEXT	ENDS
;	COMDAT ??0?$allocator@_W@std@@QAE@ABV01@@Z
_TEXT	SEGMENT PARA USE32 PUBLIC 'CODE'
_TEXT	ENDS
;	COMDAT ??_R0?AVIMessageObserver@@@8
_DATA	SEGMENT DWORD USE32 PUBLIC 'DATA'
_DATA	ENDS
;	COMDAT ??_R0?AVIQQItemCountChangeObserver@@@8
_DATA	SEGMENT DWORD USE32 PUBLIC 'DATA'
_DATA	ENDS
;	COMDAT ??$?HDU?$char_traits@D@std@@V?$allocator@D@1@@std@@YA?AV?$basic_string@DU?$char_traits@D@std@@V?$allocator@D@2@@0@ABV10@PBD@Z
_TEXT	SEGMENT PARA USE32 PUBLIC 'CODE'
_TEXT	ENDS
;	COMDAT ??0?$allocator@D@std@@QAE@XZ
_TEXT	SEGMENT PARA USE32 PUBLIC 'CODE'
_TEXT	ENDS
;	COMDAT ??_7ILocalGameData@@6B@
CONST	SEGMENT DWORD USE32 PUBLIC 'CONST'
CONST	ENDS
;	COMDAT ??_7LocalGameData@@6B@
CONST	SEGMENT DWORD USE32 PUBLIC 'CONST'
CONST	ENDS
;	COMDAT ?IsLocked@CStringData@ATL@@QBE_NXZ
_TEXT	SEGMENT PARA USE32 PUBLIC 'CODE'
_TEXT	ENDS
;	COMDAT ??_7CMarkupArchive@@6B@
CONST	SEGMENT DWORD USE32 PUBLIC 'CONST'
CONST	ENDS
;	COMDAT __tcschr
_TEXT	SEGMENT PARA USE32 PUBLIC 'CODE'
_TEXT	ENDS
;	COMDAT __tcsnccmp
_TEXT	SEGMENT PARA USE32 PUBLIC 'CODE'
_TEXT	ENDS
;	COMDAT ?GetDefaultManager@?$StrTraitMFC_DLL@DV?$ChTraitsCRT@D@ATL@@@@SAPAUIAtlStringMgr@ATL@@XZ
_TEXT	SEGMENT PARA USE32 PUBLIC 'CODE'
_TEXT	ENDS
;	COMDAT ??_7CMarkup@@6B@
CONST	SEGMENT DWORD USE32 PUBLIC 'CONST'
CONST	ENDS
;	COMDAT ?c_bIsMFCDLLTraits@?$_MFCDLLTraitsCheck@_WV?$StrTraitATL@_WV?$ChTraitsCRT@_W@ATL@@@ATL@@@_CSTRING_IMPL_@ATL@@2_NB
CONST	SEGMENT DWORD USE32 PUBLIC 'CONST'
CONST	ENDS
;	COMDAT ?c_bIsMFCDLLTraits@?$_MFCDLLTraitsCheck@DV?$StrTraitATL@DV?$ChTraitsCRT@D@ATL@@@ATL@@@_CSTRING_IMPL_@ATL@@2_NB
CONST	SEGMENT DWORD USE32 PUBLIC 'CONST'
CONST	ENDS
;	COMDAT ?_AtlGetConversionACP@ATL@@YGIXZ
_TEXT	SEGMENT PARA USE32 PUBLIC 'CODE'
_TEXT	ENDS
;	COMDAT ?g_pfnGetThreadACP@ATL@@3P6GIXZA
_DATA	SEGMENT DWORD USE32 PUBLIC 'DATA'
_DATA	ENDS
;	COMDAT ?_AtlGetThreadACPThunk@ATL@@YGIXZ
_TEXT	SEGMENT PARA USE32 PUBLIC 'CODE'
_TEXT	ENDS
;	COMDAT ?_AtlGetThreadACPReal@ATL@@YGIXZ
_TEXT	SEGMENT PARA USE32 PUBLIC 'CODE'
_TEXT	ENDS
;	COMDAT ?_AtlGetThreadACPFake@ATL@@YGIXZ
_TEXT	SEGMENT PARA USE32 PUBLIC 'CODE'
_TEXT	ENDS
;	COMDAT ?InterlockedExchangePointer@@YGPAXPAPAXPAX@Z
_TEXT	SEGMENT PARA USE32 PUBLIC 'CODE'
_TEXT	ENDS
;	COMDAT ??_C@_09BBJEMDLA@nRet?5?$CB?$DN?50?$AA@
CONST	SEGMENT DWORD USE32 PUBLIC 'CONST'
CONST	ENDS
;	COMDAT ?_strthunks@ATL@@3U_AtlStringThunks@1@A
_DATA	SEGMENT DWORD USE32 PUBLIC 'DATA'
_DATA	ENDS
;	COMDAT ?CompareStringWThunk@ATL@@YGHKKPB_WH0H@Z
_TEXT	SEGMENT PARA USE32 PUBLIC 'CODE'
_TEXT	ENDS
;	COMDAT ?_AtlInstallStringThunk@ATL@@YAXPAPAXPAX1@Z
_TEXT	SEGMENT PARA USE32 PUBLIC 'CODE'
_TEXT	ENDS
;	COMDAT ??_B?1??_AtlInstallStringThunk@ATL@@YAXPAPAXPAX1@Z@51
_BSS	SEGMENT DWORD USE32 PUBLIC 'BSS'
_BSS	ENDS
;	COMDAT ?s_bWin9x@?1??_AtlInstallStringThunk@ATL@@YAXPAPAXPAX1@Z@4_NA
_BSS	SEGMENT DWORD USE32 PUBLIC 'BSS'
_BSS	ENDS
;	COMDAT ?CompareStringWFake@ATL@@YGHKKPB_WH0H@Z
_TEXT	SEGMENT PARA USE32 PUBLIC 'CODE'
_TEXT	ENDS
;	COMDAT ??0?$CAtlSafeAllocBufferManager@VCCRTAllocator@ATL@@@_ATL_SAFE_ALLOCA_IMPL@ATL@@QAE@XZ
_TEXT	SEGMENT PARA USE32 PUBLIC 'CODE'
_TEXT	ENDS
;	COMDAT ??1?$CAtlSafeAllocBufferManager@VCCRTAllocator@ATL@@@_ATL_SAFE_ALLOCA_IMPL@ATL@@QAE@XZ
_TEXT	SEGMENT PARA USE32 PUBLIC 'CODE'
_TEXT	ENDS
;	COMDAT ?Free@CCRTAllocator@ATL@@SAXPAX@Z
_TEXT	SEGMENT PARA USE32 PUBLIC 'CODE'
_TEXT	ENDS
;	COMDAT ?AtlW2AHelper@@YGPADPADPB_WHI@Z
_TEXT	SEGMENT PARA USE32 PUBLIC 'CODE'
_TEXT	ENDS
;	COMDAT ??_C@_08DIHJLFDJ@lpw?5?$CB?$DN?50?$AA@
CONST	SEGMENT DWORD USE32 PUBLIC 'CONST'
CONST	ENDS
;	COMDAT ??_C@_08DMHHBMMN@lpa?5?$CB?$DN?50?$AA@
CONST	SEGMENT DWORD USE32 PUBLIC 'CONST'
CONST	ENDS
;	COMDAT ??_C@_01GBGANLPD@0?$AA@
CONST	SEGMENT DWORD USE32 PUBLIC 'CONST'
CONST	ENDS
;	COMDAT ??_C@_0FG@PFHCBDBK@D?3?2Program?5Files?5?$CIx86?$CJ?2Microsoft@
CONST	SEGMENT DWORD USE32 PUBLIC 'CONST'
CONST	ENDS
;	COMDAT ?_AtlVerifyStackAvailable@_ATL_SAFE_ALLOCA_IMPL@ATL@@YA_NK@Z
_TEXT	SEGMENT PARA USE32 PUBLIC 'CODE'
_TEXT	ENDS
;	COMDAT ?Allocate@?$CAtlSafeAllocBufferManager@VCCRTAllocator@ATL@@@_ATL_SAFE_ALLOCA_IMPL@ATL@@QAEPAXK@Z
_TEXT	SEGMENT PARA USE32 PUBLIC 'CODE'
_TEXT	ENDS
;	COMDAT ?Allocate@CCRTAllocator@ATL@@SAPAXI@Z
_TEXT	SEGMENT PARA USE32 PUBLIC 'CODE'
_TEXT	ENDS
;	COMDAT ?GetData@CAtlSafeAllocBufferNode@?$CAtlSafeAllocBufferManager@VCCRTAllocator@ATL@@@_ATL_SAFE_ALLOCA_IMPL@ATL@@QAEPAXXZ
_TEXT	SEGMENT PARA USE32 PUBLIC 'CODE'
_TEXT	ENDS
;	COMDAT ?GetStringTypeExWThunk@ATL@@YGHKKPB_WHPAG@Z
_TEXT	SEGMENT PARA USE32 PUBLIC 'CODE'
_TEXT	ENDS
;	COMDAT ?GetStringTypeExWFake@ATL@@YGHKKPB_WHPAG@Z
_TEXT	SEGMENT PARA USE32 PUBLIC 'CODE'
_TEXT	ENDS
;	COMDAT ??0?$CTempBuffer@D$0IA@VCCRTAllocator@ATL@@@ATL@@QAE@XZ
_TEXT	SEGMENT PARA USE32 PUBLIC 'CODE'
_TEXT	ENDS
;	COMDAT ??1?$CTempBuffer@D$0IA@VCCRTAllocator@ATL@@@ATL@@QAE@XZ
_TEXT	SEGMENT PARA USE32 PUBLIC 'CODE'
_TEXT	ENDS
;	COMDAT ?FreeHeap@?$CTempBuffer@D$0IA@VCCRTAllocator@ATL@@@ATL@@AAEXXZ
_TEXT	SEGMENT PARA USE32 PUBLIC 'CODE'
_TEXT	ENDS
;	COMDAT ?Allocate@?$CTempBuffer@D$0IA@VCCRTAllocator@ATL@@@ATL@@QAEPADI@Z
_TEXT	SEGMENT PARA USE32 PUBLIC 'CODE'
_TEXT	ENDS
;	COMDAT ?AllocateBytes@?$CTempBuffer@D$0IA@VCCRTAllocator@ATL@@@ATL@@QAEPADI@Z
_TEXT	SEGMENT PARA USE32 PUBLIC 'CODE'
_TEXT	ENDS
;	COMDAT ??_C@_08GPODJFIN@m_p?5?$DN?$DN?50?$AA@
CONST	SEGMENT DWORD USE32 PUBLIC 'CONST'
CONST	ENDS
;	COMDAT ??_C@_0FH@BOCPFCEM@D?3?2Program?5Files?5?$CIx86?$CJ?2Microsoft@
CONST	SEGMENT DWORD USE32 PUBLIC 'CONST'
CONST	ENDS
;	COMDAT ?AllocateHeap@?$CTempBuffer@D$0IA@VCCRTAllocator@ATL@@@ATL@@AAEXI@Z
_TEXT	SEGMENT PARA USE32 PUBLIC 'CODE'
_TEXT	ENDS
;	COMDAT ??B?$CTempBuffer@D$0IA@VCCRTAllocator@ATL@@@ATL@@QBEPADXZ
_TEXT	SEGMENT PARA USE32 PUBLIC 'CODE'
_TEXT	ENDS
;	COMDAT ?lstrcmpiWThunk@ATL@@YGHPB_W0@Z
_TEXT	SEGMENT PARA USE32 PUBLIC 'CODE'
_TEXT	ENDS
;	COMDAT ?lstrcmpiWFake@ATL@@YGHPB_W0@Z
_TEXT	SEGMENT PARA USE32 PUBLIC 'CODE'
_TEXT	ENDS
;	COMDAT ?CharLowerWThunk@ATL@@YGPA_WPA_W@Z
_TEXT	SEGMENT PARA USE32 PUBLIC 'CODE'
_TEXT	ENDS
;	COMDAT ?CharLowerWFake@ATL@@YGPA_WPA_W@Z
_TEXT	SEGMENT PARA USE32 PUBLIC 'CODE'
_TEXT	ENDS
;	COMDAT ?AtlA2WHelper@@YGPA_WPA_WPBDHI@Z
_TEXT	SEGMENT PARA USE32 PUBLIC 'CODE'
_TEXT	ENDS
;	COMDAT ?CharUpperWThunk@ATL@@YGPA_WPA_W@Z
_TEXT	SEGMENT PARA USE32 PUBLIC 'CODE'
_TEXT	ENDS
;	COMDAT ?CharUpperWFake@ATL@@YGPA_WPA_W@Z
_TEXT	SEGMENT PARA USE32 PUBLIC 'CODE'
_TEXT	ENDS
;	COMDAT ?GetEnvironmentVariableWThunk@ATL@@YGKPB_WPA_WK@Z
_TEXT	SEGMENT PARA USE32 PUBLIC 'CODE'
_TEXT	ENDS
;	COMDAT ?GetEnvironmentVariableWFake@ATL@@YGKPB_WPA_WK@Z
_TEXT	SEGMENT PARA USE32 PUBLIC 'CODE'
_TEXT	ENDS
;	COMDAT ??0?$CW2AEX@$0IA@@ATL@@QAE@PB_W@Z
_TEXT	SEGMENT PARA USE32 PUBLIC 'CODE'
_TEXT	ENDS
;	COMDAT ?Init@?$CW2AEX@$0IA@@ATL@@AAEXPB_WI@Z
_TEXT	SEGMENT PARA USE32 PUBLIC 'CODE'
_TEXT	ENDS
;	COMDAT ?AtlThrowLastWin32@ATL@@YGXXZ
_TEXT	SEGMENT PARA USE32 PUBLIC 'CODE'
_TEXT	ENDS
;	COMDAT ??1?$CW2AEX@$0IA@@ATL@@QAE@XZ
_TEXT	SEGMENT PARA USE32 PUBLIC 'CODE'
_TEXT	ENDS
;	COMDAT ??B?$CW2AEX@$0IA@@ATL@@QBEPADXZ
_TEXT	SEGMENT PARA USE32 PUBLIC 'CODE'
_TEXT	ENDS
;	COMDAT ??_C@_0BA@CLMJJCOM@nSize?5?$DO?$DN?5nSizeW?$AA@
CONST	SEGMENT DWORD USE32 PUBLIC 'CONST'
CONST	ENDS
;	COMDAT ??_C@_0FH@KDPNIMBO@D?3?2Program?5Files?5?$CIx86?$CJ?2Microsoft@
CONST	SEGMENT DWORD USE32 PUBLIC 'CONST'
CONST	ENDS
;	COMDAT ?AddRef@CStringData@ATL@@QAEXXZ
_TEXT	SEGMENT PARA USE32 PUBLIC 'CODE'
_TEXT	ENDS
;	COMDAT ??_C@_09EEBKLCFA@nRefs?5?$DO?50?$AA@
CONST	SEGMENT DWORD USE32 PUBLIC 'CONST'
CONST	ENDS
;	COMDAT ?SetManager@CNilStringData@ATL@@QAEXPAUIAtlStringMgr@2@@Z
_TEXT	SEGMENT PARA USE32 PUBLIC 'CODE'
_TEXT	ENDS
;	COMDAT ??_C@_0BA@MLJMCNFJ@pStringMgr?5?$DN?$DN?50?$AA@
CONST	SEGMENT DWORD USE32 PUBLIC 'CONST'
CONST	ENDS
;	COMDAT ??0CNilStringData@ATL@@QAE@XZ
_TEXT	SEGMENT PARA USE32 PUBLIC 'CODE'
_TEXT	ENDS
;	COMDAT ??_7CAtlStringMgr@ATL@@6B@
CONST	SEGMENT DWORD USE32 PUBLIC 'CONST'
CONST	ENDS
;	COMDAT ??_7IData@@6B@
CONST	SEGMENT DWORD USE32 PUBLIC 'CONST'
CONST	ENDS
sxdata	SEGMENT DWORD USE32 'SXDATA'
sxdata	ENDS
FLAT	GROUP _DATA, CONST, _BSS
	ASSUME	CS: FLAT, DS: FLAT, SS: FLAT
endif

INCLUDELIB MSVCRTD
INCLUDELIB OLDNAMES

PUBLIC	?c_bIsMFCDLLTraits@?$_MFCDLLTraitsCheck@_WV?$StrTraitATL@_WV?$ChTraitsCRT@_W@ATL@@@ATL@@@_CSTRING_IMPL_@ATL@@2_NB ; ATL::_CSTRING_IMPL_::_MFCDLLTraitsCheck<wchar_t,ATL::StrTraitATL<wchar_t,ATL::ChTraitsCRT<wchar_t> > >::c_bIsMFCDLLTraits
PUBLIC	?g_pfnGetThreadACP@ATL@@3P6GIXZA		; ATL::g_pfnGetThreadACP
PUBLIC	?_AtlGetThreadACPThunk@ATL@@YGIXZ		; ATL::_AtlGetThreadACPThunk
PUBLIC	?c_bIsMFCDLLTraits@?$_MFCDLLTraitsCheck@DV?$StrTraitATL@DV?$ChTraitsCRT@D@ATL@@@ATL@@@_CSTRING_IMPL_@ATL@@2_NB ; ATL::_CSTRING_IMPL_::_MFCDLLTraitsCheck<char,ATL::StrTraitATL<char,ATL::ChTraitsCRT<char> > >::c_bIsMFCDLLTraits
PUBLIC	?_strthunks@ATL@@3U_AtlStringThunks@1@A		; ATL::_strthunks
PUBLIC	?GetEnvironmentVariableWThunk@ATL@@YGKPB_WPA_WK@Z ; ATL::GetEnvironmentVariableWThunk
PUBLIC	?CompareStringWThunk@ATL@@YGHKKPB_WH0H@Z	; ATL::CompareStringWThunk
PUBLIC	?GetStringTypeExWThunk@ATL@@YGHKKPB_WHPAG@Z	; ATL::GetStringTypeExWThunk
PUBLIC	?lstrcmpiWThunk@ATL@@YGHPB_W0@Z			; ATL::lstrcmpiWThunk
PUBLIC	?CharLowerWThunk@ATL@@YGPA_WPA_W@Z		; ATL::CharLowerWThunk
PUBLIC	?CharUpperWThunk@ATL@@YGPA_WPA_W@Z		; ATL::CharUpperWThunk
PUBLIC	?m_pData@LocalGameData@@2PAV1@A			; LocalGameData::m_pData
_BSS	SEGMENT
?m_pData@LocalGameData@@2PAV1@A DD 01H DUP (?)		; LocalGameData::m_pData
_BSS	ENDS
;	COMDAT ?c_bIsMFCDLLTraits@?$_MFCDLLTraitsCheck@DV?$StrTraitATL@DV?$ChTraitsCRT@D@ATL@@@ATL@@@_CSTRING_IMPL_@ATL@@2_NB
CONST	SEGMENT
?c_bIsMFCDLLTraits@?$_MFCDLLTraitsCheck@DV?$StrTraitATL@DV?$ChTraitsCRT@D@ATL@@@ATL@@@_CSTRING_IMPL_@ATL@@2_NB DB 00H ; ATL::_CSTRING_IMPL_::_MFCDLLTraitsCheck<char,ATL::StrTraitATL<char,ATL::ChTraitsCRT<char> > >::c_bIsMFCDLLTraits
CONST	ENDS
;	COMDAT ?c_bIsMFCDLLTraits@?$_MFCDLLTraitsCheck@_WV?$StrTraitATL@_WV?$ChTraitsCRT@_W@ATL@@@ATL@@@_CSTRING_IMPL_@ATL@@2_NB
CONST	SEGMENT
?c_bIsMFCDLLTraits@?$_MFCDLLTraitsCheck@_WV?$StrTraitATL@_WV?$ChTraitsCRT@_W@ATL@@@ATL@@@_CSTRING_IMPL_@ATL@@2_NB DB 00H ; ATL::_CSTRING_IMPL_::_MFCDLLTraitsCheck<wchar_t,ATL::StrTraitATL<wchar_t,ATL::ChTraitsCRT<wchar_t> > >::c_bIsMFCDLLTraits
CONST	ENDS
CONST	SEGMENT
$SG189671 DB	'%s\Resources\Profiles\usergame.xml', 00H
	ORG $+1
$SG189674 DB	'm_strDataFilePath:%s', 00H
	ORG $+3
$SG189675 DB	'DataAppStart', 00H
	ORG $+3
$SG189676 DB	'LocalGameData.txt', 00H
	ORG $+2
$SG189695 DB	'id', 00H
	ORG $+1
$SG189698 DB	'name', 00H
	ORG $+3
$SG189701 DB	'intro', 00H
	ORG $+2
$SG189704 DB	'pic', 00H
$SG189707 DB	'swf', 00H
$SG189710 DB	'lastplaytime', 00H
	ORG $+3
$SG189713 DB	'playcount', 00H
	ORG $+2
$SG189716 DB	'type', 00H
	ORG $+3
$SG189719 DB	'MD5', 00H
$SG189720 DB	'id', 00H
	ORG $+1
$SG189721 DB	'name', 00H
	ORG $+3
$SG189722 DB	'intro', 00H
	ORG $+2
$SG189723 DB	'pic', 00H
$SG189724 DB	'swf', 00H
$SG189725 DB	'lastplaytime', 00H
	ORG $+3
$SG189726 DB	'playcount', 00H
	ORG $+2
$SG189727 DB	'type', 00H
	ORG $+3
$SG189728 DB	'MD5', 00H
$SG189734 DB	'm_strDataFilePath:%s', 00H
	ORG $+3
$SG189735 DB	'LoadGameData', 00H
	ORG $+3
$SG189736 DB	'LocalGameData.txt', 00H
	ORG $+2
$SG189741 DB	'CMarkupArchive::Open success', 00H
	ORG $+3
$SG189742 DB	'LoadGameData', 00H
	ORG $+3
$SG189743 DB	'LocalGameData.txt', 00H
	ORG $+2
$SG189750 DB	'Id', 00H
	ORG $+1
$SG189752 DB	'Name', 00H
	ORG $+3
$SG189754 DB	'Intro', 00H
	ORG $+2
$SG189756 DB	'Img', 00H
$SG189758 DB	'AppPath', 00H
$SG189762 DB	0ceH, 0c4H, 0bcH, 0feH, 0b4H, 0e6H, 0d4H, 0daH, ':%s', 00H
$SG189763 DB	'LoadGameData', 00H
	ORG $+3
$SG189764 DB	'LocalGameData.txt', 00H
	ORG $+2
$SG189768 DB	0ceH, 0c4H, 0bcH, 0feH, 0b2H, 0bbH, 0b4H, 0e6H, 0d4H, 0daH
	DB	':%s', 00H
	ORG $+2
$SG189769 DB	'LoadGameData', 00H
	ORG $+3
$SG189770 DB	'LocalGameData.txt', 00H
	ORG $+2
$SG189778 DB	'.1', 00H
	ORG $+1
$SG189780 DB	'<?xml version="1.0" encoding="GBK"?><root/>', 00H
$SG189907 DB	'app', 00H
$SG189908 DB	'Id', 00H
	ORG $+1
$SG189909 DB	'Name', 00H
	ORG $+3
$SG189910 DB	'Intro', 00H
	ORG $+2
$SG189911 DB	'Img', 00H
$SG189912 DB	'AppPath', 00H
$SG191037 DB	'D:\Program Files (x86)\Microsoft Visual Studio .NET 2003'
	DB	'\Vc7\atlmfc\include\afxtempl.h', 00H
	ORG $+1
$SG191051 DB	'D:\Program Files (x86)\Microsoft Visual Studio .NET 2003'
	DB	'\Vc7\atlmfc\include\afxtempl.h', 00H
	ORG $+1
$SG191067 DB	'with ', 00H
	ORG $+2
$SG191068 DB	' elements', 00H
	ORG $+2
$SG191070 DB	0aH, 00H
	ORG $+2
$SG191077 DB	0aH, 00H
	ORG $+6
$SG191085 DB	'D:\Program Files (x86)\Microsoft Visual Studio .NET 2003'
	DB	'\Vc7\atlmfc\include\afxtempl.h', 00H
	ORG $+1
$SG191087 DB	'D:\Program Files (x86)\Microsoft Visual Studio .NET 2003'
	DB	'\Vc7\atlmfc\include\afxtempl.h', 00H
	ORG $+1
$SG191090 DB	'D:\Program Files (x86)\Microsoft Visual Studio .NET 2003'
	DB	'\Vc7\atlmfc\include\afxtempl.h', 00H
	ORG $+1
$SG191092 DB	'D:\Program Files (x86)\Microsoft Visual Studio .NET 2003'
	DB	'\Vc7\atlmfc\include\afxtempl.h', 00H
	ORG $+1
$SG191094 DB	'D:\Program Files (x86)\Microsoft Visual Studio .NET 2003'
	DB	'\Vc7\atlmfc\include\afxtempl.h', 00H
	ORG $+1
$SG191097 DB	'D:\Program Files (x86)\Microsoft Visual Studio .NET 2003'
	DB	'\Vc7\atlmfc\include\afxtempl.h', 00H
	ORG $+1
$SG191335 DB	'D:\Program Files (x86)\Microsoft Visual Studio .NET 2003'
	DB	'\Vc7\atlmfc\include\afxtempl.h', 00H
	ORG $+1
$SG191337 DB	'D:\Program Files (x86)\Microsoft Visual Studio .NET 2003'
	DB	'\Vc7\atlmfc\include\afxtempl.h', 00H
	ORG $+1
$SG191352 DB	'D:\Program Files (x86)\Microsoft Visual Studio .NET 2003'
	DB	'\Vc7\atlmfc\include\afxtempl.h', 00H
	ORG $+1
$SG191359 DB	'D:\Program Files (x86)\Microsoft Visual Studio .NET 2003'
	DB	'\Vc7\atlmfc\include\afxtempl.h', 00H
	ORG $+1
$SG191401 DB	'D:\Program Files (x86)\Microsoft Visual Studio .NET 2003'
	DB	'\Vc7\atlmfc\include\afxtempl.h', 00H
	ORG $+1
$SG191405 DB	'D:\Program Files (x86)\Microsoft Visual Studio .NET 2003'
	DB	'\Vc7\atlmfc\include\afxtempl.h', 00H
	ORG $+1
$SG191415 DB	'D:\Program Files (x86)\Microsoft Visual Studio .NET 2003'
	DB	'\Vc7\atlmfc\include\afxtempl.h', 00H
	ORG $+1
$SG191444 DB	'D:\Program Files (x86)\Microsoft Visual Studio .NET 2003'
	DB	'\Vc7\atlmfc\include\afxtempl.h', 00H
	ORG $+1
$SG191469 DB	'D:\Program Files (x86)\Microsoft Visual Studio .NET 2003'
	DB	'\Vc7\atlmfc\include\afxtempl.h', 00H
CONST	ENDS
;	COMDAT ?g_pfnGetThreadACP@ATL@@3P6GIXZA
_DATA	SEGMENT
?g_pfnGetThreadACP@ATL@@3P6GIXZA DD FLAT:?_AtlGetThreadACPThunk@ATL@@YGIXZ ; ATL::g_pfnGetThreadACP
_DATA	ENDS
;	COMDAT ?_strthunks@ATL@@3U_AtlStringThunks@1@A
_DATA	SEGMENT
?_strthunks@ATL@@3U_AtlStringThunks@1@A DD FLAT:?CompareStringWThunk@ATL@@YGHKKPB_WH0H@Z ; ATL::_strthunks
	DD	FLAT:?GetStringTypeExWThunk@ATL@@YGHKKPB_WHPAG@Z
	DD	FLAT:?lstrcmpiWThunk@ATL@@YGHPB_W0@Z
	DD	FLAT:?CharLowerWThunk@ATL@@YGPA_WPA_W@Z
	DD	FLAT:?CharUpperWThunk@ATL@@YGPA_WPA_W@Z
	DD	FLAT:?GetEnvironmentVariableWThunk@ATL@@YGKPB_WPA_WK@Z
_DATA	ENDS
CONST	SEGMENT
	ORG $+1
_ID_MESSAGE_QQ_ITEM_CHANGE DD 0eH
CONST	ENDS
PUBLIC	?InterlockedExchangePointer@@YGPAXPAPAXPAX@Z	; InterlockedExchangePointer
PUBLIC	?_AtlGetThreadACPFake@ATL@@YGIXZ		; ATL::_AtlGetThreadACPFake
PUBLIC	?_AtlGetThreadACPReal@ATL@@YGIXZ		; ATL::_AtlGetThreadACPReal
EXTRN	__imp__GetVersionExA@4:NEAR
EXTRN	__RTC_InitBase:NEAR
EXTRN	__RTC_Shutdown:NEAR
EXTRN	__RTC_CheckEsp:NEAR
EXTRN	___security_cookie:DWORD
EXTRN	@_RTC_CheckStackVars@8:NEAR
EXTRN	@__security_check_cookie@4:NEAR
;	COMDAT rtc$IMZ
; File d:\program files (x86)\microsoft visual studio .net 2003\vc7\atlmfc\include\atlconv.h
rtc$IMZ	SEGMENT
__RTC_InitBase.rtc$IMZ DD FLAT:__RTC_InitBase
rtc$IMZ	ENDS
;	COMDAT rtc$TMZ
rtc$TMZ	SEGMENT
__RTC_Shutdown.rtc$TMZ DD FLAT:__RTC_Shutdown
; Function compile flags: /Odt /RTCsu
rtc$TMZ	ENDS
;	COMDAT ?_AtlGetThreadACPThunk@ATL@@YGIXZ
_TEXT	SEGMENT
_pfnGetThreadACP$ = -164				; size = 4
_ver$ = -156						; size = 148
__$ArrayPad$ = -4					; size = 4
__$ReturnAddr$ = 4					; size = 4
?_AtlGetThreadACPThunk@ATL@@YGIXZ PROC NEAR		; ATL::_AtlGetThreadACPThunk, COMDAT

; 134  : {

  00000	55		 push	 ebp
  00001	8b ec		 mov	 ebp, esp
  00003	81 ec a4 00 00
	00		 sub	 esp, 164		; 000000a4H
  00009	56		 push	 esi
  0000a	57		 push	 edi
  0000b	8d bd 5c ff ff
	ff		 lea	 edi, DWORD PTR [ebp-164]
  00011	b9 29 00 00 00	 mov	 ecx, 41			; 00000029H
  00016	b8 cc cc cc cc	 mov	 eax, -858993460		; ccccccccH
  0001b	f3 ab		 rep stosd
  0001d	a1 00 00 00 00	 mov	 eax, DWORD PTR ___security_cookie
  00022	89 45 fc	 mov	 DWORD PTR __$ArrayPad$[ebp], eax

; 135  : 	OSVERSIONINFO ver;
; 136  : 	ATLGETTHREADACP pfnGetThreadACP;
; 137  : 
; 138  : 	ver.dwOSVersionInfoSize = sizeof( ver );

  00025	c7 85 64 ff ff
	ff 94 00 00 00	 mov	 DWORD PTR _ver$[ebp], 148 ; 00000094H

; 139  : 	::GetVersionEx( &ver );

  0002f	8b f4		 mov	 esi, esp
  00031	8d 85 64 ff ff
	ff		 lea	 eax, DWORD PTR _ver$[ebp]
  00037	50		 push	 eax
  00038	ff 15 00 00 00
	00		 call	 DWORD PTR __imp__GetVersionExA@4
  0003e	3b f4		 cmp	 esi, esp
  00040	e8 00 00 00 00	 call	 __RTC_CheckEsp

; 140  : 	if( (ver.dwPlatformId == VER_PLATFORM_WIN32_NT) && (ver.dwMajorVersion >= 5) )

  00045	83 bd 74 ff ff
	ff 02		 cmp	 DWORD PTR _ver$[ebp+16], 2
  0004c	75 15		 jne	 SHORT $L24163
  0004e	83 bd 68 ff ff
	ff 05		 cmp	 DWORD PTR _ver$[ebp+4], 5
  00055	72 0c		 jb	 SHORT $L24163

; 141  : 	{
; 142  : 		// On Win2K, CP_THREAD_ACP is supported
; 143  : 		pfnGetThreadACP = _AtlGetThreadACPReal;

  00057	c7 85 5c ff ff
	ff 00 00 00 00	 mov	 DWORD PTR _pfnGetThreadACP$[ebp], OFFSET FLAT:?_AtlGetThreadACPReal@ATL@@YGIXZ ; ATL::_AtlGetThreadACPReal

; 144  : 	}
; 145  : 	else

  00061	eb 0a		 jmp	 SHORT $L24164
$L24163:

; 146  : 	{
; 147  : 		pfnGetThreadACP = _AtlGetThreadACPFake;

  00063	c7 85 5c ff ff
	ff 00 00 00 00	 mov	 DWORD PTR _pfnGetThreadACP$[ebp], OFFSET FLAT:?_AtlGetThreadACPFake@ATL@@YGIXZ ; ATL::_AtlGetThreadACPFake
$L24164:

; 148  : 	}
; 149  : 	InterlockedExchangePointer( reinterpret_cast< void** >(&g_pfnGetThreadACP), pfnGetThreadACP );

  0006d	8b 8d 5c ff ff
	ff		 mov	 ecx, DWORD PTR _pfnGetThreadACP$[ebp]
  00073	51		 push	 ecx
  00074	68 00 00 00 00	 push	 OFFSET FLAT:?g_pfnGetThreadACP@ATL@@3P6GIXZA ; ATL::g_pfnGetThreadACP
  00079	e8 00 00 00 00	 call	 ?InterlockedExchangePointer@@YGPAXPAPAXPAX@Z ; InterlockedExchangePointer

; 150  : 
; 151  : 	return( g_pfnGetThreadACP() );

  0007e	8b f4		 mov	 esi, esp
  00080	ff 15 00 00 00
	00		 call	 DWORD PTR ?g_pfnGetThreadACP@ATL@@3P6GIXZA ; ATL::g_pfnGetThreadACP
  00086	3b f4		 cmp	 esi, esp
  00088	e8 00 00 00 00	 call	 __RTC_CheckEsp

; 152  : }

  0008d	52		 push	 edx
  0008e	8b cd		 mov	 ecx, ebp
  00090	50		 push	 eax
  00091	8d 15 00 00 00
	00		 lea	 edx, DWORD PTR $L192327
  00097	e8 00 00 00 00	 call	 @_RTC_CheckStackVars@8
  0009c	58		 pop	 eax
  0009d	5a		 pop	 edx
  0009e	8b 4d fc	 mov	 ecx, DWORD PTR __$ArrayPad$[ebp]
  000a1	e8 00 00 00 00	 call	 @__security_check_cookie@4
  000a6	5f		 pop	 edi
  000a7	5e		 pop	 esi
  000a8	81 c4 a4 00 00
	00		 add	 esp, 164		; 000000a4H
  000ae	3b ec		 cmp	 ebp, esp
  000b0	e8 00 00 00 00	 call	 __RTC_CheckEsp
  000b5	8b e5		 mov	 esp, ebp
  000b7	5d		 pop	 ebp
  000b8	c3		 ret	 0
$L192327:
  000b9	01 00 00 00	 DD	 1
  000bd	00 00 00 00	 DD	 $L192326
$L192326:
  000c1	64 ff ff ff	 DD	 -156			; ffffff64H
  000c5	94 00 00 00	 DD	 148			; 00000094H
  000c9	00 00 00 00	 DD	 $L192323
$L192323:
  000cd	76		 DB	 118			; 00000076H
  000ce	65		 DB	 101			; 00000065H
  000cf	72		 DB	 114			; 00000072H
  000d0	00		 DB	 0
?_AtlGetThreadACPThunk@ATL@@YGIXZ ENDP			; ATL::_AtlGetThreadACPThunk
_TEXT	ENDS
EXTRN	__imp__InterlockedExchange@8:NEAR
; Function compile flags: /Odt /RTCsu
;	COMDAT ?InterlockedExchangePointer@@YGPAXPAPAXPAX@Z
_TEXT	SEGMENT
_pp$ = 8						; size = 4
_pNew$ = 12						; size = 4
?InterlockedExchangePointer@@YGPAXPAPAXPAX@Z PROC NEAR	; InterlockedExchangePointer, COMDAT

; 91   : {

  00000	55		 push	 ebp
  00001	8b ec		 mov	 ebp, esp
  00003	56		 push	 esi

; 92   : 	return( reinterpret_cast<void*>(static_cast<LONG_PTR>(::InterlockedExchange(reinterpret_cast<LONG*>(pp), static_cast<LONG>(reinterpret_cast<LONG_PTR>(pNew))))) );

  00004	8b f4		 mov	 esi, esp
  00006	8b 45 0c	 mov	 eax, DWORD PTR _pNew$[ebp]
  00009	50		 push	 eax
  0000a	8b 4d 08	 mov	 ecx, DWORD PTR _pp$[ebp]
  0000d	51		 push	 ecx
  0000e	ff 15 00 00 00
	00		 call	 DWORD PTR __imp__InterlockedExchange@8
  00014	3b f4		 cmp	 esi, esp
  00016	e8 00 00 00 00	 call	 __RTC_CheckEsp

; 93   : }

  0001b	5e		 pop	 esi
  0001c	3b ec		 cmp	 ebp, esp
  0001e	e8 00 00 00 00	 call	 __RTC_CheckEsp
  00023	5d		 pop	 ebp
  00024	c2 08 00	 ret	 8
?InterlockedExchangePointer@@YGPAXPAPAXPAX@Z ENDP	; InterlockedExchangePointer
_TEXT	ENDS
EXTRN	__imp__GetACP@0:NEAR
EXTRN	__imp__GetLocaleInfoA@16:NEAR
EXTRN	__imp__GetThreadLocale@0:NEAR
; Function compile flags: /Odt /RTCsu
;	COMDAT ?_AtlGetThreadACPFake@ATL@@YGIXZ
_TEXT	SEGMENT
_pch$24151 = -32					; size = 4
_szACP$ = -24						; size = 7
_lcidThread$ = -12					; size = 4
_nACP$ = -8						; size = 4
__$ArrayPad$ = -4					; size = 4
__$ReturnAddr$ = 4					; size = 4
?_AtlGetThreadACPFake@ATL@@YGIXZ PROC NEAR		; ATL::_AtlGetThreadACPFake, COMDAT

; 101  : {

  00000	55		 push	 ebp
  00001	8b ec		 mov	 ebp, esp
  00003	83 ec 20	 sub	 esp, 32			; 00000020H
  00006	56		 push	 esi
  00007	b8 cc cc cc cc	 mov	 eax, -858993460		; ccccccccH
  0000c	89 45 e0	 mov	 DWORD PTR [ebp-32], eax
  0000f	89 45 e4	 mov	 DWORD PTR [ebp-28], eax
  00012	89 45 e8	 mov	 DWORD PTR [ebp-24], eax
  00015	89 45 ec	 mov	 DWORD PTR [ebp-20], eax
  00018	89 45 f0	 mov	 DWORD PTR [ebp-16], eax
  0001b	89 45 f4	 mov	 DWORD PTR [ebp-12], eax
  0001e	89 45 f8	 mov	 DWORD PTR [ebp-8], eax
  00021	89 45 fc	 mov	 DWORD PTR [ebp-4], eax
  00024	a1 00 00 00 00	 mov	 eax, DWORD PTR ___security_cookie
  00029	89 45 fc	 mov	 DWORD PTR __$ArrayPad$[ebp], eax

; 102  : 	UINT nACP = 0;

  0002c	c7 45 f8 00 00
	00 00		 mov	 DWORD PTR _nACP$[ebp], 0

; 103  : 
; 104  : 	LCID lcidThread = ::GetThreadLocale();

  00033	8b f4		 mov	 esi, esp
  00035	ff 15 00 00 00
	00		 call	 DWORD PTR __imp__GetThreadLocale@0
  0003b	3b f4		 cmp	 esi, esp
  0003d	e8 00 00 00 00	 call	 __RTC_CheckEsp
  00042	89 45 f4	 mov	 DWORD PTR _lcidThread$[ebp], eax

; 105  : 
; 106  : 	char szACP[7];
; 107  : 	// GetLocaleInfoA will fail for a Unicode-only LCID, but those are only supported on 
; 108  : 	// Windows 2000.  Since Windows 2000 supports CP_THREAD_ACP, this code path is never
; 109  : 	// executed on Windows 2000.
; 110  : 	if (::GetLocaleInfoA(lcidThread, LOCALE_IDEFAULTANSICODEPAGE, szACP, 7) != 0)

  00045	8b f4		 mov	 esi, esp
  00047	6a 07		 push	 7
  00049	8d 45 e8	 lea	 eax, DWORD PTR _szACP$[ebp]
  0004c	50		 push	 eax
  0004d	68 04 10 00 00	 push	 4100			; 00001004H
  00052	8b 4d f4	 mov	 ecx, DWORD PTR _lcidThread$[ebp]
  00055	51		 push	 ecx
  00056	ff 15 00 00 00
	00		 call	 DWORD PTR __imp__GetLocaleInfoA@16
  0005c	3b f4		 cmp	 esi, esp
  0005e	e8 00 00 00 00	 call	 __RTC_CheckEsp
  00063	85 c0		 test	 eax, eax
  00065	74 34		 je	 SHORT $L24150

; 111  : 	{
; 112  : 		char* pch = szACP;

  00067	8d 55 e8	 lea	 edx, DWORD PTR _szACP$[ebp]
  0006a	89 55 e0	 mov	 DWORD PTR _pch$24151[ebp], edx
$L24153:

; 113  : 		while (*pch != '\0')

  0006d	8b 45 e0	 mov	 eax, DWORD PTR _pch$24151[ebp]
  00070	0f be 08	 movsx	 ecx, BYTE PTR [eax]
  00073	85 c9		 test	 ecx, ecx
  00075	74 24		 je	 SHORT $L24150

; 114  : 		{
; 115  : 			nACP *= 10;

  00077	8b 55 f8	 mov	 edx, DWORD PTR _nACP$[ebp]
  0007a	6b d2 0a	 imul	 edx, 10			; 0000000aH
  0007d	89 55 f8	 mov	 DWORD PTR _nACP$[ebp], edx

; 116  : 			nACP += *pch++ - '0';

  00080	8b 45 e0	 mov	 eax, DWORD PTR _pch$24151[ebp]
  00083	0f be 08	 movsx	 ecx, BYTE PTR [eax]
  00086	8b 55 f8	 mov	 edx, DWORD PTR _nACP$[ebp]
  00089	8d 44 0a d0	 lea	 eax, DWORD PTR [edx+ecx-48]
  0008d	89 45 f8	 mov	 DWORD PTR _nACP$[ebp], eax
  00090	8b 4d e0	 mov	 ecx, DWORD PTR _pch$24151[ebp]
  00093	83 c1 01	 add	 ecx, 1
  00096	89 4d e0	 mov	 DWORD PTR _pch$24151[ebp], ecx

; 117  : 		}

  00099	eb d2		 jmp	 SHORT $L24153
$L24150:

; 118  : 	}
; 119  : 	// Use the Default ANSI Code Page if we were unable to get the thread ACP or if one does not exist.
; 120  : 	if (nACP == 0)

  0009b	83 7d f8 00	 cmp	 DWORD PTR _nACP$[ebp], 0
  0009f	75 12		 jne	 SHORT $L24155

; 121  : 		nACP = ::GetACP();

  000a1	8b f4		 mov	 esi, esp
  000a3	ff 15 00 00 00
	00		 call	 DWORD PTR __imp__GetACP@0
  000a9	3b f4		 cmp	 esi, esp
  000ab	e8 00 00 00 00	 call	 __RTC_CheckEsp
  000b0	89 45 f8	 mov	 DWORD PTR _nACP$[ebp], eax
$L24155:

; 122  : 
; 123  : 	return nACP;

  000b3	8b 45 f8	 mov	 eax, DWORD PTR _nACP$[ebp]

; 124  : }

  000b6	52		 push	 edx
  000b7	8b cd		 mov	 ecx, ebp
  000b9	50		 push	 eax
  000ba	8d 15 00 00 00
	00		 lea	 edx, DWORD PTR $L192338
  000c0	e8 00 00 00 00	 call	 @_RTC_CheckStackVars@8
  000c5	58		 pop	 eax
  000c6	5a		 pop	 edx
  000c7	8b 4d fc	 mov	 ecx, DWORD PTR __$ArrayPad$[ebp]
  000ca	e8 00 00 00 00	 call	 @__security_check_cookie@4
  000cf	5e		 pop	 esi
  000d0	83 c4 20	 add	 esp, 32			; 00000020H
  000d3	3b ec		 cmp	 ebp, esp
  000d5	e8 00 00 00 00	 call	 __RTC_CheckEsp
  000da	8b e5		 mov	 esp, ebp
  000dc	5d		 pop	 ebp
  000dd	c3		 ret	 0
$L192338:
  000de	01 00 00 00	 DD	 1
  000e2	00 00 00 00	 DD	 $L192337
$L192337:
  000e6	e8 ff ff ff	 DD	 -24			; ffffffe8H
  000ea	07 00 00 00	 DD	 7
  000ee	00 00 00 00	 DD	 $L192335
$L192335:
  000f2	73		 DB	 115			; 00000073H
  000f3	7a		 DB	 122			; 0000007aH
  000f4	41		 DB	 65			; 00000041H
  000f5	43		 DB	 67			; 00000043H
  000f6	50		 DB	 80			; 00000050H
  000f7	00		 DB	 0
?_AtlGetThreadACPFake@ATL@@YGIXZ ENDP			; ATL::_AtlGetThreadACPFake
; Function compile flags: /Odt /RTCsu
_TEXT	ENDS
;	COMDAT ?_AtlGetThreadACPReal@ATL@@YGIXZ
_TEXT	SEGMENT
?_AtlGetThreadACPReal@ATL@@YGIXZ PROC NEAR		; ATL::_AtlGetThreadACPReal, COMDAT

; 127  : {

  00000	55		 push	 ebp
  00001	8b ec		 mov	 ebp, esp

; 128  : 	return( CP_THREAD_ACP );

  00003	b8 03 00 00 00	 mov	 eax, 3

; 129  : }

  00008	5d		 pop	 ebp
  00009	c3		 ret	 0
?_AtlGetThreadACPReal@ATL@@YGIXZ ENDP			; ATL::_AtlGetThreadACPReal
_TEXT	ENDS
PUBLIC	?GetInstance@LocalGameData@@SAPAVIData@@XZ	; LocalGameData::GetInstance
PUBLIC	??0LocalGameData@@QAE@XZ			; LocalGameData::LocalGameData
EXTRN	??2@YAPAXI@Z:NEAR				; operator new
EXTRN	??3@YAXPAX@Z:NEAR				; operator delete
EXTRN	__except_list:DWORD
EXTRN	___CxxFrameHandler:NEAR
xdata$x	SEGMENT
$T192352 DD	0ffffffffH
	DD	FLAT:$L192345
$T192349 DD	019930520H
	DD	01H
	DD	FLAT:$T192352
	DD	2 DUP(00H)
	DD	2 DUP(00H)
; Function compile flags: /Odt /RTCsu
; File d:\boxgit\playbox\playbox\dev\prj\playbox\src\module\httpdown\localgamedata.cpp
xdata$x	ENDS
_TEXT	SEGMENT
tv72 = -24						; size = 4
$T192342 = -20						; size = 4
$T192341 = -16						; size = 4
__$EHRec$ = -12						; size = 12
?GetInstance@LocalGameData@@SAPAVIData@@XZ PROC NEAR	; LocalGameData::GetInstance

; 15   : {

  00000	55		 push	 ebp
  00001	8b ec		 mov	 ebp, esp
  00003	6a ff		 push	 -1
  00005	68 00 00 00 00	 push	 __ehhandler$?GetInstance@LocalGameData@@SAPAVIData@@XZ
  0000a	64 a1 00 00 00
	00		 mov	 eax, DWORD PTR fs:__except_list
  00010	50		 push	 eax
  00011	64 89 25 00 00
	00 00		 mov	 DWORD PTR fs:__except_list, esp
  00018	83 ec 0c	 sub	 esp, 12			; 0000000cH
  0001b	c7 45 e8 cc cc
	cc cc		 mov	 DWORD PTR [ebp-24], -858993460 ; ccccccccH
  00022	c7 45 ec cc cc
	cc cc		 mov	 DWORD PTR [ebp-20], -858993460 ; ccccccccH
  00029	c7 45 f0 cc cc
	cc cc		 mov	 DWORD PTR [ebp-16], -858993460 ; ccccccccH

; 16   : 	if(m_pData == NULL)

  00030	83 3d 00 00 00
	00 00		 cmp	 DWORD PTR ?m_pData@LocalGameData@@2PAV1@A, 0 ; LocalGameData::m_pData
  00037	75 44		 jne	 SHORT $L189639

; 17   : 		m_pData = new LocalGameData();

  00039	6a 30		 push	 48			; 00000030H
  0003b	e8 00 00 00 00	 call	 ??2@YAPAXI@Z		; operator new
  00040	83 c4 04	 add	 esp, 4
  00043	89 45 ec	 mov	 DWORD PTR $T192342[ebp], eax
  00046	c7 45 fc 00 00
	00 00		 mov	 DWORD PTR __$EHRec$[ebp+8], 0
  0004d	83 7d ec 00	 cmp	 DWORD PTR $T192342[ebp], 0
  00051	74 0d		 je	 SHORT $L192343
  00053	8b 4d ec	 mov	 ecx, DWORD PTR $T192342[ebp]
  00056	e8 00 00 00 00	 call	 ??0LocalGameData@@QAE@XZ
  0005b	89 45 e8	 mov	 DWORD PTR tv72[ebp], eax
  0005e	eb 07		 jmp	 SHORT $L192344
$L192343:
  00060	c7 45 e8 00 00
	00 00		 mov	 DWORD PTR tv72[ebp], 0
$L192344:
  00067	8b 45 e8	 mov	 eax, DWORD PTR tv72[ebp]
  0006a	89 45 f0	 mov	 DWORD PTR $T192341[ebp], eax
  0006d	c7 45 fc ff ff
	ff ff		 mov	 DWORD PTR __$EHRec$[ebp+8], -1
  00074	8b 4d f0	 mov	 ecx, DWORD PTR $T192341[ebp]
  00077	89 0d 00 00 00
	00		 mov	 DWORD PTR ?m_pData@LocalGameData@@2PAV1@A, ecx ; LocalGameData::m_pData
$L189639:

; 18   : 	return m_pData;

  0007d	a1 00 00 00 00	 mov	 eax, DWORD PTR ?m_pData@LocalGameData@@2PAV1@A ; LocalGameData::m_pData

; 19   : }

  00082	8b 4d f4	 mov	 ecx, DWORD PTR __$EHRec$[ebp]
  00085	64 89 0d 00 00
	00 00		 mov	 DWORD PTR fs:__except_list, ecx
  0008c	83 c4 18	 add	 esp, 24			; 00000018H
  0008f	3b ec		 cmp	 ebp, esp
  00091	e8 00 00 00 00	 call	 __RTC_CheckEsp
  00096	8b e5		 mov	 esp, ebp
  00098	5d		 pop	 ebp
  00099	c3		 ret	 0
_TEXT	ENDS
text$x	SEGMENT
$L192345:
  00000	8b 45 ec	 mov	 eax, DWORD PTR $T192342[ebp]
  00003	50		 push	 eax
  00004	e8 00 00 00 00	 call	 ??3@YAXPAX@Z		; operator delete
  00009	59		 pop	 ecx
  0000a	c3		 ret	 0
__ehhandler$?GetInstance@LocalGameData@@SAPAVIData@@XZ:
  0000b	b8 00 00 00 00	 mov	 eax, OFFSET FLAT:$T192349
  00010	e9 00 00 00 00	 jmp	 ___CxxFrameHandler
text$x	ENDS
?GetInstance@LocalGameData@@SAPAVIData@@XZ ENDP		; LocalGameData::GetInstance
PUBLIC	??_R0?AVILocalGameData@@@8			; ILocalGameData `RTTI Type Descriptor'
PUBLIC	??_R1A@?0A@A@ILocalGameData@@8			; ILocalGameData::`RTTI Base Class Descriptor at (0,-1,0,0)'
PUBLIC	??_R1A@?0A@A@IData@@8				; IData::`RTTI Base Class Descriptor at (0,-1,0,0)'
PUBLIC	??_R0?AVIData@@@8				; IData `RTTI Type Descriptor'
PUBLIC	??_R4LocalGameData@@6B@				; LocalGameData::`RTTI Complete Object Locator'
PUBLIC	??_R0?AVLocalGameData@@@8			; LocalGameData `RTTI Type Descriptor'
PUBLIC	??_R3LocalGameData@@8				; LocalGameData::`RTTI Class Hierarchy Descriptor'
PUBLIC	??_R2LocalGameData@@8				; LocalGameData::`RTTI Base Class Array'
PUBLIC	??_R1A@?0A@A@LocalGameData@@8			; LocalGameData::`RTTI Base Class Descriptor at (0,-1,0,0)'
PUBLIC	??0ILocalGameData@@QAE@XZ			; ILocalGameData::ILocalGameData
PUBLIC	??1ILocalGameData@@UAE@XZ			; ILocalGameData::~ILocalGameData
PUBLIC	??0?$vector@UOneLocalGame@@V?$allocator@UOneLocalGame@@@std@@@std@@QAE@XZ ; std::vector<OneLocalGame,std::allocator<OneLocalGame> >::vector<OneLocalGame,std::allocator<OneLocalGame> >
PUBLIC	??1?$vector@UOneLocalGame@@V?$allocator@UOneLocalGame@@@std@@@std@@QAE@XZ ; std::vector<OneLocalGame,std::allocator<OneLocalGame> >::~vector<OneLocalGame,std::allocator<OneLocalGame> >
PUBLIC	?DataAppStart@LocalGameData@@UAEXXZ		; LocalGameData::DataAppStart
PUBLIC	?DataAppExit@LocalGameData@@UAEXXZ		; LocalGameData::DataAppExit
PUBLIC	?ILocalGameData_GetGameByID@LocalGameData@@UAE_NV?$basic_string@DU?$char_traits@D@std@@V?$allocator@D@2@@std@@AAUOneLocalGame@@@Z ; LocalGameData::ILocalGameData_GetGameByID
PUBLIC	?ILocalGameData_AddGame@LocalGameData@@UAE_NV?$basic_string@DU?$char_traits@D@std@@V?$allocator@D@2@@std@@0000I0@Z ; LocalGameData::ILocalGameData_AddGame
PUBLIC	?ILocalGameData_DelGame@LocalGameData@@UAE_NV?$basic_string@DU?$char_traits@D@std@@V?$allocator@D@2@@std@@@Z ; LocalGameData::ILocalGameData_DelGame
PUBLIC	?ILocalGameData_GetAllGame@LocalGameData@@UAE_NAAV?$vector@UOneLocalGame@@V?$allocator@UOneLocalGame@@@std@@@std@@@Z ; LocalGameData::ILocalGameData_GetAllGame
PUBLIC	?ILocalGameData_GetGameCount@LocalGameData@@UAEIXZ ; LocalGameData::ILocalGameData_GetGameCount
PUBLIC	??_7LocalGameData@@6B@				; LocalGameData::`vftable'
PUBLIC	??_GLocalGameData@@UAEPAXI@Z			; LocalGameData::`scalar deleting destructor'
EXTRN	__imp_??0?$basic_string@DU?$char_traits@D@std@@V?$allocator@D@2@@std@@QAE@XZ:NEAR
EXTRN	??_7type_info@@6B@:QWORD			; type_info::`vftable'
EXTRN	??_ELocalGameData@@UAEPAXI@Z:NEAR		; LocalGameData::`vector deleting destructor'
;	COMDAT xdata$x
xdata$x	SEGMENT
$T192361 DD	0ffffffffH
	DD	FLAT:$L192355
	DD	00H
	DD	FLAT:$L192356
$T192359 DD	019930520H
	DD	02H
	DD	FLAT:$T192361
	DD	2 DUP(00H)
	DD	2 DUP(00H)
xdata$x	ENDS
;	COMDAT ??_7LocalGameData@@6B@
CONST	SEGMENT
??_7LocalGameData@@6B@ DD FLAT:??_R4LocalGameData@@6B@	; LocalGameData::`vftable'
	DD	FLAT:??_ELocalGameData@@UAEPAXI@Z
	DD	FLAT:?DataAppStart@LocalGameData@@UAEXXZ
	DD	FLAT:?DataAppExit@LocalGameData@@UAEXXZ
	DD	FLAT:?ILocalGameData_GetGameByID@LocalGameData@@UAE_NV?$basic_string@DU?$char_traits@D@std@@V?$allocator@D@2@@std@@AAUOneLocalGame@@@Z
	DD	FLAT:?ILocalGameData_AddGame@LocalGameData@@UAE_NV?$basic_string@DU?$char_traits@D@std@@V?$allocator@D@2@@std@@0000I0@Z
	DD	FLAT:?ILocalGameData_DelGame@LocalGameData@@UAE_NV?$basic_string@DU?$char_traits@D@std@@V?$allocator@D@2@@std@@@Z
	DD	FLAT:?ILocalGameData_GetAllGame@LocalGameData@@UAE_NAAV?$vector@UOneLocalGame@@V?$allocator@UOneLocalGame@@@std@@@std@@@Z
	DD	FLAT:?ILocalGameData_GetGameCount@LocalGameData@@UAEIXZ
CONST	ENDS
;	COMDAT ??_R4LocalGameData@@6B@
rdata$r	SEGMENT
??_R4LocalGameData@@6B@ DD 00H				; LocalGameData::`RTTI Complete Object Locator'
	DD	00H
	DD	00H
	DD	FLAT:??_R0?AVLocalGameData@@@8
	DD	FLAT:??_R3LocalGameData@@8
rdata$r	ENDS
;	COMDAT ??_R0?AVLocalGameData@@@8
_DATA	SEGMENT
??_R0?AVLocalGameData@@@8 DD FLAT:??_7type_info@@6B@	; LocalGameData `RTTI Type Descriptor'
	DD	00H
	DB	'.?AVLocalGameData@@', 00H
_DATA	ENDS
;	COMDAT ??_R3LocalGameData@@8
rdata$r	SEGMENT
??_R3LocalGameData@@8 DD 00H				; LocalGameData::`RTTI Class Hierarchy Descriptor'
	DD	00H
	DD	03H
	DD	FLAT:??_R2LocalGameData@@8
rdata$r	ENDS
;	COMDAT ??_R2LocalGameData@@8
rdata$r	SEGMENT
??_R2LocalGameData@@8 DD FLAT:??_R1A@?0A@A@LocalGameData@@8 ; LocalGameData::`RTTI Base Class Array'
	DD	FLAT:??_R1A@?0A@A@ILocalGameData@@8
	DD	FLAT:??_R1A@?0A@A@IData@@8
rdata$r	ENDS
;	COMDAT ??_R1A@?0A@A@LocalGameData@@8
rdata$r	SEGMENT
??_R1A@?0A@A@LocalGameData@@8 DD FLAT:??_R0?AVLocalGameData@@@8 ; LocalGameData::`RTTI Base Class Descriptor at (0,-1,0,0)'
	DD	02H
	DD	00H
	DD	0ffffffffH
	DD	00H
	DD	00H
rdata$r	ENDS
;	COMDAT ??_R1A@?0A@A@ILocalGameData@@8
rdata$r	SEGMENT
??_R1A@?0A@A@ILocalGameData@@8 DD FLAT:??_R0?AVILocalGameData@@@8 ; ILocalGameData::`RTTI Base Class Descriptor at (0,-1,0,0)'
	DD	01H
	DD	00H
	DD	0ffffffffH
	DD	00H
	DD	00H
rdata$r	ENDS
;	COMDAT ??_R0?AVILocalGameData@@@8
_DATA	SEGMENT
??_R0?AVILocalGameData@@@8 DD FLAT:??_7type_info@@6B@	; ILocalGameData `RTTI Type Descriptor'
	DD	00H
	DB	'.?AVILocalGameData@@', 00H
_DATA	ENDS
;	COMDAT ??_R1A@?0A@A@IData@@8
rdata$r	SEGMENT
??_R1A@?0A@A@IData@@8 DD FLAT:??_R0?AVIData@@@8		; IData::`RTTI Base Class Descriptor at (0,-1,0,0)'
	DD	00H
	DD	00H
	DD	0ffffffffH
	DD	00H
	DD	00H
rdata$r	ENDS
;	COMDAT ??_R0?AVIData@@@8
_DATA	SEGMENT
??_R0?AVIData@@@8 DD FLAT:??_7type_info@@6B@		; IData `RTTI Type Descriptor'
	DD	00H
	DB	'.?AVIData@@', 00H
; Function compile flags: /Odt /RTCsu
_DATA	ENDS
;	COMDAT ??0LocalGameData@@QAE@XZ
_TEXT	SEGMENT
_this$ = -16						; size = 4
__$EHRec$ = -12						; size = 12
??0LocalGameData@@QAE@XZ PROC NEAR			; LocalGameData::LocalGameData, COMDAT
; _this$ = ecx
  00000	55		 push	 ebp
  00001	8b ec		 mov	 ebp, esp
  00003	6a ff		 push	 -1
  00005	68 00 00 00 00	 push	 __ehhandler$??0LocalGameData@@QAE@XZ
  0000a	64 a1 00 00 00
	00		 mov	 eax, DWORD PTR fs:__except_list
  00010	50		 push	 eax
  00011	64 89 25 00 00
	00 00		 mov	 DWORD PTR fs:__except_list, esp
  00018	51		 push	 ecx
  00019	56		 push	 esi
  0001a	c7 45 f0 cc cc
	cc cc		 mov	 DWORD PTR [ebp-16], -858993460 ; ccccccccH
  00021	89 4d f0	 mov	 DWORD PTR _this$[ebp], ecx
  00024	8b 4d f0	 mov	 ecx, DWORD PTR _this$[ebp]
  00027	e8 00 00 00 00	 call	 ??0ILocalGameData@@QAE@XZ
  0002c	c7 45 fc 00 00
	00 00		 mov	 DWORD PTR __$EHRec$[ebp+8], 0
  00033	8b 45 f0	 mov	 eax, DWORD PTR _this$[ebp]
  00036	c7 00 00 00 00
	00		 mov	 DWORD PTR [eax], OFFSET FLAT:??_7LocalGameData@@6B@
  0003c	8b 4d f0	 mov	 ecx, DWORD PTR _this$[ebp]
  0003f	83 c1 04	 add	 ecx, 4
  00042	e8 00 00 00 00	 call	 ??0?$vector@UOneLocalGame@@V?$allocator@UOneLocalGame@@@std@@@std@@QAE@XZ ; std::vector<OneLocalGame,std::allocator<OneLocalGame> >::vector<OneLocalGame,std::allocator<OneLocalGame> >
  00047	c6 45 fc 01	 mov	 BYTE PTR __$EHRec$[ebp+8], 1
  0004b	8b 4d f0	 mov	 ecx, DWORD PTR _this$[ebp]
  0004e	83 c1 14	 add	 ecx, 20			; 00000014H
  00051	8b f4		 mov	 esi, esp
  00053	ff 15 00 00 00
	00		 call	 DWORD PTR __imp_??0?$basic_string@DU?$char_traits@D@std@@V?$allocator@D@2@@std@@QAE@XZ
  00059	3b f4		 cmp	 esi, esp
  0005b	e8 00 00 00 00	 call	 __RTC_CheckEsp
  00060	c7 45 fc ff ff
	ff ff		 mov	 DWORD PTR __$EHRec$[ebp+8], -1
  00067	8b 45 f0	 mov	 eax, DWORD PTR _this$[ebp]
  0006a	8b 4d f4	 mov	 ecx, DWORD PTR __$EHRec$[ebp]
  0006d	64 89 0d 00 00
	00 00		 mov	 DWORD PTR fs:__except_list, ecx
  00074	5e		 pop	 esi
  00075	83 c4 10	 add	 esp, 16			; 00000010H
  00078	3b ec		 cmp	 ebp, esp
  0007a	e8 00 00 00 00	 call	 __RTC_CheckEsp
  0007f	8b e5		 mov	 esp, ebp
  00081	5d		 pop	 ebp
  00082	c3		 ret	 0
_TEXT	ENDS
;	COMDAT text$x
text$x	SEGMENT
$L192355:
  00000	8b 4d f0	 mov	 ecx, DWORD PTR _this$[ebp]
  00003	e9 00 00 00 00	 jmp	 ??1ILocalGameData@@UAE@XZ
$L192356:
  00008	8b 4d f0	 mov	 ecx, DWORD PTR _this$[ebp]
  0000b	83 c1 04	 add	 ecx, 4
  0000e	e9 00 00 00 00	 jmp	 ??1?$vector@UOneLocalGame@@V?$allocator@UOneLocalGame@@@std@@@std@@QAE@XZ ; std::vector<OneLocalGame,std::allocator<OneLocalGame> >::~vector<OneLocalGame,std::allocator<OneLocalGame> >
__ehhandler$??0LocalGameData@@QAE@XZ:
  00013	b8 00 00 00 00	 mov	 eax, OFFSET FLAT:$T192359
  00018	e9 00 00 00 00	 jmp	 ___CxxFrameHandler
text$x	ENDS
??0LocalGameData@@QAE@XZ ENDP				; LocalGameData::LocalGameData
PUBLIC	??1LocalGameData@@UAE@XZ			; LocalGameData::~LocalGameData
; Function compile flags: /Odt /RTCsu
;	COMDAT ??_GLocalGameData@@UAEPAXI@Z
_TEXT	SEGMENT
_this$ = -4						; size = 4
___flags$ = 8						; size = 4
??_GLocalGameData@@UAEPAXI@Z PROC NEAR			; LocalGameData::`scalar deleting destructor', COMDAT
; _this$ = ecx
  00000	55		 push	 ebp
  00001	8b ec		 mov	 ebp, esp
  00003	51		 push	 ecx
  00004	c7 45 fc cc cc
	cc cc		 mov	 DWORD PTR [ebp-4], -858993460 ; ccccccccH
  0000b	89 4d fc	 mov	 DWORD PTR _this$[ebp], ecx
  0000e	8b 4d fc	 mov	 ecx, DWORD PTR _this$[ebp]
  00011	e8 00 00 00 00	 call	 ??1LocalGameData@@UAE@XZ
  00016	8b 45 08	 mov	 eax, DWORD PTR ___flags$[ebp]
  00019	83 e0 01	 and	 eax, 1
  0001c	74 0c		 je	 SHORT $L189649
  0001e	8b 4d fc	 mov	 ecx, DWORD PTR _this$[ebp]
  00021	51		 push	 ecx
  00022	e8 00 00 00 00	 call	 ??3@YAXPAX@Z		; operator delete
  00027	83 c4 04	 add	 esp, 4
$L189649:
  0002a	8b 45 fc	 mov	 eax, DWORD PTR _this$[ebp]
  0002d	83 c4 04	 add	 esp, 4
  00030	3b ec		 cmp	 ebp, esp
  00032	e8 00 00 00 00	 call	 __RTC_CheckEsp
  00037	8b e5		 mov	 esp, ebp
  00039	5d		 pop	 ebp
  0003a	c2 04 00	 ret	 4
??_GLocalGameData@@UAEPAXI@Z ENDP			; LocalGameData::`scalar deleting destructor'
_TEXT	ENDS
PUBLIC	??_R4ILocalGameData@@6B@			; ILocalGameData::`RTTI Complete Object Locator'
PUBLIC	??_R3ILocalGameData@@8				; ILocalGameData::`RTTI Class Hierarchy Descriptor'
PUBLIC	??_R2ILocalGameData@@8				; ILocalGameData::`RTTI Base Class Array'
PUBLIC	?DataAppStart@IData@@UAEXXZ			; IData::DataAppStart
PUBLIC	?DataAppExit@IData@@UAEXXZ			; IData::DataAppExit
PUBLIC	??0IData@@QAE@XZ				; IData::IData
PUBLIC	??_7ILocalGameData@@6B@				; ILocalGameData::`vftable'
PUBLIC	??_GILocalGameData@@UAEPAXI@Z			; ILocalGameData::`scalar deleting destructor'
EXTRN	__purecall:NEAR
EXTRN	??_EILocalGameData@@UAEPAXI@Z:NEAR		; ILocalGameData::`vector deleting destructor'
;	COMDAT ??_7ILocalGameData@@6B@
CONST	SEGMENT
??_7ILocalGameData@@6B@ DD FLAT:??_R4ILocalGameData@@6B@ ; ILocalGameData::`vftable'
	DD	FLAT:??_EILocalGameData@@UAEPAXI@Z
	DD	FLAT:?DataAppStart@IData@@UAEXXZ
	DD	FLAT:?DataAppExit@IData@@UAEXXZ
	DD	FLAT:__purecall
	DD	FLAT:__purecall
	DD	FLAT:__purecall
	DD	FLAT:__purecall
	DD	FLAT:__purecall
CONST	ENDS
;	COMDAT ??_R4ILocalGameData@@6B@
rdata$r	SEGMENT
??_R4ILocalGameData@@6B@ DD 00H				; ILocalGameData::`RTTI Complete Object Locator'
	DD	00H
	DD	00H
	DD	FLAT:??_R0?AVILocalGameData@@@8
	DD	FLAT:??_R3ILocalGameData@@8
rdata$r	ENDS
;	COMDAT ??_R3ILocalGameData@@8
rdata$r	SEGMENT
??_R3ILocalGameData@@8 DD 00H				; ILocalGameData::`RTTI Class Hierarchy Descriptor'
	DD	00H
	DD	02H
	DD	FLAT:??_R2ILocalGameData@@8
rdata$r	ENDS
;	COMDAT ??_R2ILocalGameData@@8
rdata$r	SEGMENT
??_R2ILocalGameData@@8 DD FLAT:??_R1A@?0A@A@ILocalGameData@@8 ; ILocalGameData::`RTTI Base Class Array'
	DD	FLAT:??_R1A@?0A@A@IData@@8
; Function compile flags: /Odt /RTCsu
rdata$r	ENDS
;	COMDAT ??0ILocalGameData@@QAE@XZ
_TEXT	SEGMENT
_this$ = -4						; size = 4
??0ILocalGameData@@QAE@XZ PROC NEAR			; ILocalGameData::ILocalGameData, COMDAT
; _this$ = ecx
  00000	55		 push	 ebp
  00001	8b ec		 mov	 ebp, esp
  00003	51		 push	 ecx
  00004	c7 45 fc cc cc
	cc cc		 mov	 DWORD PTR [ebp-4], -858993460 ; ccccccccH
  0000b	89 4d fc	 mov	 DWORD PTR _this$[ebp], ecx
  0000e	8b 4d fc	 mov	 ecx, DWORD PTR _this$[ebp]
  00011	e8 00 00 00 00	 call	 ??0IData@@QAE@XZ
  00016	8b 45 fc	 mov	 eax, DWORD PTR _this$[ebp]
  00019	c7 00 00 00 00
	00		 mov	 DWORD PTR [eax], OFFSET FLAT:??_7ILocalGameData@@6B@
  0001f	8b 45 fc	 mov	 eax, DWORD PTR _this$[ebp]
  00022	83 c4 04	 add	 esp, 4
  00025	3b ec		 cmp	 ebp, esp
  00027	e8 00 00 00 00	 call	 __RTC_CheckEsp
  0002c	8b e5		 mov	 esp, ebp
  0002e	5d		 pop	 ebp
  0002f	c3		 ret	 0
??0ILocalGameData@@QAE@XZ ENDP				; ILocalGameData::ILocalGameData
; Function compile flags: /Odt /RTCsu
; File d:\boxgit\playbox\playbox\dev\prj\playbox\src\datainterface\idata.h
_TEXT	ENDS
;	COMDAT ?DataAppStart@IData@@UAEXXZ
_TEXT	SEGMENT
_this$ = -4						; size = 4
?DataAppStart@IData@@UAEXXZ PROC NEAR			; IData::DataAppStart, COMDAT
; _this$ = ecx

; 15   : 	virtual void	DataAppStart(){};

  00000	55		 push	 ebp
  00001	8b ec		 mov	 ebp, esp
  00003	51		 push	 ecx
  00004	c7 45 fc cc cc
	cc cc		 mov	 DWORD PTR [ebp-4], -858993460 ; ccccccccH
  0000b	89 4d fc	 mov	 DWORD PTR _this$[ebp], ecx
  0000e	8b e5		 mov	 esp, ebp
  00010	5d		 pop	 ebp
  00011	c3		 ret	 0
?DataAppStart@IData@@UAEXXZ ENDP			; IData::DataAppStart
; Function compile flags: /Odt /RTCsu
_TEXT	ENDS
;	COMDAT ?DataAppExit@IData@@UAEXXZ
_TEXT	SEGMENT
_this$ = -4						; size = 4
?DataAppExit@IData@@UAEXXZ PROC NEAR			; IData::DataAppExit, COMDAT
; _this$ = ecx

; 18   : 	virtual void	DataAppExit(){};

  00000	55		 push	 ebp
  00001	8b ec		 mov	 ebp, esp
  00003	51		 push	 ecx
  00004	c7 45 fc cc cc
	cc cc		 mov	 DWORD PTR [ebp-4], -858993460 ; ccccccccH
  0000b	89 4d fc	 mov	 DWORD PTR _this$[ebp], ecx
  0000e	8b e5		 mov	 esp, ebp
  00010	5d		 pop	 ebp
  00011	c3		 ret	 0
?DataAppExit@IData@@UAEXXZ ENDP				; IData::DataAppExit
_TEXT	ENDS
PUBLIC	??1IData@@MAE@XZ				; IData::~IData
; Function compile flags: /Odt /RTCsu
;	COMDAT ??1ILocalGameData@@UAE@XZ
_TEXT	SEGMENT
_this$ = -4						; size = 4
??1ILocalGameData@@UAE@XZ PROC NEAR			; ILocalGameData::~ILocalGameData, COMDAT
; _this$ = ecx
  00000	55		 push	 ebp
  00001	8b ec		 mov	 ebp, esp
  00003	51		 push	 ecx
  00004	c7 45 fc cc cc
	cc cc		 mov	 DWORD PTR [ebp-4], -858993460 ; ccccccccH
  0000b	89 4d fc	 mov	 DWORD PTR _this$[ebp], ecx
  0000e	8b 4d fc	 mov	 ecx, DWORD PTR _this$[ebp]
  00011	e8 00 00 00 00	 call	 ??1IData@@MAE@XZ	; IData::~IData
  00016	83 c4 04	 add	 esp, 4
  00019	3b ec		 cmp	 ebp, esp
  0001b	e8 00 00 00 00	 call	 __RTC_CheckEsp
  00020	8b e5		 mov	 esp, ebp
  00022	5d		 pop	 ebp
  00023	c3		 ret	 0
??1ILocalGameData@@UAE@XZ ENDP				; ILocalGameData::~ILocalGameData
_TEXT	ENDS
PUBLIC	??_R4IData@@6B@					; IData::`RTTI Complete Object Locator'
PUBLIC	??_R3IData@@8					; IData::`RTTI Class Hierarchy Descriptor'
PUBLIC	??_R2IData@@8					; IData::`RTTI Base Class Array'
PUBLIC	??_7IData@@6B@					; IData::`vftable'
PUBLIC	??_GIData@@MAEPAXI@Z				; IData::`scalar deleting destructor'
EXTRN	??_EIData@@MAEPAXI@Z:NEAR			; IData::`vector deleting destructor'
;	COMDAT ??_7IData@@6B@
CONST	SEGMENT
??_7IData@@6B@ DD FLAT:??_R4IData@@6B@			; IData::`vftable'
	DD	FLAT:??_EIData@@MAEPAXI@Z
	DD	FLAT:?DataAppStart@IData@@UAEXXZ
	DD	FLAT:?DataAppExit@IData@@UAEXXZ
CONST	ENDS
;	COMDAT ??_R4IData@@6B@
rdata$r	SEGMENT
??_R4IData@@6B@ DD 00H					; IData::`RTTI Complete Object Locator'
	DD	00H
	DD	00H
	DD	FLAT:??_R0?AVIData@@@8
	DD	FLAT:??_R3IData@@8
rdata$r	ENDS
;	COMDAT ??_R3IData@@8
rdata$r	SEGMENT
??_R3IData@@8 DD 00H					; IData::`RTTI Class Hierarchy Descriptor'
	DD	00H
	DD	01H
	DD	FLAT:??_R2IData@@8
rdata$r	ENDS
;	COMDAT ??_R2IData@@8
rdata$r	SEGMENT
??_R2IData@@8 DD FLAT:??_R1A@?0A@A@IData@@8		; IData::`RTTI Base Class Array'
; Function compile flags: /Odt /RTCsu
rdata$r	ENDS
;	COMDAT ??1IData@@MAE@XZ
_TEXT	SEGMENT
_this$ = -4						; size = 4
??1IData@@MAE@XZ PROC NEAR				; IData::~IData, COMDAT
; _this$ = ecx

; 10   : 	virtual ~IData(){};

  00000	55		 push	 ebp
  00001	8b ec		 mov	 ebp, esp
  00003	51		 push	 ecx
  00004	c7 45 fc cc cc
	cc cc		 mov	 DWORD PTR [ebp-4], -858993460 ; ccccccccH
  0000b	89 4d fc	 mov	 DWORD PTR _this$[ebp], ecx
  0000e	8b 45 fc	 mov	 eax, DWORD PTR _this$[ebp]
  00011	c7 00 00 00 00
	00		 mov	 DWORD PTR [eax], OFFSET FLAT:??_7IData@@6B@
  00017	8b e5		 mov	 esp, ebp
  00019	5d		 pop	 ebp
  0001a	c3		 ret	 0
??1IData@@MAE@XZ ENDP					; IData::~IData
; Function compile flags: /Odt /RTCsu
_TEXT	ENDS
;	COMDAT ??_GIData@@MAEPAXI@Z
_TEXT	SEGMENT
_this$ = -4						; size = 4
___flags$ = 8						; size = 4
??_GIData@@MAEPAXI@Z PROC NEAR				; IData::`scalar deleting destructor', COMDAT
; _this$ = ecx
  00000	55		 push	 ebp
  00001	8b ec		 mov	 ebp, esp
  00003	51		 push	 ecx
  00004	c7 45 fc cc cc
	cc cc		 mov	 DWORD PTR [ebp-4], -858993460 ; ccccccccH
  0000b	89 4d fc	 mov	 DWORD PTR _this$[ebp], ecx
  0000e	8b 4d fc	 mov	 ecx, DWORD PTR _this$[ebp]
  00011	e8 00 00 00 00	 call	 ??1IData@@MAE@XZ	; IData::~IData
  00016	8b 45 08	 mov	 eax, DWORD PTR ___flags$[ebp]
  00019	83 e0 01	 and	 eax, 1
  0001c	74 0c		 je	 SHORT $L187040
  0001e	8b 4d fc	 mov	 ecx, DWORD PTR _this$[ebp]
  00021	51		 push	 ecx
  00022	e8 00 00 00 00	 call	 ??3@YAXPAX@Z		; operator delete
  00027	83 c4 04	 add	 esp, 4
$L187040:
  0002a	8b 45 fc	 mov	 eax, DWORD PTR _this$[ebp]
  0002d	83 c4 04	 add	 esp, 4
  00030	3b ec		 cmp	 ebp, esp
  00032	e8 00 00 00 00	 call	 __RTC_CheckEsp
  00037	8b e5		 mov	 esp, ebp
  00039	5d		 pop	 ebp
  0003a	c2 04 00	 ret	 4
??_GIData@@MAEPAXI@Z ENDP				; IData::`scalar deleting destructor'
_TEXT	ENDS
EXTRN	__imp_??1?$basic_string@DU?$char_traits@D@std@@V?$allocator@D@2@@std@@QAE@XZ:NEAR
;	COMDAT xdata$x
xdata$x	SEGMENT
$T192379 DD	0ffffffffH
	DD	FLAT:$L192373
	DD	00H
	DD	FLAT:$L192374
$T192377 DD	019930520H
	DD	02H
	DD	FLAT:$T192379
	DD	2 DUP(00H)
	DD	2 DUP(00H)
; Function compile flags: /Odt /RTCsu
xdata$x	ENDS
;	COMDAT ??1LocalGameData@@UAE@XZ
_TEXT	SEGMENT
_this$ = -16						; size = 4
__$EHRec$ = -12						; size = 12
??1LocalGameData@@UAE@XZ PROC NEAR			; LocalGameData::~LocalGameData, COMDAT
; _this$ = ecx
  00000	55		 push	 ebp
  00001	8b ec		 mov	 ebp, esp
  00003	6a ff		 push	 -1
  00005	68 00 00 00 00	 push	 __ehhandler$??1LocalGameData@@UAE@XZ
  0000a	64 a1 00 00 00
	00		 mov	 eax, DWORD PTR fs:__except_list
  00010	50		 push	 eax
  00011	64 89 25 00 00
	00 00		 mov	 DWORD PTR fs:__except_list, esp
  00018	51		 push	 ecx
  00019	56		 push	 esi
  0001a	c7 45 f0 cc cc
	cc cc		 mov	 DWORD PTR [ebp-16], -858993460 ; ccccccccH
  00021	89 4d f0	 mov	 DWORD PTR _this$[ebp], ecx
  00024	c7 45 fc 01 00
	00 00		 mov	 DWORD PTR __$EHRec$[ebp+8], 1
  0002b	8b 4d f0	 mov	 ecx, DWORD PTR _this$[ebp]
  0002e	83 c1 14	 add	 ecx, 20			; 00000014H
  00031	8b f4		 mov	 esi, esp
  00033	ff 15 00 00 00
	00		 call	 DWORD PTR __imp_??1?$basic_string@DU?$char_traits@D@std@@V?$allocator@D@2@@std@@QAE@XZ
  00039	3b f4		 cmp	 esi, esp
  0003b	e8 00 00 00 00	 call	 __RTC_CheckEsp
  00040	c6 45 fc 00	 mov	 BYTE PTR __$EHRec$[ebp+8], 0
  00044	8b 4d f0	 mov	 ecx, DWORD PTR _this$[ebp]
  00047	83 c1 04	 add	 ecx, 4
  0004a	e8 00 00 00 00	 call	 ??1?$vector@UOneLocalGame@@V?$allocator@UOneLocalGame@@@std@@@std@@QAE@XZ ; std::vector<OneLocalGame,std::allocator<OneLocalGame> >::~vector<OneLocalGame,std::allocator<OneLocalGame> >
  0004f	c7 45 fc ff ff
	ff ff		 mov	 DWORD PTR __$EHRec$[ebp+8], -1
  00056	8b 4d f0	 mov	 ecx, DWORD PTR _this$[ebp]
  00059	e8 00 00 00 00	 call	 ??1ILocalGameData@@UAE@XZ
  0005e	8b 4d f4	 mov	 ecx, DWORD PTR __$EHRec$[ebp]
  00061	64 89 0d 00 00
	00 00		 mov	 DWORD PTR fs:__except_list, ecx
  00068	5e		 pop	 esi
  00069	83 c4 10	 add	 esp, 16			; 00000010H
  0006c	3b ec		 cmp	 ebp, esp
  0006e	e8 00 00 00 00	 call	 __RTC_CheckEsp
  00073	8b e5		 mov	 esp, ebp
  00075	5d		 pop	 ebp
  00076	c3		 ret	 0
_TEXT	ENDS
;	COMDAT text$x
text$x	SEGMENT
$L192373:
  00000	8b 4d f0	 mov	 ecx, DWORD PTR _this$[ebp]
  00003	e9 00 00 00 00	 jmp	 ??1ILocalGameData@@UAE@XZ
$L192374:
  00008	8b 4d f0	 mov	 ecx, DWORD PTR _this$[ebp]
  0000b	83 c1 04	 add	 ecx, 4
  0000e	e9 00 00 00 00	 jmp	 ??1?$vector@UOneLocalGame@@V?$allocator@UOneLocalGame@@@std@@@std@@QAE@XZ ; std::vector<OneLocalGame,std::allocator<OneLocalGame> >::~vector<OneLocalGame,std::allocator<OneLocalGame> >
__ehhandler$??1LocalGameData@@UAE@XZ:
  00013	b8 00 00 00 00	 mov	 eax, OFFSET FLAT:$T192377
  00018	e9 00 00 00 00	 jmp	 ___CxxFrameHandler
text$x	ENDS
??1LocalGameData@@UAE@XZ ENDP				; LocalGameData::~LocalGameData
; Function compile flags: /Odt /RTCsu
;	COMDAT ??_GILocalGameData@@UAEPAXI@Z
_TEXT	SEGMENT
_this$ = -4						; size = 4
___flags$ = 8						; size = 4
??_GILocalGameData@@UAEPAXI@Z PROC NEAR			; ILocalGameData::`scalar deleting destructor', COMDAT
; _this$ = ecx
  00000	55		 push	 ebp
  00001	8b ec		 mov	 ebp, esp
  00003	51		 push	 ecx
  00004	c7 45 fc cc cc
	cc cc		 mov	 DWORD PTR [ebp-4], -858993460 ; ccccccccH
  0000b	89 4d fc	 mov	 DWORD PTR _this$[ebp], ecx
  0000e	8b 4d fc	 mov	 ecx, DWORD PTR _this$[ebp]
  00011	e8 00 00 00 00	 call	 ??1ILocalGameData@@UAE@XZ
  00016	8b 45 08	 mov	 eax, DWORD PTR ___flags$[ebp]
  00019	83 e0 01	 and	 eax, 1
  0001c	74 0c		 je	 SHORT $L189659
  0001e	8b 4d fc	 mov	 ecx, DWORD PTR _this$[ebp]
  00021	51		 push	 ecx
  00022	e8 00 00 00 00	 call	 ??3@YAXPAX@Z		; operator delete
  00027	83 c4 04	 add	 esp, 4
$L189659:
  0002a	8b 45 fc	 mov	 eax, DWORD PTR _this$[ebp]
  0002d	83 c4 04	 add	 esp, 4
  00030	3b ec		 cmp	 ebp, esp
  00032	e8 00 00 00 00	 call	 __RTC_CheckEsp
  00037	8b e5		 mov	 esp, ebp
  00039	5d		 pop	 ebp
  0003a	c2 04 00	 ret	 4
??_GILocalGameData@@UAEPAXI@Z ENDP			; ILocalGameData::`scalar deleting destructor'
; Function compile flags: /Odt /RTCsu
_TEXT	ENDS
;	COMDAT ??0IData@@QAE@XZ
_TEXT	SEGMENT
_this$ = -4						; size = 4
??0IData@@QAE@XZ PROC NEAR				; IData::IData, COMDAT
; _this$ = ecx
  00000	55		 push	 ebp
  00001	8b ec		 mov	 ebp, esp
  00003	51		 push	 ecx
  00004	c7 45 fc cc cc
	cc cc		 mov	 DWORD PTR [ebp-4], -858993460 ; ccccccccH
  0000b	89 4d fc	 mov	 DWORD PTR _this$[ebp], ecx
  0000e	8b 45 fc	 mov	 eax, DWORD PTR _this$[ebp]
  00011	c7 00 00 00 00
	00		 mov	 DWORD PTR [eax], OFFSET FLAT:??_7IData@@6B@
  00017	8b 45 fc	 mov	 eax, DWORD PTR _this$[ebp]
  0001a	8b e5		 mov	 esp, ebp
  0001c	5d		 pop	 ebp
  0001d	c3		 ret	 0
??0IData@@QAE@XZ ENDP					; IData::IData
_TEXT	ENDS
PUBLIC	?DelInstance@LocalGameData@@SAXXZ		; LocalGameData::DelInstance
; Function compile flags: /Odt /RTCsu
; File d:\boxgit\playbox\playbox\dev\prj\playbox\src\module\httpdown\localgamedata.cpp
_TEXT	SEGMENT
tv71 = -12						; size = 4
$T192386 = -8						; size = 4
$T192385 = -4						; size = 4
?DelInstance@LocalGameData@@SAXXZ PROC NEAR		; LocalGameData::DelInstance

; 22   : {

  000a0	55		 push	 ebp
  000a1	8b ec		 mov	 ebp, esp
  000a3	83 ec 0c	 sub	 esp, 12			; 0000000cH
  000a6	56		 push	 esi
  000a7	c7 45 f4 cc cc
	cc cc		 mov	 DWORD PTR [ebp-12], -858993460 ; ccccccccH
  000ae	c7 45 f8 cc cc
	cc cc		 mov	 DWORD PTR [ebp-8], -858993460 ; ccccccccH
  000b5	c7 45 fc cc cc
	cc cc		 mov	 DWORD PTR [ebp-4], -858993460 ; ccccccccH

; 23   : 	if(m_pData != NULL)

  000bc	83 3d 00 00 00
	00 00		 cmp	 DWORD PTR ?m_pData@LocalGameData@@2PAV1@A, 0 ; LocalGameData::m_pData
  000c3	74 35		 je	 SHORT $L189664

; 24   : 		delete m_pData;

  000c5	a1 00 00 00 00	 mov	 eax, DWORD PTR ?m_pData@LocalGameData@@2PAV1@A ; LocalGameData::m_pData
  000ca	89 45 f8	 mov	 DWORD PTR $T192386[ebp], eax
  000cd	8b 4d f8	 mov	 ecx, DWORD PTR $T192386[ebp]
  000d0	89 4d fc	 mov	 DWORD PTR $T192385[ebp], ecx
  000d3	83 7d fc 00	 cmp	 DWORD PTR $T192385[ebp], 0
  000d7	74 1a		 je	 SHORT $L192387
  000d9	8b f4		 mov	 esi, esp
  000db	6a 01		 push	 1
  000dd	8b 55 fc	 mov	 edx, DWORD PTR $T192385[ebp]
  000e0	8b 02		 mov	 eax, DWORD PTR [edx]
  000e2	8b 4d fc	 mov	 ecx, DWORD PTR $T192385[ebp]
  000e5	ff 10		 call	 DWORD PTR [eax]
  000e7	3b f4		 cmp	 esi, esp
  000e9	e8 00 00 00 00	 call	 __RTC_CheckEsp
  000ee	89 45 f4	 mov	 DWORD PTR tv71[ebp], eax
  000f1	eb 07		 jmp	 SHORT $L189664
$L192387:
  000f3	c7 45 f4 00 00
	00 00		 mov	 DWORD PTR tv71[ebp], 0
$L189664:

; 25   : 	m_pData = NULL;

  000fa	c7 05 00 00 00
	00 00 00 00 00	 mov	 DWORD PTR ?m_pData@LocalGameData@@2PAV1@A, 0 ; LocalGameData::m_pData

; 26   : }

  00104	5e		 pop	 esi
  00105	83 c4 0c	 add	 esp, 12			; 0000000cH
  00108	3b ec		 cmp	 ebp, esp
  0010a	e8 00 00 00 00	 call	 __RTC_CheckEsp
  0010f	8b e5		 mov	 esp, ebp
  00111	5d		 pop	 ebp
  00112	c3		 ret	 0
?DelInstance@LocalGameData@@SAXXZ ENDP			; LocalGameData::DelInstance
_TEXT	ENDS
PUBLIC	?LoadGameData@LocalGameData@@AAEXXZ		; LocalGameData::LoadGameData
EXTRN	?GetHomePath@CLhcImg@@SA_NQADH@Z:NEAR		; CLhcImg::GetHomePath
EXTRN	__imp_??0?$basic_string@DU?$char_traits@D@std@@V?$allocator@D@2@@std@@QAE@PBD@Z:NEAR
EXTRN	__imp_?YL_Log@@YAXABV?$basic_string@DU?$char_traits@D@std@@V?$allocator@D@2@@std@@H0PBDZZ:NEAR
EXTRN	__imp_?c_str@?$basic_string@DU?$char_traits@D@std@@V?$allocator@D@2@@std@@QBEPBDXZ:NEAR
EXTRN	?Format@YL_StringUtil@@SA_NAAV?$basic_string@DU?$char_traits@D@std@@V?$allocator@D@2@@std@@PBDZZ:NEAR ; YL_StringUtil::Format
xdata$x	SEGMENT
$T192402 DD	0ffffffffH
	DD	FLAT:$L192393
	DD	00H
	DD	FLAT:$L192394
$T192396 DD	019930520H
	DD	02H
	DD	FLAT:$T192402
	DD	2 DUP(00H)
	DD	2 DUP(00H)
; Function compile flags: /Odt /RTCsu
xdata$x	ENDS
_TEXT	SEGMENT
$T192392 = -344						; size = 28
$T192391 = -316						; size = 28
_szHomePath$ = -284					; size = 260
_this$ = -20						; size = 4
__$ArrayPad$ = -16					; size = 4
__$EHRec$ = -12						; size = 12
__$ReturnAddr$ = 4					; size = 4
?DataAppStart@LocalGameData@@UAEXXZ PROC NEAR		; LocalGameData::DataAppStart
; _this$ = ecx

; 29   : {

  00120	55		 push	 ebp
  00121	8b ec		 mov	 ebp, esp
  00123	6a ff		 push	 -1
  00125	68 00 00 00 00	 push	 __ehhandler$?DataAppStart@LocalGameData@@UAEXXZ
  0012a	64 a1 00 00 00
	00		 mov	 eax, DWORD PTR fs:__except_list
  00130	50		 push	 eax
  00131	64 89 25 00 00
	00 00		 mov	 DWORD PTR fs:__except_list, esp
  00138	81 ec 4c 01 00
	00		 sub	 esp, 332		; 0000014cH
  0013e	56		 push	 esi
  0013f	57		 push	 edi
  00140	51		 push	 ecx
  00141	8d bd a8 fe ff
	ff		 lea	 edi, DWORD PTR [ebp-344]
  00147	b9 53 00 00 00	 mov	 ecx, 83			; 00000053H
  0014c	b8 cc cc cc cc	 mov	 eax, -858993460		; ccccccccH
  00151	f3 ab		 rep stosd
  00153	59		 pop	 ecx
  00154	a1 00 00 00 00	 mov	 eax, DWORD PTR ___security_cookie
  00159	89 45 f0	 mov	 DWORD PTR __$ArrayPad$[ebp], eax
  0015c	89 4d ec	 mov	 DWORD PTR _this$[ebp], ecx

; 30   : 	char szHomePath[MAX_PATH];
; 31   : 	CLhcImg::GetHomePath( szHomePath, MAX_PATH );

  0015f	68 04 01 00 00	 push	 260			; 00000104H
  00164	8d 85 e4 fe ff
	ff		 lea	 eax, DWORD PTR _szHomePath$[ebp]
  0016a	50		 push	 eax
  0016b	e8 00 00 00 00	 call	 ?GetHomePath@CLhcImg@@SA_NQADH@Z ; CLhcImg::GetHomePath
  00170	83 c4 08	 add	 esp, 8

; 32   : 
; 33   : 	YL_StringUtil::Format( m_strDataFilePath, "%s\\Resources\\Profiles\\usergame.xml", szHomePath );

  00173	8d 8d e4 fe ff
	ff		 lea	 ecx, DWORD PTR _szHomePath$[ebp]
  00179	51		 push	 ecx
  0017a	68 00 00 00 00	 push	 OFFSET FLAT:$SG189671
  0017f	8b 55 ec	 mov	 edx, DWORD PTR _this$[ebp]
  00182	83 c2 14	 add	 edx, 20			; 00000014H
  00185	52		 push	 edx
  00186	e8 00 00 00 00	 call	 ?Format@YL_StringUtil@@SA_NAAV?$basic_string@DU?$char_traits@D@std@@V?$allocator@D@2@@std@@PBDZZ ; YL_StringUtil::Format
  0018b	83 c4 0c	 add	 esp, 12			; 0000000cH

; 34   : 	YL_Log( "LocalGameData.txt", LOG_DEBUG, "DataAppStart",	"m_strDataFilePath:%s", m_strDataFilePath.c_str() );

  0018e	8b f4		 mov	 esi, esp
  00190	68 00 00 00 00	 push	 OFFSET FLAT:$SG189675
  00195	8d 8d c4 fe ff
	ff		 lea	 ecx, DWORD PTR $T192391[ebp]
  0019b	ff 15 00 00 00
	00		 call	 DWORD PTR __imp_??0?$basic_string@DU?$char_traits@D@std@@V?$allocator@D@2@@std@@QAE@PBD@Z
  001a1	3b f4		 cmp	 esi, esp
  001a3	e8 00 00 00 00	 call	 __RTC_CheckEsp
  001a8	c7 45 fc 00 00
	00 00		 mov	 DWORD PTR __$EHRec$[ebp+8], 0
  001af	8b f4		 mov	 esi, esp
  001b1	68 00 00 00 00	 push	 OFFSET FLAT:$SG189676
  001b6	8d 8d a8 fe ff
	ff		 lea	 ecx, DWORD PTR $T192392[ebp]
  001bc	ff 15 00 00 00
	00		 call	 DWORD PTR __imp_??0?$basic_string@DU?$char_traits@D@std@@V?$allocator@D@2@@std@@QAE@PBD@Z
  001c2	3b f4		 cmp	 esi, esp
  001c4	e8 00 00 00 00	 call	 __RTC_CheckEsp
  001c9	c6 45 fc 01	 mov	 BYTE PTR __$EHRec$[ebp+8], 1
  001cd	8b 4d ec	 mov	 ecx, DWORD PTR _this$[ebp]
  001d0	83 c1 14	 add	 ecx, 20			; 00000014H
  001d3	8b f4		 mov	 esi, esp
  001d5	ff 15 00 00 00
	00		 call	 DWORD PTR __imp_?c_str@?$basic_string@DU?$char_traits@D@std@@V?$allocator@D@2@@std@@QBEPBDXZ
  001db	3b f4		 cmp	 esi, esp
  001dd	e8 00 00 00 00	 call	 __RTC_CheckEsp
  001e2	8b f4		 mov	 esi, esp
  001e4	50		 push	 eax
  001e5	68 00 00 00 00	 push	 OFFSET FLAT:$SG189674
  001ea	8d 85 c4 fe ff
	ff		 lea	 eax, DWORD PTR $T192391[ebp]
  001f0	50		 push	 eax
  001f1	6a 00		 push	 0
  001f3	8d 8d a8 fe ff
	ff		 lea	 ecx, DWORD PTR $T192392[ebp]
  001f9	51		 push	 ecx
  001fa	ff 15 00 00 00
	00		 call	 DWORD PTR __imp_?YL_Log@@YAXABV?$basic_string@DU?$char_traits@D@std@@V?$allocator@D@2@@std@@H0PBDZZ
  00200	83 c4 14	 add	 esp, 20			; 00000014H
  00203	3b f4		 cmp	 esi, esp
  00205	e8 00 00 00 00	 call	 __RTC_CheckEsp
  0020a	c6 45 fc 00	 mov	 BYTE PTR __$EHRec$[ebp+8], 0
  0020e	8b f4		 mov	 esi, esp
  00210	8d 8d a8 fe ff
	ff		 lea	 ecx, DWORD PTR $T192392[ebp]
  00216	ff 15 00 00 00
	00		 call	 DWORD PTR __imp_??1?$basic_string@DU?$char_traits@D@std@@V?$allocator@D@2@@std@@QAE@XZ
  0021c	3b f4		 cmp	 esi, esp
  0021e	e8 00 00 00 00	 call	 __RTC_CheckEsp
  00223	c7 45 fc ff ff
	ff ff		 mov	 DWORD PTR __$EHRec$[ebp+8], -1
  0022a	8b f4		 mov	 esi, esp
  0022c	8d 8d c4 fe ff
	ff		 lea	 ecx, DWORD PTR $T192391[ebp]
  00232	ff 15 00 00 00
	00		 call	 DWORD PTR __imp_??1?$basic_string@DU?$char_traits@D@std@@V?$allocator@D@2@@std@@QAE@XZ
  00238	3b f4		 cmp	 esi, esp
  0023a	e8 00 00 00 00	 call	 __RTC_CheckEsp

; 35   : 
; 36   : 	LoadGameData();

  0023f	8b 4d ec	 mov	 ecx, DWORD PTR _this$[ebp]
  00242	e8 00 00 00 00	 call	 ?LoadGameData@LocalGameData@@AAEXXZ ; LocalGameData::LoadGameData

; 37   : }

  00247	52		 push	 edx
  00248	8b cd		 mov	 ecx, ebp
  0024a	50		 push	 eax
  0024b	8d 15 00 00 00
	00		 lea	 edx, DWORD PTR $L192401
  00251	e8 00 00 00 00	 call	 @_RTC_CheckStackVars@8
  00256	58		 pop	 eax
  00257	5a		 pop	 edx
  00258	8b 4d f4	 mov	 ecx, DWORD PTR __$EHRec$[ebp]
  0025b	64 89 0d 00 00
	00 00		 mov	 DWORD PTR fs:__except_list, ecx
  00262	8b 4d f0	 mov	 ecx, DWORD PTR __$ArrayPad$[ebp]
  00265	e8 00 00 00 00	 call	 @__security_check_cookie@4
  0026a	5f		 pop	 edi
  0026b	5e		 pop	 esi
  0026c	81 c4 58 01 00
	00		 add	 esp, 344		; 00000158H
  00272	3b ec		 cmp	 ebp, esp
  00274	e8 00 00 00 00	 call	 __RTC_CheckEsp
  00279	8b e5		 mov	 esp, ebp
  0027b	5d		 pop	 ebp
  0027c	c3		 ret	 0
$L192401:
  0027d	01 00 00 00	 DD	 1
  00281	00 00 00 00	 DD	 $L192400
$L192400:
  00285	e4 fe ff ff	 DD	 -284			; fffffee4H
  00289	04 01 00 00	 DD	 260			; 00000104H
  0028d	00 00 00 00	 DD	 $L192397
$L192397:
  00291	73		 DB	 115			; 00000073H
  00292	7a		 DB	 122			; 0000007aH
  00293	48		 DB	 72			; 00000048H
  00294	6f		 DB	 111			; 0000006fH
  00295	6d		 DB	 109			; 0000006dH
  00296	65		 DB	 101			; 00000065H
  00297	50		 DB	 80			; 00000050H
  00298	61		 DB	 97			; 00000061H
  00299	74		 DB	 116			; 00000074H
  0029a	68		 DB	 104			; 00000068H
  0029b	00		 DB	 0
_TEXT	ENDS
text$x	SEGMENT
$L192393:
  00015	8b f4		 mov	 esi, esp
  00017	8d 8d c4 fe ff
	ff		 lea	 ecx, DWORD PTR $T192391[ebp]
  0001d	ff 15 00 00 00
	00		 call	 DWORD PTR __imp_??1?$basic_string@DU?$char_traits@D@std@@V?$allocator@D@2@@std@@QAE@XZ
  00023	3b f4		 cmp	 esi, esp
  00025	e9 00 00 00 00	 jmp	 __RTC_CheckEsp
$L192394:
  0002a	8b f4		 mov	 esi, esp
  0002c	8d 8d a8 fe ff
	ff		 lea	 ecx, DWORD PTR $T192392[ebp]
  00032	ff 15 00 00 00
	00		 call	 DWORD PTR __imp_??1?$basic_string@DU?$char_traits@D@std@@V?$allocator@D@2@@std@@QAE@XZ
  00038	3b f4		 cmp	 esi, esp
  0003a	e9 00 00 00 00	 jmp	 __RTC_CheckEsp
__ehhandler$?DataAppStart@LocalGameData@@UAEXXZ:
  0003f	b8 00 00 00 00	 mov	 eax, OFFSET FLAT:$T192396
  00044	e9 00 00 00 00	 jmp	 ___CxxFrameHandler
text$x	ENDS
?DataAppStart@LocalGameData@@UAEXXZ ENDP		; LocalGameData::DataAppStart
PUBLIC	?UnLoadGameData@LocalGameData@@AAEXXZ		; LocalGameData::UnLoadGameData
; Function compile flags: /Odt /RTCsu
_TEXT	SEGMENT
_this$ = -4						; size = 4
?DataAppExit@LocalGameData@@UAEXXZ PROC NEAR		; LocalGameData::DataAppExit
; _this$ = ecx

; 40   : {

  002a0	55		 push	 ebp
  002a1	8b ec		 mov	 ebp, esp
  002a3	51		 push	 ecx
  002a4	c7 45 fc cc cc
	cc cc		 mov	 DWORD PTR [ebp-4], -858993460 ; ccccccccH
  002ab	89 4d fc	 mov	 DWORD PTR _this$[ebp], ecx

; 41   : 	UnLoadGameData();

  002ae	8b 4d fc	 mov	 ecx, DWORD PTR _this$[ebp]
  002b1	e8 00 00 00 00	 call	 ?UnLoadGameData@LocalGameData@@AAEXXZ ; LocalGameData::UnLoadGameData

; 42   : }

  002b6	83 c4 04	 add	 esp, 4
  002b9	3b ec		 cmp	 ebp, esp
  002bb	e8 00 00 00 00	 call	 __RTC_CheckEsp
  002c0	8b e5		 mov	 esp, ebp
  002c2	5d		 pop	 ebp
  002c3	c3		 ret	 0
?DataAppExit@LocalGameData@@UAEXXZ ENDP			; LocalGameData::DataAppExit
_TEXT	ENDS
PUBLIC	?FindElem@CMarkupArchive@@UAE_NPBD@Z		; CMarkupArchive::FindElem
PUBLIC	?FindChildElem@CMarkupArchive@@UAE_NPBD@Z	; CMarkupArchive::FindChildElem
PUBLIC	??0OneLocalGame@@QAE@XZ				; OneLocalGame::OneLocalGame
PUBLIC	??1OneLocalGame@@QAE@XZ				; OneLocalGame::~OneLocalGame
PUBLIC	?ResetPos@CMarkup@@QAEXXZ			; CMarkup::ResetPos
PUBLIC	?GetAttrib@CMarkup@@QBE?AV?$CStringT@DV?$StrTraitMFC_DLL@DV?$ChTraitsCRT@D@ATL@@@@@ATL@@PBD@Z ; CMarkup::GetAttrib
PUBLIC	?push_back@?$vector@UOneLocalGame@@V?$allocator@UOneLocalGame@@@std@@@std@@QAEXABUOneLocalGame@@@Z ; std::vector<OneLocalGame,std::allocator<OneLocalGame> >::push_back
PUBLIC	?clear@?$vector@UOneLocalGame@@V?$allocator@UOneLocalGame@@@std@@@std@@QAEXXZ ; std::vector<OneLocalGame,std::allocator<OneLocalGame> >::clear
PUBLIC	??0CMarkupArchive@@QAE@K@Z			; CMarkupArchive::CMarkupArchive
EXTRN	?Open@CMarkupArchive@@QAE_NPBD@Z:NEAR		; CMarkupArchive::Open
EXTRN	?Close@CMarkupArchive@@QAE_NXZ:NEAR		; CMarkupArchive::Close
EXTRN	?IsValid@YL_FileInfo@@SA_NABV?$basic_string@DU?$char_traits@D@std@@V?$allocator@D@2@@std@@@Z:NEAR ; YL_FileInfo::IsValid
EXTRN	__imp_??4?$basic_string@DU?$char_traits@D@std@@V?$allocator@D@2@@std@@QAEAAV01@PBD@Z:NEAR
EXTRN	__imp_??B?$CSimpleStringT@D$00@ATL@@QBEPBDXZ:NEAR
EXTRN	?IntoElem@CMarkup@@QAE_NXZ:NEAR			; CMarkup::IntoElem
EXTRN	__imp_??1?$CStringT@DV?$StrTraitMFC_DLL@DV?$ChTraitsCRT@D@ATL@@@@@ATL@@QAE@XZ:NEAR
EXTRN	??1CMarkupArchive@@UAE@XZ:NEAR			; CMarkupArchive::~CMarkupArchive
xdata$x	SEGMENT
$T192443 DD	0ffffffffH
	DD	FLAT:$L192419
	DD	00H
	DD	FLAT:$L192420
	DD	0ffffffffH
	DD	FLAT:$L192421
	DD	02H
	DD	FLAT:$L192422
	DD	03H
	DD	FLAT:$L192423
	DD	02H
	DD	FLAT:$L192424
	DD	05H
	DD	FLAT:$L192425
	DD	05H
	DD	FLAT:$L192426
	DD	05H
	DD	FLAT:$L192427
	DD	05H
	DD	FLAT:$L192428
	DD	05H
	DD	FLAT:$L192429
	DD	05H
	DD	FLAT:$L192430
	DD	0bH
	DD	FLAT:$L192431
	DD	05H
	DD	FLAT:$L192432
	DD	0dH
	DD	FLAT:$L192433
$T192435 DD	019930520H
	DD	0fH
	DD	FLAT:$T192443
	DD	2 DUP(00H)
	DD	2 DUP(00H)
; Function compile flags: /Odt /RTCsu
xdata$x	ENDS
_TEXT	SEGMENT
tv256 = -816						; size = 4
tv275 = -812						; size = 4
tv254 = -808						; size = 4
tv272 = -804						; size = 4
tv252 = -800						; size = 4
tv269 = -796						; size = 4
tv250 = -792						; size = 4
tv266 = -788						; size = 4
tv248 = -784						; size = 4
tv150 = -780						; size = 4
$T192418 = -776						; size = 28
$T192417 = -748						; size = 28
$T192416 = -720						; size = 28
$T192415 = -692						; size = 28
$T192414 = -664						; size = 4
$T192413 = -660						; size = 4
$T192412 = -656						; size = 4
$T192411 = -652						; size = 4
$T192410 = -648						; size = 4
$T192409 = -644						; size = 28
$T192408 = -616						; size = 28
$T192407 = -588						; size = 28
$T192406 = -560						; size = 28
_olg$189748 = -528					; size = 144
_szHomePath$ = -376					; size = 260
_xml$ = -108						; size = 84
_this$ = -20						; size = 4
__$ArrayPad$ = -16					; size = 4
__$EHRec$ = -12						; size = 12
__$ReturnAddr$ = 4					; size = 4
?LoadGameData@LocalGameData@@AAEXXZ PROC NEAR		; LocalGameData::LoadGameData
; _this$ = ecx

; 97   : {

  002d0	55		 push	 ebp
  002d1	8b ec		 mov	 ebp, esp
  002d3	6a ff		 push	 -1
  002d5	68 00 00 00 00	 push	 __ehhandler$?LoadGameData@LocalGameData@@AAEXXZ
  002da	64 a1 00 00 00
	00		 mov	 eax, DWORD PTR fs:__except_list
  002e0	50		 push	 eax
  002e1	64 89 25 00 00
	00 00		 mov	 DWORD PTR fs:__except_list, esp
  002e8	81 ec 24 03 00
	00		 sub	 esp, 804		; 00000324H
  002ee	56		 push	 esi
  002ef	57		 push	 edi
  002f0	51		 push	 ecx
  002f1	8d bd d0 fc ff
	ff		 lea	 edi, DWORD PTR [ebp-816]
  002f7	b9 c9 00 00 00	 mov	 ecx, 201		; 000000c9H
  002fc	b8 cc cc cc cc	 mov	 eax, -858993460		; ccccccccH
  00301	f3 ab		 rep stosd
  00303	59		 pop	 ecx
  00304	a1 00 00 00 00	 mov	 eax, DWORD PTR ___security_cookie
  00309	89 45 f0	 mov	 DWORD PTR __$ArrayPad$[ebp], eax
  0030c	89 4d ec	 mov	 DWORD PTR _this$[ebp], ecx

; 98   : 	m_vecGame.clear();

  0030f	8b 4d ec	 mov	 ecx, DWORD PTR _this$[ebp]
  00312	83 c1 04	 add	 ecx, 4
  00315	e8 00 00 00 00	 call	 ?clear@?$vector@UOneLocalGame@@V?$allocator@UOneLocalGame@@@std@@@std@@QAEXXZ ; std::vector<OneLocalGame,std::allocator<OneLocalGame> >::clear

; 99   : 	YL_Log( "LocalGameData.txt", LOG_DEBUG, "LoadGameData","m_strDataFilePath:%s", m_strDataFilePath.c_str() );

  0031a	8b f4		 mov	 esi, esp
  0031c	68 00 00 00 00	 push	 OFFSET FLAT:$SG189735
  00321	8d 8d d0 fd ff
	ff		 lea	 ecx, DWORD PTR $T192406[ebp]
  00327	ff 15 00 00 00
	00		 call	 DWORD PTR __imp_??0?$basic_string@DU?$char_traits@D@std@@V?$allocator@D@2@@std@@QAE@PBD@Z
  0032d	3b f4		 cmp	 esi, esp
  0032f	e8 00 00 00 00	 call	 __RTC_CheckEsp
  00334	c7 45 fc 00 00
	00 00		 mov	 DWORD PTR __$EHRec$[ebp+8], 0
  0033b	8b f4		 mov	 esi, esp
  0033d	68 00 00 00 00	 push	 OFFSET FLAT:$SG189736
  00342	8d 8d b4 fd ff
	ff		 lea	 ecx, DWORD PTR $T192407[ebp]
  00348	ff 15 00 00 00
	00		 call	 DWORD PTR __imp_??0?$basic_string@DU?$char_traits@D@std@@V?$allocator@D@2@@std@@QAE@PBD@Z
  0034e	3b f4		 cmp	 esi, esp
  00350	e8 00 00 00 00	 call	 __RTC_CheckEsp
  00355	c6 45 fc 01	 mov	 BYTE PTR __$EHRec$[ebp+8], 1
  00359	8b 4d ec	 mov	 ecx, DWORD PTR _this$[ebp]
  0035c	83 c1 14	 add	 ecx, 20			; 00000014H
  0035f	8b f4		 mov	 esi, esp
  00361	ff 15 00 00 00
	00		 call	 DWORD PTR __imp_?c_str@?$basic_string@DU?$char_traits@D@std@@V?$allocator@D@2@@std@@QBEPBDXZ
  00367	3b f4		 cmp	 esi, esp
  00369	e8 00 00 00 00	 call	 __RTC_CheckEsp
  0036e	8b f4		 mov	 esi, esp
  00370	50		 push	 eax
  00371	68 00 00 00 00	 push	 OFFSET FLAT:$SG189734
  00376	8d 85 d0 fd ff
	ff		 lea	 eax, DWORD PTR $T192406[ebp]
  0037c	50		 push	 eax
  0037d	6a 00		 push	 0
  0037f	8d 8d b4 fd ff
	ff		 lea	 ecx, DWORD PTR $T192407[ebp]
  00385	51		 push	 ecx
  00386	ff 15 00 00 00
	00		 call	 DWORD PTR __imp_?YL_Log@@YAXABV?$basic_string@DU?$char_traits@D@std@@V?$allocator@D@2@@std@@H0PBDZZ
  0038c	83 c4 14	 add	 esp, 20			; 00000014H
  0038f	3b f4		 cmp	 esi, esp
  00391	e8 00 00 00 00	 call	 __RTC_CheckEsp
  00396	c6 45 fc 00	 mov	 BYTE PTR __$EHRec$[ebp+8], 0
  0039a	8b f4		 mov	 esi, esp
  0039c	8d 8d b4 fd ff
	ff		 lea	 ecx, DWORD PTR $T192407[ebp]
  003a2	ff 15 00 00 00
	00		 call	 DWORD PTR __imp_??1?$basic_string@DU?$char_traits@D@std@@V?$allocator@D@2@@std@@QAE@XZ
  003a8	3b f4		 cmp	 esi, esp
  003aa	e8 00 00 00 00	 call	 __RTC_CheckEsp
  003af	c7 45 fc ff ff
	ff ff		 mov	 DWORD PTR __$EHRec$[ebp+8], -1
  003b6	8b f4		 mov	 esi, esp
  003b8	8d 8d d0 fd ff
	ff		 lea	 ecx, DWORD PTR $T192406[ebp]
  003be	ff 15 00 00 00
	00		 call	 DWORD PTR __imp_??1?$basic_string@DU?$char_traits@D@std@@V?$allocator@D@2@@std@@QAE@XZ
  003c4	3b f4		 cmp	 esi, esp
  003c6	e8 00 00 00 00	 call	 __RTC_CheckEsp

; 100  : 
; 101  : 	CMarkupArchive xml;

  003cb	6a 03		 push	 3
  003cd	8d 4d 94	 lea	 ecx, DWORD PTR _xml$[ebp]
  003d0	e8 00 00 00 00	 call	 ??0CMarkupArchive@@QAE@K@Z ; CMarkupArchive::CMarkupArchive
  003d5	c7 45 fc 02 00
	00 00		 mov	 DWORD PTR __$EHRec$[ebp+8], 2

; 102  : 	if( !xml.Open(m_strDataFilePath.c_str()) )

  003dc	8b 4d ec	 mov	 ecx, DWORD PTR _this$[ebp]
  003df	83 c1 14	 add	 ecx, 20			; 00000014H
  003e2	8b f4		 mov	 esi, esp
  003e4	ff 15 00 00 00
	00		 call	 DWORD PTR __imp_?c_str@?$basic_string@DU?$char_traits@D@std@@V?$allocator@D@2@@std@@QBEPBDXZ
  003ea	3b f4		 cmp	 esi, esp
  003ec	e8 00 00 00 00	 call	 __RTC_CheckEsp
  003f1	50		 push	 eax
  003f2	8d 4d 94	 lea	 ecx, DWORD PTR _xml$[ebp]
  003f5	e8 00 00 00 00	 call	 ?Open@CMarkupArchive@@QAE_NPBD@Z ; CMarkupArchive::Open
  003fa	0f b6 d0	 movzx	 edx, al
  003fd	85 d2		 test	 edx, edx
  003ff	75 14		 jne	 SHORT $L189738

; 103  : 		return;

  00401	c7 45 fc ff ff
	ff ff		 mov	 DWORD PTR __$EHRec$[ebp+8], -1
  00408	8d 4d 94	 lea	 ecx, DWORD PTR _xml$[ebp]
  0040b	e8 00 00 00 00	 call	 ??1CMarkupArchive@@UAE@XZ ; CMarkupArchive::~CMarkupArchive
  00410	e9 bf 04 00 00	 jmp	 $L189731
$L189738:

; 104  : 
; 105  : 	YL_Log( "LocalGameData.txt", LOG_DEBUG, "LoadGameData","CMarkupArchive::Open success" );

  00415	8b f4		 mov	 esi, esp
  00417	68 00 00 00 00	 push	 OFFSET FLAT:$SG189742
  0041c	8d 8d 98 fd ff
	ff		 lea	 ecx, DWORD PTR $T192408[ebp]
  00422	ff 15 00 00 00
	00		 call	 DWORD PTR __imp_??0?$basic_string@DU?$char_traits@D@std@@V?$allocator@D@2@@std@@QAE@PBD@Z
  00428	3b f4		 cmp	 esi, esp
  0042a	e8 00 00 00 00	 call	 __RTC_CheckEsp
  0042f	c6 45 fc 03	 mov	 BYTE PTR __$EHRec$[ebp+8], 3
  00433	8b f4		 mov	 esi, esp
  00435	68 00 00 00 00	 push	 OFFSET FLAT:$SG189743
  0043a	8d 8d 7c fd ff
	ff		 lea	 ecx, DWORD PTR $T192409[ebp]
  00440	ff 15 00 00 00
	00		 call	 DWORD PTR __imp_??0?$basic_string@DU?$char_traits@D@std@@V?$allocator@D@2@@std@@QAE@PBD@Z
  00446	3b f4		 cmp	 esi, esp
  00448	e8 00 00 00 00	 call	 __RTC_CheckEsp
  0044d	c6 45 fc 04	 mov	 BYTE PTR __$EHRec$[ebp+8], 4
  00451	8b f4		 mov	 esi, esp
  00453	68 00 00 00 00	 push	 OFFSET FLAT:$SG189741
  00458	8d 85 98 fd ff
	ff		 lea	 eax, DWORD PTR $T192408[ebp]
  0045e	50		 push	 eax
  0045f	6a 00		 push	 0
  00461	8d 8d 7c fd ff
	ff		 lea	 ecx, DWORD PTR $T192409[ebp]
  00467	51		 push	 ecx
  00468	ff 15 00 00 00
	00		 call	 DWORD PTR __imp_?YL_Log@@YAXABV?$basic_string@DU?$char_traits@D@std@@V?$allocator@D@2@@std@@H0PBDZZ
  0046e	83 c4 10	 add	 esp, 16			; 00000010H
  00471	3b f4		 cmp	 esi, esp
  00473	e8 00 00 00 00	 call	 __RTC_CheckEsp
  00478	c6 45 fc 03	 mov	 BYTE PTR __$EHRec$[ebp+8], 3
  0047c	8b f4		 mov	 esi, esp
  0047e	8d 8d 7c fd ff
	ff		 lea	 ecx, DWORD PTR $T192409[ebp]
  00484	ff 15 00 00 00
	00		 call	 DWORD PTR __imp_??1?$basic_string@DU?$char_traits@D@std@@V?$allocator@D@2@@std@@QAE@XZ
  0048a	3b f4		 cmp	 esi, esp
  0048c	e8 00 00 00 00	 call	 __RTC_CheckEsp
  00491	c6 45 fc 02	 mov	 BYTE PTR __$EHRec$[ebp+8], 2
  00495	8b f4		 mov	 esi, esp
  00497	8d 8d 98 fd ff
	ff		 lea	 ecx, DWORD PTR $T192408[ebp]
  0049d	ff 15 00 00 00
	00		 call	 DWORD PTR __imp_??1?$basic_string@DU?$char_traits@D@std@@V?$allocator@D@2@@std@@QAE@XZ
  004a3	3b f4		 cmp	 esi, esp
  004a5	e8 00 00 00 00	 call	 __RTC_CheckEsp

; 106  : 
; 107  : 	char szHomePath[MAX_PATH];
; 108  : 	CLhcImg::GetHomePath( szHomePath, MAX_PATH );

  004aa	68 04 01 00 00	 push	 260			; 00000104H
  004af	8d 95 88 fe ff
	ff		 lea	 edx, DWORD PTR _szHomePath$[ebp]
  004b5	52		 push	 edx
  004b6	e8 00 00 00 00	 call	 ?GetHomePath@CLhcImg@@SA_NQADH@Z ; CLhcImg::GetHomePath
  004bb	83 c4 08	 add	 esp, 8

; 109  : 
; 110  : 	xml.ResetPos();

  004be	8d 4d 94	 lea	 ecx, DWORD PTR _xml$[ebp]
  004c1	e8 00 00 00 00	 call	 ?ResetPos@CMarkup@@QAEXXZ ; CMarkup::ResetPos

; 111  : 	xml.FindElem();

  004c6	6a 00		 push	 0
  004c8	8d 4d 94	 lea	 ecx, DWORD PTR _xml$[ebp]
  004cb	e8 00 00 00 00	 call	 ?FindElem@CMarkupArchive@@UAE_NPBD@Z ; CMarkupArchive::FindElem

; 112  : 	xml.IntoElem();

  004d0	8d 4d 94	 lea	 ecx, DWORD PTR _xml$[ebp]
  004d3	e8 00 00 00 00	 call	 ?IntoElem@CMarkup@@QAE_NXZ ; CMarkup::IntoElem
$L189746:

; 113  : 
; 114  : 	while( xml.FindChildElem() )

  004d8	6a 00		 push	 0
  004da	8d 4d 94	 lea	 ecx, DWORD PTR _xml$[ebp]
  004dd	e8 00 00 00 00	 call	 ?FindChildElem@CMarkupArchive@@UAE_NPBD@Z ; CMarkupArchive::FindChildElem
  004e2	0f b6 c0	 movzx	 eax, al
  004e5	85 c0		 test	 eax, eax
  004e7	0f 84 d0 03 00
	00		 je	 $L189747

; 115  : 	{
; 116  : 		OneLocalGame olg;

  004ed	8d 8d f0 fd ff
	ff		 lea	 ecx, DWORD PTR _olg$189748[ebp]
  004f3	e8 00 00 00 00	 call	 ??0OneLocalGame@@QAE@XZ	; OneLocalGame::OneLocalGame
  004f8	c6 45 fc 05	 mov	 BYTE PTR __$EHRec$[ebp+8], 5

; 117  : 		olg.strID    = xml.GetAttrib( "Id" );

  004fc	68 00 00 00 00	 push	 OFFSET FLAT:$SG189750
  00501	8d 8d 78 fd ff
	ff		 lea	 ecx, DWORD PTR $T192410[ebp]
  00507	51		 push	 ecx
  00508	8d 4d 94	 lea	 ecx, DWORD PTR _xml$[ebp]
  0050b	e8 00 00 00 00	 call	 ?GetAttrib@CMarkup@@QBE?AV?$CStringT@DV?$StrTraitMFC_DLL@DV?$ChTraitsCRT@D@ATL@@@@@ATL@@PBD@Z ; CMarkup::GetAttrib
  00510	89 85 f4 fc ff
	ff		 mov	 DWORD PTR tv150[ebp], eax
  00516	8b 95 f4 fc ff
	ff		 mov	 edx, DWORD PTR tv150[ebp]
  0051c	89 95 f0 fc ff
	ff		 mov	 DWORD PTR tv248[ebp], edx
  00522	c6 45 fc 06	 mov	 BYTE PTR __$EHRec$[ebp+8], 6
  00526	8b f4		 mov	 esi, esp
  00528	8b 8d f0 fc ff
	ff		 mov	 ecx, DWORD PTR tv248[ebp]
  0052e	ff 15 00 00 00
	00		 call	 DWORD PTR __imp_??B?$CSimpleStringT@D$00@ATL@@QBEPBDXZ
  00534	3b f4		 cmp	 esi, esp
  00536	e8 00 00 00 00	 call	 __RTC_CheckEsp
  0053b	8b f4		 mov	 esi, esp
  0053d	50		 push	 eax
  0053e	8d 8d f0 fd ff
	ff		 lea	 ecx, DWORD PTR _olg$189748[ebp]
  00544	ff 15 00 00 00
	00		 call	 DWORD PTR __imp_??4?$basic_string@DU?$char_traits@D@std@@V?$allocator@D@2@@std@@QAEAAV01@PBD@Z
  0054a	3b f4		 cmp	 esi, esp
  0054c	e8 00 00 00 00	 call	 __RTC_CheckEsp
  00551	c6 45 fc 05	 mov	 BYTE PTR __$EHRec$[ebp+8], 5
  00555	8b f4		 mov	 esi, esp
  00557	8d 8d 78 fd ff
	ff		 lea	 ecx, DWORD PTR $T192410[ebp]
  0055d	ff 15 00 00 00
	00		 call	 DWORD PTR __imp_??1?$CStringT@DV?$StrTraitMFC_DLL@DV?$ChTraitsCRT@D@ATL@@@@@ATL@@QAE@XZ
  00563	3b f4		 cmp	 esi, esp
  00565	e8 00 00 00 00	 call	 __RTC_CheckEsp

; 118  : 		olg.strName  = xml.GetAttrib( "Name" );

  0056a	68 00 00 00 00	 push	 OFFSET FLAT:$SG189752
  0056f	8d 85 74 fd ff
	ff		 lea	 eax, DWORD PTR $T192411[ebp]
  00575	50		 push	 eax
  00576	8d 4d 94	 lea	 ecx, DWORD PTR _xml$[ebp]
  00579	e8 00 00 00 00	 call	 ?GetAttrib@CMarkup@@QBE?AV?$CStringT@DV?$StrTraitMFC_DLL@DV?$ChTraitsCRT@D@ATL@@@@@ATL@@PBD@Z ; CMarkup::GetAttrib
  0057e	89 85 ec fc ff
	ff		 mov	 DWORD PTR tv266[ebp], eax
  00584	8b 8d ec fc ff
	ff		 mov	 ecx, DWORD PTR tv266[ebp]
  0058a	89 8d e8 fc ff
	ff		 mov	 DWORD PTR tv250[ebp], ecx
  00590	c6 45 fc 07	 mov	 BYTE PTR __$EHRec$[ebp+8], 7
  00594	8b f4		 mov	 esi, esp
  00596	8b 8d e8 fc ff
	ff		 mov	 ecx, DWORD PTR tv250[ebp]
  0059c	ff 15 00 00 00
	00		 call	 DWORD PTR __imp_??B?$CSimpleStringT@D$00@ATL@@QBEPBDXZ
  005a2	3b f4		 cmp	 esi, esp
  005a4	e8 00 00 00 00	 call	 __RTC_CheckEsp
  005a9	8b f4		 mov	 esi, esp
  005ab	50		 push	 eax
  005ac	8d 8d 0c fe ff
	ff		 lea	 ecx, DWORD PTR _olg$189748[ebp+28]
  005b2	ff 15 00 00 00
	00		 call	 DWORD PTR __imp_??4?$basic_string@DU?$char_traits@D@std@@V?$allocator@D@2@@std@@QAEAAV01@PBD@Z
  005b8	3b f4		 cmp	 esi, esp
  005ba	e8 00 00 00 00	 call	 __RTC_CheckEsp
  005bf	c6 45 fc 05	 mov	 BYTE PTR __$EHRec$[ebp+8], 5
  005c3	8b f4		 mov	 esi, esp
  005c5	8d 8d 74 fd ff
	ff		 lea	 ecx, DWORD PTR $T192411[ebp]
  005cb	ff 15 00 00 00
	00		 call	 DWORD PTR __imp_??1?$CStringT@DV?$StrTraitMFC_DLL@DV?$ChTraitsCRT@D@ATL@@@@@ATL@@QAE@XZ
  005d1	3b f4		 cmp	 esi, esp
  005d3	e8 00 00 00 00	 call	 __RTC_CheckEsp

; 119  : 		olg.strIntro  = xml.GetAttrib( "Intro" );

  005d8	68 00 00 00 00	 push	 OFFSET FLAT:$SG189754
  005dd	8d 95 70 fd ff
	ff		 lea	 edx, DWORD PTR $T192412[ebp]
  005e3	52		 push	 edx
  005e4	8d 4d 94	 lea	 ecx, DWORD PTR _xml$[ebp]
  005e7	e8 00 00 00 00	 call	 ?GetAttrib@CMarkup@@QBE?AV?$CStringT@DV?$StrTraitMFC_DLL@DV?$ChTraitsCRT@D@ATL@@@@@ATL@@PBD@Z ; CMarkup::GetAttrib
  005ec	89 85 e4 fc ff
	ff		 mov	 DWORD PTR tv269[ebp], eax
  005f2	8b 85 e4 fc ff
	ff		 mov	 eax, DWORD PTR tv269[ebp]
  005f8	89 85 e0 fc ff
	ff		 mov	 DWORD PTR tv252[ebp], eax
  005fe	c6 45 fc 08	 mov	 BYTE PTR __$EHRec$[ebp+8], 8
  00602	8b f4		 mov	 esi, esp
  00604	8b 8d e0 fc ff
	ff		 mov	 ecx, DWORD PTR tv252[ebp]
  0060a	ff 15 00 00 00
	00		 call	 DWORD PTR __imp_??B?$CSimpleStringT@D$00@ATL@@QBEPBDXZ
  00610	3b f4		 cmp	 esi, esp
  00612	e8 00 00 00 00	 call	 __RTC_CheckEsp
  00617	8b f4		 mov	 esi, esp
  00619	50		 push	 eax
  0061a	8d 8d 60 fe ff
	ff		 lea	 ecx, DWORD PTR _olg$189748[ebp+112]
  00620	ff 15 00 00 00
	00		 call	 DWORD PTR __imp_??4?$basic_string@DU?$char_traits@D@std@@V?$allocator@D@2@@std@@QAEAAV01@PBD@Z
  00626	3b f4		 cmp	 esi, esp
  00628	e8 00 00 00 00	 call	 __RTC_CheckEsp
  0062d	c6 45 fc 05	 mov	 BYTE PTR __$EHRec$[ebp+8], 5
  00631	8b f4		 mov	 esi, esp
  00633	8d 8d 70 fd ff
	ff		 lea	 ecx, DWORD PTR $T192412[ebp]
  00639	ff 15 00 00 00
	00		 call	 DWORD PTR __imp_??1?$CStringT@DV?$StrTraitMFC_DLL@DV?$ChTraitsCRT@D@ATL@@@@@ATL@@QAE@XZ
  0063f	3b f4		 cmp	 esi, esp
  00641	e8 00 00 00 00	 call	 __RTC_CheckEsp

; 120  : 		//YL_Log( "LocalGameData.txt", LOG_DEBUG, "LoadGameData","id:%s|name:%s|intro:%s",
; 121  : 		//	olg.strID.c_str(), olg.strName.c_str(), olg.strIntro.c_str() );
; 122  : 		olg.strPicPath = xml.GetAttrib( "Img" );

  00646	68 00 00 00 00	 push	 OFFSET FLAT:$SG189756
  0064b	8d 8d 6c fd ff
	ff		 lea	 ecx, DWORD PTR $T192413[ebp]
  00651	51		 push	 ecx
  00652	8d 4d 94	 lea	 ecx, DWORD PTR _xml$[ebp]
  00655	e8 00 00 00 00	 call	 ?GetAttrib@CMarkup@@QBE?AV?$CStringT@DV?$StrTraitMFC_DLL@DV?$ChTraitsCRT@D@ATL@@@@@ATL@@PBD@Z ; CMarkup::GetAttrib
  0065a	89 85 dc fc ff
	ff		 mov	 DWORD PTR tv272[ebp], eax
  00660	8b 95 dc fc ff
	ff		 mov	 edx, DWORD PTR tv272[ebp]
  00666	89 95 d8 fc ff
	ff		 mov	 DWORD PTR tv254[ebp], edx
  0066c	c6 45 fc 09	 mov	 BYTE PTR __$EHRec$[ebp+8], 9
  00670	8b f4		 mov	 esi, esp
  00672	8b 8d d8 fc ff
	ff		 mov	 ecx, DWORD PTR tv254[ebp]
  00678	ff 15 00 00 00
	00		 call	 DWORD PTR __imp_??B?$CSimpleStringT@D$00@ATL@@QBEPBDXZ
  0067e	3b f4		 cmp	 esi, esp
  00680	e8 00 00 00 00	 call	 __RTC_CheckEsp
  00685	8b f4		 mov	 esi, esp
  00687	50		 push	 eax
  00688	8d 8d 44 fe ff
	ff		 lea	 ecx, DWORD PTR _olg$189748[ebp+84]
  0068e	ff 15 00 00 00
	00		 call	 DWORD PTR __imp_??4?$basic_string@DU?$char_traits@D@std@@V?$allocator@D@2@@std@@QAEAAV01@PBD@Z
  00694	3b f4		 cmp	 esi, esp
  00696	e8 00 00 00 00	 call	 __RTC_CheckEsp
  0069b	c6 45 fc 05	 mov	 BYTE PTR __$EHRec$[ebp+8], 5
  0069f	8b f4		 mov	 esi, esp
  006a1	8d 8d 6c fd ff
	ff		 lea	 ecx, DWORD PTR $T192413[ebp]
  006a7	ff 15 00 00 00
	00		 call	 DWORD PTR __imp_??1?$CStringT@DV?$StrTraitMFC_DLL@DV?$ChTraitsCRT@D@ATL@@@@@ATL@@QAE@XZ
  006ad	3b f4		 cmp	 esi, esp
  006af	e8 00 00 00 00	 call	 __RTC_CheckEsp

; 123  : 		olg.strGamePath = xml.GetAttrib( "AppPath" );

  006b4	68 00 00 00 00	 push	 OFFSET FLAT:$SG189758
  006b9	8d 85 68 fd ff
	ff		 lea	 eax, DWORD PTR $T192414[ebp]
  006bf	50		 push	 eax
  006c0	8d 4d 94	 lea	 ecx, DWORD PTR _xml$[ebp]
  006c3	e8 00 00 00 00	 call	 ?GetAttrib@CMarkup@@QBE?AV?$CStringT@DV?$StrTraitMFC_DLL@DV?$ChTraitsCRT@D@ATL@@@@@ATL@@PBD@Z ; CMarkup::GetAttrib
  006c8	89 85 d4 fc ff
	ff		 mov	 DWORD PTR tv275[ebp], eax
  006ce	8b 8d d4 fc ff
	ff		 mov	 ecx, DWORD PTR tv275[ebp]
  006d4	89 8d d0 fc ff
	ff		 mov	 DWORD PTR tv256[ebp], ecx
  006da	c6 45 fc 0a	 mov	 BYTE PTR __$EHRec$[ebp+8], 10 ; 0000000aH
  006de	8b f4		 mov	 esi, esp
  006e0	8b 8d d0 fc ff
	ff		 mov	 ecx, DWORD PTR tv256[ebp]
  006e6	ff 15 00 00 00
	00		 call	 DWORD PTR __imp_??B?$CSimpleStringT@D$00@ATL@@QBEPBDXZ
  006ec	3b f4		 cmp	 esi, esp
  006ee	e8 00 00 00 00	 call	 __RTC_CheckEsp
  006f3	8b f4		 mov	 esi, esp
  006f5	50		 push	 eax
  006f6	8d 8d 28 fe ff
	ff		 lea	 ecx, DWORD PTR _olg$189748[ebp+56]
  006fc	ff 15 00 00 00
	00		 call	 DWORD PTR __imp_??4?$basic_string@DU?$char_traits@D@std@@V?$allocator@D@2@@std@@QAEAAV01@PBD@Z
  00702	3b f4		 cmp	 esi, esp
  00704	e8 00 00 00 00	 call	 __RTC_CheckEsp
  00709	c6 45 fc 05	 mov	 BYTE PTR __$EHRec$[ebp+8], 5
  0070d	8b f4		 mov	 esi, esp
  0070f	8d 8d 68 fd ff
	ff		 lea	 ecx, DWORD PTR $T192414[ebp]
  00715	ff 15 00 00 00
	00		 call	 DWORD PTR __imp_??1?$CStringT@DV?$StrTraitMFC_DLL@DV?$ChTraitsCRT@D@ATL@@@@@ATL@@QAE@XZ
  0071b	3b f4		 cmp	 esi, esp
  0071d	e8 00 00 00 00	 call	 __RTC_CheckEsp

; 124  : 
; 125  : 		if( YL_FileInfo::IsValid( olg.strGamePath ) )

  00722	8d 95 28 fe ff
	ff		 lea	 edx, DWORD PTR _olg$189748[ebp+56]
  00728	52		 push	 edx
  00729	e8 00 00 00 00	 call	 ?IsValid@YL_FileInfo@@SA_NABV?$basic_string@DU?$char_traits@D@std@@V?$allocator@D@2@@std@@@Z ; YL_FileInfo::IsValid
  0072e	83 c4 04	 add	 esp, 4
  00731	0f b6 c0	 movzx	 eax, al
  00734	85 c0		 test	 eax, eax
  00736	0f 84 c2 00 00
	00		 je	 $L189759

; 126  : 		{
; 127  : 			YL_Log( "LocalGameData.txt", LOG_DEBUG, "LoadGameData",":%s",
; 128  : 				olg.strGamePath.c_str() );

  0073c	8b f4		 mov	 esi, esp
  0073e	68 00 00 00 00	 push	 OFFSET FLAT:$SG189763
  00743	8d 8d 4c fd ff
	ff		 lea	 ecx, DWORD PTR $T192415[ebp]
  00749	ff 15 00 00 00
	00		 call	 DWORD PTR __imp_??0?$basic_string@DU?$char_traits@D@std@@V?$allocator@D@2@@std@@QAE@PBD@Z
  0074f	3b f4		 cmp	 esi, esp
  00751	e8 00 00 00 00	 call	 __RTC_CheckEsp
  00756	c6 45 fc 0b	 mov	 BYTE PTR __$EHRec$[ebp+8], 11 ; 0000000bH
  0075a	8b f4		 mov	 esi, esp
  0075c	68 00 00 00 00	 push	 OFFSET FLAT:$SG189764
  00761	8d 8d 30 fd ff
	ff		 lea	 ecx, DWORD PTR $T192416[ebp]
  00767	ff 15 00 00 00
	00		 call	 DWORD PTR __imp_??0?$basic_string@DU?$char_traits@D@std@@V?$allocator@D@2@@std@@QAE@PBD@Z
  0076d	3b f4		 cmp	 esi, esp
  0076f	e8 00 00 00 00	 call	 __RTC_CheckEsp
  00774	c6 45 fc 0c	 mov	 BYTE PTR __$EHRec$[ebp+8], 12 ; 0000000cH
  00778	8b f4		 mov	 esi, esp
  0077a	8d 8d 28 fe ff
	ff		 lea	 ecx, DWORD PTR _olg$189748[ebp+56]
  00780	ff 15 00 00 00
	00		 call	 DWORD PTR __imp_?c_str@?$basic_string@DU?$char_traits@D@std@@V?$allocator@D@2@@std@@QBEPBDXZ
  00786	3b f4		 cmp	 esi, esp
  00788	e8 00 00 00 00	 call	 __RTC_CheckEsp
  0078d	8b f4		 mov	 esi, esp
  0078f	50		 push	 eax
  00790	68 00 00 00 00	 push	 OFFSET FLAT:$SG189762
  00795	8d 8d 4c fd ff
	ff		 lea	 ecx, DWORD PTR $T192415[ebp]
  0079b	51		 push	 ecx
  0079c	6a 00		 push	 0
  0079e	8d 95 30 fd ff
	ff		 lea	 edx, DWORD PTR $T192416[ebp]
  007a4	52		 push	 edx
  007a5	ff 15 00 00 00
	00		 call	 DWORD PTR __imp_?YL_Log@@YAXABV?$basic_string@DU?$char_traits@D@std@@V?$allocator@D@2@@std@@H0PBDZZ
  007ab	83 c4 14	 add	 esp, 20			; 00000014H
  007ae	3b f4		 cmp	 esi, esp
  007b0	e8 00 00 00 00	 call	 __RTC_CheckEsp
  007b5	c6 45 fc 0b	 mov	 BYTE PTR __$EHRec$[ebp+8], 11 ; 0000000bH
  007b9	8b f4		 mov	 esi, esp
  007bb	8d 8d 30 fd ff
	ff		 lea	 ecx, DWORD PTR $T192416[ebp]
  007c1	ff 15 00 00 00
	00		 call	 DWORD PTR __imp_??1?$basic_string@DU?$char_traits@D@std@@V?$allocator@D@2@@std@@QAE@XZ
  007c7	3b f4		 cmp	 esi, esp
  007c9	e8 00 00 00 00	 call	 __RTC_CheckEsp
  007ce	c6 45 fc 05	 mov	 BYTE PTR __$EHRec$[ebp+8], 5
  007d2	8b f4		 mov	 esi, esp
  007d4	8d 8d 4c fd ff
	ff		 lea	 ecx, DWORD PTR $T192415[ebp]
  007da	ff 15 00 00 00
	00		 call	 DWORD PTR __imp_??1?$basic_string@DU?$char_traits@D@std@@V?$allocator@D@2@@std@@QAE@XZ
  007e0	3b f4		 cmp	 esi, esp
  007e2	e8 00 00 00 00	 call	 __RTC_CheckEsp

; 129  : 
; 130  : 			m_vecGame.push_back( olg );

  007e7	8d 85 f0 fd ff
	ff		 lea	 eax, DWORD PTR _olg$189748[ebp]
  007ed	50		 push	 eax
  007ee	8b 4d ec	 mov	 ecx, DWORD PTR _this$[ebp]
  007f1	83 c1 04	 add	 ecx, 4
  007f4	e8 00 00 00 00	 call	 ?push_back@?$vector@UOneLocalGame@@V?$allocator@UOneLocalGame@@@std@@@std@@QAEXABUOneLocalGame@@@Z ; std::vector<OneLocalGame,std::allocator<OneLocalGame> >::push_back

; 131  : 		}else

  007f9	e9 ab 00 00 00	 jmp	 $L189765
$L189759:

; 132  : 		{
; 133  : 			YL_Log( "LocalGameData.txt", LOG_DEBUG, "LoadGameData",":%s",
; 134  : 				olg.strGamePath.c_str() );

  007fe	8b f4		 mov	 esi, esp
  00800	68 00 00 00 00	 push	 OFFSET FLAT:$SG189769
  00805	8d 8d 14 fd ff
	ff		 lea	 ecx, DWORD PTR $T192417[ebp]
  0080b	ff 15 00 00 00
	00		 call	 DWORD PTR __imp_??0?$basic_string@DU?$char_traits@D@std@@V?$allocator@D@2@@std@@QAE@PBD@Z
  00811	3b f4		 cmp	 esi, esp
  00813	e8 00 00 00 00	 call	 __RTC_CheckEsp
  00818	c6 45 fc 0d	 mov	 BYTE PTR __$EHRec$[ebp+8], 13 ; 0000000dH
  0081c	8b f4		 mov	 esi, esp
  0081e	68 00 00 00 00	 push	 OFFSET FLAT:$SG189770
  00823	8d 8d f8 fc ff
	ff		 lea	 ecx, DWORD PTR $T192418[ebp]
  00829	ff 15 00 00 00
	00		 call	 DWORD PTR __imp_??0?$basic_string@DU?$char_traits@D@std@@V?$allocator@D@2@@std@@QAE@PBD@Z
  0082f	3b f4		 cmp	 esi, esp
  00831	e8 00 00 00 00	 call	 __RTC_CheckEsp
  00836	c6 45 fc 0e	 mov	 BYTE PTR __$EHRec$[ebp+8], 14 ; 0000000eH
  0083a	8b f4		 mov	 esi, esp
  0083c	8d 8d 28 fe ff
	ff		 lea	 ecx, DWORD PTR _olg$189748[ebp+56]
  00842	ff 15 00 00 00
	00		 call	 DWORD PTR __imp_?c_str@?$basic_string@DU?$char_traits@D@std@@V?$allocator@D@2@@std@@QBEPBDXZ
  00848	3b f4		 cmp	 esi, esp
  0084a	e8 00 00 00 00	 call	 __RTC_CheckEsp
  0084f	8b f4		 mov	 esi, esp
  00851	50		 push	 eax
  00852	68 00 00 00 00	 push	 OFFSET FLAT:$SG189768
  00857	8d 8d 14 fd ff
	ff		 lea	 ecx, DWORD PTR $T192417[ebp]
  0085d	51		 push	 ecx
  0085e	6a 00		 push	 0
  00860	8d 95 f8 fc ff
	ff		 lea	 edx, DWORD PTR $T192418[ebp]
  00866	52		 push	 edx
  00867	ff 15 00 00 00
	00		 call	 DWORD PTR __imp_?YL_Log@@YAXABV?$basic_string@DU?$char_traits@D@std@@V?$allocator@D@2@@std@@H0PBDZZ
  0086d	83 c4 14	 add	 esp, 20			; 00000014H
  00870	3b f4		 cmp	 esi, esp
  00872	e8 00 00 00 00	 call	 __RTC_CheckEsp
  00877	c6 45 fc 0d	 mov	 BYTE PTR __$EHRec$[ebp+8], 13 ; 0000000dH
  0087b	8b f4		 mov	 esi, esp
  0087d	8d 8d f8 fc ff
	ff		 lea	 ecx, DWORD PTR $T192418[ebp]
  00883	ff 15 00 00 00
	00		 call	 DWORD PTR __imp_??1?$basic_string@DU?$char_traits@D@std@@V?$allocator@D@2@@std@@QAE@XZ
  00889	3b f4		 cmp	 esi, esp
  0088b	e8 00 00 00 00	 call	 __RTC_CheckEsp
  00890	c6 45 fc 05	 mov	 BYTE PTR __$EHRec$[ebp+8], 5
  00894	8b f4		 mov	 esi, esp
  00896	8d 8d 14 fd ff
	ff		 lea	 ecx, DWORD PTR $T192417[ebp]
  0089c	ff 15 00 00 00
	00		 call	 DWORD PTR __imp_??1?$basic_string@DU?$char_traits@D@std@@V?$allocator@D@2@@std@@QAE@XZ
  008a2	3b f4		 cmp	 esi, esp
  008a4	e8 00 00 00 00	 call	 __RTC_CheckEsp
$L189765:

; 135  : 		}
; 136  : 	}

  008a9	c6 45 fc 02	 mov	 BYTE PTR __$EHRec$[ebp+8], 2
  008ad	8d 8d f0 fd ff
	ff		 lea	 ecx, DWORD PTR _olg$189748[ebp]
  008b3	e8 00 00 00 00	 call	 ??1OneLocalGame@@QAE@XZ
  008b8	e9 1b fc ff ff	 jmp	 $L189746
$L189747:

; 137  : 	xml.Close();

  008bd	8d 4d 94	 lea	 ecx, DWORD PTR _xml$[ebp]
  008c0	e8 00 00 00 00	 call	 ?Close@CMarkupArchive@@QAE_NXZ ; CMarkupArchive::Close

; 138  : }

  008c5	c7 45 fc ff ff
	ff ff		 mov	 DWORD PTR __$EHRec$[ebp+8], -1
  008cc	8d 4d 94	 lea	 ecx, DWORD PTR _xml$[ebp]
  008cf	e8 00 00 00 00	 call	 ??1CMarkupArchive@@UAE@XZ ; CMarkupArchive::~CMarkupArchive
$L189731:
  008d4	52		 push	 edx
  008d5	8b cd		 mov	 ecx, ebp
  008d7	50		 push	 eax
  008d8	8d 15 00 00 00
	00		 lea	 edx, DWORD PTR $L192442
  008de	e8 00 00 00 00	 call	 @_RTC_CheckStackVars@8
  008e3	58		 pop	 eax
  008e4	5a		 pop	 edx
  008e5	8b 4d f4	 mov	 ecx, DWORD PTR __$EHRec$[ebp]
  008e8	64 89 0d 00 00
	00 00		 mov	 DWORD PTR fs:__except_list, ecx
  008ef	8b 4d f0	 mov	 ecx, DWORD PTR __$ArrayPad$[ebp]
  008f2	e8 00 00 00 00	 call	 @__security_check_cookie@4
  008f7	5f		 pop	 edi
  008f8	5e		 pop	 esi
  008f9	81 c4 30 03 00
	00		 add	 esp, 816		; 00000330H
  008ff	3b ec		 cmp	 ebp, esp
  00901	e8 00 00 00 00	 call	 __RTC_CheckEsp
  00906	8b e5		 mov	 esp, ebp
  00908	5d		 pop	 ebp
  00909	c3		 ret	 0
$L192442:
  0090a	03 00 00 00	 DD	 3
  0090e	00 00 00 00	 DD	 $L192441
$L192441:
  00912	94 ff ff ff	 DD	 -108			; ffffff94H
  00916	54 00 00 00	 DD	 84			; 00000054H
  0091a	00 00 00 00	 DD	 $L192436
  0091e	88 fe ff ff	 DD	 -376			; fffffe88H
  00922	04 01 00 00	 DD	 260			; 00000104H
  00926	00 00 00 00	 DD	 $L192437
  0092a	f0 fd ff ff	 DD	 -528			; fffffdf0H
  0092e	90 00 00 00	 DD	 144			; 00000090H
  00932	00 00 00 00	 DD	 $L192438
$L192438:
  00936	6f		 DB	 111			; 0000006fH
  00937	6c		 DB	 108			; 0000006cH
  00938	67		 DB	 103			; 00000067H
  00939	00		 DB	 0
$L192437:
  0093a	73		 DB	 115			; 00000073H
  0093b	7a		 DB	 122			; 0000007aH
  0093c	48		 DB	 72			; 00000048H
  0093d	6f		 DB	 111			; 0000006fH
  0093e	6d		 DB	 109			; 0000006dH
  0093f	65		 DB	 101			; 00000065H
  00940	50		 DB	 80			; 00000050H
  00941	61		 DB	 97			; 00000061H
  00942	74		 DB	 116			; 00000074H
  00943	68		 DB	 104			; 00000068H
  00944	00		 DB	 0
$L192436:
  00945	78		 DB	 120			; 00000078H
  00946	6d		 DB	 109			; 0000006dH
  00947	6c		 DB	 108			; 0000006cH
  00948	00		 DB	 0
_TEXT	ENDS
text$x	SEGMENT
$L192419:
  00049	8b f4		 mov	 esi, esp
  0004b	8d 8d d0 fd ff
	ff		 lea	 ecx, DWORD PTR $T192406[ebp]
  00051	ff 15 00 00 00
	00		 call	 DWORD PTR __imp_??1?$basic_string@DU?$char_traits@D@std@@V?$allocator@D@2@@std@@QAE@XZ
  00057	3b f4		 cmp	 esi, esp
  00059	e9 00 00 00 00	 jmp	 __RTC_CheckEsp
$L192420:
  0005e	8b f4		 mov	 esi, esp
  00060	8d 8d b4 fd ff
	ff		 lea	 ecx, DWORD PTR $T192407[ebp]
  00066	ff 15 00 00 00
	00		 call	 DWORD PTR __imp_??1?$basic_string@DU?$char_traits@D@std@@V?$allocator@D@2@@std@@QAE@XZ
  0006c	3b f4		 cmp	 esi, esp
  0006e	e9 00 00 00 00	 jmp	 __RTC_CheckEsp
$L192421:
  00073	8d 4d 94	 lea	 ecx, DWORD PTR _xml$[ebp]
  00076	e9 00 00 00 00	 jmp	 ??1CMarkupArchive@@UAE@XZ ; CMarkupArchive::~CMarkupArchive
$L192422:
  0007b	8b f4		 mov	 esi, esp
  0007d	8d 8d 98 fd ff
	ff		 lea	 ecx, DWORD PTR $T192408[ebp]
  00083	ff 15 00 00 00
	00		 call	 DWORD PTR __imp_??1?$basic_string@DU?$char_traits@D@std@@V?$allocator@D@2@@std@@QAE@XZ
  00089	3b f4		 cmp	 esi, esp
  0008b	e9 00 00 00 00	 jmp	 __RTC_CheckEsp
$L192423:
  00090	8b f4		 mov	 esi, esp
  00092	8d 8d 7c fd ff
	ff		 lea	 ecx, DWORD PTR $T192409[ebp]
  00098	ff 15 00 00 00
	00		 call	 DWORD PTR __imp_??1?$basic_string@DU?$char_traits@D@std@@V?$allocator@D@2@@std@@QAE@XZ
  0009e	3b f4		 cmp	 esi, esp
  000a0	e9 00 00 00 00	 jmp	 __RTC_CheckEsp
$L192424:
  000a5	8d 8d f0 fd ff
	ff		 lea	 ecx, DWORD PTR _olg$189748[ebp]
  000ab	e9 00 00 00 00	 jmp	 ??1OneLocalGame@@QAE@XZ
$L192425:
  000b0	8b f4		 mov	 esi, esp
  000b2	8d 8d 78 fd ff
	ff		 lea	 ecx, DWORD PTR $T192410[ebp]
  000b8	ff 15 00 00 00
	00		 call	 DWORD PTR __imp_??1?$CStringT@DV?$StrTraitMFC_DLL@DV?$ChTraitsCRT@D@ATL@@@@@ATL@@QAE@XZ
  000be	3b f4		 cmp	 esi, esp
  000c0	e9 00 00 00 00	 jmp	 __RTC_CheckEsp
$L192426:
  000c5	8b f4		 mov	 esi, esp
  000c7	8d 8d 74 fd ff
	ff		 lea	 ecx, DWORD PTR $T192411[ebp]
  000cd	ff 15 00 00 00
	00		 call	 DWORD PTR __imp_??1?$CStringT@DV?$StrTraitMFC_DLL@DV?$ChTraitsCRT@D@ATL@@@@@ATL@@QAE@XZ
  000d3	3b f4		 cmp	 esi, esp
  000d5	e9 00 00 00 00	 jmp	 __RTC_CheckEsp
$L192427:
  000da	8b f4		 mov	 esi, esp
  000dc	8d 8d 70 fd ff
	ff		 lea	 ecx, DWORD PTR $T192412[ebp]
  000e2	ff 15 00 00 00
	00		 call	 DWORD PTR __imp_??1?$CStringT@DV?$StrTraitMFC_DLL@DV?$ChTraitsCRT@D@ATL@@@@@ATL@@QAE@XZ
  000e8	3b f4		 cmp	 esi, esp
  000ea	e9 00 00 00 00	 jmp	 __RTC_CheckEsp
$L192428:
  000ef	8b f4		 mov	 esi, esp
  000f1	8d 8d 6c fd ff
	ff		 lea	 ecx, DWORD PTR $T192413[ebp]
  000f7	ff 15 00 00 00
	00		 call	 DWORD PTR __imp_??1?$CStringT@DV?$StrTraitMFC_DLL@DV?$ChTraitsCRT@D@ATL@@@@@ATL@@QAE@XZ
  000fd	3b f4		 cmp	 esi, esp
  000ff	e9 00 00 00 00	 jmp	 __RTC_CheckEsp
$L192429:
  00104	8b f4		 mov	 esi, esp
  00106	8d 8d 68 fd ff
	ff		 lea	 ecx, DWORD PTR $T192414[ebp]
  0010c	ff 15 00 00 00
	00		 call	 DWORD PTR __imp_??1?$CStringT@DV?$StrTraitMFC_DLL@DV?$ChTraitsCRT@D@ATL@@@@@ATL@@QAE@XZ
  00112	3b f4		 cmp	 esi, esp
  00114	e9 00 00 00 00	 jmp	 __RTC_CheckEsp
$L192430:
  00119	8b f4		 mov	 esi, esp
  0011b	8d 8d 4c fd ff
	ff		 lea	 ecx, DWORD PTR $T192415[ebp]
  00121	ff 15 00 00 00
	00		 call	 DWORD PTR __imp_??1?$basic_string@DU?$char_traits@D@std@@V?$allocator@D@2@@std@@QAE@XZ
  00127	3b f4		 cmp	 esi, esp
  00129	e9 00 00 00 00	 jmp	 __RTC_CheckEsp
$L192431:
  0012e	8b f4		 mov	 esi, esp
  00130	8d 8d 30 fd ff
	ff		 lea	 ecx, DWORD PTR $T192416[ebp]
  00136	ff 15 00 00 00
	00		 call	 DWORD PTR __imp_??1?$basic_string@DU?$char_traits@D@std@@V?$allocator@D@2@@std@@QAE@XZ
  0013c	3b f4		 cmp	 esi, esp
  0013e	e9 00 00 00 00	 jmp	 __RTC_CheckEsp
$L192432:
  00143	8b f4		 mov	 esi, esp
  00145	8d 8d 14 fd ff
	ff		 lea	 ecx, DWORD PTR $T192417[ebp]
  0014b	ff 15 00 00 00
	00		 call	 DWORD PTR __imp_??1?$basic_string@DU?$char_traits@D@std@@V?$allocator@D@2@@std@@QAE@XZ
  00151	3b f4		 cmp	 esi, esp
  00153	e9 00 00 00 00	 jmp	 __RTC_CheckEsp
$L192433:
  00158	8b f4		 mov	 esi, esp
  0015a	8d 8d f8 fc ff
	ff		 lea	 ecx, DWORD PTR $T192418[ebp]
  00160	ff 15 00 00 00
	00		 call	 DWORD PTR __imp_??1?$basic_string@DU?$char_traits@D@std@@V?$allocator@D@2@@std@@QAE@XZ
  00166	3b f4		 cmp	 esi, esp
  00168	e9 00 00 00 00	 jmp	 __RTC_CheckEsp
__ehhandler$?LoadGameData@LocalGameData@@AAEXXZ:
  0016d	b8 00 00 00 00	 mov	 eax, OFFSET FLAT:$T192435
  00172	e9 00 00 00 00	 jmp	 ___CxxFrameHandler
text$x	ENDS
?LoadGameData@LocalGameData@@AAEXXZ ENDP		; LocalGameData::LoadGameData
PUBLIC	?clear@OneLocalGame@@QAEXXZ			; OneLocalGame::clear
;	COMDAT xdata$x
; File d:\boxgit\playbox\playbox\dev\prj\playbox\src\datainterface\ilocalgamedata.h
xdata$x	SEGMENT
$T192453 DD	0ffffffffH
	DD	FLAT:$L192445
	DD	00H
	DD	FLAT:$L192446
	DD	01H
	DD	FLAT:$L192447
	DD	02H
	DD	FLAT:$L192448
	DD	03H
	DD	FLAT:$L192449
$T192451 DD	019930520H
	DD	05H
	DD	FLAT:$T192453
	DD	2 DUP(00H)
	DD	2 DUP(00H)
; Function compile flags: /Odt /RTCsu
xdata$x	ENDS
;	COMDAT ??0OneLocalGame@@QAE@XZ
_TEXT	SEGMENT
_this$ = -16						; size = 4
__$EHRec$ = -12						; size = 12
??0OneLocalGame@@QAE@XZ PROC NEAR			; OneLocalGame::OneLocalGame, COMDAT
; _this$ = ecx

; 20   : 	OneLocalGame()

  00000	55		 push	 ebp
  00001	8b ec		 mov	 ebp, esp
  00003	6a ff		 push	 -1
  00005	68 00 00 00 00	 push	 __ehhandler$??0OneLocalGame@@QAE@XZ
  0000a	64 a1 00 00 00
	00		 mov	 eax, DWORD PTR fs:__except_list
  00010	50		 push	 eax
  00011	64 89 25 00 00
	00 00		 mov	 DWORD PTR fs:__except_list, esp
  00018	51		 push	 ecx
  00019	56		 push	 esi
  0001a	c7 45 f0 cc cc
	cc cc		 mov	 DWORD PTR [ebp-16], -858993460 ; ccccccccH
  00021	89 4d f0	 mov	 DWORD PTR _this$[ebp], ecx
  00024	8b f4		 mov	 esi, esp
  00026	8b 4d f0	 mov	 ecx, DWORD PTR _this$[ebp]
  00029	ff 15 00 00 00
	00		 call	 DWORD PTR __imp_??0?$basic_string@DU?$char_traits@D@std@@V?$allocator@D@2@@std@@QAE@XZ
  0002f	3b f4		 cmp	 esi, esp
  00031	e8 00 00 00 00	 call	 __RTC_CheckEsp
  00036	c7 45 fc 00 00
	00 00		 mov	 DWORD PTR __$EHRec$[ebp+8], 0
  0003d	8b 4d f0	 mov	 ecx, DWORD PTR _this$[ebp]
  00040	83 c1 1c	 add	 ecx, 28			; 0000001cH
  00043	8b f4		 mov	 esi, esp
  00045	ff 15 00 00 00
	00		 call	 DWORD PTR __imp_??0?$basic_string@DU?$char_traits@D@std@@V?$allocator@D@2@@std@@QAE@XZ
  0004b	3b f4		 cmp	 esi, esp
  0004d	e8 00 00 00 00	 call	 __RTC_CheckEsp
  00052	c6 45 fc 01	 mov	 BYTE PTR __$EHRec$[ebp+8], 1
  00056	8b 4d f0	 mov	 ecx, DWORD PTR _this$[ebp]
  00059	83 c1 38	 add	 ecx, 56			; 00000038H
  0005c	8b f4		 mov	 esi, esp
  0005e	ff 15 00 00 00
	00		 call	 DWORD PTR __imp_??0?$basic_string@DU?$char_traits@D@std@@V?$allocator@D@2@@std@@QAE@XZ
  00064	3b f4		 cmp	 esi, esp
  00066	e8 00 00 00 00	 call	 __RTC_CheckEsp
  0006b	c6 45 fc 02	 mov	 BYTE PTR __$EHRec$[ebp+8], 2
  0006f	8b 4d f0	 mov	 ecx, DWORD PTR _this$[ebp]
  00072	83 c1 54	 add	 ecx, 84			; 00000054H
  00075	8b f4		 mov	 esi, esp
  00077	ff 15 00 00 00
	00		 call	 DWORD PTR __imp_??0?$basic_string@DU?$char_traits@D@std@@V?$allocator@D@2@@std@@QAE@XZ
  0007d	3b f4		 cmp	 esi, esp
  0007f	e8 00 00 00 00	 call	 __RTC_CheckEsp
  00084	c6 45 fc 03	 mov	 BYTE PTR __$EHRec$[ebp+8], 3
  00088	8b 4d f0	 mov	 ecx, DWORD PTR _this$[ebp]
  0008b	83 c1 70	 add	 ecx, 112		; 00000070H
  0008e	8b f4		 mov	 esi, esp
  00090	ff 15 00 00 00
	00		 call	 DWORD PTR __imp_??0?$basic_string@DU?$char_traits@D@std@@V?$allocator@D@2@@std@@QAE@XZ
  00096	3b f4		 cmp	 esi, esp
  00098	e8 00 00 00 00	 call	 __RTC_CheckEsp
  0009d	c6 45 fc 04	 mov	 BYTE PTR __$EHRec$[ebp+8], 4

; 21   : 	{
; 22   : 		clear();

  000a1	8b 4d f0	 mov	 ecx, DWORD PTR _this$[ebp]
  000a4	e8 00 00 00 00	 call	 ?clear@OneLocalGame@@QAEXXZ ; OneLocalGame::clear

; 23   : 	}

  000a9	c7 45 fc ff ff
	ff ff		 mov	 DWORD PTR __$EHRec$[ebp+8], -1
  000b0	8b 45 f0	 mov	 eax, DWORD PTR _this$[ebp]
  000b3	8b 4d f4	 mov	 ecx, DWORD PTR __$EHRec$[ebp]
  000b6	64 89 0d 00 00
	00 00		 mov	 DWORD PTR fs:__except_list, ecx
  000bd	5e		 pop	 esi
  000be	83 c4 10	 add	 esp, 16			; 00000010H
  000c1	3b ec		 cmp	 ebp, esp
  000c3	e8 00 00 00 00	 call	 __RTC_CheckEsp
  000c8	8b e5		 mov	 esp, ebp
  000ca	5d		 pop	 ebp
  000cb	c3		 ret	 0
_TEXT	ENDS
;	COMDAT text$x
text$x	SEGMENT
$L192445:
  00000	8b f4		 mov	 esi, esp
  00002	8b 4d f0	 mov	 ecx, DWORD PTR _this$[ebp]
  00005	ff 15 00 00 00
	00		 call	 DWORD PTR __imp_??1?$basic_string@DU?$char_traits@D@std@@V?$allocator@D@2@@std@@QAE@XZ
  0000b	3b f4		 cmp	 esi, esp
  0000d	e9 00 00 00 00	 jmp	 __RTC_CheckEsp
$L192446:
  00012	8b 4d f0	 mov	 ecx, DWORD PTR _this$[ebp]
  00015	83 c1 1c	 add	 ecx, 28			; 0000001cH
  00018	8b f4		 mov	 esi, esp
  0001a	ff 15 00 00 00
	00		 call	 DWORD PTR __imp_??1?$basic_string@DU?$char_traits@D@std@@V?$allocator@D@2@@std@@QAE@XZ
  00020	3b f4		 cmp	 esi, esp
  00022	e9 00 00 00 00	 jmp	 __RTC_CheckEsp
$L192447:
  00027	8b 4d f0	 mov	 ecx, DWORD PTR _this$[ebp]
  0002a	83 c1 38	 add	 ecx, 56			; 00000038H
  0002d	8b f4		 mov	 esi, esp
  0002f	ff 15 00 00 00
	00		 call	 DWORD PTR __imp_??1?$basic_string@DU?$char_traits@D@std@@V?$allocator@D@2@@std@@QAE@XZ
  00035	3b f4		 cmp	 esi, esp
  00037	e9 00 00 00 00	 jmp	 __RTC_CheckEsp
$L192448:
  0003c	8b 4d f0	 mov	 ecx, DWORD PTR _this$[ebp]
  0003f	83 c1 54	 add	 ecx, 84			; 00000054H
  00042	8b f4		 mov	 esi, esp
  00044	ff 15 00 00 00
	00		 call	 DWORD PTR __imp_??1?$basic_string@DU?$char_traits@D@std@@V?$allocator@D@2@@std@@QAE@XZ
  0004a	3b f4		 cmp	 esi, esp
  0004c	e9 00 00 00 00	 jmp	 __RTC_CheckEsp
$L192449:
  00051	8b 4d f0	 mov	 ecx, DWORD PTR _this$[ebp]
  00054	83 c1 70	 add	 ecx, 112		; 00000070H
  00057	8b f4		 mov	 esi, esp
  00059	ff 15 00 00 00
	00		 call	 DWORD PTR __imp_??1?$basic_string@DU?$char_traits@D@std@@V?$allocator@D@2@@std@@QAE@XZ
  0005f	3b f4		 cmp	 esi, esp
  00061	e9 00 00 00 00	 jmp	 __RTC_CheckEsp
__ehhandler$??0OneLocalGame@@QAE@XZ:
  00066	b8 00 00 00 00	 mov	 eax, OFFSET FLAT:$T192451
  0006b	e9 00 00 00 00	 jmp	 ___CxxFrameHandler
text$x	ENDS
??0OneLocalGame@@QAE@XZ ENDP				; OneLocalGame::OneLocalGame
EXTRN	__imp_?clear@?$basic_string@DU?$char_traits@D@std@@V?$allocator@D@2@@std@@QAEXXZ:NEAR
; Function compile flags: /Odt /RTCsu
;	COMDAT ?clear@OneLocalGame@@QAEXXZ
_TEXT	SEGMENT
_this$ = -4						; size = 4
?clear@OneLocalGame@@QAEXXZ PROC NEAR			; OneLocalGame::clear, COMDAT
; _this$ = ecx

; 25   : 	{

  00000	55		 push	 ebp
  00001	8b ec		 mov	 ebp, esp
  00003	51		 push	 ecx
  00004	56		 push	 esi
  00005	c7 45 fc cc cc
	cc cc		 mov	 DWORD PTR [ebp-4], -858993460 ; ccccccccH
  0000c	89 4d fc	 mov	 DWORD PTR _this$[ebp], ecx

; 26   : 		strID.clear();

  0000f	8b f4		 mov	 esi, esp
  00011	8b 4d fc	 mov	 ecx, DWORD PTR _this$[ebp]
  00014	ff 15 00 00 00
	00		 call	 DWORD PTR __imp_?clear@?$basic_string@DU?$char_traits@D@std@@V?$allocator@D@2@@std@@QAEXXZ
  0001a	3b f4		 cmp	 esi, esp
  0001c	e8 00 00 00 00	 call	 __RTC_CheckEsp

; 27   : 		strName.clear();

  00021	8b 4d fc	 mov	 ecx, DWORD PTR _this$[ebp]
  00024	83 c1 1c	 add	 ecx, 28			; 0000001cH
  00027	8b f4		 mov	 esi, esp
  00029	ff 15 00 00 00
	00		 call	 DWORD PTR __imp_?clear@?$basic_string@DU?$char_traits@D@std@@V?$allocator@D@2@@std@@QAEXXZ
  0002f	3b f4		 cmp	 esi, esp
  00031	e8 00 00 00 00	 call	 __RTC_CheckEsp

; 28   : 		strGamePath.clear();

  00036	8b 4d fc	 mov	 ecx, DWORD PTR _this$[ebp]
  00039	83 c1 38	 add	 ecx, 56			; 00000038H
  0003c	8b f4		 mov	 esi, esp
  0003e	ff 15 00 00 00
	00		 call	 DWORD PTR __imp_?clear@?$basic_string@DU?$char_traits@D@std@@V?$allocator@D@2@@std@@QAEXXZ
  00044	3b f4		 cmp	 esi, esp
  00046	e8 00 00 00 00	 call	 __RTC_CheckEsp

; 29   : 		strPicPath.clear();

  0004b	8b 4d fc	 mov	 ecx, DWORD PTR _this$[ebp]
  0004e	83 c1 54	 add	 ecx, 84			; 00000054H
  00051	8b f4		 mov	 esi, esp
  00053	ff 15 00 00 00
	00		 call	 DWORD PTR __imp_?clear@?$basic_string@DU?$char_traits@D@std@@V?$allocator@D@2@@std@@QAEXXZ
  00059	3b f4		 cmp	 esi, esp
  0005b	e8 00 00 00 00	 call	 __RTC_CheckEsp

; 30   : 		strIntro.clear();

  00060	8b 4d fc	 mov	 ecx, DWORD PTR _this$[ebp]
  00063	83 c1 70	 add	 ecx, 112		; 00000070H
  00066	8b f4		 mov	 esi, esp
  00068	ff 15 00 00 00
	00		 call	 DWORD PTR __imp_?clear@?$basic_string@DU?$char_traits@D@std@@V?$allocator@D@2@@std@@QAEXXZ
  0006e	3b f4		 cmp	 esi, esp
  00070	e8 00 00 00 00	 call	 __RTC_CheckEsp

; 31   : 		uiFileSize    = 0;

  00075	8b 45 fc	 mov	 eax, DWORD PTR _this$[ebp]
  00078	c7 80 8c 00 00
	00 00 00 00 00	 mov	 DWORD PTR [eax+140], 0

; 32   : 	}

  00082	5e		 pop	 esi
  00083	83 c4 04	 add	 esp, 4
  00086	3b ec		 cmp	 ebp, esp
  00088	e8 00 00 00 00	 call	 __RTC_CheckEsp
  0008d	8b e5		 mov	 esp, ebp
  0008f	5d		 pop	 ebp
  00090	c3		 ret	 0
?clear@OneLocalGame@@QAEXXZ ENDP			; OneLocalGame::clear
_TEXT	ENDS
PUBLIC	?x_SetPos@CMarkup@@IAEXHHH@Z			; CMarkup::x_SetPos
; Function compile flags: /Odt /RTCsu
; File d:\boxgit\playbox\playbox\dev\prj\playbox\src\util\markup.h
;	COMDAT ?ResetPos@CMarkup@@QAEXXZ
_TEXT	SEGMENT
_this$ = -4						; size = 4
?ResetPos@CMarkup@@QAEXXZ PROC NEAR			; CMarkup::ResetPos, COMDAT
; _this$ = ecx

; 53   : 	void ResetPos() { x_SetPos(0,0,0); };

  00000	55		 push	 ebp
  00001	8b ec		 mov	 ebp, esp
  00003	51		 push	 ecx
  00004	c7 45 fc cc cc
	cc cc		 mov	 DWORD PTR [ebp-4], -858993460 ; ccccccccH
  0000b	89 4d fc	 mov	 DWORD PTR _this$[ebp], ecx
  0000e	6a 00		 push	 0
  00010	6a 00		 push	 0
  00012	6a 00		 push	 0
  00014	8b 4d fc	 mov	 ecx, DWORD PTR _this$[ebp]
  00017	e8 00 00 00 00	 call	 ?x_SetPos@CMarkup@@IAEXHHH@Z ; CMarkup::x_SetPos
  0001c	83 c4 04	 add	 esp, 4
  0001f	3b ec		 cmp	 ebp, esp
  00021	e8 00 00 00 00	 call	 __RTC_CheckEsp
  00026	8b e5		 mov	 esp, ebp
  00028	5d		 pop	 ebp
  00029	c3		 ret	 0
?ResetPos@CMarkup@@QAEXXZ ENDP				; CMarkup::ResetPos
_TEXT	ENDS
EXTRN	?x_GetAttrib@CMarkup@@IBE?AV?$CStringT@DV?$StrTraitMFC_DLL@DV?$ChTraitsCRT@D@ATL@@@@@ATL@@HPBD@Z:NEAR ; CMarkup::x_GetAttrib
; Function compile flags: /Odt /RTCsu
;	COMDAT ?GetAttrib@CMarkup@@QBE?AV?$CStringT@DV?$StrTraitMFC_DLL@DV?$ChTraitsCRT@D@ATL@@@@@ATL@@PBD@Z
_TEXT	SEGMENT
$T192460 = -8						; size = 4
_this$ = -4						; size = 4
___$ReturnUdt$ = 8					; size = 4
_szAttrib$ = 12						; size = 4
?GetAttrib@CMarkup@@QBE?AV?$CStringT@DV?$StrTraitMFC_DLL@DV?$ChTraitsCRT@D@ATL@@@@@ATL@@PBD@Z PROC NEAR ; CMarkup::GetAttrib, COMDAT
; _this$ = ecx

; 58   : 	CString GetAttrib( LPCTSTR szAttrib ) const { return x_GetAttrib(m_iPos,szAttrib); };

  00000	55		 push	 ebp
  00001	8b ec		 mov	 ebp, esp
  00003	83 ec 08	 sub	 esp, 8
  00006	c7 45 f8 cc cc
	cc cc		 mov	 DWORD PTR [ebp-8], -858993460 ; ccccccccH
  0000d	c7 45 fc cc cc
	cc cc		 mov	 DWORD PTR [ebp-4], -858993460 ; ccccccccH
  00014	89 4d fc	 mov	 DWORD PTR _this$[ebp], ecx
  00017	c7 45 f8 00 00
	00 00		 mov	 DWORD PTR $T192460[ebp], 0
  0001e	8b 45 0c	 mov	 eax, DWORD PTR _szAttrib$[ebp]
  00021	50		 push	 eax
  00022	8b 4d fc	 mov	 ecx, DWORD PTR _this$[ebp]
  00025	8b 51 2c	 mov	 edx, DWORD PTR [ecx+44]
  00028	52		 push	 edx
  00029	8b 45 08	 mov	 eax, DWORD PTR ___$ReturnUdt$[ebp]
  0002c	50		 push	 eax
  0002d	8b 4d fc	 mov	 ecx, DWORD PTR _this$[ebp]
  00030	e8 00 00 00 00	 call	 ?x_GetAttrib@CMarkup@@IBE?AV?$CStringT@DV?$StrTraitMFC_DLL@DV?$ChTraitsCRT@D@ATL@@@@@ATL@@HPBD@Z ; CMarkup::x_GetAttrib
  00035	8b 4d f8	 mov	 ecx, DWORD PTR $T192460[ebp]
  00038	83 c9 01	 or	 ecx, 1
  0003b	89 4d f8	 mov	 DWORD PTR $T192460[ebp], ecx
  0003e	8b 45 08	 mov	 eax, DWORD PTR ___$ReturnUdt$[ebp]
  00041	83 c4 08	 add	 esp, 8
  00044	3b ec		 cmp	 ebp, esp
  00046	e8 00 00 00 00	 call	 __RTC_CheckEsp
  0004b	8b e5		 mov	 esp, ebp
  0004d	5d		 pop	 ebp
  0004e	c2 08 00	 ret	 8
?GetAttrib@CMarkup@@QBE?AV?$CStringT@DV?$StrTraitMFC_DLL@DV?$ChTraitsCRT@D@ATL@@@@@ATL@@PBD@Z ENDP ; CMarkup::GetAttrib
_TEXT	ENDS
PUBLIC	??A?$CArray@UElemPos@CMarkup@@AAU12@@@QAEAAUElemPos@CMarkup@@H@Z ; CArray<CMarkup::ElemPos,CMarkup::ElemPos &>::operator[]
; Function compile flags: /Odt /RTCsu
;	COMDAT ?x_SetPos@CMarkup@@IAEXHHH@Z
_TEXT	SEGMENT
tv95 = -12						; size = 4
tv82 = -8						; size = 4
_this$ = -4						; size = 4
_iPosParent$ = 8					; size = 4
_iPos$ = 12						; size = 4
_iPosChild$ = 16					; size = 4
?x_SetPos@CMarkup@@IAEXHHH@Z PROC NEAR			; CMarkup::x_SetPos, COMDAT
; _this$ = ecx

; 132  : 	{

  00000	55		 push	 ebp
  00001	8b ec		 mov	 ebp, esp
  00003	83 ec 0c	 sub	 esp, 12			; 0000000cH
  00006	56		 push	 esi
  00007	c7 45 f4 cc cc
	cc cc		 mov	 DWORD PTR [ebp-12], -858993460 ; ccccccccH
  0000e	c7 45 f8 cc cc
	cc cc		 mov	 DWORD PTR [ebp-8], -858993460 ; ccccccccH
  00015	c7 45 fc cc cc
	cc cc		 mov	 DWORD PTR [ebp-4], -858993460 ; ccccccccH
  0001c	89 4d fc	 mov	 DWORD PTR _this$[ebp], ecx

; 133  : 		m_iPosParent = iPosParent;

  0001f	8b 45 fc	 mov	 eax, DWORD PTR _this$[ebp]
  00022	8b 4d 08	 mov	 ecx, DWORD PTR _iPosParent$[ebp]
  00025	89 48 28	 mov	 DWORD PTR [eax+40], ecx

; 134  : 		m_iPos = iPos;

  00028	8b 55 fc	 mov	 edx, DWORD PTR _this$[ebp]
  0002b	8b 45 0c	 mov	 eax, DWORD PTR _iPos$[ebp]
  0002e	89 42 2c	 mov	 DWORD PTR [edx+44], eax

; 135  : 		m_iPosChild = iPosChild;

  00031	8b 4d fc	 mov	 ecx, DWORD PTR _this$[ebp]
  00034	8b 55 10	 mov	 edx, DWORD PTR _iPosChild$[ebp]
  00037	89 51 30	 mov	 DWORD PTR [ecx+48], edx

; 136  : 		m_nNodeType = iPos?MNT_ELEMENT:0;

  0003a	33 c0		 xor	 eax, eax
  0003c	83 7d 0c 00	 cmp	 DWORD PTR _iPos$[ebp], 0
  00040	0f 95 c0	 setne	 al
  00043	8b 4d fc	 mov	 ecx, DWORD PTR _this$[ebp]
  00046	89 41 38	 mov	 DWORD PTR [ecx+56], eax

; 137  : 		MARKUP_SETDEBUGSTATE;

  00049	8b 55 fc	 mov	 edx, DWORD PTR _this$[ebp]
  0004c	83 7a 2c 00	 cmp	 DWORD PTR [edx+44], 0
  00050	74 30		 je	 SHORT $L192463
  00052	8b 4d fc	 mov	 ecx, DWORD PTR _this$[ebp]
  00055	83 c1 0c	 add	 ecx, 12			; 0000000cH
  00058	8b f4		 mov	 esi, esp
  0005a	ff 15 00 00 00
	00		 call	 DWORD PTR __imp_??B?$CSimpleStringT@D$00@ATL@@QBEPBDXZ
  00060	3b f4		 cmp	 esi, esp
  00062	e8 00 00 00 00	 call	 __RTC_CheckEsp
  00067	8b f0		 mov	 esi, eax
  00069	8b 45 fc	 mov	 eax, DWORD PTR _this$[ebp]
  0006c	8b 48 2c	 mov	 ecx, DWORD PTR [eax+44]
  0006f	51		 push	 ecx
  00070	8b 4d fc	 mov	 ecx, DWORD PTR _this$[ebp]
  00073	83 c1 14	 add	 ecx, 20			; 00000014H
  00076	e8 00 00 00 00	 call	 ??A?$CArray@UElemPos@CMarkup@@AAU12@@@QAEAAUElemPos@CMarkup@@H@Z ; CArray<CMarkup::ElemPos,CMarkup::ElemPos &>::operator[]
  0007b	03 30		 add	 esi, DWORD PTR [eax]
  0007d	89 75 f8	 mov	 DWORD PTR tv82[ebp], esi
  00080	eb 07		 jmp	 SHORT $L192464
$L192463:
  00082	c7 45 f8 00 00
	00 00		 mov	 DWORD PTR tv82[ebp], 0
$L192464:
  00089	8b 55 fc	 mov	 edx, DWORD PTR _this$[ebp]
  0008c	8b 45 f8	 mov	 eax, DWORD PTR tv82[ebp]
  0008f	89 42 04	 mov	 DWORD PTR [edx+4], eax
  00092	8b 4d fc	 mov	 ecx, DWORD PTR _this$[ebp]
  00095	83 79 30 00	 cmp	 DWORD PTR [ecx+48], 0
  00099	74 30		 je	 SHORT $L192465
  0009b	8b 4d fc	 mov	 ecx, DWORD PTR _this$[ebp]
  0009e	83 c1 0c	 add	 ecx, 12			; 0000000cH
  000a1	8b f4		 mov	 esi, esp
  000a3	ff 15 00 00 00
	00		 call	 DWORD PTR __imp_??B?$CSimpleStringT@D$00@ATL@@QBEPBDXZ
  000a9	3b f4		 cmp	 esi, esp
  000ab	e8 00 00 00 00	 call	 __RTC_CheckEsp
  000b0	8b f0		 mov	 esi, eax
  000b2	8b 55 fc	 mov	 edx, DWORD PTR _this$[ebp]
  000b5	8b 42 30	 mov	 eax, DWORD PTR [edx+48]
  000b8	50		 push	 eax
  000b9	8b 4d fc	 mov	 ecx, DWORD PTR _this$[ebp]
  000bc	83 c1 14	 add	 ecx, 20			; 00000014H
  000bf	e8 00 00 00 00	 call	 ??A?$CArray@UElemPos@CMarkup@@AAU12@@@QAEAAUElemPos@CMarkup@@H@Z ; CArray<CMarkup::ElemPos,CMarkup::ElemPos &>::operator[]
  000c4	03 30		 add	 esi, DWORD PTR [eax]
  000c6	89 75 f4	 mov	 DWORD PTR tv95[ebp], esi
  000c9	eb 07		 jmp	 SHORT $L192466
$L192465:
  000cb	c7 45 f4 00 00
	00 00		 mov	 DWORD PTR tv95[ebp], 0
$L192466:
  000d2	8b 4d fc	 mov	 ecx, DWORD PTR _this$[ebp]
  000d5	8b 55 f4	 mov	 edx, DWORD PTR tv95[ebp]
  000d8	89 51 08	 mov	 DWORD PTR [ecx+8], edx

; 138  : 	};

  000db	5e		 pop	 esi
  000dc	83 c4 0c	 add	 esp, 12			; 0000000cH
  000df	3b ec		 cmp	 ebp, esp
  000e1	e8 00 00 00 00	 call	 __RTC_CheckEsp
  000e6	8b e5		 mov	 esp, ebp
  000e8	5d		 pop	 ebp
  000e9	c2 0c 00	 ret	 12			; 0000000cH
?x_SetPos@CMarkup@@IAEXHHH@Z ENDP			; CMarkup::x_SetPos
_TEXT	ENDS
PUBLIC	?AddElem@CMarkupArchive@@UAE_NPBD0@Z		; CMarkupArchive::AddElem
PUBLIC	?AddChildElem@CMarkupArchive@@UAE_NPBD0@Z	; CMarkupArchive::AddChildElem
PUBLIC	??_7CMarkupArchive@@6B@				; CMarkupArchive::`vftable'
PUBLIC	??_GCMarkupArchive@@UAEPAXI@Z			; CMarkupArchive::`scalar deleting destructor'
PUBLIC	??_C@_0L@GJIJNDEK@ISO?98859?91?$AA@		; `string'
PUBLIC	??_R0?AVCMarkup@@@8				; CMarkup `RTTI Type Descriptor'
PUBLIC	??_R1A@?0A@A@CMarkup@@8				; CMarkup::`RTTI Base Class Descriptor at (0,-1,0,0)'
PUBLIC	??_R4CMarkupArchive@@6B@			; CMarkupArchive::`RTTI Complete Object Locator'
PUBLIC	??_R0?AVCMarkupArchive@@@8			; CMarkupArchive `RTTI Type Descriptor'
PUBLIC	??_R3CMarkupArchive@@8				; CMarkupArchive::`RTTI Class Hierarchy Descriptor'
PUBLIC	??_R2CMarkupArchive@@8				; CMarkupArchive::`RTTI Base Class Array'
PUBLIC	??_R1A@?0A@A@CMarkupArchive@@8			; CMarkupArchive::`RTTI Base Class Descriptor at (0,-1,0,0)'
PUBLIC	??0CMarkup@@QAE@XZ				; CMarkup::CMarkup
PUBLIC	??1CMarkup@@UAE@XZ				; CMarkup::~CMarkup
EXTRN	??_ECMarkupArchive@@UAEPAXI@Z:NEAR		; CMarkupArchive::`vector deleting destructor'
EXTRN	__imp_??0?$CStringT@DV?$StrTraitMFC_DLL@DV?$ChTraitsCRT@D@ATL@@@@@ATL@@QAE@XZ:NEAR
EXTRN	__imp_??4?$CStringT@DV?$StrTraitMFC_DLL@DV?$ChTraitsCRT@D@ATL@@@@@ATL@@QAEAAV01@PBD@Z:NEAR
;	COMDAT xdata$x
; File d:\boxgit\playbox\playbox\dev\prj\playbox\src\util\markuparchive.h
xdata$x	SEGMENT
$T192476 DD	0ffffffffH
	DD	FLAT:$L192468
	DD	00H
	DD	FLAT:$L192469
	DD	01H
	DD	FLAT:$L192470
	DD	02H
	DD	FLAT:$L192471
	DD	03H
	DD	FLAT:$L192472
$T192474 DD	019930520H
	DD	05H
	DD	FLAT:$T192476
	DD	2 DUP(00H)
	DD	2 DUP(00H)
xdata$x	ENDS
;	COMDAT ??_7CMarkupArchive@@6B@
CONST	SEGMENT
??_7CMarkupArchive@@6B@ DD FLAT:??_R4CMarkupArchive@@6B@ ; CMarkupArchive::`vftable'
	DD	FLAT:??_ECMarkupArchive@@UAEPAXI@Z
	DD	FLAT:?AddElem@CMarkupArchive@@UAE_NPBD0@Z
	DD	FLAT:?AddChildElem@CMarkupArchive@@UAE_NPBD0@Z
	DD	FLAT:?FindElem@CMarkupArchive@@UAE_NPBD@Z
	DD	FLAT:?FindChildElem@CMarkupArchive@@UAE_NPBD@Z
CONST	ENDS
;	COMDAT ??_C@_0L@GJIJNDEK@ISO?98859?91?$AA@
CONST	SEGMENT
??_C@_0L@GJIJNDEK@ISO?98859?91?$AA@ DB 'ISO-8859-1', 00H ; `string'
CONST	ENDS
;	COMDAT ??_R4CMarkupArchive@@6B@
rdata$r	SEGMENT
??_R4CMarkupArchive@@6B@ DD 00H				; CMarkupArchive::`RTTI Complete Object Locator'
	DD	00H
	DD	00H
	DD	FLAT:??_R0?AVCMarkupArchive@@@8
	DD	FLAT:??_R3CMarkupArchive@@8
rdata$r	ENDS
;	COMDAT ??_R0?AVCMarkupArchive@@@8
_DATA	SEGMENT
??_R0?AVCMarkupArchive@@@8 DD FLAT:??_7type_info@@6B@	; CMarkupArchive `RTTI Type Descriptor'
	DD	00H
	DB	'.?AVCMarkupArchive@@', 00H
_DATA	ENDS
;	COMDAT ??_R3CMarkupArchive@@8
rdata$r	SEGMENT
??_R3CMarkupArchive@@8 DD 00H				; CMarkupArchive::`RTTI Class Hierarchy Descriptor'
	DD	00H
	DD	02H
	DD	FLAT:??_R2CMarkupArchive@@8
rdata$r	ENDS
;	COMDAT ??_R2CMarkupArchive@@8
rdata$r	SEGMENT
??_R2CMarkupArchive@@8 DD FLAT:??_R1A@?0A@A@CMarkupArchive@@8 ; CMarkupArchive::`RTTI Base Class Array'
	DD	FLAT:??_R1A@?0A@A@CMarkup@@8
rdata$r	ENDS
;	COMDAT ??_R1A@?0A@A@CMarkupArchive@@8
rdata$r	SEGMENT
??_R1A@?0A@A@CMarkupArchive@@8 DD FLAT:??_R0?AVCMarkupArchive@@@8 ; CMarkupArchive::`RTTI Base Class Descriptor at (0,-1,0,0)'
	DD	01H
	DD	00H
	DD	0ffffffffH
	DD	00H
	DD	00H
rdata$r	ENDS
;	COMDAT ??_R1A@?0A@A@CMarkup@@8
rdata$r	SEGMENT
??_R1A@?0A@A@CMarkup@@8 DD FLAT:??_R0?AVCMarkup@@@8	; CMarkup::`RTTI Base Class Descriptor at (0,-1,0,0)'
	DD	00H
	DD	00H
	DD	0ffffffffH
	DD	00H
	DD	00H
rdata$r	ENDS
;	COMDAT ??_R0?AVCMarkup@@@8
_DATA	SEGMENT
??_R0?AVCMarkup@@@8 DD FLAT:??_7type_info@@6B@		; CMarkup `RTTI Type Descriptor'
	DD	00H
	DB	'.?AVCMarkup@@', 00H
; Function compile flags: /Odt /RTCsu
_DATA	ENDS
;	COMDAT ??0CMarkupArchive@@QAE@K@Z
_TEXT	SEGMENT
_this$ = -16						; size = 4
__$EHRec$ = -12						; size = 12
_dwMode$ = 8						; size = 4
??0CMarkupArchive@@QAE@K@Z PROC NEAR			; CMarkupArchive::CMarkupArchive, COMDAT
; _this$ = ecx

; 56   : 	CMarkupArchive(DWORD dwMode = ArchiveModeCreate | ArchiveModeStoring): CMarkup() {	m_dwMode = dwMode; m_bOpened=false; m_strEncodingString = _T("ISO-8859-1");};

  00000	55		 push	 ebp
  00001	8b ec		 mov	 ebp, esp
  00003	6a ff		 push	 -1
  00005	68 00 00 00 00	 push	 __ehhandler$??0CMarkupArchive@@QAE@K@Z
  0000a	64 a1 00 00 00
	00		 mov	 eax, DWORD PTR fs:__except_list
  00010	50		 push	 eax
  00011	64 89 25 00 00
	00 00		 mov	 DWORD PTR fs:__except_list, esp
  00018	51		 push	 ecx
  00019	56		 push	 esi
  0001a	c7 45 f0 cc cc
	cc cc		 mov	 DWORD PTR [ebp-16], -858993460 ; ccccccccH
  00021	89 4d f0	 mov	 DWORD PTR _this$[ebp], ecx
  00024	8b 4d f0	 mov	 ecx, DWORD PTR _this$[ebp]
  00027	e8 00 00 00 00	 call	 ??0CMarkup@@QAE@XZ	; CMarkup::CMarkup
  0002c	c7 45 fc 00 00
	00 00		 mov	 DWORD PTR __$EHRec$[ebp+8], 0
  00033	8b 45 f0	 mov	 eax, DWORD PTR _this$[ebp]
  00036	c7 00 00 00 00
	00		 mov	 DWORD PTR [eax], OFFSET FLAT:??_7CMarkupArchive@@6B@
  0003c	8b 4d f0	 mov	 ecx, DWORD PTR _this$[ebp]
  0003f	83 c1 40	 add	 ecx, 64			; 00000040H
  00042	8b f4		 mov	 esi, esp
  00044	ff 15 00 00 00
	00		 call	 DWORD PTR __imp_??0?$CStringT@DV?$StrTraitMFC_DLL@DV?$ChTraitsCRT@D@ATL@@@@@ATL@@QAE@XZ
  0004a	3b f4		 cmp	 esi, esp
  0004c	e8 00 00 00 00	 call	 __RTC_CheckEsp
  00051	c6 45 fc 01	 mov	 BYTE PTR __$EHRec$[ebp+8], 1
  00055	8b 4d f0	 mov	 ecx, DWORD PTR _this$[ebp]
  00058	83 c1 48	 add	 ecx, 72			; 00000048H
  0005b	8b f4		 mov	 esi, esp
  0005d	ff 15 00 00 00
	00		 call	 DWORD PTR __imp_??0?$CStringT@DV?$StrTraitMFC_DLL@DV?$ChTraitsCRT@D@ATL@@@@@ATL@@QAE@XZ
  00063	3b f4		 cmp	 esi, esp
  00065	e8 00 00 00 00	 call	 __RTC_CheckEsp
  0006a	c6 45 fc 02	 mov	 BYTE PTR __$EHRec$[ebp+8], 2
  0006e	8b 4d f0	 mov	 ecx, DWORD PTR _this$[ebp]
  00071	83 c1 4c	 add	 ecx, 76			; 0000004cH
  00074	8b f4		 mov	 esi, esp
  00076	ff 15 00 00 00
	00		 call	 DWORD PTR __imp_??0?$CStringT@DV?$StrTraitMFC_DLL@DV?$ChTraitsCRT@D@ATL@@@@@ATL@@QAE@XZ
  0007c	3b f4		 cmp	 esi, esp
  0007e	e8 00 00 00 00	 call	 __RTC_CheckEsp
  00083	c6 45 fc 03	 mov	 BYTE PTR __$EHRec$[ebp+8], 3
  00087	8b 4d f0	 mov	 ecx, DWORD PTR _this$[ebp]
  0008a	83 c1 50	 add	 ecx, 80			; 00000050H
  0008d	8b f4		 mov	 esi, esp
  0008f	ff 15 00 00 00
	00		 call	 DWORD PTR __imp_??0?$CStringT@DV?$StrTraitMFC_DLL@DV?$ChTraitsCRT@D@ATL@@@@@ATL@@QAE@XZ
  00095	3b f4		 cmp	 esi, esp
  00097	e8 00 00 00 00	 call	 __RTC_CheckEsp
  0009c	c6 45 fc 04	 mov	 BYTE PTR __$EHRec$[ebp+8], 4
  000a0	8b 4d f0	 mov	 ecx, DWORD PTR _this$[ebp]
  000a3	8b 55 08	 mov	 edx, DWORD PTR _dwMode$[ebp]
  000a6	89 51 3c	 mov	 DWORD PTR [ecx+60], edx
  000a9	8b 45 f0	 mov	 eax, DWORD PTR _this$[ebp]
  000ac	c6 40 44 00	 mov	 BYTE PTR [eax+68], 0
  000b0	8b f4		 mov	 esi, esp
  000b2	68 00 00 00 00	 push	 OFFSET FLAT:??_C@_0L@GJIJNDEK@ISO?98859?91?$AA@
  000b7	8b 4d f0	 mov	 ecx, DWORD PTR _this$[ebp]
  000ba	83 c1 40	 add	 ecx, 64			; 00000040H
  000bd	ff 15 00 00 00
	00		 call	 DWORD PTR __imp_??4?$CStringT@DV?$StrTraitMFC_DLL@DV?$ChTraitsCRT@D@ATL@@@@@ATL@@QAEAAV01@PBD@Z
  000c3	3b f4		 cmp	 esi, esp
  000c5	e8 00 00 00 00	 call	 __RTC_CheckEsp
  000ca	c7 45 fc ff ff
	ff ff		 mov	 DWORD PTR __$EHRec$[ebp+8], -1
  000d1	8b 45 f0	 mov	 eax, DWORD PTR _this$[ebp]
  000d4	8b 4d f4	 mov	 ecx, DWORD PTR __$EHRec$[ebp]
  000d7	64 89 0d 00 00
	00 00		 mov	 DWORD PTR fs:__except_list, ecx
  000de	5e		 pop	 esi
  000df	83 c4 10	 add	 esp, 16			; 00000010H
  000e2	3b ec		 cmp	 ebp, esp
  000e4	e8 00 00 00 00	 call	 __RTC_CheckEsp
  000e9	8b e5		 mov	 esp, ebp
  000eb	5d		 pop	 ebp
  000ec	c2 04 00	 ret	 4
_TEXT	ENDS
;	COMDAT text$x
text$x	SEGMENT
$L192468:
  00000	8b 4d f0	 mov	 ecx, DWORD PTR _this$[ebp]
  00003	e9 00 00 00 00	 jmp	 ??1CMarkup@@UAE@XZ	; CMarkup::~CMarkup
$L192469:
  00008	8b 4d f0	 mov	 ecx, DWORD PTR _this$[ebp]
  0000b	83 c1 40	 add	 ecx, 64			; 00000040H
  0000e	8b f4		 mov	 esi, esp
  00010	ff 15 00 00 00
	00		 call	 DWORD PTR __imp_??1?$CStringT@DV?$StrTraitMFC_DLL@DV?$ChTraitsCRT@D@ATL@@@@@ATL@@QAE@XZ
  00016	3b f4		 cmp	 esi, esp
  00018	e9 00 00 00 00	 jmp	 __RTC_CheckEsp
$L192470:
  0001d	8b 4d f0	 mov	 ecx, DWORD PTR _this$[ebp]
  00020	83 c1 48	 add	 ecx, 72			; 00000048H
  00023	8b f4		 mov	 esi, esp
  00025	ff 15 00 00 00
	00		 call	 DWORD PTR __imp_??1?$CStringT@DV?$StrTraitMFC_DLL@DV?$ChTraitsCRT@D@ATL@@@@@ATL@@QAE@XZ
  0002b	3b f4		 cmp	 esi, esp
  0002d	e9 00 00 00 00	 jmp	 __RTC_CheckEsp
$L192471:
  00032	8b 4d f0	 mov	 ecx, DWORD PTR _this$[ebp]
  00035	83 c1 4c	 add	 ecx, 76			; 0000004cH
  00038	8b f4		 mov	 esi, esp
  0003a	ff 15 00 00 00
	00		 call	 DWORD PTR __imp_??1?$CStringT@DV?$StrTraitMFC_DLL@DV?$ChTraitsCRT@D@ATL@@@@@ATL@@QAE@XZ
  00040	3b f4		 cmp	 esi, esp
  00042	e9 00 00 00 00	 jmp	 __RTC_CheckEsp
$L192472:
  00047	8b 4d f0	 mov	 ecx, DWORD PTR _this$[ebp]
  0004a	83 c1 50	 add	 ecx, 80			; 00000050H
  0004d	8b f4		 mov	 esi, esp
  0004f	ff 15 00 00 00
	00		 call	 DWORD PTR __imp_??1?$CStringT@DV?$StrTraitMFC_DLL@DV?$ChTraitsCRT@D@ATL@@@@@ATL@@QAE@XZ
  00055	3b f4		 cmp	 esi, esp
  00057	e9 00 00 00 00	 jmp	 __RTC_CheckEsp
__ehhandler$??0CMarkupArchive@@QAE@K@Z:
  0005c	b8 00 00 00 00	 mov	 eax, OFFSET FLAT:$T192474
  00061	e9 00 00 00 00	 jmp	 ___CxxFrameHandler
text$x	ENDS
??0CMarkupArchive@@QAE@K@Z ENDP				; CMarkupArchive::CMarkupArchive
PUBLIC	??_R4CMarkup@@6B@				; CMarkup::`RTTI Complete Object Locator'
PUBLIC	??_R3CMarkup@@8					; CMarkup::`RTTI Class Hierarchy Descriptor'
PUBLIC	??_R2CMarkup@@8					; CMarkup::`RTTI Base Class Array'
PUBLIC	??0?$CArray@UElemPos@CMarkup@@AAU12@@@QAE@XZ	; CArray<CMarkup::ElemPos,CMarkup::ElemPos &>::CArray<CMarkup::ElemPos,CMarkup::ElemPos &>
PUBLIC	??1?$CArray@UElemPos@CMarkup@@AAU12@@@UAE@XZ	; CArray<CMarkup::ElemPos,CMarkup::ElemPos &>::~CArray<CMarkup::ElemPos,CMarkup::ElemPos &>
PUBLIC	??_7CMarkup@@6B@				; CMarkup::`vftable'
PUBLIC	??_GCMarkup@@UAEPAXI@Z				; CMarkup::`scalar deleting destructor'
EXTRN	?SetDoc@CMarkup@@QAE_NPBD@Z:NEAR		; CMarkup::SetDoc
EXTRN	??_ECMarkup@@UAEPAXI@Z:NEAR			; CMarkup::`vector deleting destructor'
;	COMDAT xdata$x
; File d:\boxgit\playbox\playbox\dev\prj\playbox\src\util\markup.h
xdata$x	SEGMENT
$T192486 DD	0ffffffffH
	DD	FLAT:$L192480
	DD	00H
	DD	FLAT:$L192481
	DD	01H
	DD	FLAT:$L192482
$T192484 DD	019930520H
	DD	03H
	DD	FLAT:$T192486
	DD	2 DUP(00H)
	DD	2 DUP(00H)
xdata$x	ENDS
;	COMDAT ??_7CMarkup@@6B@
CONST	SEGMENT
??_7CMarkup@@6B@ DD FLAT:??_R4CMarkup@@6B@		; CMarkup::`vftable'
	DD	FLAT:??_ECMarkup@@UAEPAXI@Z
CONST	ENDS
;	COMDAT ??_R4CMarkup@@6B@
rdata$r	SEGMENT
??_R4CMarkup@@6B@ DD 00H				; CMarkup::`RTTI Complete Object Locator'
	DD	00H
	DD	00H
	DD	FLAT:??_R0?AVCMarkup@@@8
	DD	FLAT:??_R3CMarkup@@8
rdata$r	ENDS
;	COMDAT ??_R3CMarkup@@8
rdata$r	SEGMENT
??_R3CMarkup@@8 DD 00H					; CMarkup::`RTTI Class Hierarchy Descriptor'
	DD	00H
	DD	01H
	DD	FLAT:??_R2CMarkup@@8
rdata$r	ENDS
;	COMDAT ??_R2CMarkup@@8
rdata$r	SEGMENT
??_R2CMarkup@@8 DD FLAT:??_R1A@?0A@A@CMarkup@@8		; CMarkup::`RTTI Base Class Array'
; Function compile flags: /Odt /RTCsu
rdata$r	ENDS
;	COMDAT ??0CMarkup@@QAE@XZ
_TEXT	SEGMENT
_this$ = -16						; size = 4
__$EHRec$ = -12						; size = 12
??0CMarkup@@QAE@XZ PROC NEAR				; CMarkup::CMarkup, COMDAT
; _this$ = ecx

; 29   : 	CMarkup() { SetDoc( NULL ); };

  00000	55		 push	 ebp
  00001	8b ec		 mov	 ebp, esp
  00003	6a ff		 push	 -1
  00005	68 00 00 00 00	 push	 __ehhandler$??0CMarkup@@QAE@XZ
  0000a	64 a1 00 00 00
	00		 mov	 eax, DWORD PTR fs:__except_list
  00010	50		 push	 eax
  00011	64 89 25 00 00
	00 00		 mov	 DWORD PTR fs:__except_list, esp
  00018	51		 push	 ecx
  00019	56		 push	 esi
  0001a	c7 45 f0 cc cc
	cc cc		 mov	 DWORD PTR [ebp-16], -858993460 ; ccccccccH
  00021	89 4d f0	 mov	 DWORD PTR _this$[ebp], ecx
  00024	8b 45 f0	 mov	 eax, DWORD PTR _this$[ebp]
  00027	c7 00 00 00 00
	00		 mov	 DWORD PTR [eax], OFFSET FLAT:??_7CMarkup@@6B@
  0002d	8b 4d f0	 mov	 ecx, DWORD PTR _this$[ebp]
  00030	83 c1 0c	 add	 ecx, 12			; 0000000cH
  00033	8b f4		 mov	 esi, esp
  00035	ff 15 00 00 00
	00		 call	 DWORD PTR __imp_??0?$CStringT@DV?$StrTraitMFC_DLL@DV?$ChTraitsCRT@D@ATL@@@@@ATL@@QAE@XZ
  0003b	3b f4		 cmp	 esi, esp
  0003d	e8 00 00 00 00	 call	 __RTC_CheckEsp
  00042	c7 45 fc 00 00
	00 00		 mov	 DWORD PTR __$EHRec$[ebp+8], 0
  00049	8b 4d f0	 mov	 ecx, DWORD PTR _this$[ebp]
  0004c	83 c1 10	 add	 ecx, 16			; 00000010H
  0004f	8b f4		 mov	 esi, esp
  00051	ff 15 00 00 00
	00		 call	 DWORD PTR __imp_??0?$CStringT@DV?$StrTraitMFC_DLL@DV?$ChTraitsCRT@D@ATL@@@@@ATL@@QAE@XZ
  00057	3b f4		 cmp	 esi, esp
  00059	e8 00 00 00 00	 call	 __RTC_CheckEsp
  0005e	c6 45 fc 01	 mov	 BYTE PTR __$EHRec$[ebp+8], 1
  00062	8b 4d f0	 mov	 ecx, DWORD PTR _this$[ebp]
  00065	83 c1 14	 add	 ecx, 20			; 00000014H
  00068	e8 00 00 00 00	 call	 ??0?$CArray@UElemPos@CMarkup@@AAU12@@@QAE@XZ ; CArray<CMarkup::ElemPos,CMarkup::ElemPos &>::CArray<CMarkup::ElemPos,CMarkup::ElemPos &>
  0006d	c6 45 fc 02	 mov	 BYTE PTR __$EHRec$[ebp+8], 2
  00071	6a 00		 push	 0
  00073	8b 4d f0	 mov	 ecx, DWORD PTR _this$[ebp]
  00076	e8 00 00 00 00	 call	 ?SetDoc@CMarkup@@QAE_NPBD@Z ; CMarkup::SetDoc
  0007b	c7 45 fc ff ff
	ff ff		 mov	 DWORD PTR __$EHRec$[ebp+8], -1
  00082	8b 45 f0	 mov	 eax, DWORD PTR _this$[ebp]
  00085	8b 4d f4	 mov	 ecx, DWORD PTR __$EHRec$[ebp]
  00088	64 89 0d 00 00
	00 00		 mov	 DWORD PTR fs:__except_list, ecx
  0008f	5e		 pop	 esi
  00090	83 c4 10	 add	 esp, 16			; 00000010H
  00093	3b ec		 cmp	 ebp, esp
  00095	e8 00 00 00 00	 call	 __RTC_CheckEsp
  0009a	8b e5		 mov	 esp, ebp
  0009c	5d		 pop	 ebp
  0009d	c3		 ret	 0
_TEXT	ENDS
;	COMDAT text$x
text$x	SEGMENT
$L192480:
  00000	8b 4d f0	 mov	 ecx, DWORD PTR _this$[ebp]
  00003	83 c1 0c	 add	 ecx, 12			; 0000000cH
  00006	8b f4		 mov	 esi, esp
  00008	ff 15 00 00 00
	00		 call	 DWORD PTR __imp_??1?$CStringT@DV?$StrTraitMFC_DLL@DV?$ChTraitsCRT@D@ATL@@@@@ATL@@QAE@XZ
  0000e	3b f4		 cmp	 esi, esp
  00010	e9 00 00 00 00	 jmp	 __RTC_CheckEsp
$L192481:
  00015	8b 4d f0	 mov	 ecx, DWORD PTR _this$[ebp]
  00018	83 c1 10	 add	 ecx, 16			; 00000010H
  0001b	8b f4		 mov	 esi, esp
  0001d	ff 15 00 00 00
	00		 call	 DWORD PTR __imp_??1?$CStringT@DV?$StrTraitMFC_DLL@DV?$ChTraitsCRT@D@ATL@@@@@ATL@@QAE@XZ
  00023	3b f4		 cmp	 esi, esp
  00025	e9 00 00 00 00	 jmp	 __RTC_CheckEsp
$L192482:
  0002a	8b 4d f0	 mov	 ecx, DWORD PTR _this$[ebp]
  0002d	83 c1 14	 add	 ecx, 20			; 00000014H
  00030	e9 00 00 00 00	 jmp	 ??1?$CArray@UElemPos@CMarkup@@AAU12@@@UAE@XZ ; CArray<CMarkup::ElemPos,CMarkup::ElemPos &>::~CArray<CMarkup::ElemPos,CMarkup::ElemPos &>
__ehhandler$??0CMarkup@@QAE@XZ:
  00035	b8 00 00 00 00	 mov	 eax, OFFSET FLAT:$T192484
  0003a	e9 00 00 00 00	 jmp	 ___CxxFrameHandler
text$x	ENDS
??0CMarkup@@QAE@XZ ENDP					; CMarkup::CMarkup
;	COMDAT xdata$x
xdata$x	SEGMENT
$T192496 DD	0ffffffffH
	DD	FLAT:$L192490
	DD	00H
	DD	FLAT:$L192491
$T192494 DD	019930520H
	DD	02H
	DD	FLAT:$T192496
	DD	2 DUP(00H)
	DD	2 DUP(00H)
; Function compile flags: /Odt /RTCsu
xdata$x	ENDS
;	COMDAT ??1CMarkup@@UAE@XZ
_TEXT	SEGMENT
_this$ = -16						; size = 4
__$EHRec$ = -12						; size = 12
??1CMarkup@@UAE@XZ PROC NEAR				; CMarkup::~CMarkup, COMDAT
; _this$ = ecx

; 33   : 	virtual ~CMarkup() {};

  00000	55		 push	 ebp
  00001	8b ec		 mov	 ebp, esp
  00003	6a ff		 push	 -1
  00005	68 00 00 00 00	 push	 __ehhandler$??1CMarkup@@UAE@XZ
  0000a	64 a1 00 00 00
	00		 mov	 eax, DWORD PTR fs:__except_list
  00010	50		 push	 eax
  00011	64 89 25 00 00
	00 00		 mov	 DWORD PTR fs:__except_list, esp
  00018	51		 push	 ecx
  00019	56		 push	 esi
  0001a	c7 45 f0 cc cc
	cc cc		 mov	 DWORD PTR [ebp-16], -858993460 ; ccccccccH
  00021	89 4d f0	 mov	 DWORD PTR _this$[ebp], ecx
  00024	8b 45 f0	 mov	 eax, DWORD PTR _this$[ebp]
  00027	c7 00 00 00 00
	00		 mov	 DWORD PTR [eax], OFFSET FLAT:??_7CMarkup@@6B@
  0002d	c7 45 fc 01 00
	00 00		 mov	 DWORD PTR __$EHRec$[ebp+8], 1
  00034	8b 4d f0	 mov	 ecx, DWORD PTR _this$[ebp]
  00037	83 c1 14	 add	 ecx, 20			; 00000014H
  0003a	e8 00 00 00 00	 call	 ??1?$CArray@UElemPos@CMarkup@@AAU12@@@UAE@XZ ; CArray<CMarkup::ElemPos,CMarkup::ElemPos &>::~CArray<CMarkup::ElemPos,CMarkup::ElemPos &>
  0003f	c6 45 fc 00	 mov	 BYTE PTR __$EHRec$[ebp+8], 0
  00043	8b 4d f0	 mov	 ecx, DWORD PTR _this$[ebp]
  00046	83 c1 10	 add	 ecx, 16			; 00000010H
  00049	8b f4		 mov	 esi, esp
  0004b	ff 15 00 00 00
	00		 call	 DWORD PTR __imp_??1?$CStringT@DV?$StrTraitMFC_DLL@DV?$ChTraitsCRT@D@ATL@@@@@ATL@@QAE@XZ
  00051	3b f4		 cmp	 esi, esp
  00053	e8 00 00 00 00	 call	 __RTC_CheckEsp
  00058	c7 45 fc ff ff
	ff ff		 mov	 DWORD PTR __$EHRec$[ebp+8], -1
  0005f	8b 4d f0	 mov	 ecx, DWORD PTR _this$[ebp]
  00062	83 c1 0c	 add	 ecx, 12			; 0000000cH
  00065	8b f4		 mov	 esi, esp
  00067	ff 15 00 00 00
	00		 call	 DWORD PTR __imp_??1?$CStringT@DV?$StrTraitMFC_DLL@DV?$ChTraitsCRT@D@ATL@@@@@ATL@@QAE@XZ
  0006d	3b f4		 cmp	 esi, esp
  0006f	e8 00 00 00 00	 call	 __RTC_CheckEsp
  00074	8b 4d f4	 mov	 ecx, DWORD PTR __$EHRec$[ebp]
  00077	64 89 0d 00 00
	00 00		 mov	 DWORD PTR fs:__except_list, ecx
  0007e	5e		 pop	 esi
  0007f	83 c4 10	 add	 esp, 16			; 00000010H
  00082	3b ec		 cmp	 ebp, esp
  00084	e8 00 00 00 00	 call	 __RTC_CheckEsp
  00089	8b e5		 mov	 esp, ebp
  0008b	5d		 pop	 ebp
  0008c	c3		 ret	 0
_TEXT	ENDS
;	COMDAT text$x
text$x	SEGMENT
$L192490:
  00000	8b 4d f0	 mov	 ecx, DWORD PTR _this$[ebp]
  00003	83 c1 0c	 add	 ecx, 12			; 0000000cH
  00006	8b f4		 mov	 esi, esp
  00008	ff 15 00 00 00
	00		 call	 DWORD PTR __imp_??1?$CStringT@DV?$StrTraitMFC_DLL@DV?$ChTraitsCRT@D@ATL@@@@@ATL@@QAE@XZ
  0000e	3b f4		 cmp	 esi, esp
  00010	e9 00 00 00 00	 jmp	 __RTC_CheckEsp
$L192491:
  00015	8b 4d f0	 mov	 ecx, DWORD PTR _this$[ebp]
  00018	83 c1 10	 add	 ecx, 16			; 00000010H
  0001b	8b f4		 mov	 esi, esp
  0001d	ff 15 00 00 00
	00		 call	 DWORD PTR __imp_??1?$CStringT@DV?$StrTraitMFC_DLL@DV?$ChTraitsCRT@D@ATL@@@@@ATL@@QAE@XZ
  00023	3b f4		 cmp	 esi, esp
  00025	e9 00 00 00 00	 jmp	 __RTC_CheckEsp
__ehhandler$??1CMarkup@@UAE@XZ:
  0002a	b8 00 00 00 00	 mov	 eax, OFFSET FLAT:$T192494
  0002f	e9 00 00 00 00	 jmp	 ___CxxFrameHandler
text$x	ENDS
??1CMarkup@@UAE@XZ ENDP					; CMarkup::~CMarkup
; Function compile flags: /Odt /RTCsu
;	COMDAT ??_GCMarkup@@UAEPAXI@Z
_TEXT	SEGMENT
_this$ = -4						; size = 4
___flags$ = 8						; size = 4
??_GCMarkup@@UAEPAXI@Z PROC NEAR			; CMarkup::`scalar deleting destructor', COMDAT
; _this$ = ecx
  00000	55		 push	 ebp
  00001	8b ec		 mov	 ebp, esp
  00003	51		 push	 ecx
  00004	c7 45 fc cc cc
	cc cc		 mov	 DWORD PTR [ebp-4], -858993460 ; ccccccccH
  0000b	89 4d fc	 mov	 DWORD PTR _this$[ebp], ecx
  0000e	8b 4d fc	 mov	 ecx, DWORD PTR _this$[ebp]
  00011	e8 00 00 00 00	 call	 ??1CMarkup@@UAE@XZ	; CMarkup::~CMarkup
  00016	8b 45 08	 mov	 eax, DWORD PTR ___flags$[ebp]
  00019	83 e0 01	 and	 eax, 1
  0001c	74 0c		 je	 SHORT $L189428
  0001e	8b 4d fc	 mov	 ecx, DWORD PTR _this$[ebp]
  00021	51		 push	 ecx
  00022	e8 00 00 00 00	 call	 ??3@YAXPAX@Z		; operator delete
  00027	83 c4 04	 add	 esp, 4
$L189428:
  0002a	8b 45 fc	 mov	 eax, DWORD PTR _this$[ebp]
  0002d	83 c4 04	 add	 esp, 4
  00030	3b ec		 cmp	 ebp, esp
  00032	e8 00 00 00 00	 call	 __RTC_CheckEsp
  00037	8b e5		 mov	 esp, ebp
  00039	5d		 pop	 ebp
  0003a	c2 04 00	 ret	 4
??_GCMarkup@@UAEPAXI@Z ENDP				; CMarkup::`scalar deleting destructor'
_TEXT	ENDS
PUBLIC	??HATL@@YA?AV?$CStringT@DV?$StrTraitMFC_DLL@DV?$ChTraitsCRT@D@ATL@@@@@0@ABV10@PBD@Z ; ATL::operator+
PUBLIC	?AddElem@CMarkup@@QAE_NPBD0@Z			; CMarkup::AddElem
EXTRN	__imp_?IsEmpty@?$CSimpleStringT@D$00@ATL@@QBE_NXZ:NEAR
;	COMDAT xdata$x
; File d:\boxgit\playbox\playbox\dev\prj\playbox\src\util\markuparchive.h
xdata$x	SEGMENT
$T192507 DD	0ffffffffH
	DD	FLAT:$L192503
$T192505 DD	019930520H
	DD	01H
	DD	FLAT:$T192507
	DD	2 DUP(00H)
	DD	2 DUP(00H)
; Function compile flags: /Odt /RTCsu
xdata$x	ENDS
;	COMDAT ?AddElem@CMarkupArchive@@UAE_NPBD0@Z
_TEXT	SEGMENT
tv88 = -32						; size = 4
tv89 = -28						; size = 4
$T192502 = -24						; size = 4
$T192501 = -17						; size = 1
_this$ = -16						; size = 4
__$EHRec$ = -12						; size = 12
_szName$ = 8						; size = 4
_szData$ = 12						; size = 4
?AddElem@CMarkupArchive@@UAE_NPBD0@Z PROC NEAR		; CMarkupArchive::AddElem, COMDAT
; _this$ = ecx

; 144  : 	{	

  00000	55		 push	 ebp
  00001	8b ec		 mov	 ebp, esp
  00003	6a ff		 push	 -1
  00005	68 00 00 00 00	 push	 __ehhandler$?AddElem@CMarkupArchive@@UAE_NPBD0@Z
  0000a	64 a1 00 00 00
	00		 mov	 eax, DWORD PTR fs:__except_list
  00010	50		 push	 eax
  00011	64 89 25 00 00
	00 00		 mov	 DWORD PTR fs:__except_list, esp
  00018	83 ec 14	 sub	 esp, 20			; 00000014H
  0001b	56		 push	 esi
  0001c	b8 cc cc cc cc	 mov	 eax, -858993460		; ccccccccH
  00021	89 45 e0	 mov	 DWORD PTR [ebp-32], eax
  00024	89 45 e4	 mov	 DWORD PTR [ebp-28], eax
  00027	89 45 e8	 mov	 DWORD PTR [ebp-24], eax
  0002a	89 45 ec	 mov	 DWORD PTR [ebp-20], eax
  0002d	89 45 f0	 mov	 DWORD PTR [ebp-16], eax
  00030	89 4d f0	 mov	 DWORD PTR _this$[ebp], ecx

; 145  : 		if (m_sNameSpace.IsEmpty()) 

  00033	8b 4d f0	 mov	 ecx, DWORD PTR _this$[ebp]
  00036	83 c1 4c	 add	 ecx, 76			; 0000004cH
  00039	8b f4		 mov	 esi, esp
  0003b	ff 15 00 00 00
	00		 call	 DWORD PTR __imp_?IsEmpty@?$CSimpleStringT@D$00@ATL@@QBE_NXZ
  00041	3b f4		 cmp	 esi, esp
  00043	e8 00 00 00 00	 call	 __RTC_CheckEsp
  00048	0f b6 c0	 movzx	 eax, al
  0004b	85 c0		 test	 eax, eax
  0004d	74 12		 je	 SHORT $L189530

; 146  : 			return CMarkup::AddElem( szName, szData); 

  0004f	8b 4d 0c	 mov	 ecx, DWORD PTR _szData$[ebp]
  00052	51		 push	 ecx
  00053	8b 55 08	 mov	 edx, DWORD PTR _szName$[ebp]
  00056	52		 push	 edx
  00057	8b 4d f0	 mov	 ecx, DWORD PTR _this$[ebp]
  0005a	e8 00 00 00 00	 call	 ?AddElem@CMarkup@@QAE_NPBD0@Z ; CMarkup::AddElem
  0005f	eb 65		 jmp	 SHORT $L189529
$L189530:

; 147  : 		else 
; 148  : 			return CMarkup::AddElem( m_sNameSpace+szName, szData);

  00061	8b 45 08	 mov	 eax, DWORD PTR _szName$[ebp]
  00064	50		 push	 eax
  00065	8b 4d f0	 mov	 ecx, DWORD PTR _this$[ebp]
  00068	83 c1 4c	 add	 ecx, 76			; 0000004cH
  0006b	51		 push	 ecx
  0006c	8d 55 e8	 lea	 edx, DWORD PTR $T192502[ebp]
  0006f	52		 push	 edx
  00070	e8 00 00 00 00	 call	 ??HATL@@YA?AV?$CStringT@DV?$StrTraitMFC_DLL@DV?$ChTraitsCRT@D@ATL@@@@@0@ABV10@PBD@Z ; ATL::operator+
  00075	83 c4 0c	 add	 esp, 12			; 0000000cH
  00078	89 45 e4	 mov	 DWORD PTR tv89[ebp], eax
  0007b	8b 45 e4	 mov	 eax, DWORD PTR tv89[ebp]
  0007e	89 45 e0	 mov	 DWORD PTR tv88[ebp], eax
  00081	c7 45 fc 00 00
	00 00		 mov	 DWORD PTR __$EHRec$[ebp+8], 0
  00088	8b 4d 0c	 mov	 ecx, DWORD PTR _szData$[ebp]
  0008b	51		 push	 ecx
  0008c	8b f4		 mov	 esi, esp
  0008e	8b 4d e0	 mov	 ecx, DWORD PTR tv88[ebp]
  00091	ff 15 00 00 00
	00		 call	 DWORD PTR __imp_??B?$CSimpleStringT@D$00@ATL@@QBEPBDXZ
  00097	3b f4		 cmp	 esi, esp
  00099	e8 00 00 00 00	 call	 __RTC_CheckEsp
  0009e	50		 push	 eax
  0009f	8b 4d f0	 mov	 ecx, DWORD PTR _this$[ebp]
  000a2	e8 00 00 00 00	 call	 ?AddElem@CMarkup@@QAE_NPBD0@Z ; CMarkup::AddElem
  000a7	88 45 ef	 mov	 BYTE PTR $T192501[ebp], al
  000aa	c7 45 fc ff ff
	ff ff		 mov	 DWORD PTR __$EHRec$[ebp+8], -1
  000b1	8b f4		 mov	 esi, esp
  000b3	8d 4d e8	 lea	 ecx, DWORD PTR $T192502[ebp]
  000b6	ff 15 00 00 00
	00		 call	 DWORD PTR __imp_??1?$CStringT@DV?$StrTraitMFC_DLL@DV?$ChTraitsCRT@D@ATL@@@@@ATL@@QAE@XZ
  000bc	3b f4		 cmp	 esi, esp
  000be	e8 00 00 00 00	 call	 __RTC_CheckEsp
  000c3	8a 45 ef	 mov	 al, BYTE PTR $T192501[ebp]
$L189529:

; 149  : 	};

  000c6	8b 4d f4	 mov	 ecx, DWORD PTR __$EHRec$[ebp]
  000c9	64 89 0d 00 00
	00 00		 mov	 DWORD PTR fs:__except_list, ecx
  000d0	5e		 pop	 esi
  000d1	83 c4 20	 add	 esp, 32			; 00000020H
  000d4	3b ec		 cmp	 ebp, esp
  000d6	e8 00 00 00 00	 call	 __RTC_CheckEsp
  000db	8b e5		 mov	 esp, ebp
  000dd	5d		 pop	 ebp
  000de	c2 08 00	 ret	 8
_TEXT	ENDS
;	COMDAT text$x
text$x	SEGMENT
$L192503:
  00000	8b f4		 mov	 esi, esp
  00002	8d 4d e8	 lea	 ecx, DWORD PTR $T192502[ebp]
  00005	ff 15 00 00 00
	00		 call	 DWORD PTR __imp_??1?$CStringT@DV?$StrTraitMFC_DLL@DV?$ChTraitsCRT@D@ATL@@@@@ATL@@QAE@XZ
  0000b	3b f4		 cmp	 esi, esp
  0000d	e9 00 00 00 00	 jmp	 __RTC_CheckEsp
__ehhandler$?AddElem@CMarkupArchive@@UAE_NPBD0@Z:
  00012	b8 00 00 00 00	 mov	 eax, OFFSET FLAT:$T192505
  00017	e9 00 00 00 00	 jmp	 ___CxxFrameHandler
text$x	ENDS
?AddElem@CMarkupArchive@@UAE_NPBD0@Z ENDP		; CMarkupArchive::AddElem
EXTRN	?x_AddElem@CMarkup@@IAE_NPBD0_N1@Z:NEAR		; CMarkup::x_AddElem
; Function compile flags: /Odt /RTCsu
; File d:\boxgit\playbox\playbox\dev\prj\playbox\src\util\markup.h
;	COMDAT ?AddElem@CMarkup@@QAE_NPBD0@Z
_TEXT	SEGMENT
_this$ = -4						; size = 4
_szName$ = 8						; size = 4
_szData$ = 12						; size = 4
?AddElem@CMarkup@@QAE_NPBD0@Z PROC NEAR			; CMarkup::AddElem, COMDAT
; _this$ = ecx

; 37   : 	bool AddElem( LPCTSTR szName, LPCTSTR szData=NULL ) { return x_AddElem(szName,szData,false,false); };

  00000	55		 push	 ebp
  00001	8b ec		 mov	 ebp, esp
  00003	51		 push	 ecx
  00004	c7 45 fc cc cc
	cc cc		 mov	 DWORD PTR [ebp-4], -858993460 ; ccccccccH
  0000b	89 4d fc	 mov	 DWORD PTR _this$[ebp], ecx
  0000e	6a 00		 push	 0
  00010	6a 00		 push	 0
  00012	8b 45 0c	 mov	 eax, DWORD PTR _szData$[ebp]
  00015	50		 push	 eax
  00016	8b 4d 08	 mov	 ecx, DWORD PTR _szName$[ebp]
  00019	51		 push	 ecx
  0001a	8b 4d fc	 mov	 ecx, DWORD PTR _this$[ebp]
  0001d	e8 00 00 00 00	 call	 ?x_AddElem@CMarkup@@IAE_NPBD0_N1@Z ; CMarkup::x_AddElem
  00022	83 c4 04	 add	 esp, 4
  00025	3b ec		 cmp	 ebp, esp
  00027	e8 00 00 00 00	 call	 __RTC_CheckEsp
  0002c	8b e5		 mov	 esp, ebp
  0002e	5d		 pop	 ebp
  0002f	c2 08 00	 ret	 8
?AddElem@CMarkup@@QAE_NPBD0@Z ENDP			; CMarkup::AddElem
_TEXT	ENDS
PUBLIC	?AddChildElem@CMarkup@@QAE_NPBD0@Z		; CMarkup::AddChildElem
;	COMDAT xdata$x
; File d:\boxgit\playbox\playbox\dev\prj\playbox\src\util\markuparchive.h
xdata$x	SEGMENT
$T192518 DD	0ffffffffH
	DD	FLAT:$L192514
$T192516 DD	019930520H
	DD	01H
	DD	FLAT:$T192518
	DD	2 DUP(00H)
	DD	2 DUP(00H)
; Function compile flags: /Odt /RTCsu
xdata$x	ENDS
;	COMDAT ?AddChildElem@CMarkupArchive@@UAE_NPBD0@Z
_TEXT	SEGMENT
tv88 = -32						; size = 4
tv89 = -28						; size = 4
$T192513 = -24						; size = 4
$T192512 = -17						; size = 1
_this$ = -16						; size = 4
__$EHRec$ = -12						; size = 12
_szName$ = 8						; size = 4
_szData$ = 12						; size = 4
?AddChildElem@CMarkupArchive@@UAE_NPBD0@Z PROC NEAR	; CMarkupArchive::AddChildElem, COMDAT
; _this$ = ecx

; 152  : 	{	

  00000	55		 push	 ebp
  00001	8b ec		 mov	 ebp, esp
  00003	6a ff		 push	 -1
  00005	68 00 00 00 00	 push	 __ehhandler$?AddChildElem@CMarkupArchive@@UAE_NPBD0@Z
  0000a	64 a1 00 00 00
	00		 mov	 eax, DWORD PTR fs:__except_list
  00010	50		 push	 eax
  00011	64 89 25 00 00
	00 00		 mov	 DWORD PTR fs:__except_list, esp
  00018	83 ec 14	 sub	 esp, 20			; 00000014H
  0001b	56		 push	 esi
  0001c	b8 cc cc cc cc	 mov	 eax, -858993460		; ccccccccH
  00021	89 45 e0	 mov	 DWORD PTR [ebp-32], eax
  00024	89 45 e4	 mov	 DWORD PTR [ebp-28], eax
  00027	89 45 e8	 mov	 DWORD PTR [ebp-24], eax
  0002a	89 45 ec	 mov	 DWORD PTR [ebp-20], eax
  0002d	89 45 f0	 mov	 DWORD PTR [ebp-16], eax
  00030	89 4d f0	 mov	 DWORD PTR _this$[ebp], ecx

; 153  : 		if (m_sNameSpace.IsEmpty()) 

  00033	8b 4d f0	 mov	 ecx, DWORD PTR _this$[ebp]
  00036	83 c1 4c	 add	 ecx, 76			; 0000004cH
  00039	8b f4		 mov	 esi, esp
  0003b	ff 15 00 00 00
	00		 call	 DWORD PTR __imp_?IsEmpty@?$CSimpleStringT@D$00@ATL@@QBE_NXZ
  00041	3b f4		 cmp	 esi, esp
  00043	e8 00 00 00 00	 call	 __RTC_CheckEsp
  00048	0f b6 c0	 movzx	 eax, al
  0004b	85 c0		 test	 eax, eax
  0004d	74 12		 je	 SHORT $L189536

; 154  : 			return CMarkup::AddChildElem( szName, szData); 

  0004f	8b 4d 0c	 mov	 ecx, DWORD PTR _szData$[ebp]
  00052	51		 push	 ecx
  00053	8b 55 08	 mov	 edx, DWORD PTR _szName$[ebp]
  00056	52		 push	 edx
  00057	8b 4d f0	 mov	 ecx, DWORD PTR _this$[ebp]
  0005a	e8 00 00 00 00	 call	 ?AddChildElem@CMarkup@@QAE_NPBD0@Z ; CMarkup::AddChildElem
  0005f	eb 65		 jmp	 SHORT $L189535
$L189536:

; 155  : 		else 
; 156  : 			return CMarkup::AddChildElem( m_sNameSpace+szName, szData);

  00061	8b 45 08	 mov	 eax, DWORD PTR _szName$[ebp]
  00064	50		 push	 eax
  00065	8b 4d f0	 mov	 ecx, DWORD PTR _this$[ebp]
  00068	83 c1 4c	 add	 ecx, 76			; 0000004cH
  0006b	51		 push	 ecx
  0006c	8d 55 e8	 lea	 edx, DWORD PTR $T192513[ebp]
  0006f	52		 push	 edx
  00070	e8 00 00 00 00	 call	 ??HATL@@YA?AV?$CStringT@DV?$StrTraitMFC_DLL@DV?$ChTraitsCRT@D@ATL@@@@@0@ABV10@PBD@Z ; ATL::operator+
  00075	83 c4 0c	 add	 esp, 12			; 0000000cH
  00078	89 45 e4	 mov	 DWORD PTR tv89[ebp], eax
  0007b	8b 45 e4	 mov	 eax, DWORD PTR tv89[ebp]
  0007e	89 45 e0	 mov	 DWORD PTR tv88[ebp], eax
  00081	c7 45 fc 00 00
	00 00		 mov	 DWORD PTR __$EHRec$[ebp+8], 0
  00088	8b 4d 0c	 mov	 ecx, DWORD PTR _szData$[ebp]
  0008b	51		 push	 ecx
  0008c	8b f4		 mov	 esi, esp
  0008e	8b 4d e0	 mov	 ecx, DWORD PTR tv88[ebp]
  00091	ff 15 00 00 00
	00		 call	 DWORD PTR __imp_??B?$CSimpleStringT@D$00@ATL@@QBEPBDXZ
  00097	3b f4		 cmp	 esi, esp
  00099	e8 00 00 00 00	 call	 __RTC_CheckEsp
  0009e	50		 push	 eax
  0009f	8b 4d f0	 mov	 ecx, DWORD PTR _this$[ebp]
  000a2	e8 00 00 00 00	 call	 ?AddChildElem@CMarkup@@QAE_NPBD0@Z ; CMarkup::AddChildElem
  000a7	88 45 ef	 mov	 BYTE PTR $T192512[ebp], al
  000aa	c7 45 fc ff ff
	ff ff		 mov	 DWORD PTR __$EHRec$[ebp+8], -1
  000b1	8b f4		 mov	 esi, esp
  000b3	8d 4d e8	 lea	 ecx, DWORD PTR $T192513[ebp]
  000b6	ff 15 00 00 00
	00		 call	 DWORD PTR __imp_??1?$CStringT@DV?$StrTraitMFC_DLL@DV?$ChTraitsCRT@D@ATL@@@@@ATL@@QAE@XZ
  000bc	3b f4		 cmp	 esi, esp
  000be	e8 00 00 00 00	 call	 __RTC_CheckEsp
  000c3	8a 45 ef	 mov	 al, BYTE PTR $T192512[ebp]
$L189535:

; 157  : 	};

  000c6	8b 4d f4	 mov	 ecx, DWORD PTR __$EHRec$[ebp]
  000c9	64 89 0d 00 00
	00 00		 mov	 DWORD PTR fs:__except_list, ecx
  000d0	5e		 pop	 esi
  000d1	83 c4 20	 add	 esp, 32			; 00000020H
  000d4	3b ec		 cmp	 ebp, esp
  000d6	e8 00 00 00 00	 call	 __RTC_CheckEsp
  000db	8b e5		 mov	 esp, ebp
  000dd	5d		 pop	 ebp
  000de	c2 08 00	 ret	 8
_TEXT	ENDS
;	COMDAT text$x
text$x	SEGMENT
$L192514:
  00000	8b f4		 mov	 esi, esp
  00002	8d 4d e8	 lea	 ecx, DWORD PTR $T192513[ebp]
  00005	ff 15 00 00 00
	00		 call	 DWORD PTR __imp_??1?$CStringT@DV?$StrTraitMFC_DLL@DV?$ChTraitsCRT@D@ATL@@@@@ATL@@QAE@XZ
  0000b	3b f4		 cmp	 esi, esp
  0000d	e9 00 00 00 00	 jmp	 __RTC_CheckEsp
__ehhandler$?AddChildElem@CMarkupArchive@@UAE_NPBD0@Z:
  00012	b8 00 00 00 00	 mov	 eax, OFFSET FLAT:$T192516
  00017	e9 00 00 00 00	 jmp	 ___CxxFrameHandler
text$x	ENDS
?AddChildElem@CMarkupArchive@@UAE_NPBD0@Z ENDP		; CMarkupArchive::AddChildElem
; Function compile flags: /Odt /RTCsu
; File d:\boxgit\playbox\playbox\dev\prj\playbox\src\util\markup.h
;	COMDAT ?AddChildElem@CMarkup@@QAE_NPBD0@Z
_TEXT	SEGMENT
_this$ = -4						; size = 4
_szName$ = 8						; size = 4
_szData$ = 12						; size = 4
?AddChildElem@CMarkup@@QAE_NPBD0@Z PROC NEAR		; CMarkup::AddChildElem, COMDAT
; _this$ = ecx

; 38   : 	bool AddChildElem( LPCTSTR szName, LPCTSTR szData=NULL ) { return x_AddElem(szName,szData,false,true); };

  00000	55		 push	 ebp
  00001	8b ec		 mov	 ebp, esp
  00003	51		 push	 ecx
  00004	c7 45 fc cc cc
	cc cc		 mov	 DWORD PTR [ebp-4], -858993460 ; ccccccccH
  0000b	89 4d fc	 mov	 DWORD PTR _this$[ebp], ecx
  0000e	6a 01		 push	 1
  00010	6a 00		 push	 0
  00012	8b 45 0c	 mov	 eax, DWORD PTR _szData$[ebp]
  00015	50		 push	 eax
  00016	8b 4d 08	 mov	 ecx, DWORD PTR _szName$[ebp]
  00019	51		 push	 ecx
  0001a	8b 4d fc	 mov	 ecx, DWORD PTR _this$[ebp]
  0001d	e8 00 00 00 00	 call	 ?x_AddElem@CMarkup@@IAE_NPBD0_N1@Z ; CMarkup::x_AddElem
  00022	83 c4 04	 add	 esp, 4
  00025	3b ec		 cmp	 ebp, esp
  00027	e8 00 00 00 00	 call	 __RTC_CheckEsp
  0002c	8b e5		 mov	 esp, ebp
  0002e	5d		 pop	 ebp
  0002f	c2 08 00	 ret	 8
?AddChildElem@CMarkup@@QAE_NPBD0@Z ENDP			; CMarkup::AddChildElem
_TEXT	ENDS
EXTRN	?FindElem@CMarkup@@QAE_NPBD@Z:NEAR		; CMarkup::FindElem
;	COMDAT xdata$x
; File d:\boxgit\playbox\playbox\dev\prj\playbox\src\util\markuparchive.h
xdata$x	SEGMENT
$T192529 DD	0ffffffffH
	DD	FLAT:$L192525
$T192527 DD	019930520H
	DD	01H
	DD	FLAT:$T192529
	DD	2 DUP(00H)
	DD	2 DUP(00H)
; Function compile flags: /Odt /RTCsu
xdata$x	ENDS
;	COMDAT ?FindElem@CMarkupArchive@@UAE_NPBD@Z
_TEXT	SEGMENT
tv90 = -32						; size = 4
tv91 = -28						; size = 4
$T192524 = -24						; size = 4
$T192523 = -17						; size = 1
_this$ = -16						; size = 4
__$EHRec$ = -12						; size = 12
_szName$ = 8						; size = 4
?FindElem@CMarkupArchive@@UAE_NPBD@Z PROC NEAR		; CMarkupArchive::FindElem, COMDAT
; _this$ = ecx

; 160  : 	{	

  00000	55		 push	 ebp
  00001	8b ec		 mov	 ebp, esp
  00003	6a ff		 push	 -1
  00005	68 00 00 00 00	 push	 __ehhandler$?FindElem@CMarkupArchive@@UAE_NPBD@Z
  0000a	64 a1 00 00 00
	00		 mov	 eax, DWORD PTR fs:__except_list
  00010	50		 push	 eax
  00011	64 89 25 00 00
	00 00		 mov	 DWORD PTR fs:__except_list, esp
  00018	83 ec 14	 sub	 esp, 20			; 00000014H
  0001b	56		 push	 esi
  0001c	b8 cc cc cc cc	 mov	 eax, -858993460		; ccccccccH
  00021	89 45 e0	 mov	 DWORD PTR [ebp-32], eax
  00024	89 45 e4	 mov	 DWORD PTR [ebp-28], eax
  00027	89 45 e8	 mov	 DWORD PTR [ebp-24], eax
  0002a	89 45 ec	 mov	 DWORD PTR [ebp-20], eax
  0002d	89 45 f0	 mov	 DWORD PTR [ebp-16], eax
  00030	89 4d f0	 mov	 DWORD PTR _this$[ebp], ecx

; 161  : 		if (szName==NULL) 

  00033	83 7d 08 00	 cmp	 DWORD PTR _szName$[ebp], 0
  00037	75 0f		 jne	 SHORT $L189542

; 162  : 			return CMarkup::FindElem( NULL); 

  00039	6a 00		 push	 0
  0003b	8b 4d f0	 mov	 ecx, DWORD PTR _this$[ebp]
  0003e	e8 00 00 00 00	 call	 ?FindElem@CMarkup@@QAE_NPBD@Z ; CMarkup::FindElem
  00043	e9 8b 00 00 00	 jmp	 $L189541
$L189542:

; 163  : 		else 
; 164  : 			if (m_sNameSpace.IsEmpty())

  00048	8b 4d f0	 mov	 ecx, DWORD PTR _this$[ebp]
  0004b	83 c1 4c	 add	 ecx, 76			; 0000004cH
  0004e	8b f4		 mov	 esi, esp
  00050	ff 15 00 00 00
	00		 call	 DWORD PTR __imp_?IsEmpty@?$CSimpleStringT@D$00@ATL@@QBE_NXZ
  00056	3b f4		 cmp	 esi, esp
  00058	e8 00 00 00 00	 call	 __RTC_CheckEsp
  0005d	0f b6 c0	 movzx	 eax, al
  00060	85 c0		 test	 eax, eax
  00062	74 0e		 je	 SHORT $L189544

; 165  : 				return CMarkup::FindElem(szName);

  00064	8b 4d 08	 mov	 ecx, DWORD PTR _szName$[ebp]
  00067	51		 push	 ecx
  00068	8b 4d f0	 mov	 ecx, DWORD PTR _this$[ebp]
  0006b	e8 00 00 00 00	 call	 ?FindElem@CMarkup@@QAE_NPBD@Z ; CMarkup::FindElem
  00070	eb 61		 jmp	 SHORT $L189541
$L189544:

; 166  : 			else
; 167  : 				return CMarkup::FindElem( m_sNameSpace+szName);

  00072	8b 55 08	 mov	 edx, DWORD PTR _szName$[ebp]
  00075	52		 push	 edx
  00076	8b 45 f0	 mov	 eax, DWORD PTR _this$[ebp]
  00079	83 c0 4c	 add	 eax, 76			; 0000004cH
  0007c	50		 push	 eax
  0007d	8d 4d e8	 lea	 ecx, DWORD PTR $T192524[ebp]
  00080	51		 push	 ecx
  00081	e8 00 00 00 00	 call	 ??HATL@@YA?AV?$CStringT@DV?$StrTraitMFC_DLL@DV?$ChTraitsCRT@D@ATL@@@@@0@ABV10@PBD@Z ; ATL::operator+
  00086	83 c4 0c	 add	 esp, 12			; 0000000cH
  00089	89 45 e4	 mov	 DWORD PTR tv91[ebp], eax
  0008c	8b 55 e4	 mov	 edx, DWORD PTR tv91[ebp]
  0008f	89 55 e0	 mov	 DWORD PTR tv90[ebp], edx
  00092	c7 45 fc 00 00
	00 00		 mov	 DWORD PTR __$EHRec$[ebp+8], 0
  00099	8b f4		 mov	 esi, esp
  0009b	8b 4d e0	 mov	 ecx, DWORD PTR tv90[ebp]
  0009e	ff 15 00 00 00
	00		 call	 DWORD PTR __imp_??B?$CSimpleStringT@D$00@ATL@@QBEPBDXZ
  000a4	3b f4		 cmp	 esi, esp
  000a6	e8 00 00 00 00	 call	 __RTC_CheckEsp
  000ab	50		 push	 eax
  000ac	8b 4d f0	 mov	 ecx, DWORD PTR _this$[ebp]
  000af	e8 00 00 00 00	 call	 ?FindElem@CMarkup@@QAE_NPBD@Z ; CMarkup::FindElem
  000b4	88 45 ef	 mov	 BYTE PTR $T192523[ebp], al
  000b7	c7 45 fc ff ff
	ff ff		 mov	 DWORD PTR __$EHRec$[ebp+8], -1
  000be	8b f4		 mov	 esi, esp
  000c0	8d 4d e8	 lea	 ecx, DWORD PTR $T192524[ebp]
  000c3	ff 15 00 00 00
	00		 call	 DWORD PTR __imp_??1?$CStringT@DV?$StrTraitMFC_DLL@DV?$ChTraitsCRT@D@ATL@@@@@ATL@@QAE@XZ
  000c9	3b f4		 cmp	 esi, esp
  000cb	e8 00 00 00 00	 call	 __RTC_CheckEsp
  000d0	8a 45 ef	 mov	 al, BYTE PTR $T192523[ebp]
$L189541:

; 168  : 	};

  000d3	8b 4d f4	 mov	 ecx, DWORD PTR __$EHRec$[ebp]
  000d6	64 89 0d 00 00
	00 00		 mov	 DWORD PTR fs:__except_list, ecx
  000dd	5e		 pop	 esi
  000de	83 c4 20	 add	 esp, 32			; 00000020H
  000e1	3b ec		 cmp	 ebp, esp
  000e3	e8 00 00 00 00	 call	 __RTC_CheckEsp
  000e8	8b e5		 mov	 esp, ebp
  000ea	5d		 pop	 ebp
  000eb	c2 04 00	 ret	 4
_TEXT	ENDS
;	COMDAT text$x
text$x	SEGMENT
$L192525:
  00000	8b f4		 mov	 esi, esp
  00002	8d 4d e8	 lea	 ecx, DWORD PTR $T192524[ebp]
  00005	ff 15 00 00 00
	00		 call	 DWORD PTR __imp_??1?$CStringT@DV?$StrTraitMFC_DLL@DV?$ChTraitsCRT@D@ATL@@@@@ATL@@QAE@XZ
  0000b	3b f4		 cmp	 esi, esp
  0000d	e9 00 00 00 00	 jmp	 __RTC_CheckEsp
__ehhandler$?FindElem@CMarkupArchive@@UAE_NPBD@Z:
  00012	b8 00 00 00 00	 mov	 eax, OFFSET FLAT:$T192527
  00017	e9 00 00 00 00	 jmp	 ___CxxFrameHandler
text$x	ENDS
?FindElem@CMarkupArchive@@UAE_NPBD@Z ENDP		; CMarkupArchive::FindElem
EXTRN	?FindChildElem@CMarkup@@QAE_NPBD@Z:NEAR		; CMarkup::FindChildElem
;	COMDAT xdata$x
xdata$x	SEGMENT
$T192539 DD	0ffffffffH
	DD	FLAT:$L192535
$T192537 DD	019930520H
	DD	01H
	DD	FLAT:$T192539
	DD	2 DUP(00H)
	DD	2 DUP(00H)
; Function compile flags: /Odt /RTCsu
xdata$x	ENDS
;	COMDAT ?FindChildElem@CMarkupArchive@@UAE_NPBD@Z
_TEXT	SEGMENT
tv90 = -32						; size = 4
tv91 = -28						; size = 4
$T192534 = -24						; size = 4
$T192533 = -17						; size = 1
_this$ = -16						; size = 4
__$EHRec$ = -12						; size = 12
_szName$ = 8						; size = 4
?FindChildElem@CMarkupArchive@@UAE_NPBD@Z PROC NEAR	; CMarkupArchive::FindChildElem, COMDAT
; _this$ = ecx

; 171  : 	{	

  00000	55		 push	 ebp
  00001	8b ec		 mov	 ebp, esp
  00003	6a ff		 push	 -1
  00005	68 00 00 00 00	 push	 __ehhandler$?FindChildElem@CMarkupArchive@@UAE_NPBD@Z
  0000a	64 a1 00 00 00
	00		 mov	 eax, DWORD PTR fs:__except_list
  00010	50		 push	 eax
  00011	64 89 25 00 00
	00 00		 mov	 DWORD PTR fs:__except_list, esp
  00018	83 ec 14	 sub	 esp, 20			; 00000014H
  0001b	56		 push	 esi
  0001c	b8 cc cc cc cc	 mov	 eax, -858993460		; ccccccccH
  00021	89 45 e0	 mov	 DWORD PTR [ebp-32], eax
  00024	89 45 e4	 mov	 DWORD PTR [ebp-28], eax
  00027	89 45 e8	 mov	 DWORD PTR [ebp-24], eax
  0002a	89 45 ec	 mov	 DWORD PTR [ebp-20], eax
  0002d	89 45 f0	 mov	 DWORD PTR [ebp-16], eax
  00030	89 4d f0	 mov	 DWORD PTR _this$[ebp], ecx

; 172  : 		if (szName==NULL) 

  00033	83 7d 08 00	 cmp	 DWORD PTR _szName$[ebp], 0
  00037	75 0f		 jne	 SHORT $L189550

; 173  : 			return CMarkup::FindElem( NULL); 

  00039	6a 00		 push	 0
  0003b	8b 4d f0	 mov	 ecx, DWORD PTR _this$[ebp]
  0003e	e8 00 00 00 00	 call	 ?FindElem@CMarkup@@QAE_NPBD@Z ; CMarkup::FindElem
  00043	e9 8b 00 00 00	 jmp	 $L189549
$L189550:

; 174  : 		else 
; 175  : 			if (m_sNameSpace.IsEmpty())

  00048	8b 4d f0	 mov	 ecx, DWORD PTR _this$[ebp]
  0004b	83 c1 4c	 add	 ecx, 76			; 0000004cH
  0004e	8b f4		 mov	 esi, esp
  00050	ff 15 00 00 00
	00		 call	 DWORD PTR __imp_?IsEmpty@?$CSimpleStringT@D$00@ATL@@QBE_NXZ
  00056	3b f4		 cmp	 esi, esp
  00058	e8 00 00 00 00	 call	 __RTC_CheckEsp
  0005d	0f b6 c0	 movzx	 eax, al
  00060	85 c0		 test	 eax, eax
  00062	74 0e		 je	 SHORT $L189552

; 176  : 				return CMarkup::FindChildElem(szName);

  00064	8b 4d 08	 mov	 ecx, DWORD PTR _szName$[ebp]
  00067	51		 push	 ecx
  00068	8b 4d f0	 mov	 ecx, DWORD PTR _this$[ebp]
  0006b	e8 00 00 00 00	 call	 ?FindChildElem@CMarkup@@QAE_NPBD@Z ; CMarkup::FindChildElem
  00070	eb 61		 jmp	 SHORT $L189549
$L189552:

; 177  : 			else
; 178  : 				return CMarkup::FindChildElem( m_sNameSpace+szName);

  00072	8b 55 08	 mov	 edx, DWORD PTR _szName$[ebp]
  00075	52		 push	 edx
  00076	8b 45 f0	 mov	 eax, DWORD PTR _this$[ebp]
  00079	83 c0 4c	 add	 eax, 76			; 0000004cH
  0007c	50		 push	 eax
  0007d	8d 4d e8	 lea	 ecx, DWORD PTR $T192534[ebp]
  00080	51		 push	 ecx
  00081	e8 00 00 00 00	 call	 ??HATL@@YA?AV?$CStringT@DV?$StrTraitMFC_DLL@DV?$ChTraitsCRT@D@ATL@@@@@0@ABV10@PBD@Z ; ATL::operator+
  00086	83 c4 0c	 add	 esp, 12			; 0000000cH
  00089	89 45 e4	 mov	 DWORD PTR tv91[ebp], eax
  0008c	8b 55 e4	 mov	 edx, DWORD PTR tv91[ebp]
  0008f	89 55 e0	 mov	 DWORD PTR tv90[ebp], edx
  00092	c7 45 fc 00 00
	00 00		 mov	 DWORD PTR __$EHRec$[ebp+8], 0
  00099	8b f4		 mov	 esi, esp
  0009b	8b 4d e0	 mov	 ecx, DWORD PTR tv90[ebp]
  0009e	ff 15 00 00 00
	00		 call	 DWORD PTR __imp_??B?$CSimpleStringT@D$00@ATL@@QBEPBDXZ
  000a4	3b f4		 cmp	 esi, esp
  000a6	e8 00 00 00 00	 call	 __RTC_CheckEsp
  000ab	50		 push	 eax
  000ac	8b 4d f0	 mov	 ecx, DWORD PTR _this$[ebp]
  000af	e8 00 00 00 00	 call	 ?FindChildElem@CMarkup@@QAE_NPBD@Z ; CMarkup::FindChildElem
  000b4	88 45 ef	 mov	 BYTE PTR $T192533[ebp], al
  000b7	c7 45 fc ff ff
	ff ff		 mov	 DWORD PTR __$EHRec$[ebp+8], -1
  000be	8b f4		 mov	 esi, esp
  000c0	8d 4d e8	 lea	 ecx, DWORD PTR $T192534[ebp]
  000c3	ff 15 00 00 00
	00		 call	 DWORD PTR __imp_??1?$CStringT@DV?$StrTraitMFC_DLL@DV?$ChTraitsCRT@D@ATL@@@@@ATL@@QAE@XZ
  000c9	3b f4		 cmp	 esi, esp
  000cb	e8 00 00 00 00	 call	 __RTC_CheckEsp
  000d0	8a 45 ef	 mov	 al, BYTE PTR $T192533[ebp]
$L189549:

; 179  : 	};

  000d3	8b 4d f4	 mov	 ecx, DWORD PTR __$EHRec$[ebp]
  000d6	64 89 0d 00 00
	00 00		 mov	 DWORD PTR fs:__except_list, ecx
  000dd	5e		 pop	 esi
  000de	83 c4 20	 add	 esp, 32			; 00000020H
  000e1	3b ec		 cmp	 ebp, esp
  000e3	e8 00 00 00 00	 call	 __RTC_CheckEsp
  000e8	8b e5		 mov	 esp, ebp
  000ea	5d		 pop	 ebp
  000eb	c2 04 00	 ret	 4
_TEXT	ENDS
;	COMDAT text$x
text$x	SEGMENT
$L192535:
  00000	8b f4		 mov	 esi, esp
  00002	8d 4d e8	 lea	 ecx, DWORD PTR $T192534[ebp]
  00005	ff 15 00 00 00
	00		 call	 DWORD PTR __imp_??1?$CStringT@DV?$StrTraitMFC_DLL@DV?$ChTraitsCRT@D@ATL@@@@@ATL@@QAE@XZ
  0000b	3b f4		 cmp	 esi, esp
  0000d	e9 00 00 00 00	 jmp	 __RTC_CheckEsp
__ehhandler$?FindChildElem@CMarkupArchive@@UAE_NPBD@Z:
  00012	b8 00 00 00 00	 mov	 eax, OFFSET FLAT:$T192537
  00017	e9 00 00 00 00	 jmp	 ___CxxFrameHandler
text$x	ENDS
?FindChildElem@CMarkupArchive@@UAE_NPBD@Z ENDP		; CMarkupArchive::FindChildElem
; Function compile flags: /Odt /RTCsu
;	COMDAT ??_GCMarkupArchive@@UAEPAXI@Z
_TEXT	SEGMENT
_this$ = -4						; size = 4
___flags$ = 8						; size = 4
??_GCMarkupArchive@@UAEPAXI@Z PROC NEAR			; CMarkupArchive::`scalar deleting destructor', COMDAT
; _this$ = ecx
  00000	55		 push	 ebp
  00001	8b ec		 mov	 ebp, esp
  00003	51		 push	 ecx
  00004	c7 45 fc cc cc
	cc cc		 mov	 DWORD PTR [ebp-4], -858993460 ; ccccccccH
  0000b	89 4d fc	 mov	 DWORD PTR _this$[ebp], ecx
  0000e	8b 4d fc	 mov	 ecx, DWORD PTR _this$[ebp]
  00011	e8 00 00 00 00	 call	 ??1CMarkupArchive@@UAE@XZ ; CMarkupArchive::~CMarkupArchive
  00016	8b 45 08	 mov	 eax, DWORD PTR ___flags$[ebp]
  00019	83 e0 01	 and	 eax, 1
  0001c	74 0c		 je	 SHORT $L189562
  0001e	8b 4d fc	 mov	 ecx, DWORD PTR _this$[ebp]
  00021	51		 push	 ecx
  00022	e8 00 00 00 00	 call	 ??3@YAXPAX@Z		; operator delete
  00027	83 c4 04	 add	 esp, 4
$L189562:
  0002a	8b 45 fc	 mov	 eax, DWORD PTR _this$[ebp]
  0002d	83 c4 04	 add	 esp, 4
  00030	3b ec		 cmp	 ebp, esp
  00032	e8 00 00 00 00	 call	 __RTC_CheckEsp
  00037	8b e5		 mov	 esp, ebp
  00039	5d		 pop	 ebp
  0003a	c2 04 00	 ret	 4
??_GCMarkupArchive@@UAEPAXI@Z ENDP			; CMarkupArchive::`scalar deleting destructor'
_TEXT	ENDS
;	COMDAT xdata$x
xdata$x	SEGMENT
$T192552 DD	0ffffffffH
	DD	FLAT:$L192544
	DD	00H
	DD	FLAT:$L192545
	DD	01H
	DD	FLAT:$L192546
	DD	02H
	DD	FLAT:$L192547
$T192550 DD	019930520H
	DD	04H
	DD	FLAT:$T192552
	DD	2 DUP(00H)
	DD	2 DUP(00H)
; Function compile flags: /Odt /RTCsu
xdata$x	ENDS
;	COMDAT ??1OneLocalGame@@QAE@XZ
_TEXT	SEGMENT
_this$ = -16						; size = 4
__$EHRec$ = -12						; size = 12
??1OneLocalGame@@QAE@XZ PROC NEAR			; OneLocalGame::~OneLocalGame, COMDAT
; _this$ = ecx
  00000	55		 push	 ebp
  00001	8b ec		 mov	 ebp, esp
  00003	6a ff		 push	 -1
  00005	68 00 00 00 00	 push	 __ehhandler$??1OneLocalGame@@QAE@XZ
  0000a	64 a1 00 00 00
	00		 mov	 eax, DWORD PTR fs:__except_list
  00010	50		 push	 eax
  00011	64 89 25 00 00
	00 00		 mov	 DWORD PTR fs:__except_list, esp
  00018	51		 push	 ecx
  00019	56		 push	 esi
  0001a	c7 45 f0 cc cc
	cc cc		 mov	 DWORD PTR [ebp-16], -858993460 ; ccccccccH
  00021	89 4d f0	 mov	 DWORD PTR _this$[ebp], ecx
  00024	c7 45 fc 03 00
	00 00		 mov	 DWORD PTR __$EHRec$[ebp+8], 3
  0002b	8b 4d f0	 mov	 ecx, DWORD PTR _this$[ebp]
  0002e	83 c1 70	 add	 ecx, 112		; 00000070H
  00031	8b f4		 mov	 esi, esp
  00033	ff 15 00 00 00
	00		 call	 DWORD PTR __imp_??1?$basic_string@DU?$char_traits@D@std@@V?$allocator@D@2@@std@@QAE@XZ
  00039	3b f4		 cmp	 esi, esp
  0003b	e8 00 00 00 00	 call	 __RTC_CheckEsp
  00040	c6 45 fc 02	 mov	 BYTE PTR __$EHRec$[ebp+8], 2
  00044	8b 4d f0	 mov	 ecx, DWORD PTR _this$[ebp]
  00047	83 c1 54	 add	 ecx, 84			; 00000054H
  0004a	8b f4		 mov	 esi, esp
  0004c	ff 15 00 00 00
	00		 call	 DWORD PTR __imp_??1?$basic_string@DU?$char_traits@D@std@@V?$allocator@D@2@@std@@QAE@XZ
  00052	3b f4		 cmp	 esi, esp
  00054	e8 00 00 00 00	 call	 __RTC_CheckEsp
  00059	c6 45 fc 01	 mov	 BYTE PTR __$EHRec$[ebp+8], 1
  0005d	8b 4d f0	 mov	 ecx, DWORD PTR _this$[ebp]
  00060	83 c1 38	 add	 ecx, 56			; 00000038H
  00063	8b f4		 mov	 esi, esp
  00065	ff 15 00 00 00
	00		 call	 DWORD PTR __imp_??1?$basic_string@DU?$char_traits@D@std@@V?$allocator@D@2@@std@@QAE@XZ
  0006b	3b f4		 cmp	 esi, esp
  0006d	e8 00 00 00 00	 call	 __RTC_CheckEsp
  00072	c6 45 fc 00	 mov	 BYTE PTR __$EHRec$[ebp+8], 0
  00076	8b 4d f0	 mov	 ecx, DWORD PTR _this$[ebp]
  00079	83 c1 1c	 add	 ecx, 28			; 0000001cH
  0007c	8b f4		 mov	 esi, esp
  0007e	ff 15 00 00 00
	00		 call	 DWORD PTR __imp_??1?$basic_string@DU?$char_traits@D@std@@V?$allocator@D@2@@std@@QAE@XZ
  00084	3b f4		 cmp	 esi, esp
  00086	e8 00 00 00 00	 call	 __RTC_CheckEsp
  0008b	c7 45 fc ff ff
	ff ff		 mov	 DWORD PTR __$EHRec$[ebp+8], -1
  00092	8b f4		 mov	 esi, esp
  00094	8b 4d f0	 mov	 ecx, DWORD PTR _this$[ebp]
  00097	ff 15 00 00 00
	00		 call	 DWORD PTR __imp_??1?$basic_string@DU?$char_traits@D@std@@V?$allocator@D@2@@std@@QAE@XZ
  0009d	3b f4		 cmp	 esi, esp
  0009f	e8 00 00 00 00	 call	 __RTC_CheckEsp
  000a4	8b 4d f4	 mov	 ecx, DWORD PTR __$EHRec$[ebp]
  000a7	64 89 0d 00 00
	00 00		 mov	 DWORD PTR fs:__except_list, ecx
  000ae	5e		 pop	 esi
  000af	83 c4 10	 add	 esp, 16			; 00000010H
  000b2	3b ec		 cmp	 ebp, esp
  000b4	e8 00 00 00 00	 call	 __RTC_CheckEsp
  000b9	8b e5		 mov	 esp, ebp
  000bb	5d		 pop	 ebp
  000bc	c3		 ret	 0
_TEXT	ENDS
;	COMDAT text$x
text$x	SEGMENT
$L192544:
  00000	8b f4		 mov	 esi, esp
  00002	8b 4d f0	 mov	 ecx, DWORD PTR _this$[ebp]
  00005	ff 15 00 00 00
	00		 call	 DWORD PTR __imp_??1?$basic_string@DU?$char_traits@D@std@@V?$allocator@D@2@@std@@QAE@XZ
  0000b	3b f4		 cmp	 esi, esp
  0000d	e9 00 00 00 00	 jmp	 __RTC_CheckEsp
$L192545:
  00012	8b 4d f0	 mov	 ecx, DWORD PTR _this$[ebp]
  00015	83 c1 1c	 add	 ecx, 28			; 0000001cH
  00018	8b f4		 mov	 esi, esp
  0001a	ff 15 00 00 00
	00		 call	 DWORD PTR __imp_??1?$basic_string@DU?$char_traits@D@std@@V?$allocator@D@2@@std@@QAE@XZ
  00020	3b f4		 cmp	 esi, esp
  00022	e9 00 00 00 00	 jmp	 __RTC_CheckEsp
$L192546:
  00027	8b 4d f0	 mov	 ecx, DWORD PTR _this$[ebp]
  0002a	83 c1 38	 add	 ecx, 56			; 00000038H
  0002d	8b f4		 mov	 esi, esp
  0002f	ff 15 00 00 00
	00		 call	 DWORD PTR __imp_??1?$basic_string@DU?$char_traits@D@std@@V?$allocator@D@2@@std@@QAE@XZ
  00035	3b f4		 cmp	 esi, esp
  00037	e9 00 00 00 00	 jmp	 __RTC_CheckEsp
$L192547:
  0003c	8b 4d f0	 mov	 ecx, DWORD PTR _this$[ebp]
  0003f	83 c1 54	 add	 ecx, 84			; 00000054H
  00042	8b f4		 mov	 esi, esp
  00044	ff 15 00 00 00
	00		 call	 DWORD PTR __imp_??1?$basic_string@DU?$char_traits@D@std@@V?$allocator@D@2@@std@@QAE@XZ
  0004a	3b f4		 cmp	 esi, esp
  0004c	e9 00 00 00 00	 jmp	 __RTC_CheckEsp
__ehhandler$??1OneLocalGame@@QAE@XZ:
  00051	b8 00 00 00 00	 mov	 eax, OFFSET FLAT:$T192550
  00056	e9 00 00 00 00	 jmp	 ___CxxFrameHandler
text$x	ENDS
??1OneLocalGame@@QAE@XZ ENDP				; OneLocalGame::~OneLocalGame
PUBLIC	??$?HDU?$char_traits@D@std@@V?$allocator@D@1@@std@@YA?AV?$basic_string@DU?$char_traits@D@std@@V?$allocator@D@2@@0@ABV10@PBD@Z ; std::operator+<char,std::char_traits<char>,std::allocator<char> >
PUBLIC	??9const_iterator@?$vector@UOneLocalGame@@V?$allocator@UOneLocalGame@@@std@@@std@@QBE_NABV012@@Z ; std::vector<OneLocalGame,std::allocator<OneLocalGame> >::const_iterator::operator!=
PUBLIC	??Citerator@?$vector@UOneLocalGame@@V?$allocator@UOneLocalGame@@@std@@@std@@QBEPAUOneLocalGame@@XZ ; std::vector<OneLocalGame,std::allocator<OneLocalGame> >::iterator::operator->
PUBLIC	??Eiterator@?$vector@UOneLocalGame@@V?$allocator@UOneLocalGame@@@std@@@std@@QAE?AV012@H@Z ; std::vector<OneLocalGame,std::allocator<OneLocalGame> >::iterator::operator++
PUBLIC	?SetAttrib@CMarkup@@QAE_NPBD0@Z			; CMarkup::SetAttrib
PUBLIC	?begin@?$vector@UOneLocalGame@@V?$allocator@UOneLocalGame@@@std@@@std@@QAE?AViterator@12@XZ ; std::vector<OneLocalGame,std::allocator<OneLocalGame> >::begin
PUBLIC	?end@?$vector@UOneLocalGame@@V?$allocator@UOneLocalGame@@@std@@@std@@QAE?AViterator@12@XZ ; std::vector<OneLocalGame,std::allocator<OneLocalGame> >::end
EXTRN	?Save@CMarkupArchive@@QAE_NXZ:NEAR		; CMarkupArchive::Save
EXTRN	?MakeDir@YL_DirInfo@@SA_NABV?$basic_string@DU?$char_traits@D@std@@V?$allocator@D@2@@std@@@Z:NEAR ; YL_DirInfo::MakeDir
EXTRN	__imp__CopyFileA@12:NEAR
EXTRN	?GetFileDirPath@YL_FileInfo@@SA_NABV?$basic_string@DU?$char_traits@D@std@@V?$allocator@D@2@@std@@AAV23@@Z:NEAR ; YL_FileInfo::GetFileDirPath
EXTRN	?SetFileContent@YL_FileInfo@@SA_NABV?$basic_string@DU?$char_traits@D@std@@V?$allocator@D@2@@std@@0@Z:NEAR ; YL_FileInfo::SetFileContent
EXTRN	?OutOfElem@CMarkup@@QAE_NXZ:NEAR		; CMarkup::OutOfElem
xdata$x	SEGMENT
$T192574 DD	0ffffffffH
	DD	FLAT:$L192559
	DD	00H
	DD	FLAT:$L192560
	DD	01H
	DD	FLAT:$L192561
	DD	02H
	DD	FLAT:$L192562
$T192564 DD	019930520H
	DD	04H
	DD	FLAT:$T192574
	DD	2 DUP(00H)
	DD	2 DUP(00H)
; Function compile flags: /Odt /RTCsu
; File d:\boxgit\playbox\playbox\dev\prj\playbox\src\module\httpdown\localgamedata.cpp
xdata$x	ENDS
_TEXT	SEGMENT
$T192558 = -240						; size = 4
$T192557 = -236						; size = 4
_it1$189900 = -228					; size = 4
_xml$ = -216						; size = 84
_strFileDir$ = -124					; size = 28
_strContent$ = -88					; size = 28
_strTmp$ = -52						; size = 28
_this$ = -20						; size = 4
__$ArrayPad$ = -16					; size = 4
__$EHRec$ = -12						; size = 12
__$ReturnAddr$ = 4					; size = 4
?UnLoadGameData@LocalGameData@@AAEXXZ PROC NEAR		; LocalGameData::UnLoadGameData
; _this$ = ecx

; 141  : {

  00950	55		 push	 ebp
  00951	8b ec		 mov	 ebp, esp
  00953	6a ff		 push	 -1
  00955	68 00 00 00 00	 push	 __ehhandler$?UnLoadGameData@LocalGameData@@AAEXXZ
  0095a	64 a1 00 00 00
	00		 mov	 eax, DWORD PTR fs:__except_list
  00960	50		 push	 eax
  00961	64 89 25 00 00
	00 00		 mov	 DWORD PTR fs:__except_list, esp
  00968	81 ec e4 00 00
	00		 sub	 esp, 228		; 000000e4H
  0096e	56		 push	 esi
  0096f	57		 push	 edi
  00970	51		 push	 ecx
  00971	8d bd 10 ff ff
	ff		 lea	 edi, DWORD PTR [ebp-240]
  00977	b9 39 00 00 00	 mov	 ecx, 57			; 00000039H
  0097c	b8 cc cc cc cc	 mov	 eax, -858993460		; ccccccccH
  00981	f3 ab		 rep stosd
  00983	59		 pop	 ecx
  00984	a1 00 00 00 00	 mov	 eax, DWORD PTR ___security_cookie
  00989	89 45 f0	 mov	 DWORD PTR __$ArrayPad$[ebp], eax
  0098c	89 4d ec	 mov	 DWORD PTR _this$[ebp], ecx

; 142  : 	string strTmp = m_strDataFilePath + ".1";

  0098f	68 00 00 00 00	 push	 OFFSET FLAT:$SG189778
  00994	8b 45 ec	 mov	 eax, DWORD PTR _this$[ebp]
  00997	83 c0 14	 add	 eax, 20			; 00000014H
  0099a	50		 push	 eax
  0099b	8d 4d cc	 lea	 ecx, DWORD PTR _strTmp$[ebp]
  0099e	51		 push	 ecx
  0099f	e8 00 00 00 00	 call	 ??$?HDU?$char_traits@D@std@@V?$allocator@D@1@@std@@YA?AV?$basic_string@DU?$char_traits@D@std@@V?$allocator@D@2@@0@ABV10@PBD@Z ; std::operator+<char,std::char_traits<char>,std::allocator<char> >
  009a4	83 c4 0c	 add	 esp, 12			; 0000000cH
  009a7	c7 45 fc 00 00
	00 00		 mov	 DWORD PTR __$EHRec$[ebp+8], 0

; 143  : 	string strContent = "<?xml version=\"1.0\" encoding=\"GBK\"?><root/>";

  009ae	8b f4		 mov	 esi, esp
  009b0	68 00 00 00 00	 push	 OFFSET FLAT:$SG189780
  009b5	8d 4d a8	 lea	 ecx, DWORD PTR _strContent$[ebp]
  009b8	ff 15 00 00 00
	00		 call	 DWORD PTR __imp_??0?$basic_string@DU?$char_traits@D@std@@V?$allocator@D@2@@std@@QAE@PBD@Z
  009be	3b f4		 cmp	 esi, esp
  009c0	e8 00 00 00 00	 call	 __RTC_CheckEsp
  009c5	c6 45 fc 01	 mov	 BYTE PTR __$EHRec$[ebp+8], 1

; 144  : 
; 145  : 	string strFileDir;

  009c9	8b f4		 mov	 esi, esp
  009cb	8d 4d 84	 lea	 ecx, DWORD PTR _strFileDir$[ebp]
  009ce	ff 15 00 00 00
	00		 call	 DWORD PTR __imp_??0?$basic_string@DU?$char_traits@D@std@@V?$allocator@D@2@@std@@QAE@XZ
  009d4	3b f4		 cmp	 esi, esp
  009d6	e8 00 00 00 00	 call	 __RTC_CheckEsp
  009db	c6 45 fc 02	 mov	 BYTE PTR __$EHRec$[ebp+8], 2

; 146  : 	YL_FileInfo::GetFileDirPath( strTmp, strFileDir );

  009df	8d 55 84	 lea	 edx, DWORD PTR _strFileDir$[ebp]
  009e2	52		 push	 edx
  009e3	8d 45 cc	 lea	 eax, DWORD PTR _strTmp$[ebp]
  009e6	50		 push	 eax
  009e7	e8 00 00 00 00	 call	 ?GetFileDirPath@YL_FileInfo@@SA_NABV?$basic_string@DU?$char_traits@D@std@@V?$allocator@D@2@@std@@AAV23@@Z ; YL_FileInfo::GetFileDirPath
  009ec	83 c4 08	 add	 esp, 8

; 147  : 	YL_DirInfo::MakeDir( strFileDir );

  009ef	8d 4d 84	 lea	 ecx, DWORD PTR _strFileDir$[ebp]
  009f2	51		 push	 ecx
  009f3	e8 00 00 00 00	 call	 ?MakeDir@YL_DirInfo@@SA_NABV?$basic_string@DU?$char_traits@D@std@@V?$allocator@D@2@@std@@@Z ; YL_DirInfo::MakeDir
  009f8	83 c4 04	 add	 esp, 4

; 148  : 
; 149  : 	YL_FileInfo::SetFileContent( strTmp, strContent );

  009fb	8d 55 a8	 lea	 edx, DWORD PTR _strContent$[ebp]
  009fe	52		 push	 edx
  009ff	8d 45 cc	 lea	 eax, DWORD PTR _strTmp$[ebp]
  00a02	50		 push	 eax
  00a03	e8 00 00 00 00	 call	 ?SetFileContent@YL_FileInfo@@SA_NABV?$basic_string@DU?$char_traits@D@std@@V?$allocator@D@2@@std@@0@Z ; YL_FileInfo::SetFileContent
  00a08	83 c4 08	 add	 esp, 8

; 150  : 	
; 151  : 	CMarkupArchive xml;

  00a0b	6a 03		 push	 3
  00a0d	8d 8d 28 ff ff
	ff		 lea	 ecx, DWORD PTR _xml$[ebp]
  00a13	e8 00 00 00 00	 call	 ??0CMarkupArchive@@QAE@K@Z ; CMarkupArchive::CMarkupArchive
  00a18	c6 45 fc 03	 mov	 BYTE PTR __$EHRec$[ebp+8], 3

; 152  : 	if( !xml.Open(strTmp.c_str()) )

  00a1c	8b f4		 mov	 esi, esp
  00a1e	8d 4d cc	 lea	 ecx, DWORD PTR _strTmp$[ebp]
  00a21	ff 15 00 00 00
	00		 call	 DWORD PTR __imp_?c_str@?$basic_string@DU?$char_traits@D@std@@V?$allocator@D@2@@std@@QBEPBDXZ
  00a27	3b f4		 cmp	 esi, esp
  00a29	e8 00 00 00 00	 call	 __RTC_CheckEsp
  00a2e	50		 push	 eax
  00a2f	8d 8d 28 ff ff
	ff		 lea	 ecx, DWORD PTR _xml$[ebp]
  00a35	e8 00 00 00 00	 call	 ?Open@CMarkupArchive@@QAE_NPBD@Z ; CMarkupArchive::Open
  00a3a	0f b6 c8	 movzx	 ecx, al
  00a3d	85 c9		 test	 ecx, ecx
  00a3f	75 59		 jne	 SHORT $L189783

; 153  : 		return;

  00a41	c6 45 fc 02	 mov	 BYTE PTR __$EHRec$[ebp+8], 2
  00a45	8d 8d 28 ff ff
	ff		 lea	 ecx, DWORD PTR _xml$[ebp]
  00a4b	e8 00 00 00 00	 call	 ??1CMarkupArchive@@UAE@XZ ; CMarkupArchive::~CMarkupArchive
  00a50	c6 45 fc 01	 mov	 BYTE PTR __$EHRec$[ebp+8], 1
  00a54	8b f4		 mov	 esi, esp
  00a56	8d 4d 84	 lea	 ecx, DWORD PTR _strFileDir$[ebp]
  00a59	ff 15 00 00 00
	00		 call	 DWORD PTR __imp_??1?$basic_string@DU?$char_traits@D@std@@V?$allocator@D@2@@std@@QAE@XZ
  00a5f	3b f4		 cmp	 esi, esp
  00a61	e8 00 00 00 00	 call	 __RTC_CheckEsp
  00a66	c6 45 fc 00	 mov	 BYTE PTR __$EHRec$[ebp+8], 0
  00a6a	8b f4		 mov	 esi, esp
  00a6c	8d 4d a8	 lea	 ecx, DWORD PTR _strContent$[ebp]
  00a6f	ff 15 00 00 00
	00		 call	 DWORD PTR __imp_??1?$basic_string@DU?$char_traits@D@std@@V?$allocator@D@2@@std@@QAE@XZ
  00a75	3b f4		 cmp	 esi, esp
  00a77	e8 00 00 00 00	 call	 __RTC_CheckEsp
  00a7c	c7 45 fc ff ff
	ff ff		 mov	 DWORD PTR __$EHRec$[ebp+8], -1
  00a83	8b f4		 mov	 esi, esp
  00a85	8d 4d cc	 lea	 ecx, DWORD PTR _strTmp$[ebp]
  00a88	ff 15 00 00 00
	00		 call	 DWORD PTR __imp_??1?$basic_string@DU?$char_traits@D@std@@V?$allocator@D@2@@std@@QAE@XZ
  00a8e	3b f4		 cmp	 esi, esp
  00a90	e8 00 00 00 00	 call	 __RTC_CheckEsp
  00a95	e9 27 02 00 00	 jmp	 $L189775
$L189783:

; 154  : 
; 155  : 	xml.ResetPos();

  00a9a	8d 8d 28 ff ff
	ff		 lea	 ecx, DWORD PTR _xml$[ebp]
  00aa0	e8 00 00 00 00	 call	 ?ResetPos@CMarkup@@QAEXXZ ; CMarkup::ResetPos

; 156  : 	xml.FindElem();

  00aa5	6a 00		 push	 0
  00aa7	8d 8d 28 ff ff
	ff		 lea	 ecx, DWORD PTR _xml$[ebp]
  00aad	e8 00 00 00 00	 call	 ?FindElem@CMarkupArchive@@UAE_NPBD@Z ; CMarkupArchive::FindElem

; 157  : 
; 158  : 	for( LocalGameList::iterator it1 = m_vecGame.begin(); it1 != m_vecGame.end(); it1++ )

  00ab2	8d 95 1c ff ff
	ff		 lea	 edx, DWORD PTR _it1$189900[ebp]
  00ab8	52		 push	 edx
  00ab9	8b 4d ec	 mov	 ecx, DWORD PTR _this$[ebp]
  00abc	83 c1 04	 add	 ecx, 4
  00abf	e8 00 00 00 00	 call	 ?begin@?$vector@UOneLocalGame@@V?$allocator@UOneLocalGame@@@std@@@std@@QAE?AViterator@12@XZ ; std::vector<OneLocalGame,std::allocator<OneLocalGame> >::begin
  00ac4	eb 14		 jmp	 SHORT $L189904
$L189905:
  00ac6	6a 00		 push	 0
  00ac8	8d 85 14 ff ff
	ff		 lea	 eax, DWORD PTR $T192557[ebp]
  00ace	50		 push	 eax
  00acf	8d 8d 1c ff ff
	ff		 lea	 ecx, DWORD PTR _it1$189900[ebp]
  00ad5	e8 00 00 00 00	 call	 ??Eiterator@?$vector@UOneLocalGame@@V?$allocator@UOneLocalGame@@@std@@@std@@QAE?AV012@H@Z ; std::vector<OneLocalGame,std::allocator<OneLocalGame> >::iterator::operator++
$L189904:
  00ada	8d 8d 10 ff ff
	ff		 lea	 ecx, DWORD PTR $T192558[ebp]
  00ae0	51		 push	 ecx
  00ae1	8b 4d ec	 mov	 ecx, DWORD PTR _this$[ebp]
  00ae4	83 c1 04	 add	 ecx, 4
  00ae7	e8 00 00 00 00	 call	 ?end@?$vector@UOneLocalGame@@V?$allocator@UOneLocalGame@@@std@@@std@@QAE?AViterator@12@XZ ; std::vector<OneLocalGame,std::allocator<OneLocalGame> >::end
  00aec	50		 push	 eax
  00aed	8d 8d 1c ff ff
	ff		 lea	 ecx, DWORD PTR _it1$189900[ebp]
  00af3	e8 00 00 00 00	 call	 ??9const_iterator@?$vector@UOneLocalGame@@V?$allocator@UOneLocalGame@@@std@@@std@@QBE_NABV012@@Z ; std::vector<OneLocalGame,std::allocator<OneLocalGame> >::const_iterator::operator!=
  00af8	0f b6 d0	 movzx	 edx, al
  00afb	85 d2		 test	 edx, edx
  00afd	0f 84 1a 01 00
	00		 je	 $L189906

; 159  : 	{
; 160  : 		xml.AddChildElem( "app" );		

  00b03	6a 00		 push	 0
  00b05	68 00 00 00 00	 push	 OFFSET FLAT:$SG189907
  00b0a	8d 8d 28 ff ff
	ff		 lea	 ecx, DWORD PTR _xml$[ebp]
  00b10	e8 00 00 00 00	 call	 ?AddChildElem@CMarkupArchive@@UAE_NPBD0@Z ; CMarkupArchive::AddChildElem

; 161  : 		xml.IntoElem();

  00b15	8d 8d 28 ff ff
	ff		 lea	 ecx, DWORD PTR _xml$[ebp]
  00b1b	e8 00 00 00 00	 call	 ?IntoElem@CMarkup@@QAE_NXZ ; CMarkup::IntoElem

; 162  : 		xml.SetAttrib( "Id", it1->strID.c_str() );

  00b20	8d 8d 1c ff ff
	ff		 lea	 ecx, DWORD PTR _it1$189900[ebp]
  00b26	e8 00 00 00 00	 call	 ??Citerator@?$vector@UOneLocalGame@@V?$allocator@UOneLocalGame@@@std@@@std@@QBEPAUOneLocalGame@@XZ ; std::vector<OneLocalGame,std::allocator<OneLocalGame> >::iterator::operator->
  00b2b	8b f4		 mov	 esi, esp
  00b2d	8b c8		 mov	 ecx, eax
  00b2f	ff 15 00 00 00
	00		 call	 DWORD PTR __imp_?c_str@?$basic_string@DU?$char_traits@D@std@@V?$allocator@D@2@@std@@QBEPBDXZ
  00b35	3b f4		 cmp	 esi, esp
  00b37	e8 00 00 00 00	 call	 __RTC_CheckEsp
  00b3c	50		 push	 eax
  00b3d	68 00 00 00 00	 push	 OFFSET FLAT:$SG189908
  00b42	8d 8d 28 ff ff
	ff		 lea	 ecx, DWORD PTR _xml$[ebp]
  00b48	e8 00 00 00 00	 call	 ?SetAttrib@CMarkup@@QAE_NPBD0@Z ; CMarkup::SetAttrib

; 163  : 		xml.SetAttrib( "Name", it1->strName.c_str() );

  00b4d	8d 8d 1c ff ff
	ff		 lea	 ecx, DWORD PTR _it1$189900[ebp]
  00b53	e8 00 00 00 00	 call	 ??Citerator@?$vector@UOneLocalGame@@V?$allocator@UOneLocalGame@@@std@@@std@@QBEPAUOneLocalGame@@XZ ; std::vector<OneLocalGame,std::allocator<OneLocalGame> >::iterator::operator->
  00b58	83 c0 1c	 add	 eax, 28			; 0000001cH
  00b5b	8b f4		 mov	 esi, esp
  00b5d	8b c8		 mov	 ecx, eax
  00b5f	ff 15 00 00 00
	00		 call	 DWORD PTR __imp_?c_str@?$basic_string@DU?$char_traits@D@std@@V?$allocator@D@2@@std@@QBEPBDXZ
  00b65	3b f4		 cmp	 esi, esp
  00b67	e8 00 00 00 00	 call	 __RTC_CheckEsp
  00b6c	50		 push	 eax
  00b6d	68 00 00 00 00	 push	 OFFSET FLAT:$SG189909
  00b72	8d 8d 28 ff ff
	ff		 lea	 ecx, DWORD PTR _xml$[ebp]
  00b78	e8 00 00 00 00	 call	 ?SetAttrib@CMarkup@@QAE_NPBD0@Z ; CMarkup::SetAttrib

; 164  : 		xml.SetAttrib( "Intro", it1->strIntro.c_str() );

  00b7d	8d 8d 1c ff ff
	ff		 lea	 ecx, DWORD PTR _it1$189900[ebp]
  00b83	e8 00 00 00 00	 call	 ??Citerator@?$vector@UOneLocalGame@@V?$allocator@UOneLocalGame@@@std@@@std@@QBEPAUOneLocalGame@@XZ ; std::vector<OneLocalGame,std::allocator<OneLocalGame> >::iterator::operator->
  00b88	83 c0 70	 add	 eax, 112		; 00000070H
  00b8b	8b f4		 mov	 esi, esp
  00b8d	8b c8		 mov	 ecx, eax
  00b8f	ff 15 00 00 00
	00		 call	 DWORD PTR __imp_?c_str@?$basic_string@DU?$char_traits@D@std@@V?$allocator@D@2@@std@@QBEPBDXZ
  00b95	3b f4		 cmp	 esi, esp
  00b97	e8 00 00 00 00	 call	 __RTC_CheckEsp
  00b9c	50		 push	 eax
  00b9d	68 00 00 00 00	 push	 OFFSET FLAT:$SG189910
  00ba2	8d 8d 28 ff ff
	ff		 lea	 ecx, DWORD PTR _xml$[ebp]
  00ba8	e8 00 00 00 00	 call	 ?SetAttrib@CMarkup@@QAE_NPBD0@Z ; CMarkup::SetAttrib

; 165  : 		xml.SetAttrib( "Img", it1->strPicPath.c_str() );

  00bad	8d 8d 1c ff ff
	ff		 lea	 ecx, DWORD PTR _it1$189900[ebp]
  00bb3	e8 00 00 00 00	 call	 ??Citerator@?$vector@UOneLocalGame@@V?$allocator@UOneLocalGame@@@std@@@std@@QBEPAUOneLocalGame@@XZ ; std::vector<OneLocalGame,std::allocator<OneLocalGame> >::iterator::operator->
  00bb8	83 c0 54	 add	 eax, 84			; 00000054H
  00bbb	8b f4		 mov	 esi, esp
  00bbd	8b c8		 mov	 ecx, eax
  00bbf	ff 15 00 00 00
	00		 call	 DWORD PTR __imp_?c_str@?$basic_string@DU?$char_traits@D@std@@V?$allocator@D@2@@std@@QBEPBDXZ
  00bc5	3b f4		 cmp	 esi, esp
  00bc7	e8 00 00 00 00	 call	 __RTC_CheckEsp
  00bcc	50		 push	 eax
  00bcd	68 00 00 00 00	 push	 OFFSET FLAT:$SG189911
  00bd2	8d 8d 28 ff ff
	ff		 lea	 ecx, DWORD PTR _xml$[ebp]
  00bd8	e8 00 00 00 00	 call	 ?SetAttrib@CMarkup@@QAE_NPBD0@Z ; CMarkup::SetAttrib

; 166  : 		xml.SetAttrib( "AppPath", it1->strGamePath.c_str() );

  00bdd	8d 8d 1c ff ff
	ff		 lea	 ecx, DWORD PTR _it1$189900[ebp]
  00be3	e8 00 00 00 00	 call	 ??Citerator@?$vector@UOneLocalGame@@V?$allocator@UOneLocalGame@@@std@@@std@@QBEPAUOneLocalGame@@XZ ; std::vector<OneLocalGame,std::allocator<OneLocalGame> >::iterator::operator->
  00be8	83 c0 38	 add	 eax, 56			; 00000038H
  00beb	8b f4		 mov	 esi, esp
  00bed	8b c8		 mov	 ecx, eax
  00bef	ff 15 00 00 00
	00		 call	 DWORD PTR __imp_?c_str@?$basic_string@DU?$char_traits@D@std@@V?$allocator@D@2@@std@@QBEPBDXZ
  00bf5	3b f4		 cmp	 esi, esp
  00bf7	e8 00 00 00 00	 call	 __RTC_CheckEsp
  00bfc	50		 push	 eax
  00bfd	68 00 00 00 00	 push	 OFFSET FLAT:$SG189912
  00c02	8d 8d 28 ff ff
	ff		 lea	 ecx, DWORD PTR _xml$[ebp]
  00c08	e8 00 00 00 00	 call	 ?SetAttrib@CMarkup@@QAE_NPBD0@Z ; CMarkup::SetAttrib

; 167  : 		xml.OutOfElem();

  00c0d	8d 8d 28 ff ff
	ff		 lea	 ecx, DWORD PTR _xml$[ebp]
  00c13	e8 00 00 00 00	 call	 ?OutOfElem@CMarkup@@QAE_NXZ ; CMarkup::OutOfElem

; 168  : 	}

  00c18	e9 a9 fe ff ff	 jmp	 $L189905
$L189906:

; 169  : 	xml.Close();

  00c1d	8d 8d 28 ff ff
	ff		 lea	 ecx, DWORD PTR _xml$[ebp]
  00c23	e8 00 00 00 00	 call	 ?Close@CMarkupArchive@@QAE_NXZ ; CMarkupArchive::Close

; 170  : 	xml.Save();

  00c28	8d 8d 28 ff ff
	ff		 lea	 ecx, DWORD PTR _xml$[ebp]
  00c2e	e8 00 00 00 00	 call	 ?Save@CMarkupArchive@@QAE_NXZ ; CMarkupArchive::Save

; 171  : 
; 172  : 	CopyFile( strTmp.c_str(), m_strDataFilePath.c_str(), FALSE );

  00c33	8b f4		 mov	 esi, esp
  00c35	6a 00		 push	 0
  00c37	8b 4d ec	 mov	 ecx, DWORD PTR _this$[ebp]
  00c3a	83 c1 14	 add	 ecx, 20			; 00000014H
  00c3d	8b fc		 mov	 edi, esp
  00c3f	ff 15 00 00 00
	00		 call	 DWORD PTR __imp_?c_str@?$basic_string@DU?$char_traits@D@std@@V?$allocator@D@2@@std@@QBEPBDXZ
  00c45	3b fc		 cmp	 edi, esp
  00c47	e8 00 00 00 00	 call	 __RTC_CheckEsp
  00c4c	50		 push	 eax
  00c4d	8b fc		 mov	 edi, esp
  00c4f	8d 4d cc	 lea	 ecx, DWORD PTR _strTmp$[ebp]
  00c52	ff 15 00 00 00
	00		 call	 DWORD PTR __imp_?c_str@?$basic_string@DU?$char_traits@D@std@@V?$allocator@D@2@@std@@QBEPBDXZ
  00c58	3b fc		 cmp	 edi, esp
  00c5a	e8 00 00 00 00	 call	 __RTC_CheckEsp
  00c5f	50		 push	 eax
  00c60	ff 15 00 00 00
	00		 call	 DWORD PTR __imp__CopyFileA@12
  00c66	3b f4		 cmp	 esi, esp
  00c68	e8 00 00 00 00	 call	 __RTC_CheckEsp

; 173  : }

  00c6d	c6 45 fc 02	 mov	 BYTE PTR __$EHRec$[ebp+8], 2
  00c71	8d 8d 28 ff ff
	ff		 lea	 ecx, DWORD PTR _xml$[ebp]
  00c77	e8 00 00 00 00	 call	 ??1CMarkupArchive@@UAE@XZ ; CMarkupArchive::~CMarkupArchive
  00c7c	c6 45 fc 01	 mov	 BYTE PTR __$EHRec$[ebp+8], 1
  00c80	8b f4		 mov	 esi, esp
  00c82	8d 4d 84	 lea	 ecx, DWORD PTR _strFileDir$[ebp]
  00c85	ff 15 00 00 00
	00		 call	 DWORD PTR __imp_??1?$basic_string@DU?$char_traits@D@std@@V?$allocator@D@2@@std@@QAE@XZ
  00c8b	3b f4		 cmp	 esi, esp
  00c8d	e8 00 00 00 00	 call	 __RTC_CheckEsp
  00c92	c6 45 fc 00	 mov	 BYTE PTR __$EHRec$[ebp+8], 0
  00c96	8b f4		 mov	 esi, esp
  00c98	8d 4d a8	 lea	 ecx, DWORD PTR _strContent$[ebp]
  00c9b	ff 15 00 00 00
	00		 call	 DWORD PTR __imp_??1?$basic_string@DU?$char_traits@D@std@@V?$allocator@D@2@@std@@QAE@XZ
  00ca1	3b f4		 cmp	 esi, esp
  00ca3	e8 00 00 00 00	 call	 __RTC_CheckEsp
  00ca8	c7 45 fc ff ff
	ff ff		 mov	 DWORD PTR __$EHRec$[ebp+8], -1
  00caf	8b f4		 mov	 esi, esp
  00cb1	8d 4d cc	 lea	 ecx, DWORD PTR _strTmp$[ebp]
  00cb4	ff 15 00 00 00
	00		 call	 DWORD PTR __imp_??1?$basic_string@DU?$char_traits@D@std@@V?$allocator@D@2@@std@@QAE@XZ
  00cba	3b f4		 cmp	 esi, esp
  00cbc	e8 00 00 00 00	 call	 __RTC_CheckEsp
$L189775:
  00cc1	52		 push	 edx
  00cc2	8b cd		 mov	 ecx, ebp
  00cc4	50		 push	 eax
  00cc5	8d 15 00 00 00
	00		 lea	 edx, DWORD PTR $L192573
  00ccb	e8 00 00 00 00	 call	 @_RTC_CheckStackVars@8
  00cd0	58		 pop	 eax
  00cd1	5a		 pop	 edx
  00cd2	8b 4d f4	 mov	 ecx, DWORD PTR __$EHRec$[ebp]
  00cd5	64 89 0d 00 00
	00 00		 mov	 DWORD PTR fs:__except_list, ecx
  00cdc	8b 4d f0	 mov	 ecx, DWORD PTR __$ArrayPad$[ebp]
  00cdf	e8 00 00 00 00	 call	 @__security_check_cookie@4
  00ce4	5f		 pop	 edi
  00ce5	5e		 pop	 esi
  00ce6	81 c4 f0 00 00
	00		 add	 esp, 240		; 000000f0H
  00cec	3b ec		 cmp	 ebp, esp
  00cee	e8 00 00 00 00	 call	 __RTC_CheckEsp
  00cf3	8b e5		 mov	 esp, ebp
  00cf5	5d		 pop	 ebp
  00cf6	c3		 ret	 0
$L192573:
  00cf7	05 00 00 00	 DD	 5
  00cfb	00 00 00 00	 DD	 $L192572
$L192572:
  00cff	cc ff ff ff	 DD	 -52			; ffffffccH
  00d03	1c 00 00 00	 DD	 28			; 0000001cH
  00d07	00 00 00 00	 DD	 $L192565
  00d0b	a8 ff ff ff	 DD	 -88			; ffffffa8H
  00d0f	1c 00 00 00	 DD	 28			; 0000001cH
  00d13	00 00 00 00	 DD	 $L192566
  00d17	84 ff ff ff	 DD	 -124			; ffffff84H
  00d1b	1c 00 00 00	 DD	 28			; 0000001cH
  00d1f	00 00 00 00	 DD	 $L192567
  00d23	28 ff ff ff	 DD	 -216			; ffffff28H
  00d27	54 00 00 00	 DD	 84			; 00000054H
  00d2b	00 00 00 00	 DD	 $L192568
  00d2f	1c ff ff ff	 DD	 -228			; ffffff1cH
  00d33	04 00 00 00	 DD	 4
  00d37	00 00 00 00	 DD	 $L192569
$L192569:
  00d3b	69		 DB	 105			; 00000069H
  00d3c	74		 DB	 116			; 00000074H
  00d3d	31		 DB	 49			; 00000031H
  00d3e	00		 DB	 0
$L192568:
  00d3f	78		 DB	 120			; 00000078H
  00d40	6d		 DB	 109			; 0000006dH
  00d41	6c		 DB	 108			; 0000006cH
  00d42	00		 DB	 0
$L192567:
  00d43	73		 DB	 115			; 00000073H
  00d44	74		 DB	 116			; 00000074H
  00d45	72		 DB	 114			; 00000072H
  00d46	46		 DB	 70			; 00000046H
  00d47	69		 DB	 105			; 00000069H
  00d48	6c		 DB	 108			; 0000006cH
  00d49	65		 DB	 101			; 00000065H
  00d4a	44		 DB	 68			; 00000044H
  00d4b	69		 DB	 105			; 00000069H
  00d4c	72		 DB	 114			; 00000072H
  00d4d	00		 DB	 0
$L192566:
  00d4e	73		 DB	 115			; 00000073H
  00d4f	74		 DB	 116			; 00000074H
  00d50	72		 DB	 114			; 00000072H
  00d51	43		 DB	 67			; 00000043H
  00d52	6f		 DB	 111			; 0000006fH
  00d53	6e		 DB	 110			; 0000006eH
  00d54	74		 DB	 116			; 00000074H
  00d55	65		 DB	 101			; 00000065H
  00d56	6e		 DB	 110			; 0000006eH
  00d57	74		 DB	 116			; 00000074H
  00d58	00		 DB	 0
$L192565:
  00d59	73		 DB	 115			; 00000073H
  00d5a	74		 DB	 116			; 00000074H
  00d5b	72		 DB	 114			; 00000072H
  00d5c	54		 DB	 84			; 00000054H
  00d5d	6d		 DB	 109			; 0000006dH
  00d5e	70		 DB	 112			; 00000070H
  00d5f	00		 DB	 0
_TEXT	ENDS
text$x	SEGMENT
$L192559:
  00177	8b f4		 mov	 esi, esp
  00179	8d 4d cc	 lea	 ecx, DWORD PTR _strTmp$[ebp]
  0017c	ff 15 00 00 00
	00		 call	 DWORD PTR __imp_??1?$basic_string@DU?$char_traits@D@std@@V?$allocator@D@2@@std@@QAE@XZ
  00182	3b f4		 cmp	 esi, esp
  00184	e9 00 00 00 00	 jmp	 __RTC_CheckEsp
$L192560:
  00189	8b f4		 mov	 esi, esp
  0018b	8d 4d a8	 lea	 ecx, DWORD PTR _strContent$[ebp]
  0018e	ff 15 00 00 00
	00		 call	 DWORD PTR __imp_??1?$basic_string@DU?$char_traits@D@std@@V?$allocator@D@2@@std@@QAE@XZ
  00194	3b f4		 cmp	 esi, esp
  00196	e9 00 00 00 00	 jmp	 __RTC_CheckEsp
$L192561:
  0019b	8b f4		 mov	 esi, esp
  0019d	8d 4d 84	 lea	 ecx, DWORD PTR _strFileDir$[ebp]
  001a0	ff 15 00 00 00
	00		 call	 DWORD PTR __imp_??1?$basic_string@DU?$char_traits@D@std@@V?$allocator@D@2@@std@@QAE@XZ
  001a6	3b f4		 cmp	 esi, esp
  001a8	e9 00 00 00 00	 jmp	 __RTC_CheckEsp
$L192562:
  001ad	8d 8d 28 ff ff
	ff		 lea	 ecx, DWORD PTR _xml$[ebp]
  001b3	e9 00 00 00 00	 jmp	 ??1CMarkupArchive@@UAE@XZ ; CMarkupArchive::~CMarkupArchive
__ehhandler$?UnLoadGameData@LocalGameData@@AAEXXZ:
  001b8	b8 00 00 00 00	 mov	 eax, OFFSET FLAT:$T192564
  001bd	e9 00 00 00 00	 jmp	 ___CxxFrameHandler
text$x	ENDS
?UnLoadGameData@LocalGameData@@AAEXXZ ENDP		; LocalGameData::UnLoadGameData
EXTRN	?x_SetAttrib@CMarkup@@IAE_NHPBD0@Z:NEAR		; CMarkup::x_SetAttrib
; Function compile flags: /Odt /RTCsu
; File d:\boxgit\playbox\playbox\dev\prj\playbox\src\util\markup.h
;	COMDAT ?SetAttrib@CMarkup@@QAE_NPBD0@Z
_TEXT	SEGMENT
_this$ = -4						; size = 4
_szAttrib$ = 8						; size = 4
_szValue$ = 12						; size = 4
?SetAttrib@CMarkup@@QAE_NPBD0@Z PROC NEAR		; CMarkup::SetAttrib, COMDAT
; _this$ = ecx

; 41   : 	bool SetAttrib( LPCTSTR szAttrib, LPCTSTR szValue ) { return x_SetAttrib(m_iPos,szAttrib,szValue); };

  00000	55		 push	 ebp
  00001	8b ec		 mov	 ebp, esp
  00003	51		 push	 ecx
  00004	c7 45 fc cc cc
	cc cc		 mov	 DWORD PTR [ebp-4], -858993460 ; ccccccccH
  0000b	89 4d fc	 mov	 DWORD PTR _this$[ebp], ecx
  0000e	8b 45 0c	 mov	 eax, DWORD PTR _szValue$[ebp]
  00011	50		 push	 eax
  00012	8b 4d 08	 mov	 ecx, DWORD PTR _szAttrib$[ebp]
  00015	51		 push	 ecx
  00016	8b 55 fc	 mov	 edx, DWORD PTR _this$[ebp]
  00019	8b 42 2c	 mov	 eax, DWORD PTR [edx+44]
  0001c	50		 push	 eax
  0001d	8b 4d fc	 mov	 ecx, DWORD PTR _this$[ebp]
  00020	e8 00 00 00 00	 call	 ?x_SetAttrib@CMarkup@@IAE_NHPBD0@Z ; CMarkup::x_SetAttrib
  00025	83 c4 04	 add	 esp, 4
  00028	3b ec		 cmp	 ebp, esp
  0002a	e8 00 00 00 00	 call	 __RTC_CheckEsp
  0002f	8b e5		 mov	 esp, ebp
  00031	5d		 pop	 ebp
  00032	c2 08 00	 ret	 8
?SetAttrib@CMarkup@@QAE_NPBD0@Z ENDP			; CMarkup::SetAttrib
_TEXT	ENDS
PUBLIC	??Diterator@?$vector@UOneLocalGame@@V?$allocator@UOneLocalGame@@@std@@@std@@QBEAAUOneLocalGame@@XZ ; std::vector<OneLocalGame,std::allocator<OneLocalGame> >::iterator::operator*
PUBLIC	??4OneLocalGame@@QAEAAU0@ABU0@@Z		; OneLocalGame::operator=
PUBLIC	?erase@?$vector@UOneLocalGame@@V?$allocator@UOneLocalGame@@@std@@@std@@QAE?AViterator@12@V312@@Z ; std::vector<OneLocalGame,std::allocator<OneLocalGame> >::erase
EXTRN	__imp_??$?8DU?$char_traits@D@std@@V?$allocator@D@1@@std@@YA_NABV?$basic_string@DU?$char_traits@D@std@@V?$allocator@D@2@@0@0@Z:NEAR
xdata$x	SEGMENT
$T192591 DD	0ffffffffH
	DD	FLAT:$L192584
$T192586 DD	019930520H
	DD	01H
	DD	FLAT:$T192591
	DD	2 DUP(00H)
	DD	2 DUP(00H)
; Function compile flags: /Odt /RTCsu
; File d:\boxgit\playbox\playbox\dev\prj\playbox\src\module\httpdown\localgamedata.cpp
xdata$x	ENDS
_TEXT	SEGMENT
$T192583 = -50						; size = 1
$T192582 = -49						; size = 1
$T192581 = -48						; size = 4
$T192580 = -41						; size = 1
$T192579 = -40						; size = 4
$T192578 = -36						; size = 4
$T192577 = -32						; size = 4
_it1$ = -24						; size = 4
_this$ = -16						; size = 4
__$EHRec$ = -12						; size = 12
_strID$ = 8						; size = 28
_og$ = 36						; size = 4
?ILocalGameData_GetGameByID@LocalGameData@@UAE_NV?$basic_string@DU?$char_traits@D@std@@V?$allocator@D@2@@std@@AAUOneLocalGame@@@Z PROC NEAR ; LocalGameData::ILocalGameData_GetGameByID
; _this$ = ecx

; 176  : {

  00d60	55		 push	 ebp
  00d61	8b ec		 mov	 ebp, esp
  00d63	6a ff		 push	 -1
  00d65	68 00 00 00 00	 push	 __ehhandler$?ILocalGameData_GetGameByID@LocalGameData@@UAE_NV?$basic_string@DU?$char_traits@D@std@@V?$allocator@D@2@@std@@AAUOneLocalGame@@@Z
  00d6a	64 a1 00 00 00
	00		 mov	 eax, DWORD PTR fs:__except_list
  00d70	50		 push	 eax
  00d71	64 89 25 00 00
	00 00		 mov	 DWORD PTR fs:__except_list, esp
  00d78	83 ec 28	 sub	 esp, 40			; 00000028H
  00d7b	56		 push	 esi
  00d7c	57		 push	 edi
  00d7d	51		 push	 ecx
  00d7e	8d 7d cc	 lea	 edi, DWORD PTR [ebp-52]
  00d81	b9 0a 00 00 00	 mov	 ecx, 10			; 0000000aH
  00d86	b8 cc cc cc cc	 mov	 eax, -858993460		; ccccccccH
  00d8b	f3 ab		 rep stosd
  00d8d	59		 pop	 ecx
  00d8e	89 4d f0	 mov	 DWORD PTR _this$[ebp], ecx
  00d91	c7 45 fc 00 00
	00 00		 mov	 DWORD PTR __$EHRec$[ebp+8], 0

; 177  : 	LocalGameList::iterator it1 = m_vecGame.begin();

  00d98	8d 45 e8	 lea	 eax, DWORD PTR _it1$[ebp]
  00d9b	50		 push	 eax
  00d9c	8b 4d f0	 mov	 ecx, DWORD PTR _this$[ebp]
  00d9f	83 c1 04	 add	 ecx, 4
  00da2	e8 00 00 00 00	 call	 ?begin@?$vector@UOneLocalGame@@V?$allocator@UOneLocalGame@@@std@@@std@@QAE?AViterator@12@XZ ; std::vector<OneLocalGame,std::allocator<OneLocalGame> >::begin

; 178  : 	for( ; it1 != m_vecGame.end(); it1 ++ )

  00da7	eb 0e		 jmp	 SHORT $L189922
$L189923:
  00da9	6a 00		 push	 0
  00dab	8d 4d e0	 lea	 ecx, DWORD PTR $T192577[ebp]
  00dae	51		 push	 ecx
  00daf	8d 4d e8	 lea	 ecx, DWORD PTR _it1$[ebp]
  00db2	e8 00 00 00 00	 call	 ??Eiterator@?$vector@UOneLocalGame@@V?$allocator@UOneLocalGame@@@std@@@std@@QAE?AV012@H@Z ; std::vector<OneLocalGame,std::allocator<OneLocalGame> >::iterator::operator++
$L189922:
  00db7	8d 55 dc	 lea	 edx, DWORD PTR $T192578[ebp]
  00dba	52		 push	 edx
  00dbb	8b 4d f0	 mov	 ecx, DWORD PTR _this$[ebp]
  00dbe	83 c1 04	 add	 ecx, 4
  00dc1	e8 00 00 00 00	 call	 ?end@?$vector@UOneLocalGame@@V?$allocator@UOneLocalGame@@@std@@@std@@QAE?AViterator@12@XZ ; std::vector<OneLocalGame,std::allocator<OneLocalGame> >::end
  00dc6	50		 push	 eax
  00dc7	8d 4d e8	 lea	 ecx, DWORD PTR _it1$[ebp]
  00dca	e8 00 00 00 00	 call	 ??9const_iterator@?$vector@UOneLocalGame@@V?$allocator@UOneLocalGame@@@std@@@std@@QBE_NABV012@@Z ; std::vector<OneLocalGame,std::allocator<OneLocalGame> >::const_iterator::operator!=
  00dcf	0f b6 c0	 movzx	 eax, al
  00dd2	85 c0		 test	 eax, eax
  00dd4	74 2a		 je	 SHORT $L189924

; 179  : 	{
; 180  : 		if( strID == it1->strID)

  00dd6	8d 4d e8	 lea	 ecx, DWORD PTR _it1$[ebp]
  00dd9	e8 00 00 00 00	 call	 ??Citerator@?$vector@UOneLocalGame@@V?$allocator@UOneLocalGame@@@std@@@std@@QBEPAUOneLocalGame@@XZ ; std::vector<OneLocalGame,std::allocator<OneLocalGame> >::iterator::operator->
  00dde	8b f4		 mov	 esi, esp
  00de0	50		 push	 eax
  00de1	8d 4d 08	 lea	 ecx, DWORD PTR _strID$[ebp]
  00de4	51		 push	 ecx
  00de5	ff 15 00 00 00
	00		 call	 DWORD PTR __imp_??$?8DU?$char_traits@D@std@@V?$allocator@D@1@@std@@YA_NABV?$basic_string@DU?$char_traits@D@std@@V?$allocator@D@2@@0@0@Z
  00deb	83 c4 08	 add	 esp, 8
  00dee	3b f4		 cmp	 esi, esp
  00df0	e8 00 00 00 00	 call	 __RTC_CheckEsp
  00df5	0f b6 d0	 movzx	 edx, al
  00df8	85 d2		 test	 edx, edx
  00dfa	74 02		 je	 SHORT $L189925

; 181  : 		{
; 182  : 			break;

  00dfc	eb 02		 jmp	 SHORT $L189924
$L189925:

; 183  : 		}
; 184  : 	}

  00dfe	eb a9		 jmp	 SHORT $L189923
$L189924:

; 185  : 	if( it1 != m_vecGame.end() )

  00e00	8d 45 d8	 lea	 eax, DWORD PTR $T192579[ebp]
  00e03	50		 push	 eax
  00e04	8b 4d f0	 mov	 ecx, DWORD PTR _this$[ebp]
  00e07	83 c1 04	 add	 ecx, 4
  00e0a	e8 00 00 00 00	 call	 ?end@?$vector@UOneLocalGame@@V?$allocator@UOneLocalGame@@@std@@@std@@QAE?AViterator@12@XZ ; std::vector<OneLocalGame,std::allocator<OneLocalGame> >::end
  00e0f	50		 push	 eax
  00e10	8d 4d e8	 lea	 ecx, DWORD PTR _it1$[ebp]
  00e13	e8 00 00 00 00	 call	 ??9const_iterator@?$vector@UOneLocalGame@@V?$allocator@UOneLocalGame@@@std@@@std@@QBE_NABV012@@Z ; std::vector<OneLocalGame,std::allocator<OneLocalGame> >::const_iterator::operator!=
  00e18	0f b6 c8	 movzx	 ecx, al
  00e1b	85 c9		 test	 ecx, ecx
  00e1d	0f 84 8b 00 00
	00		 je	 $L189927

; 186  : 	{
; 187  : 		if( YL_FileInfo::IsValid( it1->strGamePath ) )

  00e23	8d 4d e8	 lea	 ecx, DWORD PTR _it1$[ebp]
  00e26	e8 00 00 00 00	 call	 ??Citerator@?$vector@UOneLocalGame@@V?$allocator@UOneLocalGame@@@std@@@std@@QBEPAUOneLocalGame@@XZ ; std::vector<OneLocalGame,std::allocator<OneLocalGame> >::iterator::operator->
  00e2b	83 c0 38	 add	 eax, 56			; 00000038H
  00e2e	50		 push	 eax
  00e2f	e8 00 00 00 00	 call	 ?IsValid@YL_FileInfo@@SA_NABV?$basic_string@DU?$char_traits@D@std@@V?$allocator@D@2@@std@@@Z ; YL_FileInfo::IsValid
  00e34	83 c4 04	 add	 esp, 4
  00e37	0f b6 d0	 movzx	 edx, al
  00e3a	85 d2		 test	 edx, edx
  00e3c	74 33		 je	 SHORT $L189928

; 188  : 		{
; 189  : 			og = *it1;

  00e3e	8d 4d e8	 lea	 ecx, DWORD PTR _it1$[ebp]
  00e41	e8 00 00 00 00	 call	 ??Diterator@?$vector@UOneLocalGame@@V?$allocator@UOneLocalGame@@@std@@@std@@QBEAAUOneLocalGame@@XZ ; std::vector<OneLocalGame,std::allocator<OneLocalGame> >::iterator::operator*
  00e46	50		 push	 eax
  00e47	8b 4d 24	 mov	 ecx, DWORD PTR _og$[ebp]
  00e4a	e8 00 00 00 00	 call	 ??4OneLocalGame@@QAEAAU0@ABU0@@Z

; 190  : 			return true;

  00e4f	c6 45 d7 01	 mov	 BYTE PTR $T192580[ebp], 1
  00e53	c7 45 fc ff ff
	ff ff		 mov	 DWORD PTR __$EHRec$[ebp+8], -1
  00e5a	8b f4		 mov	 esi, esp
  00e5c	8d 4d 08	 lea	 ecx, DWORD PTR _strID$[ebp]
  00e5f	ff 15 00 00 00
	00		 call	 DWORD PTR __imp_??1?$basic_string@DU?$char_traits@D@std@@V?$allocator@D@2@@std@@QAE@XZ
  00e65	3b f4		 cmp	 esi, esp
  00e67	e8 00 00 00 00	 call	 __RTC_CheckEsp
  00e6c	8a 45 d7	 mov	 al, BYTE PTR $T192580[ebp]
  00e6f	eb 65		 jmp	 SHORT $L189917
$L189928:

; 191  : 		}else
; 192  : 		{
; 193  : 			m_vecGame.erase( it1 );

  00e71	8b 45 e8	 mov	 eax, DWORD PTR _it1$[ebp]
  00e74	50		 push	 eax
  00e75	8d 4d d0	 lea	 ecx, DWORD PTR $T192581[ebp]
  00e78	51		 push	 ecx
  00e79	8b 4d f0	 mov	 ecx, DWORD PTR _this$[ebp]
  00e7c	83 c1 04	 add	 ecx, 4
  00e7f	e8 00 00 00 00	 call	 ?erase@?$vector@UOneLocalGame@@V?$allocator@UOneLocalGame@@@std@@@std@@QAE?AViterator@12@V312@@Z ; std::vector<OneLocalGame,std::allocator<OneLocalGame> >::erase

; 194  : 			og.clear();

  00e84	8b 4d 24	 mov	 ecx, DWORD PTR _og$[ebp]
  00e87	e8 00 00 00 00	 call	 ?clear@OneLocalGame@@QAEXXZ ; OneLocalGame::clear

; 195  : 			return false;

  00e8c	c6 45 cf 00	 mov	 BYTE PTR $T192582[ebp], 0
  00e90	c7 45 fc ff ff
	ff ff		 mov	 DWORD PTR __$EHRec$[ebp+8], -1
  00e97	8b f4		 mov	 esi, esp
  00e99	8d 4d 08	 lea	 ecx, DWORD PTR _strID$[ebp]
  00e9c	ff 15 00 00 00
	00		 call	 DWORD PTR __imp_??1?$basic_string@DU?$char_traits@D@std@@V?$allocator@D@2@@std@@QAE@XZ
  00ea2	3b f4		 cmp	 esi, esp
  00ea4	e8 00 00 00 00	 call	 __RTC_CheckEsp
  00ea9	8a 45 cf	 mov	 al, BYTE PTR $T192582[ebp]
  00eac	eb 28		 jmp	 SHORT $L189917
$L189927:

; 196  : 		}
; 197  : 	}else
; 198  : 	{
; 199  : 		og.clear();

  00eae	8b 4d 24	 mov	 ecx, DWORD PTR _og$[ebp]
  00eb1	e8 00 00 00 00	 call	 ?clear@OneLocalGame@@QAEXXZ ; OneLocalGame::clear

; 200  : 		return false;

  00eb6	c6 45 ce 00	 mov	 BYTE PTR $T192583[ebp], 0
  00eba	c7 45 fc ff ff
	ff ff		 mov	 DWORD PTR __$EHRec$[ebp+8], -1
  00ec1	8b f4		 mov	 esi, esp
  00ec3	8d 4d 08	 lea	 ecx, DWORD PTR _strID$[ebp]
  00ec6	ff 15 00 00 00
	00		 call	 DWORD PTR __imp_??1?$basic_string@DU?$char_traits@D@std@@V?$allocator@D@2@@std@@QAE@XZ
  00ecc	3b f4		 cmp	 esi, esp
  00ece	e8 00 00 00 00	 call	 __RTC_CheckEsp
  00ed3	8a 45 ce	 mov	 al, BYTE PTR $T192583[ebp]
$L189917:

; 201  : 	}
; 202  : }

  00ed6	52		 push	 edx
  00ed7	8b cd		 mov	 ecx, ebp
  00ed9	50		 push	 eax
  00eda	8d 15 00 00 00
	00		 lea	 edx, DWORD PTR $L192590
  00ee0	e8 00 00 00 00	 call	 @_RTC_CheckStackVars@8
  00ee5	58		 pop	 eax
  00ee6	5a		 pop	 edx
  00ee7	8b 4d f4	 mov	 ecx, DWORD PTR __$EHRec$[ebp]
  00eea	64 89 0d 00 00
	00 00		 mov	 DWORD PTR fs:__except_list, ecx
  00ef1	5f		 pop	 edi
  00ef2	5e		 pop	 esi
  00ef3	83 c4 34	 add	 esp, 52			; 00000034H
  00ef6	3b ec		 cmp	 ebp, esp
  00ef8	e8 00 00 00 00	 call	 __RTC_CheckEsp
  00efd	8b e5		 mov	 esp, ebp
  00eff	5d		 pop	 ebp
  00f00	c2 20 00	 ret	 32			; 00000020H
$L192590:
  00f03	01 00 00 00	 DD	 1
  00f07	00 00 00 00	 DD	 $L192589
$L192589:
  00f0b	e8 ff ff ff	 DD	 -24			; ffffffe8H
  00f0f	04 00 00 00	 DD	 4
  00f13	00 00 00 00	 DD	 $L192587
$L192587:
  00f17	69		 DB	 105			; 00000069H
  00f18	74		 DB	 116			; 00000074H
  00f19	31		 DB	 49			; 00000031H
  00f1a	00		 DB	 0
_TEXT	ENDS
text$x	SEGMENT
$L192584:
  001c2	8b f4		 mov	 esi, esp
  001c4	8d 4d 08	 lea	 ecx, DWORD PTR _strID$[ebp]
  001c7	ff 15 00 00 00
	00		 call	 DWORD PTR __imp_??1?$basic_string@DU?$char_traits@D@std@@V?$allocator@D@2@@std@@QAE@XZ
  001cd	3b f4		 cmp	 esi, esp
  001cf	e9 00 00 00 00	 jmp	 __RTC_CheckEsp
__ehhandler$?ILocalGameData_GetGameByID@LocalGameData@@UAE_NV?$basic_string@DU?$char_traits@D@std@@V?$allocator@D@2@@std@@AAUOneLocalGame@@@Z:
  001d4	b8 00 00 00 00	 mov	 eax, OFFSET FLAT:$T192586
  001d9	e9 00 00 00 00	 jmp	 ___CxxFrameHandler
text$x	ENDS
?ILocalGameData_GetGameByID@LocalGameData@@UAE_NV?$basic_string@DU?$char_traits@D@std@@V?$allocator@D@2@@std@@AAUOneLocalGame@@@Z ENDP ; LocalGameData::ILocalGameData_GetGameByID
EXTRN	__imp_??4?$basic_string@DU?$char_traits@D@std@@V?$allocator@D@2@@std@@QAEAAV01@ABV01@@Z:NEAR
; Function compile flags: /Odt /RTCsu
;	COMDAT ??4OneLocalGame@@QAEAAU0@ABU0@@Z
_TEXT	SEGMENT
_this$ = -4						; size = 4
___that$ = 8						; size = 4
??4OneLocalGame@@QAEAAU0@ABU0@@Z PROC NEAR		; OneLocalGame::operator=, COMDAT
; _this$ = ecx
  00000	55		 push	 ebp
  00001	8b ec		 mov	 ebp, esp
  00003	51		 push	 ecx
  00004	56		 push	 esi
  00005	c7 45 fc cc cc
	cc cc		 mov	 DWORD PTR [ebp-4], -858993460 ; ccccccccH
  0000c	89 4d fc	 mov	 DWORD PTR _this$[ebp], ecx
  0000f	8b f4		 mov	 esi, esp
  00011	8b 45 08	 mov	 eax, DWORD PTR ___that$[ebp]
  00014	50		 push	 eax
  00015	8b 4d fc	 mov	 ecx, DWORD PTR _this$[ebp]
  00018	ff 15 00 00 00
	00		 call	 DWORD PTR __imp_??4?$basic_string@DU?$char_traits@D@std@@V?$allocator@D@2@@std@@QAEAAV01@ABV01@@Z
  0001e	3b f4		 cmp	 esi, esp
  00020	e8 00 00 00 00	 call	 __RTC_CheckEsp
  00025	8b 4d 08	 mov	 ecx, DWORD PTR ___that$[ebp]
  00028	83 c1 1c	 add	 ecx, 28			; 0000001cH
  0002b	8b f4		 mov	 esi, esp
  0002d	51		 push	 ecx
  0002e	8b 4d fc	 mov	 ecx, DWORD PTR _this$[ebp]
  00031	83 c1 1c	 add	 ecx, 28			; 0000001cH
  00034	ff 15 00 00 00
	00		 call	 DWORD PTR __imp_??4?$basic_string@DU?$char_traits@D@std@@V?$allocator@D@2@@std@@QAEAAV01@ABV01@@Z
  0003a	3b f4		 cmp	 esi, esp
  0003c	e8 00 00 00 00	 call	 __RTC_CheckEsp
  00041	8b 55 08	 mov	 edx, DWORD PTR ___that$[ebp]
  00044	83 c2 38	 add	 edx, 56			; 00000038H
  00047	8b f4		 mov	 esi, esp
  00049	52		 push	 edx
  0004a	8b 4d fc	 mov	 ecx, DWORD PTR _this$[ebp]
  0004d	83 c1 38	 add	 ecx, 56			; 00000038H
  00050	ff 15 00 00 00
	00		 call	 DWORD PTR __imp_??4?$basic_string@DU?$char_traits@D@std@@V?$allocator@D@2@@std@@QAEAAV01@ABV01@@Z
  00056	3b f4		 cmp	 esi, esp
  00058	e8 00 00 00 00	 call	 __RTC_CheckEsp
  0005d	8b 45 08	 mov	 eax, DWORD PTR ___that$[ebp]
  00060	83 c0 54	 add	 eax, 84			; 00000054H
  00063	8b f4		 mov	 esi, esp
  00065	50		 push	 eax
  00066	8b 4d fc	 mov	 ecx, DWORD PTR _this$[ebp]
  00069	83 c1 54	 add	 ecx, 84			; 00000054H
  0006c	ff 15 00 00 00
	00		 call	 DWORD PTR __imp_??4?$basic_string@DU?$char_traits@D@std@@V?$allocator@D@2@@std@@QAEAAV01@ABV01@@Z
  00072	3b f4		 cmp	 esi, esp
  00074	e8 00 00 00 00	 call	 __RTC_CheckEsp
  00079	8b 4d 08	 mov	 ecx, DWORD PTR ___that$[ebp]
  0007c	83 c1 70	 add	 ecx, 112		; 00000070H
  0007f	8b f4		 mov	 esi, esp
  00081	51		 push	 ecx
  00082	8b 4d fc	 mov	 ecx, DWORD PTR _this$[ebp]
  00085	83 c1 70	 add	 ecx, 112		; 00000070H
  00088	ff 15 00 00 00
	00		 call	 DWORD PTR __imp_??4?$basic_string@DU?$char_traits@D@std@@V?$allocator@D@2@@std@@QAEAAV01@ABV01@@Z
  0008e	3b f4		 cmp	 esi, esp
  00090	e8 00 00 00 00	 call	 __RTC_CheckEsp
  00095	8b 55 fc	 mov	 edx, DWORD PTR _this$[ebp]
  00098	8b 45 08	 mov	 eax, DWORD PTR ___that$[ebp]
  0009b	8b 88 8c 00 00
	00		 mov	 ecx, DWORD PTR [eax+140]
  000a1	89 8a 8c 00 00
	00		 mov	 DWORD PTR [edx+140], ecx
  000a7	8b 45 fc	 mov	 eax, DWORD PTR _this$[ebp]
  000aa	5e		 pop	 esi
  000ab	83 c4 04	 add	 esp, 4
  000ae	3b ec		 cmp	 ebp, esp
  000b0	e8 00 00 00 00	 call	 __RTC_CheckEsp
  000b5	8b e5		 mov	 esp, ebp
  000b7	5d		 pop	 ebp
  000b8	c2 04 00	 ret	 4
??4OneLocalGame@@QAEAAU0@ABU0@@Z ENDP			; OneLocalGame::operator=
_TEXT	ENDS
PUBLIC	?NotifyQQItemCountChange@LocalGameData@@AAEXXZ	; LocalGameData::NotifyQQItemCountChange
EXTRN	?GetFileSize@YL_FileInfo@@SA_NPBDPAI1@Z:NEAR	; YL_FileInfo::GetFileSize
xdata$x	SEGMENT
$T192615 DD	0ffffffffH
	DD	FLAT:$L192600
	DD	00H
	DD	FLAT:$L192601
	DD	01H
	DD	FLAT:$L192602
	DD	02H
	DD	FLAT:$L192603
	DD	03H
	DD	FLAT:$L192604
	DD	04H
	DD	FLAT:$L192605
	DD	05H
	DD	FLAT:$L192606
$T192608 DD	019930520H
	DD	07H
	DD	FLAT:$T192615
	DD	2 DUP(00H)
	DD	2 DUP(00H)
; Function compile flags: /Odt /RTCsu
xdata$x	ENDS
_TEXT	SEGMENT
$T192599 = -198						; size = 1
$T192598 = -197						; size = 1
$T192597 = -196						; size = 4
$T192596 = -192						; size = 4
$T192595 = -188						; size = 4
_olg$ = -180						; size = 144
_it1$ = -28						; size = 4
_this$ = -20						; size = 4
__$ArrayPad$ = -16					; size = 4
__$EHRec$ = -12						; size = 12
__$ReturnAddr$ = 4					; size = 4
_strID$ = 8						; size = 28
_strName$ = 36						; size = 28
_strPicPath$ = 64					; size = 28
_strSwfPath$ = 92					; size = 28
_strIntro$ = 120					; size = 28
_type$ = 148						; size = 4
_strMD5$ = 152						; size = 28
?ILocalGameData_AddGame@LocalGameData@@UAE_NV?$basic_string@DU?$char_traits@D@std@@V?$allocator@D@2@@std@@0000I0@Z PROC NEAR ; LocalGameData::ILocalGameData_AddGame
; _this$ = ecx

; 206  : {

  00f20	55		 push	 ebp
  00f21	8b ec		 mov	 ebp, esp
  00f23	6a ff		 push	 -1
  00f25	68 00 00 00 00	 push	 __ehhandler$?ILocalGameData_AddGame@LocalGameData@@UAE_NV?$basic_string@DU?$char_traits@D@std@@V?$allocator@D@2@@std@@0000I0@Z
  00f2a	64 a1 00 00 00
	00		 mov	 eax, DWORD PTR fs:__except_list
  00f30	50		 push	 eax
  00f31	64 89 25 00 00
	00 00		 mov	 DWORD PTR fs:__except_list, esp
  00f38	81 ec bc 00 00
	00		 sub	 esp, 188		; 000000bcH
  00f3e	56		 push	 esi
  00f3f	57		 push	 edi
  00f40	51		 push	 ecx
  00f41	8d bd 38 ff ff
	ff		 lea	 edi, DWORD PTR [ebp-200]
  00f47	b9 2f 00 00 00	 mov	 ecx, 47			; 0000002fH
  00f4c	b8 cc cc cc cc	 mov	 eax, -858993460		; ccccccccH
  00f51	f3 ab		 rep stosd
  00f53	59		 pop	 ecx
  00f54	a1 00 00 00 00	 mov	 eax, DWORD PTR ___security_cookie
  00f59	89 45 f0	 mov	 DWORD PTR __$ArrayPad$[ebp], eax
  00f5c	89 4d ec	 mov	 DWORD PTR _this$[ebp], ecx
  00f5f	c7 45 fc 05 00
	00 00		 mov	 DWORD PTR __$EHRec$[ebp+8], 5

; 207  : 	//
; 208  : 	LocalGameList::iterator it1 = m_vecGame.begin();

  00f66	8d 45 e4	 lea	 eax, DWORD PTR _it1$[ebp]
  00f69	50		 push	 eax
  00f6a	8b 4d ec	 mov	 ecx, DWORD PTR _this$[ebp]
  00f6d	83 c1 04	 add	 ecx, 4
  00f70	e8 00 00 00 00	 call	 ?begin@?$vector@UOneLocalGame@@V?$allocator@UOneLocalGame@@@std@@@std@@QAE?AViterator@12@XZ ; std::vector<OneLocalGame,std::allocator<OneLocalGame> >::begin

; 209  : 	for( ; it1 != m_vecGame.end(); it1 ++ )

  00f75	eb 11		 jmp	 SHORT $L189952
$L189953:
  00f77	6a 00		 push	 0
  00f79	8d 8d 44 ff ff
	ff		 lea	 ecx, DWORD PTR $T192595[ebp]
  00f7f	51		 push	 ecx
  00f80	8d 4d e4	 lea	 ecx, DWORD PTR _it1$[ebp]
  00f83	e8 00 00 00 00	 call	 ??Eiterator@?$vector@UOneLocalGame@@V?$allocator@UOneLocalGame@@@std@@@std@@QAE?AV012@H@Z ; std::vector<OneLocalGame,std::allocator<OneLocalGame> >::iterator::operator++
$L189952:
  00f88	8d 95 40 ff ff
	ff		 lea	 edx, DWORD PTR $T192596[ebp]
  00f8e	52		 push	 edx
  00f8f	8b 4d ec	 mov	 ecx, DWORD PTR _this$[ebp]
  00f92	83 c1 04	 add	 ecx, 4
  00f95	e8 00 00 00 00	 call	 ?end@?$vector@UOneLocalGame@@V?$allocator@UOneLocalGame@@@std@@@std@@QAE?AViterator@12@XZ ; std::vector<OneLocalGame,std::allocator<OneLocalGame> >::end
  00f9a	50		 push	 eax
  00f9b	8d 4d e4	 lea	 ecx, DWORD PTR _it1$[ebp]
  00f9e	e8 00 00 00 00	 call	 ??9const_iterator@?$vector@UOneLocalGame@@V?$allocator@UOneLocalGame@@@std@@@std@@QBE_NABV012@@Z ; std::vector<OneLocalGame,std::allocator<OneLocalGame> >::const_iterator::operator!=
  00fa3	0f b6 c0	 movzx	 eax, al
  00fa6	85 c0		 test	 eax, eax
  00fa8	74 2a		 je	 SHORT $L189954

; 210  : 	{
; 211  : 		if( strID == it1->strID)

  00faa	8d 4d e4	 lea	 ecx, DWORD PTR _it1$[ebp]
  00fad	e8 00 00 00 00	 call	 ??Citerator@?$vector@UOneLocalGame@@V?$allocator@UOneLocalGame@@@std@@@std@@QBEPAUOneLocalGame@@XZ ; std::vector<OneLocalGame,std::allocator<OneLocalGame> >::iterator::operator->
  00fb2	8b f4		 mov	 esi, esp
  00fb4	50		 push	 eax
  00fb5	8d 4d 08	 lea	 ecx, DWORD PTR _strID$[ebp]
  00fb8	51		 push	 ecx
  00fb9	ff 15 00 00 00
	00		 call	 DWORD PTR __imp_??$?8DU?$char_traits@D@std@@V?$allocator@D@1@@std@@YA_NABV?$basic_string@DU?$char_traits@D@std@@V?$allocator@D@2@@0@0@Z
  00fbf	83 c4 08	 add	 esp, 8
  00fc2	3b f4		 cmp	 esi, esp
  00fc4	e8 00 00 00 00	 call	 __RTC_CheckEsp
  00fc9	0f b6 d0	 movzx	 edx, al
  00fcc	85 d2		 test	 edx, edx
  00fce	74 02		 je	 SHORT $L189955

; 212  : 		{
; 213  : 			break;

  00fd0	eb 02		 jmp	 SHORT $L189954
$L189955:

; 214  : 		}
; 215  : 	}

  00fd2	eb a3		 jmp	 SHORT $L189953
$L189954:

; 216  : 	if( it1 != m_vecGame.end() )

  00fd4	8d 85 3c ff ff
	ff		 lea	 eax, DWORD PTR $T192597[ebp]
  00fda	50		 push	 eax
  00fdb	8b 4d ec	 mov	 ecx, DWORD PTR _this$[ebp]
  00fde	83 c1 04	 add	 ecx, 4
  00fe1	e8 00 00 00 00	 call	 ?end@?$vector@UOneLocalGame@@V?$allocator@UOneLocalGame@@@std@@@std@@QAE?AViterator@12@XZ ; std::vector<OneLocalGame,std::allocator<OneLocalGame> >::end
  00fe6	50		 push	 eax
  00fe7	8d 4d e4	 lea	 ecx, DWORD PTR _it1$[ebp]
  00fea	e8 00 00 00 00	 call	 ??9const_iterator@?$vector@UOneLocalGame@@V?$allocator@UOneLocalGame@@@std@@@std@@QBE_NABV012@@Z ; std::vector<OneLocalGame,std::allocator<OneLocalGame> >::const_iterator::operator!=
  00fef	0f b6 c8	 movzx	 ecx, al
  00ff2	85 c9		 test	 ecx, ecx
  00ff4	0f 84 9c 00 00
	00		 je	 $L189957

; 217  : 	{
; 218  : 		return false;

  00ffa	c6 85 3b ff ff
	ff 00		 mov	 BYTE PTR $T192598[ebp], 0
  01001	c6 45 fc 04	 mov	 BYTE PTR __$EHRec$[ebp+8], 4
  01005	8b f4		 mov	 esi, esp
  01007	8d 4d 08	 lea	 ecx, DWORD PTR _strID$[ebp]
  0100a	ff 15 00 00 00
	00		 call	 DWORD PTR __imp_??1?$basic_string@DU?$char_traits@D@std@@V?$allocator@D@2@@std@@QAE@XZ
  01010	3b f4		 cmp	 esi, esp
  01012	e8 00 00 00 00	 call	 __RTC_CheckEsp
  01017	c6 45 fc 03	 mov	 BYTE PTR __$EHRec$[ebp+8], 3
  0101b	8b f4		 mov	 esi, esp
  0101d	8d 4d 24	 lea	 ecx, DWORD PTR _strName$[ebp]
  01020	ff 15 00 00 00
	00		 call	 DWORD PTR __imp_??1?$basic_string@DU?$char_traits@D@std@@V?$allocator@D@2@@std@@QAE@XZ
  01026	3b f4		 cmp	 esi, esp
  01028	e8 00 00 00 00	 call	 __RTC_CheckEsp
  0102d	c6 45 fc 02	 mov	 BYTE PTR __$EHRec$[ebp+8], 2
  01031	8b f4		 mov	 esi, esp
  01033	8d 4d 40	 lea	 ecx, DWORD PTR _strPicPath$[ebp]
  01036	ff 15 00 00 00
	00		 call	 DWORD PTR __imp_??1?$basic_string@DU?$char_traits@D@std@@V?$allocator@D@2@@std@@QAE@XZ
  0103c	3b f4		 cmp	 esi, esp
  0103e	e8 00 00 00 00	 call	 __RTC_CheckEsp
  01043	c6 45 fc 01	 mov	 BYTE PTR __$EHRec$[ebp+8], 1
  01047	8b f4		 mov	 esi, esp
  01049	8d 4d 5c	 lea	 ecx, DWORD PTR _strSwfPath$[ebp]
  0104c	ff 15 00 00 00
	00		 call	 DWORD PTR __imp_??1?$basic_string@DU?$char_traits@D@std@@V?$allocator@D@2@@std@@QAE@XZ
  01052	3b f4		 cmp	 esi, esp
  01054	e8 00 00 00 00	 call	 __RTC_CheckEsp
  01059	c6 45 fc 00	 mov	 BYTE PTR __$EHRec$[ebp+8], 0
  0105d	8b f4		 mov	 esi, esp
  0105f	8d 4d 78	 lea	 ecx, DWORD PTR _strIntro$[ebp]
  01062	ff 15 00 00 00
	00		 call	 DWORD PTR __imp_??1?$basic_string@DU?$char_traits@D@std@@V?$allocator@D@2@@std@@QAE@XZ
  01068	3b f4		 cmp	 esi, esp
  0106a	e8 00 00 00 00	 call	 __RTC_CheckEsp
  0106f	c7 45 fc ff ff
	ff ff		 mov	 DWORD PTR __$EHRec$[ebp+8], -1
  01076	8b f4		 mov	 esi, esp
  01078	8d 8d 98 00 00
	00		 lea	 ecx, DWORD PTR _strMD5$[ebp]
  0107e	ff 15 00 00 00
	00		 call	 DWORD PTR __imp_??1?$basic_string@DU?$char_traits@D@std@@V?$allocator@D@2@@std@@QAE@XZ
  01084	3b f4		 cmp	 esi, esp
  01086	e8 00 00 00 00	 call	 __RTC_CheckEsp
  0108b	8a 85 3b ff ff
	ff		 mov	 al, BYTE PTR $T192598[ebp]
  01091	e9 64 01 00 00	 jmp	 $L189947
$L189957:

; 219  : 	}
; 220  : 	//
; 221  : 	OneLocalGame olg;

  01096	8d 8d 4c ff ff
	ff		 lea	 ecx, DWORD PTR _olg$[ebp]
  0109c	e8 00 00 00 00	 call	 ??0OneLocalGame@@QAE@XZ	; OneLocalGame::OneLocalGame
  010a1	c6 45 fc 06	 mov	 BYTE PTR __$EHRec$[ebp+8], 6

; 222  : 	olg.strID = strID;

  010a5	8b f4		 mov	 esi, esp
  010a7	8d 55 08	 lea	 edx, DWORD PTR _strID$[ebp]
  010aa	52		 push	 edx
  010ab	8d 8d 4c ff ff
	ff		 lea	 ecx, DWORD PTR _olg$[ebp]
  010b1	ff 15 00 00 00
	00		 call	 DWORD PTR __imp_??4?$basic_string@DU?$char_traits@D@std@@V?$allocator@D@2@@std@@QAEAAV01@ABV01@@Z
  010b7	3b f4		 cmp	 esi, esp
  010b9	e8 00 00 00 00	 call	 __RTC_CheckEsp

; 223  : 	olg.strName = strName;

  010be	8b f4		 mov	 esi, esp
  010c0	8d 45 24	 lea	 eax, DWORD PTR _strName$[ebp]
  010c3	50		 push	 eax
  010c4	8d 8d 68 ff ff
	ff		 lea	 ecx, DWORD PTR _olg$[ebp+28]
  010ca	ff 15 00 00 00
	00		 call	 DWORD PTR __imp_??4?$basic_string@DU?$char_traits@D@std@@V?$allocator@D@2@@std@@QAEAAV01@ABV01@@Z
  010d0	3b f4		 cmp	 esi, esp
  010d2	e8 00 00 00 00	 call	 __RTC_CheckEsp

; 224  : 	olg.strGamePath = strSwfPath;

  010d7	8b f4		 mov	 esi, esp
  010d9	8d 4d 5c	 lea	 ecx, DWORD PTR _strSwfPath$[ebp]
  010dc	51		 push	 ecx
  010dd	8d 4d 84	 lea	 ecx, DWORD PTR _olg$[ebp+56]
  010e0	ff 15 00 00 00
	00		 call	 DWORD PTR __imp_??4?$basic_string@DU?$char_traits@D@std@@V?$allocator@D@2@@std@@QAEAAV01@ABV01@@Z
  010e6	3b f4		 cmp	 esi, esp
  010e8	e8 00 00 00 00	 call	 __RTC_CheckEsp

; 225  : 	olg.strIntro = strIntro;

  010ed	8b f4		 mov	 esi, esp
  010ef	8d 55 78	 lea	 edx, DWORD PTR _strIntro$[ebp]
  010f2	52		 push	 edx
  010f3	8d 4d bc	 lea	 ecx, DWORD PTR _olg$[ebp+112]
  010f6	ff 15 00 00 00
	00		 call	 DWORD PTR __imp_??4?$basic_string@DU?$char_traits@D@std@@V?$allocator@D@2@@std@@QAEAAV01@ABV01@@Z
  010fc	3b f4		 cmp	 esi, esp
  010fe	e8 00 00 00 00	 call	 __RTC_CheckEsp

; 226  : 	YL_FileInfo::GetFileSize( olg.strGamePath.c_str(), &(olg.uiFileSize) );

  01103	6a 00		 push	 0
  01105	8d 45 d8	 lea	 eax, DWORD PTR _olg$[ebp+140]
  01108	50		 push	 eax
  01109	8b f4		 mov	 esi, esp
  0110b	8d 4d 84	 lea	 ecx, DWORD PTR _olg$[ebp+56]
  0110e	ff 15 00 00 00
	00		 call	 DWORD PTR __imp_?c_str@?$basic_string@DU?$char_traits@D@std@@V?$allocator@D@2@@std@@QBEPBDXZ
  01114	3b f4		 cmp	 esi, esp
  01116	e8 00 00 00 00	 call	 __RTC_CheckEsp
  0111b	50		 push	 eax
  0111c	e8 00 00 00 00	 call	 ?GetFileSize@YL_FileInfo@@SA_NPBDPAI1@Z ; YL_FileInfo::GetFileSize
  01121	83 c4 0c	 add	 esp, 12			; 0000000cH

; 227  : 	olg.strPicPath  = strPicPath;	//

  01124	8b f4		 mov	 esi, esp
  01126	8d 4d 40	 lea	 ecx, DWORD PTR _strPicPath$[ebp]
  01129	51		 push	 ecx
  0112a	8d 4d a0	 lea	 ecx, DWORD PTR _olg$[ebp+84]
  0112d	ff 15 00 00 00
	00		 call	 DWORD PTR __imp_??4?$basic_string@DU?$char_traits@D@std@@V?$allocator@D@2@@std@@QAEAAV01@ABV01@@Z
  01133	3b f4		 cmp	 esi, esp
  01135	e8 00 00 00 00	 call	 __RTC_CheckEsp

; 228  : 
; 229  : 	m_vecGame.push_back( olg );

  0113a	8d 95 4c ff ff
	ff		 lea	 edx, DWORD PTR _olg$[ebp]
  01140	52		 push	 edx
  01141	8b 4d ec	 mov	 ecx, DWORD PTR _this$[ebp]
  01144	83 c1 04	 add	 ecx, 4
  01147	e8 00 00 00 00	 call	 ?push_back@?$vector@UOneLocalGame@@V?$allocator@UOneLocalGame@@@std@@@std@@QAEXABUOneLocalGame@@@Z ; std::vector<OneLocalGame,std::allocator<OneLocalGame> >::push_back

; 230  : 	NotifyQQItemCountChange();

  0114c	8b 4d ec	 mov	 ecx, DWORD PTR _this$[ebp]
  0114f	e8 00 00 00 00	 call	 ?NotifyQQItemCountChange@LocalGameData@@AAEXXZ ; LocalGameData::NotifyQQItemCountChange

; 231  : 	return true;

  01154	c6 85 3a ff ff
	ff 01		 mov	 BYTE PTR $T192599[ebp], 1
  0115b	c6 45 fc 05	 mov	 BYTE PTR __$EHRec$[ebp+8], 5
  0115f	8d 8d 4c ff ff
	ff		 lea	 ecx, DWORD PTR _olg$[ebp]
  01165	e8 00 00 00 00	 call	 ??1OneLocalGame@@QAE@XZ
  0116a	c6 45 fc 04	 mov	 BYTE PTR __$EHRec$[ebp+8], 4
  0116e	8b f4		 mov	 esi, esp
  01170	8d 4d 08	 lea	 ecx, DWORD PTR _strID$[ebp]
  01173	ff 15 00 00 00
	00		 call	 DWORD PTR __imp_??1?$basic_string@DU?$char_traits@D@std@@V?$allocator@D@2@@std@@QAE@XZ
  01179	3b f4		 cmp	 esi, esp
  0117b	e8 00 00 00 00	 call	 __RTC_CheckEsp
  01180	c6 45 fc 03	 mov	 BYTE PTR __$EHRec$[ebp+8], 3
  01184	8b f4		 mov	 esi, esp
